; Listing generated by Microsoft (R) Optimizing Compiler Version 13.10.6030 

	TITLE	\Documents and Settings\test\Mes documents\Source\Virtuos_v17\Build\Program\_AIInterface\ActionMoverState.cpp
	.386P
include listing.inc
if @Version gt 510
.model FLAT
else
_TEXT	SEGMENT PARA USE32 PUBLIC 'CODE'
_TEXT	ENDS
_DATA	SEGMENT DWORD USE32 PUBLIC 'DATA'
_DATA	ENDS
CONST	SEGMENT DWORD USE32 PUBLIC 'CONST'
CONST	ENDS
_BSS	SEGMENT DWORD USE32 PUBLIC 'BSS'
_BSS	ENDS
$$SYMBOLS	SEGMENT BYTE USE32 'DEBSYM'
$$SYMBOLS	ENDS
$$TYPES	SEGMENT BYTE USE32 'DEBTYP'
$$TYPES	ENDS
_TLS	SEGMENT DWORD USE32 PUBLIC 'TLS'
_TLS	ENDS
;	COMDAT ??_C@_0BH@GPIKPBBH@ProcessStateMeleeSkill?$AA@
CONST	SEGMENT DWORD USE32 PUBLIC 'CONST'
CONST	ENDS
;	COMDAT ??_C@_0BH@NAELOPMF@ProcessStateMagicSkill?$AA@
CONST	SEGMENT DWORD USE32 PUBLIC 'CONST'
CONST	ENDS
xdata$x	SEGMENT DWORD USE32 PUBLIC 'CONST'
xdata$x	ENDS
text$AFX_COL1	SEGMENT PARA USE32 PUBLIC ''
text$AFX_COL1	ENDS
;	COMDAT ?SelectMemberClear@__GuildCombatMember@CGuildCombat@@QAEXXZ
_TEXT	SEGMENT PARA USE32 PUBLIC 'CODE'
_TEXT	ENDS
;	COMDAT ??0__MINIGAME_PACKET@@QAE@GHHH@Z
_TEXT	SEGMENT PARA USE32 PUBLIC 'CODE'
_TEXT	ENDS
;	COMDAT ?Serialize@__MINIGAME_PACKET@@UAEXAAVCAr@@@Z
_TEXT	SEGMENT PARA USE32 PUBLIC 'CODE'
_TEXT	ENDS
;	COMDAT ?Serialize@__MINIGAME_EXT_PACKET@@UAEXAAVCAr@@@Z
_TEXT	SEGMENT PARA USE32 PUBLIC 'CODE'
_TEXT	ENDS
;	COMDAT ??0MINIGMAME_PRIZE_LIST@CRainbowRaceMng@@QAE@KHK@Z
_TEXT	SEGMENT PARA USE32 PUBLIC 'CODE'
_TEXT	ENDS
;	COMDAT ?RemovePlayerId2CampusId@CCampusMng@@QAEXK@Z
_TEXT	SEGMENT PARA USE32 PUBLIC 'CODE'
_TEXT	ENDS
;	COMDAT ?Init@HonorData@@QAEXXZ
_TEXT	SEGMENT PARA USE32 PUBLIC 'CODE'
_TEXT	ENDS
;	COMDAT ?ProcessState1@CActionMover@@QAEXPAVCMover@@KM@Z
_TEXT	SEGMENT PARA USE32 PUBLIC 'CODE'
_TEXT	ENDS
;	COMDAT ?ProcessStateMeleeSkill@CActionMover@@QAEXKH@Z
_TEXT	SEGMENT PARA USE32 PUBLIC 'CODE'
_TEXT	ENDS
;	COMDAT ?ProcessStateMagicCasting@CActionMover@@QAEXKH@Z
_TEXT	SEGMENT PARA USE32 PUBLIC 'CODE'
_TEXT	ENDS
;	COMDAT ?ProcessStateMagicSkill@CActionMover@@QAEXKH@Z
_TEXT	SEGMENT PARA USE32 PUBLIC 'CODE'
_TEXT	ENDS
;	COMDAT ?_ProcessStateAttack@CActionMover@@QAEXKH@Z
_TEXT	SEGMENT PARA USE32 PUBLIC 'CODE'
_TEXT	ENDS
;	COMDAT ?ProcessStateAttackSP@CActionMover@@QAEXKH@Z
_TEXT	SEGMENT PARA USE32 PUBLIC 'CODE'
_TEXT	ENDS
;	COMDAT ?ProcessStateAttackMagic@CActionMover@@QAEXKH@Z
_TEXT	SEGMENT PARA USE32 PUBLIC 'CODE'
_TEXT	ENDS
;	COMDAT ?ProcessStateAttackRange@CActionMover@@QAEXKH@Z
_TEXT	SEGMENT PARA USE32 PUBLIC 'CODE'
_TEXT	ENDS
;	COMDAT ?compare@?$basic_string@DU?$char_traits@D@std@@V?$allocator@D@2@@std@@QBEHABV12@@Z
_TEXT	SEGMENT PARA USE32 PUBLIC 'CODE'
_TEXT	ENDS
;	COMDAT ?IsFull@?$CStack@K@@QAEHXZ
_TEXT	SEGMENT PARA USE32 PUBLIC 'CODE'
_TEXT	ENDS
;	COMDAT ??A?$map@KPAVCCtrl@@U?$less@K@std@@V?$allocator@U?$pair@$$CBKPAVCCtrl@@@std@@@3@@std@@QAEAAPAVCCtrl@@ABK@Z
_TEXT	SEGMENT PARA USE32 PUBLIC 'CODE'
_TEXT	ENDS
;	COMDAT ??0?$pair@KPAVCCtrl@@@std@@QAE@ABKABQAVCCtrl@@@Z
_TEXT	SEGMENT PARA USE32 PUBLIC 'CODE'
_TEXT	ENDS
;	COMDAT ?GetMax@?$CItemContainer@VCItemElem@@@@QAEHXZ
_TEXT	SEGMENT PARA USE32 PUBLIC 'CODE'
_TEXT	ENDS
;	COMDAT ??0?$deque@PAUtagACTMSG@@V?$allocator@PAUtagACTMSG@@@std@@@std@@QAE@XZ
_TEXT	SEGMENT PARA USE32 PUBLIC 'CODE'
_TEXT	ENDS
;	COMDAT ??1?$deque@PAUtagACTMSG@@V?$allocator@PAUtagACTMSG@@@std@@@std@@QAE@XZ
_TEXT	SEGMENT PARA USE32 PUBLIC 'CODE'
_TEXT	ENDS
;	COMDAT ?begin@?$deque@PAUtagACTMSG@@V?$allocator@PAUtagACTMSG@@@std@@@std@@QAE?AViterator@12@XZ
_TEXT	SEGMENT PARA USE32 PUBLIC 'CODE'
_TEXT	ENDS
;	COMDAT ?end@?$deque@PAUtagACTMSG@@V?$allocator@PAUtagACTMSG@@@std@@@std@@QAE?AViterator@12@XZ
_TEXT	SEGMENT PARA USE32 PUBLIC 'CODE'
_TEXT	ENDS
;	COMDAT ?empty@?$deque@PAUtagACTMSG@@V?$allocator@PAUtagACTMSG@@@std@@@std@@QBE_NXZ
_TEXT	SEGMENT PARA USE32 PUBLIC 'CODE'
_TEXT	ENDS
;	COMDAT ?clear@?$deque@PAUtagACTMSG@@V?$allocator@PAUtagACTMSG@@@std@@@std@@QAEXXZ
_TEXT	SEGMENT PARA USE32 PUBLIC 'CODE'
_TEXT	ENDS
;	COMDAT ??0?$deque@PAUtagMAGICATKMSG@@V?$allocator@PAUtagMAGICATKMSG@@@std@@@std@@QAE@XZ
_TEXT	SEGMENT PARA USE32 PUBLIC 'CODE'
_TEXT	ENDS
;	COMDAT ??1?$deque@PAUtagMAGICATKMSG@@V?$allocator@PAUtagMAGICATKMSG@@@std@@@std@@QAE@XZ
_TEXT	SEGMENT PARA USE32 PUBLIC 'CODE'
_TEXT	ENDS
;	COMDAT ?begin@?$deque@PAUtagMAGICATKMSG@@V?$allocator@PAUtagMAGICATKMSG@@@std@@@std@@QAE?AViterator@12@XZ
_TEXT	SEGMENT PARA USE32 PUBLIC 'CODE'
_TEXT	ENDS
;	COMDAT ?end@?$deque@PAUtagMAGICATKMSG@@V?$allocator@PAUtagMAGICATKMSG@@@std@@@std@@QAE?AViterator@12@XZ
_TEXT	SEGMENT PARA USE32 PUBLIC 'CODE'
_TEXT	ENDS
;	COMDAT ?empty@?$deque@PAUtagMAGICATKMSG@@V?$allocator@PAUtagMAGICATKMSG@@@std@@@std@@QBE_NXZ
_TEXT	SEGMENT PARA USE32 PUBLIC 'CODE'
_TEXT	ENDS
;	COMDAT ?clear@?$deque@PAUtagMAGICATKMSG@@V?$allocator@PAUtagMAGICATKMSG@@@std@@@std@@QAEXXZ
_TEXT	SEGMENT PARA USE32 PUBLIC 'CODE'
_TEXT	ENDS
;	COMDAT ??Diterator@?$deque@PAUtagACTMSG@@V?$allocator@PAUtagACTMSG@@@std@@@std@@QBEAAPAUtagACTMSG@@XZ
_TEXT	SEGMENT PARA USE32 PUBLIC 'CODE'
_TEXT	ENDS
;	COMDAT ??Eiterator@?$deque@PAUtagACTMSG@@V?$allocator@PAUtagACTMSG@@@std@@@std@@QAEAAV012@XZ
_TEXT	SEGMENT PARA USE32 PUBLIC 'CODE'
_TEXT	ENDS
;	COMDAT ??9const_iterator@?$deque@PAUtagACTMSG@@V?$allocator@PAUtagACTMSG@@@std@@@std@@QBE_NABV012@@Z
_TEXT	SEGMENT PARA USE32 PUBLIC 'CODE'
_TEXT	ENDS
;	COMDAT ??Diterator@?$deque@PAUtagMAGICATKMSG@@V?$allocator@PAUtagMAGICATKMSG@@@std@@@std@@QBEAAPAUtagMAGICATKMSG@@XZ
_TEXT	SEGMENT PARA USE32 PUBLIC 'CODE'
_TEXT	ENDS
;	COMDAT ??Eiterator@?$deque@PAUtagMAGICATKMSG@@V?$allocator@PAUtagMAGICATKMSG@@@std@@@std@@QAEAAV012@XZ
_TEXT	SEGMENT PARA USE32 PUBLIC 'CODE'
_TEXT	ENDS
;	COMDAT ??9const_iterator@?$deque@PAUtagMAGICATKMSG@@V?$allocator@PAUtagMAGICATKMSG@@@std@@@std@@QBE_NABV012@@Z
_TEXT	SEGMENT PARA USE32 PUBLIC 'CODE'
_TEXT	ENDS
;	COMDAT ?erase@?$_Tree@V?$_Tmap_traits@KU_Friend@@U?$less@K@std@@V?$allocator@U?$pair@$$CBKU_Friend@@@std@@@3@$0A@@std@@@std@@QAEIABK@Z
_TEXT	SEGMENT PARA USE32 PUBLIC 'CODE'
_TEXT	ENDS
;	COMDAT ?size@?$_Tree@V?$_Tmap_traits@KPAVCGuildMember@@U?$less@K@std@@V?$allocator@U?$pair@$$CBKPAVCGuildMember@@@std@@@3@$0A@@std@@@std@@QBEIXZ
_TEXT	SEGMENT PARA USE32 PUBLIC 'CODE'
_TEXT	ENDS
;	COMDAT ?size@?$_Tree@V?$_Tmap_traits@KPAVCGuild@@U?$less@K@std@@V?$allocator@U?$pair@$$CBKPAVCGuild@@@std@@@3@$0A@@std@@@std@@QBEIXZ
_TEXT	SEGMENT PARA USE32 PUBLIC 'CODE'
_TEXT	ENDS
;	COMDAT ?size@?$vector@PAU__JOINPLAYER@CGuildCombat@@V?$allocator@PAU__JOINPLAYER@CGuildCombat@@@std@@@std@@QBEIXZ
_TEXT	SEGMENT PARA USE32 PUBLIC 'CODE'
_TEXT	ENDS
;	COMDAT ??A?$vector@PAU__JOINPLAYER@CGuildCombat@@V?$allocator@PAU__JOINPLAYER@CGuildCombat@@@std@@@std@@QAEAAPAU__JOINPLAYER@CGuildCombat@@I@Z
_TEXT	SEGMENT PARA USE32 PUBLIC 'CODE'
_TEXT	ENDS
;	COMDAT ?clear@?$vector@PAU__JOINPLAYER@CGuildCombat@@V?$allocator@PAU__JOINPLAYER@CGuildCombat@@@std@@@std@@QAEXXZ
_TEXT	SEGMENT PARA USE32 PUBLIC 'CODE'
_TEXT	ENDS
;	COMDAT ?clear@?$list@PAU__JOINPLAYER@CGuildCombat@@V?$allocator@PAU__JOINPLAYER@CGuildCombat@@@std@@@std@@QAEXXZ
_TEXT	SEGMENT PARA USE32 PUBLIC 'CODE'
_TEXT	ENDS
;	COMDAT ?size@?$_Tree@V?$_Tmap_traits@KPAU_PlayerData@@U?$less@K@std@@V?$allocator@U?$pair@$$CBKPAU_PlayerData@@@std@@@3@$0A@@std@@@std@@QBEIXZ
_TEXT	SEGMENT PARA USE32 PUBLIC 'CODE'
_TEXT	ENDS
;	COMDAT ??0?$vector@U__SECRETROOM_MONSTER@@V?$allocator@U__SECRETROOM_MONSTER@@@std@@@std@@QAE@XZ
_TEXT	SEGMENT PARA USE32 PUBLIC 'CODE'
_TEXT	ENDS
;	COMDAT ??1?$vector@U__SECRETROOM_MONSTER@@V?$allocator@U__SECRETROOM_MONSTER@@@std@@@std@@QAE@XZ
_TEXT	SEGMENT PARA USE32 PUBLIC 'CODE'
_TEXT	ENDS
;	COMDAT ??0?$vector@V?$basic_string@DU?$char_traits@D@std@@V?$allocator@D@2@@std@@V?$allocator@V?$basic_string@DU?$char_traits@D@std@@V?$allocator@D@2@@std@@@2@@std@@QAE@XZ
_TEXT	SEGMENT PARA USE32 PUBLIC 'CODE'
_TEXT	ENDS
;	COMDAT ??1?$vector@V?$basic_string@DU?$char_traits@D@std@@V?$allocator@D@2@@std@@V?$allocator@V?$basic_string@DU?$char_traits@D@std@@V?$allocator@D@2@@std@@@2@@std@@QAE@XZ
_TEXT	SEGMENT PARA USE32 PUBLIC 'CODE'
_TEXT	ENDS
;	COMDAT ?size@?$vector@V?$basic_string@DU?$char_traits@D@std@@V?$allocator@D@2@@std@@V?$allocator@V?$basic_string@DU?$char_traits@D@std@@V?$allocator@D@2@@std@@@2@@std@@QBEIXZ
_TEXT	SEGMENT PARA USE32 PUBLIC 'CODE'
_TEXT	ENDS
;	COMDAT ??A?$vector@V?$basic_string@DU?$char_traits@D@std@@V?$allocator@D@2@@std@@V?$allocator@V?$basic_string@DU?$char_traits@D@std@@V?$allocator@D@2@@std@@@2@@std@@QAEAAV?$basic_string@DU?$char_traits@D@std@@V?$allocator@D@2@@1@I@Z
_TEXT	SEGMENT PARA USE32 PUBLIC 'CODE'
_TEXT	ENDS
;	COMDAT ?push_back@?$vector@V?$basic_string@DU?$char_traits@D@std@@V?$allocator@D@2@@std@@V?$allocator@V?$basic_string@DU?$char_traits@D@std@@V?$allocator@D@2@@std@@@2@@std@@QAEXABV?$basic_string@DU?$char_traits@D@std@@V?$allocator@D@2@@2@@Z
_TEXT	SEGMENT PARA USE32 PUBLIC 'CODE'
_TEXT	ENDS
;	COMDAT ?clear@?$vector@V?$basic_string@DU?$char_traits@D@std@@V?$allocator@D@2@@std@@V?$allocator@V?$basic_string@DU?$char_traits@D@std@@V?$allocator@D@2@@std@@@2@@std@@QAEXXZ
_TEXT	SEGMENT PARA USE32 PUBLIC 'CODE'
_TEXT	ENDS
;	COMDAT ?push_back@?$vector@UMINIGMAME_PRIZE_LIST@CRainbowRaceMng@@V?$allocator@UMINIGMAME_PRIZE_LIST@CRainbowRaceMng@@@std@@@std@@QAEXABUMINIGMAME_PRIZE_LIST@CRainbowRaceMng@@@Z
_TEXT	SEGMENT PARA USE32 PUBLIC 'CODE'
_TEXT	ENDS
;	COMDAT ?size@?$_Tree@V?$_Tmap_traits@KPAVCRainbowRace@@U?$less@K@std@@V?$allocator@U?$pair@$$CBKPAVCRainbowRace@@@std@@@3@$0A@@std@@@std@@QBEIXZ
_TEXT	SEGMENT PARA USE32 PUBLIC 'CODE'
_TEXT	ENDS
;	COMDAT ?size@?$vector@PAVCMiniGameBase@@V?$allocator@PAVCMiniGameBase@@@std@@@std@@QBEIXZ
_TEXT	SEGMENT PARA USE32 PUBLIC 'CODE'
_TEXT	ENDS
;	COMDAT ??A?$vector@PAVCMiniGameBase@@V?$allocator@PAVCMiniGameBase@@@std@@@std@@QAEAAPAVCMiniGameBase@@I@Z
_TEXT	SEGMENT PARA USE32 PUBLIC 'CODE'
_TEXT	ENDS
;	COMDAT ?size@?$vector@UGuildHouse_Furniture_Info@CGuildHouseBase@@V?$allocator@UGuildHouse_Furniture_Info@CGuildHouseBase@@@std@@@std@@QBEIXZ
_TEXT	SEGMENT PARA USE32 PUBLIC 'CODE'
_TEXT	ENDS
;	COMDAT ??A?$vector@UGuildHouse_Furniture_Info@CGuildHouseBase@@V?$allocator@UGuildHouse_Furniture_Info@CGuildHouseBase@@@std@@@std@@QAEAAUGuildHouse_Furniture_Info@CGuildHouseBase@@I@Z
_TEXT	SEGMENT PARA USE32 PUBLIC 'CODE'
_TEXT	ENDS
;	COMDAT ?empty@?$_Tree@V?$_Tmap_traits@KPAVCGuildHouseBase@@U?$less@K@std@@V?$allocator@U?$pair@$$CBKPAVCGuildHouseBase@@@std@@@3@$0A@@std@@@std@@QBE_NXZ
_TEXT	SEGMENT PARA USE32 PUBLIC 'CODE'
_TEXT	ENDS
;	COMDAT ?insert@?$_Tree@V?$_Tmap_traits@KPAVCGuildHouseBase@@U?$less@K@std@@V?$allocator@U?$pair@$$CBKPAVCGuildHouseBase@@@std@@@3@$0A@@std@@@std@@QAE?AU?$pair@Viterator@?$_Tree@V?$_Tmap_traits@KPAVCGuildHouseBase@@U?$less@K@std@@V?$allocator@U?$pair@$$CBKPAVCGuildHouseBase@@@std@@@3@$0A@@std@@@std@@_N@2@ABU?$pair@$$CBKPAVCGuildHouseBase@@@2@@Z
_TEXT	SEGMENT PARA USE32 PUBLIC 'CODE'
_TEXT	ENDS
;	COMDAT ?size@?$_Tree@V?$_Tmap_traits@KPAVCCampusMember@@U?$less@K@std@@V?$allocator@U?$pair@$$CBKPAVCCampusMember@@@std@@@3@$0A@@std@@@std@@QBEIXZ
_TEXT	SEGMENT PARA USE32 PUBLIC 'CODE'
_TEXT	ENDS
;	COMDAT ?empty@?$_Tree@V?$_Tmap_traits@KPAVCCampus@@U?$less@K@std@@V?$allocator@U?$pair@$$CBKPAVCCampus@@@std@@@3@$0A@@std@@@std@@QBE_NXZ
_TEXT	SEGMENT PARA USE32 PUBLIC 'CODE'
_TEXT	ENDS
;	COMDAT ?erase@?$_Tree@V?$_Tmap_traits@KKU?$less@K@std@@V?$allocator@U?$pair@$$CBKK@std@@@2@$0A@@std@@@std@@QAEIABK@Z
_TEXT	SEGMENT PARA USE32 PUBLIC 'CODE'
_TEXT	ENDS
;	COMDAT ?compare@?$basic_string@DU?$char_traits@D@std@@V?$allocator@D@2@@std@@QBEHIIPBDI@Z
_TEXT	SEGMENT PARA USE32 PUBLIC 'CODE'
_TEXT	ENDS
;	COMDAT ??0?$allocator@V?$basic_string@DU?$char_traits@D@std@@V?$allocator@D@2@@std@@@std@@QAE@XZ
_TEXT	SEGMENT PARA USE32 PUBLIC 'CODE'
_TEXT	ENDS
;	COMDAT ?insert@?$_Tree@V?$_Tmap_traits@KPAVCCtrl@@U?$less@K@std@@V?$allocator@U?$pair@$$CBKPAVCCtrl@@@std@@@3@$0A@@std@@@std@@QAE?AViterator@12@V312@ABU?$pair@$$CBKPAVCCtrl@@@2@@Z
_TEXT	SEGMENT PARA USE32 PUBLIC 'CODE'
_TEXT	ENDS
;	COMDAT ??0?$pair@$$CBKPAVCCtrl@@@std@@QAE@ABKABQAVCCtrl@@@Z
_TEXT	SEGMENT PARA USE32 PUBLIC 'CODE'
_TEXT	ENDS
;	COMDAT ?_Tidy@?$deque@PAUtagACTMSG@@V?$allocator@PAUtagACTMSG@@@std@@@std@@IAEXXZ
_TEXT	SEGMENT PARA USE32 PUBLIC 'CODE'
_TEXT	ENDS
;	COMDAT ??0?$_Deque_val@PAUtagACTMSG@@V?$allocator@PAUtagACTMSG@@@std@@@std@@IAE@V?$allocator@PAUtagACTMSG@@@1@@Z
_TEXT	SEGMENT PARA USE32 PUBLIC 'CODE'
_TEXT	ENDS
;	COMDAT ??0?$allocator@PAUtagACTMSG@@@std@@QAE@XZ
_TEXT	SEGMENT PARA USE32 PUBLIC 'CODE'
_TEXT	ENDS
;	COMDAT ?_Tidy@?$deque@PAUtagMAGICATKMSG@@V?$allocator@PAUtagMAGICATKMSG@@@std@@@std@@IAEXXZ
_TEXT	SEGMENT PARA USE32 PUBLIC 'CODE'
_TEXT	ENDS
;	COMDAT ??0?$_Deque_val@PAUtagMAGICATKMSG@@V?$allocator@PAUtagMAGICATKMSG@@@std@@@std@@IAE@V?$allocator@PAUtagMAGICATKMSG@@@1@@Z
_TEXT	SEGMENT PARA USE32 PUBLIC 'CODE'
_TEXT	ENDS
;	COMDAT ??0?$allocator@PAUtagMAGICATKMSG@@@std@@QAE@XZ
_TEXT	SEGMENT PARA USE32 PUBLIC 'CODE'
_TEXT	ENDS
;	COMDAT ??0iterator@?$deque@PAUtagACTMSG@@V?$allocator@PAUtagACTMSG@@@std@@@std@@QAE@IPBV12@@Z
_TEXT	SEGMENT PARA USE32 PUBLIC 'CODE'
_TEXT	ENDS
;	COMDAT ??Dconst_iterator@?$deque@PAUtagACTMSG@@V?$allocator@PAUtagACTMSG@@@std@@@std@@QBEABQAUtagACTMSG@@XZ
_TEXT	SEGMENT PARA USE32 PUBLIC 'CODE'
_TEXT	ENDS
;	COMDAT ??8const_iterator@?$deque@PAUtagACTMSG@@V?$allocator@PAUtagACTMSG@@@std@@@std@@QBE_NABV012@@Z
_TEXT	SEGMENT PARA USE32 PUBLIC 'CODE'
_TEXT	ENDS
;	COMDAT ??0iterator@?$deque@PAUtagMAGICATKMSG@@V?$allocator@PAUtagMAGICATKMSG@@@std@@@std@@QAE@IPBV12@@Z
_TEXT	SEGMENT PARA USE32 PUBLIC 'CODE'
_TEXT	ENDS
;	COMDAT ??Dconst_iterator@?$deque@PAUtagMAGICATKMSG@@V?$allocator@PAUtagMAGICATKMSG@@@std@@@std@@QBEABQAUtagMAGICATKMSG@@XZ
_TEXT	SEGMENT PARA USE32 PUBLIC 'CODE'
_TEXT	ENDS
;	COMDAT ??8const_iterator@?$deque@PAUtagMAGICATKMSG@@V?$allocator@PAUtagMAGICATKMSG@@@std@@@std@@QBE_NABV012@@Z
_TEXT	SEGMENT PARA USE32 PUBLIC 'CODE'
_TEXT	ENDS
;	COMDAT ?erase@?$_Tree@V?$_Tmap_traits@KU_Friend@@U?$less@K@std@@V?$allocator@U?$pair@$$CBKU_Friend@@@std@@@3@$0A@@std@@@std@@QAE?AViterator@12@V312@0@Z
_TEXT	SEGMENT PARA USE32 PUBLIC 'CODE'
_TEXT	ENDS
;	COMDAT ?equal_range@?$_Tree@V?$_Tmap_traits@KU_Friend@@U?$less@K@std@@V?$allocator@U?$pair@$$CBKU_Friend@@@std@@@3@$0A@@std@@@std@@QAE?AU?$pair@Viterator@?$_Tree@V?$_Tmap_traits@KU_Friend@@U?$less@K@std@@V?$allocator@U?$pair@$$CBKU_Friend@@@std@@@3@$0A@@std@@@std@@V123@@2@ABK@Z
_TEXT	SEGMENT PARA USE32 PUBLIC 'CODE'
_TEXT	ENDS
;	COMDAT ?begin@?$vector@PAU__JOINPLAYER@CGuildCombat@@V?$allocator@PAU__JOINPLAYER@CGuildCombat@@@std@@@std@@QAE?AViterator@12@XZ
_TEXT	SEGMENT PARA USE32 PUBLIC 'CODE'
_TEXT	ENDS
;	COMDAT ?_Tidy@?$vector@PAU__JOINPLAYER@CGuildCombat@@V?$allocator@PAU__JOINPLAYER@CGuildCombat@@@std@@@std@@IAEXXZ
_TEXT	SEGMENT PARA USE32 PUBLIC 'CODE'
_TEXT	ENDS
;	COMDAT ?_Nextnode@?$list@PAU__JOINPLAYER@CGuildCombat@@V?$allocator@PAU__JOINPLAYER@CGuildCombat@@@std@@@std@@KAAAPAU_Node@?$_List_nod@PAU__JOINPLAYER@CGuildCombat@@V?$allocator@PAU__JOINPLAYER@CGuildCombat@@@std@@@2@PAU342@@Z
_TEXT	SEGMENT PARA USE32 PUBLIC 'CODE'
_TEXT	ENDS
;	COMDAT ?_Prevnode@?$list@PAU__JOINPLAYER@CGuildCombat@@V?$allocator@PAU__JOINPLAYER@CGuildCombat@@@std@@@std@@KAAAPAU_Node@?$_List_nod@PAU__JOINPLAYER@CGuildCombat@@V?$allocator@PAU__JOINPLAYER@CGuildCombat@@@std@@@2@PAU342@@Z
_TEXT	SEGMENT PARA USE32 PUBLIC 'CODE'
_TEXT	ENDS
;	COMDAT ?deallocate@?$allocator@U_Node@?$_List_nod@PAU__JOINPLAYER@CGuildCombat@@V?$allocator@PAU__JOINPLAYER@CGuildCombat@@@std@@@std@@@std@@QAEXPAU_Node@?$_List_nod@PAU__JOINPLAYER@CGuildCombat@@V?$allocator@PAU__JOINPLAYER@CGuildCombat@@@std@@@2@I@Z
_TEXT	SEGMENT PARA USE32 PUBLIC 'CODE'
_TEXT	ENDS
;	COMDAT ?destroy@?$allocator@U_Node@?$_List_nod@PAU__JOINPLAYER@CGuildCombat@@V?$allocator@PAU__JOINPLAYER@CGuildCombat@@@std@@@std@@@std@@QAEXPAU_Node@?$_List_nod@PAU__JOINPLAYER@CGuildCombat@@V?$allocator@PAU__JOINPLAYER@CGuildCombat@@@std@@@2@@Z
_TEXT	SEGMENT PARA USE32 PUBLIC 'CODE'
_TEXT	ENDS
;	COMDAT ?_Buy@?$vector@U__SECRETROOM_MONSTER@@V?$allocator@U__SECRETROOM_MONSTER@@@std@@@std@@IAE_NI@Z
_TEXT	SEGMENT PARA USE32 PUBLIC 'CODE'
_TEXT	ENDS
;	COMDAT ?_Tidy@?$vector@U__SECRETROOM_MONSTER@@V?$allocator@U__SECRETROOM_MONSTER@@@std@@@std@@IAEXXZ
_TEXT	SEGMENT PARA USE32 PUBLIC 'CODE'
_TEXT	ENDS
;	COMDAT ??0?$_Vector_val@U__SECRETROOM_MONSTER@@V?$allocator@U__SECRETROOM_MONSTER@@@std@@@std@@IAE@V?$allocator@U__SECRETROOM_MONSTER@@@1@@Z
_TEXT	SEGMENT PARA USE32 PUBLIC 'CODE'
_TEXT	ENDS
;	COMDAT ??0?$allocator@U__SECRETROOM_MONSTER@@@std@@QAE@XZ
_TEXT	SEGMENT PARA USE32 PUBLIC 'CODE'
_TEXT	ENDS
;	COMDAT ?capacity@?$vector@V?$basic_string@DU?$char_traits@D@std@@V?$allocator@D@2@@std@@V?$allocator@V?$basic_string@DU?$char_traits@D@std@@V?$allocator@D@2@@std@@@2@@std@@QBEIXZ
_TEXT	SEGMENT PARA USE32 PUBLIC 'CODE'
_TEXT	ENDS
;	COMDAT ?begin@?$vector@V?$basic_string@DU?$char_traits@D@std@@V?$allocator@D@2@@std@@V?$allocator@V?$basic_string@DU?$char_traits@D@std@@V?$allocator@D@2@@std@@@2@@std@@QAE?AViterator@12@XZ
_TEXT	SEGMENT PARA USE32 PUBLIC 'CODE'
_TEXT	ENDS
;	COMDAT ?end@?$vector@V?$basic_string@DU?$char_traits@D@std@@V?$allocator@D@2@@std@@V?$allocator@V?$basic_string@DU?$char_traits@D@std@@V?$allocator@D@2@@std@@@2@@std@@QAE?AViterator@12@XZ
_TEXT	SEGMENT PARA USE32 PUBLIC 'CODE'
_TEXT	ENDS
;	COMDAT ?insert@?$vector@V?$basic_string@DU?$char_traits@D@std@@V?$allocator@D@2@@std@@V?$allocator@V?$basic_string@DU?$char_traits@D@std@@V?$allocator@D@2@@std@@@2@@std@@QAE?AViterator@12@V312@ABV?$basic_string@DU?$char_traits@D@std@@V?$allocator@D@2@@2@@Z
_TEXT	SEGMENT PARA USE32 PUBLIC 'CODE'
_TEXT	ENDS
;	COMDAT ?_Buy@?$vector@V?$basic_string@DU?$char_traits@D@std@@V?$allocator@D@2@@std@@V?$allocator@V?$basic_string@DU?$char_traits@D@std@@V?$allocator@D@2@@std@@@2@@std@@IAE_NI@Z
_TEXT	SEGMENT PARA USE32 PUBLIC 'CODE'
_TEXT	ENDS
;	COMDAT ?_Tidy@?$vector@V?$basic_string@DU?$char_traits@D@std@@V?$allocator@D@2@@std@@V?$allocator@V?$basic_string@DU?$char_traits@D@std@@V?$allocator@D@2@@std@@@2@@std@@IAEXXZ
_TEXT	SEGMENT PARA USE32 PUBLIC 'CODE'
_TEXT	ENDS
;	COMDAT ?_Ufill@?$vector@V?$basic_string@DU?$char_traits@D@std@@V?$allocator@D@2@@std@@V?$allocator@V?$basic_string@DU?$char_traits@D@std@@V?$allocator@D@2@@std@@@2@@std@@IAEPAV?$basic_string@DU?$char_traits@D@std@@V?$allocator@D@2@@2@PAV32@IABV32@@Z
_TEXT	SEGMENT PARA USE32 PUBLIC 'CODE'
_TEXT	ENDS
;	COMDAT ??0?$_Vector_val@V?$basic_string@DU?$char_traits@D@std@@V?$allocator@D@2@@std@@V?$allocator@V?$basic_string@DU?$char_traits@D@std@@V?$allocator@D@2@@std@@@2@@std@@IAE@V?$allocator@V?$basic_string@DU?$char_traits@D@std@@V?$allocator@D@2@@std@@@1@@Z
_TEXT	SEGMENT PARA USE32 PUBLIC 'CODE'
_TEXT	ENDS
;	COMDAT ?capacity@?$vector@UMINIGMAME_PRIZE_LIST@CRainbowRaceMng@@V?$allocator@UMINIGMAME_PRIZE_LIST@CRainbowRaceMng@@@std@@@std@@QBEIXZ
_TEXT	SEGMENT PARA USE32 PUBLIC 'CODE'
_TEXT	ENDS
;	COMDAT ?end@?$vector@UMINIGMAME_PRIZE_LIST@CRainbowRaceMng@@V?$allocator@UMINIGMAME_PRIZE_LIST@CRainbowRaceMng@@@std@@@std@@QAE?AViterator@12@XZ
_TEXT	SEGMENT PARA USE32 PUBLIC 'CODE'
_TEXT	ENDS
;	COMDAT ?size@?$vector@UMINIGMAME_PRIZE_LIST@CRainbowRaceMng@@V?$allocator@UMINIGMAME_PRIZE_LIST@CRainbowRaceMng@@@std@@@std@@QBEIXZ
_TEXT	SEGMENT PARA USE32 PUBLIC 'CODE'
_TEXT	ENDS
;	COMDAT ?insert@?$vector@UMINIGMAME_PRIZE_LIST@CRainbowRaceMng@@V?$allocator@UMINIGMAME_PRIZE_LIST@CRainbowRaceMng@@@std@@@std@@QAE?AViterator@12@V312@ABUMINIGMAME_PRIZE_LIST@CRainbowRaceMng@@@Z
_TEXT	SEGMENT PARA USE32 PUBLIC 'CODE'
_TEXT	ENDS
;	COMDAT ?_Ufill@?$vector@UMINIGMAME_PRIZE_LIST@CRainbowRaceMng@@V?$allocator@UMINIGMAME_PRIZE_LIST@CRainbowRaceMng@@@std@@@std@@IAEPAUMINIGMAME_PRIZE_LIST@CRainbowRaceMng@@PAU34@IABU34@@Z
_TEXT	SEGMENT PARA USE32 PUBLIC 'CODE'
_TEXT	ENDS
;	COMDAT ?begin@?$vector@PAVCMiniGameBase@@V?$allocator@PAVCMiniGameBase@@@std@@@std@@QAE?AViterator@12@XZ
_TEXT	SEGMENT PARA USE32 PUBLIC 'CODE'
_TEXT	ENDS
;	COMDAT ?begin@?$vector@UGuildHouse_Furniture_Info@CGuildHouseBase@@V?$allocator@UGuildHouse_Furniture_Info@CGuildHouseBase@@@std@@@std@@QAE?AViterator@12@XZ
_TEXT	SEGMENT PARA USE32 PUBLIC 'CODE'
_TEXT	ENDS
;	COMDAT ?_Isnil@?$_Tree@V?$_Tmap_traits@KPAVCGuildHouseBase@@U?$less@K@std@@V?$allocator@U?$pair@$$CBKPAVCGuildHouseBase@@@std@@@3@$0A@@std@@@std@@KAAADPAU_Node@?$_Tree_nod@V?$_Tmap_traits@KPAVCGuildHouseBase@@U?$less@K@std@@V?$allocator@U?$pair@$$CBKPAVCGuildHouseBase@@@std@@@3@$0A@@std@@@2@@Z
_TEXT	SEGMENT PARA USE32 PUBLIC 'CODE'
_TEXT	ENDS
;	COMDAT ?_Key@?$_Tree@V?$_Tmap_traits@KPAVCGuildHouseBase@@U?$less@K@std@@V?$allocator@U?$pair@$$CBKPAVCGuildHouseBase@@@std@@@3@$0A@@std@@@std@@KAABKPAU_Node@?$_Tree_nod@V?$_Tmap_traits@KPAVCGuildHouseBase@@U?$less@K@std@@V?$allocator@U?$pair@$$CBKPAVCGuildHouseBase@@@std@@@3@$0A@@std@@@2@@Z
_TEXT	SEGMENT PARA USE32 PUBLIC 'CODE'
_TEXT	ENDS
;	COMDAT ?_Left@?$_Tree@V?$_Tmap_traits@KPAVCGuildHouseBase@@U?$less@K@std@@V?$allocator@U?$pair@$$CBKPAVCGuildHouseBase@@@std@@@3@$0A@@std@@@std@@KAAAPAU_Node@?$_Tree_nod@V?$_Tmap_traits@KPAVCGuildHouseBase@@U?$less@K@std@@V?$allocator@U?$pair@$$CBKPAVCGuildHouseBase@@@std@@@3@$0A@@std@@@2@PAU342@@Z
_TEXT	SEGMENT PARA USE32 PUBLIC 'CODE'
_TEXT	ENDS
;	COMDAT ?_Right@?$_Tree@V?$_Tmap_traits@KPAVCGuildHouseBase@@U?$less@K@std@@V?$allocator@U?$pair@$$CBKPAVCGuildHouseBase@@@std@@@3@$0A@@std@@@std@@KAAAPAU_Node@?$_Tree_nod@V?$_Tmap_traits@KPAVCGuildHouseBase@@U?$less@K@std@@V?$allocator@U?$pair@$$CBKPAVCGuildHouseBase@@@std@@@3@$0A@@std@@@2@PAU342@@Z
_TEXT	SEGMENT PARA USE32 PUBLIC 'CODE'
_TEXT	ENDS
;	COMDAT ?begin@?$_Tree@V?$_Tmap_traits@KPAVCGuildHouseBase@@U?$less@K@std@@V?$allocator@U?$pair@$$CBKPAVCGuildHouseBase@@@std@@@3@$0A@@std@@@std@@QAE?AViterator@12@XZ
_TEXT	SEGMENT PARA USE32 PUBLIC 'CODE'
_TEXT	ENDS
;	COMDAT ?size@?$_Tree@V?$_Tmap_traits@KPAVCGuildHouseBase@@U?$less@K@std@@V?$allocator@U?$pair@$$CBKPAVCGuildHouseBase@@@std@@@3@$0A@@std@@@std@@QBEIXZ
_TEXT	SEGMENT PARA USE32 PUBLIC 'CODE'
_TEXT	ENDS
;	COMDAT ?_Insert@?$_Tree@V?$_Tmap_traits@KPAVCGuildHouseBase@@U?$less@K@std@@V?$allocator@U?$pair@$$CBKPAVCGuildHouseBase@@@std@@@3@$0A@@std@@@std@@IAE?AViterator@12@_NPAU_Node@?$_Tree_nod@V?$_Tmap_traits@KPAVCGuildHouseBase@@U?$less@K@std@@V?$allocator@U?$pair@$$CBKPAVCGuildHouseBase@@@std@@@3@$0A@@std@@@2@ABU?$pair@$$CBKPAVCGuildHouseBase@@@2@@Z
_TEXT	SEGMENT PARA USE32 PUBLIC 'CODE'
_TEXT	ENDS
;	COMDAT ?_Root@?$_Tree@V?$_Tmap_traits@KPAVCGuildHouseBase@@U?$less@K@std@@V?$allocator@U?$pair@$$CBKPAVCGuildHouseBase@@@std@@@3@$0A@@std@@@std@@IAEAAPAU_Node@?$_Tree_nod@V?$_Tmap_traits@KPAVCGuildHouseBase@@U?$less@K@std@@V?$allocator@U?$pair@$$CBKPAVCGuildHouseBase@@@std@@@3@$0A@@std@@@2@XZ
_TEXT	SEGMENT PARA USE32 PUBLIC 'CODE'
_TEXT	ENDS
;	COMDAT ?_Kfn@?$_Tmap_traits@KPAVCGuildHouseBase@@U?$less@K@std@@V?$allocator@U?$pair@$$CBKPAVCGuildHouseBase@@@std@@@3@$0A@@std@@SAABKABU?$pair@$$CBKPAVCGuildHouseBase@@@2@@Z
_TEXT	SEGMENT PARA USE32 PUBLIC 'CODE'
_TEXT	ENDS
;	COMDAT ??0?$pair@Viterator@?$_Tree@V?$_Tmap_traits@KPAVCGuildHouseBase@@U?$less@K@std@@V?$allocator@U?$pair@$$CBKPAVCGuildHouseBase@@@std@@@3@$0A@@std@@@std@@_N@std@@QAE@ABViterator@?$_Tree@V?$_Tmap_traits@KPAVCGuildHouseBase@@U?$less@K@std@@V?$allocator@U?$pair@$$CBKPAVCGuildHouseBase@@@std@@@3@$0A@@std@@@1@AB_N@Z
_TEXT	SEGMENT PARA USE32 PUBLIC 'CODE'
_TEXT	ENDS
;	COMDAT ??0iterator@?$_Tree@V?$_Tmap_traits@KPAVCGuildHouseBase@@U?$less@K@std@@V?$allocator@U?$pair@$$CBKPAVCGuildHouseBase@@@std@@@3@$0A@@std@@@std@@QAE@PAU_Node@?$_Tree_nod@V?$_Tmap_traits@KPAVCGuildHouseBase@@U?$less@K@std@@V?$allocator@U?$pair@$$CBKPAVCGuildHouseBase@@@std@@@3@$0A@@std@@@2@@Z
_TEXT	SEGMENT PARA USE32 PUBLIC 'CODE'
_TEXT	ENDS
;	COMDAT ??Fiterator@?$_Tree@V?$_Tmap_traits@KPAVCGuildHouseBase@@U?$less@K@std@@V?$allocator@U?$pair@$$CBKPAVCGuildHouseBase@@@std@@@3@$0A@@std@@@std@@QAEAAV012@XZ
_TEXT	SEGMENT PARA USE32 PUBLIC 'CODE'
_TEXT	ENDS
;	COMDAT ??8const_iterator@?$_Tree@V?$_Tmap_traits@KPAVCGuildHouseBase@@U?$less@K@std@@V?$allocator@U?$pair@$$CBKPAVCGuildHouseBase@@@std@@@3@$0A@@std@@@std@@QBE_NABV012@@Z
_TEXT	SEGMENT PARA USE32 PUBLIC 'CODE'
_TEXT	ENDS
;	COMDAT ?_Mynode@const_iterator@?$_Tree@V?$_Tmap_traits@KPAVCGuildHouseBase@@U?$less@K@std@@V?$allocator@U?$pair@$$CBKPAVCGuildHouseBase@@@std@@@3@$0A@@std@@@std@@QBEPAU_Node@?$_Tree_nod@V?$_Tmap_traits@KPAVCGuildHouseBase@@U?$less@K@std@@V?$allocator@U?$pair@$$CBKPAVCGuildHouseBase@@@std@@@3@$0A@@std@@@3@XZ
_TEXT	SEGMENT PARA USE32 PUBLIC 'CODE'
_TEXT	ENDS
;	COMDAT ?size@?$_Tree@V?$_Tmap_traits@KPAVCCampus@@U?$less@K@std@@V?$allocator@U?$pair@$$CBKPAVCCampus@@@std@@@3@$0A@@std@@@std@@QBEIXZ
_TEXT	SEGMENT PARA USE32 PUBLIC 'CODE'
_TEXT	ENDS
;	COMDAT ?erase@?$_Tree@V?$_Tmap_traits@KKU?$less@K@std@@V?$allocator@U?$pair@$$CBKK@std@@@2@$0A@@std@@@std@@QAE?AViterator@12@V312@0@Z
_TEXT	SEGMENT PARA USE32 PUBLIC 'CODE'
_TEXT	ENDS
;	COMDAT ?equal_range@?$_Tree@V?$_Tmap_traits@KKU?$less@K@std@@V?$allocator@U?$pair@$$CBKK@std@@@2@$0A@@std@@@std@@QAE?AU?$pair@Viterator@?$_Tree@V?$_Tmap_traits@KKU?$less@K@std@@V?$allocator@U?$pair@$$CBKK@std@@@2@$0A@@std@@@std@@V123@@2@ABK@Z
_TEXT	SEGMENT PARA USE32 PUBLIC 'CODE'
_TEXT	ENDS
;	COMDAT ??Diterator@?$vector@PAU__JOINPLAYER@CGuildCombat@@V?$allocator@PAU__JOINPLAYER@CGuildCombat@@@std@@@std@@QBEAAPAU__JOINPLAYER@CGuildCombat@@XZ
_TEXT	SEGMENT PARA USE32 PUBLIC 'CODE'
_TEXT	ENDS
;	COMDAT ??Hiterator@?$vector@PAU__JOINPLAYER@CGuildCombat@@V?$allocator@PAU__JOINPLAYER@CGuildCombat@@@std@@@std@@QBE?AV012@H@Z
_TEXT	SEGMENT PARA USE32 PUBLIC 'CODE'
_TEXT	ENDS
;	COMDAT ??Diterator@?$vector@V?$basic_string@DU?$char_traits@D@std@@V?$allocator@D@2@@std@@V?$allocator@V?$basic_string@DU?$char_traits@D@std@@V?$allocator@D@2@@std@@@2@@std@@QBEAAV?$basic_string@DU?$char_traits@D@std@@V?$allocator@D@2@@2@XZ
_TEXT	SEGMENT PARA USE32 PUBLIC 'CODE'
_TEXT	ENDS
;	COMDAT ??Hiterator@?$vector@V?$basic_string@DU?$char_traits@D@std@@V?$allocator@D@2@@std@@V?$allocator@V?$basic_string@DU?$char_traits@D@std@@V?$allocator@D@2@@std@@@2@@std@@QBE?AV012@H@Z
_TEXT	SEGMENT PARA USE32 PUBLIC 'CODE'
_TEXT	ENDS
;	COMDAT ??Diterator@?$vector@PAVCMiniGameBase@@V?$allocator@PAVCMiniGameBase@@@std@@@std@@QBEAAPAVCMiniGameBase@@XZ
_TEXT	SEGMENT PARA USE32 PUBLIC 'CODE'
_TEXT	ENDS
;	COMDAT ??Hiterator@?$vector@PAVCMiniGameBase@@V?$allocator@PAVCMiniGameBase@@@std@@@std@@QBE?AV012@H@Z
_TEXT	SEGMENT PARA USE32 PUBLIC 'CODE'
_TEXT	ENDS
;	COMDAT ??Diterator@?$vector@UGuildHouse_Furniture_Info@CGuildHouseBase@@V?$allocator@UGuildHouse_Furniture_Info@CGuildHouseBase@@@std@@@std@@QBEAAUGuildHouse_Furniture_Info@CGuildHouseBase@@XZ
_TEXT	SEGMENT PARA USE32 PUBLIC 'CODE'
_TEXT	ENDS
;	COMDAT ??Hiterator@?$vector@UGuildHouse_Furniture_Info@CGuildHouseBase@@V?$allocator@UGuildHouse_Furniture_Info@CGuildHouseBase@@@std@@@std@@QBE?AV012@H@Z
_TEXT	SEGMENT PARA USE32 PUBLIC 'CODE'
_TEXT	ENDS
;	COMDAT ??0?$allocator@V?$basic_string@DU?$char_traits@D@std@@V?$allocator@D@2@@std@@@std@@QAE@ABV01@@Z
_TEXT	SEGMENT PARA USE32 PUBLIC 'CODE'
_TEXT	ENDS
;	COMDAT ?deallocate@?$allocator@V?$basic_string@DU?$char_traits@D@std@@V?$allocator@D@2@@std@@@std@@QAEXPAV?$basic_string@DU?$char_traits@D@std@@V?$allocator@D@2@@2@I@Z
_TEXT	SEGMENT PARA USE32 PUBLIC 'CODE'
_TEXT	ENDS
;	COMDAT ?allocate@?$allocator@V?$basic_string@DU?$char_traits@D@std@@V?$allocator@D@2@@std@@@std@@QAEPAV?$basic_string@DU?$char_traits@D@std@@V?$allocator@D@2@@2@I@Z
_TEXT	SEGMENT PARA USE32 PUBLIC 'CODE'
_TEXT	ENDS
;	COMDAT ?size@?$_Tree@V?$_Tmap_traits@KPAVCCtrl@@U?$less@K@std@@V?$allocator@U?$pair@$$CBKPAVCCtrl@@@std@@@3@$0A@@std@@@std@@QBEIXZ
_TEXT	SEGMENT PARA USE32 PUBLIC 'CODE'
_TEXT	ENDS
;	COMDAT ??0iterator@?$_Tree@V?$_Tmap_traits@KPAVCCtrl@@U?$less@K@std@@V?$allocator@U?$pair@$$CBKPAVCCtrl@@@std@@@3@$0A@@std@@@std@@QAE@XZ
_TEXT	SEGMENT PARA USE32 PUBLIC 'CODE'
_TEXT	ENDS
;	COMDAT ?pop_back@?$deque@PAUtagACTMSG@@V?$allocator@PAUtagACTMSG@@@std@@@std@@QAEXXZ
_TEXT	SEGMENT PARA USE32 PUBLIC 'CODE'
_TEXT	ENDS
;	COMDAT ??0?$_Deque_map@PAUtagACTMSG@@V?$allocator@PAUtagACTMSG@@@std@@@std@@IAE@V?$allocator@PAUtagACTMSG@@@1@@Z
_TEXT	SEGMENT PARA USE32 PUBLIC 'CODE'
_TEXT	ENDS
;	COMDAT ??0?$allocator@PAUtagACTMSG@@@std@@QAE@ABV01@@Z
_TEXT	SEGMENT PARA USE32 PUBLIC 'CODE'
_TEXT	ENDS
;	COMDAT ?deallocate@?$allocator@PAUtagACTMSG@@@std@@QAEXPAPAUtagACTMSG@@I@Z
_TEXT	SEGMENT PARA USE32 PUBLIC 'CODE'
_TEXT	ENDS
;	COMDAT ?deallocate@?$allocator@PAPAUtagACTMSG@@@std@@QAEXPAPAPAUtagACTMSG@@I@Z
_TEXT	SEGMENT PARA USE32 PUBLIC 'CODE'
_TEXT	ENDS
;	COMDAT ?destroy@?$allocator@PAPAUtagACTMSG@@@std@@QAEXPAPAPAUtagACTMSG@@@Z
_TEXT	SEGMENT PARA USE32 PUBLIC 'CODE'
_TEXT	ENDS
;	COMDAT ?pop_back@?$deque@PAUtagMAGICATKMSG@@V?$allocator@PAUtagMAGICATKMSG@@@std@@@std@@QAEXXZ
_TEXT	SEGMENT PARA USE32 PUBLIC 'CODE'
_TEXT	ENDS
;	COMDAT ??0?$_Deque_map@PAUtagMAGICATKMSG@@V?$allocator@PAUtagMAGICATKMSG@@@std@@@std@@IAE@V?$allocator@PAUtagMAGICATKMSG@@@1@@Z
_TEXT	SEGMENT PARA USE32 PUBLIC 'CODE'
_TEXT	ENDS
;	COMDAT ??0?$allocator@PAUtagMAGICATKMSG@@@std@@QAE@ABV01@@Z
_TEXT	SEGMENT PARA USE32 PUBLIC 'CODE'
_TEXT	ENDS
;	COMDAT ?deallocate@?$allocator@PAUtagMAGICATKMSG@@@std@@QAEXPAPAUtagMAGICATKMSG@@I@Z
_TEXT	SEGMENT PARA USE32 PUBLIC 'CODE'
_TEXT	ENDS
;	COMDAT ?deallocate@?$allocator@PAPAUtagMAGICATKMSG@@@std@@QAEXPAPAPAUtagMAGICATKMSG@@I@Z
_TEXT	SEGMENT PARA USE32 PUBLIC 'CODE'
_TEXT	ENDS
;	COMDAT ?destroy@?$allocator@PAPAUtagMAGICATKMSG@@@std@@QAEXPAPAPAUtagMAGICATKMSG@@@Z
_TEXT	SEGMENT PARA USE32 PUBLIC 'CODE'
_TEXT	ENDS
;	COMDAT ??0const_iterator@?$deque@PAUtagACTMSG@@V?$allocator@PAUtagACTMSG@@@std@@@std@@QAE@IPBV12@@Z
_TEXT	SEGMENT PARA USE32 PUBLIC 'CODE'
_TEXT	ENDS
;	COMDAT ??0const_iterator@?$deque@PAUtagMAGICATKMSG@@V?$allocator@PAUtagMAGICATKMSG@@@std@@@std@@QAE@IPBV12@@Z
_TEXT	SEGMENT PARA USE32 PUBLIC 'CODE'
_TEXT	ENDS
;	COMDAT ?begin@?$_Tree@V?$_Tmap_traits@KU_Friend@@U?$less@K@std@@V?$allocator@U?$pair@$$CBKU_Friend@@@std@@@3@$0A@@std@@@std@@QAE?AViterator@12@XZ
_TEXT	SEGMENT PARA USE32 PUBLIC 'CODE'
_TEXT	ENDS
;	COMDAT ?end@?$_Tree@V?$_Tmap_traits@KU_Friend@@U?$less@K@std@@V?$allocator@U?$pair@$$CBKU_Friend@@@std@@@3@$0A@@std@@@std@@QAE?AViterator@12@XZ
_TEXT	SEGMENT PARA USE32 PUBLIC 'CODE'
_TEXT	ENDS
;	COMDAT ?erase@?$_Tree@V?$_Tmap_traits@KU_Friend@@U?$less@K@std@@V?$allocator@U?$pair@$$CBKU_Friend@@@std@@@3@$0A@@std@@@std@@QAE?AViterator@12@V312@@Z
_TEXT	SEGMENT PARA USE32 PUBLIC 'CODE'
_TEXT	ENDS
;	COMDAT ?clear@?$_Tree@V?$_Tmap_traits@KU_Friend@@U?$less@K@std@@V?$allocator@U?$pair@$$CBKU_Friend@@@std@@@3@$0A@@std@@@std@@QAEXXZ
_TEXT	SEGMENT PARA USE32 PUBLIC 'CODE'
_TEXT	ENDS
;	COMDAT ?lower_bound@?$_Tree@V?$_Tmap_traits@KU_Friend@@U?$less@K@std@@V?$allocator@U?$pair@$$CBKU_Friend@@@std@@@3@$0A@@std@@@std@@QAE?AViterator@12@ABK@Z
_TEXT	SEGMENT PARA USE32 PUBLIC 'CODE'
_TEXT	ENDS
;	COMDAT ?upper_bound@?$_Tree@V?$_Tmap_traits@KU_Friend@@U?$less@K@std@@V?$allocator@U?$pair@$$CBKU_Friend@@@std@@@3@$0A@@std@@@std@@QAE?AViterator@12@ABK@Z
_TEXT	SEGMENT PARA USE32 PUBLIC 'CODE'
_TEXT	ENDS
;	COMDAT ??Eiterator@?$_Tree@V?$_Tmap_traits@KU_Friend@@U?$less@K@std@@V?$allocator@U?$pair@$$CBKU_Friend@@@std@@@3@$0A@@std@@@std@@QAE?AV012@H@Z
_TEXT	SEGMENT PARA USE32 PUBLIC 'CODE'
_TEXT	ENDS
;	COMDAT ??8const_iterator@?$_Tree@V?$_Tmap_traits@KU_Friend@@U?$less@K@std@@V?$allocator@U?$pair@$$CBKU_Friend@@@std@@@3@$0A@@std@@@std@@QBE_NABV012@@Z
_TEXT	SEGMENT PARA USE32 PUBLIC 'CODE'
_TEXT	ENDS
;	COMDAT ??9const_iterator@?$_Tree@V?$_Tmap_traits@KU_Friend@@U?$less@K@std@@V?$allocator@U?$pair@$$CBKU_Friend@@@std@@@3@$0A@@std@@@std@@QBE_NABV012@@Z
_TEXT	SEGMENT PARA USE32 PUBLIC 'CODE'
_TEXT	ENDS
;	COMDAT ?_Destroy@?$vector@PAU__JOINPLAYER@CGuildCombat@@V?$allocator@PAU__JOINPLAYER@CGuildCombat@@@std@@@std@@IAEXPAPAU__JOINPLAYER@CGuildCombat@@0@Z
_TEXT	SEGMENT PARA USE32 PUBLIC 'CODE'
_TEXT	ENDS
;	COMDAT ?deallocate@?$allocator@PAU__JOINPLAYER@CGuildCombat@@@std@@QAEXPAPAU__JOINPLAYER@CGuildCombat@@I@Z
_TEXT	SEGMENT PARA USE32 PUBLIC 'CODE'
_TEXT	ENDS
;	COMDAT ?max_size@?$vector@U__SECRETROOM_MONSTER@@V?$allocator@U__SECRETROOM_MONSTER@@@std@@@std@@QBEIXZ
_TEXT	SEGMENT PARA USE32 PUBLIC 'CODE'
_TEXT	ENDS
;	COMDAT ?_Destroy@?$vector@U__SECRETROOM_MONSTER@@V?$allocator@U__SECRETROOM_MONSTER@@@std@@@std@@IAEXPAU__SECRETROOM_MONSTER@@0@Z
_TEXT	SEGMENT PARA USE32 PUBLIC 'CODE'
_TEXT	ENDS
;	COMDAT ?_Xlen@?$vector@U__SECRETROOM_MONSTER@@V?$allocator@U__SECRETROOM_MONSTER@@@std@@@std@@IBEXXZ
_TEXT	SEGMENT PARA USE32 PUBLIC 'CODE'
_TEXT	ENDS
;	COMDAT ??0?$allocator@U__SECRETROOM_MONSTER@@@std@@QAE@ABV01@@Z
_TEXT	SEGMENT PARA USE32 PUBLIC 'CODE'
_TEXT	ENDS
;	COMDAT ?deallocate@?$allocator@U__SECRETROOM_MONSTER@@@std@@QAEXPAU__SECRETROOM_MONSTER@@I@Z
_TEXT	SEGMENT PARA USE32 PUBLIC 'CODE'
_TEXT	ENDS
;	COMDAT ?allocate@?$allocator@U__SECRETROOM_MONSTER@@@std@@QAEPAU__SECRETROOM_MONSTER@@I@Z
_TEXT	SEGMENT PARA USE32 PUBLIC 'CODE'
_TEXT	ENDS
;	COMDAT ?max_size@?$vector@V?$basic_string@DU?$char_traits@D@std@@V?$allocator@D@2@@std@@V?$allocator@V?$basic_string@DU?$char_traits@D@std@@V?$allocator@D@2@@std@@@2@@std@@QBEIXZ
_TEXT	SEGMENT PARA USE32 PUBLIC 'CODE'
_TEXT	ENDS
;	COMDAT ?_Destroy@?$vector@V?$basic_string@DU?$char_traits@D@std@@V?$allocator@D@2@@std@@V?$allocator@V?$basic_string@DU?$char_traits@D@std@@V?$allocator@D@2@@std@@@2@@std@@IAEXPAV?$basic_string@DU?$char_traits@D@std@@V?$allocator@D@2@@2@0@Z
_TEXT	SEGMENT PARA USE32 PUBLIC 'CODE'
_TEXT	ENDS
;	COMDAT ?_Insert_n@?$vector@V?$basic_string@DU?$char_traits@D@std@@V?$allocator@D@2@@std@@V?$allocator@V?$basic_string@DU?$char_traits@D@std@@V?$allocator@D@2@@std@@@2@@std@@IAEXViterator@12@IABV?$basic_string@DU?$char_traits@D@std@@V?$allocator@D@2@@2@@Z
_TEXT	SEGMENT PARA USE32 PUBLIC 'CODE'
_TEXT	ENDS
;	COMDAT ?_Xlen@?$vector@V?$basic_string@DU?$char_traits@D@std@@V?$allocator@D@2@@std@@V?$allocator@V?$basic_string@DU?$char_traits@D@std@@V?$allocator@D@2@@std@@@2@@std@@IBEXXZ
_TEXT	SEGMENT PARA USE32 PUBLIC 'CODE'
_TEXT	ENDS
;	COMDAT ?begin@?$vector@UMINIGMAME_PRIZE_LIST@CRainbowRaceMng@@V?$allocator@UMINIGMAME_PRIZE_LIST@CRainbowRaceMng@@@std@@@std@@QAE?AViterator@12@XZ
_TEXT	SEGMENT PARA USE32 PUBLIC 'CODE'
_TEXT	ENDS
;	COMDAT ?_Insert_n@?$vector@UMINIGMAME_PRIZE_LIST@CRainbowRaceMng@@V?$allocator@UMINIGMAME_PRIZE_LIST@CRainbowRaceMng@@@std@@@std@@IAEXViterator@12@IABUMINIGMAME_PRIZE_LIST@CRainbowRaceMng@@@Z
_TEXT	SEGMENT PARA USE32 PUBLIC 'CODE'
_TEXT	ENDS
;	COMDAT ?_Color@?$_Tree@V?$_Tmap_traits@KPAVCGuildHouseBase@@U?$less@K@std@@V?$allocator@U?$pair@$$CBKPAVCGuildHouseBase@@@std@@@3@$0A@@std@@@std@@KAAADPAU_Node@?$_Tree_nod@V?$_Tmap_traits@KPAVCGuildHouseBase@@U?$less@K@std@@V?$allocator@U?$pair@$$CBKPAVCGuildHouseBase@@@std@@@3@$0A@@std@@@2@@Z
_TEXT	SEGMENT PARA USE32 PUBLIC 'CODE'
_TEXT	ENDS
;	COMDAT ?_Parent@?$_Tree@V?$_Tmap_traits@KPAVCGuildHouseBase@@U?$less@K@std@@V?$allocator@U?$pair@$$CBKPAVCGuildHouseBase@@@std@@@3@$0A@@std@@@std@@KAAAPAU_Node@?$_Tree_nod@V?$_Tmap_traits@KPAVCGuildHouseBase@@U?$less@K@std@@V?$allocator@U?$pair@$$CBKPAVCGuildHouseBase@@@std@@@3@$0A@@std@@@2@PAU342@@Z
_TEXT	SEGMENT PARA USE32 PUBLIC 'CODE'
_TEXT	ENDS
;	COMDAT ?_Myval@?$_Tree@V?$_Tmap_traits@KPAVCGuildHouseBase@@U?$less@K@std@@V?$allocator@U?$pair@$$CBKPAVCGuildHouseBase@@@std@@@3@$0A@@std@@@std@@KAAAU?$pair@$$CBKPAVCGuildHouseBase@@@2@PAU_Node@?$_Tree_nod@V?$_Tmap_traits@KPAVCGuildHouseBase@@U?$less@K@std@@V?$allocator@U?$pair@$$CBKPAVCGuildHouseBase@@@std@@@3@$0A@@std@@@2@@Z
_TEXT	SEGMENT PARA USE32 PUBLIC 'CODE'
_TEXT	ENDS
;	COMDAT ?max_size@?$_Tree@V?$_Tmap_traits@KPAVCGuildHouseBase@@U?$less@K@std@@V?$allocator@U?$pair@$$CBKPAVCGuildHouseBase@@@std@@@3@$0A@@std@@@std@@QBEIXZ
_TEXT	SEGMENT PARA USE32 PUBLIC 'CODE'
_TEXT	ENDS
;	COMDAT ?_Lmost@?$_Tree@V?$_Tmap_traits@KPAVCGuildHouseBase@@U?$less@K@std@@V?$allocator@U?$pair@$$CBKPAVCGuildHouseBase@@@std@@@3@$0A@@std@@@std@@IAEAAPAU_Node@?$_Tree_nod@V?$_Tmap_traits@KPAVCGuildHouseBase@@U?$less@K@std@@V?$allocator@U?$pair@$$CBKPAVCGuildHouseBase@@@std@@@3@$0A@@std@@@2@XZ
_TEXT	SEGMENT PARA USE32 PUBLIC 'CODE'
_TEXT	ENDS
;	COMDAT ?_Lrotate@?$_Tree@V?$_Tmap_traits@KPAVCGuildHouseBase@@U?$less@K@std@@V?$allocator@U?$pair@$$CBKPAVCGuildHouseBase@@@std@@@3@$0A@@std@@@std@@IAEXPAU_Node@?$_Tree_nod@V?$_Tmap_traits@KPAVCGuildHouseBase@@U?$less@K@std@@V?$allocator@U?$pair@$$CBKPAVCGuildHouseBase@@@std@@@3@$0A@@std@@@2@@Z
_TEXT	SEGMENT PARA USE32 PUBLIC 'CODE'
_TEXT	ENDS
;	COMDAT ?_Rmost@?$_Tree@V?$_Tmap_traits@KPAVCGuildHouseBase@@U?$less@K@std@@V?$allocator@U?$pair@$$CBKPAVCGuildHouseBase@@@std@@@3@$0A@@std@@@std@@IAEAAPAU_Node@?$_Tree_nod@V?$_Tmap_traits@KPAVCGuildHouseBase@@U?$less@K@std@@V?$allocator@U?$pair@$$CBKPAVCGuildHouseBase@@@std@@@3@$0A@@std@@@2@XZ
_TEXT	SEGMENT PARA USE32 PUBLIC 'CODE'
_TEXT	ENDS
;	COMDAT ?_Rrotate@?$_Tree@V?$_Tmap_traits@KPAVCGuildHouseBase@@U?$less@K@std@@V?$allocator@U?$pair@$$CBKPAVCGuildHouseBase@@@std@@@3@$0A@@std@@@std@@IAEXPAU_Node@?$_Tree_nod@V?$_Tmap_traits@KPAVCGuildHouseBase@@U?$less@K@std@@V?$allocator@U?$pair@$$CBKPAVCGuildHouseBase@@@std@@@3@$0A@@std@@@2@@Z
_TEXT	SEGMENT PARA USE32 PUBLIC 'CODE'
_TEXT	ENDS
;	COMDAT ?_Buynode@?$_Tree@V?$_Tmap_traits@KPAVCGuildHouseBase@@U?$less@K@std@@V?$allocator@U?$pair@$$CBKPAVCGuildHouseBase@@@std@@@3@$0A@@std@@@std@@IAEPAU_Node@?$_Tree_nod@V?$_Tmap_traits@KPAVCGuildHouseBase@@U?$less@K@std@@V?$allocator@U?$pair@$$CBKPAVCGuildHouseBase@@@std@@@3@$0A@@std@@@2@PAU342@00ABU?$pair@$$CBKPAVCGuildHouseBase@@@2@D@Z
_TEXT	SEGMENT PARA USE32 PUBLIC 'CODE'
_TEXT	ENDS
;	COMDAT ??0const_iterator@?$_Tree@V?$_Tmap_traits@KPAVCGuildHouseBase@@U?$less@K@std@@V?$allocator@U?$pair@$$CBKPAVCGuildHouseBase@@@std@@@3@$0A@@std@@@std@@QAE@PAU_Node@?$_Tree_nod@V?$_Tmap_traits@KPAVCGuildHouseBase@@U?$less@K@std@@V?$allocator@U?$pair@$$CBKPAVCGuildHouseBase@@@std@@@3@$0A@@std@@@2@@Z
_TEXT	SEGMENT PARA USE32 PUBLIC 'CODE'
_TEXT	ENDS
;	COMDAT ??Fconst_iterator@?$_Tree@V?$_Tmap_traits@KPAVCGuildHouseBase@@U?$less@K@std@@V?$allocator@U?$pair@$$CBKPAVCGuildHouseBase@@@std@@@3@$0A@@std@@@std@@QAEAAV012@XZ
_TEXT	SEGMENT PARA USE32 PUBLIC 'CODE'
_TEXT	ENDS
;	COMDAT ?begin@?$_Tree@V?$_Tmap_traits@KKU?$less@K@std@@V?$allocator@U?$pair@$$CBKK@std@@@2@$0A@@std@@@std@@QAE?AViterator@12@XZ
_TEXT	SEGMENT PARA USE32 PUBLIC 'CODE'
_TEXT	ENDS
;	COMDAT ?end@?$_Tree@V?$_Tmap_traits@KKU?$less@K@std@@V?$allocator@U?$pair@$$CBKK@std@@@2@$0A@@std@@@std@@QAE?AViterator@12@XZ
_TEXT	SEGMENT PARA USE32 PUBLIC 'CODE'
_TEXT	ENDS
;	COMDAT ?erase@?$_Tree@V?$_Tmap_traits@KKU?$less@K@std@@V?$allocator@U?$pair@$$CBKK@std@@@2@$0A@@std@@@std@@QAE?AViterator@12@V312@@Z
_TEXT	SEGMENT PARA USE32 PUBLIC 'CODE'
_TEXT	ENDS
;	COMDAT ?clear@?$_Tree@V?$_Tmap_traits@KKU?$less@K@std@@V?$allocator@U?$pair@$$CBKK@std@@@2@$0A@@std@@@std@@QAEXXZ
_TEXT	SEGMENT PARA USE32 PUBLIC 'CODE'
_TEXT	ENDS
;	COMDAT ?lower_bound@?$_Tree@V?$_Tmap_traits@KKU?$less@K@std@@V?$allocator@U?$pair@$$CBKK@std@@@2@$0A@@std@@@std@@QAE?AViterator@12@ABK@Z
_TEXT	SEGMENT PARA USE32 PUBLIC 'CODE'
_TEXT	ENDS
;	COMDAT ?upper_bound@?$_Tree@V?$_Tmap_traits@KKU?$less@K@std@@V?$allocator@U?$pair@$$CBKK@std@@@2@$0A@@std@@@std@@QAE?AViterator@12@ABK@Z
_TEXT	SEGMENT PARA USE32 PUBLIC 'CODE'
_TEXT	ENDS
;	COMDAT ??Eiterator@?$_Tree@V?$_Tmap_traits@KKU?$less@K@std@@V?$allocator@U?$pair@$$CBKK@std@@@2@$0A@@std@@@std@@QAE?AV012@H@Z
_TEXT	SEGMENT PARA USE32 PUBLIC 'CODE'
_TEXT	ENDS
;	COMDAT ??8const_iterator@?$_Tree@V?$_Tmap_traits@KKU?$less@K@std@@V?$allocator@U?$pair@$$CBKK@std@@@2@$0A@@std@@@std@@QBE_NABV012@@Z
_TEXT	SEGMENT PARA USE32 PUBLIC 'CODE'
_TEXT	ENDS
;	COMDAT ??9const_iterator@?$_Tree@V?$_Tmap_traits@KKU?$less@K@std@@V?$allocator@U?$pair@$$CBKK@std@@@2@$0A@@std@@@std@@QBE_NABV012@@Z
_TEXT	SEGMENT PARA USE32 PUBLIC 'CODE'
_TEXT	ENDS
;	COMDAT ??0?$pair@Viterator@?$_Tree@V?$_Tmap_traits@KU_Friend@@U?$less@K@std@@V?$allocator@U?$pair@$$CBKU_Friend@@@std@@@3@$0A@@std@@@std@@V123@@std@@QAE@ABViterator@?$_Tree@V?$_Tmap_traits@KU_Friend@@U?$less@K@std@@V?$allocator@U?$pair@$$CBKU_Friend@@@std@@@3@$0A@@std@@@1@0@Z
_TEXT	SEGMENT PARA USE32 PUBLIC 'CODE'
_TEXT	ENDS
;	COMDAT ??0iterator@?$vector@PAU__JOINPLAYER@CGuildCombat@@V?$allocator@PAU__JOINPLAYER@CGuildCombat@@@std@@@std@@QAE@PAPAU__JOINPLAYER@CGuildCombat@@@Z
_TEXT	SEGMENT PARA USE32 PUBLIC 'CODE'
_TEXT	ENDS
;	COMDAT ??Yiterator@?$vector@PAU__JOINPLAYER@CGuildCombat@@V?$allocator@PAU__JOINPLAYER@CGuildCombat@@@std@@@std@@QAEAAV012@H@Z
_TEXT	SEGMENT PARA USE32 PUBLIC 'CODE'
_TEXT	ENDS
;	COMDAT ??Dconst_iterator@?$vector@PAU__JOINPLAYER@CGuildCombat@@V?$allocator@PAU__JOINPLAYER@CGuildCombat@@@std@@@std@@QBEABQAU__JOINPLAYER@CGuildCombat@@XZ
_TEXT	SEGMENT PARA USE32 PUBLIC 'CODE'
_TEXT	ENDS
;	COMDAT ??0iterator@?$vector@V?$basic_string@DU?$char_traits@D@std@@V?$allocator@D@2@@std@@V?$allocator@V?$basic_string@DU?$char_traits@D@std@@V?$allocator@D@2@@std@@@2@@std@@QAE@PAV?$basic_string@DU?$char_traits@D@std@@V?$allocator@D@2@@2@@Z
_TEXT	SEGMENT PARA USE32 PUBLIC 'CODE'
_TEXT	ENDS
;	COMDAT ??Yiterator@?$vector@V?$basic_string@DU?$char_traits@D@std@@V?$allocator@D@2@@std@@V?$allocator@V?$basic_string@DU?$char_traits@D@std@@V?$allocator@D@2@@std@@@2@@std@@QAEAAV012@H@Z
_TEXT	SEGMENT PARA USE32 PUBLIC 'CODE'
_TEXT	ENDS
;	COMDAT ??Giterator@?$vector@V?$basic_string@DU?$char_traits@D@std@@V?$allocator@D@2@@std@@V?$allocator@V?$basic_string@DU?$char_traits@D@std@@V?$allocator@D@2@@std@@@2@@std@@QBEHABVconst_iterator@12@@Z
_TEXT	SEGMENT PARA USE32 PUBLIC 'CODE'
_TEXT	ENDS
;	COMDAT ??Dconst_iterator@?$vector@V?$basic_string@DU?$char_traits@D@std@@V?$allocator@D@2@@std@@V?$allocator@V?$basic_string@DU?$char_traits@D@std@@V?$allocator@D@2@@std@@@2@@std@@QBEABV?$basic_string@DU?$char_traits@D@std@@V?$allocator@D@2@@2@XZ
_TEXT	SEGMENT PARA USE32 PUBLIC 'CODE'
_TEXT	ENDS
;	COMDAT ??0iterator@?$vector@UMINIGMAME_PRIZE_LIST@CRainbowRaceMng@@V?$allocator@UMINIGMAME_PRIZE_LIST@CRainbowRaceMng@@@std@@@std@@QAE@PAUMINIGMAME_PRIZE_LIST@CRainbowRaceMng@@@Z
_TEXT	SEGMENT PARA USE32 PUBLIC 'CODE'
_TEXT	ENDS
;	COMDAT ??Hiterator@?$vector@UMINIGMAME_PRIZE_LIST@CRainbowRaceMng@@V?$allocator@UMINIGMAME_PRIZE_LIST@CRainbowRaceMng@@@std@@@std@@QBE?AV012@H@Z
_TEXT	SEGMENT PARA USE32 PUBLIC 'CODE'
_TEXT	ENDS
;	COMDAT ??Giterator@?$vector@UMINIGMAME_PRIZE_LIST@CRainbowRaceMng@@V?$allocator@UMINIGMAME_PRIZE_LIST@CRainbowRaceMng@@@std@@@std@@QBEHABVconst_iterator@12@@Z
_TEXT	SEGMENT PARA USE32 PUBLIC 'CODE'
_TEXT	ENDS
;	COMDAT ??0iterator@?$vector@PAVCMiniGameBase@@V?$allocator@PAVCMiniGameBase@@@std@@@std@@QAE@PAPAVCMiniGameBase@@@Z
_TEXT	SEGMENT PARA USE32 PUBLIC 'CODE'
_TEXT	ENDS
;	COMDAT ??Yiterator@?$vector@PAVCMiniGameBase@@V?$allocator@PAVCMiniGameBase@@@std@@@std@@QAEAAV012@H@Z
_TEXT	SEGMENT PARA USE32 PUBLIC 'CODE'
_TEXT	ENDS
;	COMDAT ??Dconst_iterator@?$vector@PAVCMiniGameBase@@V?$allocator@PAVCMiniGameBase@@@std@@@std@@QBEABQAVCMiniGameBase@@XZ
_TEXT	SEGMENT PARA USE32 PUBLIC 'CODE'
_TEXT	ENDS
;	COMDAT ??0iterator@?$vector@UGuildHouse_Furniture_Info@CGuildHouseBase@@V?$allocator@UGuildHouse_Furniture_Info@CGuildHouseBase@@@std@@@std@@QAE@PAUGuildHouse_Furniture_Info@CGuildHouseBase@@@Z
_TEXT	SEGMENT PARA USE32 PUBLIC 'CODE'
_TEXT	ENDS
;	COMDAT ??Yiterator@?$vector@UGuildHouse_Furniture_Info@CGuildHouseBase@@V?$allocator@UGuildHouse_Furniture_Info@CGuildHouseBase@@@std@@@std@@QAEAAV012@H@Z
_TEXT	SEGMENT PARA USE32 PUBLIC 'CODE'
_TEXT	ENDS
;	COMDAT ??Dconst_iterator@?$vector@UGuildHouse_Furniture_Info@CGuildHouseBase@@V?$allocator@UGuildHouse_Furniture_Info@CGuildHouseBase@@@std@@@std@@QBEABUGuildHouse_Furniture_Info@CGuildHouseBase@@XZ
_TEXT	SEGMENT PARA USE32 PUBLIC 'CODE'
_TEXT	ENDS
;	COMDAT ??0?$pair@Viterator@?$_Tree@V?$_Tmap_traits@KKU?$less@K@std@@V?$allocator@U?$pair@$$CBKK@std@@@2@$0A@@std@@@std@@V123@@std@@QAE@ABViterator@?$_Tree@V?$_Tmap_traits@KKU?$less@K@std@@V?$allocator@U?$pair@$$CBKK@std@@@2@$0A@@std@@@1@0@Z
_TEXT	SEGMENT PARA USE32 PUBLIC 'CODE'
_TEXT	ENDS
;	COMDAT ?max_size@?$allocator@V?$basic_string@DU?$char_traits@D@std@@V?$allocator@D@2@@std@@@std@@QBEIXZ
_TEXT	SEGMENT PARA USE32 PUBLIC 'CODE'
_TEXT	ENDS
;	COMDAT ??0const_iterator@?$_Tree@V?$_Tmap_traits@KPAVCCtrl@@U?$less@K@std@@V?$allocator@U?$pair@$$CBKPAVCCtrl@@@std@@@3@$0A@@std@@@std@@QAE@XZ
_TEXT	SEGMENT PARA USE32 PUBLIC 'CODE'
_TEXT	ENDS
;	COMDAT ?destroy@?$allocator@PAUtagACTMSG@@@std@@QAEXPAPAUtagACTMSG@@@Z
_TEXT	SEGMENT PARA USE32 PUBLIC 'CODE'
_TEXT	ENDS
;	COMDAT ?destroy@?$allocator@PAUtagMAGICATKMSG@@@std@@QAEXPAPAUtagMAGICATKMSG@@@Z
_TEXT	SEGMENT PARA USE32 PUBLIC 'CODE'
_TEXT	ENDS
;	COMDAT ?_Color@?$_Tree@V?$_Tmap_traits@KU_Friend@@U?$less@K@std@@V?$allocator@U?$pair@$$CBKU_Friend@@@std@@@3@$0A@@std@@@std@@KAAADPAU_Node@?$_Tree_nod@V?$_Tmap_traits@KU_Friend@@U?$less@K@std@@V?$allocator@U?$pair@$$CBKU_Friend@@@std@@@3@$0A@@std@@@2@@Z
_TEXT	SEGMENT PARA USE32 PUBLIC 'CODE'
_TEXT	ENDS
;	COMDAT ?_Isnil@?$_Tree@V?$_Tmap_traits@KU_Friend@@U?$less@K@std@@V?$allocator@U?$pair@$$CBKU_Friend@@@std@@@3@$0A@@std@@@std@@KAAADPAU_Node@?$_Tree_nod@V?$_Tmap_traits@KU_Friend@@U?$less@K@std@@V?$allocator@U?$pair@$$CBKU_Friend@@@std@@@3@$0A@@std@@@2@@Z
_TEXT	SEGMENT PARA USE32 PUBLIC 'CODE'
_TEXT	ENDS
;	COMDAT ?_Left@?$_Tree@V?$_Tmap_traits@KU_Friend@@U?$less@K@std@@V?$allocator@U?$pair@$$CBKU_Friend@@@std@@@3@$0A@@std@@@std@@KAAAPAU_Node@?$_Tree_nod@V?$_Tmap_traits@KU_Friend@@U?$less@K@std@@V?$allocator@U?$pair@$$CBKU_Friend@@@std@@@3@$0A@@std@@@2@PAU342@@Z
_TEXT	SEGMENT PARA USE32 PUBLIC 'CODE'
_TEXT	ENDS
;	COMDAT ?_Parent@?$_Tree@V?$_Tmap_traits@KU_Friend@@U?$less@K@std@@V?$allocator@U?$pair@$$CBKU_Friend@@@std@@@3@$0A@@std@@@std@@KAAAPAU_Node@?$_Tree_nod@V?$_Tmap_traits@KU_Friend@@U?$less@K@std@@V?$allocator@U?$pair@$$CBKU_Friend@@@std@@@3@$0A@@std@@@2@PAU342@@Z
_TEXT	SEGMENT PARA USE32 PUBLIC 'CODE'
_TEXT	ENDS
;	COMDAT ?_Right@?$_Tree@V?$_Tmap_traits@KU_Friend@@U?$less@K@std@@V?$allocator@U?$pair@$$CBKU_Friend@@@std@@@3@$0A@@std@@@std@@KAAAPAU_Node@?$_Tree_nod@V?$_Tmap_traits@KU_Friend@@U?$less@K@std@@V?$allocator@U?$pair@$$CBKU_Friend@@@std@@@3@$0A@@std@@@2@PAU342@@Z
_TEXT	SEGMENT PARA USE32 PUBLIC 'CODE'
_TEXT	ENDS
;	COMDAT ?_Erase@?$_Tree@V?$_Tmap_traits@KU_Friend@@U?$less@K@std@@V?$allocator@U?$pair@$$CBKU_Friend@@@std@@@3@$0A@@std@@@std@@IAEXPAU_Node@?$_Tree_nod@V?$_Tmap_traits@KU_Friend@@U?$less@K@std@@V?$allocator@U?$pair@$$CBKU_Friend@@@std@@@3@$0A@@std@@@2@@Z
_TEXT	SEGMENT PARA USE32 PUBLIC 'CODE'
_TEXT	ENDS
;	COMDAT ?_Lbound@?$_Tree@V?$_Tmap_traits@KU_Friend@@U?$less@K@std@@V?$allocator@U?$pair@$$CBKU_Friend@@@std@@@3@$0A@@std@@@std@@IBEPAU_Node@?$_Tree_nod@V?$_Tmap_traits@KU_Friend@@U?$less@K@std@@V?$allocator@U?$pair@$$CBKU_Friend@@@std@@@3@$0A@@std@@@2@ABK@Z
_TEXT	SEGMENT PARA USE32 PUBLIC 'CODE'
_TEXT	ENDS
;	COMDAT ?_Lmost@?$_Tree@V?$_Tmap_traits@KU_Friend@@U?$less@K@std@@V?$allocator@U?$pair@$$CBKU_Friend@@@std@@@3@$0A@@std@@@std@@IAEAAPAU_Node@?$_Tree_nod@V?$_Tmap_traits@KU_Friend@@U?$less@K@std@@V?$allocator@U?$pair@$$CBKU_Friend@@@std@@@3@$0A@@std@@@2@XZ
_TEXT	SEGMENT PARA USE32 PUBLIC 'CODE'
_TEXT	ENDS
;	COMDAT ?_Lrotate@?$_Tree@V?$_Tmap_traits@KU_Friend@@U?$less@K@std@@V?$allocator@U?$pair@$$CBKU_Friend@@@std@@@3@$0A@@std@@@std@@IAEXPAU_Node@?$_Tree_nod@V?$_Tmap_traits@KU_Friend@@U?$less@K@std@@V?$allocator@U?$pair@$$CBKU_Friend@@@std@@@3@$0A@@std@@@2@@Z
_TEXT	SEGMENT PARA USE32 PUBLIC 'CODE'
_TEXT	ENDS
;	COMDAT ?_Max@?$_Tree@V?$_Tmap_traits@KU_Friend@@U?$less@K@std@@V?$allocator@U?$pair@$$CBKU_Friend@@@std@@@3@$0A@@std@@@std@@KAPAU_Node@?$_Tree_nod@V?$_Tmap_traits@KU_Friend@@U?$less@K@std@@V?$allocator@U?$pair@$$CBKU_Friend@@@std@@@3@$0A@@std@@@2@PAU342@@Z
_TEXT	SEGMENT PARA USE32 PUBLIC 'CODE'
_TEXT	ENDS
;	COMDAT ?_Min@?$_Tree@V?$_Tmap_traits@KU_Friend@@U?$less@K@std@@V?$allocator@U?$pair@$$CBKU_Friend@@@std@@@3@$0A@@std@@@std@@KAPAU_Node@?$_Tree_nod@V?$_Tmap_traits@KU_Friend@@U?$less@K@std@@V?$allocator@U?$pair@$$CBKU_Friend@@@std@@@3@$0A@@std@@@2@PAU342@@Z
_TEXT	SEGMENT PARA USE32 PUBLIC 'CODE'
_TEXT	ENDS
;	COMDAT ?_Rmost@?$_Tree@V?$_Tmap_traits@KU_Friend@@U?$less@K@std@@V?$allocator@U?$pair@$$CBKU_Friend@@@std@@@3@$0A@@std@@@std@@IAEAAPAU_Node@?$_Tree_nod@V?$_Tmap_traits@KU_Friend@@U?$less@K@std@@V?$allocator@U?$pair@$$CBKU_Friend@@@std@@@3@$0A@@std@@@2@XZ
_TEXT	SEGMENT PARA USE32 PUBLIC 'CODE'
_TEXT	ENDS
;	COMDAT ?_Root@?$_Tree@V?$_Tmap_traits@KU_Friend@@U?$less@K@std@@V?$allocator@U?$pair@$$CBKU_Friend@@@std@@@3@$0A@@std@@@std@@IAEAAPAU_Node@?$_Tree_nod@V?$_Tmap_traits@KU_Friend@@U?$less@K@std@@V?$allocator@U?$pair@$$CBKU_Friend@@@std@@@3@$0A@@std@@@2@XZ
_TEXT	SEGMENT PARA USE32 PUBLIC 'CODE'
_TEXT	ENDS
;	COMDAT ?_Rrotate@?$_Tree@V?$_Tmap_traits@KU_Friend@@U?$less@K@std@@V?$allocator@U?$pair@$$CBKU_Friend@@@std@@@3@$0A@@std@@@std@@IAEXPAU_Node@?$_Tree_nod@V?$_Tmap_traits@KU_Friend@@U?$less@K@std@@V?$allocator@U?$pair@$$CBKU_Friend@@@std@@@3@$0A@@std@@@2@@Z
_TEXT	SEGMENT PARA USE32 PUBLIC 'CODE'
_TEXT	ENDS
;	COMDAT ?_Ubound@?$_Tree@V?$_Tmap_traits@KU_Friend@@U?$less@K@std@@V?$allocator@U?$pair@$$CBKU_Friend@@@std@@@3@$0A@@std@@@std@@IBEPAU_Node@?$_Tree_nod@V?$_Tmap_traits@KU_Friend@@U?$less@K@std@@V?$allocator@U?$pair@$$CBKU_Friend@@@std@@@3@$0A@@std@@@2@ABK@Z
_TEXT	SEGMENT PARA USE32 PUBLIC 'CODE'
_TEXT	ENDS
;	COMDAT ?deallocate@?$allocator@U_Node@?$_Tree_nod@V?$_Tmap_traits@KU_Friend@@U?$less@K@std@@V?$allocator@U?$pair@$$CBKU_Friend@@@std@@@3@$0A@@std@@@std@@@std@@QAEXPAU_Node@?$_Tree_nod@V?$_Tmap_traits@KU_Friend@@U?$less@K@std@@V?$allocator@U?$pair@$$CBKU_Friend@@@std@@@3@$0A@@std@@@2@I@Z
_TEXT	SEGMENT PARA USE32 PUBLIC 'CODE'
_TEXT	ENDS
;	COMDAT ?destroy@?$allocator@U_Node@?$_Tree_nod@V?$_Tmap_traits@KU_Friend@@U?$less@K@std@@V?$allocator@U?$pair@$$CBKU_Friend@@@std@@@3@$0A@@std@@@std@@@std@@QAEXPAU_Node@?$_Tree_nod@V?$_Tmap_traits@KU_Friend@@U?$less@K@std@@V?$allocator@U?$pair@$$CBKU_Friend@@@std@@@3@$0A@@std@@@2@@Z
_TEXT	SEGMENT PARA USE32 PUBLIC 'CODE'
_TEXT	ENDS
;	COMDAT ??0iterator@?$_Tree@V?$_Tmap_traits@KU_Friend@@U?$less@K@std@@V?$allocator@U?$pair@$$CBKU_Friend@@@std@@@3@$0A@@std@@@std@@QAE@PAU_Node@?$_Tree_nod@V?$_Tmap_traits@KU_Friend@@U?$less@K@std@@V?$allocator@U?$pair@$$CBKU_Friend@@@std@@@3@$0A@@std@@@2@@Z
_TEXT	SEGMENT PARA USE32 PUBLIC 'CODE'
_TEXT	ENDS
;	COMDAT ??Eiterator@?$_Tree@V?$_Tmap_traits@KU_Friend@@U?$less@K@std@@V?$allocator@U?$pair@$$CBKU_Friend@@@std@@@3@$0A@@std@@@std@@QAEAAV012@XZ
_TEXT	SEGMENT PARA USE32 PUBLIC 'CODE'
_TEXT	ENDS
;	COMDAT ?_Mynode@const_iterator@?$_Tree@V?$_Tmap_traits@KU_Friend@@U?$less@K@std@@V?$allocator@U?$pair@$$CBKU_Friend@@@std@@@3@$0A@@std@@@std@@QBEPAU_Node@?$_Tree_nod@V?$_Tmap_traits@KU_Friend@@U?$less@K@std@@V?$allocator@U?$pair@$$CBKU_Friend@@@std@@@3@$0A@@std@@@3@XZ
_TEXT	SEGMENT PARA USE32 PUBLIC 'CODE'
_TEXT	ENDS
;	COMDAT ?max_size@?$allocator@U__SECRETROOM_MONSTER@@@std@@QBEIXZ
_TEXT	SEGMENT PARA USE32 PUBLIC 'CODE'
_TEXT	ENDS
;	COMDAT ?max_size@?$vector@UMINIGMAME_PRIZE_LIST@CRainbowRaceMng@@V?$allocator@UMINIGMAME_PRIZE_LIST@CRainbowRaceMng@@@std@@@std@@QBEIXZ
_TEXT	SEGMENT PARA USE32 PUBLIC 'CODE'
_TEXT	ENDS
;	COMDAT ?_Destroy@?$vector@UMINIGMAME_PRIZE_LIST@CRainbowRaceMng@@V?$allocator@UMINIGMAME_PRIZE_LIST@CRainbowRaceMng@@@std@@@std@@IAEXPAUMINIGMAME_PRIZE_LIST@CRainbowRaceMng@@0@Z
_TEXT	SEGMENT PARA USE32 PUBLIC 'CODE'
_TEXT	ENDS
;	COMDAT ?_Xlen@?$vector@UMINIGMAME_PRIZE_LIST@CRainbowRaceMng@@V?$allocator@UMINIGMAME_PRIZE_LIST@CRainbowRaceMng@@@std@@@std@@IBEXXZ
_TEXT	SEGMENT PARA USE32 PUBLIC 'CODE'
_TEXT	ENDS
;	COMDAT ?deallocate@?$allocator@UMINIGMAME_PRIZE_LIST@CRainbowRaceMng@@@std@@QAEXPAUMINIGMAME_PRIZE_LIST@CRainbowRaceMng@@I@Z
_TEXT	SEGMENT PARA USE32 PUBLIC 'CODE'
_TEXT	ENDS
;	COMDAT ?allocate@?$allocator@UMINIGMAME_PRIZE_LIST@CRainbowRaceMng@@@std@@QAEPAUMINIGMAME_PRIZE_LIST@CRainbowRaceMng@@I@Z
_TEXT	SEGMENT PARA USE32 PUBLIC 'CODE'
_TEXT	ENDS
;	COMDAT ?max_size@?$allocator@U?$pair@$$CBKPAVCGuildHouseBase@@@std@@@std@@QBEIXZ
_TEXT	SEGMENT PARA USE32 PUBLIC 'CODE'
_TEXT	ENDS
;	COMDAT ?deallocate@?$allocator@U_Node@?$_Tree_nod@V?$_Tmap_traits@KPAVCGuildHouseBase@@U?$less@K@std@@V?$allocator@U?$pair@$$CBKPAVCGuildHouseBase@@@std@@@3@$0A@@std@@@std@@@std@@QAEXPAU_Node@?$_Tree_nod@V?$_Tmap_traits@KPAVCGuildHouseBase@@U?$less@K@std@@V?$allocator@U?$pair@$$CBKPAVCGuildHouseBase@@@std@@@3@$0A@@std@@@2@I@Z
_TEXT	SEGMENT PARA USE32 PUBLIC 'CODE'
_TEXT	ENDS
;	COMDAT ?allocate@?$allocator@U_Node@?$_Tree_nod@V?$_Tmap_traits@KPAVCGuildHouseBase@@U?$less@K@std@@V?$allocator@U?$pair@$$CBKPAVCGuildHouseBase@@@std@@@3@$0A@@std@@@std@@@std@@QAEPAU_Node@?$_Tree_nod@V?$_Tmap_traits@KPAVCGuildHouseBase@@U?$less@K@std@@V?$allocator@U?$pair@$$CBKPAVCGuildHouseBase@@@std@@@3@$0A@@std@@@2@I@Z
_TEXT	SEGMENT PARA USE32 PUBLIC 'CODE'
_TEXT	ENDS
;	COMDAT ?_Dec@const_iterator@?$_Tree@V?$_Tmap_traits@KPAVCGuildHouseBase@@U?$less@K@std@@V?$allocator@U?$pair@$$CBKPAVCGuildHouseBase@@@std@@@3@$0A@@std@@@std@@QAEXXZ
_TEXT	SEGMENT PARA USE32 PUBLIC 'CODE'
_TEXT	ENDS
;	COMDAT ?_Color@?$_Tree@V?$_Tmap_traits@KKU?$less@K@std@@V?$allocator@U?$pair@$$CBKK@std@@@2@$0A@@std@@@std@@KAAADPAU_Node@?$_Tree_nod@V?$_Tmap_traits@KKU?$less@K@std@@V?$allocator@U?$pair@$$CBKK@std@@@2@$0A@@std@@@2@@Z
_TEXT	SEGMENT PARA USE32 PUBLIC 'CODE'
_TEXT	ENDS
;	COMDAT ?_Isnil@?$_Tree@V?$_Tmap_traits@KKU?$less@K@std@@V?$allocator@U?$pair@$$CBKK@std@@@2@$0A@@std@@@std@@KAAADPAU_Node@?$_Tree_nod@V?$_Tmap_traits@KKU?$less@K@std@@V?$allocator@U?$pair@$$CBKK@std@@@2@$0A@@std@@@2@@Z
_TEXT	SEGMENT PARA USE32 PUBLIC 'CODE'
_TEXT	ENDS
;	COMDAT ?_Left@?$_Tree@V?$_Tmap_traits@KKU?$less@K@std@@V?$allocator@U?$pair@$$CBKK@std@@@2@$0A@@std@@@std@@KAAAPAU_Node@?$_Tree_nod@V?$_Tmap_traits@KKU?$less@K@std@@V?$allocator@U?$pair@$$CBKK@std@@@2@$0A@@std@@@2@PAU342@@Z
_TEXT	SEGMENT PARA USE32 PUBLIC 'CODE'
_TEXT	ENDS
;	COMDAT ?_Parent@?$_Tree@V?$_Tmap_traits@KKU?$less@K@std@@V?$allocator@U?$pair@$$CBKK@std@@@2@$0A@@std@@@std@@KAAAPAU_Node@?$_Tree_nod@V?$_Tmap_traits@KKU?$less@K@std@@V?$allocator@U?$pair@$$CBKK@std@@@2@$0A@@std@@@2@PAU342@@Z
_TEXT	SEGMENT PARA USE32 PUBLIC 'CODE'
_TEXT	ENDS
;	COMDAT ?_Right@?$_Tree@V?$_Tmap_traits@KKU?$less@K@std@@V?$allocator@U?$pair@$$CBKK@std@@@2@$0A@@std@@@std@@KAAAPAU_Node@?$_Tree_nod@V?$_Tmap_traits@KKU?$less@K@std@@V?$allocator@U?$pair@$$CBKK@std@@@2@$0A@@std@@@2@PAU342@@Z
_TEXT	SEGMENT PARA USE32 PUBLIC 'CODE'
_TEXT	ENDS
;	COMDAT ?_Erase@?$_Tree@V?$_Tmap_traits@KKU?$less@K@std@@V?$allocator@U?$pair@$$CBKK@std@@@2@$0A@@std@@@std@@IAEXPAU_Node@?$_Tree_nod@V?$_Tmap_traits@KKU?$less@K@std@@V?$allocator@U?$pair@$$CBKK@std@@@2@$0A@@std@@@2@@Z
_TEXT	SEGMENT PARA USE32 PUBLIC 'CODE'
_TEXT	ENDS
;	COMDAT ?_Lbound@?$_Tree@V?$_Tmap_traits@KKU?$less@K@std@@V?$allocator@U?$pair@$$CBKK@std@@@2@$0A@@std@@@std@@IBEPAU_Node@?$_Tree_nod@V?$_Tmap_traits@KKU?$less@K@std@@V?$allocator@U?$pair@$$CBKK@std@@@2@$0A@@std@@@2@ABK@Z
_TEXT	SEGMENT PARA USE32 PUBLIC 'CODE'
_TEXT	ENDS
;	COMDAT ?_Lmost@?$_Tree@V?$_Tmap_traits@KKU?$less@K@std@@V?$allocator@U?$pair@$$CBKK@std@@@2@$0A@@std@@@std@@IAEAAPAU_Node@?$_Tree_nod@V?$_Tmap_traits@KKU?$less@K@std@@V?$allocator@U?$pair@$$CBKK@std@@@2@$0A@@std@@@2@XZ
_TEXT	SEGMENT PARA USE32 PUBLIC 'CODE'
_TEXT	ENDS
;	COMDAT ?_Lrotate@?$_Tree@V?$_Tmap_traits@KKU?$less@K@std@@V?$allocator@U?$pair@$$CBKK@std@@@2@$0A@@std@@@std@@IAEXPAU_Node@?$_Tree_nod@V?$_Tmap_traits@KKU?$less@K@std@@V?$allocator@U?$pair@$$CBKK@std@@@2@$0A@@std@@@2@@Z
_TEXT	SEGMENT PARA USE32 PUBLIC 'CODE'
_TEXT	ENDS
;	COMDAT ?_Max@?$_Tree@V?$_Tmap_traits@KKU?$less@K@std@@V?$allocator@U?$pair@$$CBKK@std@@@2@$0A@@std@@@std@@KAPAU_Node@?$_Tree_nod@V?$_Tmap_traits@KKU?$less@K@std@@V?$allocator@U?$pair@$$CBKK@std@@@2@$0A@@std@@@2@PAU342@@Z
_TEXT	SEGMENT PARA USE32 PUBLIC 'CODE'
_TEXT	ENDS
;	COMDAT ?_Min@?$_Tree@V?$_Tmap_traits@KKU?$less@K@std@@V?$allocator@U?$pair@$$CBKK@std@@@2@$0A@@std@@@std@@KAPAU_Node@?$_Tree_nod@V?$_Tmap_traits@KKU?$less@K@std@@V?$allocator@U?$pair@$$CBKK@std@@@2@$0A@@std@@@2@PAU342@@Z
_TEXT	SEGMENT PARA USE32 PUBLIC 'CODE'
_TEXT	ENDS
;	COMDAT ?_Rmost@?$_Tree@V?$_Tmap_traits@KKU?$less@K@std@@V?$allocator@U?$pair@$$CBKK@std@@@2@$0A@@std@@@std@@IAEAAPAU_Node@?$_Tree_nod@V?$_Tmap_traits@KKU?$less@K@std@@V?$allocator@U?$pair@$$CBKK@std@@@2@$0A@@std@@@2@XZ
_TEXT	SEGMENT PARA USE32 PUBLIC 'CODE'
_TEXT	ENDS
;	COMDAT ?_Root@?$_Tree@V?$_Tmap_traits@KKU?$less@K@std@@V?$allocator@U?$pair@$$CBKK@std@@@2@$0A@@std@@@std@@IAEAAPAU_Node@?$_Tree_nod@V?$_Tmap_traits@KKU?$less@K@std@@V?$allocator@U?$pair@$$CBKK@std@@@2@$0A@@std@@@2@XZ
_TEXT	SEGMENT PARA USE32 PUBLIC 'CODE'
_TEXT	ENDS
;	COMDAT ?_Rrotate@?$_Tree@V?$_Tmap_traits@KKU?$less@K@std@@V?$allocator@U?$pair@$$CBKK@std@@@2@$0A@@std@@@std@@IAEXPAU_Node@?$_Tree_nod@V?$_Tmap_traits@KKU?$less@K@std@@V?$allocator@U?$pair@$$CBKK@std@@@2@$0A@@std@@@2@@Z
_TEXT	SEGMENT PARA USE32 PUBLIC 'CODE'
_TEXT	ENDS
;	COMDAT ?_Ubound@?$_Tree@V?$_Tmap_traits@KKU?$less@K@std@@V?$allocator@U?$pair@$$CBKK@std@@@2@$0A@@std@@@std@@IBEPAU_Node@?$_Tree_nod@V?$_Tmap_traits@KKU?$less@K@std@@V?$allocator@U?$pair@$$CBKK@std@@@2@$0A@@std@@@2@ABK@Z
_TEXT	SEGMENT PARA USE32 PUBLIC 'CODE'
_TEXT	ENDS
;	COMDAT ?deallocate@?$allocator@U_Node@?$_Tree_nod@V?$_Tmap_traits@KKU?$less@K@std@@V?$allocator@U?$pair@$$CBKK@std@@@2@$0A@@std@@@std@@@std@@QAEXPAU_Node@?$_Tree_nod@V?$_Tmap_traits@KKU?$less@K@std@@V?$allocator@U?$pair@$$CBKK@std@@@2@$0A@@std@@@2@I@Z
_TEXT	SEGMENT PARA USE32 PUBLIC 'CODE'
_TEXT	ENDS
;	COMDAT ?destroy@?$allocator@U_Node@?$_Tree_nod@V?$_Tmap_traits@KKU?$less@K@std@@V?$allocator@U?$pair@$$CBKK@std@@@2@$0A@@std@@@std@@@std@@QAEXPAU_Node@?$_Tree_nod@V?$_Tmap_traits@KKU?$less@K@std@@V?$allocator@U?$pair@$$CBKK@std@@@2@$0A@@std@@@2@@Z
_TEXT	SEGMENT PARA USE32 PUBLIC 'CODE'
_TEXT	ENDS
;	COMDAT ??0iterator@?$_Tree@V?$_Tmap_traits@KKU?$less@K@std@@V?$allocator@U?$pair@$$CBKK@std@@@2@$0A@@std@@@std@@QAE@PAU_Node@?$_Tree_nod@V?$_Tmap_traits@KKU?$less@K@std@@V?$allocator@U?$pair@$$CBKK@std@@@2@$0A@@std@@@2@@Z
_TEXT	SEGMENT PARA USE32 PUBLIC 'CODE'
_TEXT	ENDS
;	COMDAT ??Eiterator@?$_Tree@V?$_Tmap_traits@KKU?$less@K@std@@V?$allocator@U?$pair@$$CBKK@std@@@2@$0A@@std@@@std@@QAEAAV012@XZ
_TEXT	SEGMENT PARA USE32 PUBLIC 'CODE'
_TEXT	ENDS
;	COMDAT ?_Mynode@const_iterator@?$_Tree@V?$_Tmap_traits@KKU?$less@K@std@@V?$allocator@U?$pair@$$CBKK@std@@@2@$0A@@std@@@std@@QBEPAU_Node@?$_Tree_nod@V?$_Tmap_traits@KKU?$less@K@std@@V?$allocator@U?$pair@$$CBKK@std@@@2@$0A@@std@@@3@XZ
_TEXT	SEGMENT PARA USE32 PUBLIC 'CODE'
_TEXT	ENDS
;	COMDAT ??0const_iterator@?$vector@PAU__JOINPLAYER@CGuildCombat@@V?$allocator@PAU__JOINPLAYER@CGuildCombat@@@std@@@std@@QAE@PAPAU__JOINPLAYER@CGuildCombat@@@Z
_TEXT	SEGMENT PARA USE32 PUBLIC 'CODE'
_TEXT	ENDS
;	COMDAT ??0const_iterator@?$vector@V?$basic_string@DU?$char_traits@D@std@@V?$allocator@D@2@@std@@V?$allocator@V?$basic_string@DU?$char_traits@D@std@@V?$allocator@D@2@@std@@@2@@std@@QAE@PAV?$basic_string@DU?$char_traits@D@std@@V?$allocator@D@2@@2@@Z
_TEXT	SEGMENT PARA USE32 PUBLIC 'CODE'
_TEXT	ENDS
;	COMDAT ??Gconst_iterator@?$vector@V?$basic_string@DU?$char_traits@D@std@@V?$allocator@D@2@@std@@V?$allocator@V?$basic_string@DU?$char_traits@D@std@@V?$allocator@D@2@@std@@@2@@std@@QBEHABV012@@Z
_TEXT	SEGMENT PARA USE32 PUBLIC 'CODE'
_TEXT	ENDS
;	COMDAT ??Yiterator@?$vector@UMINIGMAME_PRIZE_LIST@CRainbowRaceMng@@V?$allocator@UMINIGMAME_PRIZE_LIST@CRainbowRaceMng@@@std@@@std@@QAEAAV012@H@Z
_TEXT	SEGMENT PARA USE32 PUBLIC 'CODE'
_TEXT	ENDS
;	COMDAT ??0const_iterator@?$vector@UMINIGMAME_PRIZE_LIST@CRainbowRaceMng@@V?$allocator@UMINIGMAME_PRIZE_LIST@CRainbowRaceMng@@@std@@@std@@QAE@PAUMINIGMAME_PRIZE_LIST@CRainbowRaceMng@@@Z
_TEXT	SEGMENT PARA USE32 PUBLIC 'CODE'
_TEXT	ENDS
;	COMDAT ??Gconst_iterator@?$vector@UMINIGMAME_PRIZE_LIST@CRainbowRaceMng@@V?$allocator@UMINIGMAME_PRIZE_LIST@CRainbowRaceMng@@@std@@@std@@QBEHABV012@@Z
_TEXT	SEGMENT PARA USE32 PUBLIC 'CODE'
_TEXT	ENDS
;	COMDAT ??0const_iterator@?$vector@PAVCMiniGameBase@@V?$allocator@PAVCMiniGameBase@@@std@@@std@@QAE@PAPAVCMiniGameBase@@@Z
_TEXT	SEGMENT PARA USE32 PUBLIC 'CODE'
_TEXT	ENDS
;	COMDAT ??0const_iterator@?$vector@UGuildHouse_Furniture_Info@CGuildHouseBase@@V?$allocator@UGuildHouse_Furniture_Info@CGuildHouseBase@@@std@@@std@@QAE@PAUGuildHouse_Furniture_Info@CGuildHouseBase@@@Z
_TEXT	SEGMENT PARA USE32 PUBLIC 'CODE'
_TEXT	ENDS
;	COMDAT ??0_Node@?$_Tree_nod@V?$_Tmap_traits@KPAVCGuildHouseBase@@U?$less@K@std@@V?$allocator@U?$pair@$$CBKPAVCGuildHouseBase@@@std@@@3@$0A@@std@@@std@@QAE@PAU012@00ABU?$pair@$$CBKPAVCGuildHouseBase@@@2@D@Z
_TEXT	SEGMENT PARA USE32 PUBLIC 'CODE'
_TEXT	ENDS
;	COMDAT ?_Key@?$_Tree@V?$_Tmap_traits@KU_Friend@@U?$less@K@std@@V?$allocator@U?$pair@$$CBKU_Friend@@@std@@@3@$0A@@std@@@std@@KAABKPAU_Node@?$_Tree_nod@V?$_Tmap_traits@KU_Friend@@U?$less@K@std@@V?$allocator@U?$pair@$$CBKU_Friend@@@std@@@3@$0A@@std@@@2@@Z
_TEXT	SEGMENT PARA USE32 PUBLIC 'CODE'
_TEXT	ENDS
;	COMDAT ?_Root@?$_Tree@V?$_Tmap_traits@KU_Friend@@U?$less@K@std@@V?$allocator@U?$pair@$$CBKU_Friend@@@std@@@3@$0A@@std@@@std@@IBEAAPAU_Node@?$_Tree_nod@V?$_Tmap_traits@KU_Friend@@U?$less@K@std@@V?$allocator@U?$pair@$$CBKU_Friend@@@std@@@3@$0A@@std@@@2@XZ
_TEXT	SEGMENT PARA USE32 PUBLIC 'CODE'
_TEXT	ENDS
;	COMDAT ??0const_iterator@?$_Tree@V?$_Tmap_traits@KU_Friend@@U?$less@K@std@@V?$allocator@U?$pair@$$CBKU_Friend@@@std@@@3@$0A@@std@@@std@@QAE@PAU_Node@?$_Tree_nod@V?$_Tmap_traits@KU_Friend@@U?$less@K@std@@V?$allocator@U?$pair@$$CBKU_Friend@@@std@@@3@$0A@@std@@@2@@Z
_TEXT	SEGMENT PARA USE32 PUBLIC 'CODE'
_TEXT	ENDS
;	COMDAT ??Econst_iterator@?$_Tree@V?$_Tmap_traits@KU_Friend@@U?$less@K@std@@V?$allocator@U?$pair@$$CBKU_Friend@@@std@@@3@$0A@@std@@@std@@QAEAAV012@XZ
_TEXT	SEGMENT PARA USE32 PUBLIC 'CODE'
_TEXT	ENDS
;	COMDAT ?max_size@?$allocator@UMINIGMAME_PRIZE_LIST@CRainbowRaceMng@@@std@@QBEIXZ
_TEXT	SEGMENT PARA USE32 PUBLIC 'CODE'
_TEXT	ENDS
;	COMDAT ?_Max@?$_Tree@V?$_Tmap_traits@KPAVCGuildHouseBase@@U?$less@K@std@@V?$allocator@U?$pair@$$CBKPAVCGuildHouseBase@@@std@@@3@$0A@@std@@@std@@KAPAU_Node@?$_Tree_nod@V?$_Tmap_traits@KPAVCGuildHouseBase@@U?$less@K@std@@V?$allocator@U?$pair@$$CBKPAVCGuildHouseBase@@@std@@@3@$0A@@std@@@2@PAU342@@Z
_TEXT	SEGMENT PARA USE32 PUBLIC 'CODE'
_TEXT	ENDS
;	COMDAT ?_Key@?$_Tree@V?$_Tmap_traits@KKU?$less@K@std@@V?$allocator@U?$pair@$$CBKK@std@@@2@$0A@@std@@@std@@KAABKPAU_Node@?$_Tree_nod@V?$_Tmap_traits@KKU?$less@K@std@@V?$allocator@U?$pair@$$CBKK@std@@@2@$0A@@std@@@2@@Z
_TEXT	SEGMENT PARA USE32 PUBLIC 'CODE'
_TEXT	ENDS
;	COMDAT ?_Root@?$_Tree@V?$_Tmap_traits@KKU?$less@K@std@@V?$allocator@U?$pair@$$CBKK@std@@@2@$0A@@std@@@std@@IBEAAPAU_Node@?$_Tree_nod@V?$_Tmap_traits@KKU?$less@K@std@@V?$allocator@U?$pair@$$CBKK@std@@@2@$0A@@std@@@2@XZ
_TEXT	SEGMENT PARA USE32 PUBLIC 'CODE'
_TEXT	ENDS
;	COMDAT ??0const_iterator@?$_Tree@V?$_Tmap_traits@KKU?$less@K@std@@V?$allocator@U?$pair@$$CBKK@std@@@2@$0A@@std@@@std@@QAE@PAU_Node@?$_Tree_nod@V?$_Tmap_traits@KKU?$less@K@std@@V?$allocator@U?$pair@$$CBKK@std@@@2@$0A@@std@@@2@@Z
_TEXT	SEGMENT PARA USE32 PUBLIC 'CODE'
_TEXT	ENDS
;	COMDAT ??Econst_iterator@?$_Tree@V?$_Tmap_traits@KKU?$less@K@std@@V?$allocator@U?$pair@$$CBKK@std@@@2@$0A@@std@@@std@@QAEAAV012@XZ
_TEXT	SEGMENT PARA USE32 PUBLIC 'CODE'
_TEXT	ENDS
;	COMDAT ?_Myval@?$_Tree@V?$_Tmap_traits@KU_Friend@@U?$less@K@std@@V?$allocator@U?$pair@$$CBKU_Friend@@@std@@@3@$0A@@std@@@std@@KAAAU?$pair@$$CBKU_Friend@@@2@PAU_Node@?$_Tree_nod@V?$_Tmap_traits@KU_Friend@@U?$less@K@std@@V?$allocator@U?$pair@$$CBKU_Friend@@@std@@@3@$0A@@std@@@2@@Z
_TEXT	SEGMENT PARA USE32 PUBLIC 'CODE'
_TEXT	ENDS
;	COMDAT ?_Kfn@?$_Tmap_traits@KU_Friend@@U?$less@K@std@@V?$allocator@U?$pair@$$CBKU_Friend@@@std@@@3@$0A@@std@@SAABKABU?$pair@$$CBKU_Friend@@@2@@Z
_TEXT	SEGMENT PARA USE32 PUBLIC 'CODE'
_TEXT	ENDS
;	COMDAT ?_Inc@const_iterator@?$_Tree@V?$_Tmap_traits@KU_Friend@@U?$less@K@std@@V?$allocator@U?$pair@$$CBKU_Friend@@@std@@@3@$0A@@std@@@std@@QAEXXZ
_TEXT	SEGMENT PARA USE32 PUBLIC 'CODE'
_TEXT	ENDS
;	COMDAT ?_Myval@?$_Tree@V?$_Tmap_traits@KKU?$less@K@std@@V?$allocator@U?$pair@$$CBKK@std@@@2@$0A@@std@@@std@@KAAAU?$pair@$$CBKK@2@PAU_Node@?$_Tree_nod@V?$_Tmap_traits@KKU?$less@K@std@@V?$allocator@U?$pair@$$CBKK@std@@@2@$0A@@std@@@2@@Z
_TEXT	SEGMENT PARA USE32 PUBLIC 'CODE'
_TEXT	ENDS
;	COMDAT ?_Kfn@?$_Tmap_traits@KKU?$less@K@std@@V?$allocator@U?$pair@$$CBKK@std@@@2@$0A@@std@@SAABKABU?$pair@$$CBKK@2@@Z
_TEXT	SEGMENT PARA USE32 PUBLIC 'CODE'
_TEXT	ENDS
;	COMDAT ?_Inc@const_iterator@?$_Tree@V?$_Tmap_traits@KKU?$less@K@std@@V?$allocator@U?$pair@$$CBKK@std@@@2@$0A@@std@@@std@@QAEXXZ
_TEXT	SEGMENT PARA USE32 PUBLIC 'CODE'
_TEXT	ENDS
;	COMDAT ??$_Iter_cat@Vconst_iterator@?$vector@EV?$allocator@E@std@@@std@@@std@@YA?AUrandom_access_iterator_tag@0@ABVconst_iterator@?$vector@EV?$allocator@E@std@@@0@@Z
_TEXT	SEGMENT PARA USE32 PUBLIC 'CODE'
_TEXT	ENDS
;	COMDAT ??$_Assign@Vconst_iterator@?$vector@EV?$allocator@E@std@@@std@@@?$vector@EV?$allocator@E@std@@@std@@QAEXVconst_iterator@01@0Uinput_iterator_tag@1@@Z
_TEXT	SEGMENT PARA USE32 PUBLIC 'CODE'
_TEXT	ENDS
;	COMDAT ??$_Iter_cat@Viterator@?$_Tree@V?$_Tmap_traits@KPAVCUser@@U?$less@K@std@@V?$allocator@U?$pair@$$CBKPAVCUser@@@std@@@3@$0A@@std@@@std@@@std@@YA?AUbidirectional_iterator_tag@0@ABViterator@?$_Tree@V?$_Tmap_traits@KPAVCUser@@U?$less@K@std@@V?$allocator@U?$pair@$$CBKPAVCUser@@@std@@@3@$0A@@std@@@0@@Z
_TEXT	SEGMENT PARA USE32 PUBLIC 'CODE'
_TEXT	ENDS
;	COMDAT ??$_Distance2@Viterator@?$_Tree@V?$_Tmap_traits@KPAVCUser@@U?$less@K@std@@V?$allocator@U?$pair@$$CBKPAVCUser@@@std@@@3@$0A@@std@@@std@@I@std@@YAXViterator@?$_Tree@V?$_Tmap_traits@KPAVCUser@@U?$less@K@std@@V?$allocator@U?$pair@$$CBKPAVCUser@@@std@@@3@$0A@@std@@@0@0AAIUbidirectional_iterator_tag@0@@Z
_TEXT	SEGMENT PARA USE32 PUBLIC 'CODE'
_TEXT	ENDS
;	COMDAT ??$_Iter_cat@Viterator@?$_Tree@V?$_Tmap_traits@KPAVCCtrl@@U?$less@K@std@@V?$allocator@U?$pair@$$CBKPAVCCtrl@@@std@@@3@$0A@@std@@@std@@@std@@YA?AUbidirectional_iterator_tag@0@ABViterator@?$_Tree@V?$_Tmap_traits@KPAVCCtrl@@U?$less@K@std@@V?$allocator@U?$pair@$$CBKPAVCCtrl@@@std@@@3@$0A@@std@@@0@@Z
_TEXT	SEGMENT PARA USE32 PUBLIC 'CODE'
_TEXT	ENDS
;	COMDAT ??$_Distance2@Viterator@?$_Tree@V?$_Tmap_traits@KPAVCCtrl@@U?$less@K@std@@V?$allocator@U?$pair@$$CBKPAVCCtrl@@@std@@@3@$0A@@std@@@std@@I@std@@YAXViterator@?$_Tree@V?$_Tmap_traits@KPAVCCtrl@@U?$less@K@std@@V?$allocator@U?$pair@$$CBKPAVCCtrl@@@std@@@3@$0A@@std@@@0@0AAIUbidirectional_iterator_tag@0@@Z
_TEXT	SEGMENT PARA USE32 PUBLIC 'CODE'
_TEXT	ENDS
;	COMDAT ??$_Uninitialized_copy@Vconst_iterator@?$vector@EV?$allocator@E@std@@@std@@PAEV?$allocator@E@3@@std@@YAPAEVconst_iterator@?$vector@EV?$allocator@E@std@@@0@0PAEAAV?$allocator@E@0@@Z
_TEXT	SEGMENT PARA USE32 PUBLIC 'CODE'
_TEXT	ENDS
;	COMDAT ??$_Iter_cat@Viterator@?$_Tree@V?$_Tmap_traits@KEU?$less@K@std@@V?$allocator@U?$pair@$$CBKE@std@@@2@$0A@@std@@@std@@@std@@YA?AUbidirectional_iterator_tag@0@ABViterator@?$_Tree@V?$_Tmap_traits@KEU?$less@K@std@@V?$allocator@U?$pair@$$CBKE@std@@@2@$0A@@std@@@0@@Z
_TEXT	SEGMENT PARA USE32 PUBLIC 'CODE'
_TEXT	ENDS
;	COMDAT ??$_Distance2@Viterator@?$_Tree@V?$_Tmap_traits@KEU?$less@K@std@@V?$allocator@U?$pair@$$CBKE@std@@@2@$0A@@std@@@std@@I@std@@YAXViterator@?$_Tree@V?$_Tmap_traits@KEU?$less@K@std@@V?$allocator@U?$pair@$$CBKE@std@@@2@$0A@@std@@@0@0AAIUbidirectional_iterator_tag@0@@Z
_TEXT	SEGMENT PARA USE32 PUBLIC 'CODE'
_TEXT	ENDS
;	COMDAT ??$_Ptr_cat@PAU__SPAWNREGION@CEventLua@@PAU12@@std@@YA?AU_Nonscalar_ptr_iterator_tag@0@AAPAU__SPAWNREGION@CEventLua@@0@Z
_TEXT	SEGMENT PARA USE32 PUBLIC 'CODE'
_TEXT	ENDS
;	COMDAT ??$_Uninit_fill_n@PAU__SPAWNREGION@CEventLua@@IU12@V?$allocator@U__SPAWNREGION@CEventLua@@@std@@@std@@YAXPAU__SPAWNREGION@CEventLua@@IABU12@AAV?$allocator@U__SPAWNREGION@CEventLua@@@0@U_Nonscalar_ptr_iterator_tag@0@@Z
_TEXT	SEGMENT PARA USE32 PUBLIC 'CODE'
_TEXT	ENDS
;	COMDAT ??$_Copy_opt@PAJPAJ@std@@YAPAJPAJ00U_Scalar_ptr_iterator_tag@0@@Z
_TEXT	SEGMENT PARA USE32 PUBLIC 'CODE'
_TEXT	ENDS
;	COMDAT ??$_Uninitialized_copy@PAJPAJV?$allocator@J@std@@@std@@YAPAJPAJ00AAV?$allocator@J@0@@Z
_TEXT	SEGMENT PARA USE32 PUBLIC 'CODE'
_TEXT	ENDS
;	COMDAT ??$_Copy_backward_opt@PAJPAJ@std@@YAPAJPAJ00U_Scalar_ptr_iterator_tag@0@@Z
_TEXT	SEGMENT PARA USE32 PUBLIC 'CODE'
_TEXT	ENDS
;	COMDAT ??$_Ptr_cat@PAUtagDROPITEM@@PAU1@@std@@YA?AU_Nonscalar_ptr_iterator_tag@0@AAPAUtagDROPITEM@@0@Z
_TEXT	SEGMENT PARA USE32 PUBLIC 'CODE'
_TEXT	ENDS
;	COMDAT ??$_Destroy_range@UtagDROPITEM@@V?$allocator@UtagDROPITEM@@@std@@@std@@YAXPAUtagDROPITEM@@0AAV?$allocator@UtagDROPITEM@@@0@U_Nonscalar_ptr_iterator_tag@0@@Z
_TEXT	SEGMENT PARA USE32 PUBLIC 'CODE'
_TEXT	ENDS
;	COMDAT ??$_Ptr_cat@PAUWORMON@@PAU1@@std@@YA?AU_Nonscalar_ptr_iterator_tag@0@AAPAUWORMON@@0@Z
_TEXT	SEGMENT PARA USE32 PUBLIC 'CODE'
_TEXT	ENDS
;	COMDAT ??$_Destroy_range@UWORMON@@V?$allocator@UWORMON@@@std@@@std@@YAXPAUWORMON@@0AAV?$allocator@UWORMON@@@0@U_Nonscalar_ptr_iterator_tag@0@@Z
_TEXT	SEGMENT PARA USE32 PUBLIC 'CODE'
_TEXT	ENDS
;	COMDAT ??$_Ptr_cat@PAU__ITEMGAME@CMiniGame@@PAU12@@std@@YA?AU_Nonscalar_ptr_iterator_tag@0@AAPAU__ITEMGAME@CMiniGame@@0@Z
_TEXT	SEGMENT PARA USE32 PUBLIC 'CODE'
_TEXT	ENDS
;	COMDAT ??$_Destroy_range@U__ITEMGAME@CMiniGame@@V?$allocator@U__ITEMGAME@CMiniGame@@@std@@@std@@YAXPAU__ITEMGAME@CMiniGame@@0AAV?$allocator@U__ITEMGAME@CMiniGame@@@0@U_Nonscalar_ptr_iterator_tag@0@@Z
_TEXT	SEGMENT PARA USE32 PUBLIC 'CODE'
_TEXT	ENDS
;	COMDAT ??$_Destroy_range@KV?$allocator@K@std@@@std@@YAXPAK0AAV?$allocator@K@0@U_Scalar_ptr_iterator_tag@0@@Z
_TEXT	SEGMENT PARA USE32 PUBLIC 'CODE'
_TEXT	ENDS
;	COMDAT ??$_Destroy_range@HV?$allocator@H@std@@@std@@YAXPAH0AAV?$allocator@H@0@U_Scalar_ptr_iterator_tag@0@@Z
_TEXT	SEGMENT PARA USE32 PUBLIC 'CODE'
_TEXT	ENDS
;	COMDAT ??$_Ptr_cat@PAU__ITEM@CExchange@@PAU12@@std@@YA?AU_Nonscalar_ptr_iterator_tag@0@AAPAU__ITEM@CExchange@@0@Z
_TEXT	SEGMENT PARA USE32 PUBLIC 'CODE'
_TEXT	ENDS
;	COMDAT ??$_Destroy_range@U__ITEM@CExchange@@V?$allocator@U__ITEM@CExchange@@@std@@@std@@YAXPAU__ITEM@CExchange@@0AAV?$allocator@U__ITEM@CExchange@@@0@U_Nonscalar_ptr_iterator_tag@0@@Z
_TEXT	SEGMENT PARA USE32 PUBLIC 'CODE'
_TEXT	ENDS
;	COMDAT ??$_Ptr_cat@PAU__POINT@CExchange@@PAU12@@std@@YA?AU_Nonscalar_ptr_iterator_tag@0@AAPAU__POINT@CExchange@@0@Z
_TEXT	SEGMENT PARA USE32 PUBLIC 'CODE'
_TEXT	ENDS
;	COMDAT ??$_Destroy_range@U__POINT@CExchange@@V?$allocator@U__POINT@CExchange@@@std@@@std@@YAXPAU__POINT@CExchange@@0AAV?$allocator@U__POINT@CExchange@@@0@U_Nonscalar_ptr_iterator_tag@0@@Z
_TEXT	SEGMENT PARA USE32 PUBLIC 'CODE'
_TEXT	ENDS
;	COMDAT ??$_Destroy_range@EV?$allocator@E@std@@@std@@YAXPAE0AAV?$allocator@E@0@U_Scalar_ptr_iterator_tag@0@@Z
_TEXT	SEGMENT PARA USE32 PUBLIC 'CODE'
_TEXT	ENDS
;	COMDAT ??$_Uninitialized_copy@PAU__SPAWNREGION@CEventLua@@PAU12@V?$allocator@U__SPAWNREGION@CEventLua@@@std@@@std@@YAPAU__SPAWNREGION@CEventLua@@PAU12@00AAV?$allocator@U__SPAWNREGION@CEventLua@@@0@@Z
_TEXT	SEGMENT PARA USE32 PUBLIC 'CODE'
_TEXT	ENDS
;	COMDAT ??$_Copy_backward_opt@PAU__SPAWNREGION@CEventLua@@PAU12@@std@@YAPAU__SPAWNREGION@CEventLua@@PAU12@00U_Nonscalar_ptr_iterator_tag@0@@Z
_TEXT	SEGMENT PARA USE32 PUBLIC 'CODE'
_TEXT	ENDS
;	COMDAT ??$_Ptr_cat@PAUD3DXVECTOR3@@PAU1@@std@@YA?AU_Nonscalar_ptr_iterator_tag@0@AAPAUD3DXVECTOR3@@0@Z
_TEXT	SEGMENT PARA USE32 PUBLIC 'CODE'
_TEXT	ENDS
;	COMDAT ??$_Destroy_range@UD3DXVECTOR3@@V?$allocator@UD3DXVECTOR3@@@std@@@std@@YAXPAUD3DXVECTOR3@@0AAV?$allocator@UD3DXVECTOR3@@@0@U_Nonscalar_ptr_iterator_tag@0@@Z
_TEXT	SEGMENT PARA USE32 PUBLIC 'CODE'
_TEXT	ENDS
;	COMDAT ??$_Ptr_cat@PAU_GIFTBOX@@PAU1@@std@@YA?AU_Nonscalar_ptr_iterator_tag@0@AAPAU_GIFTBOX@@0@Z
_TEXT	SEGMENT PARA USE32 PUBLIC 'CODE'
_TEXT	ENDS
;	COMDAT ??$_Destroy_range@U_GIFTBOX@@V?$allocator@U_GIFTBOX@@@std@@@std@@YAXPAU_GIFTBOX@@0AAV?$allocator@U_GIFTBOX@@@0@U_Nonscalar_ptr_iterator_tag@0@@Z
_TEXT	SEGMENT PARA USE32 PUBLIC 'CODE'
_TEXT	ENDS
;	COMDAT ??$_Destroy_range@JV?$allocator@J@std@@@std@@YAXPAJ0AAV?$allocator@J@0@U_Scalar_ptr_iterator_tag@0@@Z
_TEXT	SEGMENT PARA USE32 PUBLIC 'CODE'
_TEXT	ENDS
;	COMDAT ??$_Uninit_fill_n@JIJ@std@@YAXPAJIABJAAV?$allocator@J@0@U_Scalar_ptr_iterator_tag@0@@Z
_TEXT	SEGMENT PARA USE32 PUBLIC 'CODE'
_TEXT	ENDS
;	COMDAT ??$_Destroy_range@U__SPAWNREGION@CEventLua@@V?$allocator@U__SPAWNREGION@CEventLua@@@std@@@std@@YAXPAU__SPAWNREGION@CEventLua@@0AAV?$allocator@U__SPAWNREGION@CEventLua@@@0@U_Nonscalar_ptr_iterator_tag@0@@Z
_TEXT	SEGMENT PARA USE32 PUBLIC 'CODE'
_TEXT	ENDS
;	COMDAT ??$make_pair@KPAVCGuildHouseBase@@@std@@YA?AU?$pair@KPAVCGuildHouseBase@@@0@KPAVCGuildHouseBase@@@Z
_TEXT	SEGMENT PARA USE32 PUBLIC 'CODE'
_TEXT	ENDS
;	COMDAT ??$?0KPAVCGuildHouseBase@@@?$pair@$$CBKPAVCGuildHouseBase@@@std@@QAE@ABU?$pair@KPAVCGuildHouseBase@@@1@@Z
_TEXT	SEGMENT PARA USE32 PUBLIC 'CODE'
_TEXT	ENDS
;	COMDAT ??$_Distance@Viterator@?$_Tree@V?$_Tmap_traits@KU_Friend@@U?$less@K@std@@V?$allocator@U?$pair@$$CBKU_Friend@@@std@@@3@$0A@@std@@@std@@I@std@@YAXViterator@?$_Tree@V?$_Tmap_traits@KU_Friend@@U?$less@K@std@@V?$allocator@U?$pair@$$CBKU_Friend@@@std@@@3@$0A@@std@@@0@0AAI@Z
_TEXT	SEGMENT PARA USE32 PUBLIC 'CODE'
_TEXT	ENDS
;	COMDAT ??$_Distance@Viterator@?$_Tree@V?$_Tmap_traits@KKU?$less@K@std@@V?$allocator@U?$pair@$$CBKK@std@@@2@$0A@@std@@@std@@I@std@@YAXViterator@?$_Tree@V?$_Tmap_traits@KKU?$less@K@std@@V?$allocator@U?$pair@$$CBKK@std@@@2@$0A@@std@@@0@0AAI@Z
_TEXT	SEGMENT PARA USE32 PUBLIC 'CODE'
_TEXT	ENDS
;	COMDAT ??$_Destroy@U_Node@?$_List_nod@PAU__JOINPLAYER@CGuildCombat@@V?$allocator@PAU__JOINPLAYER@CGuildCombat@@@std@@@std@@@std@@YAXPAU_Node@?$_List_nod@PAU__JOINPLAYER@CGuildCombat@@V?$allocator@PAU__JOINPLAYER@CGuildCombat@@@std@@@0@@Z
_TEXT	SEGMENT PARA USE32 PUBLIC 'CODE'
_TEXT	ENDS
;	COMDAT ??$_Uninitialized_fill_n@PAV?$basic_string@DU?$char_traits@D@std@@V?$allocator@D@2@@std@@IV12@V?$allocator@V?$basic_string@DU?$char_traits@D@std@@V?$allocator@D@2@@std@@@2@@std@@YAXPAV?$basic_string@DU?$char_traits@D@std@@V?$allocator@D@2@@0@IABV10@AAV?$allocator@V?$basic_string@DU?$char_traits@D@std@@V?$allocator@D@2@@std@@@0@@Z
_TEXT	SEGMENT PARA USE32 PUBLIC 'CODE'
_TEXT	ENDS
;	COMDAT ??$_Uninitialized_fill_n@PAUMINIGMAME_PRIZE_LIST@CRainbowRaceMng@@IU12@V?$allocator@UMINIGMAME_PRIZE_LIST@CRainbowRaceMng@@@std@@@std@@YAXPAUMINIGMAME_PRIZE_LIST@CRainbowRaceMng@@IABU12@AAV?$allocator@UMINIGMAME_PRIZE_LIST@CRainbowRaceMng@@@0@@Z
_TEXT	SEGMENT PARA USE32 PUBLIC 'CODE'
_TEXT	ENDS
;	COMDAT ??$_Allocate@V?$basic_string@DU?$char_traits@D@std@@V?$allocator@D@2@@std@@@std@@YAPAV?$basic_string@DU?$char_traits@D@std@@V?$allocator@D@2@@0@IPAV10@@Z
_TEXT	SEGMENT PARA USE32 PUBLIC 'CODE'
_TEXT	ENDS
;	COMDAT ??$?0PAUtagACTMSG@@@?$allocator@PAPAUtagACTMSG@@@std@@QAE@ABV?$allocator@PAUtagACTMSG@@@1@@Z
_TEXT	SEGMENT PARA USE32 PUBLIC 'CODE'
_TEXT	ENDS
;	COMDAT ??$_Destroy@PAPAUtagACTMSG@@@std@@YAXPAPAPAUtagACTMSG@@@Z
_TEXT	SEGMENT PARA USE32 PUBLIC 'CODE'
_TEXT	ENDS
;	COMDAT ??$?0PAUtagMAGICATKMSG@@@?$allocator@PAPAUtagMAGICATKMSG@@@std@@QAE@ABV?$allocator@PAUtagMAGICATKMSG@@@1@@Z
_TEXT	SEGMENT PARA USE32 PUBLIC 'CODE'
_TEXT	ENDS
;	COMDAT ??$_Destroy@PAPAUtagMAGICATKMSG@@@std@@YAXPAPAPAUtagMAGICATKMSG@@@Z
_TEXT	SEGMENT PARA USE32 PUBLIC 'CODE'
_TEXT	ENDS
;	COMDAT ??$_Destroy_range@PAU__JOINPLAYER@CGuildCombat@@V?$allocator@PAU__JOINPLAYER@CGuildCombat@@@std@@@std@@YAXPAPAU__JOINPLAYER@CGuildCombat@@0AAV?$allocator@PAU__JOINPLAYER@CGuildCombat@@@0@@Z
_TEXT	SEGMENT PARA USE32 PUBLIC 'CODE'
_TEXT	ENDS
;	COMDAT ??$_Destroy_range@U__SECRETROOM_MONSTER@@V?$allocator@U__SECRETROOM_MONSTER@@@std@@@std@@YAXPAU__SECRETROOM_MONSTER@@0AAV?$allocator@U__SECRETROOM_MONSTER@@@0@@Z
_TEXT	SEGMENT PARA USE32 PUBLIC 'CODE'
_TEXT	ENDS
;	COMDAT ??$_Allocate@U__SECRETROOM_MONSTER@@@std@@YAPAU__SECRETROOM_MONSTER@@IPAU1@@Z
_TEXT	SEGMENT PARA USE32 PUBLIC 'CODE'
_TEXT	ENDS
;	COMDAT ??$_Destroy_range@V?$basic_string@DU?$char_traits@D@std@@V?$allocator@D@2@@std@@V?$allocator@V?$basic_string@DU?$char_traits@D@std@@V?$allocator@D@2@@std@@@2@@std@@YAXPAV?$basic_string@DU?$char_traits@D@std@@V?$allocator@D@2@@0@0AAV?$allocator@V?$basic_string@DU?$char_traits@D@std@@V?$allocator@D@2@@std@@@0@@Z
_TEXT	SEGMENT PARA USE32 PUBLIC 'CODE'
_TEXT	ENDS
;	COMDAT ??$_Ucopy@PAV?$basic_string@DU?$char_traits@D@std@@V?$allocator@D@2@@std@@@?$vector@V?$basic_string@DU?$char_traits@D@std@@V?$allocator@D@2@@std@@V?$allocator@V?$basic_string@DU?$char_traits@D@std@@V?$allocator@D@2@@std@@@2@@std@@IAEPAV?$basic_string@DU?$char_traits@D@std@@V?$allocator@D@2@@1@PAV21@00@Z
_TEXT	SEGMENT PARA USE32 PUBLIC 'CODE'
_TEXT	ENDS
;	COMDAT ??$fill@PAV?$basic_string@DU?$char_traits@D@std@@V?$allocator@D@2@@std@@V12@@std@@YAXPAV?$basic_string@DU?$char_traits@D@std@@V?$allocator@D@2@@0@0ABV10@@Z
_TEXT	SEGMENT PARA USE32 PUBLIC 'CODE'
_TEXT	ENDS
;	COMDAT ??$copy_backward@PAV?$basic_string@DU?$char_traits@D@std@@V?$allocator@D@2@@std@@PAV12@@std@@YAPAV?$basic_string@DU?$char_traits@D@std@@V?$allocator@D@2@@0@PAV10@00@Z
_TEXT	SEGMENT PARA USE32 PUBLIC 'CODE'
_TEXT	ENDS
;	COMDAT ??$_Ucopy@PAUMINIGMAME_PRIZE_LIST@CRainbowRaceMng@@@?$vector@UMINIGMAME_PRIZE_LIST@CRainbowRaceMng@@V?$allocator@UMINIGMAME_PRIZE_LIST@CRainbowRaceMng@@@std@@@std@@IAEPAUMINIGMAME_PRIZE_LIST@CRainbowRaceMng@@PAU23@00@Z
_TEXT	SEGMENT PARA USE32 PUBLIC 'CODE'
_TEXT	ENDS
;	COMDAT ??$fill@PAUMINIGMAME_PRIZE_LIST@CRainbowRaceMng@@U12@@std@@YAXPAUMINIGMAME_PRIZE_LIST@CRainbowRaceMng@@0ABU12@@Z
_TEXT	SEGMENT PARA USE32 PUBLIC 'CODE'
_TEXT	ENDS
;	COMDAT ??$copy_backward@PAUMINIGMAME_PRIZE_LIST@CRainbowRaceMng@@PAU12@@std@@YAPAUMINIGMAME_PRIZE_LIST@CRainbowRaceMng@@PAU12@00@Z
_TEXT	SEGMENT PARA USE32 PUBLIC 'CODE'
_TEXT	ENDS
;	COMDAT ??$_Destroy@PAUtagACTMSG@@@std@@YAXPAPAUtagACTMSG@@@Z
_TEXT	SEGMENT PARA USE32 PUBLIC 'CODE'
_TEXT	ENDS
;	COMDAT ??$_Destroy@PAUtagMAGICATKMSG@@@std@@YAXPAPAUtagMAGICATKMSG@@@Z
_TEXT	SEGMENT PARA USE32 PUBLIC 'CODE'
_TEXT	ENDS
;	COMDAT ??$_Destroy@U_Node@?$_Tree_nod@V?$_Tmap_traits@KU_Friend@@U?$less@K@std@@V?$allocator@U?$pair@$$CBKU_Friend@@@std@@@3@$0A@@std@@@std@@@std@@YAXPAU_Node@?$_Tree_nod@V?$_Tmap_traits@KU_Friend@@U?$less@K@std@@V?$allocator@U?$pair@$$CBKU_Friend@@@std@@@3@$0A@@std@@@0@@Z
_TEXT	SEGMENT PARA USE32 PUBLIC 'CODE'
_TEXT	ENDS
;	COMDAT ??$_Destroy_range@UMINIGMAME_PRIZE_LIST@CRainbowRaceMng@@V?$allocator@UMINIGMAME_PRIZE_LIST@CRainbowRaceMng@@@std@@@std@@YAXPAUMINIGMAME_PRIZE_LIST@CRainbowRaceMng@@0AAV?$allocator@UMINIGMAME_PRIZE_LIST@CRainbowRaceMng@@@0@@Z
_TEXT	SEGMENT PARA USE32 PUBLIC 'CODE'
_TEXT	ENDS
;	COMDAT ??$_Allocate@UMINIGMAME_PRIZE_LIST@CRainbowRaceMng@@@std@@YAPAUMINIGMAME_PRIZE_LIST@CRainbowRaceMng@@IPAU12@@Z
_TEXT	SEGMENT PARA USE32 PUBLIC 'CODE'
_TEXT	ENDS
;	COMDAT ??$_Allocate@U_Node@?$_Tree_nod@V?$_Tmap_traits@KPAVCGuildHouseBase@@U?$less@K@std@@V?$allocator@U?$pair@$$CBKPAVCGuildHouseBase@@@std@@@3@$0A@@std@@@std@@@std@@YAPAU_Node@?$_Tree_nod@V?$_Tmap_traits@KPAVCGuildHouseBase@@U?$less@K@std@@V?$allocator@U?$pair@$$CBKPAVCGuildHouseBase@@@std@@@3@$0A@@std@@@0@IPAU120@@Z
_TEXT	SEGMENT PARA USE32 PUBLIC 'CODE'
_TEXT	ENDS
;	COMDAT ??$_Destroy@U_Node@?$_Tree_nod@V?$_Tmap_traits@KKU?$less@K@std@@V?$allocator@U?$pair@$$CBKK@std@@@2@$0A@@std@@@std@@@std@@YAXPAU_Node@?$_Tree_nod@V?$_Tmap_traits@KKU?$less@K@std@@V?$allocator@U?$pair@$$CBKK@std@@@2@$0A@@std@@@0@@Z
_TEXT	SEGMENT PARA USE32 PUBLIC 'CODE'
_TEXT	ENDS
;	COMDAT ?destroy@?$allocator@UtagDROPITEM@@@std@@QAEXPAUtagDROPITEM@@@Z
_TEXT	SEGMENT PARA USE32 PUBLIC 'CODE'
_TEXT	ENDS
;	COMDAT ?destroy@?$allocator@UWORMON@@@std@@QAEXPAUWORMON@@@Z
_TEXT	SEGMENT PARA USE32 PUBLIC 'CODE'
_TEXT	ENDS
;	COMDAT ?destroy@?$allocator@U__ITEMGAME@CMiniGame@@@std@@QAEXPAU__ITEMGAME@CMiniGame@@@Z
_TEXT	SEGMENT PARA USE32 PUBLIC 'CODE'
_TEXT	ENDS
;	COMDAT ?destroy@?$allocator@U__ITEM@CExchange@@@std@@QAEXPAU__ITEM@CExchange@@@Z
_TEXT	SEGMENT PARA USE32 PUBLIC 'CODE'
_TEXT	ENDS
;	COMDAT ?destroy@?$allocator@U__POINT@CExchange@@@std@@QAEXPAU__POINT@CExchange@@@Z
_TEXT	SEGMENT PARA USE32 PUBLIC 'CODE'
_TEXT	ENDS
;	COMDAT ?begin@?$vector@EV?$allocator@E@std@@@std@@QAE?AViterator@12@XZ
_TEXT	SEGMENT PARA USE32 PUBLIC 'CODE'
_TEXT	ENDS
;	COMDAT ?end@?$vector@EV?$allocator@E@std@@@std@@QAE?AViterator@12@XZ
_TEXT	SEGMENT PARA USE32 PUBLIC 'CODE'
_TEXT	ENDS
;	COMDAT ?erase@?$vector@EV?$allocator@E@std@@@std@@QAE?AViterator@12@V312@0@Z
_TEXT	SEGMENT PARA USE32 PUBLIC 'CODE'
_TEXT	ENDS
;	COMDAT ?construct@?$allocator@U__SPAWNREGION@CEventLua@@@std@@QAEXPAU__SPAWNREGION@CEventLua@@ABU34@@Z
_TEXT	SEGMENT PARA USE32 PUBLIC 'CODE'
_TEXT	ENDS
;	COMDAT ?destroy@?$allocator@U__SPAWNREGION@CEventLua@@@std@@QAEXPAU__SPAWNREGION@CEventLua@@@Z
_TEXT	SEGMENT PARA USE32 PUBLIC 'CODE'
_TEXT	ENDS
;	COMDAT ?destroy@?$allocator@UD3DXVECTOR3@@@std@@QAEXPAUD3DXVECTOR3@@@Z
_TEXT	SEGMENT PARA USE32 PUBLIC 'CODE'
_TEXT	ENDS
;	COMDAT ?destroy@?$allocator@U_GIFTBOX@@@std@@QAEXPAU_GIFTBOX@@@Z
_TEXT	SEGMENT PARA USE32 PUBLIC 'CODE'
_TEXT	ENDS
;	COMDAT ??0?$pair@KPAVCGuildHouseBase@@@std@@QAE@ABKABQAVCGuildHouseBase@@@Z
_TEXT	SEGMENT PARA USE32 PUBLIC 'CODE'
_TEXT	ENDS
;	COMDAT ??9const_iterator@?$vector@EV?$allocator@E@std@@@std@@QBE_NABV012@@Z
_TEXT	SEGMENT PARA USE32 PUBLIC 'CODE'
_TEXT	ENDS
;	COMDAT ??0iterator@?$vector@EV?$allocator@E@std@@@std@@QAE@PAE@Z
_TEXT	SEGMENT PARA USE32 PUBLIC 'CODE'
_TEXT	ENDS
;	COMDAT ??8const_iterator@?$vector@EV?$allocator@E@std@@@std@@QBE_NABV012@@Z
_TEXT	SEGMENT PARA USE32 PUBLIC 'CODE'
_TEXT	ENDS
;	COMDAT ??$insert@Vconst_iterator@?$vector@EV?$allocator@E@std@@@std@@@?$vector@EV?$allocator@E@std@@@std@@QAEXViterator@01@Vconst_iterator@01@1@Z
_TEXT	SEGMENT PARA USE32 PUBLIC 'CODE'
_TEXT	ENDS
;	COMDAT ??$_Ptr_cat@Vconst_iterator@?$vector@EV?$allocator@E@std@@@std@@PAE@std@@YA?AU_Nonscalar_ptr_iterator_tag@0@AAVconst_iterator@?$vector@EV?$allocator@E@std@@@0@AAPAE@Z
_TEXT	SEGMENT PARA USE32 PUBLIC 'CODE'
_TEXT	ENDS
;	COMDAT ??$_Uninit_copy@Vconst_iterator@?$vector@EV?$allocator@E@std@@@std@@PAEV?$allocator@E@3@@std@@YAPAEVconst_iterator@?$vector@EV?$allocator@E@std@@@0@0PAEAAV?$allocator@E@0@U_Nonscalar_ptr_iterator_tag@0@@Z
_TEXT	SEGMENT PARA USE32 PUBLIC 'CODE'
_TEXT	ENDS
;	COMDAT ??$_Uninit_copy@JJ@std@@YAPAJPAJ00AAV?$allocator@J@0@U_Scalar_ptr_iterator_tag@0@@Z
_TEXT	SEGMENT PARA USE32 PUBLIC 'CODE'
_TEXT	ENDS
;	COMDAT ??$_Uninit_copy@PAU__SPAWNREGION@CEventLua@@PAU12@V?$allocator@U__SPAWNREGION@CEventLua@@@std@@@std@@YAPAU__SPAWNREGION@CEventLua@@PAU12@00AAV?$allocator@U__SPAWNREGION@CEventLua@@@0@U_Nonscalar_ptr_iterator_tag@0@@Z
_TEXT	SEGMENT PARA USE32 PUBLIC 'CODE'
_TEXT	ENDS
;	COMDAT ??$fill_n@PAJIJ@std@@YAXPAJIABJ@Z
_TEXT	SEGMENT PARA USE32 PUBLIC 'CODE'
_TEXT	ENDS
;	COMDAT ??$_Iter_cat@Viterator@?$_Tree@V?$_Tmap_traits@KU_Friend@@U?$less@K@std@@V?$allocator@U?$pair@$$CBKU_Friend@@@std@@@3@$0A@@std@@@std@@@std@@YA?AUbidirectional_iterator_tag@0@ABViterator@?$_Tree@V?$_Tmap_traits@KU_Friend@@U?$less@K@std@@V?$allocator@U?$pair@$$CBKU_Friend@@@std@@@3@$0A@@std@@@0@@Z
_TEXT	SEGMENT PARA USE32 PUBLIC 'CODE'
_TEXT	ENDS
;	COMDAT ??$_Distance2@Viterator@?$_Tree@V?$_Tmap_traits@KU_Friend@@U?$less@K@std@@V?$allocator@U?$pair@$$CBKU_Friend@@@std@@@3@$0A@@std@@@std@@I@std@@YAXViterator@?$_Tree@V?$_Tmap_traits@KU_Friend@@U?$less@K@std@@V?$allocator@U?$pair@$$CBKU_Friend@@@std@@@3@$0A@@std@@@0@0AAIUbidirectional_iterator_tag@0@@Z
_TEXT	SEGMENT PARA USE32 PUBLIC 'CODE'
_TEXT	ENDS
;	COMDAT ??$_Iter_cat@Viterator@?$_Tree@V?$_Tmap_traits@KKU?$less@K@std@@V?$allocator@U?$pair@$$CBKK@std@@@2@$0A@@std@@@std@@@std@@YA?AUbidirectional_iterator_tag@0@ABViterator@?$_Tree@V?$_Tmap_traits@KKU?$less@K@std@@V?$allocator@U?$pair@$$CBKK@std@@@2@$0A@@std@@@0@@Z
_TEXT	SEGMENT PARA USE32 PUBLIC 'CODE'
_TEXT	ENDS
;	COMDAT ??$_Distance2@Viterator@?$_Tree@V?$_Tmap_traits@KKU?$less@K@std@@V?$allocator@U?$pair@$$CBKK@std@@@2@$0A@@std@@@std@@I@std@@YAXViterator@?$_Tree@V?$_Tmap_traits@KKU?$less@K@std@@V?$allocator@U?$pair@$$CBKK@std@@@2@$0A@@std@@@0@0AAIUbidirectional_iterator_tag@0@@Z
_TEXT	SEGMENT PARA USE32 PUBLIC 'CODE'
_TEXT	ENDS
;	COMDAT ??$_Ptr_cat@PAV?$basic_string@DU?$char_traits@D@std@@V?$allocator@D@2@@std@@PAV12@@std@@YA?AU_Nonscalar_ptr_iterator_tag@0@AAPAV?$basic_string@DU?$char_traits@D@std@@V?$allocator@D@2@@0@0@Z
_TEXT	SEGMENT PARA USE32 PUBLIC 'CODE'
_TEXT	ENDS
;	COMDAT ??$_Uninit_fill_n@PAV?$basic_string@DU?$char_traits@D@std@@V?$allocator@D@2@@std@@IV12@V?$allocator@V?$basic_string@DU?$char_traits@D@std@@V?$allocator@D@2@@std@@@2@@std@@YAXPAV?$basic_string@DU?$char_traits@D@std@@V?$allocator@D@2@@0@IABV10@AAV?$allocator@V?$basic_string@DU?$char_traits@D@std@@V?$allocator@D@2@@std@@@0@U_Nonscalar_ptr_iterator_tag@0@@Z
_TEXT	SEGMENT PARA USE32 PUBLIC 'CODE'
_TEXT	ENDS
;	COMDAT ??$_Ptr_cat@PAUMINIGMAME_PRIZE_LIST@CRainbowRaceMng@@PAU12@@std@@YA?AU_Nonscalar_ptr_iterator_tag@0@AAPAUMINIGMAME_PRIZE_LIST@CRainbowRaceMng@@0@Z
_TEXT	SEGMENT PARA USE32 PUBLIC 'CODE'
_TEXT	ENDS
;	COMDAT ??$_Uninit_fill_n@PAUMINIGMAME_PRIZE_LIST@CRainbowRaceMng@@IU12@V?$allocator@UMINIGMAME_PRIZE_LIST@CRainbowRaceMng@@@std@@@std@@YAXPAUMINIGMAME_PRIZE_LIST@CRainbowRaceMng@@IABU12@AAV?$allocator@UMINIGMAME_PRIZE_LIST@CRainbowRaceMng@@@0@U_Nonscalar_ptr_iterator_tag@0@@Z
_TEXT	SEGMENT PARA USE32 PUBLIC 'CODE'
_TEXT	ENDS
;	COMDAT ??$_Ptr_cat@U__JOINPLAYER@CGuildCombat@@@std@@YA?AU_Scalar_ptr_iterator_tag@0@PAPAU__JOINPLAYER@CGuildCombat@@0@Z
_TEXT	SEGMENT PARA USE32 PUBLIC 'CODE'
_TEXT	ENDS
;	COMDAT ??$_Destroy_range@PAU__JOINPLAYER@CGuildCombat@@V?$allocator@PAU__JOINPLAYER@CGuildCombat@@@std@@@std@@YAXPAPAU__JOINPLAYER@CGuildCombat@@0AAV?$allocator@PAU__JOINPLAYER@CGuildCombat@@@0@U_Scalar_ptr_iterator_tag@0@@Z
_TEXT	SEGMENT PARA USE32 PUBLIC 'CODE'
_TEXT	ENDS
;	COMDAT ??$_Ptr_cat@PAU__SECRETROOM_MONSTER@@PAU1@@std@@YA?AU_Nonscalar_ptr_iterator_tag@0@AAPAU__SECRETROOM_MONSTER@@0@Z
_TEXT	SEGMENT PARA USE32 PUBLIC 'CODE'
_TEXT	ENDS
;	COMDAT ??$_Destroy_range@U__SECRETROOM_MONSTER@@V?$allocator@U__SECRETROOM_MONSTER@@@std@@@std@@YAXPAU__SECRETROOM_MONSTER@@0AAV?$allocator@U__SECRETROOM_MONSTER@@@0@U_Nonscalar_ptr_iterator_tag@0@@Z
_TEXT	SEGMENT PARA USE32 PUBLIC 'CODE'
_TEXT	ENDS
;	COMDAT ??$_Destroy_range@V?$basic_string@DU?$char_traits@D@std@@V?$allocator@D@2@@std@@V?$allocator@V?$basic_string@DU?$char_traits@D@std@@V?$allocator@D@2@@std@@@2@@std@@YAXPAV?$basic_string@DU?$char_traits@D@std@@V?$allocator@D@2@@0@0AAV?$allocator@V?$basic_string@DU?$char_traits@D@std@@V?$allocator@D@2@@std@@@0@U_Nonscalar_ptr_iterator_tag@0@@Z
_TEXT	SEGMENT PARA USE32 PUBLIC 'CODE'
_TEXT	ENDS
;	COMDAT ??$_Uninitialized_copy@PAV?$basic_string@DU?$char_traits@D@std@@V?$allocator@D@2@@std@@PAV12@V?$allocator@V?$basic_string@DU?$char_traits@D@std@@V?$allocator@D@2@@std@@@2@@std@@YAPAV?$basic_string@DU?$char_traits@D@std@@V?$allocator@D@2@@0@PAV10@00AAV?$allocator@V?$basic_string@DU?$char_traits@D@std@@V?$allocator@D@2@@std@@@0@@Z
_TEXT	SEGMENT PARA USE32 PUBLIC 'CODE'
_TEXT	ENDS
;	COMDAT ??$_Copy_backward_opt@PAV?$basic_string@DU?$char_traits@D@std@@V?$allocator@D@2@@std@@PAV12@@std@@YAPAV?$basic_string@DU?$char_traits@D@std@@V?$allocator@D@2@@0@PAV10@00U_Nonscalar_ptr_iterator_tag@0@@Z
_TEXT	SEGMENT PARA USE32 PUBLIC 'CODE'
_TEXT	ENDS
;	COMDAT ??$_Uninitialized_copy@PAUMINIGMAME_PRIZE_LIST@CRainbowRaceMng@@PAU12@V?$allocator@UMINIGMAME_PRIZE_LIST@CRainbowRaceMng@@@std@@@std@@YAPAUMINIGMAME_PRIZE_LIST@CRainbowRaceMng@@PAU12@00AAV?$allocator@UMINIGMAME_PRIZE_LIST@CRainbowRaceMng@@@0@@Z
_TEXT	SEGMENT PARA USE32 PUBLIC 'CODE'
_TEXT	ENDS
;	COMDAT ??$_Copy_backward_opt@PAUMINIGMAME_PRIZE_LIST@CRainbowRaceMng@@PAU12@@std@@YAPAUMINIGMAME_PRIZE_LIST@CRainbowRaceMng@@PAU12@00U_Nonscalar_ptr_iterator_tag@0@@Z
_TEXT	SEGMENT PARA USE32 PUBLIC 'CODE'
_TEXT	ENDS
;	COMDAT ??$_Destroy_range@UMINIGMAME_PRIZE_LIST@CRainbowRaceMng@@V?$allocator@UMINIGMAME_PRIZE_LIST@CRainbowRaceMng@@@std@@@std@@YAXPAUMINIGMAME_PRIZE_LIST@CRainbowRaceMng@@0AAV?$allocator@UMINIGMAME_PRIZE_LIST@CRainbowRaceMng@@@0@U_Nonscalar_ptr_iterator_tag@0@@Z
_TEXT	SEGMENT PARA USE32 PUBLIC 'CODE'
_TEXT	ENDS
;	COMDAT ??$_Destroy@UtagDROPITEM@@@std@@YAXPAUtagDROPITEM@@@Z
_TEXT	SEGMENT PARA USE32 PUBLIC 'CODE'
_TEXT	ENDS
;	COMDAT ??$_Destroy@UWORMON@@@std@@YAXPAUWORMON@@@Z
_TEXT	SEGMENT PARA USE32 PUBLIC 'CODE'
_TEXT	ENDS
;	COMDAT ??$_Destroy@U__ITEMGAME@CMiniGame@@@std@@YAXPAU__ITEMGAME@CMiniGame@@@Z
_TEXT	SEGMENT PARA USE32 PUBLIC 'CODE'
_TEXT	ENDS
;	COMDAT ??$_Destroy@U__ITEM@CExchange@@@std@@YAXPAU__ITEM@CExchange@@@Z
_TEXT	SEGMENT PARA USE32 PUBLIC 'CODE'
_TEXT	ENDS
;	COMDAT ??$_Destroy@U__POINT@CExchange@@@std@@YAXPAU__POINT@CExchange@@@Z
_TEXT	SEGMENT PARA USE32 PUBLIC 'CODE'
_TEXT	ENDS
;	COMDAT ??$copy@PAEPAE@std@@YAPAEPAE00@Z
_TEXT	SEGMENT PARA USE32 PUBLIC 'CODE'
_TEXT	ENDS
;	COMDAT ??$_Construct@U__SPAWNREGION@CEventLua@@U12@@std@@YAXPAU__SPAWNREGION@CEventLua@@ABU12@@Z
_TEXT	SEGMENT PARA USE32 PUBLIC 'CODE'
_TEXT	ENDS
;	COMDAT ??$_Destroy@U__SPAWNREGION@CEventLua@@@std@@YAXPAU__SPAWNREGION@CEventLua@@@Z
_TEXT	SEGMENT PARA USE32 PUBLIC 'CODE'
_TEXT	ENDS
;	COMDAT ??$_Destroy@UD3DXVECTOR3@@@std@@YAXPAUD3DXVECTOR3@@@Z
_TEXT	SEGMENT PARA USE32 PUBLIC 'CODE'
_TEXT	ENDS
;	COMDAT ??$_Destroy@U_GIFTBOX@@@std@@YAXPAU_GIFTBOX@@@Z
_TEXT	SEGMENT PARA USE32 PUBLIC 'CODE'
_TEXT	ENDS
;	COMDAT ?construct@?$allocator@V?$basic_string@DU?$char_traits@D@std@@V?$allocator@D@2@@std@@@std@@QAEXPAV?$basic_string@DU?$char_traits@D@std@@V?$allocator@D@2@@2@ABV32@@Z
_TEXT	SEGMENT PARA USE32 PUBLIC 'CODE'
_TEXT	ENDS
;	COMDAT ?destroy@?$allocator@V?$basic_string@DU?$char_traits@D@std@@V?$allocator@D@2@@std@@@std@@QAEXPAV?$basic_string@DU?$char_traits@D@std@@V?$allocator@D@2@@2@@Z
_TEXT	SEGMENT PARA USE32 PUBLIC 'CODE'
_TEXT	ENDS
;	COMDAT ?construct@?$allocator@E@std@@QAEXPAEABE@Z
_TEXT	SEGMENT PARA USE32 PUBLIC 'CODE'
_TEXT	ENDS
;	COMDAT ?destroy@?$allocator@E@std@@QAEXPAE@Z
_TEXT	SEGMENT PARA USE32 PUBLIC 'CODE'
_TEXT	ENDS
;	COMDAT ??Dconst_iterator@?$vector@EV?$allocator@E@std@@@std@@QBEABEXZ
_TEXT	SEGMENT PARA USE32 PUBLIC 'CODE'
_TEXT	ENDS
;	COMDAT ??Econst_iterator@?$vector@EV?$allocator@E@std@@@std@@QAEAAV012@XZ
_TEXT	SEGMENT PARA USE32 PUBLIC 'CODE'
_TEXT	ENDS
;	COMDAT ?destroy@?$allocator@U__SECRETROOM_MONSTER@@@std@@QAEXPAU__SECRETROOM_MONSTER@@@Z
_TEXT	SEGMENT PARA USE32 PUBLIC 'CODE'
_TEXT	ENDS
;	COMDAT ?construct@?$allocator@UMINIGMAME_PRIZE_LIST@CRainbowRaceMng@@@std@@QAEXPAUMINIGMAME_PRIZE_LIST@CRainbowRaceMng@@ABU34@@Z
_TEXT	SEGMENT PARA USE32 PUBLIC 'CODE'
_TEXT	ENDS
;	COMDAT ?destroy@?$allocator@UMINIGMAME_PRIZE_LIST@CRainbowRaceMng@@@std@@QAEXPAUMINIGMAME_PRIZE_LIST@CRainbowRaceMng@@@Z
_TEXT	SEGMENT PARA USE32 PUBLIC 'CODE'
_TEXT	ENDS
;	COMDAT ??$_Insert@Vconst_iterator@?$vector@EV?$allocator@E@std@@@std@@@?$vector@EV?$allocator@E@std@@@std@@QAEXViterator@01@Vconst_iterator@01@1Uforward_iterator_tag@1@@Z
_TEXT	SEGMENT PARA USE32 PUBLIC 'CODE'
_TEXT	ENDS
;	COMDAT ??$_Uninit_copy@PAV?$basic_string@DU?$char_traits@D@std@@V?$allocator@D@2@@std@@PAV12@V?$allocator@V?$basic_string@DU?$char_traits@D@std@@V?$allocator@D@2@@std@@@2@@std@@YAPAV?$basic_string@DU?$char_traits@D@std@@V?$allocator@D@2@@0@PAV10@00AAV?$allocator@V?$basic_string@DU?$char_traits@D@std@@V?$allocator@D@2@@std@@@0@U_Nonscalar_ptr_iterator_tag@0@@Z
_TEXT	SEGMENT PARA USE32 PUBLIC 'CODE'
_TEXT	ENDS
;	COMDAT ??$_Uninit_copy@PAUMINIGMAME_PRIZE_LIST@CRainbowRaceMng@@PAU12@V?$allocator@UMINIGMAME_PRIZE_LIST@CRainbowRaceMng@@@std@@@std@@YAPAUMINIGMAME_PRIZE_LIST@CRainbowRaceMng@@PAU12@00AAV?$allocator@UMINIGMAME_PRIZE_LIST@CRainbowRaceMng@@@0@U_Nonscalar_ptr_iterator_tag@0@@Z
_TEXT	SEGMENT PARA USE32 PUBLIC 'CODE'
_TEXT	ENDS
;	COMDAT ??$_Copy_opt@PAEPAE@std@@YAPAEPAE00U_Scalar_ptr_iterator_tag@0@@Z
_TEXT	SEGMENT PARA USE32 PUBLIC 'CODE'
_TEXT	ENDS
;	COMDAT ??$_Construct@V?$basic_string@DU?$char_traits@D@std@@V?$allocator@D@2@@std@@V12@@std@@YAXPAV?$basic_string@DU?$char_traits@D@std@@V?$allocator@D@2@@0@ABV10@@Z
_TEXT	SEGMENT PARA USE32 PUBLIC 'CODE'
_TEXT	ENDS
;	COMDAT ??$_Destroy@V?$basic_string@DU?$char_traits@D@std@@V?$allocator@D@2@@std@@@std@@YAXPAV?$basic_string@DU?$char_traits@D@std@@V?$allocator@D@2@@0@@Z
_TEXT	SEGMENT PARA USE32 PUBLIC 'CODE'
_TEXT	ENDS
;	COMDAT ??$_Construct@EE@std@@YAXPAEABE@Z
_TEXT	SEGMENT PARA USE32 PUBLIC 'CODE'
_TEXT	ENDS
;	COMDAT ??$_Destroy@E@std@@YAXPAE@Z
_TEXT	SEGMENT PARA USE32 PUBLIC 'CODE'
_TEXT	ENDS
;	COMDAT ??$_Destroy@U__SECRETROOM_MONSTER@@@std@@YAXPAU__SECRETROOM_MONSTER@@@Z
_TEXT	SEGMENT PARA USE32 PUBLIC 'CODE'
_TEXT	ENDS
;	COMDAT ??$_Construct@UMINIGMAME_PRIZE_LIST@CRainbowRaceMng@@U12@@std@@YAXPAUMINIGMAME_PRIZE_LIST@CRainbowRaceMng@@ABU12@@Z
_TEXT	SEGMENT PARA USE32 PUBLIC 'CODE'
_TEXT	ENDS
;	COMDAT ??$_Destroy@UMINIGMAME_PRIZE_LIST@CRainbowRaceMng@@@std@@YAXPAUMINIGMAME_PRIZE_LIST@CRainbowRaceMng@@@Z
_TEXT	SEGMENT PARA USE32 PUBLIC 'CODE'
_TEXT	ENDS
;	COMDAT ??_G?$basic_string@DU?$char_traits@D@std@@V?$allocator@D@2@@std@@QAEPAXI@Z
_TEXT	SEGMENT PARA USE32 PUBLIC 'CODE'
_TEXT	ENDS
;	COMDAT ?capacity@?$vector@EV?$allocator@E@std@@@std@@QBEIXZ
_TEXT	SEGMENT PARA USE32 PUBLIC 'CODE'
_TEXT	ENDS
;	COMDAT ??Giterator@?$vector@EV?$allocator@E@std@@@std@@QBEHABVconst_iterator@12@@Z
_TEXT	SEGMENT PARA USE32 PUBLIC 'CODE'
_TEXT	ENDS
;	COMDAT ??Gconst_iterator@?$vector@EV?$allocator@E@std@@@std@@QBEHABV012@@Z
_TEXT	SEGMENT PARA USE32 PUBLIC 'CODE'
_TEXT	ENDS
;	COMDAT ??$_Distance@Vconst_iterator@?$vector@EV?$allocator@E@std@@@std@@I@std@@YAXVconst_iterator@?$vector@EV?$allocator@E@std@@@0@0AAI@Z
_TEXT	SEGMENT PARA USE32 PUBLIC 'CODE'
_TEXT	ENDS
;	COMDAT ??$_Ucopy@PAE@?$vector@EV?$allocator@E@std@@@std@@IAEPAEPAE00@Z
_TEXT	SEGMENT PARA USE32 PUBLIC 'CODE'
_TEXT	ENDS
;	COMDAT ??$advance@Vconst_iterator@?$vector@EV?$allocator@E@std@@@std@@H@std@@YAXAAVconst_iterator@?$vector@EV?$allocator@E@std@@@0@H@Z
_TEXT	SEGMENT PARA USE32 PUBLIC 'CODE'
_TEXT	ENDS
;	COMDAT ??$copy@Vconst_iterator@?$vector@EV?$allocator@E@std@@@std@@PAE@std@@YAPAEVconst_iterator@?$vector@EV?$allocator@E@std@@@0@0PAE@Z
_TEXT	SEGMENT PARA USE32 PUBLIC 'CODE'
_TEXT	ENDS
;	COMDAT ??$copy_backward@PAEPAE@std@@YAPAEPAE00@Z
_TEXT	SEGMENT PARA USE32 PUBLIC 'CODE'
_TEXT	ENDS
;	COMDAT ??$_Distance2@Vconst_iterator@?$vector@EV?$allocator@E@std@@@std@@I@std@@YAXVconst_iterator@?$vector@EV?$allocator@E@std@@@0@0AAIUrandom_access_iterator_tag@0@@Z
_TEXT	SEGMENT PARA USE32 PUBLIC 'CODE'
_TEXT	ENDS
;	COMDAT ??$_Uninitialized_copy@PAEPAEV?$allocator@E@std@@@std@@YAPAEPAE00AAV?$allocator@E@0@@Z
_TEXT	SEGMENT PARA USE32 PUBLIC 'CODE'
_TEXT	ENDS
;	COMDAT ??$_Advance@Vconst_iterator@?$vector@EV?$allocator@E@std@@@std@@H@std@@YAXAAVconst_iterator@?$vector@EV?$allocator@E@std@@@0@HUrandom_access_iterator_tag@0@@Z
_TEXT	SEGMENT PARA USE32 PUBLIC 'CODE'
_TEXT	ENDS
;	COMDAT ??$_Copy_opt@Vconst_iterator@?$vector@EV?$allocator@E@std@@@std@@PAE@std@@YAPAEVconst_iterator@?$vector@EV?$allocator@E@std@@@0@0PAEU_Nonscalar_ptr_iterator_tag@0@@Z
_TEXT	SEGMENT PARA USE32 PUBLIC 'CODE'
_TEXT	ENDS
;	COMDAT ??$_Copy_backward_opt@PAEPAE@std@@YAPAEPAE00U_Scalar_ptr_iterator_tag@0@@Z
_TEXT	SEGMENT PARA USE32 PUBLIC 'CODE'
_TEXT	ENDS
;	COMDAT ??Yconst_iterator@?$vector@EV?$allocator@E@std@@@std@@QAEAAV012@H@Z
_TEXT	SEGMENT PARA USE32 PUBLIC 'CODE'
_TEXT	ENDS
;	COMDAT ??$_Uninit_copy@EE@std@@YAPAEPAE00AAV?$allocator@E@0@U_Scalar_ptr_iterator_tag@0@@Z
_TEXT	SEGMENT PARA USE32 PUBLIC 'CODE'
_TEXT	ENDS
;	COMDAT ?deallocate@?$allocator@E@std@@QAEXPAEI@Z
_TEXT	SEGMENT PARA USE32 PUBLIC 'CODE'
_TEXT	ENDS
;	COMDAT ??$_Ucopy@Vconst_iterator@?$vector@EV?$allocator@E@std@@@std@@@?$vector@EV?$allocator@E@std@@@std@@IAEPAEVconst_iterator@01@0PAE@Z
_TEXT	SEGMENT PARA USE32 PUBLIC 'CODE'
_TEXT	ENDS
;	COMDAT ?allocate@?$allocator@E@std@@QAEPAEI@Z
_TEXT	SEGMENT PARA USE32 PUBLIC 'CODE'
_TEXT	ENDS
;	COMDAT ??$_Allocate@E@std@@YAPAEIPAE@Z
_TEXT	SEGMENT PARA USE32 PUBLIC 'CODE'
_TEXT	ENDS
;	COMDAT ?_Xlen@?$vector@EV?$allocator@E@std@@@std@@IBEXXZ
_TEXT	SEGMENT PARA USE32 PUBLIC 'CODE'
_TEXT	ENDS
;	COMDAT ?size@?$vector@EV?$allocator@E@std@@@std@@QBEIXZ
_TEXT	SEGMENT PARA USE32 PUBLIC 'CODE'
_TEXT	ENDS
;	COMDAT ?max_size@?$vector@EV?$allocator@E@std@@@std@@QBEIXZ
_TEXT	SEGMENT PARA USE32 PUBLIC 'CODE'
_TEXT	ENDS
;	COMDAT ?max_size@?$allocator@E@std@@QBEIXZ
_TEXT	SEGMENT PARA USE32 PUBLIC 'CODE'
_TEXT	ENDS
;	COMDAT ?_Ptr_cat@std@@YA?AU_Scalar_ptr_iterator_tag@1@PAE0@Z
_TEXT	SEGMENT PARA USE32 PUBLIC 'CODE'
_TEXT	ENDS
;	COMDAT ??0const_iterator@?$vector@EV?$allocator@E@std@@@std@@QAE@PAE@Z
_TEXT	SEGMENT PARA USE32 PUBLIC 'CODE'
_TEXT	ENDS
;	COMDAT ?_Destroy@?$vector@EV?$allocator@E@std@@@std@@IAEXPAE0@Z
_TEXT	SEGMENT PARA USE32 PUBLIC 'CODE'
_TEXT	ENDS
;	COMDAT ??$_Destroy_range@EV?$allocator@E@std@@@std@@YAXPAE0AAV?$allocator@E@0@@Z
_TEXT	SEGMENT PARA USE32 PUBLIC 'CODE'
_TEXT	ENDS
;	COMDAT ??4?$basic_string@DU?$char_traits@D@std@@V?$allocator@D@2@@std@@QAEAAV01@ABV01@@Z
_TEXT	SEGMENT PARA USE32 PUBLIC 'CODE'
_TEXT	ENDS
;	COMDAT ?assign@?$basic_string@DU?$char_traits@D@std@@V?$allocator@D@2@@std@@QAEAAV12@ABV12@@Z
_TEXT	SEGMENT PARA USE32 PUBLIC 'CODE'
_TEXT	ENDS
;	COMDAT ?assign@?$basic_string@DU?$char_traits@D@std@@V?$allocator@D@2@@std@@QAEAAV12@ABV12@II@Z
_TEXT	SEGMENT PARA USE32 PUBLIC 'CODE'
_TEXT	ENDS
;	COMDAT ?erase@?$basic_string@DU?$char_traits@D@std@@V?$allocator@D@2@@std@@QAEAAV12@II@Z
_TEXT	SEGMENT PARA USE32 PUBLIC 'CODE'
_TEXT	ENDS
;	COMDAT ?move@?$char_traits@D@std@@SAPADPADPBDI@Z
_TEXT	SEGMENT PARA USE32 PUBLIC 'CODE'
_TEXT	ENDS
;	COMDAT ?_Grow@?$basic_string@DU?$char_traits@D@std@@V?$allocator@D@2@@std@@IAE_NI_N@Z
_TEXT	SEGMENT PARA USE32 PUBLIC 'CODE'
_TEXT	ENDS
;	COMDAT ?max_size@?$basic_string@DU?$char_traits@D@std@@V?$allocator@D@2@@std@@QBEIXZ
_TEXT	SEGMENT PARA USE32 PUBLIC 'CODE'
_TEXT	ENDS
;	COMDAT ?max_size@?$allocator@D@std@@QBEIXZ
_TEXT	SEGMENT PARA USE32 PUBLIC 'CODE'
_TEXT	ENDS
;	COMDAT ?_Copy@?$basic_string@DU?$char_traits@D@std@@V?$allocator@D@2@@std@@IAEXII@Z
_TEXT	SEGMENT PARA USE32 PUBLIC 'CODE'
_TEXT	ENDS
;	COMDAT ?allocate@?$allocator@D@std@@QAEPADI@Z
_TEXT	SEGMENT PARA USE32 PUBLIC 'CODE'
_TEXT	ENDS
;	COMDAT ??$_Allocate@D@std@@YAPADIPAD@Z
_TEXT	SEGMENT PARA USE32 PUBLIC 'CODE'
_TEXT	ENDS
;	COMDAT ?_Tidy@?$basic_string@DU?$char_traits@D@std@@V?$allocator@D@2@@std@@IAEX_NI@Z
_TEXT	SEGMENT PARA USE32 PUBLIC 'CODE'
_TEXT	ENDS
;	COMDAT ?deallocate@?$allocator@D@std@@QAEXPADI@Z
_TEXT	SEGMENT PARA USE32 PUBLIC 'CODE'
_TEXT	ENDS
;	COMDAT ?copy@?$char_traits@D@std@@SAPADPADPBDI@Z
_TEXT	SEGMENT PARA USE32 PUBLIC 'CODE'
_TEXT	ENDS
;	COMDAT ?_Myptr@?$basic_string@DU?$char_traits@D@std@@V?$allocator@D@2@@std@@QAEPADXZ
_TEXT	SEGMENT PARA USE32 PUBLIC 'CODE'
_TEXT	ENDS
;	COMDAT ?_Eos@?$basic_string@DU?$char_traits@D@std@@V?$allocator@D@2@@std@@IAEXI@Z
_TEXT	SEGMENT PARA USE32 PUBLIC 'CODE'
_TEXT	ENDS
;	COMDAT ?assign@?$char_traits@D@std@@SAXAADABD@Z
_TEXT	SEGMENT PARA USE32 PUBLIC 'CODE'
_TEXT	ENDS
;	COMDAT ?npos@?$basic_string@DU?$char_traits@D@std@@V?$allocator@D@2@@std@@2IB
CONST	SEGMENT DWORD USE32 PUBLIC 'CONST'
CONST	ENDS
;	COMDAT ?_Ptr_cat@std@@YA?AU_Scalar_ptr_iterator_tag@1@PAJ0@Z
_TEXT	SEGMENT PARA USE32 PUBLIC 'CODE'
_TEXT	ENDS
;	COMDAT ??9const_iterator@?$_Tree@V?$_Tmap_traits@KEU?$less@K@std@@V?$allocator@U?$pair@$$CBKE@std@@@2@$0A@@std@@@std@@QBE_NABV012@@Z
_TEXT	SEGMENT PARA USE32 PUBLIC 'CODE'
_TEXT	ENDS
;	COMDAT ??8const_iterator@?$_Tree@V?$_Tmap_traits@KEU?$less@K@std@@V?$allocator@U?$pair@$$CBKE@std@@@2@$0A@@std@@@std@@QBE_NABV012@@Z
_TEXT	SEGMENT PARA USE32 PUBLIC 'CODE'
_TEXT	ENDS
;	COMDAT ??Eiterator@?$_Tree@V?$_Tmap_traits@KEU?$less@K@std@@V?$allocator@U?$pair@$$CBKE@std@@@2@$0A@@std@@@std@@QAEAAV012@XZ
_TEXT	SEGMENT PARA USE32 PUBLIC 'CODE'
_TEXT	ENDS
;	COMDAT ??Econst_iterator@?$_Tree@V?$_Tmap_traits@KEU?$less@K@std@@V?$allocator@U?$pair@$$CBKE@std@@@2@$0A@@std@@@std@@QAEAAV012@XZ
_TEXT	SEGMENT PARA USE32 PUBLIC 'CODE'
_TEXT	ENDS
;	COMDAT ?_Inc@const_iterator@?$_Tree@V?$_Tmap_traits@KEU?$less@K@std@@V?$allocator@U?$pair@$$CBKE@std@@@2@$0A@@std@@@std@@QAEXXZ
_TEXT	SEGMENT PARA USE32 PUBLIC 'CODE'
_TEXT	ENDS
;	COMDAT ?_Min@?$_Tree@V?$_Tmap_traits@KEU?$less@K@std@@V?$allocator@U?$pair@$$CBKE@std@@@2@$0A@@std@@@std@@KAPAU_Node@?$_Tree_nod@V?$_Tmap_traits@KEU?$less@K@std@@V?$allocator@U?$pair@$$CBKE@std@@@2@$0A@@std@@@2@PAU342@@Z
_TEXT	SEGMENT PARA USE32 PUBLIC 'CODE'
_TEXT	ENDS
;	COMDAT ?_Left@?$_Tree@V?$_Tmap_traits@KEU?$less@K@std@@V?$allocator@U?$pair@$$CBKE@std@@@2@$0A@@std@@@std@@KAAAPAU_Node@?$_Tree_nod@V?$_Tmap_traits@KEU?$less@K@std@@V?$allocator@U?$pair@$$CBKE@std@@@2@$0A@@std@@@2@PAU342@@Z
_TEXT	SEGMENT PARA USE32 PUBLIC 'CODE'
_TEXT	ENDS
;	COMDAT ?_Isnil@?$_Tree@V?$_Tmap_traits@KEU?$less@K@std@@V?$allocator@U?$pair@$$CBKE@std@@@2@$0A@@std@@@std@@KAAADPAU_Node@?$_Tree_nod@V?$_Tmap_traits@KEU?$less@K@std@@V?$allocator@U?$pair@$$CBKE@std@@@2@$0A@@std@@@2@@Z
_TEXT	SEGMENT PARA USE32 PUBLIC 'CODE'
_TEXT	ENDS
;	COMDAT ?_Parent@?$_Tree@V?$_Tmap_traits@KEU?$less@K@std@@V?$allocator@U?$pair@$$CBKE@std@@@2@$0A@@std@@@std@@KAAAPAU_Node@?$_Tree_nod@V?$_Tmap_traits@KEU?$less@K@std@@V?$allocator@U?$pair@$$CBKE@std@@@2@$0A@@std@@@2@PAU342@@Z
_TEXT	SEGMENT PARA USE32 PUBLIC 'CODE'
_TEXT	ENDS
;	COMDAT ?_Right@?$_Tree@V?$_Tmap_traits@KEU?$less@K@std@@V?$allocator@U?$pair@$$CBKE@std@@@2@$0A@@std@@@std@@KAAAPAU_Node@?$_Tree_nod@V?$_Tmap_traits@KEU?$less@K@std@@V?$allocator@U?$pair@$$CBKE@std@@@2@$0A@@std@@@2@PAU342@@Z
_TEXT	SEGMENT PARA USE32 PUBLIC 'CODE'
_TEXT	ENDS
;	COMDAT ??9const_iterator@?$_Tree@V?$_Tmap_traits@KPAVCCtrl@@U?$less@K@std@@V?$allocator@U?$pair@$$CBKPAVCCtrl@@@std@@@3@$0A@@std@@@std@@QBE_NABV012@@Z
_TEXT	SEGMENT PARA USE32 PUBLIC 'CODE'
_TEXT	ENDS
;	COMDAT ??9const_iterator@?$_Tree@V?$_Tmap_traits@KPAVCUser@@U?$less@K@std@@V?$allocator@U?$pair@$$CBKPAVCUser@@@std@@@3@$0A@@std@@@std@@QBE_NABV012@@Z
_TEXT	SEGMENT PARA USE32 PUBLIC 'CODE'
_TEXT	ENDS
;	COMDAT ??8const_iterator@?$_Tree@V?$_Tmap_traits@KPAVCUser@@U?$less@K@std@@V?$allocator@U?$pair@$$CBKPAVCUser@@@std@@@3@$0A@@std@@@std@@QBE_NABV012@@Z
_TEXT	SEGMENT PARA USE32 PUBLIC 'CODE'
_TEXT	ENDS
;	COMDAT ??Eiterator@?$_Tree@V?$_Tmap_traits@KPAVCUser@@U?$less@K@std@@V?$allocator@U?$pair@$$CBKPAVCUser@@@std@@@3@$0A@@std@@@std@@QAEAAV012@XZ
_TEXT	SEGMENT PARA USE32 PUBLIC 'CODE'
_TEXT	ENDS
;	COMDAT ??Econst_iterator@?$_Tree@V?$_Tmap_traits@KPAVCUser@@U?$less@K@std@@V?$allocator@U?$pair@$$CBKPAVCUser@@@std@@@3@$0A@@std@@@std@@QAEAAV012@XZ
_TEXT	SEGMENT PARA USE32 PUBLIC 'CODE'
_TEXT	ENDS
;	COMDAT ?_Inc@const_iterator@?$_Tree@V?$_Tmap_traits@KPAVCUser@@U?$less@K@std@@V?$allocator@U?$pair@$$CBKPAVCUser@@@std@@@3@$0A@@std@@@std@@QAEXXZ
_TEXT	SEGMENT PARA USE32 PUBLIC 'CODE'
_TEXT	ENDS
;	COMDAT ?_Min@?$_Tree@V?$_Tmap_traits@KPAVCUser@@U?$less@K@std@@V?$allocator@U?$pair@$$CBKPAVCUser@@@std@@@3@$0A@@std@@@std@@KAPAU_Node@?$_Tree_nod@V?$_Tmap_traits@KPAVCUser@@U?$less@K@std@@V?$allocator@U?$pair@$$CBKPAVCUser@@@std@@@3@$0A@@std@@@2@PAU342@@Z
_TEXT	SEGMENT PARA USE32 PUBLIC 'CODE'
_TEXT	ENDS
;	COMDAT ?_Left@?$_Tree@V?$_Tmap_traits@KPAVCUser@@U?$less@K@std@@V?$allocator@U?$pair@$$CBKPAVCUser@@@std@@@3@$0A@@std@@@std@@KAAAPAU_Node@?$_Tree_nod@V?$_Tmap_traits@KPAVCUser@@U?$less@K@std@@V?$allocator@U?$pair@$$CBKPAVCUser@@@std@@@3@$0A@@std@@@2@PAU342@@Z
_TEXT	SEGMENT PARA USE32 PUBLIC 'CODE'
_TEXT	ENDS
;	COMDAT ?_Isnil@?$_Tree@V?$_Tmap_traits@KPAVCUser@@U?$less@K@std@@V?$allocator@U?$pair@$$CBKPAVCUser@@@std@@@3@$0A@@std@@@std@@KAAADPAU_Node@?$_Tree_nod@V?$_Tmap_traits@KPAVCUser@@U?$less@K@std@@V?$allocator@U?$pair@$$CBKPAVCUser@@@std@@@3@$0A@@std@@@2@@Z
_TEXT	SEGMENT PARA USE32 PUBLIC 'CODE'
_TEXT	ENDS
;	COMDAT ?_Parent@?$_Tree@V?$_Tmap_traits@KPAVCUser@@U?$less@K@std@@V?$allocator@U?$pair@$$CBKPAVCUser@@@std@@@3@$0A@@std@@@std@@KAAAPAU_Node@?$_Tree_nod@V?$_Tmap_traits@KPAVCUser@@U?$less@K@std@@V?$allocator@U?$pair@$$CBKPAVCUser@@@std@@@3@$0A@@std@@@2@PAU342@@Z
_TEXT	SEGMENT PARA USE32 PUBLIC 'CODE'
_TEXT	ENDS
;	COMDAT ?_Right@?$_Tree@V?$_Tmap_traits@KPAVCUser@@U?$less@K@std@@V?$allocator@U?$pair@$$CBKPAVCUser@@@std@@@3@$0A@@std@@@std@@KAAAPAU_Node@?$_Tree_nod@V?$_Tmap_traits@KPAVCUser@@U?$less@K@std@@V?$allocator@U?$pair@$$CBKPAVCUser@@@std@@@3@$0A@@std@@@2@PAU342@@Z
_TEXT	SEGMENT PARA USE32 PUBLIC 'CODE'
_TEXT	ENDS
;	COMDAT ?_Psave@?$_Facetptr@V?$ctype@G@std@@@std@@2PBVfacet@locale@2@B
_DATA	SEGMENT DWORD USE32 PUBLIC 'DATA'
_DATA	ENDS
;	COMDAT ?_Psave@?$_Facetptr@V?$ctype@D@std@@@std@@2PBVfacet@locale@2@B
_DATA	SEGMENT DWORD USE32 PUBLIC 'DATA'
_DATA	ENDS
;	COMDAT ??3@YAXPAX0@Z
_TEXT	SEGMENT PARA USE32 PUBLIC 'CODE'
_TEXT	ENDS
;	COMDAT ??2@YAPAXIPAX@Z
_TEXT	SEGMENT PARA USE32 PUBLIC 'CODE'
_TEXT	ENDS
;	COMDAT ??0?$basic_string@DU?$char_traits@D@std@@V?$allocator@D@2@@std@@QAE@ABV01@@Z
_TEXT	SEGMENT PARA USE32 PUBLIC 'CODE'
_TEXT	ENDS
;	COMDAT ??0?$_String_val@DV?$allocator@D@std@@@std@@IAE@V?$allocator@D@1@@Z
_TEXT	SEGMENT PARA USE32 PUBLIC 'CODE'
_TEXT	ENDS
;	COMDAT ??0?$allocator@D@std@@QAE@ABV01@@Z
_TEXT	SEGMENT PARA USE32 PUBLIC 'CODE'
_TEXT	ENDS
;	COMDAT ??_C@_0BD@OLBABOEK@vector?$DMT?$DO?5too?5long?$AA@
CONST	SEGMENT DWORD USE32 PUBLIC 'CONST'
CONST	ENDS
;	COMDAT ??$swap@D@std@@YAXAAD0@Z
_TEXT	SEGMENT PARA USE32 PUBLIC 'CODE'
_TEXT	ENDS
;	COMDAT __TI3?AVout_of_range@std@@
xdata$x	SEGMENT DWORD USE32 PUBLIC 'CONST'
xdata$x	ENDS
;	COMDAT ??1out_of_range@std@@UAE@XZ
_TEXT	SEGMENT PARA USE32 PUBLIC 'CODE'
_TEXT	ENDS
;	COMDAT ??_7out_of_range@std@@6B@
CONST	SEGMENT DWORD USE32 PUBLIC 'CONST'
CONST	ENDS
;	COMDAT ??_Gout_of_range@std@@UAEPAXI@Z
_TEXT	SEGMENT PARA USE32 PUBLIC 'CODE'
_TEXT	ENDS
;	COMDAT ?what@logic_error@std@@UBEPBDXZ
_TEXT	SEGMENT PARA USE32 PUBLIC 'CODE'
_TEXT	ENDS
;	COMDAT ??1logic_error@std@@UAE@XZ
_TEXT	SEGMENT PARA USE32 PUBLIC 'CODE'
_TEXT	ENDS
;	COMDAT ??_7logic_error@std@@6B@
CONST	SEGMENT DWORD USE32 PUBLIC 'CONST'
CONST	ENDS
;	COMDAT ??_Glogic_error@std@@UAEPAXI@Z
_TEXT	SEGMENT PARA USE32 PUBLIC 'CODE'
_TEXT	ENDS
;	COMDAT __CTA3?AVout_of_range@std@@
xdata$x	SEGMENT DWORD USE32 PUBLIC 'CONST'
xdata$x	ENDS
;	COMDAT __CT??_R0?AVout_of_range@std@@@8??0out_of_range@std@@QAE@ABV01@@Z40
xdata$x	SEGMENT DWORD USE32 PUBLIC 'CONST'
xdata$x	ENDS
;	COMDAT ??_R0?AVout_of_range@std@@@8
_DATA	SEGMENT DWORD USE32 PUBLIC 'DATA'
_DATA	ENDS
;	COMDAT ??0out_of_range@std@@QAE@ABV01@@Z
_TEXT	SEGMENT PARA USE32 PUBLIC 'CODE'
_TEXT	ENDS
;	COMDAT ??0logic_error@std@@QAE@ABV01@@Z
_TEXT	SEGMENT PARA USE32 PUBLIC 'CODE'
_TEXT	ENDS
;	COMDAT __CT??_R0?AVlogic_error@std@@@8??0logic_error@std@@QAE@ABV01@@Z40
xdata$x	SEGMENT DWORD USE32 PUBLIC 'CONST'
xdata$x	ENDS
;	COMDAT ??_R0?AVlogic_error@std@@@8
_DATA	SEGMENT DWORD USE32 PUBLIC 'DATA'
_DATA	ENDS
;	COMDAT __CT??_R0?AVexception@@@8??0exception@@QAE@ABV0@@Z12
xdata$x	SEGMENT DWORD USE32 PUBLIC 'CONST'
xdata$x	ENDS
;	COMDAT ??_R0?AVexception@@@8
_DATA	SEGMENT DWORD USE32 PUBLIC 'DATA'
_DATA	ENDS
;	COMDAT ??_C@_0BM@PAPJHAGI@invalid?5map?1set?$DMT?$DO?5iterator?$AA@
CONST	SEGMENT DWORD USE32 PUBLIC 'CONST'
CONST	ENDS
;	COMDAT ??0out_of_range@std@@QAE@ABV?$basic_string@DU?$char_traits@D@std@@V?$allocator@D@2@@1@@Z
_TEXT	SEGMENT PARA USE32 PUBLIC 'CODE'
_TEXT	ENDS
;	COMDAT ??0logic_error@std@@QAE@ABV?$basic_string@DU?$char_traits@D@std@@V?$allocator@D@2@@1@@Z
_TEXT	SEGMENT PARA USE32 PUBLIC 'CODE'
_TEXT	ENDS
;	COMDAT __TI3?AVlength_error@std@@
xdata$x	SEGMENT DWORD USE32 PUBLIC 'CONST'
xdata$x	ENDS
;	COMDAT ??1length_error@std@@UAE@XZ
_TEXT	SEGMENT PARA USE32 PUBLIC 'CODE'
_TEXT	ENDS
;	COMDAT ??_7length_error@std@@6B@
CONST	SEGMENT DWORD USE32 PUBLIC 'CONST'
CONST	ENDS
;	COMDAT ??_Glength_error@std@@UAEPAXI@Z
_TEXT	SEGMENT PARA USE32 PUBLIC 'CODE'
_TEXT	ENDS
;	COMDAT __CTA3?AVlength_error@std@@
xdata$x	SEGMENT DWORD USE32 PUBLIC 'CONST'
xdata$x	ENDS
;	COMDAT __CT??_R0?AVlength_error@std@@@8??0length_error@std@@QAE@ABV01@@Z40
xdata$x	SEGMENT DWORD USE32 PUBLIC 'CONST'
xdata$x	ENDS
;	COMDAT ??_R0?AVlength_error@std@@@8
_DATA	SEGMENT DWORD USE32 PUBLIC 'DATA'
_DATA	ENDS
;	COMDAT ??0length_error@std@@QAE@ABV01@@Z
_TEXT	SEGMENT PARA USE32 PUBLIC 'CODE'
_TEXT	ENDS
;	COMDAT ??_C@_0BE@JONHPENG@map?1set?$DMT?$DO?5too?5long?$AA@
CONST	SEGMENT DWORD USE32 PUBLIC 'CONST'
CONST	ENDS
;	COMDAT ??0length_error@std@@QAE@ABV?$basic_string@DU?$char_traits@D@std@@V?$allocator@D@2@@1@@Z
_TEXT	SEGMENT PARA USE32 PUBLIC 'CODE'
_TEXT	ENDS
;	COMDAT ?insert@?$_Tree@V?$_Tmap_traits@KPAVCCtrl@@U?$less@K@std@@V?$allocator@U?$pair@$$CBKPAVCCtrl@@@std@@@3@$0A@@std@@@std@@QAE?AU?$pair@Viterator@?$_Tree@V?$_Tmap_traits@KPAVCCtrl@@U?$less@K@std@@V?$allocator@U?$pair@$$CBKPAVCCtrl@@@std@@@3@$0A@@std@@@std@@_N@2@ABU?$pair@$$CBKPAVCCtrl@@@2@@Z
_TEXT	SEGMENT PARA USE32 PUBLIC 'CODE'
_TEXT	ENDS
;	COMDAT ?_Root@?$_Tree@V?$_Tmap_traits@KPAVCCtrl@@U?$less@K@std@@V?$allocator@U?$pair@$$CBKPAVCCtrl@@@std@@@3@$0A@@std@@@std@@IAEAAPAU_Node@?$_Tree_nod@V?$_Tmap_traits@KPAVCCtrl@@U?$less@K@std@@V?$allocator@U?$pair@$$CBKPAVCCtrl@@@std@@@3@$0A@@std@@@2@XZ
_TEXT	SEGMENT PARA USE32 PUBLIC 'CODE'
_TEXT	ENDS
;	COMDAT ?_Parent@?$_Tree@V?$_Tmap_traits@KPAVCCtrl@@U?$less@K@std@@V?$allocator@U?$pair@$$CBKPAVCCtrl@@@std@@@3@$0A@@std@@@std@@KAAAPAU_Node@?$_Tree_nod@V?$_Tmap_traits@KPAVCCtrl@@U?$less@K@std@@V?$allocator@U?$pair@$$CBKPAVCCtrl@@@std@@@3@$0A@@std@@@2@PAU342@@Z
_TEXT	SEGMENT PARA USE32 PUBLIC 'CODE'
_TEXT	ENDS
;	COMDAT ?_Left@?$_Tree@V?$_Tmap_traits@KPAVCCtrl@@U?$less@K@std@@V?$allocator@U?$pair@$$CBKPAVCCtrl@@@std@@@3@$0A@@std@@@std@@KAAAPAU_Node@?$_Tree_nod@V?$_Tmap_traits@KPAVCCtrl@@U?$less@K@std@@V?$allocator@U?$pair@$$CBKPAVCCtrl@@@std@@@3@$0A@@std@@@2@PAU342@@Z
_TEXT	SEGMENT PARA USE32 PUBLIC 'CODE'
_TEXT	ENDS
;	COMDAT ??0iterator@?$_Tree@V?$_Tmap_traits@KPAVCCtrl@@U?$less@K@std@@V?$allocator@U?$pair@$$CBKPAVCCtrl@@@std@@@3@$0A@@std@@@std@@QAE@PAU_Node@?$_Tree_nod@V?$_Tmap_traits@KPAVCCtrl@@U?$less@K@std@@V?$allocator@U?$pair@$$CBKPAVCCtrl@@@std@@@3@$0A@@std@@@2@@Z
_TEXT	SEGMENT PARA USE32 PUBLIC 'CODE'
_TEXT	ENDS
;	COMDAT ??0const_iterator@?$_Tree@V?$_Tmap_traits@KPAVCCtrl@@U?$less@K@std@@V?$allocator@U?$pair@$$CBKPAVCCtrl@@@std@@@3@$0A@@std@@@std@@QAE@PAU_Node@?$_Tree_nod@V?$_Tmap_traits@KPAVCCtrl@@U?$less@K@std@@V?$allocator@U?$pair@$$CBKPAVCCtrl@@@std@@@3@$0A@@std@@@2@@Z
_TEXT	SEGMENT PARA USE32 PUBLIC 'CODE'
_TEXT	ENDS
;	COMDAT ??0?$pair@Viterator@?$_Tree@V?$_Tmap_traits@KPAVCCtrl@@U?$less@K@std@@V?$allocator@U?$pair@$$CBKPAVCCtrl@@@std@@@3@$0A@@std@@@std@@_N@std@@QAE@ABViterator@?$_Tree@V?$_Tmap_traits@KPAVCCtrl@@U?$less@K@std@@V?$allocator@U?$pair@$$CBKPAVCCtrl@@@std@@@3@$0A@@std@@@1@AB_N@Z
_TEXT	SEGMENT PARA USE32 PUBLIC 'CODE'
_TEXT	ENDS
;	COMDAT ??Eiterator@?$_Tree@V?$_Tmap_traits@KPAVCCtrl@@U?$less@K@std@@V?$allocator@U?$pair@$$CBKPAVCCtrl@@@std@@@3@$0A@@std@@@std@@QAEAAV012@XZ
_TEXT	SEGMENT PARA USE32 PUBLIC 'CODE'
_TEXT	ENDS
;	COMDAT ??Econst_iterator@?$_Tree@V?$_Tmap_traits@KPAVCCtrl@@U?$less@K@std@@V?$allocator@U?$pair@$$CBKPAVCCtrl@@@std@@@3@$0A@@std@@@std@@QAEAAV012@XZ
_TEXT	SEGMENT PARA USE32 PUBLIC 'CODE'
_TEXT	ENDS
;	COMDAT ?_Inc@const_iterator@?$_Tree@V?$_Tmap_traits@KPAVCCtrl@@U?$less@K@std@@V?$allocator@U?$pair@$$CBKPAVCCtrl@@@std@@@3@$0A@@std@@@std@@QAEXXZ
_TEXT	SEGMENT PARA USE32 PUBLIC 'CODE'
_TEXT	ENDS
;	COMDAT ?_Min@?$_Tree@V?$_Tmap_traits@KPAVCCtrl@@U?$less@K@std@@V?$allocator@U?$pair@$$CBKPAVCCtrl@@@std@@@3@$0A@@std@@@std@@KAPAU_Node@?$_Tree_nod@V?$_Tmap_traits@KPAVCCtrl@@U?$less@K@std@@V?$allocator@U?$pair@$$CBKPAVCCtrl@@@std@@@3@$0A@@std@@@2@PAU342@@Z
_TEXT	SEGMENT PARA USE32 PUBLIC 'CODE'
_TEXT	ENDS
;	COMDAT ?_Right@?$_Tree@V?$_Tmap_traits@KPAVCCtrl@@U?$less@K@std@@V?$allocator@U?$pair@$$CBKPAVCCtrl@@@std@@@3@$0A@@std@@@std@@KAAAPAU_Node@?$_Tree_nod@V?$_Tmap_traits@KPAVCCtrl@@U?$less@K@std@@V?$allocator@U?$pair@$$CBKPAVCCtrl@@@std@@@3@$0A@@std@@@2@PAU342@@Z
_TEXT	SEGMENT PARA USE32 PUBLIC 'CODE'
_TEXT	ENDS
;	COMDAT ?_Isnil@?$_Tree@V?$_Tmap_traits@KPAVCCtrl@@U?$less@K@std@@V?$allocator@U?$pair@$$CBKPAVCCtrl@@@std@@@3@$0A@@std@@@std@@KAAADPAU_Node@?$_Tree_nod@V?$_Tmap_traits@KPAVCCtrl@@U?$less@K@std@@V?$allocator@U?$pair@$$CBKPAVCCtrl@@@std@@@3@$0A@@std@@@2@@Z
_TEXT	SEGMENT PARA USE32 PUBLIC 'CODE'
_TEXT	ENDS
;	COMDAT ??Fiterator@?$_Tree@V?$_Tmap_traits@KPAVCCtrl@@U?$less@K@std@@V?$allocator@U?$pair@$$CBKPAVCCtrl@@@std@@@3@$0A@@std@@@std@@QAEAAV012@XZ
_TEXT	SEGMENT PARA USE32 PUBLIC 'CODE'
_TEXT	ENDS
;	COMDAT ??Fconst_iterator@?$_Tree@V?$_Tmap_traits@KPAVCCtrl@@U?$less@K@std@@V?$allocator@U?$pair@$$CBKPAVCCtrl@@@std@@@3@$0A@@std@@@std@@QAEAAV012@XZ
_TEXT	SEGMENT PARA USE32 PUBLIC 'CODE'
_TEXT	ENDS
;	COMDAT ?_Dec@const_iterator@?$_Tree@V?$_Tmap_traits@KPAVCCtrl@@U?$less@K@std@@V?$allocator@U?$pair@$$CBKPAVCCtrl@@@std@@@3@$0A@@std@@@std@@QAEXXZ
_TEXT	SEGMENT PARA USE32 PUBLIC 'CODE'
_TEXT	ENDS
;	COMDAT ?_Max@?$_Tree@V?$_Tmap_traits@KPAVCCtrl@@U?$less@K@std@@V?$allocator@U?$pair@$$CBKPAVCCtrl@@@std@@@3@$0A@@std@@@std@@KAPAU_Node@?$_Tree_nod@V?$_Tmap_traits@KPAVCCtrl@@U?$less@K@std@@V?$allocator@U?$pair@$$CBKPAVCCtrl@@@std@@@3@$0A@@std@@@2@PAU342@@Z
_TEXT	SEGMENT PARA USE32 PUBLIC 'CODE'
_TEXT	ENDS
;	COMDAT ?_Rmost@?$_Tree@V?$_Tmap_traits@KPAVCCtrl@@U?$less@K@std@@V?$allocator@U?$pair@$$CBKPAVCCtrl@@@std@@@3@$0A@@std@@@std@@IAEAAPAU_Node@?$_Tree_nod@V?$_Tmap_traits@KPAVCCtrl@@U?$less@K@std@@V?$allocator@U?$pair@$$CBKPAVCCtrl@@@std@@@3@$0A@@std@@@2@XZ
_TEXT	SEGMENT PARA USE32 PUBLIC 'CODE'
_TEXT	ENDS
;	COMDAT ?_Kfn@?$_Tmap_traits@KPAVCCtrl@@U?$less@K@std@@V?$allocator@U?$pair@$$CBKPAVCCtrl@@@std@@@3@$0A@@std@@SAABKABU?$pair@$$CBKPAVCCtrl@@@2@@Z
_TEXT	SEGMENT PARA USE32 PUBLIC 'CODE'
_TEXT	ENDS
;	COMDAT ?begin@?$_Tree@V?$_Tmap_traits@KPAVCCtrl@@U?$less@K@std@@V?$allocator@U?$pair@$$CBKPAVCCtrl@@@std@@@3@$0A@@std@@@std@@QAE?AViterator@12@XZ
_TEXT	SEGMENT PARA USE32 PUBLIC 'CODE'
_TEXT	ENDS
;	COMDAT ?_Lmost@?$_Tree@V?$_Tmap_traits@KPAVCCtrl@@U?$less@K@std@@V?$allocator@U?$pair@$$CBKPAVCCtrl@@@std@@@3@$0A@@std@@@std@@IAEAAPAU_Node@?$_Tree_nod@V?$_Tmap_traits@KPAVCCtrl@@U?$less@K@std@@V?$allocator@U?$pair@$$CBKPAVCCtrl@@@std@@@3@$0A@@std@@@2@XZ
_TEXT	SEGMENT PARA USE32 PUBLIC 'CODE'
_TEXT	ENDS
;	COMDAT ?_Insert@?$_Tree@V?$_Tmap_traits@KPAVCCtrl@@U?$less@K@std@@V?$allocator@U?$pair@$$CBKPAVCCtrl@@@std@@@3@$0A@@std@@@std@@IAE?AViterator@12@_NPAU_Node@?$_Tree_nod@V?$_Tmap_traits@KPAVCCtrl@@U?$less@K@std@@V?$allocator@U?$pair@$$CBKPAVCCtrl@@@std@@@3@$0A@@std@@@2@ABU?$pair@$$CBKPAVCCtrl@@@2@@Z
_TEXT	SEGMENT PARA USE32 PUBLIC 'CODE'
_TEXT	ENDS
;	COMDAT ?max_size@?$_Tree@V?$_Tmap_traits@KPAVCCtrl@@U?$less@K@std@@V?$allocator@U?$pair@$$CBKPAVCCtrl@@@std@@@3@$0A@@std@@@std@@QBEIXZ
_TEXT	SEGMENT PARA USE32 PUBLIC 'CODE'
_TEXT	ENDS
;	COMDAT ?max_size@?$allocator@U?$pair@$$CBKPAVCCtrl@@@std@@@std@@QBEIXZ
_TEXT	SEGMENT PARA USE32 PUBLIC 'CODE'
_TEXT	ENDS
;	COMDAT ?_Buynode@?$_Tree@V?$_Tmap_traits@KPAVCCtrl@@U?$less@K@std@@V?$allocator@U?$pair@$$CBKPAVCCtrl@@@std@@@3@$0A@@std@@@std@@IAEPAU_Node@?$_Tree_nod@V?$_Tmap_traits@KPAVCCtrl@@U?$less@K@std@@V?$allocator@U?$pair@$$CBKPAVCCtrl@@@std@@@3@$0A@@std@@@2@PAU342@00ABU?$pair@$$CBKPAVCCtrl@@@2@D@Z
_TEXT	SEGMENT PARA USE32 PUBLIC 'CODE'
_TEXT	ENDS
;	COMDAT ?allocate@?$allocator@U_Node@?$_Tree_nod@V?$_Tmap_traits@KPAVCCtrl@@U?$less@K@std@@V?$allocator@U?$pair@$$CBKPAVCCtrl@@@std@@@3@$0A@@std@@@std@@@std@@QAEPAU_Node@?$_Tree_nod@V?$_Tmap_traits@KPAVCCtrl@@U?$less@K@std@@V?$allocator@U?$pair@$$CBKPAVCCtrl@@@std@@@3@$0A@@std@@@2@I@Z
_TEXT	SEGMENT PARA USE32 PUBLIC 'CODE'
_TEXT	ENDS
;	COMDAT ??$_Allocate@U_Node@?$_Tree_nod@V?$_Tmap_traits@KPAVCCtrl@@U?$less@K@std@@V?$allocator@U?$pair@$$CBKPAVCCtrl@@@std@@@3@$0A@@std@@@std@@@std@@YAPAU_Node@?$_Tree_nod@V?$_Tmap_traits@KPAVCCtrl@@U?$less@K@std@@V?$allocator@U?$pair@$$CBKPAVCCtrl@@@std@@@3@$0A@@std@@@0@IPAU120@@Z
_TEXT	SEGMENT PARA USE32 PUBLIC 'CODE'
_TEXT	ENDS
;	COMDAT ??0_Node@?$_Tree_nod@V?$_Tmap_traits@KPAVCCtrl@@U?$less@K@std@@V?$allocator@U?$pair@$$CBKPAVCCtrl@@@std@@@3@$0A@@std@@@std@@QAE@PAU012@00ABU?$pair@$$CBKPAVCCtrl@@@2@D@Z
_TEXT	SEGMENT PARA USE32 PUBLIC 'CODE'
_TEXT	ENDS
;	COMDAT ?deallocate@?$allocator@U_Node@?$_Tree_nod@V?$_Tmap_traits@KPAVCCtrl@@U?$less@K@std@@V?$allocator@U?$pair@$$CBKPAVCCtrl@@@std@@@3@$0A@@std@@@std@@@std@@QAEXPAU_Node@?$_Tree_nod@V?$_Tmap_traits@KPAVCCtrl@@U?$less@K@std@@V?$allocator@U?$pair@$$CBKPAVCCtrl@@@std@@@3@$0A@@std@@@2@I@Z
_TEXT	SEGMENT PARA USE32 PUBLIC 'CODE'
_TEXT	ENDS
;	COMDAT ?_Rrotate@?$_Tree@V?$_Tmap_traits@KPAVCCtrl@@U?$less@K@std@@V?$allocator@U?$pair@$$CBKPAVCCtrl@@@std@@@3@$0A@@std@@@std@@IAEXPAU_Node@?$_Tree_nod@V?$_Tmap_traits@KPAVCCtrl@@U?$less@K@std@@V?$allocator@U?$pair@$$CBKPAVCCtrl@@@std@@@3@$0A@@std@@@2@@Z
_TEXT	SEGMENT PARA USE32 PUBLIC 'CODE'
_TEXT	ENDS
;	COMDAT ?_Lrotate@?$_Tree@V?$_Tmap_traits@KPAVCCtrl@@U?$less@K@std@@V?$allocator@U?$pair@$$CBKPAVCCtrl@@@std@@@3@$0A@@std@@@std@@IAEXPAU_Node@?$_Tree_nod@V?$_Tmap_traits@KPAVCCtrl@@U?$less@K@std@@V?$allocator@U?$pair@$$CBKPAVCCtrl@@@std@@@3@$0A@@std@@@2@@Z
_TEXT	SEGMENT PARA USE32 PUBLIC 'CODE'
_TEXT	ENDS
;	COMDAT ?_Color@?$_Tree@V?$_Tmap_traits@KPAVCCtrl@@U?$less@K@std@@V?$allocator@U?$pair@$$CBKPAVCCtrl@@@std@@@3@$0A@@std@@@std@@KAAADPAU_Node@?$_Tree_nod@V?$_Tmap_traits@KPAVCCtrl@@U?$less@K@std@@V?$allocator@U?$pair@$$CBKPAVCCtrl@@@std@@@3@$0A@@std@@@2@@Z
_TEXT	SEGMENT PARA USE32 PUBLIC 'CODE'
_TEXT	ENDS
;	COMDAT ?compare@?$char_traits@D@std@@SAHPBD0I@Z
_TEXT	SEGMENT PARA USE32 PUBLIC 'CODE'
_TEXT	ENDS
;	COMDAT ??Diterator@?$_Tree@V?$_Tmap_traits@KPAVCCtrl@@U?$less@K@std@@V?$allocator@U?$pair@$$CBKPAVCCtrl@@@std@@@3@$0A@@std@@@std@@QBEAAU?$pair@$$CBKPAVCCtrl@@@2@XZ
_TEXT	SEGMENT PARA USE32 PUBLIC 'CODE'
_TEXT	ENDS
;	COMDAT ??Dconst_iterator@?$_Tree@V?$_Tmap_traits@KPAVCCtrl@@U?$less@K@std@@V?$allocator@U?$pair@$$CBKPAVCCtrl@@@std@@@3@$0A@@std@@@std@@QBEABU?$pair@$$CBKPAVCCtrl@@@2@XZ
_TEXT	SEGMENT PARA USE32 PUBLIC 'CODE'
_TEXT	ENDS
;	COMDAT ?_Myval@?$_Tree@V?$_Tmap_traits@KPAVCCtrl@@U?$less@K@std@@V?$allocator@U?$pair@$$CBKPAVCCtrl@@@std@@@3@$0A@@std@@@std@@KAAAU?$pair@$$CBKPAVCCtrl@@@2@PAU_Node@?$_Tree_nod@V?$_Tmap_traits@KPAVCCtrl@@U?$less@K@std@@V?$allocator@U?$pair@$$CBKPAVCCtrl@@@std@@@3@$0A@@std@@@2@@Z
_TEXT	SEGMENT PARA USE32 PUBLIC 'CODE'
_TEXT	ENDS
;	COMDAT ?_Mynode@const_iterator@?$_Tree@V?$_Tmap_traits@KPAVCCtrl@@U?$less@K@std@@V?$allocator@U?$pair@$$CBKPAVCCtrl@@@std@@@3@$0A@@std@@@std@@QBEPAU_Node@?$_Tree_nod@V?$_Tmap_traits@KPAVCCtrl@@U?$less@K@std@@V?$allocator@U?$pair@$$CBKPAVCCtrl@@@std@@@3@$0A@@std@@@3@XZ
_TEXT	SEGMENT PARA USE32 PUBLIC 'CODE'
_TEXT	ENDS
;	COMDAT ?_Key@?$_Tree@V?$_Tmap_traits@KPAVCCtrl@@U?$less@K@std@@V?$allocator@U?$pair@$$CBKPAVCCtrl@@@std@@@3@$0A@@std@@@std@@KAABKPAU_Node@?$_Tree_nod@V?$_Tmap_traits@KPAVCCtrl@@U?$less@K@std@@V?$allocator@U?$pair@$$CBKPAVCCtrl@@@std@@@3@$0A@@std@@@2@@Z
_TEXT	SEGMENT PARA USE32 PUBLIC 'CODE'
_TEXT	ENDS
;	COMDAT ??R?$less@K@std@@QBE_NABK0@Z
_TEXT	SEGMENT PARA USE32 PUBLIC 'CODE'
_TEXT	ENDS
;	COMDAT ?end@?$_Tree@V?$_Tmap_traits@KPAVCCtrl@@U?$less@K@std@@V?$allocator@U?$pair@$$CBKPAVCCtrl@@@std@@@3@$0A@@std@@@std@@QAE?AViterator@12@XZ
_TEXT	SEGMENT PARA USE32 PUBLIC 'CODE'
_TEXT	ENDS
;	COMDAT ??8const_iterator@?$_Tree@V?$_Tmap_traits@KPAVCCtrl@@U?$less@K@std@@V?$allocator@U?$pair@$$CBKPAVCCtrl@@@std@@@3@$0A@@std@@@std@@QBE_NABV012@@Z
_TEXT	SEGMENT PARA USE32 PUBLIC 'CODE'
_TEXT	ENDS
;	COMDAT ?lower_bound@?$_Tree@V?$_Tmap_traits@KPAVCCtrl@@U?$less@K@std@@V?$allocator@U?$pair@$$CBKPAVCCtrl@@@std@@@3@$0A@@std@@@std@@QAE?AViterator@12@ABK@Z
_TEXT	SEGMENT PARA USE32 PUBLIC 'CODE'
_TEXT	ENDS
;	COMDAT ?_Lbound@?$_Tree@V?$_Tmap_traits@KPAVCCtrl@@U?$less@K@std@@V?$allocator@U?$pair@$$CBKPAVCCtrl@@@std@@@3@$0A@@std@@@std@@IBEPAU_Node@?$_Tree_nod@V?$_Tmap_traits@KPAVCCtrl@@U?$less@K@std@@V?$allocator@U?$pair@$$CBKPAVCCtrl@@@std@@@3@$0A@@std@@@2@ABK@Z
_TEXT	SEGMENT PARA USE32 PUBLIC 'CODE'
_TEXT	ENDS
;	COMDAT ?_Root@?$_Tree@V?$_Tmap_traits@KPAVCCtrl@@U?$less@K@std@@V?$allocator@U?$pair@$$CBKPAVCCtrl@@@std@@@3@$0A@@std@@@std@@IBEAAPAU_Node@?$_Tree_nod@V?$_Tmap_traits@KPAVCCtrl@@U?$less@K@std@@V?$allocator@U?$pair@$$CBKPAVCCtrl@@@std@@@3@$0A@@std@@@2@XZ
_TEXT	SEGMENT PARA USE32 PUBLIC 'CODE'
_TEXT	ENDS
;	COMDAT ?_Myptr@?$basic_string@DU?$char_traits@D@std@@V?$allocator@D@2@@std@@QBEPBDXZ
_TEXT	SEGMENT PARA USE32 PUBLIC 'CODE'
_TEXT	ENDS
;	COMDAT ?size@?$basic_string@DU?$char_traits@D@std@@V?$allocator@D@2@@std@@QBEIXZ
_TEXT	SEGMENT PARA USE32 PUBLIC 'CODE'
_TEXT	ENDS
;	COMDAT ?IsLive@CMover@@QAEHXZ
_TEXT	SEGMENT PARA USE32 PUBLIC 'CODE'
_TEXT	ENDS
;	COMDAT ?IsDie@CAction@@QAEHXZ
_TEXT	SEGMENT PARA USE32 PUBLIC 'CODE'
_TEXT	ENDS
;	COMDAT ?IsValidObj@@YAHPAVCObj@@@Z
_TEXT	SEGMENT PARA USE32 PUBLIC 'CODE'
_TEXT	ENDS
;	COMDAT ?IsDelete@CObj@@QAEHXZ
_TEXT	SEGMENT PARA USE32 PUBLIC 'CODE'
_TEXT	ENDS
;	COMDAT ?GetAct@CMover@@QAE?AW4OBJACT@@XZ
_TEXT	SEGMENT PARA USE32 PUBLIC 'CODE'
_TEXT	ENDS
;	COMDAT ?SetExternalForce@CActionMover@@QAEXABUD3DXVECTOR3@@@Z
_TEXT	SEGMENT PARA USE32 PUBLIC 'CODE'
_TEXT	ENDS
;	COMDAT ?AngleToVectorXZ@@YAXPAUD3DXVECTOR3@@MM@Z
_TEXT	SEGMENT PARA USE32 PUBLIC 'CODE'
_TEXT	ENDS
;	COMDAT ?GetActParam@CMover@@AAEHH@Z
_TEXT	SEGMENT PARA USE32 PUBLIC 'CODE'
_TEXT	ENDS
;	COMDAT ?SetState@CAction@@QAEXKK@Z
_TEXT	SEGMENT PARA USE32 PUBLIC 'CODE'
_TEXT	ENDS
;	COMDAT ?IsPlayer@CMover@@QAEHXZ
_TEXT	SEGMENT PARA USE32 PUBLIC 'CODE'
_TEXT	ENDS
;	COMDAT ?SetJumpState@CAction@@QAEXK@Z
_TEXT	SEGMENT PARA USE32 PUBLIC 'CODE'
_TEXT	ENDS
;	COMDAT ?IsActAttack@CAction@@QAEHXZ
_TEXT	SEGMENT PARA USE32 PUBLIC 'CODE'
_TEXT	ENDS
;	COMDAT ?IsActDamage@CAction@@QAEHXZ
_TEXT	SEGMENT PARA USE32 PUBLIC 'CODE'
_TEXT	ENDS
;	COMDAT _cosf
_TEXT	SEGMENT PARA USE32 PUBLIC 'CODE'
_TEXT	ENDS
;	COMDAT ?AngleToVector@@YAXPAUD3DXVECTOR3@@MMM@Z
_TEXT	SEGMENT PARA USE32 PUBLIC 'CODE'
_TEXT	ENDS
;	COMDAT ?GetAngleX@CObj@@QAEMXZ
_TEXT	SEGMENT PARA USE32 PUBLIC 'CODE'
_TEXT	ENDS
;	COMDAT ?cos@@YAMM@Z
_TEXT	SEGMENT PARA USE32 PUBLIC 'CODE'
_TEXT	ENDS
;	COMDAT _sinf
_TEXT	SEGMENT PARA USE32 PUBLIC 'CODE'
_TEXT	ENDS
;	COMDAT ?IsStateFlag@CAction@@QAEHK@Z
_TEXT	SEGMENT PARA USE32 PUBLIC 'CODE'
_TEXT	ENDS
;	COMDAT ?xRandom@@YAKK@Z
_TEXT	SEGMENT PARA USE32 PUBLIC 'CODE'
_TEXT	ENDS
;	COMDAT ?xRand@@YAKXZ
_TEXT	SEGMENT PARA USE32 PUBLIC 'CODE'
_TEXT	ENDS
;	COMDAT ?IsStateMode@CMover@@QAEHK@Z
_TEXT	SEGMENT PARA USE32 PUBLIC 'CODE'
_TEXT	ENDS
;	COMDAT ?IsEndFrame@CModel@@QAEHXZ
_TEXT	SEGMENT PARA USE32 PUBLIC 'CODE'
_TEXT	ENDS
;	COMDAT ?GetStateFlag@CAction@@QAEKXZ
_TEXT	SEGMENT PARA USE32 PUBLIC 'CODE'
_TEXT	ENDS
;	COMDAT ?GetState@CAction@@QAEKXZ
_TEXT	SEGMENT PARA USE32 PUBLIC 'CODE'
_TEXT	ENDS
;	COMDAT ?GetAngle@CObj@@QAEMXZ
_TEXT	SEGMENT PARA USE32 PUBLIC 'CODE'
_TEXT	ENDS
;	COMDAT ?Empty@?$CSimpleStringT@D$0A@@ATL@@QAEXXZ
_TEXT	SEGMENT PARA USE32 PUBLIC 'CODE'
_TEXT	ENDS
;	COMDAT ?GetData@?$CSimpleStringT@D$0A@@ATL@@ABEPAUCStringData@2@XZ
_TEXT	SEGMENT PARA USE32 PUBLIC 'CODE'
_TEXT	ENDS
;	COMDAT ?IsLocked@CStringData@ATL@@QBE_NXZ
_TEXT	SEGMENT PARA USE32 PUBLIC 'CODE'
_TEXT	ENDS
;	COMDAT ?SetLength@?$CSimpleStringT@D$0A@@ATL@@AAEXH@Z
_TEXT	SEGMENT PARA USE32 PUBLIC 'CODE'
_TEXT	ENDS
;	COMDAT ?AtlThrow@ATL@@YGXJ@Z
_TEXT	SEGMENT PARA USE32 PUBLIC 'CODE'
_TEXT	ENDS
;	COMDAT ?Release@CStringData@ATL@@QAEXXZ
_TEXT	SEGMENT PARA USE32 PUBLIC 'CODE'
_TEXT	ENDS
;	COMDAT ?Attach@?$CSimpleStringT@D$0A@@ATL@@AAEXPAUCStringData@2@@Z
_TEXT	SEGMENT PARA USE32 PUBLIC 'CODE'
_TEXT	ENDS
;	COMDAT ?data@CStringData@ATL@@QAEPAXXZ
_TEXT	SEGMENT PARA USE32 PUBLIC 'CODE'
_TEXT	ENDS
;	COMDAT ??1?$CStringT@DV?$StrTraitMFC@DV?$ChTraitsCRT@D@ATL@@@@@ATL@@QAE@XZ
_TEXT	SEGMENT PARA USE32 PUBLIC 'CODE'
_TEXT	ENDS
;	COMDAT ??1?$CSimpleStringT@D$0A@@ATL@@QAE@XZ
_TEXT	SEGMENT PARA USE32 PUBLIC 'CODE'
_TEXT	ENDS
;	COMDAT ??0?$CStringT@DV?$StrTraitMFC@DV?$ChTraitsCRT@D@ATL@@@@@ATL@@QAE@XZ
_TEXT	SEGMENT PARA USE32 PUBLIC 'CODE'
_TEXT	ENDS
;	COMDAT ??0?$CSimpleStringT@D$0A@@ATL@@QAE@PAUIAtlStringMgr@1@@Z
_TEXT	SEGMENT PARA USE32 PUBLIC 'CODE'
_TEXT	ENDS
;	COMDAT ?GetDefaultManager@?$StrTraitMFC@DV?$ChTraitsCRT@D@ATL@@@@SAPAUIAtlStringMgr@ATL@@XZ
_TEXT	SEGMENT PARA USE32 PUBLIC 'CODE'
_TEXT	ENDS
;	COMDAT ?erase@?$_Tree@V?$_Tmap_traits@KPAVCCtrl@@U?$less@K@std@@V?$allocator@U?$pair@$$CBKPAVCCtrl@@@std@@@3@$0A@@std@@@std@@QAEIABK@Z
_TEXT	SEGMENT PARA USE32 PUBLIC 'CODE'
_TEXT	ENDS
;	COMDAT ?equal_range@?$_Tree@V?$_Tmap_traits@KPAVCCtrl@@U?$less@K@std@@V?$allocator@U?$pair@$$CBKPAVCCtrl@@@std@@@3@$0A@@std@@@std@@QAE?AU?$pair@Viterator@?$_Tree@V?$_Tmap_traits@KPAVCCtrl@@U?$less@K@std@@V?$allocator@U?$pair@$$CBKPAVCCtrl@@@std@@@3@$0A@@std@@@std@@V123@@2@ABK@Z
_TEXT	SEGMENT PARA USE32 PUBLIC 'CODE'
_TEXT	ENDS
;	COMDAT ??0?$pair@Viterator@?$_Tree@V?$_Tmap_traits@KPAVCCtrl@@U?$less@K@std@@V?$allocator@U?$pair@$$CBKPAVCCtrl@@@std@@@3@$0A@@std@@@std@@V123@@std@@QAE@ABViterator@?$_Tree@V?$_Tmap_traits@KPAVCCtrl@@U?$less@K@std@@V?$allocator@U?$pair@$$CBKPAVCCtrl@@@std@@@3@$0A@@std@@@1@0@Z
_TEXT	SEGMENT PARA USE32 PUBLIC 'CODE'
_TEXT	ENDS
;	COMDAT ?upper_bound@?$_Tree@V?$_Tmap_traits@KPAVCCtrl@@U?$less@K@std@@V?$allocator@U?$pair@$$CBKPAVCCtrl@@@std@@@3@$0A@@std@@@std@@QAE?AViterator@12@ABK@Z
_TEXT	SEGMENT PARA USE32 PUBLIC 'CODE'
_TEXT	ENDS
;	COMDAT ?_Ubound@?$_Tree@V?$_Tmap_traits@KPAVCCtrl@@U?$less@K@std@@V?$allocator@U?$pair@$$CBKPAVCCtrl@@@std@@@3@$0A@@std@@@std@@IBEPAU_Node@?$_Tree_nod@V?$_Tmap_traits@KPAVCCtrl@@U?$less@K@std@@V?$allocator@U?$pair@$$CBKPAVCCtrl@@@std@@@3@$0A@@std@@@2@ABK@Z
_TEXT	SEGMENT PARA USE32 PUBLIC 'CODE'
_TEXT	ENDS
;	COMDAT ??$_Distance@Viterator@?$_Tree@V?$_Tmap_traits@KPAVCCtrl@@U?$less@K@std@@V?$allocator@U?$pair@$$CBKPAVCCtrl@@@std@@@3@$0A@@std@@@std@@I@std@@YAXViterator@?$_Tree@V?$_Tmap_traits@KPAVCCtrl@@U?$less@K@std@@V?$allocator@U?$pair@$$CBKPAVCCtrl@@@std@@@3@$0A@@std@@@0@0AAI@Z
_TEXT	SEGMENT PARA USE32 PUBLIC 'CODE'
_TEXT	ENDS
;	COMDAT ?erase@?$_Tree@V?$_Tmap_traits@KPAVCCtrl@@U?$less@K@std@@V?$allocator@U?$pair@$$CBKPAVCCtrl@@@std@@@3@$0A@@std@@@std@@QAE?AViterator@12@V312@0@Z
_TEXT	SEGMENT PARA USE32 PUBLIC 'CODE'
_TEXT	ENDS
;	COMDAT ?clear@?$_Tree@V?$_Tmap_traits@KPAVCCtrl@@U?$less@K@std@@V?$allocator@U?$pair@$$CBKPAVCCtrl@@@std@@@3@$0A@@std@@@std@@QAEXXZ
_TEXT	SEGMENT PARA USE32 PUBLIC 'CODE'
_TEXT	ENDS
;	COMDAT ?_Erase@?$_Tree@V?$_Tmap_traits@KPAVCCtrl@@U?$less@K@std@@V?$allocator@U?$pair@$$CBKPAVCCtrl@@@std@@@3@$0A@@std@@@std@@IAEXPAU_Node@?$_Tree_nod@V?$_Tmap_traits@KPAVCCtrl@@U?$less@K@std@@V?$allocator@U?$pair@$$CBKPAVCCtrl@@@std@@@3@$0A@@std@@@2@@Z
_TEXT	SEGMENT PARA USE32 PUBLIC 'CODE'
_TEXT	ENDS
;	COMDAT ?destroy@?$allocator@U_Node@?$_Tree_nod@V?$_Tmap_traits@KPAVCCtrl@@U?$less@K@std@@V?$allocator@U?$pair@$$CBKPAVCCtrl@@@std@@@3@$0A@@std@@@std@@@std@@QAEXPAU_Node@?$_Tree_nod@V?$_Tmap_traits@KPAVCCtrl@@U?$less@K@std@@V?$allocator@U?$pair@$$CBKPAVCCtrl@@@std@@@3@$0A@@std@@@2@@Z
_TEXT	SEGMENT PARA USE32 PUBLIC 'CODE'
_TEXT	ENDS
;	COMDAT ??$_Destroy@U_Node@?$_Tree_nod@V?$_Tmap_traits@KPAVCCtrl@@U?$less@K@std@@V?$allocator@U?$pair@$$CBKPAVCCtrl@@@std@@@3@$0A@@std@@@std@@@std@@YAXPAU_Node@?$_Tree_nod@V?$_Tmap_traits@KPAVCCtrl@@U?$less@K@std@@V?$allocator@U?$pair@$$CBKPAVCCtrl@@@std@@@3@$0A@@std@@@0@@Z
_TEXT	SEGMENT PARA USE32 PUBLIC 'CODE'
_TEXT	ENDS
;	COMDAT ?erase@?$_Tree@V?$_Tmap_traits@KPAVCCtrl@@U?$less@K@std@@V?$allocator@U?$pair@$$CBKPAVCCtrl@@@std@@@3@$0A@@std@@@std@@QAE?AViterator@12@V312@@Z
_TEXT	SEGMENT PARA USE32 PUBLIC 'CODE'
_TEXT	ENDS
;	COMDAT ??Eiterator@?$_Tree@V?$_Tmap_traits@KPAVCCtrl@@U?$less@K@std@@V?$allocator@U?$pair@$$CBKPAVCCtrl@@@std@@@3@$0A@@std@@@std@@QAE?AV012@H@Z
_TEXT	SEGMENT PARA USE32 PUBLIC 'CODE'
_TEXT	ENDS
;	COMDAT ??5@YAAAVCAr@@AAV0@AAUD3DXVECTOR3@@@Z
_TEXT	SEGMENT PARA USE32 PUBLIC 'CODE'
_TEXT	ENDS
;	COMDAT ??5CAr@@QAEAAV0@AAM@Z
_TEXT	SEGMENT PARA USE32 PUBLIC 'CODE'
_TEXT	ENDS
;	COMDAT ??5CAr@@QAEAAV0@AAJ@Z
_TEXT	SEGMENT PARA USE32 PUBLIC 'CODE'
_TEXT	ENDS
;	COMDAT ?time_null@@YAJXZ
_TEXT	SEGMENT PARA USE32 PUBLIC 'CODE'
_TEXT	ENDS
;	COMDAT ??6CAr@@QAEAAV0@J@Z
_TEXT	SEGMENT PARA USE32 PUBLIC 'CODE'
_TEXT	ENDS
;	COMDAT ??6@YAAAVCAr@@AAV0@UD3DXVECTOR3@@@Z
_TEXT	SEGMENT PARA USE32 PUBLIC 'CODE'
_TEXT	ENDS
;	COMDAT ??6CAr@@QAEAAV0@M@Z
_TEXT	SEGMENT PARA USE32 PUBLIC 'CODE'
_TEXT	ENDS
;	COMDAT ??1?$basic_string@DU?$char_traits@D@std@@V?$allocator@D@2@@std@@QAE@XZ
_TEXT	SEGMENT PARA USE32 PUBLIC 'CODE'
_TEXT	ENDS
;	COMDAT ??0?$basic_string@DU?$char_traits@D@std@@V?$allocator@D@2@@std@@QAE@PBD@Z
_TEXT	SEGMENT PARA USE32 PUBLIC 'CODE'
_TEXT	ENDS
;	COMDAT ??0?$allocator@D@std@@QAE@XZ
_TEXT	SEGMENT PARA USE32 PUBLIC 'CODE'
_TEXT	ENDS
;	COMDAT ?assign@?$basic_string@DU?$char_traits@D@std@@V?$allocator@D@2@@std@@QAEAAV12@PBD@Z
_TEXT	SEGMENT PARA USE32 PUBLIC 'CODE'
_TEXT	ENDS
;	COMDAT ?assign@?$basic_string@DU?$char_traits@D@std@@V?$allocator@D@2@@std@@QAEAAV12@PBDI@Z
_TEXT	SEGMENT PARA USE32 PUBLIC 'CODE'
_TEXT	ENDS
;	COMDAT ?_Inside@?$basic_string@DU?$char_traits@D@std@@V?$allocator@D@2@@std@@IAE_NPBD@Z
_TEXT	SEGMENT PARA USE32 PUBLIC 'CODE'
_TEXT	ENDS
;	COMDAT ?length@?$char_traits@D@std@@SAIPBD@Z
_TEXT	SEGMENT PARA USE32 PUBLIC 'CODE'
_TEXT	ENDS
;	COMDAT ?c_str@?$basic_string@DU?$char_traits@D@std@@V?$allocator@D@2@@std@@QBEPBDXZ
_TEXT	SEGMENT PARA USE32 PUBLIC 'CODE'
_TEXT	ENDS
;	COMDAT ??6CAr@@QAEAAV0@I@Z
_TEXT	SEGMENT PARA USE32 PUBLIC 'CODE'
_TEXT	ENDS
;	COMDAT ??_7__MINIGAME_EXT_PACKET@@6B@
CONST	SEGMENT DWORD USE32 PUBLIC 'CONST'
CONST	ENDS
;	COMDAT ??5CAr@@QAEAAV0@AAG@Z
_TEXT	SEGMENT PARA USE32 PUBLIC 'CODE'
_TEXT	ENDS
;	COMDAT ??5CAr@@QAEAAV0@AAH@Z
_TEXT	SEGMENT PARA USE32 PUBLIC 'CODE'
_TEXT	ENDS
;	COMDAT ??6CAr@@QAEAAV0@G@Z
_TEXT	SEGMENT PARA USE32 PUBLIC 'CODE'
_TEXT	ENDS
;	COMDAT ??6CAr@@QAEAAV0@H@Z
_TEXT	SEGMENT PARA USE32 PUBLIC 'CODE'
_TEXT	ENDS
;	COMDAT ??_7__MINIGAME_PACKET@@6B@
CONST	SEGMENT DWORD USE32 PUBLIC 'CONST'
CONST	ENDS
;	COMDAT ??1?$vector@KV?$allocator@K@std@@@std@@QAE@XZ
_TEXT	SEGMENT PARA USE32 PUBLIC 'CODE'
_TEXT	ENDS
;	COMDAT ?_Tidy@?$vector@KV?$allocator@K@std@@@std@@IAEXXZ
_TEXT	SEGMENT PARA USE32 PUBLIC 'CODE'
_TEXT	ENDS
;	COMDAT ?_Destroy@?$vector@KV?$allocator@K@std@@@std@@IAEXPAK0@Z
_TEXT	SEGMENT PARA USE32 PUBLIC 'CODE'
_TEXT	ENDS
;	COMDAT ??$_Destroy_range@KV?$allocator@K@std@@@std@@YAXPAK0AAV?$allocator@K@0@@Z
_TEXT	SEGMENT PARA USE32 PUBLIC 'CODE'
_TEXT	ENDS
;	COMDAT ?_Ptr_cat@std@@YA?AU_Scalar_ptr_iterator_tag@1@PAK0@Z
_TEXT	SEGMENT PARA USE32 PUBLIC 'CODE'
_TEXT	ENDS
;	COMDAT ?deallocate@?$allocator@K@std@@QAEXPAKI@Z
_TEXT	SEGMENT PARA USE32 PUBLIC 'CODE'
_TEXT	ENDS
;	COMDAT ??0?$vector@KV?$allocator@K@std@@@std@@QAE@XZ
_TEXT	SEGMENT PARA USE32 PUBLIC 'CODE'
_TEXT	ENDS
;	COMDAT ??0?$_Vector_val@KV?$allocator@K@std@@@std@@IAE@V?$allocator@K@1@@Z
_TEXT	SEGMENT PARA USE32 PUBLIC 'CODE'
_TEXT	ENDS
;	COMDAT ??0?$allocator@K@std@@QAE@ABV01@@Z
_TEXT	SEGMENT PARA USE32 PUBLIC 'CODE'
_TEXT	ENDS
;	COMDAT ??0?$allocator@K@std@@QAE@XZ
_TEXT	SEGMENT PARA USE32 PUBLIC 'CODE'
_TEXT	ENDS
;	COMDAT ?_Buy@?$vector@KV?$allocator@K@std@@@std@@IAE_NI@Z
_TEXT	SEGMENT PARA USE32 PUBLIC 'CODE'
_TEXT	ENDS
;	COMDAT ?max_size@?$vector@KV?$allocator@K@std@@@std@@QBEIXZ
_TEXT	SEGMENT PARA USE32 PUBLIC 'CODE'
_TEXT	ENDS
;	COMDAT ?max_size@?$allocator@K@std@@QBEIXZ
_TEXT	SEGMENT PARA USE32 PUBLIC 'CODE'
_TEXT	ENDS
;	COMDAT ?_Xlen@?$vector@KV?$allocator@K@std@@@std@@IBEXXZ
_TEXT	SEGMENT PARA USE32 PUBLIC 'CODE'
_TEXT	ENDS
;	COMDAT ?allocate@?$allocator@K@std@@QAEPAKI@Z
_TEXT	SEGMENT PARA USE32 PUBLIC 'CODE'
_TEXT	ENDS
;	COMDAT ??$_Allocate@K@std@@YAPAKIPAK@Z
_TEXT	SEGMENT PARA USE32 PUBLIC 'CODE'
_TEXT	ENDS
;	COMDAT ??5CAr@@QAEAAV0@AAK@Z
_TEXT	SEGMENT PARA USE32 PUBLIC 'CODE'
_TEXT	ENDS
;	COMDAT ??6CAr@@QAEAAV0@K@Z
_TEXT	SEGMENT PARA USE32 PUBLIC 'CODE'
_TEXT	ENDS
;	COMDAT ?IsStoring@CAr@@QBEHXZ
_TEXT	SEGMENT PARA USE32 PUBLIC 'CODE'
_TEXT	ENDS
;	COMDAT ??0D3DXVECTOR3@@QAE@MMM@Z
_TEXT	SEGMENT PARA USE32 PUBLIC 'CODE'
_TEXT	ENDS
;	COMDAT ?GetTickCount@CTime@ATL@@SG?AV12@XZ
_TEXT	SEGMENT PARA USE32 PUBLIC 'CODE'
_TEXT	ENDS
;	COMDAT ??0CTime@ATL@@QAE@_J@Z
_TEXT	SEGMENT PARA USE32 PUBLIC 'CODE'
_TEXT	ENDS
;	COMDAT ??0D3DXVECTOR3@@QAE@XZ
_TEXT	SEGMENT PARA USE32 PUBLIC 'CODE'
_TEXT	ENDS
;	COMDAT ??0CTime@ATL@@QAE@XZ
_TEXT	SEGMENT PARA USE32 PUBLIC 'CODE'
_TEXT	ENDS
sxdata	SEGMENT DWORD USE32 'SXDATA'
sxdata	ENDS
FLAT	GROUP _DATA, CONST, _BSS
	ASSUME	CS: FLAT, DS: FLAT, SS: FLAT
endif

INCLUDELIB LIBCMT
INCLUDELIB OLDNAMES

PUBLIC	_cosf
EXTRN	__fltused:NEAR
; Function compile flags: /Ogty
; File c:\program files\microsoft visual studio .net 2003\vc7\include\math.h
;	COMDAT _cosf
_TEXT	SEGMENT
__X$ = 8						; size = 4
_cosf	PROC NEAR					; COMDAT

; 444  :         {return ((float)cos((double)_X)); }

  00000	d9 44 24 04	 fld	 DWORD PTR __X$[esp-4]
  00004	d9 ff		 fcos
  00006	c3		 ret	 0
_cosf	ENDP
_TEXT	ENDS
PUBLIC	_sinf
; Function compile flags: /Ogty
;	COMDAT _sinf
_TEXT	SEGMENT
__X$ = 8						; size = 4
_sinf	PROC NEAR					; COMDAT

; 466  :         {return ((float)sin((double)_X)); }

  00000	d9 44 24 04	 fld	 DWORD PTR __X$[esp-4]
  00004	d9 fe		 fsin
  00006	c3		 ret	 0
_sinf	ENDP
_TEXT	ENDS
PUBLIC	?cos@@YAMM@Z					; cos
; Function compile flags: /Ogty
;	COMDAT ?cos@@YAMM@Z
_TEXT	SEGMENT
__X$ = 8						; size = 4
?cos@@YAMM@Z PROC NEAR					; cos, COMDAT

; 549  :         {return (cosf(_X)); }

  00000	d9 44 24 04	 fld	 DWORD PTR __X$[esp-4]
  00004	d9 ff		 fcos
  00006	c3		 ret	 0
?cos@@YAMM@Z ENDP					; cos
_TEXT	ENDS
PUBLIC	??0D3DXVECTOR3@@QAE@XZ				; D3DXVECTOR3::D3DXVECTOR3
; Function compile flags: /Ogty
; File c:\documents and settings\test\mes documents\source\virtuos_v17\build\program\dx_sdk\d3dx9math.h
;	COMDAT ??0D3DXVECTOR3@@QAE@XZ
_TEXT	SEGMENT
??0D3DXVECTOR3@@QAE@XZ PROC NEAR			; D3DXVECTOR3::D3DXVECTOR3, COMDAT
; _this$ = ecx

; 165  :     D3DXVECTOR3() {};

  00000	8b c1		 mov	 eax, ecx
  00002	c3		 ret	 0
??0D3DXVECTOR3@@QAE@XZ ENDP				; D3DXVECTOR3::D3DXVECTOR3
_TEXT	ENDS
PUBLIC	?xRand@@YAKXZ					; xRand
EXTRN	?g_next@@3KA:DWORD				; g_next
; Function compile flags: /Ogty
; File c:\documents and settings\test\mes documents\source\virtuos_v17\build\program\_common\xutil.h
;	COMDAT ?xRand@@YAKXZ
_TEXT	SEGMENT
?xRand@@YAKXZ PROC NEAR					; xRand, COMDAT

; 16   : 	g_next = g_next * 1103515245 + 12345;// + nRandomSeed[ i++ ];

  00000	a1 00 00 00 00	 mov	 eax, DWORD PTR ?g_next@@3KA ; g_next
  00005	69 c0 6d 4e c6
	41		 imul	 eax, 1103515245		; 41c64e6dH
  0000b	05 39 30 00 00	 add	 eax, 12345		; 00003039H
  00010	a3 00 00 00 00	 mov	 DWORD PTR ?g_next@@3KA, eax ; g_next

; 17   : 	return g_next;	//   .
; 18   : }

  00015	c3		 ret	 0
?xRand@@YAKXZ ENDP					; xRand
_TEXT	ENDS
PUBLIC	?xRandom@@YAKK@Z				; xRandom
; Function compile flags: /Ogty
;	COMDAT ?xRandom@@YAKK@Z
_TEXT	SEGMENT
_num$ = 8						; size = 4
?xRandom@@YAKK@Z PROC NEAR				; xRandom, COMDAT

; 22   : 	return  xRand() % num;

  00000	a1 00 00 00 00	 mov	 eax, DWORD PTR ?g_next@@3KA ; g_next
  00005	69 c0 6d 4e c6
	41		 imul	 eax, 1103515245		; 41c64e6dH
  0000b	05 39 30 00 00	 add	 eax, 12345		; 00003039H
  00010	a3 00 00 00 00	 mov	 DWORD PTR ?g_next@@3KA, eax ; g_next
  00015	33 d2		 xor	 edx, edx
  00017	f7 74 24 04	 div	 DWORD PTR _num$[esp-4]
  0001b	8b c2		 mov	 eax, edx

; 23   : }

  0001d	c3		 ret	 0
?xRandom@@YAKK@Z ENDP					; xRandom
_TEXT	ENDS
PUBLIC	?AngleToVector@@YAXPAUD3DXVECTOR3@@MMM@Z	; AngleToVector
PUBLIC	__real@3c8efa35
;	COMDAT __real@3c8efa35
; File c:\program files\microsoft visual studio .net 2003\vc7\include\math.h
CONST	SEGMENT
__real@3c8efa35 DD 03c8efa35r			; 0.0174533
; Function compile flags: /Ogty
; File c:\documents and settings\test\mes documents\source\virtuos_v17\build\program\_common\xutil3d.h
CONST	ENDS
;	COMDAT ?AngleToVector@@YAXPAUD3DXVECTOR3@@MMM@Z
_TEXT	SEGMENT
_vDelta$ = 8						; size = 4
_fAngXZ$ = 12						; size = 4
_fAngH$ = 16						; size = 4
_fSpeed$ = 20						; size = 4
?AngleToVector@@YAXPAUD3DXVECTOR3@@MMM@Z PROC NEAR	; AngleToVector, COMDAT

; 27   : 	float	fDist;
; 28   : 
; 29   : 	fAngXZ = D3DXToRadian(fAngXZ);

  00000	d9 44 24 08	 fld	 DWORD PTR _fAngXZ$[esp-4]

; 30   : 	fAngH  = D3DXToRadian(fAngH);
; 31   : 	fDist = cosf(-fAngH) * fSpeed;
; 32   : 	vDelta->x = sinf(fAngXZ) * fDist;

  00004	8b 44 24 04	 mov	 eax, DWORD PTR _vDelta$[esp-4]
  00008	d8 0d 00 00 00
	00		 fmul	 DWORD PTR __real@3c8efa35
  0000e	d9 44 24 0c	 fld	 DWORD PTR _fAngH$[esp-4]
  00012	d8 0d 00 00 00
	00		 fmul	 DWORD PTR __real@3c8efa35
  00018	d9 e0		 fchs
  0001a	d9 c0		 fld	 ST(0)
  0001c	d9 ff		 fcos
  0001e	d8 4c 24 10	 fmul	 DWORD PTR _fSpeed$[esp-4]
  00022	d9 c2		 fld	 ST(2)
  00024	d9 fe		 fsin
  00026	d8 c9		 fmul	 ST(0), ST(1)
  00028	d9 18		 fstp	 DWORD PTR [eax]

; 33   : 	vDelta->z = -cosf(fAngXZ) * fDist;

  0002a	d9 ca		 fxch	 ST(2)
  0002c	d9 ff		 fcos
  0002e	d8 ca		 fmul	 ST(0), ST(2)
  00030	d9 e0		 fchs
  00032	d9 58 08	 fstp	 DWORD PTR [eax+8]
  00035	dd d9		 fstp	 ST(1)

; 34   : 	vDelta->y = -sinf(-fAngH) * fSpeed;

  00037	d9 fe		 fsin
  00039	d8 4c 24 10	 fmul	 DWORD PTR _fSpeed$[esp-4]
  0003d	d9 e0		 fchs
  0003f	d9 58 04	 fstp	 DWORD PTR [eax+4]

; 35   : }

  00042	c3		 ret	 0
?AngleToVector@@YAXPAUD3DXVECTOR3@@MMM@Z ENDP		; AngleToVector
_TEXT	ENDS
PUBLIC	?AngleToVectorXZ@@YAXPAUD3DXVECTOR3@@MM@Z	; AngleToVectorXZ
; Function compile flags: /Ogty
;	COMDAT ?AngleToVectorXZ@@YAXPAUD3DXVECTOR3@@MM@Z
_TEXT	SEGMENT
_vDelta$ = 8						; size = 4
_fAngXZ$ = 12						; size = 4
_fSpeed$ = 16						; size = 4
?AngleToVectorXZ@@YAXPAUD3DXVECTOR3@@MM@Z PROC NEAR	; AngleToVectorXZ, COMDAT

; 39   : 	fAngXZ = D3DXToRadian(fAngXZ);

  00000	d9 44 24 08	 fld	 DWORD PTR _fAngXZ$[esp-4]

; 40   : 	vDelta->x = sinf(fAngXZ) * fSpeed;

  00004	8b 44 24 04	 mov	 eax, DWORD PTR _vDelta$[esp-4]
  00008	d8 0d 00 00 00
	00		 fmul	 DWORD PTR __real@3c8efa35

; 41   : 	vDelta->z = -cosf(fAngXZ) * fSpeed;
; 42   : 	vDelta->y = 0;

  0000e	c7 40 04 00 00
	00 00		 mov	 DWORD PTR [eax+4], 0
  00015	d9 c0		 fld	 ST(0)
  00017	d9 fe		 fsin
  00019	d8 4c 24 0c	 fmul	 DWORD PTR _fSpeed$[esp-4]
  0001d	d9 18		 fstp	 DWORD PTR [eax]
  0001f	d9 ff		 fcos
  00021	d8 4c 24 0c	 fmul	 DWORD PTR _fSpeed$[esp-4]
  00025	d9 e0		 fchs
  00027	d9 58 08	 fstp	 DWORD PTR [eax+8]

; 43   : }

  0002a	c3		 ret	 0
?AngleToVectorXZ@@YAXPAUD3DXVECTOR3@@MM@Z ENDP		; AngleToVectorXZ
_TEXT	ENDS
PUBLIC	?IsDelete@CObj@@QAEHXZ				; CObj::IsDelete
; Function compile flags: /Ogty
; File c:\documents and settings\test\mes documents\source\virtuos_v17\build\program\_common\obj.h
;	COMDAT ?IsDelete@CObj@@QAEHXZ
_TEXT	SEGMENT
?IsDelete@CObj@@QAEHXZ PROC NEAR			; CObj::IsDelete, COMDAT
; _this$ = ecx

; 180  : 	BOOL			IsDelete()	{ return (m_dwFlags & OBJ_FLAG_DELETE);  }

  00000	8b 41 04	 mov	 eax, DWORD PTR [ecx+4]
  00003	83 e0 01	 and	 eax, 1
  00006	c3		 ret	 0
?IsDelete@CObj@@QAEHXZ ENDP				; CObj::IsDelete
_TEXT	ENDS
PUBLIC	?GetAngleX@CObj@@QAEMXZ				; CObj::GetAngleX
; Function compile flags: /Ogty
;	COMDAT ?GetAngleX@CObj@@QAEMXZ
_TEXT	SEGMENT
?GetAngleX@CObj@@QAEMXZ PROC NEAR			; CObj::GetAngleX, COMDAT
; _this$ = ecx

; 186  : 	FLOAT			GetAngleX() { return m_fAngX; }

  00000	d9 41 1c	 fld	 DWORD PTR [ecx+28]
  00003	c3		 ret	 0
?GetAngleX@CObj@@QAEMXZ ENDP				; CObj::GetAngleX
_TEXT	ENDS
PUBLIC	?GetAngle@CObj@@QAEMXZ				; CObj::GetAngle
; Function compile flags: /Ogty
;	COMDAT ?GetAngle@CObj@@QAEMXZ
_TEXT	SEGMENT
?GetAngle@CObj@@QAEMXZ PROC NEAR			; CObj::GetAngle, COMDAT
; _this$ = ecx

; 217  : 	FLOAT			GetAngle()	{ return m_fAngle; }

  00000	d9 41 18	 fld	 DWORD PTR [ecx+24]
  00003	c3		 ret	 0
?GetAngle@CObj@@QAEMXZ ENDP				; CObj::GetAngle
_TEXT	ENDS
PUBLIC	?IsValidObj@@YAHPAVCObj@@@Z			; IsValidObj
; Function compile flags: /Ogty
;	COMDAT ?IsValidObj@@YAHPAVCObj@@@Z
_TEXT	SEGMENT
_pObj$ = 8						; size = 4
?IsValidObj@@YAHPAVCObj@@@Z PROC NEAR			; IsValidObj, COMDAT

; 327  : 	return pObj && ( pObj->IsDelete() == FALSE ); 

  00000	8b 44 24 04	 mov	 eax, DWORD PTR _pObj$[esp-4]
  00004	85 c0		 test	 eax, eax
  00006	74 0c		 je	 SHORT $L259758
  00008	f6 40 04 01	 test	 BYTE PTR [eax+4], 1
  0000c	75 06		 jne	 SHORT $L259758
  0000e	b8 01 00 00 00	 mov	 eax, 1

; 328  : }

  00013	c3		 ret	 0
$L259758:

; 327  : 	return pObj && ( pObj->IsDelete() == FALSE ); 

  00014	33 c0		 xor	 eax, eax

; 328  : }

  00016	c3		 ret	 0
?IsValidObj@@YAHPAVCObj@@@Z ENDP			; IsValidObj
_TEXT	ENDS
PUBLIC	?IsEndFrame@CModel@@QAEHXZ			; CModel::IsEndFrame
; Function compile flags: /Ogty
; File c:\documents and settings\test\mes documents\source\virtuos_v17\build\program\_common\model.h
;	COMDAT ?IsEndFrame@CModel@@QAEHXZ
_TEXT	SEGMENT
?IsEndFrame@CModel@@QAEHXZ PROC NEAR			; CModel::IsEndFrame, COMDAT
; _this$ = ecx

; 142  : 	BOOL	IsEndFrame() { return m_bEndFrame; }

  00000	8b 81 9c 00 00
	00		 mov	 eax, DWORD PTR [ecx+156]
  00006	c3		 ret	 0
?IsEndFrame@CModel@@QAEHXZ ENDP				; CModel::IsEndFrame
_TEXT	ENDS
PUBLIC	?GetStateFlag@CAction@@QAEKXZ			; CAction::GetStateFlag
; Function compile flags: /Ogty
; File c:\documents and settings\test\mes documents\source\virtuos_v17\build\program\_aiinterface\action.h
;	COMDAT ?GetStateFlag@CAction@@QAEKXZ
_TEXT	SEGMENT
?GetStateFlag@CAction@@QAEKXZ PROC NEAR			; CAction::GetStateFlag, COMDAT
; _this$ = ecx

; 288  : 	DWORD			GetStateFlag() { return m_dwStateFlag; }

  00000	8b 41 08	 mov	 eax, DWORD PTR [ecx+8]
  00003	c3		 ret	 0
?GetStateFlag@CAction@@QAEKXZ ENDP			; CAction::GetStateFlag
_TEXT	ENDS
PUBLIC	?GetState@CAction@@QAEKXZ			; CAction::GetState
; Function compile flags: /Ogty
;	COMDAT ?GetState@CAction@@QAEKXZ
_TEXT	SEGMENT
?GetState@CAction@@QAEKXZ PROC NEAR			; CAction::GetState, COMDAT
; _this$ = ecx

; 291  : 	DWORD			GetState() { return m_dwState; }

  00000	8b 41 04	 mov	 eax, DWORD PTR [ecx+4]
  00003	c3		 ret	 0
?GetState@CAction@@QAEKXZ ENDP				; CAction::GetState
_TEXT	ENDS
PUBLIC	?SetState@CAction@@QAEXKK@Z			; CAction::SetState
EXTRN	?ResetState@CAction@@QAEXK@Z:NEAR		; CAction::ResetState
; Function compile flags: /Ogty
;	COMDAT ?SetState@CAction@@QAEXKK@Z
_TEXT	SEGMENT
_dwType$ = 8						; size = 4
_dwState$ = 12						; size = 4
?SetState@CAction@@QAEXKK@Z PROC NEAR			; CAction::SetState, COMDAT
; _this$ = ecx

; 292  : 	void			SetState( DWORD dwType, DWORD dwState )	{ ResetState(dwType);	m_dwState |= dwState; }

  00000	8b 44 24 04	 mov	 eax, DWORD PTR _dwType$[esp-4]
  00004	56		 push	 esi
  00005	50		 push	 eax
  00006	8b f1		 mov	 esi, ecx
  00008	e8 00 00 00 00	 call	 ?ResetState@CAction@@QAEXK@Z ; CAction::ResetState
  0000d	8b 46 04	 mov	 eax, DWORD PTR [esi+4]
  00010	8b 4c 24 0c	 mov	 ecx, DWORD PTR _dwState$[esp]
  00014	0b c1		 or	 eax, ecx
  00016	89 46 04	 mov	 DWORD PTR [esi+4], eax
  00019	5e		 pop	 esi
  0001a	c2 08 00	 ret	 8
?SetState@CAction@@QAEXKK@Z ENDP			; CAction::SetState
_TEXT	ENDS
PUBLIC	?SetJumpState@CAction@@QAEXK@Z			; CAction::SetJumpState
; Function compile flags: /Ogty
;	COMDAT ?SetJumpState@CAction@@QAEXK@Z
_TEXT	SEGMENT
_dwState$ = 8						; size = 4
?SetJumpState@CAction@@QAEXK@Z PROC NEAR		; CAction::SetJumpState, COMDAT
; _this$ = ecx

; 296  : 	void			SetJumpState( DWORD dwState ) { ResetState(OBJSTA_JUMP_ALL);	m_dwState |= dwState; }

  00000	56		 push	 esi
  00001	68 00 f0 00 00	 push	 61440			; 0000f000H
  00006	8b f1		 mov	 esi, ecx
  00008	e8 00 00 00 00	 call	 ?ResetState@CAction@@QAEXK@Z ; CAction::ResetState
  0000d	8b 4e 04	 mov	 ecx, DWORD PTR [esi+4]
  00010	8b 44 24 08	 mov	 eax, DWORD PTR _dwState$[esp]
  00014	0b c8		 or	 ecx, eax
  00016	89 4e 04	 mov	 DWORD PTR [esi+4], ecx
  00019	5e		 pop	 esi
  0001a	c2 04 00	 ret	 4
?SetJumpState@CAction@@QAEXK@Z ENDP			; CAction::SetJumpState
_TEXT	ENDS
PUBLIC	?IsStateFlag@CAction@@QAEHK@Z			; CAction::IsStateFlag
; Function compile flags: /Ogty
;	COMDAT ?IsStateFlag@CAction@@QAEHK@Z
_TEXT	SEGMENT
_dwStateFlag$ = 8					; size = 4
?IsStateFlag@CAction@@QAEHK@Z PROC NEAR			; CAction::IsStateFlag, COMDAT
; _this$ = ecx

; 308  : 	BOOL			IsStateFlag( DWORD dwStateFlag ) { return ( m_dwStateFlag & dwStateFlag ) ? TRUE : FALSE; }

  00000	8b 41 08	 mov	 eax, DWORD PTR [ecx+8]
  00003	23 44 24 04	 and	 eax, DWORD PTR _dwStateFlag$[esp-4]
  00007	f7 d8		 neg	 eax
  00009	1b c0		 sbb	 eax, eax
  0000b	f7 d8		 neg	 eax
  0000d	c2 04 00	 ret	 4
?IsStateFlag@CAction@@QAEHK@Z ENDP			; CAction::IsStateFlag
_TEXT	ENDS
PUBLIC	?IsDie@CAction@@QAEHXZ				; CAction::IsDie
; Function compile flags: /Ogty
;	COMDAT ?IsDie@CAction@@QAEHXZ
_TEXT	SEGMENT
?IsDie@CAction@@QAEHXZ PROC NEAR			; CAction::IsDie, COMDAT
; _this$ = ecx

; 310  : 	BOOL			IsDie() { return (m_dwState & OBJSTA_DIE_ALL) ? TRUE : FALSE; }

  00000	8b 41 04	 mov	 eax, DWORD PTR [ecx+4]
  00003	c1 e8 1b	 shr	 eax, 27			; 0000001bH
  00006	83 e0 01	 and	 eax, 1
  00009	c3		 ret	 0
?IsDie@CAction@@QAEHXZ ENDP				; CAction::IsDie
_TEXT	ENDS
PUBLIC	?IsActAttack@CAction@@QAEHXZ			; CAction::IsActAttack
; Function compile flags: /Ogty
;	COMDAT ?IsActAttack@CAction@@QAEHXZ
_TEXT	SEGMENT
?IsActAttack@CAction@@QAEHXZ PROC NEAR			; CAction::IsActAttack, COMDAT
; _this$ = ecx

; 322  : 	BOOL			IsActAttack()		{ return m_dwState & OBJSTA_ATK_ALL; }

  00000	8b 41 04	 mov	 eax, DWORD PTR [ecx+4]
  00003	25 00 00 ff 00	 and	 eax, 16711680		; 00ff0000H
  00008	c3		 ret	 0
?IsActAttack@CAction@@QAEHXZ ENDP			; CAction::IsActAttack
_TEXT	ENDS
PUBLIC	?IsActDamage@CAction@@QAEHXZ			; CAction::IsActDamage
; Function compile flags: /Ogty
;	COMDAT ?IsActDamage@CAction@@QAEHXZ
_TEXT	SEGMENT
?IsActDamage@CAction@@QAEHXZ PROC NEAR			; CAction::IsActDamage, COMDAT
; _this$ = ecx

; 323  : 	BOOL			IsActDamage()		{ return m_dwState & OBJSTA_DMG_ALL; }

  00000	8b 41 04	 mov	 eax, DWORD PTR [ecx+4]
  00003	25 00 00 00 0f	 and	 eax, 251658240		; 0f000000H
  00008	c3		 ret	 0
?IsActDamage@CAction@@QAEHXZ ENDP			; CAction::IsActDamage
_TEXT	ENDS
PUBLIC	?SetExternalForce@CActionMover@@QAEXABUD3DXVECTOR3@@@Z ; CActionMover::SetExternalForce
; Function compile flags: /Ogty
; File c:\documents and settings\test\mes documents\source\virtuos_v17\build\program\_aiinterface\actionmover.h
;	COMDAT ?SetExternalForce@CActionMover@@QAEXABUD3DXVECTOR3@@@Z
_TEXT	SEGMENT
_vForce$ = 8						; size = 4
?SetExternalForce@CActionMover@@QAEXABUD3DXVECTOR3@@@Z PROC NEAR ; CActionMover::SetExternalForce, COMDAT
; _this$ = ecx

; 132  : 	void			SetExternalForce( const D3DXVECTOR3 &vForce ) { m_vDeltaE = vForce; }		//   .

  00000	8b 44 24 04	 mov	 eax, DWORD PTR _vForce$[esp-4]
  00004	8b 10		 mov	 edx, DWORD PTR [eax]
  00006	83 c1 5c	 add	 ecx, 92			; 0000005cH
  00009	89 11		 mov	 DWORD PTR [ecx], edx
  0000b	8b 50 04	 mov	 edx, DWORD PTR [eax+4]
  0000e	89 51 04	 mov	 DWORD PTR [ecx+4], edx
  00011	8b 40 08	 mov	 eax, DWORD PTR [eax+8]
  00014	89 41 08	 mov	 DWORD PTR [ecx+8], eax
  00017	c2 04 00	 ret	 4
?SetExternalForce@CActionMover@@QAEXABUD3DXVECTOR3@@@Z ENDP ; CActionMover::SetExternalForce
_TEXT	ENDS
PUBLIC	?IsPlayer@CMover@@QAEHXZ			; CMover::IsPlayer
; Function compile flags: /Ogty
; File c:\documents and settings\test\mes documents\source\virtuos_v17\build\program\_common\mover.h
;	COMDAT ?IsPlayer@CMover@@QAEHXZ
_TEXT	SEGMENT
?IsPlayer@CMover@@QAEHXZ PROC NEAR			; CMover::IsPlayer, COMDAT
; _this$ = ecx

; 1042 : 	BOOL			IsPlayer()			{ return m_bPlayer; }

  00000	8b 81 34 02 00
	00		 mov	 eax, DWORD PTR [ecx+564]
  00006	c3		 ret	 0
?IsPlayer@CMover@@QAEHXZ ENDP				; CMover::IsPlayer
_TEXT	ENDS
PUBLIC	?IsLive@CMover@@QAEHXZ				; CMover::IsLive
; Function compile flags: /Ogty
;	COMDAT ?IsLive@CMover@@QAEHXZ
_TEXT	SEGMENT
?IsLive@CMover@@QAEHXZ PROC NEAR			; CMover::IsLive, COMDAT
; _this$ = ecx

; 1277 : 	BOOL			IsLive() { return m_pActMover->IsDie() == FALSE || m_nHitPoint > 0; }		// &&   || .  != > 

  00000	8b 81 3c 02 00
	00		 mov	 eax, DWORD PTR [ecx+572]
  00006	f7 40 04 00 00
	00 08		 test	 DWORD PTR [eax+4], 134217728 ; 08000000H
  0000d	74 0d		 je	 SHORT $L259799
  0000f	8b 81 00 06 00
	00		 mov	 eax, DWORD PTR [ecx+1536]
  00015	85 c0		 test	 eax, eax
  00017	7f 03		 jg	 SHORT $L259799
  00019	33 c0		 xor	 eax, eax
  0001b	c3		 ret	 0
$L259799:
  0001c	b8 01 00 00 00	 mov	 eax, 1
  00021	c3		 ret	 0
?IsLive@CMover@@QAEHXZ ENDP				; CMover::IsLive
_TEXT	ENDS
PUBLIC	?GetAct@CMover@@QAE?AW4OBJACT@@XZ		; CMover::GetAct
; Function compile flags: /Ogty
;	COMDAT ?GetAct@CMover@@QAE?AW4OBJACT@@XZ
_TEXT	SEGMENT
?GetAct@CMover@@QAE?AW4OBJACT@@XZ PROC NEAR		; CMover::GetAct, COMDAT
; _this$ = ecx

; 1365 : 	OBJACT			GetAct() { return m_oaAct; }

  00000	8b 81 a0 12 00
	00		 mov	 eax, DWORD PTR [ecx+4768]
  00006	c3		 ret	 0
?GetAct@CMover@@QAE?AW4OBJACT@@XZ ENDP			; CMover::GetAct
_TEXT	ENDS
PUBLIC	?GetActParam@CMover@@AAEHH@Z			; CMover::GetActParam
; Function compile flags: /Ogty
;	COMDAT ?GetActParam@CMover@@AAEHH@Z
_TEXT	SEGMENT
_nIdx$ = 8						; size = 4
?GetActParam@CMover@@AAEHH@Z PROC NEAR			; CMover::GetActParam, COMDAT
; _this$ = ecx

; 1713 : 	int				GetActParam( int nIdx ) { return m_nAParam[nIdx]; }

  00000	8b 44 24 04	 mov	 eax, DWORD PTR _nIdx$[esp-4]
  00004	8b 84 81 a4 12
	00 00		 mov	 eax, DWORD PTR [ecx+eax*4+4772]
  0000b	c2 04 00	 ret	 4
?GetActParam@CMover@@AAEHH@Z ENDP			; CMover::GetActParam
_TEXT	ENDS
PUBLIC	?IsStateMode@CMover@@QAEHK@Z			; CMover::IsStateMode
; Function compile flags: /Ogty
;	COMDAT ?IsStateMode@CMover@@QAEHK@Z
_TEXT	SEGMENT
_dwMode$ = 8						; size = 4
?IsStateMode@CMover@@QAEHK@Z PROC NEAR			; CMover::IsStateMode, COMDAT
; _this$ = ecx

; 1782 : 	return ( ( m_dwStateMode & dwMode ) == dwMode ) ? TRUE : FALSE; 

  00000	8b 81 4c 02 00
	00		 mov	 eax, DWORD PTR [ecx+588]
  00006	8b 4c 24 04	 mov	 ecx, DWORD PTR _dwMode$[esp-4]
  0000a	23 c1		 and	 eax, ecx
  0000c	2b c1		 sub	 eax, ecx
  0000e	f7 d8		 neg	 eax
  00010	1b c0		 sbb	 eax, eax
  00012	40		 inc	 eax

; 1783 : }	

  00013	c2 04 00	 ret	 4
?IsStateMode@CMover@@QAEHK@Z ENDP			; CMover::IsStateMode
_TEXT	ENDS
PUBLIC	?ProcessStateMeleeSkill@CActionMover@@QAEXKH@Z	; CActionMover::ProcessStateMeleeSkill
PUBLIC	??_C@_0BH@GPIKPBBH@ProcessStateMeleeSkill?$AA@	; `string'
PUBLIC	__real@3f266666
PUBLIC	__real@3f400000
PUBLIC	__real@bf400000
EXTRN	?g_nProcessCnt@@3HA:DWORD			; g_nProcessCnt
EXTRN	?OnMeleeSkill@CMover@@QAEHHH@Z:NEAR		; CMover::OnMeleeSkill
;	COMDAT __real@3f266666
CONST	SEGMENT
__real@3f266666 DD 03f266666r			; 0.65
CONST	ENDS
;	COMDAT __real@3f400000
CONST	SEGMENT
__real@3f400000 DD 03f400000r			; 0.75
CONST	ENDS
;	COMDAT __real@bf400000
CONST	SEGMENT
__real@bf400000 DD 0bf400000r			; -0.75
CONST	ENDS
;	COMDAT ??_C@_0BH@GPIKPBBH@ProcessStateMeleeSkill?$AA@
CONST	SEGMENT
??_C@_0BH@GPIKPBBH@ProcessStateMeleeSkill?$AA@ DB 'ProcessStateMeleeSkill'
	DB	00H						; `string'
; Function compile flags: /Ogty
; File c:\documents and settings\test\mes documents\source\virtuos_v17\build\program\_aiinterface\actionmoverstate.cpp
CONST	ENDS
;	COMDAT ?ProcessStateMeleeSkill@CActionMover@@QAEXKH@Z
_TEXT	SEGMENT
_pAddSkillProp$255383 = -20				; size = 4
_pSkillProp$255382 = -16				; size = 4
_vForce$255377 = -12					; size = 12
_vForce$255374 = -12					; size = 12
_dwState$ = 8						; size = 4
_nParam$ = 12						; size = 4
?ProcessStateMeleeSkill@CActionMover@@QAEXKH@Z PROC NEAR ; CActionMover::ProcessStateMeleeSkill, COMDAT
; _this$ = ecx

; 594  : {

  00000	83 ec 14	 sub	 esp, 20			; 00000014H
  00003	53		 push	 ebx
  00004	55		 push	 ebp
  00005	56		 push	 esi
  00006	57		 push	 edi
  00007	8b f9		 mov	 edi, ecx

; 595  : 	CMover* pMover = m_pMover;

  00009	8b 77 0c	 mov	 esi, DWORD PTR [edi+12]

; 596  : 	CModelObject *pModel = (CModelObject *)pMover->m_pModel;
; 597  : 
; 598  : 	int nSkill = pMover->GetActParam(0);

  0000c	8b ae a4 12 00
	00		 mov	 ebp, DWORD PTR [esi+4772]

; 599  : 
; 600  : 	if( nSkill == SI_ACR_YOYO_COUNTER )	//   .

  00012	81 fd cc 00 00
	00		 cmp	 ebp, 204		; 000000ccH
  00018	8b 9e 78 01 00
	00		 mov	 ebx, DWORD PTR [esi+376]
  0001e	74 5f		 je	 SHORT $L259880

; 601  : 	{
; 602  : 	}
; 603  : 	else		
; 604  : 	if( nSkill == SI_BLD_DOUBLESW_SILENTSTRIKE )	//   .

  00020	81 fd 8a 00 00
	00		 cmp	 ebp, 138		; 0000008aH
  00026	75 1e		 jne	 SHORT $L255364

; 605  : 	{
; 606  : 		if( pModel->IsEndFrame() )

  00028	8b 83 9c 00 00
	00		 mov	 eax, DWORD PTR [ebx+156]
  0002e	85 c0		 test	 eax, eax
  00030	74 4d		 je	 SHORT $L259880

; 607  : 		{
; 608  : 			ResetState( OBJSTA_ATK_ALL );

  00032	68 00 00 ff 00	 push	 16711680		; 00ff0000H
  00037	e8 00 00 00 00	 call	 ?ResetState@CAction@@QAEXK@Z ; CAction::ResetState
  0003c	5f		 pop	 edi
  0003d	5e		 pop	 esi
  0003e	5d		 pop	 ebp
  0003f	5b		 pop	 ebx

; 676  : 			}
; 677  : 		}
; 678  : 	}
; 679  : }

  00040	83 c4 14	 add	 esp, 20			; 00000014H
  00043	c2 08 00	 ret	 8
$L255364:

; 609  : 			return;
; 610  : 		}
; 611  : 	} 
; 612  : 	else
; 613  : 	{
; 614  : 		if( pModel->m_fFrameCurrent >= (pModel->m_nFrameMax * 0.65f) )	//     !!!!!!!!!!!!!!!!!!!!!

  00046	db 83 a8 00 00
	00		 fild	 DWORD PTR [ebx+168]
  0004c	d8 0d 00 00 00
	00		 fmul	 DWORD PTR __real@3f266666
  00052	d8 9b a0 00 00
	00		 fcomp	 DWORD PTR [ebx+160]
  00058	df e0		 fnstsw	 ax
  0005a	f6 c4 41	 test	 ah, 65			; 00000041H
  0005d	7a 20		 jp	 SHORT $L259880

; 615  : 		{
; 616  : 			pModel->m_bEndFrame = TRUE;		//      TRUE  .
; 617  : 			ResetState( OBJSTA_ATK_ALL );

  0005f	68 00 00 ff 00	 push	 16711680		; 00ff0000H
  00064	8b cf		 mov	 ecx, edi
  00066	c7 83 9c 00 00
	00 01 00 00 00	 mov	 DWORD PTR [ebx+156], 1
  00070	e8 00 00 00 00	 call	 ?ResetState@CAction@@QAEXK@Z ; CAction::ResetState
  00075	5f		 pop	 edi
  00076	5e		 pop	 esi
  00077	5d		 pop	 ebp
  00078	5b		 pop	 ebx

; 676  : 			}
; 677  : 		}
; 678  : 	}
; 679  : }

  00079	83 c4 14	 add	 esp, 20			; 00000014H
  0007c	c2 08 00	 ret	 8
$L259880:

; 618  : 			return;
; 619  : 		}
; 620  : 	}
; 621  : 
; 622  : 	if( (g_nProcessCnt & 3) == 0 )

  0007f	f6 05 00 00 00
	00 03		 test	 BYTE PTR ?g_nProcessCnt@@3HA, 3
  00086	75 1b		 jne	 SHORT $L255369

; 623  : 	{
; 624  : 		if( m_nShootCnt > 0 )			//  

  00088	8b 87 98 00 00
	00		 mov	 eax, DWORD PTR [edi+152]
  0008e	85 c0		 test	 eax, eax
  00090	7e 11		 jle	 SHORT $L255369

; 625  : 		{
; 626  : 			pMover->OnMeleeSkill( 0 );	//  

  00092	6a 01		 push	 1
  00094	6a 00		 push	 0
  00096	8b ce		 mov	 ecx, esi
  00098	e8 00 00 00 00	 call	 ?OnMeleeSkill@CMover@@QAEHHH@Z ; CMover::OnMeleeSkill

; 627  : 			m_nShootCnt--;				//   .

  0009d	ff 8f 98 00 00
	00		 dec	 DWORD PTR [edi+152]
$L255369:

; 628  : 		}
; 629  : 	}
; 630  : 	
; 631  : 
; 632  : 	if( pModel->m_nPause > 0 )

  000a3	8b 83 94 00 00
	00		 mov	 eax, DWORD PTR [ebx+148]
  000a9	85 c0		 test	 eax, eax
  000ab	7e 11		 jle	 SHORT $L255370
  000ad	5f		 pop	 edi
  000ae	5e		 pop	 esi

; 633  : 	{
; 634  : 		pModel->m_nPause --;

  000af	48		 dec	 eax
  000b0	5d		 pop	 ebp
  000b1	89 83 94 00 00
	00		 mov	 DWORD PTR [ebx+148], eax
  000b7	5b		 pop	 ebx

; 676  : 			}
; 677  : 		}
; 678  : 	}
; 679  : }

  000b8	83 c4 14	 add	 esp, 20			; 00000014H
  000bb	c2 08 00	 ret	 8
$L255370:

; 635  : 	} 
; 636  : 	else
; 637  : 	{
; 638  : 		if( pModel->IsAttrHit() )	//    ?

  000be	8b 03		 mov	 eax, DWORD PTR [ebx]
  000c0	8b cb		 mov	 ecx, ebx
  000c2	ff 50 24	 call	 DWORD PTR [eax+36]
  000c5	85 c0		 test	 eax, eax
  000c7	0f 84 e3 00 00
	00		 je	 $L255387

; 639  : 		{
; 640  : 			if( nSkill == SI_BLD_DOUBLESW_SILENTSTRIKE )	//   .

  000cd	81 fd 8a 00 00
	00		 cmp	 ebp, 138		; 0000008aH
  000d3	75 44		 jne	 SHORT $L255373

; 641  : 			{
; 642  : 				D3DXVECTOR3 vForce;
; 643  : 				AngleToVectorXZ( &vForce, pMover->GetAngle(), 0.75f );		//    .

  000d5	d9 46 18	 fld	 DWORD PTR [esi+24]

; 644  : 				SetExternalForce( vForce );

  000d8	8d 4f 5c	 lea	 ecx, DWORD PTR [edi+92]
  000db	d8 0d 00 00 00
	00		 fmul	 DWORD PTR __real@3c8efa35
  000e1	c7 44 24 1c 00
	00 00 00	 mov	 DWORD PTR _vForce$255374[esp+40], 0
  000e9	8b 44 24 1c	 mov	 eax, DWORD PTR _vForce$255374[esp+40]
  000ed	d9 c0		 fld	 ST(0)
  000ef	d9 fe		 fsin
  000f1	d8 0d 00 00 00
	00		 fmul	 DWORD PTR __real@3f400000
  000f7	d9 5c 24 18	 fstp	 DWORD PTR _vForce$255374[esp+36]
  000fb	8b 54 24 18	 mov	 edx, DWORD PTR _vForce$255374[esp+36]
  000ff	89 11		 mov	 DWORD PTR [ecx], edx
  00101	d9 ff		 fcos
  00103	89 41 04	 mov	 DWORD PTR [ecx+4], eax
  00106	d8 0d 00 00 00
	00		 fmul	 DWORD PTR __real@bf400000
  0010c	d9 5c 24 20	 fstp	 DWORD PTR _vForce$255374[esp+44]
  00110	8b 54 24 20	 mov	 edx, DWORD PTR _vForce$255374[esp+44]
  00114	89 51 08	 mov	 DWORD PTR [ecx+8], edx

; 645  : 			} 
; 646  : 			else if( nSkill == SI_BIL_KNU_BELIALSMESHING )	//    .

  00117	eb 35		 jmp	 SHORT $L259855
$L255373:
  00119	81 fd 98 00 00
	00		 cmp	 ebp, 152		; 00000098H
  0011f	75 2d		 jne	 SHORT $L259855

; 647  : 			{
; 648  : 				D3DXVECTOR3 vForce;
; 649  : 				AngleToVectorXZ( &vForce, pMover->GetAngle(), 0.35f );		//    .

  00121	8b 46 18	 mov	 eax, DWORD PTR [esi+24]
  00124	68 33 33 b3 3e	 push	 1051931443		; 3eb33333H
  00129	50		 push	 eax
  0012a	8d 4c 24 20	 lea	 ecx, DWORD PTR _vForce$255377[esp+44]
  0012e	51		 push	 ecx
  0012f	e8 00 00 00 00	 call	 ?AngleToVectorXZ@@YAXPAUD3DXVECTOR3@@MM@Z ; AngleToVectorXZ

; 650  : 				SetExternalForce( vForce );

  00134	8b 44 24 24	 mov	 eax, DWORD PTR _vForce$255377[esp+48]
  00138	8b 4c 24 28	 mov	 ecx, DWORD PTR _vForce$255377[esp+52]
  0013c	8d 57 5c	 lea	 edx, DWORD PTR [edi+92]
  0013f	89 02		 mov	 DWORD PTR [edx], eax
  00141	8b 44 24 2c	 mov	 eax, DWORD PTR _vForce$255377[esp+56]
  00145	89 4a 04	 mov	 DWORD PTR [edx+4], ecx
  00148	83 c4 0c	 add	 esp, 12			; 0000000cH
  0014b	89 42 08	 mov	 DWORD PTR [edx+8], eax
$L259855:

; 651  : 			}
; 652  : 
; 653  : 			pMover->OnMeleeSkill( 0, m_nMotionHitCount );	//   .

  0014e	8b 8f 9c 00 00
	00		 mov	 ecx, DWORD PTR [edi+156]
  00154	51		 push	 ecx
  00155	33 db		 xor	 ebx, ebx
  00157	53		 push	 ebx
  00158	8b ce		 mov	 ecx, esi
  0015a	e8 00 00 00 00	 call	 ?OnMeleeSkill@CMover@@QAEHHH@Z ; CMover::OnMeleeSkill

; 654  : 			m_nMotionHitCount++;

  0015f	ff 87 9c 00 00
	00		 inc	 DWORD PTR [edi+156]

; 655  : 
; 656  : #ifdef __CLIENT			
; 657  : 			pModel->m_nPause = 4;	// frame  -  .
; 658  : #endif
; 659  : 
; 660  : 			if( pMover->GetAct() != OBJACT_USESKILL )	

  00165	83 be a0 12 00
	00 05		 cmp	 DWORD PTR [esi+4768], 5
  0016c	75 42		 jne	 SHORT $L255387

; 661  : 				return;	//      .   .
; 662  : 			int		nSkill = pMover->GetActParam(0);
; 663  : 			OBJID	idTarget = pMover->GetActParam(1);
; 664  : 			DWORD	dwLevel = pMover->GetActParam(3);

  0016e	8b 8e b0 12 00
	00		 mov	 ecx, DWORD PTR [esi+4784]
  00174	8b 86 a4 12 00
	00		 mov	 eax, DWORD PTR [esi+4772]

; 665  : 			
; 666  : 			ItemProp* pSkillProp = NULL;
; 667  : 			AddSkillProp* pAddSkillProp = NULL;
; 668  : 			BOOL bRet = pMover->GetSkillProp( &pSkillProp, &pAddSkillProp, nSkill, dwLevel, "ProcessStateMeleeSkill" );

  0017a	8b 16		 mov	 edx, DWORD PTR [esi]
  0017c	68 00 00 00 00	 push	 OFFSET FLAT:??_C@_0BH@GPIKPBBH@ProcessStateMeleeSkill?$AA@
  00181	51		 push	 ecx
  00182	50		 push	 eax
  00183	8d 44 24 1c	 lea	 eax, DWORD PTR _pAddSkillProp$255383[esp+48]
  00187	50		 push	 eax
  00188	8d 4c 24 24	 lea	 ecx, DWORD PTR _pSkillProp$255382[esp+52]
  0018c	51		 push	 ecx
  0018d	8b ce		 mov	 ecx, esi
  0018f	89 5c 24 28	 mov	 DWORD PTR _pSkillProp$255382[esp+56], ebx
  00193	89 5c 24 24	 mov	 DWORD PTR _pAddSkillProp$255383[esp+56], ebx
  00197	ff 52 30	 call	 DWORD PTR [edx+48]

; 669  : 			if( bRet == FALSE )

  0019a	85 c0		 test	 eax, eax
  0019c	74 12		 je	 SHORT $L255387

; 670  : 				return;
; 671  : 			
; 672  : 			if( pAddSkillProp->nSkillCount > 0 )		//    .

  0019e	8b 54 24 10	 mov	 edx, DWORD PTR _pAddSkillProp$255383[esp+36]
  001a2	8b 42 74	 mov	 eax, DWORD PTR [edx+116]
  001a5	3b c3		 cmp	 eax, ebx
  001a7	7e 07		 jle	 SHORT $L255387

; 673  : 			{
; 674  : 				m_nShootCnt = pAddSkillProp->nSkillCount;		//   xx   .
; 675  : 				m_nShootCnt --;		//       .

  001a9	48		 dec	 eax
  001aa	89 87 98 00 00
	00		 mov	 DWORD PTR [edi+152], eax
$L255387:
  001b0	5f		 pop	 edi
  001b1	5e		 pop	 esi
  001b2	5d		 pop	 ebp
  001b3	5b		 pop	 ebx

; 676  : 			}
; 677  : 		}
; 678  : 	}
; 679  : }

  001b4	83 c4 14	 add	 esp, 20			; 00000014H
  001b7	c2 08 00	 ret	 8
?ProcessStateMeleeSkill@CActionMover@@QAEXKH@Z ENDP	; CActionMover::ProcessStateMeleeSkill
_TEXT	ENDS
PUBLIC	?ProcessStateMagicCasting@CActionMover@@QAEXKH@Z ; CActionMover::ProcessStateMagicCasting
; Function compile flags: /Ogty
;	COMDAT ?ProcessStateMagicCasting@CActionMover@@QAEXKH@Z
_TEXT	SEGMENT
_dwState$ = 8						; size = 4
_nParam$ = 12						; size = 4
?ProcessStateMagicCasting@CActionMover@@QAEXKH@Z PROC NEAR ; CActionMover::ProcessStateMagicCasting, COMDAT
; _this$ = ecx

; 688  : 	CMover* pMover = m_pMover;
; 689  : 	CModelObject *pModel = (CModelObject *)pMover->m_pModel;
; 690  : 	
; 691  : 	if( dwState == OBJSTA_ATK_CASTING1 )	//   

  00000	8b 44 24 04	 mov	 eax, DWORD PTR _dwState$[esp-4]
  00004	3d 00 00 0b 00	 cmp	 eax, 720896		; 000b0000H
  00009	56		 push	 esi
  0000a	8b f1		 mov	 esi, ecx
  0000c	8b 4e 0c	 mov	 ecx, DWORD PTR [esi+12]
  0000f	75 38		 jne	 SHORT $L255396

; 692  : 	{
; 693  : 		if( pModel->IsEndFrame() )	//   .

  00011	8b 81 78 01 00
	00		 mov	 eax, DWORD PTR [ecx+376]
  00017	8b 90 9c 00 00
	00		 mov	 edx, DWORD PTR [eax+156]
  0001d	85 d2		 test	 edx, edx
  0001f	74 5e		 je	 SHORT $L259893

; 694  : 		{
; 695  : 			pMover->SetMotion( pMover->m_dwMotion + 1, ANILOOP_LOOP, MOP_SWDFORCE | MOP_NO_TRANS | MOP_FIXED );		//  

  00021	8b 81 dc 02 00
	00		 mov	 eax, DWORD PTR [ecx+732]
  00027	8b 11		 mov	 edx, DWORD PTR [ecx]
  00029	6a 07		 push	 7
  0002b	6a 04		 push	 4
  0002d	40		 inc	 eax
  0002e	50		 push	 eax
  0002f	ff 52 04	 call	 DWORD PTR [edx+4]

; 696  : //			m_nCount = 0;
; 697  : 			SetState( OBJSTA_ATK_ALL, OBJSTA_ATK_CASTING2 );

  00032	68 00 00 ff 00	 push	 16711680		; 00ff0000H
  00037	8b ce		 mov	 ecx, esi
  00039	e8 00 00 00 00	 call	 ?ResetState@CAction@@QAEXK@Z ; CAction::ResetState
  0003e	81 4e 04 00 00
	0c 00		 or	 DWORD PTR [esi+4], 786432 ; 000c0000H

; 711  : 			SetState( OBJSTA_ATK_ALL, OBJSTA_ATK_MAGICSKILL );

  00045	5e		 pop	 esi

; 712  : 		}
; 713  : 	}
; 714  : 
; 715  : #if defined(__CLIENT)
; 716  : 	pModel->m_SparkInfo.m_bUsed  = TRUE;
; 717  : 	pModel->m_SparkInfo.m_v3Color.x = 0.0f;
; 718  : 	pModel->m_SparkInfo.m_v3Color.y = 2.0f;
; 719  : 	pModel->m_SparkInfo.m_v3Color.z = 2.0f;
; 720  : 	pModel->m_SparkInfo.m_nCnt = 0;
; 721  : 	pModel->m_SparkInfo.m_fLerp= 1.0f;
; 722  : 	
; 723  : 	AngleToVectorXZ( &pModel->m_SparkInfo.m_v3SparkDir, pMover->GetAngle(), -1.0f );
; 724  : #endif //defined(__CLIENT)
; 725  : }

  00046	c2 08 00	 ret	 8
$L255396:

; 698  : 		}
; 699  : 	} 
; 700  : 	else if( dwState == OBJSTA_ATK_CASTING2 )	//  

  00049	3d 00 00 0c 00	 cmp	 eax, 786432		; 000c0000H
  0004e	75 2f		 jne	 SHORT $L259893

; 701  : 	{
; 702  : //		if( ++m_nCount >= m_nCastingTime )
; 703  : 		if( m_nCount >= ( m_nCastingTime ) )

  00050	8b 56 40	 mov	 edx, DWORD PTR [esi+64]
  00053	3b 96 a8 00 00
	00		 cmp	 edx, DWORD PTR [esi+168]
  00059	7c 24		 jl	 SHORT $L259893

; 704  : 		{
; 705  : 			int dwMotion = pMover->m_dwMotion + 1;

  0005b	8b 91 dc 02 00
	00		 mov	 edx, DWORD PTR [ecx+732]

; 706  : 		#ifdef __CLIENT
; 707  : 			if( pMover->HasBuffByIk3( IK3_TEXT_DISGUISE ) )
; 708  : 				dwMotion = MTI_ATK1;
; 709  : 		#endif
; 710  : 			pMover->SetMotion( dwMotion, ANILOOP_1PLAY, MOP_SWDFORCE | MOP_NO_TRANS | MOP_FIXED );		//  

  00061	8b 01		 mov	 eax, DWORD PTR [ecx]
  00063	6a 07		 push	 7
  00065	6a 01		 push	 1
  00067	42		 inc	 edx
  00068	52		 push	 edx
  00069	ff 50 04	 call	 DWORD PTR [eax+4]

; 711  : 			SetState( OBJSTA_ATK_ALL, OBJSTA_ATK_MAGICSKILL );

  0006c	68 00 00 ff 00	 push	 16711680		; 00ff0000H
  00071	8b ce		 mov	 ecx, esi
  00073	e8 00 00 00 00	 call	 ?ResetState@CAction@@QAEXK@Z ; CAction::ResetState
  00078	81 4e 04 00 00
	0d 00		 or	 DWORD PTR [esi+4], 851968 ; 000d0000H
$L259893:
  0007f	5e		 pop	 esi

; 712  : 		}
; 713  : 	}
; 714  : 
; 715  : #if defined(__CLIENT)
; 716  : 	pModel->m_SparkInfo.m_bUsed  = TRUE;
; 717  : 	pModel->m_SparkInfo.m_v3Color.x = 0.0f;
; 718  : 	pModel->m_SparkInfo.m_v3Color.y = 2.0f;
; 719  : 	pModel->m_SparkInfo.m_v3Color.z = 2.0f;
; 720  : 	pModel->m_SparkInfo.m_nCnt = 0;
; 721  : 	pModel->m_SparkInfo.m_fLerp= 1.0f;
; 722  : 	
; 723  : 	AngleToVectorXZ( &pModel->m_SparkInfo.m_v3SparkDir, pMover->GetAngle(), -1.0f );
; 724  : #endif //defined(__CLIENT)
; 725  : }

  00080	c2 08 00	 ret	 8
?ProcessStateMagicCasting@CActionMover@@QAEXKH@Z ENDP	; CActionMover::ProcessStateMagicCasting
_TEXT	ENDS
PUBLIC	?ProcessStateMagicSkill@CActionMover@@QAEXKH@Z	; CActionMover::ProcessStateMagicSkill
PUBLIC	??_C@_0BH@NAELOPMF@ProcessStateMagicSkill?$AA@	; `string'
EXTRN	?OnMagicSkill@CMover@@QAEHHH@Z:NEAR		; CMover::OnMagicSkill
;	COMDAT ??_C@_0BH@NAELOPMF@ProcessStateMagicSkill?$AA@
; File c:\documents and settings\test\mes documents\source\virtuos_v17\build\program\_common\mover.h
CONST	SEGMENT
??_C@_0BH@NAELOPMF@ProcessStateMagicSkill?$AA@ DB 'ProcessStateMagicSkill'
	DB	00H						; `string'
; Function compile flags: /Ogty
; File c:\documents and settings\test\mes documents\source\virtuos_v17\build\program\_aiinterface\actionmoverstate.cpp
CONST	ENDS
;	COMDAT ?ProcessStateMagicSkill@CActionMover@@QAEXKH@Z
_TEXT	SEGMENT
_pAddSkillProp$255419 = -8				; size = 4
_pSkillProp$255418 = -4					; size = 4
_dwState$ = 8						; size = 4
_nParam$ = 12						; size = 4
?ProcessStateMagicSkill@CActionMover@@QAEXKH@Z PROC NEAR ; CActionMover::ProcessStateMagicSkill, COMDAT
; _this$ = ecx

; 730  : {

  00000	83 ec 08	 sub	 esp, 8
  00003	53		 push	 ebx
  00004	56		 push	 esi
  00005	57		 push	 edi
  00006	8b f9		 mov	 edi, ecx

; 731  : 	CMover* pMover = m_pMover;

  00008	8b 77 0c	 mov	 esi, DWORD PTR [edi+12]

; 732  : 	CModelObject *pModel = (CModelObject *)pMover->m_pModel;

  0000b	8b 9e 78 01 00
	00		 mov	 ebx, DWORD PTR [esi+376]

; 733  : 	
; 734  : 	if( pModel->IsEndFrame() )	//    

  00011	8b 83 9c 00 00
	00		 mov	 eax, DWORD PTR [ebx+156]
  00017	85 c0		 test	 eax, eax
  00019	74 13		 je	 SHORT $L255410

; 735  : 	{
; 736  : 		ResetState( OBJSTA_ATK_ALL );

  0001b	68 00 00 ff 00	 push	 16711680		; 00ff0000H
  00020	e8 00 00 00 00	 call	 ?ResetState@CAction@@QAEXK@Z ; CAction::ResetState
  00025	5f		 pop	 edi
  00026	5e		 pop	 esi
  00027	5b		 pop	 ebx

; 770  : 		}
; 771  : 		
; 772  : 	}
; 773  : }

  00028	83 c4 08	 add	 esp, 8
  0002b	c2 08 00	 ret	 8
$L255410:

; 737  : 		return;
; 738  : 	}
; 739  : 
; 740  : 	if( (g_nProcessCnt & 3) == 0 )

  0002e	f6 05 00 00 00
	00 03		 test	 BYTE PTR ?g_nProcessCnt@@3HA, 3
  00035	75 1b		 jne	 SHORT $L255412

; 741  : 	{
; 742  : 		if( m_nShootCnt > 0 )		//  

  00037	8b 87 98 00 00
	00		 mov	 eax, DWORD PTR [edi+152]
  0003d	85 c0		 test	 eax, eax
  0003f	7e 11		 jle	 SHORT $L255412

; 743  : 		{
; 744  : 			pMover->OnMagicSkill( 0 );	//  

  00041	6a 01		 push	 1
  00043	6a 00		 push	 0
  00045	8b ce		 mov	 ecx, esi
  00047	e8 00 00 00 00	 call	 ?OnMagicSkill@CMover@@QAEHHH@Z ; CMover::OnMagicSkill

; 745  : 			m_nShootCnt--;		//   .

  0004c	ff 8f 98 00 00
	00		 dec	 DWORD PTR [edi+152]
$L255412:

; 746  : 		}
; 747  : 	}
; 748  : 
; 749  : 	if( pModel->IsAttrHit() )	//    ?

  00052	8b 03		 mov	 eax, DWORD PTR [ebx]
  00054	8b cb		 mov	 ecx, ebx
  00056	ff 50 24	 call	 DWORD PTR [eax+36]
  00059	85 c0		 test	 eax, eax
  0005b	74 69		 je	 SHORT $L255423

; 750  : 	{
; 751  : 		pMover->OnMagicSkill( 0, m_nMotionHitCount );	//   .

  0005d	8b 8f 9c 00 00
	00		 mov	 ecx, DWORD PTR [edi+156]
  00063	51		 push	 ecx
  00064	6a 00		 push	 0
  00066	8b ce		 mov	 ecx, esi
  00068	e8 00 00 00 00	 call	 ?OnMagicSkill@CMover@@QAEHHH@Z ; CMover::OnMagicSkill

; 752  : 		m_nMotionHitCount++;

  0006d	ff 87 9c 00 00
	00		 inc	 DWORD PTR [edi+156]

; 753  : 		
; 754  : 		if( pMover->GetAct() != OBJACT_USESKILL )	

  00073	83 be a0 12 00
	00 05		 cmp	 DWORD PTR [esi+4768], 5
  0007a	75 4a		 jne	 SHORT $L255423

; 755  : 			return;	//      .   .
; 756  : 		int		nSkill = pMover->GetActParam(0);
; 757  : 		OBJID	idTarget = pMover->GetActParam(1);
; 758  : 		DWORD	dwLevel = pMover->GetActParam(3);

  0007c	8b 8e b0 12 00
	00		 mov	 ecx, DWORD PTR [esi+4784]
  00082	8b 86 a4 12 00
	00		 mov	 eax, DWORD PTR [esi+4772]

; 759  : 		
; 760  : 		ItemProp* pSkillProp = NULL;
; 761  : 		AddSkillProp* pAddSkillProp = NULL;
; 762  : 		BOOL bRet = pMover->GetSkillProp( &pSkillProp, &pAddSkillProp, nSkill, dwLevel, "ProcessStateMagicSkill" );

  00088	8b 16		 mov	 edx, DWORD PTR [esi]
  0008a	68 00 00 00 00	 push	 OFFSET FLAT:??_C@_0BH@NAELOPMF@ProcessStateMagicSkill?$AA@
  0008f	51		 push	 ecx
  00090	50		 push	 eax
  00091	8d 44 24 18	 lea	 eax, DWORD PTR _pAddSkillProp$255419[esp+32]
  00095	50		 push	 eax
  00096	8d 4c 24 20	 lea	 ecx, DWORD PTR _pSkillProp$255418[esp+36]
  0009a	51		 push	 ecx
  0009b	8b ce		 mov	 ecx, esi
  0009d	c7 44 24 24 00
	00 00 00	 mov	 DWORD PTR _pSkillProp$255418[esp+40], 0
  000a5	c7 44 24 20 00
	00 00 00	 mov	 DWORD PTR _pAddSkillProp$255419[esp+40], 0
  000ad	ff 52 30	 call	 DWORD PTR [edx+48]

; 763  : 		if( bRet == FALSE )

  000b0	85 c0		 test	 eax, eax
  000b2	74 12		 je	 SHORT $L255423

; 764  : 			return;
; 765  : 		
; 766  : 		if( pAddSkillProp->nSkillCount > 0 )		//    .

  000b4	8b 54 24 0c	 mov	 edx, DWORD PTR _pAddSkillProp$255419[esp+20]
  000b8	8b 42 74	 mov	 eax, DWORD PTR [edx+116]
  000bb	85 c0		 test	 eax, eax
  000bd	7e 07		 jle	 SHORT $L255423

; 767  : 		{
; 768  : 			m_nShootCnt = pAddSkillProp->nSkillCount;		//   xx   .
; 769  : 			m_nShootCnt --;		//       .

  000bf	48		 dec	 eax
  000c0	89 87 98 00 00
	00		 mov	 DWORD PTR [edi+152], eax
$L255423:
  000c6	5f		 pop	 edi
  000c7	5e		 pop	 esi
  000c8	5b		 pop	 ebx

; 770  : 		}
; 771  : 		
; 772  : 	}
; 773  : }

  000c9	83 c4 08	 add	 esp, 8
  000cc	c2 08 00	 ret	 8
?ProcessStateMagicSkill@CActionMover@@QAEXKH@Z ENDP	; CActionMover::ProcessStateMagicSkill
_TEXT	ENDS
PUBLIC	?_ProcessStateAttack@CActionMover@@QAEXKH@Z	; CActionMover::_ProcessStateAttack
EXTRN	?prj@@3VCProject@@A:BYTE			; prj
EXTRN	?GetMover@CProject@@QAEPAVCMover@@K@Z:NEAR	; CProject::GetMover
EXTRN	?OnAttackMelee@CMover@@QAEHKPAV1@@Z:NEAR	; CMover::OnAttackMelee
EXTRN	?OnAttackMeleeContinue@CMover@@QAEHK@Z:NEAR	; CMover::OnAttackMeleeContinue
EXTRN	?OnEndMeleeAttack@CMover@@QAEXK@Z:NEAR		; CMover::OnEndMeleeAttack
; Function compile flags: /Ogty
;	COMDAT ?_ProcessStateAttack@CActionMover@@QAEXKH@Z
_TEXT	SEGMENT
_dwState$ = 8						; size = 4
_nParam$ = 12						; size = 4
?_ProcessStateAttack@CActionMover@@QAEXKH@Z PROC NEAR	; CActionMover::_ProcessStateAttack, COMDAT
; _this$ = ecx

; 779  : {

  00000	53		 push	 ebx
  00001	55		 push	 ebp
  00002	56		 push	 esi
  00003	57		 push	 edi

; 780  : 
; 781  : 	CMover* pMover = m_pMover;
; 782  : 	CModelObject	*pModel = (CModelObject *)pMover->m_pModel;
; 783  : 
; 784  : 	switch( dwState )

  00004	8b 7c 24 14	 mov	 edi, DWORD PTR _dwState$[esp+12]
  00008	81 ff 00 00 03
	00		 cmp	 edi, 196608		; 00030000H
  0000e	8b e9		 mov	 ebp, ecx
  00010	8b 75 0c	 mov	 esi, DWORD PTR [ebp+12]
  00013	8b 9e 78 01 00
	00		 mov	 ebx, DWORD PTR [esi+376]
  00019	77 19		 ja	 SHORT $L259922
  0001b	74 23		 je	 SHORT $L255436
  0001d	81 ff 00 00 01
	00		 cmp	 edi, 65536		; 00010000H
  00023	74 1b		 je	 SHORT $L255436
  00025	81 ff 00 00 02
	00		 cmp	 edi, 131072		; 00020000H
  0002b	74 13		 je	 SHORT $L255436
  0002d	5f		 pop	 edi
  0002e	5e		 pop	 esi
  0002f	5d		 pop	 ebp
  00030	5b		 pop	 ebx

; 1089 : 				}
; 1090 : 			} // is hitattr ?
; 1091 : 
; 1092 : 		#if defined(__CLIENT)
; 1093 : 			if( pModel->IsAttrQuake() )
; 1094 : 			{
; 1095 : 				if( pMover->m_dwIndex == MI_BIGMUSCLE || 
; 1096 : 					pMover->m_dwIndex == MI_KRRR || 
; 1097 : 					pMover->m_dwIndex == MI_MUSHMOOT )
; 1098 : 					pMover->GetWorld()->m_pCamera->SetQuake( 60, 0.7f );	
; 1099 : 			}
; 1100 : 		#endif // defined(__CLIENT)
; 1101 : 			
; 1102 : 		}
; 1103 : 		break;
; 1104 : 	}
; 1105 : }

  00031	c2 08 00	 ret	 8
$L259922:

; 780  : 
; 781  : 	CMover* pMover = m_pMover;
; 782  : 	CModelObject	*pModel = (CModelObject *)pMover->m_pModel;
; 783  : 
; 784  : 	switch( dwState )

  00034	81 ff 00 00 04
	00		 cmp	 edi, 262144		; 00040000H
  0003a	0f 85 12 01 00
	00		 jne	 $L255463
$L255436:

; 785  : 	{
; 786  : 	case OBJSTA_ATK1:
; 787  : 	case OBJSTA_ATK2:
; 788  : 	case OBJSTA_ATK3:
; 789  : 	case OBJSTA_ATK4:
; 790  : 		//    
; 791  : 		if( pMover->IsPlayer() )

  00040	8b 86 34 02 00
	00		 mov	 eax, DWORD PTR [esi+564]
  00046	85 c0		 test	 eax, eax
  00048	74 46		 je	 SHORT $L255437

; 792  : 		{
; 793  : 			int		nReqLevel = 0;		//     .
; 794  : 			OBJMSG	dwNextMsg = OBJMSG_ATK2;
; 795  : 			switch( dwState )

  0004a	81 ff 00 00 03
	00		 cmp	 edi, 196608		; 00030000H
  00050	77 14		 ja	 SHORT $L259921
  00052	74 1a		 je	 SHORT $L255444
  00054	81 ff 00 00 01
	00		 cmp	 edi, 65536		; 00010000H
  0005a	74 12		 je	 SHORT $L255444
  0005c	81 ff 00 00 02
	00		 cmp	 edi, 131072		; 00020000H
  00062	74 0a		 je	 SHORT $L255444
  00064	eb 7a		 jmp	 SHORT $L255456
$L259921:
  00066	81 ff 00 00 04
	00		 cmp	 edi, 262144		; 00040000H
  0006c	75 72		 jne	 SHORT $L255456
$L255444:

; 796  : 			{
; 797  : 			case OBJSTA_ATK1:	
; 798  : 			case OBJSTA_ATK2:	
; 799  : 			case OBJSTA_ATK3:	
; 800  : 			case OBJSTA_ATK4:	
; 801  : 
; 802  : 				switch( dwState )
; 803  : 				{
; 804  : 				case OBJSTA_ATK1:	nReqLevel = 2;	dwNextMsg = OBJMSG_ATK2;	break;
; 805  : 				case OBJSTA_ATK2:	nReqLevel = 8;	dwNextMsg = OBJMSG_ATK3;	break;
; 806  : 				case OBJSTA_ATK3:	nReqLevel = 12;	dwNextMsg = OBJMSG_ATK4;	break;
; 807  : 				case OBJSTA_ATK4:	nReqLevel = 999;	dwNextMsg = OBJMSG_ATK1;	break;
; 808  : 				}
; 809  : 				if( pModel->IsEndFrame() )		//  .   .

  0006e	8b 83 9c 00 00
	00		 mov	 eax, DWORD PTR [ebx+156]
  00074	85 c0		 test	 eax, eax
  00076	74 68		 je	 SHORT $L255456

; 810  : 				{
; 811  : 				#ifdef __WORLDSERVER					
; 812  : 					m_objidHit = NULL_ID;
; 813  : 				#endif
; 814  : 					ResetState( OBJSTA_ATK_ALL );

  00078	68 00 00 ff 00	 push	 16711680		; 00ff0000H
  0007d	8b cd		 mov	 ecx, ebp
  0007f	c7 85 a4 00 00
	00 ff ff ff ff	 mov	 DWORD PTR [ebp+164], -1
  00089	e8 00 00 00 00	 call	 ?ResetState@CAction@@QAEXK@Z ; CAction::ResetState

; 815  : 				#ifdef __CLIENT
; 816  : 					if( GetMover()->IsActiveMover() )
; 817  : 					{
; 818  : 						if( (pMover->GetLevel() >= nReqLevel) && ((m_dwCtrlMsg & CTRLMSG_LDOWN) || ((CWndWorld *)g_WndMng.m_pWndWorld)->m_bAutoAttack) )	//  X 
; 819  : 						{
; 820  : 							ItemProp* pItemProp = pMover->GetActiveHandItemProp();
; 821  : 							if( pItemProp && pItemProp->dwItemKind3 == IK3_YOYO )
; 822  : 							{
; 823  : 								if( dwState == OBJSTA_ATK2 || dwState == OBJSTA_ATK3 || dwState == OBJSTA_ATK4 )
; 824  : 									break;
; 825  : 							}
; 826  : 
; 827  : 							CMover* pHitObj	= prj.GetMover( m_objidHit );
; 828  : 							if( IsValidObj( (CObj*)pHitObj ) &&		//     .
; 829  : 								g_WndMng.m_pWndWorld->GetNextSkill() == NEXTSKILL_NONE ) 
; 830  : 							{
; 831  : 								int nError	= SendActMsg( dwNextMsg, m_objidHit, MAKELONG( 0, 0 ), MAKELONG( 0, 0 ) );
; 832  : 								if( nError > 0 )	
; 833  : 								{
; 834  : #ifdef __HACK_1023
; 835  : 									ItemProp* pHandItemProp		= pMover->GetActiveHandItemProp();
; 836  : 									FLOAT fVal	= pHandItemProp? pHandItemProp->fAttackSpeed: 0.0F;
; 837  : 									g_DPlay.SendMeleeAttack ( dwNextMsg, m_objidHit, MAKELONG( 0, 0 ), MAKELONG( 0, (WORD)nError ), fVal );
; 838  : #else	// __HACK_1023
; 839  : 									g_DPlay.SendMeleeAttack ( dwNextMsg, m_objidHit, MAKELONG( 0, 0 ), MAKELONG( 0, (WORD)nError ) );
; 840  : #endif	// __HACK_1023
; 841  : 								}
; 842  : 							} else
; 843  : 								m_objidHit = NULL_ID;
; 844  : 						}
; 845  : 					}
; 846  : 				#endif	// CLIENT
; 847  : 				}
; 848  : 				break;
; 849  : 			}
; 850  : 		} 
; 851  : 		else	

  0008e	eb 50		 jmp	 SHORT $L255456
$L255437:

; 852  : 		// monster
; 853  : 		{
; 854  : 		#ifdef __CLIENT
; 855  : 			if( pMover->m_dwIndex == MI_CLOCKWORK1 )
; 856  : 			{
; 857  : 				if( dwState == OBJSTA_ATK3 )
; 858  : 				{
; 859  : 					if( (pMover->m_dwFlag & MVRF_LASERCHARGE) == 0 )	//     .
; 860  : 					{
; 861  : 						//    .
; 862  : 						CSfx *pSfx = CreateSfx( D3DDEVICE, XI_NPCSP1DIRAMP, pMover->GetPos(), pMover->GetId(), D3DXVECTOR3(0,0,0), NULL_ID, -1 );			
; 863  : 						if( pSfx )
; 864  : 						{
; 865  : 							pSfx->SetScale( D3DXVECTOR3( 2.0f, 2.0f, 2.0f ) );
; 866  : 							pMover->m_dwFlag |= MVRF_LASERCHARGE;
; 867  : 						}
; 868  : 					}
; 869  : 				}
; 870  : 			}
; 871  : 			else
; 872  : 			if( pMover->m_dwIndex == MI_BIGMUSCLE )
; 873  : 			{
; 874  : 			}
; 875  : 			else
; 876  : 			if( pMover->m_dwIndex == MI_KRRR )
; 877  : 			{
; 878  : 			}
; 879  : 			else
; 880  : 			if( pMover->m_dwIndex == MI_MUSHMOOT )
; 881  : 			{
; 882  : 				if( dwState == OBJSTA_ATK3 )
; 883  : 				{
; 884  : 					if( (pMover->m_dwFlag & MVRF_LASERCHARGE) == 0 )	//     .
; 885  : 					{
; 886  : 						//    .
; 887  : 						CSfxMushmootCharge *pSfx = (CSfxMushmootCharge*)CreateSfx( D3DDEVICE, XI_SKILL_MUSHMOOT_CHARGE, pMover->GetPos(), pMover->GetId(), D3DXVECTOR3(0,0,0), NULL_ID, -1 );			
; 888  : 						if( pSfx )
; 889  : 						{
; 890  : 							pSfx->m_nEventPos = 0;
; 891  : 							pSfx->SetScale( D3DXVECTOR3( 2.0f, 2.0f, 2.0f ) );
; 892  : 							pMover->m_dwFlag |= MVRF_LASERCHARGE;
; 893  : 						}
; 894  : 					}
; 895  : 				}
; 896  : 				else
; 897  : 				if( dwState == OBJSTA_ATK4 )
; 898  : 				{
; 899  : 					if( (pMover->m_dwFlag & MVRF_LASERCHARGE) == 0 )	//     .
; 900  : 					{
; 901  : 						CSfxMushmootCharge *pSfx = NULL;
; 902  : 						//    .
; 903  : 						pSfx = (CSfxMushmootCharge*)CreateSfx( D3DDEVICE, XI_SKILL_MUSHMOOT_CHARGE, pMover->GetPos(), pMover->GetId(), D3DXVECTOR3(0,0,0), NULL_ID, -1 );			
; 904  : 						if( pSfx )
; 905  : 						{
; 906  : 							pSfx->m_nEventPos = 1;
; 907  : 							pSfx->SetScale( D3DXVECTOR3( 2.0f, 2.0f, 2.0f ) );
; 908  : 							pMover->m_dwFlag |= MVRF_LASERCHARGE;
; 909  : 						}
; 910  : 						pSfx = (CSfxMushmootCharge*)CreateSfx( D3DDEVICE, XI_SKILL_MUSHMOOT_CHARGE, pMover->GetPos(), pMover->GetId(), D3DXVECTOR3(0,0,0), NULL_ID, -1 );			
; 911  : 						if( pSfx )
; 912  : 						{
; 913  : 							pSfx->m_nEventPos = 2;
; 914  : 							pSfx->SetScale( D3DXVECTOR3( 2.0f, 2.0f, 2.0f ) );
; 915  : 							pMover->m_dwFlag |= MVRF_LASERCHARGE;
; 916  : 						}
; 917  : 						pSfx = (CSfxMushmootCharge*)CreateSfx( D3DDEVICE, XI_SKILL_MUSHMOOT_CHARGE, pMover->GetPos(), pMover->GetId(), D3DXVECTOR3(0,0,0), NULL_ID, -1 );			
; 918  : 						if( pSfx )
; 919  : 						{
; 920  : 							pSfx->m_nEventPos = 3;
; 921  : 							pSfx->SetScale( D3DXVECTOR3( 2.0f, 2.0f, 2.0f ) );
; 922  : 							pMover->m_dwFlag |= MVRF_LASERCHARGE;
; 923  : 						}
; 924  : 						pSfx = (CSfxMushmootCharge*)CreateSfx( D3DDEVICE, XI_SKILL_MUSHMOOT_CHARGE, pMover->GetPos(), pMover->GetId(), D3DXVECTOR3(0,0,0), NULL_ID, -1 );			
; 925  : 						if( pSfx )
; 926  : 						{
; 927  : 							pSfx->m_nEventPos = 4;
; 928  : 							pSfx->SetScale( D3DXVECTOR3( 2.0f, 2.0f, 2.0f ) );
; 929  : 							pMover->m_dwFlag |= MVRF_LASERCHARGE;
; 930  : 						}
; 931  : 					}
; 932  : 				}
; 933  : 			}	
; 934  : 		#endif // Client
; 935  : 			if( pMover->m_dwFlag & MVRF_HITCONT )

  00090	f6 86 48 02 00
	00 20		 test	 BYTE PTR [esi+584], 32	; 00000020H
  00097	74 08		 je	 SHORT $L255455

; 936  : 				pMover->OnAttackMeleeContinue( dwState );

  00099	57		 push	 edi
  0009a	8b ce		 mov	 ecx, esi
  0009c	e8 00 00 00 00	 call	 ?OnAttackMeleeContinue@CMover@@QAEHK@Z ; CMover::OnAttackMeleeContinue
$L255455:

; 937  : 
; 938  : 			if( pModel->IsEndFrame() )

  000a1	8b 83 9c 00 00
	00		 mov	 eax, DWORD PTR [ebx+156]
  000a7	85 c0		 test	 eax, eax
  000a9	74 35		 je	 SHORT $L255456

; 939  : 			{
; 940  : 				pMover->OnEndMeleeAttack( dwState );

  000ab	57		 push	 edi
  000ac	8b ce		 mov	 ecx, esi
  000ae	e8 00 00 00 00	 call	 ?OnEndMeleeAttack@CMover@@QAEXK@Z ; CMover::OnEndMeleeAttack

; 941  : 				pMover->m_dwFlag &= (~MVRF_HITCONT);		//   .
; 942  : 				pMover->m_dwFlag &= (~MVRF_LASERCHARGE);	//   .

  000b3	83 a6 48 02 00
	00 9f		 and	 DWORD PTR [esi+584], -97 ; ffffff9fH

; 943  : 				m_objidHit	= NULL_ID;
; 944  : 				ResetState( OBJSTA_ATK_ALL );

  000ba	68 00 00 ff 00	 push	 16711680		; 00ff0000H
  000bf	8b cd		 mov	 ecx, ebp
  000c1	c7 85 a4 00 00
	00 ff ff ff ff	 mov	 DWORD PTR [ebp+164], -1
  000cb	e8 00 00 00 00	 call	 ?ResetState@CAction@@QAEXK@Z ; CAction::ResetState

; 945  : 			#ifdef __CLIENT
; 946  : 				extern CPartsLaser g_Laser;
; 947  : 				g_Laser.m_bActive = FALSE;		//    ()
; 948  : 			#endif
; 949  : 				pMover->m_pActMover->m_nMotionHitCount = 0;

  000d0	8b 86 3c 02 00
	00		 mov	 eax, DWORD PTR [esi+572]
  000d6	c7 80 9c 00 00
	00 00 00 00 00	 mov	 DWORD PTR [eax+156], 0
$L255456:

; 950  : 			}
; 951  : 		}
; 952  : 		
; 953  : 		if( pModel->m_nPause > 0 )

  000e0	8b 83 94 00 00
	00		 mov	 eax, DWORD PTR [ebx+148]
  000e6	85 c0		 test	 eax, eax
  000e8	7e 25		 jle	 SHORT $L255457

; 954  : 		{
; 955  : 			CMover* pHitObj	= prj.GetMover( m_idTarget );

  000ea	8b 8d 88 00 00
	00		 mov	 ecx, DWORD PTR [ebp+136]
  000f0	51		 push	 ecx
  000f1	b9 00 00 00 00	 mov	 ecx, OFFSET FLAT:?prj@@3VCProject@@A
  000f6	e8 00 00 00 00	 call	 ?GetMover@CProject@@QAEPAVCMover@@K@Z ; CProject::GetMover

; 956  : 		#ifdef __CLIENT
; 957  : 			D3DXVECTOR3 vDist = pMover->GetPos() - CMover::GetActiveMover()->GetPos();
; 958  : 			float fDistSq = D3DXVec3LengthSq( &vDist );
; 959  : 			if( pHitObj && pMover->IsPlayer() && fDistSq < 32.0f * 32.0f )		//   .
; 960  : 			{
; 961  : 				int i;
; 962  : 				D3DXVECTOR3	vPos = pHitObj->GetPos();
; 963  : 
; 964  : 				D3DXVECTOR3 vLocal;
; 965  : 				AngleToVectorXZ( &vLocal, pMover->GetAngle(), 1.0f );		//   1  .
; 966  : 				vLocal += pMover->GetPos();
; 967  : 				vPos = vLocal;
; 968  : 
; 969  : 				vPos.y += 0.7f;
; 970  : 				D3DXVECTOR3 vVel;
; 971  : 				float	fAngXZ, fAngH;
; 972  : 				float	fSpeed;
; 973  : 				float	fDist;
; 974  : 				float	fMoverAngle = pMover->GetAngle();
; 975  : 				CParticles *pParticles = NULL;
; 976  : 
; 977  : 				int nOption = 0;
; 978  : 				int nEffLevel = 0;
; 979  : 				if( pMover->IsActiveMover() )
; 980  : 				{
; 981  : 					CItemElem *pItemElem = pMover->GetWeaponItem();
; 982  : 					if( pItemElem )
; 983  : 						nOption = pItemElem->GetAbilityOption();
; 984  : 				} else
; 985  : 				{	//      .
; 986  : 					nOption = pMover->m_aEquipInfo[PARTS_RWEAPON].nOption & 0xFF;
; 987  : 				}
; 988  : 
; 989  : 				if( nOption == 10 )
; 990  : 					nEffLevel = 5;
; 991  : 				else if( nOption == 9 )
; 992  : 					nEffLevel = 4;
; 993  : 				else if( nOption == 8 )
; 994  : 					nEffLevel = 3;
; 995  : 				else if( nOption == 7 )
; 996  : 					nEffLevel = 2;
; 997  : 				else if( nOption >= 4 )	// 4 ~ 6
; 998  : 					nEffLevel = 1;
; 999  : 				else 
; 1000 : 					nEffLevel = 0;
; 1001 : 					
; 1002 : 				for( i = 0; i < 1; i ++ )
; 1003 : 				{
; 1004 : 					fAngXZ = xRandomF(360);
; 1005 : 					
; 1006 : 					fAngXZ = D3DXToRadian( fAngXZ );
; 1007 : 					fAngH = 15.0f + xRandomF(45);
; 1008 : 					fAngH = D3DXToRadian( fAngH );
; 1009 : 					fSpeed = (0.1f + xRandomF(0.03f));// / 1.0f;
; 1010 : 					
; 1011 : 					fDist = cosf(-fAngH) * fSpeed;
; 1012 : 					vVel.x = sinf(fAngXZ) * fDist;
; 1013 : 					vVel.z = -cosf(fAngXZ) * fDist;
; 1014 : 					vVel.y = -sinf(-fAngH) * fSpeed;
; 1015 : 					if( g_Option.m_bSFXRenderOff != TRUE )
; 1016 : 					{
; 1017 : 						if( nEffLevel == 5 )
; 1018 : 						{
; 1019 : 							pParticles = g_ParticleMng.CreateParticle( nEffLevel + xRandom(6), vPos, vVel, CMover::GetActiveMover()->GetPos().y );
; 1020 : 						} else
; 1021 : 							pParticles = g_ParticleMng.CreateParticle( nEffLevel, vPos, vVel, CMover::GetActiveMover()->GetPos().y );
; 1022 : 					}
; 1023 : 					if( pParticles )
; 1024 : 						pParticles->m_bGravity = TRUE;
; 1025 : 				}
; 1026 : 			}
; 1027 : 		#endif // CLIENT
; 1028 : 		
; 1029 : 		//      
; 1030 : 		// 2006.09.16 raiders . : CActionMover m_fAccAng   
; 1031 : 			--pModel->m_nPause; 

  000fb	8b 83 94 00 00
	00		 mov	 eax, DWORD PTR [ebx+148]
  00101	5f		 pop	 edi
  00102	5e		 pop	 esi
  00103	48		 dec	 eax
  00104	5d		 pop	 ebp
  00105	89 83 94 00 00
	00		 mov	 DWORD PTR [ebx+148], eax
  0010b	5b		 pop	 ebx

; 1089 : 				}
; 1090 : 			} // is hitattr ?
; 1091 : 
; 1092 : 		#if defined(__CLIENT)
; 1093 : 			if( pModel->IsAttrQuake() )
; 1094 : 			{
; 1095 : 				if( pMover->m_dwIndex == MI_BIGMUSCLE || 
; 1096 : 					pMover->m_dwIndex == MI_KRRR || 
; 1097 : 					pMover->m_dwIndex == MI_MUSHMOOT )
; 1098 : 					pMover->GetWorld()->m_pCamera->SetQuake( 60, 0.7f );	
; 1099 : 			}
; 1100 : 		#endif // defined(__CLIENT)
; 1101 : 			
; 1102 : 		}
; 1103 : 		break;
; 1104 : 	}
; 1105 : }

  0010c	c2 08 00	 ret	 8
$L255457:

; 1032 : //			if( --pModel->m_nPause == 0 )		
; 1033 : //			{
; 1034 : //				if( pHitObj )
; 1035 : //					pHitObj->m_pActMover->m_fAccAng = pMover->GetAngle();				//    
; 1036 : //			}
; 1037 : 		// Pause > 0 
; 1038 : 		} else
; 1039 : 		{
; 1040 : 		#if defined(__CLIENT)
; 1041 : 			ItemProp* pItemProp = pMover->GetActiveHandItemProp();
; 1042 : 
; 1043 : 			//     
; 1044 : 			// (Quake)   
; 1045 : 			//  (, )  .
; 1046 : 			if( pMover->IsPlayer() && pItemProp && pItemProp->dwItemKind3 == IK3_YOYO && pModel->IsAttrQuake() )
; 1047 : 			{
; 1048 : 				CMover* pHitObj	= prj.GetMover( m_idTarget );
; 1049 : 				if( IsInvalidObj(pHitObj) )
; 1050 : 					break;
; 1051 : 
; 1052 : 				DWORD dwSfxObj = pItemProp->dwSfxObj2;
; 1053 : 				
; 1054 : 				if( dwSfxObj == NULL_ID )	
; 1055 : 					break;
; 1056 : 				
; 1057 : 				D3DXVECTOR3 vPos;
; 1058 : 				D3DXVECTOR3 vLocal;
; 1059 : 				D3DXVECTOR3 vPosSrc   = pMover->GetPos() + D3DXVECTOR3( 0.0f, 1.0f, 0.0f ); //    .  
; 1060 : 				D3DXVECTOR3 vPosDest  = pHitObj->GetPos() + D3DXVECTOR3( 0.0f, 1.0f, 0.0f ); //    .  
; 1061 : 				
; 1062 : 				CSfx* pSfx = NULL;
; 1063 : 				
; 1064 : 				if( pMover->m_dwMotion == MTI_ATK1 )
; 1065 : 				{
; 1066 : 					pModel->GetHandPos( &vPos, PARTS_RWEAPON, pMover->GetMatrixWorld() );
; 1067 : 					pSfx = CreateSfxYoYo( D3DDEVICE, dwSfxObj, vPos, pMover->GetId(), vPosDest );	
; 1068 : 					((CSfxItemYoyoAtk*)pSfx)->MakePath(PARTS_RWEAPON);					
; 1069 : 				}
; 1070 : 				else
; 1071 : 				if( pMover->m_dwMotion == MTI_ATK2 )
; 1072 : 				{
; 1073 : 					pModel->GetHandPos( &vPos, PARTS_LWEAPON, pMover->GetMatrixWorld() );
; 1074 : 					pSfx = CreateSfxYoYo( D3DDEVICE, dwSfxObj, vPos, pMover->GetId(), vPosDest );	
; 1075 : 					((CSfxItemYoyoAtk*)pSfx)->MakePath(PARTS_LWEAPON);
; 1076 : 				}
; 1077 : 			}
; 1078 : 		#endif //__CLIENT
; 1079 : 
; 1080 : 			if( pModel->IsAttrHit() )	//    ?

  0010f	8b 13		 mov	 edx, DWORD PTR [ebx]
  00111	8b cb		 mov	 ecx, ebx
  00113	ff 52 24	 call	 DWORD PTR [edx+36]
  00116	85 c0		 test	 eax, eax
  00118	74 38		 je	 SHORT $L255463

; 1081 : 			{
; 1082 : 				pMover->m_dwFlag |= MVRF_HITCONT;

  0011a	83 8e 48 02 00
	00 20		 or	 DWORD PTR [esi+584], 32	; 00000020H

; 1083 : 				
; 1084 : 				CMover* pHitObj	= prj.GetMover( m_idTarget );

  00121	8b 85 88 00 00
	00		 mov	 eax, DWORD PTR [ebp+136]
  00127	50		 push	 eax
  00128	b9 00 00 00 00	 mov	 ecx, OFFSET FLAT:?prj@@3VCProject@@A
  0012d	e8 00 00 00 00	 call	 ?GetMover@CProject@@QAEPAVCMover@@K@Z ; CProject::GetMover
  00132	8b d8		 mov	 ebx, eax

; 1085 : 				if( IsValidObj( (CObj*)pHitObj ) && pHitObj->IsLive() )

  00134	85 db		 test	 ebx, ebx
  00136	74 1a		 je	 SHORT $L255463
  00138	f6 43 04 01	 test	 BYTE PTR [ebx+4], 1
  0013c	75 14		 jne	 SHORT $L255463
  0013e	8b cb		 mov	 ecx, ebx
  00140	e8 00 00 00 00	 call	 ?IsLive@CMover@@QAEHXZ	; CMover::IsLive
  00145	85 c0		 test	 eax, eax
  00147	74 09		 je	 SHORT $L255463

; 1086 : 				{
; 1087 : 					//  .
; 1088 : 					pMover->OnAttackMelee( dwState, pHitObj );

  00149	53		 push	 ebx
  0014a	57		 push	 edi
  0014b	8b ce		 mov	 ecx, esi
  0014d	e8 00 00 00 00	 call	 ?OnAttackMelee@CMover@@QAEHKPAV1@@Z ; CMover::OnAttackMelee
$L255463:
  00152	5f		 pop	 edi
  00153	5e		 pop	 esi
  00154	5d		 pop	 ebp
  00155	5b		 pop	 ebx

; 1089 : 				}
; 1090 : 			} // is hitattr ?
; 1091 : 
; 1092 : 		#if defined(__CLIENT)
; 1093 : 			if( pModel->IsAttrQuake() )
; 1094 : 			{
; 1095 : 				if( pMover->m_dwIndex == MI_BIGMUSCLE || 
; 1096 : 					pMover->m_dwIndex == MI_KRRR || 
; 1097 : 					pMover->m_dwIndex == MI_MUSHMOOT )
; 1098 : 					pMover->GetWorld()->m_pCamera->SetQuake( 60, 0.7f );	
; 1099 : 			}
; 1100 : 		#endif // defined(__CLIENT)
; 1101 : 			
; 1102 : 		}
; 1103 : 		break;
; 1104 : 	}
; 1105 : }

  00156	c2 08 00	 ret	 8
?_ProcessStateAttack@CActionMover@@QAEXKH@Z ENDP	; CActionMover::_ProcessStateAttack
_TEXT	ENDS
PUBLIC	?ProcessStateAttackSP@CActionMover@@QAEXKH@Z	; CActionMover::ProcessStateAttackSP
EXTRN	?OnAttackSP@CMover@@QAEHXZ:NEAR			; CMover::OnAttackSP
; Function compile flags: /Ogty
;	COMDAT ?ProcessStateAttackSP@CActionMover@@QAEXKH@Z
_TEXT	SEGMENT
_dwState$ = 8						; size = 4
_nParam$ = 12						; size = 4
?ProcessStateAttackSP@CActionMover@@QAEXKH@Z PROC NEAR	; CActionMover::ProcessStateAttackSP, COMDAT
; _this$ = ecx

; 1112 : 	CMover* pMover = m_pMover;
; 1113 : 	CModelObject	*pModel = (CModelObject *)pMover->m_pModel;
; 1114 : 	
; 1115 : 	switch( dwState )

  00000	8b 44 24 04	 mov	 eax, DWORD PTR _dwState$[esp-4]
  00004	3d 00 00 10 00	 cmp	 eax, 1048576		; 00100000H
  00009	56		 push	 esi
  0000a	8b 71 0c	 mov	 esi, DWORD PTR [ecx+12]
  0000d	57		 push	 edi
  0000e	8b be 78 01 00
	00		 mov	 edi, DWORD PTR [esi+376]
  00014	74 07		 je	 SHORT $L255476
  00016	3d 00 00 20 00	 cmp	 eax, 2097152		; 00200000H
  0001b	75 26		 jne	 SHORT $L255478
$L255476:

; 1116 : 	{
; 1117 : 	case OBJSTA_SP_ATK1:
; 1118 : 	case OBJSTA_SP_ATK2:
; 1119 : 		if( pModel->IsEndFrame() )

  0001d	8b 87 9c 00 00
	00		 mov	 eax, DWORD PTR [edi+156]
  00023	85 c0		 test	 eax, eax
  00025	74 0a		 je	 SHORT $L255477

; 1120 : 		{
; 1121 : 			ResetState( OBJSTA_ATK_ALL );

  00027	68 00 00 ff 00	 push	 16711680		; 00ff0000H
  0002c	e8 00 00 00 00	 call	 ?ResetState@CAction@@QAEXK@Z ; CAction::ResetState
$L255477:

; 1122 : 		}
; 1123 : 		if( pModel->IsAttrHit() )			//    ? 

  00031	8b 07		 mov	 eax, DWORD PTR [edi]
  00033	8b cf		 mov	 ecx, edi
  00035	ff 50 24	 call	 DWORD PTR [eax+36]
  00038	85 c0		 test	 eax, eax
  0003a	74 07		 je	 SHORT $L255478

; 1124 : 		{
; 1125 : 			pMover->OnAttackSP();		//    .

  0003c	8b ce		 mov	 ecx, esi
  0003e	e8 00 00 00 00	 call	 ?OnAttackSP@CMover@@QAEHXZ ; CMover::OnAttackSP
$L255478:
  00043	5f		 pop	 edi
  00044	5e		 pop	 esi

; 1126 : 		}
; 1127 : 		break;
; 1128 : 	}
; 1129 : }

  00045	c2 08 00	 ret	 8
?ProcessStateAttackSP@CActionMover@@QAEXKH@Z ENDP	; CActionMover::ProcessStateAttackSP
_TEXT	ENDS
PUBLIC	?ProcessStateAttackMagic@CActionMover@@QAEXKH@Z	; CActionMover::ProcessStateAttackMagic
EXTRN	?OnAttackMagic@CMover@@QAEHXZ:NEAR		; CMover::OnAttackMagic
; Function compile flags: /Ogty
;	COMDAT ?ProcessStateAttackMagic@CActionMover@@QAEXKH@Z
_TEXT	SEGMENT
_dwState$ = 8						; size = 4
_nParam$ = 12						; size = 4
?ProcessStateAttackMagic@CActionMover@@QAEXKH@Z PROC NEAR ; CActionMover::ProcessStateAttackMagic, COMDAT
; _this$ = ecx

; 1137 : 	CMover* pMover = m_pMover;
; 1138 : 	CModelObject	*pModel = (CModelObject *)pMover->m_pModel;
; 1139 : 	
; 1140 : 	switch( dwState )

  00000	81 7c 24 04 00
	00 05 00	 cmp	 DWORD PTR _dwState$[esp-4], 327680 ; 00050000H
  00008	56		 push	 esi
  00009	8b 71 0c	 mov	 esi, DWORD PTR [ecx+12]
  0000c	57		 push	 edi
  0000d	8b be 78 01 00
	00		 mov	 edi, DWORD PTR [esi+376]
  00013	75 26		 jne	 SHORT $L255493

; 1141 : 	{
; 1142 : 	case OBJSTA_ATK_MAGIC1:
; 1143 : 		if( pModel->IsEndFrame() )

  00015	8b 87 9c 00 00
	00		 mov	 eax, DWORD PTR [edi+156]
  0001b	85 c0		 test	 eax, eax
  0001d	74 0a		 je	 SHORT $L255492

; 1144 : 			ResetState( OBJSTA_ATK_ALL );

  0001f	68 00 00 ff 00	 push	 16711680		; 00ff0000H
  00024	e8 00 00 00 00	 call	 ?ResetState@CAction@@QAEXK@Z ; CAction::ResetState
$L255492:

; 1145 : 
; 1146 : 		if( pModel->IsAttrHit() )			//    ? 

  00029	8b 07		 mov	 eax, DWORD PTR [edi]
  0002b	8b cf		 mov	 ecx, edi
  0002d	ff 50 24	 call	 DWORD PTR [eax+36]
  00030	85 c0		 test	 eax, eax
  00032	74 07		 je	 SHORT $L255493

; 1147 : 		{
; 1148 : 			pMover->OnAttackMagic();		//    .

  00034	8b ce		 mov	 ecx, esi
  00036	e8 00 00 00 00	 call	 ?OnAttackMagic@CMover@@QAEHXZ ; CMover::OnAttackMagic
$L255493:
  0003b	5f		 pop	 edi
  0003c	5e		 pop	 esi

; 1149 : 		}
; 1150 : 		break;
; 1151 : 	}
; 1152 : }

  0003d	c2 08 00	 ret	 8
?ProcessStateAttackMagic@CActionMover@@QAEXKH@Z ENDP	; CActionMover::ProcessStateAttackMagic
_TEXT	ENDS
PUBLIC	?ProcessStateAttackRange@CActionMover@@QAEXKH@Z	; CActionMover::ProcessStateAttackRange
EXTRN	?OnAttackRange@CMover@@QAEHXZ:NEAR		; CMover::OnAttackRange
; Function compile flags: /Ogty
;	COMDAT ?ProcessStateAttackRange@CActionMover@@QAEXKH@Z
_TEXT	SEGMENT
_dwState$ = 8						; size = 4
_nParam$ = 12						; size = 4
?ProcessStateAttackRange@CActionMover@@QAEXKH@Z PROC NEAR ; CActionMover::ProcessStateAttackRange, COMDAT
; _this$ = ecx

; 1160 : 	CMover* pMover = m_pMover;
; 1161 : 	CModelObject	*pModel = (CModelObject *)pMover->m_pModel;
; 1162 : 	
; 1163 : 	switch( dwState )

  00000	81 7c 24 04 00
	00 06 00	 cmp	 DWORD PTR _dwState$[esp-4], 393216 ; 00060000H
  00008	53		 push	 ebx
  00009	56		 push	 esi
  0000a	57		 push	 edi
  0000b	8b f9		 mov	 edi, ecx
  0000d	8b 77 0c	 mov	 esi, DWORD PTR [edi+12]
  00010	8b 9e 78 01 00
	00		 mov	 ebx, DWORD PTR [esi+376]
  00016	75 61		 jne	 SHORT $L255511

; 1164 : 	{
; 1165 : 	case OBJSTA_ATK_RANGE1:
; 1166 : 		//    
; 1167 : 		if( pModel->IsEndFrame() )

  00018	8b 83 9c 00 00
	00		 mov	 eax, DWORD PTR [ebx+156]
  0001e	85 c0		 test	 eax, eax
  00020	74 0a		 je	 SHORT $L255507

; 1168 : 		{
; 1169 : 			ResetState( OBJSTA_ATK_ALL );

  00022	68 00 00 ff 00	 push	 16711680		; 00ff0000H
  00027	e8 00 00 00 00	 call	 ?ResetState@CAction@@QAEXK@Z ; CAction::ResetState
$L255507:

; 1170 : 		}
; 1171 : 		if( pModel->IsAttrHit() )			//    ? 

  0002c	8b 03		 mov	 eax, DWORD PTR [ebx]
  0002e	8b cb		 mov	 ecx, ebx
  00030	ff 50 24	 call	 DWORD PTR [eax+36]
  00033	85 c0		 test	 eax, eax
  00035	74 42		 je	 SHORT $L255511

; 1172 : 		{
; 1173 : 			pMover->m_dwFlag |= MVRF_HITCONT;	

  00037	83 8e 48 02 00
	00 20		 or	 DWORD PTR [esi+584], 32	; 00000020H

; 1174 : 			CMover* pHitObj	= prj.GetMover( m_idTarget );

  0003e	8b 8f 88 00 00
	00		 mov	 ecx, DWORD PTR [edi+136]
  00044	51		 push	 ecx
  00045	b9 00 00 00 00	 mov	 ecx, OFFSET FLAT:?prj@@3VCProject@@A
  0004a	e8 00 00 00 00	 call	 ?GetMover@CProject@@QAEPAVCMover@@K@Z ; CProject::GetMover

; 1175 : 
; 1176 : 			if( IsValidObj( (CObj*)pHitObj ) && pHitObj->IsLive() )

  0004f	85 c0		 test	 eax, eax
  00051	74 26		 je	 SHORT $L255511
  00053	f6 40 04 01	 test	 BYTE PTR [eax+4], 1
  00057	75 20		 jne	 SHORT $L255511
  00059	8b 90 3c 02 00
	00		 mov	 edx, DWORD PTR [eax+572]
  0005f	f7 42 04 00 00
	00 08		 test	 DWORD PTR [edx+4], 134217728 ; 08000000H
  00066	74 0a		 je	 SHORT $L259989
  00068	8b 88 00 06 00
	00		 mov	 ecx, DWORD PTR [eax+1536]
  0006e	85 c9		 test	 ecx, ecx
  00070	7e 07		 jle	 SHORT $L255511
$L259989:

; 1177 : 				pMover->OnAttackRange();

  00072	8b ce		 mov	 ecx, esi
  00074	e8 00 00 00 00	 call	 ?OnAttackRange@CMover@@QAEHXZ ; CMover::OnAttackRange
$L255511:
  00079	5f		 pop	 edi
  0007a	5e		 pop	 esi
  0007b	5b		 pop	 ebx

; 1178 : 		}
; 1179 : 		break;
; 1180 : 	}
; 1181 : 
; 1182 : }

  0007c	c2 08 00	 ret	 8
?ProcessStateAttackRange@CActionMover@@QAEXKH@Z ENDP	; CActionMover::ProcessStateAttackRange
_TEXT	ENDS
PUBLIC	?ProcessState1@CActionMover@@QAEXPAVCMover@@KM@Z ; CActionMover::ProcessState1
PUBLIC	__real@42b40000
PUBLIC	__real@43b40000
PUBLIC	__real@3e800000
PUBLIC	__real@be4ccccd
PUBLIC	__real@42340000
PUBLIC	__real@c2340000
PUBLIC	__real@3a83126f
PUBLIC	__real@3e4ccccd
PUBLIC	__real@00000000
EXTRN	?PostAIMsg@CMover@@QAEXKKKK@Z:NEAR		; CMover::PostAIMsg
EXTRN	?AddAngleX@CObj@@QAEXM@Z:NEAR			; CObj::AddAngleX
EXTRN	?Delete@CObj@@QAEXXZ:NEAR			; CObj::Delete
EXTRN	?AddAngle@CObj@@QAEXM@Z:NEAR			; CObj::AddAngle
EXTRN	?GetParam@CMover@@QAEHHH@Z:NEAR			; CMover::GetParam
EXTRN	?GetAdjParam@CMover@@QAEHH@Z:NEAR		; CMover::GetAdjParam
EXTRN	?SetHonorAdd@CMover@@QAEXHHH@Z:NEAR		; CMover::SetHonorAdd
EXTRN	?SetMotionBlending@CModelObject@@QAEXH@Z:NEAR	; CModelObject::SetMotionBlending
EXTRN	?RemoveStateFlag@CAction@@QAEXK@Z:NEAR		; CAction::RemoveStateFlag
EXTRN	?OnActLanding@CMover@@QAEXXZ:NEAR		; CMover::OnActLanding
;	COMDAT __real@00000000
; File c:\documents and settings\test\mes documents\source\virtuos_v17\build\program\_common\model.h
CONST	SEGMENT
__real@00000000 DD 000000000r			; 0
CONST	ENDS
;	COMDAT __real@42b40000
CONST	SEGMENT
__real@42b40000 DD 042b40000r			; 90
CONST	ENDS
;	COMDAT __real@43b40000
CONST	SEGMENT
__real@43b40000 DD 043b40000r			; 360
CONST	ENDS
;	COMDAT __real@3e800000
CONST	SEGMENT
__real@3e800000 DD 03e800000r			; 0.25
CONST	ENDS
;	COMDAT __real@be4ccccd
CONST	SEGMENT
__real@be4ccccd DD 0be4ccccdr			; -0.2
CONST	ENDS
;	COMDAT __real@42340000
CONST	SEGMENT
__real@42340000 DD 042340000r			; 45
CONST	ENDS
;	COMDAT __real@c2340000
CONST	SEGMENT
__real@c2340000 DD 0c2340000r			; -45
CONST	ENDS
;	COMDAT __real@3a83126f
CONST	SEGMENT
__real@3a83126f DD 03a83126fr			; 0.001
CONST	ENDS
;	COMDAT __real@3e4ccccd
CONST	SEGMENT
__real@3e4ccccd DD 03e4ccccdr			; 0.2
; Function compile flags: /Ogty
; File c:\documents and settings\test\mes documents\source\virtuos_v17\build\program\_aiinterface\actionmoverstate.cpp
CONST	ENDS
;	COMDAT ?ProcessState1@CActionMover@@QAEXPAVCMover@@KM@Z
_TEXT	SEGMENT
_fT$255242 = 8						; size = 4
_fT$255226 = 8						; size = 4
_fTheta$ = 8						; size = 4
_pMover$ = 8						; size = 4
_dwState$ = 12						; size = 4
tv1387 = 16						; size = 4
_fSpeed$ = 16						; size = 4
?ProcessState1@CActionMover@@QAEXPAVCMover@@KM@Z PROC NEAR ; CActionMover::ProcessState1, COMDAT
; _this$ = ecx

; 34   : 	int nParam = 0;
; 35   : 	FLOAT fTheta = D3DXToRadian( pMover->GetAngle() );
; 36   : 	CModelObject* pModel = (CModelObject*)pMover->m_pModel;
; 37   : 
; 38   : 	switch( dwState )

  00000	8b 44 24 08	 mov	 eax, DWORD PTR _dwState$[esp-4]
  00004	53		 push	 ebx
  00005	55		 push	 ebp
  00006	56		 push	 esi
  00007	8b 74 24 10	 mov	 esi, DWORD PTR _pMover$[esp+8]
  0000b	d9 46 18	 fld	 DWORD PTR [esi+24]
  0000e	8b ae 78 01 00
	00		 mov	 ebp, DWORD PTR [esi+376]
  00014	d8 0d 00 00 00
	00		 fmul	 DWORD PTR __real@3c8efa35
  0001a	57		 push	 edi
  0001b	8b f9		 mov	 edi, ecx
  0001d	b9 00 01 00 00	 mov	 ecx, 256		; 00000100H
  00022	3b c1		 cmp	 eax, ecx
  00024	d9 5c 24 14	 fstp	 DWORD PTR _fTheta$[esp+12]
  00028	0f 87 8c 04 00
	00		 ja	 $L259998
  0002e	0f 84 66 04 00
	00		 je	 $L255295
  00034	48		 dec	 eax
  00035	bb 09 00 00 00	 mov	 ebx, 9
  0003a	3b c3		 cmp	 eax, ebx
  0003c	0f 87 78 0a 00
	00		 ja	 $L255294
  00042	ff 24 85 00 00
	00 00		 jmp	 DWORD PTR $L260285[eax*4]
$L255209:

; 39   : 	{
; 40   : 	//  
; 41   : 	case OBJSTA_STAND:
; 42   : 		if( GetState() == OBJSTA_STAND )		//      

  00049	83 7f 04 01	 cmp	 DWORD PTR [edi+4], 1
  0004d	75 7d		 jne	 SHORT $L260274

; 43   : 		{
; 44   : 			if( GetStateFlag() & OBJSTAF_ETC )

  0004f	f6 47 08 20	 test	 BYTE PTR [edi+8], 32	; 00000020H

; 45   : 			{
; 46   : #ifdef __CLIENT
; 47   : 				switch( pModel->m_nLoop )
; 48   : 				{
; 49   : 				case ANILOOP_1PLAY:
; 50   : 					if( pModel->IsEndFrame() )
; 51   : 						RemoveStateFlag( OBJSTAF_ETC );
; 52   : 					break;
; 53   : 				case ANILOOP_CONT:
; 54   : 				case ANILOOP_LOOP:
; 55   : 					if( pMover->IsActiveMover() && g_WndMng.m_pWndWorld->m_bLButtonDown )		//   .
; 56   : 					{
; 57   : 						if( pModel->IsEndFrame() )
; 58   : 							RemoveStateFlag( OBJSTAF_ETC );
; 59   : 					}
; 60   : 					break;
; 61   : 				}
; 62   : #else // client
; 63   : 				if( pModel->IsEndFrame() )

  00053	8b 85 9c 00 00
	00		 mov	 eax, DWORD PTR [ebp+156]
  00059	74 0f		 je	 SHORT $L255211
  0005b	85 c0		 test	 eax, eax
  0005d	74 6d		 je	 SHORT $L260274

; 64   : 					RemoveStateFlag( OBJSTAF_ETC );

  0005f	6a 20		 push	 32			; 00000020H
  00061	8b cf		 mov	 ecx, edi
  00063	e8 00 00 00 00	 call	 ?RemoveStateFlag@CAction@@QAEXK@Z ; CAction::RemoveStateFlag

; 65   : #endif // not client
; 66   : 			} 
; 67   : 			else

  00068	eb 62		 jmp	 SHORT $L260274
$L255211:

; 68   : 			{
; 69   : 				if( pModel->IsEndFrame() )

  0006a	85 c0		 test	 eax, eax
  0006c	74 5e		 je	 SHORT $L260274

; 70   : 				{
; 71   : 					if( pMover->IsStateMode( STATE_BASEMOTION_MODE ) )

  0006e	f6 86 4c 02 00
	00 04		 test	 BYTE PTR [esi+588], 4
  00075	74 0f		 je	 SHORT $L255216

; 72   : 					{
; 73   : 						pMover->SetMotion( MTI_STAND );		//  

  00077	8b 06		 mov	 eax, DWORD PTR [esi]
  00079	6a 00		 push	 0
  0007b	6a 04		 push	 4
  0007d	6a 00		 push	 0
  0007f	8b ce		 mov	 ecx, esi
  00081	ff 50 04	 call	 DWORD PTR [eax+4]

; 74   : 					} else

  00084	eb 46		 jmp	 SHORT $L260274
$L255216:

; 75   : 					{
; 76   : 						if( xRandom( 5000 ) < 2 )

  00086	68 88 13 00 00	 push	 5000			; 00001388H
  0008b	e8 00 00 00 00	 call	 ?xRandom@@YAKK@Z	; xRandom
  00090	83 c4 04	 add	 esp, 4
  00093	83 f8 02	 cmp	 eax, 2
  00096	73 08		 jae	 SHORT $L255218

; 77   : 							pMover->SetMotion( MTI_IDLE2, ANILOOP_1PLAY ); // idle2  

  00098	6a 00		 push	 0
  0009a	6a 01		 push	 1
  0009c	6a 02		 push	 2

; 78   : 						else

  0009e	eb 25		 jmp	 SHORT $L260277
$L255218:

; 79   : 						if( xRandom( 2000 ) < 2 )

  000a0	68 d0 07 00 00	 push	 2000			; 000007d0H
  000a5	e8 00 00 00 00	 call	 ?xRandom@@YAKK@Z	; xRandom
  000aa	83 c4 04	 add	 esp, 4
  000ad	83 f8 02	 cmp	 eax, 2

; 80   : 							pMover->SetMotion( MTI_IDLE1, ANILOOP_1PLAY ); // idle2  

  000b0	6a 00		 push	 0
  000b2	73 0d		 jae	 SHORT $L255220
  000b4	8b 06		 mov	 eax, DWORD PTR [esi]
  000b6	6a 01		 push	 1
  000b8	6a 01		 push	 1
  000ba	8b ce		 mov	 ecx, esi
  000bc	ff 50 04	 call	 DWORD PTR [eax+4]

; 81   : 						else

  000bf	eb 0b		 jmp	 SHORT $L260274
$L255220:

; 82   : 							pMover->SetMotion( MTI_STAND );		//  

  000c1	6a 04		 push	 4
  000c3	6a 00		 push	 0
$L260277:
  000c5	8b 16		 mov	 edx, DWORD PTR [esi]
  000c7	8b ce		 mov	 ecx, esi
  000c9	ff 52 04	 call	 DWORD PTR [edx+4]
$L260274:

; 83   : 					}
; 84   : 				}
; 85   : 			}
; 86   : 		}
; 87   : 		if( m_bGround && m_vDelta.y <= 0 )		//   STAND  ,  Ground .

  000cc	8b 47 44	 mov	 eax, DWORD PTR [edi+68]
  000cf	33 c9		 xor	 ecx, ecx
  000d1	3b c1		 cmp	 eax, ecx
  000d3	0f 84 e1 09 00
	00		 je	 $L255294
  000d9	d9 47 54	 fld	 DWORD PTR [edi+84]
  000dc	d8 1d 00 00 00
	00		 fcomp	 DWORD PTR __real@00000000
  000e2	df e0		 fnstsw	 ax
  000e4	f6 c4 41	 test	 ah, 65			; 00000041H
  000e7	0f 8a cd 09 00
	00		 jp	 $L255294

; 88   : 			m_vDelta.x = m_vDelta.z = 0;

  000ed	89 4f 58	 mov	 DWORD PTR [edi+88], ecx
  000f0	89 4f 50	 mov	 DWORD PTR [edi+80], ecx
  000f3	5f		 pop	 edi
  000f4	5e		 pop	 esi
  000f5	5d		 pop	 ebp
  000f6	5b		 pop	 ebx

; 585  : 		break;
; 586  : 	}
; 587  : }

  000f7	c2 0c 00	 ret	 12			; 0000000cH
$L255223:

; 89   : 		break;
; 90   : #ifdef __Y_INTERFACE_VER3		
; 91   : 		// 
; 92   : 	case OBJSTA_LMOVE:
; 93   : 		{
; 94   : 			if( pMover->m_dwFlag & MVRF_NOMOVE )	

  000fa	85 8e 48 02 00
	00		 test	 DWORD PTR [esi+584], ecx
  00100	0f 85 b4 09 00
	00		 jne	 $L255294

; 95   : 				break;		//    .
; 96   : #if __VER >= 10 // __LEGEND	//	10 	Neuz, World, Trans
; 97   : 			if( pMover->GetAdjParam( DST_CHRSTATE ) & CHS_LOOT)			break;

  00106	6a 40		 push	 64			; 00000040H
  00108	8b ce		 mov	 ecx, esi
  0010a	e8 00 00 00 00	 call	 ?GetAdjParam@CMover@@QAEHH@Z ; CMover::GetAdjParam
  0010f	a9 00 00 08 00	 test	 eax, 524288		; 00080000H
  00114	0f 85 a0 09 00
	00		 jne	 $L255294

; 98   : #endif	//__LEGEND	//	10 	Neuz, World, Trans
; 99   : 
; 100  : 			
; 101  : 			FLOAT fT = pMover->GetAngle();
; 102  : 
; 103  : 			fT += 90.0f;

  0011a	d9 46 18	 fld	 DWORD PTR [esi+24]
  0011d	d8 05 00 00 00
	00		 fadd	 DWORD PTR __real@42b40000

; 104  : 			if( fT > 360.0f )

  00123	d8 15 00 00 00
	00		 fcom	 DWORD PTR __real@43b40000
  00129	df e0		 fnstsw	 ax
  0012b	f6 c4 41	 test	 ah, 65			; 00000041H
  0012e	75 06		 jne	 SHORT $L255227

; 105  : 				fT -= 360.0f;

  00130	d8 25 00 00 00
	00		 fsub	 DWORD PTR __real@43b40000
$L255227:

; 106  : 			
; 107  : 			fT = D3DXToRadian(fT);

  00136	d8 0d 00 00 00
	00		 fmul	 DWORD PTR __real@3c8efa35

; 108  : 
; 109  : 			if( IsStateFlag( OBJSTAF_WALK ) )		// 

  0013c	8b 47 08	 mov	 eax, DWORD PTR [edi+8]
  0013f	a8 02		 test	 al, 2
  00141	d9 5c 24 14	 fstp	 DWORD PTR _fT$255226[esp+12]
  00145	74 3a		 je	 SHORT $L255229

; 110  : 			{				
; 111  : 				m_vDelta.x	= sinf( fT ) * (fSpeed/4.0f);

  00147	d9 44 24 1c	 fld	 DWORD PTR _fSpeed$[esp+12]

; 112  : 				m_vDelta.z	= -cos( fT ) * (fSpeed/4.0f);				
; 113  : 
; 114  : 				if( GetState() != OBJSTA_LMOVE )		break;		//   

  0014b	8b 4f 04	 mov	 ecx, DWORD PTR [edi+4]
  0014e	3b cb		 cmp	 ecx, ebx
  00150	d8 0d 00 00 00
	00		 fmul	 DWORD PTR __real@3e800000
  00156	d9 44 24 14	 fld	 DWORD PTR _fT$255226[esp+12]
  0015a	d9 fe		 fsin
  0015c	d8 c9		 fmul	 ST(0), ST(1)
  0015e	d9 5f 50	 fstp	 DWORD PTR [edi+80]
  00161	d9 44 24 14	 fld	 DWORD PTR _fT$255226[esp+12]
  00165	d9 ff		 fcos
  00167	d8 c9		 fmul	 ST(0), ST(1)
  00169	d9 e0		 fchs
  0016b	d9 5f 58	 fstp	 DWORD PTR [edi+88]
  0016e	dd d8		 fstp	 ST(0)
  00170	0f 85 44 09 00
	00		 jne	 $L255294

; 115  : 				if( IsStateFlag( OBJSTAF_COMBAT ) )	// 
; 116  : 					pMover->SetMotion( MTI_WALK );		//  

  00176	6a 00		 push	 0
  00178	6a 04		 push	 4
  0017a	6a 03		 push	 3

; 117  : 				else

  0017c	e9 93 02 00 00	 jmp	 $L260284
$L255229:

; 118  : 					pMover->SetMotion( MTI_WALK );		//  
; 119  : 			} else
; 120  : 			{
; 121  : 				if( pMover->m_dwTypeFlag & OBJTYPE_FLYING )

  00181	f7 86 40 02 00
	00 00 00 01 00	 test	 DWORD PTR [esi+576], 65536 ; 00010000H
  0018b	74 20		 je	 SHORT $L255234

; 122  : 				{
; 123  : 					FLOAT fAngXZ = pMover->GetAngle();
; 124  : 					FLOAT fAngH  = pMover->GetAngleX();
; 125  : 					AngleToVector( &m_vDelta, fAngXZ, -fAngH, fSpeed );

  0018d	8b 44 24 1c	 mov	 eax, DWORD PTR _fSpeed$[esp+12]
  00191	d9 46 1c	 fld	 DWORD PTR [esi+28]
  00194	50		 push	 eax
  00195	d9 e0		 fchs
  00197	51		 push	 ecx
  00198	8b 4e 18	 mov	 ecx, DWORD PTR [esi+24]
  0019b	d9 1c 24	 fstp	 DWORD PTR [esp]
  0019e	51		 push	 ecx
  0019f	8d 57 50	 lea	 edx, DWORD PTR [edi+80]
  001a2	52		 push	 edx
  001a3	e8 00 00 00 00	 call	 ?AngleToVector@@YAXPAUD3DXVECTOR3@@MMM@Z ; AngleToVector
  001a8	83 c4 10	 add	 esp, 16			; 00000010H

; 126  : 				} else

  001ab	eb 1c		 jmp	 SHORT $L255237
$L255234:

; 127  : 				{
; 128  : 					m_vDelta.x = sinf(fT) * fSpeed;

  001ad	d9 44 24 14	 fld	 DWORD PTR _fT$255226[esp+12]
  001b1	d9 fe		 fsin
  001b3	d8 4c 24 1c	 fmul	 DWORD PTR _fSpeed$[esp+12]
  001b7	d9 5f 50	 fstp	 DWORD PTR [edi+80]

; 129  : 					m_vDelta.z = -cosf(fT) * fSpeed;

  001ba	d9 44 24 14	 fld	 DWORD PTR _fT$255226[esp+12]
  001be	d9 ff		 fcos
  001c0	d8 4c 24 1c	 fmul	 DWORD PTR _fSpeed$[esp+12]
  001c4	d9 e0		 fchs
  001c6	d9 5f 58	 fstp	 DWORD PTR [edi+88]
$L255237:

; 130  : 				}
; 131  : 				if( GetState() != OBJSTA_LMOVE )		break;		//   

  001c9	39 5f 04	 cmp	 DWORD PTR [edi+4], ebx
  001cc	0f 85 e8 08 00
	00		 jne	 $L255294

; 132  : 				pMover->SetMotion( MTI_RUN );

  001d2	8b 06		 mov	 eax, DWORD PTR [esi]
  001d4	6a 00		 push	 0
  001d6	6a 04		 push	 4
  001d8	6a 05		 push	 5
  001da	8b ce		 mov	 ecx, esi
  001dc	ff 50 04	 call	 DWORD PTR [eax+4]
  001df	5f		 pop	 edi
  001e0	5e		 pop	 esi
  001e1	5d		 pop	 ebp
  001e2	5b		 pop	 ebx

; 585  : 		break;
; 586  : 	}
; 587  : }

  001e3	c2 0c 00	 ret	 12			; 0000000cH
$L255239:

; 133  : 			}
; 134  : #ifdef __CLIENT		
; 135  : 			if( pMover->IsNPC() )
; 136  : 				if( pModel->IsAttrHit() )
; 137  : 					GetWorld()->m_pCamera->SetQuake( 15 );
; 138  : #endif // CLIENT
; 139  : 		}
; 140  : 		break;
; 141  : 		// 
; 142  : 	case OBJSTA_RMOVE:
; 143  : 		{
; 144  : 			if( pMover->m_dwFlag & MVRF_NOMOVE )	

  001e6	85 8e 48 02 00
	00		 test	 DWORD PTR [esi+584], ecx
  001ec	0f 85 c8 08 00
	00		 jne	 $L255294

; 145  : 				break;		//    .
; 146  : #if __VER >= 10 // __LEGEND	//	10 	Neuz, World, Trans
; 147  : 			if( pMover->GetAdjParam( DST_CHRSTATE ) & CHS_LOOT)			break;

  001f2	6a 40		 push	 64			; 00000040H
  001f4	8b ce		 mov	 ecx, esi
  001f6	e8 00 00 00 00	 call	 ?GetAdjParam@CMover@@QAEHH@Z ; CMover::GetAdjParam
  001fb	a9 00 00 08 00	 test	 eax, 524288		; 00080000H
  00200	0f 85 b4 08 00
	00		 jne	 $L255294

; 148  : #endif	//__LEGEND	//	10 	Neuz, World, Trans
; 149  : 
; 150  : 
; 151  : 			FLOAT fT = pMover->GetAngle();
; 152  : 
; 153  : 			fT -= 90.0f;

  00206	d9 46 18	 fld	 DWORD PTR [esi+24]
  00209	d8 25 00 00 00
	00		 fsub	 DWORD PTR __real@42b40000

; 154  : 			if( fT < 0 )

  0020f	d8 15 00 00 00
	00		 fcom	 DWORD PTR __real@00000000
  00215	df e0		 fnstsw	 ax
  00217	f6 c4 05	 test	 ah, 5
  0021a	7a 06		 jp	 SHORT $L255243

; 155  : 				fT += 360.0f;

  0021c	d8 05 00 00 00
	00		 fadd	 DWORD PTR __real@43b40000
$L255243:

; 156  : 			
; 157  : 			fT = D3DXToRadian(fT);			

  00222	d8 0d 00 00 00
	00		 fmul	 DWORD PTR __real@3c8efa35

; 158  : 			
; 159  : 			if( IsStateFlag( OBJSTAF_WALK ) )		// 

  00228	8b 47 08	 mov	 eax, DWORD PTR [edi+8]
  0022b	a8 02		 test	 al, 2
  0022d	d9 5c 24 14	 fstp	 DWORD PTR _fT$255242[esp+12]
  00231	74 35		 je	 SHORT $L255245

; 160  : 			{
; 161  : 				m_vDelta.x = sinf(fT) * (fSpeed/4.0f);		// ....

  00233	d9 44 24 1c	 fld	 DWORD PTR _fSpeed$[esp+12]

; 162  : 				m_vDelta.z = -cosf(fT) * (fSpeed/4.0f);
; 163  : 				
; 164  : 				if( GetState() != OBJSTA_RMOVE )		break;		//   

  00237	8b 4f 04	 mov	 ecx, DWORD PTR [edi+4]
  0023a	83 f9 0a	 cmp	 ecx, 10			; 0000000aH
  0023d	d8 0d 00 00 00
	00		 fmul	 DWORD PTR __real@3e800000
  00243	d9 44 24 14	 fld	 DWORD PTR _fT$255242[esp+12]
  00247	d9 fe		 fsin
  00249	d8 c9		 fmul	 ST(0), ST(1)
  0024b	d9 5f 50	 fstp	 DWORD PTR [edi+80]
  0024e	d9 44 24 14	 fld	 DWORD PTR _fT$255242[esp+12]
  00252	d9 ff		 fcos
  00254	d8 c9		 fmul	 ST(0), ST(1)
  00256	d9 e0		 fchs
  00258	d9 5f 58	 fstp	 DWORD PTR [edi+88]
  0025b	dd d8		 fstp	 ST(0)
  0025d	0f 85 57 08 00
	00		 jne	 $L255294

; 165  : 				if( IsStateFlag( OBJSTAF_COMBAT ) )	// 
; 166  : 					pMover->SetMotion( MTI_WALK );		//  
; 167  : 				else

  00263	e9 eb 00 00 00	 jmp	 $L260281
$L255245:

; 168  : 					pMover->SetMotion( MTI_WALK );		//  
; 169  : 			} else
; 170  : 			{
; 171  : 				if( pMover->m_dwTypeFlag & OBJTYPE_FLYING )

  00268	f7 86 40 02 00
	00 00 00 01 00	 test	 DWORD PTR [esi+576], 65536 ; 00010000H
  00272	74 20		 je	 SHORT $L255250

; 172  : 				{
; 173  : 					FLOAT fAngXZ = pMover->GetAngle();
; 174  : 					FLOAT fAngH  = pMover->GetAngleX();
; 175  : 					AngleToVector( &m_vDelta, fAngXZ, -fAngH, fSpeed );

  00274	8b 4c 24 1c	 mov	 ecx, DWORD PTR _fSpeed$[esp+12]
  00278	d9 46 1c	 fld	 DWORD PTR [esi+28]
  0027b	8b 56 18	 mov	 edx, DWORD PTR [esi+24]
  0027e	d9 e0		 fchs
  00280	51		 push	 ecx
  00281	51		 push	 ecx
  00282	d9 1c 24	 fstp	 DWORD PTR [esp]
  00285	52		 push	 edx
  00286	8d 47 50	 lea	 eax, DWORD PTR [edi+80]
  00289	50		 push	 eax
  0028a	e8 00 00 00 00	 call	 ?AngleToVector@@YAXPAUD3DXVECTOR3@@MMM@Z ; AngleToVector
  0028f	83 c4 10	 add	 esp, 16			; 00000010H

; 176  : 				} else

  00292	eb 1c		 jmp	 SHORT $L255253
$L255250:

; 177  : 				{
; 178  : 					m_vDelta.x = sinf(fT) * fSpeed;

  00294	d9 44 24 14	 fld	 DWORD PTR _fT$255242[esp+12]
  00298	d9 fe		 fsin
  0029a	d8 4c 24 1c	 fmul	 DWORD PTR _fSpeed$[esp+12]
  0029e	d9 5f 50	 fstp	 DWORD PTR [edi+80]

; 179  : 					m_vDelta.z = -cosf(fT) * fSpeed;

  002a1	d9 44 24 14	 fld	 DWORD PTR _fT$255242[esp+12]
  002a5	d9 ff		 fcos
  002a7	d8 4c 24 1c	 fmul	 DWORD PTR _fSpeed$[esp+12]
  002ab	d9 e0		 fchs
  002ad	d9 5f 58	 fstp	 DWORD PTR [edi+88]
$L255253:

; 180  : 				}
; 181  : 				if( GetState() != OBJSTA_RMOVE )		break;		//   

  002b0	83 7f 04 0a	 cmp	 DWORD PTR [edi+4], 10	; 0000000aH
  002b4	0f 85 00 08 00
	00		 jne	 $L255294

; 217  : 				pMover->SetMotion( MTI_WALK );		//  

  002ba	8b 16		 mov	 edx, DWORD PTR [esi]
  002bc	6a 00		 push	 0
  002be	6a 04		 push	 4
  002c0	6a 05		 push	 5
  002c2	8b ce		 mov	 ecx, esi
  002c4	ff 52 04	 call	 DWORD PTR [edx+4]
  002c7	5f		 pop	 edi
  002c8	5e		 pop	 esi
  002c9	5d		 pop	 ebp
  002ca	5b		 pop	 ebx

; 585  : 		break;
; 586  : 	}
; 587  : }

  002cb	c2 0c 00	 ret	 12			; 0000000cH
$L255255:

; 182  : 				pMover->SetMotion( MTI_RUN );
; 183  : 			}
; 184  : #ifdef __CLIENT		
; 185  : 			if( pMover->IsNPC() )
; 186  : 				if( pModel->IsAttrHit() )
; 187  : 					GetWorld()->m_pCamera->SetQuake( 15 );
; 188  : #endif // CLIENT
; 189  : 		}
; 190  : 		break;
; 191  : #endif //__Y_INTERFACE_VER3
; 192  : 
; 193  : 	// 
; 194  : 	case OBJSTA_FMOVE:
; 195  : 		{
; 196  : 			if( pMover->m_dwFlag & MVRF_NOMOVE )	

  002ce	85 8e 48 02 00
	00		 test	 DWORD PTR [esi+584], ecx
  002d4	0f 85 e0 07 00
	00		 jne	 $L255294

; 197  : 				break;		//    .
; 198  : #if __VER >= 10 // __LEGEND	//	10 	Neuz, World, Trans
; 199  : 			if( pMover->GetAdjParam( DST_CHRSTATE ) & CHS_LOOT)			break;

  002da	6a 40		 push	 64			; 00000040H
  002dc	8b ce		 mov	 ecx, esi
  002de	e8 00 00 00 00	 call	 ?GetAdjParam@CMover@@QAEHH@Z ; CMover::GetAdjParam
  002e3	a9 00 00 08 00	 test	 eax, 524288		; 00080000H
  002e8	0f 85 cc 07 00
	00		 jne	 $L255294

; 200  : #endif	//__LEGEND	//	10 	Neuz, World, Trans
; 201  : 
; 202  : 			
; 203  : 		if( IsStateFlag( OBJSTAF_WALK ) )		// 

  002ee	f6 47 08 02	 test	 BYTE PTR [edi+8], 2

; 204  : 		{
; 205  : 			if( pMover->m_dwTypeFlag & OBJTYPE_FLYING )

  002f2	8b 86 40 02 00
	00		 mov	 eax, DWORD PTR [esi+576]
  002f8	74 75		 je	 SHORT $L255258
  002fa	a9 00 00 01 00	 test	 eax, 65536		; 00010000H

; 206  : 			{
; 207  : 				FLOAT fAngXZ = pMover->GetAngle();
; 208  : 				FLOAT fAngH  = pMover->GetAngleX();
; 209  : 				AngleToVector( &m_vDelta, fAngXZ, -fAngH, fSpeed/4.0f );

  002ff	d9 44 24 1c	 fld	 DWORD PTR _fSpeed$[esp+12]
  00303	d8 0d 00 00 00
	00		 fmul	 DWORD PTR __real@3e800000
  00309	74 21		 je	 SHORT $L255259
  0030b	8b 46 18	 mov	 eax, DWORD PTR [esi+24]
  0030e	83 ec 08	 sub	 esp, 8
  00311	d9 5c 24 04	 fstp	 DWORD PTR [esp+4]
  00315	8d 4f 50	 lea	 ecx, DWORD PTR [edi+80]
  00318	d9 46 1c	 fld	 DWORD PTR [esi+28]
  0031b	d9 e0		 fchs
  0031d	d9 1c 24	 fstp	 DWORD PTR [esp]
  00320	50		 push	 eax
  00321	51		 push	 ecx
  00322	e8 00 00 00 00	 call	 ?AngleToVector@@YAXPAUD3DXVECTOR3@@MMM@Z ; AngleToVector
  00327	83 c4 10	 add	 esp, 16			; 00000010H

; 210  : 			} else

  0032a	eb 1a		 jmp	 SHORT $L255262
$L255259:

; 211  : 			{
; 212  : 				m_vDelta.x = sinf(fTheta) * (fSpeed/4.0f);		// ....

  0032c	d9 44 24 14	 fld	 DWORD PTR _fTheta$[esp+12]
  00330	d9 fe		 fsin
  00332	d8 c9		 fmul	 ST(0), ST(1)
  00334	d9 5f 50	 fstp	 DWORD PTR [edi+80]

; 213  : 				m_vDelta.z = -cosf(fTheta) * (fSpeed/4.0f);

  00337	d9 44 24 14	 fld	 DWORD PTR _fTheta$[esp+12]
  0033b	d9 ff		 fcos
  0033d	d8 c9		 fmul	 ST(0), ST(1)
  0033f	d9 e0		 fchs
  00341	d9 5f 58	 fstp	 DWORD PTR [edi+88]
  00344	dd d8		 fstp	 ST(0)
$L255262:

; 214  : 			}
; 215  : 			if( GetState() != OBJSTA_FMOVE )		break;		//   

  00346	83 7f 04 04	 cmp	 DWORD PTR [edi+4], 4
  0034a	0f 85 6a 07 00
	00		 jne	 $L255294

; 216  : 			if( IsStateFlag( OBJSTAF_COMBAT ) )	// 

  00350	8a 47 08	 mov	 al, BYTE PTR [edi+8]
$L260281:
  00353	a8 01		 test	 al, 1

; 217  : 				pMover->SetMotion( MTI_WALK );		//  

  00355	6a 00		 push	 0
  00357	6a 04		 push	 4
  00359	8b ce		 mov	 ecx, esi
  0035b	6a 03		 push	 3
  0035d	0f 84 bb 00 00
	00		 je	 $L255264
$L255231:
  00363	8b 16		 mov	 edx, DWORD PTR [esi]
  00365	ff 52 04	 call	 DWORD PTR [edx+4]
  00368	5f		 pop	 edi
  00369	5e		 pop	 esi
  0036a	5d		 pop	 ebp
  0036b	5b		 pop	 ebx

; 585  : 		break;
; 586  : 	}
; 587  : }

  0036c	c2 0c 00	 ret	 12			; 0000000cH
$L255258:

; 218  : 			else
; 219  : 				pMover->SetMotion( MTI_WALK );		//  
; 220  : 		} else
; 221  : 		{
; 222  : 			if( pMover->m_dwTypeFlag & OBJTYPE_FLYING )

  0036f	a9 00 00 01 00	 test	 eax, 65536		; 00010000H
  00374	74 20		 je	 SHORT $L255267

; 223  : 			{
; 224  : 				FLOAT fAngXZ = pMover->GetAngle();
; 225  : 				FLOAT fAngH  = pMover->GetAngleX();
; 226  : 				AngleToVector( &m_vDelta, fAngXZ, -fAngH, fSpeed );

  00376	8b 4c 24 1c	 mov	 ecx, DWORD PTR _fSpeed$[esp+12]
  0037a	d9 46 1c	 fld	 DWORD PTR [esi+28]
  0037d	8b 56 18	 mov	 edx, DWORD PTR [esi+24]
  00380	d9 e0		 fchs
  00382	51		 push	 ecx
  00383	51		 push	 ecx
  00384	d9 1c 24	 fstp	 DWORD PTR [esp]
  00387	52		 push	 edx
  00388	8d 47 50	 lea	 eax, DWORD PTR [edi+80]
  0038b	50		 push	 eax
  0038c	e8 00 00 00 00	 call	 ?AngleToVector@@YAXPAUD3DXVECTOR3@@MMM@Z ; AngleToVector
  00391	83 c4 10	 add	 esp, 16			; 00000010H

; 227  : 			} else

  00394	eb 1c		 jmp	 SHORT $L255270
$L255267:

; 228  : 			{
; 229  : 				m_vDelta.x = sinf(fTheta) * fSpeed;

  00396	d9 44 24 14	 fld	 DWORD PTR _fTheta$[esp+12]
  0039a	d9 fe		 fsin
  0039c	d8 4c 24 1c	 fmul	 DWORD PTR _fSpeed$[esp+12]
  003a0	d9 5f 50	 fstp	 DWORD PTR [edi+80]

; 230  : 				m_vDelta.z = -cosf(fTheta) * fSpeed;

  003a3	d9 44 24 14	 fld	 DWORD PTR _fTheta$[esp+12]
  003a7	d9 ff		 fcos
  003a9	d8 4c 24 1c	 fmul	 DWORD PTR _fSpeed$[esp+12]
  003ad	d9 e0		 fchs
  003af	d9 5f 58	 fstp	 DWORD PTR [edi+88]
$L255270:

; 231  : 			}
; 232  : 			if( GetState() != OBJSTA_FMOVE )		break;		//   

  003b2	83 7f 04 04	 cmp	 DWORD PTR [edi+4], 4
  003b6	0f 85 fe 06 00
	00		 jne	 $L255294
  003bc	8b 16		 mov	 edx, DWORD PTR [esi]

; 233  : 			pMover->SetMotion( MTI_RUN );

  003be	6a 00		 push	 0
  003c0	6a 04		 push	 4
  003c2	6a 05		 push	 5
  003c4	8b ce		 mov	 ecx, esi
  003c6	ff 52 04	 call	 DWORD PTR [edx+4]
  003c9	5f		 pop	 edi
  003ca	5e		 pop	 esi
  003cb	5d		 pop	 ebp
  003cc	5b		 pop	 ebx

; 585  : 		break;
; 586  : 	}
; 587  : }

  003cd	c2 0c 00	 ret	 12			; 0000000cH
$L255272:

; 234  : 		}
; 235  : #ifdef __CLIENT		
; 236  : 		if( pMover->IsNPC() )
; 237  : 			if( pModel->IsAttrHit() )
; 238  : 				GetWorld()->m_pCamera->SetQuake( 15 );
; 239  : #endif // CLIENT
; 240  : 		}
; 241  : 		break;
; 242  : 	//  
; 243  : #ifdef __CLIENT
; 244  : 	case OBJSTA_STOP_RUN:
; 245  : 		if( IsActDamage() )	break;
; 246  : 		m_vDelta.x = 0.0f;
; 247  : 		m_vDelta.z = 0.0f;
; 248  : 		if( GetState() != OBJSTA_STOP_RUN )		break;
; 249  : 		pMover->SetMotion( MTI_RUN );
; 250  : 		break;
; 251  : #endif //__CLIENT
; 252  : 		
; 253  : 	// 
; 254  : 	case OBJSTA_BMOVE:
; 255  : 		if( IsActDamage() )	break;

  003d0	8b 47 04	 mov	 eax, DWORD PTR [edi+4]
  003d3	a9 00 00 00 0f	 test	 eax, 251658240		; 0f000000H
  003d8	0f 85 dc 06 00
	00		 jne	 $L255294

; 256  : 		m_vDelta.x =  sinf(fTheta) * (-fSpeed/5.0f);
; 257  : 		m_vDelta.z = -cosf(fTheta) * (-fSpeed/5.0f);
; 258  : 		if( GetState() != OBJSTA_BMOVE )		break;		//   

  003de	83 f8 05	 cmp	 eax, 5
  003e1	d9 44 24 1c	 fld	 DWORD PTR _fSpeed$[esp+12]
  003e5	d8 0d 00 00 00
	00		 fmul	 DWORD PTR __real@be4ccccd
  003eb	d9 44 24 14	 fld	 DWORD PTR _fTheta$[esp+12]
  003ef	d9 fe		 fsin
  003f1	d8 c9		 fmul	 ST(0), ST(1)
  003f3	d9 5f 50	 fstp	 DWORD PTR [edi+80]
  003f6	d9 44 24 14	 fld	 DWORD PTR _fTheta$[esp+12]
  003fa	d9 ff		 fcos
  003fc	d8 c9		 fmul	 ST(0), ST(1)
  003fe	d9 e0		 fchs
  00400	d9 5f 58	 fstp	 DWORD PTR [edi+88]
  00403	dd d8		 fstp	 ST(0)
  00405	0f 85 af 06 00
	00		 jne	 $L255294

; 259  : 		if( IsStateFlag( OBJSTAF_COMBAT ) )		

  0040b	8a 47 08	 mov	 al, BYTE PTR [edi+8]

; 260  : 			pMover->SetMotion( MTI_BACK );	//  

  0040e	6a 00		 push	 0
  00410	6a 04		 push	 4
  00412	6a 04		 push	 4
$L260284:
  00414	a8 01		 test	 al, 1
  00416	8b ce		 mov	 ecx, esi
  00418	0f 84 45 ff ff
	ff		 je	 $L255231
$L255264:
  0041e	8b 06		 mov	 eax, DWORD PTR [esi]
  00420	ff 50 04	 call	 DWORD PTR [eax+4]
  00423	5f		 pop	 edi
  00424	5e		 pop	 esi
  00425	5d		 pop	 ebp
  00426	5b		 pop	 ebx

; 585  : 		break;
; 586  : 	}
; 587  : }

  00427	c2 0c 00	 ret	 12			; 0000000cH
$L255278:

; 261  : 		else
; 262  : 			pMover->SetMotion( MTI_BACK );			//  
; 263  : 		break;
; 264  : 	// 
; 265  : 	case OBJSTA_LEFT:
; 266  : 	case OBJSTA_RIGHT:
; 267  : 		break;
; 268  : 	//  .
; 269  : 	case OBJSTA_SIT:
; 270  : 		if( pMover->m_dwMotion == MTI_SIT )		// 

  0042a	8b 86 dc 02 00
	00		 mov	 eax, DWORD PTR [esi+732]
  00430	83 f8 14	 cmp	 eax, 20			; 00000014H
  00433	75 22		 jne	 SHORT $L255279

; 271  : 		{
; 272  : 			if( pModel->IsEndFrame() )		//  .

  00435	8b 85 9c 00 00
	00		 mov	 eax, DWORD PTR [ebp+156]
  0043b	85 c0		 test	 eax, eax
  0043d	0f 84 77 06 00
	00		 je	 $L255294

; 273  : 			{
; 274  : 				pMover->SetMotion( MTI_SITSTAND, ANILOOP_LOOP );

  00443	8b 06		 mov	 eax, DWORD PTR [esi]
  00445	6a 00		 push	 0
  00447	6a 04		 push	 4
  00449	6a 15		 push	 21			; 00000015H
  0044b	8b ce		 mov	 ecx, esi
  0044d	ff 50 04	 call	 DWORD PTR [eax+4]
  00450	5f		 pop	 edi
  00451	5e		 pop	 esi
  00452	5d		 pop	 ebp
  00453	5b		 pop	 ebx

; 585  : 		break;
; 586  : 	}
; 587  : }

  00454	c2 0c 00	 ret	 12			; 0000000cH
$L255279:

; 275  : #ifdef __CLIENT
; 276  : 				if( g_Party.IsMember( pMover->m_idPlayer) && g_Party.m_nModeTime[PARTY_STRETCHING_MODE] )
; 277  : 				{
; 278  : 					D3DXVECTOR3 v = pMover->GetPos();
; 279  : 					
; 280  : 					ItemProp* pItemProp = prj.GetPartySkill( ST_STRETCHING );
; 281  : 					
; 282  : 					CSfx *pSfx = CreateSfx( g_Neuz.m_pd3dDevice, pItemProp->dwSfxObj, v, pMover->GetId() );	//  sfx.
; 283  : 					
; 284  : 					if( pSfx )
; 285  : 						pSfx->SetScale( D3DXVECTOR3(1.0f, 1.0f, 1.0f) );
; 286  : 				}
; 287  : #endif	// __CLIENT
; 288  : 			}
; 289  : 		} else
; 290  : 		if( pMover->m_dwMotion == MTI_GETUP )		// 

  00457	83 f8 16	 cmp	 eax, 22			; 00000016H

; 291  : 		{
; 292  : 			if( pModel->IsEndFrame() )
; 293  : 			{
; 294  : 				ResetState( OBJSTA_MOVE_ALL );		//  
; 295  : 			}
; 296  : 		} else

  0045a	74 1d		 je	 SHORT $L255286

; 297  : 		if( pMover->m_dwMotion != MTI_SITSTAND )

  0045c	83 f8 15	 cmp	 eax, 21			; 00000015H
  0045f	0f 84 55 06 00
	00		 je	 $L255294
  00465	8b 16		 mov	 edx, DWORD PTR [esi]

; 298  : 			pMover->SetMotion( MTI_SITSTAND, ANILOOP_LOOP );	// .

  00467	6a 00		 push	 0
  00469	6a 04		 push	 4
  0046b	6a 15		 push	 21			; 00000015H
  0046d	8b ce		 mov	 ecx, esi
  0046f	ff 52 04	 call	 DWORD PTR [edx+4]
  00472	5f		 pop	 edi
  00473	5e		 pop	 esi
  00474	5d		 pop	 ebp
  00475	5b		 pop	 ebx

; 585  : 		break;
; 586  : 	}
; 587  : }

  00476	c2 0c 00	 ret	 12			; 0000000cH
$L255286:

; 299  : 		
; 300  : 		
; 301  : 		break;
; 302  : 	case OBJSTA_PICKUP:
; 303  : 		if( pModel->IsEndFrame() )

  00479	8b 85 9c 00 00
	00		 mov	 eax, DWORD PTR [ebp+156]
  0047f	85 c0		 test	 eax, eax
  00481	0f 84 33 06 00
	00		 je	 $L255294

; 304  : 		{
; 305  : 			ResetState( OBJSTA_MOVE_ALL );

  00487	68 ff 00 00 00	 push	 255			; 000000ffH

; 344  : 		#endif
; 345  : 			ResetState( OBJSTA_ACTION_ALL );

  0048c	8b cf		 mov	 ecx, edi
  0048e	e8 00 00 00 00	 call	 ?ResetState@CAction@@QAEXK@Z ; CAction::ResetState
  00493	5f		 pop	 edi
  00494	5e		 pop	 esi
  00495	5d		 pop	 ebp
  00496	5b		 pop	 ebx

; 585  : 		break;
; 586  : 	}
; 587  : }

  00497	c2 0c 00	 ret	 12			; 0000000cH
$L255295:

; 346  : 		}
; 347  : 		break;
; 348  : 		// / 
; 349  : 	case OBJSTA_LTURN:
; 350  : 		if( IsActAttack() )		break;

  0049a	f7 47 04 00 00
	ff 00		 test	 DWORD PTR [edi+4], 16711680 ; 00ff0000H
  004a1	0f 85 13 06 00
	00		 jne	 $L255294

; 351  : 		pMover->AddAngle( 4 );

  004a7	68 00 00 80 40	 push	 1082130432		; 40800000H
  004ac	8b ce		 mov	 ecx, esi
  004ae	e8 00 00 00 00	 call	 ?AddAngle@CObj@@QAEXM@Z	; CObj::AddAngle
  004b3	5f		 pop	 edi
  004b4	5e		 pop	 esi
  004b5	5d		 pop	 ebp
  004b6	5b		 pop	 ebx

; 585  : 		break;
; 586  : 	}
; 587  : }

  004b7	c2 0c 00	 ret	 12			; 0000000cH
$L259998:

; 34   : 	int nParam = 0;
; 35   : 	FLOAT fTheta = D3DXToRadian( pMover->GetAngle() );
; 36   : 	CModelObject* pModel = (CModelObject*)pMover->m_pModel;
; 37   : 
; 38   : 	switch( dwState )

  004ba	3d 00 00 0b 00	 cmp	 eax, 720896		; 000b0000H
  004bf	0f 87 0b 03 00
	00		 ja	 $L259999
  004c5	0f 84 5e 03 00
	00		 je	 $L255331
  004cb	3d 00 00 01 00	 cmp	 eax, 65536		; 00010000H
  004d0	0f 87 7a 02 00
	00		 ja	 $L260000
  004d6	0f 84 96 02 00
	00		 je	 $L255326
  004dc	3d 00 50 00 00	 cmp	 eax, 20480		; 00005000H
  004e1	0f 87 08 01 00
	00		 ja	 $L260001
  004e7	0f 84 a1 00 00
	00		 je	 $L255305
  004ed	3d 00 02 00 00	 cmp	 eax, 512		; 00000200H
  004f2	74 7a		 je	 SHORT $L255297
  004f4	3d 00 04 00 00	 cmp	 eax, 1024		; 00000400H
  004f9	74 3f		 je	 SHORT $L255299
  004fb	3d 00 08 00 00	 cmp	 eax, 2048		; 00000800H
  00500	0f 85 b4 05 00
	00		 jne	 $L255294

; 362  : 		break;
; 363  : 	case OBJSTA_LOOKDOWN:
; 364  : 		if( IsActAttack() )		break;

  00506	f7 47 04 00 00
	ff 00		 test	 DWORD PTR [edi+4], 16711680 ; 00ff0000H
  0050d	0f 85 a7 05 00
	00		 jne	 $L255294

; 365  : 		if( pMover->GetAngleX() < 45.0f )

  00513	d9 46 1c	 fld	 DWORD PTR [esi+28]
  00516	d8 1d 00 00 00
	00		 fcomp	 DWORD PTR __real@42340000
  0051c	df e0		 fnstsw	 ax
  0051e	f6 c4 05	 test	 ah, 5
  00521	0f 8a 93 05 00
	00		 jp	 $L255294

; 366  : 			pMover->AddAngleX( 1 );

  00527	68 00 00 80 3f	 push	 1065353216		; 3f800000H
  0052c	8b ce		 mov	 ecx, esi
  0052e	e8 00 00 00 00	 call	 ?AddAngleX@CObj@@QAEXM@Z ; CObj::AddAngleX
  00533	5f		 pop	 edi
  00534	5e		 pop	 esi
  00535	5d		 pop	 ebp
  00536	5b		 pop	 ebx

; 585  : 		break;
; 586  : 	}
; 587  : }

  00537	c2 0c 00	 ret	 12			; 0000000cH
$L255299:

; 356  : 		break;
; 357  : 	// 
; 358  : 	case OBJSTA_LOOKUP:
; 359  : 		if( IsActAttack() )		break;

  0053a	f7 47 04 00 00
	ff 00		 test	 DWORD PTR [edi+4], 16711680 ; 00ff0000H
  00541	0f 85 73 05 00
	00		 jne	 $L255294

; 360  : 		if( pMover->GetAngleX() > -45.0f )

  00547	d9 46 1c	 fld	 DWORD PTR [esi+28]
  0054a	d8 1d 00 00 00
	00		 fcomp	 DWORD PTR __real@c2340000
  00550	df e0		 fnstsw	 ax
  00552	f6 c4 41	 test	 ah, 65			; 00000041H
  00555	0f 85 5f 05 00
	00		 jne	 $L255294

; 361  : 			pMover->AddAngleX( -1 );

  0055b	68 00 00 80 bf	 push	 -1082130432		; bf800000H
  00560	8b ce		 mov	 ecx, esi
  00562	e8 00 00 00 00	 call	 ?AddAngleX@CObj@@QAEXM@Z ; CObj::AddAngleX
  00567	5f		 pop	 edi
  00568	5e		 pop	 esi
  00569	5d		 pop	 ebp
  0056a	5b		 pop	 ebx

; 585  : 		break;
; 586  : 	}
; 587  : }

  0056b	c2 0c 00	 ret	 12			; 0000000cH
$L255297:

; 352  : 		break;
; 353  : 	case OBJSTA_RTURN:
; 354  : 		if( IsActAttack() )		break;

  0056e	f7 47 04 00 00
	ff 00		 test	 DWORD PTR [edi+4], 16711680 ; 00ff0000H
  00575	0f 85 3f 05 00
	00		 jne	 $L255294

; 355  : 		pMover->AddAngle( -4 );

  0057b	68 00 00 80 c0	 push	 -1065353216		; c0800000H
  00580	8b ce		 mov	 ecx, esi
  00582	e8 00 00 00 00	 call	 ?AddAngle@CObj@@QAEXM@Z	; CObj::AddAngle
  00587	5f		 pop	 edi
  00588	5e		 pop	 esi
  00589	5d		 pop	 ebp
  0058a	5b		 pop	 ebx

; 585  : 		break;
; 586  : 	}
; 587  : }

  0058b	c2 0c 00	 ret	 12			; 0000000cH
$L255305:

; 367  : 		break;
; 368  : 		
; 369  : 	// -
; 370  : 	case OBJSTA_SJUMP1:
; 371  : 		if( pMover->m_dwFlag & MVRF_NOMOVE )	break;		//    .

  0058e	85 8e 48 02 00
	00		 test	 DWORD PTR [esi+584], ecx
  00594	0f 85 20 05 00
	00		 jne	 $L255294

; 372  : 		SetJumpState( OBJSTA_SJUMP2 );

  0059a	68 00 60 00 00	 push	 24576			; 00006000H
  0059f	8b cf		 mov	 ecx, edi
  005a1	e8 00 00 00 00	 call	 ?SetJumpState@CAction@@QAEXK@Z ; CAction::SetJumpState

; 373  : 		m_vDelta.y = 0.2f + (pMover->GetParam( DST_JUMPING, 0 ) / 1000.0f);

  005a6	6a 00		 push	 0
  005a8	6a 44		 push	 68			; 00000044H
  005aa	8b ce		 mov	 ecx, esi
  005ac	e8 00 00 00 00	 call	 ?GetParam@CMover@@QAEHHH@Z ; CMover::GetParam
  005b1	89 44 24 1c	 mov	 DWORD PTR tv1387[esp+12], eax
  005b5	db 44 24 1c	 fild	 DWORD PTR tv1387[esp+12]

; 374  : 		if( (GetState() & OBJSTA_COLLECT)== 0 )

  005b9	8b 47 04	 mov	 eax, DWORD PTR [edi+4]
  005bc	a9 00 00 00 10	 test	 eax, 268435456		; 10000000H
  005c1	d8 0d 00 00 00
	00		 fmul	 DWORD PTR __real@3a83126f
  005c7	d8 05 00 00 00
	00		 fadd	 DWORD PTR __real@3e4ccccd
  005cd	d9 5f 54	 fstp	 DWORD PTR [edi+84]
  005d0	75 0d		 jne	 SHORT $L255307

; 375  : 		{
; 376  : 			pMover->SetMotion( MTI_JUMP2, ANILOOP_CONT );	//  

  005d2	8b 06		 mov	 eax, DWORD PTR [esi]
  005d4	6a 00		 push	 0
  005d6	6a 02		 push	 2
  005d8	6a 0e		 push	 14			; 0000000eH
  005da	8b ce		 mov	 ecx, esi
  005dc	ff 50 04	 call	 DWORD PTR [eax+4]
$L255307:

; 377  : 		}
; 378  : 		pModel->SetMotionBlending( FALSE );

  005df	6a 00		 push	 0
  005e1	8b cd		 mov	 ecx, ebp
  005e3	e8 00 00 00 00	 call	 ?SetMotionBlending@CModelObject@@QAEXH@Z ; CModelObject::SetMotionBlending
  005e8	5f		 pop	 edi
  005e9	5e		 pop	 esi
  005ea	5d		 pop	 ebp
  005eb	5b		 pop	 ebx

; 585  : 		break;
; 586  : 	}
; 587  : }

  005ec	c2 0c 00	 ret	 12			; 0000000cH
$L260001:

; 34   : 	int nParam = 0;
; 35   : 	FLOAT fTheta = D3DXToRadian( pMover->GetAngle() );
; 36   : 	CModelObject* pModel = (CModelObject*)pMover->m_pModel;
; 37   : 
; 38   : 	switch( dwState )

  005ef	3d 00 60 00 00	 cmp	 eax, 24576		; 00006000H
  005f4	0f 84 ef 00 00
	00		 je	 $L255308
  005fa	3d 00 70 00 00	 cmp	 eax, 28672		; 00007000H
  005ff	74 5f		 je	 SHORT $L255313
  00601	3d 00 80 00 00	 cmp	 eax, 32768		; 00008000H
  00606	0f 85 ae 04 00
	00		 jne	 $L255294

; 410  : 			}
; 411  : 		}
; 412  : 		break;
; 413  : 	// -
; 414  : 	case OBJSTA_SJUMP4:
; 415  : 		//if( pMover->m_dwFlag & MVRF_NOMOVE )	break;		//    .
; 416  : 		ResetState( OBJSTA_JUMP_ALL );

  0060c	68 00 f0 00 00	 push	 61440			; 0000f000H
  00611	8b cf		 mov	 ecx, edi
  00613	e8 00 00 00 00	 call	 ?ResetState@CAction@@QAEXK@Z ; CAction::ResetState

; 417  : 		if( GetState() & OBJSTA_DMG_ALL )	

  00618	f7 47 04 00 00
	00 0f		 test	 DWORD PTR [edi+4], 251658240 ; 0f000000H

; 418  : 		{
; 419  : 			ResetState( OBJSTA_JUMP_ALL );
; 420  : 			break;		//      .

  0061f	75 0a		 jne	 SHORT $L260280

; 421  : 		}
; 422  : 		if( pModel->IsEndFrame() )		//     

  00621	8b 85 9c 00 00
	00		 mov	 eax, DWORD PTR [ebp+156]
  00627	85 c0		 test	 eax, eax
  00629	74 13		 je	 SHORT $L255323
$L260280:

; 423  : 		{
; 424  : 			ResetState( OBJSTA_JUMP_ALL );

  0062b	68 00 f0 00 00	 push	 61440			; 0000f000H
  00630	8b cf		 mov	 ecx, edi
  00632	e8 00 00 00 00	 call	 ?ResetState@CAction@@QAEXK@Z ; CAction::ResetState
  00637	5f		 pop	 edi
  00638	5e		 pop	 esi
  00639	5d		 pop	 ebp
  0063a	5b		 pop	 ebx

; 585  : 		break;
; 586  : 	}
; 587  : }

  0063b	c2 0c 00	 ret	 12			; 0000000cH
$L255323:

; 425  : 			break;
; 426  : 		}
; 427  : #if __VER >= 13 // __HONORABLE_TITLE			// 
; 428  : 	#ifdef __WORLDSERVER
; 429  : #ifndef __MAINSERVER
; 430  : if(!pMover->IsPlayer())
; 431  : 	FILEOUT( "..\\HonorError.txt", "processstate1()AddHonorListAck()\n" );
; 432  : #endif // __MAINSERVER
; 433  : 		if(pMover->IsPlayer() )

  0063e	8b 86 34 02 00
	00		 mov	 eax, DWORD PTR [esi+564]
  00644	85 c0		 test	 eax, eax
  00646	0f 84 6e 04 00
	00		 je	 $L255294

; 434  :             ((CUser*)pMover)->SetHonorAdd(HS_JUMP,HI_COUNT_CHECK);

  0064c	6a 00		 push	 0
  0064e	6a 02		 push	 2
  00650	6a 50		 push	 80			; 00000050H
  00652	8b ce		 mov	 ecx, esi
  00654	e8 00 00 00 00	 call	 ?SetHonorAdd@CMover@@QAEXHHH@Z ; CMover::SetHonorAdd
  00659	5f		 pop	 edi
  0065a	5e		 pop	 esi
  0065b	5d		 pop	 ebp
  0065c	5b		 pop	 ebx

; 585  : 		break;
; 586  : 	}
; 587  : }

  0065d	c2 0c 00	 ret	 12			; 0000000cH
$L255313:

; 392  : 		}
; 393  : 		break;
; 394  : 	// -
; 395  : 	case OBJSTA_SJUMP3:
; 396  : 		if( pMover->m_dwFlag & MVRF_NOMOVE )	break;		//    .

  00660	85 8e 48 02 00
	00		 test	 DWORD PTR [esi+584], ecx
  00666	0f 85 4e 04 00
	00		 jne	 $L255294

; 397  : 		if( (GetState() & OBJSTA_DMG_ALL) == 0 || (GetState() & OBJSTA_COLLECT)== 0 )			//    .

  0066c	8b 47 04	 mov	 eax, DWORD PTR [edi+4]
  0066f	a9 00 00 00 0f	 test	 eax, 251658240		; 0f000000H
  00674	74 07		 je	 SHORT $L255316
  00676	a9 00 00 00 10	 test	 eax, 268435456		; 10000000H
  0067b	75 1b		 jne	 SHORT $L260275
$L255316:

; 398  : 		{
; 399  : 			if( TRUE == pMover->SetMotion( MTI_JUMP3, ANILOOP_CONT ) )	//  

  0067d	8b 16		 mov	 edx, DWORD PTR [esi]
  0067f	6a 00		 push	 0
  00681	6a 02		 push	 2
  00683	6a 0f		 push	 15			; 0000000fH
  00685	8b ce		 mov	 ecx, esi
  00687	ff 52 04	 call	 DWORD PTR [edx+4]
  0068a	83 f8 01	 cmp	 eax, 1
  0068d	75 09		 jne	 SHORT $L260275

; 400  : 				pModel->SetMotionBlending( FALSE );

  0068f	6a 00		 push	 0
  00691	8b cd		 mov	 ecx, ebp
  00693	e8 00 00 00 00	 call	 ?SetMotionBlending@CModelObject@@QAEXH@Z ; CModelObject::SetMotionBlending
$L260275:

; 401  : 		}
; 402  : 		if( m_bGround )		//    

  00698	8b 47 44	 mov	 eax, DWORD PTR [edi+68]
  0069b	85 c0		 test	 eax, eax
  0069d	0f 84 17 04 00
	00		 je	 $L255294

; 403  : 		{
; 404  : 			SetJumpState( OBJSTA_SJUMP4 );	//  - SetAction( OBJMSG_JUMP4 );   .

  006a3	68 00 80 00 00	 push	 32768			; 00008000H
  006a8	8b cf		 mov	 ecx, edi
  006aa	e8 00 00 00 00	 call	 ?SetJumpState@CAction@@QAEXK@Z ; CAction::SetJumpState

; 405  : 			pMover->OnActLanding();			//   .

  006af	8b ce		 mov	 ecx, esi
  006b1	e8 00 00 00 00	 call	 ?OnActLanding@CMover@@QAEXXZ ; CMover::OnActLanding

; 406  : 			if( GetState() & OBJSTA_DMG_ALL)	break;		//     .

  006b6	f7 47 04 00 00
	00 0f		 test	 DWORD PTR [edi+4], 251658240 ; 0f000000H
  006bd	0f 85 f7 03 00
	00		 jne	 $L255294

; 407  : 			if( TRUE == pMover->SetMotion( MTI_JUMP4, ANILOOP_1PLAY ) )	//  

  006c3	8b 06		 mov	 eax, DWORD PTR [esi]
  006c5	6a 00		 push	 0
  006c7	6a 01		 push	 1
  006c9	6a 10		 push	 16			; 00000010H
  006cb	8b ce		 mov	 ecx, esi
  006cd	ff 50 04	 call	 DWORD PTR [eax+4]
  006d0	83 f8 01	 cmp	 eax, 1
  006d3	0f 85 e1 03 00
	00		 jne	 $L255294

; 408  : 			{
; 409  : 				pModel->SetMotionBlending( FALSE );		//      .

  006d9	6a 00		 push	 0
  006db	8b cd		 mov	 ecx, ebp
  006dd	e8 00 00 00 00	 call	 ?SetMotionBlending@CModelObject@@QAEXH@Z ; CModelObject::SetMotionBlending
  006e2	5f		 pop	 edi
  006e3	5e		 pop	 esi
  006e4	5d		 pop	 ebp
  006e5	5b		 pop	 ebx

; 585  : 		break;
; 586  : 	}
; 587  : }

  006e6	c2 0c 00	 ret	 12			; 0000000cH
$L255308:

; 379  : 		break;
; 380  : 	// -
; 381  : 	case OBJSTA_SJUMP2:
; 382  : 		if( pMover->m_dwFlag & MVRF_NOMOVE )	break;		//    .

  006e9	85 8e 48 02 00
	00		 test	 DWORD PTR [esi+584], ecx
  006ef	0f 85 c5 03 00
	00		 jne	 $L255294

; 383  : 		if( (GetState() & OBJSTA_COLLECT)== 0 )

  006f5	8b 47 04	 mov	 eax, DWORD PTR [edi+4]
  006f8	bb 00 00 00 10	 mov	 ebx, 268435456		; 10000000H
  006fd	85 c3		 test	 eax, ebx
  006ff	75 0d		 jne	 SHORT $L255310

; 384  : 		{
; 385  : 			pMover->SetMotion( MTI_JUMP2, ANILOOP_CONT );	//  

  00701	8b 16		 mov	 edx, DWORD PTR [esi]
  00703	6a 00		 push	 0
  00705	6a 02		 push	 2
  00707	6a 0e		 push	 14			; 0000000eH
  00709	8b ce		 mov	 ecx, esi
  0070b	ff 52 04	 call	 DWORD PTR [edx+4]
$L255310:

; 386  : 		}
; 387  : 		if( m_vDelta.y <= 0 )		//     

  0070e	d9 47 54	 fld	 DWORD PTR [edi+84]
  00711	d8 1d 00 00 00
	00		 fcomp	 DWORD PTR __real@00000000
  00717	df e0		 fnstsw	 ax
  00719	f6 c4 41	 test	 ah, 65			; 00000041H
  0071c	0f 8a 98 03 00
	00		 jp	 $L255294

; 388  : 		{
; 389  : 			SetJumpState( OBJSTA_SJUMP3 );

  00722	68 00 70 00 00	 push	 28672			; 00007000H
  00727	8b cf		 mov	 ecx, edi
  00729	e8 00 00 00 00	 call	 ?SetJumpState@CAction@@QAEXK@Z ; CAction::SetJumpState

; 390  : 			if( (GetState() & OBJSTA_COLLECT)== 0 ) pMover->SetMotion( MTI_JUMP3, ANILOOP_CONT );

  0072e	85 5f 04	 test	 DWORD PTR [edi+4], ebx
  00731	75 0d		 jne	 SHORT $L260276
  00733	8b 06		 mov	 eax, DWORD PTR [esi]
  00735	6a 00		 push	 0
  00737	6a 02		 push	 2
  00739	6a 0f		 push	 15			; 0000000fH
  0073b	8b ce		 mov	 ecx, esi
  0073d	ff 50 04	 call	 DWORD PTR [eax+4]
$L260276:

; 391  : 			pModel->SetMotionBlending( FALSE );

  00740	6a 00		 push	 0
  00742	8b cd		 mov	 ecx, ebp
  00744	e8 00 00 00 00	 call	 ?SetMotionBlending@CModelObject@@QAEXH@Z ; CModelObject::SetMotionBlending
  00749	5f		 pop	 edi
  0074a	5e		 pop	 esi
  0074b	5d		 pop	 ebp
  0074c	5b		 pop	 ebx

; 585  : 		break;
; 586  : 	}
; 587  : }

  0074d	c2 0c 00	 ret	 12			; 0000000cH
$L260000:

; 34   : 	int nParam = 0;
; 35   : 	FLOAT fTheta = D3DXToRadian( pMover->GetAngle() );
; 36   : 	CModelObject* pModel = (CModelObject*)pMover->m_pModel;
; 37   : 
; 38   : 	switch( dwState )

  00750	3d 00 00 05 00	 cmp	 eax, 327680		; 00050000H
  00755	77 41		 ja	 SHORT $L260002
  00757	74 2a		 je	 SHORT $L255328
  00759	3d 00 00 02 00	 cmp	 eax, 131072		; 00020000H
  0075e	74 12		 je	 SHORT $L255326
  00760	3d 00 00 03 00	 cmp	 eax, 196608		; 00030000H
  00765	74 0b		 je	 SHORT $L255326
  00767	3d 00 00 04 00	 cmp	 eax, 262144		; 00040000H
  0076c	0f 85 48 03 00
	00		 jne	 $L255294
$L255326:

; 435  : 	#endif	// __WORLDSERVER
; 436  : #endif	// __HONORABLE_TITLE			// 
; 437  : 		break;
; 438  : 	//---------  ---------------------------
; 439  : 	case OBJSTA_ATK1:
; 440  : 	case OBJSTA_ATK2:
; 441  : 	case OBJSTA_ATK3:
; 442  : 	case OBJSTA_ATK4:
; 443  : 		_ProcessStateAttack( dwState, nParam );

  00772	6a 00		 push	 0
  00774	50		 push	 eax
  00775	8b cf		 mov	 ecx, edi
  00777	e8 00 00 00 00	 call	 ?_ProcessStateAttack@CActionMover@@QAEXKH@Z ; CActionMover::_ProcessStateAttack
  0077c	5f		 pop	 edi
  0077d	5e		 pop	 esi
  0077e	5d		 pop	 ebp
  0077f	5b		 pop	 ebx

; 585  : 		break;
; 586  : 	}
; 587  : }

  00780	c2 0c 00	 ret	 12			; 0000000cH
$L255328:

; 449  : 		break;
; 450  : 
; 451  : 	//---------  ---------------------------
; 452  : 	case OBJSTA_ATK_MAGIC1:
; 453  : 		ProcessStateAttackMagic( dwState, nParam );

  00783	6a 00		 push	 0
  00785	68 00 00 05 00	 push	 327680			; 00050000H
  0078a	8b cf		 mov	 ecx, edi
  0078c	e8 00 00 00 00	 call	 ?ProcessStateAttackMagic@CActionMover@@QAEXKH@Z ; CActionMover::ProcessStateAttackMagic
  00791	5f		 pop	 edi
  00792	5e		 pop	 esi
  00793	5d		 pop	 ebp
  00794	5b		 pop	 ebx

; 585  : 		break;
; 586  : 	}
; 587  : }

  00795	c2 0c 00	 ret	 12			; 0000000cH
$L260002:

; 34   : 	int nParam = 0;
; 35   : 	FLOAT fTheta = D3DXToRadian( pMover->GetAngle() );
; 36   : 	CModelObject* pModel = (CModelObject*)pMover->m_pModel;
; 37   : 
; 38   : 	switch( dwState )

  00798	3d 00 00 06 00	 cmp	 eax, 393216		; 00060000H
  0079d	74 1c		 je	 SHORT $L255329
  0079f	3d 00 00 09 00	 cmp	 eax, 589824		; 00090000H
  007a4	0f 85 10 03 00
	00		 jne	 $L255294

; 458  : 		break;
; 459  : 		
; 460  : 	case OBJSTA_ATK_MELEESKILL:
; 461  : 		ProcessStateMeleeSkill( dwState, nParam );

  007aa	6a 00		 push	 0
  007ac	50		 push	 eax
  007ad	8b cf		 mov	 ecx, edi
  007af	e8 00 00 00 00	 call	 ?ProcessStateMeleeSkill@CActionMover@@QAEXKH@Z ; CActionMover::ProcessStateMeleeSkill
  007b4	5f		 pop	 edi
  007b5	5e		 pop	 esi
  007b6	5d		 pop	 ebp
  007b7	5b		 pop	 ebx

; 585  : 		break;
; 586  : 	}
; 587  : }

  007b8	c2 0c 00	 ret	 12			; 0000000cH
$L255329:

; 454  : 		break;
; 455  : 	//---------   ------------------
; 456  : 	case OBJSTA_ATK_RANGE1:
; 457  : 		ProcessStateAttackRange( dwState, nParam );

  007bb	6a 00		 push	 0
  007bd	68 00 00 06 00	 push	 393216			; 00060000H
  007c2	8b cf		 mov	 ecx, edi
  007c4	e8 00 00 00 00	 call	 ?ProcessStateAttackRange@CActionMover@@QAEXKH@Z ; CActionMover::ProcessStateAttackRange
  007c9	5f		 pop	 edi
  007ca	5e		 pop	 esi
  007cb	5d		 pop	 ebp
  007cc	5b		 pop	 ebx

; 585  : 		break;
; 586  : 	}
; 587  : }

  007cd	c2 0c 00	 ret	 12			; 0000000cH
$L259999:

; 34   : 	int nParam = 0;
; 35   : 	FLOAT fTheta = D3DXToRadian( pMover->GetAngle() );
; 36   : 	CModelObject* pModel = (CModelObject*)pMover->m_pModel;
; 37   : 
; 38   : 	switch( dwState )

  007d0	3d 00 00 00 03	 cmp	 eax, 50331648		; 03000000H
  007d5	0f 87 41 01 00
	00		 ja	 $L260003
  007db	0f 84 e5 00 00
	00		 je	 $L255339
  007e1	3d 00 00 20 00	 cmp	 eax, 2097152		; 00200000H
  007e6	77 52		 ja	 SHORT $L260004
  007e8	74 19		 je	 SHORT $L255327
  007ea	3d 00 00 0c 00	 cmp	 eax, 786432		; 000c0000H
  007ef	74 38		 je	 SHORT $L255331
  007f1	3d 00 00 0d 00	 cmp	 eax, 851968		; 000d0000H
  007f6	74 1c		 je	 SHORT $L255332
  007f8	3d 00 00 10 00	 cmp	 eax, 1048576		; 00100000H
  007fd	0f 85 b7 02 00
	00		 jne	 $L255294
$L255327:

; 444  : 		break;
; 445  : 		
; 446  : 	case OBJSTA_SP_ATK1:
; 447  : 	case OBJSTA_SP_ATK2:
; 448  : 		ProcessStateAttackSP( dwState, nParam );

  00803	6a 00		 push	 0
  00805	50		 push	 eax
  00806	8b cf		 mov	 ecx, edi
  00808	e8 00 00 00 00	 call	 ?ProcessStateAttackSP@CActionMover@@QAEXKH@Z ; CActionMover::ProcessStateAttackSP
  0080d	5f		 pop	 edi
  0080e	5e		 pop	 esi
  0080f	5d		 pop	 ebp
  00810	5b		 pop	 ebx

; 585  : 		break;
; 586  : 	}
; 587  : }

  00811	c2 0c 00	 ret	 12			; 0000000cH
$L255332:

; 466  : 		break;
; 467  : 	case OBJSTA_ATK_MAGICSKILL:
; 468  : 		ProcessStateMagicSkill( dwState, nParam );

  00814	6a 00		 push	 0
  00816	68 00 00 0d 00	 push	 851968			; 000d0000H
  0081b	8b cf		 mov	 ecx, edi
  0081d	e8 00 00 00 00	 call	 ?ProcessStateMagicSkill@CActionMover@@QAEXKH@Z ; CActionMover::ProcessStateMagicSkill
  00822	5f		 pop	 edi
  00823	5e		 pop	 esi
  00824	5d		 pop	 ebp
  00825	5b		 pop	 ebx

; 585  : 		break;
; 586  : 	}
; 587  : }

  00826	c2 0c 00	 ret	 12			; 0000000cH
$L255331:

; 462  : 		break;
; 463  : 	case OBJSTA_ATK_CASTING1:
; 464  : 	case OBJSTA_ATK_CASTING2:
; 465  : 		ProcessStateMagicCasting( dwState, nParam );

  00829	6a 00		 push	 0
  0082b	50		 push	 eax
  0082c	8b cf		 mov	 ecx, edi
  0082e	e8 00 00 00 00	 call	 ?ProcessStateMagicCasting@CActionMover@@QAEXKH@Z ; CActionMover::ProcessStateMagicCasting
  00833	5f		 pop	 edi
  00834	5e		 pop	 esi
  00835	5d		 pop	 ebp
  00836	5b		 pop	 ebx

; 585  : 		break;
; 586  : 	}
; 587  : }

  00837	c2 0c 00	 ret	 12			; 0000000cH
$L260004:

; 34   : 	int nParam = 0;
; 35   : 	FLOAT fTheta = D3DXToRadian( pMover->GetAngle() );
; 36   : 	CModelObject* pModel = (CModelObject*)pMover->m_pModel;
; 37   : 
; 38   : 	switch( dwState )

  0083a	3d 00 00 00 01	 cmp	 eax, 16777216		; 01000000H
  0083f	0f 84 c7 01 00
	00		 je	 $L255351
  00845	3d 00 00 00 02	 cmp	 eax, 33554432		; 02000000H
  0084a	0f 85 6a 02 00
	00		 jne	 $L255294

; 469  : 		break;
; 470  : 		
; 471  : 	//-----------  -------------------------
; 472  : 	case OBJSTA_DMG:
; 473  : 		if( pModel->IsEndFrame() )	
; 474  : 		{
; 475  : 			ResetState( OBJSTA_DMG_ALL );
; 476  : 		}
; 477  : 		break;
; 478  : 	case OBJSTA_DMG_FLY:
; 479  : 		if( m_bGround )

  00850	8b 47 44	 mov	 eax, DWORD PTR [edi+68]
  00853	33 db		 xor	 ebx, ebx
  00855	3b c3		 cmp	 eax, ebx
  00857	0f 84 5d 02 00
	00		 je	 $L255294

; 480  : 		{
; 481  : 			if( (GetState() & OBJSTA_STUN) )

  0085d	f7 47 04 00 00
	00 40		 test	 DWORD PTR [edi+4], 1073741824 ; 40000000H
  00864	74 13		 je	 SHORT $L255337

; 482  : 			{
; 483  : 				ResetState( OBJSTA_DMG_FLY );			//  .

  00866	68 00 00 00 02	 push	 33554432		; 02000000H
  0086b	8b cf		 mov	 ecx, edi
  0086d	e8 00 00 00 00	 call	 ?ResetState@CAction@@QAEXK@Z ; CAction::ResetState
  00872	5f		 pop	 edi
  00873	5e		 pop	 esi
  00874	5d		 pop	 ebp
  00875	5b		 pop	 ebx

; 585  : 		break;
; 586  : 	}
; 587  : }

  00876	c2 0c 00	 ret	 12			; 0000000cH
$L255337:

; 484  : 				break;
; 485  : 			}
; 486  : 			
; 487  : 			if( m_vDelta.y == 0 )	//   m_bGround 1     !

  00879	d9 05 00 00 00
	00		 fld	 DWORD PTR __real@00000000
  0087f	d9 47 54	 fld	 DWORD PTR [edi+84]
  00882	da e9		 fucompp
  00884	df e0		 fnstsw	 ax
  00886	f6 c4 44	 test	 ah, 68			; 00000044H
  00889	0f 8a 2b 02 00
	00		 jp	 $L255294

; 488  : 			{
; 489  : 				m_vDelta.x = m_vDelta.z = 0;	//    .
; 490  : 				m_vDeltaE.x = m_vDelta.x;	// m_vDeltaE   .
; 491  : 				m_vDeltaE.z = m_vDelta.z;
; 492  : #if __VER >= 15 // __BS_FIXED_KNOCKBACK
; 493  : 				m_vDelta.y = 0.04f;
; 494  : #else
; 495  : 				m_vDelta.y = 0.12f;	// bGround 1  .y 0      .   .
; 496  : #endif
; 497  : 				SetState( OBJSTA_DMG_ALL, OBJSTA_DMG_DIE );	

  0088f	68 00 00 00 03	 push	 50331648		; 03000000H
  00894	68 00 00 00 0f	 push	 251658240		; 0f000000H
  00899	8b cf		 mov	 ecx, edi
  0089b	89 5f 58	 mov	 DWORD PTR [edi+88], ebx
  0089e	89 5f 50	 mov	 DWORD PTR [edi+80], ebx
  008a1	89 5f 5c	 mov	 DWORD PTR [edi+92], ebx
  008a4	89 5f 64	 mov	 DWORD PTR [edi+100], ebx
  008a7	c7 47 54 0a d7
	23 3d		 mov	 DWORD PTR [edi+84], 1025758986 ; 3d23d70aH
  008ae	e8 00 00 00 00	 call	 ?SetState@CAction@@QAEXKK@Z ; CAction::SetState
  008b3	8b 16		 mov	 edx, DWORD PTR [esi]

; 498  : 				pMover->SetMotion( MTI_DMGDIE, ANILOOP_CONT );		// !   

  008b5	53		 push	 ebx
  008b6	6a 02		 push	 2
  008b8	6a 0a		 push	 10			; 0000000aH
  008ba	8b ce		 mov	 ecx, esi
  008bc	ff 52 04	 call	 DWORD PTR [edx+4]
  008bf	5f		 pop	 edi
  008c0	5e		 pop	 esi
  008c1	5d		 pop	 ebp
  008c2	5b		 pop	 ebx

; 585  : 		break;
; 586  : 	}
; 587  : }

  008c3	c2 0c 00	 ret	 12			; 0000000cH
$L255339:

; 499  : 				break;
; 500  : 			}
; 501  : 		}
; 502  : 		break;
; 503  : 	//      
; 504  : 	case OBJSTA_DMG_DIE:
; 505  : 		m_vDelta.x = 0;

  008c6	33 db		 xor	 ebx, ebx
  008c8	89 5f 50	 mov	 DWORD PTR [edi+80], ebx

; 506  : 		m_vDelta.z = 0;

  008cb	89 5f 58	 mov	 DWORD PTR [edi+88], ebx

; 507  : 		
; 508  : 		if( pModel->IsEndFrame() )		//     .     .

  008ce	39 9d 9c 00 00
	00		 cmp	 DWORD PTR [ebp+156], ebx
  008d4	0f 84 e0 01 00
	00		 je	 $L255294

; 509  : 		{
; 510  : 			if( pMover->m_nHitPoint > 0 )	//    HP   

  008da	39 9e 00 06 00
	00		 cmp	 DWORD PTR [esi+1536], ebx

; 511  : 			{
; 512  : 				TRACE( "\r\n" );
; 513  : 				SetState( OBJSTA_DMG_ALL, OBJSTA_DMG_LIVE );	//  

  008e0	8b cf		 mov	 ecx, edi
  008e2	7e 22		 jle	 SHORT $L255341
  008e4	68 00 00 00 06	 push	 100663296		; 06000000H
  008e9	68 00 00 00 0f	 push	 251658240		; 0f000000H
  008ee	e8 00 00 00 00	 call	 ?SetState@CAction@@QAEXKK@Z ; CAction::SetState

; 514  : 				pMover->SetMotion( MTI_DMGLIVE, ANILOOP_1PLAY );	//  

  008f3	8b 06		 mov	 eax, DWORD PTR [esi]
  008f5	53		 push	 ebx
  008f6	6a 01		 push	 1
  008f8	6a 09		 push	 9
  008fa	8b ce		 mov	 ecx, esi
  008fc	ff 50 04	 call	 DWORD PTR [eax+4]
  008ff	5f		 pop	 edi
  00900	5e		 pop	 esi
  00901	5d		 pop	 ebp
  00902	5b		 pop	 ebx

; 585  : 		break;
; 586  : 	}
; 587  : }

  00903	c2 0c 00	 ret	 12			; 0000000cH
$L255341:

; 515  : 			} 
; 516  : 			else
; 517  : 			{
; 518  : 				SetState( OBJSTA_DMG_ALL, OBJSTA_DEAD );		// HP   .

  00906	68 00 00 00 08	 push	 134217728		; 08000000H
  0090b	68 00 00 00 0f	 push	 251658240		; 0f000000H
  00910	e8 00 00 00 00	 call	 ?SetState@CAction@@QAEXKK@Z ; CAction::SetState
  00915	5f		 pop	 edi
  00916	5e		 pop	 esi
  00917	5d		 pop	 ebp
  00918	5b		 pop	 ebx

; 585  : 		break;
; 586  : 	}
; 587  : }

  00919	c2 0c 00	 ret	 12			; 0000000cH
$L260003:

; 34   : 	int nParam = 0;
; 35   : 	FLOAT fTheta = D3DXToRadian( pMover->GetAngle() );
; 36   : 	CModelObject* pModel = (CModelObject*)pMover->m_pModel;
; 37   : 
; 38   : 	switch( dwState )

  0091c	3d 00 00 00 0c	 cmp	 eax, 201326592		; 0c000000H
  00921	0f 87 06 01 00
	00		 ja	 $L260005
  00927	0f 84 df 00 00
	00		 je	 $L255351
  0092d	3d 00 00 00 06	 cmp	 eax, 100663296		; 06000000H
  00932	0f 84 95 00 00
	00		 je	 $L255343
  00938	3d 00 00 00 08	 cmp	 eax, 134217728		; 08000000H
  0093d	74 23		 je	 SHORT $L255345
  0093f	3d 00 00 00 09	 cmp	 eax, 150994944		; 09000000H
  00944	0f 85 70 01 00
	00		 jne	 $L255294

; 556  : 			}
; 557  : 		} 
; 558  :  #endif // WORLDSERVER
; 559  : 
; 560  : #ifdef __CLIENT
; 561  : 		if( pMover->IsNPC() )
; 562  : 		{
; 563  : 			if( pModel->IsAttrQuake() )	//  .
; 564  : 			{
; 565  : 				if( pMover->GetProp()->dwClass == RANK_MATERIAL )
; 566  : 					GetWorld()->m_pCamera->SetQuake( 60, 1.0f );
; 567  : 				else
; 568  : 					GetWorld()->m_pCamera->SetQuake( 15 );
; 569  : 			}
; 570  : 		}
; 571  : #endif	// __CLIENT
; 572  : 		break;
; 573  : 	case OBJSTA_DISAPPEAR:	//  
; 574  : #ifndef __CLIENT
; 575  : 		if( m_nCount > FRAME_PER_SEC )	// 1 

  0094a	83 7f 40 3c	 cmp	 DWORD PTR [edi+64], 60	; 0000003cH
  0094e	0f 8e 66 01 00
	00		 jle	 $L255294

; 576  : //		if( m_nCount++ > SEC1 )
; 577  : 		{
; 578  : 			pMover->Delete();

  00954	8b ce		 mov	 ecx, esi
  00956	e8 00 00 00 00	 call	 ?Delete@CObj@@QAEXXZ	; CObj::Delete
  0095b	5f		 pop	 edi
  0095c	5e		 pop	 esi
  0095d	5d		 pop	 ebp
  0095e	5b		 pop	 ebx

; 585  : 		break;
; 586  : 	}
; 587  : }

  0095f	c2 0c 00	 ret	 12			; 0000000cH
$L255345:

; 529  : 		}
; 530  : 		break;
; 531  : 	case OBJSTA_DEAD:	//   
; 532  : 		if( pModel->m_nLoop != ANILOOP_CONT )	//      

  00962	8b 8d b4 00 00
	00		 mov	 ecx, DWORD PTR [ebp+180]
  00968	b8 02 00 00 00	 mov	 eax, 2
  0096d	3b c8		 cmp	 ecx, eax
  0096f	74 06		 je	 SHORT $L255346

; 533  : 			pModel->m_nLoop = ANILOOP_CONT;

  00971	89 85 b4 00 00
	00		 mov	 DWORD PTR [ebp+180], eax
$L255346:

; 534  : 
; 535  : 		pMover->m_dwFlag &= (~MVRF_NOACTION);		//  

  00977	8b 8e 48 02 00
	00		 mov	 ecx, DWORD PTR [esi+584]

; 536  :  #ifdef __WORLDSERVER
; 537  : 		//         .
; 538  : 		if( !pMover->IsPlayer() ) 

  0097d	8b 86 34 02 00
	00		 mov	 eax, DWORD PTR [esi+564]
  00983	81 e1 ff f8 ff
	ff		 and	 ecx, -1793		; fffff8ffH
  00989	85 c0		 test	 eax, eax
  0098b	89 8e 48 02 00
	00		 mov	 DWORD PTR [esi+584], ecx
  00991	0f 85 23 01 00
	00		 jne	 $L255294

; 539  : 		{
; 540  : 			m_nDeadCnt--;

  00997	8b 8f a0 00 00
	00		 mov	 ecx, DWORD PTR [edi+160]
  0099d	49		 dec	 ecx

; 541  : 			/*
; 542  : 			if( pMover->IsResourceMonster() )		//   
; 543  : 			{				
; 544  : 				if( pMover->m_nResource == 0 )		//   
; 545  : 				{
; 546  : 					if( m_nDeadCnt > 10800 - 200 )	//        .
; 547  : 						Error( "OBJSTA_DEAD:%d %s", m_nDeadCnt, pMover->GetName() );
; 548  : 					m_nDeadCnt = 0;			//     ~
; 549  : 				}
; 550  : 			}
; 551  : 			*/
; 552  : 			if( m_nDeadCnt <= 0 )

  0099e	8b c1		 mov	 eax, ecx
  009a0	85 c0		 test	 eax, eax
  009a2	89 8f a0 00 00
	00		 mov	 DWORD PTR [edi+160], ecx
  009a8	0f 8f 0c 01 00
	00		 jg	 $L255294

; 553  : 			{
; 554  : 				SetState( OBJSTA_DMG_ALL, OBJSTA_DISAPPEAR );	//   

  009ae	68 00 00 00 09	 push	 150994944		; 09000000H
  009b3	68 00 00 00 0f	 push	 251658240		; 0f000000H
  009b8	8b cf		 mov	 ecx, edi
  009ba	e8 00 00 00 00	 call	 ?SetState@CAction@@QAEXKK@Z ; CAction::SetState

; 555  : 				m_nCount = 0;

  009bf	c7 47 40 00 00
	00 00		 mov	 DWORD PTR [edi+64], 0
  009c6	5f		 pop	 edi
  009c7	5e		 pop	 esi
  009c8	5d		 pop	 ebp
  009c9	5b		 pop	 ebx

; 585  : 		break;
; 586  : 	}
; 587  : }

  009ca	c2 0c 00	 ret	 12			; 0000000cH
$L255343:

; 519  : 			}
; 520  : 		}
; 521  : 		break;
; 522  : 	//    -   .
; 523  : 	case OBJSTA_DMG_LIVE:
; 524  : 		if( pModel->IsEndFrame() )

  009cd	8b 85 9c 00 00
	00		 mov	 eax, DWORD PTR [ebp+156]
  009d3	85 c0		 test	 eax, eax
  009d5	0f 84 df 00 00
	00		 je	 $L255294

; 525  : 		{
; 526  : 			pMover->m_dwFlag &= (~MVRF_NOACTION);		//  

  009db	8b 96 48 02 00
	00		 mov	 edx, DWORD PTR [esi+584]
  009e1	81 e2 ff f8 ff
	ff		 and	 edx, -1793		; fffff8ffH

; 527  : 			ResetState( OBJSTA_DMG_ALL );	//   .

  009e7	68 00 00 00 0f	 push	 251658240		; 0f000000H
  009ec	8b cf		 mov	 ecx, edi
  009ee	89 96 48 02 00
	00		 mov	 DWORD PTR [esi+584], edx
