; Listing generated by Microsoft (R) Optimizing Compiler Version 13.10.6030 

	TITLE	\Documents and Settings\test\Mes documents\Source\Virtuos_v17\Build\Program\_AIInterface\Action.cpp
	.386P
include listing.inc
if @Version gt 510
.model FLAT
else
_TEXT	SEGMENT PARA USE32 PUBLIC 'CODE'
_TEXT	ENDS
_DATA	SEGMENT DWORD USE32 PUBLIC 'DATA'
_DATA	ENDS
CONST	SEGMENT DWORD USE32 PUBLIC 'CONST'
CONST	ENDS
_BSS	SEGMENT DWORD USE32 PUBLIC 'BSS'
_BSS	ENDS
$$SYMBOLS	SEGMENT BYTE USE32 'DEBSYM'
$$SYMBOLS	ENDS
$$TYPES	SEGMENT BYTE USE32 'DEBTYP'
$$TYPES	ENDS
_TLS	SEGMENT DWORD USE32 PUBLIC 'TLS'
_TLS	ENDS
;	COMDAT ??_C@_0EI@HGFDNHGL@CAction?3?3ClearState?5?3?5?$LO?F?A?w?$LF?$LF?5?$LJ?$LK?$LA@
CONST	SEGMENT DWORD USE32 PUBLIC 'CONST'
CONST	ENDS
xdata$x	SEGMENT DWORD USE32 PUBLIC 'CONST'
xdata$x	ENDS
text$AFX_COL1	SEGMENT PARA USE32 PUBLIC ''
text$AFX_COL1	ENDS
;	COMDAT ??0CAction@@QAE@XZ
_TEXT	SEGMENT PARA USE32 PUBLIC 'CODE'
_TEXT	ENDS
;	COMDAT ??_GCAction@@UAEPAXI@Z
_TEXT	SEGMENT PARA USE32 PUBLIC 'CODE'
_TEXT	ENDS
;	COMDAT ??0CAction@@QAE@PAVCMover@@@Z
_TEXT	SEGMENT PARA USE32 PUBLIC 'CODE'
_TEXT	ENDS
;	COMDAT ??1CAction@@UAE@XZ
_TEXT	SEGMENT PARA USE32 PUBLIC 'CODE'
_TEXT	ENDS
;	COMDAT ?Init@CAction@@QAEXXZ
_TEXT	SEGMENT PARA USE32 PUBLIC 'CODE'
_TEXT	ENDS
;	COMDAT ?AddStateFlag@CAction@@QAEXK@Z
_TEXT	SEGMENT PARA USE32 PUBLIC 'CODE'
_TEXT	ENDS
;	COMDAT ?RemoveStateFlag@CAction@@QAEXK@Z
_TEXT	SEGMENT PARA USE32 PUBLIC 'CODE'
_TEXT	ENDS
;	COMDAT ?ProcessAtkMsg@CAction@@AAEXXZ
_TEXT	SEGMENT PARA USE32 PUBLIC 'CODE'
_TEXT	ENDS
;	COMDAT ?GetWorld@CAction@@QAEPAVCWorld@@XZ
_TEXT	SEGMENT PARA USE32 PUBLIC 'CODE'
_TEXT	ENDS
;	COMDAT ?OnEndMoveState@CAction@@QAEXXZ
_TEXT	SEGMENT PARA USE32 PUBLIC 'CODE'
_TEXT	ENDS
;	COMDAT ?OnEndTurnState@CAction@@QAEXXZ
_TEXT	SEGMENT PARA USE32 PUBLIC 'CODE'
_TEXT	ENDS
;	COMDAT ?OnEndLookState@CAction@@QAEXXZ
_TEXT	SEGMENT PARA USE32 PUBLIC 'CODE'
_TEXT	ENDS
;	COMDAT ?OnEndJumpState@CAction@@QAEXK@Z
_TEXT	SEGMENT PARA USE32 PUBLIC 'CODE'
_TEXT	ENDS
;	COMDAT ?OnEndAttackState@CAction@@QAEXK@Z
_TEXT	SEGMENT PARA USE32 PUBLIC 'CODE'
_TEXT	ENDS
;	COMDAT ?OnEndDamageState@CAction@@QAEXXZ
_TEXT	SEGMENT PARA USE32 PUBLIC 'CODE'
_TEXT	ENDS
;	COMDAT ?OnEndActionState@CAction@@QAEXXZ
_TEXT	SEGMENT PARA USE32 PUBLIC 'CODE'
_TEXT	ENDS
;	COMDAT ?ClearState@CAction@@QAEXXZ
_TEXT	SEGMENT PARA USE32 PUBLIC 'CODE'
_TEXT	ENDS
;	COMDAT ?ResetState@CAction@@QAEXK@Z
_TEXT	SEGMENT PARA USE32 PUBLIC 'CODE'
_TEXT	ENDS
;	COMDAT ?compare@?$basic_string@DU?$char_traits@D@std@@V?$allocator@D@2@@std@@QBEHABV12@@Z
_TEXT	SEGMENT PARA USE32 PUBLIC 'CODE'
_TEXT	ENDS
;	COMDAT ?IsFull@?$CStack@K@@QAEHXZ
_TEXT	SEGMENT PARA USE32 PUBLIC 'CODE'
_TEXT	ENDS
;	COMDAT ??0?$pair@KPAVCCtrl@@@std@@QAE@ABKABQAVCCtrl@@@Z
_TEXT	SEGMENT PARA USE32 PUBLIC 'CODE'
_TEXT	ENDS
;	COMDAT ?GetMax@?$CItemContainer@VCItemElem@@@@QAEHXZ
_TEXT	SEGMENT PARA USE32 PUBLIC 'CODE'
_TEXT	ENDS
;	COMDAT ??0?$deque@PAUtagACTMSG@@V?$allocator@PAUtagACTMSG@@@std@@@std@@QAE@XZ
_TEXT	SEGMENT PARA USE32 PUBLIC 'CODE'
_TEXT	ENDS
;	COMDAT ??1?$deque@PAUtagACTMSG@@V?$allocator@PAUtagACTMSG@@@std@@@std@@QAE@XZ
_TEXT	SEGMENT PARA USE32 PUBLIC 'CODE'
_TEXT	ENDS
;	COMDAT ?begin@?$deque@PAUtagACTMSG@@V?$allocator@PAUtagACTMSG@@@std@@@std@@QAE?AViterator@12@XZ
_TEXT	SEGMENT PARA USE32 PUBLIC 'CODE'
_TEXT	ENDS
;	COMDAT ?end@?$deque@PAUtagACTMSG@@V?$allocator@PAUtagACTMSG@@@std@@@std@@QAE?AViterator@12@XZ
_TEXT	SEGMENT PARA USE32 PUBLIC 'CODE'
_TEXT	ENDS
;	COMDAT ?empty@?$deque@PAUtagACTMSG@@V?$allocator@PAUtagACTMSG@@@std@@@std@@QBE_NXZ
_TEXT	SEGMENT PARA USE32 PUBLIC 'CODE'
_TEXT	ENDS
;	COMDAT ?clear@?$deque@PAUtagACTMSG@@V?$allocator@PAUtagACTMSG@@@std@@@std@@QAEXXZ
_TEXT	SEGMENT PARA USE32 PUBLIC 'CODE'
_TEXT	ENDS
;	COMDAT ??0?$deque@PAUtagMAGICATKMSG@@V?$allocator@PAUtagMAGICATKMSG@@@std@@@std@@QAE@XZ
_TEXT	SEGMENT PARA USE32 PUBLIC 'CODE'
_TEXT	ENDS
;	COMDAT ??1?$deque@PAUtagMAGICATKMSG@@V?$allocator@PAUtagMAGICATKMSG@@@std@@@std@@QAE@XZ
_TEXT	SEGMENT PARA USE32 PUBLIC 'CODE'
_TEXT	ENDS
;	COMDAT ?begin@?$deque@PAUtagMAGICATKMSG@@V?$allocator@PAUtagMAGICATKMSG@@@std@@@std@@QAE?AViterator@12@XZ
_TEXT	SEGMENT PARA USE32 PUBLIC 'CODE'
_TEXT	ENDS
;	COMDAT ?end@?$deque@PAUtagMAGICATKMSG@@V?$allocator@PAUtagMAGICATKMSG@@@std@@@std@@QAE?AViterator@12@XZ
_TEXT	SEGMENT PARA USE32 PUBLIC 'CODE'
_TEXT	ENDS
;	COMDAT ?empty@?$deque@PAUtagMAGICATKMSG@@V?$allocator@PAUtagMAGICATKMSG@@@std@@@std@@QBE_NXZ
_TEXT	SEGMENT PARA USE32 PUBLIC 'CODE'
_TEXT	ENDS
;	COMDAT ?clear@?$deque@PAUtagMAGICATKMSG@@V?$allocator@PAUtagMAGICATKMSG@@@std@@@std@@QAEXXZ
_TEXT	SEGMENT PARA USE32 PUBLIC 'CODE'
_TEXT	ENDS
;	COMDAT ??Diterator@?$deque@PAUtagACTMSG@@V?$allocator@PAUtagACTMSG@@@std@@@std@@QBEAAPAUtagACTMSG@@XZ
_TEXT	SEGMENT PARA USE32 PUBLIC 'CODE'
_TEXT	ENDS
;	COMDAT ??Eiterator@?$deque@PAUtagACTMSG@@V?$allocator@PAUtagACTMSG@@@std@@@std@@QAEAAV012@XZ
_TEXT	SEGMENT PARA USE32 PUBLIC 'CODE'
_TEXT	ENDS
;	COMDAT ??9const_iterator@?$deque@PAUtagACTMSG@@V?$allocator@PAUtagACTMSG@@@std@@@std@@QBE_NABV012@@Z
_TEXT	SEGMENT PARA USE32 PUBLIC 'CODE'
_TEXT	ENDS
;	COMDAT ??Diterator@?$deque@PAUtagMAGICATKMSG@@V?$allocator@PAUtagMAGICATKMSG@@@std@@@std@@QBEAAPAUtagMAGICATKMSG@@XZ
_TEXT	SEGMENT PARA USE32 PUBLIC 'CODE'
_TEXT	ENDS
;	COMDAT ??Eiterator@?$deque@PAUtagMAGICATKMSG@@V?$allocator@PAUtagMAGICATKMSG@@@std@@@std@@QAEAAV012@XZ
_TEXT	SEGMENT PARA USE32 PUBLIC 'CODE'
_TEXT	ENDS
;	COMDAT ??9const_iterator@?$deque@PAUtagMAGICATKMSG@@V?$allocator@PAUtagMAGICATKMSG@@@std@@@std@@QBE_NABV012@@Z
_TEXT	SEGMENT PARA USE32 PUBLIC 'CODE'
_TEXT	ENDS
;	COMDAT ?compare@?$basic_string@DU?$char_traits@D@std@@V?$allocator@D@2@@std@@QBEHIIPBDI@Z
_TEXT	SEGMENT PARA USE32 PUBLIC 'CODE'
_TEXT	ENDS
;	COMDAT ?_Tidy@?$deque@PAUtagACTMSG@@V?$allocator@PAUtagACTMSG@@@std@@@std@@IAEXXZ
_TEXT	SEGMENT PARA USE32 PUBLIC 'CODE'
_TEXT	ENDS
;	COMDAT ??0?$_Deque_val@PAUtagACTMSG@@V?$allocator@PAUtagACTMSG@@@std@@@std@@IAE@V?$allocator@PAUtagACTMSG@@@1@@Z
_TEXT	SEGMENT PARA USE32 PUBLIC 'CODE'
_TEXT	ENDS
;	COMDAT ??0?$allocator@PAUtagACTMSG@@@std@@QAE@XZ
_TEXT	SEGMENT PARA USE32 PUBLIC 'CODE'
_TEXT	ENDS
;	COMDAT ?_Tidy@?$deque@PAUtagMAGICATKMSG@@V?$allocator@PAUtagMAGICATKMSG@@@std@@@std@@IAEXXZ
_TEXT	SEGMENT PARA USE32 PUBLIC 'CODE'
_TEXT	ENDS
;	COMDAT ??0?$_Deque_val@PAUtagMAGICATKMSG@@V?$allocator@PAUtagMAGICATKMSG@@@std@@@std@@IAE@V?$allocator@PAUtagMAGICATKMSG@@@1@@Z
_TEXT	SEGMENT PARA USE32 PUBLIC 'CODE'
_TEXT	ENDS
;	COMDAT ??0?$allocator@PAUtagMAGICATKMSG@@@std@@QAE@XZ
_TEXT	SEGMENT PARA USE32 PUBLIC 'CODE'
_TEXT	ENDS
;	COMDAT ??0iterator@?$deque@PAUtagACTMSG@@V?$allocator@PAUtagACTMSG@@@std@@@std@@QAE@IPBV12@@Z
_TEXT	SEGMENT PARA USE32 PUBLIC 'CODE'
_TEXT	ENDS
;	COMDAT ??Dconst_iterator@?$deque@PAUtagACTMSG@@V?$allocator@PAUtagACTMSG@@@std@@@std@@QBEABQAUtagACTMSG@@XZ
_TEXT	SEGMENT PARA USE32 PUBLIC 'CODE'
_TEXT	ENDS
;	COMDAT ??8const_iterator@?$deque@PAUtagACTMSG@@V?$allocator@PAUtagACTMSG@@@std@@@std@@QBE_NABV012@@Z
_TEXT	SEGMENT PARA USE32 PUBLIC 'CODE'
_TEXT	ENDS
;	COMDAT ??0iterator@?$deque@PAUtagMAGICATKMSG@@V?$allocator@PAUtagMAGICATKMSG@@@std@@@std@@QAE@IPBV12@@Z
_TEXT	SEGMENT PARA USE32 PUBLIC 'CODE'
_TEXT	ENDS
;	COMDAT ??Dconst_iterator@?$deque@PAUtagMAGICATKMSG@@V?$allocator@PAUtagMAGICATKMSG@@@std@@@std@@QBEABQAUtagMAGICATKMSG@@XZ
_TEXT	SEGMENT PARA USE32 PUBLIC 'CODE'
_TEXT	ENDS
;	COMDAT ??8const_iterator@?$deque@PAUtagMAGICATKMSG@@V?$allocator@PAUtagMAGICATKMSG@@@std@@@std@@QBE_NABV012@@Z
_TEXT	SEGMENT PARA USE32 PUBLIC 'CODE'
_TEXT	ENDS
;	COMDAT ?pop_back@?$deque@PAUtagACTMSG@@V?$allocator@PAUtagACTMSG@@@std@@@std@@QAEXXZ
_TEXT	SEGMENT PARA USE32 PUBLIC 'CODE'
_TEXT	ENDS
;	COMDAT ??0?$_Deque_map@PAUtagACTMSG@@V?$allocator@PAUtagACTMSG@@@std@@@std@@IAE@V?$allocator@PAUtagACTMSG@@@1@@Z
_TEXT	SEGMENT PARA USE32 PUBLIC 'CODE'
_TEXT	ENDS
;	COMDAT ??0?$allocator@PAUtagACTMSG@@@std@@QAE@ABV01@@Z
_TEXT	SEGMENT PARA USE32 PUBLIC 'CODE'
_TEXT	ENDS
;	COMDAT ?deallocate@?$allocator@PAUtagACTMSG@@@std@@QAEXPAPAUtagACTMSG@@I@Z
_TEXT	SEGMENT PARA USE32 PUBLIC 'CODE'
_TEXT	ENDS
;	COMDAT ?deallocate@?$allocator@PAPAUtagACTMSG@@@std@@QAEXPAPAPAUtagACTMSG@@I@Z
_TEXT	SEGMENT PARA USE32 PUBLIC 'CODE'
_TEXT	ENDS
;	COMDAT ?destroy@?$allocator@PAPAUtagACTMSG@@@std@@QAEXPAPAPAUtagACTMSG@@@Z
_TEXT	SEGMENT PARA USE32 PUBLIC 'CODE'
_TEXT	ENDS
;	COMDAT ?pop_back@?$deque@PAUtagMAGICATKMSG@@V?$allocator@PAUtagMAGICATKMSG@@@std@@@std@@QAEXXZ
_TEXT	SEGMENT PARA USE32 PUBLIC 'CODE'
_TEXT	ENDS
;	COMDAT ??0?$_Deque_map@PAUtagMAGICATKMSG@@V?$allocator@PAUtagMAGICATKMSG@@@std@@@std@@IAE@V?$allocator@PAUtagMAGICATKMSG@@@1@@Z
_TEXT	SEGMENT PARA USE32 PUBLIC 'CODE'
_TEXT	ENDS
;	COMDAT ??0?$allocator@PAUtagMAGICATKMSG@@@std@@QAE@ABV01@@Z
_TEXT	SEGMENT PARA USE32 PUBLIC 'CODE'
_TEXT	ENDS
;	COMDAT ?deallocate@?$allocator@PAUtagMAGICATKMSG@@@std@@QAEXPAPAUtagMAGICATKMSG@@I@Z
_TEXT	SEGMENT PARA USE32 PUBLIC 'CODE'
_TEXT	ENDS
;	COMDAT ?deallocate@?$allocator@PAPAUtagMAGICATKMSG@@@std@@QAEXPAPAPAUtagMAGICATKMSG@@I@Z
_TEXT	SEGMENT PARA USE32 PUBLIC 'CODE'
_TEXT	ENDS
;	COMDAT ?destroy@?$allocator@PAPAUtagMAGICATKMSG@@@std@@QAEXPAPAPAUtagMAGICATKMSG@@@Z
_TEXT	SEGMENT PARA USE32 PUBLIC 'CODE'
_TEXT	ENDS
;	COMDAT ??0const_iterator@?$deque@PAUtagACTMSG@@V?$allocator@PAUtagACTMSG@@@std@@@std@@QAE@IPBV12@@Z
_TEXT	SEGMENT PARA USE32 PUBLIC 'CODE'
_TEXT	ENDS
;	COMDAT ??0const_iterator@?$deque@PAUtagMAGICATKMSG@@V?$allocator@PAUtagMAGICATKMSG@@@std@@@std@@QAE@IPBV12@@Z
_TEXT	SEGMENT PARA USE32 PUBLIC 'CODE'
_TEXT	ENDS
;	COMDAT ?destroy@?$allocator@PAUtagACTMSG@@@std@@QAEXPAPAUtagACTMSG@@@Z
_TEXT	SEGMENT PARA USE32 PUBLIC 'CODE'
_TEXT	ENDS
;	COMDAT ?destroy@?$allocator@PAUtagMAGICATKMSG@@@std@@QAEXPAPAUtagMAGICATKMSG@@@Z
_TEXT	SEGMENT PARA USE32 PUBLIC 'CODE'
_TEXT	ENDS
;	COMDAT ??$_Iter_cat@Vconst_iterator@?$vector@EV?$allocator@E@std@@@std@@@std@@YA?AUrandom_access_iterator_tag@0@ABVconst_iterator@?$vector@EV?$allocator@E@std@@@0@@Z
_TEXT	SEGMENT PARA USE32 PUBLIC 'CODE'
_TEXT	ENDS
;	COMDAT ??$_Assign@Vconst_iterator@?$vector@EV?$allocator@E@std@@@std@@@?$vector@EV?$allocator@E@std@@@std@@QAEXVconst_iterator@01@0Uinput_iterator_tag@1@@Z
_TEXT	SEGMENT PARA USE32 PUBLIC 'CODE'
_TEXT	ENDS
;	COMDAT ??$_Iter_cat@Viterator@?$_Tree@V?$_Tmap_traits@KPAVCUser@@U?$less@K@std@@V?$allocator@U?$pair@$$CBKPAVCUser@@@std@@@3@$0A@@std@@@std@@@std@@YA?AUbidirectional_iterator_tag@0@ABViterator@?$_Tree@V?$_Tmap_traits@KPAVCUser@@U?$less@K@std@@V?$allocator@U?$pair@$$CBKPAVCUser@@@std@@@3@$0A@@std@@@0@@Z
_TEXT	SEGMENT PARA USE32 PUBLIC 'CODE'
_TEXT	ENDS
;	COMDAT ??$_Distance2@Viterator@?$_Tree@V?$_Tmap_traits@KPAVCUser@@U?$less@K@std@@V?$allocator@U?$pair@$$CBKPAVCUser@@@std@@@3@$0A@@std@@@std@@I@std@@YAXViterator@?$_Tree@V?$_Tmap_traits@KPAVCUser@@U?$less@K@std@@V?$allocator@U?$pair@$$CBKPAVCUser@@@std@@@3@$0A@@std@@@0@0AAIUbidirectional_iterator_tag@0@@Z
_TEXT	SEGMENT PARA USE32 PUBLIC 'CODE'
_TEXT	ENDS
;	COMDAT ??$_Iter_cat@Viterator@?$_Tree@V?$_Tmap_traits@KPAVCCtrl@@U?$less@K@std@@V?$allocator@U?$pair@$$CBKPAVCCtrl@@@std@@@3@$0A@@std@@@std@@@std@@YA?AUbidirectional_iterator_tag@0@ABViterator@?$_Tree@V?$_Tmap_traits@KPAVCCtrl@@U?$less@K@std@@V?$allocator@U?$pair@$$CBKPAVCCtrl@@@std@@@3@$0A@@std@@@0@@Z
_TEXT	SEGMENT PARA USE32 PUBLIC 'CODE'
_TEXT	ENDS
;	COMDAT ??$_Distance2@Viterator@?$_Tree@V?$_Tmap_traits@KPAVCCtrl@@U?$less@K@std@@V?$allocator@U?$pair@$$CBKPAVCCtrl@@@std@@@3@$0A@@std@@@std@@I@std@@YAXViterator@?$_Tree@V?$_Tmap_traits@KPAVCCtrl@@U?$less@K@std@@V?$allocator@U?$pair@$$CBKPAVCCtrl@@@std@@@3@$0A@@std@@@0@0AAIUbidirectional_iterator_tag@0@@Z
_TEXT	SEGMENT PARA USE32 PUBLIC 'CODE'
_TEXT	ENDS
;	COMDAT ??$_Uninitialized_copy@Vconst_iterator@?$vector@EV?$allocator@E@std@@@std@@PAEV?$allocator@E@3@@std@@YAPAEVconst_iterator@?$vector@EV?$allocator@E@std@@@0@0PAEAAV?$allocator@E@0@@Z
_TEXT	SEGMENT PARA USE32 PUBLIC 'CODE'
_TEXT	ENDS
;	COMDAT ??$_Iter_cat@Viterator@?$_Tree@V?$_Tmap_traits@KEU?$less@K@std@@V?$allocator@U?$pair@$$CBKE@std@@@2@$0A@@std@@@std@@@std@@YA?AUbidirectional_iterator_tag@0@ABViterator@?$_Tree@V?$_Tmap_traits@KEU?$less@K@std@@V?$allocator@U?$pair@$$CBKE@std@@@2@$0A@@std@@@0@@Z
_TEXT	SEGMENT PARA USE32 PUBLIC 'CODE'
_TEXT	ENDS
;	COMDAT ??$_Distance2@Viterator@?$_Tree@V?$_Tmap_traits@KEU?$less@K@std@@V?$allocator@U?$pair@$$CBKE@std@@@2@$0A@@std@@@std@@I@std@@YAXViterator@?$_Tree@V?$_Tmap_traits@KEU?$less@K@std@@V?$allocator@U?$pair@$$CBKE@std@@@2@$0A@@std@@@0@0AAIUbidirectional_iterator_tag@0@@Z
_TEXT	SEGMENT PARA USE32 PUBLIC 'CODE'
_TEXT	ENDS
;	COMDAT ??$_Ptr_cat@PAU__SPAWNREGION@CEventLua@@PAU12@@std@@YA?AU_Nonscalar_ptr_iterator_tag@0@AAPAU__SPAWNREGION@CEventLua@@0@Z
_TEXT	SEGMENT PARA USE32 PUBLIC 'CODE'
_TEXT	ENDS
;	COMDAT ??$_Uninit_fill_n@PAU__SPAWNREGION@CEventLua@@IU12@V?$allocator@U__SPAWNREGION@CEventLua@@@std@@@std@@YAXPAU__SPAWNREGION@CEventLua@@IABU12@AAV?$allocator@U__SPAWNREGION@CEventLua@@@0@U_Nonscalar_ptr_iterator_tag@0@@Z
_TEXT	SEGMENT PARA USE32 PUBLIC 'CODE'
_TEXT	ENDS
;	COMDAT ??$_Copy_opt@PAJPAJ@std@@YAPAJPAJ00U_Scalar_ptr_iterator_tag@0@@Z
_TEXT	SEGMENT PARA USE32 PUBLIC 'CODE'
_TEXT	ENDS
;	COMDAT ??$_Uninitialized_copy@PAJPAJV?$allocator@J@std@@@std@@YAPAJPAJ00AAV?$allocator@J@0@@Z
_TEXT	SEGMENT PARA USE32 PUBLIC 'CODE'
_TEXT	ENDS
;	COMDAT ??$_Copy_backward_opt@PAJPAJ@std@@YAPAJPAJ00U_Scalar_ptr_iterator_tag@0@@Z
_TEXT	SEGMENT PARA USE32 PUBLIC 'CODE'
_TEXT	ENDS
;	COMDAT ??$_Ptr_cat@PAUtagDROPITEM@@PAU1@@std@@YA?AU_Nonscalar_ptr_iterator_tag@0@AAPAUtagDROPITEM@@0@Z
_TEXT	SEGMENT PARA USE32 PUBLIC 'CODE'
_TEXT	ENDS
;	COMDAT ??$_Destroy_range@UtagDROPITEM@@V?$allocator@UtagDROPITEM@@@std@@@std@@YAXPAUtagDROPITEM@@0AAV?$allocator@UtagDROPITEM@@@0@U_Nonscalar_ptr_iterator_tag@0@@Z
_TEXT	SEGMENT PARA USE32 PUBLIC 'CODE'
_TEXT	ENDS
;	COMDAT ??$_Ptr_cat@PAUWORMON@@PAU1@@std@@YA?AU_Nonscalar_ptr_iterator_tag@0@AAPAUWORMON@@0@Z
_TEXT	SEGMENT PARA USE32 PUBLIC 'CODE'
_TEXT	ENDS
;	COMDAT ??$_Destroy_range@UWORMON@@V?$allocator@UWORMON@@@std@@@std@@YAXPAUWORMON@@0AAV?$allocator@UWORMON@@@0@U_Nonscalar_ptr_iterator_tag@0@@Z
_TEXT	SEGMENT PARA USE32 PUBLIC 'CODE'
_TEXT	ENDS
;	COMDAT ??$_Ptr_cat@PAU__ITEMGAME@CMiniGame@@PAU12@@std@@YA?AU_Nonscalar_ptr_iterator_tag@0@AAPAU__ITEMGAME@CMiniGame@@0@Z
_TEXT	SEGMENT PARA USE32 PUBLIC 'CODE'
_TEXT	ENDS
;	COMDAT ??$_Destroy_range@U__ITEMGAME@CMiniGame@@V?$allocator@U__ITEMGAME@CMiniGame@@@std@@@std@@YAXPAU__ITEMGAME@CMiniGame@@0AAV?$allocator@U__ITEMGAME@CMiniGame@@@0@U_Nonscalar_ptr_iterator_tag@0@@Z
_TEXT	SEGMENT PARA USE32 PUBLIC 'CODE'
_TEXT	ENDS
;	COMDAT ??$_Destroy_range@KV?$allocator@K@std@@@std@@YAXPAK0AAV?$allocator@K@0@U_Scalar_ptr_iterator_tag@0@@Z
_TEXT	SEGMENT PARA USE32 PUBLIC 'CODE'
_TEXT	ENDS
;	COMDAT ??$_Destroy_range@HV?$allocator@H@std@@@std@@YAXPAH0AAV?$allocator@H@0@U_Scalar_ptr_iterator_tag@0@@Z
_TEXT	SEGMENT PARA USE32 PUBLIC 'CODE'
_TEXT	ENDS
;	COMDAT ??$_Ptr_cat@PAU__ITEM@CExchange@@PAU12@@std@@YA?AU_Nonscalar_ptr_iterator_tag@0@AAPAU__ITEM@CExchange@@0@Z
_TEXT	SEGMENT PARA USE32 PUBLIC 'CODE'
_TEXT	ENDS
;	COMDAT ??$_Destroy_range@U__ITEM@CExchange@@V?$allocator@U__ITEM@CExchange@@@std@@@std@@YAXPAU__ITEM@CExchange@@0AAV?$allocator@U__ITEM@CExchange@@@0@U_Nonscalar_ptr_iterator_tag@0@@Z
_TEXT	SEGMENT PARA USE32 PUBLIC 'CODE'
_TEXT	ENDS
;	COMDAT ??$_Ptr_cat@PAU__POINT@CExchange@@PAU12@@std@@YA?AU_Nonscalar_ptr_iterator_tag@0@AAPAU__POINT@CExchange@@0@Z
_TEXT	SEGMENT PARA USE32 PUBLIC 'CODE'
_TEXT	ENDS
;	COMDAT ??$_Destroy_range@U__POINT@CExchange@@V?$allocator@U__POINT@CExchange@@@std@@@std@@YAXPAU__POINT@CExchange@@0AAV?$allocator@U__POINT@CExchange@@@0@U_Nonscalar_ptr_iterator_tag@0@@Z
_TEXT	SEGMENT PARA USE32 PUBLIC 'CODE'
_TEXT	ENDS
;	COMDAT ??$_Destroy_range@EV?$allocator@E@std@@@std@@YAXPAE0AAV?$allocator@E@0@U_Scalar_ptr_iterator_tag@0@@Z
_TEXT	SEGMENT PARA USE32 PUBLIC 'CODE'
_TEXT	ENDS
;	COMDAT ??$_Uninitialized_copy@PAU__SPAWNREGION@CEventLua@@PAU12@V?$allocator@U__SPAWNREGION@CEventLua@@@std@@@std@@YAPAU__SPAWNREGION@CEventLua@@PAU12@00AAV?$allocator@U__SPAWNREGION@CEventLua@@@0@@Z
_TEXT	SEGMENT PARA USE32 PUBLIC 'CODE'
_TEXT	ENDS
;	COMDAT ??$_Copy_backward_opt@PAU__SPAWNREGION@CEventLua@@PAU12@@std@@YAPAU__SPAWNREGION@CEventLua@@PAU12@00U_Nonscalar_ptr_iterator_tag@0@@Z
_TEXT	SEGMENT PARA USE32 PUBLIC 'CODE'
_TEXT	ENDS
;	COMDAT ??$_Ptr_cat@PAUD3DXVECTOR3@@PAU1@@std@@YA?AU_Nonscalar_ptr_iterator_tag@0@AAPAUD3DXVECTOR3@@0@Z
_TEXT	SEGMENT PARA USE32 PUBLIC 'CODE'
_TEXT	ENDS
;	COMDAT ??$_Destroy_range@UD3DXVECTOR3@@V?$allocator@UD3DXVECTOR3@@@std@@@std@@YAXPAUD3DXVECTOR3@@0AAV?$allocator@UD3DXVECTOR3@@@0@U_Nonscalar_ptr_iterator_tag@0@@Z
_TEXT	SEGMENT PARA USE32 PUBLIC 'CODE'
_TEXT	ENDS
;	COMDAT ??$_Ptr_cat@PAU_GIFTBOX@@PAU1@@std@@YA?AU_Nonscalar_ptr_iterator_tag@0@AAPAU_GIFTBOX@@0@Z
_TEXT	SEGMENT PARA USE32 PUBLIC 'CODE'
_TEXT	ENDS
;	COMDAT ??$_Destroy_range@U_GIFTBOX@@V?$allocator@U_GIFTBOX@@@std@@@std@@YAXPAU_GIFTBOX@@0AAV?$allocator@U_GIFTBOX@@@0@U_Nonscalar_ptr_iterator_tag@0@@Z
_TEXT	SEGMENT PARA USE32 PUBLIC 'CODE'
_TEXT	ENDS
;	COMDAT ??$_Destroy_range@JV?$allocator@J@std@@@std@@YAXPAJ0AAV?$allocator@J@0@U_Scalar_ptr_iterator_tag@0@@Z
_TEXT	SEGMENT PARA USE32 PUBLIC 'CODE'
_TEXT	ENDS
;	COMDAT ??$_Uninit_fill_n@JIJ@std@@YAXPAJIABJAAV?$allocator@J@0@U_Scalar_ptr_iterator_tag@0@@Z
_TEXT	SEGMENT PARA USE32 PUBLIC 'CODE'
_TEXT	ENDS
;	COMDAT ??$_Destroy_range@U__SPAWNREGION@CEventLua@@V?$allocator@U__SPAWNREGION@CEventLua@@@std@@@std@@YAXPAU__SPAWNREGION@CEventLua@@0AAV?$allocator@U__SPAWNREGION@CEventLua@@@0@U_Nonscalar_ptr_iterator_tag@0@@Z
_TEXT	SEGMENT PARA USE32 PUBLIC 'CODE'
_TEXT	ENDS
;	COMDAT ??$?0PAUtagACTMSG@@@?$allocator@PAPAUtagACTMSG@@@std@@QAE@ABV?$allocator@PAUtagACTMSG@@@1@@Z
_TEXT	SEGMENT PARA USE32 PUBLIC 'CODE'
_TEXT	ENDS
;	COMDAT ??$_Destroy@PAPAUtagACTMSG@@@std@@YAXPAPAPAUtagACTMSG@@@Z
_TEXT	SEGMENT PARA USE32 PUBLIC 'CODE'
_TEXT	ENDS
;	COMDAT ??$?0PAUtagMAGICATKMSG@@@?$allocator@PAPAUtagMAGICATKMSG@@@std@@QAE@ABV?$allocator@PAUtagMAGICATKMSG@@@1@@Z
_TEXT	SEGMENT PARA USE32 PUBLIC 'CODE'
_TEXT	ENDS
;	COMDAT ??$_Destroy@PAPAUtagMAGICATKMSG@@@std@@YAXPAPAPAUtagMAGICATKMSG@@@Z
_TEXT	SEGMENT PARA USE32 PUBLIC 'CODE'
_TEXT	ENDS
;	COMDAT ??$_Destroy@PAUtagACTMSG@@@std@@YAXPAPAUtagACTMSG@@@Z
_TEXT	SEGMENT PARA USE32 PUBLIC 'CODE'
_TEXT	ENDS
;	COMDAT ??$_Destroy@PAUtagMAGICATKMSG@@@std@@YAXPAPAUtagMAGICATKMSG@@@Z
_TEXT	SEGMENT PARA USE32 PUBLIC 'CODE'
_TEXT	ENDS
;	COMDAT ?destroy@?$allocator@UtagDROPITEM@@@std@@QAEXPAUtagDROPITEM@@@Z
_TEXT	SEGMENT PARA USE32 PUBLIC 'CODE'
_TEXT	ENDS
;	COMDAT ?destroy@?$allocator@UWORMON@@@std@@QAEXPAUWORMON@@@Z
_TEXT	SEGMENT PARA USE32 PUBLIC 'CODE'
_TEXT	ENDS
;	COMDAT ?destroy@?$allocator@U__ITEMGAME@CMiniGame@@@std@@QAEXPAU__ITEMGAME@CMiniGame@@@Z
_TEXT	SEGMENT PARA USE32 PUBLIC 'CODE'
_TEXT	ENDS
;	COMDAT ?destroy@?$allocator@U__ITEM@CExchange@@@std@@QAEXPAU__ITEM@CExchange@@@Z
_TEXT	SEGMENT PARA USE32 PUBLIC 'CODE'
_TEXT	ENDS
;	COMDAT ?destroy@?$allocator@U__POINT@CExchange@@@std@@QAEXPAU__POINT@CExchange@@@Z
_TEXT	SEGMENT PARA USE32 PUBLIC 'CODE'
_TEXT	ENDS
;	COMDAT ?begin@?$vector@EV?$allocator@E@std@@@std@@QAE?AViterator@12@XZ
_TEXT	SEGMENT PARA USE32 PUBLIC 'CODE'
_TEXT	ENDS
;	COMDAT ?end@?$vector@EV?$allocator@E@std@@@std@@QAE?AViterator@12@XZ
_TEXT	SEGMENT PARA USE32 PUBLIC 'CODE'
_TEXT	ENDS
;	COMDAT ?erase@?$vector@EV?$allocator@E@std@@@std@@QAE?AViterator@12@V312@0@Z
_TEXT	SEGMENT PARA USE32 PUBLIC 'CODE'
_TEXT	ENDS
;	COMDAT ?construct@?$allocator@U__SPAWNREGION@CEventLua@@@std@@QAEXPAU__SPAWNREGION@CEventLua@@ABU34@@Z
_TEXT	SEGMENT PARA USE32 PUBLIC 'CODE'
_TEXT	ENDS
;	COMDAT ?destroy@?$allocator@U__SPAWNREGION@CEventLua@@@std@@QAEXPAU__SPAWNREGION@CEventLua@@@Z
_TEXT	SEGMENT PARA USE32 PUBLIC 'CODE'
_TEXT	ENDS
;	COMDAT ?destroy@?$allocator@UD3DXVECTOR3@@@std@@QAEXPAUD3DXVECTOR3@@@Z
_TEXT	SEGMENT PARA USE32 PUBLIC 'CODE'
_TEXT	ENDS
;	COMDAT ?destroy@?$allocator@U_GIFTBOX@@@std@@QAEXPAU_GIFTBOX@@@Z
_TEXT	SEGMENT PARA USE32 PUBLIC 'CODE'
_TEXT	ENDS
;	COMDAT ??9const_iterator@?$vector@EV?$allocator@E@std@@@std@@QBE_NABV012@@Z
_TEXT	SEGMENT PARA USE32 PUBLIC 'CODE'
_TEXT	ENDS
;	COMDAT ??0iterator@?$vector@EV?$allocator@E@std@@@std@@QAE@PAE@Z
_TEXT	SEGMENT PARA USE32 PUBLIC 'CODE'
_TEXT	ENDS
;	COMDAT ??8const_iterator@?$vector@EV?$allocator@E@std@@@std@@QBE_NABV012@@Z
_TEXT	SEGMENT PARA USE32 PUBLIC 'CODE'
_TEXT	ENDS
;	COMDAT ??$insert@Vconst_iterator@?$vector@EV?$allocator@E@std@@@std@@@?$vector@EV?$allocator@E@std@@@std@@QAEXViterator@01@Vconst_iterator@01@1@Z
_TEXT	SEGMENT PARA USE32 PUBLIC 'CODE'
_TEXT	ENDS
;	COMDAT ??$_Ptr_cat@Vconst_iterator@?$vector@EV?$allocator@E@std@@@std@@PAE@std@@YA?AU_Nonscalar_ptr_iterator_tag@0@AAVconst_iterator@?$vector@EV?$allocator@E@std@@@0@AAPAE@Z
_TEXT	SEGMENT PARA USE32 PUBLIC 'CODE'
_TEXT	ENDS
;	COMDAT ??$_Uninit_copy@Vconst_iterator@?$vector@EV?$allocator@E@std@@@std@@PAEV?$allocator@E@3@@std@@YAPAEVconst_iterator@?$vector@EV?$allocator@E@std@@@0@0PAEAAV?$allocator@E@0@U_Nonscalar_ptr_iterator_tag@0@@Z
_TEXT	SEGMENT PARA USE32 PUBLIC 'CODE'
_TEXT	ENDS
;	COMDAT ??$_Uninit_copy@JJ@std@@YAPAJPAJ00AAV?$allocator@J@0@U_Scalar_ptr_iterator_tag@0@@Z
_TEXT	SEGMENT PARA USE32 PUBLIC 'CODE'
_TEXT	ENDS
;	COMDAT ??$_Uninit_copy@PAU__SPAWNREGION@CEventLua@@PAU12@V?$allocator@U__SPAWNREGION@CEventLua@@@std@@@std@@YAPAU__SPAWNREGION@CEventLua@@PAU12@00AAV?$allocator@U__SPAWNREGION@CEventLua@@@0@U_Nonscalar_ptr_iterator_tag@0@@Z
_TEXT	SEGMENT PARA USE32 PUBLIC 'CODE'
_TEXT	ENDS
;	COMDAT ??$fill_n@PAJIJ@std@@YAXPAJIABJ@Z
_TEXT	SEGMENT PARA USE32 PUBLIC 'CODE'
_TEXT	ENDS
;	COMDAT ??$_Destroy@UtagDROPITEM@@@std@@YAXPAUtagDROPITEM@@@Z
_TEXT	SEGMENT PARA USE32 PUBLIC 'CODE'
_TEXT	ENDS
;	COMDAT ??$_Destroy@UWORMON@@@std@@YAXPAUWORMON@@@Z
_TEXT	SEGMENT PARA USE32 PUBLIC 'CODE'
_TEXT	ENDS
;	COMDAT ??$_Destroy@U__ITEMGAME@CMiniGame@@@std@@YAXPAU__ITEMGAME@CMiniGame@@@Z
_TEXT	SEGMENT PARA USE32 PUBLIC 'CODE'
_TEXT	ENDS
;	COMDAT ??$_Destroy@U__ITEM@CExchange@@@std@@YAXPAU__ITEM@CExchange@@@Z
_TEXT	SEGMENT PARA USE32 PUBLIC 'CODE'
_TEXT	ENDS
;	COMDAT ??$_Destroy@U__POINT@CExchange@@@std@@YAXPAU__POINT@CExchange@@@Z
_TEXT	SEGMENT PARA USE32 PUBLIC 'CODE'
_TEXT	ENDS
;	COMDAT ??$copy@PAEPAE@std@@YAPAEPAE00@Z
_TEXT	SEGMENT PARA USE32 PUBLIC 'CODE'
_TEXT	ENDS
;	COMDAT ??$_Construct@U__SPAWNREGION@CEventLua@@U12@@std@@YAXPAU__SPAWNREGION@CEventLua@@ABU12@@Z
_TEXT	SEGMENT PARA USE32 PUBLIC 'CODE'
_TEXT	ENDS
;	COMDAT ??$_Destroy@U__SPAWNREGION@CEventLua@@@std@@YAXPAU__SPAWNREGION@CEventLua@@@Z
_TEXT	SEGMENT PARA USE32 PUBLIC 'CODE'
_TEXT	ENDS
;	COMDAT ??$_Destroy@UD3DXVECTOR3@@@std@@YAXPAUD3DXVECTOR3@@@Z
_TEXT	SEGMENT PARA USE32 PUBLIC 'CODE'
_TEXT	ENDS
;	COMDAT ??$_Destroy@U_GIFTBOX@@@std@@YAXPAU_GIFTBOX@@@Z
_TEXT	SEGMENT PARA USE32 PUBLIC 'CODE'
_TEXT	ENDS
;	COMDAT ?construct@?$allocator@E@std@@QAEXPAEABE@Z
_TEXT	SEGMENT PARA USE32 PUBLIC 'CODE'
_TEXT	ENDS
;	COMDAT ?destroy@?$allocator@E@std@@QAEXPAE@Z
_TEXT	SEGMENT PARA USE32 PUBLIC 'CODE'
_TEXT	ENDS
;	COMDAT ??Dconst_iterator@?$vector@EV?$allocator@E@std@@@std@@QBEABEXZ
_TEXT	SEGMENT PARA USE32 PUBLIC 'CODE'
_TEXT	ENDS
;	COMDAT ??Econst_iterator@?$vector@EV?$allocator@E@std@@@std@@QAEAAV012@XZ
_TEXT	SEGMENT PARA USE32 PUBLIC 'CODE'
_TEXT	ENDS
;	COMDAT ??$_Insert@Vconst_iterator@?$vector@EV?$allocator@E@std@@@std@@@?$vector@EV?$allocator@E@std@@@std@@QAEXViterator@01@Vconst_iterator@01@1Uforward_iterator_tag@1@@Z
_TEXT	SEGMENT PARA USE32 PUBLIC 'CODE'
_TEXT	ENDS
;	COMDAT ??$_Copy_opt@PAEPAE@std@@YAPAEPAE00U_Scalar_ptr_iterator_tag@0@@Z
_TEXT	SEGMENT PARA USE32 PUBLIC 'CODE'
_TEXT	ENDS
;	COMDAT ??$_Construct@EE@std@@YAXPAEABE@Z
_TEXT	SEGMENT PARA USE32 PUBLIC 'CODE'
_TEXT	ENDS
;	COMDAT ??$_Destroy@E@std@@YAXPAE@Z
_TEXT	SEGMENT PARA USE32 PUBLIC 'CODE'
_TEXT	ENDS
;	COMDAT ?capacity@?$vector@EV?$allocator@E@std@@@std@@QBEIXZ
_TEXT	SEGMENT PARA USE32 PUBLIC 'CODE'
_TEXT	ENDS
;	COMDAT ??Giterator@?$vector@EV?$allocator@E@std@@@std@@QBEHABVconst_iterator@12@@Z
_TEXT	SEGMENT PARA USE32 PUBLIC 'CODE'
_TEXT	ENDS
;	COMDAT ??Gconst_iterator@?$vector@EV?$allocator@E@std@@@std@@QBEHABV012@@Z
_TEXT	SEGMENT PARA USE32 PUBLIC 'CODE'
_TEXT	ENDS
;	COMDAT ??$_Distance@Vconst_iterator@?$vector@EV?$allocator@E@std@@@std@@I@std@@YAXVconst_iterator@?$vector@EV?$allocator@E@std@@@0@0AAI@Z
_TEXT	SEGMENT PARA USE32 PUBLIC 'CODE'
_TEXT	ENDS
;	COMDAT ??$_Ucopy@PAE@?$vector@EV?$allocator@E@std@@@std@@IAEPAEPAE00@Z
_TEXT	SEGMENT PARA USE32 PUBLIC 'CODE'
_TEXT	ENDS
;	COMDAT ??$advance@Vconst_iterator@?$vector@EV?$allocator@E@std@@@std@@H@std@@YAXAAVconst_iterator@?$vector@EV?$allocator@E@std@@@0@H@Z
_TEXT	SEGMENT PARA USE32 PUBLIC 'CODE'
_TEXT	ENDS
;	COMDAT ??$copy@Vconst_iterator@?$vector@EV?$allocator@E@std@@@std@@PAE@std@@YAPAEVconst_iterator@?$vector@EV?$allocator@E@std@@@0@0PAE@Z
_TEXT	SEGMENT PARA USE32 PUBLIC 'CODE'
_TEXT	ENDS
;	COMDAT ??$copy_backward@PAEPAE@std@@YAPAEPAE00@Z
_TEXT	SEGMENT PARA USE32 PUBLIC 'CODE'
_TEXT	ENDS
;	COMDAT ??$_Distance2@Vconst_iterator@?$vector@EV?$allocator@E@std@@@std@@I@std@@YAXVconst_iterator@?$vector@EV?$allocator@E@std@@@0@0AAIUrandom_access_iterator_tag@0@@Z
_TEXT	SEGMENT PARA USE32 PUBLIC 'CODE'
_TEXT	ENDS
;	COMDAT ??$_Uninitialized_copy@PAEPAEV?$allocator@E@std@@@std@@YAPAEPAE00AAV?$allocator@E@0@@Z
_TEXT	SEGMENT PARA USE32 PUBLIC 'CODE'
_TEXT	ENDS
;	COMDAT ??$_Advance@Vconst_iterator@?$vector@EV?$allocator@E@std@@@std@@H@std@@YAXAAVconst_iterator@?$vector@EV?$allocator@E@std@@@0@HUrandom_access_iterator_tag@0@@Z
_TEXT	SEGMENT PARA USE32 PUBLIC 'CODE'
_TEXT	ENDS
;	COMDAT ??$_Copy_opt@Vconst_iterator@?$vector@EV?$allocator@E@std@@@std@@PAE@std@@YAPAEVconst_iterator@?$vector@EV?$allocator@E@std@@@0@0PAEU_Nonscalar_ptr_iterator_tag@0@@Z
_TEXT	SEGMENT PARA USE32 PUBLIC 'CODE'
_TEXT	ENDS
;	COMDAT ??$_Copy_backward_opt@PAEPAE@std@@YAPAEPAE00U_Scalar_ptr_iterator_tag@0@@Z
_TEXT	SEGMENT PARA USE32 PUBLIC 'CODE'
_TEXT	ENDS
;	COMDAT ??Yconst_iterator@?$vector@EV?$allocator@E@std@@@std@@QAEAAV012@H@Z
_TEXT	SEGMENT PARA USE32 PUBLIC 'CODE'
_TEXT	ENDS
;	COMDAT ??$_Uninit_copy@EE@std@@YAPAEPAE00AAV?$allocator@E@0@U_Scalar_ptr_iterator_tag@0@@Z
_TEXT	SEGMENT PARA USE32 PUBLIC 'CODE'
_TEXT	ENDS
;	COMDAT ?Render@CAction@@UAEHPAUIDirect3DDevice9@@PAUD3DXMATRIX@@@Z
_TEXT	SEGMENT PARA USE32 PUBLIC 'CODE'
_TEXT	ENDS
;	COMDAT ?ProcessState@CAction@@UAEXKM@Z
_TEXT	SEGMENT PARA USE32 PUBLIC 'CODE'
_TEXT	ENDS
;	COMDAT ?SendActMsg@CAction@@UAEHW4OBJMSG@@HHHHH@Z
_TEXT	SEGMENT PARA USE32 PUBLIC 'CODE'
_TEXT	ENDS
;	COMDAT ?deallocate@?$allocator@E@std@@QAEXPAEI@Z
_TEXT	SEGMENT PARA USE32 PUBLIC 'CODE'
_TEXT	ENDS
;	COMDAT ??$_Ucopy@Vconst_iterator@?$vector@EV?$allocator@E@std@@@std@@@?$vector@EV?$allocator@E@std@@@std@@IAEPAEVconst_iterator@01@0PAE@Z
_TEXT	SEGMENT PARA USE32 PUBLIC 'CODE'
_TEXT	ENDS
;	COMDAT ?allocate@?$allocator@E@std@@QAEPAEI@Z
_TEXT	SEGMENT PARA USE32 PUBLIC 'CODE'
_TEXT	ENDS
;	COMDAT ??$_Allocate@E@std@@YAPAEIPAE@Z
_TEXT	SEGMENT PARA USE32 PUBLIC 'CODE'
_TEXT	ENDS
;	COMDAT ?_Xlen@?$vector@EV?$allocator@E@std@@@std@@IBEXXZ
_TEXT	SEGMENT PARA USE32 PUBLIC 'CODE'
_TEXT	ENDS
;	COMDAT ??0length_error@std@@QAE@ABV?$basic_string@DU?$char_traits@D@std@@V?$allocator@D@2@@1@@Z
_TEXT	SEGMENT PARA USE32 PUBLIC 'CODE'
_TEXT	ENDS
;	COMDAT ??0logic_error@std@@QAE@ABV?$basic_string@DU?$char_traits@D@std@@V?$allocator@D@2@@1@@Z
_TEXT	SEGMENT PARA USE32 PUBLIC 'CODE'
_TEXT	ENDS
;	COMDAT ??_7logic_error@std@@6B@
CONST	SEGMENT DWORD USE32 PUBLIC 'CONST'
CONST	ENDS
;	COMDAT ??_Glogic_error@std@@UAEPAXI@Z
_TEXT	SEGMENT PARA USE32 PUBLIC 'CODE'
_TEXT	ENDS
;	COMDAT ?what@logic_error@std@@UBEPBDXZ
_TEXT	SEGMENT PARA USE32 PUBLIC 'CODE'
_TEXT	ENDS
;	COMDAT ?c_str@?$basic_string@DU?$char_traits@D@std@@V?$allocator@D@2@@std@@QBEPBDXZ
_TEXT	SEGMENT PARA USE32 PUBLIC 'CODE'
_TEXT	ENDS
;	COMDAT ??0?$basic_string@DU?$char_traits@D@std@@V?$allocator@D@2@@std@@QAE@ABV01@@Z
_TEXT	SEGMENT PARA USE32 PUBLIC 'CODE'
_TEXT	ENDS
;	COMDAT ??0?$_String_val@DV?$allocator@D@std@@@std@@IAE@V?$allocator@D@1@@Z
_TEXT	SEGMENT PARA USE32 PUBLIC 'CODE'
_TEXT	ENDS
;	COMDAT ??0?$allocator@D@std@@QAE@ABV01@@Z
_TEXT	SEGMENT PARA USE32 PUBLIC 'CODE'
_TEXT	ENDS
;	COMDAT ?_Tidy@?$basic_string@DU?$char_traits@D@std@@V?$allocator@D@2@@std@@IAEX_NI@Z
_TEXT	SEGMENT PARA USE32 PUBLIC 'CODE'
_TEXT	ENDS
;	COMDAT ?copy@?$char_traits@D@std@@SAPADPADPBDI@Z
_TEXT	SEGMENT PARA USE32 PUBLIC 'CODE'
_TEXT	ENDS
;	COMDAT ?deallocate@?$allocator@D@std@@QAEXPADI@Z
_TEXT	SEGMENT PARA USE32 PUBLIC 'CODE'
_TEXT	ENDS
;	COMDAT ?_Eos@?$basic_string@DU?$char_traits@D@std@@V?$allocator@D@2@@std@@IAEXI@Z
_TEXT	SEGMENT PARA USE32 PUBLIC 'CODE'
_TEXT	ENDS
;	COMDAT ?assign@?$char_traits@D@std@@SAXAADABD@Z
_TEXT	SEGMENT PARA USE32 PUBLIC 'CODE'
_TEXT	ENDS
;	COMDAT ?_Myptr@?$basic_string@DU?$char_traits@D@std@@V?$allocator@D@2@@std@@QAEPADXZ
_TEXT	SEGMENT PARA USE32 PUBLIC 'CODE'
_TEXT	ENDS
;	COMDAT ?assign@?$basic_string@DU?$char_traits@D@std@@V?$allocator@D@2@@std@@QAEAAV12@ABV12@II@Z
_TEXT	SEGMENT PARA USE32 PUBLIC 'CODE'
_TEXT	ENDS
;	COMDAT ?erase@?$basic_string@DU?$char_traits@D@std@@V?$allocator@D@2@@std@@QAEAAV12@II@Z
_TEXT	SEGMENT PARA USE32 PUBLIC 'CODE'
_TEXT	ENDS
;	COMDAT ?move@?$char_traits@D@std@@SAPADPADPBDI@Z
_TEXT	SEGMENT PARA USE32 PUBLIC 'CODE'
_TEXT	ENDS
;	COMDAT ?_Grow@?$basic_string@DU?$char_traits@D@std@@V?$allocator@D@2@@std@@IAE_NI_N@Z
_TEXT	SEGMENT PARA USE32 PUBLIC 'CODE'
_TEXT	ENDS
;	COMDAT ?max_size@?$basic_string@DU?$char_traits@D@std@@V?$allocator@D@2@@std@@QBEIXZ
_TEXT	SEGMENT PARA USE32 PUBLIC 'CODE'
_TEXT	ENDS
;	COMDAT ?max_size@?$allocator@D@std@@QBEIXZ
_TEXT	SEGMENT PARA USE32 PUBLIC 'CODE'
_TEXT	ENDS
;	COMDAT ?_Copy@?$basic_string@DU?$char_traits@D@std@@V?$allocator@D@2@@std@@IAEXII@Z
_TEXT	SEGMENT PARA USE32 PUBLIC 'CODE'
_TEXT	ENDS
;	COMDAT ?allocate@?$allocator@D@std@@QAEPADI@Z
_TEXT	SEGMENT PARA USE32 PUBLIC 'CODE'
_TEXT	ENDS
;	COMDAT ??$_Allocate@D@std@@YAPADIPAD@Z
_TEXT	SEGMENT PARA USE32 PUBLIC 'CODE'
_TEXT	ENDS
;	COMDAT ?npos@?$basic_string@DU?$char_traits@D@std@@V?$allocator@D@2@@std@@2IB
CONST	SEGMENT DWORD USE32 PUBLIC 'CONST'
CONST	ENDS
;	COMDAT ??1logic_error@std@@UAE@XZ
_TEXT	SEGMENT PARA USE32 PUBLIC 'CODE'
_TEXT	ENDS
;	COMDAT ??_7length_error@std@@6B@
CONST	SEGMENT DWORD USE32 PUBLIC 'CONST'
CONST	ENDS
;	COMDAT ??_Glength_error@std@@UAEPAXI@Z
_TEXT	SEGMENT PARA USE32 PUBLIC 'CODE'
_TEXT	ENDS
;	COMDAT ??1length_error@std@@UAE@XZ
_TEXT	SEGMENT PARA USE32 PUBLIC 'CODE'
_TEXT	ENDS
;	COMDAT ??0?$basic_string@DU?$char_traits@D@std@@V?$allocator@D@2@@std@@QAE@PBD@Z
_TEXT	SEGMENT PARA USE32 PUBLIC 'CODE'
_TEXT	ENDS
;	COMDAT ??0?$allocator@D@std@@QAE@XZ
_TEXT	SEGMENT PARA USE32 PUBLIC 'CODE'
_TEXT	ENDS
;	COMDAT ?assign@?$basic_string@DU?$char_traits@D@std@@V?$allocator@D@2@@std@@QAEAAV12@PBD@Z
_TEXT	SEGMENT PARA USE32 PUBLIC 'CODE'
_TEXT	ENDS
;	COMDAT ?assign@?$basic_string@DU?$char_traits@D@std@@V?$allocator@D@2@@std@@QAEAAV12@PBDI@Z
_TEXT	SEGMENT PARA USE32 PUBLIC 'CODE'
_TEXT	ENDS
;	COMDAT ?_Inside@?$basic_string@DU?$char_traits@D@std@@V?$allocator@D@2@@std@@IAE_NPBD@Z
_TEXT	SEGMENT PARA USE32 PUBLIC 'CODE'
_TEXT	ENDS
;	COMDAT ?length@?$char_traits@D@std@@SAIPBD@Z
_TEXT	SEGMENT PARA USE32 PUBLIC 'CODE'
_TEXT	ENDS
;	COMDAT ??_C@_0BD@OLBABOEK@vector?$DMT?$DO?5too?5long?$AA@
CONST	SEGMENT DWORD USE32 PUBLIC 'CONST'
CONST	ENDS
;	COMDAT ??1?$basic_string@DU?$char_traits@D@std@@V?$allocator@D@2@@std@@QAE@XZ
_TEXT	SEGMENT PARA USE32 PUBLIC 'CODE'
_TEXT	ENDS
;	COMDAT __TI3?AVlength_error@std@@
xdata$x	SEGMENT DWORD USE32 PUBLIC 'CONST'
xdata$x	ENDS
;	COMDAT __CTA3?AVlength_error@std@@
xdata$x	SEGMENT DWORD USE32 PUBLIC 'CONST'
xdata$x	ENDS
;	COMDAT __CT??_R0?AVlength_error@std@@@8??0length_error@std@@QAE@ABV01@@Z40
xdata$x	SEGMENT DWORD USE32 PUBLIC 'CONST'
xdata$x	ENDS
;	COMDAT ??_R0?AVlength_error@std@@@8
_DATA	SEGMENT DWORD USE32 PUBLIC 'DATA'
_DATA	ENDS
;	COMDAT ??0length_error@std@@QAE@ABV01@@Z
_TEXT	SEGMENT PARA USE32 PUBLIC 'CODE'
_TEXT	ENDS
;	COMDAT ??0logic_error@std@@QAE@ABV01@@Z
_TEXT	SEGMENT PARA USE32 PUBLIC 'CODE'
_TEXT	ENDS
;	COMDAT __CT??_R0?AVlogic_error@std@@@8??0logic_error@std@@QAE@ABV01@@Z40
xdata$x	SEGMENT DWORD USE32 PUBLIC 'CONST'
xdata$x	ENDS
;	COMDAT ??_R0?AVlogic_error@std@@@8
_DATA	SEGMENT DWORD USE32 PUBLIC 'DATA'
_DATA	ENDS
;	COMDAT __CT??_R0?AVexception@@@8??0exception@@QAE@ABV0@@Z12
xdata$x	SEGMENT DWORD USE32 PUBLIC 'CONST'
xdata$x	ENDS
;	COMDAT ??_R0?AVexception@@@8
_DATA	SEGMENT DWORD USE32 PUBLIC 'DATA'
_DATA	ENDS
;	COMDAT ?size@?$vector@EV?$allocator@E@std@@@std@@QBEIXZ
_TEXT	SEGMENT PARA USE32 PUBLIC 'CODE'
_TEXT	ENDS
;	COMDAT ?max_size@?$vector@EV?$allocator@E@std@@@std@@QBEIXZ
_TEXT	SEGMENT PARA USE32 PUBLIC 'CODE'
_TEXT	ENDS
;	COMDAT ?max_size@?$allocator@E@std@@QBEIXZ
_TEXT	SEGMENT PARA USE32 PUBLIC 'CODE'
_TEXT	ENDS
;	COMDAT ??2@YAPAXIPAX@Z
_TEXT	SEGMENT PARA USE32 PUBLIC 'CODE'
_TEXT	ENDS
;	COMDAT ?_Ptr_cat@std@@YA?AU_Scalar_ptr_iterator_tag@1@PAE0@Z
_TEXT	SEGMENT PARA USE32 PUBLIC 'CODE'
_TEXT	ENDS
;	COMDAT ??0const_iterator@?$vector@EV?$allocator@E@std@@@std@@QAE@PAE@Z
_TEXT	SEGMENT PARA USE32 PUBLIC 'CODE'
_TEXT	ENDS
;	COMDAT ?_Destroy@?$vector@EV?$allocator@E@std@@@std@@IAEXPAE0@Z
_TEXT	SEGMENT PARA USE32 PUBLIC 'CODE'
_TEXT	ENDS
;	COMDAT ??$_Destroy_range@EV?$allocator@E@std@@@std@@YAXPAE0AAV?$allocator@E@0@@Z
_TEXT	SEGMENT PARA USE32 PUBLIC 'CODE'
_TEXT	ENDS
;	COMDAT ?_Ptr_cat@std@@YA?AU_Scalar_ptr_iterator_tag@1@PAJ0@Z
_TEXT	SEGMENT PARA USE32 PUBLIC 'CODE'
_TEXT	ENDS
;	COMDAT ??9const_iterator@?$_Tree@V?$_Tmap_traits@KEU?$less@K@std@@V?$allocator@U?$pair@$$CBKE@std@@@2@$0A@@std@@@std@@QBE_NABV012@@Z
_TEXT	SEGMENT PARA USE32 PUBLIC 'CODE'
_TEXT	ENDS
;	COMDAT ??8const_iterator@?$_Tree@V?$_Tmap_traits@KEU?$less@K@std@@V?$allocator@U?$pair@$$CBKE@std@@@2@$0A@@std@@@std@@QBE_NABV012@@Z
_TEXT	SEGMENT PARA USE32 PUBLIC 'CODE'
_TEXT	ENDS
;	COMDAT ??Eiterator@?$_Tree@V?$_Tmap_traits@KEU?$less@K@std@@V?$allocator@U?$pair@$$CBKE@std@@@2@$0A@@std@@@std@@QAEAAV012@XZ
_TEXT	SEGMENT PARA USE32 PUBLIC 'CODE'
_TEXT	ENDS
;	COMDAT ??Econst_iterator@?$_Tree@V?$_Tmap_traits@KEU?$less@K@std@@V?$allocator@U?$pair@$$CBKE@std@@@2@$0A@@std@@@std@@QAEAAV012@XZ
_TEXT	SEGMENT PARA USE32 PUBLIC 'CODE'
_TEXT	ENDS
;	COMDAT ?_Inc@const_iterator@?$_Tree@V?$_Tmap_traits@KEU?$less@K@std@@V?$allocator@U?$pair@$$CBKE@std@@@2@$0A@@std@@@std@@QAEXXZ
_TEXT	SEGMENT PARA USE32 PUBLIC 'CODE'
_TEXT	ENDS
;	COMDAT ?_Min@?$_Tree@V?$_Tmap_traits@KEU?$less@K@std@@V?$allocator@U?$pair@$$CBKE@std@@@2@$0A@@std@@@std@@KAPAU_Node@?$_Tree_nod@V?$_Tmap_traits@KEU?$less@K@std@@V?$allocator@U?$pair@$$CBKE@std@@@2@$0A@@std@@@2@PAU342@@Z
_TEXT	SEGMENT PARA USE32 PUBLIC 'CODE'
_TEXT	ENDS
;	COMDAT ?_Left@?$_Tree@V?$_Tmap_traits@KEU?$less@K@std@@V?$allocator@U?$pair@$$CBKE@std@@@2@$0A@@std@@@std@@KAAAPAU_Node@?$_Tree_nod@V?$_Tmap_traits@KEU?$less@K@std@@V?$allocator@U?$pair@$$CBKE@std@@@2@$0A@@std@@@2@PAU342@@Z
_TEXT	SEGMENT PARA USE32 PUBLIC 'CODE'
_TEXT	ENDS
;	COMDAT ?_Isnil@?$_Tree@V?$_Tmap_traits@KEU?$less@K@std@@V?$allocator@U?$pair@$$CBKE@std@@@2@$0A@@std@@@std@@KAAADPAU_Node@?$_Tree_nod@V?$_Tmap_traits@KEU?$less@K@std@@V?$allocator@U?$pair@$$CBKE@std@@@2@$0A@@std@@@2@@Z
_TEXT	SEGMENT PARA USE32 PUBLIC 'CODE'
_TEXT	ENDS
;	COMDAT ?_Parent@?$_Tree@V?$_Tmap_traits@KEU?$less@K@std@@V?$allocator@U?$pair@$$CBKE@std@@@2@$0A@@std@@@std@@KAAAPAU_Node@?$_Tree_nod@V?$_Tmap_traits@KEU?$less@K@std@@V?$allocator@U?$pair@$$CBKE@std@@@2@$0A@@std@@@2@PAU342@@Z
_TEXT	SEGMENT PARA USE32 PUBLIC 'CODE'
_TEXT	ENDS
;	COMDAT ?_Right@?$_Tree@V?$_Tmap_traits@KEU?$less@K@std@@V?$allocator@U?$pair@$$CBKE@std@@@2@$0A@@std@@@std@@KAAAPAU_Node@?$_Tree_nod@V?$_Tmap_traits@KEU?$less@K@std@@V?$allocator@U?$pair@$$CBKE@std@@@2@$0A@@std@@@2@PAU342@@Z
_TEXT	SEGMENT PARA USE32 PUBLIC 'CODE'
_TEXT	ENDS
;	COMDAT ??9const_iterator@?$_Tree@V?$_Tmap_traits@KPAVCCtrl@@U?$less@K@std@@V?$allocator@U?$pair@$$CBKPAVCCtrl@@@std@@@3@$0A@@std@@@std@@QBE_NABV012@@Z
_TEXT	SEGMENT PARA USE32 PUBLIC 'CODE'
_TEXT	ENDS
;	COMDAT ??8const_iterator@?$_Tree@V?$_Tmap_traits@KPAVCCtrl@@U?$less@K@std@@V?$allocator@U?$pair@$$CBKPAVCCtrl@@@std@@@3@$0A@@std@@@std@@QBE_NABV012@@Z
_TEXT	SEGMENT PARA USE32 PUBLIC 'CODE'
_TEXT	ENDS
;	COMDAT ??Eiterator@?$_Tree@V?$_Tmap_traits@KPAVCCtrl@@U?$less@K@std@@V?$allocator@U?$pair@$$CBKPAVCCtrl@@@std@@@3@$0A@@std@@@std@@QAEAAV012@XZ
_TEXT	SEGMENT PARA USE32 PUBLIC 'CODE'
_TEXT	ENDS
;	COMDAT ??Econst_iterator@?$_Tree@V?$_Tmap_traits@KPAVCCtrl@@U?$less@K@std@@V?$allocator@U?$pair@$$CBKPAVCCtrl@@@std@@@3@$0A@@std@@@std@@QAEAAV012@XZ
_TEXT	SEGMENT PARA USE32 PUBLIC 'CODE'
_TEXT	ENDS
;	COMDAT ?_Inc@const_iterator@?$_Tree@V?$_Tmap_traits@KPAVCCtrl@@U?$less@K@std@@V?$allocator@U?$pair@$$CBKPAVCCtrl@@@std@@@3@$0A@@std@@@std@@QAEXXZ
_TEXT	SEGMENT PARA USE32 PUBLIC 'CODE'
_TEXT	ENDS
;	COMDAT ?_Min@?$_Tree@V?$_Tmap_traits@KPAVCCtrl@@U?$less@K@std@@V?$allocator@U?$pair@$$CBKPAVCCtrl@@@std@@@3@$0A@@std@@@std@@KAPAU_Node@?$_Tree_nod@V?$_Tmap_traits@KPAVCCtrl@@U?$less@K@std@@V?$allocator@U?$pair@$$CBKPAVCCtrl@@@std@@@3@$0A@@std@@@2@PAU342@@Z
_TEXT	SEGMENT PARA USE32 PUBLIC 'CODE'
_TEXT	ENDS
;	COMDAT ?_Left@?$_Tree@V?$_Tmap_traits@KPAVCCtrl@@U?$less@K@std@@V?$allocator@U?$pair@$$CBKPAVCCtrl@@@std@@@3@$0A@@std@@@std@@KAAAPAU_Node@?$_Tree_nod@V?$_Tmap_traits@KPAVCCtrl@@U?$less@K@std@@V?$allocator@U?$pair@$$CBKPAVCCtrl@@@std@@@3@$0A@@std@@@2@PAU342@@Z
_TEXT	SEGMENT PARA USE32 PUBLIC 'CODE'
_TEXT	ENDS
;	COMDAT ?_Isnil@?$_Tree@V?$_Tmap_traits@KPAVCCtrl@@U?$less@K@std@@V?$allocator@U?$pair@$$CBKPAVCCtrl@@@std@@@3@$0A@@std@@@std@@KAAADPAU_Node@?$_Tree_nod@V?$_Tmap_traits@KPAVCCtrl@@U?$less@K@std@@V?$allocator@U?$pair@$$CBKPAVCCtrl@@@std@@@3@$0A@@std@@@2@@Z
_TEXT	SEGMENT PARA USE32 PUBLIC 'CODE'
_TEXT	ENDS
;	COMDAT ?_Parent@?$_Tree@V?$_Tmap_traits@KPAVCCtrl@@U?$less@K@std@@V?$allocator@U?$pair@$$CBKPAVCCtrl@@@std@@@3@$0A@@std@@@std@@KAAAPAU_Node@?$_Tree_nod@V?$_Tmap_traits@KPAVCCtrl@@U?$less@K@std@@V?$allocator@U?$pair@$$CBKPAVCCtrl@@@std@@@3@$0A@@std@@@2@PAU342@@Z
_TEXT	SEGMENT PARA USE32 PUBLIC 'CODE'
_TEXT	ENDS
;	COMDAT ?_Right@?$_Tree@V?$_Tmap_traits@KPAVCCtrl@@U?$less@K@std@@V?$allocator@U?$pair@$$CBKPAVCCtrl@@@std@@@3@$0A@@std@@@std@@KAAAPAU_Node@?$_Tree_nod@V?$_Tmap_traits@KPAVCCtrl@@U?$less@K@std@@V?$allocator@U?$pair@$$CBKPAVCCtrl@@@std@@@3@$0A@@std@@@2@PAU342@@Z
_TEXT	SEGMENT PARA USE32 PUBLIC 'CODE'
_TEXT	ENDS
;	COMDAT ??9const_iterator@?$_Tree@V?$_Tmap_traits@KPAVCUser@@U?$less@K@std@@V?$allocator@U?$pair@$$CBKPAVCUser@@@std@@@3@$0A@@std@@@std@@QBE_NABV012@@Z
_TEXT	SEGMENT PARA USE32 PUBLIC 'CODE'
_TEXT	ENDS
;	COMDAT ??8const_iterator@?$_Tree@V?$_Tmap_traits@KPAVCUser@@U?$less@K@std@@V?$allocator@U?$pair@$$CBKPAVCUser@@@std@@@3@$0A@@std@@@std@@QBE_NABV012@@Z
_TEXT	SEGMENT PARA USE32 PUBLIC 'CODE'
_TEXT	ENDS
;	COMDAT ??Eiterator@?$_Tree@V?$_Tmap_traits@KPAVCUser@@U?$less@K@std@@V?$allocator@U?$pair@$$CBKPAVCUser@@@std@@@3@$0A@@std@@@std@@QAEAAV012@XZ
_TEXT	SEGMENT PARA USE32 PUBLIC 'CODE'
_TEXT	ENDS
;	COMDAT ??Econst_iterator@?$_Tree@V?$_Tmap_traits@KPAVCUser@@U?$less@K@std@@V?$allocator@U?$pair@$$CBKPAVCUser@@@std@@@3@$0A@@std@@@std@@QAEAAV012@XZ
_TEXT	SEGMENT PARA USE32 PUBLIC 'CODE'
_TEXT	ENDS
;	COMDAT ?_Inc@const_iterator@?$_Tree@V?$_Tmap_traits@KPAVCUser@@U?$less@K@std@@V?$allocator@U?$pair@$$CBKPAVCUser@@@std@@@3@$0A@@std@@@std@@QAEXXZ
_TEXT	SEGMENT PARA USE32 PUBLIC 'CODE'
_TEXT	ENDS
;	COMDAT ?_Min@?$_Tree@V?$_Tmap_traits@KPAVCUser@@U?$less@K@std@@V?$allocator@U?$pair@$$CBKPAVCUser@@@std@@@3@$0A@@std@@@std@@KAPAU_Node@?$_Tree_nod@V?$_Tmap_traits@KPAVCUser@@U?$less@K@std@@V?$allocator@U?$pair@$$CBKPAVCUser@@@std@@@3@$0A@@std@@@2@PAU342@@Z
_TEXT	SEGMENT PARA USE32 PUBLIC 'CODE'
_TEXT	ENDS
;	COMDAT ?_Left@?$_Tree@V?$_Tmap_traits@KPAVCUser@@U?$less@K@std@@V?$allocator@U?$pair@$$CBKPAVCUser@@@std@@@3@$0A@@std@@@std@@KAAAPAU_Node@?$_Tree_nod@V?$_Tmap_traits@KPAVCUser@@U?$less@K@std@@V?$allocator@U?$pair@$$CBKPAVCUser@@@std@@@3@$0A@@std@@@2@PAU342@@Z
_TEXT	SEGMENT PARA USE32 PUBLIC 'CODE'
_TEXT	ENDS
;	COMDAT ?_Isnil@?$_Tree@V?$_Tmap_traits@KPAVCUser@@U?$less@K@std@@V?$allocator@U?$pair@$$CBKPAVCUser@@@std@@@3@$0A@@std@@@std@@KAAADPAU_Node@?$_Tree_nod@V?$_Tmap_traits@KPAVCUser@@U?$less@K@std@@V?$allocator@U?$pair@$$CBKPAVCUser@@@std@@@3@$0A@@std@@@2@@Z
_TEXT	SEGMENT PARA USE32 PUBLIC 'CODE'
_TEXT	ENDS
;	COMDAT ?_Parent@?$_Tree@V?$_Tmap_traits@KPAVCUser@@U?$less@K@std@@V?$allocator@U?$pair@$$CBKPAVCUser@@@std@@@3@$0A@@std@@@std@@KAAAPAU_Node@?$_Tree_nod@V?$_Tmap_traits@KPAVCUser@@U?$less@K@std@@V?$allocator@U?$pair@$$CBKPAVCUser@@@std@@@3@$0A@@std@@@2@PAU342@@Z
_TEXT	SEGMENT PARA USE32 PUBLIC 'CODE'
_TEXT	ENDS
;	COMDAT ?_Right@?$_Tree@V?$_Tmap_traits@KPAVCUser@@U?$less@K@std@@V?$allocator@U?$pair@$$CBKPAVCUser@@@std@@@3@$0A@@std@@@std@@KAAAPAU_Node@?$_Tree_nod@V?$_Tmap_traits@KPAVCUser@@U?$less@K@std@@V?$allocator@U?$pair@$$CBKPAVCUser@@@std@@@3@$0A@@std@@@2@PAU342@@Z
_TEXT	SEGMENT PARA USE32 PUBLIC 'CODE'
_TEXT	ENDS
;	COMDAT ?_Psave@?$_Facetptr@V?$ctype@G@std@@@std@@2PBVfacet@locale@2@B
_DATA	SEGMENT DWORD USE32 PUBLIC 'DATA'
_DATA	ENDS
;	COMDAT ?_Psave@?$_Facetptr@V?$ctype@D@std@@@std@@2PBVfacet@locale@2@B
_DATA	SEGMENT DWORD USE32 PUBLIC 'DATA'
_DATA	ENDS
;	COMDAT ?compare@?$char_traits@D@std@@SAHPBD0I@Z
_TEXT	SEGMENT PARA USE32 PUBLIC 'CODE'
_TEXT	ENDS
;	COMDAT ?_Myptr@?$basic_string@DU?$char_traits@D@std@@V?$allocator@D@2@@std@@QBEPBDXZ
_TEXT	SEGMENT PARA USE32 PUBLIC 'CODE'
_TEXT	ENDS
;	COMDAT ?size@?$basic_string@DU?$char_traits@D@std@@V?$allocator@D@2@@std@@QBEIXZ
_TEXT	SEGMENT PARA USE32 PUBLIC 'CODE'
_TEXT	ENDS
;	COMDAT ?IsAtkMsgEmpty@CAction@@AAEHXZ
_TEXT	SEGMENT PARA USE32 PUBLIC 'CODE'
_TEXT	ENDS
;	COMDAT ?IsEmpty@?$CActMsgq@UtagACTMSG@@@@QAEHXZ
_TEXT	SEGMENT PARA USE32 PUBLIC 'CODE'
_TEXT	ENDS
;	COMDAT ?IsEmpty@?$CActMsgq@UtagMAGICATKMSG@@@@QAEHXZ
_TEXT	SEGMENT PARA USE32 PUBLIC 'CODE'
_TEXT	ENDS
;	COMDAT ?IsFly@CMover@@QAEHXZ
_TEXT	SEGMENT PARA USE32 PUBLIC 'CODE'
_TEXT	ENDS
;	COMDAT ?IsFly@CAction@@QAEHXZ
_TEXT	SEGMENT PARA USE32 PUBLIC 'CODE'
_TEXT	ENDS
;	COMDAT ?IsPlayer@CMover@@QAEHXZ
_TEXT	SEGMENT PARA USE32 PUBLIC 'CODE'
_TEXT	ENDS
;	COMDAT ?GetWorld@CObj@@QAEPAVCWorld@@XZ
_TEXT	SEGMENT PARA USE32 PUBLIC 'CODE'
_TEXT	ENDS
;	COMDAT ?GetMover@CAction@@QAEPAVCMover@@XZ
_TEXT	SEGMENT PARA USE32 PUBLIC 'CODE'
_TEXT	ENDS
;	COMDAT ??1CMagicAtkMsgq@@UAE@XZ
_TEXT	SEGMENT PARA USE32 PUBLIC 'CODE'
_TEXT	ENDS
;	COMDAT ??_7CMagicAtkMsgq@@6B@
CONST	SEGMENT DWORD USE32 PUBLIC 'CONST'
CONST	ENDS
;	COMDAT ??_GCMagicAtkMsgq@@UAEPAXI@Z
_TEXT	SEGMENT PARA USE32 PUBLIC 'CODE'
_TEXT	ENDS
;	COMDAT ??1?$CActMsgq@UtagMAGICATKMSG@@@@UAE@XZ
_TEXT	SEGMENT PARA USE32 PUBLIC 'CODE'
_TEXT	ENDS
;	COMDAT ??_7?$CActMsgq@UtagMAGICATKMSG@@@@6B@
CONST	SEGMENT DWORD USE32 PUBLIC 'CONST'
CONST	ENDS
;	COMDAT ??_G?$CActMsgq@UtagMAGICATKMSG@@@@UAEPAXI@Z
_TEXT	SEGMENT PARA USE32 PUBLIC 'CODE'
_TEXT	ENDS
;	COMDAT ??0CMagicAtkMsgq@@QAE@XZ
_TEXT	SEGMENT PARA USE32 PUBLIC 'CODE'
_TEXT	ENDS
;	COMDAT ??0?$CActMsgq@UtagMAGICATKMSG@@@@QAE@XZ
_TEXT	SEGMENT PARA USE32 PUBLIC 'CODE'
_TEXT	ENDS
;	COMDAT ??1CMeleeAtkMsgq@@UAE@XZ
_TEXT	SEGMENT PARA USE32 PUBLIC 'CODE'
_TEXT	ENDS
;	COMDAT ??_7CMeleeAtkMsgq@@6B@
CONST	SEGMENT DWORD USE32 PUBLIC 'CONST'
CONST	ENDS
;	COMDAT ??_GCMeleeAtkMsgq@@UAEPAXI@Z
_TEXT	SEGMENT PARA USE32 PUBLIC 'CODE'
_TEXT	ENDS
;	COMDAT ??1?$CActMsgq@UtagACTMSG@@@@UAE@XZ
_TEXT	SEGMENT PARA USE32 PUBLIC 'CODE'
_TEXT	ENDS
;	COMDAT ??_7?$CActMsgq@UtagACTMSG@@@@6B@
CONST	SEGMENT DWORD USE32 PUBLIC 'CONST'
CONST	ENDS
;	COMDAT ??_G?$CActMsgq@UtagACTMSG@@@@UAEPAXI@Z
_TEXT	SEGMENT PARA USE32 PUBLIC 'CODE'
_TEXT	ENDS
;	COMDAT ??0CMeleeAtkMsgq@@QAE@XZ
_TEXT	SEGMENT PARA USE32 PUBLIC 'CODE'
_TEXT	ENDS
;	COMDAT ??0?$CActMsgq@UtagACTMSG@@@@QAE@XZ
_TEXT	SEGMENT PARA USE32 PUBLIC 'CODE'
_TEXT	ENDS
;	COMDAT ??_7CAction@@6B@
CONST	SEGMENT DWORD USE32 PUBLIC 'CONST'
CONST	ENDS
sxdata	SEGMENT DWORD USE32 'SXDATA'
sxdata	ENDS
FLAT	GROUP _DATA, CONST, _BSS
	ASSUME	CS: FLAT, DS: FLAT, SS: FLAT
endif

INCLUDELIB LIBCMT
INCLUDELIB OLDNAMES

PUBLIC	?Init@CAction@@QAEXXZ				; CAction::Init
; Function compile flags: /Ogty
; File c:\documents and settings\test\mes documents\source\virtuos_v17\build\program\_aiinterface\action.cpp
;	COMDAT ?Init@CAction@@QAEXXZ
_TEXT	SEGMENT
?Init@CAction@@QAEXXZ PROC NEAR				; CAction::Init, COMDAT
; _this$ = ecx

; 24   : 	m_pMover		= NULL;

  00000	33 c0		 xor	 eax, eax
  00002	89 41 0c	 mov	 DWORD PTR [ecx+12], eax

; 25   : 	m_dwState		= 0;

  00005	89 41 04	 mov	 DWORD PTR [ecx+4], eax

; 26   : 	m_dwStateFlag	= 0;

  00008	89 41 08	 mov	 DWORD PTR [ecx+8], eax

; 27   : }

  0000b	c3		 ret	 0
?Init@CAction@@QAEXXZ ENDP				; CAction::Init
_TEXT	ENDS
PUBLIC	?AddStateFlag@CAction@@QAEXK@Z			; CAction::AddStateFlag
; Function compile flags: /Ogty
;	COMDAT ?AddStateFlag@CAction@@QAEXK@Z
_TEXT	SEGMENT
_dwFlag$ = 8						; size = 4
?AddStateFlag@CAction@@QAEXK@Z PROC NEAR		; CAction::AddStateFlag, COMDAT
; _this$ = ecx

; 31   : #ifdef __BS_EFFECT_LUA
; 32   : 	//상태가 추가될 경우 최초인경우에 효과를 발생시킨다.
; 33   : 	if( dwFlag & OBJSTAF_COMBAT && !IsStateFlag( OBJSTAF_COMBAT ) )	
; 34   : 	{
; 35   : 		// 만약 전투상태로 처음 돌입하는거라면 상태별 효과를 호출한다. 일단 npc류만 
; 36   : 		if( m_pMover->IsNPC( ) )
; 37   : 			run_lua_sfx( OBJSTAF_COMBAT, m_pMover->GetId(), m_pMover->GetNameO3D() );
; 38   : 	}
; 39   : #endif //__BS_EFFECT_LUA
; 40   : 	m_dwStateFlag |= dwFlag; 

  00000	8b 51 08	 mov	 edx, DWORD PTR [ecx+8]
  00003	8b 44 24 04	 mov	 eax, DWORD PTR _dwFlag$[esp-4]
  00007	0b d0		 or	 edx, eax
  00009	89 51 08	 mov	 DWORD PTR [ecx+8], edx

; 41   : }

  0000c	c2 04 00	 ret	 4
?AddStateFlag@CAction@@QAEXK@Z ENDP			; CAction::AddStateFlag
_TEXT	ENDS
PUBLIC	?RemoveStateFlag@CAction@@QAEXK@Z		; CAction::RemoveStateFlag
; Function compile flags: /Ogty
;	COMDAT ?RemoveStateFlag@CAction@@QAEXK@Z
_TEXT	SEGMENT
_dwFlag$ = 8						; size = 4
?RemoveStateFlag@CAction@@QAEXK@Z PROC NEAR		; CAction::RemoveStateFlag, COMDAT
; _this$ = ecx

; 45   : #ifdef __BS_EFFECT_LUA
; 46   : 	// 상태가 해제될경우 lua에서 호출한 모든 상태효과를 해제한다.
; 47   : 	if( dwFlag & OBJSTAF_COMBAT )
; 48   : 	{
; 49   : 		//전투 상태효과 해제
; 50   : 		CSfxModelMng::GetThis()->SubData( m_pMover->GetId(), OBJSTAF_COMBAT );
; 51   : 	}
; 52   : #endif //__BS_EFFECT_LUA
; 53   : 	m_dwStateFlag &= (~dwFlag);

  00000	8b 44 24 04	 mov	 eax, DWORD PTR _dwFlag$[esp-4]
  00004	8b 51 08	 mov	 edx, DWORD PTR [ecx+8]
  00007	f7 d0		 not	 eax
  00009	23 d0		 and	 edx, eax
  0000b	89 51 08	 mov	 DWORD PTR [ecx+8], edx

; 54   : }

  0000e	c2 04 00	 ret	 4
?RemoveStateFlag@CAction@@QAEXK@Z ENDP			; CAction::RemoveStateFlag
_TEXT	ENDS
PUBLIC	?OnEndMoveState@CAction@@QAEXXZ			; CAction::OnEndMoveState
; Function compile flags: /Ogty
;	COMDAT ?OnEndMoveState@CAction@@QAEXXZ
_TEXT	SEGMENT
?OnEndMoveState@CAction@@QAEXXZ PROC NEAR		; CAction::OnEndMoveState, COMDAT
; _this$ = ecx

; 71   : 	// 이곳에 그외 필요한 코드를 넣으셈.
; 72   : 	switch( m_dwState & OBJSTA_MOVE_ALL )

  00000	80 79 04 03	 cmp	 BYTE PTR [ecx+4], 3
  00004	75 04		 jne	 SHORT $L225634

; 73   : 	{
; 74   : 	case OBJSTA_SIT:		// 착지 동작 중.
; 75   : 		m_dwStateFlag &= (~OBJSTAF_SIT);

  00006	83 61 08 fb	 and	 DWORD PTR [ecx+8], -5	; fffffffbH
$L225634:

; 76   : 		break;
; 77   : 	}	
; 78   : }

  0000a	c3		 ret	 0
?OnEndMoveState@CAction@@QAEXXZ ENDP			; CAction::OnEndMoveState
_TEXT	ENDS
PUBLIC	?OnEndTurnState@CAction@@QAEXXZ			; CAction::OnEndTurnState
; Function compile flags: /Ogty
;	COMDAT ?OnEndTurnState@CAction@@QAEXXZ
_TEXT	SEGMENT
?OnEndTurnState@CAction@@QAEXXZ PROC NEAR		; CAction::OnEndTurnState, COMDAT
; _this$ = ecx

; 82   : 	// 이곳에 그외 필요한 코드를 넣으셈.
; 83   : }

  00000	c3		 ret	 0
?OnEndTurnState@CAction@@QAEXXZ ENDP			; CAction::OnEndTurnState
_TEXT	ENDS
PUBLIC	?OnEndLookState@CAction@@QAEXXZ			; CAction::OnEndLookState
; Function compile flags: /Ogty
;	COMDAT ?OnEndLookState@CAction@@QAEXXZ
_TEXT	SEGMENT
?OnEndLookState@CAction@@QAEXXZ PROC NEAR		; CAction::OnEndLookState, COMDAT
; _this$ = ecx

; 87   : 	// 이곳에 그외 필요한 코드를 넣으셈.
; 88   : }

  00000	c3		 ret	 0
?OnEndLookState@CAction@@QAEXXZ ENDP			; CAction::OnEndLookState
_TEXT	ENDS
PUBLIC	?OnEndJumpState@CAction@@QAEXK@Z		; CAction::OnEndJumpState
EXTRN	?OnActEndJump4@CMover@@QAEXXZ:NEAR		; CMover::OnActEndJump4
; Function compile flags: /Ogty
;	COMDAT ?OnEndJumpState@CAction@@QAEXK@Z
_TEXT	SEGMENT
_dwState$ = 8						; size = 4
?OnEndJumpState@CAction@@QAEXK@Z PROC NEAR		; CAction::OnEndJumpState, COMDAT
; _this$ = ecx

; 92   : 	// 이곳에 그외 필요한 코드를 넣으셈.
; 93   : 	switch( dwState & OBJSTA_JUMP_ALL )

  00000	8b 44 24 04	 mov	 eax, DWORD PTR _dwState$[esp-4]
  00004	25 00 f0 00 00	 and	 eax, 61440		; 0000f000H
  00009	3d 00 80 00 00	 cmp	 eax, 32768		; 00008000H
  0000e	75 08		 jne	 SHORT $L225651

; 94   : 	{
; 95   : 	case OBJSTA_SJUMP4:		// 착지 동작 중.
; 96   : 		m_pMover->OnActEndJump4();

  00010	8b 49 0c	 mov	 ecx, DWORD PTR [ecx+12]
  00013	e8 00 00 00 00	 call	 ?OnActEndJump4@CMover@@QAEXXZ ; CMover::OnActEndJump4
$L225651:

; 97   : 		break;
; 98   : 	}
; 99   : }

  00018	c2 04 00	 ret	 4
?OnEndJumpState@CAction@@QAEXK@Z ENDP			; CAction::OnEndJumpState
_TEXT	ENDS
PUBLIC	?OnEndDamageState@CAction@@QAEXXZ		; CAction::OnEndDamageState
; Function compile flags: /Ogty
;	COMDAT ?OnEndDamageState@CAction@@QAEXXZ
_TEXT	SEGMENT
?OnEndDamageState@CAction@@QAEXXZ PROC NEAR		; CAction::OnEndDamageState, COMDAT
; _this$ = ecx

; 139  : 	// 이곳에 그외 필요한 코드를 넣으셈.
; 140  : }

  00000	c3		 ret	 0
?OnEndDamageState@CAction@@QAEXXZ ENDP			; CAction::OnEndDamageState
_TEXT	ENDS
PUBLIC	?OnEndActionState@CAction@@QAEXXZ		; CAction::OnEndActionState
; Function compile flags: /Ogty
;	COMDAT ?OnEndActionState@CAction@@QAEXXZ
_TEXT	SEGMENT
?OnEndActionState@CAction@@QAEXXZ PROC NEAR		; CAction::OnEndActionState, COMDAT
; _this$ = ecx

; 144  : 	// 이곳에 그외 필요한 코드를 넣으셈.
; 145  : }

  00000	c3		 ret	 0
?OnEndActionState@CAction@@QAEXXZ ENDP			; CAction::OnEndActionState
_TEXT	ENDS
PUBLIC	?empty@?$deque@PAUtagACTMSG@@V?$allocator@PAUtagACTMSG@@@std@@@std@@QBE_NXZ ; std::deque<tagACTMSG *,std::allocator<tagACTMSG *> >::empty
; Function compile flags: /Ogty
; File c:\program files\microsoft visual studio .net 2003\vc7\include\deque
;	COMDAT ?empty@?$deque@PAUtagACTMSG@@V?$allocator@PAUtagACTMSG@@@std@@@std@@QBE_NXZ
_TEXT	SEGMENT
?empty@?$deque@PAUtagACTMSG@@V?$allocator@PAUtagACTMSG@@@std@@@std@@QBE_NXZ PROC NEAR ; std::deque<tagACTMSG *,std::allocator<tagACTMSG *> >::empty, COMDAT
; _this$ = ecx

; 502  : 		return (_Mysize == 0);

  00000	8b 51 10	 mov	 edx, DWORD PTR [ecx+16]
  00003	33 c0		 xor	 eax, eax
  00005	85 d2		 test	 edx, edx
  00007	0f 94 c0	 sete	 al

; 503  : 		}

  0000a	c3		 ret	 0
?empty@?$deque@PAUtagACTMSG@@V?$allocator@PAUtagACTMSG@@@std@@@std@@QBE_NXZ ENDP ; std::deque<tagACTMSG *,std::allocator<tagACTMSG *> >::empty
_TEXT	ENDS
PUBLIC	?empty@?$deque@PAUtagMAGICATKMSG@@V?$allocator@PAUtagMAGICATKMSG@@@std@@@std@@QBE_NXZ ; std::deque<tagMAGICATKMSG *,std::allocator<tagMAGICATKMSG *> >::empty
; Function compile flags: /Ogty
;	COMDAT ?empty@?$deque@PAUtagMAGICATKMSG@@V?$allocator@PAUtagMAGICATKMSG@@@std@@@std@@QBE_NXZ
_TEXT	SEGMENT
?empty@?$deque@PAUtagMAGICATKMSG@@V?$allocator@PAUtagMAGICATKMSG@@@std@@@std@@QBE_NXZ PROC NEAR ; std::deque<tagMAGICATKMSG *,std::allocator<tagMAGICATKMSG *> >::empty, COMDAT
; _this$ = ecx

; 502  : 		return (_Mysize == 0);

  00000	8b 51 10	 mov	 edx, DWORD PTR [ecx+16]
  00003	33 c0		 xor	 eax, eax
  00005	85 d2		 test	 edx, edx
  00007	0f 94 c0	 sete	 al

; 503  : 		}

  0000a	c3		 ret	 0
?empty@?$deque@PAUtagMAGICATKMSG@@V?$allocator@PAUtagMAGICATKMSG@@@std@@@std@@QBE_NXZ ENDP ; std::deque<tagMAGICATKMSG *,std::allocator<tagMAGICATKMSG *> >::empty
_TEXT	ENDS
PUBLIC	??Eiterator@?$deque@PAUtagACTMSG@@V?$allocator@PAUtagACTMSG@@@std@@@std@@QAEAAV012@XZ ; std::deque<tagACTMSG *,std::allocator<tagACTMSG *> >::iterator::operator++
; Function compile flags: /Ogty
;	COMDAT ??Eiterator@?$deque@PAUtagACTMSG@@V?$allocator@PAUtagACTMSG@@@std@@@std@@QAEAAV012@XZ
_TEXT	SEGMENT
??Eiterator@?$deque@PAUtagACTMSG@@V?$allocator@PAUtagACTMSG@@@std@@@std@@QAEAAV012@XZ PROC NEAR ; std::deque<tagACTMSG *,std::allocator<tagACTMSG *> >::iterator::operator++, COMDAT
; _this$ = ecx

; 256  : 			{	// preincrement

  00000	8b c1		 mov	 eax, ecx

; 257  : 			++this->_Myoff;

  00002	ff 40 04	 inc	 DWORD PTR [eax+4]

; 258  : 			return (*this);
; 259  : 			}

  00005	c3		 ret	 0
??Eiterator@?$deque@PAUtagACTMSG@@V?$allocator@PAUtagACTMSG@@@std@@@std@@QAEAAV012@XZ ENDP ; std::deque<tagACTMSG *,std::allocator<tagACTMSG *> >::iterator::operator++
_TEXT	ENDS
PUBLIC	??Eiterator@?$deque@PAUtagMAGICATKMSG@@V?$allocator@PAUtagMAGICATKMSG@@@std@@@std@@QAEAAV012@XZ ; std::deque<tagMAGICATKMSG *,std::allocator<tagMAGICATKMSG *> >::iterator::operator++
; Function compile flags: /Ogty
;	COMDAT ??Eiterator@?$deque@PAUtagMAGICATKMSG@@V?$allocator@PAUtagMAGICATKMSG@@@std@@@std@@QAEAAV012@XZ
_TEXT	SEGMENT
??Eiterator@?$deque@PAUtagMAGICATKMSG@@V?$allocator@PAUtagMAGICATKMSG@@@std@@@std@@QAEAAV012@XZ PROC NEAR ; std::deque<tagMAGICATKMSG *,std::allocator<tagMAGICATKMSG *> >::iterator::operator++, COMDAT
; _this$ = ecx

; 256  : 			{	// preincrement

  00000	8b c1		 mov	 eax, ecx

; 257  : 			++this->_Myoff;

  00002	ff 40 04	 inc	 DWORD PTR [eax+4]

; 258  : 			return (*this);
; 259  : 			}

  00005	c3		 ret	 0
??Eiterator@?$deque@PAUtagMAGICATKMSG@@V?$allocator@PAUtagMAGICATKMSG@@@std@@@std@@QAEAAV012@XZ ENDP ; std::deque<tagMAGICATKMSG *,std::allocator<tagMAGICATKMSG *> >::iterator::operator++
_TEXT	ENDS
PUBLIC	??0?$allocator@PAUtagACTMSG@@@std@@QAE@XZ	; std::allocator<tagACTMSG *>::allocator<tagACTMSG *>
; Function compile flags: /Ogty
; File c:\program files\microsoft visual studio .net 2003\vc7\include\xmemory
;	COMDAT ??0?$allocator@PAUtagACTMSG@@@std@@QAE@XZ
_TEXT	SEGMENT
??0?$allocator@PAUtagACTMSG@@@std@@QAE@XZ PROC NEAR	; std::allocator<tagACTMSG *>::allocator<tagACTMSG *>, COMDAT
; _this$ = ecx

; 111  : 	allocator()

  00000	8b c1		 mov	 eax, ecx

; 112  : 		{	// construct default allocator (do nothing)
; 113  : 		}

  00002	c3		 ret	 0
??0?$allocator@PAUtagACTMSG@@@std@@QAE@XZ ENDP		; std::allocator<tagACTMSG *>::allocator<tagACTMSG *>
_TEXT	ENDS
PUBLIC	??0?$allocator@PAUtagMAGICATKMSG@@@std@@QAE@XZ	; std::allocator<tagMAGICATKMSG *>::allocator<tagMAGICATKMSG *>
; Function compile flags: /Ogty
;	COMDAT ??0?$allocator@PAUtagMAGICATKMSG@@@std@@QAE@XZ
_TEXT	SEGMENT
??0?$allocator@PAUtagMAGICATKMSG@@@std@@QAE@XZ PROC NEAR ; std::allocator<tagMAGICATKMSG *>::allocator<tagMAGICATKMSG *>, COMDAT
; _this$ = ecx

; 111  : 	allocator()

  00000	8b c1		 mov	 eax, ecx

; 112  : 		{	// construct default allocator (do nothing)
; 113  : 		}

  00002	c3		 ret	 0
??0?$allocator@PAUtagMAGICATKMSG@@@std@@QAE@XZ ENDP	; std::allocator<tagMAGICATKMSG *>::allocator<tagMAGICATKMSG *>
_TEXT	ENDS
PUBLIC	??Dconst_iterator@?$deque@PAUtagACTMSG@@V?$allocator@PAUtagACTMSG@@@std@@@std@@QBEABQAUtagACTMSG@@XZ ; std::deque<tagACTMSG *,std::allocator<tagACTMSG *> >::const_iterator::operator*
; Function compile flags: /Ogty
; File c:\program files\microsoft visual studio .net 2003\vc7\include\deque
;	COMDAT ??Dconst_iterator@?$deque@PAUtagACTMSG@@V?$allocator@PAUtagACTMSG@@@std@@@std@@QBEABQAUtagACTMSG@@XZ
_TEXT	SEGMENT
??Dconst_iterator@?$deque@PAUtagACTMSG@@V?$allocator@PAUtagACTMSG@@@std@@@std@@QBEABQAUtagACTMSG@@XZ PROC NEAR ; std::deque<tagACTMSG *,std::allocator<tagACTMSG *> >::const_iterator::operator*, COMDAT
; _this$ = ecx

; 109  : 			size_type _Block = _Myoff / _DEQUESIZ;

  00000	8b 51 04	 mov	 edx, DWORD PTR [ecx+4]

; 110  : 			size_type _Off = _Myoff - _Block * _DEQUESIZ;
; 111  : 			if (_Mycont->_Mapsize <= _Block)

  00003	8b 09		 mov	 ecx, DWORD PTR [ecx]
  00005	8b c2		 mov	 eax, edx
  00007	c1 e8 02	 shr	 eax, 2
  0000a	56		 push	 esi
  0000b	8d 34 85 00 00
	00 00		 lea	 esi, DWORD PTR [eax*4]
  00012	2b d6		 sub	 edx, esi
  00014	8b 71 08	 mov	 esi, DWORD PTR [ecx+8]
  00017	3b f0		 cmp	 esi, eax
  00019	77 02		 ja	 SHORT $L225807

; 112  : 				_Block -= _Mycont->_Mapsize;

  0001b	2b c6		 sub	 eax, esi
$L225807:

; 113  : 			return ((_Mycont->_Map)[_Block][_Off]);

  0001d	8b 49 04	 mov	 ecx, DWORD PTR [ecx+4]
  00020	8b 04 81	 mov	 eax, DWORD PTR [ecx+eax*4]
  00023	8d 04 90	 lea	 eax, DWORD PTR [eax+edx*4]
  00026	5e		 pop	 esi

; 114  : 			}

  00027	c3		 ret	 0
??Dconst_iterator@?$deque@PAUtagACTMSG@@V?$allocator@PAUtagACTMSG@@@std@@@std@@QBEABQAUtagACTMSG@@XZ ENDP ; std::deque<tagACTMSG *,std::allocator<tagACTMSG *> >::const_iterator::operator*
_TEXT	ENDS
PUBLIC	??8const_iterator@?$deque@PAUtagACTMSG@@V?$allocator@PAUtagACTMSG@@@std@@@std@@QBE_NABV012@@Z ; std::deque<tagACTMSG *,std::allocator<tagACTMSG *> >::const_iterator::operator==
; Function compile flags: /Ogty
;	COMDAT ??8const_iterator@?$deque@PAUtagACTMSG@@V?$allocator@PAUtagACTMSG@@@std@@@std@@QBE_NABV012@@Z
_TEXT	SEGMENT
__Right$ = 8						; size = 4
??8const_iterator@?$deque@PAUtagACTMSG@@V?$allocator@PAUtagACTMSG@@@std@@@std@@QBE_NABV012@@Z PROC NEAR ; std::deque<tagACTMSG *,std::allocator<tagACTMSG *> >::const_iterator::operator==, COMDAT
; _this$ = ecx

; 183  : 			return (_Mycont == _Right._Mycont && _Myoff == _Right._Myoff);

  00000	8b 44 24 04	 mov	 eax, DWORD PTR __Right$[esp-4]
  00004	8b 11		 mov	 edx, DWORD PTR [ecx]
  00006	3b 10		 cmp	 edx, DWORD PTR [eax]
  00008	75 10		 jne	 SHORT $L226968
  0000a	8b 49 04	 mov	 ecx, DWORD PTR [ecx+4]
  0000d	3b 48 04	 cmp	 ecx, DWORD PTR [eax+4]
  00010	75 08		 jne	 SHORT $L226968
  00012	b8 01 00 00 00	 mov	 eax, 1

; 184  : 			}

  00017	c2 04 00	 ret	 4
$L226968:

; 183  : 			return (_Mycont == _Right._Mycont && _Myoff == _Right._Myoff);

  0001a	33 c0		 xor	 eax, eax

; 184  : 			}

  0001c	c2 04 00	 ret	 4
??8const_iterator@?$deque@PAUtagACTMSG@@V?$allocator@PAUtagACTMSG@@@std@@@std@@QBE_NABV012@@Z ENDP ; std::deque<tagACTMSG *,std::allocator<tagACTMSG *> >::const_iterator::operator==
_TEXT	ENDS
PUBLIC	??Dconst_iterator@?$deque@PAUtagMAGICATKMSG@@V?$allocator@PAUtagMAGICATKMSG@@@std@@@std@@QBEABQAUtagMAGICATKMSG@@XZ ; std::deque<tagMAGICATKMSG *,std::allocator<tagMAGICATKMSG *> >::const_iterator::operator*
; Function compile flags: /Ogty
;	COMDAT ??Dconst_iterator@?$deque@PAUtagMAGICATKMSG@@V?$allocator@PAUtagMAGICATKMSG@@@std@@@std@@QBEABQAUtagMAGICATKMSG@@XZ
_TEXT	SEGMENT
??Dconst_iterator@?$deque@PAUtagMAGICATKMSG@@V?$allocator@PAUtagMAGICATKMSG@@@std@@@std@@QBEABQAUtagMAGICATKMSG@@XZ PROC NEAR ; std::deque<tagMAGICATKMSG *,std::allocator<tagMAGICATKMSG *> >::const_iterator::operator*, COMDAT
; _this$ = ecx

; 109  : 			size_type _Block = _Myoff / _DEQUESIZ;

  00000	8b 51 04	 mov	 edx, DWORD PTR [ecx+4]

; 110  : 			size_type _Off = _Myoff - _Block * _DEQUESIZ;
; 111  : 			if (_Mycont->_Mapsize <= _Block)

  00003	8b 09		 mov	 ecx, DWORD PTR [ecx]
  00005	8b c2		 mov	 eax, edx
  00007	c1 e8 02	 shr	 eax, 2
  0000a	56		 push	 esi
  0000b	8d 34 85 00 00
	00 00		 lea	 esi, DWORD PTR [eax*4]
  00012	2b d6		 sub	 edx, esi
  00014	8b 71 08	 mov	 esi, DWORD PTR [ecx+8]
  00017	3b f0		 cmp	 esi, eax
  00019	77 02		 ja	 SHORT $L225816

; 112  : 				_Block -= _Mycont->_Mapsize;

  0001b	2b c6		 sub	 eax, esi
$L225816:

; 113  : 			return ((_Mycont->_Map)[_Block][_Off]);

  0001d	8b 49 04	 mov	 ecx, DWORD PTR [ecx+4]
  00020	8b 04 81	 mov	 eax, DWORD PTR [ecx+eax*4]
  00023	8d 04 90	 lea	 eax, DWORD PTR [eax+edx*4]
  00026	5e		 pop	 esi

; 114  : 			}

  00027	c3		 ret	 0
??Dconst_iterator@?$deque@PAUtagMAGICATKMSG@@V?$allocator@PAUtagMAGICATKMSG@@@std@@@std@@QBEABQAUtagMAGICATKMSG@@XZ ENDP ; std::deque<tagMAGICATKMSG *,std::allocator<tagMAGICATKMSG *> >::const_iterator::operator*
_TEXT	ENDS
PUBLIC	??8const_iterator@?$deque@PAUtagMAGICATKMSG@@V?$allocator@PAUtagMAGICATKMSG@@@std@@@std@@QBE_NABV012@@Z ; std::deque<tagMAGICATKMSG *,std::allocator<tagMAGICATKMSG *> >::const_iterator::operator==
; Function compile flags: /Ogty
;	COMDAT ??8const_iterator@?$deque@PAUtagMAGICATKMSG@@V?$allocator@PAUtagMAGICATKMSG@@@std@@@std@@QBE_NABV012@@Z
_TEXT	SEGMENT
__Right$ = 8						; size = 4
??8const_iterator@?$deque@PAUtagMAGICATKMSG@@V?$allocator@PAUtagMAGICATKMSG@@@std@@@std@@QBE_NABV012@@Z PROC NEAR ; std::deque<tagMAGICATKMSG *,std::allocator<tagMAGICATKMSG *> >::const_iterator::operator==, COMDAT
; _this$ = ecx

; 183  : 			return (_Mycont == _Right._Mycont && _Myoff == _Right._Myoff);

  00000	8b 44 24 04	 mov	 eax, DWORD PTR __Right$[esp-4]
  00004	8b 11		 mov	 edx, DWORD PTR [ecx]
  00006	3b 10		 cmp	 edx, DWORD PTR [eax]
  00008	75 10		 jne	 SHORT $L226976
  0000a	8b 49 04	 mov	 ecx, DWORD PTR [ecx+4]
  0000d	3b 48 04	 cmp	 ecx, DWORD PTR [eax+4]
  00010	75 08		 jne	 SHORT $L226976
  00012	b8 01 00 00 00	 mov	 eax, 1

; 184  : 			}

  00017	c2 04 00	 ret	 4
$L226976:

; 183  : 			return (_Mycont == _Right._Mycont && _Myoff == _Right._Myoff);

  0001a	33 c0		 xor	 eax, eax

; 184  : 			}

  0001c	c2 04 00	 ret	 4
??8const_iterator@?$deque@PAUtagMAGICATKMSG@@V?$allocator@PAUtagMAGICATKMSG@@@std@@@std@@QBE_NABV012@@Z ENDP ; std::deque<tagMAGICATKMSG *,std::allocator<tagMAGICATKMSG *> >::const_iterator::operator==
_TEXT	ENDS
PUBLIC	??0?$allocator@PAUtagACTMSG@@@std@@QAE@ABV01@@Z	; std::allocator<tagACTMSG *>::allocator<tagACTMSG *>
; Function compile flags: /Ogty
; File c:\program files\microsoft visual studio .net 2003\vc7\include\xmemory
;	COMDAT ??0?$allocator@PAUtagACTMSG@@@std@@QAE@ABV01@@Z
_TEXT	SEGMENT
___formal$ = 8						; size = 4
??0?$allocator@PAUtagACTMSG@@@std@@QAE@ABV01@@Z PROC NEAR ; std::allocator<tagACTMSG *>::allocator<tagACTMSG *>, COMDAT
; _this$ = ecx

; 115  : 	allocator(const allocator<_Ty>&)

  00000	8b c1		 mov	 eax, ecx

; 116  : 		{	// construct by copying (do nothing)
; 117  : 		}

  00002	c2 04 00	 ret	 4
??0?$allocator@PAUtagACTMSG@@@std@@QAE@ABV01@@Z ENDP	; std::allocator<tagACTMSG *>::allocator<tagACTMSG *>
_TEXT	ENDS
PUBLIC	?deallocate@?$allocator@PAUtagACTMSG@@@std@@QAEXPAPAUtagACTMSG@@I@Z ; std::allocator<tagACTMSG *>::deallocate
EXTRN	??3@YAXPAX@Z:NEAR				; operator delete
; Function compile flags: /Ogty
;	COMDAT ?deallocate@?$allocator@PAUtagACTMSG@@@std@@QAEXPAPAUtagACTMSG@@I@Z
_TEXT	SEGMENT
__Ptr$ = 8						; size = 4
___formal$ = 12						; size = 4
?deallocate@?$allocator@PAUtagACTMSG@@@std@@QAEXPAPAUtagACTMSG@@I@Z PROC NEAR ; std::allocator<tagACTMSG *>::deallocate, COMDAT
; _this$ = ecx

; 132  : 		operator delete(_Ptr);

  00000	8b 44 24 04	 mov	 eax, DWORD PTR __Ptr$[esp-4]
  00004	50		 push	 eax
  00005	e8 00 00 00 00	 call	 ??3@YAXPAX@Z		; operator delete
  0000a	59		 pop	 ecx

; 133  : 		}

  0000b	c2 08 00	 ret	 8
?deallocate@?$allocator@PAUtagACTMSG@@@std@@QAEXPAPAUtagACTMSG@@I@Z ENDP ; std::allocator<tagACTMSG *>::deallocate
_TEXT	ENDS
PUBLIC	?deallocate@?$allocator@PAPAUtagACTMSG@@@std@@QAEXPAPAPAUtagACTMSG@@I@Z ; std::allocator<tagACTMSG * *>::deallocate
; Function compile flags: /Ogty
;	COMDAT ?deallocate@?$allocator@PAPAUtagACTMSG@@@std@@QAEXPAPAPAUtagACTMSG@@I@Z
_TEXT	SEGMENT
__Ptr$ = 8						; size = 4
___formal$ = 12						; size = 4
?deallocate@?$allocator@PAPAUtagACTMSG@@@std@@QAEXPAPAPAUtagACTMSG@@I@Z PROC NEAR ; std::allocator<tagACTMSG * *>::deallocate, COMDAT
; _this$ = ecx

; 132  : 		operator delete(_Ptr);

  00000	8b 44 24 04	 mov	 eax, DWORD PTR __Ptr$[esp-4]
  00004	50		 push	 eax
  00005	e8 00 00 00 00	 call	 ??3@YAXPAX@Z		; operator delete
  0000a	59		 pop	 ecx

; 133  : 		}

  0000b	c2 08 00	 ret	 8
?deallocate@?$allocator@PAPAUtagACTMSG@@@std@@QAEXPAPAPAUtagACTMSG@@I@Z ENDP ; std::allocator<tagACTMSG * *>::deallocate
_TEXT	ENDS
PUBLIC	??0?$allocator@PAUtagMAGICATKMSG@@@std@@QAE@ABV01@@Z ; std::allocator<tagMAGICATKMSG *>::allocator<tagMAGICATKMSG *>
; Function compile flags: /Ogty
;	COMDAT ??0?$allocator@PAUtagMAGICATKMSG@@@std@@QAE@ABV01@@Z
_TEXT	SEGMENT
___formal$ = 8						; size = 4
??0?$allocator@PAUtagMAGICATKMSG@@@std@@QAE@ABV01@@Z PROC NEAR ; std::allocator<tagMAGICATKMSG *>::allocator<tagMAGICATKMSG *>, COMDAT
; _this$ = ecx

; 115  : 	allocator(const allocator<_Ty>&)

  00000	8b c1		 mov	 eax, ecx

; 116  : 		{	// construct by copying (do nothing)
; 117  : 		}

  00002	c2 04 00	 ret	 4
??0?$allocator@PAUtagMAGICATKMSG@@@std@@QAE@ABV01@@Z ENDP ; std::allocator<tagMAGICATKMSG *>::allocator<tagMAGICATKMSG *>
_TEXT	ENDS
PUBLIC	?deallocate@?$allocator@PAUtagMAGICATKMSG@@@std@@QAEXPAPAUtagMAGICATKMSG@@I@Z ; std::allocator<tagMAGICATKMSG *>::deallocate
; Function compile flags: /Ogty
;	COMDAT ?deallocate@?$allocator@PAUtagMAGICATKMSG@@@std@@QAEXPAPAUtagMAGICATKMSG@@I@Z
_TEXT	SEGMENT
__Ptr$ = 8						; size = 4
___formal$ = 12						; size = 4
?deallocate@?$allocator@PAUtagMAGICATKMSG@@@std@@QAEXPAPAUtagMAGICATKMSG@@I@Z PROC NEAR ; std::allocator<tagMAGICATKMSG *>::deallocate, COMDAT
; _this$ = ecx

; 132  : 		operator delete(_Ptr);

  00000	8b 44 24 04	 mov	 eax, DWORD PTR __Ptr$[esp-4]
  00004	50		 push	 eax
  00005	e8 00 00 00 00	 call	 ??3@YAXPAX@Z		; operator delete
  0000a	59		 pop	 ecx

; 133  : 		}

  0000b	c2 08 00	 ret	 8
?deallocate@?$allocator@PAUtagMAGICATKMSG@@@std@@QAEXPAPAUtagMAGICATKMSG@@I@Z ENDP ; std::allocator<tagMAGICATKMSG *>::deallocate
_TEXT	ENDS
PUBLIC	?deallocate@?$allocator@PAPAUtagMAGICATKMSG@@@std@@QAEXPAPAPAUtagMAGICATKMSG@@I@Z ; std::allocator<tagMAGICATKMSG * *>::deallocate
; Function compile flags: /Ogty
;	COMDAT ?deallocate@?$allocator@PAPAUtagMAGICATKMSG@@@std@@QAEXPAPAPAUtagMAGICATKMSG@@I@Z
_TEXT	SEGMENT
__Ptr$ = 8						; size = 4
___formal$ = 12						; size = 4
?deallocate@?$allocator@PAPAUtagMAGICATKMSG@@@std@@QAEXPAPAPAUtagMAGICATKMSG@@I@Z PROC NEAR ; std::allocator<tagMAGICATKMSG * *>::deallocate, COMDAT
; _this$ = ecx

; 132  : 		operator delete(_Ptr);

  00000	8b 44 24 04	 mov	 eax, DWORD PTR __Ptr$[esp-4]
  00004	50		 push	 eax
  00005	e8 00 00 00 00	 call	 ??3@YAXPAX@Z		; operator delete
  0000a	59		 pop	 ecx

; 133  : 		}

  0000b	c2 08 00	 ret	 8
?deallocate@?$allocator@PAPAUtagMAGICATKMSG@@@std@@QAEXPAPAPAUtagMAGICATKMSG@@I@Z ENDP ; std::allocator<tagMAGICATKMSG * *>::deallocate
_TEXT	ENDS
PUBLIC	??0const_iterator@?$deque@PAUtagACTMSG@@V?$allocator@PAUtagACTMSG@@@std@@@std@@QAE@IPBV12@@Z ; std::deque<tagACTMSG *,std::allocator<tagACTMSG *> >::const_iterator::const_iterator
; Function compile flags: /Ogty
; File c:\program files\microsoft visual studio .net 2003\vc7\include\deque
;	COMDAT ??0const_iterator@?$deque@PAUtagACTMSG@@V?$allocator@PAUtagACTMSG@@@std@@@std@@QAE@IPBV12@@Z
_TEXT	SEGMENT
__Off$ = 8						; size = 4
__Pdeque$ = 12						; size = 4
??0const_iterator@?$deque@PAUtagACTMSG@@V?$allocator@PAUtagACTMSG@@@std@@@std@@QAE@IPBV12@@Z PROC NEAR ; std::deque<tagACTMSG *,std::allocator<tagACTMSG *> >::const_iterator::const_iterator, COMDAT
; _this$ = ecx

; 102  : 			{	// construct with offset _Off in *_Pdeque
; 103  : 			_Mycont = _Pdeque;
; 104  : 			_Myoff = _Off;

  00000	8b 54 24 04	 mov	 edx, DWORD PTR __Off$[esp-4]
  00004	8b c1		 mov	 eax, ecx
  00006	8b 4c 24 08	 mov	 ecx, DWORD PTR __Pdeque$[esp-4]
  0000a	89 08		 mov	 DWORD PTR [eax], ecx
  0000c	89 50 04	 mov	 DWORD PTR [eax+4], edx

; 105  : 			}

  0000f	c2 08 00	 ret	 8
??0const_iterator@?$deque@PAUtagACTMSG@@V?$allocator@PAUtagACTMSG@@@std@@@std@@QAE@IPBV12@@Z ENDP ; std::deque<tagACTMSG *,std::allocator<tagACTMSG *> >::const_iterator::const_iterator
_TEXT	ENDS
PUBLIC	??0const_iterator@?$deque@PAUtagMAGICATKMSG@@V?$allocator@PAUtagMAGICATKMSG@@@std@@@std@@QAE@IPBV12@@Z ; std::deque<tagMAGICATKMSG *,std::allocator<tagMAGICATKMSG *> >::const_iterator::const_iterator
; Function compile flags: /Ogty
;	COMDAT ??0const_iterator@?$deque@PAUtagMAGICATKMSG@@V?$allocator@PAUtagMAGICATKMSG@@@std@@@std@@QAE@IPBV12@@Z
_TEXT	SEGMENT
__Off$ = 8						; size = 4
__Pdeque$ = 12						; size = 4
??0const_iterator@?$deque@PAUtagMAGICATKMSG@@V?$allocator@PAUtagMAGICATKMSG@@@std@@@std@@QAE@IPBV12@@Z PROC NEAR ; std::deque<tagMAGICATKMSG *,std::allocator<tagMAGICATKMSG *> >::const_iterator::const_iterator, COMDAT
; _this$ = ecx

; 102  : 			{	// construct with offset _Off in *_Pdeque
; 103  : 			_Mycont = _Pdeque;
; 104  : 			_Myoff = _Off;

  00000	8b 54 24 04	 mov	 edx, DWORD PTR __Off$[esp-4]
  00004	8b c1		 mov	 eax, ecx
  00006	8b 4c 24 08	 mov	 ecx, DWORD PTR __Pdeque$[esp-4]
  0000a	89 08		 mov	 DWORD PTR [eax], ecx
  0000c	89 50 04	 mov	 DWORD PTR [eax+4], edx

; 105  : 			}

  0000f	c2 08 00	 ret	 8
??0const_iterator@?$deque@PAUtagMAGICATKMSG@@V?$allocator@PAUtagMAGICATKMSG@@@std@@@std@@QAE@IPBV12@@Z ENDP ; std::deque<tagMAGICATKMSG *,std::allocator<tagMAGICATKMSG *> >::const_iterator::const_iterator
_TEXT	ENDS
PUBLIC	??$?0PAUtagACTMSG@@@?$allocator@PAPAUtagACTMSG@@@std@@QAE@ABV?$allocator@PAUtagACTMSG@@@1@@Z ; std::allocator<tagACTMSG * *>::allocator<tagACTMSG * *><tagACTMSG *>
; Function compile flags: /Ogty
; File c:\program files\microsoft visual studio .net 2003\vc7\include\xmemory
;	COMDAT ??$?0PAUtagACTMSG@@@?$allocator@PAPAUtagACTMSG@@@std@@QAE@ABV?$allocator@PAUtagACTMSG@@@1@@Z
_TEXT	SEGMENT
___formal$ = 8						; size = 4
??$?0PAUtagACTMSG@@@?$allocator@PAPAUtagACTMSG@@@std@@QAE@ABV?$allocator@PAUtagACTMSG@@@1@@Z PROC NEAR ; std::allocator<tagACTMSG * *>::allocator<tagACTMSG * *><tagACTMSG *>, COMDAT
; _this$ = ecx

; 120  : 		allocator(const allocator<_Other>&)

  00000	8b c1		 mov	 eax, ecx

; 121  : 		{	// construct from a related allocator (do nothing)
; 122  : 		}

  00002	c2 04 00	 ret	 4
??$?0PAUtagACTMSG@@@?$allocator@PAPAUtagACTMSG@@@std@@QAE@ABV?$allocator@PAUtagACTMSG@@@1@@Z ENDP ; std::allocator<tagACTMSG * *>::allocator<tagACTMSG * *><tagACTMSG *>
_TEXT	ENDS
PUBLIC	??$_Destroy@PAPAUtagACTMSG@@@std@@YAXPAPAPAUtagACTMSG@@@Z ; std::_Destroy<tagACTMSG * *>
; Function compile flags: /Ogty
;	COMDAT ??$_Destroy@PAPAUtagACTMSG@@@std@@YAXPAPAPAUtagACTMSG@@@Z
_TEXT	SEGMENT
__Ptr$ = 8						; size = 4
??$_Destroy@PAPAUtagACTMSG@@@std@@YAXPAPAPAUtagACTMSG@@@Z PROC NEAR ; std::_Destroy<tagACTMSG * *>, COMDAT

; 49   : 	_DESTRUCTOR(_Ty, _Ptr);
; 50   : 	}

  00000	c3		 ret	 0
??$_Destroy@PAPAUtagACTMSG@@@std@@YAXPAPAPAUtagACTMSG@@@Z ENDP ; std::_Destroy<tagACTMSG * *>
_TEXT	ENDS
PUBLIC	??$?0PAUtagMAGICATKMSG@@@?$allocator@PAPAUtagMAGICATKMSG@@@std@@QAE@ABV?$allocator@PAUtagMAGICATKMSG@@@1@@Z ; std::allocator<tagMAGICATKMSG * *>::allocator<tagMAGICATKMSG * *><tagMAGICATKMSG *>
; Function compile flags: /Ogty
;	COMDAT ??$?0PAUtagMAGICATKMSG@@@?$allocator@PAPAUtagMAGICATKMSG@@@std@@QAE@ABV?$allocator@PAUtagMAGICATKMSG@@@1@@Z
_TEXT	SEGMENT
___formal$ = 8						; size = 4
??$?0PAUtagMAGICATKMSG@@@?$allocator@PAPAUtagMAGICATKMSG@@@std@@QAE@ABV?$allocator@PAUtagMAGICATKMSG@@@1@@Z PROC NEAR ; std::allocator<tagMAGICATKMSG * *>::allocator<tagMAGICATKMSG * *><tagMAGICATKMSG *>, COMDAT
; _this$ = ecx

; 120  : 		allocator(const allocator<_Other>&)

  00000	8b c1		 mov	 eax, ecx

; 121  : 		{	// construct from a related allocator (do nothing)
; 122  : 		}

  00002	c2 04 00	 ret	 4
??$?0PAUtagMAGICATKMSG@@@?$allocator@PAPAUtagMAGICATKMSG@@@std@@QAE@ABV?$allocator@PAUtagMAGICATKMSG@@@1@@Z ENDP ; std::allocator<tagMAGICATKMSG * *>::allocator<tagMAGICATKMSG * *><tagMAGICATKMSG *>
_TEXT	ENDS
PUBLIC	??$_Destroy@PAPAUtagMAGICATKMSG@@@std@@YAXPAPAPAUtagMAGICATKMSG@@@Z ; std::_Destroy<tagMAGICATKMSG * *>
; Function compile flags: /Ogty
;	COMDAT ??$_Destroy@PAPAUtagMAGICATKMSG@@@std@@YAXPAPAPAUtagMAGICATKMSG@@@Z
_TEXT	SEGMENT
__Ptr$ = 8						; size = 4
??$_Destroy@PAPAUtagMAGICATKMSG@@@std@@YAXPAPAPAUtagMAGICATKMSG@@@Z PROC NEAR ; std::_Destroy<tagMAGICATKMSG * *>, COMDAT

; 49   : 	_DESTRUCTOR(_Ty, _Ptr);
; 50   : 	}

  00000	c3		 ret	 0
??$_Destroy@PAPAUtagMAGICATKMSG@@@std@@YAXPAPAPAUtagMAGICATKMSG@@@Z ENDP ; std::_Destroy<tagMAGICATKMSG * *>
_TEXT	ENDS
PUBLIC	??$_Destroy@PAUtagACTMSG@@@std@@YAXPAPAUtagACTMSG@@@Z ; std::_Destroy<tagACTMSG *>
; Function compile flags: /Ogty
;	COMDAT ??$_Destroy@PAUtagACTMSG@@@std@@YAXPAPAUtagACTMSG@@@Z
_TEXT	SEGMENT
__Ptr$ = 8						; size = 4
??$_Destroy@PAUtagACTMSG@@@std@@YAXPAPAUtagACTMSG@@@Z PROC NEAR ; std::_Destroy<tagACTMSG *>, COMDAT

; 49   : 	_DESTRUCTOR(_Ty, _Ptr);
; 50   : 	}

  00000	c3		 ret	 0
??$_Destroy@PAUtagACTMSG@@@std@@YAXPAPAUtagACTMSG@@@Z ENDP ; std::_Destroy<tagACTMSG *>
_TEXT	ENDS
PUBLIC	??$_Destroy@PAUtagMAGICATKMSG@@@std@@YAXPAPAUtagMAGICATKMSG@@@Z ; std::_Destroy<tagMAGICATKMSG *>
; Function compile flags: /Ogty
;	COMDAT ??$_Destroy@PAUtagMAGICATKMSG@@@std@@YAXPAPAUtagMAGICATKMSG@@@Z
_TEXT	SEGMENT
__Ptr$ = 8						; size = 4
??$_Destroy@PAUtagMAGICATKMSG@@@std@@YAXPAPAUtagMAGICATKMSG@@@Z PROC NEAR ; std::_Destroy<tagMAGICATKMSG *>, COMDAT

; 49   : 	_DESTRUCTOR(_Ty, _Ptr);
; 50   : 	}

  00000	c3		 ret	 0
??$_Destroy@PAUtagMAGICATKMSG@@@std@@YAXPAPAUtagMAGICATKMSG@@@Z ENDP ; std::_Destroy<tagMAGICATKMSG *>
_TEXT	ENDS
PUBLIC	?GetWorld@CObj@@QAEPAVCWorld@@XZ		; CObj::GetWorld
; Function compile flags: /Ogty
; File c:\documents and settings\test\mes documents\source\virtuos_v17\build\program\_common\obj.h
;	COMDAT ?GetWorld@CObj@@QAEPAVCWorld@@XZ
_TEXT	SEGMENT
?GetWorld@CObj@@QAEPAVCWorld@@XZ PROC NEAR		; CObj::GetWorld, COMDAT
; _this$ = ecx

; 221  : 	CWorld*			GetWorld()	{ return m_pWorld; }

  00000	8b 81 6c 01 00
	00		 mov	 eax, DWORD PTR [ecx+364]
  00006	c3		 ret	 0
?GetWorld@CObj@@QAEPAVCWorld@@XZ ENDP			; CObj::GetWorld
_TEXT	ENDS
PUBLIC	?GetMover@CAction@@QAEPAVCMover@@XZ		; CAction::GetMover
; Function compile flags: /Ogty
; File c:\documents and settings\test\mes documents\source\virtuos_v17\build\program\_aiinterface\action.h
;	COMDAT ?GetMover@CAction@@QAEPAVCMover@@XZ
_TEXT	SEGMENT
?GetMover@CAction@@QAEPAVCMover@@XZ PROC NEAR		; CAction::GetMover, COMDAT
; _this$ = ecx

; 279  : 	CMover*			GetMover() { return m_pMover; }

  00000	8b 41 0c	 mov	 eax, DWORD PTR [ecx+12]
  00003	c3		 ret	 0
?GetMover@CAction@@QAEPAVCMover@@XZ ENDP		; CAction::GetMover
_TEXT	ENDS
PUBLIC	?IsFly@CAction@@QAEHXZ				; CAction::IsFly
; Function compile flags: /Ogty
;	COMDAT ?IsFly@CAction@@QAEHXZ
_TEXT	SEGMENT
?IsFly@CAction@@QAEHXZ PROC NEAR			; CAction::IsFly, COMDAT
; _this$ = ecx

; 309  : 	BOOL			IsFly() { return (m_dwStateFlag & OBJSTAF_FLY) ? TRUE : FALSE; }

  00000	8b 41 08	 mov	 eax, DWORD PTR [ecx+8]
  00003	c1 e8 03	 shr	 eax, 3
  00006	83 e0 01	 and	 eax, 1
  00009	c3		 ret	 0
?IsFly@CAction@@QAEHXZ ENDP				; CAction::IsFly
_TEXT	ENDS
PUBLIC	?IsPlayer@CMover@@QAEHXZ			; CMover::IsPlayer
; Function compile flags: /Ogty
; File c:\documents and settings\test\mes documents\source\virtuos_v17\build\program\_common\mover.h
;	COMDAT ?IsPlayer@CMover@@QAEHXZ
_TEXT	SEGMENT
?IsPlayer@CMover@@QAEHXZ PROC NEAR			; CMover::IsPlayer, COMDAT
; _this$ = ecx

; 1042 : 	BOOL			IsPlayer()			{ return m_bPlayer; }

  00000	8b 81 34 02 00
	00		 mov	 eax, DWORD PTR [ecx+564]
  00006	c3		 ret	 0
?IsPlayer@CMover@@QAEHXZ ENDP				; CMover::IsPlayer
_TEXT	ENDS
PUBLIC	?IsFly@CMover@@QAEHXZ				; CMover::IsFly
; Function compile flags: /Ogty
;	COMDAT ?IsFly@CMover@@QAEHXZ
_TEXT	SEGMENT
?IsFly@CMover@@QAEHXZ PROC NEAR				; CMover::IsFly, COMDAT
; _this$ = ecx

; 1787 : #ifdef _DEBUG
; 1788 : 	if( IsNPC() )
; 1789 : 	{
; 1790 : 		Error( _T( "CMover::IsFly : NPC는 IsFly()를 사용하면 안된다. IsFlyingNPC()를 사용하셔! %s" ), m_szName );
; 1791 : 		return FALSE;
; 1792 : 	}
; 1793 : #endif
; 1794 : 	return m_pActMover->IsFly();

  00000	8b 81 3c 02 00
	00		 mov	 eax, DWORD PTR [ecx+572]
  00006	8b 40 08	 mov	 eax, DWORD PTR [eax+8]
  00009	c1 e8 03	 shr	 eax, 3
  0000c	83 e0 01	 and	 eax, 1

; 1795 : }

  0000f	c3		 ret	 0
?IsFly@CMover@@QAEHXZ ENDP				; CMover::IsFly
_TEXT	ENDS
PUBLIC	?IsEmpty@?$CActMsgq@UtagACTMSG@@@@QAEHXZ	; CActMsgq<tagACTMSG>::IsEmpty
; Function compile flags: /Ogty
; File c:\documents and settings\test\mes documents\source\virtuos_v17\build\program\_aiinterface\action.h
;	COMDAT ?IsEmpty@?$CActMsgq@UtagACTMSG@@@@QAEHXZ
_TEXT	SEGMENT
?IsEmpty@?$CActMsgq@UtagACTMSG@@@@QAEHXZ PROC NEAR	; CActMsgq<tagACTMSG>::IsEmpty, COMDAT
; _this$ = ecx

; 120  : 	return m_qpam.empty();

  00000	8b 41 14	 mov	 eax, DWORD PTR [ecx+20]
  00003	85 c0		 test	 eax, eax
  00005	0f 94 c0	 sete	 al
  00008	0f b6 c0	 movzx	 eax, al

; 121  : }

  0000b	c3		 ret	 0
?IsEmpty@?$CActMsgq@UtagACTMSG@@@@QAEHXZ ENDP		; CActMsgq<tagACTMSG>::IsEmpty
_TEXT	ENDS
PUBLIC	?IsEmpty@?$CActMsgq@UtagMAGICATKMSG@@@@QAEHXZ	; CActMsgq<tagMAGICATKMSG>::IsEmpty
; Function compile flags: /Ogty
;	COMDAT ?IsEmpty@?$CActMsgq@UtagMAGICATKMSG@@@@QAEHXZ
_TEXT	SEGMENT
?IsEmpty@?$CActMsgq@UtagMAGICATKMSG@@@@QAEHXZ PROC NEAR	; CActMsgq<tagMAGICATKMSG>::IsEmpty, COMDAT
; _this$ = ecx

; 120  : 	return m_qpam.empty();

  00000	8b 41 14	 mov	 eax, DWORD PTR [ecx+20]
  00003	85 c0		 test	 eax, eax
  00005	0f 94 c0	 sete	 al
  00008	0f b6 c0	 movzx	 eax, al

; 121  : }

  0000b	c3		 ret	 0
?IsEmpty@?$CActMsgq@UtagMAGICATKMSG@@@@QAEHXZ ENDP	; CActMsgq<tagMAGICATKMSG>::IsEmpty
_TEXT	ENDS
PUBLIC	?ProcessAtkMsg@CAction@@AAEXXZ			; CAction::ProcessAtkMsg
EXTRN	?Process@CMeleeAtkMsgq@@QAEHPAVCAction@@@Z:NEAR	; CMeleeAtkMsgq::Process
EXTRN	?Process@CMagicAtkMsgq@@QAEHPAVCMover@@@Z:NEAR	; CMagicAtkMsgq::Process
; Function compile flags: /Ogty
; File c:\documents and settings\test\mes documents\source\virtuos_v17\build\program\_aiinterface\action.cpp
;	COMDAT ?ProcessAtkMsg@CAction@@AAEXXZ
_TEXT	SEGMENT
?ProcessAtkMsg@CAction@@AAEXXZ PROC NEAR		; CAction::ProcessAtkMsg, COMDAT
; _this$ = ecx

; 57   : {

  00000	56		 push	 esi
  00001	8b f1		 mov	 esi, ecx

; 58   : 	if( !m_qMeleeAtkMsg.Process( this ) )

  00003	56		 push	 esi
  00004	8d 4e 10	 lea	 ecx, DWORD PTR [esi+16]
  00007	e8 00 00 00 00	 call	 ?Process@CMeleeAtkMsgq@@QAEHPAVCAction@@@Z ; CMeleeAtkMsgq::Process
  0000c	85 c0		 test	 eax, eax
  0000e	75 0c		 jne	 SHORT $L225625

; 59   : 		m_qMagicAtkMsg.Process( GetMover() );

  00010	8b 46 0c	 mov	 eax, DWORD PTR [esi+12]
  00013	50		 push	 eax
  00014	8d 4e 28	 lea	 ecx, DWORD PTR [esi+40]
  00017	e8 00 00 00 00	 call	 ?Process@CMagicAtkMsgq@@QAEHPAVCMover@@@Z ; CMagicAtkMsgq::Process
$L225625:
  0001c	5e		 pop	 esi

; 60   : }

  0001d	c3		 ret	 0
?ProcessAtkMsg@CAction@@AAEXXZ ENDP			; CAction::ProcessAtkMsg
_TEXT	ENDS
PUBLIC	?GetWorld@CAction@@QAEPAVCWorld@@XZ		; CAction::GetWorld
; Function compile flags: /Ogty
;	COMDAT ?GetWorld@CAction@@QAEPAVCWorld@@XZ
_TEXT	SEGMENT
?GetWorld@CAction@@QAEPAVCWorld@@XZ PROC NEAR		; CAction::GetWorld, COMDAT
; _this$ = ecx

; 65   : 	return m_pMover->GetWorld(); 

  00000	8b 41 0c	 mov	 eax, DWORD PTR [ecx+12]
  00003	8b 80 6c 01 00
	00		 mov	 eax, DWORD PTR [eax+364]

; 66   : }

  00009	c3		 ret	 0
?GetWorld@CAction@@QAEPAVCWorld@@XZ ENDP		; CAction::GetWorld
_TEXT	ENDS
PUBLIC	??Diterator@?$deque@PAUtagACTMSG@@V?$allocator@PAUtagACTMSG@@@std@@@std@@QBEAAPAUtagACTMSG@@XZ ; std::deque<tagACTMSG *,std::allocator<tagACTMSG *> >::iterator::operator*
; Function compile flags: /Ogty
; File c:\program files\microsoft visual studio .net 2003\vc7\include\deque
;	COMDAT ??Diterator@?$deque@PAUtagACTMSG@@V?$allocator@PAUtagACTMSG@@@std@@@std@@QBEAAPAUtagACTMSG@@XZ
_TEXT	SEGMENT
??Diterator@?$deque@PAUtagACTMSG@@V?$allocator@PAUtagACTMSG@@@std@@@std@@QBEAAPAUtagACTMSG@@XZ PROC NEAR ; std::deque<tagACTMSG *,std::allocator<tagACTMSG *> >::iterator::operator*, COMDAT
; _this$ = ecx

; 247  : 			return ((reference)**(const_iterator *)this);

  00000	8b 51 04	 mov	 edx, DWORD PTR [ecx+4]
  00003	8b 09		 mov	 ecx, DWORD PTR [ecx]
  00005	8b c2		 mov	 eax, edx
  00007	c1 e8 02	 shr	 eax, 2
  0000a	56		 push	 esi
  0000b	8d 34 85 00 00
	00 00		 lea	 esi, DWORD PTR [eax*4]
  00012	2b d6		 sub	 edx, esi
  00014	8b 71 08	 mov	 esi, DWORD PTR [ecx+8]
  00017	3b f0		 cmp	 esi, eax
  00019	77 02		 ja	 SHORT $L227071
  0001b	2b c6		 sub	 eax, esi
$L227071:
  0001d	8b 49 04	 mov	 ecx, DWORD PTR [ecx+4]
  00020	8b 04 81	 mov	 eax, DWORD PTR [ecx+eax*4]
  00023	8d 04 90	 lea	 eax, DWORD PTR [eax+edx*4]
  00026	5e		 pop	 esi

; 248  : 			}

  00027	c3		 ret	 0
??Diterator@?$deque@PAUtagACTMSG@@V?$allocator@PAUtagACTMSG@@@std@@@std@@QBEAAPAUtagACTMSG@@XZ ENDP ; std::deque<tagACTMSG *,std::allocator<tagACTMSG *> >::iterator::operator*
_TEXT	ENDS
PUBLIC	??9const_iterator@?$deque@PAUtagACTMSG@@V?$allocator@PAUtagACTMSG@@@std@@@std@@QBE_NABV012@@Z ; std::deque<tagACTMSG *,std::allocator<tagACTMSG *> >::const_iterator::operator!=
; Function compile flags: /Ogty
;	COMDAT ??9const_iterator@?$deque@PAUtagACTMSG@@V?$allocator@PAUtagACTMSG@@@std@@@std@@QBE_NABV012@@Z
_TEXT	SEGMENT
__Right$ = 8						; size = 4
??9const_iterator@?$deque@PAUtagACTMSG@@V?$allocator@PAUtagACTMSG@@@std@@@std@@QBE_NABV012@@Z PROC NEAR ; std::deque<tagACTMSG *,std::allocator<tagACTMSG *> >::const_iterator::operator!=, COMDAT
; _this$ = ecx

; 188  : 			return (!(*this == _Right));

  00000	8b 44 24 04	 mov	 eax, DWORD PTR __Right$[esp-4]
  00004	8b 11		 mov	 edx, DWORD PTR [ecx]
  00006	3b 10		 cmp	 edx, DWORD PTR [eax]
  00008	75 19		 jne	 SHORT $L227081
  0000a	8b 49 04	 mov	 ecx, DWORD PTR [ecx+4]
  0000d	3b 48 04	 cmp	 ecx, DWORD PTR [eax+4]
  00010	75 11		 jne	 SHORT $L227081
  00012	b8 01 00 00 00	 mov	 eax, 1
  00017	33 d2		 xor	 edx, edx
  00019	84 c0		 test	 al, al
  0001b	0f 94 c2	 sete	 dl
  0001e	8a c2		 mov	 al, dl

; 189  : 			}

  00020	c2 04 00	 ret	 4

; 188  : 			return (!(*this == _Right));

$L227081:
  00023	33 c0		 xor	 eax, eax
  00025	33 d2		 xor	 edx, edx
  00027	84 c0		 test	 al, al
  00029	0f 94 c2	 sete	 dl
  0002c	8a c2		 mov	 al, dl

; 189  : 			}

  0002e	c2 04 00	 ret	 4
??9const_iterator@?$deque@PAUtagACTMSG@@V?$allocator@PAUtagACTMSG@@@std@@@std@@QBE_NABV012@@Z ENDP ; std::deque<tagACTMSG *,std::allocator<tagACTMSG *> >::const_iterator::operator!=
_TEXT	ENDS
PUBLIC	??Diterator@?$deque@PAUtagMAGICATKMSG@@V?$allocator@PAUtagMAGICATKMSG@@@std@@@std@@QBEAAPAUtagMAGICATKMSG@@XZ ; std::deque<tagMAGICATKMSG *,std::allocator<tagMAGICATKMSG *> >::iterator::operator*
; Function compile flags: /Ogty
;	COMDAT ??Diterator@?$deque@PAUtagMAGICATKMSG@@V?$allocator@PAUtagMAGICATKMSG@@@std@@@std@@QBEAAPAUtagMAGICATKMSG@@XZ
_TEXT	SEGMENT
??Diterator@?$deque@PAUtagMAGICATKMSG@@V?$allocator@PAUtagMAGICATKMSG@@@std@@@std@@QBEAAPAUtagMAGICATKMSG@@XZ PROC NEAR ; std::deque<tagMAGICATKMSG *,std::allocator<tagMAGICATKMSG *> >::iterator::operator*, COMDAT
; _this$ = ecx

; 247  : 			return ((reference)**(const_iterator *)this);

  00000	8b 51 04	 mov	 edx, DWORD PTR [ecx+4]
  00003	8b 09		 mov	 ecx, DWORD PTR [ecx]
  00005	8b c2		 mov	 eax, edx
  00007	c1 e8 02	 shr	 eax, 2
  0000a	56		 push	 esi
  0000b	8d 34 85 00 00
	00 00		 lea	 esi, DWORD PTR [eax*4]
  00012	2b d6		 sub	 edx, esi
  00014	8b 71 08	 mov	 esi, DWORD PTR [ecx+8]
  00017	3b f0		 cmp	 esi, eax
  00019	77 02		 ja	 SHORT $L227090
  0001b	2b c6		 sub	 eax, esi
$L227090:
  0001d	8b 49 04	 mov	 ecx, DWORD PTR [ecx+4]
  00020	8b 04 81	 mov	 eax, DWORD PTR [ecx+eax*4]
  00023	8d 04 90	 lea	 eax, DWORD PTR [eax+edx*4]
  00026	5e		 pop	 esi

; 248  : 			}

  00027	c3		 ret	 0
??Diterator@?$deque@PAUtagMAGICATKMSG@@V?$allocator@PAUtagMAGICATKMSG@@@std@@@std@@QBEAAPAUtagMAGICATKMSG@@XZ ENDP ; std::deque<tagMAGICATKMSG *,std::allocator<tagMAGICATKMSG *> >::iterator::operator*
_TEXT	ENDS
PUBLIC	??9const_iterator@?$deque@PAUtagMAGICATKMSG@@V?$allocator@PAUtagMAGICATKMSG@@@std@@@std@@QBE_NABV012@@Z ; std::deque<tagMAGICATKMSG *,std::allocator<tagMAGICATKMSG *> >::const_iterator::operator!=
; Function compile flags: /Ogty
;	COMDAT ??9const_iterator@?$deque@PAUtagMAGICATKMSG@@V?$allocator@PAUtagMAGICATKMSG@@@std@@@std@@QBE_NABV012@@Z
_TEXT	SEGMENT
__Right$ = 8						; size = 4
??9const_iterator@?$deque@PAUtagMAGICATKMSG@@V?$allocator@PAUtagMAGICATKMSG@@@std@@@std@@QBE_NABV012@@Z PROC NEAR ; std::deque<tagMAGICATKMSG *,std::allocator<tagMAGICATKMSG *> >::const_iterator::operator!=, COMDAT
; _this$ = ecx

; 188  : 			return (!(*this == _Right));

  00000	8b 44 24 04	 mov	 eax, DWORD PTR __Right$[esp-4]
  00004	8b 11		 mov	 edx, DWORD PTR [ecx]
  00006	3b 10		 cmp	 edx, DWORD PTR [eax]
  00008	75 19		 jne	 SHORT $L227100
  0000a	8b 49 04	 mov	 ecx, DWORD PTR [ecx+4]
  0000d	3b 48 04	 cmp	 ecx, DWORD PTR [eax+4]
  00010	75 11		 jne	 SHORT $L227100
  00012	b8 01 00 00 00	 mov	 eax, 1
  00017	33 d2		 xor	 edx, edx
  00019	84 c0		 test	 al, al
  0001b	0f 94 c2	 sete	 dl
  0001e	8a c2		 mov	 al, dl

; 189  : 			}

  00020	c2 04 00	 ret	 4

; 188  : 			return (!(*this == _Right));

$L227100:
  00023	33 c0		 xor	 eax, eax
  00025	33 d2		 xor	 edx, edx
  00027	84 c0		 test	 al, al
  00029	0f 94 c2	 sete	 dl
  0002c	8a c2		 mov	 al, dl

; 189  : 			}

  0002e	c2 04 00	 ret	 4
??9const_iterator@?$deque@PAUtagMAGICATKMSG@@V?$allocator@PAUtagMAGICATKMSG@@@std@@@std@@QBE_NABV012@@Z ENDP ; std::deque<tagMAGICATKMSG *,std::allocator<tagMAGICATKMSG *> >::const_iterator::operator!=
_TEXT	ENDS
PUBLIC	??0iterator@?$deque@PAUtagACTMSG@@V?$allocator@PAUtagACTMSG@@@std@@@std@@QAE@IPBV12@@Z ; std::deque<tagACTMSG *,std::allocator<tagACTMSG *> >::iterator::iterator
; Function compile flags: /Ogty
;	COMDAT ??0iterator@?$deque@PAUtagACTMSG@@V?$allocator@PAUtagACTMSG@@@std@@@std@@QAE@IPBV12@@Z
_TEXT	SEGMENT
__Off$ = 8						; size = 4
__Pdeque$ = 12						; size = 4
??0iterator@?$deque@PAUtagACTMSG@@V?$allocator@PAUtagACTMSG@@@std@@@std@@QAE@IPBV12@@Z PROC NEAR ; std::deque<tagACTMSG *,std::allocator<tagACTMSG *> >::iterator::iterator, COMDAT
; _this$ = ecx

; 242  : 			{	// construct with offset _Off in *_Pdeque

  00000	8b 54 24 04	 mov	 edx, DWORD PTR __Off$[esp-4]
  00004	8b c1		 mov	 eax, ecx
  00006	8b 4c 24 08	 mov	 ecx, DWORD PTR __Pdeque$[esp-4]
  0000a	89 08		 mov	 DWORD PTR [eax], ecx
  0000c	89 50 04	 mov	 DWORD PTR [eax+4], edx

; 243  : 			}

  0000f	c2 08 00	 ret	 8
??0iterator@?$deque@PAUtagACTMSG@@V?$allocator@PAUtagACTMSG@@@std@@@std@@QAE@IPBV12@@Z ENDP ; std::deque<tagACTMSG *,std::allocator<tagACTMSG *> >::iterator::iterator
_TEXT	ENDS
PUBLIC	??0iterator@?$deque@PAUtagMAGICATKMSG@@V?$allocator@PAUtagMAGICATKMSG@@@std@@@std@@QAE@IPBV12@@Z ; std::deque<tagMAGICATKMSG *,std::allocator<tagMAGICATKMSG *> >::iterator::iterator
; Function compile flags: /Ogty
;	COMDAT ??0iterator@?$deque@PAUtagMAGICATKMSG@@V?$allocator@PAUtagMAGICATKMSG@@@std@@@std@@QAE@IPBV12@@Z
_TEXT	SEGMENT
__Off$ = 8						; size = 4
__Pdeque$ = 12						; size = 4
??0iterator@?$deque@PAUtagMAGICATKMSG@@V?$allocator@PAUtagMAGICATKMSG@@@std@@@std@@QAE@IPBV12@@Z PROC NEAR ; std::deque<tagMAGICATKMSG *,std::allocator<tagMAGICATKMSG *> >::iterator::iterator, COMDAT
; _this$ = ecx

; 242  : 			{	// construct with offset _Off in *_Pdeque

  00000	8b 54 24 04	 mov	 edx, DWORD PTR __Off$[esp-4]
  00004	8b c1		 mov	 eax, ecx
  00006	8b 4c 24 08	 mov	 ecx, DWORD PTR __Pdeque$[esp-4]
  0000a	89 08		 mov	 DWORD PTR [eax], ecx
  0000c	89 50 04	 mov	 DWORD PTR [eax+4], edx

; 243  : 			}

  0000f	c2 08 00	 ret	 8
??0iterator@?$deque@PAUtagMAGICATKMSG@@V?$allocator@PAUtagMAGICATKMSG@@@std@@@std@@QAE@IPBV12@@Z ENDP ; std::deque<tagMAGICATKMSG *,std::allocator<tagMAGICATKMSG *> >::iterator::iterator
_TEXT	ENDS
PUBLIC	??0?$_Deque_map@PAUtagACTMSG@@V?$allocator@PAUtagACTMSG@@@std@@@std@@IAE@V?$allocator@PAUtagACTMSG@@@1@@Z ; std::_Deque_map<tagACTMSG *,std::allocator<tagACTMSG *> >::_Deque_map<tagACTMSG *,std::allocator<tagACTMSG *> >
; Function compile flags: /Ogty
;	COMDAT ??0?$_Deque_map@PAUtagACTMSG@@V?$allocator@PAUtagACTMSG@@@std@@@std@@IAE@V?$allocator@PAUtagACTMSG@@@1@@Z
_TEXT	SEGMENT
__Al$ = 8						; size = 1
??0?$_Deque_map@PAUtagACTMSG@@V?$allocator@PAUtagACTMSG@@@std@@@std@@IAE@V?$allocator@PAUtagACTMSG@@@1@@Z PROC NEAR ; std::_Deque_map<tagACTMSG *,std::allocator<tagACTMSG *> >::_Deque_map<tagACTMSG *,std::allocator<tagACTMSG *> >, COMDAT
; _this$ = ecx

; 21   : 		{	// construct allocator from _Al

  00000	8b c1		 mov	 eax, ecx

; 22   : 		}

  00002	c2 04 00	 ret	 4
??0?$_Deque_map@PAUtagACTMSG@@V?$allocator@PAUtagACTMSG@@@std@@@std@@IAE@V?$allocator@PAUtagACTMSG@@@1@@Z ENDP ; std::_Deque_map<tagACTMSG *,std::allocator<tagACTMSG *> >::_Deque_map<tagACTMSG *,std::allocator<tagACTMSG *> >
_TEXT	ENDS
PUBLIC	?destroy@?$allocator@PAPAUtagACTMSG@@@std@@QAEXPAPAPAUtagACTMSG@@@Z ; std::allocator<tagACTMSG * *>::destroy
; Function compile flags: /Ogty
; File c:\program files\microsoft visual studio .net 2003\vc7\include\xmemory
;	COMDAT ?destroy@?$allocator@PAPAUtagACTMSG@@@std@@QAEXPAPAPAUtagACTMSG@@@Z
_TEXT	SEGMENT
__Ptr$ = 8						; size = 4
?destroy@?$allocator@PAPAUtagACTMSG@@@std@@QAEXPAPAPAUtagACTMSG@@@Z PROC NEAR ; std::allocator<tagACTMSG * *>::destroy, COMDAT
; _this$ = ecx

; 152  : 		_Destroy(_Ptr);
; 153  : 		}

  00000	c2 04 00	 ret	 4
?destroy@?$allocator@PAPAUtagACTMSG@@@std@@QAEXPAPAPAUtagACTMSG@@@Z ENDP ; std::allocator<tagACTMSG * *>::destroy
_TEXT	ENDS
PUBLIC	??0?$_Deque_map@PAUtagMAGICATKMSG@@V?$allocator@PAUtagMAGICATKMSG@@@std@@@std@@IAE@V?$allocator@PAUtagMAGICATKMSG@@@1@@Z ; std::_Deque_map<tagMAGICATKMSG *,std::allocator<tagMAGICATKMSG *> >::_Deque_map<tagMAGICATKMSG *,std::allocator<tagMAGICATKMSG *> >
; Function compile flags: /Ogty
; File c:\program files\microsoft visual studio .net 2003\vc7\include\deque
;	COMDAT ??0?$_Deque_map@PAUtagMAGICATKMSG@@V?$allocator@PAUtagMAGICATKMSG@@@std@@@std@@IAE@V?$allocator@PAUtagMAGICATKMSG@@@1@@Z
_TEXT	SEGMENT
__Al$ = 8						; size = 1
??0?$_Deque_map@PAUtagMAGICATKMSG@@V?$allocator@PAUtagMAGICATKMSG@@@std@@@std@@IAE@V?$allocator@PAUtagMAGICATKMSG@@@1@@Z PROC NEAR ; std::_Deque_map<tagMAGICATKMSG *,std::allocator<tagMAGICATKMSG *> >::_Deque_map<tagMAGICATKMSG *,std::allocator<tagMAGICATKMSG *> >, COMDAT
; _this$ = ecx

; 21   : 		{	// construct allocator from _Al

  00000	8b c1		 mov	 eax, ecx

; 22   : 		}

  00002	c2 04 00	 ret	 4
??0?$_Deque_map@PAUtagMAGICATKMSG@@V?$allocator@PAUtagMAGICATKMSG@@@std@@@std@@IAE@V?$allocator@PAUtagMAGICATKMSG@@@1@@Z ENDP ; std::_Deque_map<tagMAGICATKMSG *,std::allocator<tagMAGICATKMSG *> >::_Deque_map<tagMAGICATKMSG *,std::allocator<tagMAGICATKMSG *> >
_TEXT	ENDS
PUBLIC	?destroy@?$allocator@PAPAUtagMAGICATKMSG@@@std@@QAEXPAPAPAUtagMAGICATKMSG@@@Z ; std::allocator<tagMAGICATKMSG * *>::destroy
; Function compile flags: /Ogty
; File c:\program files\microsoft visual studio .net 2003\vc7\include\xmemory
;	COMDAT ?destroy@?$allocator@PAPAUtagMAGICATKMSG@@@std@@QAEXPAPAPAUtagMAGICATKMSG@@@Z
_TEXT	SEGMENT
__Ptr$ = 8						; size = 4
?destroy@?$allocator@PAPAUtagMAGICATKMSG@@@std@@QAEXPAPAPAUtagMAGICATKMSG@@@Z PROC NEAR ; std::allocator<tagMAGICATKMSG * *>::destroy, COMDAT
; _this$ = ecx

; 152  : 		_Destroy(_Ptr);
; 153  : 		}

  00000	c2 04 00	 ret	 4
?destroy@?$allocator@PAPAUtagMAGICATKMSG@@@std@@QAEXPAPAPAUtagMAGICATKMSG@@@Z ENDP ; std::allocator<tagMAGICATKMSG * *>::destroy
_TEXT	ENDS
PUBLIC	?destroy@?$allocator@PAUtagACTMSG@@@std@@QAEXPAPAUtagACTMSG@@@Z ; std::allocator<tagACTMSG *>::destroy
; Function compile flags: /Ogty
;	COMDAT ?destroy@?$allocator@PAUtagACTMSG@@@std@@QAEXPAPAUtagACTMSG@@@Z
_TEXT	SEGMENT
__Ptr$ = 8						; size = 4
?destroy@?$allocator@PAUtagACTMSG@@@std@@QAEXPAPAUtagACTMSG@@@Z PROC NEAR ; std::allocator<tagACTMSG *>::destroy, COMDAT
; _this$ = ecx

; 152  : 		_Destroy(_Ptr);
; 153  : 		}

  00000	c2 04 00	 ret	 4
?destroy@?$allocator@PAUtagACTMSG@@@std@@QAEXPAPAUtagACTMSG@@@Z ENDP ; std::allocator<tagACTMSG *>::destroy
_TEXT	ENDS
PUBLIC	?destroy@?$allocator@PAUtagMAGICATKMSG@@@std@@QAEXPAPAUtagMAGICATKMSG@@@Z ; std::allocator<tagMAGICATKMSG *>::destroy
; Function compile flags: /Ogty
;	COMDAT ?destroy@?$allocator@PAUtagMAGICATKMSG@@@std@@QAEXPAPAUtagMAGICATKMSG@@@Z
_TEXT	SEGMENT
__Ptr$ = 8						; size = 4
?destroy@?$allocator@PAUtagMAGICATKMSG@@@std@@QAEXPAPAUtagMAGICATKMSG@@@Z PROC NEAR ; std::allocator<tagMAGICATKMSG *>::destroy, COMDAT
; _this$ = ecx

; 152  : 		_Destroy(_Ptr);
; 153  : 		}

  00000	c2 04 00	 ret	 4
?destroy@?$allocator@PAUtagMAGICATKMSG@@@std@@QAEXPAPAUtagMAGICATKMSG@@@Z ENDP ; std::allocator<tagMAGICATKMSG *>::destroy
_TEXT	ENDS
PUBLIC	?IsAtkMsgEmpty@CAction@@AAEHXZ			; CAction::IsAtkMsgEmpty
; Function compile flags: /Ogty
; File c:\documents and settings\test\mes documents\source\virtuos_v17\build\program\_aiinterface\action.h
;	COMDAT ?IsAtkMsgEmpty@CAction@@AAEHXZ
_TEXT	SEGMENT
?IsAtkMsgEmpty@CAction@@AAEHXZ PROC NEAR		; CAction::IsAtkMsgEmpty, COMDAT
; _this$ = ecx

; 341  : 	BOOL			IsAtkMsgEmpty()	{	return( m_qMeleeAtkMsg.IsEmpty() && m_qMagicAtkMsg.IsEmpty() );	}

  00000	8b 41 24	 mov	 eax, DWORD PTR [ecx+36]
  00003	85 c0		 test	 eax, eax
  00005	75 0d		 jne	 SHORT $L227153
  00007	8b 41 3c	 mov	 eax, DWORD PTR [ecx+60]
  0000a	85 c0		 test	 eax, eax
  0000c	75 06		 jne	 SHORT $L227153
  0000e	b8 01 00 00 00	 mov	 eax, 1
  00013	c3		 ret	 0
$L227153:
  00014	33 c0		 xor	 eax, eax
  00016	c3		 ret	 0
?IsAtkMsgEmpty@CAction@@AAEHXZ ENDP			; CAction::IsAtkMsgEmpty
_TEXT	ENDS
PUBLIC	?OnEndAttackState@CAction@@QAEXK@Z		; CAction::OnEndAttackState
EXTRN	?OnActEndMeleeSkill@CMover@@QAEXXZ:NEAR		; CMover::OnActEndMeleeSkill
EXTRN	?OnActEndMagicSkill@CMover@@QAEXXZ:NEAR		; CMover::OnActEndMagicSkill
; Function compile flags: /Ogty
; File c:\documents and settings\test\mes documents\source\virtuos_v17\build\program\_aiinterface\action.cpp
;	COMDAT ?OnEndAttackState@CAction@@QAEXK@Z
_TEXT	SEGMENT
_dwState$ = 8						; size = 4
?OnEndAttackState@CAction@@QAEXK@Z PROC NEAR		; CAction::OnEndAttackState, COMDAT
; _this$ = ecx

; 103  : 	// 이곳에 그외 필요한 코드를 넣으셈.
; 104  : 	switch( dwState & OBJSTA_ATK_ALL )

  00000	8b 44 24 04	 mov	 eax, DWORD PTR _dwState$[esp-4]
  00004	25 00 00 ff 00	 and	 eax, 16711680		; 00ff0000H
  00009	3d 00 00 06 00	 cmp	 eax, 393216		; 00060000H
  0000e	56		 push	 esi
  0000f	8b f1		 mov	 esi, ecx
  00011	77 2f		 ja	 SHORT $L227174
  00013	74 44		 je	 SHORT $L225663
  00015	3d 00 00 03 00	 cmp	 eax, 196608		; 00030000H
  0001a	77 14		 ja	 SHORT $L227175
  0001c	74 3b		 je	 SHORT $L225663
  0001e	3d 00 00 01 00	 cmp	 eax, 65536		; 00010000H
  00023	74 34		 je	 SHORT $L225663
  00025	3d 00 00 02 00	 cmp	 eax, 131072		; 00020000H
  0002a	74 2d		 je	 SHORT $L225663
  0002c	5e		 pop	 esi

; 133  : 		break;
; 134  : 	}
; 135  : }

  0002d	c2 04 00	 ret	 4
$L227175:

; 103  : 	// 이곳에 그외 필요한 코드를 넣으셈.
; 104  : 	switch( dwState & OBJSTA_ATK_ALL )

  00030	3d 00 00 04 00	 cmp	 eax, 262144		; 00040000H
  00035	74 22		 je	 SHORT $L225663
  00037	3d 00 00 05 00	 cmp	 eax, 327680		; 00050000H
  0003c	74 1b		 je	 SHORT $L225663
  0003e	5e		 pop	 esi

; 133  : 		break;
; 134  : 	}
; 135  : }

  0003f	c2 04 00	 ret	 4
$L227174:

; 103  : 	// 이곳에 그외 필요한 코드를 넣으셈.
; 104  : 	switch( dwState & OBJSTA_ATK_ALL )

  00042	3d 00 00 09 00	 cmp	 eax, 589824		; 00090000H
  00047	77 60		 ja	 SHORT $L227176
  00049	74 52		 je	 SHORT $L225666
  0004b	3d 00 00 07 00	 cmp	 eax, 458752		; 00070000H
  00050	74 07		 je	 SHORT $L225663
  00052	3d 00 00 08 00	 cmp	 eax, 524288		; 00080000H
  00057	75 5f		 jne	 SHORT $L225660
$L225663:

; 105  : 	{
; 106  : 	case OBJSTA_ATK1:
; 107  : 	case OBJSTA_ATK2:
; 108  : 	case OBJSTA_ATK3:
; 109  : 	case OBJSTA_ATK4:
; 110  : 	case OBJSTA_ATK_MAGIC1:
; 111  : 	case OBJSTA_ATK_RANGE1:
; 112  : 	case OBJSTA_RANGE3:
; 113  : 	case OBJSTA_RANGE4:
; 114  : #ifdef __WORLDSERVER
; 115  : 		if( m_pMover->IsPlayer() && m_pMover->IsFly() )	

  00059	8b 46 0c	 mov	 eax, DWORD PTR [esi+12]
  0005c	8b 88 34 02 00
	00		 mov	 ecx, DWORD PTR [eax+564]
  00062	85 c9		 test	 ecx, ecx
  00064	74 0c		 je	 SHORT $L225664
  00066	8b 80 3c 02 00
	00		 mov	 eax, DWORD PTR [eax+572]
  0006c	f6 40 08 08	 test	 BYTE PTR [eax+8], 8
  00070	75 46		 jne	 SHORT $L225660
$L225664:

; 116  : 			return;
; 117  : 
; 118  : 		if( !IsAtkMsgEmpty() )

  00072	8b 46 24	 mov	 eax, DWORD PTR [esi+36]
  00075	85 c0		 test	 eax, eax
  00077	75 07		 jne	 SHORT $L227209
  00079	8b 46 3c	 mov	 eax, DWORD PTR [esi+60]
  0007c	85 c0		 test	 eax, eax
  0007e	74 38		 je	 SHORT $L225660
$L227209:

; 119  : 			ProcessAtkMsg();

  00080	56		 push	 esi
  00081	8d 4e 10	 lea	 ecx, DWORD PTR [esi+16]
  00084	e8 00 00 00 00	 call	 ?Process@CMeleeAtkMsgq@@QAEHPAVCAction@@@Z ; CMeleeAtkMsgq::Process
  00089	85 c0		 test	 eax, eax
  0008b	75 2b		 jne	 SHORT $L225660
  0008d	8b 4e 0c	 mov	 ecx, DWORD PTR [esi+12]
  00090	51		 push	 ecx
  00091	8d 4e 28	 lea	 ecx, DWORD PTR [esi+40]
  00094	e8 00 00 00 00	 call	 ?Process@CMagicAtkMsgq@@QAEHPAVCMover@@@Z ; CMagicAtkMsgq::Process
  00099	5e		 pop	 esi

; 133  : 		break;
; 134  : 	}
; 135  : }

  0009a	c2 04 00	 ret	 4
$L225666:

; 120  : #else // worldserver
; 121  : 		if( m_pMover->IsActiveMover() == FALSE )
; 122  : 		{
; 123  : 			if( !IsAtkMsgEmpty() )
; 124  : 				ProcessAtkMsg();
; 125  : 		}
; 126  : #endif // not worldserver
; 127  : 		break;
; 128  : 	case OBJSTA_ATK_MELEESKILL:
; 129  : 		m_pMover->OnActEndMeleeSkill();		// 근접스킬 동작 끝남.

  0009d	8b 4e 0c	 mov	 ecx, DWORD PTR [esi+12]
  000a0	e8 00 00 00 00	 call	 ?OnActEndMeleeSkill@CMover@@QAEXXZ ; CMover::OnActEndMeleeSkill
  000a5	5e		 pop	 esi

; 133  : 		break;
; 134  : 	}
; 135  : }

  000a6	c2 04 00	 ret	 4
$L227176:

; 103  : 	// 이곳에 그외 필요한 코드를 넣으셈.
; 104  : 	switch( dwState & OBJSTA_ATK_ALL )

  000a9	3d 00 00 0d 00	 cmp	 eax, 851968		; 000d0000H
  000ae	75 08		 jne	 SHORT $L225660

; 130  : 		break;
; 131  : 	case OBJSTA_ATK_MAGICSKILL:
; 132  : 		m_pMover->OnActEndMagicSkill();		// 마법스킬 동작 끝남.

  000b0	8b 4e 0c	 mov	 ecx, DWORD PTR [esi+12]
  000b3	e8 00 00 00 00	 call	 ?OnActEndMagicSkill@CMover@@QAEXXZ ; CMover::OnActEndMagicSkill
$L225660:
  000b8	5e		 pop	 esi

; 133  : 		break;
; 134  : 	}
; 135  : }

  000b9	c2 04 00	 ret	 4
?OnEndAttackState@CAction@@QAEXK@Z ENDP			; CAction::OnEndAttackState
_TEXT	ENDS
PUBLIC	?ResetState@CAction@@QAEXK@Z			; CAction::ResetState
; Function compile flags: /Ogty
;	COMDAT ?ResetState@CAction@@QAEXK@Z
_TEXT	SEGMENT
tv194 = -4						; size = 4
_dwState$ = 8						; size = 4
?ResetState@CAction@@QAEXK@Z PROC NEAR			; CAction::ResetState, COMDAT
; _this$ = ecx

; 164  : { 

  00000	51		 push	 ecx
  00001	53		 push	 ebx

; 165  : 	DWORD dw	= m_dwState;
; 166  : 	if( dwState & OBJSTA_MOVE_ALL )

  00002	8b 5c 24 0c	 mov	 ebx, DWORD PTR _dwState$[esp+4]
  00006	84 db		 test	 bl, bl
  00008	56		 push	 esi
  00009	8b f1		 mov	 esi, ecx
  0000b	8b 46 04	 mov	 eax, DWORD PTR [esi+4]
  0000e	89 44 24 08	 mov	 DWORD PTR tv194[esp+12], eax
  00012	74 11		 je	 SHORT $L225688

; 167  : 	{
; 168  : 		OnEndMoveState();				// 핸들러 호출

  00014	3c 03		 cmp	 al, 3
  00016	75 04		 jne	 SHORT $L227237
  00018	83 66 08 fb	 and	 DWORD PTR [esi+8], -5	; fffffffbH
$L227237:

; 169  : 		m_dwState &= (~dwState);		// 해당 비트값 클리어.

  0001c	8b cb		 mov	 ecx, ebx
  0001e	f7 d1		 not	 ecx
  00020	23 c8		 and	 ecx, eax
  00022	89 4e 04	 mov	 DWORD PTR [esi+4], ecx
$L225688:

; 170  : 	}
; 171  : 	
; 172  : 	if( dwState & OBJSTA_TURN_ALL )

  00025	f6 c7 03	 test	 bh, 3
  00028	74 0c		 je	 SHORT $L225689

; 173  : 	{
; 174  : 		OnEndTurnState();
; 175  : 		m_dwState &= (~dwState);		// 해당 비트값 클리어.

  0002a	8b 4e 04	 mov	 ecx, DWORD PTR [esi+4]
  0002d	8b d3		 mov	 edx, ebx
  0002f	f7 d2		 not	 edx
  00031	23 ca		 and	 ecx, edx
  00033	89 4e 04	 mov	 DWORD PTR [esi+4], ecx
$L225689:

; 176  : 	}
; 177  : 	
; 178  : 	if( dwState & OBJSTA_LOOK_ALL )

  00036	f6 c7 0c	 test	 bh, 12			; 0000000cH
  00039	74 0c		 je	 SHORT $L225690

; 179  : 	{
; 180  : 		OnEndLookState();
; 181  : 		m_dwState &= (~dwState);		// 해당 비트값 클리어.

  0003b	8b 56 04	 mov	 edx, DWORD PTR [esi+4]
  0003e	8b cb		 mov	 ecx, ebx
  00040	f7 d1		 not	 ecx
  00042	23 d1		 and	 edx, ecx
  00044	89 56 04	 mov	 DWORD PTR [esi+4], edx
$L225690:

; 182  : 	}
; 183  : 	
; 184  : 	if( dwState & OBJSTA_JUMP_ALL )

  00047	f6 c7 f0	 test	 bh, -16			; fffffff0H
  0004a	74 28		 je	 SHORT $L227249

; 185  : 	{
; 186  : 		m_dwState &= (~dwState);		// 해당 비트값 클리어.

  0004c	8b 4e 04	 mov	 ecx, DWORD PTR [esi+4]
  0004f	8b d3		 mov	 edx, ebx
  00051	f7 d2		 not	 edx
  00053	23 ca		 and	 ecx, edx
  00055	89 4e 04	 mov	 DWORD PTR [esi+4], ecx

; 187  : 		OnEndJumpState( dw );

  00058	8b c8		 mov	 ecx, eax
  0005a	81 e1 00 f0 00
	00		 and	 ecx, 61440		; 0000f000H
  00060	81 f9 00 80 00
	00		 cmp	 ecx, 32768		; 00008000H
  00066	75 0c		 jne	 SHORT $L227249
  00068	8b 4e 0c	 mov	 ecx, DWORD PTR [esi+12]
  0006b	e8 00 00 00 00	 call	 ?OnActEndJump4@CMover@@QAEXXZ ; CMover::OnActEndJump4
  00070	8b 44 24 08	 mov	 eax, DWORD PTR tv194[esp+12]
$L227249:

; 188  : 	}
; 189  : 	
; 190  : 	if( dwState &	OBJSTA_ATK_ALL )

  00074	f7 c3 00 00 ff
	00		 test	 ebx, 16711680		; 00ff0000H
  0007a	74 14		 je	 SHORT $L225692

; 191  : 	{
; 192  : 		m_dwState &= (~dwState);		// 해당 비트값 클리어.

  0007c	8b 4e 04	 mov	 ecx, DWORD PTR [esi+4]
  0007f	8b d3		 mov	 edx, ebx
  00081	f7 d2		 not	 edx
  00083	23 ca		 and	 ecx, edx
  00085	89 4e 04	 mov	 DWORD PTR [esi+4], ecx

; 193  : 		OnEndAttackState(dw);

  00088	50		 push	 eax
  00089	8b ce		 mov	 ecx, esi
  0008b	e8 00 00 00 00	 call	 ?OnEndAttackState@CAction@@QAEXK@Z ; CAction::OnEndAttackState
$L225692:

; 194  : 	}
; 195  : 	
; 196  : 	if( dwState &	OBJSTA_DMG_ALL )

  00090	f7 c3 00 00 00
	0f		 test	 ebx, 251658240		; 0f000000H
  00096	74 0c		 je	 SHORT $L225693

; 197  : 	{
; 198  : 		OnEndDamageState();
; 199  : 		m_dwState &= (~dwState);		// 해당 비트값 클리어.

  00098	8b 4e 04	 mov	 ecx, DWORD PTR [esi+4]
  0009b	8b c3		 mov	 eax, ebx
  0009d	f7 d0		 not	 eax
  0009f	23 c8		 and	 ecx, eax
  000a1	89 4e 04	 mov	 DWORD PTR [esi+4], ecx
$L225693:

; 200  : 	}
; 201  : 	
; 202  : 	if( dwState & OBJSTA_ACTION_ALL )

  000a4	f7 c3 00 00 00
	f0		 test	 ebx, -268435456		; f0000000H
  000aa	74 0a		 je	 SHORT $L225694

; 203  : 	{
; 204  : 		OnEndActionState();
; 205  : 		m_dwState &= (~dwState);

  000ac	8b 46 04	 mov	 eax, DWORD PTR [esi+4]
  000af	f7 d3		 not	 ebx
  000b1	23 c3		 and	 eax, ebx
  000b3	89 46 04	 mov	 DWORD PTR [esi+4], eax
$L225694:
  000b6	5e		 pop	 esi
  000b7	5b		 pop	 ebx

; 206  : 	}
; 207  : }

  000b8	59		 pop	 ecx
  000b9	c2 04 00	 ret	 4
?ResetState@CAction@@QAEXK@Z ENDP			; CAction::ResetState
_TEXT	ENDS
PUBLIC	?begin@?$deque@PAUtagACTMSG@@V?$allocator@PAUtagACTMSG@@@std@@@std@@QAE?AViterator@12@XZ ; std::deque<tagACTMSG *,std::allocator<tagACTMSG *> >::begin
; Function compile flags: /Ogty
; File c:\program files\microsoft visual studio .net 2003\vc7\include\deque
;	COMDAT ?begin@?$deque@PAUtagACTMSG@@V?$allocator@PAUtagACTMSG@@@std@@@std@@QAE?AViterator@12@XZ
_TEXT	SEGMENT
___$ReturnUdt$ = 8					; size = 4
?begin@?$deque@PAUtagACTMSG@@V?$allocator@PAUtagACTMSG@@@std@@@std@@QAE?AViterator@12@XZ PROC NEAR ; std::deque<tagACTMSG *,std::allocator<tagACTMSG *> >::begin, COMDAT
; _this$ = ecx

; 439  : 		return (iterator(_Myoff, this));

  00000	8b 51 0c	 mov	 edx, DWORD PTR [ecx+12]
  00003	8b 44 24 04	 mov	 eax, DWORD PTR ___$ReturnUdt$[esp-4]
  00007	89 08		 mov	 DWORD PTR [eax], ecx
  00009	89 50 04	 mov	 DWORD PTR [eax+4], edx

; 440  : 		}

  0000c	c2 04 00	 ret	 4
?begin@?$deque@PAUtagACTMSG@@V?$allocator@PAUtagACTMSG@@@std@@@std@@QAE?AViterator@12@XZ ENDP ; std::deque<tagACTMSG *,std::allocator<tagACTMSG *> >::begin
_TEXT	ENDS
PUBLIC	?end@?$deque@PAUtagACTMSG@@V?$allocator@PAUtagACTMSG@@@std@@@std@@QAE?AViterator@12@XZ ; std::deque<tagACTMSG *,std::allocator<tagACTMSG *> >::end
; Function compile flags: /Ogty
;	COMDAT ?end@?$deque@PAUtagACTMSG@@V?$allocator@PAUtagACTMSG@@@std@@@std@@QAE?AViterator@12@XZ
_TEXT	SEGMENT
___$ReturnUdt$ = 8					; size = 4
?end@?$deque@PAUtagACTMSG@@V?$allocator@PAUtagACTMSG@@@std@@@std@@QAE?AViterator@12@XZ PROC NEAR ; std::deque<tagACTMSG *,std::allocator<tagACTMSG *> >::end, COMDAT
; _this$ = ecx

; 449  : 		return (iterator(_Myoff + _Mysize, this));

  00000	8b 41 0c	 mov	 eax, DWORD PTR [ecx+12]
  00003	8b 51 10	 mov	 edx, DWORD PTR [ecx+16]
  00006	03 d0		 add	 edx, eax
  00008	8b 44 24 04	 mov	 eax, DWORD PTR ___$ReturnUdt$[esp-4]
  0000c	89 08		 mov	 DWORD PTR [eax], ecx
  0000e	89 50 04	 mov	 DWORD PTR [eax+4], edx

; 450  : 		}

  00011	c2 04 00	 ret	 4
?end@?$deque@PAUtagACTMSG@@V?$allocator@PAUtagACTMSG@@@std@@@std@@QAE?AViterator@12@XZ ENDP ; std::deque<tagACTMSG *,std::allocator<tagACTMSG *> >::end
_TEXT	ENDS
PUBLIC	?begin@?$deque@PAUtagMAGICATKMSG@@V?$allocator@PAUtagMAGICATKMSG@@@std@@@std@@QAE?AViterator@12@XZ ; std::deque<tagMAGICATKMSG *,std::allocator<tagMAGICATKMSG *> >::begin
; Function compile flags: /Ogty
;	COMDAT ?begin@?$deque@PAUtagMAGICATKMSG@@V?$allocator@PAUtagMAGICATKMSG@@@std@@@std@@QAE?AViterator@12@XZ
_TEXT	SEGMENT
___$ReturnUdt$ = 8					; size = 4
?begin@?$deque@PAUtagMAGICATKMSG@@V?$allocator@PAUtagMAGICATKMSG@@@std@@@std@@QAE?AViterator@12@XZ PROC NEAR ; std::deque<tagMAGICATKMSG *,std::allocator<tagMAGICATKMSG *> >::begin, COMDAT
; _this$ = ecx

; 439  : 		return (iterator(_Myoff, this));

  00000	8b 51 0c	 mov	 edx, DWORD PTR [ecx+12]
  00003	8b 44 24 04	 mov	 eax, DWORD PTR ___$ReturnUdt$[esp-4]
  00007	89 08		 mov	 DWORD PTR [eax], ecx
  00009	89 50 04	 mov	 DWORD PTR [eax+4], edx

; 440  : 		}

  0000c	c2 04 00	 ret	 4
?begin@?$deque@PAUtagMAGICATKMSG@@V?$allocator@PAUtagMAGICATKMSG@@@std@@@std@@QAE?AViterator@12@XZ ENDP ; std::deque<tagMAGICATKMSG *,std::allocator<tagMAGICATKMSG *> >::begin
_TEXT	ENDS
PUBLIC	?end@?$deque@PAUtagMAGICATKMSG@@V?$allocator@PAUtagMAGICATKMSG@@@std@@@std@@QAE?AViterator@12@XZ ; std::deque<tagMAGICATKMSG *,std::allocator<tagMAGICATKMSG *> >::end
; Function compile flags: /Ogty
;	COMDAT ?end@?$deque@PAUtagMAGICATKMSG@@V?$allocator@PAUtagMAGICATKMSG@@@std@@@std@@QAE?AViterator@12@XZ
_TEXT	SEGMENT
___$ReturnUdt$ = 8					; size = 4
?end@?$deque@PAUtagMAGICATKMSG@@V?$allocator@PAUtagMAGICATKMSG@@@std@@@std@@QAE?AViterator@12@XZ PROC NEAR ; std::deque<tagMAGICATKMSG *,std::allocator<tagMAGICATKMSG *> >::end, COMDAT
; _this$ = ecx

; 449  : 		return (iterator(_Myoff + _Mysize, this));

  00000	8b 41 0c	 mov	 eax, DWORD PTR [ecx+12]
  00003	8b 51 10	 mov	 edx, DWORD PTR [ecx+16]
  00006	03 d0		 add	 edx, eax
  00008	8b 44 24 04	 mov	 eax, DWORD PTR ___$ReturnUdt$[esp-4]
  0000c	89 08		 mov	 DWORD PTR [eax], ecx
  0000e	89 50 04	 mov	 DWORD PTR [eax+4], edx

; 450  : 		}

  00011	c2 04 00	 ret	 4
?end@?$deque@PAUtagMAGICATKMSG@@V?$allocator@PAUtagMAGICATKMSG@@@std@@@std@@QAE?AViterator@12@XZ ENDP ; std::deque<tagMAGICATKMSG *,std::allocator<tagMAGICATKMSG *> >::end
_TEXT	ENDS
PUBLIC	??0?$_Deque_val@PAUtagACTMSG@@V?$allocator@PAUtagACTMSG@@@std@@@std@@IAE@V?$allocator@PAUtagACTMSG@@@1@@Z ; std::_Deque_val<tagACTMSG *,std::allocator<tagACTMSG *> >::_Deque_val<tagACTMSG *,std::allocator<tagACTMSG *> >
; Function compile flags: /Ogty
;	COMDAT ??0?$_Deque_val@PAUtagACTMSG@@V?$allocator@PAUtagACTMSG@@@std@@@std@@IAE@V?$allocator@PAUtagACTMSG@@@1@@Z
_TEXT	SEGMENT
__Al$ = 8						; size = 1
??0?$_Deque_val@PAUtagACTMSG@@V?$allocator@PAUtagACTMSG@@@std@@@std@@IAE@V?$allocator@PAUtagACTMSG@@@1@@Z PROC NEAR ; std::_Deque_val<tagACTMSG *,std::allocator<tagACTMSG *> >::_Deque_val<tagACTMSG *,std::allocator<tagACTMSG *> >, COMDAT
; _this$ = ecx

; 40   : 		{	// construct allocator and base from _Al

  00000	8b c1		 mov	 eax, ecx

; 41   : 		}

  00002	c2 04 00	 ret	 4
??0?$_Deque_val@PAUtagACTMSG@@V?$allocator@PAUtagACTMSG@@@std@@@std@@IAE@V?$allocator@PAUtagACTMSG@@@1@@Z ENDP ; std::_Deque_val<tagACTMSG *,std::allocator<tagACTMSG *> >::_Deque_val<tagACTMSG *,std::allocator<tagACTMSG *> >
_TEXT	ENDS
PUBLIC	??0?$_Deque_val@PAUtagMAGICATKMSG@@V?$allocator@PAUtagMAGICATKMSG@@@std@@@std@@IAE@V?$allocator@PAUtagMAGICATKMSG@@@1@@Z ; std::_Deque_val<tagMAGICATKMSG *,std::allocator<tagMAGICATKMSG *> >::_Deque_val<tagMAGICATKMSG *,std::allocator<tagMAGICATKMSG *> >
; Function compile flags: /Ogty
;	COMDAT ??0?$_Deque_val@PAUtagMAGICATKMSG@@V?$allocator@PAUtagMAGICATKMSG@@@std@@@std@@IAE@V?$allocator@PAUtagMAGICATKMSG@@@1@@Z
_TEXT	SEGMENT
__Al$ = 8						; size = 1
??0?$_Deque_val@PAUtagMAGICATKMSG@@V?$allocator@PAUtagMAGICATKMSG@@@std@@@std@@IAE@V?$allocator@PAUtagMAGICATKMSG@@@1@@Z PROC NEAR ; std::_Deque_val<tagMAGICATKMSG *,std::allocator<tagMAGICATKMSG *> >::_Deque_val<tagMAGICATKMSG *,std::allocator<tagMAGICATKMSG *> >, COMDAT
; _this$ = ecx

; 40   : 		{	// construct allocator and base from _Al

  00000	8b c1		 mov	 eax, ecx

; 41   : 		}

  00002	c2 04 00	 ret	 4
??0?$_Deque_val@PAUtagMAGICATKMSG@@V?$allocator@PAUtagMAGICATKMSG@@@std@@@std@@IAE@V?$allocator@PAUtagMAGICATKMSG@@@1@@Z ENDP ; std::_Deque_val<tagMAGICATKMSG *,std::allocator<tagMAGICATKMSG *> >::_Deque_val<tagMAGICATKMSG *,std::allocator<tagMAGICATKMSG *> >
_TEXT	ENDS
PUBLIC	?pop_back@?$deque@PAUtagACTMSG@@V?$allocator@PAUtagACTMSG@@@std@@@std@@QAEXXZ ; std::deque<tagACTMSG *,std::allocator<tagACTMSG *> >::pop_back
; Function compile flags: /Ogty
;	COMDAT ?pop_back@?$deque@PAUtagACTMSG@@V?$allocator@PAUtagACTMSG@@@std@@@std@@QAEXXZ
_TEXT	SEGMENT
?pop_back@?$deque@PAUtagACTMSG@@V?$allocator@PAUtagACTMSG@@@std@@@std@@QAEXXZ PROC NEAR ; std::deque<tagACTMSG *,std::allocator<tagACTMSG *> >::pop_back, COMDAT
; _this$ = ecx

; 599  : 		if (!empty())

  00000	8b 41 10	 mov	 eax, DWORD PTR [ecx+16]
  00003	85 c0		 test	 eax, eax
  00005	74 0d		 je	 SHORT $L225825

; 600  : 			{	// something to erase, do it
; 601  : 			size_type _Newoff = _Mysize + _Myoff - 1;
; 602  : 			size_type _Block = _Newoff / _DEQUESIZ;
; 603  : 			if (_Mapsize <= _Block)
; 604  : 				_Block -= _Mapsize;
; 605  : 			this->_Alval.destroy(_Map[_Block] + _Newoff % _DEQUESIZ);
; 606  : 			if (--_Mysize == 0)

  00007	48		 dec	 eax
  00008	89 41 10	 mov	 DWORD PTR [ecx+16], eax
  0000b	75 07		 jne	 SHORT $L225825

; 607  : 				_Myoff = 0;

  0000d	c7 41 0c 00 00
	00 00		 mov	 DWORD PTR [ecx+12], 0
$L225825:

; 608  : 			}
; 609  : 		}

  00014	c3		 ret	 0
?pop_back@?$deque@PAUtagACTMSG@@V?$allocator@PAUtagACTMSG@@@std@@@std@@QAEXXZ ENDP ; std::deque<tagACTMSG *,std::allocator<tagACTMSG *> >::pop_back
_TEXT	ENDS
PUBLIC	?pop_back@?$deque@PAUtagMAGICATKMSG@@V?$allocator@PAUtagMAGICATKMSG@@@std@@@std@@QAEXXZ ; std::deque<tagMAGICATKMSG *,std::allocator<tagMAGICATKMSG *> >::pop_back
; Function compile flags: /Ogty
;	COMDAT ?pop_back@?$deque@PAUtagMAGICATKMSG@@V?$allocator@PAUtagMAGICATKMSG@@@std@@@std@@QAEXXZ
_TEXT	SEGMENT
?pop_back@?$deque@PAUtagMAGICATKMSG@@V?$allocator@PAUtagMAGICATKMSG@@@std@@@std@@QAEXXZ PROC NEAR ; std::deque<tagMAGICATKMSG *,std::allocator<tagMAGICATKMSG *> >::pop_back, COMDAT
; _this$ = ecx

; 599  : 		if (!empty())

  00000	8b 41 10	 mov	 eax, DWORD PTR [ecx+16]
  00003	85 c0		 test	 eax, eax
  00005	74 0d		 je	 SHORT $L225849

; 600  : 			{	// something to erase, do it
; 601  : 			size_type _Newoff = _Mysize + _Myoff - 1;
; 602  : 			size_type _Block = _Newoff / _DEQUESIZ;
; 603  : 			if (_Mapsize <= _Block)
; 604  : 				_Block -= _Mapsize;
; 605  : 			this->_Alval.destroy(_Map[_Block] + _Newoff % _DEQUESIZ);
; 606  : 			if (--_Mysize == 0)

  00007	48		 dec	 eax
  00008	89 41 10	 mov	 DWORD PTR [ecx+16], eax
  0000b	75 07		 jne	 SHORT $L225849

; 607  : 				_Myoff = 0;

  0000d	c7 41 0c 00 00
	00 00		 mov	 DWORD PTR [ecx+12], 0
$L225849:

; 608  : 			}
; 609  : 		}

  00014	c3		 ret	 0
?pop_back@?$deque@PAUtagMAGICATKMSG@@V?$allocator@PAUtagMAGICATKMSG@@@std@@@std@@QAEXXZ ENDP ; std::deque<tagMAGICATKMSG *,std::allocator<tagMAGICATKMSG *> >::pop_back
_TEXT	ENDS
PUBLIC	?ClearState@CAction@@QAEXXZ			; CAction::ClearState
; Function compile flags: /Ogty
; File c:\documents and settings\test\mes documents\source\virtuos_v17\build\program\_aiinterface\action.cpp
;	COMDAT ?ClearState@CAction@@QAEXXZ
_TEXT	SEGMENT
?ClearState@CAction@@QAEXXZ PROC NEAR			; CAction::ClearState, COMDAT
; _this$ = ecx

; 148  : {

  00000	53		 push	 ebx
  00001	56		 push	 esi
  00002	8b f1		 mov	 esi, ecx

; 149  : 	DWORD dwState = m_dwState;
; 150  : 	// 0xFFFFFFFF 로 한꺼번에 리셋 시키지 말것.
; 151  : //	ResetState( OBJSTA_MOVE_ALL | OBJSTA_TURN_ALL | OBJSTA_LOOK_ALL | OBJSTA_JUMP_ALL | OBJSTA_ATK_ALL | OBJSTA_DMG_ALL );
; 152  : 	ResetState( OBJSTA_ALL );

  00004	8b 5e 04	 mov	 ebx, DWORD PTR [esi+4]
  00007	80 fb 03	 cmp	 bl, 3
  0000a	75 04		 jne	 SHORT $L227390
  0000c	83 66 08 fb	 and	 DWORD PTR [esi+8], -5	; fffffffbH
$L227390:
  00010	8b c3		 mov	 eax, ebx
  00012	25 00 f0 00 00	 and	 eax, 61440		; 0000f000H
  00017	3d 00 80 00 00	 cmp	 eax, 32768		; 00008000H
  0001c	c7 46 04 00 00
	00 00		 mov	 DWORD PTR [esi+4], 0
  00023	75 08		 jne	 SHORT $L227399
  00025	8b 4e 0c	 mov	 ecx, DWORD PTR [esi+12]
  00028	e8 00 00 00 00	 call	 ?OnActEndJump4@CMover@@QAEXXZ ; CMover::OnActEndJump4
$L227399:
  0002d	53		 push	 ebx
  0002e	8b ce		 mov	 ecx, esi
  00030	c7 46 04 00 00
	00 00		 mov	 DWORD PTR [esi+4], 0
  00037	e8 00 00 00 00	 call	 ?OnEndAttackState@CAction@@QAEXK@Z ; CAction::OnEndAttackState
  0003c	c7 46 04 00 00
	00 00		 mov	 DWORD PTR [esi+4], 0
  00043	5e		 pop	 esi
  00044	5b		 pop	 ebx

; 153  : 	
; 154  : 	if( m_dwState )
; 155  : 	{
; 156  : 		Error( "CAction::ClearState : 아직도 뭔가 클리어되지 않은 값이 있다. %08x, %08x", dwState, m_dwState );
; 157  : 		m_dwState = 0; 
; 158  : 	}
; 159  : }

  00045	c3		 ret	 0
?ClearState@CAction@@QAEXXZ ENDP			; CAction::ClearState
_TEXT	ENDS
PUBLIC	??0?$deque@PAUtagACTMSG@@V?$allocator@PAUtagACTMSG@@@std@@@std@@QAE@XZ ; std::deque<tagACTMSG *,std::allocator<tagACTMSG *> >::deque<tagACTMSG *,std::allocator<tagACTMSG *> >
; Function compile flags: /Ogty
; File c:\program files\microsoft visual studio .net 2003\vc7\include\deque
;	COMDAT ??0?$deque@PAUtagACTMSG@@V?$allocator@PAUtagACTMSG@@@std@@@std@@QAE@XZ
_TEXT	SEGMENT
??0?$deque@PAUtagACTMSG@@V?$allocator@PAUtagACTMSG@@@std@@@std@@QAE@XZ PROC NEAR ; std::deque<tagACTMSG *,std::allocator<tagACTMSG *> >::deque<tagACTMSG *,std::allocator<tagACTMSG *> >, COMDAT
; _this$ = ecx

; 327  : 		{	// construct empty deque

  00000	8b c1		 mov	 eax, ecx
  00002	33 c9		 xor	 ecx, ecx
  00004	89 48 04	 mov	 DWORD PTR [eax+4], ecx
  00007	89 48 08	 mov	 DWORD PTR [eax+8], ecx
  0000a	89 48 0c	 mov	 DWORD PTR [eax+12], ecx
  0000d	89 48 10	 mov	 DWORD PTR [eax+16], ecx

; 328  : 		}

  00010	c3		 ret	 0
??0?$deque@PAUtagACTMSG@@V?$allocator@PAUtagACTMSG@@@std@@@std@@QAE@XZ ENDP ; std::deque<tagACTMSG *,std::allocator<tagACTMSG *> >::deque<tagACTMSG *,std::allocator<tagACTMSG *> >
_TEXT	ENDS
PUBLIC	??0?$deque@PAUtagMAGICATKMSG@@V?$allocator@PAUtagMAGICATKMSG@@@std@@@std@@QAE@XZ ; std::deque<tagMAGICATKMSG *,std::allocator<tagMAGICATKMSG *> >::deque<tagMAGICATKMSG *,std::allocator<tagMAGICATKMSG *> >
; Function compile flags: /Ogty
;	COMDAT ??0?$deque@PAUtagMAGICATKMSG@@V?$allocator@PAUtagMAGICATKMSG@@@std@@@std@@QAE@XZ
_TEXT	SEGMENT
??0?$deque@PAUtagMAGICATKMSG@@V?$allocator@PAUtagMAGICATKMSG@@@std@@@std@@QAE@XZ PROC NEAR ; std::deque<tagMAGICATKMSG *,std::allocator<tagMAGICATKMSG *> >::deque<tagMAGICATKMSG *,std::allocator<tagMAGICATKMSG *> >, COMDAT
; _this$ = ecx

; 327  : 		{	// construct empty deque

  00000	8b c1		 mov	 eax, ecx
  00002	33 c9		 xor	 ecx, ecx
  00004	89 48 04	 mov	 DWORD PTR [eax+4], ecx
  00007	89 48 08	 mov	 DWORD PTR [eax+8], ecx
  0000a	89 48 0c	 mov	 DWORD PTR [eax+12], ecx
  0000d	89 48 10	 mov	 DWORD PTR [eax+16], ecx

; 328  : 		}

  00010	c3		 ret	 0
??0?$deque@PAUtagMAGICATKMSG@@V?$allocator@PAUtagMAGICATKMSG@@@std@@@std@@QAE@XZ ENDP ; std::deque<tagMAGICATKMSG *,std::allocator<tagMAGICATKMSG *> >::deque<tagMAGICATKMSG *,std::allocator<tagMAGICATKMSG *> >
_TEXT	ENDS
PUBLIC	?_Tidy@?$deque@PAUtagACTMSG@@V?$allocator@PAUtagACTMSG@@@std@@@std@@IAEXXZ ; std::deque<tagACTMSG *,std::allocator<tagACTMSG *> >::_Tidy
; Function compile flags: /Ogty
;	COMDAT ?_Tidy@?$deque@PAUtagACTMSG@@V?$allocator@PAUtagACTMSG@@@std@@@std@@IAEXXZ
_TEXT	SEGMENT
?_Tidy@?$deque@PAUtagACTMSG@@V?$allocator@PAUtagACTMSG@@@std@@@std@@IAEXXZ PROC NEAR ; std::deque<tagACTMSG *,std::allocator<tagACTMSG *> >::_Tidy, COMDAT
; _this$ = ecx

; 950  : 		{	// free all storage

  00000	53		 push	 ebx
  00001	56		 push	 esi
  00002	8b f1		 mov	 esi, ecx

; 951  : 		while (!empty())

  00004	8b 46 10	 mov	 eax, DWORD PTR [esi+16]
  00007	33 db		 xor	 ebx, ebx
  00009	3b c3		 cmp	 eax, ebx
  0000b	74 1a		 je	 SHORT $L225773
  0000d	8d 49 00	 npad	 3
$L225772:

; 952  : 			pop_back();

  00010	8b 46 10	 mov	 eax, DWORD PTR [esi+16]
  00013	3b c3		 cmp	 eax, ebx
  00015	74 0b		 je	 SHORT $L227508
  00017	48		 dec	 eax
  00018	3b c3		 cmp	 eax, ebx
  0001a	89 46 10	 mov	 DWORD PTR [esi+16], eax
  0001d	75 03		 jne	 SHORT $L227508
  0001f	89 5e 0c	 mov	 DWORD PTR [esi+12], ebx
$L227508:
  00022	39 5e 10	 cmp	 DWORD PTR [esi+16], ebx
  00025	75 e9		 jne	 SHORT $L225772
$L225773:
  00027	57		 push	 edi

; 953  : 		for (size_type _Count = _Mapsize; 0 < _Count; )

  00028	8b 7e 08	 mov	 edi, DWORD PTR [esi+8]
  0002b	3b fb		 cmp	 edi, ebx
  0002d	76 1a		 jbe	 SHORT $L225777
  0002f	90		 npad	 1
$L225776:

; 954  : 			{	// free storage for a block and destroy pointer
; 955  : 			if (*(_Map + --_Count) != 0)

  00030	8b 46 04	 mov	 eax, DWORD PTR [esi+4]
  00033	8b 44 b8 fc	 mov	 eax, DWORD PTR [eax+edi*4-4]
  00037	4f		 dec	 edi
  00038	3b c3		 cmp	 eax, ebx
  0003a	74 09		 je	 SHORT $L227511

; 956  : 				this->_Alval.deallocate(*(_Map + _Count), _DEQUESIZ);

  0003c	50		 push	 eax
  0003d	e8 00 00 00 00	 call	 ??3@YAXPAX@Z		; operator delete
  00042	83 c4 04	 add	 esp, 4
$L227511:

; 953  : 		for (size_type _Count = _Mapsize; 0 < _Count; )

  00045	3b fb		 cmp	 edi, ebx
  00047	77 e7		 ja	 SHORT $L225776
$L225777:

; 957  : 			this->_Almap.destroy(_Map + _Count);
; 958  : 			}
; 959  : 
; 960  : 		if (_Map)

  00049	8b 46 04	 mov	 eax, DWORD PTR [esi+4]
  0004c	3b c3		 cmp	 eax, ebx
  0004e	5f		 pop	 edi
  0004f	74 09		 je	 SHORT $L227521

; 961  : 			this->_Almap.deallocate(_Map, _Mapsize);	// free storage for map

  00051	50		 push	 eax
  00052	e8 00 00 00 00	 call	 ??3@YAXPAX@Z		; operator delete
  00057	83 c4 04	 add	 esp, 4
$L227521:

; 962  : 		_Mapsize = 0;

  0005a	89 5e 08	 mov	 DWORD PTR [esi+8], ebx

; 963  : 		_Map = 0;

  0005d	89 5e 04	 mov	 DWORD PTR [esi+4], ebx
  00060	5e		 pop	 esi
  00061	5b		 pop	 ebx

; 964  : 		}

  00062	c3		 ret	 0
?_Tidy@?$deque@PAUtagACTMSG@@V?$allocator@PAUtagACTMSG@@@std@@@std@@IAEXXZ ENDP ; std::deque<tagACTMSG *,std::allocator<tagACTMSG *> >::_Tidy
_TEXT	ENDS
PUBLIC	?_Tidy@?$deque@PAUtagMAGICATKMSG@@V?$allocator@PAUtagMAGICATKMSG@@@std@@@std@@IAEXXZ ; std::deque<tagMAGICATKMSG *,std::allocator<tagMAGICATKMSG *> >::_Tidy
; Function compile flags: /Ogty
;	COMDAT ?_Tidy@?$deque@PAUtagMAGICATKMSG@@V?$allocator@PAUtagMAGICATKMSG@@@std@@@std@@IAEXXZ
_TEXT	SEGMENT
?_Tidy@?$deque@PAUtagMAGICATKMSG@@V?$allocator@PAUtagMAGICATKMSG@@@std@@@std@@IAEXXZ PROC NEAR ; std::deque<tagMAGICATKMSG *,std::allocator<tagMAGICATKMSG *> >::_Tidy, COMDAT
; _this$ = ecx

; 950  : 		{	// free all storage

  00000	53		 push	 ebx
  00001	56		 push	 esi
  00002	8b f1		 mov	 esi, ecx

; 951  : 		while (!empty())

  00004	8b 46 10	 mov	 eax, DWORD PTR [esi+16]
  00007	33 db		 xor	 ebx, ebx
  00009	3b c3		 cmp	 eax, ebx
  0000b	74 1a		 je	 SHORT $L225789
  0000d	8d 49 00	 npad	 3
$L225788:

; 952  : 			pop_back();

  00010	8b 46 10	 mov	 eax, DWORD PTR [esi+16]
  00013	3b c3		 cmp	 eax, ebx
  00015	74 0b		 je	 SHORT $L227540
  00017	48		 dec	 eax
  00018	3b c3		 cmp	 eax, ebx
  0001a	89 46 10	 mov	 DWORD PTR [esi+16], eax
  0001d	75 03		 jne	 SHORT $L227540
  0001f	89 5e 0c	 mov	 DWORD PTR [esi+12], ebx
$L227540:
  00022	39 5e 10	 cmp	 DWORD PTR [esi+16], ebx
  00025	75 e9		 jne	 SHORT $L225788
$L225789:
  00027	57		 push	 edi

; 953  : 		for (size_type _Count = _Mapsize; 0 < _Count; )

  00028	8b 7e 08	 mov	 edi, DWORD PTR [esi+8]
  0002b	3b fb		 cmp	 edi, ebx
  0002d	76 1a		 jbe	 SHORT $L225793
  0002f	90		 npad	 1
$L225792:

; 954  : 			{	// free storage for a block and destroy pointer
; 955  : 			if (*(_Map + --_Count) != 0)

  00030	8b 46 04	 mov	 eax, DWORD PTR [esi+4]
  00033	8b 44 b8 fc	 mov	 eax, DWORD PTR [eax+edi*4-4]
  00037	4f		 dec	 edi
  00038	3b c3		 cmp	 eax, ebx
  0003a	74 09		 je	 SHORT $L227543

; 956  : 				this->_Alval.deallocate(*(_Map + _Count), _DEQUESIZ);

  0003c	50		 push	 eax
  0003d	e8 00 00 00 00	 call	 ??3@YAXPAX@Z		; operator delete
  00042	83 c4 04	 add	 esp, 4
$L227543:

; 953  : 		for (size_type _Count = _Mapsize; 0 < _Count; )

  00045	3b fb		 cmp	 edi, ebx
  00047	77 e7		 ja	 SHORT $L225792
$L225793:

; 957  : 			this->_Almap.destroy(_Map + _Count);
; 958  : 			}
; 959  : 
; 960  : 		if (_Map)

  00049	8b 46 04	 mov	 eax, DWORD PTR [esi+4]
  0004c	3b c3		 cmp	 eax, ebx
  0004e	5f		 pop	 edi
  0004f	74 09		 je	 SHORT $L227553

; 961  : 			this->_Almap.deallocate(_Map, _Mapsize);	// free storage for map

  00051	50		 push	 eax
  00052	e8 00 00 00 00	 call	 ??3@YAXPAX@Z		; operator delete
  00057	83 c4 04	 add	 esp, 4
$L227553:

; 962  : 		_Mapsize = 0;

  0005a	89 5e 08	 mov	 DWORD PTR [esi+8], ebx

; 963  : 		_Map = 0;

  0005d	89 5e 04	 mov	 DWORD PTR [esi+4], ebx
  00060	5e		 pop	 esi
  00061	5b		 pop	 ebx

; 964  : 		}

  00062	c3		 ret	 0
?_Tidy@?$deque@PAUtagMAGICATKMSG@@V?$allocator@PAUtagMAGICATKMSG@@@std@@@std@@IAEXXZ ENDP ; std::deque<tagMAGICATKMSG *,std::allocator<tagMAGICATKMSG *> >::_Tidy
_TEXT	ENDS
PUBLIC	??1?$deque@PAUtagACTMSG@@V?$allocator@PAUtagACTMSG@@@std@@@std@@QAE@XZ ; std::deque<tagACTMSG *,std::allocator<tagACTMSG *> >::~deque<tagACTMSG *,std::allocator<tagACTMSG *> >
; Function compile flags: /Ogty
;	COMDAT ??1?$deque@PAUtagACTMSG@@V?$allocator@PAUtagACTMSG@@@std@@@std@@QAE@XZ
_TEXT	SEGMENT
??1?$deque@PAUtagACTMSG@@V?$allocator@PAUtagACTMSG@@@std@@@std@@QAE@XZ PROC NEAR ; std::deque<tagACTMSG *,std::allocator<tagACTMSG *> >::~deque<tagACTMSG *,std::allocator<tagACTMSG *> >, COMDAT
; _this$ = ecx

; 414  : 		_Tidy();

  00000	e9 00 00 00 00	 jmp	 ?_Tidy@?$deque@PAUtagACTMSG@@V?$allocator@PAUtagACTMSG@@@std@@@std@@IAEXXZ ; std::deque<tagACTMSG *,std::allocator<tagACTMSG *> >::_Tidy
??1?$deque@PAUtagACTMSG@@V?$allocator@PAUtagACTMSG@@@std@@@std@@QAE@XZ ENDP ; std::deque<tagACTMSG *,std::allocator<tagACTMSG *> >::~deque<tagACTMSG *,std::allocator<tagACTMSG *> >
_TEXT	ENDS
PUBLIC	?clear@?$deque@PAUtagACTMSG@@V?$allocator@PAUtagACTMSG@@@std@@@std@@QAEXXZ ; std::deque<tagACTMSG *,std::allocator<tagACTMSG *> >::clear
; Function compile flags: /Ogty
;	COMDAT ?clear@?$deque@PAUtagACTMSG@@V?$allocator@PAUtagACTMSG@@@std@@@std@@QAEXXZ
_TEXT	SEGMENT
?clear@?$deque@PAUtagACTMSG@@V?$allocator@PAUtagACTMSG@@@std@@@std@@QAEXXZ PROC NEAR ; std::deque<tagACTMSG *,std::allocator<tagACTMSG *> >::clear, COMDAT
; _this$ = ecx

; 799  : 		_Tidy();

  00000	e9 00 00 00 00	 jmp	 ?_Tidy@?$deque@PAUtagACTMSG@@V?$allocator@PAUtagACTMSG@@@std@@@std@@IAEXXZ ; std::deque<tagACTMSG *,std::allocator<tagACTMSG *> >::_Tidy
?clear@?$deque@PAUtagACTMSG@@V?$allocator@PAUtagACTMSG@@@std@@@std@@QAEXXZ ENDP ; std::deque<tagACTMSG *,std::allocator<tagACTMSG *> >::clear
_TEXT	ENDS
PUBLIC	??1?$deque@PAUtagMAGICATKMSG@@V?$allocator@PAUtagMAGICATKMSG@@@std@@@std@@QAE@XZ ; std::deque<tagMAGICATKMSG *,std::allocator<tagMAGICATKMSG *> >::~deque<tagMAGICATKMSG *,std::allocator<tagMAGICATKMSG *> >
; Function compile flags: /Ogty
;	COMDAT ??1?$deque@PAUtagMAGICATKMSG@@V?$allocator@PAUtagMAGICATKMSG@@@std@@@std@@QAE@XZ
_TEXT	SEGMENT
??1?$deque@PAUtagMAGICATKMSG@@V?$allocator@PAUtagMAGICATKMSG@@@std@@@std@@QAE@XZ PROC NEAR ; std::deque<tagMAGICATKMSG *,std::allocator<tagMAGICATKMSG *> >::~deque<tagMAGICATKMSG *,std::allocator<tagMAGICATKMSG *> >, COMDAT
; _this$ = ecx

; 414  : 		_Tidy();

  00000	e9 00 00 00 00	 jmp	 ?_Tidy@?$deque@PAUtagMAGICATKMSG@@V?$allocator@PAUtagMAGICATKMSG@@@std@@@std@@IAEXXZ ; std::deque<tagMAGICATKMSG *,std::allocator<tagMAGICATKMSG *> >::_Tidy
??1?$deque@PAUtagMAGICATKMSG@@V?$allocator@PAUtagMAGICATKMSG@@@std@@@std@@QAE@XZ ENDP ; std::deque<tagMAGICATKMSG *,std::allocator<tagMAGICATKMSG *> >::~deque<tagMAGICATKMSG *,std::allocator<tagMAGICATKMSG *> >
_TEXT	ENDS
PUBLIC	?clear@?$deque@PAUtagMAGICATKMSG@@V?$allocator@PAUtagMAGICATKMSG@@@std@@@std@@QAEXXZ ; std::deque<tagMAGICATKMSG *,std::allocator<tagMAGICATKMSG *> >::clear
; Function compile flags: /Ogty
;	COMDAT ?clear@?$deque@PAUtagMAGICATKMSG@@V?$allocator@PAUtagMAGICATKMSG@@@std@@@std@@QAEXXZ
_TEXT	SEGMENT
?clear@?$deque@PAUtagMAGICATKMSG@@V?$allocator@PAUtagMAGICATKMSG@@@std@@@std@@QAEXXZ PROC NEAR ; std::deque<tagMAGICATKMSG *,std::allocator<tagMAGICATKMSG *> >::clear, COMDAT
; _this$ = ecx

; 799  : 		_Tidy();

  00000	e9 00 00 00 00	 jmp	 ?_Tidy@?$deque@PAUtagMAGICATKMSG@@V?$allocator@PAUtagMAGICATKMSG@@@std@@@std@@IAEXXZ ; std::deque<tagMAGICATKMSG *,std::allocator<tagMAGICATKMSG *> >::_Tidy
?clear@?$deque@PAUtagMAGICATKMSG@@V?$allocator@PAUtagMAGICATKMSG@@@std@@@std@@QAEXXZ ENDP ; std::deque<tagMAGICATKMSG *,std::allocator<tagMAGICATKMSG *> >::clear
_TEXT	ENDS
PUBLIC	??0?$CActMsgq@UtagACTMSG@@@@QAE@XZ		; CActMsgq<tagACTMSG>::CActMsgq<tagACTMSG>
PUBLIC	??_7?$CActMsgq@UtagACTMSG@@@@6B@		; CActMsgq<tagACTMSG>::`vftable'
PUBLIC	??_G?$CActMsgq@UtagACTMSG@@@@UAEPAXI@Z		; CActMsgq<tagACTMSG>::`scalar deleting destructor'
EXTRN	??_E?$CActMsgq@UtagACTMSG@@@@UAEPAXI@Z:NEAR	; CActMsgq<tagACTMSG>::`vector deleting destructor'
;	COMDAT ??_7?$CActMsgq@UtagACTMSG@@@@6B@
; File c:\program files\microsoft visual studio .net 2003\vc7\include\xmemory
CONST	SEGMENT
??_7?$CActMsgq@UtagACTMSG@@@@6B@ DD FLAT:??_E?$CActMsgq@UtagACTMSG@@@@UAEPAXI@Z ; CActMsgq<tagACTMSG>::`vftable'
; Function compile flags: /Ogty
; File c:\documents and settings\test\mes documents\source\virtuos_v17\build\program\_aiinterface\action.h
CONST	ENDS
;	COMDAT ??0?$CActMsgq@UtagACTMSG@@@@QAE@XZ
_TEXT	SEGMENT
??0?$CActMsgq@UtagACTMSG@@@@QAE@XZ PROC NEAR		; CActMsgq<tagACTMSG>::CActMsgq<tagACTMSG>, COMDAT
; _this$ = ecx

; 108  : {

  00000	8b c1		 mov	 eax, ecx
  00002	33 c9		 xor	 ecx, ecx
  00004	c7 00 00 00 00
	00		 mov	 DWORD PTR [eax], OFFSET FLAT:??_7?$CActMsgq@UtagACTMSG@@@@6B@
  0000a	89 48 08	 mov	 DWORD PTR [eax+8], ecx
  0000d	89 48 0c	 mov	 DWORD PTR [eax+12], ecx
  00010	89 48 10	 mov	 DWORD PTR [eax+16], ecx
  00013	89 48 14	 mov	 DWORD PTR [eax+20], ecx

; 109  : }

  00016	c3		 ret	 0
??0?$CActMsgq@UtagACTMSG@@@@QAE@XZ ENDP			; CActMsgq<tagACTMSG>::CActMsgq<tagACTMSG>
_TEXT	ENDS
PUBLIC	??1?$CActMsgq@UtagACTMSG@@@@UAE@XZ		; CActMsgq<tagACTMSG>::~CActMsgq<tagACTMSG>
; Function compile flags: /Ogty
;	COMDAT ??1?$CActMsgq@UtagACTMSG@@@@UAE@XZ
_TEXT	SEGMENT
??1?$CActMsgq@UtagACTMSG@@@@UAE@XZ PROC NEAR		; CActMsgq<tagACTMSG>::~CActMsgq<tagACTMSG>, COMDAT
; _this$ = ecx

; 112  : {

  00000	56		 push	 esi

; 113  : 	for( deque<T*>::iterator i = m_qpam.begin(); i != m_qpam.end(); ++i )

  00001	8d 71 04	 lea	 esi, DWORD PTR [ecx+4]
  00004	57		 push	 edi
  00005	c7 01 00 00 00
	00		 mov	 DWORD PTR [ecx], OFFSET FLAT:??_7?$CActMsgq@UtagACTMSG@@@@6B@
  0000b	8b 7e 0c	 mov	 edi, DWORD PTR [esi+12]
  0000e	8b ff		 npad	 2
$L227648:
  00010	8b 46 10	 mov	 eax, DWORD PTR [esi+16]
  00013	03 46 0c	 add	 eax, DWORD PTR [esi+12]
  00016	3b f6		 cmp	 esi, esi
  00018	75 04		 jne	 SHORT $L227676
  0001a	3b f8		 cmp	 edi, eax
  0001c	74 30		 je	 SHORT $L227702
$L227676:

; 114  : 		safe_delete( *i );

  0001e	8b c7		 mov	 eax, edi
  00020	c1 e8 02	 shr	 eax, 2
  00023	8d 0c 85 00 00
	00 00		 lea	 ecx, DWORD PTR [eax*4]
  0002a	8b d1		 mov	 edx, ecx
  0002c	8b cf		 mov	 ecx, edi
  0002e	2b ca		 sub	 ecx, edx
  00030	8b 56 08	 mov	 edx, DWORD PTR [esi+8]
  00033	3b d0		 cmp	 edx, eax
  00035	77 02		 ja	 SHORT $L227692
  00037	2b c2		 sub	 eax, edx
$L227692:
  00039	8b 56 04	 mov	 edx, DWORD PTR [esi+4]
  0003c	8b 04 82	 mov	 eax, DWORD PTR [edx+eax*4]
  0003f	8b 0c 88	 mov	 ecx, DWORD PTR [eax+ecx*4]
  00042	51		 push	 ecx
  00043	e8 00 00 00 00	 call	 ??3@YAXPAX@Z		; operator delete
  00048	83 c4 04	 add	 esp, 4
  0004b	47		 inc	 edi
  0004c	eb c2		 jmp	 SHORT $L227648
$L227702:

; 115  : 	m_qpam.clear();

  0004e	8b ce		 mov	 ecx, esi
  00050	e8 00 00 00 00	 call	 ?_Tidy@?$deque@PAUtagACTMSG@@V?$allocator@PAUtagACTMSG@@@std@@@std@@IAEXXZ ; std::deque<tagACTMSG *,std::allocator<tagACTMSG *> >::_Tidy
  00055	5f		 pop	 edi

; 116  : }

  00056	8b ce		 mov	 ecx, esi
  00058	5e		 pop	 esi
  00059	e9 00 00 00 00	 jmp	 ?_Tidy@?$deque@PAUtagACTMSG@@V?$allocator@PAUtagACTMSG@@@std@@@std@@IAEXXZ ; std::deque<tagACTMSG *,std::allocator<tagACTMSG *> >::_Tidy
??1?$CActMsgq@UtagACTMSG@@@@UAE@XZ ENDP			; CActMsgq<tagACTMSG>::~CActMsgq<tagACTMSG>
_TEXT	ENDS
PUBLIC	??0?$CActMsgq@UtagMAGICATKMSG@@@@QAE@XZ		; CActMsgq<tagMAGICATKMSG>::CActMsgq<tagMAGICATKMSG>
PUBLIC	??_7?$CActMsgq@UtagMAGICATKMSG@@@@6B@		; CActMsgq<tagMAGICATKMSG>::`vftable'
PUBLIC	??_G?$CActMsgq@UtagMAGICATKMSG@@@@UAEPAXI@Z	; CActMsgq<tagMAGICATKMSG>::`scalar deleting destructor'
EXTRN	??_E?$CActMsgq@UtagMAGICATKMSG@@@@UAEPAXI@Z:NEAR ; CActMsgq<tagMAGICATKMSG>::`vector deleting destructor'
;	COMDAT ??_7?$CActMsgq@UtagMAGICATKMSG@@@@6B@
; File c:\program files\microsoft visual studio .net 2003\vc7\include\xmemory
CONST	SEGMENT
??_7?$CActMsgq@UtagMAGICATKMSG@@@@6B@ DD FLAT:??_E?$CActMsgq@UtagMAGICATKMSG@@@@UAEPAXI@Z ; CActMsgq<tagMAGICATKMSG>::`vftable'
; Function compile flags: /Ogty
; File c:\documents and settings\test\mes documents\source\virtuos_v17\build\program\_aiinterface\action.h
CONST	ENDS
;	COMDAT ??0?$CActMsgq@UtagMAGICATKMSG@@@@QAE@XZ
_TEXT	SEGMENT
??0?$CActMsgq@UtagMAGICATKMSG@@@@QAE@XZ PROC NEAR	; CActMsgq<tagMAGICATKMSG>::CActMsgq<tagMAGICATKMSG>, COMDAT
; _this$ = ecx

; 108  : {

  00000	8b c1		 mov	 eax, ecx
  00002	33 c9		 xor	 ecx, ecx
  00004	c7 00 00 00 00
	00		 mov	 DWORD PTR [eax], OFFSET FLAT:??_7?$CActMsgq@UtagMAGICATKMSG@@@@6B@
  0000a	89 48 08	 mov	 DWORD PTR [eax+8], ecx
  0000d	89 48 0c	 mov	 DWORD PTR [eax+12], ecx
  00010	89 48 10	 mov	 DWORD PTR [eax+16], ecx
  00013	89 48 14	 mov	 DWORD PTR [eax+20], ecx

; 109  : }

  00016	c3		 ret	 0
??0?$CActMsgq@UtagMAGICATKMSG@@@@QAE@XZ ENDP		; CActMsgq<tagMAGICATKMSG>::CActMsgq<tagMAGICATKMSG>
_TEXT	ENDS
PUBLIC	??1?$CActMsgq@UtagMAGICATKMSG@@@@UAE@XZ		; CActMsgq<tagMAGICATKMSG>::~CActMsgq<tagMAGICATKMSG>
; Function compile flags: /Ogty
;	COMDAT ??1?$CActMsgq@UtagMAGICATKMSG@@@@UAE@XZ
_TEXT	SEGMENT
??1?$CActMsgq@UtagMAGICATKMSG@@@@UAE@XZ PROC NEAR	; CActMsgq<tagMAGICATKMSG>::~CActMsgq<tagMAGICATKMSG>, COMDAT
; _this$ = ecx

; 112  : {

  00000	56		 push	 esi

; 113  : 	for( deque<T*>::iterator i = m_qpam.begin(); i != m_qpam.end(); ++i )

  00001	8d 71 04	 lea	 esi, DWORD PTR [ecx+4]
  00004	57		 push	 edi
  00005	c7 01 00 00 00
	00		 mov	 DWORD PTR [ecx], OFFSET FLAT:??_7?$CActMsgq@UtagMAGICATKMSG@@@@6B@
  0000b	8b 7e 0c	 mov	 edi, DWORD PTR [esi+12]
  0000e	8b ff		 npad	 2
$L227786:
  00010	8b 46 10	 mov	 eax, DWORD PTR [esi+16]
  00013	03 46 0c	 add	 eax, DWORD PTR [esi+12]
  00016	3b f6		 cmp	 esi, esi
  00018	75 04		 jne	 SHORT $L227814
  0001a	3b f8		 cmp	 edi, eax
  0001c	74 30		 je	 SHORT $L227840
$L227814:

; 114  : 		safe_delete( *i );

  0001e	8b c7		 mov	 eax, edi
  00020	c1 e8 02	 shr	 eax, 2
  00023	8d 0c 85 00 00
	00 00		 lea	 ecx, DWORD PTR [eax*4]
  0002a	8b d1		 mov	 edx, ecx
  0002c	8b cf		 mov	 ecx, edi
  0002e	2b ca		 sub	 ecx, edx
  00030	8b 56 08	 mov	 edx, DWORD PTR [esi+8]
  00033	3b d0		 cmp	 edx, eax
  00035	77 02		 ja	 SHORT $L227831
  00037	2b c2		 sub	 eax, edx
$L227831:
  00039	8b 56 04	 mov	 edx, DWORD PTR [esi+4]
  0003c	8b 04 82	 mov	 eax, DWORD PTR [edx+eax*4]
  0003f	8b 0c 88	 mov	 ecx, DWORD PTR [eax+ecx*4]
  00042	51		 push	 ecx
  00043	e8 00 00 00 00	 call	 ??3@YAXPAX@Z		; operator delete
  00048	83 c4 04	 add	 esp, 4
  0004b	47		 inc	 edi
  0004c	eb c2		 jmp	 SHORT $L227786
$L227840:

; 115  : 	m_qpam.clear();

  0004e	8b ce		 mov	 ecx, esi
  00050	e8 00 00 00 00	 call	 ?_Tidy@?$deque@PAUtagMAGICATKMSG@@V?$allocator@PAUtagMAGICATKMSG@@@std@@@std@@IAEXXZ ; std::deque<tagMAGICATKMSG *,std::allocator<tagMAGICATKMSG *> >::_Tidy
  00055	5f		 pop	 edi

; 116  : }

  00056	8b ce		 mov	 ecx, esi
  00058	5e		 pop	 esi
  00059	e9 00 00 00 00	 jmp	 ?_Tidy@?$deque@PAUtagMAGICATKMSG@@V?$allocator@PAUtagMAGICATKMSG@@@std@@@std@@IAEXXZ ; std::deque<tagMAGICATKMSG *,std::allocator<tagMAGICATKMSG *> >::_Tidy
??1?$CActMsgq@UtagMAGICATKMSG@@@@UAE@XZ ENDP		; CActMsgq<tagMAGICATKMSG>::~CActMsgq<tagMAGICATKMSG>
; Function compile flags: /Ogty
_TEXT	ENDS
;	COMDAT ??_G?$CActMsgq@UtagACTMSG@@@@UAEPAXI@Z
_TEXT	SEGMENT
___flags$ = 8						; size = 4
??_G?$CActMsgq@UtagACTMSG@@@@UAEPAXI@Z PROC NEAR	; CActMsgq<tagACTMSG>::`scalar deleting destructor', COMDAT
; _this$ = ecx
  00000	56		 push	 esi
  00001	8b f1		 mov	 esi, ecx
  00003	e8 00 00 00 00	 call	 ??1?$CActMsgq@UtagACTMSG@@@@UAE@XZ ; CActMsgq<tagACTMSG>::~CActMsgq<tagACTMSG>
  00008	f6 44 24 08 01	 test	 BYTE PTR ___flags$[esp], 1
  0000d	74 09		 je	 SHORT $L227845
  0000f	56		 push	 esi
  00010	e8 00 00 00 00	 call	 ??3@YAXPAX@Z		; operator delete
  00015	83 c4 04	 add	 esp, 4
$L227845:
  00018	8b c6		 mov	 eax, esi
  0001a	5e		 pop	 esi
  0001b	c2 04 00	 ret	 4
??_G?$CActMsgq@UtagACTMSG@@@@UAEPAXI@Z ENDP		; CActMsgq<tagACTMSG>::`scalar deleting destructor'
; Function compile flags: /Ogty
_TEXT	ENDS
;	COMDAT ??_G?$CActMsgq@UtagMAGICATKMSG@@@@UAEPAXI@Z
_TEXT	SEGMENT
___flags$ = 8						; size = 4
??_G?$CActMsgq@UtagMAGICATKMSG@@@@UAEPAXI@Z PROC NEAR	; CActMsgq<tagMAGICATKMSG>::`scalar deleting destructor', COMDAT
; _this$ = ecx
  00000	56		 push	 esi
  00001	8b f1		 mov	 esi, ecx
  00003	e8 00 00 00 00	 call	 ??1?$CActMsgq@UtagMAGICATKMSG@@@@UAE@XZ ; CActMsgq<tagMAGICATKMSG>::~CActMsgq<tagMAGICATKMSG>
  00008	f6 44 24 08 01	 test	 BYTE PTR ___flags$[esp], 1
  0000d	74 09		 je	 SHORT $L227849
  0000f	56		 push	 esi
  00010	e8 00 00 00 00	 call	 ??3@YAXPAX@Z		; operator delete
  00015	83 c4 04	 add	 esp, 4
$L227849:
  00018	8b c6		 mov	 eax, esi
  0001a	5e		 pop	 esi
  0001b	c2 04 00	 ret	 4
??_G?$CActMsgq@UtagMAGICATKMSG@@@@UAEPAXI@Z ENDP	; CActMsgq<tagMAGICATKMSG>::`scalar deleting destructor'
_TEXT	ENDS
PUBLIC	??0CMeleeAtkMsgq@@QAE@XZ			; CMeleeAtkMsgq::CMeleeAtkMsgq
PUBLIC	??_7CMeleeAtkMsgq@@6B@				; CMeleeAtkMsgq::`vftable'
PUBLIC	??_GCMeleeAtkMsgq@@UAEPAXI@Z			; CMeleeAtkMsgq::`scalar deleting destructor'
EXTRN	??_ECMeleeAtkMsgq@@UAEPAXI@Z:NEAR		; CMeleeAtkMsgq::`vector deleting destructor'
;	COMDAT ??_7CMeleeAtkMsgq@@6B@
; File c:\program files\microsoft visual studio .net 2003\vc7\include\xmemory
CONST	SEGMENT
??_7CMeleeAtkMsgq@@6B@ DD FLAT:??_ECMeleeAtkMsgq@@UAEPAXI@Z ; CMeleeAtkMsgq::`vftable'
; Function compile flags: /Ogty
; File c:\documents and settings\test\mes documents\source\virtuos_v17\build\program\_aiinterface\action.h
CONST	ENDS
;	COMDAT ??0CMeleeAtkMsgq@@QAE@XZ
_TEXT	SEGMENT
??0CMeleeAtkMsgq@@QAE@XZ PROC NEAR			; CMeleeAtkMsgq::CMeleeAtkMsgq, COMDAT
; _this$ = ecx

; 170  : 	CMeleeAtkMsgq()	{}

  00000	8b c1		 mov	 eax, ecx
  00002	33 c9		 xor	 ecx, ecx
  00004	89 48 08	 mov	 DWORD PTR [eax+8], ecx
  00007	89 48 0c	 mov	 DWORD PTR [eax+12], ecx
  0000a	89 48 10	 mov	 DWORD PTR [eax+16], ecx
  0000d	89 48 14	 mov	 DWORD PTR [eax+20], ecx
  00010	c7 00 00 00 00
	00		 mov	 DWORD PTR [eax], OFFSET FLAT:??_7CMeleeAtkMsgq@@6B@
  00016	c3		 ret	 0
??0CMeleeAtkMsgq@@QAE@XZ ENDP				; CMeleeAtkMsgq::CMeleeAtkMsgq
_TEXT	ENDS
PUBLIC	??1CMeleeAtkMsgq@@UAE@XZ			; CMeleeAtkMsgq::~CMeleeAtkMsgq
; Function compile flags: /Ogty
;	COMDAT ??1CMeleeAtkMsgq@@UAE@XZ
_TEXT	SEGMENT
??1CMeleeAtkMsgq@@UAE@XZ PROC NEAR			; CMeleeAtkMsgq::~CMeleeAtkMsgq, COMDAT
; _this$ = ecx

; 171  : 	virtual ~CMeleeAtkMsgq() {}

  00000	c7 01 00 00 00
	00		 mov	 DWORD PTR [ecx], OFFSET FLAT:??_7CMeleeAtkMsgq@@6B@
  00006	e9 00 00 00 00	 jmp	 ??1?$CActMsgq@UtagACTMSG@@@@UAE@XZ ; CActMsgq<tagACTMSG>::~CActMsgq<tagACTMSG>
??1CMeleeAtkMsgq@@UAE@XZ ENDP				; CMeleeAtkMsgq::~CMeleeAtkMsgq
; Function compile flags: /Ogty
_TEXT	ENDS
;	COMDAT ??_GCMeleeAtkMsgq@@UAEPAXI@Z
_TEXT	SEGMENT
___flags$ = 8						; size = 4
??_GCMeleeAtkMsgq@@UAEPAXI@Z PROC NEAR			; CMeleeAtkMsgq::`scalar deleting destructor', COMDAT
; _this$ = ecx
  00000	56		 push	 esi
  00001	8b f1		 mov	 esi, ecx
  00003	e8 00 00 00 00	 call	 ??1CMeleeAtkMsgq@@UAE@XZ ; CMeleeAtkMsgq::~CMeleeAtkMsgq
  00008	f6 44 24 08 01	 test	 BYTE PTR ___flags$[esp], 1
  0000d	74 09		 je	 SHORT $L227933
  0000f	56		 push	 esi
  00010	e8 00 00 00 00	 call	 ??3@YAXPAX@Z		; operator delete
  00015	83 c4 04	 add	 esp, 4
$L227933:
  00018	8b c6		 mov	 eax, esi
  0001a	5e		 pop	 esi
  0001b	c2 04 00	 ret	 4
??_GCMeleeAtkMsgq@@UAEPAXI@Z ENDP			; CMeleeAtkMsgq::`scalar deleting destructor'
_TEXT	ENDS
PUBLIC	??0CMagicAtkMsgq@@QAE@XZ			; CMagicAtkMsgq::CMagicAtkMsgq
PUBLIC	??_7CMagicAtkMsgq@@6B@				; CMagicAtkMsgq::`vftable'
PUBLIC	??_GCMagicAtkMsgq@@UAEPAXI@Z			; CMagicAtkMsgq::`scalar deleting destructor'
EXTRN	??_ECMagicAtkMsgq@@UAEPAXI@Z:NEAR		; CMagicAtkMsgq::`vector deleting destructor'
;	COMDAT ??_7CMagicAtkMsgq@@6B@
; File c:\program files\microsoft visual studio .net 2003\vc7\include\xmemory
CONST	SEGMENT
??_7CMagicAtkMsgq@@6B@ DD FLAT:??_ECMagicAtkMsgq@@UAEPAXI@Z ; CMagicAtkMsgq::`vftable'
; Function compile flags: /Ogty
; File c:\documents and settings\test\mes documents\source\virtuos_v17\build\program\_aiinterface\action.h
CONST	ENDS
;	COMDAT ??0CMagicAtkMsgq@@QAE@XZ
_TEXT	SEGMENT
??0CMagicAtkMsgq@@QAE@XZ PROC NEAR			; CMagicAtkMsgq::CMagicAtkMsgq, COMDAT
; _this$ = ecx

; 200  : 	CMagicAtkMsgq()	{}

  00000	8b c1		 mov	 eax, ecx
  00002	33 c9		 xor	 ecx, ecx
  00004	89 48 08	 mov	 DWORD PTR [eax+8], ecx
  00007	89 48 0c	 mov	 DWORD PTR [eax+12], ecx
  0000a	89 48 10	 mov	 DWORD PTR [eax+16], ecx
  0000d	89 48 14	 mov	 DWORD PTR [eax+20], ecx
  00010	c7 00 00 00 00
	00		 mov	 DWORD PTR [eax], OFFSET FLAT:??_7CMagicAtkMsgq@@6B@
  00016	c3		 ret	 0
??0CMagicAtkMsgq@@QAE@XZ ENDP				; CMagicAtkMsgq::CMagicAtkMsgq
_TEXT	ENDS
PUBLIC	??1CMagicAtkMsgq@@UAE@XZ			; CMagicAtkMsgq::~CMagicAtkMsgq
; Function compile flags: /Ogty
;	COMDAT ??1CMagicAtkMsgq@@UAE@XZ
_TEXT	SEGMENT
??1CMagicAtkMsgq@@UAE@XZ PROC NEAR			; CMagicAtkMsgq::~CMagicAtkMsgq, COMDAT
; _this$ = ecx

; 201  : 	virtual	~CMagicAtkMsgq()	{}

  00000	c7 01 00 00 00
	00		 mov	 DWORD PTR [ecx], OFFSET FLAT:??_7CMagicAtkMsgq@@6B@
  00006	e9 00 00 00 00	 jmp	 ??1?$CActMsgq@UtagMAGICATKMSG@@@@UAE@XZ ; CActMsgq<tagMAGICATKMSG>::~CActMsgq<tagMAGICATKMSG>
??1CMagicAtkMsgq@@UAE@XZ ENDP				; CMagicAtkMsgq::~CMagicAtkMsgq
; Function compile flags: /Ogty
_TEXT	ENDS
;	COMDAT ??_GCMagicAtkMsgq@@UAEPAXI@Z
_TEXT	SEGMENT
___flags$ = 8						; size = 4
??_GCMagicAtkMsgq@@UAEPAXI@Z PROC NEAR			; CMagicAtkMsgq::`scalar deleting destructor', COMDAT
; _this$ = ecx
  00000	56		 push	 esi
  00001	8b f1		 mov	 esi, ecx
  00003	e8 00 00 00 00	 call	 ??1CMagicAtkMsgq@@UAE@XZ ; CMagicAtkMsgq::~CMagicAtkMsgq
  00008	f6 44 24 08 01	 test	 BYTE PTR ___flags$[esp], 1
  0000d	74 09		 je	 SHORT $L228017
  0000f	56		 push	 esi
  00010	e8 00 00 00 00	 call	 ??3@YAXPAX@Z		; operator delete
  00015	83 c4 04	 add	 esp, 4
$L228017:
  00018	8b c6		 mov	 eax, esi
  0001a	5e		 pop	 esi
  0001b	c2 04 00	 ret	 4
??_GCMagicAtkMsgq@@UAEPAXI@Z ENDP			; CMagicAtkMsgq::`scalar deleting destructor'
_TEXT	ENDS
PUBLIC	??0CAction@@QAE@XZ				; CAction::CAction
PUBLIC	?SendActMsg@CAction@@UAEHW4OBJMSG@@HHHHH@Z	; CAction::SendActMsg
PUBLIC	?ProcessState@CAction@@UAEXKM@Z			; CAction::ProcessState
PUBLIC	?Render@CAction@@UAEHPAUIDirect3DDevice9@@PAUD3DXMATRIX@@@Z ; CAction::Render
PUBLIC	??_7CAction@@6B@				; CAction::`vftable'
PUBLIC	??_GCAction@@UAEPAXI@Z				; CAction::`scalar deleting destructor'
EXTRN	??_ECAction@@UAEPAXI@Z:NEAR			; CAction::`vector deleting destructor'
;	COMDAT ??_7CAction@@6B@
; File c:\documents and settings\test\mes documents\source\virtuos_v17\build\program\_aiinterface\action.cpp
CONST	SEGMENT
??_7CAction@@6B@ DD FLAT:??_ECAction@@UAEPAXI@Z		; CAction::`vftable'
	DD	FLAT:?SendActMsg@CAction@@UAEHW4OBJMSG@@HHHHH@Z
	DD	FLAT:?ProcessState@CAction@@UAEXKM@Z
	DD	FLAT:?Render@CAction@@UAEHPAUIDirect3DDevice9@@PAUD3DXMATRIX@@@Z
; Function compile flags: /Ogty
CONST	ENDS
;	COMDAT ??0CAction@@QAE@XZ
_TEXT	SEGMENT
??0CAction@@QAE@XZ PROC NEAR				; CAction::CAction, COMDAT
; _this$ = ecx

; 9    : {

  00000	8b c1		 mov	 eax, ecx
  00002	33 c9		 xor	 ecx, ecx
  00004	c7 00 00 00 00
	00		 mov	 DWORD PTR [eax], OFFSET FLAT:??_7CAction@@6B@
  0000a	89 48 18	 mov	 DWORD PTR [eax+24], ecx
  0000d	89 48 1c	 mov	 DWORD PTR [eax+28], ecx
  00010	89 48 20	 mov	 DWORD PTR [eax+32], ecx
  00013	89 48 24	 mov	 DWORD PTR [eax+36], ecx
  00016	c7 40 10 00 00
	00 00		 mov	 DWORD PTR [eax+16], OFFSET FLAT:??_7CMeleeAtkMsgq@@6B@
  0001d	89 48 30	 mov	 DWORD PTR [eax+48], ecx
  00020	89 48 34	 mov	 DWORD PTR [eax+52], ecx
  00023	89 48 38	 mov	 DWORD PTR [eax+56], ecx
  00026	89 48 3c	 mov	 DWORD PTR [eax+60], ecx
  00029	c7 40 28 00 00
	00 00		 mov	 DWORD PTR [eax+40], OFFSET FLAT:??_7CMagicAtkMsgq@@6B@

; 10   : 	Init();

  00030	89 48 0c	 mov	 DWORD PTR [eax+12], ecx
  00033	89 48 04	 mov	 DWORD PTR [eax+4], ecx
  00036	89 48 08	 mov	 DWORD PTR [eax+8], ecx

; 11   : }

  00039	c3		 ret	 0
??0CAction@@QAE@XZ ENDP					; CAction::CAction
; Function compile flags: /Ogty
; File c:\documents and settings\test\mes documents\source\virtuos_v17\build\program\_aiinterface\action.h
_TEXT	ENDS
;	COMDAT ?SendActMsg@CAction@@UAEHW4OBJMSG@@HHHHH@Z
_TEXT	SEGMENT
_dwMsg$ = 8						; size = 4
_nParam1$ = 12						; size = 4
_nParam2$ = 16						; size = 4
_nParam3$ = 20						; size = 4
_nParam4$ = 24						; size = 4
_nParam5$ = 28						; size = 4
?SendActMsg@CAction@@UAEHW4OBJMSG@@HHHHH@Z PROC NEAR	; CAction::SendActMsg, COMDAT
; _this$ = ecx

; 336  : 	virtual	int		SendActMsg( OBJMSG dwMsg, int nParam1 = 0, int nParam2 = 0, int nParam3 = 0, int nParam4 = 0, int nParam5 = 0 )	{	return( 1 );	}

  00000	b8 01 00 00 00	 mov	 eax, 1
  00005	c2 18 00	 ret	 24			; 00000018H
?SendActMsg@CAction@@UAEHW4OBJMSG@@HHHHH@Z ENDP		; CAction::SendActMsg
; Function compile flags: /Ogty
_TEXT	ENDS
;	COMDAT ?ProcessState@CAction@@UAEXKM@Z
_TEXT	SEGMENT
_dwState$ = 8						; size = 4
_fSpeed$ = 12						; size = 4
?ProcessState@CAction@@UAEXKM@Z PROC NEAR		; CAction::ProcessState, COMDAT
; _this$ = ecx

; 337  : 	virtual	void	ProcessState( DWORD dwState, float fSpeed ) { }

  00000	c2 08 00	 ret	 8
?ProcessState@CAction@@UAEXKM@Z ENDP			; CAction::ProcessState
; Function compile flags: /Ogty
_TEXT	ENDS
;	COMDAT ?Render@CAction@@UAEHPAUIDirect3DDevice9@@PAUD3DXMATRIX@@@Z
_TEXT	SEGMENT
_pd3dDevice$ = 8					; size = 4
_pmatWorld$ = 12					; size = 4
?Render@CAction@@UAEHPAUIDirect3DDevice9@@PAUD3DXMATRIX@@@Z PROC NEAR ; CAction::Render, COMDAT
; _this$ = ecx

; 338  : 	virtual	BOOL	Render( LPDIRECT3DDEVICE9 pd3dDevice, D3DXMATRIX* pmatWorld = NULL ) { return TRUE; }

  00000	b8 01 00 00 00	 mov	 eax, 1
  00005	c2 08 00	 ret	 8
?Render@CAction@@UAEHPAUIDirect3DDevice9@@PAUD3DXMATRIX@@@Z ENDP ; CAction::Render
_TEXT	ENDS
PUBLIC	??0CAction@@QAE@PAVCMover@@@Z			; CAction::CAction
; Function compile flags: /Ogty
; File c:\documents and settings\test\mes documents\source\virtuos_v17\build\program\_aiinterface\action.cpp
;	COMDAT ??0CAction@@QAE@PAVCMover@@@Z
_TEXT	SEGMENT
_pMover$ = 8						; size = 4
??0CAction@@QAE@PAVCMover@@@Z PROC NEAR			; CAction::CAction, COMDAT
; _this$ = ecx

; 13   : { 

  00000	8b c1		 mov	 eax, ecx
  00002	33 c9		 xor	 ecx, ecx
  00004	c7 00 00 00 00
	00		 mov	 DWORD PTR [eax], OFFSET FLAT:??_7CAction@@6B@
  0000a	89 48 18	 mov	 DWORD PTR [eax+24], ecx
  0000d	89 48 1c	 mov	 DWORD PTR [eax+28], ecx
  00010	89 48 20	 mov	 DWORD PTR [eax+32], ecx
  00013	89 48 24	 mov	 DWORD PTR [eax+36], ecx
  00016	c7 40 10 00 00
	00 00		 mov	 DWORD PTR [eax+16], OFFSET FLAT:??_7CMeleeAtkMsgq@@6B@
  0001d	89 48 30	 mov	 DWORD PTR [eax+48], ecx
  00020	89 48 34	 mov	 DWORD PTR [eax+52], ecx
  00023	89 48 38	 mov	 DWORD PTR [eax+56], ecx
  00026	89 48 3c	 mov	 DWORD PTR [eax+60], ecx
  00029	c7 40 28 00 00
	00 00		 mov	 DWORD PTR [eax+40], OFFSET FLAT:??_7CMagicAtkMsgq@@6B@

; 14   : 	Init();

  00030	89 48 04	 mov	 DWORD PTR [eax+4], ecx
  00033	89 48 08	 mov	 DWORD PTR [eax+8], ecx

; 15   : 	m_pMover = pMover;

  00036	8b 4c 24 04	 mov	 ecx, DWORD PTR _pMover$[esp-4]
  0003a	89 48 0c	 mov	 DWORD PTR [eax+12], ecx

; 16   : }

  0003d	c2 04 00	 ret	 4
??0CAction@@QAE@PAVCMover@@@Z ENDP			; CAction::CAction
_TEXT	ENDS
PUBLIC	??1CAction@@UAE@XZ				; CAction::~CAction
; Function compile flags: /Ogty
;	COMDAT ??1CAction@@UAE@XZ
_TEXT	SEGMENT
??1CAction@@UAE@XZ PROC NEAR				; CAction::~CAction, COMDAT
; _this$ = ecx

; 19   : {

  00000	56		 push	 esi
  00001	8b f1		 mov	 esi, ecx

; 20   : }

  00003	8d 4e 28	 lea	 ecx, DWORD PTR [esi+40]
  00006	c7 06 00 00 00
	00		 mov	 DWORD PTR [esi], OFFSET FLAT:??_7CAction@@6B@
  0000c	c7 01 00 00 00
	00		 mov	 DWORD PTR [ecx], OFFSET FLAT:??_7CMagicAtkMsgq@@6B@
  00012	e8 00 00 00 00	 call	 ??1?$CActMsgq@UtagMAGICATKMSG@@@@UAE@XZ ; CActMsgq<tagMAGICATKMSG>::~CActMsgq<tagMAGICATKMSG>
  00017	8d 4e 10	 lea	 ecx, DWORD PTR [esi+16]
  0001a	c7 01 00 00 00
	00		 mov	 DWORD PTR [ecx], OFFSET FLAT:??_7CMeleeAtkMsgq@@6B@
  00020	5e		 pop	 esi
  00021	e9 00 00 00 00	 jmp	 ??1?$CActMsgq@UtagACTMSG@@@@UAE@XZ ; CActMsgq<tagACTMSG>::~CActMsgq<tagACTMSG>
??1CAction@@UAE@XZ ENDP					; CAction::~CAction
; Function compile flags: /Ogty
_TEXT	ENDS
;	COMDAT ??_GCAction@@UAEPAXI@Z
_TEXT	SEGMENT
___flags$ = 8						; size = 4
??_GCAction@@UAEPAXI@Z PROC NEAR			; CAction::`scalar deleting destructor', COMDAT
; _this$ = ecx
  00000	56		 push	 esi
  00001	8b f1		 mov	 esi, ecx
  00003	e8 00 00 00 00	 call	 ??1CAction@@UAE@XZ	; CAction::~CAction
  00008	f6 44 24 08 01	 test	 BYTE PTR ___flags$[esp], 1
  0000d	74 09		 je	 SHORT $L228436
  0000f	56		 push	 esi
  00010	e8 00 00 00 00	 call	 ??3@YAXPAX@Z		; operator delete
  00015	83 c4 04	 add	 esp, 4
$L228436:
  00018	8b c6		 mov	 eax, esi
  0001a	5e		 pop	 esi
  0001b	c2 04 00	 ret	 4
??_GCAction@@UAEPAXI@Z ENDP				; CAction::`scalar deleting destructor'
_TEXT	ENDS
END
