; Listing generated by Microsoft (R) Optimizing Compiler Version 13.10.6030 

	TITLE	\Documents and Settings\test\Mes documents\Source\Virtuos_v17\Build\Program\_AIInterface\ActionShip.cpp
	.386P
include listing.inc
if @Version gt 510
.model FLAT
else
_TEXT	SEGMENT PARA USE32 PUBLIC 'CODE'
_TEXT	ENDS
_DATA	SEGMENT DWORD USE32 PUBLIC 'DATA'
_DATA	ENDS
CONST	SEGMENT DWORD USE32 PUBLIC 'CONST'
CONST	ENDS
_BSS	SEGMENT DWORD USE32 PUBLIC 'BSS'
_BSS	ENDS
$$SYMBOLS	SEGMENT BYTE USE32 'DEBSYM'
$$SYMBOLS	ENDS
$$TYPES	SEGMENT BYTE USE32 'DEBTYP'
$$TYPES	ENDS
_TLS	SEGMENT DWORD USE32 PUBLIC 'TLS'
_TLS	ENDS
xdata$x	SEGMENT DWORD USE32 PUBLIC 'CONST'
xdata$x	ENDS
text$AFX_COL1	SEGMENT PARA USE32 PUBLIC ''
text$AFX_COL1	ENDS
;	COMDAT ??0CActionShip@@QAE@XZ
_TEXT	SEGMENT PARA USE32 PUBLIC 'CODE'
_TEXT	ENDS
;	COMDAT ??_GCActionShip@@UAEPAXI@Z
_TEXT	SEGMENT PARA USE32 PUBLIC 'CODE'
_TEXT	ENDS
;	COMDAT ??1CActionShip@@UAE@XZ
_TEXT	SEGMENT PARA USE32 PUBLIC 'CODE'
_TEXT	ENDS
;	COMDAT ?Init@CActionShip@@AAEXXZ
_TEXT	SEGMENT PARA USE32 PUBLIC 'CODE'
_TEXT	ENDS
;	COMDAT ?Destroy@CActionShip@@AAEXXZ
_TEXT	SEGMENT PARA USE32 PUBLIC 'CODE'
_TEXT	ENDS
;	COMDAT ?Process@CActionShip@@QAEHXZ
_TEXT	SEGMENT PARA USE32 PUBLIC 'CODE'
_TEXT	ENDS
;	COMDAT ?SendActMsg@CActionShip@@QAEHW4OBJMSG@@HHH@Z
_TEXT	SEGMENT PARA USE32 PUBLIC 'CODE'
_TEXT	ENDS
;	COMDAT ?ProcessState@CActionShip@@UAEXKM@Z
_TEXT	SEGMENT PARA USE32 PUBLIC 'CODE'
_TEXT	ENDS
;	COMDAT ?compare@?$basic_string@DU?$char_traits@D@std@@V?$allocator@D@2@@std@@QBEHABV12@@Z
_TEXT	SEGMENT PARA USE32 PUBLIC 'CODE'
_TEXT	ENDS
;	COMDAT ?IsFull@?$CStack@K@@QAEHXZ
_TEXT	SEGMENT PARA USE32 PUBLIC 'CODE'
_TEXT	ENDS
;	COMDAT ??0?$pair@KPAVCCtrl@@@std@@QAE@ABKABQAVCCtrl@@@Z
_TEXT	SEGMENT PARA USE32 PUBLIC 'CODE'
_TEXT	ENDS
;	COMDAT ?GetMax@?$CItemContainer@VCItemElem@@@@QAEHXZ
_TEXT	SEGMENT PARA USE32 PUBLIC 'CODE'
_TEXT	ENDS
;	COMDAT ??0?$deque@PAUtagACTMSG@@V?$allocator@PAUtagACTMSG@@@std@@@std@@QAE@XZ
_TEXT	SEGMENT PARA USE32 PUBLIC 'CODE'
_TEXT	ENDS
;	COMDAT ??1?$deque@PAUtagACTMSG@@V?$allocator@PAUtagACTMSG@@@std@@@std@@QAE@XZ
_TEXT	SEGMENT PARA USE32 PUBLIC 'CODE'
_TEXT	ENDS
;	COMDAT ?begin@?$deque@PAUtagACTMSG@@V?$allocator@PAUtagACTMSG@@@std@@@std@@QAE?AViterator@12@XZ
_TEXT	SEGMENT PARA USE32 PUBLIC 'CODE'
_TEXT	ENDS
;	COMDAT ?end@?$deque@PAUtagACTMSG@@V?$allocator@PAUtagACTMSG@@@std@@@std@@QAE?AViterator@12@XZ
_TEXT	SEGMENT PARA USE32 PUBLIC 'CODE'
_TEXT	ENDS
;	COMDAT ?empty@?$deque@PAUtagACTMSG@@V?$allocator@PAUtagACTMSG@@@std@@@std@@QBE_NXZ
_TEXT	SEGMENT PARA USE32 PUBLIC 'CODE'
_TEXT	ENDS
;	COMDAT ?clear@?$deque@PAUtagACTMSG@@V?$allocator@PAUtagACTMSG@@@std@@@std@@QAEXXZ
_TEXT	SEGMENT PARA USE32 PUBLIC 'CODE'
_TEXT	ENDS
;	COMDAT ??0?$deque@PAUtagMAGICATKMSG@@V?$allocator@PAUtagMAGICATKMSG@@@std@@@std@@QAE@XZ
_TEXT	SEGMENT PARA USE32 PUBLIC 'CODE'
_TEXT	ENDS
;	COMDAT ??1?$deque@PAUtagMAGICATKMSG@@V?$allocator@PAUtagMAGICATKMSG@@@std@@@std@@QAE@XZ
_TEXT	SEGMENT PARA USE32 PUBLIC 'CODE'
_TEXT	ENDS
;	COMDAT ?begin@?$deque@PAUtagMAGICATKMSG@@V?$allocator@PAUtagMAGICATKMSG@@@std@@@std@@QAE?AViterator@12@XZ
_TEXT	SEGMENT PARA USE32 PUBLIC 'CODE'
_TEXT	ENDS
;	COMDAT ?end@?$deque@PAUtagMAGICATKMSG@@V?$allocator@PAUtagMAGICATKMSG@@@std@@@std@@QAE?AViterator@12@XZ
_TEXT	SEGMENT PARA USE32 PUBLIC 'CODE'
_TEXT	ENDS
;	COMDAT ?empty@?$deque@PAUtagMAGICATKMSG@@V?$allocator@PAUtagMAGICATKMSG@@@std@@@std@@QBE_NXZ
_TEXT	SEGMENT PARA USE32 PUBLIC 'CODE'
_TEXT	ENDS
;	COMDAT ?clear@?$deque@PAUtagMAGICATKMSG@@V?$allocator@PAUtagMAGICATKMSG@@@std@@@std@@QAEXXZ
_TEXT	SEGMENT PARA USE32 PUBLIC 'CODE'
_TEXT	ENDS
;	COMDAT ??Diterator@?$deque@PAUtagACTMSG@@V?$allocator@PAUtagACTMSG@@@std@@@std@@QBEAAPAUtagACTMSG@@XZ
_TEXT	SEGMENT PARA USE32 PUBLIC 'CODE'
_TEXT	ENDS
;	COMDAT ??Eiterator@?$deque@PAUtagACTMSG@@V?$allocator@PAUtagACTMSG@@@std@@@std@@QAEAAV012@XZ
_TEXT	SEGMENT PARA USE32 PUBLIC 'CODE'
_TEXT	ENDS
;	COMDAT ??9const_iterator@?$deque@PAUtagACTMSG@@V?$allocator@PAUtagACTMSG@@@std@@@std@@QBE_NABV012@@Z
_TEXT	SEGMENT PARA USE32 PUBLIC 'CODE'
_TEXT	ENDS
;	COMDAT ??Diterator@?$deque@PAUtagMAGICATKMSG@@V?$allocator@PAUtagMAGICATKMSG@@@std@@@std@@QBEAAPAUtagMAGICATKMSG@@XZ
_TEXT	SEGMENT PARA USE32 PUBLIC 'CODE'
_TEXT	ENDS
;	COMDAT ??Eiterator@?$deque@PAUtagMAGICATKMSG@@V?$allocator@PAUtagMAGICATKMSG@@@std@@@std@@QAEAAV012@XZ
_TEXT	SEGMENT PARA USE32 PUBLIC 'CODE'
_TEXT	ENDS
;	COMDAT ??9const_iterator@?$deque@PAUtagMAGICATKMSG@@V?$allocator@PAUtagMAGICATKMSG@@@std@@@std@@QBE_NABV012@@Z
_TEXT	SEGMENT PARA USE32 PUBLIC 'CODE'
_TEXT	ENDS
;	COMDAT ?compare@?$basic_string@DU?$char_traits@D@std@@V?$allocator@D@2@@std@@QBEHIIPBDI@Z
_TEXT	SEGMENT PARA USE32 PUBLIC 'CODE'
_TEXT	ENDS
;	COMDAT ?_Tidy@?$deque@PAUtagACTMSG@@V?$allocator@PAUtagACTMSG@@@std@@@std@@IAEXXZ
_TEXT	SEGMENT PARA USE32 PUBLIC 'CODE'
_TEXT	ENDS
;	COMDAT ??0?$_Deque_val@PAUtagACTMSG@@V?$allocator@PAUtagACTMSG@@@std@@@std@@IAE@V?$allocator@PAUtagACTMSG@@@1@@Z
_TEXT	SEGMENT PARA USE32 PUBLIC 'CODE'
_TEXT	ENDS
;	COMDAT ??0?$allocator@PAUtagACTMSG@@@std@@QAE@XZ
_TEXT	SEGMENT PARA USE32 PUBLIC 'CODE'
_TEXT	ENDS
;	COMDAT ?_Tidy@?$deque@PAUtagMAGICATKMSG@@V?$allocator@PAUtagMAGICATKMSG@@@std@@@std@@IAEXXZ
_TEXT	SEGMENT PARA USE32 PUBLIC 'CODE'
_TEXT	ENDS
;	COMDAT ??0?$_Deque_val@PAUtagMAGICATKMSG@@V?$allocator@PAUtagMAGICATKMSG@@@std@@@std@@IAE@V?$allocator@PAUtagMAGICATKMSG@@@1@@Z
_TEXT	SEGMENT PARA USE32 PUBLIC 'CODE'
_TEXT	ENDS
;	COMDAT ??0?$allocator@PAUtagMAGICATKMSG@@@std@@QAE@XZ
_TEXT	SEGMENT PARA USE32 PUBLIC 'CODE'
_TEXT	ENDS
;	COMDAT ??0iterator@?$deque@PAUtagACTMSG@@V?$allocator@PAUtagACTMSG@@@std@@@std@@QAE@IPBV12@@Z
_TEXT	SEGMENT PARA USE32 PUBLIC 'CODE'
_TEXT	ENDS
;	COMDAT ??Dconst_iterator@?$deque@PAUtagACTMSG@@V?$allocator@PAUtagACTMSG@@@std@@@std@@QBEABQAUtagACTMSG@@XZ
_TEXT	SEGMENT PARA USE32 PUBLIC 'CODE'
_TEXT	ENDS
;	COMDAT ??8const_iterator@?$deque@PAUtagACTMSG@@V?$allocator@PAUtagACTMSG@@@std@@@std@@QBE_NABV012@@Z
_TEXT	SEGMENT PARA USE32 PUBLIC 'CODE'
_TEXT	ENDS
;	COMDAT ??0iterator@?$deque@PAUtagMAGICATKMSG@@V?$allocator@PAUtagMAGICATKMSG@@@std@@@std@@QAE@IPBV12@@Z
_TEXT	SEGMENT PARA USE32 PUBLIC 'CODE'
_TEXT	ENDS
;	COMDAT ??Dconst_iterator@?$deque@PAUtagMAGICATKMSG@@V?$allocator@PAUtagMAGICATKMSG@@@std@@@std@@QBEABQAUtagMAGICATKMSG@@XZ
_TEXT	SEGMENT PARA USE32 PUBLIC 'CODE'
_TEXT	ENDS
;	COMDAT ??8const_iterator@?$deque@PAUtagMAGICATKMSG@@V?$allocator@PAUtagMAGICATKMSG@@@std@@@std@@QBE_NABV012@@Z
_TEXT	SEGMENT PARA USE32 PUBLIC 'CODE'
_TEXT	ENDS
;	COMDAT ?pop_back@?$deque@PAUtagACTMSG@@V?$allocator@PAUtagACTMSG@@@std@@@std@@QAEXXZ
_TEXT	SEGMENT PARA USE32 PUBLIC 'CODE'
_TEXT	ENDS
;	COMDAT ??0?$_Deque_map@PAUtagACTMSG@@V?$allocator@PAUtagACTMSG@@@std@@@std@@IAE@V?$allocator@PAUtagACTMSG@@@1@@Z
_TEXT	SEGMENT PARA USE32 PUBLIC 'CODE'
_TEXT	ENDS
;	COMDAT ??0?$allocator@PAUtagACTMSG@@@std@@QAE@ABV01@@Z
_TEXT	SEGMENT PARA USE32 PUBLIC 'CODE'
_TEXT	ENDS
;	COMDAT ?deallocate@?$allocator@PAUtagACTMSG@@@std@@QAEXPAPAUtagACTMSG@@I@Z
_TEXT	SEGMENT PARA USE32 PUBLIC 'CODE'
_TEXT	ENDS
;	COMDAT ?deallocate@?$allocator@PAPAUtagACTMSG@@@std@@QAEXPAPAPAUtagACTMSG@@I@Z
_TEXT	SEGMENT PARA USE32 PUBLIC 'CODE'
_TEXT	ENDS
;	COMDAT ?destroy@?$allocator@PAPAUtagACTMSG@@@std@@QAEXPAPAPAUtagACTMSG@@@Z
_TEXT	SEGMENT PARA USE32 PUBLIC 'CODE'
_TEXT	ENDS
;	COMDAT ?pop_back@?$deque@PAUtagMAGICATKMSG@@V?$allocator@PAUtagMAGICATKMSG@@@std@@@std@@QAEXXZ
_TEXT	SEGMENT PARA USE32 PUBLIC 'CODE'
_TEXT	ENDS
;	COMDAT ??0?$_Deque_map@PAUtagMAGICATKMSG@@V?$allocator@PAUtagMAGICATKMSG@@@std@@@std@@IAE@V?$allocator@PAUtagMAGICATKMSG@@@1@@Z
_TEXT	SEGMENT PARA USE32 PUBLIC 'CODE'
_TEXT	ENDS
;	COMDAT ??0?$allocator@PAUtagMAGICATKMSG@@@std@@QAE@ABV01@@Z
_TEXT	SEGMENT PARA USE32 PUBLIC 'CODE'
_TEXT	ENDS
;	COMDAT ?deallocate@?$allocator@PAUtagMAGICATKMSG@@@std@@QAEXPAPAUtagMAGICATKMSG@@I@Z
_TEXT	SEGMENT PARA USE32 PUBLIC 'CODE'
_TEXT	ENDS
;	COMDAT ?deallocate@?$allocator@PAPAUtagMAGICATKMSG@@@std@@QAEXPAPAPAUtagMAGICATKMSG@@I@Z
_TEXT	SEGMENT PARA USE32 PUBLIC 'CODE'
_TEXT	ENDS
;	COMDAT ?destroy@?$allocator@PAPAUtagMAGICATKMSG@@@std@@QAEXPAPAPAUtagMAGICATKMSG@@@Z
_TEXT	SEGMENT PARA USE32 PUBLIC 'CODE'
_TEXT	ENDS
;	COMDAT ??0const_iterator@?$deque@PAUtagACTMSG@@V?$allocator@PAUtagACTMSG@@@std@@@std@@QAE@IPBV12@@Z
_TEXT	SEGMENT PARA USE32 PUBLIC 'CODE'
_TEXT	ENDS
;	COMDAT ??0const_iterator@?$deque@PAUtagMAGICATKMSG@@V?$allocator@PAUtagMAGICATKMSG@@@std@@@std@@QAE@IPBV12@@Z
_TEXT	SEGMENT PARA USE32 PUBLIC 'CODE'
_TEXT	ENDS
;	COMDAT ?destroy@?$allocator@PAUtagACTMSG@@@std@@QAEXPAPAUtagACTMSG@@@Z
_TEXT	SEGMENT PARA USE32 PUBLIC 'CODE'
_TEXT	ENDS
;	COMDAT ?destroy@?$allocator@PAUtagMAGICATKMSG@@@std@@QAEXPAPAUtagMAGICATKMSG@@@Z
_TEXT	SEGMENT PARA USE32 PUBLIC 'CODE'
_TEXT	ENDS
;	COMDAT ??$_Iter_cat@Vconst_iterator@?$vector@EV?$allocator@E@std@@@std@@@std@@YA?AUrandom_access_iterator_tag@0@ABVconst_iterator@?$vector@EV?$allocator@E@std@@@0@@Z
_TEXT	SEGMENT PARA USE32 PUBLIC 'CODE'
_TEXT	ENDS
;	COMDAT ??$_Assign@Vconst_iterator@?$vector@EV?$allocator@E@std@@@std@@@?$vector@EV?$allocator@E@std@@@std@@QAEXVconst_iterator@01@0Uinput_iterator_tag@1@@Z
_TEXT	SEGMENT PARA USE32 PUBLIC 'CODE'
_TEXT	ENDS
;	COMDAT ??$_Iter_cat@Viterator@?$_Tree@V?$_Tmap_traits@KPAVCUser@@U?$less@K@std@@V?$allocator@U?$pair@$$CBKPAVCUser@@@std@@@3@$0A@@std@@@std@@@std@@YA?AUbidirectional_iterator_tag@0@ABViterator@?$_Tree@V?$_Tmap_traits@KPAVCUser@@U?$less@K@std@@V?$allocator@U?$pair@$$CBKPAVCUser@@@std@@@3@$0A@@std@@@0@@Z
_TEXT	SEGMENT PARA USE32 PUBLIC 'CODE'
_TEXT	ENDS
;	COMDAT ??$_Distance2@Viterator@?$_Tree@V?$_Tmap_traits@KPAVCUser@@U?$less@K@std@@V?$allocator@U?$pair@$$CBKPAVCUser@@@std@@@3@$0A@@std@@@std@@I@std@@YAXViterator@?$_Tree@V?$_Tmap_traits@KPAVCUser@@U?$less@K@std@@V?$allocator@U?$pair@$$CBKPAVCUser@@@std@@@3@$0A@@std@@@0@0AAIUbidirectional_iterator_tag@0@@Z
_TEXT	SEGMENT PARA USE32 PUBLIC 'CODE'
_TEXT	ENDS
;	COMDAT ??$_Iter_cat@Viterator@?$_Tree@V?$_Tmap_traits@KPAVCCtrl@@U?$less@K@std@@V?$allocator@U?$pair@$$CBKPAVCCtrl@@@std@@@3@$0A@@std@@@std@@@std@@YA?AUbidirectional_iterator_tag@0@ABViterator@?$_Tree@V?$_Tmap_traits@KPAVCCtrl@@U?$less@K@std@@V?$allocator@U?$pair@$$CBKPAVCCtrl@@@std@@@3@$0A@@std@@@0@@Z
_TEXT	SEGMENT PARA USE32 PUBLIC 'CODE'
_TEXT	ENDS
;	COMDAT ??$_Distance2@Viterator@?$_Tree@V?$_Tmap_traits@KPAVCCtrl@@U?$less@K@std@@V?$allocator@U?$pair@$$CBKPAVCCtrl@@@std@@@3@$0A@@std@@@std@@I@std@@YAXViterator@?$_Tree@V?$_Tmap_traits@KPAVCCtrl@@U?$less@K@std@@V?$allocator@U?$pair@$$CBKPAVCCtrl@@@std@@@3@$0A@@std@@@0@0AAIUbidirectional_iterator_tag@0@@Z
_TEXT	SEGMENT PARA USE32 PUBLIC 'CODE'
_TEXT	ENDS
;	COMDAT ??$_Uninitialized_copy@Vconst_iterator@?$vector@EV?$allocator@E@std@@@std@@PAEV?$allocator@E@3@@std@@YAPAEVconst_iterator@?$vector@EV?$allocator@E@std@@@0@0PAEAAV?$allocator@E@0@@Z
_TEXT	SEGMENT PARA USE32 PUBLIC 'CODE'
_TEXT	ENDS
;	COMDAT ??$_Iter_cat@Viterator@?$_Tree@V?$_Tmap_traits@KEU?$less@K@std@@V?$allocator@U?$pair@$$CBKE@std@@@2@$0A@@std@@@std@@@std@@YA?AUbidirectional_iterator_tag@0@ABViterator@?$_Tree@V?$_Tmap_traits@KEU?$less@K@std@@V?$allocator@U?$pair@$$CBKE@std@@@2@$0A@@std@@@0@@Z
_TEXT	SEGMENT PARA USE32 PUBLIC 'CODE'
_TEXT	ENDS
;	COMDAT ??$_Distance2@Viterator@?$_Tree@V?$_Tmap_traits@KEU?$less@K@std@@V?$allocator@U?$pair@$$CBKE@std@@@2@$0A@@std@@@std@@I@std@@YAXViterator@?$_Tree@V?$_Tmap_traits@KEU?$less@K@std@@V?$allocator@U?$pair@$$CBKE@std@@@2@$0A@@std@@@0@0AAIUbidirectional_iterator_tag@0@@Z
_TEXT	SEGMENT PARA USE32 PUBLIC 'CODE'
_TEXT	ENDS
;	COMDAT ??$_Ptr_cat@PAU__SPAWNREGION@CEventLua@@PAU12@@std@@YA?AU_Nonscalar_ptr_iterator_tag@0@AAPAU__SPAWNREGION@CEventLua@@0@Z
_TEXT	SEGMENT PARA USE32 PUBLIC 'CODE'
_TEXT	ENDS
;	COMDAT ??$_Uninit_fill_n@PAU__SPAWNREGION@CEventLua@@IU12@V?$allocator@U__SPAWNREGION@CEventLua@@@std@@@std@@YAXPAU__SPAWNREGION@CEventLua@@IABU12@AAV?$allocator@U__SPAWNREGION@CEventLua@@@0@U_Nonscalar_ptr_iterator_tag@0@@Z
_TEXT	SEGMENT PARA USE32 PUBLIC 'CODE'
_TEXT	ENDS
;	COMDAT ??$_Copy_opt@PAJPAJ@std@@YAPAJPAJ00U_Scalar_ptr_iterator_tag@0@@Z
_TEXT	SEGMENT PARA USE32 PUBLIC 'CODE'
_TEXT	ENDS
;	COMDAT ??$_Uninitialized_copy@PAJPAJV?$allocator@J@std@@@std@@YAPAJPAJ00AAV?$allocator@J@0@@Z
_TEXT	SEGMENT PARA USE32 PUBLIC 'CODE'
_TEXT	ENDS
;	COMDAT ??$_Copy_backward_opt@PAJPAJ@std@@YAPAJPAJ00U_Scalar_ptr_iterator_tag@0@@Z
_TEXT	SEGMENT PARA USE32 PUBLIC 'CODE'
_TEXT	ENDS
;	COMDAT ??$_Ptr_cat@PAUtagDROPITEM@@PAU1@@std@@YA?AU_Nonscalar_ptr_iterator_tag@0@AAPAUtagDROPITEM@@0@Z
_TEXT	SEGMENT PARA USE32 PUBLIC 'CODE'
_TEXT	ENDS
;	COMDAT ??$_Destroy_range@UtagDROPITEM@@V?$allocator@UtagDROPITEM@@@std@@@std@@YAXPAUtagDROPITEM@@0AAV?$allocator@UtagDROPITEM@@@0@U_Nonscalar_ptr_iterator_tag@0@@Z
_TEXT	SEGMENT PARA USE32 PUBLIC 'CODE'
_TEXT	ENDS
;	COMDAT ??$_Ptr_cat@PAUWORMON@@PAU1@@std@@YA?AU_Nonscalar_ptr_iterator_tag@0@AAPAUWORMON@@0@Z
_TEXT	SEGMENT PARA USE32 PUBLIC 'CODE'
_TEXT	ENDS
;	COMDAT ??$_Destroy_range@UWORMON@@V?$allocator@UWORMON@@@std@@@std@@YAXPAUWORMON@@0AAV?$allocator@UWORMON@@@0@U_Nonscalar_ptr_iterator_tag@0@@Z
_TEXT	SEGMENT PARA USE32 PUBLIC 'CODE'
_TEXT	ENDS
;	COMDAT ??$_Ptr_cat@PAU__ITEMGAME@CMiniGame@@PAU12@@std@@YA?AU_Nonscalar_ptr_iterator_tag@0@AAPAU__ITEMGAME@CMiniGame@@0@Z
_TEXT	SEGMENT PARA USE32 PUBLIC 'CODE'
_TEXT	ENDS
;	COMDAT ??$_Destroy_range@U__ITEMGAME@CMiniGame@@V?$allocator@U__ITEMGAME@CMiniGame@@@std@@@std@@YAXPAU__ITEMGAME@CMiniGame@@0AAV?$allocator@U__ITEMGAME@CMiniGame@@@0@U_Nonscalar_ptr_iterator_tag@0@@Z
_TEXT	SEGMENT PARA USE32 PUBLIC 'CODE'
_TEXT	ENDS
;	COMDAT ??$_Destroy_range@KV?$allocator@K@std@@@std@@YAXPAK0AAV?$allocator@K@0@U_Scalar_ptr_iterator_tag@0@@Z
_TEXT	SEGMENT PARA USE32 PUBLIC 'CODE'
_TEXT	ENDS
;	COMDAT ??$_Destroy_range@HV?$allocator@H@std@@@std@@YAXPAH0AAV?$allocator@H@0@U_Scalar_ptr_iterator_tag@0@@Z
_TEXT	SEGMENT PARA USE32 PUBLIC 'CODE'
_TEXT	ENDS
;	COMDAT ??$_Ptr_cat@PAU__ITEM@CExchange@@PAU12@@std@@YA?AU_Nonscalar_ptr_iterator_tag@0@AAPAU__ITEM@CExchange@@0@Z
_TEXT	SEGMENT PARA USE32 PUBLIC 'CODE'
_TEXT	ENDS
;	COMDAT ??$_Destroy_range@U__ITEM@CExchange@@V?$allocator@U__ITEM@CExchange@@@std@@@std@@YAXPAU__ITEM@CExchange@@0AAV?$allocator@U__ITEM@CExchange@@@0@U_Nonscalar_ptr_iterator_tag@0@@Z
_TEXT	SEGMENT PARA USE32 PUBLIC 'CODE'
_TEXT	ENDS
;	COMDAT ??$_Ptr_cat@PAU__POINT@CExchange@@PAU12@@std@@YA?AU_Nonscalar_ptr_iterator_tag@0@AAPAU__POINT@CExchange@@0@Z
_TEXT	SEGMENT PARA USE32 PUBLIC 'CODE'
_TEXT	ENDS
;	COMDAT ??$_Destroy_range@U__POINT@CExchange@@V?$allocator@U__POINT@CExchange@@@std@@@std@@YAXPAU__POINT@CExchange@@0AAV?$allocator@U__POINT@CExchange@@@0@U_Nonscalar_ptr_iterator_tag@0@@Z
_TEXT	SEGMENT PARA USE32 PUBLIC 'CODE'
_TEXT	ENDS
;	COMDAT ??$_Destroy_range@EV?$allocator@E@std@@@std@@YAXPAE0AAV?$allocator@E@0@U_Scalar_ptr_iterator_tag@0@@Z
_TEXT	SEGMENT PARA USE32 PUBLIC 'CODE'
_TEXT	ENDS
;	COMDAT ??$_Uninitialized_copy@PAU__SPAWNREGION@CEventLua@@PAU12@V?$allocator@U__SPAWNREGION@CEventLua@@@std@@@std@@YAPAU__SPAWNREGION@CEventLua@@PAU12@00AAV?$allocator@U__SPAWNREGION@CEventLua@@@0@@Z
_TEXT	SEGMENT PARA USE32 PUBLIC 'CODE'
_TEXT	ENDS
;	COMDAT ??$_Copy_backward_opt@PAU__SPAWNREGION@CEventLua@@PAU12@@std@@YAPAU__SPAWNREGION@CEventLua@@PAU12@00U_Nonscalar_ptr_iterator_tag@0@@Z
_TEXT	SEGMENT PARA USE32 PUBLIC 'CODE'
_TEXT	ENDS
;	COMDAT ??$_Ptr_cat@PAUD3DXVECTOR3@@PAU1@@std@@YA?AU_Nonscalar_ptr_iterator_tag@0@AAPAUD3DXVECTOR3@@0@Z
_TEXT	SEGMENT PARA USE32 PUBLIC 'CODE'
_TEXT	ENDS
;	COMDAT ??$_Destroy_range@UD3DXVECTOR3@@V?$allocator@UD3DXVECTOR3@@@std@@@std@@YAXPAUD3DXVECTOR3@@0AAV?$allocator@UD3DXVECTOR3@@@0@U_Nonscalar_ptr_iterator_tag@0@@Z
_TEXT	SEGMENT PARA USE32 PUBLIC 'CODE'
_TEXT	ENDS
;	COMDAT ??$_Ptr_cat@PAU_GIFTBOX@@PAU1@@std@@YA?AU_Nonscalar_ptr_iterator_tag@0@AAPAU_GIFTBOX@@0@Z
_TEXT	SEGMENT PARA USE32 PUBLIC 'CODE'
_TEXT	ENDS
;	COMDAT ??$_Destroy_range@U_GIFTBOX@@V?$allocator@U_GIFTBOX@@@std@@@std@@YAXPAU_GIFTBOX@@0AAV?$allocator@U_GIFTBOX@@@0@U_Nonscalar_ptr_iterator_tag@0@@Z
_TEXT	SEGMENT PARA USE32 PUBLIC 'CODE'
_TEXT	ENDS
;	COMDAT ??$_Destroy_range@JV?$allocator@J@std@@@std@@YAXPAJ0AAV?$allocator@J@0@U_Scalar_ptr_iterator_tag@0@@Z
_TEXT	SEGMENT PARA USE32 PUBLIC 'CODE'
_TEXT	ENDS
;	COMDAT ??$_Uninit_fill_n@JIJ@std@@YAXPAJIABJAAV?$allocator@J@0@U_Scalar_ptr_iterator_tag@0@@Z
_TEXT	SEGMENT PARA USE32 PUBLIC 'CODE'
_TEXT	ENDS
;	COMDAT ??$_Destroy_range@U__SPAWNREGION@CEventLua@@V?$allocator@U__SPAWNREGION@CEventLua@@@std@@@std@@YAXPAU__SPAWNREGION@CEventLua@@0AAV?$allocator@U__SPAWNREGION@CEventLua@@@0@U_Nonscalar_ptr_iterator_tag@0@@Z
_TEXT	SEGMENT PARA USE32 PUBLIC 'CODE'
_TEXT	ENDS
;	COMDAT ??$?0PAUtagACTMSG@@@?$allocator@PAPAUtagACTMSG@@@std@@QAE@ABV?$allocator@PAUtagACTMSG@@@1@@Z
_TEXT	SEGMENT PARA USE32 PUBLIC 'CODE'
_TEXT	ENDS
;	COMDAT ??$_Destroy@PAPAUtagACTMSG@@@std@@YAXPAPAPAUtagACTMSG@@@Z
_TEXT	SEGMENT PARA USE32 PUBLIC 'CODE'
_TEXT	ENDS
;	COMDAT ??$?0PAUtagMAGICATKMSG@@@?$allocator@PAPAUtagMAGICATKMSG@@@std@@QAE@ABV?$allocator@PAUtagMAGICATKMSG@@@1@@Z
_TEXT	SEGMENT PARA USE32 PUBLIC 'CODE'
_TEXT	ENDS
;	COMDAT ??$_Destroy@PAPAUtagMAGICATKMSG@@@std@@YAXPAPAPAUtagMAGICATKMSG@@@Z
_TEXT	SEGMENT PARA USE32 PUBLIC 'CODE'
_TEXT	ENDS
;	COMDAT ??$_Destroy@PAUtagACTMSG@@@std@@YAXPAPAUtagACTMSG@@@Z
_TEXT	SEGMENT PARA USE32 PUBLIC 'CODE'
_TEXT	ENDS
;	COMDAT ??$_Destroy@PAUtagMAGICATKMSG@@@std@@YAXPAPAUtagMAGICATKMSG@@@Z
_TEXT	SEGMENT PARA USE32 PUBLIC 'CODE'
_TEXT	ENDS
;	COMDAT ?destroy@?$allocator@UtagDROPITEM@@@std@@QAEXPAUtagDROPITEM@@@Z
_TEXT	SEGMENT PARA USE32 PUBLIC 'CODE'
_TEXT	ENDS
;	COMDAT ?destroy@?$allocator@UWORMON@@@std@@QAEXPAUWORMON@@@Z
_TEXT	SEGMENT PARA USE32 PUBLIC 'CODE'
_TEXT	ENDS
;	COMDAT ?destroy@?$allocator@U__ITEMGAME@CMiniGame@@@std@@QAEXPAU__ITEMGAME@CMiniGame@@@Z
_TEXT	SEGMENT PARA USE32 PUBLIC 'CODE'
_TEXT	ENDS
;	COMDAT ?destroy@?$allocator@U__ITEM@CExchange@@@std@@QAEXPAU__ITEM@CExchange@@@Z
_TEXT	SEGMENT PARA USE32 PUBLIC 'CODE'
_TEXT	ENDS
;	COMDAT ?destroy@?$allocator@U__POINT@CExchange@@@std@@QAEXPAU__POINT@CExchange@@@Z
_TEXT	SEGMENT PARA USE32 PUBLIC 'CODE'
_TEXT	ENDS
;	COMDAT ?begin@?$vector@EV?$allocator@E@std@@@std@@QAE?AViterator@12@XZ
_TEXT	SEGMENT PARA USE32 PUBLIC 'CODE'
_TEXT	ENDS
;	COMDAT ?end@?$vector@EV?$allocator@E@std@@@std@@QAE?AViterator@12@XZ
_TEXT	SEGMENT PARA USE32 PUBLIC 'CODE'
_TEXT	ENDS
;	COMDAT ?erase@?$vector@EV?$allocator@E@std@@@std@@QAE?AViterator@12@V312@0@Z
_TEXT	SEGMENT PARA USE32 PUBLIC 'CODE'
_TEXT	ENDS
;	COMDAT ?construct@?$allocator@U__SPAWNREGION@CEventLua@@@std@@QAEXPAU__SPAWNREGION@CEventLua@@ABU34@@Z
_TEXT	SEGMENT PARA USE32 PUBLIC 'CODE'
_TEXT	ENDS
;	COMDAT ?destroy@?$allocator@U__SPAWNREGION@CEventLua@@@std@@QAEXPAU__SPAWNREGION@CEventLua@@@Z
_TEXT	SEGMENT PARA USE32 PUBLIC 'CODE'
_TEXT	ENDS
;	COMDAT ?destroy@?$allocator@UD3DXVECTOR3@@@std@@QAEXPAUD3DXVECTOR3@@@Z
_TEXT	SEGMENT PARA USE32 PUBLIC 'CODE'
_TEXT	ENDS
;	COMDAT ?destroy@?$allocator@U_GIFTBOX@@@std@@QAEXPAU_GIFTBOX@@@Z
_TEXT	SEGMENT PARA USE32 PUBLIC 'CODE'
_TEXT	ENDS
;	COMDAT ??9const_iterator@?$vector@EV?$allocator@E@std@@@std@@QBE_NABV012@@Z
_TEXT	SEGMENT PARA USE32 PUBLIC 'CODE'
_TEXT	ENDS
;	COMDAT ??0iterator@?$vector@EV?$allocator@E@std@@@std@@QAE@PAE@Z
_TEXT	SEGMENT PARA USE32 PUBLIC 'CODE'
_TEXT	ENDS
;	COMDAT ??8const_iterator@?$vector@EV?$allocator@E@std@@@std@@QBE_NABV012@@Z
_TEXT	SEGMENT PARA USE32 PUBLIC 'CODE'
_TEXT	ENDS
;	COMDAT ??$insert@Vconst_iterator@?$vector@EV?$allocator@E@std@@@std@@@?$vector@EV?$allocator@E@std@@@std@@QAEXViterator@01@Vconst_iterator@01@1@Z
_TEXT	SEGMENT PARA USE32 PUBLIC 'CODE'
_TEXT	ENDS
;	COMDAT ??$_Ptr_cat@Vconst_iterator@?$vector@EV?$allocator@E@std@@@std@@PAE@std@@YA?AU_Nonscalar_ptr_iterator_tag@0@AAVconst_iterator@?$vector@EV?$allocator@E@std@@@0@AAPAE@Z
_TEXT	SEGMENT PARA USE32 PUBLIC 'CODE'
_TEXT	ENDS
;	COMDAT ??$_Uninit_copy@Vconst_iterator@?$vector@EV?$allocator@E@std@@@std@@PAEV?$allocator@E@3@@std@@YAPAEVconst_iterator@?$vector@EV?$allocator@E@std@@@0@0PAEAAV?$allocator@E@0@U_Nonscalar_ptr_iterator_tag@0@@Z
_TEXT	SEGMENT PARA USE32 PUBLIC 'CODE'
_TEXT	ENDS
;	COMDAT ??$_Uninit_copy@JJ@std@@YAPAJPAJ00AAV?$allocator@J@0@U_Scalar_ptr_iterator_tag@0@@Z
_TEXT	SEGMENT PARA USE32 PUBLIC 'CODE'
_TEXT	ENDS
;	COMDAT ??$_Uninit_copy@PAU__SPAWNREGION@CEventLua@@PAU12@V?$allocator@U__SPAWNREGION@CEventLua@@@std@@@std@@YAPAU__SPAWNREGION@CEventLua@@PAU12@00AAV?$allocator@U__SPAWNREGION@CEventLua@@@0@U_Nonscalar_ptr_iterator_tag@0@@Z
_TEXT	SEGMENT PARA USE32 PUBLIC 'CODE'
_TEXT	ENDS
;	COMDAT ??$fill_n@PAJIJ@std@@YAXPAJIABJ@Z
_TEXT	SEGMENT PARA USE32 PUBLIC 'CODE'
_TEXT	ENDS
;	COMDAT ??$_Destroy@UtagDROPITEM@@@std@@YAXPAUtagDROPITEM@@@Z
_TEXT	SEGMENT PARA USE32 PUBLIC 'CODE'
_TEXT	ENDS
;	COMDAT ??$_Destroy@UWORMON@@@std@@YAXPAUWORMON@@@Z
_TEXT	SEGMENT PARA USE32 PUBLIC 'CODE'
_TEXT	ENDS
;	COMDAT ??$_Destroy@U__ITEMGAME@CMiniGame@@@std@@YAXPAU__ITEMGAME@CMiniGame@@@Z
_TEXT	SEGMENT PARA USE32 PUBLIC 'CODE'
_TEXT	ENDS
;	COMDAT ??$_Destroy@U__ITEM@CExchange@@@std@@YAXPAU__ITEM@CExchange@@@Z
_TEXT	SEGMENT PARA USE32 PUBLIC 'CODE'
_TEXT	ENDS
;	COMDAT ??$_Destroy@U__POINT@CExchange@@@std@@YAXPAU__POINT@CExchange@@@Z
_TEXT	SEGMENT PARA USE32 PUBLIC 'CODE'
_TEXT	ENDS
;	COMDAT ??$copy@PAEPAE@std@@YAPAEPAE00@Z
_TEXT	SEGMENT PARA USE32 PUBLIC 'CODE'
_TEXT	ENDS
;	COMDAT ??$_Construct@U__SPAWNREGION@CEventLua@@U12@@std@@YAXPAU__SPAWNREGION@CEventLua@@ABU12@@Z
_TEXT	SEGMENT PARA USE32 PUBLIC 'CODE'
_TEXT	ENDS
;	COMDAT ??$_Destroy@U__SPAWNREGION@CEventLua@@@std@@YAXPAU__SPAWNREGION@CEventLua@@@Z
_TEXT	SEGMENT PARA USE32 PUBLIC 'CODE'
_TEXT	ENDS
;	COMDAT ??$_Destroy@UD3DXVECTOR3@@@std@@YAXPAUD3DXVECTOR3@@@Z
_TEXT	SEGMENT PARA USE32 PUBLIC 'CODE'
_TEXT	ENDS
;	COMDAT ??$_Destroy@U_GIFTBOX@@@std@@YAXPAU_GIFTBOX@@@Z
_TEXT	SEGMENT PARA USE32 PUBLIC 'CODE'
_TEXT	ENDS
;	COMDAT ?construct@?$allocator@E@std@@QAEXPAEABE@Z
_TEXT	SEGMENT PARA USE32 PUBLIC 'CODE'
_TEXT	ENDS
;	COMDAT ?destroy@?$allocator@E@std@@QAEXPAE@Z
_TEXT	SEGMENT PARA USE32 PUBLIC 'CODE'
_TEXT	ENDS
;	COMDAT ??Dconst_iterator@?$vector@EV?$allocator@E@std@@@std@@QBEABEXZ
_TEXT	SEGMENT PARA USE32 PUBLIC 'CODE'
_TEXT	ENDS
;	COMDAT ??Econst_iterator@?$vector@EV?$allocator@E@std@@@std@@QAEAAV012@XZ
_TEXT	SEGMENT PARA USE32 PUBLIC 'CODE'
_TEXT	ENDS
;	COMDAT ??$_Insert@Vconst_iterator@?$vector@EV?$allocator@E@std@@@std@@@?$vector@EV?$allocator@E@std@@@std@@QAEXViterator@01@Vconst_iterator@01@1Uforward_iterator_tag@1@@Z
_TEXT	SEGMENT PARA USE32 PUBLIC 'CODE'
_TEXT	ENDS
;	COMDAT ??$_Copy_opt@PAEPAE@std@@YAPAEPAE00U_Scalar_ptr_iterator_tag@0@@Z
_TEXT	SEGMENT PARA USE32 PUBLIC 'CODE'
_TEXT	ENDS
;	COMDAT ??$_Construct@EE@std@@YAXPAEABE@Z
_TEXT	SEGMENT PARA USE32 PUBLIC 'CODE'
_TEXT	ENDS
;	COMDAT ??$_Destroy@E@std@@YAXPAE@Z
_TEXT	SEGMENT PARA USE32 PUBLIC 'CODE'
_TEXT	ENDS
;	COMDAT ?capacity@?$vector@EV?$allocator@E@std@@@std@@QBEIXZ
_TEXT	SEGMENT PARA USE32 PUBLIC 'CODE'
_TEXT	ENDS
;	COMDAT ??Giterator@?$vector@EV?$allocator@E@std@@@std@@QBEHABVconst_iterator@12@@Z
_TEXT	SEGMENT PARA USE32 PUBLIC 'CODE'
_TEXT	ENDS
;	COMDAT ??Gconst_iterator@?$vector@EV?$allocator@E@std@@@std@@QBEHABV012@@Z
_TEXT	SEGMENT PARA USE32 PUBLIC 'CODE'
_TEXT	ENDS
;	COMDAT ??$_Distance@Vconst_iterator@?$vector@EV?$allocator@E@std@@@std@@I@std@@YAXVconst_iterator@?$vector@EV?$allocator@E@std@@@0@0AAI@Z
_TEXT	SEGMENT PARA USE32 PUBLIC 'CODE'
_TEXT	ENDS
;	COMDAT ??$_Ucopy@PAE@?$vector@EV?$allocator@E@std@@@std@@IAEPAEPAE00@Z
_TEXT	SEGMENT PARA USE32 PUBLIC 'CODE'
_TEXT	ENDS
;	COMDAT ??$advance@Vconst_iterator@?$vector@EV?$allocator@E@std@@@std@@H@std@@YAXAAVconst_iterator@?$vector@EV?$allocator@E@std@@@0@H@Z
_TEXT	SEGMENT PARA USE32 PUBLIC 'CODE'
_TEXT	ENDS
;	COMDAT ??$copy@Vconst_iterator@?$vector@EV?$allocator@E@std@@@std@@PAE@std@@YAPAEVconst_iterator@?$vector@EV?$allocator@E@std@@@0@0PAE@Z
_TEXT	SEGMENT PARA USE32 PUBLIC 'CODE'
_TEXT	ENDS
;	COMDAT ??$copy_backward@PAEPAE@std@@YAPAEPAE00@Z
_TEXT	SEGMENT PARA USE32 PUBLIC 'CODE'
_TEXT	ENDS
;	COMDAT ??$_Distance2@Vconst_iterator@?$vector@EV?$allocator@E@std@@@std@@I@std@@YAXVconst_iterator@?$vector@EV?$allocator@E@std@@@0@0AAIUrandom_access_iterator_tag@0@@Z
_TEXT	SEGMENT PARA USE32 PUBLIC 'CODE'
_TEXT	ENDS
;	COMDAT ??$_Uninitialized_copy@PAEPAEV?$allocator@E@std@@@std@@YAPAEPAE00AAV?$allocator@E@0@@Z
_TEXT	SEGMENT PARA USE32 PUBLIC 'CODE'
_TEXT	ENDS
;	COMDAT ??$_Advance@Vconst_iterator@?$vector@EV?$allocator@E@std@@@std@@H@std@@YAXAAVconst_iterator@?$vector@EV?$allocator@E@std@@@0@HUrandom_access_iterator_tag@0@@Z
_TEXT	SEGMENT PARA USE32 PUBLIC 'CODE'
_TEXT	ENDS
;	COMDAT ??$_Copy_opt@Vconst_iterator@?$vector@EV?$allocator@E@std@@@std@@PAE@std@@YAPAEVconst_iterator@?$vector@EV?$allocator@E@std@@@0@0PAEU_Nonscalar_ptr_iterator_tag@0@@Z
_TEXT	SEGMENT PARA USE32 PUBLIC 'CODE'
_TEXT	ENDS
;	COMDAT ??$_Copy_backward_opt@PAEPAE@std@@YAPAEPAE00U_Scalar_ptr_iterator_tag@0@@Z
_TEXT	SEGMENT PARA USE32 PUBLIC 'CODE'
_TEXT	ENDS
;	COMDAT ??Yconst_iterator@?$vector@EV?$allocator@E@std@@@std@@QAEAAV012@H@Z
_TEXT	SEGMENT PARA USE32 PUBLIC 'CODE'
_TEXT	ENDS
;	COMDAT ??$_Uninit_copy@EE@std@@YAPAEPAE00AAV?$allocator@E@0@U_Scalar_ptr_iterator_tag@0@@Z
_TEXT	SEGMENT PARA USE32 PUBLIC 'CODE'
_TEXT	ENDS
;	COMDAT ?Render@CAction@@UAEHPAUIDirect3DDevice9@@PAUD3DXMATRIX@@@Z
_TEXT	SEGMENT PARA USE32 PUBLIC 'CODE'
_TEXT	ENDS
;	COMDAT ?SendActMsg@CAction@@UAEHW4OBJMSG@@HHHHH@Z
_TEXT	SEGMENT PARA USE32 PUBLIC 'CODE'
_TEXT	ENDS
;	COMDAT ?deallocate@?$allocator@E@std@@QAEXPAEI@Z
_TEXT	SEGMENT PARA USE32 PUBLIC 'CODE'
_TEXT	ENDS
;	COMDAT ??$_Ucopy@Vconst_iterator@?$vector@EV?$allocator@E@std@@@std@@@?$vector@EV?$allocator@E@std@@@std@@IAEPAEVconst_iterator@01@0PAE@Z
_TEXT	SEGMENT PARA USE32 PUBLIC 'CODE'
_TEXT	ENDS
;	COMDAT ?allocate@?$allocator@E@std@@QAEPAEI@Z
_TEXT	SEGMENT PARA USE32 PUBLIC 'CODE'
_TEXT	ENDS
;	COMDAT ??$_Allocate@E@std@@YAPAEIPAE@Z
_TEXT	SEGMENT PARA USE32 PUBLIC 'CODE'
_TEXT	ENDS
;	COMDAT ?_Xlen@?$vector@EV?$allocator@E@std@@@std@@IBEXXZ
_TEXT	SEGMENT PARA USE32 PUBLIC 'CODE'
_TEXT	ENDS
;	COMDAT ??0length_error@std@@QAE@ABV?$basic_string@DU?$char_traits@D@std@@V?$allocator@D@2@@1@@Z
_TEXT	SEGMENT PARA USE32 PUBLIC 'CODE'
_TEXT	ENDS
;	COMDAT ??0logic_error@std@@QAE@ABV?$basic_string@DU?$char_traits@D@std@@V?$allocator@D@2@@1@@Z
_TEXT	SEGMENT PARA USE32 PUBLIC 'CODE'
_TEXT	ENDS
;	COMDAT ??_7logic_error@std@@6B@
CONST	SEGMENT DWORD USE32 PUBLIC 'CONST'
CONST	ENDS
;	COMDAT ??_Glogic_error@std@@UAEPAXI@Z
_TEXT	SEGMENT PARA USE32 PUBLIC 'CODE'
_TEXT	ENDS
;	COMDAT ?what@logic_error@std@@UBEPBDXZ
_TEXT	SEGMENT PARA USE32 PUBLIC 'CODE'
_TEXT	ENDS
;	COMDAT ?c_str@?$basic_string@DU?$char_traits@D@std@@V?$allocator@D@2@@std@@QBEPBDXZ
_TEXT	SEGMENT PARA USE32 PUBLIC 'CODE'
_TEXT	ENDS
;	COMDAT ??0?$basic_string@DU?$char_traits@D@std@@V?$allocator@D@2@@std@@QAE@ABV01@@Z
_TEXT	SEGMENT PARA USE32 PUBLIC 'CODE'
_TEXT	ENDS
;	COMDAT ??0?$_String_val@DV?$allocator@D@std@@@std@@IAE@V?$allocator@D@1@@Z
_TEXT	SEGMENT PARA USE32 PUBLIC 'CODE'
_TEXT	ENDS
;	COMDAT ??0?$allocator@D@std@@QAE@ABV01@@Z
_TEXT	SEGMENT PARA USE32 PUBLIC 'CODE'
_TEXT	ENDS
;	COMDAT ?_Tidy@?$basic_string@DU?$char_traits@D@std@@V?$allocator@D@2@@std@@IAEX_NI@Z
_TEXT	SEGMENT PARA USE32 PUBLIC 'CODE'
_TEXT	ENDS
;	COMDAT ?copy@?$char_traits@D@std@@SAPADPADPBDI@Z
_TEXT	SEGMENT PARA USE32 PUBLIC 'CODE'
_TEXT	ENDS
;	COMDAT ?deallocate@?$allocator@D@std@@QAEXPADI@Z
_TEXT	SEGMENT PARA USE32 PUBLIC 'CODE'
_TEXT	ENDS
;	COMDAT ?_Eos@?$basic_string@DU?$char_traits@D@std@@V?$allocator@D@2@@std@@IAEXI@Z
_TEXT	SEGMENT PARA USE32 PUBLIC 'CODE'
_TEXT	ENDS
;	COMDAT ?assign@?$char_traits@D@std@@SAXAADABD@Z
_TEXT	SEGMENT PARA USE32 PUBLIC 'CODE'
_TEXT	ENDS
;	COMDAT ?_Myptr@?$basic_string@DU?$char_traits@D@std@@V?$allocator@D@2@@std@@QAEPADXZ
_TEXT	SEGMENT PARA USE32 PUBLIC 'CODE'
_TEXT	ENDS
;	COMDAT ?assign@?$basic_string@DU?$char_traits@D@std@@V?$allocator@D@2@@std@@QAEAAV12@ABV12@II@Z
_TEXT	SEGMENT PARA USE32 PUBLIC 'CODE'
_TEXT	ENDS
;	COMDAT ?erase@?$basic_string@DU?$char_traits@D@std@@V?$allocator@D@2@@std@@QAEAAV12@II@Z
_TEXT	SEGMENT PARA USE32 PUBLIC 'CODE'
_TEXT	ENDS
;	COMDAT ?move@?$char_traits@D@std@@SAPADPADPBDI@Z
_TEXT	SEGMENT PARA USE32 PUBLIC 'CODE'
_TEXT	ENDS
;	COMDAT ?_Grow@?$basic_string@DU?$char_traits@D@std@@V?$allocator@D@2@@std@@IAE_NI_N@Z
_TEXT	SEGMENT PARA USE32 PUBLIC 'CODE'
_TEXT	ENDS
;	COMDAT ?max_size@?$basic_string@DU?$char_traits@D@std@@V?$allocator@D@2@@std@@QBEIXZ
_TEXT	SEGMENT PARA USE32 PUBLIC 'CODE'
_TEXT	ENDS
;	COMDAT ?max_size@?$allocator@D@std@@QBEIXZ
_TEXT	SEGMENT PARA USE32 PUBLIC 'CODE'
_TEXT	ENDS
;	COMDAT ?_Copy@?$basic_string@DU?$char_traits@D@std@@V?$allocator@D@2@@std@@IAEXII@Z
_TEXT	SEGMENT PARA USE32 PUBLIC 'CODE'
_TEXT	ENDS
;	COMDAT ?allocate@?$allocator@D@std@@QAEPADI@Z
_TEXT	SEGMENT PARA USE32 PUBLIC 'CODE'
_TEXT	ENDS
;	COMDAT ??$_Allocate@D@std@@YAPADIPAD@Z
_TEXT	SEGMENT PARA USE32 PUBLIC 'CODE'
_TEXT	ENDS
;	COMDAT ?npos@?$basic_string@DU?$char_traits@D@std@@V?$allocator@D@2@@std@@2IB
CONST	SEGMENT DWORD USE32 PUBLIC 'CONST'
CONST	ENDS
;	COMDAT ??1logic_error@std@@UAE@XZ
_TEXT	SEGMENT PARA USE32 PUBLIC 'CODE'
_TEXT	ENDS
;	COMDAT ??_7length_error@std@@6B@
CONST	SEGMENT DWORD USE32 PUBLIC 'CONST'
CONST	ENDS
;	COMDAT ??_Glength_error@std@@UAEPAXI@Z
_TEXT	SEGMENT PARA USE32 PUBLIC 'CODE'
_TEXT	ENDS
;	COMDAT ??1length_error@std@@UAE@XZ
_TEXT	SEGMENT PARA USE32 PUBLIC 'CODE'
_TEXT	ENDS
;	COMDAT ??0?$basic_string@DU?$char_traits@D@std@@V?$allocator@D@2@@std@@QAE@PBD@Z
_TEXT	SEGMENT PARA USE32 PUBLIC 'CODE'
_TEXT	ENDS
;	COMDAT ??0?$allocator@D@std@@QAE@XZ
_TEXT	SEGMENT PARA USE32 PUBLIC 'CODE'
_TEXT	ENDS
;	COMDAT ?assign@?$basic_string@DU?$char_traits@D@std@@V?$allocator@D@2@@std@@QAEAAV12@PBD@Z
_TEXT	SEGMENT PARA USE32 PUBLIC 'CODE'
_TEXT	ENDS
;	COMDAT ?assign@?$basic_string@DU?$char_traits@D@std@@V?$allocator@D@2@@std@@QAEAAV12@PBDI@Z
_TEXT	SEGMENT PARA USE32 PUBLIC 'CODE'
_TEXT	ENDS
;	COMDAT ?_Inside@?$basic_string@DU?$char_traits@D@std@@V?$allocator@D@2@@std@@IAE_NPBD@Z
_TEXT	SEGMENT PARA USE32 PUBLIC 'CODE'
_TEXT	ENDS
;	COMDAT ?length@?$char_traits@D@std@@SAIPBD@Z
_TEXT	SEGMENT PARA USE32 PUBLIC 'CODE'
_TEXT	ENDS
;	COMDAT ??_C@_0BD@OLBABOEK@vector?$DMT?$DO?5too?5long?$AA@
CONST	SEGMENT DWORD USE32 PUBLIC 'CONST'
CONST	ENDS
;	COMDAT ??1?$basic_string@DU?$char_traits@D@std@@V?$allocator@D@2@@std@@QAE@XZ
_TEXT	SEGMENT PARA USE32 PUBLIC 'CODE'
_TEXT	ENDS
;	COMDAT __TI3?AVlength_error@std@@
xdata$x	SEGMENT DWORD USE32 PUBLIC 'CONST'
xdata$x	ENDS
;	COMDAT __CTA3?AVlength_error@std@@
xdata$x	SEGMENT DWORD USE32 PUBLIC 'CONST'
xdata$x	ENDS
;	COMDAT __CT??_R0?AVlength_error@std@@@8??0length_error@std@@QAE@ABV01@@Z40
xdata$x	SEGMENT DWORD USE32 PUBLIC 'CONST'
xdata$x	ENDS
;	COMDAT ??_R0?AVlength_error@std@@@8
_DATA	SEGMENT DWORD USE32 PUBLIC 'DATA'
_DATA	ENDS
;	COMDAT ??0length_error@std@@QAE@ABV01@@Z
_TEXT	SEGMENT PARA USE32 PUBLIC 'CODE'
_TEXT	ENDS
;	COMDAT ??0logic_error@std@@QAE@ABV01@@Z
_TEXT	SEGMENT PARA USE32 PUBLIC 'CODE'
_TEXT	ENDS
;	COMDAT __CT??_R0?AVlogic_error@std@@@8??0logic_error@std@@QAE@ABV01@@Z40
xdata$x	SEGMENT DWORD USE32 PUBLIC 'CONST'
xdata$x	ENDS
;	COMDAT ??_R0?AVlogic_error@std@@@8
_DATA	SEGMENT DWORD USE32 PUBLIC 'DATA'
_DATA	ENDS
;	COMDAT __CT??_R0?AVexception@@@8??0exception@@QAE@ABV0@@Z12
xdata$x	SEGMENT DWORD USE32 PUBLIC 'CONST'
xdata$x	ENDS
;	COMDAT ??_R0?AVexception@@@8
_DATA	SEGMENT DWORD USE32 PUBLIC 'DATA'
_DATA	ENDS
;	COMDAT ?size@?$vector@EV?$allocator@E@std@@@std@@QBEIXZ
_TEXT	SEGMENT PARA USE32 PUBLIC 'CODE'
_TEXT	ENDS
;	COMDAT ?max_size@?$vector@EV?$allocator@E@std@@@std@@QBEIXZ
_TEXT	SEGMENT PARA USE32 PUBLIC 'CODE'
_TEXT	ENDS
;	COMDAT ?max_size@?$allocator@E@std@@QBEIXZ
_TEXT	SEGMENT PARA USE32 PUBLIC 'CODE'
_TEXT	ENDS
;	COMDAT ??2@YAPAXIPAX@Z
_TEXT	SEGMENT PARA USE32 PUBLIC 'CODE'
_TEXT	ENDS
;	COMDAT ?_Ptr_cat@std@@YA?AU_Scalar_ptr_iterator_tag@1@PAE0@Z
_TEXT	SEGMENT PARA USE32 PUBLIC 'CODE'
_TEXT	ENDS
;	COMDAT ??0const_iterator@?$vector@EV?$allocator@E@std@@@std@@QAE@PAE@Z
_TEXT	SEGMENT PARA USE32 PUBLIC 'CODE'
_TEXT	ENDS
;	COMDAT ?_Destroy@?$vector@EV?$allocator@E@std@@@std@@IAEXPAE0@Z
_TEXT	SEGMENT PARA USE32 PUBLIC 'CODE'
_TEXT	ENDS
;	COMDAT ??$_Destroy_range@EV?$allocator@E@std@@@std@@YAXPAE0AAV?$allocator@E@0@@Z
_TEXT	SEGMENT PARA USE32 PUBLIC 'CODE'
_TEXT	ENDS
;	COMDAT ?_Ptr_cat@std@@YA?AU_Scalar_ptr_iterator_tag@1@PAJ0@Z
_TEXT	SEGMENT PARA USE32 PUBLIC 'CODE'
_TEXT	ENDS
;	COMDAT ??9const_iterator@?$_Tree@V?$_Tmap_traits@KEU?$less@K@std@@V?$allocator@U?$pair@$$CBKE@std@@@2@$0A@@std@@@std@@QBE_NABV012@@Z
_TEXT	SEGMENT PARA USE32 PUBLIC 'CODE'
_TEXT	ENDS
;	COMDAT ??8const_iterator@?$_Tree@V?$_Tmap_traits@KEU?$less@K@std@@V?$allocator@U?$pair@$$CBKE@std@@@2@$0A@@std@@@std@@QBE_NABV012@@Z
_TEXT	SEGMENT PARA USE32 PUBLIC 'CODE'
_TEXT	ENDS
;	COMDAT ??Eiterator@?$_Tree@V?$_Tmap_traits@KEU?$less@K@std@@V?$allocator@U?$pair@$$CBKE@std@@@2@$0A@@std@@@std@@QAEAAV012@XZ
_TEXT	SEGMENT PARA USE32 PUBLIC 'CODE'
_TEXT	ENDS
;	COMDAT ??Econst_iterator@?$_Tree@V?$_Tmap_traits@KEU?$less@K@std@@V?$allocator@U?$pair@$$CBKE@std@@@2@$0A@@std@@@std@@QAEAAV012@XZ
_TEXT	SEGMENT PARA USE32 PUBLIC 'CODE'
_TEXT	ENDS
;	COMDAT ?_Inc@const_iterator@?$_Tree@V?$_Tmap_traits@KEU?$less@K@std@@V?$allocator@U?$pair@$$CBKE@std@@@2@$0A@@std@@@std@@QAEXXZ
_TEXT	SEGMENT PARA USE32 PUBLIC 'CODE'
_TEXT	ENDS
;	COMDAT ?_Min@?$_Tree@V?$_Tmap_traits@KEU?$less@K@std@@V?$allocator@U?$pair@$$CBKE@std@@@2@$0A@@std@@@std@@KAPAU_Node@?$_Tree_nod@V?$_Tmap_traits@KEU?$less@K@std@@V?$allocator@U?$pair@$$CBKE@std@@@2@$0A@@std@@@2@PAU342@@Z
_TEXT	SEGMENT PARA USE32 PUBLIC 'CODE'
_TEXT	ENDS
;	COMDAT ?_Left@?$_Tree@V?$_Tmap_traits@KEU?$less@K@std@@V?$allocator@U?$pair@$$CBKE@std@@@2@$0A@@std@@@std@@KAAAPAU_Node@?$_Tree_nod@V?$_Tmap_traits@KEU?$less@K@std@@V?$allocator@U?$pair@$$CBKE@std@@@2@$0A@@std@@@2@PAU342@@Z
_TEXT	SEGMENT PARA USE32 PUBLIC 'CODE'
_TEXT	ENDS
;	COMDAT ?_Isnil@?$_Tree@V?$_Tmap_traits@KEU?$less@K@std@@V?$allocator@U?$pair@$$CBKE@std@@@2@$0A@@std@@@std@@KAAADPAU_Node@?$_Tree_nod@V?$_Tmap_traits@KEU?$less@K@std@@V?$allocator@U?$pair@$$CBKE@std@@@2@$0A@@std@@@2@@Z
_TEXT	SEGMENT PARA USE32 PUBLIC 'CODE'
_TEXT	ENDS
;	COMDAT ?_Parent@?$_Tree@V?$_Tmap_traits@KEU?$less@K@std@@V?$allocator@U?$pair@$$CBKE@std@@@2@$0A@@std@@@std@@KAAAPAU_Node@?$_Tree_nod@V?$_Tmap_traits@KEU?$less@K@std@@V?$allocator@U?$pair@$$CBKE@std@@@2@$0A@@std@@@2@PAU342@@Z
_TEXT	SEGMENT PARA USE32 PUBLIC 'CODE'
_TEXT	ENDS
;	COMDAT ?_Right@?$_Tree@V?$_Tmap_traits@KEU?$less@K@std@@V?$allocator@U?$pair@$$CBKE@std@@@2@$0A@@std@@@std@@KAAAPAU_Node@?$_Tree_nod@V?$_Tmap_traits@KEU?$less@K@std@@V?$allocator@U?$pair@$$CBKE@std@@@2@$0A@@std@@@2@PAU342@@Z
_TEXT	SEGMENT PARA USE32 PUBLIC 'CODE'
_TEXT	ENDS
;	COMDAT ??9const_iterator@?$_Tree@V?$_Tmap_traits@KPAVCCtrl@@U?$less@K@std@@V?$allocator@U?$pair@$$CBKPAVCCtrl@@@std@@@3@$0A@@std@@@std@@QBE_NABV012@@Z
_TEXT	SEGMENT PARA USE32 PUBLIC 'CODE'
_TEXT	ENDS
;	COMDAT ??8const_iterator@?$_Tree@V?$_Tmap_traits@KPAVCCtrl@@U?$less@K@std@@V?$allocator@U?$pair@$$CBKPAVCCtrl@@@std@@@3@$0A@@std@@@std@@QBE_NABV012@@Z
_TEXT	SEGMENT PARA USE32 PUBLIC 'CODE'
_TEXT	ENDS
;	COMDAT ??Eiterator@?$_Tree@V?$_Tmap_traits@KPAVCCtrl@@U?$less@K@std@@V?$allocator@U?$pair@$$CBKPAVCCtrl@@@std@@@3@$0A@@std@@@std@@QAEAAV012@XZ
_TEXT	SEGMENT PARA USE32 PUBLIC 'CODE'
_TEXT	ENDS
;	COMDAT ??Econst_iterator@?$_Tree@V?$_Tmap_traits@KPAVCCtrl@@U?$less@K@std@@V?$allocator@U?$pair@$$CBKPAVCCtrl@@@std@@@3@$0A@@std@@@std@@QAEAAV012@XZ
_TEXT	SEGMENT PARA USE32 PUBLIC 'CODE'
_TEXT	ENDS
;	COMDAT ?_Inc@const_iterator@?$_Tree@V?$_Tmap_traits@KPAVCCtrl@@U?$less@K@std@@V?$allocator@U?$pair@$$CBKPAVCCtrl@@@std@@@3@$0A@@std@@@std@@QAEXXZ
_TEXT	SEGMENT PARA USE32 PUBLIC 'CODE'
_TEXT	ENDS
;	COMDAT ?_Min@?$_Tree@V?$_Tmap_traits@KPAVCCtrl@@U?$less@K@std@@V?$allocator@U?$pair@$$CBKPAVCCtrl@@@std@@@3@$0A@@std@@@std@@KAPAU_Node@?$_Tree_nod@V?$_Tmap_traits@KPAVCCtrl@@U?$less@K@std@@V?$allocator@U?$pair@$$CBKPAVCCtrl@@@std@@@3@$0A@@std@@@2@PAU342@@Z
_TEXT	SEGMENT PARA USE32 PUBLIC 'CODE'
_TEXT	ENDS
;	COMDAT ?_Left@?$_Tree@V?$_Tmap_traits@KPAVCCtrl@@U?$less@K@std@@V?$allocator@U?$pair@$$CBKPAVCCtrl@@@std@@@3@$0A@@std@@@std@@KAAAPAU_Node@?$_Tree_nod@V?$_Tmap_traits@KPAVCCtrl@@U?$less@K@std@@V?$allocator@U?$pair@$$CBKPAVCCtrl@@@std@@@3@$0A@@std@@@2@PAU342@@Z
_TEXT	SEGMENT PARA USE32 PUBLIC 'CODE'
_TEXT	ENDS
;	COMDAT ?_Isnil@?$_Tree@V?$_Tmap_traits@KPAVCCtrl@@U?$less@K@std@@V?$allocator@U?$pair@$$CBKPAVCCtrl@@@std@@@3@$0A@@std@@@std@@KAAADPAU_Node@?$_Tree_nod@V?$_Tmap_traits@KPAVCCtrl@@U?$less@K@std@@V?$allocator@U?$pair@$$CBKPAVCCtrl@@@std@@@3@$0A@@std@@@2@@Z
_TEXT	SEGMENT PARA USE32 PUBLIC 'CODE'
_TEXT	ENDS
;	COMDAT ?_Parent@?$_Tree@V?$_Tmap_traits@KPAVCCtrl@@U?$less@K@std@@V?$allocator@U?$pair@$$CBKPAVCCtrl@@@std@@@3@$0A@@std@@@std@@KAAAPAU_Node@?$_Tree_nod@V?$_Tmap_traits@KPAVCCtrl@@U?$less@K@std@@V?$allocator@U?$pair@$$CBKPAVCCtrl@@@std@@@3@$0A@@std@@@2@PAU342@@Z
_TEXT	SEGMENT PARA USE32 PUBLIC 'CODE'
_TEXT	ENDS
;	COMDAT ?_Right@?$_Tree@V?$_Tmap_traits@KPAVCCtrl@@U?$less@K@std@@V?$allocator@U?$pair@$$CBKPAVCCtrl@@@std@@@3@$0A@@std@@@std@@KAAAPAU_Node@?$_Tree_nod@V?$_Tmap_traits@KPAVCCtrl@@U?$less@K@std@@V?$allocator@U?$pair@$$CBKPAVCCtrl@@@std@@@3@$0A@@std@@@2@PAU342@@Z
_TEXT	SEGMENT PARA USE32 PUBLIC 'CODE'
_TEXT	ENDS
;	COMDAT ??9const_iterator@?$_Tree@V?$_Tmap_traits@KPAVCUser@@U?$less@K@std@@V?$allocator@U?$pair@$$CBKPAVCUser@@@std@@@3@$0A@@std@@@std@@QBE_NABV012@@Z
_TEXT	SEGMENT PARA USE32 PUBLIC 'CODE'
_TEXT	ENDS
;	COMDAT ??8const_iterator@?$_Tree@V?$_Tmap_traits@KPAVCUser@@U?$less@K@std@@V?$allocator@U?$pair@$$CBKPAVCUser@@@std@@@3@$0A@@std@@@std@@QBE_NABV012@@Z
_TEXT	SEGMENT PARA USE32 PUBLIC 'CODE'
_TEXT	ENDS
;	COMDAT ??Eiterator@?$_Tree@V?$_Tmap_traits@KPAVCUser@@U?$less@K@std@@V?$allocator@U?$pair@$$CBKPAVCUser@@@std@@@3@$0A@@std@@@std@@QAEAAV012@XZ
_TEXT	SEGMENT PARA USE32 PUBLIC 'CODE'
_TEXT	ENDS
;	COMDAT ??Econst_iterator@?$_Tree@V?$_Tmap_traits@KPAVCUser@@U?$less@K@std@@V?$allocator@U?$pair@$$CBKPAVCUser@@@std@@@3@$0A@@std@@@std@@QAEAAV012@XZ
_TEXT	SEGMENT PARA USE32 PUBLIC 'CODE'
_TEXT	ENDS
;	COMDAT ?_Inc@const_iterator@?$_Tree@V?$_Tmap_traits@KPAVCUser@@U?$less@K@std@@V?$allocator@U?$pair@$$CBKPAVCUser@@@std@@@3@$0A@@std@@@std@@QAEXXZ
_TEXT	SEGMENT PARA USE32 PUBLIC 'CODE'
_TEXT	ENDS
;	COMDAT ?_Min@?$_Tree@V?$_Tmap_traits@KPAVCUser@@U?$less@K@std@@V?$allocator@U?$pair@$$CBKPAVCUser@@@std@@@3@$0A@@std@@@std@@KAPAU_Node@?$_Tree_nod@V?$_Tmap_traits@KPAVCUser@@U?$less@K@std@@V?$allocator@U?$pair@$$CBKPAVCUser@@@std@@@3@$0A@@std@@@2@PAU342@@Z
_TEXT	SEGMENT PARA USE32 PUBLIC 'CODE'
_TEXT	ENDS
;	COMDAT ?_Left@?$_Tree@V?$_Tmap_traits@KPAVCUser@@U?$less@K@std@@V?$allocator@U?$pair@$$CBKPAVCUser@@@std@@@3@$0A@@std@@@std@@KAAAPAU_Node@?$_Tree_nod@V?$_Tmap_traits@KPAVCUser@@U?$less@K@std@@V?$allocator@U?$pair@$$CBKPAVCUser@@@std@@@3@$0A@@std@@@2@PAU342@@Z
_TEXT	SEGMENT PARA USE32 PUBLIC 'CODE'
_TEXT	ENDS
;	COMDAT ?_Isnil@?$_Tree@V?$_Tmap_traits@KPAVCUser@@U?$less@K@std@@V?$allocator@U?$pair@$$CBKPAVCUser@@@std@@@3@$0A@@std@@@std@@KAAADPAU_Node@?$_Tree_nod@V?$_Tmap_traits@KPAVCUser@@U?$less@K@std@@V?$allocator@U?$pair@$$CBKPAVCUser@@@std@@@3@$0A@@std@@@2@@Z
_TEXT	SEGMENT PARA USE32 PUBLIC 'CODE'
_TEXT	ENDS
;	COMDAT ?_Parent@?$_Tree@V?$_Tmap_traits@KPAVCUser@@U?$less@K@std@@V?$allocator@U?$pair@$$CBKPAVCUser@@@std@@@3@$0A@@std@@@std@@KAAAPAU_Node@?$_Tree_nod@V?$_Tmap_traits@KPAVCUser@@U?$less@K@std@@V?$allocator@U?$pair@$$CBKPAVCUser@@@std@@@3@$0A@@std@@@2@PAU342@@Z
_TEXT	SEGMENT PARA USE32 PUBLIC 'CODE'
_TEXT	ENDS
;	COMDAT ?_Right@?$_Tree@V?$_Tmap_traits@KPAVCUser@@U?$less@K@std@@V?$allocator@U?$pair@$$CBKPAVCUser@@@std@@@3@$0A@@std@@@std@@KAAAPAU_Node@?$_Tree_nod@V?$_Tmap_traits@KPAVCUser@@U?$less@K@std@@V?$allocator@U?$pair@$$CBKPAVCUser@@@std@@@3@$0A@@std@@@2@PAU342@@Z
_TEXT	SEGMENT PARA USE32 PUBLIC 'CODE'
_TEXT	ENDS
;	COMDAT ?_Psave@?$_Facetptr@V?$ctype@G@std@@@std@@2PBVfacet@locale@2@B
_DATA	SEGMENT DWORD USE32 PUBLIC 'DATA'
_DATA	ENDS
;	COMDAT ?_Psave@?$_Facetptr@V?$ctype@D@std@@@std@@2PBVfacet@locale@2@B
_DATA	SEGMENT DWORD USE32 PUBLIC 'DATA'
_DATA	ENDS
;	COMDAT ?compare@?$char_traits@D@std@@SAHPBD0I@Z
_TEXT	SEGMENT PARA USE32 PUBLIC 'CODE'
_TEXT	ENDS
;	COMDAT ?_Myptr@?$basic_string@DU?$char_traits@D@std@@V?$allocator@D@2@@std@@QBEPBDXZ
_TEXT	SEGMENT PARA USE32 PUBLIC 'CODE'
_TEXT	ENDS
;	COMDAT ?size@?$basic_string@DU?$char_traits@D@std@@V?$allocator@D@2@@std@@QBEIXZ
_TEXT	SEGMENT PARA USE32 PUBLIC 'CODE'
_TEXT	ENDS
;	COMDAT ?AngleToVectorXZ@@YAXPAUD3DXVECTOR3@@MM@Z
_TEXT	SEGMENT PARA USE32 PUBLIC 'CODE'
_TEXT	ENDS
;	COMDAT _sinf
_TEXT	SEGMENT PARA USE32 PUBLIC 'CODE'
_TEXT	ENDS
;	COMDAT _cosf
_TEXT	SEGMENT PARA USE32 PUBLIC 'CODE'
_TEXT	ENDS
;	COMDAT ??0D3DXVECTOR3@@QAE@MMM@Z
_TEXT	SEGMENT PARA USE32 PUBLIC 'CODE'
_TEXT	ENDS
;	COMDAT ?SetLookState@CAction@@QAEXK@Z
_TEXT	SEGMENT PARA USE32 PUBLIC 'CODE'
_TEXT	ENDS
;	COMDAT ?GetLookState@CAction@@QAEKXZ
_TEXT	SEGMENT PARA USE32 PUBLIC 'CODE'
_TEXT	ENDS
;	COMDAT ?SetTurnState@CAction@@QAEXK@Z
_TEXT	SEGMENT PARA USE32 PUBLIC 'CODE'
_TEXT	ENDS
;	COMDAT ?SetMoveState@CAction@@QAEXK@Z
_TEXT	SEGMENT PARA USE32 PUBLIC 'CODE'
_TEXT	ENDS
;	COMDAT ?GetMoveState@CAction@@QAEKXZ
_TEXT	SEGMENT PARA USE32 PUBLIC 'CODE'
_TEXT	ENDS
;	COMDAT ?GetAngle@CObj@@QAEMXZ
_TEXT	SEGMENT PARA USE32 PUBLIC 'CODE'
_TEXT	ENDS
;	COMDAT ?GetTurnState@CAction@@QAEKXZ
_TEXT	SEGMENT PARA USE32 PUBLIC 'CODE'
_TEXT	ENDS
;	COMDAT ?GetState@CAction@@QAEKXZ
_TEXT	SEGMENT PARA USE32 PUBLIC 'CODE'
_TEXT	ENDS
;	COMDAT ??_7CActionShip@@6B@
CONST	SEGMENT DWORD USE32 PUBLIC 'CONST'
CONST	ENDS
sxdata	SEGMENT DWORD USE32 'SXDATA'
sxdata	ENDS
FLAT	GROUP _DATA, CONST, _BSS
	ASSUME	CS: FLAT, DS: FLAT, SS: FLAT
endif

INCLUDELIB LIBCMT
INCLUDELIB OLDNAMES

PUBLIC	?Init@CActionShip@@AAEXXZ			; CActionShip::Init
; Function compile flags: /Ogty
; File c:\documents and settings\test\mes documents\source\virtuos_v17\build\program\_aiinterface\actionship.cpp
;	COMDAT ?Init@CActionShip@@AAEXXZ
_TEXT	SEGMENT
?Init@CActionShip@@AAEXXZ PROC NEAR			; CActionShip::Init, COMDAT
; _this$ = ecx

; 23   : 	m_pShip = NULL;

  00000	c7 41 40 00 00
	00 00		 mov	 DWORD PTR [ecx+64], 0

; 24   : }

  00007	c3		 ret	 0
?Init@CActionShip@@AAEXXZ ENDP				; CActionShip::Init
_TEXT	ENDS
PUBLIC	?Destroy@CActionShip@@AAEXXZ			; CActionShip::Destroy
; Function compile flags: /Ogty
;	COMDAT ?Destroy@CActionShip@@AAEXXZ
_TEXT	SEGMENT
?Destroy@CActionShip@@AAEXXZ PROC NEAR			; CActionShip::Destroy, COMDAT
; _this$ = ecx

; 28   : 	// ÆÄ±«ÄÚµå.
; 29   : 
; 30   : 	Init();

  00000	c7 41 40 00 00
	00 00		 mov	 DWORD PTR [ecx+64], 0

; 31   : }

  00007	c3		 ret	 0
?Destroy@CActionShip@@AAEXXZ ENDP			; CActionShip::Destroy
_TEXT	ENDS
PUBLIC	_cosf
EXTRN	__fltused:NEAR
; Function compile flags: /Ogty
; File c:\program files\microsoft visual studio .net 2003\vc7\include\math.h
;	COMDAT _cosf
_TEXT	SEGMENT
__X$ = 8						; size = 4
_cosf	PROC NEAR					; COMDAT

; 444  :         {return ((float)cos((double)_X)); }

  00000	d9 44 24 04	 fld	 DWORD PTR __X$[esp-4]
  00004	d9 ff		 fcos
  00006	c3		 ret	 0
_cosf	ENDP
_TEXT	ENDS
PUBLIC	_sinf
; Function compile flags: /Ogty
;	COMDAT _sinf
_TEXT	SEGMENT
__X$ = 8						; size = 4
_sinf	PROC NEAR					; COMDAT

; 466  :         {return ((float)sin((double)_X)); }

  00000	d9 44 24 04	 fld	 DWORD PTR __X$[esp-4]
  00004	d9 fe		 fsin
  00006	c3		 ret	 0
_sinf	ENDP
_TEXT	ENDS
PUBLIC	??0D3DXVECTOR3@@QAE@MMM@Z			; D3DXVECTOR3::D3DXVECTOR3
; Function compile flags: /Ogty
; File c:\documents and settings\test\mes documents\source\virtuos_v17\build\program\dx_sdk\d3dx9math.inl
;	COMDAT ??0D3DXVECTOR3@@QAE@MMM@Z
_TEXT	SEGMENT
_fx$ = 8						; size = 4
_fy$ = 12						; size = 4
_fz$ = 16						; size = 4
??0D3DXVECTOR3@@QAE@MMM@Z PROC NEAR			; D3DXVECTOR3::D3DXVECTOR3, COMDAT
; _this$ = ecx

; 300  :     x = fx;
; 301  :     y = fy;

  00000	8b 54 24 08	 mov	 edx, DWORD PTR _fy$[esp-4]
  00004	8b c1		 mov	 eax, ecx
  00006	8b 4c 24 04	 mov	 ecx, DWORD PTR _fx$[esp-4]
  0000a	89 08		 mov	 DWORD PTR [eax], ecx

; 302  :     z = fz;

  0000c	8b 4c 24 0c	 mov	 ecx, DWORD PTR _fz$[esp-4]
  00010	89 50 04	 mov	 DWORD PTR [eax+4], edx
  00013	89 48 08	 mov	 DWORD PTR [eax+8], ecx

; 303  : }

  00016	c2 0c 00	 ret	 12			; 0000000cH
??0D3DXVECTOR3@@QAE@MMM@Z ENDP				; D3DXVECTOR3::D3DXVECTOR3
_TEXT	ENDS
PUBLIC	?AngleToVectorXZ@@YAXPAUD3DXVECTOR3@@MM@Z	; AngleToVectorXZ
PUBLIC	__real@3c8efa35
;	COMDAT __real@3c8efa35
; File c:\program files\microsoft visual studio .net 2003\vc7\include\math.h
CONST	SEGMENT
__real@3c8efa35 DD 03c8efa35r			; 0.0174533
; Function compile flags: /Ogty
; File c:\documents and settings\test\mes documents\source\virtuos_v17\build\program\_common\xutil3d.h
CONST	ENDS
;	COMDAT ?AngleToVectorXZ@@YAXPAUD3DXVECTOR3@@MM@Z
_TEXT	SEGMENT
_vDelta$ = 8						; size = 4
_fAngXZ$ = 12						; size = 4
_fSpeed$ = 16						; size = 4
?AngleToVectorXZ@@YAXPAUD3DXVECTOR3@@MM@Z PROC NEAR	; AngleToVectorXZ, COMDAT

; 39   : 	fAngXZ = D3DXToRadian(fAngXZ);

  00000	d9 44 24 08	 fld	 DWORD PTR _fAngXZ$[esp-4]

; 40   : 	vDelta->x = sinf(fAngXZ) * fSpeed;

  00004	8b 44 24 04	 mov	 eax, DWORD PTR _vDelta$[esp-4]
  00008	d8 0d 00 00 00
	00		 fmul	 DWORD PTR __real@3c8efa35

; 41   : 	vDelta->z = -cosf(fAngXZ) * fSpeed;
; 42   : 	vDelta->y = 0;

  0000e	c7 40 04 00 00
	00 00		 mov	 DWORD PTR [eax+4], 0
  00015	d9 c0		 fld	 ST(0)
  00017	d9 fe		 fsin
  00019	d8 4c 24 0c	 fmul	 DWORD PTR _fSpeed$[esp-4]
  0001d	d9 18		 fstp	 DWORD PTR [eax]
  0001f	d9 ff		 fcos
  00021	d8 4c 24 0c	 fmul	 DWORD PTR _fSpeed$[esp-4]
  00025	d9 e0		 fchs
  00027	d9 58 08	 fstp	 DWORD PTR [eax+8]

; 43   : }

  0002a	c3		 ret	 0
?AngleToVectorXZ@@YAXPAUD3DXVECTOR3@@MM@Z ENDP		; AngleToVectorXZ
_TEXT	ENDS
PUBLIC	?GetAngle@CObj@@QAEMXZ				; CObj::GetAngle
; Function compile flags: /Ogty
; File c:\documents and settings\test\mes documents\source\virtuos_v17\build\program\_common\obj.h
;	COMDAT ?GetAngle@CObj@@QAEMXZ
_TEXT	SEGMENT
?GetAngle@CObj@@QAEMXZ PROC NEAR			; CObj::GetAngle, COMDAT
; _this$ = ecx

; 217  : 	FLOAT			GetAngle()	{ return m_fAngle; }

  00000	d9 41 18	 fld	 DWORD PTR [ecx+24]
  00003	c3		 ret	 0
?GetAngle@CObj@@QAEMXZ ENDP				; CObj::GetAngle
_TEXT	ENDS
PUBLIC	?GetState@CAction@@QAEKXZ			; CAction::GetState
; Function compile flags: /Ogty
; File c:\documents and settings\test\mes documents\source\virtuos_v17\build\program\_aiinterface\action.h
;	COMDAT ?GetState@CAction@@QAEKXZ
_TEXT	SEGMENT
?GetState@CAction@@QAEKXZ PROC NEAR			; CAction::GetState, COMDAT
; _this$ = ecx

; 291  : 	DWORD			GetState() { return m_dwState; }

  00000	8b 41 04	 mov	 eax, DWORD PTR [ecx+4]
  00003	c3		 ret	 0
?GetState@CAction@@QAEKXZ ENDP				; CAction::GetState
_TEXT	ENDS
PUBLIC	?SetMoveState@CAction@@QAEXK@Z			; CAction::SetMoveState
EXTRN	?ResetState@CAction@@QAEXK@Z:NEAR		; CAction::ResetState
; Function compile flags: /Ogty
;	COMDAT ?SetMoveState@CAction@@QAEXK@Z
_TEXT	SEGMENT
_dwState$ = 8						; size = 4
?SetMoveState@CAction@@QAEXK@Z PROC NEAR		; CAction::SetMoveState, COMDAT
; _this$ = ecx

; 293  : 	void			SetMoveState( DWORD dwState ) { ResetState(OBJSTA_MOVE_ALL);	m_dwState |= dwState; }

  00000	56		 push	 esi
  00001	68 ff 00 00 00	 push	 255			; 000000ffH
  00006	8b f1		 mov	 esi, ecx
  00008	e8 00 00 00 00	 call	 ?ResetState@CAction@@QAEXK@Z ; CAction::ResetState
  0000d	8b 4e 04	 mov	 ecx, DWORD PTR [esi+4]
  00010	8b 44 24 08	 mov	 eax, DWORD PTR _dwState$[esp]
  00014	0b c8		 or	 ecx, eax
  00016	89 4e 04	 mov	 DWORD PTR [esi+4], ecx
  00019	5e		 pop	 esi
  0001a	c2 04 00	 ret	 4
?SetMoveState@CAction@@QAEXK@Z ENDP			; CAction::SetMoveState
_TEXT	ENDS
PUBLIC	?SetTurnState@CAction@@QAEXK@Z			; CAction::SetTurnState
; Function compile flags: /Ogty
;	COMDAT ?SetTurnState@CAction@@QAEXK@Z
_TEXT	SEGMENT
_dwState$ = 8						; size = 4
?SetTurnState@CAction@@QAEXK@Z PROC NEAR		; CAction::SetTurnState, COMDAT
; _this$ = ecx

; 294  : 	void			SetTurnState( DWORD dwState ) { ResetState(OBJSTA_TURN_ALL);	m_dwState |= dwState; }

  00000	56		 push	 esi
  00001	68 00 03 00 00	 push	 768			; 00000300H
  00006	8b f1		 mov	 esi, ecx
  00008	e8 00 00 00 00	 call	 ?ResetState@CAction@@QAEXK@Z ; CAction::ResetState
  0000d	8b 4e 04	 mov	 ecx, DWORD PTR [esi+4]
  00010	8b 44 24 08	 mov	 eax, DWORD PTR _dwState$[esp]
  00014	0b c8		 or	 ecx, eax
  00016	89 4e 04	 mov	 DWORD PTR [esi+4], ecx
  00019	5e		 pop	 esi
  0001a	c2 04 00	 ret	 4
?SetTurnState@CAction@@QAEXK@Z ENDP			; CAction::SetTurnState
_TEXT	ENDS
PUBLIC	?SetLookState@CAction@@QAEXK@Z			; CAction::SetLookState
; Function compile flags: /Ogty
;	COMDAT ?SetLookState@CAction@@QAEXK@Z
_TEXT	SEGMENT
_dwState$ = 8						; size = 4
?SetLookState@CAction@@QAEXK@Z PROC NEAR		; CAction::SetLookState, COMDAT
; _this$ = ecx

; 295  : 	void			SetLookState( DWORD dwState ) { ResetState(OBJSTA_LOOK_ALL);	m_dwState |= dwState; }

  00000	56		 push	 esi
  00001	68 00 0c 00 00	 push	 3072			; 00000c00H
  00006	8b f1		 mov	 esi, ecx
  00008	e8 00 00 00 00	 call	 ?ResetState@CAction@@QAEXK@Z ; CAction::ResetState
  0000d	8b 4e 04	 mov	 ecx, DWORD PTR [esi+4]
  00010	8b 44 24 08	 mov	 eax, DWORD PTR _dwState$[esp]
  00014	0b c8		 or	 ecx, eax
  00016	89 4e 04	 mov	 DWORD PTR [esi+4], ecx
  00019	5e		 pop	 esi
  0001a	c2 04 00	 ret	 4
?SetLookState@CAction@@QAEXK@Z ENDP			; CAction::SetLookState
_TEXT	ENDS
PUBLIC	?GetMoveState@CAction@@QAEKXZ			; CAction::GetMoveState
; Function compile flags: /Ogty
;	COMDAT ?GetMoveState@CAction@@QAEKXZ
_TEXT	SEGMENT
?GetMoveState@CAction@@QAEKXZ PROC NEAR			; CAction::GetMoveState, COMDAT
; _this$ = ecx

; 300  : 	DWORD			GetMoveState() { return m_dwState & OBJSTA_MOVE_ALL; }

  00000	8b 41 04	 mov	 eax, DWORD PTR [ecx+4]
  00003	25 ff 00 00 00	 and	 eax, 255		; 000000ffH
  00008	c3		 ret	 0
?GetMoveState@CAction@@QAEKXZ ENDP			; CAction::GetMoveState
_TEXT	ENDS
PUBLIC	?GetTurnState@CAction@@QAEKXZ			; CAction::GetTurnState
; Function compile flags: /Ogty
;	COMDAT ?GetTurnState@CAction@@QAEKXZ
_TEXT	SEGMENT
?GetTurnState@CAction@@QAEKXZ PROC NEAR			; CAction::GetTurnState, COMDAT
; _this$ = ecx

; 301  : 	DWORD			GetTurnState() { return m_dwState & OBJSTA_TURN_ALL; }

  00000	8b 41 04	 mov	 eax, DWORD PTR [ecx+4]
  00003	25 00 03 00 00	 and	 eax, 768		; 00000300H
  00008	c3		 ret	 0
?GetTurnState@CAction@@QAEKXZ ENDP			; CAction::GetTurnState
_TEXT	ENDS
PUBLIC	?GetLookState@CAction@@QAEKXZ			; CAction::GetLookState
; Function compile flags: /Ogty
;	COMDAT ?GetLookState@CAction@@QAEKXZ
_TEXT	SEGMENT
?GetLookState@CAction@@QAEKXZ PROC NEAR			; CAction::GetLookState, COMDAT
; _this$ = ecx

; 302  : 	DWORD			GetLookState() { return m_dwState & OBJSTA_LOOK_ALL; }

  00000	8b 41 04	 mov	 eax, DWORD PTR [ecx+4]
  00003	25 00 0c 00 00	 and	 eax, 3072		; 00000c00H
  00008	c3		 ret	 0
?GetLookState@CAction@@QAEKXZ ENDP			; CAction::GetLookState
_TEXT	ENDS
PUBLIC	??0CActionShip@@QAE@XZ				; CActionShip::CActionShip
PUBLIC	?ProcessState@CActionShip@@UAEXKM@Z		; CActionShip::ProcessState
PUBLIC	??_7CActionShip@@6B@				; CActionShip::`vftable'
PUBLIC	??_GCActionShip@@UAEPAXI@Z			; CActionShip::`scalar deleting destructor'
PUBLIC	?SendActMsg@CAction@@UAEHW4OBJMSG@@HHHHH@Z	; CAction::SendActMsg
PUBLIC	?Render@CAction@@UAEHPAUIDirect3DDevice9@@PAUD3DXMATRIX@@@Z ; CAction::Render
EXTRN	??_ECActionShip@@UAEPAXI@Z:NEAR			; CActionShip::`vector deleting destructor'
EXTRN	??0CAction@@QAE@XZ:NEAR				; CAction::CAction
;	COMDAT ??_7CActionShip@@6B@
; File c:\documents and settings\test\mes documents\source\virtuos_v17\build\program\_aiinterface\actionship.cpp
CONST	SEGMENT
??_7CActionShip@@6B@ DD FLAT:??_ECActionShip@@UAEPAXI@Z	; CActionShip::`vftable'
	DD	FLAT:?SendActMsg@CAction@@UAEHW4OBJMSG@@HHHHH@Z
	DD	FLAT:?ProcessState@CActionShip@@UAEXKM@Z
	DD	FLAT:?Render@CAction@@UAEHPAUIDirect3DDevice9@@PAUD3DXMATRIX@@@Z
; Function compile flags: /Ogty
CONST	ENDS
;	COMDAT ??0CActionShip@@QAE@XZ
_TEXT	SEGMENT
??0CActionShip@@QAE@XZ PROC NEAR			; CActionShip::CActionShip, COMDAT
; _this$ = ecx

; 12   : {

  00000	56		 push	 esi
  00001	8b f1		 mov	 esi, ecx
  00003	e8 00 00 00 00	 call	 ??0CAction@@QAE@XZ	; CAction::CAction
  00008	c7 06 00 00 00
	00		 mov	 DWORD PTR [esi], OFFSET FLAT:??_7CActionShip@@6B@

; 13   : 	Init();

  0000e	c7 46 40 00 00
	00 00		 mov	 DWORD PTR [esi+64], 0

; 14   : }

  00015	8b c6		 mov	 eax, esi
  00017	5e		 pop	 esi
  00018	c3		 ret	 0
??0CActionShip@@QAE@XZ ENDP				; CActionShip::CActionShip
; Function compile flags: /Ogty
; File c:\documents and settings\test\mes documents\source\virtuos_v17\build\program\_aiinterface\action.h
_TEXT	ENDS
;	COMDAT ?SendActMsg@CAction@@UAEHW4OBJMSG@@HHHHH@Z
_TEXT	SEGMENT
_dwMsg$ = 8						; size = 4
_nParam1$ = 12						; size = 4
_nParam2$ = 16						; size = 4
_nParam3$ = 20						; size = 4
_nParam4$ = 24						; size = 4
_nParam5$ = 28						; size = 4
?SendActMsg@CAction@@UAEHW4OBJMSG@@HHHHH@Z PROC NEAR	; CAction::SendActMsg, COMDAT
; _this$ = ecx

; 336  : 	virtual	int		SendActMsg( OBJMSG dwMsg, int nParam1 = 0, int nParam2 = 0, int nParam3 = 0, int nParam4 = 0, int nParam5 = 0 )	{	return( 1 );	}

  00000	b8 01 00 00 00	 mov	 eax, 1
  00005	c2 18 00	 ret	 24			; 00000018H
?SendActMsg@CAction@@UAEHW4OBJMSG@@HHHHH@Z ENDP		; CAction::SendActMsg
; Function compile flags: /Ogty
_TEXT	ENDS
;	COMDAT ?Render@CAction@@UAEHPAUIDirect3DDevice9@@PAUD3DXMATRIX@@@Z
_TEXT	SEGMENT
_pd3dDevice$ = 8					; size = 4
_pmatWorld$ = 12					; size = 4
?Render@CAction@@UAEHPAUIDirect3DDevice9@@PAUD3DXMATRIX@@@Z PROC NEAR ; CAction::Render, COMDAT
; _this$ = ecx

; 338  : 	virtual	BOOL	Render( LPDIRECT3DDEVICE9 pd3dDevice, D3DXMATRIX* pmatWorld = NULL ) { return TRUE; }

  00000	b8 01 00 00 00	 mov	 eax, 1
  00005	c2 08 00	 ret	 8
?Render@CAction@@UAEHPAUIDirect3DDevice9@@PAUD3DXMATRIX@@@Z ENDP ; CAction::Render
_TEXT	ENDS
PUBLIC	??1CActionShip@@UAE@XZ				; CActionShip::~CActionShip
EXTRN	??1CAction@@UAE@XZ:NEAR				; CAction::~CAction
; Function compile flags: /Ogty
; File c:\documents and settings\test\mes documents\source\virtuos_v17\build\program\_aiinterface\actionship.cpp
;	COMDAT ??1CActionShip@@UAE@XZ
_TEXT	SEGMENT
??1CActionShip@@UAE@XZ PROC NEAR			; CActionShip::~CActionShip, COMDAT
; _this$ = ecx

; 17   : {

  00000	c7 01 00 00 00
	00		 mov	 DWORD PTR [ecx], OFFSET FLAT:??_7CActionShip@@6B@

; 18   : 	Destroy();

  00006	c7 41 40 00 00
	00 00		 mov	 DWORD PTR [ecx+64], 0

; 19   : }

  0000d	e9 00 00 00 00	 jmp	 ??1CAction@@UAE@XZ	; CAction::~CAction
??1CActionShip@@UAE@XZ ENDP				; CActionShip::~CActionShip
_TEXT	ENDS
PUBLIC	?SendActMsg@CActionShip@@QAEHW4OBJMSG@@HHH@Z	; CActionShip::SendActMsg
; Function compile flags: /Ogty
;	COMDAT ?SendActMsg@CActionShip@@QAEHW4OBJMSG@@HHH@Z
_TEXT	SEGMENT
_dwMsg$ = 8						; size = 4
_nParam1$ = 12						; size = 4
_nParam2$ = 16						; size = 4
_nParam3$ = 20						; size = 4
?SendActMsg@CActionShip@@QAEHW4OBJMSG@@HHH@Z PROC NEAR	; CActionShip::SendActMsg, COMDAT
; _this$ = ecx

; 90   : 	switch( dwMsg )

  00000	8b 44 24 04	 mov	 eax, DWORD PTR _dwMsg$[esp-4]
  00004	48		 dec	 eax
  00005	83 f8 2c	 cmp	 eax, 44			; 0000002cH
  00008	56		 push	 esi
  00009	8b f1		 mov	 esi, ecx
  0000b	0f 87 2e 01 00
	00		 ja	 $L225762
  00011	0f b6 80 00 00
	00 00		 movzx	 eax, BYTE PTR $L227110[eax]
  00018	ff 24 85 00 00
	00 00		 jmp	 DWORD PTR $L227113[eax*4]
$L225765:

; 91   : 	{
; 92   : 	case OBJMSG_STAND:	// ´ë±â»óÅÂ·Î ÀÖ¾î¶ó.
; 93   : 		if( GetMoveState() == OBJSTA_STAND )	return AE_ALREADY;		// ÀÌ¹Ì ½ÇÇàÁßÀÌ¹Ç·Î ¸®ÅÏ.

  0001f	80 7e 04 01	 cmp	 BYTE PTR [esi+4], 1
  00023	75 19		 jne	 SHORT $L225766
$L227112:
  00025	33 c0		 xor	 eax, eax
  00027	5e		 pop	 esi

; 137  : }

  00028	c2 10 00	 ret	 16			; 00000010H
$L225767:

; 94   : 		SetMoveState( OBJSTA_STAND );		// ´ë±â »óÅÂ·Î ÀüÈ¯.
; 95   : 		break;
; 96   : 	case OBJMSG_STOP:	// ¸ØÃç¶ó.
; 97   : 		if( GetMoveState() == 0 )	return AE_ALREADY;		// ÀÌ¹Ì ¸ØÃçÀÖÀ¸¹Ç·Î ¸®ÅÏ.

  0002b	8a 46 04	 mov	 al, BYTE PTR [esi+4]
  0002e	84 c0		 test	 al, al
  00030	74 f3		 je	 SHORT $L227112

; 98   : 		ResetState( OBJSTA_MOVE_ALL );		// ÀÌµ¿»óÅÂ¸¦ ÇØÁ¦

  00032	68 ff 00 00 00	 push	 255			; 000000ffH
  00037	8b ce		 mov	 ecx, esi
  00039	e8 00 00 00 00	 call	 ?ResetState@CAction@@QAEXK@Z ; CAction::ResetState
$L225766:

; 99   : 		SetMoveState( OBJSTA_STAND );

  0003e	6a 01		 push	 1
  00040	8b ce		 mov	 ecx, esi
  00042	e8 00 00 00 00	 call	 ?SetMoveState@CAction@@QAEXK@Z ; CAction::SetMoveState

; 130  : 		break;
; 131  : 	}
; 132  : #ifdef __CLIENT
; 133  : 	if( m_pShip->GetMover()->IsActiveMover() )
; 134  : 		g_DPlay.SendShipActMsg( m_pShip, dwMsg, nParam1, nParam2 );
; 135  : #endif // CLIENT	
; 136  : 	return 1;

  00047	b8 01 00 00 00	 mov	 eax, 1
  0004c	5e		 pop	 esi

; 137  : }

  0004d	c2 10 00	 ret	 16			; 00000010H
$L225769:

; 100  : 		break;
; 101  : 	case OBJMSG_FORWARD:	// ÀüÁøÀ» ½ÃÀÛÇØ¶ó.
; 102  : 		if( GetMoveState() == OBJSTA_FMOVE )	return AE_ALREADY;	// ÀÌ¹Ì ÀüÁø»óÅÂÀÌ¸é ¸®ÅÏ.

  00050	80 7e 04 04	 cmp	 BYTE PTR [esi+4], 4
  00054	74 cf		 je	 SHORT $L227112

; 103  : 		SetMoveState( OBJSTA_FMOVE );	// ÀüÁø »óÅÂ·Î ÀüÈ¯.

  00056	6a 04		 push	 4
  00058	8b ce		 mov	 ecx, esi
  0005a	e8 00 00 00 00	 call	 ?SetMoveState@CAction@@QAEXK@Z ; CAction::SetMoveState

; 130  : 		break;
; 131  : 	}
; 132  : #ifdef __CLIENT
; 133  : 	if( m_pShip->GetMover()->IsActiveMover() )
; 134  : 		g_DPlay.SendShipActMsg( m_pShip, dwMsg, nParam1, nParam2 );
; 135  : #endif // CLIENT	
; 136  : 	return 1;

  0005f	b8 01 00 00 00	 mov	 eax, 1
  00064	5e		 pop	 esi

; 137  : }

  00065	c2 10 00	 ret	 16			; 00000010H
$L225771:

; 104  : 		break;
; 105  : 	
; 106  : 	case OBJMSG_LTURN:	// ÁÂÈ¸ÀüÀ» ½ÃÀÛÇØ¶ó.
; 107  : 		if( GetTurnState() == OBJSTA_LTURN )	return AE_ALREADY;	// ÀÌ¹Ì ¿ÞÂÊÅÏÁß.

  00068	8b 4e 04	 mov	 ecx, DWORD PTR [esi+4]
  0006b	81 e1 00 03 00
	00		 and	 ecx, 768		; 00000300H
  00071	81 f9 00 01 00
	00		 cmp	 ecx, 256		; 00000100H
  00077	74 ac		 je	 SHORT $L227112

; 108  : 		SetTurnState( OBJSTA_LTURN );

  00079	68 00 01 00 00	 push	 256			; 00000100H
  0007e	8b ce		 mov	 ecx, esi
  00080	e8 00 00 00 00	 call	 ?SetTurnState@CAction@@QAEXK@Z ; CAction::SetTurnState

; 130  : 		break;
; 131  : 	}
; 132  : #ifdef __CLIENT
; 133  : 	if( m_pShip->GetMover()->IsActiveMover() )
; 134  : 		g_DPlay.SendShipActMsg( m_pShip, dwMsg, nParam1, nParam2 );
; 135  : #endif // CLIENT	
; 136  : 	return 1;

  00085	b8 01 00 00 00	 mov	 eax, 1
  0008a	5e		 pop	 esi

; 137  : }

  0008b	c2 10 00	 ret	 16			; 00000010H
$L225773:

; 109  : 		break;
; 110  : 	case OBJMSG_RTURN:	// ¿ìÈ¸ÀüÀ» ½ÃÀÛÇØ¶ó.
; 111  : 		if( GetTurnState() == OBJSTA_RTURN )	return AE_ALREADY;	// ÀÌ¹Ì ¿À¸¥ÂÊÅÏÁß.

  0008e	8b 56 04	 mov	 edx, DWORD PTR [esi+4]
  00091	81 e2 00 03 00
	00		 and	 edx, 768		; 00000300H
  00097	81 fa 00 02 00
	00		 cmp	 edx, 512		; 00000200H
  0009d	74 86		 je	 SHORT $L227112

; 112  : 		SetTurnState( OBJSTA_RTURN );

  0009f	68 00 02 00 00	 push	 512			; 00000200H
  000a4	8b ce		 mov	 ecx, esi
  000a6	e8 00 00 00 00	 call	 ?SetTurnState@CAction@@QAEXK@Z ; CAction::SetTurnState

; 130  : 		break;
; 131  : 	}
; 132  : #ifdef __CLIENT
; 133  : 	if( m_pShip->GetMover()->IsActiveMover() )
; 134  : 		g_DPlay.SendShipActMsg( m_pShip, dwMsg, nParam1, nParam2 );
; 135  : #endif // CLIENT	
; 136  : 	return 1;

  000ab	b8 01 00 00 00	 mov	 eax, 1
  000b0	5e		 pop	 esi

; 137  : }

  000b1	c2 10 00	 ret	 16			; 00000010H
$L225775:

; 113  : 		break;
; 114  : 	case OBJMSG_STOP_TURN:	// È¸ÀüÀ» ¸ØÃã.
; 115  : 		if( GetTurnState() == 0 )	return AE_ALREADY;	// ÀÌ¹Ì ¸ØÃçÀÖÀ½.

  000b4	8b 46 04	 mov	 eax, DWORD PTR [esi+4]
  000b7	f6 c4 03	 test	 ah, 3
  000ba	0f 84 65 ff ff
	ff		 je	 $L227112

; 116  : 		ResetState( OBJSTA_TURN_ALL );	// ÅÏ»óÅÂ ÇØÁ¦.

  000c0	68 00 03 00 00	 push	 768			; 00000300H

; 129  : 		ResetState( OBJSTA_LOOK_ALL );	// »ó½Â/ÇÏ°­ »óÅÂ ÇØÁ¦

  000c5	8b ce		 mov	 ecx, esi
  000c7	e8 00 00 00 00	 call	 ?ResetState@CAction@@QAEXK@Z ; CAction::ResetState

; 130  : 		break;
; 131  : 	}
; 132  : #ifdef __CLIENT
; 133  : 	if( m_pShip->GetMover()->IsActiveMover() )
; 134  : 		g_DPlay.SendShipActMsg( m_pShip, dwMsg, nParam1, nParam2 );
; 135  : #endif // CLIENT	
; 136  : 	return 1;

  000cc	b8 01 00 00 00	 mov	 eax, 1
  000d1	5e		 pop	 esi

; 137  : }

  000d2	c2 10 00	 ret	 16			; 00000010H
$L225777:

; 117  : 		break;
; 118  : 
; 119  : 	case OBJMSG_LOOKUP:		// °íµµ»ó½Â ÇØ¶ó.
; 120  : 		if( GetLookState() == OBJSTA_LOOKUP )	return AE_ALREADY;	// ÀÌ¹Ì »ó½ÂÁß.

  000d5	8b 46 04	 mov	 eax, DWORD PTR [esi+4]
  000d8	25 00 0c 00 00	 and	 eax, 3072		; 00000c00H
  000dd	3d 00 04 00 00	 cmp	 eax, 1024		; 00000400H
  000e2	0f 84 3d ff ff
	ff		 je	 $L227112

; 121  : 		SetLookState( OBJSTA_LOOKUP );

  000e8	68 00 04 00 00	 push	 1024			; 00000400H
  000ed	8b ce		 mov	 ecx, esi
  000ef	e8 00 00 00 00	 call	 ?SetLookState@CAction@@QAEXK@Z ; CAction::SetLookState

; 130  : 		break;
; 131  : 	}
; 132  : #ifdef __CLIENT
; 133  : 	if( m_pShip->GetMover()->IsActiveMover() )
; 134  : 		g_DPlay.SendShipActMsg( m_pShip, dwMsg, nParam1, nParam2 );
; 135  : #endif // CLIENT	
; 136  : 	return 1;

  000f4	b8 01 00 00 00	 mov	 eax, 1
  000f9	5e		 pop	 esi

; 137  : }

  000fa	c2 10 00	 ret	 16			; 00000010H
$L225779:

; 122  : 		break;
; 123  : 	case OBJMSG_LOOKDOWN:	// °íµµÇÏ°­.
; 124  : 		if( GetLookState() == OBJSTA_LOOKDOWN )	return AE_ALREADY;	// ÀÌ¹Ì ÇÏ°­Áß

  000fd	8b 4e 04	 mov	 ecx, DWORD PTR [esi+4]
  00100	81 e1 00 0c 00
	00		 and	 ecx, 3072		; 00000c00H
  00106	81 f9 00 08 00
	00		 cmp	 ecx, 2048		; 00000800H
  0010c	0f 84 13 ff ff
	ff		 je	 $L227112

; 125  : 		SetLookState( OBJSTA_LOOKDOWN );

  00112	68 00 08 00 00	 push	 2048			; 00000800H
  00117	8b ce		 mov	 ecx, esi
  00119	e8 00 00 00 00	 call	 ?SetLookState@CAction@@QAEXK@Z ; CAction::SetLookState

; 130  : 		break;
; 131  : 	}
; 132  : #ifdef __CLIENT
; 133  : 	if( m_pShip->GetMover()->IsActiveMover() )
; 134  : 		g_DPlay.SendShipActMsg( m_pShip, dwMsg, nParam1, nParam2 );
; 135  : #endif // CLIENT	
; 136  : 	return 1;

  0011e	b8 01 00 00 00	 mov	 eax, 1
  00123	5e		 pop	 esi

; 137  : }

  00124	c2 10 00	 ret	 16			; 00000010H
$L225781:

; 126  : 		break;
; 127  : 	case OBJMSG_STOP_LOOK:	// »ó½Â/ÇÏ°­ ¸ØÃç¶ó.
; 128  : 		if( GetLookState() == 0 )	return AE_ALREADY;	// ÀÌ¹Ì ¸ØÃèÀ½.

  00127	8b 46 04	 mov	 eax, DWORD PTR [esi+4]
  0012a	f6 c4 0c	 test	 ah, 12			; 0000000cH
  0012d	0f 84 f2 fe ff
	ff		 je	 $L227112

; 129  : 		ResetState( OBJSTA_LOOK_ALL );	// »ó½Â/ÇÏ°­ »óÅÂ ÇØÁ¦

  00133	68 00 0c 00 00	 push	 3072			; 00000c00H
  00138	8b ce		 mov	 ecx, esi
  0013a	e8 00 00 00 00	 call	 ?ResetState@CAction@@QAEXK@Z ; CAction::ResetState
$L225762:

; 130  : 		break;
; 131  : 	}
; 132  : #ifdef __CLIENT
; 133  : 	if( m_pShip->GetMover()->IsActiveMover() )
; 134  : 		g_DPlay.SendShipActMsg( m_pShip, dwMsg, nParam1, nParam2 );
; 135  : #endif // CLIENT	
; 136  : 	return 1;

  0013f	b8 01 00 00 00	 mov	 eax, 1
  00144	5e		 pop	 esi

; 137  : }

  00145	c2 10 00	 ret	 16			; 00000010H
$L227113:
  00148	00 00 00 00	 DD	 $L225769
  0014c	00 00 00 00	 DD	 $L225765
  00150	00 00 00 00	 DD	 $L225767
  00154	00 00 00 00	 DD	 $L225771
  00158	00 00 00 00	 DD	 $L225773
  0015c	00 00 00 00	 DD	 $L225775
  00160	00 00 00 00	 DD	 $L225777
  00164	00 00 00 00	 DD	 $L225779
  00168	00 00 00 00	 DD	 $L225781
  0016c	00 00 00 00	 DD	 $L225762
$L227110:
  00170	00		 DB	 0
  00171	09		 DB	 9
  00172	01		 DB	 1
  00173	09		 DB	 9
  00174	09		 DB	 9
  00175	02		 DB	 2
  00176	09		 DB	 9
  00177	03		 DB	 3
  00178	04		 DB	 4
  00179	05		 DB	 5
  0017a	09		 DB	 9
  0017b	09		 DB	 9
  0017c	09		 DB	 9
  0017d	09		 DB	 9
  0017e	09		 DB	 9
  0017f	09		 DB	 9
  00180	09		 DB	 9
  00181	09		 DB	 9
  00182	09		 DB	 9
  00183	09		 DB	 9
  00184	09		 DB	 9
  00185	09		 DB	 9
  00186	09		 DB	 9
  00187	09		 DB	 9
  00188	09		 DB	 9
  00189	09		 DB	 9
  0018a	09		 DB	 9
  0018b	09		 DB	 9
  0018c	09		 DB	 9
  0018d	09		 DB	 9
  0018e	09		 DB	 9
  0018f	09		 DB	 9
  00190	09		 DB	 9
  00191	09		 DB	 9
  00192	09		 DB	 9
  00193	09		 DB	 9
  00194	09		 DB	 9
  00195	09		 DB	 9
  00196	09		 DB	 9
  00197	09		 DB	 9
  00198	09		 DB	 9
  00199	09		 DB	 9
  0019a	06		 DB	 6
  0019b	07		 DB	 7
  0019c	08		 DB	 8
?SendActMsg@CActionShip@@QAEHW4OBJMSG@@HHH@Z ENDP	; CActionShip::SendActMsg
_TEXT	ENDS
PUBLIC	__real@3c23d70a
PUBLIC	__real@3dcccccd
PUBLIC	__real@3a83126f
PUBLIC	__real@ba83126f
PUBLIC	__real@bdcccccd
PUBLIC	__real@38d1b717
EXTRN	?SetAngle@CObj@@QAEXM@Z:NEAR			; CObj::SetAngle
;	COMDAT __real@3c23d70a
; File c:\program files\microsoft visual studio .net 2003\vc7\include\math.h
CONST	SEGMENT
__real@3c23d70a DD 03c23d70ar			; 0.01
CONST	ENDS
;	COMDAT __real@3dcccccd
CONST	SEGMENT
__real@3dcccccd DD 03dcccccdr			; 0.1
CONST	ENDS
;	COMDAT __real@3a83126f
CONST	SEGMENT
__real@3a83126f DD 03a83126fr			; 0.001
CONST	ENDS
;	COMDAT __real@ba83126f
CONST	SEGMENT
__real@ba83126f DD 0ba83126fr			; -0.001
CONST	ENDS
;	COMDAT __real@bdcccccd
CONST	SEGMENT
__real@bdcccccd DD 0bdcccccdr			; -0.1
CONST	ENDS
;	COMDAT __real@38d1b717
CONST	SEGMENT
__real@38d1b717 DD 038d1b717r			; 0.0001
; Function compile flags: /Ogty
; File c:\documents and settings\test\mes documents\source\virtuos_v17\build\program\_aiinterface\actionship.cpp
CONST	ENDS
;	COMDAT ?ProcessState@CActionShip@@UAEXKM@Z
_TEXT	SEGMENT
_fAng$ = -16						; size = 4
$T227117 = -12						; size = 12
_dwState$ = 8						; size = 4
_fSpeed$ = 12						; size = 4
?ProcessState@CActionShip@@UAEXKM@Z PROC NEAR		; CActionShip::ProcessState, COMDAT
; _this$ = ecx

; 143  : {

  00000	83 ec 10	 sub	 esp, 16			; 00000010H

; 144  : 	CShip *pShip = m_pShip;

  00003	8b 49 40	 mov	 ecx, DWORD PTR [ecx+64]

; 145  : 	FLOAT fAng = pShip->GetAngle();

  00006	8b 41 18	 mov	 eax, DWORD PTR [ecx+24]
  00009	89 04 24	 mov	 DWORD PTR _fAng$[esp+16], eax

; 146  : 	
; 147  : 	switch( dwState )

  0000c	8b 44 24 14	 mov	 eax, DWORD PTR _dwState$[esp+12]
  00010	3d 00 02 00 00	 cmp	 eax, 512		; 00000200H
  00015	0f 87 fb 00 00
	00		 ja	 $L227118
  0001b	0f 84 b4 00 00
	00		 je	 $L225799
  00021	48		 dec	 eax
  00022	74 79		 je	 SHORT $L225794
  00024	83 e8 03	 sub	 eax, 3
  00027	74 3d		 je	 SHORT $L225796
  00029	2d fc 00 00 00	 sub	 eax, 252		; 000000fcH
  0002e	0f 85 1a 01 00
	00		 jne	 $L225791

; 154  : 		break;
; 155  : 	case OBJSTA_LTURN:	// ¿ÞÂÊÅÏÁß
; 156  : 		pShip->m_fAccAng += 0.01f;

  00034	d9 81 a8 02 00
	00		 fld	 DWORD PTR [ecx+680]
  0003a	d8 05 00 00 00
	00		 fadd	 DWORD PTR __real@3c23d70a
  00040	d9 91 a8 02 00
	00		 fst	 DWORD PTR [ecx+680]

; 157  : 		if( pShip->m_fAccAng > 0.1f )

  00046	d8 1d 00 00 00
	00		 fcomp	 DWORD PTR __real@3dcccccd
  0004c	df e0		 fnstsw	 ax
  0004e	f6 c4 41	 test	 ah, 65			; 00000041H
  00051	0f 85 a7 00 00
	00		 jne	 $L225800

; 158  : 			pShip->m_fAccAng = 0.1f;

  00057	c7 81 a8 02 00
	00 cd cc cc 3d	 mov	 DWORD PTR [ecx+680], 1036831949 ; 3dcccccdH

; 159  : 		fAng += pShip->m_fAccAng;
; 160  : 		pShip->SetAngle( fAng );
; 161  : 		break;

  00061	e9 98 00 00 00	 jmp	 $L225800
$L225796:

; 151  : 		break;
; 152  : 	case OBJSTA_FMOVE:	// ÀüÁøÁß
; 153  : 		AngleToVectorXZ( &pShip->m_vAcc, fAng, 0.001f );		// fAng¹æÇâÀ¸·Î ÃßÁø·Â¹ß»ý.

  00066	d9 04 24	 fld	 DWORD PTR _fAng$[esp+16]
  00069	c7 81 9c 02 00
	00 00 00 00 00	 mov	 DWORD PTR [ecx+668], 0
  00073	d8 0d 00 00 00
	00		 fmul	 DWORD PTR __real@3c8efa35
  00079	d9 c0		 fld	 ST(0)
  0007b	d9 fe		 fsin
  0007d	d8 0d 00 00 00
	00		 fmul	 DWORD PTR __real@3a83126f
  00083	d9 99 98 02 00
	00		 fstp	 DWORD PTR [ecx+664]
  00089	d9 ff		 fcos
  0008b	d8 0d 00 00 00
	00		 fmul	 DWORD PTR __real@ba83126f
  00091	d9 99 a0 02 00
	00		 fstp	 DWORD PTR [ecx+672]

; 174  : 		break;
; 175  : 
; 176  : 	}
; 177  : }

  00097	83 c4 10	 add	 esp, 16			; 00000010H
  0009a	c2 08 00	 ret	 8
$L225794:

; 148  : 	{
; 149  : 	case OBJSTA_STAND:	// ´ë±âÁß
; 150  : 		pShip->m_vAcc = D3DXVECTOR3( 0, 0, 0 );		// ´ë±â»óÅÂ¿¡¼± ÃßÁø·ÂÀÌ ¾øÀ½.

  0009d	c7 44 24 04 00
	00 00 00	 mov	 DWORD PTR $T227117[esp+16], 0
  000a5	8b 54 24 04	 mov	 edx, DWORD PTR $T227117[esp+16]
  000a9	81 c1 98 02 00
	00		 add	 ecx, 664		; 00000298H
  000af	89 11		 mov	 DWORD PTR [ecx], edx
  000b1	c7 44 24 08 00
	00 00 00	 mov	 DWORD PTR $T227117[esp+20], 0
  000b9	8b 44 24 08	 mov	 eax, DWORD PTR $T227117[esp+20]
  000bd	c7 44 24 0c 00
	00 00 00	 mov	 DWORD PTR $T227117[esp+24], 0
  000c5	8b 54 24 0c	 mov	 edx, DWORD PTR $T227117[esp+24]
  000c9	89 41 04	 mov	 DWORD PTR [ecx+4], eax
  000cc	89 51 08	 mov	 DWORD PTR [ecx+8], edx

; 174  : 		break;
; 175  : 
; 176  : 	}
; 177  : }

  000cf	83 c4 10	 add	 esp, 16			; 00000010H
  000d2	c2 08 00	 ret	 8
$L225799:

; 162  : 	case OBJSTA_RTURN:	// ¿À¸¥ÅÏÁß.
; 163  : 		pShip->m_fAccAng -= 0.01f;

  000d5	d9 81 a8 02 00
	00		 fld	 DWORD PTR [ecx+680]
  000db	d8 25 00 00 00
	00		 fsub	 DWORD PTR __real@3c23d70a
  000e1	d9 91 a8 02 00
	00		 fst	 DWORD PTR [ecx+680]

; 164  : 		if( pShip->m_fAccAng < -0.1f )

  000e7	d8 1d 00 00 00
	00		 fcomp	 DWORD PTR __real@bdcccccd
  000ed	df e0		 fnstsw	 ax
  000ef	f6 c4 05	 test	 ah, 5
  000f2	7a 0a		 jp	 SHORT $L225800

; 165  : 			pShip->m_fAccAng = -0.1f;

  000f4	c7 81 a8 02 00
	00 cd cc cc bd	 mov	 DWORD PTR [ecx+680], -1110651699 ; bdcccccdH
$L225800:

; 166  : 		fAng += pShip->m_fAccAng;

  000fe	d9 04 24	 fld	 DWORD PTR _fAng$[esp+16]

; 167  : 		pShip->SetAngle( fAng );

  00101	51		 push	 ecx
  00102	d8 81 a8 02 00
	00		 fadd	 DWORD PTR [ecx+680]
  00108	d9 1c 24	 fstp	 DWORD PTR [esp]
  0010b	e8 00 00 00 00	 call	 ?SetAngle@CObj@@QAEXM@Z	; CObj::SetAngle

; 174  : 		break;
; 175  : 
; 176  : 	}
; 177  : }

  00110	83 c4 10	 add	 esp, 16			; 00000010H
  00113	c2 08 00	 ret	 8
$L227118:

; 146  : 	
; 147  : 	switch( dwState )

  00116	3d 00 04 00 00	 cmp	 eax, 1024		; 00000400H
  0011b	74 1f		 je	 SHORT $L225801
  0011d	3d 00 08 00 00	 cmp	 eax, 2048		; 00000800H
  00122	75 2a		 jne	 SHORT $L225791

; 171  : 		break;
; 172  : 	case OBJSTA_LOOKDOWN:	// °íµµ ÇÏ°­Áß
; 173  : 		pShip->m_vAcc.y -= 0.0001f;

  00124	d9 81 9c 02 00
	00		 fld	 DWORD PTR [ecx+668]
  0012a	d8 25 00 00 00
	00		 fsub	 DWORD PTR __real@38d1b717
  00130	d9 99 9c 02 00
	00		 fstp	 DWORD PTR [ecx+668]

; 174  : 		break;
; 175  : 
; 176  : 	}
; 177  : }

  00136	83 c4 10	 add	 esp, 16			; 00000010H
  00139	c2 08 00	 ret	 8
$L225801:

; 168  : 		break;
; 169  : 	case OBJSTA_LOOKUP:		// °íµµ »ó½ÂÁß
; 170  : 		pShip->m_vAcc.y += 0.0001f;

  0013c	d9 81 9c 02 00
	00		 fld	 DWORD PTR [ecx+668]
  00142	d8 05 00 00 00
	00		 fadd	 DWORD PTR __real@38d1b717
  00148	d9 99 9c 02 00
	00		 fstp	 DWORD PTR [ecx+668]
$L225791:

; 174  : 		break;
; 175  : 
; 176  : 	}
; 177  : }

  0014e	83 c4 10	 add	 esp, 16			; 00000010H
  00151	c2 08 00	 ret	 8
?ProcessState@CActionShip@@UAEXKM@Z ENDP		; CActionShip::ProcessState
_TEXT	ENDS
EXTRN	??3@YAXPAX@Z:NEAR				; operator delete
; Function compile flags: /Ogty
;	COMDAT ??_GCActionShip@@UAEPAXI@Z
_TEXT	SEGMENT
___flags$ = 8						; size = 4
??_GCActionShip@@UAEPAXI@Z PROC NEAR			; CActionShip::`scalar deleting destructor', COMDAT
; _this$ = ecx
  00000	56		 push	 esi
  00001	8b f1		 mov	 esi, ecx
  00003	e8 00 00 00 00	 call	 ??1CActionShip@@UAE@XZ	; CActionShip::~CActionShip
  00008	f6 44 24 08 01	 test	 BYTE PTR ___flags$[esp], 1
  0000d	74 09		 je	 SHORT $L227158
  0000f	56		 push	 esi
  00010	e8 00 00 00 00	 call	 ??3@YAXPAX@Z		; operator delete
  00015	83 c4 04	 add	 esp, 4
$L227158:
  00018	8b c6		 mov	 eax, esi
  0001a	5e		 pop	 esi
  0001b	c2 04 00	 ret	 4
??_GCActionShip@@UAEPAXI@Z ENDP				; CActionShip::`scalar deleting destructor'
_TEXT	ENDS
PUBLIC	?Process@CActionShip@@QAEHXZ			; CActionShip::Process
PUBLIC	__real@00000000
PUBLIC	__real@3b03126f
;	COMDAT __real@00000000
; File c:\documents and settings\test\mes documents\source\virtuos_v17\build\program\_common\obj.h
CONST	SEGMENT
__real@00000000 DD 000000000r			; 0
CONST	ENDS
;	COMDAT __real@3b03126f
CONST	SEGMENT
__real@3b03126f DD 03b03126fr			; 0.002
; Function compile flags: /Ogty
; File c:\documents and settings\test\mes documents\source\virtuos_v17\build\program\_aiinterface\actionship.cpp
CONST	ENDS
;	COMDAT ?Process@CActionShip@@QAEHXZ
_TEXT	SEGMENT
?Process@CActionShip@@QAEHXZ PROC NEAR			; CActionShip::Process, COMDAT
; _this$ = ecx

; 37   : {

  00000	56		 push	 esi
  00001	8b f1		 mov	 esi, ecx

; 38   : 	CShip *pShip = m_pShip;
; 39   : 	
; 40   : 	if( GetState() == 0 )

  00003	8b 46 04	 mov	 eax, DWORD PTR [esi+4]
  00006	85 c0		 test	 eax, eax
  00008	57		 push	 edi
  00009	8b 7e 40	 mov	 edi, DWORD PTR [esi+64]
  0000c	75 07		 jne	 SHORT $L227199

; 41   : 	{
; 42   : 		SendActMsg( OBJMSG_STAND );

  0000e	6a 01		 push	 1
  00010	e8 00 00 00 00	 call	 ?SetMoveState@CAction@@QAEXK@Z ; CAction::SetMoveState
$L227199:

; 43   : 	}
; 44   : 
; 45   : 	if( GetState() & OBJSTA_MOVE_ALL )

  00015	8b 46 04	 mov	 eax, DWORD PTR [esi+4]
  00018	25 ff 00 00 00	 and	 eax, 255		; 000000ffH
  0001d	74 0a		 je	 SHORT $L225739

; 46   : 		ProcessState( GetState() & OBJSTA_MOVE_ALL );

  0001f	8b 16		 mov	 edx, DWORD PTR [esi]
  00021	6a 00		 push	 0
  00023	50		 push	 eax
  00024	8b ce		 mov	 ecx, esi
  00026	ff 52 08	 call	 DWORD PTR [edx+8]
$L225739:

; 47   : 
; 48   : 	if( GetState() & OBJSTA_TURN_ALL )	// ÁÂ/¿ì ÅÏ

  00029	8b 46 04	 mov	 eax, DWORD PTR [esi+4]
  0002c	25 00 03 00 00	 and	 eax, 768		; 00000300H
  00031	74 0a		 je	 SHORT $L225740

; 49   : 		ProcessState( GetState() & OBJSTA_TURN_ALL );

  00033	8b 16		 mov	 edx, DWORD PTR [esi]
  00035	6a 00		 push	 0
  00037	50		 push	 eax
  00038	8b ce		 mov	 ecx, esi
  0003a	ff 52 08	 call	 DWORD PTR [edx+8]
$L225740:

; 50   : 	
; 51   : 	if( GetState() & OBJSTA_LOOK_ALL )	// °íµµ »ó/ÇÏ°­

  0003d	8b 46 04	 mov	 eax, DWORD PTR [esi+4]
  00040	25 00 0c 00 00	 and	 eax, 3072		; 00000c00H
  00045	74 0a		 je	 SHORT $L225741

; 52   : 		ProcessState( GetState() & OBJSTA_LOOK_ALL );

  00047	8b 16		 mov	 edx, DWORD PTR [esi]
  00049	6a 00		 push	 0
  0004b	50		 push	 eax
  0004c	8b ce		 mov	 ecx, esi
  0004e	ff 52 08	 call	 DWORD PTR [edx+8]
$L225741:

; 53   : 
; 54   : 	if( GetState() & OBJSTA_ATK_ALL )	// ¹ßÆ÷

  00051	8b 46 04	 mov	 eax, DWORD PTR [esi+4]
  00054	25 00 00 ff 00	 and	 eax, 16711680		; 00ff0000H
  00059	74 0a		 je	 SHORT $L225742

; 55   : 		ProcessState( GetState() & OBJSTA_ATK_ALL );

  0005b	8b 16		 mov	 edx, DWORD PTR [esi]
  0005d	6a 00		 push	 0
  0005f	50		 push	 eax
  00060	8b ce		 mov	 ecx, esi
  00062	ff 52 08	 call	 DWORD PTR [edx+8]
$L225742:

; 56   : 
; 57   : 	if( GetState() & OBJSTA_DMG_ALL )	// ÇÇ°Ý.

  00065	8b 46 04	 mov	 eax, DWORD PTR [esi+4]
  00068	25 00 00 00 0f	 and	 eax, 251658240		; 0f000000H
  0006d	74 0a		 je	 SHORT $L225743

; 58   : 		ProcessState( GetState() & OBJSTA_DMG_ALL );

  0006f	8b 16		 mov	 edx, DWORD PTR [esi]
  00071	6a 00		 push	 0
  00073	50		 push	 eax
  00074	8b ce		 mov	 ecx, esi
  00076	ff 52 08	 call	 DWORD PTR [edx+8]
$L225743:

; 59   : 
; 60   : 	if( GetTurnState() == 0 )		// ÅÏÀ» ¸ØÃèÀ»¶§ ¼­¼­È÷ ¼­´Â°Í.

  00079	8b 46 04	 mov	 eax, DWORD PTR [esi+4]
  0007c	f6 c4 03	 test	 ah, 3
  0007f	0f 85 a9 00 00
	00		 jne	 $L227284

; 61   : 	{
; 62   : 		if( pShip->m_fAccAng > 0 )		// ¿ÞÂÊÀ¸·Î ÅÏÇÏ°í ÀÖ¾ú´Ù.

  00085	d9 87 a8 02 00
	00		 fld	 DWORD PTR [edi+680]
  0008b	d8 1d 00 00 00
	00		 fcomp	 DWORD PTR __real@00000000

; 63   : 		{
; 64   : 			pShip->m_fAccAng -= 0.002f;

  00091	d9 87 a8 02 00
	00		 fld	 DWORD PTR [edi+680]
  00097	df e0		 fnstsw	 ax
  00099	f6 c4 41	 test	 ah, 65			; 00000041H
  0009c	75 24		 jne	 SHORT $L225745
  0009e	d8 25 00 00 00
	00		 fsub	 DWORD PTR __real@3b03126f
  000a4	d9 9f a8 02 00
	00		 fstp	 DWORD PTR [edi+680]

; 65   : 			if( m_pShip->m_fAccAng < 0 )

  000aa	8b 4e 40	 mov	 ecx, DWORD PTR [esi+64]
  000ad	d9 81 a8 02 00
	00		 fld	 DWORD PTR [ecx+680]
  000b3	d8 1d 00 00 00
	00		 fcomp	 DWORD PTR __real@00000000
  000b9	df e0		 fnstsw	 ax
  000bb	f6 c4 05	 test	 ah, 5
  000be	7a 41		 jp	 SHORT $L225749

; 66   : 				m_pShip->m_fAccAng = 0;
; 67   : 		} else

  000c0	eb 35		 jmp	 SHORT $L227285
$L225745:

; 68   : 		if( pShip->m_fAccAng < 0 )

  000c2	d8 1d 00 00 00
	00		 fcomp	 DWORD PTR __real@00000000
  000c8	df e0		 fnstsw	 ax
  000ca	f6 c4 05	 test	 ah, 5
  000cd	7a 32		 jp	 SHORT $L225749

; 69   : 		{
; 70   : 			pShip->m_fAccAng += 0.002f;

  000cf	d9 87 a8 02 00
	00		 fld	 DWORD PTR [edi+680]
  000d5	d8 05 00 00 00
	00		 fadd	 DWORD PTR __real@3b03126f
  000db	d9 9f a8 02 00
	00		 fstp	 DWORD PTR [edi+680]

; 71   : 			if( m_pShip->m_fAccAng > 0 )

  000e1	8b 4e 40	 mov	 ecx, DWORD PTR [esi+64]
  000e4	d9 81 a8 02 00
	00		 fld	 DWORD PTR [ecx+680]
  000ea	d8 1d 00 00 00
	00		 fcomp	 DWORD PTR __real@00000000
  000f0	df e0		 fnstsw	 ax
  000f2	f6 c4 41	 test	 ah, 65			; 00000041H
  000f5	75 0a		 jne	 SHORT $L225749
$L227285:

; 72   : 				m_pShip->m_fAccAng = 0;

  000f7	c7 81 a8 02 00
	00 00 00 00 00	 mov	 DWORD PTR [ecx+680], 0
$L225749:

; 73   : 		}
; 74   : 		if( m_pShip->m_fAccAng )

  00101	8b 46 40	 mov	 eax, DWORD PTR [esi+64]
  00104	d9 05 00 00 00
	00		 fld	 DWORD PTR __real@00000000
  0010a	d9 80 a8 02 00
	00		 fld	 DWORD PTR [eax+680]
  00110	da e9		 fucompp
  00112	df e0		 fnstsw	 ax
  00114	f6 c4 44	 test	 ah, 68			; 00000044H
  00117	7b 15		 jnp	 SHORT $L227284

; 75   : 			m_pShip->SetAngle( m_pShip->GetAngle() + m_pShip->m_fAccAng );

  00119	8b 4e 40	 mov	 ecx, DWORD PTR [esi+64]
  0011c	d9 81 a8 02 00
	00		 fld	 DWORD PTR [ecx+680]
  00122	51		 push	 ecx
  00123	d8 41 18	 fadd	 DWORD PTR [ecx+24]
  00126	d9 1c 24	 fstp	 DWORD PTR [esp]
  00129	e8 00 00 00 00	 call	 ?SetAngle@CObj@@QAEXM@Z	; CObj::SetAngle
$L227284:
  0012e	5f		 pop	 edi

; 76   : 	}
; 77   : 
; 78   : 	return TRUE;

  0012f	b8 01 00 00 00	 mov	 eax, 1
  00134	5e		 pop	 esi

; 79   : }

  00135	c3		 ret	 0
?Process@CActionShip@@QAEHXZ ENDP			; CActionShip::Process
_TEXT	ENDS
END
