; Listing generated by Microsoft (R) Optimizing Compiler Version 13.10.6030 

	TITLE	\Documents and Settings\test\Mes documents\Source\Virtuos_v17\Build\Program\_AIInterface\ActionMoverMsg.cpp
	.386P
include listing.inc
if @Version gt 510
.model FLAT
else
_TEXT	SEGMENT PARA USE32 PUBLIC 'CODE'
_TEXT	ENDS
_DATA	SEGMENT DWORD USE32 PUBLIC 'DATA'
_DATA	ENDS
CONST	SEGMENT DWORD USE32 PUBLIC 'CONST'
CONST	ENDS
_BSS	SEGMENT DWORD USE32 PUBLIC 'BSS'
_BSS	ENDS
$$SYMBOLS	SEGMENT BYTE USE32 'DEBSYM'
$$SYMBOLS	ENDS
$$TYPES	SEGMENT BYTE USE32 'DEBTYP'
$$TYPES	ENDS
_TLS	SEGMENT DWORD USE32 PUBLIC 'TLS'
_TLS	ENDS
;	COMDAT ??_C@_0CP@ELGGLPDI@ForcedSet?5?3?5dwState?$DN0x?$CF08x?0?5dwSt@
CONST	SEGMENT DWORD USE32 PUBLIC 'CONST'
CONST	ENDS
;	COMDAT ??_C@_0DA@DHAGLFHI@ForcedSet2?5?3?5dwState?$DN0x?$CF08x?0?5dwS@
CONST	SEGMENT DWORD USE32 PUBLIC 'CONST'
CONST	ENDS
;	COMDAT ??_C@_05PJLLPND@stand?$AA@
CONST	SEGMENT DWORD USE32 PUBLIC 'CONST'
CONST	ENDS
xdata$x	SEGMENT DWORD USE32 PUBLIC 'CONST'
xdata$x	ENDS
text$AFX_COL1	SEGMENT PARA USE32 PUBLIC ''
text$AFX_COL1	ENDS
;	COMDAT ?SelectMemberClear@__GuildCombatMember@CGuildCombat@@QAEXXZ
_TEXT	SEGMENT PARA USE32 PUBLIC 'CODE'
_TEXT	ENDS
;	COMDAT ??0__MINIGAME_PACKET@@QAE@GHHH@Z
_TEXT	SEGMENT PARA USE32 PUBLIC 'CODE'
_TEXT	ENDS
;	COMDAT ?Serialize@__MINIGAME_PACKET@@UAEXAAVCAr@@@Z
_TEXT	SEGMENT PARA USE32 PUBLIC 'CODE'
_TEXT	ENDS
;	COMDAT ?Serialize@__MINIGAME_EXT_PACKET@@UAEXAAVCAr@@@Z
_TEXT	SEGMENT PARA USE32 PUBLIC 'CODE'
_TEXT	ENDS
;	COMDAT ??0MINIGMAME_PRIZE_LIST@CRainbowRaceMng@@QAE@KHK@Z
_TEXT	SEGMENT PARA USE32 PUBLIC 'CODE'
_TEXT	ENDS
;	COMDAT ?RemovePlayerId2CampusId@CCampusMng@@QAEXK@Z
_TEXT	SEGMENT PARA USE32 PUBLIC 'CODE'
_TEXT	ENDS
;	COMDAT ?GetPacketSize@CBuffer2@@UAEKPAE@Z
_TEXT	SEGMENT PARA USE32 PUBLIC 'CODE'
_TEXT	ENDS
;	COMDAT ?SetHeader@CBuffer2@@UAEXK@Z
_TEXT	SEGMENT PARA USE32 PUBLIC 'CODE'
_TEXT	ENDS
;	COMDAT ??_GCBuffer2@@UAEPAXI@Z
_TEXT	SEGMENT PARA USE32 PUBLIC 'CODE'
_TEXT	ENDS
;	COMDAT ??1CBuffer2@@UAE@XZ
_TEXT	SEGMENT PARA USE32 PUBLIC 'CODE'
_TEXT	ENDS
;	COMDAT ?IsEmpty@CBufferQueue@@QAEHXZ
_TEXT	SEGMENT PARA USE32 PUBLIC 'CODE'
_TEXT	ENDS
;	COMDAT ??1CMapChild@@UAE@XZ
_TEXT	SEGMENT PARA USE32 PUBLIC 'CODE'
_TEXT	ENDS
;	COMDAT ??_GCMapChild@@UAEPAXI@Z
_TEXT	SEGMENT PARA USE32 PUBLIC 'CODE'
_TEXT	ENDS
;	COMDAT ??1?$map@KPAVCClientSock@@U?$less@K@std@@V?$allocator@U?$pair@$$CBKPAVCClientSock@@@std@@@3@@std@@QAE@XZ
_TEXT	SEGMENT PARA USE32 PUBLIC 'CODE'
_TEXT	ENDS
;	COMDAT ??1CMapChildE@@UAE@XZ
_TEXT	SEGMENT PARA USE32 PUBLIC 'CODE'
_TEXT	ENDS
;	COMDAT ??_GCMapChildE@@UAEPAXI@Z
_TEXT	SEGMENT PARA USE32 PUBLIC 'CODE'
_TEXT	ENDS
;	COMDAT ??1?$map@KPAVCClientSockE@@U?$less@K@std@@V?$allocator@U?$pair@$$CBKPAVCClientSockE@@@std@@@3@@std@@QAE@XZ
_TEXT	SEGMENT PARA USE32 PUBLIC 'CODE'
_TEXT	ENDS
;	COMDAT ?GetRecvHandle@CDPSock@@QAEPAXXZ
_TEXT	SEGMENT PARA USE32 PUBLIC 'CODE'
_TEXT	ENDS
;	COMDAT ?ForcedSet@CActionMover@@QAEXAAUD3DXVECTOR3@@KKH@Z
_TEXT	SEGMENT PARA USE32 PUBLIC 'CODE'
_TEXT	ENDS
;	COMDAT ?ForcedSet2@CActionMover@@QAEXAAUD3DXVECTOR3@@MMKKH@Z
_TEXT	SEGMENT PARA USE32 PUBLIC 'CODE'
_TEXT	ENDS
;	COMDAT ?HalfForcedSet@CActionMover@@QAEXAAUD3DXVECTOR3@@MM@Z
_TEXT	SEGMENT PARA USE32 PUBLIC 'CODE'
_TEXT	ENDS
;	COMDAT ?DefaultSet@CActionMover@@QAEXXZ
_TEXT	SEGMENT PARA USE32 PUBLIC 'CODE'
_TEXT	ENDS
;	COMDAT ?ProcessActMsg1@CActionMover@@QAEHPAVCMover@@W4OBJMSG@@HHHHH@Z
_TEXT	SEGMENT PARA USE32 PUBLIC 'CODE'
_TEXT	ENDS
;	COMDAT ?PreProcessDamage@CActionMover@@QAEPAVCMover@@PAV2@KHH@Z
_TEXT	SEGMENT PARA USE32 PUBLIC 'CODE'
_TEXT	ENDS
;	COMDAT ?compare@?$basic_string@DU?$char_traits@D@std@@V?$allocator@D@2@@std@@QBEHABV12@@Z
_TEXT	SEGMENT PARA USE32 PUBLIC 'CODE'
_TEXT	ENDS
;	COMDAT ?IsFull@?$CStack@K@@QAEHXZ
_TEXT	SEGMENT PARA USE32 PUBLIC 'CODE'
_TEXT	ENDS
;	COMDAT ??A?$map@KPAVCCtrl@@U?$less@K@std@@V?$allocator@U?$pair@$$CBKPAVCCtrl@@@std@@@3@@std@@QAEAAPAVCCtrl@@ABK@Z
_TEXT	SEGMENT PARA USE32 PUBLIC 'CODE'
_TEXT	ENDS
;	COMDAT ??0?$pair@KPAVCCtrl@@@std@@QAE@ABKABQAVCCtrl@@@Z
_TEXT	SEGMENT PARA USE32 PUBLIC 'CODE'
_TEXT	ENDS
;	COMDAT ??0?$map@KHU?$less@K@std@@V?$allocator@U?$pair@$$CBKH@std@@@2@@std@@QAE@XZ
_TEXT	SEGMENT PARA USE32 PUBLIC 'CODE'
_TEXT	ENDS
;	COMDAT ?GetMax@?$CItemContainer@VCItemElem@@@@QAEHXZ
_TEXT	SEGMENT PARA USE32 PUBLIC 'CODE'
_TEXT	ENDS
;	COMDAT ??0?$deque@PAUtagACTMSG@@V?$allocator@PAUtagACTMSG@@@std@@@std@@QAE@XZ
_TEXT	SEGMENT PARA USE32 PUBLIC 'CODE'
_TEXT	ENDS
;	COMDAT ??1?$deque@PAUtagACTMSG@@V?$allocator@PAUtagACTMSG@@@std@@@std@@QAE@XZ
_TEXT	SEGMENT PARA USE32 PUBLIC 'CODE'
_TEXT	ENDS
;	COMDAT ?begin@?$deque@PAUtagACTMSG@@V?$allocator@PAUtagACTMSG@@@std@@@std@@QAE?AViterator@12@XZ
_TEXT	SEGMENT PARA USE32 PUBLIC 'CODE'
_TEXT	ENDS
;	COMDAT ?end@?$deque@PAUtagACTMSG@@V?$allocator@PAUtagACTMSG@@@std@@@std@@QAE?AViterator@12@XZ
_TEXT	SEGMENT PARA USE32 PUBLIC 'CODE'
_TEXT	ENDS
;	COMDAT ?empty@?$deque@PAUtagACTMSG@@V?$allocator@PAUtagACTMSG@@@std@@@std@@QBE_NXZ
_TEXT	SEGMENT PARA USE32 PUBLIC 'CODE'
_TEXT	ENDS
;	COMDAT ?clear@?$deque@PAUtagACTMSG@@V?$allocator@PAUtagACTMSG@@@std@@@std@@QAEXXZ
_TEXT	SEGMENT PARA USE32 PUBLIC 'CODE'
_TEXT	ENDS
;	COMDAT ??0?$deque@PAUtagMAGICATKMSG@@V?$allocator@PAUtagMAGICATKMSG@@@std@@@std@@QAE@XZ
_TEXT	SEGMENT PARA USE32 PUBLIC 'CODE'
_TEXT	ENDS
;	COMDAT ??1?$deque@PAUtagMAGICATKMSG@@V?$allocator@PAUtagMAGICATKMSG@@@std@@@std@@QAE@XZ
_TEXT	SEGMENT PARA USE32 PUBLIC 'CODE'
_TEXT	ENDS
;	COMDAT ?begin@?$deque@PAUtagMAGICATKMSG@@V?$allocator@PAUtagMAGICATKMSG@@@std@@@std@@QAE?AViterator@12@XZ
_TEXT	SEGMENT PARA USE32 PUBLIC 'CODE'
_TEXT	ENDS
;	COMDAT ?end@?$deque@PAUtagMAGICATKMSG@@V?$allocator@PAUtagMAGICATKMSG@@@std@@@std@@QAE?AViterator@12@XZ
_TEXT	SEGMENT PARA USE32 PUBLIC 'CODE'
_TEXT	ENDS
;	COMDAT ?empty@?$deque@PAUtagMAGICATKMSG@@V?$allocator@PAUtagMAGICATKMSG@@@std@@@std@@QBE_NXZ
_TEXT	SEGMENT PARA USE32 PUBLIC 'CODE'
_TEXT	ENDS
;	COMDAT ?clear@?$deque@PAUtagMAGICATKMSG@@V?$allocator@PAUtagMAGICATKMSG@@@std@@@std@@QAEXXZ
_TEXT	SEGMENT PARA USE32 PUBLIC 'CODE'
_TEXT	ENDS
;	COMDAT ??Citerator@?$_Tree@V?$_Tmap_traits@KHU?$less@K@std@@V?$allocator@U?$pair@$$CBKH@std@@@2@$0A@@std@@@std@@QBEPAU?$pair@$$CBKH@2@XZ
_TEXT	SEGMENT PARA USE32 PUBLIC 'CODE'
_TEXT	ENDS
;	COMDAT ??Diterator@?$deque@PAUtagACTMSG@@V?$allocator@PAUtagACTMSG@@@std@@@std@@QBEAAPAUtagACTMSG@@XZ
_TEXT	SEGMENT PARA USE32 PUBLIC 'CODE'
_TEXT	ENDS
;	COMDAT ??Eiterator@?$deque@PAUtagACTMSG@@V?$allocator@PAUtagACTMSG@@@std@@@std@@QAEAAV012@XZ
_TEXT	SEGMENT PARA USE32 PUBLIC 'CODE'
_TEXT	ENDS
;	COMDAT ??9const_iterator@?$deque@PAUtagACTMSG@@V?$allocator@PAUtagACTMSG@@@std@@@std@@QBE_NABV012@@Z
_TEXT	SEGMENT PARA USE32 PUBLIC 'CODE'
_TEXT	ENDS
;	COMDAT ??Diterator@?$deque@PAUtagMAGICATKMSG@@V?$allocator@PAUtagMAGICATKMSG@@@std@@@std@@QBEAAPAUtagMAGICATKMSG@@XZ
_TEXT	SEGMENT PARA USE32 PUBLIC 'CODE'
_TEXT	ENDS
;	COMDAT ??Eiterator@?$deque@PAUtagMAGICATKMSG@@V?$allocator@PAUtagMAGICATKMSG@@@std@@@std@@QAEAAV012@XZ
_TEXT	SEGMENT PARA USE32 PUBLIC 'CODE'
_TEXT	ENDS
;	COMDAT ??9const_iterator@?$deque@PAUtagMAGICATKMSG@@V?$allocator@PAUtagMAGICATKMSG@@@std@@@std@@QBE_NABV012@@Z
_TEXT	SEGMENT PARA USE32 PUBLIC 'CODE'
_TEXT	ENDS
;	COMDAT ?erase@?$_Tree@V?$_Tmap_traits@KU_Friend@@U?$less@K@std@@V?$allocator@U?$pair@$$CBKU_Friend@@@std@@@3@$0A@@std@@@std@@QAEIABK@Z
_TEXT	SEGMENT PARA USE32 PUBLIC 'CODE'
_TEXT	ENDS
;	COMDAT ?size@?$_Tree@V?$_Tmap_traits@KPAVCGuildMember@@U?$less@K@std@@V?$allocator@U?$pair@$$CBKPAVCGuildMember@@@std@@@3@$0A@@std@@@std@@QBEIXZ
_TEXT	SEGMENT PARA USE32 PUBLIC 'CODE'
_TEXT	ENDS
;	COMDAT ?size@?$_Tree@V?$_Tmap_traits@KPAVCGuild@@U?$less@K@std@@V?$allocator@U?$pair@$$CBKPAVCGuild@@@std@@@3@$0A@@std@@@std@@QBEIXZ
_TEXT	SEGMENT PARA USE32 PUBLIC 'CODE'
_TEXT	ENDS
;	COMDAT ?size@?$vector@PAU__JOINPLAYER@CGuildCombat@@V?$allocator@PAU__JOINPLAYER@CGuildCombat@@@std@@@std@@QBEIXZ
_TEXT	SEGMENT PARA USE32 PUBLIC 'CODE'
_TEXT	ENDS
;	COMDAT ??A?$vector@PAU__JOINPLAYER@CGuildCombat@@V?$allocator@PAU__JOINPLAYER@CGuildCombat@@@std@@@std@@QAEAAPAU__JOINPLAYER@CGuildCombat@@I@Z
_TEXT	SEGMENT PARA USE32 PUBLIC 'CODE'
_TEXT	ENDS
;	COMDAT ?clear@?$vector@PAU__JOINPLAYER@CGuildCombat@@V?$allocator@PAU__JOINPLAYER@CGuildCombat@@@std@@@std@@QAEXXZ
_TEXT	SEGMENT PARA USE32 PUBLIC 'CODE'
_TEXT	ENDS
;	COMDAT ?clear@?$list@PAU__JOINPLAYER@CGuildCombat@@V?$allocator@PAU__JOINPLAYER@CGuildCombat@@@std@@@std@@QAEXXZ
_TEXT	SEGMENT PARA USE32 PUBLIC 'CODE'
_TEXT	ENDS
;	COMDAT ?size@?$_Tree@V?$_Tmap_traits@KPAU_PlayerData@@U?$less@K@std@@V?$allocator@U?$pair@$$CBKPAU_PlayerData@@@std@@@3@$0A@@std@@@std@@QBEIXZ
_TEXT	SEGMENT PARA USE32 PUBLIC 'CODE'
_TEXT	ENDS
;	COMDAT ??0?$vector@U__SECRETROOM_MONSTER@@V?$allocator@U__SECRETROOM_MONSTER@@@std@@@std@@QAE@XZ
_TEXT	SEGMENT PARA USE32 PUBLIC 'CODE'
_TEXT	ENDS
;	COMDAT ??1?$vector@U__SECRETROOM_MONSTER@@V?$allocator@U__SECRETROOM_MONSTER@@@std@@@std@@QAE@XZ
_TEXT	SEGMENT PARA USE32 PUBLIC 'CODE'
_TEXT	ENDS
;	COMDAT ??0?$vector@V?$basic_string@DU?$char_traits@D@std@@V?$allocator@D@2@@std@@V?$allocator@V?$basic_string@DU?$char_traits@D@std@@V?$allocator@D@2@@std@@@2@@std@@QAE@XZ
_TEXT	SEGMENT PARA USE32 PUBLIC 'CODE'
_TEXT	ENDS
;	COMDAT ??1?$vector@V?$basic_string@DU?$char_traits@D@std@@V?$allocator@D@2@@std@@V?$allocator@V?$basic_string@DU?$char_traits@D@std@@V?$allocator@D@2@@std@@@2@@std@@QAE@XZ
_TEXT	SEGMENT PARA USE32 PUBLIC 'CODE'
_TEXT	ENDS
;	COMDAT ?size@?$vector@V?$basic_string@DU?$char_traits@D@std@@V?$allocator@D@2@@std@@V?$allocator@V?$basic_string@DU?$char_traits@D@std@@V?$allocator@D@2@@std@@@2@@std@@QBEIXZ
_TEXT	SEGMENT PARA USE32 PUBLIC 'CODE'
_TEXT	ENDS
;	COMDAT ??A?$vector@V?$basic_string@DU?$char_traits@D@std@@V?$allocator@D@2@@std@@V?$allocator@V?$basic_string@DU?$char_traits@D@std@@V?$allocator@D@2@@std@@@2@@std@@QAEAAV?$basic_string@DU?$char_traits@D@std@@V?$allocator@D@2@@1@I@Z
_TEXT	SEGMENT PARA USE32 PUBLIC 'CODE'
_TEXT	ENDS
;	COMDAT ?push_back@?$vector@V?$basic_string@DU?$char_traits@D@std@@V?$allocator@D@2@@std@@V?$allocator@V?$basic_string@DU?$char_traits@D@std@@V?$allocator@D@2@@std@@@2@@std@@QAEXABV?$basic_string@DU?$char_traits@D@std@@V?$allocator@D@2@@2@@Z
_TEXT	SEGMENT PARA USE32 PUBLIC 'CODE'
_TEXT	ENDS
;	COMDAT ?clear@?$vector@V?$basic_string@DU?$char_traits@D@std@@V?$allocator@D@2@@std@@V?$allocator@V?$basic_string@DU?$char_traits@D@std@@V?$allocator@D@2@@std@@@2@@std@@QAEXXZ
_TEXT	SEGMENT PARA USE32 PUBLIC 'CODE'
_TEXT	ENDS
;	COMDAT ?push_back@?$vector@UMINIGMAME_PRIZE_LIST@CRainbowRaceMng@@V?$allocator@UMINIGMAME_PRIZE_LIST@CRainbowRaceMng@@@std@@@std@@QAEXABUMINIGMAME_PRIZE_LIST@CRainbowRaceMng@@@Z
_TEXT	SEGMENT PARA USE32 PUBLIC 'CODE'
_TEXT	ENDS
;	COMDAT ?size@?$_Tree@V?$_Tmap_traits@KPAVCRainbowRace@@U?$less@K@std@@V?$allocator@U?$pair@$$CBKPAVCRainbowRace@@@std@@@3@$0A@@std@@@std@@QBEIXZ
_TEXT	SEGMENT PARA USE32 PUBLIC 'CODE'
_TEXT	ENDS
;	COMDAT ?size@?$vector@PAVCMiniGameBase@@V?$allocator@PAVCMiniGameBase@@@std@@@std@@QBEIXZ
_TEXT	SEGMENT PARA USE32 PUBLIC 'CODE'
_TEXT	ENDS
;	COMDAT ??A?$vector@PAVCMiniGameBase@@V?$allocator@PAVCMiniGameBase@@@std@@@std@@QAEAAPAVCMiniGameBase@@I@Z
_TEXT	SEGMENT PARA USE32 PUBLIC 'CODE'
_TEXT	ENDS
;	COMDAT ?size@?$vector@UGuildHouse_Furniture_Info@CGuildHouseBase@@V?$allocator@UGuildHouse_Furniture_Info@CGuildHouseBase@@@std@@@std@@QBEIXZ
_TEXT	SEGMENT PARA USE32 PUBLIC 'CODE'
_TEXT	ENDS
;	COMDAT ??A?$vector@UGuildHouse_Furniture_Info@CGuildHouseBase@@V?$allocator@UGuildHouse_Furniture_Info@CGuildHouseBase@@@std@@@std@@QAEAAUGuildHouse_Furniture_Info@CGuildHouseBase@@I@Z
_TEXT	SEGMENT PARA USE32 PUBLIC 'CODE'
_TEXT	ENDS
;	COMDAT ?empty@?$_Tree@V?$_Tmap_traits@KPAVCGuildHouseBase@@U?$less@K@std@@V?$allocator@U?$pair@$$CBKPAVCGuildHouseBase@@@std@@@3@$0A@@std@@@std@@QBE_NXZ
_TEXT	SEGMENT PARA USE32 PUBLIC 'CODE'
_TEXT	ENDS
;	COMDAT ?insert@?$_Tree@V?$_Tmap_traits@KPAVCGuildHouseBase@@U?$less@K@std@@V?$allocator@U?$pair@$$CBKPAVCGuildHouseBase@@@std@@@3@$0A@@std@@@std@@QAE?AU?$pair@Viterator@?$_Tree@V?$_Tmap_traits@KPAVCGuildHouseBase@@U?$less@K@std@@V?$allocator@U?$pair@$$CBKPAVCGuildHouseBase@@@std@@@3@$0A@@std@@@std@@_N@2@ABU?$pair@$$CBKPAVCGuildHouseBase@@@2@@Z
_TEXT	SEGMENT PARA USE32 PUBLIC 'CODE'
_TEXT	ENDS
;	COMDAT ?size@?$_Tree@V?$_Tmap_traits@KPAVCCampusMember@@U?$less@K@std@@V?$allocator@U?$pair@$$CBKPAVCCampusMember@@@std@@@3@$0A@@std@@@std@@QBEIXZ
_TEXT	SEGMENT PARA USE32 PUBLIC 'CODE'
_TEXT	ENDS
;	COMDAT ?empty@?$_Tree@V?$_Tmap_traits@KPAVCCampus@@U?$less@K@std@@V?$allocator@U?$pair@$$CBKPAVCCampus@@@std@@@3@$0A@@std@@@std@@QBE_NXZ
_TEXT	SEGMENT PARA USE32 PUBLIC 'CODE'
_TEXT	ENDS
;	COMDAT ?erase@?$_Tree@V?$_Tmap_traits@KKU?$less@K@std@@V?$allocator@U?$pair@$$CBKK@std@@@2@$0A@@std@@@std@@QAEIABK@Z
_TEXT	SEGMENT PARA USE32 PUBLIC 'CODE'
_TEXT	ENDS
;	COMDAT ??0?$map@KPAVCClientSock@@U?$less@K@std@@V?$allocator@U?$pair@$$CBKPAVCClientSock@@@std@@@3@@std@@QAE@XZ
_TEXT	SEGMENT PARA USE32 PUBLIC 'CODE'
_TEXT	ENDS
;	COMDAT ??1?$_Tree@V?$_Tmap_traits@KPAVCClientSock@@U?$less@K@std@@V?$allocator@U?$pair@$$CBKPAVCClientSock@@@std@@@3@$0A@@std@@@std@@QAE@XZ
_TEXT	SEGMENT PARA USE32 PUBLIC 'CODE'
_TEXT	ENDS
;	COMDAT ?end@?$_Tree@V?$_Tmap_traits@KPAVCClientSock@@U?$less@K@std@@V?$allocator@U?$pair@$$CBKPAVCClientSock@@@std@@@3@$0A@@std@@@std@@QAE?AViterator@12@XZ
_TEXT	SEGMENT PARA USE32 PUBLIC 'CODE'
_TEXT	ENDS
;	COMDAT ?find@?$_Tree@V?$_Tmap_traits@KPAVCClientSock@@U?$less@K@std@@V?$allocator@U?$pair@$$CBKPAVCClientSock@@@std@@@3@$0A@@std@@@std@@QAE?AViterator@12@ABK@Z
_TEXT	SEGMENT PARA USE32 PUBLIC 'CODE'
_TEXT	ENDS
;	COMDAT ??Citerator@?$_Tree@V?$_Tmap_traits@KPAVCClientSock@@U?$less@K@std@@V?$allocator@U?$pair@$$CBKPAVCClientSock@@@std@@@3@$0A@@std@@@std@@QBEPAU?$pair@$$CBKPAVCClientSock@@@2@XZ
_TEXT	SEGMENT PARA USE32 PUBLIC 'CODE'
_TEXT	ENDS
;	COMDAT ??9const_iterator@?$_Tree@V?$_Tmap_traits@KPAVCClientSock@@U?$less@K@std@@V?$allocator@U?$pair@$$CBKPAVCClientSock@@@std@@@3@$0A@@std@@@std@@QBE_NABV012@@Z
_TEXT	SEGMENT PARA USE32 PUBLIC 'CODE'
_TEXT	ENDS
;	COMDAT ??0?$map@KPAVCClientSockE@@U?$less@K@std@@V?$allocator@U?$pair@$$CBKPAVCClientSockE@@@std@@@3@@std@@QAE@XZ
_TEXT	SEGMENT PARA USE32 PUBLIC 'CODE'
_TEXT	ENDS
;	COMDAT ??1?$_Tree@V?$_Tmap_traits@KPAVCClientSockE@@U?$less@K@std@@V?$allocator@U?$pair@$$CBKPAVCClientSockE@@@std@@@3@$0A@@std@@@std@@QAE@XZ
_TEXT	SEGMENT PARA USE32 PUBLIC 'CODE'
_TEXT	ENDS
;	COMDAT ?end@?$_Tree@V?$_Tmap_traits@KPAVCClientSockE@@U?$less@K@std@@V?$allocator@U?$pair@$$CBKPAVCClientSockE@@@std@@@3@$0A@@std@@@std@@QAE?AViterator@12@XZ
_TEXT	SEGMENT PARA USE32 PUBLIC 'CODE'
_TEXT	ENDS
;	COMDAT ?find@?$_Tree@V?$_Tmap_traits@KPAVCClientSockE@@U?$less@K@std@@V?$allocator@U?$pair@$$CBKPAVCClientSockE@@@std@@@3@$0A@@std@@@std@@QAE?AViterator@12@ABK@Z
_TEXT	SEGMENT PARA USE32 PUBLIC 'CODE'
_TEXT	ENDS
;	COMDAT ??Citerator@?$_Tree@V?$_Tmap_traits@KPAVCClientSockE@@U?$less@K@std@@V?$allocator@U?$pair@$$CBKPAVCClientSockE@@@std@@@3@$0A@@std@@@std@@QBEPAU?$pair@$$CBKPAVCClientSockE@@@2@XZ
_TEXT	SEGMENT PARA USE32 PUBLIC 'CODE'
_TEXT	ENDS
;	COMDAT ??9const_iterator@?$_Tree@V?$_Tmap_traits@KPAVCClientSockE@@U?$less@K@std@@V?$allocator@U?$pair@$$CBKPAVCClientSockE@@@std@@@3@$0A@@std@@@std@@QBE_NABV012@@Z
_TEXT	SEGMENT PARA USE32 PUBLIC 'CODE'
_TEXT	ENDS
;	COMDAT ?end@?$_Tree@V?$_Tmap_traits@KP8CDPCoreClient@@AEXAAVCAr@@KKK@ZU?$less@K@std@@V?$allocator@U?$pair@$$CBKP8CDPCoreClient@@AEXAAVCAr@@KKK@Z@std@@@4@$0A@@std@@@std@@QAE?AViterator@12@XZ
_TEXT	SEGMENT PARA USE32 PUBLIC 'CODE'
_TEXT	ENDS
;	COMDAT ?find@?$_Tree@V?$_Tmap_traits@KP8CDPCoreClient@@AEXAAVCAr@@KKK@ZU?$less@K@std@@V?$allocator@U?$pair@$$CBKP8CDPCoreClient@@AEXAAVCAr@@KKK@Z@std@@@4@$0A@@std@@@std@@QAE?AViterator@12@ABK@Z
_TEXT	SEGMENT PARA USE32 PUBLIC 'CODE'
_TEXT	ENDS
;	COMDAT ??Citerator@?$_Tree@V?$_Tmap_traits@KP8CDPCoreClient@@AEXAAVCAr@@KKK@ZU?$less@K@std@@V?$allocator@U?$pair@$$CBKP8CDPCoreClient@@AEXAAVCAr@@KKK@Z@std@@@4@$0A@@std@@@std@@QBEPAU?$pair@$$CBKP8CDPCoreClient@@AEXAAVCAr@@KKK@Z@2@XZ
_TEXT	SEGMENT PARA USE32 PUBLIC 'CODE'
_TEXT	ENDS
;	COMDAT ??9const_iterator@?$_Tree@V?$_Tmap_traits@KP8CDPCoreClient@@AEXAAVCAr@@KKK@ZU?$less@K@std@@V?$allocator@U?$pair@$$CBKP8CDPCoreClient@@AEXAAVCAr@@KKK@Z@std@@@4@$0A@@std@@@std@@QBE_NABV012@@Z
_TEXT	SEGMENT PARA USE32 PUBLIC 'CODE'
_TEXT	ENDS
;	COMDAT ?end@?$_Tree@V?$_Tmap_traits@KP8CDPDatabaseClient@@AEXAAVCAr@@KK@ZU?$less@K@std@@V?$allocator@U?$pair@$$CBKP8CDPDatabaseClient@@AEXAAVCAr@@KK@Z@std@@@4@$0A@@std@@@std@@QAE?AViterator@12@XZ
_TEXT	SEGMENT PARA USE32 PUBLIC 'CODE'
_TEXT	ENDS
;	COMDAT ?find@?$_Tree@V?$_Tmap_traits@KP8CDPDatabaseClient@@AEXAAVCAr@@KK@ZU?$less@K@std@@V?$allocator@U?$pair@$$CBKP8CDPDatabaseClient@@AEXAAVCAr@@KK@Z@std@@@4@$0A@@std@@@std@@QAE?AViterator@12@ABK@Z
_TEXT	SEGMENT PARA USE32 PUBLIC 'CODE'
_TEXT	ENDS
;	COMDAT ??Citerator@?$_Tree@V?$_Tmap_traits@KP8CDPDatabaseClient@@AEXAAVCAr@@KK@ZU?$less@K@std@@V?$allocator@U?$pair@$$CBKP8CDPDatabaseClient@@AEXAAVCAr@@KK@Z@std@@@4@$0A@@std@@@std@@QBEPAU?$pair@$$CBKP8CDPDatabaseClient@@AEXAAVCAr@@KK@Z@2@XZ
_TEXT	SEGMENT PARA USE32 PUBLIC 'CODE'
_TEXT	ENDS
;	COMDAT ??9const_iterator@?$_Tree@V?$_Tmap_traits@KP8CDPDatabaseClient@@AEXAAVCAr@@KK@ZU?$less@K@std@@V?$allocator@U?$pair@$$CBKP8CDPDatabaseClient@@AEXAAVCAr@@KK@Z@std@@@4@$0A@@std@@@std@@QBE_NABV012@@Z
_TEXT	SEGMENT PARA USE32 PUBLIC 'CODE'
_TEXT	ENDS
;	COMDAT ?compare@?$basic_string@DU?$char_traits@D@std@@V?$allocator@D@2@@std@@QBEHIIPBDI@Z
_TEXT	SEGMENT PARA USE32 PUBLIC 'CODE'
_TEXT	ENDS
;	COMDAT ??0?$allocator@V?$basic_string@DU?$char_traits@D@std@@V?$allocator@D@2@@std@@@std@@QAE@XZ
_TEXT	SEGMENT PARA USE32 PUBLIC 'CODE'
_TEXT	ENDS
;	COMDAT ?insert@?$_Tree@V?$_Tmap_traits@KPAVCCtrl@@U?$less@K@std@@V?$allocator@U?$pair@$$CBKPAVCCtrl@@@std@@@3@$0A@@std@@@std@@QAE?AViterator@12@V312@ABU?$pair@$$CBKPAVCCtrl@@@2@@Z
_TEXT	SEGMENT PARA USE32 PUBLIC 'CODE'
_TEXT	ENDS
;	COMDAT ??0?$pair@$$CBKPAVCCtrl@@@std@@QAE@ABKABQAVCCtrl@@@Z
_TEXT	SEGMENT PARA USE32 PUBLIC 'CODE'
_TEXT	ENDS
;	COMDAT ??0?$_Tree@V?$_Tmap_traits@KHU?$less@K@std@@V?$allocator@U?$pair@$$CBKH@std@@@2@$0A@@std@@@std@@QAE@ABU?$less@K@1@ABV?$allocator@U?$pair@$$CBKH@std@@@1@@Z
_TEXT	SEGMENT PARA USE32 PUBLIC 'CODE'
_TEXT	ENDS
;	COMDAT ??0?$allocator@U?$pair@$$CBKH@std@@@std@@QAE@XZ
_TEXT	SEGMENT PARA USE32 PUBLIC 'CODE'
_TEXT	ENDS
;	COMDAT ?_Tidy@?$deque@PAUtagACTMSG@@V?$allocator@PAUtagACTMSG@@@std@@@std@@IAEXXZ
_TEXT	SEGMENT PARA USE32 PUBLIC 'CODE'
_TEXT	ENDS
;	COMDAT ??0?$_Deque_val@PAUtagACTMSG@@V?$allocator@PAUtagACTMSG@@@std@@@std@@IAE@V?$allocator@PAUtagACTMSG@@@1@@Z
_TEXT	SEGMENT PARA USE32 PUBLIC 'CODE'
_TEXT	ENDS
;	COMDAT ??0?$allocator@PAUtagACTMSG@@@std@@QAE@XZ
_TEXT	SEGMENT PARA USE32 PUBLIC 'CODE'
_TEXT	ENDS
;	COMDAT ?_Tidy@?$deque@PAUtagMAGICATKMSG@@V?$allocator@PAUtagMAGICATKMSG@@@std@@@std@@IAEXXZ
_TEXT	SEGMENT PARA USE32 PUBLIC 'CODE'
_TEXT	ENDS
;	COMDAT ??0?$_Deque_val@PAUtagMAGICATKMSG@@V?$allocator@PAUtagMAGICATKMSG@@@std@@@std@@IAE@V?$allocator@PAUtagMAGICATKMSG@@@1@@Z
_TEXT	SEGMENT PARA USE32 PUBLIC 'CODE'
_TEXT	ENDS
;	COMDAT ??0?$allocator@PAUtagMAGICATKMSG@@@std@@QAE@XZ
_TEXT	SEGMENT PARA USE32 PUBLIC 'CODE'
_TEXT	ENDS
;	COMDAT ??Diterator@?$_Tree@V?$_Tmap_traits@KHU?$less@K@std@@V?$allocator@U?$pair@$$CBKH@std@@@2@$0A@@std@@@std@@QBEAAU?$pair@$$CBKH@2@XZ
_TEXT	SEGMENT PARA USE32 PUBLIC 'CODE'
_TEXT	ENDS
;	COMDAT ??0iterator@?$deque@PAUtagACTMSG@@V?$allocator@PAUtagACTMSG@@@std@@@std@@QAE@IPBV12@@Z
_TEXT	SEGMENT PARA USE32 PUBLIC 'CODE'
_TEXT	ENDS
;	COMDAT ??Dconst_iterator@?$deque@PAUtagACTMSG@@V?$allocator@PAUtagACTMSG@@@std@@@std@@QBEABQAUtagACTMSG@@XZ
_TEXT	SEGMENT PARA USE32 PUBLIC 'CODE'
_TEXT	ENDS
;	COMDAT ??8const_iterator@?$deque@PAUtagACTMSG@@V?$allocator@PAUtagACTMSG@@@std@@@std@@QBE_NABV012@@Z
_TEXT	SEGMENT PARA USE32 PUBLIC 'CODE'
_TEXT	ENDS
;	COMDAT ??0iterator@?$deque@PAUtagMAGICATKMSG@@V?$allocator@PAUtagMAGICATKMSG@@@std@@@std@@QAE@IPBV12@@Z
_TEXT	SEGMENT PARA USE32 PUBLIC 'CODE'
_TEXT	ENDS
;	COMDAT ??Dconst_iterator@?$deque@PAUtagMAGICATKMSG@@V?$allocator@PAUtagMAGICATKMSG@@@std@@@std@@QBEABQAUtagMAGICATKMSG@@XZ
_TEXT	SEGMENT PARA USE32 PUBLIC 'CODE'
_TEXT	ENDS
;	COMDAT ??8const_iterator@?$deque@PAUtagMAGICATKMSG@@V?$allocator@PAUtagMAGICATKMSG@@@std@@@std@@QBE_NABV012@@Z
_TEXT	SEGMENT PARA USE32 PUBLIC 'CODE'
_TEXT	ENDS
;	COMDAT ?erase@?$_Tree@V?$_Tmap_traits@KU_Friend@@U?$less@K@std@@V?$allocator@U?$pair@$$CBKU_Friend@@@std@@@3@$0A@@std@@@std@@QAE?AViterator@12@V312@0@Z
_TEXT	SEGMENT PARA USE32 PUBLIC 'CODE'
_TEXT	ENDS
;	COMDAT ?equal_range@?$_Tree@V?$_Tmap_traits@KU_Friend@@U?$less@K@std@@V?$allocator@U?$pair@$$CBKU_Friend@@@std@@@3@$0A@@std@@@std@@QAE?AU?$pair@Viterator@?$_Tree@V?$_Tmap_traits@KU_Friend@@U?$less@K@std@@V?$allocator@U?$pair@$$CBKU_Friend@@@std@@@3@$0A@@std@@@std@@V123@@2@ABK@Z
_TEXT	SEGMENT PARA USE32 PUBLIC 'CODE'
_TEXT	ENDS
;	COMDAT ?begin@?$vector@PAU__JOINPLAYER@CGuildCombat@@V?$allocator@PAU__JOINPLAYER@CGuildCombat@@@std@@@std@@QAE?AViterator@12@XZ
_TEXT	SEGMENT PARA USE32 PUBLIC 'CODE'
_TEXT	ENDS
;	COMDAT ?_Tidy@?$vector@PAU__JOINPLAYER@CGuildCombat@@V?$allocator@PAU__JOINPLAYER@CGuildCombat@@@std@@@std@@IAEXXZ
_TEXT	SEGMENT PARA USE32 PUBLIC 'CODE'
_TEXT	ENDS
;	COMDAT ?_Nextnode@?$list@PAU__JOINPLAYER@CGuildCombat@@V?$allocator@PAU__JOINPLAYER@CGuildCombat@@@std@@@std@@KAAAPAU_Node@?$_List_nod@PAU__JOINPLAYER@CGuildCombat@@V?$allocator@PAU__JOINPLAYER@CGuildCombat@@@std@@@2@PAU342@@Z
_TEXT	SEGMENT PARA USE32 PUBLIC 'CODE'
_TEXT	ENDS
;	COMDAT ?_Prevnode@?$list@PAU__JOINPLAYER@CGuildCombat@@V?$allocator@PAU__JOINPLAYER@CGuildCombat@@@std@@@std@@KAAAPAU_Node@?$_List_nod@PAU__JOINPLAYER@CGuildCombat@@V?$allocator@PAU__JOINPLAYER@CGuildCombat@@@std@@@2@PAU342@@Z
_TEXT	SEGMENT PARA USE32 PUBLIC 'CODE'
_TEXT	ENDS
;	COMDAT ?deallocate@?$allocator@U_Node@?$_List_nod@PAU__JOINPLAYER@CGuildCombat@@V?$allocator@PAU__JOINPLAYER@CGuildCombat@@@std@@@std@@@std@@QAEXPAU_Node@?$_List_nod@PAU__JOINPLAYER@CGuildCombat@@V?$allocator@PAU__JOINPLAYER@CGuildCombat@@@std@@@2@I@Z
_TEXT	SEGMENT PARA USE32 PUBLIC 'CODE'
_TEXT	ENDS
;	COMDAT ?destroy@?$allocator@U_Node@?$_List_nod@PAU__JOINPLAYER@CGuildCombat@@V?$allocator@PAU__JOINPLAYER@CGuildCombat@@@std@@@std@@@std@@QAEXPAU_Node@?$_List_nod@PAU__JOINPLAYER@CGuildCombat@@V?$allocator@PAU__JOINPLAYER@CGuildCombat@@@std@@@2@@Z
_TEXT	SEGMENT PARA USE32 PUBLIC 'CODE'
_TEXT	ENDS
;	COMDAT ?_Buy@?$vector@U__SECRETROOM_MONSTER@@V?$allocator@U__SECRETROOM_MONSTER@@@std@@@std@@IAE_NI@Z
_TEXT	SEGMENT PARA USE32 PUBLIC 'CODE'
_TEXT	ENDS
;	COMDAT ?_Tidy@?$vector@U__SECRETROOM_MONSTER@@V?$allocator@U__SECRETROOM_MONSTER@@@std@@@std@@IAEXXZ
_TEXT	SEGMENT PARA USE32 PUBLIC 'CODE'
_TEXT	ENDS
;	COMDAT ??0?$_Vector_val@U__SECRETROOM_MONSTER@@V?$allocator@U__SECRETROOM_MONSTER@@@std@@@std@@IAE@V?$allocator@U__SECRETROOM_MONSTER@@@1@@Z
_TEXT	SEGMENT PARA USE32 PUBLIC 'CODE'
_TEXT	ENDS
;	COMDAT ??0?$allocator@U__SECRETROOM_MONSTER@@@std@@QAE@XZ
_TEXT	SEGMENT PARA USE32 PUBLIC 'CODE'
_TEXT	ENDS
;	COMDAT ?capacity@?$vector@V?$basic_string@DU?$char_traits@D@std@@V?$allocator@D@2@@std@@V?$allocator@V?$basic_string@DU?$char_traits@D@std@@V?$allocator@D@2@@std@@@2@@std@@QBEIXZ
_TEXT	SEGMENT PARA USE32 PUBLIC 'CODE'
_TEXT	ENDS
;	COMDAT ?begin@?$vector@V?$basic_string@DU?$char_traits@D@std@@V?$allocator@D@2@@std@@V?$allocator@V?$basic_string@DU?$char_traits@D@std@@V?$allocator@D@2@@std@@@2@@std@@QAE?AViterator@12@XZ
_TEXT	SEGMENT PARA USE32 PUBLIC 'CODE'
_TEXT	ENDS
;	COMDAT ?end@?$vector@V?$basic_string@DU?$char_traits@D@std@@V?$allocator@D@2@@std@@V?$allocator@V?$basic_string@DU?$char_traits@D@std@@V?$allocator@D@2@@std@@@2@@std@@QAE?AViterator@12@XZ
_TEXT	SEGMENT PARA USE32 PUBLIC 'CODE'
_TEXT	ENDS
;	COMDAT ?insert@?$vector@V?$basic_string@DU?$char_traits@D@std@@V?$allocator@D@2@@std@@V?$allocator@V?$basic_string@DU?$char_traits@D@std@@V?$allocator@D@2@@std@@@2@@std@@QAE?AViterator@12@V312@ABV?$basic_string@DU?$char_traits@D@std@@V?$allocator@D@2@@2@@Z
_TEXT	SEGMENT PARA USE32 PUBLIC 'CODE'
_TEXT	ENDS
;	COMDAT ?_Buy@?$vector@V?$basic_string@DU?$char_traits@D@std@@V?$allocator@D@2@@std@@V?$allocator@V?$basic_string@DU?$char_traits@D@std@@V?$allocator@D@2@@std@@@2@@std@@IAE_NI@Z
_TEXT	SEGMENT PARA USE32 PUBLIC 'CODE'
_TEXT	ENDS
;	COMDAT ?_Tidy@?$vector@V?$basic_string@DU?$char_traits@D@std@@V?$allocator@D@2@@std@@V?$allocator@V?$basic_string@DU?$char_traits@D@std@@V?$allocator@D@2@@std@@@2@@std@@IAEXXZ
_TEXT	SEGMENT PARA USE32 PUBLIC 'CODE'
_TEXT	ENDS
;	COMDAT ?_Ufill@?$vector@V?$basic_string@DU?$char_traits@D@std@@V?$allocator@D@2@@std@@V?$allocator@V?$basic_string@DU?$char_traits@D@std@@V?$allocator@D@2@@std@@@2@@std@@IAEPAV?$basic_string@DU?$char_traits@D@std@@V?$allocator@D@2@@2@PAV32@IABV32@@Z
_TEXT	SEGMENT PARA USE32 PUBLIC 'CODE'
_TEXT	ENDS
;	COMDAT ??0?$_Vector_val@V?$basic_string@DU?$char_traits@D@std@@V?$allocator@D@2@@std@@V?$allocator@V?$basic_string@DU?$char_traits@D@std@@V?$allocator@D@2@@std@@@2@@std@@IAE@V?$allocator@V?$basic_string@DU?$char_traits@D@std@@V?$allocator@D@2@@std@@@1@@Z
_TEXT	SEGMENT PARA USE32 PUBLIC 'CODE'
_TEXT	ENDS
;	COMDAT ?capacity@?$vector@UMINIGMAME_PRIZE_LIST@CRainbowRaceMng@@V?$allocator@UMINIGMAME_PRIZE_LIST@CRainbowRaceMng@@@std@@@std@@QBEIXZ
_TEXT	SEGMENT PARA USE32 PUBLIC 'CODE'
_TEXT	ENDS
;	COMDAT ?end@?$vector@UMINIGMAME_PRIZE_LIST@CRainbowRaceMng@@V?$allocator@UMINIGMAME_PRIZE_LIST@CRainbowRaceMng@@@std@@@std@@QAE?AViterator@12@XZ
_TEXT	SEGMENT PARA USE32 PUBLIC 'CODE'
_TEXT	ENDS
;	COMDAT ?size@?$vector@UMINIGMAME_PRIZE_LIST@CRainbowRaceMng@@V?$allocator@UMINIGMAME_PRIZE_LIST@CRainbowRaceMng@@@std@@@std@@QBEIXZ
_TEXT	SEGMENT PARA USE32 PUBLIC 'CODE'
_TEXT	ENDS
;	COMDAT ?insert@?$vector@UMINIGMAME_PRIZE_LIST@CRainbowRaceMng@@V?$allocator@UMINIGMAME_PRIZE_LIST@CRainbowRaceMng@@@std@@@std@@QAE?AViterator@12@V312@ABUMINIGMAME_PRIZE_LIST@CRainbowRaceMng@@@Z
_TEXT	SEGMENT PARA USE32 PUBLIC 'CODE'
_TEXT	ENDS
;	COMDAT ?_Ufill@?$vector@UMINIGMAME_PRIZE_LIST@CRainbowRaceMng@@V?$allocator@UMINIGMAME_PRIZE_LIST@CRainbowRaceMng@@@std@@@std@@IAEPAUMINIGMAME_PRIZE_LIST@CRainbowRaceMng@@PAU34@IABU34@@Z
_TEXT	SEGMENT PARA USE32 PUBLIC 'CODE'
_TEXT	ENDS
;	COMDAT ?begin@?$vector@PAVCMiniGameBase@@V?$allocator@PAVCMiniGameBase@@@std@@@std@@QAE?AViterator@12@XZ
_TEXT	SEGMENT PARA USE32 PUBLIC 'CODE'
_TEXT	ENDS
;	COMDAT ?begin@?$vector@UGuildHouse_Furniture_Info@CGuildHouseBase@@V?$allocator@UGuildHouse_Furniture_Info@CGuildHouseBase@@@std@@@std@@QAE?AViterator@12@XZ
_TEXT	SEGMENT PARA USE32 PUBLIC 'CODE'
_TEXT	ENDS
;	COMDAT ?_Isnil@?$_Tree@V?$_Tmap_traits@KPAVCGuildHouseBase@@U?$less@K@std@@V?$allocator@U?$pair@$$CBKPAVCGuildHouseBase@@@std@@@3@$0A@@std@@@std@@KAAADPAU_Node@?$_Tree_nod@V?$_Tmap_traits@KPAVCGuildHouseBase@@U?$less@K@std@@V?$allocator@U?$pair@$$CBKPAVCGuildHouseBase@@@std@@@3@$0A@@std@@@2@@Z
_TEXT	SEGMENT PARA USE32 PUBLIC 'CODE'
_TEXT	ENDS
;	COMDAT ?_Key@?$_Tree@V?$_Tmap_traits@KPAVCGuildHouseBase@@U?$less@K@std@@V?$allocator@U?$pair@$$CBKPAVCGuildHouseBase@@@std@@@3@$0A@@std@@@std@@KAABKPAU_Node@?$_Tree_nod@V?$_Tmap_traits@KPAVCGuildHouseBase@@U?$less@K@std@@V?$allocator@U?$pair@$$CBKPAVCGuildHouseBase@@@std@@@3@$0A@@std@@@2@@Z
_TEXT	SEGMENT PARA USE32 PUBLIC 'CODE'
_TEXT	ENDS
;	COMDAT ?_Left@?$_Tree@V?$_Tmap_traits@KPAVCGuildHouseBase@@U?$less@K@std@@V?$allocator@U?$pair@$$CBKPAVCGuildHouseBase@@@std@@@3@$0A@@std@@@std@@KAAAPAU_Node@?$_Tree_nod@V?$_Tmap_traits@KPAVCGuildHouseBase@@U?$less@K@std@@V?$allocator@U?$pair@$$CBKPAVCGuildHouseBase@@@std@@@3@$0A@@std@@@2@PAU342@@Z
_TEXT	SEGMENT PARA USE32 PUBLIC 'CODE'
_TEXT	ENDS
;	COMDAT ?_Right@?$_Tree@V?$_Tmap_traits@KPAVCGuildHouseBase@@U?$less@K@std@@V?$allocator@U?$pair@$$CBKPAVCGuildHouseBase@@@std@@@3@$0A@@std@@@std@@KAAAPAU_Node@?$_Tree_nod@V?$_Tmap_traits@KPAVCGuildHouseBase@@U?$less@K@std@@V?$allocator@U?$pair@$$CBKPAVCGuildHouseBase@@@std@@@3@$0A@@std@@@2@PAU342@@Z
_TEXT	SEGMENT PARA USE32 PUBLIC 'CODE'
_TEXT	ENDS
;	COMDAT ?begin@?$_Tree@V?$_Tmap_traits@KPAVCGuildHouseBase@@U?$less@K@std@@V?$allocator@U?$pair@$$CBKPAVCGuildHouseBase@@@std@@@3@$0A@@std@@@std@@QAE?AViterator@12@XZ
_TEXT	SEGMENT PARA USE32 PUBLIC 'CODE'
_TEXT	ENDS
;	COMDAT ?size@?$_Tree@V?$_Tmap_traits@KPAVCGuildHouseBase@@U?$less@K@std@@V?$allocator@U?$pair@$$CBKPAVCGuildHouseBase@@@std@@@3@$0A@@std@@@std@@QBEIXZ
_TEXT	SEGMENT PARA USE32 PUBLIC 'CODE'
_TEXT	ENDS
;	COMDAT ?_Insert@?$_Tree@V?$_Tmap_traits@KPAVCGuildHouseBase@@U?$less@K@std@@V?$allocator@U?$pair@$$CBKPAVCGuildHouseBase@@@std@@@3@$0A@@std@@@std@@IAE?AViterator@12@_NPAU_Node@?$_Tree_nod@V?$_Tmap_traits@KPAVCGuildHouseBase@@U?$less@K@std@@V?$allocator@U?$pair@$$CBKPAVCGuildHouseBase@@@std@@@3@$0A@@std@@@2@ABU?$pair@$$CBKPAVCGuildHouseBase@@@2@@Z
_TEXT	SEGMENT PARA USE32 PUBLIC 'CODE'
_TEXT	ENDS
;	COMDAT ?_Root@?$_Tree@V?$_Tmap_traits@KPAVCGuildHouseBase@@U?$less@K@std@@V?$allocator@U?$pair@$$CBKPAVCGuildHouseBase@@@std@@@3@$0A@@std@@@std@@IAEAAPAU_Node@?$_Tree_nod@V?$_Tmap_traits@KPAVCGuildHouseBase@@U?$less@K@std@@V?$allocator@U?$pair@$$CBKPAVCGuildHouseBase@@@std@@@3@$0A@@std@@@2@XZ
_TEXT	SEGMENT PARA USE32 PUBLIC 'CODE'
_TEXT	ENDS
;	COMDAT ?_Kfn@?$_Tmap_traits@KPAVCGuildHouseBase@@U?$less@K@std@@V?$allocator@U?$pair@$$CBKPAVCGuildHouseBase@@@std@@@3@$0A@@std@@SAABKABU?$pair@$$CBKPAVCGuildHouseBase@@@2@@Z
_TEXT	SEGMENT PARA USE32 PUBLIC 'CODE'
_TEXT	ENDS
;	COMDAT ??0?$pair@Viterator@?$_Tree@V?$_Tmap_traits@KPAVCGuildHouseBase@@U?$less@K@std@@V?$allocator@U?$pair@$$CBKPAVCGuildHouseBase@@@std@@@3@$0A@@std@@@std@@_N@std@@QAE@ABViterator@?$_Tree@V?$_Tmap_traits@KPAVCGuildHouseBase@@U?$less@K@std@@V?$allocator@U?$pair@$$CBKPAVCGuildHouseBase@@@std@@@3@$0A@@std@@@1@AB_N@Z
_TEXT	SEGMENT PARA USE32 PUBLIC 'CODE'
_TEXT	ENDS
;	COMDAT ??0iterator@?$_Tree@V?$_Tmap_traits@KPAVCGuildHouseBase@@U?$less@K@std@@V?$allocator@U?$pair@$$CBKPAVCGuildHouseBase@@@std@@@3@$0A@@std@@@std@@QAE@PAU_Node@?$_Tree_nod@V?$_Tmap_traits@KPAVCGuildHouseBase@@U?$less@K@std@@V?$allocator@U?$pair@$$CBKPAVCGuildHouseBase@@@std@@@3@$0A@@std@@@2@@Z
_TEXT	SEGMENT PARA USE32 PUBLIC 'CODE'
_TEXT	ENDS
;	COMDAT ??Fiterator@?$_Tree@V?$_Tmap_traits@KPAVCGuildHouseBase@@U?$less@K@std@@V?$allocator@U?$pair@$$CBKPAVCGuildHouseBase@@@std@@@3@$0A@@std@@@std@@QAEAAV012@XZ
_TEXT	SEGMENT PARA USE32 PUBLIC 'CODE'
_TEXT	ENDS
;	COMDAT ??8const_iterator@?$_Tree@V?$_Tmap_traits@KPAVCGuildHouseBase@@U?$less@K@std@@V?$allocator@U?$pair@$$CBKPAVCGuildHouseBase@@@std@@@3@$0A@@std@@@std@@QBE_NABV012@@Z
_TEXT	SEGMENT PARA USE32 PUBLIC 'CODE'
_TEXT	ENDS
;	COMDAT ?_Mynode@const_iterator@?$_Tree@V?$_Tmap_traits@KPAVCGuildHouseBase@@U?$less@K@std@@V?$allocator@U?$pair@$$CBKPAVCGuildHouseBase@@@std@@@3@$0A@@std@@@std@@QBEPAU_Node@?$_Tree_nod@V?$_Tmap_traits@KPAVCGuildHouseBase@@U?$less@K@std@@V?$allocator@U?$pair@$$CBKPAVCGuildHouseBase@@@std@@@3@$0A@@std@@@3@XZ
_TEXT	SEGMENT PARA USE32 PUBLIC 'CODE'
_TEXT	ENDS
;	COMDAT ?size@?$_Tree@V?$_Tmap_traits@KPAVCCampus@@U?$less@K@std@@V?$allocator@U?$pair@$$CBKPAVCCampus@@@std@@@3@$0A@@std@@@std@@QBEIXZ
_TEXT	SEGMENT PARA USE32 PUBLIC 'CODE'
_TEXT	ENDS
;	COMDAT ?erase@?$_Tree@V?$_Tmap_traits@KKU?$less@K@std@@V?$allocator@U?$pair@$$CBKK@std@@@2@$0A@@std@@@std@@QAE?AViterator@12@V312@0@Z
_TEXT	SEGMENT PARA USE32 PUBLIC 'CODE'
_TEXT	ENDS
;	COMDAT ?equal_range@?$_Tree@V?$_Tmap_traits@KKU?$less@K@std@@V?$allocator@U?$pair@$$CBKK@std@@@2@$0A@@std@@@std@@QAE?AU?$pair@Viterator@?$_Tree@V?$_Tmap_traits@KKU?$less@K@std@@V?$allocator@U?$pair@$$CBKK@std@@@2@$0A@@std@@@std@@V123@@2@ABK@Z
_TEXT	SEGMENT PARA USE32 PUBLIC 'CODE'
_TEXT	ENDS
;	COMDAT ?_Key@?$_Tree@V?$_Tmap_traits@KPAVCClientSock@@U?$less@K@std@@V?$allocator@U?$pair@$$CBKPAVCClientSock@@@std@@@3@$0A@@std@@@std@@KAABKPAU_Node@?$_Tree_nod@V?$_Tmap_traits@KPAVCClientSock@@U?$less@K@std@@V?$allocator@U?$pair@$$CBKPAVCClientSock@@@std@@@3@$0A@@std@@@2@@Z
_TEXT	SEGMENT PARA USE32 PUBLIC 'CODE'
_TEXT	ENDS
;	COMDAT ??0?$_Tree@V?$_Tmap_traits@KPAVCClientSock@@U?$less@K@std@@V?$allocator@U?$pair@$$CBKPAVCClientSock@@@std@@@3@$0A@@std@@@std@@QAE@ABU?$less@K@1@ABV?$allocator@U?$pair@$$CBKPAVCClientSock@@@std@@@1@@Z
_TEXT	SEGMENT PARA USE32 PUBLIC 'CODE'
_TEXT	ENDS
;	COMDAT ?lower_bound@?$_Tree@V?$_Tmap_traits@KPAVCClientSock@@U?$less@K@std@@V?$allocator@U?$pair@$$CBKPAVCClientSock@@@std@@@3@$0A@@std@@@std@@QAE?AViterator@12@ABK@Z
_TEXT	SEGMENT PARA USE32 PUBLIC 'CODE'
_TEXT	ENDS
;	COMDAT ?_Tidy@?$_Tree@V?$_Tmap_traits@KPAVCClientSock@@U?$less@K@std@@V?$allocator@U?$pair@$$CBKPAVCClientSock@@@std@@@3@$0A@@std@@@std@@IAEXXZ
_TEXT	SEGMENT PARA USE32 PUBLIC 'CODE'
_TEXT	ENDS
;	COMDAT ??0?$allocator@U?$pair@$$CBKPAVCClientSock@@@std@@@std@@QAE@XZ
_TEXT	SEGMENT PARA USE32 PUBLIC 'CODE'
_TEXT	ENDS
;	COMDAT ??0iterator@?$_Tree@V?$_Tmap_traits@KPAVCClientSock@@U?$less@K@std@@V?$allocator@U?$pair@$$CBKPAVCClientSock@@@std@@@3@$0A@@std@@@std@@QAE@PAU_Node@?$_Tree_nod@V?$_Tmap_traits@KPAVCClientSock@@U?$less@K@std@@V?$allocator@U?$pair@$$CBKPAVCClientSock@@@std@@@3@$0A@@std@@@2@@Z
_TEXT	SEGMENT PARA USE32 PUBLIC 'CODE'
_TEXT	ENDS
;	COMDAT ??Diterator@?$_Tree@V?$_Tmap_traits@KPAVCClientSock@@U?$less@K@std@@V?$allocator@U?$pair@$$CBKPAVCClientSock@@@std@@@3@$0A@@std@@@std@@QBEAAU?$pair@$$CBKPAVCClientSock@@@2@XZ
_TEXT	SEGMENT PARA USE32 PUBLIC 'CODE'
_TEXT	ENDS
;	COMDAT ??8const_iterator@?$_Tree@V?$_Tmap_traits@KPAVCClientSock@@U?$less@K@std@@V?$allocator@U?$pair@$$CBKPAVCClientSock@@@std@@@3@$0A@@std@@@std@@QBE_NABV012@@Z
_TEXT	SEGMENT PARA USE32 PUBLIC 'CODE'
_TEXT	ENDS
;	COMDAT ?_Mynode@const_iterator@?$_Tree@V?$_Tmap_traits@KPAVCClientSock@@U?$less@K@std@@V?$allocator@U?$pair@$$CBKPAVCClientSock@@@std@@@3@$0A@@std@@@std@@QBEPAU_Node@?$_Tree_nod@V?$_Tmap_traits@KPAVCClientSock@@U?$less@K@std@@V?$allocator@U?$pair@$$CBKPAVCClientSock@@@std@@@3@$0A@@std@@@3@XZ
_TEXT	SEGMENT PARA USE32 PUBLIC 'CODE'
_TEXT	ENDS
;	COMDAT ?_Key@?$_Tree@V?$_Tmap_traits@KPAVCClientSockE@@U?$less@K@std@@V?$allocator@U?$pair@$$CBKPAVCClientSockE@@@std@@@3@$0A@@std@@@std@@KAABKPAU_Node@?$_Tree_nod@V?$_Tmap_traits@KPAVCClientSockE@@U?$less@K@std@@V?$allocator@U?$pair@$$CBKPAVCClientSockE@@@std@@@3@$0A@@std@@@2@@Z
_TEXT	SEGMENT PARA USE32 PUBLIC 'CODE'
_TEXT	ENDS
;	COMDAT ??0?$_Tree@V?$_Tmap_traits@KPAVCClientSockE@@U?$less@K@std@@V?$allocator@U?$pair@$$CBKPAVCClientSockE@@@std@@@3@$0A@@std@@@std@@QAE@ABU?$less@K@1@ABV?$allocator@U?$pair@$$CBKPAVCClientSockE@@@std@@@1@@Z
_TEXT	SEGMENT PARA USE32 PUBLIC 'CODE'
_TEXT	ENDS
;	COMDAT ?lower_bound@?$_Tree@V?$_Tmap_traits@KPAVCClientSockE@@U?$less@K@std@@V?$allocator@U?$pair@$$CBKPAVCClientSockE@@@std@@@3@$0A@@std@@@std@@QAE?AViterator@12@ABK@Z
_TEXT	SEGMENT PARA USE32 PUBLIC 'CODE'
_TEXT	ENDS
;	COMDAT ?_Tidy@?$_Tree@V?$_Tmap_traits@KPAVCClientSockE@@U?$less@K@std@@V?$allocator@U?$pair@$$CBKPAVCClientSockE@@@std@@@3@$0A@@std@@@std@@IAEXXZ
_TEXT	SEGMENT PARA USE32 PUBLIC 'CODE'
_TEXT	ENDS
;	COMDAT ??0?$allocator@U?$pair@$$CBKPAVCClientSockE@@@std@@@std@@QAE@XZ
_TEXT	SEGMENT PARA USE32 PUBLIC 'CODE'
_TEXT	ENDS
;	COMDAT ??0iterator@?$_Tree@V?$_Tmap_traits@KPAVCClientSockE@@U?$less@K@std@@V?$allocator@U?$pair@$$CBKPAVCClientSockE@@@std@@@3@$0A@@std@@@std@@QAE@PAU_Node@?$_Tree_nod@V?$_Tmap_traits@KPAVCClientSockE@@U?$less@K@std@@V?$allocator@U?$pair@$$CBKPAVCClientSockE@@@std@@@3@$0A@@std@@@2@@Z
_TEXT	SEGMENT PARA USE32 PUBLIC 'CODE'
_TEXT	ENDS
;	COMDAT ??Diterator@?$_Tree@V?$_Tmap_traits@KPAVCClientSockE@@U?$less@K@std@@V?$allocator@U?$pair@$$CBKPAVCClientSockE@@@std@@@3@$0A@@std@@@std@@QBEAAU?$pair@$$CBKPAVCClientSockE@@@2@XZ
_TEXT	SEGMENT PARA USE32 PUBLIC 'CODE'
_TEXT	ENDS
;	COMDAT ??8const_iterator@?$_Tree@V?$_Tmap_traits@KPAVCClientSockE@@U?$less@K@std@@V?$allocator@U?$pair@$$CBKPAVCClientSockE@@@std@@@3@$0A@@std@@@std@@QBE_NABV012@@Z
_TEXT	SEGMENT PARA USE32 PUBLIC 'CODE'
_TEXT	ENDS
;	COMDAT ?_Mynode@const_iterator@?$_Tree@V?$_Tmap_traits@KPAVCClientSockE@@U?$less@K@std@@V?$allocator@U?$pair@$$CBKPAVCClientSockE@@@std@@@3@$0A@@std@@@std@@QBEPAU_Node@?$_Tree_nod@V?$_Tmap_traits@KPAVCClientSockE@@U?$less@K@std@@V?$allocator@U?$pair@$$CBKPAVCClientSockE@@@std@@@3@$0A@@std@@@3@XZ
_TEXT	SEGMENT PARA USE32 PUBLIC 'CODE'
_TEXT	ENDS
;	COMDAT ?_Key@?$_Tree@V?$_Tmap_traits@KP8CDPCoreClient@@AEXAAVCAr@@KKK@ZU?$less@K@std@@V?$allocator@U?$pair@$$CBKP8CDPCoreClient@@AEXAAVCAr@@KKK@Z@std@@@4@$0A@@std@@@std@@KAABKPAU_Node@?$_Tree_nod@V?$_Tmap_traits@KP8CDPCoreClient@@AEXAAVCAr@@KKK@ZU?$less@K@std@@V?$allocator@U?$pair@$$CBKP8CDPCoreClient@@AEXAAVCAr@@KKK@Z@std@@@4@$0A@@std@@@2@@Z
_TEXT	SEGMENT PARA USE32 PUBLIC 'CODE'
_TEXT	ENDS
;	COMDAT ?lower_bound@?$_Tree@V?$_Tmap_traits@KP8CDPCoreClient@@AEXAAVCAr@@KKK@ZU?$less@K@std@@V?$allocator@U?$pair@$$CBKP8CDPCoreClient@@AEXAAVCAr@@KKK@Z@std@@@4@$0A@@std@@@std@@QAE?AViterator@12@ABK@Z
_TEXT	SEGMENT PARA USE32 PUBLIC 'CODE'
_TEXT	ENDS
;	COMDAT ??0iterator@?$_Tree@V?$_Tmap_traits@KP8CDPCoreClient@@AEXAAVCAr@@KKK@ZU?$less@K@std@@V?$allocator@U?$pair@$$CBKP8CDPCoreClient@@AEXAAVCAr@@KKK@Z@std@@@4@$0A@@std@@@std@@QAE@PAU_Node@?$_Tree_nod@V?$_Tmap_traits@KP8CDPCoreClient@@AEXAAVCAr@@KKK@ZU?$less@K@std@@V?$allocator@U?$pair@$$CBKP8CDPCoreClient@@AEXAAVCAr@@KKK@Z@std@@@4@$0A@@std@@@2@@Z
_TEXT	SEGMENT PARA USE32 PUBLIC 'CODE'
_TEXT	ENDS
;	COMDAT ??Diterator@?$_Tree@V?$_Tmap_traits@KP8CDPCoreClient@@AEXAAVCAr@@KKK@ZU?$less@K@std@@V?$allocator@U?$pair@$$CBKP8CDPCoreClient@@AEXAAVCAr@@KKK@Z@std@@@4@$0A@@std@@@std@@QBEAAU?$pair@$$CBKP8CDPCoreClient@@AEXAAVCAr@@KKK@Z@2@XZ
_TEXT	SEGMENT PARA USE32 PUBLIC 'CODE'
_TEXT	ENDS
;	COMDAT ??8const_iterator@?$_Tree@V?$_Tmap_traits@KP8CDPCoreClient@@AEXAAVCAr@@KKK@ZU?$less@K@std@@V?$allocator@U?$pair@$$CBKP8CDPCoreClient@@AEXAAVCAr@@KKK@Z@std@@@4@$0A@@std@@@std@@QBE_NABV012@@Z
_TEXT	SEGMENT PARA USE32 PUBLIC 'CODE'
_TEXT	ENDS
;	COMDAT ?_Mynode@const_iterator@?$_Tree@V?$_Tmap_traits@KP8CDPCoreClient@@AEXAAVCAr@@KKK@ZU?$less@K@std@@V?$allocator@U?$pair@$$CBKP8CDPCoreClient@@AEXAAVCAr@@KKK@Z@std@@@4@$0A@@std@@@std@@QBEPAU_Node@?$_Tree_nod@V?$_Tmap_traits@KP8CDPCoreClient@@AEXAAVCAr@@KKK@ZU?$less@K@std@@V?$allocator@U?$pair@$$CBKP8CDPCoreClient@@AEXAAVCAr@@KKK@Z@std@@@4@$0A@@std@@@3@XZ
_TEXT	SEGMENT PARA USE32 PUBLIC 'CODE'
_TEXT	ENDS
;	COMDAT ?_Key@?$_Tree@V?$_Tmap_traits@KP8CDPDatabaseClient@@AEXAAVCAr@@KK@ZU?$less@K@std@@V?$allocator@U?$pair@$$CBKP8CDPDatabaseClient@@AEXAAVCAr@@KK@Z@std@@@4@$0A@@std@@@std@@KAABKPAU_Node@?$_Tree_nod@V?$_Tmap_traits@KP8CDPDatabaseClient@@AEXAAVCAr@@KK@ZU?$less@K@std@@V?$allocator@U?$pair@$$CBKP8CDPDatabaseClient@@AEXAAVCAr@@KK@Z@std@@@4@$0A@@std@@@2@@Z
_TEXT	SEGMENT PARA USE32 PUBLIC 'CODE'
_TEXT	ENDS
;	COMDAT ?lower_bound@?$_Tree@V?$_Tmap_traits@KP8CDPDatabaseClient@@AEXAAVCAr@@KK@ZU?$less@K@std@@V?$allocator@U?$pair@$$CBKP8CDPDatabaseClient@@AEXAAVCAr@@KK@Z@std@@@4@$0A@@std@@@std@@QAE?AViterator@12@ABK@Z
_TEXT	SEGMENT PARA USE32 PUBLIC 'CODE'
_TEXT	ENDS
;	COMDAT ??0iterator@?$_Tree@V?$_Tmap_traits@KP8CDPDatabaseClient@@AEXAAVCAr@@KK@ZU?$less@K@std@@V?$allocator@U?$pair@$$CBKP8CDPDatabaseClient@@AEXAAVCAr@@KK@Z@std@@@4@$0A@@std@@@std@@QAE@PAU_Node@?$_Tree_nod@V?$_Tmap_traits@KP8CDPDatabaseClient@@AEXAAVCAr@@KK@ZU?$less@K@std@@V?$allocator@U?$pair@$$CBKP8CDPDatabaseClient@@AEXAAVCAr@@KK@Z@std@@@4@$0A@@std@@@2@@Z
_TEXT	SEGMENT PARA USE32 PUBLIC 'CODE'
_TEXT	ENDS
;	COMDAT ??Diterator@?$_Tree@V?$_Tmap_traits@KP8CDPDatabaseClient@@AEXAAVCAr@@KK@ZU?$less@K@std@@V?$allocator@U?$pair@$$CBKP8CDPDatabaseClient@@AEXAAVCAr@@KK@Z@std@@@4@$0A@@std@@@std@@QBEAAU?$pair@$$CBKP8CDPDatabaseClient@@AEXAAVCAr@@KK@Z@2@XZ
_TEXT	SEGMENT PARA USE32 PUBLIC 'CODE'
_TEXT	ENDS
;	COMDAT ??8const_iterator@?$_Tree@V?$_Tmap_traits@KP8CDPDatabaseClient@@AEXAAVCAr@@KK@ZU?$less@K@std@@V?$allocator@U?$pair@$$CBKP8CDPDatabaseClient@@AEXAAVCAr@@KK@Z@std@@@4@$0A@@std@@@std@@QBE_NABV012@@Z
_TEXT	SEGMENT PARA USE32 PUBLIC 'CODE'
_TEXT	ENDS
;	COMDAT ?_Mynode@const_iterator@?$_Tree@V?$_Tmap_traits@KP8CDPDatabaseClient@@AEXAAVCAr@@KK@ZU?$less@K@std@@V?$allocator@U?$pair@$$CBKP8CDPDatabaseClient@@AEXAAVCAr@@KK@Z@std@@@4@$0A@@std@@@std@@QBEPAU_Node@?$_Tree_nod@V?$_Tmap_traits@KP8CDPDatabaseClient@@AEXAAVCAr@@KK@ZU?$less@K@std@@V?$allocator@U?$pair@$$CBKP8CDPDatabaseClient@@AEXAAVCAr@@KK@Z@std@@@4@$0A@@std@@@3@XZ
_TEXT	SEGMENT PARA USE32 PUBLIC 'CODE'
_TEXT	ENDS
;	COMDAT ??Diterator@?$vector@PAU__JOINPLAYER@CGuildCombat@@V?$allocator@PAU__JOINPLAYER@CGuildCombat@@@std@@@std@@QBEAAPAU__JOINPLAYER@CGuildCombat@@XZ
_TEXT	SEGMENT PARA USE32 PUBLIC 'CODE'
_TEXT	ENDS
;	COMDAT ??Hiterator@?$vector@PAU__JOINPLAYER@CGuildCombat@@V?$allocator@PAU__JOINPLAYER@CGuildCombat@@@std@@@std@@QBE?AV012@H@Z
_TEXT	SEGMENT PARA USE32 PUBLIC 'CODE'
_TEXT	ENDS
;	COMDAT ??Diterator@?$vector@V?$basic_string@DU?$char_traits@D@std@@V?$allocator@D@2@@std@@V?$allocator@V?$basic_string@DU?$char_traits@D@std@@V?$allocator@D@2@@std@@@2@@std@@QBEAAV?$basic_string@DU?$char_traits@D@std@@V?$allocator@D@2@@2@XZ
_TEXT	SEGMENT PARA USE32 PUBLIC 'CODE'
_TEXT	ENDS
;	COMDAT ??Hiterator@?$vector@V?$basic_string@DU?$char_traits@D@std@@V?$allocator@D@2@@std@@V?$allocator@V?$basic_string@DU?$char_traits@D@std@@V?$allocator@D@2@@std@@@2@@std@@QBE?AV012@H@Z
_TEXT	SEGMENT PARA USE32 PUBLIC 'CODE'
_TEXT	ENDS
;	COMDAT ??Diterator@?$vector@PAVCMiniGameBase@@V?$allocator@PAVCMiniGameBase@@@std@@@std@@QBEAAPAVCMiniGameBase@@XZ
_TEXT	SEGMENT PARA USE32 PUBLIC 'CODE'
_TEXT	ENDS
;	COMDAT ??Hiterator@?$vector@PAVCMiniGameBase@@V?$allocator@PAVCMiniGameBase@@@std@@@std@@QBE?AV012@H@Z
_TEXT	SEGMENT PARA USE32 PUBLIC 'CODE'
_TEXT	ENDS
;	COMDAT ??Diterator@?$vector@UGuildHouse_Furniture_Info@CGuildHouseBase@@V?$allocator@UGuildHouse_Furniture_Info@CGuildHouseBase@@@std@@@std@@QBEAAUGuildHouse_Furniture_Info@CGuildHouseBase@@XZ
_TEXT	SEGMENT PARA USE32 PUBLIC 'CODE'
_TEXT	ENDS
;	COMDAT ??Hiterator@?$vector@UGuildHouse_Furniture_Info@CGuildHouseBase@@V?$allocator@UGuildHouse_Furniture_Info@CGuildHouseBase@@@std@@@std@@QBE?AV012@H@Z
_TEXT	SEGMENT PARA USE32 PUBLIC 'CODE'
_TEXT	ENDS
;	COMDAT ??0?$allocator@V?$basic_string@DU?$char_traits@D@std@@V?$allocator@D@2@@std@@@std@@QAE@ABV01@@Z
_TEXT	SEGMENT PARA USE32 PUBLIC 'CODE'
_TEXT	ENDS
;	COMDAT ?deallocate@?$allocator@V?$basic_string@DU?$char_traits@D@std@@V?$allocator@D@2@@std@@@std@@QAEXPAV?$basic_string@DU?$char_traits@D@std@@V?$allocator@D@2@@2@I@Z
_TEXT	SEGMENT PARA USE32 PUBLIC 'CODE'
_TEXT	ENDS
;	COMDAT ?allocate@?$allocator@V?$basic_string@DU?$char_traits@D@std@@V?$allocator@D@2@@std@@@std@@QAEPAV?$basic_string@DU?$char_traits@D@std@@V?$allocator@D@2@@2@I@Z
_TEXT	SEGMENT PARA USE32 PUBLIC 'CODE'
_TEXT	ENDS
;	COMDAT ?size@?$_Tree@V?$_Tmap_traits@KPAVCCtrl@@U?$less@K@std@@V?$allocator@U?$pair@$$CBKPAVCCtrl@@@std@@@3@$0A@@std@@@std@@QBEIXZ
_TEXT	SEGMENT PARA USE32 PUBLIC 'CODE'
_TEXT	ENDS
;	COMDAT ??0iterator@?$_Tree@V?$_Tmap_traits@KPAVCCtrl@@U?$less@K@std@@V?$allocator@U?$pair@$$CBKPAVCCtrl@@@std@@@3@$0A@@std@@@std@@QAE@XZ
_TEXT	SEGMENT PARA USE32 PUBLIC 'CODE'
_TEXT	ENDS
;	COMDAT ?_Init@?$_Tree@V?$_Tmap_traits@KHU?$less@K@std@@V?$allocator@U?$pair@$$CBKH@std@@@2@$0A@@std@@@std@@IAEXXZ
_TEXT	SEGMENT PARA USE32 PUBLIC 'CODE'
_TEXT	ENDS
;	COMDAT ??0?$_Tree_val@V?$_Tmap_traits@KHU?$less@K@std@@V?$allocator@U?$pair@$$CBKH@std@@@2@$0A@@std@@@std@@IAE@ABU?$less@K@1@V?$allocator@U?$pair@$$CBKH@std@@@1@@Z
_TEXT	SEGMENT PARA USE32 PUBLIC 'CODE'
_TEXT	ENDS
;	COMDAT ??0?$allocator@U?$pair@$$CBKH@std@@@std@@QAE@ABV01@@Z
_TEXT	SEGMENT PARA USE32 PUBLIC 'CODE'
_TEXT	ENDS
;	COMDAT ?pop_back@?$deque@PAUtagACTMSG@@V?$allocator@PAUtagACTMSG@@@std@@@std@@QAEXXZ
_TEXT	SEGMENT PARA USE32 PUBLIC 'CODE'
_TEXT	ENDS
;	COMDAT ??0?$_Deque_map@PAUtagACTMSG@@V?$allocator@PAUtagACTMSG@@@std@@@std@@IAE@V?$allocator@PAUtagACTMSG@@@1@@Z
_TEXT	SEGMENT PARA USE32 PUBLIC 'CODE'
_TEXT	ENDS
;	COMDAT ??0?$allocator@PAUtagACTMSG@@@std@@QAE@ABV01@@Z
_TEXT	SEGMENT PARA USE32 PUBLIC 'CODE'
_TEXT	ENDS
;	COMDAT ?deallocate@?$allocator@PAUtagACTMSG@@@std@@QAEXPAPAUtagACTMSG@@I@Z
_TEXT	SEGMENT PARA USE32 PUBLIC 'CODE'
_TEXT	ENDS
;	COMDAT ?deallocate@?$allocator@PAPAUtagACTMSG@@@std@@QAEXPAPAPAUtagACTMSG@@I@Z
_TEXT	SEGMENT PARA USE32 PUBLIC 'CODE'
_TEXT	ENDS
;	COMDAT ?destroy@?$allocator@PAPAUtagACTMSG@@@std@@QAEXPAPAPAUtagACTMSG@@@Z
_TEXT	SEGMENT PARA USE32 PUBLIC 'CODE'
_TEXT	ENDS
;	COMDAT ?pop_back@?$deque@PAUtagMAGICATKMSG@@V?$allocator@PAUtagMAGICATKMSG@@@std@@@std@@QAEXXZ
_TEXT	SEGMENT PARA USE32 PUBLIC 'CODE'
_TEXT	ENDS
;	COMDAT ??0?$_Deque_map@PAUtagMAGICATKMSG@@V?$allocator@PAUtagMAGICATKMSG@@@std@@@std@@IAE@V?$allocator@PAUtagMAGICATKMSG@@@1@@Z
_TEXT	SEGMENT PARA USE32 PUBLIC 'CODE'
_TEXT	ENDS
;	COMDAT ??0?$allocator@PAUtagMAGICATKMSG@@@std@@QAE@ABV01@@Z
_TEXT	SEGMENT PARA USE32 PUBLIC 'CODE'
_TEXT	ENDS
;	COMDAT ?deallocate@?$allocator@PAUtagMAGICATKMSG@@@std@@QAEXPAPAUtagMAGICATKMSG@@I@Z
_TEXT	SEGMENT PARA USE32 PUBLIC 'CODE'
_TEXT	ENDS
;	COMDAT ?deallocate@?$allocator@PAPAUtagMAGICATKMSG@@@std@@QAEXPAPAPAUtagMAGICATKMSG@@I@Z
_TEXT	SEGMENT PARA USE32 PUBLIC 'CODE'
_TEXT	ENDS
;	COMDAT ?destroy@?$allocator@PAPAUtagMAGICATKMSG@@@std@@QAEXPAPAPAUtagMAGICATKMSG@@@Z
_TEXT	SEGMENT PARA USE32 PUBLIC 'CODE'
_TEXT	ENDS
;	COMDAT ??Dconst_iterator@?$_Tree@V?$_Tmap_traits@KHU?$less@K@std@@V?$allocator@U?$pair@$$CBKH@std@@@2@$0A@@std@@@std@@QBEABU?$pair@$$CBKH@2@XZ
_TEXT	SEGMENT PARA USE32 PUBLIC 'CODE'
_TEXT	ENDS
;	COMDAT ??0const_iterator@?$deque@PAUtagACTMSG@@V?$allocator@PAUtagACTMSG@@@std@@@std@@QAE@IPBV12@@Z
_TEXT	SEGMENT PARA USE32 PUBLIC 'CODE'
_TEXT	ENDS
;	COMDAT ??0const_iterator@?$deque@PAUtagMAGICATKMSG@@V?$allocator@PAUtagMAGICATKMSG@@@std@@@std@@QAE@IPBV12@@Z
_TEXT	SEGMENT PARA USE32 PUBLIC 'CODE'
_TEXT	ENDS
;	COMDAT ?begin@?$_Tree@V?$_Tmap_traits@KU_Friend@@U?$less@K@std@@V?$allocator@U?$pair@$$CBKU_Friend@@@std@@@3@$0A@@std@@@std@@QAE?AViterator@12@XZ
_TEXT	SEGMENT PARA USE32 PUBLIC 'CODE'
_TEXT	ENDS
;	COMDAT ?end@?$_Tree@V?$_Tmap_traits@KU_Friend@@U?$less@K@std@@V?$allocator@U?$pair@$$CBKU_Friend@@@std@@@3@$0A@@std@@@std@@QAE?AViterator@12@XZ
_TEXT	SEGMENT PARA USE32 PUBLIC 'CODE'
_TEXT	ENDS
;	COMDAT ?erase@?$_Tree@V?$_Tmap_traits@KU_Friend@@U?$less@K@std@@V?$allocator@U?$pair@$$CBKU_Friend@@@std@@@3@$0A@@std@@@std@@QAE?AViterator@12@V312@@Z
_TEXT	SEGMENT PARA USE32 PUBLIC 'CODE'
_TEXT	ENDS
;	COMDAT ?clear@?$_Tree@V?$_Tmap_traits@KU_Friend@@U?$less@K@std@@V?$allocator@U?$pair@$$CBKU_Friend@@@std@@@3@$0A@@std@@@std@@QAEXXZ
_TEXT	SEGMENT PARA USE32 PUBLIC 'CODE'
_TEXT	ENDS
;	COMDAT ?lower_bound@?$_Tree@V?$_Tmap_traits@KU_Friend@@U?$less@K@std@@V?$allocator@U?$pair@$$CBKU_Friend@@@std@@@3@$0A@@std@@@std@@QAE?AViterator@12@ABK@Z
_TEXT	SEGMENT PARA USE32 PUBLIC 'CODE'
_TEXT	ENDS
;	COMDAT ?upper_bound@?$_Tree@V?$_Tmap_traits@KU_Friend@@U?$less@K@std@@V?$allocator@U?$pair@$$CBKU_Friend@@@std@@@3@$0A@@std@@@std@@QAE?AViterator@12@ABK@Z
_TEXT	SEGMENT PARA USE32 PUBLIC 'CODE'
_TEXT	ENDS
;	COMDAT ??Eiterator@?$_Tree@V?$_Tmap_traits@KU_Friend@@U?$less@K@std@@V?$allocator@U?$pair@$$CBKU_Friend@@@std@@@3@$0A@@std@@@std@@QAE?AV012@H@Z
_TEXT	SEGMENT PARA USE32 PUBLIC 'CODE'
_TEXT	ENDS
;	COMDAT ??8const_iterator@?$_Tree@V?$_Tmap_traits@KU_Friend@@U?$less@K@std@@V?$allocator@U?$pair@$$CBKU_Friend@@@std@@@3@$0A@@std@@@std@@QBE_NABV012@@Z
_TEXT	SEGMENT PARA USE32 PUBLIC 'CODE'
_TEXT	ENDS
;	COMDAT ??9const_iterator@?$_Tree@V?$_Tmap_traits@KU_Friend@@U?$less@K@std@@V?$allocator@U?$pair@$$CBKU_Friend@@@std@@@3@$0A@@std@@@std@@QBE_NABV012@@Z
_TEXT	SEGMENT PARA USE32 PUBLIC 'CODE'
_TEXT	ENDS
;	COMDAT ?_Destroy@?$vector@PAU__JOINPLAYER@CGuildCombat@@V?$allocator@PAU__JOINPLAYER@CGuildCombat@@@std@@@std@@IAEXPAPAU__JOINPLAYER@CGuildCombat@@0@Z
_TEXT	SEGMENT PARA USE32 PUBLIC 'CODE'
_TEXT	ENDS
;	COMDAT ?deallocate@?$allocator@PAU__JOINPLAYER@CGuildCombat@@@std@@QAEXPAPAU__JOINPLAYER@CGuildCombat@@I@Z
_TEXT	SEGMENT PARA USE32 PUBLIC 'CODE'
_TEXT	ENDS
;	COMDAT ?max_size@?$vector@U__SECRETROOM_MONSTER@@V?$allocator@U__SECRETROOM_MONSTER@@@std@@@std@@QBEIXZ
_TEXT	SEGMENT PARA USE32 PUBLIC 'CODE'
_TEXT	ENDS
;	COMDAT ?_Destroy@?$vector@U__SECRETROOM_MONSTER@@V?$allocator@U__SECRETROOM_MONSTER@@@std@@@std@@IAEXPAU__SECRETROOM_MONSTER@@0@Z
_TEXT	SEGMENT PARA USE32 PUBLIC 'CODE'
_TEXT	ENDS
;	COMDAT ?_Xlen@?$vector@U__SECRETROOM_MONSTER@@V?$allocator@U__SECRETROOM_MONSTER@@@std@@@std@@IBEXXZ
_TEXT	SEGMENT PARA USE32 PUBLIC 'CODE'
_TEXT	ENDS
;	COMDAT ??0?$allocator@U__SECRETROOM_MONSTER@@@std@@QAE@ABV01@@Z
_TEXT	SEGMENT PARA USE32 PUBLIC 'CODE'
_TEXT	ENDS
;	COMDAT ?deallocate@?$allocator@U__SECRETROOM_MONSTER@@@std@@QAEXPAU__SECRETROOM_MONSTER@@I@Z
_TEXT	SEGMENT PARA USE32 PUBLIC 'CODE'
_TEXT	ENDS
;	COMDAT ?allocate@?$allocator@U__SECRETROOM_MONSTER@@@std@@QAEPAU__SECRETROOM_MONSTER@@I@Z
_TEXT	SEGMENT PARA USE32 PUBLIC 'CODE'
_TEXT	ENDS
;	COMDAT ?max_size@?$vector@V?$basic_string@DU?$char_traits@D@std@@V?$allocator@D@2@@std@@V?$allocator@V?$basic_string@DU?$char_traits@D@std@@V?$allocator@D@2@@std@@@2@@std@@QBEIXZ
_TEXT	SEGMENT PARA USE32 PUBLIC 'CODE'
_TEXT	ENDS
;	COMDAT ?_Destroy@?$vector@V?$basic_string@DU?$char_traits@D@std@@V?$allocator@D@2@@std@@V?$allocator@V?$basic_string@DU?$char_traits@D@std@@V?$allocator@D@2@@std@@@2@@std@@IAEXPAV?$basic_string@DU?$char_traits@D@std@@V?$allocator@D@2@@2@0@Z
_TEXT	SEGMENT PARA USE32 PUBLIC 'CODE'
_TEXT	ENDS
;	COMDAT ?_Insert_n@?$vector@V?$basic_string@DU?$char_traits@D@std@@V?$allocator@D@2@@std@@V?$allocator@V?$basic_string@DU?$char_traits@D@std@@V?$allocator@D@2@@std@@@2@@std@@IAEXViterator@12@IABV?$basic_string@DU?$char_traits@D@std@@V?$allocator@D@2@@2@@Z
_TEXT	SEGMENT PARA USE32 PUBLIC 'CODE'
_TEXT	ENDS
;	COMDAT ?_Xlen@?$vector@V?$basic_string@DU?$char_traits@D@std@@V?$allocator@D@2@@std@@V?$allocator@V?$basic_string@DU?$char_traits@D@std@@V?$allocator@D@2@@std@@@2@@std@@IBEXXZ
_TEXT	SEGMENT PARA USE32 PUBLIC 'CODE'
_TEXT	ENDS
;	COMDAT ?begin@?$vector@UMINIGMAME_PRIZE_LIST@CRainbowRaceMng@@V?$allocator@UMINIGMAME_PRIZE_LIST@CRainbowRaceMng@@@std@@@std@@QAE?AViterator@12@XZ
_TEXT	SEGMENT PARA USE32 PUBLIC 'CODE'
_TEXT	ENDS
;	COMDAT ?_Insert_n@?$vector@UMINIGMAME_PRIZE_LIST@CRainbowRaceMng@@V?$allocator@UMINIGMAME_PRIZE_LIST@CRainbowRaceMng@@@std@@@std@@IAEXViterator@12@IABUMINIGMAME_PRIZE_LIST@CRainbowRaceMng@@@Z
_TEXT	SEGMENT PARA USE32 PUBLIC 'CODE'
_TEXT	ENDS
;	COMDAT ?_Color@?$_Tree@V?$_Tmap_traits@KPAVCGuildHouseBase@@U?$less@K@std@@V?$allocator@U?$pair@$$CBKPAVCGuildHouseBase@@@std@@@3@$0A@@std@@@std@@KAAADPAU_Node@?$_Tree_nod@V?$_Tmap_traits@KPAVCGuildHouseBase@@U?$less@K@std@@V?$allocator@U?$pair@$$CBKPAVCGuildHouseBase@@@std@@@3@$0A@@std@@@2@@Z
_TEXT	SEGMENT PARA USE32 PUBLIC 'CODE'
_TEXT	ENDS
;	COMDAT ?_Parent@?$_Tree@V?$_Tmap_traits@KPAVCGuildHouseBase@@U?$less@K@std@@V?$allocator@U?$pair@$$CBKPAVCGuildHouseBase@@@std@@@3@$0A@@std@@@std@@KAAAPAU_Node@?$_Tree_nod@V?$_Tmap_traits@KPAVCGuildHouseBase@@U?$less@K@std@@V?$allocator@U?$pair@$$CBKPAVCGuildHouseBase@@@std@@@3@$0A@@std@@@2@PAU342@@Z
_TEXT	SEGMENT PARA USE32 PUBLIC 'CODE'
_TEXT	ENDS
;	COMDAT ?_Myval@?$_Tree@V?$_Tmap_traits@KPAVCGuildHouseBase@@U?$less@K@std@@V?$allocator@U?$pair@$$CBKPAVCGuildHouseBase@@@std@@@3@$0A@@std@@@std@@KAAAU?$pair@$$CBKPAVCGuildHouseBase@@@2@PAU_Node@?$_Tree_nod@V?$_Tmap_traits@KPAVCGuildHouseBase@@U?$less@K@std@@V?$allocator@U?$pair@$$CBKPAVCGuildHouseBase@@@std@@@3@$0A@@std@@@2@@Z
_TEXT	SEGMENT PARA USE32 PUBLIC 'CODE'
_TEXT	ENDS
;	COMDAT ?max_size@?$_Tree@V?$_Tmap_traits@KPAVCGuildHouseBase@@U?$less@K@std@@V?$allocator@U?$pair@$$CBKPAVCGuildHouseBase@@@std@@@3@$0A@@std@@@std@@QBEIXZ
_TEXT	SEGMENT PARA USE32 PUBLIC 'CODE'
_TEXT	ENDS
;	COMDAT ?_Lmost@?$_Tree@V?$_Tmap_traits@KPAVCGuildHouseBase@@U?$less@K@std@@V?$allocator@U?$pair@$$CBKPAVCGuildHouseBase@@@std@@@3@$0A@@std@@@std@@IAEAAPAU_Node@?$_Tree_nod@V?$_Tmap_traits@KPAVCGuildHouseBase@@U?$less@K@std@@V?$allocator@U?$pair@$$CBKPAVCGuildHouseBase@@@std@@@3@$0A@@std@@@2@XZ
_TEXT	SEGMENT PARA USE32 PUBLIC 'CODE'
_TEXT	ENDS
;	COMDAT ?_Lrotate@?$_Tree@V?$_Tmap_traits@KPAVCGuildHouseBase@@U?$less@K@std@@V?$allocator@U?$pair@$$CBKPAVCGuildHouseBase@@@std@@@3@$0A@@std@@@std@@IAEXPAU_Node@?$_Tree_nod@V?$_Tmap_traits@KPAVCGuildHouseBase@@U?$less@K@std@@V?$allocator@U?$pair@$$CBKPAVCGuildHouseBase@@@std@@@3@$0A@@std@@@2@@Z
_TEXT	SEGMENT PARA USE32 PUBLIC 'CODE'
_TEXT	ENDS
;	COMDAT ?_Rmost@?$_Tree@V?$_Tmap_traits@KPAVCGuildHouseBase@@U?$less@K@std@@V?$allocator@U?$pair@$$CBKPAVCGuildHouseBase@@@std@@@3@$0A@@std@@@std@@IAEAAPAU_Node@?$_Tree_nod@V?$_Tmap_traits@KPAVCGuildHouseBase@@U?$less@K@std@@V?$allocator@U?$pair@$$CBKPAVCGuildHouseBase@@@std@@@3@$0A@@std@@@2@XZ
_TEXT	SEGMENT PARA USE32 PUBLIC 'CODE'
_TEXT	ENDS
;	COMDAT ?_Rrotate@?$_Tree@V?$_Tmap_traits@KPAVCGuildHouseBase@@U?$less@K@std@@V?$allocator@U?$pair@$$CBKPAVCGuildHouseBase@@@std@@@3@$0A@@std@@@std@@IAEXPAU_Node@?$_Tree_nod@V?$_Tmap_traits@KPAVCGuildHouseBase@@U?$less@K@std@@V?$allocator@U?$pair@$$CBKPAVCGuildHouseBase@@@std@@@3@$0A@@std@@@2@@Z
_TEXT	SEGMENT PARA USE32 PUBLIC 'CODE'
_TEXT	ENDS
;	COMDAT ?_Buynode@?$_Tree@V?$_Tmap_traits@KPAVCGuildHouseBase@@U?$less@K@std@@V?$allocator@U?$pair@$$CBKPAVCGuildHouseBase@@@std@@@3@$0A@@std@@@std@@IAEPAU_Node@?$_Tree_nod@V?$_Tmap_traits@KPAVCGuildHouseBase@@U?$less@K@std@@V?$allocator@U?$pair@$$CBKPAVCGuildHouseBase@@@std@@@3@$0A@@std@@@2@PAU342@00ABU?$pair@$$CBKPAVCGuildHouseBase@@@2@D@Z
_TEXT	SEGMENT PARA USE32 PUBLIC 'CODE'
_TEXT	ENDS
;	COMDAT ??0const_iterator@?$_Tree@V?$_Tmap_traits@KPAVCGuildHouseBase@@U?$less@K@std@@V?$allocator@U?$pair@$$CBKPAVCGuildHouseBase@@@std@@@3@$0A@@std@@@std@@QAE@PAU_Node@?$_Tree_nod@V?$_Tmap_traits@KPAVCGuildHouseBase@@U?$less@K@std@@V?$allocator@U?$pair@$$CBKPAVCGuildHouseBase@@@std@@@3@$0A@@std@@@2@@Z
_TEXT	SEGMENT PARA USE32 PUBLIC 'CODE'
_TEXT	ENDS
;	COMDAT ??Fconst_iterator@?$_Tree@V?$_Tmap_traits@KPAVCGuildHouseBase@@U?$less@K@std@@V?$allocator@U?$pair@$$CBKPAVCGuildHouseBase@@@std@@@3@$0A@@std@@@std@@QAEAAV012@XZ
_TEXT	SEGMENT PARA USE32 PUBLIC 'CODE'
_TEXT	ENDS
;	COMDAT ?begin@?$_Tree@V?$_Tmap_traits@KKU?$less@K@std@@V?$allocator@U?$pair@$$CBKK@std@@@2@$0A@@std@@@std@@QAE?AViterator@12@XZ
_TEXT	SEGMENT PARA USE32 PUBLIC 'CODE'
_TEXT	ENDS
;	COMDAT ?end@?$_Tree@V?$_Tmap_traits@KKU?$less@K@std@@V?$allocator@U?$pair@$$CBKK@std@@@2@$0A@@std@@@std@@QAE?AViterator@12@XZ
_TEXT	SEGMENT PARA USE32 PUBLIC 'CODE'
_TEXT	ENDS
;	COMDAT ?erase@?$_Tree@V?$_Tmap_traits@KKU?$less@K@std@@V?$allocator@U?$pair@$$CBKK@std@@@2@$0A@@std@@@std@@QAE?AViterator@12@V312@@Z
_TEXT	SEGMENT PARA USE32 PUBLIC 'CODE'
_TEXT	ENDS
;	COMDAT ?clear@?$_Tree@V?$_Tmap_traits@KKU?$less@K@std@@V?$allocator@U?$pair@$$CBKK@std@@@2@$0A@@std@@@std@@QAEXXZ
_TEXT	SEGMENT PARA USE32 PUBLIC 'CODE'
_TEXT	ENDS
;	COMDAT ?lower_bound@?$_Tree@V?$_Tmap_traits@KKU?$less@K@std@@V?$allocator@U?$pair@$$CBKK@std@@@2@$0A@@std@@@std@@QAE?AViterator@12@ABK@Z
_TEXT	SEGMENT PARA USE32 PUBLIC 'CODE'
_TEXT	ENDS
;	COMDAT ?upper_bound@?$_Tree@V?$_Tmap_traits@KKU?$less@K@std@@V?$allocator@U?$pair@$$CBKK@std@@@2@$0A@@std@@@std@@QAE?AViterator@12@ABK@Z
_TEXT	SEGMENT PARA USE32 PUBLIC 'CODE'
_TEXT	ENDS
;	COMDAT ??Eiterator@?$_Tree@V?$_Tmap_traits@KKU?$less@K@std@@V?$allocator@U?$pair@$$CBKK@std@@@2@$0A@@std@@@std@@QAE?AV012@H@Z
_TEXT	SEGMENT PARA USE32 PUBLIC 'CODE'
_TEXT	ENDS
;	COMDAT ??8const_iterator@?$_Tree@V?$_Tmap_traits@KKU?$less@K@std@@V?$allocator@U?$pair@$$CBKK@std@@@2@$0A@@std@@@std@@QBE_NABV012@@Z
_TEXT	SEGMENT PARA USE32 PUBLIC 'CODE'
_TEXT	ENDS
;	COMDAT ??9const_iterator@?$_Tree@V?$_Tmap_traits@KKU?$less@K@std@@V?$allocator@U?$pair@$$CBKK@std@@@2@$0A@@std@@@std@@QBE_NABV012@@Z
_TEXT	SEGMENT PARA USE32 PUBLIC 'CODE'
_TEXT	ENDS
;	COMDAT ?_Left@?$_Tree@V?$_Tmap_traits@KPAVCClientSock@@U?$less@K@std@@V?$allocator@U?$pair@$$CBKPAVCClientSock@@@std@@@3@$0A@@std@@@std@@KAAAPAU_Node@?$_Tree_nod@V?$_Tmap_traits@KPAVCClientSock@@U?$less@K@std@@V?$allocator@U?$pair@$$CBKPAVCClientSock@@@std@@@3@$0A@@std@@@2@PAU342@@Z
_TEXT	SEGMENT PARA USE32 PUBLIC 'CODE'
_TEXT	ENDS
;	COMDAT ?_Parent@?$_Tree@V?$_Tmap_traits@KPAVCClientSock@@U?$less@K@std@@V?$allocator@U?$pair@$$CBKPAVCClientSock@@@std@@@3@$0A@@std@@@std@@KAAAPAU_Node@?$_Tree_nod@V?$_Tmap_traits@KPAVCClientSock@@U?$less@K@std@@V?$allocator@U?$pair@$$CBKPAVCClientSock@@@std@@@3@$0A@@std@@@2@PAU342@@Z
_TEXT	SEGMENT PARA USE32 PUBLIC 'CODE'
_TEXT	ENDS
;	COMDAT ?_Right@?$_Tree@V?$_Tmap_traits@KPAVCClientSock@@U?$less@K@std@@V?$allocator@U?$pair@$$CBKPAVCClientSock@@@std@@@3@$0A@@std@@@std@@KAAAPAU_Node@?$_Tree_nod@V?$_Tmap_traits@KPAVCClientSock@@U?$less@K@std@@V?$allocator@U?$pair@$$CBKPAVCClientSock@@@std@@@3@$0A@@std@@@2@PAU342@@Z
_TEXT	SEGMENT PARA USE32 PUBLIC 'CODE'
_TEXT	ENDS
;	COMDAT ?_Myval@?$_Tree@V?$_Tmap_traits@KPAVCClientSock@@U?$less@K@std@@V?$allocator@U?$pair@$$CBKPAVCClientSock@@@std@@@3@$0A@@std@@@std@@KAAAU?$pair@$$CBKPAVCClientSock@@@2@PAU_Node@?$_Tree_nod@V?$_Tmap_traits@KPAVCClientSock@@U?$less@K@std@@V?$allocator@U?$pair@$$CBKPAVCClientSock@@@std@@@3@$0A@@std@@@2@@Z
_TEXT	SEGMENT PARA USE32 PUBLIC 'CODE'
_TEXT	ENDS
;	COMDAT ?begin@?$_Tree@V?$_Tmap_traits@KPAVCClientSock@@U?$less@K@std@@V?$allocator@U?$pair@$$CBKPAVCClientSock@@@std@@@3@$0A@@std@@@std@@QAE?AViterator@12@XZ
_TEXT	SEGMENT PARA USE32 PUBLIC 'CODE'
_TEXT	ENDS
;	COMDAT ?erase@?$_Tree@V?$_Tmap_traits@KPAVCClientSock@@U?$less@K@std@@V?$allocator@U?$pair@$$CBKPAVCClientSock@@@std@@@3@$0A@@std@@@std@@QAE?AViterator@12@V312@0@Z
_TEXT	SEGMENT PARA USE32 PUBLIC 'CODE'
_TEXT	ENDS
;	COMDAT ?_Init@?$_Tree@V?$_Tmap_traits@KPAVCClientSock@@U?$less@K@std@@V?$allocator@U?$pair@$$CBKPAVCClientSock@@@std@@@3@$0A@@std@@@std@@IAEXXZ
_TEXT	SEGMENT PARA USE32 PUBLIC 'CODE'
_TEXT	ENDS
;	COMDAT ?_Lbound@?$_Tree@V?$_Tmap_traits@KPAVCClientSock@@U?$less@K@std@@V?$allocator@U?$pair@$$CBKPAVCClientSock@@@std@@@3@$0A@@std@@@std@@IBEPAU_Node@?$_Tree_nod@V?$_Tmap_traits@KPAVCClientSock@@U?$less@K@std@@V?$allocator@U?$pair@$$CBKPAVCClientSock@@@std@@@3@$0A@@std@@@2@ABK@Z
_TEXT	SEGMENT PARA USE32 PUBLIC 'CODE'
_TEXT	ENDS
;	COMDAT ??0?$_Tree_val@V?$_Tmap_traits@KPAVCClientSock@@U?$less@K@std@@V?$allocator@U?$pair@$$CBKPAVCClientSock@@@std@@@3@$0A@@std@@@std@@IAE@ABU?$less@K@1@V?$allocator@U?$pair@$$CBKPAVCClientSock@@@std@@@1@@Z
_TEXT	SEGMENT PARA USE32 PUBLIC 'CODE'
_TEXT	ENDS
;	COMDAT ?_Kfn@?$_Tmap_traits@KPAVCClientSock@@U?$less@K@std@@V?$allocator@U?$pair@$$CBKPAVCClientSock@@@std@@@3@$0A@@std@@SAABKABU?$pair@$$CBKPAVCClientSock@@@2@@Z
_TEXT	SEGMENT PARA USE32 PUBLIC 'CODE'
_TEXT	ENDS
;	COMDAT ??0?$allocator@U?$pair@$$CBKPAVCClientSock@@@std@@@std@@QAE@ABV01@@Z
_TEXT	SEGMENT PARA USE32 PUBLIC 'CODE'
_TEXT	ENDS
;	COMDAT ?deallocate@?$allocator@U_Node@?$_Tree_nod@V?$_Tmap_traits@KPAVCClientSock@@U?$less@K@std@@V?$allocator@U?$pair@$$CBKPAVCClientSock@@@std@@@3@$0A@@std@@@std@@@std@@QAEXPAU_Node@?$_Tree_nod@V?$_Tmap_traits@KPAVCClientSock@@U?$less@K@std@@V?$allocator@U?$pair@$$CBKPAVCClientSock@@@std@@@3@$0A@@std@@@2@I@Z
_TEXT	SEGMENT PARA USE32 PUBLIC 'CODE'
_TEXT	ENDS
;	COMDAT ?destroy@?$allocator@PAU_Node@?$_Tree_nod@V?$_Tmap_traits@KPAVCClientSock@@U?$less@K@std@@V?$allocator@U?$pair@$$CBKPAVCClientSock@@@std@@@3@$0A@@std@@@std@@@std@@QAEXPAPAU_Node@?$_Tree_nod@V?$_Tmap_traits@KPAVCClientSock@@U?$less@K@std@@V?$allocator@U?$pair@$$CBKPAVCClientSock@@@std@@@3@$0A@@std@@@2@@Z
_TEXT	SEGMENT PARA USE32 PUBLIC 'CODE'
_TEXT	ENDS
;	COMDAT ??0const_iterator@?$_Tree@V?$_Tmap_traits@KPAVCClientSock@@U?$less@K@std@@V?$allocator@U?$pair@$$CBKPAVCClientSock@@@std@@@3@$0A@@std@@@std@@QAE@PAU_Node@?$_Tree_nod@V?$_Tmap_traits@KPAVCClientSock@@U?$less@K@std@@V?$allocator@U?$pair@$$CBKPAVCClientSock@@@std@@@3@$0A@@std@@@2@@Z
_TEXT	SEGMENT PARA USE32 PUBLIC 'CODE'
_TEXT	ENDS
;	COMDAT ??Dconst_iterator@?$_Tree@V?$_Tmap_traits@KPAVCClientSock@@U?$less@K@std@@V?$allocator@U?$pair@$$CBKPAVCClientSock@@@std@@@3@$0A@@std@@@std@@QBEABU?$pair@$$CBKPAVCClientSock@@@2@XZ
_TEXT	SEGMENT PARA USE32 PUBLIC 'CODE'
_TEXT	ENDS
;	COMDAT ?_Left@?$_Tree@V?$_Tmap_traits@KPAVCClientSockE@@U?$less@K@std@@V?$allocator@U?$pair@$$CBKPAVCClientSockE@@@std@@@3@$0A@@std@@@std@@KAAAPAU_Node@?$_Tree_nod@V?$_Tmap_traits@KPAVCClientSockE@@U?$less@K@std@@V?$allocator@U?$pair@$$CBKPAVCClientSockE@@@std@@@3@$0A@@std@@@2@PAU342@@Z
_TEXT	SEGMENT PARA USE32 PUBLIC 'CODE'
_TEXT	ENDS
;	COMDAT ?_Parent@?$_Tree@V?$_Tmap_traits@KPAVCClientSockE@@U?$less@K@std@@V?$allocator@U?$pair@$$CBKPAVCClientSockE@@@std@@@3@$0A@@std@@@std@@KAAAPAU_Node@?$_Tree_nod@V?$_Tmap_traits@KPAVCClientSockE@@U?$less@K@std@@V?$allocator@U?$pair@$$CBKPAVCClientSockE@@@std@@@3@$0A@@std@@@2@PAU342@@Z
_TEXT	SEGMENT PARA USE32 PUBLIC 'CODE'
_TEXT	ENDS
;	COMDAT ?_Right@?$_Tree@V?$_Tmap_traits@KPAVCClientSockE@@U?$less@K@std@@V?$allocator@U?$pair@$$CBKPAVCClientSockE@@@std@@@3@$0A@@std@@@std@@KAAAPAU_Node@?$_Tree_nod@V?$_Tmap_traits@KPAVCClientSockE@@U?$less@K@std@@V?$allocator@U?$pair@$$CBKPAVCClientSockE@@@std@@@3@$0A@@std@@@2@PAU342@@Z
_TEXT	SEGMENT PARA USE32 PUBLIC 'CODE'
_TEXT	ENDS
;	COMDAT ?_Myval@?$_Tree@V?$_Tmap_traits@KPAVCClientSockE@@U?$less@K@std@@V?$allocator@U?$pair@$$CBKPAVCClientSockE@@@std@@@3@$0A@@std@@@std@@KAAAU?$pair@$$CBKPAVCClientSockE@@@2@PAU_Node@?$_Tree_nod@V?$_Tmap_traits@KPAVCClientSockE@@U?$less@K@std@@V?$allocator@U?$pair@$$CBKPAVCClientSockE@@@std@@@3@$0A@@std@@@2@@Z
_TEXT	SEGMENT PARA USE32 PUBLIC 'CODE'
_TEXT	ENDS
;	COMDAT ?begin@?$_Tree@V?$_Tmap_traits@KPAVCClientSockE@@U?$less@K@std@@V?$allocator@U?$pair@$$CBKPAVCClientSockE@@@std@@@3@$0A@@std@@@std@@QAE?AViterator@12@XZ
_TEXT	SEGMENT PARA USE32 PUBLIC 'CODE'
_TEXT	ENDS
;	COMDAT ?erase@?$_Tree@V?$_Tmap_traits@KPAVCClientSockE@@U?$less@K@std@@V?$allocator@U?$pair@$$CBKPAVCClientSockE@@@std@@@3@$0A@@std@@@std@@QAE?AViterator@12@V312@0@Z
_TEXT	SEGMENT PARA USE32 PUBLIC 'CODE'
_TEXT	ENDS
;	COMDAT ?_Init@?$_Tree@V?$_Tmap_traits@KPAVCClientSockE@@U?$less@K@std@@V?$allocator@U?$pair@$$CBKPAVCClientSockE@@@std@@@3@$0A@@std@@@std@@IAEXXZ
_TEXT	SEGMENT PARA USE32 PUBLIC 'CODE'
_TEXT	ENDS
;	COMDAT ?_Lbound@?$_Tree@V?$_Tmap_traits@KPAVCClientSockE@@U?$less@K@std@@V?$allocator@U?$pair@$$CBKPAVCClientSockE@@@std@@@3@$0A@@std@@@std@@IBEPAU_Node@?$_Tree_nod@V?$_Tmap_traits@KPAVCClientSockE@@U?$less@K@std@@V?$allocator@U?$pair@$$CBKPAVCClientSockE@@@std@@@3@$0A@@std@@@2@ABK@Z
_TEXT	SEGMENT PARA USE32 PUBLIC 'CODE'
_TEXT	ENDS
;	COMDAT ??0?$_Tree_val@V?$_Tmap_traits@KPAVCClientSockE@@U?$less@K@std@@V?$allocator@U?$pair@$$CBKPAVCClientSockE@@@std@@@3@$0A@@std@@@std@@IAE@ABU?$less@K@1@V?$allocator@U?$pair@$$CBKPAVCClientSockE@@@std@@@1@@Z
_TEXT	SEGMENT PARA USE32 PUBLIC 'CODE'
_TEXT	ENDS
;	COMDAT ?_Kfn@?$_Tmap_traits@KPAVCClientSockE@@U?$less@K@std@@V?$allocator@U?$pair@$$CBKPAVCClientSockE@@@std@@@3@$0A@@std@@SAABKABU?$pair@$$CBKPAVCClientSockE@@@2@@Z
_TEXT	SEGMENT PARA USE32 PUBLIC 'CODE'
_TEXT	ENDS
;	COMDAT ??0?$allocator@U?$pair@$$CBKPAVCClientSockE@@@std@@@std@@QAE@ABV01@@Z
_TEXT	SEGMENT PARA USE32 PUBLIC 'CODE'
_TEXT	ENDS
;	COMDAT ?deallocate@?$allocator@U_Node@?$_Tree_nod@V?$_Tmap_traits@KPAVCClientSockE@@U?$less@K@std@@V?$allocator@U?$pair@$$CBKPAVCClientSockE@@@std@@@3@$0A@@std@@@std@@@std@@QAEXPAU_Node@?$_Tree_nod@V?$_Tmap_traits@KPAVCClientSockE@@U?$less@K@std@@V?$allocator@U?$pair@$$CBKPAVCClientSockE@@@std@@@3@$0A@@std@@@2@I@Z
_TEXT	SEGMENT PARA USE32 PUBLIC 'CODE'
_TEXT	ENDS
;	COMDAT ?destroy@?$allocator@PAU_Node@?$_Tree_nod@V?$_Tmap_traits@KPAVCClientSockE@@U?$less@K@std@@V?$allocator@U?$pair@$$CBKPAVCClientSockE@@@std@@@3@$0A@@std@@@std@@@std@@QAEXPAPAU_Node@?$_Tree_nod@V?$_Tmap_traits@KPAVCClientSockE@@U?$less@K@std@@V?$allocator@U?$pair@$$CBKPAVCClientSockE@@@std@@@3@$0A@@std@@@2@@Z
_TEXT	SEGMENT PARA USE32 PUBLIC 'CODE'
_TEXT	ENDS
;	COMDAT ??0const_iterator@?$_Tree@V?$_Tmap_traits@KPAVCClientSockE@@U?$less@K@std@@V?$allocator@U?$pair@$$CBKPAVCClientSockE@@@std@@@3@$0A@@std@@@std@@QAE@PAU_Node@?$_Tree_nod@V?$_Tmap_traits@KPAVCClientSockE@@U?$less@K@std@@V?$allocator@U?$pair@$$CBKPAVCClientSockE@@@std@@@3@$0A@@std@@@2@@Z
_TEXT	SEGMENT PARA USE32 PUBLIC 'CODE'
_TEXT	ENDS
;	COMDAT ??Dconst_iterator@?$_Tree@V?$_Tmap_traits@KPAVCClientSockE@@U?$less@K@std@@V?$allocator@U?$pair@$$CBKPAVCClientSockE@@@std@@@3@$0A@@std@@@std@@QBEABU?$pair@$$CBKPAVCClientSockE@@@2@XZ
_TEXT	SEGMENT PARA USE32 PUBLIC 'CODE'
_TEXT	ENDS
;	COMDAT ?_Myval@?$_Tree@V?$_Tmap_traits@KP8CDPCoreClient@@AEXAAVCAr@@KKK@ZU?$less@K@std@@V?$allocator@U?$pair@$$CBKP8CDPCoreClient@@AEXAAVCAr@@KKK@Z@std@@@4@$0A@@std@@@std@@KAAAU?$pair@$$CBKP8CDPCoreClient@@AEXAAVCAr@@KKK@Z@2@PAU_Node@?$_Tree_nod@V?$_Tmap_traits@KP8CDPCoreClient@@AEXAAVCAr@@KKK@ZU?$less@K@std@@V?$allocator@U?$pair@$$CBKP8CDPCoreClient@@AEXAAVCAr@@KKK@Z@std@@@4@$0A@@std@@@2@@Z
_TEXT	SEGMENT PARA USE32 PUBLIC 'CODE'
_TEXT	ENDS
;	COMDAT ?_Lbound@?$_Tree@V?$_Tmap_traits@KP8CDPCoreClient@@AEXAAVCAr@@KKK@ZU?$less@K@std@@V?$allocator@U?$pair@$$CBKP8CDPCoreClient@@AEXAAVCAr@@KKK@Z@std@@@4@$0A@@std@@@std@@IBEPAU_Node@?$_Tree_nod@V?$_Tmap_traits@KP8CDPCoreClient@@AEXAAVCAr@@KKK@ZU?$less@K@std@@V?$allocator@U?$pair@$$CBKP8CDPCoreClient@@AEXAAVCAr@@KKK@Z@std@@@4@$0A@@std@@@2@ABK@Z
_TEXT	SEGMENT PARA USE32 PUBLIC 'CODE'
_TEXT	ENDS
;	COMDAT ?_Kfn@?$_Tmap_traits@KP8CDPCoreClient@@AEXAAVCAr@@KKK@ZU?$less@K@std@@V?$allocator@U?$pair@$$CBKP8CDPCoreClient@@AEXAAVCAr@@KKK@Z@std@@@4@$0A@@std@@SAABKABU?$pair@$$CBKP8CDPCoreClient@@AEXAAVCAr@@KKK@Z@2@@Z
_TEXT	SEGMENT PARA USE32 PUBLIC 'CODE'
_TEXT	ENDS
;	COMDAT ??0const_iterator@?$_Tree@V?$_Tmap_traits@KP8CDPCoreClient@@AEXAAVCAr@@KKK@ZU?$less@K@std@@V?$allocator@U?$pair@$$CBKP8CDPCoreClient@@AEXAAVCAr@@KKK@Z@std@@@4@$0A@@std@@@std@@QAE@PAU_Node@?$_Tree_nod@V?$_Tmap_traits@KP8CDPCoreClient@@AEXAAVCAr@@KKK@ZU?$less@K@std@@V?$allocator@U?$pair@$$CBKP8CDPCoreClient@@AEXAAVCAr@@KKK@Z@std@@@4@$0A@@std@@@2@@Z
_TEXT	SEGMENT PARA USE32 PUBLIC 'CODE'
_TEXT	ENDS
;	COMDAT ??Dconst_iterator@?$_Tree@V?$_Tmap_traits@KP8CDPCoreClient@@AEXAAVCAr@@KKK@ZU?$less@K@std@@V?$allocator@U?$pair@$$CBKP8CDPCoreClient@@AEXAAVCAr@@KKK@Z@std@@@4@$0A@@std@@@std@@QBEABU?$pair@$$CBKP8CDPCoreClient@@AEXAAVCAr@@KKK@Z@2@XZ
_TEXT	SEGMENT PARA USE32 PUBLIC 'CODE'
_TEXT	ENDS
;	COMDAT ?_Myval@?$_Tree@V?$_Tmap_traits@KP8CDPDatabaseClient@@AEXAAVCAr@@KK@ZU?$less@K@std@@V?$allocator@U?$pair@$$CBKP8CDPDatabaseClient@@AEXAAVCAr@@KK@Z@std@@@4@$0A@@std@@@std@@KAAAU?$pair@$$CBKP8CDPDatabaseClient@@AEXAAVCAr@@KK@Z@2@PAU_Node@?$_Tree_nod@V?$_Tmap_traits@KP8CDPDatabaseClient@@AEXAAVCAr@@KK@ZU?$less@K@std@@V?$allocator@U?$pair@$$CBKP8CDPDatabaseClient@@AEXAAVCAr@@KK@Z@std@@@4@$0A@@std@@@2@@Z
_TEXT	SEGMENT PARA USE32 PUBLIC 'CODE'
_TEXT	ENDS
;	COMDAT ?_Lbound@?$_Tree@V?$_Tmap_traits@KP8CDPDatabaseClient@@AEXAAVCAr@@KK@ZU?$less@K@std@@V?$allocator@U?$pair@$$CBKP8CDPDatabaseClient@@AEXAAVCAr@@KK@Z@std@@@4@$0A@@std@@@std@@IBEPAU_Node@?$_Tree_nod@V?$_Tmap_traits@KP8CDPDatabaseClient@@AEXAAVCAr@@KK@ZU?$less@K@std@@V?$allocator@U?$pair@$$CBKP8CDPDatabaseClient@@AEXAAVCAr@@KK@Z@std@@@4@$0A@@std@@@2@ABK@Z
_TEXT	SEGMENT PARA USE32 PUBLIC 'CODE'
_TEXT	ENDS
;	COMDAT ?_Kfn@?$_Tmap_traits@KP8CDPDatabaseClient@@AEXAAVCAr@@KK@ZU?$less@K@std@@V?$allocator@U?$pair@$$CBKP8CDPDatabaseClient@@AEXAAVCAr@@KK@Z@std@@@4@$0A@@std@@SAABKABU?$pair@$$CBKP8CDPDatabaseClient@@AEXAAVCAr@@KK@Z@2@@Z
_TEXT	SEGMENT PARA USE32 PUBLIC 'CODE'
_TEXT	ENDS
;	COMDAT ??0const_iterator@?$_Tree@V?$_Tmap_traits@KP8CDPDatabaseClient@@AEXAAVCAr@@KK@ZU?$less@K@std@@V?$allocator@U?$pair@$$CBKP8CDPDatabaseClient@@AEXAAVCAr@@KK@Z@std@@@4@$0A@@std@@@std@@QAE@PAU_Node@?$_Tree_nod@V?$_Tmap_traits@KP8CDPDatabaseClient@@AEXAAVCAr@@KK@ZU?$less@K@std@@V?$allocator@U?$pair@$$CBKP8CDPDatabaseClient@@AEXAAVCAr@@KK@Z@std@@@4@$0A@@std@@@2@@Z
_TEXT	SEGMENT PARA USE32 PUBLIC 'CODE'
_TEXT	ENDS
;	COMDAT ??Dconst_iterator@?$_Tree@V?$_Tmap_traits@KP8CDPDatabaseClient@@AEXAAVCAr@@KK@ZU?$less@K@std@@V?$allocator@U?$pair@$$CBKP8CDPDatabaseClient@@AEXAAVCAr@@KK@Z@std@@@4@$0A@@std@@@std@@QBEABU?$pair@$$CBKP8CDPDatabaseClient@@AEXAAVCAr@@KK@Z@2@XZ
_TEXT	SEGMENT PARA USE32 PUBLIC 'CODE'
_TEXT	ENDS
;	COMDAT ??0?$pair@Viterator@?$_Tree@V?$_Tmap_traits@KU_Friend@@U?$less@K@std@@V?$allocator@U?$pair@$$CBKU_Friend@@@std@@@3@$0A@@std@@@std@@V123@@std@@QAE@ABViterator@?$_Tree@V?$_Tmap_traits@KU_Friend@@U?$less@K@std@@V?$allocator@U?$pair@$$CBKU_Friend@@@std@@@3@$0A@@std@@@1@0@Z
_TEXT	SEGMENT PARA USE32 PUBLIC 'CODE'
_TEXT	ENDS
;	COMDAT ??0iterator@?$vector@PAU__JOINPLAYER@CGuildCombat@@V?$allocator@PAU__JOINPLAYER@CGuildCombat@@@std@@@std@@QAE@PAPAU__JOINPLAYER@CGuildCombat@@@Z
_TEXT	SEGMENT PARA USE32 PUBLIC 'CODE'
_TEXT	ENDS
;	COMDAT ??Yiterator@?$vector@PAU__JOINPLAYER@CGuildCombat@@V?$allocator@PAU__JOINPLAYER@CGuildCombat@@@std@@@std@@QAEAAV012@H@Z
_TEXT	SEGMENT PARA USE32 PUBLIC 'CODE'
_TEXT	ENDS
;	COMDAT ??Dconst_iterator@?$vector@PAU__JOINPLAYER@CGuildCombat@@V?$allocator@PAU__JOINPLAYER@CGuildCombat@@@std@@@std@@QBEABQAU__JOINPLAYER@CGuildCombat@@XZ
_TEXT	SEGMENT PARA USE32 PUBLIC 'CODE'
_TEXT	ENDS
;	COMDAT ??0iterator@?$vector@V?$basic_string@DU?$char_traits@D@std@@V?$allocator@D@2@@std@@V?$allocator@V?$basic_string@DU?$char_traits@D@std@@V?$allocator@D@2@@std@@@2@@std@@QAE@PAV?$basic_string@DU?$char_traits@D@std@@V?$allocator@D@2@@2@@Z
_TEXT	SEGMENT PARA USE32 PUBLIC 'CODE'
_TEXT	ENDS
;	COMDAT ??Yiterator@?$vector@V?$basic_string@DU?$char_traits@D@std@@V?$allocator@D@2@@std@@V?$allocator@V?$basic_string@DU?$char_traits@D@std@@V?$allocator@D@2@@std@@@2@@std@@QAEAAV012@H@Z
_TEXT	SEGMENT PARA USE32 PUBLIC 'CODE'
_TEXT	ENDS
;	COMDAT ??Giterator@?$vector@V?$basic_string@DU?$char_traits@D@std@@V?$allocator@D@2@@std@@V?$allocator@V?$basic_string@DU?$char_traits@D@std@@V?$allocator@D@2@@std@@@2@@std@@QBEHABVconst_iterator@12@@Z
_TEXT	SEGMENT PARA USE32 PUBLIC 'CODE'
_TEXT	ENDS
;	COMDAT ??Dconst_iterator@?$vector@V?$basic_string@DU?$char_traits@D@std@@V?$allocator@D@2@@std@@V?$allocator@V?$basic_string@DU?$char_traits@D@std@@V?$allocator@D@2@@std@@@2@@std@@QBEABV?$basic_string@DU?$char_traits@D@std@@V?$allocator@D@2@@2@XZ
_TEXT	SEGMENT PARA USE32 PUBLIC 'CODE'
_TEXT	ENDS
;	COMDAT ??0iterator@?$vector@UMINIGMAME_PRIZE_LIST@CRainbowRaceMng@@V?$allocator@UMINIGMAME_PRIZE_LIST@CRainbowRaceMng@@@std@@@std@@QAE@PAUMINIGMAME_PRIZE_LIST@CRainbowRaceMng@@@Z
_TEXT	SEGMENT PARA USE32 PUBLIC 'CODE'
_TEXT	ENDS
;	COMDAT ??Hiterator@?$vector@UMINIGMAME_PRIZE_LIST@CRainbowRaceMng@@V?$allocator@UMINIGMAME_PRIZE_LIST@CRainbowRaceMng@@@std@@@std@@QBE?AV012@H@Z
_TEXT	SEGMENT PARA USE32 PUBLIC 'CODE'
_TEXT	ENDS
;	COMDAT ??Giterator@?$vector@UMINIGMAME_PRIZE_LIST@CRainbowRaceMng@@V?$allocator@UMINIGMAME_PRIZE_LIST@CRainbowRaceMng@@@std@@@std@@QBEHABVconst_iterator@12@@Z
_TEXT	SEGMENT PARA USE32 PUBLIC 'CODE'
_TEXT	ENDS
;	COMDAT ??0iterator@?$vector@PAVCMiniGameBase@@V?$allocator@PAVCMiniGameBase@@@std@@@std@@QAE@PAPAVCMiniGameBase@@@Z
_TEXT	SEGMENT PARA USE32 PUBLIC 'CODE'
_TEXT	ENDS
;	COMDAT ??Yiterator@?$vector@PAVCMiniGameBase@@V?$allocator@PAVCMiniGameBase@@@std@@@std@@QAEAAV012@H@Z
_TEXT	SEGMENT PARA USE32 PUBLIC 'CODE'
_TEXT	ENDS
;	COMDAT ??Dconst_iterator@?$vector@PAVCMiniGameBase@@V?$allocator@PAVCMiniGameBase@@@std@@@std@@QBEABQAVCMiniGameBase@@XZ
_TEXT	SEGMENT PARA USE32 PUBLIC 'CODE'
_TEXT	ENDS
;	COMDAT ??0iterator@?$vector@UGuildHouse_Furniture_Info@CGuildHouseBase@@V?$allocator@UGuildHouse_Furniture_Info@CGuildHouseBase@@@std@@@std@@QAE@PAUGuildHouse_Furniture_Info@CGuildHouseBase@@@Z
_TEXT	SEGMENT PARA USE32 PUBLIC 'CODE'
_TEXT	ENDS
;	COMDAT ??Yiterator@?$vector@UGuildHouse_Furniture_Info@CGuildHouseBase@@V?$allocator@UGuildHouse_Furniture_Info@CGuildHouseBase@@@std@@@std@@QAEAAV012@H@Z
_TEXT	SEGMENT PARA USE32 PUBLIC 'CODE'
_TEXT	ENDS
;	COMDAT ??Dconst_iterator@?$vector@UGuildHouse_Furniture_Info@CGuildHouseBase@@V?$allocator@UGuildHouse_Furniture_Info@CGuildHouseBase@@@std@@@std@@QBEABUGuildHouse_Furniture_Info@CGuildHouseBase@@XZ
_TEXT	SEGMENT PARA USE32 PUBLIC 'CODE'
_TEXT	ENDS
;	COMDAT ??0?$pair@Viterator@?$_Tree@V?$_Tmap_traits@KKU?$less@K@std@@V?$allocator@U?$pair@$$CBKK@std@@@2@$0A@@std@@@std@@V123@@std@@QAE@ABViterator@?$_Tree@V?$_Tmap_traits@KKU?$less@K@std@@V?$allocator@U?$pair@$$CBKK@std@@@2@$0A@@std@@@1@0@Z
_TEXT	SEGMENT PARA USE32 PUBLIC 'CODE'
_TEXT	ENDS
;	COMDAT ?max_size@?$allocator@V?$basic_string@DU?$char_traits@D@std@@V?$allocator@D@2@@std@@@std@@QBEIXZ
_TEXT	SEGMENT PARA USE32 PUBLIC 'CODE'
_TEXT	ENDS
;	COMDAT ??0const_iterator@?$_Tree@V?$_Tmap_traits@KPAVCCtrl@@U?$less@K@std@@V?$allocator@U?$pair@$$CBKPAVCCtrl@@@std@@@3@$0A@@std@@@std@@QAE@XZ
_TEXT	SEGMENT PARA USE32 PUBLIC 'CODE'
_TEXT	ENDS
;	COMDAT ?_Myval@?$_Tree@V?$_Tmap_traits@KHU?$less@K@std@@V?$allocator@U?$pair@$$CBKH@std@@@2@$0A@@std@@@std@@KAAAU?$pair@$$CBKH@2@PAU_Node@?$_Tree_nod@V?$_Tmap_traits@KHU?$less@K@std@@V?$allocator@U?$pair@$$CBKH@std@@@2@$0A@@std@@@2@@Z
_TEXT	SEGMENT PARA USE32 PUBLIC 'CODE'
_TEXT	ENDS
;	COMDAT ?_Buynode@?$_Tree@V?$_Tmap_traits@KHU?$less@K@std@@V?$allocator@U?$pair@$$CBKH@std@@@2@$0A@@std@@@std@@IAEPAU_Node@?$_Tree_nod@V?$_Tmap_traits@KHU?$less@K@std@@V?$allocator@U?$pair@$$CBKH@std@@@2@$0A@@std@@@2@XZ
_TEXT	SEGMENT PARA USE32 PUBLIC 'CODE'
_TEXT	ENDS
;	COMDAT ??0?$_Tree_ptr@V?$_Tmap_traits@KHU?$less@K@std@@V?$allocator@U?$pair@$$CBKH@std@@@2@$0A@@std@@@std@@IAE@ABU?$less@K@1@V?$allocator@U?$pair@$$CBKH@std@@@1@@Z
_TEXT	SEGMENT PARA USE32 PUBLIC 'CODE'
_TEXT	ENDS
;	COMDAT ?destroy@?$allocator@PAUtagACTMSG@@@std@@QAEXPAPAUtagACTMSG@@@Z
_TEXT	SEGMENT PARA USE32 PUBLIC 'CODE'
_TEXT	ENDS
;	COMDAT ?destroy@?$allocator@PAUtagMAGICATKMSG@@@std@@QAEXPAPAUtagMAGICATKMSG@@@Z
_TEXT	SEGMENT PARA USE32 PUBLIC 'CODE'
_TEXT	ENDS
;	COMDAT ?_Color@?$_Tree@V?$_Tmap_traits@KU_Friend@@U?$less@K@std@@V?$allocator@U?$pair@$$CBKU_Friend@@@std@@@3@$0A@@std@@@std@@KAAADPAU_Node@?$_Tree_nod@V?$_Tmap_traits@KU_Friend@@U?$less@K@std@@V?$allocator@U?$pair@$$CBKU_Friend@@@std@@@3@$0A@@std@@@2@@Z
_TEXT	SEGMENT PARA USE32 PUBLIC 'CODE'
_TEXT	ENDS
;	COMDAT ?_Isnil@?$_Tree@V?$_Tmap_traits@KU_Friend@@U?$less@K@std@@V?$allocator@U?$pair@$$CBKU_Friend@@@std@@@3@$0A@@std@@@std@@KAAADPAU_Node@?$_Tree_nod@V?$_Tmap_traits@KU_Friend@@U?$less@K@std@@V?$allocator@U?$pair@$$CBKU_Friend@@@std@@@3@$0A@@std@@@2@@Z
_TEXT	SEGMENT PARA USE32 PUBLIC 'CODE'
_TEXT	ENDS
;	COMDAT ?_Left@?$_Tree@V?$_Tmap_traits@KU_Friend@@U?$less@K@std@@V?$allocator@U?$pair@$$CBKU_Friend@@@std@@@3@$0A@@std@@@std@@KAAAPAU_Node@?$_Tree_nod@V?$_Tmap_traits@KU_Friend@@U?$less@K@std@@V?$allocator@U?$pair@$$CBKU_Friend@@@std@@@3@$0A@@std@@@2@PAU342@@Z
_TEXT	SEGMENT PARA USE32 PUBLIC 'CODE'
_TEXT	ENDS
;	COMDAT ?_Parent@?$_Tree@V?$_Tmap_traits@KU_Friend@@U?$less@K@std@@V?$allocator@U?$pair@$$CBKU_Friend@@@std@@@3@$0A@@std@@@std@@KAAAPAU_Node@?$_Tree_nod@V?$_Tmap_traits@KU_Friend@@U?$less@K@std@@V?$allocator@U?$pair@$$CBKU_Friend@@@std@@@3@$0A@@std@@@2@PAU342@@Z
_TEXT	SEGMENT PARA USE32 PUBLIC 'CODE'
_TEXT	ENDS
;	COMDAT ?_Right@?$_Tree@V?$_Tmap_traits@KU_Friend@@U?$less@K@std@@V?$allocator@U?$pair@$$CBKU_Friend@@@std@@@3@$0A@@std@@@std@@KAAAPAU_Node@?$_Tree_nod@V?$_Tmap_traits@KU_Friend@@U?$less@K@std@@V?$allocator@U?$pair@$$CBKU_Friend@@@std@@@3@$0A@@std@@@2@PAU342@@Z
_TEXT	SEGMENT PARA USE32 PUBLIC 'CODE'
_TEXT	ENDS
;	COMDAT ?_Erase@?$_Tree@V?$_Tmap_traits@KU_Friend@@U?$less@K@std@@V?$allocator@U?$pair@$$CBKU_Friend@@@std@@@3@$0A@@std@@@std@@IAEXPAU_Node@?$_Tree_nod@V?$_Tmap_traits@KU_Friend@@U?$less@K@std@@V?$allocator@U?$pair@$$CBKU_Friend@@@std@@@3@$0A@@std@@@2@@Z
_TEXT	SEGMENT PARA USE32 PUBLIC 'CODE'
_TEXT	ENDS
;	COMDAT ?_Lbound@?$_Tree@V?$_Tmap_traits@KU_Friend@@U?$less@K@std@@V?$allocator@U?$pair@$$CBKU_Friend@@@std@@@3@$0A@@std@@@std@@IBEPAU_Node@?$_Tree_nod@V?$_Tmap_traits@KU_Friend@@U?$less@K@std@@V?$allocator@U?$pair@$$CBKU_Friend@@@std@@@3@$0A@@std@@@2@ABK@Z
_TEXT	SEGMENT PARA USE32 PUBLIC 'CODE'
_TEXT	ENDS
;	COMDAT ?_Lmost@?$_Tree@V?$_Tmap_traits@KU_Friend@@U?$less@K@std@@V?$allocator@U?$pair@$$CBKU_Friend@@@std@@@3@$0A@@std@@@std@@IAEAAPAU_Node@?$_Tree_nod@V?$_Tmap_traits@KU_Friend@@U?$less@K@std@@V?$allocator@U?$pair@$$CBKU_Friend@@@std@@@3@$0A@@std@@@2@XZ
_TEXT	SEGMENT PARA USE32 PUBLIC 'CODE'
_TEXT	ENDS
;	COMDAT ?_Lrotate@?$_Tree@V?$_Tmap_traits@KU_Friend@@U?$less@K@std@@V?$allocator@U?$pair@$$CBKU_Friend@@@std@@@3@$0A@@std@@@std@@IAEXPAU_Node@?$_Tree_nod@V?$_Tmap_traits@KU_Friend@@U?$less@K@std@@V?$allocator@U?$pair@$$CBKU_Friend@@@std@@@3@$0A@@std@@@2@@Z
_TEXT	SEGMENT PARA USE32 PUBLIC 'CODE'
_TEXT	ENDS
;	COMDAT ?_Max@?$_Tree@V?$_Tmap_traits@KU_Friend@@U?$less@K@std@@V?$allocator@U?$pair@$$CBKU_Friend@@@std@@@3@$0A@@std@@@std@@KAPAU_Node@?$_Tree_nod@V?$_Tmap_traits@KU_Friend@@U?$less@K@std@@V?$allocator@U?$pair@$$CBKU_Friend@@@std@@@3@$0A@@std@@@2@PAU342@@Z
_TEXT	SEGMENT PARA USE32 PUBLIC 'CODE'
_TEXT	ENDS
;	COMDAT ?_Min@?$_Tree@V?$_Tmap_traits@KU_Friend@@U?$less@K@std@@V?$allocator@U?$pair@$$CBKU_Friend@@@std@@@3@$0A@@std@@@std@@KAPAU_Node@?$_Tree_nod@V?$_Tmap_traits@KU_Friend@@U?$less@K@std@@V?$allocator@U?$pair@$$CBKU_Friend@@@std@@@3@$0A@@std@@@2@PAU342@@Z
_TEXT	SEGMENT PARA USE32 PUBLIC 'CODE'
_TEXT	ENDS
;	COMDAT ?_Rmost@?$_Tree@V?$_Tmap_traits@KU_Friend@@U?$less@K@std@@V?$allocator@U?$pair@$$CBKU_Friend@@@std@@@3@$0A@@std@@@std@@IAEAAPAU_Node@?$_Tree_nod@V?$_Tmap_traits@KU_Friend@@U?$less@K@std@@V?$allocator@U?$pair@$$CBKU_Friend@@@std@@@3@$0A@@std@@@2@XZ
_TEXT	SEGMENT PARA USE32 PUBLIC 'CODE'
_TEXT	ENDS
;	COMDAT ?_Root@?$_Tree@V?$_Tmap_traits@KU_Friend@@U?$less@K@std@@V?$allocator@U?$pair@$$CBKU_Friend@@@std@@@3@$0A@@std@@@std@@IAEAAPAU_Node@?$_Tree_nod@V?$_Tmap_traits@KU_Friend@@U?$less@K@std@@V?$allocator@U?$pair@$$CBKU_Friend@@@std@@@3@$0A@@std@@@2@XZ
_TEXT	SEGMENT PARA USE32 PUBLIC 'CODE'
_TEXT	ENDS
;	COMDAT ?_Rrotate@?$_Tree@V?$_Tmap_traits@KU_Friend@@U?$less@K@std@@V?$allocator@U?$pair@$$CBKU_Friend@@@std@@@3@$0A@@std@@@std@@IAEXPAU_Node@?$_Tree_nod@V?$_Tmap_traits@KU_Friend@@U?$less@K@std@@V?$allocator@U?$pair@$$CBKU_Friend@@@std@@@3@$0A@@std@@@2@@Z
_TEXT	SEGMENT PARA USE32 PUBLIC 'CODE'
_TEXT	ENDS
;	COMDAT ?_Ubound@?$_Tree@V?$_Tmap_traits@KU_Friend@@U?$less@K@std@@V?$allocator@U?$pair@$$CBKU_Friend@@@std@@@3@$0A@@std@@@std@@IBEPAU_Node@?$_Tree_nod@V?$_Tmap_traits@KU_Friend@@U?$less@K@std@@V?$allocator@U?$pair@$$CBKU_Friend@@@std@@@3@$0A@@std@@@2@ABK@Z
_TEXT	SEGMENT PARA USE32 PUBLIC 'CODE'
_TEXT	ENDS
;	COMDAT ?deallocate@?$allocator@U_Node@?$_Tree_nod@V?$_Tmap_traits@KU_Friend@@U?$less@K@std@@V?$allocator@U?$pair@$$CBKU_Friend@@@std@@@3@$0A@@std@@@std@@@std@@QAEXPAU_Node@?$_Tree_nod@V?$_Tmap_traits@KU_Friend@@U?$less@K@std@@V?$allocator@U?$pair@$$CBKU_Friend@@@std@@@3@$0A@@std@@@2@I@Z
_TEXT	SEGMENT PARA USE32 PUBLIC 'CODE'
_TEXT	ENDS
;	COMDAT ?destroy@?$allocator@U_Node@?$_Tree_nod@V?$_Tmap_traits@KU_Friend@@U?$less@K@std@@V?$allocator@U?$pair@$$CBKU_Friend@@@std@@@3@$0A@@std@@@std@@@std@@QAEXPAU_Node@?$_Tree_nod@V?$_Tmap_traits@KU_Friend@@U?$less@K@std@@V?$allocator@U?$pair@$$CBKU_Friend@@@std@@@3@$0A@@std@@@2@@Z
_TEXT	SEGMENT PARA USE32 PUBLIC 'CODE'
_TEXT	ENDS
;	COMDAT ??0iterator@?$_Tree@V?$_Tmap_traits@KU_Friend@@U?$less@K@std@@V?$allocator@U?$pair@$$CBKU_Friend@@@std@@@3@$0A@@std@@@std@@QAE@PAU_Node@?$_Tree_nod@V?$_Tmap_traits@KU_Friend@@U?$less@K@std@@V?$allocator@U?$pair@$$CBKU_Friend@@@std@@@3@$0A@@std@@@2@@Z
_TEXT	SEGMENT PARA USE32 PUBLIC 'CODE'
_TEXT	ENDS
;	COMDAT ??Eiterator@?$_Tree@V?$_Tmap_traits@KU_Friend@@U?$less@K@std@@V?$allocator@U?$pair@$$CBKU_Friend@@@std@@@3@$0A@@std@@@std@@QAEAAV012@XZ
_TEXT	SEGMENT PARA USE32 PUBLIC 'CODE'
_TEXT	ENDS
;	COMDAT ?_Mynode@const_iterator@?$_Tree@V?$_Tmap_traits@KU_Friend@@U?$less@K@std@@V?$allocator@U?$pair@$$CBKU_Friend@@@std@@@3@$0A@@std@@@std@@QBEPAU_Node@?$_Tree_nod@V?$_Tmap_traits@KU_Friend@@U?$less@K@std@@V?$allocator@U?$pair@$$CBKU_Friend@@@std@@@3@$0A@@std@@@3@XZ
_TEXT	SEGMENT PARA USE32 PUBLIC 'CODE'
_TEXT	ENDS
;	COMDAT ?max_size@?$allocator@U__SECRETROOM_MONSTER@@@std@@QBEIXZ
_TEXT	SEGMENT PARA USE32 PUBLIC 'CODE'
_TEXT	ENDS
;	COMDAT ?max_size@?$vector@UMINIGMAME_PRIZE_LIST@CRainbowRaceMng@@V?$allocator@UMINIGMAME_PRIZE_LIST@CRainbowRaceMng@@@std@@@std@@QBEIXZ
_TEXT	SEGMENT PARA USE32 PUBLIC 'CODE'
_TEXT	ENDS
;	COMDAT ?_Destroy@?$vector@UMINIGMAME_PRIZE_LIST@CRainbowRaceMng@@V?$allocator@UMINIGMAME_PRIZE_LIST@CRainbowRaceMng@@@std@@@std@@IAEXPAUMINIGMAME_PRIZE_LIST@CRainbowRaceMng@@0@Z
_TEXT	SEGMENT PARA USE32 PUBLIC 'CODE'
_TEXT	ENDS
;	COMDAT ?_Xlen@?$vector@UMINIGMAME_PRIZE_LIST@CRainbowRaceMng@@V?$allocator@UMINIGMAME_PRIZE_LIST@CRainbowRaceMng@@@std@@@std@@IBEXXZ
_TEXT	SEGMENT PARA USE32 PUBLIC 'CODE'
_TEXT	ENDS
;	COMDAT ?deallocate@?$allocator@UMINIGMAME_PRIZE_LIST@CRainbowRaceMng@@@std@@QAEXPAUMINIGMAME_PRIZE_LIST@CRainbowRaceMng@@I@Z
_TEXT	SEGMENT PARA USE32 PUBLIC 'CODE'
_TEXT	ENDS
;	COMDAT ?allocate@?$allocator@UMINIGMAME_PRIZE_LIST@CRainbowRaceMng@@@std@@QAEPAUMINIGMAME_PRIZE_LIST@CRainbowRaceMng@@I@Z
_TEXT	SEGMENT PARA USE32 PUBLIC 'CODE'
_TEXT	ENDS
;	COMDAT ?max_size@?$allocator@U?$pair@$$CBKPAVCGuildHouseBase@@@std@@@std@@QBEIXZ
_TEXT	SEGMENT PARA USE32 PUBLIC 'CODE'
_TEXT	ENDS
;	COMDAT ?deallocate@?$allocator@U_Node@?$_Tree_nod@V?$_Tmap_traits@KPAVCGuildHouseBase@@U?$less@K@std@@V?$allocator@U?$pair@$$CBKPAVCGuildHouseBase@@@std@@@3@$0A@@std@@@std@@@std@@QAEXPAU_Node@?$_Tree_nod@V?$_Tmap_traits@KPAVCGuildHouseBase@@U?$less@K@std@@V?$allocator@U?$pair@$$CBKPAVCGuildHouseBase@@@std@@@3@$0A@@std@@@2@I@Z
_TEXT	SEGMENT PARA USE32 PUBLIC 'CODE'
_TEXT	ENDS
;	COMDAT ?allocate@?$allocator@U_Node@?$_Tree_nod@V?$_Tmap_traits@KPAVCGuildHouseBase@@U?$less@K@std@@V?$allocator@U?$pair@$$CBKPAVCGuildHouseBase@@@std@@@3@$0A@@std@@@std@@@std@@QAEPAU_Node@?$_Tree_nod@V?$_Tmap_traits@KPAVCGuildHouseBase@@U?$less@K@std@@V?$allocator@U?$pair@$$CBKPAVCGuildHouseBase@@@std@@@3@$0A@@std@@@2@I@Z
_TEXT	SEGMENT PARA USE32 PUBLIC 'CODE'
_TEXT	ENDS
;	COMDAT ?_Dec@const_iterator@?$_Tree@V?$_Tmap_traits@KPAVCGuildHouseBase@@U?$less@K@std@@V?$allocator@U?$pair@$$CBKPAVCGuildHouseBase@@@std@@@3@$0A@@std@@@std@@QAEXXZ
_TEXT	SEGMENT PARA USE32 PUBLIC 'CODE'
_TEXT	ENDS
;	COMDAT ?_Color@?$_Tree@V?$_Tmap_traits@KKU?$less@K@std@@V?$allocator@U?$pair@$$CBKK@std@@@2@$0A@@std@@@std@@KAAADPAU_Node@?$_Tree_nod@V?$_Tmap_traits@KKU?$less@K@std@@V?$allocator@U?$pair@$$CBKK@std@@@2@$0A@@std@@@2@@Z
_TEXT	SEGMENT PARA USE32 PUBLIC 'CODE'
_TEXT	ENDS
;	COMDAT ?_Isnil@?$_Tree@V?$_Tmap_traits@KKU?$less@K@std@@V?$allocator@U?$pair@$$CBKK@std@@@2@$0A@@std@@@std@@KAAADPAU_Node@?$_Tree_nod@V?$_Tmap_traits@KKU?$less@K@std@@V?$allocator@U?$pair@$$CBKK@std@@@2@$0A@@std@@@2@@Z
_TEXT	SEGMENT PARA USE32 PUBLIC 'CODE'
_TEXT	ENDS
;	COMDAT ?_Left@?$_Tree@V?$_Tmap_traits@KKU?$less@K@std@@V?$allocator@U?$pair@$$CBKK@std@@@2@$0A@@std@@@std@@KAAAPAU_Node@?$_Tree_nod@V?$_Tmap_traits@KKU?$less@K@std@@V?$allocator@U?$pair@$$CBKK@std@@@2@$0A@@std@@@2@PAU342@@Z
_TEXT	SEGMENT PARA USE32 PUBLIC 'CODE'
_TEXT	ENDS
;	COMDAT ?_Parent@?$_Tree@V?$_Tmap_traits@KKU?$less@K@std@@V?$allocator@U?$pair@$$CBKK@std@@@2@$0A@@std@@@std@@KAAAPAU_Node@?$_Tree_nod@V?$_Tmap_traits@KKU?$less@K@std@@V?$allocator@U?$pair@$$CBKK@std@@@2@$0A@@std@@@2@PAU342@@Z
_TEXT	SEGMENT PARA USE32 PUBLIC 'CODE'
_TEXT	ENDS
;	COMDAT ?_Right@?$_Tree@V?$_Tmap_traits@KKU?$less@K@std@@V?$allocator@U?$pair@$$CBKK@std@@@2@$0A@@std@@@std@@KAAAPAU_Node@?$_Tree_nod@V?$_Tmap_traits@KKU?$less@K@std@@V?$allocator@U?$pair@$$CBKK@std@@@2@$0A@@std@@@2@PAU342@@Z
_TEXT	SEGMENT PARA USE32 PUBLIC 'CODE'
_TEXT	ENDS
;	COMDAT ?_Erase@?$_Tree@V?$_Tmap_traits@KKU?$less@K@std@@V?$allocator@U?$pair@$$CBKK@std@@@2@$0A@@std@@@std@@IAEXPAU_Node@?$_Tree_nod@V?$_Tmap_traits@KKU?$less@K@std@@V?$allocator@U?$pair@$$CBKK@std@@@2@$0A@@std@@@2@@Z
_TEXT	SEGMENT PARA USE32 PUBLIC 'CODE'
_TEXT	ENDS
;	COMDAT ?_Lbound@?$_Tree@V?$_Tmap_traits@KKU?$less@K@std@@V?$allocator@U?$pair@$$CBKK@std@@@2@$0A@@std@@@std@@IBEPAU_Node@?$_Tree_nod@V?$_Tmap_traits@KKU?$less@K@std@@V?$allocator@U?$pair@$$CBKK@std@@@2@$0A@@std@@@2@ABK@Z
_TEXT	SEGMENT PARA USE32 PUBLIC 'CODE'
_TEXT	ENDS
;	COMDAT ?_Lmost@?$_Tree@V?$_Tmap_traits@KKU?$less@K@std@@V?$allocator@U?$pair@$$CBKK@std@@@2@$0A@@std@@@std@@IAEAAPAU_Node@?$_Tree_nod@V?$_Tmap_traits@KKU?$less@K@std@@V?$allocator@U?$pair@$$CBKK@std@@@2@$0A@@std@@@2@XZ
_TEXT	SEGMENT PARA USE32 PUBLIC 'CODE'
_TEXT	ENDS
;	COMDAT ?_Lrotate@?$_Tree@V?$_Tmap_traits@KKU?$less@K@std@@V?$allocator@U?$pair@$$CBKK@std@@@2@$0A@@std@@@std@@IAEXPAU_Node@?$_Tree_nod@V?$_Tmap_traits@KKU?$less@K@std@@V?$allocator@U?$pair@$$CBKK@std@@@2@$0A@@std@@@2@@Z
_TEXT	SEGMENT PARA USE32 PUBLIC 'CODE'
_TEXT	ENDS
;	COMDAT ?_Max@?$_Tree@V?$_Tmap_traits@KKU?$less@K@std@@V?$allocator@U?$pair@$$CBKK@std@@@2@$0A@@std@@@std@@KAPAU_Node@?$_Tree_nod@V?$_Tmap_traits@KKU?$less@K@std@@V?$allocator@U?$pair@$$CBKK@std@@@2@$0A@@std@@@2@PAU342@@Z
_TEXT	SEGMENT PARA USE32 PUBLIC 'CODE'
_TEXT	ENDS
;	COMDAT ?_Min@?$_Tree@V?$_Tmap_traits@KKU?$less@K@std@@V?$allocator@U?$pair@$$CBKK@std@@@2@$0A@@std@@@std@@KAPAU_Node@?$_Tree_nod@V?$_Tmap_traits@KKU?$less@K@std@@V?$allocator@U?$pair@$$CBKK@std@@@2@$0A@@std@@@2@PAU342@@Z
_TEXT	SEGMENT PARA USE32 PUBLIC 'CODE'
_TEXT	ENDS
;	COMDAT ?_Rmost@?$_Tree@V?$_Tmap_traits@KKU?$less@K@std@@V?$allocator@U?$pair@$$CBKK@std@@@2@$0A@@std@@@std@@IAEAAPAU_Node@?$_Tree_nod@V?$_Tmap_traits@KKU?$less@K@std@@V?$allocator@U?$pair@$$CBKK@std@@@2@$0A@@std@@@2@XZ
_TEXT	SEGMENT PARA USE32 PUBLIC 'CODE'
_TEXT	ENDS
;	COMDAT ?_Root@?$_Tree@V?$_Tmap_traits@KKU?$less@K@std@@V?$allocator@U?$pair@$$CBKK@std@@@2@$0A@@std@@@std@@IAEAAPAU_Node@?$_Tree_nod@V?$_Tmap_traits@KKU?$less@K@std@@V?$allocator@U?$pair@$$CBKK@std@@@2@$0A@@std@@@2@XZ
_TEXT	SEGMENT PARA USE32 PUBLIC 'CODE'
_TEXT	ENDS
;	COMDAT ?_Rrotate@?$_Tree@V?$_Tmap_traits@KKU?$less@K@std@@V?$allocator@U?$pair@$$CBKK@std@@@2@$0A@@std@@@std@@IAEXPAU_Node@?$_Tree_nod@V?$_Tmap_traits@KKU?$less@K@std@@V?$allocator@U?$pair@$$CBKK@std@@@2@$0A@@std@@@2@@Z
_TEXT	SEGMENT PARA USE32 PUBLIC 'CODE'
_TEXT	ENDS
;	COMDAT ?_Ubound@?$_Tree@V?$_Tmap_traits@KKU?$less@K@std@@V?$allocator@U?$pair@$$CBKK@std@@@2@$0A@@std@@@std@@IBEPAU_Node@?$_Tree_nod@V?$_Tmap_traits@KKU?$less@K@std@@V?$allocator@U?$pair@$$CBKK@std@@@2@$0A@@std@@@2@ABK@Z
_TEXT	SEGMENT PARA USE32 PUBLIC 'CODE'
_TEXT	ENDS
;	COMDAT ?deallocate@?$allocator@U_Node@?$_Tree_nod@V?$_Tmap_traits@KKU?$less@K@std@@V?$allocator@U?$pair@$$CBKK@std@@@2@$0A@@std@@@std@@@std@@QAEXPAU_Node@?$_Tree_nod@V?$_Tmap_traits@KKU?$less@K@std@@V?$allocator@U?$pair@$$CBKK@std@@@2@$0A@@std@@@2@I@Z
_TEXT	SEGMENT PARA USE32 PUBLIC 'CODE'
_TEXT	ENDS
;	COMDAT ?destroy@?$allocator@U_Node@?$_Tree_nod@V?$_Tmap_traits@KKU?$less@K@std@@V?$allocator@U?$pair@$$CBKK@std@@@2@$0A@@std@@@std@@@std@@QAEXPAU_Node@?$_Tree_nod@V?$_Tmap_traits@KKU?$less@K@std@@V?$allocator@U?$pair@$$CBKK@std@@@2@$0A@@std@@@2@@Z
_TEXT	SEGMENT PARA USE32 PUBLIC 'CODE'
_TEXT	ENDS
;	COMDAT ??0iterator@?$_Tree@V?$_Tmap_traits@KKU?$less@K@std@@V?$allocator@U?$pair@$$CBKK@std@@@2@$0A@@std@@@std@@QAE@PAU_Node@?$_Tree_nod@V?$_Tmap_traits@KKU?$less@K@std@@V?$allocator@U?$pair@$$CBKK@std@@@2@$0A@@std@@@2@@Z
_TEXT	SEGMENT PARA USE32 PUBLIC 'CODE'
_TEXT	ENDS
;	COMDAT ??Eiterator@?$_Tree@V?$_Tmap_traits@KKU?$less@K@std@@V?$allocator@U?$pair@$$CBKK@std@@@2@$0A@@std@@@std@@QAEAAV012@XZ
_TEXT	SEGMENT PARA USE32 PUBLIC 'CODE'
_TEXT	ENDS
;	COMDAT ?_Mynode@const_iterator@?$_Tree@V?$_Tmap_traits@KKU?$less@K@std@@V?$allocator@U?$pair@$$CBKK@std@@@2@$0A@@std@@@std@@QBEPAU_Node@?$_Tree_nod@V?$_Tmap_traits@KKU?$less@K@std@@V?$allocator@U?$pair@$$CBKK@std@@@2@$0A@@std@@@3@XZ
_TEXT	SEGMENT PARA USE32 PUBLIC 'CODE'
_TEXT	ENDS
;	COMDAT ?_Isnil@?$_Tree@V?$_Tmap_traits@KPAVCClientSock@@U?$less@K@std@@V?$allocator@U?$pair@$$CBKPAVCClientSock@@@std@@@3@$0A@@std@@@std@@KAAADPAU_Node@?$_Tree_nod@V?$_Tmap_traits@KPAVCClientSock@@U?$less@K@std@@V?$allocator@U?$pair@$$CBKPAVCClientSock@@@std@@@3@$0A@@std@@@2@@Z
_TEXT	SEGMENT PARA USE32 PUBLIC 'CODE'
_TEXT	ENDS
;	COMDAT ?erase@?$_Tree@V?$_Tmap_traits@KPAVCClientSock@@U?$less@K@std@@V?$allocator@U?$pair@$$CBKPAVCClientSock@@@std@@@3@$0A@@std@@@std@@QAE?AViterator@12@V312@@Z
_TEXT	SEGMENT PARA USE32 PUBLIC 'CODE'
_TEXT	ENDS
;	COMDAT ?clear@?$_Tree@V?$_Tmap_traits@KPAVCClientSock@@U?$less@K@std@@V?$allocator@U?$pair@$$CBKPAVCClientSock@@@std@@@3@$0A@@std@@@std@@QAEXXZ
_TEXT	SEGMENT PARA USE32 PUBLIC 'CODE'
_TEXT	ENDS
;	COMDAT ?_Lmost@?$_Tree@V?$_Tmap_traits@KPAVCClientSock@@U?$less@K@std@@V?$allocator@U?$pair@$$CBKPAVCClientSock@@@std@@@3@$0A@@std@@@std@@IAEAAPAU_Node@?$_Tree_nod@V?$_Tmap_traits@KPAVCClientSock@@U?$less@K@std@@V?$allocator@U?$pair@$$CBKPAVCClientSock@@@std@@@3@$0A@@std@@@2@XZ
_TEXT	SEGMENT PARA USE32 PUBLIC 'CODE'
_TEXT	ENDS
;	COMDAT ?_Rmost@?$_Tree@V?$_Tmap_traits@KPAVCClientSock@@U?$less@K@std@@V?$allocator@U?$pair@$$CBKPAVCClientSock@@@std@@@3@$0A@@std@@@std@@IAEAAPAU_Node@?$_Tree_nod@V?$_Tmap_traits@KPAVCClientSock@@U?$less@K@std@@V?$allocator@U?$pair@$$CBKPAVCClientSock@@@std@@@3@$0A@@std@@@2@XZ
_TEXT	SEGMENT PARA USE32 PUBLIC 'CODE'
_TEXT	ENDS
;	COMDAT ?_Root@?$_Tree@V?$_Tmap_traits@KPAVCClientSock@@U?$less@K@std@@V?$allocator@U?$pair@$$CBKPAVCClientSock@@@std@@@3@$0A@@std@@@std@@IAEAAPAU_Node@?$_Tree_nod@V?$_Tmap_traits@KPAVCClientSock@@U?$less@K@std@@V?$allocator@U?$pair@$$CBKPAVCClientSock@@@std@@@3@$0A@@std@@@2@XZ
_TEXT	SEGMENT PARA USE32 PUBLIC 'CODE'
_TEXT	ENDS
;	COMDAT ?_Root@?$_Tree@V?$_Tmap_traits@KPAVCClientSock@@U?$less@K@std@@V?$allocator@U?$pair@$$CBKPAVCClientSock@@@std@@@3@$0A@@std@@@std@@IBEAAPAU_Node@?$_Tree_nod@V?$_Tmap_traits@KPAVCClientSock@@U?$less@K@std@@V?$allocator@U?$pair@$$CBKPAVCClientSock@@@std@@@3@$0A@@std@@@2@XZ
_TEXT	SEGMENT PARA USE32 PUBLIC 'CODE'
_TEXT	ENDS
;	COMDAT ?_Buynode@?$_Tree@V?$_Tmap_traits@KPAVCClientSock@@U?$less@K@std@@V?$allocator@U?$pair@$$CBKPAVCClientSock@@@std@@@3@$0A@@std@@@std@@IAEPAU_Node@?$_Tree_nod@V?$_Tmap_traits@KPAVCClientSock@@U?$less@K@std@@V?$allocator@U?$pair@$$CBKPAVCClientSock@@@std@@@3@$0A@@std@@@2@XZ
_TEXT	SEGMENT PARA USE32 PUBLIC 'CODE'
_TEXT	ENDS
;	COMDAT ??0?$_Tree_ptr@V?$_Tmap_traits@KPAVCClientSock@@U?$less@K@std@@V?$allocator@U?$pair@$$CBKPAVCClientSock@@@std@@@3@$0A@@std@@@std@@IAE@ABU?$less@K@1@V?$allocator@U?$pair@$$CBKPAVCClientSock@@@std@@@1@@Z
_TEXT	SEGMENT PARA USE32 PUBLIC 'CODE'
_TEXT	ENDS
;	COMDAT ??Eiterator@?$_Tree@V?$_Tmap_traits@KPAVCClientSock@@U?$less@K@std@@V?$allocator@U?$pair@$$CBKPAVCClientSock@@@std@@@3@$0A@@std@@@std@@QAE?AV012@H@Z
_TEXT	SEGMENT PARA USE32 PUBLIC 'CODE'
_TEXT	ENDS
;	COMDAT ?_Isnil@?$_Tree@V?$_Tmap_traits@KPAVCClientSockE@@U?$less@K@std@@V?$allocator@U?$pair@$$CBKPAVCClientSockE@@@std@@@3@$0A@@std@@@std@@KAAADPAU_Node@?$_Tree_nod@V?$_Tmap_traits@KPAVCClientSockE@@U?$less@K@std@@V?$allocator@U?$pair@$$CBKPAVCClientSockE@@@std@@@3@$0A@@std@@@2@@Z
_TEXT	SEGMENT PARA USE32 PUBLIC 'CODE'
_TEXT	ENDS
;	COMDAT ?erase@?$_Tree@V?$_Tmap_traits@KPAVCClientSockE@@U?$less@K@std@@V?$allocator@U?$pair@$$CBKPAVCClientSockE@@@std@@@3@$0A@@std@@@std@@QAE?AViterator@12@V312@@Z
_TEXT	SEGMENT PARA USE32 PUBLIC 'CODE'
_TEXT	ENDS
;	COMDAT ?clear@?$_Tree@V?$_Tmap_traits@KPAVCClientSockE@@U?$less@K@std@@V?$allocator@U?$pair@$$CBKPAVCClientSockE@@@std@@@3@$0A@@std@@@std@@QAEXXZ
_TEXT	SEGMENT PARA USE32 PUBLIC 'CODE'
_TEXT	ENDS
;	COMDAT ?_Lmost@?$_Tree@V?$_Tmap_traits@KPAVCClientSockE@@U?$less@K@std@@V?$allocator@U?$pair@$$CBKPAVCClientSockE@@@std@@@3@$0A@@std@@@std@@IAEAAPAU_Node@?$_Tree_nod@V?$_Tmap_traits@KPAVCClientSockE@@U?$less@K@std@@V?$allocator@U?$pair@$$CBKPAVCClientSockE@@@std@@@3@$0A@@std@@@2@XZ
_TEXT	SEGMENT PARA USE32 PUBLIC 'CODE'
_TEXT	ENDS
;	COMDAT ?_Rmost@?$_Tree@V?$_Tmap_traits@KPAVCClientSockE@@U?$less@K@std@@V?$allocator@U?$pair@$$CBKPAVCClientSockE@@@std@@@3@$0A@@std@@@std@@IAEAAPAU_Node@?$_Tree_nod@V?$_Tmap_traits@KPAVCClientSockE@@U?$less@K@std@@V?$allocator@U?$pair@$$CBKPAVCClientSockE@@@std@@@3@$0A@@std@@@2@XZ
_TEXT	SEGMENT PARA USE32 PUBLIC 'CODE'
_TEXT	ENDS
;	COMDAT ?_Root@?$_Tree@V?$_Tmap_traits@KPAVCClientSockE@@U?$less@K@std@@V?$allocator@U?$pair@$$CBKPAVCClientSockE@@@std@@@3@$0A@@std@@@std@@IAEAAPAU_Node@?$_Tree_nod@V?$_Tmap_traits@KPAVCClientSockE@@U?$less@K@std@@V?$allocator@U?$pair@$$CBKPAVCClientSockE@@@std@@@3@$0A@@std@@@2@XZ
_TEXT	SEGMENT PARA USE32 PUBLIC 'CODE'
_TEXT	ENDS
;	COMDAT ?_Root@?$_Tree@V?$_Tmap_traits@KPAVCClientSockE@@U?$less@K@std@@V?$allocator@U?$pair@$$CBKPAVCClientSockE@@@std@@@3@$0A@@std@@@std@@IBEAAPAU_Node@?$_Tree_nod@V?$_Tmap_traits@KPAVCClientSockE@@U?$less@K@std@@V?$allocator@U?$pair@$$CBKPAVCClientSockE@@@std@@@3@$0A@@std@@@2@XZ
_TEXT	SEGMENT PARA USE32 PUBLIC 'CODE'
_TEXT	ENDS
;	COMDAT ?_Buynode@?$_Tree@V?$_Tmap_traits@KPAVCClientSockE@@U?$less@K@std@@V?$allocator@U?$pair@$$CBKPAVCClientSockE@@@std@@@3@$0A@@std@@@std@@IAEPAU_Node@?$_Tree_nod@V?$_Tmap_traits@KPAVCClientSockE@@U?$less@K@std@@V?$allocator@U?$pair@$$CBKPAVCClientSockE@@@std@@@3@$0A@@std@@@2@XZ
_TEXT	SEGMENT PARA USE32 PUBLIC 'CODE'
_TEXT	ENDS
;	COMDAT ??0?$_Tree_ptr@V?$_Tmap_traits@KPAVCClientSockE@@U?$less@K@std@@V?$allocator@U?$pair@$$CBKPAVCClientSockE@@@std@@@3@$0A@@std@@@std@@IAE@ABU?$less@K@1@V?$allocator@U?$pair@$$CBKPAVCClientSockE@@@std@@@1@@Z
_TEXT	SEGMENT PARA USE32 PUBLIC 'CODE'
_TEXT	ENDS
;	COMDAT ??Eiterator@?$_Tree@V?$_Tmap_traits@KPAVCClientSockE@@U?$less@K@std@@V?$allocator@U?$pair@$$CBKPAVCClientSockE@@@std@@@3@$0A@@std@@@std@@QAE?AV012@H@Z
_TEXT	SEGMENT PARA USE32 PUBLIC 'CODE'
_TEXT	ENDS
;	COMDAT ?_Isnil@?$_Tree@V?$_Tmap_traits@KP8CDPCoreClient@@AEXAAVCAr@@KKK@ZU?$less@K@std@@V?$allocator@U?$pair@$$CBKP8CDPCoreClient@@AEXAAVCAr@@KKK@Z@std@@@4@$0A@@std@@@std@@KAAADPAU_Node@?$_Tree_nod@V?$_Tmap_traits@KP8CDPCoreClient@@AEXAAVCAr@@KKK@ZU?$less@K@std@@V?$allocator@U?$pair@$$CBKP8CDPCoreClient@@AEXAAVCAr@@KKK@Z@std@@@4@$0A@@std@@@2@@Z
_TEXT	SEGMENT PARA USE32 PUBLIC 'CODE'
_TEXT	ENDS
;	COMDAT ?_Left@?$_Tree@V?$_Tmap_traits@KP8CDPCoreClient@@AEXAAVCAr@@KKK@ZU?$less@K@std@@V?$allocator@U?$pair@$$CBKP8CDPCoreClient@@AEXAAVCAr@@KKK@Z@std@@@4@$0A@@std@@@std@@KAAAPAU_Node@?$_Tree_nod@V?$_Tmap_traits@KP8CDPCoreClient@@AEXAAVCAr@@KKK@ZU?$less@K@std@@V?$allocator@U?$pair@$$CBKP8CDPCoreClient@@AEXAAVCAr@@KKK@Z@std@@@4@$0A@@std@@@2@PAU342@@Z
_TEXT	SEGMENT PARA USE32 PUBLIC 'CODE'
_TEXT	ENDS
;	COMDAT ?_Right@?$_Tree@V?$_Tmap_traits@KP8CDPCoreClient@@AEXAAVCAr@@KKK@ZU?$less@K@std@@V?$allocator@U?$pair@$$CBKP8CDPCoreClient@@AEXAAVCAr@@KKK@Z@std@@@4@$0A@@std@@@std@@KAAAPAU_Node@?$_Tree_nod@V?$_Tmap_traits@KP8CDPCoreClient@@AEXAAVCAr@@KKK@ZU?$less@K@std@@V?$allocator@U?$pair@$$CBKP8CDPCoreClient@@AEXAAVCAr@@KKK@Z@std@@@4@$0A@@std@@@2@PAU342@@Z
_TEXT	SEGMENT PARA USE32 PUBLIC 'CODE'
_TEXT	ENDS
;	COMDAT ?_Root@?$_Tree@V?$_Tmap_traits@KP8CDPCoreClient@@AEXAAVCAr@@KKK@ZU?$less@K@std@@V?$allocator@U?$pair@$$CBKP8CDPCoreClient@@AEXAAVCAr@@KKK@Z@std@@@4@$0A@@std@@@std@@IBEAAPAU_Node@?$_Tree_nod@V?$_Tmap_traits@KP8CDPCoreClient@@AEXAAVCAr@@KKK@ZU?$less@K@std@@V?$allocator@U?$pair@$$CBKP8CDPCoreClient@@AEXAAVCAr@@KKK@Z@std@@@4@$0A@@std@@@2@XZ
_TEXT	SEGMENT PARA USE32 PUBLIC 'CODE'
_TEXT	ENDS
;	COMDAT ?_Isnil@?$_Tree@V?$_Tmap_traits@KP8CDPDatabaseClient@@AEXAAVCAr@@KK@ZU?$less@K@std@@V?$allocator@U?$pair@$$CBKP8CDPDatabaseClient@@AEXAAVCAr@@KK@Z@std@@@4@$0A@@std@@@std@@KAAADPAU_Node@?$_Tree_nod@V?$_Tmap_traits@KP8CDPDatabaseClient@@AEXAAVCAr@@KK@ZU?$less@K@std@@V?$allocator@U?$pair@$$CBKP8CDPDatabaseClient@@AEXAAVCAr@@KK@Z@std@@@4@$0A@@std@@@2@@Z
_TEXT	SEGMENT PARA USE32 PUBLIC 'CODE'
_TEXT	ENDS
;	COMDAT ?_Left@?$_Tree@V?$_Tmap_traits@KP8CDPDatabaseClient@@AEXAAVCAr@@KK@ZU?$less@K@std@@V?$allocator@U?$pair@$$CBKP8CDPDatabaseClient@@AEXAAVCAr@@KK@Z@std@@@4@$0A@@std@@@std@@KAAAPAU_Node@?$_Tree_nod@V?$_Tmap_traits@KP8CDPDatabaseClient@@AEXAAVCAr@@KK@ZU?$less@K@std@@V?$allocator@U?$pair@$$CBKP8CDPDatabaseClient@@AEXAAVCAr@@KK@Z@std@@@4@$0A@@std@@@2@PAU342@@Z
_TEXT	SEGMENT PARA USE32 PUBLIC 'CODE'
_TEXT	ENDS
;	COMDAT ?_Right@?$_Tree@V?$_Tmap_traits@KP8CDPDatabaseClient@@AEXAAVCAr@@KK@ZU?$less@K@std@@V?$allocator@U?$pair@$$CBKP8CDPDatabaseClient@@AEXAAVCAr@@KK@Z@std@@@4@$0A@@std@@@std@@KAAAPAU_Node@?$_Tree_nod@V?$_Tmap_traits@KP8CDPDatabaseClient@@AEXAAVCAr@@KK@ZU?$less@K@std@@V?$allocator@U?$pair@$$CBKP8CDPDatabaseClient@@AEXAAVCAr@@KK@Z@std@@@4@$0A@@std@@@2@PAU342@@Z
_TEXT	SEGMENT PARA USE32 PUBLIC 'CODE'
_TEXT	ENDS
;	COMDAT ?_Root@?$_Tree@V?$_Tmap_traits@KP8CDPDatabaseClient@@AEXAAVCAr@@KK@ZU?$less@K@std@@V?$allocator@U?$pair@$$CBKP8CDPDatabaseClient@@AEXAAVCAr@@KK@Z@std@@@4@$0A@@std@@@std@@IBEAAPAU_Node@?$_Tree_nod@V?$_Tmap_traits@KP8CDPDatabaseClient@@AEXAAVCAr@@KK@ZU?$less@K@std@@V?$allocator@U?$pair@$$CBKP8CDPDatabaseClient@@AEXAAVCAr@@KK@Z@std@@@4@$0A@@std@@@2@XZ
_TEXT	SEGMENT PARA USE32 PUBLIC 'CODE'
_TEXT	ENDS
;	COMDAT ??0const_iterator@?$vector@PAU__JOINPLAYER@CGuildCombat@@V?$allocator@PAU__JOINPLAYER@CGuildCombat@@@std@@@std@@QAE@PAPAU__JOINPLAYER@CGuildCombat@@@Z
_TEXT	SEGMENT PARA USE32 PUBLIC 'CODE'
_TEXT	ENDS
;	COMDAT ??0const_iterator@?$vector@V?$basic_string@DU?$char_traits@D@std@@V?$allocator@D@2@@std@@V?$allocator@V?$basic_string@DU?$char_traits@D@std@@V?$allocator@D@2@@std@@@2@@std@@QAE@PAV?$basic_string@DU?$char_traits@D@std@@V?$allocator@D@2@@2@@Z
_TEXT	SEGMENT PARA USE32 PUBLIC 'CODE'
_TEXT	ENDS
;	COMDAT ??Gconst_iterator@?$vector@V?$basic_string@DU?$char_traits@D@std@@V?$allocator@D@2@@std@@V?$allocator@V?$basic_string@DU?$char_traits@D@std@@V?$allocator@D@2@@std@@@2@@std@@QBEHABV012@@Z
_TEXT	SEGMENT PARA USE32 PUBLIC 'CODE'
_TEXT	ENDS
;	COMDAT ??Yiterator@?$vector@UMINIGMAME_PRIZE_LIST@CRainbowRaceMng@@V?$allocator@UMINIGMAME_PRIZE_LIST@CRainbowRaceMng@@@std@@@std@@QAEAAV012@H@Z
_TEXT	SEGMENT PARA USE32 PUBLIC 'CODE'
_TEXT	ENDS
;	COMDAT ??0const_iterator@?$vector@UMINIGMAME_PRIZE_LIST@CRainbowRaceMng@@V?$allocator@UMINIGMAME_PRIZE_LIST@CRainbowRaceMng@@@std@@@std@@QAE@PAUMINIGMAME_PRIZE_LIST@CRainbowRaceMng@@@Z
_TEXT	SEGMENT PARA USE32 PUBLIC 'CODE'
_TEXT	ENDS
;	COMDAT ??Gconst_iterator@?$vector@UMINIGMAME_PRIZE_LIST@CRainbowRaceMng@@V?$allocator@UMINIGMAME_PRIZE_LIST@CRainbowRaceMng@@@std@@@std@@QBEHABV012@@Z
_TEXT	SEGMENT PARA USE32 PUBLIC 'CODE'
_TEXT	ENDS
;	COMDAT ??0const_iterator@?$vector@PAVCMiniGameBase@@V?$allocator@PAVCMiniGameBase@@@std@@@std@@QAE@PAPAVCMiniGameBase@@@Z
_TEXT	SEGMENT PARA USE32 PUBLIC 'CODE'
_TEXT	ENDS
;	COMDAT ??0const_iterator@?$vector@UGuildHouse_Furniture_Info@CGuildHouseBase@@V?$allocator@UGuildHouse_Furniture_Info@CGuildHouseBase@@@std@@@std@@QAE@PAUGuildHouse_Furniture_Info@CGuildHouseBase@@@Z
_TEXT	SEGMENT PARA USE32 PUBLIC 'CODE'
_TEXT	ENDS
;	COMDAT ??0_Node@?$_Tree_nod@V?$_Tmap_traits@KPAVCGuildHouseBase@@U?$less@K@std@@V?$allocator@U?$pair@$$CBKPAVCGuildHouseBase@@@std@@@3@$0A@@std@@@std@@QAE@PAU012@00ABU?$pair@$$CBKPAVCGuildHouseBase@@@2@D@Z
_TEXT	SEGMENT PARA USE32 PUBLIC 'CODE'
_TEXT	ENDS
;	COMDAT ??0?$_Tree_nod@V?$_Tmap_traits@KHU?$less@K@std@@V?$allocator@U?$pair@$$CBKH@std@@@2@$0A@@std@@@std@@IAE@ABU?$less@K@1@V?$allocator@U?$pair@$$CBKH@std@@@1@@Z
_TEXT	SEGMENT PARA USE32 PUBLIC 'CODE'
_TEXT	ENDS
;	COMDAT ?allocate@?$allocator@U_Node@?$_Tree_nod@V?$_Tmap_traits@KHU?$less@K@std@@V?$allocator@U?$pair@$$CBKH@std@@@2@$0A@@std@@@std@@@std@@QAEPAU_Node@?$_Tree_nod@V?$_Tmap_traits@KHU?$less@K@std@@V?$allocator@U?$pair@$$CBKH@std@@@2@$0A@@std@@@2@I@Z
_TEXT	SEGMENT PARA USE32 PUBLIC 'CODE'
_TEXT	ENDS
;	COMDAT ?construct@?$allocator@PAU_Node@?$_Tree_nod@V?$_Tmap_traits@KHU?$less@K@std@@V?$allocator@U?$pair@$$CBKH@std@@@2@$0A@@std@@@std@@@std@@QAEXPAPAU_Node@?$_Tree_nod@V?$_Tmap_traits@KHU?$less@K@std@@V?$allocator@U?$pair@$$CBKH@std@@@2@$0A@@std@@@2@ABQAU342@@Z
_TEXT	SEGMENT PARA USE32 PUBLIC 'CODE'
_TEXT	ENDS
;	COMDAT ?_Key@?$_Tree@V?$_Tmap_traits@KU_Friend@@U?$less@K@std@@V?$allocator@U?$pair@$$CBKU_Friend@@@std@@@3@$0A@@std@@@std@@KAABKPAU_Node@?$_Tree_nod@V?$_Tmap_traits@KU_Friend@@U?$less@K@std@@V?$allocator@U?$pair@$$CBKU_Friend@@@std@@@3@$0A@@std@@@2@@Z
_TEXT	SEGMENT PARA USE32 PUBLIC 'CODE'
_TEXT	ENDS
;	COMDAT ?_Root@?$_Tree@V?$_Tmap_traits@KU_Friend@@U?$less@K@std@@V?$allocator@U?$pair@$$CBKU_Friend@@@std@@@3@$0A@@std@@@std@@IBEAAPAU_Node@?$_Tree_nod@V?$_Tmap_traits@KU_Friend@@U?$less@K@std@@V?$allocator@U?$pair@$$CBKU_Friend@@@std@@@3@$0A@@std@@@2@XZ
_TEXT	SEGMENT PARA USE32 PUBLIC 'CODE'
_TEXT	ENDS
;	COMDAT ??0const_iterator@?$_Tree@V?$_Tmap_traits@KU_Friend@@U?$less@K@std@@V?$allocator@U?$pair@$$CBKU_Friend@@@std@@@3@$0A@@std@@@std@@QAE@PAU_Node@?$_Tree_nod@V?$_Tmap_traits@KU_Friend@@U?$less@K@std@@V?$allocator@U?$pair@$$CBKU_Friend@@@std@@@3@$0A@@std@@@2@@Z
_TEXT	SEGMENT PARA USE32 PUBLIC 'CODE'
_TEXT	ENDS
;	COMDAT ??Econst_iterator@?$_Tree@V?$_Tmap_traits@KU_Friend@@U?$less@K@std@@V?$allocator@U?$pair@$$CBKU_Friend@@@std@@@3@$0A@@std@@@std@@QAEAAV012@XZ
_TEXT	SEGMENT PARA USE32 PUBLIC 'CODE'
_TEXT	ENDS
;	COMDAT ?max_size@?$allocator@UMINIGMAME_PRIZE_LIST@CRainbowRaceMng@@@std@@QBEIXZ
_TEXT	SEGMENT PARA USE32 PUBLIC 'CODE'
_TEXT	ENDS
;	COMDAT ?_Max@?$_Tree@V?$_Tmap_traits@KPAVCGuildHouseBase@@U?$less@K@std@@V?$allocator@U?$pair@$$CBKPAVCGuildHouseBase@@@std@@@3@$0A@@std@@@std@@KAPAU_Node@?$_Tree_nod@V?$_Tmap_traits@KPAVCGuildHouseBase@@U?$less@K@std@@V?$allocator@U?$pair@$$CBKPAVCGuildHouseBase@@@std@@@3@$0A@@std@@@2@PAU342@@Z
_TEXT	SEGMENT PARA USE32 PUBLIC 'CODE'
_TEXT	ENDS
;	COMDAT ?_Key@?$_Tree@V?$_Tmap_traits@KKU?$less@K@std@@V?$allocator@U?$pair@$$CBKK@std@@@2@$0A@@std@@@std@@KAABKPAU_Node@?$_Tree_nod@V?$_Tmap_traits@KKU?$less@K@std@@V?$allocator@U?$pair@$$CBKK@std@@@2@$0A@@std@@@2@@Z
_TEXT	SEGMENT PARA USE32 PUBLIC 'CODE'
_TEXT	ENDS
;	COMDAT ?_Root@?$_Tree@V?$_Tmap_traits@KKU?$less@K@std@@V?$allocator@U?$pair@$$CBKK@std@@@2@$0A@@std@@@std@@IBEAAPAU_Node@?$_Tree_nod@V?$_Tmap_traits@KKU?$less@K@std@@V?$allocator@U?$pair@$$CBKK@std@@@2@$0A@@std@@@2@XZ
_TEXT	SEGMENT PARA USE32 PUBLIC 'CODE'
_TEXT	ENDS
;	COMDAT ??0const_iterator@?$_Tree@V?$_Tmap_traits@KKU?$less@K@std@@V?$allocator@U?$pair@$$CBKK@std@@@2@$0A@@std@@@std@@QAE@PAU_Node@?$_Tree_nod@V?$_Tmap_traits@KKU?$less@K@std@@V?$allocator@U?$pair@$$CBKK@std@@@2@$0A@@std@@@2@@Z
_TEXT	SEGMENT PARA USE32 PUBLIC 'CODE'
_TEXT	ENDS
;	COMDAT ??Econst_iterator@?$_Tree@V?$_Tmap_traits@KKU?$less@K@std@@V?$allocator@U?$pair@$$CBKK@std@@@2@$0A@@std@@@std@@QAEAAV012@XZ
_TEXT	SEGMENT PARA USE32 PUBLIC 'CODE'
_TEXT	ENDS
;	COMDAT ?_Color@?$_Tree@V?$_Tmap_traits@KPAVCClientSock@@U?$less@K@std@@V?$allocator@U?$pair@$$CBKPAVCClientSock@@@std@@@3@$0A@@std@@@std@@KAAADPAU_Node@?$_Tree_nod@V?$_Tmap_traits@KPAVCClientSock@@U?$less@K@std@@V?$allocator@U?$pair@$$CBKPAVCClientSock@@@std@@@3@$0A@@std@@@2@@Z
_TEXT	SEGMENT PARA USE32 PUBLIC 'CODE'
_TEXT	ENDS
;	COMDAT ?_Erase@?$_Tree@V?$_Tmap_traits@KPAVCClientSock@@U?$less@K@std@@V?$allocator@U?$pair@$$CBKPAVCClientSock@@@std@@@3@$0A@@std@@@std@@IAEXPAU_Node@?$_Tree_nod@V?$_Tmap_traits@KPAVCClientSock@@U?$less@K@std@@V?$allocator@U?$pair@$$CBKPAVCClientSock@@@std@@@3@$0A@@std@@@2@@Z
_TEXT	SEGMENT PARA USE32 PUBLIC 'CODE'
_TEXT	ENDS
;	COMDAT ?_Lrotate@?$_Tree@V?$_Tmap_traits@KPAVCClientSock@@U?$less@K@std@@V?$allocator@U?$pair@$$CBKPAVCClientSock@@@std@@@3@$0A@@std@@@std@@IAEXPAU_Node@?$_Tree_nod@V?$_Tmap_traits@KPAVCClientSock@@U?$less@K@std@@V?$allocator@U?$pair@$$CBKPAVCClientSock@@@std@@@3@$0A@@std@@@2@@Z
_TEXT	SEGMENT PARA USE32 PUBLIC 'CODE'
_TEXT	ENDS
;	COMDAT ?_Max@?$_Tree@V?$_Tmap_traits@KPAVCClientSock@@U?$less@K@std@@V?$allocator@U?$pair@$$CBKPAVCClientSock@@@std@@@3@$0A@@std@@@std@@KAPAU_Node@?$_Tree_nod@V?$_Tmap_traits@KPAVCClientSock@@U?$less@K@std@@V?$allocator@U?$pair@$$CBKPAVCClientSock@@@std@@@3@$0A@@std@@@2@PAU342@@Z
_TEXT	SEGMENT PARA USE32 PUBLIC 'CODE'
_TEXT	ENDS
;	COMDAT ?_Min@?$_Tree@V?$_Tmap_traits@KPAVCClientSock@@U?$less@K@std@@V?$allocator@U?$pair@$$CBKPAVCClientSock@@@std@@@3@$0A@@std@@@std@@KAPAU_Node@?$_Tree_nod@V?$_Tmap_traits@KPAVCClientSock@@U?$less@K@std@@V?$allocator@U?$pair@$$CBKPAVCClientSock@@@std@@@3@$0A@@std@@@2@PAU342@@Z
_TEXT	SEGMENT PARA USE32 PUBLIC 'CODE'
_TEXT	ENDS
;	COMDAT ?_Rrotate@?$_Tree@V?$_Tmap_traits@KPAVCClientSock@@U?$less@K@std@@V?$allocator@U?$pair@$$CBKPAVCClientSock@@@std@@@3@$0A@@std@@@std@@IAEXPAU_Node@?$_Tree_nod@V?$_Tmap_traits@KPAVCClientSock@@U?$less@K@std@@V?$allocator@U?$pair@$$CBKPAVCClientSock@@@std@@@3@$0A@@std@@@2@@Z
_TEXT	SEGMENT PARA USE32 PUBLIC 'CODE'
_TEXT	ENDS
;	COMDAT ??0?$_Tree_nod@V?$_Tmap_traits@KPAVCClientSock@@U?$less@K@std@@V?$allocator@U?$pair@$$CBKPAVCClientSock@@@std@@@3@$0A@@std@@@std@@IAE@ABU?$less@K@1@V?$allocator@U?$pair@$$CBKPAVCClientSock@@@std@@@1@@Z
_TEXT	SEGMENT PARA USE32 PUBLIC 'CODE'
_TEXT	ENDS
;	COMDAT ?allocate@?$allocator@U_Node@?$_Tree_nod@V?$_Tmap_traits@KPAVCClientSock@@U?$less@K@std@@V?$allocator@U?$pair@$$CBKPAVCClientSock@@@std@@@3@$0A@@std@@@std@@@std@@QAEPAU_Node@?$_Tree_nod@V?$_Tmap_traits@KPAVCClientSock@@U?$less@K@std@@V?$allocator@U?$pair@$$CBKPAVCClientSock@@@std@@@3@$0A@@std@@@2@I@Z
_TEXT	SEGMENT PARA USE32 PUBLIC 'CODE'
_TEXT	ENDS
;	COMDAT ?destroy@?$allocator@U_Node@?$_Tree_nod@V?$_Tmap_traits@KPAVCClientSock@@U?$less@K@std@@V?$allocator@U?$pair@$$CBKPAVCClientSock@@@std@@@3@$0A@@std@@@std@@@std@@QAEXPAU_Node@?$_Tree_nod@V?$_Tmap_traits@KPAVCClientSock@@U?$less@K@std@@V?$allocator@U?$pair@$$CBKPAVCClientSock@@@std@@@3@$0A@@std@@@2@@Z
_TEXT	SEGMENT PARA USE32 PUBLIC 'CODE'
_TEXT	ENDS
;	COMDAT ?construct@?$allocator@PAU_Node@?$_Tree_nod@V?$_Tmap_traits@KPAVCClientSock@@U?$less@K@std@@V?$allocator@U?$pair@$$CBKPAVCClientSock@@@std@@@3@$0A@@std@@@std@@@std@@QAEXPAPAU_Node@?$_Tree_nod@V?$_Tmap_traits@KPAVCClientSock@@U?$less@K@std@@V?$allocator@U?$pair@$$CBKPAVCClientSock@@@std@@@3@$0A@@std@@@2@ABQAU342@@Z
_TEXT	SEGMENT PARA USE32 PUBLIC 'CODE'
_TEXT	ENDS
;	COMDAT ??Eiterator@?$_Tree@V?$_Tmap_traits@KPAVCClientSock@@U?$less@K@std@@V?$allocator@U?$pair@$$CBKPAVCClientSock@@@std@@@3@$0A@@std@@@std@@QAEAAV012@XZ
_TEXT	SEGMENT PARA USE32 PUBLIC 'CODE'
_TEXT	ENDS
;	COMDAT ?_Color@?$_Tree@V?$_Tmap_traits@KPAVCClientSockE@@U?$less@K@std@@V?$allocator@U?$pair@$$CBKPAVCClientSockE@@@std@@@3@$0A@@std@@@std@@KAAADPAU_Node@?$_Tree_nod@V?$_Tmap_traits@KPAVCClientSockE@@U?$less@K@std@@V?$allocator@U?$pair@$$CBKPAVCClientSockE@@@std@@@3@$0A@@std@@@2@@Z
_TEXT	SEGMENT PARA USE32 PUBLIC 'CODE'
_TEXT	ENDS
;	COMDAT ?_Erase@?$_Tree@V?$_Tmap_traits@KPAVCClientSockE@@U?$less@K@std@@V?$allocator@U?$pair@$$CBKPAVCClientSockE@@@std@@@3@$0A@@std@@@std@@IAEXPAU_Node@?$_Tree_nod@V?$_Tmap_traits@KPAVCClientSockE@@U?$less@K@std@@V?$allocator@U?$pair@$$CBKPAVCClientSockE@@@std@@@3@$0A@@std@@@2@@Z
_TEXT	SEGMENT PARA USE32 PUBLIC 'CODE'
_TEXT	ENDS
;	COMDAT ?_Lrotate@?$_Tree@V?$_Tmap_traits@KPAVCClientSockE@@U?$less@K@std@@V?$allocator@U?$pair@$$CBKPAVCClientSockE@@@std@@@3@$0A@@std@@@std@@IAEXPAU_Node@?$_Tree_nod@V?$_Tmap_traits@KPAVCClientSockE@@U?$less@K@std@@V?$allocator@U?$pair@$$CBKPAVCClientSockE@@@std@@@3@$0A@@std@@@2@@Z
_TEXT	SEGMENT PARA USE32 PUBLIC 'CODE'
_TEXT	ENDS
;	COMDAT ?_Max@?$_Tree@V?$_Tmap_traits@KPAVCClientSockE@@U?$less@K@std@@V?$allocator@U?$pair@$$CBKPAVCClientSockE@@@std@@@3@$0A@@std@@@std@@KAPAU_Node@?$_Tree_nod@V?$_Tmap_traits@KPAVCClientSockE@@U?$less@K@std@@V?$allocator@U?$pair@$$CBKPAVCClientSockE@@@std@@@3@$0A@@std@@@2@PAU342@@Z
_TEXT	SEGMENT PARA USE32 PUBLIC 'CODE'
_TEXT	ENDS
;	COMDAT ?_Min@?$_Tree@V?$_Tmap_traits@KPAVCClientSockE@@U?$less@K@std@@V?$allocator@U?$pair@$$CBKPAVCClientSockE@@@std@@@3@$0A@@std@@@std@@KAPAU_Node@?$_Tree_nod@V?$_Tmap_traits@KPAVCClientSockE@@U?$less@K@std@@V?$allocator@U?$pair@$$CBKPAVCClientSockE@@@std@@@3@$0A@@std@@@2@PAU342@@Z
_TEXT	SEGMENT PARA USE32 PUBLIC 'CODE'
_TEXT	ENDS
;	COMDAT ?_Rrotate@?$_Tree@V?$_Tmap_traits@KPAVCClientSockE@@U?$less@K@std@@V?$allocator@U?$pair@$$CBKPAVCClientSockE@@@std@@@3@$0A@@std@@@std@@IAEXPAU_Node@?$_Tree_nod@V?$_Tmap_traits@KPAVCClientSockE@@U?$less@K@std@@V?$allocator@U?$pair@$$CBKPAVCClientSockE@@@std@@@3@$0A@@std@@@2@@Z
_TEXT	SEGMENT PARA USE32 PUBLIC 'CODE'
_TEXT	ENDS
;	COMDAT ??0?$_Tree_nod@V?$_Tmap_traits@KPAVCClientSockE@@U?$less@K@std@@V?$allocator@U?$pair@$$CBKPAVCClientSockE@@@std@@@3@$0A@@std@@@std@@IAE@ABU?$less@K@1@V?$allocator@U?$pair@$$CBKPAVCClientSockE@@@std@@@1@@Z
_TEXT	SEGMENT PARA USE32 PUBLIC 'CODE'
_TEXT	ENDS
;	COMDAT ?allocate@?$allocator@U_Node@?$_Tree_nod@V?$_Tmap_traits@KPAVCClientSockE@@U?$less@K@std@@V?$allocator@U?$pair@$$CBKPAVCClientSockE@@@std@@@3@$0A@@std@@@std@@@std@@QAEPAU_Node@?$_Tree_nod@V?$_Tmap_traits@KPAVCClientSockE@@U?$less@K@std@@V?$allocator@U?$pair@$$CBKPAVCClientSockE@@@std@@@3@$0A@@std@@@2@I@Z
_TEXT	SEGMENT PARA USE32 PUBLIC 'CODE'
_TEXT	ENDS
;	COMDAT ?destroy@?$allocator@U_Node@?$_Tree_nod@V?$_Tmap_traits@KPAVCClientSockE@@U?$less@K@std@@V?$allocator@U?$pair@$$CBKPAVCClientSockE@@@std@@@3@$0A@@std@@@std@@@std@@QAEXPAU_Node@?$_Tree_nod@V?$_Tmap_traits@KPAVCClientSockE@@U?$less@K@std@@V?$allocator@U?$pair@$$CBKPAVCClientSockE@@@std@@@3@$0A@@std@@@2@@Z
_TEXT	SEGMENT PARA USE32 PUBLIC 'CODE'
_TEXT	ENDS
;	COMDAT ?construct@?$allocator@PAU_Node@?$_Tree_nod@V?$_Tmap_traits@KPAVCClientSockE@@U?$less@K@std@@V?$allocator@U?$pair@$$CBKPAVCClientSockE@@@std@@@3@$0A@@std@@@std@@@std@@QAEXPAPAU_Node@?$_Tree_nod@V?$_Tmap_traits@KPAVCClientSockE@@U?$less@K@std@@V?$allocator@U?$pair@$$CBKPAVCClientSockE@@@std@@@3@$0A@@std@@@2@ABQAU342@@Z
_TEXT	SEGMENT PARA USE32 PUBLIC 'CODE'
_TEXT	ENDS
;	COMDAT ??Eiterator@?$_Tree@V?$_Tmap_traits@KPAVCClientSockE@@U?$less@K@std@@V?$allocator@U?$pair@$$CBKPAVCClientSockE@@@std@@@3@$0A@@std@@@std@@QAEAAV012@XZ
_TEXT	SEGMENT PARA USE32 PUBLIC 'CODE'
_TEXT	ENDS
;	COMDAT ?_Parent@?$_Tree@V?$_Tmap_traits@KP8CDPCoreClient@@AEXAAVCAr@@KKK@ZU?$less@K@std@@V?$allocator@U?$pair@$$CBKP8CDPCoreClient@@AEXAAVCAr@@KKK@Z@std@@@4@$0A@@std@@@std@@KAAAPAU_Node@?$_Tree_nod@V?$_Tmap_traits@KP8CDPCoreClient@@AEXAAVCAr@@KKK@ZU?$less@K@std@@V?$allocator@U?$pair@$$CBKP8CDPCoreClient@@AEXAAVCAr@@KKK@Z@std@@@4@$0A@@std@@@2@PAU342@@Z
_TEXT	SEGMENT PARA USE32 PUBLIC 'CODE'
_TEXT	ENDS
;	COMDAT ?_Parent@?$_Tree@V?$_Tmap_traits@KP8CDPDatabaseClient@@AEXAAVCAr@@KK@ZU?$less@K@std@@V?$allocator@U?$pair@$$CBKP8CDPDatabaseClient@@AEXAAVCAr@@KK@Z@std@@@4@$0A@@std@@@std@@KAAAPAU_Node@?$_Tree_nod@V?$_Tmap_traits@KP8CDPDatabaseClient@@AEXAAVCAr@@KK@ZU?$less@K@std@@V?$allocator@U?$pair@$$CBKP8CDPDatabaseClient@@AEXAAVCAr@@KK@Z@std@@@4@$0A@@std@@@2@PAU342@@Z
_TEXT	SEGMENT PARA USE32 PUBLIC 'CODE'
_TEXT	ENDS
;	COMDAT ??0?$_Tmap_traits@KHU?$less@K@std@@V?$allocator@U?$pair@$$CBKH@std@@@2@$0A@@std@@QAE@U?$less@K@1@@Z
_TEXT	SEGMENT PARA USE32 PUBLIC 'CODE'
_TEXT	ENDS
;	COMDAT ?_Myval@?$_Tree@V?$_Tmap_traits@KU_Friend@@U?$less@K@std@@V?$allocator@U?$pair@$$CBKU_Friend@@@std@@@3@$0A@@std@@@std@@KAAAU?$pair@$$CBKU_Friend@@@2@PAU_Node@?$_Tree_nod@V?$_Tmap_traits@KU_Friend@@U?$less@K@std@@V?$allocator@U?$pair@$$CBKU_Friend@@@std@@@3@$0A@@std@@@2@@Z
_TEXT	SEGMENT PARA USE32 PUBLIC 'CODE'
_TEXT	ENDS
;	COMDAT ?_Kfn@?$_Tmap_traits@KU_Friend@@U?$less@K@std@@V?$allocator@U?$pair@$$CBKU_Friend@@@std@@@3@$0A@@std@@SAABKABU?$pair@$$CBKU_Friend@@@2@@Z
_TEXT	SEGMENT PARA USE32 PUBLIC 'CODE'
_TEXT	ENDS
;	COMDAT ?_Inc@const_iterator@?$_Tree@V?$_Tmap_traits@KU_Friend@@U?$less@K@std@@V?$allocator@U?$pair@$$CBKU_Friend@@@std@@@3@$0A@@std@@@std@@QAEXXZ
_TEXT	SEGMENT PARA USE32 PUBLIC 'CODE'
_TEXT	ENDS
;	COMDAT ?_Myval@?$_Tree@V?$_Tmap_traits@KKU?$less@K@std@@V?$allocator@U?$pair@$$CBKK@std@@@2@$0A@@std@@@std@@KAAAU?$pair@$$CBKK@2@PAU_Node@?$_Tree_nod@V?$_Tmap_traits@KKU?$less@K@std@@V?$allocator@U?$pair@$$CBKK@std@@@2@$0A@@std@@@2@@Z
_TEXT	SEGMENT PARA USE32 PUBLIC 'CODE'
_TEXT	ENDS
;	COMDAT ?_Kfn@?$_Tmap_traits@KKU?$less@K@std@@V?$allocator@U?$pair@$$CBKK@std@@@2@$0A@@std@@SAABKABU?$pair@$$CBKK@2@@Z
_TEXT	SEGMENT PARA USE32 PUBLIC 'CODE'
_TEXT	ENDS
;	COMDAT ?_Inc@const_iterator@?$_Tree@V?$_Tmap_traits@KKU?$less@K@std@@V?$allocator@U?$pair@$$CBKK@std@@@2@$0A@@std@@@std@@QAEXXZ
_TEXT	SEGMENT PARA USE32 PUBLIC 'CODE'
_TEXT	ENDS
;	COMDAT ??0?$_Tmap_traits@KPAVCClientSock@@U?$less@K@std@@V?$allocator@U?$pair@$$CBKPAVCClientSock@@@std@@@3@$0A@@std@@QAE@U?$less@K@1@@Z
_TEXT	SEGMENT PARA USE32 PUBLIC 'CODE'
_TEXT	ENDS
;	COMDAT ??Econst_iterator@?$_Tree@V?$_Tmap_traits@KPAVCClientSock@@U?$less@K@std@@V?$allocator@U?$pair@$$CBKPAVCClientSock@@@std@@@3@$0A@@std@@@std@@QAEAAV012@XZ
_TEXT	SEGMENT PARA USE32 PUBLIC 'CODE'
_TEXT	ENDS
;	COMDAT ??0?$_Tmap_traits@KPAVCClientSockE@@U?$less@K@std@@V?$allocator@U?$pair@$$CBKPAVCClientSockE@@@std@@@3@$0A@@std@@QAE@U?$less@K@1@@Z
_TEXT	SEGMENT PARA USE32 PUBLIC 'CODE'
_TEXT	ENDS
;	COMDAT ??Econst_iterator@?$_Tree@V?$_Tmap_traits@KPAVCClientSockE@@U?$less@K@std@@V?$allocator@U?$pair@$$CBKPAVCClientSockE@@@std@@@3@$0A@@std@@@std@@QAEAAV012@XZ
_TEXT	SEGMENT PARA USE32 PUBLIC 'CODE'
_TEXT	ENDS
;	COMDAT ?_Inc@const_iterator@?$_Tree@V?$_Tmap_traits@KPAVCClientSock@@U?$less@K@std@@V?$allocator@U?$pair@$$CBKPAVCClientSock@@@std@@@3@$0A@@std@@@std@@QAEXXZ
_TEXT	SEGMENT PARA USE32 PUBLIC 'CODE'
_TEXT	ENDS
;	COMDAT ?_Inc@const_iterator@?$_Tree@V?$_Tmap_traits@KPAVCClientSockE@@U?$less@K@std@@V?$allocator@U?$pair@$$CBKPAVCClientSockE@@@std@@@3@$0A@@std@@@std@@QAEXXZ
_TEXT	SEGMENT PARA USE32 PUBLIC 'CODE'
_TEXT	ENDS
;	COMDAT ??$_Iter_cat@Vconst_iterator@?$vector@EV?$allocator@E@std@@@std@@@std@@YA?AUrandom_access_iterator_tag@0@ABVconst_iterator@?$vector@EV?$allocator@E@std@@@0@@Z
_TEXT	SEGMENT PARA USE32 PUBLIC 'CODE'
_TEXT	ENDS
;	COMDAT ??$_Assign@Vconst_iterator@?$vector@EV?$allocator@E@std@@@std@@@?$vector@EV?$allocator@E@std@@@std@@QAEXVconst_iterator@01@0Uinput_iterator_tag@1@@Z
_TEXT	SEGMENT PARA USE32 PUBLIC 'CODE'
_TEXT	ENDS
;	COMDAT ??$_Iter_cat@Viterator@?$_Tree@V?$_Tmap_traits@KPAVCUser@@U?$less@K@std@@V?$allocator@U?$pair@$$CBKPAVCUser@@@std@@@3@$0A@@std@@@std@@@std@@YA?AUbidirectional_iterator_tag@0@ABViterator@?$_Tree@V?$_Tmap_traits@KPAVCUser@@U?$less@K@std@@V?$allocator@U?$pair@$$CBKPAVCUser@@@std@@@3@$0A@@std@@@0@@Z
_TEXT	SEGMENT PARA USE32 PUBLIC 'CODE'
_TEXT	ENDS
;	COMDAT ??$_Distance2@Viterator@?$_Tree@V?$_Tmap_traits@KPAVCUser@@U?$less@K@std@@V?$allocator@U?$pair@$$CBKPAVCUser@@@std@@@3@$0A@@std@@@std@@I@std@@YAXViterator@?$_Tree@V?$_Tmap_traits@KPAVCUser@@U?$less@K@std@@V?$allocator@U?$pair@$$CBKPAVCUser@@@std@@@3@$0A@@std@@@0@0AAIUbidirectional_iterator_tag@0@@Z
_TEXT	SEGMENT PARA USE32 PUBLIC 'CODE'
_TEXT	ENDS
;	COMDAT ??$_Iter_cat@Viterator@?$_Tree@V?$_Tmap_traits@KPAVCCtrl@@U?$less@K@std@@V?$allocator@U?$pair@$$CBKPAVCCtrl@@@std@@@3@$0A@@std@@@std@@@std@@YA?AUbidirectional_iterator_tag@0@ABViterator@?$_Tree@V?$_Tmap_traits@KPAVCCtrl@@U?$less@K@std@@V?$allocator@U?$pair@$$CBKPAVCCtrl@@@std@@@3@$0A@@std@@@0@@Z
_TEXT	SEGMENT PARA USE32 PUBLIC 'CODE'
_TEXT	ENDS
;	COMDAT ??$_Distance2@Viterator@?$_Tree@V?$_Tmap_traits@KPAVCCtrl@@U?$less@K@std@@V?$allocator@U?$pair@$$CBKPAVCCtrl@@@std@@@3@$0A@@std@@@std@@I@std@@YAXViterator@?$_Tree@V?$_Tmap_traits@KPAVCCtrl@@U?$less@K@std@@V?$allocator@U?$pair@$$CBKPAVCCtrl@@@std@@@3@$0A@@std@@@0@0AAIUbidirectional_iterator_tag@0@@Z
_TEXT	SEGMENT PARA USE32 PUBLIC 'CODE'
_TEXT	ENDS
;	COMDAT ??$_Uninitialized_copy@Vconst_iterator@?$vector@EV?$allocator@E@std@@@std@@PAEV?$allocator@E@3@@std@@YAPAEVconst_iterator@?$vector@EV?$allocator@E@std@@@0@0PAEAAV?$allocator@E@0@@Z
_TEXT	SEGMENT PARA USE32 PUBLIC 'CODE'
_TEXT	ENDS
;	COMDAT ??$_Iter_cat@Viterator@?$_Tree@V?$_Tmap_traits@KEU?$less@K@std@@V?$allocator@U?$pair@$$CBKE@std@@@2@$0A@@std@@@std@@@std@@YA?AUbidirectional_iterator_tag@0@ABViterator@?$_Tree@V?$_Tmap_traits@KEU?$less@K@std@@V?$allocator@U?$pair@$$CBKE@std@@@2@$0A@@std@@@0@@Z
_TEXT	SEGMENT PARA USE32 PUBLIC 'CODE'
_TEXT	ENDS
;	COMDAT ??$_Distance2@Viterator@?$_Tree@V?$_Tmap_traits@KEU?$less@K@std@@V?$allocator@U?$pair@$$CBKE@std@@@2@$0A@@std@@@std@@I@std@@YAXViterator@?$_Tree@V?$_Tmap_traits@KEU?$less@K@std@@V?$allocator@U?$pair@$$CBKE@std@@@2@$0A@@std@@@0@0AAIUbidirectional_iterator_tag@0@@Z
_TEXT	SEGMENT PARA USE32 PUBLIC 'CODE'
_TEXT	ENDS
;	COMDAT ??$_Ptr_cat@PAU__SPAWNREGION@CEventLua@@PAU12@@std@@YA?AU_Nonscalar_ptr_iterator_tag@0@AAPAU__SPAWNREGION@CEventLua@@0@Z
_TEXT	SEGMENT PARA USE32 PUBLIC 'CODE'
_TEXT	ENDS
;	COMDAT ??$_Uninit_fill_n@PAU__SPAWNREGION@CEventLua@@IU12@V?$allocator@U__SPAWNREGION@CEventLua@@@std@@@std@@YAXPAU__SPAWNREGION@CEventLua@@IABU12@AAV?$allocator@U__SPAWNREGION@CEventLua@@@0@U_Nonscalar_ptr_iterator_tag@0@@Z
_TEXT	SEGMENT PARA USE32 PUBLIC 'CODE'
_TEXT	ENDS
;	COMDAT ??$_Copy_opt@PAJPAJ@std@@YAPAJPAJ00U_Scalar_ptr_iterator_tag@0@@Z
_TEXT	SEGMENT PARA USE32 PUBLIC 'CODE'
_TEXT	ENDS
;	COMDAT ??$_Uninitialized_copy@PAJPAJV?$allocator@J@std@@@std@@YAPAJPAJ00AAV?$allocator@J@0@@Z
_TEXT	SEGMENT PARA USE32 PUBLIC 'CODE'
_TEXT	ENDS
;	COMDAT ??$_Copy_backward_opt@PAJPAJ@std@@YAPAJPAJ00U_Scalar_ptr_iterator_tag@0@@Z
_TEXT	SEGMENT PARA USE32 PUBLIC 'CODE'
_TEXT	ENDS
;	COMDAT ??$_Ptr_cat@PAUtagDROPITEM@@PAU1@@std@@YA?AU_Nonscalar_ptr_iterator_tag@0@AAPAUtagDROPITEM@@0@Z
_TEXT	SEGMENT PARA USE32 PUBLIC 'CODE'
_TEXT	ENDS
;	COMDAT ??$_Destroy_range@UtagDROPITEM@@V?$allocator@UtagDROPITEM@@@std@@@std@@YAXPAUtagDROPITEM@@0AAV?$allocator@UtagDROPITEM@@@0@U_Nonscalar_ptr_iterator_tag@0@@Z
_TEXT	SEGMENT PARA USE32 PUBLIC 'CODE'
_TEXT	ENDS
;	COMDAT ??$_Ptr_cat@PAUWORMON@@PAU1@@std@@YA?AU_Nonscalar_ptr_iterator_tag@0@AAPAUWORMON@@0@Z
_TEXT	SEGMENT PARA USE32 PUBLIC 'CODE'
_TEXT	ENDS
;	COMDAT ??$_Destroy_range@UWORMON@@V?$allocator@UWORMON@@@std@@@std@@YAXPAUWORMON@@0AAV?$allocator@UWORMON@@@0@U_Nonscalar_ptr_iterator_tag@0@@Z
_TEXT	SEGMENT PARA USE32 PUBLIC 'CODE'
_TEXT	ENDS
;	COMDAT ??$_Ptr_cat@PAU__ITEMGAME@CMiniGame@@PAU12@@std@@YA?AU_Nonscalar_ptr_iterator_tag@0@AAPAU__ITEMGAME@CMiniGame@@0@Z
_TEXT	SEGMENT PARA USE32 PUBLIC 'CODE'
_TEXT	ENDS
;	COMDAT ??$_Destroy_range@U__ITEMGAME@CMiniGame@@V?$allocator@U__ITEMGAME@CMiniGame@@@std@@@std@@YAXPAU__ITEMGAME@CMiniGame@@0AAV?$allocator@U__ITEMGAME@CMiniGame@@@0@U_Nonscalar_ptr_iterator_tag@0@@Z
_TEXT	SEGMENT PARA USE32 PUBLIC 'CODE'
_TEXT	ENDS
;	COMDAT ??$_Destroy_range@KV?$allocator@K@std@@@std@@YAXPAK0AAV?$allocator@K@0@U_Scalar_ptr_iterator_tag@0@@Z
_TEXT	SEGMENT PARA USE32 PUBLIC 'CODE'
_TEXT	ENDS
;	COMDAT ??$_Destroy_range@HV?$allocator@H@std@@@std@@YAXPAH0AAV?$allocator@H@0@U_Scalar_ptr_iterator_tag@0@@Z
_TEXT	SEGMENT PARA USE32 PUBLIC 'CODE'
_TEXT	ENDS
;	COMDAT ??$_Ptr_cat@PAU__ITEM@CExchange@@PAU12@@std@@YA?AU_Nonscalar_ptr_iterator_tag@0@AAPAU__ITEM@CExchange@@0@Z
_TEXT	SEGMENT PARA USE32 PUBLIC 'CODE'
_TEXT	ENDS
;	COMDAT ??$_Destroy_range@U__ITEM@CExchange@@V?$allocator@U__ITEM@CExchange@@@std@@@std@@YAXPAU__ITEM@CExchange@@0AAV?$allocator@U__ITEM@CExchange@@@0@U_Nonscalar_ptr_iterator_tag@0@@Z
_TEXT	SEGMENT PARA USE32 PUBLIC 'CODE'
_TEXT	ENDS
;	COMDAT ??$_Ptr_cat@PAU__POINT@CExchange@@PAU12@@std@@YA?AU_Nonscalar_ptr_iterator_tag@0@AAPAU__POINT@CExchange@@0@Z
_TEXT	SEGMENT PARA USE32 PUBLIC 'CODE'
_TEXT	ENDS
;	COMDAT ??$_Destroy_range@U__POINT@CExchange@@V?$allocator@U__POINT@CExchange@@@std@@@std@@YAXPAU__POINT@CExchange@@0AAV?$allocator@U__POINT@CExchange@@@0@U_Nonscalar_ptr_iterator_tag@0@@Z
_TEXT	SEGMENT PARA USE32 PUBLIC 'CODE'
_TEXT	ENDS
;	COMDAT ??$_Destroy_range@EV?$allocator@E@std@@@std@@YAXPAE0AAV?$allocator@E@0@U_Scalar_ptr_iterator_tag@0@@Z
_TEXT	SEGMENT PARA USE32 PUBLIC 'CODE'
_TEXT	ENDS
;	COMDAT ??$_Uninitialized_copy@PAU__SPAWNREGION@CEventLua@@PAU12@V?$allocator@U__SPAWNREGION@CEventLua@@@std@@@std@@YAPAU__SPAWNREGION@CEventLua@@PAU12@00AAV?$allocator@U__SPAWNREGION@CEventLua@@@0@@Z
_TEXT	SEGMENT PARA USE32 PUBLIC 'CODE'
_TEXT	ENDS
;	COMDAT ??$_Copy_backward_opt@PAU__SPAWNREGION@CEventLua@@PAU12@@std@@YAPAU__SPAWNREGION@CEventLua@@PAU12@00U_Nonscalar_ptr_iterator_tag@0@@Z
_TEXT	SEGMENT PARA USE32 PUBLIC 'CODE'
_TEXT	ENDS
;	COMDAT ??$_Ptr_cat@PAUD3DXVECTOR3@@PAU1@@std@@YA?AU_Nonscalar_ptr_iterator_tag@0@AAPAUD3DXVECTOR3@@0@Z
_TEXT	SEGMENT PARA USE32 PUBLIC 'CODE'
_TEXT	ENDS
;	COMDAT ??$_Destroy_range@UD3DXVECTOR3@@V?$allocator@UD3DXVECTOR3@@@std@@@std@@YAXPAUD3DXVECTOR3@@0AAV?$allocator@UD3DXVECTOR3@@@0@U_Nonscalar_ptr_iterator_tag@0@@Z
_TEXT	SEGMENT PARA USE32 PUBLIC 'CODE'
_TEXT	ENDS
;	COMDAT ??$_Ptr_cat@PAU_GIFTBOX@@PAU1@@std@@YA?AU_Nonscalar_ptr_iterator_tag@0@AAPAU_GIFTBOX@@0@Z
_TEXT	SEGMENT PARA USE32 PUBLIC 'CODE'
_TEXT	ENDS
;	COMDAT ??$_Destroy_range@U_GIFTBOX@@V?$allocator@U_GIFTBOX@@@std@@@std@@YAXPAU_GIFTBOX@@0AAV?$allocator@U_GIFTBOX@@@0@U_Nonscalar_ptr_iterator_tag@0@@Z
_TEXT	SEGMENT PARA USE32 PUBLIC 'CODE'
_TEXT	ENDS
;	COMDAT ??$_Destroy_range@JV?$allocator@J@std@@@std@@YAXPAJ0AAV?$allocator@J@0@U_Scalar_ptr_iterator_tag@0@@Z
_TEXT	SEGMENT PARA USE32 PUBLIC 'CODE'
_TEXT	ENDS
;	COMDAT ??$_Uninit_fill_n@JIJ@std@@YAXPAJIABJAAV?$allocator@J@0@U_Scalar_ptr_iterator_tag@0@@Z
_TEXT	SEGMENT PARA USE32 PUBLIC 'CODE'
_TEXT	ENDS
;	COMDAT ??$_Destroy_range@U__SPAWNREGION@CEventLua@@V?$allocator@U__SPAWNREGION@CEventLua@@@std@@@std@@YAXPAU__SPAWNREGION@CEventLua@@0AAV?$allocator@U__SPAWNREGION@CEventLua@@@0@U_Nonscalar_ptr_iterator_tag@0@@Z
_TEXT	SEGMENT PARA USE32 PUBLIC 'CODE'
_TEXT	ENDS
;	COMDAT ??$make_pair@KPAVCGuildHouseBase@@@std@@YA?AU?$pair@KPAVCGuildHouseBase@@@0@KPAVCGuildHouseBase@@@Z
_TEXT	SEGMENT PARA USE32 PUBLIC 'CODE'
_TEXT	ENDS
;	COMDAT ??$?0KPAVCGuildHouseBase@@@?$pair@$$CBKPAVCGuildHouseBase@@@std@@QAE@ABU?$pair@KPAVCGuildHouseBase@@@1@@Z
_TEXT	SEGMENT PARA USE32 PUBLIC 'CODE'
_TEXT	ENDS
;	COMDAT ??$_Distance@Viterator@?$_Tree@V?$_Tmap_traits@KU_Friend@@U?$less@K@std@@V?$allocator@U?$pair@$$CBKU_Friend@@@std@@@3@$0A@@std@@@std@@I@std@@YAXViterator@?$_Tree@V?$_Tmap_traits@KU_Friend@@U?$less@K@std@@V?$allocator@U?$pair@$$CBKU_Friend@@@std@@@3@$0A@@std@@@0@0AAI@Z
_TEXT	SEGMENT PARA USE32 PUBLIC 'CODE'
_TEXT	ENDS
;	COMDAT ??$_Distance@Viterator@?$_Tree@V?$_Tmap_traits@KKU?$less@K@std@@V?$allocator@U?$pair@$$CBKK@std@@@2@$0A@@std@@@std@@I@std@@YAXViterator@?$_Tree@V?$_Tmap_traits@KKU?$less@K@std@@V?$allocator@U?$pair@$$CBKK@std@@@2@$0A@@std@@@0@0AAI@Z
_TEXT	SEGMENT PARA USE32 PUBLIC 'CODE'
_TEXT	ENDS
;	COMDAT ??$_Destroy@U_Node@?$_List_nod@PAU__JOINPLAYER@CGuildCombat@@V?$allocator@PAU__JOINPLAYER@CGuildCombat@@@std@@@std@@@std@@YAXPAU_Node@?$_List_nod@PAU__JOINPLAYER@CGuildCombat@@V?$allocator@PAU__JOINPLAYER@CGuildCombat@@@std@@@0@@Z
_TEXT	SEGMENT PARA USE32 PUBLIC 'CODE'
_TEXT	ENDS
;	COMDAT ??$_Uninitialized_fill_n@PAV?$basic_string@DU?$char_traits@D@std@@V?$allocator@D@2@@std@@IV12@V?$allocator@V?$basic_string@DU?$char_traits@D@std@@V?$allocator@D@2@@std@@@2@@std@@YAXPAV?$basic_string@DU?$char_traits@D@std@@V?$allocator@D@2@@0@IABV10@AAV?$allocator@V?$basic_string@DU?$char_traits@D@std@@V?$allocator@D@2@@std@@@0@@Z
_TEXT	SEGMENT PARA USE32 PUBLIC 'CODE'
_TEXT	ENDS
;	COMDAT ??$_Uninitialized_fill_n@PAUMINIGMAME_PRIZE_LIST@CRainbowRaceMng@@IU12@V?$allocator@UMINIGMAME_PRIZE_LIST@CRainbowRaceMng@@@std@@@std@@YAXPAUMINIGMAME_PRIZE_LIST@CRainbowRaceMng@@IABU12@AAV?$allocator@UMINIGMAME_PRIZE_LIST@CRainbowRaceMng@@@0@@Z
_TEXT	SEGMENT PARA USE32 PUBLIC 'CODE'
_TEXT	ENDS
;	COMDAT ??$_Allocate@V?$basic_string@DU?$char_traits@D@std@@V?$allocator@D@2@@std@@@std@@YAPAV?$basic_string@DU?$char_traits@D@std@@V?$allocator@D@2@@0@IPAV10@@Z
_TEXT	SEGMENT PARA USE32 PUBLIC 'CODE'
_TEXT	ENDS
;	COMDAT ??$?0PAUtagACTMSG@@@?$allocator@PAPAUtagACTMSG@@@std@@QAE@ABV?$allocator@PAUtagACTMSG@@@1@@Z
_TEXT	SEGMENT PARA USE32 PUBLIC 'CODE'
_TEXT	ENDS
;	COMDAT ??$_Destroy@PAPAUtagACTMSG@@@std@@YAXPAPAPAUtagACTMSG@@@Z
_TEXT	SEGMENT PARA USE32 PUBLIC 'CODE'
_TEXT	ENDS
;	COMDAT ??$?0PAUtagMAGICATKMSG@@@?$allocator@PAPAUtagMAGICATKMSG@@@std@@QAE@ABV?$allocator@PAUtagMAGICATKMSG@@@1@@Z
_TEXT	SEGMENT PARA USE32 PUBLIC 'CODE'
_TEXT	ENDS
;	COMDAT ??$_Destroy@PAPAUtagMAGICATKMSG@@@std@@YAXPAPAPAUtagMAGICATKMSG@@@Z
_TEXT	SEGMENT PARA USE32 PUBLIC 'CODE'
_TEXT	ENDS
;	COMDAT ??$_Destroy_range@PAU__JOINPLAYER@CGuildCombat@@V?$allocator@PAU__JOINPLAYER@CGuildCombat@@@std@@@std@@YAXPAPAU__JOINPLAYER@CGuildCombat@@0AAV?$allocator@PAU__JOINPLAYER@CGuildCombat@@@0@@Z
_TEXT	SEGMENT PARA USE32 PUBLIC 'CODE'
_TEXT	ENDS
;	COMDAT ??$_Destroy_range@U__SECRETROOM_MONSTER@@V?$allocator@U__SECRETROOM_MONSTER@@@std@@@std@@YAXPAU__SECRETROOM_MONSTER@@0AAV?$allocator@U__SECRETROOM_MONSTER@@@0@@Z
_TEXT	SEGMENT PARA USE32 PUBLIC 'CODE'
_TEXT	ENDS
;	COMDAT ??$_Allocate@U__SECRETROOM_MONSTER@@@std@@YAPAU__SECRETROOM_MONSTER@@IPAU1@@Z
_TEXT	SEGMENT PARA USE32 PUBLIC 'CODE'
_TEXT	ENDS
;	COMDAT ??$_Destroy_range@V?$basic_string@DU?$char_traits@D@std@@V?$allocator@D@2@@std@@V?$allocator@V?$basic_string@DU?$char_traits@D@std@@V?$allocator@D@2@@std@@@2@@std@@YAXPAV?$basic_string@DU?$char_traits@D@std@@V?$allocator@D@2@@0@0AAV?$allocator@V?$basic_string@DU?$char_traits@D@std@@V?$allocator@D@2@@std@@@0@@Z
_TEXT	SEGMENT PARA USE32 PUBLIC 'CODE'
_TEXT	ENDS
;	COMDAT ??$_Ucopy@PAV?$basic_string@DU?$char_traits@D@std@@V?$allocator@D@2@@std@@@?$vector@V?$basic_string@DU?$char_traits@D@std@@V?$allocator@D@2@@std@@V?$allocator@V?$basic_string@DU?$char_traits@D@std@@V?$allocator@D@2@@std@@@2@@std@@IAEPAV?$basic_string@DU?$char_traits@D@std@@V?$allocator@D@2@@1@PAV21@00@Z
_TEXT	SEGMENT PARA USE32 PUBLIC 'CODE'
_TEXT	ENDS
;	COMDAT ??$fill@PAV?$basic_string@DU?$char_traits@D@std@@V?$allocator@D@2@@std@@V12@@std@@YAXPAV?$basic_string@DU?$char_traits@D@std@@V?$allocator@D@2@@0@0ABV10@@Z
_TEXT	SEGMENT PARA USE32 PUBLIC 'CODE'
_TEXT	ENDS
;	COMDAT ??$copy_backward@PAV?$basic_string@DU?$char_traits@D@std@@V?$allocator@D@2@@std@@PAV12@@std@@YAPAV?$basic_string@DU?$char_traits@D@std@@V?$allocator@D@2@@0@PAV10@00@Z
_TEXT	SEGMENT PARA USE32 PUBLIC 'CODE'
_TEXT	ENDS
;	COMDAT ??$_Ucopy@PAUMINIGMAME_PRIZE_LIST@CRainbowRaceMng@@@?$vector@UMINIGMAME_PRIZE_LIST@CRainbowRaceMng@@V?$allocator@UMINIGMAME_PRIZE_LIST@CRainbowRaceMng@@@std@@@std@@IAEPAUMINIGMAME_PRIZE_LIST@CRainbowRaceMng@@PAU23@00@Z
_TEXT	SEGMENT PARA USE32 PUBLIC 'CODE'
_TEXT	ENDS
;	COMDAT ??$fill@PAUMINIGMAME_PRIZE_LIST@CRainbowRaceMng@@U12@@std@@YAXPAUMINIGMAME_PRIZE_LIST@CRainbowRaceMng@@0ABU12@@Z
_TEXT	SEGMENT PARA USE32 PUBLIC 'CODE'
_TEXT	ENDS
;	COMDAT ??$copy_backward@PAUMINIGMAME_PRIZE_LIST@CRainbowRaceMng@@PAU12@@std@@YAPAUMINIGMAME_PRIZE_LIST@CRainbowRaceMng@@PAU12@00@Z
_TEXT	SEGMENT PARA USE32 PUBLIC 'CODE'
_TEXT	ENDS
;	COMDAT ??$_Destroy@PAU_Node@?$_Tree_nod@V?$_Tmap_traits@KPAVCClientSock@@U?$less@K@std@@V?$allocator@U?$pair@$$CBKPAVCClientSock@@@std@@@3@$0A@@std@@@std@@@std@@YAXPAPAU_Node@?$_Tree_nod@V?$_Tmap_traits@KPAVCClientSock@@U?$less@K@std@@V?$allocator@U?$pair@$$CBKPAVCClientSock@@@std@@@3@$0A@@std@@@0@@Z
_TEXT	SEGMENT PARA USE32 PUBLIC 'CODE'
_TEXT	ENDS
;	COMDAT ??$_Destroy@PAU_Node@?$_Tree_nod@V?$_Tmap_traits@KPAVCClientSockE@@U?$less@K@std@@V?$allocator@U?$pair@$$CBKPAVCClientSockE@@@std@@@3@$0A@@std@@@std@@@std@@YAXPAPAU_Node@?$_Tree_nod@V?$_Tmap_traits@KPAVCClientSockE@@U?$less@K@std@@V?$allocator@U?$pair@$$CBKPAVCClientSockE@@@std@@@3@$0A@@std@@@0@@Z
_TEXT	SEGMENT PARA USE32 PUBLIC 'CODE'
_TEXT	ENDS
;	COMDAT ??$?0U?$pair@$$CBKH@std@@@?$allocator@PAU_Node@?$_Tree_nod@V?$_Tmap_traits@KHU?$less@K@std@@V?$allocator@U?$pair@$$CBKH@std@@@2@$0A@@std@@@std@@@std@@QAE@ABV?$allocator@U?$pair@$$CBKH@std@@@1@@Z
_TEXT	SEGMENT PARA USE32 PUBLIC 'CODE'
_TEXT	ENDS
;	COMDAT ??$_Destroy@PAUtagACTMSG@@@std@@YAXPAPAUtagACTMSG@@@Z
_TEXT	SEGMENT PARA USE32 PUBLIC 'CODE'
_TEXT	ENDS
;	COMDAT ??$_Destroy@PAUtagMAGICATKMSG@@@std@@YAXPAPAUtagMAGICATKMSG@@@Z
_TEXT	SEGMENT PARA USE32 PUBLIC 'CODE'
_TEXT	ENDS
;	COMDAT ??$_Destroy@U_Node@?$_Tree_nod@V?$_Tmap_traits@KU_Friend@@U?$less@K@std@@V?$allocator@U?$pair@$$CBKU_Friend@@@std@@@3@$0A@@std@@@std@@@std@@YAXPAU_Node@?$_Tree_nod@V?$_Tmap_traits@KU_Friend@@U?$less@K@std@@V?$allocator@U?$pair@$$CBKU_Friend@@@std@@@3@$0A@@std@@@0@@Z
_TEXT	SEGMENT PARA USE32 PUBLIC 'CODE'
_TEXT	ENDS
;	COMDAT ??$_Destroy_range@UMINIGMAME_PRIZE_LIST@CRainbowRaceMng@@V?$allocator@UMINIGMAME_PRIZE_LIST@CRainbowRaceMng@@@std@@@std@@YAXPAUMINIGMAME_PRIZE_LIST@CRainbowRaceMng@@0AAV?$allocator@UMINIGMAME_PRIZE_LIST@CRainbowRaceMng@@@0@@Z
_TEXT	SEGMENT PARA USE32 PUBLIC 'CODE'
_TEXT	ENDS
;	COMDAT ??$_Allocate@UMINIGMAME_PRIZE_LIST@CRainbowRaceMng@@@std@@YAPAUMINIGMAME_PRIZE_LIST@CRainbowRaceMng@@IPAU12@@Z
_TEXT	SEGMENT PARA USE32 PUBLIC 'CODE'
_TEXT	ENDS
;	COMDAT ??$_Allocate@U_Node@?$_Tree_nod@V?$_Tmap_traits@KPAVCGuildHouseBase@@U?$less@K@std@@V?$allocator@U?$pair@$$CBKPAVCGuildHouseBase@@@std@@@3@$0A@@std@@@std@@@std@@YAPAU_Node@?$_Tree_nod@V?$_Tmap_traits@KPAVCGuildHouseBase@@U?$less@K@std@@V?$allocator@U?$pair@$$CBKPAVCGuildHouseBase@@@std@@@3@$0A@@std@@@0@IPAU120@@Z
_TEXT	SEGMENT PARA USE32 PUBLIC 'CODE'
_TEXT	ENDS
;	COMDAT ??$_Destroy@U_Node@?$_Tree_nod@V?$_Tmap_traits@KKU?$less@K@std@@V?$allocator@U?$pair@$$CBKK@std@@@2@$0A@@std@@@std@@@std@@YAXPAU_Node@?$_Tree_nod@V?$_Tmap_traits@KKU?$less@K@std@@V?$allocator@U?$pair@$$CBKK@std@@@2@$0A@@std@@@0@@Z
_TEXT	SEGMENT PARA USE32 PUBLIC 'CODE'
_TEXT	ENDS
;	COMDAT ??$?0U?$pair@$$CBKPAVCClientSock@@@std@@@?$allocator@PAU_Node@?$_Tree_nod@V?$_Tmap_traits@KPAVCClientSock@@U?$less@K@std@@V?$allocator@U?$pair@$$CBKPAVCClientSock@@@std@@@3@$0A@@std@@@std@@@std@@QAE@ABV?$allocator@U?$pair@$$CBKPAVCClientSock@@@std@@@1@@Z
_TEXT	SEGMENT PARA USE32 PUBLIC 'CODE'
_TEXT	ENDS
;	COMDAT ??$?0U?$pair@$$CBKPAVCClientSockE@@@std@@@?$allocator@PAU_Node@?$_Tree_nod@V?$_Tmap_traits@KPAVCClientSockE@@U?$less@K@std@@V?$allocator@U?$pair@$$CBKPAVCClientSockE@@@std@@@3@$0A@@std@@@std@@@std@@QAE@ABV?$allocator@U?$pair@$$CBKPAVCClientSockE@@@std@@@1@@Z
_TEXT	SEGMENT PARA USE32 PUBLIC 'CODE'
_TEXT	ENDS
;	COMDAT ??$?0U?$pair@$$CBKH@std@@@?$allocator@U_Node@?$_Tree_nod@V?$_Tmap_traits@KHU?$less@K@std@@V?$allocator@U?$pair@$$CBKH@std@@@2@$0A@@std@@@std@@@std@@QAE@ABV?$allocator@U?$pair@$$CBKH@std@@@1@@Z
_TEXT	SEGMENT PARA USE32 PUBLIC 'CODE'
_TEXT	ENDS
;	COMDAT ??$_Allocate@U_Node@?$_Tree_nod@V?$_Tmap_traits@KHU?$less@K@std@@V?$allocator@U?$pair@$$CBKH@std@@@2@$0A@@std@@@std@@@std@@YAPAU_Node@?$_Tree_nod@V?$_Tmap_traits@KHU?$less@K@std@@V?$allocator@U?$pair@$$CBKH@std@@@2@$0A@@std@@@0@IPAU120@@Z
_TEXT	SEGMENT PARA USE32 PUBLIC 'CODE'
_TEXT	ENDS
;	COMDAT ??$_Construct@PAU_Node@?$_Tree_nod@V?$_Tmap_traits@KHU?$less@K@std@@V?$allocator@U?$pair@$$CBKH@std@@@2@$0A@@std@@@std@@PAU123@@std@@YAXPAPAU_Node@?$_Tree_nod@V?$_Tmap_traits@KHU?$less@K@std@@V?$allocator@U?$pair@$$CBKH@std@@@2@$0A@@std@@@0@ABQAU120@@Z
_TEXT	SEGMENT PARA USE32 PUBLIC 'CODE'
_TEXT	ENDS
;	COMDAT ??$?0U?$pair@$$CBKPAVCClientSock@@@std@@@?$allocator@U_Node@?$_Tree_nod@V?$_Tmap_traits@KPAVCClientSock@@U?$less@K@std@@V?$allocator@U?$pair@$$CBKPAVCClientSock@@@std@@@3@$0A@@std@@@std@@@std@@QAE@ABV?$allocator@U?$pair@$$CBKPAVCClientSock@@@std@@@1@@Z
_TEXT	SEGMENT PARA USE32 PUBLIC 'CODE'
_TEXT	ENDS
;	COMDAT ??$_Allocate@U_Node@?$_Tree_nod@V?$_Tmap_traits@KPAVCClientSock@@U?$less@K@std@@V?$allocator@U?$pair@$$CBKPAVCClientSock@@@std@@@3@$0A@@std@@@std@@@std@@YAPAU_Node@?$_Tree_nod@V?$_Tmap_traits@KPAVCClientSock@@U?$less@K@std@@V?$allocator@U?$pair@$$CBKPAVCClientSock@@@std@@@3@$0A@@std@@@0@IPAU120@@Z
_TEXT	SEGMENT PARA USE32 PUBLIC 'CODE'
_TEXT	ENDS
;	COMDAT ??$_Destroy@U_Node@?$_Tree_nod@V?$_Tmap_traits@KPAVCClientSock@@U?$less@K@std@@V?$allocator@U?$pair@$$CBKPAVCClientSock@@@std@@@3@$0A@@std@@@std@@@std@@YAXPAU_Node@?$_Tree_nod@V?$_Tmap_traits@KPAVCClientSock@@U?$less@K@std@@V?$allocator@U?$pair@$$CBKPAVCClientSock@@@std@@@3@$0A@@std@@@0@@Z
_TEXT	SEGMENT PARA USE32 PUBLIC 'CODE'
_TEXT	ENDS
;	COMDAT ??$_Construct@PAU_Node@?$_Tree_nod@V?$_Tmap_traits@KPAVCClientSock@@U?$less@K@std@@V?$allocator@U?$pair@$$CBKPAVCClientSock@@@std@@@3@$0A@@std@@@std@@PAU123@@std@@YAXPAPAU_Node@?$_Tree_nod@V?$_Tmap_traits@KPAVCClientSock@@U?$less@K@std@@V?$allocator@U?$pair@$$CBKPAVCClientSock@@@std@@@3@$0A@@std@@@0@ABQAU120@@Z
_TEXT	SEGMENT PARA USE32 PUBLIC 'CODE'
_TEXT	ENDS
;	COMDAT ??$?0U?$pair@$$CBKPAVCClientSockE@@@std@@@?$allocator@U_Node@?$_Tree_nod@V?$_Tmap_traits@KPAVCClientSockE@@U?$less@K@std@@V?$allocator@U?$pair@$$CBKPAVCClientSockE@@@std@@@3@$0A@@std@@@std@@@std@@QAE@ABV?$allocator@U?$pair@$$CBKPAVCClientSockE@@@std@@@1@@Z
_TEXT	SEGMENT PARA USE32 PUBLIC 'CODE'
_TEXT	ENDS
;	COMDAT ??$_Allocate@U_Node@?$_Tree_nod@V?$_Tmap_traits@KPAVCClientSockE@@U?$less@K@std@@V?$allocator@U?$pair@$$CBKPAVCClientSockE@@@std@@@3@$0A@@std@@@std@@@std@@YAPAU_Node@?$_Tree_nod@V?$_Tmap_traits@KPAVCClientSockE@@U?$less@K@std@@V?$allocator@U?$pair@$$CBKPAVCClientSockE@@@std@@@3@$0A@@std@@@0@IPAU120@@Z
_TEXT	SEGMENT PARA USE32 PUBLIC 'CODE'
_TEXT	ENDS
;	COMDAT ??$_Destroy@U_Node@?$_Tree_nod@V?$_Tmap_traits@KPAVCClientSockE@@U?$less@K@std@@V?$allocator@U?$pair@$$CBKPAVCClientSockE@@@std@@@3@$0A@@std@@@std@@@std@@YAXPAU_Node@?$_Tree_nod@V?$_Tmap_traits@KPAVCClientSockE@@U?$less@K@std@@V?$allocator@U?$pair@$$CBKPAVCClientSockE@@@std@@@3@$0A@@std@@@0@@Z
_TEXT	SEGMENT PARA USE32 PUBLIC 'CODE'
_TEXT	ENDS
;	COMDAT ??$_Construct@PAU_Node@?$_Tree_nod@V?$_Tmap_traits@KPAVCClientSockE@@U?$less@K@std@@V?$allocator@U?$pair@$$CBKPAVCClientSockE@@@std@@@3@$0A@@std@@@std@@PAU123@@std@@YAXPAPAU_Node@?$_Tree_nod@V?$_Tmap_traits@KPAVCClientSockE@@U?$less@K@std@@V?$allocator@U?$pair@$$CBKPAVCClientSockE@@@std@@@3@$0A@@std@@@0@ABQAU120@@Z
_TEXT	SEGMENT PARA USE32 PUBLIC 'CODE'
_TEXT	ENDS
;	COMDAT ?destroy@?$allocator@UtagDROPITEM@@@std@@QAEXPAUtagDROPITEM@@@Z
_TEXT	SEGMENT PARA USE32 PUBLIC 'CODE'
_TEXT	ENDS
;	COMDAT ?destroy@?$allocator@UWORMON@@@std@@QAEXPAUWORMON@@@Z
_TEXT	SEGMENT PARA USE32 PUBLIC 'CODE'
_TEXT	ENDS
;	COMDAT ?destroy@?$allocator@U__ITEMGAME@CMiniGame@@@std@@QAEXPAU__ITEMGAME@CMiniGame@@@Z
_TEXT	SEGMENT PARA USE32 PUBLIC 'CODE'
_TEXT	ENDS
;	COMDAT ?destroy@?$allocator@U__ITEM@CExchange@@@std@@QAEXPAU__ITEM@CExchange@@@Z
_TEXT	SEGMENT PARA USE32 PUBLIC 'CODE'
_TEXT	ENDS
;	COMDAT ?destroy@?$allocator@U__POINT@CExchange@@@std@@QAEXPAU__POINT@CExchange@@@Z
_TEXT	SEGMENT PARA USE32 PUBLIC 'CODE'
_TEXT	ENDS
;	COMDAT ?begin@?$vector@EV?$allocator@E@std@@@std@@QAE?AViterator@12@XZ
_TEXT	SEGMENT PARA USE32 PUBLIC 'CODE'
_TEXT	ENDS
;	COMDAT ?end@?$vector@EV?$allocator@E@std@@@std@@QAE?AViterator@12@XZ
_TEXT	SEGMENT PARA USE32 PUBLIC 'CODE'
_TEXT	ENDS
;	COMDAT ?erase@?$vector@EV?$allocator@E@std@@@std@@QAE?AViterator@12@V312@0@Z
_TEXT	SEGMENT PARA USE32 PUBLIC 'CODE'
_TEXT	ENDS
;	COMDAT ?construct@?$allocator@U__SPAWNREGION@CEventLua@@@std@@QAEXPAU__SPAWNREGION@CEventLua@@ABU34@@Z
_TEXT	SEGMENT PARA USE32 PUBLIC 'CODE'
_TEXT	ENDS
;	COMDAT ?destroy@?$allocator@U__SPAWNREGION@CEventLua@@@std@@QAEXPAU__SPAWNREGION@CEventLua@@@Z
_TEXT	SEGMENT PARA USE32 PUBLIC 'CODE'
_TEXT	ENDS
;	COMDAT ?destroy@?$allocator@UD3DXVECTOR3@@@std@@QAEXPAUD3DXVECTOR3@@@Z
_TEXT	SEGMENT PARA USE32 PUBLIC 'CODE'
_TEXT	ENDS
;	COMDAT ?destroy@?$allocator@U_GIFTBOX@@@std@@QAEXPAU_GIFTBOX@@@Z
_TEXT	SEGMENT PARA USE32 PUBLIC 'CODE'
_TEXT	ENDS
;	COMDAT ??0?$pair@KPAVCGuildHouseBase@@@std@@QAE@ABKABQAVCGuildHouseBase@@@Z
_TEXT	SEGMENT PARA USE32 PUBLIC 'CODE'
_TEXT	ENDS
;	COMDAT ??9const_iterator@?$vector@EV?$allocator@E@std@@@std@@QBE_NABV012@@Z
_TEXT	SEGMENT PARA USE32 PUBLIC 'CODE'
_TEXT	ENDS
;	COMDAT ??0iterator@?$vector@EV?$allocator@E@std@@@std@@QAE@PAE@Z
_TEXT	SEGMENT PARA USE32 PUBLIC 'CODE'
_TEXT	ENDS
;	COMDAT ??8const_iterator@?$vector@EV?$allocator@E@std@@@std@@QBE_NABV012@@Z
_TEXT	SEGMENT PARA USE32 PUBLIC 'CODE'
_TEXT	ENDS
;	COMDAT ??$insert@Vconst_iterator@?$vector@EV?$allocator@E@std@@@std@@@?$vector@EV?$allocator@E@std@@@std@@QAEXViterator@01@Vconst_iterator@01@1@Z
_TEXT	SEGMENT PARA USE32 PUBLIC 'CODE'
_TEXT	ENDS
;	COMDAT ??$_Ptr_cat@Vconst_iterator@?$vector@EV?$allocator@E@std@@@std@@PAE@std@@YA?AU_Nonscalar_ptr_iterator_tag@0@AAVconst_iterator@?$vector@EV?$allocator@E@std@@@0@AAPAE@Z
_TEXT	SEGMENT PARA USE32 PUBLIC 'CODE'
_TEXT	ENDS
;	COMDAT ??$_Uninit_copy@Vconst_iterator@?$vector@EV?$allocator@E@std@@@std@@PAEV?$allocator@E@3@@std@@YAPAEVconst_iterator@?$vector@EV?$allocator@E@std@@@0@0PAEAAV?$allocator@E@0@U_Nonscalar_ptr_iterator_tag@0@@Z
_TEXT	SEGMENT PARA USE32 PUBLIC 'CODE'
_TEXT	ENDS
;	COMDAT ??$_Uninit_copy@JJ@std@@YAPAJPAJ00AAV?$allocator@J@0@U_Scalar_ptr_iterator_tag@0@@Z
_TEXT	SEGMENT PARA USE32 PUBLIC 'CODE'
_TEXT	ENDS
;	COMDAT ??$_Uninit_copy@PAU__SPAWNREGION@CEventLua@@PAU12@V?$allocator@U__SPAWNREGION@CEventLua@@@std@@@std@@YAPAU__SPAWNREGION@CEventLua@@PAU12@00AAV?$allocator@U__SPAWNREGION@CEventLua@@@0@U_Nonscalar_ptr_iterator_tag@0@@Z
_TEXT	SEGMENT PARA USE32 PUBLIC 'CODE'
_TEXT	ENDS
;	COMDAT ??$fill_n@PAJIJ@std@@YAXPAJIABJ@Z
_TEXT	SEGMENT PARA USE32 PUBLIC 'CODE'
_TEXT	ENDS
;	COMDAT ??$_Iter_cat@Viterator@?$_Tree@V?$_Tmap_traits@KU_Friend@@U?$less@K@std@@V?$allocator@U?$pair@$$CBKU_Friend@@@std@@@3@$0A@@std@@@std@@@std@@YA?AUbidirectional_iterator_tag@0@ABViterator@?$_Tree@V?$_Tmap_traits@KU_Friend@@U?$less@K@std@@V?$allocator@U?$pair@$$CBKU_Friend@@@std@@@3@$0A@@std@@@0@@Z
_TEXT	SEGMENT PARA USE32 PUBLIC 'CODE'
_TEXT	ENDS
;	COMDAT ??$_Distance2@Viterator@?$_Tree@V?$_Tmap_traits@KU_Friend@@U?$less@K@std@@V?$allocator@U?$pair@$$CBKU_Friend@@@std@@@3@$0A@@std@@@std@@I@std@@YAXViterator@?$_Tree@V?$_Tmap_traits@KU_Friend@@U?$less@K@std@@V?$allocator@U?$pair@$$CBKU_Friend@@@std@@@3@$0A@@std@@@0@0AAIUbidirectional_iterator_tag@0@@Z
_TEXT	SEGMENT PARA USE32 PUBLIC 'CODE'
_TEXT	ENDS
;	COMDAT ??$_Iter_cat@Viterator@?$_Tree@V?$_Tmap_traits@KKU?$less@K@std@@V?$allocator@U?$pair@$$CBKK@std@@@2@$0A@@std@@@std@@@std@@YA?AUbidirectional_iterator_tag@0@ABViterator@?$_Tree@V?$_Tmap_traits@KKU?$less@K@std@@V?$allocator@U?$pair@$$CBKK@std@@@2@$0A@@std@@@0@@Z
_TEXT	SEGMENT PARA USE32 PUBLIC 'CODE'
_TEXT	ENDS
;	COMDAT ??$_Distance2@Viterator@?$_Tree@V?$_Tmap_traits@KKU?$less@K@std@@V?$allocator@U?$pair@$$CBKK@std@@@2@$0A@@std@@@std@@I@std@@YAXViterator@?$_Tree@V?$_Tmap_traits@KKU?$less@K@std@@V?$allocator@U?$pair@$$CBKK@std@@@2@$0A@@std@@@0@0AAIUbidirectional_iterator_tag@0@@Z
_TEXT	SEGMENT PARA USE32 PUBLIC 'CODE'
_TEXT	ENDS
;	COMDAT ??$_Ptr_cat@PAV?$basic_string@DU?$char_traits@D@std@@V?$allocator@D@2@@std@@PAV12@@std@@YA?AU_Nonscalar_ptr_iterator_tag@0@AAPAV?$basic_string@DU?$char_traits@D@std@@V?$allocator@D@2@@0@0@Z
_TEXT	SEGMENT PARA USE32 PUBLIC 'CODE'
_TEXT	ENDS
;	COMDAT ??$_Uninit_fill_n@PAV?$basic_string@DU?$char_traits@D@std@@V?$allocator@D@2@@std@@IV12@V?$allocator@V?$basic_string@DU?$char_traits@D@std@@V?$allocator@D@2@@std@@@2@@std@@YAXPAV?$basic_string@DU?$char_traits@D@std@@V?$allocator@D@2@@0@IABV10@AAV?$allocator@V?$basic_string@DU?$char_traits@D@std@@V?$allocator@D@2@@std@@@0@U_Nonscalar_ptr_iterator_tag@0@@Z
_TEXT	SEGMENT PARA USE32 PUBLIC 'CODE'
_TEXT	ENDS
;	COMDAT ??$_Ptr_cat@PAUMINIGMAME_PRIZE_LIST@CRainbowRaceMng@@PAU12@@std@@YA?AU_Nonscalar_ptr_iterator_tag@0@AAPAUMINIGMAME_PRIZE_LIST@CRainbowRaceMng@@0@Z
_TEXT	SEGMENT PARA USE32 PUBLIC 'CODE'
_TEXT	ENDS
;	COMDAT ??$_Uninit_fill_n@PAUMINIGMAME_PRIZE_LIST@CRainbowRaceMng@@IU12@V?$allocator@UMINIGMAME_PRIZE_LIST@CRainbowRaceMng@@@std@@@std@@YAXPAUMINIGMAME_PRIZE_LIST@CRainbowRaceMng@@IABU12@AAV?$allocator@UMINIGMAME_PRIZE_LIST@CRainbowRaceMng@@@0@U_Nonscalar_ptr_iterator_tag@0@@Z
_TEXT	SEGMENT PARA USE32 PUBLIC 'CODE'
_TEXT	ENDS
;	COMDAT ??$_Ptr_cat@U__JOINPLAYER@CGuildCombat@@@std@@YA?AU_Scalar_ptr_iterator_tag@0@PAPAU__JOINPLAYER@CGuildCombat@@0@Z
_TEXT	SEGMENT PARA USE32 PUBLIC 'CODE'
_TEXT	ENDS
;	COMDAT ??$_Destroy_range@PAU__JOINPLAYER@CGuildCombat@@V?$allocator@PAU__JOINPLAYER@CGuildCombat@@@std@@@std@@YAXPAPAU__JOINPLAYER@CGuildCombat@@0AAV?$allocator@PAU__JOINPLAYER@CGuildCombat@@@0@U_Scalar_ptr_iterator_tag@0@@Z
_TEXT	SEGMENT PARA USE32 PUBLIC 'CODE'
_TEXT	ENDS
;	COMDAT ??$_Ptr_cat@PAU__SECRETROOM_MONSTER@@PAU1@@std@@YA?AU_Nonscalar_ptr_iterator_tag@0@AAPAU__SECRETROOM_MONSTER@@0@Z
_TEXT	SEGMENT PARA USE32 PUBLIC 'CODE'
_TEXT	ENDS
;	COMDAT ??$_Destroy_range@U__SECRETROOM_MONSTER@@V?$allocator@U__SECRETROOM_MONSTER@@@std@@@std@@YAXPAU__SECRETROOM_MONSTER@@0AAV?$allocator@U__SECRETROOM_MONSTER@@@0@U_Nonscalar_ptr_iterator_tag@0@@Z
_TEXT	SEGMENT PARA USE32 PUBLIC 'CODE'
_TEXT	ENDS
;	COMDAT ??$_Destroy_range@V?$basic_string@DU?$char_traits@D@std@@V?$allocator@D@2@@std@@V?$allocator@V?$basic_string@DU?$char_traits@D@std@@V?$allocator@D@2@@std@@@2@@std@@YAXPAV?$basic_string@DU?$char_traits@D@std@@V?$allocator@D@2@@0@0AAV?$allocator@V?$basic_string@DU?$char_traits@D@std@@V?$allocator@D@2@@std@@@0@U_Nonscalar_ptr_iterator_tag@0@@Z
_TEXT	SEGMENT PARA USE32 PUBLIC 'CODE'
_TEXT	ENDS
;	COMDAT ??$_Uninitialized_copy@PAV?$basic_string@DU?$char_traits@D@std@@V?$allocator@D@2@@std@@PAV12@V?$allocator@V?$basic_string@DU?$char_traits@D@std@@V?$allocator@D@2@@std@@@2@@std@@YAPAV?$basic_string@DU?$char_traits@D@std@@V?$allocator@D@2@@0@PAV10@00AAV?$allocator@V?$basic_string@DU?$char_traits@D@std@@V?$allocator@D@2@@std@@@0@@Z
_TEXT	SEGMENT PARA USE32 PUBLIC 'CODE'
_TEXT	ENDS
;	COMDAT ??$_Copy_backward_opt@PAV?$basic_string@DU?$char_traits@D@std@@V?$allocator@D@2@@std@@PAV12@@std@@YAPAV?$basic_string@DU?$char_traits@D@std@@V?$allocator@D@2@@0@PAV10@00U_Nonscalar_ptr_iterator_tag@0@@Z
_TEXT	SEGMENT PARA USE32 PUBLIC 'CODE'
_TEXT	ENDS
;	COMDAT ??$_Uninitialized_copy@PAUMINIGMAME_PRIZE_LIST@CRainbowRaceMng@@PAU12@V?$allocator@UMINIGMAME_PRIZE_LIST@CRainbowRaceMng@@@std@@@std@@YAPAUMINIGMAME_PRIZE_LIST@CRainbowRaceMng@@PAU12@00AAV?$allocator@UMINIGMAME_PRIZE_LIST@CRainbowRaceMng@@@0@@Z
_TEXT	SEGMENT PARA USE32 PUBLIC 'CODE'
_TEXT	ENDS
;	COMDAT ??$_Copy_backward_opt@PAUMINIGMAME_PRIZE_LIST@CRainbowRaceMng@@PAU12@@std@@YAPAUMINIGMAME_PRIZE_LIST@CRainbowRaceMng@@PAU12@00U_Nonscalar_ptr_iterator_tag@0@@Z
_TEXT	SEGMENT PARA USE32 PUBLIC 'CODE'
_TEXT	ENDS
;	COMDAT ??$_Destroy_range@UMINIGMAME_PRIZE_LIST@CRainbowRaceMng@@V?$allocator@UMINIGMAME_PRIZE_LIST@CRainbowRaceMng@@@std@@@std@@YAXPAUMINIGMAME_PRIZE_LIST@CRainbowRaceMng@@0AAV?$allocator@UMINIGMAME_PRIZE_LIST@CRainbowRaceMng@@@0@U_Nonscalar_ptr_iterator_tag@0@@Z
_TEXT	SEGMENT PARA USE32 PUBLIC 'CODE'
_TEXT	ENDS
;	COMDAT ??$_Destroy@UtagDROPITEM@@@std@@YAXPAUtagDROPITEM@@@Z
_TEXT	SEGMENT PARA USE32 PUBLIC 'CODE'
_TEXT	ENDS
;	COMDAT ??$_Destroy@UWORMON@@@std@@YAXPAUWORMON@@@Z
_TEXT	SEGMENT PARA USE32 PUBLIC 'CODE'
_TEXT	ENDS
;	COMDAT ??$_Destroy@U__ITEMGAME@CMiniGame@@@std@@YAXPAU__ITEMGAME@CMiniGame@@@Z
_TEXT	SEGMENT PARA USE32 PUBLIC 'CODE'
_TEXT	ENDS
;	COMDAT ??$_Destroy@U__ITEM@CExchange@@@std@@YAXPAU__ITEM@CExchange@@@Z
_TEXT	SEGMENT PARA USE32 PUBLIC 'CODE'
_TEXT	ENDS
;	COMDAT ??$_Destroy@U__POINT@CExchange@@@std@@YAXPAU__POINT@CExchange@@@Z
_TEXT	SEGMENT PARA USE32 PUBLIC 'CODE'
_TEXT	ENDS
;	COMDAT ??$copy@PAEPAE@std@@YAPAEPAE00@Z
_TEXT	SEGMENT PARA USE32 PUBLIC 'CODE'
_TEXT	ENDS
;	COMDAT ??$_Construct@U__SPAWNREGION@CEventLua@@U12@@std@@YAXPAU__SPAWNREGION@CEventLua@@ABU12@@Z
_TEXT	SEGMENT PARA USE32 PUBLIC 'CODE'
_TEXT	ENDS
;	COMDAT ??$_Destroy@U__SPAWNREGION@CEventLua@@@std@@YAXPAU__SPAWNREGION@CEventLua@@@Z
_TEXT	SEGMENT PARA USE32 PUBLIC 'CODE'
_TEXT	ENDS
;	COMDAT ??$_Destroy@UD3DXVECTOR3@@@std@@YAXPAUD3DXVECTOR3@@@Z
_TEXT	SEGMENT PARA USE32 PUBLIC 'CODE'
_TEXT	ENDS
;	COMDAT ??$_Destroy@U_GIFTBOX@@@std@@YAXPAU_GIFTBOX@@@Z
_TEXT	SEGMENT PARA USE32 PUBLIC 'CODE'
_TEXT	ENDS
;	COMDAT ?construct@?$allocator@V?$basic_string@DU?$char_traits@D@std@@V?$allocator@D@2@@std@@@std@@QAEXPAV?$basic_string@DU?$char_traits@D@std@@V?$allocator@D@2@@2@ABV32@@Z
_TEXT	SEGMENT PARA USE32 PUBLIC 'CODE'
_TEXT	ENDS
;	COMDAT ?destroy@?$allocator@V?$basic_string@DU?$char_traits@D@std@@V?$allocator@D@2@@std@@@std@@QAEXPAV?$basic_string@DU?$char_traits@D@std@@V?$allocator@D@2@@2@@Z
_TEXT	SEGMENT PARA USE32 PUBLIC 'CODE'
_TEXT	ENDS
;	COMDAT ?construct@?$allocator@E@std@@QAEXPAEABE@Z
_TEXT	SEGMENT PARA USE32 PUBLIC 'CODE'
_TEXT	ENDS
;	COMDAT ?destroy@?$allocator@E@std@@QAEXPAE@Z
_TEXT	SEGMENT PARA USE32 PUBLIC 'CODE'
_TEXT	ENDS
;	COMDAT ??Dconst_iterator@?$vector@EV?$allocator@E@std@@@std@@QBEABEXZ
_TEXT	SEGMENT PARA USE32 PUBLIC 'CODE'
_TEXT	ENDS
;	COMDAT ??Econst_iterator@?$vector@EV?$allocator@E@std@@@std@@QAEAAV012@XZ
_TEXT	SEGMENT PARA USE32 PUBLIC 'CODE'
_TEXT	ENDS
;	COMDAT ?destroy@?$allocator@U__SECRETROOM_MONSTER@@@std@@QAEXPAU__SECRETROOM_MONSTER@@@Z
_TEXT	SEGMENT PARA USE32 PUBLIC 'CODE'
_TEXT	ENDS
;	COMDAT ?construct@?$allocator@UMINIGMAME_PRIZE_LIST@CRainbowRaceMng@@@std@@QAEXPAUMINIGMAME_PRIZE_LIST@CRainbowRaceMng@@ABU34@@Z
_TEXT	SEGMENT PARA USE32 PUBLIC 'CODE'
_TEXT	ENDS
;	COMDAT ?destroy@?$allocator@UMINIGMAME_PRIZE_LIST@CRainbowRaceMng@@@std@@QAEXPAUMINIGMAME_PRIZE_LIST@CRainbowRaceMng@@@Z
_TEXT	SEGMENT PARA USE32 PUBLIC 'CODE'
_TEXT	ENDS
;	COMDAT ??$_Insert@Vconst_iterator@?$vector@EV?$allocator@E@std@@@std@@@?$vector@EV?$allocator@E@std@@@std@@QAEXViterator@01@Vconst_iterator@01@1Uforward_iterator_tag@1@@Z
_TEXT	SEGMENT PARA USE32 PUBLIC 'CODE'
_TEXT	ENDS
;	COMDAT ??$_Uninit_copy@PAV?$basic_string@DU?$char_traits@D@std@@V?$allocator@D@2@@std@@PAV12@V?$allocator@V?$basic_string@DU?$char_traits@D@std@@V?$allocator@D@2@@std@@@2@@std@@YAPAV?$basic_string@DU?$char_traits@D@std@@V?$allocator@D@2@@0@PAV10@00AAV?$allocator@V?$basic_string@DU?$char_traits@D@std@@V?$allocator@D@2@@std@@@0@U_Nonscalar_ptr_iterator_tag@0@@Z
_TEXT	SEGMENT PARA USE32 PUBLIC 'CODE'
_TEXT	ENDS
;	COMDAT ??$_Uninit_copy@PAUMINIGMAME_PRIZE_LIST@CRainbowRaceMng@@PAU12@V?$allocator@UMINIGMAME_PRIZE_LIST@CRainbowRaceMng@@@std@@@std@@YAPAUMINIGMAME_PRIZE_LIST@CRainbowRaceMng@@PAU12@00AAV?$allocator@UMINIGMAME_PRIZE_LIST@CRainbowRaceMng@@@0@U_Nonscalar_ptr_iterator_tag@0@@Z
_TEXT	SEGMENT PARA USE32 PUBLIC 'CODE'
_TEXT	ENDS
;	COMDAT ??$_Copy_opt@PAEPAE@std@@YAPAEPAE00U_Scalar_ptr_iterator_tag@0@@Z
_TEXT	SEGMENT PARA USE32 PUBLIC 'CODE'
_TEXT	ENDS
;	COMDAT ??$_Construct@V?$basic_string@DU?$char_traits@D@std@@V?$allocator@D@2@@std@@V12@@std@@YAXPAV?$basic_string@DU?$char_traits@D@std@@V?$allocator@D@2@@0@ABV10@@Z
_TEXT	SEGMENT PARA USE32 PUBLIC 'CODE'
_TEXT	ENDS
;	COMDAT ??$_Destroy@V?$basic_string@DU?$char_traits@D@std@@V?$allocator@D@2@@std@@@std@@YAXPAV?$basic_string@DU?$char_traits@D@std@@V?$allocator@D@2@@0@@Z
_TEXT	SEGMENT PARA USE32 PUBLIC 'CODE'
_TEXT	ENDS
;	COMDAT ??$_Construct@EE@std@@YAXPAEABE@Z
_TEXT	SEGMENT PARA USE32 PUBLIC 'CODE'
_TEXT	ENDS
;	COMDAT ??$_Destroy@E@std@@YAXPAE@Z
_TEXT	SEGMENT PARA USE32 PUBLIC 'CODE'
_TEXT	ENDS
;	COMDAT ??$_Destroy@U__SECRETROOM_MONSTER@@@std@@YAXPAU__SECRETROOM_MONSTER@@@Z
_TEXT	SEGMENT PARA USE32 PUBLIC 'CODE'
_TEXT	ENDS
;	COMDAT ??$_Construct@UMINIGMAME_PRIZE_LIST@CRainbowRaceMng@@U12@@std@@YAXPAUMINIGMAME_PRIZE_LIST@CRainbowRaceMng@@ABU12@@Z
_TEXT	SEGMENT PARA USE32 PUBLIC 'CODE'
_TEXT	ENDS
;	COMDAT ??$_Destroy@UMINIGMAME_PRIZE_LIST@CRainbowRaceMng@@@std@@YAXPAUMINIGMAME_PRIZE_LIST@CRainbowRaceMng@@@Z
_TEXT	SEGMENT PARA USE32 PUBLIC 'CODE'
_TEXT	ENDS
;	COMDAT ??_G?$basic_string@DU?$char_traits@D@std@@V?$allocator@D@2@@std@@QAEPAXI@Z
_TEXT	SEGMENT PARA USE32 PUBLIC 'CODE'
_TEXT	ENDS
;	COMDAT ?capacity@?$vector@EV?$allocator@E@std@@@std@@QBEIXZ
_TEXT	SEGMENT PARA USE32 PUBLIC 'CODE'
_TEXT	ENDS
;	COMDAT ??Giterator@?$vector@EV?$allocator@E@std@@@std@@QBEHABVconst_iterator@12@@Z
_TEXT	SEGMENT PARA USE32 PUBLIC 'CODE'
_TEXT	ENDS
;	COMDAT ??Gconst_iterator@?$vector@EV?$allocator@E@std@@@std@@QBEHABV012@@Z
_TEXT	SEGMENT PARA USE32 PUBLIC 'CODE'
_TEXT	ENDS
;	COMDAT ??$_Distance@Vconst_iterator@?$vector@EV?$allocator@E@std@@@std@@I@std@@YAXVconst_iterator@?$vector@EV?$allocator@E@std@@@0@0AAI@Z
_TEXT	SEGMENT PARA USE32 PUBLIC 'CODE'
_TEXT	ENDS
;	COMDAT ??$_Ucopy@PAE@?$vector@EV?$allocator@E@std@@@std@@IAEPAEPAE00@Z
_TEXT	SEGMENT PARA USE32 PUBLIC 'CODE'
_TEXT	ENDS
;	COMDAT ??$advance@Vconst_iterator@?$vector@EV?$allocator@E@std@@@std@@H@std@@YAXAAVconst_iterator@?$vector@EV?$allocator@E@std@@@0@H@Z
_TEXT	SEGMENT PARA USE32 PUBLIC 'CODE'
_TEXT	ENDS
;	COMDAT ??$copy@Vconst_iterator@?$vector@EV?$allocator@E@std@@@std@@PAE@std@@YAPAEVconst_iterator@?$vector@EV?$allocator@E@std@@@0@0PAE@Z
_TEXT	SEGMENT PARA USE32 PUBLIC 'CODE'
_TEXT	ENDS
;	COMDAT ??$copy_backward@PAEPAE@std@@YAPAEPAE00@Z
_TEXT	SEGMENT PARA USE32 PUBLIC 'CODE'
_TEXT	ENDS
;	COMDAT ??$_Distance2@Vconst_iterator@?$vector@EV?$allocator@E@std@@@std@@I@std@@YAXVconst_iterator@?$vector@EV?$allocator@E@std@@@0@0AAIUrandom_access_iterator_tag@0@@Z
_TEXT	SEGMENT PARA USE32 PUBLIC 'CODE'
_TEXT	ENDS
;	COMDAT ??$_Uninitialized_copy@PAEPAEV?$allocator@E@std@@@std@@YAPAEPAE00AAV?$allocator@E@0@@Z
_TEXT	SEGMENT PARA USE32 PUBLIC 'CODE'
_TEXT	ENDS
;	COMDAT ??$_Advance@Vconst_iterator@?$vector@EV?$allocator@E@std@@@std@@H@std@@YAXAAVconst_iterator@?$vector@EV?$allocator@E@std@@@0@HUrandom_access_iterator_tag@0@@Z
_TEXT	SEGMENT PARA USE32 PUBLIC 'CODE'
_TEXT	ENDS
;	COMDAT ??$_Copy_opt@Vconst_iterator@?$vector@EV?$allocator@E@std@@@std@@PAE@std@@YAPAEVconst_iterator@?$vector@EV?$allocator@E@std@@@0@0PAEU_Nonscalar_ptr_iterator_tag@0@@Z
_TEXT	SEGMENT PARA USE32 PUBLIC 'CODE'
_TEXT	ENDS
;	COMDAT ??$_Copy_backward_opt@PAEPAE@std@@YAPAEPAE00U_Scalar_ptr_iterator_tag@0@@Z
_TEXT	SEGMENT PARA USE32 PUBLIC 'CODE'
_TEXT	ENDS
;	COMDAT ??Yconst_iterator@?$vector@EV?$allocator@E@std@@@std@@QAEAAV012@H@Z
_TEXT	SEGMENT PARA USE32 PUBLIC 'CODE'
_TEXT	ENDS
;	COMDAT ??$_Uninit_copy@EE@std@@YAPAEPAE00AAV?$allocator@E@0@U_Scalar_ptr_iterator_tag@0@@Z
_TEXT	SEGMENT PARA USE32 PUBLIC 'CODE'
_TEXT	ENDS
;	COMDAT ?deallocate@?$allocator@E@std@@QAEXPAEI@Z
_TEXT	SEGMENT PARA USE32 PUBLIC 'CODE'
_TEXT	ENDS
;	COMDAT ??$_Ucopy@Vconst_iterator@?$vector@EV?$allocator@E@std@@@std@@@?$vector@EV?$allocator@E@std@@@std@@IAEPAEVconst_iterator@01@0PAE@Z
_TEXT	SEGMENT PARA USE32 PUBLIC 'CODE'
_TEXT	ENDS
;	COMDAT ?allocate@?$allocator@E@std@@QAEPAEI@Z
_TEXT	SEGMENT PARA USE32 PUBLIC 'CODE'
_TEXT	ENDS
;	COMDAT ??$_Allocate@E@std@@YAPAEIPAE@Z
_TEXT	SEGMENT PARA USE32 PUBLIC 'CODE'
_TEXT	ENDS
;	COMDAT ?_Xlen@?$vector@EV?$allocator@E@std@@@std@@IBEXXZ
_TEXT	SEGMENT PARA USE32 PUBLIC 'CODE'
_TEXT	ENDS
;	COMDAT ?size@?$vector@EV?$allocator@E@std@@@std@@QBEIXZ
_TEXT	SEGMENT PARA USE32 PUBLIC 'CODE'
_TEXT	ENDS
;	COMDAT ?max_size@?$vector@EV?$allocator@E@std@@@std@@QBEIXZ
_TEXT	SEGMENT PARA USE32 PUBLIC 'CODE'
_TEXT	ENDS
;	COMDAT ?max_size@?$allocator@E@std@@QBEIXZ
_TEXT	SEGMENT PARA USE32 PUBLIC 'CODE'
_TEXT	ENDS
;	COMDAT ?_Ptr_cat@std@@YA?AU_Scalar_ptr_iterator_tag@1@PAE0@Z
_TEXT	SEGMENT PARA USE32 PUBLIC 'CODE'
_TEXT	ENDS
;	COMDAT ??0const_iterator@?$vector@EV?$allocator@E@std@@@std@@QAE@PAE@Z
_TEXT	SEGMENT PARA USE32 PUBLIC 'CODE'
_TEXT	ENDS
;	COMDAT ?_Destroy@?$vector@EV?$allocator@E@std@@@std@@IAEXPAE0@Z
_TEXT	SEGMENT PARA USE32 PUBLIC 'CODE'
_TEXT	ENDS
;	COMDAT ??$_Destroy_range@EV?$allocator@E@std@@@std@@YAXPAE0AAV?$allocator@E@0@@Z
_TEXT	SEGMENT PARA USE32 PUBLIC 'CODE'
_TEXT	ENDS
;	COMDAT ??4?$basic_string@DU?$char_traits@D@std@@V?$allocator@D@2@@std@@QAEAAV01@ABV01@@Z
_TEXT	SEGMENT PARA USE32 PUBLIC 'CODE'
_TEXT	ENDS
;	COMDAT ?assign@?$basic_string@DU?$char_traits@D@std@@V?$allocator@D@2@@std@@QAEAAV12@ABV12@@Z
_TEXT	SEGMENT PARA USE32 PUBLIC 'CODE'
_TEXT	ENDS
;	COMDAT ?assign@?$basic_string@DU?$char_traits@D@std@@V?$allocator@D@2@@std@@QAEAAV12@ABV12@II@Z
_TEXT	SEGMENT PARA USE32 PUBLIC 'CODE'
_TEXT	ENDS
;	COMDAT ?erase@?$basic_string@DU?$char_traits@D@std@@V?$allocator@D@2@@std@@QAEAAV12@II@Z
_TEXT	SEGMENT PARA USE32 PUBLIC 'CODE'
_TEXT	ENDS
;	COMDAT ?move@?$char_traits@D@std@@SAPADPADPBDI@Z
_TEXT	SEGMENT PARA USE32 PUBLIC 'CODE'
_TEXT	ENDS
;	COMDAT ?_Grow@?$basic_string@DU?$char_traits@D@std@@V?$allocator@D@2@@std@@IAE_NI_N@Z
_TEXT	SEGMENT PARA USE32 PUBLIC 'CODE'
_TEXT	ENDS
;	COMDAT ?max_size@?$basic_string@DU?$char_traits@D@std@@V?$allocator@D@2@@std@@QBEIXZ
_TEXT	SEGMENT PARA USE32 PUBLIC 'CODE'
_TEXT	ENDS
;	COMDAT ?max_size@?$allocator@D@std@@QBEIXZ
_TEXT	SEGMENT PARA USE32 PUBLIC 'CODE'
_TEXT	ENDS
;	COMDAT ?_Copy@?$basic_string@DU?$char_traits@D@std@@V?$allocator@D@2@@std@@IAEXII@Z
_TEXT	SEGMENT PARA USE32 PUBLIC 'CODE'
_TEXT	ENDS
;	COMDAT ?allocate@?$allocator@D@std@@QAEPADI@Z
_TEXT	SEGMENT PARA USE32 PUBLIC 'CODE'
_TEXT	ENDS
;	COMDAT ??$_Allocate@D@std@@YAPADIPAD@Z
_TEXT	SEGMENT PARA USE32 PUBLIC 'CODE'
_TEXT	ENDS
;	COMDAT ?_Tidy@?$basic_string@DU?$char_traits@D@std@@V?$allocator@D@2@@std@@IAEX_NI@Z
_TEXT	SEGMENT PARA USE32 PUBLIC 'CODE'
_TEXT	ENDS
;	COMDAT ?deallocate@?$allocator@D@std@@QAEXPADI@Z
_TEXT	SEGMENT PARA USE32 PUBLIC 'CODE'
_TEXT	ENDS
;	COMDAT ?copy@?$char_traits@D@std@@SAPADPADPBDI@Z
_TEXT	SEGMENT PARA USE32 PUBLIC 'CODE'
_TEXT	ENDS
;	COMDAT ?_Myptr@?$basic_string@DU?$char_traits@D@std@@V?$allocator@D@2@@std@@QAEPADXZ
_TEXT	SEGMENT PARA USE32 PUBLIC 'CODE'
_TEXT	ENDS
;	COMDAT ?_Eos@?$basic_string@DU?$char_traits@D@std@@V?$allocator@D@2@@std@@IAEXI@Z
_TEXT	SEGMENT PARA USE32 PUBLIC 'CODE'
_TEXT	ENDS
;	COMDAT ?assign@?$char_traits@D@std@@SAXAADABD@Z
_TEXT	SEGMENT PARA USE32 PUBLIC 'CODE'
_TEXT	ENDS
;	COMDAT ?npos@?$basic_string@DU?$char_traits@D@std@@V?$allocator@D@2@@std@@2IB
CONST	SEGMENT DWORD USE32 PUBLIC 'CONST'
CONST	ENDS
;	COMDAT ?_Ptr_cat@std@@YA?AU_Scalar_ptr_iterator_tag@1@PAJ0@Z
_TEXT	SEGMENT PARA USE32 PUBLIC 'CODE'
_TEXT	ENDS
;	COMDAT ??9const_iterator@?$_Tree@V?$_Tmap_traits@KEU?$less@K@std@@V?$allocator@U?$pair@$$CBKE@std@@@2@$0A@@std@@@std@@QBE_NABV012@@Z
_TEXT	SEGMENT PARA USE32 PUBLIC 'CODE'
_TEXT	ENDS
;	COMDAT ??8const_iterator@?$_Tree@V?$_Tmap_traits@KEU?$less@K@std@@V?$allocator@U?$pair@$$CBKE@std@@@2@$0A@@std@@@std@@QBE_NABV012@@Z
_TEXT	SEGMENT PARA USE32 PUBLIC 'CODE'
_TEXT	ENDS
;	COMDAT ??Eiterator@?$_Tree@V?$_Tmap_traits@KEU?$less@K@std@@V?$allocator@U?$pair@$$CBKE@std@@@2@$0A@@std@@@std@@QAEAAV012@XZ
_TEXT	SEGMENT PARA USE32 PUBLIC 'CODE'
_TEXT	ENDS
;	COMDAT ??Econst_iterator@?$_Tree@V?$_Tmap_traits@KEU?$less@K@std@@V?$allocator@U?$pair@$$CBKE@std@@@2@$0A@@std@@@std@@QAEAAV012@XZ
_TEXT	SEGMENT PARA USE32 PUBLIC 'CODE'
_TEXT	ENDS
;	COMDAT ?_Inc@const_iterator@?$_Tree@V?$_Tmap_traits@KEU?$less@K@std@@V?$allocator@U?$pair@$$CBKE@std@@@2@$0A@@std@@@std@@QAEXXZ
_TEXT	SEGMENT PARA USE32 PUBLIC 'CODE'
_TEXT	ENDS
;	COMDAT ?_Min@?$_Tree@V?$_Tmap_traits@KEU?$less@K@std@@V?$allocator@U?$pair@$$CBKE@std@@@2@$0A@@std@@@std@@KAPAU_Node@?$_Tree_nod@V?$_Tmap_traits@KEU?$less@K@std@@V?$allocator@U?$pair@$$CBKE@std@@@2@$0A@@std@@@2@PAU342@@Z
_TEXT	SEGMENT PARA USE32 PUBLIC 'CODE'
_TEXT	ENDS
;	COMDAT ?_Left@?$_Tree@V?$_Tmap_traits@KEU?$less@K@std@@V?$allocator@U?$pair@$$CBKE@std@@@2@$0A@@std@@@std@@KAAAPAU_Node@?$_Tree_nod@V?$_Tmap_traits@KEU?$less@K@std@@V?$allocator@U?$pair@$$CBKE@std@@@2@$0A@@std@@@2@PAU342@@Z
_TEXT	SEGMENT PARA USE32 PUBLIC 'CODE'
_TEXT	ENDS
;	COMDAT ?_Isnil@?$_Tree@V?$_Tmap_traits@KEU?$less@K@std@@V?$allocator@U?$pair@$$CBKE@std@@@2@$0A@@std@@@std@@KAAADPAU_Node@?$_Tree_nod@V?$_Tmap_traits@KEU?$less@K@std@@V?$allocator@U?$pair@$$CBKE@std@@@2@$0A@@std@@@2@@Z
_TEXT	SEGMENT PARA USE32 PUBLIC 'CODE'
_TEXT	ENDS
;	COMDAT ?_Parent@?$_Tree@V?$_Tmap_traits@KEU?$less@K@std@@V?$allocator@U?$pair@$$CBKE@std@@@2@$0A@@std@@@std@@KAAAPAU_Node@?$_Tree_nod@V?$_Tmap_traits@KEU?$less@K@std@@V?$allocator@U?$pair@$$CBKE@std@@@2@$0A@@std@@@2@PAU342@@Z
_TEXT	SEGMENT PARA USE32 PUBLIC 'CODE'
_TEXT	ENDS
;	COMDAT ?_Right@?$_Tree@V?$_Tmap_traits@KEU?$less@K@std@@V?$allocator@U?$pair@$$CBKE@std@@@2@$0A@@std@@@std@@KAAAPAU_Node@?$_Tree_nod@V?$_Tmap_traits@KEU?$less@K@std@@V?$allocator@U?$pair@$$CBKE@std@@@2@$0A@@std@@@2@PAU342@@Z
_TEXT	SEGMENT PARA USE32 PUBLIC 'CODE'
_TEXT	ENDS
;	COMDAT ??9const_iterator@?$_Tree@V?$_Tmap_traits@KPAVCCtrl@@U?$less@K@std@@V?$allocator@U?$pair@$$CBKPAVCCtrl@@@std@@@3@$0A@@std@@@std@@QBE_NABV012@@Z
_TEXT	SEGMENT PARA USE32 PUBLIC 'CODE'
_TEXT	ENDS
;	COMDAT ??9const_iterator@?$_Tree@V?$_Tmap_traits@KPAVCUser@@U?$less@K@std@@V?$allocator@U?$pair@$$CBKPAVCUser@@@std@@@3@$0A@@std@@@std@@QBE_NABV012@@Z
_TEXT	SEGMENT PARA USE32 PUBLIC 'CODE'
_TEXT	ENDS
;	COMDAT ??8const_iterator@?$_Tree@V?$_Tmap_traits@KPAVCUser@@U?$less@K@std@@V?$allocator@U?$pair@$$CBKPAVCUser@@@std@@@3@$0A@@std@@@std@@QBE_NABV012@@Z
_TEXT	SEGMENT PARA USE32 PUBLIC 'CODE'
_TEXT	ENDS
;	COMDAT ??Eiterator@?$_Tree@V?$_Tmap_traits@KPAVCUser@@U?$less@K@std@@V?$allocator@U?$pair@$$CBKPAVCUser@@@std@@@3@$0A@@std@@@std@@QAEAAV012@XZ
_TEXT	SEGMENT PARA USE32 PUBLIC 'CODE'
_TEXT	ENDS
;	COMDAT ??Econst_iterator@?$_Tree@V?$_Tmap_traits@KPAVCUser@@U?$less@K@std@@V?$allocator@U?$pair@$$CBKPAVCUser@@@std@@@3@$0A@@std@@@std@@QAEAAV012@XZ
_TEXT	SEGMENT PARA USE32 PUBLIC 'CODE'
_TEXT	ENDS
;	COMDAT ?_Inc@const_iterator@?$_Tree@V?$_Tmap_traits@KPAVCUser@@U?$less@K@std@@V?$allocator@U?$pair@$$CBKPAVCUser@@@std@@@3@$0A@@std@@@std@@QAEXXZ
_TEXT	SEGMENT PARA USE32 PUBLIC 'CODE'
_TEXT	ENDS
;	COMDAT ?_Min@?$_Tree@V?$_Tmap_traits@KPAVCUser@@U?$less@K@std@@V?$allocator@U?$pair@$$CBKPAVCUser@@@std@@@3@$0A@@std@@@std@@KAPAU_Node@?$_Tree_nod@V?$_Tmap_traits@KPAVCUser@@U?$less@K@std@@V?$allocator@U?$pair@$$CBKPAVCUser@@@std@@@3@$0A@@std@@@2@PAU342@@Z
_TEXT	SEGMENT PARA USE32 PUBLIC 'CODE'
_TEXT	ENDS
;	COMDAT ?_Left@?$_Tree@V?$_Tmap_traits@KPAVCUser@@U?$less@K@std@@V?$allocator@U?$pair@$$CBKPAVCUser@@@std@@@3@$0A@@std@@@std@@KAAAPAU_Node@?$_Tree_nod@V?$_Tmap_traits@KPAVCUser@@U?$less@K@std@@V?$allocator@U?$pair@$$CBKPAVCUser@@@std@@@3@$0A@@std@@@2@PAU342@@Z
_TEXT	SEGMENT PARA USE32 PUBLIC 'CODE'
_TEXT	ENDS
;	COMDAT ?_Isnil@?$_Tree@V?$_Tmap_traits@KPAVCUser@@U?$less@K@std@@V?$allocator@U?$pair@$$CBKPAVCUser@@@std@@@3@$0A@@std@@@std@@KAAADPAU_Node@?$_Tree_nod@V?$_Tmap_traits@KPAVCUser@@U?$less@K@std@@V?$allocator@U?$pair@$$CBKPAVCUser@@@std@@@3@$0A@@std@@@2@@Z
_TEXT	SEGMENT PARA USE32 PUBLIC 'CODE'
_TEXT	ENDS
;	COMDAT ?_Parent@?$_Tree@V?$_Tmap_traits@KPAVCUser@@U?$less@K@std@@V?$allocator@U?$pair@$$CBKPAVCUser@@@std@@@3@$0A@@std@@@std@@KAAAPAU_Node@?$_Tree_nod@V?$_Tmap_traits@KPAVCUser@@U?$less@K@std@@V?$allocator@U?$pair@$$CBKPAVCUser@@@std@@@3@$0A@@std@@@2@PAU342@@Z
_TEXT	SEGMENT PARA USE32 PUBLIC 'CODE'
_TEXT	ENDS
;	COMDAT ?_Right@?$_Tree@V?$_Tmap_traits@KPAVCUser@@U?$less@K@std@@V?$allocator@U?$pair@$$CBKPAVCUser@@@std@@@3@$0A@@std@@@std@@KAAAPAU_Node@?$_Tree_nod@V?$_Tmap_traits@KPAVCUser@@U?$less@K@std@@V?$allocator@U?$pair@$$CBKPAVCUser@@@std@@@3@$0A@@std@@@2@PAU342@@Z
_TEXT	SEGMENT PARA USE32 PUBLIC 'CODE'
_TEXT	ENDS
;	COMDAT ?_Psave@?$_Facetptr@V?$ctype@G@std@@@std@@2PBVfacet@locale@2@B
_DATA	SEGMENT DWORD USE32 PUBLIC 'DATA'
_DATA	ENDS
;	COMDAT ?_Psave@?$_Facetptr@V?$ctype@D@std@@@std@@2PBVfacet@locale@2@B
_DATA	SEGMENT DWORD USE32 PUBLIC 'DATA'
_DATA	ENDS
;	COMDAT ?_Color@?$_Tree@V?$_Tmap_traits@KHU?$less@K@std@@V?$allocator@U?$pair@$$CBKH@std@@@2@$0A@@std@@@std@@KAAADPAU_Node@?$_Tree_nod@V?$_Tmap_traits@KHU?$less@K@std@@V?$allocator@U?$pair@$$CBKH@std@@@2@$0A@@std@@@2@@Z
_TEXT	SEGMENT PARA USE32 PUBLIC 'CODE'
_TEXT	ENDS
;	COMDAT ?deallocate@?$allocator@U_Node@?$_Tree_nod@V?$_Tmap_traits@KHU?$less@K@std@@V?$allocator@U?$pair@$$CBKH@std@@@2@$0A@@std@@@std@@@std@@QAEXPAU_Node@?$_Tree_nod@V?$_Tmap_traits@KHU?$less@K@std@@V?$allocator@U?$pair@$$CBKH@std@@@2@$0A@@std@@@2@I@Z
_TEXT	SEGMENT PARA USE32 PUBLIC 'CODE'
_TEXT	ENDS
;	COMDAT ?destroy@?$allocator@PAU_Node@?$_Tree_nod@V?$_Tmap_traits@KHU?$less@K@std@@V?$allocator@U?$pair@$$CBKH@std@@@2@$0A@@std@@@std@@@std@@QAEXPAPAU_Node@?$_Tree_nod@V?$_Tmap_traits@KHU?$less@K@std@@V?$allocator@U?$pair@$$CBKH@std@@@2@$0A@@std@@@2@@Z
_TEXT	SEGMENT PARA USE32 PUBLIC 'CODE'
_TEXT	ENDS
;	COMDAT ??$_Destroy@PAU_Node@?$_Tree_nod@V?$_Tmap_traits@KHU?$less@K@std@@V?$allocator@U?$pair@$$CBKH@std@@@2@$0A@@std@@@std@@@std@@YAXPAPAU_Node@?$_Tree_nod@V?$_Tmap_traits@KHU?$less@K@std@@V?$allocator@U?$pair@$$CBKH@std@@@2@$0A@@std@@@0@@Z
_TEXT	SEGMENT PARA USE32 PUBLIC 'CODE'
_TEXT	ENDS
;	COMDAT ?_Right@?$_Tree@V?$_Tmap_traits@KHU?$less@K@std@@V?$allocator@U?$pair@$$CBKH@std@@@2@$0A@@std@@@std@@KAAAPAU_Node@?$_Tree_nod@V?$_Tmap_traits@KHU?$less@K@std@@V?$allocator@U?$pair@$$CBKH@std@@@2@$0A@@std@@@2@PAU342@@Z
_TEXT	SEGMENT PARA USE32 PUBLIC 'CODE'
_TEXT	ENDS
;	COMDAT ?_Parent@?$_Tree@V?$_Tmap_traits@KHU?$less@K@std@@V?$allocator@U?$pair@$$CBKH@std@@@2@$0A@@std@@@std@@KAAAPAU_Node@?$_Tree_nod@V?$_Tmap_traits@KHU?$less@K@std@@V?$allocator@U?$pair@$$CBKH@std@@@2@$0A@@std@@@2@PAU342@@Z
_TEXT	SEGMENT PARA USE32 PUBLIC 'CODE'
_TEXT	ENDS
;	COMDAT ?_Left@?$_Tree@V?$_Tmap_traits@KHU?$less@K@std@@V?$allocator@U?$pair@$$CBKH@std@@@2@$0A@@std@@@std@@KAAAPAU_Node@?$_Tree_nod@V?$_Tmap_traits@KHU?$less@K@std@@V?$allocator@U?$pair@$$CBKH@std@@@2@$0A@@std@@@2@PAU342@@Z
_TEXT	SEGMENT PARA USE32 PUBLIC 'CODE'
_TEXT	ENDS
;	COMDAT ??3@YAXPAX0@Z
_TEXT	SEGMENT PARA USE32 PUBLIC 'CODE'
_TEXT	ENDS
;	COMDAT ??2@YAPAXIPAX@Z
_TEXT	SEGMENT PARA USE32 PUBLIC 'CODE'
_TEXT	ENDS
;	COMDAT ??0?$basic_string@DU?$char_traits@D@std@@V?$allocator@D@2@@std@@QAE@ABV01@@Z
_TEXT	SEGMENT PARA USE32 PUBLIC 'CODE'
_TEXT	ENDS
;	COMDAT ??0?$_String_val@DV?$allocator@D@std@@@std@@IAE@V?$allocator@D@1@@Z
_TEXT	SEGMENT PARA USE32 PUBLIC 'CODE'
_TEXT	ENDS
;	COMDAT ??0?$allocator@D@std@@QAE@ABV01@@Z
_TEXT	SEGMENT PARA USE32 PUBLIC 'CODE'
_TEXT	ENDS
;	COMDAT ??_C@_0BD@OLBABOEK@vector?$DMT?$DO?5too?5long?$AA@
CONST	SEGMENT DWORD USE32 PUBLIC 'CONST'
CONST	ENDS
;	COMDAT ??$swap@D@std@@YAXAAD0@Z
_TEXT	SEGMENT PARA USE32 PUBLIC 'CODE'
_TEXT	ENDS
;	COMDAT __TI3?AVout_of_range@std@@
xdata$x	SEGMENT DWORD USE32 PUBLIC 'CONST'
xdata$x	ENDS
;	COMDAT ??1out_of_range@std@@UAE@XZ
_TEXT	SEGMENT PARA USE32 PUBLIC 'CODE'
_TEXT	ENDS
;	COMDAT ??_7out_of_range@std@@6B@
CONST	SEGMENT DWORD USE32 PUBLIC 'CONST'
CONST	ENDS
;	COMDAT ??_Gout_of_range@std@@UAEPAXI@Z
_TEXT	SEGMENT PARA USE32 PUBLIC 'CODE'
_TEXT	ENDS
;	COMDAT ?what@logic_error@std@@UBEPBDXZ
_TEXT	SEGMENT PARA USE32 PUBLIC 'CODE'
_TEXT	ENDS
;	COMDAT ??1logic_error@std@@UAE@XZ
_TEXT	SEGMENT PARA USE32 PUBLIC 'CODE'
_TEXT	ENDS
;	COMDAT ??_7logic_error@std@@6B@
CONST	SEGMENT DWORD USE32 PUBLIC 'CONST'
CONST	ENDS
;	COMDAT ??_Glogic_error@std@@UAEPAXI@Z
_TEXT	SEGMENT PARA USE32 PUBLIC 'CODE'
_TEXT	ENDS
;	COMDAT __CTA3?AVout_of_range@std@@
xdata$x	SEGMENT DWORD USE32 PUBLIC 'CONST'
xdata$x	ENDS
;	COMDAT __CT??_R0?AVout_of_range@std@@@8??0out_of_range@std@@QAE@ABV01@@Z40
xdata$x	SEGMENT DWORD USE32 PUBLIC 'CONST'
xdata$x	ENDS
;	COMDAT ??_R0?AVout_of_range@std@@@8
_DATA	SEGMENT DWORD USE32 PUBLIC 'DATA'
_DATA	ENDS
;	COMDAT ??0out_of_range@std@@QAE@ABV01@@Z
_TEXT	SEGMENT PARA USE32 PUBLIC 'CODE'
_TEXT	ENDS
;	COMDAT ??0logic_error@std@@QAE@ABV01@@Z
_TEXT	SEGMENT PARA USE32 PUBLIC 'CODE'
_TEXT	ENDS
;	COMDAT __CT??_R0?AVlogic_error@std@@@8??0logic_error@std@@QAE@ABV01@@Z40
xdata$x	SEGMENT DWORD USE32 PUBLIC 'CONST'
xdata$x	ENDS
;	COMDAT ??_R0?AVlogic_error@std@@@8
_DATA	SEGMENT DWORD USE32 PUBLIC 'DATA'
_DATA	ENDS
;	COMDAT __CT??_R0?AVexception@@@8??0exception@@QAE@ABV0@@Z12
xdata$x	SEGMENT DWORD USE32 PUBLIC 'CONST'
xdata$x	ENDS
;	COMDAT ??_R0?AVexception@@@8
_DATA	SEGMENT DWORD USE32 PUBLIC 'DATA'
_DATA	ENDS
;	COMDAT ??_C@_0BM@PAPJHAGI@invalid?5map?1set?$DMT?$DO?5iterator?$AA@
CONST	SEGMENT DWORD USE32 PUBLIC 'CONST'
CONST	ENDS
;	COMDAT ??0out_of_range@std@@QAE@ABV?$basic_string@DU?$char_traits@D@std@@V?$allocator@D@2@@1@@Z
_TEXT	SEGMENT PARA USE32 PUBLIC 'CODE'
_TEXT	ENDS
;	COMDAT ??0logic_error@std@@QAE@ABV?$basic_string@DU?$char_traits@D@std@@V?$allocator@D@2@@1@@Z
_TEXT	SEGMENT PARA USE32 PUBLIC 'CODE'
_TEXT	ENDS
;	COMDAT ?_Rmost@?$_Tree@V?$_Tmap_traits@KHU?$less@K@std@@V?$allocator@U?$pair@$$CBKH@std@@@2@$0A@@std@@@std@@IAEAAPAU_Node@?$_Tree_nod@V?$_Tmap_traits@KHU?$less@K@std@@V?$allocator@U?$pair@$$CBKH@std@@@2@$0A@@std@@@2@XZ
_TEXT	SEGMENT PARA USE32 PUBLIC 'CODE'
_TEXT	ENDS
;	COMDAT ?_Lmost@?$_Tree@V?$_Tmap_traits@KHU?$less@K@std@@V?$allocator@U?$pair@$$CBKH@std@@@2@$0A@@std@@@std@@IAEAAPAU_Node@?$_Tree_nod@V?$_Tmap_traits@KHU?$less@K@std@@V?$allocator@U?$pair@$$CBKH@std@@@2@$0A@@std@@@2@XZ
_TEXT	SEGMENT PARA USE32 PUBLIC 'CODE'
_TEXT	ENDS
;	COMDAT ?_Root@?$_Tree@V?$_Tmap_traits@KHU?$less@K@std@@V?$allocator@U?$pair@$$CBKH@std@@@2@$0A@@std@@@std@@IAEAAPAU_Node@?$_Tree_nod@V?$_Tmap_traits@KHU?$less@K@std@@V?$allocator@U?$pair@$$CBKH@std@@@2@$0A@@std@@@2@XZ
_TEXT	SEGMENT PARA USE32 PUBLIC 'CODE'
_TEXT	ENDS
;	COMDAT ?_Isnil@?$_Tree@V?$_Tmap_traits@KHU?$less@K@std@@V?$allocator@U?$pair@$$CBKH@std@@@2@$0A@@std@@@std@@KAAADPAU_Node@?$_Tree_nod@V?$_Tmap_traits@KHU?$less@K@std@@V?$allocator@U?$pair@$$CBKH@std@@@2@$0A@@std@@@2@@Z
_TEXT	SEGMENT PARA USE32 PUBLIC 'CODE'
_TEXT	ENDS
;	COMDAT __TI3?AVlength_error@std@@
xdata$x	SEGMENT DWORD USE32 PUBLIC 'CONST'
xdata$x	ENDS
;	COMDAT ??1length_error@std@@UAE@XZ
_TEXT	SEGMENT PARA USE32 PUBLIC 'CODE'
_TEXT	ENDS
;	COMDAT ??_7length_error@std@@6B@
CONST	SEGMENT DWORD USE32 PUBLIC 'CONST'
CONST	ENDS
;	COMDAT ??_Glength_error@std@@UAEPAXI@Z
_TEXT	SEGMENT PARA USE32 PUBLIC 'CODE'
_TEXT	ENDS
;	COMDAT __CTA3?AVlength_error@std@@
xdata$x	SEGMENT DWORD USE32 PUBLIC 'CONST'
xdata$x	ENDS
;	COMDAT __CT??_R0?AVlength_error@std@@@8??0length_error@std@@QAE@ABV01@@Z40
xdata$x	SEGMENT DWORD USE32 PUBLIC 'CONST'
xdata$x	ENDS
;	COMDAT ??_R0?AVlength_error@std@@@8
_DATA	SEGMENT DWORD USE32 PUBLIC 'DATA'
_DATA	ENDS
;	COMDAT ??0length_error@std@@QAE@ABV01@@Z
_TEXT	SEGMENT PARA USE32 PUBLIC 'CODE'
_TEXT	ENDS
;	COMDAT ??_C@_0BE@JONHPENG@map?1set?$DMT?$DO?5too?5long?$AA@
CONST	SEGMENT DWORD USE32 PUBLIC 'CONST'
CONST	ENDS
;	COMDAT ??0length_error@std@@QAE@ABV?$basic_string@DU?$char_traits@D@std@@V?$allocator@D@2@@1@@Z
_TEXT	SEGMENT PARA USE32 PUBLIC 'CODE'
_TEXT	ENDS
;	COMDAT ?insert@?$_Tree@V?$_Tmap_traits@KPAVCCtrl@@U?$less@K@std@@V?$allocator@U?$pair@$$CBKPAVCCtrl@@@std@@@3@$0A@@std@@@std@@QAE?AU?$pair@Viterator@?$_Tree@V?$_Tmap_traits@KPAVCCtrl@@U?$less@K@std@@V?$allocator@U?$pair@$$CBKPAVCCtrl@@@std@@@3@$0A@@std@@@std@@_N@2@ABU?$pair@$$CBKPAVCCtrl@@@2@@Z
_TEXT	SEGMENT PARA USE32 PUBLIC 'CODE'
_TEXT	ENDS
;	COMDAT ?_Root@?$_Tree@V?$_Tmap_traits@KPAVCCtrl@@U?$less@K@std@@V?$allocator@U?$pair@$$CBKPAVCCtrl@@@std@@@3@$0A@@std@@@std@@IAEAAPAU_Node@?$_Tree_nod@V?$_Tmap_traits@KPAVCCtrl@@U?$less@K@std@@V?$allocator@U?$pair@$$CBKPAVCCtrl@@@std@@@3@$0A@@std@@@2@XZ
_TEXT	SEGMENT PARA USE32 PUBLIC 'CODE'
_TEXT	ENDS
;	COMDAT ?_Parent@?$_Tree@V?$_Tmap_traits@KPAVCCtrl@@U?$less@K@std@@V?$allocator@U?$pair@$$CBKPAVCCtrl@@@std@@@3@$0A@@std@@@std@@KAAAPAU_Node@?$_Tree_nod@V?$_Tmap_traits@KPAVCCtrl@@U?$less@K@std@@V?$allocator@U?$pair@$$CBKPAVCCtrl@@@std@@@3@$0A@@std@@@2@PAU342@@Z
_TEXT	SEGMENT PARA USE32 PUBLIC 'CODE'
_TEXT	ENDS
;	COMDAT ?_Left@?$_Tree@V?$_Tmap_traits@KPAVCCtrl@@U?$less@K@std@@V?$allocator@U?$pair@$$CBKPAVCCtrl@@@std@@@3@$0A@@std@@@std@@KAAAPAU_Node@?$_Tree_nod@V?$_Tmap_traits@KPAVCCtrl@@U?$less@K@std@@V?$allocator@U?$pair@$$CBKPAVCCtrl@@@std@@@3@$0A@@std@@@2@PAU342@@Z
_TEXT	SEGMENT PARA USE32 PUBLIC 'CODE'
_TEXT	ENDS
;	COMDAT ??0iterator@?$_Tree@V?$_Tmap_traits@KPAVCCtrl@@U?$less@K@std@@V?$allocator@U?$pair@$$CBKPAVCCtrl@@@std@@@3@$0A@@std@@@std@@QAE@PAU_Node@?$_Tree_nod@V?$_Tmap_traits@KPAVCCtrl@@U?$less@K@std@@V?$allocator@U?$pair@$$CBKPAVCCtrl@@@std@@@3@$0A@@std@@@2@@Z
_TEXT	SEGMENT PARA USE32 PUBLIC 'CODE'
_TEXT	ENDS
;	COMDAT ??0const_iterator@?$_Tree@V?$_Tmap_traits@KPAVCCtrl@@U?$less@K@std@@V?$allocator@U?$pair@$$CBKPAVCCtrl@@@std@@@3@$0A@@std@@@std@@QAE@PAU_Node@?$_Tree_nod@V?$_Tmap_traits@KPAVCCtrl@@U?$less@K@std@@V?$allocator@U?$pair@$$CBKPAVCCtrl@@@std@@@3@$0A@@std@@@2@@Z
_TEXT	SEGMENT PARA USE32 PUBLIC 'CODE'
_TEXT	ENDS
;	COMDAT ??0?$pair@Viterator@?$_Tree@V?$_Tmap_traits@KPAVCCtrl@@U?$less@K@std@@V?$allocator@U?$pair@$$CBKPAVCCtrl@@@std@@@3@$0A@@std@@@std@@_N@std@@QAE@ABViterator@?$_Tree@V?$_Tmap_traits@KPAVCCtrl@@U?$less@K@std@@V?$allocator@U?$pair@$$CBKPAVCCtrl@@@std@@@3@$0A@@std@@@1@AB_N@Z
_TEXT	SEGMENT PARA USE32 PUBLIC 'CODE'
_TEXT	ENDS
;	COMDAT ??Eiterator@?$_Tree@V?$_Tmap_traits@KPAVCCtrl@@U?$less@K@std@@V?$allocator@U?$pair@$$CBKPAVCCtrl@@@std@@@3@$0A@@std@@@std@@QAEAAV012@XZ
_TEXT	SEGMENT PARA USE32 PUBLIC 'CODE'
_TEXT	ENDS
;	COMDAT ??Econst_iterator@?$_Tree@V?$_Tmap_traits@KPAVCCtrl@@U?$less@K@std@@V?$allocator@U?$pair@$$CBKPAVCCtrl@@@std@@@3@$0A@@std@@@std@@QAEAAV012@XZ
_TEXT	SEGMENT PARA USE32 PUBLIC 'CODE'
_TEXT	ENDS
;	COMDAT ?_Inc@const_iterator@?$_Tree@V?$_Tmap_traits@KPAVCCtrl@@U?$less@K@std@@V?$allocator@U?$pair@$$CBKPAVCCtrl@@@std@@@3@$0A@@std@@@std@@QAEXXZ
_TEXT	SEGMENT PARA USE32 PUBLIC 'CODE'
_TEXT	ENDS
;	COMDAT ?_Min@?$_Tree@V?$_Tmap_traits@KPAVCCtrl@@U?$less@K@std@@V?$allocator@U?$pair@$$CBKPAVCCtrl@@@std@@@3@$0A@@std@@@std@@KAPAU_Node@?$_Tree_nod@V?$_Tmap_traits@KPAVCCtrl@@U?$less@K@std@@V?$allocator@U?$pair@$$CBKPAVCCtrl@@@std@@@3@$0A@@std@@@2@PAU342@@Z
_TEXT	SEGMENT PARA USE32 PUBLIC 'CODE'
_TEXT	ENDS
;	COMDAT ?_Right@?$_Tree@V?$_Tmap_traits@KPAVCCtrl@@U?$less@K@std@@V?$allocator@U?$pair@$$CBKPAVCCtrl@@@std@@@3@$0A@@std@@@std@@KAAAPAU_Node@?$_Tree_nod@V?$_Tmap_traits@KPAVCCtrl@@U?$less@K@std@@V?$allocator@U?$pair@$$CBKPAVCCtrl@@@std@@@3@$0A@@std@@@2@PAU342@@Z
_TEXT	SEGMENT PARA USE32 PUBLIC 'CODE'
_TEXT	ENDS
;	COMDAT ?_Isnil@?$_Tree@V?$_Tmap_traits@KPAVCCtrl@@U?$less@K@std@@V?$allocator@U?$pair@$$CBKPAVCCtrl@@@std@@@3@$0A@@std@@@std@@KAAADPAU_Node@?$_Tree_nod@V?$_Tmap_traits@KPAVCCtrl@@U?$less@K@std@@V?$allocator@U?$pair@$$CBKPAVCCtrl@@@std@@@3@$0A@@std@@@2@@Z
_TEXT	SEGMENT PARA USE32 PUBLIC 'CODE'
_TEXT	ENDS
;	COMDAT ??Fiterator@?$_Tree@V?$_Tmap_traits@KPAVCCtrl@@U?$less@K@std@@V?$allocator@U?$pair@$$CBKPAVCCtrl@@@std@@@3@$0A@@std@@@std@@QAEAAV012@XZ
_TEXT	SEGMENT PARA USE32 PUBLIC 'CODE'
_TEXT	ENDS
;	COMDAT ??Fconst_iterator@?$_Tree@V?$_Tmap_traits@KPAVCCtrl@@U?$less@K@std@@V?$allocator@U?$pair@$$CBKPAVCCtrl@@@std@@@3@$0A@@std@@@std@@QAEAAV012@XZ
_TEXT	SEGMENT PARA USE32 PUBLIC 'CODE'
_TEXT	ENDS
;	COMDAT ?_Dec@const_iterator@?$_Tree@V?$_Tmap_traits@KPAVCCtrl@@U?$less@K@std@@V?$allocator@U?$pair@$$CBKPAVCCtrl@@@std@@@3@$0A@@std@@@std@@QAEXXZ
_TEXT	SEGMENT PARA USE32 PUBLIC 'CODE'
_TEXT	ENDS
;	COMDAT ?_Max@?$_Tree@V?$_Tmap_traits@KPAVCCtrl@@U?$less@K@std@@V?$allocator@U?$pair@$$CBKPAVCCtrl@@@std@@@3@$0A@@std@@@std@@KAPAU_Node@?$_Tree_nod@V?$_Tmap_traits@KPAVCCtrl@@U?$less@K@std@@V?$allocator@U?$pair@$$CBKPAVCCtrl@@@std@@@3@$0A@@std@@@2@PAU342@@Z
_TEXT	SEGMENT PARA USE32 PUBLIC 'CODE'
_TEXT	ENDS
;	COMDAT ?_Rmost@?$_Tree@V?$_Tmap_traits@KPAVCCtrl@@U?$less@K@std@@V?$allocator@U?$pair@$$CBKPAVCCtrl@@@std@@@3@$0A@@std@@@std@@IAEAAPAU_Node@?$_Tree_nod@V?$_Tmap_traits@KPAVCCtrl@@U?$less@K@std@@V?$allocator@U?$pair@$$CBKPAVCCtrl@@@std@@@3@$0A@@std@@@2@XZ
_TEXT	SEGMENT PARA USE32 PUBLIC 'CODE'
_TEXT	ENDS
;	COMDAT ?_Kfn@?$_Tmap_traits@KPAVCCtrl@@U?$less@K@std@@V?$allocator@U?$pair@$$CBKPAVCCtrl@@@std@@@3@$0A@@std@@SAABKABU?$pair@$$CBKPAVCCtrl@@@2@@Z
_TEXT	SEGMENT PARA USE32 PUBLIC 'CODE'
_TEXT	ENDS
;	COMDAT ?begin@?$_Tree@V?$_Tmap_traits@KPAVCCtrl@@U?$less@K@std@@V?$allocator@U?$pair@$$CBKPAVCCtrl@@@std@@@3@$0A@@std@@@std@@QAE?AViterator@12@XZ
_TEXT	SEGMENT PARA USE32 PUBLIC 'CODE'
_TEXT	ENDS
;	COMDAT ?_Lmost@?$_Tree@V?$_Tmap_traits@KPAVCCtrl@@U?$less@K@std@@V?$allocator@U?$pair@$$CBKPAVCCtrl@@@std@@@3@$0A@@std@@@std@@IAEAAPAU_Node@?$_Tree_nod@V?$_Tmap_traits@KPAVCCtrl@@U?$less@K@std@@V?$allocator@U?$pair@$$CBKPAVCCtrl@@@std@@@3@$0A@@std@@@2@XZ
_TEXT	SEGMENT PARA USE32 PUBLIC 'CODE'
_TEXT	ENDS
;	COMDAT ?_Insert@?$_Tree@V?$_Tmap_traits@KPAVCCtrl@@U?$less@K@std@@V?$allocator@U?$pair@$$CBKPAVCCtrl@@@std@@@3@$0A@@std@@@std@@IAE?AViterator@12@_NPAU_Node@?$_Tree_nod@V?$_Tmap_traits@KPAVCCtrl@@U?$less@K@std@@V?$allocator@U?$pair@$$CBKPAVCCtrl@@@std@@@3@$0A@@std@@@2@ABU?$pair@$$CBKPAVCCtrl@@@2@@Z
_TEXT	SEGMENT PARA USE32 PUBLIC 'CODE'
_TEXT	ENDS
;	COMDAT ?max_size@?$_Tree@V?$_Tmap_traits@KPAVCCtrl@@U?$less@K@std@@V?$allocator@U?$pair@$$CBKPAVCCtrl@@@std@@@3@$0A@@std@@@std@@QBEIXZ
_TEXT	SEGMENT PARA USE32 PUBLIC 'CODE'
_TEXT	ENDS
;	COMDAT ?max_size@?$allocator@U?$pair@$$CBKPAVCCtrl@@@std@@@std@@QBEIXZ
_TEXT	SEGMENT PARA USE32 PUBLIC 'CODE'
_TEXT	ENDS
;	COMDAT ?_Buynode@?$_Tree@V?$_Tmap_traits@KPAVCCtrl@@U?$less@K@std@@V?$allocator@U?$pair@$$CBKPAVCCtrl@@@std@@@3@$0A@@std@@@std@@IAEPAU_Node@?$_Tree_nod@V?$_Tmap_traits@KPAVCCtrl@@U?$less@K@std@@V?$allocator@U?$pair@$$CBKPAVCCtrl@@@std@@@3@$0A@@std@@@2@PAU342@00ABU?$pair@$$CBKPAVCCtrl@@@2@D@Z
_TEXT	SEGMENT PARA USE32 PUBLIC 'CODE'
_TEXT	ENDS
;	COMDAT ?allocate@?$allocator@U_Node@?$_Tree_nod@V?$_Tmap_traits@KPAVCCtrl@@U?$less@K@std@@V?$allocator@U?$pair@$$CBKPAVCCtrl@@@std@@@3@$0A@@std@@@std@@@std@@QAEPAU_Node@?$_Tree_nod@V?$_Tmap_traits@KPAVCCtrl@@U?$less@K@std@@V?$allocator@U?$pair@$$CBKPAVCCtrl@@@std@@@3@$0A@@std@@@2@I@Z
_TEXT	SEGMENT PARA USE32 PUBLIC 'CODE'
_TEXT	ENDS
;	COMDAT ??$_Allocate@U_Node@?$_Tree_nod@V?$_Tmap_traits@KPAVCCtrl@@U?$less@K@std@@V?$allocator@U?$pair@$$CBKPAVCCtrl@@@std@@@3@$0A@@std@@@std@@@std@@YAPAU_Node@?$_Tree_nod@V?$_Tmap_traits@KPAVCCtrl@@U?$less@K@std@@V?$allocator@U?$pair@$$CBKPAVCCtrl@@@std@@@3@$0A@@std@@@0@IPAU120@@Z
_TEXT	SEGMENT PARA USE32 PUBLIC 'CODE'
_TEXT	ENDS
;	COMDAT ??0_Node@?$_Tree_nod@V?$_Tmap_traits@KPAVCCtrl@@U?$less@K@std@@V?$allocator@U?$pair@$$CBKPAVCCtrl@@@std@@@3@$0A@@std@@@std@@QAE@PAU012@00ABU?$pair@$$CBKPAVCCtrl@@@2@D@Z
_TEXT	SEGMENT PARA USE32 PUBLIC 'CODE'
_TEXT	ENDS
;	COMDAT ?deallocate@?$allocator@U_Node@?$_Tree_nod@V?$_Tmap_traits@KPAVCCtrl@@U?$less@K@std@@V?$allocator@U?$pair@$$CBKPAVCCtrl@@@std@@@3@$0A@@std@@@std@@@std@@QAEXPAU_Node@?$_Tree_nod@V?$_Tmap_traits@KPAVCCtrl@@U?$less@K@std@@V?$allocator@U?$pair@$$CBKPAVCCtrl@@@std@@@3@$0A@@std@@@2@I@Z
_TEXT	SEGMENT PARA USE32 PUBLIC 'CODE'
_TEXT	ENDS
;	COMDAT ?_Rrotate@?$_Tree@V?$_Tmap_traits@KPAVCCtrl@@U?$less@K@std@@V?$allocator@U?$pair@$$CBKPAVCCtrl@@@std@@@3@$0A@@std@@@std@@IAEXPAU_Node@?$_Tree_nod@V?$_Tmap_traits@KPAVCCtrl@@U?$less@K@std@@V?$allocator@U?$pair@$$CBKPAVCCtrl@@@std@@@3@$0A@@std@@@2@@Z
_TEXT	SEGMENT PARA USE32 PUBLIC 'CODE'
_TEXT	ENDS
;	COMDAT ?_Lrotate@?$_Tree@V?$_Tmap_traits@KPAVCCtrl@@U?$less@K@std@@V?$allocator@U?$pair@$$CBKPAVCCtrl@@@std@@@3@$0A@@std@@@std@@IAEXPAU_Node@?$_Tree_nod@V?$_Tmap_traits@KPAVCCtrl@@U?$less@K@std@@V?$allocator@U?$pair@$$CBKPAVCCtrl@@@std@@@3@$0A@@std@@@2@@Z
_TEXT	SEGMENT PARA USE32 PUBLIC 'CODE'
_TEXT	ENDS
;	COMDAT ?_Color@?$_Tree@V?$_Tmap_traits@KPAVCCtrl@@U?$less@K@std@@V?$allocator@U?$pair@$$CBKPAVCCtrl@@@std@@@3@$0A@@std@@@std@@KAAADPAU_Node@?$_Tree_nod@V?$_Tmap_traits@KPAVCCtrl@@U?$less@K@std@@V?$allocator@U?$pair@$$CBKPAVCCtrl@@@std@@@3@$0A@@std@@@2@@Z
_TEXT	SEGMENT PARA USE32 PUBLIC 'CODE'
_TEXT	ENDS
;	COMDAT ?compare@?$char_traits@D@std@@SAHPBD0I@Z
_TEXT	SEGMENT PARA USE32 PUBLIC 'CODE'
_TEXT	ENDS
;	COMDAT ??1?$_Tree@V?$_Tmap_traits@KHU?$less@K@std@@V?$allocator@U?$pair@$$CBKH@std@@@2@$0A@@std@@@std@@QAE@XZ
_TEXT	SEGMENT PARA USE32 PUBLIC 'CODE'
_TEXT	ENDS
;	COMDAT ?_Tidy@?$_Tree@V?$_Tmap_traits@KHU?$less@K@std@@V?$allocator@U?$pair@$$CBKH@std@@@2@$0A@@std@@@std@@IAEXXZ
_TEXT	SEGMENT PARA USE32 PUBLIC 'CODE'
_TEXT	ENDS
;	COMDAT ?erase@?$_Tree@V?$_Tmap_traits@KHU?$less@K@std@@V?$allocator@U?$pair@$$CBKH@std@@@2@$0A@@std@@@std@@QAE?AViterator@12@V312@0@Z
_TEXT	SEGMENT PARA USE32 PUBLIC 'CODE'
_TEXT	ENDS
;	COMDAT ??8const_iterator@?$_Tree@V?$_Tmap_traits@KHU?$less@K@std@@V?$allocator@U?$pair@$$CBKH@std@@@2@$0A@@std@@@std@@QBE_NABV012@@Z
_TEXT	SEGMENT PARA USE32 PUBLIC 'CODE'
_TEXT	ENDS
;	COMDAT ?clear@?$_Tree@V?$_Tmap_traits@KHU?$less@K@std@@V?$allocator@U?$pair@$$CBKH@std@@@2@$0A@@std@@@std@@QAEXXZ
_TEXT	SEGMENT PARA USE32 PUBLIC 'CODE'
_TEXT	ENDS
;	COMDAT ?_Erase@?$_Tree@V?$_Tmap_traits@KHU?$less@K@std@@V?$allocator@U?$pair@$$CBKH@std@@@2@$0A@@std@@@std@@IAEXPAU_Node@?$_Tree_nod@V?$_Tmap_traits@KHU?$less@K@std@@V?$allocator@U?$pair@$$CBKH@std@@@2@$0A@@std@@@2@@Z
_TEXT	SEGMENT PARA USE32 PUBLIC 'CODE'
_TEXT	ENDS
;	COMDAT ?destroy@?$allocator@U_Node@?$_Tree_nod@V?$_Tmap_traits@KHU?$less@K@std@@V?$allocator@U?$pair@$$CBKH@std@@@2@$0A@@std@@@std@@@std@@QAEXPAU_Node@?$_Tree_nod@V?$_Tmap_traits@KHU?$less@K@std@@V?$allocator@U?$pair@$$CBKH@std@@@2@$0A@@std@@@2@@Z
_TEXT	SEGMENT PARA USE32 PUBLIC 'CODE'
_TEXT	ENDS
;	COMDAT ??$_Destroy@U_Node@?$_Tree_nod@V?$_Tmap_traits@KHU?$less@K@std@@V?$allocator@U?$pair@$$CBKH@std@@@2@$0A@@std@@@std@@@std@@YAXPAU_Node@?$_Tree_nod@V?$_Tmap_traits@KHU?$less@K@std@@V?$allocator@U?$pair@$$CBKH@std@@@2@$0A@@std@@@0@@Z
_TEXT	SEGMENT PARA USE32 PUBLIC 'CODE'
_TEXT	ENDS
;	COMDAT ?erase@?$_Tree@V?$_Tmap_traits@KHU?$less@K@std@@V?$allocator@U?$pair@$$CBKH@std@@@2@$0A@@std@@@std@@QAE?AViterator@12@V312@@Z
_TEXT	SEGMENT PARA USE32 PUBLIC 'CODE'
_TEXT	ENDS
;	COMDAT ??Eiterator@?$_Tree@V?$_Tmap_traits@KHU?$less@K@std@@V?$allocator@U?$pair@$$CBKH@std@@@2@$0A@@std@@@std@@QAEAAV012@XZ
_TEXT	SEGMENT PARA USE32 PUBLIC 'CODE'
_TEXT	ENDS
;	COMDAT ??Econst_iterator@?$_Tree@V?$_Tmap_traits@KHU?$less@K@std@@V?$allocator@U?$pair@$$CBKH@std@@@2@$0A@@std@@@std@@QAEAAV012@XZ
_TEXT	SEGMENT PARA USE32 PUBLIC 'CODE'
_TEXT	ENDS
;	COMDAT ?_Inc@const_iterator@?$_Tree@V?$_Tmap_traits@KHU?$less@K@std@@V?$allocator@U?$pair@$$CBKH@std@@@2@$0A@@std@@@std@@QAEXXZ
_TEXT	SEGMENT PARA USE32 PUBLIC 'CODE'
_TEXT	ENDS
;	COMDAT ?_Mynode@const_iterator@?$_Tree@V?$_Tmap_traits@KHU?$less@K@std@@V?$allocator@U?$pair@$$CBKH@std@@@2@$0A@@std@@@std@@QBEPAU_Node@?$_Tree_nod@V?$_Tmap_traits@KHU?$less@K@std@@V?$allocator@U?$pair@$$CBKH@std@@@2@$0A@@std@@@3@XZ
_TEXT	SEGMENT PARA USE32 PUBLIC 'CODE'
_TEXT	ENDS
;	COMDAT ?_Min@?$_Tree@V?$_Tmap_traits@KHU?$less@K@std@@V?$allocator@U?$pair@$$CBKH@std@@@2@$0A@@std@@@std@@KAPAU_Node@?$_Tree_nod@V?$_Tmap_traits@KHU?$less@K@std@@V?$allocator@U?$pair@$$CBKH@std@@@2@$0A@@std@@@2@PAU342@@Z
_TEXT	SEGMENT PARA USE32 PUBLIC 'CODE'
_TEXT	ENDS
;	COMDAT ?_Max@?$_Tree@V?$_Tmap_traits@KHU?$less@K@std@@V?$allocator@U?$pair@$$CBKH@std@@@2@$0A@@std@@@std@@KAPAU_Node@?$_Tree_nod@V?$_Tmap_traits@KHU?$less@K@std@@V?$allocator@U?$pair@$$CBKH@std@@@2@$0A@@std@@@2@PAU342@@Z
_TEXT	SEGMENT PARA USE32 PUBLIC 'CODE'
_TEXT	ENDS
;	COMDAT ?_Lrotate@?$_Tree@V?$_Tmap_traits@KHU?$less@K@std@@V?$allocator@U?$pair@$$CBKH@std@@@2@$0A@@std@@@std@@IAEXPAU_Node@?$_Tree_nod@V?$_Tmap_traits@KHU?$less@K@std@@V?$allocator@U?$pair@$$CBKH@std@@@2@$0A@@std@@@2@@Z
_TEXT	SEGMENT PARA USE32 PUBLIC 'CODE'
_TEXT	ENDS
;	COMDAT ?_Rrotate@?$_Tree@V?$_Tmap_traits@KHU?$less@K@std@@V?$allocator@U?$pair@$$CBKH@std@@@2@$0A@@std@@@std@@IAEXPAU_Node@?$_Tree_nod@V?$_Tmap_traits@KHU?$less@K@std@@V?$allocator@U?$pair@$$CBKH@std@@@2@$0A@@std@@@2@@Z
_TEXT	SEGMENT PARA USE32 PUBLIC 'CODE'
_TEXT	ENDS
;	COMDAT ??Diterator@?$_Tree@V?$_Tmap_traits@KPAVCCtrl@@U?$less@K@std@@V?$allocator@U?$pair@$$CBKPAVCCtrl@@@std@@@3@$0A@@std@@@std@@QBEAAU?$pair@$$CBKPAVCCtrl@@@2@XZ
_TEXT	SEGMENT PARA USE32 PUBLIC 'CODE'
_TEXT	ENDS
;	COMDAT ??Dconst_iterator@?$_Tree@V?$_Tmap_traits@KPAVCCtrl@@U?$less@K@std@@V?$allocator@U?$pair@$$CBKPAVCCtrl@@@std@@@3@$0A@@std@@@std@@QBEABU?$pair@$$CBKPAVCCtrl@@@2@XZ
_TEXT	SEGMENT PARA USE32 PUBLIC 'CODE'
_TEXT	ENDS
;	COMDAT ?_Myval@?$_Tree@V?$_Tmap_traits@KPAVCCtrl@@U?$less@K@std@@V?$allocator@U?$pair@$$CBKPAVCCtrl@@@std@@@3@$0A@@std@@@std@@KAAAU?$pair@$$CBKPAVCCtrl@@@2@PAU_Node@?$_Tree_nod@V?$_Tmap_traits@KPAVCCtrl@@U?$less@K@std@@V?$allocator@U?$pair@$$CBKPAVCCtrl@@@std@@@3@$0A@@std@@@2@@Z
_TEXT	SEGMENT PARA USE32 PUBLIC 'CODE'
_TEXT	ENDS
;	COMDAT ?_Mynode@const_iterator@?$_Tree@V?$_Tmap_traits@KPAVCCtrl@@U?$less@K@std@@V?$allocator@U?$pair@$$CBKPAVCCtrl@@@std@@@3@$0A@@std@@@std@@QBEPAU_Node@?$_Tree_nod@V?$_Tmap_traits@KPAVCCtrl@@U?$less@K@std@@V?$allocator@U?$pair@$$CBKPAVCCtrl@@@std@@@3@$0A@@std@@@3@XZ
_TEXT	SEGMENT PARA USE32 PUBLIC 'CODE'
_TEXT	ENDS
;	COMDAT ?_Key@?$_Tree@V?$_Tmap_traits@KPAVCCtrl@@U?$less@K@std@@V?$allocator@U?$pair@$$CBKPAVCCtrl@@@std@@@3@$0A@@std@@@std@@KAABKPAU_Node@?$_Tree_nod@V?$_Tmap_traits@KPAVCCtrl@@U?$less@K@std@@V?$allocator@U?$pair@$$CBKPAVCCtrl@@@std@@@3@$0A@@std@@@2@@Z
_TEXT	SEGMENT PARA USE32 PUBLIC 'CODE'
_TEXT	ENDS
;	COMDAT ??R?$less@K@std@@QBE_NABK0@Z
_TEXT	SEGMENT PARA USE32 PUBLIC 'CODE'
_TEXT	ENDS
;	COMDAT ?end@?$_Tree@V?$_Tmap_traits@KPAVCCtrl@@U?$less@K@std@@V?$allocator@U?$pair@$$CBKPAVCCtrl@@@std@@@3@$0A@@std@@@std@@QAE?AViterator@12@XZ
_TEXT	SEGMENT PARA USE32 PUBLIC 'CODE'
_TEXT	ENDS
;	COMDAT ??8const_iterator@?$_Tree@V?$_Tmap_traits@KPAVCCtrl@@U?$less@K@std@@V?$allocator@U?$pair@$$CBKPAVCCtrl@@@std@@@3@$0A@@std@@@std@@QBE_NABV012@@Z
_TEXT	SEGMENT PARA USE32 PUBLIC 'CODE'
_TEXT	ENDS
;	COMDAT ?lower_bound@?$_Tree@V?$_Tmap_traits@KPAVCCtrl@@U?$less@K@std@@V?$allocator@U?$pair@$$CBKPAVCCtrl@@@std@@@3@$0A@@std@@@std@@QAE?AViterator@12@ABK@Z
_TEXT	SEGMENT PARA USE32 PUBLIC 'CODE'
_TEXT	ENDS
;	COMDAT ?_Lbound@?$_Tree@V?$_Tmap_traits@KPAVCCtrl@@U?$less@K@std@@V?$allocator@U?$pair@$$CBKPAVCCtrl@@@std@@@3@$0A@@std@@@std@@IBEPAU_Node@?$_Tree_nod@V?$_Tmap_traits@KPAVCCtrl@@U?$less@K@std@@V?$allocator@U?$pair@$$CBKPAVCCtrl@@@std@@@3@$0A@@std@@@2@ABK@Z
_TEXT	SEGMENT PARA USE32 PUBLIC 'CODE'
_TEXT	ENDS
;	COMDAT ?_Root@?$_Tree@V?$_Tmap_traits@KPAVCCtrl@@U?$less@K@std@@V?$allocator@U?$pair@$$CBKPAVCCtrl@@@std@@@3@$0A@@std@@@std@@IBEAAPAU_Node@?$_Tree_nod@V?$_Tmap_traits@KPAVCCtrl@@U?$less@K@std@@V?$allocator@U?$pair@$$CBKPAVCCtrl@@@std@@@3@$0A@@std@@@2@XZ
_TEXT	SEGMENT PARA USE32 PUBLIC 'CODE'
_TEXT	ENDS
;	COMDAT ?_Myptr@?$basic_string@DU?$char_traits@D@std@@V?$allocator@D@2@@std@@QBEPBDXZ
_TEXT	SEGMENT PARA USE32 PUBLIC 'CODE'
_TEXT	ENDS
;	COMDAT ?size@?$basic_string@DU?$char_traits@D@std@@V?$allocator@D@2@@std@@QBEIXZ
_TEXT	SEGMENT PARA USE32 PUBLIC 'CODE'
_TEXT	ENDS
;	COMDAT ?GetType@CObj@@QAEKXZ
_TEXT	SEGMENT PARA USE32 PUBLIC 'CODE'
_TEXT	ENDS
;	COMDAT ?SetRide@CMover@@QAEXPAVCModel@@H@Z
_TEXT	SEGMENT PARA USE32 PUBLIC 'CODE'
_TEXT	ENDS
;	COMDAT ??B?$CSimpleStringT@D$0A@@ATL@@QBEPBDXZ
_TEXT	SEGMENT PARA USE32 PUBLIC 'CODE'
_TEXT	ENDS
;	COMDAT ??1?$CStringT@DV?$StrTraitMFC@DV?$ChTraitsCRT@D@ATL@@@@@ATL@@QAE@XZ
_TEXT	SEGMENT PARA USE32 PUBLIC 'CODE'
_TEXT	ENDS
;	COMDAT ??1?$CSimpleStringT@D$0A@@ATL@@QAE@XZ
_TEXT	SEGMENT PARA USE32 PUBLIC 'CODE'
_TEXT	ENDS
;	COMDAT ?GetData@?$CSimpleStringT@D$0A@@ATL@@ABEPAUCStringData@2@XZ
_TEXT	SEGMENT PARA USE32 PUBLIC 'CODE'
_TEXT	ENDS
;	COMDAT ?Release@CStringData@ATL@@QAEXXZ
_TEXT	SEGMENT PARA USE32 PUBLIC 'CODE'
_TEXT	ENDS
;	COMDAT ??0?$CStringT@DV?$StrTraitMFC@DV?$ChTraitsCRT@D@ATL@@@@@ATL@@QAE@PBD@Z
_TEXT	SEGMENT PARA USE32 PUBLIC 'CODE'
_TEXT	ENDS
;	COMDAT ??0?$CSimpleStringT@D$0A@@ATL@@QAE@PAUIAtlStringMgr@1@@Z
_TEXT	SEGMENT PARA USE32 PUBLIC 'CODE'
_TEXT	ENDS
;	COMDAT ?Attach@?$CSimpleStringT@D$0A@@ATL@@AAEXPAUCStringData@2@@Z
_TEXT	SEGMENT PARA USE32 PUBLIC 'CODE'
_TEXT	ENDS
;	COMDAT ?data@CStringData@ATL@@QAEPAXXZ
_TEXT	SEGMENT PARA USE32 PUBLIC 'CODE'
_TEXT	ENDS
;	COMDAT ?GetDefaultManager@?$StrTraitMFC@DV?$ChTraitsCRT@D@ATL@@@@SAPAUIAtlStringMgr@ATL@@XZ
_TEXT	SEGMENT PARA USE32 PUBLIC 'CODE'
_TEXT	ENDS
;	COMDAT ?CheckImplicitLoad@?$CStringT@DV?$StrTraitMFC@DV?$ChTraitsCRT@D@ATL@@@@@ATL@@AAE_NPBX@Z
_TEXT	SEGMENT PARA USE32 PUBLIC 'CODE'
_TEXT	ENDS
;	COMDAT ?LoadStringA@?$CStringT@DV?$StrTraitMFC@DV?$ChTraitsCRT@D@ATL@@@@@ATL@@QAEHI@Z
_TEXT	SEGMENT PARA USE32 PUBLIC 'CODE'
_TEXT	ENDS
;	COMDAT ?FindStringResourceInstance@?$StrTraitMFC@DV?$ChTraitsCRT@D@ATL@@@@SAPAUHINSTANCE__@@I@Z
_TEXT	SEGMENT PARA USE32 PUBLIC 'CODE'
_TEXT	ENDS
;	COMDAT ?LoadStringA@?$CStringT@DV?$StrTraitMFC@DV?$ChTraitsCRT@D@ATL@@@@@ATL@@QAEHPAUHINSTANCE__@@I@Z
_TEXT	SEGMENT PARA USE32 PUBLIC 'CODE'
_TEXT	ENDS
;	COMDAT ?AtlGetStringResourceImage@ATL@@YAPBUATLSTRINGRESOURCEIMAGE@1@PAUHINSTANCE__@@I@Z
_TEXT	SEGMENT PARA USE32 PUBLIC 'CODE'
_TEXT	ENDS
;	COMDAT ?_AtlGetStringResourceImage@ATL@@YAPBUATLSTRINGRESOURCEIMAGE@1@PAUHINSTANCE__@@PAUHRSRC__@@I@Z
_TEXT	SEGMENT PARA USE32 PUBLIC 'CODE'
_TEXT	ENDS
;	COMDAT ?GetBaseTypeLength@?$ChTraitsCRT@D@ATL@@SAHPBGH@Z
_TEXT	SEGMENT PARA USE32 PUBLIC 'CODE'
_TEXT	ENDS
;	COMDAT ?_AtlGetConversionACP@ATL@@YGIXZ
_TEXT	SEGMENT PARA USE32 PUBLIC 'CODE'
_TEXT	ENDS
;	COMDAT ?g_pfnGetThreadACP@ATL@@3P6GIXZA
_DATA	SEGMENT DWORD USE32 PUBLIC 'DATA'
_DATA	ENDS
;	COMDAT ?_AtlGetThreadACPThunk@ATL@@YGIXZ
_TEXT	SEGMENT PARA USE32 PUBLIC 'CODE'
_TEXT	ENDS
;	COMDAT ?_AtlGetThreadACPReal@ATL@@YGIXZ
_TEXT	SEGMENT PARA USE32 PUBLIC 'CODE'
_TEXT	ENDS
;	COMDAT ?_AtlGetThreadACPFake@ATL@@YGIXZ
_TEXT	SEGMENT PARA USE32 PUBLIC 'CODE'
_TEXT	ENDS
;	COMDAT ?InterlockedExchangePointer@@YGPAXPAPAXPAX@Z
_TEXT	SEGMENT PARA USE32 PUBLIC 'CODE'
_TEXT	ENDS
;	COMDAT ?GetBuffer@?$CSimpleStringT@D$0A@@ATL@@QAEPADH@Z
_TEXT	SEGMENT PARA USE32 PUBLIC 'CODE'
_TEXT	ENDS
;	COMDAT ?PrepareWrite@?$CSimpleStringT@D$0A@@ATL@@AAEPADH@Z
_TEXT	SEGMENT PARA USE32 PUBLIC 'CODE'
_TEXT	ENDS
;	COMDAT ?PrepareWrite2@?$CSimpleStringT@D$0A@@ATL@@AAEXH@Z
_TEXT	SEGMENT PARA USE32 PUBLIC 'CODE'
_TEXT	ENDS
;	COMDAT ?IsShared@CStringData@ATL@@QBE_NXZ
_TEXT	SEGMENT PARA USE32 PUBLIC 'CODE'
_TEXT	ENDS
;	COMDAT ?Fork@?$CSimpleStringT@D$0A@@ATL@@AAEXH@Z
_TEXT	SEGMENT PARA USE32 PUBLIC 'CODE'
_TEXT	ENDS
;	COMDAT ?ThrowMemoryException@?$CSimpleStringT@D$0A@@ATL@@KAXXZ
_TEXT	SEGMENT PARA USE32 PUBLIC 'CODE'
_TEXT	ENDS
;	COMDAT ?AtlThrow@ATL@@YGXJ@Z
_TEXT	SEGMENT PARA USE32 PUBLIC 'CODE'
_TEXT	ENDS
;	COMDAT ?CopyChars@?$CSimpleStringT@D$0A@@ATL@@SAXPADPBDH@Z
_TEXT	SEGMENT PARA USE32 PUBLIC 'CODE'
_TEXT	ENDS
;	COMDAT ?Reallocate@?$CSimpleStringT@D$0A@@ATL@@AAEXH@Z
_TEXT	SEGMENT PARA USE32 PUBLIC 'CODE'
_TEXT	ENDS
;	COMDAT ?ConvertToBaseType@?$ChTraitsCRT@D@ATL@@SAXPADHPBGH@Z
_TEXT	SEGMENT PARA USE32 PUBLIC 'CODE'
_TEXT	ENDS
;	COMDAT ?ReleaseBufferSetLength@?$CSimpleStringT@D$0A@@ATL@@QAEXH@Z
_TEXT	SEGMENT PARA USE32 PUBLIC 'CODE'
_TEXT	ENDS
;	COMDAT ?SetLength@?$CSimpleStringT@D$0A@@ATL@@AAEXH@Z
_TEXT	SEGMENT PARA USE32 PUBLIC 'CODE'
_TEXT	ENDS
;	COMDAT ??4?$CStringT@DV?$StrTraitMFC@DV?$ChTraitsCRT@D@ATL@@@@@ATL@@QAEAAV01@PBD@Z
_TEXT	SEGMENT PARA USE32 PUBLIC 'CODE'
_TEXT	ENDS
;	COMDAT ??4?$CSimpleStringT@D$0A@@ATL@@QAEAAV01@PBD@Z
_TEXT	SEGMENT PARA USE32 PUBLIC 'CODE'
_TEXT	ENDS
;	COMDAT ?SetString@?$CSimpleStringT@D$0A@@ATL@@QAEXPBD@Z
_TEXT	SEGMENT PARA USE32 PUBLIC 'CODE'
_TEXT	ENDS
;	COMDAT ?SetString@?$CSimpleStringT@D$0A@@ATL@@QAEXPBDH@Z
_TEXT	SEGMENT PARA USE32 PUBLIC 'CODE'
_TEXT	ENDS
;	COMDAT ?Empty@?$CSimpleStringT@D$0A@@ATL@@QAEXXZ
_TEXT	SEGMENT PARA USE32 PUBLIC 'CODE'
_TEXT	ENDS
;	COMDAT ?IsLocked@CStringData@ATL@@QBE_NXZ
_TEXT	SEGMENT PARA USE32 PUBLIC 'CODE'
_TEXT	ENDS
;	COMDAT ?GetLength@?$CSimpleStringT@D$0A@@ATL@@QBEHXZ
_TEXT	SEGMENT PARA USE32 PUBLIC 'CODE'
_TEXT	ENDS
;	COMDAT ?GetString@?$CSimpleStringT@D$0A@@ATL@@QBEPBDXZ
_TEXT	SEGMENT PARA USE32 PUBLIC 'CODE'
_TEXT	ENDS
;	COMDAT ?CopyCharsOverlapped@?$CSimpleStringT@D$0A@@ATL@@SAXPADPBDH@Z
_TEXT	SEGMENT PARA USE32 PUBLIC 'CODE'
_TEXT	ENDS
;	COMDAT ?StringLength@?$CSimpleStringT@D$0A@@ATL@@SAHPBD@Z
_TEXT	SEGMENT PARA USE32 PUBLIC 'CODE'
_TEXT	ENDS
;	COMDAT ?GetItemProp@CProject@@QAEPAUItemProp@@H@Z
_TEXT	SEGMENT PARA USE32 PUBLIC 'CODE'
_TEXT	ENDS
;	COMDAT ?LOG_RANGE@@YAXPBDHHH@Z
_TEXT	SEGMENT PARA USE32 PUBLIC 'CODE'
_TEXT	ENDS
;	COMDAT ??_C@_0BM@HMFGHCP@?$CFs?5min?3?$CFd?0?5max?3?$CFd?0?5index?3?$CFd?$AA@
CONST	SEGMENT DWORD USE32 PUBLIC 'CONST'
CONST	ENDS
;	COMDAT ?GetSize@?$CFixedArray@UItemProp@@@@QAEHXZ
_TEXT	SEGMENT PARA USE32 PUBLIC 'CODE'
_TEXT	ENDS
;	COMDAT ??_C@_0BI@BEIFNGEL@GetItemProp?5range_error?$AA@
CONST	SEGMENT DWORD USE32 PUBLIC 'CONST'
CONST	ENDS
;	COMDAT ?LOG_CALLSTACK@@YAXXZ
_TEXT	SEGMENT PARA USE32 PUBLIC 'CODE'
_TEXT	ENDS
;	COMDAT ?GetAt@?$CFixedArray@UItemProp@@@@QAEPAUItemProp@@K@Z
_TEXT	SEGMENT PARA USE32 PUBLIC 'CODE'
_TEXT	ENDS
;	COMDAT ?GetWorld@CObj@@QAEPAVCWorld@@XZ
_TEXT	SEGMENT PARA USE32 PUBLIC 'CODE'
_TEXT	ENDS
;	COMDAT ?GetPropA@CMover@@QAEPAUMoverProp@@XZ
_TEXT	SEGMENT PARA USE32 PUBLIC 'CODE'
_TEXT	ENDS
;	COMDAT ?GetMoverProp@CProject@@QAEPAUMoverProp@@H@Z
_TEXT	SEGMENT PARA USE32 PUBLIC 'CODE'
_TEXT	ENDS
;	COMDAT ??_C@_0BJ@GKPOBPPI@GetMoverProp?5range_error?$AA@
CONST	SEGMENT DWORD USE32 PUBLIC 'CONST'
CONST	ENDS
;	COMDAT ?IsNPC@CMover@@QAEHXZ
_TEXT	SEGMENT PARA USE32 PUBLIC 'CODE'
_TEXT	ENDS
;	COMDAT ?GetId@CCtrl@@QAEKXZ
_TEXT	SEGMENT PARA USE32 PUBLIC 'CODE'
_TEXT	ENDS
;	COMDAT ?GetActParam@CMover@@AAEHH@Z
_TEXT	SEGMENT PARA USE32 PUBLIC 'CODE'
_TEXT	ENDS
;	COMDAT ?GetPos@CObj@@QAE?AUD3DXVECTOR3@@XZ
_TEXT	SEGMENT PARA USE32 PUBLIC 'CODE'
_TEXT	ENDS
;	COMDAT ?GetDegree@@YAMABUD3DXVECTOR3@@0@Z
_TEXT	SEGMENT PARA USE32 PUBLIC 'CODE'
_TEXT	ENDS
;	COMDAT ?VelocityToVec@@YA?AUD3DXVECTOR3@@MM@Z
_TEXT	SEGMENT PARA USE32 PUBLIC 'CODE'
_TEXT	ENDS
;	COMDAT _sinf
_TEXT	SEGMENT PARA USE32 PUBLIC 'CODE'
_TEXT	ENDS
;	COMDAT _cosf
_TEXT	SEGMENT PARA USE32 PUBLIC 'CODE'
_TEXT	ENDS
;	COMDAT ??GD3DXVECTOR3@@QBE?AU0@ABU0@@Z
_TEXT	SEGMENT PARA USE32 PUBLIC 'CODE'
_TEXT	ENDS
;	COMDAT ?D3DXVec3Dot@@YAMPBUD3DXVECTOR3@@0@Z
_TEXT	SEGMENT PARA USE32 PUBLIC 'CODE'
_TEXT	ENDS
;	COMDAT _acosf
_TEXT	SEGMENT PARA USE32 PUBLIC 'CODE'
_TEXT	ENDS
;	COMDAT ?IsPlayer@CMover@@QAEHXZ
_TEXT	SEGMENT PARA USE32 PUBLIC 'CODE'
_TEXT	ENDS
;	COMDAT ?GetPropA@CItemElem@@QAEPAUItemProp@@XZ
_TEXT	SEGMENT PARA USE32 PUBLIC 'CODE'
_TEXT	ENDS
;	COMDAT ?IsValidObj@@YAHPAVCObj@@@Z
_TEXT	SEGMENT PARA USE32 PUBLIC 'CODE'
_TEXT	ENDS
;	COMDAT ?IsDelete@CObj@@QAEHXZ
_TEXT	SEGMENT PARA USE32 PUBLIC 'CODE'
_TEXT	ENDS
;	COMDAT ?IsDie@CMover@@QAEHXZ
_TEXT	SEGMENT PARA USE32 PUBLIC 'CODE'
_TEXT	ENDS
;	COMDAT ?IsInvalidObj@@YAHPAVCObj@@@Z
_TEXT	SEGMENT PARA USE32 PUBLIC 'CODE'
_TEXT	ENDS
;	COMDAT ?IsMode@CMover@@QAEHK@Z
_TEXT	SEGMENT PARA USE32 PUBLIC 'CODE'
_TEXT	ENDS
;	COMDAT ?SetJumpState@CAction@@QAEXK@Z
_TEXT	SEGMENT PARA USE32 PUBLIC 'CODE'
_TEXT	ENDS
;	COMDAT ?GetLookState@CAction@@QAEKXZ
_TEXT	SEGMENT PARA USE32 PUBLIC 'CODE'
_TEXT	ENDS
;	COMDAT ?SetLookState@CAction@@QAEXK@Z
_TEXT	SEGMENT PARA USE32 PUBLIC 'CODE'
_TEXT	ENDS
;	COMDAT ?SetTurnState@CAction@@QAEXK@Z
_TEXT	SEGMENT PARA USE32 PUBLIC 'CODE'
_TEXT	ENDS
;	COMDAT ?GetTurnState@CAction@@QAEKXZ
_TEXT	SEGMENT PARA USE32 PUBLIC 'CODE'
_TEXT	ENDS
;	COMDAT ?IsStateFlag@CAction@@QAEHK@Z
_TEXT	SEGMENT PARA USE32 PUBLIC 'CODE'
_TEXT	ENDS
;	COMDAT ?GetDmgState@CAction@@QAEKXZ
_TEXT	SEGMENT PARA USE32 PUBLIC 'CODE'
_TEXT	ENDS
;	COMDAT ?GetAngle@CObj@@QAEMXZ
_TEXT	SEGMENT PARA USE32 PUBLIC 'CODE'
_TEXT	ENDS
;	COMDAT ?SetState@CAction@@QAEXKK@Z
_TEXT	SEGMENT PARA USE32 PUBLIC 'CODE'
_TEXT	ENDS
;	COMDAT ?IsSit@CAction@@QAEHXZ
_TEXT	SEGMENT PARA USE32 PUBLIC 'CODE'
_TEXT	ENDS
;	COMDAT ?ClearDest@CMover@@QAEXXZ
_TEXT	SEGMENT PARA USE32 PUBLIC 'CODE'
_TEXT	ENDS
;	COMDAT ?ClearDestObj@CMover@@QAEXXZ
_TEXT	SEGMENT PARA USE32 PUBLIC 'CODE'
_TEXT	ENDS
;	COMDAT ?ClearDestPos@CMover@@QAEXXZ
_TEXT	SEGMENT PARA USE32 PUBLIC 'CODE'
_TEXT	ENDS
;	COMDAT ?SetMoveState@CAction@@QAEXK@Z
_TEXT	SEGMENT PARA USE32 PUBLIC 'CODE'
_TEXT	ENDS
;	COMDAT ?IsAction@CAction@@QAEHXZ
_TEXT	SEGMENT PARA USE32 PUBLIC 'CODE'
_TEXT	ENDS
;	COMDAT ?IsDie@CAction@@QAEHXZ
_TEXT	SEGMENT PARA USE32 PUBLIC 'CODE'
_TEXT	ENDS
;	COMDAT ?IsActDamage@CAction@@QAEHXZ
_TEXT	SEGMENT PARA USE32 PUBLIC 'CODE'
_TEXT	ENDS
;	COMDAT ?IsActAttack@CAction@@QAEHXZ
_TEXT	SEGMENT PARA USE32 PUBLIC 'CODE'
_TEXT	ENDS
;	COMDAT ?IsActJump@CAction@@QAEHXZ
_TEXT	SEGMENT PARA USE32 PUBLIC 'CODE'
_TEXT	ENDS
;	COMDAT ?IsFlyingNPC@CMover@@QAEHXZ
_TEXT	SEGMENT PARA USE32 PUBLIC 'CODE'
_TEXT	ENDS
;	COMDAT ?GetMoveState@CAction@@QAEKXZ
_TEXT	SEGMENT PARA USE32 PUBLIC 'CODE'
_TEXT	ENDS
;	COMDAT ?GetState@CAction@@QAEKXZ
_TEXT	SEGMENT PARA USE32 PUBLIC 'CODE'
_TEXT	ENDS
;	COMDAT ?ClearStateFlag@CAction@@QAEXXZ
_TEXT	SEGMENT PARA USE32 PUBLIC 'CODE'
_TEXT	ENDS
;	COMDAT ?__ForceSetState@CAction@@QAEXK@Z
_TEXT	SEGMENT PARA USE32 PUBLIC 'CODE'
_TEXT	ENDS
;	COMDAT ?GetStateFlag@CAction@@QAEKXZ
_TEXT	SEGMENT PARA USE32 PUBLIC 'CODE'
_TEXT	ENDS
;	COMDAT ?end@?$_Tree@V?$_Tmap_traits@KHU?$less@K@std@@V?$allocator@U?$pair@$$CBKH@std@@@2@$0A@@std@@@std@@QAE?AViterator@12@XZ
_TEXT	SEGMENT PARA USE32 PUBLIC 'CODE'
_TEXT	ENDS
;	COMDAT ??0iterator@?$_Tree@V?$_Tmap_traits@KHU?$less@K@std@@V?$allocator@U?$pair@$$CBKH@std@@@2@$0A@@std@@@std@@QAE@PAU_Node@?$_Tree_nod@V?$_Tmap_traits@KHU?$less@K@std@@V?$allocator@U?$pair@$$CBKH@std@@@2@$0A@@std@@@2@@Z
_TEXT	SEGMENT PARA USE32 PUBLIC 'CODE'
_TEXT	ENDS
;	COMDAT ??0const_iterator@?$_Tree@V?$_Tmap_traits@KHU?$less@K@std@@V?$allocator@U?$pair@$$CBKH@std@@@2@$0A@@std@@@std@@QAE@PAU_Node@?$_Tree_nod@V?$_Tmap_traits@KHU?$less@K@std@@V?$allocator@U?$pair@$$CBKH@std@@@2@$0A@@std@@@2@@Z
_TEXT	SEGMENT PARA USE32 PUBLIC 'CODE'
_TEXT	ENDS
;	COMDAT ??9const_iterator@?$_Tree@V?$_Tmap_traits@KHU?$less@K@std@@V?$allocator@U?$pair@$$CBKH@std@@@2@$0A@@std@@@std@@QBE_NABV012@@Z
_TEXT	SEGMENT PARA USE32 PUBLIC 'CODE'
_TEXT	ENDS
;	COMDAT ??Eiterator@?$_Tree@V?$_Tmap_traits@KHU?$less@K@std@@V?$allocator@U?$pair@$$CBKH@std@@@2@$0A@@std@@@std@@QAE?AV012@H@Z
_TEXT	SEGMENT PARA USE32 PUBLIC 'CODE'
_TEXT	ENDS
;	COMDAT ?begin@?$_Tree@V?$_Tmap_traits@KHU?$less@K@std@@V?$allocator@U?$pair@$$CBKH@std@@@2@$0A@@std@@@std@@QAE?AViterator@12@XZ
_TEXT	SEGMENT PARA USE32 PUBLIC 'CODE'
_TEXT	ENDS
;	COMDAT ?xRandom@@YAKK@Z
_TEXT	SEGMENT PARA USE32 PUBLIC 'CODE'
_TEXT	ENDS
;	COMDAT ?xRand@@YAKXZ
_TEXT	SEGMENT PARA USE32 PUBLIC 'CODE'
_TEXT	ENDS
;	COMDAT ??1?$map@KHU?$less@K@std@@V?$allocator@U?$pair@$$CBKH@std@@@2@@std@@QAE@XZ
_TEXT	SEGMENT PARA USE32 PUBLIC 'CODE'
_TEXT	ENDS
;	COMDAT ??_7CMapChildE@@6B@
CONST	SEGMENT DWORD USE32 PUBLIC 'CONST'
CONST	ENDS
;	COMDAT ?Leave@CMclCritSec@@QAEXXZ
_TEXT	SEGMENT PARA USE32 PUBLIC 'CODE'
_TEXT	ENDS
;	COMDAT ?Enter@CMclCritSec@@QAEXXZ
_TEXT	SEGMENT PARA USE32 PUBLIC 'CODE'
_TEXT	ENDS
;	COMDAT ??1CMclCritSec@@UAE@XZ
_TEXT	SEGMENT PARA USE32 PUBLIC 'CODE'
_TEXT	ENDS
;	COMDAT ??_7CMclCritSec@@6B@
CONST	SEGMENT DWORD USE32 PUBLIC 'CONST'
CONST	ENDS
;	COMDAT ??_GCMclCritSec@@UAEPAXI@Z
_TEXT	SEGMENT PARA USE32 PUBLIC 'CODE'
_TEXT	ENDS
;	COMDAT ??0CMclCritSec@@QAE@XZ
_TEXT	SEGMENT PARA USE32 PUBLIC 'CODE'
_TEXT	ENDS
;	COMDAT ??_7CMapChild@@6B@
CONST	SEGMENT DWORD USE32 PUBLIC 'CONST'
CONST	ENDS
;	COMDAT ??1CMclAutoLock@@QAE@XZ
_TEXT	SEGMENT PARA USE32 PUBLIC 'CODE'
_TEXT	ENDS
;	COMDAT ??0CMclAutoLock@@QAE@AAVCMclCritSec@@@Z
_TEXT	SEGMENT PARA USE32 PUBLIC 'CODE'
_TEXT	ENDS
;	COMDAT ??_7CBuffer2@@6B@
CONST	SEGMENT DWORD USE32 PUBLIC 'CONST'
CONST	ENDS
;	COMDAT ?erase@?$_Tree@V?$_Tmap_traits@KPAVCCtrl@@U?$less@K@std@@V?$allocator@U?$pair@$$CBKPAVCCtrl@@@std@@@3@$0A@@std@@@std@@QAEIABK@Z
_TEXT	SEGMENT PARA USE32 PUBLIC 'CODE'
_TEXT	ENDS
;	COMDAT ?equal_range@?$_Tree@V?$_Tmap_traits@KPAVCCtrl@@U?$less@K@std@@V?$allocator@U?$pair@$$CBKPAVCCtrl@@@std@@@3@$0A@@std@@@std@@QAE?AU?$pair@Viterator@?$_Tree@V?$_Tmap_traits@KPAVCCtrl@@U?$less@K@std@@V?$allocator@U?$pair@$$CBKPAVCCtrl@@@std@@@3@$0A@@std@@@std@@V123@@2@ABK@Z
_TEXT	SEGMENT PARA USE32 PUBLIC 'CODE'
_TEXT	ENDS
;	COMDAT ??0?$pair@Viterator@?$_Tree@V?$_Tmap_traits@KPAVCCtrl@@U?$less@K@std@@V?$allocator@U?$pair@$$CBKPAVCCtrl@@@std@@@3@$0A@@std@@@std@@V123@@std@@QAE@ABViterator@?$_Tree@V?$_Tmap_traits@KPAVCCtrl@@U?$less@K@std@@V?$allocator@U?$pair@$$CBKPAVCCtrl@@@std@@@3@$0A@@std@@@1@0@Z
_TEXT	SEGMENT PARA USE32 PUBLIC 'CODE'
_TEXT	ENDS
;	COMDAT ?upper_bound@?$_Tree@V?$_Tmap_traits@KPAVCCtrl@@U?$less@K@std@@V?$allocator@U?$pair@$$CBKPAVCCtrl@@@std@@@3@$0A@@std@@@std@@QAE?AViterator@12@ABK@Z
_TEXT	SEGMENT PARA USE32 PUBLIC 'CODE'
_TEXT	ENDS
;	COMDAT ?_Ubound@?$_Tree@V?$_Tmap_traits@KPAVCCtrl@@U?$less@K@std@@V?$allocator@U?$pair@$$CBKPAVCCtrl@@@std@@@3@$0A@@std@@@std@@IBEPAU_Node@?$_Tree_nod@V?$_Tmap_traits@KPAVCCtrl@@U?$less@K@std@@V?$allocator@U?$pair@$$CBKPAVCCtrl@@@std@@@3@$0A@@std@@@2@ABK@Z
_TEXT	SEGMENT PARA USE32 PUBLIC 'CODE'
_TEXT	ENDS
;	COMDAT ??$_Distance@Viterator@?$_Tree@V?$_Tmap_traits@KPAVCCtrl@@U?$less@K@std@@V?$allocator@U?$pair@$$CBKPAVCCtrl@@@std@@@3@$0A@@std@@@std@@I@std@@YAXViterator@?$_Tree@V?$_Tmap_traits@KPAVCCtrl@@U?$less@K@std@@V?$allocator@U?$pair@$$CBKPAVCCtrl@@@std@@@3@$0A@@std@@@0@0AAI@Z
_TEXT	SEGMENT PARA USE32 PUBLIC 'CODE'
_TEXT	ENDS
;	COMDAT ?erase@?$_Tree@V?$_Tmap_traits@KPAVCCtrl@@U?$less@K@std@@V?$allocator@U?$pair@$$CBKPAVCCtrl@@@std@@@3@$0A@@std@@@std@@QAE?AViterator@12@V312@0@Z
_TEXT	SEGMENT PARA USE32 PUBLIC 'CODE'
_TEXT	ENDS
;	COMDAT ?clear@?$_Tree@V?$_Tmap_traits@KPAVCCtrl@@U?$less@K@std@@V?$allocator@U?$pair@$$CBKPAVCCtrl@@@std@@@3@$0A@@std@@@std@@QAEXXZ
_TEXT	SEGMENT PARA USE32 PUBLIC 'CODE'
_TEXT	ENDS
;	COMDAT ?_Erase@?$_Tree@V?$_Tmap_traits@KPAVCCtrl@@U?$less@K@std@@V?$allocator@U?$pair@$$CBKPAVCCtrl@@@std@@@3@$0A@@std@@@std@@IAEXPAU_Node@?$_Tree_nod@V?$_Tmap_traits@KPAVCCtrl@@U?$less@K@std@@V?$allocator@U?$pair@$$CBKPAVCCtrl@@@std@@@3@$0A@@std@@@2@@Z
_TEXT	SEGMENT PARA USE32 PUBLIC 'CODE'
_TEXT	ENDS
;	COMDAT ?destroy@?$allocator@U_Node@?$_Tree_nod@V?$_Tmap_traits@KPAVCCtrl@@U?$less@K@std@@V?$allocator@U?$pair@$$CBKPAVCCtrl@@@std@@@3@$0A@@std@@@std@@@std@@QAEXPAU_Node@?$_Tree_nod@V?$_Tmap_traits@KPAVCCtrl@@U?$less@K@std@@V?$allocator@U?$pair@$$CBKPAVCCtrl@@@std@@@3@$0A@@std@@@2@@Z
_TEXT	SEGMENT PARA USE32 PUBLIC 'CODE'
_TEXT	ENDS
;	COMDAT ??$_Destroy@U_Node@?$_Tree_nod@V?$_Tmap_traits@KPAVCCtrl@@U?$less@K@std@@V?$allocator@U?$pair@$$CBKPAVCCtrl@@@std@@@3@$0A@@std@@@std@@@std@@YAXPAU_Node@?$_Tree_nod@V?$_Tmap_traits@KPAVCCtrl@@U?$less@K@std@@V?$allocator@U?$pair@$$CBKPAVCCtrl@@@std@@@3@$0A@@std@@@0@@Z
_TEXT	SEGMENT PARA USE32 PUBLIC 'CODE'
_TEXT	ENDS
;	COMDAT ?erase@?$_Tree@V?$_Tmap_traits@KPAVCCtrl@@U?$less@K@std@@V?$allocator@U?$pair@$$CBKPAVCCtrl@@@std@@@3@$0A@@std@@@std@@QAE?AViterator@12@V312@@Z
_TEXT	SEGMENT PARA USE32 PUBLIC 'CODE'
_TEXT	ENDS
;	COMDAT ??Eiterator@?$_Tree@V?$_Tmap_traits@KPAVCCtrl@@U?$less@K@std@@V?$allocator@U?$pair@$$CBKPAVCCtrl@@@std@@@3@$0A@@std@@@std@@QAE?AV012@H@Z
_TEXT	SEGMENT PARA USE32 PUBLIC 'CODE'
_TEXT	ENDS
;	COMDAT ??5@YAAAVCAr@@AAV0@AAUD3DXVECTOR3@@@Z
_TEXT	SEGMENT PARA USE32 PUBLIC 'CODE'
_TEXT	ENDS
;	COMDAT ??5CAr@@QAEAAV0@AAM@Z
_TEXT	SEGMENT PARA USE32 PUBLIC 'CODE'
_TEXT	ENDS
;	COMDAT ??5CAr@@QAEAAV0@AAJ@Z
_TEXT	SEGMENT PARA USE32 PUBLIC 'CODE'
_TEXT	ENDS
;	COMDAT ?time_null@@YAJXZ
_TEXT	SEGMENT PARA USE32 PUBLIC 'CODE'
_TEXT	ENDS
;	COMDAT ??6CAr@@QAEAAV0@J@Z
_TEXT	SEGMENT PARA USE32 PUBLIC 'CODE'
_TEXT	ENDS
;	COMDAT ??6@YAAAVCAr@@AAV0@UD3DXVECTOR3@@@Z
_TEXT	SEGMENT PARA USE32 PUBLIC 'CODE'
_TEXT	ENDS
;	COMDAT ??6CAr@@QAEAAV0@M@Z
_TEXT	SEGMENT PARA USE32 PUBLIC 'CODE'
_TEXT	ENDS
;	COMDAT ??1?$basic_string@DU?$char_traits@D@std@@V?$allocator@D@2@@std@@QAE@XZ
_TEXT	SEGMENT PARA USE32 PUBLIC 'CODE'
_TEXT	ENDS
;	COMDAT ??0?$basic_string@DU?$char_traits@D@std@@V?$allocator@D@2@@std@@QAE@PBD@Z
_TEXT	SEGMENT PARA USE32 PUBLIC 'CODE'
_TEXT	ENDS
;	COMDAT ??0?$allocator@D@std@@QAE@XZ
_TEXT	SEGMENT PARA USE32 PUBLIC 'CODE'
_TEXT	ENDS
;	COMDAT ?assign@?$basic_string@DU?$char_traits@D@std@@V?$allocator@D@2@@std@@QAEAAV12@PBD@Z
_TEXT	SEGMENT PARA USE32 PUBLIC 'CODE'
_TEXT	ENDS
;	COMDAT ?assign@?$basic_string@DU?$char_traits@D@std@@V?$allocator@D@2@@std@@QAEAAV12@PBDI@Z
_TEXT	SEGMENT PARA USE32 PUBLIC 'CODE'
_TEXT	ENDS
;	COMDAT ?_Inside@?$basic_string@DU?$char_traits@D@std@@V?$allocator@D@2@@std@@IAE_NPBD@Z
_TEXT	SEGMENT PARA USE32 PUBLIC 'CODE'
_TEXT	ENDS
;	COMDAT ?length@?$char_traits@D@std@@SAIPBD@Z
_TEXT	SEGMENT PARA USE32 PUBLIC 'CODE'
_TEXT	ENDS
;	COMDAT ?c_str@?$basic_string@DU?$char_traits@D@std@@V?$allocator@D@2@@std@@QBEPBDXZ
_TEXT	SEGMENT PARA USE32 PUBLIC 'CODE'
_TEXT	ENDS
;	COMDAT ??6CAr@@QAEAAV0@I@Z
_TEXT	SEGMENT PARA USE32 PUBLIC 'CODE'
_TEXT	ENDS
;	COMDAT ??_7__MINIGAME_EXT_PACKET@@6B@
CONST	SEGMENT DWORD USE32 PUBLIC 'CONST'
CONST	ENDS
;	COMDAT ??5CAr@@QAEAAV0@AAG@Z
_TEXT	SEGMENT PARA USE32 PUBLIC 'CODE'
_TEXT	ENDS
;	COMDAT ??5CAr@@QAEAAV0@AAH@Z
_TEXT	SEGMENT PARA USE32 PUBLIC 'CODE'
_TEXT	ENDS
;	COMDAT ??6CAr@@QAEAAV0@G@Z
_TEXT	SEGMENT PARA USE32 PUBLIC 'CODE'
_TEXT	ENDS
;	COMDAT ??6CAr@@QAEAAV0@H@Z
_TEXT	SEGMENT PARA USE32 PUBLIC 'CODE'
_TEXT	ENDS
;	COMDAT ??_7__MINIGAME_PACKET@@6B@
CONST	SEGMENT DWORD USE32 PUBLIC 'CONST'
CONST	ENDS
;	COMDAT ??1?$vector@KV?$allocator@K@std@@@std@@QAE@XZ
_TEXT	SEGMENT PARA USE32 PUBLIC 'CODE'
_TEXT	ENDS
;	COMDAT ?_Tidy@?$vector@KV?$allocator@K@std@@@std@@IAEXXZ
_TEXT	SEGMENT PARA USE32 PUBLIC 'CODE'
_TEXT	ENDS
;	COMDAT ?_Destroy@?$vector@KV?$allocator@K@std@@@std@@IAEXPAK0@Z
_TEXT	SEGMENT PARA USE32 PUBLIC 'CODE'
_TEXT	ENDS
;	COMDAT ??$_Destroy_range@KV?$allocator@K@std@@@std@@YAXPAK0AAV?$allocator@K@0@@Z
_TEXT	SEGMENT PARA USE32 PUBLIC 'CODE'
_TEXT	ENDS
;	COMDAT ?_Ptr_cat@std@@YA?AU_Scalar_ptr_iterator_tag@1@PAK0@Z
_TEXT	SEGMENT PARA USE32 PUBLIC 'CODE'
_TEXT	ENDS
;	COMDAT ?deallocate@?$allocator@K@std@@QAEXPAKI@Z
_TEXT	SEGMENT PARA USE32 PUBLIC 'CODE'
_TEXT	ENDS
;	COMDAT ??0?$vector@KV?$allocator@K@std@@@std@@QAE@XZ
_TEXT	SEGMENT PARA USE32 PUBLIC 'CODE'
_TEXT	ENDS
;	COMDAT ??0?$_Vector_val@KV?$allocator@K@std@@@std@@IAE@V?$allocator@K@1@@Z
_TEXT	SEGMENT PARA USE32 PUBLIC 'CODE'
_TEXT	ENDS
;	COMDAT ??0?$allocator@K@std@@QAE@ABV01@@Z
_TEXT	SEGMENT PARA USE32 PUBLIC 'CODE'
_TEXT	ENDS
;	COMDAT ??0?$allocator@K@std@@QAE@XZ
_TEXT	SEGMENT PARA USE32 PUBLIC 'CODE'
_TEXT	ENDS
;	COMDAT ?_Buy@?$vector@KV?$allocator@K@std@@@std@@IAE_NI@Z
_TEXT	SEGMENT PARA USE32 PUBLIC 'CODE'
_TEXT	ENDS
;	COMDAT ?max_size@?$vector@KV?$allocator@K@std@@@std@@QBEIXZ
_TEXT	SEGMENT PARA USE32 PUBLIC 'CODE'
_TEXT	ENDS
;	COMDAT ?max_size@?$allocator@K@std@@QBEIXZ
_TEXT	SEGMENT PARA USE32 PUBLIC 'CODE'
_TEXT	ENDS
;	COMDAT ?_Xlen@?$vector@KV?$allocator@K@std@@@std@@IBEXXZ
_TEXT	SEGMENT PARA USE32 PUBLIC 'CODE'
_TEXT	ENDS
;	COMDAT ?allocate@?$allocator@K@std@@QAEPAKI@Z
_TEXT	SEGMENT PARA USE32 PUBLIC 'CODE'
_TEXT	ENDS
;	COMDAT ??$_Allocate@K@std@@YAPAKIPAK@Z
_TEXT	SEGMENT PARA USE32 PUBLIC 'CODE'
_TEXT	ENDS
;	COMDAT ??5CAr@@QAEAAV0@AAK@Z
_TEXT	SEGMENT PARA USE32 PUBLIC 'CODE'
_TEXT	ENDS
;	COMDAT ??6CAr@@QAEAAV0@K@Z
_TEXT	SEGMENT PARA USE32 PUBLIC 'CODE'
_TEXT	ENDS
;	COMDAT ?IsStoring@CAr@@QBEHXZ
_TEXT	SEGMENT PARA USE32 PUBLIC 'CODE'
_TEXT	ENDS
;	COMDAT ??0D3DXVECTOR3@@QAE@MMM@Z
_TEXT	SEGMENT PARA USE32 PUBLIC 'CODE'
_TEXT	ENDS
;	COMDAT ?GetTickCount@CTime@ATL@@SG?AV12@XZ
_TEXT	SEGMENT PARA USE32 PUBLIC 'CODE'
_TEXT	ENDS
;	COMDAT ??0CTime@ATL@@QAE@_J@Z
_TEXT	SEGMENT PARA USE32 PUBLIC 'CODE'
_TEXT	ENDS
;	COMDAT ??0D3DXVECTOR3@@QAE@XZ
_TEXT	SEGMENT PARA USE32 PUBLIC 'CODE'
_TEXT	ENDS
;	COMDAT ??0CTime@ATL@@QAE@XZ
_TEXT	SEGMENT PARA USE32 PUBLIC 'CODE'
_TEXT	ENDS
sxdata	SEGMENT DWORD USE32 'SXDATA'
sxdata	ENDS
FLAT	GROUP _DATA, CONST, _BSS
	ASSUME	CS: FLAT, DS: FLAT, SS: FLAT
endif

INCLUDELIB LIBCMT
INCLUDELIB OLDNAMES

PUBLIC	?g_pfnGetThreadACP@ATL@@3P6GIXZA		; ATL::g_pfnGetThreadACP
PUBLIC	?_AtlGetThreadACPThunk@ATL@@YGIXZ		; ATL::_AtlGetThreadACPThunk
;	COMDAT ?g_pfnGetThreadACP@ATL@@3P6GIXZA
_DATA	SEGMENT
?g_pfnGetThreadACP@ATL@@3P6GIXZA DD FLAT:?_AtlGetThreadACPThunk@ATL@@YGIXZ ; ATL::g_pfnGetThreadACP
_DATA	ENDS
PUBLIC	?InterlockedExchangePointer@@YGPAXPAPAXPAX@Z	; InterlockedExchangePointer
EXTRN	__imp__InterlockedExchange@8:NEAR
; Function compile flags: /Ogty
; File c:\program files\microsoft visual studio .net 2003\vc7\atlmfc\include\atlconv.h
;	COMDAT ?InterlockedExchangePointer@@YGPAXPAPAXPAX@Z
_TEXT	SEGMENT
_pp$ = 8						; size = 4
_pNew$ = 12						; size = 4
?InterlockedExchangePointer@@YGPAXPAPAXPAX@Z PROC NEAR	; InterlockedExchangePointer, COMDAT

; 92   : 	return( reinterpret_cast<void*>(static_cast<LONG_PTR>(::InterlockedExchange(reinterpret_cast<LONG*>(pp), static_cast<LONG>(reinterpret_cast<LONG_PTR>(pNew))))) );

  00000	ff 25 00 00 00
	00		 jmp	 DWORD PTR __imp__InterlockedExchange@8
?InterlockedExchangePointer@@YGPAXPAPAXPAX@Z ENDP	; InterlockedExchangePointer
_TEXT	ENDS
PUBLIC	?_AtlGetThreadACPFake@ATL@@YGIXZ		; ATL::_AtlGetThreadACPFake
EXTRN	___security_cookie:DWORD
EXTRN	@__security_check_cookie@4:NEAR
EXTRN	__imp__GetThreadLocale@0:NEAR
EXTRN	__imp__GetACP@0:NEAR
EXTRN	__imp__GetLocaleInfoA@16:NEAR
; Function compile flags: /Ogty
;	COMDAT ?_AtlGetThreadACPFake@ATL@@YGIXZ
_TEXT	SEGMENT
_szACP$ = -12						; size = 7
__$ArrayPad$ = -4					; size = 4
__$ReturnAddr$ = 4					; size = 4
?_AtlGetThreadACPFake@ATL@@YGIXZ PROC NEAR		; ATL::_AtlGetThreadACPFake, COMDAT

; 101  : {

  00000	83 ec 0c	 sub	 esp, 12			; 0000000cH
  00003	a1 00 00 00 00	 mov	 eax, DWORD PTR ___security_cookie
  00008	33 c4		 xor	 eax, esp
  0000a	56		 push	 esi
  0000b	89 44 24 0c	 mov	 DWORD PTR __$ArrayPad$[esp+16], eax

; 102  : 	UINT nACP = 0;

  0000f	33 f6		 xor	 esi, esi

; 103  : 
; 104  : 	LCID lcidThread = ::GetThreadLocale();

  00011	ff 15 00 00 00
	00		 call	 DWORD PTR __imp__GetThreadLocale@0

; 105  : 
; 106  : 	char szACP[7];
; 107  : 	// GetLocaleInfoA will fail for a Unicode-only LCID, but those are only supported on 
; 108  : 	// Windows 2000.  Since Windows 2000 supports CP_THREAD_ACP, this code path is never
; 109  : 	// executed on Windows 2000.
; 110  : 	if (::GetLocaleInfoA(lcidThread, LOCALE_IDEFAULTANSICODEPAGE, szACP, 7) != 0)

  00017	6a 07		 push	 7
  00019	8d 4c 24 08	 lea	 ecx, DWORD PTR _szACP$[esp+20]
  0001d	51		 push	 ecx
  0001e	68 04 10 00 00	 push	 4100			; 00001004H
  00023	50		 push	 eax
  00024	ff 15 00 00 00
	00		 call	 DWORD PTR __imp__GetLocaleInfoA@16
  0002a	85 c0		 test	 eax, eax
  0002c	74 27		 je	 SHORT $L272516

; 111  : 	{
; 112  : 		char* pch = szACP;
; 113  : 		while (*pch != '\0')

  0002e	8a 44 24 04	 mov	 al, BYTE PTR _szACP$[esp+16]
  00032	84 c0		 test	 al, al
  00034	8d 4c 24 04	 lea	 ecx, DWORD PTR _szACP$[esp+16]
  00038	74 1b		 je	 SHORT $L272516
  0003a	8d 9b 00 00 00
	00		 npad	 6
$L38556:

; 114  : 		{
; 115  : 			nACP *= 10;
; 116  : 			nACP += *pch++ - '0';

  00040	0f be c0	 movsx	 eax, al
  00043	8d 14 b6	 lea	 edx, DWORD PTR [esi+esi*4]
  00046	41		 inc	 ecx
  00047	8d 74 50 d0	 lea	 esi, DWORD PTR [eax+edx*2-48]
  0004b	8a 01		 mov	 al, BYTE PTR [ecx]
  0004d	84 c0		 test	 al, al
  0004f	75 ef		 jne	 SHORT $L38556

; 117  : 		}
; 118  : 	}
; 119  : 	// Use the Default ANSI Code Page if we were unable to get the thread ACP or if one does not exist.
; 120  : 	if (nACP == 0)

  00051	85 f6		 test	 esi, esi
  00053	75 16		 jne	 SHORT $L272517
$L272516:

; 121  : 		nACP = ::GetACP();

  00055	ff 15 00 00 00
	00		 call	 DWORD PTR __imp__GetACP@0
  0005b	5e		 pop	 esi

; 122  : 
; 123  : 	return nACP;
; 124  : }

  0005c	8b 4c 24 08	 mov	 ecx, DWORD PTR __$ArrayPad$[esp+12]
  00060	33 cc		 xor	 ecx, esp
  00062	e8 00 00 00 00	 call	 @__security_check_cookie@4
  00067	83 c4 0c	 add	 esp, 12			; 0000000cH
  0006a	c3		 ret	 0
$L272517:
  0006b	8b 4c 24 0c	 mov	 ecx, DWORD PTR __$ArrayPad$[esp+16]
  0006f	8b c6		 mov	 eax, esi
  00071	5e		 pop	 esi
  00072	33 cc		 xor	 ecx, esp
  00074	e8 00 00 00 00	 call	 @__security_check_cookie@4
  00079	83 c4 0c	 add	 esp, 12			; 0000000cH
  0007c	c3		 ret	 0
?_AtlGetThreadACPFake@ATL@@YGIXZ ENDP			; ATL::_AtlGetThreadACPFake
_TEXT	ENDS
PUBLIC	?_AtlGetThreadACPReal@ATL@@YGIXZ		; ATL::_AtlGetThreadACPReal
; Function compile flags: /Ogty
;	COMDAT ?_AtlGetThreadACPReal@ATL@@YGIXZ
_TEXT	SEGMENT
?_AtlGetThreadACPReal@ATL@@YGIXZ PROC NEAR		; ATL::_AtlGetThreadACPReal, COMDAT

; 128  : 	return( CP_THREAD_ACP );

  00000	b8 03 00 00 00	 mov	 eax, 3

; 129  : }

  00005	c3		 ret	 0
?_AtlGetThreadACPReal@ATL@@YGIXZ ENDP			; ATL::_AtlGetThreadACPReal
_TEXT	ENDS
EXTRN	__imp__GetVersionExA@4:NEAR
; Function compile flags: /Ogty
;	COMDAT ?_AtlGetThreadACPThunk@ATL@@YGIXZ
_TEXT	SEGMENT
_ver$ = -152						; size = 148
__$ArrayPad$ = -4					; size = 4
__$ReturnAddr$ = 4					; size = 4
?_AtlGetThreadACPThunk@ATL@@YGIXZ PROC NEAR		; ATL::_AtlGetThreadACPThunk, COMDAT

; 134  : {

  00000	81 ec 98 00 00
	00		 sub	 esp, 152		; 00000098H
  00006	a1 00 00 00 00	 mov	 eax, DWORD PTR ___security_cookie
  0000b	33 c4		 xor	 eax, esp
  0000d	89 84 24 94 00
	00 00		 mov	 DWORD PTR __$ArrayPad$[esp+152], eax

; 135  : 	OSVERSIONINFO ver;
; 136  : 	ATLGETTHREADACP pfnGetThreadACP;
; 137  : 
; 138  : 	ver.dwOSVersionInfoSize = sizeof( ver );
; 139  : 	::GetVersionEx( &ver );

  00014	8d 04 24	 lea	 eax, DWORD PTR _ver$[esp+152]
  00017	50		 push	 eax
  00018	c7 44 24 04 94
	00 00 00	 mov	 DWORD PTR _ver$[esp+156], 148 ; 00000094H
  00020	ff 15 00 00 00
	00		 call	 DWORD PTR __imp__GetVersionExA@4

; 140  : 	if( (ver.dwPlatformId == VER_PLATFORM_WIN32_NT) && (ver.dwMajorVersion >= 5) )

  00026	83 7c 24 10 02	 cmp	 DWORD PTR _ver$[esp+168], 2
  0002b	75 0c		 jne	 SHORT $L38566
  0002d	83 7c 24 04 05	 cmp	 DWORD PTR _ver$[esp+156], 5

; 141  : 	{
; 142  : 		// On Win2K, CP_THREAD_ACP is supported
; 143  : 		pfnGetThreadACP = _AtlGetThreadACPReal;

  00032	b8 00 00 00 00	 mov	 eax, OFFSET FLAT:?_AtlGetThreadACPReal@ATL@@YGIXZ ; ATL::_AtlGetThreadACPReal
  00037	73 05		 jae	 SHORT $L38567
$L38566:

; 144  : 	}
; 145  : 	else
; 146  : 	{
; 147  : 		pfnGetThreadACP = _AtlGetThreadACPFake;

  00039	b8 00 00 00 00	 mov	 eax, OFFSET FLAT:?_AtlGetThreadACPFake@ATL@@YGIXZ ; ATL::_AtlGetThreadACPFake
$L38567:

; 148  : 	}
; 149  : 	InterlockedExchangePointer( reinterpret_cast< void** >(&g_pfnGetThreadACP), pfnGetThreadACP );

  0003e	50		 push	 eax
  0003f	68 00 00 00 00	 push	 OFFSET FLAT:?g_pfnGetThreadACP@ATL@@3P6GIXZA ; ATL::g_pfnGetThreadACP
  00044	ff 15 00 00 00
	00		 call	 DWORD PTR __imp__InterlockedExchange@8

; 150  : 
; 151  : 	return( g_pfnGetThreadACP() );

  0004a	ff 15 00 00 00
	00		 call	 DWORD PTR ?g_pfnGetThreadACP@ATL@@3P6GIXZA ; ATL::g_pfnGetThreadACP

; 152  : }

  00050	8b 8c 24 94 00
	00 00		 mov	 ecx, DWORD PTR __$ArrayPad$[esp+152]
  00057	33 cc		 xor	 ecx, esp
  00059	e8 00 00 00 00	 call	 @__security_check_cookie@4
  0005e	81 c4 98 00 00
	00		 add	 esp, 152		; 00000098H
  00064	c3		 ret	 0
?_AtlGetThreadACPThunk@ATL@@YGIXZ ENDP			; ATL::_AtlGetThreadACPThunk
_TEXT	ENDS
PUBLIC	?_AtlGetConversionACP@ATL@@YGIXZ		; ATL::_AtlGetConversionACP
; Function compile flags: /Ogty
;	COMDAT ?_AtlGetConversionACP@ATL@@YGIXZ
_TEXT	SEGMENT
?_AtlGetConversionACP@ATL@@YGIXZ PROC NEAR		; ATL::_AtlGetConversionACP, COMDAT

; 158  : 	return( g_pfnGetThreadACP() );

  00000	ff 25 00 00 00
	00		 jmp	 DWORD PTR ?g_pfnGetThreadACP@ATL@@3P6GIXZA ; ATL::g_pfnGetThreadACP
?_AtlGetConversionACP@ATL@@YGIXZ ENDP			; ATL::_AtlGetConversionACP
_TEXT	ENDS
PUBLIC	?AtlThrow@ATL@@YGXJ@Z				; ATL::AtlThrow
EXTRN	?AfxThrowMemoryException@@YGXXZ:NEAR		; AfxThrowMemoryException
EXTRN	?AfxThrowOleException@@YGXJ@Z:NEAR		; AfxThrowOleException
; Function compile flags: /Ogty
; File c:\program files\microsoft visual studio .net 2003\vc7\atlmfc\include\atlexcept.h
;	COMDAT ?AtlThrow@ATL@@YGXJ@Z
_TEXT	SEGMENT
_hr$ = 8						; size = 4
?AtlThrow@ATL@@YGXJ@Z PROC NEAR				; ATL::AtlThrow, COMDAT

; 62   : 	ATLTRACE(atlTraceException, 0, _T("AtlThrow: hr = 0x%x\n"), hr );
; 63   : #ifdef _AFX
; 64   : 	if( hr == E_OUTOFMEMORY )

  00000	8b 44 24 04	 mov	 eax, DWORD PTR _hr$[esp-4]
  00004	3d 0e 00 07 80	 cmp	 eax, -2147024882	; 8007000eH
  00009	75 05		 jne	 SHORT $L39168

; 65   : 	{
; 66   : 		AfxThrowMemoryException();

  0000b	e8 00 00 00 00	 call	 ?AfxThrowMemoryException@@YGXXZ ; AfxThrowMemoryException
$L272540:
$L39168:

; 67   : 	}
; 68   : 	else
; 69   : 	{
; 70   : 		AfxThrowOleException( hr );

  00010	50		 push	 eax
  00011	e8 00 00 00 00	 call	 ?AfxThrowOleException@@YGXJ@Z ; AfxThrowOleException
$L272541:
$L272539:
  00016	cc		 int	 3
?AtlThrow@ATL@@YGXJ@Z ENDP				; ATL::AtlThrow
_TEXT	ENDS
PUBLIC	?_AtlGetStringResourceImage@ATL@@YAPBUATLSTRINGRESOURCEIMAGE@1@PAUHINSTANCE__@@PAUHRSRC__@@I@Z ; ATL::_AtlGetStringResourceImage
EXTRN	__imp__LoadResource@8:NEAR
EXTRN	__imp__SizeofResource@8:NEAR
EXTRN	__imp__LockResource@4:NEAR
; Function compile flags: /Ogty
; File c:\program files\microsoft visual studio .net 2003\vc7\atlmfc\include\atlcore.h
;	COMDAT ?_AtlGetStringResourceImage@ATL@@YAPBUATLSTRINGRESOURCEIMAGE@1@PAUHINSTANCE__@@PAUHRSRC__@@I@Z
_TEXT	SEGMENT
_hInstance$ = 8						; size = 4
_hResource$ = 12					; size = 4
_id$ = 16						; size = 4
?_AtlGetStringResourceImage@ATL@@YAPBUATLSTRINGRESOURCEIMAGE@1@PAUHINSTANCE__@@PAUHRSRC__@@I@Z PROC NEAR ; ATL::_AtlGetStringResourceImage, COMDAT

; 239  : {

  00000	53		 push	 ebx

; 240  : 	const ATLSTRINGRESOURCEIMAGE* pImage;
; 241  : 	const ATLSTRINGRESOURCEIMAGE* pImageEnd;
; 242  : 	ULONG nResourceSize;
; 243  : 	HGLOBAL hGlobal;
; 244  : 	UINT iIndex;
; 245  : 
; 246  : 	hGlobal = ::LoadResource( hInstance, hResource );

  00001	8b 5c 24 08	 mov	 ebx, DWORD PTR _hInstance$[esp]
  00005	57		 push	 edi
  00006	8b 7c 24 10	 mov	 edi, DWORD PTR _hResource$[esp+4]
  0000a	57		 push	 edi
  0000b	53		 push	 ebx
  0000c	ff 15 00 00 00
	00		 call	 DWORD PTR __imp__LoadResource@8

; 247  : 	if( hGlobal == NULL )

  00012	85 c0		 test	 eax, eax
  00014	75 03		 jne	 SHORT $L39522
  00016	5f		 pop	 edi
  00017	5b		 pop	 ebx

; 272  : 	{
; 273  : 		return( NULL );
; 274  : 	}
; 275  : 
; 276  : 	return( pImage );
; 277  : }

  00018	c3		 ret	 0
$L39522:
  00019	56		 push	 esi

; 248  : 	{
; 249  : 		return( NULL );
; 250  : 	}
; 251  : 
; 252  : 	pImage = (const ATLSTRINGRESOURCEIMAGE*)::LockResource( hGlobal );

  0001a	50		 push	 eax
  0001b	ff 15 00 00 00
	00		 call	 DWORD PTR __imp__LockResource@4
  00021	8b f0		 mov	 esi, eax

; 253  : 	if( pImage == NULL )

  00023	85 f6		 test	 esi, esi
  00025	75 06		 jne	 SHORT $L39524
$L272547:
  00027	5e		 pop	 esi
  00028	5f		 pop	 edi

; 254  : 	{
; 255  : 		return( NULL );

  00029	33 c0		 xor	 eax, eax
  0002b	5b		 pop	 ebx

; 272  : 	{
; 273  : 		return( NULL );
; 274  : 	}
; 275  : 
; 276  : 	return( pImage );
; 277  : }

  0002c	c3		 ret	 0
$L39524:

; 256  : 	}
; 257  : 
; 258  : 	nResourceSize = ::SizeofResource( hInstance, hResource );

  0002d	57		 push	 edi
  0002e	53		 push	 ebx
  0002f	ff 15 00 00 00
	00		 call	 DWORD PTR __imp__SizeofResource@8

; 259  : 	pImageEnd = (const ATLSTRINGRESOURCEIMAGE*)(LPBYTE( pImage )+nResourceSize);
; 260  : 	iIndex = id&0x000f;

  00035	8b 4c 24 18	 mov	 ecx, DWORD PTR _id$[esp+8]
  00039	03 c6		 add	 eax, esi
  0003b	83 e1 0f	 and	 ecx, 15			; 0000000fH

; 261  : 
; 262  : 	while( (iIndex > 0) && (pImage < pImageEnd) )

  0003e	76 0e		 jbe	 SHORT $L39528
$L39527:
  00040	3b f0		 cmp	 esi, eax
  00042	73 e3		 jae	 SHORT $L272547

; 263  : 	{
; 264  : 		pImage = (const ATLSTRINGRESOURCEIMAGE*)(LPBYTE( pImage )+(sizeof( ATLSTRINGRESOURCEIMAGE )+(pImage->nLength*sizeof( WCHAR ))));
; 265  : 		iIndex--;

  00044	49		 dec	 ecx
  00045	0f b7 16	 movzx	 edx, WORD PTR [esi]
  00048	8d 74 56 02	 lea	 esi, DWORD PTR [esi+edx*2+2]
  0004c	75 f2		 jne	 SHORT $L39527
$L39528:

; 266  : 	}
; 267  : 	if( pImage >= pImageEnd )

  0004e	3b f0		 cmp	 esi, eax

; 268  : 	{
; 269  : 		return( NULL );

  00050	73 d5		 jae	 SHORT $L272547

; 270  : 	}
; 271  : 	if( pImage->nLength == 0 )

  00052	66 8b 06	 mov	 ax, WORD PTR [esi]
  00055	66 f7 d8	 neg	 ax
  00058	1b c0		 sbb	 eax, eax
  0005a	23 c6		 and	 eax, esi
  0005c	5e		 pop	 esi
  0005d	5f		 pop	 edi
  0005e	5b		 pop	 ebx

; 272  : 	{
; 273  : 		return( NULL );
; 274  : 	}
; 275  : 
; 276  : 	return( pImage );
; 277  : }

  0005f	c3		 ret	 0
?_AtlGetStringResourceImage@ATL@@YAPBUATLSTRINGRESOURCEIMAGE@1@PAUHINSTANCE__@@PAUHRSRC__@@I@Z ENDP ; ATL::_AtlGetStringResourceImage
_TEXT	ENDS
PUBLIC	?AtlGetStringResourceImage@ATL@@YAPBUATLSTRINGRESOURCEIMAGE@1@PAUHINSTANCE__@@I@Z ; ATL::AtlGetStringResourceImage
EXTRN	__imp__FindResourceA@12:NEAR
; Function compile flags: /Ogty
;	COMDAT ?AtlGetStringResourceImage@ATL@@YAPBUATLSTRINGRESOURCEIMAGE@1@PAUHINSTANCE__@@I@Z
_TEXT	SEGMENT
_hInstance$ = 8						; size = 4
_id$ = 12						; size = 4
?AtlGetStringResourceImage@ATL@@YAPBUATLSTRINGRESOURCEIMAGE@1@PAUHINSTANCE__@@I@Z PROC NEAR ; ATL::AtlGetStringResourceImage, COMDAT

; 280  : {

  00000	56		 push	 esi

; 281  : 	HRSRC hResource;
; 282  : 
; 283  : 	hResource = ::FindResource( hInstance, MAKEINTRESOURCE( ((id>>4)+1) ), RT_STRING );

  00001	8b 74 24 0c	 mov	 esi, DWORD PTR _id$[esp]
  00005	8b c6		 mov	 eax, esi
  00007	c1 e8 04	 shr	 eax, 4
  0000a	57		 push	 edi
  0000b	8b 7c 24 0c	 mov	 edi, DWORD PTR _hInstance$[esp+4]
  0000f	40		 inc	 eax
  00010	0f b7 c8	 movzx	 ecx, ax
  00013	6a 06		 push	 6
  00015	51		 push	 ecx
  00016	57		 push	 edi
  00017	ff 15 00 00 00
	00		 call	 DWORD PTR __imp__FindResourceA@12

; 284  : 	if( hResource == NULL )

  0001d	85 c0		 test	 eax, eax
  0001f	75 03		 jne	 SHORT $L39545
  00021	5f		 pop	 edi
  00022	5e		 pop	 esi

; 290  : }

  00023	c3		 ret	 0
$L39545:

; 285  : 	{
; 286  : 		return( NULL );
; 287  : 	}
; 288  : 
; 289  : 	return _AtlGetStringResourceImage( hInstance, hResource, id );

  00024	56		 push	 esi
  00025	50		 push	 eax
  00026	57		 push	 edi
  00027	e8 00 00 00 00	 call	 ?_AtlGetStringResourceImage@ATL@@YAPBUATLSTRINGRESOURCEIMAGE@1@PAUHINSTANCE__@@PAUHRSRC__@@I@Z ; ATL::_AtlGetStringResourceImage
  0002c	83 c4 0c	 add	 esp, 12			; 0000000cH
  0002f	5f		 pop	 edi
  00030	5e		 pop	 esi

; 290  : }

  00031	c3		 ret	 0
?AtlGetStringResourceImage@ATL@@YAPBUATLSTRINGRESOURCEIMAGE@1@PAUHINSTANCE__@@I@Z ENDP ; ATL::AtlGetStringResourceImage
_TEXT	ENDS
PUBLIC	?data@CStringData@ATL@@QAEPAXXZ			; ATL::CStringData::data
; Function compile flags: /Ogty
; File c:\program files\microsoft visual studio .net 2003\vc7\atlmfc\include\atlsimpstr.h
;	COMDAT ?data@CStringData@ATL@@QAEPAXXZ
_TEXT	SEGMENT
?data@CStringData@ATL@@QAEPAXXZ PROC NEAR		; ATL::CStringData::data, COMDAT
; _this$ = ecx

; 66   : 		return (this+1);

  00000	8d 41 10	 lea	 eax, DWORD PTR [ecx+16]

; 67   : 	}

  00003	c3		 ret	 0
?data@CStringData@ATL@@QAEPAXXZ ENDP			; ATL::CStringData::data
_TEXT	ENDS
PUBLIC	?IsLocked@CStringData@ATL@@QBE_NXZ		; ATL::CStringData::IsLocked
; Function compile flags: /Ogty
;	COMDAT ?IsLocked@CStringData@ATL@@QBE_NXZ
_TEXT	SEGMENT
?IsLocked@CStringData@ATL@@QBE_NXZ PROC NEAR		; ATL::CStringData::IsLocked, COMDAT
; _this$ = ecx

; 76   : 		return nRefs < 0;

  00000	8b 51 0c	 mov	 edx, DWORD PTR [ecx+12]
  00003	33 c0		 xor	 eax, eax
  00005	85 d2		 test	 edx, edx
  00007	0f 9c c0	 setl	 al

; 77   : 	}

  0000a	c3		 ret	 0
?IsLocked@CStringData@ATL@@QBE_NXZ ENDP			; ATL::CStringData::IsLocked
_TEXT	ENDS
PUBLIC	?IsShared@CStringData@ATL@@QBE_NXZ		; ATL::CStringData::IsShared
; Function compile flags: /Ogty
;	COMDAT ?IsShared@CStringData@ATL@@QBE_NXZ
_TEXT	SEGMENT
?IsShared@CStringData@ATL@@QBE_NXZ PROC NEAR		; ATL::CStringData::IsShared, COMDAT
; _this$ = ecx

; 80   : 		return( nRefs > 1 ); 

  00000	8b 51 0c	 mov	 edx, DWORD PTR [ecx+12]
  00003	33 c0		 xor	 eax, eax
  00005	83 fa 01	 cmp	 edx, 1
  00008	0f 9f c0	 setg	 al

; 81   : 	}

  0000b	c3		 ret	 0
?IsShared@CStringData@ATL@@QBE_NXZ ENDP			; ATL::CStringData::IsShared
_TEXT	ENDS
PUBLIC	?Release@CStringData@ATL@@QAEXXZ		; ATL::CStringData::Release
; Function compile flags: /Ogty
;	COMDAT ?Release@CStringData@ATL@@QAEXXZ
_TEXT	SEGMENT
?Release@CStringData@ATL@@QAEXXZ PROC NEAR		; ATL::CStringData::Release, COMDAT
; _this$ = ecx

; 93   : 		ATLASSERT( nRefs != 0 );
; 94   : 
; 95   : 		if( _InterlockedDecrement( &nRefs ) <= 0 )

  00000	8d 41 0c	 lea	 eax, DWORD PTR [ecx+12]
  00003	83 ca ff	 or	 edx, -1
  00006	f0 0f c1 10	 lock	  xadd	 DWORD PTR [eax], edx
  0000a	4a		 dec	 edx
  0000b	85 d2		 test	 edx, edx
  0000d	7f 0a		 jg	 SHORT $L39885

; 96   : 		{
; 97   : 			pStringMgr->Free( this );

  0000f	8b 01		 mov	 eax, DWORD PTR [ecx]
  00011	8b 10		 mov	 edx, DWORD PTR [eax]
  00013	51		 push	 ecx
  00014	8b c8		 mov	 ecx, eax
  00016	ff 52 04	 call	 DWORD PTR [edx+4]
$L39885:

; 98   : 		}
; 99   : 	}

  00019	c3		 ret	 0
?Release@CStringData@ATL@@QAEXXZ ENDP			; ATL::CStringData::Release
_TEXT	ENDS
PUBLIC	?DefaultSet@CActionMover@@QAEXXZ		; CActionMover::DefaultSet
EXTRN	__fltused:NEAR
; Function compile flags: /Ogty
; File c:\documents and settings\test\mes documents\source\virtuos_v17\build\program\_aiinterface\actionmovermsg.cpp
;	COMDAT ?DefaultSet@CActionMover@@QAEXXZ
_TEXT	SEGMENT
?DefaultSet@CActionMover@@QAEXXZ PROC NEAR		; CActionMover::DefaultSet, COMDAT
; _this$ = ecx

; 92   : 	m_pMover->m_fCrrSpd	= 0.0f;

  00000	8b 41 0c	 mov	 eax, DWORD PTR [ecx+12]
  00003	c7 80 50 02 00
	00 00 00 00 00	 mov	 DWORD PTR [eax+592], 0

; 93   : }

  0000d	c3		 ret	 0
?DefaultSet@CActionMover@@QAEXXZ ENDP			; CActionMover::DefaultSet
_TEXT	ENDS
PUBLIC	_acosf
EXTRN	__CIacos:NEAR
; Function compile flags: /Ogty
; File c:\program files\microsoft visual studio .net 2003\vc7\include\math.h
;	COMDAT _acosf
_TEXT	SEGMENT
__X$ = 8						; size = 4
_acosf	PROC NEAR					; COMDAT

; 434  :         {return ((float)acos((double)_X)); }

  00000	d9 44 24 04	 fld	 DWORD PTR __X$[esp-4]
  00004	e8 00 00 00 00	 call	 __CIacos
  00009	c3		 ret	 0
_acosf	ENDP
_TEXT	ENDS
PUBLIC	_cosf
; Function compile flags: /Ogty
;	COMDAT _cosf
_TEXT	SEGMENT
__X$ = 8						; size = 4
_cosf	PROC NEAR					; COMDAT

; 444  :         {return ((float)cos((double)_X)); }

  00000	d9 44 24 04	 fld	 DWORD PTR __X$[esp-4]
  00004	d9 ff		 fcos
  00006	c3		 ret	 0
_cosf	ENDP
_TEXT	ENDS
PUBLIC	_sinf
; Function compile flags: /Ogty
;	COMDAT _sinf
_TEXT	SEGMENT
__X$ = 8						; size = 4
_sinf	PROC NEAR					; COMDAT

; 466  :         {return ((float)sin((double)_X)); }

  00000	d9 44 24 04	 fld	 DWORD PTR __X$[esp-4]
  00004	d9 fe		 fsin
  00006	c3		 ret	 0
_sinf	ENDP
_TEXT	ENDS
PUBLIC	??0D3DXVECTOR3@@QAE@MMM@Z			; D3DXVECTOR3::D3DXVECTOR3
; Function compile flags: /Ogty
; File c:\documents and settings\test\mes documents\source\virtuos_v17\build\program\dx_sdk\d3dx9math.inl
;	COMDAT ??0D3DXVECTOR3@@QAE@MMM@Z
_TEXT	SEGMENT
_fx$ = 8						; size = 4
_fy$ = 12						; size = 4
_fz$ = 16						; size = 4
??0D3DXVECTOR3@@QAE@MMM@Z PROC NEAR			; D3DXVECTOR3::D3DXVECTOR3, COMDAT
; _this$ = ecx

; 300  :     x = fx;
; 301  :     y = fy;

  00000	8b 54 24 08	 mov	 edx, DWORD PTR _fy$[esp-4]
  00004	8b c1		 mov	 eax, ecx
  00006	8b 4c 24 04	 mov	 ecx, DWORD PTR _fx$[esp-4]
  0000a	89 08		 mov	 DWORD PTR [eax], ecx

; 302  :     z = fz;

  0000c	8b 4c 24 0c	 mov	 ecx, DWORD PTR _fz$[esp-4]
  00010	89 50 04	 mov	 DWORD PTR [eax+4], edx
  00013	89 48 08	 mov	 DWORD PTR [eax+8], ecx

; 303  : }

  00016	c2 0c 00	 ret	 12			; 0000000cH
??0D3DXVECTOR3@@QAE@MMM@Z ENDP				; D3DXVECTOR3::D3DXVECTOR3
_TEXT	ENDS
PUBLIC	??GD3DXVECTOR3@@QBE?AU0@ABU0@@Z			; D3DXVECTOR3::operator-
; Function compile flags: /Ogty
;	COMDAT ??GD3DXVECTOR3@@QBE?AU0@ABU0@@Z
_TEXT	SEGMENT
___$ReturnUdt$ = 8					; size = 4
_v$ = 12						; size = 4
??GD3DXVECTOR3@@QBE?AU0@ABU0@@Z PROC NEAR		; D3DXVECTOR3::operator-, COMDAT
; _this$ = ecx

; 383  :     return D3DXVECTOR3(x - v.x, y - v.y, z - v.z);

  00000	d9 41 08	 fld	 DWORD PTR [ecx+8]
  00003	8b 44 24 08	 mov	 eax, DWORD PTR _v$[esp-4]
  00007	d8 60 08	 fsub	 DWORD PTR [eax+8]
  0000a	d9 41 04	 fld	 DWORD PTR [ecx+4]
  0000d	d8 60 04	 fsub	 DWORD PTR [eax+4]
  00010	d9 01		 fld	 DWORD PTR [ecx]
  00012	d8 20		 fsub	 DWORD PTR [eax]
  00014	8b 44 24 04	 mov	 eax, DWORD PTR ___$ReturnUdt$[esp-4]
  00018	d9 18		 fstp	 DWORD PTR [eax]
  0001a	d9 58 04	 fstp	 DWORD PTR [eax+4]
  0001d	d9 58 08	 fstp	 DWORD PTR [eax+8]

; 384  : }

  00020	c2 08 00	 ret	 8
??GD3DXVECTOR3@@QBE?AU0@ABU0@@Z ENDP			; D3DXVECTOR3::operator-
_TEXT	ENDS
PUBLIC	?D3DXVec3Dot@@YAMPBUD3DXVECTOR3@@0@Z		; D3DXVec3Dot
; Function compile flags: /Ogty
;	COMDAT ?D3DXVec3Dot@@YAMPBUD3DXVECTOR3@@0@Z
_TEXT	SEGMENT
_pV1$ = 8						; size = 4
_pV2$ = 12						; size = 4
?D3DXVec3Dot@@YAMPBUD3DXVECTOR3@@0@Z PROC NEAR		; D3DXVec3Dot, COMDAT

; 1704 : #ifdef D3DX_DEBUG
; 1705 :     if(!pV1 || !pV2)
; 1706 :         return 0.0f;
; 1707 : #endif
; 1708 : 
; 1709 :     return pV1->x * pV2->x + pV1->y * pV2->y + pV1->z * pV2->z;

  00000	8b 44 24 04	 mov	 eax, DWORD PTR _pV1$[esp-4]
  00004	8b 4c 24 08	 mov	 ecx, DWORD PTR _pV2$[esp-4]
  00008	d9 40 08	 fld	 DWORD PTR [eax+8]
  0000b	d8 49 08	 fmul	 DWORD PTR [ecx+8]
  0000e	d9 40 04	 fld	 DWORD PTR [eax+4]
  00011	d8 49 04	 fmul	 DWORD PTR [ecx+4]
  00014	de c1		 faddp	 ST(1), ST(0)
  00016	d9 00		 fld	 DWORD PTR [eax]
  00018	d8 09		 fmul	 DWORD PTR [ecx]
  0001a	de c1		 faddp	 ST(1), ST(0)

; 1710 : }

  0001c	c3		 ret	 0
?D3DXVec3Dot@@YAMPBUD3DXVECTOR3@@0@Z ENDP		; D3DXVec3Dot
_TEXT	ENDS
PUBLIC	?IsDelete@CObj@@QAEHXZ				; CObj::IsDelete
; Function compile flags: /Ogty
; File c:\documents and settings\test\mes documents\source\virtuos_v17\build\program\_common\obj.h
;	COMDAT ?IsDelete@CObj@@QAEHXZ
_TEXT	SEGMENT
?IsDelete@CObj@@QAEHXZ PROC NEAR			; CObj::IsDelete, COMDAT
; _this$ = ecx

; 180  : 	BOOL			IsDelete()	{ return (m_dwFlags & OBJ_FLAG_DELETE);  }

  00000	8b 41 04	 mov	 eax, DWORD PTR [ecx+4]
  00003	83 e0 01	 and	 eax, 1
  00006	c3		 ret	 0
?IsDelete@CObj@@QAEHXZ ENDP				; CObj::IsDelete
_TEXT	ENDS
PUBLIC	?GetType@CObj@@QAEKXZ				; CObj::GetType
; Function compile flags: /Ogty
;	COMDAT ?GetType@CObj@@QAEKXZ
_TEXT	SEGMENT
?GetType@CObj@@QAEKXZ PROC NEAR				; CObj::GetType, COMDAT
; _this$ = ecx

; 206  : 	DWORD			GetType() { return m_dwType; }

  00000	8b 81 70 01 00
	00		 mov	 eax, DWORD PTR [ecx+368]
  00006	c3		 ret	 0
?GetType@CObj@@QAEKXZ ENDP				; CObj::GetType
_TEXT	ENDS
PUBLIC	?GetPos@CObj@@QAE?AUD3DXVECTOR3@@XZ		; CObj::GetPos
; Function compile flags: /Ogty
;	COMDAT ?GetPos@CObj@@QAE?AUD3DXVECTOR3@@XZ
_TEXT	SEGMENT
___$ReturnUdt$ = 8					; size = 4
?GetPos@CObj@@QAE?AUD3DXVECTOR3@@XZ PROC NEAR		; CObj::GetPos, COMDAT
; _this$ = ecx

; 215  : 	D3DXVECTOR3		GetPos()	{ return m_vPos; }

  00000	8b 44 24 04	 mov	 eax, DWORD PTR ___$ReturnUdt$[esp-4]
  00004	81 c1 60 01 00
	00		 add	 ecx, 352		; 00000160H
  0000a	56		 push	 esi
  0000b	8b 31		 mov	 esi, DWORD PTR [ecx]
  0000d	8b d0		 mov	 edx, eax
  0000f	89 32		 mov	 DWORD PTR [edx], esi
  00011	8b 71 04	 mov	 esi, DWORD PTR [ecx+4]
  00014	89 72 04	 mov	 DWORD PTR [edx+4], esi
  00017	8b 49 08	 mov	 ecx, DWORD PTR [ecx+8]
  0001a	89 4a 08	 mov	 DWORD PTR [edx+8], ecx
  0001d	5e		 pop	 esi
  0001e	c2 04 00	 ret	 4
?GetPos@CObj@@QAE?AUD3DXVECTOR3@@XZ ENDP		; CObj::GetPos
_TEXT	ENDS
PUBLIC	?GetAngle@CObj@@QAEMXZ				; CObj::GetAngle
; Function compile flags: /Ogty
;	COMDAT ?GetAngle@CObj@@QAEMXZ
_TEXT	SEGMENT
?GetAngle@CObj@@QAEMXZ PROC NEAR			; CObj::GetAngle, COMDAT
; _this$ = ecx

; 217  : 	FLOAT			GetAngle()	{ return m_fAngle; }

  00000	d9 41 18	 fld	 DWORD PTR [ecx+24]
  00003	c3		 ret	 0
?GetAngle@CObj@@QAEMXZ ENDP				; CObj::GetAngle
_TEXT	ENDS
PUBLIC	?GetWorld@CObj@@QAEPAVCWorld@@XZ		; CObj::GetWorld
; Function compile flags: /Ogty
;	COMDAT ?GetWorld@CObj@@QAEPAVCWorld@@XZ
_TEXT	SEGMENT
?GetWorld@CObj@@QAEPAVCWorld@@XZ PROC NEAR		; CObj::GetWorld, COMDAT
; _this$ = ecx

; 221  : 	CWorld*			GetWorld()	{ return m_pWorld; }

  00000	8b 81 6c 01 00
	00		 mov	 eax, DWORD PTR [ecx+364]
  00006	c3		 ret	 0
?GetWorld@CObj@@QAEPAVCWorld@@XZ ENDP			; CObj::GetWorld
_TEXT	ENDS
PUBLIC	__real@3c8efa35
PUBLIC	?VelocityToVec@@YA?AUD3DXVECTOR3@@MM@Z		; VelocityToVec
;	COMDAT __real@3c8efa35
; File c:\documents and settings\test\mes documents\source\virtuos_v17\build\program\dx_sdk\d3dx9math.inl
CONST	SEGMENT
__real@3c8efa35 DD 03c8efa35r			; 0.0174533
; Function compile flags: /Ogty
; File c:\documents and settings\test\mes documents\source\virtuos_v17\build\program\_common\obj.h
CONST	ENDS
;	COMDAT ?VelocityToVec@@YA?AUD3DXVECTOR3@@MM@Z
_TEXT	SEGMENT
___$ReturnUdt$ = 8					; size = 4
_fAngle$ = 12						; size = 4
_fVelocity$ = 16					; size = 4
?VelocityToVec@@YA?AUD3DXVECTOR3@@MM@Z PROC NEAR	; VelocityToVec, COMDAT

; 280  : 	FLOAT fTheta = D3DXToRadian( fAngle );

  00000	d9 44 24 08	 fld	 DWORD PTR _fAngle$[esp-4]

; 281  : 	FLOAT fx = sinf( fTheta ) * fVelocity;
; 282  : 	FLOAT fz = -cosf( fTheta ) * fVelocity;
; 283  : 	return D3DXVECTOR3( fx, 0.0f, fz );

  00004	8b 44 24 04	 mov	 eax, DWORD PTR ___$ReturnUdt$[esp-4]
  00008	d8 0d 00 00 00
	00		 fmul	 DWORD PTR __real@3c8efa35
  0000e	c7 40 04 00 00
	00 00		 mov	 DWORD PTR [eax+4], 0
  00015	d9 c0		 fld	 ST(0)
  00017	d9 fe		 fsin
  00019	d8 4c 24 0c	 fmul	 DWORD PTR _fVelocity$[esp-4]
  0001d	d9 18		 fstp	 DWORD PTR [eax]
  0001f	d9 ff		 fcos
  00021	d8 4c 24 0c	 fmul	 DWORD PTR _fVelocity$[esp-4]
  00025	d9 e0		 fchs
  00027	d9 58 08	 fstp	 DWORD PTR [eax+8]

; 284  : }

  0002a	c3		 ret	 0
?VelocityToVec@@YA?AUD3DXVECTOR3@@MM@Z ENDP		; VelocityToVec
_TEXT	ENDS
PUBLIC	__real@0000000000000000
PUBLIC	__real@00000000
PUBLIC	__real@42652ee0
PUBLIC	__real@43b40000
PUBLIC	?GetDegree@@YAMABUD3DXVECTOR3@@0@Z		; GetDegree
EXTRN	_D3DXVec3Normalize@8:NEAR
;	COMDAT __real@0000000000000000
; File c:\program files\microsoft visual studio .net 2003\vc7\include\math.h
CONST	SEGMENT
__real@0000000000000000 DQ 00000000000000000r	; 0
CONST	ENDS
;	COMDAT __real@42652ee0
CONST	SEGMENT
__real@42652ee0 DD 042652ee0r			; 57.2958
CONST	ENDS
;	COMDAT __real@00000000
CONST	SEGMENT
__real@00000000 DD 000000000r			; 0
CONST	ENDS
;	COMDAT __real@43b40000
CONST	SEGMENT
__real@43b40000 DD 043b40000r			; 360
; Function compile flags: /Ogty
; File c:\documents and settings\test\mes documents\source\virtuos_v17\build\program\_common\obj.h
CONST	ENDS
;	COMDAT ?GetDegree@@YAMABUD3DXVECTOR3@@0@Z
_TEXT	SEGMENT
_vDir2$ = -24						; size = 12
_vDir1$ = -12						; size = 12
_vDestPos$ = 8						; size = 4
_vSrcPos$ = 12						; size = 4
?GetDegree@@YAMABUD3DXVECTOR3@@0@Z PROC NEAR		; GetDegree, COMDAT

; 289  : {

  00000	83 ec 18	 sub	 esp, 24			; 00000018H

; 290  : 	D3DXVECTOR3 vDir1 = VelocityToVec( 0.0f, 1.0f );

  00003	dd 05 00 00 00
	00		 fld	 QWORD PTR __real@0000000000000000

; 291  : 	D3DXVECTOR3 vDir2 = vDestPos - vSrcPos;

  00009	8b 44 24 1c	 mov	 eax, DWORD PTR _vDestPos$[esp+20]
  0000d	d9 fe		 fsin
  0000f	8b 4c 24 20	 mov	 ecx, DWORD PTR _vSrcPos$[esp+20]
  00013	c7 44 24 10 00
	00 00 00	 mov	 DWORD PTR _vDir1$[esp+28], 0

; 292  : 	vDir2.y = 0.0f;

  0001b	c7 44 24 04 00
	00 00 00	 mov	 DWORD PTR _vDir2$[esp+28], 0
  00023	d9 5c 24 0c	 fstp	 DWORD PTR _vDir1$[esp+24]
  00027	dd 05 00 00 00
	00		 fld	 QWORD PTR __real@0000000000000000
  0002d	d9 ff		 fcos
  0002f	d9 e0		 fchs
  00031	d9 5c 24 14	 fstp	 DWORD PTR _vDir1$[esp+32]
  00035	d9 00		 fld	 DWORD PTR [eax]
  00037	d8 21		 fsub	 DWORD PTR [ecx]
  00039	d9 1c 24	 fstp	 DWORD PTR _vDir2$[esp+24]
  0003c	d9 40 08	 fld	 DWORD PTR [eax+8]

; 293  : 
; 294  : 	D3DXVec3Normalize( &vDir1, &vDir1 );

  0003f	8d 44 24 0c	 lea	 eax, DWORD PTR _vDir1$[esp+24]
  00043	d8 61 08	 fsub	 DWORD PTR [ecx+8]
  00046	50		 push	 eax
  00047	8b c8		 mov	 ecx, eax
  00049	51		 push	 ecx
  0004a	d9 5c 24 10	 fstp	 DWORD PTR _vDir2$[esp+40]
  0004e	e8 00 00 00 00	 call	 _D3DXVec3Normalize@8

; 295  : 	D3DXVec3Normalize( &vDir2, &vDir2 );

  00053	8d 14 24	 lea	 edx, DWORD PTR _vDir2$[esp+24]
  00056	52		 push	 edx
  00057	8b c2		 mov	 eax, edx
  00059	50		 push	 eax
  0005a	e8 00 00 00 00	 call	 _D3DXVec3Normalize@8

; 296  : 	FLOAT fDot = D3DXVec3Dot( &vDir1, &vDir2 );

  0005f	d9 44 24 08	 fld	 DWORD PTR _vDir2$[esp+32]
  00063	d8 4c 24 14	 fmul	 DWORD PTR _vDir1$[esp+32]
  00067	d9 44 24 0c	 fld	 DWORD PTR _vDir1$[esp+24]
  0006b	d8 0c 24	 fmul	 DWORD PTR _vDir2$[esp+24]

; 301  : 	else
; 302  : 		fDegree = fDegree;
; 303  : 	return fDegree;

  0006e	de c1		 faddp	 ST(1), ST(0)
  00070	d9 44 24 10	 fld	 DWORD PTR _vDir1$[esp+28]
  00074	d8 4c 24 04	 fmul	 DWORD PTR _vDir2$[esp+28]
  00078	de c1		 faddp	 ST(1), ST(0)
  0007a	e8 00 00 00 00	 call	 __CIacos
  0007f	d8 0d 00 00 00
	00		 fmul	 DWORD PTR __real@42652ee0
  00085	d9 04 24	 fld	 DWORD PTR _vDir2$[esp+24]
  00088	d8 1d 00 00 00
	00		 fcomp	 DWORD PTR __real@00000000
  0008e	df e0		 fnstsw	 ax
  00090	f6 c4 05	 test	 ah, 5
  00093	7a 06		 jp	 SHORT $L176563

; 297  : 	FLOAT fRadian = acosf( fDot );
; 298  : 	FLOAT fDegree = D3DXToDegree( fRadian );
; 299  : 	if( vDir2.x < 0.0f )
; 300  : 		fDegree = 360.0f - fDegree;

  00095	d8 2d 00 00 00
	00		 fsubr	 DWORD PTR __real@43b40000
$L176563:

; 304  : }

  0009b	83 c4 18	 add	 esp, 24			; 00000018H
  0009e	c3		 ret	 0
?GetDegree@@YAMABUD3DXVECTOR3@@0@Z ENDP			; GetDegree
_TEXT	ENDS
PUBLIC	?IsValidObj@@YAHPAVCObj@@@Z			; IsValidObj
; Function compile flags: /Ogty
;	COMDAT ?IsValidObj@@YAHPAVCObj@@@Z
_TEXT	SEGMENT
_pObj$ = 8						; size = 4
?IsValidObj@@YAHPAVCObj@@@Z PROC NEAR			; IsValidObj, COMDAT

; 327  : 	return pObj && ( pObj->IsDelete() == FALSE ); 

  00000	8b 44 24 04	 mov	 eax, DWORD PTR _pObj$[esp-4]
  00004	85 c0		 test	 eax, eax
  00006	74 0c		 je	 SHORT $L272675
  00008	f6 40 04 01	 test	 BYTE PTR [eax+4], 1
  0000c	75 06		 jne	 SHORT $L272675
  0000e	b8 01 00 00 00	 mov	 eax, 1

; 328  : }

  00013	c3		 ret	 0
$L272675:

; 327  : 	return pObj && ( pObj->IsDelete() == FALSE ); 

  00014	33 c0		 xor	 eax, eax

; 328  : }

  00016	c3		 ret	 0
?IsValidObj@@YAHPAVCObj@@@Z ENDP			; IsValidObj
_TEXT	ENDS
PUBLIC	?IsInvalidObj@@YAHPAVCObj@@@Z			; IsInvalidObj
; Function compile flags: /Ogty
;	COMDAT ?IsInvalidObj@@YAHPAVCObj@@@Z
_TEXT	SEGMENT
_pObj$ = 8						; size = 4
?IsInvalidObj@@YAHPAVCObj@@@Z PROC NEAR			; IsInvalidObj, COMDAT

; 332  : 	return !IsValidObj( pObj ); 

  00000	8b 44 24 04	 mov	 eax, DWORD PTR _pObj$[esp-4]
  00004	85 c0		 test	 eax, eax
  00006	74 15		 je	 SHORT $L272690
  00008	f6 40 04 01	 test	 BYTE PTR [eax+4], 1
  0000c	75 0f		 jne	 SHORT $L272690
  0000e	b8 01 00 00 00	 mov	 eax, 1
  00013	33 c9		 xor	 ecx, ecx
  00015	85 c0		 test	 eax, eax
  00017	0f 94 c1	 sete	 cl
  0001a	8b c1		 mov	 eax, ecx

; 333  : }

  0001c	c3		 ret	 0

; 332  : 	return !IsValidObj( pObj ); 

$L272690:
  0001d	33 c0		 xor	 eax, eax
  0001f	33 c9		 xor	 ecx, ecx
  00021	85 c0		 test	 eax, eax
  00023	0f 94 c1	 sete	 cl
  00026	8b c1		 mov	 eax, ecx

; 333  : }

  00028	c3		 ret	 0
?IsInvalidObj@@YAHPAVCObj@@@Z ENDP			; IsInvalidObj
_TEXT	ENDS
PUBLIC	?GetId@CCtrl@@QAEKXZ				; CCtrl::GetId
; Function compile flags: /Ogty
; File c:\documents and settings\test\mes documents\source\virtuos_v17\build\program\_common\ctrl.h
;	COMDAT ?GetId@CCtrl@@QAEKXZ
_TEXT	SEGMENT
?GetId@CCtrl@@QAEKXZ PROC NEAR				; CCtrl::GetId, COMDAT
; _this$ = ecx

; 58   : 	OBJID			GetId()					{ return m_objid;   }

  00000	8b 81 bc 01 00
	00		 mov	 eax, DWORD PTR [ecx+444]
  00006	c3		 ret	 0
?GetId@CCtrl@@QAEKXZ ENDP				; CCtrl::GetId
_TEXT	ENDS
PUBLIC	?LOG_RANGE@@YAXPBDHHH@Z				; LOG_RANGE
PUBLIC	??_C@_0BM@HMFGHCP@?$CFs?5min?3?$CFd?0?5max?3?$CFd?0?5index?3?$CFd?$AA@ ; `string'
EXTRN	?Error@@YAPBDPBDZZ:NEAR				; Error
;	COMDAT ??_C@_0BM@HMFGHCP@?$CFs?5min?3?$CFd?0?5max?3?$CFd?0?5index?3?$CFd?$AA@
; File c:\documents and settings\test\mes documents\source\virtuos_v17\build\program\_common\project.h
CONST	SEGMENT
??_C@_0BM@HMFGHCP@?$CFs?5min?3?$CFd?0?5max?3?$CFd?0?5index?3?$CFd?$AA@ DB '%'
	DB	's min:%d, max:%d, index:%d', 00H		; `string'
; Function compile flags: /Ogty
CONST	ENDS
;	COMDAT ?LOG_RANGE@@YAXPBDHHH@Z
_TEXT	SEGMENT
_szMsg$ = 8						; size = 4
_nMin$ = 12						; size = 4
_nMax$ = 16						; size = 4
_nIndex$ = 20						; size = 4
?LOG_RANGE@@YAXPBDHHH@Z PROC NEAR			; LOG_RANGE, COMDAT

; 559  : 	LPCTSTR szErr = Error( _T( "%s min:%d, max:%d, index:%d" ), szMsg, nMin, nMax, nIndex ); 

  00000	8b 44 24 10	 mov	 eax, DWORD PTR _nIndex$[esp-4]
  00004	8b 4c 24 0c	 mov	 ecx, DWORD PTR _nMax$[esp-4]
  00008	8b 54 24 08	 mov	 edx, DWORD PTR _nMin$[esp-4]
  0000c	50		 push	 eax
  0000d	8b 44 24 08	 mov	 eax, DWORD PTR _szMsg$[esp]
  00011	51		 push	 ecx
  00012	52		 push	 edx
  00013	50		 push	 eax
  00014	68 00 00 00 00	 push	 OFFSET FLAT:??_C@_0BM@HMFGHCP@?$CFs?5min?3?$CFd?0?5max?3?$CFd?0?5index?3?$CFd?$AA@
  00019	e8 00 00 00 00	 call	 ?Error@@YAPBDPBDZZ	; Error
  0001e	83 c4 14	 add	 esp, 20			; 00000014H

; 560  : 	ADDERRORMSG( szErr ); 
; 561  : }

  00021	c3		 ret	 0
?LOG_RANGE@@YAXPBDHHH@Z ENDP				; LOG_RANGE
_TEXT	ENDS
PUBLIC	?LOG_CALLSTACK@@YAXXZ				; LOG_CALLSTACK
; Function compile flags: /Ogty
;	COMDAT ?LOG_CALLSTACK@@YAXXZ
_TEXT	SEGMENT
?LOG_CALLSTACK@@YAXXZ PROC NEAR				; LOG_CALLSTACK, COMDAT

; 565  : #ifdef _DEBUG
; 566  : 	__asm int 3
; 567  : #endif
; 568  : 
; 569  : #if defined(__INTERNALSERVER)
; 570  : 	int *p = NULL;		//    
; 571  : 	*p = 1;
; 572  : #endif
; 573  : }

  00000	c3		 ret	 0
?LOG_CALLSTACK@@YAXXZ ENDP				; LOG_CALLSTACK
_TEXT	ENDS
PUBLIC	??_C@_0BJ@GKPOBPPI@GetMoverProp?5range_error?$AA@ ; `string'
PUBLIC	?GetMoverProp@CProject@@QAEPAUMoverProp@@H@Z	; CProject::GetMoverProp
;	COMDAT ??_C@_0BJ@GKPOBPPI@GetMoverProp?5range_error?$AA@
CONST	SEGMENT
??_C@_0BJ@GKPOBPPI@GetMoverProp?5range_error?$AA@ DB 'GetMoverProp range_'
	DB	'error', 00H					; `string'
; Function compile flags: /Ogty
CONST	ENDS
;	COMDAT ?GetMoverProp@CProject@@QAEPAUMoverProp@@H@Z
_TEXT	SEGMENT
_nIndex$ = 8						; size = 4
?GetMoverProp@CProject@@QAEPAUMoverProp@@H@Z PROC NEAR	; CProject::GetMoverProp, COMDAT
; _this$ = ecx

; 1381 : 	VERIFY_RANGE( nIndex, 0, m_nMoverPropSize, "GetMoverProp range_error", NULL );

  00000	8b 44 24 04	 mov	 eax, DWORD PTR _nIndex$[esp-4]
  00004	85 c0		 test	 eax, eax
  00006	7c 19		 jl	 SHORT $L197938
  00008	3b 81 d0 01 00
	00		 cmp	 eax, DWORD PTR [ecx+464]
  0000e	7d 11		 jge	 SHORT $L197938

; 1382 : 	return m_pPropMover + nIndex;

  00010	8b 91 d4 01 00
	00		 mov	 edx, DWORD PTR [ecx+468]
  00016	69 c0 d8 06 00
	00		 imul	 eax, 1752		; 000006d8H
  0001c	03 c2		 add	 eax, edx

; 1383 : }

  0001e	c2 04 00	 ret	 4
$L197938:

; 1381 : 	VERIFY_RANGE( nIndex, 0, m_nMoverPropSize, "GetMoverProp range_error", NULL );

  00021	50		 push	 eax
  00022	8b 81 d0 01 00
	00		 mov	 eax, DWORD PTR [ecx+464]
  00028	50		 push	 eax
  00029	6a 00		 push	 0
  0002b	68 00 00 00 00	 push	 OFFSET FLAT:??_C@_0BJ@GKPOBPPI@GetMoverProp?5range_error?$AA@
  00030	68 00 00 00 00	 push	 OFFSET FLAT:??_C@_0BM@HMFGHCP@?$CFs?5min?3?$CFd?0?5max?3?$CFd?0?5index?3?$CFd?$AA@
  00035	e8 00 00 00 00	 call	 ?Error@@YAPBDPBDZZ	; Error
  0003a	83 c4 14	 add	 esp, 20			; 00000014H
  0003d	33 c0		 xor	 eax, eax

; 1383 : }

  0003f	c2 04 00	 ret	 4
?GetMoverProp@CProject@@QAEPAUMoverProp@@H@Z ENDP	; CProject::GetMoverProp
_TEXT	ENDS
PUBLIC	?__ForceSetState@CAction@@QAEXK@Z		; CAction::__ForceSetState
; Function compile flags: /Ogty
; File c:\documents and settings\test\mes documents\source\virtuos_v17\build\program\_aiinterface\action.h
;	COMDAT ?__ForceSetState@CAction@@QAEXK@Z
_TEXT	SEGMENT
_dwState$ = 8						; size = 4
?__ForceSetState@CAction@@QAEXK@Z PROC NEAR		; CAction::__ForceSetState, COMDAT
; _this$ = ecx

; 282  : 	void			__ForceSetState( DWORD dwState ) { m_dwState = dwState; }		// dwState  .     .

  00000	8b 44 24 04	 mov	 eax, DWORD PTR _dwState$[esp-4]
  00004	89 41 04	 mov	 DWORD PTR [ecx+4], eax
  00007	c2 04 00	 ret	 4
?__ForceSetState@CAction@@QAEXK@Z ENDP			; CAction::__ForceSetState
_TEXT	ENDS
PUBLIC	?ClearStateFlag@CAction@@QAEXXZ			; CAction::ClearStateFlag
; Function compile flags: /Ogty
;	COMDAT ?ClearStateFlag@CAction@@QAEXXZ
_TEXT	SEGMENT
?ClearStateFlag@CAction@@QAEXXZ PROC NEAR		; CAction::ClearStateFlag, COMDAT
; _this$ = ecx

; 283  : 	void			ClearStateFlag() { m_dwStateFlag = 0; }

  00000	c7 41 08 00 00
	00 00		 mov	 DWORD PTR [ecx+8], 0
  00007	c3		 ret	 0
?ClearStateFlag@CAction@@QAEXXZ ENDP			; CAction::ClearStateFlag
_TEXT	ENDS
PUBLIC	?GetStateFlag@CAction@@QAEKXZ			; CAction::GetStateFlag
; Function compile flags: /Ogty
;	COMDAT ?GetStateFlag@CAction@@QAEKXZ
_TEXT	SEGMENT
?GetStateFlag@CAction@@QAEKXZ PROC NEAR			; CAction::GetStateFlag, COMDAT
; _this$ = ecx

; 288  : 	DWORD			GetStateFlag() { return m_dwStateFlag; }

  00000	8b 41 08	 mov	 eax, DWORD PTR [ecx+8]
  00003	c3		 ret	 0
?GetStateFlag@CAction@@QAEKXZ ENDP			; CAction::GetStateFlag
_TEXT	ENDS
PUBLIC	?GetState@CAction@@QAEKXZ			; CAction::GetState
; Function compile flags: /Ogty
;	COMDAT ?GetState@CAction@@QAEKXZ
_TEXT	SEGMENT
?GetState@CAction@@QAEKXZ PROC NEAR			; CAction::GetState, COMDAT
; _this$ = ecx

; 291  : 	DWORD			GetState() { return m_dwState; }

  00000	8b 41 04	 mov	 eax, DWORD PTR [ecx+4]
  00003	c3		 ret	 0
?GetState@CAction@@QAEKXZ ENDP				; CAction::GetState
_TEXT	ENDS
PUBLIC	?SetState@CAction@@QAEXKK@Z			; CAction::SetState
EXTRN	?ResetState@CAction@@QAEXK@Z:NEAR		; CAction::ResetState
; Function compile flags: /Ogty
;	COMDAT ?SetState@CAction@@QAEXKK@Z
_TEXT	SEGMENT
_dwType$ = 8						; size = 4
_dwState$ = 12						; size = 4
?SetState@CAction@@QAEXKK@Z PROC NEAR			; CAction::SetState, COMDAT
; _this$ = ecx

; 292  : 	void			SetState( DWORD dwType, DWORD dwState )	{ ResetState(dwType);	m_dwState |= dwState; }

  00000	8b 44 24 04	 mov	 eax, DWORD PTR _dwType$[esp-4]
  00004	56		 push	 esi
  00005	50		 push	 eax
  00006	8b f1		 mov	 esi, ecx
  00008	e8 00 00 00 00	 call	 ?ResetState@CAction@@QAEXK@Z ; CAction::ResetState
  0000d	8b 46 04	 mov	 eax, DWORD PTR [esi+4]
  00010	8b 4c 24 0c	 mov	 ecx, DWORD PTR _dwState$[esp]
  00014	0b c1		 or	 eax, ecx
  00016	89 46 04	 mov	 DWORD PTR [esi+4], eax
  00019	5e		 pop	 esi
  0001a	c2 08 00	 ret	 8
?SetState@CAction@@QAEXKK@Z ENDP			; CAction::SetState
_TEXT	ENDS
PUBLIC	?SetMoveState@CAction@@QAEXK@Z			; CAction::SetMoveState
; Function compile flags: /Ogty
;	COMDAT ?SetMoveState@CAction@@QAEXK@Z
_TEXT	SEGMENT
_dwState$ = 8						; size = 4
?SetMoveState@CAction@@QAEXK@Z PROC NEAR		; CAction::SetMoveState, COMDAT
; _this$ = ecx

; 293  : 	void			SetMoveState( DWORD dwState ) { ResetState(OBJSTA_MOVE_ALL);	m_dwState |= dwState; }

  00000	56		 push	 esi
  00001	68 ff 00 00 00	 push	 255			; 000000ffH
  00006	8b f1		 mov	 esi, ecx
  00008	e8 00 00 00 00	 call	 ?ResetState@CAction@@QAEXK@Z ; CAction::ResetState
  0000d	8b 4e 04	 mov	 ecx, DWORD PTR [esi+4]
  00010	8b 44 24 08	 mov	 eax, DWORD PTR _dwState$[esp]
  00014	0b c8		 or	 ecx, eax
  00016	89 4e 04	 mov	 DWORD PTR [esi+4], ecx
  00019	5e		 pop	 esi
  0001a	c2 04 00	 ret	 4
?SetMoveState@CAction@@QAEXK@Z ENDP			; CAction::SetMoveState
_TEXT	ENDS
PUBLIC	?SetTurnState@CAction@@QAEXK@Z			; CAction::SetTurnState
; Function compile flags: /Ogty
;	COMDAT ?SetTurnState@CAction@@QAEXK@Z
_TEXT	SEGMENT
_dwState$ = 8						; size = 4
?SetTurnState@CAction@@QAEXK@Z PROC NEAR		; CAction::SetTurnState, COMDAT
; _this$ = ecx

; 294  : 	void			SetTurnState( DWORD dwState ) { ResetState(OBJSTA_TURN_ALL);	m_dwState |= dwState; }

  00000	56		 push	 esi
  00001	68 00 03 00 00	 push	 768			; 00000300H
  00006	8b f1		 mov	 esi, ecx
  00008	e8 00 00 00 00	 call	 ?ResetState@CAction@@QAEXK@Z ; CAction::ResetState
  0000d	8b 4e 04	 mov	 ecx, DWORD PTR [esi+4]
  00010	8b 44 24 08	 mov	 eax, DWORD PTR _dwState$[esp]
  00014	0b c8		 or	 ecx, eax
  00016	89 4e 04	 mov	 DWORD PTR [esi+4], ecx
  00019	5e		 pop	 esi
  0001a	c2 04 00	 ret	 4
?SetTurnState@CAction@@QAEXK@Z ENDP			; CAction::SetTurnState
_TEXT	ENDS
PUBLIC	?SetLookState@CAction@@QAEXK@Z			; CAction::SetLookState
; Function compile flags: /Ogty
;	COMDAT ?SetLookState@CAction@@QAEXK@Z
_TEXT	SEGMENT
_dwState$ = 8						; size = 4
?SetLookState@CAction@@QAEXK@Z PROC NEAR		; CAction::SetLookState, COMDAT
; _this$ = ecx

; 295  : 	void			SetLookState( DWORD dwState ) { ResetState(OBJSTA_LOOK_ALL);	m_dwState |= dwState; }

  00000	56		 push	 esi
  00001	68 00 0c 00 00	 push	 3072			; 00000c00H
  00006	8b f1		 mov	 esi, ecx
  00008	e8 00 00 00 00	 call	 ?ResetState@CAction@@QAEXK@Z ; CAction::ResetState
  0000d	8b 4e 04	 mov	 ecx, DWORD PTR [esi+4]
  00010	8b 44 24 08	 mov	 eax, DWORD PTR _dwState$[esp]
  00014	0b c8		 or	 ecx, eax
  00016	89 4e 04	 mov	 DWORD PTR [esi+4], ecx
  00019	5e		 pop	 esi
  0001a	c2 04 00	 ret	 4
?SetLookState@CAction@@QAEXK@Z ENDP			; CAction::SetLookState
_TEXT	ENDS
PUBLIC	?SetJumpState@CAction@@QAEXK@Z			; CAction::SetJumpState
; Function compile flags: /Ogty
;	COMDAT ?SetJumpState@CAction@@QAEXK@Z
_TEXT	SEGMENT
_dwState$ = 8						; size = 4
?SetJumpState@CAction@@QAEXK@Z PROC NEAR		; CAction::SetJumpState, COMDAT
; _this$ = ecx

; 296  : 	void			SetJumpState( DWORD dwState ) { ResetState(OBJSTA_JUMP_ALL);	m_dwState |= dwState; }

  00000	56		 push	 esi
  00001	68 00 f0 00 00	 push	 61440			; 0000f000H
  00006	8b f1		 mov	 esi, ecx
  00008	e8 00 00 00 00	 call	 ?ResetState@CAction@@QAEXK@Z ; CAction::ResetState
  0000d	8b 4e 04	 mov	 ecx, DWORD PTR [esi+4]
  00010	8b 44 24 08	 mov	 eax, DWORD PTR _dwState$[esp]
  00014	0b c8		 or	 ecx, eax
  00016	89 4e 04	 mov	 DWORD PTR [esi+4], ecx
  00019	5e		 pop	 esi
  0001a	c2 04 00	 ret	 4
?SetJumpState@CAction@@QAEXK@Z ENDP			; CAction::SetJumpState
_TEXT	ENDS
PUBLIC	?GetMoveState@CAction@@QAEKXZ			; CAction::GetMoveState
; Function compile flags: /Ogty
;	COMDAT ?GetMoveState@CAction@@QAEKXZ
_TEXT	SEGMENT
?GetMoveState@CAction@@QAEKXZ PROC NEAR			; CAction::GetMoveState, COMDAT
; _this$ = ecx

; 300  : 	DWORD			GetMoveState() { return m_dwState & OBJSTA_MOVE_ALL; }

  00000	8b 41 04	 mov	 eax, DWORD PTR [ecx+4]
  00003	25 ff 00 00 00	 and	 eax, 255		; 000000ffH
  00008	c3		 ret	 0
?GetMoveState@CAction@@QAEKXZ ENDP			; CAction::GetMoveState
_TEXT	ENDS
PUBLIC	?GetTurnState@CAction@@QAEKXZ			; CAction::GetTurnState
; Function compile flags: /Ogty
;	COMDAT ?GetTurnState@CAction@@QAEKXZ
_TEXT	SEGMENT
?GetTurnState@CAction@@QAEKXZ PROC NEAR			; CAction::GetTurnState, COMDAT
; _this$ = ecx

; 301  : 	DWORD			GetTurnState() { return m_dwState & OBJSTA_TURN_ALL; }

  00000	8b 41 04	 mov	 eax, DWORD PTR [ecx+4]
  00003	25 00 03 00 00	 and	 eax, 768		; 00000300H
  00008	c3		 ret	 0
?GetTurnState@CAction@@QAEKXZ ENDP			; CAction::GetTurnState
_TEXT	ENDS
PUBLIC	?GetLookState@CAction@@QAEKXZ			; CAction::GetLookState
; Function compile flags: /Ogty
;	COMDAT ?GetLookState@CAction@@QAEKXZ
_TEXT	SEGMENT
?GetLookState@CAction@@QAEKXZ PROC NEAR			; CAction::GetLookState, COMDAT
; _this$ = ecx

; 302  : 	DWORD			GetLookState() { return m_dwState & OBJSTA_LOOK_ALL; }

  00000	8b 41 04	 mov	 eax, DWORD PTR [ecx+4]
  00003	25 00 0c 00 00	 and	 eax, 3072		; 00000c00H
  00008	c3		 ret	 0
?GetLookState@CAction@@QAEKXZ ENDP			; CAction::GetLookState
_TEXT	ENDS
PUBLIC	?GetDmgState@CAction@@QAEKXZ			; CAction::GetDmgState
; Function compile flags: /Ogty
;	COMDAT ?GetDmgState@CAction@@QAEKXZ
_TEXT	SEGMENT
?GetDmgState@CAction@@QAEKXZ PROC NEAR			; CAction::GetDmgState, COMDAT
; _this$ = ecx

; 304  : 	DWORD			GetDmgState() { return m_dwState & OBJSTA_DMG_ALL; }

  00000	8b 41 04	 mov	 eax, DWORD PTR [ecx+4]
  00003	25 00 00 00 0f	 and	 eax, 251658240		; 0f000000H
  00008	c3		 ret	 0
?GetDmgState@CAction@@QAEKXZ ENDP			; CAction::GetDmgState
_TEXT	ENDS
PUBLIC	?IsStateFlag@CAction@@QAEHK@Z			; CAction::IsStateFlag
; Function compile flags: /Ogty
;	COMDAT ?IsStateFlag@CAction@@QAEHK@Z
_TEXT	SEGMENT
_dwStateFlag$ = 8					; size = 4
?IsStateFlag@CAction@@QAEHK@Z PROC NEAR			; CAction::IsStateFlag, COMDAT
; _this$ = ecx

; 308  : 	BOOL			IsStateFlag( DWORD dwStateFlag ) { return ( m_dwStateFlag & dwStateFlag ) ? TRUE : FALSE; }

  00000	8b 41 08	 mov	 eax, DWORD PTR [ecx+8]
  00003	23 44 24 04	 and	 eax, DWORD PTR _dwStateFlag$[esp-4]
  00007	f7 d8		 neg	 eax
  00009	1b c0		 sbb	 eax, eax
  0000b	f7 d8		 neg	 eax
  0000d	c2 04 00	 ret	 4
?IsStateFlag@CAction@@QAEHK@Z ENDP			; CAction::IsStateFlag
_TEXT	ENDS
PUBLIC	?IsDie@CAction@@QAEHXZ				; CAction::IsDie
; Function compile flags: /Ogty
;	COMDAT ?IsDie@CAction@@QAEHXZ
_TEXT	SEGMENT
?IsDie@CAction@@QAEHXZ PROC NEAR			; CAction::IsDie, COMDAT
; _this$ = ecx

; 310  : 	BOOL			IsDie() { return (m_dwState & OBJSTA_DIE_ALL) ? TRUE : FALSE; }

  00000	8b 41 04	 mov	 eax, DWORD PTR [ecx+4]
  00003	c1 e8 1b	 shr	 eax, 27			; 0000001bH
  00006	83 e0 01	 and	 eax, 1
  00009	c3		 ret	 0
?IsDie@CAction@@QAEHXZ ENDP				; CAction::IsDie
_TEXT	ENDS
PUBLIC	?IsSit@CAction@@QAEHXZ				; CAction::IsSit
; Function compile flags: /Ogty
;	COMDAT ?IsSit@CAction@@QAEHXZ
_TEXT	SEGMENT
?IsSit@CAction@@QAEHXZ PROC NEAR			; CAction::IsSit, COMDAT
; _this$ = ecx

; 311  : 	BOOL			IsSit() { return (m_dwStateFlag & OBJSTAF_SIT) ? TRUE : FALSE; }

  00000	8b 41 08	 mov	 eax, DWORD PTR [ecx+8]
  00003	c1 e8 02	 shr	 eax, 2
  00006	83 e0 01	 and	 eax, 1
  00009	c3		 ret	 0
?IsSit@CAction@@QAEHXZ ENDP				; CAction::IsSit
_TEXT	ENDS
PUBLIC	?IsAction@CAction@@QAEHXZ			; CAction::IsAction
; Function compile flags: /Ogty
;	COMDAT ?IsAction@CAction@@QAEHXZ
_TEXT	SEGMENT
?IsAction@CAction@@QAEHXZ PROC NEAR			; CAction::IsAction, COMDAT
; _this$ = ecx

; 314  : 	BOOL			IsAction() { return (m_dwState & OBJSTA_ACTION_ALL) ? TRUE : FALSE; }

  00000	8b 41 04	 mov	 eax, DWORD PTR [ecx+4]
  00003	25 00 00 00 f0	 and	 eax, -268435456		; f0000000H
  00008	f7 d8		 neg	 eax
  0000a	1b c0		 sbb	 eax, eax
  0000c	f7 d8		 neg	 eax
  0000e	c3		 ret	 0
?IsAction@CAction@@QAEHXZ ENDP				; CAction::IsAction
_TEXT	ENDS
PUBLIC	?IsActJump@CAction@@QAEHXZ			; CAction::IsActJump
; Function compile flags: /Ogty
;	COMDAT ?IsActJump@CAction@@QAEHXZ
_TEXT	SEGMENT
?IsActJump@CAction@@QAEHXZ PROC NEAR			; CAction::IsActJump, COMDAT
; _this$ = ecx

; 321  : 	BOOL			IsActJump()		{ return m_dwState & OBJSTA_JUMP_ALL; }

  00000	8b 41 04	 mov	 eax, DWORD PTR [ecx+4]
  00003	25 00 f0 00 00	 and	 eax, 61440		; 0000f000H
  00008	c3		 ret	 0
?IsActJump@CAction@@QAEHXZ ENDP				; CAction::IsActJump
_TEXT	ENDS
PUBLIC	?IsActAttack@CAction@@QAEHXZ			; CAction::IsActAttack
; Function compile flags: /Ogty
;	COMDAT ?IsActAttack@CAction@@QAEHXZ
_TEXT	SEGMENT
?IsActAttack@CAction@@QAEHXZ PROC NEAR			; CAction::IsActAttack, COMDAT
; _this$ = ecx

; 322  : 	BOOL			IsActAttack()		{ return m_dwState & OBJSTA_ATK_ALL; }

  00000	8b 41 04	 mov	 eax, DWORD PTR [ecx+4]
  00003	25 00 00 ff 00	 and	 eax, 16711680		; 00ff0000H
  00008	c3		 ret	 0
?IsActAttack@CAction@@QAEHXZ ENDP			; CAction::IsActAttack
_TEXT	ENDS
PUBLIC	?IsActDamage@CAction@@QAEHXZ			; CAction::IsActDamage
; Function compile flags: /Ogty
;	COMDAT ?IsActDamage@CAction@@QAEHXZ
_TEXT	SEGMENT
?IsActDamage@CAction@@QAEHXZ PROC NEAR			; CAction::IsActDamage, COMDAT
; _this$ = ecx

; 323  : 	BOOL			IsActDamage()		{ return m_dwState & OBJSTA_DMG_ALL; }

  00000	8b 41 04	 mov	 eax, DWORD PTR [ecx+4]
  00003	25 00 00 00 0f	 and	 eax, 251658240		; 0f000000H
  00008	c3		 ret	 0
?IsActDamage@CAction@@QAEHXZ ENDP			; CAction::IsActDamage
_TEXT	ENDS
PUBLIC	?IsNPC@CMover@@QAEHXZ				; CMover::IsNPC
; Function compile flags: /Ogty
; File c:\documents and settings\test\mes documents\source\virtuos_v17\build\program\_common\mover.h
;	COMDAT ?IsNPC@CMover@@QAEHXZ
_TEXT	SEGMENT
?IsNPC@CMover@@QAEHXZ PROC NEAR				; CMover::IsNPC, COMDAT
; _this$ = ecx

; 1041 : 	BOOL			IsNPC()				{ return !m_bPlayer; }

  00000	8b 91 34 02 00
	00		 mov	 edx, DWORD PTR [ecx+564]
  00006	33 c0		 xor	 eax, eax
  00008	85 d2		 test	 edx, edx
  0000a	0f 94 c0	 sete	 al
  0000d	c3		 ret	 0
?IsNPC@CMover@@QAEHXZ ENDP				; CMover::IsNPC
_TEXT	ENDS
PUBLIC	?IsPlayer@CMover@@QAEHXZ			; CMover::IsPlayer
; Function compile flags: /Ogty
;	COMDAT ?IsPlayer@CMover@@QAEHXZ
_TEXT	SEGMENT
?IsPlayer@CMover@@QAEHXZ PROC NEAR			; CMover::IsPlayer, COMDAT
; _this$ = ecx

; 1042 : 	BOOL			IsPlayer()			{ return m_bPlayer; }

  00000	8b 81 34 02 00
	00		 mov	 eax, DWORD PTR [ecx+564]
  00006	c3		 ret	 0
?IsPlayer@CMover@@QAEHXZ ENDP				; CMover::IsPlayer
_TEXT	ENDS
PUBLIC	?IsFlyingNPC@CMover@@QAEHXZ			; CMover::IsFlyingNPC
; Function compile flags: /Ogty
;	COMDAT ?IsFlyingNPC@CMover@@QAEHXZ
_TEXT	SEGMENT
?IsFlyingNPC@CMover@@QAEHXZ PROC NEAR			; CMover::IsFlyingNPC, COMDAT
; _this$ = ecx

; 1044 : 	BOOL			IsFlyingNPC()		{ return (m_dwTypeFlag & OBJTYPE_FLYING) ? TRUE : FALSE; }		//  .

  00000	33 c0		 xor	 eax, eax
  00002	8a 81 42 02 00
	00		 mov	 al, BYTE PTR [ecx+578]
  00008	83 e0 01	 and	 eax, 1
  0000b	c3		 ret	 0
?IsFlyingNPC@CMover@@QAEHXZ ENDP			; CMover::IsFlyingNPC
_TEXT	ENDS
PUBLIC	?GetPropA@CMover@@QAEPAUMoverProp@@XZ		; CMover::GetPropA
EXTRN	?prj@@3VCProject@@A:BYTE			; prj
; Function compile flags: /Ogty
;	COMDAT ?GetPropA@CMover@@QAEPAUMoverProp@@XZ
_TEXT	SEGMENT
?GetPropA@CMover@@QAEPAUMoverProp@@XZ PROC NEAR		; CMover::GetPropA, COMDAT
; _this$ = ecx

; 1046 : 	MoverProp*		GetProp() { return prj.GetMoverProp( m_dwIndex ); }	//    	

  00000	8b 81 74 01 00
	00		 mov	 eax, DWORD PTR [ecx+372]
  00006	85 c0		 test	 eax, eax
  00008	8b 0d d0 01 00
	00		 mov	 ecx, DWORD PTR ?prj@@3VCProject@@A+464
  0000e	7c 13		 jl	 SHORT $L272795
  00010	3b c1		 cmp	 eax, ecx
  00012	7d 0f		 jge	 SHORT $L272795
  00014	8b 0d d4 01 00
	00		 mov	 ecx, DWORD PTR ?prj@@3VCProject@@A+468
  0001a	69 c0 d8 06 00
	00		 imul	 eax, 1752		; 000006d8H
  00020	03 c1		 add	 eax, ecx
  00022	c3		 ret	 0
$L272795:
  00023	50		 push	 eax
  00024	51		 push	 ecx
  00025	6a 00		 push	 0
  00027	68 00 00 00 00	 push	 OFFSET FLAT:??_C@_0BJ@GKPOBPPI@GetMoverProp?5range_error?$AA@
  0002c	68 00 00 00 00	 push	 OFFSET FLAT:??_C@_0BM@HMFGHCP@?$CFs?5min?3?$CFd?0?5max?3?$CFd?0?5index?3?$CFd?$AA@
  00031	e8 00 00 00 00	 call	 ?Error@@YAPBDPBDZZ	; Error
  00036	83 c4 14	 add	 esp, 20			; 00000014H
  00039	33 c0		 xor	 eax, eax
  0003b	c3		 ret	 0
?GetPropA@CMover@@QAEPAUMoverProp@@XZ ENDP		; CMover::GetPropA
_TEXT	ENDS
PUBLIC	?ClearDestObj@CMover@@QAEXXZ			; CMover::ClearDestObj
; Function compile flags: /Ogty
;	COMDAT ?ClearDestObj@CMover@@QAEXXZ
_TEXT	SEGMENT
?ClearDestObj@CMover@@QAEXXZ PROC NEAR			; CMover::ClearDestObj, COMDAT
; _this$ = ecx

; 1056 : 	void			ClearDestObj()     	{ m_idDest = NULL_ID; m_fArrivalRange = 0.0f; }

  00000	c7 81 5c 02 00
	00 ff ff ff ff	 mov	 DWORD PTR [ecx+604], -1
  0000a	c7 81 58 02 00
	00 00 00 00 00	 mov	 DWORD PTR [ecx+600], 0
  00014	c3		 ret	 0
?ClearDestObj@CMover@@QAEXXZ ENDP			; CMover::ClearDestObj
_TEXT	ENDS
PUBLIC	?ClearDestPos@CMover@@QAEXXZ			; CMover::ClearDestPos
; Function compile flags: /Ogty
;	COMDAT ?ClearDestPos@CMover@@QAEXXZ
_TEXT	SEGMENT
$T272808 = -12						; size = 12
?ClearDestPos@CMover@@QAEXXZ PROC NEAR			; CMover::ClearDestPos, COMDAT
; _this$ = ecx

; 1057 : 	void			ClearDestPos()		{ m_vDestPos = D3DXVECTOR3( 0.0f, 0.0f, 0.0f ); }		

  00000	83 ec 0c	 sub	 esp, 12			; 0000000cH
  00003	c7 04 24 00 00
	00 00		 mov	 DWORD PTR $T272808[esp+12], 0
  0000a	8b 04 24	 mov	 eax, DWORD PTR $T272808[esp+12]
  0000d	81 c1 60 02 00
	00		 add	 ecx, 608		; 00000260H
  00013	89 01		 mov	 DWORD PTR [ecx], eax
  00015	c7 44 24 04 00
	00 00 00	 mov	 DWORD PTR $T272808[esp+16], 0
  0001d	8b 54 24 04	 mov	 edx, DWORD PTR $T272808[esp+16]
  00021	c7 44 24 08 00
	00 00 00	 mov	 DWORD PTR $T272808[esp+20], 0
  00029	8b 44 24 08	 mov	 eax, DWORD PTR $T272808[esp+20]
  0002d	89 51 04	 mov	 DWORD PTR [ecx+4], edx
  00030	89 41 08	 mov	 DWORD PTR [ecx+8], eax
  00033	83 c4 0c	 add	 esp, 12			; 0000000cH
  00036	c3		 ret	 0
?ClearDestPos@CMover@@QAEXXZ ENDP			; CMover::ClearDestPos
_TEXT	ENDS
PUBLIC	?ClearDest@CMover@@QAEXXZ			; CMover::ClearDest
; Function compile flags: /Ogty
;	COMDAT ?ClearDest@CMover@@QAEXXZ
_TEXT	SEGMENT
$T272825 = -12						; size = 12
?ClearDest@CMover@@QAEXXZ PROC NEAR			; CMover::ClearDest, COMDAT
; _this$ = ecx

; 1058 : 	void			ClearDest()			{ ClearDestObj(); ClearDestPos(); }

  00000	83 ec 0c	 sub	 esp, 12			; 0000000cH
  00003	c7 81 5c 02 00
	00 ff ff ff ff	 mov	 DWORD PTR [ecx+604], -1
  0000d	c7 81 58 02 00
	00 00 00 00 00	 mov	 DWORD PTR [ecx+600], 0
  00017	c7 04 24 00 00
	00 00		 mov	 DWORD PTR $T272825[esp+12], 0
  0001e	8b 04 24	 mov	 eax, DWORD PTR $T272825[esp+12]
  00021	81 c1 60 02 00
	00		 add	 ecx, 608		; 00000260H
  00027	89 01		 mov	 DWORD PTR [ecx], eax
  00029	c7 44 24 04 00
	00 00 00	 mov	 DWORD PTR $T272825[esp+16], 0
  00031	8b 54 24 04	 mov	 edx, DWORD PTR $T272825[esp+16]
  00035	c7 44 24 08 00
	00 00 00	 mov	 DWORD PTR $T272825[esp+20], 0
  0003d	8b 44 24 08	 mov	 eax, DWORD PTR $T272825[esp+20]
  00041	89 51 04	 mov	 DWORD PTR [ecx+4], edx
  00044	89 41 08	 mov	 DWORD PTR [ecx+8], eax
  00047	83 c4 0c	 add	 esp, 12			; 0000000cH
  0004a	c3		 ret	 0
?ClearDest@CMover@@QAEXXZ ENDP				; CMover::ClearDest
_TEXT	ENDS
PUBLIC	?SetRide@CMover@@QAEXPAVCModel@@H@Z		; CMover::SetRide
; Function compile flags: /Ogty
;	COMDAT ?SetRide@CMover@@QAEXPAVCModel@@H@Z
_TEXT	SEGMENT
_pModel$ = 8						; size = 4
_nRideItemIdx$ = 12					; size = 4
?SetRide@CMover@@QAEXPAVCModel@@H@Z PROC NEAR		; CMover::SetRide, COMDAT
; _this$ = ecx

; 1069 : 	void			SetRide( CModel *pModel, int nRideItemIdx = 0 ) { m_dwRideItemIdx = nRideItemIdx; m_pRide = (CModelObject*)pModel; 	};

  00000	8b 44 24 08	 mov	 eax, DWORD PTR _nRideItemIdx$[esp-4]
  00004	8b 54 24 04	 mov	 edx, DWORD PTR _pModel$[esp-4]
  00008	89 81 88 16 00
	00		 mov	 DWORD PTR [ecx+5768], eax
  0000e	89 91 8c 16 00
	00		 mov	 DWORD PTR [ecx+5772], edx
  00014	c2 08 00	 ret	 8
?SetRide@CMover@@QAEXPAVCModel@@H@Z ENDP		; CMover::SetRide
_TEXT	ENDS
PUBLIC	?IsDie@CMover@@QAEHXZ				; CMover::IsDie
; Function compile flags: /Ogty
;	COMDAT ?IsDie@CMover@@QAEHXZ
_TEXT	SEGMENT
?IsDie@CMover@@QAEHXZ PROC NEAR				; CMover::IsDie, COMDAT
; _this$ = ecx

; 1276 : 	BOOL			IsDie() { return m_pActMover->IsDie() || m_nHitPoint == 0; }

  00000	8b 81 3c 02 00
	00		 mov	 eax, DWORD PTR [ecx+572]
  00006	f7 40 04 00 00
	00 08		 test	 DWORD PTR [eax+4], 134217728 ; 08000000H
  0000d	75 0d		 jne	 SHORT $L272834
  0000f	8b 81 00 06 00
	00		 mov	 eax, DWORD PTR [ecx+1536]
  00015	85 c0		 test	 eax, eax
  00017	74 03		 je	 SHORT $L272834
  00019	33 c0		 xor	 eax, eax
  0001b	c3		 ret	 0
$L272834:
  0001c	b8 01 00 00 00	 mov	 eax, 1
  00021	c3		 ret	 0
?IsDie@CMover@@QAEHXZ ENDP				; CMover::IsDie
_TEXT	ENDS
PUBLIC	?GetActParam@CMover@@AAEHH@Z			; CMover::GetActParam
; Function compile flags: /Ogty
;	COMDAT ?GetActParam@CMover@@AAEHH@Z
_TEXT	SEGMENT
_nIdx$ = 8						; size = 4
?GetActParam@CMover@@AAEHH@Z PROC NEAR			; CMover::GetActParam, COMDAT
; _this$ = ecx

; 1713 : 	int				GetActParam( int nIdx ) { return m_nAParam[nIdx]; }

  00000	8b 44 24 04	 mov	 eax, DWORD PTR _nIdx$[esp-4]
  00004	8b 84 81 a4 12
	00 00		 mov	 eax, DWORD PTR [ecx+eax*4+4772]
  0000b	c2 04 00	 ret	 4
?GetActParam@CMover@@AAEHH@Z ENDP			; CMover::GetActParam
_TEXT	ENDS
PUBLIC	?IsMode@CMover@@QAEHK@Z				; CMover::IsMode
EXTRN	?GetAdjParam@CMover@@QAEHH@Z:NEAR		; CMover::GetAdjParam
; Function compile flags: /Ogty
;	COMDAT ?IsMode@CMover@@QAEHK@Z
_TEXT	SEGMENT
_dwMode$ = 8						; size = 4
?IsMode@CMover@@QAEHK@Z PROC NEAR			; CMover::IsMode, COMDAT
; _this$ = ecx

; 1762 : { 

  00000	53		 push	 ebx

; 1763 : #ifdef __HACK_0516
; 1764 : 	switch( dwMode )
; 1765 : 	{
; 1766 : 		case MATCHLESS_MODE:		//  
; 1767 : 		case ONEKILL_MODE:		//  
; 1768 : 		case MATCHLESS2_MODE:	//  2
; 1769 : 			if( m_dwAuthorization == AUTH_GENERAL )
; 1770 : 				return FALSE;
; 1771 : 			break;
; 1772 : 	}
; 1773 : #endif	// __HACK_0516
; 1774 : 	if( (dwMode & TRANSPARENT_MODE) )	//   

  00001	8b 5c 24 08	 mov	 ebx, DWORD PTR _dwMode$[esp]
  00005	f6 c3 02	 test	 bl, 2
  00008	56		 push	 esi
  00009	8b f1		 mov	 esi, ecx
  0000b	74 16		 je	 SHORT $L212480

; 1775 : 		if( GetAdjParam(DST_CHRSTATE) & CHS_INVISIBILITY )	//  ?

  0000d	6a 40		 push	 64			; 00000040H
  0000f	e8 00 00 00 00	 call	 ?GetAdjParam@CMover@@QAEHH@Z ; CMover::GetAdjParam
  00014	f6 c4 04	 test	 ah, 4
  00017	74 0a		 je	 SHORT $L212480
  00019	5e		 pop	 esi

; 1776 : 			return TRUE;

  0001a	b8 01 00 00 00	 mov	 eax, 1
  0001f	5b		 pop	 ebx

; 1778 : }	

  00020	c2 04 00	 ret	 4
$L212480:

; 1777 : 	return ( ( m_dwMode & dwMode ) == dwMode ) ? TRUE : FALSE; 

  00023	8b 86 44 02 00
	00		 mov	 eax, DWORD PTR [esi+580]
  00029	23 c3		 and	 eax, ebx
  0002b	2b c3		 sub	 eax, ebx
  0002d	f7 d8		 neg	 eax
  0002f	1b c0		 sbb	 eax, eax
  00031	5e		 pop	 esi
  00032	40		 inc	 eax
  00033	5b		 pop	 ebx

; 1778 : }	

  00034	c2 04 00	 ret	 4
?IsMode@CMover@@QAEHK@Z ENDP				; CMover::IsMode
_TEXT	ENDS
PUBLIC	??B?$CSimpleStringT@D$0A@@ATL@@QBEPBDXZ		; ATL::CSimpleStringT<char,0>::operator char const *
; Function compile flags: /Ogty
; File c:\program files\microsoft visual studio .net 2003\vc7\atlmfc\include\atlsimpstr.h
;	COMDAT ??B?$CSimpleStringT@D$0A@@ATL@@QBEPBDXZ
_TEXT	SEGMENT
??B?$CSimpleStringT@D$0A@@ATL@@QBEPBDXZ PROC NEAR	; ATL::CSimpleStringT<char,0>::operator char const *, COMDAT
; _this$ = ecx

; 379  : 		return( m_pszData );

  00000	8b 01		 mov	 eax, DWORD PTR [ecx]

; 380  : 	}

  00002	c3		 ret	 0
??B?$CSimpleStringT@D$0A@@ATL@@QBEPBDXZ ENDP		; ATL::CSimpleStringT<char,0>::operator char const *
_TEXT	ENDS
PUBLIC	?GetSize@?$CFixedArray@UItemProp@@@@QAEHXZ	; CFixedArray<ItemProp>::GetSize
; Function compile flags: /Ogty
; File c:\documents and settings\test\mes documents\source\virtuos_v17\build\program\_common\data.h
;	COMDAT ?GetSize@?$CFixedArray@UItemProp@@@@QAEHXZ
_TEXT	SEGMENT
?GetSize@?$CFixedArray@UItemProp@@@@QAEHXZ PROC NEAR	; CFixedArray<ItemProp>::GetSize, COMDAT
; _this$ = ecx

; 221  : 	int  GetSize() { return m_nMaxIndex; }

  00000	8b 41 18	 mov	 eax, DWORD PTR [ecx+24]
  00003	c3		 ret	 0
?GetSize@?$CFixedArray@UItemProp@@@@QAEHXZ ENDP		; CFixedArray<ItemProp>::GetSize
_TEXT	ENDS
PUBLIC	?GetString@?$CSimpleStringT@D$0A@@ATL@@QBEPBDXZ	; ATL::CSimpleStringT<char,0>::GetString
; Function compile flags: /Ogty
; File c:\program files\microsoft visual studio .net 2003\vc7\atlmfc\include\atlsimpstr.h
;	COMDAT ?GetString@?$CSimpleStringT@D$0A@@ATL@@QBEPBDXZ
_TEXT	SEGMENT
?GetString@?$CSimpleStringT@D$0A@@ATL@@QBEPBDXZ PROC NEAR ; ATL::CSimpleStringT<char,0>::GetString, COMDAT
; _this$ = ecx

; 510  : 		return( m_pszData );

  00000	8b 01		 mov	 eax, DWORD PTR [ecx]

; 511  : 	}

  00002	c3		 ret	 0
?GetString@?$CSimpleStringT@D$0A@@ATL@@QBEPBDXZ ENDP	; ATL::CSimpleStringT<char,0>::GetString
_TEXT	ENDS
PUBLIC	?StringLength@?$CSimpleStringT@D$0A@@ATL@@SAHPBD@Z ; ATL::CSimpleStringT<char,0>::StringLength
; Function compile flags: /Ogty
;	COMDAT ?StringLength@?$CSimpleStringT@D$0A@@ATL@@SAHPBD@Z
_TEXT	SEGMENT
_psz$ = 8						; size = 4
?StringLength@?$CSimpleStringT@D$0A@@ATL@@SAHPBD@Z PROC NEAR ; ATL::CSimpleStringT<char,0>::StringLength, COMDAT

; 678  : 		if( psz == NULL )

  00000	8b 44 24 04	 mov	 eax, DWORD PTR _psz$[esp-4]
  00004	85 c0		 test	 eax, eax
  00006	75 01		 jne	 SHORT $L219971

; 683  : 	}

  00008	c3		 ret	 0
$L219971:

; 679  : 		{
; 680  : 			return( 0 );
; 681  : 		}
; 682  : 		return( int( strlen( psz ) ) );

  00009	8d 50 01	 lea	 edx, DWORD PTR [eax+1]
  0000c	8d 64 24 00	 npad	 4
$L272857:
  00010	8a 08		 mov	 cl, BYTE PTR [eax]
  00012	40		 inc	 eax
  00013	84 c9		 test	 cl, cl
  00015	75 f9		 jne	 SHORT $L272857
  00017	2b c2		 sub	 eax, edx

; 683  : 	}

  00019	c3		 ret	 0
?StringLength@?$CSimpleStringT@D$0A@@ATL@@SAHPBD@Z ENDP	; ATL::CSimpleStringT<char,0>::StringLength
_TEXT	ENDS
PUBLIC	?GetData@?$CSimpleStringT@D$0A@@ATL@@ABEPAUCStringData@2@XZ ; ATL::CSimpleStringT<char,0>::GetData
; Function compile flags: /Ogty
;	COMDAT ?GetData@?$CSimpleStringT@D$0A@@ATL@@ABEPAUCStringData@2@XZ
_TEXT	SEGMENT
?GetData@?$CSimpleStringT@D$0A@@ATL@@ABEPAUCStringData@2@XZ PROC NEAR ; ATL::CSimpleStringT<char,0>::GetData, COMDAT
; _this$ = ecx

; 731  : 		return( reinterpret_cast< CStringData* >( m_pszData )-1 );

  00000	8b 01		 mov	 eax, DWORD PTR [ecx]
  00002	83 e8 10	 sub	 eax, 16			; 00000010H

; 732  : 	}

  00005	c3		 ret	 0
?GetData@?$CSimpleStringT@D$0A@@ATL@@ABEPAUCStringData@2@XZ ENDP ; ATL::CSimpleStringT<char,0>::GetData
_TEXT	ENDS
PUBLIC	?SetLength@?$CSimpleStringT@D$0A@@ATL@@AAEXH@Z	; ATL::CSimpleStringT<char,0>::SetLength
; Function compile flags: /Ogty
;	COMDAT ?SetLength@?$CSimpleStringT@D$0A@@ATL@@AAEXH@Z
_TEXT	SEGMENT
_nLength$ = 8						; size = 4
?SetLength@?$CSimpleStringT@D$0A@@ATL@@AAEXH@Z PROC NEAR ; ATL::CSimpleStringT<char,0>::SetLength, COMDAT
; _this$ = ecx

; 790  : 		ATLASSERT( nLength >= 0 );
; 791  : 		ATLASSERT( nLength <= GetData()->nAllocLength );
; 792  : 
; 793  : 		if( nLength < 0 || nLength > GetData()->nAllocLength)

  00000	8b 44 24 04	 mov	 eax, DWORD PTR _nLength$[esp-4]
  00004	85 c0		 test	 eax, eax
  00006	7c 13		 jl	 SHORT $L219986
  00008	8b 11		 mov	 edx, DWORD PTR [ecx]
  0000a	3b 42 f8	 cmp	 eax, DWORD PTR [edx-8]
  0000d	7f 0c		 jg	 SHORT $L219986

; 794  : 			AtlThrow(E_INVALIDARG);
; 795  : 			
; 796  : 		GetData()->nDataLength = nLength;

  0000f	89 42 f4	 mov	 DWORD PTR [edx-12], eax

; 797  : 		m_pszData[nLength] = 0;

  00012	8b 09		 mov	 ecx, DWORD PTR [ecx]
  00014	c6 04 08 00	 mov	 BYTE PTR [eax+ecx], 0

; 798  : 	}

  00018	c2 04 00	 ret	 4
$L219986:
  0001b	68 57 00 07 80	 push	 -2147024809		; 80070057H
  00020	e8 00 00 00 00	 call	 ?AtlThrow@ATL@@YGXJ@Z	; ATL::AtlThrow
$L272871:
$L272870:
  00025	cc		 int	 3
?SetLength@?$CSimpleStringT@D$0A@@ATL@@AAEXH@Z ENDP	; ATL::CSimpleStringT<char,0>::SetLength
_TEXT	ENDS
PUBLIC	?FindStringResourceInstance@?$StrTraitMFC@DV?$ChTraitsCRT@D@ATL@@@@SAPAUHINSTANCE__@@I@Z ; StrTraitMFC<char,ATL::ChTraitsCRT<char> >::FindStringResourceInstance
EXTRN	?AfxFindStringResourceHandle@@YGPAUHINSTANCE__@@I@Z:NEAR ; AfxFindStringResourceHandle
; Function compile flags: /Ogty
; File c:\program files\microsoft visual studio .net 2003\vc7\atlmfc\include\afxstr.h
;	COMDAT ?FindStringResourceInstance@?$StrTraitMFC@DV?$ChTraitsCRT@D@ATL@@@@SAPAUHINSTANCE__@@I@Z
_TEXT	SEGMENT
_nID$ = 8						; size = 4
?FindStringResourceInstance@?$StrTraitMFC@DV?$ChTraitsCRT@D@ATL@@@@SAPAUHINSTANCE__@@I@Z PROC NEAR ; StrTraitMFC<char,ATL::ChTraitsCRT<char> >::FindStringResourceInstance, COMDAT

; 45   : 		return( AfxFindStringResourceHandle( nID ) );

  00000	8b 44 24 04	 mov	 eax, DWORD PTR _nID$[esp-4]
  00004	50		 push	 eax
  00005	e8 00 00 00 00	 call	 ?AfxFindStringResourceHandle@@YGPAUHINSTANCE__@@I@Z ; AfxFindStringResourceHandle

; 46   : 	}

  0000a	c3		 ret	 0
?FindStringResourceInstance@?$StrTraitMFC@DV?$ChTraitsCRT@D@ATL@@@@SAPAUHINSTANCE__@@I@Z ENDP ; StrTraitMFC<char,ATL::ChTraitsCRT<char> >::FindStringResourceInstance
_TEXT	ENDS
PUBLIC	?GetDefaultManager@?$StrTraitMFC@DV?$ChTraitsCRT@D@ATL@@@@SAPAUIAtlStringMgr@ATL@@XZ ; StrTraitMFC<char,ATL::ChTraitsCRT<char> >::GetDefaultManager
EXTRN	?AfxGetStringManager@@YGPAUIAtlStringMgr@ATL@@XZ:NEAR ; AfxGetStringManager
; Function compile flags: /Ogty
;	COMDAT ?GetDefaultManager@?$StrTraitMFC@DV?$ChTraitsCRT@D@ATL@@@@SAPAUIAtlStringMgr@ATL@@XZ
_TEXT	SEGMENT
?GetDefaultManager@?$StrTraitMFC@DV?$ChTraitsCRT@D@ATL@@@@SAPAUIAtlStringMgr@ATL@@XZ PROC NEAR ; StrTraitMFC<char,ATL::ChTraitsCRT<char> >::GetDefaultManager, COMDAT

; 50   : 		return( AfxGetStringManager() );

  00000	e9 00 00 00 00	 jmp	 ?AfxGetStringManager@@YGPAUIAtlStringMgr@ATL@@XZ ; AfxGetStringManager
?GetDefaultManager@?$StrTraitMFC@DV?$ChTraitsCRT@D@ATL@@@@SAPAUIAtlStringMgr@ATL@@XZ ENDP ; StrTraitMFC<char,ATL::ChTraitsCRT<char> >::GetDefaultManager
_TEXT	ENDS
PUBLIC	?Attach@?$CSimpleStringT@D$0A@@ATL@@AAEXPAUCStringData@2@@Z ; ATL::CSimpleStringT<char,0>::Attach
; Function compile flags: /Ogty
; File c:\program files\microsoft visual studio .net 2003\vc7\atlmfc\include\atlsimpstr.h
;	COMDAT ?Attach@?$CSimpleStringT@D$0A@@ATL@@AAEXPAUCStringData@2@@Z
_TEXT	SEGMENT
_pData$ = 8						; size = 4
?Attach@?$CSimpleStringT@D$0A@@ATL@@AAEXPAUCStringData@2@@Z PROC NEAR ; ATL::CSimpleStringT<char,0>::Attach, COMDAT
; _this$ = ecx

; 712  : 		m_pszData = static_cast< PXSTR >( pData->data() );

  00000	8b 44 24 04	 mov	 eax, DWORD PTR _pData$[esp-4]
  00004	83 c0 10	 add	 eax, 16			; 00000010H
  00007	89 01		 mov	 DWORD PTR [ecx], eax

; 713  : 	}

  00009	c2 04 00	 ret	 4
?Attach@?$CSimpleStringT@D$0A@@ATL@@AAEXPAUCStringData@2@@Z ENDP ; ATL::CSimpleStringT<char,0>::Attach
_TEXT	ENDS
PUBLIC	?GetBaseTypeLength@?$ChTraitsCRT@D@ATL@@SAHPBGH@Z ; ATL::ChTraitsCRT<char>::GetBaseTypeLength
EXTRN	__imp__WideCharToMultiByte@32:NEAR
; Function compile flags: /Ogty
; File c:\program files\microsoft visual studio .net 2003\vc7\atlmfc\include\cstringt.h
;	COMDAT ?GetBaseTypeLength@?$ChTraitsCRT@D@ATL@@SAHPBGH@Z
_TEXT	SEGMENT
_pszSource$ = 8						; size = 4
_nLength$ = 12						; size = 4
?GetBaseTypeLength@?$ChTraitsCRT@D@ATL@@SAHPBGH@Z PROC NEAR ; ATL::ChTraitsCRT<char>::GetBaseTypeLength, COMDAT

; 437  : 		// Returns required buffer length in XCHARs
; 438  : 		return ::WideCharToMultiByte( _AtlGetConversionACP(), 0, pszSource, nLength, NULL, 0, NULL, NULL );

  00000	ff 15 00 00 00
	00		 call	 DWORD PTR ?g_pfnGetThreadACP@ATL@@3P6GIXZA ; ATL::g_pfnGetThreadACP
  00006	8b 4c 24 08	 mov	 ecx, DWORD PTR _nLength$[esp-4]
  0000a	8b 54 24 04	 mov	 edx, DWORD PTR _pszSource$[esp-4]
  0000e	6a 00		 push	 0
  00010	6a 00		 push	 0
  00012	6a 00		 push	 0
  00014	6a 00		 push	 0
  00016	51		 push	 ecx
  00017	52		 push	 edx
  00018	6a 00		 push	 0
  0001a	50		 push	 eax
  0001b	ff 15 00 00 00
	00		 call	 DWORD PTR __imp__WideCharToMultiByte@32

; 439  : 	}

  00021	c3		 ret	 0
?GetBaseTypeLength@?$ChTraitsCRT@D@ATL@@SAHPBGH@Z ENDP	; ATL::ChTraitsCRT<char>::GetBaseTypeLength
_TEXT	ENDS
PUBLIC	?ConvertToBaseType@?$ChTraitsCRT@D@ATL@@SAXPADHPBGH@Z ; ATL::ChTraitsCRT<char>::ConvertToBaseType
; Function compile flags: /Ogty
;	COMDAT ?ConvertToBaseType@?$ChTraitsCRT@D@ATL@@SAXPADHPBGH@Z
_TEXT	SEGMENT
_pszDest$ = 8						; size = 4
_nDestLength$ = 12					; size = 4
_pszSrc$ = 16						; size = 4
_nSrcLength$ = 20					; size = 4
?ConvertToBaseType@?$ChTraitsCRT@D@ATL@@SAXPADHPBGH@Z PROC NEAR ; ATL::ChTraitsCRT<char>::ConvertToBaseType, COMDAT

; 452  : 		// nLen is in XCHARs
; 453  : 		::WideCharToMultiByte( _AtlGetConversionACP(), 0, pszSrc, nSrcLength, pszDest, nDestLength, NULL, NULL );

  00000	8b 44 24 08	 mov	 eax, DWORD PTR _nDestLength$[esp-4]
  00004	8b 4c 24 04	 mov	 ecx, DWORD PTR _pszDest$[esp-4]
  00008	8b 54 24 10	 mov	 edx, DWORD PTR _nSrcLength$[esp-4]
  0000c	6a 00		 push	 0
  0000e	6a 00		 push	 0
  00010	50		 push	 eax
  00011	8b 44 24 18	 mov	 eax, DWORD PTR _pszSrc$[esp+8]
  00015	51		 push	 ecx
  00016	52		 push	 edx
  00017	50		 push	 eax
  00018	6a 00		 push	 0
  0001a	ff 15 00 00 00
	00		 call	 DWORD PTR ?g_pfnGetThreadACP@ATL@@3P6GIXZA ; ATL::g_pfnGetThreadACP
  00020	50		 push	 eax
  00021	ff 15 00 00 00
	00		 call	 DWORD PTR __imp__WideCharToMultiByte@32

; 454  : 	}

  00027	c3		 ret	 0
?ConvertToBaseType@?$ChTraitsCRT@D@ATL@@SAXPADHPBGH@Z ENDP ; ATL::ChTraitsCRT<char>::ConvertToBaseType
_TEXT	ENDS
PUBLIC	?CopyChars@?$CSimpleStringT@D$0A@@ATL@@SAXPADPBDH@Z ; ATL::CSimpleStringT<char,0>::CopyChars
; Function compile flags: /Ogty
; File c:\program files\microsoft visual studio .net 2003\vc7\atlmfc\include\atlsimpstr.h
;	COMDAT ?CopyChars@?$CSimpleStringT@D$0A@@ATL@@SAXPADPBDH@Z
_TEXT	SEGMENT
_pchDest$ = 8						; size = 4
_pchSrc$ = 12						; size = 4
_nChars$ = 16						; size = 4
?CopyChars@?$CSimpleStringT@D$0A@@ATL@@SAXPADPBDH@Z PROC NEAR ; ATL::CSimpleStringT<char,0>::CopyChars, COMDAT

; 653  : 		memcpy( pchDest, pchSrc, nChars*sizeof( XCHAR ) );

  00000	8b 4c 24 0c	 mov	 ecx, DWORD PTR _nChars$[esp-4]
  00004	56		 push	 esi
  00005	8b 74 24 0c	 mov	 esi, DWORD PTR _pchSrc$[esp]
  00009	8b c1		 mov	 eax, ecx
  0000b	57		 push	 edi
  0000c	8b 7c 24 0c	 mov	 edi, DWORD PTR _pchDest$[esp+4]
  00010	c1 e9 02	 shr	 ecx, 2
  00013	f3 a5		 rep movsd
  00015	8b c8		 mov	 ecx, eax
  00017	83 e1 03	 and	 ecx, 3
  0001a	f3 a4		 rep movsb
  0001c	5f		 pop	 edi
  0001d	5e		 pop	 esi

; 654  : 	}

  0001e	c3		 ret	 0
?CopyChars@?$CSimpleStringT@D$0A@@ATL@@SAXPADPBDH@Z ENDP ; ATL::CSimpleStringT<char,0>::CopyChars
_TEXT	ENDS
PUBLIC	?CopyCharsOverlapped@?$CSimpleStringT@D$0A@@ATL@@SAXPADPBDH@Z ; ATL::CSimpleStringT<char,0>::CopyCharsOverlapped
EXTRN	_memmove:NEAR
; Function compile flags: /Ogty
;	COMDAT ?CopyCharsOverlapped@?$CSimpleStringT@D$0A@@ATL@@SAXPADPBDH@Z
_TEXT	SEGMENT
_pchDest$ = 8						; size = 4
_pchSrc$ = 12						; size = 4
_nChars$ = 16						; size = 4
?CopyCharsOverlapped@?$CSimpleStringT@D$0A@@ATL@@SAXPADPBDH@Z PROC NEAR ; ATL::CSimpleStringT<char,0>::CopyCharsOverlapped, COMDAT

; 657  : 		memmove( pchDest, pchSrc, nChars*sizeof( XCHAR ) );

  00000	e9 00 00 00 00	 jmp	 _memmove
?CopyCharsOverlapped@?$CSimpleStringT@D$0A@@ATL@@SAXPADPBDH@Z ENDP ; ATL::CSimpleStringT<char,0>::CopyCharsOverlapped
_TEXT	ENDS
PUBLIC	?ThrowMemoryException@?$CSimpleStringT@D$0A@@ATL@@KAXXZ ; ATL::CSimpleStringT<char,0>::ThrowMemoryException
; Function compile flags: /Ogty
;	COMDAT ?ThrowMemoryException@?$CSimpleStringT@D$0A@@ATL@@KAXXZ
_TEXT	SEGMENT
?ThrowMemoryException@?$CSimpleStringT@D$0A@@ATL@@KAXXZ PROC NEAR ; ATL::CSimpleStringT<char,0>::ThrowMemoryException, COMDAT

; 705  : 		AtlThrow( E_OUTOFMEMORY );

  00000	68 0e 00 07 80	 push	 -2147024882		; 8007000eH
  00005	e8 00 00 00 00	 call	 ?AtlThrow@ATL@@YGXJ@Z	; ATL::AtlThrow
$L272908:
$L272907:
  0000a	cc		 int	 3
?ThrowMemoryException@?$CSimpleStringT@D$0A@@ATL@@KAXXZ ENDP ; ATL::CSimpleStringT<char,0>::ThrowMemoryException
_TEXT	ENDS
PUBLIC	?Fork@?$CSimpleStringT@D$0A@@ATL@@AAEXH@Z	; ATL::CSimpleStringT<char,0>::Fork
; Function compile flags: /Ogty
;	COMDAT ?Fork@?$CSimpleStringT@D$0A@@ATL@@AAEXH@Z
_TEXT	SEGMENT
_this$ = -4						; size = 4
tv181 = 8						; size = 4
_nLength$ = 8						; size = 4
?Fork@?$CSimpleStringT@D$0A@@ATL@@AAEXH@Z PROC NEAR	; ATL::CSimpleStringT<char,0>::Fork, COMDAT
; _this$ = ecx

; 715  : 	{

  00000	51		 push	 ecx
  00001	53		 push	 ebx

; 716  : 		CStringData* pOldData = GetData();

  00002	8b 19		 mov	 ebx, DWORD PTR [ecx]
  00004	83 eb 10	 sub	 ebx, 16			; 00000010H
  00007	55		 push	 ebp

; 717  : 		int nOldLength = pOldData->nDataLength;

  00008	8b 6b 04	 mov	 ebp, DWORD PTR [ebx+4]
  0000b	89 4c 24 08	 mov	 DWORD PTR _this$[esp+12], ecx

; 718  : 		CStringData* pNewData = pOldData->pStringMgr->Clone()->Allocate( nLength, sizeof( XCHAR ) );

  0000f	8b 0b		 mov	 ecx, DWORD PTR [ebx]
  00011	8b 01		 mov	 eax, DWORD PTR [ecx]
  00013	56		 push	 esi
  00014	ff 50 10	 call	 DWORD PTR [eax+16]
  00017	8b 74 24 14	 mov	 esi, DWORD PTR _nLength$[esp+12]
  0001b	8b 10		 mov	 edx, DWORD PTR [eax]
  0001d	6a 01		 push	 1
  0001f	56		 push	 esi
  00020	8b c8		 mov	 ecx, eax
  00022	ff 12		 call	 DWORD PTR [edx]

; 719  : 		if( pNewData == NULL )

  00024	85 c0		 test	 eax, eax
  00026	75 05		 jne	 SHORT $L222762

; 720  : 		{
; 721  : 			ThrowMemoryException();

  00028	e8 00 00 00 00	 call	 ?ThrowMemoryException@?$CSimpleStringT@D$0A@@ATL@@KAXXZ ; ATL::CSimpleStringT<char,0>::ThrowMemoryException
$L272939:
$L222762:

; 722  : 		}
; 723  : 		int nCharsToCopy = ((nOldLength < nLength) ? nOldLength : nLength)+1;  // Copy '\0'

  0002d	3b ee		 cmp	 ebp, esi
  0002f	7d 02		 jge	 SHORT $L272913
  00031	8b f5		 mov	 esi, ebp
$L272913:
  00033	8d 4e 01	 lea	 ecx, DWORD PTR [esi+1]

; 724  : 		CopyChars( PXSTR( pNewData->data() ), PCXSTR( pOldData->data() ), nCharsToCopy );

  00036	8b d1		 mov	 edx, ecx
  00038	57		 push	 edi
  00039	c1 e9 02	 shr	 ecx, 2
  0003c	8d 78 10	 lea	 edi, DWORD PTR [eax+16]
  0003f	89 7c 24 18	 mov	 DWORD PTR tv181[esp+16], edi
  00043	8d 73 10	 lea	 esi, DWORD PTR [ebx+16]
  00046	f3 a5		 rep movsd
  00048	8b ca		 mov	 ecx, edx
  0004a	83 e1 03	 and	 ecx, 3
  0004d	f3 a4		 rep movsb

; 725  : 		pNewData->nDataLength = nOldLength;

  0004f	89 68 04	 mov	 DWORD PTR [eax+4], ebp

; 726  : 		pOldData->Release();

  00052	8d 43 0c	 lea	 eax, DWORD PTR [ebx+12]
  00055	83 c9 ff	 or	 ecx, -1
  00058	f0 0f c1 08	 lock	  xadd	 DWORD PTR [eax], ecx
  0005c	49		 dec	 ecx
  0005d	85 c9		 test	 ecx, ecx
  0005f	5f		 pop	 edi
  00060	7f 08		 jg	 SHORT $L272929
  00062	8b 0b		 mov	 ecx, DWORD PTR [ebx]
  00064	8b 11		 mov	 edx, DWORD PTR [ecx]
  00066	53		 push	 ebx
  00067	ff 52 04	 call	 DWORD PTR [edx+4]
$L272929:

; 727  : 		Attach( pNewData );

  0006a	8b 44 24 14	 mov	 eax, DWORD PTR tv181[esp+12]
  0006e	8b 4c 24 0c	 mov	 ecx, DWORD PTR _this$[esp+16]
  00072	5e		 pop	 esi
  00073	5d		 pop	 ebp
  00074	89 01		 mov	 DWORD PTR [ecx], eax
  00076	5b		 pop	 ebx

; 728  : 	}

  00077	59		 pop	 ecx
  00078	c2 04 00	 ret	 4
$L272938:
?Fork@?$CSimpleStringT@D$0A@@ATL@@AAEXH@Z ENDP		; ATL::CSimpleStringT<char,0>::Fork
_TEXT	ENDS
PUBLIC	?Reallocate@?$CSimpleStringT@D$0A@@ATL@@AAEXH@Z	; ATL::CSimpleStringT<char,0>::Reallocate
; Function compile flags: /Ogty
;	COMDAT ?Reallocate@?$CSimpleStringT@D$0A@@ATL@@AAEXH@Z
_TEXT	SEGMENT
_nLength$ = 8						; size = 4
?Reallocate@?$CSimpleStringT@D$0A@@ATL@@AAEXH@Z PROC NEAR ; ATL::CSimpleStringT<char,0>::Reallocate, COMDAT
; _this$ = ecx

; 776  : 	{

  00000	56		 push	 esi
  00001	57		 push	 edi

; 777  : 		CStringData* pOldData = GetData();
; 778  : 		ATLASSERT( pOldData->nAllocLength < nLength );
; 779  : 		IAtlStringMgr* pStringMgr = pOldData->pStringMgr;
; 780  : 		CStringData* pNewData = pStringMgr->Reallocate( pOldData, nLength, sizeof( XCHAR ) );

  00002	8b 7c 24 0c	 mov	 edi, DWORD PTR _nLength$[esp+4]
  00006	8b f1		 mov	 esi, ecx
  00008	8b 06		 mov	 eax, DWORD PTR [esi]
  0000a	8b 48 f0	 mov	 ecx, DWORD PTR [eax-16]
  0000d	8b 11		 mov	 edx, DWORD PTR [ecx]
  0000f	83 e8 10	 sub	 eax, 16			; 00000010H
  00012	6a 01		 push	 1
  00014	57		 push	 edi
  00015	50		 push	 eax
  00016	ff 52 08	 call	 DWORD PTR [edx+8]

; 781  : 		if( pNewData == NULL )

  00019	85 c0		 test	 eax, eax
  0001b	75 05		 jne	 SHORT $L222771

; 782  : 		{
; 783  : 			ThrowMemoryException();

  0001d	e8 00 00 00 00	 call	 ?ThrowMemoryException@?$CSimpleStringT@D$0A@@ATL@@KAXXZ ; ATL::CSimpleStringT<char,0>::ThrowMemoryException
$L272955:
$L222771:

; 784  : 		}
; 785  : 		Attach( pNewData );

  00022	83 c0 10	 add	 eax, 16			; 00000010H
  00025	5f		 pop	 edi
  00026	89 06		 mov	 DWORD PTR [esi], eax
  00028	5e		 pop	 esi

; 786  : 	}

  00029	c2 04 00	 ret	 4
$L272954:
?Reallocate@?$CSimpleStringT@D$0A@@ATL@@AAEXH@Z ENDP	; ATL::CSimpleStringT<char,0>::Reallocate
_TEXT	ENDS
PUBLIC	?GetAt@?$CFixedArray@UItemProp@@@@QAEPAUItemProp@@K@Z ; CFixedArray<ItemProp>::GetAt
; Function compile flags: /Ogty
; File c:\documents and settings\test\mes documents\source\virtuos_v17\build\program\_common\data.h
;	COMDAT ?GetAt@?$CFixedArray@UItemProp@@@@QAEPAUItemProp@@K@Z
_TEXT	SEGMENT
_dwIndex$ = 8						; size = 4
?GetAt@?$CFixedArray@UItemProp@@@@QAEPAUItemProp@@K@Z PROC NEAR ; CFixedArray<ItemProp>::GetAt, COMDAT
; _this$ = ecx

; 270  : 	if( dwIndex >= (DWORD)m_nMaxIndex )

  00000	8b 44 24 04	 mov	 eax, DWORD PTR _dwIndex$[esp-4]
  00004	3b 41 18	 cmp	 eax, DWORD PTR [ecx+24]
  00007	72 05		 jb	 SHORT $L224299

; 271  : 		return NULL;

  00009	33 c0		 xor	 eax, eax

; 273  : }

  0000b	c2 04 00	 ret	 4
$L224299:

; 272  : 	return (T*) m_apOffset[ dwIndex ];

  0000e	8b 49 08	 mov	 ecx, DWORD PTR [ecx+8]
  00011	8b 04 81	 mov	 eax, DWORD PTR [ecx+eax*4]

; 273  : }

  00014	c2 04 00	 ret	 4
?GetAt@?$CFixedArray@UItemProp@@@@QAEPAUItemProp@@K@Z ENDP ; CFixedArray<ItemProp>::GetAt
_TEXT	ENDS
PUBLIC	?ForcedSet@CActionMover@@QAEXAAUD3DXVECTOR3@@KKH@Z ; CActionMover::ForcedSet
PUBLIC	??_C@_0CP@ELGGLPDI@ForcedSet?5?3?5dwState?$DN0x?$CF08x?0?5dwSt@ ; `string'
EXTRN	?AddStateFlag@CAction@@QAEXK@Z:NEAR		; CAction::AddStateFlag
;	COMDAT ??_C@_0CP@ELGGLPDI@ForcedSet?5?3?5dwState?$DN0x?$CF08x?0?5dwSt@
; File c:\documents and settings\test\mes documents\source\virtuos_v17\build\program\_aiinterface\actionmovermsg.cpp
CONST	SEGMENT
??_C@_0CP@ELGGLPDI@ForcedSet?5?3?5dwState?$DN0x?$CF08x?0?5dwSt@ DB 'Force'
	DB	'dSet : dwState=0x%08x, dwStateFlag=0x%08x', 00H ; `string'
; Function compile flags: /Ogty
CONST	ENDS
;	COMDAT ?ForcedSet@CActionMover@@QAEXAAUD3DXVECTOR3@@KKH@Z
_TEXT	SEGMENT
_vDelta$ = 8						; size = 4
_dwState$ = 12						; size = 4
_dwStateFlag$ = 16					; size = 4
_nMotionEx$ = 20					; size = 4
?ForcedSet@CActionMover@@QAEXAAUD3DXVECTOR3@@KKH@Z PROC NEAR ; CActionMover::ForcedSet, COMDAT
; _this$ = ecx

; 37   : 	if( ( GetStateFlag() & OBJSTAF_FLY ) == 0 && ( dwStateFlag & OBJSTAF_FLY ) )

  00000	8b 44 24 0c	 mov	 eax, DWORD PTR _dwStateFlag$[esp-4]
  00004	56		 push	 esi
  00005	8b f1		 mov	 esi, ecx
  00007	8b 56 08	 mov	 edx, DWORD PTR [esi+8]
  0000a	8b ca		 mov	 ecx, edx
  0000c	83 e1 08	 and	 ecx, 8
  0000f	75 08		 jne	 SHORT $L266721
  00011	a8 08		 test	 al, 8
  00013	0f 85 94 00 00
	00		 jne	 $L273009
$L266721:

; 38   : 		return;
; 39   : 	if( ( GetStateFlag() & OBJSTAF_FLY ) && ( dwStateFlag & OBJSTAF_FLY ) == 0 )

  00019	85 c9		 test	 ecx, ecx
  0001b	74 08		 je	 SHORT $L266722
  0001d	a8 08		 test	 al, 8
  0001f	0f 84 88 00 00
	00		 je	 $L273009
$L266722:

; 40   : 		return;
; 41   : 	if( ( GetStateFlag() & OBJSTAF_SIT ) == 0 && ( dwStateFlag & OBJSTAF_SIT ) )

  00025	83 e2 04	 and	 edx, 4
  00028	75 04		 jne	 SHORT $L266723
  0002a	a8 04		 test	 al, 4
  0002c	75 7f		 jne	 SHORT $L273009
$L266723:

; 42   : 		return;
; 43   : 	if( ( GetStateFlag() & OBJSTAF_SIT ) && ( dwStateFlag & OBJSTAF_SIT ) == 0 )

  0002e	85 d2		 test	 edx, edx
  00030	74 04		 je	 SHORT $L266724
  00032	a8 04		 test	 al, 4
  00034	74 77		 je	 SHORT $L273009
$L266724:

; 44   : 		return;
; 45   : 
; 46   : 	m_vDelta = vDelta;

  00036	8b 54 24 08	 mov	 edx, DWORD PTR _vDelta$[esp]
  0003a	53		 push	 ebx
  0003b	8b 1a		 mov	 ebx, DWORD PTR [edx]
  0003d	8d 4e 50	 lea	 ecx, DWORD PTR [esi+80]
  00040	89 19		 mov	 DWORD PTR [ecx], ebx
  00042	8b 5a 04	 mov	 ebx, DWORD PTR [edx+4]
  00045	89 59 04	 mov	 DWORD PTR [ecx+4], ebx
  00048	8b 52 08	 mov	 edx, DWORD PTR [edx+8]

; 47   : 	__ForceSetState( dwState );	//     .

  0004b	8b 5c 24 10	 mov	 ebx, DWORD PTR _dwState$[esp+4]
  0004f	89 51 08	 mov	 DWORD PTR [ecx+8], edx

; 48   : 			
; 49   : 	ClearStateFlag();
; 50   : 	AddStateFlag( dwStateFlag );

  00052	50		 push	 eax
  00053	8b ce		 mov	 ecx, esi
  00055	89 5e 04	 mov	 DWORD PTR [esi+4], ebx
  00058	c7 46 08 00 00
	00 00		 mov	 DWORD PTR [esi+8], 0
  0005f	e8 00 00 00 00	 call	 ?AddStateFlag@CAction@@QAEXK@Z ; CAction::AddStateFlag

; 51   : 
; 52   : 	if( (GetStateFlag() & OBJSTAF_SIT) && ((dwState & OBJSTA_MOVE_ALL) != OBJSTA_SIT) )	// IsSit()

  00064	8b 46 08	 mov	 eax, DWORD PTR [esi+8]
  00067	8b c8		 mov	 ecx, eax
  00069	83 e1 04	 and	 ecx, 4
  0006c	74 0c		 je	 SHORT $L266725
  0006e	80 fb 03	 cmp	 bl, 3
  00071	74 07		 je	 SHORT $L266725

; 53   : 		Error( "ForcedSet : dwState=0x%08x, dwStateFlag=0x%08x", GetState(), GetStateFlag() );

  00073	50		 push	 eax
  00074	8b 46 04	 mov	 eax, DWORD PTR [esi+4]
  00077	50		 push	 eax

; 54   : 	else if( (GetStateFlag() & OBJSTAF_SIT) == 0 && ((dwState & OBJSTA_MOVE_ALL) == OBJSTA_SIT) )	// IsSit() SIT

  00078	eb 0e		 jmp	 SHORT $L273011
$L266725:
  0007a	85 c9		 test	 ecx, ecx
  0007c	75 17		 jne	 SHORT $L266728
  0007e	80 fb 03	 cmp	 bl, 3
  00081	75 12		 jne	 SHORT $L266728

; 55   : 		Error( "ForcedSet : dwState=0x%08x, dwStateFlag=0x%08x", GetState(), GetStateFlag() );

  00083	8b 4e 04	 mov	 ecx, DWORD PTR [esi+4]
  00086	50		 push	 eax
  00087	51		 push	 ecx
$L273011:
  00088	68 00 00 00 00	 push	 OFFSET FLAT:??_C@_0CP@ELGGLPDI@ForcedSet?5?3?5dwState?$DN0x?$CF08x?0?5dwSt@
  0008d	e8 00 00 00 00	 call	 ?Error@@YAPBDPBDZZ	; Error
  00092	83 c4 0c	 add	 esp, 12			; 0000000cH
$L266728:

; 56   : 
; 57   : 	m_nMotionEx = nMotionEx;

  00095	8b 54 24 18	 mov	 edx, DWORD PTR _nMotionEx$[esp+4]

; 58   : 	DefaultSet();

  00099	8b 46 0c	 mov	 eax, DWORD PTR [esi+12]
  0009c	89 96 8c 00 00
	00		 mov	 DWORD PTR [esi+140], edx
  000a2	c7 80 50 02 00
	00 00 00 00 00	 mov	 DWORD PTR [eax+592], 0
  000ac	5b		 pop	 ebx
$L273009:
  000ad	5e		 pop	 esi

; 59   : }

  000ae	c2 10 00	 ret	 16			; 00000010H
?ForcedSet@CActionMover@@QAEXAAUD3DXVECTOR3@@KKH@Z ENDP	; CActionMover::ForcedSet
_TEXT	ENDS
PUBLIC	?ForcedSet2@CActionMover@@QAEXAAUD3DXVECTOR3@@MMKKH@Z ; CActionMover::ForcedSet2
PUBLIC	??_C@_0DA@DHAGLFHI@ForcedSet2?5?3?5dwState?$DN0x?$CF08x?0?5dwS@ ; `string'
;	COMDAT ??_C@_0DA@DHAGLFHI@ForcedSet2?5?3?5dwState?$DN0x?$CF08x?0?5dwS@
; File c:\documents and settings\test\mes documents\source\virtuos_v17\build\program\_aiinterface\action.h
CONST	SEGMENT
??_C@_0DA@DHAGLFHI@ForcedSet2?5?3?5dwState?$DN0x?$CF08x?0?5dwS@ DB 'Force'
	DB	'dSet2 : dwState=0x%08x, dwStateFlag=0x%08x', 00H ; `string'
; Function compile flags: /Ogty
; File c:\documents and settings\test\mes documents\source\virtuos_v17\build\program\_aiinterface\actionmovermsg.cpp
CONST	ENDS
;	COMDAT ?ForcedSet2@CActionMover@@QAEXAAUD3DXVECTOR3@@MMKKH@Z
_TEXT	SEGMENT
_vDelta$ = 8						; size = 4
_fAccPower$ = 12					; size = 4
_fTurnAngle$ = 16					; size = 4
_dwState$ = 20						; size = 4
_dwStateFlag$ = 24					; size = 4
_nMotionEx$ = 28					; size = 4
?ForcedSet2@CActionMover@@QAEXAAUD3DXVECTOR3@@MMKKH@Z PROC NEAR ; CActionMover::ForcedSet2, COMDAT
; _this$ = ecx

; 63   : 	if( ( GetStateFlag() & OBJSTAF_FLY ) == 0 && ( dwStateFlag & OBJSTAF_FLY ) )

  00000	8b 44 24 14	 mov	 eax, DWORD PTR _dwStateFlag$[esp-4]
  00004	56		 push	 esi
  00005	8b f1		 mov	 esi, ecx
  00007	8b 4e 08	 mov	 ecx, DWORD PTR [esi+8]
  0000a	83 e1 08	 and	 ecx, 8
  0000d	75 08		 jne	 SHORT $L266738
  0000f	a8 08		 test	 al, 8
  00011	0f 85 a4 00 00
	00		 jne	 $L266743
$L266738:

; 64   : 		return;
; 65   : 	if( ( GetStateFlag() & OBJSTAF_FLY ) && ( dwStateFlag & OBJSTAF_FLY ) == 0 )

  00017	85 c9		 test	 ecx, ecx
  00019	74 08		 je	 SHORT $L266739
  0001b	a8 08		 test	 al, 8
  0001d	0f 84 98 00 00
	00		 je	 $L266743
$L266739:

; 66   : 		return;
; 67   : 
; 68   : 	m_vDelta = vDelta;

  00023	8b 54 24 08	 mov	 edx, DWORD PTR _vDelta$[esp]
  00027	57		 push	 edi
  00028	8b 3a		 mov	 edi, DWORD PTR [edx]
  0002a	8d 4e 50	 lea	 ecx, DWORD PTR [esi+80]
  0002d	89 39		 mov	 DWORD PTR [ecx], edi
  0002f	8b 7a 04	 mov	 edi, DWORD PTR [edx+4]
  00032	89 79 04	 mov	 DWORD PTR [ecx+4], edi
  00035	8b 52 08	 mov	 edx, DWORD PTR [edx+8]

; 69   : 	m_fAccPower	= fAccPower;
; 70   : 	m_fTurnAngle	= fTurnAngle;
; 71   : 	__ForceSetState( dwState );

  00038	8b 7c 24 18	 mov	 edi, DWORD PTR _dwState$[esp+4]
  0003c	89 51 08	 mov	 DWORD PTR [ecx+8], edx
  0003f	8b 4c 24 10	 mov	 ecx, DWORD PTR _fAccPower$[esp+4]
  00043	8b 54 24 14	 mov	 edx, DWORD PTR _fTurnAngle$[esp+4]
  00047	89 4e 4c	 mov	 DWORD PTR [esi+76], ecx

; 72   : 	ClearStateFlag();
; 73   : 	AddStateFlag( dwStateFlag );

  0004a	50		 push	 eax
  0004b	8b ce		 mov	 ecx, esi
  0004d	89 96 84 00 00
	00		 mov	 DWORD PTR [esi+132], edx
  00053	89 7e 04	 mov	 DWORD PTR [esi+4], edi
  00056	c7 46 08 00 00
	00 00		 mov	 DWORD PTR [esi+8], 0
  0005d	e8 00 00 00 00	 call	 ?AddStateFlag@CAction@@QAEXK@Z ; CAction::AddStateFlag

; 74   : 	m_nMotionEx = nMotionEx;

  00062	8b 44 24 20	 mov	 eax, DWORD PTR _nMotionEx$[esp+4]

; 75   : 	DefaultSet();

  00066	8b 4e 0c	 mov	 ecx, DWORD PTR [esi+12]
  00069	89 86 8c 00 00
	00		 mov	 DWORD PTR [esi+140], eax
  0006f	c7 81 50 02 00
	00 00 00 00 00	 mov	 DWORD PTR [ecx+592], 0

; 76   : 	if( (GetStateFlag() & OBJSTAF_SIT) && (dwState != OBJSTA_SIT))	// IsSit()

  00079	8b 46 08	 mov	 eax, DWORD PTR [esi+8]
  0007c	8b c8		 mov	 ecx, eax
  0007e	83 e1 04	 and	 ecx, 4
  00081	74 1c		 je	 SHORT $L266740
  00083	83 ff 03	 cmp	 edi, 3
  00086	74 17		 je	 SHORT $L266740

; 77   : 		Error( "ForcedSet2 : dwState=0x%08x, dwStateFlag=0x%08x", GetState(), GetStateFlag() );

  00088	8b 56 04	 mov	 edx, DWORD PTR [esi+4]
  0008b	50		 push	 eax
  0008c	52		 push	 edx

; 79   : 		Error( "ForcedSet2 : dwState=0x%08x, dwStateFlag=0x%08x", GetState(), GetStateFlag() );

  0008d	68 00 00 00 00	 push	 OFFSET FLAT:??_C@_0DA@DHAGLFHI@ForcedSet2?5?3?5dwState?$DN0x?$CF08x?0?5dwS@
  00092	e8 00 00 00 00	 call	 ?Error@@YAPBDPBDZZ	; Error
  00097	83 c4 0c	 add	 esp, 12			; 0000000cH
  0009a	5f		 pop	 edi
  0009b	5e		 pop	 esi

; 80   : }

  0009c	c2 18 00	 ret	 24			; 00000018H
$L266740:

; 78   : 	else if( (GetStateFlag() & OBJSTAF_SIT) == 0 && (dwState == OBJSTA_SIT) )	// IsSit() SIT

  0009f	85 c9		 test	 ecx, ecx
  000a1	75 17		 jne	 SHORT $L273056
  000a3	83 ff 03	 cmp	 edi, 3
  000a6	75 12		 jne	 SHORT $L273056

; 79   : 		Error( "ForcedSet2 : dwState=0x%08x, dwStateFlag=0x%08x", GetState(), GetStateFlag() );

  000a8	50		 push	 eax
  000a9	8b 46 04	 mov	 eax, DWORD PTR [esi+4]
  000ac	50		 push	 eax
  000ad	68 00 00 00 00	 push	 OFFSET FLAT:??_C@_0DA@DHAGLFHI@ForcedSet2?5?3?5dwState?$DN0x?$CF08x?0?5dwS@
  000b2	e8 00 00 00 00	 call	 ?Error@@YAPBDPBDZZ	; Error
  000b7	83 c4 0c	 add	 esp, 12			; 0000000cH
$L273056:
  000ba	5f		 pop	 edi
$L266743:
  000bb	5e		 pop	 esi

; 80   : }

  000bc	c2 18 00	 ret	 24			; 00000018H
?ForcedSet2@CActionMover@@QAEXAAUD3DXVECTOR3@@MMKKH@Z ENDP ; CActionMover::ForcedSet2
_TEXT	ENDS
PUBLIC	?HalfForcedSet@CActionMover@@QAEXAAUD3DXVECTOR3@@MM@Z ; CActionMover::HalfForcedSet
; Function compile flags: /Ogty
;	COMDAT ?HalfForcedSet@CActionMover@@QAEXAAUD3DXVECTOR3@@MM@Z
_TEXT	SEGMENT
_vd$ = 8						; size = 4
_fAccPower$ = 12					; size = 4
_fTurnAngle$ = 16					; size = 4
?HalfForcedSet@CActionMover@@QAEXAAUD3DXVECTOR3@@MM@Z PROC NEAR ; CActionMover::HalfForcedSet, COMDAT
; _this$ = ecx

; 84   : 	m_vDelta	 = vd;

  00000	8b 54 24 04	 mov	 edx, DWORD PTR _vd$[esp-4]
  00004	56		 push	 esi
  00005	8b 32		 mov	 esi, DWORD PTR [edx]
  00007	8d 41 50	 lea	 eax, DWORD PTR [ecx+80]
  0000a	89 30		 mov	 DWORD PTR [eax], esi
  0000c	8b 72 04	 mov	 esi, DWORD PTR [edx+4]
  0000f	89 70 04	 mov	 DWORD PTR [eax+4], esi
  00012	8b 52 08	 mov	 edx, DWORD PTR [edx+8]
  00015	89 50 08	 mov	 DWORD PTR [eax+8], edx

; 85   : 	m_fAccPower	 = fAccPower;

  00018	8b 44 24 0c	 mov	 eax, DWORD PTR _fAccPower$[esp]

; 86   : 	m_fTurnAngle = fTurnAngle;

  0001c	8b 54 24 10	 mov	 edx, DWORD PTR _fTurnAngle$[esp]
  00020	89 41 4c	 mov	 DWORD PTR [ecx+76], eax

; 87   : 	DefaultSet();

  00023	8b 41 0c	 mov	 eax, DWORD PTR [ecx+12]
  00026	89 91 84 00 00
	00		 mov	 DWORD PTR [ecx+132], edx
  0002c	c7 80 50 02 00
	00 00 00 00 00	 mov	 DWORD PTR [eax+592], 0
  00036	5e		 pop	 esi

; 88   : }

  00037	c2 0c 00	 ret	 12			; 0000000cH
?HalfForcedSet@CActionMover@@QAEXAAUD3DXVECTOR3@@MM@Z ENDP ; CActionMover::HalfForcedSet
_TEXT	ENDS
PUBLIC	?PreProcessDamage@CActionMover@@QAEPAVCMover@@PAV2@KHH@Z ; CActionMover::PreProcessDamage
EXTRN	?GetHitType@CMover@@QAE?AW4HITTYPE@@PAV1@HH@Z:NEAR ; CMover::GetHitType
EXTRN	?GetCtrl@CProject@@QAEPAVCCtrl@@K@Z:NEAR	; CProject::GetCtrl
EXTRN	?RemoveInvisible@CMover@@QAEXXZ:NEAR		; CMover::RemoveInvisible
; Function compile flags: /Ogty
;	COMDAT ?PreProcessDamage@CActionMover@@QAEPAVCMover@@PAV2@KHH@Z
_TEXT	SEGMENT
_pMover$ = 8						; size = 4
_idAttacker$ = 12					; size = 4
_bTarget$ = 16						; size = 4
_nReflect$ = 20						; size = 4
?PreProcessDamage@CActionMover@@QAEPAVCMover@@PAV2@KHH@Z PROC NEAR ; CActionMover::PreProcessDamage, COMDAT
; _this$ = ecx

; 1200 : {

  00000	57		 push	 edi

; 1201 : 	if( pMover->m_dwMode & MATCHLESS_MODE )		//   .	

  00001	8b 7c 24 08	 mov	 edi, DWORD PTR _pMover$[esp]
  00005	f6 87 44 02 00
	00 01		 test	 BYTE PTR [edi+580], 1

; 1202 : 		return NULL;

  0000c	75 10		 jne	 SHORT $L273088

; 1203 : #if __VER >= 10 // __LEGEND	//	10 	Neuz, World, Trans
; 1204 : 	if( pMover->GetAdjParam( DST_CHRSTATE ) & CHS_SETSTONE)

  0000e	6a 40		 push	 64			; 00000040H
  00010	8b cf		 mov	 ecx, edi
  00012	e8 00 00 00 00	 call	 ?GetAdjParam@CMover@@QAEHH@Z ; CMover::GetAdjParam
  00017	a9 00 00 10 00	 test	 eax, 1048576		; 00100000H
  0001c	74 06		 je	 SHORT $L267191
$L273088:

; 1205 : 		return NULL;

  0001e	33 c0		 xor	 eax, eax
  00020	5f		 pop	 edi

; 1237 : }

  00021	c2 10 00	 ret	 16			; 00000010H
$L267191:

; 1206 : #endif	//__LEGEND	//	10 	Neuz, World, Trans
; 1207 : 
; 1208 : 	CCtrl* pCtrl = prj.GetCtrl( idAttacker );	//  

  00024	8b 44 24 0c	 mov	 eax, DWORD PTR _idAttacker$[esp]
  00028	56		 push	 esi
  00029	50		 push	 eax
  0002a	b9 00 00 00 00	 mov	 ecx, OFFSET FLAT:?prj@@3VCProject@@A
  0002f	e8 00 00 00 00	 call	 ?GetCtrl@CProject@@QAEPAVCCtrl@@K@Z ; CProject::GetCtrl
  00034	8b f0		 mov	 esi, eax

; 1209 : 	if( IsValidObj( pCtrl ) == FALSE )

  00036	85 f6		 test	 esi, esi
  00038	74 51		 je	 SHORT $L267195
  0003a	f6 46 04 01	 test	 BYTE PTR [esi+4], 1

; 1210 : 		return NULL;

  0003e	75 4b		 jne	 SHORT $L267195

; 1211 : 
; 1212 : 	CMover* pAttacker = NULL;
; 1213 : 	if( pCtrl->GetType() == OT_MOVER )

  00040	83 be 70 01 00
	00 05		 cmp	 DWORD PTR [esi+368], 5
  00047	75 42		 jne	 SHORT $L267195

; 1217 : 
; 1218 : 	if( pMover->IsNPC() )						//  NPC

  00049	8b 87 34 02 00
	00		 mov	 eax, DWORD PTR [edi+564]
  0004f	85 c0		 test	 eax, eax
  00051	75 14		 jne	 SHORT $L267200

; 1219 : 	{
; 1220 : 		MoverProp *pProp = pMover->GetProp();

  00053	8b cf		 mov	 ecx, edi
  00055	e8 00 00 00 00	 call	 ?GetPropA@CMover@@QAEPAUMoverProp@@XZ ; CMover::GetPropA

; 1221 : 		if( pProp && pProp->bKillable != 1 )	//     .

  0005a	85 c0		 test	 eax, eax
  0005c	74 09		 je	 SHORT $L267200
  0005e	83 b8 6c 01 00
	00 01		 cmp	 DWORD PTR [eax+364], 1

; 1222 : 			return NULL;

  00065	75 24		 jne	 SHORT $L267195
$L267200:

; 1223 : 	}
; 1224 : 
; 1225 : #ifdef __WORLDSERVER
; 1226 : 	HITTYPE ht = pAttacker->GetHitType( pMover, bTarget, nReflect );

  00067	8b 4c 24 18	 mov	 ecx, DWORD PTR _nReflect$[esp+4]
  0006b	8b 54 24 14	 mov	 edx, DWORD PTR _bTarget$[esp+4]
  0006f	51		 push	 ecx
  00070	52		 push	 edx
  00071	57		 push	 edi
  00072	8b ce		 mov	 ecx, esi
  00074	e8 00 00 00 00	 call	 ?GetHitType@CMover@@QAE?AW4HITTYPE@@PAV1@HH@Z ; CMover::GetHitType

; 1227 : 	if( ht == HITTYPE_FAIL )

  00079	85 c0		 test	 eax, eax

; 1228 : 		return 0;

  0007b	74 0e		 je	 SHORT $L267195

; 1229 : #if __VER < 10	// __METEONYKER_0608
; 1230 : 	pMover->PostAIMsg( AIMSG_DAMAGE, idAttacker ); 
; 1231 : #endif	// __METEONYKER_0608
; 1232 : 
; 1233 : #endif
; 1234 : 
; 1235 : 	pAttacker->RemoveInvisible();

  0007d	8b ce		 mov	 ecx, esi
  0007f	e8 00 00 00 00	 call	 ?RemoveInvisible@CMover@@QAEXXZ ; CMover::RemoveInvisible

; 1236 : 	return pAttacker;

  00084	8b c6		 mov	 eax, esi
  00086	5e		 pop	 esi
  00087	5f		 pop	 edi

; 1237 : }

  00088	c2 10 00	 ret	 16			; 00000010H
$L267195:
  0008b	5e		 pop	 esi

; 1214 : 		pAttacker = (CMover*)pCtrl; 
; 1215 : 	else
; 1216 : 		return NULL;							

  0008c	33 c0		 xor	 eax, eax
  0008e	5f		 pop	 edi

; 1237 : }

  0008f	c2 10 00	 ret	 16			; 00000010H
?PreProcessDamage@CActionMover@@QAEPAVCMover@@PAV2@KHH@Z ENDP ; CActionMover::PreProcessDamage
_TEXT	ENDS
PUBLIC	??_C@_0BI@BEIFNGEL@GetItemProp?5range_error?$AA@ ; `string'
PUBLIC	?GetItemProp@CProject@@QAEPAUItemProp@@H@Z	; CProject::GetItemProp
;	COMDAT ??_C@_0BI@BEIFNGEL@GetItemProp?5range_error?$AA@
; File c:\documents and settings\test\mes documents\source\virtuos_v17\build\program\_common\data.h
CONST	SEGMENT
??_C@_0BI@BEIFNGEL@GetItemProp?5range_error?$AA@ DB 'GetItemProp range_er'
	DB	'ror', 00H					; `string'
; Function compile flags: /Ogty
; File c:\documents and settings\test\mes documents\source\virtuos_v17\build\program\_common\project.h
CONST	ENDS
;	COMDAT ?GetItemProp@CProject@@QAEPAUItemProp@@H@Z
_TEXT	SEGMENT
_nIndex$ = 8						; size = 4
?GetItemProp@CProject@@QAEPAUItemProp@@H@Z PROC NEAR	; CProject::GetItemProp, COMDAT
; _this$ = ecx

; 1364 : 	VERIFY_RANGE_ASSERT( nIndex, 0, m_aPropItem.GetSize(), "GetItemProp range_error", NULL );

  00000	8b 44 24 04	 mov	 eax, DWORD PTR _nIndex$[esp-4]
  00004	85 c0		 test	 eax, eax
  00006	7c 1a		 jl	 SHORT $L197914
  00008	8b 91 5c 02 00
	00		 mov	 edx, DWORD PTR [ecx+604]
  0000e	3b c2		 cmp	 eax, edx
  00010	7d 10		 jge	 SHORT $L197914

; 1365 : 	return m_aPropItem.GetAt( nIndex ); 

  00012	3b c2		 cmp	 eax, edx
  00014	73 28		 jae	 SHORT $L273113
  00016	8b 89 4c 02 00
	00		 mov	 ecx, DWORD PTR [ecx+588]
  0001c	8b 04 81	 mov	 eax, DWORD PTR [ecx+eax*4]

; 1366 : }

  0001f	c2 04 00	 ret	 4
$L197914:

; 1364 : 	VERIFY_RANGE_ASSERT( nIndex, 0, m_aPropItem.GetSize(), "GetItemProp range_error", NULL );

  00022	8b 91 5c 02 00
	00		 mov	 edx, DWORD PTR [ecx+604]
  00028	50		 push	 eax
  00029	52		 push	 edx
  0002a	6a 00		 push	 0
  0002c	68 00 00 00 00	 push	 OFFSET FLAT:??_C@_0BI@BEIFNGEL@GetItemProp?5range_error?$AA@
  00031	68 00 00 00 00	 push	 OFFSET FLAT:??_C@_0BM@HMFGHCP@?$CFs?5min?3?$CFd?0?5max?3?$CFd?0?5index?3?$CFd?$AA@
  00036	e8 00 00 00 00	 call	 ?Error@@YAPBDPBDZZ	; Error
  0003b	83 c4 14	 add	 esp, 20			; 00000014H
$L273113:
  0003e	33 c0		 xor	 eax, eax

; 1366 : }

  00040	c2 04 00	 ret	 4
?GetItemProp@CProject@@QAEPAUItemProp@@H@Z ENDP		; CProject::GetItemProp
_TEXT	ENDS
PUBLIC	?GetPropA@CItemElem@@QAEPAUItemProp@@XZ		; CItemElem::GetPropA
; Function compile flags: /Ogty
; File c:\documents and settings\test\mes documents\source\virtuos_v17\build\program\_common\item.h
;	COMDAT ?GetPropA@CItemElem@@QAEPAUItemProp@@XZ
_TEXT	SEGMENT
?GetPropA@CItemElem@@QAEPAUItemProp@@XZ PROC NEAR	; CItemElem::GetPropA, COMDAT
; _this$ = ecx

; 229  : 	ItemProp*	GetProp()	{	return prj.GetItemProp( m_dwItemId );	}

  00000	8b 41 0c	 mov	 eax, DWORD PTR [ecx+12]
  00003	85 c0		 test	 eax, eax
  00005	8b 0d 5c 02 00
	00		 mov	 ecx, DWORD PTR ?prj@@3VCProject@@A+604
  0000b	7c 10		 jl	 SHORT $L273144
  0000d	3b c1		 cmp	 eax, ecx
  0000f	7d 0c		 jge	 SHORT $L273144
  00011	73 20		 jae	 SHORT $L273160
  00013	8b 0d 4c 02 00
	00		 mov	 ecx, DWORD PTR ?prj@@3VCProject@@A+588
  00019	8b 04 81	 mov	 eax, DWORD PTR [ecx+eax*4]
  0001c	c3		 ret	 0
$L273144:
  0001d	50		 push	 eax
  0001e	51		 push	 ecx
  0001f	6a 00		 push	 0
  00021	68 00 00 00 00	 push	 OFFSET FLAT:??_C@_0BI@BEIFNGEL@GetItemProp?5range_error?$AA@
  00026	68 00 00 00 00	 push	 OFFSET FLAT:??_C@_0BM@HMFGHCP@?$CFs?5min?3?$CFd?0?5max?3?$CFd?0?5index?3?$CFd?$AA@
  0002b	e8 00 00 00 00	 call	 ?Error@@YAPBDPBDZZ	; Error
  00030	83 c4 14	 add	 esp, 20			; 00000014H
$L273160:
  00033	33 c0		 xor	 eax, eax
  00035	c3		 ret	 0
?GetPropA@CItemElem@@QAEPAUItemProp@@XZ ENDP		; CItemElem::GetPropA
_TEXT	ENDS
PUBLIC	?GetLength@?$CSimpleStringT@D$0A@@ATL@@QBEHXZ	; ATL::CSimpleStringT<char,0>::GetLength
; Function compile flags: /Ogty
; File c:\program files\microsoft visual studio .net 2003\vc7\atlmfc\include\atlsimpstr.h
;	COMDAT ?GetLength@?$CSimpleStringT@D$0A@@ATL@@QBEHXZ
_TEXT	SEGMENT
?GetLength@?$CSimpleStringT@D$0A@@ATL@@QBEHXZ PROC NEAR	; ATL::CSimpleStringT<char,0>::GetLength, COMDAT
; _this$ = ecx

; 501  : 		return( GetData()->nDataLength );

  00000	8b 01		 mov	 eax, DWORD PTR [ecx]
  00002	8b 40 f4	 mov	 eax, DWORD PTR [eax-12]

; 502  : 	}

  00005	c3		 ret	 0
?GetLength@?$CSimpleStringT@D$0A@@ATL@@QBEHXZ ENDP	; ATL::CSimpleStringT<char,0>::GetLength
_TEXT	ENDS
PUBLIC	??0?$CSimpleStringT@D$0A@@ATL@@QAE@PAUIAtlStringMgr@1@@Z ; ATL::CSimpleStringT<char,0>::CSimpleStringT<char,0>
; Function compile flags: /Ogty
;	COMDAT ??0?$CSimpleStringT@D$0A@@ATL@@QAE@PAUIAtlStringMgr@1@@Z
_TEXT	SEGMENT
_pStringMgr$ = 8					; size = 4
??0?$CSimpleStringT@D$0A@@ATL@@QAE@PAUIAtlStringMgr@1@@Z PROC NEAR ; ATL::CSimpleStringT<char,0>::CSimpleStringT<char,0>, COMDAT
; _this$ = ecx

; 210  : 	explicit CSimpleStringT( IAtlStringMgr* pStringMgr ) throw()

  00000	56		 push	 esi
  00001	8b f1		 mov	 esi, ecx

; 211  : 	{
; 212  : 		ATLASSERT( pStringMgr != NULL );
; 213  : 		CStringData* pData = pStringMgr->GetNilString();

  00003	8b 4c 24 08	 mov	 ecx, DWORD PTR _pStringMgr$[esp]
  00007	8b 01		 mov	 eax, DWORD PTR [ecx]
  00009	ff 50 0c	 call	 DWORD PTR [eax+12]

; 214  : 		Attach( pData );

  0000c	83 c0 10	 add	 eax, 16			; 00000010H
  0000f	89 06		 mov	 DWORD PTR [esi], eax

; 215  : 	}

  00011	8b c6		 mov	 eax, esi
  00013	5e		 pop	 esi
  00014	c2 04 00	 ret	 4
??0?$CSimpleStringT@D$0A@@ATL@@QAE@PAUIAtlStringMgr@1@@Z ENDP ; ATL::CSimpleStringT<char,0>::CSimpleStringT<char,0>
_TEXT	ENDS
PUBLIC	??1?$CSimpleStringT@D$0A@@ATL@@QAE@XZ		; ATL::CSimpleStringT<char,0>::~CSimpleStringT<char,0>
; Function compile flags: /Ogty
;	COMDAT ??1?$CSimpleStringT@D$0A@@ATL@@QAE@XZ
_TEXT	SEGMENT
??1?$CSimpleStringT@D$0A@@ATL@@QAE@XZ PROC NEAR		; ATL::CSimpleStringT<char,0>::~CSimpleStringT<char,0>, COMDAT
; _this$ = ecx

; 263  : 		CStringData* pData = GetData();

  00000	8b 01		 mov	 eax, DWORD PTR [ecx]
  00002	83 e8 10	 sub	 eax, 16			; 00000010H

; 264  : 		pData->Release();

  00005	8d 48 0c	 lea	 ecx, DWORD PTR [eax+12]
  00008	83 ca ff	 or	 edx, -1
  0000b	f0 0f c1 11	 lock	  xadd	 DWORD PTR [ecx], edx
  0000f	4a		 dec	 edx
  00010	85 d2		 test	 edx, edx
  00012	7f 08		 jg	 SHORT $L273187
  00014	8b 08		 mov	 ecx, DWORD PTR [eax]
  00016	8b 11		 mov	 edx, DWORD PTR [ecx]
  00018	50		 push	 eax
  00019	ff 52 04	 call	 DWORD PTR [edx+4]
$L273187:

; 265  : 	}

  0001c	c3		 ret	 0
??1?$CSimpleStringT@D$0A@@ATL@@QAE@XZ ENDP		; ATL::CSimpleStringT<char,0>::~CSimpleStringT<char,0>
_TEXT	ENDS
PUBLIC	?ReleaseBufferSetLength@?$CSimpleStringT@D$0A@@ATL@@QAEXH@Z ; ATL::CSimpleStringT<char,0>::ReleaseBufferSetLength
; Function compile flags: /Ogty
;	COMDAT ?ReleaseBufferSetLength@?$CSimpleStringT@D$0A@@ATL@@QAEXH@Z
_TEXT	SEGMENT
_nNewLength$ = 8					; size = 4
?ReleaseBufferSetLength@?$CSimpleStringT@D$0A@@ATL@@QAEXH@Z PROC NEAR ; ATL::CSimpleStringT<char,0>::ReleaseBufferSetLength, COMDAT
; _this$ = ecx

; 547  : 		ATLASSERT( nNewLength >= 0 );
; 548  : 		SetLength( nNewLength );

  00000	8b 44 24 04	 mov	 eax, DWORD PTR _nNewLength$[esp-4]
  00004	85 c0		 test	 eax, eax
  00006	7c 13		 jl	 SHORT $L273205
  00008	8b 11		 mov	 edx, DWORD PTR [ecx]
  0000a	3b 42 f8	 cmp	 eax, DWORD PTR [edx-8]
  0000d	7f 0c		 jg	 SHORT $L273205
  0000f	89 42 f4	 mov	 DWORD PTR [edx-12], eax
  00012	8b 09		 mov	 ecx, DWORD PTR [ecx]
  00014	c6 04 08 00	 mov	 BYTE PTR [eax+ecx], 0

; 549  : 	}

  00018	c2 04 00	 ret	 4
$L273205:
  0001b	68 57 00 07 80	 push	 -2147024809		; 80070057H
  00020	e8 00 00 00 00	 call	 ?AtlThrow@ATL@@YGXJ@Z	; ATL::AtlThrow
$L273208:
$L273207:
  00025	cc		 int	 3
?ReleaseBufferSetLength@?$CSimpleStringT@D$0A@@ATL@@QAEXH@Z ENDP ; ATL::CSimpleStringT<char,0>::ReleaseBufferSetLength
_TEXT	ENDS
PUBLIC	?Empty@?$CSimpleStringT@D$0A@@ATL@@QAEXXZ	; ATL::CSimpleStringT<char,0>::Empty
; Function compile flags: /Ogty
;	COMDAT ?Empty@?$CSimpleStringT@D$0A@@ATL@@QAEXXZ
_TEXT	SEGMENT
?Empty@?$CSimpleStringT@D$0A@@ATL@@QAEXXZ PROC NEAR	; ATL::CSimpleStringT<char,0>::Empty, COMDAT
; _this$ = ecx

; 421  : 	{

  00000	56		 push	 esi
  00001	8b f1		 mov	 esi, ecx

; 422  : 		CStringData* pOldData = GetData();

  00003	8b 0e		 mov	 ecx, DWORD PTR [esi]

; 423  : 		IAtlStringMgr* pStringMgr = pOldData->pStringMgr;
; 424  : 		if( pOldData->nDataLength == 0 )

  00005	8b 51 f4	 mov	 edx, DWORD PTR [ecx-12]
  00008	85 d2		 test	 edx, edx
  0000a	8d 41 f0	 lea	 eax, DWORD PTR [ecx-16]
  0000d	57		 push	 edi
  0000e	8b 38		 mov	 edi, DWORD PTR [eax]
  00010	74 4c		 je	 SHORT $L273242
  00012	53		 push	 ebx

; 425  : 		{
; 426  : 			return;
; 427  : 		}
; 428  : 
; 429  : 		if( pOldData->IsLocked() )

  00013	8b 58 0c	 mov	 ebx, DWORD PTR [eax+12]
  00016	8d 50 0c	 lea	 edx, DWORD PTR [eax+12]
  00019	85 db		 test	 ebx, ebx
  0001b	5b		 pop	 ebx
  0001c	7d 20		 jge	 SHORT $L221323

; 430  : 		{
; 431  : 			// Don't reallocate a locked buffer that's shrinking
; 432  : 			SetLength( 0 );

  0001e	8b 41 f8	 mov	 eax, DWORD PTR [ecx-8]
  00021	85 c0		 test	 eax, eax
  00023	7d 0a		 jge	 SHORT $L273231
  00025	68 57 00 07 80	 push	 -2147024809		; 80070057H
  0002a	e8 00 00 00 00	 call	 ?AtlThrow@ATL@@YGXJ@Z	; ATL::AtlThrow
$L273247:
$L273231:
  0002f	c7 41 f4 00 00
	00 00		 mov	 DWORD PTR [ecx-12], 0
  00036	8b 06		 mov	 eax, DWORD PTR [esi]
  00038	5f		 pop	 edi
  00039	c6 00 00	 mov	 BYTE PTR [eax], 0
  0003c	5e		 pop	 esi

; 439  : 		}
; 440  : 	}

  0003d	c3		 ret	 0
$L221323:

; 433  : 		}
; 434  : 		else
; 435  : 		{
; 436  : 			pOldData->Release();

  0003e	83 c9 ff	 or	 ecx, -1
  00041	f0 0f c1 0a	 lock	  xadd	 DWORD PTR [edx], ecx
  00045	49		 dec	 ecx
  00046	85 c9		 test	 ecx, ecx
  00048	7f 08		 jg	 SHORT $L273237
  0004a	8b 08		 mov	 ecx, DWORD PTR [eax]
  0004c	8b 11		 mov	 edx, DWORD PTR [ecx]
  0004e	50		 push	 eax
  0004f	ff 52 04	 call	 DWORD PTR [edx+4]
$L273237:

; 437  : 			CStringData* pNewData = pStringMgr->GetNilString();

  00052	8b 07		 mov	 eax, DWORD PTR [edi]
  00054	8b cf		 mov	 ecx, edi
  00056	ff 50 0c	 call	 DWORD PTR [eax+12]

; 438  : 			Attach( pNewData );

  00059	83 c0 10	 add	 eax, 16			; 00000010H
  0005c	89 06		 mov	 DWORD PTR [esi], eax
$L273242:
  0005e	5f		 pop	 edi
  0005f	5e		 pop	 esi

; 439  : 		}
; 440  : 	}

  00060	c3		 ret	 0
$L273246:
?Empty@?$CSimpleStringT@D$0A@@ATL@@QAEXXZ ENDP		; ATL::CSimpleStringT<char,0>::Empty
_TEXT	ENDS
PUBLIC	?PrepareWrite2@?$CSimpleStringT@D$0A@@ATL@@AAEXH@Z ; ATL::CSimpleStringT<char,0>::PrepareWrite2
; Function compile flags: /Ogty
;	COMDAT ?PrepareWrite2@?$CSimpleStringT@D$0A@@ATL@@AAEXH@Z
_TEXT	SEGMENT
_nLength$ = 8						; size = 4
?PrepareWrite2@?$CSimpleStringT@D$0A@@ATL@@AAEXH@Z PROC NEAR ; ATL::CSimpleStringT<char,0>::PrepareWrite2, COMDAT
; _this$ = ecx

; 747  : 		CStringData* pOldData = GetData();

  00000	8b 01		 mov	 eax, DWORD PTR [ecx]

; 748  : 		if( pOldData->nDataLength > nLength )

  00002	8b 54 24 04	 mov	 edx, DWORD PTR _nLength$[esp-4]
  00006	83 e8 10	 sub	 eax, 16			; 00000010H
  00009	56		 push	 esi
  0000a	8b 70 04	 mov	 esi, DWORD PTR [eax+4]
  0000d	3b f2		 cmp	 esi, edx
  0000f	7e 02		 jle	 SHORT $L221345

; 749  : 		{
; 750  : 			nLength = pOldData->nDataLength;

  00011	8b d6		 mov	 edx, esi
$L221345:

; 751  : 		}
; 752  : 		if( pOldData->IsShared() )

  00013	83 78 0c 01	 cmp	 DWORD PTR [eax+12], 1
  00017	5e		 pop	 esi
  00018	7e 09		 jle	 SHORT $L221346

; 753  : 		{
; 754  : 			Fork( nLength );

  0001a	89 54 24 04	 mov	 DWORD PTR _nLength$[esp-4], edx
  0001e	e9 00 00 00 00	 jmp	 ?Fork@?$CSimpleStringT@D$0A@@ATL@@AAEXH@Z ; ATL::CSimpleStringT<char,0>::Fork
$L221346:

; 755  : 		}
; 756  : 		else if( pOldData->nAllocLength < nLength )

  00023	8b 40 08	 mov	 eax, DWORD PTR [eax+8]
  00026	3b c2		 cmp	 eax, edx
  00028	7d 1f		 jge	 SHORT $L221348

; 757  : 		{
; 758  : 			// Grow exponentially, until we hit 1K.
; 759  : 			int nNewLength = pOldData->nAllocLength;
; 760  : 			if( nNewLength > 1024 )

  0002a	3d 00 04 00 00	 cmp	 eax, 1024		; 00000400H
  0002f	7e 07		 jle	 SHORT $L221350

; 761  : 			{
; 762  : 				nNewLength += 1024;

  00031	05 00 04 00 00	 add	 eax, 1024		; 00000400H

; 763  : 			}
; 764  : 			else

  00036	eb 02		 jmp	 SHORT $L221351
$L221350:

; 765  : 			{
; 766  : 				nNewLength *= 2;

  00038	03 c0		 add	 eax, eax
$L221351:

; 767  : 			}
; 768  : 			if( nNewLength < nLength )

  0003a	3b c2		 cmp	 eax, edx
  0003c	7d 02		 jge	 SHORT $L221352

; 769  : 			{
; 770  : 				nNewLength = nLength;

  0003e	8b c2		 mov	 eax, edx
$L221352:

; 771  : 			}
; 772  : 			Reallocate( nNewLength );

  00040	89 44 24 04	 mov	 DWORD PTR _nLength$[esp-4], eax
  00044	e9 00 00 00 00	 jmp	 ?Reallocate@?$CSimpleStringT@D$0A@@ATL@@AAEXH@Z ; ATL::CSimpleStringT<char,0>::Reallocate
$L221348:

; 773  : 		}
; 774  : 	}

  00049	c2 04 00	 ret	 4
?PrepareWrite2@?$CSimpleStringT@D$0A@@ATL@@AAEXH@Z ENDP	; ATL::CSimpleStringT<char,0>::PrepareWrite2
_TEXT	ENDS
PUBLIC	??1?$CStringT@DV?$StrTraitMFC@DV?$ChTraitsCRT@D@ATL@@@@@ATL@@QAE@XZ ; ATL::CStringT<char,StrTraitMFC<char,ATL::ChTraitsCRT<char> > >::~CStringT<char,StrTraitMFC<char,ATL::ChTraitsCRT<char> > >
; Function compile flags: /Ogty
; File c:\program files\microsoft visual studio .net 2003\vc7\atlmfc\include\cstringt.h
;	COMDAT ??1?$CStringT@DV?$StrTraitMFC@DV?$ChTraitsCRT@D@ATL@@@@@ATL@@QAE@XZ
_TEXT	SEGMENT
??1?$CStringT@DV?$StrTraitMFC@DV?$ChTraitsCRT@D@ATL@@@@@ATL@@QAE@XZ PROC NEAR ; ATL::CStringT<char,StrTraitMFC<char,ATL::ChTraitsCRT<char> > >::~CStringT<char,StrTraitMFC<char,ATL::ChTraitsCRT<char> > >, COMDAT
; _this$ = ecx

; 963  : 	}

  00000	8b 01		 mov	 eax, DWORD PTR [ecx]
  00002	83 e8 10	 sub	 eax, 16			; 00000010H
  00005	8d 48 0c	 lea	 ecx, DWORD PTR [eax+12]
  00008	83 ca ff	 or	 edx, -1
  0000b	f0 0f c1 11	 lock	  xadd	 DWORD PTR [ecx], edx
  0000f	4a		 dec	 edx
  00010	85 d2		 test	 edx, edx
  00012	7f 08		 jg	 SHORT $L273275
  00014	8b 08		 mov	 ecx, DWORD PTR [eax]
  00016	8b 11		 mov	 edx, DWORD PTR [ecx]
  00018	50		 push	 eax
  00019	ff 52 04	 call	 DWORD PTR [edx+4]
$L273275:
  0001c	c3		 ret	 0
??1?$CStringT@DV?$StrTraitMFC@DV?$ChTraitsCRT@D@ATL@@@@@ATL@@QAE@XZ ENDP ; ATL::CStringT<char,StrTraitMFC<char,ATL::ChTraitsCRT<char> > >::~CStringT<char,StrTraitMFC<char,ATL::ChTraitsCRT<char> > >
_TEXT	ENDS
PUBLIC	?PrepareWrite@?$CSimpleStringT@D$0A@@ATL@@AAEPADH@Z ; ATL::CSimpleStringT<char,0>::PrepareWrite
; Function compile flags: /Ogty
; File c:\program files\microsoft visual studio .net 2003\vc7\atlmfc\include\atlsimpstr.h
;	COMDAT ?PrepareWrite@?$CSimpleStringT@D$0A@@ATL@@AAEPADH@Z
_TEXT	SEGMENT
_nLength$ = 8						; size = 4
?PrepareWrite@?$CSimpleStringT@D$0A@@ATL@@AAEPADH@Z PROC NEAR ; ATL::CSimpleStringT<char,0>::PrepareWrite, COMDAT
; _this$ = ecx

; 734  : 	{

  00000	56		 push	 esi
  00001	8b f1		 mov	 esi, ecx

; 735  : 		CStringData* pOldData = GetData();

  00003	8b 06		 mov	 eax, DWORD PTR [esi]

; 736  : 		int nShared = 1-pOldData->nRefs;  // nShared < 0 means true, >= 0 means false

  00005	8b 50 fc	 mov	 edx, DWORD PTR [eax-4]
  00008	83 e8 10	 sub	 eax, 16			; 00000010H
  0000b	b9 01 00 00 00	 mov	 ecx, 1
  00010	2b ca		 sub	 ecx, edx

; 737  : 		int nTooShort = pOldData->nAllocLength-nLength;  // nTooShort < 0 means true, >= 0 means false

  00012	8b 50 08	 mov	 edx, DWORD PTR [eax+8]
  00015	8b 44 24 08	 mov	 eax, DWORD PTR _nLength$[esp]
  00019	2b d0		 sub	 edx, eax

; 738  : 		if( (nShared|nTooShort) < 0 )  // If either sign bit is set (i.e. either is less than zero), we need to copy data

  0001b	0b ca		 or	 ecx, edx
  0001d	7d 08		 jge	 SHORT $L273282

; 739  : 		{
; 740  : 			PrepareWrite2( nLength );

  0001f	50		 push	 eax
  00020	8b ce		 mov	 ecx, esi
  00022	e8 00 00 00 00	 call	 ?PrepareWrite2@?$CSimpleStringT@D$0A@@ATL@@AAEXH@Z ; ATL::CSimpleStringT<char,0>::PrepareWrite2
$L273282:

; 741  : 		}
; 742  : 
; 743  : 		return( m_pszData );

  00027	8b 06		 mov	 eax, DWORD PTR [esi]
  00029	5e		 pop	 esi

; 744  : 	}

  0002a	c2 04 00	 ret	 4
?PrepareWrite@?$CSimpleStringT@D$0A@@ATL@@AAEPADH@Z ENDP ; ATL::CSimpleStringT<char,0>::PrepareWrite
_TEXT	ENDS
PUBLIC	?GetBuffer@?$CSimpleStringT@D$0A@@ATL@@QAEPADH@Z ; ATL::CSimpleStringT<char,0>::GetBuffer
; Function compile flags: /Ogty
;	COMDAT ?GetBuffer@?$CSimpleStringT@D$0A@@ATL@@QAEPADH@Z
_TEXT	SEGMENT
_nMinBufferLength$ = 8					; size = 4
?GetBuffer@?$CSimpleStringT@D$0A@@ATL@@QAEPADH@Z PROC NEAR ; ATL::CSimpleStringT<char,0>::GetBuffer, COMDAT
; _this$ = ecx

; 489  : 	{

  00000	56		 push	 esi
  00001	8b f1		 mov	 esi, ecx

; 490  : 		return( PrepareWrite( nMinBufferLength ) );

  00003	8b 06		 mov	 eax, DWORD PTR [esi]
  00005	8b 50 fc	 mov	 edx, DWORD PTR [eax-4]
  00008	83 e8 10	 sub	 eax, 16			; 00000010H
  0000b	b9 01 00 00 00	 mov	 ecx, 1
  00010	2b ca		 sub	 ecx, edx
  00012	8b 50 08	 mov	 edx, DWORD PTR [eax+8]
  00015	8b 44 24 08	 mov	 eax, DWORD PTR _nMinBufferLength$[esp]
  00019	2b d0		 sub	 edx, eax
  0001b	0b ca		 or	 ecx, edx
  0001d	7d 08		 jge	 SHORT $L273299
  0001f	50		 push	 eax
  00020	8b ce		 mov	 ecx, esi
  00022	e8 00 00 00 00	 call	 ?PrepareWrite2@?$CSimpleStringT@D$0A@@ATL@@AAEXH@Z ; ATL::CSimpleStringT<char,0>::PrepareWrite2
$L273299:
  00027	8b 06		 mov	 eax, DWORD PTR [esi]
  00029	5e		 pop	 esi

; 491  : 	}

  0002a	c2 04 00	 ret	 4
?GetBuffer@?$CSimpleStringT@D$0A@@ATL@@QAEPADH@Z ENDP	; ATL::CSimpleStringT<char,0>::GetBuffer
_TEXT	ENDS
PUBLIC	?LoadStringA@?$CStringT@DV?$StrTraitMFC@DV?$ChTraitsCRT@D@ATL@@@@@ATL@@QAEHPAUHINSTANCE__@@I@Z ; ATL::CStringT<char,StrTraitMFC<char,ATL::ChTraitsCRT<char> > >::LoadStringA
; Function compile flags: /Ogty
; File c:\program files\microsoft visual studio .net 2003\vc7\atlmfc\include\cstringt.h
;	COMDAT ?LoadStringA@?$CStringT@DV?$StrTraitMFC@DV?$ChTraitsCRT@D@ATL@@@@@ATL@@QAEHPAUHINSTANCE__@@I@Z
_TEXT	SEGMENT
_hInstance$ = 8						; size = 4
_nID$ = 12						; size = 4
?LoadStringA@?$CStringT@DV?$StrTraitMFC@DV?$ChTraitsCRT@D@ATL@@@@@ATL@@QAEHPAUHINSTANCE__@@I@Z PROC NEAR ; ATL::CStringT<char,StrTraitMFC<char,ATL::ChTraitsCRT<char> > >::LoadStringA, COMDAT
; _this$ = ecx

; 1981 : 	{

  00000	53		 push	 ebx
  00001	56		 push	 esi

; 1982 : 		const ATLSTRINGRESOURCEIMAGE* pImage = AtlGetStringResourceImage( hInstance, nID );

  00002	8b 74 24 10	 mov	 esi, DWORD PTR _nID$[esp+4]
  00006	8b c6		 mov	 eax, esi
  00008	c1 e8 04	 shr	 eax, 4
  0000b	57		 push	 edi
  0000c	8b 7c 24 10	 mov	 edi, DWORD PTR _hInstance$[esp+8]
  00010	40		 inc	 eax
  00011	8b d9		 mov	 ebx, ecx
  00013	0f b7 c8	 movzx	 ecx, ax
  00016	6a 06		 push	 6
  00018	51		 push	 ecx
  00019	57		 push	 edi
  0001a	ff 15 00 00 00
	00		 call	 DWORD PTR __imp__FindResourceA@12
  00020	85 c0		 test	 eax, eax
  00022	74 11		 je	 SHORT $L273379
  00024	56		 push	 esi
  00025	50		 push	 eax
  00026	57		 push	 edi
  00027	e8 00 00 00 00	 call	 ?_AtlGetStringResourceImage@ATL@@YAPBUATLSTRINGRESOURCEIMAGE@1@PAUHINSTANCE__@@PAUHRSRC__@@I@Z ; ATL::_AtlGetStringResourceImage
  0002c	8b f8		 mov	 edi, eax
  0002e	83 c4 0c	 add	 esp, 12			; 0000000cH

; 1983 : 		if( pImage == NULL )

  00031	85 ff		 test	 edi, edi
  00033	75 08		 jne	 SHORT $L219928
$L273379:
  00035	5f		 pop	 edi
  00036	5e		 pop	 esi

; 1984 : 		{
; 1985 : 			return( FALSE );

  00037	33 c0		 xor	 eax, eax
  00039	5b		 pop	 ebx

; 1994 : 	}

  0003a	c2 08 00	 ret	 8
$L219928:

; 1986 : 		}
; 1987 : 
; 1988 : 		int nLength = StringTraits::GetBaseTypeLength( pImage->achString, pImage->nLength );

  0003d	0f b7 37	 movzx	 esi, WORD PTR [edi]
  00040	55		 push	 ebp
  00041	ff 15 00 00 00
	00		 call	 DWORD PTR ?g_pfnGetThreadACP@ATL@@3P6GIXZA ; ATL::g_pfnGetThreadACP
  00047	6a 00		 push	 0
  00049	6a 00		 push	 0
  0004b	6a 00		 push	 0
  0004d	6a 00		 push	 0
  0004f	56		 push	 esi
  00050	8d 6f 02	 lea	 ebp, DWORD PTR [edi+2]
  00053	55		 push	 ebp
  00054	6a 00		 push	 0
  00056	50		 push	 eax
  00057	ff 15 00 00 00
	00		 call	 DWORD PTR __imp__WideCharToMultiByte@32
  0005d	8b f0		 mov	 esi, eax

; 1989 : 		PXSTR pszBuffer = GetBuffer( nLength );

  0005f	8b 03		 mov	 eax, DWORD PTR [ebx]
  00061	8b 48 fc	 mov	 ecx, DWORD PTR [eax-4]
  00064	83 e8 10	 sub	 eax, 16			; 00000010H
  00067	8b 40 08	 mov	 eax, DWORD PTR [eax+8]
  0006a	ba 01 00 00 00	 mov	 edx, 1
  0006f	2b d1		 sub	 edx, ecx
  00071	2b c6		 sub	 eax, esi
  00073	0b d0		 or	 edx, eax
  00075	7d 08		 jge	 SHORT $L273338
  00077	56		 push	 esi
  00078	8b cb		 mov	 ecx, ebx
  0007a	e8 00 00 00 00	 call	 ?PrepareWrite2@?$CSimpleStringT@D$0A@@ATL@@AAEXH@Z ; ATL::CSimpleStringT<char,0>::PrepareWrite2
$L273338:
  0007f	8b 03		 mov	 eax, DWORD PTR [ebx]

; 1990 : 		StringTraits::ConvertToBaseType( pszBuffer, nLength, pImage->achString, pImage->nLength );

  00081	0f b7 0f	 movzx	 ecx, WORD PTR [edi]
  00084	6a 00		 push	 0
  00086	6a 00		 push	 0
  00088	56		 push	 esi
  00089	50		 push	 eax
  0008a	51		 push	 ecx
  0008b	55		 push	 ebp
  0008c	6a 00		 push	 0
  0008e	ff 15 00 00 00
	00		 call	 DWORD PTR ?g_pfnGetThreadACP@ATL@@3P6GIXZA ; ATL::g_pfnGetThreadACP
  00094	50		 push	 eax
  00095	ff 15 00 00 00
	00		 call	 DWORD PTR __imp__WideCharToMultiByte@32

; 1991 : 		ReleaseBufferSetLength( nLength );

  0009b	85 f6		 test	 esi, esi
  0009d	5d		 pop	 ebp
  0009e	7c 1b		 jl	 SHORT $L273372
  000a0	8b 03		 mov	 eax, DWORD PTR [ebx]
  000a2	3b 70 f8	 cmp	 esi, DWORD PTR [eax-8]
  000a5	7f 14		 jg	 SHORT $L273372
  000a7	89 70 f4	 mov	 DWORD PTR [eax-12], esi
  000aa	8b 0b		 mov	 ecx, DWORD PTR [ebx]
  000ac	5f		 pop	 edi
  000ad	c6 04 0e 00	 mov	 BYTE PTR [esi+ecx], 0
  000b1	5e		 pop	 esi

; 1992 : 
; 1993 : 		return( TRUE );

  000b2	b8 01 00 00 00	 mov	 eax, 1
  000b7	5b		 pop	 ebx

; 1994 : 	}

  000b8	c2 08 00	 ret	 8
$L273372:
  000bb	68 57 00 07 80	 push	 -2147024809		; 80070057H
  000c0	e8 00 00 00 00	 call	 ?AtlThrow@ATL@@YGXJ@Z	; ATL::AtlThrow
$L273381:
$L273380:
  000c5	cc		 int	 3
?LoadStringA@?$CStringT@DV?$StrTraitMFC@DV?$ChTraitsCRT@D@ATL@@@@@ATL@@QAEHPAUHINSTANCE__@@I@Z ENDP ; ATL::CStringT<char,StrTraitMFC<char,ATL::ChTraitsCRT<char> > >::LoadStringA
_TEXT	ENDS
PUBLIC	?SetString@?$CSimpleStringT@D$0A@@ATL@@QAEXPBDH@Z ; ATL::CSimpleStringT<char,0>::SetString
; Function compile flags: /Ogty
; File c:\program files\microsoft visual studio .net 2003\vc7\atlmfc\include\atlsimpstr.h
;	COMDAT ?SetString@?$CSimpleStringT@D$0A@@ATL@@QAEXPBDH@Z
_TEXT	SEGMENT
_pszSrc$ = 8						; size = 4
_nLength$ = 12						; size = 4
?SetString@?$CSimpleStringT@D$0A@@ATL@@QAEXPBDH@Z PROC NEAR ; ATL::CSimpleStringT<char,0>::SetString, COMDAT
; _this$ = ecx

; 583  : 	{

  00000	53		 push	 ebx

; 584  : 		if( nLength == 0 )

  00001	8b 5c 24 0c	 mov	 ebx, DWORD PTR _nLength$[esp]
  00005	85 db		 test	 ebx, ebx
  00007	55		 push	 ebp
  00008	8b e9		 mov	 ebp, ecx
  0000a	75 0a		 jne	 SHORT $L221330

; 585  : 		{
; 586  : 			Empty();

  0000c	e8 00 00 00 00	 call	 ?Empty@?$CSimpleStringT@D$0A@@ATL@@QAEXXZ ; ATL::CSimpleStringT<char,0>::Empty
  00011	5d		 pop	 ebp
  00012	5b		 pop	 ebx

; 614  : 		}
; 615  : 	}

  00013	c2 08 00	 ret	 8
$L221330:

; 587  : 		}
; 588  : 		else
; 589  : 		{
; 590  : 			// It is possible that pszSrc points to a location inside of our 
; 591  : 			// buffer.  GetBuffer() might change m_pszData if (1) the buffer 
; 592  : 			// is shared or (2) the buffer is too small to hold the new 
; 593  : 			// string.  We detect this aliasing, and modify pszSrc to point
; 594  : 			// into the newly allocated buffer instead.
; 595  : 			
; 596  : 			if(pszSrc == NULL)

  00016	8b 54 24 0c	 mov	 edx, DWORD PTR _pszSrc$[esp+4]
  0001a	85 d2		 test	 edx, edx
  0001c	75 0a		 jne	 SHORT $L221332

; 612  : 			}
; 613  : 			ReleaseBufferSetLength( nLength );

$L273453:
  0001e	68 57 00 07 80	 push	 -2147024809		; 80070057H
  00023	e8 00 00 00 00	 call	 ?AtlThrow@ATL@@YGXJ@Z	; ATL::AtlThrow
$L273457:
$L221332:

; 597  : 				AtlThrow(E_INVALIDARG);			
; 598  : 				
; 599  : 			UINT nOldLength = GetLength();

  00028	8b 45 00	 mov	 eax, DWORD PTR [ebp]
  0002b	56		 push	 esi

; 600  : 			UINT_PTR nOffset = pszSrc-GetString();

  0002c	8b f2		 mov	 esi, edx
  0002e	2b f0		 sub	 esi, eax

; 601  : 			// If 0 <= nOffset <= nOldLength, then pszSrc points into our 
; 602  : 			// buffer
; 603  : 
; 604  : 			PXSTR pszBuffer = GetBuffer( nLength );

  00030	b9 01 00 00 00	 mov	 ecx, 1
  00035	2b 48 fc	 sub	 ecx, DWORD PTR [eax-4]
  00038	57		 push	 edi
  00039	8b 78 f4	 mov	 edi, DWORD PTR [eax-12]
  0003c	8b 40 f8	 mov	 eax, DWORD PTR [eax-8]
  0003f	2b c3		 sub	 eax, ebx
  00041	0b c8		 or	 ecx, eax
  00043	7d 0c		 jge	 SHORT $L273421
  00045	53		 push	 ebx
  00046	8b cd		 mov	 ecx, ebp
  00048	e8 00 00 00 00	 call	 ?PrepareWrite2@?$CSimpleStringT@D$0A@@ATL@@AAEXH@Z ; ATL::CSimpleStringT<char,0>::PrepareWrite2
  0004d	8b 54 24 14	 mov	 edx, DWORD PTR _pszSrc$[esp+12]
$L273421:

; 605  : 			if( nOffset <= nOldLength )

  00051	3b f7		 cmp	 esi, edi
  00053	8b 45 00	 mov	 eax, DWORD PTR [ebp]
  00056	77 10		 ja	 SHORT $L221337

; 606  : 			{
; 607  : 				CopyCharsOverlapped( pszBuffer, pszBuffer+nOffset, nLength );

  00058	53		 push	 ebx
  00059	8d 0c 30	 lea	 ecx, DWORD PTR [eax+esi]
  0005c	51		 push	 ecx
  0005d	50		 push	 eax
  0005e	e8 00 00 00 00	 call	 _memmove
  00063	83 c4 0c	 add	 esp, 12			; 0000000cH

; 608  : 			}
; 609  : 			else

  00066	eb 14		 jmp	 SHORT $L273427
$L221337:

; 610  : 			{
; 611  : 				CopyChars( pszBuffer, pszSrc, nLength );

  00068	8b cb		 mov	 ecx, ebx
  0006a	8b f2		 mov	 esi, edx
  0006c	8b d1		 mov	 edx, ecx
  0006e	c1 e9 02	 shr	 ecx, 2
  00071	8b f8		 mov	 edi, eax
  00073	f3 a5		 rep movsd
  00075	8b ca		 mov	 ecx, edx
  00077	83 e1 03	 and	 ecx, 3
  0007a	f3 a4		 rep movsb
$L273427:

; 612  : 			}
; 613  : 			ReleaseBufferSetLength( nLength );

  0007c	85 db		 test	 ebx, ebx
  0007e	5f		 pop	 edi
  0007f	5e		 pop	 esi
  00080	7c 9c		 jl	 SHORT $L273453
  00082	8b 45 00	 mov	 eax, DWORD PTR [ebp]
  00085	3b 58 f8	 cmp	 ebx, DWORD PTR [eax-8]
  00088	7f 94		 jg	 SHORT $L273453
  0008a	89 58 f4	 mov	 DWORD PTR [eax-12], ebx
  0008d	8b 45 00	 mov	 eax, DWORD PTR [ebp]
  00090	5d		 pop	 ebp
  00091	c6 04 03 00	 mov	 BYTE PTR [ebx+eax], 0
  00095	5b		 pop	 ebx

; 614  : 		}
; 615  : 	}

  00096	c2 08 00	 ret	 8
$L273456:
?SetString@?$CSimpleStringT@D$0A@@ATL@@QAEXPBDH@Z ENDP	; ATL::CSimpleStringT<char,0>::SetString
_TEXT	ENDS
PUBLIC	?LoadStringA@?$CStringT@DV?$StrTraitMFC@DV?$ChTraitsCRT@D@ATL@@@@@ATL@@QAEHI@Z ; ATL::CStringT<char,StrTraitMFC<char,ATL::ChTraitsCRT<char> > >::LoadStringA
; Function compile flags: /Ogty
; File c:\program files\microsoft visual studio .net 2003\vc7\atlmfc\include\cstringt.h
;	COMDAT ?LoadStringA@?$CStringT@DV?$StrTraitMFC@DV?$ChTraitsCRT@D@ATL@@@@@ATL@@QAEHI@Z
_TEXT	SEGMENT
_nID$ = 8						; size = 4
?LoadStringA@?$CStringT@DV?$StrTraitMFC@DV?$ChTraitsCRT@D@ATL@@@@@ATL@@QAEHI@Z PROC NEAR ; ATL::CStringT<char,StrTraitMFC<char,ATL::ChTraitsCRT<char> > >::LoadStringA, COMDAT
; _this$ = ecx

; 1969 : 	{

  00000	56		 push	 esi
  00001	57		 push	 edi

; 1970 : 		HINSTANCE hInst = StringTraits::FindStringResourceInstance( nID );

  00002	8b 7c 24 0c	 mov	 edi, DWORD PTR _nID$[esp+4]
  00006	57		 push	 edi
  00007	8b f1		 mov	 esi, ecx
  00009	e8 00 00 00 00	 call	 ?AfxFindStringResourceHandle@@YGPAUHINSTANCE__@@I@Z ; AfxFindStringResourceHandle

; 1971 : 		if( hInst == NULL )

  0000e	85 c0		 test	 eax, eax
  00010	75 05		 jne	 SHORT $L218601
  00012	5f		 pop	 edi
  00013	5e		 pop	 esi

; 1977 : 	}

  00014	c2 04 00	 ret	 4
$L218601:

; 1972 : 		{
; 1973 : 			return( FALSE );
; 1974 : 		}
; 1975 : 
; 1976 : 		return( LoadString( hInst, nID ) );		

  00017	57		 push	 edi
  00018	50		 push	 eax
  00019	8b ce		 mov	 ecx, esi
  0001b	e8 00 00 00 00	 call	 ?LoadStringA@?$CStringT@DV?$StrTraitMFC@DV?$ChTraitsCRT@D@ATL@@@@@ATL@@QAEHPAUHINSTANCE__@@I@Z ; ATL::CStringT<char,StrTraitMFC<char,ATL::ChTraitsCRT<char> > >::LoadStringA
  00020	5f		 pop	 edi
  00021	5e		 pop	 esi

; 1977 : 	}

  00022	c2 04 00	 ret	 4
?LoadStringA@?$CStringT@DV?$StrTraitMFC@DV?$ChTraitsCRT@D@ATL@@@@@ATL@@QAEHI@Z ENDP ; ATL::CStringT<char,StrTraitMFC<char,ATL::ChTraitsCRT<char> > >::LoadStringA
_TEXT	ENDS
PUBLIC	?CheckImplicitLoad@?$CStringT@DV?$StrTraitMFC@DV?$ChTraitsCRT@D@ATL@@@@@ATL@@AAE_NPBX@Z ; ATL::CStringT<char,StrTraitMFC<char,ATL::ChTraitsCRT<char> > >::CheckImplicitLoad
; Function compile flags: /Ogty
;	COMDAT ?CheckImplicitLoad@?$CStringT@DV?$StrTraitMFC@DV?$ChTraitsCRT@D@ATL@@@@@ATL@@AAE_NPBX@Z
_TEXT	SEGMENT
_pv$ = 8						; size = 4
?CheckImplicitLoad@?$CStringT@DV?$StrTraitMFC@DV?$ChTraitsCRT@D@ATL@@@@@ATL@@AAE_NPBX@Z PROC NEAR ; ATL::CStringT<char,StrTraitMFC<char,ATL::ChTraitsCRT<char> > >::CheckImplicitLoad, COMDAT
; _this$ = ecx

; 2229 : 	{

  00000	57		 push	 edi
  00001	8b f9		 mov	 edi, ecx

; 2230 : 		bool bRet = false;
; 2231 : 
; 2232 : 		if( (pv != NULL) && IS_INTRESOURCE( pv ) )

  00003	8b 4c 24 08	 mov	 ecx, DWORD PTR _pv$[esp]
  00007	32 c0		 xor	 al, al
  00009	85 c9		 test	 ecx, ecx
  0000b	74 22		 je	 SHORT $L219935
  0000d	f7 c1 00 00 ff
	ff		 test	 ecx, -65536		; ffff0000H
  00013	75 1a		 jne	 SHORT $L219935
  00015	56		 push	 esi

; 2233 : 		{
; 2234 : 			UINT nID = LOWORD( reinterpret_cast< DWORD_PTR >( pv ) );

  00016	0f b7 f1	 movzx	 esi, cx

; 2235 : 			if( !LoadString( nID ) )

  00019	56		 push	 esi
  0001a	e8 00 00 00 00	 call	 ?AfxFindStringResourceHandle@@YGPAUHINSTANCE__@@I@Z ; AfxFindStringResourceHandle
  0001f	85 c0		 test	 eax, eax
  00021	74 09		 je	 SHORT $L273474
  00023	56		 push	 esi
  00024	50		 push	 eax
  00025	8b cf		 mov	 ecx, edi
  00027	e8 00 00 00 00	 call	 ?LoadStringA@?$CStringT@DV?$StrTraitMFC@DV?$ChTraitsCRT@D@ATL@@@@@ATL@@QAEHPAUHINSTANCE__@@I@Z ; ATL::CStringT<char,StrTraitMFC<char,ATL::ChTraitsCRT<char> > >::LoadStringA
$L273474:

; 2236 : 			{
; 2237 : 				ATLTRACE( atlTraceString, 2, _T( "Warning: implicit LoadString(%u) failed\n" ), nID );
; 2238 : 			}
; 2239 : 			bRet = true;

  0002c	b0 01		 mov	 al, 1
  0002e	5e		 pop	 esi
$L219935:
  0002f	5f		 pop	 edi

; 2240 : 		}
; 2241 : 
; 2242 : 		return( bRet );
; 2243 : 	}

  00030	c2 04 00	 ret	 4
?CheckImplicitLoad@?$CStringT@DV?$StrTraitMFC@DV?$ChTraitsCRT@D@ATL@@@@@ATL@@AAE_NPBX@Z ENDP ; ATL::CStringT<char,StrTraitMFC<char,ATL::ChTraitsCRT<char> > >::CheckImplicitLoad
_TEXT	ENDS
PUBLIC	?SetString@?$CSimpleStringT@D$0A@@ATL@@QAEXPBD@Z ; ATL::CSimpleStringT<char,0>::SetString
; Function compile flags: /Ogty
; File c:\program files\microsoft visual studio .net 2003\vc7\atlmfc\include\atlsimpstr.h
;	COMDAT ?SetString@?$CSimpleStringT@D$0A@@ATL@@QAEXPBD@Z
_TEXT	SEGMENT
_pszSrc$ = 8						; size = 4
?SetString@?$CSimpleStringT@D$0A@@ATL@@QAEXPBD@Z PROC NEAR ; ATL::CSimpleStringT<char,0>::SetString, COMDAT
; _this$ = ecx

; 579  : 	{

  00000	56		 push	 esi

; 580  : 		SetString( pszSrc, StringLength( pszSrc ) );

  00001	8b 74 24 08	 mov	 esi, DWORD PTR _pszSrc$[esp]
  00005	85 f6		 test	 esi, esi
  00007	75 0d		 jne	 SHORT $L273486
  00009	33 c0		 xor	 eax, eax
  0000b	50		 push	 eax
  0000c	56		 push	 esi
  0000d	e8 00 00 00 00	 call	 ?SetString@?$CSimpleStringT@D$0A@@ATL@@QAEXPBDH@Z ; ATL::CSimpleStringT<char,0>::SetString
  00012	5e		 pop	 esi

; 581  : 	}

  00013	c2 04 00	 ret	 4

; 580  : 		SetString( pszSrc, StringLength( pszSrc ) );

$L273486:
  00016	8b c6		 mov	 eax, esi
  00018	57		 push	 edi
  00019	8d 78 01	 lea	 edi, DWORD PTR [eax+1]
  0001c	8d 64 24 00	 npad	 4
$L273488:
  00020	8a 10		 mov	 dl, BYTE PTR [eax]
  00022	40		 inc	 eax
  00023	84 d2		 test	 dl, dl
  00025	75 f9		 jne	 SHORT $L273488
  00027	2b c7		 sub	 eax, edi
  00029	5f		 pop	 edi
  0002a	50		 push	 eax
  0002b	56		 push	 esi
  0002c	e8 00 00 00 00	 call	 ?SetString@?$CSimpleStringT@D$0A@@ATL@@QAEXPBDH@Z ; ATL::CSimpleStringT<char,0>::SetString
  00031	5e		 pop	 esi

; 581  : 	}

  00032	c2 04 00	 ret	 4
?SetString@?$CSimpleStringT@D$0A@@ATL@@QAEXPBD@Z ENDP	; ATL::CSimpleStringT<char,0>::SetString
_TEXT	ENDS
PUBLIC	??4?$CSimpleStringT@D$0A@@ATL@@QAEAAV01@PBD@Z	; ATL::CSimpleStringT<char,0>::operator=
; Function compile flags: /Ogty
;	COMDAT ??4?$CSimpleStringT@D$0A@@ATL@@QAEAAV01@PBD@Z
_TEXT	SEGMENT
_pszSrc$ = 8						; size = 4
??4?$CSimpleStringT@D$0A@@ATL@@QAEAAV01@PBD@Z PROC NEAR	; ATL::CSimpleStringT<char,0>::operator=, COMDAT
; _this$ = ecx

; 316  : 		SetString( pszSrc );

  00000	8b 54 24 04	 mov	 edx, DWORD PTR _pszSrc$[esp-4]
  00004	85 d2		 test	 edx, edx
  00006	57		 push	 edi
  00007	8b f9		 mov	 edi, ecx
  00009	75 0f		 jne	 SHORT $L273501
  0000b	33 c0		 xor	 eax, eax
  0000d	50		 push	 eax
  0000e	52		 push	 edx
  0000f	e8 00 00 00 00	 call	 ?SetString@?$CSimpleStringT@D$0A@@ATL@@QAEXPBDH@Z ; ATL::CSimpleStringT<char,0>::SetString

; 317  : 
; 318  : 		return( *this );

  00014	8b c7		 mov	 eax, edi
  00016	5f		 pop	 edi

; 319  : 	}

  00017	c2 04 00	 ret	 4

; 316  : 		SetString( pszSrc );

$L273501:
  0001a	8b c2		 mov	 eax, edx
  0001c	56		 push	 esi
  0001d	8d 70 01	 lea	 esi, DWORD PTR [eax+1]
$L273503:
  00020	8a 08		 mov	 cl, BYTE PTR [eax]
  00022	40		 inc	 eax
  00023	84 c9		 test	 cl, cl
  00025	75 f9		 jne	 SHORT $L273503
  00027	2b c6		 sub	 eax, esi
  00029	5e		 pop	 esi
  0002a	50		 push	 eax
  0002b	52		 push	 edx
  0002c	8b cf		 mov	 ecx, edi
  0002e	e8 00 00 00 00	 call	 ?SetString@?$CSimpleStringT@D$0A@@ATL@@QAEXPBDH@Z ; ATL::CSimpleStringT<char,0>::SetString

; 317  : 
; 318  : 		return( *this );

  00033	8b c7		 mov	 eax, edi
  00035	5f		 pop	 edi

; 319  : 	}

  00036	c2 04 00	 ret	 4
??4?$CSimpleStringT@D$0A@@ATL@@QAEAAV01@PBD@Z ENDP	; ATL::CSimpleStringT<char,0>::operator=
_TEXT	ENDS
PUBLIC	??4?$CStringT@DV?$StrTraitMFC@DV?$ChTraitsCRT@D@ATL@@@@@ATL@@QAEAAV01@PBD@Z ; ATL::CStringT<char,StrTraitMFC<char,ATL::ChTraitsCRT<char> > >::operator=
; Function compile flags: /Ogty
; File c:\program files\microsoft visual studio .net 2003\vc7\atlmfc\include\cstringt.h
;	COMDAT ??4?$CStringT@DV?$StrTraitMFC@DV?$ChTraitsCRT@D@ATL@@@@@ATL@@QAEAAV01@PBD@Z
_TEXT	SEGMENT
_pszSrc$ = 8						; size = 4
??4?$CStringT@DV?$StrTraitMFC@DV?$ChTraitsCRT@D@ATL@@@@@ATL@@QAEAAV01@PBD@Z PROC NEAR ; ATL::CStringT<char,StrTraitMFC<char,ATL::ChTraitsCRT<char> > >::operator=, COMDAT
; _this$ = ecx

; 983  : 		CThisSimpleString::operator=( pszSrc );

  00000	8b 54 24 04	 mov	 edx, DWORD PTR _pszSrc$[esp-4]
  00004	85 d2		 test	 edx, edx
  00006	57		 push	 edi
  00007	8b f9		 mov	 edi, ecx
  00009	75 0f		 jne	 SHORT $L273523
  0000b	33 c0		 xor	 eax, eax
  0000d	50		 push	 eax
  0000e	52		 push	 edx
  0000f	e8 00 00 00 00	 call	 ?SetString@?$CSimpleStringT@D$0A@@ATL@@QAEXPBDH@Z ; ATL::CSimpleStringT<char,0>::SetString

; 984  : 
; 985  : 		return( *this );

  00014	8b c7		 mov	 eax, edi
  00016	5f		 pop	 edi

; 986  : 	}

  00017	c2 04 00	 ret	 4

; 983  : 		CThisSimpleString::operator=( pszSrc );

$L273523:
  0001a	8b c2		 mov	 eax, edx
  0001c	56		 push	 esi
  0001d	8d 70 01	 lea	 esi, DWORD PTR [eax+1]
$L273526:
  00020	8a 08		 mov	 cl, BYTE PTR [eax]
  00022	40		 inc	 eax
  00023	84 c9		 test	 cl, cl
  00025	75 f9		 jne	 SHORT $L273526
  00027	2b c6		 sub	 eax, esi
  00029	5e		 pop	 esi
  0002a	50		 push	 eax
  0002b	52		 push	 edx
  0002c	8b cf		 mov	 ecx, edi
  0002e	e8 00 00 00 00	 call	 ?SetString@?$CSimpleStringT@D$0A@@ATL@@QAEXPBDH@Z ; ATL::CSimpleStringT<char,0>::SetString

; 984  : 
; 985  : 		return( *this );

  00033	8b c7		 mov	 eax, edi
  00035	5f		 pop	 edi

; 986  : 	}

  00036	c2 04 00	 ret	 4
??4?$CStringT@DV?$StrTraitMFC@DV?$ChTraitsCRT@D@ATL@@@@@ATL@@QAEAAV01@PBD@Z ENDP ; ATL::CStringT<char,StrTraitMFC<char,ATL::ChTraitsCRT<char> > >::operator=
_TEXT	ENDS
PUBLIC	??0?$CStringT@DV?$StrTraitMFC@DV?$ChTraitsCRT@D@ATL@@@@@ATL@@QAE@PBD@Z ; ATL::CStringT<char,StrTraitMFC<char,ATL::ChTraitsCRT<char> > >::CStringT<char,StrTraitMFC<char,ATL::ChTraitsCRT<char> > >
EXTRN	__except_list:DWORD
EXTRN	___CxxFrameHandler:NEAR
;	COMDAT xdata$x
; File c:\program files\microsoft visual studio .net 2003\vc7\atlmfc\include\atlsimpstr.h
xdata$x	SEGMENT
$T273614 DD	0ffffffffH
	DD	FLAT:$L273530
$T273607 DD	019930520H
	DD	01H
	DD	FLAT:$T273614
	DD	2 DUP(00H)
	DD	2 DUP(00H)
; Function compile flags: /Ogty
; File c:\program files\microsoft visual studio .net 2003\vc7\atlmfc\include\cstringt.h
xdata$x	ENDS
;	COMDAT ??0?$CStringT@DV?$StrTraitMFC@DV?$ChTraitsCRT@D@ATL@@@@@ATL@@QAE@PBD@Z
_TEXT	SEGMENT
_this$ = -16						; size = 4
__$EHRec$ = -12						; size = 12
_pszSrc$ = 8						; size = 4
??0?$CStringT@DV?$StrTraitMFC@DV?$ChTraitsCRT@D@ATL@@@@@ATL@@QAE@PBD@Z PROC NEAR ; ATL::CStringT<char,StrTraitMFC<char,ATL::ChTraitsCRT<char> > >::CStringT<char,StrTraitMFC<char,ATL::ChTraitsCRT<char> > >, COMDAT
; _this$ = ecx

; 830  : 	{

  00000	6a ff		 push	 -1
  00002	68 00 00 00 00	 push	 __ehhandler$??0?$CStringT@DV?$StrTraitMFC@DV?$ChTraitsCRT@D@ATL@@@@@ATL@@QAE@PBD@Z
  00007	64 a1 00 00 00
	00		 mov	 eax, DWORD PTR fs:__except_list
  0000d	50		 push	 eax
  0000e	64 89 25 00 00
	00 00		 mov	 DWORD PTR fs:__except_list, esp
  00015	51		 push	 ecx
  00016	56		 push	 esi
  00017	8b f1		 mov	 esi, ecx
  00019	57		 push	 edi
  0001a	89 74 24 08	 mov	 DWORD PTR _this$[esp+24], esi
  0001e	e8 00 00 00 00	 call	 ?AfxGetStringManager@@YGPAUIAtlStringMgr@ATL@@XZ ; AfxGetStringManager
  00023	8b 10		 mov	 edx, DWORD PTR [eax]
  00025	8b c8		 mov	 ecx, eax
  00027	ff 52 0c	 call	 DWORD PTR [edx+12]
  0002a	83 c0 10	 add	 eax, 16			; 00000010H
  0002d	89 06		 mov	 DWORD PTR [esi], eax

; 831  : 		if( !CheckImplicitLoad( pszSrc ) )

  0002f	8b 54 24 1c	 mov	 edx, DWORD PTR _pszSrc$[esp+20]
  00033	85 d2		 test	 edx, edx
  00035	c7 44 24 14 00
	00 00 00	 mov	 DWORD PTR __$EHRec$[esp+32], 0
  0003d	74 33		 je	 SHORT $L273609
  0003f	f7 c2 00 00 ff
	ff		 test	 edx, -65536		; ffff0000H
  00045	75 2f		 jne	 SHORT $L273601
  00047	0f b7 fa	 movzx	 edi, dx
  0004a	57		 push	 edi
  0004b	e8 00 00 00 00	 call	 ?AfxFindStringResourceHandle@@YGPAUHINSTANCE__@@I@Z ; AfxFindStringResourceHandle
  00050	85 c0		 test	 eax, eax
  00052	74 3e		 je	 SHORT $L273611
  00054	57		 push	 edi
  00055	50		 push	 eax
  00056	8b ce		 mov	 ecx, esi
  00058	e8 00 00 00 00	 call	 ?LoadStringA@?$CStringT@DV?$StrTraitMFC@DV?$ChTraitsCRT@D@ATL@@@@@ATL@@QAEHPAUHINSTANCE__@@I@Z ; ATL::CStringT<char,StrTraitMFC<char,ATL::ChTraitsCRT<char> > >::LoadStringA
  0005d	5f		 pop	 edi

; 835  : 		}
; 836  : 	}

  0005e	8b c6		 mov	 eax, esi
  00060	5e		 pop	 esi
  00061	8b 4c 24 04	 mov	 ecx, DWORD PTR __$EHRec$[esp+16]
  00065	64 89 0d 00 00
	00 00		 mov	 DWORD PTR fs:__except_list, ecx
  0006c	83 c4 10	 add	 esp, 16			; 00000010H
  0006f	c2 04 00	 ret	 4
$L273609:

; 832  : 		{
; 833  : 			// nDestLength is in XCHARs
; 834  : 			*this = pszSrc;

  00072	33 c0		 xor	 eax, eax
  00074	eb 13		 jmp	 SHORT $L273600
$L273601:
  00076	8b c2		 mov	 eax, edx
  00078	8d 78 01	 lea	 edi, DWORD PTR [eax+1]
  0007b	eb 03 8d 49 00	 npad	 5
$L273610:
  00080	8a 08		 mov	 cl, BYTE PTR [eax]
  00082	40		 inc	 eax
  00083	84 c9		 test	 cl, cl
  00085	75 f9		 jne	 SHORT $L273610
  00087	2b c7		 sub	 eax, edi
$L273600:
  00089	50		 push	 eax
  0008a	52		 push	 edx
  0008b	8b ce		 mov	 ecx, esi
  0008d	e8 00 00 00 00	 call	 ?SetString@?$CSimpleStringT@D$0A@@ATL@@QAEXPBDH@Z ; ATL::CSimpleStringT<char,0>::SetString
$L273611:

; 835  : 		}
; 836  : 	}

  00092	8b 4c 24 0c	 mov	 ecx, DWORD PTR __$EHRec$[esp+24]
  00096	5f		 pop	 edi
  00097	8b c6		 mov	 eax, esi
  00099	5e		 pop	 esi
  0009a	64 89 0d 00 00
	00 00		 mov	 DWORD PTR fs:__except_list, ecx
  000a1	83 c4 10	 add	 esp, 16			; 00000010H
  000a4	c2 04 00	 ret	 4
_TEXT	ENDS
;	COMDAT text$x
text$x	SEGMENT
$L273530:
  00000	8b 4d f0	 mov	 ecx, DWORD PTR _this$[ebp]
  00003	e9 00 00 00 00	 jmp	 ??1?$CSimpleStringT@D$0A@@ATL@@QAE@XZ ; ATL::CSimpleStringT<char,0>::~CSimpleStringT<char,0>
__ehhandler$??0?$CStringT@DV?$StrTraitMFC@DV?$ChTraitsCRT@D@ATL@@@@@ATL@@QAE@PBD@Z:
  00008	b8 00 00 00 00	 mov	 eax, OFFSET FLAT:$T273607
  0000d	e9 00 00 00 00	 jmp	 ___CxxFrameHandler
text$x	ENDS
??0?$CStringT@DV?$StrTraitMFC@DV?$ChTraitsCRT@D@ATL@@@@@ATL@@QAE@PBD@Z ENDP ; ATL::CStringT<char,StrTraitMFC<char,ATL::ChTraitsCRT<char> > >::CStringT<char,StrTraitMFC<char,ATL::ChTraitsCRT<char> > >
PUBLIC	?ProcessActMsg1@CActionMover@@QAEHPAVCMover@@W4OBJMSG@@HHHHH@Z ; CActionMover::ProcessActMsg1
PUBLIC	__real@428551ec
PUBLIC	__real@4f800000
PUBLIC	??_C@_05PJLLPND@stand?$AA@			; `string'
EXTRN	?DoDamageFly@CActionMover@@QAEXMMM@Z:NEAR	; CActionMover::DoDamageFly
EXTRN	?IsSteal@CMover@@QAEHPAV1@@Z:NEAR		; CMover::IsSteal
EXTRN	?_ProcessMsgDmg@CActionMover@@QAEKKPAVCMover@@KHHH@Z:NEAR ; CActionMover::_ProcessMsgDmg
EXTRN	?GetHeightAttribute@CWorld@@QAEHMM@Z:NEAR	; CWorld::GetHeightAttribute
EXTRN	?ClearDuel@CMover@@QAEXXZ:NEAR			; CMover::ClearDuel
EXTRN	?PostAIMsg@CMover@@QAEXKKKK@Z:NEAR		; CMover::PostAIMsg
EXTRN	?SetAngleX@CObj@@QAEXM@Z:NEAR			; CObj::SetAngleX
EXTRN	?GetWeaponItem@CMover@@QAEPAVCItemElem@@H@Z:NEAR ; CMover::GetWeaponItem
EXTRN	?SetAngle@CObj@@QAEXM@Z:NEAR			; CObj::SetAngle
EXTRN	__imp__GetTickCount@0:NEAR
EXTRN	?g_PartyMng@@3VCPartyMng@@A:BYTE		; g_PartyMng
EXTRN	?g_UserMng@@3VCUserMng@@A:BYTE			; g_UserMng
EXTRN	?GetMover@CProject@@QAEPAVCMover@@K@Z:NEAR	; CProject::GetMover
EXTRN	?GetInstance@CCreateMonster@@SAPAV1@XZ:NEAR	; CCreateMonster::GetInstance
EXTRN	?AddSetDuel@CUser@@QAEXPAVCMover@@@Z:NEAR	; CUser::AddSetDuel
EXTRN	?IsAttackAble@CCreateMonster@@QAEHPAVCUser@@PAVCMover@@H@Z:NEAR ; CCreateMonster::IsAttackAble
EXTRN	?GetAttackSpeed@CMover@@QAEMXZ:NEAR		; CMover::GetAttackSpeed
EXTRN	?GetMotionFileName@CModelObject@@QBE?AV?$CStringT@DV?$StrTraitMFC@DV?$ChTraitsCRT@D@ATL@@@@@ATL@@ABV23@@Z:NEAR ; CModelObject::GetMotionFileName
EXTRN	?SetMotionBlending@CModelObject@@QAEXH@Z:NEAR	; CModelObject::SetMotionBlending
EXTRN	?CanFlyByAttack@CMover@@QAEHXZ:NEAR		; CMover::CanFlyByAttack
EXTRN	?GetAttackResult@CMover@@QAEHPAV1@K@Z:NEAR	; CMover::GetAttackResult
EXTRN	?LoadMotion@CModelObject@@QAEHPBD@Z:NEAR	; CModelObject::LoadMotion
EXTRN	?GetState@CFlyffEvent@@QAEEH@Z:NEAR		; CFlyffEvent::GetState
EXTRN	?g_eLocal@@3VCFlyffEvent@@A:BYTE		; g_eLocal
EXTRN	?GetParty@CPartyMng@@QAEPAVCParty@@K@Z:NEAR	; CPartyMng::GetParty
EXTRN	__ftol2:NEAR
EXTRN	?RemoveStateFlag@CAction@@QAEXK@Z:NEAR		; CAction::RemoveStateFlag
EXTRN	?ClearState@CAction@@QAEXXZ:NEAR		; CAction::ClearState
EXTRN	?SetJJim@CMover@@QAEXPAV1@@Z:NEAR		; CMover::SetJJim
EXTRN	?LoadModel@CModelMng@@QAEPAVCModel@@PAUIDirect3DDevice9@@HHH@Z:NEAR ; CModelMng::LoadModel
EXTRN	?GetUserByPlayerID@CUserMng@@QAEPAVCUser@@K@Z:NEAR ; CUserMng::GetUserByPlayerID
EXTRN	?OnActFMove@CMover@@QAEXXZ:NEAR			; CMover::OnActFMove
EXTRN	?OnAttackStart@CMover@@QAEXPAV1@W4OBJMSG@@@Z:NEAR ; CMover::OnAttackStart
;	COMDAT xdata$x
; File c:\documents and settings\test\mes documents\source\virtuos_v17\build\program\_aiinterface\action.h
xdata$x	SEGMENT
$T274279 DD	0ffffffffH
	DD	FLAT:$L273628
	DD	00H
	DD	FLAT:$L273629
	DD	0ffffffffH
	DD	FLAT:$L273629
$T274247 DD	019930520H
	DD	03H
	DD	FLAT:$T274279
	DD	2 DUP(00H)
	DD	2 DUP(00H)
xdata$x	ENDS
;	COMDAT __real@428551ec
CONST	SEGMENT
__real@428551ec DD 0428551ecr			; 66.66
CONST	ENDS
;	COMDAT __real@4f800000
CONST	SEGMENT
__real@4f800000 DD 04f800000r			; 4.29497e+009
CONST	ENDS
;	COMDAT ??_C@_05PJLLPND@stand?$AA@
CONST	SEGMENT
??_C@_05PJLLPND@stand?$AA@ DB 'stand', 00H		; `string'
; Function compile flags: /Ogty
; File c:\documents and settings\test\mes documents\source\virtuos_v17\build\program\_aiinterface\actionmovermsg.cpp
CONST	ENDS
;	COMDAT ?ProcessActMsg1@CActionMover@@QAEHPAVCMover@@W4OBJMSG@@HHHHH@Z
_TEXT	SEGMENT
$T273621 = -84						; size = 12
$T273622 = -72						; size = 12
$T273623 = -60						; size = 12
$T273624 = -48						; size = 12
$T273626 = -36						; size = 12
$T273625 = -24						; size = 12
__$EHRec$ = -12						; size = 12
$T273627 = 8						; size = 4
_pMover$ = 8						; size = 4
tv3203 = 12						; size = 4
tv3176 = 12						; size = 4
_dwMsg$ = 12						; size = 4
_strMotion$267165 = 16					; size = 4
_nParam1$ = 16						; size = 4
tv2652 = 20						; size = 4
_pHitObj$267044 = 20					; size = 4
_nParam2$ = 20						; size = 4
tv2626 = 24						; size = 4
_i$267099 = 24						; size = 4
_i$267090 = 24						; size = 4
_nParam3$ = 24						; size = 4
_nParam4$ = 28						; size = 4
_nParam5$ = 32						; size = 4
?ProcessActMsg1@CActionMover@@QAEHPAVCMover@@W4OBJMSG@@HHHHH@Z PROC NEAR ; CActionMover::ProcessActMsg1, COMDAT
; _this$ = ecx

; 102  : {

  00000	6a ff		 push	 -1
  00002	64 a1 00 00 00
	00		 mov	 eax, DWORD PTR fs:__except_list
  00008	68 00 00 00 00	 push	 __ehhandler$?ProcessActMsg1@CActionMover@@QAEHPAVCMover@@W4OBJMSG@@HHHHH@Z
  0000d	50		 push	 eax
  0000e	64 89 25 00 00
	00 00		 mov	 DWORD PTR fs:__except_list, esp
  00015	83 ec 48	 sub	 esp, 72			; 00000048H
  00018	53		 push	 ebx
  00019	55		 push	 ebp

; 103  : 	CModelObject* pModel = (CModelObject*)pMover->m_pModel;
; 104  : 
; 105  : 	switch( dwMsg )

  0001a	8b 6c 24 64	 mov	 ebp, DWORD PTR _dwMsg$[esp+88]
  0001e	56		 push	 esi
  0001f	57		 push	 edi
  00020	8b 7c 24 68	 mov	 edi, DWORD PTR _pMover$[esp+96]
  00024	8b 9f 78 01 00
	00		 mov	 ebx, DWORD PTR [edi+376]
  0002a	8d 45 ff	 lea	 eax, DWORD PTR [ebp-1]
  0002d	83 f8 38	 cmp	 eax, 56			; 00000038H
  00030	8b f1		 mov	 esi, ecx
  00032	0f 87 b8 18 00
	00		 ja	 $L266767
  00038	0f b6 80 00 00
	00 00		 movzx	 eax, BYTE PTR $L274252[eax]
  0003f	ff 24 85 00 00
	00 00		 jmp	 DWORD PTR $L274277[eax*4]
$L266770:

; 106  : 	{
; 107  : 	//   !
; 108  : 	case OBJMSG_STAND:
; 109  : #ifdef __Y_INTERFACE_VER3
; 110  : 		if( (GetMoveState() == OBJSTA_FMOVE) || (GetMoveState() == OBJSTA_BMOVE) || (GetMoveState() == OBJSTA_LMOVE) || (GetMoveState() == OBJSTA_RMOVE) )	// /  .

  00046	8b 46 04	 mov	 eax, DWORD PTR [esi+4]
  00049	25 ff 00 00 00	 and	 eax, 255		; 000000ffH
  0004e	83 f8 04	 cmp	 eax, 4
  00051	74 0f		 je	 SHORT $L266772
  00053	83 f8 05	 cmp	 eax, 5
  00056	74 0a		 je	 SHORT $L266772
  00058	83 f8 09	 cmp	 eax, 9
  0005b	74 05		 je	 SHORT $L266772
  0005d	83 f8 0a	 cmp	 eax, 10			; 0000000aH
  00060	75 2a		 jne	 SHORT $L274256
$L266772:

; 111  : #else //__Y_INTERFACE_VER3
; 112  : 		if( (GetMoveState() == OBJSTA_FMOVE) || (GetMoveState() == OBJSTA_BMOVE) )	// /  .
; 113  : #endif //__Y_INTERFACE_VER3
; 114  : 		{
; 115  : 			ResetState( OBJSTA_MOVE_ALL );		

  00062	68 ff 00 00 00	 push	 255			; 000000ffH
  00067	8b ce		 mov	 ecx, esi
  00069	e8 00 00 00 00	 call	 ?ResetState@CAction@@QAEXK@Z ; CAction::ResetState

; 116  : 			m_vDelta.x = m_vDelta.z = 0;

  0006e	33 db		 xor	 ebx, ebx
  00070	89 5e 58	 mov	 DWORD PTR [esi+88], ebx
  00073	89 5e 50	 mov	 DWORD PTR [esi+80], ebx

; 117  : 			if( pMover->IsFlyingNPC() )

  00076	f6 87 42 02 00
	00 01		 test	 BYTE PTR [edi+578], 1
  0007d	74 0f		 je	 SHORT $L266773

; 118  : 			{
; 119  : 				m_vDelta.y = 0;
; 120  : 				pMover->SetAngleX(0);

  0007f	53		 push	 ebx
  00080	8b cf		 mov	 ecx, edi
  00082	89 5e 54	 mov	 DWORD PTR [esi+84], ebx
  00085	e8 00 00 00 00	 call	 ?SetAngleX@CObj@@QAEXM@Z ; CObj::SetAngleX
  0008a	eb 02		 jmp	 SHORT $L266773
$L274256:
  0008c	33 db		 xor	 ebx, ebx
$L266773:

; 121  : 			}
; 122  : 		}
; 123  : 
; 124  : 		if( GetMoveState() == OBJSTA_STAND )	return 0;

  0008e	8b 4e 04	 mov	 ecx, DWORD PTR [esi+4]
  00091	8b c1		 mov	 eax, ecx
  00093	25 ff 00 00 00	 and	 eax, 255		; 000000ffH
  00098	83 f8 01	 cmp	 eax, 1
  0009b	0f 84 c1 00 00
	00		 je	 $L274270

; 125  : 		if( GetMoveState() == OBJSTA_PICKUP )	return 0;

  000a1	83 f8 08	 cmp	 eax, 8
  000a4	0f 84 b8 00 00
	00		 je	 $L274270

; 126  : 		if( IsActJump() )		return -1;

  000aa	f6 c5 f0	 test	 ch, -16			; fffffff0H
  000ad	0f 85 ed 0e 00
	00		 jne	 $L274273

; 127  : 		if( IsActAttack() )		return -2;

  000b3	f7 c1 00 00 ff
	00		 test	 ecx, 16711680		; 00ff0000H
  000b9	0f 85 20 11 00
	00		 jne	 $L274271

; 128  : 		if( IsActDamage() )		return -3;

  000bf	f7 c1 00 00 00
	0f		 test	 ecx, 251658240		; 0f000000H
  000c5	0f 85 ca 0f 00
	00		 jne	 $L274272

; 129  : 		if( IsDie() )			return -4;

  000cb	f7 c1 00 00 00
	08		 test	 ecx, 134217728		; 08000000H
  000d1	74 1a		 je	 SHORT $L266779
  000d3	5f		 pop	 edi
  000d4	5e		 pop	 esi
  000d5	5d		 pop	 ebp
  000d6	b8 fc ff ff ff	 mov	 eax, -4			; fffffffcH
  000db	5b		 pop	 ebx

; 1140 : 		break;
; 1141 : 
; 1142 : 
; 1143 : #if	defined(_DEBUG) && defined(__CLIENT)
; 1144 : 	case OBJMSG_TEMP:
; 1145 : 		{
; 1146 : 			for( int i=0; i < 1; i ++ )
; 1147 : 			{
; 1148 : 
; 1149 : 				CMover* pObj = new CMover;
; 1150 : 				D3DXVECTOR3 vPos = pMover->GetPos();
; 1151 : 				pObj->SetPos( vPos );
; 1152 : 				pObj->SetIndex( g_Neuz.m_pd3dDevice, MI_AIBATT1, TRUE );
; 1153 : 				pObj->SetMotion( 0 );
; 1154 : 				g_WorldMng.Get()->AddObj( pObj, TRUE ); 
; 1155 : 			}
; 1156 : 		}
; 1157 : 		break;
; 1158 : 		
; 1159 : 	case OBJMSG_TEMP2:	//   .
; 1160 : 		if( CMover::GetActiveMover()->IsAuthHigher( AUTH_GAMEMASTER ) )	//  
; 1161 : 		{
; 1162 : 			CObj *pObj = pMover->GetWorld()->GetObjFocus();
; 1163 : 			g_DPlay.SendCorrReq( pObj );
; 1164 : 			g_DPlay.SendError( FE_GENERAL, 0 );
; 1165 : 		}
; 1166 : 		break;
; 1167 : 	
; 1168 : 	case OBJMSG_TEMP3:
; 1169 : 		{
; 1170 : 		#ifdef __XUZHU			
; 1171 : 			g_DPlay.SendError( 0, 0 );
; 1172 : 		#endif
; 1173 : 		}
; 1174 : 		break;
; 1175 : #endif // defined(_DEBUG) && defined(__CLIENT)
; 1176 : 		
; 1177 : 	}
; 1178 : 	return 1;
; 1179 : }

  000dc	8b 4c 24 48	 mov	 ecx, DWORD PTR __$EHRec$[esp+84]
  000e0	64 89 0d 00 00
	00 00		 mov	 DWORD PTR fs:__except_list, ecx
  000e7	83 c4 54	 add	 esp, 84			; 00000054H
  000ea	c2 1c 00	 ret	 28			; 0000001cH
$L266779:

; 130  : 		if( IsAction() )		return 0;

  000ed	f7 c1 00 00 00
	f0		 test	 ecx, -268435456		; f0000000H
  000f3	75 6d		 jne	 SHORT $L274270

; 131  : 		SetMoveState( OBJSTA_STAND );

  000f5	6a 01		 push	 1
  000f7	8b ce		 mov	 ecx, esi
  000f9	e8 00 00 00 00	 call	 ?SetMoveState@CAction@@QAEXK@Z ; CAction::SetMoveState

; 132  : 		pMover->SetMotion( MTI_STAND );

  000fe	8b 17		 mov	 edx, DWORD PTR [edi]
  00100	53		 push	 ebx
  00101	6a 04		 push	 4
  00103	53		 push	 ebx
  00104	8b cf		 mov	 ecx, edi
  00106	ff 52 04	 call	 DWORD PTR [edx+4]

; 133  : 		RemoveStateFlag( OBJSTAF_ETC );

  00109	6a 20		 push	 32			; 00000020H
  0010b	8b ce		 mov	 ecx, esi
  0010d	e8 00 00 00 00	 call	 ?RemoveStateFlag@CAction@@QAEXK@Z ; CAction::RemoveStateFlag

; 134  : 		break;

  00112	e9 d9 17 00 00	 jmp	 $L266767
$L266781:

; 135  : 	case OBJMSG_STOP:		
; 136  : 	case OBJMSG_ASTOP:
; 137  : 	#ifdef __Y_INTERFACE_VER3
; 138  : 		if( (GetMoveState() == OBJSTA_FMOVE) || (GetMoveState() == OBJSTA_BMOVE) || (GetMoveState() == OBJSTA_LMOVE) || (GetMoveState() == OBJSTA_RMOVE) )	// /  .

  00117	8b 46 04	 mov	 eax, DWORD PTR [esi+4]
  0011a	25 ff 00 00 00	 and	 eax, 255		; 000000ffH
  0011f	83 f8 04	 cmp	 eax, 4
  00122	74 0f		 je	 SHORT $L266783
  00124	83 f8 05	 cmp	 eax, 5
  00127	74 0a		 je	 SHORT $L266783
  00129	83 f8 09	 cmp	 eax, 9
  0012c	74 05		 je	 SHORT $L266783
  0012e	83 f8 0a	 cmp	 eax, 10			; 0000000aH
  00131	75 28		 jne	 SHORT $L266784
$L266783:

; 139  : 	#else //__Y_INTERFACE_VER3
; 140  : 		if( (GetMoveState() == OBJSTA_FMOVE) || (GetMoveState() == OBJSTA_BMOVE) )	// /  .
; 141  : 	#endif //__Y_INTERFACE_VER3
; 142  : 		{
; 143  : 			ResetState( OBJSTA_MOVE_ALL );		

  00133	68 ff 00 00 00	 push	 255			; 000000ffH
  00138	8b ce		 mov	 ecx, esi
  0013a	e8 00 00 00 00	 call	 ?ResetState@CAction@@QAEXK@Z ; CAction::ResetState

; 144  : 			m_vDelta.x = m_vDelta.z = 0;

  0013f	33 c0		 xor	 eax, eax
  00141	89 46 58	 mov	 DWORD PTR [esi+88], eax
  00144	89 46 50	 mov	 DWORD PTR [esi+80], eax

; 145  : 			if( pMover->IsFlyingNPC() )

  00147	f6 87 42 02 00
	00 01		 test	 BYTE PTR [edi+578], 1
  0014e	74 0b		 je	 SHORT $L266784

; 146  : 			{
; 147  : 				m_vDelta.y = 0;
; 148  : 				pMover->SetAngleX(0);

  00150	50		 push	 eax
  00151	8b cf		 mov	 ecx, edi
  00153	89 46 54	 mov	 DWORD PTR [esi+84], eax
  00156	e8 00 00 00 00	 call	 ?SetAngleX@CObj@@QAEXM@Z ; CObj::SetAngleX
$L266784:

; 149  : 			}
; 150  : 		}
; 151  : 		pMover->ClearDest();

  0015b	8b cf		 mov	 ecx, edi
  0015d	e8 00 00 00 00	 call	 ?ClearDest@CMover@@QAEXXZ ; CMover::ClearDest
$L274270:
  00162	5f		 pop	 edi
  00163	5e		 pop	 esi
  00164	5d		 pop	 ebp

; 152  : 		return 0;	// ControlGround  STOP       . 

  00165	33 c0		 xor	 eax, eax
  00167	5b		 pop	 ebx

; 1140 : 		break;
; 1141 : 
; 1142 : 
; 1143 : #if	defined(_DEBUG) && defined(__CLIENT)
; 1144 : 	case OBJMSG_TEMP:
; 1145 : 		{
; 1146 : 			for( int i=0; i < 1; i ++ )
; 1147 : 			{
; 1148 : 
; 1149 : 				CMover* pObj = new CMover;
; 1150 : 				D3DXVECTOR3 vPos = pMover->GetPos();
; 1151 : 				pObj->SetPos( vPos );
; 1152 : 				pObj->SetIndex( g_Neuz.m_pd3dDevice, MI_AIBATT1, TRUE );
; 1153 : 				pObj->SetMotion( 0 );
; 1154 : 				g_WorldMng.Get()->AddObj( pObj, TRUE ); 
; 1155 : 			}
; 1156 : 		}
; 1157 : 		break;
; 1158 : 		
; 1159 : 	case OBJMSG_TEMP2:	//   .
; 1160 : 		if( CMover::GetActiveMover()->IsAuthHigher( AUTH_GAMEMASTER ) )	//  
; 1161 : 		{
; 1162 : 			CObj *pObj = pMover->GetWorld()->GetObjFocus();
; 1163 : 			g_DPlay.SendCorrReq( pObj );
; 1164 : 			g_DPlay.SendError( FE_GENERAL, 0 );
; 1165 : 		}
; 1166 : 		break;
; 1167 : 	
; 1168 : 	case OBJMSG_TEMP3:
; 1169 : 		{
; 1170 : 		#ifdef __XUZHU			
; 1171 : 			g_DPlay.SendError( 0, 0 );
; 1172 : 		#endif
; 1173 : 		}
; 1174 : 		break;
; 1175 : #endif // defined(_DEBUG) && defined(__CLIENT)
; 1176 : 		
; 1177 : 	}
; 1178 : 	return 1;
; 1179 : }

  00168	8b 4c 24 48	 mov	 ecx, DWORD PTR __$EHRec$[esp+84]
  0016c	64 89 0d 00 00
	00 00		 mov	 DWORD PTR fs:__except_list, ecx
  00173	83 c4 54	 add	 esp, 84			; 00000054H
  00176	c2 1c 00	 ret	 28			; 0000001cH
$L266785:

; 153  : 		break;
; 154  : 	case OBJMSG_SITDOWN:
; 155  : 		if( GetStateFlag() & OBJSTAF_SIT )	return 0;		//    -    state .

  00179	f6 46 08 04	 test	 BYTE PTR [esi+8], 4
  0017d	75 e3		 jne	 SHORT $L274270

; 156  : 
; 157  : 		if( nParam3 == 0 )

  0017f	8b 44 24 78	 mov	 eax, DWORD PTR _nParam3$[esp+96]
  00183	85 c0		 test	 eax, eax
  00185	75 1d		 jne	 SHORT $L266791

; 158  : 		{
; 159  : 			if( IsActJump() )	return 0;

  00187	8b 46 04	 mov	 eax, DWORD PTR [esi+4]
  0018a	f6 c4 f0	 test	 ah, -16			; fffffff0H
  0018d	75 d3		 jne	 SHORT $L274270

; 160  : 			if( IsActAttack() )	return 0;

  0018f	a9 00 00 ff 00	 test	 eax, 16711680		; 00ff0000H
  00194	75 cc		 jne	 SHORT $L274270

; 161  : 			if( IsActDamage() )	return 0;

  00196	a9 00 00 00 0f	 test	 eax, 251658240		; 0f000000H
  0019b	75 c5		 jne	 SHORT $L274270

; 162  : 			if( IsAction() )	return 0;

  0019d	a9 00 00 00 f0	 test	 eax, -268435456		; f0000000H
  001a2	75 be		 jne	 SHORT $L274270
$L266791:

; 163  : 		#ifdef __CLIENT
; 164  : 			if( pMover->IsActiveMover() && (pMover->m_dwReqFlag & REQ_USESKILL) )	return 0;		//  useskill   .
; 165  : 		#endif	// __CLIENT
; 166  : 		}
; 167  : 		AddStateFlag( OBJSTAF_SIT );		

  001a4	6a 04		 push	 4
  001a6	8b ce		 mov	 ecx, esi
  001a8	e8 00 00 00 00	 call	 ?AddStateFlag@CAction@@QAEXK@Z ; CAction::AddStateFlag

; 168  : 		SendActMsg( OBJMSG_STOP );

  001ad	8b 06		 mov	 eax, DWORD PTR [esi]
  001af	6a 00		 push	 0
  001b1	6a 00		 push	 0
  001b3	6a 00		 push	 0
  001b5	6a 00		 push	 0
  001b7	6a 00		 push	 0
  001b9	6a 06		 push	 6
  001bb	8b ce		 mov	 ecx, esi
  001bd	ff 50 04	 call	 DWORD PTR [eax+4]

; 169  : 		pMover->SetMotion( MTI_SIT, ANILOOP_CONT );		//  

  001c0	8b 17		 mov	 edx, DWORD PTR [edi]
  001c2	6a 00		 push	 0
  001c4	6a 02		 push	 2
  001c6	6a 14		 push	 20			; 00000014H
  001c8	8b cf		 mov	 ecx, edi
  001ca	ff 52 04	 call	 DWORD PTR [edx+4]

; 170  : 		SetMoveState( OBJSTA_SIT );

  001cd	6a 03		 push	 3
  001cf	8b ce		 mov	 ecx, esi
  001d1	e8 00 00 00 00	 call	 ?SetMoveState@CAction@@QAEXK@Z ; CAction::SetMoveState

; 171  : 		break;

  001d6	e9 15 17 00 00	 jmp	 $L266767
$L266792:

; 172  : 	case OBJMSG_STANDUP:
; 173  : 		if( (GetStateFlag() & OBJSTAF_SIT) == 0 )	return 0;	

  001db	f6 46 08 04	 test	 BYTE PTR [esi+8], 4
  001df	74 81		 je	 SHORT $L274270

; 174  : 
; 175  : 		if( nParam3 == 0 )

  001e1	8b 44 24 78	 mov	 eax, DWORD PTR _nParam3$[esp+96]
  001e5	85 c0		 test	 eax, eax
  001e7	75 2d		 jne	 SHORT $L266798

; 176  : 		{
; 177  : 			if( IsActJump() )	return 0;

  001e9	8b 46 04	 mov	 eax, DWORD PTR [esi+4]
  001ec	f6 c4 f0	 test	 ah, -16			; fffffff0H
  001ef	0f 85 6d ff ff
	ff		 jne	 $L274270

; 178  : 			if( IsActAttack() )	return 0;

  001f5	a9 00 00 ff 00	 test	 eax, 16711680		; 00ff0000H
  001fa	0f 85 62 ff ff
	ff		 jne	 $L274270

; 179  : 			if( IsActDamage() )	return 0;

  00200	a9 00 00 00 0f	 test	 eax, 251658240		; 0f000000H
  00205	0f 85 57 ff ff
	ff		 jne	 $L274270

; 180  : 			if( IsAction() )	return 0;

  0020b	a9 00 00 00 f0	 test	 eax, -268435456		; f0000000H
  00210	0f 85 4c ff ff
	ff		 jne	 $L274270
$L266798:

; 181  : #ifdef __CLIENT
; 182  : 			if( pMover->IsActiveMover() && (pMover->m_dwReqFlag & REQ_USESKILL) )	return 0;		//  useskill   .
; 183  : #endif	// __CLIENT
; 184  : 		}
; 185  : 		SetMoveState( OBJSTA_SIT );

  00216	6a 03		 push	 3
  00218	8b ce		 mov	 ecx, esi
  0021a	e8 00 00 00 00	 call	 ?SetMoveState@CAction@@QAEXK@Z ; CAction::SetMoveState

; 186  : 		AddStateFlag( OBJSTAF_SIT );		 

  0021f	6a 04		 push	 4
  00221	8b ce		 mov	 ecx, esi
  00223	e8 00 00 00 00	 call	 ?AddStateFlag@CAction@@QAEXK@Z ; CAction::AddStateFlag

; 187  : 		pMover->SetMotion( MTI_GETUP, ANILOOP_CONT );

  00228	8b 07		 mov	 eax, DWORD PTR [edi]
  0022a	6a 00		 push	 0
  0022c	6a 02		 push	 2
  0022e	6a 16		 push	 22			; 00000016H
  00230	8b cf		 mov	 ecx, edi
  00232	ff 50 04	 call	 DWORD PTR [eax+4]

; 188  : 		break;

  00235	e9 b6 16 00 00	 jmp	 $L266767
$L266799:

; 189  : 	case OBJMSG_PICKUP:
; 190  : 		if( IsSit() )	return 0;

  0023a	f6 46 08 04	 test	 BYTE PTR [esi+8], 4
  0023e	0f 85 1e ff ff
	ff		 jne	 $L274270

; 191  : 		if( IsAction() )	return 0;

  00244	8b 46 04	 mov	 eax, DWORD PTR [esi+4]
  00247	a9 00 00 00 f0	 test	 eax, -268435456		; f0000000H
  0024c	0f 85 10 ff ff
	ff		 jne	 $L274270

; 192  : 		if( IsActJump() )	return 0;

  00252	f6 c4 f0	 test	 ah, -16			; fffffff0H
  00255	0f 85 07 ff ff
	ff		 jne	 $L274270

; 193  : 		if( IsActAttack() )	return 0;

  0025b	a9 00 00 ff 00	 test	 eax, 16711680		; 00ff0000H
  00260	0f 85 fc fe ff
	ff		 jne	 $L274270

; 194  : 		if( IsActDamage() )	return 0;

  00266	a9 00 00 00 0f	 test	 eax, 251658240		; 0f000000H
  0026b	0f 85 f1 fe ff
	ff		 jne	 $L274270

; 195  : #ifdef __CLIENT
; 196  : 		if( pMover->IsActiveMover() )
; 197  : 		{
; 198  : 			if( pMover->m_dwReqFlag & REQ_USESKILL )	return 0;		//  useskill   .
; 199  : 			if( pMover->m_dwReqFlag & REQ_MOTION )		return 0;	//      .
; 200  : 		}
; 201  : #endif	// __CLIENT
; 202  : 		if( GetMoveState() == OBJSTA_PICKUP )	return 0;	//       .

  00271	3c 08		 cmp	 al, 8
  00273	0f 84 e9 fe ff
	ff		 je	 $L274270

; 203  : 		SetMoveState( OBJSTA_PICKUP );

  00279	6a 08		 push	 8
  0027b	8b ce		 mov	 ecx, esi
  0027d	e8 00 00 00 00	 call	 ?SetMoveState@CAction@@QAEXK@Z ; CAction::SetMoveState

; 204  : 		pMover->SetMotion( MTI_PICKUP, ANILOOP_1PLAY, MOP_FIXED );

  00282	6a 02		 push	 2
  00284	6a 01		 push	 1
  00286	6a 79		 push	 121			; 00000079H

; 205  : 		break;

  00288	e9 5c 16 00 00	 jmp	 $L274265
$L266806:

; 206  : 
; 207  : 	case OBJMSG_COLLECT:
; 208  : 		
; 209  : 		//if( IsSit() )		return 0;
; 210  : 		//if( IsAction() )	return 0;
; 211  : 		//if( IsActJump() )	return 0;
; 212  : 		//if( IsActAttack() )	return 0;
; 213  : 		//if( IsActDamage() )	return 0;
; 214  : 		//SetState( OBJSTA_ACTION_ALL, OBJSTA_COLLECT );
; 215  : 		//pMover->SetMotion( MTI_COLLECT, ANILOOP_LOOP, MOP_FIXED );
; 216  : 		//pMover->RemoveInvisible();
; 217  : 		
; 218  : 		// 	// 
; 219  : 		ClearState();

  0028d	8b ce		 mov	 ecx, esi
  0028f	e8 00 00 00 00	 call	 ?ClearState@CAction@@QAEXXZ ; CAction::ClearState

; 220  : 		ResetState( OBJSTA_ACTION_ALL );

  00294	68 00 00 00 f0	 push	 -268435456		; f0000000H
  00299	8b ce		 mov	 ecx, esi
  0029b	e8 00 00 00 00	 call	 ?ResetState@CAction@@QAEXK@Z ; CAction::ResetState

; 221  : 		SetState( OBJSTA_ACTION_ALL, OBJSTA_COLLECT );

  002a0	68 00 00 00 10	 push	 268435456		; 10000000H
  002a5	68 00 00 00 f0	 push	 -268435456		; f0000000H
  002aa	8b ce		 mov	 ecx, esi
  002ac	e8 00 00 00 00	 call	 ?SetState@CAction@@QAEXKK@Z ; CAction::SetState

; 222  : 		pMover->m_dwFlag |= MVRF_NOACTION;

  002b1	8b 9f 48 02 00
	00		 mov	 ebx, DWORD PTR [edi+584]

; 223  : 		pMover->SetMotion( MTI_COLLECT, ANILOOP_LOOP, MOP_FIXED );

  002b7	8b 07		 mov	 eax, DWORD PTR [edi]
  002b9	6a 02		 push	 2
  002bb	6a 04		 push	 4
  002bd	81 cb 00 07 00
	00		 or	 ebx, 1792		; 00000700H
  002c3	68 8e 00 00 00	 push	 142			; 0000008eH
  002c8	8b cf		 mov	 ecx, edi
  002ca	89 9f 48 02 00
	00		 mov	 DWORD PTR [edi+584], ebx
  002d0	ff 50 04	 call	 DWORD PTR [eax+4]

; 224  : 		pMover->RemoveInvisible();

  002d3	8b cf		 mov	 ecx, edi
  002d5	e8 00 00 00 00	 call	 ?RemoveInvisible@CMover@@QAEXXZ ; CMover::RemoveInvisible

; 225  : 		break;

  002da	e9 11 16 00 00	 jmp	 $L266767
$L266807:

; 226  : 
; 227  : 	case OBJMSG_STUN:
; 228  : 		SetState( OBJSTA_ACTION_ALL, OBJSTA_STUN );		//         .

  002df	68 00 00 00 40	 push	 1073741824		; 40000000H
  002e4	68 00 00 00 f0	 push	 -268435456		; f0000000H
  002e9	8b ce		 mov	 ecx, esi
  002eb	e8 00 00 00 00	 call	 ?SetState@CAction@@QAEXKK@Z ; CAction::SetState

; 229  : 		pMover->m_dwFlag |= MVRF_NOACTION;				//    .

  002f0	81 8f 48 02 00
	00 00 07 00 00	 or	 DWORD PTR [edi+584], 1792 ; 00000700H

; 230  : 		pMover->m_wStunCnt = (short)nParam1;			//   .

  002fa	66 8b 4c 24 70	 mov	 cx, WORD PTR _nParam1$[esp+96]
  002ff	66 89 8f cc 06
	00 00		 mov	 WORD PTR [edi+1740], cx

; 231  : 
; 232  : 		if( GetState() == OBJSTA_STAND )

  00306	83 7e 04 01	 cmp	 DWORD PTR [esi+4], 1
  0030a	0f 85 e0 15 00
	00		 jne	 $L266767

; 233  : 			pMover->SetMotion( MTI_GROGGY, ANILOOP_LOOP, MOP_FIXED );		//       .

  00310	6a 02		 push	 2
  00312	6a 04		 push	 4
  00314	6a 0c		 push	 12			; 0000000cH

; 234  : 		break;

  00316	e9 ce 15 00 00	 jmp	 $L274265
$L266810:

; 235  : 		
; 236  : 	case OBJMSG_FALL:
; 237  : 		if( IsActJump() )	return 0;

  0031b	8b 46 04	 mov	 eax, DWORD PTR [esi+4]
  0031e	f6 c4 f0	 test	 ah, -16			; fffffff0H
  00321	0f 85 3b fe ff
	ff		 jne	 $L274270

; 238  : 
; 239  : 		//   .
; 240  : 		if( pMover->m_dwMode & MATCHLESS_MODE )		

  00327	f6 87 44 02 00
	00 01		 test	 BYTE PTR [edi+580], 1

; 241  : 			return 0;

  0032e	0f 85 2e fe ff
	ff		 jne	 $L274270

; 242  : 		
; 243  : 		pMover->m_dwFlag |= MVRF_NOACTION;				//    .

  00334	81 8f 48 02 00
	00 00 07 00 00	 or	 DWORD PTR [edi+584], 1792 ; 00000700H

; 244  : 		
; 245  : 		if( GetState() != OBJSTA_DMG_FLY )

  0033e	81 7e 04 00 00
	00 02		 cmp	 DWORD PTR [esi+4], 33554432 ; 02000000H
  00345	0f 84 a5 15 00
	00		 je	 $L266767

; 246  : 		{
; 247  : 			SetState( OBJSTA_DMG_ALL, OBJSTA_DMG_FLY );	

  0034b	68 00 00 00 02	 push	 33554432		; 02000000H
  00350	68 00 00 00 0f	 push	 251658240		; 0f000000H
  00355	8b ce		 mov	 ecx, esi
  00357	e8 00 00 00 00	 call	 ?SetState@CAction@@QAEXKK@Z ; CAction::SetState

; 248  : 			pMover->SetMotion( MTI_DMGFLY, ANILOOP_LOOP, MOP_FIXED );

  0035c	8b 07		 mov	 eax, DWORD PTR [edi]
  0035e	6a 02		 push	 2
  00360	6a 04		 push	 4
  00362	6a 0b		 push	 11			; 0000000bH
  00364	8b cf		 mov	 ecx, edi
  00366	ff 50 04	 call	 DWORD PTR [eax+4]

; 249  : 		}
; 250  : 		break;

  00369	e9 82 15 00 00	 jmp	 $L266767
$L266815:

; 251  : 		
; 252  : 	// !
; 253  : 	case OBJMSG_TURNMOVE:
; 254  : 		if( GetMoveState() == OBJSTA_FMOVE && (int)pMover->GetAngle() == nParam1 )	return 0;	//       

  0036e	80 7e 04 04	 cmp	 BYTE PTR [esi+4], 4
  00372	75 12		 jne	 SHORT $L266817
  00374	d9 47 18	 fld	 DWORD PTR [edi+24]
  00377	e8 00 00 00 00	 call	 __ftol2
  0037c	3b 44 24 70	 cmp	 eax, DWORD PTR _nParam1$[esp+96]
  00380	0f 84 dc fd ff
	ff		 je	 $L274270
$L266817:

; 255  : 		if( pMover->m_dwFlag & MVRF_NOMOVE )	

  00386	8b 87 48 02 00
	00		 mov	 eax, DWORD PTR [edi+584]
  0038c	f6 c4 01	 test	 ah, 1

; 256  : 			return 0;		//    .

  0038f	0f 85 cd fd ff
	ff		 jne	 $L274270

; 257  : #if __VER >= 10 // __LEGEND	//	10 	Neuz, World, Trans
; 258  : 		if( pMover->GetAdjParam( DST_CHRSTATE ) & CHS_LOOT)			return 0;

  00395	6a 40		 push	 64			; 00000040H
  00397	8b cf		 mov	 ecx, edi
  00399	e8 00 00 00 00	 call	 ?GetAdjParam@CMover@@QAEHH@Z ; CMover::GetAdjParam
  0039e	a9 00 00 08 00	 test	 eax, 524288		; 00080000H
  003a3	0f 85 b9 fd ff
	ff		 jne	 $L274270

; 259  : #endif	//__LEGEND	//	10 	Neuz, World, Trans
; 260  : 		
; 261  : 		if( GetState() & OBJSTA_DMG_FLY_ALL )	//   

  003a9	8b 46 04	 mov	 eax, DWORD PTR [esi+4]
  003ac	a9 00 00 00 02	 test	 eax, 33554432		; 02000000H

; 262  : 			return 0;

  003b1	0f 85 ab fd ff
	ff		 jne	 $L274270

; 263  : 		
; 264  : 		if( IsActAttack() )		return -2;

  003b7	a9 00 00 ff 00	 test	 eax, 16711680		; 00ff0000H
  003bc	0f 85 1d 0e 00
	00		 jne	 $L274271

; 265  : 		if( GetDmgState() == OBJSTA_DMG )	//       .

  003c2	25 00 00 00 0f	 and	 eax, 251658240		; 0f000000H
  003c7	3d 00 00 00 01	 cmp	 eax, 16777216		; 01000000H
  003cc	75 0e		 jne	 SHORT $L266822

; 266  : 			ResetState( OBJSTA_DMG_ALL );

  003ce	68 00 00 00 0f	 push	 251658240		; 0f000000H
  003d3	8b ce		 mov	 ecx, esi
  003d5	e8 00 00 00 00	 call	 ?ResetState@CAction@@QAEXK@Z ; CAction::ResetState

; 267  : 		else if( GetState() & OBJSTA_DMG_ALL )	//    

  003da	eb 08		 jmp	 SHORT $L266824
$L266822:
  003dc	85 c0		 test	 eax, eax

; 268  : 			return -3;

  003de	0f 85 b1 0c 00
	00		 jne	 $L274272
$L266824:

; 269  : 		pMover->SetAngle( (float)nParam1 );

  003e4	db 44 24 70	 fild	 DWORD PTR _nParam1$[esp+96]
  003e8	51		 push	 ecx
  003e9	8b cf		 mov	 ecx, edi
  003eb	d9 1c 24	 fstp	 DWORD PTR [esp]
  003ee	e8 00 00 00 00	 call	 ?SetAngle@CObj@@QAEXM@Z	; CObj::SetAngle

; 270  : 		if( pMover->IsFlyingNPC() )

  003f3	f6 87 42 02 00
	00 01		 test	 BYTE PTR [edi+578], 1
  003fa	74 0f		 je	 SHORT $L266826

; 271  : 			pMover->SetAngleX( (float)nParam2 );

  003fc	db 44 24 74	 fild	 DWORD PTR _nParam2$[esp+96]
  00400	51		 push	 ecx
  00401	8b cf		 mov	 ecx, edi
  00403	d9 1c 24	 fstp	 DWORD PTR [esp]
  00406	e8 00 00 00 00	 call	 ?SetAngleX@CObj@@QAEXM@Z ; CObj::SetAngleX
$L266826:

; 272  : 		SendActMsg( OBJMSG_STOP_TURN );

  0040b	8b 16		 mov	 edx, DWORD PTR [esi]
  0040d	6a 00		 push	 0
  0040f	6a 00		 push	 0
  00411	6a 00		 push	 0
  00413	6a 00		 push	 0
  00415	6a 00		 push	 0
  00417	6a 0a		 push	 10			; 0000000aH
  00419	8b ce		 mov	 ecx, esi
  0041b	ff 52 04	 call	 DWORD PTR [edx+4]

; 273  : 		SendActMsg( OBJMSG_FORWARD );

  0041e	8b 06		 mov	 eax, DWORD PTR [esi]
  00420	6a 00		 push	 0
  00422	6a 00		 push	 0
  00424	6a 00		 push	 0
  00426	6a 00		 push	 0
  00428	6a 00		 push	 0
  0042a	6a 01		 push	 1
  0042c	8b ce		 mov	 ecx, esi
  0042e	ff 50 04	 call	 DWORD PTR [eax+4]

; 274  : 		break;

  00431	e9 ba 14 00 00	 jmp	 $L266767
$L266828:

; 275  : 	case OBJMSG_TURNMOVE2:
; 276  : 		if( GetMoveState() == OBJSTA_FMOVE && (int)pMover->GetAngle() == nParam1 )	return 0;	//       

  00436	80 7e 04 04	 cmp	 BYTE PTR [esi+4], 4
  0043a	75 12		 jne	 SHORT $L266830
  0043c	d9 47 18	 fld	 DWORD PTR [edi+24]
  0043f	e8 00 00 00 00	 call	 __ftol2
  00444	3b 44 24 70	 cmp	 eax, DWORD PTR _nParam1$[esp+96]
  00448	0f 84 14 fd ff
	ff		 je	 $L274270
$L266830:

; 277  : 		if( pMover->m_dwFlag & MVRF_NOMOVE )	return 0;		//    .

  0044e	8b 87 48 02 00
	00		 mov	 eax, DWORD PTR [edi+584]
  00454	f6 c4 01	 test	 ah, 1
  00457	0f 85 05 fd ff
	ff		 jne	 $L274270

; 278  : #if __VER >= 10 // __LEGEND	//	10 	Neuz, World, Trans
; 279  : 		if( pMover->GetAdjParam( DST_CHRSTATE ) & CHS_LOOT)			return 0;

  0045d	6a 40		 push	 64			; 00000040H
  0045f	8b cf		 mov	 ecx, edi
  00461	e8 00 00 00 00	 call	 ?GetAdjParam@CMover@@QAEHH@Z ; CMover::GetAdjParam
  00466	a9 00 00 08 00	 test	 eax, 524288		; 00080000H
  0046b	0f 85 f1 fc ff
	ff		 jne	 $L274270

; 280  : #endif	//__LEGEND	//	10 	Neuz, World, Trans
; 281  : 
; 282  : 		if( IsAction() )	return 0;

  00471	8b 46 04	 mov	 eax, DWORD PTR [esi+4]
  00474	a9 00 00 00 f0	 test	 eax, -268435456		; f0000000H
  00479	0f 85 e3 fc ff
	ff		 jne	 $L274270

; 283  : 
; 284  : 		if( GetState() & OBJSTA_DMG_FLY_ALL )	//   

  0047f	a9 00 00 00 02	 test	 eax, 33554432		; 02000000H

; 285  : 			return 0;

  00484	0f 85 d8 fc ff
	ff		 jne	 $L274270

; 286  : 
; 287  : 		if( IsActJump() )	return -1;	//      

  0048a	f6 c4 f0	 test	 ah, -16			; fffffff0H
  0048d	0f 85 0d 0b 00
	00		 jne	 $L274273

; 288  : 		if( IsActAttack() )		return -2;

  00493	a9 00 00 ff 00	 test	 eax, 16711680		; 00ff0000H
  00498	0f 85 41 0d 00
	00		 jne	 $L274271

; 289  : 		if( GetDmgState() == OBJSTA_DMG )	//       .

  0049e	25 00 00 00 0f	 and	 eax, 251658240		; 0f000000H
  004a3	3d 00 00 00 01	 cmp	 eax, 16777216		; 01000000H
  004a8	75 0e		 jne	 SHORT $L266837

; 290  : 			ResetState( OBJSTA_DMG_ALL );

  004aa	68 00 00 00 0f	 push	 251658240		; 0f000000H
  004af	8b ce		 mov	 ecx, esi
  004b1	e8 00 00 00 00	 call	 ?ResetState@CAction@@QAEXK@Z ; CAction::ResetState

; 291  : 		else if( GetState() & OBJSTA_DMG_ALL )	//    

  004b6	eb 08		 jmp	 SHORT $L266839
$L266837:
  004b8	85 c0		 test	 eax, eax

; 292  : 			return -3;

  004ba	0f 85 d5 0b 00
	00		 jne	 $L274272
$L266839:

; 293  : 		pMover->SetAngle( (float)nParam1 );

  004c0	db 44 24 70	 fild	 DWORD PTR _nParam1$[esp+96]
  004c4	51		 push	 ecx
  004c5	8b cf		 mov	 ecx, edi
  004c7	d9 1c 24	 fstp	 DWORD PTR [esp]
  004ca	e8 00 00 00 00	 call	 ?SetAngle@CObj@@QAEXM@Z	; CObj::SetAngle

; 294  : 		if( pMover->IsFlyingNPC() )

  004cf	f6 87 42 02 00
	00 01		 test	 BYTE PTR [edi+578], 1
  004d6	74 0f		 je	 SHORT $L266841

; 295  : 			pMover->SetAngleX( (float)nParam2 );

  004d8	db 44 24 74	 fild	 DWORD PTR _nParam2$[esp+96]
  004dc	51		 push	 ecx
  004dd	8b cf		 mov	 ecx, edi
  004df	d9 1c 24	 fstp	 DWORD PTR [esp]
  004e2	e8 00 00 00 00	 call	 ?SetAngleX@CObj@@QAEXM@Z ; CObj::SetAngleX
$L266841:

; 296  : 		SendActMsg( OBJMSG_STOP_TURN );

  004e7	8b 16		 mov	 edx, DWORD PTR [esi]
  004e9	6a 00		 push	 0
  004eb	6a 00		 push	 0
  004ed	6a 00		 push	 0
  004ef	6a 00		 push	 0
  004f1	6a 00		 push	 0
  004f3	6a 0a		 push	 10			; 0000000aH
  004f5	8b ce		 mov	 ecx, esi
  004f7	ff 52 04	 call	 DWORD PTR [edx+4]

; 297  : 		SendActMsg( OBJMSG_BACKWARD );

  004fa	8b 06		 mov	 eax, DWORD PTR [esi]
  004fc	6a 00		 push	 0
  004fe	6a 00		 push	 0
  00500	6a 00		 push	 0
  00502	6a 00		 push	 0
  00504	6a 00		 push	 0
  00506	6a 02		 push	 2
  00508	8b ce		 mov	 ecx, esi
  0050a	ff 50 04	 call	 DWORD PTR [eax+4]

; 298  : 		break;

  0050d	e9 de 13 00 00	 jmp	 $L266767
$L266843:

; 299  : 
; 300  : #ifdef __Y_INTERFACE_VER3
; 301  : 	case OBJMSG_LFORWARD:
; 302  : 		if( IsActJump() )	return -1;

  00512	8b 46 04	 mov	 eax, DWORD PTR [esi+4]
  00515	f6 c4 f0	 test	 ah, -16			; fffffff0H
  00518	0f 85 82 0a 00
	00		 jne	 $L274273

; 303  : 		if( IsActAttack() )		return -2;

  0051e	a9 00 00 ff 00	 test	 eax, 16711680		; 00ff0000H
  00523	0f 85 b6 0c 00
	00		 jne	 $L274271

; 304  : 		if( GetDmgState() == OBJSTA_DMG )	//       .

  00529	25 00 00 00 0f	 and	 eax, 251658240		; 0f000000H
  0052e	3d 00 00 00 01	 cmp	 eax, 16777216		; 01000000H
  00533	75 0e		 jne	 SHORT $L266846

; 305  : 			ResetState( OBJSTA_DMG_ALL );

  00535	68 00 00 00 0f	 push	 251658240		; 0f000000H
  0053a	8b ce		 mov	 ecx, esi
  0053c	e8 00 00 00 00	 call	 ?ResetState@CAction@@QAEXK@Z ; CAction::ResetState

; 306  : 		else

  00541	eb 08		 jmp	 SHORT $L266848
$L266846:

; 307  : 			if( GetState() & OBJSTA_DMG_ALL )	//    

  00543	85 c0		 test	 eax, eax

; 308  : 				return -3;

  00545	0f 85 4a 0b 00
	00		 jne	 $L274272
$L266848:

; 309  : 		if( GetMoveState() == OBJSTA_LMOVE )	return 0;	//      

  0054b	80 7e 04 09	 cmp	 BYTE PTR [esi+4], 9
  0054f	0f 84 0d fc ff
	ff		 je	 $L274270

; 310  : 		if( IsSit() )		return 0;		//  0  ?.

  00555	f6 46 08 04	 test	 BYTE PTR [esi+8], 4
  00559	0f 85 03 fc ff
	ff		 jne	 $L274270

; 311  : 		if( pMover->m_dwFlag & MVRF_NOMOVE )	return 0;		//    .

  0055f	8b 87 48 02 00
	00		 mov	 eax, DWORD PTR [edi+584]
  00565	f6 c4 01	 test	 ah, 1
  00568	0f 85 f4 fb ff
	ff		 jne	 $L274270

; 312  : #if __VER >= 10 // __LEGEND	//	10 	Neuz, World, Trans
; 313  : 		if( pMover->GetAdjParam( DST_CHRSTATE ) & CHS_LOOT)			return 0;

  0056e	6a 40		 push	 64			; 00000040H
  00570	8b cf		 mov	 ecx, edi
  00572	e8 00 00 00 00	 call	 ?GetAdjParam@CMover@@QAEHH@Z ; CMover::GetAdjParam
  00577	a9 00 00 08 00	 test	 eax, 524288		; 00080000H
  0057c	0f 85 e0 fb ff
	ff		 jne	 $L274270

; 314  : #endif	//__LEGEND	//	10 	Neuz, World, Trans
; 315  : 
; 316  : 		SetMoveState( OBJSTA_LMOVE );

  00582	6a 09		 push	 9

; 317  : 		if( IsStateFlag( OBJSTAF_WALK ) )	// 
; 318  : 		{
; 319  : 			pMover->SetMotion( MTI_WALK );		//  
; 320  : 		} 
; 321  : 		else

  00584	eb 72		 jmp	 SHORT $L274276
$L266856:

; 322  : 		{
; 323  : 			if( pMover->SetMotion( MTI_RUN ) )
; 324  : 				pModel->SetMotionBlending( TRUE );
; 325  : 		}
; 326  : 		break;
; 327  : 	case OBJMSG_RFORWARD:
; 328  : 		if( IsActJump() )	return -1;

  00586	8b 46 04	 mov	 eax, DWORD PTR [esi+4]
  00589	f6 c4 f0	 test	 ah, -16			; fffffff0H
  0058c	0f 85 0e 0a 00
	00		 jne	 $L274273

; 329  : 		if( IsActAttack() )		return -2;

  00592	a9 00 00 ff 00	 test	 eax, 16711680		; 00ff0000H
  00597	0f 85 42 0c 00
	00		 jne	 $L274271

; 330  : 		if( GetDmgState() == OBJSTA_DMG )	//       .

  0059d	25 00 00 00 0f	 and	 eax, 251658240		; 0f000000H
  005a2	3d 00 00 00 01	 cmp	 eax, 16777216		; 01000000H
  005a7	75 0e		 jne	 SHORT $L266859

; 331  : 			ResetState( OBJSTA_DMG_ALL );

  005a9	68 00 00 00 0f	 push	 251658240		; 0f000000H
  005ae	8b ce		 mov	 ecx, esi
  005b0	e8 00 00 00 00	 call	 ?ResetState@CAction@@QAEXK@Z ; CAction::ResetState

; 332  : 		else

  005b5	eb 08		 jmp	 SHORT $L266861
$L266859:

; 333  : 			if( GetState() & OBJSTA_DMG_ALL )	//    

  005b7	85 c0		 test	 eax, eax

; 334  : 				return -3;

  005b9	0f 85 d6 0a 00
	00		 jne	 $L274272
$L266861:

; 335  : 		if( GetMoveState() == OBJSTA_RMOVE )	return 0;	//      

  005bf	80 7e 04 0a	 cmp	 BYTE PTR [esi+4], 10	; 0000000aH
  005c3	0f 84 99 fb ff
	ff		 je	 $L274270

; 336  : 		if( IsSit() )		return 0;		//  0  ?.

  005c9	f6 46 08 04	 test	 BYTE PTR [esi+8], 4
  005cd	0f 85 8f fb ff
	ff		 jne	 $L274270

; 337  : 		if( pMover->m_dwFlag & MVRF_NOMOVE )	return 0;		//    .

  005d3	8b 87 48 02 00
	00		 mov	 eax, DWORD PTR [edi+584]
  005d9	f6 c4 01	 test	 ah, 1
  005dc	0f 85 80 fb ff
	ff		 jne	 $L274270

; 338  : #if __VER >= 10 // __LEGEND	//	10 	Neuz, World, Trans
; 339  : 		if( pMover->GetAdjParam( DST_CHRSTATE ) & CHS_LOOT)			return 0;

  005e2	6a 40		 push	 64			; 00000040H
  005e4	8b cf		 mov	 ecx, edi
  005e6	e8 00 00 00 00	 call	 ?GetAdjParam@CMover@@QAEHH@Z ; CMover::GetAdjParam
  005eb	a9 00 00 08 00	 test	 eax, 524288		; 00080000H
  005f0	0f 85 6c fb ff
	ff		 jne	 $L274270

; 340  : #endif	//__LEGEND	//	10 	Neuz, World, Trans
; 341  : 
; 342  : 		SetMoveState( OBJSTA_RMOVE );

  005f6	6a 0a		 push	 10			; 0000000aH
$L274276:
  005f8	8b ce		 mov	 ecx, esi
  005fa	e8 00 00 00 00	 call	 ?SetMoveState@CAction@@QAEXK@Z ; CAction::SetMoveState

; 343  : 		if( IsStateFlag( OBJSTAF_WALK ) )	// 

  005ff	f6 46 08 02	 test	 BYTE PTR [esi+8], 2

; 344  : 		{
; 345  : 			pMover->SetMotion( MTI_WALK );		//  

  00603	6a 00		 push	 0
  00605	8b cf		 mov	 ecx, edi
  00607	6a 04		 push	 4
  00609	74 07		 je	 SHORT $L266866
  0060b	6a 03		 push	 3

; 346  : 		} 
; 347  : 		else

  0060d	e9 d9 12 00 00	 jmp	 $L274266
$L266866:

; 348  : 		{
; 349  : 			if( pMover->SetMotion( MTI_RUN ) )

  00612	8b 07		 mov	 eax, DWORD PTR [edi]
  00614	6a 05		 push	 5
  00616	ff 50 04	 call	 DWORD PTR [eax+4]
  00619	85 c0		 test	 eax, eax
  0061b	0f 84 cf 12 00
	00		 je	 $L266767

; 350  : 				pModel->SetMotionBlending( TRUE );

  00621	6a 01		 push	 1
  00623	8b cb		 mov	 ecx, ebx
  00625	e8 00 00 00 00	 call	 ?SetMotionBlending@CModelObject@@QAEXH@Z ; CModelObject::SetMotionBlending

; 351  : 		}
; 352  : 		break;

  0062a	e9 c1 12 00 00	 jmp	 $L266767
$L266869:

; 353  : #endif //__Y_INTERFACE_VER3
; 354  : 
; 355  : 	case OBJMSG_FORWARD:
; 356  : 		if( IsActJump() )	return -1;

  0062f	8b 46 04	 mov	 eax, DWORD PTR [esi+4]
  00632	f6 c4 f0	 test	 ah, -16			; fffffff0H
  00635	0f 85 65 09 00
	00		 jne	 $L274273

; 357  : 		if( IsActAttack() )		return -2;

  0063b	a9 00 00 ff 00	 test	 eax, 16711680		; 00ff0000H
  00640	0f 85 99 0b 00
	00		 jne	 $L274271

; 358  : 		if( GetDmgState() == OBJSTA_DMG )	//       .

  00646	25 00 00 00 0f	 and	 eax, 251658240		; 0f000000H
  0064b	3d 00 00 00 01	 cmp	 eax, 16777216		; 01000000H
  00650	75 0e		 jne	 SHORT $L266872

; 359  : 			ResetState( OBJSTA_DMG_ALL );

  00652	68 00 00 00 0f	 push	 251658240		; 0f000000H
  00657	8b ce		 mov	 ecx, esi
  00659	e8 00 00 00 00	 call	 ?ResetState@CAction@@QAEXK@Z ; CAction::ResetState

; 360  : 		else if( GetState() & OBJSTA_DMG_ALL )	//    

  0065e	eb 08		 jmp	 SHORT $L266874
$L266872:
  00660	85 c0		 test	 eax, eax

; 361  : 				return -3;

  00662	0f 85 2d 0a 00
	00		 jne	 $L274272
$L266874:

; 362  : 		if( GetMoveState() == OBJSTA_FMOVE )	return 0;	//      

  00668	80 7e 04 04	 cmp	 BYTE PTR [esi+4], 4
  0066c	0f 84 f0 fa ff
	ff		 je	 $L274270

; 363  : 		if( IsSit() )		return 0;		//  0  ?.

  00672	f6 46 08 04	 test	 BYTE PTR [esi+8], 4
  00676	0f 85 e6 fa ff
	ff		 jne	 $L274270

; 364  : 		if( pMover->m_dwFlag & MVRF_NOMOVE )	return 0;		//    .

  0067c	8b 87 48 02 00
	00		 mov	 eax, DWORD PTR [edi+584]
  00682	f6 c4 01	 test	 ah, 1
  00685	0f 85 d7 fa ff
	ff		 jne	 $L274270

; 365  : #if __VER >= 10 // __LEGEND	//	10 	Neuz, World, Trans
; 366  : 		if( pMover->GetAdjParam( DST_CHRSTATE ) & CHS_LOOT)			return 0;

  0068b	6a 40		 push	 64			; 00000040H
  0068d	8b cf		 mov	 ecx, edi
  0068f	e8 00 00 00 00	 call	 ?GetAdjParam@CMover@@QAEHH@Z ; CMover::GetAdjParam
  00694	a9 00 00 08 00	 test	 eax, 524288		; 00080000H
  00699	0f 85 c3 fa ff
	ff		 jne	 $L274270

; 367  : #endif	//__LEGEND	//	10 	Neuz, World, Trans
; 368  : 
; 369  : 		SetMoveState( OBJSTA_FMOVE );

  0069f	6a 04		 push	 4
  006a1	8b ce		 mov	 ecx, esi
  006a3	e8 00 00 00 00	 call	 ?SetMoveState@CAction@@QAEXK@Z ; CAction::SetMoveState

; 370  : 		if( IsStateFlag( OBJSTAF_WALK ) )	// 

  006a8	f6 46 08 02	 test	 BYTE PTR [esi+8], 2

; 371  : 		{
; 372  : 			pMover->SetMotion( MTI_WALK );	

  006ac	6a 00		 push	 0
  006ae	8b cf		 mov	 ecx, edi
  006b0	6a 04		 push	 4
  006b2	74 13		 je	 SHORT $L266879
  006b4	8b 17		 mov	 edx, DWORD PTR [edi]
  006b6	6a 03		 push	 3
  006b8	ff 52 04	 call	 DWORD PTR [edx+4]

; 378  : 		}
; 379  : 		pMover->OnActFMove();

  006bb	8b cf		 mov	 ecx, edi
  006bd	e8 00 00 00 00	 call	 ?OnActFMove@CMover@@QAEXXZ ; CMover::OnActFMove

; 380  : 		break;

  006c2	e9 29 12 00 00	 jmp	 $L266767
$L266879:

; 373  : 		} 
; 374  : 		else
; 375  : 		{
; 376  : 			if( pMover->SetMotion( MTI_RUN ) )

  006c7	8b 07		 mov	 eax, DWORD PTR [edi]
  006c9	6a 05		 push	 5
  006cb	ff 50 04	 call	 DWORD PTR [eax+4]
  006ce	85 c0		 test	 eax, eax
  006d0	74 09		 je	 SHORT $L266881

; 377  : 				pModel->SetMotionBlending( TRUE );

  006d2	6a 01		 push	 1
  006d4	8b cb		 mov	 ecx, ebx
  006d6	e8 00 00 00 00	 call	 ?SetMotionBlending@CModelObject@@QAEXH@Z ; CModelObject::SetMotionBlending
$L266881:

; 378  : 		}
; 379  : 		pMover->OnActFMove();

  006db	8b cf		 mov	 ecx, edi
  006dd	e8 00 00 00 00	 call	 ?OnActFMove@CMover@@QAEXXZ ; CMover::OnActFMove

; 380  : 		break;

  006e2	e9 09 12 00 00	 jmp	 $L266767
$L266883:

; 381  : 		
; 382  : 	case OBJMSG_STOP_RUN:
; 383  : 	#ifdef __CLIENT
; 384  : 		if( IsActJump() )	return -1;
; 385  : 		if( IsActAttack() )		return -2;
; 386  : 		if( GetDmgState() == OBJSTA_DMG )	//       .
; 387  : 			ResetState( OBJSTA_DMG_ALL );
; 388  : 		else if( GetState() & OBJSTA_DMG_ALL )	//    
; 389  : 			return -3;
; 390  : 		if( GetMoveState() == OBJSTA_STOP_RUN )	return 0;	//      
; 391  : 		if( IsSit() )		return 0;						//  0  ?.
; 392  : 		if( pMover->m_dwFlag & MVRF_NOMOVE )	return 0;	//    .
; 393  : #if __VER >= 10 // __LEGEND	//	10 	Neuz, World, Trans
; 394  : 		if( pMover->GetAdjParam( DST_CHRSTATE ) & CHS_LOOT)			return 0;
; 395  : #endif	//__LEGEND	//	10 	Neuz, World, Trans
; 396  : 
; 397  : 		SetMoveState( OBJSTA_STOP_RUN );
; 398  : 	#endif
; 399  : 		break;
; 400  : 
; 401  : 	
; 402  : 	// !
; 403  : 	case OBJMSG_BACKWARD:
; 404  : 		if( IsActJump() )	return -1;	// if jump, x

  006e7	8b 46 04	 mov	 eax, DWORD PTR [esi+4]
  006ea	f6 c4 f0	 test	 ah, -16			; fffffff0H
  006ed	0f 85 ad 08 00
	00		 jne	 $L274273

; 405  : 		if( IsActAttack() )		return -2;	//  .

  006f3	a9 00 00 ff 00	 test	 eax, 16711680		; 00ff0000H
  006f8	0f 85 e1 0a 00
	00		 jne	 $L274271

; 406  : 		if( IsActDamage() )		return -3;

  006fe	a9 00 00 00 0f	 test	 eax, 251658240		; 0f000000H
  00703	0f 85 8c 09 00
	00		 jne	 $L274272

; 407  : 		if( GetMoveState() == OBJSTA_BMOVE )	return 0;

  00709	3c 05		 cmp	 al, 5
  0070b	0f 84 51 fa ff
	ff		 je	 $L274270

; 408  : 		if( IsSit() )		return 0;		//  0  ?.

  00711	f6 46 08 04	 test	 BYTE PTR [esi+8], 4
  00715	0f 85 47 fa ff
	ff		 jne	 $L274270

; 409  : 		if( IsAction() )	return 0;

  0071b	a9 00 00 00 f0	 test	 eax, -268435456		; f0000000H
  00720	0f 85 3c fa ff
	ff		 jne	 $L274270

; 410  : 		if( pMover->m_dwFlag & MVRF_NOMOVE )	return 0;		//    .

  00726	8b 87 48 02 00
	00		 mov	 eax, DWORD PTR [edi+584]
  0072c	f6 c4 01	 test	 ah, 1
  0072f	0f 85 2d fa ff
	ff		 jne	 $L274270

; 411  : #if __VER >= 10 // __LEGEND	//	10 	Neuz, World, Trans
; 412  : 		if( pMover->GetAdjParam( DST_CHRSTATE ) & CHS_LOOT)			return 0;

  00735	6a 40		 push	 64			; 00000040H
  00737	8b cf		 mov	 ecx, edi
  00739	e8 00 00 00 00	 call	 ?GetAdjParam@CMover@@QAEHH@Z ; CMover::GetAdjParam
  0073e	a9 00 00 08 00	 test	 eax, 524288		; 00080000H
  00743	0f 85 19 fa ff
	ff		 jne	 $L274270

; 413  : #endif	//__LEGEND	//	10 	Neuz, World, Trans
; 414  : 
; 415  : 		SetMoveState( OBJSTA_BMOVE );

  00749	6a 05		 push	 5
  0074b	8b ce		 mov	 ecx, esi
  0074d	e8 00 00 00 00	 call	 ?SetMoveState@CAction@@QAEXK@Z ; CAction::SetMoveState

; 416  : 		pMover->SetMotion( MTI_WALK );		

  00752	6a 00		 push	 0
  00754	6a 04		 push	 4
  00756	6a 03		 push	 3

; 417  : 		break;

  00758	e9 8c 11 00 00	 jmp	 $L274265
$L266892:

; 418  : 	// /  !
; 419  : 	case OBJMSG_LTURN:
; 420  : 		if( IsActJump() )	return -1;

  0075d	8b 46 04	 mov	 eax, DWORD PTR [esi+4]
  00760	f6 c4 f0	 test	 ah, -16			; fffffff0H
  00763	0f 85 37 08 00
	00		 jne	 $L274273

; 421  : 		if( IsActAttack() )		return -2;

  00769	a9 00 00 ff 00	 test	 eax, 16711680		; 00ff0000H
  0076e	0f 85 6b 0a 00
	00		 jne	 $L274271

; 422  : 		if( GetDmgState() == OBJSTA_DMG )	//       .

  00774	25 00 00 00 0f	 and	 eax, 251658240		; 0f000000H
  00779	3d 00 00 00 01	 cmp	 eax, 16777216		; 01000000H
  0077e	75 0e		 jne	 SHORT $L266895

; 423  : 			ResetState( OBJSTA_DMG_ALL );

  00780	68 00 00 00 0f	 push	 251658240		; 0f000000H
  00785	8b ce		 mov	 ecx, esi
  00787	e8 00 00 00 00	 call	 ?ResetState@CAction@@QAEXK@Z ; CAction::ResetState

; 424  : 		else if( GetState() & OBJSTA_DMG_ALL )	//    

  0078c	eb 08		 jmp	 SHORT $L266897
$L266895:
  0078e	85 c0		 test	 eax, eax

; 425  : 				return -3;

  00790	0f 85 ff 08 00
	00		 jne	 $L274272
$L266897:

; 426  : 		if( GetTurnState() == OBJSTA_LTURN )	return 0;

  00796	8b 46 04	 mov	 eax, DWORD PTR [esi+4]
  00799	8b c8		 mov	 ecx, eax
  0079b	81 e1 00 03 00
	00		 and	 ecx, 768		; 00000300H
  007a1	81 f9 00 01 00
	00		 cmp	 ecx, 256		; 00000100H
  007a7	0f 84 b5 f9 ff
	ff		 je	 $L274270

; 427  : 		if( IsSit() )		return 0;		//  0  ?.

  007ad	f6 46 08 04	 test	 BYTE PTR [esi+8], 4
  007b1	0f 85 ab f9 ff
	ff		 jne	 $L274270

; 428  : 		if( IsAction() )	return 0;

  007b7	a9 00 00 00 f0	 test	 eax, -268435456		; f0000000H
  007bc	0f 85 a0 f9 ff
	ff		 jne	 $L274270

; 429  : 		if( pMover->m_dwFlag & MVRF_NOMOVE )	return 0;		//    .

  007c2	8b 87 48 02 00
	00		 mov	 eax, DWORD PTR [edi+584]
  007c8	f6 c4 01	 test	 ah, 1
  007cb	0f 85 91 f9 ff
	ff		 jne	 $L274270

; 430  : #if __VER >= 10 // __LEGEND	//	10 	Neuz, World, Trans
; 431  : 		if( pMover->GetAdjParam( DST_CHRSTATE ) & CHS_LOOT)			return 0;

  007d1	6a 40		 push	 64			; 00000040H
  007d3	8b cf		 mov	 ecx, edi
  007d5	e8 00 00 00 00	 call	 ?GetAdjParam@CMover@@QAEHH@Z ; CMover::GetAdjParam
  007da	a9 00 00 08 00	 test	 eax, 524288		; 00080000H
  007df	0f 85 7d f9 ff
	ff		 jne	 $L274270

; 432  : #endif	//__LEGEND	//	10 	Neuz, World, Trans
; 433  : 
; 434  : 		SetTurnState( OBJSTA_LTURN );

  007e5	68 00 01 00 00	 push	 256			; 00000100H
  007ea	8b ce		 mov	 ecx, esi
  007ec	e8 00 00 00 00	 call	 ?SetTurnState@CAction@@QAEXK@Z ; CAction::SetTurnState

; 435  : 		break;

  007f1	e9 fa 10 00 00	 jmp	 $L266767
$L266903:

; 436  : 	case OBJMSG_RTURN:
; 437  : 		if( IsActJump() )	return -1;

  007f6	8b 46 04	 mov	 eax, DWORD PTR [esi+4]
  007f9	f6 c4 f0	 test	 ah, -16			; fffffff0H
  007fc	0f 85 9e 07 00
	00		 jne	 $L274273

; 438  : 		if( IsActAttack() )		return -2;

  00802	a9 00 00 ff 00	 test	 eax, 16711680		; 00ff0000H
  00807	0f 85 d2 09 00
	00		 jne	 $L274271

; 439  : 		if( GetDmgState() == OBJSTA_DMG )	//       .

  0080d	25 00 00 00 0f	 and	 eax, 251658240		; 0f000000H
  00812	3d 00 00 00 01	 cmp	 eax, 16777216		; 01000000H
  00817	75 0e		 jne	 SHORT $L266906

; 440  : 			ResetState( OBJSTA_DMG_ALL );

  00819	68 00 00 00 0f	 push	 251658240		; 0f000000H
  0081e	8b ce		 mov	 ecx, esi
  00820	e8 00 00 00 00	 call	 ?ResetState@CAction@@QAEXK@Z ; CAction::ResetState

; 441  : 		else if( GetState() & OBJSTA_DMG_ALL )	//    

  00825	eb 08		 jmp	 SHORT $L266908
$L266906:
  00827	85 c0		 test	 eax, eax

; 442  : 			return -3;

  00829	0f 85 66 08 00
	00		 jne	 $L274272
$L266908:

; 443  : 		if( GetTurnState() == OBJSTA_RTURN )	return 0;

  0082f	8b 46 04	 mov	 eax, DWORD PTR [esi+4]
  00832	8b d0		 mov	 edx, eax
  00834	81 e2 00 03 00
	00		 and	 edx, 768		; 00000300H
  0083a	81 fa 00 02 00
	00		 cmp	 edx, 512		; 00000200H
  00840	0f 84 1c f9 ff
	ff		 je	 $L274270

; 444  : 		if( IsSit() )		return 0;		//  0  ?.

  00846	f6 46 08 04	 test	 BYTE PTR [esi+8], 4
  0084a	0f 85 12 f9 ff
	ff		 jne	 $L274270

; 445  : 		if( IsAction() )	return 0;

  00850	a9 00 00 00 f0	 test	 eax, -268435456		; f0000000H
  00855	0f 85 07 f9 ff
	ff		 jne	 $L274270

; 446  : 		if( pMover->m_dwFlag & MVRF_NOMOVE )	return 0;		//    .

  0085b	8b 87 48 02 00
	00		 mov	 eax, DWORD PTR [edi+584]
  00861	f6 c4 01	 test	 ah, 1
  00864	0f 85 f8 f8 ff
	ff		 jne	 $L274270

; 447  : #if __VER >= 10 // __LEGEND	//	10 	Neuz, World, Trans
; 448  : 		if( pMover->GetAdjParam( DST_CHRSTATE ) & CHS_LOOT)			return 0;

  0086a	6a 40		 push	 64			; 00000040H
  0086c	8b cf		 mov	 ecx, edi
  0086e	e8 00 00 00 00	 call	 ?GetAdjParam@CMover@@QAEHH@Z ; CMover::GetAdjParam
  00873	a9 00 00 08 00	 test	 eax, 524288		; 00080000H
  00878	0f 85 e4 f8 ff
	ff		 jne	 $L274270

; 449  : #endif	//__LEGEND	//	10 	Neuz, World, Trans
; 450  : 
; 451  : 		SetTurnState( OBJSTA_RTURN );

  0087e	68 00 02 00 00	 push	 512			; 00000200H
  00883	8b ce		 mov	 ecx, esi
  00885	e8 00 00 00 00	 call	 ?SetTurnState@CAction@@QAEXK@Z ; CAction::SetTurnState

; 452  : 		break;

  0088a	e9 61 10 00 00	 jmp	 $L266767
$L266914:

; 453  : 	case OBJMSG_STOP_TURN:
; 454  : 		if( GetTurnState() == 0 )		return 0;		//      

  0088f	8b 46 04	 mov	 eax, DWORD PTR [esi+4]
  00892	f6 c4 03	 test	 ah, 3
  00895	0f 84 c7 f8 ff
	ff		 je	 $L274270

; 455  : 		SetTurnState( 0 );		//  

  0089b	6a 00		 push	 0
  0089d	8b ce		 mov	 ecx, esi
  0089f	e8 00 00 00 00	 call	 ?SetTurnState@CAction@@QAEXK@Z ; CAction::SetTurnState

; 456  : 		break;

  008a4	e9 47 10 00 00	 jmp	 $L266767
$L266916:

; 457  : 
; 458  : 	//  .   .
; 459  : 	case OBJMSG_LOOKUP:
; 460  : 		if( IsActJump() )	return -1;

  008a9	8b 46 04	 mov	 eax, DWORD PTR [esi+4]
  008ac	f6 c4 f0	 test	 ah, -16			; fffffff0H
  008af	0f 85 eb 06 00
	00		 jne	 $L274273

; 461  : 		if( IsActAttack() )		return -2;

  008b5	a9 00 00 ff 00	 test	 eax, 16711680		; 00ff0000H
  008ba	0f 85 1f 09 00
	00		 jne	 $L274271

; 462  : 		if( GetDmgState() == OBJSTA_DMG )	//       .

  008c0	25 00 00 00 0f	 and	 eax, 251658240		; 0f000000H
  008c5	3d 00 00 00 01	 cmp	 eax, 16777216		; 01000000H
  008ca	75 0e		 jne	 SHORT $L266919

; 463  : 			ResetState( OBJSTA_DMG_ALL );

  008cc	68 00 00 00 0f	 push	 251658240		; 0f000000H
  008d1	8b ce		 mov	 ecx, esi
  008d3	e8 00 00 00 00	 call	 ?ResetState@CAction@@QAEXK@Z ; CAction::ResetState

; 464  : 		else if( GetState() & OBJSTA_DMG_ALL )	//    

  008d8	eb 08		 jmp	 SHORT $L266921
$L266919:
  008da	85 c0		 test	 eax, eax

; 465  : 			return -3;

  008dc	0f 85 b3 07 00
	00		 jne	 $L274272
$L266921:

; 466  : 		if( GetTurnState() == OBJSTA_LOOKUP )	return 0;

  008e2	8b 46 04	 mov	 eax, DWORD PTR [esi+4]
  008e5	8b c8		 mov	 ecx, eax
  008e7	81 e1 00 03 00
	00		 and	 ecx, 768		; 00000300H
  008ed	81 f9 00 04 00
	00		 cmp	 ecx, 1024		; 00000400H
  008f3	0f 84 69 f8 ff
	ff		 je	 $L274270

; 467  : 		if( IsSit() )		return 0;		//  0  ?.

  008f9	f6 46 08 04	 test	 BYTE PTR [esi+8], 4
  008fd	0f 85 5f f8 ff
	ff		 jne	 $L274270

; 468  : 		if( IsAction() )	return 0;

  00903	a9 00 00 00 f0	 test	 eax, -268435456		; f0000000H
  00908	0f 85 54 f8 ff
	ff		 jne	 $L274270

; 469  : 		if( pMover->m_dwFlag & MVRF_NOMOVE )	return 0;		//    .

  0090e	8b 87 48 02 00
	00		 mov	 eax, DWORD PTR [edi+584]
  00914	f6 c4 01	 test	 ah, 1
  00917	0f 85 45 f8 ff
	ff		 jne	 $L274270

; 470  : #if __VER >= 10 // __LEGEND	//	10 	Neuz, World, Trans
; 471  : 		if( pMover->GetAdjParam( DST_CHRSTATE ) & CHS_LOOT)			return 0;

  0091d	6a 40		 push	 64			; 00000040H
  0091f	8b cf		 mov	 ecx, edi
  00921	e8 00 00 00 00	 call	 ?GetAdjParam@CMover@@QAEHH@Z ; CMover::GetAdjParam
  00926	a9 00 00 08 00	 test	 eax, 524288		; 00080000H
  0092b	0f 85 31 f8 ff
	ff		 jne	 $L274270

; 472  : #endif	//__LEGEND	//	10 	Neuz, World, Trans
; 473  : 
; 474  : 		SetLookState( OBJSTA_LOOKUP );

  00931	68 00 04 00 00	 push	 1024			; 00000400H
  00936	8b ce		 mov	 ecx, esi
  00938	e8 00 00 00 00	 call	 ?SetLookState@CAction@@QAEXK@Z ; CAction::SetLookState

; 475  : 		break;

  0093d	e9 ae 0f 00 00	 jmp	 $L266767
$L266927:

; 476  : 	case OBJMSG_LOOKDOWN:
; 477  : 		if( IsActJump() )	return -1;

  00942	8b 46 04	 mov	 eax, DWORD PTR [esi+4]
  00945	f6 c4 f0	 test	 ah, -16			; fffffff0H
  00948	0f 85 52 06 00
	00		 jne	 $L274273

; 478  : 		if( IsActAttack() )		return -2;

  0094e	a9 00 00 ff 00	 test	 eax, 16711680		; 00ff0000H
  00953	0f 85 86 08 00
	00		 jne	 $L274271

; 479  : 		if( GetDmgState() == OBJSTA_DMG )	//       .

  00959	25 00 00 00 0f	 and	 eax, 251658240		; 0f000000H
  0095e	3d 00 00 00 01	 cmp	 eax, 16777216		; 01000000H
  00963	75 0e		 jne	 SHORT $L266930

; 480  : 			ResetState( OBJSTA_DMG_ALL );

  00965	68 00 00 00 0f	 push	 251658240		; 0f000000H
  0096a	8b ce		 mov	 ecx, esi
  0096c	e8 00 00 00 00	 call	 ?ResetState@CAction@@QAEXK@Z ; CAction::ResetState

; 481  : 		else if( GetState() & OBJSTA_DMG_ALL )	//    

  00971	eb 08		 jmp	 SHORT $L266932
$L266930:
  00973	85 c0		 test	 eax, eax

; 482  : 			return -3;

  00975	0f 85 1a 07 00
	00		 jne	 $L274272
$L266932:

; 483  : 		if( GetTurnState() == OBJSTA_LOOKDOWN )	return 0;

  0097b	8b 46 04	 mov	 eax, DWORD PTR [esi+4]
  0097e	8b d0		 mov	 edx, eax
  00980	81 e2 00 03 00
	00		 and	 edx, 768		; 00000300H
  00986	81 fa 00 08 00
	00		 cmp	 edx, 2048		; 00000800H
  0098c	0f 84 d0 f7 ff
	ff		 je	 $L274270

; 484  : 		if( IsSit() )		return 0;		//  0  ?.

  00992	f6 46 08 04	 test	 BYTE PTR [esi+8], 4
  00996	0f 85 c6 f7 ff
	ff		 jne	 $L274270

; 485  : 		if( IsAction() )	return 0;

  0099c	a9 00 00 00 f0	 test	 eax, -268435456		; f0000000H
  009a1	0f 85 bb f7 ff
	ff		 jne	 $L274270

; 486  : 		if( pMover->m_dwFlag & MVRF_NOMOVE )	return 0;		//    .

  009a7	8b 87 48 02 00
	00		 mov	 eax, DWORD PTR [edi+584]
  009ad	f6 c4 01	 test	 ah, 1
  009b0	0f 85 ac f7 ff
	ff		 jne	 $L274270

; 487  : #if __VER >= 10 // __LEGEND	//	10 	Neuz, World, Trans
; 488  : 		if( pMover->GetAdjParam( DST_CHRSTATE ) & CHS_LOOT)			return 0;

  009b6	6a 40		 push	 64			; 00000040H
  009b8	8b cf		 mov	 ecx, edi
  009ba	e8 00 00 00 00	 call	 ?GetAdjParam@CMover@@QAEHH@Z ; CMover::GetAdjParam
  009bf	a9 00 00 08 00	 test	 eax, 524288		; 00080000H
  009c4	0f 85 98 f7 ff
	ff		 jne	 $L274270

; 489  : #endif	//__LEGEND	//	10 	Neuz, World, Trans
; 490  : 
; 491  : 		SetLookState( OBJSTA_LOOKDOWN );

  009ca	68 00 08 00 00	 push	 2048			; 00000800H
  009cf	8b ce		 mov	 ecx, esi
  009d1	e8 00 00 00 00	 call	 ?SetLookState@CAction@@QAEXK@Z ; CAction::SetLookState

; 492  : 		break;

  009d6	e9 15 0f 00 00	 jmp	 $L266767
$L266938:

; 493  : 	case OBJMSG_STOP_LOOK:
; 494  : 		if( GetLookState() == 0 )		return 0;

  009db	8b 46 04	 mov	 eax, DWORD PTR [esi+4]
  009de	f6 c4 0c	 test	 ah, 12			; 0000000cH
  009e1	0f 84 7b f7 ff
	ff		 je	 $L274270

; 495  : 		SetLookState( 0 );		//  

  009e7	6a 00		 push	 0
  009e9	8b ce		 mov	 ecx, esi
  009eb	e8 00 00 00 00	 call	 ?SetLookState@CAction@@QAEXK@Z ; CAction::SetLookState

; 496  : 		break;

  009f0	e9 fb 0e 00 00	 jmp	 $L266767
$L266940:

; 497  : 		// 
; 498  : 	case OBJMSG_JUMP:
; 499  : 		if( IsActJump() )		return 0;

  009f5	8b 46 04	 mov	 eax, DWORD PTR [esi+4]
  009f8	f6 c4 f0	 test	 ah, -16			; fffffff0H
  009fb	0f 85 61 f7 ff
	ff		 jne	 $L274270

; 500  : 		if( IsActAttack() )		return -2;

  00a01	a9 00 00 ff 00	 test	 eax, 16711680		; 00ff0000H
  00a06	0f 85 d3 07 00
	00		 jne	 $L274271

; 501  : 		if( IsActDamage() )		return -3;

  00a0c	a9 00 00 00 0f	 test	 eax, 251658240		; 0f000000H
  00a11	0f 85 7e 06 00
	00		 jne	 $L274272

; 502  : 		if( IsSit() )			return 0;		//  0  ?.

  00a17	f6 46 08 04	 test	 BYTE PTR [esi+8], 4
  00a1b	0f 85 41 f7 ff
	ff		 jne	 $L274270

; 503  : 		if( IsAction() )		return 0;

  00a21	a9 00 00 00 f0	 test	 eax, -268435456		; f0000000H
  00a26	0f 85 36 f7 ff
	ff		 jne	 $L274270

; 504  : 		if( pMover->m_dwFlag & MVRF_NOMOVE )	return 0;		//    .

  00a2c	8b 87 48 02 00
	00		 mov	 eax, DWORD PTR [edi+584]
  00a32	f6 c4 01	 test	 ah, 1
  00a35	0f 85 27 f7 ff
	ff		 jne	 $L274270

; 505  : #if __VER >= 10 // __LEGEND	//	10 	Neuz, World, Trans
; 506  : 		if( pMover->GetAdjParam( DST_CHRSTATE ) & CHS_LOOT)			return 0;

  00a3b	6a 40		 push	 64			; 00000040H
  00a3d	8b cf		 mov	 ecx, edi
  00a3f	e8 00 00 00 00	 call	 ?GetAdjParam@CMover@@QAEHH@Z ; CMover::GetAdjParam
  00a44	a9 00 00 08 00	 test	 eax, 524288		; 00080000H
  00a49	0f 85 13 f7 ff
	ff		 jne	 $L274270

; 507  : #endif	//__LEGEND	//	10 	Neuz, World, Trans
; 508  : 
; 509  : #ifdef __CLIENT
; 510  : 		if( pMover->IsActiveMover() )
; 511  : 		{
; 512  : 			if( pMover->m_dwReqFlag & REQ_USESKILL )	return 0;	//  useskill   .
; 513  : 			if( pMover->m_dwReqFlag & REQ_MOTION )		return 0;	//      .
; 514  : 		}
; 515  : #endif	// __CLIENT
; 516  : 		SendActMsg( OBJMSG_STOP_TURN );

  00a4f	8b 06		 mov	 eax, DWORD PTR [esi]
  00a51	6a 00		 push	 0
  00a53	6a 00		 push	 0
  00a55	6a 00		 push	 0
  00a57	6a 00		 push	 0
  00a59	6a 00		 push	 0
  00a5b	6a 0a		 push	 10			; 0000000aH
  00a5d	8b ce		 mov	 ecx, esi
  00a5f	ff 50 04	 call	 DWORD PTR [eax+4]

; 517  : 		SetJumpState( OBJSTA_SJUMP1 );

  00a62	68 00 50 00 00	 push	 20480			; 00005000H
  00a67	8b ce		 mov	 ecx, esi
  00a69	e8 00 00 00 00	 call	 ?SetJumpState@CAction@@QAEXK@Z ; CAction::SetJumpState

; 518  : 		if( (GetState() & OBJSTA_COLLECT)== 0 ) pMover->SetMotion( MTI_JUMP1, ANILOOP_1PLAY );

  00a6e	f7 46 04 00 00
	00 10		 test	 DWORD PTR [esi+4], 268435456 ; 10000000H
  00a75	75 0d		 jne	 SHORT $L266948
  00a77	8b 17		 mov	 edx, DWORD PTR [edi]
  00a79	6a 00		 push	 0
  00a7b	6a 01		 push	 1
  00a7d	6a 0d		 push	 13			; 0000000dH
  00a7f	8b cf		 mov	 ecx, edi
  00a81	ff 52 04	 call	 DWORD PTR [edx+4]
$L266948:

; 519  : 		pModel->SetMotionBlending( FALSE );

  00a84	6a 00		 push	 0
  00a86	8b cb		 mov	 ecx, ebx
  00a88	e8 00 00 00 00	 call	 ?SetMotionBlending@CModelObject@@QAEXH@Z ; CModelObject::SetMotionBlending

; 520  : 		break;

  00a8d	e9 5e 0e 00 00	 jmp	 $L266767
$L266949:

; 521  : 	// 
; 522  : 	case OBJMSG_ATK_MAGIC1:	//  1
; 523  : 		{
; 524  : 			if( IsAction() )	return 0;

  00a92	f7 46 04 00 00
	00 f0		 test	 DWORD PTR [esi+4], -268435456 ; f0000000H
  00a99	0f 85 c3 f6 ff
	ff		 jne	 $L274270

; 525  : 			if( IsSit() )		//  

  00a9f	f6 46 08 04	 test	 BYTE PTR [esi+8], 4
  00aa3	74 0c		 je	 SHORT $L266951

; 526  : 				ResetState( OBJSTA_MOVE_ALL );

  00aa5	68 ff 00 00 00	 push	 255			; 000000ffH
  00aaa	8b ce		 mov	 ecx, esi
  00aac	e8 00 00 00 00	 call	 ?ResetState@CAction@@QAEXK@Z ; CAction::ResetState
$L266951:

; 527  : 			if( GetState() & OBJSTA_ATK_ALL )	return 0;		//     .

  00ab1	f7 46 04 00 00
	ff 00		 test	 DWORD PTR [esi+4], 16711680 ; 00ff0000H
  00ab8	0f 85 a4 f6 ff
	ff		 jne	 $L274270

; 528  : 			if( pMover->m_dwFlag & MVRF_NOATTACK )	return -1;		//    .

  00abe	8b 87 48 02 00
	00		 mov	 eax, DWORD PTR [edi+584]
  00ac4	f6 c4 02	 test	 ah, 2
  00ac7	0f 85 d3 04 00
	00		 jne	 $L274273

; 529  : 			if( pMover->IsMode( NO_ATTACK_MODE ) ) return -1;

  00acd	f6 87 44 02 00
	00 40		 test	 BYTE PTR [edi+580], 64	; 00000040H
  00ad4	0f 85 08 01 00
	00		 jne	 $L274274

; 530  : 			CMover* pHitObj		= prj.GetMover( nParam1 );

  00ada	8b 44 24 70	 mov	 eax, DWORD PTR _nParam1$[esp+96]
  00ade	50		 push	 eax
  00adf	b9 00 00 00 00	 mov	 ecx, OFFSET FLAT:?prj@@3VCProject@@A
  00ae4	e8 00 00 00 00	 call	 ?GetMover@CProject@@QAEPAVCMover@@K@Z ; CProject::GetMover
  00ae9	8b d8		 mov	 ebx, eax

; 531  : 			if( IsInvalidObj( pHitObj ) )	return -1;

  00aeb	53		 push	 ebx
  00aec	e8 00 00 00 00	 call	 ?IsInvalidObj@@YAHPAVCObj@@@Z ; IsInvalidObj
  00af1	83 c4 04	 add	 esp, 4
  00af4	85 c0		 test	 eax, eax
  00af6	0f 85 a4 04 00
	00		 jne	 $L274273

; 532  : 			if( pHitObj->IsDie() )	return -1;

  00afc	8b cb		 mov	 ecx, ebx
  00afe	e8 00 00 00 00	 call	 ?IsDie@CMover@@QAEHXZ	; CMover::IsDie
  00b03	85 c0		 test	 eax, eax
  00b05	0f 85 95 04 00
	00		 jne	 $L274273

; 533  : #ifdef __WORLDSERVER
; 534  : 			if( !g_eLocal.GetState( EVE_STEAL ) )

  00b0b	6a 0d		 push	 13			; 0000000dH
  00b0d	b9 00 00 00 00	 mov	 ecx, OFFSET FLAT:?g_eLocal@@3VCFlyffEvent@@A
  00b12	e8 00 00 00 00	 call	 ?GetState@CFlyffEvent@@QAEEH@Z ; CFlyffEvent::GetState
  00b17	84 c0		 test	 al, al
  00b19	75 10		 jne	 SHORT $L266960

; 535  : 			{
; 536  : 				if( pMover->IsSteal( pHitObj ) )	// pHitObj   .

  00b1b	53		 push	 ebx
  00b1c	8b cf		 mov	 ecx, edi
  00b1e	e8 00 00 00 00	 call	 ?IsSteal@CMover@@QAEHPAV1@@Z ; CMover::IsSteal
  00b23	85 c0		 test	 eax, eax

; 537  : 					return -1;

  00b25	0f 85 75 04 00
	00		 jne	 $L274273
$L266960:

; 538  : 			}
; 539  : #endif
; 540  : 			if( IsActDamage() )

  00b2b	f7 46 04 00 00
	00 0f		 test	 DWORD PTR [esi+4], 251658240 ; 0f000000H
  00b32	74 0c		 je	 SHORT $L266961

; 541  : 				ResetState( OBJSTA_DMG_ALL );

  00b34	68 00 00 00 0f	 push	 251658240		; 0f000000H
  00b39	8b ce		 mov	 ecx, esi
  00b3b	e8 00 00 00 00	 call	 ?ResetState@CAction@@QAEXK@Z ; CAction::ResetState
$L266961:

; 542  : 			if( IsStateFlag( OBJSTAF_COMBAT ) == FALSE )

  00b40	f6 46 08 01	 test	 BYTE PTR [esi+8], 1
  00b44	75 13		 jne	 SHORT $L274257

; 543  : 				SendActMsg( OBJMSG_MODE_COMBAT );

  00b46	8b 16		 mov	 edx, DWORD PTR [esi]
  00b48	6a 00		 push	 0
  00b4a	6a 00		 push	 0
  00b4c	6a 00		 push	 0
  00b4e	6a 00		 push	 0
  00b50	6a 00		 push	 0
  00b52	6a 12		 push	 18			; 00000012H
  00b54	8b ce		 mov	 ecx, esi
  00b56	ff 52 04	 call	 DWORD PTR [edx+4]
$L274257:

; 544  : 		
; 545  : 			SendActMsg( OBJMSG_STOP_TURN );

  00b59	8b 06		 mov	 eax, DWORD PTR [esi]
  00b5b	6a 00		 push	 0
  00b5d	6a 00		 push	 0
  00b5f	6a 00		 push	 0
  00b61	6a 00		 push	 0
  00b63	6a 00		 push	 0
  00b65	6a 0a		 push	 10			; 0000000aH
  00b67	8b ce		 mov	 ecx, esi
  00b69	ff 50 04	 call	 DWORD PTR [eax+4]

; 546  : 			SendActMsg( OBJMSG_STAND );

  00b6c	8b 16		 mov	 edx, DWORD PTR [esi]
  00b6e	6a 00		 push	 0
  00b70	6a 00		 push	 0
  00b72	6a 00		 push	 0
  00b74	6a 00		 push	 0
  00b76	6a 00		 push	 0
  00b78	6a 03		 push	 3
  00b7a	8b ce		 mov	 ecx, esi
  00b7c	ff 52 04	 call	 DWORD PTR [edx+4]

; 547  : 			SetState( OBJSTA_ATK_ALL, OBJSTA_ATK_MAGIC1 );

  00b7f	68 00 00 05 00	 push	 327680			; 00050000H
  00b84	68 00 00 ff 00	 push	 16711680		; 00ff0000H
  00b89	8b ce		 mov	 ecx, esi
  00b8b	e8 00 00 00 00	 call	 ?SetState@CAction@@QAEXKK@Z ; CAction::SetState

; 548  : 			pMover->SetMotion( MTI_ATK1, ANILOOP_1PLAY );		//    .

  00b90	8b 07		 mov	 eax, DWORD PTR [edi]
  00b92	6a 00		 push	 0
  00b94	6a 01		 push	 1
  00b96	6a 17		 push	 23			; 00000017H
  00b98	8b cf		 mov	 ecx, edi
  00b9a	ff 50 04	 call	 DWORD PTR [eax+4]

; 549  : 			pHitObj->SetJJim( pMover );

  00b9d	57		 push	 edi
  00b9e	8b cb		 mov	 ecx, ebx
  00ba0	e8 00 00 00 00	 call	 ?SetJJim@CMover@@QAEXPAV1@@Z ; CMover::SetJJim

; 550  : 			pMover->m_nAtkCnt = 1;		//  .
; 551  : 			pMover->OnAttackStart( pHitObj, dwMsg );			//  .

  00ba5	55		 push	 ebp
  00ba6	53		 push	 ebx
  00ba7	8b cf		 mov	 ecx, edi
  00ba9	c7 87 b0 06 00
	00 01 00 00 00	 mov	 DWORD PTR [edi+1712], 1
  00bb3	e8 00 00 00 00	 call	 ?OnAttackStart@CMover@@QAEXPAV1@W4OBJMSG@@@Z ; CMover::OnAttackStart

; 552  : 		}
; 553  : 		break;

  00bb8	e9 33 0d 00 00	 jmp	 $L266767
$L266963:

; 554  : 		// 
; 555  : 	case OBJMSG_ATK_RANGE1:	//  1
; 556  : 		{
; 557  : 			if( IsAction() )	return 0;

  00bbd	f7 46 04 00 00
	00 f0		 test	 DWORD PTR [esi+4], -268435456 ; f0000000H
  00bc4	0f 85 98 f5 ff
	ff		 jne	 $L274270

; 558  : 			if( pMover->m_dwFlag & MVRF_NOATTACK )	return -1;		//    .

  00bca	8b 87 48 02 00
	00		 mov	 eax, DWORD PTR [edi+584]
  00bd0	f6 c4 02	 test	 ah, 2
  00bd3	0f 85 c7 03 00
	00		 jne	 $L274273

; 559  : 			if( pMover->IsMode( NO_ATTACK_MODE ) ) return -1;

  00bd9	f6 87 44 02 00
	00 40		 test	 BYTE PTR [edi+580], 64	; 00000040H
  00be0	74 1a		 je	 SHORT $L266967
$L274274:
  00be2	5f		 pop	 edi
  00be3	5e		 pop	 esi
  00be4	5d		 pop	 ebp
  00be5	b8 ff ff ff ff	 mov	 eax, -1
  00bea	5b		 pop	 ebx

; 1140 : 		break;
; 1141 : 
; 1142 : 
; 1143 : #if	defined(_DEBUG) && defined(__CLIENT)
; 1144 : 	case OBJMSG_TEMP:
; 1145 : 		{
; 1146 : 			for( int i=0; i < 1; i ++ )
; 1147 : 			{
; 1148 : 
; 1149 : 				CMover* pObj = new CMover;
; 1150 : 				D3DXVECTOR3 vPos = pMover->GetPos();
; 1151 : 				pObj->SetPos( vPos );
; 1152 : 				pObj->SetIndex( g_Neuz.m_pd3dDevice, MI_AIBATT1, TRUE );
; 1153 : 				pObj->SetMotion( 0 );
; 1154 : 				g_WorldMng.Get()->AddObj( pObj, TRUE ); 
; 1155 : 			}
; 1156 : 		}
; 1157 : 		break;
; 1158 : 		
; 1159 : 	case OBJMSG_TEMP2:	//   .
; 1160 : 		if( CMover::GetActiveMover()->IsAuthHigher( AUTH_GAMEMASTER ) )	//  
; 1161 : 		{
; 1162 : 			CObj *pObj = pMover->GetWorld()->GetObjFocus();
; 1163 : 			g_DPlay.SendCorrReq( pObj );
; 1164 : 			g_DPlay.SendError( FE_GENERAL, 0 );
; 1165 : 		}
; 1166 : 		break;
; 1167 : 	
; 1168 : 	case OBJMSG_TEMP3:
; 1169 : 		{
; 1170 : 		#ifdef __XUZHU			
; 1171 : 			g_DPlay.SendError( 0, 0 );
; 1172 : 		#endif
; 1173 : 		}
; 1174 : 		break;
; 1175 : #endif // defined(_DEBUG) && defined(__CLIENT)
; 1176 : 		
; 1177 : 	}
; 1178 : 	return 1;
; 1179 : }

  00beb	8b 4c 24 48	 mov	 ecx, DWORD PTR __$EHRec$[esp+84]
  00bef	64 89 0d 00 00
	00 00		 mov	 DWORD PTR fs:__except_list, ecx
  00bf6	83 c4 54	 add	 esp, 84			; 00000054H
  00bf9	c2 1c 00	 ret	 28			; 0000001cH
$L266967:

; 560  : 			if( IsSit() )		//  

  00bfc	f6 46 08 04	 test	 BYTE PTR [esi+8], 4
  00c00	74 0c		 je	 SHORT $L266968

; 561  : 				ResetState( OBJSTA_MOVE_ALL );

  00c02	68 ff 00 00 00	 push	 255			; 000000ffH
  00c07	8b ce		 mov	 ecx, esi
  00c09	e8 00 00 00 00	 call	 ?ResetState@CAction@@QAEXK@Z ; CAction::ResetState
$L266968:

; 562  : 			if( GetState() & OBJSTA_ATK_ALL )	return 0;		//     .

  00c0e	f7 46 04 00 00
	ff 00		 test	 DWORD PTR [esi+4], 16711680 ; 00ff0000H
  00c15	0f 85 47 f5 ff
	ff		 jne	 $L274270

; 563  : 			CMover* pHitObj		= prj.GetMover( nParam1 );

  00c1b	8b 6c 24 70	 mov	 ebp, DWORD PTR _nParam1$[esp+96]
  00c1f	55		 push	 ebp
  00c20	b9 00 00 00 00	 mov	 ecx, OFFSET FLAT:?prj@@3VCProject@@A
  00c25	e8 00 00 00 00	 call	 ?GetMover@CProject@@QAEPAVCMover@@K@Z ; CProject::GetMover
  00c2a	8b d8		 mov	 ebx, eax

; 564  : 			if( IsValidObj( (CObj*)pHitObj ) == FALSE )	

  00c2c	53		 push	 ebx
  00c2d	e8 00 00 00 00	 call	 ?IsValidObj@@YAHPAVCObj@@@Z ; IsValidObj
  00c32	83 c4 04	 add	 esp, 4
  00c35	85 c0		 test	 eax, eax

; 565  : 				return -1;

  00c37	0f 84 63 03 00
	00		 je	 $L274273

; 566  : 			if( pHitObj->IsDie() )

  00c3d	8b cb		 mov	 ecx, ebx
  00c3f	e8 00 00 00 00	 call	 ?IsDie@CMover@@QAEHXZ	; CMover::IsDie
  00c44	85 c0		 test	 eax, eax

; 567  : 				return -1;

  00c46	0f 85 54 03 00
	00		 jne	 $L274273

; 568  : 
; 569  : 			m_idTarget = (DWORD)nParam1;		//  .
; 570  : 
; 571  : #ifdef __WORLDSERVER
; 572  : 			if( !g_eLocal.GetState( EVE_STEAL ) )

  00c4c	6a 0d		 push	 13			; 0000000dH
  00c4e	b9 00 00 00 00	 mov	 ecx, OFFSET FLAT:?g_eLocal@@3VCFlyffEvent@@A
  00c53	89 ae 88 00 00
	00		 mov	 DWORD PTR [esi+136], ebp
  00c59	e8 00 00 00 00	 call	 ?GetState@CFlyffEvent@@QAEEH@Z ; CFlyffEvent::GetState
  00c5e	84 c0		 test	 al, al
  00c60	75 10		 jne	 SHORT $L266976

; 573  : 			{
; 574  : 				if( pMover->IsSteal( pHitObj ) )	// pHitObj   .

  00c62	53		 push	 ebx
  00c63	8b cf		 mov	 ecx, edi
  00c65	e8 00 00 00 00	 call	 ?IsSteal@CMover@@QAEHPAV1@@Z ; CMover::IsSteal
  00c6a	85 c0		 test	 eax, eax

; 575  : 					return -1;

  00c6c	0f 85 2e 03 00
	00		 jne	 $L274273
$L266976:

; 576  : 			}
; 577  : #endif
; 578  : 			if( GetDmgState() == OBJSTA_DMG )	//       .

  00c72	8b 46 04	 mov	 eax, DWORD PTR [esi+4]
  00c75	25 00 00 00 0f	 and	 eax, 251658240		; 0f000000H
  00c7a	3d 00 00 00 01	 cmp	 eax, 16777216		; 01000000H
  00c7f	75 0e		 jne	 SHORT $L266977

; 579  : 				ResetState( OBJSTA_DMG_ALL );

  00c81	68 00 00 00 0f	 push	 251658240		; 0f000000H
  00c86	8b ce		 mov	 ecx, esi
  00c88	e8 00 00 00 00	 call	 ?ResetState@CAction@@QAEXK@Z ; CAction::ResetState

; 580  : 			else if( GetState() & OBJSTA_DMG_ALL )	//    

  00c8d	eb 08		 jmp	 SHORT $L266979
$L266977:
  00c8f	85 c0		 test	 eax, eax

; 581  : 				return -1;

  00c91	0f 85 09 03 00
	00		 jne	 $L274273
$L266979:

; 582  : 			if( IsStateFlag( OBJSTAF_COMBAT ) == FALSE )

  00c97	f6 46 08 01	 test	 BYTE PTR [esi+8], 1
  00c9b	75 13		 jne	 SHORT $L274260

; 583  : 				SendActMsg( OBJMSG_MODE_COMBAT );

  00c9d	8b 16		 mov	 edx, DWORD PTR [esi]
  00c9f	6a 00		 push	 0
  00ca1	6a 00		 push	 0
  00ca3	6a 00		 push	 0
  00ca5	6a 00		 push	 0
  00ca7	6a 00		 push	 0
  00ca9	6a 12		 push	 18			; 00000012H
  00cab	8b ce		 mov	 ecx, esi
  00cad	ff 52 04	 call	 DWORD PTR [edx+4]
$L274260:

; 584  : 			
; 585  : 			int nUseMotion = nParam2;
; 586  : //			SendActMsg( OBJMSG_STOP_TURN );
; 587  : //			SendActMsg( OBJMSG_STAND );
; 588  : 			SetState( OBJSTA_ATK_ALL, OBJSTA_ATK_RANGE1 );

  00cb0	68 00 00 06 00	 push	 393216			; 00060000H
  00cb5	68 00 00 ff 00	 push	 16711680		; 00ff0000H
  00cba	8b ce		 mov	 ecx, esi
  00cbc	e8 00 00 00 00	 call	 ?SetState@CAction@@QAEXKK@Z ; CAction::SetState

; 589  : 			pMover->SetMotion( nUseMotion, ANILOOP_1PLAY );		//    .

  00cc1	8b 4c 24 74	 mov	 ecx, DWORD PTR _nParam2$[esp+96]
  00cc5	8b 07		 mov	 eax, DWORD PTR [edi]
  00cc7	6a 00		 push	 0
  00cc9	6a 01		 push	 1
  00ccb	51		 push	 ecx
  00ccc	8b cf		 mov	 ecx, edi
  00cce	ff 50 04	 call	 DWORD PTR [eax+4]

; 590  : 			pHitObj->SetJJim( pMover );			//      .

  00cd1	57		 push	 edi
  00cd2	8b cb		 mov	 ecx, ebx
  00cd4	e8 00 00 00 00	 call	 ?SetJJim@CMover@@QAEXPAV1@@Z ; CMover::SetJJim

; 591  : 			pMover->OnAttackStart( pHitObj, dwMsg );			//  .

  00cd9	8b 54 24 6c	 mov	 edx, DWORD PTR _dwMsg$[esp+96]
  00cdd	52		 push	 edx
  00cde	53		 push	 ebx
  00cdf	8b cf		 mov	 ecx, edi
  00ce1	e8 00 00 00 00	 call	 ?OnAttackStart@CMover@@QAEXPAV1@W4OBJMSG@@@Z ; CMover::OnAttackStart

; 592  : 			pMover->m_nAtkCnt = 1;		//  .

  00ce6	c7 87 b0 06 00
	00 01 00 00 00	 mov	 DWORD PTR [edi+1712], 1

; 593  : 		}
; 594  : 		break;

  00cf0	e9 fb 0b 00 00	 jmp	 $L266767
$L266982:

; 595  : 		//  -  -2      .
; 596  : 	case OBJMSG_ATK1:	//  1
; 597  : 	case OBJMSG_ATK2:	//  2
; 598  : 	case OBJMSG_ATK3:	//  3	
; 599  : 	case OBJMSG_ATK4:	//  4
; 600  : 		{
; 601  : 			if( IsAction() )

  00cf5	f7 46 04 00 00
	00 f0		 test	 DWORD PTR [esi+4], -268435456 ; f0000000H

; 602  : 				return 0;

  00cfc	0f 85 60 f4 ff
	ff		 jne	 $L274270

; 603  : 			if( pMover->m_dwFlag & MVRF_NOATTACK )

  00d02	8b 87 48 02 00
	00		 mov	 eax, DWORD PTR [edi+584]
  00d08	f6 c4 02	 test	 ah, 2

; 604  : 				return -2;		//    .

  00d0b	0f 85 ce 04 00
	00		 jne	 $L274271

; 605  : 			if( pMover->IsMode( NO_ATTACK_MODE ) )

  00d11	f6 87 44 02 00
	00 40		 test	 BYTE PTR [edi+580], 64	; 00000040H

; 606  : 				return -2;

  00d18	0f 85 c1 04 00
	00		 jne	 $L274271

; 607  : 
; 608  : #ifdef __CLIENT
; 609  : 			if( pMover->IsActiveMover() )
; 610  : #endif
; 611  : 			{
; 612  : 				//   (  )
; 613  : 				CItemElem* pItemElem = pMover->GetWeaponItem();

  00d1e	6a 0a		 push	 10			; 0000000aH
  00d20	8b cf		 mov	 ecx, edi
  00d22	e8 00 00 00 00	 call	 ?GetWeaponItem@CMover@@QAEPAVCItemElem@@H@Z ; CMover::GetWeaponItem
  00d27	8b d8		 mov	 ebx, eax

; 614  : #ifdef __CROSSBOW
; 615  : 				if( pItemElem && (pItemElem->GetProp()->dwItemKind3 == IK3_WAND || pItemElem->GetProp()->dwItemKind3 == IK3_BOW || pItemElem->GetProp()->dwItemKind3 == IK3_CROSSBOW ))

  00d29	85 db		 test	 ebx, ebx
  00d2b	74 33		 je	 SHORT $L266988
  00d2d	8b cb		 mov	 ecx, ebx
  00d2f	e8 00 00 00 00	 call	 ?GetPropA@CItemElem@@QAEPAUItemProp@@XZ ; CItemElem::GetPropA
  00d34	83 78 78 06	 cmp	 DWORD PTR [eax+120], 6
  00d38	0f 84 a1 04 00
	00		 je	 $L274271
  00d3e	8b cb		 mov	 ecx, ebx
  00d40	e8 00 00 00 00	 call	 ?GetPropA@CItemElem@@QAEPAUItemProp@@XZ ; CItemElem::GetPropA
  00d45	83 78 78 0c	 cmp	 DWORD PTR [eax+120], 12	; 0000000cH
  00d49	0f 84 90 04 00
	00		 je	 $L274271
  00d4f	8b cb		 mov	 ecx, ebx
  00d51	e8 00 00 00 00	 call	 ?GetPropA@CItemElem@@QAEPAUItemProp@@XZ ; CItemElem::GetPropA
  00d56	83 78 78 0e	 cmp	 DWORD PTR [eax+120], 14	; 0000000eH

; 616  : #else // __CROSSBOW
; 617  : 				if( pItemElem && (pItemElem->GetProp()->dwItemKind3 == IK3_WAND || pItemElem->GetProp()->dwItemKind3 == IK3_BOW ) )
; 618  : #endif // __CROSSBOW	
; 619  : 					return -2;

  00d5a	0f 84 7f 04 00
	00		 je	 $L274271
$L266988:

; 620  : 			}
; 621  : 				
; 622  : 			CMover* pHitObj		= prj.GetMover( nParam1 );

  00d60	8b 6c 24 70	 mov	 ebp, DWORD PTR _nParam1$[esp+96]
  00d64	55		 push	 ebp
  00d65	b9 00 00 00 00	 mov	 ecx, OFFSET FLAT:?prj@@3VCProject@@A
  00d6a	e8 00 00 00 00	 call	 ?GetMover@CProject@@QAEPAVCMover@@K@Z ; CProject::GetMover
  00d6f	8b d8		 mov	 ebx, eax

; 623  : 			if( IsValidObj( (CObj*)pHitObj ) == FALSE )

  00d71	53		 push	 ebx
  00d72	e8 00 00 00 00	 call	 ?IsValidObj@@YAHPAVCObj@@@Z ; IsValidObj
  00d77	83 c4 04	 add	 esp, 4
  00d7a	85 c0		 test	 eax, eax

; 624  : 				return( -1 );

  00d7c	0f 84 1e 02 00
	00		 je	 $L274273

; 625  : 
; 626  : #ifdef __XUZHU
; 627  : 			if( pMover->IsPlayer() )
; 628  : 			{
; 629  : 				int a = 0;
; 630  : 			}
; 631  : #endif // xuzhu
; 632  : 			m_idTarget = (DWORD)nParam1;		//  .
; 633  : #ifdef __WORLDSERVER
; 634  : 			if( !g_eLocal.GetState( EVE_STEAL ) )

  00d82	6a 0d		 push	 13			; 0000000dH
  00d84	b9 00 00 00 00	 mov	 ecx, OFFSET FLAT:?g_eLocal@@3VCFlyffEvent@@A
  00d89	89 ae 88 00 00
	00		 mov	 DWORD PTR [esi+136], ebp
  00d8f	e8 00 00 00 00	 call	 ?GetState@CFlyffEvent@@QAEEH@Z ; CFlyffEvent::GetState
  00d94	84 c0		 test	 al, al
  00d96	75 10		 jne	 SHORT $L266995

; 635  : 			{
; 636  : 				if( pMover->IsSteal( pHitObj ) )	// pHitObj   .

  00d98	53		 push	 ebx
  00d99	8b cf		 mov	 ecx, edi
  00d9b	e8 00 00 00 00	 call	 ?IsSteal@CMover@@QAEHPAV1@@Z ; CMover::IsSteal
  00da0	85 c0		 test	 eax, eax

; 637  : 					return -2;

  00da2	0f 85 37 04 00
	00		 jne	 $L274271
$L266995:

; 638  : 			}
; 639  : #endif
; 640  : 			if( pHitObj->m_pActMover->IsDie() )	return( -1 );

  00da8	8b 83 3c 02 00
	00		 mov	 eax, DWORD PTR [ebx+572]
  00dae	f7 40 04 00 00
	00 08		 test	 DWORD PTR [eax+4], 134217728 ; 08000000H
  00db5	0f 85 e5 01 00
	00		 jne	 $L274273

; 641  : 			if( GetState() & OBJSTA_ATK_ALL )	return( 0 );	//   

  00dbb	f7 46 04 00 00
	ff 00		 test	 DWORD PTR [esi+4], 16711680 ; 00ff0000H
  00dc2	0f 85 9a f3 ff
	ff		 jne	 $L274270

; 642  : 			if( IsSit() )		//  

  00dc8	f6 46 08 04	 test	 BYTE PTR [esi+8], 4
  00dcc	74 0c		 je	 SHORT $L266998

; 643  : 				ResetState( OBJSTA_MOVE_ALL );

  00dce	68 ff 00 00 00	 push	 255			; 000000ffH
  00dd3	8b ce		 mov	 ecx, esi
  00dd5	e8 00 00 00 00	 call	 ?ResetState@CAction@@QAEXK@Z ; CAction::ResetState
$L266998:

; 644  : 			if( GetDmgState() == OBJSTA_DMG )	//       .

  00dda	8b 46 04	 mov	 eax, DWORD PTR [esi+4]
  00ddd	25 00 00 00 0f	 and	 eax, 251658240		; 0f000000H
  00de2	3d 00 00 00 01	 cmp	 eax, 16777216		; 01000000H
  00de7	75 0e		 jne	 SHORT $L266999

; 645  : 				ResetState( OBJSTA_DMG_ALL );

  00de9	68 00 00 00 0f	 push	 251658240		; 0f000000H
  00dee	8b ce		 mov	 ecx, esi
  00df0	e8 00 00 00 00	 call	 ?ResetState@CAction@@QAEXK@Z ; CAction::ResetState

; 646  : 			else

  00df5	eb 08		 jmp	 SHORT $L267001
$L266999:

; 647  : 			if( GetState() & OBJSTA_DMG_ALL )	//    

  00df7	85 c0		 test	 eax, eax

; 648  : 				return -3;

  00df9	0f 85 96 02 00
	00		 jne	 $L274272
$L267001:

; 649  : 			if( IsStateFlag( OBJSTAF_COMBAT ) == FALSE )

  00dff	f6 46 08 01	 test	 BYTE PTR [esi+8], 1
  00e03	75 13		 jne	 SHORT $L267002

; 650  : 				SendActMsg( OBJMSG_MODE_COMBAT );

  00e05	8b 16		 mov	 edx, DWORD PTR [esi]
  00e07	6a 00		 push	 0
  00e09	6a 00		 push	 0
  00e0b	6a 00		 push	 0
  00e0d	6a 00		 push	 0
  00e0f	6a 00		 push	 0
  00e11	6a 12		 push	 18			; 00000012H
  00e13	8b ce		 mov	 ecx, esi
  00e15	ff 52 04	 call	 DWORD PTR [edx+4]
$L267002:

; 651  : 			SendActMsg( OBJMSG_STOP_TURN );	//   

  00e18	8b 06		 mov	 eax, DWORD PTR [esi]
  00e1a	6a 00		 push	 0
  00e1c	6a 00		 push	 0
  00e1e	6a 00		 push	 0
  00e20	6a 00		 push	 0
  00e22	6a 00		 push	 0
  00e24	6a 0a		 push	 10			; 0000000aH
  00e26	8b ce		 mov	 ecx, esi
  00e28	ff 50 04	 call	 DWORD PTR [eax+4]

; 652  : 			SendActMsg( OBJMSG_STAND );

  00e2b	8b 16		 mov	 edx, DWORD PTR [esi]
  00e2d	6a 00		 push	 0
  00e2f	6a 00		 push	 0
  00e31	6a 00		 push	 0
  00e33	6a 00		 push	 0
  00e35	6a 00		 push	 0
  00e37	6a 03		 push	 3
  00e39	8b ce		 mov	 ecx, esi
  00e3b	ff 52 04	 call	 DWORD PTR [edx+4]

; 653  : 			
; 654  : 
; 655  : 			DWORD dwOption = MOP_SWDFORCE | MOP_NO_TRANS;
; 656  : 			
; 657  : #ifdef __XSLOW1018
; 658  : 			int nMin, nTemp;
; 659  : 			pMover->GetHitMinMax( &nMin, &nTemp );
; 660  : 			if( dwMsg == OBJMSG_ATK3 || dwMsg == OBJMSG_ATK4 )
; 661  : 				if( pMover->GetLevel() >= 12 && pHitObj->GetHitPoint() < (int)(nMin * 1.5f) )
; 662  : 					dwOption |= MOP_HITSLOW;
; 663  : #endif // xSlow1018
; 664  : 			if( pMover->IsPlayer() )

  00e3e	8b 87 34 02 00
	00		 mov	 eax, DWORD PTR [edi+564]
  00e44	85 c0		 test	 eax, eax
  00e46	74 0d		 je	 SHORT $L267004

; 665  : 				pMover->m_fAniSpeed = pMover->GetAttackSpeed();

  00e48	8b cf		 mov	 ecx, edi
  00e4a	e8 00 00 00 00	 call	 ?GetAttackSpeed@CMover@@QAEMXZ ; CMover::GetAttackSpeed
  00e4f	d9 9f 54 02 00
	00		 fstp	 DWORD PTR [edi+596]
$L267004:

; 666  : 			
; 667  : 			switch( dwMsg )

  00e55	8b 44 24 6c	 mov	 eax, DWORD PTR _dwMsg$[esp+96]
  00e59	83 c0 e3	 add	 eax, -29		; ffffffe3H
  00e5c	83 f8 03	 cmp	 eax, 3
  00e5f	77 7e		 ja	 SHORT $L274258
  00e61	ff 24 85 00 00
	00 00		 jmp	 DWORD PTR $L274278[eax*4]
$L267009:

; 668  : 			{
; 669  : 				case OBJMSG_ATK1:
; 670  : 					SetState( OBJSTA_ATK_ALL, OBJSTA_ATK1 );

  00e68	68 00 00 01 00	 push	 65536			; 00010000H
  00e6d	68 00 00 ff 00	 push	 16711680		; 00ff0000H
  00e72	8b ce		 mov	 ecx, esi
  00e74	e8 00 00 00 00	 call	 ?SetState@CAction@@QAEXKK@Z ; CAction::SetState

; 671  : 					pMover->SetMotion( MTI_ATK1, ANILOOP_1PLAY, dwOption );		//     

  00e79	8b 07		 mov	 eax, DWORD PTR [edi]
  00e7b	6a 05		 push	 5
  00e7d	6a 01		 push	 1
  00e7f	6a 17		 push	 23			; 00000017H
  00e81	8b cf		 mov	 ecx, edi
  00e83	ff 50 04	 call	 DWORD PTR [eax+4]

; 672  : 					break;

  00e86	eb 57		 jmp	 SHORT $L274258
$L267010:

; 673  : 				case OBJMSG_ATK2:	
; 674  : 					SetState( OBJSTA_ATK_ALL, OBJSTA_ATK2 );

  00e88	68 00 00 02 00	 push	 131072			; 00020000H
  00e8d	68 00 00 ff 00	 push	 16711680		; 00ff0000H
  00e92	8b ce		 mov	 ecx, esi
  00e94	e8 00 00 00 00	 call	 ?SetState@CAction@@QAEXKK@Z ; CAction::SetState

; 675  : 					pMover->SetMotion( MTI_ATK2, ANILOOP_1PLAY, dwOption );		//     

  00e99	6a 05		 push	 5
  00e9b	6a 01		 push	 1
  00e9d	6a 18		 push	 24			; 00000018H

; 676  : 					break;

  00e9f	eb 37		 jmp	 SHORT $L274267
$L267011:

; 677  : 				case OBJMSG_ATK3:	
; 678  : 					SetState( OBJSTA_ATK_ALL, OBJSTA_ATK3 );

  00ea1	68 00 00 03 00	 push	 196608			; 00030000H
  00ea6	68 00 00 ff 00	 push	 16711680		; 00ff0000H
  00eab	8b ce		 mov	 ecx, esi
  00ead	e8 00 00 00 00	 call	 ?SetState@CAction@@QAEXKK@Z ; CAction::SetState

; 679  : 					pMover->SetMotion( MTI_ATK3, ANILOOP_1PLAY, dwOption );		//     

  00eb2	8b 07		 mov	 eax, DWORD PTR [edi]
  00eb4	6a 05		 push	 5
  00eb6	6a 01		 push	 1
  00eb8	6a 19		 push	 25			; 00000019H
  00eba	8b cf		 mov	 ecx, edi
  00ebc	ff 50 04	 call	 DWORD PTR [eax+4]

; 680  : 					break;

  00ebf	eb 1e		 jmp	 SHORT $L274258
$L267012:

; 681  : 				case OBJMSG_ATK4:	
; 682  : 					SetState( OBJSTA_ATK_ALL, OBJSTA_ATK4 );

  00ec1	68 00 00 04 00	 push	 262144			; 00040000H
  00ec6	68 00 00 ff 00	 push	 16711680		; 00ff0000H
  00ecb	8b ce		 mov	 ecx, esi
  00ecd	e8 00 00 00 00	 call	 ?SetState@CAction@@QAEXKK@Z ; CAction::SetState

; 683  : 					pMover->SetMotion( MTI_ATK4, ANILOOP_1PLAY, dwOption );		//     

  00ed2	6a 05		 push	 5
  00ed4	6a 01		 push	 1
  00ed6	6a 1a		 push	 26			; 0000001aH
$L274267:
  00ed8	8b 17		 mov	 edx, DWORD PTR [edi]
  00eda	8b cf		 mov	 ecx, edi
  00edc	ff 52 04	 call	 DWORD PTR [edx+4]
$L274258:

; 684  : 					break;
; 685  : 			}
; 686  : 			pMover->SetAngle( GetDegree( pHitObj->GetPos(), m_pMover->GetPos() ) );

  00edf	8b 4e 0c	 mov	 ecx, DWORD PTR [esi+12]
  00ee2	8d 44 24 10	 lea	 eax, DWORD PTR $T273621[esp+100]
  00ee6	50		 push	 eax
  00ee7	e8 00 00 00 00	 call	 ?GetPos@CObj@@QAE?AUD3DXVECTOR3@@XZ ; CObj::GetPos
  00eec	50		 push	 eax
  00eed	8d 4c 24 20	 lea	 ecx, DWORD PTR $T273622[esp+104]
  00ef1	51		 push	 ecx
  00ef2	8b cb		 mov	 ecx, ebx
  00ef4	e8 00 00 00 00	 call	 ?GetPos@CObj@@QAE?AUD3DXVECTOR3@@XZ ; CObj::GetPos
  00ef9	50		 push	 eax
  00efa	e8 00 00 00 00	 call	 ?GetDegree@@YAMABUD3DXVECTOR3@@0@Z ; GetDegree
  00eff	d9 5c 24 04	 fstp	 DWORD PTR [esp+4]
  00f03	83 c4 04	 add	 esp, 4
  00f06	8b cf		 mov	 ecx, edi
  00f08	e8 00 00 00 00	 call	 ?SetAngle@CObj@@QAEXM@Z	; CObj::SetAngle

; 687  : 			pHitObj->SetJJim( pMover );

  00f0d	57		 push	 edi
  00f0e	8b cb		 mov	 ecx, ebx
  00f10	e8 00 00 00 00	 call	 ?SetJJim@CMover@@QAEXPAV1@@Z ; CMover::SetJJim

; 688  : 
; 689  : 			pMover->m_nAtkCnt = 1;		//  .
; 690  : 			pMover->OnAttackStart( pHitObj, dwMsg );			//  .

  00f15	8b 54 24 6c	 mov	 edx, DWORD PTR _dwMsg$[esp+96]
  00f19	52		 push	 edx
  00f1a	53		 push	 ebx
  00f1b	8b cf		 mov	 ecx, edi
  00f1d	c7 87 b0 06 00
	00 01 00 00 00	 mov	 DWORD PTR [edi+1712], 1
  00f27	e8 00 00 00 00	 call	 ?OnAttackStart@CMover@@QAEXPAV1@W4OBJMSG@@@Z ; CMover::OnAttackStart

; 691  : 			m_objidHit	= (OBJID)nParam1;	//  .	
; 692  : 
; 693  : 			m_dwAtkFlags	= (DWORD)LOWORD( (DWORD)nParam3 );

  00f2c	0f b7 44 24 78	 movzx	 eax, WORD PTR _nParam3$[esp+96]

; 694  : #ifdef __WORLDSERVER
; 695  : 			if( m_dwAtkFlags == 0 ) 

  00f31	85 c0		 test	 eax, eax
  00f33	89 ae a4 00 00
	00		 mov	 DWORD PTR [esi+164], ebp
  00f39	89 86 94 00 00
	00		 mov	 DWORD PTR [esi+148], eax
  00f3f	75 17		 jne	 SHORT $L267021

; 696  : 			{
; 697  : 				if( pMover->GetAttackResult( pHitObj, dwOption ) )		//   .

  00f41	6a 05		 push	 5
  00f43	53		 push	 ebx
  00f44	8b cf		 mov	 ecx, edi
  00f46	e8 00 00 00 00	 call	 ?GetAttackResult@CMover@@QAEHPAV1@K@Z ; CMover::GetAttackResult
  00f4b	f7 d8		 neg	 eax
  00f4d	1b c0		 sbb	 eax, eax
  00f4f	83 c0 02	 add	 eax, 2
  00f52	89 86 94 00 00
	00		 mov	 DWORD PTR [esi+148], eax
$L267021:

; 698  : 					m_dwAtkFlags = AF_GENERIC;
; 699  : 				else
; 700  : 					m_dwAtkFlags = AF_MISS;
; 701  : 			}
; 702  : #else
; 703  : 			m_dwAtkFlags = AF_GENERIC;		//   .       .
; 704  : #endif
; 705  : 			
; 706  : 			return( (int)m_dwAtkFlags );

  00f58	8b 86 94 00 00
	00		 mov	 eax, DWORD PTR [esi+148]
  00f5e	5f		 pop	 edi
  00f5f	5e		 pop	 esi
  00f60	5d		 pop	 ebp
  00f61	5b		 pop	 ebx

; 1140 : 		break;
; 1141 : 
; 1142 : 
; 1143 : #if	defined(_DEBUG) && defined(__CLIENT)
; 1144 : 	case OBJMSG_TEMP:
; 1145 : 		{
; 1146 : 			for( int i=0; i < 1; i ++ )
; 1147 : 			{
; 1148 : 
; 1149 : 				CMover* pObj = new CMover;
; 1150 : 				D3DXVECTOR3 vPos = pMover->GetPos();
; 1151 : 				pObj->SetPos( vPos );
; 1152 : 				pObj->SetIndex( g_Neuz.m_pd3dDevice, MI_AIBATT1, TRUE );
; 1153 : 				pObj->SetMotion( 0 );
; 1154 : 				g_WorldMng.Get()->AddObj( pObj, TRUE ); 
; 1155 : 			}
; 1156 : 		}
; 1157 : 		break;
; 1158 : 		
; 1159 : 	case OBJMSG_TEMP2:	//   .
; 1160 : 		if( CMover::GetActiveMover()->IsAuthHigher( AUTH_GAMEMASTER ) )	//  
; 1161 : 		{
; 1162 : 			CObj *pObj = pMover->GetWorld()->GetObjFocus();
; 1163 : 			g_DPlay.SendCorrReq( pObj );
; 1164 : 			g_DPlay.SendError( FE_GENERAL, 0 );
; 1165 : 		}
; 1166 : 		break;
; 1167 : 	
; 1168 : 	case OBJMSG_TEMP3:
; 1169 : 		{
; 1170 : 		#ifdef __XUZHU			
; 1171 : 			g_DPlay.SendError( 0, 0 );
; 1172 : 		#endif
; 1173 : 		}
; 1174 : 		break;
; 1175 : #endif // defined(_DEBUG) && defined(__CLIENT)
; 1176 : 		
; 1177 : 	}
; 1178 : 	return 1;
; 1179 : }

  00f62	8b 4c 24 48	 mov	 ecx, DWORD PTR __$EHRec$[esp+84]
  00f66	64 89 0d 00 00
	00 00		 mov	 DWORD PTR fs:__except_list, ecx
  00f6d	83 c4 54	 add	 esp, 84			; 00000054H
  00f70	c2 1c 00	 ret	 28			; 0000001cH
$L267026:

; 707  : 			break;
; 708  : 		}	
; 709  : 	//  .
; 710  : 	case OBJMSG_SP_ATK1:
; 711  : 	case OBJMSG_SP_ATK2:
; 712  : 		{
; 713  : 			CMover* pHitObj		= prj.GetMover( nParam1 );

  00f73	8b 44 24 70	 mov	 eax, DWORD PTR _nParam1$[esp+96]
  00f77	50		 push	 eax
  00f78	b9 00 00 00 00	 mov	 ecx, OFFSET FLAT:?prj@@3VCProject@@A
  00f7d	e8 00 00 00 00	 call	 ?GetMover@CProject@@QAEPAVCMover@@K@Z ; CProject::GetMover
  00f82	8b d8		 mov	 ebx, eax

; 714  : 			//nParam2;		//   .    .
; 715  : 			int		nUseMotion	= nParam3;		//  .
; 716  : 			if( IsValidObj( (CObj*)pHitObj ) == FALSE )	return( -1 );

  00f84	53		 push	 ebx
  00f85	e8 00 00 00 00	 call	 ?IsValidObj@@YAHPAVCObj@@@Z ; IsValidObj
  00f8a	83 c4 04	 add	 esp, 4
  00f8d	85 c0		 test	 eax, eax
  00f8f	74 0f		 je	 SHORT $L274273

; 717  : 			if( pHitObj->m_pActMover->IsDie() )	return( -1 );

  00f91	8b 8b 3c 02 00
	00		 mov	 ecx, DWORD PTR [ebx+572]
  00f97	f7 41 04 00 00
	00 08		 test	 DWORD PTR [ecx+4], 134217728 ; 08000000H
  00f9e	74 18		 je	 SHORT $L267031
$L274273:
  00fa0	5f		 pop	 edi
  00fa1	5e		 pop	 esi
  00fa2	5d		 pop	 ebp
  00fa3	83 c8 ff	 or	 eax, -1
  00fa6	5b		 pop	 ebx

; 1140 : 		break;
; 1141 : 
; 1142 : 
; 1143 : #if	defined(_DEBUG) && defined(__CLIENT)
; 1144 : 	case OBJMSG_TEMP:
; 1145 : 		{
; 1146 : 			for( int i=0; i < 1; i ++ )
; 1147 : 			{
; 1148 : 
; 1149 : 				CMover* pObj = new CMover;
; 1150 : 				D3DXVECTOR3 vPos = pMover->GetPos();
; 1151 : 				pObj->SetPos( vPos );
; 1152 : 				pObj->SetIndex( g_Neuz.m_pd3dDevice, MI_AIBATT1, TRUE );
; 1153 : 				pObj->SetMotion( 0 );
; 1154 : 				g_WorldMng.Get()->AddObj( pObj, TRUE ); 
; 1155 : 			}
; 1156 : 		}
; 1157 : 		break;
; 1158 : 		
; 1159 : 	case OBJMSG_TEMP2:	//   .
; 1160 : 		if( CMover::GetActiveMover()->IsAuthHigher( AUTH_GAMEMASTER ) )	//  
; 1161 : 		{
; 1162 : 			CObj *pObj = pMover->GetWorld()->GetObjFocus();
; 1163 : 			g_DPlay.SendCorrReq( pObj );
; 1164 : 			g_DPlay.SendError( FE_GENERAL, 0 );
; 1165 : 		}
; 1166 : 		break;
; 1167 : 	
; 1168 : 	case OBJMSG_TEMP3:
; 1169 : 		{
; 1170 : 		#ifdef __XUZHU			
; 1171 : 			g_DPlay.SendError( 0, 0 );
; 1172 : 		#endif
; 1173 : 		}
; 1174 : 		break;
; 1175 : #endif // defined(_DEBUG) && defined(__CLIENT)
; 1176 : 		
; 1177 : 	}
; 1178 : 	return 1;
; 1179 : }

  00fa7	8b 4c 24 48	 mov	 ecx, DWORD PTR __$EHRec$[esp+84]
  00fab	64 89 0d 00 00
	00 00		 mov	 DWORD PTR fs:__except_list, ecx
  00fb2	83 c4 54	 add	 esp, 84			; 00000054H
  00fb5	c2 1c 00	 ret	 28			; 0000001cH
$L267031:

; 718  : 			if( GetState() & OBJSTA_ATK_ALL )	return( 0 );	//   

  00fb8	8b 46 04	 mov	 eax, DWORD PTR [esi+4]
  00fbb	a9 00 00 ff 00	 test	 eax, 16711680		; 00ff0000H
  00fc0	0f 85 9c f1 ff
	ff		 jne	 $L274270

; 719  : 			if( pMover->m_dwFlag & MVRF_NOATTACK )	return 0;		//    .

  00fc6	8b 8f 48 02 00
	00		 mov	 ecx, DWORD PTR [edi+584]
  00fcc	f6 c5 02	 test	 ch, 2
  00fcf	0f 85 8d f1 ff
	ff		 jne	 $L274270

; 720  : 			if( GetDmgState() == OBJSTA_DMG )	//       .

  00fd5	25 00 00 00 0f	 and	 eax, 251658240		; 0f000000H
  00fda	3d 00 00 00 01	 cmp	 eax, 16777216		; 01000000H
  00fdf	0f 85 a8 00 00
	00		 jne	 $L267034

; 721  : 				ResetState( OBJSTA_DMG_ALL );

  00fe5	68 00 00 00 0f	 push	 251658240		; 0f000000H
  00fea	8b ce		 mov	 ecx, esi
  00fec	e8 00 00 00 00	 call	 ?ResetState@CAction@@QAEXK@Z ; CAction::ResetState
$L267036:

; 725  : 			if( IsStateFlag( OBJSTAF_COMBAT ) == FALSE )

  00ff1	f6 46 08 01	 test	 BYTE PTR [esi+8], 1
  00ff5	75 13		 jne	 SHORT $L267037

; 726  : 				SendActMsg( OBJMSG_MODE_COMBAT );

  00ff7	8b 16		 mov	 edx, DWORD PTR [esi]
  00ff9	6a 00		 push	 0
  00ffb	6a 00		 push	 0
  00ffd	6a 00		 push	 0
  00fff	6a 00		 push	 0
  01001	6a 00		 push	 0
  01003	6a 12		 push	 18			; 00000012H
  01005	8b ce		 mov	 ecx, esi
  01007	ff 52 04	 call	 DWORD PTR [edx+4]
$L267037:

; 727  : 			SendActMsg( OBJMSG_STOP_TURN );	//   

  0100a	8b 06		 mov	 eax, DWORD PTR [esi]
  0100c	6a 00		 push	 0
  0100e	6a 00		 push	 0
  01010	6a 00		 push	 0
  01012	6a 00		 push	 0
  01014	6a 00		 push	 0
  01016	6a 0a		 push	 10			; 0000000aH
  01018	8b ce		 mov	 ecx, esi
  0101a	ff 50 04	 call	 DWORD PTR [eax+4]

; 728  : 			SendActMsg( OBJMSG_STAND );

  0101d	8b 16		 mov	 edx, DWORD PTR [esi]
  0101f	6a 00		 push	 0
  01021	6a 00		 push	 0
  01023	6a 00		 push	 0
  01025	6a 00		 push	 0
  01027	6a 00		 push	 0
  01029	6a 03		 push	 3
  0102b	8b ce		 mov	 ecx, esi
  0102d	ff 52 04	 call	 DWORD PTR [edx+4]

; 729  : 
; 730  : 			DWORD dwOption = MOP_SWDFORCE /*| MOP_NO_TRANS*/;	//     .
; 731  : 			SetState( OBJSTA_ATK_ALL, OBJSTA_SP_ATK1 );

  01030	68 00 00 10 00	 push	 1048576			; 00100000H
  01035	68 00 00 ff 00	 push	 16711680		; 00ff0000H
  0103a	8b ce		 mov	 ecx, esi
  0103c	e8 00 00 00 00	 call	 ?SetState@CAction@@QAEXKK@Z ; CAction::SetState

; 732  : 			pMover->SetMotion( nUseMotion, ANILOOP_1PLAY, dwOption );		//     

  01041	8b 4c 24 78	 mov	 ecx, DWORD PTR _nParam3$[esp+96]
  01045	8b 07		 mov	 eax, DWORD PTR [edi]
  01047	6a 01		 push	 1
  01049	6a 01		 push	 1
  0104b	51		 push	 ecx
  0104c	8b cf		 mov	 ecx, edi
  0104e	ff 50 04	 call	 DWORD PTR [eax+4]

; 733  : 			pMover->SetAngle( GetDegree( pHitObj->GetPos(), m_pMover->GetPos() ) );

  01051	8b 4e 0c	 mov	 ecx, DWORD PTR [esi+12]
  01054	8d 54 24 28	 lea	 edx, DWORD PTR $T273623[esp+100]
  01058	52		 push	 edx
  01059	e8 00 00 00 00	 call	 ?GetPos@CObj@@QAE?AUD3DXVECTOR3@@XZ ; CObj::GetPos
  0105e	50		 push	 eax
  0105f	8d 44 24 38	 lea	 eax, DWORD PTR $T273624[esp+104]
  01063	50		 push	 eax
  01064	8b cb		 mov	 ecx, ebx
  01066	e8 00 00 00 00	 call	 ?GetPos@CObj@@QAE?AUD3DXVECTOR3@@XZ ; CObj::GetPos
  0106b	50		 push	 eax
  0106c	e8 00 00 00 00	 call	 ?GetDegree@@YAMABUD3DXVECTOR3@@0@Z ; GetDegree
  01071	d9 5c 24 04	 fstp	 DWORD PTR [esp+4]
  01075	83 c4 04	 add	 esp, 4
  01078	8b cf		 mov	 ecx, edi
  0107a	e8 00 00 00 00	 call	 ?SetAngle@CObj@@QAEXM@Z	; CObj::SetAngle

; 734  : 			pMover->OnAttackStart( pHitObj, dwMsg );			//  .

  0107f	55		 push	 ebp
  01080	53		 push	 ebx
  01081	8b cf		 mov	 ecx, edi
  01083	e8 00 00 00 00	 call	 ?OnAttackStart@CMover@@QAEXPAV1@W4OBJMSG@@@Z ; CMover::OnAttackStart

; 735  : 			return 1;

  01088	e9 63 08 00 00	 jmp	 $L266767
$L267034:

; 722  : 			else
; 723  : 			if( GetState() & OBJSTA_DMG_ALL )	//    

  0108d	85 c0		 test	 eax, eax
  0108f	0f 84 5c ff ff
	ff		 je	 $L267036
$L274272:
  01095	5f		 pop	 edi
  01096	5e		 pop	 esi
  01097	5d		 pop	 ebp

; 724  : 				return -3;

  01098	b8 fd ff ff ff	 mov	 eax, -3			; fffffffdH
  0109d	5b		 pop	 ebx

; 1140 : 		break;
; 1141 : 
; 1142 : 
; 1143 : #if	defined(_DEBUG) && defined(__CLIENT)
; 1144 : 	case OBJMSG_TEMP:
; 1145 : 		{
; 1146 : 			for( int i=0; i < 1; i ++ )
; 1147 : 			{
; 1148 : 
; 1149 : 				CMover* pObj = new CMover;
; 1150 : 				D3DXVECTOR3 vPos = pMover->GetPos();
; 1151 : 				pObj->SetPos( vPos );
; 1152 : 				pObj->SetIndex( g_Neuz.m_pd3dDevice, MI_AIBATT1, TRUE );
; 1153 : 				pObj->SetMotion( 0 );
; 1154 : 				g_WorldMng.Get()->AddObj( pObj, TRUE ); 
; 1155 : 			}
; 1156 : 		}
; 1157 : 		break;
; 1158 : 		
; 1159 : 	case OBJMSG_TEMP2:	//   .
; 1160 : 		if( CMover::GetActiveMover()->IsAuthHigher( AUTH_GAMEMASTER ) )	//  
; 1161 : 		{
; 1162 : 			CObj *pObj = pMover->GetWorld()->GetObjFocus();
; 1163 : 			g_DPlay.SendCorrReq( pObj );
; 1164 : 			g_DPlay.SendError( FE_GENERAL, 0 );
; 1165 : 		}
; 1166 : 		break;
; 1167 : 	
; 1168 : 	case OBJMSG_TEMP3:
; 1169 : 		{
; 1170 : 		#ifdef __XUZHU			
; 1171 : 			g_DPlay.SendError( 0, 0 );
; 1172 : 		#endif
; 1173 : 		}
; 1174 : 		break;
; 1175 : #endif // defined(_DEBUG) && defined(__CLIENT)
; 1176 : 		
; 1177 : 	}
; 1178 : 	return 1;
; 1179 : }

  0109e	8b 4c 24 48	 mov	 ecx, DWORD PTR __$EHRec$[esp+84]
  010a2	64 89 0d 00 00
	00 00		 mov	 DWORD PTR fs:__except_list, ecx
  010a9	83 c4 54	 add	 esp, 84			; 00000054H
  010ac	c2 1c 00	 ret	 28			; 0000001cH
$L267041:

; 736  : 		}
; 737  : 		break;
; 738  : 
; 739  : 	//   
; 740  : 	case OBJMSG_MELEESKILL:
; 741  : 		{
; 742  : 			if( IsAction() )	return -2;	

  010af	f7 46 04 00 00
	00 f0		 test	 DWORD PTR [esi+4], -268435456 ; f0000000H
  010b6	0f 85 23 01 00
	00		 jne	 $L274271

; 743  : 			if( pMover->m_dwFlag & MVRF_NOATTACK )	return -2;		//    .

  010bc	8b 87 48 02 00
	00		 mov	 eax, DWORD PTR [edi+584]
  010c2	f6 c4 02	 test	 ah, 2
  010c5	0f 85 14 01 00
	00		 jne	 $L274271

; 744  : 			CMover* pHitObj		= prj.GetMover( nParam2 );

  010cb	8b 4c 24 74	 mov	 ecx, DWORD PTR _nParam2$[esp+96]
  010cf	51		 push	 ecx
  010d0	b9 00 00 00 00	 mov	 ecx, OFFSET FLAT:?prj@@3VCProject@@A
  010d5	e8 00 00 00 00	 call	 ?GetMover@CProject@@QAEPAVCMover@@K@Z ; CProject::GetMover

; 745  : 			if( IsValidObj( pHitObj ) == FALSE )	return -2;

  010da	50		 push	 eax
  010db	89 44 24 78	 mov	 DWORD PTR _pHitObj$267044[esp+100], eax
  010df	e8 00 00 00 00	 call	 ?IsValidObj@@YAHPAVCObj@@@Z ; IsValidObj
  010e4	83 c4 04	 add	 esp, 4
  010e7	85 c0		 test	 eax, eax
  010e9	0f 84 f0 00 00
	00		 je	 $L274271

; 746  : #ifdef __WORLDSERVER
; 747  : 			if( GetState() & OBJSTA_ATK_RANGE1 )

  010ef	f7 46 04 00 00
	06 00		 test	 DWORD PTR [esi+4], 393216 ; 00060000H
  010f6	74 0c		 je	 SHORT $L267046

; 748  : 				ResetState( OBJSTA_ATK_RANGE1 );

  010f8	68 00 00 06 00	 push	 393216			; 00060000H
  010fd	8b ce		 mov	 ecx, esi
  010ff	e8 00 00 00 00	 call	 ?ResetState@CAction@@QAEXK@Z ; CAction::ResetState
$L267046:

; 749  : 			if( GetState() & OBJSTA_ATK_ALL )	return -2;	//   .    .

  01104	f7 46 04 00 00
	ff 00		 test	 DWORD PTR [esi+4], 16711680 ; 00ff0000H
  0110b	0f 85 ce 00 00
	00		 jne	 $L274271

; 750  : 			pMover->m_dwMotion = -1;	//          .
; 751  : 			ClearState();				//    ,.

  01111	8b ce		 mov	 ecx, esi
  01113	c7 87 dc 02 00
	00 ff ff ff ff	 mov	 DWORD PTR [edi+732], -1
  0111d	e8 00 00 00 00	 call	 ?ClearState@CAction@@QAEXXZ ; CAction::ClearState

; 752  : #else
; 753  : 			//             .
; 754  : 			pMover->m_dwMotion = -1;	
; 755  : 			ClearState();				//    ,.
; 756  : #endif
; 757  : 			SetState( OBJSTA_ATK_ALL, OBJSTA_ATK_MELEESKILL );			//  .

  01122	68 00 00 09 00	 push	 589824			; 00090000H
  01127	68 00 00 ff 00	 push	 16711680		; 00ff0000H
  0112c	8b ce		 mov	 ecx, esi
  0112e	e8 00 00 00 00	 call	 ?SetState@CAction@@QAEXKK@Z ; CAction::SetState

; 758  : 			DWORD dwMotion = (DWORD)nParam1;
; 759  : 			int	nLoop = ANILOOP_1PLAY;
; 760  : 
; 761  : 			int	nSkill = pMover->GetActParam( 0 );

  01133	8b 87 a4 12 00
	00		 mov	 eax, DWORD PTR [edi+4772]

; 762  : 			if( nSkill == SI_BLD_DOUBLESW_SILENTSTRIKE || nSkill == SI_ACR_YOYO_COUNTER )

  01139	3d 8a 00 00 00	 cmp	 eax, 138		; 0000008aH
  0113e	8b 5c 24 70	 mov	 ebx, DWORD PTR _nParam1$[esp+96]
  01142	bd 01 00 00 00	 mov	 ebp, 1
  01147	74 07		 je	 SHORT $L267053
  01149	3d cc 00 00 00	 cmp	 eax, 204		; 000000ccH
  0114e	75 05		 jne	 SHORT $L267052
$L267053:

; 763  : 				nLoop = ANILOOP_CONT;

  01150	bd 02 00 00 00	 mov	 ebp, 2
$L267052:

; 764  : 
; 765  : #ifdef __CLIENT			
; 766  : 			if( pMover->HasBuffByIk3( IK3_TEXT_DISGUISE ) )
; 767  : 				dwMotion = MTI_ATK1;
; 768  : #endif
; 769  : #ifdef __CROSSBOW
; 770  : 			CItemElem* pItemElem = pMover->GetWeaponItem();

  01155	6a 0a		 push	 10			; 0000000aH
  01157	8b cf		 mov	 ecx, edi
  01159	e8 00 00 00 00	 call	 ?GetWeaponItem@CMover@@QAEPAVCItemElem@@H@Z ; CMover::GetWeaponItem

; 771  : 			if( pItemElem && ( pItemElem->GetProp()->dwItemKind3 == IK3_CROSSBOW ))

  0115e	85 c0		 test	 eax, eax
  01160	74 17		 je	 SHORT $L267055
  01162	8b c8		 mov	 ecx, eax
  01164	e8 00 00 00 00	 call	 ?GetPropA@CItemElem@@QAEPAUItemProp@@XZ ; CItemElem::GetPropA
  01169	83 78 78 0e	 cmp	 DWORD PTR [eax+120], 14	; 0000000eH
  0116d	75 0a		 jne	 SHORT $L267055

; 772  : 				dwMotion += 200;

  0116f	8b 5c 24 70	 mov	 ebx, DWORD PTR _nParam1$[esp+96]
  01173	81 c3 c8 00 00
	00		 add	 ebx, 200		; 000000c8H
$L267055:

; 773  : #endif // __CROSSBOW
; 774  : 
; 775  : 			pMover->SetMotion( dwMotion, nLoop, MOP_SWDFORCE | MOP_NO_TRANS | MOP_FIXED );		//   .

  01179	8b 17		 mov	 edx, DWORD PTR [edi]
  0117b	6a 07		 push	 7
  0117d	55		 push	 ebp
  0117e	53		 push	 ebx
  0117f	8b cf		 mov	 ecx, edi
  01181	ff 52 04	 call	 DWORD PTR [edx+4]

; 776  : 			pMover->OnAttackStart( pHitObj, dwMsg );			//  .

  01184	8b 44 24 6c	 mov	 eax, DWORD PTR _dwMsg$[esp+96]
  01188	8b 4c 24 74	 mov	 ecx, DWORD PTR _pHitObj$267044[esp+96]
  0118c	50		 push	 eax
  0118d	51		 push	 ecx
  0118e	8b cf		 mov	 ecx, edi
  01190	e8 00 00 00 00	 call	 ?OnAttackStart@CMover@@QAEXPAV1@W4OBJMSG@@@Z ; CMover::OnAttackStart

; 777  : 			
; 778  : 			m_nMotionHitCount = 0;

  01195	c7 86 9c 00 00
	00 00 00 00 00	 mov	 DWORD PTR [esi+156], 0

; 779  : 			
; 780  : 			break;

  0119f	e9 4c 07 00 00	 jmp	 $L266767
$L267056:

; 781  : 		}
; 782  : 	//  .
; 783  : 	case OBJMSG_MAGICSKILL:
; 784  : 	case OBJMSG_MAGICCASTING:
; 785  : 		{
; 786  : 			if( IsAction() )	return -2;

  011a4	f7 46 04 00 00
	00 f0		 test	 DWORD PTR [esi+4], -268435456 ; f0000000H
  011ab	75 32		 jne	 SHORT $L274271

; 787  : 			if( pMover->m_dwFlag & MVRF_NOATTACK )	return -2;		//    .

  011ad	8b 87 48 02 00
	00		 mov	 eax, DWORD PTR [edi+584]
  011b3	f6 c4 02	 test	 ah, 2
  011b6	75 27		 jne	 SHORT $L274271

; 788  : 			CMover* pHitObj		= prj.GetMover( nParam2 );

  011b8	8b 54 24 74	 mov	 edx, DWORD PTR _nParam2$[esp+96]
  011bc	52		 push	 edx
  011bd	b9 00 00 00 00	 mov	 ecx, OFFSET FLAT:?prj@@3VCProject@@A
  011c2	e8 00 00 00 00	 call	 ?GetMover@CProject@@QAEPAVCMover@@K@Z ; CProject::GetMover
  011c7	8b e8		 mov	 ebp, eax

; 789  : 			if( IsValidObj( pHitObj ) == FALSE )	return -2;

  011c9	55		 push	 ebp
  011ca	e8 00 00 00 00	 call	 ?IsValidObj@@YAHPAVCObj@@@Z ; IsValidObj
  011cf	83 c4 04	 add	 esp, 4
  011d2	85 c0		 test	 eax, eax
  011d4	74 09		 je	 SHORT $L274271

; 790  : 		#ifdef __WORLDSERVER
; 791  : 			if( GetState() & OBJSTA_ATK_ALL )	return -2;	//   

  011d6	f7 46 04 00 00
	ff 00		 test	 DWORD PTR [esi+4], 16711680 ; 00ff0000H
  011dd	74 1a		 je	 SHORT $L267061
$L274271:
  011df	5f		 pop	 edi
  011e0	5e		 pop	 esi
  011e1	5d		 pop	 ebp
  011e2	b8 fe ff ff ff	 mov	 eax, -2			; fffffffeH
  011e7	5b		 pop	 ebx

; 1140 : 		break;
; 1141 : 
; 1142 : 
; 1143 : #if	defined(_DEBUG) && defined(__CLIENT)
; 1144 : 	case OBJMSG_TEMP:
; 1145 : 		{
; 1146 : 			for( int i=0; i < 1; i ++ )
; 1147 : 			{
; 1148 : 
; 1149 : 				CMover* pObj = new CMover;
; 1150 : 				D3DXVECTOR3 vPos = pMover->GetPos();
; 1151 : 				pObj->SetPos( vPos );
; 1152 : 				pObj->SetIndex( g_Neuz.m_pd3dDevice, MI_AIBATT1, TRUE );
; 1153 : 				pObj->SetMotion( 0 );
; 1154 : 				g_WorldMng.Get()->AddObj( pObj, TRUE ); 
; 1155 : 			}
; 1156 : 		}
; 1157 : 		break;
; 1158 : 		
; 1159 : 	case OBJMSG_TEMP2:	//   .
; 1160 : 		if( CMover::GetActiveMover()->IsAuthHigher( AUTH_GAMEMASTER ) )	//  
; 1161 : 		{
; 1162 : 			CObj *pObj = pMover->GetWorld()->GetObjFocus();
; 1163 : 			g_DPlay.SendCorrReq( pObj );
; 1164 : 			g_DPlay.SendError( FE_GENERAL, 0 );
; 1165 : 		}
; 1166 : 		break;
; 1167 : 	
; 1168 : 	case OBJMSG_TEMP3:
; 1169 : 		{
; 1170 : 		#ifdef __XUZHU			
; 1171 : 			g_DPlay.SendError( 0, 0 );
; 1172 : 		#endif
; 1173 : 		}
; 1174 : 		break;
; 1175 : #endif // defined(_DEBUG) && defined(__CLIENT)
; 1176 : 		
; 1177 : 	}
; 1178 : 	return 1;
; 1179 : }

  011e8	8b 4c 24 48	 mov	 ecx, DWORD PTR __$EHRec$[esp+84]
  011ec	64 89 0d 00 00
	00 00		 mov	 DWORD PTR fs:__except_list, ecx
  011f3	83 c4 54	 add	 esp, 84			; 00000054H
  011f6	c2 1c 00	 ret	 28			; 0000001cH
$L267061:

; 792  : 		#endif  
; 793  : 
; 794  : 			pMover->m_dwMotion = -1;	
; 795  : 			ClearState();				//    .

  011f9	8b ce		 mov	 ecx, esi
  011fb	c7 87 dc 02 00
	00 ff ff ff ff	 mov	 DWORD PTR [edi+732], -1
  01205	e8 00 00 00 00	 call	 ?ClearState@CAction@@QAEXXZ ; CAction::ClearState

; 796  : 
; 797  : 			m_nCastingTime	= nParam3 * 4;	// ProcessAction /   , SEC1   .
; 798  : 
; 799  : #if __VER >= 10 // __LEGEND	//	9 	Neuz, World, Trans
; 800  : 			m_dwCastingEndTick = (DWORD)( GetTickCount() + nParam3 * 66.66F );

  0120a	db 44 24 78	 fild	 DWORD PTR _nParam3$[esp+96]
  0120e	8b 44 24 78	 mov	 eax, DWORD PTR _nParam3$[esp+96]
  01212	8d 0c 85 00 00
	00 00		 lea	 ecx, DWORD PTR [eax*4]
  01219	d8 0d 00 00 00
	00		 fmul	 DWORD PTR __real@428551ec
  0121f	89 8e a8 00 00
	00		 mov	 DWORD PTR [esi+168], ecx
  01225	d9 5c 24 74	 fstp	 DWORD PTR tv2652[esp+96]
  01229	ff 15 00 00 00
	00		 call	 DWORD PTR __imp__GetTickCount@0
  0122f	85 c0		 test	 eax, eax
  01231	89 44 24 78	 mov	 DWORD PTR tv2626[esp+96], eax
  01235	db 44 24 78	 fild	 DWORD PTR tv2626[esp+96]
  01239	7d 06		 jge	 SHORT $L274262
  0123b	d8 05 00 00 00
	00		 fadd	 DWORD PTR __real@4f800000
$L274262:
  01241	d8 44 24 74	 fadd	 DWORD PTR tv2652[esp+96]
  01245	e8 00 00 00 00	 call	 __ftol2

; 801  : 			m_nCastingTick	= (int)( nParam3 * 66.66F );

  0124a	d9 44 24 74	 fld	 DWORD PTR tv2652[esp+96]
  0124e	89 86 ac 00 00
	00		 mov	 DWORD PTR [esi+172], eax
  01254	e8 00 00 00 00	 call	 __ftol2

; 802  : 			m_nCastingSKillID = nParam4;

  01259	8b 54 24 7c	 mov	 edx, DWORD PTR _nParam4$[esp+96]
  0125d	89 86 b4 00 00
	00		 mov	 DWORD PTR [esi+180], eax

; 803  : #endif	//__LEGEND	//	9 	Neuz, World, Trans
; 804  : 			if( m_nCastingTime > 0 )	//   ...

  01263	8b 86 a8 00 00
	00		 mov	 eax, DWORD PTR [esi+168]
  01269	33 db		 xor	 ebx, ebx
  0126b	3b c3		 cmp	 eax, ebx
  0126d	89 96 b0 00 00
	00		 mov	 DWORD PTR [esi+176], edx

; 805  : 			{
; 806  : 				m_nCount	= 0;	//    1+2      .
; 807  : 				SetState( OBJSTA_ATK_ALL, OBJSTA_ATK_CASTING1 );			//   -> .

  01273	8b ce		 mov	 ecx, esi
  01275	7e 0a		 jle	 SHORT $L267064
  01277	89 5e 40	 mov	 DWORD PTR [esi+64], ebx
  0127a	68 00 00 0b 00	 push	 720896			; 000b0000H

; 808  : 			}
; 809  : 			else

  0127f	eb 05		 jmp	 SHORT $L274268
$L267064:

; 810  : 				SetState( OBJSTA_ATK_ALL, OBJSTA_ATK_MAGICSKILL );			// .

  01281	68 00 00 0d 00	 push	 851968			; 000d0000H
$L274268:
  01286	68 00 00 ff 00	 push	 16711680		; 00ff0000H
  0128b	e8 00 00 00 00	 call	 ?SetState@CAction@@QAEXKK@Z ; CAction::SetState

; 811  : 
; 812  : 		#ifdef __CLIENT
; 813  : 			if( dwMsg == OBJMSG_MAGICSKILL && pMover->HasBuffByIk3( IK3_TEXT_DISGUISE ) )
; 814  : 				nParam1 = MTI_ATK1;
; 815  : 		#endif
; 816  : 
; 817  : 			pMover->SetMotion( nParam1, ANILOOP_1PLAY, MOP_SWDFORCE | MOP_NO_TRANS | MOP_FIXED );		//   .

  01290	8b 4c 24 70	 mov	 ecx, DWORD PTR _nParam1$[esp+96]
  01294	8b 07		 mov	 eax, DWORD PTR [edi]
  01296	6a 07		 push	 7
  01298	6a 01		 push	 1
  0129a	51		 push	 ecx
  0129b	8b cf		 mov	 ecx, edi
  0129d	ff 50 04	 call	 DWORD PTR [eax+4]

; 818  : 			pMover->OnAttackStart( pHitObj, dwMsg );			//  .

  012a0	8b 54 24 6c	 mov	 edx, DWORD PTR _dwMsg$[esp+96]
  012a4	52		 push	 edx
  012a5	55		 push	 ebp
  012a6	8b cf		 mov	 ecx, edi
  012a8	e8 00 00 00 00	 call	 ?OnAttackStart@CMover@@QAEXPAV1@W4OBJMSG@@@Z ; CMover::OnAttackStart

; 819  : 			m_nMotionHitCount = 0;

  012ad	89 9e 9c 00 00
	00		 mov	 DWORD PTR [esi+156], ebx

; 820  : 			break;

  012b3	e9 38 06 00 00	 jmp	 $L266767
$L267066:

; 821  : 		}
; 822  : 			
; 823  : 
; 824  : 	//-------------------- .
; 825  : 	case OBJMSG_DAMAGE:
; 826  : 	case OBJMSG_DAMAGE_FORCE:	//  . .
; 827  : 		{
; 828  : 			CMover* pAttacker = PreProcessDamage( pMover, (OBJID)nParam2, nParam4, nParam5 );

  012b8	8b ac 24 80 00
	00 00		 mov	 ebp, DWORD PTR _nParam5$[esp+96]
  012bf	8b 44 24 7c	 mov	 eax, DWORD PTR _nParam4$[esp+96]
  012c3	8b 4c 24 74	 mov	 ecx, DWORD PTR _nParam2$[esp+96]
  012c7	55		 push	 ebp
  012c8	50		 push	 eax
  012c9	51		 push	 ecx
  012ca	57		 push	 edi
  012cb	8b ce		 mov	 ecx, esi
  012cd	e8 00 00 00 00	 call	 ?PreProcessDamage@CActionMover@@QAEPAVCMover@@PAV2@KHH@Z ; CActionMover::PreProcessDamage
  012d2	8b d8		 mov	 ebx, eax

; 829  : 			if( pAttacker == NULL )

  012d4	85 db		 test	 ebx, ebx

; 830  : 				return 0;

  012d6	0f 84 86 ee ff
	ff		 je	 $L274270

; 831  : 
; 832  : 			if( dwMsg == OBJMSG_DAMAGE_FORCE )			//  

  012dc	83 7c 24 6c 2a	 cmp	 DWORD PTR _dwMsg$[esp+96], 42 ; 0000002aH
  012e1	75 13		 jne	 SHORT $L267071

; 833  : 				if( pMover->CanFlyByAttack() == FALSE )	//   .

  012e3	8b cf		 mov	 ecx, edi
  012e5	e8 00 00 00 00	 call	 ?CanFlyByAttack@CMover@@QAEHXZ ; CMover::CanFlyByAttack
  012ea	85 c0		 test	 eax, eax
  012ec	75 08		 jne	 SHORT $L267071

; 834  : 					dwMsg = OBJMSG_DAMAGE;				//   .

  012ee	c7 44 24 6c 29
	00 00 00	 mov	 DWORD PTR _dwMsg$[esp+96], 41 ; 00000029H
$L267071:

; 835  : 
; 836  : 			//    .
; 837  : 			int nDamage = _ProcessMsgDmg( dwMsg, pAttacker, (DWORD)nParam1, nParam3, nParam4, nParam5 );	

  012f6	8b 54 24 7c	 mov	 edx, DWORD PTR _nParam4$[esp+96]
  012fa	8b 44 24 78	 mov	 eax, DWORD PTR _nParam3$[esp+96]
  012fe	8b 4c 24 70	 mov	 ecx, DWORD PTR _nParam1$[esp+96]
  01302	55		 push	 ebp
  01303	52		 push	 edx
  01304	8b 54 24 74	 mov	 edx, DWORD PTR _dwMsg$[esp+104]
  01308	50		 push	 eax
  01309	51		 push	 ecx
  0130a	53		 push	 ebx
  0130b	52		 push	 edx
  0130c	8b ce		 mov	 ecx, esi
  0130e	e8 00 00 00 00	 call	 ?_ProcessMsgDmg@CActionMover@@QAEKKPAVCMover@@KHHH@Z ; CActionMover::_ProcessMsgDmg
  01313	8b f0		 mov	 esi, eax

; 838  : #if __VER >= 10	// __METEONYKER_0608
; 839  : #ifdef __WORLDSERVER
; 840  : #if __VER >= 12 // __NEW_ITEMCREATEMON_SERVER
; 841  : 			if( pAttacker->IsPlayer() && CCreateMonster::GetInstance()->IsAttackAble( static_cast<CUser*>(pAttacker), pMover ) )

  01315	8b 83 34 02 00
	00		 mov	 eax, DWORD PTR [ebx+564]
  0131b	85 c0		 test	 eax, eax
  0131d	74 27		 je	 SHORT $L267075
  0131f	6a 00		 push	 0
  01321	57		 push	 edi
  01322	53		 push	 ebx
  01323	e8 00 00 00 00	 call	 ?GetInstance@CCreateMonster@@SAPAV1@XZ ; CCreateMonster::GetInstance
  01328	8b c8		 mov	 ecx, eax
  0132a	e8 00 00 00 00	 call	 ?IsAttackAble@CCreateMonster@@QAEHPAVCUser@@PAVCMover@@H@Z ; CCreateMonster::IsAttackAble
  0132f	85 c0		 test	 eax, eax
  01331	74 13		 je	 SHORT $L267075

; 842  : #endif // __NEW_ITEMCREATEMON_SERVER
; 843  : #endif // __WORLDSERVER
; 844  : 				pMover->PostAIMsg( AIMSG_DAMAGE, pAttacker->GetId(), nDamage );

  01333	8b 83 bc 01 00
	00		 mov	 eax, DWORD PTR [ebx+444]
  01339	6a 00		 push	 0
  0133b	56		 push	 esi
  0133c	50		 push	 eax
  0133d	6a 08		 push	 8
  0133f	8b cf		 mov	 ecx, edi
  01341	e8 00 00 00 00	 call	 ?PostAIMsg@CMover@@QAEXKKKK@Z ; CMover::PostAIMsg
$L267075:
  01346	5f		 pop	 edi

; 845  : #endif	// __METEONYKER_0608
; 846  : 			return nDamage;

  01347	8b c6		 mov	 eax, esi
  01349	5e		 pop	 esi
  0134a	5d		 pop	 ebp
  0134b	5b		 pop	 ebx

; 1140 : 		break;
; 1141 : 
; 1142 : 
; 1143 : #if	defined(_DEBUG) && defined(__CLIENT)
; 1144 : 	case OBJMSG_TEMP:
; 1145 : 		{
; 1146 : 			for( int i=0; i < 1; i ++ )
; 1147 : 			{
; 1148 : 
; 1149 : 				CMover* pObj = new CMover;
; 1150 : 				D3DXVECTOR3 vPos = pMover->GetPos();
; 1151 : 				pObj->SetPos( vPos );
; 1152 : 				pObj->SetIndex( g_Neuz.m_pd3dDevice, MI_AIBATT1, TRUE );
; 1153 : 				pObj->SetMotion( 0 );
; 1154 : 				g_WorldMng.Get()->AddObj( pObj, TRUE ); 
; 1155 : 			}
; 1156 : 		}
; 1157 : 		break;
; 1158 : 		
; 1159 : 	case OBJMSG_TEMP2:	//   .
; 1160 : 		if( CMover::GetActiveMover()->IsAuthHigher( AUTH_GAMEMASTER ) )	//  
; 1161 : 		{
; 1162 : 			CObj *pObj = pMover->GetWorld()->GetObjFocus();
; 1163 : 			g_DPlay.SendCorrReq( pObj );
; 1164 : 			g_DPlay.SendError( FE_GENERAL, 0 );
; 1165 : 		}
; 1166 : 		break;
; 1167 : 	
; 1168 : 	case OBJMSG_TEMP3:
; 1169 : 		{
; 1170 : 		#ifdef __XUZHU			
; 1171 : 			g_DPlay.SendError( 0, 0 );
; 1172 : 		#endif
; 1173 : 		}
; 1174 : 		break;
; 1175 : #endif // defined(_DEBUG) && defined(__CLIENT)
; 1176 : 		
; 1177 : 	}
; 1178 : 	return 1;
; 1179 : }

  0134c	8b 4c 24 48	 mov	 ecx, DWORD PTR __$EHRec$[esp+84]
  01350	64 89 0d 00 00
	00 00		 mov	 DWORD PTR fs:__except_list, ecx
  01357	83 c4 54	 add	 esp, 84			; 00000054H
  0135a	c2 1c 00	 ret	 28			; 0000001cH
$L267076:

; 847  : 		}
; 848  : 		break;
; 849  : 
; 850  : 	// HP 0   
; 851  : 	case OBJMSG_DIE:
; 852  : 	{
; 853  : 		if( IsSit() )						//  

  0135d	f6 46 08 04	 test	 BYTE PTR [esi+8], 4
  01361	74 0c		 je	 SHORT $L267077

; 854  : 			ResetState( OBJSTA_MOVE_ALL );

  01363	68 ff 00 00 00	 push	 255			; 000000ffH
  01368	8b ce		 mov	 ecx, esi
  0136a	e8 00 00 00 00	 call	 ?ResetState@CAction@@QAEXK@Z ; CAction::ResetState
$L267077:

; 855  : 		
; 856  : 		ClearState();						//        .

  0136f	8b ce		 mov	 ecx, esi
  01371	e8 00 00 00 00	 call	 ?ClearState@CAction@@QAEXXZ ; CAction::ClearState

; 857  : 		m_vDelta.x = m_vDelta.z = 0;		//   .

  01376	33 ed		 xor	 ebp, ebp

; 858  : 
; 859  : 		pMover->RemoveInvisible();

  01378	8b cf		 mov	 ecx, edi
  0137a	89 6e 58	 mov	 DWORD PTR [esi+88], ebp
  0137d	89 6e 50	 mov	 DWORD PTR [esi+80], ebp
  01380	e8 00 00 00 00	 call	 ?RemoveInvisible@CMover@@QAEXXZ ; CMover::RemoveInvisible

; 860  : #ifdef __WORLDSERVER
; 861  : 		pMover->PostAIMsg( AIMSG_DIE, nParam2 );

  01385	8b 5c 24 74	 mov	 ebx, DWORD PTR _nParam2$[esp+96]
  01389	55		 push	 ebp
  0138a	55		 push	 ebp
  0138b	53		 push	 ebx
  0138c	6a 09		 push	 9
  0138e	8b cf		 mov	 ecx, edi
  01390	e8 00 00 00 00	 call	 ?PostAIMsg@CMover@@QAEXKKKK@Z ; CMover::PostAIMsg

; 862  : #endif
; 863  : 		CMover *pAttacker = (CMover *)nParam2;	
; 864  : 		if( pAttacker )

  01395	3b dd		 cmp	 ebx, ebp
  01397	0f 84 9a 01 00
	00		 je	 $L267107

; 865  : 		{
; 866  : 			if( pMover->IsPlayer() && pAttacker->IsPlayer() )	//   

  0139d	8b 87 34 02 00
	00		 mov	 eax, DWORD PTR [edi+564]
  013a3	85 c0		 test	 eax, eax
  013a5	0f 84 61 01 00
	00		 je	 $L267102
  013ab	8b cb		 mov	 ecx, ebx
  013ad	8b 81 34 02 00
	00		 mov	 eax, DWORD PTR [ecx+564]
  013b3	85 c0		 test	 eax, eax
  013b5	0f 84 51 01 00
	00		 je	 $L267102

; 867  : 			{
; 868  : #ifdef __WORLDSERVER
; 869  : 				if( pMover->m_nDuel == 1 && pMover->m_idDuelOther == pAttacker->GetId() )	//  

  013bb	8b 87 44 07 00
	00		 mov	 eax, DWORD PTR [edi+1860]
  013c1	83 f8 01	 cmp	 eax, 1
  013c4	75 31		 jne	 SHORT $L267082
  013c6	8b 97 48 07 00
	00		 mov	 edx, DWORD PTR [edi+1864]
  013cc	3b 93 bc 01 00
	00		 cmp	 edx, DWORD PTR [ebx+444]
  013d2	75 23		 jne	 SHORT $L267082

; 870  : 				{
; 871  : 					pMover->ClearDuel();

  013d4	8b cf		 mov	 ecx, edi
  013d6	e8 00 00 00 00	 call	 ?ClearDuel@CMover@@QAEXXZ ; CMover::ClearDuel

; 872  : 					pAttacker->ClearDuel();

  013db	8b cb		 mov	 ecx, ebx
  013dd	e8 00 00 00 00	 call	 ?ClearDuel@CMover@@QAEXXZ ; CMover::ClearDuel

; 873  : 					((CUser*)pMover)->AddSetDuel( pMover );

  013e2	57		 push	 edi
  013e3	8b cf		 mov	 ecx, edi
  013e5	e8 00 00 00 00	 call	 ?AddSetDuel@CUser@@QAEXPAVCMover@@@Z ; CUser::AddSetDuel

; 874  : 					((CUser*)pAttacker)->AddSetDuel( pAttacker );

  013ea	53		 push	 ebx
  013eb	8b cb		 mov	 ecx, ebx
  013ed	e8 00 00 00 00	 call	 ?AddSetDuel@CUser@@QAEXPAVCMover@@@Z ; CUser::AddSetDuel

; 875  : 				}
; 876  : 				else if( pMover->m_nDuel == 2 && pMover->m_idDuelParty == pAttacker->m_idparty )

  013f2	e9 15 01 00 00	 jmp	 $L267102
$L267082:
  013f7	83 f8 02	 cmp	 eax, 2
  013fa	0f 85 0c 01 00
	00		 jne	 $L267102
  01400	8b 4c 24 74	 mov	 ecx, DWORD PTR _nParam2$[esp+96]
  01404	8b 87 4c 07 00
	00		 mov	 eax, DWORD PTR [edi+1868]
  0140a	3b 81 18 07 00
	00		 cmp	 eax, DWORD PTR [ecx+1816]
  01410	0f 85 f6 00 00
	00		 jne	 $L267102

; 877  : 				{
; 878  : 					pMover->m_nDuelState	= 300;		
; 879  : 					CMover *pMember;
; 880  : 					CParty* pParty	= g_PartyMng.GetParty( pMover->m_idparty );

  01416	8b 97 18 07 00
	00		 mov	 edx, DWORD PTR [edi+1816]
  0141c	52		 push	 edx
  0141d	b9 00 00 00 00	 mov	 ecx, OFFSET FLAT:?g_PartyMng@@3VCPartyMng@@A
  01422	c7 87 40 07 00
	00 2c 01 00 00	 mov	 DWORD PTR [edi+1856], 300 ; 0000012cH
  0142c	e8 00 00 00 00	 call	 ?GetParty@CPartyMng@@QAEPAVCParty@@K@Z ; CPartyMng::GetParty
  01431	8b e8		 mov	 ebp, eax

; 881  : 
; 882  : 					if( pParty )

  01433	85 ed		 test	 ebp, ebp
  01435	74 5f		 je	 SHORT $L267093

; 883  : 					{
; 884  : 						for( int i = 0; i < pParty->m_nSizeofMember; i ++ )

  01437	8b 85 cc 01 00
	00		 mov	 eax, DWORD PTR [ebp+460]
  0143d	85 c0		 test	 eax, eax
  0143f	c7 44 24 78 00
	00 00 00	 mov	 DWORD PTR _i$267090[esp+96], 0
  01447	7e 4d		 jle	 SHORT $L267093
  01449	8d 45 28	 lea	 eax, DWORD PTR [ebp+40]
  0144c	89 44 24 6c	 mov	 DWORD PTR tv3176[esp+96], eax
$L267091:

; 885  : 						{
; 886  : 							pMember = (CMover *)g_UserMng.GetUserByPlayerID( pParty->m_aMember[i].m_uPlayerId );

  01450	8b 4c 24 6c	 mov	 ecx, DWORD PTR tv3176[esp+96]
  01454	8b 11		 mov	 edx, DWORD PTR [ecx]
  01456	52		 push	 edx
  01457	b9 00 00 00 00	 mov	 ecx, OFFSET FLAT:?g_UserMng@@3VCUserMng@@A
  0145c	e8 00 00 00 00	 call	 ?GetUserByPlayerID@CUserMng@@QAEPAVCUser@@K@Z ; CUserMng::GetUserByPlayerID
  01461	8b d8		 mov	 ebx, eax

; 887  : 							if( IsValidObj( pMember ) )

  01463	53		 push	 ebx
  01464	e8 00 00 00 00	 call	 ?IsValidObj@@YAHPAVCObj@@@Z ; IsValidObj
  01469	83 c4 04	 add	 esp, 4
  0146c	85 c0		 test	 eax, eax
  0146e	74 08		 je	 SHORT $L267092

; 888  : 								((CUser*)pMember)->AddSetDuel( pMover );

  01470	57		 push	 edi
  01471	8b cb		 mov	 ecx, ebx
  01473	e8 00 00 00 00	 call	 ?AddSetDuel@CUser@@QAEXPAVCMover@@@Z ; CUser::AddSetDuel
$L267092:
  01478	8b 44 24 78	 mov	 eax, DWORD PTR _i$267090[esp+96]
  0147c	8b 54 24 6c	 mov	 edx, DWORD PTR tv3176[esp+96]
  01480	8b 8d cc 01 00
	00		 mov	 ecx, DWORD PTR [ebp+460]
  01486	40		 inc	 eax
  01487	83 c2 1c	 add	 edx, 28			; 0000001cH
  0148a	3b c1		 cmp	 eax, ecx
  0148c	89 44 24 78	 mov	 DWORD PTR _i$267090[esp+96], eax
  01490	89 54 24 6c	 mov	 DWORD PTR tv3176[esp+96], edx
  01494	7c ba		 jl	 SHORT $L267091
$L267093:

; 889  : 						}
; 890  : 					}
; 891  : 
; 892  : 					CParty* pParty2		= g_PartyMng.GetParty( pMover->m_idDuelParty );

  01496	8b 87 4c 07 00
	00		 mov	 eax, DWORD PTR [edi+1868]
  0149c	50		 push	 eax
  0149d	b9 00 00 00 00	 mov	 ecx, OFFSET FLAT:?g_PartyMng@@3VCPartyMng@@A
  014a2	e8 00 00 00 00	 call	 ?GetParty@CPartyMng@@QAEPAVCParty@@K@Z ; CPartyMng::GetParty
  014a7	8b d8		 mov	 ebx, eax

; 893  : 					if( pParty2 )

  014a9	85 db		 test	 ebx, ebx
  014ab	74 5f		 je	 SHORT $L267102

; 894  : 					{
; 895  : 						for( int i = 0; i < pParty2->m_nSizeofMember; i ++ )

  014ad	8b 83 cc 01 00
	00		 mov	 eax, DWORD PTR [ebx+460]
  014b3	85 c0		 test	 eax, eax
  014b5	c7 44 24 78 00
	00 00 00	 mov	 DWORD PTR _i$267099[esp+96], 0
  014bd	7e 4d		 jle	 SHORT $L267102
  014bf	8d 4b 28	 lea	 ecx, DWORD PTR [ebx+40]
  014c2	89 4c 24 6c	 mov	 DWORD PTR tv3203[esp+96], ecx
$L267100:

; 896  : 						{
; 897  : 							pMember = (CMover *)g_UserMng.GetUserByPlayerID( pParty2->m_aMember[i].m_uPlayerId );

  014c6	8b 54 24 6c	 mov	 edx, DWORD PTR tv3203[esp+96]
  014ca	8b 02		 mov	 eax, DWORD PTR [edx]
  014cc	50		 push	 eax
  014cd	b9 00 00 00 00	 mov	 ecx, OFFSET FLAT:?g_UserMng@@3VCUserMng@@A
  014d2	e8 00 00 00 00	 call	 ?GetUserByPlayerID@CUserMng@@QAEPAVCUser@@K@Z ; CUserMng::GetUserByPlayerID
  014d7	8b e8		 mov	 ebp, eax

; 898  : 							if( IsValidObj( pMember ) )

  014d9	55		 push	 ebp
  014da	e8 00 00 00 00	 call	 ?IsValidObj@@YAHPAVCObj@@@Z ; IsValidObj
  014df	83 c4 04	 add	 esp, 4
  014e2	85 c0		 test	 eax, eax
  014e4	74 08		 je	 SHORT $L267101

; 899  : 								((CUser*)pMember)->AddSetDuel( pMover );

  014e6	57		 push	 edi
  014e7	8b cd		 mov	 ecx, ebp
  014e9	e8 00 00 00 00	 call	 ?AddSetDuel@CUser@@QAEXPAVCMover@@@Z ; CUser::AddSetDuel
$L267101:
  014ee	8b 44 24 78	 mov	 eax, DWORD PTR _i$267099[esp+96]
  014f2	8b 54 24 6c	 mov	 edx, DWORD PTR tv3203[esp+96]
  014f6	8b 8b cc 01 00
	00		 mov	 ecx, DWORD PTR [ebx+460]
  014fc	40		 inc	 eax
  014fd	83 c2 1c	 add	 edx, 28			; 0000001cH
  01500	3b c1		 cmp	 eax, ecx
  01502	89 44 24 78	 mov	 DWORD PTR _i$267099[esp+96], eax
  01506	89 54 24 6c	 mov	 DWORD PTR tv3203[esp+96], edx
  0150a	7c ba		 jl	 SHORT $L267100
$L267102:

; 900  : 						}
; 901  : 					}
; 902  : 				}
; 903  : #endif	// __WORLDSERVER
; 904  : 			}
; 905  : 
; 906  : 			if( pAttacker->IsNPC() )	//  .

  0150c	8b 44 24 74	 mov	 eax, DWORD PTR _nParam2$[esp+96]
  01510	8b 88 34 02 00
	00		 mov	 ecx, DWORD PTR [eax+564]
  01516	85 c9		 test	 ecx, ecx
  01518	75 1d		 jne	 SHORT $L267107

; 907  : 			{	//     .
; 908  : 				if( pAttacker->m_idAttacker == pMover->GetId() )	//     .

  0151a	8b 88 9c 06 00
	00		 mov	 ecx, DWORD PTR [eax+1692]
  01520	3b 8f bc 01 00
	00		 cmp	 ecx, DWORD PTR [edi+444]
  01526	75 0f		 jne	 SHORT $L267107

; 909  : 				{
; 910  : 					pAttacker->m_idAttacker = NULL_ID;

  01528	83 c9 ff	 or	 ecx, -1
  0152b	89 88 9c 06 00
	00		 mov	 DWORD PTR [eax+1692], ecx

; 911  : 					pAttacker->m_idTargeter = NULL_ID;

  01531	89 88 a0 06 00
	00		 mov	 DWORD PTR [eax+1696], ecx
$L267107:

; 912  : 				}
; 913  : 			}
; 914  : 		}
; 915  : 		
; 916  : 		switch( nParam1 )

  01537	83 7c 24 70 2a	 cmp	 DWORD PTR _nParam1$[esp+96], 42 ; 0000002aH

; 969  : 			}
; 970  : 			break;
; 971  : 		case OBJMSG_DAMAGE:		//       
; 972  : #endif
; 973  : 		default:	
; 974  : 			SetState( OBJSTA_DMG_ALL, OBJSTA_DEAD );

  0153c	8b ce		 mov	 ecx, esi
  0153e	74 1e		 je	 SHORT $L267112
  01540	68 00 00 00 08	 push	 134217728		; 08000000H
  01545	68 00 00 00 0f	 push	 251658240		; 0f000000H
  0154a	e8 00 00 00 00	 call	 ?SetState@CAction@@QAEXKK@Z ; CAction::SetState

; 975  : 			pMover->SetMotion( MTI_DIE1, ANILOOP_CONT );

  0154f	8b 17		 mov	 edx, DWORD PTR [edi]
  01551	6a 00		 push	 0
  01553	6a 02		 push	 2
  01555	6a 08		 push	 8
  01557	8b cf		 mov	 ecx, edi
  01559	ff 52 04	 call	 DWORD PTR [edx+4]

; 976  : 			break;

  0155c	eb 39		 jmp	 SHORT $L267115
$L267112:

; 917  : 		{
; 918  : #ifdef __BS_DEATH_ACTION
; 919  : 		case OBJMSG_DAMAGE:
; 920  : 		case OBJMSG_DAMAGE_FORCE:
; 921  : 		{
; 922  : 			int rAngle = 0;
; 923  : 			int rPower = 0;
; 924  : 			int nCase = rand() % 6;
; 925  : 			if( nCase < 3 )
; 926  : 			{
; 927  : 				rAngle = -2;
; 928  : 				rPower = 10 + rand() % 50;
; 929  : 			}
; 930  : 			else if( nCase < 4 )
; 931  : 			{
; 932  : 				rAngle = 10;
; 933  : 				rPower = 10 + rand() % 50;
; 934  : 			}
; 935  : 			else if( nCase < 5 )
; 936  : 			{
; 937  : 				rAngle = 50;
; 938  : 				rPower = 10 + rand() % 50;
; 939  : 			}
; 940  : 			else
; 941  : 			{
; 942  : 				rAngle = rand() % 30;
; 943  : 				rPower = rand() % 200;
; 944  : 			}
; 945  : 			
; 946  : 			if( OBJMSG_DAMAGE_FORCE == nParam1 )
; 947  : 				rPower += 50;
; 948  : 		
; 949  : 			CMover *pAttacker = (CMover *)nParam2;
; 950  : 			SetState( OBJSTA_DMG_ALL, OBJSTA_DMG_FLY );
; 951  : 			pMover->SetMotion( MTI_DMGFLY, ANILOOP_CONT );
; 952  : 			if( pAttacker )
; 953  : 			{
; 954  : 				float faddPower = rPower * 0.01f;
; 955  : 				float faddAngle = (float)( rAngle );
; 956  : 
; 957  : 				DoDamageFly( pAttacker->GetAngle(), 100.0f + faddAngle, 0.05f + faddPower );	//   .
; 958  : 			}
; 959  : 		}
; 960  : 		break;
; 961  : #else
; 962  : 		case OBJMSG_DAMAGE_FORCE:	//     
; 963  : 			{
; 964  : 			CMover *pAttacker = (CMover *)nParam2;
; 965  : 			SetState( OBJSTA_DMG_ALL, OBJSTA_DMG_FLY );

  0155e	68 00 00 00 02	 push	 33554432		; 02000000H
  01563	68 00 00 00 0f	 push	 251658240		; 0f000000H
  01568	e8 00 00 00 00	 call	 ?SetState@CAction@@QAEXKK@Z ; CAction::SetState

; 966  : 			pMover->SetMotion( MTI_DMGFLY, ANILOOP_CONT );

  0156d	8b 07		 mov	 eax, DWORD PTR [edi]
  0156f	6a 00		 push	 0
  01571	6a 02		 push	 2
  01573	6a 0b		 push	 11			; 0000000bH
  01575	8b cf		 mov	 ecx, edi
  01577	ff 50 04	 call	 DWORD PTR [eax+4]

; 967  : 			if( pAttacker )

  0157a	8b 44 24 74	 mov	 eax, DWORD PTR _nParam2$[esp+96]
  0157e	85 c0		 test	 eax, eax
  01580	74 15		 je	 SHORT $L267115

; 968  : 				DoDamageFly( pAttacker->GetAngle(), 145.0f, 0.25f );	//   .

  01582	8b 48 18	 mov	 ecx, DWORD PTR [eax+24]
  01585	68 00 00 80 3e	 push	 1048576000		; 3e800000H
  0158a	68 00 00 11 43	 push	 1125187584		; 43110000H
  0158f	51		 push	 ecx
  01590	8b ce		 mov	 ecx, esi
  01592	e8 00 00 00 00	 call	 ?DoDamageFly@CActionMover@@QAEXMMM@Z ; CActionMover::DoDamageFly
$L267115:

; 977  : 
; 978  : 		}
; 979  : 
; 980  : 		if( !pMover->IsPlayer() )	//  .

  01597	8b 87 34 02 00
	00		 mov	 eax, DWORD PTR [edi+564]
  0159d	85 c0		 test	 eax, eax
  0159f	0f 85 4b 03 00
	00		 jne	 $L266767

; 981  : 		{
; 982  : 		#ifdef __WORLDSERVER			
; 983  : 			m_nDeadCnt	= 60*3;	//  - 3  .
; 984  : 			MoverProp *pProp = pMover->GetProp();

  015a5	8b cf		 mov	 ecx, edi
  015a7	c7 86 a0 00 00
	00 b4 00 00 00	 mov	 DWORD PTR [esi+160], 180 ; 000000b4H
  015b1	e8 00 00 00 00	 call	 ?GetPropA@CMover@@QAEPAUMoverProp@@XZ ; CMover::GetPropA

; 985  : 			if( pProp )
; 986  : 			{
; 987  : 				/*
; 988  : 				if( pProp->dwSourceMaterial != NULL_ID || pProp->dwClass == RANK_MATERIAL )	//  ..
; 989  : 				{
; 990  : 					if( pProp->dwHoldingTime == NULL_ID )
; 991  : 						Error( "%s  MoverProp::dwHoldingTime  -1", pMover->GetName() );
; 992  : 					m_nDeadCnt = (int)(60.0f * (pProp->dwHoldingTime / 1000.0f));
; 993  : 					if( pProp->dwHoldingTime < 10000 )		// 10 
; 994  : 						Error( "dwHoldingTime : %d %s", pProp->dwHoldingTime, pMover->GetName() );
; 995  : 					pMover->m_nCollectOwnCnt = PROCESS_COUNT * 40;
; 996  : 					CMover *pAttacker = (CMover *)nParam2;	
; 997  : 					if( pAttacker )
; 998  : 						pMover->m_idCollecter = pAttacker->GetId();		//   .
; 999  : 					
; 1000 : 				}
; 1001 : 				{
; 1002 : 					if( pProp->dwSourceMaterial == NULL_ID && pProp->dwClass == RANK_MATERIAL )	//   
; 1003 : 						Error( "OBJMSG_DIE : %s %d", pMover->GetName(), pProp->dwSourceMaterial );
; 1004 : 					if( pProp->dwSourceMaterial != NULL_ID && pProp->dwClass != RANK_MATERIAL )	//    .
; 1005 : 						Error( "OBJMSG_DIE 2 : %s %d", pMover->GetName(), pProp->dwSourceMaterial );
; 1006 : 				}
; 1007 : 				*/
; 1008 : 			}
; 1009 : 		#endif // WorldServer
; 1010 : 		}
; 1011 : 		break;

  015b6	e9 35 03 00 00	 jmp	 $L266767
$L267120:

; 1012 : 	}
; 1013 : 		
; 1014 : 	case OBJMSG_APPEAR:
; 1015 : 		SetState( OBJSTA_ACTION_ALL, OBJSTA_APPEAR );

  015bb	68 00 00 00 20	 push	 536870912		; 20000000H
  015c0	68 00 00 00 f0	 push	 -268435456		; f0000000H
  015c5	8b ce		 mov	 ecx, esi
  015c7	e8 00 00 00 00	 call	 ?SetState@CAction@@QAEXKK@Z ; CAction::SetState

; 1016 : 		pMover->SetMotion( MTI_APPEAR2, ANILOOP_1PLAY, MOP_FIXED | MOP_NO_TRANS );

  015cc	6a 06		 push	 6
  015ce	6a 01		 push	 1
  015d0	68 90 00 00 00	 push	 144			; 00000090H

; 1017 : 		break;

  015d5	e9 0f 03 00 00	 jmp	 $L274265
$L267121:

; 1018 : 	//----  ------------------------
; 1019 : 	case OBJMSG_MODE_COMBAT:
; 1020 : 		if( GetStateFlag() & OBJSTAF_COMBAT )	return 0;		//   

  015da	8b 4e 08	 mov	 ecx, DWORD PTR [esi+8]
  015dd	f6 c1 01	 test	 cl, 1
  015e0	0f 85 7c eb ff
	ff		 jne	 $L274270

; 1021 : 		if( IsActJump() )	return 0;

  015e6	8b 46 04	 mov	 eax, DWORD PTR [esi+4]
  015e9	f6 c4 f0	 test	 ah, -16			; fffffff0H
  015ec	0f 85 70 eb ff
	ff		 jne	 $L274270

; 1022 : 		if( IsActAttack() )	return 0;

  015f2	a9 00 00 ff 00	 test	 eax, 16711680		; 00ff0000H
  015f7	0f 85 65 eb ff
	ff		 jne	 $L274270

; 1023 : 		if( IsActDamage() )	return 0;

  015fd	a9 00 00 00 0f	 test	 eax, 251658240		; 0f000000H
  01602	0f 85 5a eb ff
	ff		 jne	 $L274270

; 1024 : 		if( IsSit() )		return 0;

  01608	f6 c1 04	 test	 cl, 4
  0160b	0f 85 51 eb ff
	ff		 jne	 $L274270

; 1025 : 		if( IsAction() )	return 0;

  01611	a9 00 00 00 f0	 test	 eax, -268435456		; f0000000H
  01616	0f 85 46 eb ff
	ff		 jne	 $L274270

; 1026 : 		AddStateFlag( OBJSTAF_COMBAT );	//         .

  0161c	6a 01		 push	 1
  0161e	8b ce		 mov	 ecx, esi
  01620	e8 00 00 00 00	 call	 ?AddStateFlag@CAction@@QAEXK@Z ; CAction::AddStateFlag

; 1027 : 		pMover->m_dwMotion = -1;	//       ...
; 1028 : 		pMover->SetMotion( MTI_STAND );

  01625	8b 07		 mov	 eax, DWORD PTR [edi]
  01627	6a 00		 push	 0
  01629	6a 04		 push	 4
  0162b	6a 00		 push	 0
  0162d	8b cf		 mov	 ecx, edi
  0162f	c7 87 dc 02 00
	00 ff ff ff ff	 mov	 DWORD PTR [edi+732], -1
  01639	ff 50 04	 call	 DWORD PTR [eax+4]

; 1029 : 		break;

  0163c	e9 af 02 00 00	 jmp	 $L266767
$L267128:

; 1030 : 	case OBJMSG_MODE_PEACE:
; 1031 : 		if( (GetStateFlag() & OBJSTAF_COMBAT) == 0 )	return 0;

  01641	8b 4e 08	 mov	 ecx, DWORD PTR [esi+8]
  01644	f6 c1 01	 test	 cl, 1
  01647	0f 84 15 eb ff
	ff		 je	 $L274270

; 1032 : 		if( IsActJump() )	return 0;

  0164d	8b 46 04	 mov	 eax, DWORD PTR [esi+4]
  01650	f6 c4 f0	 test	 ah, -16			; fffffff0H
  01653	0f 85 09 eb ff
	ff		 jne	 $L274270

; 1033 : 		if( IsActAttack() )	return 0;

  01659	a9 00 00 ff 00	 test	 eax, 16711680		; 00ff0000H
  0165e	0f 85 fe ea ff
	ff		 jne	 $L274270

; 1034 : 		if( IsActDamage() )	return 0;

  01664	a9 00 00 00 0f	 test	 eax, 251658240		; 0f000000H
  01669	0f 85 f3 ea ff
	ff		 jne	 $L274270

; 1035 : 		if( IsSit() )		return 0;

  0166f	f6 c1 04	 test	 cl, 4
  01672	0f 85 ea ea ff
	ff		 jne	 $L274270

; 1036 : 		if( IsAction() )	return 0;

  01678	a9 00 00 00 f0	 test	 eax, -268435456		; f0000000H
  0167d	0f 85 df ea ff
	ff		 jne	 $L274270

; 1037 : 		RemoveStateFlag( OBJSTAF_COMBAT );

  01683	6a 01		 push	 1
  01685	8b ce		 mov	 ecx, esi
  01687	e8 00 00 00 00	 call	 ?RemoveStateFlag@CAction@@QAEXK@Z ; CAction::RemoveStateFlag

; 1038 : 		pMover->m_dwMotion = -1;
; 1039 : 		pMover->SetMotion( MTI_STAND );

  0168c	6a 00		 push	 0
  0168e	6a 04		 push	 4
  01690	c7 87 dc 02 00
	00 ff ff ff ff	 mov	 DWORD PTR [edi+732], -1
  0169a	6a 00		 push	 0

; 1040 : 		break;

  0169c	e9 48 02 00 00	 jmp	 $L274265
$L267135:

; 1041 : 	case OBJMSG_MODE_WALK:
; 1042 : 		if( IsSit() )		return 0;

  016a1	8b 46 08	 mov	 eax, DWORD PTR [esi+8]
  016a4	a8 04		 test	 al, 4
  016a6	0f 85 b6 ea ff
	ff		 jne	 $L274270

; 1043 : 		if( IsAction() )	return 0;

  016ac	f7 46 04 00 00
	00 f0		 test	 DWORD PTR [esi+4], -268435456 ; f0000000H
  016b3	0f 85 a9 ea ff
	ff		 jne	 $L274270

; 1044 : 		if( GetStateFlag() & OBJSTAF_WALK )	return 0;		//   

  016b9	a8 02		 test	 al, 2
  016bb	0f 85 a1 ea ff
	ff		 jne	 $L274270

; 1045 : 		AddStateFlag( OBJSTAF_WALK );

  016c1	6a 02		 push	 2
  016c3	8b ce		 mov	 ecx, esi
  016c5	e8 00 00 00 00	 call	 ?AddStateFlag@CAction@@QAEXK@Z ; CAction::AddStateFlag

; 1046 : 		break;

  016ca	e9 21 02 00 00	 jmp	 $L266767
$L267139:

; 1047 : 	case OBJMSG_MODE_RUN:
; 1048 : 		if( IsSit() )		return 0;

  016cf	8b 46 08	 mov	 eax, DWORD PTR [esi+8]
  016d2	a8 04		 test	 al, 4
  016d4	0f 85 88 ea ff
	ff		 jne	 $L274270

; 1049 : 		if( IsAction() )	return 0;

  016da	f7 46 04 00 00
	00 f0		 test	 DWORD PTR [esi+4], -268435456 ; f0000000H
  016e1	0f 85 7b ea ff
	ff		 jne	 $L274270

; 1050 : 		if( (GetStateFlag() & OBJSTAF_WALK) == 0 )	return 0;		// 

  016e7	a8 02		 test	 al, 2
  016e9	0f 84 73 ea ff
	ff		 je	 $L274270

; 1051 : 		RemoveStateFlag( OBJSTAF_WALK );

  016ef	6a 02		 push	 2
  016f1	8b ce		 mov	 ecx, esi
  016f3	e8 00 00 00 00	 call	 ?RemoveStateFlag@CAction@@QAEXK@Z ; CAction::RemoveStateFlag

; 1052 : 		break;

  016f8	e9 f3 01 00 00	 jmp	 $L266767
$L267143:

; 1053 : 	case OBJMSG_MODE_FLY:
; 1054 : 	{
; 1055 : 		if( nParam3 == 0 )

  016fd	8b 44 24 78	 mov	 eax, DWORD PTR _nParam3$[esp+96]
  01701	85 c0		 test	 eax, eax
  01703	0f 85 82 00 00
	00		 jne	 $L274259

; 1056 : 		{
; 1057 : 			if( IsSit() )		return 0;

  01709	f6 46 08 04	 test	 BYTE PTR [esi+8], 4
  0170d	0f 85 4f ea ff
	ff		 jne	 $L274270

; 1058 : 			if( IsAction() )	return 0;

  01713	8b 46 04	 mov	 eax, DWORD PTR [esi+4]
  01716	a9 00 00 00 f0	 test	 eax, -268435456		; f0000000H
  0171b	0f 85 41 ea ff
	ff		 jne	 $L274270

; 1059 : 			if( IsActAttack() )	return 0;

  01721	a9 00 00 ff 00	 test	 eax, 16711680		; 00ff0000H
  01726	0f 85 36 ea ff
	ff		 jne	 $L274270

; 1060 : 			if( pMover->m_dwFlag & MVRF_NOMOVE )	return 0;		//    .

  0172c	8b 87 48 02 00
	00		 mov	 eax, DWORD PTR [edi+584]
  01732	f6 c4 01	 test	 ah, 1
  01735	0f 85 27 ea ff
	ff		 jne	 $L274270

; 1061 : #if __VER >= 10 // __LEGEND	//	10 	Neuz, World, Trans
; 1062 : 			if( pMover->GetAdjParam( DST_CHRSTATE ) & CHS_LOOT)			return 0;

  0173b	6a 40		 push	 64			; 00000040H
  0173d	8b cf		 mov	 ecx, edi
  0173f	e8 00 00 00 00	 call	 ?GetAdjParam@CMover@@QAEHH@Z ; CMover::GetAdjParam
  01744	a9 00 00 08 00	 test	 eax, 524288		; 00080000H
  01749	0f 85 13 ea ff
	ff		 jne	 $L274270

; 1063 : #endif	//__LEGEND	//	10 	Neuz, World, Trans
; 1064 : 
; 1065 : 			{
; 1066 : 				CWorld* pWorld	= pMover->GetWorld();

  0174f	8b 9f 6c 01 00
	00		 mov	 ebx, DWORD PTR [edi+364]

; 1067 : 				if( pWorld )

  01755	85 db		 test	 ebx, ebx
  01757	74 32		 je	 SHORT $L274259

; 1068 : 				{
; 1069 : 					int nAttr = pMover->GetWorld()->GetHeightAttribute( pMover->GetPos().x, pMover->GetPos().z );		//    .

  01759	8d 44 24 40	 lea	 eax, DWORD PTR $T273626[esp+100]
  0175d	50		 push	 eax
  0175e	8b cf		 mov	 ecx, edi
  01760	e8 00 00 00 00	 call	 ?GetPos@CObj@@QAE?AUD3DXVECTOR3@@XZ ; CObj::GetPos
  01765	8d 4c 24 4c	 lea	 ecx, DWORD PTR $T273625[esp+100]
  01769	51		 push	 ecx
  0176a	8b cf		 mov	 ecx, edi
  0176c	8b e8		 mov	 ebp, eax
  0176e	e8 00 00 00 00	 call	 ?GetPos@CObj@@QAE?AUD3DXVECTOR3@@XZ ; CObj::GetPos
  01773	8b 50 08	 mov	 edx, DWORD PTR [eax+8]
  01776	8b 45 00	 mov	 eax, DWORD PTR [ebp]
  01779	52		 push	 edx
  0177a	50		 push	 eax
  0177b	8b cb		 mov	 ecx, ebx
  0177d	e8 00 00 00 00	 call	 ?GetHeightAttribute@CWorld@@QAEHMM@Z ; CWorld::GetHeightAttribute

; 1070 : 					if( nAttr == HATTR_NOFLY )		//      .

  01782	83 f8 02	 cmp	 eax, 2

; 1071 : 						return 0;

  01785	0f 84 d7 e9 ff
	ff		 je	 $L274270
$L274259:

; 1072 : 				}
; 1073 : 			}
; 1074 : 		}
; 1075 : 		AddStateFlag( OBJSTAF_FLY );

  0178b	6a 08		 push	 8
  0178d	8b ce		 mov	 ecx, esi
  0178f	e8 00 00 00 00	 call	 ?AddStateFlag@CAction@@QAEXK@Z ; CAction::AddStateFlag

; 1076 : 		ItemProp *pItemProp = prj.GetItemProp( nParam1 );	//  .

  01794	8b 5c 24 70	 mov	 ebx, DWORD PTR _nParam1$[esp+96]
  01798	53		 push	 ebx
  01799	b9 00 00 00 00	 mov	 ecx, OFFSET FLAT:?prj@@3VCProject@@A
  0179e	e8 00 00 00 00	 call	 ?GetItemProp@CProject@@QAEPAUItemProp@@H@Z ; CProject::GetItemProp

; 1077 : 		if( pItemProp )

  017a3	85 c0		 test	 eax, eax
  017a5	74 15		 je	 SHORT $L267158

; 1078 : 		{
; 1079 : 			if( pMover->m_nFuel == -1 )		// 

  017a7	83 bf 80 06 00
	00 ff		 cmp	 DWORD PTR [edi+1664], -1
  017ae	75 0c		 jne	 SHORT $L267158

; 1080 : 				pMover->m_nFuel = (int)pItemProp->dwFFuelReMax;	//    .

  017b0	8b 88 5c 02 00
	00		 mov	 ecx, DWORD PTR [eax+604]
  017b6	89 8f 80 06 00
	00		 mov	 DWORD PTR [edi+1664], ecx
$L267158:

; 1081 : 			// -1          .
; 1082 : 		}
; 1083 : #ifndef __JEFF_9_20
; 1084 : #ifdef __WORLDSERVER
; 1085 : 		if( pMover->IsPlayer() )
; 1086 : 		{
; 1087 : 			((CUser*)pMover)->SetFlyTimeOn();
; 1088 : 		}
; 1089 : #endif // __WORLDSERVER
; 1090 : #endif	// __JEFF_9_20
; 1091 : 		ClearState();

  017bc	8b ce		 mov	 ecx, esi
  017be	e8 00 00 00 00	 call	 ?ClearState@CAction@@QAEXXZ ; CAction::ClearState

; 1092 : #ifdef __CLIENT
; 1093 : 		if( m_pMover == CMover::GetActiveMover() )
; 1094 : 		{
; 1095 : 			m_pMover->GetWorld()->SetObjFocus( NULL );	//   .
; 1096 : 			g_Neuz.m_camera.Unlock();
; 1097 : 			g_WndMng.m_pWndTaskBar->OnCancelSkill();	//    .
; 1098 : 		}
; 1099 : #endif
; 1100 : 
; 1101 : 		CModel* pModel = prj.m_modelMng.LoadModel( D3DDEVICE, OT_ITEM, (DWORD) nParam1 );

  017c3	6a 00		 push	 0
  017c5	53		 push	 ebx
  017c6	6a 04		 push	 4
  017c8	6a 00		 push	 0
  017ca	b9 80 00 00 00	 mov	 ecx, OFFSET FLAT:?prj@@3VCProject@@A+128
  017cf	e8 00 00 00 00	 call	 ?LoadModel@CModelMng@@QAEPAVCModel@@PAUIDirect3DDevice9@@HHH@Z ; CModelMng::LoadModel
  017d4	8b f8		 mov	 edi, eax

; 1102 : #if __VER >= 14 // __WING_ITEM
; 1103 : 		CModelObject* pModelObject = (CModelObject*)pModel;
; 1104 : 		if( pModelObject->m_pBone )

  017d6	8b 87 84 2a 00
	00		 mov	 eax, DWORD PTR [edi+10884]
  017dc	85 c0		 test	 eax, eax
  017de	74 4a		 je	 SHORT $L267164

; 1105 : 		{
; 1106 : 			CString strMotion = pModelObject->GetMotionFileName( _T("stand") );

  017e0	68 00 00 00 00	 push	 OFFSET FLAT:??_C@_05PJLLPND@stand?$AA@
  017e5	8d 4c 24 6c	 lea	 ecx, DWORD PTR $T273627[esp+100]
  017e9	e8 00 00 00 00	 call	 ??0?$CStringT@DV?$StrTraitMFC@DV?$ChTraitsCRT@D@ATL@@@@@ATL@@QAE@PBD@Z ; ATL::CStringT<char,StrTraitMFC<char,ATL::ChTraitsCRT<char> > >::CStringT<char,StrTraitMFC<char,ATL::ChTraitsCRT<char> > >
  017ee	8d 54 24 68	 lea	 edx, DWORD PTR $T273627[esp+96]
  017f2	52		 push	 edx
  017f3	8d 44 24 74	 lea	 eax, DWORD PTR _strMotion$267165[esp+100]
  017f7	50		 push	 eax
  017f8	8b cf		 mov	 ecx, edi
  017fa	c7 44 24 68 00
	00 00 00	 mov	 DWORD PTR __$EHRec$[esp+116], 0
  01802	e8 00 00 00 00	 call	 ?GetMotionFileName@CModelObject@@QBE?AV?$CStringT@DV?$StrTraitMFC@DV?$ChTraitsCRT@D@ATL@@@@@ATL@@ABV23@@Z ; CModelObject::GetMotionFileName
  01807	8d 4c 24 68	 lea	 ecx, DWORD PTR $T273627[esp+96]
  0180b	c6 44 24 60 02	 mov	 BYTE PTR __$EHRec$[esp+108], 2
  01810	e8 00 00 00 00	 call	 ??1?$CStringT@DV?$StrTraitMFC@DV?$ChTraitsCRT@D@ATL@@@@@ATL@@QAE@XZ ; ATL::CStringT<char,StrTraitMFC<char,ATL::ChTraitsCRT<char> > >::~CStringT<char,StrTraitMFC<char,ATL::ChTraitsCRT<char> > >

; 1107 : 			assert( strMotion != _T("") );
; 1108 : 			pModelObject->LoadMotion( strMotion );

  01815	8b 4c 24 70	 mov	 ecx, DWORD PTR _strMotion$267165[esp+96]
  01819	51		 push	 ecx
  0181a	8b cf		 mov	 ecx, edi
  0181c	e8 00 00 00 00	 call	 ?LoadMotion@CModelObject@@QAEHPBD@Z ; CModelObject::LoadMotion

; 1109 : 		}

  01821	8d 4c 24 70	 lea	 ecx, DWORD PTR _strMotion$267165[esp+96]
  01825	e8 00 00 00 00	 call	 ??1?$CStringT@DV?$StrTraitMFC@DV?$ChTraitsCRT@D@ATL@@@@@ATL@@QAE@XZ ; ATL::CStringT<char,StrTraitMFC<char,ATL::ChTraitsCRT<char> > >::~CStringT<char,StrTraitMFC<char,ATL::ChTraitsCRT<char> > >
$L267164:

; 1110 : #endif // __WING_ITEM
; 1111 : 		m_pMover->SetRide( pModel, (DWORD) nParam1 );

  0182a	8b 76 0c	 mov	 esi, DWORD PTR [esi+12]
  0182d	89 9e 88 16 00
	00		 mov	 DWORD PTR [esi+5768], ebx
  01833	89 be 8c 16 00
	00		 mov	 DWORD PTR [esi+5772], edi

; 1112 : 		break;

  01839	e9 b2 00 00 00	 jmp	 $L266767
$L267171:

; 1113 : 	}
; 1114 : 	case OBJMSG_MOTION:		//   
; 1115 : 		{
; 1116 : 			if( IsSit() )		return 0;

  0183e	f6 46 08 04	 test	 BYTE PTR [esi+8], 4
  01842	0f 85 1a e9 ff
	ff		 jne	 $L274270

; 1117 : 			if( IsAction() )	return 0;

  01848	8b 46 04	 mov	 eax, DWORD PTR [esi+4]
  0184b	a9 00 00 00 f0	 test	 eax, -268435456		; f0000000H
  01850	0f 85 0c e9 ff
	ff		 jne	 $L274270

; 1118 : 			if( IsActJump() )	return 0;

  01856	f6 c4 f0	 test	 ah, -16			; fffffff0H
  01859	0f 85 03 e9 ff
	ff		 jne	 $L274270

; 1119 : 			if( IsActAttack() )	return 0;

  0185f	a9 00 00 ff 00	 test	 eax, 16711680		; 00ff0000H
  01864	0f 85 f8 e8 ff
	ff		 jne	 $L274270

; 1120 : 			if( IsActDamage() )	return 0;

  0186a	a9 00 00 00 0f	 test	 eax, 251658240		; 0f000000H
  0186f	0f 85 ed e8 ff
	ff		 jne	 $L274270

; 1121 : 			if( pMover->m_dwFlag & MVRF_NOMOVE )	return 0;		//    .

  01875	8b 87 48 02 00
	00		 mov	 eax, DWORD PTR [edi+584]
  0187b	f6 c4 01	 test	 ah, 1
  0187e	0f 85 de e8 ff
	ff		 jne	 $L274270

; 1122 : #if __VER >= 10 // __LEGEND	//	10 	Neuz, World, Trans
; 1123 : 		if( pMover->GetAdjParam( DST_CHRSTATE ) & CHS_LOOT)			return 0;

  01884	6a 40		 push	 64			; 00000040H
  01886	8b cf		 mov	 ecx, edi
  01888	e8 00 00 00 00	 call	 ?GetAdjParam@CMover@@QAEHH@Z ; CMover::GetAdjParam
  0188d	a9 00 00 08 00	 test	 eax, 524288		; 00080000H
  01892	0f 85 ca e8 ff
	ff		 jne	 $L274270

; 1124 : #endif	//__LEGEND	//	10 	Neuz, World, Trans
; 1125 : 
; 1126 : 			AddStateFlag( OBJSTAF_ETC );		//    

  01898	6a 20		 push	 32			; 00000020H
  0189a	8b ce		 mov	 ecx, esi
  0189c	e8 00 00 00 00	 call	 ?AddStateFlag@CAction@@QAEXK@Z ; CAction::AddStateFlag

; 1127 : 			m_nMotionEx = nParam1;				//  

  018a1	8b 44 24 70	 mov	 eax, DWORD PTR _nParam1$[esp+96]

; 1128 : 			int nPlayMode = nParam2;			//  .
; 1129 : 			if( m_nMotionEx != -1 )

  018a5	83 f8 ff	 cmp	 eax, -1
  018a8	89 86 8c 00 00
	00		 mov	 DWORD PTR [esi+140], eax
  018ae	74 0f		 je	 SHORT $L267180

; 1130 : 				pMover->SetMotion( m_nMotionEx, nPlayMode, MOP_FIXED/* | MOP_SWDFORCE*/ );

  018b0	8b 4c 24 74	 mov	 ecx, DWORD PTR _nParam2$[esp+96]
  018b4	8b 17		 mov	 edx, DWORD PTR [edi]
  018b6	6a 02		 push	 2
  018b8	51		 push	 ecx
  018b9	50		 push	 eax
  018ba	8b cf		 mov	 ecx, edi
  018bc	ff 52 04	 call	 DWORD PTR [edx+4]
$L267180:

; 1131 : 
; 1132 : 			pMover->RemoveInvisible();

  018bf	8b cf		 mov	 ecx, edi
  018c1	e8 00 00 00 00	 call	 ?RemoveInvisible@CMover@@QAEXXZ ; CMover::RemoveInvisible

; 1133 : 		}
; 1134 : 		break;

  018c6	eb 28		 jmp	 SHORT $L266767
$L267181:

; 1135 : 	//  .
; 1136 : 	case OBJMSG_RESURRECTION:		// .
; 1137 : 		ClearState();

  018c8	8b ce		 mov	 ecx, esi
  018ca	e8 00 00 00 00	 call	 ?ClearState@CAction@@QAEXXZ ; CAction::ClearState

; 1138 : 		SetState( OBJSTA_DMG_ALL, OBJSTA_RESURRECTION );

  018cf	68 00 00 00 0c	 push	 201326592		; 0c000000H
  018d4	68 00 00 00 0f	 push	 251658240		; 0f000000H
  018d9	8b ce		 mov	 ecx, esi
  018db	e8 00 00 00 00	 call	 ?SetState@CAction@@QAEXKK@Z ; CAction::SetState

; 1139 : 		pMover->SetMotion( MTI_ASS_RESURRECTION, ANILOOP_1PLAY, MOP_FIXED );

  018e0	6a 02		 push	 2
  018e2	6a 01		 push	 1
  018e4	68 19 04 00 00	 push	 1049			; 00000419H
$L274265:
  018e9	8b cf		 mov	 ecx, edi
$L274266:
  018eb	8b 17		 mov	 edx, DWORD PTR [edi]
  018ed	ff 52 04	 call	 DWORD PTR [edx+4]
$L266767:

; 1140 : 		break;
; 1141 : 
; 1142 : 
; 1143 : #if	defined(_DEBUG) && defined(__CLIENT)
; 1144 : 	case OBJMSG_TEMP:
; 1145 : 		{
; 1146 : 			for( int i=0; i < 1; i ++ )
; 1147 : 			{
; 1148 : 
; 1149 : 				CMover* pObj = new CMover;
; 1150 : 				D3DXVECTOR3 vPos = pMover->GetPos();
; 1151 : 				pObj->SetPos( vPos );
; 1152 : 				pObj->SetIndex( g_Neuz.m_pd3dDevice, MI_AIBATT1, TRUE );
; 1153 : 				pObj->SetMotion( 0 );
; 1154 : 				g_WorldMng.Get()->AddObj( pObj, TRUE ); 
; 1155 : 			}
; 1156 : 		}
; 1157 : 		break;
; 1158 : 		
; 1159 : 	case OBJMSG_TEMP2:	//   .
; 1160 : 		if( CMover::GetActiveMover()->IsAuthHigher( AUTH_GAMEMASTER ) )	//  
; 1161 : 		{
; 1162 : 			CObj *pObj = pMover->GetWorld()->GetObjFocus();
; 1163 : 			g_DPlay.SendCorrReq( pObj );
; 1164 : 			g_DPlay.SendError( FE_GENERAL, 0 );
; 1165 : 		}
; 1166 : 		break;
; 1167 : 	
; 1168 : 	case OBJMSG_TEMP3:
; 1169 : 		{
; 1170 : 		#ifdef __XUZHU			
; 1171 : 			g_DPlay.SendError( 0, 0 );
; 1172 : 		#endif
; 1173 : 		}
; 1174 : 		break;
; 1175 : #endif // defined(_DEBUG) && defined(__CLIENT)
; 1176 : 		
; 1177 : 	}
; 1178 : 	return 1;
; 1179 : }

  018f0	8b 4c 24 58	 mov	 ecx, DWORD PTR __$EHRec$[esp+100]
  018f4	5f		 pop	 edi
  018f5	5e		 pop	 esi
  018f6	5d		 pop	 ebp
  018f7	b8 01 00 00 00	 mov	 eax, 1
  018fc	5b		 pop	 ebx
  018fd	64 89 0d 00 00
	00 00		 mov	 DWORD PTR fs:__except_list, ecx
  01904	83 c4 54	 add	 esp, 84			; 00000054H
  01907	c2 1c 00	 ret	 28			; 0000001cH
  0190a	8b ff		 npad	 2
$L274277:
  0190c	00 00 00 00	 DD	 $L266869
  01910	00 00 00 00	 DD	 $L266883
  01914	00 00 00 00	 DD	 $L266770
  01918	00 00 00 00	 DD	 $L266785
  0191c	00 00 00 00	 DD	 $L266792
  01920	00 00 00 00	 DD	 $L266781
  01924	00 00 00 00	 DD	 $L266892
  01928	00 00 00 00	 DD	 $L266903
  0192c	00 00 00 00	 DD	 $L266914
  01930	00 00 00 00	 DD	 $L266799
  01934	00 00 00 00	 DD	 $L267181
  01938	00 00 00 00	 DD	 $L266806
  0193c	00 00 00 00	 DD	 $L267120
  01940	00 00 00 00	 DD	 $L266807
  01944	00 00 00 00	 DD	 $L266940
  01948	00 00 00 00	 DD	 $L267121
  0194c	00 00 00 00	 DD	 $L267128
  01950	00 00 00 00	 DD	 $L267135
  01954	00 00 00 00	 DD	 $L267139
  01958	00 00 00 00	 DD	 $L267143
  0195c	00 00 00 00	 DD	 $L266982
  01960	00 00 00 00	 DD	 $L267026
  01964	00 00 00 00	 DD	 $L266963
  01968	00 00 00 00	 DD	 $L266949
  0196c	00 00 00 00	 DD	 $L267041
  01970	00 00 00 00	 DD	 $L267056
  01974	00 00 00 00	 DD	 $L267076
  01978	00 00 00 00	 DD	 $L267066
  0197c	00 00 00 00	 DD	 $L266916
  01980	00 00 00 00	 DD	 $L266927
  01984	00 00 00 00	 DD	 $L266938
  01988	00 00 00 00	 DD	 $L267171
  0198c	00 00 00 00	 DD	 $L266815
  01990	00 00 00 00	 DD	 $L266828
  01994	00 00 00 00	 DD	 $L266810
  01998	00 00 00 00	 DD	 $L266843
  0199c	00 00 00 00	 DD	 $L266856
  019a0	00 00 00 00	 DD	 $L266767
$L274252:
  019a4	00		 DB	 0
  019a5	01		 DB	 1
  019a6	02		 DB	 2
  019a7	03		 DB	 3
  019a8	04		 DB	 4
  019a9	05		 DB	 5
  019aa	05		 DB	 5
  019ab	06		 DB	 6
  019ac	07		 DB	 7
  019ad	08		 DB	 8
  019ae	09		 DB	 9
  019af	0a		 DB	 10			; 0000000aH
  019b0	0b		 DB	 11			; 0000000bH
  019b1	0c		 DB	 12			; 0000000cH
  019b2	25		 DB	 37			; 00000025H
  019b3	0d		 DB	 13			; 0000000dH
  019b4	0e		 DB	 14			; 0000000eH
  019b5	0f		 DB	 15			; 0000000fH
  019b6	10		 DB	 16			; 00000010H
  019b7	11		 DB	 17			; 00000011H
  019b8	12		 DB	 18			; 00000012H
  019b9	13		 DB	 19			; 00000013H
  019ba	25		 DB	 37			; 00000025H
  019bb	25		 DB	 37			; 00000025H
  019bc	25		 DB	 37			; 00000025H
  019bd	25		 DB	 37			; 00000025H
  019be	25		 DB	 37			; 00000025H
  019bf	25		 DB	 37			; 00000025H
  019c0	14		 DB	 20			; 00000014H
  019c1	14		 DB	 20			; 00000014H
  019c2	14		 DB	 20			; 00000014H
  019c3	14		 DB	 20			; 00000014H
  019c4	15		 DB	 21			; 00000015H
  019c5	15		 DB	 21			; 00000015H
  019c6	16		 DB	 22			; 00000016H
  019c7	17		 DB	 23			; 00000017H
  019c8	18		 DB	 24			; 00000018H
  019c9	19		 DB	 25			; 00000019H
  019ca	19		 DB	 25			; 00000019H
  019cb	1a		 DB	 26			; 0000001aH
  019cc	1b		 DB	 27			; 0000001bH
  019cd	1b		 DB	 27			; 0000001bH
  019ce	1c		 DB	 28			; 0000001cH
  019cf	1d		 DB	 29			; 0000001dH
  019d0	1e		 DB	 30			; 0000001eH
  019d1	1f		 DB	 31			; 0000001fH
  019d2	20		 DB	 32			; 00000020H
  019d3	21		 DB	 33			; 00000021H
  019d4	25		 DB	 37			; 00000025H
  019d5	25		 DB	 37			; 00000025H
  019d6	25		 DB	 37			; 00000025H
  019d7	25		 DB	 37			; 00000025H
  019d8	25		 DB	 37			; 00000025H
  019d9	25		 DB	 37			; 00000025H
  019da	22		 DB	 34			; 00000022H
  019db	23		 DB	 35			; 00000023H
  019dc	24		 DB	 36			; 00000024H
  019dd	8d 49 00	 npad	 3
$L274278:
  019e0	00 00 00 00	 DD	 $L267009
  019e4	00 00 00 00	 DD	 $L267010
  019e8	00 00 00 00	 DD	 $L267011
  019ec	00 00 00 00	 DD	 $L267012
_TEXT	ENDS
;	COMDAT text$x
text$x	SEGMENT
$L273628:
  00000	8d 4d 04	 lea	 ecx, DWORD PTR $T273627[ebp-4]
  00003	e9 00 00 00 00	 jmp	 ??1?$CStringT@DV?$StrTraitMFC@DV?$ChTraitsCRT@D@ATL@@@@@ATL@@QAE@XZ ; ATL::CStringT<char,StrTraitMFC<char,ATL::ChTraitsCRT<char> > >::~CStringT<char,StrTraitMFC<char,ATL::ChTraitsCRT<char> > >
$L273629:
  00008	8d 4d 0c	 lea	 ecx, DWORD PTR _strMotion$267165[ebp-4]
  0000b	e9 00 00 00 00	 jmp	 ??1?$CStringT@DV?$StrTraitMFC@DV?$ChTraitsCRT@D@ATL@@@@@ATL@@QAE@XZ ; ATL::CStringT<char,StrTraitMFC<char,ATL::ChTraitsCRT<char> > >::~CStringT<char,StrTraitMFC<char,ATL::ChTraitsCRT<char> > >
__ehhandler$?ProcessActMsg1@CActionMover@@QAEHPAVCMover@@W4OBJMSG@@HHHHH@Z:
  00010	b8 00 00 00 00	 mov	 eax, OFFSET FLAT:$T274247
  00015	e9 00 00 00 00	 jmp	 ___CxxFrameHandler
text$x	ENDS
?ProcessActMsg1@CActionMover@@QAEHPAVCMover@@W4OBJMSG@@HHHHH@Z ENDP ; CActionMover::ProcessActMsg1
END
