; Listing generated by Microsoft (R) Optimizing Compiler Version 13.10.6030 

	TITLE	\Documents and Settings\test\Mes documents\Source\Virtuos_v17\Build\Program\_AIInterface\ActionMoverCollision.cpp
	.386P
include listing.inc
if @Version gt 510
.model FLAT
else
_TEXT	SEGMENT PARA USE32 PUBLIC 'CODE'
_TEXT	ENDS
_DATA	SEGMENT DWORD USE32 PUBLIC 'DATA'
_DATA	ENDS
CONST	SEGMENT DWORD USE32 PUBLIC 'CONST'
CONST	ENDS
_BSS	SEGMENT DWORD USE32 PUBLIC 'BSS'
_BSS	ENDS
$$SYMBOLS	SEGMENT BYTE USE32 'DEBSYM'
$$SYMBOLS	ENDS
$$TYPES	SEGMENT BYTE USE32 'DEBTYP'
$$TYPES	ENDS
_TLS	SEGMENT DWORD USE32 PUBLIC 'TLS'
_TLS	ENDS
xdata$x	SEGMENT DWORD USE32 PUBLIC 'CONST'
xdata$x	ENDS
text$AFX_COL1	SEGMENT PARA USE32 PUBLIC ''
text$AFX_COL1	ENDS
;	COMDAT ?CanCollisionFly@@YAHPAVCMover@@@Z
_TEXT	SEGMENT PARA USE32 PUBLIC 'CODE'
_TEXT	ENDS
;	COMDAT ?ProcessCollisionFly@CActionMover@@QAEHPAUD3DXVECTOR3@@@Z
_TEXT	SEGMENT PARA USE32 PUBLIC 'CODE'
_TEXT	ENDS
;	COMDAT ?ProcessCollisionGround@CActionMover@@QAEHPAUD3DXVECTOR3@@@Z
_TEXT	SEGMENT PARA USE32 PUBLIC 'CODE'
_TEXT	ENDS
;	COMDAT ?compare@?$basic_string@DU?$char_traits@D@std@@V?$allocator@D@2@@std@@QBEHABV12@@Z
_TEXT	SEGMENT PARA USE32 PUBLIC 'CODE'
_TEXT	ENDS
;	COMDAT ?IsFull@?$CStack@K@@QAEHXZ
_TEXT	SEGMENT PARA USE32 PUBLIC 'CODE'
_TEXT	ENDS
;	COMDAT ??0?$pair@KPAVCCtrl@@@std@@QAE@ABKABQAVCCtrl@@@Z
_TEXT	SEGMENT PARA USE32 PUBLIC 'CODE'
_TEXT	ENDS
;	COMDAT ?GetMax@?$CItemContainer@VCItemElem@@@@QAEHXZ
_TEXT	SEGMENT PARA USE32 PUBLIC 'CODE'
_TEXT	ENDS
;	COMDAT ??0?$deque@PAUtagACTMSG@@V?$allocator@PAUtagACTMSG@@@std@@@std@@QAE@XZ
_TEXT	SEGMENT PARA USE32 PUBLIC 'CODE'
_TEXT	ENDS
;	COMDAT ??1?$deque@PAUtagACTMSG@@V?$allocator@PAUtagACTMSG@@@std@@@std@@QAE@XZ
_TEXT	SEGMENT PARA USE32 PUBLIC 'CODE'
_TEXT	ENDS
;	COMDAT ?begin@?$deque@PAUtagACTMSG@@V?$allocator@PAUtagACTMSG@@@std@@@std@@QAE?AViterator@12@XZ
_TEXT	SEGMENT PARA USE32 PUBLIC 'CODE'
_TEXT	ENDS
;	COMDAT ?end@?$deque@PAUtagACTMSG@@V?$allocator@PAUtagACTMSG@@@std@@@std@@QAE?AViterator@12@XZ
_TEXT	SEGMENT PARA USE32 PUBLIC 'CODE'
_TEXT	ENDS
;	COMDAT ?empty@?$deque@PAUtagACTMSG@@V?$allocator@PAUtagACTMSG@@@std@@@std@@QBE_NXZ
_TEXT	SEGMENT PARA USE32 PUBLIC 'CODE'
_TEXT	ENDS
;	COMDAT ?clear@?$deque@PAUtagACTMSG@@V?$allocator@PAUtagACTMSG@@@std@@@std@@QAEXXZ
_TEXT	SEGMENT PARA USE32 PUBLIC 'CODE'
_TEXT	ENDS
;	COMDAT ??0?$deque@PAUtagMAGICATKMSG@@V?$allocator@PAUtagMAGICATKMSG@@@std@@@std@@QAE@XZ
_TEXT	SEGMENT PARA USE32 PUBLIC 'CODE'
_TEXT	ENDS
;	COMDAT ??1?$deque@PAUtagMAGICATKMSG@@V?$allocator@PAUtagMAGICATKMSG@@@std@@@std@@QAE@XZ
_TEXT	SEGMENT PARA USE32 PUBLIC 'CODE'
_TEXT	ENDS
;	COMDAT ?begin@?$deque@PAUtagMAGICATKMSG@@V?$allocator@PAUtagMAGICATKMSG@@@std@@@std@@QAE?AViterator@12@XZ
_TEXT	SEGMENT PARA USE32 PUBLIC 'CODE'
_TEXT	ENDS
;	COMDAT ?end@?$deque@PAUtagMAGICATKMSG@@V?$allocator@PAUtagMAGICATKMSG@@@std@@@std@@QAE?AViterator@12@XZ
_TEXT	SEGMENT PARA USE32 PUBLIC 'CODE'
_TEXT	ENDS
;	COMDAT ?empty@?$deque@PAUtagMAGICATKMSG@@V?$allocator@PAUtagMAGICATKMSG@@@std@@@std@@QBE_NXZ
_TEXT	SEGMENT PARA USE32 PUBLIC 'CODE'
_TEXT	ENDS
;	COMDAT ?clear@?$deque@PAUtagMAGICATKMSG@@V?$allocator@PAUtagMAGICATKMSG@@@std@@@std@@QAEXXZ
_TEXT	SEGMENT PARA USE32 PUBLIC 'CODE'
_TEXT	ENDS
;	COMDAT ??Diterator@?$deque@PAUtagACTMSG@@V?$allocator@PAUtagACTMSG@@@std@@@std@@QBEAAPAUtagACTMSG@@XZ
_TEXT	SEGMENT PARA USE32 PUBLIC 'CODE'
_TEXT	ENDS
;	COMDAT ??Eiterator@?$deque@PAUtagACTMSG@@V?$allocator@PAUtagACTMSG@@@std@@@std@@QAEAAV012@XZ
_TEXT	SEGMENT PARA USE32 PUBLIC 'CODE'
_TEXT	ENDS
;	COMDAT ??9const_iterator@?$deque@PAUtagACTMSG@@V?$allocator@PAUtagACTMSG@@@std@@@std@@QBE_NABV012@@Z
_TEXT	SEGMENT PARA USE32 PUBLIC 'CODE'
_TEXT	ENDS
;	COMDAT ??Diterator@?$deque@PAUtagMAGICATKMSG@@V?$allocator@PAUtagMAGICATKMSG@@@std@@@std@@QBEAAPAUtagMAGICATKMSG@@XZ
_TEXT	SEGMENT PARA USE32 PUBLIC 'CODE'
_TEXT	ENDS
;	COMDAT ??Eiterator@?$deque@PAUtagMAGICATKMSG@@V?$allocator@PAUtagMAGICATKMSG@@@std@@@std@@QAEAAV012@XZ
_TEXT	SEGMENT PARA USE32 PUBLIC 'CODE'
_TEXT	ENDS
;	COMDAT ??9const_iterator@?$deque@PAUtagMAGICATKMSG@@V?$allocator@PAUtagMAGICATKMSG@@@std@@@std@@QBE_NABV012@@Z
_TEXT	SEGMENT PARA USE32 PUBLIC 'CODE'
_TEXT	ENDS
;	COMDAT ?compare@?$basic_string@DU?$char_traits@D@std@@V?$allocator@D@2@@std@@QBEHIIPBDI@Z
_TEXT	SEGMENT PARA USE32 PUBLIC 'CODE'
_TEXT	ENDS
;	COMDAT ?_Tidy@?$deque@PAUtagACTMSG@@V?$allocator@PAUtagACTMSG@@@std@@@std@@IAEXXZ
_TEXT	SEGMENT PARA USE32 PUBLIC 'CODE'
_TEXT	ENDS
;	COMDAT ??0?$_Deque_val@PAUtagACTMSG@@V?$allocator@PAUtagACTMSG@@@std@@@std@@IAE@V?$allocator@PAUtagACTMSG@@@1@@Z
_TEXT	SEGMENT PARA USE32 PUBLIC 'CODE'
_TEXT	ENDS
;	COMDAT ??0?$allocator@PAUtagACTMSG@@@std@@QAE@XZ
_TEXT	SEGMENT PARA USE32 PUBLIC 'CODE'
_TEXT	ENDS
;	COMDAT ?_Tidy@?$deque@PAUtagMAGICATKMSG@@V?$allocator@PAUtagMAGICATKMSG@@@std@@@std@@IAEXXZ
_TEXT	SEGMENT PARA USE32 PUBLIC 'CODE'
_TEXT	ENDS
;	COMDAT ??0?$_Deque_val@PAUtagMAGICATKMSG@@V?$allocator@PAUtagMAGICATKMSG@@@std@@@std@@IAE@V?$allocator@PAUtagMAGICATKMSG@@@1@@Z
_TEXT	SEGMENT PARA USE32 PUBLIC 'CODE'
_TEXT	ENDS
;	COMDAT ??0?$allocator@PAUtagMAGICATKMSG@@@std@@QAE@XZ
_TEXT	SEGMENT PARA USE32 PUBLIC 'CODE'
_TEXT	ENDS
;	COMDAT ??0iterator@?$deque@PAUtagACTMSG@@V?$allocator@PAUtagACTMSG@@@std@@@std@@QAE@IPBV12@@Z
_TEXT	SEGMENT PARA USE32 PUBLIC 'CODE'
_TEXT	ENDS
;	COMDAT ??Dconst_iterator@?$deque@PAUtagACTMSG@@V?$allocator@PAUtagACTMSG@@@std@@@std@@QBEABQAUtagACTMSG@@XZ
_TEXT	SEGMENT PARA USE32 PUBLIC 'CODE'
_TEXT	ENDS
;	COMDAT ??8const_iterator@?$deque@PAUtagACTMSG@@V?$allocator@PAUtagACTMSG@@@std@@@std@@QBE_NABV012@@Z
_TEXT	SEGMENT PARA USE32 PUBLIC 'CODE'
_TEXT	ENDS
;	COMDAT ??0iterator@?$deque@PAUtagMAGICATKMSG@@V?$allocator@PAUtagMAGICATKMSG@@@std@@@std@@QAE@IPBV12@@Z
_TEXT	SEGMENT PARA USE32 PUBLIC 'CODE'
_TEXT	ENDS
;	COMDAT ??Dconst_iterator@?$deque@PAUtagMAGICATKMSG@@V?$allocator@PAUtagMAGICATKMSG@@@std@@@std@@QBEABQAUtagMAGICATKMSG@@XZ
_TEXT	SEGMENT PARA USE32 PUBLIC 'CODE'
_TEXT	ENDS
;	COMDAT ??8const_iterator@?$deque@PAUtagMAGICATKMSG@@V?$allocator@PAUtagMAGICATKMSG@@@std@@@std@@QBE_NABV012@@Z
_TEXT	SEGMENT PARA USE32 PUBLIC 'CODE'
_TEXT	ENDS
;	COMDAT ?pop_back@?$deque@PAUtagACTMSG@@V?$allocator@PAUtagACTMSG@@@std@@@std@@QAEXXZ
_TEXT	SEGMENT PARA USE32 PUBLIC 'CODE'
_TEXT	ENDS
;	COMDAT ??0?$_Deque_map@PAUtagACTMSG@@V?$allocator@PAUtagACTMSG@@@std@@@std@@IAE@V?$allocator@PAUtagACTMSG@@@1@@Z
_TEXT	SEGMENT PARA USE32 PUBLIC 'CODE'
_TEXT	ENDS
;	COMDAT ??0?$allocator@PAUtagACTMSG@@@std@@QAE@ABV01@@Z
_TEXT	SEGMENT PARA USE32 PUBLIC 'CODE'
_TEXT	ENDS
;	COMDAT ?deallocate@?$allocator@PAUtagACTMSG@@@std@@QAEXPAPAUtagACTMSG@@I@Z
_TEXT	SEGMENT PARA USE32 PUBLIC 'CODE'
_TEXT	ENDS
;	COMDAT ?deallocate@?$allocator@PAPAUtagACTMSG@@@std@@QAEXPAPAPAUtagACTMSG@@I@Z
_TEXT	SEGMENT PARA USE32 PUBLIC 'CODE'
_TEXT	ENDS
;	COMDAT ?destroy@?$allocator@PAPAUtagACTMSG@@@std@@QAEXPAPAPAUtagACTMSG@@@Z
_TEXT	SEGMENT PARA USE32 PUBLIC 'CODE'
_TEXT	ENDS
;	COMDAT ?pop_back@?$deque@PAUtagMAGICATKMSG@@V?$allocator@PAUtagMAGICATKMSG@@@std@@@std@@QAEXXZ
_TEXT	SEGMENT PARA USE32 PUBLIC 'CODE'
_TEXT	ENDS
;	COMDAT ??0?$_Deque_map@PAUtagMAGICATKMSG@@V?$allocator@PAUtagMAGICATKMSG@@@std@@@std@@IAE@V?$allocator@PAUtagMAGICATKMSG@@@1@@Z
_TEXT	SEGMENT PARA USE32 PUBLIC 'CODE'
_TEXT	ENDS
;	COMDAT ??0?$allocator@PAUtagMAGICATKMSG@@@std@@QAE@ABV01@@Z
_TEXT	SEGMENT PARA USE32 PUBLIC 'CODE'
_TEXT	ENDS
;	COMDAT ?deallocate@?$allocator@PAUtagMAGICATKMSG@@@std@@QAEXPAPAUtagMAGICATKMSG@@I@Z
_TEXT	SEGMENT PARA USE32 PUBLIC 'CODE'
_TEXT	ENDS
;	COMDAT ?deallocate@?$allocator@PAPAUtagMAGICATKMSG@@@std@@QAEXPAPAPAUtagMAGICATKMSG@@I@Z
_TEXT	SEGMENT PARA USE32 PUBLIC 'CODE'
_TEXT	ENDS
;	COMDAT ?destroy@?$allocator@PAPAUtagMAGICATKMSG@@@std@@QAEXPAPAPAUtagMAGICATKMSG@@@Z
_TEXT	SEGMENT PARA USE32 PUBLIC 'CODE'
_TEXT	ENDS
;	COMDAT ??0const_iterator@?$deque@PAUtagACTMSG@@V?$allocator@PAUtagACTMSG@@@std@@@std@@QAE@IPBV12@@Z
_TEXT	SEGMENT PARA USE32 PUBLIC 'CODE'
_TEXT	ENDS
;	COMDAT ??0const_iterator@?$deque@PAUtagMAGICATKMSG@@V?$allocator@PAUtagMAGICATKMSG@@@std@@@std@@QAE@IPBV12@@Z
_TEXT	SEGMENT PARA USE32 PUBLIC 'CODE'
_TEXT	ENDS
;	COMDAT ?destroy@?$allocator@PAUtagACTMSG@@@std@@QAEXPAPAUtagACTMSG@@@Z
_TEXT	SEGMENT PARA USE32 PUBLIC 'CODE'
_TEXT	ENDS
;	COMDAT ?destroy@?$allocator@PAUtagMAGICATKMSG@@@std@@QAEXPAPAUtagMAGICATKMSG@@@Z
_TEXT	SEGMENT PARA USE32 PUBLIC 'CODE'
_TEXT	ENDS
;	COMDAT ??$_Iter_cat@Vconst_iterator@?$vector@EV?$allocator@E@std@@@std@@@std@@YA?AUrandom_access_iterator_tag@0@ABVconst_iterator@?$vector@EV?$allocator@E@std@@@0@@Z
_TEXT	SEGMENT PARA USE32 PUBLIC 'CODE'
_TEXT	ENDS
;	COMDAT ??$_Assign@Vconst_iterator@?$vector@EV?$allocator@E@std@@@std@@@?$vector@EV?$allocator@E@std@@@std@@QAEXVconst_iterator@01@0Uinput_iterator_tag@1@@Z
_TEXT	SEGMENT PARA USE32 PUBLIC 'CODE'
_TEXT	ENDS
;	COMDAT ??$_Iter_cat@Viterator@?$_Tree@V?$_Tmap_traits@KPAVCUser@@U?$less@K@std@@V?$allocator@U?$pair@$$CBKPAVCUser@@@std@@@3@$0A@@std@@@std@@@std@@YA?AUbidirectional_iterator_tag@0@ABViterator@?$_Tree@V?$_Tmap_traits@KPAVCUser@@U?$less@K@std@@V?$allocator@U?$pair@$$CBKPAVCUser@@@std@@@3@$0A@@std@@@0@@Z
_TEXT	SEGMENT PARA USE32 PUBLIC 'CODE'
_TEXT	ENDS
;	COMDAT ??$_Distance2@Viterator@?$_Tree@V?$_Tmap_traits@KPAVCUser@@U?$less@K@std@@V?$allocator@U?$pair@$$CBKPAVCUser@@@std@@@3@$0A@@std@@@std@@I@std@@YAXViterator@?$_Tree@V?$_Tmap_traits@KPAVCUser@@U?$less@K@std@@V?$allocator@U?$pair@$$CBKPAVCUser@@@std@@@3@$0A@@std@@@0@0AAIUbidirectional_iterator_tag@0@@Z
_TEXT	SEGMENT PARA USE32 PUBLIC 'CODE'
_TEXT	ENDS
;	COMDAT ??$_Iter_cat@Viterator@?$_Tree@V?$_Tmap_traits@KPAVCCtrl@@U?$less@K@std@@V?$allocator@U?$pair@$$CBKPAVCCtrl@@@std@@@3@$0A@@std@@@std@@@std@@YA?AUbidirectional_iterator_tag@0@ABViterator@?$_Tree@V?$_Tmap_traits@KPAVCCtrl@@U?$less@K@std@@V?$allocator@U?$pair@$$CBKPAVCCtrl@@@std@@@3@$0A@@std@@@0@@Z
_TEXT	SEGMENT PARA USE32 PUBLIC 'CODE'
_TEXT	ENDS
;	COMDAT ??$_Distance2@Viterator@?$_Tree@V?$_Tmap_traits@KPAVCCtrl@@U?$less@K@std@@V?$allocator@U?$pair@$$CBKPAVCCtrl@@@std@@@3@$0A@@std@@@std@@I@std@@YAXViterator@?$_Tree@V?$_Tmap_traits@KPAVCCtrl@@U?$less@K@std@@V?$allocator@U?$pair@$$CBKPAVCCtrl@@@std@@@3@$0A@@std@@@0@0AAIUbidirectional_iterator_tag@0@@Z
_TEXT	SEGMENT PARA USE32 PUBLIC 'CODE'
_TEXT	ENDS
;	COMDAT ??$_Uninitialized_copy@Vconst_iterator@?$vector@EV?$allocator@E@std@@@std@@PAEV?$allocator@E@3@@std@@YAPAEVconst_iterator@?$vector@EV?$allocator@E@std@@@0@0PAEAAV?$allocator@E@0@@Z
_TEXT	SEGMENT PARA USE32 PUBLIC 'CODE'
_TEXT	ENDS
;	COMDAT ??$_Iter_cat@Viterator@?$_Tree@V?$_Tmap_traits@KEU?$less@K@std@@V?$allocator@U?$pair@$$CBKE@std@@@2@$0A@@std@@@std@@@std@@YA?AUbidirectional_iterator_tag@0@ABViterator@?$_Tree@V?$_Tmap_traits@KEU?$less@K@std@@V?$allocator@U?$pair@$$CBKE@std@@@2@$0A@@std@@@0@@Z
_TEXT	SEGMENT PARA USE32 PUBLIC 'CODE'
_TEXT	ENDS
;	COMDAT ??$_Distance2@Viterator@?$_Tree@V?$_Tmap_traits@KEU?$less@K@std@@V?$allocator@U?$pair@$$CBKE@std@@@2@$0A@@std@@@std@@I@std@@YAXViterator@?$_Tree@V?$_Tmap_traits@KEU?$less@K@std@@V?$allocator@U?$pair@$$CBKE@std@@@2@$0A@@std@@@0@0AAIUbidirectional_iterator_tag@0@@Z
_TEXT	SEGMENT PARA USE32 PUBLIC 'CODE'
_TEXT	ENDS
;	COMDAT ??$_Ptr_cat@PAU__SPAWNREGION@CEventLua@@PAU12@@std@@YA?AU_Nonscalar_ptr_iterator_tag@0@AAPAU__SPAWNREGION@CEventLua@@0@Z
_TEXT	SEGMENT PARA USE32 PUBLIC 'CODE'
_TEXT	ENDS
;	COMDAT ??$_Uninit_fill_n@PAU__SPAWNREGION@CEventLua@@IU12@V?$allocator@U__SPAWNREGION@CEventLua@@@std@@@std@@YAXPAU__SPAWNREGION@CEventLua@@IABU12@AAV?$allocator@U__SPAWNREGION@CEventLua@@@0@U_Nonscalar_ptr_iterator_tag@0@@Z
_TEXT	SEGMENT PARA USE32 PUBLIC 'CODE'
_TEXT	ENDS
;	COMDAT ??$_Copy_opt@PAJPAJ@std@@YAPAJPAJ00U_Scalar_ptr_iterator_tag@0@@Z
_TEXT	SEGMENT PARA USE32 PUBLIC 'CODE'
_TEXT	ENDS
;	COMDAT ??$_Uninitialized_copy@PAJPAJV?$allocator@J@std@@@std@@YAPAJPAJ00AAV?$allocator@J@0@@Z
_TEXT	SEGMENT PARA USE32 PUBLIC 'CODE'
_TEXT	ENDS
;	COMDAT ??$_Copy_backward_opt@PAJPAJ@std@@YAPAJPAJ00U_Scalar_ptr_iterator_tag@0@@Z
_TEXT	SEGMENT PARA USE32 PUBLIC 'CODE'
_TEXT	ENDS
;	COMDAT ??$_Ptr_cat@PAUtagDROPITEM@@PAU1@@std@@YA?AU_Nonscalar_ptr_iterator_tag@0@AAPAUtagDROPITEM@@0@Z
_TEXT	SEGMENT PARA USE32 PUBLIC 'CODE'
_TEXT	ENDS
;	COMDAT ??$_Destroy_range@UtagDROPITEM@@V?$allocator@UtagDROPITEM@@@std@@@std@@YAXPAUtagDROPITEM@@0AAV?$allocator@UtagDROPITEM@@@0@U_Nonscalar_ptr_iterator_tag@0@@Z
_TEXT	SEGMENT PARA USE32 PUBLIC 'CODE'
_TEXT	ENDS
;	COMDAT ??$_Ptr_cat@PAUWORMON@@PAU1@@std@@YA?AU_Nonscalar_ptr_iterator_tag@0@AAPAUWORMON@@0@Z
_TEXT	SEGMENT PARA USE32 PUBLIC 'CODE'
_TEXT	ENDS
;	COMDAT ??$_Destroy_range@UWORMON@@V?$allocator@UWORMON@@@std@@@std@@YAXPAUWORMON@@0AAV?$allocator@UWORMON@@@0@U_Nonscalar_ptr_iterator_tag@0@@Z
_TEXT	SEGMENT PARA USE32 PUBLIC 'CODE'
_TEXT	ENDS
;	COMDAT ??$_Ptr_cat@PAU__ITEMGAME@CMiniGame@@PAU12@@std@@YA?AU_Nonscalar_ptr_iterator_tag@0@AAPAU__ITEMGAME@CMiniGame@@0@Z
_TEXT	SEGMENT PARA USE32 PUBLIC 'CODE'
_TEXT	ENDS
;	COMDAT ??$_Destroy_range@U__ITEMGAME@CMiniGame@@V?$allocator@U__ITEMGAME@CMiniGame@@@std@@@std@@YAXPAU__ITEMGAME@CMiniGame@@0AAV?$allocator@U__ITEMGAME@CMiniGame@@@0@U_Nonscalar_ptr_iterator_tag@0@@Z
_TEXT	SEGMENT PARA USE32 PUBLIC 'CODE'
_TEXT	ENDS
;	COMDAT ??$_Destroy_range@KV?$allocator@K@std@@@std@@YAXPAK0AAV?$allocator@K@0@U_Scalar_ptr_iterator_tag@0@@Z
_TEXT	SEGMENT PARA USE32 PUBLIC 'CODE'
_TEXT	ENDS
;	COMDAT ??$_Destroy_range@HV?$allocator@H@std@@@std@@YAXPAH0AAV?$allocator@H@0@U_Scalar_ptr_iterator_tag@0@@Z
_TEXT	SEGMENT PARA USE32 PUBLIC 'CODE'
_TEXT	ENDS
;	COMDAT ??$_Ptr_cat@PAU__ITEM@CExchange@@PAU12@@std@@YA?AU_Nonscalar_ptr_iterator_tag@0@AAPAU__ITEM@CExchange@@0@Z
_TEXT	SEGMENT PARA USE32 PUBLIC 'CODE'
_TEXT	ENDS
;	COMDAT ??$_Destroy_range@U__ITEM@CExchange@@V?$allocator@U__ITEM@CExchange@@@std@@@std@@YAXPAU__ITEM@CExchange@@0AAV?$allocator@U__ITEM@CExchange@@@0@U_Nonscalar_ptr_iterator_tag@0@@Z
_TEXT	SEGMENT PARA USE32 PUBLIC 'CODE'
_TEXT	ENDS
;	COMDAT ??$_Ptr_cat@PAU__POINT@CExchange@@PAU12@@std@@YA?AU_Nonscalar_ptr_iterator_tag@0@AAPAU__POINT@CExchange@@0@Z
_TEXT	SEGMENT PARA USE32 PUBLIC 'CODE'
_TEXT	ENDS
;	COMDAT ??$_Destroy_range@U__POINT@CExchange@@V?$allocator@U__POINT@CExchange@@@std@@@std@@YAXPAU__POINT@CExchange@@0AAV?$allocator@U__POINT@CExchange@@@0@U_Nonscalar_ptr_iterator_tag@0@@Z
_TEXT	SEGMENT PARA USE32 PUBLIC 'CODE'
_TEXT	ENDS
;	COMDAT ??$_Destroy_range@EV?$allocator@E@std@@@std@@YAXPAE0AAV?$allocator@E@0@U_Scalar_ptr_iterator_tag@0@@Z
_TEXT	SEGMENT PARA USE32 PUBLIC 'CODE'
_TEXT	ENDS
;	COMDAT ??$_Uninitialized_copy@PAU__SPAWNREGION@CEventLua@@PAU12@V?$allocator@U__SPAWNREGION@CEventLua@@@std@@@std@@YAPAU__SPAWNREGION@CEventLua@@PAU12@00AAV?$allocator@U__SPAWNREGION@CEventLua@@@0@@Z
_TEXT	SEGMENT PARA USE32 PUBLIC 'CODE'
_TEXT	ENDS
;	COMDAT ??$_Copy_backward_opt@PAU__SPAWNREGION@CEventLua@@PAU12@@std@@YAPAU__SPAWNREGION@CEventLua@@PAU12@00U_Nonscalar_ptr_iterator_tag@0@@Z
_TEXT	SEGMENT PARA USE32 PUBLIC 'CODE'
_TEXT	ENDS
;	COMDAT ??$_Ptr_cat@PAUD3DXVECTOR3@@PAU1@@std@@YA?AU_Nonscalar_ptr_iterator_tag@0@AAPAUD3DXVECTOR3@@0@Z
_TEXT	SEGMENT PARA USE32 PUBLIC 'CODE'
_TEXT	ENDS
;	COMDAT ??$_Destroy_range@UD3DXVECTOR3@@V?$allocator@UD3DXVECTOR3@@@std@@@std@@YAXPAUD3DXVECTOR3@@0AAV?$allocator@UD3DXVECTOR3@@@0@U_Nonscalar_ptr_iterator_tag@0@@Z
_TEXT	SEGMENT PARA USE32 PUBLIC 'CODE'
_TEXT	ENDS
;	COMDAT ??$_Ptr_cat@PAU_GIFTBOX@@PAU1@@std@@YA?AU_Nonscalar_ptr_iterator_tag@0@AAPAU_GIFTBOX@@0@Z
_TEXT	SEGMENT PARA USE32 PUBLIC 'CODE'
_TEXT	ENDS
;	COMDAT ??$_Destroy_range@U_GIFTBOX@@V?$allocator@U_GIFTBOX@@@std@@@std@@YAXPAU_GIFTBOX@@0AAV?$allocator@U_GIFTBOX@@@0@U_Nonscalar_ptr_iterator_tag@0@@Z
_TEXT	SEGMENT PARA USE32 PUBLIC 'CODE'
_TEXT	ENDS
;	COMDAT ??$_Destroy_range@JV?$allocator@J@std@@@std@@YAXPAJ0AAV?$allocator@J@0@U_Scalar_ptr_iterator_tag@0@@Z
_TEXT	SEGMENT PARA USE32 PUBLIC 'CODE'
_TEXT	ENDS
;	COMDAT ??$_Uninit_fill_n@JIJ@std@@YAXPAJIABJAAV?$allocator@J@0@U_Scalar_ptr_iterator_tag@0@@Z
_TEXT	SEGMENT PARA USE32 PUBLIC 'CODE'
_TEXT	ENDS
;	COMDAT ??$_Destroy_range@U__SPAWNREGION@CEventLua@@V?$allocator@U__SPAWNREGION@CEventLua@@@std@@@std@@YAXPAU__SPAWNREGION@CEventLua@@0AAV?$allocator@U__SPAWNREGION@CEventLua@@@0@U_Nonscalar_ptr_iterator_tag@0@@Z
_TEXT	SEGMENT PARA USE32 PUBLIC 'CODE'
_TEXT	ENDS
;	COMDAT ??$?0PAUtagACTMSG@@@?$allocator@PAPAUtagACTMSG@@@std@@QAE@ABV?$allocator@PAUtagACTMSG@@@1@@Z
_TEXT	SEGMENT PARA USE32 PUBLIC 'CODE'
_TEXT	ENDS
;	COMDAT ??$_Destroy@PAPAUtagACTMSG@@@std@@YAXPAPAPAUtagACTMSG@@@Z
_TEXT	SEGMENT PARA USE32 PUBLIC 'CODE'
_TEXT	ENDS
;	COMDAT ??$?0PAUtagMAGICATKMSG@@@?$allocator@PAPAUtagMAGICATKMSG@@@std@@QAE@ABV?$allocator@PAUtagMAGICATKMSG@@@1@@Z
_TEXT	SEGMENT PARA USE32 PUBLIC 'CODE'
_TEXT	ENDS
;	COMDAT ??$_Destroy@PAPAUtagMAGICATKMSG@@@std@@YAXPAPAPAUtagMAGICATKMSG@@@Z
_TEXT	SEGMENT PARA USE32 PUBLIC 'CODE'
_TEXT	ENDS
;	COMDAT ??$_Destroy@PAUtagACTMSG@@@std@@YAXPAPAUtagACTMSG@@@Z
_TEXT	SEGMENT PARA USE32 PUBLIC 'CODE'
_TEXT	ENDS
;	COMDAT ??$_Destroy@PAUtagMAGICATKMSG@@@std@@YAXPAPAUtagMAGICATKMSG@@@Z
_TEXT	SEGMENT PARA USE32 PUBLIC 'CODE'
_TEXT	ENDS
;	COMDAT ?destroy@?$allocator@UtagDROPITEM@@@std@@QAEXPAUtagDROPITEM@@@Z
_TEXT	SEGMENT PARA USE32 PUBLIC 'CODE'
_TEXT	ENDS
;	COMDAT ?destroy@?$allocator@UWORMON@@@std@@QAEXPAUWORMON@@@Z
_TEXT	SEGMENT PARA USE32 PUBLIC 'CODE'
_TEXT	ENDS
;	COMDAT ?destroy@?$allocator@U__ITEMGAME@CMiniGame@@@std@@QAEXPAU__ITEMGAME@CMiniGame@@@Z
_TEXT	SEGMENT PARA USE32 PUBLIC 'CODE'
_TEXT	ENDS
;	COMDAT ?destroy@?$allocator@U__ITEM@CExchange@@@std@@QAEXPAU__ITEM@CExchange@@@Z
_TEXT	SEGMENT PARA USE32 PUBLIC 'CODE'
_TEXT	ENDS
;	COMDAT ?destroy@?$allocator@U__POINT@CExchange@@@std@@QAEXPAU__POINT@CExchange@@@Z
_TEXT	SEGMENT PARA USE32 PUBLIC 'CODE'
_TEXT	ENDS
;	COMDAT ?begin@?$vector@EV?$allocator@E@std@@@std@@QAE?AViterator@12@XZ
_TEXT	SEGMENT PARA USE32 PUBLIC 'CODE'
_TEXT	ENDS
;	COMDAT ?end@?$vector@EV?$allocator@E@std@@@std@@QAE?AViterator@12@XZ
_TEXT	SEGMENT PARA USE32 PUBLIC 'CODE'
_TEXT	ENDS
;	COMDAT ?erase@?$vector@EV?$allocator@E@std@@@std@@QAE?AViterator@12@V312@0@Z
_TEXT	SEGMENT PARA USE32 PUBLIC 'CODE'
_TEXT	ENDS
;	COMDAT ?construct@?$allocator@U__SPAWNREGION@CEventLua@@@std@@QAEXPAU__SPAWNREGION@CEventLua@@ABU34@@Z
_TEXT	SEGMENT PARA USE32 PUBLIC 'CODE'
_TEXT	ENDS
;	COMDAT ?destroy@?$allocator@U__SPAWNREGION@CEventLua@@@std@@QAEXPAU__SPAWNREGION@CEventLua@@@Z
_TEXT	SEGMENT PARA USE32 PUBLIC 'CODE'
_TEXT	ENDS
;	COMDAT ?destroy@?$allocator@UD3DXVECTOR3@@@std@@QAEXPAUD3DXVECTOR3@@@Z
_TEXT	SEGMENT PARA USE32 PUBLIC 'CODE'
_TEXT	ENDS
;	COMDAT ?destroy@?$allocator@U_GIFTBOX@@@std@@QAEXPAU_GIFTBOX@@@Z
_TEXT	SEGMENT PARA USE32 PUBLIC 'CODE'
_TEXT	ENDS
;	COMDAT ??9const_iterator@?$vector@EV?$allocator@E@std@@@std@@QBE_NABV012@@Z
_TEXT	SEGMENT PARA USE32 PUBLIC 'CODE'
_TEXT	ENDS
;	COMDAT ??0iterator@?$vector@EV?$allocator@E@std@@@std@@QAE@PAE@Z
_TEXT	SEGMENT PARA USE32 PUBLIC 'CODE'
_TEXT	ENDS
;	COMDAT ??8const_iterator@?$vector@EV?$allocator@E@std@@@std@@QBE_NABV012@@Z
_TEXT	SEGMENT PARA USE32 PUBLIC 'CODE'
_TEXT	ENDS
;	COMDAT ??$insert@Vconst_iterator@?$vector@EV?$allocator@E@std@@@std@@@?$vector@EV?$allocator@E@std@@@std@@QAEXViterator@01@Vconst_iterator@01@1@Z
_TEXT	SEGMENT PARA USE32 PUBLIC 'CODE'
_TEXT	ENDS
;	COMDAT ??$_Ptr_cat@Vconst_iterator@?$vector@EV?$allocator@E@std@@@std@@PAE@std@@YA?AU_Nonscalar_ptr_iterator_tag@0@AAVconst_iterator@?$vector@EV?$allocator@E@std@@@0@AAPAE@Z
_TEXT	SEGMENT PARA USE32 PUBLIC 'CODE'
_TEXT	ENDS
;	COMDAT ??$_Uninit_copy@Vconst_iterator@?$vector@EV?$allocator@E@std@@@std@@PAEV?$allocator@E@3@@std@@YAPAEVconst_iterator@?$vector@EV?$allocator@E@std@@@0@0PAEAAV?$allocator@E@0@U_Nonscalar_ptr_iterator_tag@0@@Z
_TEXT	SEGMENT PARA USE32 PUBLIC 'CODE'
_TEXT	ENDS
;	COMDAT ??$_Uninit_copy@JJ@std@@YAPAJPAJ00AAV?$allocator@J@0@U_Scalar_ptr_iterator_tag@0@@Z
_TEXT	SEGMENT PARA USE32 PUBLIC 'CODE'
_TEXT	ENDS
;	COMDAT ??$_Uninit_copy@PAU__SPAWNREGION@CEventLua@@PAU12@V?$allocator@U__SPAWNREGION@CEventLua@@@std@@@std@@YAPAU__SPAWNREGION@CEventLua@@PAU12@00AAV?$allocator@U__SPAWNREGION@CEventLua@@@0@U_Nonscalar_ptr_iterator_tag@0@@Z
_TEXT	SEGMENT PARA USE32 PUBLIC 'CODE'
_TEXT	ENDS
;	COMDAT ??$fill_n@PAJIJ@std@@YAXPAJIABJ@Z
_TEXT	SEGMENT PARA USE32 PUBLIC 'CODE'
_TEXT	ENDS
;	COMDAT ??$_Destroy@UtagDROPITEM@@@std@@YAXPAUtagDROPITEM@@@Z
_TEXT	SEGMENT PARA USE32 PUBLIC 'CODE'
_TEXT	ENDS
;	COMDAT ??$_Destroy@UWORMON@@@std@@YAXPAUWORMON@@@Z
_TEXT	SEGMENT PARA USE32 PUBLIC 'CODE'
_TEXT	ENDS
;	COMDAT ??$_Destroy@U__ITEMGAME@CMiniGame@@@std@@YAXPAU__ITEMGAME@CMiniGame@@@Z
_TEXT	SEGMENT PARA USE32 PUBLIC 'CODE'
_TEXT	ENDS
;	COMDAT ??$_Destroy@U__ITEM@CExchange@@@std@@YAXPAU__ITEM@CExchange@@@Z
_TEXT	SEGMENT PARA USE32 PUBLIC 'CODE'
_TEXT	ENDS
;	COMDAT ??$_Destroy@U__POINT@CExchange@@@std@@YAXPAU__POINT@CExchange@@@Z
_TEXT	SEGMENT PARA USE32 PUBLIC 'CODE'
_TEXT	ENDS
;	COMDAT ??$copy@PAEPAE@std@@YAPAEPAE00@Z
_TEXT	SEGMENT PARA USE32 PUBLIC 'CODE'
_TEXT	ENDS
;	COMDAT ??$_Construct@U__SPAWNREGION@CEventLua@@U12@@std@@YAXPAU__SPAWNREGION@CEventLua@@ABU12@@Z
_TEXT	SEGMENT PARA USE32 PUBLIC 'CODE'
_TEXT	ENDS
;	COMDAT ??$_Destroy@U__SPAWNREGION@CEventLua@@@std@@YAXPAU__SPAWNREGION@CEventLua@@@Z
_TEXT	SEGMENT PARA USE32 PUBLIC 'CODE'
_TEXT	ENDS
;	COMDAT ??$_Destroy@UD3DXVECTOR3@@@std@@YAXPAUD3DXVECTOR3@@@Z
_TEXT	SEGMENT PARA USE32 PUBLIC 'CODE'
_TEXT	ENDS
;	COMDAT ??$_Destroy@U_GIFTBOX@@@std@@YAXPAU_GIFTBOX@@@Z
_TEXT	SEGMENT PARA USE32 PUBLIC 'CODE'
_TEXT	ENDS
;	COMDAT ?construct@?$allocator@E@std@@QAEXPAEABE@Z
_TEXT	SEGMENT PARA USE32 PUBLIC 'CODE'
_TEXT	ENDS
;	COMDAT ?destroy@?$allocator@E@std@@QAEXPAE@Z
_TEXT	SEGMENT PARA USE32 PUBLIC 'CODE'
_TEXT	ENDS
;	COMDAT ??Dconst_iterator@?$vector@EV?$allocator@E@std@@@std@@QBEABEXZ
_TEXT	SEGMENT PARA USE32 PUBLIC 'CODE'
_TEXT	ENDS
;	COMDAT ??Econst_iterator@?$vector@EV?$allocator@E@std@@@std@@QAEAAV012@XZ
_TEXT	SEGMENT PARA USE32 PUBLIC 'CODE'
_TEXT	ENDS
;	COMDAT ??$_Insert@Vconst_iterator@?$vector@EV?$allocator@E@std@@@std@@@?$vector@EV?$allocator@E@std@@@std@@QAEXViterator@01@Vconst_iterator@01@1Uforward_iterator_tag@1@@Z
_TEXT	SEGMENT PARA USE32 PUBLIC 'CODE'
_TEXT	ENDS
;	COMDAT ??$_Copy_opt@PAEPAE@std@@YAPAEPAE00U_Scalar_ptr_iterator_tag@0@@Z
_TEXT	SEGMENT PARA USE32 PUBLIC 'CODE'
_TEXT	ENDS
;	COMDAT ??$_Construct@EE@std@@YAXPAEABE@Z
_TEXT	SEGMENT PARA USE32 PUBLIC 'CODE'
_TEXT	ENDS
;	COMDAT ??$_Destroy@E@std@@YAXPAE@Z
_TEXT	SEGMENT PARA USE32 PUBLIC 'CODE'
_TEXT	ENDS
;	COMDAT ?capacity@?$vector@EV?$allocator@E@std@@@std@@QBEIXZ
_TEXT	SEGMENT PARA USE32 PUBLIC 'CODE'
_TEXT	ENDS
;	COMDAT ??Giterator@?$vector@EV?$allocator@E@std@@@std@@QBEHABVconst_iterator@12@@Z
_TEXT	SEGMENT PARA USE32 PUBLIC 'CODE'
_TEXT	ENDS
;	COMDAT ??Gconst_iterator@?$vector@EV?$allocator@E@std@@@std@@QBEHABV012@@Z
_TEXT	SEGMENT PARA USE32 PUBLIC 'CODE'
_TEXT	ENDS
;	COMDAT ??$_Distance@Vconst_iterator@?$vector@EV?$allocator@E@std@@@std@@I@std@@YAXVconst_iterator@?$vector@EV?$allocator@E@std@@@0@0AAI@Z
_TEXT	SEGMENT PARA USE32 PUBLIC 'CODE'
_TEXT	ENDS
;	COMDAT ??$_Ucopy@PAE@?$vector@EV?$allocator@E@std@@@std@@IAEPAEPAE00@Z
_TEXT	SEGMENT PARA USE32 PUBLIC 'CODE'
_TEXT	ENDS
;	COMDAT ??$advance@Vconst_iterator@?$vector@EV?$allocator@E@std@@@std@@H@std@@YAXAAVconst_iterator@?$vector@EV?$allocator@E@std@@@0@H@Z
_TEXT	SEGMENT PARA USE32 PUBLIC 'CODE'
_TEXT	ENDS
;	COMDAT ??$copy@Vconst_iterator@?$vector@EV?$allocator@E@std@@@std@@PAE@std@@YAPAEVconst_iterator@?$vector@EV?$allocator@E@std@@@0@0PAE@Z
_TEXT	SEGMENT PARA USE32 PUBLIC 'CODE'
_TEXT	ENDS
;	COMDAT ??$copy_backward@PAEPAE@std@@YAPAEPAE00@Z
_TEXT	SEGMENT PARA USE32 PUBLIC 'CODE'
_TEXT	ENDS
;	COMDAT ??$_Distance2@Vconst_iterator@?$vector@EV?$allocator@E@std@@@std@@I@std@@YAXVconst_iterator@?$vector@EV?$allocator@E@std@@@0@0AAIUrandom_access_iterator_tag@0@@Z
_TEXT	SEGMENT PARA USE32 PUBLIC 'CODE'
_TEXT	ENDS
;	COMDAT ??$_Uninitialized_copy@PAEPAEV?$allocator@E@std@@@std@@YAPAEPAE00AAV?$allocator@E@0@@Z
_TEXT	SEGMENT PARA USE32 PUBLIC 'CODE'
_TEXT	ENDS
;	COMDAT ??$_Advance@Vconst_iterator@?$vector@EV?$allocator@E@std@@@std@@H@std@@YAXAAVconst_iterator@?$vector@EV?$allocator@E@std@@@0@HUrandom_access_iterator_tag@0@@Z
_TEXT	SEGMENT PARA USE32 PUBLIC 'CODE'
_TEXT	ENDS
;	COMDAT ??$_Copy_opt@Vconst_iterator@?$vector@EV?$allocator@E@std@@@std@@PAE@std@@YAPAEVconst_iterator@?$vector@EV?$allocator@E@std@@@0@0PAEU_Nonscalar_ptr_iterator_tag@0@@Z
_TEXT	SEGMENT PARA USE32 PUBLIC 'CODE'
_TEXT	ENDS
;	COMDAT ??$_Copy_backward_opt@PAEPAE@std@@YAPAEPAE00U_Scalar_ptr_iterator_tag@0@@Z
_TEXT	SEGMENT PARA USE32 PUBLIC 'CODE'
_TEXT	ENDS
;	COMDAT ??Yconst_iterator@?$vector@EV?$allocator@E@std@@@std@@QAEAAV012@H@Z
_TEXT	SEGMENT PARA USE32 PUBLIC 'CODE'
_TEXT	ENDS
;	COMDAT ??$_Uninit_copy@EE@std@@YAPAEPAE00AAV?$allocator@E@0@U_Scalar_ptr_iterator_tag@0@@Z
_TEXT	SEGMENT PARA USE32 PUBLIC 'CODE'
_TEXT	ENDS
;	COMDAT ?deallocate@?$allocator@E@std@@QAEXPAEI@Z
_TEXT	SEGMENT PARA USE32 PUBLIC 'CODE'
_TEXT	ENDS
;	COMDAT ??$_Ucopy@Vconst_iterator@?$vector@EV?$allocator@E@std@@@std@@@?$vector@EV?$allocator@E@std@@@std@@IAEPAEVconst_iterator@01@0PAE@Z
_TEXT	SEGMENT PARA USE32 PUBLIC 'CODE'
_TEXT	ENDS
;	COMDAT ?allocate@?$allocator@E@std@@QAEPAEI@Z
_TEXT	SEGMENT PARA USE32 PUBLIC 'CODE'
_TEXT	ENDS
;	COMDAT ??$_Allocate@E@std@@YAPAEIPAE@Z
_TEXT	SEGMENT PARA USE32 PUBLIC 'CODE'
_TEXT	ENDS
;	COMDAT ?_Xlen@?$vector@EV?$allocator@E@std@@@std@@IBEXXZ
_TEXT	SEGMENT PARA USE32 PUBLIC 'CODE'
_TEXT	ENDS
;	COMDAT ??0length_error@std@@QAE@ABV?$basic_string@DU?$char_traits@D@std@@V?$allocator@D@2@@1@@Z
_TEXT	SEGMENT PARA USE32 PUBLIC 'CODE'
_TEXT	ENDS
;	COMDAT ??0logic_error@std@@QAE@ABV?$basic_string@DU?$char_traits@D@std@@V?$allocator@D@2@@1@@Z
_TEXT	SEGMENT PARA USE32 PUBLIC 'CODE'
_TEXT	ENDS
;	COMDAT ??_7logic_error@std@@6B@
CONST	SEGMENT DWORD USE32 PUBLIC 'CONST'
CONST	ENDS
;	COMDAT ??_Glogic_error@std@@UAEPAXI@Z
_TEXT	SEGMENT PARA USE32 PUBLIC 'CODE'
_TEXT	ENDS
;	COMDAT ?what@logic_error@std@@UBEPBDXZ
_TEXT	SEGMENT PARA USE32 PUBLIC 'CODE'
_TEXT	ENDS
;	COMDAT ?c_str@?$basic_string@DU?$char_traits@D@std@@V?$allocator@D@2@@std@@QBEPBDXZ
_TEXT	SEGMENT PARA USE32 PUBLIC 'CODE'
_TEXT	ENDS
;	COMDAT ??0?$basic_string@DU?$char_traits@D@std@@V?$allocator@D@2@@std@@QAE@ABV01@@Z
_TEXT	SEGMENT PARA USE32 PUBLIC 'CODE'
_TEXT	ENDS
;	COMDAT ??0?$_String_val@DV?$allocator@D@std@@@std@@IAE@V?$allocator@D@1@@Z
_TEXT	SEGMENT PARA USE32 PUBLIC 'CODE'
_TEXT	ENDS
;	COMDAT ??0?$allocator@D@std@@QAE@ABV01@@Z
_TEXT	SEGMENT PARA USE32 PUBLIC 'CODE'
_TEXT	ENDS
;	COMDAT ?_Tidy@?$basic_string@DU?$char_traits@D@std@@V?$allocator@D@2@@std@@IAEX_NI@Z
_TEXT	SEGMENT PARA USE32 PUBLIC 'CODE'
_TEXT	ENDS
;	COMDAT ?copy@?$char_traits@D@std@@SAPADPADPBDI@Z
_TEXT	SEGMENT PARA USE32 PUBLIC 'CODE'
_TEXT	ENDS
;	COMDAT ?deallocate@?$allocator@D@std@@QAEXPADI@Z
_TEXT	SEGMENT PARA USE32 PUBLIC 'CODE'
_TEXT	ENDS
;	COMDAT ?_Eos@?$basic_string@DU?$char_traits@D@std@@V?$allocator@D@2@@std@@IAEXI@Z
_TEXT	SEGMENT PARA USE32 PUBLIC 'CODE'
_TEXT	ENDS
;	COMDAT ?assign@?$char_traits@D@std@@SAXAADABD@Z
_TEXT	SEGMENT PARA USE32 PUBLIC 'CODE'
_TEXT	ENDS
;	COMDAT ?_Myptr@?$basic_string@DU?$char_traits@D@std@@V?$allocator@D@2@@std@@QAEPADXZ
_TEXT	SEGMENT PARA USE32 PUBLIC 'CODE'
_TEXT	ENDS
;	COMDAT ?assign@?$basic_string@DU?$char_traits@D@std@@V?$allocator@D@2@@std@@QAEAAV12@ABV12@II@Z
_TEXT	SEGMENT PARA USE32 PUBLIC 'CODE'
_TEXT	ENDS
;	COMDAT ?erase@?$basic_string@DU?$char_traits@D@std@@V?$allocator@D@2@@std@@QAEAAV12@II@Z
_TEXT	SEGMENT PARA USE32 PUBLIC 'CODE'
_TEXT	ENDS
;	COMDAT ?move@?$char_traits@D@std@@SAPADPADPBDI@Z
_TEXT	SEGMENT PARA USE32 PUBLIC 'CODE'
_TEXT	ENDS
;	COMDAT ?_Grow@?$basic_string@DU?$char_traits@D@std@@V?$allocator@D@2@@std@@IAE_NI_N@Z
_TEXT	SEGMENT PARA USE32 PUBLIC 'CODE'
_TEXT	ENDS
;	COMDAT ?max_size@?$basic_string@DU?$char_traits@D@std@@V?$allocator@D@2@@std@@QBEIXZ
_TEXT	SEGMENT PARA USE32 PUBLIC 'CODE'
_TEXT	ENDS
;	COMDAT ?max_size@?$allocator@D@std@@QBEIXZ
_TEXT	SEGMENT PARA USE32 PUBLIC 'CODE'
_TEXT	ENDS
;	COMDAT ?_Copy@?$basic_string@DU?$char_traits@D@std@@V?$allocator@D@2@@std@@IAEXII@Z
_TEXT	SEGMENT PARA USE32 PUBLIC 'CODE'
_TEXT	ENDS
;	COMDAT ?allocate@?$allocator@D@std@@QAEPADI@Z
_TEXT	SEGMENT PARA USE32 PUBLIC 'CODE'
_TEXT	ENDS
;	COMDAT ??$_Allocate@D@std@@YAPADIPAD@Z
_TEXT	SEGMENT PARA USE32 PUBLIC 'CODE'
_TEXT	ENDS
;	COMDAT ?npos@?$basic_string@DU?$char_traits@D@std@@V?$allocator@D@2@@std@@2IB
CONST	SEGMENT DWORD USE32 PUBLIC 'CONST'
CONST	ENDS
;	COMDAT ??1logic_error@std@@UAE@XZ
_TEXT	SEGMENT PARA USE32 PUBLIC 'CODE'
_TEXT	ENDS
;	COMDAT ??_7length_error@std@@6B@
CONST	SEGMENT DWORD USE32 PUBLIC 'CONST'
CONST	ENDS
;	COMDAT ??_Glength_error@std@@UAEPAXI@Z
_TEXT	SEGMENT PARA USE32 PUBLIC 'CODE'
_TEXT	ENDS
;	COMDAT ??1length_error@std@@UAE@XZ
_TEXT	SEGMENT PARA USE32 PUBLIC 'CODE'
_TEXT	ENDS
;	COMDAT ??0?$basic_string@DU?$char_traits@D@std@@V?$allocator@D@2@@std@@QAE@PBD@Z
_TEXT	SEGMENT PARA USE32 PUBLIC 'CODE'
_TEXT	ENDS
;	COMDAT ??0?$allocator@D@std@@QAE@XZ
_TEXT	SEGMENT PARA USE32 PUBLIC 'CODE'
_TEXT	ENDS
;	COMDAT ?assign@?$basic_string@DU?$char_traits@D@std@@V?$allocator@D@2@@std@@QAEAAV12@PBD@Z
_TEXT	SEGMENT PARA USE32 PUBLIC 'CODE'
_TEXT	ENDS
;	COMDAT ?assign@?$basic_string@DU?$char_traits@D@std@@V?$allocator@D@2@@std@@QAEAAV12@PBDI@Z
_TEXT	SEGMENT PARA USE32 PUBLIC 'CODE'
_TEXT	ENDS
;	COMDAT ?_Inside@?$basic_string@DU?$char_traits@D@std@@V?$allocator@D@2@@std@@IAE_NPBD@Z
_TEXT	SEGMENT PARA USE32 PUBLIC 'CODE'
_TEXT	ENDS
;	COMDAT ?length@?$char_traits@D@std@@SAIPBD@Z
_TEXT	SEGMENT PARA USE32 PUBLIC 'CODE'
_TEXT	ENDS
;	COMDAT ??_C@_0BD@OLBABOEK@vector?$DMT?$DO?5too?5long?$AA@
CONST	SEGMENT DWORD USE32 PUBLIC 'CONST'
CONST	ENDS
;	COMDAT ??1?$basic_string@DU?$char_traits@D@std@@V?$allocator@D@2@@std@@QAE@XZ
_TEXT	SEGMENT PARA USE32 PUBLIC 'CODE'
_TEXT	ENDS
;	COMDAT __TI3?AVlength_error@std@@
xdata$x	SEGMENT DWORD USE32 PUBLIC 'CONST'
xdata$x	ENDS
;	COMDAT __CTA3?AVlength_error@std@@
xdata$x	SEGMENT DWORD USE32 PUBLIC 'CONST'
xdata$x	ENDS
;	COMDAT __CT??_R0?AVlength_error@std@@@8??0length_error@std@@QAE@ABV01@@Z40
xdata$x	SEGMENT DWORD USE32 PUBLIC 'CONST'
xdata$x	ENDS
;	COMDAT ??_R0?AVlength_error@std@@@8
_DATA	SEGMENT DWORD USE32 PUBLIC 'DATA'
_DATA	ENDS
;	COMDAT ??0length_error@std@@QAE@ABV01@@Z
_TEXT	SEGMENT PARA USE32 PUBLIC 'CODE'
_TEXT	ENDS
;	COMDAT ??0logic_error@std@@QAE@ABV01@@Z
_TEXT	SEGMENT PARA USE32 PUBLIC 'CODE'
_TEXT	ENDS
;	COMDAT __CT??_R0?AVlogic_error@std@@@8??0logic_error@std@@QAE@ABV01@@Z40
xdata$x	SEGMENT DWORD USE32 PUBLIC 'CONST'
xdata$x	ENDS
;	COMDAT ??_R0?AVlogic_error@std@@@8
_DATA	SEGMENT DWORD USE32 PUBLIC 'DATA'
_DATA	ENDS
;	COMDAT __CT??_R0?AVexception@@@8??0exception@@QAE@ABV0@@Z12
xdata$x	SEGMENT DWORD USE32 PUBLIC 'CONST'
xdata$x	ENDS
;	COMDAT ??_R0?AVexception@@@8
_DATA	SEGMENT DWORD USE32 PUBLIC 'DATA'
_DATA	ENDS
;	COMDAT ?size@?$vector@EV?$allocator@E@std@@@std@@QBEIXZ
_TEXT	SEGMENT PARA USE32 PUBLIC 'CODE'
_TEXT	ENDS
;	COMDAT ?max_size@?$vector@EV?$allocator@E@std@@@std@@QBEIXZ
_TEXT	SEGMENT PARA USE32 PUBLIC 'CODE'
_TEXT	ENDS
;	COMDAT ?max_size@?$allocator@E@std@@QBEIXZ
_TEXT	SEGMENT PARA USE32 PUBLIC 'CODE'
_TEXT	ENDS
;	COMDAT ??2@YAPAXIPAX@Z
_TEXT	SEGMENT PARA USE32 PUBLIC 'CODE'
_TEXT	ENDS
;	COMDAT ?_Ptr_cat@std@@YA?AU_Scalar_ptr_iterator_tag@1@PAE0@Z
_TEXT	SEGMENT PARA USE32 PUBLIC 'CODE'
_TEXT	ENDS
;	COMDAT ??0const_iterator@?$vector@EV?$allocator@E@std@@@std@@QAE@PAE@Z
_TEXT	SEGMENT PARA USE32 PUBLIC 'CODE'
_TEXT	ENDS
;	COMDAT ?_Destroy@?$vector@EV?$allocator@E@std@@@std@@IAEXPAE0@Z
_TEXT	SEGMENT PARA USE32 PUBLIC 'CODE'
_TEXT	ENDS
;	COMDAT ??$_Destroy_range@EV?$allocator@E@std@@@std@@YAXPAE0AAV?$allocator@E@0@@Z
_TEXT	SEGMENT PARA USE32 PUBLIC 'CODE'
_TEXT	ENDS
;	COMDAT ?_Ptr_cat@std@@YA?AU_Scalar_ptr_iterator_tag@1@PAJ0@Z
_TEXT	SEGMENT PARA USE32 PUBLIC 'CODE'
_TEXT	ENDS
;	COMDAT ??9const_iterator@?$_Tree@V?$_Tmap_traits@KEU?$less@K@std@@V?$allocator@U?$pair@$$CBKE@std@@@2@$0A@@std@@@std@@QBE_NABV012@@Z
_TEXT	SEGMENT PARA USE32 PUBLIC 'CODE'
_TEXT	ENDS
;	COMDAT ??8const_iterator@?$_Tree@V?$_Tmap_traits@KEU?$less@K@std@@V?$allocator@U?$pair@$$CBKE@std@@@2@$0A@@std@@@std@@QBE_NABV012@@Z
_TEXT	SEGMENT PARA USE32 PUBLIC 'CODE'
_TEXT	ENDS
;	COMDAT ??Eiterator@?$_Tree@V?$_Tmap_traits@KEU?$less@K@std@@V?$allocator@U?$pair@$$CBKE@std@@@2@$0A@@std@@@std@@QAEAAV012@XZ
_TEXT	SEGMENT PARA USE32 PUBLIC 'CODE'
_TEXT	ENDS
;	COMDAT ??Econst_iterator@?$_Tree@V?$_Tmap_traits@KEU?$less@K@std@@V?$allocator@U?$pair@$$CBKE@std@@@2@$0A@@std@@@std@@QAEAAV012@XZ
_TEXT	SEGMENT PARA USE32 PUBLIC 'CODE'
_TEXT	ENDS
;	COMDAT ?_Inc@const_iterator@?$_Tree@V?$_Tmap_traits@KEU?$less@K@std@@V?$allocator@U?$pair@$$CBKE@std@@@2@$0A@@std@@@std@@QAEXXZ
_TEXT	SEGMENT PARA USE32 PUBLIC 'CODE'
_TEXT	ENDS
;	COMDAT ?_Min@?$_Tree@V?$_Tmap_traits@KEU?$less@K@std@@V?$allocator@U?$pair@$$CBKE@std@@@2@$0A@@std@@@std@@KAPAU_Node@?$_Tree_nod@V?$_Tmap_traits@KEU?$less@K@std@@V?$allocator@U?$pair@$$CBKE@std@@@2@$0A@@std@@@2@PAU342@@Z
_TEXT	SEGMENT PARA USE32 PUBLIC 'CODE'
_TEXT	ENDS
;	COMDAT ?_Left@?$_Tree@V?$_Tmap_traits@KEU?$less@K@std@@V?$allocator@U?$pair@$$CBKE@std@@@2@$0A@@std@@@std@@KAAAPAU_Node@?$_Tree_nod@V?$_Tmap_traits@KEU?$less@K@std@@V?$allocator@U?$pair@$$CBKE@std@@@2@$0A@@std@@@2@PAU342@@Z
_TEXT	SEGMENT PARA USE32 PUBLIC 'CODE'
_TEXT	ENDS
;	COMDAT ?_Isnil@?$_Tree@V?$_Tmap_traits@KEU?$less@K@std@@V?$allocator@U?$pair@$$CBKE@std@@@2@$0A@@std@@@std@@KAAADPAU_Node@?$_Tree_nod@V?$_Tmap_traits@KEU?$less@K@std@@V?$allocator@U?$pair@$$CBKE@std@@@2@$0A@@std@@@2@@Z
_TEXT	SEGMENT PARA USE32 PUBLIC 'CODE'
_TEXT	ENDS
;	COMDAT ?_Parent@?$_Tree@V?$_Tmap_traits@KEU?$less@K@std@@V?$allocator@U?$pair@$$CBKE@std@@@2@$0A@@std@@@std@@KAAAPAU_Node@?$_Tree_nod@V?$_Tmap_traits@KEU?$less@K@std@@V?$allocator@U?$pair@$$CBKE@std@@@2@$0A@@std@@@2@PAU342@@Z
_TEXT	SEGMENT PARA USE32 PUBLIC 'CODE'
_TEXT	ENDS
;	COMDAT ?_Right@?$_Tree@V?$_Tmap_traits@KEU?$less@K@std@@V?$allocator@U?$pair@$$CBKE@std@@@2@$0A@@std@@@std@@KAAAPAU_Node@?$_Tree_nod@V?$_Tmap_traits@KEU?$less@K@std@@V?$allocator@U?$pair@$$CBKE@std@@@2@$0A@@std@@@2@PAU342@@Z
_TEXT	SEGMENT PARA USE32 PUBLIC 'CODE'
_TEXT	ENDS
;	COMDAT ??9const_iterator@?$_Tree@V?$_Tmap_traits@KPAVCCtrl@@U?$less@K@std@@V?$allocator@U?$pair@$$CBKPAVCCtrl@@@std@@@3@$0A@@std@@@std@@QBE_NABV012@@Z
_TEXT	SEGMENT PARA USE32 PUBLIC 'CODE'
_TEXT	ENDS
;	COMDAT ??8const_iterator@?$_Tree@V?$_Tmap_traits@KPAVCCtrl@@U?$less@K@std@@V?$allocator@U?$pair@$$CBKPAVCCtrl@@@std@@@3@$0A@@std@@@std@@QBE_NABV012@@Z
_TEXT	SEGMENT PARA USE32 PUBLIC 'CODE'
_TEXT	ENDS
;	COMDAT ??Eiterator@?$_Tree@V?$_Tmap_traits@KPAVCCtrl@@U?$less@K@std@@V?$allocator@U?$pair@$$CBKPAVCCtrl@@@std@@@3@$0A@@std@@@std@@QAEAAV012@XZ
_TEXT	SEGMENT PARA USE32 PUBLIC 'CODE'
_TEXT	ENDS
;	COMDAT ??Econst_iterator@?$_Tree@V?$_Tmap_traits@KPAVCCtrl@@U?$less@K@std@@V?$allocator@U?$pair@$$CBKPAVCCtrl@@@std@@@3@$0A@@std@@@std@@QAEAAV012@XZ
_TEXT	SEGMENT PARA USE32 PUBLIC 'CODE'
_TEXT	ENDS
;	COMDAT ?_Inc@const_iterator@?$_Tree@V?$_Tmap_traits@KPAVCCtrl@@U?$less@K@std@@V?$allocator@U?$pair@$$CBKPAVCCtrl@@@std@@@3@$0A@@std@@@std@@QAEXXZ
_TEXT	SEGMENT PARA USE32 PUBLIC 'CODE'
_TEXT	ENDS
;	COMDAT ?_Min@?$_Tree@V?$_Tmap_traits@KPAVCCtrl@@U?$less@K@std@@V?$allocator@U?$pair@$$CBKPAVCCtrl@@@std@@@3@$0A@@std@@@std@@KAPAU_Node@?$_Tree_nod@V?$_Tmap_traits@KPAVCCtrl@@U?$less@K@std@@V?$allocator@U?$pair@$$CBKPAVCCtrl@@@std@@@3@$0A@@std@@@2@PAU342@@Z
_TEXT	SEGMENT PARA USE32 PUBLIC 'CODE'
_TEXT	ENDS
;	COMDAT ?_Left@?$_Tree@V?$_Tmap_traits@KPAVCCtrl@@U?$less@K@std@@V?$allocator@U?$pair@$$CBKPAVCCtrl@@@std@@@3@$0A@@std@@@std@@KAAAPAU_Node@?$_Tree_nod@V?$_Tmap_traits@KPAVCCtrl@@U?$less@K@std@@V?$allocator@U?$pair@$$CBKPAVCCtrl@@@std@@@3@$0A@@std@@@2@PAU342@@Z
_TEXT	SEGMENT PARA USE32 PUBLIC 'CODE'
_TEXT	ENDS
;	COMDAT ?_Isnil@?$_Tree@V?$_Tmap_traits@KPAVCCtrl@@U?$less@K@std@@V?$allocator@U?$pair@$$CBKPAVCCtrl@@@std@@@3@$0A@@std@@@std@@KAAADPAU_Node@?$_Tree_nod@V?$_Tmap_traits@KPAVCCtrl@@U?$less@K@std@@V?$allocator@U?$pair@$$CBKPAVCCtrl@@@std@@@3@$0A@@std@@@2@@Z
_TEXT	SEGMENT PARA USE32 PUBLIC 'CODE'
_TEXT	ENDS
;	COMDAT ?_Parent@?$_Tree@V?$_Tmap_traits@KPAVCCtrl@@U?$less@K@std@@V?$allocator@U?$pair@$$CBKPAVCCtrl@@@std@@@3@$0A@@std@@@std@@KAAAPAU_Node@?$_Tree_nod@V?$_Tmap_traits@KPAVCCtrl@@U?$less@K@std@@V?$allocator@U?$pair@$$CBKPAVCCtrl@@@std@@@3@$0A@@std@@@2@PAU342@@Z
_TEXT	SEGMENT PARA USE32 PUBLIC 'CODE'
_TEXT	ENDS
;	COMDAT ?_Right@?$_Tree@V?$_Tmap_traits@KPAVCCtrl@@U?$less@K@std@@V?$allocator@U?$pair@$$CBKPAVCCtrl@@@std@@@3@$0A@@std@@@std@@KAAAPAU_Node@?$_Tree_nod@V?$_Tmap_traits@KPAVCCtrl@@U?$less@K@std@@V?$allocator@U?$pair@$$CBKPAVCCtrl@@@std@@@3@$0A@@std@@@2@PAU342@@Z
_TEXT	SEGMENT PARA USE32 PUBLIC 'CODE'
_TEXT	ENDS
;	COMDAT ??9const_iterator@?$_Tree@V?$_Tmap_traits@KPAVCUser@@U?$less@K@std@@V?$allocator@U?$pair@$$CBKPAVCUser@@@std@@@3@$0A@@std@@@std@@QBE_NABV012@@Z
_TEXT	SEGMENT PARA USE32 PUBLIC 'CODE'
_TEXT	ENDS
;	COMDAT ??8const_iterator@?$_Tree@V?$_Tmap_traits@KPAVCUser@@U?$less@K@std@@V?$allocator@U?$pair@$$CBKPAVCUser@@@std@@@3@$0A@@std@@@std@@QBE_NABV012@@Z
_TEXT	SEGMENT PARA USE32 PUBLIC 'CODE'
_TEXT	ENDS
;	COMDAT ??Eiterator@?$_Tree@V?$_Tmap_traits@KPAVCUser@@U?$less@K@std@@V?$allocator@U?$pair@$$CBKPAVCUser@@@std@@@3@$0A@@std@@@std@@QAEAAV012@XZ
_TEXT	SEGMENT PARA USE32 PUBLIC 'CODE'
_TEXT	ENDS
;	COMDAT ??Econst_iterator@?$_Tree@V?$_Tmap_traits@KPAVCUser@@U?$less@K@std@@V?$allocator@U?$pair@$$CBKPAVCUser@@@std@@@3@$0A@@std@@@std@@QAEAAV012@XZ
_TEXT	SEGMENT PARA USE32 PUBLIC 'CODE'
_TEXT	ENDS
;	COMDAT ?_Inc@const_iterator@?$_Tree@V?$_Tmap_traits@KPAVCUser@@U?$less@K@std@@V?$allocator@U?$pair@$$CBKPAVCUser@@@std@@@3@$0A@@std@@@std@@QAEXXZ
_TEXT	SEGMENT PARA USE32 PUBLIC 'CODE'
_TEXT	ENDS
;	COMDAT ?_Min@?$_Tree@V?$_Tmap_traits@KPAVCUser@@U?$less@K@std@@V?$allocator@U?$pair@$$CBKPAVCUser@@@std@@@3@$0A@@std@@@std@@KAPAU_Node@?$_Tree_nod@V?$_Tmap_traits@KPAVCUser@@U?$less@K@std@@V?$allocator@U?$pair@$$CBKPAVCUser@@@std@@@3@$0A@@std@@@2@PAU342@@Z
_TEXT	SEGMENT PARA USE32 PUBLIC 'CODE'
_TEXT	ENDS
;	COMDAT ?_Left@?$_Tree@V?$_Tmap_traits@KPAVCUser@@U?$less@K@std@@V?$allocator@U?$pair@$$CBKPAVCUser@@@std@@@3@$0A@@std@@@std@@KAAAPAU_Node@?$_Tree_nod@V?$_Tmap_traits@KPAVCUser@@U?$less@K@std@@V?$allocator@U?$pair@$$CBKPAVCUser@@@std@@@3@$0A@@std@@@2@PAU342@@Z
_TEXT	SEGMENT PARA USE32 PUBLIC 'CODE'
_TEXT	ENDS
;	COMDAT ?_Isnil@?$_Tree@V?$_Tmap_traits@KPAVCUser@@U?$less@K@std@@V?$allocator@U?$pair@$$CBKPAVCUser@@@std@@@3@$0A@@std@@@std@@KAAADPAU_Node@?$_Tree_nod@V?$_Tmap_traits@KPAVCUser@@U?$less@K@std@@V?$allocator@U?$pair@$$CBKPAVCUser@@@std@@@3@$0A@@std@@@2@@Z
_TEXT	SEGMENT PARA USE32 PUBLIC 'CODE'
_TEXT	ENDS
;	COMDAT ?_Parent@?$_Tree@V?$_Tmap_traits@KPAVCUser@@U?$less@K@std@@V?$allocator@U?$pair@$$CBKPAVCUser@@@std@@@3@$0A@@std@@@std@@KAAAPAU_Node@?$_Tree_nod@V?$_Tmap_traits@KPAVCUser@@U?$less@K@std@@V?$allocator@U?$pair@$$CBKPAVCUser@@@std@@@3@$0A@@std@@@2@PAU342@@Z
_TEXT	SEGMENT PARA USE32 PUBLIC 'CODE'
_TEXT	ENDS
;	COMDAT ?_Right@?$_Tree@V?$_Tmap_traits@KPAVCUser@@U?$less@K@std@@V?$allocator@U?$pair@$$CBKPAVCUser@@@std@@@3@$0A@@std@@@std@@KAAAPAU_Node@?$_Tree_nod@V?$_Tmap_traits@KPAVCUser@@U?$less@K@std@@V?$allocator@U?$pair@$$CBKPAVCUser@@@std@@@3@$0A@@std@@@2@PAU342@@Z
_TEXT	SEGMENT PARA USE32 PUBLIC 'CODE'
_TEXT	ENDS
;	COMDAT ?_Psave@?$_Facetptr@V?$ctype@G@std@@@std@@2PBVfacet@locale@2@B
_DATA	SEGMENT DWORD USE32 PUBLIC 'DATA'
_DATA	ENDS
;	COMDAT ?_Psave@?$_Facetptr@V?$ctype@D@std@@@std@@2PBVfacet@locale@2@B
_DATA	SEGMENT DWORD USE32 PUBLIC 'DATA'
_DATA	ENDS
;	COMDAT ?compare@?$char_traits@D@std@@SAHPBD0I@Z
_TEXT	SEGMENT PARA USE32 PUBLIC 'CODE'
_TEXT	ENDS
;	COMDAT ?_Myptr@?$basic_string@DU?$char_traits@D@std@@V?$allocator@D@2@@std@@QBEPBDXZ
_TEXT	SEGMENT PARA USE32 PUBLIC 'CODE'
_TEXT	ENDS
;	COMDAT ?size@?$basic_string@DU?$char_traits@D@std@@V?$allocator@D@2@@std@@QBEIXZ
_TEXT	SEGMENT PARA USE32 PUBLIC 'CODE'
_TEXT	ENDS
;	COMDAT ?GetType@CObj@@QAEKXZ
_TEXT	SEGMENT PARA USE32 PUBLIC 'CODE'
_TEXT	ENDS
;	COMDAT ?SetJumpState@CAction@@QAEXK@Z
_TEXT	SEGMENT PARA USE32 PUBLIC 'CODE'
_TEXT	ENDS
;	COMDAT ?IsPlayer@CMover@@QAEHXZ
_TEXT	SEGMENT PARA USE32 PUBLIC 'CODE'
_TEXT	ENDS
;	COMDAT ?GetState@CAction@@QAEKXZ
_TEXT	SEGMENT PARA USE32 PUBLIC 'CODE'
_TEXT	ENDS
;	COMDAT ?GetJumpState@CAction@@QAEKXZ
_TEXT	SEGMENT PARA USE32 PUBLIC 'CODE'
_TEXT	ENDS
;	COMDAT ?GetDmgState@CAction@@QAEKXZ
_TEXT	SEGMENT PARA USE32 PUBLIC 'CODE'
_TEXT	ENDS
;	COMDAT ?GetIAObjLink@CCtrl@@QAEPAVCShip@@XZ
_TEXT	SEGMENT PARA USE32 PUBLIC 'CODE'
_TEXT	ENDS
;	COMDAT ?GetLayer@CObj@@QAEHXZ
_TEXT	SEGMENT PARA USE32 PUBLIC 'CODE'
_TEXT	ENDS
;	COMDAT ?GetSpeedFactor@CMover@@QAEMXZ
_TEXT	SEGMENT PARA USE32 PUBLIC 'CODE'
_TEXT	ENDS
;	COMDAT ?GetIndex@CObj@@QAEKXZ
_TEXT	SEGMENT PARA USE32 PUBLIC 'CODE'
_TEXT	ENDS
;	COMDAT ??0D3DXVECTOR3@@QAE@XZ
_TEXT	SEGMENT PARA USE32 PUBLIC 'CODE'
_TEXT	ENDS
;	COMDAT ?GetWaterHeight@CWorld@@QAEPAUWATERHEIGHT@@ABUD3DXVECTOR3@@@Z
_TEXT	SEGMENT PARA USE32 PUBLIC 'CODE'
_TEXT	ENDS
;	COMDAT ?ClipZ@CWorld@@QAEXAAM@Z
_TEXT	SEGMENT PARA USE32 PUBLIC 'CODE'
_TEXT	ENDS
;	COMDAT ?ClipX@CWorld@@QAEXAAM@Z
_TEXT	SEGMENT PARA USE32 PUBLIC 'CODE'
_TEXT	ENDS
;	COMDAT ??_0D3DXVECTOR3@@QAEAAU0@M@Z
_TEXT	SEGMENT PARA USE32 PUBLIC 'CODE'
_TEXT	ENDS
;	COMDAT ?D3DXVec3Length@@YAMPBUD3DXVECTOR3@@@Z
_TEXT	SEGMENT PARA USE32 PUBLIC 'CODE'
_TEXT	ENDS
;	COMDAT _sqrtf
_TEXT	SEGMENT PARA USE32 PUBLIC 'CODE'
_TEXT	ENDS
;	COMDAT ??XD3DXVECTOR3@@QAEAAU0@M@Z
_TEXT	SEGMENT PARA USE32 PUBLIC 'CODE'
_TEXT	ENDS
;	COMDAT ??0D3DXVECTOR3@@QAE@MMM@Z
_TEXT	SEGMENT PARA USE32 PUBLIC 'CODE'
_TEXT	ENDS
;	COMDAT ??8D3DXVECTOR3@@QBEHABU0@@Z
_TEXT	SEGMENT PARA USE32 PUBLIC 'CODE'
_TEXT	ENDS
;	COMDAT ?IsEmptyDest@CMover@@QAEHXZ
_TEXT	SEGMENT PARA USE32 PUBLIC 'CODE'
_TEXT	ENDS
;	COMDAT ?IsEmptyDestPos@CMover@@QAEHXZ
_TEXT	SEGMENT PARA USE32 PUBLIC 'CODE'
_TEXT	ENDS
;	COMDAT ?IsEmptyDestObj@CMover@@QAEHXZ
_TEXT	SEGMENT PARA USE32 PUBLIC 'CODE'
_TEXT	ENDS
;	COMDAT ?IsNPC@CMover@@QAEHXZ
_TEXT	SEGMENT PARA USE32 PUBLIC 'CODE'
_TEXT	ENDS
sxdata	SEGMENT DWORD USE32 'SXDATA'
sxdata	ENDS
FLAT	GROUP _DATA, CONST, _BSS
	ASSUME	CS: FLAT, DS: FLAT, SS: FLAT
endif

INCLUDELIB LIBCMT
INCLUDELIB OLDNAMES

PUBLIC	_sqrtf
EXTRN	__fltused:NEAR
; Function compile flags: /Ogty
; File c:\program files\microsoft visual studio .net 2003\vc7\include\math.h
;	COMDAT _sqrtf
_TEXT	SEGMENT
__X$ = 8						; size = 4
_sqrtf	PROC NEAR					; COMDAT

; 470  :         {return ((float)sqrt((double)_X)); }

  00000	d9 44 24 04	 fld	 DWORD PTR __X$[esp-4]
  00004	d9 fa		 fsqrt
  00006	c3		 ret	 0
_sqrtf	ENDP
_TEXT	ENDS
PUBLIC	??0D3DXVECTOR3@@QAE@XZ				; D3DXVECTOR3::D3DXVECTOR3
; Function compile flags: /Ogty
; File c:\documents and settings\test\mes documents\source\virtuos_v17\build\program\dx_sdk\d3dx9math.h
;	COMDAT ??0D3DXVECTOR3@@QAE@XZ
_TEXT	SEGMENT
??0D3DXVECTOR3@@QAE@XZ PROC NEAR			; D3DXVECTOR3::D3DXVECTOR3, COMDAT
; _this$ = ecx

; 165  :     D3DXVECTOR3() {};

  00000	8b c1		 mov	 eax, ecx
  00002	c3		 ret	 0
??0D3DXVECTOR3@@QAE@XZ ENDP				; D3DXVECTOR3::D3DXVECTOR3
_TEXT	ENDS
PUBLIC	??0D3DXVECTOR3@@QAE@MMM@Z			; D3DXVECTOR3::D3DXVECTOR3
; Function compile flags: /Ogty
; File c:\documents and settings\test\mes documents\source\virtuos_v17\build\program\dx_sdk\d3dx9math.inl
;	COMDAT ??0D3DXVECTOR3@@QAE@MMM@Z
_TEXT	SEGMENT
_fx$ = 8						; size = 4
_fy$ = 12						; size = 4
_fz$ = 16						; size = 4
??0D3DXVECTOR3@@QAE@MMM@Z PROC NEAR			; D3DXVECTOR3::D3DXVECTOR3, COMDAT
; _this$ = ecx

; 300  :     x = fx;
; 301  :     y = fy;

  00000	8b 54 24 08	 mov	 edx, DWORD PTR _fy$[esp-4]
  00004	8b c1		 mov	 eax, ecx
  00006	8b 4c 24 04	 mov	 ecx, DWORD PTR _fx$[esp-4]
  0000a	89 08		 mov	 DWORD PTR [eax], ecx

; 302  :     z = fz;

  0000c	8b 4c 24 0c	 mov	 ecx, DWORD PTR _fz$[esp-4]
  00010	89 50 04	 mov	 DWORD PTR [eax+4], edx
  00013	89 48 08	 mov	 DWORD PTR [eax+8], ecx

; 303  : }

  00016	c2 0c 00	 ret	 12			; 0000000cH
??0D3DXVECTOR3@@QAE@MMM@Z ENDP				; D3DXVECTOR3::D3DXVECTOR3
_TEXT	ENDS
PUBLIC	??XD3DXVECTOR3@@QAEAAU0@M@Z			; D3DXVECTOR3::operator*=
; Function compile flags: /Ogty
;	COMDAT ??XD3DXVECTOR3@@QAEAAU0@M@Z
_TEXT	SEGMENT
_f$ = 8							; size = 4
??XD3DXVECTOR3@@QAEAAU0@M@Z PROC NEAR			; D3DXVECTOR3::operator*=, COMDAT
; _this$ = ecx

; 342  :     x *= f;

  00000	d9 44 24 04	 fld	 DWORD PTR _f$[esp-4]
  00004	8b c1		 mov	 eax, ecx
  00006	d8 08		 fmul	 DWORD PTR [eax]
  00008	d9 18		 fstp	 DWORD PTR [eax]

; 343  :     y *= f;

  0000a	d9 44 24 04	 fld	 DWORD PTR _f$[esp-4]
  0000e	d8 48 04	 fmul	 DWORD PTR [eax+4]
  00011	d9 58 04	 fstp	 DWORD PTR [eax+4]

; 344  :     z *= f;

  00014	d9 44 24 04	 fld	 DWORD PTR _f$[esp-4]
  00018	d8 48 08	 fmul	 DWORD PTR [eax+8]
  0001b	d9 58 08	 fstp	 DWORD PTR [eax+8]

; 345  :     return *this;
; 346  : }

  0001e	c2 04 00	 ret	 4
??XD3DXVECTOR3@@QAEAAU0@M@Z ENDP			; D3DXVECTOR3::operator*=
_TEXT	ENDS
PUBLIC	__real@3f800000
PUBLIC	??_0D3DXVECTOR3@@QAEAAU0@M@Z			; D3DXVECTOR3::operator/=
;	COMDAT __real@3f800000
CONST	SEGMENT
__real@3f800000 DD 03f800000r			; 1
; Function compile flags: /Ogty
CONST	ENDS
;	COMDAT ??_0D3DXVECTOR3@@QAEAAU0@M@Z
_TEXT	SEGMENT
_f$ = 8							; size = 4
??_0D3DXVECTOR3@@QAEAAU0@M@Z PROC NEAR			; D3DXVECTOR3::operator/=, COMDAT
; _this$ = ecx

; 351  :     FLOAT fInv = 1.0f / f;

  00000	d9 05 00 00 00
	00		 fld	 DWORD PTR __real@3f800000
  00006	8b c1		 mov	 eax, ecx
  00008	d8 74 24 04	 fdiv	 DWORD PTR _f$[esp-4]

; 352  :     x *= fInv;

  0000c	d9 c0		 fld	 ST(0)
  0000e	d8 08		 fmul	 DWORD PTR [eax]
  00010	d9 18		 fstp	 DWORD PTR [eax]

; 353  :     y *= fInv;

  00012	d9 c0		 fld	 ST(0)
  00014	d8 48 04	 fmul	 DWORD PTR [eax+4]
  00017	d9 58 04	 fstp	 DWORD PTR [eax+4]

; 354  :     z *= fInv;

  0001a	d8 48 08	 fmul	 DWORD PTR [eax+8]
  0001d	d9 58 08	 fstp	 DWORD PTR [eax+8]

; 355  :     return *this;
; 356  : }

  00020	c2 04 00	 ret	 4
??_0D3DXVECTOR3@@QAEAAU0@M@Z ENDP			; D3DXVECTOR3::operator/=
_TEXT	ENDS
PUBLIC	??8D3DXVECTOR3@@QBEHABU0@@Z			; D3DXVECTOR3::operator==
; Function compile flags: /Ogty
;	COMDAT ??8D3DXVECTOR3@@QBEHABU0@@Z
_TEXT	SEGMENT
_v$ = 8							; size = 4
??8D3DXVECTOR3@@QBEHABU0@@Z PROC NEAR			; D3DXVECTOR3::operator==, COMDAT
; _this$ = ecx

; 410  :     return x == v.x && y == v.y && z == v.z;

  00000	8b 54 24 04	 mov	 edx, DWORD PTR _v$[esp-4]
  00004	d9 02		 fld	 DWORD PTR [edx]
  00006	d9 01		 fld	 DWORD PTR [ecx]
  00008	da e9		 fucompp
  0000a	df e0		 fnstsw	 ax
  0000c	f6 c4 44	 test	 ah, 68			; 00000044H
  0000f	7a 26		 jp	 SHORT $L229638
  00011	d9 42 04	 fld	 DWORD PTR [edx+4]
  00014	d9 41 04	 fld	 DWORD PTR [ecx+4]
  00017	da e9		 fucompp
  00019	df e0		 fnstsw	 ax
  0001b	f6 c4 44	 test	 ah, 68			; 00000044H
  0001e	7a 17		 jp	 SHORT $L229638
  00020	d9 42 08	 fld	 DWORD PTR [edx+8]
  00023	d9 41 08	 fld	 DWORD PTR [ecx+8]
  00026	da e9		 fucompp
  00028	df e0		 fnstsw	 ax
  0002a	f6 c4 44	 test	 ah, 68			; 00000044H
  0002d	7a 08		 jp	 SHORT $L229638
  0002f	b8 01 00 00 00	 mov	 eax, 1

; 411  : }

  00034	c2 04 00	 ret	 4
$L229638:

; 410  :     return x == v.x && y == v.y && z == v.z;

  00037	33 c0		 xor	 eax, eax

; 411  : }

  00039	c2 04 00	 ret	 4
??8D3DXVECTOR3@@QBEHABU0@@Z ENDP			; D3DXVECTOR3::operator==
_TEXT	ENDS
PUBLIC	?D3DXVec3Length@@YAMPBUD3DXVECTOR3@@@Z		; D3DXVec3Length
; Function compile flags: /Ogty
;	COMDAT ?D3DXVec3Length@@YAMPBUD3DXVECTOR3@@@Z
_TEXT	SEGMENT
_pV$ = 8						; size = 4
?D3DXVec3Length@@YAMPBUD3DXVECTOR3@@@Z PROC NEAR	; D3DXVec3Length, COMDAT

; 1678 : #ifdef D3DX_DEBUG
; 1679 :     if(!pV)
; 1680 :         return 0.0f;
; 1681 : #endif
; 1682 : 
; 1683 : #ifdef __cplusplus
; 1684 :     return sqrtf(pV->x * pV->x + pV->y * pV->y + pV->z * pV->z);

  00000	8b 44 24 04	 mov	 eax, DWORD PTR _pV$[esp-4]
  00004	d9 40 08	 fld	 DWORD PTR [eax+8]
  00007	d9 40 04	 fld	 DWORD PTR [eax+4]
  0000a	d9 00		 fld	 DWORD PTR [eax]
  0000c	d9 c0		 fld	 ST(0)
  0000e	d8 c9		 fmul	 ST(0), ST(1)
  00010	d9 c2		 fld	 ST(2)
  00012	d8 cb		 fmul	 ST(0), ST(3)
  00014	de c1		 faddp	 ST(1), ST(0)
  00016	d9 c3		 fld	 ST(3)
  00018	d8 cc		 fmul	 ST(0), ST(4)
  0001a	de c1		 faddp	 ST(1), ST(0)
  0001c	d9 fa		 fsqrt
  0001e	dd db		 fstp	 ST(3)
  00020	dd d8		 fstp	 ST(0)
  00022	dd d8		 fstp	 ST(0)

; 1685 : #else
; 1686 :     return (FLOAT) sqrt(pV->x * pV->x + pV->y * pV->y + pV->z * pV->z);
; 1687 : #endif
; 1688 : }

  00024	c3		 ret	 0
?D3DXVec3Length@@YAMPBUD3DXVECTOR3@@@Z ENDP		; D3DXVec3Length
_TEXT	ENDS
PUBLIC	?GetType@CObj@@QAEKXZ				; CObj::GetType
; Function compile flags: /Ogty
; File c:\documents and settings\test\mes documents\source\virtuos_v17\build\program\_common\obj.h
;	COMDAT ?GetType@CObj@@QAEKXZ
_TEXT	SEGMENT
?GetType@CObj@@QAEKXZ PROC NEAR				; CObj::GetType, COMDAT
; _this$ = ecx

; 206  : 	DWORD			GetType() { return m_dwType; }

  00000	8b 81 70 01 00
	00		 mov	 eax, DWORD PTR [ecx+368]
  00006	c3		 ret	 0
?GetType@CObj@@QAEKXZ ENDP				; CObj::GetType
_TEXT	ENDS
PUBLIC	?GetIndex@CObj@@QAEKXZ				; CObj::GetIndex
; Function compile flags: /Ogty
;	COMDAT ?GetIndex@CObj@@QAEKXZ
_TEXT	SEGMENT
?GetIndex@CObj@@QAEKXZ PROC NEAR			; CObj::GetIndex, COMDAT
; _this$ = ecx

; 207  : 	DWORD			GetIndex() { return m_dwIndex; }

  00000	8b 81 74 01 00
	00		 mov	 eax, DWORD PTR [ecx+372]
  00006	c3		 ret	 0
?GetIndex@CObj@@QAEKXZ ENDP				; CObj::GetIndex
_TEXT	ENDS
PUBLIC	?GetLayer@CObj@@QAEHXZ				; CObj::GetLayer
; Function compile flags: /Ogty
;	COMDAT ?GetLayer@CObj@@QAEHXZ
_TEXT	SEGMENT
?GetLayer@CObj@@QAEHXZ PROC NEAR			; CObj::GetLayer, COMDAT
; _this$ = ecx

; 247  : 	int		GetLayer()	{	return m_nLayer;	}

  00000	8b 81 b8 01 00
	00		 mov	 eax, DWORD PTR [ecx+440]
  00006	c3		 ret	 0
?GetLayer@CObj@@QAEHXZ ENDP				; CObj::GetLayer
_TEXT	ENDS
PUBLIC	?GetIAObjLink@CCtrl@@QAEPAVCShip@@XZ		; CCtrl::GetIAObjLink
; Function compile flags: /Ogty
; File c:\documents and settings\test\mes documents\source\virtuos_v17\build\program\_common\ctrl.h
;	COMDAT ?GetIAObjLink@CCtrl@@QAEPAVCShip@@XZ
_TEXT	SEGMENT
?GetIAObjLink@CCtrl@@QAEPAVCShip@@XZ PROC NEAR		; CCtrl::GetIAObjLink, COMDAT
; _this$ = ecx

; 83   : 	CShip*			GetIAObjLink()			{ return m_pIAObjLink; }

  00000	8b 81 c0 01 00
	00		 mov	 eax, DWORD PTR [ecx+448]
  00006	c3		 ret	 0
?GetIAObjLink@CCtrl@@QAEPAVCShip@@XZ ENDP		; CCtrl::GetIAObjLink
_TEXT	ENDS
PUBLIC	?GetState@CAction@@QAEKXZ			; CAction::GetState
; Function compile flags: /Ogty
; File c:\documents and settings\test\mes documents\source\virtuos_v17\build\program\_aiinterface\action.h
;	COMDAT ?GetState@CAction@@QAEKXZ
_TEXT	SEGMENT
?GetState@CAction@@QAEKXZ PROC NEAR			; CAction::GetState, COMDAT
; _this$ = ecx

; 291  : 	DWORD			GetState() { return m_dwState; }

  00000	8b 41 04	 mov	 eax, DWORD PTR [ecx+4]
  00003	c3		 ret	 0
?GetState@CAction@@QAEKXZ ENDP				; CAction::GetState
_TEXT	ENDS
PUBLIC	?SetJumpState@CAction@@QAEXK@Z			; CAction::SetJumpState
EXTRN	?ResetState@CAction@@QAEXK@Z:NEAR		; CAction::ResetState
; Function compile flags: /Ogty
;	COMDAT ?SetJumpState@CAction@@QAEXK@Z
_TEXT	SEGMENT
_dwState$ = 8						; size = 4
?SetJumpState@CAction@@QAEXK@Z PROC NEAR		; CAction::SetJumpState, COMDAT
; _this$ = ecx

; 296  : 	void			SetJumpState( DWORD dwState ) { ResetState(OBJSTA_JUMP_ALL);	m_dwState |= dwState; }

  00000	56		 push	 esi
  00001	68 00 f0 00 00	 push	 61440			; 0000f000H
  00006	8b f1		 mov	 esi, ecx
  00008	e8 00 00 00 00	 call	 ?ResetState@CAction@@QAEXK@Z ; CAction::ResetState
  0000d	8b 4e 04	 mov	 ecx, DWORD PTR [esi+4]
  00010	8b 44 24 08	 mov	 eax, DWORD PTR _dwState$[esp]
  00014	0b c8		 or	 ecx, eax
  00016	89 4e 04	 mov	 DWORD PTR [esi+4], ecx
  00019	5e		 pop	 esi
  0001a	c2 04 00	 ret	 4
?SetJumpState@CAction@@QAEXK@Z ENDP			; CAction::SetJumpState
_TEXT	ENDS
PUBLIC	?GetJumpState@CAction@@QAEKXZ			; CAction::GetJumpState
; Function compile flags: /Ogty
;	COMDAT ?GetJumpState@CAction@@QAEKXZ
_TEXT	SEGMENT
?GetJumpState@CAction@@QAEKXZ PROC NEAR			; CAction::GetJumpState, COMDAT
; _this$ = ecx

; 303  : 	DWORD			GetJumpState() { return m_dwState & OBJSTA_JUMP_ALL; }

  00000	8b 41 04	 mov	 eax, DWORD PTR [ecx+4]
  00003	25 00 f0 00 00	 and	 eax, 61440		; 0000f000H
  00008	c3		 ret	 0
?GetJumpState@CAction@@QAEKXZ ENDP			; CAction::GetJumpState
_TEXT	ENDS
PUBLIC	?GetDmgState@CAction@@QAEKXZ			; CAction::GetDmgState
; Function compile flags: /Ogty
;	COMDAT ?GetDmgState@CAction@@QAEKXZ
_TEXT	SEGMENT
?GetDmgState@CAction@@QAEKXZ PROC NEAR			; CAction::GetDmgState, COMDAT
; _this$ = ecx

; 304  : 	DWORD			GetDmgState() { return m_dwState & OBJSTA_DMG_ALL; }

  00000	8b 41 04	 mov	 eax, DWORD PTR [ecx+4]
  00003	25 00 00 00 0f	 and	 eax, 251658240		; 0f000000H
  00008	c3		 ret	 0
?GetDmgState@CAction@@QAEKXZ ENDP			; CAction::GetDmgState
_TEXT	ENDS
PUBLIC	?GetSpeedFactor@CMover@@QAEMXZ			; CMover::GetSpeedFactor
; Function compile flags: /Ogty
; File c:\documents and settings\test\mes documents\source\virtuos_v17\build\program\_common\mover.h
;	COMDAT ?GetSpeedFactor@CMover@@QAEMXZ
_TEXT	SEGMENT
?GetSpeedFactor@CMover@@QAEMXZ PROC NEAR		; CMover::GetSpeedFactor, COMDAT
; _this$ = ecx

; 628  : 	FLOAT	GetSpeedFactor( void )	{	return m_fSpeedFactor;	}

  00000	d9 81 10 07 00
	00		 fld	 DWORD PTR [ecx+1808]
  00006	c3		 ret	 0
?GetSpeedFactor@CMover@@QAEMXZ ENDP			; CMover::GetSpeedFactor
_TEXT	ENDS
PUBLIC	?IsNPC@CMover@@QAEHXZ				; CMover::IsNPC
; Function compile flags: /Ogty
;	COMDAT ?IsNPC@CMover@@QAEHXZ
_TEXT	SEGMENT
?IsNPC@CMover@@QAEHXZ PROC NEAR				; CMover::IsNPC, COMDAT
; _this$ = ecx

; 1041 : 	BOOL			IsNPC()				{ return !m_bPlayer; }

  00000	8b 91 34 02 00
	00		 mov	 edx, DWORD PTR [ecx+564]
  00006	33 c0		 xor	 eax, eax
  00008	85 d2		 test	 edx, edx
  0000a	0f 94 c0	 sete	 al
  0000d	c3		 ret	 0
?IsNPC@CMover@@QAEHXZ ENDP				; CMover::IsNPC
_TEXT	ENDS
PUBLIC	?IsPlayer@CMover@@QAEHXZ			; CMover::IsPlayer
; Function compile flags: /Ogty
;	COMDAT ?IsPlayer@CMover@@QAEHXZ
_TEXT	SEGMENT
?IsPlayer@CMover@@QAEHXZ PROC NEAR			; CMover::IsPlayer, COMDAT
; _this$ = ecx

; 1042 : 	BOOL			IsPlayer()			{ return m_bPlayer; }

  00000	8b 81 34 02 00
	00		 mov	 eax, DWORD PTR [ecx+564]
  00006	c3		 ret	 0
?IsPlayer@CMover@@QAEHXZ ENDP				; CMover::IsPlayer
_TEXT	ENDS
PUBLIC	?IsEmptyDestObj@CMover@@QAEHXZ			; CMover::IsEmptyDestObj
; Function compile flags: /Ogty
;	COMDAT ?IsEmptyDestObj@CMover@@QAEHXZ
_TEXT	SEGMENT
?IsEmptyDestObj@CMover@@QAEHXZ PROC NEAR		; CMover::IsEmptyDestObj, COMDAT
; _this$ = ecx

; 1061 : 	BOOL			IsEmptyDestObj()	{ return m_idDest == NULL_ID; }

  00000	8b 91 5c 02 00
	00		 mov	 edx, DWORD PTR [ecx+604]
  00006	33 c0		 xor	 eax, eax
  00008	83 fa ff	 cmp	 edx, -1
  0000b	0f 94 c0	 sete	 al
  0000e	c3		 ret	 0
?IsEmptyDestObj@CMover@@QAEHXZ ENDP			; CMover::IsEmptyDestObj
_TEXT	ENDS
PUBLIC	?IsEmptyDestPos@CMover@@QAEHXZ			; CMover::IsEmptyDestPos
PUBLIC	__real@00000000
;	COMDAT __real@00000000
CONST	SEGMENT
__real@00000000 DD 000000000r			; 0
; Function compile flags: /Ogty
CONST	ENDS
;	COMDAT ?IsEmptyDestPos@CMover@@QAEHXZ
_TEXT	SEGMENT
?IsEmptyDestPos@CMover@@QAEHXZ PROC NEAR		; CMover::IsEmptyDestPos, COMDAT
; _this$ = ecx

; 1062 : 	BOOL			IsEmptyDestPos()	{ return m_vDestPos.x == 0.0f && m_vDestPos.z == 0.0f; }

  00000	d9 05 00 00 00
	00		 fld	 DWORD PTR __real@00000000
  00006	d9 81 60 02 00
	00		 fld	 DWORD PTR [ecx+608]
  0000c	da e9		 fucompp
  0000e	df e0		 fnstsw	 ax
  00010	f6 c4 44	 test	 ah, 68			; 00000044H
  00013	7a 1b		 jp	 SHORT $L229686
  00015	d9 05 00 00 00
	00		 fld	 DWORD PTR __real@00000000
  0001b	d9 81 68 02 00
	00		 fld	 DWORD PTR [ecx+616]
  00021	da e9		 fucompp
  00023	df e0		 fnstsw	 ax
  00025	f6 c4 44	 test	 ah, 68			; 00000044H
  00028	7a 06		 jp	 SHORT $L229686
  0002a	b8 01 00 00 00	 mov	 eax, 1
  0002f	c3		 ret	 0
$L229686:
  00030	33 c0		 xor	 eax, eax
  00032	c3		 ret	 0
?IsEmptyDestPos@CMover@@QAEHXZ ENDP			; CMover::IsEmptyDestPos
_TEXT	ENDS
PUBLIC	?IsEmptyDest@CMover@@QAEHXZ			; CMover::IsEmptyDest
; Function compile flags: /Ogty
;	COMDAT ?IsEmptyDest@CMover@@QAEHXZ
_TEXT	SEGMENT
?IsEmptyDest@CMover@@QAEHXZ PROC NEAR			; CMover::IsEmptyDest, COMDAT
; _this$ = ecx

; 1063 : 	BOOL			IsEmptyDest()		{ return IsEmptyDestPos() && IsEmptyDestObj(); }

  00000	d9 05 00 00 00
	00		 fld	 DWORD PTR __real@00000000
  00006	d9 81 60 02 00
	00		 fld	 DWORD PTR [ecx+608]
  0000c	da e9		 fucompp
  0000e	df e0		 fnstsw	 ax
  00010	f6 c4 44	 test	 ah, 68			; 00000044H
  00013	7a 24		 jp	 SHORT $L229693
  00015	d9 05 00 00 00
	00		 fld	 DWORD PTR __real@00000000
  0001b	d9 81 68 02 00
	00		 fld	 DWORD PTR [ecx+616]
  00021	da e9		 fucompp
  00023	df e0		 fnstsw	 ax
  00025	f6 c4 44	 test	 ah, 68			; 00000044H
  00028	7a 0f		 jp	 SHORT $L229693
  0002a	83 b9 5c 02 00
	00 ff		 cmp	 DWORD PTR [ecx+604], -1
  00031	75 06		 jne	 SHORT $L229693
  00033	b8 01 00 00 00	 mov	 eax, 1
  00038	c3		 ret	 0
$L229693:
  00039	33 c0		 xor	 eax, eax
  0003b	c3		 ret	 0
?IsEmptyDest@CMover@@QAEHXZ ENDP			; CMover::IsEmptyDest
_TEXT	ENDS
PUBLIC	?GetWaterHeight@CWorld@@QAEPAUWATERHEIGHT@@ABUD3DXVECTOR3@@@Z ; CWorld::GetWaterHeight
EXTRN	?GetWaterHeight@CWorld@@QAEPAUWATERHEIGHT@@HH@Z:NEAR ; CWorld::GetWaterHeight
EXTRN	__ftol2:NEAR
; Function compile flags: /Ogty
; File c:\documents and settings\test\mes documents\source\virtuos_v17\build\program\_common\world.h
;	COMDAT ?GetWaterHeight@CWorld@@QAEPAUWATERHEIGHT@@ABUD3DXVECTOR3@@@Z
_TEXT	SEGMENT
_vPos$ = 8						; size = 4
?GetWaterHeight@CWorld@@QAEPAUWATERHEIGHT@@ABUD3DXVECTOR3@@@Z PROC NEAR ; CWorld::GetWaterHeight, COMDAT
; _this$ = ecx

; 468  : 	LPWATERHEIGHT	GetWaterHeight( const D3DXVECTOR3& vPos )	{ return GetWaterHeight( (int)vPos.x, (int)vPos.z ); }

  00000	56		 push	 esi
  00001	57		 push	 edi
  00002	8b 7c 24 0c	 mov	 edi, DWORD PTR _vPos$[esp+4]
  00006	d9 47 08	 fld	 DWORD PTR [edi+8]
  00009	8b f1		 mov	 esi, ecx
  0000b	e8 00 00 00 00	 call	 __ftol2
  00010	d9 07		 fld	 DWORD PTR [edi]
  00012	50		 push	 eax
  00013	e8 00 00 00 00	 call	 __ftol2
  00018	50		 push	 eax
  00019	8b ce		 mov	 ecx, esi
  0001b	e8 00 00 00 00	 call	 ?GetWaterHeight@CWorld@@QAEPAUWATERHEIGHT@@HH@Z ; CWorld::GetWaterHeight
  00020	5f		 pop	 edi
  00021	5e		 pop	 esi
  00022	c2 04 00	 ret	 4
?GetWaterHeight@CWorld@@QAEPAUWATERHEIGHT@@ABUD3DXVECTOR3@@@Z ENDP ; CWorld::GetWaterHeight
_TEXT	ENDS
PUBLIC	?ClipX@CWorld@@QAEXAAM@Z			; CWorld::ClipX
PUBLIC	__real@41200000
;	COMDAT __real@41200000
CONST	SEGMENT
__real@41200000 DD 041200000r			; 10
; Function compile flags: /Ogty
CONST	ENDS
;	COMDAT ?ClipX@CWorld@@QAEXAAM@Z
_TEXT	SEGMENT
tv142 = 8						; size = 4
_x$ = 8							; size = 4
?ClipX@CWorld@@QAEXAAM@Z PROC NEAR			; CWorld::ClipX, COMDAT
; _this$ = ecx

; 765  : 	if( x < WLD_EXTRA_WIDTH ) 

  00000	8b 54 24 04	 mov	 edx, DWORD PTR _x$[esp-4]
  00004	d9 02		 fld	 DWORD PTR [edx]
  00006	d8 1d 00 00 00
	00		 fcomp	 DWORD PTR __real@41200000
  0000c	df e0		 fnstsw	 ax
  0000e	f6 c4 05	 test	 ah, 5
  00011	7a 09		 jp	 SHORT $L216373

; 766  : 		x = WLD_EXTRA_WIDTH;

  00013	c7 02 00 00 20
	41		 mov	 DWORD PTR [edx], 1092616192 ; 41200000H

; 772  : 	}
; 773  : }

  00019	c2 04 00	 ret	 4
$L216373:

; 767  : 	else
; 768  : 	{
; 769  : 		float fMax = WORLD_WIDTH * m_iMPU - WLD_EXTRA_WIDTH;

  0001c	8b 41 14	 mov	 eax, DWORD PTR [ecx+20]
  0001f	0f af 41 0c	 imul	 eax, DWORD PTR [ecx+12]
  00023	89 44 24 04	 mov	 DWORD PTR tv142[esp-4], eax
  00027	db 44 24 04	 fild	 DWORD PTR tv142[esp-4]
  0002b	d8 25 00 00 00
	00		 fsub	 DWORD PTR __real@41200000

; 770  : 		if( x > fMax )	

  00031	d8 12		 fcom	 DWORD PTR [edx]
  00033	df e0		 fnstsw	 ax
  00035	f6 c4 05	 test	 ah, 5
  00038	7a 05		 jp	 SHORT $L229715

; 771  : 			x = fMax;

  0003a	d9 1a		 fstp	 DWORD PTR [edx]

; 772  : 	}
; 773  : }

  0003c	c2 04 00	 ret	 4
$L229715:

; 771  : 			x = fMax;

  0003f	dd d8		 fstp	 ST(0)

; 772  : 	}
; 773  : }

  00041	c2 04 00	 ret	 4
?ClipX@CWorld@@QAEXAAM@Z ENDP				; CWorld::ClipX
_TEXT	ENDS
PUBLIC	?ClipZ@CWorld@@QAEXAAM@Z			; CWorld::ClipZ
; Function compile flags: /Ogty
;	COMDAT ?ClipZ@CWorld@@QAEXAAM@Z
_TEXT	SEGMENT
tv142 = 8						; size = 4
_z$ = 8							; size = 4
?ClipZ@CWorld@@QAEXAAM@Z PROC NEAR			; CWorld::ClipZ, COMDAT
; _this$ = ecx

; 777  : 	if( z < WLD_EXTRA_WIDTH ) 

  00000	8b 54 24 04	 mov	 edx, DWORD PTR _z$[esp-4]
  00004	d9 02		 fld	 DWORD PTR [edx]
  00006	d8 1d 00 00 00
	00		 fcomp	 DWORD PTR __real@41200000
  0000c	df e0		 fnstsw	 ax
  0000e	f6 c4 05	 test	 ah, 5
  00011	7a 09		 jp	 SHORT $L216381

; 778  : 		z = WLD_EXTRA_WIDTH;

  00013	c7 02 00 00 20
	41		 mov	 DWORD PTR [edx], 1092616192 ; 41200000H

; 784  : 	}
; 785  : }

  00019	c2 04 00	 ret	 4
$L216381:

; 779  : 	else
; 780  : 	{
; 781  : 		float fMax = WORLD_HEIGHT * m_iMPU - WLD_EXTRA_WIDTH;

  0001c	8b 41 14	 mov	 eax, DWORD PTR [ecx+20]
  0001f	0f af 41 10	 imul	 eax, DWORD PTR [ecx+16]
  00023	89 44 24 04	 mov	 DWORD PTR tv142[esp-4], eax
  00027	db 44 24 04	 fild	 DWORD PTR tv142[esp-4]
  0002b	d8 25 00 00 00
	00		 fsub	 DWORD PTR __real@41200000

; 782  : 		if( z > fMax )	

  00031	d8 12		 fcom	 DWORD PTR [edx]
  00033	df e0		 fnstsw	 ax
  00035	f6 c4 05	 test	 ah, 5
  00038	7a 05		 jp	 SHORT $L229719

; 783  : 			z = fMax;

  0003a	d9 1a		 fstp	 DWORD PTR [edx]

; 784  : 	}
; 785  : }

  0003c	c2 04 00	 ret	 4
$L229719:

; 783  : 			z = fMax;

  0003f	dd d8		 fstp	 ST(0)

; 784  : 	}
; 785  : }

  00041	c2 04 00	 ret	 4
?ClipZ@CWorld@@QAEXAAM@Z ENDP				; CWorld::ClipZ
_TEXT	ENDS
PUBLIC	?CanCollisionFly@@YAHPAVCMover@@@Z		; CanCollisionFly
; Function compile flags: /Ogty
; File c:\documents and settings\test\mes documents\source\virtuos_v17\build\program\_aiinterface\actionmovercollision.cpp
;	COMDAT ?CanCollisionFly@@YAHPAVCMover@@@Z
_TEXT	SEGMENT
_pMover$ = 8						; size = 4
?CanCollisionFly@@YAHPAVCMover@@@Z PROC NEAR		; CanCollisionFly, COMDAT

; 8    : #ifdef __CLIENT
; 9    : 	if( CObj::m_bCollision && (pMover->IsActiveMover() || pMover->IsEmptyDest()) )
; 10   : 		return TRUE;
; 11   : #else
; 12   : 	if( pMover->IsNPC() || pMover->IsEmptyDest() )

  00000	8b 4c 24 04	 mov	 ecx, DWORD PTR _pMover$[esp-4]
  00004	8b 81 34 02 00
	00		 mov	 eax, DWORD PTR [ecx+564]
  0000a	85 c0		 test	 eax, eax
  0000c	74 36		 je	 SHORT $L228302
  0000e	d9 05 00 00 00
	00		 fld	 DWORD PTR __real@00000000
  00014	d9 81 60 02 00
	00		 fld	 DWORD PTR [ecx+608]
  0001a	da e9		 fucompp
  0001c	df e0		 fnstsw	 ax
  0001e	f6 c4 44	 test	 ah, 68			; 00000044H
  00021	7a 1e		 jp	 SHORT $L229740
  00023	d9 05 00 00 00
	00		 fld	 DWORD PTR __real@00000000
  00029	d9 81 68 02 00
	00		 fld	 DWORD PTR [ecx+616]
  0002f	da e9		 fucompp
  00031	df e0		 fnstsw	 ax
  00033	f6 c4 44	 test	 ah, 68			; 00000044H
  00036	7a 09		 jp	 SHORT $L229740
  00038	83 b9 5c 02 00
	00 ff		 cmp	 DWORD PTR [ecx+604], -1
  0003f	74 03		 je	 SHORT $L228302
$L229740:

; 14   : #endif
; 15   : 	return FALSE;

  00041	33 c0		 xor	 eax, eax

; 16   : }

  00043	c3		 ret	 0
$L228302:

; 13   : 		return TRUE;

  00044	b8 01 00 00 00	 mov	 eax, 1

; 16   : }

  00049	c3		 ret	 0
?CanCollisionFly@@YAHPAVCMover@@@Z ENDP			; CanCollisionFly
_TEXT	ENDS
PUBLIC	?ProcessCollisionFly@CActionMover@@QAEHPAUD3DXVECTOR3@@@Z ; CActionMover::ProcessCollisionFly
PUBLIC	__real@3f000000
PUBLIC	__real@3e800000
PUBLIC	__real@3a83126f
PUBLIC	__real@3f266666
PUBLIC	__real@3f333333
EXTRN	?GetFullHeight@CWorld@@QAEMABUD3DXVECTOR3@@@Z:NEAR ; CWorld::GetFullHeight
EXTRN	?GetHeightAttribute@CWorld@@QAEHMM@Z:NEAR	; CWorld::GetHeightAttribute
EXTRN	?ProcessCollisionReflection@CWorld@@QAEHPAUD3DXVECTOR3@@ABU2@1H@Z:NEAR ; CWorld::ProcessCollisionReflection
EXTRN	?SetIAObjLink@CCtrl@@QAEXPAVCShip@@@Z:NEAR	; CCtrl::SetIAObjLink
EXTRN	?UnequipRide@CMover@@QAEXXZ:NEAR		; CMover::UnequipRide
EXTRN	?GetWorld@CAction@@QAEPAVCWorld@@XZ:NEAR	; CAction::GetWorld
EXTRN	?DoDie@CMover@@QAEHPAVCCtrl@@K@Z:NEAR		; CMover::DoDie
;	COMDAT __real@3f000000
; File c:\documents and settings\test\mes documents\source\virtuos_v17\build\program\_common\world.h
CONST	SEGMENT
__real@3f000000 DD 03f000000r			; 0.5
CONST	ENDS
;	COMDAT __real@3e800000
CONST	SEGMENT
__real@3e800000 DD 03e800000r			; 0.25
CONST	ENDS
;	COMDAT __real@3a83126f
CONST	SEGMENT
__real@3a83126f DD 03a83126fr			; 0.001
CONST	ENDS
;	COMDAT __real@3f266666
CONST	SEGMENT
__real@3f266666 DD 03f266666r			; 0.65
CONST	ENDS
;	COMDAT __real@3f333333
CONST	SEGMENT
__real@3f333333 DD 03f333333r			; 0.7
; Function compile flags: /Ogty
; File c:\documents and settings\test\mes documents\source\virtuos_v17\build\program\_aiinterface\actionmovercollision.cpp
CONST	ENDS
;	COMDAT ?ProcessCollisionFly@CActionMover@@QAEHPAUD3DXVECTOR3@@@Z
_TEXT	SEGMENT
_pMover$ = -48						; size = 4
tv412 = -44						; size = 4
_fLen$228316 = -44					; size = 4
_fResult$ = -40						; size = 4
_vDelta$ = -36						; size = 12
$T229755 = -24						; size = 12
_vDir$228315 = -24					; size = 12
_vStart$ = -12						; size = 12
tv474 = 8						; size = 4
tv455 = 8						; size = 4
_fR$228318 = 8						; size = 4
_pPos$ = 8						; size = 4
?ProcessCollisionFly@CActionMover@@QAEHPAUD3DXVECTOR3@@@Z PROC NEAR ; CActionMover::ProcessCollisionFly, COMDAT
; _this$ = ecx

; 23   : 	if( m_fAccPower == 0.0f && m_vDeltaAccu == D3DXVECTOR3( 0.0f, 0.0f, 0.0f ) )	// ?

  00000	d9 05 00 00 00
	00		 fld	 DWORD PTR __real@00000000
  00006	83 ec 30	 sub	 esp, 48			; 00000030H
  00009	55		 push	 ebp
  0000a	8b e9		 mov	 ebp, ecx
  0000c	d9 45 4c	 fld	 DWORD PTR [ebp+76]
  0000f	da e9		 fucompp
  00011	df e0		 fnstsw	 ax
  00013	f6 c4 44	 test	 ah, 68			; 00000044H
  00016	7a 3f		 jp	 SHORT $L228308
  00018	d9 05 00 00 00
	00		 fld	 DWORD PTR __real@00000000
  0001e	d9 45 68	 fld	 DWORD PTR [ebp+104]
  00021	da e9		 fucompp
  00023	df e0		 fnstsw	 ax
  00025	f6 c4 44	 test	 ah, 68			; 00000044H
  00028	7a 2d		 jp	 SHORT $L228308
  0002a	d9 05 00 00 00
	00		 fld	 DWORD PTR __real@00000000
  00030	d9 45 6c	 fld	 DWORD PTR [ebp+108]
  00033	da e9		 fucompp
  00035	df e0		 fnstsw	 ax
  00037	f6 c4 44	 test	 ah, 68			; 00000044H
  0003a	7a 1b		 jp	 SHORT $L228308
  0003c	d9 05 00 00 00
	00		 fld	 DWORD PTR __real@00000000
  00042	d9 45 70	 fld	 DWORD PTR [ebp+112]
  00045	da e9		 fucompp
  00047	df e0		 fnstsw	 ax
  00049	f6 c4 44	 test	 ah, 68			; 00000044H
  0004c	7a 09		 jp	 SHORT $L228308

; 24   : 		return FALSE;

  0004e	33 c0		 xor	 eax, eax
  00050	5d		 pop	 ebp

; 121  : }

  00051	83 c4 30	 add	 esp, 48			; 00000030H
  00054	c2 04 00	 ret	 4
$L228308:

; 25   : 
; 26   : 	CMover*		pMover = m_pMover;

  00057	8b 45 0c	 mov	 eax, DWORD PTR [ebp+12]
  0005a	53		 push	 ebx
  0005b	56		 push	 esi

; 27   : 	D3DXVECTOR3	vStart = *pPos;

  0005c	8b 74 24 40	 mov	 esi, DWORD PTR _pPos$[esp+56]
  00060	8b ce		 mov	 ecx, esi
  00062	8b 11		 mov	 edx, DWORD PTR [ecx]
  00064	89 54 24 30	 mov	 DWORD PTR _vStart$[esp+60], edx
  00068	89 44 24 0c	 mov	 DWORD PTR _pMover$[esp+60], eax
  0006c	8b 41 04	 mov	 eax, DWORD PTR [ecx+4]
  0006f	8b 49 08	 mov	 ecx, DWORD PTR [ecx+8]

; 28   : 	D3DXVECTOR3 vDelta = m_vDeltaAccu;

  00072	8d 5d 68	 lea	 ebx, DWORD PTR [ebp+104]
  00075	89 44 24 34	 mov	 DWORD PTR _vStart$[esp+64], eax
  00079	8b d3		 mov	 edx, ebx
  0007b	8b 02		 mov	 eax, DWORD PTR [edx]
  0007d	89 4c 24 38	 mov	 DWORD PTR _vStart$[esp+68], ecx
  00081	8b 4a 04	 mov	 ecx, DWORD PTR [edx+4]
  00084	8b 52 08	 mov	 edx, DWORD PTR [edx+8]
  00087	89 4c 24 1c	 mov	 DWORD PTR _vDelta$[esp+64], ecx
  0008b	57		 push	 edi

; 29   : 	CWorld*		pWorld = GetWorld();

  0008c	8b cd		 mov	 ecx, ebp
  0008e	89 44 24 1c	 mov	 DWORD PTR _vDelta$[esp+64], eax
  00092	89 54 24 24	 mov	 DWORD PTR _vDelta$[esp+72], edx
  00096	e8 00 00 00 00	 call	 ?GetWorld@CAction@@QAEPAVCWorld@@XZ ; CAction::GetWorld

; 30   : 
; 31   : 	pMover->SetIAObjLink( NULL );

  0009b	8b 4c 24 10	 mov	 ecx, DWORD PTR _pMover$[esp+64]
  0009f	6a 00		 push	 0
  000a1	8b f8		 mov	 edi, eax
  000a3	e8 00 00 00 00	 call	 ?SetIAObjLink@CCtrl@@QAEXPAVCShip@@@Z ; CCtrl::SetIAObjLink

; 32   : 	vStart.y += 0.5f;				// vStart   + 0.5 =  

  000a8	d9 44 24 38	 fld	 DWORD PTR _vStart$[esp+68]
  000ac	d8 05 00 00 00
	00		 fadd	 DWORD PTR __real@3f000000

; 33   : 	
; 34   : 	BOOL fResult = FALSE;
; 35   : 	if( CanCollisionFly( pMover) )

  000b2	8b 44 24 10	 mov	 eax, DWORD PTR _pMover$[esp+64]
  000b6	50		 push	 eax
  000b7	c7 44 24 1c 00
	00 00 00	 mov	 DWORD PTR _fResult$[esp+68], 0
  000bf	d9 5c 24 3c	 fstp	 DWORD PTR _vStart$[esp+72]
  000c3	e8 00 00 00 00	 call	 ?CanCollisionFly@@YAHPAVCMover@@@Z ; CanCollisionFly
  000c8	83 c4 04	 add	 esp, 4
  000cb	85 c0		 test	 eax, eax
  000cd	0f 84 39 01 00
	00		 je	 $L229824

; 36   : 	{
; 37   : 		D3DXVECTOR3 vDir = m_vDeltaAccu;

  000d3	8b 0b		 mov	 ecx, DWORD PTR [ebx]
  000d5	8b 53 04	 mov	 edx, DWORD PTR [ebx+4]
  000d8	8b 43 08	 mov	 eax, DWORD PTR [ebx+8]
  000db	89 4c 24 28	 mov	 DWORD PTR _vDir$228315[esp+64], ecx

; 38   : 	#ifdef __WORLDSERVER
; 39   : 		vDir *= 0.25f;

  000df	d9 44 24 28	 fld	 DWORD PTR _vDir$228315[esp+64]
  000e3	d8 0d 00 00 00
	00		 fmul	 DWORD PTR __real@3e800000
  000e9	89 54 24 2c	 mov	 DWORD PTR _vDir$228315[esp+68], edx
  000ed	89 44 24 30	 mov	 DWORD PTR _vDir$228315[esp+72], eax
  000f1	d9 5c 24 28	 fstp	 DWORD PTR _vDir$228315[esp+64]
  000f5	d9 44 24 2c	 fld	 DWORD PTR _vDir$228315[esp+68]
  000f9	d8 0d 00 00 00
	00		 fmul	 DWORD PTR __real@3e800000
  000ff	d9 5c 24 2c	 fstp	 DWORD PTR _vDir$228315[esp+68]
  00103	d9 44 24 30	 fld	 DWORD PTR _vDir$228315[esp+72]
  00107	d8 0d 00 00 00
	00		 fmul	 DWORD PTR __real@3e800000
  0010d	d9 54 24 30	 fst	 DWORD PTR _vDir$228315[esp+72]

; 40   : 	#endif
; 41   : 		float fLen = D3DXVec3Length( &vDir );		//     .

  00111	d8 4c 24 30	 fmul	 DWORD PTR _vDir$228315[esp+72]
  00115	d9 44 24 2c	 fld	 DWORD PTR _vDir$228315[esp+68]
  00119	d8 4c 24 2c	 fmul	 DWORD PTR _vDir$228315[esp+68]

; 116  : 			}
; 117  : 		}
; 118  : 	}
; 119  : 
; 120  : 	return fResult;

  0011d	de c1		 faddp	 ST(1), ST(0)
  0011f	d9 44 24 28	 fld	 DWORD PTR _vDir$228315[esp+64]
  00123	d8 4c 24 28	 fmul	 DWORD PTR _vDir$228315[esp+64]
  00127	de c1		 faddp	 ST(1), ST(0)
  00129	d9 fa		 fsqrt
  0012b	d9 54 24 14	 fst	 DWORD PTR _fLen$228316[esp+64]
  0012f	d8 1d 00 00 00
	00		 fcomp	 DWORD PTR __real@3a83126f
  00135	df e0		 fnstsw	 ax
  00137	f6 c4 41	 test	 ah, 65			; 00000041H
  0013a	0f 85 cc 00 00
	00		 jne	 $L229824
  00140	d9 44 24 14	 fld	 DWORD PTR _fLen$228316[esp+64]
  00144	c7 44 24 44 00
	00 80 3f	 mov	 DWORD PTR _fR$228318[esp+60], 1065353216 ; 3f800000H
  0014c	d8 1d 00 00 00
	00		 fcomp	 DWORD PTR __real@3f266666
  00152	df e0		 fnstsw	 ax
  00154	f6 c4 05	 test	 ah, 5
  00157	7a 32		 jp	 SHORT $L229780
  00159	d9 05 00 00 00
	00		 fld	 DWORD PTR __real@3f266666
  0015f	d8 74 24 14	 fdiv	 DWORD PTR _fLen$228316[esp+64]
  00163	d9 5c 24 44	 fstp	 DWORD PTR _fR$228318[esp+60]
  00167	d9 44 24 28	 fld	 DWORD PTR _vDir$228315[esp+64]
  0016b	d8 4c 24 44	 fmul	 DWORD PTR _fR$228318[esp+60]
  0016f	d9 5c 24 28	 fstp	 DWORD PTR _vDir$228315[esp+64]
  00173	d9 44 24 2c	 fld	 DWORD PTR _vDir$228315[esp+68]
  00177	d8 4c 24 44	 fmul	 DWORD PTR _fR$228318[esp+60]
  0017b	d9 5c 24 2c	 fstp	 DWORD PTR _vDir$228315[esp+68]
  0017f	d9 44 24 30	 fld	 DWORD PTR _vDir$228315[esp+72]
  00183	d8 4c 24 44	 fmul	 DWORD PTR _fR$228318[esp+60]
  00187	d9 5c 24 30	 fstp	 DWORD PTR _vDir$228315[esp+72]
$L229780:
  0018b	6a 00		 push	 0
  0018d	8d 4c 24 2c	 lea	 ecx, DWORD PTR _vDir$228315[esp+68]
  00191	51		 push	 ecx
  00192	8d 54 24 3c	 lea	 edx, DWORD PTR _vStart$[esp+72]
  00196	52		 push	 edx
  00197	8d 44 24 28	 lea	 eax, DWORD PTR _vDelta$[esp+76]
  0019b	50		 push	 eax
  0019c	8b cf		 mov	 ecx, edi
  0019e	e8 00 00 00 00	 call	 ?ProcessCollisionReflection@CWorld@@QAEHPAUD3DXVECTOR3@@ABU2@1H@Z ; CWorld::ProcessCollisionReflection
  001a3	85 c0		 test	 eax, eax
  001a5	89 44 24 18	 mov	 DWORD PTR _fResult$[esp+64], eax
  001a9	74 61		 je	 SHORT $L229824
  001ab	d9 05 00 00 00
	00		 fld	 DWORD PTR __real@3f800000
  001b1	8d 4d 50	 lea	 ecx, DWORD PTR [ebp+80]
  001b4	d8 74 24 44	 fdiv	 DWORD PTR _fR$228318[esp+60]
  001b8	d9 44 24 1c	 fld	 DWORD PTR _vDelta$[esp+64]
  001bc	d8 c9		 fmul	 ST(0), ST(1)
  001be	d9 c1		 fld	 ST(1)
  001c0	d8 4c 24 20	 fmul	 DWORD PTR _vDelta$[esp+68]
  001c4	d9 5c 24 20	 fstp	 DWORD PTR _vDelta$[esp+68]
  001c8	d9 c9		 fxch	 ST(1)
  001ca	d8 4c 24 24	 fmul	 DWORD PTR _vDelta$[esp+72]
  001ce	d9 5c 24 24	 fstp	 DWORD PTR _vDelta$[esp+72]
  001d2	d8 0d 00 00 00
	00		 fmul	 DWORD PTR __real@3f333333
  001d8	d9 5c 24 1c	 fstp	 DWORD PTR _vDelta$[esp+64]
  001dc	8b 54 24 1c	 mov	 edx, DWORD PTR _vDelta$[esp+64]
  001e0	d9 44 24 20	 fld	 DWORD PTR _vDelta$[esp+68]
  001e4	89 11		 mov	 DWORD PTR [ecx], edx
  001e6	d8 0d 00 00 00
	00		 fmul	 DWORD PTR __real@3f333333
  001ec	d9 5c 24 20	 fstp	 DWORD PTR _vDelta$[esp+68]
  001f0	8b 44 24 20	 mov	 eax, DWORD PTR _vDelta$[esp+68]
  001f4	d9 44 24 24	 fld	 DWORD PTR _vDelta$[esp+72]
  001f8	89 41 04	 mov	 DWORD PTR [ecx+4], eax
  001fb	d8 0d 00 00 00
	00		 fmul	 DWORD PTR __real@3f333333
  00201	d9 5c 24 24	 fstp	 DWORD PTR _vDelta$[esp+72]
  00205	8b 54 24 24	 mov	 edx, DWORD PTR _vDelta$[esp+72]
  00209	89 51 08	 mov	 DWORD PTR [ecx+8], edx
$L229824:
  0020c	d9 44 24 20	 fld	 DWORD PTR _vDelta$[esp+68]
  00210	d8 46 04	 fadd	 DWORD PTR [esi+4]
  00213	d9 5e 04	 fstp	 DWORD PTR [esi+4]
  00216	d9 44 24 1c	 fld	 DWORD PTR _vDelta$[esp+64]
  0021a	d8 06		 fadd	 DWORD PTR [esi]
  0021c	d9 54 24 14	 fst	 DWORD PTR tv412[esp+64]
  00220	d9 16		 fst	 DWORD PTR [esi]
  00222	d8 1d 00 00 00
	00		 fcomp	 DWORD PTR __real@41200000
  00228	df e0		 fnstsw	 ax
  0022a	f6 c4 05	 test	 ah, 5
  0022d	7a 08		 jp	 SHORT $L229791

; 42   : 		if( fLen > 0.001f )
; 43   : 		{
; 44   : 			FLOAT fR = 1.0f;
; 45   : 			if( fLen < 0.65f )							//   0.65f  
; 46   : 			{
; 47   : 				fR = 0.65f / fLen;						//   
; 48   : 				vDir *= fR;								//   .
; 49   : 			}
; 50   : 			fResult	= pWorld->ProcessCollisionReflection( &vDelta, vStart, vDir, 0 );
; 51   : 			if( fResult )	
; 52   : 			{
; 53   : 				vDelta /= fR;
; 54   : 				vDelta *= 0.7f;
; 55   : 				m_vDelta = vDelta;
; 56   : 			}
; 57   : 		}
; 58   : 	}
; 59   : 
; 60   : 	// 1. y 
; 61   : 	pPos->y += vDelta.y;
; 62   : 
; 63   : 	// 2. x 
; 64   : 	pPos->x += vDelta.x;
; 65   : 	pWorld->ClipX( pPos->x );

  0022f	c7 06 00 00 20
	41		 mov	 DWORD PTR [esi], 1092616192 ; 41200000H
  00235	eb 28		 jmp	 SHORT $L229794
$L229791:
  00237	8b 47 14	 mov	 eax, DWORD PTR [edi+20]
  0023a	0f af 47 0c	 imul	 eax, DWORD PTR [edi+12]
  0023e	89 44 24 44	 mov	 DWORD PTR tv474[esp+60], eax
  00242	db 44 24 44	 fild	 DWORD PTR tv474[esp+60]
  00246	d8 25 00 00 00
	00		 fsub	 DWORD PTR __real@41200000
  0024c	d9 44 24 14	 fld	 DWORD PTR tv412[esp+64]
  00250	d8 d9		 fcomp	 ST(1)
  00252	df e0		 fnstsw	 ax
  00254	f6 c4 41	 test	 ah, 65			; 00000041H
  00257	75 04		 jne	 SHORT $L229826
  00259	d9 1e		 fstp	 DWORD PTR [esi]
  0025b	eb 02		 jmp	 SHORT $L229794
$L229826:
  0025d	dd d8		 fstp	 ST(0)
$L229794:

; 66   : 	int nAttr = pWorld->GetHeightAttribute( pPos->x, pPos->z );		//    .

  0025f	8b 4e 08	 mov	 ecx, DWORD PTR [esi+8]
  00262	8b 16		 mov	 edx, DWORD PTR [esi]
  00264	51		 push	 ecx
  00265	52		 push	 edx
  00266	8b cf		 mov	 ecx, edi
  00268	e8 00 00 00 00	 call	 ?GetHeightAttribute@CWorld@@QAEHMM@Z ; CWorld::GetHeightAttribute

; 67   : 	switch( nAttr )

  0026d	83 f8 03	 cmp	 eax, 3
  00270	75 08		 jne	 SHORT $L228323

; 68   : 	{
; 69   : 	case HATTR_NOMOVE:	//  .
; 70   : 		pPos->x -= vDelta.x;		//        

  00272	d9 06		 fld	 DWORD PTR [esi]
  00274	d8 64 24 1c	 fsub	 DWORD PTR _vDelta$[esp+64]
  00278	d9 1e		 fstp	 DWORD PTR [esi]
$L228323:

; 71   : 		break;
; 72   : 	}
; 73   : 
; 74   : 	// 3. z 
; 75   : 	pPos->z += vDelta.z;

  0027a	d9 44 24 24	 fld	 DWORD PTR _vDelta$[esp+72]
  0027e	d8 46 08	 fadd	 DWORD PTR [esi+8]
  00281	d9 5e 08	 fstp	 DWORD PTR [esi+8]

; 76   : 	pWorld->ClipZ( pPos->z );

  00284	d9 46 08	 fld	 DWORD PTR [esi+8]
  00287	d8 1d 00 00 00
	00		 fcomp	 DWORD PTR __real@41200000
  0028d	df e0		 fnstsw	 ax
  0028f	f6 c4 05	 test	 ah, 5
  00292	7a 09		 jp	 SHORT $L229798
  00294	c7 46 08 00 00
	20 41		 mov	 DWORD PTR [esi+8], 1092616192 ; 41200000H
  0029b	eb 26		 jmp	 SHORT $L229801
$L229798:
  0029d	8b 47 14	 mov	 eax, DWORD PTR [edi+20]
  002a0	0f af 47 10	 imul	 eax, DWORD PTR [edi+16]
  002a4	89 44 24 44	 mov	 DWORD PTR tv455[esp+60], eax
  002a8	db 44 24 44	 fild	 DWORD PTR tv455[esp+60]
  002ac	d8 25 00 00 00
	00		 fsub	 DWORD PTR __real@41200000
  002b2	d8 56 08	 fcom	 DWORD PTR [esi+8]
  002b5	df e0		 fnstsw	 ax
  002b7	f6 c4 05	 test	 ah, 5
  002ba	7a 05		 jp	 SHORT $L229825
  002bc	d9 5e 08	 fstp	 DWORD PTR [esi+8]
  002bf	eb 02		 jmp	 SHORT $L229801
$L229825:
  002c1	dd d8		 fstp	 ST(0)
$L229801:

; 77   : 	if( pWorld->m_bFly )

  002c3	8b 87 1c 93 08
	00		 mov	 eax, DWORD PTR [edi+561948]
  002c9	85 c0		 test	 eax, eax
  002cb	74 10		 je	 SHORT $L228327

; 78   : 		nAttr = pWorld->GetHeightAttribute( pPos->x, pPos->z );		

  002cd	8b 4e 08	 mov	 ecx, DWORD PTR [esi+8]
  002d0	8b 16		 mov	 edx, DWORD PTR [esi]
  002d2	51		 push	 ecx
  002d3	52		 push	 edx
  002d4	8b cf		 mov	 ecx, edi
  002d6	e8 00 00 00 00	 call	 ?GetHeightAttribute@CWorld@@QAEHMM@Z ; CWorld::GetHeightAttribute

; 79   : 	else

  002db	eb 05		 jmp	 SHORT $L228328
$L228327:

; 80   : 		nAttr = HATTR_NOFLY;

  002dd	b8 02 00 00 00	 mov	 eax, 2
$L228328:

; 81   : 
; 82   : 	switch( nAttr )

  002e2	83 e8 02	 sub	 eax, 2
  002e5	74 21		 je	 SHORT $L228335
  002e7	48		 dec	 eax
  002e8	74 12		 je	 SHORT $L228333
  002ea	48		 dec	 eax
  002eb	75 40		 jne	 SHORT $L228330

; 87   : 	case HATTR_DIE:		//   .
; 88   : 		pMover->DoDie( NULL );

  002ed	8b 4c 24 10	 mov	 ecx, DWORD PTR _pMover$[esp+64]
  002f1	6a 00		 push	 0
  002f3	6a 00		 push	 0
  002f5	e8 00 00 00 00	 call	 ?DoDie@CMover@@QAEHPAVCCtrl@@K@Z ; CMover::DoDie

; 89   : 		break;

  002fa	eb 31		 jmp	 SHORT $L228330
$L228333:

; 83   : 	{
; 84   : 	case HATTR_NOMOVE:	//  .
; 85   : 		pPos->z -= vDelta.z;		//        

  002fc	d9 46 08	 fld	 DWORD PTR [esi+8]
  002ff	d8 64 24 24	 fsub	 DWORD PTR _vDelta$[esp+72]
  00303	d9 5e 08	 fstp	 DWORD PTR [esi+8]

; 86   : 		break;

  00306	eb 25		 jmp	 SHORT $L228330
$L228335:

; 90   : 	case HATTR_NOFLY:	//   -   .
; 91   : 		pPos->x -= vDelta.x;

  00308	d9 06		 fld	 DWORD PTR [esi]

; 92   : 		pPos->z -= vDelta.z;		//        
; 93   : 		pPos->y -= vDelta.y;
; 94   : 		pMover->UnequipRide();

  0030a	8b 4c 24 10	 mov	 ecx, DWORD PTR _pMover$[esp+64]
  0030e	d8 64 24 1c	 fsub	 DWORD PTR _vDelta$[esp+64]
  00312	d9 1e		 fstp	 DWORD PTR [esi]
  00314	d9 46 08	 fld	 DWORD PTR [esi+8]
  00317	d8 64 24 24	 fsub	 DWORD PTR _vDelta$[esp+72]
  0031b	d9 5e 08	 fstp	 DWORD PTR [esi+8]
  0031e	d9 46 04	 fld	 DWORD PTR [esi+4]
  00321	d8 64 24 20	 fsub	 DWORD PTR _vDelta$[esp+68]
  00325	d9 5e 04	 fstp	 DWORD PTR [esi+4]
  00328	e8 00 00 00 00	 call	 ?UnequipRide@CMover@@QAEXXZ ; CMover::UnequipRide
$L228330:

; 95   : 		break;
; 96   : 	}
; 97   : 
; 98   : 	m_fCurrentHeight = pWorld->GetFullHeight( D3DXVECTOR3(pPos->x, pPos->y + 1.0f, pPos->z) );

  0032d	d9 46 04	 fld	 DWORD PTR [esi+4]
  00330	8b 4e 08	 mov	 ecx, DWORD PTR [esi+8]
  00333	d8 05 00 00 00
	00		 fadd	 DWORD PTR __real@3f800000
  00339	8b 06		 mov	 eax, DWORD PTR [esi]
  0033b	8d 54 24 28	 lea	 edx, DWORD PTR $T229755[esp+64]
  0033f	89 4c 24 30	 mov	 DWORD PTR $T229755[esp+72], ecx
  00343	52		 push	 edx
  00344	d9 5c 24 30	 fstp	 DWORD PTR $T229755[esp+72]
  00348	8b cf		 mov	 ecx, edi
  0034a	89 44 24 2c	 mov	 DWORD PTR $T229755[esp+68], eax
  0034e	e8 00 00 00 00	 call	 ?GetFullHeight@CWorld@@QAEMABUD3DXVECTOR3@@@Z ; CWorld::GetFullHeight
  00353	d9 9d 80 00 00
	00		 fstp	 DWORD PTR [ebp+128]

; 99   : 
; 100  : 	if( pPos->y > pWorld->m_fMaxHeight )

  00359	d9 46 04	 fld	 DWORD PTR [esi+4]
  0035c	d8 9f 28 51 08
	00		 fcomp	 DWORD PTR [edi+545064]
  00362	df e0		 fnstsw	 ax
  00364	f6 c4 41	 test	 ah, 65			; 00000041H
  00367	75 17		 jne	 SHORT $L228337

; 101  : 		pPos->y = pWorld->m_fMaxHeight;

  00369	8b 87 28 51 08
	00		 mov	 eax, DWORD PTR [edi+545064]
  0036f	5f		 pop	 edi
  00370	89 46 04	 mov	 DWORD PTR [esi+4], eax

; 116  : 			}
; 117  : 		}
; 118  : 	}
; 119  : 
; 120  : 	return fResult;

  00373	8b 44 24 14	 mov	 eax, DWORD PTR _fResult$[esp+60]
  00377	5e		 pop	 esi
  00378	5b		 pop	 ebx
  00379	5d		 pop	 ebp

; 121  : }

  0037a	83 c4 30	 add	 esp, 48			; 00000030H
  0037d	c2 04 00	 ret	 4
$L228337:

; 102  : 	else
; 103  : 	{
; 104  : 		LPWATERHEIGHT pWaterHeight = pWorld->GetWaterHeight( *pPos );

  00380	d9 46 08	 fld	 DWORD PTR [esi+8]
  00383	e8 00 00 00 00	 call	 __ftol2
  00388	d9 06		 fld	 DWORD PTR [esi]
  0038a	50		 push	 eax
  0038b	e8 00 00 00 00	 call	 __ftol2
  00390	50		 push	 eax
  00391	8b cf		 mov	 ecx, edi
  00393	e8 00 00 00 00	 call	 ?GetWaterHeight@CWorld@@QAEPAUWATERHEIGHT@@HH@Z ; CWorld::GetWaterHeight

; 105  : 		if( pWaterHeight && pWaterHeight->byWaterTexture == WTYPE_CLOUD && m_fCurrentHeight == 0.0f )	

  00398	85 c0		 test	 eax, eax
  0039a	b9 01 00 00 00	 mov	 ecx, 1
  0039f	74 41		 je	 SHORT $L228340
  003a1	38 48 01	 cmp	 BYTE PTR [eax+1], cl
  003a4	75 3c		 jne	 SHORT $L228340
  003a6	d9 05 00 00 00
	00		 fld	 DWORD PTR __real@00000000
  003ac	d9 85 80 00 00
	00		 fld	 DWORD PTR [ebp+128]
  003b2	da e9		 fucompp
  003b4	df e0		 fnstsw	 ax
  003b6	f6 c4 44	 test	 ah, 68			; 00000044H
  003b9	7a 27		 jp	 SHORT $L228340

; 106  : 		{
; 107  : 			if( pPos->y < pWorld->m_fMinHeight )		

  003bb	d9 46 04	 fld	 DWORD PTR [esi+4]
  003be	d8 9f 2c 51 08
	00		 fcomp	 DWORD PTR [edi+545068]
  003c4	df e0		 fnstsw	 ax
  003c6	f6 c4 05	 test	 ah, 5
  003c9	7a 34		 jp	 SHORT $L229827

; 108  : 				pPos->y = pWorld->m_fMinHeight;

  003cb	8b 8f 2c 51 08
	00		 mov	 ecx, DWORD PTR [edi+545068]

; 116  : 			}
; 117  : 		}
; 118  : 	}
; 119  : 
; 120  : 	return fResult;

  003d1	8b 44 24 18	 mov	 eax, DWORD PTR _fResult$[esp+64]
  003d5	5f		 pop	 edi
  003d6	89 4e 04	 mov	 DWORD PTR [esi+4], ecx
  003d9	5e		 pop	 esi
  003da	5b		 pop	 ebx
  003db	5d		 pop	 ebp

; 121  : }

  003dc	83 c4 30	 add	 esp, 48			; 00000030H
  003df	c2 04 00	 ret	 4
$L228340:

; 109  : 		}
; 110  : 		else
; 111  : 		{
; 112  : 			if( pPos->y < m_fCurrentHeight )		

  003e2	d9 46 04	 fld	 DWORD PTR [esi+4]
  003e5	d8 9d 80 00 00
	00		 fcomp	 DWORD PTR [ebp+128]
  003eb	df e0		 fnstsw	 ax
  003ed	f6 c4 05	 test	 ah, 5
  003f0	7a 0d		 jp	 SHORT $L229827

; 113  : 			{
; 114  : 				pPos->y = m_fCurrentHeight;

  003f2	8b 95 80 00 00
	00		 mov	 edx, DWORD PTR [ebp+128]
  003f8	89 56 04	 mov	 DWORD PTR [esi+4], edx

; 115  : 				fResult = TRUE;

  003fb	89 4c 24 18	 mov	 DWORD PTR _fResult$[esp+64], ecx
$L229827:

; 116  : 			}
; 117  : 		}
; 118  : 	}
; 119  : 
; 120  : 	return fResult;

  003ff	8b 44 24 18	 mov	 eax, DWORD PTR _fResult$[esp+64]
  00403	5f		 pop	 edi
  00404	5e		 pop	 esi
  00405	5b		 pop	 ebx
  00406	5d		 pop	 ebp

; 121  : }

  00407	83 c4 30	 add	 esp, 48			; 00000030H
  0040a	c2 04 00	 ret	 4
?ProcessCollisionFly@CActionMover@@QAEHPAUD3DXVECTOR3@@@Z ENDP ; CActionMover::ProcessCollisionFly
_TEXT	ENDS
PUBLIC	?ProcessCollisionGround@CActionMover@@QAEHPAUD3DXVECTOR3@@@Z ; CActionMover::ProcessCollisionGround
PUBLIC	__real@3ecccccd
PUBLIC	__real@40d00000
PUBLIC	__real@40800000
PUBLIC	__real@3e1d89d9
PUBLIC	__real@3e19999a
PUBLIC	__real@bdcccccd
PUBLIC	__real@3ff33333
PUBLIC	__real@3fc00000
EXTRN	?m_bCollision@CObj@@2HA:DWORD			; CObj::m_bCollision
EXTRN	?GetOverHeightForPlayer@CWorld@@QAEMAAUD3DXVECTOR3@@PAVCObj@@@Z:NEAR ; CWorld::GetOverHeightForPlayer
EXTRN	?GetOverHeight@CWorld@@QAEMAAUD3DXVECTOR3@@PAVCObj@@@Z:NEAR ; CWorld::GetOverHeight
EXTRN	?ProcessCollision@CWorld@@QAEHPAUD3DXVECTOR3@@ABU2@1HH@Z:NEAR ; CWorld::ProcessCollision
EXTRN	?ProcessUnderCollision@CWorld@@QAEMPAUD3DXVECTOR3@@PAPAVCObj@@AAU2@@Z:NEAR ; CWorld::ProcessUnderCollision
EXTRN	?PostAIMsg@CMover@@QAEXKKKK@Z:NEAR		; CMover::PostAIMsg
EXTRN	?OnActDrop@CMover@@QAEXXZ:NEAR			; CMover::OnActDrop
EXTRN	?OnActIALanding@CMover@@QAEXPAVCObj@@ABUD3DXVECTOR3@@@Z:NEAR ; CMover::OnActIALanding
;	COMDAT __real@3ecccccd
; File c:\documents and settings\test\mes documents\source\virtuos_v17\build\program\dx_sdk\d3dx9math.inl
CONST	SEGMENT
__real@3ecccccd DD 03ecccccdr			; 0.4
CONST	ENDS
;	COMDAT __real@40d00000
CONST	SEGMENT
__real@40d00000 DD 040d00000r			; 6.5
CONST	ENDS
;	COMDAT __real@40800000
CONST	SEGMENT
__real@40800000 DD 040800000r			; 4
CONST	ENDS
;	COMDAT __real@3e1d89d9
CONST	SEGMENT
__real@3e1d89d9 DD 03e1d89d9r			; 0.153846
CONST	ENDS
;	COMDAT __real@3e19999a
CONST	SEGMENT
__real@3e19999a DD 03e19999ar			; 0.15
CONST	ENDS
;	COMDAT __real@3ff33333
CONST	SEGMENT
__real@3ff33333 DD 03ff33333r			; 1.9
CONST	ENDS
;	COMDAT __real@bdcccccd
CONST	SEGMENT
__real@bdcccccd DD 0bdcccccdr			; -0.1
CONST	ENDS
;	COMDAT __real@3fc00000
CONST	SEGMENT
__real@3fc00000 DD 03fc00000r			; 1.5
; Function compile flags: /Ogty
; File c:\documents and settings\test\mes documents\source\virtuos_v17\build\program\_aiinterface\actionmovercollision.cpp
CONST	ENDS
;	COMDAT ?ProcessCollisionGround@CActionMover@@QAEHPAUD3DXVECTOR3@@@Z
_TEXT	SEGMENT
_fResult$ = -48						; size = 4
tv718 = -44						; size = 4
_pObjColl$228387 = -44					; size = 4
tv697 = -40						; size = 4
tv533 = -40						; size = 4
_vSlide$228386 = -36					; size = 12
_vDeltaXZ$228356 = -36					; size = 12
_vDelta$ = -24						; size = 12
$T229834 = -12						; size = 12
$T229831 = -12						; size = 12
_vKneePos$228355 = -12					; size = 12
_h$228388 = 8						; size = 4
_bCollision$228367 = 8					; size = 4
_pPos$ = 8						; size = 4
?ProcessCollisionGround@CActionMover@@QAEHPAUD3DXVECTOR3@@@Z PROC NEAR ; CActionMover::ProcessCollisionGround, COMDAT
; _this$ = ecx

; 128  : {

  00000	83 ec 30	 sub	 esp, 48			; 00000030H
  00003	53		 push	 ebx
  00004	55		 push	 ebp
  00005	56		 push	 esi
  00006	57		 push	 edi
  00007	8b f9		 mov	 edi, ecx

; 129  : 	CMover*			pMover = m_pMover;

  00009	8b 5f 0c	 mov	 ebx, DWORD PTR [edi+12]

; 130  : 	CModelObject	*pModel = (CModelObject *)pMover->m_pModel;
; 131  : 	D3DXVECTOR3		vDelta = m_vDeltaAccu;

  0000c	8d 47 68	 lea	 eax, DWORD PTR [edi+104]
  0000f	8b 08		 mov	 ecx, DWORD PTR [eax]
  00011	8b 50 04	 mov	 edx, DWORD PTR [eax+4]
  00014	8b 40 08	 mov	 eax, DWORD PTR [eax+8]
  00017	89 4c 24 28	 mov	 DWORD PTR _vDelta$[esp+64], ecx

; 132  : 	BOOL			fResult = FALSE;
; 133  : 	CWorld*			pWorld = GetWorld();

  0001b	8b cf		 mov	 ecx, edi
  0001d	89 54 24 2c	 mov	 DWORD PTR _vDelta$[esp+68], edx
  00021	89 44 24 30	 mov	 DWORD PTR _vDelta$[esp+72], eax
  00025	c7 44 24 10 00
	00 00 00	 mov	 DWORD PTR _fResult$[esp+64], 0
  0002d	e8 00 00 00 00	 call	 ?GetWorld@CAction@@QAEPAVCWorld@@XZ ; CAction::GetWorld

; 134  : 
; 135  : 	if( m_bMove )	

  00032	8b 74 24 44	 mov	 esi, DWORD PTR _pPos$[esp+60]
  00036	8b e8		 mov	 ebp, eax
  00038	8b 87 b8 00 00
	00		 mov	 eax, DWORD PTR [edi+184]
  0003e	85 c0		 test	 eax, eax
  00040	0f 84 5c 02 00
	00		 je	 $L229990

; 136  : 	{
; 137  : 		D3DXVECTOR3	vKneePos, vDeltaXZ ;
; 138  : 		
; 139  : 		vKneePos = *pPos;	

  00046	8b ce		 mov	 ecx, esi
  00048	8b 11		 mov	 edx, DWORD PTR [ecx]
  0004a	8b 41 04	 mov	 eax, DWORD PTR [ecx+4]
  0004d	8b 49 08	 mov	 ecx, DWORD PTR [ecx+8]
  00050	89 44 24 38	 mov	 DWORD PTR _vKneePos$228355[esp+68], eax

; 140  : 		vKneePos.y += 0.4f;		// 

  00054	d9 44 24 38	 fld	 DWORD PTR _vKneePos$228355[esp+68]
  00058	d8 05 00 00 00
	00		 fadd	 DWORD PTR __real@3ecccccd

; 141  : 		vDeltaXZ = vDelta;	

  0005e	8b 44 24 2c	 mov	 eax, DWORD PTR _vDelta$[esp+68]
  00062	89 54 24 34	 mov	 DWORD PTR _vKneePos$228355[esp+64], edx
  00066	8b 54 24 28	 mov	 edx, DWORD PTR _vDelta$[esp+64]
  0006a	d9 5c 24 38	 fstp	 DWORD PTR _vKneePos$228355[esp+68]
  0006e	89 4c 24 3c	 mov	 DWORD PTR _vKneePos$228355[esp+72], ecx
  00072	8b 4c 24 30	 mov	 ecx, DWORD PTR _vDelta$[esp+72]
  00076	89 54 24 1c	 mov	 DWORD PTR _vDeltaXZ$228356[esp+64], edx

; 142  : 		vDeltaXZ.y = 0;			//    
; 143  : 
; 144  : 
; 145  : 		//gmpbigsun : collision test-------------------------------------------------------------------------------
; 146  : 		float COLL_TEST_DIR = 6.5f;
; 147  : 
; 148  : #ifdef __BS_ADJUST_COLLISION
; 149  : 
; 150  : 		if( pMover == g_pPlayer )		// 
; 151  : 		{
; 152  : 			COLL_TEST_DIR = 30.0f;
; 153  : 
; 154  : 			DWORD dwMoveState = GetMoveState( );
; 155  : 			if( OBJSTA_FMOVE == dwMoveState )
; 156  : 			{
; 157  : 				if( !IsStateFlag( OBJSTAF_WALK ) ) 
; 158  : 					COLL_TEST_DIR = 8.0f;
; 159  : 
; 160  : 			}
; 161  : 
; 162  : 		}
; 163  : #endif
; 164  : 
; 165  : 		vDeltaXZ *= COLL_TEST_DIR;

  0007a	d9 44 24 1c	 fld	 DWORD PTR _vDeltaXZ$228356[esp+64]
  0007e	d8 0d 00 00 00
	00		 fmul	 DWORD PTR __real@40d00000
  00084	89 4c 24 24	 mov	 DWORD PTR _vDeltaXZ$228356[esp+72], ecx
  00088	d9 44 24 24	 fld	 DWORD PTR _vDeltaXZ$228356[esp+72]
  0008c	89 44 24 20	 mov	 DWORD PTR _vDeltaXZ$228356[esp+68], eax
  00090	d8 0d 00 00 00
	00		 fmul	 DWORD PTR __real@40d00000

; 166  : 	#ifdef __X15
; 167  : 		vDeltaXZ /= 4.0f;		//  15  vDeltaXZ 4 .   .
; 168  : 	#endif
; 169  : 	
; 170  : 		//    
; 171  : 		//      .
; 172  : 		BOOL bColl	= TRUE;
; 173  : 		if( pMover->IsNPC() && (pMover->GetIndex() >= MI_PET_LAWOLF && pMover->GetIndex() <= MI_PET_LASTINDEX) )
; 174  : 		{
; 175  : 			bColl = FALSE;		//        .
; 176  : 		}
; 177  : 
; 178  : #if __VER >= 9	//__AI_0509
; 179  : 		if( pMover->IsNPC() && ( pMover->GetSpeedFactor() > 1.9F || pMover->m_dwAIInterface == AII_PET ) )	// 
; 180  : 		{
; 181  : 			//      
; 182  : 			if( pMover->m_pActMover->m_vDeltaE.x == 0 && pMover->m_pActMover->m_vDeltaE.y == 0 && pMover->m_pActMover->m_vDeltaE.z == 0 )
; 183  : 				bColl = FALSE;
; 184  : 		}
; 185  : #endif	// __AI_0509
; 186  : #ifdef __CLIENT
; 187  : #if __VER >= 9	// __PET_0410
; 188  : 		if( pMover->GetId() == NULL_ID )	//   ,
; 189  : 			bColl	= FALSE;
; 190  : #endif	// __PET_0410
; 191  : #endif	// __CLIENT
; 192  : 
; 193  : 		bColl = TRUE;
; 194  : 
; 195  : 		if( CObj::m_bCollision && bColl ) 

  00096	a1 00 00 00 00	 mov	 eax, DWORD PTR ?m_bCollision@CObj@@2HA ; CObj::m_bCollision
  0009b	d9 c9		 fxch	 ST(1)
  0009d	33 c9		 xor	 ecx, ecx
  0009f	3b c1		 cmp	 eax, ecx
  000a1	d8 0d 00 00 00
	00		 fmul	 DWORD PTR __real@3e800000
  000a7	c7 44 24 20 00
	00 00 00	 mov	 DWORD PTR _vDeltaXZ$228356[esp+68], 0
  000af	d9 5c 24 1c	 fstp	 DWORD PTR _vDeltaXZ$228356[esp+64]
  000b3	d8 0d 00 00 00
	00		 fmul	 DWORD PTR __real@3e800000
  000b9	d9 5c 24 24	 fstp	 DWORD PTR _vDeltaXZ$228356[esp+72]
  000bd	74 45		 je	 SHORT $L229994

; 196  : 		{
; 197  : 			float fLen = D3DXVec3Length( &vDeltaXZ );		//     .

  000bf	d9 44 24 24	 fld	 DWORD PTR _vDeltaXZ$228356[esp+72]
  000c3	d8 4c 24 24	 fmul	 DWORD PTR _vDeltaXZ$228356[esp+72]
  000c7	d9 44 24 1c	 fld	 DWORD PTR _vDeltaXZ$228356[esp+64]
  000cb	d8 4c 24 1c	 fmul	 DWORD PTR _vDeltaXZ$228356[esp+64]

; 385  : 		}
; 386  : 	}
; 387  : 	
; 388  : 	return fResult;

  000cf	de c1		 faddp	 ST(1), ST(0)
  000d1	d9 fa		 fsqrt
  000d3	d9 05 00 00 00
	00		 fld	 DWORD PTR __real@00000000
  000d9	da e9		 fucompp
  000db	df e0		 fnstsw	 ax
  000dd	f6 c4 44	 test	 ah, 68			; 00000044H
  000e0	7b 22		 jnp	 SHORT $L229994
  000e2	8b 83 b8 01 00
	00		 mov	 eax, DWORD PTR [ebx+440]
  000e8	50		 push	 eax
  000e9	51		 push	 ecx
  000ea	8d 54 24 24	 lea	 edx, DWORD PTR _vDeltaXZ$228356[esp+72]
  000ee	52		 push	 edx
  000ef	8d 44 24 40	 lea	 eax, DWORD PTR _vKneePos$228355[esp+76]
  000f3	8b ca		 mov	 ecx, edx
  000f5	50		 push	 eax
  000f6	51		 push	 ecx
  000f7	8b cd		 mov	 ecx, ebp
  000f9	e8 00 00 00 00	 call	 ?ProcessCollision@CWorld@@QAEHPAUD3DXVECTOR3@@ABU2@1HH@Z ; CWorld::ProcessCollision
  000fe	89 44 24 10	 mov	 DWORD PTR _fResult$[esp+64], eax
  00102	33 c9		 xor	 ecx, ecx
$L229994:
  00104	d9 44 24 1c	 fld	 DWORD PTR _vDeltaXZ$228356[esp+64]
  00108	8b 44 24 10	 mov	 eax, DWORD PTR _fResult$[esp+64]
  0010c	3b c1		 cmp	 eax, ecx
  0010e	d8 0d 00 00 00
	00		 fmul	 DWORD PTR __real@40800000
  00114	d9 44 24 20	 fld	 DWORD PTR _vDeltaXZ$228356[esp+68]
  00118	d8 0d 00 00 00
	00		 fmul	 DWORD PTR __real@40800000
  0011e	d9 44 24 24	 fld	 DWORD PTR _vDeltaXZ$228356[esp+72]
  00122	d8 0d 00 00 00
	00		 fmul	 DWORD PTR __real@40800000
  00128	d9 5c 24 24	 fstp	 DWORD PTR _vDeltaXZ$228356[esp+72]
  0012c	d9 c9		 fxch	 ST(1)
  0012e	d8 0d 00 00 00
	00		 fmul	 DWORD PTR __real@3e1d89d9
  00134	d9 5c 24 1c	 fstp	 DWORD PTR _vDeltaXZ$228356[esp+64]
  00138	d8 0d 00 00 00
	00		 fmul	 DWORD PTR __real@3e1d89d9
  0013e	d9 5c 24 20	 fstp	 DWORD PTR _vDeltaXZ$228356[esp+68]
  00142	d9 44 24 24	 fld	 DWORD PTR _vDeltaXZ$228356[esp+72]
  00146	d8 0d 00 00 00
	00		 fmul	 DWORD PTR __real@3e1d89d9
  0014c	d9 5c 24 24	 fstp	 DWORD PTR _vDeltaXZ$228356[esp+72]
  00150	74 47		 je	 SHORT $L228366
  00152	d9 44 24 24	 fld	 DWORD PTR _vDeltaXZ$228356[esp+72]
  00156	d8 4c 24 24	 fmul	 DWORD PTR _vDeltaXZ$228356[esp+72]
  0015a	d9 44 24 1c	 fld	 DWORD PTR _vDeltaXZ$228356[esp+64]
  0015e	d8 4c 24 1c	 fmul	 DWORD PTR _vDeltaXZ$228356[esp+64]
  00162	de c1		 faddp	 ST(1), ST(0)
  00164	d9 44 24 20	 fld	 DWORD PTR _vDeltaXZ$228356[esp+68]
  00168	d8 4c 24 20	 fmul	 DWORD PTR _vDeltaXZ$228356[esp+68]
  0016c	de c1		 faddp	 ST(1), ST(0)
  0016e	d9 fa		 fsqrt
  00170	d8 1d 00 00 00
	00		 fcomp	 DWORD PTR __real@3e19999a
  00176	df e0		 fnstsw	 ax
  00178	f6 c4 41	 test	 ah, 65			; 00000041H
  0017b	75 1c		 jne	 SHORT $L228366
  0017d	8b 54 24 1c	 mov	 edx, DWORD PTR _vDeltaXZ$228356[esp+64]
  00181	8b 44 24 24	 mov	 eax, DWORD PTR _vDeltaXZ$228356[esp+72]
  00185	89 4f 54	 mov	 DWORD PTR [edi+84], ecx
  00188	89 4f 6c	 mov	 DWORD PTR [edi+108], ecx
  0018b	c7 44 24 20 00
	00 00 00	 mov	 DWORD PTR _vDeltaXZ$228356[esp+68], 0
  00193	89 57 50	 mov	 DWORD PTR [edi+80], edx
  00196	89 47 58	 mov	 DWORD PTR [edi+88], eax
$L228366:
  00199	d9 44 24 1c	 fld	 DWORD PTR _vDeltaXZ$228356[esp+64]
  0019d	89 4c 24 44	 mov	 DWORD PTR _bCollision$228367[esp+60], ecx
  001a1	d8 06		 fadd	 DWORD PTR [esi]
  001a3	d9 54 24 18	 fst	 DWORD PTR tv533[esp+64]
  001a7	d9 16		 fst	 DWORD PTR [esi]
  001a9	d8 1d 00 00 00
	00		 fcomp	 DWORD PTR __real@41200000
  001af	df e0		 fnstsw	 ax
  001b1	f6 c4 05	 test	 ah, 5
  001b4	7a 08		 jp	 SHORT $L229898

; 198  : 			if( fLen != 0.0f )
; 199  : 			{	/*
; 200  : 				FLOAT fR = 1.0f;
; 201  : 				if( fLen < 0.65f )							//   0.65f  
; 202  : 				{
; 203  : 					fR = 0.65f / fLen;						//   
; 204  : 					vDeltaXZ *= fR;							//   .
; 205  : 				}*/
; 206  : #ifdef __LAYER_1015
; 207  : 				fResult	= pWorld->ProcessCollision( &vDeltaXZ, vKneePos, vDeltaXZ, 0, pMover->GetLayer() );
; 208  : #else	// __LAYER_1015
; 209  : 				fResult	= pWorld->ProcessCollision( &vDeltaXZ, vKneePos, vDeltaXZ, 0 );
; 210  : #endif	// __LAYER_1015
; 211  : 				//vDeltaXZ /= fR;								//      .
; 212  : 			}
; 213  : 		}
; 214  : 
; 215  : 	#ifdef __X15
; 216  : 		vDeltaXZ *= 4.0f;	
; 217  : 	#endif
; 218  : 		vDeltaXZ /= COLL_TEST_DIR;
; 219  : 
; 220  : #ifdef __BS_CONSOLE
; 221  : 		if( pMover == g_pPlayer )
; 222  : 			vDeltaXZ *= gConsole()->_fSpeedMul;
; 223  : #endif
; 224  : 
; 225  : 	#if __VER >= 11 // __FIX_COLLISION
; 226  : 		if(fResult && (D3DXVec3Length(&vDeltaXZ) > 0.15f))
; 227  : 		{
; 228  : 			vDeltaXZ.y = m_vDeltaAccu.y = m_vDelta.y = 0;
; 229  : 			m_vDelta.x = vDeltaXZ.x;
; 230  : 			m_vDelta.z = vDeltaXZ.z;
; 231  : 		}
; 232  : 	#endif
; 233  : 		BOOL bCollision = FALSE;
; 234  : 
; 235  : 		// x 
; 236  : 		pPos->x += vDeltaXZ.x;
; 237  : 		pWorld->ClipX( pPos->x );

  001b6	c7 06 00 00 20
	41		 mov	 DWORD PTR [esi], 1092616192 ; 41200000H
  001bc	eb 28		 jmp	 SHORT $L229901
$L229898:
  001be	8b 4d 14	 mov	 ecx, DWORD PTR [ebp+20]
  001c1	0f af 4d 0c	 imul	 ecx, DWORD PTR [ebp+12]
  001c5	89 4c 24 14	 mov	 DWORD PTR tv718[esp+64], ecx
  001c9	db 44 24 14	 fild	 DWORD PTR tv718[esp+64]
  001cd	d8 25 00 00 00
	00		 fsub	 DWORD PTR __real@41200000
  001d3	d9 44 24 18	 fld	 DWORD PTR tv533[esp+64]
  001d7	d8 d9		 fcomp	 ST(1)
  001d9	df e0		 fnstsw	 ax
  001db	f6 c4 41	 test	 ah, 65			; 00000041H
  001de	75 04		 jne	 SHORT $L229993
  001e0	d9 1e		 fstp	 DWORD PTR [esi]
  001e2	eb 02		 jmp	 SHORT $L229901
$L229993:
  001e4	dd d8		 fstp	 ST(0)
$L229901:

; 238  : 		int nAttr = pWorld->GetHeightAttribute( pPos->x, pPos->z );		//    .

  001e6	8b 56 08	 mov	 edx, DWORD PTR [esi+8]
  001e9	8b 06		 mov	 eax, DWORD PTR [esi]
  001eb	52		 push	 edx
  001ec	50		 push	 eax
  001ed	8b cd		 mov	 ecx, ebp
  001ef	e8 00 00 00 00	 call	 ?GetHeightAttribute@CWorld@@QAEHMM@Z ; CWorld::GetHeightAttribute

; 239  : 		switch( nAttr )

  001f4	48		 dec	 eax
  001f5	74 05		 je	 SHORT $L228373
  001f7	83 e8 02	 sub	 eax, 2
  001fa	75 1a		 jne	 SHORT $L228374
$L228373:

; 240  : 		{
; 241  : 		case HATTR_NOWALK:	//  
; 242  : 		case HATTR_NOMOVE:	//  .
; 243  : 			if( pMover->GetIAObjLink() == NULL )	//      .

  001fc	8b 83 c0 01 00
	00		 mov	 eax, DWORD PTR [ebx+448]
  00202	85 c0		 test	 eax, eax
  00204	75 10		 jne	 SHORT $L228374

; 244  : 			{
; 245  : 				pPos->x -= vDeltaXZ.x;		//        

  00206	d9 06		 fld	 DWORD PTR [esi]

; 246  : 				bCollision = TRUE;

  00208	c7 44 24 44 01
	00 00 00	 mov	 DWORD PTR _bCollision$228367[esp+60], 1
  00210	d8 64 24 1c	 fsub	 DWORD PTR _vDeltaXZ$228356[esp+64]
  00214	d9 1e		 fstp	 DWORD PTR [esi]
$L228374:

; 247  : 			}
; 248  : 			break;
; 249  : 		}
; 250  : 
; 251  : 		// z 
; 252  : 		pPos->z += vDeltaXZ.z;

  00216	d9 44 24 24	 fld	 DWORD PTR _vDeltaXZ$228356[esp+72]
  0021a	d8 46 08	 fadd	 DWORD PTR [esi+8]
  0021d	d9 5e 08	 fstp	 DWORD PTR [esi+8]

; 253  : 		pWorld->ClipZ( pPos->z );	

  00220	d9 46 08	 fld	 DWORD PTR [esi+8]
  00223	d8 1d 00 00 00
	00		 fcomp	 DWORD PTR __real@41200000
  00229	df e0		 fnstsw	 ax
  0022b	f6 c4 05	 test	 ah, 5
  0022e	7a 09		 jp	 SHORT $L229909
  00230	c7 46 08 00 00
	20 41		 mov	 DWORD PTR [esi+8], 1092616192 ; 41200000H
  00237	eb 26		 jmp	 SHORT $L229912
$L229909:
  00239	8b 4d 14	 mov	 ecx, DWORD PTR [ebp+20]
  0023c	0f af 4d 10	 imul	 ecx, DWORD PTR [ebp+16]
  00240	89 4c 24 18	 mov	 DWORD PTR tv697[esp+64], ecx
  00244	db 44 24 18	 fild	 DWORD PTR tv697[esp+64]
  00248	d8 25 00 00 00
	00		 fsub	 DWORD PTR __real@41200000
  0024e	d8 56 08	 fcom	 DWORD PTR [esi+8]
  00251	df e0		 fnstsw	 ax
  00253	f6 c4 05	 test	 ah, 5
  00256	7a 05		 jp	 SHORT $L229992
  00258	d9 5e 08	 fstp	 DWORD PTR [esi+8]
  0025b	eb 02		 jmp	 SHORT $L229912
$L229992:
  0025d	dd d8		 fstp	 ST(0)
$L229912:

; 254  : 		nAttr = pWorld->GetHeightAttribute( pPos->x, pPos->z );		//    .

  0025f	8b 56 08	 mov	 edx, DWORD PTR [esi+8]
  00262	8b 06		 mov	 eax, DWORD PTR [esi]
  00264	52		 push	 edx
  00265	50		 push	 eax
  00266	8b cd		 mov	 ecx, ebp
  00268	e8 00 00 00 00	 call	 ?GetHeightAttribute@CWorld@@QAEHMM@Z ; CWorld::GetHeightAttribute

; 255  : 		switch( nAttr )	

  0026d	48		 dec	 eax
  0026e	0f 84 1b 01 00
	00		 je	 $L228379
  00274	83 e8 02	 sub	 eax, 2
  00277	0f 84 12 01 00
	00		 je	 $L228379
  0027d	48		 dec	 eax
  0027e	75 0b		 jne	 SHORT $L229995

; 262  : 				bCollision = TRUE;
; 263  : 			}
; 264  : 			break;
; 265  : 		case HATTR_DIE:		//   . - die x, z     .
; 266  : 			pMover->DoDie( NULL );

  00280	6a 00		 push	 0
  00282	6a 00		 push	 0
  00284	8b cb		 mov	 ecx, ebx
  00286	e8 00 00 00 00	 call	 ?DoDie@CMover@@QAEHPAVCCtrl@@K@Z ; CMover::DoDie
$L229995:

; 267  : 			break;
; 268  : 		}
; 269  : 		
; 270  : 	#ifdef __WORLDSERVER
; 271  : 		if( bCollision )

  0028b	8b 44 24 44	 mov	 eax, DWORD PTR _bCollision$228367[esp+60]
  0028f	85 c0		 test	 eax, eax
  00291	74 0f		 je	 SHORT $L229990
$L229972:

; 272  : 			pMover->PostAIMsg( AIMSG_COLLISION );

  00293	6a 00		 push	 0
  00295	6a 00		 push	 0
  00297	6a 00		 push	 0
  00299	6a 0a		 push	 10			; 0000000aH
  0029b	8b cb		 mov	 ecx, ebx
  0029d	e8 00 00 00 00	 call	 ?PostAIMsg@CMover@@QAEXKKKK@Z ; CMover::PostAIMsg
$L229990:

; 273  : 	#endif
; 274  : 	} // if( m_bMove )
; 275  : 
; 276  : 	//   ()
; 277  : 	if( GetDmgState() == OBJSTA_DISAPPEAR )		//     .

  002a2	8b 4f 04	 mov	 ecx, DWORD PTR [edi+4]
  002a5	81 e1 00 00 00
	0f		 and	 ecx, 251658240		; 0f000000H
  002ab	81 f9 00 00 00
	09		 cmp	 ecx, 150994944		; 09000000H

; 278  : 		return fResult;

  002b1	0f 84 8a 02 00
	00		 je	 $L229997

; 279  : 
; 280  : 	if( vDelta.y < 0.0f )		//  

  002b7	d9 44 24 2c	 fld	 DWORD PTR _vDelta$[esp+68]
  002bb	d8 1d 00 00 00
	00		 fcomp	 DWORD PTR __real@00000000
  002c1	df e0		 fnstsw	 ax
  002c3	f6 c4 05	 test	 ah, 5
  002c6	0f 8a e7 01 00
	00		 jp	 $L228384

; 281  : 	{
; 282  : 		if( m_bGround == 1 )	//    (m_bGround == 1)    .

  002cc	83 7f 44 01	 cmp	 DWORD PTR [edi+68], 1

; 283  : 			return fResult;

  002d0	0f 84 6b 02 00
	00		 je	 $L229997

; 284  : 
; 285  : 		//            .
; 286  : 		//     pPos->y += delta.y  h .
; 287  : 		//        .      .
; 288  : 		//      .
; 289  : 
; 290  : 		D3DXVECTOR3 vSlide( 0.0f, 0.0f, 0.0f );		// slide
; 291  : 		CObj *pObjColl = NULL;
; 292  : 		FLOAT h = pWorld->ProcessUnderCollision( &vSlide, &pObjColl, D3DXVECTOR3( pPos->x, pPos->y + 1.0f, pPos->z ) );

  002d6	8b 16		 mov	 edx, DWORD PTR [esi]
  002d8	d9 46 04	 fld	 DWORD PTR [esi+4]
  002db	8b 46 08	 mov	 eax, DWORD PTR [esi+8]
  002de	d8 05 00 00 00
	00		 fadd	 DWORD PTR __real@3f800000
  002e4	8d 4c 24 34	 lea	 ecx, DWORD PTR $T229831[esp+64]
  002e8	51		 push	 ecx
  002e9	89 54 24 38	 mov	 DWORD PTR $T229831[esp+68], edx
  002ed	d9 5c 24 3c	 fstp	 DWORD PTR $T229831[esp+72]
  002f1	8d 54 24 18	 lea	 edx, DWORD PTR _pObjColl$228387[esp+68]
  002f5	89 44 24 40	 mov	 DWORD PTR $T229831[esp+76], eax
  002f9	52		 push	 edx
  002fa	8d 44 24 24	 lea	 eax, DWORD PTR _vSlide$228386[esp+72]
  002fe	50		 push	 eax
  002ff	8b cd		 mov	 ecx, ebp
  00301	c7 44 24 28 00
	00 00 00	 mov	 DWORD PTR _vSlide$228386[esp+76], 0
  00309	c7 44 24 2c 00
	00 00 00	 mov	 DWORD PTR _vSlide$228386[esp+80], 0
  00311	c7 44 24 30 00
	00 00 00	 mov	 DWORD PTR _vSlide$228386[esp+84], 0
  00319	c7 44 24 20 00
	00 00 00	 mov	 DWORD PTR _pObjColl$228387[esp+76], 0
  00321	e8 00 00 00 00	 call	 ?ProcessUnderCollision@CWorld@@QAEMPAUD3DXVECTOR3@@PAPAVCObj@@AAU2@@Z ; CWorld::ProcessUnderCollision
  00326	d9 5c 24 44	 fstp	 DWORD PTR _h$228388[esp+60]

; 293  : 		m_fCurrentHeight = h;

  0032a	8b 4c 24 44	 mov	 ecx, DWORD PTR _h$228388[esp+60]

; 294  : 
; 295  : 		pPos->y += vDelta.y;

  0032e	d9 44 24 2c	 fld	 DWORD PTR _vDelta$[esp+68]
  00332	89 8f 80 00 00
	00		 mov	 DWORD PTR [edi+128], ecx
  00338	d8 46 04	 fadd	 DWORD PTR [esi+4]
  0033b	d9 56 04	 fst	 DWORD PTR [esi+4]

; 296  : 		
; 297  : 		BOOL bLanding = FALSE;
; 298  : 		if( GetJumpState() == OBJSTA_SJUMP3 )	//  

  0033e	8b 4f 04	 mov	 ecx, DWORD PTR [edi+4]
  00341	8b d1		 mov	 edx, ecx
  00343	81 e2 00 f0 00
	00		 and	 edx, 61440		; 0000f000H
  00349	81 fa 00 70 00
	00		 cmp	 edx, 28672		; 00007000H
  0034f	75 5b		 jne	 SHORT $L228391

; 299  : 		{
; 300  :  			if( pPos->y < h )	//  

  00351	d8 5c 24 44	 fcomp	 DWORD PTR _h$228388[esp+60]
  00355	df e0		 fnstsw	 ax
  00357	f6 c4 05	 test	 ah, 5
  0035a	0f 8a e1 01 00
	00		 jp	 $L229997
$L228394:

; 320  : 				}
; 321  : 			} 
; 322  : 			else				//  0.25     
; 323  : 				bLanding = TRUE;
; 324  : 		} 
; 325  : 		
; 326  : 		if( bLanding )			// ? 
; 327  : 		{
; 328  : #ifdef __JEFF_11_6
; 329  : 			BOOL bReturn	= pMover->IsNPC() && pMover->GetSpeedFactor() > 1.9F;

  00360	8b 83 34 02 00
	00		 mov	 eax, DWORD PTR [ebx+564]
  00366	85 c0		 test	 eax, eax
  00368	0f 85 a3 00 00
	00		 jne	 $L229832
  0036e	d9 83 10 07 00
	00		 fld	 DWORD PTR [ebx+1808]
  00374	d8 1d 00 00 00
	00		 fcomp	 DWORD PTR __real@3ff33333
  0037a	df e0		 fnstsw	 ax
  0037c	f6 c4 41	 test	 ah, 65			; 00000041H
  0037f	0f 85 8c 00 00
	00		 jne	 $L229832
  00385	b9 01 00 00 00	 mov	 ecx, 1
  0038a	e9 84 00 00 00	 jmp	 $L229833
$L228379:

; 256  : 		{
; 257  : 		case HATTR_NOWALK:	//  
; 258  : 		case HATTR_NOMOVE:	//  .
; 259  : 			if( pMover->GetIAObjLink() == NULL )

  0038f	8b 83 c0 01 00
	00		 mov	 eax, DWORD PTR [ebx+448]
  00395	85 c0		 test	 eax, eax
  00397	0f 85 ee fe ff
	ff		 jne	 $L229995

; 260  : 			{
; 261  : 				pPos->z -= vDeltaXZ.z;

  0039d	d9 46 08	 fld	 DWORD PTR [esi+8]
  003a0	d8 64 24 24	 fsub	 DWORD PTR _vDeltaXZ$228356[esp+72]
  003a4	d9 5e 08	 fstp	 DWORD PTR [esi+8]

; 267  : 			break;
; 268  : 		}
; 269  : 		
; 270  : 	#ifdef __WORLDSERVER
; 271  : 		if( bCollision )

  003a7	e9 e7 fe ff ff	 jmp	 $L229972
$L228391:

; 301  : 				bLanding = TRUE;
; 302  : 		} 
; 303  : 		else	
; 304  : 		{
; 305  : 			//    (  .   )
; 306  : 			if( pPos->y - 0.25f > h )		//   xx      

  003ac	d9 05 00 00 00
	00		 fld	 DWORD PTR __real@3e800000
  003b2	d8 e9		 fsubr	 ST(0), ST(1)
  003b4	d8 5c 24 44	 fcomp	 DWORD PTR _h$228388[esp+60]
  003b8	df e0		 fnstsw	 ax
  003ba	dd d8		 fstp	 ST(0)
  003bc	f6 c4 41	 test	 ah, 65			; 00000041H
  003bf	75 9f		 jne	 SHORT $L228394

; 307  : 			{
; 308  : 				if( vDelta.y < -0.1f )		//   0.x  .      .

  003c1	d9 44 24 2c	 fld	 DWORD PTR _vDelta$[esp+68]
  003c5	d8 1d 00 00 00
	00		 fcomp	 DWORD PTR __real@bdcccccd
  003cb	df e0		 fnstsw	 ax
  003cd	f6 c4 05	 test	 ah, 5
  003d0	0f 8a 6b 01 00
	00		 jp	 $L229997

; 309  : 				{
; 310  : 					#if __VER >= 11 // __SYS_COLLECTING
; 311  : 						if( (GetState() & OBJSTA_COLLECT)== 0 )

  003d6	f7 c1 00 00 00
	10		 test	 ecx, 268435456		; 10000000H
  003dc	75 1e		 jne	 SHORT $L228397

; 312  : 					#endif
; 313  : 
; 314  : #if __VER >= 15 // __BS_FIXED_KNOCKBACK
; 315  : 						if( pMover->IsPlayer() && !( GetDmgState() & OBJSTA_DMG_FLY_ALL ) )			//    

  003de	8b 83 34 02 00
	00		 mov	 eax, DWORD PTR [ebx+564]
  003e4	85 c0		 test	 eax, eax
  003e6	74 14		 je	 SHORT $L228397
  003e8	f7 c1 00 00 00
	02		 test	 ecx, 33554432		; 02000000H
  003ee	75 0c		 jne	 SHORT $L228397

; 316  : #endif
; 317  : 					SetJumpState( OBJSTA_SJUMP3 );		//   

  003f0	68 00 70 00 00	 push	 28672			; 00007000H
  003f5	8b cf		 mov	 ecx, edi
  003f7	e8 00 00 00 00	 call	 ?SetJumpState@CAction@@QAEXK@Z ; CAction::SetJumpState
$L228397:

; 318  : 
; 319  : 					pMover->OnActDrop();				//  

  003fc	8b cb		 mov	 ecx, ebx
  003fe	e8 00 00 00 00	 call	 ?OnActDrop@CMover@@QAEXXZ ; CMover::OnActDrop

; 385  : 		}
; 386  : 	}
; 387  : 	
; 388  : 	return fResult;

  00403	8b 44 24 10	 mov	 eax, DWORD PTR _fResult$[esp+64]
  00407	5f		 pop	 edi
  00408	5e		 pop	 esi
  00409	5d		 pop	 ebp
  0040a	5b		 pop	 ebx

; 389  : }

  0040b	83 c4 30	 add	 esp, 48			; 00000030H
  0040e	c2 04 00	 ret	 4
$L229832:

; 320  : 				}
; 321  : 			} 
; 322  : 			else				//  0.25     
; 323  : 				bLanding = TRUE;
; 324  : 		} 
; 325  : 		
; 326  : 		if( bLanding )			// ? 
; 327  : 		{
; 328  : #ifdef __JEFF_11_6
; 329  : 			BOOL bReturn	= pMover->IsNPC() && pMover->GetSpeedFactor() > 1.9F;

  00411	33 c9		 xor	 ecx, ecx
$L229833:

; 330  : #endif	// __JEFF_11_6
; 331  : 			if( vSlide.y
; 332  : #ifdef __JEFF_11_6
; 333  : 				&& !bReturn
; 334  : #endif	// __JEFF_11_6
; 335  : 				)

  00413	d9 05 00 00 00
	00		 fld	 DWORD PTR __real@00000000
  00419	d9 44 24 20	 fld	 DWORD PTR _vSlide$228386[esp+68]
  0041d	da e9		 fucompp
  0041f	df e0		 fnstsw	 ax
  00421	f6 c4 44	 test	 ah, 68			; 00000044H
  00424	7b 32		 jnp	 SHORT $L228401
  00426	85 c9		 test	 ecx, ecx
  00428	75 2e		 jne	 SHORT $L228401

; 336  : 			{
; 337  : 				*pPos = vSlide;

  0042a	8b 4c 24 1c	 mov	 ecx, DWORD PTR _vSlide$228386[esp+64]
  0042e	8b 54 24 20	 mov	 edx, DWORD PTR _vSlide$228386[esp+68]

; 338  : 				m_bGround = 2;	//      .
; 339  : 			#ifdef __WORLDSERVER
; 340  : 				pMover->PostAIMsg( AIMSG_COLLISION );

  00432	6a 00		 push	 0
  00434	8b c6		 mov	 eax, esi
  00436	89 08		 mov	 DWORD PTR [eax], ecx
  00438	8b 4c 24 28	 mov	 ecx, DWORD PTR _vSlide$228386[esp+76]
  0043c	6a 00		 push	 0
  0043e	89 50 04	 mov	 DWORD PTR [eax+4], edx
  00441	89 48 08	 mov	 DWORD PTR [eax+8], ecx
  00444	6a 00		 push	 0
  00446	6a 0a		 push	 10			; 0000000aH
  00448	8b cb		 mov	 ecx, ebx
  0044a	c7 47 44 02 00
	00 00		 mov	 DWORD PTR [edi+68], 2
  00451	e8 00 00 00 00	 call	 ?PostAIMsg@CMover@@QAEXKKKK@Z ; CMover::PostAIMsg

; 341  : 			#endif
; 342  : 			} 
; 343  : 			else

  00456	eb 0e		 jmp	 SHORT $L228402
$L228401:

; 344  : 			{
; 345  : 				pPos->y = h;

  00458	8b 54 24 44	 mov	 edx, DWORD PTR _h$228388[esp+60]
  0045c	89 56 04	 mov	 DWORD PTR [esi+4], edx

; 346  : 				m_bGround = 1;	//    .

  0045f	c7 47 44 01 00
	00 00		 mov	 DWORD PTR [edi+68], 1
$L228402:

; 347  : 			}
; 348  : 
; 349  : 			if( pObjColl )

  00466	8b 44 24 14	 mov	 eax, DWORD PTR _pObjColl$228387[esp+64]
  0046a	85 c0		 test	 eax, eax
  0046c	74 27		 je	 SHORT $L228403

; 350  : 			{
; 351  : 				if( pObjColl->GetType()	== OT_SHIP )	//   SHIP

  0046e	83 b8 70 01 00
	00 07		 cmp	 DWORD PTR [eax+368], 7

; 352  : 					pMover->OnActIALanding( pObjColl, *pPos );

  00475	8b cb		 mov	 ecx, ebx
  00477	75 1e		 jne	 SHORT $L228404
  00479	56		 push	 esi
  0047a	50		 push	 eax
  0047b	e8 00 00 00 00	 call	 ?OnActIALanding@CMover@@QAEXPAVCObj@@ABUD3DXVECTOR3@@@Z ; CMover::OnActIALanding

; 385  : 		}
; 386  : 	}
; 387  : 	
; 388  : 	return fResult;

  00480	8b 44 24 10	 mov	 eax, DWORD PTR _fResult$[esp+64]
  00484	c7 47 54 00 00
	00 00		 mov	 DWORD PTR [edi+84], 0
  0048b	5f		 pop	 edi
  0048c	5e		 pop	 esi
  0048d	5d		 pop	 ebp
  0048e	5b		 pop	 ebx

; 389  : }

  0048f	83 c4 30	 add	 esp, 48			; 00000030H
  00492	c2 04 00	 ret	 4
$L228403:

; 353  : 				else
; 354  : 					pMover->SetIAObjLink( NULL );
; 355  : 			} 
; 356  : 			else
; 357  : 				pMover->SetIAObjLink( NULL );	//     IA  .

  00495	8b cb		 mov	 ecx, ebx
$L228404:
  00497	6a 00		 push	 0
  00499	e8 00 00 00 00	 call	 ?SetIAObjLink@CCtrl@@QAEXPAVCShip@@@Z ; CCtrl::SetIAObjLink

; 385  : 		}
; 386  : 	}
; 387  : 	
; 388  : 	return fResult;

  0049e	8b 44 24 10	 mov	 eax, DWORD PTR _fResult$[esp+64]
  004a2	c7 47 54 00 00
	00 00		 mov	 DWORD PTR [edi+84], 0
  004a9	5f		 pop	 edi
  004aa	5e		 pop	 esi
  004ab	5d		 pop	 ebp
  004ac	5b		 pop	 ebx

; 389  : }

  004ad	83 c4 30	 add	 esp, 48			; 00000030H
  004b0	c2 04 00	 ret	 4
$L228384:

; 358  : 			
; 359  : 			m_vDelta.y = 0;
; 360  : 		}
; 361  : 	} 
; 362  : 	else if( vDelta.y > 0 )			//  

  004b3	d9 44 24 2c	 fld	 DWORD PTR _vDelta$[esp+68]
  004b7	d8 1d 00 00 00
	00		 fcomp	 DWORD PTR __real@00000000
  004bd	df e0		 fnstsw	 ax
  004bf	f6 c4 41	 test	 ah, 65			; 00000041H
  004c2	75 7d		 jne	 SHORT $L229997

; 363  : 	{
; 364  : #if __VER >= 15 // __BOUND_BOX_COLLISION
; 365  : 		FLOAT h = 65535.0f;			// pPos  
; 366  : 		if( pMover->IsPlayer() )

  004c4	8b 83 34 02 00
	00		 mov	 eax, DWORD PTR [ebx+564]

; 367  : 		{
; 368  : 			h = pWorld->GetOverHeightForPlayer( D3DXVECTOR3( pPos->x, pPos->y + 1.5f, pPos->z ), pMover );

  004ca	d9 46 04	 fld	 DWORD PTR [esi+4]
  004cd	8b 4e 08	 mov	 ecx, DWORD PTR [esi+8]
  004d0	d8 05 00 00 00
	00		 fadd	 DWORD PTR __real@3fc00000
  004d6	85 c0		 test	 eax, eax
  004d8	8b 06		 mov	 eax, DWORD PTR [esi]
  004da	8d 54 24 34	 lea	 edx, DWORD PTR $T229834[esp+64]
  004de	d9 5c 24 38	 fstp	 DWORD PTR $T229834[esp+68]
  004e2	53		 push	 ebx
  004e3	89 4c 24 40	 mov	 DWORD PTR $T229834[esp+76], ecx
  004e7	52		 push	 edx
  004e8	8b cd		 mov	 ecx, ebp
  004ea	89 44 24 3c	 mov	 DWORD PTR $T229834[esp+72], eax
  004ee	74 07		 je	 SHORT $L228410
  004f0	e8 00 00 00 00	 call	 ?GetOverHeightForPlayer@CWorld@@QAEMAAUD3DXVECTOR3@@PAVCObj@@@Z ; CWorld::GetOverHeightForPlayer

; 369  : 		}
; 370  : 		else

  004f5	eb 05		 jmp	 SHORT $L228412
$L228410:

; 371  : 		{
; 372  : 			h = pWorld->GetOverHeight( D3DXVECTOR3( pPos->x, pPos->y + 1.5f, pPos->z ), pMover );

  004f7	e8 00 00 00 00	 call	 ?GetOverHeight@CWorld@@QAEMAAUD3DXVECTOR3@@PAVCObj@@@Z ; CWorld::GetOverHeight
$L228412:

; 373  : 		}
; 374  : #else // __BOUND_BOX_COLLISION
; 375  : 		// pPos  
; 376  : 		FLOAT h	= pWorld->GetOverHeight( D3DXVECTOR3( pPos->x, pPos->y + 1.5f, pPos->z ) );
; 377  : #endif // __BOUND_BOX_COLLISION
; 378  : 			
; 379  : 		pPos->y += vDelta.y;		//  

  004fc	d9 44 24 2c	 fld	 DWORD PTR _vDelta$[esp+68]
  00500	d8 46 04	 fadd	 DWORD PTR [esi+4]
  00503	d9 56 04	 fst	 DWORD PTR [esi+4]

; 380  : 		if( pPos->y + 1.5f > h )	//     

  00506	d9 05 00 00 00
	00		 fld	 DWORD PTR __real@3fc00000
  0050c	d8 c1		 fadd	 ST(0), ST(1)
  0050e	d8 da		 fcomp	 ST(2)
  00510	df e0		 fnstsw	 ax
  00512	dd d8		 fstp	 ST(0)
  00514	f6 c4 41	 test	 ah, 65			; 00000041H
  00517	75 26		 jne	 SHORT $L229991

; 381  : 		{
; 382  : 			pPos->y = h - 1.5f ;	// y 

  00519	d8 25 00 00 00
	00		 fsub	 DWORD PTR __real@3fc00000

; 383  : 			m_vDelta.y = -0.01f;	//  
; 384  : 			fResult = TRUE;			//  

  0051f	c7 44 24 10 01
	00 00 00	 mov	 DWORD PTR _fResult$[esp+64], 1

; 385  : 		}
; 386  : 	}
; 387  : 	
; 388  : 	return fResult;

  00527	8b 44 24 10	 mov	 eax, DWORD PTR _fResult$[esp+64]
  0052b	d9 5e 04	 fstp	 DWORD PTR [esi+4]
  0052e	c7 47 54 0a d7
	23 bc		 mov	 DWORD PTR [edi+84], -1138501878 ; bc23d70aH
  00535	5f		 pop	 edi
  00536	5e		 pop	 esi
  00537	5d		 pop	 ebp
  00538	5b		 pop	 ebx

; 389  : }

  00539	83 c4 30	 add	 esp, 48			; 00000030H
  0053c	c2 04 00	 ret	 4
$L229991:

; 383  : 			m_vDelta.y = -0.01f;	//  
; 384  : 			fResult = TRUE;			//  

  0053f	dd d8		 fstp	 ST(0)
$L229997:

; 385  : 		}
; 386  : 	}
; 387  : 	
; 388  : 	return fResult;

  00541	8b 44 24 10	 mov	 eax, DWORD PTR _fResult$[esp+64]
  00545	5f		 pop	 edi
  00546	5e		 pop	 esi
  00547	5d		 pop	 ebp
  00548	5b		 pop	 ebx

; 389  : }

  00549	83 c4 30	 add	 esp, 48			; 00000030H
  0054c	c2 04 00	 ret	 4
?ProcessCollisionGround@CActionMover@@QAEHPAUD3DXVECTOR3@@@Z ENDP ; CActionMover::ProcessCollisionGround
_TEXT	ENDS
END
