; Listing generated by Microsoft (R) Optimizing Compiler Version 13.10.6030 

	TITLE	\Documents and Settings\test\Mes documents\Source\Virtuos_v17\Build\Program\_AIInterface\AIAggro.cpp
	.386P
include listing.inc
if @Version gt 510
.model FLAT
else
_TEXT	SEGMENT PARA USE32 PUBLIC 'CODE'
_TEXT	ENDS
_DATA	SEGMENT DWORD USE32 PUBLIC 'DATA'
_DATA	ENDS
CONST	SEGMENT DWORD USE32 PUBLIC 'CONST'
CONST	ENDS
_BSS	SEGMENT DWORD USE32 PUBLIC 'BSS'
_BSS	ENDS
$$SYMBOLS	SEGMENT BYTE USE32 'DEBSYM'
$$SYMBOLS	ENDS
$$TYPES	SEGMENT BYTE USE32 'DEBTYP'
$$TYPES	ENDS
_TLS	SEGMENT DWORD USE32 PUBLIC 'TLS'
_TLS	ENDS
;	COMDAT ??_C@_0CA@GLBIGGGO@m_nAttackFirstRange?5?$MA?L?$LL?s?3?$CFd?5?$CFs?6?$AA@
CONST	SEGMENT DWORD USE32 PUBLIC 'CONST'
CONST	ENDS
;	COMDAT ??_C@_0BO@NMGEGOH@CAIAggro?3?3DoAttack?5?3?5?$CFs?5?$CFd?5?$CFd?$AA@
CONST	SEGMENT DWORD USE32 PUBLIC 'CONST'
CONST	ENDS
;	COMDAT ??_C@_0CF@GPCLPLOG@?$LA?f?$LA?m?5?3?5?$CFs?$MA?G?5dwAtk2?$LA?$KB?5?A?v?A?$KE?$LF?G?A?v?5?$LO?J@
CONST	SEGMENT DWORD USE32 PUBLIC 'CONST'
CONST	ENDS
;	COMDAT ??_C@_0CF@PNLKMPKB@?$LA?f?$LA?m?5?3?5?$CFs?$MA?G?5?$LA?x?$LA?$NN?$CFd?$LA?$KB?5?A?v?A?$KE?$LF?G?A?v?5?$LO?J@
CONST	SEGMENT DWORD USE32 PUBLIC 'CONST'
CONST	ENDS
;	COMDAT ??_C@_0CA@NDHMDKEO@SubSummonProcess?5?3?5?$LM?R?H?$KP?5?$LN?G?F?P?5?$CFd?$AA@
CONST	SEGMENT DWORD USE32 PUBLIC 'CONST'
CONST	ENDS
;	COMDAT ??_C@_0CJ@LAMEBJAK@CAIAggro?3?3MoverProcessRage?5?3?5?$LJ?$PM?$MA@
CONST	SEGMENT DWORD USE32 PUBLIC 'CONST'
CONST	ENDS
text$yc	SEGMENT PARA USE32 PUBLIC 'CODE'
text$yc	ENDS
CRT$XCA	SEGMENT DWORD USE32 PUBLIC 'DATA'
CRT$XCA	ENDS
CRT$XCU	SEGMENT DWORD USE32 PUBLIC 'DATA'
CRT$XCU	ENDS
CRT$XCL	SEGMENT DWORD USE32 PUBLIC 'DATA'
CRT$XCL	ENDS
CRT$XCC	SEGMENT DWORD USE32 PUBLIC 'DATA'
CRT$XCC	ENDS
CRT$XCZ	SEGMENT DWORD USE32 PUBLIC 'DATA'
CRT$XCZ	ENDS
xdata$x	SEGMENT DWORD USE32 PUBLIC 'CONST'
xdata$x	ENDS
text$AFX_COL1	SEGMENT PARA USE32 PUBLIC ''
text$AFX_COL1	ENDS
;	COMDAT ?IsMove@CAIAggro@@IAEHXZ
_TEXT	SEGMENT PARA USE32 PUBLIC 'CODE'
_TEXT	ENDS
;	COMDAT ?IsReturnToBegin@CAIAggro@@UAEHXZ
_TEXT	SEGMENT PARA USE32 PUBLIC 'CODE'
_TEXT	ENDS
;	COMDAT ?IsMember@CParty@@QAEHK@Z
_TEXT	SEGMENT PARA USE32 PUBLIC 'CODE'
_TEXT	ENDS
;	COMDAT ?SelectMemberClear@__GuildCombatMember@CGuildCombat@@QAEXXZ
_TEXT	SEGMENT PARA USE32 PUBLIC 'CODE'
_TEXT	ENDS
;	COMDAT ??0__MINIGAME_PACKET@@QAE@GHHH@Z
_TEXT	SEGMENT PARA USE32 PUBLIC 'CODE'
_TEXT	ENDS
;	COMDAT ?Serialize@__MINIGAME_PACKET@@UAEXAAVCAr@@@Z
_TEXT	SEGMENT PARA USE32 PUBLIC 'CODE'
_TEXT	ENDS
;	COMDAT ?Serialize@__MINIGAME_EXT_PACKET@@UAEXAAVCAr@@@Z
_TEXT	SEGMENT PARA USE32 PUBLIC 'CODE'
_TEXT	ENDS
;	COMDAT ??0MINIGMAME_PRIZE_LIST@CRainbowRaceMng@@QAE@KHK@Z
_TEXT	SEGMENT PARA USE32 PUBLIC 'CODE'
_TEXT	ENDS
;	COMDAT ?RemovePlayerId2CampusId@CCampusMng@@QAEXK@Z
_TEXT	SEGMENT PARA USE32 PUBLIC 'CODE'
_TEXT	ENDS
;	COMDAT ?GetPacketSize@CBuffer2@@UAEKPAE@Z
_TEXT	SEGMENT PARA USE32 PUBLIC 'CODE'
_TEXT	ENDS
;	COMDAT ?SetHeader@CBuffer2@@UAEXK@Z
_TEXT	SEGMENT PARA USE32 PUBLIC 'CODE'
_TEXT	ENDS
;	COMDAT ??_GCBuffer2@@UAEPAXI@Z
_TEXT	SEGMENT PARA USE32 PUBLIC 'CODE'
_TEXT	ENDS
;	COMDAT ??1CBuffer2@@UAE@XZ
_TEXT	SEGMENT PARA USE32 PUBLIC 'CODE'
_TEXT	ENDS
;	COMDAT ?IsEmpty@CBufferQueue@@QAEHXZ
_TEXT	SEGMENT PARA USE32 PUBLIC 'CODE'
_TEXT	ENDS
;	COMDAT ??1CMapChild@@UAE@XZ
_TEXT	SEGMENT PARA USE32 PUBLIC 'CODE'
_TEXT	ENDS
;	COMDAT ??_GCMapChild@@UAEPAXI@Z
_TEXT	SEGMENT PARA USE32 PUBLIC 'CODE'
_TEXT	ENDS
;	COMDAT ??1?$map@KPAVCClientSock@@U?$less@K@std@@V?$allocator@U?$pair@$$CBKPAVCClientSock@@@std@@@3@@std@@QAE@XZ
_TEXT	SEGMENT PARA USE32 PUBLIC 'CODE'
_TEXT	ENDS
;	COMDAT ??1CMapChildE@@UAE@XZ
_TEXT	SEGMENT PARA USE32 PUBLIC 'CODE'
_TEXT	ENDS
;	COMDAT ??_GCMapChildE@@UAEPAXI@Z
_TEXT	SEGMENT PARA USE32 PUBLIC 'CODE'
_TEXT	ENDS
;	COMDAT ??1?$map@KPAVCClientSockE@@U?$less@K@std@@V?$allocator@U?$pair@$$CBKPAVCClientSockE@@@std@@@3@@std@@QAE@XZ
_TEXT	SEGMENT PARA USE32 PUBLIC 'CODE'
_TEXT	ENDS
;	COMDAT ?GetRecvHandle@CDPSock@@QAEPAXXZ
_TEXT	SEGMENT PARA USE32 PUBLIC 'CODE'
_TEXT	ENDS
;	COMDAT ?IsInstanceDungeon@CInstanceDungeonHelper@@QAEHK@Z
_TEXT	SEGMENT PARA USE32 PUBLIC 'CODE'
_TEXT	ENDS
;	COMDAT ?GetStateMap@CAIAggro@@UBEPBUSTATEMAP@@XZ
_TEXT	SEGMENT PARA USE32 PUBLIC 'CODE'
_TEXT	ENDS
;	COMDAT _$E1
text$yc	SEGMENT PARA USE32 PUBLIC 'CODE'
text$yc	ENDS
;	COMDAT ??0CAIAggro@@QAE@XZ
_TEXT	SEGMENT PARA USE32 PUBLIC 'CODE'
_TEXT	ENDS
;	COMDAT ??_GCAIAggro@@UAEPAXI@Z
_TEXT	SEGMENT PARA USE32 PUBLIC 'CODE'
_TEXT	ENDS
;	COMDAT ??0_VECINFO@@QAE@XZ
_TEXT	SEGMENT PARA USE32 PUBLIC 'CODE'
_TEXT	ENDS
;	COMDAT ??1_VECINFO@@QAE@XZ
_TEXT	SEGMENT PARA USE32 PUBLIC 'CODE'
_TEXT	ENDS
;	COMDAT ??0CAIAggro@@QAE@PAVCObj@@K@Z
_TEXT	SEGMENT PARA USE32 PUBLIC 'CODE'
_TEXT	ENDS
;	COMDAT ?Init@CAIAggro@@IAEXXZ
_TEXT	SEGMENT PARA USE32 PUBLIC 'CODE'
_TEXT	ENDS
;	COMDAT ??1CAIAggro@@UAE@XZ
_TEXT	SEGMENT PARA USE32 PUBLIC 'CODE'
_TEXT	ENDS
;	COMDAT ?InitAI@CAIAggro@@UAEXXZ
_TEXT	SEGMENT PARA USE32 PUBLIC 'CODE'
_TEXT	ENDS
;	COMDAT ?SetStop@CAIAggro@@IAEXK@Z
_TEXT	SEGMENT PARA USE32 PUBLIC 'CODE'
_TEXT	ENDS
;	COMDAT ?IsEndStop@CAIAggro@@IAEHXZ
_TEXT	SEGMENT PARA USE32 PUBLIC 'CODE'
_TEXT	ENDS
;	COMDAT ?MoveToDst@CAIAggro@@IAEXABUD3DXVECTOR3@@@Z
_TEXT	SEGMENT PARA USE32 PUBLIC 'CODE'
_TEXT	ENDS
;	COMDAT ?MoveToDst@CAIAggro@@IAEXK@Z
_TEXT	SEGMENT PARA USE32 PUBLIC 'CODE'
_TEXT	ENDS
;	COMDAT ?MoveToRandom@CAIAggro@@IAEXI@Z
_TEXT	SEGMENT PARA USE32 PUBLIC 'CODE'
_TEXT	ENDS
;	COMDAT ?IsInRange@CAIAggro@@IAEHAAUD3DXVECTOR3@@M@Z
_TEXT	SEGMENT PARA USE32 PUBLIC 'CODE'
_TEXT	ENDS
;	COMDAT ?SubItemLoot@CAIAggro@@IAEHXZ
_TEXT	SEGMENT PARA USE32 PUBLIC 'CODE'
_TEXT	ENDS
;	COMDAT ?StateInit@CAIAggro@@IAEHABUAIMSG@@@Z
_TEXT	SEGMENT PARA USE32 PUBLIC 'CODE'
_TEXT	ENDS
;	COMDAT ?DoReturnToBegin@CAIAggro@@IAEXH@Z
_TEXT	SEGMENT PARA USE32 PUBLIC 'CODE'
_TEXT	ENDS
;	COMDAT ?MoveProcessIdle@CAIAggro@@IAEHABUAIMSG@@@Z
_TEXT	SEGMENT PARA USE32 PUBLIC 'CODE'
_TEXT	ENDS
;	COMDAT ?StateIdle@CAIAggro@@IAEHABUAIMSG@@@Z
_TEXT	SEGMENT PARA USE32 PUBLIC 'CODE'
_TEXT	ENDS
;	COMDAT ?StateWander@CAIAggro@@IAEHABUAIMSG@@@Z
_TEXT	SEGMENT PARA USE32 PUBLIC 'CODE'
_TEXT	ENDS
;	COMDAT ?StateEvade@CAIAggro@@IAEHABUAIMSG@@@Z
_TEXT	SEGMENT PARA USE32 PUBLIC 'CODE'
_TEXT	ENDS
;	COMDAT ?StateStand@CAIAggro@@IAEHABUAIMSG@@@Z
_TEXT	SEGMENT PARA USE32 PUBLIC 'CODE'
_TEXT	ENDS
;	COMDAT ?StatePatrol@CAIAggro@@IAEHABUAIMSG@@@Z
_TEXT	SEGMENT PARA USE32 PUBLIC 'CODE'
_TEXT	ENDS
;	COMDAT ?MoveProcessStand@CAIAggro@@IAEHABUAIMSG@@@Z
_TEXT	SEGMENT PARA USE32 PUBLIC 'CODE'
_TEXT	ENDS
;	COMDAT ?MoveProcessPatrol@CAIAggro@@IAEHABUAIMSG@@@Z
_TEXT	SEGMENT PARA USE32 PUBLIC 'CODE'
_TEXT	ENDS
;	COMDAT ?CallHelper@CAIAggro@@IAEXPBUMoverProp@@@Z
_TEXT	SEGMENT PARA USE32 PUBLIC 'CODE'
_TEXT	ENDS
;	COMDAT ?GetAtkMethod_Far@CAIAggro@@IAEKXZ
_TEXT	SEGMENT PARA USE32 PUBLIC 'CODE'
_TEXT	ENDS
;	COMDAT ?GetAtkMethod_Near@CAIAggro@@IAEKXZ
_TEXT	SEGMENT PARA USE32 PUBLIC 'CODE'
_TEXT	ENDS
;	COMDAT ?GetAtkRange@CAIAggro@@IAEKK@Z
_TEXT	SEGMENT PARA USE32 PUBLIC 'CODE'
_TEXT	ENDS
;	COMDAT ?GetAtkProp@CAIAggro@@IAEPAUItemProp@@K@Z
_TEXT	SEGMENT PARA USE32 PUBLIC 'CODE'
_TEXT	ENDS
;	COMDAT ?GetAtkItemId@CAIAggro@@IAEKK@Z
_TEXT	SEGMENT PARA USE32 PUBLIC 'CODE'
_TEXT	ENDS
;	COMDAT ?DoAttack@CAIAggro@@IAEXKPAVCMover@@@Z
_TEXT	SEGMENT PARA USE32 PUBLIC 'CODE'
_TEXT	ENDS
;	COMDAT ?SubAttackChance@CAIAggro@@IAEHABUAIMSG@@PAVCMover@@@Z
_TEXT	SEGMENT PARA USE32 PUBLIC 'CODE'
_TEXT	ENDS
;	COMDAT ?SelectAttackType@CAIAggro@@IAEHPAVCMover@@@Z
_TEXT	SEGMENT PARA USE32 PUBLIC 'CODE'
_TEXT	ENDS
;	COMDAT ?SubSummonProcess@CAIAggro@@IAEXPAVCMover@@@Z
_TEXT	SEGMENT PARA USE32 PUBLIC 'CODE'
_TEXT	ENDS
;	COMDAT ?MoveProcessRage@CAIAggro@@IAEHABUAIMSG@@@Z
_TEXT	SEGMENT PARA USE32 PUBLIC 'CODE'
_TEXT	ENDS
;	COMDAT ?MoveProcessRagePatrol@CAIAggro@@IAEHABUAIMSG@@@Z
_TEXT	SEGMENT PARA USE32 PUBLIC 'CODE'
_TEXT	ENDS
;	COMDAT ?StateRagePatrol@CAIAggro@@IAEHABUAIMSG@@@Z
_TEXT	SEGMENT PARA USE32 PUBLIC 'CODE'
_TEXT	ENDS
;	COMDAT ?StateRage@CAIAggro@@IAEHABUAIMSG@@@Z
_TEXT	SEGMENT PARA USE32 PUBLIC 'CODE'
_TEXT	ENDS
;	COMDAT ?MoveProcessRunaway@CAIAggro@@IAEHXZ
_TEXT	SEGMENT PARA USE32 PUBLIC 'CODE'
_TEXT	ENDS
;	COMDAT ?StateRunaway@CAIAggro@@IAEHABUAIMSG@@@Z
_TEXT	SEGMENT PARA USE32 PUBLIC 'CODE'
_TEXT	ENDS
;	COMDAT ?SetTarget@CAIAggro@@IAEXKK@Z
_TEXT	SEGMENT PARA USE32 PUBLIC 'CODE'
_TEXT	ENDS
;	COMDAT ?compare@?$basic_string@DU?$char_traits@D@std@@V?$allocator@D@2@@std@@QBEHABV12@@Z
_TEXT	SEGMENT PARA USE32 PUBLIC 'CODE'
_TEXT	ENDS
;	COMDAT ?IsFull@?$CStack@K@@QAEHXZ
_TEXT	SEGMENT PARA USE32 PUBLIC 'CODE'
_TEXT	ENDS
;	COMDAT ??A?$map@KPAVCCtrl@@U?$less@K@std@@V?$allocator@U?$pair@$$CBKPAVCCtrl@@@std@@@3@@std@@QAEAAPAVCCtrl@@ABK@Z
_TEXT	SEGMENT PARA USE32 PUBLIC 'CODE'
_TEXT	ENDS
;	COMDAT ??0?$pair@KPAVCCtrl@@@std@@QAE@ABKABQAVCCtrl@@@Z
_TEXT	SEGMENT PARA USE32 PUBLIC 'CODE'
_TEXT	ENDS
;	COMDAT ?begin@?$vector@KV?$allocator@K@std@@@std@@QAE?AViterator@12@XZ
_TEXT	SEGMENT PARA USE32 PUBLIC 'CODE'
_TEXT	ENDS
;	COMDAT ?end@?$vector@KV?$allocator@K@std@@@std@@QAE?AViterator@12@XZ
_TEXT	SEGMENT PARA USE32 PUBLIC 'CODE'
_TEXT	ENDS
;	COMDAT ?size@?$vector@KV?$allocator@K@std@@@std@@QBEIXZ
_TEXT	SEGMENT PARA USE32 PUBLIC 'CODE'
_TEXT	ENDS
;	COMDAT ?push_back@?$vector@KV?$allocator@K@std@@@std@@QAEXABK@Z
_TEXT	SEGMENT PARA USE32 PUBLIC 'CODE'
_TEXT	ENDS
;	COMDAT ?erase@?$vector@KV?$allocator@K@std@@@std@@QAE?AViterator@12@V312@@Z
_TEXT	SEGMENT PARA USE32 PUBLIC 'CODE'
_TEXT	ENDS
;	COMDAT ?GetMax@?$CItemContainer@VCItemElem@@@@QAEHXZ
_TEXT	SEGMENT PARA USE32 PUBLIC 'CODE'
_TEXT	ENDS
;	COMDAT ??0?$deque@PAUtagACTMSG@@V?$allocator@PAUtagACTMSG@@@std@@@std@@QAE@XZ
_TEXT	SEGMENT PARA USE32 PUBLIC 'CODE'
_TEXT	ENDS
;	COMDAT ??1?$deque@PAUtagACTMSG@@V?$allocator@PAUtagACTMSG@@@std@@@std@@QAE@XZ
_TEXT	SEGMENT PARA USE32 PUBLIC 'CODE'
_TEXT	ENDS
;	COMDAT ?begin@?$deque@PAUtagACTMSG@@V?$allocator@PAUtagACTMSG@@@std@@@std@@QAE?AViterator@12@XZ
_TEXT	SEGMENT PARA USE32 PUBLIC 'CODE'
_TEXT	ENDS
;	COMDAT ?end@?$deque@PAUtagACTMSG@@V?$allocator@PAUtagACTMSG@@@std@@@std@@QAE?AViterator@12@XZ
_TEXT	SEGMENT PARA USE32 PUBLIC 'CODE'
_TEXT	ENDS
;	COMDAT ?empty@?$deque@PAUtagACTMSG@@V?$allocator@PAUtagACTMSG@@@std@@@std@@QBE_NXZ
_TEXT	SEGMENT PARA USE32 PUBLIC 'CODE'
_TEXT	ENDS
;	COMDAT ?clear@?$deque@PAUtagACTMSG@@V?$allocator@PAUtagACTMSG@@@std@@@std@@QAEXXZ
_TEXT	SEGMENT PARA USE32 PUBLIC 'CODE'
_TEXT	ENDS
;	COMDAT ??0?$deque@PAUtagMAGICATKMSG@@V?$allocator@PAUtagMAGICATKMSG@@@std@@@std@@QAE@XZ
_TEXT	SEGMENT PARA USE32 PUBLIC 'CODE'
_TEXT	ENDS
;	COMDAT ??1?$deque@PAUtagMAGICATKMSG@@V?$allocator@PAUtagMAGICATKMSG@@@std@@@std@@QAE@XZ
_TEXT	SEGMENT PARA USE32 PUBLIC 'CODE'
_TEXT	ENDS
;	COMDAT ?begin@?$deque@PAUtagMAGICATKMSG@@V?$allocator@PAUtagMAGICATKMSG@@@std@@@std@@QAE?AViterator@12@XZ
_TEXT	SEGMENT PARA USE32 PUBLIC 'CODE'
_TEXT	ENDS
;	COMDAT ?end@?$deque@PAUtagMAGICATKMSG@@V?$allocator@PAUtagMAGICATKMSG@@@std@@@std@@QAE?AViterator@12@XZ
_TEXT	SEGMENT PARA USE32 PUBLIC 'CODE'
_TEXT	ENDS
;	COMDAT ?empty@?$deque@PAUtagMAGICATKMSG@@V?$allocator@PAUtagMAGICATKMSG@@@std@@@std@@QBE_NXZ
_TEXT	SEGMENT PARA USE32 PUBLIC 'CODE'
_TEXT	ENDS
;	COMDAT ?clear@?$deque@PAUtagMAGICATKMSG@@V?$allocator@PAUtagMAGICATKMSG@@@std@@@std@@QAEXXZ
_TEXT	SEGMENT PARA USE32 PUBLIC 'CODE'
_TEXT	ENDS
;	COMDAT ??Diterator@?$deque@PAUtagACTMSG@@V?$allocator@PAUtagACTMSG@@@std@@@std@@QBEAAPAUtagACTMSG@@XZ
_TEXT	SEGMENT PARA USE32 PUBLIC 'CODE'
_TEXT	ENDS
;	COMDAT ??Eiterator@?$deque@PAUtagACTMSG@@V?$allocator@PAUtagACTMSG@@@std@@@std@@QAEAAV012@XZ
_TEXT	SEGMENT PARA USE32 PUBLIC 'CODE'
_TEXT	ENDS
;	COMDAT ??9const_iterator@?$deque@PAUtagACTMSG@@V?$allocator@PAUtagACTMSG@@@std@@@std@@QBE_NABV012@@Z
_TEXT	SEGMENT PARA USE32 PUBLIC 'CODE'
_TEXT	ENDS
;	COMDAT ??Diterator@?$deque@PAUtagMAGICATKMSG@@V?$allocator@PAUtagMAGICATKMSG@@@std@@@std@@QBEAAPAUtagMAGICATKMSG@@XZ
_TEXT	SEGMENT PARA USE32 PUBLIC 'CODE'
_TEXT	ENDS
;	COMDAT ??Eiterator@?$deque@PAUtagMAGICATKMSG@@V?$allocator@PAUtagMAGICATKMSG@@@std@@@std@@QAEAAV012@XZ
_TEXT	SEGMENT PARA USE32 PUBLIC 'CODE'
_TEXT	ENDS
;	COMDAT ??9const_iterator@?$deque@PAUtagMAGICATKMSG@@V?$allocator@PAUtagMAGICATKMSG@@@std@@@std@@QBE_NABV012@@Z
_TEXT	SEGMENT PARA USE32 PUBLIC 'CODE'
_TEXT	ENDS
;	COMDAT ?erase@?$_Tree@V?$_Tmap_traits@KU_Friend@@U?$less@K@std@@V?$allocator@U?$pair@$$CBKU_Friend@@@std@@@3@$0A@@std@@@std@@QAEIABK@Z
_TEXT	SEGMENT PARA USE32 PUBLIC 'CODE'
_TEXT	ENDS
;	COMDAT ?size@?$_Tree@V?$_Tmap_traits@KPAVCGuildMember@@U?$less@K@std@@V?$allocator@U?$pair@$$CBKPAVCGuildMember@@@std@@@3@$0A@@std@@@std@@QBEIXZ
_TEXT	SEGMENT PARA USE32 PUBLIC 'CODE'
_TEXT	ENDS
;	COMDAT ?size@?$_Tree@V?$_Tmap_traits@KPAVCGuild@@U?$less@K@std@@V?$allocator@U?$pair@$$CBKPAVCGuild@@@std@@@3@$0A@@std@@@std@@QBEIXZ
_TEXT	SEGMENT PARA USE32 PUBLIC 'CODE'
_TEXT	ENDS
;	COMDAT ?size@?$vector@PAU__JOINPLAYER@CGuildCombat@@V?$allocator@PAU__JOINPLAYER@CGuildCombat@@@std@@@std@@QBEIXZ
_TEXT	SEGMENT PARA USE32 PUBLIC 'CODE'
_TEXT	ENDS
;	COMDAT ??A?$vector@PAU__JOINPLAYER@CGuildCombat@@V?$allocator@PAU__JOINPLAYER@CGuildCombat@@@std@@@std@@QAEAAPAU__JOINPLAYER@CGuildCombat@@I@Z
_TEXT	SEGMENT PARA USE32 PUBLIC 'CODE'
_TEXT	ENDS
;	COMDAT ?clear@?$vector@PAU__JOINPLAYER@CGuildCombat@@V?$allocator@PAU__JOINPLAYER@CGuildCombat@@@std@@@std@@QAEXXZ
_TEXT	SEGMENT PARA USE32 PUBLIC 'CODE'
_TEXT	ENDS
;	COMDAT ?clear@?$list@PAU__JOINPLAYER@CGuildCombat@@V?$allocator@PAU__JOINPLAYER@CGuildCombat@@@std@@@std@@QAEXXZ
_TEXT	SEGMENT PARA USE32 PUBLIC 'CODE'
_TEXT	ENDS
;	COMDAT ?size@?$_Tree@V?$_Tmap_traits@KPAU_PlayerData@@U?$less@K@std@@V?$allocator@U?$pair@$$CBKPAU_PlayerData@@@std@@@3@$0A@@std@@@std@@QBEIXZ
_TEXT	SEGMENT PARA USE32 PUBLIC 'CODE'
_TEXT	ENDS
;	COMDAT ??0?$vector@U__SECRETROOM_MONSTER@@V?$allocator@U__SECRETROOM_MONSTER@@@std@@@std@@QAE@XZ
_TEXT	SEGMENT PARA USE32 PUBLIC 'CODE'
_TEXT	ENDS
;	COMDAT ??1?$vector@U__SECRETROOM_MONSTER@@V?$allocator@U__SECRETROOM_MONSTER@@@std@@@std@@QAE@XZ
_TEXT	SEGMENT PARA USE32 PUBLIC 'CODE'
_TEXT	ENDS
;	COMDAT ??0?$vector@V?$basic_string@DU?$char_traits@D@std@@V?$allocator@D@2@@std@@V?$allocator@V?$basic_string@DU?$char_traits@D@std@@V?$allocator@D@2@@std@@@2@@std@@QAE@XZ
_TEXT	SEGMENT PARA USE32 PUBLIC 'CODE'
_TEXT	ENDS
;	COMDAT ??1?$vector@V?$basic_string@DU?$char_traits@D@std@@V?$allocator@D@2@@std@@V?$allocator@V?$basic_string@DU?$char_traits@D@std@@V?$allocator@D@2@@std@@@2@@std@@QAE@XZ
_TEXT	SEGMENT PARA USE32 PUBLIC 'CODE'
_TEXT	ENDS
;	COMDAT ?size@?$vector@V?$basic_string@DU?$char_traits@D@std@@V?$allocator@D@2@@std@@V?$allocator@V?$basic_string@DU?$char_traits@D@std@@V?$allocator@D@2@@std@@@2@@std@@QBEIXZ
_TEXT	SEGMENT PARA USE32 PUBLIC 'CODE'
_TEXT	ENDS
;	COMDAT ??A?$vector@V?$basic_string@DU?$char_traits@D@std@@V?$allocator@D@2@@std@@V?$allocator@V?$basic_string@DU?$char_traits@D@std@@V?$allocator@D@2@@std@@@2@@std@@QAEAAV?$basic_string@DU?$char_traits@D@std@@V?$allocator@D@2@@1@I@Z
_TEXT	SEGMENT PARA USE32 PUBLIC 'CODE'
_TEXT	ENDS
;	COMDAT ?push_back@?$vector@V?$basic_string@DU?$char_traits@D@std@@V?$allocator@D@2@@std@@V?$allocator@V?$basic_string@DU?$char_traits@D@std@@V?$allocator@D@2@@std@@@2@@std@@QAEXABV?$basic_string@DU?$char_traits@D@std@@V?$allocator@D@2@@2@@Z
_TEXT	SEGMENT PARA USE32 PUBLIC 'CODE'
_TEXT	ENDS
;	COMDAT ?clear@?$vector@V?$basic_string@DU?$char_traits@D@std@@V?$allocator@D@2@@std@@V?$allocator@V?$basic_string@DU?$char_traits@D@std@@V?$allocator@D@2@@std@@@2@@std@@QAEXXZ
_TEXT	SEGMENT PARA USE32 PUBLIC 'CODE'
_TEXT	ENDS
;	COMDAT ?push_back@?$vector@UMINIGMAME_PRIZE_LIST@CRainbowRaceMng@@V?$allocator@UMINIGMAME_PRIZE_LIST@CRainbowRaceMng@@@std@@@std@@QAEXABUMINIGMAME_PRIZE_LIST@CRainbowRaceMng@@@Z
_TEXT	SEGMENT PARA USE32 PUBLIC 'CODE'
_TEXT	ENDS
;	COMDAT ?size@?$_Tree@V?$_Tmap_traits@KPAVCRainbowRace@@U?$less@K@std@@V?$allocator@U?$pair@$$CBKPAVCRainbowRace@@@std@@@3@$0A@@std@@@std@@QBEIXZ
_TEXT	SEGMENT PARA USE32 PUBLIC 'CODE'
_TEXT	ENDS
;	COMDAT ?size@?$vector@PAVCMiniGameBase@@V?$allocator@PAVCMiniGameBase@@@std@@@std@@QBEIXZ
_TEXT	SEGMENT PARA USE32 PUBLIC 'CODE'
_TEXT	ENDS
;	COMDAT ??A?$vector@PAVCMiniGameBase@@V?$allocator@PAVCMiniGameBase@@@std@@@std@@QAEAAPAVCMiniGameBase@@I@Z
_TEXT	SEGMENT PARA USE32 PUBLIC 'CODE'
_TEXT	ENDS
;	COMDAT ?size@?$vector@UGuildHouse_Furniture_Info@CGuildHouseBase@@V?$allocator@UGuildHouse_Furniture_Info@CGuildHouseBase@@@std@@@std@@QBEIXZ
_TEXT	SEGMENT PARA USE32 PUBLIC 'CODE'
_TEXT	ENDS
;	COMDAT ??A?$vector@UGuildHouse_Furniture_Info@CGuildHouseBase@@V?$allocator@UGuildHouse_Furniture_Info@CGuildHouseBase@@@std@@@std@@QAEAAUGuildHouse_Furniture_Info@CGuildHouseBase@@I@Z
_TEXT	SEGMENT PARA USE32 PUBLIC 'CODE'
_TEXT	ENDS
;	COMDAT ?empty@?$_Tree@V?$_Tmap_traits@KPAVCGuildHouseBase@@U?$less@K@std@@V?$allocator@U?$pair@$$CBKPAVCGuildHouseBase@@@std@@@3@$0A@@std@@@std@@QBE_NXZ
_TEXT	SEGMENT PARA USE32 PUBLIC 'CODE'
_TEXT	ENDS
;	COMDAT ?insert@?$_Tree@V?$_Tmap_traits@KPAVCGuildHouseBase@@U?$less@K@std@@V?$allocator@U?$pair@$$CBKPAVCGuildHouseBase@@@std@@@3@$0A@@std@@@std@@QAE?AU?$pair@Viterator@?$_Tree@V?$_Tmap_traits@KPAVCGuildHouseBase@@U?$less@K@std@@V?$allocator@U?$pair@$$CBKPAVCGuildHouseBase@@@std@@@3@$0A@@std@@@std@@_N@2@ABU?$pair@$$CBKPAVCGuildHouseBase@@@2@@Z
_TEXT	SEGMENT PARA USE32 PUBLIC 'CODE'
_TEXT	ENDS
;	COMDAT ?size@?$_Tree@V?$_Tmap_traits@KPAVCCampusMember@@U?$less@K@std@@V?$allocator@U?$pair@$$CBKPAVCCampusMember@@@std@@@3@$0A@@std@@@std@@QBEIXZ
_TEXT	SEGMENT PARA USE32 PUBLIC 'CODE'
_TEXT	ENDS
;	COMDAT ?empty@?$_Tree@V?$_Tmap_traits@KPAVCCampus@@U?$less@K@std@@V?$allocator@U?$pair@$$CBKPAVCCampus@@@std@@@3@$0A@@std@@@std@@QBE_NXZ
_TEXT	SEGMENT PARA USE32 PUBLIC 'CODE'
_TEXT	ENDS
;	COMDAT ?erase@?$_Tree@V?$_Tmap_traits@KKU?$less@K@std@@V?$allocator@U?$pair@$$CBKK@std@@@2@$0A@@std@@@std@@QAEIABK@Z
_TEXT	SEGMENT PARA USE32 PUBLIC 'CODE'
_TEXT	ENDS
;	COMDAT ??0?$map@KPAVCClientSock@@U?$less@K@std@@V?$allocator@U?$pair@$$CBKPAVCClientSock@@@std@@@3@@std@@QAE@XZ
_TEXT	SEGMENT PARA USE32 PUBLIC 'CODE'
_TEXT	ENDS
;	COMDAT ??1?$_Tree@V?$_Tmap_traits@KPAVCClientSock@@U?$less@K@std@@V?$allocator@U?$pair@$$CBKPAVCClientSock@@@std@@@3@$0A@@std@@@std@@QAE@XZ
_TEXT	SEGMENT PARA USE32 PUBLIC 'CODE'
_TEXT	ENDS
;	COMDAT ?end@?$_Tree@V?$_Tmap_traits@KPAVCClientSock@@U?$less@K@std@@V?$allocator@U?$pair@$$CBKPAVCClientSock@@@std@@@3@$0A@@std@@@std@@QAE?AViterator@12@XZ
_TEXT	SEGMENT PARA USE32 PUBLIC 'CODE'
_TEXT	ENDS
;	COMDAT ?find@?$_Tree@V?$_Tmap_traits@KPAVCClientSock@@U?$less@K@std@@V?$allocator@U?$pair@$$CBKPAVCClientSock@@@std@@@3@$0A@@std@@@std@@QAE?AViterator@12@ABK@Z
_TEXT	SEGMENT PARA USE32 PUBLIC 'CODE'
_TEXT	ENDS
;	COMDAT ??Citerator@?$_Tree@V?$_Tmap_traits@KPAVCClientSock@@U?$less@K@std@@V?$allocator@U?$pair@$$CBKPAVCClientSock@@@std@@@3@$0A@@std@@@std@@QBEPAU?$pair@$$CBKPAVCClientSock@@@2@XZ
_TEXT	SEGMENT PARA USE32 PUBLIC 'CODE'
_TEXT	ENDS
;	COMDAT ??9const_iterator@?$_Tree@V?$_Tmap_traits@KPAVCClientSock@@U?$less@K@std@@V?$allocator@U?$pair@$$CBKPAVCClientSock@@@std@@@3@$0A@@std@@@std@@QBE_NABV012@@Z
_TEXT	SEGMENT PARA USE32 PUBLIC 'CODE'
_TEXT	ENDS
;	COMDAT ??0?$map@KPAVCClientSockE@@U?$less@K@std@@V?$allocator@U?$pair@$$CBKPAVCClientSockE@@@std@@@3@@std@@QAE@XZ
_TEXT	SEGMENT PARA USE32 PUBLIC 'CODE'
_TEXT	ENDS
;	COMDAT ??1?$_Tree@V?$_Tmap_traits@KPAVCClientSockE@@U?$less@K@std@@V?$allocator@U?$pair@$$CBKPAVCClientSockE@@@std@@@3@$0A@@std@@@std@@QAE@XZ
_TEXT	SEGMENT PARA USE32 PUBLIC 'CODE'
_TEXT	ENDS
;	COMDAT ?end@?$_Tree@V?$_Tmap_traits@KPAVCClientSockE@@U?$less@K@std@@V?$allocator@U?$pair@$$CBKPAVCClientSockE@@@std@@@3@$0A@@std@@@std@@QAE?AViterator@12@XZ
_TEXT	SEGMENT PARA USE32 PUBLIC 'CODE'
_TEXT	ENDS
;	COMDAT ?find@?$_Tree@V?$_Tmap_traits@KPAVCClientSockE@@U?$less@K@std@@V?$allocator@U?$pair@$$CBKPAVCClientSockE@@@std@@@3@$0A@@std@@@std@@QAE?AViterator@12@ABK@Z
_TEXT	SEGMENT PARA USE32 PUBLIC 'CODE'
_TEXT	ENDS
;	COMDAT ??Citerator@?$_Tree@V?$_Tmap_traits@KPAVCClientSockE@@U?$less@K@std@@V?$allocator@U?$pair@$$CBKPAVCClientSockE@@@std@@@3@$0A@@std@@@std@@QBEPAU?$pair@$$CBKPAVCClientSockE@@@2@XZ
_TEXT	SEGMENT PARA USE32 PUBLIC 'CODE'
_TEXT	ENDS
;	COMDAT ??9const_iterator@?$_Tree@V?$_Tmap_traits@KPAVCClientSockE@@U?$less@K@std@@V?$allocator@U?$pair@$$CBKPAVCClientSockE@@@std@@@3@$0A@@std@@@std@@QBE_NABV012@@Z
_TEXT	SEGMENT PARA USE32 PUBLIC 'CODE'
_TEXT	ENDS
;	COMDAT ?end@?$_Tree@V?$_Tmap_traits@KP8CDPCoreClient@@AEXAAVCAr@@KKK@ZU?$less@K@std@@V?$allocator@U?$pair@$$CBKP8CDPCoreClient@@AEXAAVCAr@@KKK@Z@std@@@4@$0A@@std@@@std@@QAE?AViterator@12@XZ
_TEXT	SEGMENT PARA USE32 PUBLIC 'CODE'
_TEXT	ENDS
;	COMDAT ?find@?$_Tree@V?$_Tmap_traits@KP8CDPCoreClient@@AEXAAVCAr@@KKK@ZU?$less@K@std@@V?$allocator@U?$pair@$$CBKP8CDPCoreClient@@AEXAAVCAr@@KKK@Z@std@@@4@$0A@@std@@@std@@QAE?AViterator@12@ABK@Z
_TEXT	SEGMENT PARA USE32 PUBLIC 'CODE'
_TEXT	ENDS
;	COMDAT ??Citerator@?$_Tree@V?$_Tmap_traits@KP8CDPCoreClient@@AEXAAVCAr@@KKK@ZU?$less@K@std@@V?$allocator@U?$pair@$$CBKP8CDPCoreClient@@AEXAAVCAr@@KKK@Z@std@@@4@$0A@@std@@@std@@QBEPAU?$pair@$$CBKP8CDPCoreClient@@AEXAAVCAr@@KKK@Z@2@XZ
_TEXT	SEGMENT PARA USE32 PUBLIC 'CODE'
_TEXT	ENDS
;	COMDAT ??9const_iterator@?$_Tree@V?$_Tmap_traits@KP8CDPCoreClient@@AEXAAVCAr@@KKK@ZU?$less@K@std@@V?$allocator@U?$pair@$$CBKP8CDPCoreClient@@AEXAAVCAr@@KKK@Z@std@@@4@$0A@@std@@@std@@QBE_NABV012@@Z
_TEXT	SEGMENT PARA USE32 PUBLIC 'CODE'
_TEXT	ENDS
;	COMDAT ??Diterator@?$vector@KV?$allocator@K@std@@@std@@QBEAAKXZ
_TEXT	SEGMENT PARA USE32 PUBLIC 'CODE'
_TEXT	ENDS
;	COMDAT ??Eiterator@?$vector@KV?$allocator@K@std@@@std@@QAE?AV012@H@Z
_TEXT	SEGMENT PARA USE32 PUBLIC 'CODE'
_TEXT	ENDS
;	COMDAT ??9const_iterator@?$vector@KV?$allocator@K@std@@@std@@QBE_NABV012@@Z
_TEXT	SEGMENT PARA USE32 PUBLIC 'CODE'
_TEXT	ENDS
;	COMDAT ?compare@?$basic_string@DU?$char_traits@D@std@@V?$allocator@D@2@@std@@QBEHIIPBDI@Z
_TEXT	SEGMENT PARA USE32 PUBLIC 'CODE'
_TEXT	ENDS
;	COMDAT ??0?$allocator@V?$basic_string@DU?$char_traits@D@std@@V?$allocator@D@2@@std@@@std@@QAE@XZ
_TEXT	SEGMENT PARA USE32 PUBLIC 'CODE'
_TEXT	ENDS
;	COMDAT ?insert@?$_Tree@V?$_Tmap_traits@KPAVCCtrl@@U?$less@K@std@@V?$allocator@U?$pair@$$CBKPAVCCtrl@@@std@@@3@$0A@@std@@@std@@QAE?AViterator@12@V312@ABU?$pair@$$CBKPAVCCtrl@@@2@@Z
_TEXT	SEGMENT PARA USE32 PUBLIC 'CODE'
_TEXT	ENDS
;	COMDAT ??0?$pair@$$CBKPAVCCtrl@@@std@@QAE@ABKABQAVCCtrl@@@Z
_TEXT	SEGMENT PARA USE32 PUBLIC 'CODE'
_TEXT	ENDS
;	COMDAT ?capacity@?$vector@KV?$allocator@K@std@@@std@@QBEIXZ
_TEXT	SEGMENT PARA USE32 PUBLIC 'CODE'
_TEXT	ENDS
;	COMDAT ?insert@?$vector@KV?$allocator@K@std@@@std@@QAE?AViterator@12@V312@ABK@Z
_TEXT	SEGMENT PARA USE32 PUBLIC 'CODE'
_TEXT	ENDS
;	COMDAT ?_Ufill@?$vector@KV?$allocator@K@std@@@std@@IAEPAKPAKIABK@Z
_TEXT	SEGMENT PARA USE32 PUBLIC 'CODE'
_TEXT	ENDS
;	COMDAT ?_Tidy@?$deque@PAUtagACTMSG@@V?$allocator@PAUtagACTMSG@@@std@@@std@@IAEXXZ
_TEXT	SEGMENT PARA USE32 PUBLIC 'CODE'
_TEXT	ENDS
;	COMDAT ??0?$_Deque_val@PAUtagACTMSG@@V?$allocator@PAUtagACTMSG@@@std@@@std@@IAE@V?$allocator@PAUtagACTMSG@@@1@@Z
_TEXT	SEGMENT PARA USE32 PUBLIC 'CODE'
_TEXT	ENDS
;	COMDAT ??0?$allocator@PAUtagACTMSG@@@std@@QAE@XZ
_TEXT	SEGMENT PARA USE32 PUBLIC 'CODE'
_TEXT	ENDS
;	COMDAT ?_Tidy@?$deque@PAUtagMAGICATKMSG@@V?$allocator@PAUtagMAGICATKMSG@@@std@@@std@@IAEXXZ
_TEXT	SEGMENT PARA USE32 PUBLIC 'CODE'
_TEXT	ENDS
;	COMDAT ??0?$_Deque_val@PAUtagMAGICATKMSG@@V?$allocator@PAUtagMAGICATKMSG@@@std@@@std@@IAE@V?$allocator@PAUtagMAGICATKMSG@@@1@@Z
_TEXT	SEGMENT PARA USE32 PUBLIC 'CODE'
_TEXT	ENDS
;	COMDAT ??0?$allocator@PAUtagMAGICATKMSG@@@std@@QAE@XZ
_TEXT	SEGMENT PARA USE32 PUBLIC 'CODE'
_TEXT	ENDS
;	COMDAT ??0iterator@?$deque@PAUtagACTMSG@@V?$allocator@PAUtagACTMSG@@@std@@@std@@QAE@IPBV12@@Z
_TEXT	SEGMENT PARA USE32 PUBLIC 'CODE'
_TEXT	ENDS
;	COMDAT ??Dconst_iterator@?$deque@PAUtagACTMSG@@V?$allocator@PAUtagACTMSG@@@std@@@std@@QBEABQAUtagACTMSG@@XZ
_TEXT	SEGMENT PARA USE32 PUBLIC 'CODE'
_TEXT	ENDS
;	COMDAT ??8const_iterator@?$deque@PAUtagACTMSG@@V?$allocator@PAUtagACTMSG@@@std@@@std@@QBE_NABV012@@Z
_TEXT	SEGMENT PARA USE32 PUBLIC 'CODE'
_TEXT	ENDS
;	COMDAT ??0iterator@?$deque@PAUtagMAGICATKMSG@@V?$allocator@PAUtagMAGICATKMSG@@@std@@@std@@QAE@IPBV12@@Z
_TEXT	SEGMENT PARA USE32 PUBLIC 'CODE'
_TEXT	ENDS
;	COMDAT ??Dconst_iterator@?$deque@PAUtagMAGICATKMSG@@V?$allocator@PAUtagMAGICATKMSG@@@std@@@std@@QBEABQAUtagMAGICATKMSG@@XZ
_TEXT	SEGMENT PARA USE32 PUBLIC 'CODE'
_TEXT	ENDS
;	COMDAT ??8const_iterator@?$deque@PAUtagMAGICATKMSG@@V?$allocator@PAUtagMAGICATKMSG@@@std@@@std@@QBE_NABV012@@Z
_TEXT	SEGMENT PARA USE32 PUBLIC 'CODE'
_TEXT	ENDS
;	COMDAT ?erase@?$_Tree@V?$_Tmap_traits@KU_Friend@@U?$less@K@std@@V?$allocator@U?$pair@$$CBKU_Friend@@@std@@@3@$0A@@std@@@std@@QAE?AViterator@12@V312@0@Z
_TEXT	SEGMENT PARA USE32 PUBLIC 'CODE'
_TEXT	ENDS
;	COMDAT ?equal_range@?$_Tree@V?$_Tmap_traits@KU_Friend@@U?$less@K@std@@V?$allocator@U?$pair@$$CBKU_Friend@@@std@@@3@$0A@@std@@@std@@QAE?AU?$pair@Viterator@?$_Tree@V?$_Tmap_traits@KU_Friend@@U?$less@K@std@@V?$allocator@U?$pair@$$CBKU_Friend@@@std@@@3@$0A@@std@@@std@@V123@@2@ABK@Z
_TEXT	SEGMENT PARA USE32 PUBLIC 'CODE'
_TEXT	ENDS
;	COMDAT ?begin@?$vector@PAU__JOINPLAYER@CGuildCombat@@V?$allocator@PAU__JOINPLAYER@CGuildCombat@@@std@@@std@@QAE?AViterator@12@XZ
_TEXT	SEGMENT PARA USE32 PUBLIC 'CODE'
_TEXT	ENDS
;	COMDAT ?_Tidy@?$vector@PAU__JOINPLAYER@CGuildCombat@@V?$allocator@PAU__JOINPLAYER@CGuildCombat@@@std@@@std@@IAEXXZ
_TEXT	SEGMENT PARA USE32 PUBLIC 'CODE'
_TEXT	ENDS
;	COMDAT ?_Nextnode@?$list@PAU__JOINPLAYER@CGuildCombat@@V?$allocator@PAU__JOINPLAYER@CGuildCombat@@@std@@@std@@KAAAPAU_Node@?$_List_nod@PAU__JOINPLAYER@CGuildCombat@@V?$allocator@PAU__JOINPLAYER@CGuildCombat@@@std@@@2@PAU342@@Z
_TEXT	SEGMENT PARA USE32 PUBLIC 'CODE'
_TEXT	ENDS
;	COMDAT ?_Prevnode@?$list@PAU__JOINPLAYER@CGuildCombat@@V?$allocator@PAU__JOINPLAYER@CGuildCombat@@@std@@@std@@KAAAPAU_Node@?$_List_nod@PAU__JOINPLAYER@CGuildCombat@@V?$allocator@PAU__JOINPLAYER@CGuildCombat@@@std@@@2@PAU342@@Z
_TEXT	SEGMENT PARA USE32 PUBLIC 'CODE'
_TEXT	ENDS
;	COMDAT ?deallocate@?$allocator@U_Node@?$_List_nod@PAU__JOINPLAYER@CGuildCombat@@V?$allocator@PAU__JOINPLAYER@CGuildCombat@@@std@@@std@@@std@@QAEXPAU_Node@?$_List_nod@PAU__JOINPLAYER@CGuildCombat@@V?$allocator@PAU__JOINPLAYER@CGuildCombat@@@std@@@2@I@Z
_TEXT	SEGMENT PARA USE32 PUBLIC 'CODE'
_TEXT	ENDS
;	COMDAT ?destroy@?$allocator@U_Node@?$_List_nod@PAU__JOINPLAYER@CGuildCombat@@V?$allocator@PAU__JOINPLAYER@CGuildCombat@@@std@@@std@@@std@@QAEXPAU_Node@?$_List_nod@PAU__JOINPLAYER@CGuildCombat@@V?$allocator@PAU__JOINPLAYER@CGuildCombat@@@std@@@2@@Z
_TEXT	SEGMENT PARA USE32 PUBLIC 'CODE'
_TEXT	ENDS
;	COMDAT ?_Buy@?$vector@U__SECRETROOM_MONSTER@@V?$allocator@U__SECRETROOM_MONSTER@@@std@@@std@@IAE_NI@Z
_TEXT	SEGMENT PARA USE32 PUBLIC 'CODE'
_TEXT	ENDS
;	COMDAT ?_Tidy@?$vector@U__SECRETROOM_MONSTER@@V?$allocator@U__SECRETROOM_MONSTER@@@std@@@std@@IAEXXZ
_TEXT	SEGMENT PARA USE32 PUBLIC 'CODE'
_TEXT	ENDS
;	COMDAT ??0?$_Vector_val@U__SECRETROOM_MONSTER@@V?$allocator@U__SECRETROOM_MONSTER@@@std@@@std@@IAE@V?$allocator@U__SECRETROOM_MONSTER@@@1@@Z
_TEXT	SEGMENT PARA USE32 PUBLIC 'CODE'
_TEXT	ENDS
;	COMDAT ??0?$allocator@U__SECRETROOM_MONSTER@@@std@@QAE@XZ
_TEXT	SEGMENT PARA USE32 PUBLIC 'CODE'
_TEXT	ENDS
;	COMDAT ?capacity@?$vector@V?$basic_string@DU?$char_traits@D@std@@V?$allocator@D@2@@std@@V?$allocator@V?$basic_string@DU?$char_traits@D@std@@V?$allocator@D@2@@std@@@2@@std@@QBEIXZ
_TEXT	SEGMENT PARA USE32 PUBLIC 'CODE'
_TEXT	ENDS
;	COMDAT ?begin@?$vector@V?$basic_string@DU?$char_traits@D@std@@V?$allocator@D@2@@std@@V?$allocator@V?$basic_string@DU?$char_traits@D@std@@V?$allocator@D@2@@std@@@2@@std@@QAE?AViterator@12@XZ
_TEXT	SEGMENT PARA USE32 PUBLIC 'CODE'
_TEXT	ENDS
;	COMDAT ?end@?$vector@V?$basic_string@DU?$char_traits@D@std@@V?$allocator@D@2@@std@@V?$allocator@V?$basic_string@DU?$char_traits@D@std@@V?$allocator@D@2@@std@@@2@@std@@QAE?AViterator@12@XZ
_TEXT	SEGMENT PARA USE32 PUBLIC 'CODE'
_TEXT	ENDS
;	COMDAT ?insert@?$vector@V?$basic_string@DU?$char_traits@D@std@@V?$allocator@D@2@@std@@V?$allocator@V?$basic_string@DU?$char_traits@D@std@@V?$allocator@D@2@@std@@@2@@std@@QAE?AViterator@12@V312@ABV?$basic_string@DU?$char_traits@D@std@@V?$allocator@D@2@@2@@Z
_TEXT	SEGMENT PARA USE32 PUBLIC 'CODE'
_TEXT	ENDS
;	COMDAT ?_Buy@?$vector@V?$basic_string@DU?$char_traits@D@std@@V?$allocator@D@2@@std@@V?$allocator@V?$basic_string@DU?$char_traits@D@std@@V?$allocator@D@2@@std@@@2@@std@@IAE_NI@Z
_TEXT	SEGMENT PARA USE32 PUBLIC 'CODE'
_TEXT	ENDS
;	COMDAT ?_Tidy@?$vector@V?$basic_string@DU?$char_traits@D@std@@V?$allocator@D@2@@std@@V?$allocator@V?$basic_string@DU?$char_traits@D@std@@V?$allocator@D@2@@std@@@2@@std@@IAEXXZ
_TEXT	SEGMENT PARA USE32 PUBLIC 'CODE'
_TEXT	ENDS
;	COMDAT ?_Ufill@?$vector@V?$basic_string@DU?$char_traits@D@std@@V?$allocator@D@2@@std@@V?$allocator@V?$basic_string@DU?$char_traits@D@std@@V?$allocator@D@2@@std@@@2@@std@@IAEPAV?$basic_string@DU?$char_traits@D@std@@V?$allocator@D@2@@2@PAV32@IABV32@@Z
_TEXT	SEGMENT PARA USE32 PUBLIC 'CODE'
_TEXT	ENDS
;	COMDAT ??0?$_Vector_val@V?$basic_string@DU?$char_traits@D@std@@V?$allocator@D@2@@std@@V?$allocator@V?$basic_string@DU?$char_traits@D@std@@V?$allocator@D@2@@std@@@2@@std@@IAE@V?$allocator@V?$basic_string@DU?$char_traits@D@std@@V?$allocator@D@2@@std@@@1@@Z
_TEXT	SEGMENT PARA USE32 PUBLIC 'CODE'
_TEXT	ENDS
;	COMDAT ?capacity@?$vector@UMINIGMAME_PRIZE_LIST@CRainbowRaceMng@@V?$allocator@UMINIGMAME_PRIZE_LIST@CRainbowRaceMng@@@std@@@std@@QBEIXZ
_TEXT	SEGMENT PARA USE32 PUBLIC 'CODE'
_TEXT	ENDS
;	COMDAT ?end@?$vector@UMINIGMAME_PRIZE_LIST@CRainbowRaceMng@@V?$allocator@UMINIGMAME_PRIZE_LIST@CRainbowRaceMng@@@std@@@std@@QAE?AViterator@12@XZ
_TEXT	SEGMENT PARA USE32 PUBLIC 'CODE'
_TEXT	ENDS
;	COMDAT ?size@?$vector@UMINIGMAME_PRIZE_LIST@CRainbowRaceMng@@V?$allocator@UMINIGMAME_PRIZE_LIST@CRainbowRaceMng@@@std@@@std@@QBEIXZ
_TEXT	SEGMENT PARA USE32 PUBLIC 'CODE'
_TEXT	ENDS
;	COMDAT ?insert@?$vector@UMINIGMAME_PRIZE_LIST@CRainbowRaceMng@@V?$allocator@UMINIGMAME_PRIZE_LIST@CRainbowRaceMng@@@std@@@std@@QAE?AViterator@12@V312@ABUMINIGMAME_PRIZE_LIST@CRainbowRaceMng@@@Z
_TEXT	SEGMENT PARA USE32 PUBLIC 'CODE'
_TEXT	ENDS
;	COMDAT ?_Ufill@?$vector@UMINIGMAME_PRIZE_LIST@CRainbowRaceMng@@V?$allocator@UMINIGMAME_PRIZE_LIST@CRainbowRaceMng@@@std@@@std@@IAEPAUMINIGMAME_PRIZE_LIST@CRainbowRaceMng@@PAU34@IABU34@@Z
_TEXT	SEGMENT PARA USE32 PUBLIC 'CODE'
_TEXT	ENDS
;	COMDAT ?begin@?$vector@PAVCMiniGameBase@@V?$allocator@PAVCMiniGameBase@@@std@@@std@@QAE?AViterator@12@XZ
_TEXT	SEGMENT PARA USE32 PUBLIC 'CODE'
_TEXT	ENDS
;	COMDAT ?begin@?$vector@UGuildHouse_Furniture_Info@CGuildHouseBase@@V?$allocator@UGuildHouse_Furniture_Info@CGuildHouseBase@@@std@@@std@@QAE?AViterator@12@XZ
_TEXT	SEGMENT PARA USE32 PUBLIC 'CODE'
_TEXT	ENDS
;	COMDAT ?_Isnil@?$_Tree@V?$_Tmap_traits@KPAVCGuildHouseBase@@U?$less@K@std@@V?$allocator@U?$pair@$$CBKPAVCGuildHouseBase@@@std@@@3@$0A@@std@@@std@@KAAADPAU_Node@?$_Tree_nod@V?$_Tmap_traits@KPAVCGuildHouseBase@@U?$less@K@std@@V?$allocator@U?$pair@$$CBKPAVCGuildHouseBase@@@std@@@3@$0A@@std@@@2@@Z
_TEXT	SEGMENT PARA USE32 PUBLIC 'CODE'
_TEXT	ENDS
;	COMDAT ?_Key@?$_Tree@V?$_Tmap_traits@KPAVCGuildHouseBase@@U?$less@K@std@@V?$allocator@U?$pair@$$CBKPAVCGuildHouseBase@@@std@@@3@$0A@@std@@@std@@KAABKPAU_Node@?$_Tree_nod@V?$_Tmap_traits@KPAVCGuildHouseBase@@U?$less@K@std@@V?$allocator@U?$pair@$$CBKPAVCGuildHouseBase@@@std@@@3@$0A@@std@@@2@@Z
_TEXT	SEGMENT PARA USE32 PUBLIC 'CODE'
_TEXT	ENDS
;	COMDAT ?_Left@?$_Tree@V?$_Tmap_traits@KPAVCGuildHouseBase@@U?$less@K@std@@V?$allocator@U?$pair@$$CBKPAVCGuildHouseBase@@@std@@@3@$0A@@std@@@std@@KAAAPAU_Node@?$_Tree_nod@V?$_Tmap_traits@KPAVCGuildHouseBase@@U?$less@K@std@@V?$allocator@U?$pair@$$CBKPAVCGuildHouseBase@@@std@@@3@$0A@@std@@@2@PAU342@@Z
_TEXT	SEGMENT PARA USE32 PUBLIC 'CODE'
_TEXT	ENDS
;	COMDAT ?_Right@?$_Tree@V?$_Tmap_traits@KPAVCGuildHouseBase@@U?$less@K@std@@V?$allocator@U?$pair@$$CBKPAVCGuildHouseBase@@@std@@@3@$0A@@std@@@std@@KAAAPAU_Node@?$_Tree_nod@V?$_Tmap_traits@KPAVCGuildHouseBase@@U?$less@K@std@@V?$allocator@U?$pair@$$CBKPAVCGuildHouseBase@@@std@@@3@$0A@@std@@@2@PAU342@@Z
_TEXT	SEGMENT PARA USE32 PUBLIC 'CODE'
_TEXT	ENDS
;	COMDAT ?begin@?$_Tree@V?$_Tmap_traits@KPAVCGuildHouseBase@@U?$less@K@std@@V?$allocator@U?$pair@$$CBKPAVCGuildHouseBase@@@std@@@3@$0A@@std@@@std@@QAE?AViterator@12@XZ
_TEXT	SEGMENT PARA USE32 PUBLIC 'CODE'
_TEXT	ENDS
;	COMDAT ?size@?$_Tree@V?$_Tmap_traits@KPAVCGuildHouseBase@@U?$less@K@std@@V?$allocator@U?$pair@$$CBKPAVCGuildHouseBase@@@std@@@3@$0A@@std@@@std@@QBEIXZ
_TEXT	SEGMENT PARA USE32 PUBLIC 'CODE'
_TEXT	ENDS
;	COMDAT ?_Insert@?$_Tree@V?$_Tmap_traits@KPAVCGuildHouseBase@@U?$less@K@std@@V?$allocator@U?$pair@$$CBKPAVCGuildHouseBase@@@std@@@3@$0A@@std@@@std@@IAE?AViterator@12@_NPAU_Node@?$_Tree_nod@V?$_Tmap_traits@KPAVCGuildHouseBase@@U?$less@K@std@@V?$allocator@U?$pair@$$CBKPAVCGuildHouseBase@@@std@@@3@$0A@@std@@@2@ABU?$pair@$$CBKPAVCGuildHouseBase@@@2@@Z
_TEXT	SEGMENT PARA USE32 PUBLIC 'CODE'
_TEXT	ENDS
;	COMDAT ?_Root@?$_Tree@V?$_Tmap_traits@KPAVCGuildHouseBase@@U?$less@K@std@@V?$allocator@U?$pair@$$CBKPAVCGuildHouseBase@@@std@@@3@$0A@@std@@@std@@IAEAAPAU_Node@?$_Tree_nod@V?$_Tmap_traits@KPAVCGuildHouseBase@@U?$less@K@std@@V?$allocator@U?$pair@$$CBKPAVCGuildHouseBase@@@std@@@3@$0A@@std@@@2@XZ
_TEXT	SEGMENT PARA USE32 PUBLIC 'CODE'
_TEXT	ENDS
;	COMDAT ?_Kfn@?$_Tmap_traits@KPAVCGuildHouseBase@@U?$less@K@std@@V?$allocator@U?$pair@$$CBKPAVCGuildHouseBase@@@std@@@3@$0A@@std@@SAABKABU?$pair@$$CBKPAVCGuildHouseBase@@@2@@Z
_TEXT	SEGMENT PARA USE32 PUBLIC 'CODE'
_TEXT	ENDS
;	COMDAT ??0?$pair@Viterator@?$_Tree@V?$_Tmap_traits@KPAVCGuildHouseBase@@U?$less@K@std@@V?$allocator@U?$pair@$$CBKPAVCGuildHouseBase@@@std@@@3@$0A@@std@@@std@@_N@std@@QAE@ABViterator@?$_Tree@V?$_Tmap_traits@KPAVCGuildHouseBase@@U?$less@K@std@@V?$allocator@U?$pair@$$CBKPAVCGuildHouseBase@@@std@@@3@$0A@@std@@@1@AB_N@Z
_TEXT	SEGMENT PARA USE32 PUBLIC 'CODE'
_TEXT	ENDS
;	COMDAT ??0iterator@?$_Tree@V?$_Tmap_traits@KPAVCGuildHouseBase@@U?$less@K@std@@V?$allocator@U?$pair@$$CBKPAVCGuildHouseBase@@@std@@@3@$0A@@std@@@std@@QAE@PAU_Node@?$_Tree_nod@V?$_Tmap_traits@KPAVCGuildHouseBase@@U?$less@K@std@@V?$allocator@U?$pair@$$CBKPAVCGuildHouseBase@@@std@@@3@$0A@@std@@@2@@Z
_TEXT	SEGMENT PARA USE32 PUBLIC 'CODE'
_TEXT	ENDS
;	COMDAT ??Fiterator@?$_Tree@V?$_Tmap_traits@KPAVCGuildHouseBase@@U?$less@K@std@@V?$allocator@U?$pair@$$CBKPAVCGuildHouseBase@@@std@@@3@$0A@@std@@@std@@QAEAAV012@XZ
_TEXT	SEGMENT PARA USE32 PUBLIC 'CODE'
_TEXT	ENDS
;	COMDAT ??8const_iterator@?$_Tree@V?$_Tmap_traits@KPAVCGuildHouseBase@@U?$less@K@std@@V?$allocator@U?$pair@$$CBKPAVCGuildHouseBase@@@std@@@3@$0A@@std@@@std@@QBE_NABV012@@Z
_TEXT	SEGMENT PARA USE32 PUBLIC 'CODE'
_TEXT	ENDS
;	COMDAT ?_Mynode@const_iterator@?$_Tree@V?$_Tmap_traits@KPAVCGuildHouseBase@@U?$less@K@std@@V?$allocator@U?$pair@$$CBKPAVCGuildHouseBase@@@std@@@3@$0A@@std@@@std@@QBEPAU_Node@?$_Tree_nod@V?$_Tmap_traits@KPAVCGuildHouseBase@@U?$less@K@std@@V?$allocator@U?$pair@$$CBKPAVCGuildHouseBase@@@std@@@3@$0A@@std@@@3@XZ
_TEXT	SEGMENT PARA USE32 PUBLIC 'CODE'
_TEXT	ENDS
;	COMDAT ?size@?$_Tree@V?$_Tmap_traits@KPAVCCampus@@U?$less@K@std@@V?$allocator@U?$pair@$$CBKPAVCCampus@@@std@@@3@$0A@@std@@@std@@QBEIXZ
_TEXT	SEGMENT PARA USE32 PUBLIC 'CODE'
_TEXT	ENDS
;	COMDAT ?erase@?$_Tree@V?$_Tmap_traits@KKU?$less@K@std@@V?$allocator@U?$pair@$$CBKK@std@@@2@$0A@@std@@@std@@QAE?AViterator@12@V312@0@Z
_TEXT	SEGMENT PARA USE32 PUBLIC 'CODE'
_TEXT	ENDS
;	COMDAT ?equal_range@?$_Tree@V?$_Tmap_traits@KKU?$less@K@std@@V?$allocator@U?$pair@$$CBKK@std@@@2@$0A@@std@@@std@@QAE?AU?$pair@Viterator@?$_Tree@V?$_Tmap_traits@KKU?$less@K@std@@V?$allocator@U?$pair@$$CBKK@std@@@2@$0A@@std@@@std@@V123@@2@ABK@Z
_TEXT	SEGMENT PARA USE32 PUBLIC 'CODE'
_TEXT	ENDS
;	COMDAT ?_Key@?$_Tree@V?$_Tmap_traits@KPAVCClientSock@@U?$less@K@std@@V?$allocator@U?$pair@$$CBKPAVCClientSock@@@std@@@3@$0A@@std@@@std@@KAABKPAU_Node@?$_Tree_nod@V?$_Tmap_traits@KPAVCClientSock@@U?$less@K@std@@V?$allocator@U?$pair@$$CBKPAVCClientSock@@@std@@@3@$0A@@std@@@2@@Z
_TEXT	SEGMENT PARA USE32 PUBLIC 'CODE'
_TEXT	ENDS
;	COMDAT ??0?$_Tree@V?$_Tmap_traits@KPAVCClientSock@@U?$less@K@std@@V?$allocator@U?$pair@$$CBKPAVCClientSock@@@std@@@3@$0A@@std@@@std@@QAE@ABU?$less@K@1@ABV?$allocator@U?$pair@$$CBKPAVCClientSock@@@std@@@1@@Z
_TEXT	SEGMENT PARA USE32 PUBLIC 'CODE'
_TEXT	ENDS
;	COMDAT ?lower_bound@?$_Tree@V?$_Tmap_traits@KPAVCClientSock@@U?$less@K@std@@V?$allocator@U?$pair@$$CBKPAVCClientSock@@@std@@@3@$0A@@std@@@std@@QAE?AViterator@12@ABK@Z
_TEXT	SEGMENT PARA USE32 PUBLIC 'CODE'
_TEXT	ENDS
;	COMDAT ?_Tidy@?$_Tree@V?$_Tmap_traits@KPAVCClientSock@@U?$less@K@std@@V?$allocator@U?$pair@$$CBKPAVCClientSock@@@std@@@3@$0A@@std@@@std@@IAEXXZ
_TEXT	SEGMENT PARA USE32 PUBLIC 'CODE'
_TEXT	ENDS
;	COMDAT ??0?$allocator@U?$pair@$$CBKPAVCClientSock@@@std@@@std@@QAE@XZ
_TEXT	SEGMENT PARA USE32 PUBLIC 'CODE'
_TEXT	ENDS
;	COMDAT ??0iterator@?$_Tree@V?$_Tmap_traits@KPAVCClientSock@@U?$less@K@std@@V?$allocator@U?$pair@$$CBKPAVCClientSock@@@std@@@3@$0A@@std@@@std@@QAE@PAU_Node@?$_Tree_nod@V?$_Tmap_traits@KPAVCClientSock@@U?$less@K@std@@V?$allocator@U?$pair@$$CBKPAVCClientSock@@@std@@@3@$0A@@std@@@2@@Z
_TEXT	SEGMENT PARA USE32 PUBLIC 'CODE'
_TEXT	ENDS
;	COMDAT ??Diterator@?$_Tree@V?$_Tmap_traits@KPAVCClientSock@@U?$less@K@std@@V?$allocator@U?$pair@$$CBKPAVCClientSock@@@std@@@3@$0A@@std@@@std@@QBEAAU?$pair@$$CBKPAVCClientSock@@@2@XZ
_TEXT	SEGMENT PARA USE32 PUBLIC 'CODE'
_TEXT	ENDS
;	COMDAT ??8const_iterator@?$_Tree@V?$_Tmap_traits@KPAVCClientSock@@U?$less@K@std@@V?$allocator@U?$pair@$$CBKPAVCClientSock@@@std@@@3@$0A@@std@@@std@@QBE_NABV012@@Z
_TEXT	SEGMENT PARA USE32 PUBLIC 'CODE'
_TEXT	ENDS
;	COMDAT ?_Mynode@const_iterator@?$_Tree@V?$_Tmap_traits@KPAVCClientSock@@U?$less@K@std@@V?$allocator@U?$pair@$$CBKPAVCClientSock@@@std@@@3@$0A@@std@@@std@@QBEPAU_Node@?$_Tree_nod@V?$_Tmap_traits@KPAVCClientSock@@U?$less@K@std@@V?$allocator@U?$pair@$$CBKPAVCClientSock@@@std@@@3@$0A@@std@@@3@XZ
_TEXT	SEGMENT PARA USE32 PUBLIC 'CODE'
_TEXT	ENDS
;	COMDAT ?_Key@?$_Tree@V?$_Tmap_traits@KPAVCClientSockE@@U?$less@K@std@@V?$allocator@U?$pair@$$CBKPAVCClientSockE@@@std@@@3@$0A@@std@@@std@@KAABKPAU_Node@?$_Tree_nod@V?$_Tmap_traits@KPAVCClientSockE@@U?$less@K@std@@V?$allocator@U?$pair@$$CBKPAVCClientSockE@@@std@@@3@$0A@@std@@@2@@Z
_TEXT	SEGMENT PARA USE32 PUBLIC 'CODE'
_TEXT	ENDS
;	COMDAT ??0?$_Tree@V?$_Tmap_traits@KPAVCClientSockE@@U?$less@K@std@@V?$allocator@U?$pair@$$CBKPAVCClientSockE@@@std@@@3@$0A@@std@@@std@@QAE@ABU?$less@K@1@ABV?$allocator@U?$pair@$$CBKPAVCClientSockE@@@std@@@1@@Z
_TEXT	SEGMENT PARA USE32 PUBLIC 'CODE'
_TEXT	ENDS
;	COMDAT ?lower_bound@?$_Tree@V?$_Tmap_traits@KPAVCClientSockE@@U?$less@K@std@@V?$allocator@U?$pair@$$CBKPAVCClientSockE@@@std@@@3@$0A@@std@@@std@@QAE?AViterator@12@ABK@Z
_TEXT	SEGMENT PARA USE32 PUBLIC 'CODE'
_TEXT	ENDS
;	COMDAT ?_Tidy@?$_Tree@V?$_Tmap_traits@KPAVCClientSockE@@U?$less@K@std@@V?$allocator@U?$pair@$$CBKPAVCClientSockE@@@std@@@3@$0A@@std@@@std@@IAEXXZ
_TEXT	SEGMENT PARA USE32 PUBLIC 'CODE'
_TEXT	ENDS
;	COMDAT ??0?$allocator@U?$pair@$$CBKPAVCClientSockE@@@std@@@std@@QAE@XZ
_TEXT	SEGMENT PARA USE32 PUBLIC 'CODE'
_TEXT	ENDS
;	COMDAT ??0iterator@?$_Tree@V?$_Tmap_traits@KPAVCClientSockE@@U?$less@K@std@@V?$allocator@U?$pair@$$CBKPAVCClientSockE@@@std@@@3@$0A@@std@@@std@@QAE@PAU_Node@?$_Tree_nod@V?$_Tmap_traits@KPAVCClientSockE@@U?$less@K@std@@V?$allocator@U?$pair@$$CBKPAVCClientSockE@@@std@@@3@$0A@@std@@@2@@Z
_TEXT	SEGMENT PARA USE32 PUBLIC 'CODE'
_TEXT	ENDS
;	COMDAT ??Diterator@?$_Tree@V?$_Tmap_traits@KPAVCClientSockE@@U?$less@K@std@@V?$allocator@U?$pair@$$CBKPAVCClientSockE@@@std@@@3@$0A@@std@@@std@@QBEAAU?$pair@$$CBKPAVCClientSockE@@@2@XZ
_TEXT	SEGMENT PARA USE32 PUBLIC 'CODE'
_TEXT	ENDS
;	COMDAT ??8const_iterator@?$_Tree@V?$_Tmap_traits@KPAVCClientSockE@@U?$less@K@std@@V?$allocator@U?$pair@$$CBKPAVCClientSockE@@@std@@@3@$0A@@std@@@std@@QBE_NABV012@@Z
_TEXT	SEGMENT PARA USE32 PUBLIC 'CODE'
_TEXT	ENDS
;	COMDAT ?_Mynode@const_iterator@?$_Tree@V?$_Tmap_traits@KPAVCClientSockE@@U?$less@K@std@@V?$allocator@U?$pair@$$CBKPAVCClientSockE@@@std@@@3@$0A@@std@@@std@@QBEPAU_Node@?$_Tree_nod@V?$_Tmap_traits@KPAVCClientSockE@@U?$less@K@std@@V?$allocator@U?$pair@$$CBKPAVCClientSockE@@@std@@@3@$0A@@std@@@3@XZ
_TEXT	SEGMENT PARA USE32 PUBLIC 'CODE'
_TEXT	ENDS
;	COMDAT ?_Key@?$_Tree@V?$_Tmap_traits@KP8CDPCoreClient@@AEXAAVCAr@@KKK@ZU?$less@K@std@@V?$allocator@U?$pair@$$CBKP8CDPCoreClient@@AEXAAVCAr@@KKK@Z@std@@@4@$0A@@std@@@std@@KAABKPAU_Node@?$_Tree_nod@V?$_Tmap_traits@KP8CDPCoreClient@@AEXAAVCAr@@KKK@ZU?$less@K@std@@V?$allocator@U?$pair@$$CBKP8CDPCoreClient@@AEXAAVCAr@@KKK@Z@std@@@4@$0A@@std@@@2@@Z
_TEXT	SEGMENT PARA USE32 PUBLIC 'CODE'
_TEXT	ENDS
;	COMDAT ?lower_bound@?$_Tree@V?$_Tmap_traits@KP8CDPCoreClient@@AEXAAVCAr@@KKK@ZU?$less@K@std@@V?$allocator@U?$pair@$$CBKP8CDPCoreClient@@AEXAAVCAr@@KKK@Z@std@@@4@$0A@@std@@@std@@QAE?AViterator@12@ABK@Z
_TEXT	SEGMENT PARA USE32 PUBLIC 'CODE'
_TEXT	ENDS
;	COMDAT ??0iterator@?$_Tree@V?$_Tmap_traits@KP8CDPCoreClient@@AEXAAVCAr@@KKK@ZU?$less@K@std@@V?$allocator@U?$pair@$$CBKP8CDPCoreClient@@AEXAAVCAr@@KKK@Z@std@@@4@$0A@@std@@@std@@QAE@PAU_Node@?$_Tree_nod@V?$_Tmap_traits@KP8CDPCoreClient@@AEXAAVCAr@@KKK@ZU?$less@K@std@@V?$allocator@U?$pair@$$CBKP8CDPCoreClient@@AEXAAVCAr@@KKK@Z@std@@@4@$0A@@std@@@2@@Z
_TEXT	SEGMENT PARA USE32 PUBLIC 'CODE'
_TEXT	ENDS
;	COMDAT ??Diterator@?$_Tree@V?$_Tmap_traits@KP8CDPCoreClient@@AEXAAVCAr@@KKK@ZU?$less@K@std@@V?$allocator@U?$pair@$$CBKP8CDPCoreClient@@AEXAAVCAr@@KKK@Z@std@@@4@$0A@@std@@@std@@QBEAAU?$pair@$$CBKP8CDPCoreClient@@AEXAAVCAr@@KKK@Z@2@XZ
_TEXT	SEGMENT PARA USE32 PUBLIC 'CODE'
_TEXT	ENDS
;	COMDAT ??8const_iterator@?$_Tree@V?$_Tmap_traits@KP8CDPCoreClient@@AEXAAVCAr@@KKK@ZU?$less@K@std@@V?$allocator@U?$pair@$$CBKP8CDPCoreClient@@AEXAAVCAr@@KKK@Z@std@@@4@$0A@@std@@@std@@QBE_NABV012@@Z
_TEXT	SEGMENT PARA USE32 PUBLIC 'CODE'
_TEXT	ENDS
;	COMDAT ?_Mynode@const_iterator@?$_Tree@V?$_Tmap_traits@KP8CDPCoreClient@@AEXAAVCAr@@KKK@ZU?$less@K@std@@V?$allocator@U?$pair@$$CBKP8CDPCoreClient@@AEXAAVCAr@@KKK@Z@std@@@4@$0A@@std@@@std@@QBEPAU_Node@?$_Tree_nod@V?$_Tmap_traits@KP8CDPCoreClient@@AEXAAVCAr@@KKK@ZU?$less@K@std@@V?$allocator@U?$pair@$$CBKP8CDPCoreClient@@AEXAAVCAr@@KKK@Z@std@@@4@$0A@@std@@@3@XZ
_TEXT	SEGMENT PARA USE32 PUBLIC 'CODE'
_TEXT	ENDS
;	COMDAT ??0iterator@?$vector@KV?$allocator@K@std@@@std@@QAE@PAK@Z
_TEXT	SEGMENT PARA USE32 PUBLIC 'CODE'
_TEXT	ENDS
;	COMDAT ??Eiterator@?$vector@KV?$allocator@K@std@@@std@@QAEAAV012@XZ
_TEXT	SEGMENT PARA USE32 PUBLIC 'CODE'
_TEXT	ENDS
;	COMDAT ??Dconst_iterator@?$vector@KV?$allocator@K@std@@@std@@QBEABKXZ
_TEXT	SEGMENT PARA USE32 PUBLIC 'CODE'
_TEXT	ENDS
;	COMDAT ??8const_iterator@?$vector@KV?$allocator@K@std@@@std@@QBE_NABV012@@Z
_TEXT	SEGMENT PARA USE32 PUBLIC 'CODE'
_TEXT	ENDS
;	COMDAT ??Diterator@?$vector@PAU__JOINPLAYER@CGuildCombat@@V?$allocator@PAU__JOINPLAYER@CGuildCombat@@@std@@@std@@QBEAAPAU__JOINPLAYER@CGuildCombat@@XZ
_TEXT	SEGMENT PARA USE32 PUBLIC 'CODE'
_TEXT	ENDS
;	COMDAT ??Hiterator@?$vector@PAU__JOINPLAYER@CGuildCombat@@V?$allocator@PAU__JOINPLAYER@CGuildCombat@@@std@@@std@@QBE?AV012@H@Z
_TEXT	SEGMENT PARA USE32 PUBLIC 'CODE'
_TEXT	ENDS
;	COMDAT ??Diterator@?$vector@V?$basic_string@DU?$char_traits@D@std@@V?$allocator@D@2@@std@@V?$allocator@V?$basic_string@DU?$char_traits@D@std@@V?$allocator@D@2@@std@@@2@@std@@QBEAAV?$basic_string@DU?$char_traits@D@std@@V?$allocator@D@2@@2@XZ
_TEXT	SEGMENT PARA USE32 PUBLIC 'CODE'
_TEXT	ENDS
;	COMDAT ??Hiterator@?$vector@V?$basic_string@DU?$char_traits@D@std@@V?$allocator@D@2@@std@@V?$allocator@V?$basic_string@DU?$char_traits@D@std@@V?$allocator@D@2@@std@@@2@@std@@QBE?AV012@H@Z
_TEXT	SEGMENT PARA USE32 PUBLIC 'CODE'
_TEXT	ENDS
;	COMDAT ??Diterator@?$vector@PAVCMiniGameBase@@V?$allocator@PAVCMiniGameBase@@@std@@@std@@QBEAAPAVCMiniGameBase@@XZ
_TEXT	SEGMENT PARA USE32 PUBLIC 'CODE'
_TEXT	ENDS
;	COMDAT ??Hiterator@?$vector@PAVCMiniGameBase@@V?$allocator@PAVCMiniGameBase@@@std@@@std@@QBE?AV012@H@Z
_TEXT	SEGMENT PARA USE32 PUBLIC 'CODE'
_TEXT	ENDS
;	COMDAT ??Diterator@?$vector@UGuildHouse_Furniture_Info@CGuildHouseBase@@V?$allocator@UGuildHouse_Furniture_Info@CGuildHouseBase@@@std@@@std@@QBEAAUGuildHouse_Furniture_Info@CGuildHouseBase@@XZ
_TEXT	SEGMENT PARA USE32 PUBLIC 'CODE'
_TEXT	ENDS
;	COMDAT ??Hiterator@?$vector@UGuildHouse_Furniture_Info@CGuildHouseBase@@V?$allocator@UGuildHouse_Furniture_Info@CGuildHouseBase@@@std@@@std@@QBE?AV012@H@Z
_TEXT	SEGMENT PARA USE32 PUBLIC 'CODE'
_TEXT	ENDS
;	COMDAT ??0?$allocator@V?$basic_string@DU?$char_traits@D@std@@V?$allocator@D@2@@std@@@std@@QAE@ABV01@@Z
_TEXT	SEGMENT PARA USE32 PUBLIC 'CODE'
_TEXT	ENDS
;	COMDAT ?deallocate@?$allocator@V?$basic_string@DU?$char_traits@D@std@@V?$allocator@D@2@@std@@@std@@QAEXPAV?$basic_string@DU?$char_traits@D@std@@V?$allocator@D@2@@2@I@Z
_TEXT	SEGMENT PARA USE32 PUBLIC 'CODE'
_TEXT	ENDS
;	COMDAT ?allocate@?$allocator@V?$basic_string@DU?$char_traits@D@std@@V?$allocator@D@2@@std@@@std@@QAEPAV?$basic_string@DU?$char_traits@D@std@@V?$allocator@D@2@@2@I@Z
_TEXT	SEGMENT PARA USE32 PUBLIC 'CODE'
_TEXT	ENDS
;	COMDAT ?size@?$_Tree@V?$_Tmap_traits@KPAVCCtrl@@U?$less@K@std@@V?$allocator@U?$pair@$$CBKPAVCCtrl@@@std@@@3@$0A@@std@@@std@@QBEIXZ
_TEXT	SEGMENT PARA USE32 PUBLIC 'CODE'
_TEXT	ENDS
;	COMDAT ??0iterator@?$_Tree@V?$_Tmap_traits@KPAVCCtrl@@U?$less@K@std@@V?$allocator@U?$pair@$$CBKPAVCCtrl@@@std@@@3@$0A@@std@@@std@@QAE@XZ
_TEXT	SEGMENT PARA USE32 PUBLIC 'CODE'
_TEXT	ENDS
;	COMDAT ?_Insert_n@?$vector@KV?$allocator@K@std@@@std@@IAEXViterator@12@IABK@Z
_TEXT	SEGMENT PARA USE32 PUBLIC 'CODE'
_TEXT	ENDS
;	COMDAT ?pop_back@?$deque@PAUtagACTMSG@@V?$allocator@PAUtagACTMSG@@@std@@@std@@QAEXXZ
_TEXT	SEGMENT PARA USE32 PUBLIC 'CODE'
_TEXT	ENDS
;	COMDAT ??0?$_Deque_map@PAUtagACTMSG@@V?$allocator@PAUtagACTMSG@@@std@@@std@@IAE@V?$allocator@PAUtagACTMSG@@@1@@Z
_TEXT	SEGMENT PARA USE32 PUBLIC 'CODE'
_TEXT	ENDS
;	COMDAT ??0?$allocator@PAUtagACTMSG@@@std@@QAE@ABV01@@Z
_TEXT	SEGMENT PARA USE32 PUBLIC 'CODE'
_TEXT	ENDS
;	COMDAT ?deallocate@?$allocator@PAUtagACTMSG@@@std@@QAEXPAPAUtagACTMSG@@I@Z
_TEXT	SEGMENT PARA USE32 PUBLIC 'CODE'
_TEXT	ENDS
;	COMDAT ?deallocate@?$allocator@PAPAUtagACTMSG@@@std@@QAEXPAPAPAUtagACTMSG@@I@Z
_TEXT	SEGMENT PARA USE32 PUBLIC 'CODE'
_TEXT	ENDS
;	COMDAT ?destroy@?$allocator@PAPAUtagACTMSG@@@std@@QAEXPAPAPAUtagACTMSG@@@Z
_TEXT	SEGMENT PARA USE32 PUBLIC 'CODE'
_TEXT	ENDS
;	COMDAT ?pop_back@?$deque@PAUtagMAGICATKMSG@@V?$allocator@PAUtagMAGICATKMSG@@@std@@@std@@QAEXXZ
_TEXT	SEGMENT PARA USE32 PUBLIC 'CODE'
_TEXT	ENDS
;	COMDAT ??0?$_Deque_map@PAUtagMAGICATKMSG@@V?$allocator@PAUtagMAGICATKMSG@@@std@@@std@@IAE@V?$allocator@PAUtagMAGICATKMSG@@@1@@Z
_TEXT	SEGMENT PARA USE32 PUBLIC 'CODE'
_TEXT	ENDS
;	COMDAT ??0?$allocator@PAUtagMAGICATKMSG@@@std@@QAE@ABV01@@Z
_TEXT	SEGMENT PARA USE32 PUBLIC 'CODE'
_TEXT	ENDS
;	COMDAT ?deallocate@?$allocator@PAUtagMAGICATKMSG@@@std@@QAEXPAPAUtagMAGICATKMSG@@I@Z
_TEXT	SEGMENT PARA USE32 PUBLIC 'CODE'
_TEXT	ENDS
;	COMDAT ?deallocate@?$allocator@PAPAUtagMAGICATKMSG@@@std@@QAEXPAPAPAUtagMAGICATKMSG@@I@Z
_TEXT	SEGMENT PARA USE32 PUBLIC 'CODE'
_TEXT	ENDS
;	COMDAT ?destroy@?$allocator@PAPAUtagMAGICATKMSG@@@std@@QAEXPAPAPAUtagMAGICATKMSG@@@Z
_TEXT	SEGMENT PARA USE32 PUBLIC 'CODE'
_TEXT	ENDS
;	COMDAT ??0const_iterator@?$deque@PAUtagACTMSG@@V?$allocator@PAUtagACTMSG@@@std@@@std@@QAE@IPBV12@@Z
_TEXT	SEGMENT PARA USE32 PUBLIC 'CODE'
_TEXT	ENDS
;	COMDAT ??0const_iterator@?$deque@PAUtagMAGICATKMSG@@V?$allocator@PAUtagMAGICATKMSG@@@std@@@std@@QAE@IPBV12@@Z
_TEXT	SEGMENT PARA USE32 PUBLIC 'CODE'
_TEXT	ENDS
;	COMDAT ?begin@?$_Tree@V?$_Tmap_traits@KU_Friend@@U?$less@K@std@@V?$allocator@U?$pair@$$CBKU_Friend@@@std@@@3@$0A@@std@@@std@@QAE?AViterator@12@XZ
_TEXT	SEGMENT PARA USE32 PUBLIC 'CODE'
_TEXT	ENDS
;	COMDAT ?end@?$_Tree@V?$_Tmap_traits@KU_Friend@@U?$less@K@std@@V?$allocator@U?$pair@$$CBKU_Friend@@@std@@@3@$0A@@std@@@std@@QAE?AViterator@12@XZ
_TEXT	SEGMENT PARA USE32 PUBLIC 'CODE'
_TEXT	ENDS
;	COMDAT ?erase@?$_Tree@V?$_Tmap_traits@KU_Friend@@U?$less@K@std@@V?$allocator@U?$pair@$$CBKU_Friend@@@std@@@3@$0A@@std@@@std@@QAE?AViterator@12@V312@@Z
_TEXT	SEGMENT PARA USE32 PUBLIC 'CODE'
_TEXT	ENDS
;	COMDAT ?clear@?$_Tree@V?$_Tmap_traits@KU_Friend@@U?$less@K@std@@V?$allocator@U?$pair@$$CBKU_Friend@@@std@@@3@$0A@@std@@@std@@QAEXXZ
_TEXT	SEGMENT PARA USE32 PUBLIC 'CODE'
_TEXT	ENDS
;	COMDAT ?lower_bound@?$_Tree@V?$_Tmap_traits@KU_Friend@@U?$less@K@std@@V?$allocator@U?$pair@$$CBKU_Friend@@@std@@@3@$0A@@std@@@std@@QAE?AViterator@12@ABK@Z
_TEXT	SEGMENT PARA USE32 PUBLIC 'CODE'
_TEXT	ENDS
;	COMDAT ?upper_bound@?$_Tree@V?$_Tmap_traits@KU_Friend@@U?$less@K@std@@V?$allocator@U?$pair@$$CBKU_Friend@@@std@@@3@$0A@@std@@@std@@QAE?AViterator@12@ABK@Z
_TEXT	SEGMENT PARA USE32 PUBLIC 'CODE'
_TEXT	ENDS
;	COMDAT ??Eiterator@?$_Tree@V?$_Tmap_traits@KU_Friend@@U?$less@K@std@@V?$allocator@U?$pair@$$CBKU_Friend@@@std@@@3@$0A@@std@@@std@@QAE?AV012@H@Z
_TEXT	SEGMENT PARA USE32 PUBLIC 'CODE'
_TEXT	ENDS
;	COMDAT ??8const_iterator@?$_Tree@V?$_Tmap_traits@KU_Friend@@U?$less@K@std@@V?$allocator@U?$pair@$$CBKU_Friend@@@std@@@3@$0A@@std@@@std@@QBE_NABV012@@Z
_TEXT	SEGMENT PARA USE32 PUBLIC 'CODE'
_TEXT	ENDS
;	COMDAT ??9const_iterator@?$_Tree@V?$_Tmap_traits@KU_Friend@@U?$less@K@std@@V?$allocator@U?$pair@$$CBKU_Friend@@@std@@@3@$0A@@std@@@std@@QBE_NABV012@@Z
_TEXT	SEGMENT PARA USE32 PUBLIC 'CODE'
_TEXT	ENDS
;	COMDAT ?_Destroy@?$vector@PAU__JOINPLAYER@CGuildCombat@@V?$allocator@PAU__JOINPLAYER@CGuildCombat@@@std@@@std@@IAEXPAPAU__JOINPLAYER@CGuildCombat@@0@Z
_TEXT	SEGMENT PARA USE32 PUBLIC 'CODE'
_TEXT	ENDS
;	COMDAT ?deallocate@?$allocator@PAU__JOINPLAYER@CGuildCombat@@@std@@QAEXPAPAU__JOINPLAYER@CGuildCombat@@I@Z
_TEXT	SEGMENT PARA USE32 PUBLIC 'CODE'
_TEXT	ENDS
;	COMDAT ?max_size@?$vector@U__SECRETROOM_MONSTER@@V?$allocator@U__SECRETROOM_MONSTER@@@std@@@std@@QBEIXZ
_TEXT	SEGMENT PARA USE32 PUBLIC 'CODE'
_TEXT	ENDS
;	COMDAT ?_Destroy@?$vector@U__SECRETROOM_MONSTER@@V?$allocator@U__SECRETROOM_MONSTER@@@std@@@std@@IAEXPAU__SECRETROOM_MONSTER@@0@Z
_TEXT	SEGMENT PARA USE32 PUBLIC 'CODE'
_TEXT	ENDS
;	COMDAT ?_Xlen@?$vector@U__SECRETROOM_MONSTER@@V?$allocator@U__SECRETROOM_MONSTER@@@std@@@std@@IBEXXZ
_TEXT	SEGMENT PARA USE32 PUBLIC 'CODE'
_TEXT	ENDS
;	COMDAT ??0?$allocator@U__SECRETROOM_MONSTER@@@std@@QAE@ABV01@@Z
_TEXT	SEGMENT PARA USE32 PUBLIC 'CODE'
_TEXT	ENDS
;	COMDAT ?deallocate@?$allocator@U__SECRETROOM_MONSTER@@@std@@QAEXPAU__SECRETROOM_MONSTER@@I@Z
_TEXT	SEGMENT PARA USE32 PUBLIC 'CODE'
_TEXT	ENDS
;	COMDAT ?allocate@?$allocator@U__SECRETROOM_MONSTER@@@std@@QAEPAU__SECRETROOM_MONSTER@@I@Z
_TEXT	SEGMENT PARA USE32 PUBLIC 'CODE'
_TEXT	ENDS
;	COMDAT ?max_size@?$vector@V?$basic_string@DU?$char_traits@D@std@@V?$allocator@D@2@@std@@V?$allocator@V?$basic_string@DU?$char_traits@D@std@@V?$allocator@D@2@@std@@@2@@std@@QBEIXZ
_TEXT	SEGMENT PARA USE32 PUBLIC 'CODE'
_TEXT	ENDS
;	COMDAT ?_Destroy@?$vector@V?$basic_string@DU?$char_traits@D@std@@V?$allocator@D@2@@std@@V?$allocator@V?$basic_string@DU?$char_traits@D@std@@V?$allocator@D@2@@std@@@2@@std@@IAEXPAV?$basic_string@DU?$char_traits@D@std@@V?$allocator@D@2@@2@0@Z
_TEXT	SEGMENT PARA USE32 PUBLIC 'CODE'
_TEXT	ENDS
;	COMDAT ?_Insert_n@?$vector@V?$basic_string@DU?$char_traits@D@std@@V?$allocator@D@2@@std@@V?$allocator@V?$basic_string@DU?$char_traits@D@std@@V?$allocator@D@2@@std@@@2@@std@@IAEXViterator@12@IABV?$basic_string@DU?$char_traits@D@std@@V?$allocator@D@2@@2@@Z
_TEXT	SEGMENT PARA USE32 PUBLIC 'CODE'
_TEXT	ENDS
;	COMDAT ?_Xlen@?$vector@V?$basic_string@DU?$char_traits@D@std@@V?$allocator@D@2@@std@@V?$allocator@V?$basic_string@DU?$char_traits@D@std@@V?$allocator@D@2@@std@@@2@@std@@IBEXXZ
_TEXT	SEGMENT PARA USE32 PUBLIC 'CODE'
_TEXT	ENDS
;	COMDAT ?begin@?$vector@UMINIGMAME_PRIZE_LIST@CRainbowRaceMng@@V?$allocator@UMINIGMAME_PRIZE_LIST@CRainbowRaceMng@@@std@@@std@@QAE?AViterator@12@XZ
_TEXT	SEGMENT PARA USE32 PUBLIC 'CODE'
_TEXT	ENDS
;	COMDAT ?_Insert_n@?$vector@UMINIGMAME_PRIZE_LIST@CRainbowRaceMng@@V?$allocator@UMINIGMAME_PRIZE_LIST@CRainbowRaceMng@@@std@@@std@@IAEXViterator@12@IABUMINIGMAME_PRIZE_LIST@CRainbowRaceMng@@@Z
_TEXT	SEGMENT PARA USE32 PUBLIC 'CODE'
_TEXT	ENDS
;	COMDAT ?_Color@?$_Tree@V?$_Tmap_traits@KPAVCGuildHouseBase@@U?$less@K@std@@V?$allocator@U?$pair@$$CBKPAVCGuildHouseBase@@@std@@@3@$0A@@std@@@std@@KAAADPAU_Node@?$_Tree_nod@V?$_Tmap_traits@KPAVCGuildHouseBase@@U?$less@K@std@@V?$allocator@U?$pair@$$CBKPAVCGuildHouseBase@@@std@@@3@$0A@@std@@@2@@Z
_TEXT	SEGMENT PARA USE32 PUBLIC 'CODE'
_TEXT	ENDS
;	COMDAT ?_Parent@?$_Tree@V?$_Tmap_traits@KPAVCGuildHouseBase@@U?$less@K@std@@V?$allocator@U?$pair@$$CBKPAVCGuildHouseBase@@@std@@@3@$0A@@std@@@std@@KAAAPAU_Node@?$_Tree_nod@V?$_Tmap_traits@KPAVCGuildHouseBase@@U?$less@K@std@@V?$allocator@U?$pair@$$CBKPAVCGuildHouseBase@@@std@@@3@$0A@@std@@@2@PAU342@@Z
_TEXT	SEGMENT PARA USE32 PUBLIC 'CODE'
_TEXT	ENDS
;	COMDAT ?_Myval@?$_Tree@V?$_Tmap_traits@KPAVCGuildHouseBase@@U?$less@K@std@@V?$allocator@U?$pair@$$CBKPAVCGuildHouseBase@@@std@@@3@$0A@@std@@@std@@KAAAU?$pair@$$CBKPAVCGuildHouseBase@@@2@PAU_Node@?$_Tree_nod@V?$_Tmap_traits@KPAVCGuildHouseBase@@U?$less@K@std@@V?$allocator@U?$pair@$$CBKPAVCGuildHouseBase@@@std@@@3@$0A@@std@@@2@@Z
_TEXT	SEGMENT PARA USE32 PUBLIC 'CODE'
_TEXT	ENDS
;	COMDAT ?max_size@?$_Tree@V?$_Tmap_traits@KPAVCGuildHouseBase@@U?$less@K@std@@V?$allocator@U?$pair@$$CBKPAVCGuildHouseBase@@@std@@@3@$0A@@std@@@std@@QBEIXZ
_TEXT	SEGMENT PARA USE32 PUBLIC 'CODE'
_TEXT	ENDS
;	COMDAT ?_Lmost@?$_Tree@V?$_Tmap_traits@KPAVCGuildHouseBase@@U?$less@K@std@@V?$allocator@U?$pair@$$CBKPAVCGuildHouseBase@@@std@@@3@$0A@@std@@@std@@IAEAAPAU_Node@?$_Tree_nod@V?$_Tmap_traits@KPAVCGuildHouseBase@@U?$less@K@std@@V?$allocator@U?$pair@$$CBKPAVCGuildHouseBase@@@std@@@3@$0A@@std@@@2@XZ
_TEXT	SEGMENT PARA USE32 PUBLIC 'CODE'
_TEXT	ENDS
;	COMDAT ?_Lrotate@?$_Tree@V?$_Tmap_traits@KPAVCGuildHouseBase@@U?$less@K@std@@V?$allocator@U?$pair@$$CBKPAVCGuildHouseBase@@@std@@@3@$0A@@std@@@std@@IAEXPAU_Node@?$_Tree_nod@V?$_Tmap_traits@KPAVCGuildHouseBase@@U?$less@K@std@@V?$allocator@U?$pair@$$CBKPAVCGuildHouseBase@@@std@@@3@$0A@@std@@@2@@Z
_TEXT	SEGMENT PARA USE32 PUBLIC 'CODE'
_TEXT	ENDS
;	COMDAT ?_Rmost@?$_Tree@V?$_Tmap_traits@KPAVCGuildHouseBase@@U?$less@K@std@@V?$allocator@U?$pair@$$CBKPAVCGuildHouseBase@@@std@@@3@$0A@@std@@@std@@IAEAAPAU_Node@?$_Tree_nod@V?$_Tmap_traits@KPAVCGuildHouseBase@@U?$less@K@std@@V?$allocator@U?$pair@$$CBKPAVCGuildHouseBase@@@std@@@3@$0A@@std@@@2@XZ
_TEXT	SEGMENT PARA USE32 PUBLIC 'CODE'
_TEXT	ENDS
;	COMDAT ?_Rrotate@?$_Tree@V?$_Tmap_traits@KPAVCGuildHouseBase@@U?$less@K@std@@V?$allocator@U?$pair@$$CBKPAVCGuildHouseBase@@@std@@@3@$0A@@std@@@std@@IAEXPAU_Node@?$_Tree_nod@V?$_Tmap_traits@KPAVCGuildHouseBase@@U?$less@K@std@@V?$allocator@U?$pair@$$CBKPAVCGuildHouseBase@@@std@@@3@$0A@@std@@@2@@Z
_TEXT	SEGMENT PARA USE32 PUBLIC 'CODE'
_TEXT	ENDS
;	COMDAT ?_Buynode@?$_Tree@V?$_Tmap_traits@KPAVCGuildHouseBase@@U?$less@K@std@@V?$allocator@U?$pair@$$CBKPAVCGuildHouseBase@@@std@@@3@$0A@@std@@@std@@IAEPAU_Node@?$_Tree_nod@V?$_Tmap_traits@KPAVCGuildHouseBase@@U?$less@K@std@@V?$allocator@U?$pair@$$CBKPAVCGuildHouseBase@@@std@@@3@$0A@@std@@@2@PAU342@00ABU?$pair@$$CBKPAVCGuildHouseBase@@@2@D@Z
_TEXT	SEGMENT PARA USE32 PUBLIC 'CODE'
_TEXT	ENDS
;	COMDAT ??0const_iterator@?$_Tree@V?$_Tmap_traits@KPAVCGuildHouseBase@@U?$less@K@std@@V?$allocator@U?$pair@$$CBKPAVCGuildHouseBase@@@std@@@3@$0A@@std@@@std@@QAE@PAU_Node@?$_Tree_nod@V?$_Tmap_traits@KPAVCGuildHouseBase@@U?$less@K@std@@V?$allocator@U?$pair@$$CBKPAVCGuildHouseBase@@@std@@@3@$0A@@std@@@2@@Z
_TEXT	SEGMENT PARA USE32 PUBLIC 'CODE'
_TEXT	ENDS
;	COMDAT ??Fconst_iterator@?$_Tree@V?$_Tmap_traits@KPAVCGuildHouseBase@@U?$less@K@std@@V?$allocator@U?$pair@$$CBKPAVCGuildHouseBase@@@std@@@3@$0A@@std@@@std@@QAEAAV012@XZ
_TEXT	SEGMENT PARA USE32 PUBLIC 'CODE'
_TEXT	ENDS
;	COMDAT ?begin@?$_Tree@V?$_Tmap_traits@KKU?$less@K@std@@V?$allocator@U?$pair@$$CBKK@std@@@2@$0A@@std@@@std@@QAE?AViterator@12@XZ
_TEXT	SEGMENT PARA USE32 PUBLIC 'CODE'
_TEXT	ENDS
;	COMDAT ?end@?$_Tree@V?$_Tmap_traits@KKU?$less@K@std@@V?$allocator@U?$pair@$$CBKK@std@@@2@$0A@@std@@@std@@QAE?AViterator@12@XZ
_TEXT	SEGMENT PARA USE32 PUBLIC 'CODE'
_TEXT	ENDS
;	COMDAT ?erase@?$_Tree@V?$_Tmap_traits@KKU?$less@K@std@@V?$allocator@U?$pair@$$CBKK@std@@@2@$0A@@std@@@std@@QAE?AViterator@12@V312@@Z
_TEXT	SEGMENT PARA USE32 PUBLIC 'CODE'
_TEXT	ENDS
;	COMDAT ?clear@?$_Tree@V?$_Tmap_traits@KKU?$less@K@std@@V?$allocator@U?$pair@$$CBKK@std@@@2@$0A@@std@@@std@@QAEXXZ
_TEXT	SEGMENT PARA USE32 PUBLIC 'CODE'
_TEXT	ENDS
;	COMDAT ?lower_bound@?$_Tree@V?$_Tmap_traits@KKU?$less@K@std@@V?$allocator@U?$pair@$$CBKK@std@@@2@$0A@@std@@@std@@QAE?AViterator@12@ABK@Z
_TEXT	SEGMENT PARA USE32 PUBLIC 'CODE'
_TEXT	ENDS
;	COMDAT ?upper_bound@?$_Tree@V?$_Tmap_traits@KKU?$less@K@std@@V?$allocator@U?$pair@$$CBKK@std@@@2@$0A@@std@@@std@@QAE?AViterator@12@ABK@Z
_TEXT	SEGMENT PARA USE32 PUBLIC 'CODE'
_TEXT	ENDS
;	COMDAT ??Eiterator@?$_Tree@V?$_Tmap_traits@KKU?$less@K@std@@V?$allocator@U?$pair@$$CBKK@std@@@2@$0A@@std@@@std@@QAE?AV012@H@Z
_TEXT	SEGMENT PARA USE32 PUBLIC 'CODE'
_TEXT	ENDS
;	COMDAT ??8const_iterator@?$_Tree@V?$_Tmap_traits@KKU?$less@K@std@@V?$allocator@U?$pair@$$CBKK@std@@@2@$0A@@std@@@std@@QBE_NABV012@@Z
_TEXT	SEGMENT PARA USE32 PUBLIC 'CODE'
_TEXT	ENDS
;	COMDAT ??9const_iterator@?$_Tree@V?$_Tmap_traits@KKU?$less@K@std@@V?$allocator@U?$pair@$$CBKK@std@@@2@$0A@@std@@@std@@QBE_NABV012@@Z
_TEXT	SEGMENT PARA USE32 PUBLIC 'CODE'
_TEXT	ENDS
;	COMDAT ?_Left@?$_Tree@V?$_Tmap_traits@KPAVCClientSock@@U?$less@K@std@@V?$allocator@U?$pair@$$CBKPAVCClientSock@@@std@@@3@$0A@@std@@@std@@KAAAPAU_Node@?$_Tree_nod@V?$_Tmap_traits@KPAVCClientSock@@U?$less@K@std@@V?$allocator@U?$pair@$$CBKPAVCClientSock@@@std@@@3@$0A@@std@@@2@PAU342@@Z
_TEXT	SEGMENT PARA USE32 PUBLIC 'CODE'
_TEXT	ENDS
;	COMDAT ?_Parent@?$_Tree@V?$_Tmap_traits@KPAVCClientSock@@U?$less@K@std@@V?$allocator@U?$pair@$$CBKPAVCClientSock@@@std@@@3@$0A@@std@@@std@@KAAAPAU_Node@?$_Tree_nod@V?$_Tmap_traits@KPAVCClientSock@@U?$less@K@std@@V?$allocator@U?$pair@$$CBKPAVCClientSock@@@std@@@3@$0A@@std@@@2@PAU342@@Z
_TEXT	SEGMENT PARA USE32 PUBLIC 'CODE'
_TEXT	ENDS
;	COMDAT ?_Right@?$_Tree@V?$_Tmap_traits@KPAVCClientSock@@U?$less@K@std@@V?$allocator@U?$pair@$$CBKPAVCClientSock@@@std@@@3@$0A@@std@@@std@@KAAAPAU_Node@?$_Tree_nod@V?$_Tmap_traits@KPAVCClientSock@@U?$less@K@std@@V?$allocator@U?$pair@$$CBKPAVCClientSock@@@std@@@3@$0A@@std@@@2@PAU342@@Z
_TEXT	SEGMENT PARA USE32 PUBLIC 'CODE'
_TEXT	ENDS
;	COMDAT ?_Myval@?$_Tree@V?$_Tmap_traits@KPAVCClientSock@@U?$less@K@std@@V?$allocator@U?$pair@$$CBKPAVCClientSock@@@std@@@3@$0A@@std@@@std@@KAAAU?$pair@$$CBKPAVCClientSock@@@2@PAU_Node@?$_Tree_nod@V?$_Tmap_traits@KPAVCClientSock@@U?$less@K@std@@V?$allocator@U?$pair@$$CBKPAVCClientSock@@@std@@@3@$0A@@std@@@2@@Z
_TEXT	SEGMENT PARA USE32 PUBLIC 'CODE'
_TEXT	ENDS
;	COMDAT ?begin@?$_Tree@V?$_Tmap_traits@KPAVCClientSock@@U?$less@K@std@@V?$allocator@U?$pair@$$CBKPAVCClientSock@@@std@@@3@$0A@@std@@@std@@QAE?AViterator@12@XZ
_TEXT	SEGMENT PARA USE32 PUBLIC 'CODE'
_TEXT	ENDS
;	COMDAT ?erase@?$_Tree@V?$_Tmap_traits@KPAVCClientSock@@U?$less@K@std@@V?$allocator@U?$pair@$$CBKPAVCClientSock@@@std@@@3@$0A@@std@@@std@@QAE?AViterator@12@V312@0@Z
_TEXT	SEGMENT PARA USE32 PUBLIC 'CODE'
_TEXT	ENDS
;	COMDAT ?_Init@?$_Tree@V?$_Tmap_traits@KPAVCClientSock@@U?$less@K@std@@V?$allocator@U?$pair@$$CBKPAVCClientSock@@@std@@@3@$0A@@std@@@std@@IAEXXZ
_TEXT	SEGMENT PARA USE32 PUBLIC 'CODE'
_TEXT	ENDS
;	COMDAT ?_Lbound@?$_Tree@V?$_Tmap_traits@KPAVCClientSock@@U?$less@K@std@@V?$allocator@U?$pair@$$CBKPAVCClientSock@@@std@@@3@$0A@@std@@@std@@IBEPAU_Node@?$_Tree_nod@V?$_Tmap_traits@KPAVCClientSock@@U?$less@K@std@@V?$allocator@U?$pair@$$CBKPAVCClientSock@@@std@@@3@$0A@@std@@@2@ABK@Z
_TEXT	SEGMENT PARA USE32 PUBLIC 'CODE'
_TEXT	ENDS
;	COMDAT ??0?$_Tree_val@V?$_Tmap_traits@KPAVCClientSock@@U?$less@K@std@@V?$allocator@U?$pair@$$CBKPAVCClientSock@@@std@@@3@$0A@@std@@@std@@IAE@ABU?$less@K@1@V?$allocator@U?$pair@$$CBKPAVCClientSock@@@std@@@1@@Z
_TEXT	SEGMENT PARA USE32 PUBLIC 'CODE'
_TEXT	ENDS
;	COMDAT ?_Kfn@?$_Tmap_traits@KPAVCClientSock@@U?$less@K@std@@V?$allocator@U?$pair@$$CBKPAVCClientSock@@@std@@@3@$0A@@std@@SAABKABU?$pair@$$CBKPAVCClientSock@@@2@@Z
_TEXT	SEGMENT PARA USE32 PUBLIC 'CODE'
_TEXT	ENDS
;	COMDAT ??0?$allocator@U?$pair@$$CBKPAVCClientSock@@@std@@@std@@QAE@ABV01@@Z
_TEXT	SEGMENT PARA USE32 PUBLIC 'CODE'
_TEXT	ENDS
;	COMDAT ?deallocate@?$allocator@U_Node@?$_Tree_nod@V?$_Tmap_traits@KPAVCClientSock@@U?$less@K@std@@V?$allocator@U?$pair@$$CBKPAVCClientSock@@@std@@@3@$0A@@std@@@std@@@std@@QAEXPAU_Node@?$_Tree_nod@V?$_Tmap_traits@KPAVCClientSock@@U?$less@K@std@@V?$allocator@U?$pair@$$CBKPAVCClientSock@@@std@@@3@$0A@@std@@@2@I@Z
_TEXT	SEGMENT PARA USE32 PUBLIC 'CODE'
_TEXT	ENDS
;	COMDAT ?destroy@?$allocator@PAU_Node@?$_Tree_nod@V?$_Tmap_traits@KPAVCClientSock@@U?$less@K@std@@V?$allocator@U?$pair@$$CBKPAVCClientSock@@@std@@@3@$0A@@std@@@std@@@std@@QAEXPAPAU_Node@?$_Tree_nod@V?$_Tmap_traits@KPAVCClientSock@@U?$less@K@std@@V?$allocator@U?$pair@$$CBKPAVCClientSock@@@std@@@3@$0A@@std@@@2@@Z
_TEXT	SEGMENT PARA USE32 PUBLIC 'CODE'
_TEXT	ENDS
;	COMDAT ??0const_iterator@?$_Tree@V?$_Tmap_traits@KPAVCClientSock@@U?$less@K@std@@V?$allocator@U?$pair@$$CBKPAVCClientSock@@@std@@@3@$0A@@std@@@std@@QAE@PAU_Node@?$_Tree_nod@V?$_Tmap_traits@KPAVCClientSock@@U?$less@K@std@@V?$allocator@U?$pair@$$CBKPAVCClientSock@@@std@@@3@$0A@@std@@@2@@Z
_TEXT	SEGMENT PARA USE32 PUBLIC 'CODE'
_TEXT	ENDS
;	COMDAT ??Dconst_iterator@?$_Tree@V?$_Tmap_traits@KPAVCClientSock@@U?$less@K@std@@V?$allocator@U?$pair@$$CBKPAVCClientSock@@@std@@@3@$0A@@std@@@std@@QBEABU?$pair@$$CBKPAVCClientSock@@@2@XZ
_TEXT	SEGMENT PARA USE32 PUBLIC 'CODE'
_TEXT	ENDS
;	COMDAT ?_Left@?$_Tree@V?$_Tmap_traits@KPAVCClientSockE@@U?$less@K@std@@V?$allocator@U?$pair@$$CBKPAVCClientSockE@@@std@@@3@$0A@@std@@@std@@KAAAPAU_Node@?$_Tree_nod@V?$_Tmap_traits@KPAVCClientSockE@@U?$less@K@std@@V?$allocator@U?$pair@$$CBKPAVCClientSockE@@@std@@@3@$0A@@std@@@2@PAU342@@Z
_TEXT	SEGMENT PARA USE32 PUBLIC 'CODE'
_TEXT	ENDS
;	COMDAT ?_Parent@?$_Tree@V?$_Tmap_traits@KPAVCClientSockE@@U?$less@K@std@@V?$allocator@U?$pair@$$CBKPAVCClientSockE@@@std@@@3@$0A@@std@@@std@@KAAAPAU_Node@?$_Tree_nod@V?$_Tmap_traits@KPAVCClientSockE@@U?$less@K@std@@V?$allocator@U?$pair@$$CBKPAVCClientSockE@@@std@@@3@$0A@@std@@@2@PAU342@@Z
_TEXT	SEGMENT PARA USE32 PUBLIC 'CODE'
_TEXT	ENDS
;	COMDAT ?_Right@?$_Tree@V?$_Tmap_traits@KPAVCClientSockE@@U?$less@K@std@@V?$allocator@U?$pair@$$CBKPAVCClientSockE@@@std@@@3@$0A@@std@@@std@@KAAAPAU_Node@?$_Tree_nod@V?$_Tmap_traits@KPAVCClientSockE@@U?$less@K@std@@V?$allocator@U?$pair@$$CBKPAVCClientSockE@@@std@@@3@$0A@@std@@@2@PAU342@@Z
_TEXT	SEGMENT PARA USE32 PUBLIC 'CODE'
_TEXT	ENDS
;	COMDAT ?_Myval@?$_Tree@V?$_Tmap_traits@KPAVCClientSockE@@U?$less@K@std@@V?$allocator@U?$pair@$$CBKPAVCClientSockE@@@std@@@3@$0A@@std@@@std@@KAAAU?$pair@$$CBKPAVCClientSockE@@@2@PAU_Node@?$_Tree_nod@V?$_Tmap_traits@KPAVCClientSockE@@U?$less@K@std@@V?$allocator@U?$pair@$$CBKPAVCClientSockE@@@std@@@3@$0A@@std@@@2@@Z
_TEXT	SEGMENT PARA USE32 PUBLIC 'CODE'
_TEXT	ENDS
;	COMDAT ?begin@?$_Tree@V?$_Tmap_traits@KPAVCClientSockE@@U?$less@K@std@@V?$allocator@U?$pair@$$CBKPAVCClientSockE@@@std@@@3@$0A@@std@@@std@@QAE?AViterator@12@XZ
_TEXT	SEGMENT PARA USE32 PUBLIC 'CODE'
_TEXT	ENDS
;	COMDAT ?erase@?$_Tree@V?$_Tmap_traits@KPAVCClientSockE@@U?$less@K@std@@V?$allocator@U?$pair@$$CBKPAVCClientSockE@@@std@@@3@$0A@@std@@@std@@QAE?AViterator@12@V312@0@Z
_TEXT	SEGMENT PARA USE32 PUBLIC 'CODE'
_TEXT	ENDS
;	COMDAT ?_Init@?$_Tree@V?$_Tmap_traits@KPAVCClientSockE@@U?$less@K@std@@V?$allocator@U?$pair@$$CBKPAVCClientSockE@@@std@@@3@$0A@@std@@@std@@IAEXXZ
_TEXT	SEGMENT PARA USE32 PUBLIC 'CODE'
_TEXT	ENDS
;	COMDAT ?_Lbound@?$_Tree@V?$_Tmap_traits@KPAVCClientSockE@@U?$less@K@std@@V?$allocator@U?$pair@$$CBKPAVCClientSockE@@@std@@@3@$0A@@std@@@std@@IBEPAU_Node@?$_Tree_nod@V?$_Tmap_traits@KPAVCClientSockE@@U?$less@K@std@@V?$allocator@U?$pair@$$CBKPAVCClientSockE@@@std@@@3@$0A@@std@@@2@ABK@Z
_TEXT	SEGMENT PARA USE32 PUBLIC 'CODE'
_TEXT	ENDS
;	COMDAT ??0?$_Tree_val@V?$_Tmap_traits@KPAVCClientSockE@@U?$less@K@std@@V?$allocator@U?$pair@$$CBKPAVCClientSockE@@@std@@@3@$0A@@std@@@std@@IAE@ABU?$less@K@1@V?$allocator@U?$pair@$$CBKPAVCClientSockE@@@std@@@1@@Z
_TEXT	SEGMENT PARA USE32 PUBLIC 'CODE'
_TEXT	ENDS
;	COMDAT ?_Kfn@?$_Tmap_traits@KPAVCClientSockE@@U?$less@K@std@@V?$allocator@U?$pair@$$CBKPAVCClientSockE@@@std@@@3@$0A@@std@@SAABKABU?$pair@$$CBKPAVCClientSockE@@@2@@Z
_TEXT	SEGMENT PARA USE32 PUBLIC 'CODE'
_TEXT	ENDS
;	COMDAT ??0?$allocator@U?$pair@$$CBKPAVCClientSockE@@@std@@@std@@QAE@ABV01@@Z
_TEXT	SEGMENT PARA USE32 PUBLIC 'CODE'
_TEXT	ENDS
;	COMDAT ?deallocate@?$allocator@U_Node@?$_Tree_nod@V?$_Tmap_traits@KPAVCClientSockE@@U?$less@K@std@@V?$allocator@U?$pair@$$CBKPAVCClientSockE@@@std@@@3@$0A@@std@@@std@@@std@@QAEXPAU_Node@?$_Tree_nod@V?$_Tmap_traits@KPAVCClientSockE@@U?$less@K@std@@V?$allocator@U?$pair@$$CBKPAVCClientSockE@@@std@@@3@$0A@@std@@@2@I@Z
_TEXT	SEGMENT PARA USE32 PUBLIC 'CODE'
_TEXT	ENDS
;	COMDAT ?destroy@?$allocator@PAU_Node@?$_Tree_nod@V?$_Tmap_traits@KPAVCClientSockE@@U?$less@K@std@@V?$allocator@U?$pair@$$CBKPAVCClientSockE@@@std@@@3@$0A@@std@@@std@@@std@@QAEXPAPAU_Node@?$_Tree_nod@V?$_Tmap_traits@KPAVCClientSockE@@U?$less@K@std@@V?$allocator@U?$pair@$$CBKPAVCClientSockE@@@std@@@3@$0A@@std@@@2@@Z
_TEXT	SEGMENT PARA USE32 PUBLIC 'CODE'
_TEXT	ENDS
;	COMDAT ??0const_iterator@?$_Tree@V?$_Tmap_traits@KPAVCClientSockE@@U?$less@K@std@@V?$allocator@U?$pair@$$CBKPAVCClientSockE@@@std@@@3@$0A@@std@@@std@@QAE@PAU_Node@?$_Tree_nod@V?$_Tmap_traits@KPAVCClientSockE@@U?$less@K@std@@V?$allocator@U?$pair@$$CBKPAVCClientSockE@@@std@@@3@$0A@@std@@@2@@Z
_TEXT	SEGMENT PARA USE32 PUBLIC 'CODE'
_TEXT	ENDS
;	COMDAT ??Dconst_iterator@?$_Tree@V?$_Tmap_traits@KPAVCClientSockE@@U?$less@K@std@@V?$allocator@U?$pair@$$CBKPAVCClientSockE@@@std@@@3@$0A@@std@@@std@@QBEABU?$pair@$$CBKPAVCClientSockE@@@2@XZ
_TEXT	SEGMENT PARA USE32 PUBLIC 'CODE'
_TEXT	ENDS
;	COMDAT ?_Myval@?$_Tree@V?$_Tmap_traits@KP8CDPCoreClient@@AEXAAVCAr@@KKK@ZU?$less@K@std@@V?$allocator@U?$pair@$$CBKP8CDPCoreClient@@AEXAAVCAr@@KKK@Z@std@@@4@$0A@@std@@@std@@KAAAU?$pair@$$CBKP8CDPCoreClient@@AEXAAVCAr@@KKK@Z@2@PAU_Node@?$_Tree_nod@V?$_Tmap_traits@KP8CDPCoreClient@@AEXAAVCAr@@KKK@ZU?$less@K@std@@V?$allocator@U?$pair@$$CBKP8CDPCoreClient@@AEXAAVCAr@@KKK@Z@std@@@4@$0A@@std@@@2@@Z
_TEXT	SEGMENT PARA USE32 PUBLIC 'CODE'
_TEXT	ENDS
;	COMDAT ?_Lbound@?$_Tree@V?$_Tmap_traits@KP8CDPCoreClient@@AEXAAVCAr@@KKK@ZU?$less@K@std@@V?$allocator@U?$pair@$$CBKP8CDPCoreClient@@AEXAAVCAr@@KKK@Z@std@@@4@$0A@@std@@@std@@IBEPAU_Node@?$_Tree_nod@V?$_Tmap_traits@KP8CDPCoreClient@@AEXAAVCAr@@KKK@ZU?$less@K@std@@V?$allocator@U?$pair@$$CBKP8CDPCoreClient@@AEXAAVCAr@@KKK@Z@std@@@4@$0A@@std@@@2@ABK@Z
_TEXT	SEGMENT PARA USE32 PUBLIC 'CODE'
_TEXT	ENDS
;	COMDAT ?_Kfn@?$_Tmap_traits@KP8CDPCoreClient@@AEXAAVCAr@@KKK@ZU?$less@K@std@@V?$allocator@U?$pair@$$CBKP8CDPCoreClient@@AEXAAVCAr@@KKK@Z@std@@@4@$0A@@std@@SAABKABU?$pair@$$CBKP8CDPCoreClient@@AEXAAVCAr@@KKK@Z@2@@Z
_TEXT	SEGMENT PARA USE32 PUBLIC 'CODE'
_TEXT	ENDS
;	COMDAT ??0const_iterator@?$_Tree@V?$_Tmap_traits@KP8CDPCoreClient@@AEXAAVCAr@@KKK@ZU?$less@K@std@@V?$allocator@U?$pair@$$CBKP8CDPCoreClient@@AEXAAVCAr@@KKK@Z@std@@@4@$0A@@std@@@std@@QAE@PAU_Node@?$_Tree_nod@V?$_Tmap_traits@KP8CDPCoreClient@@AEXAAVCAr@@KKK@ZU?$less@K@std@@V?$allocator@U?$pair@$$CBKP8CDPCoreClient@@AEXAAVCAr@@KKK@Z@std@@@4@$0A@@std@@@2@@Z
_TEXT	SEGMENT PARA USE32 PUBLIC 'CODE'
_TEXT	ENDS
;	COMDAT ??Dconst_iterator@?$_Tree@V?$_Tmap_traits@KP8CDPCoreClient@@AEXAAVCAr@@KKK@ZU?$less@K@std@@V?$allocator@U?$pair@$$CBKP8CDPCoreClient@@AEXAAVCAr@@KKK@Z@std@@@4@$0A@@std@@@std@@QBEABU?$pair@$$CBKP8CDPCoreClient@@AEXAAVCAr@@KKK@Z@2@XZ
_TEXT	SEGMENT PARA USE32 PUBLIC 'CODE'
_TEXT	ENDS
;	COMDAT ??Hiterator@?$vector@KV?$allocator@K@std@@@std@@QBE?AV012@H@Z
_TEXT	SEGMENT PARA USE32 PUBLIC 'CODE'
_TEXT	ENDS
;	COMDAT ??Giterator@?$vector@KV?$allocator@K@std@@@std@@QBEHABVconst_iterator@12@@Z
_TEXT	SEGMENT PARA USE32 PUBLIC 'CODE'
_TEXT	ENDS
;	COMDAT ??0const_iterator@?$vector@KV?$allocator@K@std@@@std@@QAE@PAK@Z
_TEXT	SEGMENT PARA USE32 PUBLIC 'CODE'
_TEXT	ENDS
;	COMDAT ??0?$pair@Viterator@?$_Tree@V?$_Tmap_traits@KU_Friend@@U?$less@K@std@@V?$allocator@U?$pair@$$CBKU_Friend@@@std@@@3@$0A@@std@@@std@@V123@@std@@QAE@ABViterator@?$_Tree@V?$_Tmap_traits@KU_Friend@@U?$less@K@std@@V?$allocator@U?$pair@$$CBKU_Friend@@@std@@@3@$0A@@std@@@1@0@Z
_TEXT	SEGMENT PARA USE32 PUBLIC 'CODE'
_TEXT	ENDS
;	COMDAT ??0iterator@?$vector@PAU__JOINPLAYER@CGuildCombat@@V?$allocator@PAU__JOINPLAYER@CGuildCombat@@@std@@@std@@QAE@PAPAU__JOINPLAYER@CGuildCombat@@@Z
_TEXT	SEGMENT PARA USE32 PUBLIC 'CODE'
_TEXT	ENDS
;	COMDAT ??Yiterator@?$vector@PAU__JOINPLAYER@CGuildCombat@@V?$allocator@PAU__JOINPLAYER@CGuildCombat@@@std@@@std@@QAEAAV012@H@Z
_TEXT	SEGMENT PARA USE32 PUBLIC 'CODE'
_TEXT	ENDS
;	COMDAT ??Dconst_iterator@?$vector@PAU__JOINPLAYER@CGuildCombat@@V?$allocator@PAU__JOINPLAYER@CGuildCombat@@@std@@@std@@QBEABQAU__JOINPLAYER@CGuildCombat@@XZ
_TEXT	SEGMENT PARA USE32 PUBLIC 'CODE'
_TEXT	ENDS
;	COMDAT ??0iterator@?$vector@V?$basic_string@DU?$char_traits@D@std@@V?$allocator@D@2@@std@@V?$allocator@V?$basic_string@DU?$char_traits@D@std@@V?$allocator@D@2@@std@@@2@@std@@QAE@PAV?$basic_string@DU?$char_traits@D@std@@V?$allocator@D@2@@2@@Z
_TEXT	SEGMENT PARA USE32 PUBLIC 'CODE'
_TEXT	ENDS
;	COMDAT ??Yiterator@?$vector@V?$basic_string@DU?$char_traits@D@std@@V?$allocator@D@2@@std@@V?$allocator@V?$basic_string@DU?$char_traits@D@std@@V?$allocator@D@2@@std@@@2@@std@@QAEAAV012@H@Z
_TEXT	SEGMENT PARA USE32 PUBLIC 'CODE'
_TEXT	ENDS
;	COMDAT ??Giterator@?$vector@V?$basic_string@DU?$char_traits@D@std@@V?$allocator@D@2@@std@@V?$allocator@V?$basic_string@DU?$char_traits@D@std@@V?$allocator@D@2@@std@@@2@@std@@QBEHABVconst_iterator@12@@Z
_TEXT	SEGMENT PARA USE32 PUBLIC 'CODE'
_TEXT	ENDS
;	COMDAT ??Dconst_iterator@?$vector@V?$basic_string@DU?$char_traits@D@std@@V?$allocator@D@2@@std@@V?$allocator@V?$basic_string@DU?$char_traits@D@std@@V?$allocator@D@2@@std@@@2@@std@@QBEABV?$basic_string@DU?$char_traits@D@std@@V?$allocator@D@2@@2@XZ
_TEXT	SEGMENT PARA USE32 PUBLIC 'CODE'
_TEXT	ENDS
;	COMDAT ??0iterator@?$vector@UMINIGMAME_PRIZE_LIST@CRainbowRaceMng@@V?$allocator@UMINIGMAME_PRIZE_LIST@CRainbowRaceMng@@@std@@@std@@QAE@PAUMINIGMAME_PRIZE_LIST@CRainbowRaceMng@@@Z
_TEXT	SEGMENT PARA USE32 PUBLIC 'CODE'
_TEXT	ENDS
;	COMDAT ??Hiterator@?$vector@UMINIGMAME_PRIZE_LIST@CRainbowRaceMng@@V?$allocator@UMINIGMAME_PRIZE_LIST@CRainbowRaceMng@@@std@@@std@@QBE?AV012@H@Z
_TEXT	SEGMENT PARA USE32 PUBLIC 'CODE'
_TEXT	ENDS
;	COMDAT ??Giterator@?$vector@UMINIGMAME_PRIZE_LIST@CRainbowRaceMng@@V?$allocator@UMINIGMAME_PRIZE_LIST@CRainbowRaceMng@@@std@@@std@@QBEHABVconst_iterator@12@@Z
_TEXT	SEGMENT PARA USE32 PUBLIC 'CODE'
_TEXT	ENDS
;	COMDAT ??0iterator@?$vector@PAVCMiniGameBase@@V?$allocator@PAVCMiniGameBase@@@std@@@std@@QAE@PAPAVCMiniGameBase@@@Z
_TEXT	SEGMENT PARA USE32 PUBLIC 'CODE'
_TEXT	ENDS
;	COMDAT ??Yiterator@?$vector@PAVCMiniGameBase@@V?$allocator@PAVCMiniGameBase@@@std@@@std@@QAEAAV012@H@Z
_TEXT	SEGMENT PARA USE32 PUBLIC 'CODE'
_TEXT	ENDS
;	COMDAT ??Dconst_iterator@?$vector@PAVCMiniGameBase@@V?$allocator@PAVCMiniGameBase@@@std@@@std@@QBEABQAVCMiniGameBase@@XZ
_TEXT	SEGMENT PARA USE32 PUBLIC 'CODE'
_TEXT	ENDS
;	COMDAT ??0iterator@?$vector@UGuildHouse_Furniture_Info@CGuildHouseBase@@V?$allocator@UGuildHouse_Furniture_Info@CGuildHouseBase@@@std@@@std@@QAE@PAUGuildHouse_Furniture_Info@CGuildHouseBase@@@Z
_TEXT	SEGMENT PARA USE32 PUBLIC 'CODE'
_TEXT	ENDS
;	COMDAT ??Yiterator@?$vector@UGuildHouse_Furniture_Info@CGuildHouseBase@@V?$allocator@UGuildHouse_Furniture_Info@CGuildHouseBase@@@std@@@std@@QAEAAV012@H@Z
_TEXT	SEGMENT PARA USE32 PUBLIC 'CODE'
_TEXT	ENDS
;	COMDAT ??Dconst_iterator@?$vector@UGuildHouse_Furniture_Info@CGuildHouseBase@@V?$allocator@UGuildHouse_Furniture_Info@CGuildHouseBase@@@std@@@std@@QBEABUGuildHouse_Furniture_Info@CGuildHouseBase@@XZ
_TEXT	SEGMENT PARA USE32 PUBLIC 'CODE'
_TEXT	ENDS
;	COMDAT ??0?$pair@Viterator@?$_Tree@V?$_Tmap_traits@KKU?$less@K@std@@V?$allocator@U?$pair@$$CBKK@std@@@2@$0A@@std@@@std@@V123@@std@@QAE@ABViterator@?$_Tree@V?$_Tmap_traits@KKU?$less@K@std@@V?$allocator@U?$pair@$$CBKK@std@@@2@$0A@@std@@@1@0@Z
_TEXT	SEGMENT PARA USE32 PUBLIC 'CODE'
_TEXT	ENDS
;	COMDAT ?max_size@?$allocator@V?$basic_string@DU?$char_traits@D@std@@V?$allocator@D@2@@std@@@std@@QBEIXZ
_TEXT	SEGMENT PARA USE32 PUBLIC 'CODE'
_TEXT	ENDS
;	COMDAT ??0const_iterator@?$_Tree@V?$_Tmap_traits@KPAVCCtrl@@U?$less@K@std@@V?$allocator@U?$pair@$$CBKPAVCCtrl@@@std@@@3@$0A@@std@@@std@@QAE@XZ
_TEXT	SEGMENT PARA USE32 PUBLIC 'CODE'
_TEXT	ENDS
;	COMDAT ?destroy@?$allocator@PAUtagACTMSG@@@std@@QAEXPAPAUtagACTMSG@@@Z
_TEXT	SEGMENT PARA USE32 PUBLIC 'CODE'
_TEXT	ENDS
;	COMDAT ?destroy@?$allocator@PAUtagMAGICATKMSG@@@std@@QAEXPAPAUtagMAGICATKMSG@@@Z
_TEXT	SEGMENT PARA USE32 PUBLIC 'CODE'
_TEXT	ENDS
;	COMDAT ?_Color@?$_Tree@V?$_Tmap_traits@KU_Friend@@U?$less@K@std@@V?$allocator@U?$pair@$$CBKU_Friend@@@std@@@3@$0A@@std@@@std@@KAAADPAU_Node@?$_Tree_nod@V?$_Tmap_traits@KU_Friend@@U?$less@K@std@@V?$allocator@U?$pair@$$CBKU_Friend@@@std@@@3@$0A@@std@@@2@@Z
_TEXT	SEGMENT PARA USE32 PUBLIC 'CODE'
_TEXT	ENDS
;	COMDAT ?_Isnil@?$_Tree@V?$_Tmap_traits@KU_Friend@@U?$less@K@std@@V?$allocator@U?$pair@$$CBKU_Friend@@@std@@@3@$0A@@std@@@std@@KAAADPAU_Node@?$_Tree_nod@V?$_Tmap_traits@KU_Friend@@U?$less@K@std@@V?$allocator@U?$pair@$$CBKU_Friend@@@std@@@3@$0A@@std@@@2@@Z
_TEXT	SEGMENT PARA USE32 PUBLIC 'CODE'
_TEXT	ENDS
;	COMDAT ?_Left@?$_Tree@V?$_Tmap_traits@KU_Friend@@U?$less@K@std@@V?$allocator@U?$pair@$$CBKU_Friend@@@std@@@3@$0A@@std@@@std@@KAAAPAU_Node@?$_Tree_nod@V?$_Tmap_traits@KU_Friend@@U?$less@K@std@@V?$allocator@U?$pair@$$CBKU_Friend@@@std@@@3@$0A@@std@@@2@PAU342@@Z
_TEXT	SEGMENT PARA USE32 PUBLIC 'CODE'
_TEXT	ENDS
;	COMDAT ?_Parent@?$_Tree@V?$_Tmap_traits@KU_Friend@@U?$less@K@std@@V?$allocator@U?$pair@$$CBKU_Friend@@@std@@@3@$0A@@std@@@std@@KAAAPAU_Node@?$_Tree_nod@V?$_Tmap_traits@KU_Friend@@U?$less@K@std@@V?$allocator@U?$pair@$$CBKU_Friend@@@std@@@3@$0A@@std@@@2@PAU342@@Z
_TEXT	SEGMENT PARA USE32 PUBLIC 'CODE'
_TEXT	ENDS
;	COMDAT ?_Right@?$_Tree@V?$_Tmap_traits@KU_Friend@@U?$less@K@std@@V?$allocator@U?$pair@$$CBKU_Friend@@@std@@@3@$0A@@std@@@std@@KAAAPAU_Node@?$_Tree_nod@V?$_Tmap_traits@KU_Friend@@U?$less@K@std@@V?$allocator@U?$pair@$$CBKU_Friend@@@std@@@3@$0A@@std@@@2@PAU342@@Z
_TEXT	SEGMENT PARA USE32 PUBLIC 'CODE'
_TEXT	ENDS
;	COMDAT ?_Erase@?$_Tree@V?$_Tmap_traits@KU_Friend@@U?$less@K@std@@V?$allocator@U?$pair@$$CBKU_Friend@@@std@@@3@$0A@@std@@@std@@IAEXPAU_Node@?$_Tree_nod@V?$_Tmap_traits@KU_Friend@@U?$less@K@std@@V?$allocator@U?$pair@$$CBKU_Friend@@@std@@@3@$0A@@std@@@2@@Z
_TEXT	SEGMENT PARA USE32 PUBLIC 'CODE'
_TEXT	ENDS
;	COMDAT ?_Lbound@?$_Tree@V?$_Tmap_traits@KU_Friend@@U?$less@K@std@@V?$allocator@U?$pair@$$CBKU_Friend@@@std@@@3@$0A@@std@@@std@@IBEPAU_Node@?$_Tree_nod@V?$_Tmap_traits@KU_Friend@@U?$less@K@std@@V?$allocator@U?$pair@$$CBKU_Friend@@@std@@@3@$0A@@std@@@2@ABK@Z
_TEXT	SEGMENT PARA USE32 PUBLIC 'CODE'
_TEXT	ENDS
;	COMDAT ?_Lmost@?$_Tree@V?$_Tmap_traits@KU_Friend@@U?$less@K@std@@V?$allocator@U?$pair@$$CBKU_Friend@@@std@@@3@$0A@@std@@@std@@IAEAAPAU_Node@?$_Tree_nod@V?$_Tmap_traits@KU_Friend@@U?$less@K@std@@V?$allocator@U?$pair@$$CBKU_Friend@@@std@@@3@$0A@@std@@@2@XZ
_TEXT	SEGMENT PARA USE32 PUBLIC 'CODE'
_TEXT	ENDS
;	COMDAT ?_Lrotate@?$_Tree@V?$_Tmap_traits@KU_Friend@@U?$less@K@std@@V?$allocator@U?$pair@$$CBKU_Friend@@@std@@@3@$0A@@std@@@std@@IAEXPAU_Node@?$_Tree_nod@V?$_Tmap_traits@KU_Friend@@U?$less@K@std@@V?$allocator@U?$pair@$$CBKU_Friend@@@std@@@3@$0A@@std@@@2@@Z
_TEXT	SEGMENT PARA USE32 PUBLIC 'CODE'
_TEXT	ENDS
;	COMDAT ?_Max@?$_Tree@V?$_Tmap_traits@KU_Friend@@U?$less@K@std@@V?$allocator@U?$pair@$$CBKU_Friend@@@std@@@3@$0A@@std@@@std@@KAPAU_Node@?$_Tree_nod@V?$_Tmap_traits@KU_Friend@@U?$less@K@std@@V?$allocator@U?$pair@$$CBKU_Friend@@@std@@@3@$0A@@std@@@2@PAU342@@Z
_TEXT	SEGMENT PARA USE32 PUBLIC 'CODE'
_TEXT	ENDS
;	COMDAT ?_Min@?$_Tree@V?$_Tmap_traits@KU_Friend@@U?$less@K@std@@V?$allocator@U?$pair@$$CBKU_Friend@@@std@@@3@$0A@@std@@@std@@KAPAU_Node@?$_Tree_nod@V?$_Tmap_traits@KU_Friend@@U?$less@K@std@@V?$allocator@U?$pair@$$CBKU_Friend@@@std@@@3@$0A@@std@@@2@PAU342@@Z
_TEXT	SEGMENT PARA USE32 PUBLIC 'CODE'
_TEXT	ENDS
;	COMDAT ?_Rmost@?$_Tree@V?$_Tmap_traits@KU_Friend@@U?$less@K@std@@V?$allocator@U?$pair@$$CBKU_Friend@@@std@@@3@$0A@@std@@@std@@IAEAAPAU_Node@?$_Tree_nod@V?$_Tmap_traits@KU_Friend@@U?$less@K@std@@V?$allocator@U?$pair@$$CBKU_Friend@@@std@@@3@$0A@@std@@@2@XZ
_TEXT	SEGMENT PARA USE32 PUBLIC 'CODE'
_TEXT	ENDS
;	COMDAT ?_Root@?$_Tree@V?$_Tmap_traits@KU_Friend@@U?$less@K@std@@V?$allocator@U?$pair@$$CBKU_Friend@@@std@@@3@$0A@@std@@@std@@IAEAAPAU_Node@?$_Tree_nod@V?$_Tmap_traits@KU_Friend@@U?$less@K@std@@V?$allocator@U?$pair@$$CBKU_Friend@@@std@@@3@$0A@@std@@@2@XZ
_TEXT	SEGMENT PARA USE32 PUBLIC 'CODE'
_TEXT	ENDS
;	COMDAT ?_Rrotate@?$_Tree@V?$_Tmap_traits@KU_Friend@@U?$less@K@std@@V?$allocator@U?$pair@$$CBKU_Friend@@@std@@@3@$0A@@std@@@std@@IAEXPAU_Node@?$_Tree_nod@V?$_Tmap_traits@KU_Friend@@U?$less@K@std@@V?$allocator@U?$pair@$$CBKU_Friend@@@std@@@3@$0A@@std@@@2@@Z
_TEXT	SEGMENT PARA USE32 PUBLIC 'CODE'
_TEXT	ENDS
;	COMDAT ?_Ubound@?$_Tree@V?$_Tmap_traits@KU_Friend@@U?$less@K@std@@V?$allocator@U?$pair@$$CBKU_Friend@@@std@@@3@$0A@@std@@@std@@IBEPAU_Node@?$_Tree_nod@V?$_Tmap_traits@KU_Friend@@U?$less@K@std@@V?$allocator@U?$pair@$$CBKU_Friend@@@std@@@3@$0A@@std@@@2@ABK@Z
_TEXT	SEGMENT PARA USE32 PUBLIC 'CODE'
_TEXT	ENDS
;	COMDAT ?deallocate@?$allocator@U_Node@?$_Tree_nod@V?$_Tmap_traits@KU_Friend@@U?$less@K@std@@V?$allocator@U?$pair@$$CBKU_Friend@@@std@@@3@$0A@@std@@@std@@@std@@QAEXPAU_Node@?$_Tree_nod@V?$_Tmap_traits@KU_Friend@@U?$less@K@std@@V?$allocator@U?$pair@$$CBKU_Friend@@@std@@@3@$0A@@std@@@2@I@Z
_TEXT	SEGMENT PARA USE32 PUBLIC 'CODE'
_TEXT	ENDS
;	COMDAT ?destroy@?$allocator@U_Node@?$_Tree_nod@V?$_Tmap_traits@KU_Friend@@U?$less@K@std@@V?$allocator@U?$pair@$$CBKU_Friend@@@std@@@3@$0A@@std@@@std@@@std@@QAEXPAU_Node@?$_Tree_nod@V?$_Tmap_traits@KU_Friend@@U?$less@K@std@@V?$allocator@U?$pair@$$CBKU_Friend@@@std@@@3@$0A@@std@@@2@@Z
_TEXT	SEGMENT PARA USE32 PUBLIC 'CODE'
_TEXT	ENDS
;	COMDAT ??0iterator@?$_Tree@V?$_Tmap_traits@KU_Friend@@U?$less@K@std@@V?$allocator@U?$pair@$$CBKU_Friend@@@std@@@3@$0A@@std@@@std@@QAE@PAU_Node@?$_Tree_nod@V?$_Tmap_traits@KU_Friend@@U?$less@K@std@@V?$allocator@U?$pair@$$CBKU_Friend@@@std@@@3@$0A@@std@@@2@@Z
_TEXT	SEGMENT PARA USE32 PUBLIC 'CODE'
_TEXT	ENDS
;	COMDAT ??Eiterator@?$_Tree@V?$_Tmap_traits@KU_Friend@@U?$less@K@std@@V?$allocator@U?$pair@$$CBKU_Friend@@@std@@@3@$0A@@std@@@std@@QAEAAV012@XZ
_TEXT	SEGMENT PARA USE32 PUBLIC 'CODE'
_TEXT	ENDS
;	COMDAT ?_Mynode@const_iterator@?$_Tree@V?$_Tmap_traits@KU_Friend@@U?$less@K@std@@V?$allocator@U?$pair@$$CBKU_Friend@@@std@@@3@$0A@@std@@@std@@QBEPAU_Node@?$_Tree_nod@V?$_Tmap_traits@KU_Friend@@U?$less@K@std@@V?$allocator@U?$pair@$$CBKU_Friend@@@std@@@3@$0A@@std@@@3@XZ
_TEXT	SEGMENT PARA USE32 PUBLIC 'CODE'
_TEXT	ENDS
;	COMDAT ?max_size@?$allocator@U__SECRETROOM_MONSTER@@@std@@QBEIXZ
_TEXT	SEGMENT PARA USE32 PUBLIC 'CODE'
_TEXT	ENDS
;	COMDAT ?max_size@?$vector@UMINIGMAME_PRIZE_LIST@CRainbowRaceMng@@V?$allocator@UMINIGMAME_PRIZE_LIST@CRainbowRaceMng@@@std@@@std@@QBEIXZ
_TEXT	SEGMENT PARA USE32 PUBLIC 'CODE'
_TEXT	ENDS
;	COMDAT ?_Destroy@?$vector@UMINIGMAME_PRIZE_LIST@CRainbowRaceMng@@V?$allocator@UMINIGMAME_PRIZE_LIST@CRainbowRaceMng@@@std@@@std@@IAEXPAUMINIGMAME_PRIZE_LIST@CRainbowRaceMng@@0@Z
_TEXT	SEGMENT PARA USE32 PUBLIC 'CODE'
_TEXT	ENDS
;	COMDAT ?_Xlen@?$vector@UMINIGMAME_PRIZE_LIST@CRainbowRaceMng@@V?$allocator@UMINIGMAME_PRIZE_LIST@CRainbowRaceMng@@@std@@@std@@IBEXXZ
_TEXT	SEGMENT PARA USE32 PUBLIC 'CODE'
_TEXT	ENDS
;	COMDAT ?deallocate@?$allocator@UMINIGMAME_PRIZE_LIST@CRainbowRaceMng@@@std@@QAEXPAUMINIGMAME_PRIZE_LIST@CRainbowRaceMng@@I@Z
_TEXT	SEGMENT PARA USE32 PUBLIC 'CODE'
_TEXT	ENDS
;	COMDAT ?allocate@?$allocator@UMINIGMAME_PRIZE_LIST@CRainbowRaceMng@@@std@@QAEPAUMINIGMAME_PRIZE_LIST@CRainbowRaceMng@@I@Z
_TEXT	SEGMENT PARA USE32 PUBLIC 'CODE'
_TEXT	ENDS
;	COMDAT ?max_size@?$allocator@U?$pair@$$CBKPAVCGuildHouseBase@@@std@@@std@@QBEIXZ
_TEXT	SEGMENT PARA USE32 PUBLIC 'CODE'
_TEXT	ENDS
;	COMDAT ?deallocate@?$allocator@U_Node@?$_Tree_nod@V?$_Tmap_traits@KPAVCGuildHouseBase@@U?$less@K@std@@V?$allocator@U?$pair@$$CBKPAVCGuildHouseBase@@@std@@@3@$0A@@std@@@std@@@std@@QAEXPAU_Node@?$_Tree_nod@V?$_Tmap_traits@KPAVCGuildHouseBase@@U?$less@K@std@@V?$allocator@U?$pair@$$CBKPAVCGuildHouseBase@@@std@@@3@$0A@@std@@@2@I@Z
_TEXT	SEGMENT PARA USE32 PUBLIC 'CODE'
_TEXT	ENDS
;	COMDAT ?allocate@?$allocator@U_Node@?$_Tree_nod@V?$_Tmap_traits@KPAVCGuildHouseBase@@U?$less@K@std@@V?$allocator@U?$pair@$$CBKPAVCGuildHouseBase@@@std@@@3@$0A@@std@@@std@@@std@@QAEPAU_Node@?$_Tree_nod@V?$_Tmap_traits@KPAVCGuildHouseBase@@U?$less@K@std@@V?$allocator@U?$pair@$$CBKPAVCGuildHouseBase@@@std@@@3@$0A@@std@@@2@I@Z
_TEXT	SEGMENT PARA USE32 PUBLIC 'CODE'
_TEXT	ENDS
;	COMDAT ?_Dec@const_iterator@?$_Tree@V?$_Tmap_traits@KPAVCGuildHouseBase@@U?$less@K@std@@V?$allocator@U?$pair@$$CBKPAVCGuildHouseBase@@@std@@@3@$0A@@std@@@std@@QAEXXZ
_TEXT	SEGMENT PARA USE32 PUBLIC 'CODE'
_TEXT	ENDS
;	COMDAT ?_Color@?$_Tree@V?$_Tmap_traits@KKU?$less@K@std@@V?$allocator@U?$pair@$$CBKK@std@@@2@$0A@@std@@@std@@KAAADPAU_Node@?$_Tree_nod@V?$_Tmap_traits@KKU?$less@K@std@@V?$allocator@U?$pair@$$CBKK@std@@@2@$0A@@std@@@2@@Z
_TEXT	SEGMENT PARA USE32 PUBLIC 'CODE'
_TEXT	ENDS
;	COMDAT ?_Isnil@?$_Tree@V?$_Tmap_traits@KKU?$less@K@std@@V?$allocator@U?$pair@$$CBKK@std@@@2@$0A@@std@@@std@@KAAADPAU_Node@?$_Tree_nod@V?$_Tmap_traits@KKU?$less@K@std@@V?$allocator@U?$pair@$$CBKK@std@@@2@$0A@@std@@@2@@Z
_TEXT	SEGMENT PARA USE32 PUBLIC 'CODE'
_TEXT	ENDS
;	COMDAT ?_Left@?$_Tree@V?$_Tmap_traits@KKU?$less@K@std@@V?$allocator@U?$pair@$$CBKK@std@@@2@$0A@@std@@@std@@KAAAPAU_Node@?$_Tree_nod@V?$_Tmap_traits@KKU?$less@K@std@@V?$allocator@U?$pair@$$CBKK@std@@@2@$0A@@std@@@2@PAU342@@Z
_TEXT	SEGMENT PARA USE32 PUBLIC 'CODE'
_TEXT	ENDS
;	COMDAT ?_Parent@?$_Tree@V?$_Tmap_traits@KKU?$less@K@std@@V?$allocator@U?$pair@$$CBKK@std@@@2@$0A@@std@@@std@@KAAAPAU_Node@?$_Tree_nod@V?$_Tmap_traits@KKU?$less@K@std@@V?$allocator@U?$pair@$$CBKK@std@@@2@$0A@@std@@@2@PAU342@@Z
_TEXT	SEGMENT PARA USE32 PUBLIC 'CODE'
_TEXT	ENDS
;	COMDAT ?_Right@?$_Tree@V?$_Tmap_traits@KKU?$less@K@std@@V?$allocator@U?$pair@$$CBKK@std@@@2@$0A@@std@@@std@@KAAAPAU_Node@?$_Tree_nod@V?$_Tmap_traits@KKU?$less@K@std@@V?$allocator@U?$pair@$$CBKK@std@@@2@$0A@@std@@@2@PAU342@@Z
_TEXT	SEGMENT PARA USE32 PUBLIC 'CODE'
_TEXT	ENDS
;	COMDAT ?_Erase@?$_Tree@V?$_Tmap_traits@KKU?$less@K@std@@V?$allocator@U?$pair@$$CBKK@std@@@2@$0A@@std@@@std@@IAEXPAU_Node@?$_Tree_nod@V?$_Tmap_traits@KKU?$less@K@std@@V?$allocator@U?$pair@$$CBKK@std@@@2@$0A@@std@@@2@@Z
_TEXT	SEGMENT PARA USE32 PUBLIC 'CODE'
_TEXT	ENDS
;	COMDAT ?_Lbound@?$_Tree@V?$_Tmap_traits@KKU?$less@K@std@@V?$allocator@U?$pair@$$CBKK@std@@@2@$0A@@std@@@std@@IBEPAU_Node@?$_Tree_nod@V?$_Tmap_traits@KKU?$less@K@std@@V?$allocator@U?$pair@$$CBKK@std@@@2@$0A@@std@@@2@ABK@Z
_TEXT	SEGMENT PARA USE32 PUBLIC 'CODE'
_TEXT	ENDS
;	COMDAT ?_Lmost@?$_Tree@V?$_Tmap_traits@KKU?$less@K@std@@V?$allocator@U?$pair@$$CBKK@std@@@2@$0A@@std@@@std@@IAEAAPAU_Node@?$_Tree_nod@V?$_Tmap_traits@KKU?$less@K@std@@V?$allocator@U?$pair@$$CBKK@std@@@2@$0A@@std@@@2@XZ
_TEXT	SEGMENT PARA USE32 PUBLIC 'CODE'
_TEXT	ENDS
;	COMDAT ?_Lrotate@?$_Tree@V?$_Tmap_traits@KKU?$less@K@std@@V?$allocator@U?$pair@$$CBKK@std@@@2@$0A@@std@@@std@@IAEXPAU_Node@?$_Tree_nod@V?$_Tmap_traits@KKU?$less@K@std@@V?$allocator@U?$pair@$$CBKK@std@@@2@$0A@@std@@@2@@Z
_TEXT	SEGMENT PARA USE32 PUBLIC 'CODE'
_TEXT	ENDS
;	COMDAT ?_Max@?$_Tree@V?$_Tmap_traits@KKU?$less@K@std@@V?$allocator@U?$pair@$$CBKK@std@@@2@$0A@@std@@@std@@KAPAU_Node@?$_Tree_nod@V?$_Tmap_traits@KKU?$less@K@std@@V?$allocator@U?$pair@$$CBKK@std@@@2@$0A@@std@@@2@PAU342@@Z
_TEXT	SEGMENT PARA USE32 PUBLIC 'CODE'
_TEXT	ENDS
;	COMDAT ?_Min@?$_Tree@V?$_Tmap_traits@KKU?$less@K@std@@V?$allocator@U?$pair@$$CBKK@std@@@2@$0A@@std@@@std@@KAPAU_Node@?$_Tree_nod@V?$_Tmap_traits@KKU?$less@K@std@@V?$allocator@U?$pair@$$CBKK@std@@@2@$0A@@std@@@2@PAU342@@Z
_TEXT	SEGMENT PARA USE32 PUBLIC 'CODE'
_TEXT	ENDS
;	COMDAT ?_Rmost@?$_Tree@V?$_Tmap_traits@KKU?$less@K@std@@V?$allocator@U?$pair@$$CBKK@std@@@2@$0A@@std@@@std@@IAEAAPAU_Node@?$_Tree_nod@V?$_Tmap_traits@KKU?$less@K@std@@V?$allocator@U?$pair@$$CBKK@std@@@2@$0A@@std@@@2@XZ
_TEXT	SEGMENT PARA USE32 PUBLIC 'CODE'
_TEXT	ENDS
;	COMDAT ?_Root@?$_Tree@V?$_Tmap_traits@KKU?$less@K@std@@V?$allocator@U?$pair@$$CBKK@std@@@2@$0A@@std@@@std@@IAEAAPAU_Node@?$_Tree_nod@V?$_Tmap_traits@KKU?$less@K@std@@V?$allocator@U?$pair@$$CBKK@std@@@2@$0A@@std@@@2@XZ
_TEXT	SEGMENT PARA USE32 PUBLIC 'CODE'
_TEXT	ENDS
;	COMDAT ?_Rrotate@?$_Tree@V?$_Tmap_traits@KKU?$less@K@std@@V?$allocator@U?$pair@$$CBKK@std@@@2@$0A@@std@@@std@@IAEXPAU_Node@?$_Tree_nod@V?$_Tmap_traits@KKU?$less@K@std@@V?$allocator@U?$pair@$$CBKK@std@@@2@$0A@@std@@@2@@Z
_TEXT	SEGMENT PARA USE32 PUBLIC 'CODE'
_TEXT	ENDS
;	COMDAT ?_Ubound@?$_Tree@V?$_Tmap_traits@KKU?$less@K@std@@V?$allocator@U?$pair@$$CBKK@std@@@2@$0A@@std@@@std@@IBEPAU_Node@?$_Tree_nod@V?$_Tmap_traits@KKU?$less@K@std@@V?$allocator@U?$pair@$$CBKK@std@@@2@$0A@@std@@@2@ABK@Z
_TEXT	SEGMENT PARA USE32 PUBLIC 'CODE'
_TEXT	ENDS
;	COMDAT ?deallocate@?$allocator@U_Node@?$_Tree_nod@V?$_Tmap_traits@KKU?$less@K@std@@V?$allocator@U?$pair@$$CBKK@std@@@2@$0A@@std@@@std@@@std@@QAEXPAU_Node@?$_Tree_nod@V?$_Tmap_traits@KKU?$less@K@std@@V?$allocator@U?$pair@$$CBKK@std@@@2@$0A@@std@@@2@I@Z
_TEXT	SEGMENT PARA USE32 PUBLIC 'CODE'
_TEXT	ENDS
;	COMDAT ?destroy@?$allocator@U_Node@?$_Tree_nod@V?$_Tmap_traits@KKU?$less@K@std@@V?$allocator@U?$pair@$$CBKK@std@@@2@$0A@@std@@@std@@@std@@QAEXPAU_Node@?$_Tree_nod@V?$_Tmap_traits@KKU?$less@K@std@@V?$allocator@U?$pair@$$CBKK@std@@@2@$0A@@std@@@2@@Z
_TEXT	SEGMENT PARA USE32 PUBLIC 'CODE'
_TEXT	ENDS
;	COMDAT ??0iterator@?$_Tree@V?$_Tmap_traits@KKU?$less@K@std@@V?$allocator@U?$pair@$$CBKK@std@@@2@$0A@@std@@@std@@QAE@PAU_Node@?$_Tree_nod@V?$_Tmap_traits@KKU?$less@K@std@@V?$allocator@U?$pair@$$CBKK@std@@@2@$0A@@std@@@2@@Z
_TEXT	SEGMENT PARA USE32 PUBLIC 'CODE'
_TEXT	ENDS
;	COMDAT ??Eiterator@?$_Tree@V?$_Tmap_traits@KKU?$less@K@std@@V?$allocator@U?$pair@$$CBKK@std@@@2@$0A@@std@@@std@@QAEAAV012@XZ
_TEXT	SEGMENT PARA USE32 PUBLIC 'CODE'
_TEXT	ENDS
;	COMDAT ?_Mynode@const_iterator@?$_Tree@V?$_Tmap_traits@KKU?$less@K@std@@V?$allocator@U?$pair@$$CBKK@std@@@2@$0A@@std@@@std@@QBEPAU_Node@?$_Tree_nod@V?$_Tmap_traits@KKU?$less@K@std@@V?$allocator@U?$pair@$$CBKK@std@@@2@$0A@@std@@@3@XZ
_TEXT	SEGMENT PARA USE32 PUBLIC 'CODE'
_TEXT	ENDS
;	COMDAT ?_Isnil@?$_Tree@V?$_Tmap_traits@KPAVCClientSock@@U?$less@K@std@@V?$allocator@U?$pair@$$CBKPAVCClientSock@@@std@@@3@$0A@@std@@@std@@KAAADPAU_Node@?$_Tree_nod@V?$_Tmap_traits@KPAVCClientSock@@U?$less@K@std@@V?$allocator@U?$pair@$$CBKPAVCClientSock@@@std@@@3@$0A@@std@@@2@@Z
_TEXT	SEGMENT PARA USE32 PUBLIC 'CODE'
_TEXT	ENDS
;	COMDAT ?erase@?$_Tree@V?$_Tmap_traits@KPAVCClientSock@@U?$less@K@std@@V?$allocator@U?$pair@$$CBKPAVCClientSock@@@std@@@3@$0A@@std@@@std@@QAE?AViterator@12@V312@@Z
_TEXT	SEGMENT PARA USE32 PUBLIC 'CODE'
_TEXT	ENDS
;	COMDAT ?clear@?$_Tree@V?$_Tmap_traits@KPAVCClientSock@@U?$less@K@std@@V?$allocator@U?$pair@$$CBKPAVCClientSock@@@std@@@3@$0A@@std@@@std@@QAEXXZ
_TEXT	SEGMENT PARA USE32 PUBLIC 'CODE'
_TEXT	ENDS
;	COMDAT ?_Lmost@?$_Tree@V?$_Tmap_traits@KPAVCClientSock@@U?$less@K@std@@V?$allocator@U?$pair@$$CBKPAVCClientSock@@@std@@@3@$0A@@std@@@std@@IAEAAPAU_Node@?$_Tree_nod@V?$_Tmap_traits@KPAVCClientSock@@U?$less@K@std@@V?$allocator@U?$pair@$$CBKPAVCClientSock@@@std@@@3@$0A@@std@@@2@XZ
_TEXT	SEGMENT PARA USE32 PUBLIC 'CODE'
_TEXT	ENDS
;	COMDAT ?_Rmost@?$_Tree@V?$_Tmap_traits@KPAVCClientSock@@U?$less@K@std@@V?$allocator@U?$pair@$$CBKPAVCClientSock@@@std@@@3@$0A@@std@@@std@@IAEAAPAU_Node@?$_Tree_nod@V?$_Tmap_traits@KPAVCClientSock@@U?$less@K@std@@V?$allocator@U?$pair@$$CBKPAVCClientSock@@@std@@@3@$0A@@std@@@2@XZ
_TEXT	SEGMENT PARA USE32 PUBLIC 'CODE'
_TEXT	ENDS
;	COMDAT ?_Root@?$_Tree@V?$_Tmap_traits@KPAVCClientSock@@U?$less@K@std@@V?$allocator@U?$pair@$$CBKPAVCClientSock@@@std@@@3@$0A@@std@@@std@@IAEAAPAU_Node@?$_Tree_nod@V?$_Tmap_traits@KPAVCClientSock@@U?$less@K@std@@V?$allocator@U?$pair@$$CBKPAVCClientSock@@@std@@@3@$0A@@std@@@2@XZ
_TEXT	SEGMENT PARA USE32 PUBLIC 'CODE'
_TEXT	ENDS
;	COMDAT ?_Root@?$_Tree@V?$_Tmap_traits@KPAVCClientSock@@U?$less@K@std@@V?$allocator@U?$pair@$$CBKPAVCClientSock@@@std@@@3@$0A@@std@@@std@@IBEAAPAU_Node@?$_Tree_nod@V?$_Tmap_traits@KPAVCClientSock@@U?$less@K@std@@V?$allocator@U?$pair@$$CBKPAVCClientSock@@@std@@@3@$0A@@std@@@2@XZ
_TEXT	SEGMENT PARA USE32 PUBLIC 'CODE'
_TEXT	ENDS
;	COMDAT ?_Buynode@?$_Tree@V?$_Tmap_traits@KPAVCClientSock@@U?$less@K@std@@V?$allocator@U?$pair@$$CBKPAVCClientSock@@@std@@@3@$0A@@std@@@std@@IAEPAU_Node@?$_Tree_nod@V?$_Tmap_traits@KPAVCClientSock@@U?$less@K@std@@V?$allocator@U?$pair@$$CBKPAVCClientSock@@@std@@@3@$0A@@std@@@2@XZ
_TEXT	SEGMENT PARA USE32 PUBLIC 'CODE'
_TEXT	ENDS
;	COMDAT ??0?$_Tree_ptr@V?$_Tmap_traits@KPAVCClientSock@@U?$less@K@std@@V?$allocator@U?$pair@$$CBKPAVCClientSock@@@std@@@3@$0A@@std@@@std@@IAE@ABU?$less@K@1@V?$allocator@U?$pair@$$CBKPAVCClientSock@@@std@@@1@@Z
_TEXT	SEGMENT PARA USE32 PUBLIC 'CODE'
_TEXT	ENDS
;	COMDAT ??Eiterator@?$_Tree@V?$_Tmap_traits@KPAVCClientSock@@U?$less@K@std@@V?$allocator@U?$pair@$$CBKPAVCClientSock@@@std@@@3@$0A@@std@@@std@@QAE?AV012@H@Z
_TEXT	SEGMENT PARA USE32 PUBLIC 'CODE'
_TEXT	ENDS
;	COMDAT ?_Isnil@?$_Tree@V?$_Tmap_traits@KPAVCClientSockE@@U?$less@K@std@@V?$allocator@U?$pair@$$CBKPAVCClientSockE@@@std@@@3@$0A@@std@@@std@@KAAADPAU_Node@?$_Tree_nod@V?$_Tmap_traits@KPAVCClientSockE@@U?$less@K@std@@V?$allocator@U?$pair@$$CBKPAVCClientSockE@@@std@@@3@$0A@@std@@@2@@Z
_TEXT	SEGMENT PARA USE32 PUBLIC 'CODE'
_TEXT	ENDS
;	COMDAT ?erase@?$_Tree@V?$_Tmap_traits@KPAVCClientSockE@@U?$less@K@std@@V?$allocator@U?$pair@$$CBKPAVCClientSockE@@@std@@@3@$0A@@std@@@std@@QAE?AViterator@12@V312@@Z
_TEXT	SEGMENT PARA USE32 PUBLIC 'CODE'
_TEXT	ENDS
;	COMDAT ?clear@?$_Tree@V?$_Tmap_traits@KPAVCClientSockE@@U?$less@K@std@@V?$allocator@U?$pair@$$CBKPAVCClientSockE@@@std@@@3@$0A@@std@@@std@@QAEXXZ
_TEXT	SEGMENT PARA USE32 PUBLIC 'CODE'
_TEXT	ENDS
;	COMDAT ?_Lmost@?$_Tree@V?$_Tmap_traits@KPAVCClientSockE@@U?$less@K@std@@V?$allocator@U?$pair@$$CBKPAVCClientSockE@@@std@@@3@$0A@@std@@@std@@IAEAAPAU_Node@?$_Tree_nod@V?$_Tmap_traits@KPAVCClientSockE@@U?$less@K@std@@V?$allocator@U?$pair@$$CBKPAVCClientSockE@@@std@@@3@$0A@@std@@@2@XZ
_TEXT	SEGMENT PARA USE32 PUBLIC 'CODE'
_TEXT	ENDS
;	COMDAT ?_Rmost@?$_Tree@V?$_Tmap_traits@KPAVCClientSockE@@U?$less@K@std@@V?$allocator@U?$pair@$$CBKPAVCClientSockE@@@std@@@3@$0A@@std@@@std@@IAEAAPAU_Node@?$_Tree_nod@V?$_Tmap_traits@KPAVCClientSockE@@U?$less@K@std@@V?$allocator@U?$pair@$$CBKPAVCClientSockE@@@std@@@3@$0A@@std@@@2@XZ
_TEXT	SEGMENT PARA USE32 PUBLIC 'CODE'
_TEXT	ENDS
;	COMDAT ?_Root@?$_Tree@V?$_Tmap_traits@KPAVCClientSockE@@U?$less@K@std@@V?$allocator@U?$pair@$$CBKPAVCClientSockE@@@std@@@3@$0A@@std@@@std@@IAEAAPAU_Node@?$_Tree_nod@V?$_Tmap_traits@KPAVCClientSockE@@U?$less@K@std@@V?$allocator@U?$pair@$$CBKPAVCClientSockE@@@std@@@3@$0A@@std@@@2@XZ
_TEXT	SEGMENT PARA USE32 PUBLIC 'CODE'
_TEXT	ENDS
;	COMDAT ?_Root@?$_Tree@V?$_Tmap_traits@KPAVCClientSockE@@U?$less@K@std@@V?$allocator@U?$pair@$$CBKPAVCClientSockE@@@std@@@3@$0A@@std@@@std@@IBEAAPAU_Node@?$_Tree_nod@V?$_Tmap_traits@KPAVCClientSockE@@U?$less@K@std@@V?$allocator@U?$pair@$$CBKPAVCClientSockE@@@std@@@3@$0A@@std@@@2@XZ
_TEXT	SEGMENT PARA USE32 PUBLIC 'CODE'
_TEXT	ENDS
;	COMDAT ?_Buynode@?$_Tree@V?$_Tmap_traits@KPAVCClientSockE@@U?$less@K@std@@V?$allocator@U?$pair@$$CBKPAVCClientSockE@@@std@@@3@$0A@@std@@@std@@IAEPAU_Node@?$_Tree_nod@V?$_Tmap_traits@KPAVCClientSockE@@U?$less@K@std@@V?$allocator@U?$pair@$$CBKPAVCClientSockE@@@std@@@3@$0A@@std@@@2@XZ
_TEXT	SEGMENT PARA USE32 PUBLIC 'CODE'
_TEXT	ENDS
;	COMDAT ??0?$_Tree_ptr@V?$_Tmap_traits@KPAVCClientSockE@@U?$less@K@std@@V?$allocator@U?$pair@$$CBKPAVCClientSockE@@@std@@@3@$0A@@std@@@std@@IAE@ABU?$less@K@1@V?$allocator@U?$pair@$$CBKPAVCClientSockE@@@std@@@1@@Z
_TEXT	SEGMENT PARA USE32 PUBLIC 'CODE'
_TEXT	ENDS
;	COMDAT ??Eiterator@?$_Tree@V?$_Tmap_traits@KPAVCClientSockE@@U?$less@K@std@@V?$allocator@U?$pair@$$CBKPAVCClientSockE@@@std@@@3@$0A@@std@@@std@@QAE?AV012@H@Z
_TEXT	SEGMENT PARA USE32 PUBLIC 'CODE'
_TEXT	ENDS
;	COMDAT ?_Isnil@?$_Tree@V?$_Tmap_traits@KP8CDPCoreClient@@AEXAAVCAr@@KKK@ZU?$less@K@std@@V?$allocator@U?$pair@$$CBKP8CDPCoreClient@@AEXAAVCAr@@KKK@Z@std@@@4@$0A@@std@@@std@@KAAADPAU_Node@?$_Tree_nod@V?$_Tmap_traits@KP8CDPCoreClient@@AEXAAVCAr@@KKK@ZU?$less@K@std@@V?$allocator@U?$pair@$$CBKP8CDPCoreClient@@AEXAAVCAr@@KKK@Z@std@@@4@$0A@@std@@@2@@Z
_TEXT	SEGMENT PARA USE32 PUBLIC 'CODE'
_TEXT	ENDS
;	COMDAT ?_Left@?$_Tree@V?$_Tmap_traits@KP8CDPCoreClient@@AEXAAVCAr@@KKK@ZU?$less@K@std@@V?$allocator@U?$pair@$$CBKP8CDPCoreClient@@AEXAAVCAr@@KKK@Z@std@@@4@$0A@@std@@@std@@KAAAPAU_Node@?$_Tree_nod@V?$_Tmap_traits@KP8CDPCoreClient@@AEXAAVCAr@@KKK@ZU?$less@K@std@@V?$allocator@U?$pair@$$CBKP8CDPCoreClient@@AEXAAVCAr@@KKK@Z@std@@@4@$0A@@std@@@2@PAU342@@Z
_TEXT	SEGMENT PARA USE32 PUBLIC 'CODE'
_TEXT	ENDS
;	COMDAT ?_Right@?$_Tree@V?$_Tmap_traits@KP8CDPCoreClient@@AEXAAVCAr@@KKK@ZU?$less@K@std@@V?$allocator@U?$pair@$$CBKP8CDPCoreClient@@AEXAAVCAr@@KKK@Z@std@@@4@$0A@@std@@@std@@KAAAPAU_Node@?$_Tree_nod@V?$_Tmap_traits@KP8CDPCoreClient@@AEXAAVCAr@@KKK@ZU?$less@K@std@@V?$allocator@U?$pair@$$CBKP8CDPCoreClient@@AEXAAVCAr@@KKK@Z@std@@@4@$0A@@std@@@2@PAU342@@Z
_TEXT	SEGMENT PARA USE32 PUBLIC 'CODE'
_TEXT	ENDS
;	COMDAT ?_Root@?$_Tree@V?$_Tmap_traits@KP8CDPCoreClient@@AEXAAVCAr@@KKK@ZU?$less@K@std@@V?$allocator@U?$pair@$$CBKP8CDPCoreClient@@AEXAAVCAr@@KKK@Z@std@@@4@$0A@@std@@@std@@IBEAAPAU_Node@?$_Tree_nod@V?$_Tmap_traits@KP8CDPCoreClient@@AEXAAVCAr@@KKK@ZU?$less@K@std@@V?$allocator@U?$pair@$$CBKP8CDPCoreClient@@AEXAAVCAr@@KKK@Z@std@@@4@$0A@@std@@@2@XZ
_TEXT	SEGMENT PARA USE32 PUBLIC 'CODE'
_TEXT	ENDS
;	COMDAT ??Yiterator@?$vector@KV?$allocator@K@std@@@std@@QAEAAV012@H@Z
_TEXT	SEGMENT PARA USE32 PUBLIC 'CODE'
_TEXT	ENDS
;	COMDAT ??Gconst_iterator@?$vector@KV?$allocator@K@std@@@std@@QBEHABV012@@Z
_TEXT	SEGMENT PARA USE32 PUBLIC 'CODE'
_TEXT	ENDS
;	COMDAT ??0const_iterator@?$vector@PAU__JOINPLAYER@CGuildCombat@@V?$allocator@PAU__JOINPLAYER@CGuildCombat@@@std@@@std@@QAE@PAPAU__JOINPLAYER@CGuildCombat@@@Z
_TEXT	SEGMENT PARA USE32 PUBLIC 'CODE'
_TEXT	ENDS
;	COMDAT ??0const_iterator@?$vector@V?$basic_string@DU?$char_traits@D@std@@V?$allocator@D@2@@std@@V?$allocator@V?$basic_string@DU?$char_traits@D@std@@V?$allocator@D@2@@std@@@2@@std@@QAE@PAV?$basic_string@DU?$char_traits@D@std@@V?$allocator@D@2@@2@@Z
_TEXT	SEGMENT PARA USE32 PUBLIC 'CODE'
_TEXT	ENDS
;	COMDAT ??Gconst_iterator@?$vector@V?$basic_string@DU?$char_traits@D@std@@V?$allocator@D@2@@std@@V?$allocator@V?$basic_string@DU?$char_traits@D@std@@V?$allocator@D@2@@std@@@2@@std@@QBEHABV012@@Z
_TEXT	SEGMENT PARA USE32 PUBLIC 'CODE'
_TEXT	ENDS
;	COMDAT ??Yiterator@?$vector@UMINIGMAME_PRIZE_LIST@CRainbowRaceMng@@V?$allocator@UMINIGMAME_PRIZE_LIST@CRainbowRaceMng@@@std@@@std@@QAEAAV012@H@Z
_TEXT	SEGMENT PARA USE32 PUBLIC 'CODE'
_TEXT	ENDS
;	COMDAT ??0const_iterator@?$vector@UMINIGMAME_PRIZE_LIST@CRainbowRaceMng@@V?$allocator@UMINIGMAME_PRIZE_LIST@CRainbowRaceMng@@@std@@@std@@QAE@PAUMINIGMAME_PRIZE_LIST@CRainbowRaceMng@@@Z
_TEXT	SEGMENT PARA USE32 PUBLIC 'CODE'
_TEXT	ENDS
;	COMDAT ??Gconst_iterator@?$vector@UMINIGMAME_PRIZE_LIST@CRainbowRaceMng@@V?$allocator@UMINIGMAME_PRIZE_LIST@CRainbowRaceMng@@@std@@@std@@QBEHABV012@@Z
_TEXT	SEGMENT PARA USE32 PUBLIC 'CODE'
_TEXT	ENDS
;	COMDAT ??0const_iterator@?$vector@PAVCMiniGameBase@@V?$allocator@PAVCMiniGameBase@@@std@@@std@@QAE@PAPAVCMiniGameBase@@@Z
_TEXT	SEGMENT PARA USE32 PUBLIC 'CODE'
_TEXT	ENDS
;	COMDAT ??0const_iterator@?$vector@UGuildHouse_Furniture_Info@CGuildHouseBase@@V?$allocator@UGuildHouse_Furniture_Info@CGuildHouseBase@@@std@@@std@@QAE@PAUGuildHouse_Furniture_Info@CGuildHouseBase@@@Z
_TEXT	SEGMENT PARA USE32 PUBLIC 'CODE'
_TEXT	ENDS
;	COMDAT ??0_Node@?$_Tree_nod@V?$_Tmap_traits@KPAVCGuildHouseBase@@U?$less@K@std@@V?$allocator@U?$pair@$$CBKPAVCGuildHouseBase@@@std@@@3@$0A@@std@@@std@@QAE@PAU012@00ABU?$pair@$$CBKPAVCGuildHouseBase@@@2@D@Z
_TEXT	SEGMENT PARA USE32 PUBLIC 'CODE'
_TEXT	ENDS
;	COMDAT ?_Key@?$_Tree@V?$_Tmap_traits@KU_Friend@@U?$less@K@std@@V?$allocator@U?$pair@$$CBKU_Friend@@@std@@@3@$0A@@std@@@std@@KAABKPAU_Node@?$_Tree_nod@V?$_Tmap_traits@KU_Friend@@U?$less@K@std@@V?$allocator@U?$pair@$$CBKU_Friend@@@std@@@3@$0A@@std@@@2@@Z
_TEXT	SEGMENT PARA USE32 PUBLIC 'CODE'
_TEXT	ENDS
;	COMDAT ?_Root@?$_Tree@V?$_Tmap_traits@KU_Friend@@U?$less@K@std@@V?$allocator@U?$pair@$$CBKU_Friend@@@std@@@3@$0A@@std@@@std@@IBEAAPAU_Node@?$_Tree_nod@V?$_Tmap_traits@KU_Friend@@U?$less@K@std@@V?$allocator@U?$pair@$$CBKU_Friend@@@std@@@3@$0A@@std@@@2@XZ
_TEXT	SEGMENT PARA USE32 PUBLIC 'CODE'
_TEXT	ENDS
;	COMDAT ??0const_iterator@?$_Tree@V?$_Tmap_traits@KU_Friend@@U?$less@K@std@@V?$allocator@U?$pair@$$CBKU_Friend@@@std@@@3@$0A@@std@@@std@@QAE@PAU_Node@?$_Tree_nod@V?$_Tmap_traits@KU_Friend@@U?$less@K@std@@V?$allocator@U?$pair@$$CBKU_Friend@@@std@@@3@$0A@@std@@@2@@Z
_TEXT	SEGMENT PARA USE32 PUBLIC 'CODE'
_TEXT	ENDS
;	COMDAT ??Econst_iterator@?$_Tree@V?$_Tmap_traits@KU_Friend@@U?$less@K@std@@V?$allocator@U?$pair@$$CBKU_Friend@@@std@@@3@$0A@@std@@@std@@QAEAAV012@XZ
_TEXT	SEGMENT PARA USE32 PUBLIC 'CODE'
_TEXT	ENDS
;	COMDAT ?max_size@?$allocator@UMINIGMAME_PRIZE_LIST@CRainbowRaceMng@@@std@@QBEIXZ
_TEXT	SEGMENT PARA USE32 PUBLIC 'CODE'
_TEXT	ENDS
;	COMDAT ?_Max@?$_Tree@V?$_Tmap_traits@KPAVCGuildHouseBase@@U?$less@K@std@@V?$allocator@U?$pair@$$CBKPAVCGuildHouseBase@@@std@@@3@$0A@@std@@@std@@KAPAU_Node@?$_Tree_nod@V?$_Tmap_traits@KPAVCGuildHouseBase@@U?$less@K@std@@V?$allocator@U?$pair@$$CBKPAVCGuildHouseBase@@@std@@@3@$0A@@std@@@2@PAU342@@Z
_TEXT	SEGMENT PARA USE32 PUBLIC 'CODE'
_TEXT	ENDS
;	COMDAT ?_Key@?$_Tree@V?$_Tmap_traits@KKU?$less@K@std@@V?$allocator@U?$pair@$$CBKK@std@@@2@$0A@@std@@@std@@KAABKPAU_Node@?$_Tree_nod@V?$_Tmap_traits@KKU?$less@K@std@@V?$allocator@U?$pair@$$CBKK@std@@@2@$0A@@std@@@2@@Z
_TEXT	SEGMENT PARA USE32 PUBLIC 'CODE'
_TEXT	ENDS
;	COMDAT ?_Root@?$_Tree@V?$_Tmap_traits@KKU?$less@K@std@@V?$allocator@U?$pair@$$CBKK@std@@@2@$0A@@std@@@std@@IBEAAPAU_Node@?$_Tree_nod@V?$_Tmap_traits@KKU?$less@K@std@@V?$allocator@U?$pair@$$CBKK@std@@@2@$0A@@std@@@2@XZ
_TEXT	SEGMENT PARA USE32 PUBLIC 'CODE'
_TEXT	ENDS
;	COMDAT ??0const_iterator@?$_Tree@V?$_Tmap_traits@KKU?$less@K@std@@V?$allocator@U?$pair@$$CBKK@std@@@2@$0A@@std@@@std@@QAE@PAU_Node@?$_Tree_nod@V?$_Tmap_traits@KKU?$less@K@std@@V?$allocator@U?$pair@$$CBKK@std@@@2@$0A@@std@@@2@@Z
_TEXT	SEGMENT PARA USE32 PUBLIC 'CODE'
_TEXT	ENDS
;	COMDAT ??Econst_iterator@?$_Tree@V?$_Tmap_traits@KKU?$less@K@std@@V?$allocator@U?$pair@$$CBKK@std@@@2@$0A@@std@@@std@@QAEAAV012@XZ
_TEXT	SEGMENT PARA USE32 PUBLIC 'CODE'
_TEXT	ENDS
;	COMDAT ?_Color@?$_Tree@V?$_Tmap_traits@KPAVCClientSock@@U?$less@K@std@@V?$allocator@U?$pair@$$CBKPAVCClientSock@@@std@@@3@$0A@@std@@@std@@KAAADPAU_Node@?$_Tree_nod@V?$_Tmap_traits@KPAVCClientSock@@U?$less@K@std@@V?$allocator@U?$pair@$$CBKPAVCClientSock@@@std@@@3@$0A@@std@@@2@@Z
_TEXT	SEGMENT PARA USE32 PUBLIC 'CODE'
_TEXT	ENDS
;	COMDAT ?_Erase@?$_Tree@V?$_Tmap_traits@KPAVCClientSock@@U?$less@K@std@@V?$allocator@U?$pair@$$CBKPAVCClientSock@@@std@@@3@$0A@@std@@@std@@IAEXPAU_Node@?$_Tree_nod@V?$_Tmap_traits@KPAVCClientSock@@U?$less@K@std@@V?$allocator@U?$pair@$$CBKPAVCClientSock@@@std@@@3@$0A@@std@@@2@@Z
_TEXT	SEGMENT PARA USE32 PUBLIC 'CODE'
_TEXT	ENDS
;	COMDAT ?_Lrotate@?$_Tree@V?$_Tmap_traits@KPAVCClientSock@@U?$less@K@std@@V?$allocator@U?$pair@$$CBKPAVCClientSock@@@std@@@3@$0A@@std@@@std@@IAEXPAU_Node@?$_Tree_nod@V?$_Tmap_traits@KPAVCClientSock@@U?$less@K@std@@V?$allocator@U?$pair@$$CBKPAVCClientSock@@@std@@@3@$0A@@std@@@2@@Z
_TEXT	SEGMENT PARA USE32 PUBLIC 'CODE'
_TEXT	ENDS
;	COMDAT ?_Max@?$_Tree@V?$_Tmap_traits@KPAVCClientSock@@U?$less@K@std@@V?$allocator@U?$pair@$$CBKPAVCClientSock@@@std@@@3@$0A@@std@@@std@@KAPAU_Node@?$_Tree_nod@V?$_Tmap_traits@KPAVCClientSock@@U?$less@K@std@@V?$allocator@U?$pair@$$CBKPAVCClientSock@@@std@@@3@$0A@@std@@@2@PAU342@@Z
_TEXT	SEGMENT PARA USE32 PUBLIC 'CODE'
_TEXT	ENDS
;	COMDAT ?_Min@?$_Tree@V?$_Tmap_traits@KPAVCClientSock@@U?$less@K@std@@V?$allocator@U?$pair@$$CBKPAVCClientSock@@@std@@@3@$0A@@std@@@std@@KAPAU_Node@?$_Tree_nod@V?$_Tmap_traits@KPAVCClientSock@@U?$less@K@std@@V?$allocator@U?$pair@$$CBKPAVCClientSock@@@std@@@3@$0A@@std@@@2@PAU342@@Z
_TEXT	SEGMENT PARA USE32 PUBLIC 'CODE'
_TEXT	ENDS
;	COMDAT ?_Rrotate@?$_Tree@V?$_Tmap_traits@KPAVCClientSock@@U?$less@K@std@@V?$allocator@U?$pair@$$CBKPAVCClientSock@@@std@@@3@$0A@@std@@@std@@IAEXPAU_Node@?$_Tree_nod@V?$_Tmap_traits@KPAVCClientSock@@U?$less@K@std@@V?$allocator@U?$pair@$$CBKPAVCClientSock@@@std@@@3@$0A@@std@@@2@@Z
_TEXT	SEGMENT PARA USE32 PUBLIC 'CODE'
_TEXT	ENDS
;	COMDAT ??0?$_Tree_nod@V?$_Tmap_traits@KPAVCClientSock@@U?$less@K@std@@V?$allocator@U?$pair@$$CBKPAVCClientSock@@@std@@@3@$0A@@std@@@std@@IAE@ABU?$less@K@1@V?$allocator@U?$pair@$$CBKPAVCClientSock@@@std@@@1@@Z
_TEXT	SEGMENT PARA USE32 PUBLIC 'CODE'
_TEXT	ENDS
;	COMDAT ?allocate@?$allocator@U_Node@?$_Tree_nod@V?$_Tmap_traits@KPAVCClientSock@@U?$less@K@std@@V?$allocator@U?$pair@$$CBKPAVCClientSock@@@std@@@3@$0A@@std@@@std@@@std@@QAEPAU_Node@?$_Tree_nod@V?$_Tmap_traits@KPAVCClientSock@@U?$less@K@std@@V?$allocator@U?$pair@$$CBKPAVCClientSock@@@std@@@3@$0A@@std@@@2@I@Z
_TEXT	SEGMENT PARA USE32 PUBLIC 'CODE'
_TEXT	ENDS
;	COMDAT ?destroy@?$allocator@U_Node@?$_Tree_nod@V?$_Tmap_traits@KPAVCClientSock@@U?$less@K@std@@V?$allocator@U?$pair@$$CBKPAVCClientSock@@@std@@@3@$0A@@std@@@std@@@std@@QAEXPAU_Node@?$_Tree_nod@V?$_Tmap_traits@KPAVCClientSock@@U?$less@K@std@@V?$allocator@U?$pair@$$CBKPAVCClientSock@@@std@@@3@$0A@@std@@@2@@Z
_TEXT	SEGMENT PARA USE32 PUBLIC 'CODE'
_TEXT	ENDS
;	COMDAT ?construct@?$allocator@PAU_Node@?$_Tree_nod@V?$_Tmap_traits@KPAVCClientSock@@U?$less@K@std@@V?$allocator@U?$pair@$$CBKPAVCClientSock@@@std@@@3@$0A@@std@@@std@@@std@@QAEXPAPAU_Node@?$_Tree_nod@V?$_Tmap_traits@KPAVCClientSock@@U?$less@K@std@@V?$allocator@U?$pair@$$CBKPAVCClientSock@@@std@@@3@$0A@@std@@@2@ABQAU342@@Z
_TEXT	SEGMENT PARA USE32 PUBLIC 'CODE'
_TEXT	ENDS
;	COMDAT ??Eiterator@?$_Tree@V?$_Tmap_traits@KPAVCClientSock@@U?$less@K@std@@V?$allocator@U?$pair@$$CBKPAVCClientSock@@@std@@@3@$0A@@std@@@std@@QAEAAV012@XZ
_TEXT	SEGMENT PARA USE32 PUBLIC 'CODE'
_TEXT	ENDS
;	COMDAT ?_Color@?$_Tree@V?$_Tmap_traits@KPAVCClientSockE@@U?$less@K@std@@V?$allocator@U?$pair@$$CBKPAVCClientSockE@@@std@@@3@$0A@@std@@@std@@KAAADPAU_Node@?$_Tree_nod@V?$_Tmap_traits@KPAVCClientSockE@@U?$less@K@std@@V?$allocator@U?$pair@$$CBKPAVCClientSockE@@@std@@@3@$0A@@std@@@2@@Z
_TEXT	SEGMENT PARA USE32 PUBLIC 'CODE'
_TEXT	ENDS
;	COMDAT ?_Erase@?$_Tree@V?$_Tmap_traits@KPAVCClientSockE@@U?$less@K@std@@V?$allocator@U?$pair@$$CBKPAVCClientSockE@@@std@@@3@$0A@@std@@@std@@IAEXPAU_Node@?$_Tree_nod@V?$_Tmap_traits@KPAVCClientSockE@@U?$less@K@std@@V?$allocator@U?$pair@$$CBKPAVCClientSockE@@@std@@@3@$0A@@std@@@2@@Z
_TEXT	SEGMENT PARA USE32 PUBLIC 'CODE'
_TEXT	ENDS
;	COMDAT ?_Lrotate@?$_Tree@V?$_Tmap_traits@KPAVCClientSockE@@U?$less@K@std@@V?$allocator@U?$pair@$$CBKPAVCClientSockE@@@std@@@3@$0A@@std@@@std@@IAEXPAU_Node@?$_Tree_nod@V?$_Tmap_traits@KPAVCClientSockE@@U?$less@K@std@@V?$allocator@U?$pair@$$CBKPAVCClientSockE@@@std@@@3@$0A@@std@@@2@@Z
_TEXT	SEGMENT PARA USE32 PUBLIC 'CODE'
_TEXT	ENDS
;	COMDAT ?_Max@?$_Tree@V?$_Tmap_traits@KPAVCClientSockE@@U?$less@K@std@@V?$allocator@U?$pair@$$CBKPAVCClientSockE@@@std@@@3@$0A@@std@@@std@@KAPAU_Node@?$_Tree_nod@V?$_Tmap_traits@KPAVCClientSockE@@U?$less@K@std@@V?$allocator@U?$pair@$$CBKPAVCClientSockE@@@std@@@3@$0A@@std@@@2@PAU342@@Z
_TEXT	SEGMENT PARA USE32 PUBLIC 'CODE'
_TEXT	ENDS
;	COMDAT ?_Min@?$_Tree@V?$_Tmap_traits@KPAVCClientSockE@@U?$less@K@std@@V?$allocator@U?$pair@$$CBKPAVCClientSockE@@@std@@@3@$0A@@std@@@std@@KAPAU_Node@?$_Tree_nod@V?$_Tmap_traits@KPAVCClientSockE@@U?$less@K@std@@V?$allocator@U?$pair@$$CBKPAVCClientSockE@@@std@@@3@$0A@@std@@@2@PAU342@@Z
_TEXT	SEGMENT PARA USE32 PUBLIC 'CODE'
_TEXT	ENDS
;	COMDAT ?_Rrotate@?$_Tree@V?$_Tmap_traits@KPAVCClientSockE@@U?$less@K@std@@V?$allocator@U?$pair@$$CBKPAVCClientSockE@@@std@@@3@$0A@@std@@@std@@IAEXPAU_Node@?$_Tree_nod@V?$_Tmap_traits@KPAVCClientSockE@@U?$less@K@std@@V?$allocator@U?$pair@$$CBKPAVCClientSockE@@@std@@@3@$0A@@std@@@2@@Z
_TEXT	SEGMENT PARA USE32 PUBLIC 'CODE'
_TEXT	ENDS
;	COMDAT ??0?$_Tree_nod@V?$_Tmap_traits@KPAVCClientSockE@@U?$less@K@std@@V?$allocator@U?$pair@$$CBKPAVCClientSockE@@@std@@@3@$0A@@std@@@std@@IAE@ABU?$less@K@1@V?$allocator@U?$pair@$$CBKPAVCClientSockE@@@std@@@1@@Z
_TEXT	SEGMENT PARA USE32 PUBLIC 'CODE'
_TEXT	ENDS
;	COMDAT ?allocate@?$allocator@U_Node@?$_Tree_nod@V?$_Tmap_traits@KPAVCClientSockE@@U?$less@K@std@@V?$allocator@U?$pair@$$CBKPAVCClientSockE@@@std@@@3@$0A@@std@@@std@@@std@@QAEPAU_Node@?$_Tree_nod@V?$_Tmap_traits@KPAVCClientSockE@@U?$less@K@std@@V?$allocator@U?$pair@$$CBKPAVCClientSockE@@@std@@@3@$0A@@std@@@2@I@Z
_TEXT	SEGMENT PARA USE32 PUBLIC 'CODE'
_TEXT	ENDS
;	COMDAT ?destroy@?$allocator@U_Node@?$_Tree_nod@V?$_Tmap_traits@KPAVCClientSockE@@U?$less@K@std@@V?$allocator@U?$pair@$$CBKPAVCClientSockE@@@std@@@3@$0A@@std@@@std@@@std@@QAEXPAU_Node@?$_Tree_nod@V?$_Tmap_traits@KPAVCClientSockE@@U?$less@K@std@@V?$allocator@U?$pair@$$CBKPAVCClientSockE@@@std@@@3@$0A@@std@@@2@@Z
_TEXT	SEGMENT PARA USE32 PUBLIC 'CODE'
_TEXT	ENDS
;	COMDAT ?construct@?$allocator@PAU_Node@?$_Tree_nod@V?$_Tmap_traits@KPAVCClientSockE@@U?$less@K@std@@V?$allocator@U?$pair@$$CBKPAVCClientSockE@@@std@@@3@$0A@@std@@@std@@@std@@QAEXPAPAU_Node@?$_Tree_nod@V?$_Tmap_traits@KPAVCClientSockE@@U?$less@K@std@@V?$allocator@U?$pair@$$CBKPAVCClientSockE@@@std@@@3@$0A@@std@@@2@ABQAU342@@Z
_TEXT	SEGMENT PARA USE32 PUBLIC 'CODE'
_TEXT	ENDS
;	COMDAT ??Eiterator@?$_Tree@V?$_Tmap_traits@KPAVCClientSockE@@U?$less@K@std@@V?$allocator@U?$pair@$$CBKPAVCClientSockE@@@std@@@3@$0A@@std@@@std@@QAEAAV012@XZ
_TEXT	SEGMENT PARA USE32 PUBLIC 'CODE'
_TEXT	ENDS
;	COMDAT ?_Parent@?$_Tree@V?$_Tmap_traits@KP8CDPCoreClient@@AEXAAVCAr@@KKK@ZU?$less@K@std@@V?$allocator@U?$pair@$$CBKP8CDPCoreClient@@AEXAAVCAr@@KKK@Z@std@@@4@$0A@@std@@@std@@KAAAPAU_Node@?$_Tree_nod@V?$_Tmap_traits@KP8CDPCoreClient@@AEXAAVCAr@@KKK@ZU?$less@K@std@@V?$allocator@U?$pair@$$CBKP8CDPCoreClient@@AEXAAVCAr@@KKK@Z@std@@@4@$0A@@std@@@2@PAU342@@Z
_TEXT	SEGMENT PARA USE32 PUBLIC 'CODE'
_TEXT	ENDS
;	COMDAT ?_Myval@?$_Tree@V?$_Tmap_traits@KU_Friend@@U?$less@K@std@@V?$allocator@U?$pair@$$CBKU_Friend@@@std@@@3@$0A@@std@@@std@@KAAAU?$pair@$$CBKU_Friend@@@2@PAU_Node@?$_Tree_nod@V?$_Tmap_traits@KU_Friend@@U?$less@K@std@@V?$allocator@U?$pair@$$CBKU_Friend@@@std@@@3@$0A@@std@@@2@@Z
_TEXT	SEGMENT PARA USE32 PUBLIC 'CODE'
_TEXT	ENDS
;	COMDAT ?_Kfn@?$_Tmap_traits@KU_Friend@@U?$less@K@std@@V?$allocator@U?$pair@$$CBKU_Friend@@@std@@@3@$0A@@std@@SAABKABU?$pair@$$CBKU_Friend@@@2@@Z
_TEXT	SEGMENT PARA USE32 PUBLIC 'CODE'
_TEXT	ENDS
;	COMDAT ?_Inc@const_iterator@?$_Tree@V?$_Tmap_traits@KU_Friend@@U?$less@K@std@@V?$allocator@U?$pair@$$CBKU_Friend@@@std@@@3@$0A@@std@@@std@@QAEXXZ
_TEXT	SEGMENT PARA USE32 PUBLIC 'CODE'
_TEXT	ENDS
;	COMDAT ?_Myval@?$_Tree@V?$_Tmap_traits@KKU?$less@K@std@@V?$allocator@U?$pair@$$CBKK@std@@@2@$0A@@std@@@std@@KAAAU?$pair@$$CBKK@2@PAU_Node@?$_Tree_nod@V?$_Tmap_traits@KKU?$less@K@std@@V?$allocator@U?$pair@$$CBKK@std@@@2@$0A@@std@@@2@@Z
_TEXT	SEGMENT PARA USE32 PUBLIC 'CODE'
_TEXT	ENDS
;	COMDAT ?_Kfn@?$_Tmap_traits@KKU?$less@K@std@@V?$allocator@U?$pair@$$CBKK@std@@@2@$0A@@std@@SAABKABU?$pair@$$CBKK@2@@Z
_TEXT	SEGMENT PARA USE32 PUBLIC 'CODE'
_TEXT	ENDS
;	COMDAT ?_Inc@const_iterator@?$_Tree@V?$_Tmap_traits@KKU?$less@K@std@@V?$allocator@U?$pair@$$CBKK@std@@@2@$0A@@std@@@std@@QAEXXZ
_TEXT	SEGMENT PARA USE32 PUBLIC 'CODE'
_TEXT	ENDS
;	COMDAT ??0?$_Tmap_traits@KPAVCClientSock@@U?$less@K@std@@V?$allocator@U?$pair@$$CBKPAVCClientSock@@@std@@@3@$0A@@std@@QAE@U?$less@K@1@@Z
_TEXT	SEGMENT PARA USE32 PUBLIC 'CODE'
_TEXT	ENDS
;	COMDAT ??Econst_iterator@?$_Tree@V?$_Tmap_traits@KPAVCClientSock@@U?$less@K@std@@V?$allocator@U?$pair@$$CBKPAVCClientSock@@@std@@@3@$0A@@std@@@std@@QAEAAV012@XZ
_TEXT	SEGMENT PARA USE32 PUBLIC 'CODE'
_TEXT	ENDS
;	COMDAT ??0?$_Tmap_traits@KPAVCClientSockE@@U?$less@K@std@@V?$allocator@U?$pair@$$CBKPAVCClientSockE@@@std@@@3@$0A@@std@@QAE@U?$less@K@1@@Z
_TEXT	SEGMENT PARA USE32 PUBLIC 'CODE'
_TEXT	ENDS
;	COMDAT ??Econst_iterator@?$_Tree@V?$_Tmap_traits@KPAVCClientSockE@@U?$less@K@std@@V?$allocator@U?$pair@$$CBKPAVCClientSockE@@@std@@@3@$0A@@std@@@std@@QAEAAV012@XZ
_TEXT	SEGMENT PARA USE32 PUBLIC 'CODE'
_TEXT	ENDS
;	COMDAT ?_Inc@const_iterator@?$_Tree@V?$_Tmap_traits@KPAVCClientSock@@U?$less@K@std@@V?$allocator@U?$pair@$$CBKPAVCClientSock@@@std@@@3@$0A@@std@@@std@@QAEXXZ
_TEXT	SEGMENT PARA USE32 PUBLIC 'CODE'
_TEXT	ENDS
;	COMDAT ?_Inc@const_iterator@?$_Tree@V?$_Tmap_traits@KPAVCClientSockE@@U?$less@K@std@@V?$allocator@U?$pair@$$CBKPAVCClientSockE@@@std@@@3@$0A@@std@@@std@@QAEXXZ
_TEXT	SEGMENT PARA USE32 PUBLIC 'CODE'
_TEXT	ENDS
;	COMDAT ??$_Iter_cat@Vconst_iterator@?$vector@EV?$allocator@E@std@@@std@@@std@@YA?AUrandom_access_iterator_tag@0@ABVconst_iterator@?$vector@EV?$allocator@E@std@@@0@@Z
_TEXT	SEGMENT PARA USE32 PUBLIC 'CODE'
_TEXT	ENDS
;	COMDAT ??$_Assign@Vconst_iterator@?$vector@EV?$allocator@E@std@@@std@@@?$vector@EV?$allocator@E@std@@@std@@QAEXVconst_iterator@01@0Uinput_iterator_tag@1@@Z
_TEXT	SEGMENT PARA USE32 PUBLIC 'CODE'
_TEXT	ENDS
;	COMDAT ??$_Iter_cat@Viterator@?$_Tree@V?$_Tmap_traits@KPAVCUser@@U?$less@K@std@@V?$allocator@U?$pair@$$CBKPAVCUser@@@std@@@3@$0A@@std@@@std@@@std@@YA?AUbidirectional_iterator_tag@0@ABViterator@?$_Tree@V?$_Tmap_traits@KPAVCUser@@U?$less@K@std@@V?$allocator@U?$pair@$$CBKPAVCUser@@@std@@@3@$0A@@std@@@0@@Z
_TEXT	SEGMENT PARA USE32 PUBLIC 'CODE'
_TEXT	ENDS
;	COMDAT ??$_Distance2@Viterator@?$_Tree@V?$_Tmap_traits@KPAVCUser@@U?$less@K@std@@V?$allocator@U?$pair@$$CBKPAVCUser@@@std@@@3@$0A@@std@@@std@@I@std@@YAXViterator@?$_Tree@V?$_Tmap_traits@KPAVCUser@@U?$less@K@std@@V?$allocator@U?$pair@$$CBKPAVCUser@@@std@@@3@$0A@@std@@@0@0AAIUbidirectional_iterator_tag@0@@Z
_TEXT	SEGMENT PARA USE32 PUBLIC 'CODE'
_TEXT	ENDS
;	COMDAT ??$_Iter_cat@Viterator@?$_Tree@V?$_Tmap_traits@KPAVCCtrl@@U?$less@K@std@@V?$allocator@U?$pair@$$CBKPAVCCtrl@@@std@@@3@$0A@@std@@@std@@@std@@YA?AUbidirectional_iterator_tag@0@ABViterator@?$_Tree@V?$_Tmap_traits@KPAVCCtrl@@U?$less@K@std@@V?$allocator@U?$pair@$$CBKPAVCCtrl@@@std@@@3@$0A@@std@@@0@@Z
_TEXT	SEGMENT PARA USE32 PUBLIC 'CODE'
_TEXT	ENDS
;	COMDAT ??$_Distance2@Viterator@?$_Tree@V?$_Tmap_traits@KPAVCCtrl@@U?$less@K@std@@V?$allocator@U?$pair@$$CBKPAVCCtrl@@@std@@@3@$0A@@std@@@std@@I@std@@YAXViterator@?$_Tree@V?$_Tmap_traits@KPAVCCtrl@@U?$less@K@std@@V?$allocator@U?$pair@$$CBKPAVCCtrl@@@std@@@3@$0A@@std@@@0@0AAIUbidirectional_iterator_tag@0@@Z
_TEXT	SEGMENT PARA USE32 PUBLIC 'CODE'
_TEXT	ENDS
;	COMDAT ??$_Uninitialized_copy@Vconst_iterator@?$vector@EV?$allocator@E@std@@@std@@PAEV?$allocator@E@3@@std@@YAPAEVconst_iterator@?$vector@EV?$allocator@E@std@@@0@0PAEAAV?$allocator@E@0@@Z
_TEXT	SEGMENT PARA USE32 PUBLIC 'CODE'
_TEXT	ENDS
;	COMDAT ??$_Iter_cat@Viterator@?$_Tree@V?$_Tmap_traits@KEU?$less@K@std@@V?$allocator@U?$pair@$$CBKE@std@@@2@$0A@@std@@@std@@@std@@YA?AUbidirectional_iterator_tag@0@ABViterator@?$_Tree@V?$_Tmap_traits@KEU?$less@K@std@@V?$allocator@U?$pair@$$CBKE@std@@@2@$0A@@std@@@0@@Z
_TEXT	SEGMENT PARA USE32 PUBLIC 'CODE'
_TEXT	ENDS
;	COMDAT ??$_Distance2@Viterator@?$_Tree@V?$_Tmap_traits@KEU?$less@K@std@@V?$allocator@U?$pair@$$CBKE@std@@@2@$0A@@std@@@std@@I@std@@YAXViterator@?$_Tree@V?$_Tmap_traits@KEU?$less@K@std@@V?$allocator@U?$pair@$$CBKE@std@@@2@$0A@@std@@@0@0AAIUbidirectional_iterator_tag@0@@Z
_TEXT	SEGMENT PARA USE32 PUBLIC 'CODE'
_TEXT	ENDS
;	COMDAT ??$_Ptr_cat@PAU__SPAWNREGION@CEventLua@@PAU12@@std@@YA?AU_Nonscalar_ptr_iterator_tag@0@AAPAU__SPAWNREGION@CEventLua@@0@Z
_TEXT	SEGMENT PARA USE32 PUBLIC 'CODE'
_TEXT	ENDS
;	COMDAT ??$_Uninit_fill_n@PAU__SPAWNREGION@CEventLua@@IU12@V?$allocator@U__SPAWNREGION@CEventLua@@@std@@@std@@YAXPAU__SPAWNREGION@CEventLua@@IABU12@AAV?$allocator@U__SPAWNREGION@CEventLua@@@0@U_Nonscalar_ptr_iterator_tag@0@@Z
_TEXT	SEGMENT PARA USE32 PUBLIC 'CODE'
_TEXT	ENDS
;	COMDAT ??$_Copy_opt@PAJPAJ@std@@YAPAJPAJ00U_Scalar_ptr_iterator_tag@0@@Z
_TEXT	SEGMENT PARA USE32 PUBLIC 'CODE'
_TEXT	ENDS
;	COMDAT ??$_Uninitialized_copy@PAJPAJV?$allocator@J@std@@@std@@YAPAJPAJ00AAV?$allocator@J@0@@Z
_TEXT	SEGMENT PARA USE32 PUBLIC 'CODE'
_TEXT	ENDS
;	COMDAT ??$_Copy_backward_opt@PAJPAJ@std@@YAPAJPAJ00U_Scalar_ptr_iterator_tag@0@@Z
_TEXT	SEGMENT PARA USE32 PUBLIC 'CODE'
_TEXT	ENDS
;	COMDAT ??$_Ptr_cat@PAUtagDROPITEM@@PAU1@@std@@YA?AU_Nonscalar_ptr_iterator_tag@0@AAPAUtagDROPITEM@@0@Z
_TEXT	SEGMENT PARA USE32 PUBLIC 'CODE'
_TEXT	ENDS
;	COMDAT ??$_Destroy_range@UtagDROPITEM@@V?$allocator@UtagDROPITEM@@@std@@@std@@YAXPAUtagDROPITEM@@0AAV?$allocator@UtagDROPITEM@@@0@U_Nonscalar_ptr_iterator_tag@0@@Z
_TEXT	SEGMENT PARA USE32 PUBLIC 'CODE'
_TEXT	ENDS
;	COMDAT ??$_Ptr_cat@PAUWORMON@@PAU1@@std@@YA?AU_Nonscalar_ptr_iterator_tag@0@AAPAUWORMON@@0@Z
_TEXT	SEGMENT PARA USE32 PUBLIC 'CODE'
_TEXT	ENDS
;	COMDAT ??$_Destroy_range@UWORMON@@V?$allocator@UWORMON@@@std@@@std@@YAXPAUWORMON@@0AAV?$allocator@UWORMON@@@0@U_Nonscalar_ptr_iterator_tag@0@@Z
_TEXT	SEGMENT PARA USE32 PUBLIC 'CODE'
_TEXT	ENDS
;	COMDAT ??$_Ptr_cat@PAU__ITEMGAME@CMiniGame@@PAU12@@std@@YA?AU_Nonscalar_ptr_iterator_tag@0@AAPAU__ITEMGAME@CMiniGame@@0@Z
_TEXT	SEGMENT PARA USE32 PUBLIC 'CODE'
_TEXT	ENDS
;	COMDAT ??$_Destroy_range@U__ITEMGAME@CMiniGame@@V?$allocator@U__ITEMGAME@CMiniGame@@@std@@@std@@YAXPAU__ITEMGAME@CMiniGame@@0AAV?$allocator@U__ITEMGAME@CMiniGame@@@0@U_Nonscalar_ptr_iterator_tag@0@@Z
_TEXT	SEGMENT PARA USE32 PUBLIC 'CODE'
_TEXT	ENDS
;	COMDAT ??$_Destroy_range@KV?$allocator@K@std@@@std@@YAXPAK0AAV?$allocator@K@0@U_Scalar_ptr_iterator_tag@0@@Z
_TEXT	SEGMENT PARA USE32 PUBLIC 'CODE'
_TEXT	ENDS
;	COMDAT ??$_Destroy_range@HV?$allocator@H@std@@@std@@YAXPAH0AAV?$allocator@H@0@U_Scalar_ptr_iterator_tag@0@@Z
_TEXT	SEGMENT PARA USE32 PUBLIC 'CODE'
_TEXT	ENDS
;	COMDAT ??$_Ptr_cat@PAU__ITEM@CExchange@@PAU12@@std@@YA?AU_Nonscalar_ptr_iterator_tag@0@AAPAU__ITEM@CExchange@@0@Z
_TEXT	SEGMENT PARA USE32 PUBLIC 'CODE'
_TEXT	ENDS
;	COMDAT ??$_Destroy_range@U__ITEM@CExchange@@V?$allocator@U__ITEM@CExchange@@@std@@@std@@YAXPAU__ITEM@CExchange@@0AAV?$allocator@U__ITEM@CExchange@@@0@U_Nonscalar_ptr_iterator_tag@0@@Z
_TEXT	SEGMENT PARA USE32 PUBLIC 'CODE'
_TEXT	ENDS
;	COMDAT ??$_Ptr_cat@PAU__POINT@CExchange@@PAU12@@std@@YA?AU_Nonscalar_ptr_iterator_tag@0@AAPAU__POINT@CExchange@@0@Z
_TEXT	SEGMENT PARA USE32 PUBLIC 'CODE'
_TEXT	ENDS
;	COMDAT ??$_Destroy_range@U__POINT@CExchange@@V?$allocator@U__POINT@CExchange@@@std@@@std@@YAXPAU__POINT@CExchange@@0AAV?$allocator@U__POINT@CExchange@@@0@U_Nonscalar_ptr_iterator_tag@0@@Z
_TEXT	SEGMENT PARA USE32 PUBLIC 'CODE'
_TEXT	ENDS
;	COMDAT ??$_Destroy_range@EV?$allocator@E@std@@@std@@YAXPAE0AAV?$allocator@E@0@U_Scalar_ptr_iterator_tag@0@@Z
_TEXT	SEGMENT PARA USE32 PUBLIC 'CODE'
_TEXT	ENDS
;	COMDAT ??$_Uninitialized_copy@PAU__SPAWNREGION@CEventLua@@PAU12@V?$allocator@U__SPAWNREGION@CEventLua@@@std@@@std@@YAPAU__SPAWNREGION@CEventLua@@PAU12@00AAV?$allocator@U__SPAWNREGION@CEventLua@@@0@@Z
_TEXT	SEGMENT PARA USE32 PUBLIC 'CODE'
_TEXT	ENDS
;	COMDAT ??$_Copy_backward_opt@PAU__SPAWNREGION@CEventLua@@PAU12@@std@@YAPAU__SPAWNREGION@CEventLua@@PAU12@00U_Nonscalar_ptr_iterator_tag@0@@Z
_TEXT	SEGMENT PARA USE32 PUBLIC 'CODE'
_TEXT	ENDS
;	COMDAT ??$_Ptr_cat@PAUD3DXVECTOR3@@PAU1@@std@@YA?AU_Nonscalar_ptr_iterator_tag@0@AAPAUD3DXVECTOR3@@0@Z
_TEXT	SEGMENT PARA USE32 PUBLIC 'CODE'
_TEXT	ENDS
;	COMDAT ??$_Destroy_range@UD3DXVECTOR3@@V?$allocator@UD3DXVECTOR3@@@std@@@std@@YAXPAUD3DXVECTOR3@@0AAV?$allocator@UD3DXVECTOR3@@@0@U_Nonscalar_ptr_iterator_tag@0@@Z
_TEXT	SEGMENT PARA USE32 PUBLIC 'CODE'
_TEXT	ENDS
;	COMDAT ??$_Ptr_cat@PAU_GIFTBOX@@PAU1@@std@@YA?AU_Nonscalar_ptr_iterator_tag@0@AAPAU_GIFTBOX@@0@Z
_TEXT	SEGMENT PARA USE32 PUBLIC 'CODE'
_TEXT	ENDS
;	COMDAT ??$_Destroy_range@U_GIFTBOX@@V?$allocator@U_GIFTBOX@@@std@@@std@@YAXPAU_GIFTBOX@@0AAV?$allocator@U_GIFTBOX@@@0@U_Nonscalar_ptr_iterator_tag@0@@Z
_TEXT	SEGMENT PARA USE32 PUBLIC 'CODE'
_TEXT	ENDS
;	COMDAT ??$_Destroy_range@JV?$allocator@J@std@@@std@@YAXPAJ0AAV?$allocator@J@0@U_Scalar_ptr_iterator_tag@0@@Z
_TEXT	SEGMENT PARA USE32 PUBLIC 'CODE'
_TEXT	ENDS
;	COMDAT ??$_Uninit_fill_n@JIJ@std@@YAXPAJIABJAAV?$allocator@J@0@U_Scalar_ptr_iterator_tag@0@@Z
_TEXT	SEGMENT PARA USE32 PUBLIC 'CODE'
_TEXT	ENDS
;	COMDAT ??$_Destroy_range@U__SPAWNREGION@CEventLua@@V?$allocator@U__SPAWNREGION@CEventLua@@@std@@@std@@YAXPAU__SPAWNREGION@CEventLua@@0AAV?$allocator@U__SPAWNREGION@CEventLua@@@0@U_Nonscalar_ptr_iterator_tag@0@@Z
_TEXT	SEGMENT PARA USE32 PUBLIC 'CODE'
_TEXT	ENDS
;	COMDAT ??$make_pair@KPAVCGuildHouseBase@@@std@@YA?AU?$pair@KPAVCGuildHouseBase@@@0@KPAVCGuildHouseBase@@@Z
_TEXT	SEGMENT PARA USE32 PUBLIC 'CODE'
_TEXT	ENDS
;	COMDAT ??$?0KPAVCGuildHouseBase@@@?$pair@$$CBKPAVCGuildHouseBase@@@std@@QAE@ABU?$pair@KPAVCGuildHouseBase@@@1@@Z
_TEXT	SEGMENT PARA USE32 PUBLIC 'CODE'
_TEXT	ENDS
;	COMDAT ??$copy@PAKPAK@std@@YAPAKPAK00@Z
_TEXT	SEGMENT PARA USE32 PUBLIC 'CODE'
_TEXT	ENDS
;	COMDAT ??$_Distance@Viterator@?$_Tree@V?$_Tmap_traits@KU_Friend@@U?$less@K@std@@V?$allocator@U?$pair@$$CBKU_Friend@@@std@@@3@$0A@@std@@@std@@I@std@@YAXViterator@?$_Tree@V?$_Tmap_traits@KU_Friend@@U?$less@K@std@@V?$allocator@U?$pair@$$CBKU_Friend@@@std@@@3@$0A@@std@@@0@0AAI@Z
_TEXT	SEGMENT PARA USE32 PUBLIC 'CODE'
_TEXT	ENDS
;	COMDAT ??$_Distance@Viterator@?$_Tree@V?$_Tmap_traits@KKU?$less@K@std@@V?$allocator@U?$pair@$$CBKK@std@@@2@$0A@@std@@@std@@I@std@@YAXViterator@?$_Tree@V?$_Tmap_traits@KKU?$less@K@std@@V?$allocator@U?$pair@$$CBKK@std@@@2@$0A@@std@@@0@0AAI@Z
_TEXT	SEGMENT PARA USE32 PUBLIC 'CODE'
_TEXT	ENDS
;	COMDAT ??$_Uninitialized_fill_n@PAKIKV?$allocator@K@std@@@std@@YAXPAKIABKAAV?$allocator@K@0@@Z
_TEXT	SEGMENT PARA USE32 PUBLIC 'CODE'
_TEXT	ENDS
;	COMDAT ??$_Destroy@U_Node@?$_List_nod@PAU__JOINPLAYER@CGuildCombat@@V?$allocator@PAU__JOINPLAYER@CGuildCombat@@@std@@@std@@@std@@YAXPAU_Node@?$_List_nod@PAU__JOINPLAYER@CGuildCombat@@V?$allocator@PAU__JOINPLAYER@CGuildCombat@@@std@@@0@@Z
_TEXT	SEGMENT PARA USE32 PUBLIC 'CODE'
_TEXT	ENDS
;	COMDAT ??$_Uninitialized_fill_n@PAV?$basic_string@DU?$char_traits@D@std@@V?$allocator@D@2@@std@@IV12@V?$allocator@V?$basic_string@DU?$char_traits@D@std@@V?$allocator@D@2@@std@@@2@@std@@YAXPAV?$basic_string@DU?$char_traits@D@std@@V?$allocator@D@2@@0@IABV10@AAV?$allocator@V?$basic_string@DU?$char_traits@D@std@@V?$allocator@D@2@@std@@@0@@Z
_TEXT	SEGMENT PARA USE32 PUBLIC 'CODE'
_TEXT	ENDS
;	COMDAT ??$_Uninitialized_fill_n@PAUMINIGMAME_PRIZE_LIST@CRainbowRaceMng@@IU12@V?$allocator@UMINIGMAME_PRIZE_LIST@CRainbowRaceMng@@@std@@@std@@YAXPAUMINIGMAME_PRIZE_LIST@CRainbowRaceMng@@IABU12@AAV?$allocator@UMINIGMAME_PRIZE_LIST@CRainbowRaceMng@@@0@@Z
_TEXT	SEGMENT PARA USE32 PUBLIC 'CODE'
_TEXT	ENDS
;	COMDAT ??$_Allocate@V?$basic_string@DU?$char_traits@D@std@@V?$allocator@D@2@@std@@@std@@YAPAV?$basic_string@DU?$char_traits@D@std@@V?$allocator@D@2@@0@IPAV10@@Z
_TEXT	SEGMENT PARA USE32 PUBLIC 'CODE'
_TEXT	ENDS
;	COMDAT ??$_Ucopy@PAK@?$vector@KV?$allocator@K@std@@@std@@IAEPAKPAK00@Z
_TEXT	SEGMENT PARA USE32 PUBLIC 'CODE'
_TEXT	ENDS
;	COMDAT ??$fill@PAKK@std@@YAXPAK0ABK@Z
_TEXT	SEGMENT PARA USE32 PUBLIC 'CODE'
_TEXT	ENDS
;	COMDAT ??$copy_backward@PAKPAK@std@@YAPAKPAK00@Z
_TEXT	SEGMENT PARA USE32 PUBLIC 'CODE'
_TEXT	ENDS
;	COMDAT ??$?0PAUtagACTMSG@@@?$allocator@PAPAUtagACTMSG@@@std@@QAE@ABV?$allocator@PAUtagACTMSG@@@1@@Z
_TEXT	SEGMENT PARA USE32 PUBLIC 'CODE'
_TEXT	ENDS
;	COMDAT ??$_Destroy@PAPAUtagACTMSG@@@std@@YAXPAPAPAUtagACTMSG@@@Z
_TEXT	SEGMENT PARA USE32 PUBLIC 'CODE'
_TEXT	ENDS
;	COMDAT ??$?0PAUtagMAGICATKMSG@@@?$allocator@PAPAUtagMAGICATKMSG@@@std@@QAE@ABV?$allocator@PAUtagMAGICATKMSG@@@1@@Z
_TEXT	SEGMENT PARA USE32 PUBLIC 'CODE'
_TEXT	ENDS
;	COMDAT ??$_Destroy@PAPAUtagMAGICATKMSG@@@std@@YAXPAPAPAUtagMAGICATKMSG@@@Z
_TEXT	SEGMENT PARA USE32 PUBLIC 'CODE'
_TEXT	ENDS
;	COMDAT ??$_Destroy_range@PAU__JOINPLAYER@CGuildCombat@@V?$allocator@PAU__JOINPLAYER@CGuildCombat@@@std@@@std@@YAXPAPAU__JOINPLAYER@CGuildCombat@@0AAV?$allocator@PAU__JOINPLAYER@CGuildCombat@@@0@@Z
_TEXT	SEGMENT PARA USE32 PUBLIC 'CODE'
_TEXT	ENDS
;	COMDAT ??$_Destroy_range@U__SECRETROOM_MONSTER@@V?$allocator@U__SECRETROOM_MONSTER@@@std@@@std@@YAXPAU__SECRETROOM_MONSTER@@0AAV?$allocator@U__SECRETROOM_MONSTER@@@0@@Z
_TEXT	SEGMENT PARA USE32 PUBLIC 'CODE'
_TEXT	ENDS
;	COMDAT ??$_Allocate@U__SECRETROOM_MONSTER@@@std@@YAPAU__SECRETROOM_MONSTER@@IPAU1@@Z
_TEXT	SEGMENT PARA USE32 PUBLIC 'CODE'
_TEXT	ENDS
;	COMDAT ??$_Destroy_range@V?$basic_string@DU?$char_traits@D@std@@V?$allocator@D@2@@std@@V?$allocator@V?$basic_string@DU?$char_traits@D@std@@V?$allocator@D@2@@std@@@2@@std@@YAXPAV?$basic_string@DU?$char_traits@D@std@@V?$allocator@D@2@@0@0AAV?$allocator@V?$basic_string@DU?$char_traits@D@std@@V?$allocator@D@2@@std@@@0@@Z
_TEXT	SEGMENT PARA USE32 PUBLIC 'CODE'
_TEXT	ENDS
;	COMDAT ??$_Ucopy@PAV?$basic_string@DU?$char_traits@D@std@@V?$allocator@D@2@@std@@@?$vector@V?$basic_string@DU?$char_traits@D@std@@V?$allocator@D@2@@std@@V?$allocator@V?$basic_string@DU?$char_traits@D@std@@V?$allocator@D@2@@std@@@2@@std@@IAEPAV?$basic_string@DU?$char_traits@D@std@@V?$allocator@D@2@@1@PAV21@00@Z
_TEXT	SEGMENT PARA USE32 PUBLIC 'CODE'
_TEXT	ENDS
;	COMDAT ??$fill@PAV?$basic_string@DU?$char_traits@D@std@@V?$allocator@D@2@@std@@V12@@std@@YAXPAV?$basic_string@DU?$char_traits@D@std@@V?$allocator@D@2@@0@0ABV10@@Z
_TEXT	SEGMENT PARA USE32 PUBLIC 'CODE'
_TEXT	ENDS
;	COMDAT ??$copy_backward@PAV?$basic_string@DU?$char_traits@D@std@@V?$allocator@D@2@@std@@PAV12@@std@@YAPAV?$basic_string@DU?$char_traits@D@std@@V?$allocator@D@2@@0@PAV10@00@Z
_TEXT	SEGMENT PARA USE32 PUBLIC 'CODE'
_TEXT	ENDS
;	COMDAT ??$_Ucopy@PAUMINIGMAME_PRIZE_LIST@CRainbowRaceMng@@@?$vector@UMINIGMAME_PRIZE_LIST@CRainbowRaceMng@@V?$allocator@UMINIGMAME_PRIZE_LIST@CRainbowRaceMng@@@std@@@std@@IAEPAUMINIGMAME_PRIZE_LIST@CRainbowRaceMng@@PAU23@00@Z
_TEXT	SEGMENT PARA USE32 PUBLIC 'CODE'
_TEXT	ENDS
;	COMDAT ??$fill@PAUMINIGMAME_PRIZE_LIST@CRainbowRaceMng@@U12@@std@@YAXPAUMINIGMAME_PRIZE_LIST@CRainbowRaceMng@@0ABU12@@Z
_TEXT	SEGMENT PARA USE32 PUBLIC 'CODE'
_TEXT	ENDS
;	COMDAT ??$copy_backward@PAUMINIGMAME_PRIZE_LIST@CRainbowRaceMng@@PAU12@@std@@YAPAUMINIGMAME_PRIZE_LIST@CRainbowRaceMng@@PAU12@00@Z
_TEXT	SEGMENT PARA USE32 PUBLIC 'CODE'
_TEXT	ENDS
;	COMDAT ??$_Destroy@PAU_Node@?$_Tree_nod@V?$_Tmap_traits@KPAVCClientSock@@U?$less@K@std@@V?$allocator@U?$pair@$$CBKPAVCClientSock@@@std@@@3@$0A@@std@@@std@@@std@@YAXPAPAU_Node@?$_Tree_nod@V?$_Tmap_traits@KPAVCClientSock@@U?$less@K@std@@V?$allocator@U?$pair@$$CBKPAVCClientSock@@@std@@@3@$0A@@std@@@0@@Z
_TEXT	SEGMENT PARA USE32 PUBLIC 'CODE'
_TEXT	ENDS
;	COMDAT ??$_Destroy@PAU_Node@?$_Tree_nod@V?$_Tmap_traits@KPAVCClientSockE@@U?$less@K@std@@V?$allocator@U?$pair@$$CBKPAVCClientSockE@@@std@@@3@$0A@@std@@@std@@@std@@YAXPAPAU_Node@?$_Tree_nod@V?$_Tmap_traits@KPAVCClientSockE@@U?$less@K@std@@V?$allocator@U?$pair@$$CBKPAVCClientSockE@@@std@@@3@$0A@@std@@@0@@Z
_TEXT	SEGMENT PARA USE32 PUBLIC 'CODE'
_TEXT	ENDS
;	COMDAT ??$_Destroy@PAUtagACTMSG@@@std@@YAXPAPAUtagACTMSG@@@Z
_TEXT	SEGMENT PARA USE32 PUBLIC 'CODE'
_TEXT	ENDS
;	COMDAT ??$_Destroy@PAUtagMAGICATKMSG@@@std@@YAXPAPAUtagMAGICATKMSG@@@Z
_TEXT	SEGMENT PARA USE32 PUBLIC 'CODE'
_TEXT	ENDS
;	COMDAT ??$_Destroy@U_Node@?$_Tree_nod@V?$_Tmap_traits@KU_Friend@@U?$less@K@std@@V?$allocator@U?$pair@$$CBKU_Friend@@@std@@@3@$0A@@std@@@std@@@std@@YAXPAU_Node@?$_Tree_nod@V?$_Tmap_traits@KU_Friend@@U?$less@K@std@@V?$allocator@U?$pair@$$CBKU_Friend@@@std@@@3@$0A@@std@@@0@@Z
_TEXT	SEGMENT PARA USE32 PUBLIC 'CODE'
_TEXT	ENDS
;	COMDAT ??$_Destroy_range@UMINIGMAME_PRIZE_LIST@CRainbowRaceMng@@V?$allocator@UMINIGMAME_PRIZE_LIST@CRainbowRaceMng@@@std@@@std@@YAXPAUMINIGMAME_PRIZE_LIST@CRainbowRaceMng@@0AAV?$allocator@UMINIGMAME_PRIZE_LIST@CRainbowRaceMng@@@0@@Z
_TEXT	SEGMENT PARA USE32 PUBLIC 'CODE'
_TEXT	ENDS
;	COMDAT ??$_Allocate@UMINIGMAME_PRIZE_LIST@CRainbowRaceMng@@@std@@YAPAUMINIGMAME_PRIZE_LIST@CRainbowRaceMng@@IPAU12@@Z
_TEXT	SEGMENT PARA USE32 PUBLIC 'CODE'
_TEXT	ENDS
;	COMDAT ??$_Allocate@U_Node@?$_Tree_nod@V?$_Tmap_traits@KPAVCGuildHouseBase@@U?$less@K@std@@V?$allocator@U?$pair@$$CBKPAVCGuildHouseBase@@@std@@@3@$0A@@std@@@std@@@std@@YAPAU_Node@?$_Tree_nod@V?$_Tmap_traits@KPAVCGuildHouseBase@@U?$less@K@std@@V?$allocator@U?$pair@$$CBKPAVCGuildHouseBase@@@std@@@3@$0A@@std@@@0@IPAU120@@Z
_TEXT	SEGMENT PARA USE32 PUBLIC 'CODE'
_TEXT	ENDS
;	COMDAT ??$_Destroy@U_Node@?$_Tree_nod@V?$_Tmap_traits@KKU?$less@K@std@@V?$allocator@U?$pair@$$CBKK@std@@@2@$0A@@std@@@std@@@std@@YAXPAU_Node@?$_Tree_nod@V?$_Tmap_traits@KKU?$less@K@std@@V?$allocator@U?$pair@$$CBKK@std@@@2@$0A@@std@@@0@@Z
_TEXT	SEGMENT PARA USE32 PUBLIC 'CODE'
_TEXT	ENDS
;	COMDAT ??$?0U?$pair@$$CBKPAVCClientSock@@@std@@@?$allocator@PAU_Node@?$_Tree_nod@V?$_Tmap_traits@KPAVCClientSock@@U?$less@K@std@@V?$allocator@U?$pair@$$CBKPAVCClientSock@@@std@@@3@$0A@@std@@@std@@@std@@QAE@ABV?$allocator@U?$pair@$$CBKPAVCClientSock@@@std@@@1@@Z
_TEXT	SEGMENT PARA USE32 PUBLIC 'CODE'
_TEXT	ENDS
;	COMDAT ??$?0U?$pair@$$CBKPAVCClientSockE@@@std@@@?$allocator@PAU_Node@?$_Tree_nod@V?$_Tmap_traits@KPAVCClientSockE@@U?$less@K@std@@V?$allocator@U?$pair@$$CBKPAVCClientSockE@@@std@@@3@$0A@@std@@@std@@@std@@QAE@ABV?$allocator@U?$pair@$$CBKPAVCClientSockE@@@std@@@1@@Z
_TEXT	SEGMENT PARA USE32 PUBLIC 'CODE'
_TEXT	ENDS
;	COMDAT ??$?0U?$pair@$$CBKPAVCClientSock@@@std@@@?$allocator@U_Node@?$_Tree_nod@V?$_Tmap_traits@KPAVCClientSock@@U?$less@K@std@@V?$allocator@U?$pair@$$CBKPAVCClientSock@@@std@@@3@$0A@@std@@@std@@@std@@QAE@ABV?$allocator@U?$pair@$$CBKPAVCClientSock@@@std@@@1@@Z
_TEXT	SEGMENT PARA USE32 PUBLIC 'CODE'
_TEXT	ENDS
;	COMDAT ??$_Allocate@U_Node@?$_Tree_nod@V?$_Tmap_traits@KPAVCClientSock@@U?$less@K@std@@V?$allocator@U?$pair@$$CBKPAVCClientSock@@@std@@@3@$0A@@std@@@std@@@std@@YAPAU_Node@?$_Tree_nod@V?$_Tmap_traits@KPAVCClientSock@@U?$less@K@std@@V?$allocator@U?$pair@$$CBKPAVCClientSock@@@std@@@3@$0A@@std@@@0@IPAU120@@Z
_TEXT	SEGMENT PARA USE32 PUBLIC 'CODE'
_TEXT	ENDS
;	COMDAT ??$_Destroy@U_Node@?$_Tree_nod@V?$_Tmap_traits@KPAVCClientSock@@U?$less@K@std@@V?$allocator@U?$pair@$$CBKPAVCClientSock@@@std@@@3@$0A@@std@@@std@@@std@@YAXPAU_Node@?$_Tree_nod@V?$_Tmap_traits@KPAVCClientSock@@U?$less@K@std@@V?$allocator@U?$pair@$$CBKPAVCClientSock@@@std@@@3@$0A@@std@@@0@@Z
_TEXT	SEGMENT PARA USE32 PUBLIC 'CODE'
_TEXT	ENDS
;	COMDAT ??$_Construct@PAU_Node@?$_Tree_nod@V?$_Tmap_traits@KPAVCClientSock@@U?$less@K@std@@V?$allocator@U?$pair@$$CBKPAVCClientSock@@@std@@@3@$0A@@std@@@std@@PAU123@@std@@YAXPAPAU_Node@?$_Tree_nod@V?$_Tmap_traits@KPAVCClientSock@@U?$less@K@std@@V?$allocator@U?$pair@$$CBKPAVCClientSock@@@std@@@3@$0A@@std@@@0@ABQAU120@@Z
_TEXT	SEGMENT PARA USE32 PUBLIC 'CODE'
_TEXT	ENDS
;	COMDAT ??$?0U?$pair@$$CBKPAVCClientSockE@@@std@@@?$allocator@U_Node@?$_Tree_nod@V?$_Tmap_traits@KPAVCClientSockE@@U?$less@K@std@@V?$allocator@U?$pair@$$CBKPAVCClientSockE@@@std@@@3@$0A@@std@@@std@@@std@@QAE@ABV?$allocator@U?$pair@$$CBKPAVCClientSockE@@@std@@@1@@Z
_TEXT	SEGMENT PARA USE32 PUBLIC 'CODE'
_TEXT	ENDS
;	COMDAT ??$_Allocate@U_Node@?$_Tree_nod@V?$_Tmap_traits@KPAVCClientSockE@@U?$less@K@std@@V?$allocator@U?$pair@$$CBKPAVCClientSockE@@@std@@@3@$0A@@std@@@std@@@std@@YAPAU_Node@?$_Tree_nod@V?$_Tmap_traits@KPAVCClientSockE@@U?$less@K@std@@V?$allocator@U?$pair@$$CBKPAVCClientSockE@@@std@@@3@$0A@@std@@@0@IPAU120@@Z
_TEXT	SEGMENT PARA USE32 PUBLIC 'CODE'
_TEXT	ENDS
;	COMDAT ??$_Destroy@U_Node@?$_Tree_nod@V?$_Tmap_traits@KPAVCClientSockE@@U?$less@K@std@@V?$allocator@U?$pair@$$CBKPAVCClientSockE@@@std@@@3@$0A@@std@@@std@@@std@@YAXPAU_Node@?$_Tree_nod@V?$_Tmap_traits@KPAVCClientSockE@@U?$less@K@std@@V?$allocator@U?$pair@$$CBKPAVCClientSockE@@@std@@@3@$0A@@std@@@0@@Z
_TEXT	SEGMENT PARA USE32 PUBLIC 'CODE'
_TEXT	ENDS
;	COMDAT ??$_Construct@PAU_Node@?$_Tree_nod@V?$_Tmap_traits@KPAVCClientSockE@@U?$less@K@std@@V?$allocator@U?$pair@$$CBKPAVCClientSockE@@@std@@@3@$0A@@std@@@std@@PAU123@@std@@YAXPAPAU_Node@?$_Tree_nod@V?$_Tmap_traits@KPAVCClientSockE@@U?$less@K@std@@V?$allocator@U?$pair@$$CBKPAVCClientSockE@@@std@@@3@$0A@@std@@@0@ABQAU120@@Z
_TEXT	SEGMENT PARA USE32 PUBLIC 'CODE'
_TEXT	ENDS
;	COMDAT ?destroy@?$allocator@UtagDROPITEM@@@std@@QAEXPAUtagDROPITEM@@@Z
_TEXT	SEGMENT PARA USE32 PUBLIC 'CODE'
_TEXT	ENDS
;	COMDAT ?destroy@?$allocator@UWORMON@@@std@@QAEXPAUWORMON@@@Z
_TEXT	SEGMENT PARA USE32 PUBLIC 'CODE'
_TEXT	ENDS
;	COMDAT ?destroy@?$allocator@U__ITEMGAME@CMiniGame@@@std@@QAEXPAU__ITEMGAME@CMiniGame@@@Z
_TEXT	SEGMENT PARA USE32 PUBLIC 'CODE'
_TEXT	ENDS
;	COMDAT ?destroy@?$allocator@U__ITEM@CExchange@@@std@@QAEXPAU__ITEM@CExchange@@@Z
_TEXT	SEGMENT PARA USE32 PUBLIC 'CODE'
_TEXT	ENDS
;	COMDAT ?destroy@?$allocator@U__POINT@CExchange@@@std@@QAEXPAU__POINT@CExchange@@@Z
_TEXT	SEGMENT PARA USE32 PUBLIC 'CODE'
_TEXT	ENDS
;	COMDAT ?begin@?$vector@EV?$allocator@E@std@@@std@@QAE?AViterator@12@XZ
_TEXT	SEGMENT PARA USE32 PUBLIC 'CODE'
_TEXT	ENDS
;	COMDAT ?end@?$vector@EV?$allocator@E@std@@@std@@QAE?AViterator@12@XZ
_TEXT	SEGMENT PARA USE32 PUBLIC 'CODE'
_TEXT	ENDS
;	COMDAT ?erase@?$vector@EV?$allocator@E@std@@@std@@QAE?AViterator@12@V312@0@Z
_TEXT	SEGMENT PARA USE32 PUBLIC 'CODE'
_TEXT	ENDS
;	COMDAT ?construct@?$allocator@U__SPAWNREGION@CEventLua@@@std@@QAEXPAU__SPAWNREGION@CEventLua@@ABU34@@Z
_TEXT	SEGMENT PARA USE32 PUBLIC 'CODE'
_TEXT	ENDS
;	COMDAT ?destroy@?$allocator@U__SPAWNREGION@CEventLua@@@std@@QAEXPAU__SPAWNREGION@CEventLua@@@Z
_TEXT	SEGMENT PARA USE32 PUBLIC 'CODE'
_TEXT	ENDS
;	COMDAT ?destroy@?$allocator@UD3DXVECTOR3@@@std@@QAEXPAUD3DXVECTOR3@@@Z
_TEXT	SEGMENT PARA USE32 PUBLIC 'CODE'
_TEXT	ENDS
;	COMDAT ?destroy@?$allocator@U_GIFTBOX@@@std@@QAEXPAU_GIFTBOX@@@Z
_TEXT	SEGMENT PARA USE32 PUBLIC 'CODE'
_TEXT	ENDS
;	COMDAT ??0?$pair@KPAVCGuildHouseBase@@@std@@QAE@ABKABQAVCGuildHouseBase@@@Z
_TEXT	SEGMENT PARA USE32 PUBLIC 'CODE'
_TEXT	ENDS
;	COMDAT ??9const_iterator@?$vector@EV?$allocator@E@std@@@std@@QBE_NABV012@@Z
_TEXT	SEGMENT PARA USE32 PUBLIC 'CODE'
_TEXT	ENDS
;	COMDAT ??0iterator@?$vector@EV?$allocator@E@std@@@std@@QAE@PAE@Z
_TEXT	SEGMENT PARA USE32 PUBLIC 'CODE'
_TEXT	ENDS
;	COMDAT ??8const_iterator@?$vector@EV?$allocator@E@std@@@std@@QBE_NABV012@@Z
_TEXT	SEGMENT PARA USE32 PUBLIC 'CODE'
_TEXT	ENDS
;	COMDAT ??$insert@Vconst_iterator@?$vector@EV?$allocator@E@std@@@std@@@?$vector@EV?$allocator@E@std@@@std@@QAEXViterator@01@Vconst_iterator@01@1@Z
_TEXT	SEGMENT PARA USE32 PUBLIC 'CODE'
_TEXT	ENDS
;	COMDAT ??$_Ptr_cat@Vconst_iterator@?$vector@EV?$allocator@E@std@@@std@@PAE@std@@YA?AU_Nonscalar_ptr_iterator_tag@0@AAVconst_iterator@?$vector@EV?$allocator@E@std@@@0@AAPAE@Z
_TEXT	SEGMENT PARA USE32 PUBLIC 'CODE'
_TEXT	ENDS
;	COMDAT ??$_Uninit_copy@Vconst_iterator@?$vector@EV?$allocator@E@std@@@std@@PAEV?$allocator@E@3@@std@@YAPAEVconst_iterator@?$vector@EV?$allocator@E@std@@@0@0PAEAAV?$allocator@E@0@U_Nonscalar_ptr_iterator_tag@0@@Z
_TEXT	SEGMENT PARA USE32 PUBLIC 'CODE'
_TEXT	ENDS
;	COMDAT ??$_Uninit_copy@JJ@std@@YAPAJPAJ00AAV?$allocator@J@0@U_Scalar_ptr_iterator_tag@0@@Z
_TEXT	SEGMENT PARA USE32 PUBLIC 'CODE'
_TEXT	ENDS
;	COMDAT ??$_Uninit_copy@PAU__SPAWNREGION@CEventLua@@PAU12@V?$allocator@U__SPAWNREGION@CEventLua@@@std@@@std@@YAPAU__SPAWNREGION@CEventLua@@PAU12@00AAV?$allocator@U__SPAWNREGION@CEventLua@@@0@U_Nonscalar_ptr_iterator_tag@0@@Z
_TEXT	SEGMENT PARA USE32 PUBLIC 'CODE'
_TEXT	ENDS
;	COMDAT ??$fill_n@PAJIJ@std@@YAXPAJIABJ@Z
_TEXT	SEGMENT PARA USE32 PUBLIC 'CODE'
_TEXT	ENDS
;	COMDAT ??$_Copy_opt@PAKPAK@std@@YAPAKPAK00U_Scalar_ptr_iterator_tag@0@@Z
_TEXT	SEGMENT PARA USE32 PUBLIC 'CODE'
_TEXT	ENDS
;	COMDAT ??$_Iter_cat@Viterator@?$_Tree@V?$_Tmap_traits@KU_Friend@@U?$less@K@std@@V?$allocator@U?$pair@$$CBKU_Friend@@@std@@@3@$0A@@std@@@std@@@std@@YA?AUbidirectional_iterator_tag@0@ABViterator@?$_Tree@V?$_Tmap_traits@KU_Friend@@U?$less@K@std@@V?$allocator@U?$pair@$$CBKU_Friend@@@std@@@3@$0A@@std@@@0@@Z
_TEXT	SEGMENT PARA USE32 PUBLIC 'CODE'
_TEXT	ENDS
;	COMDAT ??$_Distance2@Viterator@?$_Tree@V?$_Tmap_traits@KU_Friend@@U?$less@K@std@@V?$allocator@U?$pair@$$CBKU_Friend@@@std@@@3@$0A@@std@@@std@@I@std@@YAXViterator@?$_Tree@V?$_Tmap_traits@KU_Friend@@U?$less@K@std@@V?$allocator@U?$pair@$$CBKU_Friend@@@std@@@3@$0A@@std@@@0@0AAIUbidirectional_iterator_tag@0@@Z
_TEXT	SEGMENT PARA USE32 PUBLIC 'CODE'
_TEXT	ENDS
;	COMDAT ??$_Iter_cat@Viterator@?$_Tree@V?$_Tmap_traits@KKU?$less@K@std@@V?$allocator@U?$pair@$$CBKK@std@@@2@$0A@@std@@@std@@@std@@YA?AUbidirectional_iterator_tag@0@ABViterator@?$_Tree@V?$_Tmap_traits@KKU?$less@K@std@@V?$allocator@U?$pair@$$CBKK@std@@@2@$0A@@std@@@0@@Z
_TEXT	SEGMENT PARA USE32 PUBLIC 'CODE'
_TEXT	ENDS
;	COMDAT ??$_Distance2@Viterator@?$_Tree@V?$_Tmap_traits@KKU?$less@K@std@@V?$allocator@U?$pair@$$CBKK@std@@@2@$0A@@std@@@std@@I@std@@YAXViterator@?$_Tree@V?$_Tmap_traits@KKU?$less@K@std@@V?$allocator@U?$pair@$$CBKK@std@@@2@$0A@@std@@@0@0AAIUbidirectional_iterator_tag@0@@Z
_TEXT	SEGMENT PARA USE32 PUBLIC 'CODE'
_TEXT	ENDS
;	COMDAT ??$_Uninit_fill_n@KIK@std@@YAXPAKIABKAAV?$allocator@K@0@U_Scalar_ptr_iterator_tag@0@@Z
_TEXT	SEGMENT PARA USE32 PUBLIC 'CODE'
_TEXT	ENDS
;	COMDAT ??$_Ptr_cat@PAV?$basic_string@DU?$char_traits@D@std@@V?$allocator@D@2@@std@@PAV12@@std@@YA?AU_Nonscalar_ptr_iterator_tag@0@AAPAV?$basic_string@DU?$char_traits@D@std@@V?$allocator@D@2@@0@0@Z
_TEXT	SEGMENT PARA USE32 PUBLIC 'CODE'
_TEXT	ENDS
;	COMDAT ??$_Uninit_fill_n@PAV?$basic_string@DU?$char_traits@D@std@@V?$allocator@D@2@@std@@IV12@V?$allocator@V?$basic_string@DU?$char_traits@D@std@@V?$allocator@D@2@@std@@@2@@std@@YAXPAV?$basic_string@DU?$char_traits@D@std@@V?$allocator@D@2@@0@IABV10@AAV?$allocator@V?$basic_string@DU?$char_traits@D@std@@V?$allocator@D@2@@std@@@0@U_Nonscalar_ptr_iterator_tag@0@@Z
_TEXT	SEGMENT PARA USE32 PUBLIC 'CODE'
_TEXT	ENDS
;	COMDAT ??$_Ptr_cat@PAUMINIGMAME_PRIZE_LIST@CRainbowRaceMng@@PAU12@@std@@YA?AU_Nonscalar_ptr_iterator_tag@0@AAPAUMINIGMAME_PRIZE_LIST@CRainbowRaceMng@@0@Z
_TEXT	SEGMENT PARA USE32 PUBLIC 'CODE'
_TEXT	ENDS
;	COMDAT ??$_Uninit_fill_n@PAUMINIGMAME_PRIZE_LIST@CRainbowRaceMng@@IU12@V?$allocator@UMINIGMAME_PRIZE_LIST@CRainbowRaceMng@@@std@@@std@@YAXPAUMINIGMAME_PRIZE_LIST@CRainbowRaceMng@@IABU12@AAV?$allocator@UMINIGMAME_PRIZE_LIST@CRainbowRaceMng@@@0@U_Nonscalar_ptr_iterator_tag@0@@Z
_TEXT	SEGMENT PARA USE32 PUBLIC 'CODE'
_TEXT	ENDS
;	COMDAT ??$_Uninitialized_copy@PAKPAKV?$allocator@K@std@@@std@@YAPAKPAK00AAV?$allocator@K@0@@Z
_TEXT	SEGMENT PARA USE32 PUBLIC 'CODE'
_TEXT	ENDS
;	COMDAT ??$_Copy_backward_opt@PAKPAK@std@@YAPAKPAK00U_Scalar_ptr_iterator_tag@0@@Z
_TEXT	SEGMENT PARA USE32 PUBLIC 'CODE'
_TEXT	ENDS
;	COMDAT ??$_Ptr_cat@U__JOINPLAYER@CGuildCombat@@@std@@YA?AU_Scalar_ptr_iterator_tag@0@PAPAU__JOINPLAYER@CGuildCombat@@0@Z
_TEXT	SEGMENT PARA USE32 PUBLIC 'CODE'
_TEXT	ENDS
;	COMDAT ??$_Destroy_range@PAU__JOINPLAYER@CGuildCombat@@V?$allocator@PAU__JOINPLAYER@CGuildCombat@@@std@@@std@@YAXPAPAU__JOINPLAYER@CGuildCombat@@0AAV?$allocator@PAU__JOINPLAYER@CGuildCombat@@@0@U_Scalar_ptr_iterator_tag@0@@Z
_TEXT	SEGMENT PARA USE32 PUBLIC 'CODE'
_TEXT	ENDS
;	COMDAT ??$_Ptr_cat@PAU__SECRETROOM_MONSTER@@PAU1@@std@@YA?AU_Nonscalar_ptr_iterator_tag@0@AAPAU__SECRETROOM_MONSTER@@0@Z
_TEXT	SEGMENT PARA USE32 PUBLIC 'CODE'
_TEXT	ENDS
;	COMDAT ??$_Destroy_range@U__SECRETROOM_MONSTER@@V?$allocator@U__SECRETROOM_MONSTER@@@std@@@std@@YAXPAU__SECRETROOM_MONSTER@@0AAV?$allocator@U__SECRETROOM_MONSTER@@@0@U_Nonscalar_ptr_iterator_tag@0@@Z
_TEXT	SEGMENT PARA USE32 PUBLIC 'CODE'
_TEXT	ENDS
;	COMDAT ??$_Destroy_range@V?$basic_string@DU?$char_traits@D@std@@V?$allocator@D@2@@std@@V?$allocator@V?$basic_string@DU?$char_traits@D@std@@V?$allocator@D@2@@std@@@2@@std@@YAXPAV?$basic_string@DU?$char_traits@D@std@@V?$allocator@D@2@@0@0AAV?$allocator@V?$basic_string@DU?$char_traits@D@std@@V?$allocator@D@2@@std@@@0@U_Nonscalar_ptr_iterator_tag@0@@Z
_TEXT	SEGMENT PARA USE32 PUBLIC 'CODE'
_TEXT	ENDS
;	COMDAT ??$_Uninitialized_copy@PAV?$basic_string@DU?$char_traits@D@std@@V?$allocator@D@2@@std@@PAV12@V?$allocator@V?$basic_string@DU?$char_traits@D@std@@V?$allocator@D@2@@std@@@2@@std@@YAPAV?$basic_string@DU?$char_traits@D@std@@V?$allocator@D@2@@0@PAV10@00AAV?$allocator@V?$basic_string@DU?$char_traits@D@std@@V?$allocator@D@2@@std@@@0@@Z
_TEXT	SEGMENT PARA USE32 PUBLIC 'CODE'
_TEXT	ENDS
;	COMDAT ??$_Copy_backward_opt@PAV?$basic_string@DU?$char_traits@D@std@@V?$allocator@D@2@@std@@PAV12@@std@@YAPAV?$basic_string@DU?$char_traits@D@std@@V?$allocator@D@2@@0@PAV10@00U_Nonscalar_ptr_iterator_tag@0@@Z
_TEXT	SEGMENT PARA USE32 PUBLIC 'CODE'
_TEXT	ENDS
;	COMDAT ??$_Uninitialized_copy@PAUMINIGMAME_PRIZE_LIST@CRainbowRaceMng@@PAU12@V?$allocator@UMINIGMAME_PRIZE_LIST@CRainbowRaceMng@@@std@@@std@@YAPAUMINIGMAME_PRIZE_LIST@CRainbowRaceMng@@PAU12@00AAV?$allocator@UMINIGMAME_PRIZE_LIST@CRainbowRaceMng@@@0@@Z
_TEXT	SEGMENT PARA USE32 PUBLIC 'CODE'
_TEXT	ENDS
;	COMDAT ??$_Copy_backward_opt@PAUMINIGMAME_PRIZE_LIST@CRainbowRaceMng@@PAU12@@std@@YAPAUMINIGMAME_PRIZE_LIST@CRainbowRaceMng@@PAU12@00U_Nonscalar_ptr_iterator_tag@0@@Z
_TEXT	SEGMENT PARA USE32 PUBLIC 'CODE'
_TEXT	ENDS
;	COMDAT ??$_Destroy_range@UMINIGMAME_PRIZE_LIST@CRainbowRaceMng@@V?$allocator@UMINIGMAME_PRIZE_LIST@CRainbowRaceMng@@@std@@@std@@YAXPAUMINIGMAME_PRIZE_LIST@CRainbowRaceMng@@0AAV?$allocator@UMINIGMAME_PRIZE_LIST@CRainbowRaceMng@@@0@U_Nonscalar_ptr_iterator_tag@0@@Z
_TEXT	SEGMENT PARA USE32 PUBLIC 'CODE'
_TEXT	ENDS
;	COMDAT ??$_Destroy@UtagDROPITEM@@@std@@YAXPAUtagDROPITEM@@@Z
_TEXT	SEGMENT PARA USE32 PUBLIC 'CODE'
_TEXT	ENDS
;	COMDAT ??$_Destroy@UWORMON@@@std@@YAXPAUWORMON@@@Z
_TEXT	SEGMENT PARA USE32 PUBLIC 'CODE'
_TEXT	ENDS
;	COMDAT ??$_Destroy@U__ITEMGAME@CMiniGame@@@std@@YAXPAU__ITEMGAME@CMiniGame@@@Z
_TEXT	SEGMENT PARA USE32 PUBLIC 'CODE'
_TEXT	ENDS
;	COMDAT ??$_Destroy@U__ITEM@CExchange@@@std@@YAXPAU__ITEM@CExchange@@@Z
_TEXT	SEGMENT PARA USE32 PUBLIC 'CODE'
_TEXT	ENDS
;	COMDAT ??$_Destroy@U__POINT@CExchange@@@std@@YAXPAU__POINT@CExchange@@@Z
_TEXT	SEGMENT PARA USE32 PUBLIC 'CODE'
_TEXT	ENDS
;	COMDAT ??$copy@PAEPAE@std@@YAPAEPAE00@Z
_TEXT	SEGMENT PARA USE32 PUBLIC 'CODE'
_TEXT	ENDS
;	COMDAT ??$_Construct@U__SPAWNREGION@CEventLua@@U12@@std@@YAXPAU__SPAWNREGION@CEventLua@@ABU12@@Z
_TEXT	SEGMENT PARA USE32 PUBLIC 'CODE'
_TEXT	ENDS
;	COMDAT ??$_Destroy@U__SPAWNREGION@CEventLua@@@std@@YAXPAU__SPAWNREGION@CEventLua@@@Z
_TEXT	SEGMENT PARA USE32 PUBLIC 'CODE'
_TEXT	ENDS
;	COMDAT ??$_Destroy@UD3DXVECTOR3@@@std@@YAXPAUD3DXVECTOR3@@@Z
_TEXT	SEGMENT PARA USE32 PUBLIC 'CODE'
_TEXT	ENDS
;	COMDAT ??$_Destroy@U_GIFTBOX@@@std@@YAXPAU_GIFTBOX@@@Z
_TEXT	SEGMENT PARA USE32 PUBLIC 'CODE'
_TEXT	ENDS
;	COMDAT ?construct@?$allocator@V?$basic_string@DU?$char_traits@D@std@@V?$allocator@D@2@@std@@@std@@QAEXPAV?$basic_string@DU?$char_traits@D@std@@V?$allocator@D@2@@2@ABV32@@Z
_TEXT	SEGMENT PARA USE32 PUBLIC 'CODE'
_TEXT	ENDS
;	COMDAT ?destroy@?$allocator@V?$basic_string@DU?$char_traits@D@std@@V?$allocator@D@2@@std@@@std@@QAEXPAV?$basic_string@DU?$char_traits@D@std@@V?$allocator@D@2@@2@@Z
_TEXT	SEGMENT PARA USE32 PUBLIC 'CODE'
_TEXT	ENDS
;	COMDAT ?construct@?$allocator@E@std@@QAEXPAEABE@Z
_TEXT	SEGMENT PARA USE32 PUBLIC 'CODE'
_TEXT	ENDS
;	COMDAT ?destroy@?$allocator@E@std@@QAEXPAE@Z
_TEXT	SEGMENT PARA USE32 PUBLIC 'CODE'
_TEXT	ENDS
;	COMDAT ??Dconst_iterator@?$vector@EV?$allocator@E@std@@@std@@QBEABEXZ
_TEXT	SEGMENT PARA USE32 PUBLIC 'CODE'
_TEXT	ENDS
;	COMDAT ??Econst_iterator@?$vector@EV?$allocator@E@std@@@std@@QAEAAV012@XZ
_TEXT	SEGMENT PARA USE32 PUBLIC 'CODE'
_TEXT	ENDS
;	COMDAT ?destroy@?$allocator@U__SECRETROOM_MONSTER@@@std@@QAEXPAU__SECRETROOM_MONSTER@@@Z
_TEXT	SEGMENT PARA USE32 PUBLIC 'CODE'
_TEXT	ENDS
;	COMDAT ?construct@?$allocator@UMINIGMAME_PRIZE_LIST@CRainbowRaceMng@@@std@@QAEXPAUMINIGMAME_PRIZE_LIST@CRainbowRaceMng@@ABU34@@Z
_TEXT	SEGMENT PARA USE32 PUBLIC 'CODE'
_TEXT	ENDS
;	COMDAT ?destroy@?$allocator@UMINIGMAME_PRIZE_LIST@CRainbowRaceMng@@@std@@QAEXPAUMINIGMAME_PRIZE_LIST@CRainbowRaceMng@@@Z
_TEXT	SEGMENT PARA USE32 PUBLIC 'CODE'
_TEXT	ENDS
;	COMDAT ??$_Insert@Vconst_iterator@?$vector@EV?$allocator@E@std@@@std@@@?$vector@EV?$allocator@E@std@@@std@@QAEXViterator@01@Vconst_iterator@01@1Uforward_iterator_tag@1@@Z
_TEXT	SEGMENT PARA USE32 PUBLIC 'CODE'
_TEXT	ENDS
;	COMDAT ??$fill_n@PAKIK@std@@YAXPAKIABK@Z
_TEXT	SEGMENT PARA USE32 PUBLIC 'CODE'
_TEXT	ENDS
;	COMDAT ??$_Uninit_copy@KK@std@@YAPAKPAK00AAV?$allocator@K@0@U_Scalar_ptr_iterator_tag@0@@Z
_TEXT	SEGMENT PARA USE32 PUBLIC 'CODE'
_TEXT	ENDS
;	COMDAT ??$_Uninit_copy@PAV?$basic_string@DU?$char_traits@D@std@@V?$allocator@D@2@@std@@PAV12@V?$allocator@V?$basic_string@DU?$char_traits@D@std@@V?$allocator@D@2@@std@@@2@@std@@YAPAV?$basic_string@DU?$char_traits@D@std@@V?$allocator@D@2@@0@PAV10@00AAV?$allocator@V?$basic_string@DU?$char_traits@D@std@@V?$allocator@D@2@@std@@@0@U_Nonscalar_ptr_iterator_tag@0@@Z
_TEXT	SEGMENT PARA USE32 PUBLIC 'CODE'
_TEXT	ENDS
;	COMDAT ??$_Uninit_copy@PAUMINIGMAME_PRIZE_LIST@CRainbowRaceMng@@PAU12@V?$allocator@UMINIGMAME_PRIZE_LIST@CRainbowRaceMng@@@std@@@std@@YAPAUMINIGMAME_PRIZE_LIST@CRainbowRaceMng@@PAU12@00AAV?$allocator@UMINIGMAME_PRIZE_LIST@CRainbowRaceMng@@@0@U_Nonscalar_ptr_iterator_tag@0@@Z
_TEXT	SEGMENT PARA USE32 PUBLIC 'CODE'
_TEXT	ENDS
;	COMDAT ??$_Copy_opt@PAEPAE@std@@YAPAEPAE00U_Scalar_ptr_iterator_tag@0@@Z
_TEXT	SEGMENT PARA USE32 PUBLIC 'CODE'
_TEXT	ENDS
;	COMDAT ??$_Construct@V?$basic_string@DU?$char_traits@D@std@@V?$allocator@D@2@@std@@V12@@std@@YAXPAV?$basic_string@DU?$char_traits@D@std@@V?$allocator@D@2@@0@ABV10@@Z
_TEXT	SEGMENT PARA USE32 PUBLIC 'CODE'
_TEXT	ENDS
;	COMDAT ??$_Destroy@V?$basic_string@DU?$char_traits@D@std@@V?$allocator@D@2@@std@@@std@@YAXPAV?$basic_string@DU?$char_traits@D@std@@V?$allocator@D@2@@0@@Z
_TEXT	SEGMENT PARA USE32 PUBLIC 'CODE'
_TEXT	ENDS
;	COMDAT ??$_Construct@EE@std@@YAXPAEABE@Z
_TEXT	SEGMENT PARA USE32 PUBLIC 'CODE'
_TEXT	ENDS
;	COMDAT ??$_Destroy@E@std@@YAXPAE@Z
_TEXT	SEGMENT PARA USE32 PUBLIC 'CODE'
_TEXT	ENDS
;	COMDAT ??$_Destroy@U__SECRETROOM_MONSTER@@@std@@YAXPAU__SECRETROOM_MONSTER@@@Z
_TEXT	SEGMENT PARA USE32 PUBLIC 'CODE'
_TEXT	ENDS
;	COMDAT ??$_Construct@UMINIGMAME_PRIZE_LIST@CRainbowRaceMng@@U12@@std@@YAXPAUMINIGMAME_PRIZE_LIST@CRainbowRaceMng@@ABU12@@Z
_TEXT	SEGMENT PARA USE32 PUBLIC 'CODE'
_TEXT	ENDS
;	COMDAT ??$_Destroy@UMINIGMAME_PRIZE_LIST@CRainbowRaceMng@@@std@@YAXPAUMINIGMAME_PRIZE_LIST@CRainbowRaceMng@@@Z
_TEXT	SEGMENT PARA USE32 PUBLIC 'CODE'
_TEXT	ENDS
;	COMDAT ??_G?$basic_string@DU?$char_traits@D@std@@V?$allocator@D@2@@std@@QAEPAXI@Z
_TEXT	SEGMENT PARA USE32 PUBLIC 'CODE'
_TEXT	ENDS
;	COMDAT ?capacity@?$vector@EV?$allocator@E@std@@@std@@QBEIXZ
_TEXT	SEGMENT PARA USE32 PUBLIC 'CODE'
_TEXT	ENDS
;	COMDAT ??Giterator@?$vector@EV?$allocator@E@std@@@std@@QBEHABVconst_iterator@12@@Z
_TEXT	SEGMENT PARA USE32 PUBLIC 'CODE'
_TEXT	ENDS
;	COMDAT ??Gconst_iterator@?$vector@EV?$allocator@E@std@@@std@@QBEHABV012@@Z
_TEXT	SEGMENT PARA USE32 PUBLIC 'CODE'
_TEXT	ENDS
;	COMDAT ??$_Distance@Vconst_iterator@?$vector@EV?$allocator@E@std@@@std@@I@std@@YAXVconst_iterator@?$vector@EV?$allocator@E@std@@@0@0AAI@Z
_TEXT	SEGMENT PARA USE32 PUBLIC 'CODE'
_TEXT	ENDS
;	COMDAT ??$_Ucopy@PAE@?$vector@EV?$allocator@E@std@@@std@@IAEPAEPAE00@Z
_TEXT	SEGMENT PARA USE32 PUBLIC 'CODE'
_TEXT	ENDS
;	COMDAT ??$advance@Vconst_iterator@?$vector@EV?$allocator@E@std@@@std@@H@std@@YAXAAVconst_iterator@?$vector@EV?$allocator@E@std@@@0@H@Z
_TEXT	SEGMENT PARA USE32 PUBLIC 'CODE'
_TEXT	ENDS
;	COMDAT ??$copy@Vconst_iterator@?$vector@EV?$allocator@E@std@@@std@@PAE@std@@YAPAEVconst_iterator@?$vector@EV?$allocator@E@std@@@0@0PAE@Z
_TEXT	SEGMENT PARA USE32 PUBLIC 'CODE'
_TEXT	ENDS
;	COMDAT ??$copy_backward@PAEPAE@std@@YAPAEPAE00@Z
_TEXT	SEGMENT PARA USE32 PUBLIC 'CODE'
_TEXT	ENDS
;	COMDAT ??$_Distance2@Vconst_iterator@?$vector@EV?$allocator@E@std@@@std@@I@std@@YAXVconst_iterator@?$vector@EV?$allocator@E@std@@@0@0AAIUrandom_access_iterator_tag@0@@Z
_TEXT	SEGMENT PARA USE32 PUBLIC 'CODE'
_TEXT	ENDS
;	COMDAT ??$_Uninitialized_copy@PAEPAEV?$allocator@E@std@@@std@@YAPAEPAE00AAV?$allocator@E@0@@Z
_TEXT	SEGMENT PARA USE32 PUBLIC 'CODE'
_TEXT	ENDS
;	COMDAT ??$_Advance@Vconst_iterator@?$vector@EV?$allocator@E@std@@@std@@H@std@@YAXAAVconst_iterator@?$vector@EV?$allocator@E@std@@@0@HUrandom_access_iterator_tag@0@@Z
_TEXT	SEGMENT PARA USE32 PUBLIC 'CODE'
_TEXT	ENDS
;	COMDAT ??$_Copy_opt@Vconst_iterator@?$vector@EV?$allocator@E@std@@@std@@PAE@std@@YAPAEVconst_iterator@?$vector@EV?$allocator@E@std@@@0@0PAEU_Nonscalar_ptr_iterator_tag@0@@Z
_TEXT	SEGMENT PARA USE32 PUBLIC 'CODE'
_TEXT	ENDS
;	COMDAT ??$_Copy_backward_opt@PAEPAE@std@@YAPAEPAE00U_Scalar_ptr_iterator_tag@0@@Z
_TEXT	SEGMENT PARA USE32 PUBLIC 'CODE'
_TEXT	ENDS
;	COMDAT ??Yconst_iterator@?$vector@EV?$allocator@E@std@@@std@@QAEAAV012@H@Z
_TEXT	SEGMENT PARA USE32 PUBLIC 'CODE'
_TEXT	ENDS
;	COMDAT ??$_Uninit_copy@EE@std@@YAPAEPAE00AAV?$allocator@E@0@U_Scalar_ptr_iterator_tag@0@@Z
_TEXT	SEGMENT PARA USE32 PUBLIC 'CODE'
_TEXT	ENDS
;	COMDAT ?deallocate@?$allocator@E@std@@QAEXPAEI@Z
_TEXT	SEGMENT PARA USE32 PUBLIC 'CODE'
_TEXT	ENDS
;	COMDAT ??$_Ucopy@Vconst_iterator@?$vector@EV?$allocator@E@std@@@std@@@?$vector@EV?$allocator@E@std@@@std@@IAEPAEVconst_iterator@01@0PAE@Z
_TEXT	SEGMENT PARA USE32 PUBLIC 'CODE'
_TEXT	ENDS
;	COMDAT ?allocate@?$allocator@E@std@@QAEPAEI@Z
_TEXT	SEGMENT PARA USE32 PUBLIC 'CODE'
_TEXT	ENDS
;	COMDAT ??$_Allocate@E@std@@YAPAEIPAE@Z
_TEXT	SEGMENT PARA USE32 PUBLIC 'CODE'
_TEXT	ENDS
;	COMDAT ?_Xlen@?$vector@EV?$allocator@E@std@@@std@@IBEXXZ
_TEXT	SEGMENT PARA USE32 PUBLIC 'CODE'
_TEXT	ENDS
;	COMDAT ?size@?$vector@EV?$allocator@E@std@@@std@@QBEIXZ
_TEXT	SEGMENT PARA USE32 PUBLIC 'CODE'
_TEXT	ENDS
;	COMDAT ?max_size@?$vector@EV?$allocator@E@std@@@std@@QBEIXZ
_TEXT	SEGMENT PARA USE32 PUBLIC 'CODE'
_TEXT	ENDS
;	COMDAT ?max_size@?$allocator@E@std@@QBEIXZ
_TEXT	SEGMENT PARA USE32 PUBLIC 'CODE'
_TEXT	ENDS
;	COMDAT ?_Ptr_cat@std@@YA?AU_Scalar_ptr_iterator_tag@1@PAE0@Z
_TEXT	SEGMENT PARA USE32 PUBLIC 'CODE'
_TEXT	ENDS
;	COMDAT ??0const_iterator@?$vector@EV?$allocator@E@std@@@std@@QAE@PAE@Z
_TEXT	SEGMENT PARA USE32 PUBLIC 'CODE'
_TEXT	ENDS
;	COMDAT ?_Destroy@?$vector@EV?$allocator@E@std@@@std@@IAEXPAE0@Z
_TEXT	SEGMENT PARA USE32 PUBLIC 'CODE'
_TEXT	ENDS
;	COMDAT ??$_Destroy_range@EV?$allocator@E@std@@@std@@YAXPAE0AAV?$allocator@E@0@@Z
_TEXT	SEGMENT PARA USE32 PUBLIC 'CODE'
_TEXT	ENDS
;	COMDAT ??4?$basic_string@DU?$char_traits@D@std@@V?$allocator@D@2@@std@@QAEAAV01@ABV01@@Z
_TEXT	SEGMENT PARA USE32 PUBLIC 'CODE'
_TEXT	ENDS
;	COMDAT ?assign@?$basic_string@DU?$char_traits@D@std@@V?$allocator@D@2@@std@@QAEAAV12@ABV12@@Z
_TEXT	SEGMENT PARA USE32 PUBLIC 'CODE'
_TEXT	ENDS
;	COMDAT ?assign@?$basic_string@DU?$char_traits@D@std@@V?$allocator@D@2@@std@@QAEAAV12@ABV12@II@Z
_TEXT	SEGMENT PARA USE32 PUBLIC 'CODE'
_TEXT	ENDS
;	COMDAT ?erase@?$basic_string@DU?$char_traits@D@std@@V?$allocator@D@2@@std@@QAEAAV12@II@Z
_TEXT	SEGMENT PARA USE32 PUBLIC 'CODE'
_TEXT	ENDS
;	COMDAT ?move@?$char_traits@D@std@@SAPADPADPBDI@Z
_TEXT	SEGMENT PARA USE32 PUBLIC 'CODE'
_TEXT	ENDS
;	COMDAT ?_Grow@?$basic_string@DU?$char_traits@D@std@@V?$allocator@D@2@@std@@IAE_NI_N@Z
_TEXT	SEGMENT PARA USE32 PUBLIC 'CODE'
_TEXT	ENDS
;	COMDAT ?max_size@?$basic_string@DU?$char_traits@D@std@@V?$allocator@D@2@@std@@QBEIXZ
_TEXT	SEGMENT PARA USE32 PUBLIC 'CODE'
_TEXT	ENDS
;	COMDAT ?max_size@?$allocator@D@std@@QBEIXZ
_TEXT	SEGMENT PARA USE32 PUBLIC 'CODE'
_TEXT	ENDS
;	COMDAT ?_Copy@?$basic_string@DU?$char_traits@D@std@@V?$allocator@D@2@@std@@IAEXII@Z
_TEXT	SEGMENT PARA USE32 PUBLIC 'CODE'
_TEXT	ENDS
;	COMDAT ?allocate@?$allocator@D@std@@QAEPADI@Z
_TEXT	SEGMENT PARA USE32 PUBLIC 'CODE'
_TEXT	ENDS
;	COMDAT ??$_Allocate@D@std@@YAPADIPAD@Z
_TEXT	SEGMENT PARA USE32 PUBLIC 'CODE'
_TEXT	ENDS
;	COMDAT ?_Tidy@?$basic_string@DU?$char_traits@D@std@@V?$allocator@D@2@@std@@IAEX_NI@Z
_TEXT	SEGMENT PARA USE32 PUBLIC 'CODE'
_TEXT	ENDS
;	COMDAT ?deallocate@?$allocator@D@std@@QAEXPADI@Z
_TEXT	SEGMENT PARA USE32 PUBLIC 'CODE'
_TEXT	ENDS
;	COMDAT ?copy@?$char_traits@D@std@@SAPADPADPBDI@Z
_TEXT	SEGMENT PARA USE32 PUBLIC 'CODE'
_TEXT	ENDS
;	COMDAT ?_Myptr@?$basic_string@DU?$char_traits@D@std@@V?$allocator@D@2@@std@@QAEPADXZ
_TEXT	SEGMENT PARA USE32 PUBLIC 'CODE'
_TEXT	ENDS
;	COMDAT ?_Eos@?$basic_string@DU?$char_traits@D@std@@V?$allocator@D@2@@std@@IAEXI@Z
_TEXT	SEGMENT PARA USE32 PUBLIC 'CODE'
_TEXT	ENDS
;	COMDAT ?assign@?$char_traits@D@std@@SAXAADABD@Z
_TEXT	SEGMENT PARA USE32 PUBLIC 'CODE'
_TEXT	ENDS
;	COMDAT ?npos@?$basic_string@DU?$char_traits@D@std@@V?$allocator@D@2@@std@@2IB
CONST	SEGMENT DWORD USE32 PUBLIC 'CONST'
CONST	ENDS
;	COMDAT ?_Ptr_cat@std@@YA?AU_Scalar_ptr_iterator_tag@1@PAK0@Z
_TEXT	SEGMENT PARA USE32 PUBLIC 'CODE'
_TEXT	ENDS
;	COMDAT ?_Ptr_cat@std@@YA?AU_Scalar_ptr_iterator_tag@1@PAJ0@Z
_TEXT	SEGMENT PARA USE32 PUBLIC 'CODE'
_TEXT	ENDS
;	COMDAT ??9const_iterator@?$_Tree@V?$_Tmap_traits@KEU?$less@K@std@@V?$allocator@U?$pair@$$CBKE@std@@@2@$0A@@std@@@std@@QBE_NABV012@@Z
_TEXT	SEGMENT PARA USE32 PUBLIC 'CODE'
_TEXT	ENDS
;	COMDAT ??8const_iterator@?$_Tree@V?$_Tmap_traits@KEU?$less@K@std@@V?$allocator@U?$pair@$$CBKE@std@@@2@$0A@@std@@@std@@QBE_NABV012@@Z
_TEXT	SEGMENT PARA USE32 PUBLIC 'CODE'
_TEXT	ENDS
;	COMDAT ??Eiterator@?$_Tree@V?$_Tmap_traits@KEU?$less@K@std@@V?$allocator@U?$pair@$$CBKE@std@@@2@$0A@@std@@@std@@QAEAAV012@XZ
_TEXT	SEGMENT PARA USE32 PUBLIC 'CODE'
_TEXT	ENDS
;	COMDAT ??Econst_iterator@?$_Tree@V?$_Tmap_traits@KEU?$less@K@std@@V?$allocator@U?$pair@$$CBKE@std@@@2@$0A@@std@@@std@@QAEAAV012@XZ
_TEXT	SEGMENT PARA USE32 PUBLIC 'CODE'
_TEXT	ENDS
;	COMDAT ?_Inc@const_iterator@?$_Tree@V?$_Tmap_traits@KEU?$less@K@std@@V?$allocator@U?$pair@$$CBKE@std@@@2@$0A@@std@@@std@@QAEXXZ
_TEXT	SEGMENT PARA USE32 PUBLIC 'CODE'
_TEXT	ENDS
;	COMDAT ?_Min@?$_Tree@V?$_Tmap_traits@KEU?$less@K@std@@V?$allocator@U?$pair@$$CBKE@std@@@2@$0A@@std@@@std@@KAPAU_Node@?$_Tree_nod@V?$_Tmap_traits@KEU?$less@K@std@@V?$allocator@U?$pair@$$CBKE@std@@@2@$0A@@std@@@2@PAU342@@Z
_TEXT	SEGMENT PARA USE32 PUBLIC 'CODE'
_TEXT	ENDS
;	COMDAT ?_Left@?$_Tree@V?$_Tmap_traits@KEU?$less@K@std@@V?$allocator@U?$pair@$$CBKE@std@@@2@$0A@@std@@@std@@KAAAPAU_Node@?$_Tree_nod@V?$_Tmap_traits@KEU?$less@K@std@@V?$allocator@U?$pair@$$CBKE@std@@@2@$0A@@std@@@2@PAU342@@Z
_TEXT	SEGMENT PARA USE32 PUBLIC 'CODE'
_TEXT	ENDS
;	COMDAT ?_Isnil@?$_Tree@V?$_Tmap_traits@KEU?$less@K@std@@V?$allocator@U?$pair@$$CBKE@std@@@2@$0A@@std@@@std@@KAAADPAU_Node@?$_Tree_nod@V?$_Tmap_traits@KEU?$less@K@std@@V?$allocator@U?$pair@$$CBKE@std@@@2@$0A@@std@@@2@@Z
_TEXT	SEGMENT PARA USE32 PUBLIC 'CODE'
_TEXT	ENDS
;	COMDAT ?_Parent@?$_Tree@V?$_Tmap_traits@KEU?$less@K@std@@V?$allocator@U?$pair@$$CBKE@std@@@2@$0A@@std@@@std@@KAAAPAU_Node@?$_Tree_nod@V?$_Tmap_traits@KEU?$less@K@std@@V?$allocator@U?$pair@$$CBKE@std@@@2@$0A@@std@@@2@PAU342@@Z
_TEXT	SEGMENT PARA USE32 PUBLIC 'CODE'
_TEXT	ENDS
;	COMDAT ?_Right@?$_Tree@V?$_Tmap_traits@KEU?$less@K@std@@V?$allocator@U?$pair@$$CBKE@std@@@2@$0A@@std@@@std@@KAAAPAU_Node@?$_Tree_nod@V?$_Tmap_traits@KEU?$less@K@std@@V?$allocator@U?$pair@$$CBKE@std@@@2@$0A@@std@@@2@PAU342@@Z
_TEXT	SEGMENT PARA USE32 PUBLIC 'CODE'
_TEXT	ENDS
;	COMDAT ??9const_iterator@?$_Tree@V?$_Tmap_traits@KPAVCCtrl@@U?$less@K@std@@V?$allocator@U?$pair@$$CBKPAVCCtrl@@@std@@@3@$0A@@std@@@std@@QBE_NABV012@@Z
_TEXT	SEGMENT PARA USE32 PUBLIC 'CODE'
_TEXT	ENDS
;	COMDAT ??9const_iterator@?$_Tree@V?$_Tmap_traits@KPAVCUser@@U?$less@K@std@@V?$allocator@U?$pair@$$CBKPAVCUser@@@std@@@3@$0A@@std@@@std@@QBE_NABV012@@Z
_TEXT	SEGMENT PARA USE32 PUBLIC 'CODE'
_TEXT	ENDS
;	COMDAT ??8const_iterator@?$_Tree@V?$_Tmap_traits@KPAVCUser@@U?$less@K@std@@V?$allocator@U?$pair@$$CBKPAVCUser@@@std@@@3@$0A@@std@@@std@@QBE_NABV012@@Z
_TEXT	SEGMENT PARA USE32 PUBLIC 'CODE'
_TEXT	ENDS
;	COMDAT ??Eiterator@?$_Tree@V?$_Tmap_traits@KPAVCUser@@U?$less@K@std@@V?$allocator@U?$pair@$$CBKPAVCUser@@@std@@@3@$0A@@std@@@std@@QAEAAV012@XZ
_TEXT	SEGMENT PARA USE32 PUBLIC 'CODE'
_TEXT	ENDS
;	COMDAT ??Econst_iterator@?$_Tree@V?$_Tmap_traits@KPAVCUser@@U?$less@K@std@@V?$allocator@U?$pair@$$CBKPAVCUser@@@std@@@3@$0A@@std@@@std@@QAEAAV012@XZ
_TEXT	SEGMENT PARA USE32 PUBLIC 'CODE'
_TEXT	ENDS
;	COMDAT ?_Inc@const_iterator@?$_Tree@V?$_Tmap_traits@KPAVCUser@@U?$less@K@std@@V?$allocator@U?$pair@$$CBKPAVCUser@@@std@@@3@$0A@@std@@@std@@QAEXXZ
_TEXT	SEGMENT PARA USE32 PUBLIC 'CODE'
_TEXT	ENDS
;	COMDAT ?_Min@?$_Tree@V?$_Tmap_traits@KPAVCUser@@U?$less@K@std@@V?$allocator@U?$pair@$$CBKPAVCUser@@@std@@@3@$0A@@std@@@std@@KAPAU_Node@?$_Tree_nod@V?$_Tmap_traits@KPAVCUser@@U?$less@K@std@@V?$allocator@U?$pair@$$CBKPAVCUser@@@std@@@3@$0A@@std@@@2@PAU342@@Z
_TEXT	SEGMENT PARA USE32 PUBLIC 'CODE'
_TEXT	ENDS
;	COMDAT ?_Left@?$_Tree@V?$_Tmap_traits@KPAVCUser@@U?$less@K@std@@V?$allocator@U?$pair@$$CBKPAVCUser@@@std@@@3@$0A@@std@@@std@@KAAAPAU_Node@?$_Tree_nod@V?$_Tmap_traits@KPAVCUser@@U?$less@K@std@@V?$allocator@U?$pair@$$CBKPAVCUser@@@std@@@3@$0A@@std@@@2@PAU342@@Z
_TEXT	SEGMENT PARA USE32 PUBLIC 'CODE'
_TEXT	ENDS
;	COMDAT ?_Isnil@?$_Tree@V?$_Tmap_traits@KPAVCUser@@U?$less@K@std@@V?$allocator@U?$pair@$$CBKPAVCUser@@@std@@@3@$0A@@std@@@std@@KAAADPAU_Node@?$_Tree_nod@V?$_Tmap_traits@KPAVCUser@@U?$less@K@std@@V?$allocator@U?$pair@$$CBKPAVCUser@@@std@@@3@$0A@@std@@@2@@Z
_TEXT	SEGMENT PARA USE32 PUBLIC 'CODE'
_TEXT	ENDS
;	COMDAT ?_Parent@?$_Tree@V?$_Tmap_traits@KPAVCUser@@U?$less@K@std@@V?$allocator@U?$pair@$$CBKPAVCUser@@@std@@@3@$0A@@std@@@std@@KAAAPAU_Node@?$_Tree_nod@V?$_Tmap_traits@KPAVCUser@@U?$less@K@std@@V?$allocator@U?$pair@$$CBKPAVCUser@@@std@@@3@$0A@@std@@@2@PAU342@@Z
_TEXT	SEGMENT PARA USE32 PUBLIC 'CODE'
_TEXT	ENDS
;	COMDAT ?_Right@?$_Tree@V?$_Tmap_traits@KPAVCUser@@U?$less@K@std@@V?$allocator@U?$pair@$$CBKPAVCUser@@@std@@@3@$0A@@std@@@std@@KAAAPAU_Node@?$_Tree_nod@V?$_Tmap_traits@KPAVCUser@@U?$less@K@std@@V?$allocator@U?$pair@$$CBKPAVCUser@@@std@@@3@$0A@@std@@@2@PAU342@@Z
_TEXT	SEGMENT PARA USE32 PUBLIC 'CODE'
_TEXT	ENDS
;	COMDAT ?_Psave@?$_Facetptr@V?$ctype@G@std@@@std@@2PBVfacet@locale@2@B
_DATA	SEGMENT DWORD USE32 PUBLIC 'DATA'
_DATA	ENDS
;	COMDAT ?_Psave@?$_Facetptr@V?$ctype@D@std@@@std@@2PBVfacet@locale@2@B
_DATA	SEGMENT DWORD USE32 PUBLIC 'DATA'
_DATA	ENDS
;	COMDAT ??3@YAXPAX0@Z
_TEXT	SEGMENT PARA USE32 PUBLIC 'CODE'
_TEXT	ENDS
;	COMDAT ??2@YAPAXIPAX@Z
_TEXT	SEGMENT PARA USE32 PUBLIC 'CODE'
_TEXT	ENDS
;	COMDAT ??0?$basic_string@DU?$char_traits@D@std@@V?$allocator@D@2@@std@@QAE@ABV01@@Z
_TEXT	SEGMENT PARA USE32 PUBLIC 'CODE'
_TEXT	ENDS
;	COMDAT ??0?$_String_val@DV?$allocator@D@std@@@std@@IAE@V?$allocator@D@1@@Z
_TEXT	SEGMENT PARA USE32 PUBLIC 'CODE'
_TEXT	ENDS
;	COMDAT ??0?$allocator@D@std@@QAE@ABV01@@Z
_TEXT	SEGMENT PARA USE32 PUBLIC 'CODE'
_TEXT	ENDS
;	COMDAT ??_C@_0BD@OLBABOEK@vector?$DMT?$DO?5too?5long?$AA@
CONST	SEGMENT DWORD USE32 PUBLIC 'CONST'
CONST	ENDS
;	COMDAT ??$swap@D@std@@YAXAAD0@Z
_TEXT	SEGMENT PARA USE32 PUBLIC 'CODE'
_TEXT	ENDS
;	COMDAT __TI3?AVout_of_range@std@@
xdata$x	SEGMENT DWORD USE32 PUBLIC 'CONST'
xdata$x	ENDS
;	COMDAT ??1out_of_range@std@@UAE@XZ
_TEXT	SEGMENT PARA USE32 PUBLIC 'CODE'
_TEXT	ENDS
;	COMDAT ??_7out_of_range@std@@6B@
CONST	SEGMENT DWORD USE32 PUBLIC 'CONST'
CONST	ENDS
;	COMDAT ??_Gout_of_range@std@@UAEPAXI@Z
_TEXT	SEGMENT PARA USE32 PUBLIC 'CODE'
_TEXT	ENDS
;	COMDAT ?what@logic_error@std@@UBEPBDXZ
_TEXT	SEGMENT PARA USE32 PUBLIC 'CODE'
_TEXT	ENDS
;	COMDAT ??1logic_error@std@@UAE@XZ
_TEXT	SEGMENT PARA USE32 PUBLIC 'CODE'
_TEXT	ENDS
;	COMDAT ??_7logic_error@std@@6B@
CONST	SEGMENT DWORD USE32 PUBLIC 'CONST'
CONST	ENDS
;	COMDAT ??_Glogic_error@std@@UAEPAXI@Z
_TEXT	SEGMENT PARA USE32 PUBLIC 'CODE'
_TEXT	ENDS
;	COMDAT __CTA3?AVout_of_range@std@@
xdata$x	SEGMENT DWORD USE32 PUBLIC 'CONST'
xdata$x	ENDS
;	COMDAT __CT??_R0?AVout_of_range@std@@@8??0out_of_range@std@@QAE@ABV01@@Z40
xdata$x	SEGMENT DWORD USE32 PUBLIC 'CONST'
xdata$x	ENDS
;	COMDAT ??_R0?AVout_of_range@std@@@8
_DATA	SEGMENT DWORD USE32 PUBLIC 'DATA'
_DATA	ENDS
;	COMDAT ??0out_of_range@std@@QAE@ABV01@@Z
_TEXT	SEGMENT PARA USE32 PUBLIC 'CODE'
_TEXT	ENDS
;	COMDAT ??0logic_error@std@@QAE@ABV01@@Z
_TEXT	SEGMENT PARA USE32 PUBLIC 'CODE'
_TEXT	ENDS
;	COMDAT __CT??_R0?AVlogic_error@std@@@8??0logic_error@std@@QAE@ABV01@@Z40
xdata$x	SEGMENT DWORD USE32 PUBLIC 'CONST'
xdata$x	ENDS
;	COMDAT ??_R0?AVlogic_error@std@@@8
_DATA	SEGMENT DWORD USE32 PUBLIC 'DATA'
_DATA	ENDS
;	COMDAT __CT??_R0?AVexception@@@8??0exception@@QAE@ABV0@@Z12
xdata$x	SEGMENT DWORD USE32 PUBLIC 'CONST'
xdata$x	ENDS
;	COMDAT ??_R0?AVexception@@@8
_DATA	SEGMENT DWORD USE32 PUBLIC 'DATA'
_DATA	ENDS
;	COMDAT ??_C@_0BM@PAPJHAGI@invalid?5map?1set?$DMT?$DO?5iterator?$AA@
CONST	SEGMENT DWORD USE32 PUBLIC 'CONST'
CONST	ENDS
;	COMDAT ??0out_of_range@std@@QAE@ABV?$basic_string@DU?$char_traits@D@std@@V?$allocator@D@2@@1@@Z
_TEXT	SEGMENT PARA USE32 PUBLIC 'CODE'
_TEXT	ENDS
;	COMDAT ??0logic_error@std@@QAE@ABV?$basic_string@DU?$char_traits@D@std@@V?$allocator@D@2@@1@@Z
_TEXT	SEGMENT PARA USE32 PUBLIC 'CODE'
_TEXT	ENDS
;	COMDAT ?deallocate@?$allocator@K@std@@QAEXPAKI@Z
_TEXT	SEGMENT PARA USE32 PUBLIC 'CODE'
_TEXT	ENDS
;	COMDAT ?allocate@?$allocator@K@std@@QAEPAKI@Z
_TEXT	SEGMENT PARA USE32 PUBLIC 'CODE'
_TEXT	ENDS
;	COMDAT ??$_Allocate@K@std@@YAPAKIPAK@Z
_TEXT	SEGMENT PARA USE32 PUBLIC 'CODE'
_TEXT	ENDS
;	COMDAT ?_Xlen@?$vector@KV?$allocator@K@std@@@std@@IBEXXZ
_TEXT	SEGMENT PARA USE32 PUBLIC 'CODE'
_TEXT	ENDS
;	COMDAT ?max_size@?$vector@KV?$allocator@K@std@@@std@@QBEIXZ
_TEXT	SEGMENT PARA USE32 PUBLIC 'CODE'
_TEXT	ENDS
;	COMDAT ?max_size@?$allocator@K@std@@QBEIXZ
_TEXT	SEGMENT PARA USE32 PUBLIC 'CODE'
_TEXT	ENDS
;	COMDAT __TI3?AVlength_error@std@@
xdata$x	SEGMENT DWORD USE32 PUBLIC 'CONST'
xdata$x	ENDS
;	COMDAT ??1length_error@std@@UAE@XZ
_TEXT	SEGMENT PARA USE32 PUBLIC 'CODE'
_TEXT	ENDS
;	COMDAT ??_7length_error@std@@6B@
CONST	SEGMENT DWORD USE32 PUBLIC 'CONST'
CONST	ENDS
;	COMDAT ??_Glength_error@std@@UAEPAXI@Z
_TEXT	SEGMENT PARA USE32 PUBLIC 'CODE'
_TEXT	ENDS
;	COMDAT __CTA3?AVlength_error@std@@
xdata$x	SEGMENT DWORD USE32 PUBLIC 'CONST'
xdata$x	ENDS
;	COMDAT __CT??_R0?AVlength_error@std@@@8??0length_error@std@@QAE@ABV01@@Z40
xdata$x	SEGMENT DWORD USE32 PUBLIC 'CONST'
xdata$x	ENDS
;	COMDAT ??_R0?AVlength_error@std@@@8
_DATA	SEGMENT DWORD USE32 PUBLIC 'DATA'
_DATA	ENDS
;	COMDAT ??0length_error@std@@QAE@ABV01@@Z
_TEXT	SEGMENT PARA USE32 PUBLIC 'CODE'
_TEXT	ENDS
;	COMDAT ??_C@_0BE@JONHPENG@map?1set?$DMT?$DO?5too?5long?$AA@
CONST	SEGMENT DWORD USE32 PUBLIC 'CONST'
CONST	ENDS
;	COMDAT ??0length_error@std@@QAE@ABV?$basic_string@DU?$char_traits@D@std@@V?$allocator@D@2@@1@@Z
_TEXT	SEGMENT PARA USE32 PUBLIC 'CODE'
_TEXT	ENDS
;	COMDAT ?insert@?$_Tree@V?$_Tmap_traits@KPAVCCtrl@@U?$less@K@std@@V?$allocator@U?$pair@$$CBKPAVCCtrl@@@std@@@3@$0A@@std@@@std@@QAE?AU?$pair@Viterator@?$_Tree@V?$_Tmap_traits@KPAVCCtrl@@U?$less@K@std@@V?$allocator@U?$pair@$$CBKPAVCCtrl@@@std@@@3@$0A@@std@@@std@@_N@2@ABU?$pair@$$CBKPAVCCtrl@@@2@@Z
_TEXT	SEGMENT PARA USE32 PUBLIC 'CODE'
_TEXT	ENDS
;	COMDAT ?_Root@?$_Tree@V?$_Tmap_traits@KPAVCCtrl@@U?$less@K@std@@V?$allocator@U?$pair@$$CBKPAVCCtrl@@@std@@@3@$0A@@std@@@std@@IAEAAPAU_Node@?$_Tree_nod@V?$_Tmap_traits@KPAVCCtrl@@U?$less@K@std@@V?$allocator@U?$pair@$$CBKPAVCCtrl@@@std@@@3@$0A@@std@@@2@XZ
_TEXT	SEGMENT PARA USE32 PUBLIC 'CODE'
_TEXT	ENDS
;	COMDAT ?_Parent@?$_Tree@V?$_Tmap_traits@KPAVCCtrl@@U?$less@K@std@@V?$allocator@U?$pair@$$CBKPAVCCtrl@@@std@@@3@$0A@@std@@@std@@KAAAPAU_Node@?$_Tree_nod@V?$_Tmap_traits@KPAVCCtrl@@U?$less@K@std@@V?$allocator@U?$pair@$$CBKPAVCCtrl@@@std@@@3@$0A@@std@@@2@PAU342@@Z
_TEXT	SEGMENT PARA USE32 PUBLIC 'CODE'
_TEXT	ENDS
;	COMDAT ?_Left@?$_Tree@V?$_Tmap_traits@KPAVCCtrl@@U?$less@K@std@@V?$allocator@U?$pair@$$CBKPAVCCtrl@@@std@@@3@$0A@@std@@@std@@KAAAPAU_Node@?$_Tree_nod@V?$_Tmap_traits@KPAVCCtrl@@U?$less@K@std@@V?$allocator@U?$pair@$$CBKPAVCCtrl@@@std@@@3@$0A@@std@@@2@PAU342@@Z
_TEXT	SEGMENT PARA USE32 PUBLIC 'CODE'
_TEXT	ENDS
;	COMDAT ??0iterator@?$_Tree@V?$_Tmap_traits@KPAVCCtrl@@U?$less@K@std@@V?$allocator@U?$pair@$$CBKPAVCCtrl@@@std@@@3@$0A@@std@@@std@@QAE@PAU_Node@?$_Tree_nod@V?$_Tmap_traits@KPAVCCtrl@@U?$less@K@std@@V?$allocator@U?$pair@$$CBKPAVCCtrl@@@std@@@3@$0A@@std@@@2@@Z
_TEXT	SEGMENT PARA USE32 PUBLIC 'CODE'
_TEXT	ENDS
;	COMDAT ??0const_iterator@?$_Tree@V?$_Tmap_traits@KPAVCCtrl@@U?$less@K@std@@V?$allocator@U?$pair@$$CBKPAVCCtrl@@@std@@@3@$0A@@std@@@std@@QAE@PAU_Node@?$_Tree_nod@V?$_Tmap_traits@KPAVCCtrl@@U?$less@K@std@@V?$allocator@U?$pair@$$CBKPAVCCtrl@@@std@@@3@$0A@@std@@@2@@Z
_TEXT	SEGMENT PARA USE32 PUBLIC 'CODE'
_TEXT	ENDS
;	COMDAT ??0?$pair@Viterator@?$_Tree@V?$_Tmap_traits@KPAVCCtrl@@U?$less@K@std@@V?$allocator@U?$pair@$$CBKPAVCCtrl@@@std@@@3@$0A@@std@@@std@@_N@std@@QAE@ABViterator@?$_Tree@V?$_Tmap_traits@KPAVCCtrl@@U?$less@K@std@@V?$allocator@U?$pair@$$CBKPAVCCtrl@@@std@@@3@$0A@@std@@@1@AB_N@Z
_TEXT	SEGMENT PARA USE32 PUBLIC 'CODE'
_TEXT	ENDS
;	COMDAT ??Eiterator@?$_Tree@V?$_Tmap_traits@KPAVCCtrl@@U?$less@K@std@@V?$allocator@U?$pair@$$CBKPAVCCtrl@@@std@@@3@$0A@@std@@@std@@QAEAAV012@XZ
_TEXT	SEGMENT PARA USE32 PUBLIC 'CODE'
_TEXT	ENDS
;	COMDAT ??Econst_iterator@?$_Tree@V?$_Tmap_traits@KPAVCCtrl@@U?$less@K@std@@V?$allocator@U?$pair@$$CBKPAVCCtrl@@@std@@@3@$0A@@std@@@std@@QAEAAV012@XZ
_TEXT	SEGMENT PARA USE32 PUBLIC 'CODE'
_TEXT	ENDS
;	COMDAT ?_Inc@const_iterator@?$_Tree@V?$_Tmap_traits@KPAVCCtrl@@U?$less@K@std@@V?$allocator@U?$pair@$$CBKPAVCCtrl@@@std@@@3@$0A@@std@@@std@@QAEXXZ
_TEXT	SEGMENT PARA USE32 PUBLIC 'CODE'
_TEXT	ENDS
;	COMDAT ?_Min@?$_Tree@V?$_Tmap_traits@KPAVCCtrl@@U?$less@K@std@@V?$allocator@U?$pair@$$CBKPAVCCtrl@@@std@@@3@$0A@@std@@@std@@KAPAU_Node@?$_Tree_nod@V?$_Tmap_traits@KPAVCCtrl@@U?$less@K@std@@V?$allocator@U?$pair@$$CBKPAVCCtrl@@@std@@@3@$0A@@std@@@2@PAU342@@Z
_TEXT	SEGMENT PARA USE32 PUBLIC 'CODE'
_TEXT	ENDS
;	COMDAT ?_Right@?$_Tree@V?$_Tmap_traits@KPAVCCtrl@@U?$less@K@std@@V?$allocator@U?$pair@$$CBKPAVCCtrl@@@std@@@3@$0A@@std@@@std@@KAAAPAU_Node@?$_Tree_nod@V?$_Tmap_traits@KPAVCCtrl@@U?$less@K@std@@V?$allocator@U?$pair@$$CBKPAVCCtrl@@@std@@@3@$0A@@std@@@2@PAU342@@Z
_TEXT	SEGMENT PARA USE32 PUBLIC 'CODE'
_TEXT	ENDS
;	COMDAT ?_Isnil@?$_Tree@V?$_Tmap_traits@KPAVCCtrl@@U?$less@K@std@@V?$allocator@U?$pair@$$CBKPAVCCtrl@@@std@@@3@$0A@@std@@@std@@KAAADPAU_Node@?$_Tree_nod@V?$_Tmap_traits@KPAVCCtrl@@U?$less@K@std@@V?$allocator@U?$pair@$$CBKPAVCCtrl@@@std@@@3@$0A@@std@@@2@@Z
_TEXT	SEGMENT PARA USE32 PUBLIC 'CODE'
_TEXT	ENDS
;	COMDAT ??Fiterator@?$_Tree@V?$_Tmap_traits@KPAVCCtrl@@U?$less@K@std@@V?$allocator@U?$pair@$$CBKPAVCCtrl@@@std@@@3@$0A@@std@@@std@@QAEAAV012@XZ
_TEXT	SEGMENT PARA USE32 PUBLIC 'CODE'
_TEXT	ENDS
;	COMDAT ??Fconst_iterator@?$_Tree@V?$_Tmap_traits@KPAVCCtrl@@U?$less@K@std@@V?$allocator@U?$pair@$$CBKPAVCCtrl@@@std@@@3@$0A@@std@@@std@@QAEAAV012@XZ
_TEXT	SEGMENT PARA USE32 PUBLIC 'CODE'
_TEXT	ENDS
;	COMDAT ?_Dec@const_iterator@?$_Tree@V?$_Tmap_traits@KPAVCCtrl@@U?$less@K@std@@V?$allocator@U?$pair@$$CBKPAVCCtrl@@@std@@@3@$0A@@std@@@std@@QAEXXZ
_TEXT	SEGMENT PARA USE32 PUBLIC 'CODE'
_TEXT	ENDS
;	COMDAT ?_Max@?$_Tree@V?$_Tmap_traits@KPAVCCtrl@@U?$less@K@std@@V?$allocator@U?$pair@$$CBKPAVCCtrl@@@std@@@3@$0A@@std@@@std@@KAPAU_Node@?$_Tree_nod@V?$_Tmap_traits@KPAVCCtrl@@U?$less@K@std@@V?$allocator@U?$pair@$$CBKPAVCCtrl@@@std@@@3@$0A@@std@@@2@PAU342@@Z
_TEXT	SEGMENT PARA USE32 PUBLIC 'CODE'
_TEXT	ENDS
;	COMDAT ?_Rmost@?$_Tree@V?$_Tmap_traits@KPAVCCtrl@@U?$less@K@std@@V?$allocator@U?$pair@$$CBKPAVCCtrl@@@std@@@3@$0A@@std@@@std@@IAEAAPAU_Node@?$_Tree_nod@V?$_Tmap_traits@KPAVCCtrl@@U?$less@K@std@@V?$allocator@U?$pair@$$CBKPAVCCtrl@@@std@@@3@$0A@@std@@@2@XZ
_TEXT	SEGMENT PARA USE32 PUBLIC 'CODE'
_TEXT	ENDS
;	COMDAT ?_Kfn@?$_Tmap_traits@KPAVCCtrl@@U?$less@K@std@@V?$allocator@U?$pair@$$CBKPAVCCtrl@@@std@@@3@$0A@@std@@SAABKABU?$pair@$$CBKPAVCCtrl@@@2@@Z
_TEXT	SEGMENT PARA USE32 PUBLIC 'CODE'
_TEXT	ENDS
;	COMDAT ?begin@?$_Tree@V?$_Tmap_traits@KPAVCCtrl@@U?$less@K@std@@V?$allocator@U?$pair@$$CBKPAVCCtrl@@@std@@@3@$0A@@std@@@std@@QAE?AViterator@12@XZ
_TEXT	SEGMENT PARA USE32 PUBLIC 'CODE'
_TEXT	ENDS
;	COMDAT ?_Lmost@?$_Tree@V?$_Tmap_traits@KPAVCCtrl@@U?$less@K@std@@V?$allocator@U?$pair@$$CBKPAVCCtrl@@@std@@@3@$0A@@std@@@std@@IAEAAPAU_Node@?$_Tree_nod@V?$_Tmap_traits@KPAVCCtrl@@U?$less@K@std@@V?$allocator@U?$pair@$$CBKPAVCCtrl@@@std@@@3@$0A@@std@@@2@XZ
_TEXT	SEGMENT PARA USE32 PUBLIC 'CODE'
_TEXT	ENDS
;	COMDAT ?_Insert@?$_Tree@V?$_Tmap_traits@KPAVCCtrl@@U?$less@K@std@@V?$allocator@U?$pair@$$CBKPAVCCtrl@@@std@@@3@$0A@@std@@@std@@IAE?AViterator@12@_NPAU_Node@?$_Tree_nod@V?$_Tmap_traits@KPAVCCtrl@@U?$less@K@std@@V?$allocator@U?$pair@$$CBKPAVCCtrl@@@std@@@3@$0A@@std@@@2@ABU?$pair@$$CBKPAVCCtrl@@@2@@Z
_TEXT	SEGMENT PARA USE32 PUBLIC 'CODE'
_TEXT	ENDS
;	COMDAT ?max_size@?$_Tree@V?$_Tmap_traits@KPAVCCtrl@@U?$less@K@std@@V?$allocator@U?$pair@$$CBKPAVCCtrl@@@std@@@3@$0A@@std@@@std@@QBEIXZ
_TEXT	SEGMENT PARA USE32 PUBLIC 'CODE'
_TEXT	ENDS
;	COMDAT ?max_size@?$allocator@U?$pair@$$CBKPAVCCtrl@@@std@@@std@@QBEIXZ
_TEXT	SEGMENT PARA USE32 PUBLIC 'CODE'
_TEXT	ENDS
;	COMDAT ?_Buynode@?$_Tree@V?$_Tmap_traits@KPAVCCtrl@@U?$less@K@std@@V?$allocator@U?$pair@$$CBKPAVCCtrl@@@std@@@3@$0A@@std@@@std@@IAEPAU_Node@?$_Tree_nod@V?$_Tmap_traits@KPAVCCtrl@@U?$less@K@std@@V?$allocator@U?$pair@$$CBKPAVCCtrl@@@std@@@3@$0A@@std@@@2@PAU342@00ABU?$pair@$$CBKPAVCCtrl@@@2@D@Z
_TEXT	SEGMENT PARA USE32 PUBLIC 'CODE'
_TEXT	ENDS
;	COMDAT ?allocate@?$allocator@U_Node@?$_Tree_nod@V?$_Tmap_traits@KPAVCCtrl@@U?$less@K@std@@V?$allocator@U?$pair@$$CBKPAVCCtrl@@@std@@@3@$0A@@std@@@std@@@std@@QAEPAU_Node@?$_Tree_nod@V?$_Tmap_traits@KPAVCCtrl@@U?$less@K@std@@V?$allocator@U?$pair@$$CBKPAVCCtrl@@@std@@@3@$0A@@std@@@2@I@Z
_TEXT	SEGMENT PARA USE32 PUBLIC 'CODE'
_TEXT	ENDS
;	COMDAT ??$_Allocate@U_Node@?$_Tree_nod@V?$_Tmap_traits@KPAVCCtrl@@U?$less@K@std@@V?$allocator@U?$pair@$$CBKPAVCCtrl@@@std@@@3@$0A@@std@@@std@@@std@@YAPAU_Node@?$_Tree_nod@V?$_Tmap_traits@KPAVCCtrl@@U?$less@K@std@@V?$allocator@U?$pair@$$CBKPAVCCtrl@@@std@@@3@$0A@@std@@@0@IPAU120@@Z
_TEXT	SEGMENT PARA USE32 PUBLIC 'CODE'
_TEXT	ENDS
;	COMDAT ??0_Node@?$_Tree_nod@V?$_Tmap_traits@KPAVCCtrl@@U?$less@K@std@@V?$allocator@U?$pair@$$CBKPAVCCtrl@@@std@@@3@$0A@@std@@@std@@QAE@PAU012@00ABU?$pair@$$CBKPAVCCtrl@@@2@D@Z
_TEXT	SEGMENT PARA USE32 PUBLIC 'CODE'
_TEXT	ENDS
;	COMDAT ?deallocate@?$allocator@U_Node@?$_Tree_nod@V?$_Tmap_traits@KPAVCCtrl@@U?$less@K@std@@V?$allocator@U?$pair@$$CBKPAVCCtrl@@@std@@@3@$0A@@std@@@std@@@std@@QAEXPAU_Node@?$_Tree_nod@V?$_Tmap_traits@KPAVCCtrl@@U?$less@K@std@@V?$allocator@U?$pair@$$CBKPAVCCtrl@@@std@@@3@$0A@@std@@@2@I@Z
_TEXT	SEGMENT PARA USE32 PUBLIC 'CODE'
_TEXT	ENDS
;	COMDAT ?_Rrotate@?$_Tree@V?$_Tmap_traits@KPAVCCtrl@@U?$less@K@std@@V?$allocator@U?$pair@$$CBKPAVCCtrl@@@std@@@3@$0A@@std@@@std@@IAEXPAU_Node@?$_Tree_nod@V?$_Tmap_traits@KPAVCCtrl@@U?$less@K@std@@V?$allocator@U?$pair@$$CBKPAVCCtrl@@@std@@@3@$0A@@std@@@2@@Z
_TEXT	SEGMENT PARA USE32 PUBLIC 'CODE'
_TEXT	ENDS
;	COMDAT ?_Lrotate@?$_Tree@V?$_Tmap_traits@KPAVCCtrl@@U?$less@K@std@@V?$allocator@U?$pair@$$CBKPAVCCtrl@@@std@@@3@$0A@@std@@@std@@IAEXPAU_Node@?$_Tree_nod@V?$_Tmap_traits@KPAVCCtrl@@U?$less@K@std@@V?$allocator@U?$pair@$$CBKPAVCCtrl@@@std@@@3@$0A@@std@@@2@@Z
_TEXT	SEGMENT PARA USE32 PUBLIC 'CODE'
_TEXT	ENDS
;	COMDAT ?_Color@?$_Tree@V?$_Tmap_traits@KPAVCCtrl@@U?$less@K@std@@V?$allocator@U?$pair@$$CBKPAVCCtrl@@@std@@@3@$0A@@std@@@std@@KAAADPAU_Node@?$_Tree_nod@V?$_Tmap_traits@KPAVCCtrl@@U?$less@K@std@@V?$allocator@U?$pair@$$CBKPAVCCtrl@@@std@@@3@$0A@@std@@@2@@Z
_TEXT	SEGMENT PARA USE32 PUBLIC 'CODE'
_TEXT	ENDS
;	COMDAT ?compare@?$char_traits@D@std@@SAHPBD0I@Z
_TEXT	SEGMENT PARA USE32 PUBLIC 'CODE'
_TEXT	ENDS
;	COMDAT ?_Destroy@?$vector@KV?$allocator@K@std@@@std@@IAEXPAK0@Z
_TEXT	SEGMENT PARA USE32 PUBLIC 'CODE'
_TEXT	ENDS
;	COMDAT ??$_Destroy_range@KV?$allocator@K@std@@@std@@YAXPAK0AAV?$allocator@K@0@@Z
_TEXT	SEGMENT PARA USE32 PUBLIC 'CODE'
_TEXT	ENDS
;	COMDAT ??Diterator@?$_Tree@V?$_Tmap_traits@KPAVCCtrl@@U?$less@K@std@@V?$allocator@U?$pair@$$CBKPAVCCtrl@@@std@@@3@$0A@@std@@@std@@QBEAAU?$pair@$$CBKPAVCCtrl@@@2@XZ
_TEXT	SEGMENT PARA USE32 PUBLIC 'CODE'
_TEXT	ENDS
;	COMDAT ??Dconst_iterator@?$_Tree@V?$_Tmap_traits@KPAVCCtrl@@U?$less@K@std@@V?$allocator@U?$pair@$$CBKPAVCCtrl@@@std@@@3@$0A@@std@@@std@@QBEABU?$pair@$$CBKPAVCCtrl@@@2@XZ
_TEXT	SEGMENT PARA USE32 PUBLIC 'CODE'
_TEXT	ENDS
;	COMDAT ?_Myval@?$_Tree@V?$_Tmap_traits@KPAVCCtrl@@U?$less@K@std@@V?$allocator@U?$pair@$$CBKPAVCCtrl@@@std@@@3@$0A@@std@@@std@@KAAAU?$pair@$$CBKPAVCCtrl@@@2@PAU_Node@?$_Tree_nod@V?$_Tmap_traits@KPAVCCtrl@@U?$less@K@std@@V?$allocator@U?$pair@$$CBKPAVCCtrl@@@std@@@3@$0A@@std@@@2@@Z
_TEXT	SEGMENT PARA USE32 PUBLIC 'CODE'
_TEXT	ENDS
;	COMDAT ?_Mynode@const_iterator@?$_Tree@V?$_Tmap_traits@KPAVCCtrl@@U?$less@K@std@@V?$allocator@U?$pair@$$CBKPAVCCtrl@@@std@@@3@$0A@@std@@@std@@QBEPAU_Node@?$_Tree_nod@V?$_Tmap_traits@KPAVCCtrl@@U?$less@K@std@@V?$allocator@U?$pair@$$CBKPAVCCtrl@@@std@@@3@$0A@@std@@@3@XZ
_TEXT	SEGMENT PARA USE32 PUBLIC 'CODE'
_TEXT	ENDS
;	COMDAT ?_Key@?$_Tree@V?$_Tmap_traits@KPAVCCtrl@@U?$less@K@std@@V?$allocator@U?$pair@$$CBKPAVCCtrl@@@std@@@3@$0A@@std@@@std@@KAABKPAU_Node@?$_Tree_nod@V?$_Tmap_traits@KPAVCCtrl@@U?$less@K@std@@V?$allocator@U?$pair@$$CBKPAVCCtrl@@@std@@@3@$0A@@std@@@2@@Z
_TEXT	SEGMENT PARA USE32 PUBLIC 'CODE'
_TEXT	ENDS
;	COMDAT ??R?$less@K@std@@QBE_NABK0@Z
_TEXT	SEGMENT PARA USE32 PUBLIC 'CODE'
_TEXT	ENDS
;	COMDAT ?end@?$_Tree@V?$_Tmap_traits@KPAVCCtrl@@U?$less@K@std@@V?$allocator@U?$pair@$$CBKPAVCCtrl@@@std@@@3@$0A@@std@@@std@@QAE?AViterator@12@XZ
_TEXT	SEGMENT PARA USE32 PUBLIC 'CODE'
_TEXT	ENDS
;	COMDAT ??8const_iterator@?$_Tree@V?$_Tmap_traits@KPAVCCtrl@@U?$less@K@std@@V?$allocator@U?$pair@$$CBKPAVCCtrl@@@std@@@3@$0A@@std@@@std@@QBE_NABV012@@Z
_TEXT	SEGMENT PARA USE32 PUBLIC 'CODE'
_TEXT	ENDS
;	COMDAT ?lower_bound@?$_Tree@V?$_Tmap_traits@KPAVCCtrl@@U?$less@K@std@@V?$allocator@U?$pair@$$CBKPAVCCtrl@@@std@@@3@$0A@@std@@@std@@QAE?AViterator@12@ABK@Z
_TEXT	SEGMENT PARA USE32 PUBLIC 'CODE'
_TEXT	ENDS
;	COMDAT ?_Lbound@?$_Tree@V?$_Tmap_traits@KPAVCCtrl@@U?$less@K@std@@V?$allocator@U?$pair@$$CBKPAVCCtrl@@@std@@@3@$0A@@std@@@std@@IBEPAU_Node@?$_Tree_nod@V?$_Tmap_traits@KPAVCCtrl@@U?$less@K@std@@V?$allocator@U?$pair@$$CBKPAVCCtrl@@@std@@@3@$0A@@std@@@2@ABK@Z
_TEXT	SEGMENT PARA USE32 PUBLIC 'CODE'
_TEXT	ENDS
;	COMDAT ?_Root@?$_Tree@V?$_Tmap_traits@KPAVCCtrl@@U?$less@K@std@@V?$allocator@U?$pair@$$CBKPAVCCtrl@@@std@@@3@$0A@@std@@@std@@IBEAAPAU_Node@?$_Tree_nod@V?$_Tmap_traits@KPAVCCtrl@@U?$less@K@std@@V?$allocator@U?$pair@$$CBKPAVCCtrl@@@std@@@3@$0A@@std@@@2@XZ
_TEXT	SEGMENT PARA USE32 PUBLIC 'CODE'
_TEXT	ENDS
;	COMDAT ?_Myptr@?$basic_string@DU?$char_traits@D@std@@V?$allocator@D@2@@std@@QBEPBDXZ
_TEXT	SEGMENT PARA USE32 PUBLIC 'CODE'
_TEXT	ENDS
;	COMDAT ?size@?$basic_string@DU?$char_traits@D@std@@V?$allocator@D@2@@std@@QBEIXZ
_TEXT	SEGMENT PARA USE32 PUBLIC 'CODE'
_TEXT	ENDS
;	COMDAT ?GetPartyId@CMover@@QAEKXZ
_TEXT	SEGMENT PARA USE32 PUBLIC 'CODE'
_TEXT	ENDS
;	COMDAT ?VelocityToVec@@YA?AUD3DXVECTOR3@@MM@Z
_TEXT	SEGMENT PARA USE32 PUBLIC 'CODE'
_TEXT	ENDS
;	COMDAT _sinf
_TEXT	SEGMENT PARA USE32 PUBLIC 'CODE'
_TEXT	ENDS
;	COMDAT _cosf
_TEXT	SEGMENT PARA USE32 PUBLIC 'CODE'
_TEXT	ENDS
;	COMDAT ??HD3DXVECTOR3@@QBE?AU0@ABU0@@Z
_TEXT	SEGMENT PARA USE32 PUBLIC 'CODE'
_TEXT	ENDS
;	COMDAT ?GetDegreeX@@YAMABUD3DXVECTOR3@@0@Z
_TEXT	SEGMENT PARA USE32 PUBLIC 'CODE'
_TEXT	ENDS
;	COMDAT ?atan2@@YAMMM@Z
_TEXT	SEGMENT PARA USE32 PUBLIC 'CODE'
_TEXT	ENDS
;	COMDAT _atan2f
_TEXT	SEGMENT PARA USE32 PUBLIC 'CODE'
_TEXT	ENDS
;	COMDAT ?IsEmptyDest@CMover@@QAEHXZ
_TEXT	SEGMENT PARA USE32 PUBLIC 'CODE'
_TEXT	ENDS
;	COMDAT ?IsEmptyDestPos@CMover@@QAEHXZ
_TEXT	SEGMENT PARA USE32 PUBLIC 'CODE'
_TEXT	ENDS
;	COMDAT ?IsEmptyDestObj@CMover@@QAEHXZ
_TEXT	SEGMENT PARA USE32 PUBLIC 'CODE'
_TEXT	ENDS
;	COMDAT ?fabs@@YAMM@Z
_TEXT	SEGMENT PARA USE32 PUBLIC 'CODE'
_TEXT	ENDS
;	COMDAT _fabsf
_TEXT	SEGMENT PARA USE32 PUBLIC 'CODE'
_TEXT	ENDS
;	COMDAT ?D3DXVec3Length@@YAMPBUD3DXVECTOR3@@@Z
_TEXT	SEGMENT PARA USE32 PUBLIC 'CODE'
_TEXT	ENDS
;	COMDAT _sqrtf
_TEXT	SEGMENT PARA USE32 PUBLIC 'CODE'
_TEXT	ENDS
;	COMDAT ?IsMode@CMover@@QAEHK@Z
_TEXT	SEGMENT PARA USE32 PUBLIC 'CODE'
_TEXT	ENDS
;	COMDAT ?IsRegionAttr@CMover@@QAEHK@Z
_TEXT	SEGMENT PARA USE32 PUBLIC 'CODE'
_TEXT	ENDS
;	COMDAT ?GetID@CWorld@@QAEKXZ
_TEXT	SEGMENT PARA USE32 PUBLIC 'CODE'
_TEXT	ENDS
;	COMDAT ??YD3DXVECTOR3@@QAEAAU0@ABU0@@Z
_TEXT	SEGMENT PARA USE32 PUBLIC 'CODE'
_TEXT	ENDS
;	COMDAT ?IsLive@CMover@@QAEHXZ
_TEXT	SEGMENT PARA USE32 PUBLIC 'CODE'
_TEXT	ENDS
;	COMDAT ?IsDie@CAction@@QAEHXZ
_TEXT	SEGMENT PARA USE32 PUBLIC 'CODE'
_TEXT	ENDS
;	COMDAT ?SendActMsg@CMover@@QAEHW4OBJMSG@@HHHH@Z
_TEXT	SEGMENT PARA USE32 PUBLIC 'CODE'
_TEXT	ENDS
;	COMDAT ?GetItemProp@CProject@@QAEPAUItemProp@@H@Z
_TEXT	SEGMENT PARA USE32 PUBLIC 'CODE'
_TEXT	ENDS
;	COMDAT ?LOG_RANGE@@YAXPBDHHH@Z
_TEXT	SEGMENT PARA USE32 PUBLIC 'CODE'
_TEXT	ENDS
;	COMDAT ??_C@_0BM@HMFGHCP@?$CFs?5min?3?$CFd?0?5max?3?$CFd?0?5index?3?$CFd?$AA@
CONST	SEGMENT DWORD USE32 PUBLIC 'CONST'
CONST	ENDS
;	COMDAT ?GetSize@?$CFixedArray@UItemProp@@@@QAEHXZ
_TEXT	SEGMENT PARA USE32 PUBLIC 'CODE'
_TEXT	ENDS
;	COMDAT ??_C@_0BI@BEIFNGEL@GetItemProp?5range_error?$AA@
CONST	SEGMENT DWORD USE32 PUBLIC 'CONST'
CONST	ENDS
;	COMDAT ?LOG_CALLSTACK@@YAXXZ
_TEXT	SEGMENT PARA USE32 PUBLIC 'CODE'
_TEXT	ENDS
;	COMDAT ?GetAt@?$CFixedArray@UItemProp@@@@QAEPAUItemProp@@K@Z
_TEXT	SEGMENT PARA USE32 PUBLIC 'CODE'
_TEXT	ENDS
;	COMDAT ?GetIndex@CObj@@QAEKXZ
_TEXT	SEGMENT PARA USE32 PUBLIC 'CODE'
_TEXT	ENDS
;	COMDAT ?GetWorld@CObj@@QAEPAVCWorld@@XZ
_TEXT	SEGMENT PARA USE32 PUBLIC 'CODE'
_TEXT	ENDS
;	COMDAT ?IsDelete@CObj@@QAEHXZ
_TEXT	SEGMENT PARA USE32 PUBLIC 'CODE'
_TEXT	ENDS
;	COMDAT ?GetAngleX@CObj@@QAEMXZ
_TEXT	SEGMENT PARA USE32 PUBLIC 'CODE'
_TEXT	ENDS
;	COMDAT ?IsFly@CAction@@QAEHXZ
_TEXT	SEGMENT PARA USE32 PUBLIC 'CODE'
_TEXT	ENDS
;	COMDAT ?IsInvalidObj@@YAHPAVCObj@@@Z
_TEXT	SEGMENT PARA USE32 PUBLIC 'CODE'
_TEXT	ENDS
;	COMDAT ?xRandom@@YAKK@Z
_TEXT	SEGMENT PARA USE32 PUBLIC 'CODE'
_TEXT	ENDS
;	COMDAT ?GetCount@CMover@@QAEHXZ
_TEXT	SEGMENT PARA USE32 PUBLIC 'CODE'
_TEXT	ENDS
;	COMDAT ?GetMoveEvent@CMover@@QAEHXZ
_TEXT	SEGMENT PARA USE32 PUBLIC 'CODE'
_TEXT	ENDS
;	COMDAT ?GetMovePattern@CMover@@QAEHXZ
_TEXT	SEGMENT PARA USE32 PUBLIC 'CODE'
_TEXT	ENDS
;	COMDAT ?GetState@CAction@@QAEKXZ
_TEXT	SEGMENT PARA USE32 PUBLIC 'CODE'
_TEXT	ENDS
;	COMDAT ?IsDie@CMover@@QAEHXZ
_TEXT	SEGMENT PARA USE32 PUBLIC 'CODE'
_TEXT	ENDS
;	COMDAT ?GetAggro@CMover@@QAEKXZ
_TEXT	SEGMENT PARA USE32 PUBLIC 'CODE'
_TEXT	ENDS
;	COMDAT ?SetAggro@CMover@@QAEXJ@Z
_TEXT	SEGMENT PARA USE32 PUBLIC 'CODE'
_TEXT	ENDS
;	COMDAT ?IsPlayer@CMover@@QAEHXZ
_TEXT	SEGMENT PARA USE32 PUBLIC 'CODE'
_TEXT	ENDS
;	COMDAT ?GetNextNode@CObj@@QAEPAV1@XZ
_TEXT	SEGMENT PARA USE32 PUBLIC 'CODE'
_TEXT	ENDS
;	COMDAT ?GetPropA@CItem@@QAEPAUItemProp@@XZ
_TEXT	SEGMENT PARA USE32 PUBLIC 'CODE'
_TEXT	ENDS
;	COMDAT ?GetType@CObj@@QAEKXZ
_TEXT	SEGMENT PARA USE32 PUBLIC 'CODE'
_TEXT	ENDS
;	COMDAT ?GetLayer@CObj@@QAEHXZ
_TEXT	SEGMENT PARA USE32 PUBLIC 'CODE'
_TEXT	ENDS
;	COMDAT ?GetPropA@CMover@@QAEPAUMoverProp@@XZ
_TEXT	SEGMENT PARA USE32 PUBLIC 'CODE'
_TEXT	ENDS
;	COMDAT ?GetMoverProp@CProject@@QAEPAUMoverProp@@H@Z
_TEXT	SEGMENT PARA USE32 PUBLIC 'CODE'
_TEXT	ENDS
;	COMDAT ??_C@_0BJ@GKPOBPPI@GetMoverProp?5range_error?$AA@
CONST	SEGMENT DWORD USE32 PUBLIC 'CONST'
CONST	ENDS
;	COMDAT ?D3DXVec3LengthSq@@YAMPBUD3DXVECTOR3@@@Z
_TEXT	SEGMENT PARA USE32 PUBLIC 'CODE'
_TEXT	ENDS
;	COMDAT ?IsFlyingNPC@CMover@@QAEHXZ
_TEXT	SEGMENT PARA USE32 PUBLIC 'CODE'
_TEXT	ENDS
;	COMDAT ??GD3DXVECTOR3@@QBE?AU0@ABU0@@Z
_TEXT	SEGMENT PARA USE32 PUBLIC 'CODE'
_TEXT	ENDS
;	COMDAT ?xRand@@YAKXZ
_TEXT	SEGMENT PARA USE32 PUBLIC 'CODE'
_TEXT	ENDS
;	COMDAT ?GetWorld@CAIInterface@@IAEPAVCWorld@@XZ
_TEXT	SEGMENT PARA USE32 PUBLIC 'CODE'
_TEXT	ENDS
;	COMDAT ?GetId@CCtrl@@QAEKXZ
_TEXT	SEGMENT PARA USE32 PUBLIC 'CODE'
_TEXT	ENDS
;	COMDAT ?IsValidObj@@YAHPAVCObj@@@Z
_TEXT	SEGMENT PARA USE32 PUBLIC 'CODE'
_TEXT	ENDS
;	COMDAT ?GetDestId@CMover@@QAEKXZ
_TEXT	SEGMENT PARA USE32 PUBLIC 'CODE'
_TEXT	ENDS
;	COMDAT ?GetDestPos@CMover@@QAE?AUD3DXVECTOR3@@XZ
_TEXT	SEGMENT PARA USE32 PUBLIC 'CODE'
_TEXT	ENDS
;	COMDAT ??8D3DXVECTOR3@@QBEHABU0@@Z
_TEXT	SEGMENT PARA USE32 PUBLIC 'CODE'
_TEXT	ENDS
;	COMDAT ?SetStop@CMover@@QAEXXZ
_TEXT	SEGMENT PARA USE32 PUBLIC 'CODE'
_TEXT	ENDS
;	COMDAT ?ClearDestObj@CMover@@QAEXXZ
_TEXT	SEGMENT PARA USE32 PUBLIC 'CODE'
_TEXT	ENDS
;	COMDAT ?GetAngle@CObj@@QAEMXZ
_TEXT	SEGMENT PARA USE32 PUBLIC 'CODE'
_TEXT	ENDS
;	COMDAT ?GetPos@CObj@@QAE?AUD3DXVECTOR3@@XZ
_TEXT	SEGMENT PARA USE32 PUBLIC 'CODE'
_TEXT	ENDS
;	COMDAT ??1CTimer@@UAE@XZ
_TEXT	SEGMENT PARA USE32 PUBLIC 'CODE'
_TEXT	ENDS
;	COMDAT ??_7CTimer@@6B@
CONST	SEGMENT DWORD USE32 PUBLIC 'CONST'
CONST	ENDS
;	COMDAT ??_GCTimer@@UAEPAXI@Z
_TEXT	SEGMENT PARA USE32 PUBLIC 'CODE'
_TEXT	ENDS
;	COMDAT ??_7CAIAggro@@6B@
CONST	SEGMENT DWORD USE32 PUBLIC 'CONST'
CONST	ENDS
;	COMDAT ??_7CMapChildE@@6B@
CONST	SEGMENT DWORD USE32 PUBLIC 'CONST'
CONST	ENDS
;	COMDAT ?Leave@CMclCritSec@@QAEXXZ
_TEXT	SEGMENT PARA USE32 PUBLIC 'CODE'
_TEXT	ENDS
;	COMDAT ?Enter@CMclCritSec@@QAEXXZ
_TEXT	SEGMENT PARA USE32 PUBLIC 'CODE'
_TEXT	ENDS
;	COMDAT ??1CMclCritSec@@UAE@XZ
_TEXT	SEGMENT PARA USE32 PUBLIC 'CODE'
_TEXT	ENDS
;	COMDAT ??_7CMclCritSec@@6B@
CONST	SEGMENT DWORD USE32 PUBLIC 'CONST'
CONST	ENDS
;	COMDAT ??_GCMclCritSec@@UAEPAXI@Z
_TEXT	SEGMENT PARA USE32 PUBLIC 'CODE'
_TEXT	ENDS
;	COMDAT ??0CMclCritSec@@QAE@XZ
_TEXT	SEGMENT PARA USE32 PUBLIC 'CODE'
_TEXT	ENDS
;	COMDAT ??_7CMapChild@@6B@
CONST	SEGMENT DWORD USE32 PUBLIC 'CONST'
CONST	ENDS
;	COMDAT ??1CMclAutoLock@@QAE@XZ
_TEXT	SEGMENT PARA USE32 PUBLIC 'CODE'
_TEXT	ENDS
;	COMDAT ??0CMclAutoLock@@QAE@AAVCMclCritSec@@@Z
_TEXT	SEGMENT PARA USE32 PUBLIC 'CODE'
_TEXT	ENDS
;	COMDAT ??_7CBuffer2@@6B@
CONST	SEGMENT DWORD USE32 PUBLIC 'CONST'
CONST	ENDS
;	COMDAT ?erase@?$_Tree@V?$_Tmap_traits@KPAVCCtrl@@U?$less@K@std@@V?$allocator@U?$pair@$$CBKPAVCCtrl@@@std@@@3@$0A@@std@@@std@@QAEIABK@Z
_TEXT	SEGMENT PARA USE32 PUBLIC 'CODE'
_TEXT	ENDS
;	COMDAT ?equal_range@?$_Tree@V?$_Tmap_traits@KPAVCCtrl@@U?$less@K@std@@V?$allocator@U?$pair@$$CBKPAVCCtrl@@@std@@@3@$0A@@std@@@std@@QAE?AU?$pair@Viterator@?$_Tree@V?$_Tmap_traits@KPAVCCtrl@@U?$less@K@std@@V?$allocator@U?$pair@$$CBKPAVCCtrl@@@std@@@3@$0A@@std@@@std@@V123@@2@ABK@Z
_TEXT	SEGMENT PARA USE32 PUBLIC 'CODE'
_TEXT	ENDS
;	COMDAT ??0?$pair@Viterator@?$_Tree@V?$_Tmap_traits@KPAVCCtrl@@U?$less@K@std@@V?$allocator@U?$pair@$$CBKPAVCCtrl@@@std@@@3@$0A@@std@@@std@@V123@@std@@QAE@ABViterator@?$_Tree@V?$_Tmap_traits@KPAVCCtrl@@U?$less@K@std@@V?$allocator@U?$pair@$$CBKPAVCCtrl@@@std@@@3@$0A@@std@@@1@0@Z
_TEXT	SEGMENT PARA USE32 PUBLIC 'CODE'
_TEXT	ENDS
;	COMDAT ?upper_bound@?$_Tree@V?$_Tmap_traits@KPAVCCtrl@@U?$less@K@std@@V?$allocator@U?$pair@$$CBKPAVCCtrl@@@std@@@3@$0A@@std@@@std@@QAE?AViterator@12@ABK@Z
_TEXT	SEGMENT PARA USE32 PUBLIC 'CODE'
_TEXT	ENDS
;	COMDAT ?_Ubound@?$_Tree@V?$_Tmap_traits@KPAVCCtrl@@U?$less@K@std@@V?$allocator@U?$pair@$$CBKPAVCCtrl@@@std@@@3@$0A@@std@@@std@@IBEPAU_Node@?$_Tree_nod@V?$_Tmap_traits@KPAVCCtrl@@U?$less@K@std@@V?$allocator@U?$pair@$$CBKPAVCCtrl@@@std@@@3@$0A@@std@@@2@ABK@Z
_TEXT	SEGMENT PARA USE32 PUBLIC 'CODE'
_TEXT	ENDS
;	COMDAT ??$_Distance@Viterator@?$_Tree@V?$_Tmap_traits@KPAVCCtrl@@U?$less@K@std@@V?$allocator@U?$pair@$$CBKPAVCCtrl@@@std@@@3@$0A@@std@@@std@@I@std@@YAXViterator@?$_Tree@V?$_Tmap_traits@KPAVCCtrl@@U?$less@K@std@@V?$allocator@U?$pair@$$CBKPAVCCtrl@@@std@@@3@$0A@@std@@@0@0AAI@Z
_TEXT	SEGMENT PARA USE32 PUBLIC 'CODE'
_TEXT	ENDS
;	COMDAT ?erase@?$_Tree@V?$_Tmap_traits@KPAVCCtrl@@U?$less@K@std@@V?$allocator@U?$pair@$$CBKPAVCCtrl@@@std@@@3@$0A@@std@@@std@@QAE?AViterator@12@V312@0@Z
_TEXT	SEGMENT PARA USE32 PUBLIC 'CODE'
_TEXT	ENDS
;	COMDAT ?clear@?$_Tree@V?$_Tmap_traits@KPAVCCtrl@@U?$less@K@std@@V?$allocator@U?$pair@$$CBKPAVCCtrl@@@std@@@3@$0A@@std@@@std@@QAEXXZ
_TEXT	SEGMENT PARA USE32 PUBLIC 'CODE'
_TEXT	ENDS
;	COMDAT ?_Erase@?$_Tree@V?$_Tmap_traits@KPAVCCtrl@@U?$less@K@std@@V?$allocator@U?$pair@$$CBKPAVCCtrl@@@std@@@3@$0A@@std@@@std@@IAEXPAU_Node@?$_Tree_nod@V?$_Tmap_traits@KPAVCCtrl@@U?$less@K@std@@V?$allocator@U?$pair@$$CBKPAVCCtrl@@@std@@@3@$0A@@std@@@2@@Z
_TEXT	SEGMENT PARA USE32 PUBLIC 'CODE'
_TEXT	ENDS
;	COMDAT ?destroy@?$allocator@U_Node@?$_Tree_nod@V?$_Tmap_traits@KPAVCCtrl@@U?$less@K@std@@V?$allocator@U?$pair@$$CBKPAVCCtrl@@@std@@@3@$0A@@std@@@std@@@std@@QAEXPAU_Node@?$_Tree_nod@V?$_Tmap_traits@KPAVCCtrl@@U?$less@K@std@@V?$allocator@U?$pair@$$CBKPAVCCtrl@@@std@@@3@$0A@@std@@@2@@Z
_TEXT	SEGMENT PARA USE32 PUBLIC 'CODE'
_TEXT	ENDS
;	COMDAT ??$_Destroy@U_Node@?$_Tree_nod@V?$_Tmap_traits@KPAVCCtrl@@U?$less@K@std@@V?$allocator@U?$pair@$$CBKPAVCCtrl@@@std@@@3@$0A@@std@@@std@@@std@@YAXPAU_Node@?$_Tree_nod@V?$_Tmap_traits@KPAVCCtrl@@U?$less@K@std@@V?$allocator@U?$pair@$$CBKPAVCCtrl@@@std@@@3@$0A@@std@@@0@@Z
_TEXT	SEGMENT PARA USE32 PUBLIC 'CODE'
_TEXT	ENDS
;	COMDAT ?erase@?$_Tree@V?$_Tmap_traits@KPAVCCtrl@@U?$less@K@std@@V?$allocator@U?$pair@$$CBKPAVCCtrl@@@std@@@3@$0A@@std@@@std@@QAE?AViterator@12@V312@@Z
_TEXT	SEGMENT PARA USE32 PUBLIC 'CODE'
_TEXT	ENDS
;	COMDAT ??Eiterator@?$_Tree@V?$_Tmap_traits@KPAVCCtrl@@U?$less@K@std@@V?$allocator@U?$pair@$$CBKPAVCCtrl@@@std@@@3@$0A@@std@@@std@@QAE?AV012@H@Z
_TEXT	SEGMENT PARA USE32 PUBLIC 'CODE'
_TEXT	ENDS
;	COMDAT ??5@YAAAVCAr@@AAV0@AAUD3DXVECTOR3@@@Z
_TEXT	SEGMENT PARA USE32 PUBLIC 'CODE'
_TEXT	ENDS
;	COMDAT ??5CAr@@QAEAAV0@AAM@Z
_TEXT	SEGMENT PARA USE32 PUBLIC 'CODE'
_TEXT	ENDS
;	COMDAT ??5CAr@@QAEAAV0@AAJ@Z
_TEXT	SEGMENT PARA USE32 PUBLIC 'CODE'
_TEXT	ENDS
;	COMDAT ?time_null@@YAJXZ
_TEXT	SEGMENT PARA USE32 PUBLIC 'CODE'
_TEXT	ENDS
;	COMDAT ??6CAr@@QAEAAV0@J@Z
_TEXT	SEGMENT PARA USE32 PUBLIC 'CODE'
_TEXT	ENDS
;	COMDAT ??6@YAAAVCAr@@AAV0@UD3DXVECTOR3@@@Z
_TEXT	SEGMENT PARA USE32 PUBLIC 'CODE'
_TEXT	ENDS
;	COMDAT ??6CAr@@QAEAAV0@M@Z
_TEXT	SEGMENT PARA USE32 PUBLIC 'CODE'
_TEXT	ENDS
;	COMDAT ??1?$basic_string@DU?$char_traits@D@std@@V?$allocator@D@2@@std@@QAE@XZ
_TEXT	SEGMENT PARA USE32 PUBLIC 'CODE'
_TEXT	ENDS
;	COMDAT ??0?$basic_string@DU?$char_traits@D@std@@V?$allocator@D@2@@std@@QAE@PBD@Z
_TEXT	SEGMENT PARA USE32 PUBLIC 'CODE'
_TEXT	ENDS
;	COMDAT ??0?$allocator@D@std@@QAE@XZ
_TEXT	SEGMENT PARA USE32 PUBLIC 'CODE'
_TEXT	ENDS
;	COMDAT ?assign@?$basic_string@DU?$char_traits@D@std@@V?$allocator@D@2@@std@@QAEAAV12@PBD@Z
_TEXT	SEGMENT PARA USE32 PUBLIC 'CODE'
_TEXT	ENDS
;	COMDAT ?assign@?$basic_string@DU?$char_traits@D@std@@V?$allocator@D@2@@std@@QAEAAV12@PBDI@Z
_TEXT	SEGMENT PARA USE32 PUBLIC 'CODE'
_TEXT	ENDS
;	COMDAT ?_Inside@?$basic_string@DU?$char_traits@D@std@@V?$allocator@D@2@@std@@IAE_NPBD@Z
_TEXT	SEGMENT PARA USE32 PUBLIC 'CODE'
_TEXT	ENDS
;	COMDAT ?length@?$char_traits@D@std@@SAIPBD@Z
_TEXT	SEGMENT PARA USE32 PUBLIC 'CODE'
_TEXT	ENDS
;	COMDAT ?c_str@?$basic_string@DU?$char_traits@D@std@@V?$allocator@D@2@@std@@QBEPBDXZ
_TEXT	SEGMENT PARA USE32 PUBLIC 'CODE'
_TEXT	ENDS
;	COMDAT ??6CAr@@QAEAAV0@I@Z
_TEXT	SEGMENT PARA USE32 PUBLIC 'CODE'
_TEXT	ENDS
;	COMDAT ??_7__MINIGAME_EXT_PACKET@@6B@
CONST	SEGMENT DWORD USE32 PUBLIC 'CONST'
CONST	ENDS
;	COMDAT ??5CAr@@QAEAAV0@AAG@Z
_TEXT	SEGMENT PARA USE32 PUBLIC 'CODE'
_TEXT	ENDS
;	COMDAT ??5CAr@@QAEAAV0@AAH@Z
_TEXT	SEGMENT PARA USE32 PUBLIC 'CODE'
_TEXT	ENDS
;	COMDAT ??6CAr@@QAEAAV0@G@Z
_TEXT	SEGMENT PARA USE32 PUBLIC 'CODE'
_TEXT	ENDS
;	COMDAT ??6CAr@@QAEAAV0@H@Z
_TEXT	SEGMENT PARA USE32 PUBLIC 'CODE'
_TEXT	ENDS
;	COMDAT ??_7__MINIGAME_PACKET@@6B@
CONST	SEGMENT DWORD USE32 PUBLIC 'CONST'
CONST	ENDS
;	COMDAT ??1?$vector@KV?$allocator@K@std@@@std@@QAE@XZ
_TEXT	SEGMENT PARA USE32 PUBLIC 'CODE'
_TEXT	ENDS
;	COMDAT ?_Tidy@?$vector@KV?$allocator@K@std@@@std@@IAEXXZ
_TEXT	SEGMENT PARA USE32 PUBLIC 'CODE'
_TEXT	ENDS
;	COMDAT ??0?$vector@KV?$allocator@K@std@@@std@@QAE@XZ
_TEXT	SEGMENT PARA USE32 PUBLIC 'CODE'
_TEXT	ENDS
;	COMDAT ??0?$_Vector_val@KV?$allocator@K@std@@@std@@IAE@V?$allocator@K@1@@Z
_TEXT	SEGMENT PARA USE32 PUBLIC 'CODE'
_TEXT	ENDS
;	COMDAT ??0?$allocator@K@std@@QAE@ABV01@@Z
_TEXT	SEGMENT PARA USE32 PUBLIC 'CODE'
_TEXT	ENDS
;	COMDAT ??0?$allocator@K@std@@QAE@XZ
_TEXT	SEGMENT PARA USE32 PUBLIC 'CODE'
_TEXT	ENDS
;	COMDAT ?_Buy@?$vector@KV?$allocator@K@std@@@std@@IAE_NI@Z
_TEXT	SEGMENT PARA USE32 PUBLIC 'CODE'
_TEXT	ENDS
;	COMDAT ??5CAr@@QAEAAV0@AAK@Z
_TEXT	SEGMENT PARA USE32 PUBLIC 'CODE'
_TEXT	ENDS
;	COMDAT ??6CAr@@QAEAAV0@K@Z
_TEXT	SEGMENT PARA USE32 PUBLIC 'CODE'
_TEXT	ENDS
;	COMDAT ?IsStoring@CAr@@QBEHXZ
_TEXT	SEGMENT PARA USE32 PUBLIC 'CODE'
_TEXT	ENDS
;	COMDAT ??0D3DXVECTOR3@@QAE@MMM@Z
_TEXT	SEGMENT PARA USE32 PUBLIC 'CODE'
_TEXT	ENDS
;	COMDAT ?GetTickCount@CTime@ATL@@SG?AV12@XZ
_TEXT	SEGMENT PARA USE32 PUBLIC 'CODE'
_TEXT	ENDS
;	COMDAT ??0CTime@ATL@@QAE@_J@Z
_TEXT	SEGMENT PARA USE32 PUBLIC 'CODE'
_TEXT	ENDS
;	COMDAT ??0D3DXVECTOR3@@QAE@XZ
_TEXT	SEGMENT PARA USE32 PUBLIC 'CODE'
_TEXT	ENDS
;	COMDAT ??0CTime@ATL@@QAE@XZ
_TEXT	SEGMENT PARA USE32 PUBLIC 'CODE'
_TEXT	ENDS
;	COMDAT ?GetMover@CAIInterface@@IAEPAVCMover@@XZ
_TEXT	SEGMENT PARA USE32 PUBLIC 'CODE'
_TEXT	ENDS
;	COMDAT ?IsMove@CAction@@QAEHXZ
_TEXT	SEGMENT PARA USE32 PUBLIC 'CODE'
_TEXT	ENDS
;	COMDAT ?GetMoveState@CAction@@QAEKXZ
_TEXT	SEGMENT PARA USE32 PUBLIC 'CODE'
_TEXT	ENDS
sxdata	SEGMENT DWORD USE32 'SXDATA'
sxdata	ENDS
FLAT	GROUP _DATA, CONST, _BSS
	ASSUME	CS: FLAT, DS: FLAT, SS: FLAT
endif

INCLUDELIB LIBCMT
INCLUDELIB OLDNAMES

PUBLIC	?stateMap@CAIAggro@@2USTATEMAP@@B		; CAIAggro::stateMap
EXTRN	?stateMap@CAIInterface@@2USTATEMAP@@B:QWORD	; CAIInterface::stateMap
CONST	SEGMENT
?stateMap@CAIAggro@@2USTATEMAP@@B DD FLAT:?stateMap@CAIInterface@@2USTATEMAP@@B ; CAIAggro::stateMap
	DD	FLAT:?stateMapEntries@CAIAggro@@2QBUSTATEMAP_ENTRIES@@B
CONST	ENDS
_DATA	SEGMENT
_s_tmAttack DD	03a98H
_DATA	ENDS
PUBLIC	?IsMember@CParty@@QAEHK@Z			; CParty::IsMember
EXTRN	?FindMember@CParty@@QAEHK@Z:NEAR		; CParty::FindMember
; Function compile flags: /Ogty
; File c:\documents and settings\test\mes documents\source\virtuos_v17\build\program\_common\party.h
;	COMDAT ?IsMember@CParty@@QAEHK@Z
_TEXT	SEGMENT
_uPlayerId$ = 8						; size = 4
?IsMember@CParty@@QAEHK@Z PROC NEAR			; CParty::IsMember, COMDAT
; _this$ = ecx

; 119  : 	BOOL	IsMember( u_long uPlayerId )		{	return( FindMember( uPlayerId ) >= 0 );	}

  00000	8b 44 24 04	 mov	 eax, DWORD PTR _uPlayerId$[esp-4]
  00004	50		 push	 eax
  00005	e8 00 00 00 00	 call	 ?FindMember@CParty@@QAEHK@Z ; CParty::FindMember
  0000a	33 c9		 xor	 ecx, ecx
  0000c	85 c0		 test	 eax, eax
  0000e	0f 9d c1	 setge	 cl
  00011	8b c1		 mov	 eax, ecx
  00013	c2 04 00	 ret	 4
?IsMember@CParty@@QAEHK@Z ENDP				; CParty::IsMember
_TEXT	ENDS
PUBLIC	?IsInstanceDungeon@CInstanceDungeonHelper@@QAEHK@Z ; CInstanceDungeonHelper::IsInstanceDungeon
EXTRN	?GetType@CInstanceDungeonHelper@@AAEHK@Z:NEAR	; CInstanceDungeonHelper::GetType
; Function compile flags: /Ogty
; File c:\documents and settings\test\mes documents\source\virtuos_v17\build\program\_common\instancedungeonbase.h
;	COMDAT ?IsInstanceDungeon@CInstanceDungeonHelper@@QAEHK@Z
_TEXT	SEGMENT
_dwWorldId$ = 8						; size = 4
?IsInstanceDungeon@CInstanceDungeonHelper@@QAEHK@Z PROC NEAR ; CInstanceDungeonHelper::IsInstanceDungeon, COMDAT
; _this$ = ecx

; 205  : 	BOOL	IsInstanceDungeon( DWORD dwWorldId )	{ return GetType( dwWorldId ) != NULL_ID; }

  00000	8b 44 24 04	 mov	 eax, DWORD PTR _dwWorldId$[esp-4]
  00004	50		 push	 eax
  00005	e8 00 00 00 00	 call	 ?GetType@CInstanceDungeonHelper@@AAEHK@Z ; CInstanceDungeonHelper::GetType
  0000a	33 c9		 xor	 ecx, ecx
  0000c	83 f8 ff	 cmp	 eax, -1
  0000f	0f 95 c1	 setne	 cl
  00012	8b c1		 mov	 eax, ecx
  00014	c2 04 00	 ret	 4
?IsInstanceDungeon@CInstanceDungeonHelper@@QAEHK@Z ENDP	; CInstanceDungeonHelper::IsInstanceDungeon
_TEXT	ENDS
PUBLIC	?GetStateMap@CAIAggro@@UBEPBUSTATEMAP@@XZ	; CAIAggro::GetStateMap
; Function compile flags: /Ogty
; File c:\documents and settings\test\mes documents\source\virtuos_v17\build\program\_aiinterface\aiaggro.cpp
;	COMDAT ?GetStateMap@CAIAggro@@UBEPBUSTATEMAP@@XZ
_TEXT	SEGMENT
?GetStateMap@CAIAggro@@UBEPBUSTATEMAP@@XZ PROC NEAR	; CAIAggro::GetStateMap, COMDAT
; _this$ = ecx

; 43   : BEGIN_AISTATE_MAP( CAIAggro, CAIInterface )

  00000	b8 00 00 00 00	 mov	 eax, OFFSET FLAT:?stateMap@CAIAggro@@2USTATEMAP@@B ; CAIAggro::stateMap
  00005	c3		 ret	 0
?GetStateMap@CAIAggro@@UBEPBUSTATEMAP@@XZ ENDP		; CAIAggro::GetStateMap
_TEXT	ENDS
PUBLIC	?StateInit@CAIAggro@@IAEHABUAIMSG@@@Z		; CAIAggro::StateInit
; Function compile flags: /Ogty
;	COMDAT ?StateInit@CAIAggro@@IAEHABUAIMSG@@@Z
_TEXT	SEGMENT
_msg$ = 8						; size = 4
?StateInit@CAIAggro@@IAEHABUAIMSG@@@Z PROC NEAR		; CAIAggro::StateInit, COMDAT
; _this$ = ecx

; 262  : 	return TRUE;

  00000	b8 01 00 00 00	 mov	 eax, 1

; 263  : }

  00005	c2 04 00	 ret	 4
?StateInit@CAIAggro@@IAEHABUAIMSG@@@Z ENDP		; CAIAggro::StateInit
_TEXT	ENDS
PUBLIC	?StateWander@CAIAggro@@IAEHABUAIMSG@@@Z		; CAIAggro::StateWander
; Function compile flags: /Ogty
;	COMDAT ?StateWander@CAIAggro@@IAEHABUAIMSG@@@Z
_TEXT	SEGMENT
_msg$ = 8						; size = 4
?StateWander@CAIAggro@@IAEHABUAIMSG@@@Z PROC NEAR	; CAIAggro::StateWander, COMDAT
; _this$ = ecx

; 514  : 	{	return TRUE;	}

  00000	b8 01 00 00 00	 mov	 eax, 1
  00005	c2 04 00	 ret	 4
?StateWander@CAIAggro@@IAEHABUAIMSG@@@Z ENDP		; CAIAggro::StateWander
_TEXT	ENDS
PUBLIC	?StateEvade@CAIAggro@@IAEHABUAIMSG@@@Z		; CAIAggro::StateEvade
; Function compile flags: /Ogty
;	COMDAT ?StateEvade@CAIAggro@@IAEHABUAIMSG@@@Z
_TEXT	SEGMENT
_msg$ = 8						; size = 4
?StateEvade@CAIAggro@@IAEHABUAIMSG@@@Z PROC NEAR	; CAIAggro::StateEvade, COMDAT
; _this$ = ecx

; 516  : 	{	return TRUE;	}

  00000	b8 01 00 00 00	 mov	 eax, 1
  00005	c2 04 00	 ret	 4
?StateEvade@CAIAggro@@IAEHABUAIMSG@@@Z ENDP		; CAIAggro::StateEvade
_TEXT	ENDS
PUBLIC	?size@?$vector@KV?$allocator@K@std@@@std@@QBEIXZ ; std::vector<unsigned long,std::allocator<unsigned long> >::size
; Function compile flags: /Ogty
; File c:\program files\microsoft visual studio .net 2003\vc7\include\vector
;	COMDAT ?size@?$vector@KV?$allocator@K@std@@@std@@QBEIXZ
_TEXT	SEGMENT
?size@?$vector@KV?$allocator@K@std@@@std@@QBEIXZ PROC NEAR ; std::vector<unsigned long,std::allocator<unsigned long> >::size, COMDAT
; _this$ = ecx

; 516  : 		return (_Myfirst == 0 ? 0 : _Mylast - _Myfirst);

  00000	8b 51 04	 mov	 edx, DWORD PTR [ecx+4]
  00003	85 d2		 test	 edx, edx
  00005	75 03		 jne	 SHORT $L271284
  00007	33 c0		 xor	 eax, eax

; 517  : 		}

  00009	c3		 ret	 0
$L271284:

; 516  : 		return (_Myfirst == 0 ? 0 : _Mylast - _Myfirst);

  0000a	8b 41 08	 mov	 eax, DWORD PTR [ecx+8]
  0000d	2b c2		 sub	 eax, edx
  0000f	c1 f8 02	 sar	 eax, 2

; 517  : 		}

  00012	c3		 ret	 0
?size@?$vector@KV?$allocator@K@std@@@std@@QBEIXZ ENDP	; std::vector<unsigned long,std::allocator<unsigned long> >::size
_TEXT	ENDS
PUBLIC	?capacity@?$vector@KV?$allocator@K@std@@@std@@QBEIXZ ; std::vector<unsigned long,std::allocator<unsigned long> >::capacity
; Function compile flags: /Ogty
;	COMDAT ?capacity@?$vector@KV?$allocator@K@std@@@std@@QBEIXZ
_TEXT	SEGMENT
?capacity@?$vector@KV?$allocator@K@std@@@std@@QBEIXZ PROC NEAR ; std::vector<unsigned long,std::allocator<unsigned long> >::capacity, COMDAT
; _this$ = ecx

; 458  : 		return (_Myfirst == 0 ? 0 : _Myend - _Myfirst);

  00000	8b 51 04	 mov	 edx, DWORD PTR [ecx+4]
  00003	85 d2		 test	 edx, edx
  00005	75 03		 jne	 SHORT $L271289
  00007	33 c0		 xor	 eax, eax

; 459  : 		}

  00009	c3		 ret	 0
$L271289:

; 458  : 		return (_Myfirst == 0 ? 0 : _Myend - _Myfirst);

  0000a	8b 41 0c	 mov	 eax, DWORD PTR [ecx+12]
  0000d	2b c2		 sub	 eax, edx
  0000f	c1 f8 02	 sar	 eax, 2

; 459  : 		}

  00012	c3		 ret	 0
?capacity@?$vector@KV?$allocator@K@std@@@std@@QBEIXZ ENDP ; std::vector<unsigned long,std::allocator<unsigned long> >::capacity
_TEXT	ENDS
PUBLIC	??Eiterator@?$vector@KV?$allocator@K@std@@@std@@QAEAAV012@XZ ; std::vector<unsigned long,std::allocator<unsigned long> >::iterator::operator++
; Function compile flags: /Ogty
;	COMDAT ??Eiterator@?$vector@KV?$allocator@K@std@@@std@@QAEAAV012@XZ
_TEXT	SEGMENT
??Eiterator@?$vector@KV?$allocator@K@std@@@std@@QAEAAV012@XZ PROC NEAR ; std::vector<unsigned long,std::allocator<unsigned long> >::iterator::operator++, COMDAT
; _this$ = ecx

; 229  : 			{	// preincrement

  00000	8b c1		 mov	 eax, ecx

; 230  : 			++this->_Myptr;

  00002	83 00 04	 add	 DWORD PTR [eax], 4

; 231  : 			return (*this);
; 232  : 			}

  00005	c3		 ret	 0
??Eiterator@?$vector@KV?$allocator@K@std@@@std@@QAEAAV012@XZ ENDP ; std::vector<unsigned long,std::allocator<unsigned long> >::iterator::operator++
_TEXT	ENDS
PUBLIC	??Dconst_iterator@?$vector@KV?$allocator@K@std@@@std@@QBEABKXZ ; std::vector<unsigned long,std::allocator<unsigned long> >::const_iterator::operator*
; Function compile flags: /Ogty
;	COMDAT ??Dconst_iterator@?$vector@KV?$allocator@K@std@@@std@@QBEABKXZ
_TEXT	SEGMENT
??Dconst_iterator@?$vector@KV?$allocator@K@std@@@std@@QBEABKXZ PROC NEAR ; std::vector<unsigned long,std::allocator<unsigned long> >::const_iterator::operator*, COMDAT
; _this$ = ecx

; 80   : 
; 81   : 
; 82   : 			return (*_Myptr);

  00000	8b 01		 mov	 eax, DWORD PTR [ecx]

; 83   : 			}

  00002	c3		 ret	 0
??Dconst_iterator@?$vector@KV?$allocator@K@std@@@std@@QBEABKXZ ENDP ; std::vector<unsigned long,std::allocator<unsigned long> >::const_iterator::operator*
_TEXT	ENDS
PUBLIC	??8const_iterator@?$vector@KV?$allocator@K@std@@@std@@QBE_NABV012@@Z ; std::vector<unsigned long,std::allocator<unsigned long> >::const_iterator::operator==
; Function compile flags: /Ogty
;	COMDAT ??8const_iterator@?$vector@KV?$allocator@K@std@@@std@@QBE_NABV012@@Z
_TEXT	SEGMENT
__Right$ = 8						; size = 4
??8const_iterator@?$vector@KV?$allocator@K@std@@@std@@QBE_NABV012@@Z PROC NEAR ; std::vector<unsigned long,std::allocator<unsigned long> >::const_iterator::operator==, COMDAT
; _this$ = ecx

; 153  : 
; 154  : 
; 155  : 			return (_Myptr == _Right._Myptr);

  00000	8b 01		 mov	 eax, DWORD PTR [ecx]
  00002	8b 4c 24 04	 mov	 ecx, DWORD PTR __Right$[esp-4]
  00006	2b 01		 sub	 eax, DWORD PTR [ecx]
  00008	f7 d8		 neg	 eax
  0000a	1b c0		 sbb	 eax, eax
  0000c	40		 inc	 eax

; 156  : 			}

  0000d	c2 04 00	 ret	 4
??8const_iterator@?$vector@KV?$allocator@K@std@@@std@@QBE_NABV012@@Z ENDP ; std::vector<unsigned long,std::allocator<unsigned long> >::const_iterator::operator==
_TEXT	ENDS
PUBLIC	??0const_iterator@?$vector@KV?$allocator@K@std@@@std@@QAE@PAK@Z ; std::vector<unsigned long,std::allocator<unsigned long> >::const_iterator::const_iterator
; Function compile flags: /Ogty
;	COMDAT ??0const_iterator@?$vector@KV?$allocator@K@std@@@std@@QAE@PAK@Z
_TEXT	SEGMENT
__Ptr$ = 8						; size = 4
??0const_iterator@?$vector@KV?$allocator@K@std@@@std@@QAE@PAK@Z PROC NEAR ; std::vector<unsigned long,std::allocator<unsigned long> >::const_iterator::const_iterator, COMDAT
; _this$ = ecx

; 73   : 		const_iterator(_Tptr _Ptr)

  00000	8b c1		 mov	 eax, ecx

; 74   : 			{	// construct with pointer _Ptr
; 75   : 			_Myptr = _Ptr;

  00002	8b 4c 24 04	 mov	 ecx, DWORD PTR __Ptr$[esp-4]
  00006	89 08		 mov	 DWORD PTR [eax], ecx

; 76   : 			}

  00008	c2 04 00	 ret	 4
??0const_iterator@?$vector@KV?$allocator@K@std@@@std@@QAE@PAK@Z ENDP ; std::vector<unsigned long,std::allocator<unsigned long> >::const_iterator::const_iterator
_TEXT	ENDS
PUBLIC	??Yiterator@?$vector@KV?$allocator@K@std@@@std@@QAEAAV012@H@Z ; std::vector<unsigned long,std::allocator<unsigned long> >::iterator::operator+=
; Function compile flags: /Ogty
;	COMDAT ??Yiterator@?$vector@KV?$allocator@K@std@@@std@@QAEAAV012@H@Z
_TEXT	SEGMENT
__Off$ = 8						; size = 4
??Yiterator@?$vector@KV?$allocator@K@std@@@std@@QAEAAV012@H@Z PROC NEAR ; std::vector<unsigned long,std::allocator<unsigned long> >::iterator::operator+=, COMDAT
; _this$ = ecx

; 255  : 			{	// increment by integer

  00000	8b c1		 mov	 eax, ecx

; 256  : 			this->_Myptr += _Off;

  00002	8b 4c 24 04	 mov	 ecx, DWORD PTR __Off$[esp-4]
  00006	8d 14 8d 00 00
	00 00		 lea	 edx, DWORD PTR [ecx*4]
  0000d	01 10		 add	 DWORD PTR [eax], edx

; 257  : 			return (*this);
; 258  : 			}

  0000f	c2 04 00	 ret	 4
??Yiterator@?$vector@KV?$allocator@K@std@@@std@@QAEAAV012@H@Z ENDP ; std::vector<unsigned long,std::allocator<unsigned long> >::iterator::operator+=
_TEXT	ENDS
PUBLIC	??Gconst_iterator@?$vector@KV?$allocator@K@std@@@std@@QBEHABV012@@Z ; std::vector<unsigned long,std::allocator<unsigned long> >::const_iterator::operator-
; Function compile flags: /Ogty
;	COMDAT ??Gconst_iterator@?$vector@KV?$allocator@K@std@@@std@@QBEHABV012@@Z
_TEXT	SEGMENT
__Right$ = 8						; size = 4
??Gconst_iterator@?$vector@KV?$allocator@K@std@@@std@@QBEHABV012@@Z PROC NEAR ; std::vector<unsigned long,std::allocator<unsigned long> >::const_iterator::operator-, COMDAT
; _this$ = ecx

; 141  : 
; 142  : 
; 143  : 			return (_Myptr - _Right._Myptr);

  00000	8b 01		 mov	 eax, DWORD PTR [ecx]
  00002	8b 4c 24 04	 mov	 ecx, DWORD PTR __Right$[esp-4]
  00006	2b 01		 sub	 eax, DWORD PTR [ecx]
  00008	c1 f8 02	 sar	 eax, 2

; 144  : 			}

  0000b	c2 04 00	 ret	 4
??Gconst_iterator@?$vector@KV?$allocator@K@std@@@std@@QBEHABV012@@Z ENDP ; std::vector<unsigned long,std::allocator<unsigned long> >::const_iterator::operator-
_TEXT	ENDS
PUBLIC	??$_Destroy_range@KV?$allocator@K@std@@@std@@YAXPAK0AAV?$allocator@K@0@U_Scalar_ptr_iterator_tag@0@@Z ; std::_Destroy_range<unsigned long,std::allocator<unsigned long> >
; Function compile flags: /Ogty
; File c:\program files\microsoft visual studio .net 2003\vc7\include\xmemory
;	COMDAT ??$_Destroy_range@KV?$allocator@K@std@@@std@@YAXPAK0AAV?$allocator@K@0@U_Scalar_ptr_iterator_tag@0@@Z
_TEXT	SEGMENT
__First$ = 8						; size = 4
__Last$ = 12						; size = 4
__Al$ = 16						; size = 4
___formal$ = 20						; size = 1
??$_Destroy_range@KV?$allocator@K@std@@@std@@YAXPAK0AAV?$allocator@K@0@U_Scalar_ptr_iterator_tag@0@@Z PROC NEAR ; std::_Destroy_range<unsigned long,std::allocator<unsigned long> >, COMDAT

; 234  : 	}

  00000	c3		 ret	 0
??$_Destroy_range@KV?$allocator@K@std@@@std@@YAXPAK0AAV?$allocator@K@0@U_Scalar_ptr_iterator_tag@0@@Z ENDP ; std::_Destroy_range<unsigned long,std::allocator<unsigned long> >
_TEXT	ENDS
PUBLIC	??$fill@PAKK@std@@YAXPAK0ABK@Z			; std::fill<unsigned long *,unsigned long>
; Function compile flags: /Ogty
; File c:\program files\microsoft visual studio .net 2003\vc7\include\xutility
;	COMDAT ??$fill@PAKK@std@@YAXPAK0ABK@Z
_TEXT	SEGMENT
__First$ = 8						; size = 4
__Last$ = 12						; size = 4
__Val$ = 16						; size = 4
??$fill@PAKK@std@@YAXPAK0ABK@Z PROC NEAR		; std::fill<unsigned long *,unsigned long>, COMDAT

; 1135 : 	for (; _First != _Last; ++_First)

  00000	8b 44 24 04	 mov	 eax, DWORD PTR __First$[esp-4]
  00004	8b 4c 24 08	 mov	 ecx, DWORD PTR __Last$[esp-4]
  00008	3b c1		 cmp	 eax, ecx
  0000a	74 11		 je	 SHORT $L269321
  0000c	8b 54 24 0c	 mov	 edx, DWORD PTR __Val$[esp-4]
  00010	56		 push	 esi
$L269319:

; 1136 : 		*_First = _Val;

  00011	8b 32		 mov	 esi, DWORD PTR [edx]
  00013	89 30		 mov	 DWORD PTR [eax], esi
  00015	83 c0 04	 add	 eax, 4
  00018	3b c1		 cmp	 eax, ecx
  0001a	75 f5		 jne	 SHORT $L269319
  0001c	5e		 pop	 esi
$L269321:

; 1137 : 	}

  0001d	c3		 ret	 0
??$fill@PAKK@std@@YAXPAK0ABK@Z ENDP			; std::fill<unsigned long *,unsigned long>
_TEXT	ENDS
PUBLIC	??$_Copy_opt@PAKPAK@std@@YAPAKPAK00U_Scalar_ptr_iterator_tag@0@@Z ; std::_Copy_opt<unsigned long *,unsigned long *>
EXTRN	_memmove:NEAR
; Function compile flags: /Ogty
;	COMDAT ??$_Copy_opt@PAKPAK@std@@YAPAKPAK00U_Scalar_ptr_iterator_tag@0@@Z
_TEXT	SEGMENT
__First$ = 8						; size = 4
__Last$ = 12						; size = 4
__Dest$ = 16						; size = 4
___formal$ = 20						; size = 1
??$_Copy_opt@PAKPAK@std@@YAPAKPAK00U_Scalar_ptr_iterator_tag@0@@Z PROC NEAR ; std::_Copy_opt<unsigned long *,unsigned long *>, COMDAT

; 1031 : 	ptrdiff_t _Off = _Last - _First;	// NB: non-overlapping move

  00000	8b 4c 24 04	 mov	 ecx, DWORD PTR __First$[esp-4]
  00004	8b 44 24 08	 mov	 eax, DWORD PTR __Last$[esp-4]
  00008	2b c1		 sub	 eax, ecx
  0000a	56		 push	 esi
  0000b	c1 f8 02	 sar	 eax, 2

; 1032 : 	return ((_OutIt)::memmove(&*_Dest, &*_First,
; 1033 : 		_Off * sizeof (*_First)) + _Off);

  0000e	8d 34 85 00 00
	00 00		 lea	 esi, DWORD PTR [eax*4]
  00015	8b 44 24 10	 mov	 eax, DWORD PTR __Dest$[esp]
  00019	56		 push	 esi
  0001a	51		 push	 ecx
  0001b	50		 push	 eax
  0001c	e8 00 00 00 00	 call	 _memmove
  00021	83 c4 0c	 add	 esp, 12			; 0000000cH
  00024	03 c6		 add	 eax, esi
  00026	5e		 pop	 esi

; 1034 : 	}

  00027	c3		 ret	 0
??$_Copy_opt@PAKPAK@std@@YAPAKPAK00U_Scalar_ptr_iterator_tag@0@@Z ENDP ; std::_Copy_opt<unsigned long *,unsigned long *>
_TEXT	ENDS
PUBLIC	??$_Copy_backward_opt@PAKPAK@std@@YAPAKPAK00U_Scalar_ptr_iterator_tag@0@@Z ; std::_Copy_backward_opt<unsigned long *,unsigned long *>
; Function compile flags: /Ogty
;	COMDAT ??$_Copy_backward_opt@PAKPAK@std@@YAPAKPAK00U_Scalar_ptr_iterator_tag@0@@Z
_TEXT	SEGMENT
__First$ = 8						; size = 4
__Last$ = 12						; size = 4
__Dest$ = 16						; size = 4
___formal$ = 20						; size = 1
??$_Copy_backward_opt@PAKPAK@std@@YAPAKPAK00U_Scalar_ptr_iterator_tag@0@@Z PROC NEAR ; std::_Copy_backward_opt<unsigned long *,unsigned long *>, COMDAT

; 1059 : 	ptrdiff_t _Off = _Last - _First;	// NB: non-overlapping move

  00000	8b 4c 24 04	 mov	 ecx, DWORD PTR __First$[esp-4]
  00004	8b 44 24 08	 mov	 eax, DWORD PTR __Last$[esp-4]
  00008	2b c1		 sub	 eax, ecx
  0000a	c1 f8 02	 sar	 eax, 2

; 1060 : 	return ((_OutIt)memmove(&*_Dest - _Off, &*_First,
; 1061 : 		_Off * sizeof (*_First)));

  0000d	c1 e0 02	 shl	 eax, 2
  00010	50		 push	 eax
  00011	51		 push	 ecx
  00012	8b 4c 24 14	 mov	 ecx, DWORD PTR __Dest$[esp+4]
  00016	2b c8		 sub	 ecx, eax
  00018	51		 push	 ecx
  00019	e8 00 00 00 00	 call	 _memmove
  0001e	83 c4 0c	 add	 esp, 12			; 0000000cH

; 1062 : 	}

  00021	c3		 ret	 0
??$_Copy_backward_opt@PAKPAK@std@@YAPAKPAK00U_Scalar_ptr_iterator_tag@0@@Z ENDP ; std::_Copy_backward_opt<unsigned long *,unsigned long *>
_TEXT	ENDS
PUBLIC	??$fill_n@PAKIK@std@@YAXPAKIABK@Z		; std::fill_n<unsigned long *,unsigned int,unsigned long>
; Function compile flags: /Ogty
;	COMDAT ??$fill_n@PAKIK@std@@YAXPAKIABK@Z
_TEXT	SEGMENT
__First$ = 8						; size = 4
__Count$ = 12						; size = 4
__Val$ = 16						; size = 4
??$fill_n@PAKIK@std@@YAXPAKIABK@Z PROC NEAR		; std::fill_n<unsigned long *,unsigned int,unsigned long>, COMDAT

; 1160 : 	for (; 0 < _Count; --_Count, ++_First)

  00000	8b 4c 24 08	 mov	 ecx, DWORD PTR __Count$[esp-4]
  00004	85 c9		 test	 ecx, ecx
  00006	76 14		 jbe	 SHORT $L270025
  00008	8b 54 24 0c	 mov	 edx, DWORD PTR __Val$[esp-4]
  0000c	8b 44 24 04	 mov	 eax, DWORD PTR __First$[esp-4]
  00010	56		 push	 esi
$L270023:

; 1161 : 		*_First = _Val;

  00011	8b 32		 mov	 esi, DWORD PTR [edx]
  00013	89 30		 mov	 DWORD PTR [eax], esi
  00015	83 c0 04	 add	 eax, 4
  00018	49		 dec	 ecx
  00019	75 f6		 jne	 SHORT $L270023
  0001b	5e		 pop	 esi
$L270025:

; 1162 : 	}

  0001c	c3		 ret	 0
??$fill_n@PAKIK@std@@YAXPAKIABK@Z ENDP			; std::fill_n<unsigned long *,unsigned int,unsigned long>
_TEXT	ENDS
PUBLIC	??$_Uninit_copy@KK@std@@YAPAKPAK00AAV?$allocator@K@0@U_Scalar_ptr_iterator_tag@0@@Z ; std::_Uninit_copy<unsigned long,unsigned long>
; Function compile flags: /Ogty
; File c:\program files\microsoft visual studio .net 2003\vc7\include\memory
;	COMDAT ??$_Uninit_copy@KK@std@@YAPAKPAK00AAV?$allocator@K@0@U_Scalar_ptr_iterator_tag@0@@Z
_TEXT	SEGMENT
__First$ = 8						; size = 4
__Last$ = 12						; size = 4
__Dest$ = 16						; size = 4
___formal$ = 20						; size = 4
___formal$ = 24						; size = 1
??$_Uninit_copy@KK@std@@YAPAKPAK00AAV?$allocator@K@0@U_Scalar_ptr_iterator_tag@0@@Z PROC NEAR ; std::_Uninit_copy<unsigned long,unsigned long>, COMDAT

; 106  : 	size_t _Count = (size_t)(_Last - _First);

  00000	8b 4c 24 04	 mov	 ecx, DWORD PTR __First$[esp-4]
  00004	8b 44 24 08	 mov	 eax, DWORD PTR __Last$[esp-4]
  00008	2b c1		 sub	 eax, ecx
  0000a	56		 push	 esi
  0000b	c1 f8 02	 sar	 eax, 2

; 107  : 	return ((_Ty2 *)memmove(&*_Dest, &*_First,
; 108  : 		_Count * sizeof (*_First)) + _Count);	// NB: non-overlapping move

  0000e	8d 34 85 00 00
	00 00		 lea	 esi, DWORD PTR [eax*4]
  00015	8b 44 24 10	 mov	 eax, DWORD PTR __Dest$[esp]
  00019	56		 push	 esi
  0001a	51		 push	 ecx
  0001b	50		 push	 eax
  0001c	e8 00 00 00 00	 call	 _memmove
  00021	83 c4 0c	 add	 esp, 12			; 0000000cH
  00024	03 c6		 add	 eax, esi
  00026	5e		 pop	 esi

; 109  : 	}

  00027	c3		 ret	 0
??$_Uninit_copy@KK@std@@YAPAKPAK00AAV?$allocator@K@0@U_Scalar_ptr_iterator_tag@0@@Z ENDP ; std::_Uninit_copy<unsigned long,unsigned long>
_TEXT	ENDS
PUBLIC	?assign@?$char_traits@D@std@@SAXAADABD@Z	; std::char_traits<char>::assign
; Function compile flags: /Ogty
; File c:\program files\microsoft visual studio .net 2003\vc7\include\iosfwd
;	COMDAT ?assign@?$char_traits@D@std@@SAXAADABD@Z
_TEXT	SEGMENT
__Left$ = 8						; size = 4
__Right$ = 12						; size = 4
?assign@?$char_traits@D@std@@SAXAADABD@Z PROC NEAR	; std::char_traits<char>::assign, COMDAT

; 331  : 		_Left = _Right;

  00000	8b 44 24 08	 mov	 eax, DWORD PTR __Right$[esp-4]
  00004	8a 08		 mov	 cl, BYTE PTR [eax]
  00006	8b 54 24 04	 mov	 edx, DWORD PTR __Left$[esp-4]
  0000a	88 0a		 mov	 BYTE PTR [edx], cl

; 332  : 		}

  0000c	c3		 ret	 0
?assign@?$char_traits@D@std@@SAXAADABD@Z ENDP		; std::char_traits<char>::assign
_TEXT	ENDS
PUBLIC	?length@?$char_traits@D@std@@SAIPBD@Z		; std::char_traits<char>::length
; Function compile flags: /Ogty
;	COMDAT ?length@?$char_traits@D@std@@SAIPBD@Z
_TEXT	SEGMENT
__First$ = 8						; size = 4
?length@?$char_traits@D@std@@SAIPBD@Z PROC NEAR		; std::char_traits<char>::length, COMDAT

; 352  : 		return (::strlen(_First));

  00000	8b 44 24 04	 mov	 eax, DWORD PTR __First$[esp-4]
  00004	8d 50 01	 lea	 edx, DWORD PTR [eax+1]
$L271337:
  00007	8a 08		 mov	 cl, BYTE PTR [eax]
  00009	40		 inc	 eax
  0000a	84 c9		 test	 cl, cl
  0000c	75 f9		 jne	 SHORT $L271337
  0000e	2b c2		 sub	 eax, edx

; 353  : 		}

  00010	c3		 ret	 0
?length@?$char_traits@D@std@@SAIPBD@Z ENDP		; std::char_traits<char>::length
_TEXT	ENDS
PUBLIC	?copy@?$char_traits@D@std@@SAPADPADPBDI@Z	; std::char_traits<char>::copy
; Function compile flags: /Ogty
;	COMDAT ?copy@?$char_traits@D@std@@SAPADPADPBDI@Z
_TEXT	SEGMENT
__First1$ = 8						; size = 4
__First2$ = 12						; size = 4
__Count$ = 16						; size = 4
?copy@?$char_traits@D@std@@SAPADPADPBDI@Z PROC NEAR	; std::char_traits<char>::copy, COMDAT

; 358  : 		return ((_Elem *)::memcpy(_First1, _First2, _Count));

  00000	8b 4c 24 0c	 mov	 ecx, DWORD PTR __Count$[esp-4]
  00004	56		 push	 esi
  00005	8b 74 24 0c	 mov	 esi, DWORD PTR __First2$[esp]
  00009	57		 push	 edi
  0000a	8b 7c 24 0c	 mov	 edi, DWORD PTR __First1$[esp+4]
  0000e	8b c1		 mov	 eax, ecx
  00010	8b d7		 mov	 edx, edi
  00012	c1 e9 02	 shr	 ecx, 2
  00015	f3 a5		 rep movsd
  00017	8b c8		 mov	 ecx, eax
  00019	83 e1 03	 and	 ecx, 3
  0001c	f3 a4		 rep movsb
  0001e	5f		 pop	 edi
  0001f	8b c2		 mov	 eax, edx
  00021	5e		 pop	 esi

; 359  : 		}

  00022	c3		 ret	 0
?copy@?$char_traits@D@std@@SAPADPADPBDI@Z ENDP		; std::char_traits<char>::copy
_TEXT	ENDS
PUBLIC	?move@?$char_traits@D@std@@SAPADPADPBDI@Z	; std::char_traits<char>::move
; Function compile flags: /Ogty
;	COMDAT ?move@?$char_traits@D@std@@SAPADPADPBDI@Z
_TEXT	SEGMENT
__First1$ = 8						; size = 4
__First2$ = 12						; size = 4
__Count$ = 16						; size = 4
?move@?$char_traits@D@std@@SAPADPADPBDI@Z PROC NEAR	; std::char_traits<char>::move, COMDAT

; 370  : 		return ((_Elem *)::memmove(_First1, _First2, _Count));

  00000	e9 00 00 00 00	 jmp	 _memmove
?move@?$char_traits@D@std@@SAPADPADPBDI@Z ENDP		; std::char_traits<char>::move
_TEXT	ENDS
PUBLIC	?_Ptr_cat@std@@YA?AU_Scalar_ptr_iterator_tag@1@PAK0@Z ; std::_Ptr_cat
; Function compile flags: /Ogty
; File c:\program files\microsoft visual studio .net 2003\vc7\include\xutility
;	COMDAT ?_Ptr_cat@std@@YA?AU_Scalar_ptr_iterator_tag@1@PAK0@Z
_TEXT	SEGMENT
__Cat$ = -1						; size = 1
___formal$ = 8						; size = 4
___formal$ = 12						; size = 4
?_Ptr_cat@std@@YA?AU_Scalar_ptr_iterator_tag@1@PAK0@Z PROC NEAR ; std::_Ptr_cat, COMDAT

; 371  : 	{	// return pointer category from pointer to unsigned long arguments

  00000	51		 push	 ecx

; 372  : 	_Scalar_ptr_iterator_tag _Cat;
; 373  : 	return (_Cat);

  00001	8a 44 24 03	 mov	 al, BYTE PTR __Cat$[esp+4]

; 374  : 	}

  00005	59		 pop	 ecx
  00006	c3		 ret	 0
?_Ptr_cat@std@@YA?AU_Scalar_ptr_iterator_tag@1@PAK0@Z ENDP ; std::_Ptr_cat
_TEXT	ENDS
PUBLIC	_atan2f
EXTRN	__fltused:NEAR
; Function compile flags: /Ogty
; File c:\program files\microsoft visual studio .net 2003\vc7\include\math.h
;	COMDAT _atan2f
_TEXT	SEGMENT
__X$ = 8						; size = 4
__Y$ = 12						; size = 4
_atan2f	PROC NEAR					; COMDAT

; 440  :         {return ((float)atan2((double)_X, (double)_Y)); }

  00000	d9 44 24 04	 fld	 DWORD PTR __X$[esp-4]
  00004	d9 44 24 08	 fld	 DWORD PTR __Y$[esp-4]
  00008	d9 f3		 fpatan
  0000a	c3		 ret	 0
_atan2f	ENDP
_TEXT	ENDS
PUBLIC	_cosf
; Function compile flags: /Ogty
;	COMDAT _cosf
_TEXT	SEGMENT
__X$ = 8						; size = 4
_cosf	PROC NEAR					; COMDAT

; 444  :         {return ((float)cos((double)_X)); }

  00000	d9 44 24 04	 fld	 DWORD PTR __X$[esp-4]
  00004	d9 ff		 fcos
  00006	c3		 ret	 0
_cosf	ENDP
_TEXT	ENDS
PUBLIC	_fabsf
; Function compile flags: /Ogty
;	COMDAT _fabsf
_TEXT	SEGMENT
__X$ = 8						; size = 4
_fabsf	PROC NEAR					; COMDAT

; 450  :         {return ((float)fabs((double)_X)); }

  00000	d9 44 24 04	 fld	 DWORD PTR __X$[esp-4]
  00004	d9 e1		 fabs
  00006	c3		 ret	 0
_fabsf	ENDP
_TEXT	ENDS
PUBLIC	_sinf
; Function compile flags: /Ogty
;	COMDAT _sinf
_TEXT	SEGMENT
__X$ = 8						; size = 4
_sinf	PROC NEAR					; COMDAT

; 466  :         {return ((float)sin((double)_X)); }

  00000	d9 44 24 04	 fld	 DWORD PTR __X$[esp-4]
  00004	d9 fe		 fsin
  00006	c3		 ret	 0
_sinf	ENDP
_TEXT	ENDS
PUBLIC	_sqrtf
; Function compile flags: /Ogty
;	COMDAT _sqrtf
_TEXT	SEGMENT
__X$ = 8						; size = 4
_sqrtf	PROC NEAR					; COMDAT

; 470  :         {return ((float)sqrt((double)_X)); }

  00000	d9 44 24 04	 fld	 DWORD PTR __X$[esp-4]
  00004	d9 fa		 fsqrt
  00006	c3		 ret	 0
_sqrtf	ENDP
_TEXT	ENDS
PUBLIC	?atan2@@YAMMM@Z					; atan2
; Function compile flags: /Ogty
;	COMDAT ?atan2@@YAMMM@Z
_TEXT	SEGMENT
__Y$ = 8						; size = 4
__X$ = 12						; size = 4
?atan2@@YAMMM@Z PROC NEAR				; atan2, COMDAT

; 545  :         {return (atan2f(_Y, _X)); }

  00000	d9 44 24 04	 fld	 DWORD PTR __Y$[esp-4]
  00004	d9 44 24 08	 fld	 DWORD PTR __X$[esp-4]
  00008	d9 f3		 fpatan
  0000a	c3		 ret	 0
?atan2@@YAMMM@Z ENDP					; atan2
_TEXT	ENDS
PUBLIC	?fabs@@YAMM@Z					; fabs
; Function compile flags: /Ogty
;	COMDAT ?fabs@@YAMM@Z
_TEXT	SEGMENT
__X$ = 8						; size = 4
?fabs@@YAMM@Z PROC NEAR					; fabs, COMDAT

; 555  :         {return (fabsf(_X)); }

  00000	d9 44 24 04	 fld	 DWORD PTR __X$[esp-4]
  00004	d9 e1		 fabs
  00006	c3		 ret	 0
?fabs@@YAMM@Z ENDP					; fabs
_TEXT	ENDS
PUBLIC	??0D3DXVECTOR3@@QAE@XZ				; D3DXVECTOR3::D3DXVECTOR3
; Function compile flags: /Ogty
; File c:\documents and settings\test\mes documents\source\virtuos_v17\build\program\dx_sdk\d3dx9math.h
;	COMDAT ??0D3DXVECTOR3@@QAE@XZ
_TEXT	SEGMENT
??0D3DXVECTOR3@@QAE@XZ PROC NEAR			; D3DXVECTOR3::D3DXVECTOR3, COMDAT
; _this$ = ecx

; 165  :     D3DXVECTOR3() {};

  00000	8b c1		 mov	 eax, ecx
  00002	c3		 ret	 0
??0D3DXVECTOR3@@QAE@XZ ENDP				; D3DXVECTOR3::D3DXVECTOR3
_TEXT	ENDS
PUBLIC	??0D3DXVECTOR3@@QAE@MMM@Z			; D3DXVECTOR3::D3DXVECTOR3
; Function compile flags: /Ogty
; File c:\documents and settings\test\mes documents\source\virtuos_v17\build\program\dx_sdk\d3dx9math.inl
;	COMDAT ??0D3DXVECTOR3@@QAE@MMM@Z
_TEXT	SEGMENT
_fx$ = 8						; size = 4
_fy$ = 12						; size = 4
_fz$ = 16						; size = 4
??0D3DXVECTOR3@@QAE@MMM@Z PROC NEAR			; D3DXVECTOR3::D3DXVECTOR3, COMDAT
; _this$ = ecx

; 300  :     x = fx;
; 301  :     y = fy;

  00000	8b 54 24 08	 mov	 edx, DWORD PTR _fy$[esp-4]
  00004	8b c1		 mov	 eax, ecx
  00006	8b 4c 24 04	 mov	 ecx, DWORD PTR _fx$[esp-4]
  0000a	89 08		 mov	 DWORD PTR [eax], ecx

; 302  :     z = fz;

  0000c	8b 4c 24 0c	 mov	 ecx, DWORD PTR _fz$[esp-4]
  00010	89 50 04	 mov	 DWORD PTR [eax+4], edx
  00013	89 48 08	 mov	 DWORD PTR [eax+8], ecx

; 303  : }

  00016	c2 0c 00	 ret	 12			; 0000000cH
??0D3DXVECTOR3@@QAE@MMM@Z ENDP				; D3DXVECTOR3::D3DXVECTOR3
_TEXT	ENDS
PUBLIC	??YD3DXVECTOR3@@QAEAAU0@ABU0@@Z			; D3DXVECTOR3::operator+=
; Function compile flags: /Ogty
;	COMDAT ??YD3DXVECTOR3@@QAEAAU0@ABU0@@Z
_TEXT	SEGMENT
_v$ = 8							; size = 4
??YD3DXVECTOR3@@QAEAAU0@ABU0@@Z PROC NEAR		; D3DXVECTOR3::operator+=, COMDAT
; _this$ = ecx

; 323  : {

  00000	8b c1		 mov	 eax, ecx

; 324  :     x += v.x;

  00002	8b 4c 24 04	 mov	 ecx, DWORD PTR _v$[esp-4]
  00006	d9 01		 fld	 DWORD PTR [ecx]
  00008	d8 00		 fadd	 DWORD PTR [eax]
  0000a	d9 18		 fstp	 DWORD PTR [eax]

; 325  :     y += v.y;

  0000c	d9 41 04	 fld	 DWORD PTR [ecx+4]
  0000f	d8 40 04	 fadd	 DWORD PTR [eax+4]
  00012	d9 58 04	 fstp	 DWORD PTR [eax+4]

; 326  :     z += v.z;

  00015	d9 41 08	 fld	 DWORD PTR [ecx+8]
  00018	d8 40 08	 fadd	 DWORD PTR [eax+8]
  0001b	d9 58 08	 fstp	 DWORD PTR [eax+8]

; 327  :     return *this;
; 328  : }

  0001e	c2 04 00	 ret	 4
??YD3DXVECTOR3@@QAEAAU0@ABU0@@Z ENDP			; D3DXVECTOR3::operator+=
_TEXT	ENDS
PUBLIC	??HD3DXVECTOR3@@QBE?AU0@ABU0@@Z			; D3DXVECTOR3::operator+
; Function compile flags: /Ogty
;	COMDAT ??HD3DXVECTOR3@@QBE?AU0@ABU0@@Z
_TEXT	SEGMENT
___$ReturnUdt$ = 8					; size = 4
_v$ = 12						; size = 4
??HD3DXVECTOR3@@QBE?AU0@ABU0@@Z PROC NEAR		; D3DXVECTOR3::operator+, COMDAT
; _this$ = ecx

; 377  :     return D3DXVECTOR3(x + v.x, y + v.y, z + v.z);

  00000	8b 44 24 08	 mov	 eax, DWORD PTR _v$[esp-4]
  00004	d9 40 08	 fld	 DWORD PTR [eax+8]
  00007	d8 41 08	 fadd	 DWORD PTR [ecx+8]
  0000a	d9 40 04	 fld	 DWORD PTR [eax+4]
  0000d	d8 41 04	 fadd	 DWORD PTR [ecx+4]
  00010	d9 00		 fld	 DWORD PTR [eax]
  00012	8b 44 24 04	 mov	 eax, DWORD PTR ___$ReturnUdt$[esp-4]
  00016	d8 01		 fadd	 DWORD PTR [ecx]
  00018	d9 18		 fstp	 DWORD PTR [eax]
  0001a	d9 58 04	 fstp	 DWORD PTR [eax+4]
  0001d	d9 58 08	 fstp	 DWORD PTR [eax+8]

; 378  : }

  00020	c2 08 00	 ret	 8
??HD3DXVECTOR3@@QBE?AU0@ABU0@@Z ENDP			; D3DXVECTOR3::operator+
_TEXT	ENDS
PUBLIC	??GD3DXVECTOR3@@QBE?AU0@ABU0@@Z			; D3DXVECTOR3::operator-
; Function compile flags: /Ogty
;	COMDAT ??GD3DXVECTOR3@@QBE?AU0@ABU0@@Z
_TEXT	SEGMENT
___$ReturnUdt$ = 8					; size = 4
_v$ = 12						; size = 4
??GD3DXVECTOR3@@QBE?AU0@ABU0@@Z PROC NEAR		; D3DXVECTOR3::operator-, COMDAT
; _this$ = ecx

; 383  :     return D3DXVECTOR3(x - v.x, y - v.y, z - v.z);

  00000	d9 41 08	 fld	 DWORD PTR [ecx+8]
  00003	8b 44 24 08	 mov	 eax, DWORD PTR _v$[esp-4]
  00007	d8 60 08	 fsub	 DWORD PTR [eax+8]
  0000a	d9 41 04	 fld	 DWORD PTR [ecx+4]
  0000d	d8 60 04	 fsub	 DWORD PTR [eax+4]
  00010	d9 01		 fld	 DWORD PTR [ecx]
  00012	d8 20		 fsub	 DWORD PTR [eax]
  00014	8b 44 24 04	 mov	 eax, DWORD PTR ___$ReturnUdt$[esp-4]
  00018	d9 18		 fstp	 DWORD PTR [eax]
  0001a	d9 58 04	 fstp	 DWORD PTR [eax+4]
  0001d	d9 58 08	 fstp	 DWORD PTR [eax+8]

; 384  : }

  00020	c2 08 00	 ret	 8
??GD3DXVECTOR3@@QBE?AU0@ABU0@@Z ENDP			; D3DXVECTOR3::operator-
_TEXT	ENDS
PUBLIC	??8D3DXVECTOR3@@QBEHABU0@@Z			; D3DXVECTOR3::operator==
; Function compile flags: /Ogty
;	COMDAT ??8D3DXVECTOR3@@QBEHABU0@@Z
_TEXT	SEGMENT
_v$ = 8							; size = 4
??8D3DXVECTOR3@@QBEHABU0@@Z PROC NEAR			; D3DXVECTOR3::operator==, COMDAT
; _this$ = ecx

; 410  :     return x == v.x && y == v.y && z == v.z;

  00000	8b 54 24 04	 mov	 edx, DWORD PTR _v$[esp-4]
  00004	d9 02		 fld	 DWORD PTR [edx]
  00006	d9 01		 fld	 DWORD PTR [ecx]
  00008	da e9		 fucompp
  0000a	df e0		 fnstsw	 ax
  0000c	f6 c4 44	 test	 ah, 68			; 00000044H
  0000f	7a 26		 jp	 SHORT $L271406
  00011	d9 42 04	 fld	 DWORD PTR [edx+4]
  00014	d9 41 04	 fld	 DWORD PTR [ecx+4]
  00017	da e9		 fucompp
  00019	df e0		 fnstsw	 ax
  0001b	f6 c4 44	 test	 ah, 68			; 00000044H
  0001e	7a 17		 jp	 SHORT $L271406
  00020	d9 42 08	 fld	 DWORD PTR [edx+8]
  00023	d9 41 08	 fld	 DWORD PTR [ecx+8]
  00026	da e9		 fucompp
  00028	df e0		 fnstsw	 ax
  0002a	f6 c4 44	 test	 ah, 68			; 00000044H
  0002d	7a 08		 jp	 SHORT $L271406
  0002f	b8 01 00 00 00	 mov	 eax, 1

; 411  : }

  00034	c2 04 00	 ret	 4
$L271406:

; 410  :     return x == v.x && y == v.y && z == v.z;

  00037	33 c0		 xor	 eax, eax

; 411  : }

  00039	c2 04 00	 ret	 4
??8D3DXVECTOR3@@QBEHABU0@@Z ENDP			; D3DXVECTOR3::operator==
_TEXT	ENDS
PUBLIC	?D3DXVec3Length@@YAMPBUD3DXVECTOR3@@@Z		; D3DXVec3Length
; Function compile flags: /Ogty
;	COMDAT ?D3DXVec3Length@@YAMPBUD3DXVECTOR3@@@Z
_TEXT	SEGMENT
_pV$ = 8						; size = 4
?D3DXVec3Length@@YAMPBUD3DXVECTOR3@@@Z PROC NEAR	; D3DXVec3Length, COMDAT

; 1678 : #ifdef D3DX_DEBUG
; 1679 :     if(!pV)
; 1680 :         return 0.0f;
; 1681 : #endif
; 1682 : 
; 1683 : #ifdef __cplusplus
; 1684 :     return sqrtf(pV->x * pV->x + pV->y * pV->y + pV->z * pV->z);

  00000	8b 44 24 04	 mov	 eax, DWORD PTR _pV$[esp-4]
  00004	d9 40 08	 fld	 DWORD PTR [eax+8]
  00007	d9 40 04	 fld	 DWORD PTR [eax+4]
  0000a	d9 00		 fld	 DWORD PTR [eax]
  0000c	d9 c0		 fld	 ST(0)
  0000e	d8 c9		 fmul	 ST(0), ST(1)
  00010	d9 c2		 fld	 ST(2)
  00012	d8 cb		 fmul	 ST(0), ST(3)
  00014	de c1		 faddp	 ST(1), ST(0)
  00016	d9 c3		 fld	 ST(3)
  00018	d8 cc		 fmul	 ST(0), ST(4)
  0001a	de c1		 faddp	 ST(1), ST(0)
  0001c	d9 fa		 fsqrt
  0001e	dd db		 fstp	 ST(3)
  00020	dd d8		 fstp	 ST(0)
  00022	dd d8		 fstp	 ST(0)

; 1685 : #else
; 1686 :     return (FLOAT) sqrt(pV->x * pV->x + pV->y * pV->y + pV->z * pV->z);
; 1687 : #endif
; 1688 : }

  00024	c3		 ret	 0
?D3DXVec3Length@@YAMPBUD3DXVECTOR3@@@Z ENDP		; D3DXVec3Length
_TEXT	ENDS
PUBLIC	?D3DXVec3LengthSq@@YAMPBUD3DXVECTOR3@@@Z	; D3DXVec3LengthSq
; Function compile flags: /Ogty
;	COMDAT ?D3DXVec3LengthSq@@YAMPBUD3DXVECTOR3@@@Z
_TEXT	SEGMENT
_pV$ = 8						; size = 4
?D3DXVec3LengthSq@@YAMPBUD3DXVECTOR3@@@Z PROC NEAR	; D3DXVec3LengthSq, COMDAT

; 1693 : #ifdef D3DX_DEBUG
; 1694 :     if(!pV)
; 1695 :         return 0.0f;
; 1696 : #endif
; 1697 : 
; 1698 :     return pV->x * pV->x + pV->y * pV->y + pV->z * pV->z;

  00000	8b 44 24 04	 mov	 eax, DWORD PTR _pV$[esp-4]
  00004	d9 40 08	 fld	 DWORD PTR [eax+8]
  00007	d9 40 04	 fld	 DWORD PTR [eax+4]
  0000a	d9 00		 fld	 DWORD PTR [eax]
  0000c	d9 c0		 fld	 ST(0)
  0000e	d8 c9		 fmul	 ST(0), ST(1)
  00010	d9 c2		 fld	 ST(2)
  00012	d8 cb		 fmul	 ST(0), ST(3)
  00014	de c1		 faddp	 ST(1), ST(0)
  00016	d9 c3		 fld	 ST(3)
  00018	d8 cc		 fmul	 ST(0), ST(4)
  0001a	de c1		 faddp	 ST(1), ST(0)
  0001c	dd db		 fstp	 ST(3)
  0001e	dd d8		 fstp	 ST(0)
  00020	dd d8		 fstp	 ST(0)

; 1699 : }

  00022	c3		 ret	 0
?D3DXVec3LengthSq@@YAMPBUD3DXVECTOR3@@@Z ENDP		; D3DXVec3LengthSq
_TEXT	ENDS
PUBLIC	??1CTimer@@UAE@XZ				; CTimer::~CTimer
PUBLIC	??_7CTimer@@6B@					; CTimer::`vftable'
PUBLIC	??_GCTimer@@UAEPAXI@Z				; CTimer::`scalar deleting destructor'
EXTRN	?Reset@CTimer@@UAEXXZ:NEAR			; CTimer::Reset
EXTRN	?Over@CTimer@@UAEHXZ:NEAR			; CTimer::Over
EXTRN	??_ECTimer@@UAEPAXI@Z:NEAR			; CTimer::`vector deleting destructor'
;	COMDAT ??_7CTimer@@6B@
; File c:\documents and settings\test\mes documents\source\virtuos_v17\build\program\_common\timer.h
CONST	SEGMENT
??_7CTimer@@6B@ DD FLAT:??_ECTimer@@UAEPAXI@Z		; CTimer::`vftable'
	DD	FLAT:?Reset@CTimer@@UAEXXZ
	DD	FLAT:?Over@CTimer@@UAEHXZ
; Function compile flags: /Ogty
CONST	ENDS
;	COMDAT ??1CTimer@@UAE@XZ
_TEXT	SEGMENT
??1CTimer@@UAE@XZ PROC NEAR				; CTimer::~CTimer, COMDAT
; _this$ = ecx

; 19   : 	virtual ~CTimer()	{}

  00000	c7 01 00 00 00
	00		 mov	 DWORD PTR [ecx], OFFSET FLAT:??_7CTimer@@6B@
  00006	c3		 ret	 0
??1CTimer@@UAE@XZ ENDP					; CTimer::~CTimer
_TEXT	ENDS
EXTRN	??3@YAXPAX@Z:NEAR				; operator delete
; Function compile flags: /Ogty
;	COMDAT ??_GCTimer@@UAEPAXI@Z
_TEXT	SEGMENT
___flags$ = 8						; size = 4
??_GCTimer@@UAEPAXI@Z PROC NEAR				; CTimer::`scalar deleting destructor', COMDAT
; _this$ = ecx
  00000	f6 44 24 04 01	 test	 BYTE PTR ___flags$[esp-4], 1
  00005	56		 push	 esi
  00006	8b f1		 mov	 esi, ecx
  00008	c7 06 00 00 00
	00		 mov	 DWORD PTR [esi], OFFSET FLAT:??_7CTimer@@6B@
  0000e	74 09		 je	 SHORT $L271427
  00010	56		 push	 esi
  00011	e8 00 00 00 00	 call	 ??3@YAXPAX@Z		; operator delete
  00016	83 c4 04	 add	 esp, 4
$L271427:
  00019	8b c6		 mov	 eax, esi
  0001b	5e		 pop	 esi
  0001c	c2 04 00	 ret	 4
??_GCTimer@@UAEPAXI@Z ENDP				; CTimer::`scalar deleting destructor'
_TEXT	ENDS
PUBLIC	?xRand@@YAKXZ					; xRand
EXTRN	?g_next@@3KA:DWORD				; g_next
; Function compile flags: /Ogty
; File c:\documents and settings\test\mes documents\source\virtuos_v17\build\program\_common\xutil.h
;	COMDAT ?xRand@@YAKXZ
_TEXT	SEGMENT
?xRand@@YAKXZ PROC NEAR					; xRand, COMDAT

; 16   : 	g_next = g_next * 1103515245 + 12345;// + nRandomSeed[ i++ ];

  00000	a1 00 00 00 00	 mov	 eax, DWORD PTR ?g_next@@3KA ; g_next
  00005	69 c0 6d 4e c6
	41		 imul	 eax, 1103515245		; 41c64e6dH
  0000b	05 39 30 00 00	 add	 eax, 12345		; 00003039H
  00010	a3 00 00 00 00	 mov	 DWORD PTR ?g_next@@3KA, eax ; g_next

; 17   : 	return g_next;	//   .
; 18   : }

  00015	c3		 ret	 0
?xRand@@YAKXZ ENDP					; xRand
_TEXT	ENDS
PUBLIC	?xRandom@@YAKK@Z				; xRandom
; Function compile flags: /Ogty
;	COMDAT ?xRandom@@YAKK@Z
_TEXT	SEGMENT
_num$ = 8						; size = 4
?xRandom@@YAKK@Z PROC NEAR				; xRandom, COMDAT

; 22   : 	return  xRand() % num;

  00000	a1 00 00 00 00	 mov	 eax, DWORD PTR ?g_next@@3KA ; g_next
  00005	69 c0 6d 4e c6
	41		 imul	 eax, 1103515245		; 41c64e6dH
  0000b	05 39 30 00 00	 add	 eax, 12345		; 00003039H
  00010	a3 00 00 00 00	 mov	 DWORD PTR ?g_next@@3KA, eax ; g_next
  00015	33 d2		 xor	 edx, edx
  00017	f7 74 24 04	 div	 DWORD PTR _num$[esp-4]
  0001b	8b c2		 mov	 eax, edx

; 23   : }

  0001d	c3		 ret	 0
?xRandom@@YAKK@Z ENDP					; xRandom
_TEXT	ENDS
PUBLIC	?IsDelete@CObj@@QAEHXZ				; CObj::IsDelete
; Function compile flags: /Ogty
; File c:\documents and settings\test\mes documents\source\virtuos_v17\build\program\_common\obj.h
;	COMDAT ?IsDelete@CObj@@QAEHXZ
_TEXT	SEGMENT
?IsDelete@CObj@@QAEHXZ PROC NEAR			; CObj::IsDelete, COMDAT
; _this$ = ecx

; 180  : 	BOOL			IsDelete()	{ return (m_dwFlags & OBJ_FLAG_DELETE);  }

  00000	8b 41 04	 mov	 eax, DWORD PTR [ecx+4]
  00003	83 e0 01	 and	 eax, 1
  00006	c3		 ret	 0
?IsDelete@CObj@@QAEHXZ ENDP				; CObj::IsDelete
_TEXT	ENDS
PUBLIC	?GetAngleX@CObj@@QAEMXZ				; CObj::GetAngleX
; Function compile flags: /Ogty
;	COMDAT ?GetAngleX@CObj@@QAEMXZ
_TEXT	SEGMENT
?GetAngleX@CObj@@QAEMXZ PROC NEAR			; CObj::GetAngleX, COMDAT
; _this$ = ecx

; 186  : 	FLOAT			GetAngleX() { return m_fAngX; }

  00000	d9 41 1c	 fld	 DWORD PTR [ecx+28]
  00003	c3		 ret	 0
?GetAngleX@CObj@@QAEMXZ ENDP				; CObj::GetAngleX
_TEXT	ENDS
PUBLIC	?GetNextNode@CObj@@QAEPAV1@XZ			; CObj::GetNextNode
; Function compile flags: /Ogty
;	COMDAT ?GetNextNode@CObj@@QAEPAV1@XZ
_TEXT	SEGMENT
?GetNextNode@CObj@@QAEPAV1@XZ PROC NEAR			; CObj::GetNextNode, COMDAT
; _this$ = ecx

; 195  : 	CObj*			GetNextNode() { return m_pNext; }

  00000	8b 81 80 01 00
	00		 mov	 eax, DWORD PTR [ecx+384]
  00006	c3		 ret	 0
?GetNextNode@CObj@@QAEPAV1@XZ ENDP			; CObj::GetNextNode
_TEXT	ENDS
PUBLIC	?GetType@CObj@@QAEKXZ				; CObj::GetType
; Function compile flags: /Ogty
;	COMDAT ?GetType@CObj@@QAEKXZ
_TEXT	SEGMENT
?GetType@CObj@@QAEKXZ PROC NEAR				; CObj::GetType, COMDAT
; _this$ = ecx

; 206  : 	DWORD			GetType() { return m_dwType; }

  00000	8b 81 70 01 00
	00		 mov	 eax, DWORD PTR [ecx+368]
  00006	c3		 ret	 0
?GetType@CObj@@QAEKXZ ENDP				; CObj::GetType
_TEXT	ENDS
PUBLIC	?GetIndex@CObj@@QAEKXZ				; CObj::GetIndex
; Function compile flags: /Ogty
;	COMDAT ?GetIndex@CObj@@QAEKXZ
_TEXT	SEGMENT
?GetIndex@CObj@@QAEKXZ PROC NEAR			; CObj::GetIndex, COMDAT
; _this$ = ecx

; 207  : 	DWORD			GetIndex() { return m_dwIndex; }

  00000	8b 81 74 01 00
	00		 mov	 eax, DWORD PTR [ecx+372]
  00006	c3		 ret	 0
?GetIndex@CObj@@QAEKXZ ENDP				; CObj::GetIndex
_TEXT	ENDS
PUBLIC	?GetPos@CObj@@QAE?AUD3DXVECTOR3@@XZ		; CObj::GetPos
; Function compile flags: /Ogty
;	COMDAT ?GetPos@CObj@@QAE?AUD3DXVECTOR3@@XZ
_TEXT	SEGMENT
___$ReturnUdt$ = 8					; size = 4
?GetPos@CObj@@QAE?AUD3DXVECTOR3@@XZ PROC NEAR		; CObj::GetPos, COMDAT
; _this$ = ecx

; 215  : 	D3DXVECTOR3		GetPos()	{ return m_vPos; }

  00000	8b 44 24 04	 mov	 eax, DWORD PTR ___$ReturnUdt$[esp-4]
  00004	81 c1 60 01 00
	00		 add	 ecx, 352		; 00000160H
  0000a	56		 push	 esi
  0000b	8b 31		 mov	 esi, DWORD PTR [ecx]
  0000d	8b d0		 mov	 edx, eax
  0000f	89 32		 mov	 DWORD PTR [edx], esi
  00011	8b 71 04	 mov	 esi, DWORD PTR [ecx+4]
  00014	89 72 04	 mov	 DWORD PTR [edx+4], esi
  00017	8b 49 08	 mov	 ecx, DWORD PTR [ecx+8]
  0001a	89 4a 08	 mov	 DWORD PTR [edx+8], ecx
  0001d	5e		 pop	 esi
  0001e	c2 04 00	 ret	 4
?GetPos@CObj@@QAE?AUD3DXVECTOR3@@XZ ENDP		; CObj::GetPos
_TEXT	ENDS
PUBLIC	?GetAngle@CObj@@QAEMXZ				; CObj::GetAngle
; Function compile flags: /Ogty
;	COMDAT ?GetAngle@CObj@@QAEMXZ
_TEXT	SEGMENT
?GetAngle@CObj@@QAEMXZ PROC NEAR			; CObj::GetAngle, COMDAT
; _this$ = ecx

; 217  : 	FLOAT			GetAngle()	{ return m_fAngle; }

  00000	d9 41 18	 fld	 DWORD PTR [ecx+24]
  00003	c3		 ret	 0
?GetAngle@CObj@@QAEMXZ ENDP				; CObj::GetAngle
_TEXT	ENDS
PUBLIC	?GetWorld@CObj@@QAEPAVCWorld@@XZ		; CObj::GetWorld
; Function compile flags: /Ogty
;	COMDAT ?GetWorld@CObj@@QAEPAVCWorld@@XZ
_TEXT	SEGMENT
?GetWorld@CObj@@QAEPAVCWorld@@XZ PROC NEAR		; CObj::GetWorld, COMDAT
; _this$ = ecx

; 221  : 	CWorld*			GetWorld()	{ return m_pWorld; }

  00000	8b 81 6c 01 00
	00		 mov	 eax, DWORD PTR [ecx+364]
  00006	c3		 ret	 0
?GetWorld@CObj@@QAEPAVCWorld@@XZ ENDP			; CObj::GetWorld
_TEXT	ENDS
PUBLIC	?GetLayer@CObj@@QAEHXZ				; CObj::GetLayer
; Function compile flags: /Ogty
;	COMDAT ?GetLayer@CObj@@QAEHXZ
_TEXT	SEGMENT
?GetLayer@CObj@@QAEHXZ PROC NEAR			; CObj::GetLayer, COMDAT
; _this$ = ecx

; 247  : 	int		GetLayer()	{	return m_nLayer;	}

  00000	8b 81 b8 01 00
	00		 mov	 eax, DWORD PTR [ecx+440]
  00006	c3		 ret	 0
?GetLayer@CObj@@QAEHXZ ENDP				; CObj::GetLayer
_TEXT	ENDS
PUBLIC	__real@3c8efa35
PUBLIC	?VelocityToVec@@YA?AUD3DXVECTOR3@@MM@Z		; VelocityToVec
;	COMDAT __real@3c8efa35
; File c:\documents and settings\test\mes documents\source\virtuos_v17\build\program\dx_sdk\d3dx9math.inl
CONST	SEGMENT
__real@3c8efa35 DD 03c8efa35r			; 0.0174533
; Function compile flags: /Ogty
; File c:\documents and settings\test\mes documents\source\virtuos_v17\build\program\_common\obj.h
CONST	ENDS
;	COMDAT ?VelocityToVec@@YA?AUD3DXVECTOR3@@MM@Z
_TEXT	SEGMENT
___$ReturnUdt$ = 8					; size = 4
_fAngle$ = 12						; size = 4
_fVelocity$ = 16					; size = 4
?VelocityToVec@@YA?AUD3DXVECTOR3@@MM@Z PROC NEAR	; VelocityToVec, COMDAT

; 280  : 	FLOAT fTheta = D3DXToRadian( fAngle );

  00000	d9 44 24 08	 fld	 DWORD PTR _fAngle$[esp-4]

; 281  : 	FLOAT fx = sinf( fTheta ) * fVelocity;
; 282  : 	FLOAT fz = -cosf( fTheta ) * fVelocity;
; 283  : 	return D3DXVECTOR3( fx, 0.0f, fz );

  00004	8b 44 24 04	 mov	 eax, DWORD PTR ___$ReturnUdt$[esp-4]
  00008	d8 0d 00 00 00
	00		 fmul	 DWORD PTR __real@3c8efa35
  0000e	c7 40 04 00 00
	00 00		 mov	 DWORD PTR [eax+4], 0
  00015	d9 c0		 fld	 ST(0)
  00017	d9 fe		 fsin
  00019	d8 4c 24 0c	 fmul	 DWORD PTR _fVelocity$[esp-4]
  0001d	d9 18		 fstp	 DWORD PTR [eax]
  0001f	d9 ff		 fcos
  00021	d8 4c 24 0c	 fmul	 DWORD PTR _fVelocity$[esp-4]
  00025	d9 e0		 fchs
  00027	d9 58 08	 fstp	 DWORD PTR [eax+8]

; 284  : }

  0002a	c3		 ret	 0
?VelocityToVec@@YA?AUD3DXVECTOR3@@MM@Z ENDP		; VelocityToVec
_TEXT	ENDS
PUBLIC	__real@42652ee0
PUBLIC	__real@42b40000
PUBLIC	__real@43340000
PUBLIC	__real@c2b40000
PUBLIC	__real@c3340000
PUBLIC	?GetDegreeX@@YAMABUD3DXVECTOR3@@0@Z		; GetDegreeX
;	COMDAT __real@42652ee0
; File c:\program files\microsoft visual studio .net 2003\vc7\include\math.h
CONST	SEGMENT
__real@42652ee0 DD 042652ee0r			; 57.2958
CONST	ENDS
;	COMDAT __real@42b40000
CONST	SEGMENT
__real@42b40000 DD 042b40000r			; 90
CONST	ENDS
;	COMDAT __real@43340000
CONST	SEGMENT
__real@43340000 DD 043340000r			; 180
CONST	ENDS
;	COMDAT __real@c2b40000
CONST	SEGMENT
__real@c2b40000 DD 0c2b40000r			; -90
CONST	ENDS
;	COMDAT __real@c3340000
CONST	SEGMENT
__real@c3340000 DD 0c3340000r			; -180
; Function compile flags: /Ogty
; File c:\documents and settings\test\mes documents\source\virtuos_v17\build\program\_common\obj.h
CONST	ENDS
;	COMDAT ?GetDegreeX@@YAMABUD3DXVECTOR3@@0@Z
_TEXT	SEGMENT
_vDestPos$ = 8						; size = 4
_vSrcPos$ = 12						; size = 4
?GetDegreeX@@YAMABUD3DXVECTOR3@@0@Z PROC NEAR		; GetDegreeX, COMDAT

; 308  : 	D3DXVECTOR3 vXZ = vDestPos - vSrcPos;

  00000	8b 44 24 04	 mov	 eax, DWORD PTR _vDestPos$[esp-4]
  00004	8b 4c 24 08	 mov	 ecx, DWORD PTR _vSrcPos$[esp-4]
  00008	d9 00		 fld	 DWORD PTR [eax]
  0000a	d8 21		 fsub	 DWORD PTR [ecx]
  0000c	d9 40 04	 fld	 DWORD PTR [eax+4]
  0000f	d8 61 04	 fsub	 DWORD PTR [ecx+4]
  00012	d9 40 08	 fld	 DWORD PTR [eax+8]
  00015	d8 61 08	 fsub	 DWORD PTR [ecx+8]

; 309  : 	float	yDist = vXZ.y;
; 310  : 	vXZ.y = 0.0f;									// xz  .
; 311  : 	float	fLenXZ  = D3DXVec3Length( &vXZ );		// XZ .

  00018	d9 c2		 fld	 ST(2)
  0001a	de cb		 fmulp	 ST(3), ST(0)
  0001c	d9 c0		 fld	 ST(0)
  0001e	d8 c9		 fmul	 ST(0), ST(1)

; 322  : 	return a;

  00020	de c3		 faddp	 ST(3), ST(0)
  00022	d9 ca		 fxch	 ST(2)
  00024	d9 fa		 fsqrt
  00026	d9 ca		 fxch	 ST(2)
  00028	d9 ca		 fxch	 ST(2)
  0002a	d9 e0		 fchs
  0002c	d9 f3		 fpatan
  0002e	dd d9		 fstp	 ST(1)
  00030	d8 0d 00 00 00
	00		 fmul	 DWORD PTR __real@42652ee0
  00036	d9 e0		 fchs
  00038	d8 15 00 00 00
	00		 fcom	 DWORD PTR __real@42b40000
  0003e	df e0		 fnstsw	 ax
  00040	f6 c4 41	 test	 ah, 65			; 00000041H
  00043	75 07		 jne	 SHORT $L176578

; 312  : 	float	zDist = fLenXZ;
; 313  : 
; 314  : 	float r = (float)atan2( yDist, -zDist );
; 315  : 	float a = D3DXToDegree( r );
; 316  : 	a = -a;
; 317  : 
; 318  : 	if( a > 90.0f )
; 319  : 		a	= 180.0f - a;

  00045	d8 2d 00 00 00
	00		 fsubr	 DWORD PTR __real@43340000

; 323  : }

  0004b	c3		 ret	 0
$L176578:

; 320  : 	else if( a < -90.0f )

  0004c	d8 15 00 00 00
	00		 fcom	 DWORD PTR __real@c2b40000
  00052	df e0		 fnstsw	 ax
  00054	f6 c4 05	 test	 ah, 5
  00057	7a 06		 jp	 SHORT $L176580

; 321  : 		a	= -180.0f - a;

  00059	d8 2d 00 00 00
	00		 fsubr	 DWORD PTR __real@c3340000
$L176580:

; 323  : }

  0005f	c3		 ret	 0
?GetDegreeX@@YAMABUD3DXVECTOR3@@0@Z ENDP		; GetDegreeX
_TEXT	ENDS
PUBLIC	?IsValidObj@@YAHPAVCObj@@@Z			; IsValidObj
; Function compile flags: /Ogty
;	COMDAT ?IsValidObj@@YAHPAVCObj@@@Z
_TEXT	SEGMENT
_pObj$ = 8						; size = 4
?IsValidObj@@YAHPAVCObj@@@Z PROC NEAR			; IsValidObj, COMDAT

; 327  : 	return pObj && ( pObj->IsDelete() == FALSE ); 

  00000	8b 44 24 04	 mov	 eax, DWORD PTR _pObj$[esp-4]
  00004	85 c0		 test	 eax, eax
  00006	74 0c		 je	 SHORT $L271523
  00008	f6 40 04 01	 test	 BYTE PTR [eax+4], 1
  0000c	75 06		 jne	 SHORT $L271523
  0000e	b8 01 00 00 00	 mov	 eax, 1

; 328  : }

  00013	c3		 ret	 0
$L271523:

; 327  : 	return pObj && ( pObj->IsDelete() == FALSE ); 

  00014	33 c0		 xor	 eax, eax

; 328  : }

  00016	c3		 ret	 0
?IsValidObj@@YAHPAVCObj@@@Z ENDP			; IsValidObj
_TEXT	ENDS
PUBLIC	?IsInvalidObj@@YAHPAVCObj@@@Z			; IsInvalidObj
; Function compile flags: /Ogty
;	COMDAT ?IsInvalidObj@@YAHPAVCObj@@@Z
_TEXT	SEGMENT
_pObj$ = 8						; size = 4
?IsInvalidObj@@YAHPAVCObj@@@Z PROC NEAR			; IsInvalidObj, COMDAT

; 332  : 	return !IsValidObj( pObj ); 

  00000	8b 44 24 04	 mov	 eax, DWORD PTR _pObj$[esp-4]
  00004	85 c0		 test	 eax, eax
  00006	74 15		 je	 SHORT $L271538
  00008	f6 40 04 01	 test	 BYTE PTR [eax+4], 1
  0000c	75 0f		 jne	 SHORT $L271538
  0000e	b8 01 00 00 00	 mov	 eax, 1
  00013	33 c9		 xor	 ecx, ecx
  00015	85 c0		 test	 eax, eax
  00017	0f 94 c1	 sete	 cl
  0001a	8b c1		 mov	 eax, ecx

; 333  : }

  0001c	c3		 ret	 0

; 332  : 	return !IsValidObj( pObj ); 

$L271538:
  0001d	33 c0		 xor	 eax, eax
  0001f	33 c9		 xor	 ecx, ecx
  00021	85 c0		 test	 eax, eax
  00023	0f 94 c1	 sete	 cl
  00026	8b c1		 mov	 eax, ecx

; 333  : }

  00028	c3		 ret	 0
?IsInvalidObj@@YAHPAVCObj@@@Z ENDP			; IsInvalidObj
_TEXT	ENDS
PUBLIC	?GetId@CCtrl@@QAEKXZ				; CCtrl::GetId
; Function compile flags: /Ogty
; File c:\documents and settings\test\mes documents\source\virtuos_v17\build\program\_common\ctrl.h
;	COMDAT ?GetId@CCtrl@@QAEKXZ
_TEXT	SEGMENT
?GetId@CCtrl@@QAEKXZ PROC NEAR				; CCtrl::GetId, COMDAT
; _this$ = ecx

; 58   : 	OBJID			GetId()					{ return m_objid;   }

  00000	8b 81 bc 01 00
	00		 mov	 eax, DWORD PTR [ecx+444]
  00006	c3		 ret	 0
?GetId@CCtrl@@QAEKXZ ENDP				; CCtrl::GetId
_TEXT	ENDS
PUBLIC	?LOG_RANGE@@YAXPBDHHH@Z				; LOG_RANGE
PUBLIC	??_C@_0BM@HMFGHCP@?$CFs?5min?3?$CFd?0?5max?3?$CFd?0?5index?3?$CFd?$AA@ ; `string'
EXTRN	?Error@@YAPBDPBDZZ:NEAR				; Error
;	COMDAT ??_C@_0BM@HMFGHCP@?$CFs?5min?3?$CFd?0?5max?3?$CFd?0?5index?3?$CFd?$AA@
; File c:\documents and settings\test\mes documents\source\virtuos_v17\build\program\_common\project.h
CONST	SEGMENT
??_C@_0BM@HMFGHCP@?$CFs?5min?3?$CFd?0?5max?3?$CFd?0?5index?3?$CFd?$AA@ DB '%'
	DB	's min:%d, max:%d, index:%d', 00H		; `string'
; Function compile flags: /Ogty
CONST	ENDS
;	COMDAT ?LOG_RANGE@@YAXPBDHHH@Z
_TEXT	SEGMENT
_szMsg$ = 8						; size = 4
_nMin$ = 12						; size = 4
_nMax$ = 16						; size = 4
_nIndex$ = 20						; size = 4
?LOG_RANGE@@YAXPBDHHH@Z PROC NEAR			; LOG_RANGE, COMDAT

; 559  : 	LPCTSTR szErr = Error( _T( "%s min:%d, max:%d, index:%d" ), szMsg, nMin, nMax, nIndex ); 

  00000	8b 44 24 10	 mov	 eax, DWORD PTR _nIndex$[esp-4]
  00004	8b 4c 24 0c	 mov	 ecx, DWORD PTR _nMax$[esp-4]
  00008	8b 54 24 08	 mov	 edx, DWORD PTR _nMin$[esp-4]
  0000c	50		 push	 eax
  0000d	8b 44 24 08	 mov	 eax, DWORD PTR _szMsg$[esp]
  00011	51		 push	 ecx
  00012	52		 push	 edx
  00013	50		 push	 eax
  00014	68 00 00 00 00	 push	 OFFSET FLAT:??_C@_0BM@HMFGHCP@?$CFs?5min?3?$CFd?0?5max?3?$CFd?0?5index?3?$CFd?$AA@
  00019	e8 00 00 00 00	 call	 ?Error@@YAPBDPBDZZ	; Error
  0001e	83 c4 14	 add	 esp, 20			; 00000014H

; 560  : 	ADDERRORMSG( szErr ); 
; 561  : }

  00021	c3		 ret	 0
?LOG_RANGE@@YAXPBDHHH@Z ENDP				; LOG_RANGE
_TEXT	ENDS
PUBLIC	?LOG_CALLSTACK@@YAXXZ				; LOG_CALLSTACK
; Function compile flags: /Ogty
;	COMDAT ?LOG_CALLSTACK@@YAXXZ
_TEXT	SEGMENT
?LOG_CALLSTACK@@YAXXZ PROC NEAR				; LOG_CALLSTACK, COMDAT

; 565  : #ifdef _DEBUG
; 566  : 	__asm int 3
; 567  : #endif
; 568  : 
; 569  : #if defined(__INTERNALSERVER)
; 570  : 	int *p = NULL;		//    
; 571  : 	*p = 1;
; 572  : #endif
; 573  : }

  00000	c3		 ret	 0
?LOG_CALLSTACK@@YAXXZ ENDP				; LOG_CALLSTACK
_TEXT	ENDS
PUBLIC	??_C@_0BJ@GKPOBPPI@GetMoverProp?5range_error?$AA@ ; `string'
PUBLIC	?GetMoverProp@CProject@@QAEPAUMoverProp@@H@Z	; CProject::GetMoverProp
;	COMDAT ??_C@_0BJ@GKPOBPPI@GetMoverProp?5range_error?$AA@
CONST	SEGMENT
??_C@_0BJ@GKPOBPPI@GetMoverProp?5range_error?$AA@ DB 'GetMoverProp range_'
	DB	'error', 00H					; `string'
; Function compile flags: /Ogty
CONST	ENDS
;	COMDAT ?GetMoverProp@CProject@@QAEPAUMoverProp@@H@Z
_TEXT	SEGMENT
_nIndex$ = 8						; size = 4
?GetMoverProp@CProject@@QAEPAUMoverProp@@H@Z PROC NEAR	; CProject::GetMoverProp, COMDAT
; _this$ = ecx

; 1381 : 	VERIFY_RANGE( nIndex, 0, m_nMoverPropSize, "GetMoverProp range_error", NULL );

  00000	8b 44 24 04	 mov	 eax, DWORD PTR _nIndex$[esp-4]
  00004	85 c0		 test	 eax, eax
  00006	7c 19		 jl	 SHORT $L197938
  00008	3b 81 d0 01 00
	00		 cmp	 eax, DWORD PTR [ecx+464]
  0000e	7d 11		 jge	 SHORT $L197938

; 1382 : 	return m_pPropMover + nIndex;

  00010	8b 91 d4 01 00
	00		 mov	 edx, DWORD PTR [ecx+468]
  00016	69 c0 d8 06 00
	00		 imul	 eax, 1752		; 000006d8H
  0001c	03 c2		 add	 eax, edx

; 1383 : }

  0001e	c2 04 00	 ret	 4
$L197938:

; 1381 : 	VERIFY_RANGE( nIndex, 0, m_nMoverPropSize, "GetMoverProp range_error", NULL );

  00021	50		 push	 eax
  00022	8b 81 d0 01 00
	00		 mov	 eax, DWORD PTR [ecx+464]
  00028	50		 push	 eax
  00029	6a 00		 push	 0
  0002b	68 00 00 00 00	 push	 OFFSET FLAT:??_C@_0BJ@GKPOBPPI@GetMoverProp?5range_error?$AA@
  00030	68 00 00 00 00	 push	 OFFSET FLAT:??_C@_0BM@HMFGHCP@?$CFs?5min?3?$CFd?0?5max?3?$CFd?0?5index?3?$CFd?$AA@
  00035	e8 00 00 00 00	 call	 ?Error@@YAPBDPBDZZ	; Error
  0003a	83 c4 14	 add	 esp, 20			; 00000014H
  0003d	33 c0		 xor	 eax, eax

; 1383 : }

  0003f	c2 04 00	 ret	 4
?GetMoverProp@CProject@@QAEPAUMoverProp@@H@Z ENDP	; CProject::GetMoverProp
_TEXT	ENDS
PUBLIC	?GetState@CAction@@QAEKXZ			; CAction::GetState
; Function compile flags: /Ogty
; File c:\documents and settings\test\mes documents\source\virtuos_v17\build\program\_aiinterface\action.h
;	COMDAT ?GetState@CAction@@QAEKXZ
_TEXT	SEGMENT
?GetState@CAction@@QAEKXZ PROC NEAR			; CAction::GetState, COMDAT
; _this$ = ecx

; 291  : 	DWORD			GetState() { return m_dwState; }

  00000	8b 41 04	 mov	 eax, DWORD PTR [ecx+4]
  00003	c3		 ret	 0
?GetState@CAction@@QAEKXZ ENDP				; CAction::GetState
_TEXT	ENDS
PUBLIC	?GetMoveState@CAction@@QAEKXZ			; CAction::GetMoveState
; Function compile flags: /Ogty
;	COMDAT ?GetMoveState@CAction@@QAEKXZ
_TEXT	SEGMENT
?GetMoveState@CAction@@QAEKXZ PROC NEAR			; CAction::GetMoveState, COMDAT
; _this$ = ecx

; 300  : 	DWORD			GetMoveState() { return m_dwState & OBJSTA_MOVE_ALL; }

  00000	8b 41 04	 mov	 eax, DWORD PTR [ecx+4]
  00003	25 ff 00 00 00	 and	 eax, 255		; 000000ffH
  00008	c3		 ret	 0
?GetMoveState@CAction@@QAEKXZ ENDP			; CAction::GetMoveState
_TEXT	ENDS
PUBLIC	?IsFly@CAction@@QAEHXZ				; CAction::IsFly
; Function compile flags: /Ogty
;	COMDAT ?IsFly@CAction@@QAEHXZ
_TEXT	SEGMENT
?IsFly@CAction@@QAEHXZ PROC NEAR			; CAction::IsFly, COMDAT
; _this$ = ecx

; 309  : 	BOOL			IsFly() { return (m_dwStateFlag & OBJSTAF_FLY) ? TRUE : FALSE; }

  00000	8b 41 08	 mov	 eax, DWORD PTR [ecx+8]
  00003	c1 e8 03	 shr	 eax, 3
  00006	83 e0 01	 and	 eax, 1
  00009	c3		 ret	 0
?IsFly@CAction@@QAEHXZ ENDP				; CAction::IsFly
_TEXT	ENDS
PUBLIC	?IsDie@CAction@@QAEHXZ				; CAction::IsDie
; Function compile flags: /Ogty
;	COMDAT ?IsDie@CAction@@QAEHXZ
_TEXT	SEGMENT
?IsDie@CAction@@QAEHXZ PROC NEAR			; CAction::IsDie, COMDAT
; _this$ = ecx

; 310  : 	BOOL			IsDie() { return (m_dwState & OBJSTA_DIE_ALL) ? TRUE : FALSE; }

  00000	8b 41 04	 mov	 eax, DWORD PTR [ecx+4]
  00003	c1 e8 1b	 shr	 eax, 27			; 0000001bH
  00006	83 e0 01	 and	 eax, 1
  00009	c3		 ret	 0
?IsDie@CAction@@QAEHXZ ENDP				; CAction::IsDie
_TEXT	ENDS
PUBLIC	?IsMove@CAction@@QAEHXZ				; CAction::IsMove
; Function compile flags: /Ogty
;	COMDAT ?IsMove@CAction@@QAEHXZ
_TEXT	SEGMENT
?IsMove@CAction@@QAEHXZ PROC NEAR			; CAction::IsMove, COMDAT
; _this$ = ecx

; 316  : 	BOOL			IsMove() { return ( GetMoveState() == OBJSTA_FMOVE || GetMoveState() == OBJSTA_BMOVE || GetMoveState() == OBJSTA_LEFT || GetMoveState() == OBJSTA_RIGHT || GetMoveState() == OBJSTA_LMOVE || GetMoveState() == OBJSTA_RMOVE ) ? TRUE : FALSE; }  

  00000	8b 41 04	 mov	 eax, DWORD PTR [ecx+4]
  00003	25 ff 00 00 00	 and	 eax, 255		; 000000ffH
  00008	83 f8 04	 cmp	 eax, 4
  0000b	74 1c		 je	 SHORT $L271575
  0000d	83 f8 05	 cmp	 eax, 5
  00010	74 17		 je	 SHORT $L271575
  00012	83 f8 06	 cmp	 eax, 6
  00015	74 12		 je	 SHORT $L271575
  00017	83 f8 07	 cmp	 eax, 7
  0001a	74 0d		 je	 SHORT $L271575
  0001c	83 f8 09	 cmp	 eax, 9
  0001f	74 08		 je	 SHORT $L271575
  00021	83 f8 0a	 cmp	 eax, 10			; 0000000aH
  00024	74 03		 je	 SHORT $L271575
  00026	33 c0		 xor	 eax, eax
  00028	c3		 ret	 0
$L271575:
  00029	b8 01 00 00 00	 mov	 eax, 1
  0002e	c3		 ret	 0
?IsMove@CAction@@QAEHXZ ENDP				; CAction::IsMove
_TEXT	ENDS
PUBLIC	?GetMover@CAIInterface@@IAEPAVCMover@@XZ	; CAIInterface::GetMover
; Function compile flags: /Ogty
; File c:\documents and settings\test\mes documents\source\virtuos_v17\build\program\_aiinterface\aiinterface.h
;	COMDAT ?GetMover@CAIInterface@@IAEPAVCMover@@XZ
_TEXT	SEGMENT
?GetMover@CAIInterface@@IAEPAVCMover@@XZ PROC NEAR	; CAIInterface::GetMover, COMDAT
; _this$ = ecx

; 127  : 	CMover* GetMover() { return (CMover*)m_pObj; }

  00000	8b 41 30	 mov	 eax, DWORD PTR [ecx+48]
  00003	c3		 ret	 0
?GetMover@CAIInterface@@IAEPAVCMover@@XZ ENDP		; CAIInterface::GetMover
_TEXT	ENDS
PUBLIC	?GetWorld@CAIInterface@@IAEPAVCWorld@@XZ	; CAIInterface::GetWorld
; Function compile flags: /Ogty
;	COMDAT ?GetWorld@CAIInterface@@IAEPAVCWorld@@XZ
_TEXT	SEGMENT
?GetWorld@CAIInterface@@IAEPAVCWorld@@XZ PROC NEAR	; CAIInterface::GetWorld, COMDAT
; _this$ = ecx

; 128  : 	CWorld* GetWorld() { return m_pObj->GetWorld(); }

  00000	8b 41 30	 mov	 eax, DWORD PTR [ecx+48]
  00003	8b 80 6c 01 00
	00		 mov	 eax, DWORD PTR [eax+364]
  00009	c3		 ret	 0
?GetWorld@CAIInterface@@IAEPAVCWorld@@XZ ENDP		; CAIInterface::GetWorld
_TEXT	ENDS
PUBLIC	?GetAggro@CMover@@QAEKXZ			; CMover::GetAggro
; Function compile flags: /Ogty
; File c:\documents and settings\test\mes documents\source\virtuos_v17\build\program\_common\mover.h
;	COMDAT ?GetAggro@CMover@@QAEKXZ
_TEXT	SEGMENT
?GetAggro@CMover@@QAEKXZ PROC NEAR			; CMover::GetAggro, COMDAT
; _this$ = ecx

; 802  : 	DWORD	GetAggro(){ return m_dwAggro; };

  00000	8b 81 88 11 00
	00		 mov	 eax, DWORD PTR [ecx+4488]
  00006	c3		 ret	 0
?GetAggro@CMover@@QAEKXZ ENDP				; CMover::GetAggro
_TEXT	ENDS
PUBLIC	?SetAggro@CMover@@QAEXJ@Z			; CMover::SetAggro
; Function compile flags: /Ogty
;	COMDAT ?SetAggro@CMover@@QAEXJ@Z
_TEXT	SEGMENT
_dwAggro$ = 8						; size = 4
?SetAggro@CMover@@QAEXJ@Z PROC NEAR			; CMover::SetAggro, COMDAT
; _this$ = ecx

; 803  : 	void	SetAggro( long dwAggro ){ if( dwAggro >= 0 ) m_dwAggro = (DWORD)dwAggro; else m_dwAggro = 0; };

  00000	8b 44 24 04	 mov	 eax, DWORD PTR _dwAggro$[esp-4]
  00004	33 d2		 xor	 edx, edx
  00006	85 c0		 test	 eax, eax
  00008	0f 9c c2	 setl	 dl
  0000b	4a		 dec	 edx
  0000c	23 d0		 and	 edx, eax
  0000e	89 91 88 11 00
	00		 mov	 DWORD PTR [ecx+4488], edx
  00014	c2 04 00	 ret	 4
?SetAggro@CMover@@QAEXJ@Z ENDP				; CMover::SetAggro
_TEXT	ENDS
PUBLIC	?GetPartyId@CMover@@QAEKXZ			; CMover::GetPartyId
; Function compile flags: /Ogty
;	COMDAT ?GetPartyId@CMover@@QAEKXZ
_TEXT	SEGMENT
?GetPartyId@CMover@@QAEKXZ PROC NEAR			; CMover::GetPartyId, COMDAT
; _this$ = ecx

; 1025 : 	u_long			GetPartyId() { return m_idparty; }

  00000	8b 81 18 07 00
	00		 mov	 eax, DWORD PTR [ecx+1816]
  00006	c3		 ret	 0
?GetPartyId@CMover@@QAEKXZ ENDP				; CMover::GetPartyId
_TEXT	ENDS
PUBLIC	?IsPlayer@CMover@@QAEHXZ			; CMover::IsPlayer
; Function compile flags: /Ogty
;	COMDAT ?IsPlayer@CMover@@QAEHXZ
_TEXT	SEGMENT
?IsPlayer@CMover@@QAEHXZ PROC NEAR			; CMover::IsPlayer, COMDAT
; _this$ = ecx

; 1042 : 	BOOL			IsPlayer()			{ return m_bPlayer; }

  00000	8b 81 34 02 00
	00		 mov	 eax, DWORD PTR [ecx+564]
  00006	c3		 ret	 0
?IsPlayer@CMover@@QAEHXZ ENDP				; CMover::IsPlayer
_TEXT	ENDS
PUBLIC	?IsFlyingNPC@CMover@@QAEHXZ			; CMover::IsFlyingNPC
; Function compile flags: /Ogty
;	COMDAT ?IsFlyingNPC@CMover@@QAEHXZ
_TEXT	SEGMENT
?IsFlyingNPC@CMover@@QAEHXZ PROC NEAR			; CMover::IsFlyingNPC, COMDAT
; _this$ = ecx

; 1044 : 	BOOL			IsFlyingNPC()		{ return (m_dwTypeFlag & OBJTYPE_FLYING) ? TRUE : FALSE; }		//  .

  00000	33 c0		 xor	 eax, eax
  00002	8a 81 42 02 00
	00		 mov	 al, BYTE PTR [ecx+578]
  00008	83 e0 01	 and	 eax, 1
  0000b	c3		 ret	 0
?IsFlyingNPC@CMover@@QAEHXZ ENDP			; CMover::IsFlyingNPC
_TEXT	ENDS
PUBLIC	?GetPropA@CMover@@QAEPAUMoverProp@@XZ		; CMover::GetPropA
EXTRN	?prj@@3VCProject@@A:BYTE			; prj
; Function compile flags: /Ogty
;	COMDAT ?GetPropA@CMover@@QAEPAUMoverProp@@XZ
_TEXT	SEGMENT
?GetPropA@CMover@@QAEPAUMoverProp@@XZ PROC NEAR		; CMover::GetPropA, COMDAT
; _this$ = ecx

; 1046 : 	MoverProp*		GetProp() { return prj.GetMoverProp( m_dwIndex ); }	//    	

  00000	8b 81 74 01 00
	00		 mov	 eax, DWORD PTR [ecx+372]
  00006	85 c0		 test	 eax, eax
  00008	8b 0d d0 01 00
	00		 mov	 ecx, DWORD PTR ?prj@@3VCProject@@A+464
  0000e	7c 13		 jl	 SHORT $L271638
  00010	3b c1		 cmp	 eax, ecx
  00012	7d 0f		 jge	 SHORT $L271638
  00014	8b 0d d4 01 00
	00		 mov	 ecx, DWORD PTR ?prj@@3VCProject@@A+468
  0001a	69 c0 d8 06 00
	00		 imul	 eax, 1752		; 000006d8H
  00020	03 c1		 add	 eax, ecx
  00022	c3		 ret	 0
$L271638:
  00023	50		 push	 eax
  00024	51		 push	 ecx
  00025	6a 00		 push	 0
  00027	68 00 00 00 00	 push	 OFFSET FLAT:??_C@_0BJ@GKPOBPPI@GetMoverProp?5range_error?$AA@
  0002c	68 00 00 00 00	 push	 OFFSET FLAT:??_C@_0BM@HMFGHCP@?$CFs?5min?3?$CFd?0?5max?3?$CFd?0?5index?3?$CFd?$AA@
  00031	e8 00 00 00 00	 call	 ?Error@@YAPBDPBDZZ	; Error
  00036	83 c4 14	 add	 esp, 20			; 00000014H
  00039	33 c0		 xor	 eax, eax
  0003b	c3		 ret	 0
?GetPropA@CMover@@QAEPAUMoverProp@@XZ ENDP		; CMover::GetPropA
_TEXT	ENDS
PUBLIC	?GetDestId@CMover@@QAEKXZ			; CMover::GetDestId
; Function compile flags: /Ogty
;	COMDAT ?GetDestId@CMover@@QAEKXZ
_TEXT	SEGMENT
?GetDestId@CMover@@QAEKXZ PROC NEAR			; CMover::GetDestId, COMDAT
; _this$ = ecx

; 1049 : 	OBJID			GetDestId()			{ return m_idDest; }

  00000	8b 81 5c 02 00
	00		 mov	 eax, DWORD PTR [ecx+604]
  00006	c3		 ret	 0
?GetDestId@CMover@@QAEKXZ ENDP				; CMover::GetDestId
_TEXT	ENDS
PUBLIC	?GetDestPos@CMover@@QAE?AUD3DXVECTOR3@@XZ	; CMover::GetDestPos
; Function compile flags: /Ogty
;	COMDAT ?GetDestPos@CMover@@QAE?AUD3DXVECTOR3@@XZ
_TEXT	SEGMENT
___$ReturnUdt$ = 8					; size = 4
?GetDestPos@CMover@@QAE?AUD3DXVECTOR3@@XZ PROC NEAR	; CMover::GetDestPos, COMDAT
; _this$ = ecx

; 1052 : 	D3DXVECTOR3		GetDestPos()		{ return m_vDestPos; }

  00000	8b 44 24 04	 mov	 eax, DWORD PTR ___$ReturnUdt$[esp-4]
  00004	81 c1 60 02 00
	00		 add	 ecx, 608		; 00000260H
  0000a	56		 push	 esi
  0000b	8b 31		 mov	 esi, DWORD PTR [ecx]
  0000d	8b d0		 mov	 edx, eax
  0000f	89 32		 mov	 DWORD PTR [edx], esi
  00011	8b 71 04	 mov	 esi, DWORD PTR [ecx+4]
  00014	89 72 04	 mov	 DWORD PTR [edx+4], esi
  00017	8b 49 08	 mov	 ecx, DWORD PTR [ecx+8]
  0001a	89 4a 08	 mov	 DWORD PTR [edx+8], ecx
  0001d	5e		 pop	 esi
  0001e	c2 04 00	 ret	 4
?GetDestPos@CMover@@QAE?AUD3DXVECTOR3@@XZ ENDP		; CMover::GetDestPos
_TEXT	ENDS
PUBLIC	?ClearDestObj@CMover@@QAEXXZ			; CMover::ClearDestObj
; Function compile flags: /Ogty
;	COMDAT ?ClearDestObj@CMover@@QAEXXZ
_TEXT	SEGMENT
?ClearDestObj@CMover@@QAEXXZ PROC NEAR			; CMover::ClearDestObj, COMDAT
; _this$ = ecx

; 1056 : 	void			ClearDestObj()     	{ m_idDest = NULL_ID; m_fArrivalRange = 0.0f; }

  00000	c7 81 5c 02 00
	00 ff ff ff ff	 mov	 DWORD PTR [ecx+604], -1
  0000a	c7 81 58 02 00
	00 00 00 00 00	 mov	 DWORD PTR [ecx+600], 0
  00014	c3		 ret	 0
?ClearDestObj@CMover@@QAEXXZ ENDP			; CMover::ClearDestObj
_TEXT	ENDS
PUBLIC	?IsEmptyDestObj@CMover@@QAEHXZ			; CMover::IsEmptyDestObj
; Function compile flags: /Ogty
;	COMDAT ?IsEmptyDestObj@CMover@@QAEHXZ
_TEXT	SEGMENT
?IsEmptyDestObj@CMover@@QAEHXZ PROC NEAR		; CMover::IsEmptyDestObj, COMDAT
; _this$ = ecx

; 1061 : 	BOOL			IsEmptyDestObj()	{ return m_idDest == NULL_ID; }

  00000	8b 91 5c 02 00
	00		 mov	 edx, DWORD PTR [ecx+604]
  00006	33 c0		 xor	 eax, eax
  00008	83 fa ff	 cmp	 edx, -1
  0000b	0f 94 c0	 sete	 al
  0000e	c3		 ret	 0
?IsEmptyDestObj@CMover@@QAEHXZ ENDP			; CMover::IsEmptyDestObj
_TEXT	ENDS
PUBLIC	?IsEmptyDestPos@CMover@@QAEHXZ			; CMover::IsEmptyDestPos
PUBLIC	__real@00000000
;	COMDAT __real@00000000
CONST	SEGMENT
__real@00000000 DD 000000000r			; 0
; Function compile flags: /Ogty
CONST	ENDS
;	COMDAT ?IsEmptyDestPos@CMover@@QAEHXZ
_TEXT	SEGMENT
?IsEmptyDestPos@CMover@@QAEHXZ PROC NEAR		; CMover::IsEmptyDestPos, COMDAT
; _this$ = ecx

; 1062 : 	BOOL			IsEmptyDestPos()	{ return m_vDestPos.x == 0.0f && m_vDestPos.z == 0.0f; }

  00000	d9 05 00 00 00
	00		 fld	 DWORD PTR __real@00000000
  00006	d9 81 60 02 00
	00		 fld	 DWORD PTR [ecx+608]
  0000c	da e9		 fucompp
  0000e	df e0		 fnstsw	 ax
  00010	f6 c4 44	 test	 ah, 68			; 00000044H
  00013	7a 1b		 jp	 SHORT $L271656
  00015	d9 05 00 00 00
	00		 fld	 DWORD PTR __real@00000000
  0001b	d9 81 68 02 00
	00		 fld	 DWORD PTR [ecx+616]
  00021	da e9		 fucompp
  00023	df e0		 fnstsw	 ax
  00025	f6 c4 44	 test	 ah, 68			; 00000044H
  00028	7a 06		 jp	 SHORT $L271656
  0002a	b8 01 00 00 00	 mov	 eax, 1
  0002f	c3		 ret	 0
$L271656:
  00030	33 c0		 xor	 eax, eax
  00032	c3		 ret	 0
?IsEmptyDestPos@CMover@@QAEHXZ ENDP			; CMover::IsEmptyDestPos
_TEXT	ENDS
PUBLIC	?IsEmptyDest@CMover@@QAEHXZ			; CMover::IsEmptyDest
; Function compile flags: /Ogty
;	COMDAT ?IsEmptyDest@CMover@@QAEHXZ
_TEXT	SEGMENT
?IsEmptyDest@CMover@@QAEHXZ PROC NEAR			; CMover::IsEmptyDest, COMDAT
; _this$ = ecx

; 1063 : 	BOOL			IsEmptyDest()		{ return IsEmptyDestPos() && IsEmptyDestObj(); }

  00000	d9 05 00 00 00
	00		 fld	 DWORD PTR __real@00000000
  00006	d9 81 60 02 00
	00		 fld	 DWORD PTR [ecx+608]
  0000c	da e9		 fucompp
  0000e	df e0		 fnstsw	 ax
  00010	f6 c4 44	 test	 ah, 68			; 00000044H
  00013	7a 24		 jp	 SHORT $L271663
  00015	d9 05 00 00 00
	00		 fld	 DWORD PTR __real@00000000
  0001b	d9 81 68 02 00
	00		 fld	 DWORD PTR [ecx+616]
  00021	da e9		 fucompp
  00023	df e0		 fnstsw	 ax
  00025	f6 c4 44	 test	 ah, 68			; 00000044H
  00028	7a 0f		 jp	 SHORT $L271663
  0002a	83 b9 5c 02 00
	00 ff		 cmp	 DWORD PTR [ecx+604], -1
  00031	75 06		 jne	 SHORT $L271663
  00033	b8 01 00 00 00	 mov	 eax, 1
  00038	c3		 ret	 0
$L271663:
  00039	33 c0		 xor	 eax, eax
  0003b	c3		 ret	 0
?IsEmptyDest@CMover@@QAEHXZ ENDP			; CMover::IsEmptyDest
_TEXT	ENDS
PUBLIC	?IsRegionAttr@CMover@@QAEHK@Z			; CMover::IsRegionAttr
; Function compile flags: /Ogty
;	COMDAT ?IsRegionAttr@CMover@@QAEHK@Z
_TEXT	SEGMENT
_dwAttribite$ = 8					; size = 4
?IsRegionAttr@CMover@@QAEHK@Z PROC NEAR			; CMover::IsRegionAttr, COMDAT
; _this$ = ecx

; 1066 : 	BOOL			IsRegionAttr( DWORD dwAttribite ) { return ( m_dwRegionAttr & dwAttribite ) == dwAttribite ? TRUE : FALSE; }

  00000	8b 81 d4 02 00
	00		 mov	 eax, DWORD PTR [ecx+724]
  00006	8b 4c 24 04	 mov	 ecx, DWORD PTR _dwAttribite$[esp-4]
  0000a	23 c1		 and	 eax, ecx
  0000c	2b c1		 sub	 eax, ecx
  0000e	f7 d8		 neg	 eax
  00010	1b c0		 sbb	 eax, eax
  00012	40		 inc	 eax
  00013	c2 04 00	 ret	 4
?IsRegionAttr@CMover@@QAEHK@Z ENDP			; CMover::IsRegionAttr
_TEXT	ENDS
PUBLIC	?IsDie@CMover@@QAEHXZ				; CMover::IsDie
; Function compile flags: /Ogty
;	COMDAT ?IsDie@CMover@@QAEHXZ
_TEXT	SEGMENT
?IsDie@CMover@@QAEHXZ PROC NEAR				; CMover::IsDie, COMDAT
; _this$ = ecx

; 1276 : 	BOOL			IsDie() { return m_pActMover->IsDie() || m_nHitPoint == 0; }

  00000	8b 81 3c 02 00
	00		 mov	 eax, DWORD PTR [ecx+572]
  00006	f7 40 04 00 00
	00 08		 test	 DWORD PTR [eax+4], 134217728 ; 08000000H
  0000d	75 0d		 jne	 SHORT $L271682
  0000f	8b 81 00 06 00
	00		 mov	 eax, DWORD PTR [ecx+1536]
  00015	85 c0		 test	 eax, eax
  00017	74 03		 je	 SHORT $L271682
  00019	33 c0		 xor	 eax, eax
  0001b	c3		 ret	 0
$L271682:
  0001c	b8 01 00 00 00	 mov	 eax, 1
  00021	c3		 ret	 0
?IsDie@CMover@@QAEHXZ ENDP				; CMover::IsDie
_TEXT	ENDS
PUBLIC	?IsLive@CMover@@QAEHXZ				; CMover::IsLive
; Function compile flags: /Ogty
;	COMDAT ?IsLive@CMover@@QAEHXZ
_TEXT	SEGMENT
?IsLive@CMover@@QAEHXZ PROC NEAR			; CMover::IsLive, COMDAT
; _this$ = ecx

; 1277 : 	BOOL			IsLive() { return m_pActMover->IsDie() == FALSE || m_nHitPoint > 0; }		// &&   || .  != > 

  00000	8b 81 3c 02 00
	00		 mov	 eax, DWORD PTR [ecx+572]
  00006	f7 40 04 00 00
	00 08		 test	 DWORD PTR [eax+4], 134217728 ; 08000000H
  0000d	74 0d		 je	 SHORT $L271690
  0000f	8b 81 00 06 00
	00		 mov	 eax, DWORD PTR [ecx+1536]
  00015	85 c0		 test	 eax, eax
  00017	7f 03		 jg	 SHORT $L271690
  00019	33 c0		 xor	 eax, eax
  0001b	c3		 ret	 0
$L271690:
  0001c	b8 01 00 00 00	 mov	 eax, 1
  00021	c3		 ret	 0
?IsLive@CMover@@QAEHXZ ENDP				; CMover::IsLive
_TEXT	ENDS
PUBLIC	?GetCount@CMover@@QAEHXZ			; CMover::GetCount
; Function compile flags: /Ogty
;	COMDAT ?GetCount@CMover@@QAEHXZ
_TEXT	SEGMENT
?GetCount@CMover@@QAEHXZ PROC NEAR			; CMover::GetCount, COMDAT
; _this$ = ecx

; 1278 : 	int				GetCount() { return m_nCount; }

  00000	8b 81 80 16 00
	00		 mov	 eax, DWORD PTR [ecx+5760]
  00006	c3		 ret	 0
?GetCount@CMover@@QAEHXZ ENDP				; CMover::GetCount
_TEXT	ENDS
PUBLIC	?GetMovePattern@CMover@@QAEHXZ			; CMover::GetMovePattern
; Function compile flags: /Ogty
;	COMDAT ?GetMovePattern@CMover@@QAEHXZ
_TEXT	SEGMENT
?GetMovePattern@CMover@@QAEHXZ PROC NEAR		; CMover::GetMovePattern, COMDAT
; _this$ = ecx

; 1467 : 	int				GetMovePattern() { return m_nMovePattern; }

  00000	8b 81 64 16 00
	00		 mov	 eax, DWORD PTR [ecx+5732]
  00006	c3		 ret	 0
?GetMovePattern@CMover@@QAEHXZ ENDP			; CMover::GetMovePattern
_TEXT	ENDS
PUBLIC	?GetMoveEvent@CMover@@QAEHXZ			; CMover::GetMoveEvent
; Function compile flags: /Ogty
;	COMDAT ?GetMoveEvent@CMover@@QAEHXZ
_TEXT	SEGMENT
?GetMoveEvent@CMover@@QAEHXZ PROC NEAR			; CMover::GetMoveEvent, COMDAT
; _this$ = ecx

; 1468 : 	int				GetMoveEvent() { return m_nMoveEvent; }

  00000	8b 81 68 16 00
	00		 mov	 eax, DWORD PTR [ecx+5736]
  00006	c3		 ret	 0
?GetMoveEvent@CMover@@QAEHXZ ENDP			; CMover::GetMoveEvent
_TEXT	ENDS
PUBLIC	?IsMode@CMover@@QAEHK@Z				; CMover::IsMode
EXTRN	?GetAdjParam@CMover@@QAEHH@Z:NEAR		; CMover::GetAdjParam
; Function compile flags: /Ogty
;	COMDAT ?IsMode@CMover@@QAEHK@Z
_TEXT	SEGMENT
_dwMode$ = 8						; size = 4
?IsMode@CMover@@QAEHK@Z PROC NEAR			; CMover::IsMode, COMDAT
; _this$ = ecx

; 1762 : { 

  00000	53		 push	 ebx

; 1763 : #ifdef __HACK_0516
; 1764 : 	switch( dwMode )
; 1765 : 	{
; 1766 : 		case MATCHLESS_MODE:		//  
; 1767 : 		case ONEKILL_MODE:		//  
; 1768 : 		case MATCHLESS2_MODE:	//  2
; 1769 : 			if( m_dwAuthorization == AUTH_GENERAL )
; 1770 : 				return FALSE;
; 1771 : 			break;
; 1772 : 	}
; 1773 : #endif	// __HACK_0516
; 1774 : 	if( (dwMode & TRANSPARENT_MODE) )	//   

  00001	8b 5c 24 08	 mov	 ebx, DWORD PTR _dwMode$[esp]
  00005	f6 c3 02	 test	 bl, 2
  00008	56		 push	 esi
  00009	8b f1		 mov	 esi, ecx
  0000b	74 16		 je	 SHORT $L212480

; 1775 : 		if( GetAdjParam(DST_CHRSTATE) & CHS_INVISIBILITY )	//  ?

  0000d	6a 40		 push	 64			; 00000040H
  0000f	e8 00 00 00 00	 call	 ?GetAdjParam@CMover@@QAEHH@Z ; CMover::GetAdjParam
  00014	f6 c4 04	 test	 ah, 4
  00017	74 0a		 je	 SHORT $L212480
  00019	5e		 pop	 esi

; 1776 : 			return TRUE;

  0001a	b8 01 00 00 00	 mov	 eax, 1
  0001f	5b		 pop	 ebx

; 1778 : }	

  00020	c2 04 00	 ret	 4
$L212480:

; 1777 : 	return ( ( m_dwMode & dwMode ) == dwMode ) ? TRUE : FALSE; 

  00023	8b 86 44 02 00
	00		 mov	 eax, DWORD PTR [esi+580]
  00029	23 c3		 and	 eax, ebx
  0002b	2b c3		 sub	 eax, ebx
  0002d	f7 d8		 neg	 eax
  0002f	1b c0		 sbb	 eax, eax
  00031	5e		 pop	 esi
  00032	40		 inc	 eax
  00033	5b		 pop	 ebx

; 1778 : }	

  00034	c2 04 00	 ret	 4
?IsMode@CMover@@QAEHK@Z ENDP				; CMover::IsMode
_TEXT	ENDS
PUBLIC	?SendActMsg@CMover@@QAEHW4OBJMSG@@HHHH@Z	; CMover::SendActMsg
; Function compile flags: /Ogty
;	COMDAT ?SendActMsg@CMover@@QAEHW4OBJMSG@@HHHH@Z
_TEXT	SEGMENT
_dwMsg$ = 8						; size = 4
_nParam1$ = 12						; size = 4
_nParam2$ = 16						; size = 4
_nParam3$ = 20						; size = 4
_nParam4$ = 24						; size = 4
?SendActMsg@CMover@@QAEHW4OBJMSG@@HHHH@Z PROC NEAR	; CMover::SendActMsg, COMDAT
; _this$ = ecx

; 1820 : 	if( m_pActMover )	

  00000	8b 81 3c 02 00
	00		 mov	 eax, DWORD PTR [ecx+572]
  00006	85 c0		 test	 eax, eax
  00008	74 25		 je	 SHORT $L212505

; 1821 : 		return m_pActMover->SendActMsg( dwMsg, nParam1, nParam2, nParam3, nParam4 );	

  0000a	8b 54 24 14	 mov	 edx, DWORD PTR _nParam4$[esp-4]
  0000e	6a 00		 push	 0
  00010	52		 push	 edx
  00011	8b 54 24 18	 mov	 edx, DWORD PTR _nParam3$[esp+4]
  00015	52		 push	 edx
  00016	8b 54 24 18	 mov	 edx, DWORD PTR _nParam2$[esp+8]
  0001a	52		 push	 edx
  0001b	8b 54 24 18	 mov	 edx, DWORD PTR _nParam1$[esp+12]
  0001f	52		 push	 edx
  00020	8b 54 24 18	 mov	 edx, DWORD PTR _dwMsg$[esp+16]
  00024	8b c8		 mov	 ecx, eax
  00026	8b 01		 mov	 eax, DWORD PTR [ecx]
  00028	52		 push	 edx
  00029	ff 50 04	 call	 DWORD PTR [eax+4]

; 1824 : }

  0002c	c2 14 00	 ret	 20			; 00000014H
$L212505:

; 1822 : 	else
; 1823 : 		return 0;

  0002f	33 c0		 xor	 eax, eax

; 1824 : }

  00031	c2 14 00	 ret	 20			; 00000014H
?SendActMsg@CMover@@QAEHW4OBJMSG@@HHHH@Z ENDP		; CMover::SendActMsg
_TEXT	ENDS
PUBLIC	?GetID@CWorld@@QAEKXZ				; CWorld::GetID
; Function compile flags: /Ogty
; File c:\documents and settings\test\mes documents\source\virtuos_v17\build\program\_common\world.h
;	COMDAT ?GetID@CWorld@@QAEKXZ
_TEXT	SEGMENT
?GetID@CWorld@@QAEKXZ PROC NEAR				; CWorld::GetID, COMDAT
; _this$ = ecx

; 413  : 	DWORD			GetID()	{ return m_dwWorldID; }

  00000	8b 01		 mov	 eax, DWORD PTR [ecx]
  00002	c3		 ret	 0
?GetID@CWorld@@QAEKXZ ENDP				; CWorld::GetID
_TEXT	ENDS
PUBLIC	?size@?$basic_string@DU?$char_traits@D@std@@V?$allocator@D@2@@std@@QBEIXZ ; std::basic_string<char,std::char_traits<char>,std::allocator<char> >::size
; Function compile flags: /Ogty
; File c:\program files\microsoft visual studio .net 2003\vc7\include\xstring
;	COMDAT ?size@?$basic_string@DU?$char_traits@D@std@@V?$allocator@D@2@@std@@QBEIXZ
_TEXT	SEGMENT
?size@?$basic_string@DU?$char_traits@D@std@@V?$allocator@D@2@@std@@QBEIXZ PROC NEAR ; std::basic_string<char,std::char_traits<char>,std::allocator<char> >::size, COMDAT
; _this$ = ecx

; 1109 : 		return (_Mysize);

  00000	8b 41 14	 mov	 eax, DWORD PTR [ecx+20]

; 1110 : 		}

  00003	c3		 ret	 0
?size@?$basic_string@DU?$char_traits@D@std@@V?$allocator@D@2@@std@@QBEIXZ ENDP ; std::basic_string<char,std::char_traits<char>,std::allocator<char> >::size
_TEXT	ENDS
PUBLIC	?GetSize@?$CFixedArray@UItemProp@@@@QAEHXZ	; CFixedArray<ItemProp>::GetSize
; Function compile flags: /Ogty
; File c:\documents and settings\test\mes documents\source\virtuos_v17\build\program\_common\data.h
;	COMDAT ?GetSize@?$CFixedArray@UItemProp@@@@QAEHXZ
_TEXT	SEGMENT
?GetSize@?$CFixedArray@UItemProp@@@@QAEHXZ PROC NEAR	; CFixedArray<ItemProp>::GetSize, COMDAT
; _this$ = ecx

; 221  : 	int  GetSize() { return m_nMaxIndex; }

  00000	8b 41 18	 mov	 eax, DWORD PTR [ecx+24]
  00003	c3		 ret	 0
?GetSize@?$CFixedArray@UItemProp@@@@QAEHXZ ENDP		; CFixedArray<ItemProp>::GetSize
_TEXT	ENDS
PUBLIC	?_Myptr@?$basic_string@DU?$char_traits@D@std@@V?$allocator@D@2@@std@@QBEPBDXZ ; std::basic_string<char,std::char_traits<char>,std::allocator<char> >::_Myptr
; Function compile flags: /Ogty
; File c:\program files\microsoft visual studio .net 2003\vc7\include\xstring
;	COMDAT ?_Myptr@?$basic_string@DU?$char_traits@D@std@@V?$allocator@D@2@@std@@QBEPBDXZ
_TEXT	SEGMENT
?_Myptr@?$basic_string@DU?$char_traits@D@std@@V?$allocator@D@2@@std@@QBEPBDXZ PROC NEAR ; std::basic_string<char,std::char_traits<char>,std::allocator<char> >::_Myptr, COMDAT
; _this$ = ecx

; 1537 : 		return (_BUF_SIZE <= _Myres ? _Bx._Ptr : _Bx._Buf);

  00000	83 79 18 10	 cmp	 DWORD PTR [ecx+24], 16	; 00000010H
  00004	72 04		 jb	 SHORT $L271722
  00006	8b 41 04	 mov	 eax, DWORD PTR [ecx+4]

; 1538 : 		}

  00009	c3		 ret	 0
$L271722:

; 1537 : 		return (_BUF_SIZE <= _Myres ? _Bx._Ptr : _Bx._Buf);

  0000a	8d 41 04	 lea	 eax, DWORD PTR [ecx+4]

; 1538 : 		}

  0000d	c3		 ret	 0
?_Myptr@?$basic_string@DU?$char_traits@D@std@@V?$allocator@D@2@@std@@QBEPBDXZ ENDP ; std::basic_string<char,std::char_traits<char>,std::allocator<char> >::_Myptr
_TEXT	ENDS
PUBLIC	??0?$allocator@D@std@@QAE@XZ			; std::allocator<char>::allocator<char>
; Function compile flags: /Ogty
; File c:\program files\microsoft visual studio .net 2003\vc7\include\xmemory
;	COMDAT ??0?$allocator@D@std@@QAE@XZ
_TEXT	SEGMENT
??0?$allocator@D@std@@QAE@XZ PROC NEAR			; std::allocator<char>::allocator<char>, COMDAT
; _this$ = ecx

; 111  : 	allocator()

  00000	8b c1		 mov	 eax, ecx

; 112  : 		{	// construct default allocator (do nothing)
; 113  : 		}

  00002	c3		 ret	 0
??0?$allocator@D@std@@QAE@XZ ENDP			; std::allocator<char>::allocator<char>
_TEXT	ENDS
PUBLIC	??0?$allocator@D@std@@QAE@ABV01@@Z		; std::allocator<char>::allocator<char>
; Function compile flags: /Ogty
;	COMDAT ??0?$allocator@D@std@@QAE@ABV01@@Z
_TEXT	SEGMENT
___formal$ = 8						; size = 4
??0?$allocator@D@std@@QAE@ABV01@@Z PROC NEAR		; std::allocator<char>::allocator<char>, COMDAT
; _this$ = ecx

; 115  : 	allocator(const allocator<_Ty>&)

  00000	8b c1		 mov	 eax, ecx

; 116  : 		{	// construct by copying (do nothing)
; 117  : 		}

  00002	c2 04 00	 ret	 4
??0?$allocator@D@std@@QAE@ABV01@@Z ENDP			; std::allocator<char>::allocator<char>
_TEXT	ENDS
PUBLIC	??0?$allocator@K@std@@QAE@XZ			; std::allocator<unsigned long>::allocator<unsigned long>
; Function compile flags: /Ogty
;	COMDAT ??0?$allocator@K@std@@QAE@XZ
_TEXT	SEGMENT
??0?$allocator@K@std@@QAE@XZ PROC NEAR			; std::allocator<unsigned long>::allocator<unsigned long>, COMDAT
; _this$ = ecx

; 111  : 	allocator()

  00000	8b c1		 mov	 eax, ecx

; 112  : 		{	// construct default allocator (do nothing)
; 113  : 		}

  00002	c3		 ret	 0
??0?$allocator@K@std@@QAE@XZ ENDP			; std::allocator<unsigned long>::allocator<unsigned long>
_TEXT	ENDS
PUBLIC	?_Myptr@?$basic_string@DU?$char_traits@D@std@@V?$allocator@D@2@@std@@QAEPADXZ ; std::basic_string<char,std::char_traits<char>,std::allocator<char> >::_Myptr
; Function compile flags: /Ogty
; File c:\program files\microsoft visual studio .net 2003\vc7\include\xstring
;	COMDAT ?_Myptr@?$basic_string@DU?$char_traits@D@std@@V?$allocator@D@2@@std@@QAEPADXZ
_TEXT	SEGMENT
?_Myptr@?$basic_string@DU?$char_traits@D@std@@V?$allocator@D@2@@std@@QAEPADXZ PROC NEAR ; std::basic_string<char,std::char_traits<char>,std::allocator<char> >::_Myptr, COMDAT
; _this$ = ecx

; 1532 : 		return (_BUF_SIZE <= _Myres ? _Bx._Ptr : _Bx._Buf);

  00000	83 79 18 10	 cmp	 DWORD PTR [ecx+24], 16	; 00000010H
  00004	72 04		 jb	 SHORT $L271736
  00006	8b 41 04	 mov	 eax, DWORD PTR [ecx+4]

; 1533 : 		}

  00009	c3		 ret	 0
$L271736:

; 1532 : 		return (_BUF_SIZE <= _Myres ? _Bx._Ptr : _Bx._Buf);

  0000a	8d 41 04	 lea	 eax, DWORD PTR [ecx+4]

; 1533 : 		}

  0000d	c3		 ret	 0
?_Myptr@?$basic_string@DU?$char_traits@D@std@@V?$allocator@D@2@@std@@QAEPADXZ ENDP ; std::basic_string<char,std::char_traits<char>,std::allocator<char> >::_Myptr
_TEXT	ENDS
PUBLIC	?deallocate@?$allocator@D@std@@QAEXPADI@Z	; std::allocator<char>::deallocate
; Function compile flags: /Ogty
; File c:\program files\microsoft visual studio .net 2003\vc7\include\xmemory
;	COMDAT ?deallocate@?$allocator@D@std@@QAEXPADI@Z
_TEXT	SEGMENT
__Ptr$ = 8						; size = 4
___formal$ = 12						; size = 4
?deallocate@?$allocator@D@std@@QAEXPADI@Z PROC NEAR	; std::allocator<char>::deallocate, COMDAT
; _this$ = ecx

; 132  : 		operator delete(_Ptr);

  00000	8b 44 24 04	 mov	 eax, DWORD PTR __Ptr$[esp-4]
  00004	50		 push	 eax
  00005	e8 00 00 00 00	 call	 ??3@YAXPAX@Z		; operator delete
  0000a	59		 pop	 ecx

; 133  : 		}

  0000b	c2 08 00	 ret	 8
?deallocate@?$allocator@D@std@@QAEXPADI@Z ENDP		; std::allocator<char>::deallocate
_TEXT	ENDS
PUBLIC	??0?$allocator@K@std@@QAE@ABV01@@Z		; std::allocator<unsigned long>::allocator<unsigned long>
; Function compile flags: /Ogty
;	COMDAT ??0?$allocator@K@std@@QAE@ABV01@@Z
_TEXT	SEGMENT
___formal$ = 8						; size = 4
??0?$allocator@K@std@@QAE@ABV01@@Z PROC NEAR		; std::allocator<unsigned long>::allocator<unsigned long>, COMDAT
; _this$ = ecx

; 115  : 	allocator(const allocator<_Ty>&)

  00000	8b c1		 mov	 eax, ecx

; 116  : 		{	// construct by copying (do nothing)
; 117  : 		}

  00002	c2 04 00	 ret	 4
??0?$allocator@K@std@@QAE@ABV01@@Z ENDP			; std::allocator<unsigned long>::allocator<unsigned long>
_TEXT	ENDS
PUBLIC	?deallocate@?$allocator@K@std@@QAEXPAKI@Z	; std::allocator<unsigned long>::deallocate
; Function compile flags: /Ogty
;	COMDAT ?deallocate@?$allocator@K@std@@QAEXPAKI@Z
_TEXT	SEGMENT
__Ptr$ = 8						; size = 4
___formal$ = 12						; size = 4
?deallocate@?$allocator@K@std@@QAEXPAKI@Z PROC NEAR	; std::allocator<unsigned long>::deallocate, COMDAT
; _this$ = ecx

; 132  : 		operator delete(_Ptr);

  00000	8b 44 24 04	 mov	 eax, DWORD PTR __Ptr$[esp-4]
  00004	50		 push	 eax
  00005	e8 00 00 00 00	 call	 ??3@YAXPAX@Z		; operator delete
  0000a	59		 pop	 ecx

; 133  : 		}

  0000b	c2 08 00	 ret	 8
?deallocate@?$allocator@K@std@@QAEXPAKI@Z ENDP		; std::allocator<unsigned long>::deallocate
_TEXT	ENDS
PUBLIC	?_Inside@?$basic_string@DU?$char_traits@D@std@@V?$allocator@D@2@@std@@IAE_NPBD@Z ; std::basic_string<char,std::char_traits<char>,std::allocator<char> >::_Inside
; Function compile flags: /Ogty
; File c:\program files\microsoft visual studio .net 2003\vc7\include\xstring
;	COMDAT ?_Inside@?$basic_string@DU?$char_traits@D@std@@V?$allocator@D@2@@std@@IAE_NPBD@Z
_TEXT	SEGMENT
__Ptr$ = 8						; size = 4
?_Inside@?$basic_string@DU?$char_traits@D@std@@V?$allocator@D@2@@std@@IAE_NPBD@Z PROC NEAR ; std::basic_string<char,std::char_traits<char>,std::allocator<char> >::_Inside, COMDAT
; _this$ = ecx

; 1494 : 		{	// test if _Ptr points inside string

  00000	56		 push	 esi

; 1495 : 		if (_Ptr < _Myptr() || _Myptr() + _Mysize <= _Ptr)

  00001	8b 71 18	 mov	 esi, DWORD PTR [ecx+24]
  00004	83 fe 10	 cmp	 esi, 16			; 00000010H
  00007	57		 push	 edi
  00008	8d 41 04	 lea	 eax, DWORD PTR [ecx+4]
  0000b	72 04		 jb	 SHORT $L271755
  0000d	8b 10		 mov	 edx, DWORD PTR [eax]
  0000f	eb 02		 jmp	 SHORT $L271756
$L271755:
  00011	8b d0		 mov	 edx, eax
$L271756:
  00013	8b 7c 24 0c	 mov	 edi, DWORD PTR __Ptr$[esp+4]
  00017	3b fa		 cmp	 edi, edx
  00019	72 17		 jb	 SHORT $L222788
  0001b	83 fe 10	 cmp	 esi, 16			; 00000010H
  0001e	72 02		 jb	 SHORT $L271763
  00020	8b 00		 mov	 eax, DWORD PTR [eax]
$L271763:
  00022	8b 49 14	 mov	 ecx, DWORD PTR [ecx+20]
  00025	03 c8		 add	 ecx, eax
  00027	3b cf		 cmp	 ecx, edi
  00029	76 07		 jbe	 SHORT $L222788
  0002b	5f		 pop	 edi

; 1497 : 		else
; 1498 : 			return (true);

  0002c	b0 01		 mov	 al, 1
  0002e	5e		 pop	 esi

; 1499 : 		}

  0002f	c2 04 00	 ret	 4
$L222788:
  00032	5f		 pop	 edi

; 1496 : 			return (false);	// don't ask

  00033	32 c0		 xor	 al, al
  00035	5e		 pop	 esi

; 1499 : 		}

  00036	c2 04 00	 ret	 4
?_Inside@?$basic_string@DU?$char_traits@D@std@@V?$allocator@D@2@@std@@IAE_NPBD@Z ENDP ; std::basic_string<char,std::char_traits<char>,std::allocator<char> >::_Inside
_TEXT	ENDS
PUBLIC	?max_size@?$allocator@K@std@@QBEIXZ		; std::allocator<unsigned long>::max_size
; Function compile flags: /Ogty
; File c:\program files\microsoft visual studio .net 2003\vc7\include\xmemory
;	COMDAT ?max_size@?$allocator@K@std@@QBEIXZ
_TEXT	SEGMENT
?max_size@?$allocator@K@std@@QBEIXZ PROC NEAR		; std::allocator<unsigned long>::max_size, COMDAT
; _this$ = ecx

; 157  : 		_SIZT _Count = (_SIZT)(-1) / sizeof (_Ty);
; 158  : 		return (0 < _Count ? _Count : 1);

  00000	b8 ff ff ff 3f	 mov	 eax, 1073741823		; 3fffffffH

; 159  : 		}

  00005	c3		 ret	 0
?max_size@?$allocator@K@std@@QBEIXZ ENDP		; std::allocator<unsigned long>::max_size
_TEXT	ENDS
PUBLIC	?max_size@?$allocator@D@std@@QBEIXZ		; std::allocator<char>::max_size
; Function compile flags: /Ogty
;	COMDAT ?max_size@?$allocator@D@std@@QBEIXZ
_TEXT	SEGMENT
?max_size@?$allocator@D@std@@QBEIXZ PROC NEAR		; std::allocator<char>::max_size, COMDAT
; _this$ = ecx

; 157  : 		_SIZT _Count = (_SIZT)(-1) / sizeof (_Ty);
; 158  : 		return (0 < _Count ? _Count : 1);

  00000	83 c8 ff	 or	 eax, -1

; 159  : 		}

  00003	c3		 ret	 0
?max_size@?$allocator@D@std@@QBEIXZ ENDP		; std::allocator<char>::max_size
_TEXT	ENDS
PUBLIC	?GetAt@?$CFixedArray@UItemProp@@@@QAEPAUItemProp@@K@Z ; CFixedArray<ItemProp>::GetAt
; Function compile flags: /Ogty
; File c:\documents and settings\test\mes documents\source\virtuos_v17\build\program\_common\data.h
;	COMDAT ?GetAt@?$CFixedArray@UItemProp@@@@QAEPAUItemProp@@K@Z
_TEXT	SEGMENT
_dwIndex$ = 8						; size = 4
?GetAt@?$CFixedArray@UItemProp@@@@QAEPAUItemProp@@K@Z PROC NEAR ; CFixedArray<ItemProp>::GetAt, COMDAT
; _this$ = ecx

; 270  : 	if( dwIndex >= (DWORD)m_nMaxIndex )

  00000	8b 44 24 04	 mov	 eax, DWORD PTR _dwIndex$[esp-4]
  00004	3b 41 18	 cmp	 eax, DWORD PTR [ecx+24]
  00007	72 05		 jb	 SHORT $L224299

; 271  : 		return NULL;

  00009	33 c0		 xor	 eax, eax

; 273  : }

  0000b	c2 04 00	 ret	 4
$L224299:

; 272  : 	return (T*) m_apOffset[ dwIndex ];

  0000e	8b 49 08	 mov	 ecx, DWORD PTR [ecx+8]
  00011	8b 04 81	 mov	 eax, DWORD PTR [ecx+eax*4]

; 273  : }

  00014	c2 04 00	 ret	 4
?GetAt@?$CFixedArray@UItemProp@@@@QAEPAUItemProp@@K@Z ENDP ; CFixedArray<ItemProp>::GetAt
_TEXT	ENDS
PUBLIC	??$_Allocate@K@std@@YAPAKIPAK@Z			; std::_Allocate<unsigned long>
EXTRN	??2@YAPAXI@Z:NEAR				; operator new
; Function compile flags: /Ogty
; File c:\program files\microsoft visual studio .net 2003\vc7\include\xmemory
;	COMDAT ??$_Allocate@K@std@@YAPAKIPAK@Z
_TEXT	SEGMENT
__Count$ = 8						; size = 4
___formal$ = 12						; size = 4
??$_Allocate@K@std@@YAPAKIPAK@Z PROC NEAR		; std::_Allocate<unsigned long>, COMDAT

; 34   : 	return ((_Ty _FARQ *)operator new(_Count * sizeof (_Ty)));

  00000	8b 44 24 04	 mov	 eax, DWORD PTR __Count$[esp-4]
  00004	8d 0c 85 00 00
	00 00		 lea	 ecx, DWORD PTR [eax*4]
  0000b	51		 push	 ecx
  0000c	e8 00 00 00 00	 call	 ??2@YAPAXI@Z		; operator new
  00011	83 c4 04	 add	 esp, 4

; 35   : 	}

  00014	c3		 ret	 0
??$_Allocate@K@std@@YAPAKIPAK@Z ENDP			; std::_Allocate<unsigned long>
_TEXT	ENDS
PUBLIC	??$_Destroy_range@KV?$allocator@K@std@@@std@@YAXPAK0AAV?$allocator@K@0@@Z ; std::_Destroy_range<unsigned long,std::allocator<unsigned long> >
; Function compile flags: /Ogty
;	COMDAT ??$_Destroy_range@KV?$allocator@K@std@@@std@@YAXPAK0AAV?$allocator@K@0@@Z
_TEXT	SEGMENT
__First$ = 8						; size = 4
__Last$ = 12						; size = 4
__Al$ = 16						; size = 4
??$_Destroy_range@KV?$allocator@K@std@@@std@@YAXPAK0AAV?$allocator@K@0@@Z PROC NEAR ; std::_Destroy_range<unsigned long,std::allocator<unsigned long> >, COMDAT

; 217  : 	_Destroy_range(_First, _Last, _Al, _Ptr_cat(_First, _Last));
; 218  : 	}

  00000	c3		 ret	 0
??$_Destroy_range@KV?$allocator@K@std@@@std@@YAXPAK0AAV?$allocator@K@0@@Z ENDP ; std::_Destroy_range<unsigned long,std::allocator<unsigned long> >
_TEXT	ENDS
PUBLIC	??$_Allocate@D@std@@YAPADIPAD@Z			; std::_Allocate<char>
; Function compile flags: /Ogty
;	COMDAT ??$_Allocate@D@std@@YAPADIPAD@Z
_TEXT	SEGMENT
__Count$ = 8						; size = 4
___formal$ = 12						; size = 4
??$_Allocate@D@std@@YAPADIPAD@Z PROC NEAR		; std::_Allocate<char>, COMDAT

; 34   : 	return ((_Ty _FARQ *)operator new(_Count * sizeof (_Ty)));

  00000	8b 44 24 04	 mov	 eax, DWORD PTR __Count$[esp-4]
  00004	50		 push	 eax
  00005	e8 00 00 00 00	 call	 ??2@YAPAXI@Z		; operator new
  0000a	83 c4 04	 add	 esp, 4

; 35   : 	}

  0000d	c3		 ret	 0
??$_Allocate@D@std@@YAPADIPAD@Z ENDP			; std::_Allocate<char>
_TEXT	ENDS
PUBLIC	?IsMove@CAIAggro@@IAEHXZ			; CAIAggro::IsMove
; Function compile flags: /Ogty
; File c:\documents and settings\test\mes documents\source\virtuos_v17\build\program\_aiinterface\aiaggro.h
;	COMDAT ?IsMove@CAIAggro@@IAEHXZ
_TEXT	SEGMENT
?IsMove@CAIAggro@@IAEHXZ PROC NEAR			; CAIAggro::IsMove, COMDAT
; _this$ = ecx

; 59   : 	BOOL			IsMove() { return GetMover()->m_pActMover->IsMove(); }

  00000	8b 41 30	 mov	 eax, DWORD PTR [ecx+48]
  00003	8b 80 3c 02 00
	00		 mov	 eax, DWORD PTR [eax+572]
  00009	8b 40 04	 mov	 eax, DWORD PTR [eax+4]
  0000c	25 ff 00 00 00	 and	 eax, 255		; 000000ffH
  00011	83 f8 04	 cmp	 eax, 4
  00014	74 1c		 je	 SHORT $L271823
  00016	83 f8 05	 cmp	 eax, 5
  00019	74 17		 je	 SHORT $L271823
  0001b	83 f8 06	 cmp	 eax, 6
  0001e	74 12		 je	 SHORT $L271823
  00020	83 f8 07	 cmp	 eax, 7
  00023	74 0d		 je	 SHORT $L271823
  00025	83 f8 09	 cmp	 eax, 9
  00028	74 08		 je	 SHORT $L271823
  0002a	83 f8 0a	 cmp	 eax, 10			; 0000000aH
  0002d	74 03		 je	 SHORT $L271823
  0002f	33 c0		 xor	 eax, eax
  00031	c3		 ret	 0
$L271823:
  00032	b8 01 00 00 00	 mov	 eax, 1
  00037	c3		 ret	 0
?IsMove@CAIAggro@@IAEHXZ ENDP				; CAIAggro::IsMove
_TEXT	ENDS
PUBLIC	??0_VECINFO@@QAE@XZ				; _VECINFO::_VECINFO
EXTRN	??0CTimer@@QAE@XZ:NEAR				; CTimer::CTimer
; Function compile flags: /Ogty
;	COMDAT ??0_VECINFO@@QAE@XZ
_TEXT	SEGMENT
??0_VECINFO@@QAE@XZ PROC NEAR				; _VECINFO::_VECINFO, COMDAT
; _this$ = ecx
  00000	56		 push	 esi
  00001	8b f1		 mov	 esi, ecx
  00003	8d 4e 18	 lea	 ecx, DWORD PTR [esi+24]
  00006	e8 00 00 00 00	 call	 ??0CTimer@@QAE@XZ	; CTimer::CTimer
  0000b	8b c6		 mov	 eax, esi
  0000d	5e		 pop	 esi
  0000e	c3		 ret	 0
??0_VECINFO@@QAE@XZ ENDP				; _VECINFO::_VECINFO
_TEXT	ENDS
PUBLIC	??1_VECINFO@@QAE@XZ				; _VECINFO::~_VECINFO
; Function compile flags: /Ogty
;	COMDAT ??1_VECINFO@@QAE@XZ
_TEXT	SEGMENT
??1_VECINFO@@QAE@XZ PROC NEAR				; _VECINFO::~_VECINFO, COMDAT
; _this$ = ecx
  00000	c7 41 18 00 00
	00 00		 mov	 DWORD PTR [ecx+24], OFFSET FLAT:??_7CTimer@@6B@
  00007	c3		 ret	 0
??1_VECINFO@@QAE@XZ ENDP				; _VECINFO::~_VECINFO
_TEXT	ENDS
PUBLIC	?InitAI@CAIAggro@@UAEXXZ			; CAIAggro::InitAI
; Function compile flags: /Ogty
; File c:\documents and settings\test\mes documents\source\virtuos_v17\build\program\_aiinterface\aiaggro.cpp
;	COMDAT ?InitAI@CAIAggro@@UAEXXZ
_TEXT	SEGMENT
?InitAI@CAIAggro@@UAEXXZ PROC NEAR			; CAIAggro::InitAI, COMDAT
; _this$ = ecx

; 117  : 	m_vPosBegin = GetMover()->GetPos();

  00000	8b 41 30	 mov	 eax, DWORD PTR [ecx+48]
  00003	56		 push	 esi
  00004	57		 push	 edi
  00005	8d 90 60 01 00
	00		 lea	 edx, DWORD PTR [eax+352]
  0000b	8b 3a		 mov	 edi, DWORD PTR [edx]
  0000d	8d 71 54	 lea	 esi, DWORD PTR [ecx+84]
  00010	89 3e		 mov	 DWORD PTR [esi], edi
  00012	8b 7a 04	 mov	 edi, DWORD PTR [edx+4]
  00015	89 7e 04	 mov	 DWORD PTR [esi+4], edi
  00018	8b 52 08	 mov	 edx, DWORD PTR [edx+8]
  0001b	89 56 08	 mov	 DWORD PTR [esi+8], edx

; 118  : 	m_fAngleBegine = GetMover()->GetAngle();

  0001e	8b 50 18	 mov	 edx, DWORD PTR [eax+24]

; 119  : 	PostAIMsg( AIMSG_SETSTATE, GetMover()->m_dwAIInterfaceState ); 	

  00021	6a 00		 push	 0
  00023	89 91 c0 00 00
	00		 mov	 DWORD PTR [ecx+192], edx
  00029	8b 80 90 01 00
	00		 mov	 eax, DWORD PTR [eax+400]
  0002f	8b 11		 mov	 edx, DWORD PTR [ecx]
  00031	6a 00		 push	 0
  00033	50		 push	 eax
  00034	6a 04		 push	 4
  00036	ff 52 10	 call	 DWORD PTR [edx+16]
  00039	5f		 pop	 edi
  0003a	5e		 pop	 esi

; 120  : }

  0003b	c3		 ret	 0
?InitAI@CAIAggro@@UAEXXZ ENDP				; CAIAggro::InitAI
_TEXT	ENDS
PUBLIC	?IsEndStop@CAIAggro@@IAEHXZ			; CAIAggro::IsEndStop
EXTRN	?g_tmCurrent@@3KA:DWORD				; g_tmCurrent
; Function compile flags: /Ogty
;	COMDAT ?IsEndStop@CAIAggro@@IAEHXZ
_TEXT	SEGMENT
?IsEndStop@CAIAggro@@IAEHXZ PROC NEAR			; CAIAggro::IsEndStop, COMDAT
; _this$ = ecx

; 130  : 	return ( TIMEGETTIME > m_tmMove ) && ( IsMove() == FALSE ) ; 

  00000	a1 00 00 00 00	 mov	 eax, DWORD PTR ?g_tmCurrent@@3KA ; g_tmCurrent
  00005	3b 41 3c	 cmp	 eax, DWORD PTR [ecx+60]
  00008	76 35		 jbe	 SHORT $L271879
  0000a	8b 49 30	 mov	 ecx, DWORD PTR [ecx+48]
  0000d	8b 81 3c 02 00
	00		 mov	 eax, DWORD PTR [ecx+572]
  00013	8b 40 04	 mov	 eax, DWORD PTR [eax+4]
  00016	25 ff 00 00 00	 and	 eax, 255		; 000000ffH
  0001b	83 f8 04	 cmp	 eax, 4
  0001e	74 1f		 je	 SHORT $L271879
  00020	83 f8 05	 cmp	 eax, 5
  00023	74 1a		 je	 SHORT $L271879
  00025	83 f8 06	 cmp	 eax, 6
  00028	74 15		 je	 SHORT $L271879
  0002a	83 f8 07	 cmp	 eax, 7
  0002d	74 10		 je	 SHORT $L271879
  0002f	83 f8 09	 cmp	 eax, 9
  00032	74 0b		 je	 SHORT $L271879
  00034	83 f8 0a	 cmp	 eax, 10			; 0000000aH
  00037	74 06		 je	 SHORT $L271879
  00039	b8 01 00 00 00	 mov	 eax, 1

; 131  : }

  0003e	c3		 ret	 0
$L271879:

; 130  : 	return ( TIMEGETTIME > m_tmMove ) && ( IsMove() == FALSE ) ; 

  0003f	33 c0		 xor	 eax, eax

; 131  : }

  00041	c3		 ret	 0
?IsEndStop@CAIAggro@@IAEHXZ ENDP			; CAIAggro::IsEndStop
_TEXT	ENDS
PUBLIC	?MoveToDst@CAIAggro@@IAEXABUD3DXVECTOR3@@@Z	; CAIAggro::MoveToDst
EXTRN	?SetDestPos@CMover@@QAEXABUD3DXVECTOR3@@_NH@Z:NEAR ; CMover::SetDestPos
EXTRN	?g_UserMng@@3VCUserMng@@A:BYTE			; g_UserMng
EXTRN	?AddSetDestPos@CUserMng@@QAEXPAVCMover@@ABUD3DXVECTOR3@@E@Z:NEAR ; CUserMng::AddSetDestPos
; Function compile flags: /Ogty
;	COMDAT ?MoveToDst@CAIAggro@@IAEXABUD3DXVECTOR3@@@Z
_TEXT	SEGMENT
$T271948 = -12						; size = 12
_vDst$ = 8						; size = 4
?MoveToDst@CAIAggro@@IAEXABUD3DXVECTOR3@@@Z PROC NEAR	; CAIAggro::MoveToDst, COMDAT
; _this$ = ecx

; 134  : {

  00000	83 ec 0c	 sub	 esp, 12			; 0000000cH
  00003	56		 push	 esi

; 135  : 	CMover* pMover = GetMover();

  00004	8b 71 30	 mov	 esi, DWORD PTR [ecx+48]

; 136  : 	if( pMover->GetDestPos() == vDst )

  00007	8d 86 60 02 00
	00		 lea	 eax, DWORD PTR [esi+608]
  0000d	8b 08		 mov	 ecx, DWORD PTR [eax]
  0000f	8b 50 04	 mov	 edx, DWORD PTR [eax+4]
  00012	8b 40 08	 mov	 eax, DWORD PTR [eax+8]
  00015	57		 push	 edi
  00016	8b 7c 24 18	 mov	 edi, DWORD PTR _vDst$[esp+16]
  0001a	d9 07		 fld	 DWORD PTR [edi]
  0001c	89 4c 24 08	 mov	 DWORD PTR $T271948[esp+20], ecx
  00020	d9 44 24 08	 fld	 DWORD PTR $T271948[esp+20]
  00024	89 44 24 10	 mov	 DWORD PTR $T271948[esp+28], eax
  00028	da e9		 fucompp
  0002a	89 54 24 0c	 mov	 DWORD PTR $T271948[esp+24], edx
  0002e	df e0		 fnstsw	 ax
  00030	f6 c4 44	 test	 ah, 68			; 00000044H
  00033	7a 20		 jp	 SHORT $L271960
  00035	d9 47 04	 fld	 DWORD PTR [edi+4]
  00038	d9 44 24 0c	 fld	 DWORD PTR $T271948[esp+24]
  0003c	da e9		 fucompp
  0003e	df e0		 fnstsw	 ax
  00040	f6 c4 44	 test	 ah, 68			; 00000044H
  00043	7a 10		 jp	 SHORT $L271960
  00045	d9 47 08	 fld	 DWORD PTR [edi+8]
  00048	d9 44 24 10	 fld	 DWORD PTR $T271948[esp+28]
  0004c	da e9		 fucompp
  0004e	df e0		 fnstsw	 ax
  00050	f6 c4 44	 test	 ah, 68			; 00000044H
  00053	7b 24		 jnp	 SHORT $L264560
$L271960:

; 137  : 		return;
; 138  : 
; 139  : 	pMover->SetDestPos( vDst );

  00055	6a 01		 push	 1
  00057	6a 01		 push	 1
  00059	57		 push	 edi
  0005a	8b ce		 mov	 ecx, esi
  0005c	e8 00 00 00 00	 call	 ?SetDestPos@CMover@@QAEXABUD3DXVECTOR3@@_NH@Z ; CMover::SetDestPos

; 140  : 	pMover->m_nCorr		= -1;
; 141  : 	g_UserMng.AddSetDestPos( pMover, vDst, 1 );

  00061	6a 01		 push	 1
  00063	57		 push	 edi
  00064	56		 push	 esi
  00065	b9 00 00 00 00	 mov	 ecx, OFFSET FLAT:?g_UserMng@@3VCUserMng@@A
  0006a	c7 86 78 02 00
	00 ff ff ff ff	 mov	 DWORD PTR [esi+632], -1
  00074	e8 00 00 00 00	 call	 ?AddSetDestPos@CUserMng@@QAEXPAVCMover@@ABUD3DXVECTOR3@@E@Z ; CUserMng::AddSetDestPos
$L264560:
  00079	5f		 pop	 edi
  0007a	5e		 pop	 esi

; 142  : }

  0007b	83 c4 0c	 add	 esp, 12			; 0000000cH
  0007e	c2 04 00	 ret	 4
?MoveToDst@CAIAggro@@IAEXABUD3DXVECTOR3@@@Z ENDP	; CAIAggro::MoveToDst
_TEXT	ENDS
PUBLIC	?IsInRange@CAIAggro@@IAEHAAUD3DXVECTOR3@@M@Z	; CAIAggro::IsInRange
; Function compile flags: /Ogty
;	COMDAT ?IsInRange@CAIAggro@@IAEHAAUD3DXVECTOR3@@M@Z
_TEXT	SEGMENT
_vDistant$ = 8						; size = 4
_fRange$ = 12						; size = 4
?IsInRange@CAIAggro@@IAEHAAUD3DXVECTOR3@@M@Z PROC NEAR	; CAIAggro::IsInRange, COMDAT
; _this$ = ecx

; 205  : 	vDistant.y	= 0.0f;

  00000	8b 44 24 04	 mov	 eax, DWORD PTR _vDistant$[esp-4]

; 206  : 	float fDistSq = D3DXVec3LengthSq( &vDistant );	

  00004	d9 40 08	 fld	 DWORD PTR [eax+8]
  00007	c7 40 04 00 00
	00 00		 mov	 DWORD PTR [eax+4], 0
  0000e	d9 00		 fld	 DWORD PTR [eax]
  00010	d9 c0		 fld	 ST(0)
  00012	d8 c9		 fmul	 ST(0), ST(1)
  00014	d9 c2		 fld	 ST(2)
  00016	d8 cb		 fmul	 ST(0), ST(3)

; 209  : 	return TRUE;

  00018	de c1		 faddp	 ST(1), ST(0)
  0001a	d9 44 24 08	 fld	 DWORD PTR _fRange$[esp-4]
  0001e	d8 4c 24 08	 fmul	 DWORD PTR _fRange$[esp-4]
  00022	de d9		 fcompp
  00024	df e0		 fnstsw	 ax
  00026	dd d8		 fstp	 ST(0)
  00028	f6 c4 05	 test	 ah, 5
  0002b	dd d8		 fstp	 ST(0)
  0002d	7a 05		 jp	 SHORT $L264602

; 207  : 	if( fDistSq > fRange * fRange )	
; 208  : 		return FALSE;

  0002f	33 c0		 xor	 eax, eax

; 210  : }

  00031	c2 08 00	 ret	 8
$L264602:

; 209  : 	return TRUE;

  00034	b8 01 00 00 00	 mov	 eax, 1

; 210  : }

  00039	c2 08 00	 ret	 8
?IsInRange@CAIAggro@@IAEHAAUD3DXVECTOR3@@M@Z ENDP	; CAIAggro::IsInRange
_TEXT	ENDS
PUBLIC	?CallHelper@CAIAggro@@IAEXPBUMoverProp@@@Z	; CAIAggro::CallHelper
PUBLIC	__real@3f800000
EXTRN	?OLD_MPU@@3HB:DWORD				; OLD_MPU
EXTRN	?GetParty@CPartyMng@@QAEPAVCParty@@K@Z:NEAR	; CPartyMng::GetParty
EXTRN	?PostAIMsg@CMover@@QAEXKKKK@Z:NEAR		; CMover::PostAIMsg
EXTRN	?g_PartyMng@@3VCPartyMng@@A:BYTE		; g_PartyMng
EXTRN	?GetMover@CProject@@QAEPAVCMover@@K@Z:NEAR	; CProject::GetMover
EXTRN	_rand:NEAR
EXTRN	__ftol2:NEAR
EXTRN	?GetLinkWidth@CLayeredLinkMap@@QAEHKHH@Z:NEAR	; CLayeredLinkMap::GetLinkWidth
EXTRN	?GetObj@CLayeredLinkMap@@QAEPAPAVCObj@@KKH@Z:NEAR ; CLayeredLinkMap::GetObj
EXTRN	?GetMaxLinkLevel@CLayeredLinkMap@@QAEHKH@Z:NEAR	; CLayeredLinkMap::GetMaxLinkLevel
;	COMDAT __real@3f800000
; File c:\documents and settings\test\mes documents\source\virtuos_v17\build\program\_common\ctrl.h
CONST	SEGMENT
__real@3f800000 DD 03f800000r			; 1
; Function compile flags: /Ogty
; File c:\documents and settings\test\mes documents\source\virtuos_v17\build\program\_aiinterface\aiaggro.cpp
CONST	ENDS
;	COMDAT ?CallHelper@CAIAggro@@IAEXPBUMoverProp@@@Z
_TEXT	SEGMENT
tv1354 = -1076						; size = 4
__nLinkZMax$265093 = -1076				; size = 4
__nZ$265034 = -1076					; size = 4
tv1393 = -1072						; size = 4
__j$265110 = -1072					; size = 4
__nX$265094 = -1072					; size = 4
__nMaxHeight$265027 = -1072				; size = 4
__nLinkZ$265084 = -1068					; size = 4
__nLinkZMax$265032 = -1068				; size = 4
__nX$265033 = -1068					; size = 4
tv1565 = -1064						; size = 4
__nZ$265095 = -1064					; size = 4
__j$265049 = -1064					; size = 4
__nLinkXMax$265092 = -1060				; size = 4
__nLinkXMin$265029 = -1060				; size = 4
__nLinkX$265082 = -1056					; size = 4
__i$265037 = -1056					; size = 4
__i$265098 = -1052					; size = 4
__nLinkZ$265023 = -1052					; size = 4
__nLinkXMin$265090 = -1048				; size = 4
__nLinkXMax$265031 = -1048				; size = 4
_nCountPlayer$ = -1044					; size = 4
__k$265053 = -1040					; size = 4
__pObjs$265041 = -1040					; size = 4
tv824 = -1036						; size = 4
tv830 = -1032						; size = 4
_pParty$ = -1028					; size = 4
_this$ = -1024						; size = 4
__nLinkX$265021 = -1020					; size = 4
__pObjs$265102 = -1016					; size = 4
_bParty$ = -1016					; size = 4
tv1568 = -1012						; size = 4
tv1396 = -1012						; size = 4
_vPos$ = -1008						; size = 12
_nRange$ = -996						; size = 4
_pMover$ = -992						; size = 4
_anCountMonster$ = -988					; size = 20
___limit$265057 = -968					; size = 4
$T272162 = -964						; size = 4
_apPlayer$ = -960					; size = 160
_apMonster$ = -800					; size = 800
_pMoverProp$ = 8					; size = 4
?CallHelper@CAIAggro@@IAEXPBUMoverProp@@@Z PROC NEAR	; CAIAggro::CallHelper, COMDAT
; _this$ = ecx

; 918  : {

  00000	81 ec 34 04 00
	00		 sub	 esp, 1076		; 00000434H
  00006	53		 push	 ebx
  00007	8b d9		 mov	 ebx, ecx
  00009	55		 push	 ebp

; 919  : 	CMover* pMover = GetMover();

  0000a	8b 6b 30	 mov	 ebp, DWORD PTR [ebx+48]

; 920  : 	D3DXVECTOR3 vPos = pMover->GetPos();

  0000d	8d 85 60 01 00
	00		 lea	 eax, DWORD PTR [ebp+352]
  00013	8b 08		 mov	 ecx, DWORD PTR [eax]
  00015	8b 50 04	 mov	 edx, DWORD PTR [eax+4]
  00018	8b 40 08	 mov	 eax, DWORD PTR [eax+8]
  0001b	89 4c 24 4c	 mov	 DWORD PTR _vPos$[esp+1084], ecx

; 921  : 	int anCountMonster[ 5 ];
; 922  : 	int nCountPlayer = 0;
; 923  : 
; 924  : 	ZeroMemory( anCountMonster, sizeof( anCountMonster ) );

  0001f	33 c9		 xor	 ecx, ecx
  00021	89 4c 24 60	 mov	 DWORD PTR _anCountMonster$[esp+1084], ecx
  00025	89 4c 24 64	 mov	 DWORD PTR _anCountMonster$[esp+1088], ecx
  00029	89 4c 24 68	 mov	 DWORD PTR _anCountMonster$[esp+1092], ecx
  0002d	89 4c 24 6c	 mov	 DWORD PTR _anCountMonster$[esp+1096], ecx
  00031	56		 push	 esi
  00032	89 4c 24 74	 mov	 DWORD PTR _anCountMonster$[esp+1104], ecx

; 925  : 
; 926  : 	CMover* pTarget = NULL;
; 927  : 	CParty* pParty = NULL;
; 928  : 	BOOL bParty = FALSE;
; 929  : 
; 930  : 	CObj* pObj;
; 931  : 
; 932  : 	CMover* apMonster[ MAX_ARRAY ][ 5 ];
; 933  : 	CMover* apPlayer[ MAX_ARRAY ];
; 934  : 
; 935  : 	///////////////////////////////////////////////////////
; 936  : 
; 937  : 	int nRange = 20;
; 938  : 	switch( pMoverProp->m_nHelpRangeMul )

  00036	8b 8c 24 44 04
	00 00		 mov	 ecx, DWORD PTR _pMoverProp$[esp+1084]
  0003d	33 f6		 xor	 esi, esi
  0003f	89 44 24 58	 mov	 DWORD PTR _vPos$[esp+1096], eax
  00043	8b 81 2c 02 00
	00		 mov	 eax, DWORD PTR [ecx+556]
  00049	57		 push	 edi
  0004a	33 ff		 xor	 edi, edi
  0004c	3b c6		 cmp	 eax, esi
  0004e	89 5c 24 44	 mov	 DWORD PTR _this$[esp+1092], ebx
  00052	89 6c 24 64	 mov	 DWORD PTR _pMover$[esp+1092], ebp
  00056	89 54 24 58	 mov	 DWORD PTR _vPos$[esp+1096], edx
  0005a	89 74 24 30	 mov	 DWORD PTR _nCountPlayer$[esp+1092], esi
  0005e	89 74 24 40	 mov	 DWORD PTR _pParty$[esp+1092], esi
  00062	89 7c 24 4c	 mov	 DWORD PTR _bParty$[esp+1092], edi
  00066	74 10		 je	 SHORT $L265019

; 941  : 	default: nRange = pMoverProp->m_nAttackFirstRange * pMoverProp->m_nHelpRangeMul;	break;	//  .

  00068	0f bf 89 86 02
	00 00		 movsx	 ecx, WORD PTR [ecx+646]
  0006f	0f af c8	 imul	 ecx, eax
  00072	89 4c 24 60	 mov	 DWORD PTR _nRange$[esp+1092], ecx
  00076	eb 10		 jmp	 SHORT $L265016
$L265019:

; 939  : 	{
; 940  : 	case 0: nRange = pMoverProp->m_nAttackFirstRange / 2;	break;

  00078	0f bf 81 86 02
	00 00		 movsx	 eax, WORD PTR [ecx+646]
  0007f	99		 cdq
  00080	2b c2		 sub	 eax, edx
  00082	d1 f8		 sar	 eax, 1
  00084	89 44 24 60	 mov	 DWORD PTR _nRange$[esp+1092], eax
$L265016:

; 942  : 	}
; 943  : 
; 944  : 	FOR_LINKMAP( pMover->GetWorld(), vPos, pObj, nRange / MPU, CObj::linkDynamic, pMover->GetLayer() )

  00088	8b 95 6c 01 00
	00		 mov	 edx, DWORD PTR [ebp+364]
  0008e	db 42 14	 fild	 DWORD PTR [edx+20]
  00091	d8 3d 00 00 00
	00		 fdivr	 DWORD PTR __real@3f800000
  00097	d9 44 24 54	 fld	 DWORD PTR _vPos$[esp+1092]
  0009b	d8 c9		 fmul	 ST(0), ST(1)
  0009d	e8 00 00 00 00	 call	 __ftol2
  000a2	d8 4c 24 5c	 fmul	 DWORD PTR _vPos$[esp+1100]
  000a6	89 44 24 48	 mov	 DWORD PTR __nLinkX$265021[esp+1092], eax
  000aa	e8 00 00 00 00	 call	 __ftol2
  000af	8b 8d 6c 01 00
	00		 mov	 ecx, DWORD PTR [ebp+364]
  000b5	89 44 24 28	 mov	 DWORD PTR __nLinkZ$265023[esp+1092], eax
  000b9	8b 85 b8 01 00
	00		 mov	 eax, DWORD PTR [ebp+440]
  000bf	50		 push	 eax
  000c0	6a 01		 push	 1
  000c2	83 c1 24	 add	 ecx, 36			; 00000024H
  000c5	89 74 24 2c	 mov	 DWORD PTR __i$265037[esp+1100], esi
  000c9	e8 00 00 00 00	 call	 ?GetMaxLinkLevel@CLayeredLinkMap@@QAEHKH@Z ; CLayeredLinkMap::GetMaxLinkLevel
  000ce	85 c0		 test	 eax, eax
  000d0	0f 8e d1 02 00
	00		 jle	 $NEXT$265073
  000d6	d9 44 24 54	 fld	 DWORD PTR _vPos$[esp+1092]
  000da	e8 00 00 00 00	 call	 __ftol2
  000df	d9 44 24 5c	 fld	 DWORD PTR _vPos$[esp+1100]
  000e3	89 44 24 38	 mov	 DWORD PTR tv824[esp+1092], eax
  000e7	e8 00 00 00 00	 call	 __ftol2
  000ec	89 44 24 3c	 mov	 DWORD PTR tv830[esp+1092], eax
  000f0	eb 0e		 jmp	 SHORT $L265038
$L272174:
  000f2	8b 74 24 24	 mov	 esi, DWORD PTR __i$265037[esp+1092]
  000f6	eb 08 8d a4 24
	00 00 00 00 90	 npad	 10
$L265038:
  00100	8b 85 b8 01 00
	00		 mov	 eax, DWORD PTR [ebp+440]
  00106	8b 8d 6c 01 00
	00		 mov	 ecx, DWORD PTR [ebp+364]
  0010c	50		 push	 eax
  0010d	56		 push	 esi
  0010e	6a 01		 push	 1
  00110	83 c1 24	 add	 ecx, 36			; 00000024H
  00113	e8 00 00 00 00	 call	 ?GetLinkWidth@CLayeredLinkMap@@QAEHKHH@Z ; CLayeredLinkMap::GetLinkWidth
  00118	8b 8d 6c 01 00
	00		 mov	 ecx, DWORD PTR [ebp+364]
  0011e	8b d8		 mov	 ebx, eax
  00120	8b 85 b8 01 00
	00		 mov	 eax, DWORD PTR [ebp+440]
  00126	50		 push	 eax
  00127	56		 push	 esi
  00128	6a 01		 push	 1
  0012a	83 c1 24	 add	 ecx, 36			; 00000024H
  0012d	e8 00 00 00 00	 call	 ?GetObj@CLayeredLinkMap@@QAEPAPAVCObj@@KKH@Z ; CLayeredLinkMap::GetObj
  00132	8b b5 6c 01 00
	00		 mov	 esi, DWORD PTR [ebp+364]
  00138	89 44 24 34	 mov	 DWORD PTR __pObjs$265041[esp+1092], eax
  0013c	8b 46 04	 mov	 eax, DWORD PTR [esi+4]
  0013f	8b f8		 mov	 edi, eax
  00141	c1 e0 07	 shl	 eax, 7
  00144	0f af fb	 imul	 edi, ebx
  00147	99		 cdq
  00148	f7 ff		 idiv	 edi
  0014a	8b 4e 08	 mov	 ecx, DWORD PTR [esi+8]
  0014d	0f af cb	 imul	 ecx, ebx
  00150	8b 5e 14	 mov	 ebx, DWORD PTR [esi+20]
  00153	89 4c 24 14	 mov	 DWORD PTR __nMaxHeight$265027[esp+1092], ecx
  00157	8b c8		 mov	 ecx, eax
  00159	8b c3		 mov	 eax, ebx
  0015b	0f af c1	 imul	 eax, ecx
  0015e	99		 cdq
  0015f	2b c2		 sub	 eax, edx
  00161	8b f0		 mov	 esi, eax
  00163	8b 44 24 48	 mov	 eax, DWORD PTR __nLinkX$265021[esp+1092]
  00167	99		 cdq
  00168	f7 f9		 idiv	 ecx
  0016a	8b 54 24 38	 mov	 edx, DWORD PTR tv824[esp+1092]
  0016e	d1 fe		 sar	 esi, 1
  00170	0f af c3	 imul	 eax, ebx
  00173	0f af c1	 imul	 eax, ecx
  00176	2b d0		 sub	 edx, eax
  00178	33 c0		 xor	 eax, eax
  0017a	3b d6		 cmp	 edx, esi
  0017c	0f 9f c0	 setg	 al
  0017f	89 44 24 18	 mov	 DWORD PTR __nX$265033[esp+1092], eax
  00183	8b 44 24 28	 mov	 eax, DWORD PTR __nLinkZ$265023[esp+1092]
  00187	99		 cdq
  00188	f7 f9		 idiv	 ecx
  0018a	8b 54 24 3c	 mov	 edx, DWORD PTR tv830[esp+1092]
  0018e	0f af c3	 imul	 eax, ebx
  00191	0f af c1	 imul	 eax, ecx
  00194	2b d0		 sub	 edx, eax
  00196	33 c0		 xor	 eax, eax
  00198	3b d6		 cmp	 edx, esi
  0019a	0f 9f c0	 setg	 al
  0019d	89 44 24 10	 mov	 DWORD PTR __nZ$265034[esp+1092], eax
  001a1	8b 44 24 60	 mov	 eax, DWORD PTR _nRange$[esp+1092]
  001a5	99		 cdq
  001a6	f7 3d 00 00 00
	00		 idiv	 DWORD PTR ?OLD_MPU@@3HB	; OLD_MPU
  001ac	8b 54 24 48	 mov	 edx, DWORD PTR __nLinkX$265021[esp+1092]
  001b0	8b d8		 mov	 ebx, eax
  001b2	8b f0		 mov	 esi, eax
  001b4	f7 de		 neg	 esi
  001b6	8d 04 16	 lea	 eax, DWORD PTR [esi+edx]
  001b9	99		 cdq
  001ba	f7 f9		 idiv	 ecx
  001bc	8b 54 24 18	 mov	 edx, DWORD PTR __nX$265033[esp+1092]
  001c0	8d 44 10 ff	 lea	 eax, DWORD PTR [eax+edx-1]
  001c4	85 c0		 test	 eax, eax
  001c6	89 44 24 20	 mov	 DWORD PTR __nLinkXMin$265029[esp+1092], eax
  001ca	7d 08		 jge	 SHORT $L265045
  001cc	c7 44 24 20 00
	00 00 00	 mov	 DWORD PTR __nLinkXMin$265029[esp+1092], 0
$L265045:
  001d4	8b 44 24 28	 mov	 eax, DWORD PTR __nLinkZ$265023[esp+1092]
  001d8	03 c6		 add	 eax, esi
  001da	99		 cdq
  001db	f7 f9		 idiv	 ecx
  001dd	8b 54 24 10	 mov	 edx, DWORD PTR __nZ$265034[esp+1092]
  001e1	8d 74 10 ff	 lea	 esi, DWORD PTR [eax+edx-1]
  001e5	85 f6		 test	 esi, esi
  001e7	7d 02		 jge	 SHORT $L265046
  001e9	33 f6		 xor	 esi, esi
$L265046:
  001eb	8b 44 24 48	 mov	 eax, DWORD PTR __nLinkX$265021[esp+1092]
  001ef	03 c3		 add	 eax, ebx
  001f1	99		 cdq
  001f2	f7 f9		 idiv	 ecx
  001f4	03 44 24 18	 add	 eax, DWORD PTR __nX$265033[esp+1092]
  001f8	3b c7		 cmp	 eax, edi
  001fa	89 44 24 2c	 mov	 DWORD PTR __nLinkXMax$265031[esp+1092], eax
  001fe	7c 07		 jl	 SHORT $L265047
  00200	8d 57 ff	 lea	 edx, DWORD PTR [edi-1]
  00203	89 54 24 2c	 mov	 DWORD PTR __nLinkXMax$265031[esp+1092], edx
$L265047:
  00207	8b 44 24 28	 mov	 eax, DWORD PTR __nLinkZ$265023[esp+1092]
  0020b	03 c3		 add	 eax, ebx
  0020d	99		 cdq
  0020e	f7 f9		 idiv	 ecx
  00210	8b 5c 24 10	 mov	 ebx, DWORD PTR __nZ$265034[esp+1092]
  00214	8b 4c 24 14	 mov	 ecx, DWORD PTR __nMaxHeight$265027[esp+1092]
  00218	03 c3		 add	 eax, ebx
  0021a	3b c1		 cmp	 eax, ecx
  0021c	89 44 24 18	 mov	 DWORD PTR __nLinkZMax$265032[esp+1092], eax
  00220	7c 05		 jl	 SHORT $L265048
  00222	49		 dec	 ecx
  00223	89 4c 24 18	 mov	 DWORD PTR __nLinkZMax$265032[esp+1092], ecx
$L265048:
  00227	3b 74 24 18	 cmp	 esi, DWORD PTR __nLinkZMax$265032[esp+1092]
  0022b	89 74 24 1c	 mov	 DWORD PTR __j$265049[esp+1092], esi
  0022f	0f 8f 42 01 00
	00		 jg	 $L265039
  00235	8b 44 24 20	 mov	 eax, DWORD PTR __nLinkXMin$265029[esp+1092]
  00239	0f af f7	 imul	 esi, edi
  0023c	8b 54 24 34	 mov	 edx, DWORD PTR __pObjs$265041[esp+1092]
  00240	03 f0		 add	 esi, eax
  00242	8d 0c bd 00 00
	00 00		 lea	 ecx, DWORD PTR [edi*4]
  00249	8d 34 b2	 lea	 esi, DWORD PTR [edx+esi*4]
  0024c	89 4c 24 50	 mov	 DWORD PTR tv1396[esp+1092], ecx
  00250	89 74 24 14	 mov	 DWORD PTR tv1393[esp+1092], esi
  00254	eb 0a 8d a4 24
	00 00 00 00 8d
	49 00		 npad	 12
$L265050:
  00260	3b 44 24 2c	 cmp	 eax, DWORD PTR __nLinkXMax$265031[esp+1092]
  00264	89 44 24 34	 mov	 DWORD PTR __k$265053[esp+1092], eax
  00268	0f 8f e6 00 00
	00		 jg	 $L265051
  0026e	89 74 24 10	 mov	 DWORD PTR tv1354[esp+1092], esi
$L265054:
  00272	8b 44 24 10	 mov	 eax, DWORD PTR tv1354[esp+1092]
  00276	8b 38		 mov	 edi, DWORD PTR [eax]
  00278	85 ff		 test	 edi, edi
  0027a	be e8 03 00 00	 mov	 esi, 1000		; 000003e8H
  0027f	0f 84 ab 00 00
	00		 je	 $L265055
$L265059:
  00285	8b ce		 mov	 ecx, esi
  00287	4e		 dec	 esi
  00288	85 c9		 test	 ecx, ecx
  0028a	89 74 24 7c	 mov	 DWORD PTR ___limit$265057[esp+1092], esi
  0028e	0f 84 9c 00 00
	00		 je	 $L265055

; 945  : 	{
; 946  : 		if( pObj != pMover && pObj->GetType() == OT_MOVER )

  00294	3b fd		 cmp	 edi, ebp
  00296	0f 84 86 00 00
	00		 je	 $L265065
  0029c	83 bf 70 01 00
	00 05		 cmp	 DWORD PTR [edi+368], 5
  002a3	75 7d		 jne	 SHORT $L265065

; 985  : 		}
; 986  : 	}
; 987  : NEXT2:
; 988  : 	for( i = 0; i < pMoverProp->m_nCallHelperMax; i++ )

  002a5	8b 8c 24 48 04
	00 00		 mov	 ecx, DWORD PTR _pMoverProp$[esp+1088]
  002ac	0f bf 81 b2 01
	00 00		 movsx	 eax, WORD PTR [ecx+434]
  002b3	33 d2		 xor	 edx, edx
  002b5	85 c0		 test	 eax, eax
  002b7	89 84 24 80 00
	00 00		 mov	 DWORD PTR $T272162[esp+1092], eax
  002be	7e 62		 jle	 SHORT $L265065
  002c0	8a 81 f7 01 00
	00		 mov	 al, BYTE PTR [ecx+503]
  002c6	8d 99 c0 01 00
	00		 lea	 ebx, DWORD PTR [ecx+448]
  002cc	8d 64 24 00	 npad	 4
$L265063:
  002d0	3c 01		 cmp	 al, 1
  002d2	0f bf 33	 movsx	 esi, WORD PTR [ebx]
  002d5	74 12		 je	 SHORT $L265069

; 949  : 			{
; 950  : 				int nCallHelperIdx = pMoverProp->m_nCallHelperIdx[ i ];
; 951  : 				int nCallHelperNum = pMoverProp->m_nCallHelperNum[ i ];
; 952  : 
; 953  : 				if( (pMoverProp->m_bHelpWho == 1 || (pMoverProp->m_bHelpWho == 2 && pObj->GetIndex() == pMover->GetIndex())) &&
; 954  : 					( anCountMonster[ i ] < nCallHelperNum || nCallHelperNum == 0 )	)	

  002d7	3c 02		 cmp	 al, 2
  002d9	75 34		 jne	 SHORT $L265064
  002db	8b 8f 74 01 00
	00		 mov	 ecx, DWORD PTR [edi+372]
  002e1	3b 8d 74 01 00
	00		 cmp	 ecx, DWORD PTR [ebp+372]
  002e7	75 26		 jne	 SHORT $L265064
$L265069:
  002e9	8b 4c 94 68	 mov	 ecx, DWORD PTR _anCountMonster$[esp+edx*4+1092]
  002ed	3b ce		 cmp	 ecx, esi
  002ef	7c 04		 jl	 SHORT $L265070
  002f1	85 f6		 test	 esi, esi
  002f3	75 1a		 jne	 SHORT $L265064
$L265070:

; 955  : 				{
; 956  : 					apMonster[ anCountMonster[ i ] ][ i ] = (CMover*)pObj;

  002f5	8d 34 8a	 lea	 esi, DWORD PTR [edx+ecx*4]
  002f8	03 f1		 add	 esi, ecx

; 957  : 					anCountMonster[ i ]++;

  002fa	41		 inc	 ecx

; 958  : 					if( anCountMonster[ i ] >= MAX_ARRAY ) 

  002fb	83 f9 28	 cmp	 ecx, 40			; 00000028H
  002fe	89 bc b4 24 01
	00 00		 mov	 DWORD PTR _apMonster$[esp+esi*4+1092], edi
  00305	89 4c 94 68	 mov	 DWORD PTR _anCountMonster$[esp+edx*4+1092], ecx
  00309	0f 8d 90 00 00
	00		 jge	 $L272175
$L265064:

; 947  : 		{
; 948  : 			for( int i = 0; i < pMoverProp->m_nCallHelperMax; i++ )

  0030f	8b 8c 24 80 00
	00 00		 mov	 ecx, DWORD PTR $T272162[esp+1092]
  00316	42		 inc	 edx
  00317	83 c3 02	 add	 ebx, 2
  0031a	3b d1		 cmp	 edx, ecx
  0031c	7c b2		 jl	 SHORT $L265063
  0031e	8b 74 24 7c	 mov	 esi, DWORD PTR ___limit$265057[esp+1092]
$L265065:

; 959  : 						goto NEXT;
; 960  : 				}
; 961  : 			}
; 962  : 		}
; 963  : 	}
; 964  : 	END_LINKMAP

  00322	8b bf 80 01 00
	00		 mov	 edi, DWORD PTR [edi+384]
  00328	85 ff		 test	 edi, edi
  0032a	0f 85 55 ff ff
	ff		 jne	 $L265059
$L265055:

; 942  : 	}
; 943  : 
; 944  : 	FOR_LINKMAP( pMover->GetWorld(), vPos, pObj, nRange / MPU, CObj::linkDynamic, pMover->GetLayer() )

  00330	8b 44 24 34	 mov	 eax, DWORD PTR __k$265053[esp+1092]
  00334	8b 54 24 10	 mov	 edx, DWORD PTR tv1354[esp+1092]
  00338	8b 4c 24 2c	 mov	 ecx, DWORD PTR __nLinkXMax$265031[esp+1092]
  0033c	40		 inc	 eax
  0033d	83 c2 04	 add	 edx, 4
  00340	3b c1		 cmp	 eax, ecx
  00342	89 44 24 34	 mov	 DWORD PTR __k$265053[esp+1092], eax
  00346	89 54 24 10	 mov	 DWORD PTR tv1354[esp+1092], edx
  0034a	0f 8e 22 ff ff
	ff		 jle	 $L265054
  00350	8b 44 24 20	 mov	 eax, DWORD PTR __nLinkXMin$265029[esp+1092]
$L265051:
  00354	8b 4c 24 1c	 mov	 ecx, DWORD PTR __j$265049[esp+1092]
  00358	8b 74 24 14	 mov	 esi, DWORD PTR tv1393[esp+1092]
  0035c	8b 7c 24 50	 mov	 edi, DWORD PTR tv1396[esp+1092]
  00360	8b 54 24 18	 mov	 edx, DWORD PTR __nLinkZMax$265032[esp+1092]
  00364	41		 inc	 ecx
  00365	03 f7		 add	 esi, edi
  00367	3b ca		 cmp	 ecx, edx
  00369	89 4c 24 1c	 mov	 DWORD PTR __j$265049[esp+1092], ecx
  0036d	89 74 24 14	 mov	 DWORD PTR tv1393[esp+1092], esi
  00371	0f 8e e9 fe ff
	ff		 jle	 $L265050
$L265039:
  00377	8b 85 b8 01 00
	00		 mov	 eax, DWORD PTR [ebp+440]
  0037d	8b 74 24 24	 mov	 esi, DWORD PTR __i$265037[esp+1092]
  00381	8b 8d 6c 01 00
	00		 mov	 ecx, DWORD PTR [ebp+364]
  00387	50		 push	 eax
  00388	46		 inc	 esi
  00389	6a 01		 push	 1
  0038b	83 c1 24	 add	 ecx, 36			; 00000024H
  0038e	89 74 24 2c	 mov	 DWORD PTR __i$265037[esp+1100], esi
  00392	e8 00 00 00 00	 call	 ?GetMaxLinkLevel@CLayeredLinkMap@@QAEHKH@Z ; CLayeredLinkMap::GetMaxLinkLevel
  00397	3b f0		 cmp	 esi, eax
  00399	0f 8c 53 fd ff
	ff		 jl	 $L272174
$L272175:
  0039f	8b 5c 24 44	 mov	 ebx, DWORD PTR _this$[esp+1092]
  003a3	8b 7c 24 4c	 mov	 edi, DWORD PTR _bParty$[esp+1092]
$NEXT$265073:

; 965  : NEXT:
; 966  : 	pTarget = prj.GetMover( m_dwIdTarget );

  003a7	8b 93 e0 00 00
	00		 mov	 edx, DWORD PTR [ebx+224]
  003ad	52		 push	 edx
  003ae	b9 00 00 00 00	 mov	 ecx, OFFSET FLAT:?prj@@3VCProject@@A
  003b3	e8 00 00 00 00	 call	 ?GetMover@CProject@@QAEPAVCMover@@K@Z ; CProject::GetMover

; 985  : 		}
; 986  : 	}
; 987  : NEXT2:
; 988  : 	for( i = 0; i < pMoverProp->m_nCallHelperMax; i++ )

  003b8	8b 8c 24 48 04
	00 00		 mov	 ecx, DWORD PTR _pMoverProp$[esp+1088]
  003bf	0f bf 91 b2 01
	00 00		 movsx	 edx, WORD PTR [ecx+434]
  003c6	85 d2		 test	 edx, edx
  003c8	8b f0		 mov	 esi, eax
  003ca	0f 8e e0 02 00
	00		 jle	 $NEXT2$265127

; 965  : NEXT:
; 966  : 	pTarget = prj.GetMover( m_dwIdTarget );

  003d0	81 c1 ca 01 00
	00		 add	 ecx, 458		; 000001caH
$L265076:

; 967  : 	for( int i = 0; i < pMoverProp->m_nCallHelperMax; i++ )
; 968  : 		bParty |= pMoverProp->m_bCallHelperParty[ i ] ? TRUE : FALSE;

  003d6	33 c0		 xor	 eax, eax
  003d8	66 39 01	 cmp	 WORD PTR [ecx], ax
  003db	0f 95 c0	 setne	 al
  003de	83 c1 02	 add	 ecx, 2
  003e1	0b f8		 or	 edi, eax
  003e3	4a		 dec	 edx
  003e4	75 f0		 jne	 SHORT $L265076

; 969  : 
; 970  : 	if( bParty && IsValidObj( (CObj*)pTarget ) )

  003e6	85 ff		 test	 edi, edi
  003e8	0f 84 c2 02 00
	00		 je	 $NEXT2$265127
  003ee	85 f6		 test	 esi, esi
  003f0	0f 84 ba 02 00
	00		 je	 $NEXT2$265127
  003f6	f6 46 04 01	 test	 BYTE PTR [esi+4], 1
  003fa	0f 85 b0 02 00
	00		 jne	 $NEXT2$265127

; 971  : 	{
; 972  : 		pParty = g_PartyMng.GetParty( pTarget->m_idparty );

  00400	8b 8e 18 07 00
	00		 mov	 ecx, DWORD PTR [esi+1816]
  00406	51		 push	 ecx
  00407	b9 00 00 00 00	 mov	 ecx, OFFSET FLAT:?g_PartyMng@@3VCPartyMng@@A
  0040c	e8 00 00 00 00	 call	 ?GetParty@CPartyMng@@QAEPAVCParty@@K@Z ; CPartyMng::GetParty

; 973  : 		if( pParty )

  00411	85 c0		 test	 eax, eax
  00413	89 44 24 40	 mov	 DWORD PTR _pParty$[esp+1092], eax
  00417	0f 84 93 02 00
	00		 je	 $NEXT2$265127

; 974  : 		{
; 975  : 			FOR_LINKMAP( pMover->GetWorld(), vPos, pObj, 20 / MPU, CObj::linkPlayer, pMover->GetLayer() )

  0041d	8b 95 6c 01 00
	00		 mov	 edx, DWORD PTR [ebp+364]
  00423	db 42 14	 fild	 DWORD PTR [edx+20]
  00426	d8 3d 00 00 00
	00		 fdivr	 DWORD PTR __real@3f800000
  0042c	d9 44 24 54	 fld	 DWORD PTR _vPos$[esp+1092]
  00430	d8 c9		 fmul	 ST(0), ST(1)
  00432	e8 00 00 00 00	 call	 __ftol2
  00437	d8 4c 24 5c	 fmul	 DWORD PTR _vPos$[esp+1100]
  0043b	89 44 24 24	 mov	 DWORD PTR __nLinkX$265082[esp+1092], eax
  0043f	e8 00 00 00 00	 call	 __ftol2
  00444	8b 8d 6c 01 00
	00		 mov	 ecx, DWORD PTR [ebp+364]
  0044a	89 44 24 18	 mov	 DWORD PTR __nLinkZ$265084[esp+1092], eax
  0044e	8b 85 b8 01 00
	00		 mov	 eax, DWORD PTR [ebp+440]
  00454	50		 push	 eax
  00455	33 f6		 xor	 esi, esi
  00457	6a 02		 push	 2
  00459	83 c1 24	 add	 ecx, 36			; 00000024H
  0045c	89 74 24 30	 mov	 DWORD PTR __i$265098[esp+1100], esi
  00460	e8 00 00 00 00	 call	 ?GetMaxLinkLevel@CLayeredLinkMap@@QAEHKH@Z ; CLayeredLinkMap::GetMaxLinkLevel
  00465	85 c0		 test	 eax, eax
  00467	0f 8e 43 02 00
	00		 jle	 $NEXT2$265127
  0046d	d9 44 24 54	 fld	 DWORD PTR _vPos$[esp+1092]
  00471	e8 00 00 00 00	 call	 __ftol2
  00476	d9 44 24 5c	 fld	 DWORD PTR _vPos$[esp+1100]
  0047a	89 44 24 38	 mov	 DWORD PTR tv824[esp+1092], eax
  0047e	e8 00 00 00 00	 call	 __ftol2
  00483	89 44 24 3c	 mov	 DWORD PTR tv830[esp+1092], eax
  00487	eb 08		 jmp	 SHORT $L265099
$L272168:
  00489	8b 6c 24 64	 mov	 ebp, DWORD PTR _pMover$[esp+1092]
  0048d	8b 74 24 28	 mov	 esi, DWORD PTR __i$265098[esp+1092]
$L265099:
  00491	8b 85 b8 01 00
	00		 mov	 eax, DWORD PTR [ebp+440]
  00497	8b 8d 6c 01 00
	00		 mov	 ecx, DWORD PTR [ebp+364]
  0049d	50		 push	 eax
  0049e	56		 push	 esi
  0049f	6a 02		 push	 2
  004a1	83 c1 24	 add	 ecx, 36			; 00000024H
  004a4	e8 00 00 00 00	 call	 ?GetLinkWidth@CLayeredLinkMap@@QAEHKHH@Z ; CLayeredLinkMap::GetLinkWidth
  004a9	8b 8d 6c 01 00
	00		 mov	 ecx, DWORD PTR [ebp+364]
  004af	8b d8		 mov	 ebx, eax
  004b1	8b 85 b8 01 00
	00		 mov	 eax, DWORD PTR [ebp+440]
  004b7	50		 push	 eax
  004b8	56		 push	 esi
  004b9	6a 02		 push	 2
  004bb	83 c1 24	 add	 ecx, 36			; 00000024H
  004be	e8 00 00 00 00	 call	 ?GetObj@CLayeredLinkMap@@QAEPAPAVCObj@@KKH@Z ; CLayeredLinkMap::GetObj
  004c3	8b b5 6c 01 00
	00		 mov	 esi, DWORD PTR [ebp+364]
  004c9	89 44 24 4c	 mov	 DWORD PTR __pObjs$265102[esp+1092], eax
  004cd	8b 46 04	 mov	 eax, DWORD PTR [esi+4]
  004d0	8b f8		 mov	 edi, eax
  004d2	c1 e0 07	 shl	 eax, 7
  004d5	0f af fb	 imul	 edi, ebx
  004d8	99		 cdq
  004d9	f7 ff		 idiv	 edi
  004db	8b 6e 08	 mov	 ebp, DWORD PTR [esi+8]
  004de	0f af eb	 imul	 ebp, ebx
  004e1	8b 5e 14	 mov	 ebx, DWORD PTR [esi+20]
  004e4	8b c8		 mov	 ecx, eax
  004e6	8b c3		 mov	 eax, ebx
  004e8	0f af c1	 imul	 eax, ecx
  004eb	99		 cdq
  004ec	2b c2		 sub	 eax, edx
  004ee	8b f0		 mov	 esi, eax
  004f0	8b 44 24 24	 mov	 eax, DWORD PTR __nLinkX$265082[esp+1092]
  004f4	99		 cdq
  004f5	f7 f9		 idiv	 ecx
  004f7	8b 54 24 38	 mov	 edx, DWORD PTR tv824[esp+1092]
  004fb	d1 fe		 sar	 esi, 1
  004fd	0f af c3	 imul	 eax, ebx
  00500	0f af c1	 imul	 eax, ecx
  00503	2b d0		 sub	 edx, eax
  00505	33 c0		 xor	 eax, eax
  00507	3b d6		 cmp	 edx, esi
  00509	0f 9f c0	 setg	 al
  0050c	89 44 24 14	 mov	 DWORD PTR __nX$265094[esp+1092], eax
  00510	8b 44 24 18	 mov	 eax, DWORD PTR __nLinkZ$265084[esp+1092]
  00514	99		 cdq
  00515	f7 f9		 idiv	 ecx
  00517	8b 54 24 3c	 mov	 edx, DWORD PTR tv830[esp+1092]
  0051b	0f af c3	 imul	 eax, ebx
  0051e	0f af c1	 imul	 eax, ecx
  00521	2b d0		 sub	 edx, eax
  00523	33 c0		 xor	 eax, eax
  00525	3b d6		 cmp	 edx, esi
  00527	0f 9f c0	 setg	 al
  0052a	89 44 24 1c	 mov	 DWORD PTR __nZ$265095[esp+1092], eax
  0052e	b8 14 00 00 00	 mov	 eax, 20			; 00000014H
  00533	99		 cdq
  00534	f7 3d 00 00 00
	00		 idiv	 DWORD PTR ?OLD_MPU@@3HB	; OLD_MPU
  0053a	8b 54 24 24	 mov	 edx, DWORD PTR __nLinkX$265082[esp+1092]
  0053e	8b d8		 mov	 ebx, eax
  00540	8b f0		 mov	 esi, eax
  00542	f7 de		 neg	 esi
  00544	8d 04 16	 lea	 eax, DWORD PTR [esi+edx]
  00547	99		 cdq
  00548	f7 f9		 idiv	 ecx
  0054a	8b 54 24 14	 mov	 edx, DWORD PTR __nX$265094[esp+1092]
  0054e	8d 44 10 ff	 lea	 eax, DWORD PTR [eax+edx-1]
  00552	85 c0		 test	 eax, eax
  00554	89 44 24 2c	 mov	 DWORD PTR __nLinkXMin$265090[esp+1092], eax
  00558	7d 08		 jge	 SHORT $L265106
  0055a	c7 44 24 2c 00
	00 00 00	 mov	 DWORD PTR __nLinkXMin$265090[esp+1092], 0
$L265106:
  00562	8b 44 24 18	 mov	 eax, DWORD PTR __nLinkZ$265084[esp+1092]
  00566	03 c6		 add	 eax, esi
  00568	99		 cdq
  00569	f7 f9		 idiv	 ecx
  0056b	8b 54 24 1c	 mov	 edx, DWORD PTR __nZ$265095[esp+1092]
  0056f	8d 74 10 ff	 lea	 esi, DWORD PTR [eax+edx-1]
  00573	85 f6		 test	 esi, esi
  00575	7d 02		 jge	 SHORT $L265107
  00577	33 f6		 xor	 esi, esi
$L265107:
  00579	8b 44 24 24	 mov	 eax, DWORD PTR __nLinkX$265082[esp+1092]
  0057d	03 c3		 add	 eax, ebx
  0057f	99		 cdq
  00580	f7 f9		 idiv	 ecx
  00582	03 44 24 14	 add	 eax, DWORD PTR __nX$265094[esp+1092]
  00586	3b c7		 cmp	 eax, edi
  00588	89 44 24 20	 mov	 DWORD PTR __nLinkXMax$265092[esp+1092], eax
  0058c	7c 07		 jl	 SHORT $L265108
  0058e	8d 57 ff	 lea	 edx, DWORD PTR [edi-1]
  00591	89 54 24 20	 mov	 DWORD PTR __nLinkXMax$265092[esp+1092], edx
$L265108:
  00595	8b 44 24 18	 mov	 eax, DWORD PTR __nLinkZ$265084[esp+1092]
  00599	03 c3		 add	 eax, ebx
  0059b	99		 cdq
  0059c	f7 f9		 idiv	 ecx
  0059e	03 44 24 1c	 add	 eax, DWORD PTR __nZ$265095[esp+1092]
  005a2	3b c5		 cmp	 eax, ebp
  005a4	89 44 24 10	 mov	 DWORD PTR __nLinkZMax$265093[esp+1092], eax
  005a8	7c 05		 jl	 SHORT $L265109
  005aa	4d		 dec	 ebp
  005ab	89 6c 24 10	 mov	 DWORD PTR __nLinkZMax$265093[esp+1092], ebp
$L265109:
  005af	3b 74 24 10	 cmp	 esi, DWORD PTR __nLinkZMax$265093[esp+1092]
  005b3	89 74 24 14	 mov	 DWORD PTR __j$265110[esp+1092], esi
  005b7	0f 8f c3 00 00
	00		 jg	 $L265100
  005bd	8b 5c 24 2c	 mov	 ebx, DWORD PTR __nLinkXMin$265090[esp+1092]
  005c1	0f af f7	 imul	 esi, edi
  005c4	8b 54 24 4c	 mov	 edx, DWORD PTR __pObjs$265102[esp+1092]
  005c8	03 f3		 add	 esi, ebx
  005ca	8d 0c bd 00 00
	00 00		 lea	 ecx, DWORD PTR [edi*4]
  005d1	8d 34 b2	 lea	 esi, DWORD PTR [edx+esi*4]
  005d4	89 4c 24 50	 mov	 DWORD PTR tv1568[esp+1092], ecx
  005d8	89 74 24 1c	 mov	 DWORD PTR tv1565[esp+1092], esi
  005dc	8d 64 24 00	 npad	 4
$L265111:
  005e0	3b 5c 24 20	 cmp	 ebx, DWORD PTR __nLinkXMax$265092[esp+1092]
  005e4	7f 77		 jg	 SHORT $L265112
  005e6	8b fe		 mov	 edi, esi
  005e8	eb 06 8d 9b 00
	00 00 00	 npad	 8
$L265115:
  005f0	8b 37		 mov	 esi, DWORD PTR [edi]
  005f2	85 f6		 test	 esi, esi
  005f4	bd e8 03 00 00	 mov	 ebp, 1000		; 000003e8H
  005f9	74 52		 je	 SHORT $L265116
  005fb	eb 03 8d 49 00	 npad	 5
$L265120:
  00600	8b c5		 mov	 eax, ebp
  00602	4d		 dec	 ebp
  00603	85 c0		 test	 eax, eax
  00605	74 46		 je	 SHORT $L265116

; 976  : 			{
; 977  : 				if( pObj->GetType() == OT_MOVER && ((CMover*)pObj)->IsPlayer() && pParty->IsMember( ((CMover*)pObj)->m_idPlayer ) )

  00607	83 be 70 01 00
	00 05		 cmp	 DWORD PTR [esi+368], 5
  0060e	75 33		 jne	 SHORT $L272178
  00610	8b 86 34 02 00
	00		 mov	 eax, DWORD PTR [esi+564]
  00616	85 c0		 test	 eax, eax
  00618	74 29		 je	 SHORT $L272178
  0061a	8b 86 38 02 00
	00		 mov	 eax, DWORD PTR [esi+568]
  00620	8b 4c 24 40	 mov	 ecx, DWORD PTR _pParty$[esp+1092]
  00624	50		 push	 eax
  00625	e8 00 00 00 00	 call	 ?FindMember@CParty@@QAEHK@Z ; CParty::FindMember
  0062a	85 c0		 test	 eax, eax
  0062c	7c 15		 jl	 SHORT $L272178

; 978  : 				{
; 979  : 					apPlayer[ nCountPlayer++ ] = (CMover*)pObj;

  0062e	8b 44 24 30	 mov	 eax, DWORD PTR _nCountPlayer$[esp+1092]
  00632	89 b4 84 84 00
	00 00		 mov	 DWORD PTR _apPlayer$[esp+eax*4+1092], esi
  00639	40		 inc	 eax

; 980  : 					if( nCountPlayer >= MAX_ARRAY )

  0063a	83 f8 28	 cmp	 eax, 40			; 00000028H
  0063d	89 44 24 30	 mov	 DWORD PTR _nCountPlayer$[esp+1092], eax
  00641	7d 69		 jge	 SHORT $L272173
$L272178:

; 981  : 						goto NEXT2;
; 982  : 				}
; 983  : 			}
; 984  : 			END_LINKMAP

  00643	8b b6 80 01 00
	00		 mov	 esi, DWORD PTR [esi+384]
  00649	85 f6		 test	 esi, esi
  0064b	75 b3		 jne	 SHORT $L265120
$L265116:

; 974  : 		{
; 975  : 			FOR_LINKMAP( pMover->GetWorld(), vPos, pObj, 20 / MPU, CObj::linkPlayer, pMover->GetLayer() )

  0064d	8b 44 24 20	 mov	 eax, DWORD PTR __nLinkXMax$265092[esp+1092]
  00651	43		 inc	 ebx
  00652	83 c7 04	 add	 edi, 4
  00655	3b d8		 cmp	 ebx, eax
  00657	7e 97		 jle	 SHORT $L265115
  00659	8b 5c 24 2c	 mov	 ebx, DWORD PTR __nLinkXMin$265090[esp+1092]
$L265112:
  0065d	8b 44 24 14	 mov	 eax, DWORD PTR __j$265110[esp+1092]
  00661	8b 74 24 1c	 mov	 esi, DWORD PTR tv1565[esp+1092]
  00665	8b 54 24 50	 mov	 edx, DWORD PTR tv1568[esp+1092]
  00669	8b 4c 24 10	 mov	 ecx, DWORD PTR __nLinkZMax$265093[esp+1092]
  0066d	40		 inc	 eax
  0066e	03 f2		 add	 esi, edx
  00670	3b c1		 cmp	 eax, ecx
  00672	89 44 24 14	 mov	 DWORD PTR __j$265110[esp+1092], eax
  00676	89 74 24 1c	 mov	 DWORD PTR tv1565[esp+1092], esi
  0067a	0f 8e 60 ff ff
	ff		 jle	 $L265111
$L265100:
  00680	8b 4c 24 64	 mov	 ecx, DWORD PTR _pMover$[esp+1092]
  00684	8b 81 b8 01 00
	00		 mov	 eax, DWORD PTR [ecx+440]
  0068a	8b 74 24 28	 mov	 esi, DWORD PTR __i$265098[esp+1092]
  0068e	8b 89 6c 01 00
	00		 mov	 ecx, DWORD PTR [ecx+364]
  00694	50		 push	 eax
  00695	46		 inc	 esi
  00696	6a 02		 push	 2
  00698	83 c1 24	 add	 ecx, 36			; 00000024H
  0069b	89 74 24 30	 mov	 DWORD PTR __i$265098[esp+1100], esi
  0069f	e8 00 00 00 00	 call	 ?GetMaxLinkLevel@CLayeredLinkMap@@QAEHKH@Z ; CLayeredLinkMap::GetMaxLinkLevel
  006a4	3b f0		 cmp	 esi, eax
  006a6	0f 8c dd fd ff
	ff		 jl	 $L272168
$L272173:
  006ac	8b 5c 24 44	 mov	 ebx, DWORD PTR _this$[esp+1092]
$NEXT2$265127:

; 985  : 		}
; 986  : 	}
; 987  : NEXT2:
; 988  : 	for( i = 0; i < pMoverProp->m_nCallHelperMax; i++ )

  006b0	8b 8c 24 48 04
	00 00		 mov	 ecx, DWORD PTR _pMoverProp$[esp+1088]
  006b7	33 ed		 xor	 ebp, ebp
  006b9	66 39 a9 b2 01
	00 00		 cmp	 WORD PTR [ecx+434], bp
  006c0	0f 8e 9b 00 00
	00		 jle	 $L265131
$L272181:

; 989  : 	{
; 990  : 		if( pParty  )

  006c6	8b 44 24 40	 mov	 eax, DWORD PTR _pParty$[esp+1092]
  006ca	85 c0		 test	 eax, eax
  006cc	74 4a		 je	 SHORT $L265132

; 991  : 		{
; 992  : 			if( nCountPlayer )

  006ce	8b 44 24 30	 mov	 eax, DWORD PTR _nCountPlayer$[esp+1092]
  006d2	85 c0		 test	 eax, eax
  006d4	74 74		 je	 SHORT $L265130

; 993  : 			{
; 994  : 				for( int j = 0; j < anCountMonster[ i ]; j++ )

  006d6	8b 44 ac 68	 mov	 eax, DWORD PTR _anCountMonster$[esp+ebp*4+1092]
  006da	85 c0		 test	 eax, eax
  006dc	7e 6c		 jle	 SHORT $L265130
  006de	8d b4 ac 24 01
	00 00		 lea	 esi, DWORD PTR _apMonster$[esp+ebp*4+1092]
  006e5	8b f8		 mov	 edi, eax
$L265135:

; 995  : 				{
; 996  : 					CMover* pNewTarget = (CMover*)apPlayer[ rand() % nCountPlayer ];

  006e7	e8 00 00 00 00	 call	 _rand
  006ec	99		 cdq
  006ed	f7 7c 24 30	 idiv	 DWORD PTR _nCountPlayer$[esp+1092]
  006f1	8b 94 94 84 00
	00 00		 mov	 edx, DWORD PTR _apPlayer$[esp+edx*4+1092]

; 997  : 					if( pNewTarget )

  006f8	85 d2		 test	 edx, edx
  006fa	74 14		 je	 SHORT $L265136

; 998  : 						apMonster[ j ][ i ]->PostAIMsg( AIMSG_SETSTATE, STATE_RAGE, pNewTarget->GetId() );

  006fc	8b 92 bc 01 00
	00		 mov	 edx, DWORD PTR [edx+444]
  00702	8b 0e		 mov	 ecx, DWORD PTR [esi]
  00704	6a 00		 push	 0
  00706	52		 push	 edx
  00707	6a 07		 push	 7
  00709	6a 04		 push	 4
  0070b	e8 00 00 00 00	 call	 ?PostAIMsg@CMover@@QAEXKKKK@Z ; CMover::PostAIMsg
$L265136:
  00710	83 c6 14	 add	 esi, 20			; 00000014H
  00713	4f		 dec	 edi
  00714	75 d1		 jne	 SHORT $L265135

; 999  : 				}
; 1000 : 			}
; 1001 : 		}
; 1002 : 		else

  00716	eb 32		 jmp	 SHORT $L265130
$L265132:

; 1003 : 		{ 
; 1004 : 			for( int j = 0; j < anCountMonster[ i ]; j++ )

  00718	8b 44 ac 68	 mov	 eax, DWORD PTR _anCountMonster$[esp+ebp*4+1092]
  0071c	85 c0		 test	 eax, eax
  0071e	7e 2a		 jle	 SHORT $L265130
  00720	8d b4 ac 24 01
	00 00		 lea	 esi, DWORD PTR _apMonster$[esp+ebp*4+1092]
  00727	8b f8		 mov	 edi, eax
  00729	8d a4 24 00 00
	00 00		 npad	 7
$L272177:

; 1005 : 				apMonster[ j ][ i ]->PostAIMsg( AIMSG_SETSTATE, STATE_RAGE, m_dwIdTarget );

  00730	8b 83 e0 00 00
	00		 mov	 eax, DWORD PTR [ebx+224]
  00736	8b 0e		 mov	 ecx, DWORD PTR [esi]
  00738	6a 00		 push	 0
  0073a	50		 push	 eax
  0073b	6a 07		 push	 7
  0073d	6a 04		 push	 4
  0073f	e8 00 00 00 00	 call	 ?PostAIMsg@CMover@@QAEXKKKK@Z ; CMover::PostAIMsg
  00744	83 c6 14	 add	 esi, 20			; 00000014H
  00747	4f		 dec	 edi
  00748	75 e6		 jne	 SHORT $L272177
$L265130:

; 985  : 		}
; 986  : 	}
; 987  : NEXT2:
; 988  : 	for( i = 0; i < pMoverProp->m_nCallHelperMax; i++ )

  0074a	8b 8c 24 48 04
	00 00		 mov	 ecx, DWORD PTR _pMoverProp$[esp+1088]
  00751	0f bf 91 b2 01
	00 00		 movsx	 edx, WORD PTR [ecx+434]
  00758	45		 inc	 ebp
  00759	3b ea		 cmp	 ebp, edx
  0075b	0f 8c 65 ff ff
	ff		 jl	 $L272181
$L265131:
  00761	5f		 pop	 edi
  00762	5e		 pop	 esi
  00763	5d		 pop	 ebp
  00764	5b		 pop	 ebx

; 1006 : 		}
; 1007 : 	}
; 1008 : }

  00765	81 c4 34 04 00
	00		 add	 esp, 1076		; 00000434H
  0076b	c2 04 00	 ret	 4
?CallHelper@CAIAggro@@IAEXPBUMoverProp@@@Z ENDP		; CAIAggro::CallHelper
_TEXT	ENDS
PUBLIC	?GetAtkMethod_Far@CAIAggro@@IAEKXZ		; CAIAggro::GetAtkMethod_Far
PUBLIC	__real@3e638e39
EXTRN	?GetHitPointPercent@CMover@@QAEHH@Z:NEAR	; CMover::GetHitPointPercent
;	COMDAT __real@3e638e39
; File c:\documents and settings\test\mes documents\source\virtuos_v17\build\program\_common\xutil.h
CONST	SEGMENT
__real@3e638e39 DD 03e638e39r			; 0.222222
; Function compile flags: /Ogty
; File c:\documents and settings\test\mes documents\source\virtuos_v17\build\program\_aiinterface\aiaggro.cpp
CONST	ENDS
;	COMDAT ?GetAtkMethod_Far@CAIAggro@@IAEKXZ
_TEXT	SEGMENT
tv192 = -4						; size = 4
?GetAtkMethod_Far@CAIAggro@@IAEKXZ PROC NEAR		; CAIAggro::GetAtkMethod_Far, COMDAT
; _this$ = ecx

; 1011 : {

  00000	51		 push	 ecx
  00001	56		 push	 esi

; 1012 : 	CMover* pMover = GetMover();

  00002	8b 71 30	 mov	 esi, DWORD PTR [ecx+48]

; 1013 : 	MoverProp* pMoverProp = pMover->GetProp();

  00005	8b 86 74 01 00
	00		 mov	 eax, DWORD PTR [esi+372]
  0000b	85 c0		 test	 eax, eax
  0000d	8b 0d d0 01 00
	00		 mov	 ecx, DWORD PTR ?prj@@3VCProject@@A+464
  00013	57		 push	 edi
  00014	7c 04		 jl	 SHORT $L272214
  00016	3b c1		 cmp	 eax, ecx
  00018	7c 16		 jl	 SHORT $L272209
$L272214:
  0001a	50		 push	 eax
  0001b	51		 push	 ecx
  0001c	6a 00		 push	 0
  0001e	68 00 00 00 00	 push	 OFFSET FLAT:??_C@_0BJ@GKPOBPPI@GetMoverProp?5range_error?$AA@
  00023	68 00 00 00 00	 push	 OFFSET FLAT:??_C@_0BM@HMFGHCP@?$CFs?5min?3?$CFd?0?5max?3?$CFd?0?5index?3?$CFd?$AA@
  00028	e8 00 00 00 00	 call	 ?Error@@YAPBDPBDZZ	; Error
  0002d	83 c4 14	 add	 esp, 20			; 00000014H
$L272209:

; 1014 : 	DWORD dwRandom = xRandom( 100 );

  00030	a1 00 00 00 00	 mov	 eax, DWORD PTR ?g_next@@3KA ; g_next
  00035	69 c0 6d 4e c6
	41		 imul	 eax, 1103515245		; 41c64e6dH
  0003b	05 39 30 00 00	 add	 eax, 12345		; 00003039H
  00040	b9 64 00 00 00	 mov	 ecx, 100		; 00000064H
  00045	33 d2		 xor	 edx, edx
  00047	a3 00 00 00 00	 mov	 DWORD PTR ?g_next@@3KA, eax ; g_next
  0004c	f7 f1		 div	 ecx

; 1015 : 
; 1016 : 	int nDeathblow = (int)( pMover->GetHitPointPercent() / 4.5f );

  0004e	51		 push	 ecx
  0004f	8b ce		 mov	 ecx, esi
  00051	8b fa		 mov	 edi, edx
  00053	e8 00 00 00 00	 call	 ?GetHitPointPercent@CMover@@QAEHH@Z ; CMover::GetHitPointPercent
  00058	89 44 24 08	 mov	 DWORD PTR tv192[esp+12], eax
  0005c	db 44 24 08	 fild	 DWORD PTR tv192[esp+12]
  00060	d8 0d 00 00 00
	00		 fmul	 DWORD PTR __real@3e638e39
  00066	e8 00 00 00 00	 call	 __ftol2
  0006b	8b c8		 mov	 ecx, eax

; 1017 : 	if( nDeathblow )

  0006d	85 c9		 test	 ecx, ecx
  0006f	74 26		 je	 SHORT $L265155

; 1018 : 	{
; 1019 : 		if( !xRandom( nDeathblow ) )

  00071	a1 00 00 00 00	 mov	 eax, DWORD PTR ?g_next@@3KA ; g_next
  00076	69 c0 6d 4e c6
	41		 imul	 eax, 1103515245		; 41c64e6dH
  0007c	05 39 30 00 00	 add	 eax, 12345		; 00003039H
  00081	33 d2		 xor	 edx, edx
  00083	a3 00 00 00 00	 mov	 DWORD PTR ?g_next@@3KA, eax ; g_next
  00088	f7 f1		 div	 ecx
  0008a	85 d2		 test	 edx, edx
  0008c	75 09		 jne	 SHORT $L265155
  0008e	5f		 pop	 edi

; 1020 : 			return 3;

  0008f	b8 03 00 00 00	 mov	 eax, 3
  00094	5e		 pop	 esi

; 1041 : }

  00095	59		 pop	 ecx
  00096	c3		 ret	 0
$L265155:

; 1021 : 	}
; 1022 : 
; 1023 : 	switch( pMover->m_dwBelligerence )

  00097	8b b6 6c 06 00
	00		 mov	 esi, DWORD PTR [esi+1644]
  0009d	83 ee 0b	 sub	 esi, 11			; 0000000bH
  000a0	74 27		 je	 SHORT $L265160
  000a2	4e		 dec	 esi
  000a3	74 18		 je	 SHORT $L265162
  000a5	4e		 dec	 esi
  000a6	74 09		 je	 SHORT $L265164
  000a8	5f		 pop	 edi

; 1037 : 			return 1;
; 1038 : 		return 2;
; 1039 : 	}
; 1040 : 	return 1;

  000a9	b8 01 00 00 00	 mov	 eax, 1
  000ae	5e		 pop	 esi

; 1041 : }

  000af	59		 pop	 ecx
  000b0	c3		 ret	 0
$L265164:

; 1032 : 			return 1;
; 1033 : 		return 2;
; 1034 : 		break;
; 1035 : 	case BELLI_RANGE:
; 1036 : 		if( dwRandom < 20 )

  000b1	83 ff 14	 cmp	 edi, 20			; 00000014H
  000b4	1b c0		 sbb	 eax, eax
  000b6	5f		 pop	 edi
  000b7	83 c0 02	 add	 eax, 2
  000ba	5e		 pop	 esi

; 1041 : }

  000bb	59		 pop	 ecx
  000bc	c3		 ret	 0
$L265162:

; 1027 : 			return 1;
; 1028 : 		return 2;
; 1029 : 		break;
; 1030 : 	case BELLI_MELEE:
; 1031 : 		if( dwRandom < 30 )

  000bd	83 ff 1e	 cmp	 edi, 30			; 0000001eH
  000c0	1b c0		 sbb	 eax, eax
  000c2	5f		 pop	 edi
  000c3	83 c0 02	 add	 eax, 2
  000c6	5e		 pop	 esi

; 1041 : }

  000c7	59		 pop	 ecx
  000c8	c3		 ret	 0
$L265160:

; 1024 : 	{
; 1025 : 	case BELLI_MELEE2X:
; 1026 : 		if( dwRandom < 50 )

  000c9	83 ff 32	 cmp	 edi, 50			; 00000032H
  000cc	1b c0		 sbb	 eax, eax
  000ce	5f		 pop	 edi
  000cf	83 c0 02	 add	 eax, 2
  000d2	5e		 pop	 esi

; 1041 : }

  000d3	59		 pop	 ecx
  000d4	c3		 ret	 0
?GetAtkMethod_Far@CAIAggro@@IAEKXZ ENDP			; CAIAggro::GetAtkMethod_Far
_TEXT	ENDS
PUBLIC	?GetAtkMethod_Near@CAIAggro@@IAEKXZ		; CAIAggro::GetAtkMethod_Near
; Function compile flags: /Ogty
;	COMDAT ?GetAtkMethod_Near@CAIAggro@@IAEKXZ
_TEXT	SEGMENT
tv192 = -4						; size = 4
?GetAtkMethod_Near@CAIAggro@@IAEKXZ PROC NEAR		; CAIAggro::GetAtkMethod_Near, COMDAT
; _this$ = ecx

; 1043 : {

  00000	51		 push	 ecx
  00001	56		 push	 esi

; 1044 : 	CMover* pMover = GetMover();

  00002	8b 71 30	 mov	 esi, DWORD PTR [ecx+48]

; 1045 : 	MoverProp* pMoverProp = pMover->GetProp();

  00005	8b 86 74 01 00
	00		 mov	 eax, DWORD PTR [esi+372]
  0000b	85 c0		 test	 eax, eax
  0000d	8b 0d d0 01 00
	00		 mov	 ecx, DWORD PTR ?prj@@3VCProject@@A+464
  00013	57		 push	 edi
  00014	7c 04		 jl	 SHORT $L272270
  00016	3b c1		 cmp	 eax, ecx
  00018	7c 16		 jl	 SHORT $L272265
$L272270:
  0001a	50		 push	 eax
  0001b	51		 push	 ecx
  0001c	6a 00		 push	 0
  0001e	68 00 00 00 00	 push	 OFFSET FLAT:??_C@_0BJ@GKPOBPPI@GetMoverProp?5range_error?$AA@
  00023	68 00 00 00 00	 push	 OFFSET FLAT:??_C@_0BM@HMFGHCP@?$CFs?5min?3?$CFd?0?5max?3?$CFd?0?5index?3?$CFd?$AA@
  00028	e8 00 00 00 00	 call	 ?Error@@YAPBDPBDZZ	; Error
  0002d	83 c4 14	 add	 esp, 20			; 00000014H
$L272265:

; 1046 : 	DWORD dwRandom = xRandom( 100 );

  00030	a1 00 00 00 00	 mov	 eax, DWORD PTR ?g_next@@3KA ; g_next
  00035	69 c0 6d 4e c6
	41		 imul	 eax, 1103515245		; 41c64e6dH
  0003b	05 39 30 00 00	 add	 eax, 12345		; 00003039H
  00040	b9 64 00 00 00	 mov	 ecx, 100		; 00000064H
  00045	33 d2		 xor	 edx, edx
  00047	a3 00 00 00 00	 mov	 DWORD PTR ?g_next@@3KA, eax ; g_next
  0004c	f7 f1		 div	 ecx

; 1047 : 	int nDeathblow = (int)( pMover->GetHitPointPercent() / 4.5f );

  0004e	51		 push	 ecx
  0004f	8b ce		 mov	 ecx, esi
  00051	8b fa		 mov	 edi, edx
  00053	e8 00 00 00 00	 call	 ?GetHitPointPercent@CMover@@QAEHH@Z ; CMover::GetHitPointPercent
  00058	89 44 24 08	 mov	 DWORD PTR tv192[esp+12], eax
  0005c	db 44 24 08	 fild	 DWORD PTR tv192[esp+12]
  00060	d8 0d 00 00 00
	00		 fmul	 DWORD PTR __real@3e638e39
  00066	e8 00 00 00 00	 call	 __ftol2
  0006b	8b c8		 mov	 ecx, eax

; 1048 : 	if( nDeathblow )

  0006d	85 c9		 test	 ecx, ecx
  0006f	74 26		 je	 SHORT $L265175

; 1049 : 	{
; 1050 : 		if( !xRandom( nDeathblow ) )

  00071	a1 00 00 00 00	 mov	 eax, DWORD PTR ?g_next@@3KA ; g_next
  00076	69 c0 6d 4e c6
	41		 imul	 eax, 1103515245		; 41c64e6dH
  0007c	05 39 30 00 00	 add	 eax, 12345		; 00003039H
  00081	33 d2		 xor	 edx, edx
  00083	a3 00 00 00 00	 mov	 DWORD PTR ?g_next@@3KA, eax ; g_next
  00088	f7 f1		 div	 ecx
  0008a	85 d2		 test	 edx, edx
  0008c	75 09		 jne	 SHORT $L265175
  0008e	5f		 pop	 edi

; 1051 : 			return 3;

  0008f	b8 03 00 00 00	 mov	 eax, 3
  00094	5e		 pop	 esi

; 1073 : }

  00095	59		 pop	 ecx
  00096	c3		 ret	 0
$L265175:

; 1052 : 	}
; 1053 : 
; 1054 : 	switch( pMover->m_dwBelligerence )

  00097	8b b6 6c 06 00
	00		 mov	 esi, DWORD PTR [esi+1644]
  0009d	83 ee 0b	 sub	 esi, 11			; 0000000bH
  000a0	74 27		 je	 SHORT $L265180
  000a2	4e		 dec	 esi
  000a3	74 18		 je	 SHORT $L265182
  000a5	4e		 dec	 esi
  000a6	74 09		 je	 SHORT $L265184
  000a8	5f		 pop	 edi

; 1068 : 			return 1;
; 1069 : 		return 2;
; 1070 : 		break;
; 1071 : 	}
; 1072 : 	return 1;

  000a9	b8 01 00 00 00	 mov	 eax, 1
  000ae	5e		 pop	 esi

; 1073 : }

  000af	59		 pop	 ecx
  000b0	c3		 ret	 0
$L265184:

; 1063 : 			return 1;
; 1064 : 		return 2;
; 1065 : 		break;
; 1066 : 	case BELLI_RANGE:
; 1067 : 		if( dwRandom < 50 )

  000b1	83 ff 32	 cmp	 edi, 50			; 00000032H
  000b4	1b c0		 sbb	 eax, eax
  000b6	5f		 pop	 edi
  000b7	83 c0 02	 add	 eax, 2
  000ba	5e		 pop	 esi

; 1073 : }

  000bb	59		 pop	 ecx
  000bc	c3		 ret	 0
$L265182:

; 1058 : 			return 1;
; 1059 : 		return 2;
; 1060 : 		break;
; 1061 : 	case BELLI_MELEE:
; 1062 : 		if( dwRandom < 80 )

  000bd	83 ff 50	 cmp	 edi, 80			; 00000050H
  000c0	1b c0		 sbb	 eax, eax
  000c2	5f		 pop	 edi
  000c3	83 c0 02	 add	 eax, 2
  000c6	5e		 pop	 esi

; 1073 : }

  000c7	59		 pop	 ecx
  000c8	c3		 ret	 0
$L265180:

; 1055 : 	{
; 1056 : 	case BELLI_MELEE2X:
; 1057 : 		if( dwRandom < 60 )

  000c9	83 ff 3c	 cmp	 edi, 60			; 0000003cH
  000cc	1b c0		 sbb	 eax, eax
  000ce	5f		 pop	 edi
  000cf	83 c0 02	 add	 eax, 2
  000d2	5e		 pop	 esi

; 1073 : }

  000d3	59		 pop	 ecx
  000d4	c3		 ret	 0
?GetAtkMethod_Near@CAIAggro@@IAEKXZ ENDP		; CAIAggro::GetAtkMethod_Near
_TEXT	ENDS
PUBLIC	?GetAtkItemId@CAIAggro@@IAEKK@Z			; CAIAggro::GetAtkItemId
; Function compile flags: /Ogty
;	COMDAT ?GetAtkItemId@CAIAggro@@IAEKK@Z
_TEXT	SEGMENT
_dwAtkMethod$ = 8					; size = 4
?GetAtkItemId@CAIAggro@@IAEKK@Z PROC NEAR		; CAIAggro::GetAtkItemId, COMDAT
; _this$ = ecx

; 1093 : 	CMover* pMover = GetMover();
; 1094 : 	switch( dwAtkMethod )

  00000	8b 44 24 04	 mov	 eax, DWORD PTR _dwAtkMethod$[esp-4]
  00004	48		 dec	 eax
  00005	8b 49 30	 mov	 ecx, DWORD PTR [ecx+48]
  00008	74 27		 je	 SHORT $L265204
  0000a	48		 dec	 eax
  0000b	74 16		 je	 SHORT $L265205
  0000d	48		 dec	 eax
  0000e	74 05		 je	 SHORT $L265206

; 1102 : 	}
; 1103 : 	return 0;

  00010	33 c0		 xor	 eax, eax

; 1104 : }

  00012	c2 04 00	 ret	 4
$L265206:

; 1100 : 	case 3:
; 1101 : 		return pMover->GetProp()->dwAtk3;

  00015	e8 00 00 00 00	 call	 ?GetPropA@CMover@@QAEPAUMoverProp@@XZ ; CMover::GetPropA
  0001a	8b 80 b8 00 00
	00		 mov	 eax, DWORD PTR [eax+184]

; 1104 : }

  00020	c2 04 00	 ret	 4
$L265205:

; 1098 : 	case 2:
; 1099 : 		return pMover->GetProp()->dwAtk2;

  00023	e8 00 00 00 00	 call	 ?GetPropA@CMover@@QAEPAUMoverProp@@XZ ; CMover::GetPropA
  00028	8b 80 b4 00 00
	00		 mov	 eax, DWORD PTR [eax+180]

; 1104 : }

  0002e	c2 04 00	 ret	 4
$L265204:

; 1095 : 	{ 
; 1096 : 	case 1:
; 1097 : 		return pMover->GetProp()->dwAtk1;

  00031	e8 00 00 00 00	 call	 ?GetPropA@CMover@@QAEPAUMoverProp@@XZ ; CMover::GetPropA
  00036	8b 80 b0 00 00
	00		 mov	 eax, DWORD PTR [eax+176]

; 1104 : }

  0003c	c2 04 00	 ret	 4
?GetAtkItemId@CAIAggro@@IAEKK@Z ENDP			; CAIAggro::GetAtkItemId
_TEXT	ENDS
PUBLIC	?SelectAttackType@CAIAggro@@IAEHPAVCMover@@@Z	; CAIAggro::SelectAttackType
EXTRN	?GetJob@CMover@@QAEHXZ:NEAR			; CMover::GetJob
; Function compile flags: /Ogty
;	COMDAT ?SelectAttackType@CAIAggro@@IAEHPAVCMover@@@Z
_TEXT	SEGMENT
$T272301 = -24						; size = 12
$T272302 = -12						; size = 12
tv283 = 8						; size = 4
_pTarget$ = 8						; size = 4
?SelectAttackType@CAIAggro@@IAEHPAVCMover@@@Z PROC NEAR	; CAIAggro::SelectAttackType, COMDAT
; _this$ = ecx

; 1229 : {

  00000	83 ec 18	 sub	 esp, 24			; 00000018H
  00003	53		 push	 ebx

; 1230 : 	int nAttackType = 0;
; 1231 : 
; 1232 : 	CMover* pMover = GetMover();

  00004	8b 59 30	 mov	 ebx, DWORD PTR [ecx+48]

; 1233 : 	CWorld* pWorld = GetWorld();
; 1234 : 	MoverProp *pProp = pMover->GetProp();

  00007	8b 83 74 01 00
	00		 mov	 eax, DWORD PTR [ebx+372]
  0000d	85 c0		 test	 eax, eax
  0000f	8b 0d d0 01 00
	00		 mov	 ecx, DWORD PTR ?prj@@3VCProject@@A+464
  00015	55		 push	 ebp
  00016	56		 push	 esi
  00017	57		 push	 edi
  00018	7c 16		 jl	 SHORT $L272341
  0001a	3b c1		 cmp	 eax, ecx
  0001c	7d 12		 jge	 SHORT $L272341
  0001e	8b 0d d4 01 00
	00		 mov	 ecx, DWORD PTR ?prj@@3VCProject@@A+468
  00024	69 c0 d8 06 00
	00		 imul	 eax, 1752		; 000006d8H
  0002a	03 c1		 add	 eax, ecx
  0002c	8b f0		 mov	 esi, eax
  0002e	eb 18		 jmp	 SHORT $L272336
$L272341:
  00030	50		 push	 eax
  00031	51		 push	 ecx
  00032	6a 00		 push	 0
  00034	68 00 00 00 00	 push	 OFFSET FLAT:??_C@_0BJ@GKPOBPPI@GetMoverProp?5range_error?$AA@
  00039	68 00 00 00 00	 push	 OFFSET FLAT:??_C@_0BM@HMFGHCP@?$CFs?5min?3?$CFd?0?5max?3?$CFd?0?5index?3?$CFd?$AA@
  0003e	e8 00 00 00 00	 call	 ?Error@@YAPBDPBDZZ	; Error
  00043	83 c4 14	 add	 esp, 20			; 00000014H
  00046	33 f6		 xor	 esi, esi
$L272336:

; 1235 : 	
; 1236 : 	int		nTargetJob = 0;
; 1237 : 	int		nRange = pProp->m_bRangeAttack[ nTargetJob ] & 0x7F;
; 1238 : 	
; 1239 : 	if( pTarget->IsPlayer() )		nTargetJob = pTarget->GetJob();	

  00048	8b 7c 24 2c	 mov	 edi, DWORD PTR _pTarget$[esp+36]
  0004c	33 c9		 xor	 ecx, ecx
  0004e	8a 8e f8 01 00
	00		 mov	 cl, BYTE PTR [esi+504]
  00054	33 c0		 xor	 eax, eax
  00056	83 e1 7f	 and	 ecx, 127		; 0000007fH
  00059	8b e9		 mov	 ebp, ecx
  0005b	8b 8f 34 02 00
	00		 mov	 ecx, DWORD PTR [edi+564]
  00061	85 c9		 test	 ecx, ecx
  00063	74 07		 je	 SHORT $L265301
  00065	8b cf		 mov	 ecx, edi
  00067	e8 00 00 00 00	 call	 ?GetJob@CMover@@QAEHXZ	; CMover::GetJob
$L265301:

; 1240 : 
; 1241 : 	BOOL bRange = ( pProp->m_bRangeAttack[ nTargetJob ] ) ? TRUE : FALSE;	

  0006c	8a 8c 06 f8 01
	00 00		 mov	 cl, BYTE PTR [esi+eax+504]
  00073	33 d2		 xor	 edx, edx
  00075	84 c9		 test	 cl, cl

; 1242 : 	BOOL bMelee = (BOOL)pProp->m_bMeleeAttack;							

  00077	0f b6 8e f4 01
	00 00		 movzx	 ecx, BYTE PTR [esi+500]
  0007e	0f 95 c2	 setne	 dl
  00081	8b c2		 mov	 eax, edx

; 1243 : 
; 1244 : 
; 1245 : 	if( bRange && bMelee )	

  00083	85 c0		 test	 eax, eax
  00085	0f 84 92 00 00
	00		 je	 $L272371
  0008b	85 c9		 test	 ecx, ecx
  0008d	74 7f		 je	 SHORT $L265305

; 1246 : 	{
; 1247 : 		D3DXVECTOR3	vDist = pTarget->GetPos() - pMover->GetPos();

  0008f	81 c3 60 01 00
	00		 add	 ebx, 352		; 00000160H
  00095	8b 03		 mov	 eax, DWORD PTR [ebx]
  00097	8b 4b 04	 mov	 ecx, DWORD PTR [ebx+4]
  0009a	8b 53 08	 mov	 edx, DWORD PTR [ebx+8]
  0009d	89 44 24 1c	 mov	 DWORD PTR $T272302[esp+40], eax
  000a1	81 c7 60 01 00
	00		 add	 edi, 352		; 00000160H
  000a7	8b 07		 mov	 eax, DWORD PTR [edi]
  000a9	89 44 24 10	 mov	 DWORD PTR $T272301[esp+40], eax
  000ad	d9 44 24 10	 fld	 DWORD PTR $T272301[esp+40]
  000b1	d8 64 24 1c	 fsub	 DWORD PTR $T272302[esp+40]
  000b5	89 4c 24 20	 mov	 DWORD PTR $T272302[esp+44], ecx
  000b9	8b 4f 04	 mov	 ecx, DWORD PTR [edi+4]
  000bc	89 54 24 24	 mov	 DWORD PTR $T272302[esp+48], edx
  000c0	8b 57 08	 mov	 edx, DWORD PTR [edi+8]
  000c3	89 4c 24 14	 mov	 DWORD PTR $T272301[esp+44], ecx
  000c7	d9 44 24 14	 fld	 DWORD PTR $T272301[esp+44]
  000cb	d8 64 24 20	 fsub	 DWORD PTR $T272302[esp+44]
  000cf	89 54 24 18	 mov	 DWORD PTR $T272301[esp+48], edx
  000d3	d9 44 24 18	 fld	 DWORD PTR $T272301[esp+48]

; 1248 : 		FLOAT		fDistSq = D3DXVec3LengthSq( &vDist );
; 1249 : 
; 1250 : 		int nHalfRange = nRange / 2;	

  000d7	8b c5		 mov	 eax, ebp
  000d9	d8 64 24 24	 fsub	 DWORD PTR $T272302[esp+48]
  000dd	99		 cdq
  000de	2b c2		 sub	 eax, edx
  000e0	d1 f8		 sar	 eax, 1
  000e2	d9 c0		 fld	 ST(0)

; 1251 : 		if( fDistSq < (nHalfRange * nHalfRange) )	

  000e4	8b c8		 mov	 ecx, eax
  000e6	d8 c9		 fmul	 ST(0), ST(1)
  000e8	0f af c8	 imul	 ecx, eax
  000eb	d9 c2		 fld	 ST(2)
  000ed	d8 cb		 fmul	 ST(0), ST(3)

; 1255 : 	} else
; 1256 : 	if( bRange && bMelee == FALSE )		
; 1257 : 	{
; 1258 : 		nAttackType = 1;
; 1259 : 	} else
; 1260 : 	if( bRange == FALSE && bMelee )	
; 1261 : 	{
; 1262 : 		nAttackType = 0;
; 1263 : 	}
; 1264 : 
; 1265 : 	return nAttackType;

  000ef	de c1		 faddp	 ST(1), ST(0)
  000f1	d9 c3		 fld	 ST(3)
  000f3	d8 cc		 fmul	 ST(0), ST(4)
  000f5	89 4c 24 2c	 mov	 DWORD PTR tv283[esp+36], ecx
  000f9	de c1		 faddp	 ST(1), ST(0)
  000fb	db 44 24 2c	 fild	 DWORD PTR tv283[esp+36]
  000ff	de d9		 fcompp
  00101	dd d8		 fstp	 ST(0)
  00103	df e0		 fnstsw	 ax
  00105	dd d8		 fstp	 ST(0)
  00107	f6 c4 41	 test	 ah, 65			; 00000041H
  0010a	dd d8		 fstp	 ST(0)
  0010c	74 0f		 je	 SHORT $L272371
$L265305:
  0010e	5f		 pop	 edi
  0010f	5e		 pop	 esi
  00110	5d		 pop	 ebp

; 1252 : 			nAttackType = 0;	
; 1253 : 		else
; 1254 : 			nAttackType = 1;	

  00111	b8 01 00 00 00	 mov	 eax, 1
  00116	5b		 pop	 ebx

; 1266 : }

  00117	83 c4 18	 add	 esp, 24			; 00000018H
  0011a	c2 04 00	 ret	 4
$L272371:
  0011d	5f		 pop	 edi
  0011e	5e		 pop	 esi
  0011f	5d		 pop	 ebp

; 1255 : 	} else
; 1256 : 	if( bRange && bMelee == FALSE )		
; 1257 : 	{
; 1258 : 		nAttackType = 1;
; 1259 : 	} else
; 1260 : 	if( bRange == FALSE && bMelee )	
; 1261 : 	{
; 1262 : 		nAttackType = 0;
; 1263 : 	}
; 1264 : 
; 1265 : 	return nAttackType;

  00120	33 c0		 xor	 eax, eax
  00122	5b		 pop	 ebx

; 1266 : }

  00123	83 c4 18	 add	 esp, 24			; 00000018H
  00126	c2 04 00	 ret	 4
?SelectAttackType@CAIAggro@@IAEHPAVCMover@@@Z ENDP	; CAIAggro::SelectAttackType
_TEXT	ENDS
PUBLIC	?SetTarget@CAIAggro@@IAEXKK@Z			; CAIAggro::SetTarget
EXTRN	?SetSpeedFactor@CMover@@QAEXM@Z:NEAR		; CMover::SetSpeedFactor
; Function compile flags: /Ogty
;	COMDAT ?SetTarget@CAIAggro@@IAEXKK@Z
_TEXT	SEGMENT
_dwIdTarget$ = 8					; size = 4
_uParty$ = 12						; size = 4
?SetTarget@CAIAggro@@IAEXKK@Z PROC NEAR			; CAIAggro::SetTarget, COMDAT
; _this$ = ecx

; 2006 : 	m_dwIdTarget	= dwIdTarget;

  00000	8b 44 24 04	 mov	 eax, DWORD PTR _dwIdTarget$[esp-4]

; 2007 : #ifdef __AI_SUMMON
; 2008 : 	CMover* pMover = prj.GetMover( m_dwIdTarget );
; 2009 : 	if( pMover )
; 2010 : 	{
; 2011 : 		if( pMover->HasActivatedSummon() )
; 2012 : 		{
; 2013 : 			CMover* pSummon = prj.GetMover( pMover->GetSummon() );
; 2014 : 			if( pSummon && pSummon->IsDie() == FALSE )
; 2015 : 				m_dwIdTarget = pMover->GetSummon();
; 2016 : 		}
; 2017 : 	}
; 2018 : #endif
; 2019 : 	m_uParty	= uParty;
; 2020 : 	if( dwIdTarget == NULL_ID )

  00004	83 f8 ff	 cmp	 eax, -1
  00007	8b 54 24 08	 mov	 edx, DWORD PTR _uParty$[esp-4]
  0000b	89 81 e0 00 00
	00		 mov	 DWORD PTR [ecx+224], eax
  00011	89 51 34	 mov	 DWORD PTR [ecx+52], edx
  00014	75 0d		 jne	 SHORT $L265821

; 2021 : 		GetMover()->SetSpeedFactor( 1.0F );

  00016	8b 49 30	 mov	 ecx, DWORD PTR [ecx+48]
  00019	68 00 00 80 3f	 push	 1065353216		; 3f800000H
  0001e	e8 00 00 00 00	 call	 ?SetSpeedFactor@CMover@@QAEXM@Z ; CMover::SetSpeedFactor
$L265821:

; 2022 : }

  00023	c2 08 00	 ret	 8
?SetTarget@CAIAggro@@IAEXKK@Z ENDP			; CAIAggro::SetTarget
_TEXT	ENDS
PUBLIC	??Diterator@?$vector@KV?$allocator@K@std@@@std@@QBEAAKXZ ; std::vector<unsigned long,std::allocator<unsigned long> >::iterator::operator*
; Function compile flags: /Ogty
; File c:\program files\microsoft visual studio .net 2003\vc7\include\vector
;	COMDAT ??Diterator@?$vector@KV?$allocator@K@std@@@std@@QBEAAKXZ
_TEXT	SEGMENT
??Diterator@?$vector@KV?$allocator@K@std@@@std@@QBEAAKXZ PROC NEAR ; std::vector<unsigned long,std::allocator<unsigned long> >::iterator::operator*, COMDAT
; _this$ = ecx

; 220  : 			return ((reference)**(const_iterator *)this);

  00000	8b 01		 mov	 eax, DWORD PTR [ecx]

; 221  : 			}

  00002	c3		 ret	 0
??Diterator@?$vector@KV?$allocator@K@std@@@std@@QBEAAKXZ ENDP ; std::vector<unsigned long,std::allocator<unsigned long> >::iterator::operator*
_TEXT	ENDS
PUBLIC	??Eiterator@?$vector@KV?$allocator@K@std@@@std@@QAE?AV012@H@Z ; std::vector<unsigned long,std::allocator<unsigned long> >::iterator::operator++
; Function compile flags: /Ogty
;	COMDAT ??Eiterator@?$vector@KV?$allocator@K@std@@@std@@QAE?AV012@H@Z
_TEXT	SEGMENT
___$ReturnUdt$ = 8					; size = 4
___formal$ = 12						; size = 4
??Eiterator@?$vector@KV?$allocator@K@std@@@std@@QAE?AV012@H@Z PROC NEAR ; std::vector<unsigned long,std::allocator<unsigned long> >::iterator::operator++, COMDAT
; _this$ = ecx

; 236  : 			iterator _Tmp = *this;

  00000	8b 11		 mov	 edx, DWORD PTR [ecx]

; 237  : 			++*this;

  00002	8d 42 04	 lea	 eax, DWORD PTR [edx+4]
  00005	89 01		 mov	 DWORD PTR [ecx], eax

; 238  : 			return (_Tmp);

  00007	8b 44 24 04	 mov	 eax, DWORD PTR ___$ReturnUdt$[esp-4]
  0000b	89 10		 mov	 DWORD PTR [eax], edx

; 239  : 			}

  0000d	c2 08 00	 ret	 8
??Eiterator@?$vector@KV?$allocator@K@std@@@std@@QAE?AV012@H@Z ENDP ; std::vector<unsigned long,std::allocator<unsigned long> >::iterator::operator++
_TEXT	ENDS
PUBLIC	??9const_iterator@?$vector@KV?$allocator@K@std@@@std@@QBE_NABV012@@Z ; std::vector<unsigned long,std::allocator<unsigned long> >::const_iterator::operator!=
; Function compile flags: /Ogty
;	COMDAT ??9const_iterator@?$vector@KV?$allocator@K@std@@@std@@QBE_NABV012@@Z
_TEXT	SEGMENT
__Right$ = 8						; size = 4
??9const_iterator@?$vector@KV?$allocator@K@std@@@std@@QBE_NABV012@@Z PROC NEAR ; std::vector<unsigned long,std::allocator<unsigned long> >::const_iterator::operator!=, COMDAT
; _this$ = ecx

; 160  : 			return (!(*this == _Right));

  00000	8b 01		 mov	 eax, DWORD PTR [ecx]
  00002	8b 54 24 04	 mov	 edx, DWORD PTR __Right$[esp-4]
  00006	56		 push	 esi
  00007	8b 32		 mov	 esi, DWORD PTR [edx]
  00009	33 c9		 xor	 ecx, ecx
  0000b	3b c6		 cmp	 eax, esi
  0000d	0f 95 c1	 setne	 cl
  00010	8a c1		 mov	 al, cl
  00012	5e		 pop	 esi

; 161  : 			}

  00013	c2 04 00	 ret	 4
??9const_iterator@?$vector@KV?$allocator@K@std@@@std@@QBE_NABV012@@Z ENDP ; std::vector<unsigned long,std::allocator<unsigned long> >::const_iterator::operator!=
_TEXT	ENDS
PUBLIC	??0iterator@?$vector@KV?$allocator@K@std@@@std@@QAE@PAK@Z ; std::vector<unsigned long,std::allocator<unsigned long> >::iterator::iterator
; Function compile flags: /Ogty
;	COMDAT ??0iterator@?$vector@KV?$allocator@K@std@@@std@@QAE@PAK@Z
_TEXT	SEGMENT
__Ptr$ = 8						; size = 4
??0iterator@?$vector@KV?$allocator@K@std@@@std@@QAE@PAK@Z PROC NEAR ; std::vector<unsigned long,std::allocator<unsigned long> >::iterator::iterator, COMDAT
; _this$ = ecx

; 215  : 			{	// construct with pointer _Ptr

  00000	8b c1		 mov	 eax, ecx
  00002	8b 4c 24 04	 mov	 ecx, DWORD PTR __Ptr$[esp-4]
  00006	89 08		 mov	 DWORD PTR [eax], ecx

; 216  : 			}

  00008	c2 04 00	 ret	 4
??0iterator@?$vector@KV?$allocator@K@std@@@std@@QAE@PAK@Z ENDP ; std::vector<unsigned long,std::allocator<unsigned long> >::iterator::iterator
_TEXT	ENDS
PUBLIC	??Hiterator@?$vector@KV?$allocator@K@std@@@std@@QBE?AV012@H@Z ; std::vector<unsigned long,std::allocator<unsigned long> >::iterator::operator+
; Function compile flags: /Ogty
;	COMDAT ??Hiterator@?$vector@KV?$allocator@K@std@@@std@@QBE?AV012@H@Z
_TEXT	SEGMENT
___$ReturnUdt$ = 8					; size = 4
__Off$ = 12						; size = 4
??Hiterator@?$vector@KV?$allocator@K@std@@@std@@QBE?AV012@H@Z PROC NEAR ; std::vector<unsigned long,std::allocator<unsigned long> >::iterator::operator+, COMDAT
; _this$ = ecx

; 262  : 			iterator _Tmp = *this;
; 263  : 			return (_Tmp += _Off);

  00000	8b 01		 mov	 eax, DWORD PTR [ecx]
  00002	8b 4c 24 08	 mov	 ecx, DWORD PTR __Off$[esp-4]
  00006	8d 14 88	 lea	 edx, DWORD PTR [eax+ecx*4]
  00009	8b 44 24 04	 mov	 eax, DWORD PTR ___$ReturnUdt$[esp-4]
  0000d	89 10		 mov	 DWORD PTR [eax], edx

; 264  : 			}

  0000f	c2 08 00	 ret	 8
??Hiterator@?$vector@KV?$allocator@K@std@@@std@@QBE?AV012@H@Z ENDP ; std::vector<unsigned long,std::allocator<unsigned long> >::iterator::operator+
_TEXT	ENDS
PUBLIC	??Giterator@?$vector@KV?$allocator@K@std@@@std@@QBEHABVconst_iterator@12@@Z ; std::vector<unsigned long,std::allocator<unsigned long> >::iterator::operator-
; Function compile flags: /Ogty
;	COMDAT ??Giterator@?$vector@KV?$allocator@K@std@@@std@@QBEHABVconst_iterator@12@@Z
_TEXT	SEGMENT
__Right$ = 8						; size = 4
??Giterator@?$vector@KV?$allocator@K@std@@@std@@QBEHABVconst_iterator@12@@Z PROC NEAR ; std::vector<unsigned long,std::allocator<unsigned long> >::iterator::operator-, COMDAT
; _this$ = ecx

; 279  : 			return ((const_iterator)*this - _Right);

  00000	8b 01		 mov	 eax, DWORD PTR [ecx]
  00002	8b 4c 24 04	 mov	 ecx, DWORD PTR __Right$[esp-4]
  00006	2b 01		 sub	 eax, DWORD PTR [ecx]
  00008	c1 f8 02	 sar	 eax, 2

; 280  : 			}

  0000b	c2 04 00	 ret	 4
??Giterator@?$vector@KV?$allocator@K@std@@@std@@QBEHABVconst_iterator@12@@Z ENDP ; std::vector<unsigned long,std::allocator<unsigned long> >::iterator::operator-
_TEXT	ENDS
PUBLIC	??$copy@PAKPAK@std@@YAPAKPAK00@Z		; std::copy<unsigned long *,unsigned long *>
; Function compile flags: /Ogty
; File c:\program files\microsoft visual studio .net 2003\vc7\include\xutility
;	COMDAT ??$copy@PAKPAK@std@@YAPAKPAK00@Z
_TEXT	SEGMENT
__First$ = 8						; size = 4
__Last$ = 12						; size = 4
__Dest$ = 16						; size = 4
??$copy@PAKPAK@std@@YAPAKPAK00@Z PROC NEAR		; std::copy<unsigned long *,unsigned long *>, COMDAT

; 1040 : 	return (_Copy_opt(_First, _Last, _Dest, _Ptr_cat(_First, _Dest)));

  00000	8b 4c 24 04	 mov	 ecx, DWORD PTR __First$[esp-4]
  00004	8b 44 24 08	 mov	 eax, DWORD PTR __Last$[esp-4]
  00008	2b c1		 sub	 eax, ecx
  0000a	56		 push	 esi
  0000b	c1 f8 02	 sar	 eax, 2
  0000e	8d 34 85 00 00
	00 00		 lea	 esi, DWORD PTR [eax*4]
  00015	8b 44 24 10	 mov	 eax, DWORD PTR __Dest$[esp]
  00019	56		 push	 esi
  0001a	51		 push	 ecx
  0001b	50		 push	 eax
  0001c	e8 00 00 00 00	 call	 _memmove
  00021	83 c4 0c	 add	 esp, 12			; 0000000cH
  00024	03 c6		 add	 eax, esi
  00026	5e		 pop	 esi

; 1041 : 	}

  00027	c3		 ret	 0
??$copy@PAKPAK@std@@YAPAKPAK00@Z ENDP			; std::copy<unsigned long *,unsigned long *>
_TEXT	ENDS
PUBLIC	??$copy_backward@PAKPAK@std@@YAPAKPAK00@Z	; std::copy_backward<unsigned long *,unsigned long *>
; Function compile flags: /Ogty
;	COMDAT ??$copy_backward@PAKPAK@std@@YAPAKPAK00@Z
_TEXT	SEGMENT
__First$ = 8						; size = 4
__Last$ = 12						; size = 4
__Dest$ = 16						; size = 4
??$copy_backward@PAKPAK@std@@YAPAKPAK00@Z PROC NEAR	; std::copy_backward<unsigned long *,unsigned long *>, COMDAT

; 1068 : 	return (_Copy_backward_opt(_First, _Last, _Dest,
; 1069 : 		_Ptr_cat(_First, _Dest)));

  00000	8b 4c 24 04	 mov	 ecx, DWORD PTR __First$[esp-4]
  00004	8b 44 24 08	 mov	 eax, DWORD PTR __Last$[esp-4]
  00008	2b c1		 sub	 eax, ecx
  0000a	c1 f8 02	 sar	 eax, 2
  0000d	c1 e0 02	 shl	 eax, 2
  00010	50		 push	 eax
  00011	51		 push	 ecx
  00012	8b 4c 24 14	 mov	 ecx, DWORD PTR __Dest$[esp+4]
  00016	2b c8		 sub	 ecx, eax
  00018	51		 push	 ecx
  00019	e8 00 00 00 00	 call	 _memmove
  0001e	83 c4 0c	 add	 esp, 12			; 0000000cH

; 1070 : 	}

  00021	c3		 ret	 0
??$copy_backward@PAKPAK@std@@YAPAKPAK00@Z ENDP		; std::copy_backward<unsigned long *,unsigned long *>
_TEXT	ENDS
PUBLIC	??$_Uninit_fill_n@KIK@std@@YAXPAKIABKAAV?$allocator@K@0@U_Scalar_ptr_iterator_tag@0@@Z ; std::_Uninit_fill_n<unsigned long,unsigned int,unsigned long>
; Function compile flags: /Ogty
; File c:\program files\microsoft visual studio .net 2003\vc7\include\memory
;	COMDAT ??$_Uninit_fill_n@KIK@std@@YAXPAKIABKAAV?$allocator@K@0@U_Scalar_ptr_iterator_tag@0@@Z
_TEXT	SEGMENT
__First$ = 8						; size = 4
__Count$ = 12						; size = 4
__Val$ = 16						; size = 4
___formal$ = 20						; size = 4
___formal$ = 24						; size = 1
??$_Uninit_fill_n@KIK@std@@YAXPAKIABKAAV?$allocator@K@0@U_Scalar_ptr_iterator_tag@0@@Z PROC NEAR ; std::_Uninit_fill_n<unsigned long,unsigned int,unsigned long>, COMDAT

; 237  : 	fill_n(_First, _Count, _Val);

  00000	8b 4c 24 08	 mov	 ecx, DWORD PTR __Count$[esp-4]
  00004	85 c9		 test	 ecx, ecx
  00006	8b 44 24 04	 mov	 eax, DWORD PTR __First$[esp-4]
  0000a	76 10		 jbe	 SHORT $L272449
  0000c	8b 54 24 0c	 mov	 edx, DWORD PTR __Val$[esp-4]
  00010	56		 push	 esi
$L272447:
  00011	8b 32		 mov	 esi, DWORD PTR [edx]
  00013	89 30		 mov	 DWORD PTR [eax], esi
  00015	83 c0 04	 add	 eax, 4
  00018	49		 dec	 ecx
  00019	75 f6		 jne	 SHORT $L272447
  0001b	5e		 pop	 esi
$L272449:

; 238  : 	}

  0001c	c3		 ret	 0
??$_Uninit_fill_n@KIK@std@@YAXPAKIABKAAV?$allocator@K@0@U_Scalar_ptr_iterator_tag@0@@Z ENDP ; std::_Uninit_fill_n<unsigned long,unsigned int,unsigned long>
_TEXT	ENDS
PUBLIC	??$_Uninitialized_copy@PAKPAKV?$allocator@K@std@@@std@@YAPAKPAK00AAV?$allocator@K@0@@Z ; std::_Uninitialized_copy<unsigned long *,unsigned long *,std::allocator<unsigned long> >
; Function compile flags: /Ogty
;	COMDAT ??$_Uninitialized_copy@PAKPAKV?$allocator@K@std@@@std@@YAPAKPAK00AAV?$allocator@K@0@@Z
_TEXT	SEGMENT
__First$ = 8						; size = 4
__Last$ = 12						; size = 4
__Dest$ = 16						; size = 4
__Al$ = 20						; size = 4
??$_Uninitialized_copy@PAKPAKV?$allocator@K@std@@@std@@YAPAKPAK00AAV?$allocator@K@0@@Z PROC NEAR ; std::_Uninitialized_copy<unsigned long *,unsigned long *,std::allocator<unsigned long> >, COMDAT

; 127  : 	return (_Uninit_copy(_First, _Last, _Dest, _Al,
; 128  : 		_Ptr_cat(_First, _Dest)));

  00000	8b 4c 24 04	 mov	 ecx, DWORD PTR __First$[esp-4]
  00004	8b 44 24 08	 mov	 eax, DWORD PTR __Last$[esp-4]
  00008	2b c1		 sub	 eax, ecx
  0000a	56		 push	 esi
  0000b	c1 f8 02	 sar	 eax, 2
  0000e	8d 34 85 00 00
	00 00		 lea	 esi, DWORD PTR [eax*4]
  00015	8b 44 24 10	 mov	 eax, DWORD PTR __Dest$[esp]
  00019	56		 push	 esi
  0001a	51		 push	 ecx
  0001b	50		 push	 eax
  0001c	e8 00 00 00 00	 call	 _memmove
  00021	83 c4 0c	 add	 esp, 12			; 0000000cH
  00024	03 c6		 add	 eax, esi
  00026	5e		 pop	 esi

; 129  : 	}

  00027	c3		 ret	 0
??$_Uninitialized_copy@PAKPAKV?$allocator@K@std@@@std@@YAPAKPAK00AAV?$allocator@K@0@@Z ENDP ; std::_Uninitialized_copy<unsigned long *,unsigned long *,std::allocator<unsigned long> >
_TEXT	ENDS
PUBLIC	??_C@_0BI@BEIFNGEL@GetItemProp?5range_error?$AA@ ; `string'
PUBLIC	?GetItemProp@CProject@@QAEPAUItemProp@@H@Z	; CProject::GetItemProp
;	COMDAT ??_C@_0BI@BEIFNGEL@GetItemProp?5range_error?$AA@
; File c:\documents and settings\test\mes documents\source\virtuos_v17\build\program\_common\data.h
CONST	SEGMENT
??_C@_0BI@BEIFNGEL@GetItemProp?5range_error?$AA@ DB 'GetItemProp range_er'
	DB	'ror', 00H					; `string'
; Function compile flags: /Ogty
; File c:\documents and settings\test\mes documents\source\virtuos_v17\build\program\_common\project.h
CONST	ENDS
;	COMDAT ?GetItemProp@CProject@@QAEPAUItemProp@@H@Z
_TEXT	SEGMENT
_nIndex$ = 8						; size = 4
?GetItemProp@CProject@@QAEPAUItemProp@@H@Z PROC NEAR	; CProject::GetItemProp, COMDAT
; _this$ = ecx

; 1364 : 	VERIFY_RANGE_ASSERT( nIndex, 0, m_aPropItem.GetSize(), "GetItemProp range_error", NULL );

  00000	8b 44 24 04	 mov	 eax, DWORD PTR _nIndex$[esp-4]
  00004	85 c0		 test	 eax, eax
  00006	7c 1a		 jl	 SHORT $L197914
  00008	8b 91 5c 02 00
	00		 mov	 edx, DWORD PTR [ecx+604]
  0000e	3b c2		 cmp	 eax, edx
  00010	7d 10		 jge	 SHORT $L197914

; 1365 : 	return m_aPropItem.GetAt( nIndex ); 

  00012	3b c2		 cmp	 eax, edx
  00014	73 28		 jae	 SHORT $L272490
  00016	8b 89 4c 02 00
	00		 mov	 ecx, DWORD PTR [ecx+588]
  0001c	8b 04 81	 mov	 eax, DWORD PTR [ecx+eax*4]

; 1366 : }

  0001f	c2 04 00	 ret	 4
$L197914:

; 1364 : 	VERIFY_RANGE_ASSERT( nIndex, 0, m_aPropItem.GetSize(), "GetItemProp range_error", NULL );

  00022	8b 91 5c 02 00
	00		 mov	 edx, DWORD PTR [ecx+604]
  00028	50		 push	 eax
  00029	52		 push	 edx
  0002a	6a 00		 push	 0
  0002c	68 00 00 00 00	 push	 OFFSET FLAT:??_C@_0BI@BEIFNGEL@GetItemProp?5range_error?$AA@
  00031	68 00 00 00 00	 push	 OFFSET FLAT:??_C@_0BM@HMFGHCP@?$CFs?5min?3?$CFd?0?5max?3?$CFd?0?5index?3?$CFd?$AA@
  00036	e8 00 00 00 00	 call	 ?Error@@YAPBDPBDZZ	; Error
  0003b	83 c4 14	 add	 esp, 20			; 00000014H
$L272490:
  0003e	33 c0		 xor	 eax, eax

; 1366 : }

  00040	c2 04 00	 ret	 4
?GetItemProp@CProject@@QAEPAUItemProp@@H@Z ENDP		; CProject::GetItemProp
_TEXT	ENDS
PUBLIC	?GetPropA@CItem@@QAEPAUItemProp@@XZ		; CItem::GetPropA
; Function compile flags: /Ogty
; File c:\documents and settings\test\mes documents\source\virtuos_v17\build\program\_common\item.h
;	COMDAT ?GetPropA@CItem@@QAEPAUItemProp@@XZ
_TEXT	SEGMENT
?GetPropA@CItem@@QAEPAUItemProp@@XZ PROC NEAR		; CItem::GetPropA, COMDAT
; _this$ = ecx

; 991  : 	ItemProp* GetProp() { return prj.GetItemProp( GetIndex() ); }

  00000	8b 81 74 01 00
	00		 mov	 eax, DWORD PTR [ecx+372]
  00006	85 c0		 test	 eax, eax
  00008	8b 0d 5c 02 00
	00		 mov	 ecx, DWORD PTR ?prj@@3VCProject@@A+604
  0000e	7c 10		 jl	 SHORT $L272538
  00010	3b c1		 cmp	 eax, ecx
  00012	7d 0c		 jge	 SHORT $L272538
  00014	73 20		 jae	 SHORT $L272540
  00016	8b 0d 4c 02 00
	00		 mov	 ecx, DWORD PTR ?prj@@3VCProject@@A+588
  0001c	8b 04 81	 mov	 eax, DWORD PTR [ecx+eax*4]
  0001f	c3		 ret	 0
$L272538:
  00020	50		 push	 eax
  00021	51		 push	 ecx
  00022	6a 00		 push	 0
  00024	68 00 00 00 00	 push	 OFFSET FLAT:??_C@_0BI@BEIFNGEL@GetItemProp?5range_error?$AA@
  00029	68 00 00 00 00	 push	 OFFSET FLAT:??_C@_0BM@HMFGHCP@?$CFs?5min?3?$CFd?0?5max?3?$CFd?0?5index?3?$CFd?$AA@
  0002e	e8 00 00 00 00	 call	 ?Error@@YAPBDPBDZZ	; Error
  00033	83 c4 14	 add	 esp, 20			; 00000014H
$L272540:
  00036	33 c0		 xor	 eax, eax
  00038	c3		 ret	 0
?GetPropA@CItem@@QAEPAUItemProp@@XZ ENDP		; CItem::GetPropA
_TEXT	ENDS
PUBLIC	?SetStop@CMover@@QAEXXZ				; CMover::SetStop
; Function compile flags: /Ogty
; File c:\documents and settings\test\mes documents\source\virtuos_v17\build\program\_common\mover.h
;	COMDAT ?SetStop@CMover@@QAEXXZ
_TEXT	SEGMENT
?SetStop@CMover@@QAEXXZ PROC NEAR			; CMover::SetStop, COMDAT
; _this$ = ecx

; 1059 : 	void			SetStop()			{ SendActMsg( OBJMSG_STAND ); ClearDestObj(); } //  

  00000	56		 push	 esi
  00001	8b f1		 mov	 esi, ecx
  00003	8b 8e 3c 02 00
	00		 mov	 ecx, DWORD PTR [esi+572]
  00009	85 c9		 test	 ecx, ecx
  0000b	74 11		 je	 SHORT $L272552
  0000d	8b 01		 mov	 eax, DWORD PTR [ecx]
  0000f	6a 00		 push	 0
  00011	6a 00		 push	 0
  00013	6a 00		 push	 0
  00015	6a 00		 push	 0
  00017	6a 00		 push	 0
  00019	6a 03		 push	 3
  0001b	ff 50 04	 call	 DWORD PTR [eax+4]
$L272552:
  0001e	c7 86 5c 02 00
	00 ff ff ff ff	 mov	 DWORD PTR [esi+604], -1
  00028	c7 86 58 02 00
	00 00 00 00 00	 mov	 DWORD PTR [esi+600], 0
  00032	5e		 pop	 esi
  00033	c3		 ret	 0
?SetStop@CMover@@QAEXXZ ENDP				; CMover::SetStop
_TEXT	ENDS
PUBLIC	??0?$_String_val@DV?$allocator@D@std@@@std@@IAE@V?$allocator@D@1@@Z ; std::_String_val<char,std::allocator<char> >::_String_val<char,std::allocator<char> >
; Function compile flags: /Ogty
; File c:\program files\microsoft visual studio .net 2003\vc7\include\xstring
;	COMDAT ??0?$_String_val@DV?$allocator@D@std@@@std@@IAE@V?$allocator@D@1@@Z
_TEXT	SEGMENT
__Al$ = 8						; size = 1
??0?$_String_val@DV?$allocator@D@std@@@std@@IAE@V?$allocator@D@1@@Z PROC NEAR ; std::_String_val<char,std::allocator<char> >::_String_val<char,std::allocator<char> >, COMDAT
; _this$ = ecx

; 34   : 		{	// construct allocator from _Al

  00000	8b c1		 mov	 eax, ecx

; 35   : 		}

  00002	c2 04 00	 ret	 4
??0?$_String_val@DV?$allocator@D@std@@@std@@IAE@V?$allocator@D@1@@Z ENDP ; std::_String_val<char,std::allocator<char> >::_String_val<char,std::allocator<char> >
_TEXT	ENDS
PUBLIC	??0?$_Vector_val@KV?$allocator@K@std@@@std@@IAE@V?$allocator@K@1@@Z ; std::_Vector_val<unsigned long,std::allocator<unsigned long> >::_Vector_val<unsigned long,std::allocator<unsigned long> >
; Function compile flags: /Ogty
; File c:\program files\microsoft visual studio .net 2003\vc7\include\vector
;	COMDAT ??0?$_Vector_val@KV?$allocator@K@std@@@std@@IAE@V?$allocator@K@1@@Z
_TEXT	SEGMENT
__Al$ = 8						; size = 1
??0?$_Vector_val@KV?$allocator@K@std@@@std@@IAE@V?$allocator@K@1@@Z PROC NEAR ; std::_Vector_val<unsigned long,std::allocator<unsigned long> >::_Vector_val<unsigned long,std::allocator<unsigned long> >, COMDAT
; _this$ = ecx

; 21   : 		{	// construct allocator from _Al

  00000	8b c1		 mov	 eax, ecx

; 22   : 		}

  00002	c2 04 00	 ret	 4
??0?$_Vector_val@KV?$allocator@K@std@@@std@@IAE@V?$allocator@K@1@@Z ENDP ; std::_Vector_val<unsigned long,std::allocator<unsigned long> >::_Vector_val<unsigned long,std::allocator<unsigned long> >
_TEXT	ENDS
PUBLIC	?_Eos@?$basic_string@DU?$char_traits@D@std@@V?$allocator@D@2@@std@@IAEXI@Z ; std::basic_string<char,std::char_traits<char>,std::allocator<char> >::_Eos
; Function compile flags: /Ogty
; File c:\program files\microsoft visual studio .net 2003\vc7\include\xstring
;	COMDAT ?_Eos@?$basic_string@DU?$char_traits@D@std@@V?$allocator@D@2@@std@@IAEXI@Z
_TEXT	SEGMENT
__Newsize$ = 8						; size = 4
?_Eos@?$basic_string@DU?$char_traits@D@std@@V?$allocator@D@2@@std@@IAEXI@Z PROC NEAR ; std::basic_string<char,std::char_traits<char>,std::allocator<char> >::_Eos, COMDAT
; _this$ = ecx

; 1475 : 		_Traits::assign(_Myptr()[_Mysize = _Newsize], _Elem());

  00000	83 79 18 10	 cmp	 DWORD PTR [ecx+24], 16	; 00000010H
  00004	8b 44 24 04	 mov	 eax, DWORD PTR __Newsize$[esp-4]
  00008	89 41 14	 mov	 DWORD PTR [ecx+20], eax
  0000b	72 0a		 jb	 SHORT $L272573
  0000d	8b 49 04	 mov	 ecx, DWORD PTR [ecx+4]
  00010	c6 04 01 00	 mov	 BYTE PTR [ecx+eax], 0

; 1476 : 		}

  00014	c2 04 00	 ret	 4

; 1475 : 		_Traits::assign(_Myptr()[_Mysize = _Newsize], _Elem());

$L272573:
  00017	c6 44 01 04 00	 mov	 BYTE PTR [ecx+eax+4], 0

; 1476 : 		}

  0001c	c2 04 00	 ret	 4
?_Eos@?$basic_string@DU?$char_traits@D@std@@V?$allocator@D@2@@std@@IAEXI@Z ENDP ; std::basic_string<char,std::char_traits<char>,std::allocator<char> >::_Eos
_TEXT	ENDS
PUBLIC	?allocate@?$allocator@K@std@@QAEPAKI@Z		; std::allocator<unsigned long>::allocate
; Function compile flags: /Ogty
; File c:\program files\microsoft visual studio .net 2003\vc7\include\xmemory
;	COMDAT ?allocate@?$allocator@K@std@@QAEPAKI@Z
_TEXT	SEGMENT
__Count$ = 8						; size = 4
?allocate@?$allocator@K@std@@QAEPAKI@Z PROC NEAR	; std::allocator<unsigned long>::allocate, COMDAT
; _this$ = ecx

; 137  : 		return (_Allocate(_Count, (pointer)0));

  00000	8b 44 24 04	 mov	 eax, DWORD PTR __Count$[esp-4]
  00004	8d 0c 85 00 00
	00 00		 lea	 ecx, DWORD PTR [eax*4]
  0000b	51		 push	 ecx
  0000c	e8 00 00 00 00	 call	 ??2@YAPAXI@Z		; operator new
  00011	83 c4 04	 add	 esp, 4

; 138  : 		}

  00014	c2 04 00	 ret	 4
?allocate@?$allocator@K@std@@QAEPAKI@Z ENDP		; std::allocator<unsigned long>::allocate
_TEXT	ENDS
PUBLIC	?max_size@?$vector@KV?$allocator@K@std@@@std@@QBEIXZ ; std::vector<unsigned long,std::allocator<unsigned long> >::max_size
; Function compile flags: /Ogty
; File c:\program files\microsoft visual studio .net 2003\vc7\include\vector
;	COMDAT ?max_size@?$vector@KV?$allocator@K@std@@@std@@QBEIXZ
_TEXT	SEGMENT
?max_size@?$vector@KV?$allocator@K@std@@@std@@QBEIXZ PROC NEAR ; std::vector<unsigned long,std::allocator<unsigned long> >::max_size, COMDAT
; _this$ = ecx

; 521  : 		return (this->_Alval.max_size());

  00000	b8 ff ff ff 3f	 mov	 eax, 1073741823		; 3fffffffH

; 522  : 		}

  00005	c3		 ret	 0
?max_size@?$vector@KV?$allocator@K@std@@@std@@QBEIXZ ENDP ; std::vector<unsigned long,std::allocator<unsigned long> >::max_size
_TEXT	ENDS
PUBLIC	?_Destroy@?$vector@KV?$allocator@K@std@@@std@@IAEXPAK0@Z ; std::vector<unsigned long,std::allocator<unsigned long> >::_Destroy
; Function compile flags: /Ogty
;	COMDAT ?_Destroy@?$vector@KV?$allocator@K@std@@@std@@IAEXPAK0@Z
_TEXT	SEGMENT
__First$ = 8						; size = 4
__Last$ = 12						; size = 4
?_Destroy@?$vector@KV?$allocator@K@std@@@std@@IAEXPAK0@Z PROC NEAR ; std::vector<unsigned long,std::allocator<unsigned long> >::_Destroy, COMDAT
; _this$ = ecx

; 787  : 		_Destroy_range(_First, _Last, this->_Alval);
; 788  : 		}

  00000	c2 08 00	 ret	 8
?_Destroy@?$vector@KV?$allocator@K@std@@@std@@IAEXPAK0@Z ENDP ; std::vector<unsigned long,std::allocator<unsigned long> >::_Destroy
_TEXT	ENDS
PUBLIC	?max_size@?$basic_string@DU?$char_traits@D@std@@V?$allocator@D@2@@std@@QBEIXZ ; std::basic_string<char,std::char_traits<char>,std::allocator<char> >::max_size
; Function compile flags: /Ogty
; File c:\program files\microsoft visual studio .net 2003\vc7\include\xstring
;	COMDAT ?max_size@?$basic_string@DU?$char_traits@D@std@@V?$allocator@D@2@@std@@QBEIXZ
_TEXT	SEGMENT
?max_size@?$basic_string@DU?$char_traits@D@std@@V?$allocator@D@2@@std@@QBEIXZ PROC NEAR ; std::basic_string<char,std::char_traits<char>,std::allocator<char> >::max_size, COMDAT
; _this$ = ecx

; 1114 : 		size_type _Num = _Mybase::_Alval.max_size();
; 1115 : 		return (_Num <= 1 ? 1 : _Num - 1);

  00000	b8 fe ff ff ff	 mov	 eax, -2			; fffffffeH

; 1116 : 		}

  00005	c3		 ret	 0
?max_size@?$basic_string@DU?$char_traits@D@std@@V?$allocator@D@2@@std@@QBEIXZ ENDP ; std::basic_string<char,std::char_traits<char>,std::allocator<char> >::max_size
_TEXT	ENDS
PUBLIC	?allocate@?$allocator@D@std@@QAEPADI@Z		; std::allocator<char>::allocate
; Function compile flags: /Ogty
; File c:\program files\microsoft visual studio .net 2003\vc7\include\xmemory
;	COMDAT ?allocate@?$allocator@D@std@@QAEPADI@Z
_TEXT	SEGMENT
__Count$ = 8						; size = 4
?allocate@?$allocator@D@std@@QAEPADI@Z PROC NEAR	; std::allocator<char>::allocate, COMDAT
; _this$ = ecx

; 137  : 		return (_Allocate(_Count, (pointer)0));

  00000	8b 44 24 04	 mov	 eax, DWORD PTR __Count$[esp-4]
  00004	50		 push	 eax
  00005	e8 00 00 00 00	 call	 ??2@YAPAXI@Z		; operator new
  0000a	83 c4 04	 add	 esp, 4

; 138  : 		}

  0000d	c2 04 00	 ret	 4
?allocate@?$allocator@D@std@@QAEPADI@Z ENDP		; std::allocator<char>::allocate
_TEXT	ENDS
PUBLIC	?Init@CAIAggro@@IAEXXZ				; CAIAggro::Init
; Function compile flags: /Ogty
; File c:\documents and settings\test\mes documents\source\virtuos_v17\build\program\_aiinterface\aiaggro.cpp
;	COMDAT ?Init@CAIAggro@@IAEXXZ
_TEXT	SEGMENT
$T272621 = -12						; size = 12
?Init@CAIAggro@@IAEXXZ PROC NEAR			; CAIAggro::Init, COMDAT
; _this$ = ecx

; 88   : {

  00000	83 ec 0c	 sub	 esp, 12			; 0000000cH
  00003	56		 push	 esi
  00004	8b f1		 mov	 esi, ecx

; 89   : 	SetTarget( NULL_ID, 0 );

  00006	8b 4e 30	 mov	 ecx, DWORD PTR [esi+48]
  00009	57		 push	 edi
  0000a	33 ff		 xor	 edi, edi
  0000c	68 00 00 80 3f	 push	 1065353216		; 3f800000H
  00011	c7 86 e0 00 00
	00 ff ff ff ff	 mov	 DWORD PTR [esi+224], -1
  0001b	89 7e 34	 mov	 DWORD PTR [esi+52], edi
  0001e	e8 00 00 00 00	 call	 ?SetSpeedFactor@CMover@@QAEXM@Z ; CMover::SetSpeedFactor

; 90   : 	m_bReturnToBegin	= FALSE;
; 91   : 	m_bGoTarget		= FALSE;
; 92   : 	m_bTargetNoMovePos	= FALSE;
; 93   : 	m_dwAtkMethod	= 0;
; 94   : 	m_bFirstRunaway		= FALSE;
; 95   : 	m_bCallHelper	= FALSE;
; 96   : 	m_tmAttack	= TIMEGETTIME + s_tmAttack;

  00023	8b 0d 00 00 00
	00		 mov	 ecx, DWORD PTR _s_tmAttack
  00029	89 be c4 00 00
	00		 mov	 DWORD PTR [esi+196], edi
  0002f	89 be c8 00 00
	00		 mov	 DWORD PTR [esi+200], edi
  00035	89 be cc 00 00
	00		 mov	 DWORD PTR [esi+204], edi
  0003b	89 be e4 00 00
	00		 mov	 DWORD PTR [esi+228], edi
  00041	89 be d0 00 00
	00		 mov	 DWORD PTR [esi+208], edi
  00047	89 be d4 00 00
	00		 mov	 DWORD PTR [esi+212], edi
  0004d	a1 00 00 00 00	 mov	 eax, DWORD PTR ?g_tmCurrent@@3KA ; g_tmCurrent

; 97   : 	m_vOldPos.x	= m_vOldPos.y = m_vOldPos.z = 0;

  00052	89 7e 74	 mov	 DWORD PTR [esi+116], edi
  00055	89 7e 70	 mov	 DWORD PTR [esi+112], edi
  00058	89 7e 6c	 mov	 DWORD PTR [esi+108], edi

; 98   : 	m_bRangeAttack	= FALSE;

  0005b	89 be d8 00 00
	00		 mov	 DWORD PTR [esi+216], edi
  00061	03 c8		 add	 ecx, eax
  00063	89 4e 44	 mov	 DWORD PTR [esi+68], ecx

; 99   : 
; 100  : 	m_tmSummon = TIMEGETTIME;

  00066	8b 15 00 00 00
	00		 mov	 edx, DWORD PTR ?g_tmCurrent@@3KA ; g_tmCurrent
  0006c	89 56 48	 mov	 DWORD PTR [esi+72], edx

; 101  : 	m_tmHelp = 0;

  0006f	89 7e 4c	 mov	 DWORD PTR [esi+76], edi

; 102  : 
; 103  : 	m_bLootMove	= FALSE;

  00072	89 be dc 00 00
	00		 mov	 DWORD PTR [esi+220], edi

; 104  : 	m_idLootItem	= NULL_ID;

  00078	c7 86 f8 00 00
	00 ff ff ff ff	 mov	 DWORD PTR [esi+248], -1

; 105  : 	m_tmAttackDelay	= m_tmMove = m_tmReturnToBegin = TIMEGETTIME;

  00082	a1 00 00 00 00	 mov	 eax, DWORD PTR ?g_tmCurrent@@3KA ; g_tmCurrent
  00087	89 46 50	 mov	 DWORD PTR [esi+80], eax
  0008a	8b 0d 00 00 00
	00		 mov	 ecx, DWORD PTR ?g_tmCurrent@@3KA ; g_tmCurrent
  00090	89 4e 3c	 mov	 DWORD PTR [esi+60], ecx
  00093	8b 15 00 00 00
	00		 mov	 edx, DWORD PTR ?g_tmCurrent@@3KA ; g_tmCurrent
  00099	89 56 40	 mov	 DWORD PTR [esi+64], edx

; 106  : 	m_fAngleBegine	= 0.0f;

  0009c	89 be c0 00 00
	00		 mov	 DWORD PTR [esi+192], edi

; 107  : 
; 108  : 	m_vPosDamage	= D3DXVECTOR3( 0, 0, 0 );

  000a2	83 c6 78	 add	 esi, 120		; 00000078H
  000a5	8b c7		 mov	 eax, edi
  000a7	89 06		 mov	 DWORD PTR [esi], eax
  000a9	8b cf		 mov	 ecx, edi
  000ab	89 4e 04	 mov	 DWORD PTR [esi+4], ecx
  000ae	8b d7		 mov	 edx, edi
  000b0	89 7c 24 08	 mov	 DWORD PTR $T272621[esp+20], edi
  000b4	89 7c 24 0c	 mov	 DWORD PTR $T272621[esp+24], edi
  000b8	89 7c 24 10	 mov	 DWORD PTR $T272621[esp+28], edi
  000bc	5f		 pop	 edi
  000bd	89 56 08	 mov	 DWORD PTR [esi+8], edx
  000c0	5e		 pop	 esi

; 109  : }

  000c1	83 c4 0c	 add	 esp, 12			; 0000000cH
  000c4	c3		 ret	 0
?Init@CAIAggro@@IAEXXZ ENDP				; CAIAggro::Init
_TEXT	ENDS
PUBLIC	?SetStop@CAIAggro@@IAEXK@Z			; CAIAggro::SetStop
; Function compile flags: /Ogty
;	COMDAT ?SetStop@CAIAggro@@IAEXK@Z
_TEXT	SEGMENT
_dwTime$ = 8						; size = 4
?SetStop@CAIAggro@@IAEXK@Z PROC NEAR			; CAIAggro::SetStop, COMDAT
; _this$ = ecx

; 124  : 	m_tmMove = TIMEGETTIME + dwTime;

  00000	8b 15 00 00 00
	00		 mov	 edx, DWORD PTR ?g_tmCurrent@@3KA ; g_tmCurrent
  00006	8b 44 24 04	 mov	 eax, DWORD PTR _dwTime$[esp-4]
  0000a	03 d0		 add	 edx, eax
  0000c	56		 push	 esi

; 125  : 	GetMover()->SetStop(); 

  0000d	8b 71 30	 mov	 esi, DWORD PTR [ecx+48]
  00010	89 51 3c	 mov	 DWORD PTR [ecx+60], edx
  00013	8b 8e 3c 02 00
	00		 mov	 ecx, DWORD PTR [esi+572]
  00019	85 c9		 test	 ecx, ecx
  0001b	74 11		 je	 SHORT $L272659
  0001d	8b 01		 mov	 eax, DWORD PTR [ecx]
  0001f	6a 00		 push	 0
  00021	6a 00		 push	 0
  00023	6a 00		 push	 0
  00025	6a 00		 push	 0
  00027	6a 00		 push	 0
  00029	6a 03		 push	 3
  0002b	ff 50 04	 call	 DWORD PTR [eax+4]
$L272659:
  0002e	c7 86 5c 02 00
	00 ff ff ff ff	 mov	 DWORD PTR [esi+604], -1
  00038	c7 86 58 02 00
	00 00 00 00 00	 mov	 DWORD PTR [esi+600], 0
  00042	5e		 pop	 esi

; 126  : } 

  00043	c2 04 00	 ret	 4
?SetStop@CAIAggro@@IAEXK@Z ENDP				; CAIAggro::SetStop
_TEXT	ENDS
PUBLIC	?MoveToDst@CAIAggro@@IAEXK@Z			; CAIAggro::MoveToDst
EXTRN	?SetDestObj@CMover@@QAEXKMH@Z:NEAR		; CMover::SetDestObj
EXTRN	?AddMoverSetDestObj@CUserMng@@QAEXPAVCMover@@KMH@Z:NEAR ; CUserMng::AddMoverSetDestObj
; Function compile flags: /Ogty
;	COMDAT ?MoveToDst@CAIAggro@@IAEXK@Z
_TEXT	SEGMENT
_dwIdTarget$ = 8					; size = 4
?MoveToDst@CAIAggro@@IAEXK@Z PROC NEAR			; CAIAggro::MoveToDst, COMDAT
; _this$ = ecx

; 145  : {

  00000	53		 push	 ebx

; 146  : 	CMover* pMover = GetMover();
; 147  : 	if( pMover->GetDestId() == dwIdTarget )

  00001	8b 5c 24 08	 mov	 ebx, DWORD PTR _dwIdTarget$[esp]
  00005	56		 push	 esi
  00006	57		 push	 edi
  00007	8b f9		 mov	 edi, ecx
  00009	8b 77 30	 mov	 esi, DWORD PTR [edi+48]
  0000c	39 9e 5c 02 00
	00		 cmp	 DWORD PTR [esi+604], ebx
  00012	74 64		 je	 SHORT $L264567

; 148  : 		return;
; 149  : 
; 150  : 	GetMover()->SetSpeedFactor( 2.0F );

  00014	68 00 00 00 40	 push	 1073741824		; 40000000H
  00019	8b ce		 mov	 ecx, esi
  0001b	e8 00 00 00 00	 call	 ?SetSpeedFactor@CMover@@QAEXM@Z ; CMover::SetSpeedFactor

; 151  : 
; 152  : 	CMover* pTarget	= prj.GetMover( dwIdTarget );

  00020	53		 push	 ebx
  00021	b9 00 00 00 00	 mov	 ecx, OFFSET FLAT:?prj@@3VCProject@@A
  00026	e8 00 00 00 00	 call	 ?GetMover@CProject@@QAEPAVCMover@@K@Z ; CProject::GetMover

; 153  : 	if( IsValidObj( pTarget ) )

  0002b	85 c0		 test	 eax, eax
  0002d	74 2d		 je	 SHORT $L272699
  0002f	f6 40 04 01	 test	 BYTE PTR [eax+4], 1
  00033	75 27		 jne	 SHORT $L272699

; 154  : 		SetTarget( pTarget->GetId(), pTarget->m_idparty );

  00035	8b 88 bc 01 00
	00		 mov	 ecx, DWORD PTR [eax+444]
  0003b	83 f9 ff	 cmp	 ecx, -1
  0003e	8b 80 18 07 00
	00		 mov	 eax, DWORD PTR [eax+1816]
  00044	89 8f e0 00 00
	00		 mov	 DWORD PTR [edi+224], ecx
  0004a	89 47 34	 mov	 DWORD PTR [edi+52], eax
  0004d	75 0d		 jne	 SHORT $L272699
  0004f	8b 4f 30	 mov	 ecx, DWORD PTR [edi+48]
  00052	68 00 00 80 3f	 push	 1065353216		; 3f800000H
  00057	e8 00 00 00 00	 call	 ?SetSpeedFactor@CMover@@QAEXM@Z ; CMover::SetSpeedFactor
$L272699:

; 155  : 
; 156  : 	pMover->SetDestObj( dwIdTarget );

  0005c	6a 00		 push	 0
  0005e	6a 00		 push	 0
  00060	53		 push	 ebx
  00061	8b ce		 mov	 ecx, esi
  00063	e8 00 00 00 00	 call	 ?SetDestObj@CMover@@QAEXKMH@Z ; CMover::SetDestObj

; 157  : 	g_UserMng.AddMoverSetDestObj( (CMover*)pMover, dwIdTarget );

  00068	6a 00		 push	 0
  0006a	6a 00		 push	 0
  0006c	53		 push	 ebx
  0006d	56		 push	 esi
  0006e	b9 00 00 00 00	 mov	 ecx, OFFSET FLAT:?g_UserMng@@3VCUserMng@@A
  00073	e8 00 00 00 00	 call	 ?AddMoverSetDestObj@CUserMng@@QAEXPAVCMover@@KMH@Z ; CUserMng::AddMoverSetDestObj
$L264567:
  00078	5f		 pop	 edi
  00079	5e		 pop	 esi
  0007a	5b		 pop	 ebx

; 158  : }

  0007b	c2 04 00	 ret	 4
?MoveToDst@CAIAggro@@IAEXK@Z ENDP			; CAIAggro::MoveToDst
_TEXT	ENDS
PUBLIC	?SubItemLoot@CAIAggro@@IAEHXZ			; CAIAggro::SubItemLoot
PUBLIC	__real@42c80000
EXTRN	?AddDlgEmoticon@CUserMng@@QAEXPAVCCtrl@@H@Z:NEAR ; CUserMng::AddDlgEmoticon
;	COMDAT __real@42c80000
; File c:\documents and settings\test\mes documents\source\virtuos_v17\build\program\_common\ctrl.h
CONST	SEGMENT
__real@42c80000 DD 042c80000r			; 100
; Function compile flags: /Ogty
; File c:\documents and settings\test\mes documents\source\virtuos_v17\build\program\_aiinterface\aiaggro.cpp
CONST	ENDS
;	COMDAT ?SubItemLoot@CAIAggro@@IAEHXZ
_TEXT	SEGMENT
__i$264632 = -104					; size = 4
tv386 = -100						; size = 4
__nLinkXMax$264626 = -96				; size = 4
__nLinkZMax$264627 = -92				; size = 4
__k$264648 = -88					; size = 4
__pObjs$264636 = -88					; size = 4
__j$264644 = -84					; size = 4
__nMaxHeight$264622 = -84				; size = 4
tv750 = -80						; size = 4
__nX$264628 = -80					; size = 4
_pWorld$ = -76						; size = 4
__nLinkX$264616 = -72					; size = 4
tv428 = -68						; size = 4
__nLinkZ$264618 = -64					; size = 4
tv434 = -60						; size = 4
tv753 = -56						; size = 4
_this$ = -52						; size = 4
_vDist$ = -48						; size = 12
_vPos$ = -48						; size = 12
$T272705 = -36						; size = 12
$T272706 = -24						; size = 12
$T272708 = -12						; size = 12
$T272707 = -12						; size = 12
?SubItemLoot@CAIAggro@@IAEHXZ PROC NEAR			; CAIAggro::SubItemLoot, COMDAT
; _this$ = ecx

; 213  : {

  00000	83 ec 68	 sub	 esp, 104		; 00000068H
  00003	53		 push	 ebx
  00004	55		 push	 ebp

; 214  : 	CMover* pMover = GetMover();

  00005	8b 69 30	 mov	 ebp, DWORD PTR [ecx+48]

; 215  : 	CWorld* pWorld = GetWorld();
; 216  : 	MoverProp *pProp = pMover->GetProp();

  00008	8b 85 74 01 00
	00		 mov	 eax, DWORD PTR [ebp+372]
  0000e	85 c0		 test	 eax, eax
  00010	8b 9d 6c 01 00
	00		 mov	 ebx, DWORD PTR [ebp+364]
  00016	89 4c 24 3c	 mov	 DWORD PTR _this$[esp+112], ecx
  0001a	8b 0d d0 01 00
	00		 mov	 ecx, DWORD PTR ?prj@@3VCProject@@A+464
  00020	89 6c 24 0c	 mov	 DWORD PTR tv386[esp+112], ebp
  00024	89 5c 24 24	 mov	 DWORD PTR _pWorld$[esp+112], ebx
  00028	7c 04		 jl	 SHORT $L272746
  0002a	3b c1		 cmp	 eax, ecx
  0002c	7c 16		 jl	 SHORT $L272741
$L272746:
  0002e	50		 push	 eax
  0002f	51		 push	 ecx
  00030	6a 00		 push	 0
  00032	68 00 00 00 00	 push	 OFFSET FLAT:??_C@_0BJ@GKPOBPPI@GetMoverProp?5range_error?$AA@
  00037	68 00 00 00 00	 push	 OFFSET FLAT:??_C@_0BM@HMFGHCP@?$CFs?5min?3?$CFd?0?5max?3?$CFd?0?5index?3?$CFd?$AA@
  0003c	e8 00 00 00 00	 call	 ?Error@@YAPBDPBDZZ	; Error
  00041	83 c4 14	 add	 esp, 20			; 00000014H
$L272741:

; 217  : 	D3DXVECTOR3 vPos = pMover->GetPos();
; 218  : 	CObj *pObj = NULL;
; 219  : 	int nRange = 0;
; 220  : 	D3DXVECTOR3 vDist;
; 221  : 	FLOAT fDistSq;
; 222  : 	CObj *pMinObj = NULL;
; 223  : 
; 224  : 	FOR_LINKMAP( pWorld, vPos, pObj, nRange, CObj::linkDynamic, pMover->GetLayer() )

  00044	db 43 14	 fild	 DWORD PTR [ebx+20]
  00047	8d 85 60 01 00
	00		 lea	 eax, DWORD PTR [ebp+352]
  0004d	8b 08		 mov	 ecx, DWORD PTR [eax]
  0004f	8b 50 04	 mov	 edx, DWORD PTR [eax+4]
  00052	d8 3d 00 00 00
	00		 fdivr	 DWORD PTR __real@3f800000
  00058	8b 40 08	 mov	 eax, DWORD PTR [eax+8]
  0005b	89 4c 24 40	 mov	 DWORD PTR _vPos$[esp+112], ecx
  0005f	89 54 24 44	 mov	 DWORD PTR _vPos$[esp+116], edx
  00063	89 44 24 48	 mov	 DWORD PTR _vPos$[esp+120], eax
  00067	d9 44 24 40	 fld	 DWORD PTR _vPos$[esp+112]
  0006b	d8 c9		 fmul	 ST(0), ST(1)
  0006d	e8 00 00 00 00	 call	 __ftol2
  00072	d8 4c 24 48	 fmul	 DWORD PTR _vPos$[esp+120]
  00076	89 44 24 28	 mov	 DWORD PTR __nLinkX$264616[esp+112], eax
  0007a	e8 00 00 00 00	 call	 __ftol2
  0007f	89 44 24 30	 mov	 DWORD PTR __nLinkZ$264618[esp+112], eax
  00083	8b 85 b8 01 00
	00		 mov	 eax, DWORD PTR [ebp+440]
  00089	50		 push	 eax
  0008a	8d 4b 24	 lea	 ecx, DWORD PTR [ebx+36]
  0008d	6a 01		 push	 1
  0008f	c7 44 24 10 00
	00 00 00	 mov	 DWORD PTR __i$264632[esp+120], 0
  00097	e8 00 00 00 00	 call	 ?GetMaxLinkLevel@CLayeredLinkMap@@QAEHKH@Z ; CLayeredLinkMap::GetMaxLinkLevel
  0009c	85 c0		 test	 eax, eax
  0009e	0f 8e 68 03 00
	00		 jle	 $L272884
  000a4	d9 44 24 40	 fld	 DWORD PTR _vPos$[esp+112]
  000a8	56		 push	 esi
  000a9	57		 push	 edi
  000aa	e8 00 00 00 00	 call	 __ftol2
  000af	d9 44 24 50	 fld	 DWORD PTR _vPos$[esp+128]
  000b3	89 44 24 34	 mov	 DWORD PTR tv428[esp+120], eax
  000b7	e8 00 00 00 00	 call	 __ftol2
  000bc	89 44 24 3c	 mov	 DWORD PTR tv434[esp+120], eax
  000c0	eb 0e		 jmp	 SHORT $L264633
$L272885:
  000c2	8b 5c 24 2c	 mov	 ebx, DWORD PTR _pWorld$[esp+120]
  000c6	8b 6c 24 14	 mov	 ebp, DWORD PTR tv386[esp+120]
  000ca	8d 9b 00 00 00
	00		 npad	 6
$L264633:
  000d0	8b 85 b8 01 00
	00		 mov	 eax, DWORD PTR [ebp+440]
  000d6	8b 4c 24 10	 mov	 ecx, DWORD PTR __i$264632[esp+120]
  000da	50		 push	 eax
  000db	51		 push	 ecx
  000dc	8d 7b 24	 lea	 edi, DWORD PTR [ebx+36]
  000df	6a 01		 push	 1
  000e1	8b cf		 mov	 ecx, edi
  000e3	e8 00 00 00 00	 call	 ?GetLinkWidth@CLayeredLinkMap@@QAEHKHH@Z ; CLayeredLinkMap::GetLinkWidth
  000e8	8b ad b8 01 00
	00		 mov	 ebp, DWORD PTR [ebp+440]
  000ee	8b 54 24 10	 mov	 edx, DWORD PTR __i$264632[esp+120]
  000f2	55		 push	 ebp
  000f3	52		 push	 edx
  000f4	6a 01		 push	 1
  000f6	8b cf		 mov	 ecx, edi
  000f8	8b f0		 mov	 esi, eax
  000fa	e8 00 00 00 00	 call	 ?GetObj@CLayeredLinkMap@@QAEPAPAVCObj@@KKH@Z ; CLayeredLinkMap::GetObj
  000ff	89 44 24 20	 mov	 DWORD PTR __pObjs$264636[esp+120], eax
  00103	8b 43 04	 mov	 eax, DWORD PTR [ebx+4]
  00106	8b f8		 mov	 edi, eax
  00108	c1 e0 07	 shl	 eax, 7
  0010b	0f af fe	 imul	 edi, esi
  0010e	99		 cdq
  0010f	f7 ff		 idiv	 edi
  00111	8b 4b 08	 mov	 ecx, DWORD PTR [ebx+8]
  00114	8b 5b 14	 mov	 ebx, DWORD PTR [ebx+20]
  00117	0f af ce	 imul	 ecx, esi
  0011a	89 4c 24 24	 mov	 DWORD PTR __nMaxHeight$264622[esp+120], ecx
  0011e	8b c8		 mov	 ecx, eax
  00120	8b c3		 mov	 eax, ebx
  00122	0f af c1	 imul	 eax, ecx
  00125	99		 cdq
  00126	2b c2		 sub	 eax, edx
  00128	8b f0		 mov	 esi, eax
  0012a	8b 44 24 30	 mov	 eax, DWORD PTR __nLinkX$264616[esp+120]
  0012e	99		 cdq
  0012f	f7 f9		 idiv	 ecx
  00131	8b 54 24 34	 mov	 edx, DWORD PTR tv428[esp+120]
  00135	d1 fe		 sar	 esi, 1
  00137	8b e8		 mov	 ebp, eax
  00139	0f af c3	 imul	 eax, ebx
  0013c	0f af c1	 imul	 eax, ecx
  0013f	2b d0		 sub	 edx, eax
  00141	33 c0		 xor	 eax, eax
  00143	3b d6		 cmp	 edx, esi
  00145	0f 9f c0	 setg	 al
  00148	89 44 24 28	 mov	 DWORD PTR __nX$264628[esp+120], eax
  0014c	8b 44 24 38	 mov	 eax, DWORD PTR __nLinkZ$264618[esp+120]
  00150	99		 cdq
  00151	f7 f9		 idiv	 ecx
  00153	8b d0		 mov	 edx, eax
  00155	0f af d3	 imul	 edx, ebx
  00158	0f af d1	 imul	 edx, ecx
  0015b	8b 4c 24 3c	 mov	 ecx, DWORD PTR tv434[esp+120]
  0015f	2b ca		 sub	 ecx, edx
  00161	33 d2		 xor	 edx, edx
  00163	3b ce		 cmp	 ecx, esi
  00165	0f 9f c2	 setg	 dl
  00168	8b ca		 mov	 ecx, edx
  0016a	8b 54 24 28	 mov	 edx, DWORD PTR __nX$264628[esp+120]
  0016e	03 ea		 add	 ebp, edx
  00170	8d 5d ff	 lea	 ebx, DWORD PTR [ebp-1]
  00173	85 db		 test	 ebx, ebx
  00175	7d 02		 jge	 SHORT $L264640
  00177	33 db		 xor	 ebx, ebx
$L264640:
  00179	03 c8		 add	 ecx, eax
  0017b	8d 41 ff	 lea	 eax, DWORD PTR [ecx-1]
  0017e	85 c0		 test	 eax, eax
  00180	7d 02		 jge	 SHORT $L264641
  00182	33 c0		 xor	 eax, eax
$L264641:
  00184	3b ef		 cmp	 ebp, edi
  00186	89 6c 24 18	 mov	 DWORD PTR __nLinkXMax$264626[esp+120], ebp
  0018a	7c 07		 jl	 SHORT $L264642
  0018c	8d 57 ff	 lea	 edx, DWORD PTR [edi-1]
  0018f	89 54 24 18	 mov	 DWORD PTR __nLinkXMax$264626[esp+120], edx
$L264642:
  00193	8b d1		 mov	 edx, ecx
  00195	8b 4c 24 24	 mov	 ecx, DWORD PTR __nMaxHeight$264622[esp+120]
  00199	3b d1		 cmp	 edx, ecx
  0019b	89 54 24 1c	 mov	 DWORD PTR __nLinkZMax$264627[esp+120], edx
  0019f	7c 05		 jl	 SHORT $L264643
  001a1	49		 dec	 ecx
  001a2	89 4c 24 1c	 mov	 DWORD PTR __nLinkZMax$264627[esp+120], ecx
$L264643:
  001a6	3b 44 24 1c	 cmp	 eax, DWORD PTR __nLinkZMax$264627[esp+120]
  001aa	89 44 24 24	 mov	 DWORD PTR __j$264644[esp+120], eax
  001ae	0f 8f 9f 01 00
	00		 jg	 $L264634
  001b4	8b 54 24 20	 mov	 edx, DWORD PTR __pObjs$264636[esp+120]
  001b8	0f af c7	 imul	 eax, edi
  001bb	8d 0c bd 00 00
	00 00		 lea	 ecx, DWORD PTR [edi*4]
  001c2	03 c3		 add	 eax, ebx
  001c4	8d 04 82	 lea	 eax, DWORD PTR [edx+eax*4]
  001c7	89 4c 24 40	 mov	 DWORD PTR tv753[esp+120], ecx
  001cb	8b 0d 5c 02 00
	00		 mov	 ecx, DWORD PTR ?prj@@3VCProject@@A+604
  001d1	89 44 24 28	 mov	 DWORD PTR tv750[esp+120], eax
  001d5	eb 09 8d a4 24
	00 00 00 00 8b
	ff		 npad	 11
$L264645:
  001e0	3b 5c 24 18	 cmp	 ebx, DWORD PTR __nLinkXMax$264626[esp+120]
  001e4	89 5c 24 20	 mov	 DWORD PTR __k$264648[esp+120], ebx
  001e8	0f 8f 42 01 00
	00		 jg	 $L264646
  001ee	8b f8		 mov	 edi, eax
$L264649:
  001f0	8b 37		 mov	 esi, DWORD PTR [edi]
  001f2	85 f6		 test	 esi, esi
  001f4	bd e8 03 00 00	 mov	 ebp, 1000		; 000003e8H
  001f9	0f 84 19 01 00
	00		 je	 $L264650
  001ff	90		 npad	 1
$L264654:
  00200	8b c5		 mov	 eax, ebp
  00202	4d		 dec	 ebp
  00203	85 c0		 test	 eax, eax
  00205	0f 84 0d 01 00
	00		 je	 $L264650

; 225  : 	{
; 226  : 		if( pObj->GetType() == OT_ITEM )

  0020b	83 be 70 01 00
	00 04		 cmp	 DWORD PTR [esi+368], 4
  00212	0f 85 f2 00 00
	00		 jne	 $L264663

; 227  : 		{
; 228  : 			ItemProp* pItemProp	= ( (CItem*)pObj )->GetProp();

  00218	8b 86 74 01 00
	00		 mov	 eax, DWORD PTR [esi+372]
  0021e	85 c0		 test	 eax, eax
  00220	0f 8c 72 01 00
	00		 jl	 $L272830
  00226	3b c1		 cmp	 eax, ecx
  00228	0f 8d 6a 01 00
	00		 jge	 $L272830
  0022e	0f 82 56 01 00
	00		 jb	 $L272842
  00234	33 c0		 xor	 eax, eax
$L272824:

; 229  : 			if( pItemProp && pItemProp->dwItemKind3 != IK3_QUEST && pItemProp->dwItemKind1 != IK1_GOLD
; 230  : #ifdef __EVENT_0117
; 231  : 				&& pItemProp->dwID != II_SYS_SYS_SCR_BXPIG
; 232  : 				&& pItemProp->dwID != II_SYS_SYS_SCR_BXPIG_TWN
; 233  : #endif	// __EVENT_0117
; 234  : 				)

  00236	85 c0		 test	 eax, eax
  00238	0f 84 cc 00 00
	00		 je	 $L264663
  0023e	83 78 78 2b	 cmp	 DWORD PTR [eax+120], 43	; 0000002bH
  00242	0f 84 c2 00 00
	00		 je	 $L264663
  00248	83 78 70 0c	 cmp	 DWORD PTR [eax+112], 12	; 0000000cH
  0024c	0f 84 b8 00 00
	00		 je	 $L264663
  00252	8b 00		 mov	 eax, DWORD PTR [eax]
  00254	3d 29 67 00 00	 cmp	 eax, 26409		; 00006729H
  00259	0f 84 ab 00 00
	00		 je	 $L264663
  0025f	3d 2c 67 00 00	 cmp	 eax, 26412		; 0000672cH
  00264	0f 84 a0 00 00
	00		 je	 $L264663

; 235  : 			{
; 236  : 				vDist = pObj->GetPos() - pMover->GetPos();

  0026a	8b 44 24 14	 mov	 eax, DWORD PTR tv386[esp+120]
  0026e	05 60 01 00 00	 add	 eax, 352		; 00000160H
  00273	8b 10		 mov	 edx, DWORD PTR [eax]
  00275	89 54 24 60	 mov	 DWORD PTR $T272706[esp+120], edx
  00279	8b 50 04	 mov	 edx, DWORD PTR [eax+4]
  0027c	8b 40 08	 mov	 eax, DWORD PTR [eax+8]
  0027f	89 54 24 64	 mov	 DWORD PTR $T272706[esp+124], edx
  00283	89 44 24 68	 mov	 DWORD PTR $T272706[esp+128], eax
  00287	8d 96 60 01 00
	00		 lea	 edx, DWORD PTR [esi+352]
  0028d	8b 02		 mov	 eax, DWORD PTR [edx]
  0028f	89 44 24 54	 mov	 DWORD PTR $T272705[esp+120], eax
  00293	d9 44 24 54	 fld	 DWORD PTR $T272705[esp+120]
  00297	d8 64 24 60	 fsub	 DWORD PTR $T272706[esp+120]
  0029b	8b 42 04	 mov	 eax, DWORD PTR [edx+4]
  0029e	8b 52 08	 mov	 edx, DWORD PTR [edx+8]
  002a1	89 44 24 58	 mov	 DWORD PTR $T272705[esp+124], eax
  002a5	d9 5c 24 6c	 fstp	 DWORD PTR $T272707[esp+120]
  002a9	8b 44 24 6c	 mov	 eax, DWORD PTR $T272707[esp+120]
  002ad	d9 44 24 58	 fld	 DWORD PTR $T272705[esp+124]
  002b1	89 54 24 5c	 mov	 DWORD PTR $T272705[esp+128], edx
  002b5	d8 64 24 64	 fsub	 DWORD PTR $T272706[esp+124]
  002b9	89 44 24 48	 mov	 DWORD PTR _vDist$[esp+120], eax
  002bd	d9 5c 24 70	 fstp	 DWORD PTR $T272707[esp+124]
  002c1	8b 54 24 70	 mov	 edx, DWORD PTR $T272707[esp+124]
  002c5	d9 44 24 5c	 fld	 DWORD PTR $T272705[esp+128]
  002c9	89 54 24 4c	 mov	 DWORD PTR _vDist$[esp+124], edx
  002cd	d8 64 24 68	 fsub	 DWORD PTR $T272706[esp+128]
  002d1	d9 5c 24 74	 fstp	 DWORD PTR $T272707[esp+128]
  002d5	8b 44 24 74	 mov	 eax, DWORD PTR $T272707[esp+128]
  002d9	89 44 24 50	 mov	 DWORD PTR _vDist$[esp+128], eax

; 237  : 				fDistSq = D3DXVec3LengthSq( &vDist );

  002dd	d9 44 24 50	 fld	 DWORD PTR _vDist$[esp+128]
  002e1	d8 4c 24 50	 fmul	 DWORD PTR _vDist$[esp+128]
  002e5	d9 44 24 4c	 fld	 DWORD PTR _vDist$[esp+124]
  002e9	d8 4c 24 4c	 fmul	 DWORD PTR _vDist$[esp+124]

; 255  : 	}
; 256  : 
; 257  : 	return TRUE;

  002ed	de c1		 faddp	 ST(1), ST(0)
  002ef	d9 44 24 48	 fld	 DWORD PTR _vDist$[esp+120]
  002f3	d8 4c 24 48	 fmul	 DWORD PTR _vDist$[esp+120]
  002f7	de c1		 faddp	 ST(1), ST(0)
  002f9	d8 1d 00 00 00
	00		 fcomp	 DWORD PTR __real@42c80000
  002ff	df e0		 fnstsw	 ax
  00301	f6 c4 05	 test	 ah, 5
  00304	0f 8b af 00 00
	00		 jnp	 $L272878
$L264663:

; 238  : 				if( fDistSq < 10.0f * 10.0f )
; 239  : 				{
; 240  : 					pMinObj = pObj;			
; 241  : 					goto NEXT;
; 242  : 				}
; 243  : 			}
; 244  : 		}
; 245  : 	}
; 246  : 	END_LINKMAP

  0030a	8b b6 80 01 00
	00		 mov	 esi, DWORD PTR [esi+384]
  00310	85 f6		 test	 esi, esi
  00312	0f 85 e8 fe ff
	ff		 jne	 $L264654
$L264650:

; 217  : 	D3DXVECTOR3 vPos = pMover->GetPos();
; 218  : 	CObj *pObj = NULL;
; 219  : 	int nRange = 0;
; 220  : 	D3DXVECTOR3 vDist;
; 221  : 	FLOAT fDistSq;
; 222  : 	CObj *pMinObj = NULL;
; 223  : 
; 224  : 	FOR_LINKMAP( pWorld, vPos, pObj, nRange, CObj::linkDynamic, pMover->GetLayer() )

  00318	8b 44 24 20	 mov	 eax, DWORD PTR __k$264648[esp+120]
  0031c	8b 54 24 18	 mov	 edx, DWORD PTR __nLinkXMax$264626[esp+120]
  00320	40		 inc	 eax
  00321	83 c7 04	 add	 edi, 4
  00324	3b c2		 cmp	 eax, edx
  00326	89 44 24 20	 mov	 DWORD PTR __k$264648[esp+120], eax
  0032a	0f 8e c0 fe ff
	ff		 jle	 $L264649
$L264646:
  00330	8b 54 24 24	 mov	 edx, DWORD PTR __j$264644[esp+120]
  00334	8b 44 24 28	 mov	 eax, DWORD PTR tv750[esp+120]
  00338	8b 7c 24 40	 mov	 edi, DWORD PTR tv753[esp+120]
  0033c	8b 74 24 1c	 mov	 esi, DWORD PTR __nLinkZMax$264627[esp+120]
  00340	42		 inc	 edx
  00341	03 c7		 add	 eax, edi
  00343	3b d6		 cmp	 edx, esi
  00345	89 54 24 24	 mov	 DWORD PTR __j$264644[esp+120], edx
  00349	89 44 24 28	 mov	 DWORD PTR tv750[esp+120], eax
  0034d	0f 8e 8d fe ff
	ff		 jle	 $L264645
$L264634:
  00353	8b 4c 24 14	 mov	 ecx, DWORD PTR tv386[esp+120]
  00357	8b 81 b8 01 00
	00		 mov	 eax, DWORD PTR [ecx+440]
  0035d	8b 74 24 10	 mov	 esi, DWORD PTR __i$264632[esp+120]
  00361	8b 4c 24 2c	 mov	 ecx, DWORD PTR _pWorld$[esp+120]
  00365	50		 push	 eax
  00366	46		 inc	 esi
  00367	6a 01		 push	 1
  00369	83 c1 24	 add	 ecx, 36			; 00000024H
  0036c	89 74 24 18	 mov	 DWORD PTR __i$264632[esp+128], esi
  00370	e8 00 00 00 00	 call	 ?GetMaxLinkLevel@CLayeredLinkMap@@QAEHKH@Z ; CLayeredLinkMap::GetMaxLinkLevel
  00375	3b f0		 cmp	 esi, eax
  00377	0f 8c 45 fd ff
	ff		 jl	 $L272885
  0037d	5f		 pop	 edi
  0037e	5e		 pop	 esi
  0037f	5d		 pop	 ebp

; 255  : 	}
; 256  : 
; 257  : 	return TRUE;

  00380	b8 01 00 00 00	 mov	 eax, 1
  00385	5b		 pop	 ebx

; 258  : }

  00386	83 c4 68	 add	 esp, 104		; 00000068H
  00389	c3		 ret	 0

; 227  : 		{
; 228  : 			ItemProp* pItemProp	= ( (CItem*)pObj )->GetProp();

$L272842:
  0038a	8b 15 4c 02 00
	00		 mov	 edx, DWORD PTR ?prj@@3VCProject@@A+588
  00390	8b 04 82	 mov	 eax, DWORD PTR [edx+eax*4]
  00393	e9 9e fe ff ff	 jmp	 $L272824
$L272830:
  00398	50		 push	 eax
  00399	51		 push	 ecx
  0039a	6a 00		 push	 0
  0039c	68 00 00 00 00	 push	 OFFSET FLAT:??_C@_0BI@BEIFNGEL@GetItemProp?5range_error?$AA@
  003a1	68 00 00 00 00	 push	 OFFSET FLAT:??_C@_0BM@HMFGHCP@?$CFs?5min?3?$CFd?0?5max?3?$CFd?0?5index?3?$CFd?$AA@
  003a6	e8 00 00 00 00	 call	 ?Error@@YAPBDPBDZZ	; Error

; 229  : 			if( pItemProp && pItemProp->dwItemKind3 != IK3_QUEST && pItemProp->dwItemKind1 != IK1_GOLD
; 230  : #ifdef __EVENT_0117
; 231  : 				&& pItemProp->dwID != II_SYS_SYS_SCR_BXPIG
; 232  : 				&& pItemProp->dwID != II_SYS_SYS_SCR_BXPIG_TWN
; 233  : #endif	// __EVENT_0117
; 234  : 				)

  003ab	8b 0d 5c 02 00
	00		 mov	 ecx, DWORD PTR ?prj@@3VCProject@@A+604
  003b1	83 c4 14	 add	 esp, 20			; 00000014H
  003b4	e9 51 ff ff ff	 jmp	 $L264663
$L272878:

; 247  : 
; 248  : NEXT:
; 249  : 	if( pMinObj )
; 250  : 	{
; 251  : 		MoveToDst( pMinObj->GetPos() );

  003b9	8b 7c 24 44	 mov	 edi, DWORD PTR _this$[esp+120]
  003bd	8d 96 60 01 00
	00		 lea	 edx, DWORD PTR [esi+352]
  003c3	8b 02		 mov	 eax, DWORD PTR [edx]
  003c5	8b 4a 04	 mov	 ecx, DWORD PTR [edx+4]
  003c8	8b 52 08	 mov	 edx, DWORD PTR [edx+8]
  003cb	89 44 24 6c	 mov	 DWORD PTR $T272708[esp+120], eax
  003cf	8d 44 24 6c	 lea	 eax, DWORD PTR $T272708[esp+120]
  003d3	89 4c 24 70	 mov	 DWORD PTR $T272708[esp+124], ecx
  003d7	50		 push	 eax
  003d8	8b cf		 mov	 ecx, edi
$NEXT$264664:
  003da	89 54 24 78	 mov	 DWORD PTR $T272708[esp+132], edx
  003de	e8 00 00 00 00	 call	 ?MoveToDst@CAIAggro@@IAEXABUD3DXVECTOR3@@@Z ; CAIAggro::MoveToDst

; 252  : 		m_idLootItem = ((CItem *)pMinObj)->GetId();

  003e3	8b 8e bc 01 00
	00		 mov	 ecx, DWORD PTR [esi+444]

; 253  : 		m_bLootMove = TRUE;
; 254  : 		g_UserMng.AddDlgEmoticon( pMover, DLGEMOT_LOOT );

  003e9	8b 54 24 14	 mov	 edx, DWORD PTR tv386[esp+120]
  003ed	6a 05		 push	 5
  003ef	89 8f f8 00 00
	00		 mov	 DWORD PTR [edi+248], ecx
  003f5	52		 push	 edx
  003f6	b9 00 00 00 00	 mov	 ecx, OFFSET FLAT:?g_UserMng@@3VCUserMng@@A
  003fb	c7 87 dc 00 00
	00 01 00 00 00	 mov	 DWORD PTR [edi+220], 1
  00405	e8 00 00 00 00	 call	 ?AddDlgEmoticon@CUserMng@@QAEXPAVCCtrl@@H@Z ; CUserMng::AddDlgEmoticon
  0040a	5f		 pop	 edi
  0040b	5e		 pop	 esi
$L272884:
  0040c	5d		 pop	 ebp

; 255  : 	}
; 256  : 
; 257  : 	return TRUE;

  0040d	b8 01 00 00 00	 mov	 eax, 1
  00412	5b		 pop	 ebx

; 258  : }

  00413	83 c4 68	 add	 esp, 104		; 00000068H
  00416	c3		 ret	 0
?SubItemLoot@CAIAggro@@IAEHXZ ENDP			; CAIAggro::SubItemLoot
_TEXT	ENDS
PUBLIC	?DoReturnToBegin@CAIAggro@@IAEXH@Z		; CAIAggro::DoReturnToBegin
EXTRN	?SetPointParam@CMover@@QAEXHHH@Z:NEAR		; CMover::SetPointParam
EXTRN	?GetMaxHitPoint@CMover@@QAEHXZ:NEAR		; CMover::GetMaxHitPoint
EXTRN	?RemoveAllEnemies@CMover@@QAEXXZ:NEAR		; CMover::RemoveAllEnemies
; Function compile flags: /Ogty
;	COMDAT ?DoReturnToBegin@CAIAggro@@IAEXH@Z
_TEXT	SEGMENT
_bReturn$ = 8						; size = 4
?DoReturnToBegin@CAIAggro@@IAEXH@Z PROC NEAR		; CAIAggro::DoReturnToBegin, COMDAT
; _this$ = ecx

; 266  : {

  00000	56		 push	 esi
  00001	8b f1		 mov	 esi, ecx

; 267  : #ifndef __CLIENT
; 268  : 	if( m_dwIdTarget != NULL_ID && m_dwIdTarget != NULL )

  00003	8b 86 e0 00 00
	00		 mov	 eax, DWORD PTR [esi+224]
  00009	83 f8 ff	 cmp	 eax, -1
  0000c	74 35		 je	 SHORT $L272903
  0000e	85 c0		 test	 eax, eax
  00010	74 31		 je	 SHORT $L272903

; 269  : 	{
; 270  : 		CMover* pAggro = prj.GetMover( m_dwIdTarget );

  00012	50		 push	 eax
  00013	b9 00 00 00 00	 mov	 ecx, OFFSET FLAT:?prj@@3VCProject@@A
  00018	e8 00 00 00 00	 call	 ?GetMover@CProject@@QAEPAVCMover@@K@Z ; CProject::GetMover

; 271  : 		if( pAggro && pAggro->IsPlayer() )

  0001d	85 c0		 test	 eax, eax
  0001f	74 22		 je	 SHORT $L272903
  00021	8b 88 34 02 00
	00		 mov	 ecx, DWORD PTR [eax+564]
  00027	85 c9		 test	 ecx, ecx
  00029	74 18		 je	 SHORT $L272903

; 272  : 			pAggro->SetAggro( pAggro->GetAggro() - 1 );

  0002b	8b 88 88 11 00
	00		 mov	 ecx, DWORD PTR [eax+4488]
  00031	49		 dec	 ecx
  00032	ba 00 00 00 00	 mov	 edx, 0
  00037	0f 98 c2	 sets	 dl
  0003a	4a		 dec	 edx
  0003b	23 d1		 and	 edx, ecx
  0003d	89 90 88 11 00
	00		 mov	 DWORD PTR [eax+4488], edx
$L272903:

; 273  : 	}
; 274  : #endif
; 275  : 	if( bReturn )

  00043	8b 44 24 08	 mov	 eax, DWORD PTR _bReturn$[esp]
  00047	85 c0		 test	 eax, eax

; 276  : 	{
; 277  : 		m_bReturnToBegin	= TRUE;
; 278  : 		m_tmReturnToBegin	= TIMEGETTIME;
; 279  : 		SetTarget( NULL_ID, 0 );

  00049	8b 4e 30	 mov	 ecx, DWORD PTR [esi+48]
  0004c	68 00 00 80 3f	 push	 1065353216		; 3f800000H
  00051	74 44		 je	 SHORT $L264680
  00053	c7 86 c4 00 00
	00 01 00 00 00	 mov	 DWORD PTR [esi+196], 1
  0005d	a1 00 00 00 00	 mov	 eax, DWORD PTR ?g_tmCurrent@@3KA ; g_tmCurrent
  00062	89 46 50	 mov	 DWORD PTR [esi+80], eax
  00065	c7 86 e0 00 00
	00 ff ff ff ff	 mov	 DWORD PTR [esi+224], -1
  0006f	c7 46 34 00 00
	00 00		 mov	 DWORD PTR [esi+52], 0
  00076	e8 00 00 00 00	 call	 ?SetSpeedFactor@CMover@@QAEXM@Z ; CMover::SetSpeedFactor

; 280  : 
; 281  : 		CMover* pMover	= GetMover();
; 282  : 		pMover->SetSpeedFactor( 2.66F );

  0007b	8b 4e 30	 mov	 ecx, DWORD PTR [esi+48]
  0007e	68 71 3d 2a 40	 push	 1076510065		; 402a3d71H
  00083	e8 00 00 00 00	 call	 ?SetSpeedFactor@CMover@@QAEXM@Z ; CMover::SetSpeedFactor

; 283  : 
; 284  : 		MoveToDst( m_vPosBegin );

  00088	8d 4e 54	 lea	 ecx, DWORD PTR [esi+84]
  0008b	51		 push	 ecx
  0008c	8b ce		 mov	 ecx, esi
  0008e	e8 00 00 00 00	 call	 ?MoveToDst@CAIAggro@@IAEXABUD3DXVECTOR3@@@Z ; CAIAggro::MoveToDst
  00093	5e		 pop	 esi

; 294  : 	}
; 295  : }

  00094	c2 04 00	 ret	 4
$L264680:

; 285  : 	}
; 286  : 	else
; 287  : 	{
; 288  : 		m_bReturnToBegin	= FALSE;

  00097	c7 86 c4 00 00
	00 00 00 00 00	 mov	 DWORD PTR [esi+196], 0

; 289  : 		SetTarget( NULL_ID, 0 );

  000a1	c7 86 e0 00 00
	00 ff ff ff ff	 mov	 DWORD PTR [esi+224], -1
  000ab	c7 46 34 00 00
	00 00		 mov	 DWORD PTR [esi+52], 0
  000b2	e8 00 00 00 00	 call	 ?SetSpeedFactor@CMover@@QAEXM@Z ; CMover::SetSpeedFactor

; 290  : 
; 291  : 		CMover* pMover	= GetMover();

  000b7	8b 76 30	 mov	 esi, DWORD PTR [esi+48]

; 292  : 		pMover->SetPointParam( DST_HP, pMover->GetMaxHitPoint() );

  000ba	6a 00		 push	 0
  000bc	8b ce		 mov	 ecx, esi
  000be	e8 00 00 00 00	 call	 ?GetMaxHitPoint@CMover@@QAEHXZ ; CMover::GetMaxHitPoint
  000c3	50		 push	 eax
  000c4	6a 26		 push	 38			; 00000026H
  000c6	8b ce		 mov	 ecx, esi
  000c8	e8 00 00 00 00	 call	 ?SetPointParam@CMover@@QAEXHHH@Z ; CMover::SetPointParam

; 293  : 		pMover->RemoveAllEnemies();

  000cd	8b ce		 mov	 ecx, esi
  000cf	e8 00 00 00 00	 call	 ?RemoveAllEnemies@CMover@@QAEXXZ ; CMover::RemoveAllEnemies
  000d4	5e		 pop	 esi

; 294  : 	}
; 295  : }

  000d5	c2 04 00	 ret	 4
?DoReturnToBegin@CAIAggro@@IAEXH@Z ENDP			; CAIAggro::DoReturnToBegin
_TEXT	ENDS
PUBLIC	?MoveProcessStand@CAIAggro@@IAEHABUAIMSG@@@Z	; CAIAggro::MoveProcessStand
PUBLIC	??_C@_0CA@GLBIGGGO@m_nAttackFirstRange?5?$MA?L?$LL?s?3?$CFd?5?$CFs?6?$AA@ ; `string'
EXTRN	?SetPos@CObj@@QAEXABUD3DXVECTOR3@@@Z:NEAR	; CObj::SetPos
EXTRN	?SetAngle@CObj@@QAEXM@Z:NEAR			; CObj::SetAngle
EXTRN	?GetName@CMover@@QAEPBDH@Z:NEAR			; CMover::GetName
EXTRN	?AddSetPos@CUserMng@@QAEXPAVCCtrl@@AAUD3DXVECTOR3@@@Z:NEAR ; CUserMng::AddSetPos
EXTRN	?GetCtrl@CProject@@QAEPAVCCtrl@@K@Z:NEAR	; CProject::GetCtrl
EXTRN	?AddSetDestAngle@CUserMng@@QAEXPAVCMover@@ME@Z:NEAR ; CUserMng::AddSetDestAngle
EXTRN	?ScanTargetAggro@CAIInterface@@IAEPAVCMover@@PAVCObj@@MKK@Z:NEAR ; CAIInterface::ScanTargetAggro
EXTRN	?SetMovePattern@CMover@@QAEXH@Z:NEAR		; CMover::SetMovePattern
;	COMDAT ??_C@_0CA@GLBIGGGO@m_nAttackFirstRange?5?$MA?L?$LL?s?3?$CFd?5?$CFs?6?$AA@
; File c:\documents and settings\test\mes documents\source\virtuos_v17\build\program\_common\ctrl.h
CONST	SEGMENT
??_C@_0CA@GLBIGGGO@m_nAttackFirstRange?5?$MA?L?$LL?s?3?$CFd?5?$CFs?6?$AA@ DB 'm'
	DB	'_nAttackFirstRange ', 0c0H, 0ccH, 0bbH, 0f3H, ':%d %s', 0aH, 00H ; `string'
; Function compile flags: /Ogty
; File c:\documents and settings\test\mes documents\source\virtuos_v17\build\program\_aiinterface\aiaggro.cpp
CONST	ENDS
;	COMDAT ?MoveProcessStand@CAIAggro@@IAEHABUAIMSG@@@Z
_TEXT	SEGMENT
_nAttackFirstRange$264937 = -28				; size = 4
$T272936 = -24						; size = 12
$T272938 = -12						; size = 12
$T272937 = -12						; size = 12
_msg$ = 8						; size = 4
?MoveProcessStand@CAIAggro@@IAEHABUAIMSG@@@Z PROC NEAR	; CAIAggro::MoveProcessStand, COMDAT
; _this$ = ecx

; 700  : {

  00000	83 ec 1c	 sub	 esp, 28			; 0000001cH
  00003	53		 push	 ebx
  00004	56		 push	 esi
  00005	8b f1		 mov	 esi, ecx

; 701  : 	CMover* pMover = GetMover();
; 702  : 	CWorld* pWorld = GetWorld();
; 703  : 	MoverProp *pProp = pMover->GetProp();

  00007	8b 0d d0 01 00
	00		 mov	 ecx, DWORD PTR ?prj@@3VCProject@@A+464
  0000d	57		 push	 edi
  0000e	8b 7e 30	 mov	 edi, DWORD PTR [esi+48]
  00011	8b 87 74 01 00
	00		 mov	 eax, DWORD PTR [edi+372]
  00017	85 c0		 test	 eax, eax
  00019	7c 16		 jl	 SHORT $L272977
  0001b	3b c1		 cmp	 eax, ecx
  0001d	7d 12		 jge	 SHORT $L272977
  0001f	8b 0d d4 01 00
	00		 mov	 ecx, DWORD PTR ?prj@@3VCProject@@A+468
  00025	69 c0 d8 06 00
	00		 imul	 eax, 1752		; 000006d8H
  0002b	03 c1		 add	 eax, ecx
  0002d	8b d8		 mov	 ebx, eax
  0002f	eb 18		 jmp	 SHORT $L272972
$L272977:
  00031	50		 push	 eax
  00032	51		 push	 ecx
  00033	6a 00		 push	 0
  00035	68 00 00 00 00	 push	 OFFSET FLAT:??_C@_0BJ@GKPOBPPI@GetMoverProp?5range_error?$AA@
  0003a	68 00 00 00 00	 push	 OFFSET FLAT:??_C@_0BM@HMFGHCP@?$CFs?5min?3?$CFd?0?5max?3?$CFd?0?5index?3?$CFd?$AA@
  0003f	e8 00 00 00 00	 call	 ?Error@@YAPBDPBDZZ	; Error
  00044	83 c4 14	 add	 esp, 20			; 00000014H
  00047	33 db		 xor	 ebx, ebx
$L272972:

; 704  : 
; 705  : 	if( pMover->IsDie() || (pMover->m_pActMover->GetState() & OBJSTA_DMG_FLY_ALL) )

  00049	8b 87 3c 02 00
	00		 mov	 eax, DWORD PTR [edi+572]
  0004f	8b 40 04	 mov	 eax, DWORD PTR [eax+4]
  00052	a9 00 00 00 08	 test	 eax, 134217728		; 08000000H
  00057	0f 85 ca 02 00
	00		 jne	 $L264914
  0005d	8b 8f 00 06 00
	00		 mov	 ecx, DWORD PTR [edi+1536]
  00063	85 c9		 test	 ecx, ecx
  00065	0f 84 bc 02 00
	00		 je	 $L264914
  0006b	a9 00 00 00 02	 test	 eax, 33554432		; 02000000H
  00070	0f 85 b1 02 00
	00		 jne	 $L264914

; 707  : 
; 708  : 	if( m_bReturnToBegin )

  00076	8b 86 c4 00 00
	00		 mov	 eax, DWORD PTR [esi+196]
  0007c	85 c0		 test	 eax, eax
  0007e	55		 push	 ebp
  0007f	0f 84 c6 00 00
	00		 je	 $L264915

; 709  : 	{
; 710  : 		if( IsInRange( m_vPosBegin - pMover->GetPos(), 0.1f ) )	

  00085	d9 46 54	 fld	 DWORD PTR [esi+84]
  00088	8d 8f 60 01 00
	00		 lea	 ecx, DWORD PTR [edi+352]
  0008e	8b 11		 mov	 edx, DWORD PTR [ecx]
  00090	8b 41 04	 mov	 eax, DWORD PTR [ecx+4]
  00093	8b 49 08	 mov	 ecx, DWORD PTR [ecx+8]
  00096	8d 6e 54	 lea	 ebp, DWORD PTR [esi+84]
  00099	89 54 24 14	 mov	 DWORD PTR $T272936[esp+44], edx
  0009d	d8 64 24 14	 fsub	 DWORD PTR $T272936[esp+44]
  000a1	89 44 24 18	 mov	 DWORD PTR $T272936[esp+48], eax
  000a5	89 4c 24 1c	 mov	 DWORD PTR $T272936[esp+52], ecx
  000a9	d9 5c 24 20	 fstp	 DWORD PTR $T272937[esp+44]
  000ad	68 cd cc cc 3d	 push	 1036831949		; 3dcccccdH
  000b2	d9 45 04	 fld	 DWORD PTR [ebp+4]
  000b5	8d 54 24 24	 lea	 edx, DWORD PTR $T272937[esp+48]
  000b9	d8 64 24 1c	 fsub	 DWORD PTR $T272936[esp+52]
  000bd	52		 push	 edx
  000be	8b ce		 mov	 ecx, esi
  000c0	d9 5c 24 2c	 fstp	 DWORD PTR $T272937[esp+56]
  000c4	d9 45 08	 fld	 DWORD PTR [ebp+8]
  000c7	d8 64 24 24	 fsub	 DWORD PTR $T272936[esp+60]
  000cb	d9 5c 24 30	 fstp	 DWORD PTR $T272937[esp+60]
  000cf	e8 00 00 00 00	 call	 ?IsInRange@CAIAggro@@IAEHAAUD3DXVECTOR3@@M@Z ; CAIAggro::IsInRange
  000d4	85 c0		 test	 eax, eax
  000d6	74 38		 je	 SHORT $L264918

; 711  : 		{
; 712  : 			DoReturnToBegin( FALSE );

  000d8	6a 00		 push	 0
  000da	e8 00 00 00 00	 call	 ?DoReturnToBegin@CAIAggro@@IAEXH@Z ; CAIAggro::DoReturnToBegin

; 713  : 			pMover->SetAngle( m_fAngleBegine );	

  000df	8b 86 c0 00 00
	00		 mov	 eax, DWORD PTR [esi+192]
  000e5	50		 push	 eax
  000e6	8b cf		 mov	 ecx, edi
  000e8	e8 00 00 00 00	 call	 ?SetAngle@CObj@@QAEXM@Z	; CObj::SetAngle

; 714  : 			g_UserMng.AddSetDestAngle( pMover, m_fAngleBegine, 0 );			

  000ed	8b 8e c0 00 00
	00		 mov	 ecx, DWORD PTR [esi+192]
  000f3	6a 00		 push	 0
  000f5	51		 push	 ecx
  000f6	57		 push	 edi
  000f7	b9 00 00 00 00	 mov	 ecx, OFFSET FLAT:?g_UserMng@@3VCUserMng@@A
  000fc	e8 00 00 00 00	 call	 ?AddSetDestAngle@CUserMng@@QAEXPAVCMover@@ME@Z ; CUserMng::AddSetDestAngle

; 715  : 			SendAIMsg( AIMSG_ARRIVAL, NULL_ID );

  00101	8b 16		 mov	 edx, DWORD PTR [esi]
  00103	6a 00		 push	 0
  00105	6a 00		 push	 0
  00107	6a ff		 push	 -1
  00109	6a 0b		 push	 11			; 0000000bH
  0010b	8b ce		 mov	 ecx, esi
  0010d	ff 52 0c	 call	 DWORD PTR [edx+12]
$L264918:

; 716  : 		}
; 717  : 
; 718  : #ifdef __AI_0905
; 719  : 		if( TIMEGETTIME - m_tmReturnToBegin >= SEC(20) )
; 720  : #else	// __AI_0905
; 721  : 		if( TIMEGETTIME - m_tmReturnToBegin >= SEC(10) )

  00110	a1 00 00 00 00	 mov	 eax, DWORD PTR ?g_tmCurrent@@3KA ; g_tmCurrent
  00115	2b 46 50	 sub	 eax, DWORD PTR [esi+80]
  00118	3d 10 27 00 00	 cmp	 eax, 10000		; 00002710H
  0011d	72 1d		 jb	 SHORT $L273042

; 722  : #endif	// __AI_0905
; 723  : 		{
; 724  : 			pMover->SetPos( m_vPosBegin );

  0011f	55		 push	 ebp
  00120	8b cf		 mov	 ecx, edi
  00122	e8 00 00 00 00	 call	 ?SetPos@CObj@@QAEXABUD3DXVECTOR3@@@Z ; CObj::SetPos

; 725  : 			g_UserMng.AddSetPos( pMover, m_vPosBegin );

  00127	55		 push	 ebp
  00128	57		 push	 edi
  00129	b9 00 00 00 00	 mov	 ecx, OFFSET FLAT:?g_UserMng@@3VCUserMng@@A
  0012e	e8 00 00 00 00	 call	 ?AddSetPos@CUserMng@@QAEXPAVCCtrl@@AAUD3DXVECTOR3@@@Z ; CUserMng::AddSetPos

; 726  : 			m_tmReturnToBegin	= TIMEGETTIME;

  00133	8b 0d 00 00 00
	00		 mov	 ecx, DWORD PTR ?g_tmCurrent@@3KA ; g_tmCurrent
  00139	89 4e 50	 mov	 DWORD PTR [esi+80], ecx
$L273042:
  0013c	5d		 pop	 ebp
  0013d	5f		 pop	 edi
  0013e	5e		 pop	 esi

; 793  : 						}
; 794  : 					}
; 795  : 				}
; 796  : 			}	// if( target)
; 797  : 		}	// if( scan )
; 798  : 
; 799  : 	}
; 800  : 	return TRUE;

  0013f	b8 01 00 00 00	 mov	 eax, 1
  00144	5b		 pop	 ebx

; 801  : }

  00145	83 c4 1c	 add	 esp, 28			; 0000001cH
  00148	c2 04 00	 ret	 4
$L264915:

; 727  : 		}
; 728  : 	}
; 729  : 	else
; 730  : 	{
; 731  : 		if( pMover->GetMovePattern() == 0 )

  0014b	8b 87 64 16 00
	00		 mov	 eax, DWORD PTR [edi+5732]
  00151	85 c0		 test	 eax, eax
  00153	74 12		 je	 SHORT $L264924

; 732  : 		{
; 733  : 		}
; 734  : 		else							
; 735  : 		{
; 736  : 			if( pMover->GetMoveEvent() == 99 )	

  00155	83 bf 68 16 00
	00 63		 cmp	 DWORD PTR [edi+5736], 99 ; 00000063H
  0015c	75 09		 jne	 SHORT $L264924

; 737  : 				pMover->SetMovePattern( 0 );	

  0015e	6a 00		 push	 0
  00160	8b cf		 mov	 ecx, edi
  00162	e8 00 00 00 00	 call	 ?SetMovePattern@CMover@@QAEXH@Z ; CMover::SetMovePattern
$L264924:

; 738  : 		}
; 739  : 
; 740  : 		if( pProp->m_nLoot )

  00167	8b 83 3c 02 00
	00		 mov	 eax, DWORD PTR [ebx+572]
  0016d	85 c0		 test	 eax, eax
  0016f	74 38		 je	 SHORT $L264930

; 741  : 		{
; 742  : 			if( (pMover->GetCount() & 63) == 0 )	

  00171	f6 87 80 16 00
	00 3f		 test	 BYTE PTR [edi+5760], 63	; 0000003fH
  00178	75 2f		 jne	 SHORT $L264930

; 743  : 			{	
; 744  : 				if( pProp->m_nLootProb == 0 || (int)( xRandom(100) ) < pProp->m_nLootProb  )

  0017a	8b 83 40 02 00
	00		 mov	 eax, DWORD PTR [ebx+576]
  00180	85 c0		 test	 eax, eax
  00182	74 14		 je	 SHORT $L264929
  00184	6a 64		 push	 100			; 00000064H
  00186	e8 00 00 00 00	 call	 ?xRandom@@YAKK@Z	; xRandom
  0018b	8b 8b 40 02 00
	00		 mov	 ecx, DWORD PTR [ebx+576]
  00191	83 c4 04	 add	 esp, 4
  00194	3b c1		 cmp	 eax, ecx
  00196	7d 11		 jge	 SHORT $L264930
$L264929:

; 745  : 					if( m_bLootMove == FALSE )		

  00198	8b 86 dc 00 00
	00		 mov	 eax, DWORD PTR [esi+220]
  0019e	85 c0		 test	 eax, eax
  001a0	75 07		 jne	 SHORT $L264930

; 746  : 						SubItemLoot();	

  001a2	8b ce		 mov	 ecx, esi
  001a4	e8 00 00 00 00	 call	 ?SubItemLoot@CAIAggro@@IAEHXZ ; CAIAggro::SubItemLoot
$L264930:

; 747  : 			}
; 748  : 		}
; 749  : 
; 750  : 		if( m_bLootMove == TRUE )

  001a9	83 be dc 00 00
	00 01		 cmp	 DWORD PTR [esi+220], 1
  001b0	75 46		 jne	 SHORT $L264933

; 751  : 		{
; 752  : 			CCtrl *pCtrl = prj.GetCtrl( m_idLootItem );	

  001b2	8b 96 f8 00 00
	00		 mov	 edx, DWORD PTR [esi+248]
  001b8	52		 push	 edx
  001b9	b9 00 00 00 00	 mov	 ecx, OFFSET FLAT:?prj@@3VCProject@@A
  001be	e8 00 00 00 00	 call	 ?GetCtrl@CProject@@QAEPAVCCtrl@@K@Z ; CProject::GetCtrl

; 753  : 			if( IsInvalidObj(pCtrl) )	

  001c3	50		 push	 eax
  001c4	e8 00 00 00 00	 call	 ?IsInvalidObj@@YAHPAVCObj@@@Z ; IsInvalidObj
  001c9	83 c4 04	 add	 esp, 4
  001cc	85 c0		 test	 eax, eax
  001ce	74 28		 je	 SHORT $L264933

; 754  : 			{
; 755  : 				MoveToDst( pMover->GetPos() );

  001d0	8d 44 24 20	 lea	 eax, DWORD PTR $T272938[esp+44]
  001d4	50		 push	 eax
  001d5	8b cf		 mov	 ecx, edi
  001d7	e8 00 00 00 00	 call	 ?GetPos@CObj@@QAE?AUD3DXVECTOR3@@XZ ; CObj::GetPos
  001dc	50		 push	 eax
  001dd	8b ce		 mov	 ecx, esi
  001df	e8 00 00 00 00	 call	 ?MoveToDst@CAIAggro@@IAEXABUD3DXVECTOR3@@@Z ; CAIAggro::MoveToDst

; 756  : 				m_idLootItem = NULL_ID;

  001e4	c7 86 f8 00 00
	00 ff ff ff ff	 mov	 DWORD PTR [esi+248], -1

; 757  : 				m_bLootMove = FALSE;

  001ee	c7 86 dc 00 00
	00 00 00 00 00	 mov	 DWORD PTR [esi+220], 0
$L264933:

; 758  : 			}
; 759  : 		}
; 760  : 
; 761  : 		if( pProp->m_nScanJob != -1 )

  001f8	8b 83 dc 01 00
	00		 mov	 eax, DWORD PTR [ebx+476]
  001fe	83 f8 ff	 cmp	 eax, -1
  00201	0f 84 35 ff ff
	ff		 je	 $L273042

; 762  : 		{
; 763  : 			CMover* pTarget = NULL;
; 764  : 			int nAttackFirstRange = pProp->m_nAttackFirstRange;

  00207	0f bf 8b 86 02
	00 00		 movsx	 ecx, WORD PTR [ebx+646]

; 765  : 
; 766  : 			if( nAttackFirstRange <= 0 )

  0020e	85 c9		 test	 ecx, ecx
  00210	89 4c 24 10	 mov	 DWORD PTR _nAttackFirstRange$264937[esp+44], ecx
  00214	7f 2e		 jg	 SHORT $L264938

; 767  : 			{
; 768  : 				Error( "m_nAttackFirstRange :%d %s\n", pProp->m_nAttackFirstRange, pMover->GetName() );

  00216	6a 00		 push	 0
  00218	8b cf		 mov	 ecx, edi
  0021a	e8 00 00 00 00	 call	 ?GetName@CMover@@QAEPBDH@Z ; CMover::GetName
  0021f	0f bf 8b 86 02
	00 00		 movsx	 ecx, WORD PTR [ebx+646]
  00226	50		 push	 eax
  00227	51		 push	 ecx
  00228	68 00 00 00 00	 push	 OFFSET FLAT:??_C@_0CA@GLBIGGGO@m_nAttackFirstRange?5?$MA?L?$LL?s?3?$CFd?5?$CFs?6?$AA@
  0022d	e8 00 00 00 00	 call	 ?Error@@YAPBDPBDZZ	; Error
  00232	83 c4 0c	 add	 esp, 12			; 0000000cH
  00235	5d		 pop	 ebp
  00236	5f		 pop	 edi
  00237	5e		 pop	 esi

; 793  : 						}
; 794  : 					}
; 795  : 				}
; 796  : 			}	// if( target)
; 797  : 		}	// if( scan )
; 798  : 
; 799  : 	}
; 800  : 	return TRUE;

  00238	b8 01 00 00 00	 mov	 eax, 1
  0023d	5b		 pop	 ebx

; 801  : }

  0023e	83 c4 1c	 add	 esp, 28			; 0000001cH
  00241	c2 04 00	 ret	 4
$L264938:

; 769  : 				return TRUE;
; 770  : 			}
; 771  : 
; 772  : 			if( pProp->m_nScanJob || pProp->m_dwScanQuestId || pProp->m_dwScanItemIdx || pProp->m_nScanChao )

  00244	85 c0		 test	 eax, eax
  00246	75 1e		 jne	 SHORT $L264940
  00248	8b 83 44 02 00
	00		 mov	 eax, DWORD PTR [ebx+580]
  0024e	85 c0		 test	 eax, eax
  00250	75 14		 jne	 SHORT $L264940
  00252	8b 83 48 02 00
	00		 mov	 eax, DWORD PTR [ebx+584]
  00258	85 c0		 test	 eax, eax
  0025a	75 0a		 jne	 SHORT $L264940
  0025c	8b 83 4c 02 00
	00		 mov	 eax, DWORD PTR [ebx+588]
  00262	85 c0		 test	 eax, eax
  00264	74 1e		 je	 SHORT $L273041
$L264940:

; 773  : 				pTarget = ScanTargetAggro( pMover, (FLOAT)nAttackFirstRange, m_dwAIInterface, m_uParty );

  00266	8b 56 34	 mov	 edx, DWORD PTR [esi+52]
  00269	db 44 24 10	 fild	 DWORD PTR _nAttackFirstRange$264937[esp+44]
  0026d	8b 46 38	 mov	 eax, DWORD PTR [esi+56]
  00270	52		 push	 edx
  00271	50		 push	 eax
  00272	51		 push	 ecx
  00273	d9 1c 24	 fstp	 DWORD PTR [esp]
  00276	57		 push	 edi
  00277	8b ce		 mov	 ecx, esi
  00279	e8 00 00 00 00	 call	 ?ScanTargetAggro@CAIInterface@@IAEPAVCMover@@PAVCObj@@MKK@Z ; CAIInterface::ScanTargetAggro
  0027e	8b e8		 mov	 ebp, eax

; 774  : 
; 775  : 			if( pTarget == NULL && GetMover()->m_bActiveAttack )

  00280	85 ed		 test	 ebp, ebp
  00282	75 33		 jne	 SHORT $L273039
$L273041:
  00284	8b 4e 30	 mov	 ecx, DWORD PTR [esi+48]
  00287	8b 81 70 06 00
	00		 mov	 eax, DWORD PTR [ecx+1648]
  0028d	85 c0		 test	 eax, eax
  0028f	0f 84 a7 fe ff
	ff		 je	 $L273042

; 776  : 				pTarget = ScanTargetAggro( pMover, (FLOAT)nAttackFirstRange, m_dwAIInterface, m_uParty );

  00295	8b 56 34	 mov	 edx, DWORD PTR [esi+52]
  00298	db 44 24 10	 fild	 DWORD PTR _nAttackFirstRange$264937[esp+44]
  0029c	8b 46 38	 mov	 eax, DWORD PTR [esi+56]
  0029f	52		 push	 edx
  002a0	50		 push	 eax
  002a1	51		 push	 ecx
  002a2	d9 1c 24	 fstp	 DWORD PTR [esp]
  002a5	57		 push	 edi
  002a6	8b ce		 mov	 ecx, esi
  002a8	e8 00 00 00 00	 call	 ?ScanTargetAggro@CAIInterface@@IAEPAVCMover@@PAVCObj@@MKK@Z ; CAIInterface::ScanTargetAggro
  002ad	8b e8		 mov	 ebp, eax

; 777  : 
; 778  : 			if( pTarget )

  002af	85 ed		 test	 ebp, ebp
  002b1	0f 84 85 fe ff
	ff		 je	 $L273042
$L273039:

; 779  : 			{
; 780  : 				if( IsValidObj( (CObj*)pTarget ) )

  002b7	55		 push	 ebp
  002b8	e8 00 00 00 00	 call	 ?IsValidObj@@YAHPAVCObj@@@Z ; IsValidObj
  002bd	83 c4 04	 add	 esp, 4
  002c0	85 c0		 test	 eax, eax
  002c2	0f 84 74 fe ff
	ff		 je	 $L273042

; 781  : 				{
; 782  : 
; 783  : #ifdef __JHMA_VER_8_6    
; 784  : 					if( pMover->IsFlyingNPC() == FALSE || pMover->IsFlyingNPC() == pTarget->m_pActMover->IsFly() || pProp->dwClass == RANK_GUARD )	//   .
; 785  : #else	// __VER >= 8  
; 786  : 					if( (pMover->IsFlyingNPC() || pTarget->m_pActMover->IsFly() == FALSE) || pProp->dwClass == RANK_GUARD )	//   .

  002c8	f6 87 42 02 00
	00 01		 test	 BYTE PTR [edi+578], 1
  002cf	75 1e		 jne	 SHORT $L264948
  002d1	8b 8d 3c 02 00
	00		 mov	 ecx, DWORD PTR [ebp+572]
  002d7	8a 51 08	 mov	 dl, BYTE PTR [ecx+8]
  002da	b8 08 00 00 00	 mov	 eax, 8
  002df	84 d0		 test	 dl, al
  002e1	74 0c		 je	 SHORT $L264948
  002e3	39 83 94 00 00
	00		 cmp	 DWORD PTR [ebx+148], eax
  002e9	0f 85 4d fe ff
	ff		 jne	 $L273042
$L264948:

; 787  : #endif	// __VER >= 8  
; 788  : 					{
; 789  : 						if( pTarget )	

  002ef	85 ed		 test	 ebp, ebp
  002f1	0f 84 45 fe ff
	ff		 je	 $L273042

; 790  : 						{
; 791  : 							g_UserMng.AddDlgEmoticon( pMover, DLGEMOT_ATTACK );

  002f7	6a 00		 push	 0
  002f9	57		 push	 edi
  002fa	b9 00 00 00 00	 mov	 ecx, OFFSET FLAT:?g_UserMng@@3VCUserMng@@A
  002ff	e8 00 00 00 00	 call	 ?AddDlgEmoticon@CUserMng@@QAEXPAVCCtrl@@H@Z ; CUserMng::AddDlgEmoticon

; 792  : 							SendAIMsg( AIMSG_SETSTATE, STATE_RAGE, pTarget->GetId() );

  00304	8b 85 bc 01 00
	00		 mov	 eax, DWORD PTR [ebp+444]
  0030a	8b 16		 mov	 edx, DWORD PTR [esi]
  0030c	6a 00		 push	 0
  0030e	50		 push	 eax
  0030f	6a 07		 push	 7
  00311	6a 04		 push	 4
  00313	8b ce		 mov	 ecx, esi
  00315	ff 52 0c	 call	 DWORD PTR [edx+12]
  00318	5d		 pop	 ebp
  00319	5f		 pop	 edi
  0031a	5e		 pop	 esi

; 793  : 						}
; 794  : 					}
; 795  : 				}
; 796  : 			}	// if( target)
; 797  : 		}	// if( scan )
; 798  : 
; 799  : 	}
; 800  : 	return TRUE;

  0031b	b8 01 00 00 00	 mov	 eax, 1
  00320	5b		 pop	 ebx

; 801  : }

  00321	83 c4 1c	 add	 esp, 28			; 0000001cH
  00324	c2 04 00	 ret	 4
$L264914:
  00327	5f		 pop	 edi
  00328	5e		 pop	 esi

; 706  : 		return FALSE;

  00329	33 c0		 xor	 eax, eax
  0032b	5b		 pop	 ebx

; 801  : }

  0032c	83 c4 1c	 add	 esp, 28			; 0000001cH
  0032f	c2 04 00	 ret	 4
?MoveProcessStand@CAIAggro@@IAEHABUAIMSG@@@Z ENDP	; CAIAggro::MoveProcessStand
_TEXT	ENDS
PUBLIC	?MoveProcessPatrol@CAIAggro@@IAEHABUAIMSG@@@Z	; CAIAggro::MoveProcessPatrol
; Function compile flags: /Ogty
;	COMDAT ?MoveProcessPatrol@CAIAggro@@IAEHABUAIMSG@@@Z
_TEXT	SEGMENT
_nAttackFirstRange$264985 = -28				; size = 4
$T273047 = -24						; size = 12
$T273049 = -12						; size = 12
$T273048 = -12						; size = 12
_msg$ = 8						; size = 4
?MoveProcessPatrol@CAIAggro@@IAEHABUAIMSG@@@Z PROC NEAR	; CAIAggro::MoveProcessPatrol, COMDAT
; _this$ = ecx

; 803  : {

  00000	83 ec 1c	 sub	 esp, 28			; 0000001cH
  00003	53		 push	 ebx
  00004	56		 push	 esi
  00005	8b f1		 mov	 esi, ecx

; 804  : 	CMover* pMover = GetMover();
; 805  : 	CWorld* pWorld = GetWorld();
; 806  : 	MoverProp *pProp = pMover->GetProp();

  00007	8b 0d d0 01 00
	00		 mov	 ecx, DWORD PTR ?prj@@3VCProject@@A+464
  0000d	57		 push	 edi
  0000e	8b 7e 30	 mov	 edi, DWORD PTR [esi+48]
  00011	8b 87 74 01 00
	00		 mov	 eax, DWORD PTR [edi+372]
  00017	85 c0		 test	 eax, eax
  00019	7c 16		 jl	 SHORT $L273088
  0001b	3b c1		 cmp	 eax, ecx
  0001d	7d 12		 jge	 SHORT $L273088
  0001f	8b 0d d4 01 00
	00		 mov	 ecx, DWORD PTR ?prj@@3VCProject@@A+468
  00025	69 c0 d8 06 00
	00		 imul	 eax, 1752		; 000006d8H
  0002b	03 c1		 add	 eax, ecx
  0002d	8b d8		 mov	 ebx, eax
  0002f	eb 18		 jmp	 SHORT $L273083
$L273088:
  00031	50		 push	 eax
  00032	51		 push	 ecx
  00033	6a 00		 push	 0
  00035	68 00 00 00 00	 push	 OFFSET FLAT:??_C@_0BJ@GKPOBPPI@GetMoverProp?5range_error?$AA@
  0003a	68 00 00 00 00	 push	 OFFSET FLAT:??_C@_0BM@HMFGHCP@?$CFs?5min?3?$CFd?0?5max?3?$CFd?0?5index?3?$CFd?$AA@
  0003f	e8 00 00 00 00	 call	 ?Error@@YAPBDPBDZZ	; Error
  00044	83 c4 14	 add	 esp, 20			; 00000014H
  00047	33 db		 xor	 ebx, ebx
$L273083:

; 807  : 
; 808  : 	if( pMover->IsDie() || (pMover->m_pActMover->GetState() & OBJSTA_DMG_FLY_ALL) )

  00049	8b 87 3c 02 00
	00		 mov	 eax, DWORD PTR [edi+572]
  0004f	8b 40 04	 mov	 eax, DWORD PTR [eax+4]
  00052	a9 00 00 00 08	 test	 eax, 134217728		; 08000000H
  00057	0f 85 b1 02 00
	00		 jne	 $L264958
  0005d	8b 8f 00 06 00
	00		 mov	 ecx, DWORD PTR [edi+1536]
  00063	85 c9		 test	 ecx, ecx
  00065	0f 84 a3 02 00
	00		 je	 $L264958
  0006b	a9 00 00 00 02	 test	 eax, 33554432		; 02000000H
  00070	0f 85 98 02 00
	00		 jne	 $L264958

; 810  : 
; 811  : 	if( m_bReturnToBegin )

  00076	8b 86 c4 00 00
	00		 mov	 eax, DWORD PTR [esi+196]
  0007c	85 c0		 test	 eax, eax
  0007e	55		 push	 ebp
  0007f	0f 84 95 00 00
	00		 je	 $L264959

; 812  : 	{
; 813  : 		if( IsInRange( m_vPosBegin - pMover->GetPos(), 3.0f ) )	

  00085	d9 46 54	 fld	 DWORD PTR [esi+84]
  00088	8d 8f 60 01 00
	00		 lea	 ecx, DWORD PTR [edi+352]
  0008e	8b 11		 mov	 edx, DWORD PTR [ecx]
  00090	8b 41 04	 mov	 eax, DWORD PTR [ecx+4]
  00093	8b 49 08	 mov	 ecx, DWORD PTR [ecx+8]
  00096	8d 6e 54	 lea	 ebp, DWORD PTR [esi+84]
  00099	89 54 24 14	 mov	 DWORD PTR $T273047[esp+44], edx
  0009d	d8 64 24 14	 fsub	 DWORD PTR $T273047[esp+44]
  000a1	89 44 24 18	 mov	 DWORD PTR $T273047[esp+48], eax
  000a5	89 4c 24 1c	 mov	 DWORD PTR $T273047[esp+52], ecx
  000a9	d9 5c 24 20	 fstp	 DWORD PTR $T273048[esp+44]
  000ad	68 00 00 40 40	 push	 1077936128		; 40400000H
  000b2	d9 45 04	 fld	 DWORD PTR [ebp+4]
  000b5	8d 54 24 24	 lea	 edx, DWORD PTR $T273048[esp+48]
  000b9	d8 64 24 1c	 fsub	 DWORD PTR $T273047[esp+52]
  000bd	52		 push	 edx
  000be	8b ce		 mov	 ecx, esi
  000c0	d9 5c 24 2c	 fstp	 DWORD PTR $T273048[esp+56]
  000c4	d9 45 08	 fld	 DWORD PTR [ebp+8]
  000c7	d8 64 24 24	 fsub	 DWORD PTR $T273047[esp+60]
  000cb	d9 5c 24 30	 fstp	 DWORD PTR $T273048[esp+60]
  000cf	e8 00 00 00 00	 call	 ?IsInRange@CAIAggro@@IAEHAAUD3DXVECTOR3@@M@Z ; CAIAggro::IsInRange
  000d4	85 c0		 test	 eax, eax
  000d6	74 07		 je	 SHORT $L264962

; 814  : 		{
; 815  : 			DoReturnToBegin( FALSE );

  000d8	6a 00		 push	 0
  000da	e8 00 00 00 00	 call	 ?DoReturnToBegin@CAIAggro@@IAEXH@Z ; CAIAggro::DoReturnToBegin
$L264962:

; 816  : 		}
; 817  : 
; 818  : 
; 819  : 		if( TIMEGETTIME - m_tmReturnToBegin >= SEC(10) )

  000df	a1 00 00 00 00	 mov	 eax, DWORD PTR ?g_tmCurrent@@3KA ; g_tmCurrent
  000e4	2b 46 50	 sub	 eax, DWORD PTR [esi+80]
  000e7	3d 10 27 00 00	 cmp	 eax, 10000		; 00002710H
  000ec	72 1d		 jb	 SHORT $L273156

; 820  : 		{
; 821  : 			pMover->SetPos( m_vPosBegin );

  000ee	55		 push	 ebp
  000ef	8b cf		 mov	 ecx, edi
  000f1	e8 00 00 00 00	 call	 ?SetPos@CObj@@QAEXABUD3DXVECTOR3@@@Z ; CObj::SetPos

; 822  : 			g_UserMng.AddSetPos( pMover, m_vPosBegin );

  000f6	55		 push	 ebp
  000f7	57		 push	 edi
  000f8	b9 00 00 00 00	 mov	 ecx, OFFSET FLAT:?g_UserMng@@3VCUserMng@@A
  000fd	e8 00 00 00 00	 call	 ?AddSetPos@CUserMng@@QAEXPAVCCtrl@@AAUD3DXVECTOR3@@@Z ; CUserMng::AddSetPos

; 823  : 			m_tmReturnToBegin	= TIMEGETTIME;

  00102	8b 0d 00 00 00
	00		 mov	 ecx, DWORD PTR ?g_tmCurrent@@3KA ; g_tmCurrent
  00108	89 4e 50	 mov	 DWORD PTR [esi+80], ecx
$L273156:
  0010b	5d		 pop	 ebp
  0010c	5f		 pop	 edi
  0010d	5e		 pop	 esi

; 897  : 						}
; 898  : 					}
; 899  : 				}
; 900  : 			}	// if( target)
; 901  : 		}	// if( scan )
; 902  : 
; 903  : 	}
; 904  : 	return TRUE;

  0010e	b8 01 00 00 00	 mov	 eax, 1
  00113	5b		 pop	 ebx

; 905  : }

  00114	83 c4 1c	 add	 esp, 28			; 0000001cH
  00117	c2 04 00	 ret	 4
$L264959:

; 824  : 		}
; 825  : 	}
; 826  : 	else
; 827  : 	{
; 828  : 		if( pMover->GetMovePattern() == 0 )

  0011a	8b 87 64 16 00
	00		 mov	 eax, DWORD PTR [edi+5732]
  00120	85 c0		 test	 eax, eax
  00122	75 18		 jne	 SHORT $L264966

; 829  : 		{
; 830  : 			D3DXVECTOR3 vPos1 = pMover->GetPos();
; 831  : 			D3DXVECTOR3 vPos2 = m_vDestPos;
; 832  : 
; 833  : 			if( IsEndStop() )

  00124	8b ce		 mov	 ecx, esi
  00126	e8 00 00 00 00	 call	 ?IsEndStop@CAIAggro@@IAEHXZ ; CAIAggro::IsEndStop
  0012b	85 c0		 test	 eax, eax
  0012d	74 1f		 je	 SHORT $L264972

; 834  : 			{
; 835  : 				MoveToDst( m_vDestPos );

  0012f	8d 56 60	 lea	 edx, DWORD PTR [esi+96]
  00132	52		 push	 edx
  00133	8b ce		 mov	 ecx, esi
  00135	e8 00 00 00 00	 call	 ?MoveToDst@CAIAggro@@IAEXABUD3DXVECTOR3@@@Z ; CAIAggro::MoveToDst

; 836  : 			}
; 837  : 		}
; 838  : 		else				

  0013a	eb 12		 jmp	 SHORT $L264972
$L264966:

; 839  : 		{
; 840  : 			if( pMover->GetMoveEvent() == 99 )	

  0013c	83 bf 68 16 00
	00 63		 cmp	 DWORD PTR [edi+5736], 99 ; 00000063H
  00143	75 09		 jne	 SHORT $L264972

; 841  : 				pMover->SetMovePattern( 0 );	

  00145	6a 00		 push	 0
  00147	8b cf		 mov	 ecx, edi
  00149	e8 00 00 00 00	 call	 ?SetMovePattern@CMover@@QAEXH@Z ; CMover::SetMovePattern
$L264972:

; 842  : 		}
; 843  : 
; 844  : 		if( pProp->m_nLoot )

  0014e	8b 83 3c 02 00
	00		 mov	 eax, DWORD PTR [ebx+572]
  00154	85 c0		 test	 eax, eax
  00156	74 38		 je	 SHORT $L264978

; 845  : 		{
; 846  : 			if( (pMover->GetCount() & 63) == 0 )	

  00158	f6 87 80 16 00
	00 3f		 test	 BYTE PTR [edi+5760], 63	; 0000003fH
  0015f	75 2f		 jne	 SHORT $L264978

; 847  : 			{	
; 848  : 				if( pProp->m_nLootProb == 0 || (int)( xRandom(100) ) < pProp->m_nLootProb  )

  00161	8b 83 40 02 00
	00		 mov	 eax, DWORD PTR [ebx+576]
  00167	85 c0		 test	 eax, eax
  00169	74 14		 je	 SHORT $L264977
  0016b	6a 64		 push	 100			; 00000064H
  0016d	e8 00 00 00 00	 call	 ?xRandom@@YAKK@Z	; xRandom
  00172	8b 8b 40 02 00
	00		 mov	 ecx, DWORD PTR [ebx+576]
  00178	83 c4 04	 add	 esp, 4
  0017b	3b c1		 cmp	 eax, ecx
  0017d	7d 11		 jge	 SHORT $L264978
$L264977:

; 849  : 					if( m_bLootMove == FALSE )		

  0017f	8b 86 dc 00 00
	00		 mov	 eax, DWORD PTR [esi+220]
  00185	85 c0		 test	 eax, eax
  00187	75 07		 jne	 SHORT $L264978

; 850  : 						SubItemLoot();		

  00189	8b ce		 mov	 ecx, esi
  0018b	e8 00 00 00 00	 call	 ?SubItemLoot@CAIAggro@@IAEHXZ ; CAIAggro::SubItemLoot
$L264978:

; 851  : 			}
; 852  : 		}
; 853  : 
; 854  : 		if( m_bLootMove == TRUE )

  00190	83 be dc 00 00
	00 01		 cmp	 DWORD PTR [esi+220], 1
  00197	75 46		 jne	 SHORT $L264981

; 855  : 		{
; 856  : 			CCtrl *pCtrl = prj.GetCtrl( m_idLootItem );		

  00199	8b 86 f8 00 00
	00		 mov	 eax, DWORD PTR [esi+248]
  0019f	50		 push	 eax
  001a0	b9 00 00 00 00	 mov	 ecx, OFFSET FLAT:?prj@@3VCProject@@A
  001a5	e8 00 00 00 00	 call	 ?GetCtrl@CProject@@QAEPAVCCtrl@@K@Z ; CProject::GetCtrl

; 857  : 			if( IsInvalidObj(pCtrl) )

  001aa	50		 push	 eax
  001ab	e8 00 00 00 00	 call	 ?IsInvalidObj@@YAHPAVCObj@@@Z ; IsInvalidObj
  001b0	83 c4 04	 add	 esp, 4
  001b3	85 c0		 test	 eax, eax
  001b5	74 28		 je	 SHORT $L264981

; 858  : 			{
; 859  : 				MoveToDst( pMover->GetPos() );

  001b7	8d 4c 24 20	 lea	 ecx, DWORD PTR $T273049[esp+44]
  001bb	51		 push	 ecx
  001bc	8b cf		 mov	 ecx, edi
  001be	e8 00 00 00 00	 call	 ?GetPos@CObj@@QAE?AUD3DXVECTOR3@@XZ ; CObj::GetPos
  001c3	50		 push	 eax
  001c4	8b ce		 mov	 ecx, esi
  001c6	e8 00 00 00 00	 call	 ?MoveToDst@CAIAggro@@IAEXABUD3DXVECTOR3@@@Z ; CAIAggro::MoveToDst

; 860  : 				m_idLootItem = NULL_ID;

  001cb	c7 86 f8 00 00
	00 ff ff ff ff	 mov	 DWORD PTR [esi+248], -1

; 861  : 				m_bLootMove = FALSE;

  001d5	c7 86 dc 00 00
	00 00 00 00 00	 mov	 DWORD PTR [esi+220], 0
$L264981:

; 862  : 			}
; 863  : 		}
; 864  : 
; 865  : 		if( pProp->m_nScanJob != -1 )

  001df	8b 83 dc 01 00
	00		 mov	 eax, DWORD PTR [ebx+476]
  001e5	83 f8 ff	 cmp	 eax, -1
  001e8	0f 84 1d ff ff
	ff		 je	 $L273156

; 866  : 		{
; 867  : 			CMover* pTarget = NULL;
; 868  : 			int nAttackFirstRange = pProp->m_nAttackFirstRange;

  001ee	0f bf 8b 86 02
	00 00		 movsx	 ecx, WORD PTR [ebx+646]

; 869  : 
; 870  : 			if( nAttackFirstRange <= 0 )

  001f5	85 c9		 test	 ecx, ecx
  001f7	89 4c 24 10	 mov	 DWORD PTR _nAttackFirstRange$264985[esp+44], ecx
  001fb	7f 2e		 jg	 SHORT $L264986

; 871  : 			{
; 872  : 				Error( "m_nAttackFirstRange :%d %s\n", pProp->m_nAttackFirstRange, pMover->GetName() );

  001fd	6a 00		 push	 0
  001ff	8b cf		 mov	 ecx, edi
  00201	e8 00 00 00 00	 call	 ?GetName@CMover@@QAEPBDH@Z ; CMover::GetName
  00206	0f bf 93 86 02
	00 00		 movsx	 edx, WORD PTR [ebx+646]
  0020d	50		 push	 eax
  0020e	52		 push	 edx
  0020f	68 00 00 00 00	 push	 OFFSET FLAT:??_C@_0CA@GLBIGGGO@m_nAttackFirstRange?5?$MA?L?$LL?s?3?$CFd?5?$CFs?6?$AA@
  00214	e8 00 00 00 00	 call	 ?Error@@YAPBDPBDZZ	; Error
  00219	83 c4 0c	 add	 esp, 12			; 0000000cH
  0021c	5d		 pop	 ebp
  0021d	5f		 pop	 edi
  0021e	5e		 pop	 esi

; 897  : 						}
; 898  : 					}
; 899  : 				}
; 900  : 			}	// if( target)
; 901  : 		}	// if( scan )
; 902  : 
; 903  : 	}
; 904  : 	return TRUE;

  0021f	b8 01 00 00 00	 mov	 eax, 1
  00224	5b		 pop	 ebx

; 905  : }

  00225	83 c4 1c	 add	 esp, 28			; 0000001cH
  00228	c2 04 00	 ret	 4
$L264986:

; 873  : 				return TRUE;
; 874  : 			}
; 875  : 
; 876  : 			if( pProp->m_nScanJob || pProp->m_dwScanQuestId || pProp->m_dwScanItemIdx || pProp->m_nScanChao )

  0022b	85 c0		 test	 eax, eax
  0022d	75 1e		 jne	 SHORT $L264988
  0022f	8b 83 44 02 00
	00		 mov	 eax, DWORD PTR [ebx+580]
  00235	85 c0		 test	 eax, eax
  00237	75 14		 jne	 SHORT $L264988
  00239	8b 83 48 02 00
	00		 mov	 eax, DWORD PTR [ebx+584]
  0023f	85 c0		 test	 eax, eax
  00241	75 0a		 jne	 SHORT $L264988
  00243	8b 83 4c 02 00
	00		 mov	 eax, DWORD PTR [ebx+588]
  00249	85 c0		 test	 eax, eax
  0024b	74 1e		 je	 SHORT $L273155
$L264988:

; 877  : 				pTarget = ScanTargetAggro( pMover, (FLOAT)nAttackFirstRange, m_dwAIInterface, m_uParty );

  0024d	8b 46 34	 mov	 eax, DWORD PTR [esi+52]
  00250	db 44 24 10	 fild	 DWORD PTR _nAttackFirstRange$264985[esp+44]
  00254	8b 4e 38	 mov	 ecx, DWORD PTR [esi+56]
  00257	50		 push	 eax
  00258	51		 push	 ecx
  00259	51		 push	 ecx
  0025a	d9 1c 24	 fstp	 DWORD PTR [esp]
  0025d	57		 push	 edi
  0025e	8b ce		 mov	 ecx, esi
  00260	e8 00 00 00 00	 call	 ?ScanTargetAggro@CAIInterface@@IAEPAVCMover@@PAVCObj@@MKK@Z ; CAIInterface::ScanTargetAggro
  00265	8b e8		 mov	 ebp, eax

; 878  : 
; 879  : 			if( pTarget == NULL && GetMover()->m_bActiveAttack )

  00267	85 ed		 test	 ebp, ebp
  00269	75 33		 jne	 SHORT $L273153
$L273155:
  0026b	8b 56 30	 mov	 edx, DWORD PTR [esi+48]
  0026e	8b 82 70 06 00
	00		 mov	 eax, DWORD PTR [edx+1648]
  00274	85 c0		 test	 eax, eax
  00276	0f 84 8f fe ff
	ff		 je	 $L273156

; 880  : 				pTarget = ScanTargetAggro( pMover, (FLOAT)nAttackFirstRange, m_dwAIInterface, m_uParty );

  0027c	8b 46 34	 mov	 eax, DWORD PTR [esi+52]
  0027f	db 44 24 10	 fild	 DWORD PTR _nAttackFirstRange$264985[esp+44]
  00283	8b 4e 38	 mov	 ecx, DWORD PTR [esi+56]
  00286	50		 push	 eax
  00287	51		 push	 ecx
  00288	51		 push	 ecx
  00289	d9 1c 24	 fstp	 DWORD PTR [esp]
  0028c	57		 push	 edi
  0028d	8b ce		 mov	 ecx, esi
  0028f	e8 00 00 00 00	 call	 ?ScanTargetAggro@CAIInterface@@IAEPAVCMover@@PAVCObj@@MKK@Z ; CAIInterface::ScanTargetAggro
  00294	8b e8		 mov	 ebp, eax

; 881  : 
; 882  : 			if( pTarget )

  00296	85 ed		 test	 ebp, ebp
  00298	0f 84 6d fe ff
	ff		 je	 $L273156
$L273153:

; 883  : 			{
; 884  : 				if( IsValidObj( (CObj*)pTarget ) )

  0029e	55		 push	 ebp
  0029f	e8 00 00 00 00	 call	 ?IsValidObj@@YAHPAVCObj@@@Z ; IsValidObj
  002a4	83 c4 04	 add	 esp, 4
  002a7	85 c0		 test	 eax, eax
  002a9	0f 84 5c fe ff
	ff		 je	 $L273156

; 885  : 				{
; 886  : 
; 887  : #ifdef __JHMA_VER_8_6    
; 888  : 					if( pMover->IsFlyingNPC() == FALSE || pMover->IsFlyingNPC() == pTarget->m_pActMover->IsFly() || pProp->dwClass == RANK_GUARD )	//   .
; 889  : #else	// __VER >= 8  
; 890  : 					if( (pMover->IsFlyingNPC() || pTarget->m_pActMover->IsFly() == FALSE) || pProp->dwClass == RANK_GUARD )	//   .

  002af	f6 87 42 02 00
	00 01		 test	 BYTE PTR [edi+578], 1
  002b6	75 1e		 jne	 SHORT $L264996
  002b8	8b 95 3c 02 00
	00		 mov	 edx, DWORD PTR [ebp+572]
  002be	8a 4a 08	 mov	 cl, BYTE PTR [edx+8]
  002c1	b8 08 00 00 00	 mov	 eax, 8
  002c6	84 c8		 test	 cl, al
  002c8	74 0c		 je	 SHORT $L264996
  002ca	39 83 94 00 00
	00		 cmp	 DWORD PTR [ebx+148], eax
  002d0	0f 85 35 fe ff
	ff		 jne	 $L273156
$L264996:

; 891  : #endif	// __VER >= 8  
; 892  : 					{
; 893  : 						if( pTarget )	

  002d6	85 ed		 test	 ebp, ebp
  002d8	0f 84 2d fe ff
	ff		 je	 $L273156

; 894  : 						{
; 895  : 							g_UserMng.AddDlgEmoticon( pMover, DLGEMOT_ATTACK );

  002de	6a 00		 push	 0
  002e0	57		 push	 edi
  002e1	b9 00 00 00 00	 mov	 ecx, OFFSET FLAT:?g_UserMng@@3VCUserMng@@A
  002e6	e8 00 00 00 00	 call	 ?AddDlgEmoticon@CUserMng@@QAEXPAVCCtrl@@H@Z ; CUserMng::AddDlgEmoticon

; 896  : 							SendAIMsg( AIMSG_SETSTATE, STATE_RAGE_PATROL, pTarget->GetId() );

  002eb	8b 8d bc 01 00
	00		 mov	 ecx, DWORD PTR [ebp+444]
  002f1	8b 06		 mov	 eax, DWORD PTR [esi]
  002f3	6a 00		 push	 0
  002f5	51		 push	 ecx
  002f6	6a 0a		 push	 10			; 0000000aH
  002f8	6a 04		 push	 4
  002fa	8b ce		 mov	 ecx, esi
  002fc	ff 50 0c	 call	 DWORD PTR [eax+12]
  002ff	5d		 pop	 ebp
  00300	5f		 pop	 edi
  00301	5e		 pop	 esi

; 897  : 						}
; 898  : 					}
; 899  : 				}
; 900  : 			}	// if( target)
; 901  : 		}	// if( scan )
; 902  : 
; 903  : 	}
; 904  : 	return TRUE;

  00302	b8 01 00 00 00	 mov	 eax, 1
  00307	5b		 pop	 ebx

; 905  : }

  00308	83 c4 1c	 add	 esp, 28			; 0000001cH
  0030b	c2 04 00	 ret	 4
$L264958:
  0030e	5f		 pop	 edi
  0030f	5e		 pop	 esi

; 809  : 		return FALSE;

  00310	33 c0		 xor	 eax, eax
  00312	5b		 pop	 ebx

; 905  : }

  00313	83 c4 1c	 add	 esp, 28			; 0000001cH
  00316	c2 04 00	 ret	 4
?MoveProcessPatrol@CAIAggro@@IAEHABUAIMSG@@@Z ENDP	; CAIAggro::MoveProcessPatrol
_TEXT	ENDS
PUBLIC	?GetAtkProp@CAIAggro@@IAEPAUItemProp@@K@Z	; CAIAggro::GetAtkProp
; Function compile flags: /Ogty
;	COMDAT ?GetAtkProp@CAIAggro@@IAEPAUItemProp@@K@Z
_TEXT	SEGMENT
_dwAtkMethod$ = 8					; size = 4
?GetAtkProp@CAIAggro@@IAEPAUItemProp@@K@Z PROC NEAR	; CAIAggro::GetAtkProp, COMDAT
; _this$ = ecx

; 1088 : 	return prj.GetItemProp( GetAtkItemId( dwAtkMethod ) );

  00000	8b 44 24 04	 mov	 eax, DWORD PTR _dwAtkMethod$[esp-4]
  00004	48		 dec	 eax
  00005	8b 49 30	 mov	 ecx, DWORD PTR [ecx+48]
  00008	74 24		 je	 SHORT $L273172
  0000a	48		 dec	 eax
  0000b	74 14		 je	 SHORT $L273173
  0000d	48		 dec	 eax
  0000e	74 04		 je	 SHORT $L273174
  00010	33 c0		 xor	 eax, eax
  00012	eb 29		 jmp	 SHORT $L273218
$L273174:
  00014	e8 00 00 00 00	 call	 ?GetPropA@CMover@@QAEPAUMoverProp@@XZ ; CMover::GetPropA
  00019	8b 80 b8 00 00
	00		 mov	 eax, DWORD PTR [eax+184]
  0001f	eb 18		 jmp	 SHORT $L273199
$L273173:
  00021	e8 00 00 00 00	 call	 ?GetPropA@CMover@@QAEPAUMoverProp@@XZ ; CMover::GetPropA
  00026	8b 80 b4 00 00
	00		 mov	 eax, DWORD PTR [eax+180]
  0002c	eb 0b		 jmp	 SHORT $L273199
$L273172:
  0002e	e8 00 00 00 00	 call	 ?GetPropA@CMover@@QAEPAUMoverProp@@XZ ; CMover::GetPropA
  00033	8b 80 b0 00 00
	00		 mov	 eax, DWORD PTR [eax+176]
$L273199:
  00039	85 c0		 test	 eax, eax
  0003b	7c 18		 jl	 SHORT $L273219
$L273218:
  0003d	8b 0d 5c 02 00
	00		 mov	 ecx, DWORD PTR ?prj@@3VCProject@@A+604
  00043	3b c1		 cmp	 eax, ecx
  00045	7d 14		 jge	 SHORT $L273203
  00047	73 28		 jae	 SHORT $L273220
  00049	8b 0d 4c 02 00
	00		 mov	 ecx, DWORD PTR ?prj@@3VCProject@@A+588
  0004f	8b 04 81	 mov	 eax, DWORD PTR [ecx+eax*4]

; 1089 : }

  00052	c2 04 00	 ret	 4
$L273219:

; 1088 : 	return prj.GetItemProp( GetAtkItemId( dwAtkMethod ) );

  00055	8b 0d 5c 02 00
	00		 mov	 ecx, DWORD PTR ?prj@@3VCProject@@A+604
$L273203:
  0005b	50		 push	 eax
  0005c	51		 push	 ecx
  0005d	6a 00		 push	 0
  0005f	68 00 00 00 00	 push	 OFFSET FLAT:??_C@_0BI@BEIFNGEL@GetItemProp?5range_error?$AA@
  00064	68 00 00 00 00	 push	 OFFSET FLAT:??_C@_0BM@HMFGHCP@?$CFs?5min?3?$CFd?0?5max?3?$CFd?0?5index?3?$CFd?$AA@
  00069	e8 00 00 00 00	 call	 ?Error@@YAPBDPBDZZ	; Error
  0006e	83 c4 14	 add	 esp, 20			; 00000014H
$L273220:
  00071	33 c0		 xor	 eax, eax

; 1089 : }

  00073	c2 04 00	 ret	 4
?GetAtkProp@CAIAggro@@IAEPAUItemProp@@K@Z ENDP		; CAIAggro::GetAtkProp
_TEXT	ENDS
PUBLIC	??_C@_0BO@NMGEGOH@CAIAggro?3?3DoAttack?5?3?5?$CFs?5?$CFd?5?$CFd?$AA@ ; `string'
PUBLIC	??_C@_0CF@GPCLPLOG@?$LA?f?$LA?m?5?3?5?$CFs?$MA?G?5dwAtk2?$LA?$KB?5?A?v?A?$KE?$LF?G?A?v?5?$LO?J@ ; `string'
PUBLIC	??_C@_0CF@PNLKMPKB@?$LA?f?$LA?m?5?3?5?$CFs?$MA?G?5?$LA?x?$LA?$NN?$CFd?$LA?$KB?5?A?v?A?$KE?$LF?G?A?v?5?$LO?J@ ; `string'
PUBLIC	?DoAttack@CAIAggro@@IAEXKPAVCMover@@@Z		; CAIAggro::DoAttack
EXTRN	?Add@CSfxHitArray@@QAEHHKKKH@Z:NEAR		; CSfxHitArray::Add
EXTRN	?RemoveSfxHit@CSfxHitArray@@QAEHHH@Z:NEAR	; CSfxHitArray::RemoveSfxHit
EXTRN	?AddMeleeAttack@CUserMng@@QAEXPAVCMover@@KKHH@Z:NEAR ; CUserMng::AddMeleeAttack
EXTRN	?DoAttackRange@CMover@@QAEHPAVCObj@@KH@Z:NEAR	; CMover::DoAttackRange
EXTRN	?DoAttackSP@CMover@@QAEHPAVCObj@@K@Z:NEAR	; CMover::DoAttackSP
;	COMDAT ??_C@_0BO@NMGEGOH@CAIAggro?3?3DoAttack?5?3?5?$CFs?5?$CFd?5?$CFd?$AA@
; File c:\documents and settings\test\mes documents\source\virtuos_v17\build\program\_common\ctrl.h
CONST	SEGMENT
??_C@_0BO@NMGEGOH@CAIAggro?3?3DoAttack?5?3?5?$CFs?5?$CFd?5?$CFd?$AA@ DB 'C'
	DB	'AIAggro::DoAttack : %s %d %d', 00H		; `string'
CONST	ENDS
;	COMDAT ??_C@_0CF@PNLKMPKB@?$LA?f?$LA?m?5?3?5?$CFs?$MA?G?5?$LA?x?$LA?$NN?$CFd?$LA?$KB?5?A?v?A?$KE?$LF?G?A?v?5?$LO?J@
CONST	SEGMENT
??_C@_0CF@PNLKMPKB@?$LA?f?$LA?m?5?3?5?$CFs?$MA?G?5?$LA?x?$LA?$NN?$CFd?$LA?$KB?5?A?v?A?$KE?$LF?G?A?v?5?$LO?J@ DB 0b0H
	DB	0e6H, 0b0H, 0edH, ' : %s', 0c0H, 0c7H, ' ', 0b0H, 0f8H, 0b0H, 0ddH
	DB	'%d', 0b0H, 0a1H, ' ', 0c1H, 0f6H, 0c1H, 0a4H, 0b5H, 0c7H, 0c1H
	DB	0f6H, ' ', 0beH, 0caH, 0beH, 0d2H, 0b4H, 0d9H, 00H ; `string'
CONST	ENDS
;	COMDAT ??_C@_0CF@GPCLPLOG@?$LA?f?$LA?m?5?3?5?$CFs?$MA?G?5dwAtk2?$LA?$KB?5?A?v?A?$KE?$LF?G?A?v?5?$LO?J@
CONST	SEGMENT
??_C@_0CF@GPCLPLOG@?$LA?f?$LA?m?5?3?5?$CFs?$MA?G?5dwAtk2?$LA?$KB?5?A?v?A?$KE?$LF?G?A?v?5?$LO?J@ DB 0b0H
	DB	0e6H, 0b0H, 0edH, ' : %s', 0c0H, 0c7H, ' dwAtk2', 0b0H, 0a1H, ' '
	DB	0c1H, 0f6H, 0c1H, 0a4H, 0b5H, 0c7H, 0c1H, 0f6H, ' ', 0beH, 0caH
	DB	0beH, 0d2H, 0b4H, 0d9H, 00H			; `string'
; Function compile flags: /Ogty
; File c:\documents and settings\test\mes documents\source\virtuos_v17\build\program\_aiinterface\aiaggro.cpp
CONST	ENDS
;	COMDAT ?DoAttack@CAIAggro@@IAEXKPAVCMover@@@Z
_TEXT	SEGMENT
_this$ = -4						; size = 4
_dwAtkMethod$ = 8					; size = 4
_pTarget$ = 12						; size = 4
?DoAttack@CAIAggro@@IAEXKPAVCMover@@@Z PROC NEAR	; CAIAggro::DoAttack, COMDAT
; _this$ = ecx

; 1107 : {

  00000	51		 push	 ecx
  00001	55		 push	 ebp
  00002	8b e9		 mov	 ebp, ecx
  00004	56		 push	 esi

; 1108 : 	CMover* pMover = GetMover();

  00005	8b 75 30	 mov	 esi, DWORD PTR [ebp+48]

; 1109 : 	if( IsInvalidObj( pMover ) || dwAtkMethod == 0 )	

  00008	85 f6		 test	 esi, esi
  0000a	89 6c 24 08	 mov	 DWORD PTR _this$[esp+12], ebp
  0000e	0f 84 3f 01 00
	00		 je	 $L265214
  00014	f6 46 04 01	 test	 BYTE PTR [esi+4], 1
  00018	0f 85 35 01 00
	00		 jne	 $L265214
  0001e	53		 push	 ebx
  0001f	8b 5c 24 14	 mov	 ebx, DWORD PTR _dwAtkMethod$[esp+12]
  00023	85 db		 test	 ebx, ebx
  00025	0f 84 27 01 00
	00		 je	 $L273262
  0002b	57		 push	 edi

; 1110 : 		return;
; 1111 : 
; 1112 : 	DWORD dwAtkItem = GetAtkItemId( dwAtkMethod );

  0002c	53		 push	 ebx
  0002d	e8 00 00 00 00	 call	 ?GetAtkItemId@CAIAggro@@IAEKK@Z ; CAIAggro::GetAtkItemId
  00032	8b f8		 mov	 edi, eax

; 1113 : 	ItemProp* pItemProp = prj.GetItemProp( dwAtkItem );

  00034	57		 push	 edi
  00035	b9 00 00 00 00	 mov	 ecx, OFFSET FLAT:?prj@@3VCProject@@A
  0003a	e8 00 00 00 00	 call	 ?GetItemProp@CProject@@QAEPAUItemProp@@H@Z ; CProject::GetItemProp

; 1114 : 	if( pItemProp == NULL )

  0003f	85 c0		 test	 eax, eax
  00041	75 20		 jne	 SHORT $L265217

; 1115 : 	{
; 1116 : 		Error( "CAIAggro::DoAttack : %s %d %d", pMover->GetName(), dwAtkMethod, dwAtkItem );

  00043	57		 push	 edi
  00044	53		 push	 ebx
  00045	50		 push	 eax
  00046	8b ce		 mov	 ecx, esi
  00048	e8 00 00 00 00	 call	 ?GetName@CMover@@QAEPBDH@Z ; CMover::GetName
  0004d	50		 push	 eax
  0004e	68 00 00 00 00	 push	 OFFSET FLAT:??_C@_0BO@NMGEGOH@CAIAggro?3?3DoAttack?5?3?5?$CFs?5?$CFd?5?$CFd?$AA@
  00053	e8 00 00 00 00	 call	 ?Error@@YAPBDPBDZZ	; Error
  00058	83 c4 10	 add	 esp, 16			; 00000010H
  0005b	5f		 pop	 edi
  0005c	5b		 pop	 ebx
  0005d	5e		 pop	 esi
  0005e	5d		 pop	 ebp

; 1148 : }

  0005f	59		 pop	 ecx
  00060	c2 08 00	 ret	 8
$L265217:

; 1117 : 		return;
; 1118 : 	}
; 1119 : 	
; 1120 : 	if( pItemProp->dwAttackRange == AR_RANGE || pItemProp->dwAttackRange == AR_WAND )

  00063	8b 80 38 01 00
	00		 mov	 eax, DWORD PTR [eax+312]
  00069	83 f8 04	 cmp	 eax, 4
  0006c	74 74		 je	 SHORT $L265220
  0006e	83 f8 05	 cmp	 eax, 5
  00071	74 6f		 je	 SHORT $L265220

; 1129 : 	}
; 1130 : 	else
; 1131 : 	{
; 1132 : 		DWORD dwItemID = dwAtkItem;
; 1133 : 		if( dwItemID == NULL_ID )

  00073	83 ff ff	 cmp	 edi, -1
  00076	75 18		 jne	 SHORT $L265229

; 1134 : 			Error( " : %s %d  ", pMover->GetName(), dwAtkMethod );

  00078	53		 push	 ebx
  00079	6a 00		 push	 0
  0007b	8b ce		 mov	 ecx, esi
  0007d	e8 00 00 00 00	 call	 ?GetName@CMover@@QAEPBDH@Z ; CMover::GetName
  00082	50		 push	 eax
  00083	68 00 00 00 00	 push	 OFFSET FLAT:??_C@_0CF@PNLKMPKB@?$LA?f?$LA?m?5?3?5?$CFs?$MA?G?5?$LA?x?$LA?$NN?$CFd?$LA?$KB?5?A?v?A?$KE?$LF?G?A?v?5?$LO?J@
  00088	e8 00 00 00 00	 call	 ?Error@@YAPBDPBDZZ	; Error
  0008d	83 c4 0c	 add	 esp, 12			; 0000000cH
$L265229:

; 1135 : 		if( dwAtkMethod == 3 )

  00090	83 fb 03	 cmp	 ebx, 3

; 1136 : 			pMover->DoAttackSP( pTarget, dwItemID );

  00093	8b ce		 mov	 ecx, esi
  00095	75 10		 jne	 SHORT $L265231
  00097	8b 44 24 1c	 mov	 eax, DWORD PTR _pTarget$[esp+16]
  0009b	57		 push	 edi
  0009c	50		 push	 eax
  0009d	e8 00 00 00 00	 call	 ?DoAttackSP@CMover@@QAEHPAVCObj@@K@Z ; CMover::DoAttackSP

; 1137 : 		else

  000a2	e9 9a 00 00 00	 jmp	 $L265226
$L265231:

; 1138 : 		{
; 1139 : 			int nError = pMover->SendActMsg( OBJMSG_ATK1, pTarget->GetId(), 0, 0 );

  000a7	8b 7c 24 1c	 mov	 edi, DWORD PTR _pTarget$[esp+16]
  000ab	8b 87 bc 01 00
	00		 mov	 eax, DWORD PTR [edi+444]
  000b1	6a 00		 push	 0
  000b3	6a 00		 push	 0
  000b5	6a 00		 push	 0
  000b7	50		 push	 eax
  000b8	6a 1d		 push	 29			; 0000001dH
  000ba	e8 00 00 00 00	 call	 ?SendActMsg@CMover@@QAEHW4OBJMSG@@HHHH@Z ; CMover::SendActMsg

; 1140 : 			if( nError > 0 ) 

  000bf	85 c0		 test	 eax, eax
  000c1	7e 7e		 jle	 SHORT $L265226

; 1141 : 				g_UserMng.AddMeleeAttack( pMover, OBJMSG_ATK1, pTarget->GetId(), 0, MAKELONG( 0, (WORD)nError ) );

  000c3	8b 97 bc 01 00
	00		 mov	 edx, DWORD PTR [edi+444]
  000c9	0f b7 c8	 movzx	 ecx, ax
  000cc	c1 e1 10	 shl	 ecx, 16			; 00000010H
  000cf	51		 push	 ecx
  000d0	6a 00		 push	 0
  000d2	52		 push	 edx
  000d3	6a 1d		 push	 29			; 0000001dH
  000d5	56		 push	 esi
  000d6	b9 00 00 00 00	 mov	 ecx, OFFSET FLAT:?g_UserMng@@3VCUserMng@@A
  000db	e8 00 00 00 00	 call	 ?AddMeleeAttack@CUserMng@@QAEXPAVCMover@@KKHH@Z ; CUserMng::AddMeleeAttack

; 1142 : 			else

  000e0	eb 5f		 jmp	 SHORT $L265226
$L265220:

; 1121 : 	{
; 1122 : 		int id = pMover->m_sfxHitArray.Add( 0, pTarget->GetId(), AF_GENERIC, 0 );

  000e2	8b 44 24 1c	 mov	 eax, DWORD PTR _pTarget$[esp+16]
  000e6	8b 80 bc 01 00
	00		 mov	 eax, DWORD PTR [eax+444]
  000ec	6a 01		 push	 1
  000ee	6a 00		 push	 0
  000f0	6a 01		 push	 1
  000f2	50		 push	 eax
  000f3	8d 9e ec 0e 00
	00		 lea	 ebx, DWORD PTR [esi+3820]
  000f9	6a 00		 push	 0
  000fb	8b cb		 mov	 ecx, ebx
  000fd	e8 00 00 00 00	 call	 ?Add@CSfxHitArray@@QAEHHKKKH@Z ; CSfxHitArray::Add

; 1123 : 		DWORD dwItemID = dwAtkItem;
; 1124 : 		if( dwItemID == NULL_ID )

  00102	83 ff ff	 cmp	 edi, -1
  00105	8b e8		 mov	 ebp, eax
  00107	75 17		 jne	 SHORT $L265224

; 1125 : 			Error( " : %s dwAtk2  ", pMover->GetName() );

  00109	6a 00		 push	 0
  0010b	8b ce		 mov	 ecx, esi
  0010d	e8 00 00 00 00	 call	 ?GetName@CMover@@QAEPBDH@Z ; CMover::GetName
  00112	50		 push	 eax
  00113	68 00 00 00 00	 push	 OFFSET FLAT:??_C@_0CF@GPCLPLOG@?$LA?f?$LA?m?5?3?5?$CFs?$MA?G?5dwAtk2?$LA?$KB?5?A?v?A?$KE?$LF?G?A?v?5?$LO?J@
  00118	e8 00 00 00 00	 call	 ?Error@@YAPBDPBDZZ	; Error
  0011d	83 c4 08	 add	 esp, 8
$L265224:

; 1126 : 
; 1127 : 		if( pMover->DoAttackRange( pTarget, dwItemID, id ) != 1 )

  00120	8b 4c 24 1c	 mov	 ecx, DWORD PTR _pTarget$[esp+16]
  00124	55		 push	 ebp
  00125	57		 push	 edi
  00126	51		 push	 ecx
  00127	8b ce		 mov	 ecx, esi
  00129	e8 00 00 00 00	 call	 ?DoAttackRange@CMover@@QAEHPAVCObj@@KH@Z ; CMover::DoAttackRange
  0012e	83 f8 01	 cmp	 eax, 1
  00131	74 0a		 je	 SHORT $L273261

; 1128 : 			pMover->m_sfxHitArray.RemoveSfxHit( id, FALSE );	

  00133	6a 00		 push	 0
  00135	55		 push	 ebp
  00136	8b cb		 mov	 ecx, ebx
  00138	e8 00 00 00 00	 call	 ?RemoveSfxHit@CSfxHitArray@@QAEHHH@Z ; CSfxHitArray::RemoveSfxHit
$L273261:
  0013d	8b 6c 24 10	 mov	 ebp, DWORD PTR _this$[esp+20]
$L265226:

; 1143 : 				nError = -1;
; 1144 : 		}
; 1145 : 	}
; 1146 : 
; 1147 : 	m_tmAttack	= TIMEGETTIME + s_tmAttack;	

  00141	8b 15 00 00 00
	00		 mov	 edx, DWORD PTR ?g_tmCurrent@@3KA ; g_tmCurrent
  00147	a1 00 00 00 00	 mov	 eax, DWORD PTR _s_tmAttack
  0014c	03 c2		 add	 eax, edx
  0014e	89 45 44	 mov	 DWORD PTR [ebp+68], eax
  00151	5f		 pop	 edi
$L273262:
  00152	5b		 pop	 ebx
$L265214:
  00153	5e		 pop	 esi
  00154	5d		 pop	 ebp

; 1148 : }

  00155	59		 pop	 ecx
  00156	c2 08 00	 ret	 8
?DoAttack@CAIAggro@@IAEXKPAVCMover@@@Z ENDP		; CAIAggro::DoAttack
_TEXT	ENDS
PUBLIC	?MoveProcessRunaway@CAIAggro@@IAEHXZ		; CAIAggro::MoveProcessRunaway
PUBLIC	__real@3fd9999a
PUBLIC	__real@4f800000
EXTRN	?GetActiveHandItemProp@CMover@@QAEPAUItemProp@@H@Z:NEAR ; CMover::GetActiveHandItemProp
EXTRN	?AddAngle@CObj@@QAEXM@Z:NEAR			; CObj::AddAngle
EXTRN	?IncHitPoint@CMover@@QAEXH@Z:NEAR		; CMover::IncHitPoint
EXTRN	?GetHPRecovery@CMover@@QAEHXZ:NEAR		; CMover::GetHPRecovery
EXTRN	?GetAttackRange@CMover@@QAEMK@Z:NEAR		; CMover::GetAttackRange
;	COMDAT __real@3fd9999a
; File c:\documents and settings\test\mes documents\source\virtuos_v17\build\program\dx_sdk\d3dx9math.inl
CONST	SEGMENT
__real@3fd9999a DD 03fd9999ar			; 1.7
CONST	ENDS
;	COMDAT __real@4f800000
CONST	SEGMENT
__real@4f800000 DD 04f800000r			; 4.29497e+009
; Function compile flags: /Ogty
; File c:\documents and settings\test\mes documents\source\virtuos_v17\build\program\_aiinterface\aiaggro.cpp
CONST	ENDS
;	COMDAT ?MoveProcessRunaway@CAIAggro@@IAEHXZ
_TEXT	SEGMENT
tv377 = -40						; size = 4
_fRange$265751 = -40					; size = 4
$T273270 = -36						; size = 12
$T273267 = -36						; size = 12
$T273271 = -24						; size = 12
$T273268 = -24						; size = 12
_vDst$265758 = -12					; size = 12
$T273269 = -12						; size = 12
?MoveProcessRunaway@CAIAggro@@IAEHXZ PROC NEAR		; CAIAggro::MoveProcessRunaway, COMDAT
; _this$ = ecx

; 1883 : {

  00000	83 ec 28	 sub	 esp, 40			; 00000028H
  00003	56		 push	 esi
  00004	57		 push	 edi
  00005	8b f9		 mov	 edi, ecx

; 1884 : 	CMover* pMover = GetMover();

  00007	8b 77 30	 mov	 esi, DWORD PTR [edi+48]

; 1885 : 	CWorld* pWorld = GetWorld();
; 1886 : 
; 1887 : 	if( pMover->IsDie() || (pMover->m_pActMover->GetState() & OBJSTA_DMG_FLY_ALL))

  0000a	8b 86 3c 02 00
	00		 mov	 eax, DWORD PTR [esi+572]
  00010	8b 40 04	 mov	 eax, DWORD PTR [eax+4]
  00013	a9 00 00 00 08	 test	 eax, 134217728		; 08000000H
  00018	0f 85 d1 01 00
	00		 jne	 $L265742
  0001e	8b 8e 00 06 00
	00		 mov	 ecx, DWORD PTR [esi+1536]
  00024	85 c9		 test	 ecx, ecx
  00026	0f 84 c3 01 00
	00		 je	 $L265742
  0002c	a9 00 00 00 02	 test	 eax, 33554432		; 02000000H
  00031	0f 85 b8 01 00
	00		 jne	 $L265742

; 1889 : 
; 1890 : 	DWORD dwAIState = pMover->m_dwAIInterfaceState;
; 1891 : 
; 1892 : 	CCtrl* pTarget = prj.GetCtrl( m_dwIdTarget ); 

  00037	8b 8f e0 00 00
	00		 mov	 ecx, DWORD PTR [edi+224]
  0003d	53		 push	 ebx
  0003e	55		 push	 ebp
  0003f	8b ae 90 01 00
	00		 mov	 ebp, DWORD PTR [esi+400]
  00045	51		 push	 ecx
  00046	b9 00 00 00 00	 mov	 ecx, OFFSET FLAT:?prj@@3VCProject@@A
  0004b	e8 00 00 00 00	 call	 ?GetCtrl@CProject@@QAEPAVCCtrl@@K@Z ; CProject::GetCtrl
  00050	8b d8		 mov	 ebx, eax

; 1893 : 
; 1894 : 	if( IsValidObj( pTarget ) == FALSE )

  00052	85 db		 test	 ebx, ebx
  00054	74 06		 je	 SHORT $L273308
  00056	f6 43 04 01	 test	 BYTE PTR [ebx+4], 1
  0005a	74 28		 je	 SHORT $L265745
$L273308:

; 1895 : 	{
; 1896 : 		SetTarget( NULL_ID, 0 );

  0005c	8b 4f 30	 mov	 ecx, DWORD PTR [edi+48]
  0005f	68 00 00 80 3f	 push	 1065353216		; 3f800000H
  00064	c7 87 e0 00 00
	00 ff ff ff ff	 mov	 DWORD PTR [edi+224], -1
  0006e	c7 47 34 00 00
	00 00		 mov	 DWORD PTR [edi+52], 0
  00075	e8 00 00 00 00	 call	 ?SetSpeedFactor@CMover@@QAEXM@Z ; CMover::SetSpeedFactor

; 1897 : 		SendAIMsg( AIMSG_SETSTATE, dwAIState );

  0007a	6a 00		 push	 0
  0007c	6a 00		 push	 0
  0007e	55		 push	 ebp

; 1898 : 	}
; 1899 : 	else

  0007f	e9 55 01 00 00	 jmp	 $L273363
$L265745:

; 1900 : 	if( IsEndStop()  )

  00084	8b cf		 mov	 ecx, edi
  00086	e8 00 00 00 00	 call	 ?IsEndStop@CAIAggro@@IAEHXZ ; CAIAggro::IsEndStop
  0008b	85 c0		 test	 eax, eax
  0008d	0f 84 4f 01 00
	00		 je	 $L273359

; 1901 : 	{
; 1902 : 		CMover* pMoverTarget = (CMover*)pTarget;
; 1903 : 		DWORD dwAttackRange = pMoverTarget->GetActiveHandItemProp()->dwAttackRange;

  00093	6a 0a		 push	 10			; 0000000aH
  00095	8b cb		 mov	 ecx, ebx
  00097	e8 00 00 00 00	 call	 ?GetActiveHandItemProp@CMover@@QAEPAUItemProp@@H@Z ; CMover::GetActiveHandItemProp
  0009c	8b 80 38 01 00
	00		 mov	 eax, DWORD PTR [eax+312]

; 1904 : 		FLOAT fRange = pMoverTarget->GetAttackRange( dwAttackRange ) * 1.7f;

  000a2	50		 push	 eax
  000a3	8b cb		 mov	 ecx, ebx
  000a5	e8 00 00 00 00	 call	 ?GetAttackRange@CMover@@QAEMK@Z ; CMover::GetAttackRange
  000aa	d8 0d 00 00 00
	00		 fmul	 DWORD PTR __real@3fd9999a

; 1905 : 
; 1906 : 		if( IsInRange( pTarget->GetPos() - pMover->GetPos(), fRange ) == TRUE )

  000b0	8d 86 60 01 00
	00		 lea	 eax, DWORD PTR [esi+352]
  000b6	8b 08		 mov	 ecx, DWORD PTR [eax]
  000b8	8b 50 04	 mov	 edx, DWORD PTR [eax+4]
  000bb	d9 5c 24 10	 fstp	 DWORD PTR _fRange$265751[esp+56]
  000bf	8b 40 08	 mov	 eax, DWORD PTR [eax+8]
  000c2	89 4c 24 20	 mov	 DWORD PTR $T273268[esp+56], ecx
  000c6	81 c3 60 01 00
	00		 add	 ebx, 352		; 00000160H
  000cc	8b 0b		 mov	 ecx, DWORD PTR [ebx]
  000ce	89 4c 24 14	 mov	 DWORD PTR $T273267[esp+56], ecx
  000d2	d9 44 24 14	 fld	 DWORD PTR $T273267[esp+56]
  000d6	d8 64 24 20	 fsub	 DWORD PTR $T273268[esp+56]
  000da	89 54 24 24	 mov	 DWORD PTR $T273268[esp+60], edx
  000de	8b 53 04	 mov	 edx, DWORD PTR [ebx+4]
  000e1	89 54 24 18	 mov	 DWORD PTR $T273267[esp+60], edx
  000e5	d9 5c 24 2c	 fstp	 DWORD PTR $T273269[esp+56]
  000e9	89 44 24 28	 mov	 DWORD PTR $T273268[esp+64], eax
  000ed	d9 44 24 18	 fld	 DWORD PTR $T273267[esp+60]
  000f1	8b 43 08	 mov	 eax, DWORD PTR [ebx+8]
  000f4	d8 64 24 24	 fsub	 DWORD PTR $T273268[esp+60]
  000f8	8b 5c 24 10	 mov	 ebx, DWORD PTR _fRange$265751[esp+56]
  000fc	89 44 24 1c	 mov	 DWORD PTR $T273267[esp+64], eax
  00100	53		 push	 ebx
  00101	d9 5c 24 34	 fstp	 DWORD PTR $T273269[esp+64]
  00105	8d 4c 24 30	 lea	 ecx, DWORD PTR $T273269[esp+60]
  00109	d9 44 24 20	 fld	 DWORD PTR $T273267[esp+68]
  0010d	51		 push	 ecx
  0010e	d8 64 24 30	 fsub	 DWORD PTR $T273268[esp+72]
  00112	8b cf		 mov	 ecx, edi
  00114	d9 5c 24 3c	 fstp	 DWORD PTR $T273269[esp+72]
  00118	e8 00 00 00 00	 call	 ?IsInRange@CAIAggro@@IAEHAAUD3DXVECTOR3@@M@Z ; CAIAggro::IsInRange
  0011d	83 f8 01	 cmp	 eax, 1
  00120	75 72		 jne	 SHORT $L265755

; 1907 : 		{
; 1908 : 			pMover->AddAngle( (float)( 20 - xRandom( 40 ) ) );

  00122	6a 28		 push	 40			; 00000028H
  00124	e8 00 00 00 00	 call	 ?xRandom@@YAKK@Z	; xRandom
  00129	ba 14 00 00 00	 mov	 edx, 20			; 00000014H
  0012e	2b d0		 sub	 edx, eax
  00130	85 d2		 test	 edx, edx
  00132	89 54 24 14	 mov	 DWORD PTR tv377[esp+60], edx
  00136	db 44 24 14	 fild	 DWORD PTR tv377[esp+60]
  0013a	7d 06		 jge	 SHORT $L273360
  0013c	d8 05 00 00 00
	00		 fadd	 DWORD PTR __real@4f800000
$L273360:
  00142	8b ce		 mov	 ecx, esi
  00144	d9 1c 24	 fstp	 DWORD PTR [esp]
  00147	e8 00 00 00 00	 call	 ?AddAngle@CObj@@QAEXM@Z	; CObj::AddAngle

; 1909 : 			FLOAT fAngle = pMover->GetAngle();
; 1910 : 			D3DXVECTOR3 vDst = pMover->GetPos() + VelocityToVec( fAngle, fRange );

  0014c	8b 46 18	 mov	 eax, DWORD PTR [esi+24]
  0014f	53		 push	 ebx
  00150	50		 push	 eax
  00151	8d 4c 24 28	 lea	 ecx, DWORD PTR $T273271[esp+64]
  00155	51		 push	 ecx
  00156	e8 00 00 00 00	 call	 ?VelocityToVec@@YA?AUD3DXVECTOR3@@MM@Z ; VelocityToVec
  0015b	83 c4 0c	 add	 esp, 12			; 0000000cH
  0015e	8d 54 24 14	 lea	 edx, DWORD PTR $T273270[esp+56]
  00162	52		 push	 edx
  00163	8b ce		 mov	 ecx, esi
  00165	8b d8		 mov	 ebx, eax
  00167	e8 00 00 00 00	 call	 ?GetPos@CObj@@QAE?AUD3DXVECTOR3@@XZ ; CObj::GetPos
  0016c	d9 43 08	 fld	 DWORD PTR [ebx+8]
  0016f	d8 40 08	 fadd	 DWORD PTR [eax+8]

; 1911 : 			MoveToDst( vDst );

  00172	8b cf		 mov	 ecx, edi
  00174	d9 43 04	 fld	 DWORD PTR [ebx+4]
  00177	d8 40 04	 fadd	 DWORD PTR [eax+4]
  0017a	d9 03		 fld	 DWORD PTR [ebx]
  0017c	d8 00		 fadd	 DWORD PTR [eax]
  0017e	8d 44 24 2c	 lea	 eax, DWORD PTR _vDst$265758[esp+56]
  00182	50		 push	 eax
  00183	d9 5c 24 30	 fstp	 DWORD PTR _vDst$265758[esp+60]
  00187	d9 5c 24 34	 fstp	 DWORD PTR _vDst$265758[esp+64]
  0018b	d9 5c 24 38	 fstp	 DWORD PTR _vDst$265758[esp+68]
  0018f	e8 00 00 00 00	 call	 ?MoveToDst@CAIAggro@@IAEXABUD3DXVECTOR3@@@Z ; CAIAggro::MoveToDst
$L265755:

; 1912 : 		}
; 1913 : 		if( m_bTargetNoMovePos == FALSE )

  00194	8b 87 cc 00 00
	00		 mov	 eax, DWORD PTR [edi+204]
  0019a	85 c0		 test	 eax, eax
  0019c	75 44		 jne	 SHORT $L273359

; 1914 : 		{
; 1915 : 			if( ::TIMEGETTIME > pMover->m_dwTickRecovery )

  0019e	a1 00 00 00 00	 mov	 eax, DWORD PTR ?g_tmCurrent@@3KA ; g_tmCurrent
  001a3	3b 86 e8 02 00
	00		 cmp	 eax, DWORD PTR [esi+744]
  001a9	76 37		 jbe	 SHORT $L273359

; 1916 : 			{
; 1917 : 				pMover->m_dwTickRecovery = ::TIMEGETTIME + NEXT_TICK_RECOVERY;

  001ab	05 d0 07 00 00	 add	 eax, 2000		; 000007d0H

; 1918 : 				pMover->IncHitPoint( pMover->GetHPRecovery() );

  001b0	8b ce		 mov	 ecx, esi
  001b2	89 86 e8 02 00
	00		 mov	 DWORD PTR [esi+744], eax
  001b8	e8 00 00 00 00	 call	 ?GetHPRecovery@CMover@@QAEHXZ ; CMover::GetHPRecovery
  001bd	50		 push	 eax
  001be	8b ce		 mov	 ecx, esi
  001c0	e8 00 00 00 00	 call	 ?IncHitPoint@CMover@@QAEXH@Z ; CMover::IncHitPoint

; 1919 : 				if( pMover->GetHitPointPercent( 100 ) >= 50 )

  001c5	6a 64		 push	 100			; 00000064H
  001c7	8b ce		 mov	 ecx, esi
  001c9	e8 00 00 00 00	 call	 ?GetHitPointPercent@CMover@@QAEHH@Z ; CMover::GetHitPointPercent
  001ce	83 f8 32	 cmp	 eax, 50			; 00000032H
  001d1	7c 0f		 jl	 SHORT $L273359

; 1920 : 					SendAIMsg( AIMSG_SETSTATE, STATE_RAGE, NULL_ID );

  001d3	6a 00		 push	 0
  001d5	6a ff		 push	 -1
  001d7	6a 07		 push	 7
$L273363:
  001d9	8b 17		 mov	 edx, DWORD PTR [edi]
  001db	8b cf		 mov	 ecx, edi
  001dd	6a 04		 push	 4
  001df	ff 52 0c	 call	 DWORD PTR [edx+12]
$L273359:
  001e2	5d		 pop	 ebp
  001e3	5b		 pop	 ebx
  001e4	5f		 pop	 edi

; 1921 : 			}
; 1922 : 		}
; 1923 : 	}
; 1924 : 	return TRUE;

  001e5	b8 01 00 00 00	 mov	 eax, 1
  001ea	5e		 pop	 esi

; 1925 : }

  001eb	83 c4 28	 add	 esp, 40			; 00000028H
  001ee	c3		 ret	 0
$L265742:
  001ef	5f		 pop	 edi

; 1888 : 		return FALSE;

  001f0	33 c0		 xor	 eax, eax
  001f2	5e		 pop	 esi

; 1925 : }

  001f3	83 c4 28	 add	 esp, 40			; 00000028H
  001f6	c3		 ret	 0
?MoveProcessRunaway@CAIAggro@@IAEHXZ ENDP		; CAIAggro::MoveProcessRunaway
_TEXT	ENDS
PUBLIC	?StateRunaway@CAIAggro@@IAEHABUAIMSG@@@Z	; CAIAggro::StateRunaway
; Function compile flags: /Ogty
;	COMDAT ?StateRunaway@CAIAggro@@IAEHABUAIMSG@@@Z
_TEXT	SEGMENT
$T273370 = -36						; size = 12
$T273367 = -36						; size = 12
_vDst$265797 = -24					; size = 12
_vDst$265782 = -24					; size = 12
$T273371 = -12						; size = 12
$T273368 = -12						; size = 12
tv523 = 8						; size = 4
tv488 = 8						; size = 4
_msg$ = 8						; size = 4
?StateRunaway@CAIAggro@@IAEHABUAIMSG@@@Z PROC NEAR	; CAIAggro::StateRunaway, COMDAT
; _this$ = ecx

; 1928 : {

  00000	83 ec 24	 sub	 esp, 36			; 00000024H
  00003	53		 push	 ebx
  00004	55		 push	 ebp
  00005	56		 push	 esi
  00006	8b f1		 mov	 esi, ecx

; 1929 : 	CMover* pMover = GetMover();
; 1930 : 	CWorld* pWorld = GetWorld();
; 1931 : 
; 1932 : 	DWORD dwAIState = pMover->m_dwAIInterfaceState;
; 1933 : 
; 1934 : 	BeginAIHandler( )
; 1935 : 
; 1936 : 	///////////////////////////////////////////////////////////////////////////////////////////////////
; 1937 : 	OnMessage( AIMSG_INIT ) 

  00008	8b 4c 24 34	 mov	 ecx, DWORD PTR _msg$[esp+44]
  0000c	8b 01		 mov	 eax, DWORD PTR [ecx]
  0000e	83 f8 01	 cmp	 eax, 1
  00011	57		 push	 edi
  00012	8b 7e 30	 mov	 edi, DWORD PTR [esi+48]
  00015	8b 9f 90 01 00
	00		 mov	 ebx, DWORD PTR [edi+400]
  0001b	0f 85 03 01 00
	00		 jne	 $L265774

; 1938 : 		m_bTargetNoMovePos	= msg.dwParam2;

  00021	8b 41 08	 mov	 eax, DWORD PTR [ecx+8]
  00024	89 86 cc 00 00
	00		 mov	 DWORD PTR [esi+204], eax

; 1939 : 		pMover->AddAngle( (float)( 180 + ( 20 - xRandom( 40 ) ) ) );

  0002a	a1 00 00 00 00	 mov	 eax, DWORD PTR ?g_next@@3KA ; g_next
  0002f	69 c0 6d 4e c6
	41		 imul	 eax, 1103515245		; 41c64e6dH
  00035	05 39 30 00 00	 add	 eax, 12345		; 00003039H
  0003a	a3 00 00 00 00	 mov	 DWORD PTR ?g_next@@3KA, eax ; g_next
  0003f	33 d2		 xor	 edx, edx
  00041	b9 28 00 00 00	 mov	 ecx, 40			; 00000028H
  00046	f7 f1		 div	 ecx
  00048	b8 c8 00 00 00	 mov	 eax, 200		; 000000c8H
  0004d	2b c2		 sub	 eax, edx
  0004f	85 c0		 test	 eax, eax
  00051	89 44 24 38	 mov	 DWORD PTR tv523[esp+48], eax
  00055	db 44 24 38	 fild	 DWORD PTR tv523[esp+48]
  00059	7d 06		 jge	 SHORT $L273477
  0005b	d8 05 00 00 00
	00		 fadd	 DWORD PTR __real@4f800000
$L273477:
  00061	51		 push	 ecx
  00062	8b cf		 mov	 ecx, edi
  00064	d9 1c 24	 fstp	 DWORD PTR [esp]
  00067	e8 00 00 00 00	 call	 ?AddAngle@CObj@@QAEXM@Z	; CObj::AddAngle

; 1940 : 		CMover* pMoverTarget = (CMover*)prj.GetCtrl( m_dwIdTarget );

  0006c	8b 8e e0 00 00
	00		 mov	 ecx, DWORD PTR [esi+224]
  00072	51		 push	 ecx
  00073	b9 00 00 00 00	 mov	 ecx, OFFSET FLAT:?prj@@3VCProject@@A
  00078	e8 00 00 00 00	 call	 ?GetCtrl@CProject@@QAEPAVCCtrl@@K@Z ; CProject::GetCtrl
  0007d	8b e8		 mov	 ebp, eax

; 1941 : 		if( IsValidObj(pMoverTarget) )

  0007f	85 ed		 test	 ebp, ebp
  00081	0f 84 0d 02 00
	00		 je	 $L273476
  00087	f6 45 04 01	 test	 BYTE PTR [ebp+4], 1
  0008b	0f 85 03 02 00
	00		 jne	 $L273476

; 1942 : 		{
; 1943 : 			DWORD dwAttackRange = pMoverTarget->GetActiveHandItemProp()->dwAttackRange;

  00091	6a 0a		 push	 10			; 0000000aH
  00093	8b cd		 mov	 ecx, ebp
  00095	e8 00 00 00 00	 call	 ?GetActiveHandItemProp@CMover@@QAEPAUItemProp@@H@Z ; CMover::GetActiveHandItemProp
  0009a	8b 80 38 01 00
	00		 mov	 eax, DWORD PTR [eax+312]

; 1944 : 			FLOAT fRange = pMoverTarget->GetAttackRange( dwAttackRange ) * 1.7f;

  000a0	50		 push	 eax
  000a1	8b cd		 mov	 ecx, ebp
  000a3	e8 00 00 00 00	 call	 ?GetAttackRange@CMover@@QAEMK@Z ; CMover::GetAttackRange
  000a8	d8 0d 00 00 00
	00		 fmul	 DWORD PTR __real@3fd9999a

; 1945 : 			FLOAT fAngle = pMover->GetAngle();
; 1946 : 			D3DXVECTOR3 vDst = pMover->GetPos() + VelocityToVec( fAngle, fRange );

  000ae	d9 47 18	 fld	 DWORD PTR [edi+24]
  000b1	81 c7 60 01 00
	00		 add	 edi, 352		; 00000160H
  000b7	d8 0d 00 00 00
	00		 fmul	 DWORD PTR __real@3c8efa35
  000bd	8b 17		 mov	 edx, DWORD PTR [edi]
  000bf	8b 47 04	 mov	 eax, DWORD PTR [edi+4]
  000c2	8b 4f 08	 mov	 ecx, DWORD PTR [edi+8]
  000c5	d9 c0		 fld	 ST(0)
  000c7	d9 fe		 fsin
  000c9	89 54 24 10	 mov	 DWORD PTR $T273367[esp+52], edx
  000cd	89 4c 24 18	 mov	 DWORD PTR $T273367[esp+60], ecx
  000d1	8b d0		 mov	 edx, eax
  000d3	89 44 24 14	 mov	 DWORD PTR $T273367[esp+56], eax

; 1947 : 			MoveToDst( vDst );

  000d7	8d 44 24 1c	 lea	 eax, DWORD PTR _vDst$265782[esp+52]
  000db	50		 push	 eax
  000dc	8b ce		 mov	 ecx, esi
  000de	89 54 24 24	 mov	 DWORD PTR _vDst$265782[esp+60], edx
  000e2	d8 ca		 fmul	 ST(0), ST(2)
  000e4	d9 5c 24 2c	 fstp	 DWORD PTR $T273368[esp+56]
  000e8	d9 ff		 fcos
  000ea	de c9		 fmulp	 ST(1), ST(0)
  000ec	d9 e0		 fchs
  000ee	d9 44 24 2c	 fld	 DWORD PTR $T273368[esp+56]
  000f2	d8 44 24 14	 fadd	 DWORD PTR $T273367[esp+56]
  000f6	d9 5c 24 20	 fstp	 DWORD PTR _vDst$265782[esp+56]
  000fa	d9 44 24 1c	 fld	 DWORD PTR $T273367[esp+64]
  000fe	d8 c1		 fadd	 ST(0), ST(1)
  00100	d9 5c 24 28	 fstp	 DWORD PTR _vDst$265782[esp+64]
  00104	dd d8		 fstp	 ST(0)
  00106	e8 00 00 00 00	 call	 ?MoveToDst@CAIAggro@@IAEXABUD3DXVECTOR3@@@Z ; CAIAggro::MoveToDst
  0010b	5f		 pop	 edi

; 1948 : 			m_bFirstRunaway = TRUE; 

  0010c	c7 86 d0 00 00
	00 01 00 00 00	 mov	 DWORD PTR [esi+208], 1
  00116	5e		 pop	 esi
  00117	5d		 pop	 ebp

; 1995 : 
; 1996 : 	///////////////////////////////////////////////////////////////////////////////////////////////////
; 1997 : 	OnMessage( AIMSG_EXIT )	

  00118	b8 01 00 00 00	 mov	 eax, 1
  0011d	5b		 pop	 ebx

; 1998 : 
; 1999 : 	EndAIHandler( )
; 2000 : 
; 2001 : 	return TRUE;
; 2002 : }

  0011e	83 c4 24	 add	 esp, 36			; 00000024H
  00121	c2 04 00	 ret	 4
$L265774:

; 1949 : 		}
; 1950 : 		else
; 1951 : 		{
; 1952 : 			SendAIMsg( AIMSG_SETSTATE, dwAIState );
; 1953 : 		}
; 1954 : 	///////////////////////////////////////////////////////////////////////////////////////////////////
; 1955 : 	OnMessage( AIMSG_PROCESS ) 

  00124	83 f8 02	 cmp	 eax, 2
  00127	75 16		 jne	 SHORT $L265788

; 1956 : 		MoveProcessRunaway();

  00129	8b ce		 mov	 ecx, esi
  0012b	e8 00 00 00 00	 call	 ?MoveProcessRunaway@CAIAggro@@IAEHXZ ; CAIAggro::MoveProcessRunaway
  00130	5f		 pop	 edi
  00131	5e		 pop	 esi
  00132	5d		 pop	 ebp

; 1995 : 
; 1996 : 	///////////////////////////////////////////////////////////////////////////////////////////////////
; 1997 : 	OnMessage( AIMSG_EXIT )	

  00133	b8 01 00 00 00	 mov	 eax, 1
  00138	5b		 pop	 ebx

; 1998 : 
; 1999 : 	EndAIHandler( )
; 2000 : 
; 2001 : 	return TRUE;
; 2002 : }

  00139	83 c4 24	 add	 esp, 36			; 00000024H
  0013c	c2 04 00	 ret	 4
$L265788:

; 1957 : 	///////////////////////////////////////////////////////////////////////////////////////////////////
; 1958 : 	OnMessage( AIMSG_DAMAGE ) 

  0013f	83 f8 08	 cmp	 eax, 8
  00142	75 4a		 jne	 SHORT $L265790

; 1959 : 		if( m_bTargetNoMovePos == TRUE && m_bFirstRunaway == FALSE )

  00144	83 be cc 00 00
	00 01		 cmp	 DWORD PTR [esi+204], 1
  0014b	75 19		 jne	 SHORT $L265791
  0014d	8b 86 d0 00 00
	00		 mov	 eax, DWORD PTR [esi+208]
  00153	85 c0		 test	 eax, eax
  00155	75 0f		 jne	 SHORT $L265791

; 1960 : 			SendAIMsg( AIMSG_SETSTATE, STATE_RAGE, NULL_ID );

  00157	8b 06		 mov	 eax, DWORD PTR [esi]
  00159	6a 00		 push	 0
  0015b	6a ff		 push	 -1
  0015d	6a 07		 push	 7
  0015f	6a 04		 push	 4
  00161	8b ce		 mov	 ecx, esi
  00163	ff 50 0c	 call	 DWORD PTR [eax+12]
$L265791:

; 1961 : 
; 1962 : 		m_vPosDamage	= pMover->GetPos();

  00166	81 c7 60 01 00
	00		 add	 edi, 352		; 00000160H
  0016c	8b 0f		 mov	 ecx, DWORD PTR [edi]
  0016e	83 c6 78	 add	 esi, 120		; 00000078H
  00171	89 0e		 mov	 DWORD PTR [esi], ecx
  00173	8b 57 04	 mov	 edx, DWORD PTR [edi+4]
  00176	89 56 04	 mov	 DWORD PTR [esi+4], edx
  00179	8b 47 08	 mov	 eax, DWORD PTR [edi+8]
  0017c	5f		 pop	 edi
  0017d	89 46 08	 mov	 DWORD PTR [esi+8], eax
  00180	5e		 pop	 esi
  00181	5d		 pop	 ebp

; 1995 : 
; 1996 : 	///////////////////////////////////////////////////////////////////////////////////////////////////
; 1997 : 	OnMessage( AIMSG_EXIT )	

  00182	b8 01 00 00 00	 mov	 eax, 1
  00187	5b		 pop	 ebx

; 1998 : 
; 1999 : 	EndAIHandler( )
; 2000 : 
; 2001 : 	return TRUE;
; 2002 : }

  00188	83 c4 24	 add	 esp, 36			; 00000024H
  0018b	c2 04 00	 ret	 4
$L265790:

; 1963 : 
; 1964 : 	///////////////////////////////////////////////////////////////////////////////////////////////////
; 1965 : 	OnMessage( AIMSG_COLLISION )

  0018e	83 f8 0a	 cmp	 eax, 10			; 0000000aH
  00191	0f 85 86 00 00
	00		 jne	 $L265794

; 1966 : 		pMover->AddAngle( (float)( 180 + ( 20 - xRandom( 40 ) ) ) );

  00197	6a 28		 push	 40			; 00000028H
  00199	e8 00 00 00 00	 call	 ?xRandom@@YAKK@Z	; xRandom
  0019e	b9 c8 00 00 00	 mov	 ecx, 200		; 000000c8H
  001a3	2b c8		 sub	 ecx, eax
  001a5	85 c9		 test	 ecx, ecx
  001a7	89 4c 24 3c	 mov	 DWORD PTR tv488[esp+52], ecx
  001ab	db 44 24 3c	 fild	 DWORD PTR tv488[esp+52]
  001af	7d 06		 jge	 SHORT $L273478
  001b1	d8 05 00 00 00
	00		 fadd	 DWORD PTR __real@4f800000
$L273478:
  001b7	8b cf		 mov	 ecx, edi
  001b9	d9 1c 24	 fstp	 DWORD PTR [esp]
  001bc	e8 00 00 00 00	 call	 ?AddAngle@CObj@@QAEXM@Z	; CObj::AddAngle

; 1967 : 		FLOAT fAngle = pMover->GetAngle();
; 1968 : 		D3DXVECTOR3 vDst = pMover->GetPos() + VelocityToVec( fAngle, 5 );

  001c1	8b 57 18	 mov	 edx, DWORD PTR [edi+24]
  001c4	68 00 00 a0 40	 push	 1084227584		; 40a00000H
  001c9	52		 push	 edx
  001ca	8d 44 24 30	 lea	 eax, DWORD PTR $T273371[esp+60]
  001ce	50		 push	 eax
  001cf	e8 00 00 00 00	 call	 ?VelocityToVec@@YA?AUD3DXVECTOR3@@MM@Z ; VelocityToVec
  001d4	83 c4 0c	 add	 esp, 12			; 0000000cH
  001d7	8d 4c 24 10	 lea	 ecx, DWORD PTR $T273370[esp+52]
  001db	51		 push	 ecx
  001dc	8b cf		 mov	 ecx, edi
  001de	8b e8		 mov	 ebp, eax
  001e0	e8 00 00 00 00	 call	 ?GetPos@CObj@@QAE?AUD3DXVECTOR3@@XZ ; CObj::GetPos
  001e5	d9 40 08	 fld	 DWORD PTR [eax+8]
  001e8	d8 45 08	 fadd	 DWORD PTR [ebp+8]

; 1969 : 		MoveToDst( vDst );

  001eb	8d 54 24 1c	 lea	 edx, DWORD PTR _vDst$265797[esp+52]
  001ef	d9 40 04	 fld	 DWORD PTR [eax+4]
  001f2	52		 push	 edx
  001f3	d8 45 04	 fadd	 DWORD PTR [ebp+4]
  001f6	8b ce		 mov	 ecx, esi
  001f8	d9 00		 fld	 DWORD PTR [eax]
  001fa	d8 45 00	 fadd	 DWORD PTR [ebp]
  001fd	d9 5c 24 20	 fstp	 DWORD PTR _vDst$265797[esp+56]
  00201	d9 5c 24 24	 fstp	 DWORD PTR _vDst$265797[esp+60]
  00205	d9 5c 24 28	 fstp	 DWORD PTR _vDst$265797[esp+64]
  00209	e8 00 00 00 00	 call	 ?MoveToDst@CAIAggro@@IAEXABUD3DXVECTOR3@@@Z ; CAIAggro::MoveToDst
  0020e	5f		 pop	 edi
  0020f	5e		 pop	 esi
  00210	5d		 pop	 ebp

; 1995 : 
; 1996 : 	///////////////////////////////////////////////////////////////////////////////////////////////////
; 1997 : 	OnMessage( AIMSG_EXIT )	

  00211	b8 01 00 00 00	 mov	 eax, 1
  00216	5b		 pop	 ebx

; 1998 : 
; 1999 : 	EndAIHandler( )
; 2000 : 
; 2001 : 	return TRUE;
; 2002 : }

  00217	83 c4 24	 add	 esp, 36			; 00000024H
  0021a	c2 04 00	 ret	 4
$L265794:

; 1970 : 	
; 1971 : 	///////////////////////////////////////////////////////////////////////////////////////////////////
; 1972 : 	OnMessage( AIMSG_DIE ) 

  0021d	83 f8 09	 cmp	 eax, 9

; 1973 : 	///////////////////////////////////////////////////////////////////////////////////////////////////
; 1974 : 	OnMessage( AIMSG_DSTDIE ) 

  00220	0f 84 d0 00 00
	00		 je	 $L265810
  00226	83 f8 07	 cmp	 eax, 7
  00229	0f 85 82 00 00
	00		 jne	 $L265804

; 1975 : 		if( m_dwIdTarget == msg.dwParam1 )

  0022f	8b 86 e0 00 00
	00		 mov	 eax, DWORD PTR [esi+224]
  00235	3b 41 04	 cmp	 eax, DWORD PTR [ecx+4]
  00238	75 5a		 jne	 SHORT $L273476

; 1976 : 		{
; 1977 : 			CMover* pTarget	= ScanTargetAggro( pMover, /*pProp->m_nAttackFirstRange*/ 15, m_dwAIInterface, m_uParty );

  0023a	8b 4e 34	 mov	 ecx, DWORD PTR [esi+52]
  0023d	8b 56 38	 mov	 edx, DWORD PTR [esi+56]
  00240	51		 push	 ecx
  00241	52		 push	 edx
  00242	68 00 00 70 41	 push	 1097859072		; 41700000H
  00247	57		 push	 edi
  00248	8b ce		 mov	 ecx, esi
  0024a	e8 00 00 00 00	 call	 ?ScanTargetAggro@CAIInterface@@IAEPAVCMover@@PAVCObj@@MKK@Z ; CAIInterface::ScanTargetAggro

; 1978 : 			if( pTarget )

  0024f	85 c0		 test	 eax, eax
  00251	74 23		 je	 SHORT $L265807

; 1979 : 			{
; 1980 : 				SendAIMsg( AIMSG_SETSTATE, STATE_RAGE, pTarget->GetId() );

  00253	8b 80 bc 01 00
	00		 mov	 eax, DWORD PTR [eax+444]
  00259	8b 16		 mov	 edx, DWORD PTR [esi]
  0025b	6a 00		 push	 0
  0025d	50		 push	 eax
  0025e	6a 07		 push	 7
  00260	6a 04		 push	 4
  00262	8b ce		 mov	 ecx, esi
  00264	ff 52 0c	 call	 DWORD PTR [edx+12]
  00267	5f		 pop	 edi
  00268	5e		 pop	 esi
  00269	5d		 pop	 ebp

; 1995 : 
; 1996 : 	///////////////////////////////////////////////////////////////////////////////////////////////////
; 1997 : 	OnMessage( AIMSG_EXIT )	

  0026a	b8 01 00 00 00	 mov	 eax, 1
  0026f	5b		 pop	 ebx

; 1998 : 
; 1999 : 	EndAIHandler( )
; 2000 : 
; 2001 : 	return TRUE;
; 2002 : }

  00270	83 c4 24	 add	 esp, 36			; 00000024H
  00273	c2 04 00	 ret	 4
$L265807:

; 1981 : 				return TRUE;
; 1982 : 			}
; 1983 : 			else
; 1984 : 			{
; 1985 : 				SetTarget( NULL_ID, 0 );

  00276	8b 4e 30	 mov	 ecx, DWORD PTR [esi+48]
  00279	68 00 00 80 3f	 push	 1065353216		; 3f800000H
  0027e	c7 86 e0 00 00
	00 ff ff ff ff	 mov	 DWORD PTR [esi+224], -1
  00288	c7 46 34 00 00
	00 00		 mov	 DWORD PTR [esi+52], 0
  0028f	e8 00 00 00 00	 call	 ?SetSpeedFactor@CMover@@QAEXM@Z ; CMover::SetSpeedFactor
$L273476:

; 1986 : 			}
; 1987 : 		}
; 1988 : 		SendAIMsg( AIMSG_SETSTATE, dwAIState );

  00294	8b 16		 mov	 edx, DWORD PTR [esi]
  00296	6a 00		 push	 0
  00298	6a 00		 push	 0
  0029a	53		 push	 ebx
  0029b	6a 04		 push	 4
  0029d	8b ce		 mov	 ecx, esi
  0029f	ff 52 0c	 call	 DWORD PTR [edx+12]
  002a2	5f		 pop	 edi
  002a3	5e		 pop	 esi
  002a4	5d		 pop	 ebp

; 1995 : 
; 1996 : 	///////////////////////////////////////////////////////////////////////////////////////////////////
; 1997 : 	OnMessage( AIMSG_EXIT )	

  002a5	b8 01 00 00 00	 mov	 eax, 1
  002aa	5b		 pop	 ebx

; 1998 : 
; 1999 : 	EndAIHandler( )
; 2000 : 
; 2001 : 	return TRUE;
; 2002 : }

  002ab	83 c4 24	 add	 esp, 36			; 00000024H
  002ae	c2 04 00	 ret	 4
$L265804:

; 1989 : 		
; 1990 : 	OnMessage( AIMSG_ARRIVAL )

  002b1	83 f8 0b	 cmp	 eax, 11			; 0000000bH
  002b4	75 40		 jne	 SHORT $L265810

; 1991 : 		m_bFirstRunaway = FALSE;
; 1992 : 		MoverProp* pMoverProp = pMover->GetProp();

  002b6	8b cf		 mov	 ecx, edi
  002b8	c7 86 d0 00 00
	00 00 00 00 00	 mov	 DWORD PTR [esi+208], 0
  002c2	e8 00 00 00 00	 call	 ?GetPropA@CMover@@QAEPAUMoverProp@@XZ ; CMover::GetPropA

; 1993 : 		if( pMoverProp->m_dwRunawayDelay )

  002c7	66 83 b8 d6 01
	00 00 00	 cmp	 WORD PTR [eax+470], 0
  002cf	74 25		 je	 SHORT $L265810

; 1994 : 			SetStop( pMover->GetProp()->m_dwRunawayDelay + xRandom( SEC( 1 ) ) );

  002d1	8b cf		 mov	 ecx, edi
  002d3	e8 00 00 00 00	 call	 ?GetPropA@CMover@@QAEPAUMoverProp@@XZ ; CMover::GetPropA
  002d8	0f bf b8 d6 01
	00 00		 movsx	 edi, WORD PTR [eax+470]
  002df	68 e8 03 00 00	 push	 1000			; 000003e8H
  002e4	e8 00 00 00 00	 call	 ?xRandom@@YAKK@Z	; xRandom
  002e9	83 c4 04	 add	 esp, 4
  002ec	03 f8		 add	 edi, eax
  002ee	57		 push	 edi
  002ef	8b ce		 mov	 ecx, esi
  002f1	e8 00 00 00 00	 call	 ?SetStop@CAIAggro@@IAEXK@Z ; CAIAggro::SetStop
$L265810:
  002f6	5f		 pop	 edi
  002f7	5e		 pop	 esi
  002f8	5d		 pop	 ebp

; 1995 : 
; 1996 : 	///////////////////////////////////////////////////////////////////////////////////////////////////
; 1997 : 	OnMessage( AIMSG_EXIT )	

  002f9	b8 01 00 00 00	 mov	 eax, 1
  002fe	5b		 pop	 ebx

; 1998 : 
; 1999 : 	EndAIHandler( )
; 2000 : 
; 2001 : 	return TRUE;
; 2002 : }

  002ff	83 c4 24	 add	 esp, 36			; 00000024H
  00302	c2 04 00	 ret	 4
?StateRunaway@CAIAggro@@IAEHABUAIMSG@@@Z ENDP		; CAIAggro::StateRunaway
_TEXT	ENDS
PUBLIC	?begin@?$vector@KV?$allocator@K@std@@@std@@QAE?AViterator@12@XZ ; std::vector<unsigned long,std::allocator<unsigned long> >::begin
; Function compile flags: /Ogty
; File c:\program files\microsoft visual studio .net 2003\vc7\include\vector
;	COMDAT ?begin@?$vector@KV?$allocator@K@std@@@std@@QAE?AViterator@12@XZ
_TEXT	SEGMENT
___$ReturnUdt$ = 8					; size = 4
?begin@?$vector@KV?$allocator@K@std@@@std@@QAE?AViterator@12@XZ PROC NEAR ; std::vector<unsigned long,std::allocator<unsigned long> >::begin, COMDAT
; _this$ = ecx

; 463  : 		return (iterator(_Myfirst));

  00000	8b 49 04	 mov	 ecx, DWORD PTR [ecx+4]
  00003	8b 44 24 04	 mov	 eax, DWORD PTR ___$ReturnUdt$[esp-4]
  00007	89 08		 mov	 DWORD PTR [eax], ecx

; 464  : 		}

  00009	c2 04 00	 ret	 4
?begin@?$vector@KV?$allocator@K@std@@@std@@QAE?AViterator@12@XZ ENDP ; std::vector<unsigned long,std::allocator<unsigned long> >::begin
_TEXT	ENDS
PUBLIC	?end@?$vector@KV?$allocator@K@std@@@std@@QAE?AViterator@12@XZ ; std::vector<unsigned long,std::allocator<unsigned long> >::end
; Function compile flags: /Ogty
;	COMDAT ?end@?$vector@KV?$allocator@K@std@@@std@@QAE?AViterator@12@XZ
_TEXT	SEGMENT
___$ReturnUdt$ = 8					; size = 4
?end@?$vector@KV?$allocator@K@std@@@std@@QAE?AViterator@12@XZ PROC NEAR ; std::vector<unsigned long,std::allocator<unsigned long> >::end, COMDAT
; _this$ = ecx

; 473  : 		return (iterator(_Mylast));

  00000	8b 49 08	 mov	 ecx, DWORD PTR [ecx+8]
  00003	8b 44 24 04	 mov	 eax, DWORD PTR ___$ReturnUdt$[esp-4]
  00007	89 08		 mov	 DWORD PTR [eax], ecx

; 474  : 		}

  00009	c2 04 00	 ret	 4
?end@?$vector@KV?$allocator@K@std@@@std@@QAE?AViterator@12@XZ ENDP ; std::vector<unsigned long,std::allocator<unsigned long> >::end
_TEXT	ENDS
PUBLIC	?erase@?$vector@KV?$allocator@K@std@@@std@@QAE?AViterator@12@V312@@Z ; std::vector<unsigned long,std::allocator<unsigned long> >::erase
; Function compile flags: /Ogty
;	COMDAT ?erase@?$vector@KV?$allocator@K@std@@@std@@QAE?AViterator@12@V312@@Z
_TEXT	SEGMENT
___$ReturnUdt$ = 8					; size = 4
__Where$ = 12						; size = 4
?erase@?$vector@KV?$allocator@K@std@@@std@@QAE?AViterator@12@V312@@Z PROC NEAR ; std::vector<unsigned long,std::allocator<unsigned long> >::erase, COMDAT
; _this$ = ecx

; 723  : 		{	// erase element at where

  00000	56		 push	 esi
  00001	57		 push	 edi

; 724  : 		copy(_ITER_BASE(_Where) + 1, _Mylast, _ITER_BASE(_Where));

  00002	8b 7c 24 10	 mov	 edi, DWORD PTR __Where$[esp+4]
  00006	8b f1		 mov	 esi, ecx
  00008	8b 4e 08	 mov	 ecx, DWORD PTR [esi+8]
  0000b	8d 47 04	 lea	 eax, DWORD PTR [edi+4]
  0000e	2b c8		 sub	 ecx, eax
  00010	c1 f9 02	 sar	 ecx, 2
  00013	c1 e1 02	 shl	 ecx, 2
  00016	51		 push	 ecx
  00017	50		 push	 eax
  00018	57		 push	 edi
  00019	e8 00 00 00 00	 call	 _memmove

; 725  : 		_Destroy(_Mylast - 1, _Mylast);
; 726  : 		--_Mylast;

  0001e	83 46 08 fc	 add	 DWORD PTR [esi+8], -4	; fffffffcH

; 727  : 		return (_Where);

  00022	8b 44 24 18	 mov	 eax, DWORD PTR ___$ReturnUdt$[esp+16]
  00026	83 c4 0c	 add	 esp, 12			; 0000000cH
  00029	89 38		 mov	 DWORD PTR [eax], edi
  0002b	5f		 pop	 edi
  0002c	5e		 pop	 esi

; 728  : 		}

  0002d	c2 08 00	 ret	 8
?erase@?$vector@KV?$allocator@K@std@@@std@@QAE?AViterator@12@V312@@Z ENDP ; std::vector<unsigned long,std::allocator<unsigned long> >::erase
_TEXT	ENDS
PUBLIC	??$_Uninitialized_fill_n@PAKIKV?$allocator@K@std@@@std@@YAXPAKIABKAAV?$allocator@K@0@@Z ; std::_Uninitialized_fill_n<unsigned long *,unsigned int,unsigned long,std::allocator<unsigned long> >
; Function compile flags: /Ogty
; File c:\program files\microsoft visual studio .net 2003\vc7\include\memory
;	COMDAT ??$_Uninitialized_fill_n@PAKIKV?$allocator@K@std@@@std@@YAXPAKIABKAAV?$allocator@K@0@@Z
_TEXT	SEGMENT
__First$ = 8						; size = 4
__Count$ = 12						; size = 4
__Val$ = 16						; size = 4
__Al$ = 20						; size = 4
??$_Uninitialized_fill_n@PAKIKV?$allocator@K@std@@@std@@YAXPAKIABKAAV?$allocator@K@0@@Z PROC NEAR ; std::_Uninitialized_fill_n<unsigned long *,unsigned int,unsigned long,std::allocator<unsigned long> >, COMDAT

; 256  : 	_Uninit_fill_n(_First, _Count, _Val, _Al,
; 257  : 		_Ptr_cat(_First, _First));

  00000	8b 4c 24 08	 mov	 ecx, DWORD PTR __Count$[esp-4]
  00004	85 c9		 test	 ecx, ecx
  00006	8b 44 24 04	 mov	 eax, DWORD PTR __First$[esp-4]
  0000a	76 10		 jbe	 SHORT $L273549
  0000c	8b 54 24 0c	 mov	 edx, DWORD PTR __Val$[esp-4]
  00010	56		 push	 esi
$L273547:
  00011	8b 32		 mov	 esi, DWORD PTR [edx]
  00013	89 30		 mov	 DWORD PTR [eax], esi
  00015	83 c0 04	 add	 eax, 4
  00018	49		 dec	 ecx
  00019	75 f6		 jne	 SHORT $L273547
  0001b	5e		 pop	 esi
$L273549:

; 258  : 	}

  0001c	c3		 ret	 0
??$_Uninitialized_fill_n@PAKIKV?$allocator@K@std@@@std@@YAXPAKIABKAAV?$allocator@K@0@@Z ENDP ; std::_Uninitialized_fill_n<unsigned long *,unsigned int,unsigned long,std::allocator<unsigned long> >
_TEXT	ENDS
PUBLIC	??$_Ucopy@PAK@?$vector@KV?$allocator@K@std@@@std@@IAEPAKPAK00@Z ; std::vector<unsigned long,std::allocator<unsigned long> >::_Ucopy<unsigned long *>
; Function compile flags: /Ogty
; File c:\program files\microsoft visual studio .net 2003\vc7\include\vector
;	COMDAT ??$_Ucopy@PAK@?$vector@KV?$allocator@K@std@@@std@@IAEPAKPAK00@Z
_TEXT	SEGMENT
__First$ = 8						; size = 4
__Last$ = 12						; size = 4
__Ptr$ = 16						; size = 4
??$_Ucopy@PAK@?$vector@KV?$allocator@K@std@@@std@@IAEPAKPAK00@Z PROC NEAR ; std::vector<unsigned long,std::allocator<unsigned long> >::_Ucopy<unsigned long *>, COMDAT
; _this$ = ecx

; 802  : 		{	// copy initializing [_First, _Last), using allocator
; 803  : 		return (_Uninitialized_copy(_First, _Last,
; 804  : 			_Ptr, this->_Alval));

  00000	8b 4c 24 04	 mov	 ecx, DWORD PTR __First$[esp-4]
  00004	8b 44 24 08	 mov	 eax, DWORD PTR __Last$[esp-4]
  00008	2b c1		 sub	 eax, ecx
  0000a	56		 push	 esi
  0000b	c1 f8 02	 sar	 eax, 2
  0000e	8d 34 85 00 00
	00 00		 lea	 esi, DWORD PTR [eax*4]
  00015	8b 44 24 10	 mov	 eax, DWORD PTR __Ptr$[esp]
  00019	56		 push	 esi
  0001a	51		 push	 ecx
  0001b	50		 push	 eax
  0001c	e8 00 00 00 00	 call	 _memmove
  00021	83 c4 0c	 add	 esp, 12			; 0000000cH
  00024	03 c6		 add	 eax, esi
  00026	5e		 pop	 esi

; 805  : 		}

  00027	c2 0c 00	 ret	 12			; 0000000cH
??$_Ucopy@PAK@?$vector@KV?$allocator@K@std@@@std@@IAEPAKPAK00@Z ENDP ; std::vector<unsigned long,std::allocator<unsigned long> >::_Ucopy<unsigned long *>
_TEXT	ENDS
PUBLIC	?_Tidy@?$basic_string@DU?$char_traits@D@std@@V?$allocator@D@2@@std@@IAEX_NI@Z ; std::basic_string<char,std::char_traits<char>,std::allocator<char> >::_Tidy
; Function compile flags: /Ogty
; File c:\program files\microsoft visual studio .net 2003\vc7\include\xstring
;	COMDAT ?_Tidy@?$basic_string@DU?$char_traits@D@std@@V?$allocator@D@2@@std@@IAEX_NI@Z
_TEXT	SEGMENT
__Built$ = 8						; size = 1
__Newsize$ = 12						; size = 4
?_Tidy@?$basic_string@DU?$char_traits@D@std@@V?$allocator@D@2@@std@@IAEX_NI@Z PROC NEAR ; std::basic_string<char,std::char_traits<char>,std::allocator<char> >::_Tidy, COMDAT
; _this$ = ecx

; 1510 : 		if (!_Built)

  00000	8a 44 24 04	 mov	 al, BYTE PTR __Built$[esp-4]
  00004	84 c0		 test	 al, al
  00006	53		 push	 ebx
  00007	55		 push	 ebp
  00008	8b 6c 24 10	 mov	 ebp, DWORD PTR __Newsize$[esp+4]
  0000c	8b d9		 mov	 ebx, ecx
  0000e	74 2f		 je	 SHORT $L273583

; 1511 : 			;
; 1512 : 		else if (_BUF_SIZE <= _Myres)

  00010	83 7b 18 10	 cmp	 DWORD PTR [ebx+24], 16	; 00000010H
  00014	72 29		 jb	 SHORT $L273583

; 1513 : 			{	// copy any leftovers to small buffer and deallocate
; 1514 : 			_Elem *_Ptr = _Bx._Ptr;
; 1515 : 			if (0 < _Newsize)

  00016	85 ed		 test	 ebp, ebp
  00018	8b 43 04	 mov	 eax, DWORD PTR [ebx+4]
  0001b	57		 push	 edi
  0001c	8d 7b 04	 lea	 edi, DWORD PTR [ebx+4]
  0001f	76 14		 jbe	 SHORT $L273579
  00021	56		 push	 esi

; 1516 : 				_Traits::copy(_Bx._Buf, _Ptr, _Newsize);

  00022	8b cd		 mov	 ecx, ebp
  00024	8b d1		 mov	 edx, ecx
  00026	c1 e9 02	 shr	 ecx, 2
  00029	8b f0		 mov	 esi, eax
  0002b	f3 a5		 rep movsd
  0002d	8b ca		 mov	 ecx, edx
  0002f	83 e1 03	 and	 ecx, 3
  00032	f3 a4		 rep movsb
  00034	5e		 pop	 esi
$L273579:

; 1517 : 			_Mybase::_Alval.deallocate(_Ptr, _Myres + 1);

  00035	50		 push	 eax
  00036	e8 00 00 00 00	 call	 ??3@YAXPAX@Z		; operator delete
  0003b	83 c4 04	 add	 esp, 4
  0003e	5f		 pop	 edi
$L273583:

; 1518 : 			}
; 1519 : 		_Myres = _BUF_SIZE - 1;
; 1520 : 		_Eos(_Newsize);

  0003f	89 6b 14	 mov	 DWORD PTR [ebx+20], ebp
  00042	c7 43 18 0f 00
	00 00		 mov	 DWORD PTR [ebx+24], 15	; 0000000fH
  00049	c6 44 2b 04 00	 mov	 BYTE PTR [ebx+ebp+4], 0
  0004e	5d		 pop	 ebp
  0004f	5b		 pop	 ebx

; 1521 : 		}

  00050	c2 08 00	 ret	 8
?_Tidy@?$basic_string@DU?$char_traits@D@std@@V?$allocator@D@2@@std@@IAEX_NI@Z ENDP ; std::basic_string<char,std::char_traits<char>,std::allocator<char> >::_Tidy
_TEXT	ENDS
PUBLIC	?_Tidy@?$vector@KV?$allocator@K@std@@@std@@IAEXXZ ; std::vector<unsigned long,std::allocator<unsigned long> >::_Tidy
; Function compile flags: /Ogty
; File c:\program files\microsoft visual studio .net 2003\vc7\include\vector
;	COMDAT ?_Tidy@?$vector@KV?$allocator@K@std@@@std@@IAEXXZ
_TEXT	SEGMENT
?_Tidy@?$vector@KV?$allocator@K@std@@@std@@IAEXXZ PROC NEAR ; std::vector<unsigned long,std::allocator<unsigned long> >::_Tidy, COMDAT
; _this$ = ecx

; 791  : 		{	// free all storage

  00000	56		 push	 esi
  00001	8b f1		 mov	 esi, ecx

; 792  : 		if (_Myfirst != 0)

  00003	8b 46 04	 mov	 eax, DWORD PTR [esi+4]
  00006	85 c0		 test	 eax, eax
  00008	74 09		 je	 SHORT $L273611

; 793  : 			{	// something to free, destroy and deallocate it
; 794  : 			_Destroy(_Myfirst, _Mylast);
; 795  : 			this->_Alval.deallocate(_Myfirst, _Myend - _Myfirst);

  0000a	50		 push	 eax
  0000b	e8 00 00 00 00	 call	 ??3@YAXPAX@Z		; operator delete
  00010	83 c4 04	 add	 esp, 4
$L273611:

; 796  : 			}
; 797  : 		_Myfirst = 0, _Mylast = 0, _Myend = 0;

  00013	c7 46 04 00 00
	00 00		 mov	 DWORD PTR [esi+4], 0
  0001a	c7 46 08 00 00
	00 00		 mov	 DWORD PTR [esi+8], 0
  00021	c7 46 0c 00 00
	00 00		 mov	 DWORD PTR [esi+12], 0
  00028	5e		 pop	 esi

; 798  : 		}

  00029	c3		 ret	 0
?_Tidy@?$vector@KV?$allocator@K@std@@@std@@IAEXXZ ENDP	; std::vector<unsigned long,std::allocator<unsigned long> >::_Tidy
_TEXT	ENDS
PUBLIC	?erase@?$basic_string@DU?$char_traits@D@std@@V?$allocator@D@2@@std@@QAEAAV12@II@Z ; std::basic_string<char,std::char_traits<char>,std::allocator<char> >::erase
EXTRN	?_Xran@_String_base@std@@QBEXXZ:NEAR		; std::_String_base::_Xran
; Function compile flags: /Ogty
; File c:\program files\microsoft visual studio .net 2003\vc7\include\xstring
;	COMDAT ?erase@?$basic_string@DU?$char_traits@D@std@@V?$allocator@D@2@@std@@QAEAAV12@II@Z
_TEXT	SEGMENT
__Off$ = 8						; size = 4
__Count$ = 12						; size = 4
?erase@?$basic_string@DU?$char_traits@D@std@@V?$allocator@D@2@@std@@QAEAAV12@II@Z PROC NEAR ; std::basic_string<char,std::char_traits<char>,std::allocator<char> >::erase, COMDAT
; _this$ = ecx

; 792  : 		{	// erase elements [_Off, _Off + _Count)

  00000	55		 push	 ebp

; 793  : 		if (_Mysize < _Off)

  00001	8b 6c 24 08	 mov	 ebp, DWORD PTR __Off$[esp]
  00005	56		 push	 esi
  00006	8b f1		 mov	 esi, ecx
  00008	39 6e 14	 cmp	 DWORD PTR [esi+20], ebp
  0000b	57		 push	 edi
  0000c	73 05		 jae	 SHORT $L221371

; 794  : 			_String_base::_Xran();	// _Off off end

  0000e	e8 00 00 00 00	 call	 ?_Xran@_String_base@std@@QBEXXZ ; std::_String_base::_Xran
$L221371:

; 795  : 		if (_Mysize - _Off < _Count)

  00013	8b 46 14	 mov	 eax, DWORD PTR [esi+20]
  00016	8b 7c 24 14	 mov	 edi, DWORD PTR __Count$[esp+8]
  0001a	2b c5		 sub	 eax, ebp
  0001c	3b c7		 cmp	 eax, edi
  0001e	73 02		 jae	 SHORT $L221372

; 796  : 			_Count = _Mysize - _Off;	// trim _Count

  00020	8b f8		 mov	 edi, eax
$L221372:

; 797  : 		if (0 < _Count)

  00022	85 ff		 test	 edi, edi
  00024	76 47		 jbe	 SHORT $L273656

; 798  : 			{	// move elements down
; 799  : 			_Traits::move(_Myptr() + _Off, _Myptr() + _Off + _Count,
; 800  : 				_Mysize - _Off - _Count);

  00026	8b 4e 18	 mov	 ecx, DWORD PTR [esi+24]
  00029	83 f9 10	 cmp	 ecx, 16			; 00000010H
  0002c	53		 push	 ebx
  0002d	8d 5e 04	 lea	 ebx, DWORD PTR [esi+4]
  00030	72 04		 jb	 SHORT $L273622
  00032	8b 13		 mov	 edx, DWORD PTR [ebx]
  00034	eb 02		 jmp	 SHORT $L273623
$L273622:
  00036	8b d3		 mov	 edx, ebx
$L273623:
  00038	83 f9 10	 cmp	 ecx, 16			; 00000010H
  0003b	72 04		 jb	 SHORT $L273629
  0003d	8b 0b		 mov	 ecx, DWORD PTR [ebx]
  0003f	eb 02		 jmp	 SHORT $L273630
$L273629:
  00041	8b cb		 mov	 ecx, ebx
$L273630:
  00043	2b c7		 sub	 eax, edi

; 803  : 			}
; 804  : 		return (*this);

  00045	03 d5		 add	 edx, ebp
  00047	50		 push	 eax
  00048	03 d7		 add	 edx, edi
  0004a	52		 push	 edx
  0004b	03 cd		 add	 ecx, ebp
  0004d	51		 push	 ecx
  0004e	e8 00 00 00 00	 call	 _memmove
  00053	8b 46 14	 mov	 eax, DWORD PTR [esi+20]
  00056	8b 4e 18	 mov	 ecx, DWORD PTR [esi+24]
  00059	2b c7		 sub	 eax, edi
  0005b	83 c4 0c	 add	 esp, 12			; 0000000cH
  0005e	83 f9 10	 cmp	 ecx, 16			; 00000010H
  00061	89 46 14	 mov	 DWORD PTR [esi+20], eax
  00064	72 02		 jb	 SHORT $L273653

; 801  : 			size_type _Newsize = _Mysize - _Count;
; 802  : 			_Eos(_Newsize);

  00066	8b 1b		 mov	 ebx, DWORD PTR [ebx]
$L273653:
  00068	c6 04 03 00	 mov	 BYTE PTR [ebx+eax], 0
  0006c	5b		 pop	 ebx
$L273656:
  0006d	5f		 pop	 edi

; 803  : 			}
; 804  : 		return (*this);

  0006e	8b c6		 mov	 eax, esi
  00070	5e		 pop	 esi
  00071	5d		 pop	 ebp

; 805  : 		}

  00072	c2 08 00	 ret	 8
?erase@?$basic_string@DU?$char_traits@D@std@@V?$allocator@D@2@@std@@QAEAAV12@II@Z ENDP ; std::basic_string<char,std::char_traits<char>,std::allocator<char> >::erase
_TEXT	ENDS
PUBLIC	?_Copy@?$basic_string@DU?$char_traits@D@std@@V?$allocator@D@2@@std@@IAEXII@Z ; std::basic_string<char,std::char_traits<char>,std::allocator<char> >::_Copy
EXTRN	__CxxThrowException@8:NEAR
EXTRN	__except_list:DWORD
EXTRN	___CxxFrameHandler:NEAR
;	COMDAT xdata$x
; File c:\program files\microsoft visual studio .net 2003\vc7\include\iosfwd
xdata$x	SEGMENT
$T273864 DD	0ffffffffH
	DD	00H
	DD	0ffffffffH
	DD	00H
	DD	01H
	DD	00H
	DD	01H
	DD	00H
$T273866 DD	00H
	DD	00H
	DD	00H
	DD	FLAT:$L273664
$T273867 DD	00H
	DD	00H
	DD	00H
	DD	FLAT:$L273662
$T273865 DD	02H
	DD	02H
	DD	03H
	DD	01H
	DD	FLAT:$T273866
	DD	00H
	DD	00H
	DD	03H
	DD	01H
	DD	FLAT:$T273867
$T273858 DD	019930520H
	DD	04H
	DD	FLAT:$T273864
	DD	02H
	DD	FLAT:$T273865
	DD	2 DUP(00H)
; Function compile flags: /Ogty
; File c:\program files\microsoft visual studio .net 2003\vc7\include\xstring
xdata$x	ENDS
;	COMDAT ?_Copy@?$basic_string@DU?$char_traits@D@std@@V?$allocator@D@2@@std@@IAEXII@Z
_TEXT	SEGMENT
__Newres$ = -24						; size = 4
_this$ = -20						; size = 4
__$EHRec$ = -16						; size = 16
__Ptr$ = 8						; size = 4
__Newsize$ = 8						; size = 4
__Oldlen$ = 12						; size = 4
?_Copy@?$basic_string@DU?$char_traits@D@std@@V?$allocator@D@2@@std@@IAEXII@Z PROC NEAR ; std::basic_string<char,std::char_traits<char>,std::allocator<char> >::_Copy, COMDAT
; _this$ = ecx

; 1444 : 		{	// copy _Oldlen elements to newly allocated buffer

  00000	55		 push	 ebp
  00001	8b ec		 mov	 ebp, esp
  00003	6a ff		 push	 -1
  00005	68 00 00 00 00	 push	 __ehhandler$?_Copy@?$basic_string@DU?$char_traits@D@std@@V?$allocator@D@2@@std@@IAEXII@Z
  0000a	64 a1 00 00 00
	00		 mov	 eax, DWORD PTR fs:__except_list
  00010	50		 push	 eax
  00011	64 89 25 00 00
	00 00		 mov	 DWORD PTR fs:__except_list, esp
  00018	83 ec 0c	 sub	 esp, 12			; 0000000cH

; 1445 : 		size_type _Newres = _Newsize | _ALLOC_MASK;

  0001b	8b 45 08	 mov	 eax, DWORD PTR __Newsize$[ebp]
  0001e	53		 push	 ebx
  0001f	56		 push	 esi
  00020	8b d8		 mov	 ebx, eax
  00022	83 cb 0f	 or	 ebx, 15			; 0000000fH

; 1446 : 		if (max_size() < _Newres)

  00025	83 fb fe	 cmp	 ebx, -2			; fffffffeH
  00028	57		 push	 edi
  00029	8b f1		 mov	 esi, ecx
  0002b	89 65 f0	 mov	 DWORD PTR __$EHRec$[ebp], esp
  0002e	89 75 ec	 mov	 DWORD PTR _this$[ebp], esi
  00031	76 04		 jbe	 SHORT $L222778

; 1447 : 			_Newres = _Newsize;	// undo roundup if too big

  00033	8b d8		 mov	 ebx, eax

; 1448 : 		else if (_Newres / 3 < _Myres / 2

  00035	eb 22		 jmp	 SHORT $L222780
$L222778:

; 1449 : 			&& _Myres <= max_size() - _Myres / 2)

  00037	8b 7e 18	 mov	 edi, DWORD PTR [esi+24]
  0003a	b8 ab aa aa aa	 mov	 eax, -1431655765	; aaaaaaabH
  0003f	f7 e3		 mul	 ebx
  00041	8b cf		 mov	 ecx, edi
  00043	d1 e9		 shr	 ecx, 1
  00045	d1 ea		 shr	 edx, 1
  00047	3b d1		 cmp	 edx, ecx
  00049	73 0e		 jae	 SHORT $L222780
  0004b	b8 fe ff ff ff	 mov	 eax, -2			; fffffffeH
  00050	2b c1		 sub	 eax, ecx
  00052	3b f8		 cmp	 edi, eax
  00054	77 03		 ja	 SHORT $L222780

; 1450 : 			_Newres = _Myres + _Myres / 2;	// grow exponentially if possible

  00056	8d 1c 39	 lea	 ebx, DWORD PTR [ecx+edi]
$L222780:

; 1451 : 		_Elem *_Ptr;
; 1452 : 
; 1453 : 		_TRY_BEGIN
; 1454 : 			_Ptr = _Mybase::_Alval.allocate(_Newres + 1);

  00059	8d 4b 01	 lea	 ecx, DWORD PTR [ebx+1]
  0005c	51		 push	 ecx
  0005d	c7 45 fc 00 00
	00 00		 mov	 DWORD PTR __$EHRec$[ebp+12], 0
  00064	e8 00 00 00 00	 call	 ??2@YAPAXI@Z		; operator new
  00069	8b d0		 mov	 edx, eax
  0006b	83 c4 04	 add	 esp, 4
  0006e	89 55 08	 mov	 DWORD PTR __Ptr$[ebp], edx
  00071	eb 29		 jmp	 SHORT $L222782
$L273662:

; 1455 : 		_CATCH_ALL
; 1456 : 			_Newres = _Newsize;	// allocation failed, undo roundup and retry

  00073	8b 45 08	 mov	 eax, DWORD PTR __Newsize$[ebp]
  00076	89 45 e8	 mov	 DWORD PTR __Newres$[ebp], eax

; 1457 : 			_TRY_BEGIN
; 1458 : 				_Ptr = _Mybase::_Alval.allocate(_Newres + 1);

  00079	40		 inc	 eax
  0007a	89 65 f0	 mov	 DWORD PTR __$EHRec$[ebp], esp
  0007d	50		 push	 eax
  0007e	c6 45 fc 02	 mov	 BYTE PTR __$EHRec$[ebp+12], 2
  00082	e8 00 00 00 00	 call	 ??2@YAPAXI@Z		; operator new
  00087	89 45 08	 mov	 DWORD PTR __Ptr$[ebp], eax
  0008a	83 c4 04	 add	 esp, 4

; 1462 : 			_CATCH_END
; 1463 : 		_CATCH_END

  0008d	b8 00 00 00 00	 mov	 eax, $L273859
  00092	c3		 ret	 0
$L273859:
  00093	8b 5d e8	 mov	 ebx, DWORD PTR __Newres$[ebp]
  00096	8b 75 ec	 mov	 esi, DWORD PTR _this$[ebp]
  00099	8b 55 08	 mov	 edx, DWORD PTR __Ptr$[ebp]
$L222782:

; 1464 : 
; 1465 : 		if (0 < _Oldlen)

  0009c	8b 4d 0c	 mov	 ecx, DWORD PTR __Oldlen$[ebp]
  0009f	85 c9		 test	 ecx, ecx
  000a1	76 24		 jbe	 SHORT $L273781

; 1466 : 			_Traits::copy(_Ptr, _Myptr(), _Oldlen);	// copy existing elements

  000a3	83 7e 18 10	 cmp	 DWORD PTR [esi+24], 16	; 00000010H
  000a7	72 05		 jb	 SHORT $L273778
  000a9	8b 76 04	 mov	 esi, DWORD PTR [esi+4]
  000ac	eb 03		 jmp	 SHORT $L273779
$L273778:
  000ae	83 c6 04	 add	 esi, 4
$L273779:
  000b1	8b c1		 mov	 eax, ecx
  000b3	c1 e9 02	 shr	 ecx, 2
  000b6	8b fa		 mov	 edi, edx
  000b8	f3 a5		 rep movsd
  000ba	8b c8		 mov	 ecx, eax
  000bc	83 e1 03	 and	 ecx, 3
  000bf	f3 a4		 rep movsb
  000c1	8b 75 ec	 mov	 esi, DWORD PTR _this$[ebp]
  000c4	8b 4d 0c	 mov	 ecx, DWORD PTR __Oldlen$[ebp]
$L273781:

; 1467 : 		_Tidy(true);

  000c7	83 7e 18 10	 cmp	 DWORD PTR [esi+24], 16	; 00000010H
  000cb	72 12		 jb	 SHORT $L273817
  000cd	8b 4e 04	 mov	 ecx, DWORD PTR [esi+4]
  000d0	51		 push	 ecx
  000d1	e8 00 00 00 00	 call	 ??3@YAXPAX@Z		; operator delete
  000d6	8b 55 08	 mov	 edx, DWORD PTR __Ptr$[ebp]
  000d9	8b 4d 0c	 mov	 ecx, DWORD PTR __Oldlen$[ebp]
  000dc	83 c4 04	 add	 esp, 4
$L273817:

; 1468 : 		_Bx._Ptr = _Ptr;
; 1469 : 		_Myres = _Newres;
; 1470 : 		_Eos(_Oldlen);

  000df	83 fb 10	 cmp	 ebx, 16			; 00000010H
  000e2	8d 46 04	 lea	 eax, DWORD PTR [esi+4]
  000e5	c6 00 00	 mov	 BYTE PTR [eax], 0
  000e8	89 10		 mov	 DWORD PTR [eax], edx
  000ea	89 5e 18	 mov	 DWORD PTR [esi+24], ebx
  000ed	89 4e 14	 mov	 DWORD PTR [esi+20], ecx
  000f0	72 02		 jb	 SHORT $L273852
  000f2	8b c2		 mov	 eax, edx
$L273852:

; 1471 : 		}

  000f4	5f		 pop	 edi
  000f5	c6 04 08 00	 mov	 BYTE PTR [eax+ecx], 0
  000f9	8b 4d f4	 mov	 ecx, DWORD PTR __$EHRec$[ebp+4]
  000fc	5e		 pop	 esi
  000fd	64 89 0d 00 00
	00 00		 mov	 DWORD PTR fs:__except_list, ecx
  00104	5b		 pop	 ebx
  00105	8b e5		 mov	 esp, ebp
  00107	5d		 pop	 ebp
  00108	c2 08 00	 ret	 8
$L273664:

; 1459 : 			_CATCH_ALL
; 1460 : 			_Tidy(true);	// failed again, discard storage and reraise

  0010b	8b 75 ec	 mov	 esi, DWORD PTR _this$[ebp]
  0010e	83 7e 18 10	 cmp	 DWORD PTR [esi+24], 16	; 00000010H
  00112	72 0c		 jb	 SHORT $L273756
  00114	8b 56 04	 mov	 edx, DWORD PTR [esi+4]
  00117	52		 push	 edx
  00118	e8 00 00 00 00	 call	 ??3@YAXPAX@Z		; operator delete
  0011d	83 c4 04	 add	 esp, 4
$L273756:

; 1461 : 			_RERAISE;

  00120	6a 00		 push	 0
  00122	c7 46 18 0f 00
	00 00		 mov	 DWORD PTR [esi+24], 15	; 0000000fH
  00129	c7 46 14 00 00
	00 00		 mov	 DWORD PTR [esi+20], 0
  00130	6a 00		 push	 0
  00132	c6 46 04 00	 mov	 BYTE PTR [esi+4], 0
  00136	e8 00 00 00 00	 call	 __CxxThrowException@8
$L273869:
$L273863:
  0013b	cc		 int	 3
_TEXT	ENDS
;	COMDAT text$x
text$x	SEGMENT
__ehhandler$?_Copy@?$basic_string@DU?$char_traits@D@std@@V?$allocator@D@2@@std@@IAEXII@Z:
  00000	b8 00 00 00 00	 mov	 eax, OFFSET FLAT:$T273858
  00005	e9 00 00 00 00	 jmp	 ___CxxFrameHandler
text$x	ENDS
?_Copy@?$basic_string@DU?$char_traits@D@std@@V?$allocator@D@2@@std@@IAEXII@Z ENDP ; std::basic_string<char,std::char_traits<char>,std::allocator<char> >::_Copy
PUBLIC	?MoveToRandom@CAIAggro@@IAEXI@Z			; CAIAggro::MoveToRandom
; Function compile flags: /Ogty
; File c:\documents and settings\test\mes documents\source\virtuos_v17\build\program\_aiinterface\aiaggro.cpp
;	COMDAT ?MoveToRandom@CAIAggro@@IAEXI@Z
_TEXT	SEGMENT
tv330 = -40						; size = 4
tv325 = -40						; size = 4
_vPos$ = -36						; size = 12
$T273874 = -24						; size = 12
_vDistant$264584 = -24					; size = 12
$T273875 = -12						; size = 12
_fRange$264586 = 8					; size = 4
_nState$ = 8						; size = 4
?MoveToRandom@CAIAggro@@IAEXI@Z PROC NEAR		; CAIAggro::MoveToRandom, COMDAT
; _this$ = ecx

; 161  : {

  00000	83 ec 28	 sub	 esp, 40			; 00000028H
  00003	53		 push	 ebx
  00004	55		 push	 ebp
  00005	56		 push	 esi
  00006	57		 push	 edi

; 162  : 	CMover* pMover = GetMover();

  00007	8b 79 30	 mov	 edi, DWORD PTR [ecx+48]

; 163  : 	CWorld* pWorld = GetWorld();
; 164  : 
; 165  : 	D3DXVECTOR3 vPos = pMover->GetPos();

  0000a	8d b7 60 01 00
	00		 lea	 esi, DWORD PTR [edi+352]
  00010	8b c6		 mov	 eax, esi
  00012	8b 10		 mov	 edx, DWORD PTR [eax]
  00014	89 54 24 14	 mov	 DWORD PTR _vPos$[esp+56], edx
  00018	8b 50 04	 mov	 edx, DWORD PTR [eax+4]
  0001b	89 54 24 18	 mov	 DWORD PTR _vPos$[esp+60], edx

; 166  : 	DWORD x1 = xRand();

  0001f	8b 15 00 00 00
	00		 mov	 edx, DWORD PTR ?g_next@@3KA ; g_next
  00025	8b 40 08	 mov	 eax, DWORD PTR [eax+8]
  00028	69 d2 6d 4e c6
	41		 imul	 edx, 1103515245		; 41c64e6dH
  0002e	81 c2 39 30 00
	00		 add	 edx, 12345		; 00003039H
  00034	89 44 24 1c	 mov	 DWORD PTR _vPos$[esp+64], eax
  00038	8b c2		 mov	 eax, edx

; 167  : 	DWORD x2 = xRand();

  0003a	69 d2 6d 4e c6
	41		 imul	 edx, 1103515245		; 41c64e6dH
  00040	81 c2 39 30 00
	00		 add	 edx, 12345		; 00003039H
  00046	8b da		 mov	 ebx, edx

; 168  : 
; 169  : 	vPos.x += int( x1 % 21 ) - 10;

  00048	33 d2		 xor	 edx, edx
  0004a	bd 15 00 00 00	 mov	 ebp, 21			; 00000015H
  0004f	f7 f5		 div	 ebp

; 170  : 	vPos.z += int( x2 % 21 ) - 10;

  00051	8b c3		 mov	 eax, ebx
  00053	89 1d 00 00 00
	00		 mov	 DWORD PTR ?g_next@@3KA, ebx ; g_next
  00059	8b dd		 mov	 ebx, ebp
  0005b	83 ea 0a	 sub	 edx, 10			; 0000000aH
  0005e	89 54 24 10	 mov	 DWORD PTR tv330[esp+56], edx
  00062	33 d2		 xor	 edx, edx
  00064	db 44 24 10	 fild	 DWORD PTR tv330[esp+56]
  00068	f7 f3		 div	 ebx
  0006a	d8 44 24 14	 fadd	 DWORD PTR _vPos$[esp+56]
  0006e	d9 5c 24 14	 fstp	 DWORD PTR _vPos$[esp+56]

; 171  : 
; 172  : 	if( nState == STATE_IDLE )

  00072	8b 44 24 3c	 mov	 eax, DWORD PTR _nState$[esp+52]
  00076	83 ea 0a	 sub	 edx, 10			; 0000000aH
  00079	83 f8 02	 cmp	 eax, 2
  0007c	89 54 24 10	 mov	 DWORD PTR tv325[esp+56], edx
  00080	db 44 24 10	 fild	 DWORD PTR tv325[esp+56]
  00084	d8 44 24 1c	 fadd	 DWORD PTR _vPos$[esp+64]
  00088	d9 5c 24 1c	 fstp	 DWORD PTR _vPos$[esp+64]
  0008c	0f 85 da 00 00
	00		 jne	 $L264583

; 173  : 	{
; 174  : 		D3DXVECTOR3 vDistant = vPos - m_vPosBegin;

  00092	d9 44 24 14	 fld	 DWORD PTR _vPos$[esp+56]

; 175  : 		vDistant.y = 0.0f;
; 176  : 
; 177  : 		float fRange = RANGE_MOVE;
; 178  : 		if( pMover->IsFlyingNPC() )			

  00096	8a 87 42 02 00
	00		 mov	 al, BYTE PTR [edi+578]
  0009c	a8 01		 test	 al, 1
  0009e	d8 61 54	 fsub	 DWORD PTR [ecx+84]
  000a1	d9 44 24 1c	 fld	 DWORD PTR _vPos$[esp+64]
  000a5	c7 44 24 3c 00
	00 f0 41	 mov	 DWORD PTR _fRange$264586[esp+52], 1106247680 ; 41f00000H
  000ad	d8 61 5c	 fsub	 DWORD PTR [ecx+92]
  000b0	74 08		 je	 SHORT $L264587

; 179  : 			fRange *= 3.0f;

  000b2	c7 44 24 3c 00
	00 b4 42	 mov	 DWORD PTR _fRange$264586[esp+52], 1119092736 ; 42b40000H
$L264587:

; 180  : 		
; 181  : 		if( IsInRange( vDistant, fRange ) )	

  000ba	d9 c0		 fld	 ST(0)
  000bc	d8 c9		 fmul	 ST(0), ST(1)
  000be	d9 c2		 fld	 ST(2)
  000c0	d8 cb		 fmul	 ST(0), ST(3)

; 194  : 			}
; 195  : 		}
; 196  : 	}
; 197  : 	else
; 198  : 	{
; 199  : 		MoveToDst( vPos );

  000c2	de c1		 faddp	 ST(1), ST(0)
  000c4	d9 44 24 3c	 fld	 DWORD PTR _fRange$264586[esp+52]
  000c8	d8 4c 24 3c	 fmul	 DWORD PTR _fRange$264586[esp+52]
  000cc	de d9		 fcompp
  000ce	df e0		 fnstsw	 ax
  000d0	dd d8		 fstp	 ST(0)
  000d2	f6 c4 05	 test	 ah, 5
  000d5	dd d8		 fstp	 ST(0)
  000d7	0f 8a 8f 00 00
	00		 jp	 $L264583
  000dd	8b 81 c4 00 00
	00		 mov	 eax, DWORD PTR [ecx+196]
  000e3	85 c0		 test	 eax, eax
  000e5	74 14		 je	 SHORT $L264590
  000e7	8d 44 24 14	 lea	 eax, DWORD PTR _vPos$[esp+56]
  000eb	50		 push	 eax
  000ec	e8 00 00 00 00	 call	 ?MoveToDst@CAIAggro@@IAEXABUD3DXVECTOR3@@@Z ; CAIAggro::MoveToDst
  000f1	5f		 pop	 edi
  000f2	5e		 pop	 esi
  000f3	5d		 pop	 ebp
  000f4	5b		 pop	 ebx

; 200  : 	}
; 201  : }

  000f5	83 c4 28	 add	 esp, 40			; 00000028H
  000f8	c2 04 00	 ret	 4
$L264590:

; 182  : 		{
; 183  : 			MoveToDst( vPos );
; 184  : 		}
; 185  : 		else
; 186  : 		{
; 187  : 			if( m_bReturnToBegin )
; 188  : 				MoveToDst( vPos );
; 189  : 			else
; 190  : 			{
; 191  : 				vDistant = pMover->GetPos() - m_vPosBegin;

  000fb	8b 16		 mov	 edx, DWORD PTR [esi]
  000fd	8b 46 04	 mov	 eax, DWORD PTR [esi+4]
  00100	89 54 24 20	 mov	 DWORD PTR $T273874[esp+56], edx
  00104	d9 44 24 20	 fld	 DWORD PTR $T273874[esp+56]
  00108	d8 61 54	 fsub	 DWORD PTR [ecx+84]
  0010b	8b 56 08	 mov	 edx, DWORD PTR [esi+8]
  0010e	89 44 24 24	 mov	 DWORD PTR $T273874[esp+60], eax
  00112	89 54 24 28	 mov	 DWORD PTR $T273874[esp+64], edx
  00116	d9 5c 24 2c	 fstp	 DWORD PTR $T273875[esp+56]
  0011a	8b 44 24 2c	 mov	 eax, DWORD PTR $T273875[esp+56]
  0011e	d9 44 24 24	 fld	 DWORD PTR $T273874[esp+60]
  00122	89 44 24 20	 mov	 DWORD PTR _vDistant$264584[esp+56], eax
  00126	d8 61 58	 fsub	 DWORD PTR [ecx+88]
  00129	d9 5c 24 30	 fstp	 DWORD PTR $T273875[esp+60]
  0012d	8b 54 24 30	 mov	 edx, DWORD PTR $T273875[esp+60]
  00131	d9 44 24 28	 fld	 DWORD PTR $T273874[esp+64]
  00135	89 54 24 24	 mov	 DWORD PTR _vDistant$264584[esp+60], edx
  00139	d8 61 5c	 fsub	 DWORD PTR [ecx+92]

; 192  : 				if( IsInRange( vDistant, fRange ) == FALSE )

  0013c	8b 54 24 3c	 mov	 edx, DWORD PTR _fRange$264586[esp+52]
  00140	52		 push	 edx
  00141	d9 5c 24 38	 fstp	 DWORD PTR $T273875[esp+68]
  00145	8b 44 24 38	 mov	 eax, DWORD PTR $T273875[esp+68]
  00149	89 44 24 2c	 mov	 DWORD PTR _vDistant$264584[esp+68], eax
  0014d	8d 44 24 24	 lea	 eax, DWORD PTR _vDistant$264584[esp+60]
  00151	50		 push	 eax
  00152	e8 00 00 00 00	 call	 ?IsInRange@CAIAggro@@IAEHAAUD3DXVECTOR3@@M@Z ; CAIAggro::IsInRange
  00157	85 c0		 test	 eax, eax
  00159	75 1b		 jne	 SHORT $L264595

; 193  : 					DoReturnToBegin();

  0015b	6a 01		 push	 1
  0015d	e8 00 00 00 00	 call	 ?DoReturnToBegin@CAIAggro@@IAEXH@Z ; CAIAggro::DoReturnToBegin
  00162	5f		 pop	 edi
  00163	5e		 pop	 esi
  00164	5d		 pop	 ebp
  00165	5b		 pop	 ebx

; 200  : 	}
; 201  : }

  00166	83 c4 28	 add	 esp, 40			; 00000028H
  00169	c2 04 00	 ret	 4
$L264583:

; 194  : 			}
; 195  : 		}
; 196  : 	}
; 197  : 	else
; 198  : 	{
; 199  : 		MoveToDst( vPos );

  0016c	8d 54 24 14	 lea	 edx, DWORD PTR _vPos$[esp+56]
  00170	52		 push	 edx
  00171	e8 00 00 00 00	 call	 ?MoveToDst@CAIAggro@@IAEXABUD3DXVECTOR3@@@Z ; CAIAggro::MoveToDst
$L264595:
  00176	5f		 pop	 edi
  00177	5e		 pop	 esi
  00178	5d		 pop	 ebp
  00179	5b		 pop	 ebx

; 200  : 	}
; 201  : }

  0017a	83 c4 28	 add	 esp, 40			; 00000028H
  0017d	c2 04 00	 ret	 4
?MoveToRandom@CAIAggro@@IAEXI@Z ENDP			; CAIAggro::MoveToRandom
_TEXT	ENDS
PUBLIC	?MoveProcessIdle@CAIAggro@@IAEHABUAIMSG@@@Z	; CAIAggro::MoveProcessIdle
; Function compile flags: /Ogty
;	COMDAT ?MoveProcessIdle@CAIAggro@@IAEHABUAIMSG@@@Z
_TEXT	SEGMENT
_nAttackFirstRange$264716 = -28				; size = 4
$T273945 = -24						; size = 12
$T273947 = -12						; size = 12
$T273946 = -12						; size = 12
_msg$ = 8						; size = 4
?MoveProcessIdle@CAIAggro@@IAEHABUAIMSG@@@Z PROC NEAR	; CAIAggro::MoveProcessIdle, COMDAT
; _this$ = ecx

; 298  : {

  00000	83 ec 1c	 sub	 esp, 28			; 0000001cH
  00003	53		 push	 ebx
  00004	56		 push	 esi
  00005	8b f1		 mov	 esi, ecx

; 299  : 	CMover* pMover = GetMover();
; 300  : 	CWorld* pWorld = GetWorld();
; 301  : 	MoverProp *pProp = pMover->GetProp();

  00007	8b 0d d0 01 00
	00		 mov	 ecx, DWORD PTR ?prj@@3VCProject@@A+464
  0000d	57		 push	 edi
  0000e	8b 7e 30	 mov	 edi, DWORD PTR [esi+48]
  00011	8b 87 74 01 00
	00		 mov	 eax, DWORD PTR [edi+372]
  00017	85 c0		 test	 eax, eax
  00019	7c 16		 jl	 SHORT $L273986
  0001b	3b c1		 cmp	 eax, ecx
  0001d	7d 12		 jge	 SHORT $L273986
  0001f	8b 0d d4 01 00
	00		 mov	 ecx, DWORD PTR ?prj@@3VCProject@@A+468
  00025	69 c0 d8 06 00
	00		 imul	 eax, 1752		; 000006d8H
  0002b	03 c1		 add	 eax, ecx
  0002d	8b d8		 mov	 ebx, eax
  0002f	eb 18		 jmp	 SHORT $L273981
$L273986:
  00031	50		 push	 eax
  00032	51		 push	 ecx
  00033	6a 00		 push	 0
  00035	68 00 00 00 00	 push	 OFFSET FLAT:??_C@_0BJ@GKPOBPPI@GetMoverProp?5range_error?$AA@
  0003a	68 00 00 00 00	 push	 OFFSET FLAT:??_C@_0BM@HMFGHCP@?$CFs?5min?3?$CFd?0?5max?3?$CFd?0?5index?3?$CFd?$AA@
  0003f	e8 00 00 00 00	 call	 ?Error@@YAPBDPBDZZ	; Error
  00044	83 c4 14	 add	 esp, 20			; 00000014H
  00047	33 db		 xor	 ebx, ebx
$L273981:

; 302  : 
; 303  : 	if( pMover->IsDie() || (pMover->m_pActMover->GetState() & OBJSTA_DMG_FLY_ALL) )

  00049	8b 87 3c 02 00
	00		 mov	 eax, DWORD PTR [edi+572]
  0004f	8b 40 04	 mov	 eax, DWORD PTR [eax+4]
  00052	a9 00 00 00 08	 test	 eax, 134217728		; 08000000H
  00057	0f 85 c0 02 00
	00		 jne	 $L264692
  0005d	8b 8f 00 06 00
	00		 mov	 ecx, DWORD PTR [edi+1536]
  00063	85 c9		 test	 ecx, ecx
  00065	0f 84 b2 02 00
	00		 je	 $L264692
  0006b	a9 00 00 00 02	 test	 eax, 33554432		; 02000000H
  00070	0f 85 a7 02 00
	00		 jne	 $L264692

; 305  : 
; 306  : #ifdef __MOVER_STATE_EFFECT
; 307  : 	if( pMover->m_pActMover->IsStateFlag( OBJSTAF_COMBAT ) == TRUE )
; 308  : 	{
; 309  : 		if( pMover->m_pActMover->SendActMsg( OBJMSG_MODE_PEACE ) == TRUE )
; 310  : 		{
; 311  : 			g_UserMng.AddSendActMsg( pMover, OBJMSG_MODE_PEACE );
; 312  : 		}
; 313  : 	}
; 314  : #endif // __MOVER_STATE_EFFECT
; 315  : 
; 316  : 	if( m_bReturnToBegin )

  00076	8b 86 c4 00 00
	00		 mov	 eax, DWORD PTR [esi+196]
  0007c	85 c0		 test	 eax, eax
  0007e	55		 push	 ebp
  0007f	0f 84 a6 00 00
	00		 je	 $L264693

; 317  : 	{
; 318  : 		if( IsInRange( m_vPosBegin - pMover->GetPos(), 7.0f ) )

  00085	d9 46 54	 fld	 DWORD PTR [esi+84]
  00088	8d 8f 60 01 00
	00		 lea	 ecx, DWORD PTR [edi+352]
  0008e	8b 11		 mov	 edx, DWORD PTR [ecx]
  00090	8b 41 04	 mov	 eax, DWORD PTR [ecx+4]
  00093	8b 49 08	 mov	 ecx, DWORD PTR [ecx+8]
  00096	8d 6e 54	 lea	 ebp, DWORD PTR [esi+84]
  00099	89 54 24 14	 mov	 DWORD PTR $T273945[esp+44], edx
  0009d	d8 64 24 14	 fsub	 DWORD PTR $T273945[esp+44]
  000a1	89 44 24 18	 mov	 DWORD PTR $T273945[esp+48], eax
  000a5	89 4c 24 1c	 mov	 DWORD PTR $T273945[esp+52], ecx
  000a9	d9 5c 24 20	 fstp	 DWORD PTR $T273946[esp+44]
  000ad	68 00 00 e0 40	 push	 1088421888		; 40e00000H
  000b2	d9 45 04	 fld	 DWORD PTR [ebp+4]
  000b5	8d 54 24 24	 lea	 edx, DWORD PTR $T273946[esp+48]
  000b9	d8 64 24 1c	 fsub	 DWORD PTR $T273945[esp+52]
  000bd	52		 push	 edx
  000be	8b ce		 mov	 ecx, esi
  000c0	d9 5c 24 2c	 fstp	 DWORD PTR $T273946[esp+56]
  000c4	d9 45 08	 fld	 DWORD PTR [ebp+8]
  000c7	d8 64 24 24	 fsub	 DWORD PTR $T273945[esp+60]
  000cb	d9 5c 24 30	 fstp	 DWORD PTR $T273946[esp+60]
  000cf	e8 00 00 00 00	 call	 ?IsInRange@CAIAggro@@IAEHAAUD3DXVECTOR3@@M@Z ; CAIAggro::IsInRange
  000d4	85 c0		 test	 eax, eax
  000d6	74 16		 je	 SHORT $L264696

; 319  : 		{
; 320  : 			DoReturnToBegin( FALSE );

  000d8	6a 00		 push	 0
  000da	e8 00 00 00 00	 call	 ?DoReturnToBegin@CAIAggro@@IAEXH@Z ; CAIAggro::DoReturnToBegin

; 321  : 			SendAIMsg( AIMSG_ARRIVAL, NULL_ID );

  000df	8b 06		 mov	 eax, DWORD PTR [esi]
  000e1	6a 00		 push	 0
  000e3	6a 00		 push	 0
  000e5	6a ff		 push	 -1
  000e7	6a 0b		 push	 11			; 0000000bH
  000e9	8b ce		 mov	 ecx, esi
  000eb	ff 50 0c	 call	 DWORD PTR [eax+12]
$L264696:

; 322  : 		}
; 323  : 
; 324  : 
; 325  : 		if( TIMEGETTIME - m_tmReturnToBegin >= SEC(20) )

  000ee	8b 0d 00 00 00
	00		 mov	 ecx, DWORD PTR ?g_tmCurrent@@3KA ; g_tmCurrent
  000f4	2b 4e 50	 sub	 ecx, DWORD PTR [esi+80]
  000f7	81 f9 20 4e 00
	00		 cmp	 ecx, 20000		; 00004e20H
  000fd	72 1d		 jb	 SHORT $L274051

; 326  : 		{
; 327  : 			pMover->SetPos( m_vPosBegin );

  000ff	55		 push	 ebp
  00100	8b cf		 mov	 ecx, edi
  00102	e8 00 00 00 00	 call	 ?SetPos@CObj@@QAEXABUD3DXVECTOR3@@@Z ; CObj::SetPos

; 328  : 			g_UserMng.AddSetPos( pMover, m_vPosBegin );

  00107	55		 push	 ebp
  00108	57		 push	 edi
  00109	b9 00 00 00 00	 mov	 ecx, OFFSET FLAT:?g_UserMng@@3VCUserMng@@A
  0010e	e8 00 00 00 00	 call	 ?AddSetPos@CUserMng@@QAEXPAVCCtrl@@AAUD3DXVECTOR3@@@Z ; CUserMng::AddSetPos

; 329  : 			m_tmReturnToBegin	= TIMEGETTIME;

  00113	8b 15 00 00 00
	00		 mov	 edx, DWORD PTR ?g_tmCurrent@@3KA ; g_tmCurrent
  00119	89 56 50	 mov	 DWORD PTR [esi+80], edx
$L274051:
  0011c	5d		 pop	 ebp
  0011d	5f		 pop	 edi
  0011e	5e		 pop	 esi

; 398  : 						}
; 399  : 					}
; 400  : 				}
; 401  : 			}	// if( target)
; 402  : 		}	// if( scan )
; 403  : 
; 404  : 	}
; 405  : 	return TRUE;

  0011f	b8 01 00 00 00	 mov	 eax, 1
  00124	5b		 pop	 ebx

; 406  : }

  00125	83 c4 1c	 add	 esp, 28			; 0000001cH
  00128	c2 04 00	 ret	 4
$L264693:

; 330  : 		}
; 331  : 	}
; 332  : 	else
; 333  : 	{
; 334  : 		if( pMover->GetMovePattern() == 0 )

  0012b	8b 87 64 16 00
	00		 mov	 eax, DWORD PTR [edi+5732]
  00131	85 c0		 test	 eax, eax
  00133	75 16		 jne	 SHORT $L264700

; 335  : 		{
; 336  : 			if( IsEndStop() )				

  00135	8b ce		 mov	 ecx, esi
  00137	e8 00 00 00 00	 call	 ?IsEndStop@CAIAggro@@IAEHXZ ; CAIAggro::IsEndStop
  0013c	85 c0		 test	 eax, eax
  0013e	74 1d		 je	 SHORT $L264703

; 337  : 				MoveToRandom( STATE_IDLE );	

  00140	6a 02		 push	 2
  00142	8b ce		 mov	 ecx, esi
  00144	e8 00 00 00 00	 call	 ?MoveToRandom@CAIAggro@@IAEXI@Z ; CAIAggro::MoveToRandom

; 338  : 		}
; 339  : 		else							

  00149	eb 12		 jmp	 SHORT $L264703
$L264700:

; 340  : 		{
; 341  : 			if( pMover->GetMoveEvent() == 99 )	

  0014b	83 bf 68 16 00
	00 63		 cmp	 DWORD PTR [edi+5736], 99 ; 00000063H
  00152	75 09		 jne	 SHORT $L264703

; 342  : 				pMover->SetMovePattern( 0 );	

  00154	6a 00		 push	 0
  00156	8b cf		 mov	 ecx, edi
  00158	e8 00 00 00 00	 call	 ?SetMovePattern@CMover@@QAEXH@Z ; CMover::SetMovePattern
$L264703:

; 343  : 		}
; 344  : 
; 345  : 		if( pProp->m_nLoot )

  0015d	8b 83 3c 02 00
	00		 mov	 eax, DWORD PTR [ebx+572]
  00163	85 c0		 test	 eax, eax
  00165	74 38		 je	 SHORT $L264709

; 346  : 		{
; 347  : 			if( (pMover->GetCount() & 63) == 0 )

  00167	f6 87 80 16 00
	00 3f		 test	 BYTE PTR [edi+5760], 63	; 0000003fH
  0016e	75 2f		 jne	 SHORT $L264709

; 348  : 			{	
; 349  : 				if(  pProp->m_nLootProb == 0 || xRandom(100) < (DWORD)( pProp->m_nLootProb )  )

  00170	8b 83 40 02 00
	00		 mov	 eax, DWORD PTR [ebx+576]
  00176	85 c0		 test	 eax, eax
  00178	74 14		 je	 SHORT $L264708
  0017a	6a 64		 push	 100			; 00000064H
  0017c	e8 00 00 00 00	 call	 ?xRandom@@YAKK@Z	; xRandom
  00181	8b 8b 40 02 00
	00		 mov	 ecx, DWORD PTR [ebx+576]
  00187	83 c4 04	 add	 esp, 4
  0018a	3b c1		 cmp	 eax, ecx
  0018c	73 11		 jae	 SHORT $L264709
$L264708:

; 350  : 					if( m_bLootMove == FALSE )	

  0018e	8b 86 dc 00 00
	00		 mov	 eax, DWORD PTR [esi+220]
  00194	85 c0		 test	 eax, eax
  00196	75 07		 jne	 SHORT $L264709

; 351  : 						SubItemLoot();	

  00198	8b ce		 mov	 ecx, esi
  0019a	e8 00 00 00 00	 call	 ?SubItemLoot@CAIAggro@@IAEHXZ ; CAIAggro::SubItemLoot
$L264709:

; 352  : 			}
; 353  : 		}
; 354  : 
; 355  : 		if( m_bLootMove == TRUE )

  0019f	83 be dc 00 00
	00 01		 cmp	 DWORD PTR [esi+220], 1
  001a6	75 46		 jne	 SHORT $L264712

; 356  : 		{
; 357  : 			CCtrl *pCtrl = prj.GetCtrl( m_idLootItem );	

  001a8	8b 86 f8 00 00
	00		 mov	 eax, DWORD PTR [esi+248]
  001ae	50		 push	 eax
  001af	b9 00 00 00 00	 mov	 ecx, OFFSET FLAT:?prj@@3VCProject@@A
  001b4	e8 00 00 00 00	 call	 ?GetCtrl@CProject@@QAEPAVCCtrl@@K@Z ; CProject::GetCtrl

; 358  : 			if( IsInvalidObj(pCtrl) )	

  001b9	50		 push	 eax
  001ba	e8 00 00 00 00	 call	 ?IsInvalidObj@@YAHPAVCObj@@@Z ; IsInvalidObj
  001bf	83 c4 04	 add	 esp, 4
  001c2	85 c0		 test	 eax, eax
  001c4	74 28		 je	 SHORT $L264712

; 359  : 			{
; 360  : 				MoveToDst( pMover->GetPos() );

  001c6	8d 4c 24 20	 lea	 ecx, DWORD PTR $T273947[esp+44]
  001ca	51		 push	 ecx
  001cb	8b cf		 mov	 ecx, edi
  001cd	e8 00 00 00 00	 call	 ?GetPos@CObj@@QAE?AUD3DXVECTOR3@@XZ ; CObj::GetPos
  001d2	50		 push	 eax
  001d3	8b ce		 mov	 ecx, esi
  001d5	e8 00 00 00 00	 call	 ?MoveToDst@CAIAggro@@IAEXABUD3DXVECTOR3@@@Z ; CAIAggro::MoveToDst

; 361  : 				m_idLootItem = NULL_ID;

  001da	c7 86 f8 00 00
	00 ff ff ff ff	 mov	 DWORD PTR [esi+248], -1

; 362  : 				m_bLootMove = FALSE;

  001e4	c7 86 dc 00 00
	00 00 00 00 00	 mov	 DWORD PTR [esi+220], 0
$L264712:

; 363  : 			}
; 364  : 		}
; 365  : 
; 366  : 		if( pProp->m_nScanJob != -1 )

  001ee	8b 83 dc 01 00
	00		 mov	 eax, DWORD PTR [ebx+476]
  001f4	83 f8 ff	 cmp	 eax, -1
  001f7	0f 84 1f ff ff
	ff		 je	 $L274051

; 367  : 		{
; 368  : 			CMover* pTarget = NULL;
; 369  : 			int nAttackFirstRange = pProp->m_nAttackFirstRange;

  001fd	0f bf 8b 86 02
	00 00		 movsx	 ecx, WORD PTR [ebx+646]

; 370  : 
; 371  : 			if( nAttackFirstRange <= 0 )

  00204	85 c9		 test	 ecx, ecx
  00206	89 4c 24 10	 mov	 DWORD PTR _nAttackFirstRange$264716[esp+44], ecx
  0020a	7f 2e		 jg	 SHORT $L264717

; 372  : 			{
; 373  : 				Error( "m_nAttackFirstRange :%d %s\n", pProp->m_nAttackFirstRange, pMover->GetName() );

  0020c	6a 00		 push	 0
  0020e	8b cf		 mov	 ecx, edi
  00210	e8 00 00 00 00	 call	 ?GetName@CMover@@QAEPBDH@Z ; CMover::GetName
  00215	0f bf 93 86 02
	00 00		 movsx	 edx, WORD PTR [ebx+646]
  0021c	50		 push	 eax
  0021d	52		 push	 edx
  0021e	68 00 00 00 00	 push	 OFFSET FLAT:??_C@_0CA@GLBIGGGO@m_nAttackFirstRange?5?$MA?L?$LL?s?3?$CFd?5?$CFs?6?$AA@
  00223	e8 00 00 00 00	 call	 ?Error@@YAPBDPBDZZ	; Error
  00228	83 c4 0c	 add	 esp, 12			; 0000000cH
  0022b	5d		 pop	 ebp
  0022c	5f		 pop	 edi
  0022d	5e		 pop	 esi

; 398  : 						}
; 399  : 					}
; 400  : 				}
; 401  : 			}	// if( target)
; 402  : 		}	// if( scan )
; 403  : 
; 404  : 	}
; 405  : 	return TRUE;

  0022e	b8 01 00 00 00	 mov	 eax, 1
  00233	5b		 pop	 ebx

; 406  : }

  00234	83 c4 1c	 add	 esp, 28			; 0000001cH
  00237	c2 04 00	 ret	 4
$L264717:

; 374  : 				return TRUE;
; 375  : 			}
; 376  : 
; 377  : 			if( pProp->m_nScanJob || pProp->m_dwScanQuestId || pProp->m_dwScanItemIdx || pProp->m_nScanChao )

  0023a	85 c0		 test	 eax, eax
  0023c	75 1e		 jne	 SHORT $L264720
  0023e	8b 83 44 02 00
	00		 mov	 eax, DWORD PTR [ebx+580]
  00244	85 c0		 test	 eax, eax
  00246	75 14		 jne	 SHORT $L264720
  00248	8b 83 48 02 00
	00		 mov	 eax, DWORD PTR [ebx+584]
  0024e	85 c0		 test	 eax, eax
  00250	75 0a		 jne	 SHORT $L264720
  00252	8b 83 4c 02 00
	00		 mov	 eax, DWORD PTR [ebx+588]
  00258	85 c0		 test	 eax, eax
  0025a	74 1e		 je	 SHORT $L274050
$L264720:

; 378  : 				pTarget = ScanTargetAggro( pMover, (FLOAT)nAttackFirstRange, m_dwAIInterface, m_uParty );

  0025c	8b 46 34	 mov	 eax, DWORD PTR [esi+52]
  0025f	db 44 24 10	 fild	 DWORD PTR _nAttackFirstRange$264716[esp+44]
  00263	8b 4e 38	 mov	 ecx, DWORD PTR [esi+56]
  00266	50		 push	 eax
  00267	51		 push	 ecx
  00268	51		 push	 ecx
  00269	d9 1c 24	 fstp	 DWORD PTR [esp]
  0026c	57		 push	 edi
  0026d	8b ce		 mov	 ecx, esi
  0026f	e8 00 00 00 00	 call	 ?ScanTargetAggro@CAIInterface@@IAEPAVCMover@@PAVCObj@@MKK@Z ; CAIInterface::ScanTargetAggro
  00274	8b e8		 mov	 ebp, eax

; 379  : 
; 380  : 			if( pTarget == NULL && GetMover()->m_bActiveAttack )

  00276	85 ed		 test	 ebp, ebp
  00278	75 33		 jne	 SHORT $L274048
$L274050:
  0027a	8b 56 30	 mov	 edx, DWORD PTR [esi+48]
  0027d	8b 82 70 06 00
	00		 mov	 eax, DWORD PTR [edx+1648]
  00283	85 c0		 test	 eax, eax
  00285	0f 84 91 fe ff
	ff		 je	 $L274051

; 381  : 				pTarget = ScanTargetAggro( pMover, (FLOAT)nAttackFirstRange, m_dwAIInterface, m_uParty );

  0028b	8b 46 34	 mov	 eax, DWORD PTR [esi+52]
  0028e	db 44 24 10	 fild	 DWORD PTR _nAttackFirstRange$264716[esp+44]
  00292	8b 4e 38	 mov	 ecx, DWORD PTR [esi+56]
  00295	50		 push	 eax
  00296	51		 push	 ecx
  00297	51		 push	 ecx
  00298	d9 1c 24	 fstp	 DWORD PTR [esp]
  0029b	57		 push	 edi
  0029c	8b ce		 mov	 ecx, esi
  0029e	e8 00 00 00 00	 call	 ?ScanTargetAggro@CAIInterface@@IAEPAVCMover@@PAVCObj@@MKK@Z ; CAIInterface::ScanTargetAggro
  002a3	8b e8		 mov	 ebp, eax

; 382  : 
; 383  : 			if( pTarget )

  002a5	85 ed		 test	 ebp, ebp
  002a7	0f 84 6f fe ff
	ff		 je	 $L274051
$L274048:

; 384  : 			{
; 385  : 				if( IsValidObj( (CObj*)pTarget ) )

  002ad	55		 push	 ebp
  002ae	e8 00 00 00 00	 call	 ?IsValidObj@@YAHPAVCObj@@@Z ; IsValidObj
  002b3	83 c4 04	 add	 esp, 4
  002b6	85 c0		 test	 eax, eax
  002b8	0f 84 5e fe ff
	ff		 je	 $L274051

; 386  : 				{
; 387  : 
; 388  : #ifdef __JHMA_VER_8_6   
; 389  : 					if( pMover->IsFlyingNPC() == FALSE || pMover->IsFlyingNPC() == pTarget->m_pActMover->IsFly() || pProp->dwClass == RANK_GUARD )	//   .
; 390  : #else	// __VER >= 8  
; 391  : 					if( (pMover->IsFlyingNPC() || pTarget->m_pActMover->IsFly() == FALSE) || pProp->dwClass == RANK_GUARD )	//   .

  002be	f6 87 42 02 00
	00 01		 test	 BYTE PTR [edi+578], 1
  002c5	75 1e		 jne	 SHORT $L264728
  002c7	8b 95 3c 02 00
	00		 mov	 edx, DWORD PTR [ebp+572]
  002cd	8a 4a 08	 mov	 cl, BYTE PTR [edx+8]
  002d0	b8 08 00 00 00	 mov	 eax, 8
  002d5	84 c8		 test	 cl, al
  002d7	74 0c		 je	 SHORT $L264728
  002d9	39 83 94 00 00
	00		 cmp	 DWORD PTR [ebx+148], eax
  002df	0f 85 37 fe ff
	ff		 jne	 $L274051
$L264728:

; 392  : #endif	// __VER >= 8  
; 393  : 					{
; 394  : 						if( pTarget )	

  002e5	85 ed		 test	 ebp, ebp
  002e7	0f 84 2f fe ff
	ff		 je	 $L274051

; 395  : 						{
; 396  : 							g_UserMng.AddDlgEmoticon( pMover, DLGEMOT_ATTACK );

  002ed	6a 00		 push	 0
  002ef	57		 push	 edi
  002f0	b9 00 00 00 00	 mov	 ecx, OFFSET FLAT:?g_UserMng@@3VCUserMng@@A
  002f5	e8 00 00 00 00	 call	 ?AddDlgEmoticon@CUserMng@@QAEXPAVCCtrl@@H@Z ; CUserMng::AddDlgEmoticon

; 397  : 							SendAIMsg( AIMSG_SETSTATE, STATE_RAGE, pTarget->GetId() );

  002fa	8b 8d bc 01 00
	00		 mov	 ecx, DWORD PTR [ebp+444]
  00300	8b 06		 mov	 eax, DWORD PTR [esi]
  00302	6a 00		 push	 0
  00304	51		 push	 ecx
  00305	6a 07		 push	 7
  00307	6a 04		 push	 4
  00309	8b ce		 mov	 ecx, esi
  0030b	ff 50 0c	 call	 DWORD PTR [eax+12]
  0030e	5d		 pop	 ebp
  0030f	5f		 pop	 edi
  00310	5e		 pop	 esi

; 398  : 						}
; 399  : 					}
; 400  : 				}
; 401  : 			}	// if( target)
; 402  : 		}	// if( scan )
; 403  : 
; 404  : 	}
; 405  : 	return TRUE;

  00311	b8 01 00 00 00	 mov	 eax, 1
  00316	5b		 pop	 ebx

; 406  : }

  00317	83 c4 1c	 add	 esp, 28			; 0000001cH
  0031a	c2 04 00	 ret	 4
$L264692:
  0031d	5f		 pop	 edi
  0031e	5e		 pop	 esi

; 304  : 		return FALSE;

  0031f	33 c0		 xor	 eax, eax
  00321	5b		 pop	 ebx

; 406  : }

  00322	83 c4 1c	 add	 esp, 28			; 0000001cH
  00325	c2 04 00	 ret	 4
?MoveProcessIdle@CAIAggro@@IAEHABUAIMSG@@@Z ENDP	; CAIAggro::MoveProcessIdle
_TEXT	ENDS
PUBLIC	?StateIdle@CAIAggro@@IAEHABUAIMSG@@@Z		; CAIAggro::StateIdle
PUBLIC	__real@41100000
EXTRN	?CreateItem@CMover@@QAEHPAVCItemBase@@PAEPAFE@Z:NEAR ; CMover::CreateItem
EXTRN	?Delete@CObj@@QAEXXZ:NEAR			; CObj::Delete
EXTRN	?AddGold@CMover@@QAEHHH@Z:NEAR			; CMover::AddGold
EXTRN	?AddSetMovePattern@CUserMng@@QAEXPAVCMover@@HABUD3DXVECTOR3@@MM@Z:NEAR ; CUserMng::AddSetMovePattern
EXTRN	?GetGold@CItemElem@@QAEHXZ:NEAR			; CItemElem::GetGold
;	COMDAT __real@41100000
; File c:\documents and settings\test\mes documents\source\virtuos_v17\build\program\_common\obj.h
CONST	SEGMENT
__real@41100000 DD 041100000r			; 9
; Function compile flags: /Ogty
; File c:\documents and settings\test\mes documents\source\virtuos_v17\build\program\_aiinterface\aiaggro.cpp
CONST	ENDS
;	COMDAT ?StateIdle@CAIAggro@@IAEHABUAIMSG@@@Z
_TEXT	SEGMENT
$T274060 = -24						; size = 12
$T274058 = -24						; size = 12
$T274057 = -24						; size = 12
$T274056 = -24						; size = 12
$T274059 = -12						; size = 12
_nRangeMove$264739 = 8					; size = 4
_msg$ = 8						; size = 4
?StateIdle@CAIAggro@@IAEHABUAIMSG@@@Z PROC NEAR		; CAIAggro::StateIdle, COMDAT
; _this$ = ecx

; 409  : {

  00000	83 ec 18	 sub	 esp, 24			; 00000018H
  00003	55		 push	 ebp

; 410  : 	CMover* pMover = GetMover();
; 411  : 	CWorld* pWorld = GetWorld();
; 412  : 
; 413  : 	BeginAIHandler( )
; 414  : 
; 415  : 	///////////////////////////////////////////////////////////////////////////////////////////////////
; 416  : 	OnMessage( AIMSG_INIT ) 

  00004	8b 6c 24 20	 mov	 ebp, DWORD PTR _msg$[esp+24]
  00008	8b 45 00	 mov	 eax, DWORD PTR [ebp]
  0000b	83 f8 01	 cmp	 eax, 1
  0000e	56		 push	 esi
  0000f	8b f1		 mov	 esi, ecx
  00011	57		 push	 edi
  00012	8b 7e 30	 mov	 edi, DWORD PTR [esi+48]
  00015	0f 85 82 00 00
	00		 jne	 $L264738

; 417  : 		int nRangeMove = (int)( RANGE_MOVE );
; 418  : 		if( pMover->IsFlyingNPC() )

  0001b	f6 87 42 02 00
	00 01		 test	 BYTE PTR [edi+578], 1
  00022	c7 44 24 28 1e
	00 00 00	 mov	 DWORD PTR _nRangeMove$264739[esp+32], 30 ; 0000001eH
  0002a	74 08		 je	 SHORT $L264741

; 419  : 			nRangeMove *= 3;

  0002c	c7 44 24 28 5a
	00 00 00	 mov	 DWORD PTR _nRangeMove$264739[esp+32], 90 ; 0000005aH
$L264741:

; 420  : 
; 421  : 		D3DXVECTOR3	vTargetTo = pMover->GetPos() - m_vPosBegin;

  00034	81 c7 60 01 00
	00		 add	 edi, 352		; 00000160H
  0003a	8b 07		 mov	 eax, DWORD PTR [edi]
  0003c	8b 4f 04	 mov	 ecx, DWORD PTR [edi+4]
  0003f	8b 57 08	 mov	 edx, DWORD PTR [edi+8]
  00042	89 44 24 0c	 mov	 DWORD PTR $T274056[esp+36], eax
  00046	d9 44 24 0c	 fld	 DWORD PTR $T274056[esp+36]
  0004a	d8 66 54	 fsub	 DWORD PTR [esi+84]
  0004d	89 54 24 14	 mov	 DWORD PTR $T274056[esp+44], edx
  00051	d9 44 24 14	 fld	 DWORD PTR $T274056[esp+44]
  00055	89 4c 24 10	 mov	 DWORD PTR $T274056[esp+40], ecx
  00059	d8 66 5c	 fsub	 DWORD PTR [esi+92]

; 422  : 		if( IsInRange( vTargetTo, (float)( nRangeMove ) ) == FALSE )

  0005c	db 44 24 28	 fild	 DWORD PTR _nRangeMove$264739[esp+32]
  00060	d9 c1		 fld	 ST(1)
  00062	d8 ca		 fmul	 ST(0), ST(2)
  00064	d9 c3		 fld	 ST(3)
  00066	d8 cc		 fmul	 ST(0), ST(4)

; 508  : 
; 509  : 	EndAIHandler( )
; 510  : 	return TRUE;

  00068	de c1		 faddp	 ST(1), ST(0)
  0006a	d9 c1		 fld	 ST(1)
  0006c	d8 ca		 fmul	 ST(0), ST(2)
  0006e	de d9		 fcompp
  00070	dd d8		 fstp	 ST(0)
  00072	df e0		 fnstsw	 ax
  00074	dd d8		 fstp	 ST(0)
  00076	f6 c4 05	 test	 ah, 5
  00079	dd d8		 fstp	 ST(0)
  0007b	7a 09		 jp	 SHORT $L264746
  0007d	6a 01		 push	 1
  0007f	8b ce		 mov	 ecx, esi
  00081	e8 00 00 00 00	 call	 ?DoReturnToBegin@CAIAggro@@IAEXH@Z ; CAIAggro::DoReturnToBegin
$L264746:
  00086	6a 00		 push	 0
  00088	8b ce		 mov	 ecx, esi
  0008a	e8 00 00 00 00	 call	 ?SetStop@CAIAggro@@IAEXK@Z ; CAIAggro::SetStop
  0008f	5f		 pop	 edi
  00090	5e		 pop	 esi
  00091	b8 01 00 00 00	 mov	 eax, 1
  00096	5d		 pop	 ebp

; 511  : }

  00097	83 c4 18	 add	 esp, 24			; 00000018H
  0009a	c2 04 00	 ret	 4
$L264738:

; 423  : 			DoReturnToBegin();
; 424  : 		SetStop( SEC( 0 ) );
; 425  : 
; 426  : 	///////////////////////////////////////////////////////////////////////////////////////////////////
; 427  : 	OnMessage( AIMSG_INIT_TARGETCLEAR )

  0009d	83 f8 11	 cmp	 eax, 17			; 00000011H
  000a0	75 2b		 jne	 SHORT $L264749

; 428  : 		SetTarget( NULL_ID, 0 );

  000a2	68 00 00 80 3f	 push	 1065353216		; 3f800000H
  000a7	8b cf		 mov	 ecx, edi
  000a9	c7 86 e0 00 00
	00 ff ff ff ff	 mov	 DWORD PTR [esi+224], -1
  000b3	c7 46 34 00 00
	00 00		 mov	 DWORD PTR [esi+52], 0
  000ba	e8 00 00 00 00	 call	 ?SetSpeedFactor@CMover@@QAEXM@Z ; CMover::SetSpeedFactor
  000bf	5f		 pop	 edi
  000c0	5e		 pop	 esi

; 503  : 			}
; 504  : 		}
; 505  : 		
; 506  : 	///////////////////////////////////////////////////////////////////////////////////////////////////
; 507  : 	OnMessage( AIMSG_EXIT )	

  000c1	b8 01 00 00 00	 mov	 eax, 1
  000c6	5d		 pop	 ebp

; 511  : }

  000c7	83 c4 18	 add	 esp, 24			; 00000018H
  000ca	c2 04 00	 ret	 4
$L264749:

; 429  : 
; 430  : 	///////////////////////////////////////////////////////////////////////////////////////////////////
; 431  : 	OnMessage( AIMSG_PROCESS ) 

  000cd	83 f8 02	 cmp	 eax, 2
  000d0	75 16		 jne	 SHORT $L264751

; 432  : 		MoveProcessIdle( msg );

  000d2	55		 push	 ebp
  000d3	8b ce		 mov	 ecx, esi
  000d5	e8 00 00 00 00	 call	 ?MoveProcessIdle@CAIAggro@@IAEHABUAIMSG@@@Z ; CAIAggro::MoveProcessIdle
  000da	5f		 pop	 edi
  000db	5e		 pop	 esi

; 503  : 			}
; 504  : 		}
; 505  : 		
; 506  : 	///////////////////////////////////////////////////////////////////////////////////////////////////
; 507  : 	OnMessage( AIMSG_EXIT )	

  000dc	b8 01 00 00 00	 mov	 eax, 1
  000e1	5d		 pop	 ebp

; 511  : }

  000e2	83 c4 18	 add	 esp, 24			; 00000018H
  000e5	c2 04 00	 ret	 4
$L264751:

; 433  : 
; 434  : 	///////////////////////////////////////////////////////////////////////////////////////////////////
; 435  : 	OnMessage( AIMSG_DAMAGE ) 

  000e8	83 f8 08	 cmp	 eax, 8
  000eb	75 68		 jne	 SHORT $L264753

; 436  : 
; 437  : 		if( m_bReturnToBegin == FALSE )

  000ed	8b 86 c4 00 00
	00		 mov	 eax, DWORD PTR [esi+196]
  000f3	85 c0		 test	 eax, eax
  000f5	0f 85 f4 01 00
	00		 jne	 $L264761

; 438  : 		{
; 439  : 			MoveToDst( msg.dwParam1 );

  000fb	8b 45 04	 mov	 eax, DWORD PTR [ebp+4]
  000fe	50		 push	 eax
  000ff	8b ce		 mov	 ecx, esi
  00101	e8 00 00 00 00	 call	 ?MoveToDst@CAIAggro@@IAEXK@Z ; CAIAggro::MoveToDst

; 440  : 			SendAIMsg( AIMSG_SETSTATE, STATE_RAGE, msg.dwParam1 );

  00106	8b 45 04	 mov	 eax, DWORD PTR [ebp+4]
  00109	8b 16		 mov	 edx, DWORD PTR [esi]
  0010b	6a 00		 push	 0
  0010d	50		 push	 eax
  0010e	6a 07		 push	 7
  00110	6a 04		 push	 4
  00112	8b ce		 mov	 ecx, esi
  00114	ff 52 0c	 call	 DWORD PTR [edx+12]

; 441  : 			m_tmAttack	= TIMEGETTIME + s_tmAttack;

  00117	8b 15 00 00 00
	00		 mov	 edx, DWORD PTR ?g_tmCurrent@@3KA ; g_tmCurrent
  0011d	8b 0d 00 00 00
	00		 mov	 ecx, DWORD PTR _s_tmAttack
  00123	03 ca		 add	 ecx, edx

; 442  : 			m_vPosDamage	= pMover->GetPos();

  00125	8d 44 24 0c	 lea	 eax, DWORD PTR $T274057[esp+36]
  00129	89 4e 44	 mov	 DWORD PTR [esi+68], ecx
  0012c	50		 push	 eax
  0012d	8b cf		 mov	 ecx, edi
  0012f	e8 00 00 00 00	 call	 ?GetPos@CObj@@QAE?AUD3DXVECTOR3@@XZ ; CObj::GetPos
  00134	8b 08		 mov	 ecx, DWORD PTR [eax]
  00136	83 c6 78	 add	 esi, 120		; 00000078H
  00139	89 0e		 mov	 DWORD PTR [esi], ecx
  0013b	8b 50 04	 mov	 edx, DWORD PTR [eax+4]
  0013e	89 56 04	 mov	 DWORD PTR [esi+4], edx
  00141	8b 40 08	 mov	 eax, DWORD PTR [eax+8]
  00144	5f		 pop	 edi
  00145	89 46 08	 mov	 DWORD PTR [esi+8], eax
  00148	5e		 pop	 esi

; 503  : 			}
; 504  : 		}
; 505  : 		
; 506  : 	///////////////////////////////////////////////////////////////////////////////////////////////////
; 507  : 	OnMessage( AIMSG_EXIT )	

  00149	b8 01 00 00 00	 mov	 eax, 1
  0014e	5d		 pop	 ebp

; 511  : }

  0014f	83 c4 18	 add	 esp, 24			; 00000018H
  00152	c2 04 00	 ret	 4
$L264753:

; 443  : 		}
; 444  : 	///////////////////////////////////////////////////////////////////////////////////////////////////
; 445  : 	OnMessage( AIMSG_DIE )

  00155	83 f8 09	 cmp	 eax, 9
  00158	75 1d		 jne	 SHORT $L264757

; 446  : 		SendAIMsg( AIMSG_EXIT );

  0015a	8b 16		 mov	 edx, DWORD PTR [esi]
  0015c	6a 00		 push	 0
  0015e	6a 00		 push	 0
  00160	6a 00		 push	 0
  00162	6a 12		 push	 18			; 00000012H
  00164	8b ce		 mov	 ecx, esi
  00166	ff 52 0c	 call	 DWORD PTR [edx+12]
  00169	5f		 pop	 edi
  0016a	5e		 pop	 esi

; 503  : 			}
; 504  : 		}
; 505  : 		
; 506  : 	///////////////////////////////////////////////////////////////////////////////////////////////////
; 507  : 	OnMessage( AIMSG_EXIT )	

  0016b	b8 01 00 00 00	 mov	 eax, 1
  00170	5d		 pop	 ebp

; 511  : }

  00171	83 c4 18	 add	 esp, 24			; 00000018H
  00174	c2 04 00	 ret	 4
$L264757:

; 447  : 
; 448  : 	///////////////////////////////////////////////////////////////////////////////////////////////////
; 449  : 	OnMessage( AIMSG_COLLISION )

  00177	83 f8 0a	 cmp	 eax, 10			; 0000000aH
  0017a	75 17		 jne	 SHORT $L264759

; 450  : 		MoveToRandom( STATE_IDLE );

  0017c	6a 02		 push	 2
  0017e	8b ce		 mov	 ecx, esi
  00180	e8 00 00 00 00	 call	 ?MoveToRandom@CAIAggro@@IAEXI@Z ; CAIAggro::MoveToRandom
  00185	5f		 pop	 edi
  00186	5e		 pop	 esi

; 503  : 			}
; 504  : 		}
; 505  : 		
; 506  : 	///////////////////////////////////////////////////////////////////////////////////////////////////
; 507  : 	OnMessage( AIMSG_EXIT )	

  00187	b8 01 00 00 00	 mov	 eax, 1
  0018c	5d		 pop	 ebp

; 511  : }

  0018d	83 c4 18	 add	 esp, 24			; 00000018H
  00190	c2 04 00	 ret	 4
$L264759:

; 451  : 
; 452  : 	///////////////////////////////////////////////////////////////////////////////////////////////////
; 453  : 	OnMessage( AIMSG_ARRIVAL )

  00193	83 f8 0b	 cmp	 eax, 11			; 0000000bH
  00196	0f 85 53 01 00
	00		 jne	 $L264761

; 454  : 		if( pMover->IsFlyingNPC() )		

  0019c	f6 87 42 02 00
	00 01		 test	 BYTE PTR [edi+578], 1
  001a3	53		 push	 ebx
  001a4	74 44		 je	 SHORT $L264762

; 455  : 		{
; 456  : 			if( msg.dwParam2 == 1 )

  001a6	83 7d 08 01	 cmp	 DWORD PTR [ebp+8], 1
  001aa	0f 85 3e 01 00
	00		 jne	 $L264772

; 457  : 			{
; 458  : 				int nPattern = 2;
; 459  : 				pMover->SetMovePattern( nPattern );

  001b0	6a 02		 push	 2
  001b2	8b cf		 mov	 ecx, edi
  001b4	e8 00 00 00 00	 call	 ?SetMovePattern@CMover@@QAEXH@Z ; CMover::SetMovePattern

; 460  : 				g_UserMng.AddSetMovePattern( pMover, nPattern, pMover->GetPos(), pMover->GetAngle(), pMover->GetAngleX() );

  001b9	8b 47 1c	 mov	 eax, DWORD PTR [edi+28]
  001bc	8b 4f 18	 mov	 ecx, DWORD PTR [edi+24]
  001bf	50		 push	 eax
  001c0	51		 push	 ecx
  001c1	8d 54 24 18	 lea	 edx, DWORD PTR $T274058[esp+48]
  001c5	52		 push	 edx
  001c6	8b cf		 mov	 ecx, edi
  001c8	e8 00 00 00 00	 call	 ?GetPos@CObj@@QAE?AUD3DXVECTOR3@@XZ ; CObj::GetPos
  001cd	50		 push	 eax
  001ce	6a 02		 push	 2
  001d0	57		 push	 edi
  001d1	b9 00 00 00 00	 mov	 ecx, OFFSET FLAT:?g_UserMng@@3VCUserMng@@A
  001d6	e8 00 00 00 00	 call	 ?AddSetMovePattern@CUserMng@@QAEXPAVCMover@@HABUD3DXVECTOR3@@MM@Z ; CUserMng::AddSetMovePattern
  001db	5b		 pop	 ebx
  001dc	5f		 pop	 edi
  001dd	5e		 pop	 esi

; 503  : 			}
; 504  : 		}
; 505  : 		
; 506  : 	///////////////////////////////////////////////////////////////////////////////////////////////////
; 507  : 	OnMessage( AIMSG_EXIT )	

  001de	b8 01 00 00 00	 mov	 eax, 1
  001e3	5d		 pop	 ebp

; 511  : }

  001e4	83 c4 18	 add	 esp, 24			; 00000018H
  001e7	c2 04 00	 ret	 4
$L264762:

; 461  : 			}
; 462  : 		} 
; 463  : 		else
; 464  : 		{
; 465  : 			if( m_bReturnToBegin )

  001ea	8b 86 c4 00 00
	00		 mov	 eax, DWORD PTR [esi+196]
  001f0	85 c0		 test	 eax, eax

; 466  : 				SetStop( xRandom( SEC( 1 ) ) );

  001f2	68 e8 03 00 00	 push	 1000			; 000003e8H
  001f7	74 07		 je	 SHORT $L264767
  001f9	e8 00 00 00 00	 call	 ?xRandom@@YAKK@Z	; xRandom

; 467  : 			else

  001fe	eb 0a		 jmp	 SHORT $L274149
$L264767:

; 468  : 				SetStop( SEC( 5 ) + xRandom( SEC( 1 ) ) );

  00200	e8 00 00 00 00	 call	 ?xRandom@@YAKK@Z	; xRandom
  00205	05 88 13 00 00	 add	 eax, 5000		; 00001388H
$L274149:
  0020a	83 c4 04	 add	 esp, 4
  0020d	8b ce		 mov	 ecx, esi
  0020f	50		 push	 eax
  00210	e8 00 00 00 00	 call	 ?SetStop@CAIAggro@@IAEXK@Z ; CAIAggro::SetStop

; 469  : 
; 470  : 			if( m_bLootMove )	

  00215	8b 86 dc 00 00
	00		 mov	 eax, DWORD PTR [esi+220]
  0021b	85 c0		 test	 eax, eax
  0021d	0f 84 cb 00 00
	00		 je	 $L264772

; 471  : 			{
; 472  : 				CCtrl *pCtrl = prj.GetCtrl( m_idLootItem );	

  00223	8b 86 f8 00 00
	00		 mov	 eax, DWORD PTR [esi+248]
  00229	50		 push	 eax
  0022a	b9 00 00 00 00	 mov	 ecx, OFFSET FLAT:?prj@@3VCProject@@A
  0022f	e8 00 00 00 00	 call	 ?GetCtrl@CProject@@QAEPAVCCtrl@@K@Z ; CProject::GetCtrl
  00234	8b d8		 mov	 ebx, eax

; 473  : 				if( IsValidObj(pCtrl) )

  00236	53		 push	 ebx
  00237	e8 00 00 00 00	 call	 ?IsValidObj@@YAHPAVCObj@@@Z ; IsValidObj
  0023c	83 c4 04	 add	 esp, 4
  0023f	85 c0		 test	 eax, eax
  00241	0f 84 93 00 00
	00		 je	 $L274147

; 474  : 				{
; 475  : 					CItem *pItem = (CItem *)pCtrl;
; 476  : 					D3DXVECTOR3 vDist = pCtrl->GetPos() - pMover->GetPos();

  00247	8d 4c 24 10	 lea	 ecx, DWORD PTR $T274060[esp+40]
  0024b	51		 push	 ecx
  0024c	8b cf		 mov	 ecx, edi
  0024e	e8 00 00 00 00	 call	 ?GetPos@CObj@@QAE?AUD3DXVECTOR3@@XZ ; CObj::GetPos
  00253	8d 54 24 1c	 lea	 edx, DWORD PTR $T274059[esp+40]
  00257	52		 push	 edx
  00258	8b cb		 mov	 ecx, ebx
  0025a	8b e8		 mov	 ebp, eax
  0025c	e8 00 00 00 00	 call	 ?GetPos@CObj@@QAE?AUD3DXVECTOR3@@XZ ; CObj::GetPos
  00261	d9 00		 fld	 DWORD PTR [eax]
  00263	d8 65 00	 fsub	 DWORD PTR [ebp]
  00266	d9 40 04	 fld	 DWORD PTR [eax+4]
  00269	d8 65 04	 fsub	 DWORD PTR [ebp+4]
  0026c	d9 40 08	 fld	 DWORD PTR [eax+8]
  0026f	d8 65 08	 fsub	 DWORD PTR [ebp+8]

; 477  : 					FLOAT fDistSq = D3DXVec3LengthSq( &vDist );

  00272	d9 c0		 fld	 ST(0)
  00274	d8 c9		 fmul	 ST(0), ST(1)
  00276	d9 c2		 fld	 ST(2)
  00278	d8 cb		 fmul	 ST(0), ST(3)

; 508  : 
; 509  : 	EndAIHandler( )
; 510  : 	return TRUE;

  0027a	de c1		 faddp	 ST(1), ST(0)
  0027c	d9 c3		 fld	 ST(3)
  0027e	d8 cc		 fmul	 ST(0), ST(4)
  00280	de c1		 faddp	 ST(1), ST(0)
  00282	d8 1d 00 00 00
	00		 fcomp	 DWORD PTR __real@41100000
  00288	dd d8		 fstp	 ST(0)
  0028a	df e0		 fnstsw	 ax
  0028c	dd d8		 fstp	 ST(0)
  0028e	f6 c4 05	 test	 ah, 5
  00291	dd d8		 fstp	 ST(0)
  00293	7a 45		 jp	 SHORT $L274147
  00295	f6 43 04 01	 test	 BYTE PTR [ebx+4], 1
  00299	75 53		 jne	 SHORT $L264772
  0029b	8b ab 34 02 00
	00		 mov	 ebp, DWORD PTR [ebx+564]
  002a1	8b cb		 mov	 ecx, ebx
  002a3	e8 00 00 00 00	 call	 ?GetPropA@CItem@@QAEPAUItemProp@@XZ ; CItem::GetPropA
  002a8	83 78 70 0c	 cmp	 DWORD PTR [eax+112], 12	; 0000000cH
  002ac	75 13		 jne	 SHORT $L264788
  002ae	6a 01		 push	 1
  002b0	8b cd		 mov	 ecx, ebp
  002b2	e8 00 00 00 00	 call	 ?GetGold@CItemElem@@QAEHXZ ; CItemElem::GetGold
  002b7	50		 push	 eax
  002b8	8b cf		 mov	 ecx, edi
  002ba	e8 00 00 00 00	 call	 ?AddGold@CMover@@QAEHHH@Z ; CMover::AddGold
  002bf	eb 12		 jmp	 SHORT $L274144
$L264788:

; 478  : 					if( fDistSq < 3.0f * 3.0f )
; 479  : 					{
; 480  : 						if( pItem->IsDelete() )
; 481  : 							return TRUE;
; 482  : 						CItemElem* pItemElem = (CItemElem *)pItem->m_pItemBase;
; 483  : 						ItemProp *pItemProp = pItem->GetProp();
; 484  : 						BOOL bSuccess = FALSE;
; 485  : 						if( pItemProp->dwItemKind1 == IK1_GOLD )
; 486  : 						{
; 487  : 							pMover->AddGold( pItemElem->GetGold() );
; 488  : 							bSuccess = TRUE;
; 489  : 						} 
; 490  : 						else
; 491  : 						{
; 492  : 							bSuccess = pMover->CreateItem( pItemElem );

  002c1	6a 00		 push	 0
  002c3	6a 00		 push	 0
  002c5	6a 00		 push	 0
  002c7	55		 push	 ebp
  002c8	8b cf		 mov	 ecx, edi
  002ca	e8 00 00 00 00	 call	 ?CreateItem@CMover@@QAEHPAVCItemBase@@PAEPAFE@Z ; CMover::CreateItem

; 493  : 						}
; 494  : 
; 495  : 						if( bSuccess )

  002cf	85 c0		 test	 eax, eax
  002d1	74 07		 je	 SHORT $L274147
$L274144:

; 496  : 						{
; 497  : 							pItem->Delete();

  002d3	8b cb		 mov	 ecx, ebx
  002d5	e8 00 00 00 00	 call	 ?Delete@CObj@@QAEXXZ	; CObj::Delete
$L274147:

; 498  : 						}
; 499  : 					}
; 500  : 				}
; 501  : 				m_bLootMove = FALSE;

  002da	c7 86 dc 00 00
	00 00 00 00 00	 mov	 DWORD PTR [esi+220], 0

; 502  : 				m_idLootItem = NULL_ID;

  002e4	c7 86 f8 00 00
	00 ff ff ff ff	 mov	 DWORD PTR [esi+248], -1
$L264772:
  002ee	5b		 pop	 ebx
$L264761:
  002ef	5f		 pop	 edi
  002f0	5e		 pop	 esi

; 503  : 			}
; 504  : 		}
; 505  : 		
; 506  : 	///////////////////////////////////////////////////////////////////////////////////////////////////
; 507  : 	OnMessage( AIMSG_EXIT )	

  002f1	b8 01 00 00 00	 mov	 eax, 1
  002f6	5d		 pop	 ebp

; 511  : }

  002f7	83 c4 18	 add	 esp, 24			; 00000018H
  002fa	c2 04 00	 ret	 4
?StateIdle@CAIAggro@@IAEHABUAIMSG@@@Z ENDP		; CAIAggro::StateIdle
_TEXT	ENDS
PUBLIC	?StateStand@CAIAggro@@IAEHABUAIMSG@@@Z		; CAIAggro::StateStand
; Function compile flags: /Ogty
;	COMDAT ?StateStand@CAIAggro@@IAEHABUAIMSG@@@Z
_TEXT	SEGMENT
$T274157 = -24						; size = 12
$T274155 = -24						; size = 12
$T274154 = -24						; size = 12
$T274153 = -24						; size = 12
$T274156 = -12						; size = 12
_nRangeMove$264813 = 8					; size = 4
_msg$ = 8						; size = 4
?StateStand@CAIAggro@@IAEHABUAIMSG@@@Z PROC NEAR	; CAIAggro::StateStand, COMDAT
; _this$ = ecx

; 519  : {

  00000	83 ec 18	 sub	 esp, 24			; 00000018H
  00003	55		 push	 ebp

; 520  : 	CMover* pMover = GetMover();
; 521  : 	CWorld* pWorld = GetWorld();
; 522  : 
; 523  : 	BeginAIHandler( )
; 524  : 
; 525  : 	///////////////////////////////////////////////////////////////////////////////////////////////////
; 526  : 	OnMessage( AIMSG_INIT ) 

  00004	8b 6c 24 20	 mov	 ebp, DWORD PTR _msg$[esp+24]
  00008	8b 45 00	 mov	 eax, DWORD PTR [ebp]
  0000b	83 f8 01	 cmp	 eax, 1
  0000e	56		 push	 esi
  0000f	8b f1		 mov	 esi, ecx
  00011	57		 push	 edi
  00012	8b 7e 30	 mov	 edi, DWORD PTR [esi+48]
  00015	0f 85 83 00 00
	00		 jne	 $L264809

; 527  : 		D3DXVECTOR3	vTargetTo = pMover->GetPos() - m_vPosBegin;

  0001b	8d 87 60 01 00
	00		 lea	 eax, DWORD PTR [edi+352]
  00021	8b 08		 mov	 ecx, DWORD PTR [eax]
  00023	8b 50 04	 mov	 edx, DWORD PTR [eax+4]
  00026	8b 40 08	 mov	 eax, DWORD PTR [eax+8]
  00029	89 4c 24 0c	 mov	 DWORD PTR $T274153[esp+36], ecx
  0002d	d9 44 24 0c	 fld	 DWORD PTR $T274153[esp+36]
  00031	d8 66 54	 fsub	 DWORD PTR [esi+84]
  00034	89 44 24 14	 mov	 DWORD PTR $T274153[esp+44], eax

; 528  : 		int nRangeMove = (int)( RANGE_MOVE );
; 529  : 		if( pMover->IsFlyingNPC() )

  00038	8a 87 42 02 00
	00		 mov	 al, BYTE PTR [edi+578]
  0003e	d9 44 24 14	 fld	 DWORD PTR $T274153[esp+44]
  00042	a8 01		 test	 al, 1
  00044	d8 66 5c	 fsub	 DWORD PTR [esi+92]
  00047	89 54 24 10	 mov	 DWORD PTR $T274153[esp+40], edx
  0004b	c7 44 24 28 1e
	00 00 00	 mov	 DWORD PTR _nRangeMove$264813[esp+32], 30 ; 0000001eH
  00053	74 08		 je	 SHORT $L264815

; 530  : 			nRangeMove *= 3;

  00055	c7 44 24 28 5a
	00 00 00	 mov	 DWORD PTR _nRangeMove$264813[esp+32], 90 ; 0000005aH
$L264815:

; 531  : 		if( IsInRange( vTargetTo, (float)( nRangeMove ) ) == FALSE )

  0005d	db 44 24 28	 fild	 DWORD PTR _nRangeMove$264813[esp+32]
  00061	d9 c1		 fld	 ST(1)
  00063	d8 ca		 fmul	 ST(0), ST(2)
  00065	d9 c3		 fld	 ST(3)
  00067	d8 cc		 fmul	 ST(0), ST(4)

; 624  : 
; 625  : 	EndAIHandler( )
; 626  : 	return TRUE;

  00069	de c1		 faddp	 ST(1), ST(0)
  0006b	d9 c1		 fld	 ST(1)
  0006d	d8 ca		 fmul	 ST(0), ST(2)
  0006f	de d9		 fcompp
  00071	dd d8		 fstp	 ST(0)
  00073	df e0		 fnstsw	 ax
  00075	dd d8		 fstp	 ST(0)
  00077	f6 c4 05	 test	 ah, 5
  0007a	dd d8		 fstp	 ST(0)
  0007c	7a 09		 jp	 SHORT $L264817
  0007e	6a 01		 push	 1
  00080	8b ce		 mov	 ecx, esi
  00082	e8 00 00 00 00	 call	 ?DoReturnToBegin@CAIAggro@@IAEXH@Z ; CAIAggro::DoReturnToBegin
$L264817:
  00087	6a 00		 push	 0
  00089	8b ce		 mov	 ecx, esi
  0008b	e8 00 00 00 00	 call	 ?SetStop@CAIAggro@@IAEXK@Z ; CAIAggro::SetStop
  00090	5f		 pop	 edi
  00091	5e		 pop	 esi
  00092	b8 01 00 00 00	 mov	 eax, 1
  00097	5d		 pop	 ebp

; 627  : }

  00098	83 c4 18	 add	 esp, 24			; 00000018H
  0009b	c2 04 00	 ret	 4
$L264809:

; 532  : 			DoReturnToBegin();
; 533  : 		
; 534  : 		SetStop( SEC( 0 ) );
; 535  : 
; 536  : 	///////////////////////////////////////////////////////////////////////////////////////////////////
; 537  : 	OnMessage( AIMSG_INIT_TARGETCLEAR )

  0009e	83 f8 11	 cmp	 eax, 17			; 00000011H
  000a1	75 2b		 jne	 SHORT $L264820

; 538  : 		SetTarget( NULL_ID, 0 );

  000a3	68 00 00 80 3f	 push	 1065353216		; 3f800000H
  000a8	8b cf		 mov	 ecx, edi
  000aa	c7 86 e0 00 00
	00 ff ff ff ff	 mov	 DWORD PTR [esi+224], -1
  000b4	c7 46 34 00 00
	00 00		 mov	 DWORD PTR [esi+52], 0
  000bb	e8 00 00 00 00	 call	 ?SetSpeedFactor@CMover@@QAEXM@Z ; CMover::SetSpeedFactor
  000c0	5f		 pop	 edi
  000c1	5e		 pop	 esi

; 619  : 			}
; 620  : 		}
; 621  : 		
; 622  : 	///////////////////////////////////////////////////////////////////////////////////////////////////
; 623  : 	OnMessage( AIMSG_EXIT )	

  000c2	b8 01 00 00 00	 mov	 eax, 1
  000c7	5d		 pop	 ebp

; 627  : }

  000c8	83 c4 18	 add	 esp, 24			; 00000018H
  000cb	c2 04 00	 ret	 4
$L264820:

; 539  : 			
; 540  : 	///////////////////////////////////////////////////////////////////////////////////////////////////
; 541  : 	OnMessage( AIMSG_PROCESS ) 

  000ce	83 f8 02	 cmp	 eax, 2
  000d1	75 16		 jne	 SHORT $L264822

; 542  : 		MoveProcessStand( msg );

  000d3	55		 push	 ebp
  000d4	8b ce		 mov	 ecx, esi
  000d6	e8 00 00 00 00	 call	 ?MoveProcessStand@CAIAggro@@IAEHABUAIMSG@@@Z ; CAIAggro::MoveProcessStand
  000db	5f		 pop	 edi
  000dc	5e		 pop	 esi

; 619  : 			}
; 620  : 		}
; 621  : 		
; 622  : 	///////////////////////////////////////////////////////////////////////////////////////////////////
; 623  : 	OnMessage( AIMSG_EXIT )	

  000dd	b8 01 00 00 00	 mov	 eax, 1
  000e2	5d		 pop	 ebp

; 627  : }

  000e3	83 c4 18	 add	 esp, 24			; 00000018H
  000e6	c2 04 00	 ret	 4
$L264822:

; 543  : 
; 544  : 	///////////////////////////////////////////////////////////////////////////////////////////////////
; 545  : 	OnMessage( AIMSG_DAMAGE ) 

  000e9	83 f8 08	 cmp	 eax, 8
  000ec	75 68		 jne	 SHORT $L264824

; 546  : 
; 547  : 
; 548  : 		if( m_bReturnToBegin == FALSE )

  000ee	8b 86 c4 00 00
	00		 mov	 eax, DWORD PTR [esi+196]
  000f4	85 c0		 test	 eax, eax
  000f6	0f 85 e1 01 00
	00		 jne	 $L264832

; 549  : 		{
; 550  : 			MoveToDst( msg.dwParam1 );

  000fc	8b 4d 04	 mov	 ecx, DWORD PTR [ebp+4]
  000ff	51		 push	 ecx
  00100	8b ce		 mov	 ecx, esi
  00102	e8 00 00 00 00	 call	 ?MoveToDst@CAIAggro@@IAEXK@Z ; CAIAggro::MoveToDst

; 551  : 			SendAIMsg( AIMSG_SETSTATE, STATE_RAGE, msg.dwParam1 );

  00107	8b 45 04	 mov	 eax, DWORD PTR [ebp+4]
  0010a	8b 16		 mov	 edx, DWORD PTR [esi]
  0010c	6a 00		 push	 0
  0010e	50		 push	 eax
  0010f	6a 07		 push	 7
  00111	6a 04		 push	 4
  00113	8b ce		 mov	 ecx, esi
  00115	ff 52 0c	 call	 DWORD PTR [edx+12]

; 552  : 			m_tmAttack	= TIMEGETTIME + s_tmAttack;	

  00118	8b 15 00 00 00
	00		 mov	 edx, DWORD PTR ?g_tmCurrent@@3KA ; g_tmCurrent
  0011e	8b 0d 00 00 00
	00		 mov	 ecx, DWORD PTR _s_tmAttack
  00124	03 ca		 add	 ecx, edx

; 553  : 			m_vPosDamage	= pMover->GetPos();

  00126	8d 44 24 0c	 lea	 eax, DWORD PTR $T274154[esp+36]
  0012a	89 4e 44	 mov	 DWORD PTR [esi+68], ecx
  0012d	50		 push	 eax
  0012e	8b cf		 mov	 ecx, edi
  00130	e8 00 00 00 00	 call	 ?GetPos@CObj@@QAE?AUD3DXVECTOR3@@XZ ; CObj::GetPos
  00135	8b 08		 mov	 ecx, DWORD PTR [eax]
  00137	83 c6 78	 add	 esi, 120		; 00000078H
  0013a	89 0e		 mov	 DWORD PTR [esi], ecx
  0013c	8b 50 04	 mov	 edx, DWORD PTR [eax+4]
  0013f	89 56 04	 mov	 DWORD PTR [esi+4], edx
  00142	8b 40 08	 mov	 eax, DWORD PTR [eax+8]
  00145	5f		 pop	 edi
  00146	89 46 08	 mov	 DWORD PTR [esi+8], eax
  00149	5e		 pop	 esi

; 619  : 			}
; 620  : 		}
; 621  : 		
; 622  : 	///////////////////////////////////////////////////////////////////////////////////////////////////
; 623  : 	OnMessage( AIMSG_EXIT )	

  0014a	b8 01 00 00 00	 mov	 eax, 1
  0014f	5d		 pop	 ebp

; 627  : }

  00150	83 c4 18	 add	 esp, 24			; 00000018H
  00153	c2 04 00	 ret	 4
$L264824:

; 554  : 		}
; 555  : 
; 556  : 
; 557  : 	///////////////////////////////////////////////////////////////////////////////////////////////////
; 558  : 	OnMessage( AIMSG_DIE )

  00156	83 f8 09	 cmp	 eax, 9
  00159	75 1d		 jne	 SHORT $L264828

; 559  : 		SendAIMsg( AIMSG_EXIT );

  0015b	8b 16		 mov	 edx, DWORD PTR [esi]
  0015d	6a 00		 push	 0
  0015f	6a 00		 push	 0
  00161	6a 00		 push	 0
  00163	6a 12		 push	 18			; 00000012H
  00165	8b ce		 mov	 ecx, esi
  00167	ff 52 0c	 call	 DWORD PTR [edx+12]
  0016a	5f		 pop	 edi
  0016b	5e		 pop	 esi

; 619  : 			}
; 620  : 		}
; 621  : 		
; 622  : 	///////////////////////////////////////////////////////////////////////////////////////////////////
; 623  : 	OnMessage( AIMSG_EXIT )	

  0016c	b8 01 00 00 00	 mov	 eax, 1
  00171	5d		 pop	 ebp

; 627  : }

  00172	83 c4 18	 add	 esp, 24			; 00000018H
  00175	c2 04 00	 ret	 4
$L264828:

; 560  : 
; 561  : 	///////////////////////////////////////////////////////////////////////////////////////////////////
; 562  : 	OnMessage( AIMSG_COLLISION )

  00178	83 f8 0a	 cmp	 eax, 10			; 0000000aH

; 563  : 
; 564  : 	///////////////////////////////////////////////////////////////////////////////////////////////////
; 565  : 	OnMessage( AIMSG_ARRIVAL )

  0017b	0f 84 5c 01 00
	00		 je	 $L264832
  00181	83 f8 0b	 cmp	 eax, 11			; 0000000bH
  00184	0f 85 53 01 00
	00		 jne	 $L264832

; 566  : 		if( pMover->IsFlyingNPC() )		

  0018a	f6 87 42 02 00
	00 01		 test	 BYTE PTR [edi+578], 1
  00191	53		 push	 ebx
  00192	74 44		 je	 SHORT $L264833

; 567  : 		{
; 568  : 			if( msg.dwParam2 == 1 )

  00194	83 7d 08 01	 cmp	 DWORD PTR [ebp+8], 1
  00198	0f 85 3e 01 00
	00		 jne	 $L264843

; 569  : 			{
; 570  : 				int nPattern = 2;
; 571  : 				pMover->SetMovePattern( nPattern );

  0019e	6a 02		 push	 2
  001a0	8b cf		 mov	 ecx, edi
  001a2	e8 00 00 00 00	 call	 ?SetMovePattern@CMover@@QAEXH@Z ; CMover::SetMovePattern

; 572  : 				g_UserMng.AddSetMovePattern( pMover, nPattern, pMover->GetPos(), pMover->GetAngle(), pMover->GetAngleX() );

  001a7	8b 47 1c	 mov	 eax, DWORD PTR [edi+28]
  001aa	8b 4f 18	 mov	 ecx, DWORD PTR [edi+24]
  001ad	50		 push	 eax
  001ae	51		 push	 ecx
  001af	8d 54 24 18	 lea	 edx, DWORD PTR $T274155[esp+48]
  001b3	52		 push	 edx
  001b4	8b cf		 mov	 ecx, edi
  001b6	e8 00 00 00 00	 call	 ?GetPos@CObj@@QAE?AUD3DXVECTOR3@@XZ ; CObj::GetPos
  001bb	50		 push	 eax
  001bc	6a 02		 push	 2
  001be	57		 push	 edi
  001bf	b9 00 00 00 00	 mov	 ecx, OFFSET FLAT:?g_UserMng@@3VCUserMng@@A
  001c4	e8 00 00 00 00	 call	 ?AddSetMovePattern@CUserMng@@QAEXPAVCMover@@HABUD3DXVECTOR3@@MM@Z ; CUserMng::AddSetMovePattern
  001c9	5b		 pop	 ebx
  001ca	5f		 pop	 edi
  001cb	5e		 pop	 esi

; 619  : 			}
; 620  : 		}
; 621  : 		
; 622  : 	///////////////////////////////////////////////////////////////////////////////////////////////////
; 623  : 	OnMessage( AIMSG_EXIT )	

  001cc	b8 01 00 00 00	 mov	 eax, 1
  001d1	5d		 pop	 ebp

; 627  : }

  001d2	83 c4 18	 add	 esp, 24			; 00000018H
  001d5	c2 04 00	 ret	 4
$L264833:

; 573  : 			}
; 574  : 		} 
; 575  : 		else
; 576  : 		{
; 577  : 			if( m_bReturnToBegin )

  001d8	8b 86 c4 00 00
	00		 mov	 eax, DWORD PTR [esi+196]
  001de	85 c0		 test	 eax, eax

; 578  : 			{
; 579  : 				SetStop( xRandom( SEC( 1 ) ) );

  001e0	68 e8 03 00 00	 push	 1000			; 000003e8H
  001e5	74 07		 je	 SHORT $L264838
  001e7	e8 00 00 00 00	 call	 ?xRandom@@YAKK@Z	; xRandom

; 580  : 			}
; 581  : 			else

  001ec	eb 0a		 jmp	 SHORT $L274244
$L264838:

; 582  : 			{
; 583  : 				SetStop( SEC( 5 ) + xRandom( SEC( 1 ) ) );

  001ee	e8 00 00 00 00	 call	 ?xRandom@@YAKK@Z	; xRandom
  001f3	05 88 13 00 00	 add	 eax, 5000		; 00001388H
$L274244:
  001f8	83 c4 04	 add	 esp, 4
  001fb	8b ce		 mov	 ecx, esi
  001fd	50		 push	 eax
  001fe	e8 00 00 00 00	 call	 ?SetStop@CAIAggro@@IAEXK@Z ; CAIAggro::SetStop

; 584  : 			}
; 585  : 
; 586  : 			if( m_bLootMove )

  00203	8b 86 dc 00 00
	00		 mov	 eax, DWORD PTR [esi+220]
  00209	85 c0		 test	 eax, eax
  0020b	0f 84 cb 00 00
	00		 je	 $L264843

; 587  : 			{
; 588  : 				CCtrl *pCtrl = prj.GetCtrl( m_idLootItem );	

  00211	8b 86 f8 00 00
	00		 mov	 eax, DWORD PTR [esi+248]
  00217	50		 push	 eax
  00218	b9 00 00 00 00	 mov	 ecx, OFFSET FLAT:?prj@@3VCProject@@A
  0021d	e8 00 00 00 00	 call	 ?GetCtrl@CProject@@QAEPAVCCtrl@@K@Z ; CProject::GetCtrl
  00222	8b d8		 mov	 ebx, eax

; 589  : 				if( IsValidObj(pCtrl) )

  00224	53		 push	 ebx
  00225	e8 00 00 00 00	 call	 ?IsValidObj@@YAHPAVCObj@@@Z ; IsValidObj
  0022a	83 c4 04	 add	 esp, 4
  0022d	85 c0		 test	 eax, eax
  0022f	0f 84 93 00 00
	00		 je	 $L274242

; 590  : 				{
; 591  : 					CItem *pItem = (CItem *)pCtrl;
; 592  : 					D3DXVECTOR3 vDist = pCtrl->GetPos() - pMover->GetPos();

  00235	8d 4c 24 10	 lea	 ecx, DWORD PTR $T274157[esp+40]
  00239	51		 push	 ecx
  0023a	8b cf		 mov	 ecx, edi
  0023c	e8 00 00 00 00	 call	 ?GetPos@CObj@@QAE?AUD3DXVECTOR3@@XZ ; CObj::GetPos
  00241	8d 54 24 1c	 lea	 edx, DWORD PTR $T274156[esp+40]
  00245	52		 push	 edx
  00246	8b cb		 mov	 ecx, ebx
  00248	8b e8		 mov	 ebp, eax
  0024a	e8 00 00 00 00	 call	 ?GetPos@CObj@@QAE?AUD3DXVECTOR3@@XZ ; CObj::GetPos
  0024f	d9 00		 fld	 DWORD PTR [eax]
  00251	d8 65 00	 fsub	 DWORD PTR [ebp]
  00254	d9 40 04	 fld	 DWORD PTR [eax+4]
  00257	d8 65 04	 fsub	 DWORD PTR [ebp+4]
  0025a	d9 40 08	 fld	 DWORD PTR [eax+8]
  0025d	d8 65 08	 fsub	 DWORD PTR [ebp+8]

; 593  : 					FLOAT fDistSq = D3DXVec3LengthSq( &vDist );

  00260	d9 c0		 fld	 ST(0)
  00262	d8 c9		 fmul	 ST(0), ST(1)
  00264	d9 c2		 fld	 ST(2)
  00266	d8 cb		 fmul	 ST(0), ST(3)

; 624  : 
; 625  : 	EndAIHandler( )
; 626  : 	return TRUE;

  00268	de c1		 faddp	 ST(1), ST(0)
  0026a	d9 c3		 fld	 ST(3)
  0026c	d8 cc		 fmul	 ST(0), ST(4)
  0026e	de c1		 faddp	 ST(1), ST(0)
  00270	d8 1d 00 00 00
	00		 fcomp	 DWORD PTR __real@41100000
  00276	dd d8		 fstp	 ST(0)
  00278	df e0		 fnstsw	 ax
  0027a	dd d8		 fstp	 ST(0)
  0027c	f6 c4 05	 test	 ah, 5
  0027f	dd d8		 fstp	 ST(0)
  00281	7a 45		 jp	 SHORT $L274242
  00283	f6 43 04 01	 test	 BYTE PTR [ebx+4], 1
  00287	75 53		 jne	 SHORT $L264843
  00289	8b ab 34 02 00
	00		 mov	 ebp, DWORD PTR [ebx+564]
  0028f	8b cb		 mov	 ecx, ebx
  00291	e8 00 00 00 00	 call	 ?GetPropA@CItem@@QAEPAUItemProp@@XZ ; CItem::GetPropA
  00296	83 78 70 0c	 cmp	 DWORD PTR [eax+112], 12	; 0000000cH
  0029a	75 13		 jne	 SHORT $L264859
  0029c	6a 01		 push	 1
  0029e	8b cd		 mov	 ecx, ebp
  002a0	e8 00 00 00 00	 call	 ?GetGold@CItemElem@@QAEHXZ ; CItemElem::GetGold
  002a5	50		 push	 eax
  002a6	8b cf		 mov	 ecx, edi
  002a8	e8 00 00 00 00	 call	 ?AddGold@CMover@@QAEHHH@Z ; CMover::AddGold
  002ad	eb 12		 jmp	 SHORT $L274241
$L264859:

; 594  : 					if( fDistSq < 3.0f * 3.0f )	
; 595  : 					{
; 596  : 						if( pItem->IsDelete() )
; 597  : 							return TRUE;
; 598  : 						CItemElem* pItemElem = (CItemElem *)pItem->m_pItemBase;
; 599  : 						ItemProp *pItemProp = pItem->GetProp();
; 600  : 						BOOL bSuccess = FALSE;
; 601  : 						if( pItemProp->dwItemKind1 == IK1_GOLD )	
; 602  : 						{
; 603  : 							pMover->AddGold( pItemElem->GetGold() );	
; 604  : 							bSuccess = TRUE;
; 605  : 						} 
; 606  : 						else
; 607  : 						{
; 608  : 							bSuccess = pMover->CreateItem( pItemElem );		

  002af	6a 00		 push	 0
  002b1	6a 00		 push	 0
  002b3	6a 00		 push	 0
  002b5	55		 push	 ebp
  002b6	8b cf		 mov	 ecx, edi
  002b8	e8 00 00 00 00	 call	 ?CreateItem@CMover@@QAEHPAVCItemBase@@PAEPAFE@Z ; CMover::CreateItem

; 609  : 						}
; 610  : 
; 611  : 						if( bSuccess )

  002bd	85 c0		 test	 eax, eax
  002bf	74 07		 je	 SHORT $L274242
$L274241:

; 612  : 						{
; 613  : 							pItem->Delete();

  002c1	8b cb		 mov	 ecx, ebx
  002c3	e8 00 00 00 00	 call	 ?Delete@CObj@@QAEXXZ	; CObj::Delete
$L274242:

; 614  : 						}
; 615  : 					}
; 616  : 				}
; 617  : 				m_bLootMove = FALSE;

  002c8	c7 86 dc 00 00
	00 00 00 00 00	 mov	 DWORD PTR [esi+220], 0

; 618  : 				m_idLootItem = NULL_ID;

  002d2	c7 86 f8 00 00
	00 ff ff ff ff	 mov	 DWORD PTR [esi+248], -1
$L264843:
  002dc	5b		 pop	 ebx
$L264832:
  002dd	5f		 pop	 edi
  002de	5e		 pop	 esi

; 619  : 			}
; 620  : 		}
; 621  : 		
; 622  : 	///////////////////////////////////////////////////////////////////////////////////////////////////
; 623  : 	OnMessage( AIMSG_EXIT )	

  002df	b8 01 00 00 00	 mov	 eax, 1
  002e4	5d		 pop	 ebp

; 627  : }

  002e5	83 c4 18	 add	 esp, 24			; 00000018H
  002e8	c2 04 00	 ret	 4
?StateStand@CAIAggro@@IAEHABUAIMSG@@@Z ENDP		; CAIAggro::StateStand
_TEXT	ENDS
PUBLIC	?StatePatrol@CAIAggro@@IAEHABUAIMSG@@@Z		; CAIAggro::StatePatrol
EXTRN	?GetInstance@CPatrolPath@@SAPAV1@XZ:NEAR	; CPatrolPath::GetInstance
EXTRN	?AddMotionArrive@CUserMng@@QAEXPAVCMover@@W4OBJMSG@@@Z:NEAR ; CUserMng::AddMotionArrive
EXTRN	?GetNextPosInfo@CPatrolPath@@QAEXPAVCObj@@UD3DXVECTOR3@@AAU3@AAU_VECINFO@@@Z:NEAR ; CPatrolPath::GetNextPosInfo
; Function compile flags: /Ogty
;	COMDAT ?StatePatrol@CAIAggro@@IAEHABUAIMSG@@@Z
_TEXT	SEGMENT
$T274250 = -12						; size = 12
$T274248 = -12						; size = 12
_nRangeMove$264876 = 8					; size = 4
_msg$ = 8						; size = 4
?StatePatrol@CAIAggro@@IAEHABUAIMSG@@@Z PROC NEAR	; CAIAggro::StatePatrol, COMDAT
; _this$ = ecx

; 629  : {

  00000	83 ec 0c	 sub	 esp, 12			; 0000000cH
  00003	53		 push	 ebx

; 630  : 	CMover* pMover = GetMover();
; 631  : 	CWorld* pWorld = GetWorld();
; 632  : 
; 633  : 	BeginAIHandler( )
; 634  : 
; 635  : 	///////////////////////////////////////////////////////////////////////////////////////////////////
; 636  : 	OnMessage( AIMSG_INIT ) 

  00004	8b 5c 24 14	 mov	 ebx, DWORD PTR _msg$[esp+12]
  00008	8b 03		 mov	 eax, DWORD PTR [ebx]
  0000a	83 f8 01	 cmp	 eax, 1
  0000d	55		 push	 ebp
  0000e	56		 push	 esi
  0000f	8b f1		 mov	 esi, ecx
  00011	57		 push	 edi
  00012	8b 7e 30	 mov	 edi, DWORD PTR [esi+48]
  00015	0f 85 06 01 00
	00		 jne	 $L264872

; 637  : 		D3DXVECTOR3	vTargetTo	= pMover->GetPos() - m_vPosBegin;

  0001b	8d 87 60 01 00
	00		 lea	 eax, DWORD PTR [edi+352]
  00021	8b 08		 mov	 ecx, DWORD PTR [eax]
  00023	8b 50 04	 mov	 edx, DWORD PTR [eax+4]
  00026	8b 40 08	 mov	 eax, DWORD PTR [eax+8]
  00029	89 4c 24 10	 mov	 DWORD PTR $T274248[esp+28], ecx
  0002d	d9 44 24 10	 fld	 DWORD PTR $T274248[esp+28]
  00031	d8 66 54	 fsub	 DWORD PTR [esi+84]
  00034	8d 5e 54	 lea	 ebx, DWORD PTR [esi+84]
  00037	89 44 24 18	 mov	 DWORD PTR $T274248[esp+36], eax
  0003b	d9 44 24 18	 fld	 DWORD PTR $T274248[esp+36]

; 638  : 		int nRangeMove	= (int)( RANGE_MOVE );
; 639  : 		if( pMover->IsFlyingNPC() )

  0003f	8a 87 42 02 00
	00		 mov	 al, BYTE PTR [edi+578]
  00045	d8 63 08	 fsub	 DWORD PTR [ebx+8]
  00048	a8 01		 test	 al, 1
  0004a	89 54 24 14	 mov	 DWORD PTR $T274248[esp+32], edx
  0004e	c7 44 24 20 1e
	00 00 00	 mov	 DWORD PTR _nRangeMove$264876[esp+24], 30 ; 0000001eH
  00056	74 08		 je	 SHORT $L264878

; 640  : 			nRangeMove	*= 3;

  00058	c7 44 24 20 5a
	00 00 00	 mov	 DWORD PTR _nRangeMove$264876[esp+24], 90 ; 0000005aH
$L264878:

; 641  : 		if( IsInRange( vTargetTo, (float)( nRangeMove ) ) == FALSE )

  00060	db 44 24 20	 fild	 DWORD PTR _nRangeMove$264876[esp+24]
  00064	d9 c1		 fld	 ST(1)
  00066	d8 ca		 fmul	 ST(0), ST(2)
  00068	d9 c3		 fld	 ST(3)
  0006a	d8 cc		 fmul	 ST(0), ST(4)

; 694  : 
; 695  : 	EndAIHandler( )
; 696  : 	return TRUE;

  0006c	de c1		 faddp	 ST(1), ST(0)
  0006e	d9 c1		 fld	 ST(1)
  00070	d8 ca		 fmul	 ST(0), ST(2)
  00072	de d9		 fcompp
  00074	dd d8		 fstp	 ST(0)
  00076	df e0		 fnstsw	 ax
  00078	dd d8		 fstp	 ST(0)
  0007a	f6 c4 05	 test	 ah, 5
  0007d	dd d8		 fstp	 ST(0)
  0007f	7a 09		 jp	 SHORT $L264880
  00081	6a 01		 push	 1
  00083	8b ce		 mov	 ecx, esi
  00085	e8 00 00 00 00	 call	 ?DoReturnToBegin@CAIAggro@@IAEXH@Z ; CAIAggro::DoReturnToBegin
$L264880:
  0008a	6a 00		 push	 0
  0008c	8b ce		 mov	 ecx, esi
  0008e	e8 00 00 00 00	 call	 ?SetStop@CAIAggro@@IAEXK@Z ; CAIAggro::SetStop
  00093	83 bf 94 01 00
	00 ff		 cmp	 DWORD PTR [edi+404], -1
  0009a	0f 84 e3 01 00
	00		 je	 $L264900
  000a0	8b 86 c4 00 00
	00		 mov	 eax, DWORD PTR [esi+196]
  000a6	85 c0		 test	 eax, eax
  000a8	0f 85 d5 01 00
	00		 jne	 $L264900
  000ae	8b 87 60 01 00
	00		 mov	 eax, DWORD PTR [edi+352]
  000b4	8d 8e 88 00 00
	00		 lea	 ecx, DWORD PTR [esi+136]
  000ba	51		 push	 ecx
  000bb	8b 8f 64 01 00
	00		 mov	 ecx, DWORD PTR [edi+356]
  000c1	8d 6e 60	 lea	 ebp, DWORD PTR [esi+96]
  000c4	55		 push	 ebp
  000c5	83 ec 0c	 sub	 esp, 12			; 0000000cH
  000c8	8b d4		 mov	 edx, esp
  000ca	89 02		 mov	 DWORD PTR [edx], eax
  000cc	8b 87 68 01 00
	00		 mov	 eax, DWORD PTR [edi+360]
  000d2	89 4a 04	 mov	 DWORD PTR [edx+4], ecx
  000d5	57		 push	 edi
  000d6	89 42 08	 mov	 DWORD PTR [edx+8], eax
  000d9	e8 00 00 00 00	 call	 ?GetInstance@CPatrolPath@@SAPAV1@XZ ; CPatrolPath::GetInstance
  000de	8b c8		 mov	 ecx, eax
  000e0	e8 00 00 00 00	 call	 ?GetNextPosInfo@CPatrolPath@@QAEXPAVCObj@@UD3DXVECTOR3@@AAU3@AAU_VECINFO@@@Z ; CPatrolPath::GetNextPosInfo
  000e5	8b 8e 9c 00 00
	00		 mov	 ecx, DWORD PTR [esi+156]
  000eb	f7 d9		 neg	 ecx
  000ed	1b c9		 sbb	 ecx, ecx
  000ef	83 e1 cc	 and	 ecx, -52		; ffffffccH
  000f2	83 c1 3a	 add	 ecx, 58			; 0000003aH
  000f5	51		 push	 ecx
  000f6	57		 push	 edi
  000f7	b9 00 00 00 00	 mov	 ecx, OFFSET FLAT:?g_UserMng@@3VCUserMng@@A
  000fc	e8 00 00 00 00	 call	 ?AddMotionArrive@CUserMng@@QAEXPAVCMover@@W4OBJMSG@@@Z ; CUserMng::AddMotionArrive
  00101	8b 55 00	 mov	 edx, DWORD PTR [ebp]
  00104	8b 45 04	 mov	 eax, DWORD PTR [ebp+4]
  00107	8b 4d 08	 mov	 ecx, DWORD PTR [ebp+8]
  0010a	89 13		 mov	 DWORD PTR [ebx], edx
  0010c	89 43 04	 mov	 DWORD PTR [ebx+4], eax
  0010f	89 4b 08	 mov	 DWORD PTR [ebx+8], ecx
  00112	b8 01 00 00 00	 mov	 eax, 1

; 697  : }

  00117	5f		 pop	 edi
  00118	5e		 pop	 esi
  00119	5d		 pop	 ebp
  0011a	5b		 pop	 ebx
  0011b	83 c4 0c	 add	 esp, 12			; 0000000cH
  0011e	c2 04 00	 ret	 4
$L264872:

; 642  : 			DoReturnToBegin();
; 643  : 		SetStop( SEC( 0 ) );
; 644  : 		if( pMover->m_dwPatrolIndex != NULL_ID && m_bReturnToBegin == FALSE )
; 645  : 		{
; 646  : 			CPatrolPath::GetInstance()->GetNextPosInfo( (CObj*)pMover, pMover->GetPos(), m_vDestPos, m_vecPatrolInfo );
; 647  : 			g_UserMng.AddMotionArrive( pMover, (m_vecPatrolInfo.m_dwDelay == 0 ) ? OBJMSG_STOP_RUN: OBJMSG_STOP );
; 648  : 			m_vPosBegin	= m_vDestPos;			
; 649  : 		}
; 650  : 
; 651  : 	///////////////////////////////////////////////////////////////////////////////////////////////////
; 652  : 	OnMessage( AIMSG_INIT_TARGETCLEAR )

  00121	83 f8 11	 cmp	 eax, 17			; 00000011H
  00124	75 2c		 jne	 SHORT $L264886

; 653  : 		SetTarget( NULL_ID, 0 );

  00126	68 00 00 80 3f	 push	 1065353216		; 3f800000H
  0012b	8b cf		 mov	 ecx, edi
  0012d	c7 86 e0 00 00
	00 ff ff ff ff	 mov	 DWORD PTR [esi+224], -1
  00137	c7 46 34 00 00
	00 00		 mov	 DWORD PTR [esi+52], 0
  0013e	e8 00 00 00 00	 call	 ?SetSpeedFactor@CMover@@QAEXM@Z ; CMover::SetSpeedFactor

; 690  : 	}
; 691  : 		
; 692  : 	///////////////////////////////////////////////////////////////////////////////////////////////////
; 693  : 	OnMessage( AIMSG_EXIT )	

  00143	b8 01 00 00 00	 mov	 eax, 1

; 697  : }

  00148	5f		 pop	 edi
  00149	5e		 pop	 esi
  0014a	5d		 pop	 ebp
  0014b	5b		 pop	 ebx
  0014c	83 c4 0c	 add	 esp, 12			; 0000000cH
  0014f	c2 04 00	 ret	 4
$L264886:

; 654  : 			
; 655  : 	///////////////////////////////////////////////////////////////////////////////////////////////////
; 656  : 	OnMessage( AIMSG_PROCESS ) 

  00152	83 f8 02	 cmp	 eax, 2
  00155	75 17		 jne	 SHORT $L264888

; 657  : 		MoveProcessPatrol( msg );

  00157	53		 push	 ebx
  00158	8b ce		 mov	 ecx, esi
  0015a	e8 00 00 00 00	 call	 ?MoveProcessPatrol@CAIAggro@@IAEHABUAIMSG@@@Z ; CAIAggro::MoveProcessPatrol

; 690  : 	}
; 691  : 		
; 692  : 	///////////////////////////////////////////////////////////////////////////////////////////////////
; 693  : 	OnMessage( AIMSG_EXIT )	

  0015f	b8 01 00 00 00	 mov	 eax, 1

; 697  : }

  00164	5f		 pop	 edi
  00165	5e		 pop	 esi
  00166	5d		 pop	 ebp
  00167	5b		 pop	 ebx
  00168	83 c4 0c	 add	 esp, 12			; 0000000cH
  0016b	c2 04 00	 ret	 4
$L264888:

; 658  : 
; 659  : 	///////////////////////////////////////////////////////////////////////////////////////////////////
; 660  : 	OnMessage( AIMSG_TIMEOUT )

  0016e	83 f8 03	 cmp	 eax, 3

; 661  : 		
; 662  : 		
; 663  : 	///////////////////////////////////////////////////////////////////////////////////////////////////			
; 664  : 	OnMessage( AIMSG_DAMAGE ) 

  00171	0f 84 0c 01 00
	00		 je	 $L264900
  00177	83 f8 08	 cmp	 eax, 8
  0017a	75 68		 jne	 SHORT $L264892

; 665  : 
; 666  : 		if( m_bReturnToBegin == FALSE )

  0017c	8b 86 c4 00 00
	00		 mov	 eax, DWORD PTR [esi+196]
  00182	85 c0		 test	 eax, eax
  00184	0f 85 f9 00 00
	00		 jne	 $L264900

; 667  : 		{
; 668  : 			MoveToDst( msg.dwParam1 );

  0018a	8b 53 04	 mov	 edx, DWORD PTR [ebx+4]
  0018d	52		 push	 edx
  0018e	8b ce		 mov	 ecx, esi
  00190	e8 00 00 00 00	 call	 ?MoveToDst@CAIAggro@@IAEXK@Z ; CAIAggro::MoveToDst

; 669  : 			SendAIMsg( AIMSG_SETSTATE, STATE_RAGE, msg.dwParam1 );

  00195	8b 4b 04	 mov	 ecx, DWORD PTR [ebx+4]
  00198	8b 06		 mov	 eax, DWORD PTR [esi]
  0019a	6a 00		 push	 0
  0019c	51		 push	 ecx
  0019d	6a 07		 push	 7
  0019f	6a 04		 push	 4
  001a1	8b ce		 mov	 ecx, esi
  001a3	ff 50 0c	 call	 DWORD PTR [eax+12]

; 670  : 			m_tmAttack	= TIMEGETTIME + s_tmAttack;

  001a6	8b 15 00 00 00
	00		 mov	 edx, DWORD PTR ?g_tmCurrent@@3KA ; g_tmCurrent
  001ac	a1 00 00 00 00	 mov	 eax, DWORD PTR _s_tmAttack

; 671  : 			m_vPosDamage	= pMover->GetPos();

  001b1	8d 4c 24 10	 lea	 ecx, DWORD PTR $T274250[esp+28]
  001b5	03 c2		 add	 eax, edx
  001b7	51		 push	 ecx
  001b8	8b cf		 mov	 ecx, edi
  001ba	89 46 44	 mov	 DWORD PTR [esi+68], eax
  001bd	e8 00 00 00 00	 call	 ?GetPos@CObj@@QAE?AUD3DXVECTOR3@@XZ ; CObj::GetPos
  001c2	8b 10		 mov	 edx, DWORD PTR [eax]
  001c4	83 c6 78	 add	 esi, 120		; 00000078H
  001c7	89 16		 mov	 DWORD PTR [esi], edx
  001c9	8b 48 04	 mov	 ecx, DWORD PTR [eax+4]
  001cc	89 4e 04	 mov	 DWORD PTR [esi+4], ecx
  001cf	8b 50 08	 mov	 edx, DWORD PTR [eax+8]
  001d2	89 56 08	 mov	 DWORD PTR [esi+8], edx

; 690  : 	}
; 691  : 		
; 692  : 	///////////////////////////////////////////////////////////////////////////////////////////////////
; 693  : 	OnMessage( AIMSG_EXIT )	

  001d5	b8 01 00 00 00	 mov	 eax, 1

; 697  : }

  001da	5f		 pop	 edi
  001db	5e		 pop	 esi
  001dc	5d		 pop	 ebp
  001dd	5b		 pop	 ebx
  001de	83 c4 0c	 add	 esp, 12			; 0000000cH
  001e1	c2 04 00	 ret	 4
$L264892:

; 672  : 		}
; 673  : 
; 674  : 
; 675  : 	///////////////////////////////////////////////////////////////////////////////////////////////////
; 676  : 	OnMessage( AIMSG_DIE )	

  001e4	83 f8 09	 cmp	 eax, 9
  001e7	75 1e		 jne	 SHORT $L264896

; 677  : 		SendAIMsg( AIMSG_EXIT );

  001e9	8b 06		 mov	 eax, DWORD PTR [esi]
  001eb	6a 00		 push	 0
  001ed	6a 00		 push	 0
  001ef	6a 00		 push	 0
  001f1	6a 12		 push	 18			; 00000012H
  001f3	8b ce		 mov	 ecx, esi
  001f5	ff 50 0c	 call	 DWORD PTR [eax+12]

; 690  : 	}
; 691  : 		
; 692  : 	///////////////////////////////////////////////////////////////////////////////////////////////////
; 693  : 	OnMessage( AIMSG_EXIT )	

  001f8	b8 01 00 00 00	 mov	 eax, 1

; 697  : }

  001fd	5f		 pop	 edi
  001fe	5e		 pop	 esi
  001ff	5d		 pop	 ebp
  00200	5b		 pop	 ebx
  00201	83 c4 0c	 add	 esp, 12			; 0000000cH
  00204	c2 04 00	 ret	 4
$L264896:

; 678  : 
; 679  : 	///////////////////////////////////////////////////////////////////////////////////////////////////
; 680  : 	OnMessage( AIMSG_COLLISION )

  00207	83 f8 0a	 cmp	 eax, 10			; 0000000aH

; 681  : 
; 682  : 	///////////////////////////////////////////////////////////////////////////////////////////////////
; 683  : 	OnMessage( AIMSG_ARRIVAL )

  0020a	74 77		 je	 SHORT $L264900
  0020c	83 f8 0b	 cmp	 eax, 11			; 0000000bH
  0020f	75 72		 jne	 SHORT $L264900

; 684  : 	{
; 685  : 		g_UserMng.AddMotionArrive( pMover, (m_vecPatrolInfo.m_dwDelay == 0 ) ? OBJMSG_STOP_RUN: OBJMSG_STOP );

  00211	8b 8e 9c 00 00
	00		 mov	 ecx, DWORD PTR [esi+156]
  00217	f7 d9		 neg	 ecx
  00219	1b c9		 sbb	 ecx, ecx
  0021b	83 e1 cc	 and	 ecx, -52		; ffffffccH
  0021e	83 c1 3a	 add	 ecx, 58			; 0000003aH
  00221	51		 push	 ecx
  00222	57		 push	 edi
  00223	b9 00 00 00 00	 mov	 ecx, OFFSET FLAT:?g_UserMng@@3VCUserMng@@A
  00228	e8 00 00 00 00	 call	 ?AddMotionArrive@CUserMng@@QAEXPAVCMover@@W4OBJMSG@@@Z ; CUserMng::AddMotionArrive

; 686  : 		SetStop( SEC(m_vecPatrolInfo.m_dwDelay) );

  0022d	8b 96 9c 00 00
	00		 mov	 edx, DWORD PTR [esi+156]
  00233	69 d2 e8 03 00
	00		 imul	 edx, 1000		; 000003e8H
  00239	52		 push	 edx
  0023a	8b ce		 mov	 ecx, esi
  0023c	e8 00 00 00 00	 call	 ?SetStop@CAIAggro@@IAEXK@Z ; CAIAggro::SetStop

; 687  : 		D3DXVECTOR3 v3Pos = m_vDestPos;
; 688  : 		CPatrolPath::GetInstance()->GetNextPosInfo( (CObj*)pMover, v3Pos, m_vDestPos, m_vecPatrolInfo );

  00241	8d 86 88 00 00
	00		 lea	 eax, DWORD PTR [esi+136]
  00247	50		 push	 eax
  00248	8d 5e 60	 lea	 ebx, DWORD PTR [esi+96]
  0024b	53		 push	 ebx
  0024c	83 ec 0c	 sub	 esp, 12			; 0000000cH
  0024f	8b cb		 mov	 ecx, ebx
  00251	8b 01		 mov	 eax, DWORD PTR [ecx]
  00253	8b d4		 mov	 edx, esp
  00255	89 02		 mov	 DWORD PTR [edx], eax
  00257	8b 41 04	 mov	 eax, DWORD PTR [ecx+4]
  0025a	8b 49 08	 mov	 ecx, DWORD PTR [ecx+8]
  0025d	89 42 04	 mov	 DWORD PTR [edx+4], eax
  00260	57		 push	 edi
  00261	89 4a 08	 mov	 DWORD PTR [edx+8], ecx
  00264	e8 00 00 00 00	 call	 ?GetInstance@CPatrolPath@@SAPAV1@XZ ; CPatrolPath::GetInstance
  00269	8b c8		 mov	 ecx, eax
  0026b	e8 00 00 00 00	 call	 ?GetNextPosInfo@CPatrolPath@@QAEXPAVCObj@@UD3DXVECTOR3@@AAU3@AAU_VECINFO@@@Z ; CPatrolPath::GetNextPosInfo

; 689  : 		m_vPosBegin = m_vDestPos;			

  00270	8b 13		 mov	 edx, DWORD PTR [ebx]
  00272	8b 43 04	 mov	 eax, DWORD PTR [ebx+4]
  00275	8b 4b 08	 mov	 ecx, DWORD PTR [ebx+8]
  00278	83 c6 54	 add	 esi, 84			; 00000054H
  0027b	89 16		 mov	 DWORD PTR [esi], edx
  0027d	89 46 04	 mov	 DWORD PTR [esi+4], eax
  00280	89 4e 08	 mov	 DWORD PTR [esi+8], ecx
$L264900:

; 697  : }

  00283	5f		 pop	 edi
  00284	5e		 pop	 esi
  00285	5d		 pop	 ebp
  00286	b8 01 00 00 00	 mov	 eax, 1
  0028b	5b		 pop	 ebx
  0028c	83 c4 0c	 add	 esp, 12			; 0000000cH
  0028f	c2 04 00	 ret	 4
?StatePatrol@CAIAggro@@IAEHABUAIMSG@@@Z ENDP		; CAIAggro::StatePatrol
_TEXT	ENDS
PUBLIC	?GetAtkRange@CAIAggro@@IAEKK@Z			; CAIAggro::GetAtkRange
; Function compile flags: /Ogty
;	COMDAT ?GetAtkRange@CAIAggro@@IAEKK@Z
_TEXT	SEGMENT
_dwAtkMethod$ = 8					; size = 4
?GetAtkRange@CAIAggro@@IAEKK@Z PROC NEAR		; CAIAggro::GetAtkRange, COMDAT
; _this$ = ecx

; 1076 : 	ItemProp* pItemProp = GetAtkProp( dwAtkMethod );

  00000	8b 44 24 04	 mov	 eax, DWORD PTR _dwAtkMethod$[esp-4]
  00004	50		 push	 eax
  00005	e8 00 00 00 00	 call	 ?GetAtkProp@CAIAggro@@IAEPAUItemProp@@K@Z ; CAIAggro::GetAtkProp

; 1077 : #ifdef _DEBUG
; 1078 : 	if( pItemProp == NULL )
; 1079 : 	{
; 1080 : 		Error( "CAIAggro::GetAtkRange : ItemProp->dwAtk%d NULL. (%s)", dwAtkMethod, GetMover()->GetName() );
; 1081 : 	}
; 1082 : #endif
; 1083 : 	return pItemProp->dwAttackRange;

  0000a	8b 80 38 01 00
	00		 mov	 eax, DWORD PTR [eax+312]

; 1084 : }

  00010	c2 04 00	 ret	 4
?GetAtkRange@CAIAggro@@IAEKK@Z ENDP			; CAIAggro::GetAtkRange
_TEXT	ENDS
PUBLIC	?SubAttackChance@CAIAggro@@IAEHABUAIMSG@@PAVCMover@@@Z ; CAIAggro::SubAttackChance
PUBLIC	__real@3c23d70a
EXTRN	?IsRangeObj@CObj@@QAEHPAV1@M@Z:NEAR		; CObj::IsRangeObj
EXTRN	?IncManaPoint@CMover@@QAEXH@Z:NEAR		; CMover::IncManaPoint
EXTRN	?GetManaPoint@CMover@@QAEHXZ:NEAR		; CMover::GetManaPoint
EXTRN	?GetMaxManaPoint@CMover@@QAEHXZ:NEAR		; CMover::GetMaxManaPoint
EXTRN	?AddCreateSfxObj@CUserMng@@QAEXPAVCCtrl@@KMMMH@Z:NEAR ; CUserMng::AddCreateSfxObj
;	COMDAT __real@3c23d70a
; File c:\documents and settings\test\mes documents\source\virtuos_v17\build\program\_common\xutil.h
CONST	SEGMENT
__real@3c23d70a DD 03c23d70ar			; 0.01
; Function compile flags: /Ogty
; File c:\documents and settings\test\mes documents\source\virtuos_v17\build\program\_aiinterface\aiaggro.cpp
CONST	ENDS
;	COMDAT ?SubAttackChance@CAIAggro@@IAEHABUAIMSG@@PAVCMover@@@Z
_TEXT	SEGMENT
_nTargetJob$ = -44					; size = 4
tv509 = -40						; size = 4
tv460 = -40						; size = 4
_fRange$265284 = -40					; size = 4
_bAttack$ = -40						; size = 4
_vTargetTo$ = -36					; size = 12
$T274313 = -24						; size = 12
$T274317 = -12						; size = 12
$T274316 = -12						; size = 12
$T274315 = -12						; size = 12
$T274314 = -12						; size = 12
_msg$ = 8						; size = 4
_pTarget$ = 12						; size = 4
?SubAttackChance@CAIAggro@@IAEHABUAIMSG@@PAVCMover@@@Z PROC NEAR ; CAIAggro::SubAttackChance, COMDAT
; _this$ = ecx

; 1153 : 	CMover* pMover = GetMover();
; 1154 : 	CWorld* pWorld = GetWorld();
; 1155 : 	MoverProp *pProp = pMover->GetProp();

  00000	a1 d0 01 00 00	 mov	 eax, DWORD PTR ?prj@@3VCProject@@A+464
  00005	83 ec 2c	 sub	 esp, 44			; 0000002cH
  00008	53		 push	 ebx
  00009	55		 push	 ebp
  0000a	56		 push	 esi
  0000b	8b d9		 mov	 ebx, ecx
  0000d	57		 push	 edi
  0000e	8b 7b 30	 mov	 edi, DWORD PTR [ebx+48]
  00011	8b af 74 01 00
	00		 mov	 ebp, DWORD PTR [edi+372]
  00017	85 ed		 test	 ebp, ebp
  00019	7c 13		 jl	 SHORT $L274356
  0001b	3b e8		 cmp	 ebp, eax
  0001d	7d 0f		 jge	 SHORT $L274356
  0001f	a1 d4 01 00 00	 mov	 eax, DWORD PTR ?prj@@3VCProject@@A+468
  00024	69 ed d8 06 00
	00		 imul	 ebp, 1752		; 000006d8H
  0002a	03 e8		 add	 ebp, eax
  0002c	eb 18		 jmp	 SHORT $L274351
$L274356:
  0002e	55		 push	 ebp
  0002f	50		 push	 eax
  00030	6a 00		 push	 0
  00032	68 00 00 00 00	 push	 OFFSET FLAT:??_C@_0BJ@GKPOBPPI@GetMoverProp?5range_error?$AA@
  00037	68 00 00 00 00	 push	 OFFSET FLAT:??_C@_0BM@HMFGHCP@?$CFs?5min?3?$CFd?0?5max?3?$CFd?0?5index?3?$CFd?$AA@
  0003c	e8 00 00 00 00	 call	 ?Error@@YAPBDPBDZZ	; Error
  00041	83 c4 14	 add	 esp, 20			; 00000014H
  00044	33 ed		 xor	 ebp, ebp
$L274351:

; 1156 : 	int		nTargetJob = 0;
; 1157 : 	if( pTarget->IsPlayer() )

  00046	8b 4c 24 44	 mov	 ecx, DWORD PTR _pTarget$[esp+56]
  0004a	8b 81 34 02 00
	00		 mov	 eax, DWORD PTR [ecx+564]
  00050	85 c0		 test	 eax, eax
  00052	c7 44 24 10 00
	00 00 00	 mov	 DWORD PTR _nTargetJob$[esp+60], 0
  0005a	74 09		 je	 SHORT $L265252

; 1158 : 		nTargetJob = pTarget->GetJob();		

  0005c	e8 00 00 00 00	 call	 ?GetJob@CMover@@QAEHXZ	; CMover::GetJob
  00061	89 44 24 10	 mov	 DWORD PTR _nTargetJob$[esp+60], eax
$L265252:

; 1159 : 	
; 1160 : 	BOOL bAttack = TRUE;
; 1161 : 	D3DXVECTOR3	vTargetTo = pTarget->GetPos() - pMover->GetPos();	

  00065	8d b7 60 01 00
	00		 lea	 esi, DWORD PTR [edi+352]
  0006b	8b c6		 mov	 eax, esi
  0006d	8b 08		 mov	 ecx, DWORD PTR [eax]
  0006f	8b 50 04	 mov	 edx, DWORD PTR [eax+4]
  00072	8b 40 08	 mov	 eax, DWORD PTR [eax+8]
  00075	89 4c 24 30	 mov	 DWORD PTR $T274314[esp+60], ecx
  00079	8b 4c 24 44	 mov	 ecx, DWORD PTR _pTarget$[esp+56]
  0007d	81 c1 60 01 00
	00		 add	 ecx, 352		; 00000160H
  00083	89 54 24 34	 mov	 DWORD PTR $T274314[esp+64], edx
  00087	8b 11		 mov	 edx, DWORD PTR [ecx]
  00089	89 44 24 38	 mov	 DWORD PTR $T274314[esp+68], eax
  0008d	8b 41 04	 mov	 eax, DWORD PTR [ecx+4]
  00090	8b 49 08	 mov	 ecx, DWORD PTR [ecx+8]
  00093	89 54 24 24	 mov	 DWORD PTR $T274313[esp+60], edx
  00097	d9 44 24 24	 fld	 DWORD PTR $T274313[esp+60]
  0009b	d8 64 24 30	 fsub	 DWORD PTR $T274314[esp+60]
  0009f	89 4c 24 2c	 mov	 DWORD PTR $T274313[esp+68], ecx
  000a3	89 44 24 28	 mov	 DWORD PTR $T274313[esp+64], eax

; 1162 : 	
; 1163 : 	BOOL bRangeAttack = (pProp->m_bRangeAttack[ nTargetJob ] & 0x7F) ? TRUE : FALSE;	
; 1164 : 
; 1165 : 	if( pProp->m_bRecvCond )	

  000a7	8a 85 f6 01 00
	00		 mov	 al, BYTE PTR [ebp+502]
  000ad	84 c0		 test	 al, al
  000af	d9 5c 24 18	 fstp	 DWORD PTR _vTargetTo$[esp+60]
  000b3	d9 44 24 2c	 fld	 DWORD PTR $T274313[esp+68]
  000b7	c7 44 24 14 01
	00 00 00	 mov	 DWORD PTR _bAttack$[esp+60], 1
  000bf	d8 64 24 38	 fsub	 DWORD PTR $T274314[esp+68]
  000c3	d9 5c 24 20	 fstp	 DWORD PTR _vTargetTo$[esp+68]
  000c7	0f 84 d4 00 00
	00		 je	 $L274423

; 1166 : 	{
; 1167 : 		if( pMover->GetHitPointPercent( 100 ) <= pProp->m_nRecvCondMe )	

  000cd	6a 64		 push	 100			; 00000064H
  000cf	8b cf		 mov	 ecx, edi
  000d1	e8 00 00 00 00	 call	 ?GetHitPointPercent@CMover@@QAEHH@Z ; CMover::GetHitPointPercent
  000d6	3b 85 e8 01 00
	00		 cmp	 eax, DWORD PTR [ebp+488]
  000dc	0f 8f a4 00 00
	00		 jg	 $L274422

; 1168 : 		{
; 1169 : 			if( pMover->GetManaPoint() > 0 )

  000e2	8b cf		 mov	 ecx, edi
  000e4	e8 00 00 00 00	 call	 ?GetManaPoint@CMover@@QAEHXZ ; CMover::GetManaPoint
  000e9	85 c0		 test	 eax, eax
  000eb	0f 8e 95 00 00
	00		 jle	 $L274422

; 1170 : 			{
; 1171 : 				int nHP = (int)(pMover->GetMaxHitPoint() * (pProp->m_nRecvCondHow / 100.0f));	

  000f1	8b cf		 mov	 ecx, edi
  000f3	e8 00 00 00 00	 call	 ?GetMaxHitPoint@CMover@@QAEHXZ ; CMover::GetMaxHitPoint
  000f8	89 44 24 14	 mov	 DWORD PTR tv509[esp+60], eax
  000fc	db 44 24 14	 fild	 DWORD PTR tv509[esp+60]
  00100	db 85 ec 01 00
	00		 fild	 DWORD PTR [ebp+492]
  00106	d8 0d 00 00 00
	00		 fmul	 DWORD PTR __real@3c23d70a
  0010c	de c9		 fmulp	 ST(1), ST(0)
  0010e	e8 00 00 00 00	 call	 __ftol2

; 1172 : 				pMover->IncHitPoint( nHP );

  00113	50		 push	 eax
  00114	8b cf		 mov	 ecx, edi
  00116	e8 00 00 00 00	 call	 ?IncHitPoint@CMover@@QAEXH@Z ; CMover::IncHitPoint

; 1173 : 				
; 1174 : 				g_UserMng.AddCreateSfxObj( pMover, XI_GEN_CURE01, pMover->GetPos().x, pMover->GetPos().y, pMover->GetPos().z );	

  0011b	8b d6		 mov	 edx, esi
  0011d	8b 02		 mov	 eax, DWORD PTR [edx]
  0011f	8b 4a 04	 mov	 ecx, DWORD PTR [edx+4]
  00122	89 44 24 30	 mov	 DWORD PTR $T274315[esp+60], eax
  00126	8b 42 08	 mov	 eax, DWORD PTR [edx+8]
  00129	89 4c 24 34	 mov	 DWORD PTR $T274315[esp+64], ecx
  0012d	8b 0a		 mov	 ecx, DWORD PTR [edx]
  0012f	89 4c 24 30	 mov	 DWORD PTR $T274316[esp+60], ecx
  00133	8b 4a 04	 mov	 ecx, DWORD PTR [edx+4]
  00136	8b 52 08	 mov	 edx, DWORD PTR [edx+8]
  00139	6a 00		 push	 0
  0013b	89 54 24 3c	 mov	 DWORD PTR $T274316[esp+72], edx
  0013f	8b 16		 mov	 edx, DWORD PTR [esi]
  00141	50		 push	 eax
  00142	89 54 24 38	 mov	 DWORD PTR $T274317[esp+68], edx
  00146	8b 44 24 38	 mov	 eax, DWORD PTR $T274317[esp+68]
  0014a	8b 56 04	 mov	 edx, DWORD PTR [esi+4]
  0014d	51		 push	 ecx
  0014e	50		 push	 eax
  0014f	89 54 24 44	 mov	 DWORD PTR $T274317[esp+80], edx
  00153	8b 56 08	 mov	 edx, DWORD PTR [esi+8]
  00156	6a 3e		 push	 62			; 0000003eH
  00158	57		 push	 edi
  00159	b9 00 00 00 00	 mov	 ecx, OFFSET FLAT:?g_UserMng@@3VCUserMng@@A
  0015e	89 54 24 50	 mov	 DWORD PTR $T274317[esp+92], edx
  00162	e8 00 00 00 00	 call	 ?AddCreateSfxObj@CUserMng@@QAEXPAVCCtrl@@KMMMH@Z ; CUserMng::AddCreateSfxObj

; 1175 : 				if( pProp->m_nRecvCondMP > 0 )		

  00167	8b 85 f0 01 00
	00		 mov	 eax, DWORD PTR [ebp+496]
  0016d	85 c0		 test	 eax, eax

; 1176 : 				{
; 1177 : 					int nMP = pProp->m_nRecvCondMP;			
; 1178 : 					pMover->IncManaPoint( -nMP );

  0016f	8b cf		 mov	 ecx, edi

; 1179 : 				} 
; 1180 : 				else

  00171	7f 07		 jg	 SHORT $L274424

; 1181 : 				{
; 1182 : 					int nMP = pMover->GetMaxManaPoint();	

  00173	e8 00 00 00 00	 call	 ?GetMaxManaPoint@CMover@@QAEHXZ ; CMover::GetMaxManaPoint

; 1183 : 					pMover->IncManaPoint( -nMP );

  00178	8b cf		 mov	 ecx, edi
$L274424:
  0017a	f7 d8		 neg	 eax
  0017c	50		 push	 eax
  0017d	e8 00 00 00 00	 call	 ?IncManaPoint@CMover@@QAEXH@Z ; CMover::IncManaPoint

; 1184 : 				}
; 1185 : 				bAttack = FALSE;

  00182	33 c0		 xor	 eax, eax
  00184	eb 04		 jmp	 SHORT $L265261
$L274422:
  00186	8b 44 24 14	 mov	 eax, DWORD PTR _bAttack$[esp+60]
$L265261:

; 1186 : 			}
; 1187 : 		}
; 1188 : 		m_tmAttackDelay = TIMEGETTIME + SEC( 3 );

  0018a	8b 0d 00 00 00
	00		 mov	 ecx, DWORD PTR ?g_tmCurrent@@3KA ; g_tmCurrent
  00190	81 c1 b8 0b 00
	00		 add	 ecx, 3000		; 00000bb8H

; 1189 : 	}
; 1190 : 
; 1191 : 	if( bAttack )

  00196	85 c0		 test	 eax, eax
  00198	89 4b 40	 mov	 DWORD PTR [ebx+64], ecx
  0019b	0f 84 21 01 00
	00		 je	 $L274421
$L274423:

; 1192 : 	{
; 1193 : 		if( m_bRangeAttack )

  001a1	8b 83 d8 00 00
	00		 mov	 eax, DWORD PTR [ebx+216]
  001a7	85 c0		 test	 eax, eax

; 1194 : 			m_dwAtkMethod = GetAtkMethod_Far();	

  001a9	8b cb		 mov	 ecx, ebx
  001ab	74 07		 je	 SHORT $L265273
  001ad	e8 00 00 00 00	 call	 ?GetAtkMethod_Far@CAIAggro@@IAEKXZ ; CAIAggro::GetAtkMethod_Far

; 1195 : 		else

  001b2	eb 05		 jmp	 SHORT $L274425
$L265273:

; 1196 : 			m_dwAtkMethod = GetAtkMethod_Near();

  001b4	e8 00 00 00 00	 call	 ?GetAtkMethod_Near@CAIAggro@@IAEKXZ ; CAIAggro::GetAtkMethod_Near
$L274425:

; 1197 : 
; 1198 : 		DWORD dwAtkRange = GetAtkRange( m_dwAtkMethod );

  001b9	50		 push	 eax
  001ba	8b cb		 mov	 ecx, ebx
  001bc	89 83 e4 00 00
	00		 mov	 DWORD PTR [ebx+228], eax
  001c2	e8 00 00 00 00	 call	 ?GetAtkProp@CAIAggro@@IAEPAUItemProp@@K@Z ; CAIAggro::GetAtkProp
  001c7	8b 80 38 01 00
	00		 mov	 eax, DWORD PTR [eax+312]

; 1199 : 		if( dwAtkRange == AR_RANGE || dwAtkRange == AR_WAND )

  001cd	83 f8 04	 cmp	 eax, 4
  001d0	0f 84 8b 00 00
	00		 je	 $L265277
  001d6	83 f8 05	 cmp	 eax, 5
  001d9	0f 84 82 00 00
	00		 je	 $L265277

; 1204 : 			{
; 1205 : 				DoAttack( m_dwAtkMethod, (CMover*)pTarget );	
; 1206 : 				m_tmAttackDelay	= TIMEGETTIME + SEC( 3 );	
; 1207 : 			}
; 1208 : 		} 
; 1209 : 		else
; 1210 : 		{
; 1211 : 			FLOAT fRange = pMover->GetAttackRange( dwAtkRange );

  001df	50		 push	 eax
  001e0	8b cf		 mov	 ecx, edi
  001e2	e8 00 00 00 00	 call	 ?GetAttackRange@CMover@@QAEMK@Z ; CMover::GetAttackRange
  001e7	d9 5c 24 14	 fstp	 DWORD PTR _fRange$265284[esp+60]

; 1212 : 			if( pMover->IsRangeObj( pTarget, fRange ) )

  001eb	8b 54 24 14	 mov	 edx, DWORD PTR _fRange$265284[esp+60]
  001ef	8b 74 24 44	 mov	 esi, DWORD PTR _pTarget$[esp+56]
  001f3	52		 push	 edx
  001f4	56		 push	 esi
  001f5	8b cf		 mov	 ecx, edi
  001f7	e8 00 00 00 00	 call	 ?IsRangeObj@CObj@@QAEHPAV1@M@Z ; CObj::IsRangeObj
  001fc	85 c0		 test	 eax, eax
  001fe	0f 84 be 00 00
	00		 je	 $L274421

; 1213 : 			{
; 1214 : 				DoAttack( m_dwAtkMethod, pTarget );		

  00204	8b 83 e4 00 00
	00		 mov	 eax, DWORD PTR [ebx+228]
  0020a	56		 push	 esi
  0020b	50		 push	 eax
  0020c	8b cb		 mov	 ecx, ebx
  0020e	e8 00 00 00 00	 call	 ?DoAttack@CAIAggro@@IAEXKPAVCMover@@@Z ; CAIAggro::DoAttack

; 1215 : 				m_bGoTarget = TRUE; 

  00213	c7 83 c8 00 00
	00 01 00 00 00	 mov	 DWORD PTR [ebx+200], 1

; 1216 : 				int nDelay = (int)pProp->dwReAttackDelay - SEC( 1 )  + xRandom( SEC( 2 ) );

  0021d	a1 00 00 00 00	 mov	 eax, DWORD PTR ?g_next@@3KA ; g_next
  00222	69 c0 6d 4e c6
	41		 imul	 eax, 1103515245		; 41c64e6dH
  00228	05 39 30 00 00	 add	 eax, 12345		; 00003039H
  0022d	a3 00 00 00 00	 mov	 DWORD PTR ?g_next@@3KA, eax ; g_next
  00232	33 d2		 xor	 edx, edx
  00234	b9 d0 07 00 00	 mov	 ecx, 2000		; 000007d0H
  00239	f7 f1		 div	 ecx

; 1217 : 				m_tmAttackDelay		= TIMEGETTIME + nDelay;

  0023b	8b 85 e0 00 00
	00		 mov	 eax, DWORD PTR [ebp+224]
  00241	5f		 pop	 edi
  00242	5e		 pop	 esi
  00243	5d		 pop	 ebp
  00244	03 d0		 add	 edx, eax
  00246	a1 00 00 00 00	 mov	 eax, DWORD PTR ?g_tmCurrent@@3KA ; g_tmCurrent
  0024b	8d 8c 02 18 fc
	ff ff		 lea	 ecx, DWORD PTR [edx+eax-1000]
  00252	89 4b 40	 mov	 DWORD PTR [ebx+64], ecx

; 1218 : 				TRACE( "AtkDelay:%d\n", (int)nDelay );
; 1219 : 			}
; 1220 : 		}
; 1221 : 	}
; 1222 : 	
; 1223 : 	return TRUE;

  00255	b8 01 00 00 00	 mov	 eax, 1
  0025a	5b		 pop	 ebx

; 1224 : }

  0025b	83 c4 2c	 add	 esp, 44			; 0000002cH
  0025e	c2 08 00	 ret	 8
$L265277:

; 1200 : 		{
; 1201 : 			FLOAT fRange = (float)(pProp->m_bRangeAttack[ nTargetJob ] & 0x7F);

  00261	8b 54 24 10	 mov	 edx, DWORD PTR _nTargetJob$[esp+60]
  00265	8a 84 2a f8 01
	00 00		 mov	 al, BYTE PTR [edx+ebp+504]
  0026c	24 7f		 and	 al, 127			; 0000007fH

; 1202 : 			fRange += 1.0f;		

  0026e	0f b6 c8	 movzx	 ecx, al
  00271	89 4c 24 14	 mov	 DWORD PTR tv460[esp+60], ecx
  00275	db 44 24 14	 fild	 DWORD PTR tv460[esp+60]
  00279	d8 05 00 00 00
	00		 fadd	 DWORD PTR __real@3f800000

; 1203 : 			if( IsInRange( vTargetTo, fRange ) == TRUE )	

  0027f	d9 44 24 20	 fld	 DWORD PTR _vTargetTo$[esp+68]
  00283	d8 4c 24 20	 fmul	 DWORD PTR _vTargetTo$[esp+68]
  00287	d9 44 24 18	 fld	 DWORD PTR _vTargetTo$[esp+60]
  0028b	d8 4c 24 18	 fmul	 DWORD PTR _vTargetTo$[esp+60]

; 1218 : 				TRACE( "AtkDelay:%d\n", (int)nDelay );
; 1219 : 			}
; 1220 : 		}
; 1221 : 	}
; 1222 : 	
; 1223 : 	return TRUE;

  0028f	de c1		 faddp	 ST(1), ST(0)
  00291	d9 c1		 fld	 ST(1)
  00293	d8 ca		 fmul	 ST(0), ST(2)
  00295	de d9		 fcompp
  00297	df e0		 fnstsw	 ax
  00299	dd d8		 fstp	 ST(0)
  0029b	f6 c4 05	 test	 ah, 5
  0029e	7b 22		 jnp	 SHORT $L274421
  002a0	8b 54 24 44	 mov	 edx, DWORD PTR _pTarget$[esp+56]
  002a4	8b 83 e4 00 00
	00		 mov	 eax, DWORD PTR [ebx+228]
  002aa	52		 push	 edx
  002ab	50		 push	 eax
  002ac	8b cb		 mov	 ecx, ebx
  002ae	e8 00 00 00 00	 call	 ?DoAttack@CAIAggro@@IAEXKPAVCMover@@@Z ; CAIAggro::DoAttack
  002b3	8b 0d 00 00 00
	00		 mov	 ecx, DWORD PTR ?g_tmCurrent@@3KA ; g_tmCurrent
  002b9	81 c1 b8 0b 00
	00		 add	 ecx, 3000		; 00000bb8H
  002bf	89 4b 40	 mov	 DWORD PTR [ebx+64], ecx
$L274421:
  002c2	5f		 pop	 edi
  002c3	5e		 pop	 esi
  002c4	5d		 pop	 ebp
  002c5	b8 01 00 00 00	 mov	 eax, 1
  002ca	5b		 pop	 ebx

; 1224 : }

  002cb	83 c4 2c	 add	 esp, 44			; 0000002cH
  002ce	c2 08 00	 ret	 8
?SubAttackChance@CAIAggro@@IAEHABUAIMSG@@PAVCMover@@@Z ENDP ; CAIAggro::SubAttackChance
_TEXT	ENDS
PUBLIC	?_Ufill@?$vector@KV?$allocator@K@std@@@std@@IAEPAKPAKIABK@Z ; std::vector<unsigned long,std::allocator<unsigned long> >::_Ufill
; Function compile flags: /Ogty
; File c:\program files\microsoft visual studio .net 2003\vc7\include\vector
;	COMDAT ?_Ufill@?$vector@KV?$allocator@K@std@@@std@@IAEPAKPAKIABK@Z
_TEXT	SEGMENT
__Ptr$ = 8						; size = 4
__Count$ = 12						; size = 4
__Val$ = 16						; size = 4
?_Ufill@?$vector@KV?$allocator@K@std@@@std@@IAEPAKPAKIABK@Z PROC NEAR ; std::vector<unsigned long,std::allocator<unsigned long> >::_Ufill, COMDAT
; _this$ = ecx

; 877  : 		{	// copy initializing _Count * _Val, using allocator

  00000	56		 push	 esi

; 878  : 		_Uninitialized_fill_n(_Ptr, _Count, _Val, this->_Alval);

  00001	8b 74 24 0c	 mov	 esi, DWORD PTR __Count$[esp]
  00005	85 f6		 test	 esi, esi
  00007	57		 push	 edi
  00008	8b 7c 24 0c	 mov	 edi, DWORD PTR __Ptr$[esp+4]
  0000c	8b c7		 mov	 eax, edi
  0000e	76 12		 jbe	 SHORT $L274467
  00010	8b 54 24 14	 mov	 edx, DWORD PTR __Val$[esp+4]
  00014	8b ce		 mov	 ecx, esi
  00016	53		 push	 ebx
$L274458:
  00017	8b 1a		 mov	 ebx, DWORD PTR [edx]
  00019	89 18		 mov	 DWORD PTR [eax], ebx
  0001b	83 c0 04	 add	 eax, 4
  0001e	49		 dec	 ecx
  0001f	75 f6		 jne	 SHORT $L274458
  00021	5b		 pop	 ebx
$L274467:

; 879  : 		return (_Ptr + _Count);

  00022	8d 04 b7	 lea	 eax, DWORD PTR [edi+esi*4]
  00025	5f		 pop	 edi
  00026	5e		 pop	 esi

; 880  : 		}

  00027	c2 0c 00	 ret	 12			; 0000000cH
?_Ufill@?$vector@KV?$allocator@K@std@@@std@@IAEPAKPAKIABK@Z ENDP ; std::vector<unsigned long,std::allocator<unsigned long> >::_Ufill
_TEXT	ENDS
PUBLIC	??1?$basic_string@DU?$char_traits@D@std@@V?$allocator@D@2@@std@@QAE@XZ ; std::basic_string<char,std::char_traits<char>,std::allocator<char> >::~basic_string<char,std::char_traits<char>,std::allocator<char> >
; Function compile flags: /Ogty
; File c:\program files\microsoft visual studio .net 2003\vc7\include\xstring
;	COMDAT ??1?$basic_string@DU?$char_traits@D@std@@V?$allocator@D@2@@std@@QAE@XZ
_TEXT	SEGMENT
??1?$basic_string@DU?$char_traits@D@std@@V?$allocator@D@2@@std@@QAE@XZ PROC NEAR ; std::basic_string<char,std::char_traits<char>,std::allocator<char> >::~basic_string<char,std::char_traits<char>,std::allocator<char> >, COMDAT
; _this$ = ecx

; 456  : 		{	// destroy the string

  00000	56		 push	 esi
  00001	8b f1		 mov	 esi, ecx

; 457  : 		_Tidy(true);

  00003	83 7e 18 10	 cmp	 DWORD PTR [esi+24], 16	; 00000010H
  00007	72 0c		 jb	 SHORT $L274505
  00009	8b 46 04	 mov	 eax, DWORD PTR [esi+4]
  0000c	50		 push	 eax
  0000d	e8 00 00 00 00	 call	 ??3@YAXPAX@Z		; operator delete
  00012	83 c4 04	 add	 esp, 4
$L274505:
  00015	33 c0		 xor	 eax, eax
  00017	c7 46 18 0f 00
	00 00		 mov	 DWORD PTR [esi+24], 15	; 0000000fH
  0001e	89 46 14	 mov	 DWORD PTR [esi+20], eax
  00021	88 46 04	 mov	 BYTE PTR [esi+4], al
  00024	5e		 pop	 esi

; 458  : 		}

  00025	c3		 ret	 0
??1?$basic_string@DU?$char_traits@D@std@@V?$allocator@D@2@@std@@QAE@XZ ENDP ; std::basic_string<char,std::char_traits<char>,std::allocator<char> >::~basic_string<char,std::char_traits<char>,std::allocator<char> >
_TEXT	ENDS
PUBLIC	??1?$vector@KV?$allocator@K@std@@@std@@QAE@XZ	; std::vector<unsigned long,std::allocator<unsigned long> >::~vector<unsigned long,std::allocator<unsigned long> >
; Function compile flags: /Ogty
; File c:\program files\microsoft visual studio .net 2003\vc7\include\vector
;	COMDAT ??1?$vector@KV?$allocator@K@std@@@std@@QAE@XZ
_TEXT	SEGMENT
??1?$vector@KV?$allocator@K@std@@@std@@QAE@XZ PROC NEAR	; std::vector<unsigned long,std::allocator<unsigned long> >::~vector<unsigned long,std::allocator<unsigned long> >, COMDAT
; _this$ = ecx

; 387  : 		{	// destroy the object

  00000	56		 push	 esi
  00001	8b f1		 mov	 esi, ecx

; 388  : 		_Tidy();

  00003	8b 46 04	 mov	 eax, DWORD PTR [esi+4]
  00006	85 c0		 test	 eax, eax
  00008	74 09		 je	 SHORT $L274532
  0000a	50		 push	 eax
  0000b	e8 00 00 00 00	 call	 ??3@YAXPAX@Z		; operator delete
  00010	83 c4 04	 add	 esp, 4
$L274532:
  00013	c7 46 04 00 00
	00 00		 mov	 DWORD PTR [esi+4], 0
  0001a	c7 46 08 00 00
	00 00		 mov	 DWORD PTR [esi+8], 0
  00021	c7 46 0c 00 00
	00 00		 mov	 DWORD PTR [esi+12], 0
  00028	5e		 pop	 esi

; 389  : 		}

  00029	c3		 ret	 0
??1?$vector@KV?$allocator@K@std@@@std@@QAE@XZ ENDP	; std::vector<unsigned long,std::allocator<unsigned long> >::~vector<unsigned long,std::allocator<unsigned long> >
_TEXT	ENDS
PUBLIC	?_Grow@?$basic_string@DU?$char_traits@D@std@@V?$allocator@D@2@@std@@IAE_NI_N@Z ; std::basic_string<char,std::char_traits<char>,std::allocator<char> >::_Grow
EXTRN	?_Xlen@_String_base@std@@QBEXXZ:NEAR		; std::_String_base::_Xlen
; Function compile flags: /Ogty
; File c:\program files\microsoft visual studio .net 2003\vc7\include\xstring
;	COMDAT ?_Grow@?$basic_string@DU?$char_traits@D@std@@V?$allocator@D@2@@std@@IAE_NI_N@Z
_TEXT	SEGMENT
__Newsize$ = 8						; size = 4
__Trim$ = 12						; size = 1
?_Grow@?$basic_string@DU?$char_traits@D@std@@V?$allocator@D@2@@std@@IAE_NI_N@Z PROC NEAR ; std::basic_string<char,std::char_traits<char>,std::allocator<char> >::_Grow, COMDAT
; _this$ = ecx

; 1480 : 		{	// ensure buffer is big enough, trim to size if _Trim is true

  00000	55		 push	 ebp
  00001	56		 push	 esi

; 1481 : 		if (max_size() < _Newsize)

  00002	8b 74 24 0c	 mov	 esi, DWORD PTR __Newsize$[esp+4]
  00006	83 fe fe	 cmp	 esi, -2			; fffffffeH
  00009	8b e9		 mov	 ebp, ecx
  0000b	76 05		 jbe	 SHORT $L221380

; 1482 : 			_String_base::_Xlen();	// result too long

  0000d	e8 00 00 00 00	 call	 ?_Xlen@_String_base@std@@QBEXXZ ; std::_String_base::_Xlen
$L221380:

; 1483 : 		if (_Myres < _Newsize)

  00012	8b 45 18	 mov	 eax, DWORD PTR [ebp+24]
  00015	3b c6		 cmp	 eax, esi
  00017	73 19		 jae	 SHORT $L221381

; 1484 : 			_Copy(_Newsize, _Mysize);	// reallocate to grow

  00019	8b 45 14	 mov	 eax, DWORD PTR [ebp+20]
  0001c	50		 push	 eax
  0001d	56		 push	 esi
  0001e	8b cd		 mov	 ecx, ebp
  00020	e8 00 00 00 00	 call	 ?_Copy@?$basic_string@DU?$char_traits@D@std@@V?$allocator@D@2@@std@@IAEXII@Z ; std::basic_string<char,std::char_traits<char>,std::allocator<char> >::_Copy

; 1490 : 		return (0 < _Newsize);	// return true only if more work to do

  00025	33 c0		 xor	 eax, eax
  00027	3b c6		 cmp	 eax, esi
  00029	1b c0		 sbb	 eax, eax
  0002b	5e		 pop	 esi
  0002c	f7 d8		 neg	 eax
  0002e	5d		 pop	 ebp

; 1491 : 		}

  0002f	c2 08 00	 ret	 8
$L221381:

; 1485 : 		else if (_Trim && _Newsize < _BUF_SIZE)

  00032	8a 4c 24 10	 mov	 cl, BYTE PTR __Trim$[esp+4]
  00036	84 c9		 test	 cl, cl
  00038	74 5c		 je	 SHORT $L221383
  0003a	83 fe 10	 cmp	 esi, 16			; 00000010H
  0003d	73 57		 jae	 SHORT $L221383
  0003f	53		 push	 ebx

; 1486 : 			_Tidy(true,	// copy and deallocate if trimming to small string
; 1487 : 				_Newsize < _Mysize ? _Newsize : _Mysize);

  00040	8b 5d 14	 mov	 ebx, DWORD PTR [ebp+20]
  00043	3b f3		 cmp	 esi, ebx
  00045	73 02		 jae	 SHORT $L274539
  00047	8b de		 mov	 ebx, esi
$L274539:
  00049	83 f8 10	 cmp	 eax, 16			; 00000010H
  0004c	72 2b		 jb	 SHORT $L274594
  0004e	85 db		 test	 ebx, ebx
  00050	8b 45 04	 mov	 eax, DWORD PTR [ebp+4]
  00053	57		 push	 edi
  00054	8d 7d 04	 lea	 edi, DWORD PTR [ebp+4]
  00057	76 16		 jbe	 SHORT $L274591
  00059	8b cb		 mov	 ecx, ebx
  0005b	8b d1		 mov	 edx, ecx
  0005d	c1 e9 02	 shr	 ecx, 2
  00060	8b f0		 mov	 esi, eax
  00062	f3 a5		 rep movsd
  00064	8b ca		 mov	 ecx, edx
  00066	83 e1 03	 and	 ecx, 3
  00069	f3 a4		 rep movsb
  0006b	8b 74 24 14	 mov	 esi, DWORD PTR __Newsize$[esp+12]
$L274591:
  0006f	50		 push	 eax
  00070	e8 00 00 00 00	 call	 ??3@YAXPAX@Z		; operator delete
  00075	83 c4 04	 add	 esp, 4
  00078	5f		 pop	 edi
$L274594:
  00079	89 5d 14	 mov	 DWORD PTR [ebp+20], ebx

; 1490 : 		return (0 < _Newsize);	// return true only if more work to do

  0007c	33 c0		 xor	 eax, eax
  0007e	c7 45 18 0f 00
	00 00		 mov	 DWORD PTR [ebp+24], 15	; 0000000fH
  00085	c6 44 2b 04 00	 mov	 BYTE PTR [ebx+ebp+4], 0
  0008a	3b c6		 cmp	 eax, esi
  0008c	5b		 pop	 ebx
  0008d	1b c0		 sbb	 eax, eax
  0008f	5e		 pop	 esi
  00090	f7 d8		 neg	 eax
  00092	5d		 pop	 ebp

; 1491 : 		}

  00093	c2 08 00	 ret	 8
$L221383:

; 1488 : 		else if (_Newsize == 0)

  00096	85 f6		 test	 esi, esi
  00098	75 23		 jne	 SHORT $L274629

; 1489 : 			_Eos(0);	// new size is zero, just null terminate

  0009a	83 f8 10	 cmp	 eax, 16			; 00000010H
  0009d	89 75 14	 mov	 DWORD PTR [ebp+20], esi
  000a0	72 14		 jb	 SHORT $L274626
  000a2	8b 6d 04	 mov	 ebp, DWORD PTR [ebp+4]

; 1490 : 		return (0 < _Newsize);	// return true only if more work to do

  000a5	33 c0		 xor	 eax, eax
  000a7	3b c6		 cmp	 eax, esi
  000a9	1b c0		 sbb	 eax, eax
  000ab	5e		 pop	 esi
  000ac	c6 45 00 00	 mov	 BYTE PTR [ebp], 0
  000b0	f7 d8		 neg	 eax
  000b2	5d		 pop	 ebp

; 1491 : 		}

  000b3	c2 08 00	 ret	 8

; 1489 : 			_Eos(0);	// new size is zero, just null terminate

$L274626:
  000b6	83 c5 04	 add	 ebp, 4
  000b9	c6 45 00 00	 mov	 BYTE PTR [ebp], 0
$L274629:

; 1490 : 		return (0 < _Newsize);	// return true only if more work to do

  000bd	33 c0		 xor	 eax, eax
  000bf	3b c6		 cmp	 eax, esi
  000c1	1b c0		 sbb	 eax, eax
  000c3	5e		 pop	 esi
  000c4	f7 d8		 neg	 eax
  000c6	5d		 pop	 ebp

; 1491 : 		}

  000c7	c2 08 00	 ret	 8
?_Grow@?$basic_string@DU?$char_traits@D@std@@V?$allocator@D@2@@std@@IAE_NI_N@Z ENDP ; std::basic_string<char,std::char_traits<char>,std::allocator<char> >::_Grow
_TEXT	ENDS
PUBLIC	?IsReturnToBegin@CAIAggro@@UAEHXZ		; CAIAggro::IsReturnToBegin
PUBLIC	??1CAIAggro@@UAE@XZ				; CAIAggro::~CAIAggro
PUBLIC	??_7CAIAggro@@6B@				; CAIAggro::`vftable'
PUBLIC	??_GCAIAggro@@UAEPAXI@Z				; CAIAggro::`scalar deleting destructor'
EXTRN	??_ECAIAggro@@UAEPAXI@Z:NEAR			; CAIAggro::`vector deleting destructor'
EXTRN	??1CAIInterface@@UAE@XZ:NEAR			; CAIInterface::~CAIInterface
EXTRN	?RouteMessage@CAIInterface@@UAEXXZ:NEAR		; CAIInterface::RouteMessage
EXTRN	?SendAIMsg@CAIInterface@@UAEXKKKK@Z:NEAR	; CAIInterface::SendAIMsg
EXTRN	?PostAIMsg@CAIInterface@@UAEXKKKK@Z:NEAR	; CAIInterface::PostAIMsg
EXTRN	?IsState@CAIInterface@@UAEHH@Z:NEAR		; CAIInterface::IsState
;	COMDAT ??_7CAIAggro@@6B@
; File c:\documents and settings\test\mes documents\source\virtuos_v17\build\program\_common\timer.h
CONST	SEGMENT
??_7CAIAggro@@6B@ DD FLAT:?GetStateMap@CAIAggro@@UBEPBUSTATEMAP@@XZ ; CAIAggro::`vftable'
	DD	FLAT:??_ECAIAggro@@UAEPAXI@Z
	DD	FLAT:?RouteMessage@CAIInterface@@UAEXXZ
	DD	FLAT:?SendAIMsg@CAIInterface@@UAEXKKKK@Z
	DD	FLAT:?PostAIMsg@CAIInterface@@UAEXKKKK@Z
	DD	FLAT:?InitAI@CAIAggro@@UAEXXZ
	DD	FLAT:?IsReturnToBegin@CAIAggro@@UAEHXZ
	DD	FLAT:?IsState@CAIInterface@@UAEHH@Z
; Function compile flags: /Ogty
; File c:\documents and settings\test\mes documents\source\virtuos_v17\build\program\_aiinterface\aiaggro.cpp
CONST	ENDS
;	COMDAT ??1CAIAggro@@UAE@XZ
_TEXT	SEGMENT
??1CAIAggro@@UAE@XZ PROC NEAR				; CAIAggro::~CAIAggro, COMDAT
; _this$ = ecx

; 112  : {

  00000	56		 push	 esi
  00001	8b f1		 mov	 esi, ecx
  00003	c7 06 00 00 00
	00		 mov	 DWORD PTR [esi], OFFSET FLAT:??_7CAIAggro@@6B@

; 113  : }

  00009	8b 86 ec 00 00
	00		 mov	 eax, DWORD PTR [esi+236]
  0000f	85 c0		 test	 eax, eax
  00011	74 09		 je	 SHORT $L274655
  00013	50		 push	 eax
  00014	e8 00 00 00 00	 call	 ??3@YAXPAX@Z		; operator delete
  00019	83 c4 04	 add	 esp, 4
$L274655:
  0001c	c7 86 ec 00 00
	00 00 00 00 00	 mov	 DWORD PTR [esi+236], 0
  00026	c7 86 f0 00 00
	00 00 00 00 00	 mov	 DWORD PTR [esi+240], 0
  00030	c7 86 f4 00 00
	00 00 00 00 00	 mov	 DWORD PTR [esi+244], 0
  0003a	c7 86 a0 00 00
	00 00 00 00 00	 mov	 DWORD PTR [esi+160], OFFSET FLAT:??_7CTimer@@6B@
  00044	8b ce		 mov	 ecx, esi
  00046	5e		 pop	 esi
  00047	e9 00 00 00 00	 jmp	 ??1CAIInterface@@UAE@XZ	; CAIInterface::~CAIInterface
??1CAIAggro@@UAE@XZ ENDP				; CAIAggro::~CAIAggro
; Function compile flags: /Ogty
; File c:\documents and settings\test\mes documents\source\virtuos_v17\build\program\_aiinterface\aiaggro.h
_TEXT	ENDS
;	COMDAT ?IsReturnToBegin@CAIAggro@@UAEHXZ
_TEXT	SEGMENT
?IsReturnToBegin@CAIAggro@@UAEHXZ PROC NEAR		; CAIAggro::IsReturnToBegin, COMDAT
; _this$ = ecx

; 88   : 	virtual	BOOL	IsReturnToBegin( void )		{	return m_bReturnToBegin;	}

  00000	8b 81 c4 00 00
	00		 mov	 eax, DWORD PTR [ecx+196]
  00006	c3		 ret	 0
?IsReturnToBegin@CAIAggro@@UAEHXZ ENDP			; CAIAggro::IsReturnToBegin
_TEXT	ENDS
PUBLIC	??1logic_error@std@@UAE@XZ			; std::logic_error::~logic_error
PUBLIC	?what@logic_error@std@@UBEPBDXZ			; std::logic_error::what
PUBLIC	??_7logic_error@std@@6B@			; std::logic_error::`vftable'
PUBLIC	??_Glogic_error@std@@UAEPAXI@Z			; std::logic_error::`scalar deleting destructor'
EXTRN	??1exception@@UAE@XZ:NEAR			; exception::~exception
EXTRN	??_Elogic_error@std@@UAEPAXI@Z:NEAR		; std::logic_error::`vector deleting destructor'
;	COMDAT ??_7logic_error@std@@6B@
; File c:\program files\microsoft visual studio .net 2003\vc7\include\iosfwd
CONST	SEGMENT
??_7logic_error@std@@6B@ DD FLAT:??_Elogic_error@std@@UAEPAXI@Z ; std::logic_error::`vftable'
	DD	FLAT:?what@logic_error@std@@UBEPBDXZ
; Function compile flags: /Ogty
; File c:\program files\microsoft visual studio .net 2003\vc7\include\stdexcept
CONST	ENDS
;	COMDAT ??1logic_error@std@@UAE@XZ
_TEXT	SEGMENT
??1logic_error@std@@UAE@XZ PROC NEAR			; std::logic_error::~logic_error, COMDAT
; _this$ = ecx

; 23   : 		{}	// destroy the object

  00000	56		 push	 esi
  00001	8b f1		 mov	 esi, ecx
  00003	c7 06 00 00 00
	00		 mov	 DWORD PTR [esi], OFFSET FLAT:??_7logic_error@std@@6B@
  00009	83 7e 24 10	 cmp	 DWORD PTR [esi+36], 16	; 00000010H
  0000d	72 0c		 jb	 SHORT $L274731
  0000f	8b 46 10	 mov	 eax, DWORD PTR [esi+16]
  00012	50		 push	 eax
  00013	e8 00 00 00 00	 call	 ??3@YAXPAX@Z		; operator delete
  00018	83 c4 04	 add	 esp, 4
$L274731:
  0001b	33 c0		 xor	 eax, eax
  0001d	c7 46 24 0f 00
	00 00		 mov	 DWORD PTR [esi+36], 15	; 0000000fH
  00024	89 46 20	 mov	 DWORD PTR [esi+32], eax
  00027	88 46 10	 mov	 BYTE PTR [esi+16], al
  0002a	8b ce		 mov	 ecx, esi
  0002c	5e		 pop	 esi
  0002d	e9 00 00 00 00	 jmp	 ??1exception@@UAE@XZ	; exception::~exception
??1logic_error@std@@UAE@XZ ENDP				; std::logic_error::~logic_error
; Function compile flags: /Ogty
_TEXT	ENDS
;	COMDAT ?what@logic_error@std@@UBEPBDXZ
_TEXT	SEGMENT
?what@logic_error@std@@UBEPBDXZ PROC NEAR		; std::logic_error::what, COMDAT
; _this$ = ecx

; 27   : 		return (_Str.c_str());

  00000	83 79 24 10	 cmp	 DWORD PTR [ecx+36], 16	; 00000010H
  00004	72 04		 jb	 SHORT $L274764
  00006	8b 41 10	 mov	 eax, DWORD PTR [ecx+16]

; 28   : 		}

  00009	c3		 ret	 0

; 27   : 		return (_Str.c_str());

$L274764:
  0000a	8d 41 10	 lea	 eax, DWORD PTR [ecx+16]

; 28   : 		}

  0000d	c3		 ret	 0
?what@logic_error@std@@UBEPBDXZ ENDP			; std::logic_error::what
; Function compile flags: /Ogty
_TEXT	ENDS
;	COMDAT ??_Glogic_error@std@@UAEPAXI@Z
_TEXT	SEGMENT
___flags$ = 8						; size = 4
??_Glogic_error@std@@UAEPAXI@Z PROC NEAR		; std::logic_error::`scalar deleting destructor', COMDAT
; _this$ = ecx
  00000	56		 push	 esi
  00001	8b f1		 mov	 esi, ecx
  00003	e8 00 00 00 00	 call	 ??1logic_error@std@@UAE@XZ ; std::logic_error::~logic_error
  00008	f6 44 24 08 01	 test	 BYTE PTR ___flags$[esp], 1
  0000d	74 09		 je	 SHORT $L274772
  0000f	56		 push	 esi
  00010	e8 00 00 00 00	 call	 ??3@YAXPAX@Z		; operator delete
  00015	83 c4 04	 add	 esp, 4
$L274772:
  00018	8b c6		 mov	 eax, esi
  0001a	5e		 pop	 esi
  0001b	c2 04 00	 ret	 4
??_Glogic_error@std@@UAEPAXI@Z ENDP			; std::logic_error::`scalar deleting destructor'
_TEXT	ENDS
PUBLIC	?assign@?$basic_string@DU?$char_traits@D@std@@V?$allocator@D@2@@std@@QAEAAV12@ABV12@II@Z ; std::basic_string<char,std::char_traits<char>,std::allocator<char> >::assign
; Function compile flags: /Ogty
; File c:\program files\microsoft visual studio .net 2003\vc7\include\xstring
;	COMDAT ?assign@?$basic_string@DU?$char_traits@D@std@@V?$allocator@D@2@@std@@QAEAAV12@ABV12@II@Z
_TEXT	SEGMENT
__Right$ = 8						; size = 4
__Roff$ = 12						; size = 4
__Count$ = 16						; size = 4
?assign@?$basic_string@DU?$char_traits@D@std@@V?$allocator@D@2@@std@@QAEAAV12@ABV12@II@Z PROC NEAR ; std::basic_string<char,std::char_traits<char>,std::allocator<char> >::assign, COMDAT
; _this$ = ecx

; 590  : 		{	// assign _Right [_Roff, _Roff + _Count)

  00000	53		 push	 ebx
  00001	55		 push	 ebp
  00002	56		 push	 esi

; 591  : 		if (_Right.size() < _Roff)

  00003	8b 74 24 14	 mov	 esi, DWORD PTR __Roff$[esp+8]
  00007	57		 push	 edi
  00008	8b 7c 24 14	 mov	 edi, DWORD PTR __Right$[esp+12]
  0000c	39 77 14	 cmp	 DWORD PTR [edi+20], esi
  0000f	8b d9		 mov	 ebx, ecx
  00011	73 05		 jae	 SHORT $L220001

; 592  : 			_String_base::_Xran();	// _Roff off end

  00013	e8 00 00 00 00	 call	 ?_Xran@_String_base@std@@QBEXXZ ; std::_String_base::_Xran
$L220001:

; 593  : 		size_type _Num = _Right.size() - _Roff;

  00018	8b 6f 14	 mov	 ebp, DWORD PTR [edi+20]

; 594  : 		if (_Count < _Num)

  0001b	8b 44 24 1c	 mov	 eax, DWORD PTR __Count$[esp+12]
  0001f	2b ee		 sub	 ebp, esi
  00021	3b c5		 cmp	 eax, ebp
  00023	73 02		 jae	 SHORT $L220003

; 595  : 			_Num = _Count;	// trim _Num to size

  00025	8b e8		 mov	 ebp, eax
$L220003:

; 596  : 
; 597  : 		if (this == &_Right)

  00027	3b df		 cmp	 ebx, edi
  00029	75 1f		 jne	 SHORT $L220004

; 598  : 			erase((size_type)(_Roff + _Num)), erase(0, _Roff);	// substring

  0002b	6a ff		 push	 -1
  0002d	03 ee		 add	 ebp, esi
  0002f	55		 push	 ebp
  00030	8b cb		 mov	 ecx, ebx
  00032	e8 00 00 00 00	 call	 ?erase@?$basic_string@DU?$char_traits@D@std@@V?$allocator@D@2@@std@@QAEAAV12@II@Z ; std::basic_string<char,std::char_traits<char>,std::allocator<char> >::erase
  00037	56		 push	 esi
  00038	6a 00		 push	 0
  0003a	8b cb		 mov	 ecx, ebx
  0003c	e8 00 00 00 00	 call	 ?erase@?$basic_string@DU?$char_traits@D@std@@V?$allocator@D@2@@std@@QAEAAV12@II@Z ; std::basic_string<char,std::char_traits<char>,std::allocator<char> >::erase
  00041	5f		 pop	 edi
  00042	5e		 pop	 esi
  00043	5d		 pop	 ebp

; 603  : 			}
; 604  : 		return (*this);

  00044	8b c3		 mov	 eax, ebx
  00046	5b		 pop	 ebx

; 605  : 		}

  00047	c2 0c 00	 ret	 12			; 0000000cH
$L220004:

; 599  : 		else if (_Grow(_Num))

  0004a	83 fd fe	 cmp	 ebp, -2			; fffffffeH
  0004d	76 07		 jbe	 SHORT $L274881
  0004f	8b cb		 mov	 ecx, ebx
  00051	e8 00 00 00 00	 call	 ?_Xlen@_String_base@std@@QBEXXZ ; std::_String_base::_Xlen
$L274881:
  00056	8b 43 18	 mov	 eax, DWORD PTR [ebx+24]
  00059	3b c5		 cmp	 eax, ebp
  0005b	73 21		 jae	 SHORT $L274882
  0005d	8b 43 14	 mov	 eax, DWORD PTR [ebx+20]
  00060	50		 push	 eax
  00061	55		 push	 ebp
  00062	8b cb		 mov	 ecx, ebx
  00064	e8 00 00 00 00	 call	 ?_Copy@?$basic_string@DU?$char_traits@D@std@@V?$allocator@D@2@@std@@IAEXII@Z ; std::basic_string<char,std::char_traits<char>,std::allocator<char> >::_Copy
  00069	85 ed		 test	 ebp, ebp
$L274969:
  0006b	76 6d		 jbe	 SHORT $L274968

; 600  : 			{	// make room and assign new stuff
; 601  : 			_Traits::copy(_Myptr(), _Right._Myptr() + _Roff, _Num);

  0006d	8b 4f 18	 mov	 ecx, DWORD PTR [edi+24]
  00070	b8 10 00 00 00	 mov	 eax, 16			; 00000010H
  00075	3b c8		 cmp	 ecx, eax
  00077	72 2f		 jb	 SHORT $L274933
  00079	8b 57 04	 mov	 edx, DWORD PTR [edi+4]
  0007c	eb 2d		 jmp	 SHORT $L274934

; 599  : 		else if (_Grow(_Num))

$L274882:
  0007e	85 ed		 test	 ebp, ebp
  00080	75 e9		 jne	 SHORT $L274969
  00082	83 f8 10	 cmp	 eax, 16			; 00000010H
  00085	89 6b 14	 mov	 DWORD PTR [ebx+20], ebp
  00088	72 0f		 jb	 SHORT $L274925
  0008a	8b 43 04	 mov	 eax, DWORD PTR [ebx+4]
  0008d	5f		 pop	 edi
  0008e	5e		 pop	 esi
  0008f	c6 00 00	 mov	 BYTE PTR [eax], 0
  00092	5d		 pop	 ebp

; 603  : 			}
; 604  : 		return (*this);

  00093	8b c3		 mov	 eax, ebx
  00095	5b		 pop	 ebx

; 605  : 		}

  00096	c2 0c 00	 ret	 12			; 0000000cH

; 599  : 		else if (_Grow(_Num))

$L274925:
  00099	5f		 pop	 edi
  0009a	8d 43 04	 lea	 eax, DWORD PTR [ebx+4]
  0009d	5e		 pop	 esi
  0009e	c6 00 00	 mov	 BYTE PTR [eax], 0
  000a1	5d		 pop	 ebp

; 603  : 			}
; 604  : 		return (*this);

  000a2	8b c3		 mov	 eax, ebx
  000a4	5b		 pop	 ebx

; 605  : 		}

  000a5	c2 0c 00	 ret	 12			; 0000000cH

; 600  : 			{	// make room and assign new stuff
; 601  : 			_Traits::copy(_Myptr(), _Right._Myptr() + _Roff, _Num);

$L274933:
  000a8	8d 57 04	 lea	 edx, DWORD PTR [edi+4]
$L274934:
  000ab	39 43 18	 cmp	 DWORD PTR [ebx+24], eax
  000ae	8d 43 04	 lea	 eax, DWORD PTR [ebx+4]
  000b1	72 04		 jb	 SHORT $L274941
  000b3	8b 38		 mov	 edi, DWORD PTR [eax]
  000b5	eb 02		 jmp	 SHORT $L274942
$L274941:
  000b7	8b f8		 mov	 edi, eax
$L274942:
  000b9	03 f2		 add	 esi, edx
  000bb	8b cd		 mov	 ecx, ebp
  000bd	8b d1		 mov	 edx, ecx
  000bf	c1 e9 02	 shr	 ecx, 2
  000c2	f3 a5		 rep movsd
  000c4	8b ca		 mov	 ecx, edx
  000c6	83 e1 03	 and	 ecx, 3
  000c9	f3 a4		 rep movsb

; 602  : 			_Eos(_Num);

  000cb	83 7b 18 10	 cmp	 DWORD PTR [ebx+24], 16	; 00000010H
  000cf	89 6b 14	 mov	 DWORD PTR [ebx+20], ebp
  000d2	72 02		 jb	 SHORT $L274965
  000d4	8b 00		 mov	 eax, DWORD PTR [eax]
$L274965:
  000d6	c6 04 28 00	 mov	 BYTE PTR [eax+ebp], 0
$L274968:
  000da	5f		 pop	 edi
  000db	5e		 pop	 esi
  000dc	5d		 pop	 ebp

; 603  : 			}
; 604  : 		return (*this);

  000dd	8b c3		 mov	 eax, ebx
  000df	5b		 pop	 ebx

; 605  : 		}

  000e0	c2 0c 00	 ret	 12			; 0000000cH
?assign@?$basic_string@DU?$char_traits@D@std@@V?$allocator@D@2@@std@@QAEAAV12@ABV12@II@Z ENDP ; std::basic_string<char,std::char_traits<char>,std::allocator<char> >::assign
_TEXT	ENDS
PUBLIC	?assign@?$basic_string@DU?$char_traits@D@std@@V?$allocator@D@2@@std@@QAEAAV12@PBDI@Z ; std::basic_string<char,std::char_traits<char>,std::allocator<char> >::assign
; Function compile flags: /Ogty
;	COMDAT ?assign@?$basic_string@DU?$char_traits@D@std@@V?$allocator@D@2@@std@@QAEAAV12@PBDI@Z
_TEXT	SEGMENT
__Ptr$ = 8						; size = 4
__Num$ = 12						; size = 4
?assign@?$basic_string@DU?$char_traits@D@std@@V?$allocator@D@2@@std@@QAEAAV12@PBDI@Z PROC NEAR ; std::basic_string<char,std::char_traits<char>,std::allocator<char> >::assign, COMDAT
; _this$ = ecx

; 608  : 		{	// assign [_Ptr, _Ptr + _Num)

  00000	53		 push	 ebx
  00001	8b d9		 mov	 ebx, ecx

; 609  : 		if (_Inside(_Ptr))

  00003	8b 53 18	 mov	 edx, DWORD PTR [ebx+24]
  00006	83 fa 10	 cmp	 edx, 16			; 00000010H
  00009	56		 push	 esi
  0000a	57		 push	 edi
  0000b	72 05		 jb	 SHORT $L274991
  0000d	8b 43 04	 mov	 eax, DWORD PTR [ebx+4]
  00010	eb 03		 jmp	 SHORT $L274992
$L274991:
  00012	8d 43 04	 lea	 eax, DWORD PTR [ebx+4]
$L274992:
  00015	8b 74 24 10	 mov	 esi, DWORD PTR __Ptr$[esp+8]
  00019	3b f0		 cmp	 esi, eax
  0001b	72 34		 jb	 SHORT $L221367
  0001d	83 fa 10	 cmp	 edx, 16			; 00000010H
  00020	8d 43 04	 lea	 eax, DWORD PTR [ebx+4]
  00023	72 04		 jb	 SHORT $L274995
  00025	8b 08		 mov	 ecx, DWORD PTR [eax]
  00027	eb 02		 jmp	 SHORT $L274996
$L274995:
  00029	8b c8		 mov	 ecx, eax
$L274996:
  0002b	8b 7b 14	 mov	 edi, DWORD PTR [ebx+20]
  0002e	03 f9		 add	 edi, ecx
  00030	3b fe		 cmp	 edi, esi
  00032	76 1d		 jbe	 SHORT $L221367

; 610  : 			return (assign(*this, _Ptr - _Myptr(), _Num));	// substring

  00034	83 fa 10	 cmp	 edx, 16			; 00000010H
  00037	72 02		 jb	 SHORT $L275008
  00039	8b 00		 mov	 eax, DWORD PTR [eax]
$L275008:
  0003b	8b 4c 24 14	 mov	 ecx, DWORD PTR __Num$[esp+8]
  0003f	51		 push	 ecx
  00040	2b f0		 sub	 esi, eax
  00042	56		 push	 esi
  00043	53		 push	 ebx
  00044	8b cb		 mov	 ecx, ebx
  00046	e8 00 00 00 00	 call	 ?assign@?$basic_string@DU?$char_traits@D@std@@V?$allocator@D@2@@std@@QAEAAV12@ABV12@II@Z ; std::basic_string<char,std::char_traits<char>,std::allocator<char> >::assign
  0004b	5f		 pop	 edi
  0004c	5e		 pop	 esi
  0004d	5b		 pop	 ebx

; 618  : 		}

  0004e	c2 08 00	 ret	 8
$L221367:
  00051	55		 push	 ebp

; 611  : 
; 612  : 		if (_Grow(_Num))

  00052	8b 6c 24 18	 mov	 ebp, DWORD PTR __Num$[esp+12]
  00056	83 fd fe	 cmp	 ebp, -2			; fffffffeH
  00059	76 07		 jbe	 SHORT $L275106
  0005b	8b cb		 mov	 ecx, ebx
  0005d	e8 00 00 00 00	 call	 ?_Xlen@_String_base@std@@QBEXXZ ; std::_String_base::_Xlen
$L275106:
  00062	8b 43 18	 mov	 eax, DWORD PTR [ebx+24]
  00065	3b c5		 cmp	 eax, ebp
  00067	73 1b		 jae	 SHORT $L275107
  00069	8b 53 14	 mov	 edx, DWORD PTR [ebx+20]
  0006c	52		 push	 edx
  0006d	55		 push	 ebp
  0006e	8b cb		 mov	 ecx, ebx
  00070	e8 00 00 00 00	 call	 ?_Copy@?$basic_string@DU?$char_traits@D@std@@V?$allocator@D@2@@std@@IAEXII@Z ; std::basic_string<char,std::char_traits<char>,std::allocator<char> >::_Copy
  00075	85 ed		 test	 ebp, ebp
$L275187:
  00077	76 68		 jbe	 SHORT $L275184

; 613  : 			{	// make room and assign new stuff
; 614  : 			_Traits::copy(_Myptr(), _Ptr, _Num);

  00079	83 7b 18 10	 cmp	 DWORD PTR [ebx+24], 16	; 00000010H
  0007d	72 2f		 jb	 SHORT $L275159
  0007f	8b 7b 04	 mov	 edi, DWORD PTR [ebx+4]
  00082	eb 2d		 jmp	 SHORT $L275160

; 611  : 
; 612  : 		if (_Grow(_Num))

$L275107:
  00084	85 ed		 test	 ebp, ebp
  00086	75 ef		 jne	 SHORT $L275187
  00088	83 f8 10	 cmp	 eax, 16			; 00000010H
  0008b	89 6b 14	 mov	 DWORD PTR [ebx+20], ebp
  0008e	72 0f		 jb	 SHORT $L275150
  00090	8b 43 04	 mov	 eax, DWORD PTR [ebx+4]
  00093	5d		 pop	 ebp
  00094	5f		 pop	 edi
  00095	c6 00 00	 mov	 BYTE PTR [eax], 0
  00098	5e		 pop	 esi

; 616  : 			}
; 617  : 		return (*this);

  00099	8b c3		 mov	 eax, ebx
  0009b	5b		 pop	 ebx

; 618  : 		}

  0009c	c2 08 00	 ret	 8

; 611  : 
; 612  : 		if (_Grow(_Num))

$L275150:
  0009f	5d		 pop	 ebp
  000a0	8d 43 04	 lea	 eax, DWORD PTR [ebx+4]
  000a3	5f		 pop	 edi
  000a4	c6 00 00	 mov	 BYTE PTR [eax], 0
  000a7	5e		 pop	 esi

; 616  : 			}
; 617  : 		return (*this);

  000a8	8b c3		 mov	 eax, ebx
  000aa	5b		 pop	 ebx

; 618  : 		}

  000ab	c2 08 00	 ret	 8

; 613  : 			{	// make room and assign new stuff
; 614  : 			_Traits::copy(_Myptr(), _Ptr, _Num);

$L275159:
  000ae	8d 7b 04	 lea	 edi, DWORD PTR [ebx+4]
$L275160:
  000b1	8b cd		 mov	 ecx, ebp
  000b3	8b c1		 mov	 eax, ecx
  000b5	c1 e9 02	 shr	 ecx, 2
  000b8	f3 a5		 rep movsd
  000ba	8b c8		 mov	 ecx, eax
  000bc	83 e1 03	 and	 ecx, 3
  000bf	f3 a4		 rep movsb

; 615  : 			_Eos(_Num);

  000c1	83 7b 18 10	 cmp	 DWORD PTR [ebx+24], 16	; 00000010H
  000c5	89 6b 14	 mov	 DWORD PTR [ebx+20], ebp
  000c8	72 10		 jb	 SHORT $L275182
  000ca	8b 43 04	 mov	 eax, DWORD PTR [ebx+4]
  000cd	c6 04 28 00	 mov	 BYTE PTR [eax+ebp], 0
  000d1	5d		 pop	 ebp
  000d2	5f		 pop	 edi
  000d3	5e		 pop	 esi

; 616  : 			}
; 617  : 		return (*this);

  000d4	8b c3		 mov	 eax, ebx
  000d6	5b		 pop	 ebx

; 618  : 		}

  000d7	c2 08 00	 ret	 8

; 615  : 			_Eos(_Num);

$L275182:
  000da	8d 43 04	 lea	 eax, DWORD PTR [ebx+4]
  000dd	c6 04 28 00	 mov	 BYTE PTR [eax+ebp], 0
$L275184:
  000e1	5d		 pop	 ebp
  000e2	5f		 pop	 edi
  000e3	5e		 pop	 esi

; 616  : 			}
; 617  : 		return (*this);

  000e4	8b c3		 mov	 eax, ebx
  000e6	5b		 pop	 ebx

; 618  : 		}

  000e7	c2 08 00	 ret	 8
?assign@?$basic_string@DU?$char_traits@D@std@@V?$allocator@D@2@@std@@QAEAAV12@PBDI@Z ENDP ; std::basic_string<char,std::char_traits<char>,std::allocator<char> >::assign
; Function compile flags: /Ogty
_TEXT	ENDS
;	COMDAT ??_GCAIAggro@@UAEPAXI@Z
_TEXT	SEGMENT
___flags$ = 8						; size = 4
??_GCAIAggro@@UAEPAXI@Z PROC NEAR			; CAIAggro::`scalar deleting destructor', COMDAT
; _this$ = ecx
  00000	56		 push	 esi
  00001	8b f1		 mov	 esi, ecx
  00003	e8 00 00 00 00	 call	 ??1CAIAggro@@UAE@XZ	; CAIAggro::~CAIAggro
  00008	f6 44 24 08 01	 test	 BYTE PTR ___flags$[esp], 1
  0000d	74 09		 je	 SHORT $L275191
  0000f	56		 push	 esi
  00010	e8 00 00 00 00	 call	 ??3@YAXPAX@Z		; operator delete
  00015	83 c4 04	 add	 esp, 4
$L275191:
  00018	8b c6		 mov	 eax, esi
  0001a	5e		 pop	 esi
  0001b	c2 04 00	 ret	 4
??_GCAIAggro@@UAEPAXI@Z ENDP				; CAIAggro::`scalar deleting destructor'
_TEXT	ENDS
PUBLIC	??0?$basic_string@DU?$char_traits@D@std@@V?$allocator@D@2@@std@@QAE@ABV01@@Z ; std::basic_string<char,std::char_traits<char>,std::allocator<char> >::basic_string<char,std::char_traits<char>,std::allocator<char> >
; Function compile flags: /Ogty
;	COMDAT ??0?$basic_string@DU?$char_traits@D@std@@V?$allocator@D@2@@std@@QAE@ABV01@@Z
_TEXT	SEGMENT
__Right$ = 8						; size = 4
??0?$basic_string@DU?$char_traits@D@std@@V?$allocator@D@2@@std@@QAE@ABV01@@Z PROC NEAR ; std::basic_string<char,std::char_traits<char>,std::allocator<char> >::basic_string<char,std::char_traits<char>,std::allocator<char> >, COMDAT
; _this$ = ecx

; 323  : 		{	// construct by copying _Right

  00000	56		 push	 esi

; 324  : 		_Tidy();

  00001	33 c0		 xor	 eax, eax
  00003	8b f1		 mov	 esi, ecx

; 325  : 		assign(_Right, 0, npos);

  00005	6a ff		 push	 -1
  00007	89 46 14	 mov	 DWORD PTR [esi+20], eax
  0000a	c7 46 18 0f 00
	00 00		 mov	 DWORD PTR [esi+24], 15	; 0000000fH
  00011	50		 push	 eax
  00012	88 46 04	 mov	 BYTE PTR [esi+4], al
  00015	8b 44 24 10	 mov	 eax, DWORD PTR __Right$[esp+8]
  00019	50		 push	 eax
  0001a	e8 00 00 00 00	 call	 ?assign@?$basic_string@DU?$char_traits@D@std@@V?$allocator@D@2@@std@@QAEAAV12@ABV12@II@Z ; std::basic_string<char,std::char_traits<char>,std::allocator<char> >::assign

; 326  : 		}

  0001f	8b c6		 mov	 eax, esi
  00021	5e		 pop	 esi
  00022	c2 04 00	 ret	 4
??0?$basic_string@DU?$char_traits@D@std@@V?$allocator@D@2@@std@@QAE@ABV01@@Z ENDP ; std::basic_string<char,std::char_traits<char>,std::allocator<char> >::basic_string<char,std::char_traits<char>,std::allocator<char> >
_TEXT	ENDS
PUBLIC	?assign@?$basic_string@DU?$char_traits@D@std@@V?$allocator@D@2@@std@@QAEAAV12@PBD@Z ; std::basic_string<char,std::char_traits<char>,std::allocator<char> >::assign
; Function compile flags: /Ogty
;	COMDAT ?assign@?$basic_string@DU?$char_traits@D@std@@V?$allocator@D@2@@std@@QAEAAV12@PBD@Z
_TEXT	SEGMENT
__Ptr$ = 8						; size = 4
?assign@?$basic_string@DU?$char_traits@D@std@@V?$allocator@D@2@@std@@QAEAAV12@PBD@Z PROC NEAR ; std::basic_string<char,std::char_traits<char>,std::allocator<char> >::assign, COMDAT
; _this$ = ecx

; 621  : 		{	// assign [_Ptr, <null>)

  00000	56		 push	 esi

; 622  : 		return (assign(_Ptr, _Traits::length(_Ptr)));

  00001	8b 74 24 08	 mov	 esi, DWORD PTR __Ptr$[esp]
  00005	8b c6		 mov	 eax, esi
  00007	57		 push	 edi
  00008	8d 78 01	 lea	 edi, DWORD PTR [eax+1]
  0000b	eb 03 8d 49 00	 npad	 5
$L275265:
  00010	8a 10		 mov	 dl, BYTE PTR [eax]
  00012	40		 inc	 eax
  00013	84 d2		 test	 dl, dl
  00015	75 f9		 jne	 SHORT $L275265
  00017	2b c7		 sub	 eax, edi
  00019	50		 push	 eax
  0001a	56		 push	 esi
  0001b	e8 00 00 00 00	 call	 ?assign@?$basic_string@DU?$char_traits@D@std@@V?$allocator@D@2@@std@@QAEAAV12@PBDI@Z ; std::basic_string<char,std::char_traits<char>,std::allocator<char> >::assign
  00020	5f		 pop	 edi
  00021	5e		 pop	 esi

; 623  : 		}

  00022	c2 04 00	 ret	 4
?assign@?$basic_string@DU?$char_traits@D@std@@V?$allocator@D@2@@std@@QAEAAV12@PBD@Z ENDP ; std::basic_string<char,std::char_traits<char>,std::allocator<char> >::assign
_TEXT	ENDS
PUBLIC	??0logic_error@std@@QAE@ABV?$basic_string@DU?$char_traits@D@std@@V?$allocator@D@2@@1@@Z ; std::logic_error::logic_error
EXTRN	??0exception@@QAE@XZ:NEAR			; exception::exception
;	COMDAT xdata$x
; File c:\program files\microsoft visual studio .net 2003\vc7\include\iosfwd
xdata$x	SEGMENT
$T275369 DD	0ffffffffH
	DD	FLAT:$L275269
$T275367 DD	019930520H
	DD	01H
	DD	FLAT:$T275369
	DD	2 DUP(00H)
	DD	2 DUP(00H)
; Function compile flags: /Ogty
; File c:\program files\microsoft visual studio .net 2003\vc7\include\stdexcept
xdata$x	ENDS
;	COMDAT ??0logic_error@std@@QAE@ABV?$basic_string@DU?$char_traits@D@std@@V?$allocator@D@2@@1@@Z
_TEXT	SEGMENT
_this$ = -16						; size = 4
__$EHRec$ = -12						; size = 12
__Message$ = 8						; size = 4
??0logic_error@std@@QAE@ABV?$basic_string@DU?$char_traits@D@std@@V?$allocator@D@2@@1@@Z PROC NEAR ; std::logic_error::logic_error, COMDAT
; _this$ = ecx

; 19   : 		{	// construct from message string

  00000	6a ff		 push	 -1
  00002	68 00 00 00 00	 push	 __ehhandler$??0logic_error@std@@QAE@ABV?$basic_string@DU?$char_traits@D@std@@V?$allocator@D@2@@1@@Z
  00007	64 a1 00 00 00
	00		 mov	 eax, DWORD PTR fs:__except_list
  0000d	50		 push	 eax
  0000e	64 89 25 00 00
	00 00		 mov	 DWORD PTR fs:__except_list, esp
  00015	51		 push	 ecx
  00016	56		 push	 esi
  00017	8b f1		 mov	 esi, ecx
  00019	89 74 24 04	 mov	 DWORD PTR _this$[esp+20], esi
  0001d	e8 00 00 00 00	 call	 ??0exception@@QAE@XZ	; exception::exception
  00022	33 c0		 xor	 eax, eax
  00024	8d 4e 0c	 lea	 ecx, DWORD PTR [esi+12]
  00027	c7 06 00 00 00
	00		 mov	 DWORD PTR [esi], OFFSET FLAT:??_7logic_error@std@@6B@
  0002d	6a ff		 push	 -1
  0002f	89 41 14	 mov	 DWORD PTR [ecx+20], eax
  00032	c7 41 18 0f 00
	00 00		 mov	 DWORD PTR [ecx+24], 15	; 0000000fH
  00039	50		 push	 eax
  0003a	89 44 24 18	 mov	 DWORD PTR __$EHRec$[esp+36], eax
  0003e	88 41 04	 mov	 BYTE PTR [ecx+4], al
  00041	8b 44 24 20	 mov	 eax, DWORD PTR __Message$[esp+24]
  00045	50		 push	 eax
  00046	e8 00 00 00 00	 call	 ?assign@?$basic_string@DU?$char_traits@D@std@@V?$allocator@D@2@@std@@QAEAAV12@ABV12@II@Z ; std::basic_string<char,std::char_traits<char>,std::allocator<char> >::assign

; 20   : 		}

  0004b	8b 4c 24 08	 mov	 ecx, DWORD PTR __$EHRec$[esp+20]
  0004f	8b c6		 mov	 eax, esi
  00051	5e		 pop	 esi
  00052	64 89 0d 00 00
	00 00		 mov	 DWORD PTR fs:__except_list, ecx
  00059	83 c4 10	 add	 esp, 16			; 00000010H
  0005c	c2 04 00	 ret	 4
_TEXT	ENDS
;	COMDAT text$x
text$x	SEGMENT
$L275269:
  00000	8b 4d f0	 mov	 ecx, DWORD PTR _this$[ebp]
  00003	e9 00 00 00 00	 jmp	 ??1exception@@UAE@XZ	; exception::~exception
__ehhandler$??0logic_error@std@@QAE@ABV?$basic_string@DU?$char_traits@D@std@@V?$allocator@D@2@@1@@Z:
  00008	b8 00 00 00 00	 mov	 eax, OFFSET FLAT:$T275367
  0000d	e9 00 00 00 00	 jmp	 ___CxxFrameHandler
text$x	ENDS
??0logic_error@std@@QAE@ABV?$basic_string@DU?$char_traits@D@std@@V?$allocator@D@2@@1@@Z ENDP ; std::logic_error::logic_error
PUBLIC	??0length_error@std@@QAE@ABV?$basic_string@DU?$char_traits@D@std@@V?$allocator@D@2@@1@@Z ; std::length_error::length_error
PUBLIC	??_7length_error@std@@6B@			; std::length_error::`vftable'
PUBLIC	??_Glength_error@std@@UAEPAXI@Z			; std::length_error::`scalar deleting destructor'
EXTRN	??_Elength_error@std@@UAEPAXI@Z:NEAR		; std::length_error::`vector deleting destructor'
;	COMDAT ??_7length_error@std@@6B@
CONST	SEGMENT
??_7length_error@std@@6B@ DD FLAT:??_Elength_error@std@@UAEPAXI@Z ; std::length_error::`vftable'
	DD	FLAT:?what@logic_error@std@@UBEPBDXZ
; Function compile flags: /Ogty
CONST	ENDS
;	COMDAT ??0length_error@std@@QAE@ABV?$basic_string@DU?$char_traits@D@std@@V?$allocator@D@2@@1@@Z
_TEXT	SEGMENT
__Message$ = 8						; size = 4
??0length_error@std@@QAE@ABV?$basic_string@DU?$char_traits@D@std@@V?$allocator@D@2@@1@@Z PROC NEAR ; std::length_error::length_error, COMDAT
; _this$ = ecx

; 95   : 		{	// construct from message string

  00000	8b 44 24 04	 mov	 eax, DWORD PTR __Message$[esp-4]
  00004	56		 push	 esi
  00005	50		 push	 eax
  00006	8b f1		 mov	 esi, ecx
  00008	e8 00 00 00 00	 call	 ??0logic_error@std@@QAE@ABV?$basic_string@DU?$char_traits@D@std@@V?$allocator@D@2@@1@@Z ; std::logic_error::logic_error
  0000d	c7 06 00 00 00
	00		 mov	 DWORD PTR [esi], OFFSET FLAT:??_7length_error@std@@6B@

; 96   : 		}

  00013	8b c6		 mov	 eax, esi
  00015	5e		 pop	 esi
  00016	c2 04 00	 ret	 4
??0length_error@std@@QAE@ABV?$basic_string@DU?$char_traits@D@std@@V?$allocator@D@2@@1@@Z ENDP ; std::length_error::length_error
_TEXT	ENDS
PUBLIC	??1length_error@std@@UAE@XZ			; std::length_error::~length_error
; Function compile flags: /Ogty
;	COMDAT ??_Glength_error@std@@UAEPAXI@Z
_TEXT	SEGMENT
___flags$ = 8						; size = 4
??_Glength_error@std@@UAEPAXI@Z PROC NEAR		; std::length_error::`scalar deleting destructor', COMDAT
; _this$ = ecx
  00000	56		 push	 esi
  00001	8b f1		 mov	 esi, ecx
  00003	e8 00 00 00 00	 call	 ??1length_error@std@@UAE@XZ ; std::length_error::~length_error
  00008	f6 44 24 08 01	 test	 BYTE PTR ___flags$[esp], 1
  0000d	74 09		 je	 SHORT $L275379
  0000f	56		 push	 esi
  00010	e8 00 00 00 00	 call	 ??3@YAXPAX@Z		; operator delete
  00015	83 c4 04	 add	 esp, 4
$L275379:
  00018	8b c6		 mov	 eax, esi
  0001a	5e		 pop	 esi
  0001b	c2 04 00	 ret	 4
??_Glength_error@std@@UAEPAXI@Z ENDP			; std::length_error::`scalar deleting destructor'
; Function compile flags: /Ogty
_TEXT	ENDS
;	COMDAT ??1length_error@std@@UAE@XZ
_TEXT	SEGMENT
??1length_error@std@@UAE@XZ PROC NEAR			; std::length_error::~length_error, COMDAT
; _this$ = ecx

; 99   : 		{}	// destroy the object

  00000	56		 push	 esi
  00001	8b f1		 mov	 esi, ecx
  00003	c7 06 00 00 00
	00		 mov	 DWORD PTR [esi], OFFSET FLAT:??_7logic_error@std@@6B@
  00009	83 7e 24 10	 cmp	 DWORD PTR [esi+36], 16	; 00000010H
  0000d	72 0c		 jb	 SHORT $L275472
  0000f	8b 46 10	 mov	 eax, DWORD PTR [esi+16]
  00012	50		 push	 eax
  00013	e8 00 00 00 00	 call	 ??3@YAXPAX@Z		; operator delete
  00018	83 c4 04	 add	 esp, 4
$L275472:
  0001b	33 c0		 xor	 eax, eax
  0001d	c7 46 24 0f 00
	00 00		 mov	 DWORD PTR [esi+36], 15	; 0000000fH
  00024	89 46 20	 mov	 DWORD PTR [esi+32], eax
  00027	88 46 10	 mov	 BYTE PTR [esi+16], al
  0002a	8b ce		 mov	 ecx, esi
  0002c	5e		 pop	 esi
  0002d	e9 00 00 00 00	 jmp	 ??1exception@@UAE@XZ	; exception::~exception
??1length_error@std@@UAE@XZ ENDP			; std::length_error::~length_error
_TEXT	ENDS
PUBLIC	??0?$basic_string@DU?$char_traits@D@std@@V?$allocator@D@2@@std@@QAE@PBD@Z ; std::basic_string<char,std::char_traits<char>,std::allocator<char> >::basic_string<char,std::char_traits<char>,std::allocator<char> >
; Function compile flags: /Ogty
; File c:\program files\microsoft visual studio .net 2003\vc7\include\xstring
;	COMDAT ??0?$basic_string@DU?$char_traits@D@std@@V?$allocator@D@2@@std@@QAE@PBD@Z
_TEXT	SEGMENT
__Ptr$ = 8						; size = 4
??0?$basic_string@DU?$char_traits@D@std@@V?$allocator@D@2@@std@@QAE@PBD@Z PROC NEAR ; std::basic_string<char,std::char_traits<char>,std::allocator<char> >::basic_string<char,std::char_traits<char>,std::allocator<char> >, COMDAT
; _this$ = ecx

; 361  : 		_Tidy();
; 362  : 		assign(_Ptr);

  00000	8b 54 24 04	 mov	 edx, DWORD PTR __Ptr$[esp-4]
  00004	56		 push	 esi
  00005	8b f1		 mov	 esi, ecx
  00007	8b c2		 mov	 eax, edx
  00009	57		 push	 edi
  0000a	c7 46 18 0f 00
	00 00		 mov	 DWORD PTR [esi+24], 15	; 0000000fH
  00011	c7 46 14 00 00
	00 00		 mov	 DWORD PTR [esi+20], 0
  00018	c6 46 04 00	 mov	 BYTE PTR [esi+4], 0
  0001c	8d 78 01	 lea	 edi, DWORD PTR [eax+1]
  0001f	90		 npad	 1
$L275561:
  00020	8a 08		 mov	 cl, BYTE PTR [eax]
  00022	40		 inc	 eax
  00023	84 c9		 test	 cl, cl
  00025	75 f9		 jne	 SHORT $L275561
  00027	2b c7		 sub	 eax, edi
  00029	50		 push	 eax
  0002a	52		 push	 edx
  0002b	8b ce		 mov	 ecx, esi
  0002d	e8 00 00 00 00	 call	 ?assign@?$basic_string@DU?$char_traits@D@std@@V?$allocator@D@2@@std@@QAEAAV12@PBDI@Z ; std::basic_string<char,std::char_traits<char>,std::allocator<char> >::assign
  00032	5f		 pop	 edi

; 363  : 		}

  00033	8b c6		 mov	 eax, esi
  00035	5e		 pop	 esi
  00036	c2 04 00	 ret	 4
??0?$basic_string@DU?$char_traits@D@std@@V?$allocator@D@2@@std@@QAE@PBD@Z ENDP ; std::basic_string<char,std::char_traits<char>,std::allocator<char> >::basic_string<char,std::char_traits<char>,std::allocator<char> >
_TEXT	ENDS
PUBLIC	??_C@_0BD@OLBABOEK@vector?$DMT?$DO?5too?5long?$AA@ ; `string'
PUBLIC	__TI3?AVlength_error@std@@
PUBLIC	__CTA3?AVlength_error@std@@
PUBLIC	??_R0?AVlength_error@std@@@8			; std::length_error `RTTI Type Descriptor'
PUBLIC	__CT??_R0?AVlength_error@std@@@8??0length_error@std@@QAE@ABV01@@Z40
PUBLIC	??_R0?AVlogic_error@std@@@8			; std::logic_error `RTTI Type Descriptor'
PUBLIC	__CT??_R0?AVlogic_error@std@@@8??0logic_error@std@@QAE@ABV01@@Z40
PUBLIC	??_R0?AVexception@@@8				; exception `RTTI Type Descriptor'
PUBLIC	__CT??_R0?AVexception@@@8??0exception@@QAE@ABV0@@Z12
PUBLIC	??0logic_error@std@@QAE@ABV01@@Z		; std::logic_error::logic_error
PUBLIC	??0length_error@std@@QAE@ABV01@@Z		; std::length_error::length_error
PUBLIC	?_Xlen@?$vector@KV?$allocator@K@std@@@std@@IBEXXZ ; std::vector<unsigned long,std::allocator<unsigned long> >::_Xlen
EXTRN	??0exception@@QAE@ABV0@@Z:NEAR			; exception::exception
EXTRN	??_7type_info@@6B@:DWORD			; type_info::`vftable'
;	COMDAT xdata$x
; File c:\program files\microsoft visual studio .net 2003\vc7\include\stdexcept
xdata$x	SEGMENT
$T275682 DD	0ffffffffH
	DD	FLAT:$L275567
$T275679 DD	019930520H
	DD	01H
	DD	FLAT:$T275682
	DD	2 DUP(00H)
	DD	2 DUP(00H)
xdata$x	ENDS
;	COMDAT ??_C@_0BD@OLBABOEK@vector?$DMT?$DO?5too?5long?$AA@
CONST	SEGMENT
??_C@_0BD@OLBABOEK@vector?$DMT?$DO?5too?5long?$AA@ DB 'vector<T> too long'
	DB	00H						; `string'
CONST	ENDS
;	COMDAT __TI3?AVlength_error@std@@
xdata$x	SEGMENT
__TI3?AVlength_error@std@@ DD 00H
	DD	FLAT:??1length_error@std@@UAE@XZ
	DD	00H
	DD	FLAT:__CTA3?AVlength_error@std@@
xdata$x	ENDS
;	COMDAT __CTA3?AVlength_error@std@@
xdata$x	SEGMENT
__CTA3?AVlength_error@std@@ DD 03H
	DD	FLAT:__CT??_R0?AVlength_error@std@@@8??0length_error@std@@QAE@ABV01@@Z40
	DD	FLAT:__CT??_R0?AVlogic_error@std@@@8??0logic_error@std@@QAE@ABV01@@Z40
	DD	FLAT:__CT??_R0?AVexception@@@8??0exception@@QAE@ABV0@@Z12
xdata$x	ENDS
;	COMDAT __CT??_R0?AVlength_error@std@@@8??0length_error@std@@QAE@ABV01@@Z40
xdata$x	SEGMENT
__CT??_R0?AVlength_error@std@@@8??0length_error@std@@QAE@ABV01@@Z40 DD 00H
	DD	FLAT:??_R0?AVlength_error@std@@@8
	DD	00H
	DD	0ffffffffH
	ORG $+4
	DD	028H
	DD	FLAT:??0length_error@std@@QAE@ABV01@@Z
xdata$x	ENDS
;	COMDAT ??_R0?AVlength_error@std@@@8
_DATA	SEGMENT
??_R0?AVlength_error@std@@@8 DD FLAT:??_7type_info@@6B@	; std::length_error `RTTI Type Descriptor'
	DD	00H
	DB	'.?AVlength_error@std@@', 00H
_DATA	ENDS
;	COMDAT __CT??_R0?AVlogic_error@std@@@8??0logic_error@std@@QAE@ABV01@@Z40
xdata$x	SEGMENT
__CT??_R0?AVlogic_error@std@@@8??0logic_error@std@@QAE@ABV01@@Z40 DD 00H
	DD	FLAT:??_R0?AVlogic_error@std@@@8
	DD	00H
	DD	0ffffffffH
	ORG $+4
	DD	028H
	DD	FLAT:??0logic_error@std@@QAE@ABV01@@Z
xdata$x	ENDS
;	COMDAT ??_R0?AVlogic_error@std@@@8
_DATA	SEGMENT
??_R0?AVlogic_error@std@@@8 DD FLAT:??_7type_info@@6B@	; std::logic_error `RTTI Type Descriptor'
	DD	00H
	DB	'.?AVlogic_error@std@@', 00H
_DATA	ENDS
;	COMDAT __CT??_R0?AVexception@@@8??0exception@@QAE@ABV0@@Z12
xdata$x	SEGMENT
__CT??_R0?AVexception@@@8??0exception@@QAE@ABV0@@Z12 DD 00H
	DD	FLAT:??_R0?AVexception@@@8
	DD	00H
	DD	0ffffffffH
	ORG $+4
	DD	0cH
	DD	FLAT:??0exception@@QAE@ABV0@@Z
xdata$x	ENDS
;	COMDAT ??_R0?AVexception@@@8
_DATA	SEGMENT
??_R0?AVexception@@@8 DD FLAT:??_7type_info@@6B@	; exception `RTTI Type Descriptor'
	DD	00H
	DB	'.?AVexception@@', 00H
; Function compile flags: /Ogty
; File c:\program files\microsoft visual studio .net 2003\vc7\include\vector
_DATA	ENDS
;	COMDAT ?_Xlen@?$vector@KV?$allocator@K@std@@@std@@IBEXXZ
_TEXT	SEGMENT
$T275566 = -80						; size = 28
$T275565 = -52						; size = 40
__$EHRec$ = -12						; size = 12
?_Xlen@?$vector@KV?$allocator@K@std@@@std@@IBEXXZ PROC NEAR ; std::vector<unsigned long,std::allocator<unsigned long> >::_Xlen, COMDAT
; _this$ = ecx

; 883  : 		{	// report a length_error

  00000	6a ff		 push	 -1
  00002	68 00 00 00 00	 push	 __ehhandler$?_Xlen@?$vector@KV?$allocator@K@std@@@std@@IBEXXZ
  00007	64 a1 00 00 00
	00		 mov	 eax, DWORD PTR fs:__except_list
  0000d	50		 push	 eax
  0000e	64 89 25 00 00
	00 00		 mov	 DWORD PTR fs:__except_list, esp
  00015	83 ec 44	 sub	 esp, 68			; 00000044H

; 884  : 		_THROW(length_error, "vector<T> too long");

  00018	6a 12		 push	 18			; 00000012H
  0001a	68 00 00 00 00	 push	 OFFSET FLAT:??_C@_0BD@OLBABOEK@vector?$DMT?$DO?5too?5long?$AA@
  0001f	8d 4c 24 08	 lea	 ecx, DWORD PTR $T275566[esp+88]
  00023	c7 44 24 20 0f
	00 00 00	 mov	 DWORD PTR $T275566[esp+112], 15 ; 0000000fH
  0002b	c7 44 24 1c 00
	00 00 00	 mov	 DWORD PTR $T275566[esp+108], 0
  00033	c6 44 24 0c 00	 mov	 BYTE PTR $T275566[esp+92], 0
  00038	e8 00 00 00 00	 call	 ?assign@?$basic_string@DU?$char_traits@D@std@@V?$allocator@D@2@@std@@QAEAAV12@PBDI@Z ; std::basic_string<char,std::char_traits<char>,std::allocator<char> >::assign
  0003d	8d 04 24	 lea	 eax, DWORD PTR $T275566[esp+80]
  00040	50		 push	 eax
  00041	8d 4c 24 20	 lea	 ecx, DWORD PTR $T275565[esp+84]
  00045	c7 44 24 50 00
	00 00 00	 mov	 DWORD PTR __$EHRec$[esp+92], 0
  0004d	e8 00 00 00 00	 call	 ??0logic_error@std@@QAE@ABV?$basic_string@DU?$char_traits@D@std@@V?$allocator@D@2@@1@@Z ; std::logic_error::logic_error
  00052	68 00 00 00 00	 push	 OFFSET FLAT:__TI3?AVlength_error@std@@
  00057	8d 4c 24 20	 lea	 ecx, DWORD PTR $T275565[esp+84]
  0005b	51		 push	 ecx
  0005c	c7 44 24 24 00
	00 00 00	 mov	 DWORD PTR $T275565[esp+88], OFFSET FLAT:??_7length_error@std@@6B@
  00064	e8 00 00 00 00	 call	 __CxxThrowException@8
$L275683:
$L275681:
  00069	cc		 int	 3
_TEXT	ENDS
;	COMDAT text$x
text$x	SEGMENT
$L275567:
  00000	8d 4d b0	 lea	 ecx, DWORD PTR $T275566[ebp]
  00003	e9 00 00 00 00	 jmp	 ??1?$basic_string@DU?$char_traits@D@std@@V?$allocator@D@2@@std@@QAE@XZ ; std::basic_string<char,std::char_traits<char>,std::allocator<char> >::~basic_string<char,std::char_traits<char>,std::allocator<char> >
__ehhandler$?_Xlen@?$vector@KV?$allocator@K@std@@@std@@IBEXXZ:
  00008	b8 00 00 00 00	 mov	 eax, OFFSET FLAT:$T275679
  0000d	e9 00 00 00 00	 jmp	 ___CxxFrameHandler
text$x	ENDS
?_Xlen@?$vector@KV?$allocator@K@std@@@std@@IBEXXZ ENDP	; std::vector<unsigned long,std::allocator<unsigned long> >::_Xlen
;	COMDAT xdata$x
xdata$x	SEGMENT
$T275789 DD	0ffffffffH
	DD	FLAT:$L275689
$T275787 DD	019930520H
	DD	01H
	DD	FLAT:$T275789
	DD	2 DUP(00H)
	DD	2 DUP(00H)
; Function compile flags: /Ogty
xdata$x	ENDS
;	COMDAT ??0logic_error@std@@QAE@ABV01@@Z
_TEXT	SEGMENT
_this$ = -16						; size = 4
__$EHRec$ = -12						; size = 12
___that$ = 8						; size = 4
??0logic_error@std@@QAE@ABV01@@Z PROC NEAR		; std::logic_error::logic_error, COMDAT
; _this$ = ecx
  00000	6a ff		 push	 -1
  00002	68 00 00 00 00	 push	 __ehhandler$??0logic_error@std@@QAE@ABV01@@Z
  00007	64 a1 00 00 00
	00		 mov	 eax, DWORD PTR fs:__except_list
  0000d	50		 push	 eax
  0000e	64 89 25 00 00
	00 00		 mov	 DWORD PTR fs:__except_list, esp
  00015	51		 push	 ecx
  00016	56		 push	 esi
  00017	57		 push	 edi
  00018	8b 7c 24 1c	 mov	 edi, DWORD PTR ___that$[esp+20]
  0001c	8b f1		 mov	 esi, ecx
  0001e	57		 push	 edi
  0001f	89 74 24 0c	 mov	 DWORD PTR _this$[esp+28], esi
  00023	e8 00 00 00 00	 call	 ??0exception@@QAE@ABV0@@Z ; exception::exception
  00028	33 c0		 xor	 eax, eax
  0002a	6a ff		 push	 -1
  0002c	8d 4e 0c	 lea	 ecx, DWORD PTR [esi+12]
  0002f	c7 06 00 00 00
	00		 mov	 DWORD PTR [esi], OFFSET FLAT:??_7logic_error@std@@6B@
  00035	50		 push	 eax
  00036	83 c7 0c	 add	 edi, 12			; 0000000cH
  00039	c7 41 18 0f 00
	00 00		 mov	 DWORD PTR [ecx+24], 15	; 0000000fH
  00040	89 41 14	 mov	 DWORD PTR [ecx+20], eax
  00043	57		 push	 edi
  00044	89 44 24 20	 mov	 DWORD PTR __$EHRec$[esp+44], eax
  00048	88 41 04	 mov	 BYTE PTR [ecx+4], al
  0004b	e8 00 00 00 00	 call	 ?assign@?$basic_string@DU?$char_traits@D@std@@V?$allocator@D@2@@std@@QAEAAV12@ABV12@II@Z ; std::basic_string<char,std::char_traits<char>,std::allocator<char> >::assign
  00050	8b 4c 24 0c	 mov	 ecx, DWORD PTR __$EHRec$[esp+24]
  00054	5f		 pop	 edi
  00055	8b c6		 mov	 eax, esi
  00057	5e		 pop	 esi
  00058	64 89 0d 00 00
	00 00		 mov	 DWORD PTR fs:__except_list, ecx
  0005f	83 c4 10	 add	 esp, 16			; 00000010H
  00062	c2 04 00	 ret	 4
_TEXT	ENDS
;	COMDAT text$x
text$x	SEGMENT
$L275689:
  00000	8b 4d f0	 mov	 ecx, DWORD PTR _this$[ebp]
  00003	e9 00 00 00 00	 jmp	 ??1exception@@UAE@XZ	; exception::~exception
__ehhandler$??0logic_error@std@@QAE@ABV01@@Z:
  00008	b8 00 00 00 00	 mov	 eax, OFFSET FLAT:$T275787
  0000d	e9 00 00 00 00	 jmp	 ___CxxFrameHandler
text$x	ENDS
??0logic_error@std@@QAE@ABV01@@Z ENDP			; std::logic_error::logic_error
; Function compile flags: /Ogty
;	COMDAT ??0length_error@std@@QAE@ABV01@@Z
_TEXT	SEGMENT
___that$ = 8						; size = 4
??0length_error@std@@QAE@ABV01@@Z PROC NEAR		; std::length_error::length_error, COMDAT
; _this$ = ecx
  00000	8b 44 24 04	 mov	 eax, DWORD PTR ___that$[esp-4]
  00004	56		 push	 esi
  00005	50		 push	 eax
  00006	8b f1		 mov	 esi, ecx
  00008	e8 00 00 00 00	 call	 ??0logic_error@std@@QAE@ABV01@@Z
  0000d	c7 06 00 00 00
	00		 mov	 DWORD PTR [esi], OFFSET FLAT:??_7length_error@std@@6B@
  00013	8b c6		 mov	 eax, esi
  00015	5e		 pop	 esi
  00016	c2 04 00	 ret	 4
??0length_error@std@@QAE@ABV01@@Z ENDP			; std::length_error::length_error
_TEXT	ENDS
PUBLIC	?_Insert_n@?$vector@KV?$allocator@K@std@@@std@@IAEXViterator@12@IABK@Z ; std::vector<unsigned long,std::allocator<unsigned long> >::_Insert_n
; Function compile flags: /Ogty
;	COMDAT ?_Insert_n@?$vector@KV?$allocator@K@std@@@std@@IAEXViterator@12@IABK@Z
_TEXT	SEGMENT
__Newvec$267275 = -4					; size = 4
tv393 = 8						; size = 4
__Where$ = 8						; size = 4
tv382 = 12						; size = 4
__Count$ = 12						; size = 4
__Tmp$ = 16						; size = 4
__Val$ = 16						; size = 4
?_Insert_n@?$vector@KV?$allocator@K@std@@@std@@IAEXViterator@12@IABK@Z PROC NEAR ; std::vector<unsigned long,std::allocator<unsigned long> >::_Insert_n, COMDAT
; _this$ = ecx

; 809  : 		{	// insert _Count * _Val at _Where

  00000	51		 push	 ecx

; 810  : 		_Ty _Tmp = _Val;	// in case _Val is in sequence

  00001	8b 44 24 10	 mov	 eax, DWORD PTR __Val$[esp]
  00005	56		 push	 esi
  00006	8b f1		 mov	 esi, ecx

; 811  : 		size_type _Capacity = capacity();

  00008	8b 56 04	 mov	 edx, DWORD PTR [esi+4]
  0000b	85 d2		 test	 edx, edx
  0000d	8b 08		 mov	 ecx, DWORD PTR [eax]
  0000f	57		 push	 edi
  00010	89 4c 24 18	 mov	 DWORD PTR __Tmp$[esp+8], ecx
  00014	75 04		 jne	 SHORT $L275809
  00016	33 c0		 xor	 eax, eax
  00018	eb 08		 jmp	 SHORT $L275810
$L275809:
  0001a	8b 46 0c	 mov	 eax, DWORD PTR [esi+12]
  0001d	2b c2		 sub	 eax, edx
  0001f	c1 f8 02	 sar	 eax, 2
$L275810:

; 812  : 
; 813  : 		if (_Count == 0)

  00022	8b 7c 24 14	 mov	 edi, DWORD PTR __Count$[esp+8]
  00026	85 ff		 test	 edi, edi
  00028	0f 84 ac 01 00
	00		 je	 $L267295

; 814  : 			;
; 815  : 		else if (max_size() - size() < _Count)

  0002e	85 d2		 test	 edx, edx
  00030	75 04		 jne	 SHORT $L275832
  00032	33 c9		 xor	 ecx, ecx
  00034	eb 08		 jmp	 SHORT $L275833
$L275832:
  00036	8b 4e 08	 mov	 ecx, DWORD PTR [esi+8]
  00039	2b ca		 sub	 ecx, edx
  0003b	c1 f9 02	 sar	 ecx, 2
$L275833:
  0003e	53		 push	 ebx
  0003f	bb ff ff ff 3f	 mov	 ebx, 1073741823		; 3fffffffH
  00044	2b d9		 sub	 ebx, ecx
  00046	3b df		 cmp	 ebx, edi
  00048	73 07		 jae	 SHORT $L267271

; 816  : 			_Xlen();	// result too long

  0004a	8b ce		 mov	 ecx, esi
  0004c	e8 00 00 00 00	 call	 ?_Xlen@?$vector@KV?$allocator@K@std@@@std@@IBEXXZ ; std::vector<unsigned long,std::allocator<unsigned long> >::_Xlen
$L275964:
$L267271:

; 817  : 		else if (_Capacity < size() + _Count)

  00051	85 d2		 test	 edx, edx
  00053	75 04		 jne	 SHORT $L275839
  00055	33 c9		 xor	 ecx, ecx
  00057	eb 08		 jmp	 SHORT $L275840
$L275839:
  00059	8b 4e 08	 mov	 ecx, DWORD PTR [esi+8]
  0005c	2b ca		 sub	 ecx, edx
  0005e	c1 f9 02	 sar	 ecx, 2
$L275840:
  00061	03 cf		 add	 ecx, edi
  00063	3b c1		 cmp	 eax, ecx
  00065	55		 push	 ebp
  00066	0f 83 d6 00 00
	00		 jae	 $L267273

; 818  : 			{	// not enough room, reallocate
; 819  : 			_Capacity = max_size() - _Capacity / 2 < _Capacity
; 820  : 				? 0 : _Capacity + _Capacity / 2;	// try to grow by 50%

  0006c	8b c8		 mov	 ecx, eax
  0006e	d1 e9		 shr	 ecx, 1
  00070	bb ff ff ff 3f	 mov	 ebx, 1073741823		; 3fffffffH
  00075	2b d9		 sub	 ebx, ecx
  00077	3b d8		 cmp	 ebx, eax
  00079	73 04		 jae	 SHORT $L275799
  0007b	33 c0		 xor	 eax, eax
  0007d	eb 02		 jmp	 SHORT $L275800
$L275799:
  0007f	03 c1		 add	 eax, ecx
$L275800:

; 821  : 			if (_Capacity < size() + _Count)

  00081	85 d2		 test	 edx, edx
  00083	75 04		 jne	 SHORT $L275862
  00085	33 c9		 xor	 ecx, ecx
  00087	eb 08		 jmp	 SHORT $L275863
$L275862:
  00089	8b 4e 08	 mov	 ecx, DWORD PTR [esi+8]
  0008c	2b ca		 sub	 ecx, edx
  0008e	c1 f9 02	 sar	 ecx, 2
$L275863:
  00091	03 cf		 add	 ecx, edi
  00093	3b c1		 cmp	 eax, ecx
  00095	73 12		 jae	 SHORT $L267274

; 822  : 				_Capacity = size() + _Count;

  00097	85 d2		 test	 edx, edx
  00099	75 04		 jne	 SHORT $L275869
  0009b	33 c0		 xor	 eax, eax
  0009d	eb 08		 jmp	 SHORT $L275870
$L275869:
  0009f	8b 46 08	 mov	 eax, DWORD PTR [esi+8]
  000a2	2b c2		 sub	 eax, edx
  000a4	c1 f8 02	 sar	 eax, 2
$L275870:
  000a7	03 c7		 add	 eax, edi
$L267274:

; 823  : 			pointer _Newvec = this->_Alval.allocate(_Capacity);

  000a9	c1 e0 02	 shl	 eax, 2
  000ac	50		 push	 eax
  000ad	89 44 24 20	 mov	 DWORD PTR tv382[esp+20], eax
  000b1	e8 00 00 00 00	 call	 ??2@YAPAXI@Z		; operator new

; 824  : 			pointer _Ptr = _Newvec;
; 825  : 
; 826  : 			_TRY_BEGIN
; 827  : 			_Ptr = _Ucopy(_Myfirst, _ITER_BASE(_Where),
; 828  : 				_Newvec);	// copy prefix

  000b6	8b 4e 04	 mov	 ecx, DWORD PTR [esi+4]
  000b9	8b 5c 24 1c	 mov	 ebx, DWORD PTR __Where$[esp+20]
  000bd	8b d0		 mov	 edx, eax
  000bf	8b c3		 mov	 eax, ebx
  000c1	2b c1		 sub	 eax, ecx
  000c3	c1 f8 02	 sar	 eax, 2
  000c6	8d 2c 85 00 00
	00 00		 lea	 ebp, DWORD PTR [eax*4]
  000cd	55		 push	 ebp
  000ce	51		 push	 ecx
  000cf	52		 push	 edx
  000d0	89 54 24 20	 mov	 DWORD PTR __Newvec$267275[esp+36], edx
  000d4	e8 00 00 00 00	 call	 _memmove
  000d9	83 c4 10	 add	 esp, 16			; 00000010H

; 829  : 			_Ptr = _Ufill(_Ptr, _Count, _Tmp);	// add new stuff

  000dc	8d 54 24 20	 lea	 edx, DWORD PTR __Tmp$[esp+16]
  000e0	52		 push	 edx
  000e1	03 c5		 add	 eax, ebp
  000e3	57		 push	 edi
  000e4	50		 push	 eax
  000e5	8b ce		 mov	 ecx, esi
  000e7	e8 00 00 00 00	 call	 ?_Ufill@?$vector@KV?$allocator@K@std@@@std@@IAEPAKPAKIABK@Z ; std::vector<unsigned long,std::allocator<unsigned long> >::_Ufill

; 830  : 			_Ucopy(_ITER_BASE(_Where), _Mylast, _Ptr);	// copy suffix

  000ec	8b 4e 08	 mov	 ecx, DWORD PTR [esi+8]
  000ef	2b cb		 sub	 ecx, ebx
  000f1	c1 f9 02	 sar	 ecx, 2
  000f4	c1 e1 02	 shl	 ecx, 2
  000f7	51		 push	 ecx
  000f8	53		 push	 ebx
  000f9	50		 push	 eax
  000fa	e8 00 00 00 00	 call	 _memmove

; 831  : 			_CATCH_ALL
; 832  : 			_Destroy(_Newvec, _Ptr);
; 833  : 			this->_Alval.deallocate(_Newvec, _Capacity);
; 834  : 			_RERAISE;
; 835  : 			_CATCH_END
; 836  : 
; 837  : 			_Count += size();

  000ff	8b 46 04	 mov	 eax, DWORD PTR [esi+4]
  00102	83 c4 0c	 add	 esp, 12			; 0000000cH
  00105	85 c0		 test	 eax, eax
  00107	75 04		 jne	 SHORT $L275951
  00109	33 c9		 xor	 ecx, ecx
  0010b	eb 08		 jmp	 SHORT $L275952
$L275951:
  0010d	8b 4e 08	 mov	 ecx, DWORD PTR [esi+8]
  00110	2b c8		 sub	 ecx, eax
  00112	c1 f9 02	 sar	 ecx, 2
$L275952:
  00115	03 f9		 add	 edi, ecx

; 838  : 			if (_Myfirst != 0)

  00117	85 c0		 test	 eax, eax
  00119	74 09		 je	 SHORT $L275955

; 839  : 				{	// destroy and deallocate old array
; 840  : 				_Destroy(_Myfirst, _Mylast);
; 841  : 				this->_Alval.deallocate(_Myfirst, _Myend - _Myfirst);

  0011b	50		 push	 eax
  0011c	e8 00 00 00 00	 call	 ??3@YAXPAX@Z		; operator delete
  00121	83 c4 04	 add	 esp, 4
$L275955:

; 842  : 				}
; 843  : 			_Myend = _Newvec + _Capacity;

  00124	8b 44 24 10	 mov	 eax, DWORD PTR __Newvec$267275[esp+20]
  00128	8b 54 24 1c	 mov	 edx, DWORD PTR tv382[esp+16]
  0012c	5d		 pop	 ebp
  0012d	5b		 pop	 ebx

; 844  : 			_Mylast = _Newvec + _Count;

  0012e	8d 0c b8	 lea	 ecx, DWORD PTR [eax+edi*4]
  00131	03 d0		 add	 edx, eax
  00133	5f		 pop	 edi
  00134	89 56 0c	 mov	 DWORD PTR [esi+12], edx
  00137	89 4e 08	 mov	 DWORD PTR [esi+8], ecx

; 845  : 			_Myfirst = _Newvec;

  0013a	89 46 04	 mov	 DWORD PTR [esi+4], eax
  0013d	5e		 pop	 esi

; 873  : 			}
; 874  : 		}

  0013e	59		 pop	 ecx
  0013f	c2 0c 00	 ret	 12			; 0000000cH
$L267273:

; 846  : 			}
; 847  : 		else if ((size_type)(_Mylast - _ITER_BASE(_Where)) < _Count)

  00142	8b 6e 08	 mov	 ebp, DWORD PTR [esi+8]
  00145	8b 5c 24 18	 mov	 ebx, DWORD PTR __Where$[esp+16]
  00149	8b d5		 mov	 edx, ebp
  0014b	2b d3		 sub	 edx, ebx
  0014d	c1 fa 02	 sar	 edx, 2
  00150	3b d7		 cmp	 edx, edi

; 848  : 			{	// new stuff spills off end
; 849  : 			_Ucopy(_ITER_BASE(_Where), _Mylast,
; 850  : 				_ITER_BASE(_Where) + _Count);	// copy suffix

  00152	8d 04 bd 00 00
	00 00		 lea	 eax, DWORD PTR [edi*4]
  00159	8b ce		 mov	 ecx, esi
  0015b	89 44 24 18	 mov	 DWORD PTR tv393[esp+16], eax
  0015f	73 4b		 jae	 SHORT $L267286
  00161	03 c3		 add	 eax, ebx
  00163	50		 push	 eax
  00164	55		 push	 ebp
  00165	53		 push	 ebx
  00166	e8 00 00 00 00	 call	 ??$_Ucopy@PAK@?$vector@KV?$allocator@K@std@@@std@@IAEPAKPAK00@Z ; std::vector<unsigned long,std::allocator<unsigned long> >::_Ucopy<unsigned long *>

; 851  : 
; 852  : 			_TRY_BEGIN
; 853  : 			_Ufill(_Mylast, _Count - (_Mylast - _ITER_BASE(_Where)),
; 854  : 				_Tmp);	// insert new stuff off end

  0016b	8b 46 08	 mov	 eax, DWORD PTR [esi+8]
  0016e	8b d0		 mov	 edx, eax
  00170	2b d3		 sub	 edx, ebx
  00172	8d 4c 24 20	 lea	 ecx, DWORD PTR __Tmp$[esp+16]
  00176	51		 push	 ecx
  00177	c1 fa 02	 sar	 edx, 2
  0017a	2b fa		 sub	 edi, edx
  0017c	57		 push	 edi
  0017d	50		 push	 eax
  0017e	8b ce		 mov	 ecx, esi
  00180	e8 00 00 00 00	 call	 ?_Ufill@?$vector@KV?$allocator@K@std@@@std@@IAEPAKPAKIABK@Z ; std::vector<unsigned long,std::allocator<unsigned long> >::_Ufill

; 855  : 			_CATCH_ALL
; 856  : 			_Destroy(_ITER_BASE(_Where) + _Count, _Mylast + _Count);
; 857  : 			_RERAISE;
; 858  : 			_CATCH_END
; 859  : 
; 860  : 			_Mylast += _Count;

  00185	8b 4e 08	 mov	 ecx, DWORD PTR [esi+8]
  00188	8b 44 24 18	 mov	 eax, DWORD PTR tv393[esp+16]
  0018c	03 c8		 add	 ecx, eax
  0018e	89 4e 08	 mov	 DWORD PTR [esi+8], ecx
  00191	8b f1		 mov	 esi, ecx

; 861  : 			fill(_ITER_BASE(_Where), _Mylast - _Count,
; 862  : 				_Tmp);	// insert up to old end

  00193	8d 4c 24 20	 lea	 ecx, DWORD PTR __Tmp$[esp+16]
  00197	51		 push	 ecx
  00198	2b f0		 sub	 esi, eax
  0019a	56		 push	 esi
  0019b	53		 push	 ebx
  0019c	e8 00 00 00 00	 call	 ??$fill@PAKK@std@@YAXPAK0ABK@Z ; std::fill<unsigned long *,unsigned long>
  001a1	83 c4 0c	 add	 esp, 12			; 0000000cH
  001a4	5d		 pop	 ebp
  001a5	5b		 pop	 ebx
  001a6	5f		 pop	 edi
  001a7	5e		 pop	 esi

; 873  : 			}
; 874  : 		}

  001a8	59		 pop	 ecx
  001a9	c2 0c 00	 ret	 12			; 0000000cH
$L267286:

; 863  : 			}
; 864  : 		else
; 865  : 			{	// new stuff can all be assigned
; 866  : 			pointer _Oldend = _Mylast;
; 867  : 			_Mylast = _Ucopy(_Oldend - _Count, _Oldend,
; 868  : 				_Mylast);	// copy suffix

  001ac	55		 push	 ebp
  001ad	8b fd		 mov	 edi, ebp
  001af	2b f8		 sub	 edi, eax
  001b1	55		 push	 ebp
  001b2	57		 push	 edi
  001b3	e8 00 00 00 00	 call	 ??$_Ucopy@PAK@?$vector@KV?$allocator@K@std@@@std@@IAEPAKPAK00@Z ; std::vector<unsigned long,std::allocator<unsigned long> >::_Ucopy<unsigned long *>

; 869  : 			copy_backward(_ITER_BASE(_Where), _Oldend - _Count,
; 870  : 				_Oldend);	// copy hole

  001b8	55		 push	 ebp
  001b9	57		 push	 edi
  001ba	53		 push	 ebx
  001bb	89 46 08	 mov	 DWORD PTR [esi+8], eax
  001be	e8 00 00 00 00	 call	 ??$copy_backward@PAKPAK@std@@YAPAKPAK00@Z ; std::copy_backward<unsigned long *,unsigned long *>

; 871  : 			fill(_ITER_BASE(_Where), _ITER_BASE(_Where) + _Count,
; 872  : 				_Tmp);	// insert into hole

  001c3	8b 44 24 24	 mov	 eax, DWORD PTR tv393[esp+28]
  001c7	8d 54 24 2c	 lea	 edx, DWORD PTR __Tmp$[esp+28]
  001cb	52		 push	 edx
  001cc	03 c3		 add	 eax, ebx
  001ce	50		 push	 eax
  001cf	53		 push	 ebx
  001d0	e8 00 00 00 00	 call	 ??$fill@PAKK@std@@YAXPAK0ABK@Z ; std::fill<unsigned long *,unsigned long>
  001d5	83 c4 18	 add	 esp, 24			; 00000018H
  001d8	5d		 pop	 ebp
  001d9	5b		 pop	 ebx
$L267295:
  001da	5f		 pop	 edi
  001db	5e		 pop	 esi

; 873  : 			}
; 874  : 		}

  001dc	59		 pop	 ecx
  001dd	c2 0c 00	 ret	 12			; 0000000cH
$L275963:
?_Insert_n@?$vector@KV?$allocator@K@std@@@std@@IAEXViterator@12@IABK@Z ENDP ; std::vector<unsigned long,std::allocator<unsigned long> >::_Insert_n
_TEXT	ENDS
PUBLIC	?_Buy@?$vector@KV?$allocator@K@std@@@std@@IAE_NI@Z ; std::vector<unsigned long,std::allocator<unsigned long> >::_Buy
; Function compile flags: /Ogty
;	COMDAT ?_Buy@?$vector@KV?$allocator@K@std@@@std@@IAE_NI@Z
_TEXT	SEGMENT
__Capacity$ = 8						; size = 4
?_Buy@?$vector@KV?$allocator@K@std@@@std@@IAE_NI@Z PROC NEAR ; std::vector<unsigned long,std::allocator<unsigned long> >::_Buy, COMDAT
; _this$ = ecx

; 771  : 		_Myfirst = 0, _Mylast = 0, _Myend = 0;
; 772  : 		if (_Capacity == 0)

  00000	8b 44 24 04	 mov	 eax, DWORD PTR __Capacity$[esp-4]
  00004	56		 push	 esi
  00005	8b f1		 mov	 esi, ecx
  00007	33 c9		 xor	 ecx, ecx
  00009	3b c1		 cmp	 eax, ecx
  0000b	89 4e 04	 mov	 DWORD PTR [esi+4], ecx
  0000e	89 4e 08	 mov	 DWORD PTR [esi+8], ecx
  00011	89 4e 0c	 mov	 DWORD PTR [esi+12], ecx
  00014	75 06		 jne	 SHORT $L220539

; 773  : 			return (false);

  00016	32 c0		 xor	 al, al
  00018	5e		 pop	 esi

; 783  : 		}

  00019	c2 04 00	 ret	 4
$L220539:

; 774  : 		else if (max_size() < _Capacity)

  0001c	3d ff ff ff 3f	 cmp	 eax, 1073741823		; 3fffffffH
  00021	76 07		 jbe	 SHORT $L220541

; 775  : 			_Xlen();	// result too long

  00023	8b ce		 mov	 ecx, esi
  00025	e8 00 00 00 00	 call	 ?_Xlen@?$vector@KV?$allocator@K@std@@@std@@IBEXXZ ; std::vector<unsigned long,std::allocator<unsigned long> >::_Xlen
$L275993:
$L220541:
  0002a	57		 push	 edi

; 776  : 		else
; 777  : 			{	// nonempty array, allocate storage
; 778  : 			_Myfirst = this->_Alval.allocate(_Capacity);

  0002b	8d 3c 85 00 00
	00 00		 lea	 edi, DWORD PTR [eax*4]
  00032	57		 push	 edi
  00033	e8 00 00 00 00	 call	 ??2@YAPAXI@Z		; operator new

; 779  : 			_Mylast = _Myfirst;
; 780  : 			_Myend = _Myfirst + _Capacity;

  00038	03 f8		 add	 edi, eax
  0003a	83 c4 04	 add	 esp, 4
  0003d	89 7e 0c	 mov	 DWORD PTR [esi+12], edi
  00040	89 46 04	 mov	 DWORD PTR [esi+4], eax
  00043	89 46 08	 mov	 DWORD PTR [esi+8], eax
  00046	5f		 pop	 edi

; 781  : 			}
; 782  : 		return (true);

  00047	b0 01		 mov	 al, 1
  00049	5e		 pop	 esi

; 783  : 		}

  0004a	c2 04 00	 ret	 4
$L275992:
?_Buy@?$vector@KV?$allocator@K@std@@@std@@IAE_NI@Z ENDP	; std::vector<unsigned long,std::allocator<unsigned long> >::_Buy
_TEXT	ENDS
PUBLIC	?insert@?$vector@KV?$allocator@K@std@@@std@@QAE?AViterator@12@V312@ABK@Z ; std::vector<unsigned long,std::allocator<unsigned long> >::insert
; Function compile flags: /Ogty
;	COMDAT ?insert@?$vector@KV?$allocator@K@std@@@std@@QAE?AViterator@12@V312@ABK@Z
_TEXT	SEGMENT
___$ReturnUdt$ = 8					; size = 4
__Where$ = 12						; size = 4
__Val$ = 16						; size = 4
?insert@?$vector@KV?$allocator@K@std@@@std@@QAE?AViterator@12@V312@ABK@Z PROC NEAR ; std::vector<unsigned long,std::allocator<unsigned long> >::insert, COMDAT
; _this$ = ecx

; 621  : 		size_type _Off = size() == 0 ? 0 : _Where - begin();

  00000	8b 54 24 08	 mov	 edx, DWORD PTR __Where$[esp-4]
  00004	56		 push	 esi
  00005	57		 push	 edi
  00006	8b f9		 mov	 edi, ecx
  00008	8b 4f 04	 mov	 ecx, DWORD PTR [edi+4]
  0000b	85 c9		 test	 ecx, ecx
  0000d	74 0c		 je	 SHORT $L276059
  0000f	8b 47 08	 mov	 eax, DWORD PTR [edi+8]
  00012	2b c1		 sub	 eax, ecx
  00014	c1 f8 02	 sar	 eax, 2
  00017	85 c0		 test	 eax, eax
  00019	75 04		 jne	 SHORT $L275998
$L276059:
  0001b	33 f6		 xor	 esi, esi
  0001d	eb 07		 jmp	 SHORT $L275999
$L275998:
  0001f	8b f2		 mov	 esi, edx
  00021	2b f1		 sub	 esi, ecx
  00023	c1 fe 02	 sar	 esi, 2
$L275999:

; 622  : 		_Insert_n(_Where, (size_type)1, _Val);

  00026	8b 44 24 14	 mov	 eax, DWORD PTR __Val$[esp+4]
  0002a	50		 push	 eax
  0002b	6a 01		 push	 1
  0002d	52		 push	 edx
  0002e	8b cf		 mov	 ecx, edi
  00030	e8 00 00 00 00	 call	 ?_Insert_n@?$vector@KV?$allocator@K@std@@@std@@IAEXViterator@12@IABK@Z ; std::vector<unsigned long,std::allocator<unsigned long> >::_Insert_n

; 623  : 		return (begin() + _Off);

  00035	8b 4f 04	 mov	 ecx, DWORD PTR [edi+4]
  00038	8b 44 24 0c	 mov	 eax, DWORD PTR ___$ReturnUdt$[esp+4]
  0003c	8d 14 b1	 lea	 edx, DWORD PTR [ecx+esi*4]
  0003f	5f		 pop	 edi
  00040	89 10		 mov	 DWORD PTR [eax], edx
  00042	5e		 pop	 esi

; 624  : 		}

  00043	c2 0c 00	 ret	 12			; 0000000cH
?insert@?$vector@KV?$allocator@K@std@@@std@@QAE?AViterator@12@V312@ABK@Z ENDP ; std::vector<unsigned long,std::allocator<unsigned long> >::insert
_TEXT	ENDS
PUBLIC	??0?$vector@KV?$allocator@K@std@@@std@@QAE@XZ	; std::vector<unsigned long,std::allocator<unsigned long> >::vector<unsigned long,std::allocator<unsigned long> >
; Function compile flags: /Ogty
;	COMDAT ??0?$vector@KV?$allocator@K@std@@@std@@QAE@XZ
_TEXT	SEGMENT
??0?$vector@KV?$allocator@K@std@@@std@@QAE@XZ PROC NEAR	; std::vector<unsigned long,std::allocator<unsigned long> >::vector<unsigned long,std::allocator<unsigned long> >, COMDAT
; _this$ = ecx

; 299  : 		{	// construct empty vector

  00000	8b c1		 mov	 eax, ecx

; 300  : 		_Buy(0);

  00002	33 c9		 xor	 ecx, ecx
  00004	89 48 04	 mov	 DWORD PTR [eax+4], ecx
  00007	89 48 08	 mov	 DWORD PTR [eax+8], ecx
  0000a	89 48 0c	 mov	 DWORD PTR [eax+12], ecx

; 301  : 		}

  0000d	c3		 ret	 0
??0?$vector@KV?$allocator@K@std@@@std@@QAE@XZ ENDP	; std::vector<unsigned long,std::allocator<unsigned long> >::vector<unsigned long,std::allocator<unsigned long> >
_TEXT	ENDS
PUBLIC	??0CAIAggro@@QAE@XZ				; CAIAggro::CAIAggro
EXTRN	??0CAIInterface@@QAE@XZ:NEAR			; CAIInterface::CAIInterface
;	COMDAT xdata$x
; File c:\program files\microsoft visual studio .net 2003\vc7\include\xmemory
xdata$x	SEGMENT
$T276237 DD	0ffffffffH
	DD	FLAT:$L276123
	DD	00H
	DD	FLAT:$L276124
	DD	01H
	DD	FLAT:$L276125
$T276235 DD	019930520H
	DD	03H
	DD	FLAT:$T276237
	DD	2 DUP(00H)
	DD	2 DUP(00H)
; Function compile flags: /Ogty
; File c:\documents and settings\test\mes documents\source\virtuos_v17\build\program\_aiinterface\aiaggro.cpp
xdata$x	ENDS
;	COMDAT ??0CAIAggro@@QAE@XZ
_TEXT	SEGMENT
_this$ = -16						; size = 4
__$EHRec$ = -12						; size = 12
??0CAIAggro@@QAE@XZ PROC NEAR				; CAIAggro::CAIAggro, COMDAT
; _this$ = ecx

; 76   : {

  00000	6a ff		 push	 -1
  00002	68 00 00 00 00	 push	 __ehhandler$??0CAIAggro@@QAE@XZ
  00007	64 a1 00 00 00
	00		 mov	 eax, DWORD PTR fs:__except_list
  0000d	50		 push	 eax
  0000e	64 89 25 00 00
	00 00		 mov	 DWORD PTR fs:__except_list, esp
  00015	51		 push	 ecx
  00016	56		 push	 esi
  00017	8b f1		 mov	 esi, ecx
  00019	57		 push	 edi
  0001a	89 74 24 08	 mov	 DWORD PTR _this$[esp+24], esi
  0001e	e8 00 00 00 00	 call	 ??0CAIInterface@@QAE@XZ	; CAIInterface::CAIInterface
  00023	33 ff		 xor	 edi, edi
  00025	8d 8e a0 00 00
	00		 lea	 ecx, DWORD PTR [esi+160]
  0002b	89 7c 24 14	 mov	 DWORD PTR __$EHRec$[esp+32], edi
  0002f	c7 06 00 00 00
	00		 mov	 DWORD PTR [esi], OFFSET FLAT:??_7CAIAggro@@6B@
  00035	e8 00 00 00 00	 call	 ??0CTimer@@QAE@XZ	; CTimer::CTimer
  0003a	89 be ec 00 00
	00		 mov	 DWORD PTR [esi+236], edi
  00040	89 be f0 00 00
	00		 mov	 DWORD PTR [esi+240], edi
  00046	89 be f4 00 00
	00		 mov	 DWORD PTR [esi+244], edi

; 77   : 	m_dwAIInterface = 0;
; 78   : 	Init();

  0004c	8b ce		 mov	 ecx, esi
  0004e	c6 44 24 14 02	 mov	 BYTE PTR __$EHRec$[esp+32], 2
  00053	89 7e 38	 mov	 DWORD PTR [esi+56], edi
  00056	e8 00 00 00 00	 call	 ?Init@CAIAggro@@IAEXXZ	; CAIAggro::Init

; 79   : }

  0005b	8b 4c 24 0c	 mov	 ecx, DWORD PTR __$EHRec$[esp+24]
  0005f	5f		 pop	 edi
  00060	8b c6		 mov	 eax, esi
  00062	5e		 pop	 esi
  00063	64 89 0d 00 00
	00 00		 mov	 DWORD PTR fs:__except_list, ecx
  0006a	83 c4 10	 add	 esp, 16			; 00000010H
  0006d	c3		 ret	 0
_TEXT	ENDS
;	COMDAT text$x
text$x	SEGMENT
$L276123:
  00000	8b 4d f0	 mov	 ecx, DWORD PTR _this$[ebp]
  00003	e9 00 00 00 00	 jmp	 ??1CAIInterface@@UAE@XZ	; CAIInterface::~CAIInterface
$L276124:
  00008	8b 4d f0	 mov	 ecx, DWORD PTR _this$[ebp]
  0000b	81 c1 88 00 00
	00		 add	 ecx, 136		; 00000088H
  00011	e9 00 00 00 00	 jmp	 ??1_VECINFO@@QAE@XZ
$L276125:
  00016	8b 4d f0	 mov	 ecx, DWORD PTR _this$[ebp]
  00019	81 c1 e8 00 00
	00		 add	 ecx, 232		; 000000e8H
  0001f	e9 00 00 00 00	 jmp	 ??1?$vector@KV?$allocator@K@std@@@std@@QAE@XZ ; std::vector<unsigned long,std::allocator<unsigned long> >::~vector<unsigned long,std::allocator<unsigned long> >
__ehhandler$??0CAIAggro@@QAE@XZ:
  00024	b8 00 00 00 00	 mov	 eax, OFFSET FLAT:$T276235
  00029	e9 00 00 00 00	 jmp	 ___CxxFrameHandler
text$x	ENDS
??0CAIAggro@@QAE@XZ ENDP				; CAIAggro::CAIAggro
PUBLIC	??0CAIAggro@@QAE@PAVCObj@@K@Z			; CAIAggro::CAIAggro
EXTRN	??0CAIInterface@@QAE@PAVCObj@@@Z:NEAR		; CAIInterface::CAIInterface
;	COMDAT xdata$x
; File c:\program files\microsoft visual studio .net 2003\vc7\include\xmemory
xdata$x	SEGMENT
$T276357 DD	0ffffffffH
	DD	FLAT:$L276243
	DD	00H
	DD	FLAT:$L276244
	DD	01H
	DD	FLAT:$L276245
$T276355 DD	019930520H
	DD	03H
	DD	FLAT:$T276357
	DD	2 DUP(00H)
	DD	2 DUP(00H)
; Function compile flags: /Ogty
; File c:\documents and settings\test\mes documents\source\virtuos_v17\build\program\_aiinterface\aiaggro.cpp
xdata$x	ENDS
;	COMDAT ??0CAIAggro@@QAE@PAVCObj@@K@Z
_TEXT	SEGMENT
_this$ = -16						; size = 4
__$EHRec$ = -12						; size = 12
_pObj$ = 8						; size = 4
_dwAIInterface$ = 12					; size = 4
??0CAIAggro@@QAE@PAVCObj@@K@Z PROC NEAR			; CAIAggro::CAIAggro, COMDAT
; _this$ = ecx

; 82   : {

  00000	6a ff		 push	 -1
  00002	68 00 00 00 00	 push	 __ehhandler$??0CAIAggro@@QAE@PAVCObj@@K@Z
  00007	64 a1 00 00 00
	00		 mov	 eax, DWORD PTR fs:__except_list
  0000d	50		 push	 eax
  0000e	64 89 25 00 00
	00 00		 mov	 DWORD PTR fs:__except_list, esp
  00015	51		 push	 ecx
  00016	8b 44 24 14	 mov	 eax, DWORD PTR _pObj$[esp+12]
  0001a	56		 push	 esi
  0001b	57		 push	 edi
  0001c	8b f1		 mov	 esi, ecx
  0001e	50		 push	 eax
  0001f	89 74 24 0c	 mov	 DWORD PTR _this$[esp+28], esi
  00023	e8 00 00 00 00	 call	 ??0CAIInterface@@QAE@PAVCObj@@@Z ; CAIInterface::CAIInterface
  00028	33 ff		 xor	 edi, edi
  0002a	8d 8e a0 00 00
	00		 lea	 ecx, DWORD PTR [esi+160]
  00030	89 7c 24 14	 mov	 DWORD PTR __$EHRec$[esp+32], edi
  00034	c7 06 00 00 00
	00		 mov	 DWORD PTR [esi], OFFSET FLAT:??_7CAIAggro@@6B@
  0003a	e8 00 00 00 00	 call	 ??0CTimer@@QAE@XZ	; CTimer::CTimer
  0003f	89 be ec 00 00
	00		 mov	 DWORD PTR [esi+236], edi
  00045	89 be f0 00 00
	00		 mov	 DWORD PTR [esi+240], edi
  0004b	89 be f4 00 00
	00		 mov	 DWORD PTR [esi+244], edi

; 83   : 	m_dwAIInterface = dwAIInterface;

  00051	8b 4c 24 20	 mov	 ecx, DWORD PTR _dwAIInterface$[esp+20]
  00055	89 4e 38	 mov	 DWORD PTR [esi+56], ecx

; 84   : 	Init();

  00058	8b ce		 mov	 ecx, esi
  0005a	c6 44 24 14 02	 mov	 BYTE PTR __$EHRec$[esp+32], 2
  0005f	e8 00 00 00 00	 call	 ?Init@CAIAggro@@IAEXXZ	; CAIAggro::Init

; 85   : }

  00064	8b 4c 24 0c	 mov	 ecx, DWORD PTR __$EHRec$[esp+24]
  00068	5f		 pop	 edi
  00069	8b c6		 mov	 eax, esi
  0006b	5e		 pop	 esi
  0006c	64 89 0d 00 00
	00 00		 mov	 DWORD PTR fs:__except_list, ecx
  00073	83 c4 10	 add	 esp, 16			; 00000010H
  00076	c2 08 00	 ret	 8
_TEXT	ENDS
;	COMDAT text$x
text$x	SEGMENT
$L276243:
  00000	8b 4d f0	 mov	 ecx, DWORD PTR _this$[ebp]
  00003	e9 00 00 00 00	 jmp	 ??1CAIInterface@@UAE@XZ	; CAIInterface::~CAIInterface
$L276244:
  00008	8b 4d f0	 mov	 ecx, DWORD PTR _this$[ebp]
  0000b	81 c1 88 00 00
	00		 add	 ecx, 136		; 00000088H
  00011	e9 00 00 00 00	 jmp	 ??1_VECINFO@@QAE@XZ
$L276245:
  00016	8b 4d f0	 mov	 ecx, DWORD PTR _this$[ebp]
  00019	81 c1 e8 00 00
	00		 add	 ecx, 232		; 000000e8H
  0001f	e9 00 00 00 00	 jmp	 ??1?$vector@KV?$allocator@K@std@@@std@@QAE@XZ ; std::vector<unsigned long,std::allocator<unsigned long> >::~vector<unsigned long,std::allocator<unsigned long> >
__ehhandler$??0CAIAggro@@QAE@PAVCObj@@K@Z:
  00024	b8 00 00 00 00	 mov	 eax, OFFSET FLAT:$T276355
  00029	e9 00 00 00 00	 jmp	 ___CxxFrameHandler
text$x	ENDS
??0CAIAggro@@QAE@PAVCObj@@K@Z ENDP			; CAIAggro::CAIAggro
PUBLIC	?push_back@?$vector@KV?$allocator@K@std@@@std@@QAEXABK@Z ; std::vector<unsigned long,std::allocator<unsigned long> >::push_back
; Function compile flags: /Ogty
; File c:\program files\microsoft visual studio .net 2003\vc7\include\vector
;	COMDAT ?push_back@?$vector@KV?$allocator@K@std@@@std@@QAEXABK@Z
_TEXT	SEGMENT
__Val$ = 8						; size = 4
?push_back@?$vector@KV?$allocator@K@std@@@std@@QAEXABK@Z PROC NEAR ; std::vector<unsigned long,std::allocator<unsigned long> >::push_back, COMDAT
; _this$ = ecx

; 579  : 		{	// insert element at end

  00000	56		 push	 esi

; 580  : 		if (size() < capacity())

  00001	8b 71 04	 mov	 esi, DWORD PTR [ecx+4]
  00004	85 f6		 test	 esi, esi
  00006	75 04		 jne	 SHORT $L276370
  00008	33 d2		 xor	 edx, edx
  0000a	eb 08		 jmp	 SHORT $L276371
$L276370:
  0000c	8b 51 08	 mov	 edx, DWORD PTR [ecx+8]
  0000f	2b d6		 sub	 edx, esi
  00011	c1 fa 02	 sar	 edx, 2
$L276371:
  00014	85 f6		 test	 esi, esi
  00016	74 21		 je	 SHORT $L265850
  00018	8b 41 0c	 mov	 eax, DWORD PTR [ecx+12]
  0001b	2b c6		 sub	 eax, esi
  0001d	c1 f8 02	 sar	 eax, 2
  00020	3b d0		 cmp	 edx, eax
  00022	73 15		 jae	 SHORT $L265850

; 581  : 			_Mylast = _Ufill(_Mylast, 1, _Val);

  00024	8b 41 08	 mov	 eax, DWORD PTR [ecx+8]
  00027	8b 54 24 08	 mov	 edx, DWORD PTR __Val$[esp]
  0002b	8b 12		 mov	 edx, DWORD PTR [edx]
  0002d	89 10		 mov	 DWORD PTR [eax], edx
  0002f	83 c0 04	 add	 eax, 4
  00032	89 41 08	 mov	 DWORD PTR [ecx+8], eax
  00035	5e		 pop	 esi

; 584  : 		}

  00036	c2 04 00	 ret	 4
$L265850:

; 582  : 		else
; 583  : 			insert(end(), _Val);

  00039	8b 54 24 08	 mov	 edx, DWORD PTR __Val$[esp]
  0003d	8b 41 08	 mov	 eax, DWORD PTR [ecx+8]
  00040	52		 push	 edx
  00041	6a 01		 push	 1
  00043	50		 push	 eax
  00044	e8 00 00 00 00	 call	 ?_Insert_n@?$vector@KV?$allocator@K@std@@@std@@IAEXViterator@12@IABK@Z ; std::vector<unsigned long,std::allocator<unsigned long> >::_Insert_n
  00049	5e		 pop	 esi

; 584  : 		}

  0004a	c2 04 00	 ret	 4
?push_back@?$vector@KV?$allocator@K@std@@@std@@QAEXABK@Z ENDP ; std::vector<unsigned long,std::allocator<unsigned long> >::push_back
_TEXT	ENDS
PUBLIC	??_C@_0CA@NDHMDKEO@SubSummonProcess?5?3?5?$LM?R?H?$KP?5?$LN?G?F?P?5?$CFd?$AA@ ; `string'
PUBLIC	__real@3fc00000
PUBLIC	?SubSummonProcess@CAIAggro@@IAEXPAVCMover@@@Z	; CAIAggro::SubSummonProcess
EXTRN	?AddObj@CWorld@@QAEHPAVCObj@@HH@Z:NEAR		; CWorld::AddObj
EXTRN	?xRandomF@@YAMM@Z:NEAR				; xRandomF
EXTRN	?UpdateLocalMatrix@CObj@@QAEXXZ:NEAR		; CObj::UpdateLocalMatrix
EXTRN	?CreateObj@@YAPAVCObj@@PAUIDirect3DDevice9@@KKH@Z:NEAR ; CreateObj
;	COMDAT ??_C@_0CA@NDHMDKEO@SubSummonProcess?5?3?5?$LM?R?H?$KP?5?$LN?G?F?P?5?$CFd?$AA@
; File c:\documents and settings\test\mes documents\source\virtuos_v17\build\program\_common\ctrl.h
CONST	SEGMENT
??_C@_0CA@NDHMDKEO@SubSummonProcess?5?3?5?$LM?R?H?$KP?5?$LN?G?F?P?5?$CFd?$AA@ DB 'S'
	DB	'ubSummonProcess : ', 0bcH, 0d2H, 0c8H, 0afH, ' ', 0bdH, 0c7H, 0c6H
	DB	0d0H, ' %d', 00H				; `string'
CONST	ENDS
;	COMDAT __real@3fc00000
CONST	SEGMENT
__real@3fc00000 DD 03fc00000r			; 1.5
; Function compile flags: /Ogty
; File c:\documents and settings\test\mes documents\source\virtuos_v17\build\program\_aiinterface\aiaggro.cpp
CONST	ENDS
;	COMDAT ?SubSummonProcess@CAIAggro@@IAEXPAVCMover@@@Z
_TEXT	SEGMENT
$T276584 = -44						; size = 4
$T276553 = -40						; size = 4
_pWorld$ = -40						; size = 4
_vPos$265461 = -36					; size = 12
_vLocal$265460 = -24					; size = 12
$T276552 = -12						; size = 12
_pTarget$ = 8						; size = 4
?SubSummonProcess@CAIAggro@@IAEXPAVCMover@@@Z PROC NEAR	; CAIAggro::SubSummonProcess, COMDAT
; _this$ = ecx

; 1271 : 	if( TIMEGETTIME - m_tmSummon < SEC(10) )	

  00000	a1 00 00 00 00	 mov	 eax, DWORD PTR ?g_tmCurrent@@3KA ; g_tmCurrent
  00005	83 ec 2c	 sub	 esp, 44			; 0000002cH
  00008	56		 push	 esi
  00009	8b f1		 mov	 esi, ecx
  0000b	57		 push	 edi
  0000c	8b 7e 48	 mov	 edi, DWORD PTR [esi+72]
  0000f	8b c8		 mov	 ecx, eax
  00011	2b cf		 sub	 ecx, edi
  00013	81 f9 10 27 00
	00		 cmp	 ecx, 10000		; 00002710H
  00019	0f 82 51 02 00
	00		 jb	 $L265459
  0001f	53		 push	 ebx

; 1272 : 		return;
; 1273 : 
; 1274 : 	m_tmSummon = TIMEGETTIME;
; 1275 : 
; 1276 : 	CMover* pMover = GetMover();

  00020	8b 5e 30	 mov	 ebx, DWORD PTR [esi+48]
  00023	89 46 48	 mov	 DWORD PTR [esi+72], eax

; 1277 : 	CWorld* pWorld = GetWorld();
; 1278 : 	MoverProp *pProp = pMover->GetProp();

  00026	8b 83 74 01 00
	00		 mov	 eax, DWORD PTR [ebx+372]
  0002c	85 c0		 test	 eax, eax
  0002e	8b 93 6c 01 00
	00		 mov	 edx, DWORD PTR [ebx+364]
  00034	8b 0d d0 01 00
	00		 mov	 ecx, DWORD PTR ?prj@@3VCProject@@A+464
  0003a	89 54 24 10	 mov	 DWORD PTR _pWorld$[esp+56], edx
  0003e	7c 7c		 jl	 SHORT $L276595
  00040	3b c1		 cmp	 eax, ecx
  00042	7d 78		 jge	 SHORT $L276595
  00044	8b 0d d4 01 00
	00		 mov	 ecx, DWORD PTR ?prj@@3VCProject@@A+468
  0004a	69 c0 d8 06 00
	00		 imul	 eax, 1752		; 000006d8H
  00050	03 c1		 add	 eax, ecx
  00052	8b d0		 mov	 edx, eax

; 1279 : 	if( pProp && pProp->m_nSummProb )

  00054	85 d2		 test	 edx, edx
  00056	89 54 24 0c	 mov	 DWORD PTR $T276584[esp+56], edx
  0005a	0f 84 0f 02 00
	00		 je	 $L276751
  00060	8b 82 20 02 00
	00		 mov	 eax, DWORD PTR [edx+544]
  00066	85 c0		 test	 eax, eax
  00068	0f 84 01 02 00
	00		 je	 $L276751

; 1280 : 	{
; 1281 : 		for( vector<OBJID>::iterator it = m_vecIdSummon.begin(); it!=m_vecIdSummon.end(); )

  0006e	8b be ec 00 00
	00		 mov	 edi, DWORD PTR [esi+236]
  00074	3b be f0 00 00
	00		 cmp	 edi, DWORD PTR [esi+240]
  0007a	55		 push	 ebp
  0007b	0f 84 92 00 00
	00		 je	 $L265450
  00081	8d 6f 04	 lea	 ebp, DWORD PTR [edi+4]
$L265449:

; 1282 : 		{
; 1283 : 			CMover *pZako = prj.GetMover( (*it) );

  00084	8b 07		 mov	 eax, DWORD PTR [edi]
  00086	50		 push	 eax
  00087	b9 00 00 00 00	 mov	 ecx, OFFSET FLAT:?prj@@3VCProject@@A
  0008c	e8 00 00 00 00	 call	 ?GetMover@CProject@@QAEPAVCMover@@K@Z ; CProject::GetMover

; 1284 : 			if( IsValidObj(pZako) && pZako->IsLive() )

  00091	85 c0		 test	 eax, eax
  00093	74 46		 je	 SHORT $L265452
  00095	f6 40 04 01	 test	 BYTE PTR [eax+4], 1
  00099	75 40		 jne	 SHORT $L265452
  0009b	8b 88 3c 02 00
	00		 mov	 ecx, DWORD PTR [eax+572]
  000a1	f7 41 04 00 00
	00 08		 test	 DWORD PTR [ecx+4], 134217728 ; 08000000H
  000a8	74 0a		 je	 SHORT $L276664
  000aa	8b 88 00 06 00
	00		 mov	 ecx, DWORD PTR [eax+1536]
  000b0	85 c9		 test	 ecx, ecx
  000b2	7e 27		 jle	 SHORT $L265452
$L276664:

; 1285 : 				it++;

  000b4	83 c7 04	 add	 edi, 4
  000b7	83 c5 04	 add	 ebp, 4

; 1286 : 			else

  000ba	eb 47		 jmp	 SHORT $L265454

; 1277 : 	CWorld* pWorld = GetWorld();
; 1278 : 	MoverProp *pProp = pMover->GetProp();

$L276595:
  000bc	50		 push	 eax
  000bd	51		 push	 ecx
  000be	6a 00		 push	 0
  000c0	68 00 00 00 00	 push	 OFFSET FLAT:??_C@_0BJ@GKPOBPPI@GetMoverProp?5range_error?$AA@
  000c5	68 00 00 00 00	 push	 OFFSET FLAT:??_C@_0BM@HMFGHCP@?$CFs?5min?3?$CFd?0?5max?3?$CFd?0?5index?3?$CFd?$AA@
  000ca	e8 00 00 00 00	 call	 ?Error@@YAPBDPBDZZ	; Error
  000cf	83 c4 14	 add	 esp, 20			; 00000014H
  000d2	5b		 pop	 ebx
  000d3	5f		 pop	 edi
  000d4	5e		 pop	 esi

; 1314 : 			}
; 1315 : 		}
; 1316 : 	}
; 1317 : }

  000d5	83 c4 2c	 add	 esp, 44			; 0000002cH
  000d8	c2 04 00	 ret	 4
$L265452:

; 1287 : 				it = m_vecIdSummon.erase( it );

  000db	8b 96 f0 00 00
	00		 mov	 edx, DWORD PTR [esi+240]
  000e1	2b d5		 sub	 edx, ebp
  000e3	c1 fa 02	 sar	 edx, 2
  000e6	c1 e2 02	 shl	 edx, 2
  000e9	52		 push	 edx
  000ea	55		 push	 ebp
  000eb	57		 push	 edi
  000ec	e8 00 00 00 00	 call	 _memmove
  000f1	8b 86 f0 00 00
	00		 mov	 eax, DWORD PTR [esi+240]
  000f7	83 c4 0c	 add	 esp, 12			; 0000000cH
  000fa	83 c0 fc	 add	 eax, -4			; fffffffcH
  000fd	89 86 f0 00 00
	00		 mov	 DWORD PTR [esi+240], eax
$L265454:
  00103	3b be f0 00 00
	00		 cmp	 edi, DWORD PTR [esi+240]
  00109	0f 85 75 ff ff
	ff		 jne	 $L265449

; 1280 : 	{
; 1281 : 		for( vector<OBJID>::iterator it = m_vecIdSummon.begin(); it!=m_vecIdSummon.end(); )

  0010f	8b 54 24 10	 mov	 edx, DWORD PTR $T276584[esp+60]
$L265450:

; 1288 : 		}
; 1289 : 		
; 1290 : 		if( pProp->m_nSummNum > (int)( m_vecIdSummon.size() ) )

  00113	8b 8e ec 00 00
	00		 mov	 ecx, DWORD PTR [esi+236]
  00119	85 c9		 test	 ecx, ecx
  0011b	8d be e8 00 00
	00		 lea	 edi, DWORD PTR [esi+232]
  00121	75 04		 jne	 SHORT $L276717
  00123	33 c0		 xor	 eax, eax
  00125	eb 08		 jmp	 SHORT $L276718
$L276717:
  00127	8b 47 08	 mov	 eax, DWORD PTR [edi+8]
  0012a	2b c1		 sub	 eax, ecx
  0012c	c1 f8 02	 sar	 eax, 2
$L276718:
  0012f	39 82 24 02 00
	00		 cmp	 DWORD PTR [edx+548], eax
  00135	0f 8e 33 01 00
	00		 jle	 $L276752

; 1291 : 		{
; 1292 : 			if( (int)( xRandom(100) ) < pProp->m_nSummProb )	

  0013b	a1 00 00 00 00	 mov	 eax, DWORD PTR ?g_next@@3KA ; g_next
  00140	69 c0 6d 4e c6
	41		 imul	 eax, 1103515245		; 41c64e6dH
  00146	05 39 30 00 00	 add	 eax, 12345		; 00003039H
  0014b	33 d2		 xor	 edx, edx
  0014d	a3 00 00 00 00	 mov	 DWORD PTR ?g_next@@3KA, eax ; g_next
  00152	b9 64 00 00 00	 mov	 ecx, 100		; 00000064H
  00157	f7 f1		 div	 ecx
  00159	8b 6c 24 10	 mov	 ebp, DWORD PTR $T276584[esp+60]
  0015d	3b 95 20 02 00
	00		 cmp	 edx, DWORD PTR [ebp+544]
  00163	0f 8d 05 01 00
	00		 jge	 $L276752

; 1293 : 			{
; 1294 : 				D3DXVECTOR3 vLocal, vPos;
; 1295 : 				CObj* pObj	= CreateObj( D3DDEVICE, OT_MOVER, (DWORD)pProp->m_nSummID );

  00169	8b 95 28 02 00
	00		 mov	 edx, DWORD PTR [ebp+552]
  0016f	6a 01		 push	 1
  00171	52		 push	 edx
  00172	6a 05		 push	 5
  00174	6a 00		 push	 0
  00176	e8 00 00 00 00	 call	 ?CreateObj@@YAPAVCObj@@PAUIDirect3DDevice9@@KKH@Z ; CreateObj
  0017b	8b f0		 mov	 esi, eax
  0017d	83 c4 10	 add	 esp, 16			; 00000010H

; 1296 : 				if( NULL == pObj )	

  00180	85 f6		 test	 esi, esi
  00182	75 1e		 jne	 SHORT $L265464

; 1297 : 				{
; 1298 : 					Error( "SubSummonProcess :   %d", pProp->m_nSummID );

  00184	8b 85 28 02 00
	00		 mov	 eax, DWORD PTR [ebp+552]
  0018a	50		 push	 eax
  0018b	68 00 00 00 00	 push	 OFFSET FLAT:??_C@_0CA@NDHMDKEO@SubSummonProcess?5?3?5?$LM?R?H?$KP?5?$LN?G?F?P?5?$CFd?$AA@
  00190	e8 00 00 00 00	 call	 ?Error@@YAPBDPBDZZ	; Error
  00195	83 c4 08	 add	 esp, 8
  00198	5d		 pop	 ebp
  00199	5b		 pop	 ebx
  0019a	5f		 pop	 edi
  0019b	5e		 pop	 esi

; 1314 : 			}
; 1315 : 		}
; 1316 : 	}
; 1317 : }

  0019c	83 c4 2c	 add	 esp, 44			; 0000002cH
  0019f	c2 04 00	 ret	 4
$L265464:

; 1299 : 					return;
; 1300 : 				}
; 1301 : 				vLocal.x = 1.5f - xRandomF( 3.0f );		

  001a2	68 00 00 40 40	 push	 1077936128		; 40400000H
  001a7	e8 00 00 00 00	 call	 ?xRandomF@@YAMM@Z	; xRandomF
  001ac	d8 2d 00 00 00
	00		 fsubr	 DWORD PTR __real@3fc00000

; 1302 : 				vLocal.y = 0;
; 1303 : 				vLocal.z = 1.5f - xRandomF( 3.0f );

  001b2	68 00 00 40 40	 push	 1077936128		; 40400000H
  001b7	d9 5c 24 2c	 fstp	 DWORD PTR _vLocal$265460[esp+68]
  001bb	e8 00 00 00 00	 call	 ?xRandomF@@YAMM@Z	; xRandomF
  001c0	d8 2d 00 00 00
	00		 fsubr	 DWORD PTR __real@3fc00000
  001c6	83 c4 08	 add	 esp, 8

; 1304 : 				vPos = pMover->GetPos();

  001c9	8d 4c 24 30	 lea	 ecx, DWORD PTR $T276552[esp+60]
  001cd	51		 push	 ecx
  001ce	8b cb		 mov	 ecx, ebx
  001d0	d9 5c 24 30	 fstp	 DWORD PTR _vLocal$265460[esp+72]
  001d4	e8 00 00 00 00	 call	 ?GetPos@CObj@@QAE?AUD3DXVECTOR3@@XZ ; CObj::GetPos
  001d9	8b 10		 mov	 edx, DWORD PTR [eax]
  001db	89 54 24 18	 mov	 DWORD PTR _vPos$265461[esp+60], edx

; 1305 : 				vPos += vLocal;

  001df	d9 44 24 18	 fld	 DWORD PTR _vPos$265461[esp+60]
  001e3	8b 48 04	 mov	 ecx, DWORD PTR [eax+4]
  001e6	d8 44 24 24	 fadd	 DWORD PTR _vLocal$265460[esp+60]
  001ea	89 4c 24 1c	 mov	 DWORD PTR _vPos$265461[esp+64], ecx
  001ee	8b 50 08	 mov	 edx, DWORD PTR [eax+8]
  001f1	d9 5c 24 18	 fstp	 DWORD PTR _vPos$265461[esp+60]
  001f5	89 54 24 20	 mov	 DWORD PTR _vPos$265461[esp+68], edx
  001f9	d9 44 24 20	 fld	 DWORD PTR _vPos$265461[esp+68]
  001fd	8b c1		 mov	 eax, ecx
  001ff	d8 44 24 2c	 fadd	 DWORD PTR _vLocal$265460[esp+68]

; 1306 : 				pObj->SetPos( vPos );

  00203	8d 4c 24 18	 lea	 ecx, DWORD PTR _vPos$265461[esp+60]
  00207	51		 push	 ecx
  00208	8b ce		 mov	 ecx, esi
  0020a	d9 5c 24 24	 fstp	 DWORD PTR _vPos$265461[esp+72]
  0020e	89 44 24 20	 mov	 DWORD PTR _vPos$265461[esp+68], eax
  00212	e8 00 00 00 00	 call	 ?SetPos@CObj@@QAEXABUD3DXVECTOR3@@@Z ; CObj::SetPos

; 1307 : 				pObj->InitMotion( MTI_STAND );

  00217	8b 16		 mov	 edx, DWORD PTR [esi]
  00219	6a 00		 push	 0
  0021b	8b ce		 mov	 ecx, esi
  0021d	ff 52 08	 call	 DWORD PTR [edx+8]

; 1308 : 				pObj->UpdateLocalMatrix();

  00220	8b ce		 mov	 ecx, esi
  00222	e8 00 00 00 00	 call	 ?UpdateLocalMatrix@CObj@@QAEXXZ ; CObj::UpdateLocalMatrix

; 1309 : 				((CMover*)pObj)->m_bActiveAttack = TRUE;	
; 1310 : 				((CMover*)pObj)->AddItToGlobalId();

  00227	8b 06		 mov	 eax, DWORD PTR [esi]
  00229	8b ce		 mov	 ecx, esi
  0022b	c7 86 70 06 00
	00 01 00 00 00	 mov	 DWORD PTR [esi+1648], 1
  00235	ff 50 3c	 call	 DWORD PTR [eax+60]

; 1311 : 				pWorld->ADDOBJ( pObj, FALSE, pMover->GetLayer() );

  00238	8b 8b b8 01 00
	00		 mov	 ecx, DWORD PTR [ebx+440]
  0023e	51		 push	 ecx
  0023f	8b 4c 24 18	 mov	 ecx, DWORD PTR _pWorld$[esp+64]
  00243	6a 00		 push	 0
  00245	56		 push	 esi
  00246	e8 00 00 00 00	 call	 ?AddObj@CWorld@@QAEHPAVCObj@@HH@Z ; CWorld::AddObj

; 1312 : 				m_vecIdSummon.push_back( ((CMover *)pObj)->GetId() );

  0024b	8b 96 bc 01 00
	00		 mov	 edx, DWORD PTR [esi+444]
  00251	8d 44 24 14	 lea	 eax, DWORD PTR $T276553[esp+60]
  00255	50		 push	 eax
  00256	8b cf		 mov	 ecx, edi
  00258	89 54 24 18	 mov	 DWORD PTR $T276553[esp+64], edx
  0025c	e8 00 00 00 00	 call	 ?push_back@?$vector@KV?$allocator@K@std@@@std@@QAEXABK@Z ; std::vector<unsigned long,std::allocator<unsigned long> >::push_back

; 1313 : 				g_UserMng.AddDlgEmoticon( pMover, DLGEMOT_SUMMON );

  00261	6a 01		 push	 1
  00263	53		 push	 ebx
  00264	b9 00 00 00 00	 mov	 ecx, OFFSET FLAT:?g_UserMng@@3VCUserMng@@A
  00269	e8 00 00 00 00	 call	 ?AddDlgEmoticon@CUserMng@@QAEXPAVCCtrl@@H@Z ; CUserMng::AddDlgEmoticon
$L276752:
  0026e	5d		 pop	 ebp
$L276751:
  0026f	5b		 pop	 ebx
$L265459:
  00270	5f		 pop	 edi
  00271	5e		 pop	 esi

; 1314 : 			}
; 1315 : 		}
; 1316 : 	}
; 1317 : }

  00272	83 c4 2c	 add	 esp, 44			; 0000002cH
  00275	c2 04 00	 ret	 4
?SubSummonProcess@CAIAggro@@IAEXPAVCMover@@@Z ENDP	; CAIAggro::SubSummonProcess
_TEXT	ENDS
PUBLIC	??_C@_0CJ@LAMEBJAK@CAIAggro?3?3MoverProcessRage?5?3?5?$LJ?$PM?$MA@ ; `string'
PUBLIC	?MoveProcessRage@CAIAggro@@IAEHABUAIMSG@@@Z	; CAIAggro::MoveProcessRage
PUBLIC	__real@41f00000
PUBLIC	__real@42f00000
EXTRN	?GetInstance@CInstanceDungeonHelper@@SAPAV1@XZ:NEAR ; CInstanceDungeonHelper::GetInstance
EXTRN	?GetSpeed@CMover@@QAEMM@Z:NEAR			; CMover::GetSpeed
;	COMDAT __real@41f00000
; File c:\documents and settings\test\mes documents\source\virtuos_v17\build\program\_common\ctrl.h
CONST	SEGMENT
__real@41f00000 DD 041f00000r			; 30
CONST	ENDS
;	COMDAT __real@42f00000
CONST	SEGMENT
__real@42f00000 DD 042f00000r			; 120
CONST	ENDS
;	COMDAT ??_C@_0CJ@LAMEBJAK@CAIAggro?3?3MoverProcessRage?5?3?5?$LJ?$PM?$MA@
CONST	SEGMENT
??_C@_0CJ@LAMEBJAK@CAIAggro?3?3MoverProcessRage?5?3?5?$LJ?$PM?$MA@ DB 'CA'
	DB	'IAggro::MoverProcessRage : ', 0b9H, 0fcH, 0c0H, 0a7H, 0c4H, 0a7H
	DB	0b9H, 0fcH, ' %d', 00H			; `string'
; Function compile flags: /Ogty
; File c:\documents and settings\test\mes documents\source\virtuos_v17\build\program\_aiinterface\aiaggro.cpp
CONST	ENDS
;	COMDAT ?MoveProcessRage@CAIAggro@@IAEHABUAIMSG@@@Z
_TEXT	SEGMENT
_pWorld$ = -52						; size = 4
$T276801 = -48						; size = 4
tv1121 = -44						; size = 4
_dwAIState$ = -44					; size = 4
$T276966 = -40						; size = 4
$T276767 = -36						; size = 12
_vTargetTo$ = -36					; size = 12
$T276757 = -36						; size = 12
_vDist$265497 = -36					; size = 12
_vDst$265550 = -24					; size = 12
$T276768 = -24						; size = 12
_v2$ = -24						; size = 12
_v1$ = -24						; size = 12
$T276760 = -24						; size = 12
$T276758 = -24						; size = 12
_vTarget$265502 = -24					; size = 12
$T276756 = -24						; size = 12
$T276770 = -12						; size = 12
$T276769 = -12						; size = 12
$T276766 = -12						; size = 12
$T276765 = -12						; size = 12
$T276764 = -12						; size = 12
$T276763 = -12						; size = 12
$T276761 = -12						; size = 12
$T276759 = -12						; size = 12
_msg$ = 8						; size = 4
?MoveProcessRage@CAIAggro@@IAEHABUAIMSG@@@Z PROC NEAR	; CAIAggro::MoveProcessRage, COMDAT
; _this$ = ecx

; 1323 : {

  00000	83 ec 34	 sub	 esp, 52			; 00000034H
  00003	56		 push	 esi
  00004	8b f1		 mov	 esi, ecx

; 1324 : 	CMover* pMover = GetMover();
; 1325 : 	CWorld* pWorld = GetWorld();
; 1326 : 	MoverProp *pProp = pMover->GetProp();

  00006	8b 0d d0 01 00
	00		 mov	 ecx, DWORD PTR ?prj@@3VCProject@@A+464
  0000c	57		 push	 edi
  0000d	8b 7e 30	 mov	 edi, DWORD PTR [esi+48]
  00010	8b 87 6c 01 00
	00		 mov	 eax, DWORD PTR [edi+364]
  00016	89 44 24 08	 mov	 DWORD PTR _pWorld$[esp+60], eax
  0001a	8b 87 74 01 00
	00		 mov	 eax, DWORD PTR [edi+372]
  00020	85 c0		 test	 eax, eax
  00022	7c 18		 jl	 SHORT $L276810
  00024	3b c1		 cmp	 eax, ecx
  00026	7d 14		 jge	 SHORT $L276810
  00028	8b 0d d4 01 00
	00		 mov	 ecx, DWORD PTR ?prj@@3VCProject@@A+468
  0002e	69 c0 d8 06 00
	00		 imul	 eax, 1752		; 000006d8H
  00034	03 c1		 add	 eax, ecx
  00036	89 44 24 0c	 mov	 DWORD PTR $T276801[esp+60], eax
  0003a	eb 1e		 jmp	 SHORT $L276803
$L276810:
  0003c	50		 push	 eax
  0003d	51		 push	 ecx
  0003e	6a 00		 push	 0
  00040	68 00 00 00 00	 push	 OFFSET FLAT:??_C@_0BJ@GKPOBPPI@GetMoverProp?5range_error?$AA@
  00045	68 00 00 00 00	 push	 OFFSET FLAT:??_C@_0BM@HMFGHCP@?$CFs?5min?3?$CFd?0?5max?3?$CFd?0?5index?3?$CFd?$AA@
  0004a	e8 00 00 00 00	 call	 ?Error@@YAPBDPBDZZ	; Error
  0004f	83 c4 14	 add	 esp, 20			; 00000014H
  00052	c7 44 24 0c 00
	00 00 00	 mov	 DWORD PTR $T276801[esp+60], 0
$L276803:

; 1327 : 	
; 1328 : 	if( pMover->IsDie() || (pMover->m_pActMover->GetState() & OBJSTA_DMG_FLY_ALL) )

  0005a	8b 8f 3c 02 00
	00		 mov	 ecx, DWORD PTR [edi+572]
  00060	8b 41 04	 mov	 eax, DWORD PTR [ecx+4]
  00063	a9 00 00 00 08	 test	 eax, 134217728		; 08000000H
  00068	0f 85 4c 06 00
	00		 jne	 $L265479
  0006e	8b 8f 00 06 00
	00		 mov	 ecx, DWORD PTR [edi+1536]
  00074	85 c9		 test	 ecx, ecx
  00076	0f 84 3e 06 00
	00		 je	 $L265479
  0007c	a9 00 00 00 02	 test	 eax, 33554432		; 02000000H
  00081	0f 85 33 06 00
	00		 jne	 $L265479

; 1330 : 	
; 1331 : 	CMover* pTarget = prj.GetMover( m_dwIdTarget ); 

  00087	8b 96 e0 00 00
	00		 mov	 edx, DWORD PTR [esi+224]
  0008d	53		 push	 ebx
  0008e	55		 push	 ebp
  0008f	52		 push	 edx
  00090	b9 00 00 00 00	 mov	 ecx, OFFSET FLAT:?prj@@3VCProject@@A
  00095	e8 00 00 00 00	 call	 ?GetMover@CProject@@QAEPAVCMover@@K@Z ; CProject::GetMover

; 1332 : 
; 1333 : 	DWORD dwAIState = pMover->m_dwAIInterfaceState;

  0009a	8b 9f 90 01 00
	00		 mov	 ebx, DWORD PTR [edi+400]
  000a0	8b e8		 mov	 ebp, eax

; 1334 : 
; 1335 : 	if( IsValidObj( pTarget ) == FALSE || ((CMover*)pTarget)->IsDie()
; 1336 : 		|| pTarget->GetWorld() != pMover->GetWorld()
; 1337 : 		)	

  000a2	85 ed		 test	 ebp, ebp
  000a4	89 5c 24 18	 mov	 DWORD PTR _dwAIState$[esp+68], ebx
  000a8	0f 84 a0 05 00
	00		 je	 $L265484
  000ae	f6 45 04 01	 test	 BYTE PTR [ebp+4], 1
  000b2	0f 85 96 05 00
	00		 jne	 $L265484
  000b8	8b 85 3c 02 00
	00		 mov	 eax, DWORD PTR [ebp+572]
  000be	f7 40 04 00 00
	00 08		 test	 DWORD PTR [eax+4], 134217728 ; 08000000H
  000c5	0f 85 83 05 00
	00		 jne	 $L265484
  000cb	8b 8d 00 06 00
	00		 mov	 ecx, DWORD PTR [ebp+1536]
  000d1	85 c9		 test	 ecx, ecx
  000d3	0f 84 75 05 00
	00		 je	 $L265484
  000d9	8b 8d 6c 01 00
	00		 mov	 ecx, DWORD PTR [ebp+364]
  000df	3b 8f 6c 01 00
	00		 cmp	 ecx, DWORD PTR [edi+364]
  000e5	0f 85 63 05 00
	00		 jne	 $L265484

; 1357 : 		}
; 1358 : 	}
; 1359 : 
; 1360 : 	if( pTarget->IsRegionAttr( RA_SAFETY ) && pProp->dwClass != RANK_GUARD )

  000eb	f6 85 d4 02 00
	00 10		 test	 BYTE PTR [ebp+724], 16	; 00000010H
  000f2	74 0d		 je	 SHORT $L277044
  000f4	8b 54 24 14	 mov	 edx, DWORD PTR $T276801[esp+68]
  000f8	83 ba 94 00 00
	00 08		 cmp	 DWORD PTR [edx+148], 8

; 1361 : 	{
; 1362 : 		DoReturnToBegin();
; 1363 : 		SendAIMsg( AIMSG_SETSTATE, dwAIState );
; 1364 : 		return TRUE;

  000ff	75 1a		 jne	 SHORT $L277058
$L277044:

; 1365 : 	}
; 1366 : 
; 1367 : #ifdef __JHMA_VER_8_6     
; 1368 : 	if( pMover->IsFlyingNPC() != ((CMover*)pTarget)->m_pActMover->IsFly() && pMover->IsFlyingNPC() )	
; 1369 : #else	// __VER >= 8  
; 1370 : 	if( pMover->IsFlyingNPC() != ((CMover*)pTarget)->m_pActMover->IsFly() )	

  00101	8b 50 08	 mov	 edx, DWORD PTR [eax+8]
  00104	33 c9		 xor	 ecx, ecx
  00106	8a 8f 42 02 00
	00		 mov	 cl, BYTE PTR [edi+578]
  0010c	c1 ea 03	 shr	 edx, 3
  0010f	33 ca		 xor	 ecx, edx
  00111	f6 c1 01	 test	 cl, 1
  00114	74 2b		 je	 SHORT $L265494

; 1371 : #endif	// __VER >= 8  
; 1372 : 	{
; 1373 : 		if( dwAIState == STATE_STAND )

  00116	83 fb 08	 cmp	 ebx, 8
  00119	75 09		 jne	 SHORT $L277045
$L277058:

; 1374 : 			DoReturnToBegin();

  0011b	6a 01		 push	 1
  0011d	8b ce		 mov	 ecx, esi
  0011f	e8 00 00 00 00	 call	 ?DoReturnToBegin@CAIAggro@@IAEXH@Z ; CAIAggro::DoReturnToBegin
$L277045:

; 1375 : 		
; 1376 : 		SendAIMsg( AIMSG_SETSTATE, dwAIState );

  00124	8b 06		 mov	 eax, DWORD PTR [esi]
  00126	6a 00		 push	 0
  00128	6a 00		 push	 0
  0012a	53		 push	 ebx
  0012b	6a 04		 push	 4
  0012d	8b ce		 mov	 ecx, esi
  0012f	ff 50 0c	 call	 DWORD PTR [eax+12]
  00132	5d		 pop	 ebp
  00133	5b		 pop	 ebx
  00134	5f		 pop	 edi
  00135	b8 01 00 00 00	 mov	 eax, 1
  0013a	5e		 pop	 esi

; 1506 : 
; 1507 : 	return TRUE;
; 1508 : }

  0013b	83 c4 34	 add	 esp, 52			; 00000034H
  0013e	c2 04 00	 ret	 4
$L265494:

; 1377 : 		return TRUE;
; 1378 : 	}
; 1379 : 
; 1380 : 	if( TIMEGETTIME > m_tmAttack )	

  00141	a1 00 00 00 00	 mov	 eax, DWORD PTR ?g_tmCurrent@@3KA ; g_tmCurrent
  00146	3b 46 44	 cmp	 eax, DWORD PTR [esi+68]
  00149	0f 86 b2 00 00
	00		 jbe	 $L265496

; 1381 : 	{
; 1382 : 		m_tmAttack	= TIMEGETTIME + s_tmAttack;	

  0014f	8b 0d 00 00 00
	00		 mov	 ecx, DWORD PTR _s_tmAttack
  00155	03 c8		 add	 ecx, eax

; 1383 : 		D3DXVECTOR3 vDist = pMover->GetPos() - m_vOldPos;

  00157	8d 54 24 2c	 lea	 edx, DWORD PTR $T276756[esp+68]
  0015b	89 4e 44	 mov	 DWORD PTR [esi+68], ecx
  0015e	52		 push	 edx
  0015f	8b cf		 mov	 ecx, edi
  00161	e8 00 00 00 00	 call	 ?GetPos@CObj@@QAE?AUD3DXVECTOR3@@XZ ; CObj::GetPos
  00166	d9 00		 fld	 DWORD PTR [eax]
  00168	d8 66 6c	 fsub	 DWORD PTR [esi+108]

; 1384 : 		vDist.y	= 0;	
; 1385 : 		if( IsInRange( vDist, 2.0f ) )

  0016b	68 00 00 00 40	 push	 1073741824		; 40000000H
  00170	8b ce		 mov	 ecx, esi
  00172	c7 44 24 28 00
	00 00 00	 mov	 DWORD PTR _vDist$265497[esp+76], 0
  0017a	d9 5c 24 24	 fstp	 DWORD PTR _vDist$265497[esp+72]
  0017e	d9 40 08	 fld	 DWORD PTR [eax+8]
  00181	8d 44 24 24	 lea	 eax, DWORD PTR _vDist$265497[esp+72]
  00185	d8 66 74	 fsub	 DWORD PTR [esi+116]
  00188	50		 push	 eax
  00189	d9 5c 24 30	 fstp	 DWORD PTR _vDist$265497[esp+84]
  0018d	e8 00 00 00 00	 call	 ?IsInRange@CAIAggro@@IAEHAAUD3DXVECTOR3@@M@Z ; CAIAggro::IsInRange
  00192	85 c0		 test	 eax, eax
  00194	74 4e		 je	 SHORT $L265501

; 1386 : 		{
; 1387 : 			if( pMover->GetSpeed( pMover->m_pActMover->m_fSpeed ) > 0 )		

  00196	8b 8f 3c 02 00
	00		 mov	 ecx, DWORD PTR [edi+572]
  0019c	8b 51 48	 mov	 edx, DWORD PTR [ecx+72]
  0019f	52		 push	 edx
  001a0	8b cf		 mov	 ecx, edi
  001a2	e8 00 00 00 00	 call	 ?GetSpeed@CMover@@QAEMM@Z ; CMover::GetSpeed
  001a7	d8 1d 00 00 00
	00		 fcomp	 DWORD PTR __real@00000000
  001ad	df e0		 fnstsw	 ax
  001af	f6 c4 41	 test	 ah, 65			; 00000041H
  001b2	75 30		 jne	 SHORT $L265501

; 1388 : 			{
; 1389 : 				D3DXVECTOR3 vTarget	= pTarget->GetPos();

  001b4	8d 44 24 2c	 lea	 eax, DWORD PTR _vTarget$265502[esp+68]
  001b8	50		 push	 eax
  001b9	8b cd		 mov	 ecx, ebp
  001bb	e8 00 00 00 00	 call	 ?GetPos@CObj@@QAE?AUD3DXVECTOR3@@XZ ; CObj::GetPos

; 1390 : 				pMover->SetPos( vTarget );	

  001c0	8d 4c 24 2c	 lea	 ecx, DWORD PTR _vTarget$265502[esp+68]
  001c4	51		 push	 ecx
  001c5	8b cf		 mov	 ecx, edi
  001c7	e8 00 00 00 00	 call	 ?SetPos@CObj@@QAEXABUD3DXVECTOR3@@@Z ; CObj::SetPos

; 1391 : 				g_UserMng.AddSetPos( pMover, pMover->GetPos() );

  001cc	8d 54 24 20	 lea	 edx, DWORD PTR $T276757[esp+68]
  001d0	52		 push	 edx
  001d1	8b cf		 mov	 ecx, edi
  001d3	e8 00 00 00 00	 call	 ?GetPos@CObj@@QAE?AUD3DXVECTOR3@@XZ ; CObj::GetPos
  001d8	50		 push	 eax
  001d9	57		 push	 edi
  001da	b9 00 00 00 00	 mov	 ecx, OFFSET FLAT:?g_UserMng@@3VCUserMng@@A
  001df	e8 00 00 00 00	 call	 ?AddSetPos@CUserMng@@QAEXPAVCCtrl@@AAUD3DXVECTOR3@@@Z ; CUserMng::AddSetPos
$L265501:

; 1392 : 			} 
; 1393 : 		} 
; 1394 : 
; 1395 : 		m_vOldPos = pMover->GetPos();

  001e4	8d 44 24 2c	 lea	 eax, DWORD PTR $T276758[esp+68]
  001e8	50		 push	 eax
  001e9	8b cf		 mov	 ecx, edi
  001eb	e8 00 00 00 00	 call	 ?GetPos@CObj@@QAE?AUD3DXVECTOR3@@XZ ; CObj::GetPos
  001f0	8b 08		 mov	 ecx, DWORD PTR [eax]
  001f2	89 4e 6c	 mov	 DWORD PTR [esi+108], ecx
  001f5	8b 50 04	 mov	 edx, DWORD PTR [eax+4]
  001f8	89 56 70	 mov	 DWORD PTR [esi+112], edx
  001fb	8b 40 08	 mov	 eax, DWORD PTR [eax+8]
  001fe	89 46 74	 mov	 DWORD PTR [esi+116], eax
$L265496:

; 1396 : 	}
; 1397 : 
; 1398 : 	D3DXVECTOR3	vTargetTo = pTarget->GetPos() - pMover->GetPos();	

  00201	8d 4c 24 2c	 lea	 ecx, DWORD PTR $T276760[esp+68]
  00205	51		 push	 ecx
  00206	8b cf		 mov	 ecx, edi
  00208	e8 00 00 00 00	 call	 ?GetPos@CObj@@QAE?AUD3DXVECTOR3@@XZ ; CObj::GetPos
  0020d	8d 54 24 38	 lea	 edx, DWORD PTR $T276759[esp+68]
  00211	52		 push	 edx
  00212	8b cd		 mov	 ecx, ebp
  00214	8b d8		 mov	 ebx, eax
  00216	e8 00 00 00 00	 call	 ?GetPos@CObj@@QAE?AUD3DXVECTOR3@@XZ ; CObj::GetPos
  0021b	d9 00		 fld	 DWORD PTR [eax]
  0021d	d8 23		 fsub	 DWORD PTR [ebx]

; 1399 : 
; 1400 : 	D3DXVECTOR3 v1	= pMover->GetPos() - m_vPosBegin;

  0021f	8b cf		 mov	 ecx, edi
  00221	d9 5c 24 20	 fstp	 DWORD PTR _vTargetTo$[esp+68]
  00225	d9 40 04	 fld	 DWORD PTR [eax+4]
  00228	d8 63 04	 fsub	 DWORD PTR [ebx+4]
  0022b	d9 5c 24 24	 fstp	 DWORD PTR _vTargetTo$[esp+72]
  0022f	d9 40 08	 fld	 DWORD PTR [eax+8]
  00232	8d 44 24 38	 lea	 eax, DWORD PTR $T276761[esp+68]
  00236	d8 63 08	 fsub	 DWORD PTR [ebx+8]
  00239	50		 push	 eax
  0023a	d9 5c 24 2c	 fstp	 DWORD PTR _vTargetTo$[esp+80]
  0023e	e8 00 00 00 00	 call	 ?GetPos@CObj@@QAE?AUD3DXVECTOR3@@XZ ; CObj::GetPos
  00243	d9 00		 fld	 DWORD PTR [eax]
  00245	d8 66 54	 fsub	 DWORD PTR [esi+84]
  00248	d9 5c 24 2c	 fstp	 DWORD PTR _v1$[esp+68]
  0024c	d9 40 04	 fld	 DWORD PTR [eax+4]
  0024f	d8 66 58	 fsub	 DWORD PTR [esi+88]
  00252	d9 5c 24 30	 fstp	 DWORD PTR _v1$[esp+72]
  00256	d9 40 08	 fld	 DWORD PTR [eax+8]

; 1401 : 	
; 1402 : 	FLOAT fRange	= RANGE_MOVE;
; 1403 : 	if( pMover->IsFlyingNPC() )

  00259	8a 87 42 02 00
	00		 mov	 al, BYTE PTR [edi+578]
  0025f	a8 01		 test	 al, 1
  00261	d8 66 5c	 fsub	 DWORD PTR [esi+92]
  00264	d9 5c 24 34	 fstp	 DWORD PTR _v1$[esp+76]
  00268	d9 05 00 00 00
	00		 fld	 DWORD PTR __real@41f00000
  0026e	74 08		 je	 SHORT $L265514
  00270	dd d8		 fstp	 ST(0)

; 1404 : 		fRange	*= 3.0F;

  00272	d9 05 00 00 00
	00		 fld	 DWORD PTR __real@42b40000
$L265514:

; 1405 : 	
; 1406 : 	if( IsInRange( v1, RANGE_RETURN_TO_BEGIN + fRange ) == FALSE
; 1407 : 		&& !CInstanceDungeonHelper::GetInstance()->IsInstanceDungeon( pWorld->GetID() )
; 1408 : 		)

  00278	d8 05 00 00 00
	00		 fadd	 DWORD PTR __real@42f00000
  0027e	51		 push	 ecx
  0027f	8d 4c 24 30	 lea	 ecx, DWORD PTR _v1$[esp+72]
  00283	d9 1c 24	 fstp	 DWORD PTR [esp]
  00286	51		 push	 ecx
  00287	8b ce		 mov	 ecx, esi
  00289	e8 00 00 00 00	 call	 ?IsInRange@CAIAggro@@IAEHAAUD3DXVECTOR3@@M@Z ; CAIAggro::IsInRange
  0028e	85 c0		 test	 eax, eax
  00290	75 41		 jne	 SHORT $L277046
  00292	8b 54 24 10	 mov	 edx, DWORD PTR _pWorld$[esp+68]
  00296	8b 02		 mov	 eax, DWORD PTR [edx]
  00298	50		 push	 eax
  00299	e8 00 00 00 00	 call	 ?GetInstance@CInstanceDungeonHelper@@SAPAV1@XZ ; CInstanceDungeonHelper::GetInstance
  0029e	8b c8		 mov	 ecx, eax
  002a0	e8 00 00 00 00	 call	 ?IsInstanceDungeon@CInstanceDungeonHelper@@QAEHK@Z ; CInstanceDungeonHelper::IsInstanceDungeon
  002a5	85 c0		 test	 eax, eax
  002a7	75 2a		 jne	 SHORT $L277046

; 1409 : 	{
; 1410 : 		DoReturnToBegin();

  002a9	6a 01		 push	 1
  002ab	8b ce		 mov	 ecx, esi
  002ad	e8 00 00 00 00	 call	 ?DoReturnToBegin@CAIAggro@@IAEXH@Z ; CAIAggro::DoReturnToBegin

; 1411 : 		SendAIMsg( AIMSG_SETSTATE, dwAIState );

  002b2	8b 4c 24 18	 mov	 ecx, DWORD PTR _dwAIState$[esp+68]
  002b6	8b 06		 mov	 eax, DWORD PTR [esi]
  002b8	6a 00		 push	 0
  002ba	6a 00		 push	 0
  002bc	51		 push	 ecx
  002bd	6a 04		 push	 4
  002bf	8b ce		 mov	 ecx, esi
  002c1	ff 50 0c	 call	 DWORD PTR [eax+12]
  002c4	5d		 pop	 ebp
  002c5	5b		 pop	 ebx
  002c6	5f		 pop	 edi
  002c7	b8 01 00 00 00	 mov	 eax, 1
  002cc	5e		 pop	 esi

; 1506 : 
; 1507 : 	return TRUE;
; 1508 : }

  002cd	83 c4 34	 add	 esp, 52			; 00000034H
  002d0	c2 04 00	 ret	 4
$L277046:

; 1412 : 		return TRUE;
; 1413 : 	}
; 1414 : 	if( m_vPosDamage == D3DXVECTOR3( 0, 0, 0 ) )	

  002d3	d9 05 00 00 00
	00		 fld	 DWORD PTR __real@00000000
  002d9	8d 5e 78	 lea	 ebx, DWORD PTR [esi+120]
  002dc	d9 03		 fld	 DWORD PTR [ebx]
  002de	da e9		 fucompp
  002e0	df e0		 fnstsw	 ax
  002e2	f6 c4 44	 test	 ah, 68			; 00000044H
  002e5	7a 42		 jp	 SHORT $L265517
  002e7	d9 05 00 00 00
	00		 fld	 DWORD PTR __real@00000000
  002ed	d9 43 04	 fld	 DWORD PTR [ebx+4]
  002f0	da e9		 fucompp
  002f2	df e0		 fnstsw	 ax
  002f4	f6 c4 44	 test	 ah, 68			; 00000044H
  002f7	7a 30		 jp	 SHORT $L265517
  002f9	d9 05 00 00 00
	00		 fld	 DWORD PTR __real@00000000
  002ff	d9 43 08	 fld	 DWORD PTR [ebx+8]
  00302	da e9		 fucompp
  00304	df e0		 fnstsw	 ax
  00306	f6 c4 44	 test	 ah, 68			; 00000044H
  00309	7a 1e		 jp	 SHORT $L265517

; 1415 : 		m_vPosDamage	= pMover->GetPos();

  0030b	8d 54 24 38	 lea	 edx, DWORD PTR $T276763[esp+68]
  0030f	52		 push	 edx
  00310	8b cf		 mov	 ecx, edi
  00312	e8 00 00 00 00	 call	 ?GetPos@CObj@@QAE?AUD3DXVECTOR3@@XZ ; CObj::GetPos
  00317	8b 10		 mov	 edx, DWORD PTR [eax]
  00319	8b cb		 mov	 ecx, ebx
  0031b	89 11		 mov	 DWORD PTR [ecx], edx
  0031d	8b 50 04	 mov	 edx, DWORD PTR [eax+4]
  00320	89 51 04	 mov	 DWORD PTR [ecx+4], edx
  00323	8b 40 08	 mov	 eax, DWORD PTR [eax+8]
  00326	89 41 08	 mov	 DWORD PTR [ecx+8], eax
$L265517:

; 1416 : 
; 1417 : 	D3DXVECTOR3 v2	= pMover->GetPos() - m_vPosDamage;

  00329	8d 4c 24 38	 lea	 ecx, DWORD PTR $T276764[esp+68]
  0032d	51		 push	 ecx
  0032e	8b cf		 mov	 ecx, edi
  00330	e8 00 00 00 00	 call	 ?GetPos@CObj@@QAE?AUD3DXVECTOR3@@XZ ; CObj::GetPos
  00335	d9 00		 fld	 DWORD PTR [eax]
  00337	d8 23		 fsub	 DWORD PTR [ebx]

; 1418 : 	if( IsInRange( v2, RANGE_RETURN_TO_BEGIN ) == FALSE
; 1419 : 		&& !CInstanceDungeonHelper::GetInstance()->IsInstanceDungeon( pWorld->GetID() )
; 1420 : 		)

  00339	68 00 00 f0 42	 push	 1123024896		; 42f00000H
  0033e	8d 54 24 30	 lea	 edx, DWORD PTR _v2$[esp+72]
  00342	52		 push	 edx
  00343	d9 5c 24 34	 fstp	 DWORD PTR _v2$[esp+76]
  00347	8b ce		 mov	 ecx, esi
  00349	d9 40 04	 fld	 DWORD PTR [eax+4]
  0034c	d8 63 04	 fsub	 DWORD PTR [ebx+4]
  0034f	d9 5c 24 38	 fstp	 DWORD PTR _v2$[esp+80]
  00353	d9 40 08	 fld	 DWORD PTR [eax+8]
  00356	d8 63 08	 fsub	 DWORD PTR [ebx+8]
  00359	d9 5c 24 3c	 fstp	 DWORD PTR _v2$[esp+84]
  0035d	e8 00 00 00 00	 call	 ?IsInRange@CAIAggro@@IAEHAAUD3DXVECTOR3@@M@Z ; CAIAggro::IsInRange
  00362	85 c0		 test	 eax, eax
  00364	75 41		 jne	 SHORT $L277050
  00366	8b 44 24 10	 mov	 eax, DWORD PTR _pWorld$[esp+68]
  0036a	8b 00		 mov	 eax, DWORD PTR [eax]
  0036c	50		 push	 eax
  0036d	e8 00 00 00 00	 call	 ?GetInstance@CInstanceDungeonHelper@@SAPAV1@XZ ; CInstanceDungeonHelper::GetInstance
  00372	8b c8		 mov	 ecx, eax
  00374	e8 00 00 00 00	 call	 ?IsInstanceDungeon@CInstanceDungeonHelper@@QAEHK@Z ; CInstanceDungeonHelper::IsInstanceDungeon
  00379	85 c0		 test	 eax, eax
  0037b	75 2a		 jne	 SHORT $L277050

; 1421 : 	{
; 1422 : 		DoReturnToBegin();

  0037d	6a 01		 push	 1
  0037f	8b ce		 mov	 ecx, esi
  00381	e8 00 00 00 00	 call	 ?DoReturnToBegin@CAIAggro@@IAEXH@Z ; CAIAggro::DoReturnToBegin

; 1423 : 		SendAIMsg( AIMSG_SETSTATE, dwAIState );

  00386	8b 44 24 18	 mov	 eax, DWORD PTR _dwAIState$[esp+68]
  0038a	8b 16		 mov	 edx, DWORD PTR [esi]
  0038c	6a 00		 push	 0
  0038e	6a 00		 push	 0
  00390	50		 push	 eax
$L277059:
  00391	8b ce		 mov	 ecx, esi
  00393	6a 04		 push	 4
  00395	ff 52 0c	 call	 DWORD PTR [edx+12]
$L277060:
  00398	5d		 pop	 ebp
  00399	5b		 pop	 ebx
  0039a	5f		 pop	 edi
  0039b	b8 01 00 00 00	 mov	 eax, 1
  003a0	5e		 pop	 esi

; 1506 : 
; 1507 : 	return TRUE;
; 1508 : }

  003a1	83 c4 34	 add	 esp, 52			; 00000034H
  003a4	c2 04 00	 ret	 4
$L277050:

; 1424 : 		return TRUE;
; 1425 : 	}
; 1426 : 	else if( pTarget->GetType() == OT_MOVER && ((CMover *)pTarget)->IsMode( TRANSPARENT_MODE ) )		

  003a7	83 bd 70 01 00
	00 05		 cmp	 DWORD PTR [ebp+368], 5
  003ae	75 77		 jne	 SHORT $L265526
  003b0	6a 40		 push	 64			; 00000040H
  003b2	8b cd		 mov	 ecx, ebp
  003b4	e8 00 00 00 00	 call	 ?GetAdjParam@CMover@@QAEHH@Z ; CMover::GetAdjParam
  003b9	f6 c4 04	 test	 ah, 4
  003bc	75 17		 jne	 SHORT $L277041
  003be	8b 8d 44 02 00
	00		 mov	 ecx, DWORD PTR [ebp+580]
  003c4	80 e1 02	 and	 cl, 2
  003c7	80 e9 02	 sub	 cl, 2
  003ca	f6 d9		 neg	 cl
  003cc	1b c9		 sbb	 ecx, ecx
  003ce	41		 inc	 ecx
  003cf	89 4c 24 1c	 mov	 DWORD PTR $T276966[esp+68], ecx
  003d3	74 52		 je	 SHORT $L265526
$L277041:

; 1427 : 	{
; 1428 : 		if( CInstanceDungeonHelper::GetInstance()->IsInstanceDungeon( pWorld->GetID() ) )

  003d5	8b 54 24 10	 mov	 edx, DWORD PTR _pWorld$[esp+68]
  003d9	8b 02		 mov	 eax, DWORD PTR [edx]
  003db	50		 push	 eax
  003dc	e8 00 00 00 00	 call	 ?GetInstance@CInstanceDungeonHelper@@SAPAV1@XZ ; CInstanceDungeonHelper::GetInstance
  003e1	8b c8		 mov	 ecx, eax
  003e3	e8 00 00 00 00	 call	 ?IsInstanceDungeon@CInstanceDungeonHelper@@QAEHK@Z ; CInstanceDungeonHelper::IsInstanceDungeon
  003e8	85 c0		 test	 eax, eax
  003ea	74 1d		 je	 SHORT $L277047

; 1429 : 		{
; 1430 : 			CMover* pTarget = ScanTargetAggro( pMover, 160, m_dwAIInterface, m_uParty );	

  003ec	8b 46 34	 mov	 eax, DWORD PTR [esi+52]
  003ef	8b 4e 38	 mov	 ecx, DWORD PTR [esi+56]
  003f2	50		 push	 eax
  003f3	51		 push	 ecx
  003f4	68 00 00 20 43	 push	 1126170624		; 43200000H
  003f9	57		 push	 edi
  003fa	8b ce		 mov	 ecx, esi
  003fc	e8 00 00 00 00	 call	 ?ScanTargetAggro@CAIInterface@@IAEPAVCMover@@PAVCObj@@MKK@Z ; CAIInterface::ScanTargetAggro

; 1431 : 			if( pTarget	)

  00401	85 c0		 test	 eax, eax

; 1432 : 			{
; 1433 : 				SendAIMsg( AIMSG_SETSTATE, STATE_RAGE, pTarget->GetId() );
; 1434 : 				return TRUE;

  00403	0f 85 9f 02 00
	00		 jne	 $L265489
$L277047:

; 1435 : 			}
; 1436 : 		}
; 1437 : 		if( dwAIState == STATE_STAND )

  00409	8b 7c 24 18	 mov	 edi, DWORD PTR _dwAIState$[esp+68]
  0040d	83 ff 08	 cmp	 edi, 8
  00410	75 09		 jne	 SHORT $L277048

; 1438 : 			DoReturnToBegin();	

  00412	6a 01		 push	 1
  00414	8b ce		 mov	 ecx, esi
  00416	e8 00 00 00 00	 call	 ?DoReturnToBegin@CAIAggro@@IAEXH@Z ; CAIAggro::DoReturnToBegin
$L277048:

; 1439 : 		SendAIMsg( AIMSG_SETSTATE, dwAIState );

  0041b	8b 16		 mov	 edx, DWORD PTR [esi]
  0041d	6a 00		 push	 0
  0041f	6a 00		 push	 0
  00421	57		 push	 edi

; 1440 : 		return TRUE;

  00422	e9 6a ff ff ff	 jmp	 $L277059
$L265526:

; 1441 : 	}
; 1442 : 	else
; 1443 : 	{
; 1444 : 		m_bRangeAttack = SelectAttackType( pTarget );		

  00427	55		 push	 ebp
  00428	8b ce		 mov	 ecx, esi
  0042a	e8 00 00 00 00	 call	 ?SelectAttackType@CAIAggro@@IAEHPAVCMover@@@Z ; CAIAggro::SelectAttackType

; 1445 : 
; 1446 : 		if( m_bRangeAttack )	

  0042f	85 c0		 test	 eax, eax
  00431	89 86 d8 00 00
	00		 mov	 DWORD PTR [esi+216], eax
  00437	0f 84 54 01 00
	00		 je	 $L265532

; 1447 : 		{
; 1448 : 			int nTargetJob = pTarget->GetJob();

  0043d	8b cd		 mov	 ecx, ebp
  0043f	e8 00 00 00 00	 call	 ?GetJob@CMover@@QAEHXZ	; CMover::GetJob

; 1449 : 			if( nTargetJob < 0 )	nTargetJob = 0;		

  00444	85 c0		 test	 eax, eax

; 1450 : 			if( nTargetJob >= MAX_JOB )

  00446	7c 13		 jl	 SHORT $L277053
  00448	83 f8 28	 cmp	 eax, 40			; 00000028H
  0044b	7c 10		 jl	 SHORT $L265535

; 1451 : 			{
; 1452 : 				Error( "CAIAggro::MoverProcessRage :  %d", nTargetJob );

  0044d	50		 push	 eax
  0044e	68 00 00 00 00	 push	 OFFSET FLAT:??_C@_0CJ@LAMEBJAK@CAIAggro?3?3MoverProcessRage?5?3?5?$LJ?$PM?$MA@
  00453	e8 00 00 00 00	 call	 ?Error@@YAPBDPBDZZ	; Error
  00458	83 c4 08	 add	 esp, 8
$L277053:

; 1453 : 				nTargetJob = 0;

  0045b	33 c0		 xor	 eax, eax
$L265535:

; 1454 : 			}
; 1455 : 
; 1456 : 			FLOAT	fRange = (FLOAT)(pProp->m_bRangeAttack[ nTargetJob ] & 0x7F);	

  0045d	8b 4c 24 14	 mov	 ecx, DWORD PTR $T276801[esp+68]
  00461	8a 84 01 f8 01
	00 00		 mov	 al, BYTE PTR [ecx+eax+504]
  00468	8a d0		 mov	 dl, al
  0046a	80 e2 7f	 and	 dl, 127			; 0000007fH

; 1457 : 			BOOL	bKeepRange = (pProp->m_bRangeAttack[ nTargetJob ] & 0x80) ? TRUE : FALSE;	
; 1458 : 			FLOAT	fDist = D3DXVec3Length( &vTargetTo );		
; 1459 : 			if( bKeepRange )

  0046d	84 c0		 test	 al, al
  0046f	0f b6 ca	 movzx	 ecx, dl
  00472	89 4c 24 18	 mov	 DWORD PTR tv1121[esp+68], ecx
  00476	db 44 24 18	 fild	 DWORD PTR tv1121[esp+68]
  0047a	d9 44 24 20	 fld	 DWORD PTR _vTargetTo$[esp+68]
  0047e	d8 4c 24 20	 fmul	 DWORD PTR _vTargetTo$[esp+68]
  00482	d9 44 24 28	 fld	 DWORD PTR _vTargetTo$[esp+76]
  00486	d8 4c 24 28	 fmul	 DWORD PTR _vTargetTo$[esp+76]
  0048a	de c1		 faddp	 ST(1), ST(0)
  0048c	d9 44 24 24	 fld	 DWORD PTR _vTargetTo$[esp+72]
  00490	d8 4c 24 24	 fmul	 DWORD PTR _vTargetTo$[esp+72]
  00494	de c1		 faddp	 ST(1), ST(0)
  00496	d9 fa		 fsqrt
  00498	0f 89 be 00 00
	00		 jns	 $L265541

; 1460 : 			{
; 1461 : 				if( fabs(fDist - fRange) < 1.0f )	

  0049e	d9 c0		 fld	 ST(0)
  004a0	d8 e2		 fsub	 ST(0), ST(2)
  004a2	d9 e1		 fabs
  004a4	d8 1d 00 00 00
	00		 fcomp	 DWORD PTR __real@3f800000
  004aa	df e0		 fnstsw	 ax
  004ac	f6 c4 05	 test	 ah, 5
  004af	7a 2c		 jp	 SHORT $L265542
  004b1	dd d8		 fstp	 ST(0)

; 1462 : 				{
; 1463 : 					if( pMover->IsEmptyDest() == FALSE )	

  004b3	8b cf		 mov	 ecx, edi
  004b5	dd d8		 fstp	 ST(0)
  004b7	e8 00 00 00 00	 call	 ?IsEmptyDest@CMover@@QAEHXZ ; CMover::IsEmptyDest
  004bc	85 c0		 test	 eax, eax
  004be	0f 85 db 00 00
	00		 jne	 $L265560

; 1464 : 						MoveToDst( pMover->GetPos() );		

  004c4	8d 54 24 38	 lea	 edx, DWORD PTR $T276765[esp+68]
  004c8	52		 push	 edx
  004c9	8b cf		 mov	 ecx, edi
  004cb	e8 00 00 00 00	 call	 ?GetPos@CObj@@QAE?AUD3DXVECTOR3@@XZ ; CObj::GetPos
  004d0	50		 push	 eax
  004d1	8b ce		 mov	 ecx, esi
  004d3	e8 00 00 00 00	 call	 ?MoveToDst@CAIAggro@@IAEXABUD3DXVECTOR3@@@Z ; CAIAggro::MoveToDst

; 1465 : 				} else

  004d8	e9 c2 00 00 00	 jmp	 $L265560
$L265542:

; 1466 : 				{
; 1467 : 					if( fDist < fRange )	

  004dd	d8 d9		 fcomp	 ST(1)
  004df	df e0		 fnstsw	 ax
  004e1	dd d8		 fstp	 ST(0)
  004e3	f6 c4 05	 test	 ah, 5
  004e6	0f 8a a5 00 00
	00		 jp	 $L265532

; 1468 : 					{
; 1469 : 						FLOAT fAngle = GetDegreeX( pMover->GetPos(), pTarget->GetPos() );
; 1470 : 						D3DXVECTOR3 vDst = pMover->GetPos() + VelocityToVec( fAngle, 10 );

  004ec	68 00 00 20 41	 push	 1092616192		; 41200000H
  004f1	8d 44 24 3c	 lea	 eax, DWORD PTR $T276766[esp+72]
  004f5	50		 push	 eax
  004f6	8b cd		 mov	 ecx, ebp
  004f8	e8 00 00 00 00	 call	 ?GetPos@CObj@@QAE?AUD3DXVECTOR3@@XZ ; CObj::GetPos
  004fd	50		 push	 eax
  004fe	8d 4c 24 28	 lea	 ecx, DWORD PTR $T276767[esp+76]
  00502	51		 push	 ecx
  00503	8b cf		 mov	 ecx, edi
  00505	e8 00 00 00 00	 call	 ?GetPos@CObj@@QAE?AUD3DXVECTOR3@@XZ ; CObj::GetPos
  0050a	50		 push	 eax
  0050b	e8 00 00 00 00	 call	 ?GetDegreeX@@YAMABUD3DXVECTOR3@@0@Z ; GetDegreeX
  00510	d9 5c 24 04	 fstp	 DWORD PTR [esp+4]
  00514	83 c4 04	 add	 esp, 4
  00517	8d 54 24 40	 lea	 edx, DWORD PTR $T276769[esp+76]
  0051b	52		 push	 edx
  0051c	e8 00 00 00 00	 call	 ?VelocityToVec@@YA?AUD3DXVECTOR3@@MM@Z ; VelocityToVec
  00521	8b d8		 mov	 ebx, eax
  00523	83 c4 0c	 add	 esp, 12			; 0000000cH
  00526	8d 44 24 2c	 lea	 eax, DWORD PTR $T276768[esp+68]
  0052a	50		 push	 eax
  0052b	8b cf		 mov	 ecx, edi
  0052d	e8 00 00 00 00	 call	 ?GetPos@CObj@@QAE?AUD3DXVECTOR3@@XZ ; CObj::GetPos
  00532	d9 43 08	 fld	 DWORD PTR [ebx+8]
  00535	d8 40 08	 fadd	 DWORD PTR [eax+8]

; 1471 : 						MoveToDst( vDst );		

  00538	8d 4c 24 2c	 lea	 ecx, DWORD PTR _vDst$265550[esp+68]
  0053c	d9 43 04	 fld	 DWORD PTR [ebx+4]
  0053f	51		 push	 ecx
  00540	d8 40 04	 fadd	 DWORD PTR [eax+4]
  00543	8b ce		 mov	 ecx, esi
  00545	d9 03		 fld	 DWORD PTR [ebx]
  00547	d8 00		 fadd	 DWORD PTR [eax]
  00549	d9 5c 24 30	 fstp	 DWORD PTR _vDst$265550[esp+72]
  0054d	d9 5c 24 34	 fstp	 DWORD PTR _vDst$265550[esp+76]
  00551	d9 5c 24 38	 fstp	 DWORD PTR _vDst$265550[esp+80]
  00555	e8 00 00 00 00	 call	 ?MoveToDst@CAIAggro@@IAEXABUD3DXVECTOR3@@@Z ; CAIAggro::MoveToDst

; 1472 : 					} else
; 1473 : 						MoveToDst( pTarget->GetId() );	
; 1474 : 				}
; 1475 : 			} else

  0055a	eb 43		 jmp	 SHORT $L265560
$L265541:

; 1476 : 			{
; 1477 : 				if( fDist < fRange )		

  0055c	d8 d9		 fcomp	 ST(1)
  0055e	df e0		 fnstsw	 ax
  00560	dd d8		 fstp	 ST(0)
  00562	f6 c4 05	 test	 ah, 5
  00565	7a 21		 jp	 SHORT $L265556

; 1478 : 				{
; 1479 : 					if( pMover->IsEmptyDest() == FALSE )	

  00567	8b cf		 mov	 ecx, edi
  00569	e8 00 00 00 00	 call	 ?IsEmptyDest@CMover@@QAEHXZ ; CMover::IsEmptyDest
  0056e	85 c0		 test	 eax, eax
  00570	75 2d		 jne	 SHORT $L265560

; 1480 : 						MoveToDst( pMover->GetPos() );	

  00572	8d 44 24 38	 lea	 eax, DWORD PTR $T276770[esp+68]
  00576	50		 push	 eax
  00577	8b cf		 mov	 ecx, edi
  00579	e8 00 00 00 00	 call	 ?GetPos@CObj@@QAE?AUD3DXVECTOR3@@XZ ; CObj::GetPos
  0057e	50		 push	 eax
  0057f	8b ce		 mov	 ecx, esi
  00581	e8 00 00 00 00	 call	 ?MoveToDst@CAIAggro@@IAEXABUD3DXVECTOR3@@@Z ; CAIAggro::MoveToDst

; 1481 : 				} else

  00586	eb 17		 jmp	 SHORT $L265560
$L265556:

; 1482 : 					MoveToDst( pTarget->GetId() );	

  00588	8b 8d bc 01 00
	00		 mov	 ecx, DWORD PTR [ebp+444]
  0058e	51		 push	 ecx

; 1483 : 			}
; 1484 : 		} else

  0058f	eb 07		 jmp	 SHORT $L277055
$L265532:

; 1485 : 		{
; 1486 : 			MoveToDst( pTarget->GetId() );		

  00591	8b 95 bc 01 00
	00		 mov	 edx, DWORD PTR [ebp+444]
  00597	52		 push	 edx
$L277055:
  00598	8b ce		 mov	 ecx, esi
  0059a	e8 00 00 00 00	 call	 ?MoveToDst@CAIAggro@@IAEXK@Z ; CAIAggro::MoveToDst
$L265560:

; 1487 : 		}
; 1488 : 
; 1489 : 		if( pProp->m_nSummProb )		

  0059f	8b 44 24 14	 mov	 eax, DWORD PTR $T276801[esp+68]
  005a3	8b 88 20 02 00
	00		 mov	 ecx, DWORD PTR [eax+544]
  005a9	85 c9		 test	 ecx, ecx
  005ab	74 08		 je	 SHORT $L265561

; 1490 : 			SubSummonProcess( pTarget );	

  005ad	55		 push	 ebp
  005ae	8b ce		 mov	 ecx, esi
  005b0	e8 00 00 00 00	 call	 ?SubSummonProcess@CAIAggro@@IAEXPAVCMover@@@Z ; CAIAggro::SubSummonProcess
$L265561:

; 1491 : 		
; 1492 : 		if( TIMEGETTIME > m_tmAttackDelay )

  005b5	8b 0d 00 00 00
	00		 mov	 ecx, DWORD PTR ?g_tmCurrent@@3KA ; g_tmCurrent
  005bb	3b 4e 40	 cmp	 ecx, DWORD PTR [esi+64]
  005be	76 1b		 jbe	 SHORT $L265563

; 1493 : 		{
; 1494 : 			if( SubAttackChance( msg, pTarget ) == FALSE )

  005c0	8b 54 24 48	 mov	 edx, DWORD PTR _msg$[esp+64]
  005c4	55		 push	 ebp
  005c5	52		 push	 edx
  005c6	8b ce		 mov	 ecx, esi
  005c8	e8 00 00 00 00	 call	 ?SubAttackChance@CAIAggro@@IAEHABUAIMSG@@PAVCMover@@@Z ; CAIAggro::SubAttackChance
  005cd	85 c0		 test	 eax, eax
  005cf	75 0a		 jne	 SHORT $L265563
  005d1	5d		 pop	 ebp
  005d2	5b		 pop	 ebx
  005d3	5f		 pop	 edi
  005d4	5e		 pop	 esi

; 1506 : 
; 1507 : 	return TRUE;
; 1508 : }

  005d5	83 c4 34	 add	 esp, 52			; 00000034H
  005d8	c2 04 00	 ret	 4
$L265563:

; 1495 : 				return FALSE;
; 1496 : 		}
; 1497 : 	}
; 1498 : 
; 1499 : 	CMover* pTargetNext;
; 1500 : 	if( CInstanceDungeonHelper::GetInstance()->IsInstanceDungeon( pWorld->GetID() ) )

  005db	8b 44 24 10	 mov	 eax, DWORD PTR _pWorld$[esp+68]
  005df	8b 00		 mov	 eax, DWORD PTR [eax]
  005e1	50		 push	 eax
  005e2	e8 00 00 00 00	 call	 ?GetInstance@CInstanceDungeonHelper@@SAPAV1@XZ ; CInstanceDungeonHelper::GetInstance
  005e7	8b c8		 mov	 ecx, eax
  005e9	e8 00 00 00 00	 call	 ?IsInstanceDungeon@CInstanceDungeonHelper@@QAEHK@Z ; CInstanceDungeonHelper::IsInstanceDungeon
  005ee	85 c0		 test	 eax, eax
  005f0	74 0f		 je	 SHORT $L265565

; 1501 : 		pTargetNext	= ScanTargetAggro( pMover, 160, m_dwAIInterface, m_uParty );

  005f2	8b 4e 34	 mov	 ecx, DWORD PTR [esi+52]
  005f5	8b 56 38	 mov	 edx, DWORD PTR [esi+56]
  005f8	51		 push	 ecx
  005f9	52		 push	 edx
  005fa	68 00 00 20 43	 push	 1126170624		; 43200000H

; 1502 : 	else

  005ff	eb 0d		 jmp	 SHORT $L277056
$L265565:

; 1503 : 		pTargetNext	= ScanTargetAggro( pMover, 15, m_dwAIInterface, m_uParty );

  00601	8b 46 34	 mov	 eax, DWORD PTR [esi+52]
  00604	8b 4e 38	 mov	 ecx, DWORD PTR [esi+56]
  00607	50		 push	 eax
  00608	51		 push	 ecx
  00609	68 00 00 70 41	 push	 1097859072		; 41700000H
$L277056:
  0060e	8b ce		 mov	 ecx, esi
  00610	57		 push	 edi
  00611	e8 00 00 00 00	 call	 ?ScanTargetAggro@CAIInterface@@IAEPAVCMover@@PAVCObj@@MKK@Z ; CAIInterface::ScanTargetAggro

; 1504 : 	if( pTargetNext && pTarget && pTargetNext->GetId() != pTarget->GetId() )

  00616	85 c0		 test	 eax, eax
  00618	0f 84 7a fd ff
	ff		 je	 $L277060
  0061e	8b 88 bc 01 00
	00		 mov	 ecx, DWORD PTR [eax+444]
  00624	3b 8d bc 01 00
	00		 cmp	 ecx, DWORD PTR [ebp+444]
  0062a	0f 84 68 fd ff
	ff		 je	 $L277060

; 1505 : 		SetTarget( pTargetNext->GetId(), pTargetNext->GetPartyId() );

  00630	8b 90 18 07 00
	00		 mov	 edx, DWORD PTR [eax+1816]
  00636	52		 push	 edx
  00637	51		 push	 ecx
  00638	8b ce		 mov	 ecx, esi
  0063a	e8 00 00 00 00	 call	 ?SetTarget@CAIAggro@@IAEXKK@Z ; CAIAggro::SetTarget
  0063f	5d		 pop	 ebp
  00640	5b		 pop	 ebx
  00641	5f		 pop	 edi
  00642	b8 01 00 00 00	 mov	 eax, 1
  00647	5e		 pop	 esi

; 1506 : 
; 1507 : 	return TRUE;
; 1508 : }

  00648	83 c4 34	 add	 esp, 52			; 00000034H
  0064b	c2 04 00	 ret	 4
$L265484:

; 1338 : 	{
; 1339 : 		int nAttackFirstRange	= pProp->m_nAttackFirstRange;
; 1340 : 		CMover* pTarget	= NULL;
; 1341 : 		if( CInstanceDungeonHelper::GetInstance()->IsInstanceDungeon( pWorld->GetID() ) )

  0064e	8b 44 24 10	 mov	 eax, DWORD PTR _pWorld$[esp+68]
  00652	8b 28		 mov	 ebp, DWORD PTR [eax]
  00654	e8 00 00 00 00	 call	 ?GetInstance@CInstanceDungeonHelper@@SAPAV1@XZ ; CInstanceDungeonHelper::GetInstance
  00659	55		 push	 ebp
  0065a	8b c8		 mov	 ecx, eax
  0065c	e8 00 00 00 00	 call	 ?GetType@CInstanceDungeonHelper@@AAEHK@Z ; CInstanceDungeonHelper::GetType
  00661	83 f8 ff	 cmp	 eax, -1
  00664	74 0f		 je	 SHORT $L265487

; 1342 : 			pTarget	= ScanTargetAggro( pMover, 160, m_dwAIInterface, m_uParty );

  00666	8b 4e 34	 mov	 ecx, DWORD PTR [esi+52]
  00669	8b 56 38	 mov	 edx, DWORD PTR [esi+56]
  0066c	51		 push	 ecx
  0066d	52		 push	 edx
  0066e	68 00 00 20 43	 push	 1126170624		; 43200000H

; 1343 : 		else

  00673	eb 0d		 jmp	 SHORT $L277057
$L265487:

; 1344 : 			pTarget	= ScanTargetAggro( pMover, 15, m_dwAIInterface, m_uParty );

  00675	8b 46 34	 mov	 eax, DWORD PTR [esi+52]
  00678	8b 4e 38	 mov	 ecx, DWORD PTR [esi+56]
  0067b	50		 push	 eax
  0067c	51		 push	 ecx
  0067d	68 00 00 70 41	 push	 1097859072		; 41700000H
$L277057:
  00682	8b ce		 mov	 ecx, esi
  00684	57		 push	 edi
  00685	e8 00 00 00 00	 call	 ?ScanTargetAggro@CAIInterface@@IAEPAVCMover@@PAVCObj@@MKK@Z ; CAIInterface::ScanTargetAggro

; 1345 : 
; 1346 : 		if( pTarget	== NULL )

  0068a	85 c0		 test	 eax, eax
  0068c	75 1a		 jne	 SHORT $L265489

; 1347 : 		{
; 1348 : 			if( dwAIState == STATE_STAND )

  0068e	83 fb 08	 cmp	 ebx, 8
  00691	75 09		 jne	 SHORT $L277049

; 1349 : 				DoReturnToBegin();

  00693	6a 01		 push	 1
  00695	8b ce		 mov	 ecx, esi
  00697	e8 00 00 00 00	 call	 ?DoReturnToBegin@CAIAggro@@IAEXH@Z ; CAIAggro::DoReturnToBegin
$L277049:

; 1350 : 			SendAIMsg( AIMSG_SETSTATE, dwAIState );

  0069c	8b 16		 mov	 edx, DWORD PTR [esi]
  0069e	6a 00		 push	 0
  006a0	6a 00		 push	 0
  006a2	53		 push	 ebx

; 1351 : 			return TRUE;

  006a3	e9 e9 fc ff ff	 jmp	 $L277059
$L265489:

; 1352 : 		}
; 1353 : 		else
; 1354 : 		{
; 1355 : 			SendAIMsg( AIMSG_SETSTATE, STATE_RAGE, pTarget->GetId() );

  006a8	8b 80 bc 01 00
	00		 mov	 eax, DWORD PTR [eax+444]
  006ae	8b 16		 mov	 edx, DWORD PTR [esi]
  006b0	6a 00		 push	 0
  006b2	50		 push	 eax
  006b3	6a 07		 push	 7

; 1356 : 			return TRUE;

  006b5	e9 d7 fc ff ff	 jmp	 $L277059
$L265479:
  006ba	5f		 pop	 edi

; 1329 : 		return FALSE;

  006bb	33 c0		 xor	 eax, eax
  006bd	5e		 pop	 esi

; 1506 : 
; 1507 : 	return TRUE;
; 1508 : }

  006be	83 c4 34	 add	 esp, 52			; 00000034H
  006c1	c2 04 00	 ret	 4
?MoveProcessRage@CAIAggro@@IAEHABUAIMSG@@@Z ENDP	; CAIAggro::MoveProcessRage
_TEXT	ENDS
PUBLIC	?MoveProcessRagePatrol@CAIAggro@@IAEHABUAIMSG@@@Z ; CAIAggro::MoveProcessRagePatrol
; Function compile flags: /Ogty
;	COMDAT ?MoveProcessRagePatrol@CAIAggro@@IAEHABUAIMSG@@@Z
_TEXT	SEGMENT
$T277105 = -48						; size = 4
tv795 = -44						; size = 4
_pWorld$ = -44						; size = 4
$T277203 = -40						; size = 4
$T277071 = -36						; size = 12
_vTargetTo$ = -36					; size = 12
$T277072 = -24						; size = 12
$T277070 = -24						; size = 12
$T277067 = -24						; size = 12
$T277065 = -24						; size = 12
$T277064 = -24						; size = 12
$T277074 = -12						; size = 12
_vDst$265625 = -12					; size = 12
$T277073 = -12						; size = 12
$T277069 = -12						; size = 12
$T277068 = -12						; size = 12
$T277066 = -12						; size = 12
_vTarget$265590 = -12					; size = 12
_vDist$265585 = -12					; size = 12
_msg$ = 8						; size = 4
?MoveProcessRagePatrol@CAIAggro@@IAEHABUAIMSG@@@Z PROC NEAR ; CAIAggro::MoveProcessRagePatrol, COMDAT
; _this$ = ecx

; 1511 : {

  00000	83 ec 30	 sub	 esp, 48			; 00000030H
  00003	56		 push	 esi
  00004	8b f1		 mov	 esi, ecx

; 1512 : 	CMover* pMover = GetMover();
; 1513 : 	CWorld* pWorld = GetWorld();
; 1514 : 	MoverProp *pProp = pMover->GetProp();

  00006	8b 0d d0 01 00
	00		 mov	 ecx, DWORD PTR ?prj@@3VCProject@@A+464
  0000c	57		 push	 edi
  0000d	8b 7e 30	 mov	 edi, DWORD PTR [esi+48]
  00010	8b 87 6c 01 00
	00		 mov	 eax, DWORD PTR [edi+364]
  00016	89 44 24 0c	 mov	 DWORD PTR _pWorld$[esp+56], eax
  0001a	8b 87 74 01 00
	00		 mov	 eax, DWORD PTR [edi+372]
  00020	85 c0		 test	 eax, eax
  00022	7c 18		 jl	 SHORT $L277113
  00024	3b c1		 cmp	 eax, ecx
  00026	7d 14		 jge	 SHORT $L277113
  00028	8b 0d d4 01 00
	00		 mov	 ecx, DWORD PTR ?prj@@3VCProject@@A+468
  0002e	69 c0 d8 06 00
	00		 imul	 eax, 1752		; 000006d8H
  00034	03 c1		 add	 eax, ecx
  00036	89 44 24 08	 mov	 DWORD PTR $T277105[esp+56], eax
  0003a	eb 1e		 jmp	 SHORT $L277108
$L277113:
  0003c	50		 push	 eax
  0003d	51		 push	 ecx
  0003e	6a 00		 push	 0
  00040	68 00 00 00 00	 push	 OFFSET FLAT:??_C@_0BJ@GKPOBPPI@GetMoverProp?5range_error?$AA@
  00045	68 00 00 00 00	 push	 OFFSET FLAT:??_C@_0BM@HMFGHCP@?$CFs?5min?3?$CFd?0?5max?3?$CFd?0?5index?3?$CFd?$AA@
  0004a	e8 00 00 00 00	 call	 ?Error@@YAPBDPBDZZ	; Error
  0004f	83 c4 14	 add	 esp, 20			; 00000014H
  00052	c7 44 24 08 00
	00 00 00	 mov	 DWORD PTR $T277105[esp+56], 0
$L277108:

; 1515 : 	
; 1516 : 	if( pMover->IsDie() || (pMover->m_pActMover->GetState() & OBJSTA_DMG_FLY_ALL) )

  0005a	8b 8f 3c 02 00
	00		 mov	 ecx, DWORD PTR [edi+572]
  00060	8b 41 04	 mov	 eax, DWORD PTR [ecx+4]
  00063	a9 00 00 00 08	 test	 eax, 134217728		; 08000000H
  00068	0f 85 30 04 00
	00		 jne	 $L265576
  0006e	8b 8f 00 06 00
	00		 mov	 ecx, DWORD PTR [edi+1536]
  00074	85 c9		 test	 ecx, ecx
  00076	0f 84 22 04 00
	00		 je	 $L265576
  0007c	a9 00 00 00 02	 test	 eax, 33554432		; 02000000H
  00081	0f 85 17 04 00
	00		 jne	 $L265576

; 1518 : 	
; 1519 : 	CMover* pTarget = prj.GetMover( m_dwIdTarget ); 

  00087	8b 96 e0 00 00
	00		 mov	 edx, DWORD PTR [esi+224]
  0008d	53		 push	 ebx
  0008e	55		 push	 ebp
  0008f	52		 push	 edx
  00090	b9 00 00 00 00	 mov	 ecx, OFFSET FLAT:?prj@@3VCProject@@A
  00095	e8 00 00 00 00	 call	 ?GetMover@CProject@@QAEPAVCMover@@K@Z ; CProject::GetMover

; 1520 : 
; 1521 : 	DWORD dwAIState = pMover->m_dwAIInterfaceState;

  0009a	8b 9f 90 01 00
	00		 mov	 ebx, DWORD PTR [edi+400]
  000a0	8b e8		 mov	 ebp, eax

; 1522 : 
; 1523 : 	if( IsValidObj( pTarget ) == FALSE )

  000a2	85 ed		 test	 ebp, ebp
  000a4	0f 84 6f 01 00
	00		 je	 $L277264
  000aa	f6 45 04 01	 test	 BYTE PTR [ebp+4], 1

; 1524 : 	{
; 1525 : 		DoReturnToBegin();
; 1526 : 		SendAIMsg( AIMSG_SETSTATE, dwAIState );
; 1527 : 		return TRUE;

  000ae	0f 85 65 01 00
	00		 jne	 $L277264

; 1528 : 	}
; 1529 : 	
; 1530 : 	if( ((CMover*)pTarget)->IsDie() )

  000b4	8b 85 3c 02 00
	00		 mov	 eax, DWORD PTR [ebp+572]
  000ba	f7 40 04 00 00
	00 08		 test	 DWORD PTR [eax+4], 134217728 ; 08000000H
  000c1	0f 85 81 01 00
	00		 jne	 $L277258
  000c7	8b 8d 00 06 00
	00		 mov	 ecx, DWORD PTR [ebp+1536]
  000cd	85 c9		 test	 ecx, ecx

; 1531 : 	{
; 1532 : 		DoReturnToBegin();	
; 1533 : 		SendAIMsg( AIMSG_SETSTATE, dwAIState );
; 1534 : 		return TRUE;

  000cf	0f 84 73 01 00
	00		 je	 $L277258

; 1535 : 	}
; 1536 : 
; 1537 : #ifdef __JHMA_VER_8_6     
; 1538 : 	if( pMover->IsFlyingNPC() == TRUE && ((CMover*)pTarget)->m_pActMover->IsFly() == FALSE )	
; 1539 : #else	// __VER >= 8  
; 1540 : 	if( pMover->IsFlyingNPC() == FALSE && ((CMover*)pTarget)->m_pActMover->IsFly() )	

  000d5	f6 87 42 02 00
	00 01		 test	 BYTE PTR [edi+578], 1
  000dc	75 0a		 jne	 SHORT $L265583
  000de	f6 40 08 08	 test	 BYTE PTR [eax+8], 8

; 1541 : #endif	// __VER >= 8  
; 1542 : 	{
; 1543 : 		DoReturnToBegin();
; 1544 : 		SendAIMsg( AIMSG_SETSTATE, dwAIState );
; 1545 : 		return TRUE;

  000e2	0f 85 31 01 00
	00		 jne	 $L277264
$L265583:

; 1546 : 	}
; 1547 : 
; 1548 : 	if( TIMEGETTIME > m_tmAttack )

  000e8	a1 00 00 00 00	 mov	 eax, DWORD PTR ?g_tmCurrent@@3KA ; g_tmCurrent
  000ed	3b 46 44	 cmp	 eax, DWORD PTR [esi+68]
  000f0	0f 86 b6 00 00
	00		 jbe	 $L265584

; 1549 : 	{
; 1550 : 		m_tmAttack = TIMEGETTIME + s_tmAttack;		

  000f6	8b 0d 00 00 00
	00		 mov	 ecx, DWORD PTR _s_tmAttack
  000fc	03 c8		 add	 ecx, eax

; 1551 : 		D3DXVECTOR3 vDist = pMover->GetPos() - m_vOldPos;

  000fe	8d 54 24 28	 lea	 edx, DWORD PTR $T277064[esp+64]
  00102	89 4e 44	 mov	 DWORD PTR [esi+68], ecx
  00105	52		 push	 edx
  00106	8b cf		 mov	 ecx, edi
  00108	e8 00 00 00 00	 call	 ?GetPos@CObj@@QAE?AUD3DXVECTOR3@@XZ ; CObj::GetPos
  0010d	d9 00		 fld	 DWORD PTR [eax]
  0010f	d8 66 6c	 fsub	 DWORD PTR [esi+108]

; 1552 : 		vDist.y = 0;					
; 1553 : 		if( IsInRange( vDist, 2.0f ) )	

  00112	68 00 00 00 40	 push	 1073741824		; 40000000H
  00117	8b ce		 mov	 ecx, esi
  00119	c7 44 24 3c 00
	00 00 00	 mov	 DWORD PTR _vDist$265585[esp+72], 0
  00121	d9 5c 24 38	 fstp	 DWORD PTR _vDist$265585[esp+68]
  00125	d9 40 08	 fld	 DWORD PTR [eax+8]
  00128	8d 44 24 38	 lea	 eax, DWORD PTR _vDist$265585[esp+68]
  0012c	d8 66 74	 fsub	 DWORD PTR [esi+116]
  0012f	50		 push	 eax
  00130	d9 5c 24 44	 fstp	 DWORD PTR _vDist$265585[esp+80]
  00134	e8 00 00 00 00	 call	 ?IsInRange@CAIAggro@@IAEHAAUD3DXVECTOR3@@M@Z ; CAIAggro::IsInRange
  00139	85 c0		 test	 eax, eax
  0013b	0f 84 fe 00 00
	00		 je	 $L265588

; 1554 : 		{
; 1555 : 			if( pMover->GetSpeed( pMover->m_pActMover->m_fSpeed ) > 0 )		

  00141	8b 8f 3c 02 00
	00		 mov	 ecx, DWORD PTR [edi+572]
  00147	8b 51 48	 mov	 edx, DWORD PTR [ecx+72]
  0014a	52		 push	 edx
  0014b	8b cf		 mov	 ecx, edi
  0014d	e8 00 00 00 00	 call	 ?GetSpeed@CMover@@QAEMM@Z ; CMover::GetSpeed
  00152	d8 1d 00 00 00
	00		 fcomp	 DWORD PTR __real@00000000
  00158	df e0		 fnstsw	 ax
  0015a	f6 c4 41	 test	 ah, 65			; 00000041H
  0015d	75 30		 jne	 SHORT $L265589

; 1556 : 			{
; 1557 : 				D3DXVECTOR3 vTarget = pTarget->GetPos();

  0015f	8d 44 24 34	 lea	 eax, DWORD PTR _vTarget$265590[esp+64]
  00163	50		 push	 eax
  00164	8b cd		 mov	 ecx, ebp
  00166	e8 00 00 00 00	 call	 ?GetPos@CObj@@QAE?AUD3DXVECTOR3@@XZ ; CObj::GetPos

; 1558 : 				pMover->SetPos( vTarget );		

  0016b	8d 4c 24 34	 lea	 ecx, DWORD PTR _vTarget$265590[esp+64]
  0016f	51		 push	 ecx
  00170	8b cf		 mov	 ecx, edi
  00172	e8 00 00 00 00	 call	 ?SetPos@CObj@@QAEXABUD3DXVECTOR3@@@Z ; CObj::SetPos

; 1559 : 				g_UserMng.AddSetPos( pMover, pMover->GetPos() );

  00177	8d 54 24 28	 lea	 edx, DWORD PTR $T277065[esp+64]
  0017b	52		 push	 edx
  0017c	8b cf		 mov	 ecx, edi
  0017e	e8 00 00 00 00	 call	 ?GetPos@CObj@@QAE?AUD3DXVECTOR3@@XZ ; CObj::GetPos
  00183	50		 push	 eax
  00184	57		 push	 edi
  00185	b9 00 00 00 00	 mov	 ecx, OFFSET FLAT:?g_UserMng@@3VCUserMng@@A
  0018a	e8 00 00 00 00	 call	 ?AddSetPos@CUserMng@@QAEXPAVCCtrl@@AAUD3DXVECTOR3@@@Z ; CUserMng::AddSetPos
$L265589:

; 1567 : 			return TRUE;
; 1568 : 		}
; 1569 : 		m_vOldPos = pMover->GetPos();	

  0018f	8d 44 24 34	 lea	 eax, DWORD PTR $T277066[esp+64]
  00193	50		 push	 eax
  00194	8b cf		 mov	 ecx, edi
  00196	e8 00 00 00 00	 call	 ?GetPos@CObj@@QAE?AUD3DXVECTOR3@@XZ ; CObj::GetPos
  0019b	8b 08		 mov	 ecx, DWORD PTR [eax]
  0019d	89 4e 6c	 mov	 DWORD PTR [esi+108], ecx
  001a0	8b 50 04	 mov	 edx, DWORD PTR [eax+4]
  001a3	89 56 70	 mov	 DWORD PTR [esi+112], edx
  001a6	8b 40 08	 mov	 eax, DWORD PTR [eax+8]
  001a9	89 46 74	 mov	 DWORD PTR [esi+116], eax
$L265584:

; 1570 : 	}
; 1571 : 
; 1572 : 	D3DXVECTOR3	vTargetTo = pTarget->GetPos() - pMover->GetPos();	

  001ac	8d 87 60 01 00
	00		 lea	 eax, DWORD PTR [edi+352]
  001b2	8b 08		 mov	 ecx, DWORD PTR [eax]
  001b4	8b 50 04	 mov	 edx, DWORD PTR [eax+4]
  001b7	8b 40 08	 mov	 eax, DWORD PTR [eax+8]
  001ba	89 4c 24 34	 mov	 DWORD PTR $T277068[esp+64], ecx
  001be	89 54 24 38	 mov	 DWORD PTR $T277068[esp+68], edx
  001c2	8d 8d 60 01 00
	00		 lea	 ecx, DWORD PTR [ebp+352]
  001c8	8b 11		 mov	 edx, DWORD PTR [ecx]
  001ca	89 54 24 28	 mov	 DWORD PTR $T277067[esp+64], edx
  001ce	d9 44 24 28	 fld	 DWORD PTR $T277067[esp+64]
  001d2	d8 64 24 34	 fsub	 DWORD PTR $T277068[esp+64]
  001d6	89 44 24 3c	 mov	 DWORD PTR $T277068[esp+72], eax
  001da	8b 41 04	 mov	 eax, DWORD PTR [ecx+4]
  001dd	8b 49 08	 mov	 ecx, DWORD PTR [ecx+8]
  001e0	d9 5c 24 1c	 fstp	 DWORD PTR _vTargetTo$[esp+64]
  001e4	89 44 24 2c	 mov	 DWORD PTR $T277067[esp+68], eax
  001e8	d9 44 24 2c	 fld	 DWORD PTR $T277067[esp+68]
  001ec	89 4c 24 30	 mov	 DWORD PTR $T277067[esp+72], ecx
  001f0	d8 64 24 38	 fsub	 DWORD PTR $T277068[esp+68]

; 1573 : 	if( IsInRange( vTargetTo, RANGE_CANCEL ) == FALSE )

  001f4	68 00 00 f0 42	 push	 1123024896		; 42f00000H
  001f9	8d 54 24 20	 lea	 edx, DWORD PTR _vTargetTo$[esp+68]
  001fd	52		 push	 edx
  001fe	d9 5c 24 28	 fstp	 DWORD PTR _vTargetTo$[esp+76]
  00202	8b ce		 mov	 ecx, esi
  00204	d9 44 24 38	 fld	 DWORD PTR $T277067[esp+80]
  00208	d8 64 24 44	 fsub	 DWORD PTR $T277068[esp+80]
  0020c	d9 5c 24 2c	 fstp	 DWORD PTR _vTargetTo$[esp+80]
  00210	e8 00 00 00 00	 call	 ?IsInRange@CAIAggro@@IAEHAAUD3DXVECTOR3@@M@Z ; CAIAggro::IsInRange
  00215	85 c0		 test	 eax, eax
  00217	75 55		 jne	 SHORT $L265599
$L277264:

; 1574 : 	{
; 1575 : 		DoReturnToBegin();

  00219	6a 01		 push	 1
  0021b	8b ce		 mov	 ecx, esi
  0021d	e8 00 00 00 00	 call	 ?DoReturnToBegin@CAIAggro@@IAEXH@Z ; CAIAggro::DoReturnToBegin

; 1576 : 		SendAIMsg( AIMSG_SETSTATE, dwAIState );

  00222	8b 06		 mov	 eax, DWORD PTR [esi]
  00224	6a 00		 push	 0
  00226	6a 00		 push	 0
  00228	53		 push	 ebx
  00229	6a 04		 push	 4
  0022b	8b ce		 mov	 ecx, esi
  0022d	ff 50 0c	 call	 DWORD PTR [eax+12]
  00230	5d		 pop	 ebp
  00231	5b		 pop	 ebx
  00232	5f		 pop	 edi

; 1577 : 		return TRUE;

  00233	b8 01 00 00 00	 mov	 eax, 1
  00238	5e		 pop	 esi

; 1649 : 				return FALSE;
; 1650 : 		}
; 1651 : 	}
; 1652 : 	return TRUE;
; 1653 : }

  00239	83 c4 30	 add	 esp, 48			; 00000030H
  0023c	c2 04 00	 ret	 4
$L265588:

; 1560 : 			} 
; 1561 : 		} 
; 1562 : 		else
; 1563 : 		{
; 1564 : 			m_tmReturnToBegin = TIMEGETTIME;		

  0023f	8b 0d 00 00 00
	00		 mov	 ecx, DWORD PTR ?g_tmCurrent@@3KA ; g_tmCurrent
  00245	89 4e 50	 mov	 DWORD PTR [esi+80], ecx
$L277258:

; 1565 : 			DoReturnToBegin();

  00248	6a 01		 push	 1
  0024a	8b ce		 mov	 ecx, esi
  0024c	e8 00 00 00 00	 call	 ?DoReturnToBegin@CAIAggro@@IAEXH@Z ; CAIAggro::DoReturnToBegin

; 1566 : 			SendAIMsg( AIMSG_SETSTATE, dwAIState );

  00251	8b 16		 mov	 edx, DWORD PTR [esi]
  00253	6a 00		 push	 0
  00255	6a 00		 push	 0
  00257	53		 push	 ebx
$L277266:

; 1586 : 			{
; 1587 : 				SendAIMsg( AIMSG_SETSTATE, STATE_RAGE, pTarget->GetId() );

  00258	6a 04		 push	 4
  0025a	8b ce		 mov	 ecx, esi
  0025c	ff 52 0c	 call	 DWORD PTR [edx+12]
$L277265:
  0025f	5d		 pop	 ebp
  00260	5b		 pop	 ebx
  00261	5f		 pop	 edi
  00262	b8 01 00 00 00	 mov	 eax, 1
  00267	5e		 pop	 esi

; 1649 : 				return FALSE;
; 1650 : 		}
; 1651 : 	}
; 1652 : 	return TRUE;
; 1653 : }

  00268	83 c4 30	 add	 esp, 48			; 00000030H
  0026b	c2 04 00	 ret	 4
$L265599:

; 1578 : 	}
; 1579 : 	else if( pTarget->GetType() == OT_MOVER && ((CMover *)pTarget)->IsMode( TRANSPARENT_MODE ) )	

  0026e	83 bd 70 01 00
	00 05		 cmp	 DWORD PTR [ebp+368], 5
  00275	75 6b		 jne	 SHORT $L265603
  00277	6a 40		 push	 64			; 00000040H
  00279	8b cd		 mov	 ecx, ebp
  0027b	e8 00 00 00 00	 call	 ?GetAdjParam@CMover@@QAEHH@Z ; CMover::GetAdjParam
  00280	f6 c4 04	 test	 ah, 4
  00283	75 17		 jne	 SHORT $L277257
  00285	8b 8d 44 02 00
	00		 mov	 ecx, DWORD PTR [ebp+580]
  0028b	80 e1 02	 and	 cl, 2
  0028e	80 e9 02	 sub	 cl, 2
  00291	f6 d9		 neg	 cl
  00293	1b c9		 sbb	 ecx, ecx
  00295	41		 inc	 ecx
  00296	89 4c 24 18	 mov	 DWORD PTR $T277203[esp+64], ecx
  0029a	74 46		 je	 SHORT $L265603
$L277257:

; 1580 : 	{
; 1581 : 
; 1582 : 		if( CInstanceDungeonHelper::GetInstance()->IsInstanceDungeon( pWorld->GetID() ) )

  0029c	8b 54 24 14	 mov	 edx, DWORD PTR _pWorld$[esp+64]
  002a0	8b 02		 mov	 eax, DWORD PTR [edx]
  002a2	50		 push	 eax
  002a3	e8 00 00 00 00	 call	 ?GetInstance@CInstanceDungeonHelper@@SAPAV1@XZ ; CInstanceDungeonHelper::GetInstance
  002a8	8b c8		 mov	 ecx, eax
  002aa	e8 00 00 00 00	 call	 ?IsInstanceDungeon@CInstanceDungeonHelper@@QAEHK@Z ; CInstanceDungeonHelper::IsInstanceDungeon
  002af	85 c0		 test	 eax, eax
  002b1	74 95		 je	 SHORT $L277258

; 1583 : 		{
; 1584 : 			CMover* pTarget = ScanTargetAggro( pMover, 160, m_dwAIInterface, m_uParty );	

  002b3	8b 46 34	 mov	 eax, DWORD PTR [esi+52]
  002b6	8b 4e 38	 mov	 ecx, DWORD PTR [esi+56]
  002b9	50		 push	 eax
  002ba	51		 push	 ecx
  002bb	68 00 00 20 43	 push	 1126170624		; 43200000H
  002c0	57		 push	 edi
  002c1	8b ce		 mov	 ecx, esi
  002c3	e8 00 00 00 00	 call	 ?ScanTargetAggro@CAIInterface@@IAEPAVCMover@@PAVCObj@@MKK@Z ; CAIInterface::ScanTargetAggro

; 1585 : 			if( pTarget	)

  002c8	85 c0		 test	 eax, eax
  002ca	0f 84 78 ff ff
	ff		 je	 $L277258

; 1586 : 			{
; 1587 : 				SendAIMsg( AIMSG_SETSTATE, STATE_RAGE, pTarget->GetId() );

  002d0	8b 80 bc 01 00
	00		 mov	 eax, DWORD PTR [eax+444]
  002d6	8b 16		 mov	 edx, DWORD PTR [esi]
  002d8	6a 00		 push	 0
  002da	50		 push	 eax
  002db	6a 07		 push	 7

; 1588 : 				return TRUE;

  002dd	e9 76 ff ff ff	 jmp	 $L277266
$L265603:

; 1589 : 			}
; 1590 : 		}
; 1591 : 
; 1592 : 		DoReturnToBegin();	
; 1593 : 		SendAIMsg( AIMSG_SETSTATE, dwAIState );
; 1594 : 		return TRUE;
; 1595 : 	}
; 1596 : 	else
; 1597 : 	{
; 1598 : 		m_bRangeAttack = SelectAttackType( pTarget );		

  002e2	55		 push	 ebp
  002e3	8b ce		 mov	 ecx, esi
  002e5	e8 00 00 00 00	 call	 ?SelectAttackType@CAIAggro@@IAEHPAVCMover@@@Z ; CAIAggro::SelectAttackType

; 1599 : 
; 1600 : 		if( m_bRangeAttack )

  002ea	85 c0		 test	 eax, eax
  002ec	89 86 d8 00 00
	00		 mov	 DWORD PTR [esi+216], eax
  002f2	0f 84 54 01 00
	00		 je	 $L265608

; 1601 : 		{
; 1602 : 			int nTargetJob = pTarget->GetJob();

  002f8	8b cd		 mov	 ecx, ebp
  002fa	e8 00 00 00 00	 call	 ?GetJob@CMover@@QAEHXZ	; CMover::GetJob

; 1603 : 			if( nTargetJob < 0 )	nTargetJob = 0;	

  002ff	85 c0		 test	 eax, eax

; 1604 : 			if( nTargetJob >= MAX_JOB )

  00301	7c 13		 jl	 SHORT $L277261
  00303	83 f8 28	 cmp	 eax, 40			; 00000028H
  00306	7c 10		 jl	 SHORT $L265611

; 1605 : 			{
; 1606 : 				Error( "CAIAggro::MoverProcessRage :  %d", nTargetJob );

  00308	50		 push	 eax
  00309	68 00 00 00 00	 push	 OFFSET FLAT:??_C@_0CJ@LAMEBJAK@CAIAggro?3?3MoverProcessRage?5?3?5?$LJ?$PM?$MA@
  0030e	e8 00 00 00 00	 call	 ?Error@@YAPBDPBDZZ	; Error
  00313	83 c4 08	 add	 esp, 8
$L277261:

; 1607 : 				nTargetJob = 0;

  00316	33 c0		 xor	 eax, eax
$L265611:

; 1608 : 			}
; 1609 : 
; 1610 : 			FLOAT	fRange = (FLOAT)(pProp->m_bRangeAttack[ nTargetJob ] & 0x7F);	

  00318	8b 4c 24 10	 mov	 ecx, DWORD PTR $T277105[esp+64]
  0031c	8a 84 01 f8 01
	00 00		 mov	 al, BYTE PTR [ecx+eax+504]
  00323	8a d0		 mov	 dl, al
  00325	80 e2 7f	 and	 dl, 127			; 0000007fH

; 1611 : 			BOOL	bKeepRange = (pProp->m_bRangeAttack[ nTargetJob ] & 0x80) ? TRUE : FALSE;
; 1612 : 			FLOAT	fDist = D3DXVec3Length( &vTargetTo );	
; 1613 : 			if( bKeepRange )

  00328	84 c0		 test	 al, al
  0032a	0f b6 ca	 movzx	 ecx, dl
  0032d	89 4c 24 14	 mov	 DWORD PTR tv795[esp+64], ecx
  00331	db 44 24 14	 fild	 DWORD PTR tv795[esp+64]
  00335	d9 44 24 24	 fld	 DWORD PTR _vTargetTo$[esp+72]
  00339	d8 4c 24 24	 fmul	 DWORD PTR _vTargetTo$[esp+72]
  0033d	d9 44 24 20	 fld	 DWORD PTR _vTargetTo$[esp+68]
  00341	d8 4c 24 20	 fmul	 DWORD PTR _vTargetTo$[esp+68]
  00345	de c1		 faddp	 ST(1), ST(0)
  00347	d9 44 24 1c	 fld	 DWORD PTR _vTargetTo$[esp+64]
  0034b	d8 4c 24 1c	 fmul	 DWORD PTR _vTargetTo$[esp+64]
  0034f	de c1		 faddp	 ST(1), ST(0)
  00351	d9 fa		 fsqrt
  00353	0f 89 be 00 00
	00		 jns	 $L265616

; 1614 : 			{
; 1615 : 				if( fabs(fDist - fRange) < 1.0f )	

  00359	d9 c0		 fld	 ST(0)
  0035b	d8 e2		 fsub	 ST(0), ST(2)
  0035d	d9 e1		 fabs
  0035f	d8 1d 00 00 00
	00		 fcomp	 DWORD PTR __real@3f800000
  00365	df e0		 fnstsw	 ax
  00367	f6 c4 05	 test	 ah, 5
  0036a	7a 2c		 jp	 SHORT $L265617
  0036c	dd d8		 fstp	 ST(0)

; 1616 : 				{
; 1617 : 					if( pMover->IsEmptyDest() == FALSE )	

  0036e	8b cf		 mov	 ecx, edi
  00370	dd d8		 fstp	 ST(0)
  00372	e8 00 00 00 00	 call	 ?IsEmptyDest@CMover@@QAEHXZ ; CMover::IsEmptyDest
  00377	85 c0		 test	 eax, eax
  00379	0f 85 db 00 00
	00		 jne	 $L265635

; 1618 : 						MoveToDst( pMover->GetPos() );		

  0037f	8d 54 24 34	 lea	 edx, DWORD PTR $T277069[esp+64]
  00383	52		 push	 edx
  00384	8b cf		 mov	 ecx, edi
  00386	e8 00 00 00 00	 call	 ?GetPos@CObj@@QAE?AUD3DXVECTOR3@@XZ ; CObj::GetPos
  0038b	50		 push	 eax
  0038c	8b ce		 mov	 ecx, esi
  0038e	e8 00 00 00 00	 call	 ?MoveToDst@CAIAggro@@IAEXABUD3DXVECTOR3@@@Z ; CAIAggro::MoveToDst

; 1619 : 				} else

  00393	e9 c2 00 00 00	 jmp	 $L265635
$L265617:

; 1620 : 				{
; 1621 : 					if( fDist < fRange )	

  00398	d8 d9		 fcomp	 ST(1)
  0039a	df e0		 fnstsw	 ax
  0039c	dd d8		 fstp	 ST(0)
  0039e	f6 c4 05	 test	 ah, 5
  003a1	0f 8a a5 00 00
	00		 jp	 $L265608

; 1622 : 					{
; 1623 : 						FLOAT fAngle = GetDegreeX( pMover->GetPos(), pTarget->GetPos() );	
; 1624 : 						D3DXVECTOR3 vDst = pMover->GetPos() + VelocityToVec( fAngle, 10 );

  003a7	68 00 00 20 41	 push	 1092616192		; 41200000H
  003ac	8d 44 24 2c	 lea	 eax, DWORD PTR $T277070[esp+68]
  003b0	50		 push	 eax
  003b1	8b cd		 mov	 ecx, ebp
  003b3	e8 00 00 00 00	 call	 ?GetPos@CObj@@QAE?AUD3DXVECTOR3@@XZ ; CObj::GetPos
  003b8	50		 push	 eax
  003b9	8d 4c 24 24	 lea	 ecx, DWORD PTR $T277071[esp+72]
  003bd	51		 push	 ecx
  003be	8b cf		 mov	 ecx, edi
  003c0	e8 00 00 00 00	 call	 ?GetPos@CObj@@QAE?AUD3DXVECTOR3@@XZ ; CObj::GetPos
  003c5	50		 push	 eax
  003c6	e8 00 00 00 00	 call	 ?GetDegreeX@@YAMABUD3DXVECTOR3@@0@Z ; GetDegreeX
  003cb	d9 5c 24 04	 fstp	 DWORD PTR [esp+4]
  003cf	83 c4 04	 add	 esp, 4
  003d2	8d 54 24 3c	 lea	 edx, DWORD PTR $T277073[esp+72]
  003d6	52		 push	 edx
  003d7	e8 00 00 00 00	 call	 ?VelocityToVec@@YA?AUD3DXVECTOR3@@MM@Z ; VelocityToVec
  003dc	8b d8		 mov	 ebx, eax
  003de	83 c4 0c	 add	 esp, 12			; 0000000cH
  003e1	8d 44 24 28	 lea	 eax, DWORD PTR $T277072[esp+64]
  003e5	50		 push	 eax
  003e6	8b cf		 mov	 ecx, edi
  003e8	e8 00 00 00 00	 call	 ?GetPos@CObj@@QAE?AUD3DXVECTOR3@@XZ ; CObj::GetPos
  003ed	d9 43 08	 fld	 DWORD PTR [ebx+8]
  003f0	d8 40 08	 fadd	 DWORD PTR [eax+8]

; 1625 : 						MoveToDst( vDst );		

  003f3	8d 4c 24 34	 lea	 ecx, DWORD PTR _vDst$265625[esp+64]
  003f7	d9 43 04	 fld	 DWORD PTR [ebx+4]
  003fa	51		 push	 ecx
  003fb	d8 40 04	 fadd	 DWORD PTR [eax+4]
  003fe	8b ce		 mov	 ecx, esi
  00400	d9 03		 fld	 DWORD PTR [ebx]
  00402	d8 00		 fadd	 DWORD PTR [eax]
  00404	d9 5c 24 38	 fstp	 DWORD PTR _vDst$265625[esp+68]
  00408	d9 5c 24 3c	 fstp	 DWORD PTR _vDst$265625[esp+72]
  0040c	d9 5c 24 40	 fstp	 DWORD PTR _vDst$265625[esp+76]
  00410	e8 00 00 00 00	 call	 ?MoveToDst@CAIAggro@@IAEXABUD3DXVECTOR3@@@Z ; CAIAggro::MoveToDst

; 1626 : 					} else
; 1627 : 						MoveToDst( pTarget->GetId() );	
; 1628 : 				}
; 1629 : 			} else

  00415	eb 43		 jmp	 SHORT $L265635
$L265616:

; 1630 : 			{
; 1631 : 				if( fDist < fRange )	

  00417	d8 d9		 fcomp	 ST(1)
  00419	df e0		 fnstsw	 ax
  0041b	dd d8		 fstp	 ST(0)
  0041d	f6 c4 05	 test	 ah, 5
  00420	7a 21		 jp	 SHORT $L265631

; 1632 : 				{
; 1633 : 					if( pMover->IsEmptyDest() == FALSE )	

  00422	8b cf		 mov	 ecx, edi
  00424	e8 00 00 00 00	 call	 ?IsEmptyDest@CMover@@QAEHXZ ; CMover::IsEmptyDest
  00429	85 c0		 test	 eax, eax
  0042b	75 2d		 jne	 SHORT $L265635

; 1634 : 						MoveToDst( pMover->GetPos() );	

  0042d	8d 44 24 34	 lea	 eax, DWORD PTR $T277074[esp+64]
  00431	50		 push	 eax
  00432	8b cf		 mov	 ecx, edi
  00434	e8 00 00 00 00	 call	 ?GetPos@CObj@@QAE?AUD3DXVECTOR3@@XZ ; CObj::GetPos
  00439	50		 push	 eax
  0043a	8b ce		 mov	 ecx, esi
  0043c	e8 00 00 00 00	 call	 ?MoveToDst@CAIAggro@@IAEXABUD3DXVECTOR3@@@Z ; CAIAggro::MoveToDst

; 1635 : 				} else

  00441	eb 17		 jmp	 SHORT $L265635
$L265631:

; 1636 : 					MoveToDst( pTarget->GetId() );

  00443	8b 8d bc 01 00
	00		 mov	 ecx, DWORD PTR [ebp+444]
  00449	51		 push	 ecx

; 1637 : 			}
; 1638 : 		} else

  0044a	eb 07		 jmp	 SHORT $L277263
$L265608:

; 1639 : 		{
; 1640 : 			MoveToDst( pTarget->GetId() );	

  0044c	8b 95 bc 01 00
	00		 mov	 edx, DWORD PTR [ebp+444]
  00452	52		 push	 edx
$L277263:
  00453	8b ce		 mov	 ecx, esi
  00455	e8 00 00 00 00	 call	 ?MoveToDst@CAIAggro@@IAEXK@Z ; CAIAggro::MoveToDst
$L265635:

; 1641 : 		}
; 1642 : 
; 1643 : 		if( pProp->m_nSummProb )			

  0045a	8b 44 24 10	 mov	 eax, DWORD PTR $T277105[esp+64]
  0045e	8b 88 20 02 00
	00		 mov	 ecx, DWORD PTR [eax+544]
  00464	85 c9		 test	 ecx, ecx
  00466	74 08		 je	 SHORT $L265636

; 1644 : 			SubSummonProcess( pTarget );	

  00468	55		 push	 ebp
  00469	8b ce		 mov	 ecx, esi
  0046b	e8 00 00 00 00	 call	 ?SubSummonProcess@CAIAggro@@IAEXPAVCMover@@@Z ; CAIAggro::SubSummonProcess
$L265636:

; 1645 : 		
; 1646 : 		if( TIMEGETTIME > m_tmAttackDelay )

  00470	8b 0d 00 00 00
	00		 mov	 ecx, DWORD PTR ?g_tmCurrent@@3KA ; g_tmCurrent
  00476	3b 4e 40	 cmp	 ecx, DWORD PTR [esi+64]
  00479	0f 86 e0 fd ff
	ff		 jbe	 $L277265

; 1647 : 		{
; 1648 : 			if( SubAttackChance( msg, pTarget ) == FALSE )

  0047f	8b 54 24 44	 mov	 edx, DWORD PTR _msg$[esp+60]
  00483	55		 push	 ebp
  00484	52		 push	 edx
  00485	8b ce		 mov	 ecx, esi
  00487	e8 00 00 00 00	 call	 ?SubAttackChance@CAIAggro@@IAEHABUAIMSG@@PAVCMover@@@Z ; CAIAggro::SubAttackChance
  0048c	85 c0		 test	 eax, eax
  0048e	0f 85 cb fd ff
	ff		 jne	 $L277265
  00494	5d		 pop	 ebp
  00495	5b		 pop	 ebx
  00496	5f		 pop	 edi
  00497	5e		 pop	 esi

; 1649 : 				return FALSE;
; 1650 : 		}
; 1651 : 	}
; 1652 : 	return TRUE;
; 1653 : }

  00498	83 c4 30	 add	 esp, 48			; 00000030H
  0049b	c2 04 00	 ret	 4
$L265576:
  0049e	5f		 pop	 edi

; 1517 : 		return FALSE;

  0049f	33 c0		 xor	 eax, eax
  004a1	5e		 pop	 esi

; 1649 : 				return FALSE;
; 1650 : 		}
; 1651 : 	}
; 1652 : 	return TRUE;
; 1653 : }

  004a2	83 c4 30	 add	 esp, 48			; 00000030H
  004a5	c2 04 00	 ret	 4
?MoveProcessRagePatrol@CAIAggro@@IAEHABUAIMSG@@@Z ENDP	; CAIAggro::MoveProcessRagePatrol
_TEXT	ENDS
PUBLIC	?StateRagePatrol@CAIAggro@@IAEHABUAIMSG@@@Z	; CAIAggro::StateRagePatrol
; Function compile flags: /Ogty
;	COMDAT ?StateRagePatrol@CAIAggro@@IAEHABUAIMSG@@@Z
_TEXT	SEGMENT
$T277270 = -12						; size = 12
_msg$ = 8						; size = 4
?StateRagePatrol@CAIAggro@@IAEHABUAIMSG@@@Z PROC NEAR	; CAIAggro::StateRagePatrol, COMDAT
; _this$ = ecx

; 1656 : {

  00000	83 ec 0c	 sub	 esp, 12			; 0000000cH
  00003	53		 push	 ebx
  00004	55		 push	 ebp
  00005	56		 push	 esi
  00006	8b f1		 mov	 esi, ecx

; 1657 : 	CMover* pMover = GetMover();

  00008	8b 6e 30	 mov	 ebp, DWORD PTR [esi+48]

; 1658 : 	CWorld* pWorld = GetWorld();
; 1659 : 	if( IsInvalidObj(pMover) )	return FALSE;

  0000b	33 db		 xor	 ebx, ebx
  0000d	3b eb		 cmp	 ebp, ebx
  0000f	74 06		 je	 SHORT $L277300
  00011	f6 45 04 01	 test	 BYTE PTR [ebp+4], 1
  00015	74 0b		 je	 SHORT $L265645
$L277300:
  00017	5e		 pop	 esi
  00018	5d		 pop	 ebp
  00019	33 c0		 xor	 eax, eax
  0001b	5b		 pop	 ebx

; 1748 : 
; 1749 : 	EndAIHandler( )
; 1750 : 	return TRUE;
; 1751 : }

  0001c	83 c4 0c	 add	 esp, 12			; 0000000cH
  0001f	c2 04 00	 ret	 4
$L265645:
  00022	57		 push	 edi

; 1660 : 
; 1661 : 	BeginAIHandler( )
; 1662 : 
; 1663 : 	///////////////////////////////////////////////////////////////////////////////////////////////////
; 1664 : 	OnMessage( AIMSG_INIT ) 

  00023	8b 7c 24 20	 mov	 edi, DWORD PTR _msg$[esp+24]
  00027	8b 07		 mov	 eax, DWORD PTR [edi]
  00029	83 f8 01	 cmp	 eax, 1
  0002c	75 5f		 jne	 SHORT $L265648

; 1665 : 		if( msg.dwParam2 != NULL_ID )

  0002e	8b 47 08	 mov	 eax, DWORD PTR [edi+8]
  00031	83 f8 ff	 cmp	 eax, -1
  00034	74 27		 je	 SHORT $L265651

; 1666 : 		{
; 1667 : 			CMover* pTarget	= prj.GetMover( msg.dwParam2 );

  00036	50		 push	 eax
  00037	b9 00 00 00 00	 mov	 ecx, OFFSET FLAT:?prj@@3VCProject@@A
  0003c	e8 00 00 00 00	 call	 ?GetMover@CProject@@QAEPAVCMover@@K@Z ; CProject::GetMover

; 1668 : 			if( IsValidObj( pTarget ) )

  00041	3b c3		 cmp	 eax, ebx
  00043	74 18		 je	 SHORT $L265651
  00045	f6 40 04 01	 test	 BYTE PTR [eax+4], 1
  00049	75 12		 jne	 SHORT $L265651

; 1669 : 				SetTarget( msg.dwParam2, pTarget->m_idparty );

  0004b	8b 80 18 07 00
	00		 mov	 eax, DWORD PTR [eax+1816]
  00051	8b 4f 08	 mov	 ecx, DWORD PTR [edi+8]
  00054	50		 push	 eax
  00055	51		 push	 ecx
  00056	8b ce		 mov	 ecx, esi
  00058	e8 00 00 00 00	 call	 ?SetTarget@CAIAggro@@IAEXKK@Z ; CAIAggro::SetTarget
$L265651:

; 1670 : 		}
; 1671 : 		m_tmAttack = TIMEGETTIME + s_tmAttack;

  0005d	a1 00 00 00 00	 mov	 eax, DWORD PTR ?g_tmCurrent@@3KA ; g_tmCurrent
  00062	8b 15 00 00 00
	00		 mov	 edx, DWORD PTR _s_tmAttack
  00068	03 d0		 add	 edx, eax
  0006a	89 56 44	 mov	 DWORD PTR [esi+68], edx

; 1672 : 		m_tmAttackDelay = TIMEGETTIME; 

  0006d	8b 0d 00 00 00
	00		 mov	 ecx, DWORD PTR ?g_tmCurrent@@3KA ; g_tmCurrent
  00073	89 4e 40	 mov	 DWORD PTR [esi+64], ecx

; 1673 : 		SetStop( 0 ); 

  00076	53		 push	 ebx
  00077	8b ce		 mov	 ecx, esi
  00079	e8 00 00 00 00	 call	 ?SetStop@CAIAggro@@IAEXK@Z ; CAIAggro::SetStop
  0007e	5f		 pop	 edi
  0007f	5e		 pop	 esi
  00080	5d		 pop	 ebp

; 1742 : 
; 1743 : 	///////////////////////////////////////////////////////////////////////////////////////////////////
; 1744 : 	OnMessage( AIMSG_ARRIVAL )
; 1745 : 
; 1746 : 	///////////////////////////////////////////////////////////////////////////////////////////////////
; 1747 : 	OnMessage( AIMSG_EXIT )	

  00081	b8 01 00 00 00	 mov	 eax, 1
  00086	5b		 pop	 ebx

; 1748 : 
; 1749 : 	EndAIHandler( )
; 1750 : 	return TRUE;
; 1751 : }

  00087	83 c4 0c	 add	 esp, 12			; 0000000cH
  0008a	c2 04 00	 ret	 4
$L265648:

; 1674 : 	///////////////////////////////////////////////////////////////////////////////////////////////////
; 1675 : 	OnMessage( AIMSG_INIT_TARGETCLEAR )		

  0008d	83 f8 11	 cmp	 eax, 17			; 00000011H
  00090	75 07		 jne	 SHORT $L265653

; 1676 : 		SetTarget( NULL_ID, 0 );

  00092	8b cd		 mov	 ecx, ebp

; 1677 : 		SendAIMsg( AIMSG_SETSTATE, STATE_PATROL );
; 1678 : 		
; 1679 : 	///////////////////////////////////////////////////////////////////////////////////////////////////
; 1680 : 	OnMessage( AIMSG_PROCESS ) 

  00094	e9 58 01 00 00	 jmp	 $L277345
$L265653:
  00099	83 f8 02	 cmp	 eax, 2
  0009c	75 17		 jne	 SHORT $L265655

; 1681 : 		MoveProcessRagePatrol( msg );

  0009e	57		 push	 edi
  0009f	8b ce		 mov	 ecx, esi
  000a1	e8 00 00 00 00	 call	 ?MoveProcessRagePatrol@CAIAggro@@IAEHABUAIMSG@@@Z ; CAIAggro::MoveProcessRagePatrol
  000a6	5f		 pop	 edi
  000a7	5e		 pop	 esi
  000a8	5d		 pop	 ebp

; 1742 : 
; 1743 : 	///////////////////////////////////////////////////////////////////////////////////////////////////
; 1744 : 	OnMessage( AIMSG_ARRIVAL )
; 1745 : 
; 1746 : 	///////////////////////////////////////////////////////////////////////////////////////////////////
; 1747 : 	OnMessage( AIMSG_EXIT )	

  000a9	b8 01 00 00 00	 mov	 eax, 1
  000ae	5b		 pop	 ebx

; 1748 : 
; 1749 : 	EndAIHandler( )
; 1750 : 	return TRUE;
; 1751 : }

  000af	83 c4 0c	 add	 esp, 12			; 0000000cH
  000b2	c2 04 00	 ret	 4
$L265655:

; 1682 : 		
; 1683 : 	///////////////////////////////////////////////////////////////////////////////////////////////////
; 1684 : 	OnMessage( AIMSG_DAMAGE ) 

  000b5	83 f8 08	 cmp	 eax, 8
  000b8	0f 85 d3 00 00
	00		 jne	 $L265657

; 1685 : 		if( IsMove() && m_bGoTarget == FALSE )

  000be	8b ce		 mov	 ecx, esi
  000c0	e8 00 00 00 00	 call	 ?IsMove@CAIAggro@@IAEHXZ ; CAIAggro::IsMove
  000c5	85 c0		 test	 eax, eax
  000c7	74 2b		 je	 SHORT $L265658
  000c9	39 9e c8 00 00
	00		 cmp	 DWORD PTR [esi+200], ebx
  000cf	75 23		 jne	 SHORT $L265658

; 1686 : 		{
; 1687 : 			if( xRandom( 2 ) == 0 )		

  000d1	6a 02		 push	 2
  000d3	e8 00 00 00 00	 call	 ?xRandom@@YAKK@Z	; xRandom
  000d8	83 c4 04	 add	 esp, 4
  000db	85 c0		 test	 eax, eax
  000dd	75 0b		 jne	 SHORT $L265659

; 1688 : 			{
; 1689 : 				MoveToDst( msg.dwParam1 );

  000df	8b 47 04	 mov	 eax, DWORD PTR [edi+4]
  000e2	50		 push	 eax
  000e3	8b ce		 mov	 ecx, esi
  000e5	e8 00 00 00 00	 call	 ?MoveToDst@CAIAggro@@IAEXK@Z ; CAIAggro::MoveToDst
$L265659:

; 1690 : 			}
; 1691 : 			m_bGoTarget = TRUE;

  000ea	c7 86 c8 00 00
	00 01 00 00 00	 mov	 DWORD PTR [esi+200], 1
$L265658:

; 1692 : 		}
; 1693 : 		MoverProp* pMoverProp = pMover->GetProp();

  000f4	8b cd		 mov	 ecx, ebp
  000f6	e8 00 00 00 00	 call	 ?GetPropA@CMover@@QAEPAUMoverProp@@XZ ; CMover::GetPropA

; 1694 : 		int nHPPercent = pMover->GetHitPointPercent( 100 );

  000fb	6a 64		 push	 100			; 00000064H
  000fd	8b cd		 mov	 ecx, ebp
  000ff	8b f8		 mov	 edi, eax
  00101	e8 00 00 00 00	 call	 ?GetHitPointPercent@CMover@@QAEHH@Z ; CMover::GetHitPointPercent

; 1695 : 
; 1696 : 		if( pMoverProp->m_bHelpWho )

  00106	38 9f f7 01 00
	00		 cmp	 BYTE PTR [edi+503], bl
  0010c	74 4f		 je	 SHORT $L265662

; 1697 : 		{
; 1698 : 			if( TIMEGETTIME - m_tmHelp > pMoverProp->m_tmUnitHelp )	

  0010e	8b 0d 00 00 00
	00		 mov	 ecx, DWORD PTR ?g_tmCurrent@@3KA ; g_tmCurrent
  00114	8b 56 4c	 mov	 edx, DWORD PTR [esi+76]
  00117	8b 87 30 02 00
	00		 mov	 eax, DWORD PTR [edi+560]
  0011d	2b ca		 sub	 ecx, edx
  0011f	3b c8		 cmp	 ecx, eax
  00121	76 40		 jbe	 SHORT $L277342

; 1699 : 			{
; 1700 : 				if( m_bCallHelper == FALSE )

  00123	39 9e d4 00 00
	00		 cmp	 DWORD PTR [esi+212], ebx
  00129	75 38		 jne	 SHORT $L277342

; 1701 : 				{
; 1702 : 					CallHelper( pMoverProp );

  0012b	57		 push	 edi
  0012c	8b ce		 mov	 ecx, esi
  0012e	e8 00 00 00 00	 call	 ?CallHelper@CAIAggro@@IAEXPBUMoverProp@@@Z ; CAIAggro::CallHelper

; 1703 : 					g_UserMng.AddDlgEmoticon( pMover, DLGEMOT_HELPER );

  00133	6a 03		 push	 3
  00135	55		 push	 ebp
  00136	b9 00 00 00 00	 mov	 ecx, OFFSET FLAT:?g_UserMng@@3VCUserMng@@A
  0013b	e8 00 00 00 00	 call	 ?AddDlgEmoticon@CUserMng@@QAEXPAVCCtrl@@H@Z ; CUserMng::AddDlgEmoticon

; 1704 : 					m_tmHelp = TIMEGETTIME;

  00140	8b 15 00 00 00
	00		 mov	 edx, DWORD PTR ?g_tmCurrent@@3KA ; g_tmCurrent
  00146	89 56 4c	 mov	 DWORD PTR [esi+76], edx

; 1705 : 					if( pMoverProp->m_tmUnitHelp == 0 )	

  00149	39 9f 30 02 00
	00		 cmp	 DWORD PTR [edi+560], ebx
  0014f	75 12		 jne	 SHORT $L277342

; 1706 : 						m_bCallHelper = TRUE;

  00151	c7 86 d4 00 00
	00 01 00 00 00	 mov	 DWORD PTR [esi+212], 1

; 1707 : 				}
; 1708 : 			}
; 1709 : 		}
; 1710 : 		else

  0015b	eb 06		 jmp	 SHORT $L277342
$L265662:

; 1711 : 			m_bCallHelper = FALSE;

  0015d	89 9e d4 00 00
	00		 mov	 DWORD PTR [esi+212], ebx
$L277342:

; 1712 : 
; 1713 : 		m_vPosDamage	= pMover->GetPos();

  00163	8d 44 24 10	 lea	 eax, DWORD PTR $T277270[esp+28]
  00167	50		 push	 eax
  00168	8b cd		 mov	 ecx, ebp
  0016a	e8 00 00 00 00	 call	 ?GetPos@CObj@@QAE?AUD3DXVECTOR3@@XZ ; CObj::GetPos
  0016f	8b 08		 mov	 ecx, DWORD PTR [eax]
  00171	83 c6 78	 add	 esi, 120		; 00000078H
  00174	89 0e		 mov	 DWORD PTR [esi], ecx
  00176	8b 50 04	 mov	 edx, DWORD PTR [eax+4]
  00179	89 56 04	 mov	 DWORD PTR [esi+4], edx
  0017c	8b 40 08	 mov	 eax, DWORD PTR [eax+8]
  0017f	5f		 pop	 edi
  00180	89 46 08	 mov	 DWORD PTR [esi+8], eax
  00183	5e		 pop	 esi
  00184	5d		 pop	 ebp

; 1742 : 
; 1743 : 	///////////////////////////////////////////////////////////////////////////////////////////////////
; 1744 : 	OnMessage( AIMSG_ARRIVAL )
; 1745 : 
; 1746 : 	///////////////////////////////////////////////////////////////////////////////////////////////////
; 1747 : 	OnMessage( AIMSG_EXIT )	

  00185	b8 01 00 00 00	 mov	 eax, 1
  0018a	5b		 pop	 ebx

; 1748 : 
; 1749 : 	EndAIHandler( )
; 1750 : 	return TRUE;
; 1751 : }

  0018b	83 c4 0c	 add	 esp, 12			; 0000000cH
  0018e	c2 04 00	 ret	 4
$L265657:

; 1714 : 
; 1715 : 	///////////////////////////////////////////////////////////////////////////////////////////////////
; 1716 : 	OnMessage( AIMSG_COLLISION )

  00191	83 f8 0a	 cmp	 eax, 10			; 0000000aH

; 1717 : 
; 1718 : 	///////////////////////////////////////////////////////////////////////////////////////////////////
; 1719 : 	OnMessage( AIMSG_DIE ) 

  00194	0f 84 95 00 00
	00		 je	 $L265681
  0019a	83 f8 09	 cmp	 eax, 9

; 1720 : 
; 1721 : 	///////////////////////////////////////////////////////////////////////////////////////////////////
; 1722 : 	OnMessage( AIMSG_DSTDIE ) 

  0019d	0f 84 8c 00 00
	00		 je	 $L265681
  001a3	83 f8 07	 cmp	 eax, 7
  001a6	75 7c		 jne	 SHORT $L265673

; 1723 : 		if( m_dwIdTarget == msg.dwParam1 )

  001a8	8b 8e e0 00 00
	00		 mov	 ecx, DWORD PTR [esi+224]
  001ae	3b 4f 04	 cmp	 ecx, DWORD PTR [edi+4]
  001b1	75 55		 jne	 SHORT $L277335

; 1724 : 		{
; 1725 : 			CMover* pTarget	= ScanTargetAggro( pMover, /*pProp->m_nAttackFirstRange*/ 15, m_dwAIInterface, m_uParty );

  001b3	8b 56 34	 mov	 edx, DWORD PTR [esi+52]
  001b6	8b 46 38	 mov	 eax, DWORD PTR [esi+56]
  001b9	52		 push	 edx
  001ba	50		 push	 eax
  001bb	68 00 00 70 41	 push	 1097859072		; 41700000H
  001c0	55		 push	 ebp
  001c1	8b ce		 mov	 ecx, esi
  001c3	e8 00 00 00 00	 call	 ?ScanTargetAggro@CAIInterface@@IAEPAVCMover@@PAVCObj@@MKK@Z ; CAIInterface::ScanTargetAggro

; 1726 : 			if( pTarget )

  001c8	3b c3		 cmp	 eax, ebx
  001ca	74 22		 je	 SHORT $L265676

; 1727 : 			{
; 1728 : 				SendAIMsg( AIMSG_SETSTATE, STATE_RAGE, pTarget->GetId() );

  001cc	8b 80 bc 01 00
	00		 mov	 eax, DWORD PTR [eax+444]
  001d2	8b 16		 mov	 edx, DWORD PTR [esi]
  001d4	53		 push	 ebx
  001d5	50		 push	 eax
  001d6	6a 07		 push	 7
  001d8	6a 04		 push	 4
  001da	8b ce		 mov	 ecx, esi
  001dc	ff 52 0c	 call	 DWORD PTR [edx+12]
  001df	5f		 pop	 edi
  001e0	5e		 pop	 esi
  001e1	5d		 pop	 ebp

; 1742 : 
; 1743 : 	///////////////////////////////////////////////////////////////////////////////////////////////////
; 1744 : 	OnMessage( AIMSG_ARRIVAL )
; 1745 : 
; 1746 : 	///////////////////////////////////////////////////////////////////////////////////////////////////
; 1747 : 	OnMessage( AIMSG_EXIT )	

  001e2	b8 01 00 00 00	 mov	 eax, 1
  001e7	5b		 pop	 ebx

; 1748 : 
; 1749 : 	EndAIHandler( )
; 1750 : 	return TRUE;
; 1751 : }

  001e8	83 c4 0c	 add	 esp, 12			; 0000000cH
  001eb	c2 04 00	 ret	 4
$L265676:

; 1729 : 				return TRUE;
; 1730 : 			}
; 1731 : 			else
; 1732 : 			{
; 1733 : 				SetTarget( NULL_ID, 0 );

  001ee	8b 4e 30	 mov	 ecx, DWORD PTR [esi+48]
$L277345:
  001f1	68 00 00 80 3f	 push	 1065353216		; 3f800000H
  001f6	c7 86 e0 00 00
	00 ff ff ff ff	 mov	 DWORD PTR [esi+224], -1
  00200	89 5e 34	 mov	 DWORD PTR [esi+52], ebx
  00203	e8 00 00 00 00	 call	 ?SetSpeedFactor@CMover@@QAEXM@Z ; CMover::SetSpeedFactor
$L277335:

; 1734 : 			}
; 1735 : 		}
; 1736 : 		TRACE( "TARGET CLEARED\n" );
; 1737 : 		SendAIMsg( AIMSG_SETSTATE, STATE_PATROL );

  00208	8b 16		 mov	 edx, DWORD PTR [esi]
  0020a	53		 push	 ebx
  0020b	53		 push	 ebx
  0020c	6a 09		 push	 9
  0020e	6a 04		 push	 4
  00210	8b ce		 mov	 ecx, esi
  00212	ff 52 0c	 call	 DWORD PTR [edx+12]
  00215	5f		 pop	 edi
  00216	5e		 pop	 esi
  00217	5d		 pop	 ebp

; 1742 : 
; 1743 : 	///////////////////////////////////////////////////////////////////////////////////////////////////
; 1744 : 	OnMessage( AIMSG_ARRIVAL )
; 1745 : 
; 1746 : 	///////////////////////////////////////////////////////////////////////////////////////////////////
; 1747 : 	OnMessage( AIMSG_EXIT )	

  00218	b8 01 00 00 00	 mov	 eax, 1
  0021d	5b		 pop	 ebx

; 1748 : 
; 1749 : 	EndAIHandler( )
; 1750 : 	return TRUE;
; 1751 : }

  0021e	83 c4 0c	 add	 esp, 12			; 0000000cH
  00221	c2 04 00	 ret	 4
$L265673:

; 1738 : 
; 1739 : 	///////////////////////////////////////////////////////////////////////////////////////////////////
; 1740 : 	OnMessage( AIMSG_BEGINMOVE )

  00224	83 f8 0d	 cmp	 eax, 13			; 0000000dH
  00227	75 06		 jne	 SHORT $L265681

; 1741 : 		m_bGoTarget = FALSE; 

  00229	89 9e c8 00 00
	00		 mov	 DWORD PTR [esi+200], ebx
$L265681:
  0022f	5f		 pop	 edi
  00230	5e		 pop	 esi
  00231	5d		 pop	 ebp

; 1742 : 
; 1743 : 	///////////////////////////////////////////////////////////////////////////////////////////////////
; 1744 : 	OnMessage( AIMSG_ARRIVAL )
; 1745 : 
; 1746 : 	///////////////////////////////////////////////////////////////////////////////////////////////////
; 1747 : 	OnMessage( AIMSG_EXIT )	

  00232	b8 01 00 00 00	 mov	 eax, 1
  00237	5b		 pop	 ebx

; 1748 : 
; 1749 : 	EndAIHandler( )
; 1750 : 	return TRUE;
; 1751 : }

  00238	83 c4 0c	 add	 esp, 12			; 0000000cH
  0023b	c2 04 00	 ret	 4
?StateRagePatrol@CAIAggro@@IAEHABUAIMSG@@@Z ENDP	; CAIAggro::StateRagePatrol
_TEXT	ENDS
PUBLIC	?StateRage@CAIAggro@@IAEHABUAIMSG@@@Z		; CAIAggro::StateRage
; Function compile flags: /Ogty
;	COMDAT ?StateRage@CAIAggro@@IAEHABUAIMSG@@@Z
_TEXT	SEGMENT
$T277349 = -12						; size = 12
_msg$ = 8						; size = 4
?StateRage@CAIAggro@@IAEHABUAIMSG@@@Z PROC NEAR		; CAIAggro::StateRage, COMDAT
; _this$ = ecx

; 1754 : {

  00000	83 ec 0c	 sub	 esp, 12			; 0000000cH
  00003	56		 push	 esi
  00004	8b f1		 mov	 esi, ecx

; 1755 : 	CMover* pMover = GetMover();
; 1756 : 	CWorld* pWorld = GetWorld();
; 1757 : 	MoverProp *pProp	= pMover->GetProp();

  00006	8b 0d d0 01 00
	00		 mov	 ecx, DWORD PTR ?prj@@3VCProject@@A+464
  0000c	57		 push	 edi
  0000d	8b 7e 30	 mov	 edi, DWORD PTR [esi+48]
  00010	8b 87 74 01 00
	00		 mov	 eax, DWORD PTR [edi+372]
  00016	85 c0		 test	 eax, eax
  00018	7c 04		 jl	 SHORT $L277388
  0001a	3b c1		 cmp	 eax, ecx
  0001c	7c 16		 jl	 SHORT $L277383
$L277388:
  0001e	50		 push	 eax
  0001f	51		 push	 ecx
  00020	6a 00		 push	 0
  00022	68 00 00 00 00	 push	 OFFSET FLAT:??_C@_0BJ@GKPOBPPI@GetMoverProp?5range_error?$AA@
  00027	68 00 00 00 00	 push	 OFFSET FLAT:??_C@_0BM@HMFGHCP@?$CFs?5min?3?$CFd?0?5max?3?$CFd?0?5index?3?$CFd?$AA@
  0002c	e8 00 00 00 00	 call	 ?Error@@YAPBDPBDZZ	; Error
  00031	83 c4 14	 add	 esp, 20			; 00000014H
$L277383:

; 1758 : 	if( IsInvalidObj(pMover) )	return FALSE;

  00034	f6 47 04 01	 test	 BYTE PTR [edi+4], 1
  00038	74 0a		 je	 SHORT $L265691
  0003a	5f		 pop	 edi
  0003b	33 c0		 xor	 eax, eax
  0003d	5e		 pop	 esi

; 1870 : 
; 1871 : 	EndAIHandler( )
; 1872 : 	return TRUE;
; 1873 : }

  0003e	83 c4 0c	 add	 esp, 12			; 0000000cH
  00041	c2 04 00	 ret	 4
$L265691:
  00044	53		 push	 ebx

; 1759 : 
; 1760 : 	DWORD dwAIState = pMover->m_dwAIInterfaceState;

  00045	8b 9f 90 01 00
	00		 mov	 ebx, DWORD PTR [edi+400]
  0004b	55		 push	 ebp

; 1761 : 
; 1762 : 	BeginAIHandler( )
; 1763 : 
; 1764 : 	///////////////////////////////////////////////////////////////////////////////////////////////////
; 1765 : 	OnMessage( AIMSG_INIT ) 

  0004c	8b 6c 24 20	 mov	 ebp, DWORD PTR _msg$[esp+24]
  00050	8b 45 00	 mov	 eax, DWORD PTR [ebp]
  00053	83 f8 01	 cmp	 eax, 1
  00056	0f 85 82 00 00
	00		 jne	 $L265695

; 1766 : 		if( msg.dwParam2 != NULL_ID )

  0005c	8b 45 08	 mov	 eax, DWORD PTR [ebp+8]
  0005f	83 f8 ff	 cmp	 eax, -1
  00062	74 49		 je	 SHORT $L277470

; 1767 : 		{
; 1768 : 			CMover* pTarget	= prj.GetMover( msg.dwParam2 );

  00064	50		 push	 eax
  00065	b9 00 00 00 00	 mov	 ecx, OFFSET FLAT:?prj@@3VCProject@@A
  0006a	e8 00 00 00 00	 call	 ?GetMover@CProject@@QAEPAVCMover@@K@Z ; CProject::GetMover

; 1769 : 			if( IsValidObj( pTarget ) )

  0006f	85 c0		 test	 eax, eax
  00071	74 3a		 je	 SHORT $L277470
  00073	f6 40 04 01	 test	 BYTE PTR [eax+4], 1
  00077	75 34		 jne	 SHORT $L277470

; 1770 : 			{
; 1771 : #ifndef __CLIENT
; 1772 : 				if( pTarget->IsPlayer() )

  00079	8b 88 34 02 00
	00		 mov	 ecx, DWORD PTR [eax+564]
  0007f	85 c9		 test	 ecx, ecx
  00081	74 18		 je	 SHORT $L277436

; 1773 : 					pTarget->SetAggro( pTarget->GetAggro() + 1 );

  00083	8b 88 88 11 00
	00		 mov	 ecx, DWORD PTR [eax+4488]
  00089	41		 inc	 ecx
  0008a	ba 00 00 00 00	 mov	 edx, 0
  0008f	0f 98 c2	 sets	 dl
  00092	4a		 dec	 edx
  00093	23 d1		 and	 edx, ecx
  00095	89 90 88 11 00
	00		 mov	 DWORD PTR [eax+4488], edx
$L277436:

; 1774 : #endif
; 1775 : 				SetTarget( msg.dwParam2, pTarget->m_idparty );

  0009b	8b 80 18 07 00
	00		 mov	 eax, DWORD PTR [eax+1816]
  000a1	8b 4d 08	 mov	 ecx, DWORD PTR [ebp+8]
  000a4	50		 push	 eax
  000a5	51		 push	 ecx
  000a6	8b ce		 mov	 ecx, esi
  000a8	e8 00 00 00 00	 call	 ?SetTarget@CAIAggro@@IAEXKK@Z ; CAIAggro::SetTarget
$L277470:

; 1776 : 			}
; 1777 : 		}
; 1778 : 		m_tmAttack = TIMEGETTIME + s_tmAttack;

  000ad	a1 00 00 00 00	 mov	 eax, DWORD PTR ?g_tmCurrent@@3KA ; g_tmCurrent
  000b2	8b 15 00 00 00
	00		 mov	 edx, DWORD PTR _s_tmAttack
  000b8	03 d0		 add	 edx, eax
  000ba	89 56 44	 mov	 DWORD PTR [esi+68], edx

; 1779 : 		m_tmAttackDelay = TIMEGETTIME; 

  000bd	8b 0d 00 00 00
	00		 mov	 ecx, DWORD PTR ?g_tmCurrent@@3KA ; g_tmCurrent
  000c3	89 4e 40	 mov	 DWORD PTR [esi+64], ecx

; 1780 : 		SetStop( 0 ); 

  000c6	6a 00		 push	 0
  000c8	8b ce		 mov	 ecx, esi
  000ca	e8 00 00 00 00	 call	 ?SetStop@CAIAggro@@IAEXK@Z ; CAIAggro::SetStop
  000cf	5d		 pop	 ebp
  000d0	5b		 pop	 ebx
  000d1	5f		 pop	 edi

; 1864 : 
; 1865 : 	///////////////////////////////////////////////////////////////////////////////////////////////////
; 1866 : 	OnMessage( AIMSG_ARRIVAL )
; 1867 : 
; 1868 : 	///////////////////////////////////////////////////////////////////////////////////////////////////
; 1869 : 	OnMessage( AIMSG_EXIT )	

  000d2	b8 01 00 00 00	 mov	 eax, 1
  000d7	5e		 pop	 esi

; 1870 : 
; 1871 : 	EndAIHandler( )
; 1872 : 	return TRUE;
; 1873 : }

  000d8	83 c4 0c	 add	 esp, 12			; 0000000cH
  000db	c2 04 00	 ret	 4
$L265695:

; 1781 : 	///////////////////////////////////////////////////////////////////////////////////////////////////
; 1782 : 	OnMessage( AIMSG_INIT_TARGETCLEAR )		

  000de	83 f8 11	 cmp	 eax, 17			; 00000011H

; 1783 : 		CMover* pTarget	= ScanTargetAggro( pMover, /*pProp->m_nAttackFirstRange*/ 15, m_dwAIInterface, m_uParty );
; 1784 : 		if( pTarget )
; 1785 : 		{
; 1786 : 			SendAIMsg( AIMSG_SETSTATE, STATE_RAGE, pTarget->GetId() );
; 1787 : 			return TRUE;

  000e1	0f 84 64 01 00
	00		 je	 $L277478

; 1788 : 		}
; 1789 : 		else
; 1790 : 		{
; 1791 : 			SetTarget( NULL_ID, 0 );
; 1792 : 			SendAIMsg( AIMSG_SETSTATE, dwAIState );
; 1793 : 		}
; 1794 : 		
; 1795 : 	///////////////////////////////////////////////////////////////////////////////////////////////////
; 1796 : 	OnMessage( AIMSG_PROCESS ) 

  000e7	83 f8 02	 cmp	 eax, 2
  000ea	75 17		 jne	 SHORT $L265706

; 1797 : 		MoveProcessRage( msg );

  000ec	55		 push	 ebp
  000ed	8b ce		 mov	 ecx, esi
  000ef	e8 00 00 00 00	 call	 ?MoveProcessRage@CAIAggro@@IAEHABUAIMSG@@@Z ; CAIAggro::MoveProcessRage
  000f4	5d		 pop	 ebp
  000f5	5b		 pop	 ebx
  000f6	5f		 pop	 edi

; 1864 : 
; 1865 : 	///////////////////////////////////////////////////////////////////////////////////////////////////
; 1866 : 	OnMessage( AIMSG_ARRIVAL )
; 1867 : 
; 1868 : 	///////////////////////////////////////////////////////////////////////////////////////////////////
; 1869 : 	OnMessage( AIMSG_EXIT )	

  000f7	b8 01 00 00 00	 mov	 eax, 1
  000fc	5e		 pop	 esi

; 1870 : 
; 1871 : 	EndAIHandler( )
; 1872 : 	return TRUE;
; 1873 : }

  000fd	83 c4 0c	 add	 esp, 12			; 0000000cH
  00100	c2 04 00	 ret	 4
$L265706:

; 1798 : 		
; 1799 : 	///////////////////////////////////////////////////////////////////////////////////////////////////
; 1800 : 	OnMessage( AIMSG_DAMAGE ) 

  00103	83 f8 08	 cmp	 eax, 8
  00106	0f 85 05 01 00
	00		 jne	 $L265708

; 1801 : 		if( IsMove() && m_bGoTarget == FALSE )

  0010c	8b ce		 mov	 ecx, esi
  0010e	e8 00 00 00 00	 call	 ?IsMove@CAIAggro@@IAEHXZ ; CAIAggro::IsMove
  00113	85 c0		 test	 eax, eax
  00115	74 2d		 je	 SHORT $L277471
  00117	8b 86 c8 00 00
	00		 mov	 eax, DWORD PTR [esi+200]
  0011d	85 c0		 test	 eax, eax
  0011f	75 23		 jne	 SHORT $L277471

; 1802 : 		{
; 1803 : 			if( xRandom( 2 ) == 0 )	

  00121	6a 02		 push	 2
  00123	e8 00 00 00 00	 call	 ?xRandom@@YAKK@Z	; xRandom
  00128	83 c4 04	 add	 esp, 4
  0012b	85 c0		 test	 eax, eax
  0012d	75 0b		 jne	 SHORT $L265710

; 1804 : 			{
; 1805 : 				MoveToDst( msg.dwParam1 );

  0012f	8b 45 04	 mov	 eax, DWORD PTR [ebp+4]
  00132	50		 push	 eax
  00133	8b ce		 mov	 ecx, esi
  00135	e8 00 00 00 00	 call	 ?MoveToDst@CAIAggro@@IAEXK@Z ; CAIAggro::MoveToDst
$L265710:

; 1806 : 			}
; 1807 : 			m_bGoTarget = TRUE;

  0013a	c7 86 c8 00 00
	00 01 00 00 00	 mov	 DWORD PTR [esi+200], 1
$L277471:

; 1808 : 		}
; 1809 : 		MoverProp* pMoverProp = pMover->GetProp();

  00144	8b cf		 mov	 ecx, edi
  00146	e8 00 00 00 00	 call	 ?GetPropA@CMover@@QAEPAUMoverProp@@XZ ; CMover::GetPropA

; 1810 : 		int nHPPercent = pMover->GetHitPointPercent( 100 );

  0014b	6a 64		 push	 100			; 00000064H
  0014d	8b cf		 mov	 ecx, edi
  0014f	8b e8		 mov	 ebp, eax
  00151	e8 00 00 00 00	 call	 ?GetHitPointPercent@CMover@@QAEHH@Z ; CMover::GetHitPointPercent

; 1811 : 
; 1812 : 		if( nHPPercent < pMoverProp->m_nRunawayHP )

  00156	0f bf 8d b0 01
	00 00		 movsx	 ecx, WORD PTR [ebp+432]
  0015d	3b c1		 cmp	 eax, ecx
  0015f	7d 1c		 jge	 SHORT $L277474

; 1813 : 		{
; 1814 : 			SendAIMsg( AIMSG_SETSTATE, STATE_RUNAWAY );

  00161	8b 16		 mov	 edx, DWORD PTR [esi]
  00163	6a 00		 push	 0
  00165	6a 00		 push	 0
  00167	6a 06		 push	 6
  00169	6a 04		 push	 4
  0016b	8b ce		 mov	 ecx, esi
  0016d	ff 52 0c	 call	 DWORD PTR [edx+12]

; 1815 : 			g_UserMng.AddDlgEmoticon( pMover, DLGEMOT_EVADE );

  00170	6a 02		 push	 2
  00172	57		 push	 edi
  00173	b9 00 00 00 00	 mov	 ecx, OFFSET FLAT:?g_UserMng@@3VCUserMng@@A
  00178	e8 00 00 00 00	 call	 ?AddDlgEmoticon@CUserMng@@QAEXPAVCCtrl@@H@Z ; CUserMng::AddDlgEmoticon
$L277474:

; 1816 : 		}
; 1817 : 		if( pMoverProp->m_bHelpWho )

  0017d	8a 85 f7 01 00
	00		 mov	 al, BYTE PTR [ebp+503]
  00183	84 c0		 test	 al, al
  00185	74 52		 je	 SHORT $L265714

; 1818 : 		{
; 1819 : 			if( TIMEGETTIME - m_tmHelp > pMoverProp->m_tmUnitHelp )

  00187	a1 00 00 00 00	 mov	 eax, DWORD PTR ?g_tmCurrent@@3KA ; g_tmCurrent
  0018c	8b 56 4c	 mov	 edx, DWORD PTR [esi+76]
  0018f	8b 8d 30 02 00
	00		 mov	 ecx, DWORD PTR [ebp+560]
  00195	2b c2		 sub	 eax, edx
  00197	3b c1		 cmp	 eax, ecx
  00199	76 48		 jbe	 SHORT $L277475

; 1820 : 			{
; 1821 : 				if( m_bCallHelper == FALSE )

  0019b	8b 86 d4 00 00
	00		 mov	 eax, DWORD PTR [esi+212]
  001a1	85 c0		 test	 eax, eax
  001a3	75 3e		 jne	 SHORT $L277475

; 1822 : 				{
; 1823 : 					CallHelper( pMoverProp );

  001a5	55		 push	 ebp
  001a6	8b ce		 mov	 ecx, esi
  001a8	e8 00 00 00 00	 call	 ?CallHelper@CAIAggro@@IAEXPBUMoverProp@@@Z ; CAIAggro::CallHelper

; 1824 : 					g_UserMng.AddDlgEmoticon( pMover, DLGEMOT_HELPER );

  001ad	6a 03		 push	 3
  001af	57		 push	 edi
  001b0	b9 00 00 00 00	 mov	 ecx, OFFSET FLAT:?g_UserMng@@3VCUserMng@@A
  001b5	e8 00 00 00 00	 call	 ?AddDlgEmoticon@CUserMng@@QAEXPAVCCtrl@@H@Z ; CUserMng::AddDlgEmoticon

; 1825 : 					m_tmHelp = TIMEGETTIME;

  001ba	8b 0d 00 00 00
	00		 mov	 ecx, DWORD PTR ?g_tmCurrent@@3KA ; g_tmCurrent
  001c0	89 4e 4c	 mov	 DWORD PTR [esi+76], ecx

; 1826 : 					if( pMoverProp->m_tmUnitHelp == 0 )	

  001c3	8b 85 30 02 00
	00		 mov	 eax, DWORD PTR [ebp+560]
  001c9	85 c0		 test	 eax, eax
  001cb	75 16		 jne	 SHORT $L277475

; 1827 : 						m_bCallHelper = TRUE;

  001cd	c7 86 d4 00 00
	00 01 00 00 00	 mov	 DWORD PTR [esi+212], 1

; 1828 : 				}
; 1829 : 			}
; 1830 : 		}
; 1831 : 		else

  001d7	eb 0a		 jmp	 SHORT $L277475
$L265714:

; 1832 : 			m_bCallHelper = FALSE;

  001d9	c7 86 d4 00 00
	00 00 00 00 00	 mov	 DWORD PTR [esi+212], 0
$L277475:

; 1833 : 
; 1834 : 		m_vPosDamage	= pMover->GetPos();

  001e3	8d 54 24 10	 lea	 edx, DWORD PTR $T277349[esp+28]
  001e7	52		 push	 edx
  001e8	8b cf		 mov	 ecx, edi
  001ea	e8 00 00 00 00	 call	 ?GetPos@CObj@@QAE?AUD3DXVECTOR3@@XZ ; CObj::GetPos
  001ef	8b 08		 mov	 ecx, DWORD PTR [eax]
  001f1	83 c6 78	 add	 esi, 120		; 00000078H
  001f4	89 0e		 mov	 DWORD PTR [esi], ecx
  001f6	8b 50 04	 mov	 edx, DWORD PTR [eax+4]
  001f9	5d		 pop	 ebp
  001fa	89 56 04	 mov	 DWORD PTR [esi+4], edx
  001fd	8b 40 08	 mov	 eax, DWORD PTR [eax+8]
  00200	5b		 pop	 ebx
  00201	89 46 08	 mov	 DWORD PTR [esi+8], eax
  00204	5f		 pop	 edi

; 1864 : 
; 1865 : 	///////////////////////////////////////////////////////////////////////////////////////////////////
; 1866 : 	OnMessage( AIMSG_ARRIVAL )
; 1867 : 
; 1868 : 	///////////////////////////////////////////////////////////////////////////////////////////////////
; 1869 : 	OnMessage( AIMSG_EXIT )	

  00205	b8 01 00 00 00	 mov	 eax, 1
  0020a	5e		 pop	 esi

; 1870 : 
; 1871 : 	EndAIHandler( )
; 1872 : 	return TRUE;
; 1873 : }

  0020b	83 c4 0c	 add	 esp, 12			; 0000000cH
  0020e	c2 04 00	 ret	 4
$L265708:

; 1835 : 
; 1836 : 	///////////////////////////////////////////////////////////////////////////////////////////////////
; 1837 : 	OnMessage( AIMSG_COLLISION )

  00211	83 f8 0a	 cmp	 eax, 10			; 0000000aH
  00214	75 18		 jne	 SHORT $L265721

; 1838 : 		MoveToRandom( STATE_RAGE );

  00216	6a 07		 push	 7
  00218	8b ce		 mov	 ecx, esi
  0021a	e8 00 00 00 00	 call	 ?MoveToRandom@CAIAggro@@IAEXI@Z ; CAIAggro::MoveToRandom
  0021f	5d		 pop	 ebp
  00220	5b		 pop	 ebx
  00221	5f		 pop	 edi

; 1864 : 
; 1865 : 	///////////////////////////////////////////////////////////////////////////////////////////////////
; 1866 : 	OnMessage( AIMSG_ARRIVAL )
; 1867 : 
; 1868 : 	///////////////////////////////////////////////////////////////////////////////////////////////////
; 1869 : 	OnMessage( AIMSG_EXIT )	

  00222	b8 01 00 00 00	 mov	 eax, 1
  00227	5e		 pop	 esi

; 1870 : 
; 1871 : 	EndAIHandler( )
; 1872 : 	return TRUE;
; 1873 : }

  00228	83 c4 0c	 add	 esp, 12			; 0000000cH
  0022b	c2 04 00	 ret	 4
$L265721:

; 1839 : 
; 1840 : 	///////////////////////////////////////////////////////////////////////////////////////////////////
; 1841 : 	OnMessage( AIMSG_DIE ) 

  0022e	83 f8 09	 cmp	 eax, 9

; 1842 : 
; 1843 : 	///////////////////////////////////////////////////////////////////////////////////////////////////
; 1844 : 	
; 1845 : 	///////////////////////////////////////////////////////////////////////////////////////////////////
; 1846 : 	OnMessage( AIMSG_DSTDIE ) 

  00231	0f 84 9a 00 00
	00		 je	 $L265733
  00237	83 f8 07	 cmp	 eax, 7
  0023a	0f 85 82 00 00
	00		 jne	 $L265725

; 1847 : 		if( m_dwIdTarget == msg.dwParam1 )

  00240	8b 8e e0 00 00
	00		 mov	 ecx, DWORD PTR [esi+224]
  00246	3b 4d 04	 cmp	 ecx, DWORD PTR [ebp+4]
  00249	75 5a		 jne	 SHORT $L277473
$L277478:

; 1848 : 		{
; 1849 : 			CMover* pTarget	= ScanTargetAggro( pMover, /*pProp->m_nAttackFirstRange*/ 15, m_dwAIInterface, m_uParty );

  0024b	8b 56 34	 mov	 edx, DWORD PTR [esi+52]
  0024e	8b 46 38	 mov	 eax, DWORD PTR [esi+56]
  00251	52		 push	 edx
  00252	50		 push	 eax
  00253	68 00 00 70 41	 push	 1097859072		; 41700000H
  00258	57		 push	 edi
  00259	8b ce		 mov	 ecx, esi
  0025b	e8 00 00 00 00	 call	 ?ScanTargetAggro@CAIInterface@@IAEPAVCMover@@PAVCObj@@MKK@Z ; CAIInterface::ScanTargetAggro

; 1850 : 			if( pTarget )

  00260	85 c0		 test	 eax, eax
  00262	74 23		 je	 SHORT $L265728

; 1851 : 			{
; 1852 : 				SendAIMsg( AIMSG_SETSTATE, STATE_RAGE, pTarget->GetId() );

  00264	8b 80 bc 01 00
	00		 mov	 eax, DWORD PTR [eax+444]
  0026a	8b 16		 mov	 edx, DWORD PTR [esi]
  0026c	6a 00		 push	 0
  0026e	50		 push	 eax
  0026f	6a 07		 push	 7
  00271	6a 04		 push	 4
  00273	8b ce		 mov	 ecx, esi
  00275	ff 52 0c	 call	 DWORD PTR [edx+12]
  00278	5d		 pop	 ebp
  00279	5b		 pop	 ebx
  0027a	5f		 pop	 edi

; 1864 : 
; 1865 : 	///////////////////////////////////////////////////////////////////////////////////////////////////
; 1866 : 	OnMessage( AIMSG_ARRIVAL )
; 1867 : 
; 1868 : 	///////////////////////////////////////////////////////////////////////////////////////////////////
; 1869 : 	OnMessage( AIMSG_EXIT )	

  0027b	b8 01 00 00 00	 mov	 eax, 1
  00280	5e		 pop	 esi

; 1870 : 
; 1871 : 	EndAIHandler( )
; 1872 : 	return TRUE;
; 1873 : }

  00281	83 c4 0c	 add	 esp, 12			; 0000000cH
  00284	c2 04 00	 ret	 4
$L265728:

; 1853 : 				return TRUE;
; 1854 : 			}
; 1855 : 			else
; 1856 : 			{
; 1857 : 				SetTarget( NULL_ID, 0 );

  00287	8b 4e 30	 mov	 ecx, DWORD PTR [esi+48]
  0028a	68 00 00 80 3f	 push	 1065353216		; 3f800000H
  0028f	c7 86 e0 00 00
	00 ff ff ff ff	 mov	 DWORD PTR [esi+224], -1
  00299	c7 46 34 00 00
	00 00		 mov	 DWORD PTR [esi+52], 0
  002a0	e8 00 00 00 00	 call	 ?SetSpeedFactor@CMover@@QAEXM@Z ; CMover::SetSpeedFactor
$L277473:

; 1858 : 			}
; 1859 : 		}
; 1860 : 		SendAIMsg( AIMSG_SETSTATE, dwAIState );

  002a5	8b 16		 mov	 edx, DWORD PTR [esi]
  002a7	6a 00		 push	 0
  002a9	6a 00		 push	 0
  002ab	53		 push	 ebx
  002ac	6a 04		 push	 4
  002ae	8b ce		 mov	 ecx, esi
  002b0	ff 52 0c	 call	 DWORD PTR [edx+12]
  002b3	5d		 pop	 ebp
  002b4	5b		 pop	 ebx
  002b5	5f		 pop	 edi

; 1864 : 
; 1865 : 	///////////////////////////////////////////////////////////////////////////////////////////////////
; 1866 : 	OnMessage( AIMSG_ARRIVAL )
; 1867 : 
; 1868 : 	///////////////////////////////////////////////////////////////////////////////////////////////////
; 1869 : 	OnMessage( AIMSG_EXIT )	

  002b6	b8 01 00 00 00	 mov	 eax, 1
  002bb	5e		 pop	 esi

; 1870 : 
; 1871 : 	EndAIHandler( )
; 1872 : 	return TRUE;
; 1873 : }

  002bc	83 c4 0c	 add	 esp, 12			; 0000000cH
  002bf	c2 04 00	 ret	 4
$L265725:

; 1861 : 	///////////////////////////////////////////////////////////////////////////////////////////////////
; 1862 : 	OnMessage( AIMSG_BEGINMOVE )

  002c2	83 f8 0d	 cmp	 eax, 13			; 0000000dH
  002c5	75 0a		 jne	 SHORT $L265733

; 1863 : 		m_bGoTarget = FALSE; 

  002c7	c7 86 c8 00 00
	00 00 00 00 00	 mov	 DWORD PTR [esi+200], 0
$L265733:
  002d1	5d		 pop	 ebp
  002d2	5b		 pop	 ebx
  002d3	5f		 pop	 edi

; 1864 : 
; 1865 : 	///////////////////////////////////////////////////////////////////////////////////////////////////
; 1866 : 	OnMessage( AIMSG_ARRIVAL )
; 1867 : 
; 1868 : 	///////////////////////////////////////////////////////////////////////////////////////////////////
; 1869 : 	OnMessage( AIMSG_EXIT )	

  002d4	b8 01 00 00 00	 mov	 eax, 1
  002d9	5e		 pop	 esi

; 1870 : 
; 1871 : 	EndAIHandler( )
; 1872 : 	return TRUE;
; 1873 : }

  002da	83 c4 0c	 add	 esp, 12			; 0000000cH
  002dd	c2 04 00	 ret	 4
?StateRage@CAIAggro@@IAEHABUAIMSG@@@Z ENDP		; CAIAggro::StateRage
_TEXT	ENDS
CRT$XCU	SEGMENT
_$S2	DD	FLAT:_$E1
; Function compile flags: /Ogty
CRT$XCU	ENDS
;	COMDAT _$E1
text$yc	SEGMENT
_$E1	PROC NEAR					; COMDAT

; 45   : 	ON_STATE( STATE_INIT   , StateInit   )

  00000	b8 00 00 00 00	 mov	 eax, OFFSET FLAT:?StateInit@CAIAggro@@IAEHABUAIMSG@@@Z ; CAIAggro::StateInit
  00005	a3 08 00 00 00	 mov	 DWORD PTR ?stateMapEntries@CAIAggro@@2QBUSTATEMAP_ENTRIES@@B+8, eax

; 46   : 	ON_STATE( STATE_IDLE   , StateIdle   )

  0000a	b8 00 00 00 00	 mov	 eax, OFFSET FLAT:?StateIdle@CAIAggro@@IAEHABUAIMSG@@@Z ; CAIAggro::StateIdle
  0000f	a3 20 00 00 00	 mov	 DWORD PTR ?stateMapEntries@CAIAggro@@2QBUSTATEMAP_ENTRIES@@B+32, eax

; 47   : 	ON_STATE( STATE_WANDER , StateWander )

  00014	b8 00 00 00 00	 mov	 eax, OFFSET FLAT:?StateWander@CAIAggro@@IAEHABUAIMSG@@@Z ; CAIAggro::StateWander
  00019	a3 38 00 00 00	 mov	 DWORD PTR ?stateMapEntries@CAIAggro@@2QBUSTATEMAP_ENTRIES@@B+56, eax

; 48   : 	ON_STATE( STATE_EVADE  , StateEvade  )

  0001e	b8 00 00 00 00	 mov	 eax, OFFSET FLAT:?StateEvade@CAIAggro@@IAEHABUAIMSG@@@Z ; CAIAggro::StateEvade
  00023	a3 50 00 00 00	 mov	 DWORD PTR ?stateMapEntries@CAIAggro@@2QBUSTATEMAP_ENTRIES@@B+80, eax

; 49   : 	ON_STATE( STATE_RAGE   , StateRage   )

  00028	b8 00 00 00 00	 mov	 eax, OFFSET FLAT:?StateRage@CAIAggro@@IAEHABUAIMSG@@@Z ; CAIAggro::StateRage
  0002d	a3 68 00 00 00	 mov	 DWORD PTR ?stateMapEntries@CAIAggro@@2QBUSTATEMAP_ENTRIES@@B+104, eax

; 50   : 	ON_STATE( STATE_RUNAWAY, StateRunaway  )

  00032	b8 00 00 00 00	 mov	 eax, OFFSET FLAT:?StateRunaway@CAIAggro@@IAEHABUAIMSG@@@Z ; CAIAggro::StateRunaway
  00037	a3 80 00 00 00	 mov	 DWORD PTR ?stateMapEntries@CAIAggro@@2QBUSTATEMAP_ENTRIES@@B+128, eax

; 51   : 	ON_STATE( STATE_STAND  , StateStand   )

  0003c	b8 00 00 00 00	 mov	 eax, OFFSET FLAT:?StateStand@CAIAggro@@IAEHABUAIMSG@@@Z ; CAIAggro::StateStand
  00041	33 c9		 xor	 ecx, ecx
  00043	33 d2		 xor	 edx, edx
  00045	a3 98 00 00 00	 mov	 DWORD PTR ?stateMapEntries@CAIAggro@@2QBUSTATEMAP_ENTRIES@@B+152, eax
  0004a	56		 push	 esi
  0004b	33 f6		 xor	 esi, esi

; 52   : 	ON_STATE( STATE_PATROL , StatePatrol  )

  0004d	b8 00 00 00 00	 mov	 eax, OFFSET FLAT:?StatePatrol@CAIAggro@@IAEHABUAIMSG@@@Z ; CAIAggro::StatePatrol
  00052	a3 b0 00 00 00	 mov	 DWORD PTR ?stateMapEntries@CAIAggro@@2QBUSTATEMAP_ENTRIES@@B+176, eax

; 53   : 	ON_STATE( STATE_RAGE_PATROL , StateRagePatrol  )

  00057	b8 00 00 00 00	 mov	 eax, OFFSET FLAT:?StateRagePatrol@CAIAggro@@IAEHABUAIMSG@@@Z ; CAIAggro::StateRagePatrol
  0005c	89 35 14 00 00
	00		 mov	 DWORD PTR ?stateMapEntries@CAIAggro@@2QBUSTATEMAP_ENTRIES@@B+20, esi
  00062	89 35 2c 00 00
	00		 mov	 DWORD PTR ?stateMapEntries@CAIAggro@@2QBUSTATEMAP_ENTRIES@@B+44, esi
  00068	89 35 44 00 00
	00		 mov	 DWORD PTR ?stateMapEntries@CAIAggro@@2QBUSTATEMAP_ENTRIES@@B+68, esi
  0006e	89 35 5c 00 00
	00		 mov	 DWORD PTR ?stateMapEntries@CAIAggro@@2QBUSTATEMAP_ENTRIES@@B+92, esi
  00074	89 35 74 00 00
	00		 mov	 DWORD PTR ?stateMapEntries@CAIAggro@@2QBUSTATEMAP_ENTRIES@@B+116, esi
  0007a	89 35 8c 00 00
	00		 mov	 DWORD PTR ?stateMapEntries@CAIAggro@@2QBUSTATEMAP_ENTRIES@@B+140, esi
  00080	89 35 a4 00 00
	00		 mov	 DWORD PTR ?stateMapEntries@CAIAggro@@2QBUSTATEMAP_ENTRIES@@B+164, esi
  00086	89 35 bc 00 00
	00		 mov	 DWORD PTR ?stateMapEntries@CAIAggro@@2QBUSTATEMAP_ENTRIES@@B+188, esi
  0008c	89 35 d4 00 00
	00		 mov	 DWORD PTR ?stateMapEntries@CAIAggro@@2QBUSTATEMAP_ENTRIES@@B+212, esi

; 54   : 	
; 55   : END_AISTATE_MAP()

  00092	83 ce ff	 or	 esi, -1
  00095	a3 c8 00 00 00	 mov	 DWORD PTR ?stateMapEntries@CAIAggro@@2QBUSTATEMAP_ENTRIES@@B+200, eax
  0009a	33 c0		 xor	 eax, eax
  0009c	89 35 ec 00 00
	00		 mov	 DWORD PTR ?stateMapEntries@CAIAggro@@2QBUSTATEMAP_ENTRIES@@B+236, esi
  000a2	89 0d 0c 00 00
	00		 mov	 DWORD PTR ?stateMapEntries@CAIAggro@@2QBUSTATEMAP_ENTRIES@@B+12, ecx
  000a8	89 15 10 00 00
	00		 mov	 DWORD PTR ?stateMapEntries@CAIAggro@@2QBUSTATEMAP_ENTRIES@@B+16, edx
  000ae	89 0d 24 00 00
	00		 mov	 DWORD PTR ?stateMapEntries@CAIAggro@@2QBUSTATEMAP_ENTRIES@@B+36, ecx
  000b4	89 15 28 00 00
	00		 mov	 DWORD PTR ?stateMapEntries@CAIAggro@@2QBUSTATEMAP_ENTRIES@@B+40, edx
  000ba	89 0d 3c 00 00
	00		 mov	 DWORD PTR ?stateMapEntries@CAIAggro@@2QBUSTATEMAP_ENTRIES@@B+60, ecx
  000c0	89 15 40 00 00
	00		 mov	 DWORD PTR ?stateMapEntries@CAIAggro@@2QBUSTATEMAP_ENTRIES@@B+64, edx
  000c6	89 0d 54 00 00
	00		 mov	 DWORD PTR ?stateMapEntries@CAIAggro@@2QBUSTATEMAP_ENTRIES@@B+84, ecx
  000cc	89 15 58 00 00
	00		 mov	 DWORD PTR ?stateMapEntries@CAIAggro@@2QBUSTATEMAP_ENTRIES@@B+88, edx
  000d2	89 0d 6c 00 00
	00		 mov	 DWORD PTR ?stateMapEntries@CAIAggro@@2QBUSTATEMAP_ENTRIES@@B+108, ecx
  000d8	89 15 70 00 00
	00		 mov	 DWORD PTR ?stateMapEntries@CAIAggro@@2QBUSTATEMAP_ENTRIES@@B+112, edx
  000de	89 0d 84 00 00
	00		 mov	 DWORD PTR ?stateMapEntries@CAIAggro@@2QBUSTATEMAP_ENTRIES@@B+132, ecx
  000e4	89 15 88 00 00
	00		 mov	 DWORD PTR ?stateMapEntries@CAIAggro@@2QBUSTATEMAP_ENTRIES@@B+136, edx
  000ea	89 0d 9c 00 00
	00		 mov	 DWORD PTR ?stateMapEntries@CAIAggro@@2QBUSTATEMAP_ENTRIES@@B+156, ecx
  000f0	89 15 a0 00 00
	00		 mov	 DWORD PTR ?stateMapEntries@CAIAggro@@2QBUSTATEMAP_ENTRIES@@B+160, edx
  000f6	89 0d b4 00 00
	00		 mov	 DWORD PTR ?stateMapEntries@CAIAggro@@2QBUSTATEMAP_ENTRIES@@B+180, ecx
  000fc	89 15 b8 00 00
	00		 mov	 DWORD PTR ?stateMapEntries@CAIAggro@@2QBUSTATEMAP_ENTRIES@@B+184, edx
  00102	89 0d cc 00 00
	00		 mov	 DWORD PTR ?stateMapEntries@CAIAggro@@2QBUSTATEMAP_ENTRIES@@B+204, ecx
  00108	89 15 d0 00 00
	00		 mov	 DWORD PTR ?stateMapEntries@CAIAggro@@2QBUSTATEMAP_ENTRIES@@B+208, edx
  0010e	a3 e0 00 00 00	 mov	 DWORD PTR ?stateMapEntries@CAIAggro@@2QBUSTATEMAP_ENTRIES@@B+224, eax
  00113	89 0d e4 00 00
	00		 mov	 DWORD PTR ?stateMapEntries@CAIAggro@@2QBUSTATEMAP_ENTRIES@@B+228, ecx
  00119	89 15 e8 00 00
	00		 mov	 DWORD PTR ?stateMapEntries@CAIAggro@@2QBUSTATEMAP_ENTRIES@@B+232, edx
  0011f	5e		 pop	 esi
  00120	c3		 ret	 0
_$E1	ENDP
text$yc	ENDS
PUBLIC	?stateMapEntries@CAIAggro@@2QBUSTATEMAP_ENTRIES@@B ; CAIAggro::stateMapEntries
_DATA	SEGMENT
	ORG $+4
?stateMapEntries@CAIAggro@@2QBUSTATEMAP_ENTRIES@@B DD 01H ; CAIAggro::stateMapEntries
	ORG $+4
	DB	16 DUP(00H)
	DD	02H
	DB	20 DUP(00H)
	DD	03H
	DB	20 DUP(00H)
	DD	05H
	DB	20 DUP(00H)
	DD	07H
	DB	20 DUP(00H)
	DD	06H
	DB	20 DUP(00H)
	DD	08H
	DB	20 DUP(00H)
	DD	09H
	DB	20 DUP(00H)
	DD	0aH
	DB	20 DUP(00H)
	DD	00H
	ORG $+20
_DATA	ENDS
END
