; Listing generated by Microsoft (R) Optimizing Compiler Version 13.10.6030 

	TITLE	\Documents and Settings\test\Mes documents\Source\Virtuos_v17\Build\Program\_AIInterface\AIBear.cpp
	.386P
include listing.inc
if @Version gt 510
.model FLAT
else
_TEXT	SEGMENT PARA USE32 PUBLIC 'CODE'
_TEXT	ENDS
_DATA	SEGMENT DWORD USE32 PUBLIC 'DATA'
_DATA	ENDS
CONST	SEGMENT DWORD USE32 PUBLIC 'CONST'
CONST	ENDS
_BSS	SEGMENT DWORD USE32 PUBLIC 'BSS'
_BSS	ENDS
$$SYMBOLS	SEGMENT BYTE USE32 'DEBSYM'
$$SYMBOLS	ENDS
$$TYPES	SEGMENT BYTE USE32 'DEBTYP'
$$TYPES	ENDS
_TLS	SEGMENT DWORD USE32 PUBLIC 'TLS'
_TLS	ENDS
;	COMDAT ??_C@_0DE@LJNKFOIH@CAIBear?3?3StateRage?5?9?5AIMSG_ARRIV@
CONST	SEGMENT DWORD USE32 PUBLIC 'CONST'
CONST	ENDS
;	COMDAT ??_C@_0CL@FACONPFG@CAIBear?3?3StateRage?5?3?5AIMSG_ATTAC@
CONST	SEGMENT DWORD USE32 PUBLIC 'CONST'
CONST	ENDS
text$yc	SEGMENT PARA USE32 PUBLIC 'CODE'
text$yc	ENDS
CRT$XCA	SEGMENT DWORD USE32 PUBLIC 'DATA'
CRT$XCA	ENDS
CRT$XCU	SEGMENT DWORD USE32 PUBLIC 'DATA'
CRT$XCU	ENDS
CRT$XCL	SEGMENT DWORD USE32 PUBLIC 'DATA'
CRT$XCL	ENDS
CRT$XCC	SEGMENT DWORD USE32 PUBLIC 'DATA'
CRT$XCC	ENDS
CRT$XCZ	SEGMENT DWORD USE32 PUBLIC 'DATA'
CRT$XCZ	ENDS
xdata$x	SEGMENT DWORD USE32 PUBLIC 'CONST'
xdata$x	ENDS
text$AFX_COL1	SEGMENT PARA USE32 PUBLIC ''
text$AFX_COL1	ENDS
;	COMDAT ?SelectMemberClear@__GuildCombatMember@CGuildCombat@@QAEXXZ
_TEXT	SEGMENT PARA USE32 PUBLIC 'CODE'
_TEXT	ENDS
;	COMDAT ??0__MINIGAME_PACKET@@QAE@GHHH@Z
_TEXT	SEGMENT PARA USE32 PUBLIC 'CODE'
_TEXT	ENDS
;	COMDAT ?Serialize@__MINIGAME_PACKET@@UAEXAAVCAr@@@Z
_TEXT	SEGMENT PARA USE32 PUBLIC 'CODE'
_TEXT	ENDS
;	COMDAT ?Serialize@__MINIGAME_EXT_PACKET@@UAEXAAVCAr@@@Z
_TEXT	SEGMENT PARA USE32 PUBLIC 'CODE'
_TEXT	ENDS
;	COMDAT ??0MINIGMAME_PRIZE_LIST@CRainbowRaceMng@@QAE@KHK@Z
_TEXT	SEGMENT PARA USE32 PUBLIC 'CODE'
_TEXT	ENDS
;	COMDAT ?RemovePlayerId2CampusId@CCampusMng@@QAEXK@Z
_TEXT	SEGMENT PARA USE32 PUBLIC 'CODE'
_TEXT	ENDS
;	COMDAT ?GetPacketSize@CBuffer2@@UAEKPAE@Z
_TEXT	SEGMENT PARA USE32 PUBLIC 'CODE'
_TEXT	ENDS
;	COMDAT ?SetHeader@CBuffer2@@UAEXK@Z
_TEXT	SEGMENT PARA USE32 PUBLIC 'CODE'
_TEXT	ENDS
;	COMDAT ??_GCBuffer2@@UAEPAXI@Z
_TEXT	SEGMENT PARA USE32 PUBLIC 'CODE'
_TEXT	ENDS
;	COMDAT ??1CBuffer2@@UAE@XZ
_TEXT	SEGMENT PARA USE32 PUBLIC 'CODE'
_TEXT	ENDS
;	COMDAT ?IsEmpty@CBufferQueue@@QAEHXZ
_TEXT	SEGMENT PARA USE32 PUBLIC 'CODE'
_TEXT	ENDS
;	COMDAT ??1CMapChild@@UAE@XZ
_TEXT	SEGMENT PARA USE32 PUBLIC 'CODE'
_TEXT	ENDS
;	COMDAT ??_GCMapChild@@UAEPAXI@Z
_TEXT	SEGMENT PARA USE32 PUBLIC 'CODE'
_TEXT	ENDS
;	COMDAT ??1?$map@KPAVCClientSock@@U?$less@K@std@@V?$allocator@U?$pair@$$CBKPAVCClientSock@@@std@@@3@@std@@QAE@XZ
_TEXT	SEGMENT PARA USE32 PUBLIC 'CODE'
_TEXT	ENDS
;	COMDAT ??1CMapChildE@@UAE@XZ
_TEXT	SEGMENT PARA USE32 PUBLIC 'CODE'
_TEXT	ENDS
;	COMDAT ??_GCMapChildE@@UAEPAXI@Z
_TEXT	SEGMENT PARA USE32 PUBLIC 'CODE'
_TEXT	ENDS
;	COMDAT ??1?$map@KPAVCClientSockE@@U?$less@K@std@@V?$allocator@U?$pair@$$CBKPAVCClientSockE@@@std@@@3@@std@@QAE@XZ
_TEXT	SEGMENT PARA USE32 PUBLIC 'CODE'
_TEXT	ENDS
;	COMDAT ?GetRecvHandle@CDPSock@@QAEPAXXZ
_TEXT	SEGMENT PARA USE32 PUBLIC 'CODE'
_TEXT	ENDS
;	COMDAT ?GetStateMap@CAIBear@@UBEPBUSTATEMAP@@XZ
_TEXT	SEGMENT PARA USE32 PUBLIC 'CODE'
_TEXT	ENDS
;	COMDAT _$E1
text$yc	SEGMENT PARA USE32 PUBLIC 'CODE'
text$yc	ENDS
;	COMDAT ??0CAIBear@@QAE@XZ
_TEXT	SEGMENT PARA USE32 PUBLIC 'CODE'
_TEXT	ENDS
;	COMDAT ??_GCAIBear@@UAEPAXI@Z
_TEXT	SEGMENT PARA USE32 PUBLIC 'CODE'
_TEXT	ENDS
;	COMDAT ??0CAIBear@@QAE@PAVCObj@@@Z
_TEXT	SEGMENT PARA USE32 PUBLIC 'CODE'
_TEXT	ENDS
;	COMDAT ??1CAIBear@@UAE@XZ
_TEXT	SEGMENT PARA USE32 PUBLIC 'CODE'
_TEXT	ENDS
;	COMDAT ?Init@CAIBear@@AAEXXZ
_TEXT	SEGMENT PARA USE32 PUBLIC 'CODE'
_TEXT	ENDS
;	COMDAT ?Destroy@CAIBear@@AAEXXZ
_TEXT	SEGMENT PARA USE32 PUBLIC 'CODE'
_TEXT	ENDS
;	COMDAT ?InitAI@CAIBear@@UAEXXZ
_TEXT	SEGMENT PARA USE32 PUBLIC 'CODE'
_TEXT	ENDS
;	COMDAT ?StateInit@CAIBear@@QAEHABUAIMSG@@@Z
_TEXT	SEGMENT PARA USE32 PUBLIC 'CODE'
_TEXT	ENDS
;	COMDAT ?MoveProcessIdle@CAIBear@@AAEHXZ
_TEXT	SEGMENT PARA USE32 PUBLIC 'CODE'
_TEXT	ENDS
;	COMDAT ?StateIdle@CAIBear@@QAEHABUAIMSG@@@Z
_TEXT	SEGMENT PARA USE32 PUBLIC 'CODE'
_TEXT	ENDS
;	COMDAT ?SelectTarget@CAIBear@@AAEHXZ
_TEXT	SEGMENT PARA USE32 PUBLIC 'CODE'
_TEXT	ENDS
;	COMDAT ?SummonMonster@CAIBear@@QAEXKUD3DXVECTOR3@@@Z
_TEXT	SEGMENT PARA USE32 PUBLIC 'CODE'
_TEXT	ENDS
;	COMDAT ?MoveProcessRage@CAIBear@@AAEHXZ
_TEXT	SEGMENT PARA USE32 PUBLIC 'CODE'
_TEXT	ENDS
;	COMDAT ?StateRage@CAIBear@@QAEHABUAIMSG@@@Z
_TEXT	SEGMENT PARA USE32 PUBLIC 'CODE'
_TEXT	ENDS
;	COMDAT ?compare@?$basic_string@DU?$char_traits@D@std@@V?$allocator@D@2@@std@@QBEHABV12@@Z
_TEXT	SEGMENT PARA USE32 PUBLIC 'CODE'
_TEXT	ENDS
;	COMDAT ?IsFull@?$CStack@K@@QAEHXZ
_TEXT	SEGMENT PARA USE32 PUBLIC 'CODE'
_TEXT	ENDS
;	COMDAT ??A?$map@KPAVCCtrl@@U?$less@K@std@@V?$allocator@U?$pair@$$CBKPAVCCtrl@@@std@@@3@@std@@QAEAAPAVCCtrl@@ABK@Z
_TEXT	SEGMENT PARA USE32 PUBLIC 'CODE'
_TEXT	ENDS
;	COMDAT ??0?$pair@KPAVCCtrl@@@std@@QAE@ABKABQAVCCtrl@@@Z
_TEXT	SEGMENT PARA USE32 PUBLIC 'CODE'
_TEXT	ENDS
;	COMDAT ?GetMax@?$CItemContainer@VCItemElem@@@@QAEHXZ
_TEXT	SEGMENT PARA USE32 PUBLIC 'CODE'
_TEXT	ENDS
;	COMDAT ??0?$deque@PAUtagACTMSG@@V?$allocator@PAUtagACTMSG@@@std@@@std@@QAE@XZ
_TEXT	SEGMENT PARA USE32 PUBLIC 'CODE'
_TEXT	ENDS
;	COMDAT ??1?$deque@PAUtagACTMSG@@V?$allocator@PAUtagACTMSG@@@std@@@std@@QAE@XZ
_TEXT	SEGMENT PARA USE32 PUBLIC 'CODE'
_TEXT	ENDS
;	COMDAT ?begin@?$deque@PAUtagACTMSG@@V?$allocator@PAUtagACTMSG@@@std@@@std@@QAE?AViterator@12@XZ
_TEXT	SEGMENT PARA USE32 PUBLIC 'CODE'
_TEXT	ENDS
;	COMDAT ?end@?$deque@PAUtagACTMSG@@V?$allocator@PAUtagACTMSG@@@std@@@std@@QAE?AViterator@12@XZ
_TEXT	SEGMENT PARA USE32 PUBLIC 'CODE'
_TEXT	ENDS
;	COMDAT ?empty@?$deque@PAUtagACTMSG@@V?$allocator@PAUtagACTMSG@@@std@@@std@@QBE_NXZ
_TEXT	SEGMENT PARA USE32 PUBLIC 'CODE'
_TEXT	ENDS
;	COMDAT ?clear@?$deque@PAUtagACTMSG@@V?$allocator@PAUtagACTMSG@@@std@@@std@@QAEXXZ
_TEXT	SEGMENT PARA USE32 PUBLIC 'CODE'
_TEXT	ENDS
;	COMDAT ??0?$deque@PAUtagMAGICATKMSG@@V?$allocator@PAUtagMAGICATKMSG@@@std@@@std@@QAE@XZ
_TEXT	SEGMENT PARA USE32 PUBLIC 'CODE'
_TEXT	ENDS
;	COMDAT ??1?$deque@PAUtagMAGICATKMSG@@V?$allocator@PAUtagMAGICATKMSG@@@std@@@std@@QAE@XZ
_TEXT	SEGMENT PARA USE32 PUBLIC 'CODE'
_TEXT	ENDS
;	COMDAT ?begin@?$deque@PAUtagMAGICATKMSG@@V?$allocator@PAUtagMAGICATKMSG@@@std@@@std@@QAE?AViterator@12@XZ
_TEXT	SEGMENT PARA USE32 PUBLIC 'CODE'
_TEXT	ENDS
;	COMDAT ?end@?$deque@PAUtagMAGICATKMSG@@V?$allocator@PAUtagMAGICATKMSG@@@std@@@std@@QAE?AViterator@12@XZ
_TEXT	SEGMENT PARA USE32 PUBLIC 'CODE'
_TEXT	ENDS
;	COMDAT ?empty@?$deque@PAUtagMAGICATKMSG@@V?$allocator@PAUtagMAGICATKMSG@@@std@@@std@@QBE_NXZ
_TEXT	SEGMENT PARA USE32 PUBLIC 'CODE'
_TEXT	ENDS
;	COMDAT ?clear@?$deque@PAUtagMAGICATKMSG@@V?$allocator@PAUtagMAGICATKMSG@@@std@@@std@@QAEXXZ
_TEXT	SEGMENT PARA USE32 PUBLIC 'CODE'
_TEXT	ENDS
;	COMDAT ??Diterator@?$deque@PAUtagACTMSG@@V?$allocator@PAUtagACTMSG@@@std@@@std@@QBEAAPAUtagACTMSG@@XZ
_TEXT	SEGMENT PARA USE32 PUBLIC 'CODE'
_TEXT	ENDS
;	COMDAT ??Eiterator@?$deque@PAUtagACTMSG@@V?$allocator@PAUtagACTMSG@@@std@@@std@@QAEAAV012@XZ
_TEXT	SEGMENT PARA USE32 PUBLIC 'CODE'
_TEXT	ENDS
;	COMDAT ??9const_iterator@?$deque@PAUtagACTMSG@@V?$allocator@PAUtagACTMSG@@@std@@@std@@QBE_NABV012@@Z
_TEXT	SEGMENT PARA USE32 PUBLIC 'CODE'
_TEXT	ENDS
;	COMDAT ??Diterator@?$deque@PAUtagMAGICATKMSG@@V?$allocator@PAUtagMAGICATKMSG@@@std@@@std@@QBEAAPAUtagMAGICATKMSG@@XZ
_TEXT	SEGMENT PARA USE32 PUBLIC 'CODE'
_TEXT	ENDS
;	COMDAT ??Eiterator@?$deque@PAUtagMAGICATKMSG@@V?$allocator@PAUtagMAGICATKMSG@@@std@@@std@@QAEAAV012@XZ
_TEXT	SEGMENT PARA USE32 PUBLIC 'CODE'
_TEXT	ENDS
;	COMDAT ??9const_iterator@?$deque@PAUtagMAGICATKMSG@@V?$allocator@PAUtagMAGICATKMSG@@@std@@@std@@QBE_NABV012@@Z
_TEXT	SEGMENT PARA USE32 PUBLIC 'CODE'
_TEXT	ENDS
;	COMDAT ?erase@?$_Tree@V?$_Tmap_traits@KU_Friend@@U?$less@K@std@@V?$allocator@U?$pair@$$CBKU_Friend@@@std@@@3@$0A@@std@@@std@@QAEIABK@Z
_TEXT	SEGMENT PARA USE32 PUBLIC 'CODE'
_TEXT	ENDS
;	COMDAT ?size@?$_Tree@V?$_Tmap_traits@KPAVCGuildMember@@U?$less@K@std@@V?$allocator@U?$pair@$$CBKPAVCGuildMember@@@std@@@3@$0A@@std@@@std@@QBEIXZ
_TEXT	SEGMENT PARA USE32 PUBLIC 'CODE'
_TEXT	ENDS
;	COMDAT ?size@?$_Tree@V?$_Tmap_traits@KPAVCGuild@@U?$less@K@std@@V?$allocator@U?$pair@$$CBKPAVCGuild@@@std@@@3@$0A@@std@@@std@@QBEIXZ
_TEXT	SEGMENT PARA USE32 PUBLIC 'CODE'
_TEXT	ENDS
;	COMDAT ?size@?$vector@PAU__JOINPLAYER@CGuildCombat@@V?$allocator@PAU__JOINPLAYER@CGuildCombat@@@std@@@std@@QBEIXZ
_TEXT	SEGMENT PARA USE32 PUBLIC 'CODE'
_TEXT	ENDS
;	COMDAT ??A?$vector@PAU__JOINPLAYER@CGuildCombat@@V?$allocator@PAU__JOINPLAYER@CGuildCombat@@@std@@@std@@QAEAAPAU__JOINPLAYER@CGuildCombat@@I@Z
_TEXT	SEGMENT PARA USE32 PUBLIC 'CODE'
_TEXT	ENDS
;	COMDAT ?clear@?$vector@PAU__JOINPLAYER@CGuildCombat@@V?$allocator@PAU__JOINPLAYER@CGuildCombat@@@std@@@std@@QAEXXZ
_TEXT	SEGMENT PARA USE32 PUBLIC 'CODE'
_TEXT	ENDS
;	COMDAT ?clear@?$list@PAU__JOINPLAYER@CGuildCombat@@V?$allocator@PAU__JOINPLAYER@CGuildCombat@@@std@@@std@@QAEXXZ
_TEXT	SEGMENT PARA USE32 PUBLIC 'CODE'
_TEXT	ENDS
;	COMDAT ?size@?$_Tree@V?$_Tmap_traits@KPAU_PlayerData@@U?$less@K@std@@V?$allocator@U?$pair@$$CBKPAU_PlayerData@@@std@@@3@$0A@@std@@@std@@QBEIXZ
_TEXT	SEGMENT PARA USE32 PUBLIC 'CODE'
_TEXT	ENDS
;	COMDAT ??0?$vector@U__SECRETROOM_MONSTER@@V?$allocator@U__SECRETROOM_MONSTER@@@std@@@std@@QAE@XZ
_TEXT	SEGMENT PARA USE32 PUBLIC 'CODE'
_TEXT	ENDS
;	COMDAT ??1?$vector@U__SECRETROOM_MONSTER@@V?$allocator@U__SECRETROOM_MONSTER@@@std@@@std@@QAE@XZ
_TEXT	SEGMENT PARA USE32 PUBLIC 'CODE'
_TEXT	ENDS
;	COMDAT ??0?$vector@V?$basic_string@DU?$char_traits@D@std@@V?$allocator@D@2@@std@@V?$allocator@V?$basic_string@DU?$char_traits@D@std@@V?$allocator@D@2@@std@@@2@@std@@QAE@XZ
_TEXT	SEGMENT PARA USE32 PUBLIC 'CODE'
_TEXT	ENDS
;	COMDAT ??1?$vector@V?$basic_string@DU?$char_traits@D@std@@V?$allocator@D@2@@std@@V?$allocator@V?$basic_string@DU?$char_traits@D@std@@V?$allocator@D@2@@std@@@2@@std@@QAE@XZ
_TEXT	SEGMENT PARA USE32 PUBLIC 'CODE'
_TEXT	ENDS
;	COMDAT ?size@?$vector@V?$basic_string@DU?$char_traits@D@std@@V?$allocator@D@2@@std@@V?$allocator@V?$basic_string@DU?$char_traits@D@std@@V?$allocator@D@2@@std@@@2@@std@@QBEIXZ
_TEXT	SEGMENT PARA USE32 PUBLIC 'CODE'
_TEXT	ENDS
;	COMDAT ??A?$vector@V?$basic_string@DU?$char_traits@D@std@@V?$allocator@D@2@@std@@V?$allocator@V?$basic_string@DU?$char_traits@D@std@@V?$allocator@D@2@@std@@@2@@std@@QAEAAV?$basic_string@DU?$char_traits@D@std@@V?$allocator@D@2@@1@I@Z
_TEXT	SEGMENT PARA USE32 PUBLIC 'CODE'
_TEXT	ENDS
;	COMDAT ?push_back@?$vector@V?$basic_string@DU?$char_traits@D@std@@V?$allocator@D@2@@std@@V?$allocator@V?$basic_string@DU?$char_traits@D@std@@V?$allocator@D@2@@std@@@2@@std@@QAEXABV?$basic_string@DU?$char_traits@D@std@@V?$allocator@D@2@@2@@Z
_TEXT	SEGMENT PARA USE32 PUBLIC 'CODE'
_TEXT	ENDS
;	COMDAT ?clear@?$vector@V?$basic_string@DU?$char_traits@D@std@@V?$allocator@D@2@@std@@V?$allocator@V?$basic_string@DU?$char_traits@D@std@@V?$allocator@D@2@@std@@@2@@std@@QAEXXZ
_TEXT	SEGMENT PARA USE32 PUBLIC 'CODE'
_TEXT	ENDS
;	COMDAT ?push_back@?$vector@UMINIGMAME_PRIZE_LIST@CRainbowRaceMng@@V?$allocator@UMINIGMAME_PRIZE_LIST@CRainbowRaceMng@@@std@@@std@@QAEXABUMINIGMAME_PRIZE_LIST@CRainbowRaceMng@@@Z
_TEXT	SEGMENT PARA USE32 PUBLIC 'CODE'
_TEXT	ENDS
;	COMDAT ?size@?$_Tree@V?$_Tmap_traits@KPAVCRainbowRace@@U?$less@K@std@@V?$allocator@U?$pair@$$CBKPAVCRainbowRace@@@std@@@3@$0A@@std@@@std@@QBEIXZ
_TEXT	SEGMENT PARA USE32 PUBLIC 'CODE'
_TEXT	ENDS
;	COMDAT ?size@?$vector@PAVCMiniGameBase@@V?$allocator@PAVCMiniGameBase@@@std@@@std@@QBEIXZ
_TEXT	SEGMENT PARA USE32 PUBLIC 'CODE'
_TEXT	ENDS
;	COMDAT ??A?$vector@PAVCMiniGameBase@@V?$allocator@PAVCMiniGameBase@@@std@@@std@@QAEAAPAVCMiniGameBase@@I@Z
_TEXT	SEGMENT PARA USE32 PUBLIC 'CODE'
_TEXT	ENDS
;	COMDAT ?size@?$vector@UGuildHouse_Furniture_Info@CGuildHouseBase@@V?$allocator@UGuildHouse_Furniture_Info@CGuildHouseBase@@@std@@@std@@QBEIXZ
_TEXT	SEGMENT PARA USE32 PUBLIC 'CODE'
_TEXT	ENDS
;	COMDAT ??A?$vector@UGuildHouse_Furniture_Info@CGuildHouseBase@@V?$allocator@UGuildHouse_Furniture_Info@CGuildHouseBase@@@std@@@std@@QAEAAUGuildHouse_Furniture_Info@CGuildHouseBase@@I@Z
_TEXT	SEGMENT PARA USE32 PUBLIC 'CODE'
_TEXT	ENDS
;	COMDAT ?empty@?$_Tree@V?$_Tmap_traits@KPAVCGuildHouseBase@@U?$less@K@std@@V?$allocator@U?$pair@$$CBKPAVCGuildHouseBase@@@std@@@3@$0A@@std@@@std@@QBE_NXZ
_TEXT	SEGMENT PARA USE32 PUBLIC 'CODE'
_TEXT	ENDS
;	COMDAT ?insert@?$_Tree@V?$_Tmap_traits@KPAVCGuildHouseBase@@U?$less@K@std@@V?$allocator@U?$pair@$$CBKPAVCGuildHouseBase@@@std@@@3@$0A@@std@@@std@@QAE?AU?$pair@Viterator@?$_Tree@V?$_Tmap_traits@KPAVCGuildHouseBase@@U?$less@K@std@@V?$allocator@U?$pair@$$CBKPAVCGuildHouseBase@@@std@@@3@$0A@@std@@@std@@_N@2@ABU?$pair@$$CBKPAVCGuildHouseBase@@@2@@Z
_TEXT	SEGMENT PARA USE32 PUBLIC 'CODE'
_TEXT	ENDS
;	COMDAT ?size@?$_Tree@V?$_Tmap_traits@KPAVCCampusMember@@U?$less@K@std@@V?$allocator@U?$pair@$$CBKPAVCCampusMember@@@std@@@3@$0A@@std@@@std@@QBEIXZ
_TEXT	SEGMENT PARA USE32 PUBLIC 'CODE'
_TEXT	ENDS
;	COMDAT ?empty@?$_Tree@V?$_Tmap_traits@KPAVCCampus@@U?$less@K@std@@V?$allocator@U?$pair@$$CBKPAVCCampus@@@std@@@3@$0A@@std@@@std@@QBE_NXZ
_TEXT	SEGMENT PARA USE32 PUBLIC 'CODE'
_TEXT	ENDS
;	COMDAT ?erase@?$_Tree@V?$_Tmap_traits@KKU?$less@K@std@@V?$allocator@U?$pair@$$CBKK@std@@@2@$0A@@std@@@std@@QAEIABK@Z
_TEXT	SEGMENT PARA USE32 PUBLIC 'CODE'
_TEXT	ENDS
;	COMDAT ??0?$map@KPAVCClientSock@@U?$less@K@std@@V?$allocator@U?$pair@$$CBKPAVCClientSock@@@std@@@3@@std@@QAE@XZ
_TEXT	SEGMENT PARA USE32 PUBLIC 'CODE'
_TEXT	ENDS
;	COMDAT ??1?$_Tree@V?$_Tmap_traits@KPAVCClientSock@@U?$less@K@std@@V?$allocator@U?$pair@$$CBKPAVCClientSock@@@std@@@3@$0A@@std@@@std@@QAE@XZ
_TEXT	SEGMENT PARA USE32 PUBLIC 'CODE'
_TEXT	ENDS
;	COMDAT ?end@?$_Tree@V?$_Tmap_traits@KPAVCClientSock@@U?$less@K@std@@V?$allocator@U?$pair@$$CBKPAVCClientSock@@@std@@@3@$0A@@std@@@std@@QAE?AViterator@12@XZ
_TEXT	SEGMENT PARA USE32 PUBLIC 'CODE'
_TEXT	ENDS
;	COMDAT ?find@?$_Tree@V?$_Tmap_traits@KPAVCClientSock@@U?$less@K@std@@V?$allocator@U?$pair@$$CBKPAVCClientSock@@@std@@@3@$0A@@std@@@std@@QAE?AViterator@12@ABK@Z
_TEXT	SEGMENT PARA USE32 PUBLIC 'CODE'
_TEXT	ENDS
;	COMDAT ??Citerator@?$_Tree@V?$_Tmap_traits@KPAVCClientSock@@U?$less@K@std@@V?$allocator@U?$pair@$$CBKPAVCClientSock@@@std@@@3@$0A@@std@@@std@@QBEPAU?$pair@$$CBKPAVCClientSock@@@2@XZ
_TEXT	SEGMENT PARA USE32 PUBLIC 'CODE'
_TEXT	ENDS
;	COMDAT ??9const_iterator@?$_Tree@V?$_Tmap_traits@KPAVCClientSock@@U?$less@K@std@@V?$allocator@U?$pair@$$CBKPAVCClientSock@@@std@@@3@$0A@@std@@@std@@QBE_NABV012@@Z
_TEXT	SEGMENT PARA USE32 PUBLIC 'CODE'
_TEXT	ENDS
;	COMDAT ??0?$map@KPAVCClientSockE@@U?$less@K@std@@V?$allocator@U?$pair@$$CBKPAVCClientSockE@@@std@@@3@@std@@QAE@XZ
_TEXT	SEGMENT PARA USE32 PUBLIC 'CODE'
_TEXT	ENDS
;	COMDAT ??1?$_Tree@V?$_Tmap_traits@KPAVCClientSockE@@U?$less@K@std@@V?$allocator@U?$pair@$$CBKPAVCClientSockE@@@std@@@3@$0A@@std@@@std@@QAE@XZ
_TEXT	SEGMENT PARA USE32 PUBLIC 'CODE'
_TEXT	ENDS
;	COMDAT ?end@?$_Tree@V?$_Tmap_traits@KPAVCClientSockE@@U?$less@K@std@@V?$allocator@U?$pair@$$CBKPAVCClientSockE@@@std@@@3@$0A@@std@@@std@@QAE?AViterator@12@XZ
_TEXT	SEGMENT PARA USE32 PUBLIC 'CODE'
_TEXT	ENDS
;	COMDAT ?find@?$_Tree@V?$_Tmap_traits@KPAVCClientSockE@@U?$less@K@std@@V?$allocator@U?$pair@$$CBKPAVCClientSockE@@@std@@@3@$0A@@std@@@std@@QAE?AViterator@12@ABK@Z
_TEXT	SEGMENT PARA USE32 PUBLIC 'CODE'
_TEXT	ENDS
;	COMDAT ??Citerator@?$_Tree@V?$_Tmap_traits@KPAVCClientSockE@@U?$less@K@std@@V?$allocator@U?$pair@$$CBKPAVCClientSockE@@@std@@@3@$0A@@std@@@std@@QBEPAU?$pair@$$CBKPAVCClientSockE@@@2@XZ
_TEXT	SEGMENT PARA USE32 PUBLIC 'CODE'
_TEXT	ENDS
;	COMDAT ??9const_iterator@?$_Tree@V?$_Tmap_traits@KPAVCClientSockE@@U?$less@K@std@@V?$allocator@U?$pair@$$CBKPAVCClientSockE@@@std@@@3@$0A@@std@@@std@@QBE_NABV012@@Z
_TEXT	SEGMENT PARA USE32 PUBLIC 'CODE'
_TEXT	ENDS
;	COMDAT ?end@?$_Tree@V?$_Tmap_traits@KP8CDPCoreClient@@AEXAAVCAr@@KKK@ZU?$less@K@std@@V?$allocator@U?$pair@$$CBKP8CDPCoreClient@@AEXAAVCAr@@KKK@Z@std@@@4@$0A@@std@@@std@@QAE?AViterator@12@XZ
_TEXT	SEGMENT PARA USE32 PUBLIC 'CODE'
_TEXT	ENDS
;	COMDAT ?find@?$_Tree@V?$_Tmap_traits@KP8CDPCoreClient@@AEXAAVCAr@@KKK@ZU?$less@K@std@@V?$allocator@U?$pair@$$CBKP8CDPCoreClient@@AEXAAVCAr@@KKK@Z@std@@@4@$0A@@std@@@std@@QAE?AViterator@12@ABK@Z
_TEXT	SEGMENT PARA USE32 PUBLIC 'CODE'
_TEXT	ENDS
;	COMDAT ??Citerator@?$_Tree@V?$_Tmap_traits@KP8CDPCoreClient@@AEXAAVCAr@@KKK@ZU?$less@K@std@@V?$allocator@U?$pair@$$CBKP8CDPCoreClient@@AEXAAVCAr@@KKK@Z@std@@@4@$0A@@std@@@std@@QBEPAU?$pair@$$CBKP8CDPCoreClient@@AEXAAVCAr@@KKK@Z@2@XZ
_TEXT	SEGMENT PARA USE32 PUBLIC 'CODE'
_TEXT	ENDS
;	COMDAT ??9const_iterator@?$_Tree@V?$_Tmap_traits@KP8CDPCoreClient@@AEXAAVCAr@@KKK@ZU?$less@K@std@@V?$allocator@U?$pair@$$CBKP8CDPCoreClient@@AEXAAVCAr@@KKK@Z@std@@@4@$0A@@std@@@std@@QBE_NABV012@@Z
_TEXT	SEGMENT PARA USE32 PUBLIC 'CODE'
_TEXT	ENDS
;	COMDAT ?compare@?$basic_string@DU?$char_traits@D@std@@V?$allocator@D@2@@std@@QBEHIIPBDI@Z
_TEXT	SEGMENT PARA USE32 PUBLIC 'CODE'
_TEXT	ENDS
;	COMDAT ??0?$allocator@V?$basic_string@DU?$char_traits@D@std@@V?$allocator@D@2@@std@@@std@@QAE@XZ
_TEXT	SEGMENT PARA USE32 PUBLIC 'CODE'
_TEXT	ENDS
;	COMDAT ?insert@?$_Tree@V?$_Tmap_traits@KPAVCCtrl@@U?$less@K@std@@V?$allocator@U?$pair@$$CBKPAVCCtrl@@@std@@@3@$0A@@std@@@std@@QAE?AViterator@12@V312@ABU?$pair@$$CBKPAVCCtrl@@@2@@Z
_TEXT	SEGMENT PARA USE32 PUBLIC 'CODE'
_TEXT	ENDS
;	COMDAT ??0?$pair@$$CBKPAVCCtrl@@@std@@QAE@ABKABQAVCCtrl@@@Z
_TEXT	SEGMENT PARA USE32 PUBLIC 'CODE'
_TEXT	ENDS
;	COMDAT ?_Tidy@?$deque@PAUtagACTMSG@@V?$allocator@PAUtagACTMSG@@@std@@@std@@IAEXXZ
_TEXT	SEGMENT PARA USE32 PUBLIC 'CODE'
_TEXT	ENDS
;	COMDAT ??0?$_Deque_val@PAUtagACTMSG@@V?$allocator@PAUtagACTMSG@@@std@@@std@@IAE@V?$allocator@PAUtagACTMSG@@@1@@Z
_TEXT	SEGMENT PARA USE32 PUBLIC 'CODE'
_TEXT	ENDS
;	COMDAT ??0?$allocator@PAUtagACTMSG@@@std@@QAE@XZ
_TEXT	SEGMENT PARA USE32 PUBLIC 'CODE'
_TEXT	ENDS
;	COMDAT ?_Tidy@?$deque@PAUtagMAGICATKMSG@@V?$allocator@PAUtagMAGICATKMSG@@@std@@@std@@IAEXXZ
_TEXT	SEGMENT PARA USE32 PUBLIC 'CODE'
_TEXT	ENDS
;	COMDAT ??0?$_Deque_val@PAUtagMAGICATKMSG@@V?$allocator@PAUtagMAGICATKMSG@@@std@@@std@@IAE@V?$allocator@PAUtagMAGICATKMSG@@@1@@Z
_TEXT	SEGMENT PARA USE32 PUBLIC 'CODE'
_TEXT	ENDS
;	COMDAT ??0?$allocator@PAUtagMAGICATKMSG@@@std@@QAE@XZ
_TEXT	SEGMENT PARA USE32 PUBLIC 'CODE'
_TEXT	ENDS
;	COMDAT ??0iterator@?$deque@PAUtagACTMSG@@V?$allocator@PAUtagACTMSG@@@std@@@std@@QAE@IPBV12@@Z
_TEXT	SEGMENT PARA USE32 PUBLIC 'CODE'
_TEXT	ENDS
;	COMDAT ??Dconst_iterator@?$deque@PAUtagACTMSG@@V?$allocator@PAUtagACTMSG@@@std@@@std@@QBEABQAUtagACTMSG@@XZ
_TEXT	SEGMENT PARA USE32 PUBLIC 'CODE'
_TEXT	ENDS
;	COMDAT ??8const_iterator@?$deque@PAUtagACTMSG@@V?$allocator@PAUtagACTMSG@@@std@@@std@@QBE_NABV012@@Z
_TEXT	SEGMENT PARA USE32 PUBLIC 'CODE'
_TEXT	ENDS
;	COMDAT ??0iterator@?$deque@PAUtagMAGICATKMSG@@V?$allocator@PAUtagMAGICATKMSG@@@std@@@std@@QAE@IPBV12@@Z
_TEXT	SEGMENT PARA USE32 PUBLIC 'CODE'
_TEXT	ENDS
;	COMDAT ??Dconst_iterator@?$deque@PAUtagMAGICATKMSG@@V?$allocator@PAUtagMAGICATKMSG@@@std@@@std@@QBEABQAUtagMAGICATKMSG@@XZ
_TEXT	SEGMENT PARA USE32 PUBLIC 'CODE'
_TEXT	ENDS
;	COMDAT ??8const_iterator@?$deque@PAUtagMAGICATKMSG@@V?$allocator@PAUtagMAGICATKMSG@@@std@@@std@@QBE_NABV012@@Z
_TEXT	SEGMENT PARA USE32 PUBLIC 'CODE'
_TEXT	ENDS
;	COMDAT ?erase@?$_Tree@V?$_Tmap_traits@KU_Friend@@U?$less@K@std@@V?$allocator@U?$pair@$$CBKU_Friend@@@std@@@3@$0A@@std@@@std@@QAE?AViterator@12@V312@0@Z
_TEXT	SEGMENT PARA USE32 PUBLIC 'CODE'
_TEXT	ENDS
;	COMDAT ?equal_range@?$_Tree@V?$_Tmap_traits@KU_Friend@@U?$less@K@std@@V?$allocator@U?$pair@$$CBKU_Friend@@@std@@@3@$0A@@std@@@std@@QAE?AU?$pair@Viterator@?$_Tree@V?$_Tmap_traits@KU_Friend@@U?$less@K@std@@V?$allocator@U?$pair@$$CBKU_Friend@@@std@@@3@$0A@@std@@@std@@V123@@2@ABK@Z
_TEXT	SEGMENT PARA USE32 PUBLIC 'CODE'
_TEXT	ENDS
;	COMDAT ?begin@?$vector@PAU__JOINPLAYER@CGuildCombat@@V?$allocator@PAU__JOINPLAYER@CGuildCombat@@@std@@@std@@QAE?AViterator@12@XZ
_TEXT	SEGMENT PARA USE32 PUBLIC 'CODE'
_TEXT	ENDS
;	COMDAT ?_Tidy@?$vector@PAU__JOINPLAYER@CGuildCombat@@V?$allocator@PAU__JOINPLAYER@CGuildCombat@@@std@@@std@@IAEXXZ
_TEXT	SEGMENT PARA USE32 PUBLIC 'CODE'
_TEXT	ENDS
;	COMDAT ?_Nextnode@?$list@PAU__JOINPLAYER@CGuildCombat@@V?$allocator@PAU__JOINPLAYER@CGuildCombat@@@std@@@std@@KAAAPAU_Node@?$_List_nod@PAU__JOINPLAYER@CGuildCombat@@V?$allocator@PAU__JOINPLAYER@CGuildCombat@@@std@@@2@PAU342@@Z
_TEXT	SEGMENT PARA USE32 PUBLIC 'CODE'
_TEXT	ENDS
;	COMDAT ?_Prevnode@?$list@PAU__JOINPLAYER@CGuildCombat@@V?$allocator@PAU__JOINPLAYER@CGuildCombat@@@std@@@std@@KAAAPAU_Node@?$_List_nod@PAU__JOINPLAYER@CGuildCombat@@V?$allocator@PAU__JOINPLAYER@CGuildCombat@@@std@@@2@PAU342@@Z
_TEXT	SEGMENT PARA USE32 PUBLIC 'CODE'
_TEXT	ENDS
;	COMDAT ?deallocate@?$allocator@U_Node@?$_List_nod@PAU__JOINPLAYER@CGuildCombat@@V?$allocator@PAU__JOINPLAYER@CGuildCombat@@@std@@@std@@@std@@QAEXPAU_Node@?$_List_nod@PAU__JOINPLAYER@CGuildCombat@@V?$allocator@PAU__JOINPLAYER@CGuildCombat@@@std@@@2@I@Z
_TEXT	SEGMENT PARA USE32 PUBLIC 'CODE'
_TEXT	ENDS
;	COMDAT ?destroy@?$allocator@U_Node@?$_List_nod@PAU__JOINPLAYER@CGuildCombat@@V?$allocator@PAU__JOINPLAYER@CGuildCombat@@@std@@@std@@@std@@QAEXPAU_Node@?$_List_nod@PAU__JOINPLAYER@CGuildCombat@@V?$allocator@PAU__JOINPLAYER@CGuildCombat@@@std@@@2@@Z
_TEXT	SEGMENT PARA USE32 PUBLIC 'CODE'
_TEXT	ENDS
;	COMDAT ?_Buy@?$vector@U__SECRETROOM_MONSTER@@V?$allocator@U__SECRETROOM_MONSTER@@@std@@@std@@IAE_NI@Z
_TEXT	SEGMENT PARA USE32 PUBLIC 'CODE'
_TEXT	ENDS
;	COMDAT ?_Tidy@?$vector@U__SECRETROOM_MONSTER@@V?$allocator@U__SECRETROOM_MONSTER@@@std@@@std@@IAEXXZ
_TEXT	SEGMENT PARA USE32 PUBLIC 'CODE'
_TEXT	ENDS
;	COMDAT ??0?$_Vector_val@U__SECRETROOM_MONSTER@@V?$allocator@U__SECRETROOM_MONSTER@@@std@@@std@@IAE@V?$allocator@U__SECRETROOM_MONSTER@@@1@@Z
_TEXT	SEGMENT PARA USE32 PUBLIC 'CODE'
_TEXT	ENDS
;	COMDAT ??0?$allocator@U__SECRETROOM_MONSTER@@@std@@QAE@XZ
_TEXT	SEGMENT PARA USE32 PUBLIC 'CODE'
_TEXT	ENDS
;	COMDAT ?capacity@?$vector@V?$basic_string@DU?$char_traits@D@std@@V?$allocator@D@2@@std@@V?$allocator@V?$basic_string@DU?$char_traits@D@std@@V?$allocator@D@2@@std@@@2@@std@@QBEIXZ
_TEXT	SEGMENT PARA USE32 PUBLIC 'CODE'
_TEXT	ENDS
;	COMDAT ?begin@?$vector@V?$basic_string@DU?$char_traits@D@std@@V?$allocator@D@2@@std@@V?$allocator@V?$basic_string@DU?$char_traits@D@std@@V?$allocator@D@2@@std@@@2@@std@@QAE?AViterator@12@XZ
_TEXT	SEGMENT PARA USE32 PUBLIC 'CODE'
_TEXT	ENDS
;	COMDAT ?end@?$vector@V?$basic_string@DU?$char_traits@D@std@@V?$allocator@D@2@@std@@V?$allocator@V?$basic_string@DU?$char_traits@D@std@@V?$allocator@D@2@@std@@@2@@std@@QAE?AViterator@12@XZ
_TEXT	SEGMENT PARA USE32 PUBLIC 'CODE'
_TEXT	ENDS
;	COMDAT ?insert@?$vector@V?$basic_string@DU?$char_traits@D@std@@V?$allocator@D@2@@std@@V?$allocator@V?$basic_string@DU?$char_traits@D@std@@V?$allocator@D@2@@std@@@2@@std@@QAE?AViterator@12@V312@ABV?$basic_string@DU?$char_traits@D@std@@V?$allocator@D@2@@2@@Z
_TEXT	SEGMENT PARA USE32 PUBLIC 'CODE'
_TEXT	ENDS
;	COMDAT ?_Buy@?$vector@V?$basic_string@DU?$char_traits@D@std@@V?$allocator@D@2@@std@@V?$allocator@V?$basic_string@DU?$char_traits@D@std@@V?$allocator@D@2@@std@@@2@@std@@IAE_NI@Z
_TEXT	SEGMENT PARA USE32 PUBLIC 'CODE'
_TEXT	ENDS
;	COMDAT ?_Tidy@?$vector@V?$basic_string@DU?$char_traits@D@std@@V?$allocator@D@2@@std@@V?$allocator@V?$basic_string@DU?$char_traits@D@std@@V?$allocator@D@2@@std@@@2@@std@@IAEXXZ
_TEXT	SEGMENT PARA USE32 PUBLIC 'CODE'
_TEXT	ENDS
;	COMDAT ?_Ufill@?$vector@V?$basic_string@DU?$char_traits@D@std@@V?$allocator@D@2@@std@@V?$allocator@V?$basic_string@DU?$char_traits@D@std@@V?$allocator@D@2@@std@@@2@@std@@IAEPAV?$basic_string@DU?$char_traits@D@std@@V?$allocator@D@2@@2@PAV32@IABV32@@Z
_TEXT	SEGMENT PARA USE32 PUBLIC 'CODE'
_TEXT	ENDS
;	COMDAT ??0?$_Vector_val@V?$basic_string@DU?$char_traits@D@std@@V?$allocator@D@2@@std@@V?$allocator@V?$basic_string@DU?$char_traits@D@std@@V?$allocator@D@2@@std@@@2@@std@@IAE@V?$allocator@V?$basic_string@DU?$char_traits@D@std@@V?$allocator@D@2@@std@@@1@@Z
_TEXT	SEGMENT PARA USE32 PUBLIC 'CODE'
_TEXT	ENDS
;	COMDAT ?capacity@?$vector@UMINIGMAME_PRIZE_LIST@CRainbowRaceMng@@V?$allocator@UMINIGMAME_PRIZE_LIST@CRainbowRaceMng@@@std@@@std@@QBEIXZ
_TEXT	SEGMENT PARA USE32 PUBLIC 'CODE'
_TEXT	ENDS
;	COMDAT ?end@?$vector@UMINIGMAME_PRIZE_LIST@CRainbowRaceMng@@V?$allocator@UMINIGMAME_PRIZE_LIST@CRainbowRaceMng@@@std@@@std@@QAE?AViterator@12@XZ
_TEXT	SEGMENT PARA USE32 PUBLIC 'CODE'
_TEXT	ENDS
;	COMDAT ?size@?$vector@UMINIGMAME_PRIZE_LIST@CRainbowRaceMng@@V?$allocator@UMINIGMAME_PRIZE_LIST@CRainbowRaceMng@@@std@@@std@@QBEIXZ
_TEXT	SEGMENT PARA USE32 PUBLIC 'CODE'
_TEXT	ENDS
;	COMDAT ?insert@?$vector@UMINIGMAME_PRIZE_LIST@CRainbowRaceMng@@V?$allocator@UMINIGMAME_PRIZE_LIST@CRainbowRaceMng@@@std@@@std@@QAE?AViterator@12@V312@ABUMINIGMAME_PRIZE_LIST@CRainbowRaceMng@@@Z
_TEXT	SEGMENT PARA USE32 PUBLIC 'CODE'
_TEXT	ENDS
;	COMDAT ?_Ufill@?$vector@UMINIGMAME_PRIZE_LIST@CRainbowRaceMng@@V?$allocator@UMINIGMAME_PRIZE_LIST@CRainbowRaceMng@@@std@@@std@@IAEPAUMINIGMAME_PRIZE_LIST@CRainbowRaceMng@@PAU34@IABU34@@Z
_TEXT	SEGMENT PARA USE32 PUBLIC 'CODE'
_TEXT	ENDS
;	COMDAT ?begin@?$vector@PAVCMiniGameBase@@V?$allocator@PAVCMiniGameBase@@@std@@@std@@QAE?AViterator@12@XZ
_TEXT	SEGMENT PARA USE32 PUBLIC 'CODE'
_TEXT	ENDS
;	COMDAT ?begin@?$vector@UGuildHouse_Furniture_Info@CGuildHouseBase@@V?$allocator@UGuildHouse_Furniture_Info@CGuildHouseBase@@@std@@@std@@QAE?AViterator@12@XZ
_TEXT	SEGMENT PARA USE32 PUBLIC 'CODE'
_TEXT	ENDS
;	COMDAT ?_Isnil@?$_Tree@V?$_Tmap_traits@KPAVCGuildHouseBase@@U?$less@K@std@@V?$allocator@U?$pair@$$CBKPAVCGuildHouseBase@@@std@@@3@$0A@@std@@@std@@KAAADPAU_Node@?$_Tree_nod@V?$_Tmap_traits@KPAVCGuildHouseBase@@U?$less@K@std@@V?$allocator@U?$pair@$$CBKPAVCGuildHouseBase@@@std@@@3@$0A@@std@@@2@@Z
_TEXT	SEGMENT PARA USE32 PUBLIC 'CODE'
_TEXT	ENDS
;	COMDAT ?_Key@?$_Tree@V?$_Tmap_traits@KPAVCGuildHouseBase@@U?$less@K@std@@V?$allocator@U?$pair@$$CBKPAVCGuildHouseBase@@@std@@@3@$0A@@std@@@std@@KAABKPAU_Node@?$_Tree_nod@V?$_Tmap_traits@KPAVCGuildHouseBase@@U?$less@K@std@@V?$allocator@U?$pair@$$CBKPAVCGuildHouseBase@@@std@@@3@$0A@@std@@@2@@Z
_TEXT	SEGMENT PARA USE32 PUBLIC 'CODE'
_TEXT	ENDS
;	COMDAT ?_Left@?$_Tree@V?$_Tmap_traits@KPAVCGuildHouseBase@@U?$less@K@std@@V?$allocator@U?$pair@$$CBKPAVCGuildHouseBase@@@std@@@3@$0A@@std@@@std@@KAAAPAU_Node@?$_Tree_nod@V?$_Tmap_traits@KPAVCGuildHouseBase@@U?$less@K@std@@V?$allocator@U?$pair@$$CBKPAVCGuildHouseBase@@@std@@@3@$0A@@std@@@2@PAU342@@Z
_TEXT	SEGMENT PARA USE32 PUBLIC 'CODE'
_TEXT	ENDS
;	COMDAT ?_Right@?$_Tree@V?$_Tmap_traits@KPAVCGuildHouseBase@@U?$less@K@std@@V?$allocator@U?$pair@$$CBKPAVCGuildHouseBase@@@std@@@3@$0A@@std@@@std@@KAAAPAU_Node@?$_Tree_nod@V?$_Tmap_traits@KPAVCGuildHouseBase@@U?$less@K@std@@V?$allocator@U?$pair@$$CBKPAVCGuildHouseBase@@@std@@@3@$0A@@std@@@2@PAU342@@Z
_TEXT	SEGMENT PARA USE32 PUBLIC 'CODE'
_TEXT	ENDS
;	COMDAT ?begin@?$_Tree@V?$_Tmap_traits@KPAVCGuildHouseBase@@U?$less@K@std@@V?$allocator@U?$pair@$$CBKPAVCGuildHouseBase@@@std@@@3@$0A@@std@@@std@@QAE?AViterator@12@XZ
_TEXT	SEGMENT PARA USE32 PUBLIC 'CODE'
_TEXT	ENDS
;	COMDAT ?size@?$_Tree@V?$_Tmap_traits@KPAVCGuildHouseBase@@U?$less@K@std@@V?$allocator@U?$pair@$$CBKPAVCGuildHouseBase@@@std@@@3@$0A@@std@@@std@@QBEIXZ
_TEXT	SEGMENT PARA USE32 PUBLIC 'CODE'
_TEXT	ENDS
;	COMDAT ?_Insert@?$_Tree@V?$_Tmap_traits@KPAVCGuildHouseBase@@U?$less@K@std@@V?$allocator@U?$pair@$$CBKPAVCGuildHouseBase@@@std@@@3@$0A@@std@@@std@@IAE?AViterator@12@_NPAU_Node@?$_Tree_nod@V?$_Tmap_traits@KPAVCGuildHouseBase@@U?$less@K@std@@V?$allocator@U?$pair@$$CBKPAVCGuildHouseBase@@@std@@@3@$0A@@std@@@2@ABU?$pair@$$CBKPAVCGuildHouseBase@@@2@@Z
_TEXT	SEGMENT PARA USE32 PUBLIC 'CODE'
_TEXT	ENDS
;	COMDAT ?_Root@?$_Tree@V?$_Tmap_traits@KPAVCGuildHouseBase@@U?$less@K@std@@V?$allocator@U?$pair@$$CBKPAVCGuildHouseBase@@@std@@@3@$0A@@std@@@std@@IAEAAPAU_Node@?$_Tree_nod@V?$_Tmap_traits@KPAVCGuildHouseBase@@U?$less@K@std@@V?$allocator@U?$pair@$$CBKPAVCGuildHouseBase@@@std@@@3@$0A@@std@@@2@XZ
_TEXT	SEGMENT PARA USE32 PUBLIC 'CODE'
_TEXT	ENDS
;	COMDAT ?_Kfn@?$_Tmap_traits@KPAVCGuildHouseBase@@U?$less@K@std@@V?$allocator@U?$pair@$$CBKPAVCGuildHouseBase@@@std@@@3@$0A@@std@@SAABKABU?$pair@$$CBKPAVCGuildHouseBase@@@2@@Z
_TEXT	SEGMENT PARA USE32 PUBLIC 'CODE'
_TEXT	ENDS
;	COMDAT ??0?$pair@Viterator@?$_Tree@V?$_Tmap_traits@KPAVCGuildHouseBase@@U?$less@K@std@@V?$allocator@U?$pair@$$CBKPAVCGuildHouseBase@@@std@@@3@$0A@@std@@@std@@_N@std@@QAE@ABViterator@?$_Tree@V?$_Tmap_traits@KPAVCGuildHouseBase@@U?$less@K@std@@V?$allocator@U?$pair@$$CBKPAVCGuildHouseBase@@@std@@@3@$0A@@std@@@1@AB_N@Z
_TEXT	SEGMENT PARA USE32 PUBLIC 'CODE'
_TEXT	ENDS
;	COMDAT ??0iterator@?$_Tree@V?$_Tmap_traits@KPAVCGuildHouseBase@@U?$less@K@std@@V?$allocator@U?$pair@$$CBKPAVCGuildHouseBase@@@std@@@3@$0A@@std@@@std@@QAE@PAU_Node@?$_Tree_nod@V?$_Tmap_traits@KPAVCGuildHouseBase@@U?$less@K@std@@V?$allocator@U?$pair@$$CBKPAVCGuildHouseBase@@@std@@@3@$0A@@std@@@2@@Z
_TEXT	SEGMENT PARA USE32 PUBLIC 'CODE'
_TEXT	ENDS
;	COMDAT ??Fiterator@?$_Tree@V?$_Tmap_traits@KPAVCGuildHouseBase@@U?$less@K@std@@V?$allocator@U?$pair@$$CBKPAVCGuildHouseBase@@@std@@@3@$0A@@std@@@std@@QAEAAV012@XZ
_TEXT	SEGMENT PARA USE32 PUBLIC 'CODE'
_TEXT	ENDS
;	COMDAT ??8const_iterator@?$_Tree@V?$_Tmap_traits@KPAVCGuildHouseBase@@U?$less@K@std@@V?$allocator@U?$pair@$$CBKPAVCGuildHouseBase@@@std@@@3@$0A@@std@@@std@@QBE_NABV012@@Z
_TEXT	SEGMENT PARA USE32 PUBLIC 'CODE'
_TEXT	ENDS
;	COMDAT ?_Mynode@const_iterator@?$_Tree@V?$_Tmap_traits@KPAVCGuildHouseBase@@U?$less@K@std@@V?$allocator@U?$pair@$$CBKPAVCGuildHouseBase@@@std@@@3@$0A@@std@@@std@@QBEPAU_Node@?$_Tree_nod@V?$_Tmap_traits@KPAVCGuildHouseBase@@U?$less@K@std@@V?$allocator@U?$pair@$$CBKPAVCGuildHouseBase@@@std@@@3@$0A@@std@@@3@XZ
_TEXT	SEGMENT PARA USE32 PUBLIC 'CODE'
_TEXT	ENDS
;	COMDAT ?size@?$_Tree@V?$_Tmap_traits@KPAVCCampus@@U?$less@K@std@@V?$allocator@U?$pair@$$CBKPAVCCampus@@@std@@@3@$0A@@std@@@std@@QBEIXZ
_TEXT	SEGMENT PARA USE32 PUBLIC 'CODE'
_TEXT	ENDS
;	COMDAT ?erase@?$_Tree@V?$_Tmap_traits@KKU?$less@K@std@@V?$allocator@U?$pair@$$CBKK@std@@@2@$0A@@std@@@std@@QAE?AViterator@12@V312@0@Z
_TEXT	SEGMENT PARA USE32 PUBLIC 'CODE'
_TEXT	ENDS
;	COMDAT ?equal_range@?$_Tree@V?$_Tmap_traits@KKU?$less@K@std@@V?$allocator@U?$pair@$$CBKK@std@@@2@$0A@@std@@@std@@QAE?AU?$pair@Viterator@?$_Tree@V?$_Tmap_traits@KKU?$less@K@std@@V?$allocator@U?$pair@$$CBKK@std@@@2@$0A@@std@@@std@@V123@@2@ABK@Z
_TEXT	SEGMENT PARA USE32 PUBLIC 'CODE'
_TEXT	ENDS
;	COMDAT ?_Key@?$_Tree@V?$_Tmap_traits@KPAVCClientSock@@U?$less@K@std@@V?$allocator@U?$pair@$$CBKPAVCClientSock@@@std@@@3@$0A@@std@@@std@@KAABKPAU_Node@?$_Tree_nod@V?$_Tmap_traits@KPAVCClientSock@@U?$less@K@std@@V?$allocator@U?$pair@$$CBKPAVCClientSock@@@std@@@3@$0A@@std@@@2@@Z
_TEXT	SEGMENT PARA USE32 PUBLIC 'CODE'
_TEXT	ENDS
;	COMDAT ??0?$_Tree@V?$_Tmap_traits@KPAVCClientSock@@U?$less@K@std@@V?$allocator@U?$pair@$$CBKPAVCClientSock@@@std@@@3@$0A@@std@@@std@@QAE@ABU?$less@K@1@ABV?$allocator@U?$pair@$$CBKPAVCClientSock@@@std@@@1@@Z
_TEXT	SEGMENT PARA USE32 PUBLIC 'CODE'
_TEXT	ENDS
;	COMDAT ?lower_bound@?$_Tree@V?$_Tmap_traits@KPAVCClientSock@@U?$less@K@std@@V?$allocator@U?$pair@$$CBKPAVCClientSock@@@std@@@3@$0A@@std@@@std@@QAE?AViterator@12@ABK@Z
_TEXT	SEGMENT PARA USE32 PUBLIC 'CODE'
_TEXT	ENDS
;	COMDAT ?_Tidy@?$_Tree@V?$_Tmap_traits@KPAVCClientSock@@U?$less@K@std@@V?$allocator@U?$pair@$$CBKPAVCClientSock@@@std@@@3@$0A@@std@@@std@@IAEXXZ
_TEXT	SEGMENT PARA USE32 PUBLIC 'CODE'
_TEXT	ENDS
;	COMDAT ??0?$allocator@U?$pair@$$CBKPAVCClientSock@@@std@@@std@@QAE@XZ
_TEXT	SEGMENT PARA USE32 PUBLIC 'CODE'
_TEXT	ENDS
;	COMDAT ??0iterator@?$_Tree@V?$_Tmap_traits@KPAVCClientSock@@U?$less@K@std@@V?$allocator@U?$pair@$$CBKPAVCClientSock@@@std@@@3@$0A@@std@@@std@@QAE@PAU_Node@?$_Tree_nod@V?$_Tmap_traits@KPAVCClientSock@@U?$less@K@std@@V?$allocator@U?$pair@$$CBKPAVCClientSock@@@std@@@3@$0A@@std@@@2@@Z
_TEXT	SEGMENT PARA USE32 PUBLIC 'CODE'
_TEXT	ENDS
;	COMDAT ??Diterator@?$_Tree@V?$_Tmap_traits@KPAVCClientSock@@U?$less@K@std@@V?$allocator@U?$pair@$$CBKPAVCClientSock@@@std@@@3@$0A@@std@@@std@@QBEAAU?$pair@$$CBKPAVCClientSock@@@2@XZ
_TEXT	SEGMENT PARA USE32 PUBLIC 'CODE'
_TEXT	ENDS
;	COMDAT ??8const_iterator@?$_Tree@V?$_Tmap_traits@KPAVCClientSock@@U?$less@K@std@@V?$allocator@U?$pair@$$CBKPAVCClientSock@@@std@@@3@$0A@@std@@@std@@QBE_NABV012@@Z
_TEXT	SEGMENT PARA USE32 PUBLIC 'CODE'
_TEXT	ENDS
;	COMDAT ?_Mynode@const_iterator@?$_Tree@V?$_Tmap_traits@KPAVCClientSock@@U?$less@K@std@@V?$allocator@U?$pair@$$CBKPAVCClientSock@@@std@@@3@$0A@@std@@@std@@QBEPAU_Node@?$_Tree_nod@V?$_Tmap_traits@KPAVCClientSock@@U?$less@K@std@@V?$allocator@U?$pair@$$CBKPAVCClientSock@@@std@@@3@$0A@@std@@@3@XZ
_TEXT	SEGMENT PARA USE32 PUBLIC 'CODE'
_TEXT	ENDS
;	COMDAT ?_Key@?$_Tree@V?$_Tmap_traits@KPAVCClientSockE@@U?$less@K@std@@V?$allocator@U?$pair@$$CBKPAVCClientSockE@@@std@@@3@$0A@@std@@@std@@KAABKPAU_Node@?$_Tree_nod@V?$_Tmap_traits@KPAVCClientSockE@@U?$less@K@std@@V?$allocator@U?$pair@$$CBKPAVCClientSockE@@@std@@@3@$0A@@std@@@2@@Z
_TEXT	SEGMENT PARA USE32 PUBLIC 'CODE'
_TEXT	ENDS
;	COMDAT ??0?$_Tree@V?$_Tmap_traits@KPAVCClientSockE@@U?$less@K@std@@V?$allocator@U?$pair@$$CBKPAVCClientSockE@@@std@@@3@$0A@@std@@@std@@QAE@ABU?$less@K@1@ABV?$allocator@U?$pair@$$CBKPAVCClientSockE@@@std@@@1@@Z
_TEXT	SEGMENT PARA USE32 PUBLIC 'CODE'
_TEXT	ENDS
;	COMDAT ?lower_bound@?$_Tree@V?$_Tmap_traits@KPAVCClientSockE@@U?$less@K@std@@V?$allocator@U?$pair@$$CBKPAVCClientSockE@@@std@@@3@$0A@@std@@@std@@QAE?AViterator@12@ABK@Z
_TEXT	SEGMENT PARA USE32 PUBLIC 'CODE'
_TEXT	ENDS
;	COMDAT ?_Tidy@?$_Tree@V?$_Tmap_traits@KPAVCClientSockE@@U?$less@K@std@@V?$allocator@U?$pair@$$CBKPAVCClientSockE@@@std@@@3@$0A@@std@@@std@@IAEXXZ
_TEXT	SEGMENT PARA USE32 PUBLIC 'CODE'
_TEXT	ENDS
;	COMDAT ??0?$allocator@U?$pair@$$CBKPAVCClientSockE@@@std@@@std@@QAE@XZ
_TEXT	SEGMENT PARA USE32 PUBLIC 'CODE'
_TEXT	ENDS
;	COMDAT ??0iterator@?$_Tree@V?$_Tmap_traits@KPAVCClientSockE@@U?$less@K@std@@V?$allocator@U?$pair@$$CBKPAVCClientSockE@@@std@@@3@$0A@@std@@@std@@QAE@PAU_Node@?$_Tree_nod@V?$_Tmap_traits@KPAVCClientSockE@@U?$less@K@std@@V?$allocator@U?$pair@$$CBKPAVCClientSockE@@@std@@@3@$0A@@std@@@2@@Z
_TEXT	SEGMENT PARA USE32 PUBLIC 'CODE'
_TEXT	ENDS
;	COMDAT ??Diterator@?$_Tree@V?$_Tmap_traits@KPAVCClientSockE@@U?$less@K@std@@V?$allocator@U?$pair@$$CBKPAVCClientSockE@@@std@@@3@$0A@@std@@@std@@QBEAAU?$pair@$$CBKPAVCClientSockE@@@2@XZ
_TEXT	SEGMENT PARA USE32 PUBLIC 'CODE'
_TEXT	ENDS
;	COMDAT ??8const_iterator@?$_Tree@V?$_Tmap_traits@KPAVCClientSockE@@U?$less@K@std@@V?$allocator@U?$pair@$$CBKPAVCClientSockE@@@std@@@3@$0A@@std@@@std@@QBE_NABV012@@Z
_TEXT	SEGMENT PARA USE32 PUBLIC 'CODE'
_TEXT	ENDS
;	COMDAT ?_Mynode@const_iterator@?$_Tree@V?$_Tmap_traits@KPAVCClientSockE@@U?$less@K@std@@V?$allocator@U?$pair@$$CBKPAVCClientSockE@@@std@@@3@$0A@@std@@@std@@QBEPAU_Node@?$_Tree_nod@V?$_Tmap_traits@KPAVCClientSockE@@U?$less@K@std@@V?$allocator@U?$pair@$$CBKPAVCClientSockE@@@std@@@3@$0A@@std@@@3@XZ
_TEXT	SEGMENT PARA USE32 PUBLIC 'CODE'
_TEXT	ENDS
;	COMDAT ?_Key@?$_Tree@V?$_Tmap_traits@KP8CDPCoreClient@@AEXAAVCAr@@KKK@ZU?$less@K@std@@V?$allocator@U?$pair@$$CBKP8CDPCoreClient@@AEXAAVCAr@@KKK@Z@std@@@4@$0A@@std@@@std@@KAABKPAU_Node@?$_Tree_nod@V?$_Tmap_traits@KP8CDPCoreClient@@AEXAAVCAr@@KKK@ZU?$less@K@std@@V?$allocator@U?$pair@$$CBKP8CDPCoreClient@@AEXAAVCAr@@KKK@Z@std@@@4@$0A@@std@@@2@@Z
_TEXT	SEGMENT PARA USE32 PUBLIC 'CODE'
_TEXT	ENDS
;	COMDAT ?lower_bound@?$_Tree@V?$_Tmap_traits@KP8CDPCoreClient@@AEXAAVCAr@@KKK@ZU?$less@K@std@@V?$allocator@U?$pair@$$CBKP8CDPCoreClient@@AEXAAVCAr@@KKK@Z@std@@@4@$0A@@std@@@std@@QAE?AViterator@12@ABK@Z
_TEXT	SEGMENT PARA USE32 PUBLIC 'CODE'
_TEXT	ENDS
;	COMDAT ??0iterator@?$_Tree@V?$_Tmap_traits@KP8CDPCoreClient@@AEXAAVCAr@@KKK@ZU?$less@K@std@@V?$allocator@U?$pair@$$CBKP8CDPCoreClient@@AEXAAVCAr@@KKK@Z@std@@@4@$0A@@std@@@std@@QAE@PAU_Node@?$_Tree_nod@V?$_Tmap_traits@KP8CDPCoreClient@@AEXAAVCAr@@KKK@ZU?$less@K@std@@V?$allocator@U?$pair@$$CBKP8CDPCoreClient@@AEXAAVCAr@@KKK@Z@std@@@4@$0A@@std@@@2@@Z
_TEXT	SEGMENT PARA USE32 PUBLIC 'CODE'
_TEXT	ENDS
;	COMDAT ??Diterator@?$_Tree@V?$_Tmap_traits@KP8CDPCoreClient@@AEXAAVCAr@@KKK@ZU?$less@K@std@@V?$allocator@U?$pair@$$CBKP8CDPCoreClient@@AEXAAVCAr@@KKK@Z@std@@@4@$0A@@std@@@std@@QBEAAU?$pair@$$CBKP8CDPCoreClient@@AEXAAVCAr@@KKK@Z@2@XZ
_TEXT	SEGMENT PARA USE32 PUBLIC 'CODE'
_TEXT	ENDS
;	COMDAT ??8const_iterator@?$_Tree@V?$_Tmap_traits@KP8CDPCoreClient@@AEXAAVCAr@@KKK@ZU?$less@K@std@@V?$allocator@U?$pair@$$CBKP8CDPCoreClient@@AEXAAVCAr@@KKK@Z@std@@@4@$0A@@std@@@std@@QBE_NABV012@@Z
_TEXT	SEGMENT PARA USE32 PUBLIC 'CODE'
_TEXT	ENDS
;	COMDAT ?_Mynode@const_iterator@?$_Tree@V?$_Tmap_traits@KP8CDPCoreClient@@AEXAAVCAr@@KKK@ZU?$less@K@std@@V?$allocator@U?$pair@$$CBKP8CDPCoreClient@@AEXAAVCAr@@KKK@Z@std@@@4@$0A@@std@@@std@@QBEPAU_Node@?$_Tree_nod@V?$_Tmap_traits@KP8CDPCoreClient@@AEXAAVCAr@@KKK@ZU?$less@K@std@@V?$allocator@U?$pair@$$CBKP8CDPCoreClient@@AEXAAVCAr@@KKK@Z@std@@@4@$0A@@std@@@3@XZ
_TEXT	SEGMENT PARA USE32 PUBLIC 'CODE'
_TEXT	ENDS
;	COMDAT ??Diterator@?$vector@PAU__JOINPLAYER@CGuildCombat@@V?$allocator@PAU__JOINPLAYER@CGuildCombat@@@std@@@std@@QBEAAPAU__JOINPLAYER@CGuildCombat@@XZ
_TEXT	SEGMENT PARA USE32 PUBLIC 'CODE'
_TEXT	ENDS
;	COMDAT ??Hiterator@?$vector@PAU__JOINPLAYER@CGuildCombat@@V?$allocator@PAU__JOINPLAYER@CGuildCombat@@@std@@@std@@QBE?AV012@H@Z
_TEXT	SEGMENT PARA USE32 PUBLIC 'CODE'
_TEXT	ENDS
;	COMDAT ??Diterator@?$vector@V?$basic_string@DU?$char_traits@D@std@@V?$allocator@D@2@@std@@V?$allocator@V?$basic_string@DU?$char_traits@D@std@@V?$allocator@D@2@@std@@@2@@std@@QBEAAV?$basic_string@DU?$char_traits@D@std@@V?$allocator@D@2@@2@XZ
_TEXT	SEGMENT PARA USE32 PUBLIC 'CODE'
_TEXT	ENDS
;	COMDAT ??Hiterator@?$vector@V?$basic_string@DU?$char_traits@D@std@@V?$allocator@D@2@@std@@V?$allocator@V?$basic_string@DU?$char_traits@D@std@@V?$allocator@D@2@@std@@@2@@std@@QBE?AV012@H@Z
_TEXT	SEGMENT PARA USE32 PUBLIC 'CODE'
_TEXT	ENDS
;	COMDAT ??Diterator@?$vector@PAVCMiniGameBase@@V?$allocator@PAVCMiniGameBase@@@std@@@std@@QBEAAPAVCMiniGameBase@@XZ
_TEXT	SEGMENT PARA USE32 PUBLIC 'CODE'
_TEXT	ENDS
;	COMDAT ??Hiterator@?$vector@PAVCMiniGameBase@@V?$allocator@PAVCMiniGameBase@@@std@@@std@@QBE?AV012@H@Z
_TEXT	SEGMENT PARA USE32 PUBLIC 'CODE'
_TEXT	ENDS
;	COMDAT ??Diterator@?$vector@UGuildHouse_Furniture_Info@CGuildHouseBase@@V?$allocator@UGuildHouse_Furniture_Info@CGuildHouseBase@@@std@@@std@@QBEAAUGuildHouse_Furniture_Info@CGuildHouseBase@@XZ
_TEXT	SEGMENT PARA USE32 PUBLIC 'CODE'
_TEXT	ENDS
;	COMDAT ??Hiterator@?$vector@UGuildHouse_Furniture_Info@CGuildHouseBase@@V?$allocator@UGuildHouse_Furniture_Info@CGuildHouseBase@@@std@@@std@@QBE?AV012@H@Z
_TEXT	SEGMENT PARA USE32 PUBLIC 'CODE'
_TEXT	ENDS
;	COMDAT ??0?$allocator@V?$basic_string@DU?$char_traits@D@std@@V?$allocator@D@2@@std@@@std@@QAE@ABV01@@Z
_TEXT	SEGMENT PARA USE32 PUBLIC 'CODE'
_TEXT	ENDS
;	COMDAT ?deallocate@?$allocator@V?$basic_string@DU?$char_traits@D@std@@V?$allocator@D@2@@std@@@std@@QAEXPAV?$basic_string@DU?$char_traits@D@std@@V?$allocator@D@2@@2@I@Z
_TEXT	SEGMENT PARA USE32 PUBLIC 'CODE'
_TEXT	ENDS
;	COMDAT ?allocate@?$allocator@V?$basic_string@DU?$char_traits@D@std@@V?$allocator@D@2@@std@@@std@@QAEPAV?$basic_string@DU?$char_traits@D@std@@V?$allocator@D@2@@2@I@Z
_TEXT	SEGMENT PARA USE32 PUBLIC 'CODE'
_TEXT	ENDS
;	COMDAT ?size@?$_Tree@V?$_Tmap_traits@KPAVCCtrl@@U?$less@K@std@@V?$allocator@U?$pair@$$CBKPAVCCtrl@@@std@@@3@$0A@@std@@@std@@QBEIXZ
_TEXT	SEGMENT PARA USE32 PUBLIC 'CODE'
_TEXT	ENDS
;	COMDAT ??0iterator@?$_Tree@V?$_Tmap_traits@KPAVCCtrl@@U?$less@K@std@@V?$allocator@U?$pair@$$CBKPAVCCtrl@@@std@@@3@$0A@@std@@@std@@QAE@XZ
_TEXT	SEGMENT PARA USE32 PUBLIC 'CODE'
_TEXT	ENDS
;	COMDAT ?pop_back@?$deque@PAUtagACTMSG@@V?$allocator@PAUtagACTMSG@@@std@@@std@@QAEXXZ
_TEXT	SEGMENT PARA USE32 PUBLIC 'CODE'
_TEXT	ENDS
;	COMDAT ??0?$_Deque_map@PAUtagACTMSG@@V?$allocator@PAUtagACTMSG@@@std@@@std@@IAE@V?$allocator@PAUtagACTMSG@@@1@@Z
_TEXT	SEGMENT PARA USE32 PUBLIC 'CODE'
_TEXT	ENDS
;	COMDAT ??0?$allocator@PAUtagACTMSG@@@std@@QAE@ABV01@@Z
_TEXT	SEGMENT PARA USE32 PUBLIC 'CODE'
_TEXT	ENDS
;	COMDAT ?deallocate@?$allocator@PAUtagACTMSG@@@std@@QAEXPAPAUtagACTMSG@@I@Z
_TEXT	SEGMENT PARA USE32 PUBLIC 'CODE'
_TEXT	ENDS
;	COMDAT ?deallocate@?$allocator@PAPAUtagACTMSG@@@std@@QAEXPAPAPAUtagACTMSG@@I@Z
_TEXT	SEGMENT PARA USE32 PUBLIC 'CODE'
_TEXT	ENDS
;	COMDAT ?destroy@?$allocator@PAPAUtagACTMSG@@@std@@QAEXPAPAPAUtagACTMSG@@@Z
_TEXT	SEGMENT PARA USE32 PUBLIC 'CODE'
_TEXT	ENDS
;	COMDAT ?pop_back@?$deque@PAUtagMAGICATKMSG@@V?$allocator@PAUtagMAGICATKMSG@@@std@@@std@@QAEXXZ
_TEXT	SEGMENT PARA USE32 PUBLIC 'CODE'
_TEXT	ENDS
;	COMDAT ??0?$_Deque_map@PAUtagMAGICATKMSG@@V?$allocator@PAUtagMAGICATKMSG@@@std@@@std@@IAE@V?$allocator@PAUtagMAGICATKMSG@@@1@@Z
_TEXT	SEGMENT PARA USE32 PUBLIC 'CODE'
_TEXT	ENDS
;	COMDAT ??0?$allocator@PAUtagMAGICATKMSG@@@std@@QAE@ABV01@@Z
_TEXT	SEGMENT PARA USE32 PUBLIC 'CODE'
_TEXT	ENDS
;	COMDAT ?deallocate@?$allocator@PAUtagMAGICATKMSG@@@std@@QAEXPAPAUtagMAGICATKMSG@@I@Z
_TEXT	SEGMENT PARA USE32 PUBLIC 'CODE'
_TEXT	ENDS
;	COMDAT ?deallocate@?$allocator@PAPAUtagMAGICATKMSG@@@std@@QAEXPAPAPAUtagMAGICATKMSG@@I@Z
_TEXT	SEGMENT PARA USE32 PUBLIC 'CODE'
_TEXT	ENDS
;	COMDAT ?destroy@?$allocator@PAPAUtagMAGICATKMSG@@@std@@QAEXPAPAPAUtagMAGICATKMSG@@@Z
_TEXT	SEGMENT PARA USE32 PUBLIC 'CODE'
_TEXT	ENDS
;	COMDAT ??0const_iterator@?$deque@PAUtagACTMSG@@V?$allocator@PAUtagACTMSG@@@std@@@std@@QAE@IPBV12@@Z
_TEXT	SEGMENT PARA USE32 PUBLIC 'CODE'
_TEXT	ENDS
;	COMDAT ??0const_iterator@?$deque@PAUtagMAGICATKMSG@@V?$allocator@PAUtagMAGICATKMSG@@@std@@@std@@QAE@IPBV12@@Z
_TEXT	SEGMENT PARA USE32 PUBLIC 'CODE'
_TEXT	ENDS
;	COMDAT ?begin@?$_Tree@V?$_Tmap_traits@KU_Friend@@U?$less@K@std@@V?$allocator@U?$pair@$$CBKU_Friend@@@std@@@3@$0A@@std@@@std@@QAE?AViterator@12@XZ
_TEXT	SEGMENT PARA USE32 PUBLIC 'CODE'
_TEXT	ENDS
;	COMDAT ?end@?$_Tree@V?$_Tmap_traits@KU_Friend@@U?$less@K@std@@V?$allocator@U?$pair@$$CBKU_Friend@@@std@@@3@$0A@@std@@@std@@QAE?AViterator@12@XZ
_TEXT	SEGMENT PARA USE32 PUBLIC 'CODE'
_TEXT	ENDS
;	COMDAT ?erase@?$_Tree@V?$_Tmap_traits@KU_Friend@@U?$less@K@std@@V?$allocator@U?$pair@$$CBKU_Friend@@@std@@@3@$0A@@std@@@std@@QAE?AViterator@12@V312@@Z
_TEXT	SEGMENT PARA USE32 PUBLIC 'CODE'
_TEXT	ENDS
;	COMDAT ?clear@?$_Tree@V?$_Tmap_traits@KU_Friend@@U?$less@K@std@@V?$allocator@U?$pair@$$CBKU_Friend@@@std@@@3@$0A@@std@@@std@@QAEXXZ
_TEXT	SEGMENT PARA USE32 PUBLIC 'CODE'
_TEXT	ENDS
;	COMDAT ?lower_bound@?$_Tree@V?$_Tmap_traits@KU_Friend@@U?$less@K@std@@V?$allocator@U?$pair@$$CBKU_Friend@@@std@@@3@$0A@@std@@@std@@QAE?AViterator@12@ABK@Z
_TEXT	SEGMENT PARA USE32 PUBLIC 'CODE'
_TEXT	ENDS
;	COMDAT ?upper_bound@?$_Tree@V?$_Tmap_traits@KU_Friend@@U?$less@K@std@@V?$allocator@U?$pair@$$CBKU_Friend@@@std@@@3@$0A@@std@@@std@@QAE?AViterator@12@ABK@Z
_TEXT	SEGMENT PARA USE32 PUBLIC 'CODE'
_TEXT	ENDS
;	COMDAT ??Eiterator@?$_Tree@V?$_Tmap_traits@KU_Friend@@U?$less@K@std@@V?$allocator@U?$pair@$$CBKU_Friend@@@std@@@3@$0A@@std@@@std@@QAE?AV012@H@Z
_TEXT	SEGMENT PARA USE32 PUBLIC 'CODE'
_TEXT	ENDS
;	COMDAT ??8const_iterator@?$_Tree@V?$_Tmap_traits@KU_Friend@@U?$less@K@std@@V?$allocator@U?$pair@$$CBKU_Friend@@@std@@@3@$0A@@std@@@std@@QBE_NABV012@@Z
_TEXT	SEGMENT PARA USE32 PUBLIC 'CODE'
_TEXT	ENDS
;	COMDAT ??9const_iterator@?$_Tree@V?$_Tmap_traits@KU_Friend@@U?$less@K@std@@V?$allocator@U?$pair@$$CBKU_Friend@@@std@@@3@$0A@@std@@@std@@QBE_NABV012@@Z
_TEXT	SEGMENT PARA USE32 PUBLIC 'CODE'
_TEXT	ENDS
;	COMDAT ?_Destroy@?$vector@PAU__JOINPLAYER@CGuildCombat@@V?$allocator@PAU__JOINPLAYER@CGuildCombat@@@std@@@std@@IAEXPAPAU__JOINPLAYER@CGuildCombat@@0@Z
_TEXT	SEGMENT PARA USE32 PUBLIC 'CODE'
_TEXT	ENDS
;	COMDAT ?deallocate@?$allocator@PAU__JOINPLAYER@CGuildCombat@@@std@@QAEXPAPAU__JOINPLAYER@CGuildCombat@@I@Z
_TEXT	SEGMENT PARA USE32 PUBLIC 'CODE'
_TEXT	ENDS
;	COMDAT ?max_size@?$vector@U__SECRETROOM_MONSTER@@V?$allocator@U__SECRETROOM_MONSTER@@@std@@@std@@QBEIXZ
_TEXT	SEGMENT PARA USE32 PUBLIC 'CODE'
_TEXT	ENDS
;	COMDAT ?_Destroy@?$vector@U__SECRETROOM_MONSTER@@V?$allocator@U__SECRETROOM_MONSTER@@@std@@@std@@IAEXPAU__SECRETROOM_MONSTER@@0@Z
_TEXT	SEGMENT PARA USE32 PUBLIC 'CODE'
_TEXT	ENDS
;	COMDAT ?_Xlen@?$vector@U__SECRETROOM_MONSTER@@V?$allocator@U__SECRETROOM_MONSTER@@@std@@@std@@IBEXXZ
_TEXT	SEGMENT PARA USE32 PUBLIC 'CODE'
_TEXT	ENDS
;	COMDAT ??0?$allocator@U__SECRETROOM_MONSTER@@@std@@QAE@ABV01@@Z
_TEXT	SEGMENT PARA USE32 PUBLIC 'CODE'
_TEXT	ENDS
;	COMDAT ?deallocate@?$allocator@U__SECRETROOM_MONSTER@@@std@@QAEXPAU__SECRETROOM_MONSTER@@I@Z
_TEXT	SEGMENT PARA USE32 PUBLIC 'CODE'
_TEXT	ENDS
;	COMDAT ?allocate@?$allocator@U__SECRETROOM_MONSTER@@@std@@QAEPAU__SECRETROOM_MONSTER@@I@Z
_TEXT	SEGMENT PARA USE32 PUBLIC 'CODE'
_TEXT	ENDS
;	COMDAT ?max_size@?$vector@V?$basic_string@DU?$char_traits@D@std@@V?$allocator@D@2@@std@@V?$allocator@V?$basic_string@DU?$char_traits@D@std@@V?$allocator@D@2@@std@@@2@@std@@QBEIXZ
_TEXT	SEGMENT PARA USE32 PUBLIC 'CODE'
_TEXT	ENDS
;	COMDAT ?_Destroy@?$vector@V?$basic_string@DU?$char_traits@D@std@@V?$allocator@D@2@@std@@V?$allocator@V?$basic_string@DU?$char_traits@D@std@@V?$allocator@D@2@@std@@@2@@std@@IAEXPAV?$basic_string@DU?$char_traits@D@std@@V?$allocator@D@2@@2@0@Z
_TEXT	SEGMENT PARA USE32 PUBLIC 'CODE'
_TEXT	ENDS
;	COMDAT ?_Insert_n@?$vector@V?$basic_string@DU?$char_traits@D@std@@V?$allocator@D@2@@std@@V?$allocator@V?$basic_string@DU?$char_traits@D@std@@V?$allocator@D@2@@std@@@2@@std@@IAEXViterator@12@IABV?$basic_string@DU?$char_traits@D@std@@V?$allocator@D@2@@2@@Z
_TEXT	SEGMENT PARA USE32 PUBLIC 'CODE'
_TEXT	ENDS
;	COMDAT ?_Xlen@?$vector@V?$basic_string@DU?$char_traits@D@std@@V?$allocator@D@2@@std@@V?$allocator@V?$basic_string@DU?$char_traits@D@std@@V?$allocator@D@2@@std@@@2@@std@@IBEXXZ
_TEXT	SEGMENT PARA USE32 PUBLIC 'CODE'
_TEXT	ENDS
;	COMDAT ?begin@?$vector@UMINIGMAME_PRIZE_LIST@CRainbowRaceMng@@V?$allocator@UMINIGMAME_PRIZE_LIST@CRainbowRaceMng@@@std@@@std@@QAE?AViterator@12@XZ
_TEXT	SEGMENT PARA USE32 PUBLIC 'CODE'
_TEXT	ENDS
;	COMDAT ?_Insert_n@?$vector@UMINIGMAME_PRIZE_LIST@CRainbowRaceMng@@V?$allocator@UMINIGMAME_PRIZE_LIST@CRainbowRaceMng@@@std@@@std@@IAEXViterator@12@IABUMINIGMAME_PRIZE_LIST@CRainbowRaceMng@@@Z
_TEXT	SEGMENT PARA USE32 PUBLIC 'CODE'
_TEXT	ENDS
;	COMDAT ?_Color@?$_Tree@V?$_Tmap_traits@KPAVCGuildHouseBase@@U?$less@K@std@@V?$allocator@U?$pair@$$CBKPAVCGuildHouseBase@@@std@@@3@$0A@@std@@@std@@KAAADPAU_Node@?$_Tree_nod@V?$_Tmap_traits@KPAVCGuildHouseBase@@U?$less@K@std@@V?$allocator@U?$pair@$$CBKPAVCGuildHouseBase@@@std@@@3@$0A@@std@@@2@@Z
_TEXT	SEGMENT PARA USE32 PUBLIC 'CODE'
_TEXT	ENDS
;	COMDAT ?_Parent@?$_Tree@V?$_Tmap_traits@KPAVCGuildHouseBase@@U?$less@K@std@@V?$allocator@U?$pair@$$CBKPAVCGuildHouseBase@@@std@@@3@$0A@@std@@@std@@KAAAPAU_Node@?$_Tree_nod@V?$_Tmap_traits@KPAVCGuildHouseBase@@U?$less@K@std@@V?$allocator@U?$pair@$$CBKPAVCGuildHouseBase@@@std@@@3@$0A@@std@@@2@PAU342@@Z
_TEXT	SEGMENT PARA USE32 PUBLIC 'CODE'
_TEXT	ENDS
;	COMDAT ?_Myval@?$_Tree@V?$_Tmap_traits@KPAVCGuildHouseBase@@U?$less@K@std@@V?$allocator@U?$pair@$$CBKPAVCGuildHouseBase@@@std@@@3@$0A@@std@@@std@@KAAAU?$pair@$$CBKPAVCGuildHouseBase@@@2@PAU_Node@?$_Tree_nod@V?$_Tmap_traits@KPAVCGuildHouseBase@@U?$less@K@std@@V?$allocator@U?$pair@$$CBKPAVCGuildHouseBase@@@std@@@3@$0A@@std@@@2@@Z
_TEXT	SEGMENT PARA USE32 PUBLIC 'CODE'
_TEXT	ENDS
;	COMDAT ?max_size@?$_Tree@V?$_Tmap_traits@KPAVCGuildHouseBase@@U?$less@K@std@@V?$allocator@U?$pair@$$CBKPAVCGuildHouseBase@@@std@@@3@$0A@@std@@@std@@QBEIXZ
_TEXT	SEGMENT PARA USE32 PUBLIC 'CODE'
_TEXT	ENDS
;	COMDAT ?_Lmost@?$_Tree@V?$_Tmap_traits@KPAVCGuildHouseBase@@U?$less@K@std@@V?$allocator@U?$pair@$$CBKPAVCGuildHouseBase@@@std@@@3@$0A@@std@@@std@@IAEAAPAU_Node@?$_Tree_nod@V?$_Tmap_traits@KPAVCGuildHouseBase@@U?$less@K@std@@V?$allocator@U?$pair@$$CBKPAVCGuildHouseBase@@@std@@@3@$0A@@std@@@2@XZ
_TEXT	SEGMENT PARA USE32 PUBLIC 'CODE'
_TEXT	ENDS
;	COMDAT ?_Lrotate@?$_Tree@V?$_Tmap_traits@KPAVCGuildHouseBase@@U?$less@K@std@@V?$allocator@U?$pair@$$CBKPAVCGuildHouseBase@@@std@@@3@$0A@@std@@@std@@IAEXPAU_Node@?$_Tree_nod@V?$_Tmap_traits@KPAVCGuildHouseBase@@U?$less@K@std@@V?$allocator@U?$pair@$$CBKPAVCGuildHouseBase@@@std@@@3@$0A@@std@@@2@@Z
_TEXT	SEGMENT PARA USE32 PUBLIC 'CODE'
_TEXT	ENDS
;	COMDAT ?_Rmost@?$_Tree@V?$_Tmap_traits@KPAVCGuildHouseBase@@U?$less@K@std@@V?$allocator@U?$pair@$$CBKPAVCGuildHouseBase@@@std@@@3@$0A@@std@@@std@@IAEAAPAU_Node@?$_Tree_nod@V?$_Tmap_traits@KPAVCGuildHouseBase@@U?$less@K@std@@V?$allocator@U?$pair@$$CBKPAVCGuildHouseBase@@@std@@@3@$0A@@std@@@2@XZ
_TEXT	SEGMENT PARA USE32 PUBLIC 'CODE'
_TEXT	ENDS
;	COMDAT ?_Rrotate@?$_Tree@V?$_Tmap_traits@KPAVCGuildHouseBase@@U?$less@K@std@@V?$allocator@U?$pair@$$CBKPAVCGuildHouseBase@@@std@@@3@$0A@@std@@@std@@IAEXPAU_Node@?$_Tree_nod@V?$_Tmap_traits@KPAVCGuildHouseBase@@U?$less@K@std@@V?$allocator@U?$pair@$$CBKPAVCGuildHouseBase@@@std@@@3@$0A@@std@@@2@@Z
_TEXT	SEGMENT PARA USE32 PUBLIC 'CODE'
_TEXT	ENDS
;	COMDAT ?_Buynode@?$_Tree@V?$_Tmap_traits@KPAVCGuildHouseBase@@U?$less@K@std@@V?$allocator@U?$pair@$$CBKPAVCGuildHouseBase@@@std@@@3@$0A@@std@@@std@@IAEPAU_Node@?$_Tree_nod@V?$_Tmap_traits@KPAVCGuildHouseBase@@U?$less@K@std@@V?$allocator@U?$pair@$$CBKPAVCGuildHouseBase@@@std@@@3@$0A@@std@@@2@PAU342@00ABU?$pair@$$CBKPAVCGuildHouseBase@@@2@D@Z
_TEXT	SEGMENT PARA USE32 PUBLIC 'CODE'
_TEXT	ENDS
;	COMDAT ??0const_iterator@?$_Tree@V?$_Tmap_traits@KPAVCGuildHouseBase@@U?$less@K@std@@V?$allocator@U?$pair@$$CBKPAVCGuildHouseBase@@@std@@@3@$0A@@std@@@std@@QAE@PAU_Node@?$_Tree_nod@V?$_Tmap_traits@KPAVCGuildHouseBase@@U?$less@K@std@@V?$allocator@U?$pair@$$CBKPAVCGuildHouseBase@@@std@@@3@$0A@@std@@@2@@Z
_TEXT	SEGMENT PARA USE32 PUBLIC 'CODE'
_TEXT	ENDS
;	COMDAT ??Fconst_iterator@?$_Tree@V?$_Tmap_traits@KPAVCGuildHouseBase@@U?$less@K@std@@V?$allocator@U?$pair@$$CBKPAVCGuildHouseBase@@@std@@@3@$0A@@std@@@std@@QAEAAV012@XZ
_TEXT	SEGMENT PARA USE32 PUBLIC 'CODE'
_TEXT	ENDS
;	COMDAT ?begin@?$_Tree@V?$_Tmap_traits@KKU?$less@K@std@@V?$allocator@U?$pair@$$CBKK@std@@@2@$0A@@std@@@std@@QAE?AViterator@12@XZ
_TEXT	SEGMENT PARA USE32 PUBLIC 'CODE'
_TEXT	ENDS
;	COMDAT ?end@?$_Tree@V?$_Tmap_traits@KKU?$less@K@std@@V?$allocator@U?$pair@$$CBKK@std@@@2@$0A@@std@@@std@@QAE?AViterator@12@XZ
_TEXT	SEGMENT PARA USE32 PUBLIC 'CODE'
_TEXT	ENDS
;	COMDAT ?erase@?$_Tree@V?$_Tmap_traits@KKU?$less@K@std@@V?$allocator@U?$pair@$$CBKK@std@@@2@$0A@@std@@@std@@QAE?AViterator@12@V312@@Z
_TEXT	SEGMENT PARA USE32 PUBLIC 'CODE'
_TEXT	ENDS
;	COMDAT ?clear@?$_Tree@V?$_Tmap_traits@KKU?$less@K@std@@V?$allocator@U?$pair@$$CBKK@std@@@2@$0A@@std@@@std@@QAEXXZ
_TEXT	SEGMENT PARA USE32 PUBLIC 'CODE'
_TEXT	ENDS
;	COMDAT ?lower_bound@?$_Tree@V?$_Tmap_traits@KKU?$less@K@std@@V?$allocator@U?$pair@$$CBKK@std@@@2@$0A@@std@@@std@@QAE?AViterator@12@ABK@Z
_TEXT	SEGMENT PARA USE32 PUBLIC 'CODE'
_TEXT	ENDS
;	COMDAT ?upper_bound@?$_Tree@V?$_Tmap_traits@KKU?$less@K@std@@V?$allocator@U?$pair@$$CBKK@std@@@2@$0A@@std@@@std@@QAE?AViterator@12@ABK@Z
_TEXT	SEGMENT PARA USE32 PUBLIC 'CODE'
_TEXT	ENDS
;	COMDAT ??Eiterator@?$_Tree@V?$_Tmap_traits@KKU?$less@K@std@@V?$allocator@U?$pair@$$CBKK@std@@@2@$0A@@std@@@std@@QAE?AV012@H@Z
_TEXT	SEGMENT PARA USE32 PUBLIC 'CODE'
_TEXT	ENDS
;	COMDAT ??8const_iterator@?$_Tree@V?$_Tmap_traits@KKU?$less@K@std@@V?$allocator@U?$pair@$$CBKK@std@@@2@$0A@@std@@@std@@QBE_NABV012@@Z
_TEXT	SEGMENT PARA USE32 PUBLIC 'CODE'
_TEXT	ENDS
;	COMDAT ??9const_iterator@?$_Tree@V?$_Tmap_traits@KKU?$less@K@std@@V?$allocator@U?$pair@$$CBKK@std@@@2@$0A@@std@@@std@@QBE_NABV012@@Z
_TEXT	SEGMENT PARA USE32 PUBLIC 'CODE'
_TEXT	ENDS
;	COMDAT ?_Left@?$_Tree@V?$_Tmap_traits@KPAVCClientSock@@U?$less@K@std@@V?$allocator@U?$pair@$$CBKPAVCClientSock@@@std@@@3@$0A@@std@@@std@@KAAAPAU_Node@?$_Tree_nod@V?$_Tmap_traits@KPAVCClientSock@@U?$less@K@std@@V?$allocator@U?$pair@$$CBKPAVCClientSock@@@std@@@3@$0A@@std@@@2@PAU342@@Z
_TEXT	SEGMENT PARA USE32 PUBLIC 'CODE'
_TEXT	ENDS
;	COMDAT ?_Parent@?$_Tree@V?$_Tmap_traits@KPAVCClientSock@@U?$less@K@std@@V?$allocator@U?$pair@$$CBKPAVCClientSock@@@std@@@3@$0A@@std@@@std@@KAAAPAU_Node@?$_Tree_nod@V?$_Tmap_traits@KPAVCClientSock@@U?$less@K@std@@V?$allocator@U?$pair@$$CBKPAVCClientSock@@@std@@@3@$0A@@std@@@2@PAU342@@Z
_TEXT	SEGMENT PARA USE32 PUBLIC 'CODE'
_TEXT	ENDS
;	COMDAT ?_Right@?$_Tree@V?$_Tmap_traits@KPAVCClientSock@@U?$less@K@std@@V?$allocator@U?$pair@$$CBKPAVCClientSock@@@std@@@3@$0A@@std@@@std@@KAAAPAU_Node@?$_Tree_nod@V?$_Tmap_traits@KPAVCClientSock@@U?$less@K@std@@V?$allocator@U?$pair@$$CBKPAVCClientSock@@@std@@@3@$0A@@std@@@2@PAU342@@Z
_TEXT	SEGMENT PARA USE32 PUBLIC 'CODE'
_TEXT	ENDS
;	COMDAT ?_Myval@?$_Tree@V?$_Tmap_traits@KPAVCClientSock@@U?$less@K@std@@V?$allocator@U?$pair@$$CBKPAVCClientSock@@@std@@@3@$0A@@std@@@std@@KAAAU?$pair@$$CBKPAVCClientSock@@@2@PAU_Node@?$_Tree_nod@V?$_Tmap_traits@KPAVCClientSock@@U?$less@K@std@@V?$allocator@U?$pair@$$CBKPAVCClientSock@@@std@@@3@$0A@@std@@@2@@Z
_TEXT	SEGMENT PARA USE32 PUBLIC 'CODE'
_TEXT	ENDS
;	COMDAT ?begin@?$_Tree@V?$_Tmap_traits@KPAVCClientSock@@U?$less@K@std@@V?$allocator@U?$pair@$$CBKPAVCClientSock@@@std@@@3@$0A@@std@@@std@@QAE?AViterator@12@XZ
_TEXT	SEGMENT PARA USE32 PUBLIC 'CODE'
_TEXT	ENDS
;	COMDAT ?erase@?$_Tree@V?$_Tmap_traits@KPAVCClientSock@@U?$less@K@std@@V?$allocator@U?$pair@$$CBKPAVCClientSock@@@std@@@3@$0A@@std@@@std@@QAE?AViterator@12@V312@0@Z
_TEXT	SEGMENT PARA USE32 PUBLIC 'CODE'
_TEXT	ENDS
;	COMDAT ?_Init@?$_Tree@V?$_Tmap_traits@KPAVCClientSock@@U?$less@K@std@@V?$allocator@U?$pair@$$CBKPAVCClientSock@@@std@@@3@$0A@@std@@@std@@IAEXXZ
_TEXT	SEGMENT PARA USE32 PUBLIC 'CODE'
_TEXT	ENDS
;	COMDAT ?_Lbound@?$_Tree@V?$_Tmap_traits@KPAVCClientSock@@U?$less@K@std@@V?$allocator@U?$pair@$$CBKPAVCClientSock@@@std@@@3@$0A@@std@@@std@@IBEPAU_Node@?$_Tree_nod@V?$_Tmap_traits@KPAVCClientSock@@U?$less@K@std@@V?$allocator@U?$pair@$$CBKPAVCClientSock@@@std@@@3@$0A@@std@@@2@ABK@Z
_TEXT	SEGMENT PARA USE32 PUBLIC 'CODE'
_TEXT	ENDS
;	COMDAT ??0?$_Tree_val@V?$_Tmap_traits@KPAVCClientSock@@U?$less@K@std@@V?$allocator@U?$pair@$$CBKPAVCClientSock@@@std@@@3@$0A@@std@@@std@@IAE@ABU?$less@K@1@V?$allocator@U?$pair@$$CBKPAVCClientSock@@@std@@@1@@Z
_TEXT	SEGMENT PARA USE32 PUBLIC 'CODE'
_TEXT	ENDS
;	COMDAT ?_Kfn@?$_Tmap_traits@KPAVCClientSock@@U?$less@K@std@@V?$allocator@U?$pair@$$CBKPAVCClientSock@@@std@@@3@$0A@@std@@SAABKABU?$pair@$$CBKPAVCClientSock@@@2@@Z
_TEXT	SEGMENT PARA USE32 PUBLIC 'CODE'
_TEXT	ENDS
;	COMDAT ??0?$allocator@U?$pair@$$CBKPAVCClientSock@@@std@@@std@@QAE@ABV01@@Z
_TEXT	SEGMENT PARA USE32 PUBLIC 'CODE'
_TEXT	ENDS
;	COMDAT ?deallocate@?$allocator@U_Node@?$_Tree_nod@V?$_Tmap_traits@KPAVCClientSock@@U?$less@K@std@@V?$allocator@U?$pair@$$CBKPAVCClientSock@@@std@@@3@$0A@@std@@@std@@@std@@QAEXPAU_Node@?$_Tree_nod@V?$_Tmap_traits@KPAVCClientSock@@U?$less@K@std@@V?$allocator@U?$pair@$$CBKPAVCClientSock@@@std@@@3@$0A@@std@@@2@I@Z
_TEXT	SEGMENT PARA USE32 PUBLIC 'CODE'
_TEXT	ENDS
;	COMDAT ?destroy@?$allocator@PAU_Node@?$_Tree_nod@V?$_Tmap_traits@KPAVCClientSock@@U?$less@K@std@@V?$allocator@U?$pair@$$CBKPAVCClientSock@@@std@@@3@$0A@@std@@@std@@@std@@QAEXPAPAU_Node@?$_Tree_nod@V?$_Tmap_traits@KPAVCClientSock@@U?$less@K@std@@V?$allocator@U?$pair@$$CBKPAVCClientSock@@@std@@@3@$0A@@std@@@2@@Z
_TEXT	SEGMENT PARA USE32 PUBLIC 'CODE'
_TEXT	ENDS
;	COMDAT ??0const_iterator@?$_Tree@V?$_Tmap_traits@KPAVCClientSock@@U?$less@K@std@@V?$allocator@U?$pair@$$CBKPAVCClientSock@@@std@@@3@$0A@@std@@@std@@QAE@PAU_Node@?$_Tree_nod@V?$_Tmap_traits@KPAVCClientSock@@U?$less@K@std@@V?$allocator@U?$pair@$$CBKPAVCClientSock@@@std@@@3@$0A@@std@@@2@@Z
_TEXT	SEGMENT PARA USE32 PUBLIC 'CODE'
_TEXT	ENDS
;	COMDAT ??Dconst_iterator@?$_Tree@V?$_Tmap_traits@KPAVCClientSock@@U?$less@K@std@@V?$allocator@U?$pair@$$CBKPAVCClientSock@@@std@@@3@$0A@@std@@@std@@QBEABU?$pair@$$CBKPAVCClientSock@@@2@XZ
_TEXT	SEGMENT PARA USE32 PUBLIC 'CODE'
_TEXT	ENDS
;	COMDAT ?_Left@?$_Tree@V?$_Tmap_traits@KPAVCClientSockE@@U?$less@K@std@@V?$allocator@U?$pair@$$CBKPAVCClientSockE@@@std@@@3@$0A@@std@@@std@@KAAAPAU_Node@?$_Tree_nod@V?$_Tmap_traits@KPAVCClientSockE@@U?$less@K@std@@V?$allocator@U?$pair@$$CBKPAVCClientSockE@@@std@@@3@$0A@@std@@@2@PAU342@@Z
_TEXT	SEGMENT PARA USE32 PUBLIC 'CODE'
_TEXT	ENDS
;	COMDAT ?_Parent@?$_Tree@V?$_Tmap_traits@KPAVCClientSockE@@U?$less@K@std@@V?$allocator@U?$pair@$$CBKPAVCClientSockE@@@std@@@3@$0A@@std@@@std@@KAAAPAU_Node@?$_Tree_nod@V?$_Tmap_traits@KPAVCClientSockE@@U?$less@K@std@@V?$allocator@U?$pair@$$CBKPAVCClientSockE@@@std@@@3@$0A@@std@@@2@PAU342@@Z
_TEXT	SEGMENT PARA USE32 PUBLIC 'CODE'
_TEXT	ENDS
;	COMDAT ?_Right@?$_Tree@V?$_Tmap_traits@KPAVCClientSockE@@U?$less@K@std@@V?$allocator@U?$pair@$$CBKPAVCClientSockE@@@std@@@3@$0A@@std@@@std@@KAAAPAU_Node@?$_Tree_nod@V?$_Tmap_traits@KPAVCClientSockE@@U?$less@K@std@@V?$allocator@U?$pair@$$CBKPAVCClientSockE@@@std@@@3@$0A@@std@@@2@PAU342@@Z
_TEXT	SEGMENT PARA USE32 PUBLIC 'CODE'
_TEXT	ENDS
;	COMDAT ?_Myval@?$_Tree@V?$_Tmap_traits@KPAVCClientSockE@@U?$less@K@std@@V?$allocator@U?$pair@$$CBKPAVCClientSockE@@@std@@@3@$0A@@std@@@std@@KAAAU?$pair@$$CBKPAVCClientSockE@@@2@PAU_Node@?$_Tree_nod@V?$_Tmap_traits@KPAVCClientSockE@@U?$less@K@std@@V?$allocator@U?$pair@$$CBKPAVCClientSockE@@@std@@@3@$0A@@std@@@2@@Z
_TEXT	SEGMENT PARA USE32 PUBLIC 'CODE'
_TEXT	ENDS
;	COMDAT ?begin@?$_Tree@V?$_Tmap_traits@KPAVCClientSockE@@U?$less@K@std@@V?$allocator@U?$pair@$$CBKPAVCClientSockE@@@std@@@3@$0A@@std@@@std@@QAE?AViterator@12@XZ
_TEXT	SEGMENT PARA USE32 PUBLIC 'CODE'
_TEXT	ENDS
;	COMDAT ?erase@?$_Tree@V?$_Tmap_traits@KPAVCClientSockE@@U?$less@K@std@@V?$allocator@U?$pair@$$CBKPAVCClientSockE@@@std@@@3@$0A@@std@@@std@@QAE?AViterator@12@V312@0@Z
_TEXT	SEGMENT PARA USE32 PUBLIC 'CODE'
_TEXT	ENDS
;	COMDAT ?_Init@?$_Tree@V?$_Tmap_traits@KPAVCClientSockE@@U?$less@K@std@@V?$allocator@U?$pair@$$CBKPAVCClientSockE@@@std@@@3@$0A@@std@@@std@@IAEXXZ
_TEXT	SEGMENT PARA USE32 PUBLIC 'CODE'
_TEXT	ENDS
;	COMDAT ?_Lbound@?$_Tree@V?$_Tmap_traits@KPAVCClientSockE@@U?$less@K@std@@V?$allocator@U?$pair@$$CBKPAVCClientSockE@@@std@@@3@$0A@@std@@@std@@IBEPAU_Node@?$_Tree_nod@V?$_Tmap_traits@KPAVCClientSockE@@U?$less@K@std@@V?$allocator@U?$pair@$$CBKPAVCClientSockE@@@std@@@3@$0A@@std@@@2@ABK@Z
_TEXT	SEGMENT PARA USE32 PUBLIC 'CODE'
_TEXT	ENDS
;	COMDAT ??0?$_Tree_val@V?$_Tmap_traits@KPAVCClientSockE@@U?$less@K@std@@V?$allocator@U?$pair@$$CBKPAVCClientSockE@@@std@@@3@$0A@@std@@@std@@IAE@ABU?$less@K@1@V?$allocator@U?$pair@$$CBKPAVCClientSockE@@@std@@@1@@Z
_TEXT	SEGMENT PARA USE32 PUBLIC 'CODE'
_TEXT	ENDS
;	COMDAT ?_Kfn@?$_Tmap_traits@KPAVCClientSockE@@U?$less@K@std@@V?$allocator@U?$pair@$$CBKPAVCClientSockE@@@std@@@3@$0A@@std@@SAABKABU?$pair@$$CBKPAVCClientSockE@@@2@@Z
_TEXT	SEGMENT PARA USE32 PUBLIC 'CODE'
_TEXT	ENDS
;	COMDAT ??0?$allocator@U?$pair@$$CBKPAVCClientSockE@@@std@@@std@@QAE@ABV01@@Z
_TEXT	SEGMENT PARA USE32 PUBLIC 'CODE'
_TEXT	ENDS
;	COMDAT ?deallocate@?$allocator@U_Node@?$_Tree_nod@V?$_Tmap_traits@KPAVCClientSockE@@U?$less@K@std@@V?$allocator@U?$pair@$$CBKPAVCClientSockE@@@std@@@3@$0A@@std@@@std@@@std@@QAEXPAU_Node@?$_Tree_nod@V?$_Tmap_traits@KPAVCClientSockE@@U?$less@K@std@@V?$allocator@U?$pair@$$CBKPAVCClientSockE@@@std@@@3@$0A@@std@@@2@I@Z
_TEXT	SEGMENT PARA USE32 PUBLIC 'CODE'
_TEXT	ENDS
;	COMDAT ?destroy@?$allocator@PAU_Node@?$_Tree_nod@V?$_Tmap_traits@KPAVCClientSockE@@U?$less@K@std@@V?$allocator@U?$pair@$$CBKPAVCClientSockE@@@std@@@3@$0A@@std@@@std@@@std@@QAEXPAPAU_Node@?$_Tree_nod@V?$_Tmap_traits@KPAVCClientSockE@@U?$less@K@std@@V?$allocator@U?$pair@$$CBKPAVCClientSockE@@@std@@@3@$0A@@std@@@2@@Z
_TEXT	SEGMENT PARA USE32 PUBLIC 'CODE'
_TEXT	ENDS
;	COMDAT ??0const_iterator@?$_Tree@V?$_Tmap_traits@KPAVCClientSockE@@U?$less@K@std@@V?$allocator@U?$pair@$$CBKPAVCClientSockE@@@std@@@3@$0A@@std@@@std@@QAE@PAU_Node@?$_Tree_nod@V?$_Tmap_traits@KPAVCClientSockE@@U?$less@K@std@@V?$allocator@U?$pair@$$CBKPAVCClientSockE@@@std@@@3@$0A@@std@@@2@@Z
_TEXT	SEGMENT PARA USE32 PUBLIC 'CODE'
_TEXT	ENDS
;	COMDAT ??Dconst_iterator@?$_Tree@V?$_Tmap_traits@KPAVCClientSockE@@U?$less@K@std@@V?$allocator@U?$pair@$$CBKPAVCClientSockE@@@std@@@3@$0A@@std@@@std@@QBEABU?$pair@$$CBKPAVCClientSockE@@@2@XZ
_TEXT	SEGMENT PARA USE32 PUBLIC 'CODE'
_TEXT	ENDS
;	COMDAT ?_Myval@?$_Tree@V?$_Tmap_traits@KP8CDPCoreClient@@AEXAAVCAr@@KKK@ZU?$less@K@std@@V?$allocator@U?$pair@$$CBKP8CDPCoreClient@@AEXAAVCAr@@KKK@Z@std@@@4@$0A@@std@@@std@@KAAAU?$pair@$$CBKP8CDPCoreClient@@AEXAAVCAr@@KKK@Z@2@PAU_Node@?$_Tree_nod@V?$_Tmap_traits@KP8CDPCoreClient@@AEXAAVCAr@@KKK@ZU?$less@K@std@@V?$allocator@U?$pair@$$CBKP8CDPCoreClient@@AEXAAVCAr@@KKK@Z@std@@@4@$0A@@std@@@2@@Z
_TEXT	SEGMENT PARA USE32 PUBLIC 'CODE'
_TEXT	ENDS
;	COMDAT ?_Lbound@?$_Tree@V?$_Tmap_traits@KP8CDPCoreClient@@AEXAAVCAr@@KKK@ZU?$less@K@std@@V?$allocator@U?$pair@$$CBKP8CDPCoreClient@@AEXAAVCAr@@KKK@Z@std@@@4@$0A@@std@@@std@@IBEPAU_Node@?$_Tree_nod@V?$_Tmap_traits@KP8CDPCoreClient@@AEXAAVCAr@@KKK@ZU?$less@K@std@@V?$allocator@U?$pair@$$CBKP8CDPCoreClient@@AEXAAVCAr@@KKK@Z@std@@@4@$0A@@std@@@2@ABK@Z
_TEXT	SEGMENT PARA USE32 PUBLIC 'CODE'
_TEXT	ENDS
;	COMDAT ?_Kfn@?$_Tmap_traits@KP8CDPCoreClient@@AEXAAVCAr@@KKK@ZU?$less@K@std@@V?$allocator@U?$pair@$$CBKP8CDPCoreClient@@AEXAAVCAr@@KKK@Z@std@@@4@$0A@@std@@SAABKABU?$pair@$$CBKP8CDPCoreClient@@AEXAAVCAr@@KKK@Z@2@@Z
_TEXT	SEGMENT PARA USE32 PUBLIC 'CODE'
_TEXT	ENDS
;	COMDAT ??0const_iterator@?$_Tree@V?$_Tmap_traits@KP8CDPCoreClient@@AEXAAVCAr@@KKK@ZU?$less@K@std@@V?$allocator@U?$pair@$$CBKP8CDPCoreClient@@AEXAAVCAr@@KKK@Z@std@@@4@$0A@@std@@@std@@QAE@PAU_Node@?$_Tree_nod@V?$_Tmap_traits@KP8CDPCoreClient@@AEXAAVCAr@@KKK@ZU?$less@K@std@@V?$allocator@U?$pair@$$CBKP8CDPCoreClient@@AEXAAVCAr@@KKK@Z@std@@@4@$0A@@std@@@2@@Z
_TEXT	SEGMENT PARA USE32 PUBLIC 'CODE'
_TEXT	ENDS
;	COMDAT ??Dconst_iterator@?$_Tree@V?$_Tmap_traits@KP8CDPCoreClient@@AEXAAVCAr@@KKK@ZU?$less@K@std@@V?$allocator@U?$pair@$$CBKP8CDPCoreClient@@AEXAAVCAr@@KKK@Z@std@@@4@$0A@@std@@@std@@QBEABU?$pair@$$CBKP8CDPCoreClient@@AEXAAVCAr@@KKK@Z@2@XZ
_TEXT	SEGMENT PARA USE32 PUBLIC 'CODE'
_TEXT	ENDS
;	COMDAT ??0?$pair@Viterator@?$_Tree@V?$_Tmap_traits@KU_Friend@@U?$less@K@std@@V?$allocator@U?$pair@$$CBKU_Friend@@@std@@@3@$0A@@std@@@std@@V123@@std@@QAE@ABViterator@?$_Tree@V?$_Tmap_traits@KU_Friend@@U?$less@K@std@@V?$allocator@U?$pair@$$CBKU_Friend@@@std@@@3@$0A@@std@@@1@0@Z
_TEXT	SEGMENT PARA USE32 PUBLIC 'CODE'
_TEXT	ENDS
;	COMDAT ??0iterator@?$vector@PAU__JOINPLAYER@CGuildCombat@@V?$allocator@PAU__JOINPLAYER@CGuildCombat@@@std@@@std@@QAE@PAPAU__JOINPLAYER@CGuildCombat@@@Z
_TEXT	SEGMENT PARA USE32 PUBLIC 'CODE'
_TEXT	ENDS
;	COMDAT ??Yiterator@?$vector@PAU__JOINPLAYER@CGuildCombat@@V?$allocator@PAU__JOINPLAYER@CGuildCombat@@@std@@@std@@QAEAAV012@H@Z
_TEXT	SEGMENT PARA USE32 PUBLIC 'CODE'
_TEXT	ENDS
;	COMDAT ??Dconst_iterator@?$vector@PAU__JOINPLAYER@CGuildCombat@@V?$allocator@PAU__JOINPLAYER@CGuildCombat@@@std@@@std@@QBEABQAU__JOINPLAYER@CGuildCombat@@XZ
_TEXT	SEGMENT PARA USE32 PUBLIC 'CODE'
_TEXT	ENDS
;	COMDAT ??0iterator@?$vector@V?$basic_string@DU?$char_traits@D@std@@V?$allocator@D@2@@std@@V?$allocator@V?$basic_string@DU?$char_traits@D@std@@V?$allocator@D@2@@std@@@2@@std@@QAE@PAV?$basic_string@DU?$char_traits@D@std@@V?$allocator@D@2@@2@@Z
_TEXT	SEGMENT PARA USE32 PUBLIC 'CODE'
_TEXT	ENDS
;	COMDAT ??Yiterator@?$vector@V?$basic_string@DU?$char_traits@D@std@@V?$allocator@D@2@@std@@V?$allocator@V?$basic_string@DU?$char_traits@D@std@@V?$allocator@D@2@@std@@@2@@std@@QAEAAV012@H@Z
_TEXT	SEGMENT PARA USE32 PUBLIC 'CODE'
_TEXT	ENDS
;	COMDAT ??Giterator@?$vector@V?$basic_string@DU?$char_traits@D@std@@V?$allocator@D@2@@std@@V?$allocator@V?$basic_string@DU?$char_traits@D@std@@V?$allocator@D@2@@std@@@2@@std@@QBEHABVconst_iterator@12@@Z
_TEXT	SEGMENT PARA USE32 PUBLIC 'CODE'
_TEXT	ENDS
;	COMDAT ??Dconst_iterator@?$vector@V?$basic_string@DU?$char_traits@D@std@@V?$allocator@D@2@@std@@V?$allocator@V?$basic_string@DU?$char_traits@D@std@@V?$allocator@D@2@@std@@@2@@std@@QBEABV?$basic_string@DU?$char_traits@D@std@@V?$allocator@D@2@@2@XZ
_TEXT	SEGMENT PARA USE32 PUBLIC 'CODE'
_TEXT	ENDS
;	COMDAT ??0iterator@?$vector@UMINIGMAME_PRIZE_LIST@CRainbowRaceMng@@V?$allocator@UMINIGMAME_PRIZE_LIST@CRainbowRaceMng@@@std@@@std@@QAE@PAUMINIGMAME_PRIZE_LIST@CRainbowRaceMng@@@Z
_TEXT	SEGMENT PARA USE32 PUBLIC 'CODE'
_TEXT	ENDS
;	COMDAT ??Hiterator@?$vector@UMINIGMAME_PRIZE_LIST@CRainbowRaceMng@@V?$allocator@UMINIGMAME_PRIZE_LIST@CRainbowRaceMng@@@std@@@std@@QBE?AV012@H@Z
_TEXT	SEGMENT PARA USE32 PUBLIC 'CODE'
_TEXT	ENDS
;	COMDAT ??Giterator@?$vector@UMINIGMAME_PRIZE_LIST@CRainbowRaceMng@@V?$allocator@UMINIGMAME_PRIZE_LIST@CRainbowRaceMng@@@std@@@std@@QBEHABVconst_iterator@12@@Z
_TEXT	SEGMENT PARA USE32 PUBLIC 'CODE'
_TEXT	ENDS
;	COMDAT ??0iterator@?$vector@PAVCMiniGameBase@@V?$allocator@PAVCMiniGameBase@@@std@@@std@@QAE@PAPAVCMiniGameBase@@@Z
_TEXT	SEGMENT PARA USE32 PUBLIC 'CODE'
_TEXT	ENDS
;	COMDAT ??Yiterator@?$vector@PAVCMiniGameBase@@V?$allocator@PAVCMiniGameBase@@@std@@@std@@QAEAAV012@H@Z
_TEXT	SEGMENT PARA USE32 PUBLIC 'CODE'
_TEXT	ENDS
;	COMDAT ??Dconst_iterator@?$vector@PAVCMiniGameBase@@V?$allocator@PAVCMiniGameBase@@@std@@@std@@QBEABQAVCMiniGameBase@@XZ
_TEXT	SEGMENT PARA USE32 PUBLIC 'CODE'
_TEXT	ENDS
;	COMDAT ??0iterator@?$vector@UGuildHouse_Furniture_Info@CGuildHouseBase@@V?$allocator@UGuildHouse_Furniture_Info@CGuildHouseBase@@@std@@@std@@QAE@PAUGuildHouse_Furniture_Info@CGuildHouseBase@@@Z
_TEXT	SEGMENT PARA USE32 PUBLIC 'CODE'
_TEXT	ENDS
;	COMDAT ??Yiterator@?$vector@UGuildHouse_Furniture_Info@CGuildHouseBase@@V?$allocator@UGuildHouse_Furniture_Info@CGuildHouseBase@@@std@@@std@@QAEAAV012@H@Z
_TEXT	SEGMENT PARA USE32 PUBLIC 'CODE'
_TEXT	ENDS
;	COMDAT ??Dconst_iterator@?$vector@UGuildHouse_Furniture_Info@CGuildHouseBase@@V?$allocator@UGuildHouse_Furniture_Info@CGuildHouseBase@@@std@@@std@@QBEABUGuildHouse_Furniture_Info@CGuildHouseBase@@XZ
_TEXT	SEGMENT PARA USE32 PUBLIC 'CODE'
_TEXT	ENDS
;	COMDAT ??0?$pair@Viterator@?$_Tree@V?$_Tmap_traits@KKU?$less@K@std@@V?$allocator@U?$pair@$$CBKK@std@@@2@$0A@@std@@@std@@V123@@std@@QAE@ABViterator@?$_Tree@V?$_Tmap_traits@KKU?$less@K@std@@V?$allocator@U?$pair@$$CBKK@std@@@2@$0A@@std@@@1@0@Z
_TEXT	SEGMENT PARA USE32 PUBLIC 'CODE'
_TEXT	ENDS
;	COMDAT ?max_size@?$allocator@V?$basic_string@DU?$char_traits@D@std@@V?$allocator@D@2@@std@@@std@@QBEIXZ
_TEXT	SEGMENT PARA USE32 PUBLIC 'CODE'
_TEXT	ENDS
;	COMDAT ??0const_iterator@?$_Tree@V?$_Tmap_traits@KPAVCCtrl@@U?$less@K@std@@V?$allocator@U?$pair@$$CBKPAVCCtrl@@@std@@@3@$0A@@std@@@std@@QAE@XZ
_TEXT	SEGMENT PARA USE32 PUBLIC 'CODE'
_TEXT	ENDS
;	COMDAT ?destroy@?$allocator@PAUtagACTMSG@@@std@@QAEXPAPAUtagACTMSG@@@Z
_TEXT	SEGMENT PARA USE32 PUBLIC 'CODE'
_TEXT	ENDS
;	COMDAT ?destroy@?$allocator@PAUtagMAGICATKMSG@@@std@@QAEXPAPAUtagMAGICATKMSG@@@Z
_TEXT	SEGMENT PARA USE32 PUBLIC 'CODE'
_TEXT	ENDS
;	COMDAT ?_Color@?$_Tree@V?$_Tmap_traits@KU_Friend@@U?$less@K@std@@V?$allocator@U?$pair@$$CBKU_Friend@@@std@@@3@$0A@@std@@@std@@KAAADPAU_Node@?$_Tree_nod@V?$_Tmap_traits@KU_Friend@@U?$less@K@std@@V?$allocator@U?$pair@$$CBKU_Friend@@@std@@@3@$0A@@std@@@2@@Z
_TEXT	SEGMENT PARA USE32 PUBLIC 'CODE'
_TEXT	ENDS
;	COMDAT ?_Isnil@?$_Tree@V?$_Tmap_traits@KU_Friend@@U?$less@K@std@@V?$allocator@U?$pair@$$CBKU_Friend@@@std@@@3@$0A@@std@@@std@@KAAADPAU_Node@?$_Tree_nod@V?$_Tmap_traits@KU_Friend@@U?$less@K@std@@V?$allocator@U?$pair@$$CBKU_Friend@@@std@@@3@$0A@@std@@@2@@Z
_TEXT	SEGMENT PARA USE32 PUBLIC 'CODE'
_TEXT	ENDS
;	COMDAT ?_Left@?$_Tree@V?$_Tmap_traits@KU_Friend@@U?$less@K@std@@V?$allocator@U?$pair@$$CBKU_Friend@@@std@@@3@$0A@@std@@@std@@KAAAPAU_Node@?$_Tree_nod@V?$_Tmap_traits@KU_Friend@@U?$less@K@std@@V?$allocator@U?$pair@$$CBKU_Friend@@@std@@@3@$0A@@std@@@2@PAU342@@Z
_TEXT	SEGMENT PARA USE32 PUBLIC 'CODE'
_TEXT	ENDS
;	COMDAT ?_Parent@?$_Tree@V?$_Tmap_traits@KU_Friend@@U?$less@K@std@@V?$allocator@U?$pair@$$CBKU_Friend@@@std@@@3@$0A@@std@@@std@@KAAAPAU_Node@?$_Tree_nod@V?$_Tmap_traits@KU_Friend@@U?$less@K@std@@V?$allocator@U?$pair@$$CBKU_Friend@@@std@@@3@$0A@@std@@@2@PAU342@@Z
_TEXT	SEGMENT PARA USE32 PUBLIC 'CODE'
_TEXT	ENDS
;	COMDAT ?_Right@?$_Tree@V?$_Tmap_traits@KU_Friend@@U?$less@K@std@@V?$allocator@U?$pair@$$CBKU_Friend@@@std@@@3@$0A@@std@@@std@@KAAAPAU_Node@?$_Tree_nod@V?$_Tmap_traits@KU_Friend@@U?$less@K@std@@V?$allocator@U?$pair@$$CBKU_Friend@@@std@@@3@$0A@@std@@@2@PAU342@@Z
_TEXT	SEGMENT PARA USE32 PUBLIC 'CODE'
_TEXT	ENDS
;	COMDAT ?_Erase@?$_Tree@V?$_Tmap_traits@KU_Friend@@U?$less@K@std@@V?$allocator@U?$pair@$$CBKU_Friend@@@std@@@3@$0A@@std@@@std@@IAEXPAU_Node@?$_Tree_nod@V?$_Tmap_traits@KU_Friend@@U?$less@K@std@@V?$allocator@U?$pair@$$CBKU_Friend@@@std@@@3@$0A@@std@@@2@@Z
_TEXT	SEGMENT PARA USE32 PUBLIC 'CODE'
_TEXT	ENDS
;	COMDAT ?_Lbound@?$_Tree@V?$_Tmap_traits@KU_Friend@@U?$less@K@std@@V?$allocator@U?$pair@$$CBKU_Friend@@@std@@@3@$0A@@std@@@std@@IBEPAU_Node@?$_Tree_nod@V?$_Tmap_traits@KU_Friend@@U?$less@K@std@@V?$allocator@U?$pair@$$CBKU_Friend@@@std@@@3@$0A@@std@@@2@ABK@Z
_TEXT	SEGMENT PARA USE32 PUBLIC 'CODE'
_TEXT	ENDS
;	COMDAT ?_Lmost@?$_Tree@V?$_Tmap_traits@KU_Friend@@U?$less@K@std@@V?$allocator@U?$pair@$$CBKU_Friend@@@std@@@3@$0A@@std@@@std@@IAEAAPAU_Node@?$_Tree_nod@V?$_Tmap_traits@KU_Friend@@U?$less@K@std@@V?$allocator@U?$pair@$$CBKU_Friend@@@std@@@3@$0A@@std@@@2@XZ
_TEXT	SEGMENT PARA USE32 PUBLIC 'CODE'
_TEXT	ENDS
;	COMDAT ?_Lrotate@?$_Tree@V?$_Tmap_traits@KU_Friend@@U?$less@K@std@@V?$allocator@U?$pair@$$CBKU_Friend@@@std@@@3@$0A@@std@@@std@@IAEXPAU_Node@?$_Tree_nod@V?$_Tmap_traits@KU_Friend@@U?$less@K@std@@V?$allocator@U?$pair@$$CBKU_Friend@@@std@@@3@$0A@@std@@@2@@Z
_TEXT	SEGMENT PARA USE32 PUBLIC 'CODE'
_TEXT	ENDS
;	COMDAT ?_Max@?$_Tree@V?$_Tmap_traits@KU_Friend@@U?$less@K@std@@V?$allocator@U?$pair@$$CBKU_Friend@@@std@@@3@$0A@@std@@@std@@KAPAU_Node@?$_Tree_nod@V?$_Tmap_traits@KU_Friend@@U?$less@K@std@@V?$allocator@U?$pair@$$CBKU_Friend@@@std@@@3@$0A@@std@@@2@PAU342@@Z
_TEXT	SEGMENT PARA USE32 PUBLIC 'CODE'
_TEXT	ENDS
;	COMDAT ?_Min@?$_Tree@V?$_Tmap_traits@KU_Friend@@U?$less@K@std@@V?$allocator@U?$pair@$$CBKU_Friend@@@std@@@3@$0A@@std@@@std@@KAPAU_Node@?$_Tree_nod@V?$_Tmap_traits@KU_Friend@@U?$less@K@std@@V?$allocator@U?$pair@$$CBKU_Friend@@@std@@@3@$0A@@std@@@2@PAU342@@Z
_TEXT	SEGMENT PARA USE32 PUBLIC 'CODE'
_TEXT	ENDS
;	COMDAT ?_Rmost@?$_Tree@V?$_Tmap_traits@KU_Friend@@U?$less@K@std@@V?$allocator@U?$pair@$$CBKU_Friend@@@std@@@3@$0A@@std@@@std@@IAEAAPAU_Node@?$_Tree_nod@V?$_Tmap_traits@KU_Friend@@U?$less@K@std@@V?$allocator@U?$pair@$$CBKU_Friend@@@std@@@3@$0A@@std@@@2@XZ
_TEXT	SEGMENT PARA USE32 PUBLIC 'CODE'
_TEXT	ENDS
;	COMDAT ?_Root@?$_Tree@V?$_Tmap_traits@KU_Friend@@U?$less@K@std@@V?$allocator@U?$pair@$$CBKU_Friend@@@std@@@3@$0A@@std@@@std@@IAEAAPAU_Node@?$_Tree_nod@V?$_Tmap_traits@KU_Friend@@U?$less@K@std@@V?$allocator@U?$pair@$$CBKU_Friend@@@std@@@3@$0A@@std@@@2@XZ
_TEXT	SEGMENT PARA USE32 PUBLIC 'CODE'
_TEXT	ENDS
;	COMDAT ?_Rrotate@?$_Tree@V?$_Tmap_traits@KU_Friend@@U?$less@K@std@@V?$allocator@U?$pair@$$CBKU_Friend@@@std@@@3@$0A@@std@@@std@@IAEXPAU_Node@?$_Tree_nod@V?$_Tmap_traits@KU_Friend@@U?$less@K@std@@V?$allocator@U?$pair@$$CBKU_Friend@@@std@@@3@$0A@@std@@@2@@Z
_TEXT	SEGMENT PARA USE32 PUBLIC 'CODE'
_TEXT	ENDS
;	COMDAT ?_Ubound@?$_Tree@V?$_Tmap_traits@KU_Friend@@U?$less@K@std@@V?$allocator@U?$pair@$$CBKU_Friend@@@std@@@3@$0A@@std@@@std@@IBEPAU_Node@?$_Tree_nod@V?$_Tmap_traits@KU_Friend@@U?$less@K@std@@V?$allocator@U?$pair@$$CBKU_Friend@@@std@@@3@$0A@@std@@@2@ABK@Z
_TEXT	SEGMENT PARA USE32 PUBLIC 'CODE'
_TEXT	ENDS
;	COMDAT ?deallocate@?$allocator@U_Node@?$_Tree_nod@V?$_Tmap_traits@KU_Friend@@U?$less@K@std@@V?$allocator@U?$pair@$$CBKU_Friend@@@std@@@3@$0A@@std@@@std@@@std@@QAEXPAU_Node@?$_Tree_nod@V?$_Tmap_traits@KU_Friend@@U?$less@K@std@@V?$allocator@U?$pair@$$CBKU_Friend@@@std@@@3@$0A@@std@@@2@I@Z
_TEXT	SEGMENT PARA USE32 PUBLIC 'CODE'
_TEXT	ENDS
;	COMDAT ?destroy@?$allocator@U_Node@?$_Tree_nod@V?$_Tmap_traits@KU_Friend@@U?$less@K@std@@V?$allocator@U?$pair@$$CBKU_Friend@@@std@@@3@$0A@@std@@@std@@@std@@QAEXPAU_Node@?$_Tree_nod@V?$_Tmap_traits@KU_Friend@@U?$less@K@std@@V?$allocator@U?$pair@$$CBKU_Friend@@@std@@@3@$0A@@std@@@2@@Z
_TEXT	SEGMENT PARA USE32 PUBLIC 'CODE'
_TEXT	ENDS
;	COMDAT ??0iterator@?$_Tree@V?$_Tmap_traits@KU_Friend@@U?$less@K@std@@V?$allocator@U?$pair@$$CBKU_Friend@@@std@@@3@$0A@@std@@@std@@QAE@PAU_Node@?$_Tree_nod@V?$_Tmap_traits@KU_Friend@@U?$less@K@std@@V?$allocator@U?$pair@$$CBKU_Friend@@@std@@@3@$0A@@std@@@2@@Z
_TEXT	SEGMENT PARA USE32 PUBLIC 'CODE'
_TEXT	ENDS
;	COMDAT ??Eiterator@?$_Tree@V?$_Tmap_traits@KU_Friend@@U?$less@K@std@@V?$allocator@U?$pair@$$CBKU_Friend@@@std@@@3@$0A@@std@@@std@@QAEAAV012@XZ
_TEXT	SEGMENT PARA USE32 PUBLIC 'CODE'
_TEXT	ENDS
;	COMDAT ?_Mynode@const_iterator@?$_Tree@V?$_Tmap_traits@KU_Friend@@U?$less@K@std@@V?$allocator@U?$pair@$$CBKU_Friend@@@std@@@3@$0A@@std@@@std@@QBEPAU_Node@?$_Tree_nod@V?$_Tmap_traits@KU_Friend@@U?$less@K@std@@V?$allocator@U?$pair@$$CBKU_Friend@@@std@@@3@$0A@@std@@@3@XZ
_TEXT	SEGMENT PARA USE32 PUBLIC 'CODE'
_TEXT	ENDS
;	COMDAT ?max_size@?$allocator@U__SECRETROOM_MONSTER@@@std@@QBEIXZ
_TEXT	SEGMENT PARA USE32 PUBLIC 'CODE'
_TEXT	ENDS
;	COMDAT ?max_size@?$vector@UMINIGMAME_PRIZE_LIST@CRainbowRaceMng@@V?$allocator@UMINIGMAME_PRIZE_LIST@CRainbowRaceMng@@@std@@@std@@QBEIXZ
_TEXT	SEGMENT PARA USE32 PUBLIC 'CODE'
_TEXT	ENDS
;	COMDAT ?_Destroy@?$vector@UMINIGMAME_PRIZE_LIST@CRainbowRaceMng@@V?$allocator@UMINIGMAME_PRIZE_LIST@CRainbowRaceMng@@@std@@@std@@IAEXPAUMINIGMAME_PRIZE_LIST@CRainbowRaceMng@@0@Z
_TEXT	SEGMENT PARA USE32 PUBLIC 'CODE'
_TEXT	ENDS
;	COMDAT ?_Xlen@?$vector@UMINIGMAME_PRIZE_LIST@CRainbowRaceMng@@V?$allocator@UMINIGMAME_PRIZE_LIST@CRainbowRaceMng@@@std@@@std@@IBEXXZ
_TEXT	SEGMENT PARA USE32 PUBLIC 'CODE'
_TEXT	ENDS
;	COMDAT ?deallocate@?$allocator@UMINIGMAME_PRIZE_LIST@CRainbowRaceMng@@@std@@QAEXPAUMINIGMAME_PRIZE_LIST@CRainbowRaceMng@@I@Z
_TEXT	SEGMENT PARA USE32 PUBLIC 'CODE'
_TEXT	ENDS
;	COMDAT ?allocate@?$allocator@UMINIGMAME_PRIZE_LIST@CRainbowRaceMng@@@std@@QAEPAUMINIGMAME_PRIZE_LIST@CRainbowRaceMng@@I@Z
_TEXT	SEGMENT PARA USE32 PUBLIC 'CODE'
_TEXT	ENDS
;	COMDAT ?max_size@?$allocator@U?$pair@$$CBKPAVCGuildHouseBase@@@std@@@std@@QBEIXZ
_TEXT	SEGMENT PARA USE32 PUBLIC 'CODE'
_TEXT	ENDS
;	COMDAT ?deallocate@?$allocator@U_Node@?$_Tree_nod@V?$_Tmap_traits@KPAVCGuildHouseBase@@U?$less@K@std@@V?$allocator@U?$pair@$$CBKPAVCGuildHouseBase@@@std@@@3@$0A@@std@@@std@@@std@@QAEXPAU_Node@?$_Tree_nod@V?$_Tmap_traits@KPAVCGuildHouseBase@@U?$less@K@std@@V?$allocator@U?$pair@$$CBKPAVCGuildHouseBase@@@std@@@3@$0A@@std@@@2@I@Z
_TEXT	SEGMENT PARA USE32 PUBLIC 'CODE'
_TEXT	ENDS
;	COMDAT ?allocate@?$allocator@U_Node@?$_Tree_nod@V?$_Tmap_traits@KPAVCGuildHouseBase@@U?$less@K@std@@V?$allocator@U?$pair@$$CBKPAVCGuildHouseBase@@@std@@@3@$0A@@std@@@std@@@std@@QAEPAU_Node@?$_Tree_nod@V?$_Tmap_traits@KPAVCGuildHouseBase@@U?$less@K@std@@V?$allocator@U?$pair@$$CBKPAVCGuildHouseBase@@@std@@@3@$0A@@std@@@2@I@Z
_TEXT	SEGMENT PARA USE32 PUBLIC 'CODE'
_TEXT	ENDS
;	COMDAT ?_Dec@const_iterator@?$_Tree@V?$_Tmap_traits@KPAVCGuildHouseBase@@U?$less@K@std@@V?$allocator@U?$pair@$$CBKPAVCGuildHouseBase@@@std@@@3@$0A@@std@@@std@@QAEXXZ
_TEXT	SEGMENT PARA USE32 PUBLIC 'CODE'
_TEXT	ENDS
;	COMDAT ?_Color@?$_Tree@V?$_Tmap_traits@KKU?$less@K@std@@V?$allocator@U?$pair@$$CBKK@std@@@2@$0A@@std@@@std@@KAAADPAU_Node@?$_Tree_nod@V?$_Tmap_traits@KKU?$less@K@std@@V?$allocator@U?$pair@$$CBKK@std@@@2@$0A@@std@@@2@@Z
_TEXT	SEGMENT PARA USE32 PUBLIC 'CODE'
_TEXT	ENDS
;	COMDAT ?_Isnil@?$_Tree@V?$_Tmap_traits@KKU?$less@K@std@@V?$allocator@U?$pair@$$CBKK@std@@@2@$0A@@std@@@std@@KAAADPAU_Node@?$_Tree_nod@V?$_Tmap_traits@KKU?$less@K@std@@V?$allocator@U?$pair@$$CBKK@std@@@2@$0A@@std@@@2@@Z
_TEXT	SEGMENT PARA USE32 PUBLIC 'CODE'
_TEXT	ENDS
;	COMDAT ?_Left@?$_Tree@V?$_Tmap_traits@KKU?$less@K@std@@V?$allocator@U?$pair@$$CBKK@std@@@2@$0A@@std@@@std@@KAAAPAU_Node@?$_Tree_nod@V?$_Tmap_traits@KKU?$less@K@std@@V?$allocator@U?$pair@$$CBKK@std@@@2@$0A@@std@@@2@PAU342@@Z
_TEXT	SEGMENT PARA USE32 PUBLIC 'CODE'
_TEXT	ENDS
;	COMDAT ?_Parent@?$_Tree@V?$_Tmap_traits@KKU?$less@K@std@@V?$allocator@U?$pair@$$CBKK@std@@@2@$0A@@std@@@std@@KAAAPAU_Node@?$_Tree_nod@V?$_Tmap_traits@KKU?$less@K@std@@V?$allocator@U?$pair@$$CBKK@std@@@2@$0A@@std@@@2@PAU342@@Z
_TEXT	SEGMENT PARA USE32 PUBLIC 'CODE'
_TEXT	ENDS
;	COMDAT ?_Right@?$_Tree@V?$_Tmap_traits@KKU?$less@K@std@@V?$allocator@U?$pair@$$CBKK@std@@@2@$0A@@std@@@std@@KAAAPAU_Node@?$_Tree_nod@V?$_Tmap_traits@KKU?$less@K@std@@V?$allocator@U?$pair@$$CBKK@std@@@2@$0A@@std@@@2@PAU342@@Z
_TEXT	SEGMENT PARA USE32 PUBLIC 'CODE'
_TEXT	ENDS
;	COMDAT ?_Erase@?$_Tree@V?$_Tmap_traits@KKU?$less@K@std@@V?$allocator@U?$pair@$$CBKK@std@@@2@$0A@@std@@@std@@IAEXPAU_Node@?$_Tree_nod@V?$_Tmap_traits@KKU?$less@K@std@@V?$allocator@U?$pair@$$CBKK@std@@@2@$0A@@std@@@2@@Z
_TEXT	SEGMENT PARA USE32 PUBLIC 'CODE'
_TEXT	ENDS
;	COMDAT ?_Lbound@?$_Tree@V?$_Tmap_traits@KKU?$less@K@std@@V?$allocator@U?$pair@$$CBKK@std@@@2@$0A@@std@@@std@@IBEPAU_Node@?$_Tree_nod@V?$_Tmap_traits@KKU?$less@K@std@@V?$allocator@U?$pair@$$CBKK@std@@@2@$0A@@std@@@2@ABK@Z
_TEXT	SEGMENT PARA USE32 PUBLIC 'CODE'
_TEXT	ENDS
;	COMDAT ?_Lmost@?$_Tree@V?$_Tmap_traits@KKU?$less@K@std@@V?$allocator@U?$pair@$$CBKK@std@@@2@$0A@@std@@@std@@IAEAAPAU_Node@?$_Tree_nod@V?$_Tmap_traits@KKU?$less@K@std@@V?$allocator@U?$pair@$$CBKK@std@@@2@$0A@@std@@@2@XZ
_TEXT	SEGMENT PARA USE32 PUBLIC 'CODE'
_TEXT	ENDS
;	COMDAT ?_Lrotate@?$_Tree@V?$_Tmap_traits@KKU?$less@K@std@@V?$allocator@U?$pair@$$CBKK@std@@@2@$0A@@std@@@std@@IAEXPAU_Node@?$_Tree_nod@V?$_Tmap_traits@KKU?$less@K@std@@V?$allocator@U?$pair@$$CBKK@std@@@2@$0A@@std@@@2@@Z
_TEXT	SEGMENT PARA USE32 PUBLIC 'CODE'
_TEXT	ENDS
;	COMDAT ?_Max@?$_Tree@V?$_Tmap_traits@KKU?$less@K@std@@V?$allocator@U?$pair@$$CBKK@std@@@2@$0A@@std@@@std@@KAPAU_Node@?$_Tree_nod@V?$_Tmap_traits@KKU?$less@K@std@@V?$allocator@U?$pair@$$CBKK@std@@@2@$0A@@std@@@2@PAU342@@Z
_TEXT	SEGMENT PARA USE32 PUBLIC 'CODE'
_TEXT	ENDS
;	COMDAT ?_Min@?$_Tree@V?$_Tmap_traits@KKU?$less@K@std@@V?$allocator@U?$pair@$$CBKK@std@@@2@$0A@@std@@@std@@KAPAU_Node@?$_Tree_nod@V?$_Tmap_traits@KKU?$less@K@std@@V?$allocator@U?$pair@$$CBKK@std@@@2@$0A@@std@@@2@PAU342@@Z
_TEXT	SEGMENT PARA USE32 PUBLIC 'CODE'
_TEXT	ENDS
;	COMDAT ?_Rmost@?$_Tree@V?$_Tmap_traits@KKU?$less@K@std@@V?$allocator@U?$pair@$$CBKK@std@@@2@$0A@@std@@@std@@IAEAAPAU_Node@?$_Tree_nod@V?$_Tmap_traits@KKU?$less@K@std@@V?$allocator@U?$pair@$$CBKK@std@@@2@$0A@@std@@@2@XZ
_TEXT	SEGMENT PARA USE32 PUBLIC 'CODE'
_TEXT	ENDS
;	COMDAT ?_Root@?$_Tree@V?$_Tmap_traits@KKU?$less@K@std@@V?$allocator@U?$pair@$$CBKK@std@@@2@$0A@@std@@@std@@IAEAAPAU_Node@?$_Tree_nod@V?$_Tmap_traits@KKU?$less@K@std@@V?$allocator@U?$pair@$$CBKK@std@@@2@$0A@@std@@@2@XZ
_TEXT	SEGMENT PARA USE32 PUBLIC 'CODE'
_TEXT	ENDS
;	COMDAT ?_Rrotate@?$_Tree@V?$_Tmap_traits@KKU?$less@K@std@@V?$allocator@U?$pair@$$CBKK@std@@@2@$0A@@std@@@std@@IAEXPAU_Node@?$_Tree_nod@V?$_Tmap_traits@KKU?$less@K@std@@V?$allocator@U?$pair@$$CBKK@std@@@2@$0A@@std@@@2@@Z
_TEXT	SEGMENT PARA USE32 PUBLIC 'CODE'
_TEXT	ENDS
;	COMDAT ?_Ubound@?$_Tree@V?$_Tmap_traits@KKU?$less@K@std@@V?$allocator@U?$pair@$$CBKK@std@@@2@$0A@@std@@@std@@IBEPAU_Node@?$_Tree_nod@V?$_Tmap_traits@KKU?$less@K@std@@V?$allocator@U?$pair@$$CBKK@std@@@2@$0A@@std@@@2@ABK@Z
_TEXT	SEGMENT PARA USE32 PUBLIC 'CODE'
_TEXT	ENDS
;	COMDAT ?deallocate@?$allocator@U_Node@?$_Tree_nod@V?$_Tmap_traits@KKU?$less@K@std@@V?$allocator@U?$pair@$$CBKK@std@@@2@$0A@@std@@@std@@@std@@QAEXPAU_Node@?$_Tree_nod@V?$_Tmap_traits@KKU?$less@K@std@@V?$allocator@U?$pair@$$CBKK@std@@@2@$0A@@std@@@2@I@Z
_TEXT	SEGMENT PARA USE32 PUBLIC 'CODE'
_TEXT	ENDS
;	COMDAT ?destroy@?$allocator@U_Node@?$_Tree_nod@V?$_Tmap_traits@KKU?$less@K@std@@V?$allocator@U?$pair@$$CBKK@std@@@2@$0A@@std@@@std@@@std@@QAEXPAU_Node@?$_Tree_nod@V?$_Tmap_traits@KKU?$less@K@std@@V?$allocator@U?$pair@$$CBKK@std@@@2@$0A@@std@@@2@@Z
_TEXT	SEGMENT PARA USE32 PUBLIC 'CODE'
_TEXT	ENDS
;	COMDAT ??0iterator@?$_Tree@V?$_Tmap_traits@KKU?$less@K@std@@V?$allocator@U?$pair@$$CBKK@std@@@2@$0A@@std@@@std@@QAE@PAU_Node@?$_Tree_nod@V?$_Tmap_traits@KKU?$less@K@std@@V?$allocator@U?$pair@$$CBKK@std@@@2@$0A@@std@@@2@@Z
_TEXT	SEGMENT PARA USE32 PUBLIC 'CODE'
_TEXT	ENDS
;	COMDAT ??Eiterator@?$_Tree@V?$_Tmap_traits@KKU?$less@K@std@@V?$allocator@U?$pair@$$CBKK@std@@@2@$0A@@std@@@std@@QAEAAV012@XZ
_TEXT	SEGMENT PARA USE32 PUBLIC 'CODE'
_TEXT	ENDS
;	COMDAT ?_Mynode@const_iterator@?$_Tree@V?$_Tmap_traits@KKU?$less@K@std@@V?$allocator@U?$pair@$$CBKK@std@@@2@$0A@@std@@@std@@QBEPAU_Node@?$_Tree_nod@V?$_Tmap_traits@KKU?$less@K@std@@V?$allocator@U?$pair@$$CBKK@std@@@2@$0A@@std@@@3@XZ
_TEXT	SEGMENT PARA USE32 PUBLIC 'CODE'
_TEXT	ENDS
;	COMDAT ?_Isnil@?$_Tree@V?$_Tmap_traits@KPAVCClientSock@@U?$less@K@std@@V?$allocator@U?$pair@$$CBKPAVCClientSock@@@std@@@3@$0A@@std@@@std@@KAAADPAU_Node@?$_Tree_nod@V?$_Tmap_traits@KPAVCClientSock@@U?$less@K@std@@V?$allocator@U?$pair@$$CBKPAVCClientSock@@@std@@@3@$0A@@std@@@2@@Z
_TEXT	SEGMENT PARA USE32 PUBLIC 'CODE'
_TEXT	ENDS
;	COMDAT ?erase@?$_Tree@V?$_Tmap_traits@KPAVCClientSock@@U?$less@K@std@@V?$allocator@U?$pair@$$CBKPAVCClientSock@@@std@@@3@$0A@@std@@@std@@QAE?AViterator@12@V312@@Z
_TEXT	SEGMENT PARA USE32 PUBLIC 'CODE'
_TEXT	ENDS
;	COMDAT ?clear@?$_Tree@V?$_Tmap_traits@KPAVCClientSock@@U?$less@K@std@@V?$allocator@U?$pair@$$CBKPAVCClientSock@@@std@@@3@$0A@@std@@@std@@QAEXXZ
_TEXT	SEGMENT PARA USE32 PUBLIC 'CODE'
_TEXT	ENDS
;	COMDAT ?_Lmost@?$_Tree@V?$_Tmap_traits@KPAVCClientSock@@U?$less@K@std@@V?$allocator@U?$pair@$$CBKPAVCClientSock@@@std@@@3@$0A@@std@@@std@@IAEAAPAU_Node@?$_Tree_nod@V?$_Tmap_traits@KPAVCClientSock@@U?$less@K@std@@V?$allocator@U?$pair@$$CBKPAVCClientSock@@@std@@@3@$0A@@std@@@2@XZ
_TEXT	SEGMENT PARA USE32 PUBLIC 'CODE'
_TEXT	ENDS
;	COMDAT ?_Rmost@?$_Tree@V?$_Tmap_traits@KPAVCClientSock@@U?$less@K@std@@V?$allocator@U?$pair@$$CBKPAVCClientSock@@@std@@@3@$0A@@std@@@std@@IAEAAPAU_Node@?$_Tree_nod@V?$_Tmap_traits@KPAVCClientSock@@U?$less@K@std@@V?$allocator@U?$pair@$$CBKPAVCClientSock@@@std@@@3@$0A@@std@@@2@XZ
_TEXT	SEGMENT PARA USE32 PUBLIC 'CODE'
_TEXT	ENDS
;	COMDAT ?_Root@?$_Tree@V?$_Tmap_traits@KPAVCClientSock@@U?$less@K@std@@V?$allocator@U?$pair@$$CBKPAVCClientSock@@@std@@@3@$0A@@std@@@std@@IAEAAPAU_Node@?$_Tree_nod@V?$_Tmap_traits@KPAVCClientSock@@U?$less@K@std@@V?$allocator@U?$pair@$$CBKPAVCClientSock@@@std@@@3@$0A@@std@@@2@XZ
_TEXT	SEGMENT PARA USE32 PUBLIC 'CODE'
_TEXT	ENDS
;	COMDAT ?_Root@?$_Tree@V?$_Tmap_traits@KPAVCClientSock@@U?$less@K@std@@V?$allocator@U?$pair@$$CBKPAVCClientSock@@@std@@@3@$0A@@std@@@std@@IBEAAPAU_Node@?$_Tree_nod@V?$_Tmap_traits@KPAVCClientSock@@U?$less@K@std@@V?$allocator@U?$pair@$$CBKPAVCClientSock@@@std@@@3@$0A@@std@@@2@XZ
_TEXT	SEGMENT PARA USE32 PUBLIC 'CODE'
_TEXT	ENDS
;	COMDAT ?_Buynode@?$_Tree@V?$_Tmap_traits@KPAVCClientSock@@U?$less@K@std@@V?$allocator@U?$pair@$$CBKPAVCClientSock@@@std@@@3@$0A@@std@@@std@@IAEPAU_Node@?$_Tree_nod@V?$_Tmap_traits@KPAVCClientSock@@U?$less@K@std@@V?$allocator@U?$pair@$$CBKPAVCClientSock@@@std@@@3@$0A@@std@@@2@XZ
_TEXT	SEGMENT PARA USE32 PUBLIC 'CODE'
_TEXT	ENDS
;	COMDAT ??0?$_Tree_ptr@V?$_Tmap_traits@KPAVCClientSock@@U?$less@K@std@@V?$allocator@U?$pair@$$CBKPAVCClientSock@@@std@@@3@$0A@@std@@@std@@IAE@ABU?$less@K@1@V?$allocator@U?$pair@$$CBKPAVCClientSock@@@std@@@1@@Z
_TEXT	SEGMENT PARA USE32 PUBLIC 'CODE'
_TEXT	ENDS
;	COMDAT ??Eiterator@?$_Tree@V?$_Tmap_traits@KPAVCClientSock@@U?$less@K@std@@V?$allocator@U?$pair@$$CBKPAVCClientSock@@@std@@@3@$0A@@std@@@std@@QAE?AV012@H@Z
_TEXT	SEGMENT PARA USE32 PUBLIC 'CODE'
_TEXT	ENDS
;	COMDAT ?_Isnil@?$_Tree@V?$_Tmap_traits@KPAVCClientSockE@@U?$less@K@std@@V?$allocator@U?$pair@$$CBKPAVCClientSockE@@@std@@@3@$0A@@std@@@std@@KAAADPAU_Node@?$_Tree_nod@V?$_Tmap_traits@KPAVCClientSockE@@U?$less@K@std@@V?$allocator@U?$pair@$$CBKPAVCClientSockE@@@std@@@3@$0A@@std@@@2@@Z
_TEXT	SEGMENT PARA USE32 PUBLIC 'CODE'
_TEXT	ENDS
;	COMDAT ?erase@?$_Tree@V?$_Tmap_traits@KPAVCClientSockE@@U?$less@K@std@@V?$allocator@U?$pair@$$CBKPAVCClientSockE@@@std@@@3@$0A@@std@@@std@@QAE?AViterator@12@V312@@Z
_TEXT	SEGMENT PARA USE32 PUBLIC 'CODE'
_TEXT	ENDS
;	COMDAT ?clear@?$_Tree@V?$_Tmap_traits@KPAVCClientSockE@@U?$less@K@std@@V?$allocator@U?$pair@$$CBKPAVCClientSockE@@@std@@@3@$0A@@std@@@std@@QAEXXZ
_TEXT	SEGMENT PARA USE32 PUBLIC 'CODE'
_TEXT	ENDS
;	COMDAT ?_Lmost@?$_Tree@V?$_Tmap_traits@KPAVCClientSockE@@U?$less@K@std@@V?$allocator@U?$pair@$$CBKPAVCClientSockE@@@std@@@3@$0A@@std@@@std@@IAEAAPAU_Node@?$_Tree_nod@V?$_Tmap_traits@KPAVCClientSockE@@U?$less@K@std@@V?$allocator@U?$pair@$$CBKPAVCClientSockE@@@std@@@3@$0A@@std@@@2@XZ
_TEXT	SEGMENT PARA USE32 PUBLIC 'CODE'
_TEXT	ENDS
;	COMDAT ?_Rmost@?$_Tree@V?$_Tmap_traits@KPAVCClientSockE@@U?$less@K@std@@V?$allocator@U?$pair@$$CBKPAVCClientSockE@@@std@@@3@$0A@@std@@@std@@IAEAAPAU_Node@?$_Tree_nod@V?$_Tmap_traits@KPAVCClientSockE@@U?$less@K@std@@V?$allocator@U?$pair@$$CBKPAVCClientSockE@@@std@@@3@$0A@@std@@@2@XZ
_TEXT	SEGMENT PARA USE32 PUBLIC 'CODE'
_TEXT	ENDS
;	COMDAT ?_Root@?$_Tree@V?$_Tmap_traits@KPAVCClientSockE@@U?$less@K@std@@V?$allocator@U?$pair@$$CBKPAVCClientSockE@@@std@@@3@$0A@@std@@@std@@IAEAAPAU_Node@?$_Tree_nod@V?$_Tmap_traits@KPAVCClientSockE@@U?$less@K@std@@V?$allocator@U?$pair@$$CBKPAVCClientSockE@@@std@@@3@$0A@@std@@@2@XZ
_TEXT	SEGMENT PARA USE32 PUBLIC 'CODE'
_TEXT	ENDS
;	COMDAT ?_Root@?$_Tree@V?$_Tmap_traits@KPAVCClientSockE@@U?$less@K@std@@V?$allocator@U?$pair@$$CBKPAVCClientSockE@@@std@@@3@$0A@@std@@@std@@IBEAAPAU_Node@?$_Tree_nod@V?$_Tmap_traits@KPAVCClientSockE@@U?$less@K@std@@V?$allocator@U?$pair@$$CBKPAVCClientSockE@@@std@@@3@$0A@@std@@@2@XZ
_TEXT	SEGMENT PARA USE32 PUBLIC 'CODE'
_TEXT	ENDS
;	COMDAT ?_Buynode@?$_Tree@V?$_Tmap_traits@KPAVCClientSockE@@U?$less@K@std@@V?$allocator@U?$pair@$$CBKPAVCClientSockE@@@std@@@3@$0A@@std@@@std@@IAEPAU_Node@?$_Tree_nod@V?$_Tmap_traits@KPAVCClientSockE@@U?$less@K@std@@V?$allocator@U?$pair@$$CBKPAVCClientSockE@@@std@@@3@$0A@@std@@@2@XZ
_TEXT	SEGMENT PARA USE32 PUBLIC 'CODE'
_TEXT	ENDS
;	COMDAT ??0?$_Tree_ptr@V?$_Tmap_traits@KPAVCClientSockE@@U?$less@K@std@@V?$allocator@U?$pair@$$CBKPAVCClientSockE@@@std@@@3@$0A@@std@@@std@@IAE@ABU?$less@K@1@V?$allocator@U?$pair@$$CBKPAVCClientSockE@@@std@@@1@@Z
_TEXT	SEGMENT PARA USE32 PUBLIC 'CODE'
_TEXT	ENDS
;	COMDAT ??Eiterator@?$_Tree@V?$_Tmap_traits@KPAVCClientSockE@@U?$less@K@std@@V?$allocator@U?$pair@$$CBKPAVCClientSockE@@@std@@@3@$0A@@std@@@std@@QAE?AV012@H@Z
_TEXT	SEGMENT PARA USE32 PUBLIC 'CODE'
_TEXT	ENDS
;	COMDAT ?_Isnil@?$_Tree@V?$_Tmap_traits@KP8CDPCoreClient@@AEXAAVCAr@@KKK@ZU?$less@K@std@@V?$allocator@U?$pair@$$CBKP8CDPCoreClient@@AEXAAVCAr@@KKK@Z@std@@@4@$0A@@std@@@std@@KAAADPAU_Node@?$_Tree_nod@V?$_Tmap_traits@KP8CDPCoreClient@@AEXAAVCAr@@KKK@ZU?$less@K@std@@V?$allocator@U?$pair@$$CBKP8CDPCoreClient@@AEXAAVCAr@@KKK@Z@std@@@4@$0A@@std@@@2@@Z
_TEXT	SEGMENT PARA USE32 PUBLIC 'CODE'
_TEXT	ENDS
;	COMDAT ?_Left@?$_Tree@V?$_Tmap_traits@KP8CDPCoreClient@@AEXAAVCAr@@KKK@ZU?$less@K@std@@V?$allocator@U?$pair@$$CBKP8CDPCoreClient@@AEXAAVCAr@@KKK@Z@std@@@4@$0A@@std@@@std@@KAAAPAU_Node@?$_Tree_nod@V?$_Tmap_traits@KP8CDPCoreClient@@AEXAAVCAr@@KKK@ZU?$less@K@std@@V?$allocator@U?$pair@$$CBKP8CDPCoreClient@@AEXAAVCAr@@KKK@Z@std@@@4@$0A@@std@@@2@PAU342@@Z
_TEXT	SEGMENT PARA USE32 PUBLIC 'CODE'
_TEXT	ENDS
;	COMDAT ?_Right@?$_Tree@V?$_Tmap_traits@KP8CDPCoreClient@@AEXAAVCAr@@KKK@ZU?$less@K@std@@V?$allocator@U?$pair@$$CBKP8CDPCoreClient@@AEXAAVCAr@@KKK@Z@std@@@4@$0A@@std@@@std@@KAAAPAU_Node@?$_Tree_nod@V?$_Tmap_traits@KP8CDPCoreClient@@AEXAAVCAr@@KKK@ZU?$less@K@std@@V?$allocator@U?$pair@$$CBKP8CDPCoreClient@@AEXAAVCAr@@KKK@Z@std@@@4@$0A@@std@@@2@PAU342@@Z
_TEXT	SEGMENT PARA USE32 PUBLIC 'CODE'
_TEXT	ENDS
;	COMDAT ?_Root@?$_Tree@V?$_Tmap_traits@KP8CDPCoreClient@@AEXAAVCAr@@KKK@ZU?$less@K@std@@V?$allocator@U?$pair@$$CBKP8CDPCoreClient@@AEXAAVCAr@@KKK@Z@std@@@4@$0A@@std@@@std@@IBEAAPAU_Node@?$_Tree_nod@V?$_Tmap_traits@KP8CDPCoreClient@@AEXAAVCAr@@KKK@ZU?$less@K@std@@V?$allocator@U?$pair@$$CBKP8CDPCoreClient@@AEXAAVCAr@@KKK@Z@std@@@4@$0A@@std@@@2@XZ
_TEXT	SEGMENT PARA USE32 PUBLIC 'CODE'
_TEXT	ENDS
;	COMDAT ??0const_iterator@?$vector@PAU__JOINPLAYER@CGuildCombat@@V?$allocator@PAU__JOINPLAYER@CGuildCombat@@@std@@@std@@QAE@PAPAU__JOINPLAYER@CGuildCombat@@@Z
_TEXT	SEGMENT PARA USE32 PUBLIC 'CODE'
_TEXT	ENDS
;	COMDAT ??0const_iterator@?$vector@V?$basic_string@DU?$char_traits@D@std@@V?$allocator@D@2@@std@@V?$allocator@V?$basic_string@DU?$char_traits@D@std@@V?$allocator@D@2@@std@@@2@@std@@QAE@PAV?$basic_string@DU?$char_traits@D@std@@V?$allocator@D@2@@2@@Z
_TEXT	SEGMENT PARA USE32 PUBLIC 'CODE'
_TEXT	ENDS
;	COMDAT ??Gconst_iterator@?$vector@V?$basic_string@DU?$char_traits@D@std@@V?$allocator@D@2@@std@@V?$allocator@V?$basic_string@DU?$char_traits@D@std@@V?$allocator@D@2@@std@@@2@@std@@QBEHABV012@@Z
_TEXT	SEGMENT PARA USE32 PUBLIC 'CODE'
_TEXT	ENDS
;	COMDAT ??Yiterator@?$vector@UMINIGMAME_PRIZE_LIST@CRainbowRaceMng@@V?$allocator@UMINIGMAME_PRIZE_LIST@CRainbowRaceMng@@@std@@@std@@QAEAAV012@H@Z
_TEXT	SEGMENT PARA USE32 PUBLIC 'CODE'
_TEXT	ENDS
;	COMDAT ??0const_iterator@?$vector@UMINIGMAME_PRIZE_LIST@CRainbowRaceMng@@V?$allocator@UMINIGMAME_PRIZE_LIST@CRainbowRaceMng@@@std@@@std@@QAE@PAUMINIGMAME_PRIZE_LIST@CRainbowRaceMng@@@Z
_TEXT	SEGMENT PARA USE32 PUBLIC 'CODE'
_TEXT	ENDS
;	COMDAT ??Gconst_iterator@?$vector@UMINIGMAME_PRIZE_LIST@CRainbowRaceMng@@V?$allocator@UMINIGMAME_PRIZE_LIST@CRainbowRaceMng@@@std@@@std@@QBEHABV012@@Z
_TEXT	SEGMENT PARA USE32 PUBLIC 'CODE'
_TEXT	ENDS
;	COMDAT ??0const_iterator@?$vector@PAVCMiniGameBase@@V?$allocator@PAVCMiniGameBase@@@std@@@std@@QAE@PAPAVCMiniGameBase@@@Z
_TEXT	SEGMENT PARA USE32 PUBLIC 'CODE'
_TEXT	ENDS
;	COMDAT ??0const_iterator@?$vector@UGuildHouse_Furniture_Info@CGuildHouseBase@@V?$allocator@UGuildHouse_Furniture_Info@CGuildHouseBase@@@std@@@std@@QAE@PAUGuildHouse_Furniture_Info@CGuildHouseBase@@@Z
_TEXT	SEGMENT PARA USE32 PUBLIC 'CODE'
_TEXT	ENDS
;	COMDAT ??0_Node@?$_Tree_nod@V?$_Tmap_traits@KPAVCGuildHouseBase@@U?$less@K@std@@V?$allocator@U?$pair@$$CBKPAVCGuildHouseBase@@@std@@@3@$0A@@std@@@std@@QAE@PAU012@00ABU?$pair@$$CBKPAVCGuildHouseBase@@@2@D@Z
_TEXT	SEGMENT PARA USE32 PUBLIC 'CODE'
_TEXT	ENDS
;	COMDAT ?_Key@?$_Tree@V?$_Tmap_traits@KU_Friend@@U?$less@K@std@@V?$allocator@U?$pair@$$CBKU_Friend@@@std@@@3@$0A@@std@@@std@@KAABKPAU_Node@?$_Tree_nod@V?$_Tmap_traits@KU_Friend@@U?$less@K@std@@V?$allocator@U?$pair@$$CBKU_Friend@@@std@@@3@$0A@@std@@@2@@Z
_TEXT	SEGMENT PARA USE32 PUBLIC 'CODE'
_TEXT	ENDS
;	COMDAT ?_Root@?$_Tree@V?$_Tmap_traits@KU_Friend@@U?$less@K@std@@V?$allocator@U?$pair@$$CBKU_Friend@@@std@@@3@$0A@@std@@@std@@IBEAAPAU_Node@?$_Tree_nod@V?$_Tmap_traits@KU_Friend@@U?$less@K@std@@V?$allocator@U?$pair@$$CBKU_Friend@@@std@@@3@$0A@@std@@@2@XZ
_TEXT	SEGMENT PARA USE32 PUBLIC 'CODE'
_TEXT	ENDS
;	COMDAT ??0const_iterator@?$_Tree@V?$_Tmap_traits@KU_Friend@@U?$less@K@std@@V?$allocator@U?$pair@$$CBKU_Friend@@@std@@@3@$0A@@std@@@std@@QAE@PAU_Node@?$_Tree_nod@V?$_Tmap_traits@KU_Friend@@U?$less@K@std@@V?$allocator@U?$pair@$$CBKU_Friend@@@std@@@3@$0A@@std@@@2@@Z
_TEXT	SEGMENT PARA USE32 PUBLIC 'CODE'
_TEXT	ENDS
;	COMDAT ??Econst_iterator@?$_Tree@V?$_Tmap_traits@KU_Friend@@U?$less@K@std@@V?$allocator@U?$pair@$$CBKU_Friend@@@std@@@3@$0A@@std@@@std@@QAEAAV012@XZ
_TEXT	SEGMENT PARA USE32 PUBLIC 'CODE'
_TEXT	ENDS
;	COMDAT ?max_size@?$allocator@UMINIGMAME_PRIZE_LIST@CRainbowRaceMng@@@std@@QBEIXZ
_TEXT	SEGMENT PARA USE32 PUBLIC 'CODE'
_TEXT	ENDS
;	COMDAT ?_Max@?$_Tree@V?$_Tmap_traits@KPAVCGuildHouseBase@@U?$less@K@std@@V?$allocator@U?$pair@$$CBKPAVCGuildHouseBase@@@std@@@3@$0A@@std@@@std@@KAPAU_Node@?$_Tree_nod@V?$_Tmap_traits@KPAVCGuildHouseBase@@U?$less@K@std@@V?$allocator@U?$pair@$$CBKPAVCGuildHouseBase@@@std@@@3@$0A@@std@@@2@PAU342@@Z
_TEXT	SEGMENT PARA USE32 PUBLIC 'CODE'
_TEXT	ENDS
;	COMDAT ?_Key@?$_Tree@V?$_Tmap_traits@KKU?$less@K@std@@V?$allocator@U?$pair@$$CBKK@std@@@2@$0A@@std@@@std@@KAABKPAU_Node@?$_Tree_nod@V?$_Tmap_traits@KKU?$less@K@std@@V?$allocator@U?$pair@$$CBKK@std@@@2@$0A@@std@@@2@@Z
_TEXT	SEGMENT PARA USE32 PUBLIC 'CODE'
_TEXT	ENDS
;	COMDAT ?_Root@?$_Tree@V?$_Tmap_traits@KKU?$less@K@std@@V?$allocator@U?$pair@$$CBKK@std@@@2@$0A@@std@@@std@@IBEAAPAU_Node@?$_Tree_nod@V?$_Tmap_traits@KKU?$less@K@std@@V?$allocator@U?$pair@$$CBKK@std@@@2@$0A@@std@@@2@XZ
_TEXT	SEGMENT PARA USE32 PUBLIC 'CODE'
_TEXT	ENDS
;	COMDAT ??0const_iterator@?$_Tree@V?$_Tmap_traits@KKU?$less@K@std@@V?$allocator@U?$pair@$$CBKK@std@@@2@$0A@@std@@@std@@QAE@PAU_Node@?$_Tree_nod@V?$_Tmap_traits@KKU?$less@K@std@@V?$allocator@U?$pair@$$CBKK@std@@@2@$0A@@std@@@2@@Z
_TEXT	SEGMENT PARA USE32 PUBLIC 'CODE'
_TEXT	ENDS
;	COMDAT ??Econst_iterator@?$_Tree@V?$_Tmap_traits@KKU?$less@K@std@@V?$allocator@U?$pair@$$CBKK@std@@@2@$0A@@std@@@std@@QAEAAV012@XZ
_TEXT	SEGMENT PARA USE32 PUBLIC 'CODE'
_TEXT	ENDS
;	COMDAT ?_Color@?$_Tree@V?$_Tmap_traits@KPAVCClientSock@@U?$less@K@std@@V?$allocator@U?$pair@$$CBKPAVCClientSock@@@std@@@3@$0A@@std@@@std@@KAAADPAU_Node@?$_Tree_nod@V?$_Tmap_traits@KPAVCClientSock@@U?$less@K@std@@V?$allocator@U?$pair@$$CBKPAVCClientSock@@@std@@@3@$0A@@std@@@2@@Z
_TEXT	SEGMENT PARA USE32 PUBLIC 'CODE'
_TEXT	ENDS
;	COMDAT ?_Erase@?$_Tree@V?$_Tmap_traits@KPAVCClientSock@@U?$less@K@std@@V?$allocator@U?$pair@$$CBKPAVCClientSock@@@std@@@3@$0A@@std@@@std@@IAEXPAU_Node@?$_Tree_nod@V?$_Tmap_traits@KPAVCClientSock@@U?$less@K@std@@V?$allocator@U?$pair@$$CBKPAVCClientSock@@@std@@@3@$0A@@std@@@2@@Z
_TEXT	SEGMENT PARA USE32 PUBLIC 'CODE'
_TEXT	ENDS
;	COMDAT ?_Lrotate@?$_Tree@V?$_Tmap_traits@KPAVCClientSock@@U?$less@K@std@@V?$allocator@U?$pair@$$CBKPAVCClientSock@@@std@@@3@$0A@@std@@@std@@IAEXPAU_Node@?$_Tree_nod@V?$_Tmap_traits@KPAVCClientSock@@U?$less@K@std@@V?$allocator@U?$pair@$$CBKPAVCClientSock@@@std@@@3@$0A@@std@@@2@@Z
_TEXT	SEGMENT PARA USE32 PUBLIC 'CODE'
_TEXT	ENDS
;	COMDAT ?_Max@?$_Tree@V?$_Tmap_traits@KPAVCClientSock@@U?$less@K@std@@V?$allocator@U?$pair@$$CBKPAVCClientSock@@@std@@@3@$0A@@std@@@std@@KAPAU_Node@?$_Tree_nod@V?$_Tmap_traits@KPAVCClientSock@@U?$less@K@std@@V?$allocator@U?$pair@$$CBKPAVCClientSock@@@std@@@3@$0A@@std@@@2@PAU342@@Z
_TEXT	SEGMENT PARA USE32 PUBLIC 'CODE'
_TEXT	ENDS
;	COMDAT ?_Min@?$_Tree@V?$_Tmap_traits@KPAVCClientSock@@U?$less@K@std@@V?$allocator@U?$pair@$$CBKPAVCClientSock@@@std@@@3@$0A@@std@@@std@@KAPAU_Node@?$_Tree_nod@V?$_Tmap_traits@KPAVCClientSock@@U?$less@K@std@@V?$allocator@U?$pair@$$CBKPAVCClientSock@@@std@@@3@$0A@@std@@@2@PAU342@@Z
_TEXT	SEGMENT PARA USE32 PUBLIC 'CODE'
_TEXT	ENDS
;	COMDAT ?_Rrotate@?$_Tree@V?$_Tmap_traits@KPAVCClientSock@@U?$less@K@std@@V?$allocator@U?$pair@$$CBKPAVCClientSock@@@std@@@3@$0A@@std@@@std@@IAEXPAU_Node@?$_Tree_nod@V?$_Tmap_traits@KPAVCClientSock@@U?$less@K@std@@V?$allocator@U?$pair@$$CBKPAVCClientSock@@@std@@@3@$0A@@std@@@2@@Z
_TEXT	SEGMENT PARA USE32 PUBLIC 'CODE'
_TEXT	ENDS
;	COMDAT ??0?$_Tree_nod@V?$_Tmap_traits@KPAVCClientSock@@U?$less@K@std@@V?$allocator@U?$pair@$$CBKPAVCClientSock@@@std@@@3@$0A@@std@@@std@@IAE@ABU?$less@K@1@V?$allocator@U?$pair@$$CBKPAVCClientSock@@@std@@@1@@Z
_TEXT	SEGMENT PARA USE32 PUBLIC 'CODE'
_TEXT	ENDS
;	COMDAT ?allocate@?$allocator@U_Node@?$_Tree_nod@V?$_Tmap_traits@KPAVCClientSock@@U?$less@K@std@@V?$allocator@U?$pair@$$CBKPAVCClientSock@@@std@@@3@$0A@@std@@@std@@@std@@QAEPAU_Node@?$_Tree_nod@V?$_Tmap_traits@KPAVCClientSock@@U?$less@K@std@@V?$allocator@U?$pair@$$CBKPAVCClientSock@@@std@@@3@$0A@@std@@@2@I@Z
_TEXT	SEGMENT PARA USE32 PUBLIC 'CODE'
_TEXT	ENDS
;	COMDAT ?destroy@?$allocator@U_Node@?$_Tree_nod@V?$_Tmap_traits@KPAVCClientSock@@U?$less@K@std@@V?$allocator@U?$pair@$$CBKPAVCClientSock@@@std@@@3@$0A@@std@@@std@@@std@@QAEXPAU_Node@?$_Tree_nod@V?$_Tmap_traits@KPAVCClientSock@@U?$less@K@std@@V?$allocator@U?$pair@$$CBKPAVCClientSock@@@std@@@3@$0A@@std@@@2@@Z
_TEXT	SEGMENT PARA USE32 PUBLIC 'CODE'
_TEXT	ENDS
;	COMDAT ?construct@?$allocator@PAU_Node@?$_Tree_nod@V?$_Tmap_traits@KPAVCClientSock@@U?$less@K@std@@V?$allocator@U?$pair@$$CBKPAVCClientSock@@@std@@@3@$0A@@std@@@std@@@std@@QAEXPAPAU_Node@?$_Tree_nod@V?$_Tmap_traits@KPAVCClientSock@@U?$less@K@std@@V?$allocator@U?$pair@$$CBKPAVCClientSock@@@std@@@3@$0A@@std@@@2@ABQAU342@@Z
_TEXT	SEGMENT PARA USE32 PUBLIC 'CODE'
_TEXT	ENDS
;	COMDAT ??Eiterator@?$_Tree@V?$_Tmap_traits@KPAVCClientSock@@U?$less@K@std@@V?$allocator@U?$pair@$$CBKPAVCClientSock@@@std@@@3@$0A@@std@@@std@@QAEAAV012@XZ
_TEXT	SEGMENT PARA USE32 PUBLIC 'CODE'
_TEXT	ENDS
;	COMDAT ?_Color@?$_Tree@V?$_Tmap_traits@KPAVCClientSockE@@U?$less@K@std@@V?$allocator@U?$pair@$$CBKPAVCClientSockE@@@std@@@3@$0A@@std@@@std@@KAAADPAU_Node@?$_Tree_nod@V?$_Tmap_traits@KPAVCClientSockE@@U?$less@K@std@@V?$allocator@U?$pair@$$CBKPAVCClientSockE@@@std@@@3@$0A@@std@@@2@@Z
_TEXT	SEGMENT PARA USE32 PUBLIC 'CODE'
_TEXT	ENDS
;	COMDAT ?_Erase@?$_Tree@V?$_Tmap_traits@KPAVCClientSockE@@U?$less@K@std@@V?$allocator@U?$pair@$$CBKPAVCClientSockE@@@std@@@3@$0A@@std@@@std@@IAEXPAU_Node@?$_Tree_nod@V?$_Tmap_traits@KPAVCClientSockE@@U?$less@K@std@@V?$allocator@U?$pair@$$CBKPAVCClientSockE@@@std@@@3@$0A@@std@@@2@@Z
_TEXT	SEGMENT PARA USE32 PUBLIC 'CODE'
_TEXT	ENDS
;	COMDAT ?_Lrotate@?$_Tree@V?$_Tmap_traits@KPAVCClientSockE@@U?$less@K@std@@V?$allocator@U?$pair@$$CBKPAVCClientSockE@@@std@@@3@$0A@@std@@@std@@IAEXPAU_Node@?$_Tree_nod@V?$_Tmap_traits@KPAVCClientSockE@@U?$less@K@std@@V?$allocator@U?$pair@$$CBKPAVCClientSockE@@@std@@@3@$0A@@std@@@2@@Z
_TEXT	SEGMENT PARA USE32 PUBLIC 'CODE'
_TEXT	ENDS
;	COMDAT ?_Max@?$_Tree@V?$_Tmap_traits@KPAVCClientSockE@@U?$less@K@std@@V?$allocator@U?$pair@$$CBKPAVCClientSockE@@@std@@@3@$0A@@std@@@std@@KAPAU_Node@?$_Tree_nod@V?$_Tmap_traits@KPAVCClientSockE@@U?$less@K@std@@V?$allocator@U?$pair@$$CBKPAVCClientSockE@@@std@@@3@$0A@@std@@@2@PAU342@@Z
_TEXT	SEGMENT PARA USE32 PUBLIC 'CODE'
_TEXT	ENDS
;	COMDAT ?_Min@?$_Tree@V?$_Tmap_traits@KPAVCClientSockE@@U?$less@K@std@@V?$allocator@U?$pair@$$CBKPAVCClientSockE@@@std@@@3@$0A@@std@@@std@@KAPAU_Node@?$_Tree_nod@V?$_Tmap_traits@KPAVCClientSockE@@U?$less@K@std@@V?$allocator@U?$pair@$$CBKPAVCClientSockE@@@std@@@3@$0A@@std@@@2@PAU342@@Z
_TEXT	SEGMENT PARA USE32 PUBLIC 'CODE'
_TEXT	ENDS
;	COMDAT ?_Rrotate@?$_Tree@V?$_Tmap_traits@KPAVCClientSockE@@U?$less@K@std@@V?$allocator@U?$pair@$$CBKPAVCClientSockE@@@std@@@3@$0A@@std@@@std@@IAEXPAU_Node@?$_Tree_nod@V?$_Tmap_traits@KPAVCClientSockE@@U?$less@K@std@@V?$allocator@U?$pair@$$CBKPAVCClientSockE@@@std@@@3@$0A@@std@@@2@@Z
_TEXT	SEGMENT PARA USE32 PUBLIC 'CODE'
_TEXT	ENDS
;	COMDAT ??0?$_Tree_nod@V?$_Tmap_traits@KPAVCClientSockE@@U?$less@K@std@@V?$allocator@U?$pair@$$CBKPAVCClientSockE@@@std@@@3@$0A@@std@@@std@@IAE@ABU?$less@K@1@V?$allocator@U?$pair@$$CBKPAVCClientSockE@@@std@@@1@@Z
_TEXT	SEGMENT PARA USE32 PUBLIC 'CODE'
_TEXT	ENDS
;	COMDAT ?allocate@?$allocator@U_Node@?$_Tree_nod@V?$_Tmap_traits@KPAVCClientSockE@@U?$less@K@std@@V?$allocator@U?$pair@$$CBKPAVCClientSockE@@@std@@@3@$0A@@std@@@std@@@std@@QAEPAU_Node@?$_Tree_nod@V?$_Tmap_traits@KPAVCClientSockE@@U?$less@K@std@@V?$allocator@U?$pair@$$CBKPAVCClientSockE@@@std@@@3@$0A@@std@@@2@I@Z
_TEXT	SEGMENT PARA USE32 PUBLIC 'CODE'
_TEXT	ENDS
;	COMDAT ?destroy@?$allocator@U_Node@?$_Tree_nod@V?$_Tmap_traits@KPAVCClientSockE@@U?$less@K@std@@V?$allocator@U?$pair@$$CBKPAVCClientSockE@@@std@@@3@$0A@@std@@@std@@@std@@QAEXPAU_Node@?$_Tree_nod@V?$_Tmap_traits@KPAVCClientSockE@@U?$less@K@std@@V?$allocator@U?$pair@$$CBKPAVCClientSockE@@@std@@@3@$0A@@std@@@2@@Z
_TEXT	SEGMENT PARA USE32 PUBLIC 'CODE'
_TEXT	ENDS
;	COMDAT ?construct@?$allocator@PAU_Node@?$_Tree_nod@V?$_Tmap_traits@KPAVCClientSockE@@U?$less@K@std@@V?$allocator@U?$pair@$$CBKPAVCClientSockE@@@std@@@3@$0A@@std@@@std@@@std@@QAEXPAPAU_Node@?$_Tree_nod@V?$_Tmap_traits@KPAVCClientSockE@@U?$less@K@std@@V?$allocator@U?$pair@$$CBKPAVCClientSockE@@@std@@@3@$0A@@std@@@2@ABQAU342@@Z
_TEXT	SEGMENT PARA USE32 PUBLIC 'CODE'
_TEXT	ENDS
;	COMDAT ??Eiterator@?$_Tree@V?$_Tmap_traits@KPAVCClientSockE@@U?$less@K@std@@V?$allocator@U?$pair@$$CBKPAVCClientSockE@@@std@@@3@$0A@@std@@@std@@QAEAAV012@XZ
_TEXT	SEGMENT PARA USE32 PUBLIC 'CODE'
_TEXT	ENDS
;	COMDAT ?_Parent@?$_Tree@V?$_Tmap_traits@KP8CDPCoreClient@@AEXAAVCAr@@KKK@ZU?$less@K@std@@V?$allocator@U?$pair@$$CBKP8CDPCoreClient@@AEXAAVCAr@@KKK@Z@std@@@4@$0A@@std@@@std@@KAAAPAU_Node@?$_Tree_nod@V?$_Tmap_traits@KP8CDPCoreClient@@AEXAAVCAr@@KKK@ZU?$less@K@std@@V?$allocator@U?$pair@$$CBKP8CDPCoreClient@@AEXAAVCAr@@KKK@Z@std@@@4@$0A@@std@@@2@PAU342@@Z
_TEXT	SEGMENT PARA USE32 PUBLIC 'CODE'
_TEXT	ENDS
;	COMDAT ?_Myval@?$_Tree@V?$_Tmap_traits@KU_Friend@@U?$less@K@std@@V?$allocator@U?$pair@$$CBKU_Friend@@@std@@@3@$0A@@std@@@std@@KAAAU?$pair@$$CBKU_Friend@@@2@PAU_Node@?$_Tree_nod@V?$_Tmap_traits@KU_Friend@@U?$less@K@std@@V?$allocator@U?$pair@$$CBKU_Friend@@@std@@@3@$0A@@std@@@2@@Z
_TEXT	SEGMENT PARA USE32 PUBLIC 'CODE'
_TEXT	ENDS
;	COMDAT ?_Kfn@?$_Tmap_traits@KU_Friend@@U?$less@K@std@@V?$allocator@U?$pair@$$CBKU_Friend@@@std@@@3@$0A@@std@@SAABKABU?$pair@$$CBKU_Friend@@@2@@Z
_TEXT	SEGMENT PARA USE32 PUBLIC 'CODE'
_TEXT	ENDS
;	COMDAT ?_Inc@const_iterator@?$_Tree@V?$_Tmap_traits@KU_Friend@@U?$less@K@std@@V?$allocator@U?$pair@$$CBKU_Friend@@@std@@@3@$0A@@std@@@std@@QAEXXZ
_TEXT	SEGMENT PARA USE32 PUBLIC 'CODE'
_TEXT	ENDS
;	COMDAT ?_Myval@?$_Tree@V?$_Tmap_traits@KKU?$less@K@std@@V?$allocator@U?$pair@$$CBKK@std@@@2@$0A@@std@@@std@@KAAAU?$pair@$$CBKK@2@PAU_Node@?$_Tree_nod@V?$_Tmap_traits@KKU?$less@K@std@@V?$allocator@U?$pair@$$CBKK@std@@@2@$0A@@std@@@2@@Z
_TEXT	SEGMENT PARA USE32 PUBLIC 'CODE'
_TEXT	ENDS
;	COMDAT ?_Kfn@?$_Tmap_traits@KKU?$less@K@std@@V?$allocator@U?$pair@$$CBKK@std@@@2@$0A@@std@@SAABKABU?$pair@$$CBKK@2@@Z
_TEXT	SEGMENT PARA USE32 PUBLIC 'CODE'
_TEXT	ENDS
;	COMDAT ?_Inc@const_iterator@?$_Tree@V?$_Tmap_traits@KKU?$less@K@std@@V?$allocator@U?$pair@$$CBKK@std@@@2@$0A@@std@@@std@@QAEXXZ
_TEXT	SEGMENT PARA USE32 PUBLIC 'CODE'
_TEXT	ENDS
;	COMDAT ??0?$_Tmap_traits@KPAVCClientSock@@U?$less@K@std@@V?$allocator@U?$pair@$$CBKPAVCClientSock@@@std@@@3@$0A@@std@@QAE@U?$less@K@1@@Z
_TEXT	SEGMENT PARA USE32 PUBLIC 'CODE'
_TEXT	ENDS
;	COMDAT ??Econst_iterator@?$_Tree@V?$_Tmap_traits@KPAVCClientSock@@U?$less@K@std@@V?$allocator@U?$pair@$$CBKPAVCClientSock@@@std@@@3@$0A@@std@@@std@@QAEAAV012@XZ
_TEXT	SEGMENT PARA USE32 PUBLIC 'CODE'
_TEXT	ENDS
;	COMDAT ??0?$_Tmap_traits@KPAVCClientSockE@@U?$less@K@std@@V?$allocator@U?$pair@$$CBKPAVCClientSockE@@@std@@@3@$0A@@std@@QAE@U?$less@K@1@@Z
_TEXT	SEGMENT PARA USE32 PUBLIC 'CODE'
_TEXT	ENDS
;	COMDAT ??Econst_iterator@?$_Tree@V?$_Tmap_traits@KPAVCClientSockE@@U?$less@K@std@@V?$allocator@U?$pair@$$CBKPAVCClientSockE@@@std@@@3@$0A@@std@@@std@@QAEAAV012@XZ
_TEXT	SEGMENT PARA USE32 PUBLIC 'CODE'
_TEXT	ENDS
;	COMDAT ?_Inc@const_iterator@?$_Tree@V?$_Tmap_traits@KPAVCClientSock@@U?$less@K@std@@V?$allocator@U?$pair@$$CBKPAVCClientSock@@@std@@@3@$0A@@std@@@std@@QAEXXZ
_TEXT	SEGMENT PARA USE32 PUBLIC 'CODE'
_TEXT	ENDS
;	COMDAT ?_Inc@const_iterator@?$_Tree@V?$_Tmap_traits@KPAVCClientSockE@@U?$less@K@std@@V?$allocator@U?$pair@$$CBKPAVCClientSockE@@@std@@@3@$0A@@std@@@std@@QAEXXZ
_TEXT	SEGMENT PARA USE32 PUBLIC 'CODE'
_TEXT	ENDS
;	COMDAT ??$_Iter_cat@Vconst_iterator@?$vector@EV?$allocator@E@std@@@std@@@std@@YA?AUrandom_access_iterator_tag@0@ABVconst_iterator@?$vector@EV?$allocator@E@std@@@0@@Z
_TEXT	SEGMENT PARA USE32 PUBLIC 'CODE'
_TEXT	ENDS
;	COMDAT ??$_Assign@Vconst_iterator@?$vector@EV?$allocator@E@std@@@std@@@?$vector@EV?$allocator@E@std@@@std@@QAEXVconst_iterator@01@0Uinput_iterator_tag@1@@Z
_TEXT	SEGMENT PARA USE32 PUBLIC 'CODE'
_TEXT	ENDS
;	COMDAT ??$_Iter_cat@Viterator@?$_Tree@V?$_Tmap_traits@KPAVCUser@@U?$less@K@std@@V?$allocator@U?$pair@$$CBKPAVCUser@@@std@@@3@$0A@@std@@@std@@@std@@YA?AUbidirectional_iterator_tag@0@ABViterator@?$_Tree@V?$_Tmap_traits@KPAVCUser@@U?$less@K@std@@V?$allocator@U?$pair@$$CBKPAVCUser@@@std@@@3@$0A@@std@@@0@@Z
_TEXT	SEGMENT PARA USE32 PUBLIC 'CODE'
_TEXT	ENDS
;	COMDAT ??$_Distance2@Viterator@?$_Tree@V?$_Tmap_traits@KPAVCUser@@U?$less@K@std@@V?$allocator@U?$pair@$$CBKPAVCUser@@@std@@@3@$0A@@std@@@std@@I@std@@YAXViterator@?$_Tree@V?$_Tmap_traits@KPAVCUser@@U?$less@K@std@@V?$allocator@U?$pair@$$CBKPAVCUser@@@std@@@3@$0A@@std@@@0@0AAIUbidirectional_iterator_tag@0@@Z
_TEXT	SEGMENT PARA USE32 PUBLIC 'CODE'
_TEXT	ENDS
;	COMDAT ??$_Iter_cat@Viterator@?$_Tree@V?$_Tmap_traits@KPAVCCtrl@@U?$less@K@std@@V?$allocator@U?$pair@$$CBKPAVCCtrl@@@std@@@3@$0A@@std@@@std@@@std@@YA?AUbidirectional_iterator_tag@0@ABViterator@?$_Tree@V?$_Tmap_traits@KPAVCCtrl@@U?$less@K@std@@V?$allocator@U?$pair@$$CBKPAVCCtrl@@@std@@@3@$0A@@std@@@0@@Z
_TEXT	SEGMENT PARA USE32 PUBLIC 'CODE'
_TEXT	ENDS
;	COMDAT ??$_Distance2@Viterator@?$_Tree@V?$_Tmap_traits@KPAVCCtrl@@U?$less@K@std@@V?$allocator@U?$pair@$$CBKPAVCCtrl@@@std@@@3@$0A@@std@@@std@@I@std@@YAXViterator@?$_Tree@V?$_Tmap_traits@KPAVCCtrl@@U?$less@K@std@@V?$allocator@U?$pair@$$CBKPAVCCtrl@@@std@@@3@$0A@@std@@@0@0AAIUbidirectional_iterator_tag@0@@Z
_TEXT	SEGMENT PARA USE32 PUBLIC 'CODE'
_TEXT	ENDS
;	COMDAT ??$_Uninitialized_copy@Vconst_iterator@?$vector@EV?$allocator@E@std@@@std@@PAEV?$allocator@E@3@@std@@YAPAEVconst_iterator@?$vector@EV?$allocator@E@std@@@0@0PAEAAV?$allocator@E@0@@Z
_TEXT	SEGMENT PARA USE32 PUBLIC 'CODE'
_TEXT	ENDS
;	COMDAT ??$_Iter_cat@Viterator@?$_Tree@V?$_Tmap_traits@KEU?$less@K@std@@V?$allocator@U?$pair@$$CBKE@std@@@2@$0A@@std@@@std@@@std@@YA?AUbidirectional_iterator_tag@0@ABViterator@?$_Tree@V?$_Tmap_traits@KEU?$less@K@std@@V?$allocator@U?$pair@$$CBKE@std@@@2@$0A@@std@@@0@@Z
_TEXT	SEGMENT PARA USE32 PUBLIC 'CODE'
_TEXT	ENDS
;	COMDAT ??$_Distance2@Viterator@?$_Tree@V?$_Tmap_traits@KEU?$less@K@std@@V?$allocator@U?$pair@$$CBKE@std@@@2@$0A@@std@@@std@@I@std@@YAXViterator@?$_Tree@V?$_Tmap_traits@KEU?$less@K@std@@V?$allocator@U?$pair@$$CBKE@std@@@2@$0A@@std@@@0@0AAIUbidirectional_iterator_tag@0@@Z
_TEXT	SEGMENT PARA USE32 PUBLIC 'CODE'
_TEXT	ENDS
;	COMDAT ??$_Ptr_cat@PAU__SPAWNREGION@CEventLua@@PAU12@@std@@YA?AU_Nonscalar_ptr_iterator_tag@0@AAPAU__SPAWNREGION@CEventLua@@0@Z
_TEXT	SEGMENT PARA USE32 PUBLIC 'CODE'
_TEXT	ENDS
;	COMDAT ??$_Uninit_fill_n@PAU__SPAWNREGION@CEventLua@@IU12@V?$allocator@U__SPAWNREGION@CEventLua@@@std@@@std@@YAXPAU__SPAWNREGION@CEventLua@@IABU12@AAV?$allocator@U__SPAWNREGION@CEventLua@@@0@U_Nonscalar_ptr_iterator_tag@0@@Z
_TEXT	SEGMENT PARA USE32 PUBLIC 'CODE'
_TEXT	ENDS
;	COMDAT ??$_Copy_opt@PAJPAJ@std@@YAPAJPAJ00U_Scalar_ptr_iterator_tag@0@@Z
_TEXT	SEGMENT PARA USE32 PUBLIC 'CODE'
_TEXT	ENDS
;	COMDAT ??$_Uninitialized_copy@PAJPAJV?$allocator@J@std@@@std@@YAPAJPAJ00AAV?$allocator@J@0@@Z
_TEXT	SEGMENT PARA USE32 PUBLIC 'CODE'
_TEXT	ENDS
;	COMDAT ??$_Copy_backward_opt@PAJPAJ@std@@YAPAJPAJ00U_Scalar_ptr_iterator_tag@0@@Z
_TEXT	SEGMENT PARA USE32 PUBLIC 'CODE'
_TEXT	ENDS
;	COMDAT ??$_Ptr_cat@PAUtagDROPITEM@@PAU1@@std@@YA?AU_Nonscalar_ptr_iterator_tag@0@AAPAUtagDROPITEM@@0@Z
_TEXT	SEGMENT PARA USE32 PUBLIC 'CODE'
_TEXT	ENDS
;	COMDAT ??$_Destroy_range@UtagDROPITEM@@V?$allocator@UtagDROPITEM@@@std@@@std@@YAXPAUtagDROPITEM@@0AAV?$allocator@UtagDROPITEM@@@0@U_Nonscalar_ptr_iterator_tag@0@@Z
_TEXT	SEGMENT PARA USE32 PUBLIC 'CODE'
_TEXT	ENDS
;	COMDAT ??$_Ptr_cat@PAUWORMON@@PAU1@@std@@YA?AU_Nonscalar_ptr_iterator_tag@0@AAPAUWORMON@@0@Z
_TEXT	SEGMENT PARA USE32 PUBLIC 'CODE'
_TEXT	ENDS
;	COMDAT ??$_Destroy_range@UWORMON@@V?$allocator@UWORMON@@@std@@@std@@YAXPAUWORMON@@0AAV?$allocator@UWORMON@@@0@U_Nonscalar_ptr_iterator_tag@0@@Z
_TEXT	SEGMENT PARA USE32 PUBLIC 'CODE'
_TEXT	ENDS
;	COMDAT ??$_Ptr_cat@PAU__ITEMGAME@CMiniGame@@PAU12@@std@@YA?AU_Nonscalar_ptr_iterator_tag@0@AAPAU__ITEMGAME@CMiniGame@@0@Z
_TEXT	SEGMENT PARA USE32 PUBLIC 'CODE'
_TEXT	ENDS
;	COMDAT ??$_Destroy_range@U__ITEMGAME@CMiniGame@@V?$allocator@U__ITEMGAME@CMiniGame@@@std@@@std@@YAXPAU__ITEMGAME@CMiniGame@@0AAV?$allocator@U__ITEMGAME@CMiniGame@@@0@U_Nonscalar_ptr_iterator_tag@0@@Z
_TEXT	SEGMENT PARA USE32 PUBLIC 'CODE'
_TEXT	ENDS
;	COMDAT ??$_Destroy_range@KV?$allocator@K@std@@@std@@YAXPAK0AAV?$allocator@K@0@U_Scalar_ptr_iterator_tag@0@@Z
_TEXT	SEGMENT PARA USE32 PUBLIC 'CODE'
_TEXT	ENDS
;	COMDAT ??$_Destroy_range@HV?$allocator@H@std@@@std@@YAXPAH0AAV?$allocator@H@0@U_Scalar_ptr_iterator_tag@0@@Z
_TEXT	SEGMENT PARA USE32 PUBLIC 'CODE'
_TEXT	ENDS
;	COMDAT ??$_Ptr_cat@PAU__ITEM@CExchange@@PAU12@@std@@YA?AU_Nonscalar_ptr_iterator_tag@0@AAPAU__ITEM@CExchange@@0@Z
_TEXT	SEGMENT PARA USE32 PUBLIC 'CODE'
_TEXT	ENDS
;	COMDAT ??$_Destroy_range@U__ITEM@CExchange@@V?$allocator@U__ITEM@CExchange@@@std@@@std@@YAXPAU__ITEM@CExchange@@0AAV?$allocator@U__ITEM@CExchange@@@0@U_Nonscalar_ptr_iterator_tag@0@@Z
_TEXT	SEGMENT PARA USE32 PUBLIC 'CODE'
_TEXT	ENDS
;	COMDAT ??$_Ptr_cat@PAU__POINT@CExchange@@PAU12@@std@@YA?AU_Nonscalar_ptr_iterator_tag@0@AAPAU__POINT@CExchange@@0@Z
_TEXT	SEGMENT PARA USE32 PUBLIC 'CODE'
_TEXT	ENDS
;	COMDAT ??$_Destroy_range@U__POINT@CExchange@@V?$allocator@U__POINT@CExchange@@@std@@@std@@YAXPAU__POINT@CExchange@@0AAV?$allocator@U__POINT@CExchange@@@0@U_Nonscalar_ptr_iterator_tag@0@@Z
_TEXT	SEGMENT PARA USE32 PUBLIC 'CODE'
_TEXT	ENDS
;	COMDAT ??$_Destroy_range@EV?$allocator@E@std@@@std@@YAXPAE0AAV?$allocator@E@0@U_Scalar_ptr_iterator_tag@0@@Z
_TEXT	SEGMENT PARA USE32 PUBLIC 'CODE'
_TEXT	ENDS
;	COMDAT ??$_Uninitialized_copy@PAU__SPAWNREGION@CEventLua@@PAU12@V?$allocator@U__SPAWNREGION@CEventLua@@@std@@@std@@YAPAU__SPAWNREGION@CEventLua@@PAU12@00AAV?$allocator@U__SPAWNREGION@CEventLua@@@0@@Z
_TEXT	SEGMENT PARA USE32 PUBLIC 'CODE'
_TEXT	ENDS
;	COMDAT ??$_Copy_backward_opt@PAU__SPAWNREGION@CEventLua@@PAU12@@std@@YAPAU__SPAWNREGION@CEventLua@@PAU12@00U_Nonscalar_ptr_iterator_tag@0@@Z
_TEXT	SEGMENT PARA USE32 PUBLIC 'CODE'
_TEXT	ENDS
;	COMDAT ??$_Ptr_cat@PAUD3DXVECTOR3@@PAU1@@std@@YA?AU_Nonscalar_ptr_iterator_tag@0@AAPAUD3DXVECTOR3@@0@Z
_TEXT	SEGMENT PARA USE32 PUBLIC 'CODE'
_TEXT	ENDS
;	COMDAT ??$_Destroy_range@UD3DXVECTOR3@@V?$allocator@UD3DXVECTOR3@@@std@@@std@@YAXPAUD3DXVECTOR3@@0AAV?$allocator@UD3DXVECTOR3@@@0@U_Nonscalar_ptr_iterator_tag@0@@Z
_TEXT	SEGMENT PARA USE32 PUBLIC 'CODE'
_TEXT	ENDS
;	COMDAT ??$_Ptr_cat@PAU_GIFTBOX@@PAU1@@std@@YA?AU_Nonscalar_ptr_iterator_tag@0@AAPAU_GIFTBOX@@0@Z
_TEXT	SEGMENT PARA USE32 PUBLIC 'CODE'
_TEXT	ENDS
;	COMDAT ??$_Destroy_range@U_GIFTBOX@@V?$allocator@U_GIFTBOX@@@std@@@std@@YAXPAU_GIFTBOX@@0AAV?$allocator@U_GIFTBOX@@@0@U_Nonscalar_ptr_iterator_tag@0@@Z
_TEXT	SEGMENT PARA USE32 PUBLIC 'CODE'
_TEXT	ENDS
;	COMDAT ??$_Destroy_range@JV?$allocator@J@std@@@std@@YAXPAJ0AAV?$allocator@J@0@U_Scalar_ptr_iterator_tag@0@@Z
_TEXT	SEGMENT PARA USE32 PUBLIC 'CODE'
_TEXT	ENDS
;	COMDAT ??$_Uninit_fill_n@JIJ@std@@YAXPAJIABJAAV?$allocator@J@0@U_Scalar_ptr_iterator_tag@0@@Z
_TEXT	SEGMENT PARA USE32 PUBLIC 'CODE'
_TEXT	ENDS
;	COMDAT ??$_Destroy_range@U__SPAWNREGION@CEventLua@@V?$allocator@U__SPAWNREGION@CEventLua@@@std@@@std@@YAXPAU__SPAWNREGION@CEventLua@@0AAV?$allocator@U__SPAWNREGION@CEventLua@@@0@U_Nonscalar_ptr_iterator_tag@0@@Z
_TEXT	SEGMENT PARA USE32 PUBLIC 'CODE'
_TEXT	ENDS
;	COMDAT ??$make_pair@KPAVCGuildHouseBase@@@std@@YA?AU?$pair@KPAVCGuildHouseBase@@@0@KPAVCGuildHouseBase@@@Z
_TEXT	SEGMENT PARA USE32 PUBLIC 'CODE'
_TEXT	ENDS
;	COMDAT ??$?0KPAVCGuildHouseBase@@@?$pair@$$CBKPAVCGuildHouseBase@@@std@@QAE@ABU?$pair@KPAVCGuildHouseBase@@@1@@Z
_TEXT	SEGMENT PARA USE32 PUBLIC 'CODE'
_TEXT	ENDS
;	COMDAT ??$_Distance@Viterator@?$_Tree@V?$_Tmap_traits@KU_Friend@@U?$less@K@std@@V?$allocator@U?$pair@$$CBKU_Friend@@@std@@@3@$0A@@std@@@std@@I@std@@YAXViterator@?$_Tree@V?$_Tmap_traits@KU_Friend@@U?$less@K@std@@V?$allocator@U?$pair@$$CBKU_Friend@@@std@@@3@$0A@@std@@@0@0AAI@Z
_TEXT	SEGMENT PARA USE32 PUBLIC 'CODE'
_TEXT	ENDS
;	COMDAT ??$_Distance@Viterator@?$_Tree@V?$_Tmap_traits@KKU?$less@K@std@@V?$allocator@U?$pair@$$CBKK@std@@@2@$0A@@std@@@std@@I@std@@YAXViterator@?$_Tree@V?$_Tmap_traits@KKU?$less@K@std@@V?$allocator@U?$pair@$$CBKK@std@@@2@$0A@@std@@@0@0AAI@Z
_TEXT	SEGMENT PARA USE32 PUBLIC 'CODE'
_TEXT	ENDS
;	COMDAT ??$_Destroy@U_Node@?$_List_nod@PAU__JOINPLAYER@CGuildCombat@@V?$allocator@PAU__JOINPLAYER@CGuildCombat@@@std@@@std@@@std@@YAXPAU_Node@?$_List_nod@PAU__JOINPLAYER@CGuildCombat@@V?$allocator@PAU__JOINPLAYER@CGuildCombat@@@std@@@0@@Z
_TEXT	SEGMENT PARA USE32 PUBLIC 'CODE'
_TEXT	ENDS
;	COMDAT ??$_Uninitialized_fill_n@PAV?$basic_string@DU?$char_traits@D@std@@V?$allocator@D@2@@std@@IV12@V?$allocator@V?$basic_string@DU?$char_traits@D@std@@V?$allocator@D@2@@std@@@2@@std@@YAXPAV?$basic_string@DU?$char_traits@D@std@@V?$allocator@D@2@@0@IABV10@AAV?$allocator@V?$basic_string@DU?$char_traits@D@std@@V?$allocator@D@2@@std@@@0@@Z
_TEXT	SEGMENT PARA USE32 PUBLIC 'CODE'
_TEXT	ENDS
;	COMDAT ??$_Uninitialized_fill_n@PAUMINIGMAME_PRIZE_LIST@CRainbowRaceMng@@IU12@V?$allocator@UMINIGMAME_PRIZE_LIST@CRainbowRaceMng@@@std@@@std@@YAXPAUMINIGMAME_PRIZE_LIST@CRainbowRaceMng@@IABU12@AAV?$allocator@UMINIGMAME_PRIZE_LIST@CRainbowRaceMng@@@0@@Z
_TEXT	SEGMENT PARA USE32 PUBLIC 'CODE'
_TEXT	ENDS
;	COMDAT ??$_Allocate@V?$basic_string@DU?$char_traits@D@std@@V?$allocator@D@2@@std@@@std@@YAPAV?$basic_string@DU?$char_traits@D@std@@V?$allocator@D@2@@0@IPAV10@@Z
_TEXT	SEGMENT PARA USE32 PUBLIC 'CODE'
_TEXT	ENDS
;	COMDAT ??$?0PAUtagACTMSG@@@?$allocator@PAPAUtagACTMSG@@@std@@QAE@ABV?$allocator@PAUtagACTMSG@@@1@@Z
_TEXT	SEGMENT PARA USE32 PUBLIC 'CODE'
_TEXT	ENDS
;	COMDAT ??$_Destroy@PAPAUtagACTMSG@@@std@@YAXPAPAPAUtagACTMSG@@@Z
_TEXT	SEGMENT PARA USE32 PUBLIC 'CODE'
_TEXT	ENDS
;	COMDAT ??$?0PAUtagMAGICATKMSG@@@?$allocator@PAPAUtagMAGICATKMSG@@@std@@QAE@ABV?$allocator@PAUtagMAGICATKMSG@@@1@@Z
_TEXT	SEGMENT PARA USE32 PUBLIC 'CODE'
_TEXT	ENDS
;	COMDAT ??$_Destroy@PAPAUtagMAGICATKMSG@@@std@@YAXPAPAPAUtagMAGICATKMSG@@@Z
_TEXT	SEGMENT PARA USE32 PUBLIC 'CODE'
_TEXT	ENDS
;	COMDAT ??$_Destroy_range@PAU__JOINPLAYER@CGuildCombat@@V?$allocator@PAU__JOINPLAYER@CGuildCombat@@@std@@@std@@YAXPAPAU__JOINPLAYER@CGuildCombat@@0AAV?$allocator@PAU__JOINPLAYER@CGuildCombat@@@0@@Z
_TEXT	SEGMENT PARA USE32 PUBLIC 'CODE'
_TEXT	ENDS
;	COMDAT ??$_Destroy_range@U__SECRETROOM_MONSTER@@V?$allocator@U__SECRETROOM_MONSTER@@@std@@@std@@YAXPAU__SECRETROOM_MONSTER@@0AAV?$allocator@U__SECRETROOM_MONSTER@@@0@@Z
_TEXT	SEGMENT PARA USE32 PUBLIC 'CODE'
_TEXT	ENDS
;	COMDAT ??$_Allocate@U__SECRETROOM_MONSTER@@@std@@YAPAU__SECRETROOM_MONSTER@@IPAU1@@Z
_TEXT	SEGMENT PARA USE32 PUBLIC 'CODE'
_TEXT	ENDS
;	COMDAT ??$_Destroy_range@V?$basic_string@DU?$char_traits@D@std@@V?$allocator@D@2@@std@@V?$allocator@V?$basic_string@DU?$char_traits@D@std@@V?$allocator@D@2@@std@@@2@@std@@YAXPAV?$basic_string@DU?$char_traits@D@std@@V?$allocator@D@2@@0@0AAV?$allocator@V?$basic_string@DU?$char_traits@D@std@@V?$allocator@D@2@@std@@@0@@Z
_TEXT	SEGMENT PARA USE32 PUBLIC 'CODE'
_TEXT	ENDS
;	COMDAT ??$_Ucopy@PAV?$basic_string@DU?$char_traits@D@std@@V?$allocator@D@2@@std@@@?$vector@V?$basic_string@DU?$char_traits@D@std@@V?$allocator@D@2@@std@@V?$allocator@V?$basic_string@DU?$char_traits@D@std@@V?$allocator@D@2@@std@@@2@@std@@IAEPAV?$basic_string@DU?$char_traits@D@std@@V?$allocator@D@2@@1@PAV21@00@Z
_TEXT	SEGMENT PARA USE32 PUBLIC 'CODE'
_TEXT	ENDS
;	COMDAT ??$fill@PAV?$basic_string@DU?$char_traits@D@std@@V?$allocator@D@2@@std@@V12@@std@@YAXPAV?$basic_string@DU?$char_traits@D@std@@V?$allocator@D@2@@0@0ABV10@@Z
_TEXT	SEGMENT PARA USE32 PUBLIC 'CODE'
_TEXT	ENDS
;	COMDAT ??$copy_backward@PAV?$basic_string@DU?$char_traits@D@std@@V?$allocator@D@2@@std@@PAV12@@std@@YAPAV?$basic_string@DU?$char_traits@D@std@@V?$allocator@D@2@@0@PAV10@00@Z
_TEXT	SEGMENT PARA USE32 PUBLIC 'CODE'
_TEXT	ENDS
;	COMDAT ??$_Ucopy@PAUMINIGMAME_PRIZE_LIST@CRainbowRaceMng@@@?$vector@UMINIGMAME_PRIZE_LIST@CRainbowRaceMng@@V?$allocator@UMINIGMAME_PRIZE_LIST@CRainbowRaceMng@@@std@@@std@@IAEPAUMINIGMAME_PRIZE_LIST@CRainbowRaceMng@@PAU23@00@Z
_TEXT	SEGMENT PARA USE32 PUBLIC 'CODE'
_TEXT	ENDS
;	COMDAT ??$fill@PAUMINIGMAME_PRIZE_LIST@CRainbowRaceMng@@U12@@std@@YAXPAUMINIGMAME_PRIZE_LIST@CRainbowRaceMng@@0ABU12@@Z
_TEXT	SEGMENT PARA USE32 PUBLIC 'CODE'
_TEXT	ENDS
;	COMDAT ??$copy_backward@PAUMINIGMAME_PRIZE_LIST@CRainbowRaceMng@@PAU12@@std@@YAPAUMINIGMAME_PRIZE_LIST@CRainbowRaceMng@@PAU12@00@Z
_TEXT	SEGMENT PARA USE32 PUBLIC 'CODE'
_TEXT	ENDS
;	COMDAT ??$_Destroy@PAU_Node@?$_Tree_nod@V?$_Tmap_traits@KPAVCClientSock@@U?$less@K@std@@V?$allocator@U?$pair@$$CBKPAVCClientSock@@@std@@@3@$0A@@std@@@std@@@std@@YAXPAPAU_Node@?$_Tree_nod@V?$_Tmap_traits@KPAVCClientSock@@U?$less@K@std@@V?$allocator@U?$pair@$$CBKPAVCClientSock@@@std@@@3@$0A@@std@@@0@@Z
_TEXT	SEGMENT PARA USE32 PUBLIC 'CODE'
_TEXT	ENDS
;	COMDAT ??$_Destroy@PAU_Node@?$_Tree_nod@V?$_Tmap_traits@KPAVCClientSockE@@U?$less@K@std@@V?$allocator@U?$pair@$$CBKPAVCClientSockE@@@std@@@3@$0A@@std@@@std@@@std@@YAXPAPAU_Node@?$_Tree_nod@V?$_Tmap_traits@KPAVCClientSockE@@U?$less@K@std@@V?$allocator@U?$pair@$$CBKPAVCClientSockE@@@std@@@3@$0A@@std@@@0@@Z
_TEXT	SEGMENT PARA USE32 PUBLIC 'CODE'
_TEXT	ENDS
;	COMDAT ??$_Destroy@PAUtagACTMSG@@@std@@YAXPAPAUtagACTMSG@@@Z
_TEXT	SEGMENT PARA USE32 PUBLIC 'CODE'
_TEXT	ENDS
;	COMDAT ??$_Destroy@PAUtagMAGICATKMSG@@@std@@YAXPAPAUtagMAGICATKMSG@@@Z
_TEXT	SEGMENT PARA USE32 PUBLIC 'CODE'
_TEXT	ENDS
;	COMDAT ??$_Destroy@U_Node@?$_Tree_nod@V?$_Tmap_traits@KU_Friend@@U?$less@K@std@@V?$allocator@U?$pair@$$CBKU_Friend@@@std@@@3@$0A@@std@@@std@@@std@@YAXPAU_Node@?$_Tree_nod@V?$_Tmap_traits@KU_Friend@@U?$less@K@std@@V?$allocator@U?$pair@$$CBKU_Friend@@@std@@@3@$0A@@std@@@0@@Z
_TEXT	SEGMENT PARA USE32 PUBLIC 'CODE'
_TEXT	ENDS
;	COMDAT ??$_Destroy_range@UMINIGMAME_PRIZE_LIST@CRainbowRaceMng@@V?$allocator@UMINIGMAME_PRIZE_LIST@CRainbowRaceMng@@@std@@@std@@YAXPAUMINIGMAME_PRIZE_LIST@CRainbowRaceMng@@0AAV?$allocator@UMINIGMAME_PRIZE_LIST@CRainbowRaceMng@@@0@@Z
_TEXT	SEGMENT PARA USE32 PUBLIC 'CODE'
_TEXT	ENDS
;	COMDAT ??$_Allocate@UMINIGMAME_PRIZE_LIST@CRainbowRaceMng@@@std@@YAPAUMINIGMAME_PRIZE_LIST@CRainbowRaceMng@@IPAU12@@Z
_TEXT	SEGMENT PARA USE32 PUBLIC 'CODE'
_TEXT	ENDS
;	COMDAT ??$_Allocate@U_Node@?$_Tree_nod@V?$_Tmap_traits@KPAVCGuildHouseBase@@U?$less@K@std@@V?$allocator@U?$pair@$$CBKPAVCGuildHouseBase@@@std@@@3@$0A@@std@@@std@@@std@@YAPAU_Node@?$_Tree_nod@V?$_Tmap_traits@KPAVCGuildHouseBase@@U?$less@K@std@@V?$allocator@U?$pair@$$CBKPAVCGuildHouseBase@@@std@@@3@$0A@@std@@@0@IPAU120@@Z
_TEXT	SEGMENT PARA USE32 PUBLIC 'CODE'
_TEXT	ENDS
;	COMDAT ??$_Destroy@U_Node@?$_Tree_nod@V?$_Tmap_traits@KKU?$less@K@std@@V?$allocator@U?$pair@$$CBKK@std@@@2@$0A@@std@@@std@@@std@@YAXPAU_Node@?$_Tree_nod@V?$_Tmap_traits@KKU?$less@K@std@@V?$allocator@U?$pair@$$CBKK@std@@@2@$0A@@std@@@0@@Z
_TEXT	SEGMENT PARA USE32 PUBLIC 'CODE'
_TEXT	ENDS
;	COMDAT ??$?0U?$pair@$$CBKPAVCClientSock@@@std@@@?$allocator@PAU_Node@?$_Tree_nod@V?$_Tmap_traits@KPAVCClientSock@@U?$less@K@std@@V?$allocator@U?$pair@$$CBKPAVCClientSock@@@std@@@3@$0A@@std@@@std@@@std@@QAE@ABV?$allocator@U?$pair@$$CBKPAVCClientSock@@@std@@@1@@Z
_TEXT	SEGMENT PARA USE32 PUBLIC 'CODE'
_TEXT	ENDS
;	COMDAT ??$?0U?$pair@$$CBKPAVCClientSockE@@@std@@@?$allocator@PAU_Node@?$_Tree_nod@V?$_Tmap_traits@KPAVCClientSockE@@U?$less@K@std@@V?$allocator@U?$pair@$$CBKPAVCClientSockE@@@std@@@3@$0A@@std@@@std@@@std@@QAE@ABV?$allocator@U?$pair@$$CBKPAVCClientSockE@@@std@@@1@@Z
_TEXT	SEGMENT PARA USE32 PUBLIC 'CODE'
_TEXT	ENDS
;	COMDAT ??$?0U?$pair@$$CBKPAVCClientSock@@@std@@@?$allocator@U_Node@?$_Tree_nod@V?$_Tmap_traits@KPAVCClientSock@@U?$less@K@std@@V?$allocator@U?$pair@$$CBKPAVCClientSock@@@std@@@3@$0A@@std@@@std@@@std@@QAE@ABV?$allocator@U?$pair@$$CBKPAVCClientSock@@@std@@@1@@Z
_TEXT	SEGMENT PARA USE32 PUBLIC 'CODE'
_TEXT	ENDS
;	COMDAT ??$_Allocate@U_Node@?$_Tree_nod@V?$_Tmap_traits@KPAVCClientSock@@U?$less@K@std@@V?$allocator@U?$pair@$$CBKPAVCClientSock@@@std@@@3@$0A@@std@@@std@@@std@@YAPAU_Node@?$_Tree_nod@V?$_Tmap_traits@KPAVCClientSock@@U?$less@K@std@@V?$allocator@U?$pair@$$CBKPAVCClientSock@@@std@@@3@$0A@@std@@@0@IPAU120@@Z
_TEXT	SEGMENT PARA USE32 PUBLIC 'CODE'
_TEXT	ENDS
;	COMDAT ??$_Destroy@U_Node@?$_Tree_nod@V?$_Tmap_traits@KPAVCClientSock@@U?$less@K@std@@V?$allocator@U?$pair@$$CBKPAVCClientSock@@@std@@@3@$0A@@std@@@std@@@std@@YAXPAU_Node@?$_Tree_nod@V?$_Tmap_traits@KPAVCClientSock@@U?$less@K@std@@V?$allocator@U?$pair@$$CBKPAVCClientSock@@@std@@@3@$0A@@std@@@0@@Z
_TEXT	SEGMENT PARA USE32 PUBLIC 'CODE'
_TEXT	ENDS
;	COMDAT ??$_Construct@PAU_Node@?$_Tree_nod@V?$_Tmap_traits@KPAVCClientSock@@U?$less@K@std@@V?$allocator@U?$pair@$$CBKPAVCClientSock@@@std@@@3@$0A@@std@@@std@@PAU123@@std@@YAXPAPAU_Node@?$_Tree_nod@V?$_Tmap_traits@KPAVCClientSock@@U?$less@K@std@@V?$allocator@U?$pair@$$CBKPAVCClientSock@@@std@@@3@$0A@@std@@@0@ABQAU120@@Z
_TEXT	SEGMENT PARA USE32 PUBLIC 'CODE'
_TEXT	ENDS
;	COMDAT ??$?0U?$pair@$$CBKPAVCClientSockE@@@std@@@?$allocator@U_Node@?$_Tree_nod@V?$_Tmap_traits@KPAVCClientSockE@@U?$less@K@std@@V?$allocator@U?$pair@$$CBKPAVCClientSockE@@@std@@@3@$0A@@std@@@std@@@std@@QAE@ABV?$allocator@U?$pair@$$CBKPAVCClientSockE@@@std@@@1@@Z
_TEXT	SEGMENT PARA USE32 PUBLIC 'CODE'
_TEXT	ENDS
;	COMDAT ??$_Allocate@U_Node@?$_Tree_nod@V?$_Tmap_traits@KPAVCClientSockE@@U?$less@K@std@@V?$allocator@U?$pair@$$CBKPAVCClientSockE@@@std@@@3@$0A@@std@@@std@@@std@@YAPAU_Node@?$_Tree_nod@V?$_Tmap_traits@KPAVCClientSockE@@U?$less@K@std@@V?$allocator@U?$pair@$$CBKPAVCClientSockE@@@std@@@3@$0A@@std@@@0@IPAU120@@Z
_TEXT	SEGMENT PARA USE32 PUBLIC 'CODE'
_TEXT	ENDS
;	COMDAT ??$_Destroy@U_Node@?$_Tree_nod@V?$_Tmap_traits@KPAVCClientSockE@@U?$less@K@std@@V?$allocator@U?$pair@$$CBKPAVCClientSockE@@@std@@@3@$0A@@std@@@std@@@std@@YAXPAU_Node@?$_Tree_nod@V?$_Tmap_traits@KPAVCClientSockE@@U?$less@K@std@@V?$allocator@U?$pair@$$CBKPAVCClientSockE@@@std@@@3@$0A@@std@@@0@@Z
_TEXT	SEGMENT PARA USE32 PUBLIC 'CODE'
_TEXT	ENDS
;	COMDAT ??$_Construct@PAU_Node@?$_Tree_nod@V?$_Tmap_traits@KPAVCClientSockE@@U?$less@K@std@@V?$allocator@U?$pair@$$CBKPAVCClientSockE@@@std@@@3@$0A@@std@@@std@@PAU123@@std@@YAXPAPAU_Node@?$_Tree_nod@V?$_Tmap_traits@KPAVCClientSockE@@U?$less@K@std@@V?$allocator@U?$pair@$$CBKPAVCClientSockE@@@std@@@3@$0A@@std@@@0@ABQAU120@@Z
_TEXT	SEGMENT PARA USE32 PUBLIC 'CODE'
_TEXT	ENDS
;	COMDAT ?destroy@?$allocator@UtagDROPITEM@@@std@@QAEXPAUtagDROPITEM@@@Z
_TEXT	SEGMENT PARA USE32 PUBLIC 'CODE'
_TEXT	ENDS
;	COMDAT ?destroy@?$allocator@UWORMON@@@std@@QAEXPAUWORMON@@@Z
_TEXT	SEGMENT PARA USE32 PUBLIC 'CODE'
_TEXT	ENDS
;	COMDAT ?destroy@?$allocator@U__ITEMGAME@CMiniGame@@@std@@QAEXPAU__ITEMGAME@CMiniGame@@@Z
_TEXT	SEGMENT PARA USE32 PUBLIC 'CODE'
_TEXT	ENDS
;	COMDAT ?destroy@?$allocator@U__ITEM@CExchange@@@std@@QAEXPAU__ITEM@CExchange@@@Z
_TEXT	SEGMENT PARA USE32 PUBLIC 'CODE'
_TEXT	ENDS
;	COMDAT ?destroy@?$allocator@U__POINT@CExchange@@@std@@QAEXPAU__POINT@CExchange@@@Z
_TEXT	SEGMENT PARA USE32 PUBLIC 'CODE'
_TEXT	ENDS
;	COMDAT ?begin@?$vector@EV?$allocator@E@std@@@std@@QAE?AViterator@12@XZ
_TEXT	SEGMENT PARA USE32 PUBLIC 'CODE'
_TEXT	ENDS
;	COMDAT ?end@?$vector@EV?$allocator@E@std@@@std@@QAE?AViterator@12@XZ
_TEXT	SEGMENT PARA USE32 PUBLIC 'CODE'
_TEXT	ENDS
;	COMDAT ?erase@?$vector@EV?$allocator@E@std@@@std@@QAE?AViterator@12@V312@0@Z
_TEXT	SEGMENT PARA USE32 PUBLIC 'CODE'
_TEXT	ENDS
;	COMDAT ?construct@?$allocator@U__SPAWNREGION@CEventLua@@@std@@QAEXPAU__SPAWNREGION@CEventLua@@ABU34@@Z
_TEXT	SEGMENT PARA USE32 PUBLIC 'CODE'
_TEXT	ENDS
;	COMDAT ?destroy@?$allocator@U__SPAWNREGION@CEventLua@@@std@@QAEXPAU__SPAWNREGION@CEventLua@@@Z
_TEXT	SEGMENT PARA USE32 PUBLIC 'CODE'
_TEXT	ENDS
;	COMDAT ?destroy@?$allocator@UD3DXVECTOR3@@@std@@QAEXPAUD3DXVECTOR3@@@Z
_TEXT	SEGMENT PARA USE32 PUBLIC 'CODE'
_TEXT	ENDS
;	COMDAT ?destroy@?$allocator@U_GIFTBOX@@@std@@QAEXPAU_GIFTBOX@@@Z
_TEXT	SEGMENT PARA USE32 PUBLIC 'CODE'
_TEXT	ENDS
;	COMDAT ??0?$pair@KPAVCGuildHouseBase@@@std@@QAE@ABKABQAVCGuildHouseBase@@@Z
_TEXT	SEGMENT PARA USE32 PUBLIC 'CODE'
_TEXT	ENDS
;	COMDAT ??9const_iterator@?$vector@EV?$allocator@E@std@@@std@@QBE_NABV012@@Z
_TEXT	SEGMENT PARA USE32 PUBLIC 'CODE'
_TEXT	ENDS
;	COMDAT ??0iterator@?$vector@EV?$allocator@E@std@@@std@@QAE@PAE@Z
_TEXT	SEGMENT PARA USE32 PUBLIC 'CODE'
_TEXT	ENDS
;	COMDAT ??8const_iterator@?$vector@EV?$allocator@E@std@@@std@@QBE_NABV012@@Z
_TEXT	SEGMENT PARA USE32 PUBLIC 'CODE'
_TEXT	ENDS
;	COMDAT ??$insert@Vconst_iterator@?$vector@EV?$allocator@E@std@@@std@@@?$vector@EV?$allocator@E@std@@@std@@QAEXViterator@01@Vconst_iterator@01@1@Z
_TEXT	SEGMENT PARA USE32 PUBLIC 'CODE'
_TEXT	ENDS
;	COMDAT ??$_Ptr_cat@Vconst_iterator@?$vector@EV?$allocator@E@std@@@std@@PAE@std@@YA?AU_Nonscalar_ptr_iterator_tag@0@AAVconst_iterator@?$vector@EV?$allocator@E@std@@@0@AAPAE@Z
_TEXT	SEGMENT PARA USE32 PUBLIC 'CODE'
_TEXT	ENDS
;	COMDAT ??$_Uninit_copy@Vconst_iterator@?$vector@EV?$allocator@E@std@@@std@@PAEV?$allocator@E@3@@std@@YAPAEVconst_iterator@?$vector@EV?$allocator@E@std@@@0@0PAEAAV?$allocator@E@0@U_Nonscalar_ptr_iterator_tag@0@@Z
_TEXT	SEGMENT PARA USE32 PUBLIC 'CODE'
_TEXT	ENDS
;	COMDAT ??$_Uninit_copy@JJ@std@@YAPAJPAJ00AAV?$allocator@J@0@U_Scalar_ptr_iterator_tag@0@@Z
_TEXT	SEGMENT PARA USE32 PUBLIC 'CODE'
_TEXT	ENDS
;	COMDAT ??$_Uninit_copy@PAU__SPAWNREGION@CEventLua@@PAU12@V?$allocator@U__SPAWNREGION@CEventLua@@@std@@@std@@YAPAU__SPAWNREGION@CEventLua@@PAU12@00AAV?$allocator@U__SPAWNREGION@CEventLua@@@0@U_Nonscalar_ptr_iterator_tag@0@@Z
_TEXT	SEGMENT PARA USE32 PUBLIC 'CODE'
_TEXT	ENDS
;	COMDAT ??$fill_n@PAJIJ@std@@YAXPAJIABJ@Z
_TEXT	SEGMENT PARA USE32 PUBLIC 'CODE'
_TEXT	ENDS
;	COMDAT ??$_Iter_cat@Viterator@?$_Tree@V?$_Tmap_traits@KU_Friend@@U?$less@K@std@@V?$allocator@U?$pair@$$CBKU_Friend@@@std@@@3@$0A@@std@@@std@@@std@@YA?AUbidirectional_iterator_tag@0@ABViterator@?$_Tree@V?$_Tmap_traits@KU_Friend@@U?$less@K@std@@V?$allocator@U?$pair@$$CBKU_Friend@@@std@@@3@$0A@@std@@@0@@Z
_TEXT	SEGMENT PARA USE32 PUBLIC 'CODE'
_TEXT	ENDS
;	COMDAT ??$_Distance2@Viterator@?$_Tree@V?$_Tmap_traits@KU_Friend@@U?$less@K@std@@V?$allocator@U?$pair@$$CBKU_Friend@@@std@@@3@$0A@@std@@@std@@I@std@@YAXViterator@?$_Tree@V?$_Tmap_traits@KU_Friend@@U?$less@K@std@@V?$allocator@U?$pair@$$CBKU_Friend@@@std@@@3@$0A@@std@@@0@0AAIUbidirectional_iterator_tag@0@@Z
_TEXT	SEGMENT PARA USE32 PUBLIC 'CODE'
_TEXT	ENDS
;	COMDAT ??$_Iter_cat@Viterator@?$_Tree@V?$_Tmap_traits@KKU?$less@K@std@@V?$allocator@U?$pair@$$CBKK@std@@@2@$0A@@std@@@std@@@std@@YA?AUbidirectional_iterator_tag@0@ABViterator@?$_Tree@V?$_Tmap_traits@KKU?$less@K@std@@V?$allocator@U?$pair@$$CBKK@std@@@2@$0A@@std@@@0@@Z
_TEXT	SEGMENT PARA USE32 PUBLIC 'CODE'
_TEXT	ENDS
;	COMDAT ??$_Distance2@Viterator@?$_Tree@V?$_Tmap_traits@KKU?$less@K@std@@V?$allocator@U?$pair@$$CBKK@std@@@2@$0A@@std@@@std@@I@std@@YAXViterator@?$_Tree@V?$_Tmap_traits@KKU?$less@K@std@@V?$allocator@U?$pair@$$CBKK@std@@@2@$0A@@std@@@0@0AAIUbidirectional_iterator_tag@0@@Z
_TEXT	SEGMENT PARA USE32 PUBLIC 'CODE'
_TEXT	ENDS
;	COMDAT ??$_Ptr_cat@PAV?$basic_string@DU?$char_traits@D@std@@V?$allocator@D@2@@std@@PAV12@@std@@YA?AU_Nonscalar_ptr_iterator_tag@0@AAPAV?$basic_string@DU?$char_traits@D@std@@V?$allocator@D@2@@0@0@Z
_TEXT	SEGMENT PARA USE32 PUBLIC 'CODE'
_TEXT	ENDS
;	COMDAT ??$_Uninit_fill_n@PAV?$basic_string@DU?$char_traits@D@std@@V?$allocator@D@2@@std@@IV12@V?$allocator@V?$basic_string@DU?$char_traits@D@std@@V?$allocator@D@2@@std@@@2@@std@@YAXPAV?$basic_string@DU?$char_traits@D@std@@V?$allocator@D@2@@0@IABV10@AAV?$allocator@V?$basic_string@DU?$char_traits@D@std@@V?$allocator@D@2@@std@@@0@U_Nonscalar_ptr_iterator_tag@0@@Z
_TEXT	SEGMENT PARA USE32 PUBLIC 'CODE'
_TEXT	ENDS
;	COMDAT ??$_Ptr_cat@PAUMINIGMAME_PRIZE_LIST@CRainbowRaceMng@@PAU12@@std@@YA?AU_Nonscalar_ptr_iterator_tag@0@AAPAUMINIGMAME_PRIZE_LIST@CRainbowRaceMng@@0@Z
_TEXT	SEGMENT PARA USE32 PUBLIC 'CODE'
_TEXT	ENDS
;	COMDAT ??$_Uninit_fill_n@PAUMINIGMAME_PRIZE_LIST@CRainbowRaceMng@@IU12@V?$allocator@UMINIGMAME_PRIZE_LIST@CRainbowRaceMng@@@std@@@std@@YAXPAUMINIGMAME_PRIZE_LIST@CRainbowRaceMng@@IABU12@AAV?$allocator@UMINIGMAME_PRIZE_LIST@CRainbowRaceMng@@@0@U_Nonscalar_ptr_iterator_tag@0@@Z
_TEXT	SEGMENT PARA USE32 PUBLIC 'CODE'
_TEXT	ENDS
;	COMDAT ??$_Ptr_cat@U__JOINPLAYER@CGuildCombat@@@std@@YA?AU_Scalar_ptr_iterator_tag@0@PAPAU__JOINPLAYER@CGuildCombat@@0@Z
_TEXT	SEGMENT PARA USE32 PUBLIC 'CODE'
_TEXT	ENDS
;	COMDAT ??$_Destroy_range@PAU__JOINPLAYER@CGuildCombat@@V?$allocator@PAU__JOINPLAYER@CGuildCombat@@@std@@@std@@YAXPAPAU__JOINPLAYER@CGuildCombat@@0AAV?$allocator@PAU__JOINPLAYER@CGuildCombat@@@0@U_Scalar_ptr_iterator_tag@0@@Z
_TEXT	SEGMENT PARA USE32 PUBLIC 'CODE'
_TEXT	ENDS
;	COMDAT ??$_Ptr_cat@PAU__SECRETROOM_MONSTER@@PAU1@@std@@YA?AU_Nonscalar_ptr_iterator_tag@0@AAPAU__SECRETROOM_MONSTER@@0@Z
_TEXT	SEGMENT PARA USE32 PUBLIC 'CODE'
_TEXT	ENDS
;	COMDAT ??$_Destroy_range@U__SECRETROOM_MONSTER@@V?$allocator@U__SECRETROOM_MONSTER@@@std@@@std@@YAXPAU__SECRETROOM_MONSTER@@0AAV?$allocator@U__SECRETROOM_MONSTER@@@0@U_Nonscalar_ptr_iterator_tag@0@@Z
_TEXT	SEGMENT PARA USE32 PUBLIC 'CODE'
_TEXT	ENDS
;	COMDAT ??$_Destroy_range@V?$basic_string@DU?$char_traits@D@std@@V?$allocator@D@2@@std@@V?$allocator@V?$basic_string@DU?$char_traits@D@std@@V?$allocator@D@2@@std@@@2@@std@@YAXPAV?$basic_string@DU?$char_traits@D@std@@V?$allocator@D@2@@0@0AAV?$allocator@V?$basic_string@DU?$char_traits@D@std@@V?$allocator@D@2@@std@@@0@U_Nonscalar_ptr_iterator_tag@0@@Z
_TEXT	SEGMENT PARA USE32 PUBLIC 'CODE'
_TEXT	ENDS
;	COMDAT ??$_Uninitialized_copy@PAV?$basic_string@DU?$char_traits@D@std@@V?$allocator@D@2@@std@@PAV12@V?$allocator@V?$basic_string@DU?$char_traits@D@std@@V?$allocator@D@2@@std@@@2@@std@@YAPAV?$basic_string@DU?$char_traits@D@std@@V?$allocator@D@2@@0@PAV10@00AAV?$allocator@V?$basic_string@DU?$char_traits@D@std@@V?$allocator@D@2@@std@@@0@@Z
_TEXT	SEGMENT PARA USE32 PUBLIC 'CODE'
_TEXT	ENDS
;	COMDAT ??$_Copy_backward_opt@PAV?$basic_string@DU?$char_traits@D@std@@V?$allocator@D@2@@std@@PAV12@@std@@YAPAV?$basic_string@DU?$char_traits@D@std@@V?$allocator@D@2@@0@PAV10@00U_Nonscalar_ptr_iterator_tag@0@@Z
_TEXT	SEGMENT PARA USE32 PUBLIC 'CODE'
_TEXT	ENDS
;	COMDAT ??$_Uninitialized_copy@PAUMINIGMAME_PRIZE_LIST@CRainbowRaceMng@@PAU12@V?$allocator@UMINIGMAME_PRIZE_LIST@CRainbowRaceMng@@@std@@@std@@YAPAUMINIGMAME_PRIZE_LIST@CRainbowRaceMng@@PAU12@00AAV?$allocator@UMINIGMAME_PRIZE_LIST@CRainbowRaceMng@@@0@@Z
_TEXT	SEGMENT PARA USE32 PUBLIC 'CODE'
_TEXT	ENDS
;	COMDAT ??$_Copy_backward_opt@PAUMINIGMAME_PRIZE_LIST@CRainbowRaceMng@@PAU12@@std@@YAPAUMINIGMAME_PRIZE_LIST@CRainbowRaceMng@@PAU12@00U_Nonscalar_ptr_iterator_tag@0@@Z
_TEXT	SEGMENT PARA USE32 PUBLIC 'CODE'
_TEXT	ENDS
;	COMDAT ??$_Destroy_range@UMINIGMAME_PRIZE_LIST@CRainbowRaceMng@@V?$allocator@UMINIGMAME_PRIZE_LIST@CRainbowRaceMng@@@std@@@std@@YAXPAUMINIGMAME_PRIZE_LIST@CRainbowRaceMng@@0AAV?$allocator@UMINIGMAME_PRIZE_LIST@CRainbowRaceMng@@@0@U_Nonscalar_ptr_iterator_tag@0@@Z
_TEXT	SEGMENT PARA USE32 PUBLIC 'CODE'
_TEXT	ENDS
;	COMDAT ??$_Destroy@UtagDROPITEM@@@std@@YAXPAUtagDROPITEM@@@Z
_TEXT	SEGMENT PARA USE32 PUBLIC 'CODE'
_TEXT	ENDS
;	COMDAT ??$_Destroy@UWORMON@@@std@@YAXPAUWORMON@@@Z
_TEXT	SEGMENT PARA USE32 PUBLIC 'CODE'
_TEXT	ENDS
;	COMDAT ??$_Destroy@U__ITEMGAME@CMiniGame@@@std@@YAXPAU__ITEMGAME@CMiniGame@@@Z
_TEXT	SEGMENT PARA USE32 PUBLIC 'CODE'
_TEXT	ENDS
;	COMDAT ??$_Destroy@U__ITEM@CExchange@@@std@@YAXPAU__ITEM@CExchange@@@Z
_TEXT	SEGMENT PARA USE32 PUBLIC 'CODE'
_TEXT	ENDS
;	COMDAT ??$_Destroy@U__POINT@CExchange@@@std@@YAXPAU__POINT@CExchange@@@Z
_TEXT	SEGMENT PARA USE32 PUBLIC 'CODE'
_TEXT	ENDS
;	COMDAT ??$copy@PAEPAE@std@@YAPAEPAE00@Z
_TEXT	SEGMENT PARA USE32 PUBLIC 'CODE'
_TEXT	ENDS
;	COMDAT ??$_Construct@U__SPAWNREGION@CEventLua@@U12@@std@@YAXPAU__SPAWNREGION@CEventLua@@ABU12@@Z
_TEXT	SEGMENT PARA USE32 PUBLIC 'CODE'
_TEXT	ENDS
;	COMDAT ??$_Destroy@U__SPAWNREGION@CEventLua@@@std@@YAXPAU__SPAWNREGION@CEventLua@@@Z
_TEXT	SEGMENT PARA USE32 PUBLIC 'CODE'
_TEXT	ENDS
;	COMDAT ??$_Destroy@UD3DXVECTOR3@@@std@@YAXPAUD3DXVECTOR3@@@Z
_TEXT	SEGMENT PARA USE32 PUBLIC 'CODE'
_TEXT	ENDS
;	COMDAT ??$_Destroy@U_GIFTBOX@@@std@@YAXPAU_GIFTBOX@@@Z
_TEXT	SEGMENT PARA USE32 PUBLIC 'CODE'
_TEXT	ENDS
;	COMDAT ?construct@?$allocator@V?$basic_string@DU?$char_traits@D@std@@V?$allocator@D@2@@std@@@std@@QAEXPAV?$basic_string@DU?$char_traits@D@std@@V?$allocator@D@2@@2@ABV32@@Z
_TEXT	SEGMENT PARA USE32 PUBLIC 'CODE'
_TEXT	ENDS
;	COMDAT ?destroy@?$allocator@V?$basic_string@DU?$char_traits@D@std@@V?$allocator@D@2@@std@@@std@@QAEXPAV?$basic_string@DU?$char_traits@D@std@@V?$allocator@D@2@@2@@Z
_TEXT	SEGMENT PARA USE32 PUBLIC 'CODE'
_TEXT	ENDS
;	COMDAT ?construct@?$allocator@E@std@@QAEXPAEABE@Z
_TEXT	SEGMENT PARA USE32 PUBLIC 'CODE'
_TEXT	ENDS
;	COMDAT ?destroy@?$allocator@E@std@@QAEXPAE@Z
_TEXT	SEGMENT PARA USE32 PUBLIC 'CODE'
_TEXT	ENDS
;	COMDAT ??Dconst_iterator@?$vector@EV?$allocator@E@std@@@std@@QBEABEXZ
_TEXT	SEGMENT PARA USE32 PUBLIC 'CODE'
_TEXT	ENDS
;	COMDAT ??Econst_iterator@?$vector@EV?$allocator@E@std@@@std@@QAEAAV012@XZ
_TEXT	SEGMENT PARA USE32 PUBLIC 'CODE'
_TEXT	ENDS
;	COMDAT ?destroy@?$allocator@U__SECRETROOM_MONSTER@@@std@@QAEXPAU__SECRETROOM_MONSTER@@@Z
_TEXT	SEGMENT PARA USE32 PUBLIC 'CODE'
_TEXT	ENDS
;	COMDAT ?construct@?$allocator@UMINIGMAME_PRIZE_LIST@CRainbowRaceMng@@@std@@QAEXPAUMINIGMAME_PRIZE_LIST@CRainbowRaceMng@@ABU34@@Z
_TEXT	SEGMENT PARA USE32 PUBLIC 'CODE'
_TEXT	ENDS
;	COMDAT ?destroy@?$allocator@UMINIGMAME_PRIZE_LIST@CRainbowRaceMng@@@std@@QAEXPAUMINIGMAME_PRIZE_LIST@CRainbowRaceMng@@@Z
_TEXT	SEGMENT PARA USE32 PUBLIC 'CODE'
_TEXT	ENDS
;	COMDAT ??$_Insert@Vconst_iterator@?$vector@EV?$allocator@E@std@@@std@@@?$vector@EV?$allocator@E@std@@@std@@QAEXViterator@01@Vconst_iterator@01@1Uforward_iterator_tag@1@@Z
_TEXT	SEGMENT PARA USE32 PUBLIC 'CODE'
_TEXT	ENDS
;	COMDAT ??$_Uninit_copy@PAV?$basic_string@DU?$char_traits@D@std@@V?$allocator@D@2@@std@@PAV12@V?$allocator@V?$basic_string@DU?$char_traits@D@std@@V?$allocator@D@2@@std@@@2@@std@@YAPAV?$basic_string@DU?$char_traits@D@std@@V?$allocator@D@2@@0@PAV10@00AAV?$allocator@V?$basic_string@DU?$char_traits@D@std@@V?$allocator@D@2@@std@@@0@U_Nonscalar_ptr_iterator_tag@0@@Z
_TEXT	SEGMENT PARA USE32 PUBLIC 'CODE'
_TEXT	ENDS
;	COMDAT ??$_Uninit_copy@PAUMINIGMAME_PRIZE_LIST@CRainbowRaceMng@@PAU12@V?$allocator@UMINIGMAME_PRIZE_LIST@CRainbowRaceMng@@@std@@@std@@YAPAUMINIGMAME_PRIZE_LIST@CRainbowRaceMng@@PAU12@00AAV?$allocator@UMINIGMAME_PRIZE_LIST@CRainbowRaceMng@@@0@U_Nonscalar_ptr_iterator_tag@0@@Z
_TEXT	SEGMENT PARA USE32 PUBLIC 'CODE'
_TEXT	ENDS
;	COMDAT ??$_Copy_opt@PAEPAE@std@@YAPAEPAE00U_Scalar_ptr_iterator_tag@0@@Z
_TEXT	SEGMENT PARA USE32 PUBLIC 'CODE'
_TEXT	ENDS
;	COMDAT ??$_Construct@V?$basic_string@DU?$char_traits@D@std@@V?$allocator@D@2@@std@@V12@@std@@YAXPAV?$basic_string@DU?$char_traits@D@std@@V?$allocator@D@2@@0@ABV10@@Z
_TEXT	SEGMENT PARA USE32 PUBLIC 'CODE'
_TEXT	ENDS
;	COMDAT ??$_Destroy@V?$basic_string@DU?$char_traits@D@std@@V?$allocator@D@2@@std@@@std@@YAXPAV?$basic_string@DU?$char_traits@D@std@@V?$allocator@D@2@@0@@Z
_TEXT	SEGMENT PARA USE32 PUBLIC 'CODE'
_TEXT	ENDS
;	COMDAT ??$_Construct@EE@std@@YAXPAEABE@Z
_TEXT	SEGMENT PARA USE32 PUBLIC 'CODE'
_TEXT	ENDS
;	COMDAT ??$_Destroy@E@std@@YAXPAE@Z
_TEXT	SEGMENT PARA USE32 PUBLIC 'CODE'
_TEXT	ENDS
;	COMDAT ??$_Destroy@U__SECRETROOM_MONSTER@@@std@@YAXPAU__SECRETROOM_MONSTER@@@Z
_TEXT	SEGMENT PARA USE32 PUBLIC 'CODE'
_TEXT	ENDS
;	COMDAT ??$_Construct@UMINIGMAME_PRIZE_LIST@CRainbowRaceMng@@U12@@std@@YAXPAUMINIGMAME_PRIZE_LIST@CRainbowRaceMng@@ABU12@@Z
_TEXT	SEGMENT PARA USE32 PUBLIC 'CODE'
_TEXT	ENDS
;	COMDAT ??$_Destroy@UMINIGMAME_PRIZE_LIST@CRainbowRaceMng@@@std@@YAXPAUMINIGMAME_PRIZE_LIST@CRainbowRaceMng@@@Z
_TEXT	SEGMENT PARA USE32 PUBLIC 'CODE'
_TEXT	ENDS
;	COMDAT ??_G?$basic_string@DU?$char_traits@D@std@@V?$allocator@D@2@@std@@QAEPAXI@Z
_TEXT	SEGMENT PARA USE32 PUBLIC 'CODE'
_TEXT	ENDS
;	COMDAT ?capacity@?$vector@EV?$allocator@E@std@@@std@@QBEIXZ
_TEXT	SEGMENT PARA USE32 PUBLIC 'CODE'
_TEXT	ENDS
;	COMDAT ??Giterator@?$vector@EV?$allocator@E@std@@@std@@QBEHABVconst_iterator@12@@Z
_TEXT	SEGMENT PARA USE32 PUBLIC 'CODE'
_TEXT	ENDS
;	COMDAT ??Gconst_iterator@?$vector@EV?$allocator@E@std@@@std@@QBEHABV012@@Z
_TEXT	SEGMENT PARA USE32 PUBLIC 'CODE'
_TEXT	ENDS
;	COMDAT ??$_Distance@Vconst_iterator@?$vector@EV?$allocator@E@std@@@std@@I@std@@YAXVconst_iterator@?$vector@EV?$allocator@E@std@@@0@0AAI@Z
_TEXT	SEGMENT PARA USE32 PUBLIC 'CODE'
_TEXT	ENDS
;	COMDAT ??$_Ucopy@PAE@?$vector@EV?$allocator@E@std@@@std@@IAEPAEPAE00@Z
_TEXT	SEGMENT PARA USE32 PUBLIC 'CODE'
_TEXT	ENDS
;	COMDAT ??$advance@Vconst_iterator@?$vector@EV?$allocator@E@std@@@std@@H@std@@YAXAAVconst_iterator@?$vector@EV?$allocator@E@std@@@0@H@Z
_TEXT	SEGMENT PARA USE32 PUBLIC 'CODE'
_TEXT	ENDS
;	COMDAT ??$copy@Vconst_iterator@?$vector@EV?$allocator@E@std@@@std@@PAE@std@@YAPAEVconst_iterator@?$vector@EV?$allocator@E@std@@@0@0PAE@Z
_TEXT	SEGMENT PARA USE32 PUBLIC 'CODE'
_TEXT	ENDS
;	COMDAT ??$copy_backward@PAEPAE@std@@YAPAEPAE00@Z
_TEXT	SEGMENT PARA USE32 PUBLIC 'CODE'
_TEXT	ENDS
;	COMDAT ??$_Distance2@Vconst_iterator@?$vector@EV?$allocator@E@std@@@std@@I@std@@YAXVconst_iterator@?$vector@EV?$allocator@E@std@@@0@0AAIUrandom_access_iterator_tag@0@@Z
_TEXT	SEGMENT PARA USE32 PUBLIC 'CODE'
_TEXT	ENDS
;	COMDAT ??$_Uninitialized_copy@PAEPAEV?$allocator@E@std@@@std@@YAPAEPAE00AAV?$allocator@E@0@@Z
_TEXT	SEGMENT PARA USE32 PUBLIC 'CODE'
_TEXT	ENDS
;	COMDAT ??$_Advance@Vconst_iterator@?$vector@EV?$allocator@E@std@@@std@@H@std@@YAXAAVconst_iterator@?$vector@EV?$allocator@E@std@@@0@HUrandom_access_iterator_tag@0@@Z
_TEXT	SEGMENT PARA USE32 PUBLIC 'CODE'
_TEXT	ENDS
;	COMDAT ??$_Copy_opt@Vconst_iterator@?$vector@EV?$allocator@E@std@@@std@@PAE@std@@YAPAEVconst_iterator@?$vector@EV?$allocator@E@std@@@0@0PAEU_Nonscalar_ptr_iterator_tag@0@@Z
_TEXT	SEGMENT PARA USE32 PUBLIC 'CODE'
_TEXT	ENDS
;	COMDAT ??$_Copy_backward_opt@PAEPAE@std@@YAPAEPAE00U_Scalar_ptr_iterator_tag@0@@Z
_TEXT	SEGMENT PARA USE32 PUBLIC 'CODE'
_TEXT	ENDS
;	COMDAT ??Yconst_iterator@?$vector@EV?$allocator@E@std@@@std@@QAEAAV012@H@Z
_TEXT	SEGMENT PARA USE32 PUBLIC 'CODE'
_TEXT	ENDS
;	COMDAT ??$_Uninit_copy@EE@std@@YAPAEPAE00AAV?$allocator@E@0@U_Scalar_ptr_iterator_tag@0@@Z
_TEXT	SEGMENT PARA USE32 PUBLIC 'CODE'
_TEXT	ENDS
;	COMDAT ?IsReturnToBegin@CAIInterface@@UAEHXZ
_TEXT	SEGMENT PARA USE32 PUBLIC 'CODE'
_TEXT	ENDS
;	COMDAT ?deallocate@?$allocator@E@std@@QAEXPAEI@Z
_TEXT	SEGMENT PARA USE32 PUBLIC 'CODE'
_TEXT	ENDS
;	COMDAT ??$_Ucopy@Vconst_iterator@?$vector@EV?$allocator@E@std@@@std@@@?$vector@EV?$allocator@E@std@@@std@@IAEPAEVconst_iterator@01@0PAE@Z
_TEXT	SEGMENT PARA USE32 PUBLIC 'CODE'
_TEXT	ENDS
;	COMDAT ?allocate@?$allocator@E@std@@QAEPAEI@Z
_TEXT	SEGMENT PARA USE32 PUBLIC 'CODE'
_TEXT	ENDS
;	COMDAT ??$_Allocate@E@std@@YAPAEIPAE@Z
_TEXT	SEGMENT PARA USE32 PUBLIC 'CODE'
_TEXT	ENDS
;	COMDAT ?_Xlen@?$vector@EV?$allocator@E@std@@@std@@IBEXXZ
_TEXT	SEGMENT PARA USE32 PUBLIC 'CODE'
_TEXT	ENDS
;	COMDAT ?size@?$vector@EV?$allocator@E@std@@@std@@QBEIXZ
_TEXT	SEGMENT PARA USE32 PUBLIC 'CODE'
_TEXT	ENDS
;	COMDAT ?max_size@?$vector@EV?$allocator@E@std@@@std@@QBEIXZ
_TEXT	SEGMENT PARA USE32 PUBLIC 'CODE'
_TEXT	ENDS
;	COMDAT ?max_size@?$allocator@E@std@@QBEIXZ
_TEXT	SEGMENT PARA USE32 PUBLIC 'CODE'
_TEXT	ENDS
;	COMDAT ?_Ptr_cat@std@@YA?AU_Scalar_ptr_iterator_tag@1@PAE0@Z
_TEXT	SEGMENT PARA USE32 PUBLIC 'CODE'
_TEXT	ENDS
;	COMDAT ??0const_iterator@?$vector@EV?$allocator@E@std@@@std@@QAE@PAE@Z
_TEXT	SEGMENT PARA USE32 PUBLIC 'CODE'
_TEXT	ENDS
;	COMDAT ?_Destroy@?$vector@EV?$allocator@E@std@@@std@@IAEXPAE0@Z
_TEXT	SEGMENT PARA USE32 PUBLIC 'CODE'
_TEXT	ENDS
;	COMDAT ??$_Destroy_range@EV?$allocator@E@std@@@std@@YAXPAE0AAV?$allocator@E@0@@Z
_TEXT	SEGMENT PARA USE32 PUBLIC 'CODE'
_TEXT	ENDS
;	COMDAT ??4?$basic_string@DU?$char_traits@D@std@@V?$allocator@D@2@@std@@QAEAAV01@ABV01@@Z
_TEXT	SEGMENT PARA USE32 PUBLIC 'CODE'
_TEXT	ENDS
;	COMDAT ?assign@?$basic_string@DU?$char_traits@D@std@@V?$allocator@D@2@@std@@QAEAAV12@ABV12@@Z
_TEXT	SEGMENT PARA USE32 PUBLIC 'CODE'
_TEXT	ENDS
;	COMDAT ?assign@?$basic_string@DU?$char_traits@D@std@@V?$allocator@D@2@@std@@QAEAAV12@ABV12@II@Z
_TEXT	SEGMENT PARA USE32 PUBLIC 'CODE'
_TEXT	ENDS
;	COMDAT ?erase@?$basic_string@DU?$char_traits@D@std@@V?$allocator@D@2@@std@@QAEAAV12@II@Z
_TEXT	SEGMENT PARA USE32 PUBLIC 'CODE'
_TEXT	ENDS
;	COMDAT ?move@?$char_traits@D@std@@SAPADPADPBDI@Z
_TEXT	SEGMENT PARA USE32 PUBLIC 'CODE'
_TEXT	ENDS
;	COMDAT ?_Grow@?$basic_string@DU?$char_traits@D@std@@V?$allocator@D@2@@std@@IAE_NI_N@Z
_TEXT	SEGMENT PARA USE32 PUBLIC 'CODE'
_TEXT	ENDS
;	COMDAT ?max_size@?$basic_string@DU?$char_traits@D@std@@V?$allocator@D@2@@std@@QBEIXZ
_TEXT	SEGMENT PARA USE32 PUBLIC 'CODE'
_TEXT	ENDS
;	COMDAT ?max_size@?$allocator@D@std@@QBEIXZ
_TEXT	SEGMENT PARA USE32 PUBLIC 'CODE'
_TEXT	ENDS
;	COMDAT ?_Copy@?$basic_string@DU?$char_traits@D@std@@V?$allocator@D@2@@std@@IAEXII@Z
_TEXT	SEGMENT PARA USE32 PUBLIC 'CODE'
_TEXT	ENDS
;	COMDAT ?allocate@?$allocator@D@std@@QAEPADI@Z
_TEXT	SEGMENT PARA USE32 PUBLIC 'CODE'
_TEXT	ENDS
;	COMDAT ??$_Allocate@D@std@@YAPADIPAD@Z
_TEXT	SEGMENT PARA USE32 PUBLIC 'CODE'
_TEXT	ENDS
;	COMDAT ?_Tidy@?$basic_string@DU?$char_traits@D@std@@V?$allocator@D@2@@std@@IAEX_NI@Z
_TEXT	SEGMENT PARA USE32 PUBLIC 'CODE'
_TEXT	ENDS
;	COMDAT ?deallocate@?$allocator@D@std@@QAEXPADI@Z
_TEXT	SEGMENT PARA USE32 PUBLIC 'CODE'
_TEXT	ENDS
;	COMDAT ?copy@?$char_traits@D@std@@SAPADPADPBDI@Z
_TEXT	SEGMENT PARA USE32 PUBLIC 'CODE'
_TEXT	ENDS
;	COMDAT ?_Myptr@?$basic_string@DU?$char_traits@D@std@@V?$allocator@D@2@@std@@QAEPADXZ
_TEXT	SEGMENT PARA USE32 PUBLIC 'CODE'
_TEXT	ENDS
;	COMDAT ?_Eos@?$basic_string@DU?$char_traits@D@std@@V?$allocator@D@2@@std@@IAEXI@Z
_TEXT	SEGMENT PARA USE32 PUBLIC 'CODE'
_TEXT	ENDS
;	COMDAT ?assign@?$char_traits@D@std@@SAXAADABD@Z
_TEXT	SEGMENT PARA USE32 PUBLIC 'CODE'
_TEXT	ENDS
;	COMDAT ?npos@?$basic_string@DU?$char_traits@D@std@@V?$allocator@D@2@@std@@2IB
CONST	SEGMENT DWORD USE32 PUBLIC 'CONST'
CONST	ENDS
;	COMDAT ?_Ptr_cat@std@@YA?AU_Scalar_ptr_iterator_tag@1@PAJ0@Z
_TEXT	SEGMENT PARA USE32 PUBLIC 'CODE'
_TEXT	ENDS
;	COMDAT ??9const_iterator@?$_Tree@V?$_Tmap_traits@KEU?$less@K@std@@V?$allocator@U?$pair@$$CBKE@std@@@2@$0A@@std@@@std@@QBE_NABV012@@Z
_TEXT	SEGMENT PARA USE32 PUBLIC 'CODE'
_TEXT	ENDS
;	COMDAT ??8const_iterator@?$_Tree@V?$_Tmap_traits@KEU?$less@K@std@@V?$allocator@U?$pair@$$CBKE@std@@@2@$0A@@std@@@std@@QBE_NABV012@@Z
_TEXT	SEGMENT PARA USE32 PUBLIC 'CODE'
_TEXT	ENDS
;	COMDAT ??Eiterator@?$_Tree@V?$_Tmap_traits@KEU?$less@K@std@@V?$allocator@U?$pair@$$CBKE@std@@@2@$0A@@std@@@std@@QAEAAV012@XZ
_TEXT	SEGMENT PARA USE32 PUBLIC 'CODE'
_TEXT	ENDS
;	COMDAT ??Econst_iterator@?$_Tree@V?$_Tmap_traits@KEU?$less@K@std@@V?$allocator@U?$pair@$$CBKE@std@@@2@$0A@@std@@@std@@QAEAAV012@XZ
_TEXT	SEGMENT PARA USE32 PUBLIC 'CODE'
_TEXT	ENDS
;	COMDAT ?_Inc@const_iterator@?$_Tree@V?$_Tmap_traits@KEU?$less@K@std@@V?$allocator@U?$pair@$$CBKE@std@@@2@$0A@@std@@@std@@QAEXXZ
_TEXT	SEGMENT PARA USE32 PUBLIC 'CODE'
_TEXT	ENDS
;	COMDAT ?_Min@?$_Tree@V?$_Tmap_traits@KEU?$less@K@std@@V?$allocator@U?$pair@$$CBKE@std@@@2@$0A@@std@@@std@@KAPAU_Node@?$_Tree_nod@V?$_Tmap_traits@KEU?$less@K@std@@V?$allocator@U?$pair@$$CBKE@std@@@2@$0A@@std@@@2@PAU342@@Z
_TEXT	SEGMENT PARA USE32 PUBLIC 'CODE'
_TEXT	ENDS
;	COMDAT ?_Left@?$_Tree@V?$_Tmap_traits@KEU?$less@K@std@@V?$allocator@U?$pair@$$CBKE@std@@@2@$0A@@std@@@std@@KAAAPAU_Node@?$_Tree_nod@V?$_Tmap_traits@KEU?$less@K@std@@V?$allocator@U?$pair@$$CBKE@std@@@2@$0A@@std@@@2@PAU342@@Z
_TEXT	SEGMENT PARA USE32 PUBLIC 'CODE'
_TEXT	ENDS
;	COMDAT ?_Isnil@?$_Tree@V?$_Tmap_traits@KEU?$less@K@std@@V?$allocator@U?$pair@$$CBKE@std@@@2@$0A@@std@@@std@@KAAADPAU_Node@?$_Tree_nod@V?$_Tmap_traits@KEU?$less@K@std@@V?$allocator@U?$pair@$$CBKE@std@@@2@$0A@@std@@@2@@Z
_TEXT	SEGMENT PARA USE32 PUBLIC 'CODE'
_TEXT	ENDS
;	COMDAT ?_Parent@?$_Tree@V?$_Tmap_traits@KEU?$less@K@std@@V?$allocator@U?$pair@$$CBKE@std@@@2@$0A@@std@@@std@@KAAAPAU_Node@?$_Tree_nod@V?$_Tmap_traits@KEU?$less@K@std@@V?$allocator@U?$pair@$$CBKE@std@@@2@$0A@@std@@@2@PAU342@@Z
_TEXT	SEGMENT PARA USE32 PUBLIC 'CODE'
_TEXT	ENDS
;	COMDAT ?_Right@?$_Tree@V?$_Tmap_traits@KEU?$less@K@std@@V?$allocator@U?$pair@$$CBKE@std@@@2@$0A@@std@@@std@@KAAAPAU_Node@?$_Tree_nod@V?$_Tmap_traits@KEU?$less@K@std@@V?$allocator@U?$pair@$$CBKE@std@@@2@$0A@@std@@@2@PAU342@@Z
_TEXT	SEGMENT PARA USE32 PUBLIC 'CODE'
_TEXT	ENDS
;	COMDAT ??9const_iterator@?$_Tree@V?$_Tmap_traits@KPAVCCtrl@@U?$less@K@std@@V?$allocator@U?$pair@$$CBKPAVCCtrl@@@std@@@3@$0A@@std@@@std@@QBE_NABV012@@Z
_TEXT	SEGMENT PARA USE32 PUBLIC 'CODE'
_TEXT	ENDS
;	COMDAT ??9const_iterator@?$_Tree@V?$_Tmap_traits@KPAVCUser@@U?$less@K@std@@V?$allocator@U?$pair@$$CBKPAVCUser@@@std@@@3@$0A@@std@@@std@@QBE_NABV012@@Z
_TEXT	SEGMENT PARA USE32 PUBLIC 'CODE'
_TEXT	ENDS
;	COMDAT ??8const_iterator@?$_Tree@V?$_Tmap_traits@KPAVCUser@@U?$less@K@std@@V?$allocator@U?$pair@$$CBKPAVCUser@@@std@@@3@$0A@@std@@@std@@QBE_NABV012@@Z
_TEXT	SEGMENT PARA USE32 PUBLIC 'CODE'
_TEXT	ENDS
;	COMDAT ??Eiterator@?$_Tree@V?$_Tmap_traits@KPAVCUser@@U?$less@K@std@@V?$allocator@U?$pair@$$CBKPAVCUser@@@std@@@3@$0A@@std@@@std@@QAEAAV012@XZ
_TEXT	SEGMENT PARA USE32 PUBLIC 'CODE'
_TEXT	ENDS
;	COMDAT ??Econst_iterator@?$_Tree@V?$_Tmap_traits@KPAVCUser@@U?$less@K@std@@V?$allocator@U?$pair@$$CBKPAVCUser@@@std@@@3@$0A@@std@@@std@@QAEAAV012@XZ
_TEXT	SEGMENT PARA USE32 PUBLIC 'CODE'
_TEXT	ENDS
;	COMDAT ?_Inc@const_iterator@?$_Tree@V?$_Tmap_traits@KPAVCUser@@U?$less@K@std@@V?$allocator@U?$pair@$$CBKPAVCUser@@@std@@@3@$0A@@std@@@std@@QAEXXZ
_TEXT	SEGMENT PARA USE32 PUBLIC 'CODE'
_TEXT	ENDS
;	COMDAT ?_Min@?$_Tree@V?$_Tmap_traits@KPAVCUser@@U?$less@K@std@@V?$allocator@U?$pair@$$CBKPAVCUser@@@std@@@3@$0A@@std@@@std@@KAPAU_Node@?$_Tree_nod@V?$_Tmap_traits@KPAVCUser@@U?$less@K@std@@V?$allocator@U?$pair@$$CBKPAVCUser@@@std@@@3@$0A@@std@@@2@PAU342@@Z
_TEXT	SEGMENT PARA USE32 PUBLIC 'CODE'
_TEXT	ENDS
;	COMDAT ?_Left@?$_Tree@V?$_Tmap_traits@KPAVCUser@@U?$less@K@std@@V?$allocator@U?$pair@$$CBKPAVCUser@@@std@@@3@$0A@@std@@@std@@KAAAPAU_Node@?$_Tree_nod@V?$_Tmap_traits@KPAVCUser@@U?$less@K@std@@V?$allocator@U?$pair@$$CBKPAVCUser@@@std@@@3@$0A@@std@@@2@PAU342@@Z
_TEXT	SEGMENT PARA USE32 PUBLIC 'CODE'
_TEXT	ENDS
;	COMDAT ?_Isnil@?$_Tree@V?$_Tmap_traits@KPAVCUser@@U?$less@K@std@@V?$allocator@U?$pair@$$CBKPAVCUser@@@std@@@3@$0A@@std@@@std@@KAAADPAU_Node@?$_Tree_nod@V?$_Tmap_traits@KPAVCUser@@U?$less@K@std@@V?$allocator@U?$pair@$$CBKPAVCUser@@@std@@@3@$0A@@std@@@2@@Z
_TEXT	SEGMENT PARA USE32 PUBLIC 'CODE'
_TEXT	ENDS
;	COMDAT ?_Parent@?$_Tree@V?$_Tmap_traits@KPAVCUser@@U?$less@K@std@@V?$allocator@U?$pair@$$CBKPAVCUser@@@std@@@3@$0A@@std@@@std@@KAAAPAU_Node@?$_Tree_nod@V?$_Tmap_traits@KPAVCUser@@U?$less@K@std@@V?$allocator@U?$pair@$$CBKPAVCUser@@@std@@@3@$0A@@std@@@2@PAU342@@Z
_TEXT	SEGMENT PARA USE32 PUBLIC 'CODE'
_TEXT	ENDS
;	COMDAT ?_Right@?$_Tree@V?$_Tmap_traits@KPAVCUser@@U?$less@K@std@@V?$allocator@U?$pair@$$CBKPAVCUser@@@std@@@3@$0A@@std@@@std@@KAAAPAU_Node@?$_Tree_nod@V?$_Tmap_traits@KPAVCUser@@U?$less@K@std@@V?$allocator@U?$pair@$$CBKPAVCUser@@@std@@@3@$0A@@std@@@2@PAU342@@Z
_TEXT	SEGMENT PARA USE32 PUBLIC 'CODE'
_TEXT	ENDS
;	COMDAT ?_Psave@?$_Facetptr@V?$ctype@G@std@@@std@@2PBVfacet@locale@2@B
_DATA	SEGMENT DWORD USE32 PUBLIC 'DATA'
_DATA	ENDS
;	COMDAT ?_Psave@?$_Facetptr@V?$ctype@D@std@@@std@@2PBVfacet@locale@2@B
_DATA	SEGMENT DWORD USE32 PUBLIC 'DATA'
_DATA	ENDS
;	COMDAT ??3@YAXPAX0@Z
_TEXT	SEGMENT PARA USE32 PUBLIC 'CODE'
_TEXT	ENDS
;	COMDAT ??2@YAPAXIPAX@Z
_TEXT	SEGMENT PARA USE32 PUBLIC 'CODE'
_TEXT	ENDS
;	COMDAT ??0?$basic_string@DU?$char_traits@D@std@@V?$allocator@D@2@@std@@QAE@ABV01@@Z
_TEXT	SEGMENT PARA USE32 PUBLIC 'CODE'
_TEXT	ENDS
;	COMDAT ??0?$_String_val@DV?$allocator@D@std@@@std@@IAE@V?$allocator@D@1@@Z
_TEXT	SEGMENT PARA USE32 PUBLIC 'CODE'
_TEXT	ENDS
;	COMDAT ??0?$allocator@D@std@@QAE@ABV01@@Z
_TEXT	SEGMENT PARA USE32 PUBLIC 'CODE'
_TEXT	ENDS
;	COMDAT ??_C@_0BD@OLBABOEK@vector?$DMT?$DO?5too?5long?$AA@
CONST	SEGMENT DWORD USE32 PUBLIC 'CONST'
CONST	ENDS
;	COMDAT ??$swap@D@std@@YAXAAD0@Z
_TEXT	SEGMENT PARA USE32 PUBLIC 'CODE'
_TEXT	ENDS
;	COMDAT __TI3?AVout_of_range@std@@
xdata$x	SEGMENT DWORD USE32 PUBLIC 'CONST'
xdata$x	ENDS
;	COMDAT ??1out_of_range@std@@UAE@XZ
_TEXT	SEGMENT PARA USE32 PUBLIC 'CODE'
_TEXT	ENDS
;	COMDAT ??_7out_of_range@std@@6B@
CONST	SEGMENT DWORD USE32 PUBLIC 'CONST'
CONST	ENDS
;	COMDAT ??_Gout_of_range@std@@UAEPAXI@Z
_TEXT	SEGMENT PARA USE32 PUBLIC 'CODE'
_TEXT	ENDS
;	COMDAT ?what@logic_error@std@@UBEPBDXZ
_TEXT	SEGMENT PARA USE32 PUBLIC 'CODE'
_TEXT	ENDS
;	COMDAT ??1logic_error@std@@UAE@XZ
_TEXT	SEGMENT PARA USE32 PUBLIC 'CODE'
_TEXT	ENDS
;	COMDAT ??_7logic_error@std@@6B@
CONST	SEGMENT DWORD USE32 PUBLIC 'CONST'
CONST	ENDS
;	COMDAT ??_Glogic_error@std@@UAEPAXI@Z
_TEXT	SEGMENT PARA USE32 PUBLIC 'CODE'
_TEXT	ENDS
;	COMDAT __CTA3?AVout_of_range@std@@
xdata$x	SEGMENT DWORD USE32 PUBLIC 'CONST'
xdata$x	ENDS
;	COMDAT __CT??_R0?AVout_of_range@std@@@8??0out_of_range@std@@QAE@ABV01@@Z40
xdata$x	SEGMENT DWORD USE32 PUBLIC 'CONST'
xdata$x	ENDS
;	COMDAT ??_R0?AVout_of_range@std@@@8
_DATA	SEGMENT DWORD USE32 PUBLIC 'DATA'
_DATA	ENDS
;	COMDAT ??0out_of_range@std@@QAE@ABV01@@Z
_TEXT	SEGMENT PARA USE32 PUBLIC 'CODE'
_TEXT	ENDS
;	COMDAT ??0logic_error@std@@QAE@ABV01@@Z
_TEXT	SEGMENT PARA USE32 PUBLIC 'CODE'
_TEXT	ENDS
;	COMDAT __CT??_R0?AVlogic_error@std@@@8??0logic_error@std@@QAE@ABV01@@Z40
xdata$x	SEGMENT DWORD USE32 PUBLIC 'CONST'
xdata$x	ENDS
;	COMDAT ??_R0?AVlogic_error@std@@@8
_DATA	SEGMENT DWORD USE32 PUBLIC 'DATA'
_DATA	ENDS
;	COMDAT __CT??_R0?AVexception@@@8??0exception@@QAE@ABV0@@Z12
xdata$x	SEGMENT DWORD USE32 PUBLIC 'CONST'
xdata$x	ENDS
;	COMDAT ??_R0?AVexception@@@8
_DATA	SEGMENT DWORD USE32 PUBLIC 'DATA'
_DATA	ENDS
;	COMDAT ??_C@_0BM@PAPJHAGI@invalid?5map?1set?$DMT?$DO?5iterator?$AA@
CONST	SEGMENT DWORD USE32 PUBLIC 'CONST'
CONST	ENDS
;	COMDAT ??0out_of_range@std@@QAE@ABV?$basic_string@DU?$char_traits@D@std@@V?$allocator@D@2@@1@@Z
_TEXT	SEGMENT PARA USE32 PUBLIC 'CODE'
_TEXT	ENDS
;	COMDAT ??0logic_error@std@@QAE@ABV?$basic_string@DU?$char_traits@D@std@@V?$allocator@D@2@@1@@Z
_TEXT	SEGMENT PARA USE32 PUBLIC 'CODE'
_TEXT	ENDS
;	COMDAT __TI3?AVlength_error@std@@
xdata$x	SEGMENT DWORD USE32 PUBLIC 'CONST'
xdata$x	ENDS
;	COMDAT ??1length_error@std@@UAE@XZ
_TEXT	SEGMENT PARA USE32 PUBLIC 'CODE'
_TEXT	ENDS
;	COMDAT ??_7length_error@std@@6B@
CONST	SEGMENT DWORD USE32 PUBLIC 'CONST'
CONST	ENDS
;	COMDAT ??_Glength_error@std@@UAEPAXI@Z
_TEXT	SEGMENT PARA USE32 PUBLIC 'CODE'
_TEXT	ENDS
;	COMDAT __CTA3?AVlength_error@std@@
xdata$x	SEGMENT DWORD USE32 PUBLIC 'CONST'
xdata$x	ENDS
;	COMDAT __CT??_R0?AVlength_error@std@@@8??0length_error@std@@QAE@ABV01@@Z40
xdata$x	SEGMENT DWORD USE32 PUBLIC 'CONST'
xdata$x	ENDS
;	COMDAT ??_R0?AVlength_error@std@@@8
_DATA	SEGMENT DWORD USE32 PUBLIC 'DATA'
_DATA	ENDS
;	COMDAT ??0length_error@std@@QAE@ABV01@@Z
_TEXT	SEGMENT PARA USE32 PUBLIC 'CODE'
_TEXT	ENDS
;	COMDAT ??_C@_0BE@JONHPENG@map?1set?$DMT?$DO?5too?5long?$AA@
CONST	SEGMENT DWORD USE32 PUBLIC 'CONST'
CONST	ENDS
;	COMDAT ??0length_error@std@@QAE@ABV?$basic_string@DU?$char_traits@D@std@@V?$allocator@D@2@@1@@Z
_TEXT	SEGMENT PARA USE32 PUBLIC 'CODE'
_TEXT	ENDS
;	COMDAT ?insert@?$_Tree@V?$_Tmap_traits@KPAVCCtrl@@U?$less@K@std@@V?$allocator@U?$pair@$$CBKPAVCCtrl@@@std@@@3@$0A@@std@@@std@@QAE?AU?$pair@Viterator@?$_Tree@V?$_Tmap_traits@KPAVCCtrl@@U?$less@K@std@@V?$allocator@U?$pair@$$CBKPAVCCtrl@@@std@@@3@$0A@@std@@@std@@_N@2@ABU?$pair@$$CBKPAVCCtrl@@@2@@Z
_TEXT	SEGMENT PARA USE32 PUBLIC 'CODE'
_TEXT	ENDS
;	COMDAT ?_Root@?$_Tree@V?$_Tmap_traits@KPAVCCtrl@@U?$less@K@std@@V?$allocator@U?$pair@$$CBKPAVCCtrl@@@std@@@3@$0A@@std@@@std@@IAEAAPAU_Node@?$_Tree_nod@V?$_Tmap_traits@KPAVCCtrl@@U?$less@K@std@@V?$allocator@U?$pair@$$CBKPAVCCtrl@@@std@@@3@$0A@@std@@@2@XZ
_TEXT	SEGMENT PARA USE32 PUBLIC 'CODE'
_TEXT	ENDS
;	COMDAT ?_Parent@?$_Tree@V?$_Tmap_traits@KPAVCCtrl@@U?$less@K@std@@V?$allocator@U?$pair@$$CBKPAVCCtrl@@@std@@@3@$0A@@std@@@std@@KAAAPAU_Node@?$_Tree_nod@V?$_Tmap_traits@KPAVCCtrl@@U?$less@K@std@@V?$allocator@U?$pair@$$CBKPAVCCtrl@@@std@@@3@$0A@@std@@@2@PAU342@@Z
_TEXT	SEGMENT PARA USE32 PUBLIC 'CODE'
_TEXT	ENDS
;	COMDAT ?_Left@?$_Tree@V?$_Tmap_traits@KPAVCCtrl@@U?$less@K@std@@V?$allocator@U?$pair@$$CBKPAVCCtrl@@@std@@@3@$0A@@std@@@std@@KAAAPAU_Node@?$_Tree_nod@V?$_Tmap_traits@KPAVCCtrl@@U?$less@K@std@@V?$allocator@U?$pair@$$CBKPAVCCtrl@@@std@@@3@$0A@@std@@@2@PAU342@@Z
_TEXT	SEGMENT PARA USE32 PUBLIC 'CODE'
_TEXT	ENDS
;	COMDAT ??0iterator@?$_Tree@V?$_Tmap_traits@KPAVCCtrl@@U?$less@K@std@@V?$allocator@U?$pair@$$CBKPAVCCtrl@@@std@@@3@$0A@@std@@@std@@QAE@PAU_Node@?$_Tree_nod@V?$_Tmap_traits@KPAVCCtrl@@U?$less@K@std@@V?$allocator@U?$pair@$$CBKPAVCCtrl@@@std@@@3@$0A@@std@@@2@@Z
_TEXT	SEGMENT PARA USE32 PUBLIC 'CODE'
_TEXT	ENDS
;	COMDAT ??0const_iterator@?$_Tree@V?$_Tmap_traits@KPAVCCtrl@@U?$less@K@std@@V?$allocator@U?$pair@$$CBKPAVCCtrl@@@std@@@3@$0A@@std@@@std@@QAE@PAU_Node@?$_Tree_nod@V?$_Tmap_traits@KPAVCCtrl@@U?$less@K@std@@V?$allocator@U?$pair@$$CBKPAVCCtrl@@@std@@@3@$0A@@std@@@2@@Z
_TEXT	SEGMENT PARA USE32 PUBLIC 'CODE'
_TEXT	ENDS
;	COMDAT ??0?$pair@Viterator@?$_Tree@V?$_Tmap_traits@KPAVCCtrl@@U?$less@K@std@@V?$allocator@U?$pair@$$CBKPAVCCtrl@@@std@@@3@$0A@@std@@@std@@_N@std@@QAE@ABViterator@?$_Tree@V?$_Tmap_traits@KPAVCCtrl@@U?$less@K@std@@V?$allocator@U?$pair@$$CBKPAVCCtrl@@@std@@@3@$0A@@std@@@1@AB_N@Z
_TEXT	SEGMENT PARA USE32 PUBLIC 'CODE'
_TEXT	ENDS
;	COMDAT ??Eiterator@?$_Tree@V?$_Tmap_traits@KPAVCCtrl@@U?$less@K@std@@V?$allocator@U?$pair@$$CBKPAVCCtrl@@@std@@@3@$0A@@std@@@std@@QAEAAV012@XZ
_TEXT	SEGMENT PARA USE32 PUBLIC 'CODE'
_TEXT	ENDS
;	COMDAT ??Econst_iterator@?$_Tree@V?$_Tmap_traits@KPAVCCtrl@@U?$less@K@std@@V?$allocator@U?$pair@$$CBKPAVCCtrl@@@std@@@3@$0A@@std@@@std@@QAEAAV012@XZ
_TEXT	SEGMENT PARA USE32 PUBLIC 'CODE'
_TEXT	ENDS
;	COMDAT ?_Inc@const_iterator@?$_Tree@V?$_Tmap_traits@KPAVCCtrl@@U?$less@K@std@@V?$allocator@U?$pair@$$CBKPAVCCtrl@@@std@@@3@$0A@@std@@@std@@QAEXXZ
_TEXT	SEGMENT PARA USE32 PUBLIC 'CODE'
_TEXT	ENDS
;	COMDAT ?_Min@?$_Tree@V?$_Tmap_traits@KPAVCCtrl@@U?$less@K@std@@V?$allocator@U?$pair@$$CBKPAVCCtrl@@@std@@@3@$0A@@std@@@std@@KAPAU_Node@?$_Tree_nod@V?$_Tmap_traits@KPAVCCtrl@@U?$less@K@std@@V?$allocator@U?$pair@$$CBKPAVCCtrl@@@std@@@3@$0A@@std@@@2@PAU342@@Z
_TEXT	SEGMENT PARA USE32 PUBLIC 'CODE'
_TEXT	ENDS
;	COMDAT ?_Right@?$_Tree@V?$_Tmap_traits@KPAVCCtrl@@U?$less@K@std@@V?$allocator@U?$pair@$$CBKPAVCCtrl@@@std@@@3@$0A@@std@@@std@@KAAAPAU_Node@?$_Tree_nod@V?$_Tmap_traits@KPAVCCtrl@@U?$less@K@std@@V?$allocator@U?$pair@$$CBKPAVCCtrl@@@std@@@3@$0A@@std@@@2@PAU342@@Z
_TEXT	SEGMENT PARA USE32 PUBLIC 'CODE'
_TEXT	ENDS
;	COMDAT ?_Isnil@?$_Tree@V?$_Tmap_traits@KPAVCCtrl@@U?$less@K@std@@V?$allocator@U?$pair@$$CBKPAVCCtrl@@@std@@@3@$0A@@std@@@std@@KAAADPAU_Node@?$_Tree_nod@V?$_Tmap_traits@KPAVCCtrl@@U?$less@K@std@@V?$allocator@U?$pair@$$CBKPAVCCtrl@@@std@@@3@$0A@@std@@@2@@Z
_TEXT	SEGMENT PARA USE32 PUBLIC 'CODE'
_TEXT	ENDS
;	COMDAT ??Fiterator@?$_Tree@V?$_Tmap_traits@KPAVCCtrl@@U?$less@K@std@@V?$allocator@U?$pair@$$CBKPAVCCtrl@@@std@@@3@$0A@@std@@@std@@QAEAAV012@XZ
_TEXT	SEGMENT PARA USE32 PUBLIC 'CODE'
_TEXT	ENDS
;	COMDAT ??Fconst_iterator@?$_Tree@V?$_Tmap_traits@KPAVCCtrl@@U?$less@K@std@@V?$allocator@U?$pair@$$CBKPAVCCtrl@@@std@@@3@$0A@@std@@@std@@QAEAAV012@XZ
_TEXT	SEGMENT PARA USE32 PUBLIC 'CODE'
_TEXT	ENDS
;	COMDAT ?_Dec@const_iterator@?$_Tree@V?$_Tmap_traits@KPAVCCtrl@@U?$less@K@std@@V?$allocator@U?$pair@$$CBKPAVCCtrl@@@std@@@3@$0A@@std@@@std@@QAEXXZ
_TEXT	SEGMENT PARA USE32 PUBLIC 'CODE'
_TEXT	ENDS
;	COMDAT ?_Max@?$_Tree@V?$_Tmap_traits@KPAVCCtrl@@U?$less@K@std@@V?$allocator@U?$pair@$$CBKPAVCCtrl@@@std@@@3@$0A@@std@@@std@@KAPAU_Node@?$_Tree_nod@V?$_Tmap_traits@KPAVCCtrl@@U?$less@K@std@@V?$allocator@U?$pair@$$CBKPAVCCtrl@@@std@@@3@$0A@@std@@@2@PAU342@@Z
_TEXT	SEGMENT PARA USE32 PUBLIC 'CODE'
_TEXT	ENDS
;	COMDAT ?_Rmost@?$_Tree@V?$_Tmap_traits@KPAVCCtrl@@U?$less@K@std@@V?$allocator@U?$pair@$$CBKPAVCCtrl@@@std@@@3@$0A@@std@@@std@@IAEAAPAU_Node@?$_Tree_nod@V?$_Tmap_traits@KPAVCCtrl@@U?$less@K@std@@V?$allocator@U?$pair@$$CBKPAVCCtrl@@@std@@@3@$0A@@std@@@2@XZ
_TEXT	SEGMENT PARA USE32 PUBLIC 'CODE'
_TEXT	ENDS
;	COMDAT ?_Kfn@?$_Tmap_traits@KPAVCCtrl@@U?$less@K@std@@V?$allocator@U?$pair@$$CBKPAVCCtrl@@@std@@@3@$0A@@std@@SAABKABU?$pair@$$CBKPAVCCtrl@@@2@@Z
_TEXT	SEGMENT PARA USE32 PUBLIC 'CODE'
_TEXT	ENDS
;	COMDAT ?begin@?$_Tree@V?$_Tmap_traits@KPAVCCtrl@@U?$less@K@std@@V?$allocator@U?$pair@$$CBKPAVCCtrl@@@std@@@3@$0A@@std@@@std@@QAE?AViterator@12@XZ
_TEXT	SEGMENT PARA USE32 PUBLIC 'CODE'
_TEXT	ENDS
;	COMDAT ?_Lmost@?$_Tree@V?$_Tmap_traits@KPAVCCtrl@@U?$less@K@std@@V?$allocator@U?$pair@$$CBKPAVCCtrl@@@std@@@3@$0A@@std@@@std@@IAEAAPAU_Node@?$_Tree_nod@V?$_Tmap_traits@KPAVCCtrl@@U?$less@K@std@@V?$allocator@U?$pair@$$CBKPAVCCtrl@@@std@@@3@$0A@@std@@@2@XZ
_TEXT	SEGMENT PARA USE32 PUBLIC 'CODE'
_TEXT	ENDS
;	COMDAT ?_Insert@?$_Tree@V?$_Tmap_traits@KPAVCCtrl@@U?$less@K@std@@V?$allocator@U?$pair@$$CBKPAVCCtrl@@@std@@@3@$0A@@std@@@std@@IAE?AViterator@12@_NPAU_Node@?$_Tree_nod@V?$_Tmap_traits@KPAVCCtrl@@U?$less@K@std@@V?$allocator@U?$pair@$$CBKPAVCCtrl@@@std@@@3@$0A@@std@@@2@ABU?$pair@$$CBKPAVCCtrl@@@2@@Z
_TEXT	SEGMENT PARA USE32 PUBLIC 'CODE'
_TEXT	ENDS
;	COMDAT ?max_size@?$_Tree@V?$_Tmap_traits@KPAVCCtrl@@U?$less@K@std@@V?$allocator@U?$pair@$$CBKPAVCCtrl@@@std@@@3@$0A@@std@@@std@@QBEIXZ
_TEXT	SEGMENT PARA USE32 PUBLIC 'CODE'
_TEXT	ENDS
;	COMDAT ?max_size@?$allocator@U?$pair@$$CBKPAVCCtrl@@@std@@@std@@QBEIXZ
_TEXT	SEGMENT PARA USE32 PUBLIC 'CODE'
_TEXT	ENDS
;	COMDAT ?_Buynode@?$_Tree@V?$_Tmap_traits@KPAVCCtrl@@U?$less@K@std@@V?$allocator@U?$pair@$$CBKPAVCCtrl@@@std@@@3@$0A@@std@@@std@@IAEPAU_Node@?$_Tree_nod@V?$_Tmap_traits@KPAVCCtrl@@U?$less@K@std@@V?$allocator@U?$pair@$$CBKPAVCCtrl@@@std@@@3@$0A@@std@@@2@PAU342@00ABU?$pair@$$CBKPAVCCtrl@@@2@D@Z
_TEXT	SEGMENT PARA USE32 PUBLIC 'CODE'
_TEXT	ENDS
;	COMDAT ?allocate@?$allocator@U_Node@?$_Tree_nod@V?$_Tmap_traits@KPAVCCtrl@@U?$less@K@std@@V?$allocator@U?$pair@$$CBKPAVCCtrl@@@std@@@3@$0A@@std@@@std@@@std@@QAEPAU_Node@?$_Tree_nod@V?$_Tmap_traits@KPAVCCtrl@@U?$less@K@std@@V?$allocator@U?$pair@$$CBKPAVCCtrl@@@std@@@3@$0A@@std@@@2@I@Z
_TEXT	SEGMENT PARA USE32 PUBLIC 'CODE'
_TEXT	ENDS
;	COMDAT ??$_Allocate@U_Node@?$_Tree_nod@V?$_Tmap_traits@KPAVCCtrl@@U?$less@K@std@@V?$allocator@U?$pair@$$CBKPAVCCtrl@@@std@@@3@$0A@@std@@@std@@@std@@YAPAU_Node@?$_Tree_nod@V?$_Tmap_traits@KPAVCCtrl@@U?$less@K@std@@V?$allocator@U?$pair@$$CBKPAVCCtrl@@@std@@@3@$0A@@std@@@0@IPAU120@@Z
_TEXT	SEGMENT PARA USE32 PUBLIC 'CODE'
_TEXT	ENDS
;	COMDAT ??0_Node@?$_Tree_nod@V?$_Tmap_traits@KPAVCCtrl@@U?$less@K@std@@V?$allocator@U?$pair@$$CBKPAVCCtrl@@@std@@@3@$0A@@std@@@std@@QAE@PAU012@00ABU?$pair@$$CBKPAVCCtrl@@@2@D@Z
_TEXT	SEGMENT PARA USE32 PUBLIC 'CODE'
_TEXT	ENDS
;	COMDAT ?deallocate@?$allocator@U_Node@?$_Tree_nod@V?$_Tmap_traits@KPAVCCtrl@@U?$less@K@std@@V?$allocator@U?$pair@$$CBKPAVCCtrl@@@std@@@3@$0A@@std@@@std@@@std@@QAEXPAU_Node@?$_Tree_nod@V?$_Tmap_traits@KPAVCCtrl@@U?$less@K@std@@V?$allocator@U?$pair@$$CBKPAVCCtrl@@@std@@@3@$0A@@std@@@2@I@Z
_TEXT	SEGMENT PARA USE32 PUBLIC 'CODE'
_TEXT	ENDS
;	COMDAT ?_Rrotate@?$_Tree@V?$_Tmap_traits@KPAVCCtrl@@U?$less@K@std@@V?$allocator@U?$pair@$$CBKPAVCCtrl@@@std@@@3@$0A@@std@@@std@@IAEXPAU_Node@?$_Tree_nod@V?$_Tmap_traits@KPAVCCtrl@@U?$less@K@std@@V?$allocator@U?$pair@$$CBKPAVCCtrl@@@std@@@3@$0A@@std@@@2@@Z
_TEXT	SEGMENT PARA USE32 PUBLIC 'CODE'
_TEXT	ENDS
;	COMDAT ?_Lrotate@?$_Tree@V?$_Tmap_traits@KPAVCCtrl@@U?$less@K@std@@V?$allocator@U?$pair@$$CBKPAVCCtrl@@@std@@@3@$0A@@std@@@std@@IAEXPAU_Node@?$_Tree_nod@V?$_Tmap_traits@KPAVCCtrl@@U?$less@K@std@@V?$allocator@U?$pair@$$CBKPAVCCtrl@@@std@@@3@$0A@@std@@@2@@Z
_TEXT	SEGMENT PARA USE32 PUBLIC 'CODE'
_TEXT	ENDS
;	COMDAT ?_Color@?$_Tree@V?$_Tmap_traits@KPAVCCtrl@@U?$less@K@std@@V?$allocator@U?$pair@$$CBKPAVCCtrl@@@std@@@3@$0A@@std@@@std@@KAAADPAU_Node@?$_Tree_nod@V?$_Tmap_traits@KPAVCCtrl@@U?$less@K@std@@V?$allocator@U?$pair@$$CBKPAVCCtrl@@@std@@@3@$0A@@std@@@2@@Z
_TEXT	SEGMENT PARA USE32 PUBLIC 'CODE'
_TEXT	ENDS
;	COMDAT ?compare@?$char_traits@D@std@@SAHPBD0I@Z
_TEXT	SEGMENT PARA USE32 PUBLIC 'CODE'
_TEXT	ENDS
;	COMDAT ??Diterator@?$_Tree@V?$_Tmap_traits@KPAVCCtrl@@U?$less@K@std@@V?$allocator@U?$pair@$$CBKPAVCCtrl@@@std@@@3@$0A@@std@@@std@@QBEAAU?$pair@$$CBKPAVCCtrl@@@2@XZ
_TEXT	SEGMENT PARA USE32 PUBLIC 'CODE'
_TEXT	ENDS
;	COMDAT ??Dconst_iterator@?$_Tree@V?$_Tmap_traits@KPAVCCtrl@@U?$less@K@std@@V?$allocator@U?$pair@$$CBKPAVCCtrl@@@std@@@3@$0A@@std@@@std@@QBEABU?$pair@$$CBKPAVCCtrl@@@2@XZ
_TEXT	SEGMENT PARA USE32 PUBLIC 'CODE'
_TEXT	ENDS
;	COMDAT ?_Myval@?$_Tree@V?$_Tmap_traits@KPAVCCtrl@@U?$less@K@std@@V?$allocator@U?$pair@$$CBKPAVCCtrl@@@std@@@3@$0A@@std@@@std@@KAAAU?$pair@$$CBKPAVCCtrl@@@2@PAU_Node@?$_Tree_nod@V?$_Tmap_traits@KPAVCCtrl@@U?$less@K@std@@V?$allocator@U?$pair@$$CBKPAVCCtrl@@@std@@@3@$0A@@std@@@2@@Z
_TEXT	SEGMENT PARA USE32 PUBLIC 'CODE'
_TEXT	ENDS
;	COMDAT ?_Mynode@const_iterator@?$_Tree@V?$_Tmap_traits@KPAVCCtrl@@U?$less@K@std@@V?$allocator@U?$pair@$$CBKPAVCCtrl@@@std@@@3@$0A@@std@@@std@@QBEPAU_Node@?$_Tree_nod@V?$_Tmap_traits@KPAVCCtrl@@U?$less@K@std@@V?$allocator@U?$pair@$$CBKPAVCCtrl@@@std@@@3@$0A@@std@@@3@XZ
_TEXT	SEGMENT PARA USE32 PUBLIC 'CODE'
_TEXT	ENDS
;	COMDAT ?_Key@?$_Tree@V?$_Tmap_traits@KPAVCCtrl@@U?$less@K@std@@V?$allocator@U?$pair@$$CBKPAVCCtrl@@@std@@@3@$0A@@std@@@std@@KAABKPAU_Node@?$_Tree_nod@V?$_Tmap_traits@KPAVCCtrl@@U?$less@K@std@@V?$allocator@U?$pair@$$CBKPAVCCtrl@@@std@@@3@$0A@@std@@@2@@Z
_TEXT	SEGMENT PARA USE32 PUBLIC 'CODE'
_TEXT	ENDS
;	COMDAT ??R?$less@K@std@@QBE_NABK0@Z
_TEXT	SEGMENT PARA USE32 PUBLIC 'CODE'
_TEXT	ENDS
;	COMDAT ?end@?$_Tree@V?$_Tmap_traits@KPAVCCtrl@@U?$less@K@std@@V?$allocator@U?$pair@$$CBKPAVCCtrl@@@std@@@3@$0A@@std@@@std@@QAE?AViterator@12@XZ
_TEXT	SEGMENT PARA USE32 PUBLIC 'CODE'
_TEXT	ENDS
;	COMDAT ??8const_iterator@?$_Tree@V?$_Tmap_traits@KPAVCCtrl@@U?$less@K@std@@V?$allocator@U?$pair@$$CBKPAVCCtrl@@@std@@@3@$0A@@std@@@std@@QBE_NABV012@@Z
_TEXT	SEGMENT PARA USE32 PUBLIC 'CODE'
_TEXT	ENDS
;	COMDAT ?lower_bound@?$_Tree@V?$_Tmap_traits@KPAVCCtrl@@U?$less@K@std@@V?$allocator@U?$pair@$$CBKPAVCCtrl@@@std@@@3@$0A@@std@@@std@@QAE?AViterator@12@ABK@Z
_TEXT	SEGMENT PARA USE32 PUBLIC 'CODE'
_TEXT	ENDS
;	COMDAT ?_Lbound@?$_Tree@V?$_Tmap_traits@KPAVCCtrl@@U?$less@K@std@@V?$allocator@U?$pair@$$CBKPAVCCtrl@@@std@@@3@$0A@@std@@@std@@IBEPAU_Node@?$_Tree_nod@V?$_Tmap_traits@KPAVCCtrl@@U?$less@K@std@@V?$allocator@U?$pair@$$CBKPAVCCtrl@@@std@@@3@$0A@@std@@@2@ABK@Z
_TEXT	SEGMENT PARA USE32 PUBLIC 'CODE'
_TEXT	ENDS
;	COMDAT ?_Root@?$_Tree@V?$_Tmap_traits@KPAVCCtrl@@U?$less@K@std@@V?$allocator@U?$pair@$$CBKPAVCCtrl@@@std@@@3@$0A@@std@@@std@@IBEAAPAU_Node@?$_Tree_nod@V?$_Tmap_traits@KPAVCCtrl@@U?$less@K@std@@V?$allocator@U?$pair@$$CBKPAVCCtrl@@@std@@@3@$0A@@std@@@2@XZ
_TEXT	SEGMENT PARA USE32 PUBLIC 'CODE'
_TEXT	ENDS
;	COMDAT ?_Myptr@?$basic_string@DU?$char_traits@D@std@@V?$allocator@D@2@@std@@QBEPBDXZ
_TEXT	SEGMENT PARA USE32 PUBLIC 'CODE'
_TEXT	ENDS
;	COMDAT ?size@?$basic_string@DU?$char_traits@D@std@@V?$allocator@D@2@@std@@QBEIXZ
_TEXT	SEGMENT PARA USE32 PUBLIC 'CODE'
_TEXT	ENDS
;	COMDAT ?DoAttackMelee@CMover@@QAEHKW4OBJMSG@@K@Z
_TEXT	SEGMENT PARA USE32 PUBLIC 'CODE'
_TEXT	ENDS
;	COMDAT ?IsInvalidObj@@YAHPAVCObj@@@Z
_TEXT	SEGMENT PARA USE32 PUBLIC 'CODE'
_TEXT	ENDS
;	COMDAT ?GetPropA@CMover@@QAEPAUMoverProp@@XZ
_TEXT	SEGMENT PARA USE32 PUBLIC 'CODE'
_TEXT	ENDS
;	COMDAT ?GetMoverProp@CProject@@QAEPAUMoverProp@@H@Z
_TEXT	SEGMENT PARA USE32 PUBLIC 'CODE'
_TEXT	ENDS
;	COMDAT ?LOG_RANGE@@YAXPBDHHH@Z
_TEXT	SEGMENT PARA USE32 PUBLIC 'CODE'
_TEXT	ENDS
;	COMDAT ??_C@_0BM@HMFGHCP@?$CFs?5min?3?$CFd?0?5max?3?$CFd?0?5index?3?$CFd?$AA@
CONST	SEGMENT DWORD USE32 PUBLIC 'CONST'
CONST	ENDS
;	COMDAT ??_C@_0BJ@GKPOBPPI@GetMoverProp?5range_error?$AA@
CONST	SEGMENT DWORD USE32 PUBLIC 'CONST'
CONST	ENDS
;	COMDAT ?IsTimeOut@CTimer@@QAEHXZ
_TEXT	SEGMENT PARA USE32 PUBLIC 'CODE'
_TEXT	ENDS
;	COMDAT ?IsEndFrame@CModel@@QAEHXZ
_TEXT	SEGMENT PARA USE32 PUBLIC 'CODE'
_TEXT	ENDS
;	COMDAT ?SendActMsg@CMover@@QAEHW4OBJMSG@@HHHH@Z
_TEXT	SEGMENT PARA USE32 PUBLIC 'CODE'
_TEXT	ENDS
;	COMDAT ?GetActionState@CAction@@QAEKXZ
_TEXT	SEGMENT PARA USE32 PUBLIC 'CODE'
_TEXT	ENDS
;	COMDAT ??YD3DXVECTOR3@@QAEAAU0@ABU0@@Z
_TEXT	SEGMENT PARA USE32 PUBLIC 'CODE'
_TEXT	ENDS
;	COMDAT ?GetAngle@CObj@@QAEMXZ
_TEXT	SEGMENT PARA USE32 PUBLIC 'CODE'
_TEXT	ENDS
;	COMDAT ?AngleToVectorXZ@@YAXPAUD3DXVECTOR3@@MM@Z
_TEXT	SEGMENT PARA USE32 PUBLIC 'CODE'
_TEXT	ENDS
;	COMDAT _sinf
_TEXT	SEGMENT PARA USE32 PUBLIC 'CODE'
_TEXT	ENDS
;	COMDAT _cosf
_TEXT	SEGMENT PARA USE32 PUBLIC 'CODE'
_TEXT	ENDS
;	COMDAT ?GetText@CProject@@QAEPBDK@Z
_TEXT	SEGMENT PARA USE32 PUBLIC 'CODE'
_TEXT	ENDS
;	COMDAT ?GetSize@?$CFixedArray@UtagColorText@@@@QAEHXZ
_TEXT	SEGMENT PARA USE32 PUBLIC 'CODE'
_TEXT	ENDS
;	COMDAT ??_C@_0BE@OHDBLHOM@GetText?5range_error?$AA@
CONST	SEGMENT DWORD USE32 PUBLIC 'CONST'
CONST	ENDS
;	COMDAT ??_C@_05KKCIMGE@error?$AA@
CONST	SEGMENT DWORD USE32 PUBLIC 'CONST'
CONST	ENDS
;	COMDAT ??_C@_00CNPNBAHC@?$AA@
CONST	SEGMENT DWORD USE32 PUBLIC 'CONST'
CONST	ENDS
;	COMDAT ?GetAt@?$CFixedArray@UtagColorText@@@@QAEPAUtagColorText@@K@Z
_TEXT	SEGMENT PARA USE32 PUBLIC 'CODE'
_TEXT	ENDS
;	COMDAT ?GetWorld@CObj@@QAEPAVCWorld@@XZ
_TEXT	SEGMENT PARA USE32 PUBLIC 'CODE'
_TEXT	ENDS
;	COMDAT ?GetID@CWorld@@QAEKXZ
_TEXT	SEGMENT PARA USE32 PUBLIC 'CODE'
_TEXT	ENDS
;	COMDAT ?GetLayer@CObj@@QAEHXZ
_TEXT	SEGMENT PARA USE32 PUBLIC 'CODE'
_TEXT	ENDS
;	COMDAT ?GetLevel@CMover@@QAEHXZ
_TEXT	SEGMENT PARA USE32 PUBLIC 'CODE'
_TEXT	ENDS
;	COMDAT ?SetGold@CMover@@QAEXH@Z
_TEXT	SEGMENT PARA USE32 PUBLIC 'CODE'
_TEXT	ENDS
;	COMDAT ?IsValidObj@@YAHPAVCObj@@@Z
_TEXT	SEGMENT PARA USE32 PUBLIC 'CODE'
_TEXT	ENDS
;	COMDAT ?IsDelete@CObj@@QAEHXZ
_TEXT	SEGMENT PARA USE32 PUBLIC 'CODE'
_TEXT	ENDS
;	COMDAT ?xRandom@@YAKK@Z
_TEXT	SEGMENT PARA USE32 PUBLIC 'CODE'
_TEXT	ENDS
;	COMDAT ?xRand@@YAKXZ
_TEXT	SEGMENT PARA USE32 PUBLIC 'CODE'
_TEXT	ENDS
;	COMDAT ?GetId@CCtrl@@QAEKXZ
_TEXT	SEGMENT PARA USE32 PUBLIC 'CODE'
_TEXT	ENDS
;	COMDAT ?IsFly@CAction@@QAEHXZ
_TEXT	SEGMENT PARA USE32 PUBLIC 'CODE'
_TEXT	ENDS
;	COMDAT ?IsFlyingNPC@CMover@@QAEHXZ
_TEXT	SEGMENT PARA USE32 PUBLIC 'CODE'
_TEXT	ENDS
;	COMDAT ?D3DXVec3LengthSq@@YAMPBUD3DXVECTOR3@@@Z
_TEXT	SEGMENT PARA USE32 PUBLIC 'CODE'
_TEXT	ENDS
;	COMDAT ??GD3DXVECTOR3@@QBE?AU0@ABU0@@Z
_TEXT	SEGMENT PARA USE32 PUBLIC 'CODE'
_TEXT	ENDS
;	COMDAT ?IsDie@CMover@@QAEHXZ
_TEXT	SEGMENT PARA USE32 PUBLIC 'CODE'
_TEXT	ENDS
;	COMDAT ?IsDie@CAction@@QAEHXZ
_TEXT	SEGMENT PARA USE32 PUBLIC 'CODE'
_TEXT	ENDS
;	COMDAT ?GetModel@CObj@@QAEPAVCModel@@XZ
_TEXT	SEGMENT PARA USE32 PUBLIC 'CODE'
_TEXT	ENDS
;	COMDAT ?GetWorld@CAIInterface@@IAEPAVCWorld@@XZ
_TEXT	SEGMENT PARA USE32 PUBLIC 'CODE'
_TEXT	ENDS
;	COMDAT ?GetMover@CAIInterface@@IAEPAVCMover@@XZ
_TEXT	SEGMENT PARA USE32 PUBLIC 'CODE'
_TEXT	ENDS
;	COMDAT ?GetPos@CObj@@QAE?AUD3DXVECTOR3@@XZ
_TEXT	SEGMENT PARA USE32 PUBLIC 'CODE'
_TEXT	ENDS
;	COMDAT ??1CTimer@@UAE@XZ
_TEXT	SEGMENT PARA USE32 PUBLIC 'CODE'
_TEXT	ENDS
;	COMDAT ??_7CTimer@@6B@
CONST	SEGMENT DWORD USE32 PUBLIC 'CONST'
CONST	ENDS
;	COMDAT ??_GCTimer@@UAEPAXI@Z
_TEXT	SEGMENT PARA USE32 PUBLIC 'CODE'
_TEXT	ENDS
;	COMDAT ??_7CAIBear@@6B@
CONST	SEGMENT DWORD USE32 PUBLIC 'CONST'
CONST	ENDS
;	COMDAT ??_7CMapChildE@@6B@
CONST	SEGMENT DWORD USE32 PUBLIC 'CONST'
CONST	ENDS
;	COMDAT ?Leave@CMclCritSec@@QAEXXZ
_TEXT	SEGMENT PARA USE32 PUBLIC 'CODE'
_TEXT	ENDS
;	COMDAT ?Enter@CMclCritSec@@QAEXXZ
_TEXT	SEGMENT PARA USE32 PUBLIC 'CODE'
_TEXT	ENDS
;	COMDAT ??1CMclCritSec@@UAE@XZ
_TEXT	SEGMENT PARA USE32 PUBLIC 'CODE'
_TEXT	ENDS
;	COMDAT ??_7CMclCritSec@@6B@
CONST	SEGMENT DWORD USE32 PUBLIC 'CONST'
CONST	ENDS
;	COMDAT ??_GCMclCritSec@@UAEPAXI@Z
_TEXT	SEGMENT PARA USE32 PUBLIC 'CODE'
_TEXT	ENDS
;	COMDAT ??0CMclCritSec@@QAE@XZ
_TEXT	SEGMENT PARA USE32 PUBLIC 'CODE'
_TEXT	ENDS
;	COMDAT ??_7CMapChild@@6B@
CONST	SEGMENT DWORD USE32 PUBLIC 'CONST'
CONST	ENDS
;	COMDAT ??1CMclAutoLock@@QAE@XZ
_TEXT	SEGMENT PARA USE32 PUBLIC 'CODE'
_TEXT	ENDS
;	COMDAT ??0CMclAutoLock@@QAE@AAVCMclCritSec@@@Z
_TEXT	SEGMENT PARA USE32 PUBLIC 'CODE'
_TEXT	ENDS
;	COMDAT ??_7CBuffer2@@6B@
CONST	SEGMENT DWORD USE32 PUBLIC 'CONST'
CONST	ENDS
;	COMDAT ?erase@?$_Tree@V?$_Tmap_traits@KPAVCCtrl@@U?$less@K@std@@V?$allocator@U?$pair@$$CBKPAVCCtrl@@@std@@@3@$0A@@std@@@std@@QAEIABK@Z
_TEXT	SEGMENT PARA USE32 PUBLIC 'CODE'
_TEXT	ENDS
;	COMDAT ?equal_range@?$_Tree@V?$_Tmap_traits@KPAVCCtrl@@U?$less@K@std@@V?$allocator@U?$pair@$$CBKPAVCCtrl@@@std@@@3@$0A@@std@@@std@@QAE?AU?$pair@Viterator@?$_Tree@V?$_Tmap_traits@KPAVCCtrl@@U?$less@K@std@@V?$allocator@U?$pair@$$CBKPAVCCtrl@@@std@@@3@$0A@@std@@@std@@V123@@2@ABK@Z
_TEXT	SEGMENT PARA USE32 PUBLIC 'CODE'
_TEXT	ENDS
;	COMDAT ??0?$pair@Viterator@?$_Tree@V?$_Tmap_traits@KPAVCCtrl@@U?$less@K@std@@V?$allocator@U?$pair@$$CBKPAVCCtrl@@@std@@@3@$0A@@std@@@std@@V123@@std@@QAE@ABViterator@?$_Tree@V?$_Tmap_traits@KPAVCCtrl@@U?$less@K@std@@V?$allocator@U?$pair@$$CBKPAVCCtrl@@@std@@@3@$0A@@std@@@1@0@Z
_TEXT	SEGMENT PARA USE32 PUBLIC 'CODE'
_TEXT	ENDS
;	COMDAT ?upper_bound@?$_Tree@V?$_Tmap_traits@KPAVCCtrl@@U?$less@K@std@@V?$allocator@U?$pair@$$CBKPAVCCtrl@@@std@@@3@$0A@@std@@@std@@QAE?AViterator@12@ABK@Z
_TEXT	SEGMENT PARA USE32 PUBLIC 'CODE'
_TEXT	ENDS
;	COMDAT ?_Ubound@?$_Tree@V?$_Tmap_traits@KPAVCCtrl@@U?$less@K@std@@V?$allocator@U?$pair@$$CBKPAVCCtrl@@@std@@@3@$0A@@std@@@std@@IBEPAU_Node@?$_Tree_nod@V?$_Tmap_traits@KPAVCCtrl@@U?$less@K@std@@V?$allocator@U?$pair@$$CBKPAVCCtrl@@@std@@@3@$0A@@std@@@2@ABK@Z
_TEXT	SEGMENT PARA USE32 PUBLIC 'CODE'
_TEXT	ENDS
;	COMDAT ??$_Distance@Viterator@?$_Tree@V?$_Tmap_traits@KPAVCCtrl@@U?$less@K@std@@V?$allocator@U?$pair@$$CBKPAVCCtrl@@@std@@@3@$0A@@std@@@std@@I@std@@YAXViterator@?$_Tree@V?$_Tmap_traits@KPAVCCtrl@@U?$less@K@std@@V?$allocator@U?$pair@$$CBKPAVCCtrl@@@std@@@3@$0A@@std@@@0@0AAI@Z
_TEXT	SEGMENT PARA USE32 PUBLIC 'CODE'
_TEXT	ENDS
;	COMDAT ?erase@?$_Tree@V?$_Tmap_traits@KPAVCCtrl@@U?$less@K@std@@V?$allocator@U?$pair@$$CBKPAVCCtrl@@@std@@@3@$0A@@std@@@std@@QAE?AViterator@12@V312@0@Z
_TEXT	SEGMENT PARA USE32 PUBLIC 'CODE'
_TEXT	ENDS
;	COMDAT ?clear@?$_Tree@V?$_Tmap_traits@KPAVCCtrl@@U?$less@K@std@@V?$allocator@U?$pair@$$CBKPAVCCtrl@@@std@@@3@$0A@@std@@@std@@QAEXXZ
_TEXT	SEGMENT PARA USE32 PUBLIC 'CODE'
_TEXT	ENDS
;	COMDAT ?_Erase@?$_Tree@V?$_Tmap_traits@KPAVCCtrl@@U?$less@K@std@@V?$allocator@U?$pair@$$CBKPAVCCtrl@@@std@@@3@$0A@@std@@@std@@IAEXPAU_Node@?$_Tree_nod@V?$_Tmap_traits@KPAVCCtrl@@U?$less@K@std@@V?$allocator@U?$pair@$$CBKPAVCCtrl@@@std@@@3@$0A@@std@@@2@@Z
_TEXT	SEGMENT PARA USE32 PUBLIC 'CODE'
_TEXT	ENDS
;	COMDAT ?destroy@?$allocator@U_Node@?$_Tree_nod@V?$_Tmap_traits@KPAVCCtrl@@U?$less@K@std@@V?$allocator@U?$pair@$$CBKPAVCCtrl@@@std@@@3@$0A@@std@@@std@@@std@@QAEXPAU_Node@?$_Tree_nod@V?$_Tmap_traits@KPAVCCtrl@@U?$less@K@std@@V?$allocator@U?$pair@$$CBKPAVCCtrl@@@std@@@3@$0A@@std@@@2@@Z
_TEXT	SEGMENT PARA USE32 PUBLIC 'CODE'
_TEXT	ENDS
;	COMDAT ??$_Destroy@U_Node@?$_Tree_nod@V?$_Tmap_traits@KPAVCCtrl@@U?$less@K@std@@V?$allocator@U?$pair@$$CBKPAVCCtrl@@@std@@@3@$0A@@std@@@std@@@std@@YAXPAU_Node@?$_Tree_nod@V?$_Tmap_traits@KPAVCCtrl@@U?$less@K@std@@V?$allocator@U?$pair@$$CBKPAVCCtrl@@@std@@@3@$0A@@std@@@0@@Z
_TEXT	SEGMENT PARA USE32 PUBLIC 'CODE'
_TEXT	ENDS
;	COMDAT ?erase@?$_Tree@V?$_Tmap_traits@KPAVCCtrl@@U?$less@K@std@@V?$allocator@U?$pair@$$CBKPAVCCtrl@@@std@@@3@$0A@@std@@@std@@QAE?AViterator@12@V312@@Z
_TEXT	SEGMENT PARA USE32 PUBLIC 'CODE'
_TEXT	ENDS
;	COMDAT ??Eiterator@?$_Tree@V?$_Tmap_traits@KPAVCCtrl@@U?$less@K@std@@V?$allocator@U?$pair@$$CBKPAVCCtrl@@@std@@@3@$0A@@std@@@std@@QAE?AV012@H@Z
_TEXT	SEGMENT PARA USE32 PUBLIC 'CODE'
_TEXT	ENDS
;	COMDAT ??5@YAAAVCAr@@AAV0@AAUD3DXVECTOR3@@@Z
_TEXT	SEGMENT PARA USE32 PUBLIC 'CODE'
_TEXT	ENDS
;	COMDAT ??5CAr@@QAEAAV0@AAM@Z
_TEXT	SEGMENT PARA USE32 PUBLIC 'CODE'
_TEXT	ENDS
;	COMDAT ??5CAr@@QAEAAV0@AAJ@Z
_TEXT	SEGMENT PARA USE32 PUBLIC 'CODE'
_TEXT	ENDS
;	COMDAT ?time_null@@YAJXZ
_TEXT	SEGMENT PARA USE32 PUBLIC 'CODE'
_TEXT	ENDS
;	COMDAT ??6CAr@@QAEAAV0@J@Z
_TEXT	SEGMENT PARA USE32 PUBLIC 'CODE'
_TEXT	ENDS
;	COMDAT ??6@YAAAVCAr@@AAV0@UD3DXVECTOR3@@@Z
_TEXT	SEGMENT PARA USE32 PUBLIC 'CODE'
_TEXT	ENDS
;	COMDAT ??6CAr@@QAEAAV0@M@Z
_TEXT	SEGMENT PARA USE32 PUBLIC 'CODE'
_TEXT	ENDS
;	COMDAT ??1?$basic_string@DU?$char_traits@D@std@@V?$allocator@D@2@@std@@QAE@XZ
_TEXT	SEGMENT PARA USE32 PUBLIC 'CODE'
_TEXT	ENDS
;	COMDAT ??0?$basic_string@DU?$char_traits@D@std@@V?$allocator@D@2@@std@@QAE@PBD@Z
_TEXT	SEGMENT PARA USE32 PUBLIC 'CODE'
_TEXT	ENDS
;	COMDAT ??0?$allocator@D@std@@QAE@XZ
_TEXT	SEGMENT PARA USE32 PUBLIC 'CODE'
_TEXT	ENDS
;	COMDAT ?assign@?$basic_string@DU?$char_traits@D@std@@V?$allocator@D@2@@std@@QAEAAV12@PBD@Z
_TEXT	SEGMENT PARA USE32 PUBLIC 'CODE'
_TEXT	ENDS
;	COMDAT ?assign@?$basic_string@DU?$char_traits@D@std@@V?$allocator@D@2@@std@@QAEAAV12@PBDI@Z
_TEXT	SEGMENT PARA USE32 PUBLIC 'CODE'
_TEXT	ENDS
;	COMDAT ?_Inside@?$basic_string@DU?$char_traits@D@std@@V?$allocator@D@2@@std@@IAE_NPBD@Z
_TEXT	SEGMENT PARA USE32 PUBLIC 'CODE'
_TEXT	ENDS
;	COMDAT ?length@?$char_traits@D@std@@SAIPBD@Z
_TEXT	SEGMENT PARA USE32 PUBLIC 'CODE'
_TEXT	ENDS
;	COMDAT ?c_str@?$basic_string@DU?$char_traits@D@std@@V?$allocator@D@2@@std@@QBEPBDXZ
_TEXT	SEGMENT PARA USE32 PUBLIC 'CODE'
_TEXT	ENDS
;	COMDAT ??6CAr@@QAEAAV0@I@Z
_TEXT	SEGMENT PARA USE32 PUBLIC 'CODE'
_TEXT	ENDS
;	COMDAT ??_7__MINIGAME_EXT_PACKET@@6B@
CONST	SEGMENT DWORD USE32 PUBLIC 'CONST'
CONST	ENDS
;	COMDAT ??5CAr@@QAEAAV0@AAG@Z
_TEXT	SEGMENT PARA USE32 PUBLIC 'CODE'
_TEXT	ENDS
;	COMDAT ??5CAr@@QAEAAV0@AAH@Z
_TEXT	SEGMENT PARA USE32 PUBLIC 'CODE'
_TEXT	ENDS
;	COMDAT ??6CAr@@QAEAAV0@G@Z
_TEXT	SEGMENT PARA USE32 PUBLIC 'CODE'
_TEXT	ENDS
;	COMDAT ??6CAr@@QAEAAV0@H@Z
_TEXT	SEGMENT PARA USE32 PUBLIC 'CODE'
_TEXT	ENDS
;	COMDAT ??_7__MINIGAME_PACKET@@6B@
CONST	SEGMENT DWORD USE32 PUBLIC 'CONST'
CONST	ENDS
;	COMDAT ??1?$vector@KV?$allocator@K@std@@@std@@QAE@XZ
_TEXT	SEGMENT PARA USE32 PUBLIC 'CODE'
_TEXT	ENDS
;	COMDAT ?_Tidy@?$vector@KV?$allocator@K@std@@@std@@IAEXXZ
_TEXT	SEGMENT PARA USE32 PUBLIC 'CODE'
_TEXT	ENDS
;	COMDAT ?_Destroy@?$vector@KV?$allocator@K@std@@@std@@IAEXPAK0@Z
_TEXT	SEGMENT PARA USE32 PUBLIC 'CODE'
_TEXT	ENDS
;	COMDAT ??$_Destroy_range@KV?$allocator@K@std@@@std@@YAXPAK0AAV?$allocator@K@0@@Z
_TEXT	SEGMENT PARA USE32 PUBLIC 'CODE'
_TEXT	ENDS
;	COMDAT ?_Ptr_cat@std@@YA?AU_Scalar_ptr_iterator_tag@1@PAK0@Z
_TEXT	SEGMENT PARA USE32 PUBLIC 'CODE'
_TEXT	ENDS
;	COMDAT ?deallocate@?$allocator@K@std@@QAEXPAKI@Z
_TEXT	SEGMENT PARA USE32 PUBLIC 'CODE'
_TEXT	ENDS
;	COMDAT ??0?$vector@KV?$allocator@K@std@@@std@@QAE@XZ
_TEXT	SEGMENT PARA USE32 PUBLIC 'CODE'
_TEXT	ENDS
;	COMDAT ??0?$_Vector_val@KV?$allocator@K@std@@@std@@IAE@V?$allocator@K@1@@Z
_TEXT	SEGMENT PARA USE32 PUBLIC 'CODE'
_TEXT	ENDS
;	COMDAT ??0?$allocator@K@std@@QAE@ABV01@@Z
_TEXT	SEGMENT PARA USE32 PUBLIC 'CODE'
_TEXT	ENDS
;	COMDAT ??0?$allocator@K@std@@QAE@XZ
_TEXT	SEGMENT PARA USE32 PUBLIC 'CODE'
_TEXT	ENDS
;	COMDAT ?_Buy@?$vector@KV?$allocator@K@std@@@std@@IAE_NI@Z
_TEXT	SEGMENT PARA USE32 PUBLIC 'CODE'
_TEXT	ENDS
;	COMDAT ?max_size@?$vector@KV?$allocator@K@std@@@std@@QBEIXZ
_TEXT	SEGMENT PARA USE32 PUBLIC 'CODE'
_TEXT	ENDS
;	COMDAT ?max_size@?$allocator@K@std@@QBEIXZ
_TEXT	SEGMENT PARA USE32 PUBLIC 'CODE'
_TEXT	ENDS
;	COMDAT ?_Xlen@?$vector@KV?$allocator@K@std@@@std@@IBEXXZ
_TEXT	SEGMENT PARA USE32 PUBLIC 'CODE'
_TEXT	ENDS
;	COMDAT ?allocate@?$allocator@K@std@@QAEPAKI@Z
_TEXT	SEGMENT PARA USE32 PUBLIC 'CODE'
_TEXT	ENDS
;	COMDAT ??$_Allocate@K@std@@YAPAKIPAK@Z
_TEXT	SEGMENT PARA USE32 PUBLIC 'CODE'
_TEXT	ENDS
;	COMDAT ??5CAr@@QAEAAV0@AAK@Z
_TEXT	SEGMENT PARA USE32 PUBLIC 'CODE'
_TEXT	ENDS
;	COMDAT ??6CAr@@QAEAAV0@K@Z
_TEXT	SEGMENT PARA USE32 PUBLIC 'CODE'
_TEXT	ENDS
;	COMDAT ?IsStoring@CAr@@QBEHXZ
_TEXT	SEGMENT PARA USE32 PUBLIC 'CODE'
_TEXT	ENDS
;	COMDAT ??0D3DXVECTOR3@@QAE@MMM@Z
_TEXT	SEGMENT PARA USE32 PUBLIC 'CODE'
_TEXT	ENDS
;	COMDAT ?GetTickCount@CTime@ATL@@SG?AV12@XZ
_TEXT	SEGMENT PARA USE32 PUBLIC 'CODE'
_TEXT	ENDS
;	COMDAT ??0CTime@ATL@@QAE@_J@Z
_TEXT	SEGMENT PARA USE32 PUBLIC 'CODE'
_TEXT	ENDS
;	COMDAT ??0D3DXVECTOR3@@QAE@XZ
_TEXT	SEGMENT PARA USE32 PUBLIC 'CODE'
_TEXT	ENDS
;	COMDAT ??0CTime@ATL@@QAE@XZ
_TEXT	SEGMENT PARA USE32 PUBLIC 'CODE'
_TEXT	ENDS
sxdata	SEGMENT DWORD USE32 'SXDATA'
sxdata	ENDS
FLAT	GROUP _DATA, CONST, _BSS
	ASSUME	CS: FLAT, DS: FLAT, SS: FLAT
endif

INCLUDELIB LIBCMT
INCLUDELIB OLDNAMES

PUBLIC	?stateMap@CAIBear@@2USTATEMAP@@B		; CAIBear::stateMap
EXTRN	?stateMap@CAIInterface@@2USTATEMAP@@B:QWORD	; CAIInterface::stateMap
CONST	SEGMENT
?stateMap@CAIBear@@2USTATEMAP@@B DD FLAT:?stateMap@CAIInterface@@2USTATEMAP@@B ; CAIBear::stateMap
	DD	FLAT:?stateMapEntries@CAIBear@@2QBUSTATEMAP_ENTRIES@@B
CONST	ENDS
PUBLIC	?GetStateMap@CAIBear@@UBEPBUSTATEMAP@@XZ	; CAIBear::GetStateMap
; Function compile flags: /Ogty
; File c:\documents and settings\test\mes documents\source\virtuos_v17\build\program\_aiinterface\aibear.cpp
;	COMDAT ?GetStateMap@CAIBear@@UBEPBUSTATEMAP@@XZ
_TEXT	SEGMENT
?GetStateMap@CAIBear@@UBEPBUSTATEMAP@@XZ PROC NEAR	; CAIBear::GetStateMap, COMDAT
; _this$ = ecx

; 36   : BEGIN_AISTATE_MAP( CAIBear, CAIInterface )

  00000	b8 00 00 00 00	 mov	 eax, OFFSET FLAT:?stateMap@CAIBear@@2USTATEMAP@@B ; CAIBear::stateMap
  00005	c3		 ret	 0
?GetStateMap@CAIBear@@UBEPBUSTATEMAP@@XZ ENDP		; CAIBear::GetStateMap
_TEXT	ENDS
PUBLIC	?Init@CAIBear@@AAEXXZ				; CAIBear::Init
EXTRN	__imp__timeGetTime@0:NEAR
EXTRN	__fltused:NEAR
; Function compile flags: /Ogty
;	COMDAT ?Init@CAIBear@@AAEXXZ
_TEXT	SEGMENT
?Init@CAIBear@@AAEXXZ PROC NEAR				; CAIBear::Init, COMDAT
; _this$ = ecx

; 74   : {

  00000	56		 push	 esi
  00001	8b f1		 mov	 esi, ecx
  00003	57		 push	 edi

; 75   : 	m_vPosBegin.x = m_vPosBegin.y = m_vPosBegin.z = 0;

  00004	33 ff		 xor	 edi, edi
  00006	89 7e 74	 mov	 DWORD PTR [esi+116], edi
  00009	89 7e 70	 mov	 DWORD PTR [esi+112], edi
  0000c	89 7e 6c	 mov	 DWORD PTR [esi+108], edi

; 76   : 	m_nEvent = EPT_READY;

  0000f	89 7e 78	 mov	 DWORD PTR [esi+120], edi

; 77   : 	m_nAttackType = 0;

  00012	89 7e 7c	 mov	 DWORD PTR [esi+124], edi

; 78   : 	m_tmReattack = m_tmAddReattack = m_tmTrace = m_tmTimeOver = timeGetTime();

  00015	ff 15 00 00 00
	00		 call	 DWORD PTR __imp__timeGetTime@0
  0001b	89 86 8c 00 00
	00		 mov	 DWORD PTR [esi+140], eax
  00021	89 86 88 00 00
	00		 mov	 DWORD PTR [esi+136], eax
  00027	89 86 84 00 00
	00		 mov	 DWORD PTR [esi+132], eax
  0002d	89 86 80 00 00
	00		 mov	 DWORD PTR [esi+128], eax

; 79   : 	m_idTarget = NULL_ID;

  00033	83 c8 ff	 or	 eax, -1
  00036	89 86 90 00 00
	00		 mov	 DWORD PTR [esi+144], eax

; 80   : 	m_vTarget.x = m_vTarget.y = m_vTarget.z = 0;

  0003c	89 be 9c 00 00
	00		 mov	 DWORD PTR [esi+156], edi
  00042	89 be 98 00 00
	00		 mov	 DWORD PTR [esi+152], edi
  00048	89 be 94 00 00
	00		 mov	 DWORD PTR [esi+148], edi

; 81   : 	m_idLastAttacker = NULL_ID;

  0004e	89 86 a4 00 00
	00		 mov	 DWORD PTR [esi+164], eax

; 82   : 	m_bDefenseMode = FALSE;

  00054	89 be a8 00 00
	00		 mov	 DWORD PTR [esi+168], edi

; 83   : 	m_nAppearCnt = 0;

  0005a	89 be a0 00 00
	00		 mov	 DWORD PTR [esi+160], edi

; 84   : 
; 85   : 	memset( m_bEventFlag, 0, sizeof(BOOL)*5 );

  00060	83 c6 58	 add	 esi, 88			; 00000058H
  00063	33 c0		 xor	 eax, eax
  00065	89 06		 mov	 DWORD PTR [esi], eax
  00067	89 46 04	 mov	 DWORD PTR [esi+4], eax
  0006a	89 46 08	 mov	 DWORD PTR [esi+8], eax
  0006d	89 46 0c	 mov	 DWORD PTR [esi+12], eax
  00070	5f		 pop	 edi
  00071	89 46 10	 mov	 DWORD PTR [esi+16], eax
  00074	5e		 pop	 esi

; 86   : }

  00075	c3		 ret	 0
?Init@CAIBear@@AAEXXZ ENDP				; CAIBear::Init
_TEXT	ENDS
PUBLIC	?Destroy@CAIBear@@AAEXXZ			; CAIBear::Destroy
; Function compile flags: /Ogty
;	COMDAT ?Destroy@CAIBear@@AAEXXZ
_TEXT	SEGMENT
?Destroy@CAIBear@@AAEXXZ PROC NEAR			; CAIBear::Destroy, COMDAT
; _this$ = ecx

; 90   : }

  00000	c3		 ret	 0
?Destroy@CAIBear@@AAEXXZ ENDP				; CAIBear::Destroy
_TEXT	ENDS
PUBLIC	?StateInit@CAIBear@@QAEHABUAIMSG@@@Z		; CAIBear::StateInit
; Function compile flags: /Ogty
;	COMDAT ?StateInit@CAIBear@@QAEHABUAIMSG@@@Z
_TEXT	SEGMENT
_msg$ = 8						; size = 4
?StateInit@CAIBear@@QAEHABUAIMSG@@@Z PROC NEAR		; CAIBear::StateInit, COMDAT
; _this$ = ecx

; 104  : 	return TRUE;

  00000	b8 01 00 00 00	 mov	 eax, 1

; 105  : }

  00005	c2 04 00	 ret	 4
?StateInit@CAIBear@@QAEHABUAIMSG@@@Z ENDP		; CAIBear::StateInit
_TEXT	ENDS
PUBLIC	?MoveProcessIdle@CAIBear@@AAEHXZ		; CAIBear::MoveProcessIdle
; Function compile flags: /Ogty
;	COMDAT ?MoveProcessIdle@CAIBear@@AAEHXZ
_TEXT	SEGMENT
?MoveProcessIdle@CAIBear@@AAEHXZ PROC NEAR		; CAIBear::MoveProcessIdle, COMDAT
; _this$ = ecx

; 109  : #ifdef __MOVER_STATE_EFFECT
; 110  : 	CMover* pMover = GetMover();
; 111  : 
; 112  : 	if( IsValidObj( pMover ) == TRUE && pMover->m_pActMover->IsStateFlag( OBJSTAF_COMBAT ) == TRUE )
; 113  : 	{
; 114  : 		if( pMover->m_pActMover->SendActMsg( OBJMSG_MODE_PEACE ) == TRUE )
; 115  : 		{
; 116  : 			g_UserMng.AddSendActMsg( pMover, OBJMSG_MODE_PEACE );
; 117  : 		}
; 118  : 	}
; 119  : #endif // __MOVER_STATE_EFFECT
; 120  : 
; 121  : 	return TRUE;

  00000	b8 01 00 00 00	 mov	 eax, 1

; 122  : }

  00005	c3		 ret	 0
?MoveProcessIdle@CAIBear@@AAEHXZ ENDP			; CAIBear::MoveProcessIdle
_TEXT	ENDS
PUBLIC	_cosf
; Function compile flags: /Ogty
; File c:\program files\microsoft visual studio .net 2003\vc7\include\math.h
;	COMDAT _cosf
_TEXT	SEGMENT
__X$ = 8						; size = 4
_cosf	PROC NEAR					; COMDAT

; 444  :         {return ((float)cos((double)_X)); }

  00000	d9 44 24 04	 fld	 DWORD PTR __X$[esp-4]
  00004	d9 ff		 fcos
  00006	c3		 ret	 0
_cosf	ENDP
_TEXT	ENDS
PUBLIC	_sinf
; Function compile flags: /Ogty
;	COMDAT _sinf
_TEXT	SEGMENT
__X$ = 8						; size = 4
_sinf	PROC NEAR					; COMDAT

; 466  :         {return ((float)sin((double)_X)); }

  00000	d9 44 24 04	 fld	 DWORD PTR __X$[esp-4]
  00004	d9 fe		 fsin
  00006	c3		 ret	 0
_sinf	ENDP
_TEXT	ENDS
PUBLIC	??0D3DXVECTOR3@@QAE@XZ				; D3DXVECTOR3::D3DXVECTOR3
; Function compile flags: /Ogty
; File c:\documents and settings\test\mes documents\source\virtuos_v17\build\program\dx_sdk\d3dx9math.h
;	COMDAT ??0D3DXVECTOR3@@QAE@XZ
_TEXT	SEGMENT
??0D3DXVECTOR3@@QAE@XZ PROC NEAR			; D3DXVECTOR3::D3DXVECTOR3, COMDAT
; _this$ = ecx

; 165  :     D3DXVECTOR3() {};

  00000	8b c1		 mov	 eax, ecx
  00002	c3		 ret	 0
??0D3DXVECTOR3@@QAE@XZ ENDP				; D3DXVECTOR3::D3DXVECTOR3
_TEXT	ENDS
PUBLIC	??0D3DXVECTOR3@@QAE@MMM@Z			; D3DXVECTOR3::D3DXVECTOR3
; Function compile flags: /Ogty
; File c:\documents and settings\test\mes documents\source\virtuos_v17\build\program\dx_sdk\d3dx9math.inl
;	COMDAT ??0D3DXVECTOR3@@QAE@MMM@Z
_TEXT	SEGMENT
_fx$ = 8						; size = 4
_fy$ = 12						; size = 4
_fz$ = 16						; size = 4
??0D3DXVECTOR3@@QAE@MMM@Z PROC NEAR			; D3DXVECTOR3::D3DXVECTOR3, COMDAT
; _this$ = ecx

; 300  :     x = fx;
; 301  :     y = fy;

  00000	8b 54 24 08	 mov	 edx, DWORD PTR _fy$[esp-4]
  00004	8b c1		 mov	 eax, ecx
  00006	8b 4c 24 04	 mov	 ecx, DWORD PTR _fx$[esp-4]
  0000a	89 08		 mov	 DWORD PTR [eax], ecx

; 302  :     z = fz;

  0000c	8b 4c 24 0c	 mov	 ecx, DWORD PTR _fz$[esp-4]
  00010	89 50 04	 mov	 DWORD PTR [eax+4], edx
  00013	89 48 08	 mov	 DWORD PTR [eax+8], ecx

; 303  : }

  00016	c2 0c 00	 ret	 12			; 0000000cH
??0D3DXVECTOR3@@QAE@MMM@Z ENDP				; D3DXVECTOR3::D3DXVECTOR3
_TEXT	ENDS
PUBLIC	??YD3DXVECTOR3@@QAEAAU0@ABU0@@Z			; D3DXVECTOR3::operator+=
; Function compile flags: /Ogty
;	COMDAT ??YD3DXVECTOR3@@QAEAAU0@ABU0@@Z
_TEXT	SEGMENT
_v$ = 8							; size = 4
??YD3DXVECTOR3@@QAEAAU0@ABU0@@Z PROC NEAR		; D3DXVECTOR3::operator+=, COMDAT
; _this$ = ecx

; 323  : {

  00000	8b c1		 mov	 eax, ecx

; 324  :     x += v.x;

  00002	8b 4c 24 04	 mov	 ecx, DWORD PTR _v$[esp-4]
  00006	d9 01		 fld	 DWORD PTR [ecx]
  00008	d8 00		 fadd	 DWORD PTR [eax]
  0000a	d9 18		 fstp	 DWORD PTR [eax]

; 325  :     y += v.y;

  0000c	d9 41 04	 fld	 DWORD PTR [ecx+4]
  0000f	d8 40 04	 fadd	 DWORD PTR [eax+4]
  00012	d9 58 04	 fstp	 DWORD PTR [eax+4]

; 326  :     z += v.z;

  00015	d9 41 08	 fld	 DWORD PTR [ecx+8]
  00018	d8 40 08	 fadd	 DWORD PTR [eax+8]
  0001b	d9 58 08	 fstp	 DWORD PTR [eax+8]

; 327  :     return *this;
; 328  : }

  0001e	c2 04 00	 ret	 4
??YD3DXVECTOR3@@QAEAAU0@ABU0@@Z ENDP			; D3DXVECTOR3::operator+=
_TEXT	ENDS
PUBLIC	??GD3DXVECTOR3@@QBE?AU0@ABU0@@Z			; D3DXVECTOR3::operator-
; Function compile flags: /Ogty
;	COMDAT ??GD3DXVECTOR3@@QBE?AU0@ABU0@@Z
_TEXT	SEGMENT
___$ReturnUdt$ = 8					; size = 4
_v$ = 12						; size = 4
??GD3DXVECTOR3@@QBE?AU0@ABU0@@Z PROC NEAR		; D3DXVECTOR3::operator-, COMDAT
; _this$ = ecx

; 383  :     return D3DXVECTOR3(x - v.x, y - v.y, z - v.z);

  00000	d9 41 08	 fld	 DWORD PTR [ecx+8]
  00003	8b 44 24 08	 mov	 eax, DWORD PTR _v$[esp-4]
  00007	d8 60 08	 fsub	 DWORD PTR [eax+8]
  0000a	d9 41 04	 fld	 DWORD PTR [ecx+4]
  0000d	d8 60 04	 fsub	 DWORD PTR [eax+4]
  00010	d9 01		 fld	 DWORD PTR [ecx]
  00012	d8 20		 fsub	 DWORD PTR [eax]
  00014	8b 44 24 04	 mov	 eax, DWORD PTR ___$ReturnUdt$[esp-4]
  00018	d9 18		 fstp	 DWORD PTR [eax]
  0001a	d9 58 04	 fstp	 DWORD PTR [eax+4]
  0001d	d9 58 08	 fstp	 DWORD PTR [eax+8]

; 384  : }

  00020	c2 08 00	 ret	 8
??GD3DXVECTOR3@@QBE?AU0@ABU0@@Z ENDP			; D3DXVECTOR3::operator-
_TEXT	ENDS
PUBLIC	?D3DXVec3LengthSq@@YAMPBUD3DXVECTOR3@@@Z	; D3DXVec3LengthSq
; Function compile flags: /Ogty
;	COMDAT ?D3DXVec3LengthSq@@YAMPBUD3DXVECTOR3@@@Z
_TEXT	SEGMENT
_pV$ = 8						; size = 4
?D3DXVec3LengthSq@@YAMPBUD3DXVECTOR3@@@Z PROC NEAR	; D3DXVec3LengthSq, COMDAT

; 1693 : #ifdef D3DX_DEBUG
; 1694 :     if(!pV)
; 1695 :         return 0.0f;
; 1696 : #endif
; 1697 : 
; 1698 :     return pV->x * pV->x + pV->y * pV->y + pV->z * pV->z;

  00000	8b 44 24 04	 mov	 eax, DWORD PTR _pV$[esp-4]
  00004	d9 40 08	 fld	 DWORD PTR [eax+8]
  00007	d9 40 04	 fld	 DWORD PTR [eax+4]
  0000a	d9 00		 fld	 DWORD PTR [eax]
  0000c	d9 c0		 fld	 ST(0)
  0000e	d8 c9		 fmul	 ST(0), ST(1)
  00010	d9 c2		 fld	 ST(2)
  00012	d8 cb		 fmul	 ST(0), ST(3)
  00014	de c1		 faddp	 ST(1), ST(0)
  00016	d9 c3		 fld	 ST(3)
  00018	d8 cc		 fmul	 ST(0), ST(4)
  0001a	de c1		 faddp	 ST(1), ST(0)
  0001c	dd db		 fstp	 ST(3)
  0001e	dd d8		 fstp	 ST(0)
  00020	dd d8		 fstp	 ST(0)

; 1699 : }

  00022	c3		 ret	 0
?D3DXVec3LengthSq@@YAMPBUD3DXVECTOR3@@@Z ENDP		; D3DXVec3LengthSq
_TEXT	ENDS
PUBLIC	??1CTimer@@UAE@XZ				; CTimer::~CTimer
PUBLIC	??_7CTimer@@6B@					; CTimer::`vftable'
PUBLIC	??_GCTimer@@UAEPAXI@Z				; CTimer::`scalar deleting destructor'
EXTRN	?Reset@CTimer@@UAEXXZ:NEAR			; CTimer::Reset
EXTRN	?Over@CTimer@@UAEHXZ:NEAR			; CTimer::Over
EXTRN	??_ECTimer@@UAEPAXI@Z:NEAR			; CTimer::`vector deleting destructor'
;	COMDAT ??_7CTimer@@6B@
; File c:\documents and settings\test\mes documents\source\virtuos_v17\build\program\_common\timer.h
CONST	SEGMENT
??_7CTimer@@6B@ DD FLAT:??_ECTimer@@UAEPAXI@Z		; CTimer::`vftable'
	DD	FLAT:?Reset@CTimer@@UAEXXZ
	DD	FLAT:?Over@CTimer@@UAEHXZ
; Function compile flags: /Ogty
CONST	ENDS
;	COMDAT ??1CTimer@@UAE@XZ
_TEXT	SEGMENT
??1CTimer@@UAE@XZ PROC NEAR				; CTimer::~CTimer, COMDAT
; _this$ = ecx

; 19   : 	virtual ~CTimer()	{}

  00000	c7 01 00 00 00
	00		 mov	 DWORD PTR [ecx], OFFSET FLAT:??_7CTimer@@6B@
  00006	c3		 ret	 0
??1CTimer@@UAE@XZ ENDP					; CTimer::~CTimer
_TEXT	ENDS
PUBLIC	?IsTimeOut@CTimer@@QAEHXZ			; CTimer::IsTimeOut
; Function compile flags: /Ogty
;	COMDAT ?IsTimeOut@CTimer@@QAEHXZ
_TEXT	SEGMENT
?IsTimeOut@CTimer@@QAEHXZ PROC NEAR			; CTimer::IsTimeOut, COMDAT
; _this$ = ecx

; 28   : 	BOOL	IsTimeOut( void )	{	return Over();	}

  00000	8b 01		 mov	 eax, DWORD PTR [ecx]
  00002	ff 60 08	 jmp	 DWORD PTR [eax+8]
?IsTimeOut@CTimer@@QAEHXZ ENDP				; CTimer::IsTimeOut
_TEXT	ENDS
EXTRN	??3@YAXPAX@Z:NEAR				; operator delete
; Function compile flags: /Ogty
;	COMDAT ??_GCTimer@@UAEPAXI@Z
_TEXT	SEGMENT
___flags$ = 8						; size = 4
??_GCTimer@@UAEPAXI@Z PROC NEAR				; CTimer::`scalar deleting destructor', COMDAT
; _this$ = ecx
  00000	f6 44 24 04 01	 test	 BYTE PTR ___flags$[esp-4], 1
  00005	56		 push	 esi
  00006	8b f1		 mov	 esi, ecx
  00008	c7 06 00 00 00
	00		 mov	 DWORD PTR [esi], OFFSET FLAT:??_7CTimer@@6B@
  0000e	74 09		 je	 SHORT $L267004
  00010	56		 push	 esi
  00011	e8 00 00 00 00	 call	 ??3@YAXPAX@Z		; operator delete
  00016	83 c4 04	 add	 esp, 4
$L267004:
  00019	8b c6		 mov	 eax, esi
  0001b	5e		 pop	 esi
  0001c	c2 04 00	 ret	 4
??_GCTimer@@UAEPAXI@Z ENDP				; CTimer::`scalar deleting destructor'
_TEXT	ENDS
PUBLIC	?xRand@@YAKXZ					; xRand
EXTRN	?g_next@@3KA:DWORD				; g_next
; Function compile flags: /Ogty
; File c:\documents and settings\test\mes documents\source\virtuos_v17\build\program\_common\xutil.h
;	COMDAT ?xRand@@YAKXZ
_TEXT	SEGMENT
?xRand@@YAKXZ PROC NEAR					; xRand, COMDAT

; 16   : 	g_next = g_next * 1103515245 + 12345;// + nRandomSeed[ i++ ];

  00000	a1 00 00 00 00	 mov	 eax, DWORD PTR ?g_next@@3KA ; g_next
  00005	69 c0 6d 4e c6
	41		 imul	 eax, 1103515245		; 41c64e6dH
  0000b	05 39 30 00 00	 add	 eax, 12345		; 00003039H
  00010	a3 00 00 00 00	 mov	 DWORD PTR ?g_next@@3KA, eax ; g_next

; 17   : 	return g_next;	//   .
; 18   : }

  00015	c3		 ret	 0
?xRand@@YAKXZ ENDP					; xRand
_TEXT	ENDS
PUBLIC	?xRandom@@YAKK@Z				; xRandom
; Function compile flags: /Ogty
;	COMDAT ?xRandom@@YAKK@Z
_TEXT	SEGMENT
_num$ = 8						; size = 4
?xRandom@@YAKK@Z PROC NEAR				; xRandom, COMDAT

; 22   : 	return  xRand() % num;

  00000	a1 00 00 00 00	 mov	 eax, DWORD PTR ?g_next@@3KA ; g_next
  00005	69 c0 6d 4e c6
	41		 imul	 eax, 1103515245		; 41c64e6dH
  0000b	05 39 30 00 00	 add	 eax, 12345		; 00003039H
  00010	a3 00 00 00 00	 mov	 DWORD PTR ?g_next@@3KA, eax ; g_next
  00015	33 d2		 xor	 edx, edx
  00017	f7 74 24 04	 div	 DWORD PTR _num$[esp-4]
  0001b	8b c2		 mov	 eax, edx

; 23   : }

  0001d	c3		 ret	 0
?xRandom@@YAKK@Z ENDP					; xRandom
_TEXT	ENDS
PUBLIC	?AngleToVectorXZ@@YAXPAUD3DXVECTOR3@@MM@Z	; AngleToVectorXZ
PUBLIC	__real@3c8efa35
;	COMDAT __real@3c8efa35
; File c:\program files\microsoft visual studio .net 2003\vc7\include\math.h
CONST	SEGMENT
__real@3c8efa35 DD 03c8efa35r			; 0.0174533
; Function compile flags: /Ogty
; File c:\documents and settings\test\mes documents\source\virtuos_v17\build\program\_common\xutil3d.h
CONST	ENDS
;	COMDAT ?AngleToVectorXZ@@YAXPAUD3DXVECTOR3@@MM@Z
_TEXT	SEGMENT
_vDelta$ = 8						; size = 4
_fAngXZ$ = 12						; size = 4
_fSpeed$ = 16						; size = 4
?AngleToVectorXZ@@YAXPAUD3DXVECTOR3@@MM@Z PROC NEAR	; AngleToVectorXZ, COMDAT

; 39   : 	fAngXZ = D3DXToRadian(fAngXZ);

  00000	d9 44 24 08	 fld	 DWORD PTR _fAngXZ$[esp-4]

; 40   : 	vDelta->x = sinf(fAngXZ) * fSpeed;

  00004	8b 44 24 04	 mov	 eax, DWORD PTR _vDelta$[esp-4]
  00008	d8 0d 00 00 00
	00		 fmul	 DWORD PTR __real@3c8efa35

; 41   : 	vDelta->z = -cosf(fAngXZ) * fSpeed;
; 42   : 	vDelta->y = 0;

  0000e	c7 40 04 00 00
	00 00		 mov	 DWORD PTR [eax+4], 0
  00015	d9 c0		 fld	 ST(0)
  00017	d9 fe		 fsin
  00019	d8 4c 24 0c	 fmul	 DWORD PTR _fSpeed$[esp-4]
  0001d	d9 18		 fstp	 DWORD PTR [eax]
  0001f	d9 ff		 fcos
  00021	d8 4c 24 0c	 fmul	 DWORD PTR _fSpeed$[esp-4]
  00025	d9 e0		 fchs
  00027	d9 58 08	 fstp	 DWORD PTR [eax+8]

; 43   : }

  0002a	c3		 ret	 0
?AngleToVectorXZ@@YAXPAUD3DXVECTOR3@@MM@Z ENDP		; AngleToVectorXZ
_TEXT	ENDS
PUBLIC	?IsDelete@CObj@@QAEHXZ				; CObj::IsDelete
; Function compile flags: /Ogty
; File c:\documents and settings\test\mes documents\source\virtuos_v17\build\program\_common\obj.h
;	COMDAT ?IsDelete@CObj@@QAEHXZ
_TEXT	SEGMENT
?IsDelete@CObj@@QAEHXZ PROC NEAR			; CObj::IsDelete, COMDAT
; _this$ = ecx

; 180  : 	BOOL			IsDelete()	{ return (m_dwFlags & OBJ_FLAG_DELETE);  }

  00000	8b 41 04	 mov	 eax, DWORD PTR [ecx+4]
  00003	83 e0 01	 and	 eax, 1
  00006	c3		 ret	 0
?IsDelete@CObj@@QAEHXZ ENDP				; CObj::IsDelete
_TEXT	ENDS
PUBLIC	?GetPos@CObj@@QAE?AUD3DXVECTOR3@@XZ		; CObj::GetPos
; Function compile flags: /Ogty
;	COMDAT ?GetPos@CObj@@QAE?AUD3DXVECTOR3@@XZ
_TEXT	SEGMENT
___$ReturnUdt$ = 8					; size = 4
?GetPos@CObj@@QAE?AUD3DXVECTOR3@@XZ PROC NEAR		; CObj::GetPos, COMDAT
; _this$ = ecx

; 215  : 	D3DXVECTOR3		GetPos()	{ return m_vPos; }

  00000	8b 44 24 04	 mov	 eax, DWORD PTR ___$ReturnUdt$[esp-4]
  00004	81 c1 60 01 00
	00		 add	 ecx, 352		; 00000160H
  0000a	56		 push	 esi
  0000b	8b 31		 mov	 esi, DWORD PTR [ecx]
  0000d	8b d0		 mov	 edx, eax
  0000f	89 32		 mov	 DWORD PTR [edx], esi
  00011	8b 71 04	 mov	 esi, DWORD PTR [ecx+4]
  00014	89 72 04	 mov	 DWORD PTR [edx+4], esi
  00017	8b 49 08	 mov	 ecx, DWORD PTR [ecx+8]
  0001a	89 4a 08	 mov	 DWORD PTR [edx+8], ecx
  0001d	5e		 pop	 esi
  0001e	c2 04 00	 ret	 4
?GetPos@CObj@@QAE?AUD3DXVECTOR3@@XZ ENDP		; CObj::GetPos
_TEXT	ENDS
PUBLIC	?GetAngle@CObj@@QAEMXZ				; CObj::GetAngle
; Function compile flags: /Ogty
;	COMDAT ?GetAngle@CObj@@QAEMXZ
_TEXT	SEGMENT
?GetAngle@CObj@@QAEMXZ PROC NEAR			; CObj::GetAngle, COMDAT
; _this$ = ecx

; 217  : 	FLOAT			GetAngle()	{ return m_fAngle; }

  00000	d9 41 18	 fld	 DWORD PTR [ecx+24]
  00003	c3		 ret	 0
?GetAngle@CObj@@QAEMXZ ENDP				; CObj::GetAngle
_TEXT	ENDS
PUBLIC	?GetWorld@CObj@@QAEPAVCWorld@@XZ		; CObj::GetWorld
; Function compile flags: /Ogty
;	COMDAT ?GetWorld@CObj@@QAEPAVCWorld@@XZ
_TEXT	SEGMENT
?GetWorld@CObj@@QAEPAVCWorld@@XZ PROC NEAR		; CObj::GetWorld, COMDAT
; _this$ = ecx

; 221  : 	CWorld*			GetWorld()	{ return m_pWorld; }

  00000	8b 81 6c 01 00
	00		 mov	 eax, DWORD PTR [ecx+364]
  00006	c3		 ret	 0
?GetWorld@CObj@@QAEPAVCWorld@@XZ ENDP			; CObj::GetWorld
_TEXT	ENDS
PUBLIC	?GetModel@CObj@@QAEPAVCModel@@XZ		; CObj::GetModel
; Function compile flags: /Ogty
;	COMDAT ?GetModel@CObj@@QAEPAVCModel@@XZ
_TEXT	SEGMENT
?GetModel@CObj@@QAEPAVCModel@@XZ PROC NEAR		; CObj::GetModel, COMDAT
; _this$ = ecx

; 223  : 	CModel*			GetModel()	{ return m_pModel; }

  00000	8b 81 78 01 00
	00		 mov	 eax, DWORD PTR [ecx+376]
  00006	c3		 ret	 0
?GetModel@CObj@@QAEPAVCModel@@XZ ENDP			; CObj::GetModel
_TEXT	ENDS
PUBLIC	?GetLayer@CObj@@QAEHXZ				; CObj::GetLayer
; Function compile flags: /Ogty
;	COMDAT ?GetLayer@CObj@@QAEHXZ
_TEXT	SEGMENT
?GetLayer@CObj@@QAEHXZ PROC NEAR			; CObj::GetLayer, COMDAT
; _this$ = ecx

; 247  : 	int		GetLayer()	{	return m_nLayer;	}

  00000	8b 81 b8 01 00
	00		 mov	 eax, DWORD PTR [ecx+440]
  00006	c3		 ret	 0
?GetLayer@CObj@@QAEHXZ ENDP				; CObj::GetLayer
_TEXT	ENDS
PUBLIC	?IsValidObj@@YAHPAVCObj@@@Z			; IsValidObj
; Function compile flags: /Ogty
;	COMDAT ?IsValidObj@@YAHPAVCObj@@@Z
_TEXT	SEGMENT
_pObj$ = 8						; size = 4
?IsValidObj@@YAHPAVCObj@@@Z PROC NEAR			; IsValidObj, COMDAT

; 327  : 	return pObj && ( pObj->IsDelete() == FALSE ); 

  00000	8b 44 24 04	 mov	 eax, DWORD PTR _pObj$[esp-4]
  00004	85 c0		 test	 eax, eax
  00006	74 0c		 je	 SHORT $L267046
  00008	f6 40 04 01	 test	 BYTE PTR [eax+4], 1
  0000c	75 06		 jne	 SHORT $L267046
  0000e	b8 01 00 00 00	 mov	 eax, 1

; 328  : }

  00013	c3		 ret	 0
$L267046:

; 327  : 	return pObj && ( pObj->IsDelete() == FALSE ); 

  00014	33 c0		 xor	 eax, eax

; 328  : }

  00016	c3		 ret	 0
?IsValidObj@@YAHPAVCObj@@@Z ENDP			; IsValidObj
_TEXT	ENDS
PUBLIC	?IsInvalidObj@@YAHPAVCObj@@@Z			; IsInvalidObj
; Function compile flags: /Ogty
;	COMDAT ?IsInvalidObj@@YAHPAVCObj@@@Z
_TEXT	SEGMENT
_pObj$ = 8						; size = 4
?IsInvalidObj@@YAHPAVCObj@@@Z PROC NEAR			; IsInvalidObj, COMDAT

; 332  : 	return !IsValidObj( pObj ); 

  00000	8b 44 24 04	 mov	 eax, DWORD PTR _pObj$[esp-4]
  00004	85 c0		 test	 eax, eax
  00006	74 15		 je	 SHORT $L267062
  00008	f6 40 04 01	 test	 BYTE PTR [eax+4], 1
  0000c	75 0f		 jne	 SHORT $L267062
  0000e	b8 01 00 00 00	 mov	 eax, 1
  00013	33 c9		 xor	 ecx, ecx
  00015	85 c0		 test	 eax, eax
  00017	0f 94 c1	 sete	 cl
  0001a	8b c1		 mov	 eax, ecx

; 333  : }

  0001c	c3		 ret	 0

; 332  : 	return !IsValidObj( pObj ); 

$L267062:
  0001d	33 c0		 xor	 eax, eax
  0001f	33 c9		 xor	 ecx, ecx
  00021	85 c0		 test	 eax, eax
  00023	0f 94 c1	 sete	 cl
  00026	8b c1		 mov	 eax, ecx

; 333  : }

  00028	c3		 ret	 0
?IsInvalidObj@@YAHPAVCObj@@@Z ENDP			; IsInvalidObj
_TEXT	ENDS
PUBLIC	?GetId@CCtrl@@QAEKXZ				; CCtrl::GetId
; Function compile flags: /Ogty
; File c:\documents and settings\test\mes documents\source\virtuos_v17\build\program\_common\ctrl.h
;	COMDAT ?GetId@CCtrl@@QAEKXZ
_TEXT	SEGMENT
?GetId@CCtrl@@QAEKXZ PROC NEAR				; CCtrl::GetId, COMDAT
; _this$ = ecx

; 58   : 	OBJID			GetId()					{ return m_objid;   }

  00000	8b 81 bc 01 00
	00		 mov	 eax, DWORD PTR [ecx+444]
  00006	c3		 ret	 0
?GetId@CCtrl@@QAEKXZ ENDP				; CCtrl::GetId
_TEXT	ENDS
PUBLIC	?LOG_RANGE@@YAXPBDHHH@Z				; LOG_RANGE
PUBLIC	??_C@_0BM@HMFGHCP@?$CFs?5min?3?$CFd?0?5max?3?$CFd?0?5index?3?$CFd?$AA@ ; `string'
EXTRN	?Error@@YAPBDPBDZZ:NEAR				; Error
;	COMDAT ??_C@_0BM@HMFGHCP@?$CFs?5min?3?$CFd?0?5max?3?$CFd?0?5index?3?$CFd?$AA@
; File c:\documents and settings\test\mes documents\source\virtuos_v17\build\program\_common\project.h
CONST	SEGMENT
??_C@_0BM@HMFGHCP@?$CFs?5min?3?$CFd?0?5max?3?$CFd?0?5index?3?$CFd?$AA@ DB '%'
	DB	's min:%d, max:%d, index:%d', 00H		; `string'
; Function compile flags: /Ogty
CONST	ENDS
;	COMDAT ?LOG_RANGE@@YAXPBDHHH@Z
_TEXT	SEGMENT
_szMsg$ = 8						; size = 4
_nMin$ = 12						; size = 4
_nMax$ = 16						; size = 4
_nIndex$ = 20						; size = 4
?LOG_RANGE@@YAXPBDHHH@Z PROC NEAR			; LOG_RANGE, COMDAT

; 559  : 	LPCTSTR szErr = Error( _T( "%s min:%d, max:%d, index:%d" ), szMsg, nMin, nMax, nIndex ); 

  00000	8b 44 24 10	 mov	 eax, DWORD PTR _nIndex$[esp-4]
  00004	8b 4c 24 0c	 mov	 ecx, DWORD PTR _nMax$[esp-4]
  00008	8b 54 24 08	 mov	 edx, DWORD PTR _nMin$[esp-4]
  0000c	50		 push	 eax
  0000d	8b 44 24 08	 mov	 eax, DWORD PTR _szMsg$[esp]
  00011	51		 push	 ecx
  00012	52		 push	 edx
  00013	50		 push	 eax
  00014	68 00 00 00 00	 push	 OFFSET FLAT:??_C@_0BM@HMFGHCP@?$CFs?5min?3?$CFd?0?5max?3?$CFd?0?5index?3?$CFd?$AA@
  00019	e8 00 00 00 00	 call	 ?Error@@YAPBDPBDZZ	; Error
  0001e	83 c4 14	 add	 esp, 20			; 00000014H

; 560  : 	ADDERRORMSG( szErr ); 
; 561  : }

  00021	c3		 ret	 0
?LOG_RANGE@@YAXPBDHHH@Z ENDP				; LOG_RANGE
_TEXT	ENDS
PUBLIC	??_C@_0BJ@GKPOBPPI@GetMoverProp?5range_error?$AA@ ; `string'
PUBLIC	?GetMoverProp@CProject@@QAEPAUMoverProp@@H@Z	; CProject::GetMoverProp
;	COMDAT ??_C@_0BJ@GKPOBPPI@GetMoverProp?5range_error?$AA@
CONST	SEGMENT
??_C@_0BJ@GKPOBPPI@GetMoverProp?5range_error?$AA@ DB 'GetMoverProp range_'
	DB	'error', 00H					; `string'
; Function compile flags: /Ogty
CONST	ENDS
;	COMDAT ?GetMoverProp@CProject@@QAEPAUMoverProp@@H@Z
_TEXT	SEGMENT
_nIndex$ = 8						; size = 4
?GetMoverProp@CProject@@QAEPAUMoverProp@@H@Z PROC NEAR	; CProject::GetMoverProp, COMDAT
; _this$ = ecx

; 1381 : 	VERIFY_RANGE( nIndex, 0, m_nMoverPropSize, "GetMoverProp range_error", NULL );

  00000	8b 44 24 04	 mov	 eax, DWORD PTR _nIndex$[esp-4]
  00004	85 c0		 test	 eax, eax
  00006	7c 19		 jl	 SHORT $L197938
  00008	3b 81 d0 01 00
	00		 cmp	 eax, DWORD PTR [ecx+464]
  0000e	7d 11		 jge	 SHORT $L197938

; 1382 : 	return m_pPropMover + nIndex;

  00010	8b 91 d4 01 00
	00		 mov	 edx, DWORD PTR [ecx+468]
  00016	69 c0 d8 06 00
	00		 imul	 eax, 1752		; 000006d8H
  0001c	03 c2		 add	 eax, edx

; 1383 : }

  0001e	c2 04 00	 ret	 4
$L197938:

; 1381 : 	VERIFY_RANGE( nIndex, 0, m_nMoverPropSize, "GetMoverProp range_error", NULL );

  00021	50		 push	 eax
  00022	8b 81 d0 01 00
	00		 mov	 eax, DWORD PTR [ecx+464]
  00028	50		 push	 eax
  00029	6a 00		 push	 0
  0002b	68 00 00 00 00	 push	 OFFSET FLAT:??_C@_0BJ@GKPOBPPI@GetMoverProp?5range_error?$AA@
  00030	68 00 00 00 00	 push	 OFFSET FLAT:??_C@_0BM@HMFGHCP@?$CFs?5min?3?$CFd?0?5max?3?$CFd?0?5index?3?$CFd?$AA@
  00035	e8 00 00 00 00	 call	 ?Error@@YAPBDPBDZZ	; Error
  0003a	83 c4 14	 add	 esp, 20			; 00000014H
  0003d	33 c0		 xor	 eax, eax

; 1383 : }

  0003f	c2 04 00	 ret	 4
?GetMoverProp@CProject@@QAEPAUMoverProp@@H@Z ENDP	; CProject::GetMoverProp
_TEXT	ENDS
PUBLIC	?IsEndFrame@CModel@@QAEHXZ			; CModel::IsEndFrame
; Function compile flags: /Ogty
; File c:\documents and settings\test\mes documents\source\virtuos_v17\build\program\_common\model.h
;	COMDAT ?IsEndFrame@CModel@@QAEHXZ
_TEXT	SEGMENT
?IsEndFrame@CModel@@QAEHXZ PROC NEAR			; CModel::IsEndFrame, COMDAT
; _this$ = ecx

; 142  : 	BOOL	IsEndFrame() { return m_bEndFrame; }

  00000	8b 81 9c 00 00
	00		 mov	 eax, DWORD PTR [ecx+156]
  00006	c3		 ret	 0
?IsEndFrame@CModel@@QAEHXZ ENDP				; CModel::IsEndFrame
_TEXT	ENDS
PUBLIC	?GetActionState@CAction@@QAEKXZ			; CAction::GetActionState
; Function compile flags: /Ogty
; File c:\documents and settings\test\mes documents\source\virtuos_v17\build\program\_aiinterface\action.h
;	COMDAT ?GetActionState@CAction@@QAEKXZ
_TEXT	SEGMENT
?GetActionState@CAction@@QAEKXZ PROC NEAR		; CAction::GetActionState, COMDAT
; _this$ = ecx

; 305  : 	DWORD			GetActionState() { return m_dwState & OBJSTA_ACTION_ALL; }

  00000	8b 41 04	 mov	 eax, DWORD PTR [ecx+4]
  00003	25 00 00 00 f0	 and	 eax, -268435456		; f0000000H
  00008	c3		 ret	 0
?GetActionState@CAction@@QAEKXZ ENDP			; CAction::GetActionState
_TEXT	ENDS
PUBLIC	?IsFly@CAction@@QAEHXZ				; CAction::IsFly
; Function compile flags: /Ogty
;	COMDAT ?IsFly@CAction@@QAEHXZ
_TEXT	SEGMENT
?IsFly@CAction@@QAEHXZ PROC NEAR			; CAction::IsFly, COMDAT
; _this$ = ecx

; 309  : 	BOOL			IsFly() { return (m_dwStateFlag & OBJSTAF_FLY) ? TRUE : FALSE; }

  00000	8b 41 08	 mov	 eax, DWORD PTR [ecx+8]
  00003	c1 e8 03	 shr	 eax, 3
  00006	83 e0 01	 and	 eax, 1
  00009	c3		 ret	 0
?IsFly@CAction@@QAEHXZ ENDP				; CAction::IsFly
_TEXT	ENDS
PUBLIC	?IsDie@CAction@@QAEHXZ				; CAction::IsDie
; Function compile flags: /Ogty
;	COMDAT ?IsDie@CAction@@QAEHXZ
_TEXT	SEGMENT
?IsDie@CAction@@QAEHXZ PROC NEAR			; CAction::IsDie, COMDAT
; _this$ = ecx

; 310  : 	BOOL			IsDie() { return (m_dwState & OBJSTA_DIE_ALL) ? TRUE : FALSE; }

  00000	8b 41 04	 mov	 eax, DWORD PTR [ecx+4]
  00003	c1 e8 1b	 shr	 eax, 27			; 0000001bH
  00006	83 e0 01	 and	 eax, 1
  00009	c3		 ret	 0
?IsDie@CAction@@QAEHXZ ENDP				; CAction::IsDie
_TEXT	ENDS
PUBLIC	?GetMover@CAIInterface@@IAEPAVCMover@@XZ	; CAIInterface::GetMover
; Function compile flags: /Ogty
; File c:\documents and settings\test\mes documents\source\virtuos_v17\build\program\_aiinterface\aiinterface.h
;	COMDAT ?GetMover@CAIInterface@@IAEPAVCMover@@XZ
_TEXT	SEGMENT
?GetMover@CAIInterface@@IAEPAVCMover@@XZ PROC NEAR	; CAIInterface::GetMover, COMDAT
; _this$ = ecx

; 127  : 	CMover* GetMover() { return (CMover*)m_pObj; }

  00000	8b 41 30	 mov	 eax, DWORD PTR [ecx+48]
  00003	c3		 ret	 0
?GetMover@CAIInterface@@IAEPAVCMover@@XZ ENDP		; CAIInterface::GetMover
_TEXT	ENDS
PUBLIC	?GetWorld@CAIInterface@@IAEPAVCWorld@@XZ	; CAIInterface::GetWorld
; Function compile flags: /Ogty
;	COMDAT ?GetWorld@CAIInterface@@IAEPAVCWorld@@XZ
_TEXT	SEGMENT
?GetWorld@CAIInterface@@IAEPAVCWorld@@XZ PROC NEAR	; CAIInterface::GetWorld, COMDAT
; _this$ = ecx

; 128  : 	CWorld* GetWorld() { return m_pObj->GetWorld(); }

  00000	8b 41 30	 mov	 eax, DWORD PTR [ecx+48]
  00003	8b 80 6c 01 00
	00		 mov	 eax, DWORD PTR [eax+364]
  00009	c3		 ret	 0
?GetWorld@CAIInterface@@IAEPAVCWorld@@XZ ENDP		; CAIInterface::GetWorld
_TEXT	ENDS
PUBLIC	?IsFlyingNPC@CMover@@QAEHXZ			; CMover::IsFlyingNPC
; Function compile flags: /Ogty
; File c:\documents and settings\test\mes documents\source\virtuos_v17\build\program\_common\mover.h
;	COMDAT ?IsFlyingNPC@CMover@@QAEHXZ
_TEXT	SEGMENT
?IsFlyingNPC@CMover@@QAEHXZ PROC NEAR			; CMover::IsFlyingNPC, COMDAT
; _this$ = ecx

; 1044 : 	BOOL			IsFlyingNPC()		{ return (m_dwTypeFlag & OBJTYPE_FLYING) ? TRUE : FALSE; }		//  .

  00000	33 c0		 xor	 eax, eax
  00002	8a 81 42 02 00
	00		 mov	 al, BYTE PTR [ecx+578]
  00008	83 e0 01	 and	 eax, 1
  0000b	c3		 ret	 0
?IsFlyingNPC@CMover@@QAEHXZ ENDP			; CMover::IsFlyingNPC
_TEXT	ENDS
PUBLIC	?GetPropA@CMover@@QAEPAUMoverProp@@XZ		; CMover::GetPropA
EXTRN	?prj@@3VCProject@@A:BYTE			; prj
; Function compile flags: /Ogty
;	COMDAT ?GetPropA@CMover@@QAEPAUMoverProp@@XZ
_TEXT	SEGMENT
?GetPropA@CMover@@QAEPAUMoverProp@@XZ PROC NEAR		; CMover::GetPropA, COMDAT
; _this$ = ecx

; 1046 : 	MoverProp*		GetProp() { return prj.GetMoverProp( m_dwIndex ); }	//    	

  00000	8b 81 74 01 00
	00		 mov	 eax, DWORD PTR [ecx+372]
  00006	85 c0		 test	 eax, eax
  00008	8b 0d d0 01 00
	00		 mov	 ecx, DWORD PTR ?prj@@3VCProject@@A+464
  0000e	7c 13		 jl	 SHORT $L267119
  00010	3b c1		 cmp	 eax, ecx
  00012	7d 0f		 jge	 SHORT $L267119
  00014	8b 0d d4 01 00
	00		 mov	 ecx, DWORD PTR ?prj@@3VCProject@@A+468
  0001a	69 c0 d8 06 00
	00		 imul	 eax, 1752		; 000006d8H
  00020	03 c1		 add	 eax, ecx
  00022	c3		 ret	 0
$L267119:
  00023	50		 push	 eax
  00024	51		 push	 ecx
  00025	6a 00		 push	 0
  00027	68 00 00 00 00	 push	 OFFSET FLAT:??_C@_0BJ@GKPOBPPI@GetMoverProp?5range_error?$AA@
  0002c	68 00 00 00 00	 push	 OFFSET FLAT:??_C@_0BM@HMFGHCP@?$CFs?5min?3?$CFd?0?5max?3?$CFd?0?5index?3?$CFd?$AA@
  00031	e8 00 00 00 00	 call	 ?Error@@YAPBDPBDZZ	; Error
  00036	83 c4 14	 add	 esp, 20			; 00000014H
  00039	33 c0		 xor	 eax, eax
  0003b	c3		 ret	 0
?GetPropA@CMover@@QAEPAUMoverProp@@XZ ENDP		; CMover::GetPropA
_TEXT	ENDS
PUBLIC	?GetLevel@CMover@@QAEHXZ			; CMover::GetLevel
; Function compile flags: /Ogty
;	COMDAT ?GetLevel@CMover@@QAEHXZ
_TEXT	SEGMENT
?GetLevel@CMover@@QAEHXZ PROC NEAR			; CMover::GetLevel, COMDAT
; _this$ = ecx

; 1159 : 	int				GetLevel() { return m_nLevel; }

  00000	8b 81 e0 05 00
	00		 mov	 eax, DWORD PTR [ecx+1504]
  00006	c3		 ret	 0
?GetLevel@CMover@@QAEHXZ ENDP				; CMover::GetLevel
_TEXT	ENDS
PUBLIC	?IsDie@CMover@@QAEHXZ				; CMover::IsDie
; Function compile flags: /Ogty
;	COMDAT ?IsDie@CMover@@QAEHXZ
_TEXT	SEGMENT
?IsDie@CMover@@QAEHXZ PROC NEAR				; CMover::IsDie, COMDAT
; _this$ = ecx

; 1276 : 	BOOL			IsDie() { return m_pActMover->IsDie() || m_nHitPoint == 0; }

  00000	8b 81 3c 02 00
	00		 mov	 eax, DWORD PTR [ecx+572]
  00006	f7 40 04 00 00
	00 08		 test	 DWORD PTR [eax+4], 134217728 ; 08000000H
  0000d	75 0d		 jne	 SHORT $L267132
  0000f	8b 81 00 06 00
	00		 mov	 eax, DWORD PTR [ecx+1536]
  00015	85 c0		 test	 eax, eax
  00017	74 03		 je	 SHORT $L267132
  00019	33 c0		 xor	 eax, eax
  0001b	c3		 ret	 0
$L267132:
  0001c	b8 01 00 00 00	 mov	 eax, 1
  00021	c3		 ret	 0
?IsDie@CMover@@QAEHXZ ENDP				; CMover::IsDie
_TEXT	ENDS
PUBLIC	?DoAttackMelee@CMover@@QAEHKW4OBJMSG@@K@Z	; CMover::DoAttackMelee
EXTRN	?GetMover@CProject@@QAEPAVCMover@@K@Z:NEAR	; CProject::GetMover
EXTRN	?DoAttackMelee@CMover@@QAEHPAV1@W4OBJMSG@@K@Z:NEAR ; CMover::DoAttackMelee
; Function compile flags: /Ogty
;	COMDAT ?DoAttackMelee@CMover@@QAEHKW4OBJMSG@@K@Z
_TEXT	SEGMENT
_idTarget$ = 8						; size = 4
_dwMsg$ = 12						; size = 4
_dwItemID$ = 16						; size = 4
?DoAttackMelee@CMover@@QAEHKW4OBJMSG@@K@Z PROC NEAR	; CMover::DoAttackMelee, COMDAT
; _this$ = ecx

; 1799 : 	CMover *pTarget = (CMover *)prj.GetMover( idTarget );

  00000	8b 44 24 04	 mov	 eax, DWORD PTR _idTarget$[esp-4]
  00004	56		 push	 esi
  00005	8b f1		 mov	 esi, ecx
  00007	50		 push	 eax
  00008	b9 00 00 00 00	 mov	 ecx, OFFSET FLAT:?prj@@3VCProject@@A
  0000d	e8 00 00 00 00	 call	 ?GetMover@CProject@@QAEPAVCMover@@K@Z ; CProject::GetMover

; 1800 : 	if( IsInvalidObj(pTarget) )

  00012	85 c0		 test	 eax, eax
  00014	74 06		 je	 SHORT $L267157
  00016	f6 40 04 01	 test	 BYTE PTR [eax+4], 1
  0001a	74 06		 je	 SHORT $L212496
$L267157:

; 1801 : 		return 0;

  0001c	33 c0		 xor	 eax, eax
  0001e	5e		 pop	 esi

; 1804 : }

  0001f	c2 0c 00	 ret	 12			; 0000000cH
$L212496:

; 1802 : 
; 1803 : 	return DoAttackMelee( pTarget, dwMsg, dwItemID );

  00022	8b 4c 24 10	 mov	 ecx, DWORD PTR _dwItemID$[esp]
  00026	8b 54 24 0c	 mov	 edx, DWORD PTR _dwMsg$[esp]
  0002a	51		 push	 ecx
  0002b	52		 push	 edx
  0002c	50		 push	 eax
  0002d	8b ce		 mov	 ecx, esi
  0002f	e8 00 00 00 00	 call	 ?DoAttackMelee@CMover@@QAEHPAV1@W4OBJMSG@@K@Z ; CMover::DoAttackMelee
  00034	5e		 pop	 esi

; 1804 : }

  00035	c2 0c 00	 ret	 12			; 0000000cH
?DoAttackMelee@CMover@@QAEHKW4OBJMSG@@K@Z ENDP		; CMover::DoAttackMelee
_TEXT	ENDS
PUBLIC	?SendActMsg@CMover@@QAEHW4OBJMSG@@HHHH@Z	; CMover::SendActMsg
; Function compile flags: /Ogty
;	COMDAT ?SendActMsg@CMover@@QAEHW4OBJMSG@@HHHH@Z
_TEXT	SEGMENT
_dwMsg$ = 8						; size = 4
_nParam1$ = 12						; size = 4
_nParam2$ = 16						; size = 4
_nParam3$ = 20						; size = 4
_nParam4$ = 24						; size = 4
?SendActMsg@CMover@@QAEHW4OBJMSG@@HHHH@Z PROC NEAR	; CMover::SendActMsg, COMDAT
; _this$ = ecx

; 1820 : 	if( m_pActMover )	

  00000	8b 81 3c 02 00
	00		 mov	 eax, DWORD PTR [ecx+572]
  00006	85 c0		 test	 eax, eax
  00008	74 25		 je	 SHORT $L212505

; 1821 : 		return m_pActMover->SendActMsg( dwMsg, nParam1, nParam2, nParam3, nParam4 );	

  0000a	8b 54 24 14	 mov	 edx, DWORD PTR _nParam4$[esp-4]
  0000e	6a 00		 push	 0
  00010	52		 push	 edx
  00011	8b 54 24 18	 mov	 edx, DWORD PTR _nParam3$[esp+4]
  00015	52		 push	 edx
  00016	8b 54 24 18	 mov	 edx, DWORD PTR _nParam2$[esp+8]
  0001a	52		 push	 edx
  0001b	8b 54 24 18	 mov	 edx, DWORD PTR _nParam1$[esp+12]
  0001f	52		 push	 edx
  00020	8b 54 24 18	 mov	 edx, DWORD PTR _dwMsg$[esp+16]
  00024	8b c8		 mov	 ecx, eax
  00026	8b 01		 mov	 eax, DWORD PTR [ecx]
  00028	52		 push	 edx
  00029	ff 50 04	 call	 DWORD PTR [eax+4]

; 1824 : }

  0002c	c2 14 00	 ret	 20			; 00000014H
$L212505:

; 1822 : 	else
; 1823 : 		return 0;

  0002f	33 c0		 xor	 eax, eax

; 1824 : }

  00031	c2 14 00	 ret	 20			; 00000014H
?SendActMsg@CMover@@QAEHW4OBJMSG@@HHHH@Z ENDP		; CMover::SendActMsg
_TEXT	ENDS
PUBLIC	?SetGold@CMover@@QAEXH@Z			; CMover::SetGold
; Function compile flags: /Ogty
;	COMDAT ?SetGold@CMover@@QAEXH@Z
_TEXT	SEGMENT
_nGold$ = 8						; size = 4
?SetGold@CMover@@QAEXH@Z PROC NEAR			; CMover::SetGold, COMDAT
; _this$ = ecx

; 1837 : 	ASSERT( nGold >= 0 );
; 1838 : 	m_dwGold = (DWORD)nGold;

  00000	8b 44 24 04	 mov	 eax, DWORD PTR _nGold$[esp-4]
  00004	89 81 84 16 00
	00		 mov	 DWORD PTR [ecx+5764], eax

; 1839 : }

  0000a	c2 04 00	 ret	 4
?SetGold@CMover@@QAEXH@Z ENDP				; CMover::SetGold
_TEXT	ENDS
PUBLIC	?GetID@CWorld@@QAEKXZ				; CWorld::GetID
; Function compile flags: /Ogty
; File c:\documents and settings\test\mes documents\source\virtuos_v17\build\program\_common\world.h
;	COMDAT ?GetID@CWorld@@QAEKXZ
_TEXT	SEGMENT
?GetID@CWorld@@QAEKXZ PROC NEAR				; CWorld::GetID, COMDAT
; _this$ = ecx

; 413  : 	DWORD			GetID()	{ return m_dwWorldID; }

  00000	8b 01		 mov	 eax, DWORD PTR [ecx]
  00002	c3		 ret	 0
?GetID@CWorld@@QAEKXZ ENDP				; CWorld::GetID
_TEXT	ENDS
PUBLIC	?GetSize@?$CFixedArray@UtagColorText@@@@QAEHXZ	; CFixedArray<tagColorText>::GetSize
; Function compile flags: /Ogty
; File c:\documents and settings\test\mes documents\source\virtuos_v17\build\program\_common\data.h
;	COMDAT ?GetSize@?$CFixedArray@UtagColorText@@@@QAEHXZ
_TEXT	SEGMENT
?GetSize@?$CFixedArray@UtagColorText@@@@QAEHXZ PROC NEAR ; CFixedArray<tagColorText>::GetSize, COMDAT
; _this$ = ecx

; 221  : 	int  GetSize() { return m_nMaxIndex; }

  00000	8b 41 18	 mov	 eax, DWORD PTR [ecx+24]
  00003	c3		 ret	 0
?GetSize@?$CFixedArray@UtagColorText@@@@QAEHXZ ENDP	; CFixedArray<tagColorText>::GetSize
_TEXT	ENDS
PUBLIC	?GetAt@?$CFixedArray@UtagColorText@@@@QAEPAUtagColorText@@K@Z ; CFixedArray<tagColorText>::GetAt
; Function compile flags: /Ogty
;	COMDAT ?GetAt@?$CFixedArray@UtagColorText@@@@QAEPAUtagColorText@@K@Z
_TEXT	SEGMENT
_dwIndex$ = 8						; size = 4
?GetAt@?$CFixedArray@UtagColorText@@@@QAEPAUtagColorText@@K@Z PROC NEAR ; CFixedArray<tagColorText>::GetAt, COMDAT
; _this$ = ecx

; 270  : 	if( dwIndex >= (DWORD)m_nMaxIndex )

  00000	8b 44 24 04	 mov	 eax, DWORD PTR _dwIndex$[esp-4]
  00004	3b 41 18	 cmp	 eax, DWORD PTR [ecx+24]
  00007	72 05		 jb	 SHORT $L224363

; 271  : 		return NULL;

  00009	33 c0		 xor	 eax, eax

; 273  : }

  0000b	c2 04 00	 ret	 4
$L224363:

; 272  : 	return (T*) m_apOffset[ dwIndex ];

  0000e	8b 49 08	 mov	 ecx, DWORD PTR [ecx+8]
  00011	8b 04 81	 mov	 eax, DWORD PTR [ecx+eax*4]

; 273  : }

  00014	c2 04 00	 ret	 4
?GetAt@?$CFixedArray@UtagColorText@@@@QAEPAUtagColorText@@K@Z ENDP ; CFixedArray<tagColorText>::GetAt
_TEXT	ENDS
PUBLIC	??0CAIBear@@QAE@XZ				; CAIBear::CAIBear
PUBLIC	?InitAI@CAIBear@@UAEXXZ				; CAIBear::InitAI
PUBLIC	??_7CAIBear@@6B@				; CAIBear::`vftable'
PUBLIC	??_GCAIBear@@UAEPAXI@Z				; CAIBear::`scalar deleting destructor'
PUBLIC	?IsReturnToBegin@CAIInterface@@UAEHXZ		; CAIInterface::IsReturnToBegin
EXTRN	??0CTimer@@QAE@XZ:NEAR				; CTimer::CTimer
EXTRN	??_ECAIBear@@UAEPAXI@Z:NEAR			; CAIBear::`vector deleting destructor'
EXTRN	??0CAIInterface@@QAE@XZ:NEAR			; CAIInterface::CAIInterface
EXTRN	??1CAIInterface@@UAE@XZ:NEAR			; CAIInterface::~CAIInterface
EXTRN	?RouteMessage@CAIInterface@@UAEXXZ:NEAR		; CAIInterface::RouteMessage
EXTRN	?SendAIMsg@CAIInterface@@UAEXKKKK@Z:NEAR	; CAIInterface::SendAIMsg
EXTRN	?PostAIMsg@CAIInterface@@UAEXKKKK@Z:NEAR	; CAIInterface::PostAIMsg
EXTRN	?IsState@CAIInterface@@UAEHH@Z:NEAR		; CAIInterface::IsState
EXTRN	__except_list:DWORD
EXTRN	___CxxFrameHandler:NEAR
;	COMDAT xdata$x
; File c:\documents and settings\test\mes documents\source\virtuos_v17\build\program\dx_sdk\d3dx9math.h
xdata$x	SEGMENT
$T267194 DD	0ffffffffH
	DD	FLAT:$L267180
$T267191 DD	019930520H
	DD	01H
	DD	FLAT:$T267194
	DD	2 DUP(00H)
	DD	2 DUP(00H)
xdata$x	ENDS
;	COMDAT ??_7CAIBear@@6B@
CONST	SEGMENT
??_7CAIBear@@6B@ DD FLAT:?GetStateMap@CAIBear@@UBEPBUSTATEMAP@@XZ ; CAIBear::`vftable'
	DD	FLAT:??_ECAIBear@@UAEPAXI@Z
	DD	FLAT:?RouteMessage@CAIInterface@@UAEXXZ
	DD	FLAT:?SendAIMsg@CAIInterface@@UAEXKKKK@Z
	DD	FLAT:?PostAIMsg@CAIInterface@@UAEXKKKK@Z
	DD	FLAT:?InitAI@CAIBear@@UAEXXZ
	DD	FLAT:?IsReturnToBegin@CAIInterface@@UAEHXZ
	DD	FLAT:?IsState@CAIInterface@@UAEHH@Z
; Function compile flags: /Ogty
; File c:\documents and settings\test\mes documents\source\virtuos_v17\build\program\_aiinterface\aibear.cpp
CONST	ENDS
;	COMDAT ??0CAIBear@@QAE@XZ
_TEXT	SEGMENT
_this$ = -16						; size = 4
__$EHRec$ = -12						; size = 12
??0CAIBear@@QAE@XZ PROC NEAR				; CAIBear::CAIBear, COMDAT
; _this$ = ecx

; 60   : {

  00000	6a ff		 push	 -1
  00002	68 00 00 00 00	 push	 __ehhandler$??0CAIBear@@QAE@XZ
  00007	64 a1 00 00 00
	00		 mov	 eax, DWORD PTR fs:__except_list
  0000d	50		 push	 eax
  0000e	64 89 25 00 00
	00 00		 mov	 DWORD PTR fs:__except_list, esp
  00015	51		 push	 ecx
  00016	56		 push	 esi
  00017	8b f1		 mov	 esi, ecx
  00019	89 74 24 04	 mov	 DWORD PTR _this$[esp+20], esi
  0001d	e8 00 00 00 00	 call	 ??0CAIInterface@@QAE@XZ	; CAIInterface::CAIInterface
  00022	8d 4e 38	 lea	 ecx, DWORD PTR [esi+56]
  00025	c7 44 24 10 00
	00 00 00	 mov	 DWORD PTR __$EHRec$[esp+28], 0
  0002d	c7 06 00 00 00
	00		 mov	 DWORD PTR [esi], OFFSET FLAT:??_7CAIBear@@6B@
  00033	e8 00 00 00 00	 call	 ??0CTimer@@QAE@XZ	; CTimer::CTimer

; 61   : 	Init();

  00038	8b ce		 mov	 ecx, esi
  0003a	e8 00 00 00 00	 call	 ?Init@CAIBear@@AAEXXZ	; CAIBear::Init

; 62   : }

  0003f	8b 4c 24 08	 mov	 ecx, DWORD PTR __$EHRec$[esp+20]
  00043	8b c6		 mov	 eax, esi
  00045	5e		 pop	 esi
  00046	64 89 0d 00 00
	00 00		 mov	 DWORD PTR fs:__except_list, ecx
  0004d	83 c4 10	 add	 esp, 16			; 00000010H
  00050	c3		 ret	 0
_TEXT	ENDS
;	COMDAT text$x
text$x	SEGMENT
$L267180:
  00000	8b 4d f0	 mov	 ecx, DWORD PTR _this$[ebp]
  00003	e9 00 00 00 00	 jmp	 ??1CAIInterface@@UAE@XZ	; CAIInterface::~CAIInterface
__ehhandler$??0CAIBear@@QAE@XZ:
  00008	b8 00 00 00 00	 mov	 eax, OFFSET FLAT:$T267191
  0000d	e9 00 00 00 00	 jmp	 ___CxxFrameHandler
text$x	ENDS
??0CAIBear@@QAE@XZ ENDP					; CAIBear::CAIBear
; Function compile flags: /Ogty
; File c:\documents and settings\test\mes documents\source\virtuos_v17\build\program\_aiinterface\aiinterface.h
;	COMDAT ?IsReturnToBegin@CAIInterface@@UAEHXZ
_TEXT	SEGMENT
?IsReturnToBegin@CAIInterface@@UAEHXZ PROC NEAR		; CAIInterface::IsReturnToBegin, COMDAT
; _this$ = ecx

; 121  : 	virtual		BOOL	IsReturnToBegin( void )		{	return FALSE;	}

  00000	33 c0		 xor	 eax, eax
  00002	c3		 ret	 0
?IsReturnToBegin@CAIInterface@@UAEHXZ ENDP		; CAIInterface::IsReturnToBegin
_TEXT	ENDS
PUBLIC	??0CAIBear@@QAE@PAVCObj@@@Z			; CAIBear::CAIBear
EXTRN	??0CAIInterface@@QAE@PAVCObj@@@Z:NEAR		; CAIInterface::CAIInterface
;	COMDAT xdata$x
; File c:\documents and settings\test\mes documents\source\virtuos_v17\build\program\dx_sdk\d3dx9math.h
xdata$x	SEGMENT
$T267215 DD	0ffffffffH
	DD	FLAT:$L267204
$T267213 DD	019930520H
	DD	01H
	DD	FLAT:$T267215
	DD	2 DUP(00H)
	DD	2 DUP(00H)
; Function compile flags: /Ogty
; File c:\documents and settings\test\mes documents\source\virtuos_v17\build\program\_aiinterface\aibear.cpp
xdata$x	ENDS
;	COMDAT ??0CAIBear@@QAE@PAVCObj@@@Z
_TEXT	SEGMENT
_this$ = -16						; size = 4
__$EHRec$ = -12						; size = 12
_pObj$ = 8						; size = 4
??0CAIBear@@QAE@PAVCObj@@@Z PROC NEAR			; CAIBear::CAIBear, COMDAT
; _this$ = ecx

; 64   : {

  00000	6a ff		 push	 -1
  00002	68 00 00 00 00	 push	 __ehhandler$??0CAIBear@@QAE@PAVCObj@@@Z
  00007	64 a1 00 00 00
	00		 mov	 eax, DWORD PTR fs:__except_list
  0000d	50		 push	 eax
  0000e	64 89 25 00 00
	00 00		 mov	 DWORD PTR fs:__except_list, esp
  00015	51		 push	 ecx
  00016	8b 44 24 14	 mov	 eax, DWORD PTR _pObj$[esp+12]
  0001a	56		 push	 esi
  0001b	8b f1		 mov	 esi, ecx
  0001d	50		 push	 eax
  0001e	89 74 24 08	 mov	 DWORD PTR _this$[esp+24], esi
  00022	e8 00 00 00 00	 call	 ??0CAIInterface@@QAE@PAVCObj@@@Z ; CAIInterface::CAIInterface
  00027	8d 4e 38	 lea	 ecx, DWORD PTR [esi+56]
  0002a	c7 44 24 10 00
	00 00 00	 mov	 DWORD PTR __$EHRec$[esp+28], 0
  00032	c7 06 00 00 00
	00		 mov	 DWORD PTR [esi], OFFSET FLAT:??_7CAIBear@@6B@
  00038	e8 00 00 00 00	 call	 ??0CTimer@@QAE@XZ	; CTimer::CTimer

; 65   : 	Init();

  0003d	8b ce		 mov	 ecx, esi
  0003f	e8 00 00 00 00	 call	 ?Init@CAIBear@@AAEXXZ	; CAIBear::Init

; 66   : }

  00044	8b 4c 24 08	 mov	 ecx, DWORD PTR __$EHRec$[esp+20]
  00048	8b c6		 mov	 eax, esi
  0004a	5e		 pop	 esi
  0004b	64 89 0d 00 00
	00 00		 mov	 DWORD PTR fs:__except_list, ecx
  00052	83 c4 10	 add	 esp, 16			; 00000010H
  00055	c2 04 00	 ret	 4
_TEXT	ENDS
;	COMDAT text$x
text$x	SEGMENT
$L267204:
  00000	8b 4d f0	 mov	 ecx, DWORD PTR _this$[ebp]
  00003	e9 00 00 00 00	 jmp	 ??1CAIInterface@@UAE@XZ	; CAIInterface::~CAIInterface
__ehhandler$??0CAIBear@@QAE@PAVCObj@@@Z:
  00008	b8 00 00 00 00	 mov	 eax, OFFSET FLAT:$T267213
  0000d	e9 00 00 00 00	 jmp	 ___CxxFrameHandler
text$x	ENDS
??0CAIBear@@QAE@PAVCObj@@@Z ENDP			; CAIBear::CAIBear
PUBLIC	??1CAIBear@@UAE@XZ				; CAIBear::~CAIBear
; Function compile flags: /Ogty
;	COMDAT ??1CAIBear@@UAE@XZ
_TEXT	SEGMENT
??1CAIBear@@UAE@XZ PROC NEAR				; CAIBear::~CAIBear, COMDAT
; _this$ = ecx

; 69   : {

  00000	c7 01 00 00 00
	00		 mov	 DWORD PTR [ecx], OFFSET FLAT:??_7CAIBear@@6B@

; 70   : 	Destroy();
; 71   : }

  00006	c7 41 38 00 00
	00 00		 mov	 DWORD PTR [ecx+56], OFFSET FLAT:??_7CTimer@@6B@
  0000d	e9 00 00 00 00	 jmp	 ??1CAIInterface@@UAE@XZ	; CAIInterface::~CAIInterface
??1CAIBear@@UAE@XZ ENDP					; CAIBear::~CAIBear
_TEXT	ENDS
EXTRN	?Set@CTimer@@QAEXMH@Z:NEAR			; CTimer::Set
; Function compile flags: /Ogty
;	COMDAT ?InitAI@CAIBear@@UAEXXZ
_TEXT	SEGMENT
?InitAI@CAIBear@@UAEXXZ PROC NEAR			; CAIBear::InitAI, COMDAT
; _this$ = ecx

; 93   : {

  00000	56		 push	 esi
  00001	8b f1		 mov	 esi, ecx

; 94   : 	m_cTimeBuff.Set( SEC(30) );

  00003	6a 00		 push	 0
  00005	68 00 60 ea 46	 push	 1189765120		; 46ea6000H
  0000a	8d 4e 38	 lea	 ecx, DWORD PTR [esi+56]
  0000d	e8 00 00 00 00	 call	 ?Set@CTimer@@QAEXMH@Z	; CTimer::Set

; 95   : 	m_vPosBegin = GetMover()->GetPos();

  00012	8b 46 30	 mov	 eax, DWORD PTR [esi+48]
  00015	05 60 01 00 00	 add	 eax, 352		; 00000160H
  0001a	8b 10		 mov	 edx, DWORD PTR [eax]
  0001c	8d 4e 6c	 lea	 ecx, DWORD PTR [esi+108]
  0001f	89 11		 mov	 DWORD PTR [ecx], edx
  00021	8b 50 04	 mov	 edx, DWORD PTR [eax+4]

; 96   : 	PostAIMsg( AIMSG_SETSTATE, STATE_RAGE, NULL_ID );	//   .

  00024	6a 00		 push	 0
  00026	89 51 04	 mov	 DWORD PTR [ecx+4], edx
  00029	8b 40 08	 mov	 eax, DWORD PTR [eax+8]
  0002c	8b 16		 mov	 edx, DWORD PTR [esi]
  0002e	6a ff		 push	 -1
  00030	6a 04		 push	 4
  00032	89 41 08	 mov	 DWORD PTR [ecx+8], eax
  00035	6a 04		 push	 4
  00037	8b ce		 mov	 ecx, esi
  00039	ff 52 10	 call	 DWORD PTR [edx+16]
  0003c	5e		 pop	 esi

; 97   : #ifdef __INTERNALSERVER
; 98   : 	DEBUGOUT2( "CAIBear start" );
; 99   : #endif
; 100  : }

  0003d	c3		 ret	 0
?InitAI@CAIBear@@UAEXXZ ENDP				; CAIBear::InitAI
_TEXT	ENDS
PUBLIC	?StateIdle@CAIBear@@QAEHABUAIMSG@@@Z		; CAIBear::StateIdle
; Function compile flags: /Ogty
;	COMDAT ?StateIdle@CAIBear@@QAEHABUAIMSG@@@Z
_TEXT	SEGMENT
_msg$ = 8						; size = 4
?StateIdle@CAIBear@@QAEHABUAIMSG@@@Z PROC NEAR		; CAIBear::StateIdle, COMDAT
; _this$ = ecx

; 126  : 	CMover* pMover = GetMover();
; 127  : 	CWorld* pWorld = GetWorld();
; 128  : 	
; 129  : 	BeginAIHandler( )
; 130  : 		
; 131  : 	///////////////////////////////////////////////////////////////////////////////////////////////////
; 132  : 	OnMessage( AIMSG_INIT ) 

  00000	8b 44 24 04	 mov	 eax, DWORD PTR _msg$[esp-4]
  00004	8b 00		 mov	 eax, DWORD PTR [eax]
  00006	83 f8 01	 cmp	 eax, 1
  00009	75 15		 jne	 SHORT $L261727

; 145  : 		SendAIMsg( AIMSG_EXIT );

  0000b	8b 11		 mov	 edx, DWORD PTR [ecx]
  0000d	6a 00		 push	 0
  0000f	6a ff		 push	 -1
  00011	6a 04		 push	 4
  00013	6a 04		 push	 4
  00015	ff 52 0c	 call	 DWORD PTR [edx+12]

; 146  : 	
; 147  : 	///////////////////////////////////////////////////////////////////////////////////////////////////
; 148  : 	OnMessage( AIMSG_COLLISION )
; 149  : 	
; 150  : 	///////////////////////////////////////////////////////////////////////////////////////////////////
; 151  : 	OnMessage( AIMSG_ARRIVAL )
; 152  : 		
; 153  : 		///////////////////////////////////////////////////////////////////////////////////////////////////
; 154  : 	OnMessage( AIMSG_EXIT )	

  00018	b8 01 00 00 00	 mov	 eax, 1

; 155  : //		SendAIMsg( AIMSG_SETPROCESS, FALSE );
; 156  : 		
; 157  : 	EndAIHandler( )
; 158  : 			return TRUE;
; 159  : }

  0001d	c2 04 00	 ret	 4
$L261727:

; 133  : ////		SendAIMsg( AIMSG_SETPROCESS, TRUE );
; 134  : 		SendAIMsg( AIMSG_SETSTATE, STATE_RAGE, NULL_ID );	//  IDLE .   .
; 135  : 	///////////////////////////////////////////////////////////////////////////////////////////////////
; 136  : 	OnMessage( AIMSG_PROCESS ) 

  00020	83 f8 02	 cmp	 eax, 2

; 137  : 		MoveProcessIdle();
; 138  : 	
; 139  : 	///////////////////////////////////////////////////////////////////////////////////////////////////
; 140  : 	OnMessage( AIMSG_DAMAGE ) 

  00023	74 2c		 je	 SHORT $L261737
  00025	83 f8 08	 cmp	 eax, 8
  00028	75 15		 jne	 SHORT $L261731

; 141  : 		SendAIMsg( AIMSG_SETSTATE, STATE_RAGE, NULL_ID );

  0002a	8b 01		 mov	 eax, DWORD PTR [ecx]
  0002c	6a 00		 push	 0
  0002e	6a ff		 push	 -1
  00030	6a 04		 push	 4
  00032	6a 04		 push	 4
  00034	ff 50 0c	 call	 DWORD PTR [eax+12]

; 146  : 	
; 147  : 	///////////////////////////////////////////////////////////////////////////////////////////////////
; 148  : 	OnMessage( AIMSG_COLLISION )
; 149  : 	
; 150  : 	///////////////////////////////////////////////////////////////////////////////////////////////////
; 151  : 	OnMessage( AIMSG_ARRIVAL )
; 152  : 		
; 153  : 		///////////////////////////////////////////////////////////////////////////////////////////////////
; 154  : 	OnMessage( AIMSG_EXIT )	

  00037	b8 01 00 00 00	 mov	 eax, 1

; 155  : //		SendAIMsg( AIMSG_SETPROCESS, FALSE );
; 156  : 		
; 157  : 	EndAIHandler( )
; 158  : 			return TRUE;
; 159  : }

  0003c	c2 04 00	 ret	 4
$L261731:

; 142  : 	
; 143  : 	///////////////////////////////////////////////////////////////////////////////////////////////////
; 144  : 	OnMessage( AIMSG_DIE ) 

  0003f	83 f8 09	 cmp	 eax, 9
  00042	75 0d		 jne	 SHORT $L261737

; 145  : 		SendAIMsg( AIMSG_EXIT );

  00044	8b 11		 mov	 edx, DWORD PTR [ecx]
  00046	6a 00		 push	 0
  00048	6a 00		 push	 0
  0004a	6a 00		 push	 0
  0004c	6a 12		 push	 18			; 00000012H
  0004e	ff 52 0c	 call	 DWORD PTR [edx+12]
$L261737:

; 146  : 	
; 147  : 	///////////////////////////////////////////////////////////////////////////////////////////////////
; 148  : 	OnMessage( AIMSG_COLLISION )
; 149  : 	
; 150  : 	///////////////////////////////////////////////////////////////////////////////////////////////////
; 151  : 	OnMessage( AIMSG_ARRIVAL )
; 152  : 		
; 153  : 		///////////////////////////////////////////////////////////////////////////////////////////////////
; 154  : 	OnMessage( AIMSG_EXIT )	

  00051	b8 01 00 00 00	 mov	 eax, 1

; 155  : //		SendAIMsg( AIMSG_SETPROCESS, FALSE );
; 156  : 		
; 157  : 	EndAIHandler( )
; 158  : 			return TRUE;
; 159  : }

  00056	c2 04 00	 ret	 4
?StateIdle@CAIBear@@QAEHABUAIMSG@@@Z ENDP		; CAIBear::StateIdle
_TEXT	ENDS
PUBLIC	__real@41200000
PUBLIC	?SelectTarget@CAIBear@@AAEHXZ			; CAIBear::SelectTarget
EXTRN	?GetRadiusXZ@CObj@@QAEMXZ:NEAR			; CObj::GetRadiusXZ
EXTRN	?GetJob@CMover@@QAEHXZ:NEAR			; CMover::GetJob
EXTRN	?ScanTarget@CAIInterface@@IAEPAVCMover@@PAVCObj@@HHKKH@Z:NEAR ; CAIInterface::ScanTarget
EXTRN	?ScanTargetStrong@CAIInterface@@IAEPAVCMover@@PAVCObj@@M@Z:NEAR ; CAIInterface::ScanTargetStrong
EXTRN	?ScanTargetOverHealer@CAIInterface@@IAEPAVCMover@@PAVCObj@@M@Z:NEAR ; CAIInterface::ScanTargetOverHealer
;	COMDAT __real@41200000
; File c:\documents and settings\test\mes documents\source\virtuos_v17\build\program\_common\ctrl.h
CONST	SEGMENT
__real@41200000 DD 041200000r			; 10
; Function compile flags: /Ogty
; File c:\documents and settings\test\mes documents\source\virtuos_v17\build\program\_aiinterface\aibear.cpp
CONST	ENDS
;	COMDAT ?SelectTarget@CAIBear@@AAEHXZ
_TEXT	SEGMENT
_fRadiusSq$ = -28					; size = 4
$T267262 = -24						; size = 12
$T267263 = -12						; size = 12
?SelectTarget@CAIBear@@AAEHXZ PROC NEAR			; CAIBear::SelectTarget, COMDAT
; _this$ = ecx

; 162  : {

  00000	83 ec 1c	 sub	 esp, 28			; 0000001cH
  00003	53		 push	 ebx
  00004	55		 push	 ebp
  00005	56		 push	 esi
  00006	8b f1		 mov	 esi, ecx
  00008	57		 push	 edi

; 163  : 	CMover	*pMover = GetMover();

  00009	8b 7e 30	 mov	 edi, DWORD PTR [esi+48]

; 164  : 	CWorld	*pWorld = GetWorld();
; 165  : 	CModelObject *pModel = (CModelObject *)pMover->GetModel();
; 166  : 
; 167  : 	FLOAT fRadius = pMover->GetRadiusXZ();		// this 

  0000c	8b cf		 mov	 ecx, edi
  0000e	e8 00 00 00 00	 call	 ?GetRadiusXZ@CObj@@QAEMXZ ; CObj::GetRadiusXZ

; 168  : 	FLOAT fRadiusSq = fRadius * fRadius;		// Sq.

  00013	d9 c0		 fld	 ST(0)

; 169  : 	
; 170  : 	CMover *pLastAttacker = prj.GetMover( m_idLastAttacker );

  00015	8b 86 a4 00 00
	00		 mov	 eax, DWORD PTR [esi+164]
  0001b	d8 c9		 fmul	 ST(0), ST(1)
  0001d	50		 push	 eax
  0001e	b9 00 00 00 00	 mov	 ecx, OFFSET FLAT:?prj@@3VCProject@@A
  00023	d9 5c 24 14	 fstp	 DWORD PTR _fRadiusSq$[esp+48]
  00027	dd d8		 fstp	 ST(0)
  00029	e8 00 00 00 00	 call	 ?GetMover@CProject@@QAEPAVCMover@@K@Z ; CProject::GetMover
  0002e	8b c8		 mov	 ecx, eax

; 171  : 	if( pLastAttacker == NULL || (pLastAttacker && pLastAttacker->IsDie()) )			// LastAttacker       .

  00030	33 db		 xor	 ebx, ebx
  00032	83 ca ff	 or	 edx, -1
  00035	3b cb		 cmp	 ecx, ebx
  00037	0f 84 8c 00 00
	00		 je	 $L261752
  0003d	8b 81 3c 02 00
	00		 mov	 eax, DWORD PTR [ecx+572]
  00043	f7 40 04 00 00
	00 08		 test	 DWORD PTR [eax+4], 134217728 ; 08000000H
  0004a	75 7d		 jne	 SHORT $L261752
  0004c	39 99 00 06 00
	00		 cmp	 DWORD PTR [ecx+1536], ebx
  00052	74 75		 je	 SHORT $L261752

; 175  : 	} else
; 176  : 	{		
; 177  : 		D3DXVECTOR3 vDist = pLastAttacker->GetPos() - pMover->GetPos();

  00054	8d 87 60 01 00
	00		 lea	 eax, DWORD PTR [edi+352]
  0005a	8b 28		 mov	 ebp, DWORD PTR [eax]
  0005c	89 6c 24 20	 mov	 DWORD PTR $T267263[esp+44], ebp
  00060	8b 68 04	 mov	 ebp, DWORD PTR [eax+4]
  00063	8b 40 08	 mov	 eax, DWORD PTR [eax+8]
  00066	89 44 24 28	 mov	 DWORD PTR $T267263[esp+52], eax
  0006a	89 6c 24 24	 mov	 DWORD PTR $T267263[esp+48], ebp
  0006e	8d 81 60 01 00
	00		 lea	 eax, DWORD PTR [ecx+352]
  00074	8b 28		 mov	 ebp, DWORD PTR [eax]
  00076	89 6c 24 14	 mov	 DWORD PTR $T267262[esp+44], ebp
  0007a	d9 44 24 14	 fld	 DWORD PTR $T267262[esp+44]
  0007e	d8 64 24 20	 fsub	 DWORD PTR $T267263[esp+44]
  00082	8b 68 04	 mov	 ebp, DWORD PTR [eax+4]
  00085	8b 40 08	 mov	 eax, DWORD PTR [eax+8]
  00088	89 6c 24 18	 mov	 DWORD PTR $T267262[esp+48], ebp
  0008c	d9 44 24 18	 fld	 DWORD PTR $T267262[esp+48]
  00090	d8 64 24 24	 fsub	 DWORD PTR $T267263[esp+48]
  00094	89 44 24 1c	 mov	 DWORD PTR $T267262[esp+52], eax
  00098	d9 44 24 1c	 fld	 DWORD PTR $T267262[esp+52]
  0009c	d8 64 24 28	 fsub	 DWORD PTR $T267263[esp+52]

; 178  : 		FLOAT fDistSq = D3DXVec3LengthSq( &vDist );		//  .

  000a0	d9 c0		 fld	 ST(0)
  000a2	d8 c9		 fmul	 ST(0), ST(1)
  000a4	d9 c2		 fld	 ST(2)
  000a6	d8 cb		 fmul	 ST(0), ST(3)

; 275  : 		}
; 276  : #ifdef __INTERNALSERVER
; 277  : 		{
; 278  : 			CMover *pTarget = prj.GetMover( m_idTarget );
; 279  : 			CMover *pMover = prj.GetMover( m_idLastAttacker );
; 280  : 			CString str;
; 281  : 			if( pMover )
; 282  : 			{
; 283  : 				if( pTarget )
; 284  : 					str.Format( "rand:%d LastAttacker:%s SelectTarget:%s", dwNum, pMover->GetName(), pTarget->GetName() );
; 285  : 				else
; 286  : 					str.Format( "rand:%d LastAttacker:%s SelectTarget:%s", dwNum, pMover->GetName(), "" );
; 287  : 				DEBUGOUT2( str, "boss(CAIBear).txt" );
; 288  : 			} else
; 289  : 			{
; 290  : 				if( pTarget )
; 291  : 					str.Format( "rand:%d LastAttacker:%s SelectTarget:%s", dwNum, ".", pTarget->GetName() );
; 292  : 				else
; 293  : 					str.Format( "rand:%d LastAttacker:%s SelectTarget:%s", dwNum, ".", "" );
; 294  : 				
; 295  : 				DEBUGOUT2( str, "boss(CAIBear).txt" );
; 296  : 			}
; 297  : 
; 298  : 		}
; 299  : #endif
; 300  : 	}
; 301  : 
; 302  : 	//   .
; 303  : 	// .    - 50%. -    .
; 304  : 	// .  (      ) - 25%
; 305  : 	// .   - 25%.
; 306  : 	// .     . - 10% -   
; 307  : 
; 308  : 	return TRUE;

  000a8	de c1		 faddp	 ST(1), ST(0)
  000aa	d9 c3		 fld	 ST(3)
  000ac	d8 cc		 fmul	 ST(0), ST(4)
  000ae	de c1		 faddp	 ST(1), ST(0)
  000b0	d9 44 24 10	 fld	 DWORD PTR _fRadiusSq$[esp+44]
  000b4	d8 0d 00 00 00
	00		 fmul	 DWORD PTR __real@41200000
  000ba	de d9		 fcompp
  000bc	dd d8		 fstp	 ST(0)
  000be	df e0		 fnstsw	 ax
  000c0	dd d8		 fstp	 ST(0)
  000c2	f6 c4 41	 test	 ah, 65			; 00000041H
  000c5	dd d8		 fstp	 ST(0)
  000c7	7a 08		 jp	 SHORT $L261759
$L261752:

; 172  : 	{
; 173  : 		m_idLastAttacker = NULL_ID;

  000c9	89 96 a4 00 00
	00		 mov	 DWORD PTR [esi+164], edx

; 174  : 		pLastAttacker = NULL;

  000cf	33 c9		 xor	 ecx, ecx
$L261759:

; 179  : 		if( fDistSq >= fRadiusSq * 10.0f )				//    10 
; 180  : 		{
; 181  : 			//  
; 182  : #ifdef __INTERNALSERVER
; 183  : 			CString str;
; 184  : 			str.Format( "LastAtker(%s)  (%5.2f) ", pLastAttacker->GetName(), sqrt(fDistSq) );
; 185  : 			DEBUGOUT2( str, "boss(CAIBear).txt" );
; 186  : #endif
; 187  : 			
; 188  : 			m_idLastAttacker = NULL_ID;
; 189  : 			pLastAttacker = NULL;
; 190  : 		}
; 191  : 	}
; 192  : 
; 193  : 
; 194  : 	m_idTarget = NULL_ID;
; 195  : 	m_vTarget.x = m_vTarget.y = m_vTarget.z = 0;	//    .
; 196  : 
; 197  : 	if( m_idLastAttacker == NULL_ID )		//    .

  000d1	39 96 a4 00 00
	00		 cmp	 DWORD PTR [esi+164], edx
  000d7	89 96 90 00 00
	00		 mov	 DWORD PTR [esi+144], edx
  000dd	89 9e 9c 00 00
	00		 mov	 DWORD PTR [esi+156], ebx
  000e3	89 9e 98 00 00
	00		 mov	 DWORD PTR [esi+152], ebx
  000e9	89 9e 94 00 00
	00		 mov	 DWORD PTR [esi+148], ebx
  000ef	75 4b		 jne	 SHORT $L261760

; 198  : 	{
; 199  : 		CMover* pTarget = NULL;
; 200  : 		pTarget = ScanTarget( pMover, 40, JOB_ALL );		// 40   .

  000f1	53		 push	 ebx
  000f2	53		 push	 ebx
  000f3	53		 push	 ebx
  000f4	6a 28		 push	 40			; 00000028H
  000f6	6a 28		 push	 40			; 00000028H
  000f8	57		 push	 edi
  000f9	8b ce		 mov	 ecx, esi
  000fb	e8 00 00 00 00	 call	 ?ScanTarget@CAIInterface@@IAEPAVCMover@@PAVCObj@@HHKKH@Z ; CAIInterface::ScanTarget

; 201  : 		if( pTarget )

  00100	3b c3		 cmp	 eax, ebx
  00102	74 2e		 je	 SHORT $L261762

; 202  : 		{
; 203  : 			// this   ||    .
; 204  : 			if( pMover->IsFlyingNPC() || pTarget->m_pActMover->IsFly() == FALSE )	

  00104	f6 87 42 02 00
	00 01		 test	 BYTE PTR [edi+578], 1
  0010b	75 0c		 jne	 SHORT $L261764
  0010d	8b 88 3c 02 00
	00		 mov	 ecx, DWORD PTR [eax+572]
  00113	f6 41 08 08	 test	 BYTE PTR [ecx+8], 8

; 207  : #ifdef __INTERNALSERVER
; 208  : 				CString str;
; 209  : 				str.Format( "scanTarget:%s", pTarget->GetName() );
; 210  : 				DEBUGOUT2( str, "boss(CAIBear).txt" );
; 211  : #endif
; 212  : 				
; 213  : 			}
; 214  : 			else
; 215  : 				return FALSE;		//    . -   .

  00117	75 19		 jne	 SHORT $L261762
$L261764:

; 205  : 			{
; 206  : 				m_idTarget = pTarget->GetId();

  00119	8b 90 bc 01 00
	00		 mov	 edx, DWORD PTR [eax+444]
  0011f	5f		 pop	 edi

; 273  : 			} else
; 274  : 				m_idTarget = m_idLastAttacker;		//       .

  00120	89 96 90 00 00
	00		 mov	 DWORD PTR [esi+144], edx
  00126	5e		 pop	 esi
  00127	5d		 pop	 ebp

; 275  : 		}
; 276  : #ifdef __INTERNALSERVER
; 277  : 		{
; 278  : 			CMover *pTarget = prj.GetMover( m_idTarget );
; 279  : 			CMover *pMover = prj.GetMover( m_idLastAttacker );
; 280  : 			CString str;
; 281  : 			if( pMover )
; 282  : 			{
; 283  : 				if( pTarget )
; 284  : 					str.Format( "rand:%d LastAttacker:%s SelectTarget:%s", dwNum, pMover->GetName(), pTarget->GetName() );
; 285  : 				else
; 286  : 					str.Format( "rand:%d LastAttacker:%s SelectTarget:%s", dwNum, pMover->GetName(), "" );
; 287  : 				DEBUGOUT2( str, "boss(CAIBear).txt" );
; 288  : 			} else
; 289  : 			{
; 290  : 				if( pTarget )
; 291  : 					str.Format( "rand:%d LastAttacker:%s SelectTarget:%s", dwNum, ".", pTarget->GetName() );
; 292  : 				else
; 293  : 					str.Format( "rand:%d LastAttacker:%s SelectTarget:%s", dwNum, ".", "" );
; 294  : 				
; 295  : 				DEBUGOUT2( str, "boss(CAIBear).txt" );
; 296  : 			}
; 297  : 
; 298  : 		}
; 299  : #endif
; 300  : 	}
; 301  : 
; 302  : 	//   .
; 303  : 	// .    - 50%. -    .
; 304  : 	// .  (      ) - 25%
; 305  : 	// .   - 25%.
; 306  : 	// .     . - 10% -   
; 307  : 
; 308  : 	return TRUE;

  00128	b8 01 00 00 00	 mov	 eax, 1
  0012d	5b		 pop	 ebx

; 309  : }

  0012e	83 c4 1c	 add	 esp, 28			; 0000001cH
  00131	c3		 ret	 0
$L261762:
  00132	5f		 pop	 edi
  00133	5e		 pop	 esi
  00134	5d		 pop	 ebp

; 216  : 		} else
; 217  : 			return FALSE;

  00135	33 c0		 xor	 eax, eax
  00137	5b		 pop	 ebx

; 309  : }

  00138	83 c4 1c	 add	 esp, 28			; 0000001cH
  0013b	c3		 ret	 0
$L261760:

; 218  : 	} else
; 219  : 	//    .
; 220  : 	{
; 221  : 		DWORD dwNum = xRandom( 100 );		// 0 ~ 99 .

  0013c	a1 00 00 00 00	 mov	 eax, DWORD PTR ?g_next@@3KA ; g_next
  00141	69 c0 6d 4e c6
	41		 imul	 eax, 1103515245		; 41c64e6dH
  00147	05 39 30 00 00	 add	 eax, 12345		; 00003039H
  0014c	33 d2		 xor	 edx, edx
  0014e	bb 64 00 00 00	 mov	 ebx, 100		; 00000064H
  00153	a3 00 00 00 00	 mov	 DWORD PTR ?g_next@@3KA, eax ; g_next
  00158	f7 f3		 div	 ebx

; 222  : 		DWORD dwAggroRate = 50;
; 223  : 		
; 224  : 		if( IsValidObj( pLastAttacker ) )

  0015a	85 c9		 test	 ecx, ecx
  0015c	bb 32 00 00 00	 mov	 ebx, 50			; 00000032H
  00161	8b ea		 mov	 ebp, edx
  00163	74 15		 je	 SHORT $L267366
  00165	f6 41 04 01	 test	 BYTE PTR [ecx+4], 1
  00169	75 0f		 jne	 SHORT $L267366

; 225  : 		{
; 226  : 			if( pLastAttacker->GetJob() == JOB_MERCENARY )		//       .

  0016b	e8 00 00 00 00	 call	 ?GetJob@CMover@@QAEHXZ	; CMover::GetJob
  00170	83 f8 01	 cmp	 eax, 1
  00173	75 05		 jne	 SHORT $L267366

; 227  : 				dwAggroRate = 70;

  00175	bb 46 00 00 00	 mov	 ebx, 70			; 00000046H
$L267366:

; 228  : 		}
; 229  : 		if( dwNum < dwAggroRate )		

  0017a	3b eb		 cmp	 ebp, ebx

; 230  : 		{
; 231  : 			// dwAggroRate%     .
; 232  : 			m_idTarget = m_idLastAttacker;		//     .
; 233  : 		} else

  0017c	0f 82 8c 00 00
	00		 jb	 $L267368

; 234  : 		if( dwNum < 75 )

  00182	83 fd 4b	 cmp	 ebp, 75			; 0000004bH
  00185	73 5c		 jae	 SHORT $L261774

; 235  : 		{
; 236  : 			// 50    .
; 237  : 			CMover *pTarget = ScanTargetStrong( pMover, 50 );		

  00187	68 00 00 48 42	 push	 1112014848		; 42480000H
  0018c	57		 push	 edi
  0018d	8b ce		 mov	 ecx, esi
  0018f	e8 00 00 00 00	 call	 ?ScanTargetStrong@CAIInterface@@IAEPAVCMover@@PAVCObj@@M@Z ; CAIInterface::ScanTargetStrong

; 238  : 			if( pTarget )

  00194	85 c0		 test	 eax, eax
  00196	74 32		 je	 SHORT $L261776

; 239  : 			{
; 240  : 				// this   ||    .
; 241  : 				if( pMover->IsFlyingNPC() || pTarget->m_pActMover->IsFly() == FALSE )	

  00198	f6 87 42 02 00
	00 01		 test	 BYTE PTR [edi+578], 1
  0019f	75 10		 jne	 SHORT $L261778
  001a1	8b 88 3c 02 00
	00		 mov	 ecx, DWORD PTR [eax+572]
  001a7	f6 41 08 08	 test	 BYTE PTR [ecx+8], 8

; 244  : #ifdef __INTERNALSERVER
; 245  : 					CString str;
; 246  : 					str.Format( "Leader:%s %d", pTarget->GetName(), pTarget->GetLevel() );
; 247  : 					DEBUGOUT2( str, "boss(CAIBear).txt" );
; 248  : #endif
; 249  : 				}
; 250  : 				else
; 251  : 					m_idTarget = m_idLastAttacker;		//       .

  001ab	0f 85 8f 00 00
	00		 jne	 $L261784
$L261778:

; 242  : 				{
; 243  : 					m_idTarget = pTarget->GetId();

  001b1	8b 80 bc 01 00
	00		 mov	 eax, DWORD PTR [eax+444]
  001b7	5f		 pop	 edi
  001b8	89 86 90 00 00
	00		 mov	 DWORD PTR [esi+144], eax
  001be	5e		 pop	 esi
  001bf	5d		 pop	 ebp

; 275  : 		}
; 276  : #ifdef __INTERNALSERVER
; 277  : 		{
; 278  : 			CMover *pTarget = prj.GetMover( m_idTarget );
; 279  : 			CMover *pMover = prj.GetMover( m_idLastAttacker );
; 280  : 			CString str;
; 281  : 			if( pMover )
; 282  : 			{
; 283  : 				if( pTarget )
; 284  : 					str.Format( "rand:%d LastAttacker:%s SelectTarget:%s", dwNum, pMover->GetName(), pTarget->GetName() );
; 285  : 				else
; 286  : 					str.Format( "rand:%d LastAttacker:%s SelectTarget:%s", dwNum, pMover->GetName(), "" );
; 287  : 				DEBUGOUT2( str, "boss(CAIBear).txt" );
; 288  : 			} else
; 289  : 			{
; 290  : 				if( pTarget )
; 291  : 					str.Format( "rand:%d LastAttacker:%s SelectTarget:%s", dwNum, ".", pTarget->GetName() );
; 292  : 				else
; 293  : 					str.Format( "rand:%d LastAttacker:%s SelectTarget:%s", dwNum, ".", "" );
; 294  : 				
; 295  : 				DEBUGOUT2( str, "boss(CAIBear).txt" );
; 296  : 			}
; 297  : 
; 298  : 		}
; 299  : #endif
; 300  : 	}
; 301  : 
; 302  : 	//   .
; 303  : 	// .    - 50%. -    .
; 304  : 	// .  (      ) - 25%
; 305  : 	// .   - 25%.
; 306  : 	// .     . - 10% -   
; 307  : 
; 308  : 	return TRUE;

  001c0	b8 01 00 00 00	 mov	 eax, 1
  001c5	5b		 pop	 ebx

; 309  : }

  001c6	83 c4 1c	 add	 esp, 28			; 0000001cH
  001c9	c3		 ret	 0
$L261776:

; 252  : 			} else
; 253  : 				m_idTarget = m_idLastAttacker;		//       .

  001ca	8b 8e a4 00 00
	00		 mov	 ecx, DWORD PTR [esi+164]
  001d0	5f		 pop	 edi
  001d1	89 8e 90 00 00
	00		 mov	 DWORD PTR [esi+144], ecx
  001d7	5e		 pop	 esi
  001d8	5d		 pop	 ebp

; 275  : 		}
; 276  : #ifdef __INTERNALSERVER
; 277  : 		{
; 278  : 			CMover *pTarget = prj.GetMover( m_idTarget );
; 279  : 			CMover *pMover = prj.GetMover( m_idLastAttacker );
; 280  : 			CString str;
; 281  : 			if( pMover )
; 282  : 			{
; 283  : 				if( pTarget )
; 284  : 					str.Format( "rand:%d LastAttacker:%s SelectTarget:%s", dwNum, pMover->GetName(), pTarget->GetName() );
; 285  : 				else
; 286  : 					str.Format( "rand:%d LastAttacker:%s SelectTarget:%s", dwNum, pMover->GetName(), "" );
; 287  : 				DEBUGOUT2( str, "boss(CAIBear).txt" );
; 288  : 			} else
; 289  : 			{
; 290  : 				if( pTarget )
; 291  : 					str.Format( "rand:%d LastAttacker:%s SelectTarget:%s", dwNum, ".", pTarget->GetName() );
; 292  : 				else
; 293  : 					str.Format( "rand:%d LastAttacker:%s SelectTarget:%s", dwNum, ".", "" );
; 294  : 				
; 295  : 				DEBUGOUT2( str, "boss(CAIBear).txt" );
; 296  : 			}
; 297  : 
; 298  : 		}
; 299  : #endif
; 300  : 	}
; 301  : 
; 302  : 	//   .
; 303  : 	// .    - 50%. -    .
; 304  : 	// .  (      ) - 25%
; 305  : 	// .   - 25%.
; 306  : 	// .     . - 10% -   
; 307  : 
; 308  : 	return TRUE;

  001d9	b8 01 00 00 00	 mov	 eax, 1
  001de	5b		 pop	 ebx

; 309  : }

  001df	83 c4 1c	 add	 esp, 28			; 0000001cH
  001e2	c3		 ret	 0
$L261774:

; 254  : 		} else
; 255  : 		if( dwNum < 100 )

  001e3	83 fd 64	 cmp	 ebp, 100		; 00000064H
  001e6	73 64		 jae	 SHORT $L261788

; 256  : 		{
; 257  : 			//   .
; 258  : 			CMover *pTarget = ScanTargetOverHealer( pMover, 50 );		

  001e8	68 00 00 48 42	 push	 1112014848		; 42480000H
  001ed	57		 push	 edi
  001ee	8b ce		 mov	 ecx, esi
  001f0	e8 00 00 00 00	 call	 ?ScanTargetOverHealer@CAIInterface@@IAEPAVCMover@@PAVCObj@@M@Z ; CAIInterface::ScanTargetOverHealer

; 259  : 			if( pTarget )

  001f5	85 c0		 test	 eax, eax
  001f7	74 47		 je	 SHORT $L261784

; 260  : 			{
; 261  : 				// this   ||    .
; 262  : 				if( pMover->IsFlyingNPC() || pTarget->m_pActMover->IsFly() == FALSE )	

  001f9	f6 87 42 02 00
	00 01		 test	 BYTE PTR [edi+578], 1
  00200	75 25		 jne	 SHORT $L261786
  00202	8b 90 3c 02 00
	00		 mov	 edx, DWORD PTR [eax+572]
  00208	f6 42 08 08	 test	 BYTE PTR [edx+8], 8
  0020c	74 19		 je	 SHORT $L261786
$L267368:

; 265  : #ifdef __INTERNALSERVER
; 266  : 					CString str;
; 267  : 					str.Format( "OverHealer:%s", pTarget->GetName() );
; 268  : 					DEBUGOUT2( str, "boss(CAIBear).txt" );
; 269  : #endif
; 270  : 				}
; 271  : 				else
; 272  : 					m_idTarget = m_idLastAttacker;		//       .

  0020e	8b 86 a4 00 00
	00		 mov	 eax, DWORD PTR [esi+164]
  00214	5f		 pop	 edi
  00215	89 86 90 00 00
	00		 mov	 DWORD PTR [esi+144], eax
  0021b	5e		 pop	 esi
  0021c	5d		 pop	 ebp

; 275  : 		}
; 276  : #ifdef __INTERNALSERVER
; 277  : 		{
; 278  : 			CMover *pTarget = prj.GetMover( m_idTarget );
; 279  : 			CMover *pMover = prj.GetMover( m_idLastAttacker );
; 280  : 			CString str;
; 281  : 			if( pMover )
; 282  : 			{
; 283  : 				if( pTarget )
; 284  : 					str.Format( "rand:%d LastAttacker:%s SelectTarget:%s", dwNum, pMover->GetName(), pTarget->GetName() );
; 285  : 				else
; 286  : 					str.Format( "rand:%d LastAttacker:%s SelectTarget:%s", dwNum, pMover->GetName(), "" );
; 287  : 				DEBUGOUT2( str, "boss(CAIBear).txt" );
; 288  : 			} else
; 289  : 			{
; 290  : 				if( pTarget )
; 291  : 					str.Format( "rand:%d LastAttacker:%s SelectTarget:%s", dwNum, ".", pTarget->GetName() );
; 292  : 				else
; 293  : 					str.Format( "rand:%d LastAttacker:%s SelectTarget:%s", dwNum, ".", "" );
; 294  : 				
; 295  : 				DEBUGOUT2( str, "boss(CAIBear).txt" );
; 296  : 			}
; 297  : 
; 298  : 		}
; 299  : #endif
; 300  : 	}
; 301  : 
; 302  : 	//   .
; 303  : 	// .    - 50%. -    .
; 304  : 	// .  (      ) - 25%
; 305  : 	// .   - 25%.
; 306  : 	// .     . - 10% -   
; 307  : 
; 308  : 	return TRUE;

  0021d	b8 01 00 00 00	 mov	 eax, 1
  00222	5b		 pop	 ebx

; 309  : }

  00223	83 c4 1c	 add	 esp, 28			; 0000001cH
  00226	c3		 ret	 0
$L261786:

; 263  : 				{
; 264  : 					m_idTarget = pTarget->GetId();

  00227	8b 88 bc 01 00
	00		 mov	 ecx, DWORD PTR [eax+444]
  0022d	5f		 pop	 edi
  0022e	89 8e 90 00 00
	00		 mov	 DWORD PTR [esi+144], ecx
  00234	5e		 pop	 esi
  00235	5d		 pop	 ebp

; 275  : 		}
; 276  : #ifdef __INTERNALSERVER
; 277  : 		{
; 278  : 			CMover *pTarget = prj.GetMover( m_idTarget );
; 279  : 			CMover *pMover = prj.GetMover( m_idLastAttacker );
; 280  : 			CString str;
; 281  : 			if( pMover )
; 282  : 			{
; 283  : 				if( pTarget )
; 284  : 					str.Format( "rand:%d LastAttacker:%s SelectTarget:%s", dwNum, pMover->GetName(), pTarget->GetName() );
; 285  : 				else
; 286  : 					str.Format( "rand:%d LastAttacker:%s SelectTarget:%s", dwNum, pMover->GetName(), "" );
; 287  : 				DEBUGOUT2( str, "boss(CAIBear).txt" );
; 288  : 			} else
; 289  : 			{
; 290  : 				if( pTarget )
; 291  : 					str.Format( "rand:%d LastAttacker:%s SelectTarget:%s", dwNum, ".", pTarget->GetName() );
; 292  : 				else
; 293  : 					str.Format( "rand:%d LastAttacker:%s SelectTarget:%s", dwNum, ".", "" );
; 294  : 				
; 295  : 				DEBUGOUT2( str, "boss(CAIBear).txt" );
; 296  : 			}
; 297  : 
; 298  : 		}
; 299  : #endif
; 300  : 	}
; 301  : 
; 302  : 	//   .
; 303  : 	// .    - 50%. -    .
; 304  : 	// .  (      ) - 25%
; 305  : 	// .   - 25%.
; 306  : 	// .     . - 10% -   
; 307  : 
; 308  : 	return TRUE;

  00236	b8 01 00 00 00	 mov	 eax, 1
  0023b	5b		 pop	 ebx

; 309  : }

  0023c	83 c4 1c	 add	 esp, 28			; 0000001cH
  0023f	c3		 ret	 0
$L261784:

; 273  : 			} else
; 274  : 				m_idTarget = m_idLastAttacker;		//       .

  00240	8b 96 a4 00 00
	00		 mov	 edx, DWORD PTR [esi+164]
  00246	89 96 90 00 00
	00		 mov	 DWORD PTR [esi+144], edx
$L261788:
  0024c	5f		 pop	 edi
  0024d	5e		 pop	 esi
  0024e	5d		 pop	 ebp

; 275  : 		}
; 276  : #ifdef __INTERNALSERVER
; 277  : 		{
; 278  : 			CMover *pTarget = prj.GetMover( m_idTarget );
; 279  : 			CMover *pMover = prj.GetMover( m_idLastAttacker );
; 280  : 			CString str;
; 281  : 			if( pMover )
; 282  : 			{
; 283  : 				if( pTarget )
; 284  : 					str.Format( "rand:%d LastAttacker:%s SelectTarget:%s", dwNum, pMover->GetName(), pTarget->GetName() );
; 285  : 				else
; 286  : 					str.Format( "rand:%d LastAttacker:%s SelectTarget:%s", dwNum, pMover->GetName(), "" );
; 287  : 				DEBUGOUT2( str, "boss(CAIBear).txt" );
; 288  : 			} else
; 289  : 			{
; 290  : 				if( pTarget )
; 291  : 					str.Format( "rand:%d LastAttacker:%s SelectTarget:%s", dwNum, ".", pTarget->GetName() );
; 292  : 				else
; 293  : 					str.Format( "rand:%d LastAttacker:%s SelectTarget:%s", dwNum, ".", "" );
; 294  : 				
; 295  : 				DEBUGOUT2( str, "boss(CAIBear).txt" );
; 296  : 			}
; 297  : 
; 298  : 		}
; 299  : #endif
; 300  : 	}
; 301  : 
; 302  : 	//   .
; 303  : 	// .    - 50%. -    .
; 304  : 	// .  (      ) - 25%
; 305  : 	// .   - 25%.
; 306  : 	// .     . - 10% -   
; 307  : 
; 308  : 	return TRUE;

  0024f	b8 01 00 00 00	 mov	 eax, 1
  00254	5b		 pop	 ebx

; 309  : }

  00255	83 c4 1c	 add	 esp, 28			; 0000001cH
  00258	c3		 ret	 0
?SelectTarget@CAIBear@@AAEHXZ ENDP			; CAIBear::SelectTarget
_TEXT	ENDS
PUBLIC	?SummonMonster@CAIBear@@QAEXKUD3DXVECTOR3@@@Z	; CAIBear::SummonMonster
EXTRN	?AddObj@CWorld@@QAEHPAVCObj@@HH@Z:NEAR		; CWorld::AddObj
EXTRN	?UpdateLocalMatrix@CObj@@QAEXXZ:NEAR		; CObj::UpdateLocalMatrix
EXTRN	?SetPos@CObj@@QAEXABUD3DXVECTOR3@@@Z:NEAR	; CObj::SetPos
EXTRN	?CreateObj@@YAPAVCObj@@PAUIDirect3DDevice9@@KKH@Z:NEAR ; CreateObj
; Function compile flags: /Ogty
;	COMDAT ?SummonMonster@CAIBear@@QAEXKUD3DXVECTOR3@@@Z
_TEXT	SEGMENT
_dwObjIndex$ = 8					; size = 4
_vPos$ = 12						; size = 12
?SummonMonster@CAIBear@@QAEXKUD3DXVECTOR3@@@Z PROC NEAR	; CAIBear::SummonMonster, COMDAT
; _this$ = ecx

; 317  : 	CObj* pObj	= CreateObj( D3DDEVICE, OT_MOVER, dwObjIndex );

  00000	8b 44 24 04	 mov	 eax, DWORD PTR _dwObjIndex$[esp-4]
  00004	56		 push	 esi
  00005	57		 push	 edi
  00006	6a 01		 push	 1
  00008	50		 push	 eax
  00009	6a 05		 push	 5
  0000b	6a 00		 push	 0
  0000d	8b f9		 mov	 edi, ecx
  0000f	e8 00 00 00 00	 call	 ?CreateObj@@YAPAVCObj@@PAUIDirect3DDevice9@@KKH@Z ; CreateObj
  00014	8b f0		 mov	 esi, eax
  00016	83 c4 10	 add	 esp, 16			; 00000010H

; 318  : 	if( pObj )

  00019	85 f6		 test	 esi, esi
  0001b	74 4d		 je	 SHORT $L261795

; 319  : 	{
; 320  : 		pObj->SetPos( vPos );

  0001d	8d 4c 24 10	 lea	 ecx, DWORD PTR _vPos$[esp+4]
  00021	51		 push	 ecx
  00022	8b ce		 mov	 ecx, esi
  00024	e8 00 00 00 00	 call	 ?SetPos@CObj@@QAEXABUD3DXVECTOR3@@@Z ; CObj::SetPos

; 321  : 		pObj->InitMotion( MTI_STAND );

  00029	8b 16		 mov	 edx, DWORD PTR [esi]
  0002b	6a 00		 push	 0
  0002d	8b ce		 mov	 ecx, esi
  0002f	ff 52 08	 call	 DWORD PTR [edx+8]

; 322  : 		pObj->UpdateLocalMatrix();

  00032	8b ce		 mov	 ecx, esi
  00034	e8 00 00 00 00	 call	 ?UpdateLocalMatrix@CObj@@QAEXXZ ; CObj::UpdateLocalMatrix

; 323  : 		((CMover*)pObj)->m_bActiveAttack = 1;		
; 324  : 		((CMover*)pObj)->SetGold(((CMover*)pObj)->GetLevel()*15);  //     

  00039	8b 86 e0 05 00
	00		 mov	 eax, DWORD PTR [esi+1504]
  0003f	6b c0 0f	 imul	 eax, 15			; 0000000fH
  00042	c7 86 70 06 00
	00 01 00 00 00	 mov	 DWORD PTR [esi+1648], 1
  0004c	89 86 84 16 00
	00		 mov	 DWORD PTR [esi+5764], eax

; 325  : 
; 326  : 		GetWorld()->ADDOBJ( pObj, TRUE, GetMover()->GetLayer() );

  00052	8b 47 30	 mov	 eax, DWORD PTR [edi+48]
  00055	8b 88 b8 01 00
	00		 mov	 ecx, DWORD PTR [eax+440]
  0005b	51		 push	 ecx
  0005c	8b 88 6c 01 00
	00		 mov	 ecx, DWORD PTR [eax+364]
  00062	6a 01		 push	 1
  00064	56		 push	 esi
  00065	e8 00 00 00 00	 call	 ?AddObj@CWorld@@QAEHPAVCObj@@HH@Z ; CWorld::AddObj
$L261795:
  0006a	5f		 pop	 edi
  0006b	5e		 pop	 esi

; 327  : 	}
; 328  : }

  0006c	c2 10 00	 ret	 16			; 00000010H
?SummonMonster@CAIBear@@QAEXKUD3DXVECTOR3@@@Z ENDP	; CAIBear::SummonMonster
_TEXT	ENDS
PUBLIC	??_C@_0BE@OHDBLHOM@GetText?5range_error?$AA@	; `string'
PUBLIC	??_C@_05KKCIMGE@error?$AA@			; `string'
PUBLIC	?GetText@CProject@@QAEPBDK@Z			; CProject::GetText
PUBLIC	??_C@_00CNPNBAHC@?$AA@				; `string'
;	COMDAT ??_C@_00CNPNBAHC@?$AA@
; File c:\documents and settings\test\mes documents\source\virtuos_v17\build\program\_common\data.h
CONST	SEGMENT
??_C@_00CNPNBAHC@?$AA@ DB 00H				; `string'
CONST	ENDS
;	COMDAT ??_C@_0BE@OHDBLHOM@GetText?5range_error?$AA@
CONST	SEGMENT
??_C@_0BE@OHDBLHOM@GetText?5range_error?$AA@ DB 'GetText range_error', 00H ; `string'
CONST	ENDS
;	COMDAT ??_C@_05KKCIMGE@error?$AA@
CONST	SEGMENT
??_C@_05KKCIMGE@error?$AA@ DB 'error', 00H		; `string'
; Function compile flags: /Ogty
; File c:\documents and settings\test\mes documents\source\virtuos_v17\build\program\_common\project.h
CONST	ENDS
;	COMDAT ?GetText@CProject@@QAEPBDK@Z
_TEXT	SEGMENT
_dwIndex$ = 8						; size = 4
?GetText@CProject@@QAEPBDK@Z PROC NEAR			; CProject::GetText, COMDAT
; _this$ = ecx

; 1402 : 	VERIFY_RANGE( (int)( dwIndex ), 0, m_colorText.GetSize(), "GetText range_error", "error" );

  00000	8b 44 24 04	 mov	 eax, DWORD PTR _dwIndex$[esp-4]
  00004	85 c0		 test	 eax, eax
  00006	7c 41		 jl	 SHORT $L197970
  00008	8b 91 c8 02 00
	00		 mov	 edx, DWORD PTR [ecx+712]
  0000e	3b c2		 cmp	 eax, edx
  00010	7d 37		 jge	 SHORT $L197970

; 1403 : 	if( m_colorText.GetAt( dwIndex ) == NULL )

  00012	3b c2		 cmp	 eax, edx
  00014	73 0c		 jae	 SHORT $L267423
  00016	8b 91 b8 02 00
	00		 mov	 edx, DWORD PTR [ecx+696]
  0001c	83 3c 82 00	 cmp	 DWORD PTR [edx+eax*4], 0
  00020	75 08		 jne	 SHORT $L197974
$L267423:

; 1404 : 		return "";

  00022	b8 00 00 00 00	 mov	 eax, OFFSET FLAT:??_C@_00CNPNBAHC@?$AA@

; 1406 : }

  00027	c2 04 00	 ret	 4
$L197974:

; 1405 : 	return m_colorText.GetAt( dwIndex )->lpszData; 

  0002a	3b 81 c8 02 00
	00		 cmp	 eax, DWORD PTR [ecx+712]
  00030	72 08		 jb	 SHORT $L267419
  00032	33 c0		 xor	 eax, eax
  00034	8b 40 04	 mov	 eax, DWORD PTR [eax+4]

; 1406 : }

  00037	c2 04 00	 ret	 4

; 1405 : 	return m_colorText.GetAt( dwIndex )->lpszData; 

$L267419:
  0003a	8b 89 b8 02 00
	00		 mov	 ecx, DWORD PTR [ecx+696]
  00040	8b 04 81	 mov	 eax, DWORD PTR [ecx+eax*4]
  00043	8b 40 04	 mov	 eax, DWORD PTR [eax+4]

; 1406 : }

  00046	c2 04 00	 ret	 4
$L197970:

; 1402 : 	VERIFY_RANGE( (int)( dwIndex ), 0, m_colorText.GetSize(), "GetText range_error", "error" );

  00049	8b 91 c8 02 00
	00		 mov	 edx, DWORD PTR [ecx+712]
  0004f	50		 push	 eax
  00050	52		 push	 edx
  00051	6a 00		 push	 0
  00053	68 00 00 00 00	 push	 OFFSET FLAT:??_C@_0BE@OHDBLHOM@GetText?5range_error?$AA@
  00058	68 00 00 00 00	 push	 OFFSET FLAT:??_C@_0BM@HMFGHCP@?$CFs?5min?3?$CFd?0?5max?3?$CFd?0?5index?3?$CFd?$AA@
  0005d	e8 00 00 00 00	 call	 ?Error@@YAPBDPBDZZ	; Error
  00062	83 c4 14	 add	 esp, 20			; 00000014H
  00065	b8 00 00 00 00	 mov	 eax, OFFSET FLAT:??_C@_05KKCIMGE@error?$AA@

; 1406 : }

  0006a	c2 04 00	 ret	 4
?GetText@CProject@@QAEPBDK@Z ENDP			; CProject::GetText
; Function compile flags: /Ogty
_TEXT	ENDS
;	COMDAT ??_GCAIBear@@UAEPAXI@Z
_TEXT	SEGMENT
___flags$ = 8						; size = 4
??_GCAIBear@@UAEPAXI@Z PROC NEAR			; CAIBear::`scalar deleting destructor', COMDAT
; _this$ = ecx
  00000	56		 push	 esi
  00001	8b f1		 mov	 esi, ecx
  00003	e8 00 00 00 00	 call	 ??1CAIBear@@UAE@XZ	; CAIBear::~CAIBear
  00008	f6 44 24 08 01	 test	 BYTE PTR ___flags$[esp], 1
  0000d	74 09		 je	 SHORT $L267427
  0000f	56		 push	 esi
  00010	e8 00 00 00 00	 call	 ??3@YAXPAX@Z		; operator delete
  00015	83 c4 04	 add	 esp, 4
$L267427:
  00018	8b c6		 mov	 eax, esi
  0001a	5e		 pop	 esi
  0001b	c2 04 00	 ret	 4
??_GCAIBear@@UAEPAXI@Z ENDP				; CAIBear::`scalar deleting destructor'
_TEXT	ENDS
PUBLIC	__real@c0000000
PUBLIC	__real@00000000
PUBLIC	?MoveProcessRage@CAIBear@@AAEHXZ		; CAIBear::MoveProcessRage
PUBLIC	__real@42000000
EXTRN	?GetHitPointPercent@CMover@@QAEHH@Z:NEAR	; CMover::GetHitPointPercent
EXTRN	?g_DPCoreClient@@3VCDPCoreClient@@A:BYTE	; g_DPCoreClient
EXTRN	?CMD_SetMeleeAttack@CMover@@QAEXKM@Z:NEAR	; CMover::CMD_SetMeleeAttack
EXTRN	?SendCaption@CDPCoreClient@@QAEXPBDKH@Z:NEAR	; CDPCoreClient::SendCaption
EXTRN	?ResetState@CAction@@QAEXK@Z:NEAR		; CAction::ResetState
;	COMDAT __real@c0000000
; File c:\documents and settings\test\mes documents\source\virtuos_v17\build\program\_common\timer.h
CONST	SEGMENT
__real@c0000000 DD 0c0000000r			; -2
CONST	ENDS
;	COMDAT __real@00000000
CONST	SEGMENT
__real@00000000 DD 000000000r			; 0
CONST	ENDS
;	COMDAT __real@42000000
CONST	SEGMENT
__real@42000000 DD 042000000r			; 32
; Function compile flags: /Ogty
; File c:\documents and settings\test\mes documents\source\virtuos_v17\build\program\_aiinterface\aibear.cpp
CONST	ENDS
;	COMDAT ?MoveProcessRage@CAIBear@@AAEHXZ
_TEXT	SEGMENT
_fArrivalRange$261846 = -44				; size = 4
_fRadius$261829 = -44					; size = 4
_pModel$ = -44						; size = 4
_fRadiusSq$261830 = -40					; size = 4
_vTarget$261833 = -36					; size = 12
_vPos$261810 = -36					; size = 12
_vDist$261843 = -24					; size = 12
$T267432 = -24						; size = 12
_vLocal$261809 = -24					; size = 12
$T267433 = -12						; size = 12
?MoveProcessRage@CAIBear@@AAEHXZ PROC NEAR		; CAIBear::MoveProcessRage, COMDAT
; _this$ = ecx

; 331  : {

  00000	83 ec 2c	 sub	 esp, 44			; 0000002cH
  00003	53		 push	 ebx
  00004	55		 push	 ebp
  00005	56		 push	 esi
  00006	8b f1		 mov	 esi, ecx

; 332  : 	CMover	*pMover = GetMover();

  00008	8b 6e 30	 mov	 ebp, DWORD PTR [esi+48]

; 333  : 	CWorld	*pWorld = GetWorld();
; 334  : 	CModelObject *pModel = (CModelObject *)pMover->GetModel();

  0000b	8b 85 78 01 00
	00		 mov	 eax, DWORD PTR [ebp+376]
  00011	57		 push	 edi
  00012	89 44 24 10	 mov	 DWORD PTR _pModel$[esp+60], eax

; 335  : 
; 336  : 	//  
; 337  : 	//    .
; 338  : 	CMover * pTarget = NULL;
; 339  : 	
; 340  : 	if( m_bEventFlag[0] == FALSE )

  00016	8b 46 58	 mov	 eax, DWORD PTR [esi+88]
  00019	33 ff		 xor	 edi, edi
  0001b	3b c7		 cmp	 eax, edi
  0001d	0f 85 7b 01 00
	00		 jne	 $L261808

; 341  : 	{
; 342  : 		pTarget = ScanTarget( pMover, 80, JOB_ALL );		// 80   .

  00023	57		 push	 edi
  00024	57		 push	 edi
  00025	57		 push	 edi
  00026	6a 28		 push	 40			; 00000028H
  00028	6a 50		 push	 80			; 00000050H
  0002a	55		 push	 ebp
  0002b	e8 00 00 00 00	 call	 ?ScanTarget@CAIInterface@@IAEPAVCMover@@PAVCObj@@HHKKH@Z ; CAIInterface::ScanTarget
  00030	8b d8		 mov	 ebx, eax

; 343  : 
; 344  : 		if( pTarget )

  00032	3b df		 cmp	 ebx, edi
  00034	0f 84 64 01 00
	00		 je	 $L261808

; 345  : 		{
; 346  : 			m_bEventFlag[0] = TRUE;

  0003a	c7 46 58 01 00
	00 00		 mov	 DWORD PTR [esi+88], 1

; 347  : 
; 348  : 			g_DPCoreClient.SendCaption( prj.GetText(TID_GAME_BOSS_MUSHMOOT_MSG_01), pTarget->GetWorld()->GetID() );	

  00041	a1 c8 02 00 00	 mov	 eax, DWORD PTR ?prj@@3VCProject@@A+712
  00046	3d d6 0b 00 00	 cmp	 eax, 3030		; 00000bd6H
  0004b	8b 8b 6c 01 00
	00		 mov	 ecx, DWORD PTR [ebx+364]
  00051	8b 39		 mov	 edi, DWORD PTR [ecx]
  00053	7e 32		 jle	 SHORT $L267501
  00055	76 10		 jbe	 SHORT $L267603
  00057	8b 0d b8 02 00
	00		 mov	 ecx, DWORD PTR ?prj@@3VCProject@@A+696
  0005d	8b 91 58 2f 00
	00		 mov	 edx, DWORD PTR [ecx+12120]
  00063	85 d2		 test	 edx, edx
  00065	75 07		 jne	 SHORT $L267502
$L267603:
  00067	b8 00 00 00 00	 mov	 eax, OFFSET FLAT:??_C@_00CNPNBAHC@?$AA@
  0006c	eb 38		 jmp	 SHORT $L267496
$L267502:
  0006e	3d d6 0b 00 00	 cmp	 eax, 3030		; 00000bd6H
  00073	77 07		 ja	 SHORT $L267494
  00075	33 c0		 xor	 eax, eax
  00077	8b 40 04	 mov	 eax, DWORD PTR [eax+4]
  0007a	eb 2a		 jmp	 SHORT $L267496
$L267494:
  0007c	8b 81 58 2f 00
	00		 mov	 eax, DWORD PTR [ecx+12120]
  00082	8b 40 04	 mov	 eax, DWORD PTR [eax+4]
  00085	eb 1f		 jmp	 SHORT $L267496
$L267501:
  00087	68 d6 0b 00 00	 push	 3030			; 00000bd6H
  0008c	50		 push	 eax
  0008d	6a 00		 push	 0
  0008f	68 00 00 00 00	 push	 OFFSET FLAT:??_C@_0BE@OHDBLHOM@GetText?5range_error?$AA@
  00094	68 00 00 00 00	 push	 OFFSET FLAT:??_C@_0BM@HMFGHCP@?$CFs?5min?3?$CFd?0?5max?3?$CFd?0?5index?3?$CFd?$AA@
  00099	e8 00 00 00 00	 call	 ?Error@@YAPBDPBDZZ	; Error
  0009e	83 c4 14	 add	 esp, 20			; 00000014H
  000a1	b8 00 00 00 00	 mov	 eax, OFFSET FLAT:??_C@_05KKCIMGE@error?$AA@
$L267496:
  000a6	6a 00		 push	 0
  000a8	57		 push	 edi
  000a9	50		 push	 eax
  000aa	b9 00 00 00 00	 mov	 ecx, OFFSET FLAT:?g_DPCoreClient@@3VCDPCoreClient@@A
  000af	e8 00 00 00 00	 call	 ?SendCaption@CDPCoreClient@@QAEXPBDKH@Z ; CDPCoreClient::SendCaption

; 349  : 
; 350  : 			D3DXVECTOR3 vLocal;
; 351  : 			D3DXVECTOR3 vPos = pTarget->GetPos();
; 352  : 
; 353  : 			AngleToVectorXZ( &vLocal, pTarget->GetAngle(), 2.0f );

  000b4	d9 43 18	 fld	 DWORD PTR [ebx+24]
  000b7	d8 0d 00 00 00
	00		 fmul	 DWORD PTR __real@3c8efa35
  000bd	8d bb 60 01 00
	00		 lea	 edi, DWORD PTR [ebx+352]
  000c3	8b d7		 mov	 edx, edi
  000c5	8b 02		 mov	 eax, DWORD PTR [edx]
  000c7	d9 c0		 fld	 ST(0)
  000c9	d9 fe		 fsin
  000cb	8b 4a 04	 mov	 ecx, DWORD PTR [edx+4]
  000ce	8b 52 08	 mov	 edx, DWORD PTR [edx+8]
  000d1	89 44 24 18	 mov	 DWORD PTR _vPos$261810[esp+60], eax
  000d5	89 54 24 20	 mov	 DWORD PTR _vPos$261810[esp+68], edx
  000d9	89 4c 24 1c	 mov	 DWORD PTR _vPos$261810[esp+64], ecx

; 354  : 			vPos+=vLocal;

  000dd	8b c1		 mov	 eax, ecx

; 355  : 
; 356  : 			SummonMonster( MI_SMALL_MUSHPOIE, vPos );

  000df	83 ec 0c	 sub	 esp, 12			; 0000000cH
  000e2	8b cc		 mov	 ecx, esp
  000e4	68 a8 00 00 00	 push	 168			; 000000a8H
  000e9	89 44 24 2c	 mov	 DWORD PTR _vPos$261810[esp+80], eax
  000ed	dc c0		 fadd	 ST(0), ST(0)
  000ef	d9 c9		 fxch	 ST(1)
  000f1	d9 ff		 fcos
  000f3	d8 0d 00 00 00
	00		 fmul	 DWORD PTR __real@c0000000
  000f9	d9 5c 24 3c	 fstp	 DWORD PTR _vLocal$261809[esp+84]
  000fd	d9 44 24 28	 fld	 DWORD PTR _vPos$261810[esp+76]
  00101	d8 c1		 fadd	 ST(0), ST(1)
  00103	d9 5c 24 28	 fstp	 DWORD PTR _vPos$261810[esp+76]
  00107	8b 54 24 28	 mov	 edx, DWORD PTR _vPos$261810[esp+76]
  0010b	89 11		 mov	 DWORD PTR [ecx], edx
  0010d	dd d8		 fstp	 ST(0)
  0010f	89 41 04	 mov	 DWORD PTR [ecx+4], eax
  00112	d9 44 24 30	 fld	 DWORD PTR _vPos$261810[esp+84]
  00116	d8 44 24 3c	 fadd	 DWORD PTR _vLocal$261809[esp+84]
  0011a	d9 5c 24 30	 fstp	 DWORD PTR _vPos$261810[esp+84]
  0011e	8b 54 24 30	 mov	 edx, DWORD PTR _vPos$261810[esp+84]
  00122	89 51 08	 mov	 DWORD PTR [ecx+8], edx
  00125	8b ce		 mov	 ecx, esi
  00127	e8 00 00 00 00	 call	 ?SummonMonster@CAIBear@@QAEXKUD3DXVECTOR3@@@Z ; CAIBear::SummonMonster

; 357  : 			
; 358  : 			vPos = pTarget->GetPos();
; 359  : 			AngleToVectorXZ( &vLocal, pTarget->GetAngle(), -2.0f );

  0012c	d9 43 18	 fld	 DWORD PTR [ebx+24]
  0012f	d8 0d 00 00 00
	00		 fmul	 DWORD PTR __real@3c8efa35
  00135	8b 07		 mov	 eax, DWORD PTR [edi]
  00137	8b 57 08	 mov	 edx, DWORD PTR [edi+8]
  0013a	8b 4f 04	 mov	 ecx, DWORD PTR [edi+4]
  0013d	d9 c0		 fld	 ST(0)
  0013f	d9 fe		 fsin
  00141	89 44 24 18	 mov	 DWORD PTR _vPos$261810[esp+60], eax
  00145	89 54 24 20	 mov	 DWORD PTR _vPos$261810[esp+68], edx
  00149	89 4c 24 1c	 mov	 DWORD PTR _vPos$261810[esp+64], ecx

; 360  : 			vPos+=vLocal;

  0014d	8b c1		 mov	 eax, ecx

; 361  : 			
; 362  : 			SummonMonster( MI_SMALL_MUSHPOIE, vPos );	

  0014f	83 ec 0c	 sub	 esp, 12			; 0000000cH
  00152	8b cc		 mov	 ecx, esp
  00154	68 a8 00 00 00	 push	 168			; 000000a8H
  00159	89 44 24 2c	 mov	 DWORD PTR _vPos$261810[esp+80], eax
  0015d	d8 0d 00 00 00
	00		 fmul	 DWORD PTR __real@c0000000
  00163	d9 c9		 fxch	 ST(1)
  00165	d9 ff		 fcos
  00167	dc c0		 fadd	 ST(0), ST(0)
  00169	d9 5c 24 3c	 fstp	 DWORD PTR _vLocal$261809[esp+84]
  0016d	d9 44 24 28	 fld	 DWORD PTR _vPos$261810[esp+76]
  00171	d8 c1		 fadd	 ST(0), ST(1)
  00173	d9 5c 24 28	 fstp	 DWORD PTR _vPos$261810[esp+76]
  00177	8b 54 24 28	 mov	 edx, DWORD PTR _vPos$261810[esp+76]
  0017b	89 11		 mov	 DWORD PTR [ecx], edx
  0017d	dd d8		 fstp	 ST(0)
  0017f	89 41 04	 mov	 DWORD PTR [ecx+4], eax
  00182	d9 44 24 30	 fld	 DWORD PTR _vPos$261810[esp+84]
  00186	d8 44 24 3c	 fadd	 DWORD PTR _vLocal$261809[esp+84]
  0018a	d9 5c 24 30	 fstp	 DWORD PTR _vPos$261810[esp+84]
  0018e	8b 54 24 30	 mov	 edx, DWORD PTR _vPos$261810[esp+84]
  00192	89 51 08	 mov	 DWORD PTR [ecx+8], edx
  00195	8b ce		 mov	 ecx, esi
  00197	e8 00 00 00 00	 call	 ?SummonMonster@CAIBear@@QAEXKUD3DXVECTOR3@@@Z ; CAIBear::SummonMonster
  0019c	33 ff		 xor	 edi, edi
$L261808:

; 363  : 		}
; 364  : 	}
; 365  : 
; 366  : 	if( m_nEvent == EPT_READY )

  0019e	8b 46 78	 mov	 eax, DWORD PTR [esi+120]
  001a1	3b c7		 cmp	 eax, edi
  001a3	75 72		 jne	 SHORT $L261813

; 367  : 	{
; 368  : 		if( pMover->m_pActMover->m_bGround == 1 && pMover->m_pActMover->GetActionState() != OBJSTA_APPEAR )		//  ..

  001a5	8b 85 3c 02 00
	00		 mov	 eax, DWORD PTR [ebp+572]
  001ab	83 78 44 01	 cmp	 DWORD PTR [eax+68], 1
  001af	75 23		 jne	 SHORT $L267562
  001b1	8b 48 04	 mov	 ecx, DWORD PTR [eax+4]
  001b4	81 e1 00 00 00
	f0		 and	 ecx, -268435456		; f0000000H
  001ba	81 f9 00 00 00
	20		 cmp	 ecx, 536870912		; 20000000H
  001c0	74 12		 je	 SHORT $L267562

; 369  : 			pMover->SendActMsg( OBJMSG_APPEAR );		// .    ...

  001c2	3b c7		 cmp	 eax, edi
  001c4	74 0e		 je	 SHORT $L267562
  001c6	57		 push	 edi
  001c7	57		 push	 edi
  001c8	57		 push	 edi
  001c9	57		 push	 edi
  001ca	8b c8		 mov	 ecx, eax
  001cc	8b 11		 mov	 edx, DWORD PTR [ecx]
  001ce	57		 push	 edi
  001cf	6a 0e		 push	 14			; 0000000eH
  001d1	ff 52 04	 call	 DWORD PTR [edx+4]
$L267562:

; 370  : 		if( ++m_nAppearCnt >= PROCESS_COUNT * 5 )		// 

  001d4	8b 8e a0 00 00
	00		 mov	 ecx, DWORD PTR [esi+160]
  001da	41		 inc	 ecx
  001db	8b c1		 mov	 eax, ecx
  001dd	83 f8 4b	 cmp	 eax, 75			; 0000004bH
  001e0	89 8e a0 00 00
	00		 mov	 DWORD PTR [esi+160], ecx
  001e6	7c 22		 jl	 SHORT $L267605

; 371  : 		{
; 372  : 			PostAIMsg( AIMSG_END_APPEAR );		//    .

  001e8	8b 06		 mov	 eax, DWORD PTR [esi]
  001ea	57		 push	 edi
  001eb	57		 push	 edi
  001ec	57		 push	 edi
  001ed	6a 10		 push	 16			; 00000010H
  001ef	8b ce		 mov	 ecx, esi
  001f1	ff 50 10	 call	 DWORD PTR [eax+16]

; 373  : 			pMover->m_pActMover->ResetState( OBJSTA_ACTION_ALL );

  001f4	8b 8d 3c 02 00
	00		 mov	 ecx, DWORD PTR [ebp+572]
  001fa	68 00 00 00 f0	 push	 -268435456		; f0000000H
  001ff	e8 00 00 00 00	 call	 ?ResetState@CAction@@QAEXK@Z ; CAction::ResetState

; 374  : 			m_nAppearCnt = 0;

  00204	89 be a0 00 00
	00		 mov	 DWORD PTR [esi+160], edi
$L267605:

; 488  : 
; 489  : #ifdef __INTERNALSERVER
; 490  : 			{
; 491  : 				CString strType;
; 492  : 				switch( m_nAttackType )
; 493  : 				{
; 494  : 				case CAT_NORMAL:		strType = "";	break;
; 495  : 				case CAT_LOOT:		strType = "-";	break;
; 496  : 				case CAT_BUFFTIME:		strType = " ";	break;
; 497  : 				}
; 498  : 				CString str;
; 499  : 				str.Format( "AtkType:%s Dist:%5.2f", strType, sqrt(fDistSq) );
; 500  : 				DEBUGOUT2( str, "boss(CAIBear).txt" );
; 501  : 			}
; 502  : #endif							
; 503  : 		} else	//   .
; 504  : 		{
; 505  : 			//    .
; 506  : 		}
; 507  : 	}
; 508  : 
; 509  : 	return TRUE;

  0020a	b8 01 00 00 00	 mov	 eax, 1

; 510  : }

  0020f	5f		 pop	 edi
  00210	5e		 pop	 esi
  00211	5d		 pop	 ebp
  00212	5b		 pop	 ebx
  00213	83 c4 2c	 add	 esp, 44			; 0000002cH
  00216	c3		 ret	 0
$L261813:

; 375  : 		}
; 376  : 		//  .
; 377  : 	} else
; 378  : 	//  .
; 379  : 	if( m_nEvent == EPT_ATTACKING )

  00217	83 f8 02	 cmp	 eax, 2
  0021a	75 69		 jne	 SHORT $L261817

; 380  : 	{
; 381  : 		BOOL bEnd = FALSE;
; 382  : 
; 383  : 		if( pMover->m_dwMotion == MTI_STAND || pModel->IsEndFrame()	)

  0021c	8b 85 dc 02 00
	00		 mov	 eax, DWORD PTR [ebp+732]
  00222	85 c0		 test	 eax, eax
  00224	74 0e		 je	 SHORT $L261820
  00226	8b 4c 24 10	 mov	 ecx, DWORD PTR _pModel$[esp+60]
  0022a	8b 81 9c 00 00
	00		 mov	 eax, DWORD PTR [ecx+156]
  00230	85 c0		 test	 eax, eax
  00232	74 05		 je	 SHORT $L267604
$L261820:

; 384  : 		{
; 385  : 			bEnd = TRUE;		//   . -             .

  00234	bf 01 00 00 00	 mov	 edi, 1
$L267604:

; 386  : 		}
; 387  : 		if( timeGetTime() >= m_tmTimeOver + SEC(15) )				//  10  .

  00239	8b 1d 00 00 00
	00		 mov	 ebx, DWORD PTR __imp__timeGetTime@0
  0023f	ff d3		 call	 ebx
  00241	8b 96 8c 00 00
	00		 mov	 edx, DWORD PTR [esi+140]
  00247	81 c2 98 3a 00
	00		 add	 edx, 15000		; 00003a98H
  0024d	3b c2		 cmp	 eax, edx

; 388  : 			bEnd = TRUE;
; 389  : 		if( bEnd )

  0024f	73 04		 jae	 SHORT $L267591
  00251	85 ff		 test	 edi, edi
  00253	74 b5		 je	 SHORT $L267605
$L267591:

; 390  : 		{
; 391  : 			m_nEvent = EPT_MOVING;				//  .

  00255	c7 46 78 01 00
	00 00		 mov	 DWORD PTR [esi+120], 1

; 392  : 			m_tmReattack = timeGetTime();		//   ;

  0025c	ff d3		 call	 ebx
  0025e	89 86 80 00 00
	00		 mov	 DWORD PTR [esi+128], eax

; 393  : 			m_tmAddReattack = 2000; // xRandom( 2000 );	// x     .

  00264	c7 86 84 00 00
	00 d0 07 00 00	 mov	 DWORD PTR [esi+132], 2000 ; 000007d0H

; 394  : 			m_idTarget = NULL_ID;				//  .

  0026e	c7 86 90 00 00
	00 ff ff ff ff	 mov	 DWORD PTR [esi+144], -1

; 488  : 
; 489  : #ifdef __INTERNALSERVER
; 490  : 			{
; 491  : 				CString strType;
; 492  : 				switch( m_nAttackType )
; 493  : 				{
; 494  : 				case CAT_NORMAL:		strType = "";	break;
; 495  : 				case CAT_LOOT:		strType = "-";	break;
; 496  : 				case CAT_BUFFTIME:		strType = " ";	break;
; 497  : 				}
; 498  : 				CString str;
; 499  : 				str.Format( "AtkType:%s Dist:%5.2f", strType, sqrt(fDistSq) );
; 500  : 				DEBUGOUT2( str, "boss(CAIBear).txt" );
; 501  : 			}
; 502  : #endif							
; 503  : 		} else	//   .
; 504  : 		{
; 505  : 			//    .
; 506  : 		}
; 507  : 	}
; 508  : 
; 509  : 	return TRUE;

  00278	b8 01 00 00 00	 mov	 eax, 1

; 510  : }

  0027d	5f		 pop	 edi
  0027e	5e		 pop	 esi
  0027f	5d		 pop	 ebp
  00280	5b		 pop	 ebx
  00281	83 c4 2c	 add	 esp, 44			; 0000002cH
  00284	c3		 ret	 0
$L261817:

; 395  : 		} 
; 396  : 	} else
; 397  : 	//   .
; 398  : 	if( m_nEvent == EPT_TRACKING )

  00285	83 f8 03	 cmp	 eax, 3
  00288	75 46		 jne	 SHORT $L261825

; 399  : 	{
; 400  : 		if( timeGetTime() >= m_tmTrace + 3000 )		//   3   

  0028a	ff 15 00 00 00
	00		 call	 DWORD PTR __imp__timeGetTime@0
  00290	8b 8e 88 00 00
	00		 mov	 ecx, DWORD PTR [esi+136]
  00296	81 c1 b8 0b 00
	00		 add	 ecx, 3000		; 00000bb8H
  0029c	3b c1		 cmp	 eax, ecx
  0029e	0f 82 66 ff ff
	ff		 jb	 $L267605

; 401  : 		{
; 402  : 			m_nEvent = EPT_MOVING;

  002a4	c7 46 78 01 00
	00 00		 mov	 DWORD PTR [esi+120], 1

; 403  : 			m_idTarget = NULL;			//      SelectTarget()   .

  002ab	89 be 90 00 00
	00		 mov	 DWORD PTR [esi+144], edi

; 404  : 			m_vTarget.x = m_vTarget.y = m_vTarget.z = 0;

  002b1	89 be 9c 00 00
	00		 mov	 DWORD PTR [esi+156], edi
  002b7	89 be 98 00 00
	00		 mov	 DWORD PTR [esi+152], edi
  002bd	89 be 94 00 00
	00		 mov	 DWORD PTR [esi+148], edi

; 488  : 
; 489  : #ifdef __INTERNALSERVER
; 490  : 			{
; 491  : 				CString strType;
; 492  : 				switch( m_nAttackType )
; 493  : 				{
; 494  : 				case CAT_NORMAL:		strType = "";	break;
; 495  : 				case CAT_LOOT:		strType = "-";	break;
; 496  : 				case CAT_BUFFTIME:		strType = " ";	break;
; 497  : 				}
; 498  : 				CString str;
; 499  : 				str.Format( "AtkType:%s Dist:%5.2f", strType, sqrt(fDistSq) );
; 500  : 				DEBUGOUT2( str, "boss(CAIBear).txt" );
; 501  : 			}
; 502  : #endif							
; 503  : 		} else	//   .
; 504  : 		{
; 505  : 			//    .
; 506  : 		}
; 507  : 	}
; 508  : 
; 509  : 	return TRUE;

  002c3	b8 01 00 00 00	 mov	 eax, 1

; 510  : }

  002c8	5f		 pop	 edi
  002c9	5e		 pop	 esi
  002ca	5d		 pop	 ebp
  002cb	5b		 pop	 ebx
  002cc	83 c4 2c	 add	 esp, 44			; 0000002cH
  002cf	c3		 ret	 0
$L261825:

; 405  : 		}
; 406  : 	} else	
; 407  : 	//-------------  . --------------------
; 408  : 	{
; 409  : 
; 410  : 		if( timeGetTime() >= m_tmReattack + (2000 - m_tmAddReattack) )		//   ?   5 AddReattack   .

  002d0	ff 15 00 00 00
	00		 call	 DWORD PTR __imp__timeGetTime@0
  002d6	8b 96 80 00 00
	00		 mov	 edx, DWORD PTR [esi+128]
  002dc	2b 96 84 00 00
	00		 sub	 edx, DWORD PTR [esi+132]
  002e2	81 c2 d0 07 00
	00		 add	 edx, 2000		; 000007d0H
  002e8	3b c2		 cmp	 eax, edx
  002ea	0f 82 1a ff ff
	ff		 jb	 $L267605

; 411  : 		{
; 412  : 			FLOAT fRadius = pMover->GetRadiusXZ();		// this 

  002f0	8b cd		 mov	 ecx, ebp
  002f2	e8 00 00 00 00	 call	 ?GetRadiusXZ@CObj@@QAEMXZ ; CObj::GetRadiusXZ
  002f7	d9 54 24 10	 fst	 DWORD PTR _fRadius$261829[esp+60]

; 413  : 			FLOAT fRadiusSq = fRadius * fRadius;		// Sq.

  002fb	d8 4c 24 10	 fmul	 DWORD PTR _fRadius$261829[esp+60]

; 414  : 			
; 415  : 			if( m_idTarget == NULL_ID &&										//   
; 416  : 				(m_vTarget.x == 0 && m_vTarget.y == 0 && m_vTarget.z == 0) )	//   .

  002ff	8b 86 90 00 00
	00		 mov	 eax, DWORD PTR [esi+144]
  00305	83 cb ff	 or	 ebx, -1
  00308	3b c3		 cmp	 eax, ebx
  0030a	d9 5c 24 14	 fstp	 DWORD PTR _fRadiusSq$261830[esp+60]
  0030e	75 4e		 jne	 SHORT $L267602
  00310	d9 05 00 00 00
	00		 fld	 DWORD PTR __real@00000000
  00316	d9 86 94 00 00
	00		 fld	 DWORD PTR [esi+148]
  0031c	da e9		 fucompp
  0031e	df e0		 fnstsw	 ax
  00320	f6 c4 44	 test	 ah, 68			; 00000044H
  00323	7a 39		 jp	 SHORT $L267602
  00325	d9 05 00 00 00
	00		 fld	 DWORD PTR __real@00000000
  0032b	d9 86 98 00 00
	00		 fld	 DWORD PTR [esi+152]
  00331	da e9		 fucompp
  00333	df e0		 fnstsw	 ax
  00335	f6 c4 44	 test	 ah, 68			; 00000044H
  00338	7a 24		 jp	 SHORT $L267602
  0033a	d9 05 00 00 00
	00		 fld	 DWORD PTR __real@00000000
  00340	d9 86 9c 00 00
	00		 fld	 DWORD PTR [esi+156]
  00346	da e9		 fucompp
  00348	df e0		 fnstsw	 ax
  0034a	f6 c4 44	 test	 ah, 68			; 00000044H
  0034d	7a 0f		 jp	 SHORT $L267602

; 417  : 			{
; 418  : 				//   ....?  .
; 419  : 				if( SelectTarget() == FALSE )

  0034f	8b ce		 mov	 ecx, esi
  00351	e8 00 00 00 00	 call	 ?SelectTarget@CAIBear@@AAEHXZ ; CAIBear::SelectTarget
  00356	85 c0		 test	 eax, eax

; 420  : 					return FALSE;

  00358	0f 84 ab 01 00
	00		 je	 $L261841
$L267602:

; 421  : 			}
; 422  : 
; 423  : 			D3DXVECTOR3	vTarget;
; 424  : 			FLOAT	fDistSq = 0;					//  this .
; 425  : 			CMover *pTarget = NULL;
; 426  : 			if( m_idTarget != NULL_ID )		//  

  0035e	8b 86 90 00 00
	00		 mov	 eax, DWORD PTR [esi+144]
  00364	3b c3		 cmp	 eax, ebx
  00366	74 34		 je	 SHORT $L261836

; 427  : 			{
; 428  : 				pTarget = prj.GetMover( m_idTarget );

  00368	50		 push	 eax
  00369	b9 00 00 00 00	 mov	 ecx, OFFSET FLAT:?prj@@3VCProject@@A
  0036e	e8 00 00 00 00	 call	 ?GetMover@CProject@@QAEPAVCMover@@K@Z ; CProject::GetMover
  00373	8b f8		 mov	 edi, eax

; 429  : 				if( IsValidObj(pTarget) )

  00375	57		 push	 edi
  00376	e8 00 00 00 00	 call	 ?IsValidObj@@YAHPAVCObj@@@Z ; IsValidObj
  0037b	83 c4 04	 add	 esp, 4
  0037e	85 c0		 test	 eax, eax
  00380	0f 84 7d 01 00
	00		 je	 $L261848

; 430  : 					vTarget = pTarget->GetPos();		//   

  00386	8d 44 24 24	 lea	 eax, DWORD PTR $T267432[esp+60]
  0038a	50		 push	 eax
  0038b	8b cf		 mov	 ecx, edi
  0038d	e8 00 00 00 00	 call	 ?GetPos@CObj@@QAE?AUD3DXVECTOR3@@XZ ; CObj::GetPos
  00392	8b 08		 mov	 ecx, DWORD PTR [eax]
  00394	8b 50 04	 mov	 edx, DWORD PTR [eax+4]
  00397	8b 40 08	 mov	 eax, DWORD PTR [eax+8]

; 431  : 				else
; 432  : 				{
; 433  : 					m_idTarget = NULL_ID;
; 434  : 					return FALSE;		//    .
; 435  : 				}
; 436  : 			} else

  0039a	eb 5d		 jmp	 SHORT $L267607
$L261836:

; 437  : 			if( m_vTarget.x && m_vTarget.y && m_vTarget.z )		//    .

  0039c	d9 05 00 00 00
	00		 fld	 DWORD PTR __real@00000000
  003a2	d9 86 94 00 00
	00		 fld	 DWORD PTR [esi+148]
  003a8	da e9		 fucompp
  003aa	df e0		 fnstsw	 ax
  003ac	f6 c4 44	 test	 ah, 68			; 00000044H
  003af	0f 8b 54 01 00
	00		 jnp	 $L261841
  003b5	d9 05 00 00 00
	00		 fld	 DWORD PTR __real@00000000
  003bb	d9 86 98 00 00
	00		 fld	 DWORD PTR [esi+152]
  003c1	da e9		 fucompp
  003c3	df e0		 fnstsw	 ax
  003c5	f6 c4 44	 test	 ah, 68			; 00000044H
  003c8	0f 8b 3b 01 00
	00		 jnp	 $L261841
  003ce	d9 05 00 00 00
	00		 fld	 DWORD PTR __real@00000000
  003d4	d9 86 9c 00 00
	00		 fld	 DWORD PTR [esi+156]
  003da	da e9		 fucompp
  003dc	df e0		 fnstsw	 ax
  003de	f6 c4 44	 test	 ah, 68			; 00000044H
  003e1	0f 8b 22 01 00
	00		 jnp	 $L261841

; 438  : 			{
; 439  : 				vTarget = m_vTarget;

  003e7	8b 8e 94 00 00
	00		 mov	 ecx, DWORD PTR [esi+148]
  003ed	8b 96 98 00 00
	00		 mov	 edx, DWORD PTR [esi+152]
  003f3	8b 86 9c 00 00
	00		 mov	 eax, DWORD PTR [esi+156]
$L267607:
  003f9	89 4c 24 18	 mov	 DWORD PTR _vTarget$261833[esp+60], ecx

; 440  : 			} else
; 441  : 			{
; 442  : //				Error( "CAIClockWorks::MoveProcessRage :  " );
; 443  : 				return FALSE;
; 444  : 			}
; 445  : 
; 446  : 			D3DXVECTOR3 vDist = vTarget - pMover->GetPos();

  003fd	8d 4c 24 30	 lea	 ecx, DWORD PTR $T267433[esp+60]
  00401	51		 push	 ecx
  00402	8b cd		 mov	 ecx, ebp
  00404	89 54 24 20	 mov	 DWORD PTR _vTarget$261833[esp+68], edx
  00408	89 44 24 24	 mov	 DWORD PTR _vTarget$261833[esp+72], eax
  0040c	e8 00 00 00 00	 call	 ?GetPos@CObj@@QAE?AUD3DXVECTOR3@@XZ ; CObj::GetPos
  00411	d9 44 24 18	 fld	 DWORD PTR _vTarget$261833[esp+60]
  00415	d8 20		 fsub	 DWORD PTR [eax]

; 447  : 			fDistSq = D3DXVec3LengthSq( &vDist );		//  .
; 448  : 			FLOAT fArrivalRange = fRadius;			//  ?   .

  00417	8b 54 24 10	 mov	 edx, DWORD PTR _fRadius$261829[esp+60]

; 449  : 	
; 450  : 			int ppp = pMover->GetHitPointPercent();

  0041b	6a 64		 push	 100			; 00000064H
  0041d	8b cd		 mov	 ecx, ebp
  0041f	d9 5c 24 28	 fstp	 DWORD PTR _vDist$261843[esp+64]
  00423	89 54 24 14	 mov	 DWORD PTR _fArrivalRange$261846[esp+64], edx
  00427	d9 44 24 20	 fld	 DWORD PTR _vTarget$261833[esp+68]
  0042b	d8 60 04	 fsub	 DWORD PTR [eax+4]
  0042e	d9 5c 24 2c	 fstp	 DWORD PTR _vDist$261843[esp+68]
  00432	d9 44 24 24	 fld	 DWORD PTR _vTarget$261833[esp+72]
  00436	d8 60 08	 fsub	 DWORD PTR [eax+8]
  00439	d9 5c 24 30	 fstp	 DWORD PTR _vDist$261843[esp+72]
  0043d	e8 00 00 00 00	 call	 ?GetHitPointPercent@CMover@@QAEHH@Z ; CMover::GetHitPointPercent
  00442	d9 44 24 2c	 fld	 DWORD PTR _vDist$261843[esp+68]
  00446	d8 4c 24 2c	 fmul	 DWORD PTR _vDist$261843[esp+68]
  0044a	d9 44 24 28	 fld	 DWORD PTR _vDist$261843[esp+64]
  0044e	d8 4c 24 28	 fmul	 DWORD PTR _vDist$261843[esp+64]

; 488  : 
; 489  : #ifdef __INTERNALSERVER
; 490  : 			{
; 491  : 				CString strType;
; 492  : 				switch( m_nAttackType )
; 493  : 				{
; 494  : 				case CAT_NORMAL:		strType = "";	break;
; 495  : 				case CAT_LOOT:		strType = "-";	break;
; 496  : 				case CAT_BUFFTIME:		strType = " ";	break;
; 497  : 				}
; 498  : 				CString str;
; 499  : 				str.Format( "AtkType:%s Dist:%5.2f", strType, sqrt(fDistSq) );
; 500  : 				DEBUGOUT2( str, "boss(CAIBear).txt" );
; 501  : 			}
; 502  : #endif							
; 503  : 		} else	//   .
; 504  : 		{
; 505  : 			//    .
; 506  : 		}
; 507  : 	}
; 508  : 
; 509  : 	return TRUE;

  00452	de c1		 faddp	 ST(1), ST(0)
  00454	d9 44 24 24	 fld	 DWORD PTR _vDist$261843[esp+60]
  00458	d8 4c 24 24	 fmul	 DWORD PTR _vDist$261843[esp+60]
  0045c	de c1		 faddp	 ST(1), ST(0)
  0045e	d9 44 24 14	 fld	 DWORD PTR _fRadiusSq$261830[esp+60]
  00462	d8 0d 00 00 00
	00		 fmul	 DWORD PTR __real@42000000
  00468	de d9		 fcompp
  0046a	df e0		 fnstsw	 ax
  0046c	f6 c4 41	 test	 ah, 65			; 00000041H
  0046f	0f 85 8e 00 00
	00		 jne	 $L261848
  00475	6a 64		 push	 100			; 00000064H
  00477	e8 00 00 00 00	 call	 ?xRandom@@YAKK@Z	; xRandom
  0047c	83 c4 04	 add	 esp, 4
  0047f	83 f8 55	 cmp	 eax, 85			; 00000055H
  00482	76 11		 jbe	 SHORT $L261850
  00484	8b 4e 7c	 mov	 ecx, DWORD PTR [esi+124]
  00487	b8 02 00 00 00	 mov	 eax, 2
  0048c	3b c8		 cmp	 ecx, eax
  0048e	74 14		 je	 SHORT $L261852

; 451  : 
; 452  : 
; 453  : 			if( fDistSq < fRadiusSq * 32.0f )		// .
; 454  : 			{
; 455  : 				DWORD dwRate = xRandom(100);
; 456  : 
; 457  : 				if( dwRate > 85 )
; 458  : 				{
; 459  : 					if( m_nAttackType != CAT_LOOT )
; 460  : 					{
; 461  : 						m_nAttackType = CAT_LOOT;

  00490	89 46 7c	 mov	 DWORD PTR [esi+124], eax

; 462  : 						fArrivalRange = 7.0f;		
; 463  : 					}
; 464  : 				}
; 465  : 				else

  00493	eb 07		 jmp	 SHORT $L267608
$L261850:

; 466  : 				{
; 467  : 					m_nAttackType = CAT_NORMAL;		//  .

  00495	c7 46 7c 01 00
	00 00		 mov	 DWORD PTR [esi+124], 1
$L267608:

; 468  : 					fArrivalRange = 7.0f;				//   .

  0049c	c7 44 24 10 00
	00 e0 40	 mov	 DWORD PTR _fArrivalRange$261846[esp+60], 1088421888 ; 40e00000H
$L261852:

; 475  : 				return FALSE;
; 476  : 			}
; 477  : 					
; 478  : 			if( m_cTimeBuff.IsTimeOut() )

  004a4	8b 46 38	 mov	 eax, DWORD PTR [esi+56]
  004a7	8d 7e 38	 lea	 edi, DWORD PTR [esi+56]
  004aa	8b cf		 mov	 ecx, edi
  004ac	ff 50 08	 call	 DWORD PTR [eax+8]
  004af	85 c0		 test	 eax, eax
  004b1	74 1d		 je	 SHORT $L267606

; 479  : 			{
; 480  : 				m_nAttackType = CAT_BUFFTIME;
; 481  : 				m_cTimeBuff.Set( SEC(30) );

  004b3	6a 00		 push	 0
  004b5	68 00 60 ea 46	 push	 1189765120		; 46ea6000H
  004ba	8b cf		 mov	 ecx, edi
  004bc	c7 46 7c 03 00
	00 00		 mov	 DWORD PTR [esi+124], 3
  004c3	e8 00 00 00 00	 call	 ?Set@CTimer@@QAEXMH@Z	; CTimer::Set

; 482  : 				fArrivalRange = 10.0f;	

  004c8	c7 44 24 10 00
	00 20 41	 mov	 DWORD PTR _fArrivalRange$261846[esp+60], 1092616192 ; 41200000H
$L267606:

; 483  : 			}
; 484  : 				
; 485  : 			m_tmTrace = timeGetTime();		//   .

  004d0	ff 15 00 00 00
	00		 call	 DWORD PTR __imp__timeGetTime@0

; 486  : 			m_nEvent = EPT_TRACKING;		//  .
; 487  : 			pMover->CMD_SetMeleeAttack( m_idTarget, fArrivalRange );		//  this   .

  004d6	8b 4c 24 10	 mov	 ecx, DWORD PTR _fArrivalRange$261846[esp+60]
  004da	8b 96 90 00 00
	00		 mov	 edx, DWORD PTR [esi+144]
  004e0	51		 push	 ecx
  004e1	52		 push	 edx
  004e2	8b cd		 mov	 ecx, ebp
  004e4	89 86 88 00 00
	00		 mov	 DWORD PTR [esi+136], eax
  004ea	c7 46 78 03 00
	00 00		 mov	 DWORD PTR [esi+120], 3
  004f1	e8 00 00 00 00	 call	 ?CMD_SetMeleeAttack@CMover@@QAEXKM@Z ; CMover::CMD_SetMeleeAttack

; 488  : 
; 489  : #ifdef __INTERNALSERVER
; 490  : 			{
; 491  : 				CString strType;
; 492  : 				switch( m_nAttackType )
; 493  : 				{
; 494  : 				case CAT_NORMAL:		strType = "";	break;
; 495  : 				case CAT_LOOT:		strType = "-";	break;
; 496  : 				case CAT_BUFFTIME:		strType = " ";	break;
; 497  : 				}
; 498  : 				CString str;
; 499  : 				str.Format( "AtkType:%s Dist:%5.2f", strType, sqrt(fDistSq) );
; 500  : 				DEBUGOUT2( str, "boss(CAIBear).txt" );
; 501  : 			}
; 502  : #endif							
; 503  : 		} else	//   .
; 504  : 		{
; 505  : 			//    .
; 506  : 		}
; 507  : 	}
; 508  : 
; 509  : 	return TRUE;

  004f6	b8 01 00 00 00	 mov	 eax, 1

; 510  : }

  004fb	5f		 pop	 edi
  004fc	5e		 pop	 esi
  004fd	5d		 pop	 ebp
  004fe	5b		 pop	 ebx
  004ff	83 c4 2c	 add	 esp, 44			; 0000002cH
  00502	c3		 ret	 0
$L261848:

; 469  : 				}
; 470  : 			} 
; 471  : 			else
; 472  : 			{
; 473  : 				//    .
; 474  : 				m_idTarget = NULL_ID;

  00503	89 9e 90 00 00
	00		 mov	 DWORD PTR [esi+144], ebx
$L261841:

; 510  : }

  00509	5f		 pop	 edi
  0050a	5e		 pop	 esi
  0050b	5d		 pop	 ebp
  0050c	33 c0		 xor	 eax, eax
  0050e	5b		 pop	 ebx
  0050f	83 c4 2c	 add	 esp, 44			; 0000002cH
  00512	c3		 ret	 0
?MoveProcessRage@CAIBear@@AAEHXZ ENDP			; CAIBear::MoveProcessRage
_TEXT	ENDS
PUBLIC	?StateRage@CAIBear@@QAEHABUAIMSG@@@Z		; CAIBear::StateRage
PUBLIC	__real@40800000
PUBLIC	??_C@_0DE@LJNKFOIH@CAIBear?3?3StateRage?5?9?5AIMSG_ARRIV@ ; `string'
PUBLIC	??_C@_0CL@FACONPFG@CAIBear?3?3StateRage?5?3?5AIMSG_ATTAC@ ; `string'
EXTRN	?xRandomF@@YAMM@Z:NEAR				; xRandomF
EXTRN	?GetName@CMover@@QAEPBDH@Z:NEAR			; CMover::GetName
EXTRN	?g_UserMng@@3VCUserMng@@A:BYTE			; g_UserMng
EXTRN	?AddWorldShout@CUserMng@@QAEXPBD0UD3DXVECTOR3@@PAVCWorld@@@Z:NEAR ; CUserMng::AddWorldShout
;	COMDAT ??_C@_0DE@LJNKFOIH@CAIBear?3?3StateRage?5?9?5AIMSG_ARRIV@
; File c:\documents and settings\test\mes documents\source\virtuos_v17\build\program\dx_sdk\d3dx9math.h
CONST	SEGMENT
??_C@_0DE@LJNKFOIH@CAIBear?3?3StateRage?5?9?5AIMSG_ARRIV@ DB 'CAIBear::St'
	DB	'ateRage - AIMSG_ARRIVAL m_nAttackType=%d', 00H ; `string'
CONST	ENDS
;	COMDAT __real@40800000
CONST	SEGMENT
__real@40800000 DD 040800000r			; 4
CONST	ENDS
;	COMDAT ??_C@_0CL@FACONPFG@CAIBear?3?3StateRage?5?3?5AIMSG_ATTAC@
CONST	SEGMENT
??_C@_0CL@FACONPFG@CAIBear?3?3StateRage?5?3?5AIMSG_ATTAC@ DB 'CAIBear::St'
	DB	'ateRage : AIMSG_ATTACK_MELEE %d', 00H	; `string'
; Function compile flags: /Ogty
; File c:\documents and settings\test\mes documents\source\virtuos_v17\build\program\_aiinterface\aibear.cpp
CONST	ENDS
;	COMDAT ?StateRage@CAIBear@@QAEHABUAIMSG@@@Z
_TEXT	SEGMENT
_vPos$261904 = -24					; size = 12
$T267612 = -12						; size = 12
_msg$ = 8						; size = 4
?StateRage@CAIBear@@QAEHABUAIMSG@@@Z PROC NEAR		; CAIBear::StateRage, COMDAT
; _this$ = ecx

; 516  : {

  00000	83 ec 18	 sub	 esp, 24			; 00000018H
  00003	53		 push	 ebx
  00004	55		 push	 ebp
  00005	56		 push	 esi
  00006	8b f1		 mov	 esi, ecx

; 517  : 	CMover* pMover = GetMover();
; 518  : 	CWorld* pWorld = GetWorld();
; 519  : 	
; 520  : 	BeginAIHandler( )
; 521  : 		
; 522  : 	///////////////////////////////////////////////////////////////////////////////////////////////////
; 523  : 	OnMessage( AIMSG_INIT ) 

  00008	8b 4c 24 28	 mov	 ecx, DWORD PTR _msg$[esp+32]
  0000c	8b 01		 mov	 eax, DWORD PTR [ecx]
  0000e	bd 01 00 00 00	 mov	 ebp, 1
  00013	3b c5		 cmp	 eax, ebp
  00015	57		 push	 edi
  00016	8b 7e 30	 mov	 edi, DWORD PTR [esi+48]

; 524  : 
; 525  : 	///////////////////////////////////////////////////////////////////////////////////////////////////
; 526  : 	OnMessage( AIMSG_PROCESS ) 

  00019	0f 84 8b 02 00
	00		 je	 $L261925
  0001f	83 f8 02	 cmp	 eax, 2
  00022	75 13		 jne	 SHORT $L261867

; 527  : 		MoveProcessRage();

  00024	8b ce		 mov	 ecx, esi
  00026	e8 00 00 00 00	 call	 ?MoveProcessRage@CAIBear@@AAEHXZ ; CAIBear::MoveProcessRage

; 649  : 				
; 650  : 		
; 651  : 	///////////////////////////////////////////////////////////////////////////////////////////////////
; 652  : 	OnMessage( AIMSG_EXIT )	

  0002b	8b c5		 mov	 eax, ebp

; 653  : //		SendAIMsg( AIMSG_SETPROCESS, FALSE );
; 654  : 	
; 655  : 	EndAIHandler( )
; 656  : 	return TRUE;
; 657  : }

  0002d	5f		 pop	 edi
  0002e	5e		 pop	 esi
  0002f	5d		 pop	 ebp
  00030	5b		 pop	 ebx
  00031	83 c4 18	 add	 esp, 24			; 00000018H
  00034	c2 04 00	 ret	 4
$L261867:

; 528  : 		
; 529  : 	///////////////////////////////////////////////////////////////////////////////////////////////////
; 530  : 	OnMessage( AIMSG_DAMAGE ) 

  00037	83 f8 08	 cmp	 eax, 8
  0003a	75 15		 jne	 SHORT $L261869

; 531  : 		//      .  .
; 532  : 		m_idLastAttacker = msg.dwParam1;

  0003c	8b 41 04	 mov	 eax, DWORD PTR [ecx+4]
  0003f	89 86 a4 00 00
	00		 mov	 DWORD PTR [esi+164], eax

; 649  : 				
; 650  : 		
; 651  : 	///////////////////////////////////////////////////////////////////////////////////////////////////
; 652  : 	OnMessage( AIMSG_EXIT )	

  00045	8b c5		 mov	 eax, ebp

; 653  : //		SendAIMsg( AIMSG_SETPROCESS, FALSE );
; 654  : 	
; 655  : 	EndAIHandler( )
; 656  : 	return TRUE;
; 657  : }

  00047	5f		 pop	 edi
  00048	5e		 pop	 esi
  00049	5d		 pop	 ebp
  0004a	5b		 pop	 ebx
  0004b	83 c4 18	 add	 esp, 24			; 00000018H
  0004e	c2 04 00	 ret	 4
$L261869:

; 533  : 	
; 534  : 	///////////////////////////////////////////////////////////////////////////////////////////////////
; 535  : 	OnMessage( AIMSG_DIE ) 

  00051	83 f8 09	 cmp	 eax, 9
  00054	75 1b		 jne	 SHORT $L261871

; 536  : 		SendAIMsg( AIMSG_EXIT );

  00056	8b 16		 mov	 edx, DWORD PTR [esi]
  00058	6a 00		 push	 0
  0005a	6a 00		 push	 0
  0005c	6a 00		 push	 0
  0005e	6a 12		 push	 18			; 00000012H
  00060	8b ce		 mov	 ecx, esi
  00062	ff 52 0c	 call	 DWORD PTR [edx+12]

; 649  : 				
; 650  : 		
; 651  : 	///////////////////////////////////////////////////////////////////////////////////////////////////
; 652  : 	OnMessage( AIMSG_EXIT )	

  00065	8b c5		 mov	 eax, ebp

; 653  : //		SendAIMsg( AIMSG_SETPROCESS, FALSE );
; 654  : 	
; 655  : 	EndAIHandler( )
; 656  : 	return TRUE;
; 657  : }

  00067	5f		 pop	 edi
  00068	5e		 pop	 esi
  00069	5d		 pop	 ebp
  0006a	5b		 pop	 ebx
  0006b	83 c4 18	 add	 esp, 24			; 00000018H
  0006e	c2 04 00	 ret	 4
$L261871:

; 537  : 	
; 538  : 	///////////////////////////////////////////////////////////////////////////////////////////////////
; 539  : 	OnMessage( AIMSG_COLLISION )

  00071	83 f8 0a	 cmp	 eax, 10			; 0000000aH

; 540  : 		
; 541  : 	///////////////////////////////////////////////////////////////////////////////////////////////////
; 542  : 	OnMessage( AIMSG_ARRIVAL )

  00074	0f 84 30 02 00
	00		 je	 $L261925
  0007a	83 f8 0b	 cmp	 eax, 11			; 0000000bH
  0007d	0f 85 b5 01 00
	00		 jne	 $L261875

; 543  : 	{
; 544  : 		OBJMSG	dwMsg = OBJMSG_NONE;
; 545  : 		DWORD	dwItemID = 0;
; 546  : 		MoverProp	*pProp = pMover->GetProp();

  00083	8b cf		 mov	 ecx, edi
  00085	e8 00 00 00 00	 call	 ?GetPropA@CMover@@QAEPAUMoverProp@@XZ ; CMover::GetPropA

; 547  : 		//     .
; 548  : 		switch( m_nAttackType )

  0008a	8b 4e 7c	 mov	 ecx, DWORD PTR [esi+124]
  0008d	8b d8		 mov	 ebx, eax
  0008f	8b c1		 mov	 eax, ecx
  00091	48		 dec	 eax
  00092	74 3d		 je	 SHORT $L261883
  00094	48		 dec	 eax
  00095	74 2d		 je	 SHORT $L261886
  00097	48		 dec	 eax
  00098	74 1d		 je	 SHORT $L261887

; 562  : 		default:
; 563  : 			Error( "CAIBear::StateRage - AIMSG_ARRIVAL m_nAttackType=%d", m_nAttackType );

  0009a	51		 push	 ecx
  0009b	68 00 00 00 00	 push	 OFFSET FLAT:??_C@_0DE@LJNKFOIH@CAIBear?3?3StateRage?5?9?5AIMSG_ARRIV@
  000a0	e8 00 00 00 00	 call	 ?Error@@YAPBDPBDZZ	; Error
  000a5	83 c4 08	 add	 esp, 8

; 641  : 		m_nEvent = EPT_MOVING;		//   / .

  000a8	89 6e 78	 mov	 DWORD PTR [esi+120], ebp

; 649  : 				
; 650  : 		
; 651  : 	///////////////////////////////////////////////////////////////////////////////////////////////////
; 652  : 	OnMessage( AIMSG_EXIT )	

  000ab	8b c5		 mov	 eax, ebp

; 653  : //		SendAIMsg( AIMSG_SETPROCESS, FALSE );
; 654  : 	
; 655  : 	EndAIHandler( )
; 656  : 	return TRUE;
; 657  : }

  000ad	5f		 pop	 edi
  000ae	5e		 pop	 esi
  000af	5d		 pop	 ebp
  000b0	5b		 pop	 ebx
  000b1	83 c4 18	 add	 esp, 24			; 00000018H
  000b4	c2 04 00	 ret	 4
$L261887:

; 561  : 		case CAT_BUFFTIME:		 dwMsg = OBJMSG_ATK4;	dwItemID = pProp->dwAtk3;	break;

  000b7	8b 9b b8 00 00
	00		 mov	 ebx, DWORD PTR [ebx+184]
  000bd	b8 20 00 00 00	 mov	 eax, 32			; 00000020H
  000c2	eb 2a		 jmp	 SHORT $L267643
$L261886:

; 558  : 			}
; 559  : 			break;
; 560  : 		case CAT_LOOT:			 dwMsg = OBJMSG_ATK3;	dwItemID = pProp->dwAtk2;	break;

  000c4	8b 9b b4 00 00
	00		 mov	 ebx, DWORD PTR [ebx+180]
  000ca	b8 1f 00 00 00	 mov	 eax, 31			; 0000001fH
  000cf	eb 1d		 jmp	 SHORT $L267643
$L261883:

; 549  : 		{
; 550  : 		case CAT_NORMAL:
; 551  : 			{
; 552  : 				if( xRandom(2) )

  000d1	6a 02		 push	 2
  000d3	e8 00 00 00 00	 call	 ?xRandom@@YAKK@Z	; xRandom

; 553  : 					dwMsg = OBJMSG_ATK1;
; 554  : 				else
; 555  : 					dwMsg = OBJMSG_ATK2;
; 556  : 				
; 557  : 				dwItemID = pProp->dwAtk1;

  000d8	8b 9b b0 00 00
	00		 mov	 ebx, DWORD PTR [ebx+176]
  000de	83 c4 04	 add	 esp, 4
  000e1	f7 d8		 neg	 eax
  000e3	1b c0		 sbb	 eax, eax
  000e5	83 c0 1e	 add	 eax, 30			; 0000001eH

; 564  : 		}
; 565  : 
; 566  : 		if( dwMsg )

  000e8	0f 84 7c 01 00
	00		 je	 $L261890
$L267643:

; 567  : 		{
; 568  : 			if( m_idTarget != NULL_ID )

  000ee	8b 8e 90 00 00
	00		 mov	 ecx, DWORD PTR [esi+144]
  000f4	83 f9 ff	 cmp	 ecx, -1
  000f7	0f 84 ad 01 00
	00		 je	 $L261925

; 569  : 			{
; 570  : 				if( pMover->DoAttackMelee( m_idTarget, dwMsg, dwItemID ) == 1 )

  000fd	53		 push	 ebx
  000fe	50		 push	 eax
  000ff	51		 push	 ecx
  00100	8b cf		 mov	 ecx, edi
  00102	e8 00 00 00 00	 call	 ?DoAttackMelee@CMover@@QAEHKW4OBJMSG@@K@Z ; CMover::DoAttackMelee
  00107	3b c5		 cmp	 eax, ebp
  00109	0f 85 5b 01 00
	00		 jne	 $L261890

; 571  : 				{
; 572  : 					m_nEvent = EPT_ATTACKING;		//  .

  0010f	c7 46 78 02 00
	00 00		 mov	 DWORD PTR [esi+120], 2

; 573  : 					m_tmTimeOver = timeGetTime();	//   

  00116	ff 15 00 00 00
	00		 call	 DWORD PTR __imp__timeGetTime@0
  0011c	89 86 8c 00 00
	00		 mov	 DWORD PTR [esi+140], eax

; 574  : 
; 575  : 					CMover *pTarget = NULL;
; 576  : 					pTarget = prj.GetMover( m_idTarget );

  00122	8b 86 90 00 00
	00		 mov	 eax, DWORD PTR [esi+144]
  00128	50		 push	 eax
  00129	b9 00 00 00 00	 mov	 ecx, OFFSET FLAT:?prj@@3VCProject@@A
  0012e	e8 00 00 00 00	 call	 ?GetMover@CProject@@QAEPAVCMover@@K@Z ; CProject::GetMover
  00133	8b d8		 mov	 ebx, eax

; 577  : 					
; 578  : 					//  
; 579  : 					//    .
; 580  : 					switch( m_nAttackType )

  00135	8b 46 7c	 mov	 eax, DWORD PTR [esi+124]
  00138	83 e8 02	 sub	 eax, 2
  0013b	0f 84 9f 00 00
	00		 je	 $L261899
  00141	48		 dec	 eax
  00142	0f 85 62 01 00
	00		 jne	 $L261925

; 590  : 						}
; 591  : 						break;
; 592  : 					case CAT_BUFFTIME:
; 593  : 						{
; 594  : 							g_DPCoreClient.SendCaption( prj.GetText(TID_GAME_BOSS_MUSHMOOT_MSG_03), pMover->GetWorld()->GetID() );

  00148	8b 8f 6c 01 00
	00		 mov	 ecx, DWORD PTR [edi+364]
  0014e	8b 01		 mov	 eax, DWORD PTR [ecx]
  00150	6a 00		 push	 0
  00152	50		 push	 eax
  00153	68 d8 0b 00 00	 push	 3032			; 00000bd8H
  00158	b9 00 00 00 00	 mov	 ecx, OFFSET FLAT:?prj@@3VCProject@@A
  0015d	e8 00 00 00 00	 call	 ?GetText@CProject@@QAEPBDK@Z ; CProject::GetText
  00162	50		 push	 eax
  00163	b9 00 00 00 00	 mov	 ecx, OFFSET FLAT:?g_DPCoreClient@@3VCDPCoreClient@@A
  00168	e8 00 00 00 00	 call	 ?SendCaption@CDPCoreClient@@QAEXPBDKH@Z ; CDPCoreClient::SendCaption

; 595  : 
; 596  : 							// 
; 597  : 							int nCount = 3;
; 598  : 							D3DXVECTOR3 vLocal;
; 599  : 							D3DXVECTOR3 vPos = pTarget->GetPos();

  0016d	8d 54 24 10	 lea	 edx, DWORD PTR _vPos$261904[esp+40]
  00171	52		 push	 edx
  00172	8b cb		 mov	 ecx, ebx
  00174	e8 00 00 00 00	 call	 ?GetPos@CObj@@QAE?AUD3DXVECTOR3@@XZ ; CObj::GetPos
  00179	8b 5c 24 14	 mov	 ebx, DWORD PTR _vPos$261904[esp+44]
  0017d	bf 03 00 00 00	 mov	 edi, 3
$L261907:

; 600  : 							while( nCount-- )
; 601  : 							{
; 602  : 								vPos.x += xRandomF( 9.0f ) + -4.0f;

  00182	68 00 00 10 41	 push	 1091567616		; 41100000H
  00187	e8 00 00 00 00	 call	 ?xRandomF@@YAMM@Z	; xRandomF
  0018c	d8 44 24 14	 fadd	 DWORD PTR _vPos$261904[esp+44]

; 603  : 								vPos.z += xRandomF( 9.0f ) + -4.0f;

  00190	68 00 00 10 41	 push	 1091567616		; 41100000H
  00195	d8 25 00 00 00
	00		 fsub	 DWORD PTR __real@40800000
  0019b	d9 5c 24 18	 fstp	 DWORD PTR _vPos$261904[esp+48]
  0019f	e8 00 00 00 00	 call	 ?xRandomF@@YAMM@Z	; xRandomF
  001a4	d8 44 24 20	 fadd	 DWORD PTR _vPos$261904[esp+56]

; 604  : 								SummonMonster( MI_SMALL_MUSHPOIE, vPos );

  001a8	51		 push	 ecx
  001a9	8b 4c 24 1c	 mov	 ecx, DWORD PTR _vPos$261904[esp+52]
  001ad	8b c4		 mov	 eax, esp
  001af	d8 25 00 00 00
	00		 fsub	 DWORD PTR __real@40800000
  001b5	89 08		 mov	 DWORD PTR [eax], ecx
  001b7	89 58 04	 mov	 DWORD PTR [eax+4], ebx
  001ba	68 a8 00 00 00	 push	 168			; 000000a8H
  001bf	d9 5c 24 28	 fstp	 DWORD PTR _vPos$261904[esp+64]
  001c3	8b 54 24 28	 mov	 edx, DWORD PTR _vPos$261904[esp+64]
  001c7	8b ce		 mov	 ecx, esi
  001c9	89 50 08	 mov	 DWORD PTR [eax+8], edx
  001cc	e8 00 00 00 00	 call	 ?SummonMonster@CAIBear@@QAEXKUD3DXVECTOR3@@@Z ; CAIBear::SummonMonster
  001d1	4f		 dec	 edi
  001d2	75 ae		 jne	 SHORT $L261907

; 649  : 				
; 650  : 		
; 651  : 	///////////////////////////////////////////////////////////////////////////////////////////////////
; 652  : 	OnMessage( AIMSG_EXIT )	

  001d4	8b c5		 mov	 eax, ebp

; 653  : //		SendAIMsg( AIMSG_SETPROCESS, FALSE );
; 654  : 	
; 655  : 	EndAIHandler( )
; 656  : 	return TRUE;
; 657  : }

  001d6	5f		 pop	 edi
  001d7	5e		 pop	 esi
  001d8	5d		 pop	 ebp
  001d9	5b		 pop	 ebx
  001da	83 c4 18	 add	 esp, 24			; 00000018H
  001dd	c2 04 00	 ret	 4
$L261899:

; 581  : 					{
; 582  : 					case CAT_NORMAL:	
; 583  : 						{
; 584  : 						}
; 585  : 						break;
; 586  : 					case CAT_LOOT:
; 587  : 						{
; 588  : 							g_UserMng.AddWorldShout( pMover->GetName(), prj.GetText(TID_GAME_BOSS_MUSHMOOT_MSG_02),
; 589  : 								pMover->GetPos(), pMover->GetWorld() );

  001e0	8b b7 6c 01 00
	00		 mov	 esi, DWORD PTR [edi+364]
  001e6	8d 44 24 1c	 lea	 eax, DWORD PTR $T267612[esp+40]
  001ea	50		 push	 eax
  001eb	8b cf		 mov	 ecx, edi
  001ed	e8 00 00 00 00	 call	 ?GetPos@CObj@@QAE?AUD3DXVECTOR3@@XZ ; CObj::GetPos
  001f2	8b 10		 mov	 edx, DWORD PTR [eax]
  001f4	56		 push	 esi
  001f5	83 ec 0c	 sub	 esp, 12			; 0000000cH
  001f8	8b cc		 mov	 ecx, esp
  001fa	89 11		 mov	 DWORD PTR [ecx], edx
  001fc	8b 50 04	 mov	 edx, DWORD PTR [eax+4]
  001ff	8b 40 08	 mov	 eax, DWORD PTR [eax+8]
  00202	89 51 04	 mov	 DWORD PTR [ecx+4], edx
  00205	89 41 08	 mov	 DWORD PTR [ecx+8], eax
  00208	68 d7 0b 00 00	 push	 3031			; 00000bd7H
  0020d	b9 00 00 00 00	 mov	 ecx, OFFSET FLAT:?prj@@3VCProject@@A
  00212	e8 00 00 00 00	 call	 ?GetText@CProject@@QAEPBDK@Z ; CProject::GetText
  00217	50		 push	 eax
  00218	6a 00		 push	 0
  0021a	8b cf		 mov	 ecx, edi
  0021c	e8 00 00 00 00	 call	 ?GetName@CMover@@QAEPBDH@Z ; CMover::GetName
  00221	50		 push	 eax
  00222	b9 00 00 00 00	 mov	 ecx, OFFSET FLAT:?g_UserMng@@3VCUserMng@@A
  00227	e8 00 00 00 00	 call	 ?AddWorldShout@CUserMng@@QAEXPBD0UD3DXVECTOR3@@PAVCWorld@@@Z ; CUserMng::AddWorldShout

; 649  : 				
; 650  : 		
; 651  : 	///////////////////////////////////////////////////////////////////////////////////////////////////
; 652  : 	OnMessage( AIMSG_EXIT )	

  0022c	8b c5		 mov	 eax, ebp

; 653  : //		SendAIMsg( AIMSG_SETPROCESS, FALSE );
; 654  : 	
; 655  : 	EndAIHandler( )
; 656  : 	return TRUE;
; 657  : }

  0022e	5f		 pop	 edi
  0022f	5e		 pop	 esi
  00230	5d		 pop	 ebp
  00231	5b		 pop	 ebx
  00232	83 c4 18	 add	 esp, 24			; 00000018H
  00235	c2 04 00	 ret	 4
$L261875:

; 605  : 							}							
; 606  : 						}
; 607  : 						break;
; 608  : 					}
; 609  : 					
; 610  : 				} else
; 611  : 					m_nEvent = EPT_MOVING;			//     .
; 612  : 			}
; 613  : 		} else
; 614  : 			m_nEvent = EPT_MOVING;		//  .  .
; 615  : 	}
; 616  : 
; 617  : 	
; 618  : 
; 619  : 	///////////////////////////////////////////////////////////////////////////////////////////////////
; 620  : 	OnMessage( AIMSG_ATTACK_MELEE )

  00238	83 f8 0e	 cmp	 eax, 14			; 0000000eH
  0023b	75 28		 jne	 SHORT $L261912

; 621  : 		switch( m_nAttackType )			//   .

  0023d	8b 76 7c	 mov	 esi, DWORD PTR [esi+124]
  00240	8b c6		 mov	 eax, esi
  00242	48		 dec	 eax
  00243	74 65		 je	 SHORT $L261925
  00245	48		 dec	 eax
  00246	74 62		 je	 SHORT $L261925
  00248	48		 dec	 eax
  00249	74 5f		 je	 SHORT $L261925

; 622  : 		{
; 623  : 		case CAT_NORMAL:
; 624  : 			//    .
; 625  : 			//   ;
; 626  : 			//  ;
; 627  : 			break;
; 628  : 		case CAT_LOOT:
; 629  : 			//   ;
; 630  : 			break;
; 631  : 		case CAT_BUFFTIME:		//   .
; 632  : 			//  ;
; 633  : 			break;
; 634  : 		default:
; 635  : 			Error( "CAIBear::StateRage : AIMSG_ATTACK_MELEE %d", m_nAttackType );

  0024b	56		 push	 esi
  0024c	68 00 00 00 00	 push	 OFFSET FLAT:??_C@_0CL@FACONPFG@CAIBear?3?3StateRage?5?3?5AIMSG_ATTAC@
  00251	e8 00 00 00 00	 call	 ?Error@@YAPBDPBDZZ	; Error
  00256	83 c4 08	 add	 esp, 8

; 649  : 				
; 650  : 		
; 651  : 	///////////////////////////////////////////////////////////////////////////////////////////////////
; 652  : 	OnMessage( AIMSG_EXIT )	

  00259	8b c5		 mov	 eax, ebp

; 653  : //		SendAIMsg( AIMSG_SETPROCESS, FALSE );
; 654  : 	
; 655  : 	EndAIHandler( )
; 656  : 	return TRUE;
; 657  : }

  0025b	5f		 pop	 edi
  0025c	5e		 pop	 esi
  0025d	5d		 pop	 ebp
  0025e	5b		 pop	 ebx
  0025f	83 c4 18	 add	 esp, 24			; 00000018H
  00262	c2 04 00	 ret	 4
$L261912:

; 636  : 			break;
; 637  : 		}
; 638  : 	
; 639  : 	///////////////////////////////////////////////////////////////////////////////////////////////////
; 640  : 	OnMessage( AIMSG_END_APPEAR )	

  00265	83 f8 10	 cmp	 eax, 16			; 00000010H
  00268	75 0f		 jne	 SHORT $L261923
$L261890:

; 641  : 		m_nEvent = EPT_MOVING;		//   / .

  0026a	89 6e 78	 mov	 DWORD PTR [esi+120], ebp

; 649  : 				
; 650  : 		
; 651  : 	///////////////////////////////////////////////////////////////////////////////////////////////////
; 652  : 	OnMessage( AIMSG_EXIT )	

  0026d	8b c5		 mov	 eax, ebp

; 653  : //		SendAIMsg( AIMSG_SETPROCESS, FALSE );
; 654  : 	
; 655  : 	EndAIHandler( )
; 656  : 	return TRUE;
; 657  : }

  0026f	5f		 pop	 edi
  00270	5e		 pop	 esi
  00271	5d		 pop	 ebp
  00272	5b		 pop	 ebx
  00273	83 c4 18	 add	 esp, 24			; 00000018H
  00276	c2 04 00	 ret	 4
$L261923:

; 642  : 
; 643  : 	///////////////////////////////////////////////////////////////////////////////////////////////////
; 644  : 	OnMessage( AIMSG_END_MELEEATTACK )	

  00279	83 f8 0f	 cmp	 eax, 15			; 0000000fH
  0027c	75 2c		 jne	 SHORT $L261925

; 645  : 		m_nEvent = EPT_MOVING;				//  .

  0027e	89 6e 78	 mov	 DWORD PTR [esi+120], ebp

; 646  : 		m_tmReattack = timeGetTime();		//   ;

  00281	ff 15 00 00 00
	00		 call	 DWORD PTR __imp__timeGetTime@0

; 647  : 		m_tmAddReattack = xRandom( 2000 );	// x     .

  00287	68 d0 07 00 00	 push	 2000			; 000007d0H
  0028c	89 86 80 00 00
	00		 mov	 DWORD PTR [esi+128], eax
  00292	e8 00 00 00 00	 call	 ?xRandom@@YAKK@Z	; xRandom
  00297	83 c4 04	 add	 esp, 4
  0029a	89 86 84 00 00
	00		 mov	 DWORD PTR [esi+132], eax

; 648  : 		m_idTarget = NULL_ID;				//  .

  002a0	c7 86 90 00 00
	00 ff ff ff ff	 mov	 DWORD PTR [esi+144], -1
$L261925:

; 653  : //		SendAIMsg( AIMSG_SETPROCESS, FALSE );
; 654  : 	
; 655  : 	EndAIHandler( )
; 656  : 	return TRUE;
; 657  : }

  002aa	5f		 pop	 edi
  002ab	5e		 pop	 esi
  002ac	8b c5		 mov	 eax, ebp
  002ae	5d		 pop	 ebp
  002af	5b		 pop	 ebx
  002b0	83 c4 18	 add	 esp, 24			; 00000018H
  002b3	c2 04 00	 ret	 4
?StateRage@CAIBear@@QAEHABUAIMSG@@@Z ENDP		; CAIBear::StateRage
_TEXT	ENDS
CRT$XCU	SEGMENT
_$S2	DD	FLAT:_$E1
; Function compile flags: /Ogty
CRT$XCU	ENDS
;	COMDAT _$E1
text$yc	SEGMENT
_$E1	PROC NEAR					; COMDAT

; 38   : 	ON_STATE( STATE_INIT   , StateInit   )

  00000	b8 00 00 00 00	 mov	 eax, OFFSET FLAT:?StateInit@CAIBear@@QAEHABUAIMSG@@@Z ; CAIBear::StateInit
  00005	a3 08 00 00 00	 mov	 DWORD PTR ?stateMapEntries@CAIBear@@2QBUSTATEMAP_ENTRIES@@B+8, eax

; 39   : 	ON_STATE( STATE_IDLE   , StateIdle   )

  0000a	b8 00 00 00 00	 mov	 eax, OFFSET FLAT:?StateIdle@CAIBear@@QAEHABUAIMSG@@@Z ; CAIBear::StateIdle
  0000f	a3 20 00 00 00	 mov	 DWORD PTR ?stateMapEntries@CAIBear@@2QBUSTATEMAP_ENTRIES@@B+32, eax
  00014	56		 push	 esi
  00015	33 f6		 xor	 esi, esi

; 40   : 	ON_STATE( STATE_RAGE   , StateRage   )

  00017	b8 00 00 00 00	 mov	 eax, OFFSET FLAT:?StateRage@CAIBear@@QAEHABUAIMSG@@@Z ; CAIBear::StateRage
  0001c	a3 38 00 00 00	 mov	 DWORD PTR ?stateMapEntries@CAIBear@@2QBUSTATEMAP_ENTRIES@@B+56, eax
  00021	33 c9		 xor	 ecx, ecx
  00023	33 d2		 xor	 edx, edx

; 41   : 	ON_STATE( STATE_SUPER_RAGE   , StateRage   )

  00025	b8 00 00 00 00	 mov	 eax, OFFSET FLAT:?StateRage@CAIBear@@QAEHABUAIMSG@@@Z ; CAIBear::StateRage
  0002a	89 35 14 00 00
	00		 mov	 DWORD PTR ?stateMapEntries@CAIBear@@2QBUSTATEMAP_ENTRIES@@B+20, esi
  00030	89 35 2c 00 00
	00		 mov	 DWORD PTR ?stateMapEntries@CAIBear@@2QBUSTATEMAP_ENTRIES@@B+44, esi
  00036	89 35 44 00 00
	00		 mov	 DWORD PTR ?stateMapEntries@CAIBear@@2QBUSTATEMAP_ENTRIES@@B+68, esi
  0003c	89 35 5c 00 00
	00		 mov	 DWORD PTR ?stateMapEntries@CAIBear@@2QBUSTATEMAP_ENTRIES@@B+92, esi

; 42   : //	ON_STATE( STATE_RUNAWAY, StateRunaway  )
; 43   : 
; 44   : END_AISTATE_MAP()

  00042	83 ce ff	 or	 esi, -1
  00045	a3 50 00 00 00	 mov	 DWORD PTR ?stateMapEntries@CAIBear@@2QBUSTATEMAP_ENTRIES@@B+80, eax
  0004a	33 c0		 xor	 eax, eax
  0004c	89 35 74 00 00
	00		 mov	 DWORD PTR ?stateMapEntries@CAIBear@@2QBUSTATEMAP_ENTRIES@@B+116, esi
  00052	89 0d 0c 00 00
	00		 mov	 DWORD PTR ?stateMapEntries@CAIBear@@2QBUSTATEMAP_ENTRIES@@B+12, ecx
  00058	89 15 10 00 00
	00		 mov	 DWORD PTR ?stateMapEntries@CAIBear@@2QBUSTATEMAP_ENTRIES@@B+16, edx
  0005e	89 0d 24 00 00
	00		 mov	 DWORD PTR ?stateMapEntries@CAIBear@@2QBUSTATEMAP_ENTRIES@@B+36, ecx
  00064	89 15 28 00 00
	00		 mov	 DWORD PTR ?stateMapEntries@CAIBear@@2QBUSTATEMAP_ENTRIES@@B+40, edx
  0006a	89 0d 3c 00 00
	00		 mov	 DWORD PTR ?stateMapEntries@CAIBear@@2QBUSTATEMAP_ENTRIES@@B+60, ecx
  00070	89 15 40 00 00
	00		 mov	 DWORD PTR ?stateMapEntries@CAIBear@@2QBUSTATEMAP_ENTRIES@@B+64, edx
  00076	89 0d 54 00 00
	00		 mov	 DWORD PTR ?stateMapEntries@CAIBear@@2QBUSTATEMAP_ENTRIES@@B+84, ecx
  0007c	89 15 58 00 00
	00		 mov	 DWORD PTR ?stateMapEntries@CAIBear@@2QBUSTATEMAP_ENTRIES@@B+88, edx
  00082	a3 68 00 00 00	 mov	 DWORD PTR ?stateMapEntries@CAIBear@@2QBUSTATEMAP_ENTRIES@@B+104, eax
  00087	89 0d 6c 00 00
	00		 mov	 DWORD PTR ?stateMapEntries@CAIBear@@2QBUSTATEMAP_ENTRIES@@B+108, ecx
  0008d	89 15 70 00 00
	00		 mov	 DWORD PTR ?stateMapEntries@CAIBear@@2QBUSTATEMAP_ENTRIES@@B+112, edx
  00093	5e		 pop	 esi
  00094	c3		 ret	 0
_$E1	ENDP
text$yc	ENDS
PUBLIC	?stateMapEntries@CAIBear@@2QBUSTATEMAP_ENTRIES@@B ; CAIBear::stateMapEntries
_DATA	SEGMENT
?stateMapEntries@CAIBear@@2QBUSTATEMAP_ENTRIES@@B DD 01H ; CAIBear::stateMapEntries
	ORG $+4
	DB	16 DUP(00H)
	DD	03H
	DB	20 DUP(00H)
	DD	04H
	DB	20 DUP(00H)
	DD	05H
	DB	20 DUP(00H)
	DD	00H
	ORG $+20
_DATA	ENDS
END
