; Listing generated by Microsoft (R) Optimizing Compiler Version 13.10.6030 

	TITLE	\Documents and Settings\test\Mes documents\Source\Virtuos_v17\Build\Program\_AIInterface\AIInterface.cpp
	.386P
include listing.inc
if @Version gt 510
.model FLAT
else
_TEXT	SEGMENT PARA USE32 PUBLIC 'CODE'
_TEXT	ENDS
_DATA	SEGMENT DWORD USE32 PUBLIC 'DATA'
_DATA	ENDS
CONST	SEGMENT DWORD USE32 PUBLIC 'CONST'
CONST	ENDS
_BSS	SEGMENT DWORD USE32 PUBLIC 'BSS'
_BSS	ENDS
$$SYMBOLS	SEGMENT BYTE USE32 'DEBSYM'
$$SYMBOLS	ENDS
$$TYPES	SEGMENT BYTE USE32 'DEBTYP'
$$TYPES	ENDS
_TLS	SEGMENT DWORD USE32 PUBLIC 'TLS'
_TLS	ENDS
;	COMDAT ??_C@_0BC@KBDMBKEH@deque?$DMT?$DO?5too?5long?$AA@
CONST	SEGMENT DWORD USE32 PUBLIC 'CONST'
CONST	ENDS
text$yc	SEGMENT PARA USE32 PUBLIC 'CODE'
text$yc	ENDS
CRT$XCA	SEGMENT DWORD USE32 PUBLIC 'DATA'
CRT$XCA	ENDS
CRT$XCU	SEGMENT DWORD USE32 PUBLIC 'DATA'
CRT$XCU	ENDS
CRT$XCL	SEGMENT DWORD USE32 PUBLIC 'DATA'
CRT$XCL	ENDS
CRT$XCC	SEGMENT DWORD USE32 PUBLIC 'DATA'
CRT$XCC	ENDS
CRT$XCZ	SEGMENT DWORD USE32 PUBLIC 'DATA'
CRT$XCZ	ENDS
xdata$x	SEGMENT DWORD USE32 PUBLIC 'CONST'
xdata$x	ENDS
text$AFX_COL1	SEGMENT PARA USE32 PUBLIC ''
text$AFX_COL1	ENDS
;	COMDAT ?SelectMemberClear@__GuildCombatMember@CGuildCombat@@QAEXXZ
_TEXT	SEGMENT PARA USE32 PUBLIC 'CODE'
_TEXT	ENDS
;	COMDAT ??0__MINIGAME_PACKET@@QAE@GHHH@Z
_TEXT	SEGMENT PARA USE32 PUBLIC 'CODE'
_TEXT	ENDS
;	COMDAT ?Serialize@__MINIGAME_PACKET@@UAEXAAVCAr@@@Z
_TEXT	SEGMENT PARA USE32 PUBLIC 'CODE'
_TEXT	ENDS
;	COMDAT ?Serialize@__MINIGAME_EXT_PACKET@@UAEXAAVCAr@@@Z
_TEXT	SEGMENT PARA USE32 PUBLIC 'CODE'
_TEXT	ENDS
;	COMDAT ??0MINIGMAME_PRIZE_LIST@CRainbowRaceMng@@QAE@KHK@Z
_TEXT	SEGMENT PARA USE32 PUBLIC 'CODE'
_TEXT	ENDS
;	COMDAT ?RemovePlayerId2CampusId@CCampusMng@@QAEXK@Z
_TEXT	SEGMENT PARA USE32 PUBLIC 'CODE'
_TEXT	ENDS
;	COMDAT ?GetStateMap@CAIInterface@@UBEPBUSTATEMAP@@XZ
_TEXT	SEGMENT PARA USE32 PUBLIC 'CODE'
_TEXT	ENDS
;	COMDAT _$E1
text$yc	SEGMENT PARA USE32 PUBLIC 'CODE'
text$yc	ENDS
;	COMDAT ??0CAIInterface@@QAE@XZ
_TEXT	SEGMENT PARA USE32 PUBLIC 'CODE'
_TEXT	ENDS
;	COMDAT ??_GCAIInterface@@UAEPAXI@Z
_TEXT	SEGMENT PARA USE32 PUBLIC 'CODE'
_TEXT	ENDS
;	COMDAT ??1?$queue@UAIMSG@@V?$deque@UAIMSG@@V?$allocator@UAIMSG@@@std@@@std@@@std@@QAE@XZ
_TEXT	SEGMENT PARA USE32 PUBLIC 'CODE'
_TEXT	ENDS
;	COMDAT ??0CAIInterface@@QAE@PAVCObj@@@Z
_TEXT	SEGMENT PARA USE32 PUBLIC 'CODE'
_TEXT	ENDS
;	COMDAT ??1CAIInterface@@UAE@XZ
_TEXT	SEGMENT PARA USE32 PUBLIC 'CODE'
_TEXT	ENDS
;	COMDAT ?GetAIStateFunc@CAIInterface@@AAEP81@AEHABUAIMSG@@@ZK@Z
_TEXT	SEGMENT PARA USE32 PUBLIC 'CODE'
_TEXT	ENDS
;	COMDAT ?RouteMessage@CAIInterface@@UAEXXZ
_TEXT	SEGMENT PARA USE32 PUBLIC 'CODE'
_TEXT	ENDS
;	COMDAT ?SendAIMsg@CAIInterface@@UAEXKKKK@Z
_TEXT	SEGMENT PARA USE32 PUBLIC 'CODE'
_TEXT	ENDS
;	COMDAT ?PostAIMsg@CAIInterface@@UAEXKKKK@Z
_TEXT	SEGMENT PARA USE32 PUBLIC 'CODE'
_TEXT	ENDS
;	COMDAT ?ScanTargetNext@CAIInterface@@IAEPAVCMover@@PAVCObj@@HKK@Z
_TEXT	SEGMENT PARA USE32 PUBLIC 'CODE'
_TEXT	ENDS
;	COMDAT ?ScanTarget@CAIInterface@@IAEPAVCMover@@PAVCObj@@HHKKH@Z
_TEXT	SEGMENT PARA USE32 PUBLIC 'CODE'
_TEXT	ENDS
;	COMDAT ?ScanTargetStrong@CAIInterface@@IAEPAVCMover@@PAVCObj@@M@Z
_TEXT	SEGMENT PARA USE32 PUBLIC 'CODE'
_TEXT	ENDS
;	COMDAT ?ScanTargetOverHealer@CAIInterface@@IAEPAVCMover@@PAVCObj@@M@Z
_TEXT	SEGMENT PARA USE32 PUBLIC 'CODE'
_TEXT	ENDS
;	COMDAT ?ScanTargetAggro@CAIInterface@@IAEPAVCMover@@PAVCObj@@MKK@Z
_TEXT	SEGMENT PARA USE32 PUBLIC 'CODE'
_TEXT	ENDS
;	COMDAT ?IsInRange@CAIInterface@@IAEHAAUD3DXVECTOR3@@M@Z
_TEXT	SEGMENT PARA USE32 PUBLIC 'CODE'
_TEXT	ENDS
;	COMDAT ?ScanTargetOverLeader@CAIInterface@@IAEPAVCMover@@PAVCObj@@MK@Z
_TEXT	SEGMENT PARA USE32 PUBLIC 'CODE'
_TEXT	ENDS
;	COMDAT ?ScanTargetOverParty@CAIInterface@@IAEPAVCMover@@PAVCObj@@MK@Z
_TEXT	SEGMENT PARA USE32 PUBLIC 'CODE'
_TEXT	ENDS
;	COMDAT ?ScanTargetOverAggro@CAIInterface@@IAEPAVCMover@@PAVCObj@@M@Z
_TEXT	SEGMENT PARA USE32 PUBLIC 'CODE'
_TEXT	ENDS
;	COMDAT ?IsState@CAIInterface@@UAEHH@Z
_TEXT	SEGMENT PARA USE32 PUBLIC 'CODE'
_TEXT	ENDS
;	COMDAT ?compare@?$basic_string@DU?$char_traits@D@std@@V?$allocator@D@2@@std@@QBEHABV12@@Z
_TEXT	SEGMENT PARA USE32 PUBLIC 'CODE'
_TEXT	ENDS
;	COMDAT ?IsFull@?$CStack@K@@QAEHXZ
_TEXT	SEGMENT PARA USE32 PUBLIC 'CODE'
_TEXT	ENDS
;	COMDAT ??A?$map@KPAVCCtrl@@U?$less@K@std@@V?$allocator@U?$pair@$$CBKPAVCCtrl@@@std@@@3@@std@@QAEAAPAVCCtrl@@ABK@Z
_TEXT	SEGMENT PARA USE32 PUBLIC 'CODE'
_TEXT	ENDS
;	COMDAT ??0?$pair@KPAVCCtrl@@@std@@QAE@ABKABQAVCCtrl@@@Z
_TEXT	SEGMENT PARA USE32 PUBLIC 'CODE'
_TEXT	ENDS
;	COMDAT ?GetMax@?$CItemContainer@VCItemElem@@@@QAEHXZ
_TEXT	SEGMENT PARA USE32 PUBLIC 'CODE'
_TEXT	ENDS
;	COMDAT ??0?$deque@PAUtagACTMSG@@V?$allocator@PAUtagACTMSG@@@std@@@std@@QAE@XZ
_TEXT	SEGMENT PARA USE32 PUBLIC 'CODE'
_TEXT	ENDS
;	COMDAT ??1?$deque@PAUtagACTMSG@@V?$allocator@PAUtagACTMSG@@@std@@@std@@QAE@XZ
_TEXT	SEGMENT PARA USE32 PUBLIC 'CODE'
_TEXT	ENDS
;	COMDAT ?begin@?$deque@PAUtagACTMSG@@V?$allocator@PAUtagACTMSG@@@std@@@std@@QAE?AViterator@12@XZ
_TEXT	SEGMENT PARA USE32 PUBLIC 'CODE'
_TEXT	ENDS
;	COMDAT ?end@?$deque@PAUtagACTMSG@@V?$allocator@PAUtagACTMSG@@@std@@@std@@QAE?AViterator@12@XZ
_TEXT	SEGMENT PARA USE32 PUBLIC 'CODE'
_TEXT	ENDS
;	COMDAT ?empty@?$deque@PAUtagACTMSG@@V?$allocator@PAUtagACTMSG@@@std@@@std@@QBE_NXZ
_TEXT	SEGMENT PARA USE32 PUBLIC 'CODE'
_TEXT	ENDS
;	COMDAT ?clear@?$deque@PAUtagACTMSG@@V?$allocator@PAUtagACTMSG@@@std@@@std@@QAEXXZ
_TEXT	SEGMENT PARA USE32 PUBLIC 'CODE'
_TEXT	ENDS
;	COMDAT ??0?$deque@PAUtagMAGICATKMSG@@V?$allocator@PAUtagMAGICATKMSG@@@std@@@std@@QAE@XZ
_TEXT	SEGMENT PARA USE32 PUBLIC 'CODE'
_TEXT	ENDS
;	COMDAT ??1?$deque@PAUtagMAGICATKMSG@@V?$allocator@PAUtagMAGICATKMSG@@@std@@@std@@QAE@XZ
_TEXT	SEGMENT PARA USE32 PUBLIC 'CODE'
_TEXT	ENDS
;	COMDAT ?begin@?$deque@PAUtagMAGICATKMSG@@V?$allocator@PAUtagMAGICATKMSG@@@std@@@std@@QAE?AViterator@12@XZ
_TEXT	SEGMENT PARA USE32 PUBLIC 'CODE'
_TEXT	ENDS
;	COMDAT ?end@?$deque@PAUtagMAGICATKMSG@@V?$allocator@PAUtagMAGICATKMSG@@@std@@@std@@QAE?AViterator@12@XZ
_TEXT	SEGMENT PARA USE32 PUBLIC 'CODE'
_TEXT	ENDS
;	COMDAT ?empty@?$deque@PAUtagMAGICATKMSG@@V?$allocator@PAUtagMAGICATKMSG@@@std@@@std@@QBE_NXZ
_TEXT	SEGMENT PARA USE32 PUBLIC 'CODE'
_TEXT	ENDS
;	COMDAT ?clear@?$deque@PAUtagMAGICATKMSG@@V?$allocator@PAUtagMAGICATKMSG@@@std@@@std@@QAEXXZ
_TEXT	SEGMENT PARA USE32 PUBLIC 'CODE'
_TEXT	ENDS
;	COMDAT ??0?$queue@UAIMSG@@V?$deque@UAIMSG@@V?$allocator@UAIMSG@@@std@@@std@@@std@@QAE@XZ
_TEXT	SEGMENT PARA USE32 PUBLIC 'CODE'
_TEXT	ENDS
;	COMDAT ?empty@?$queue@UAIMSG@@V?$deque@UAIMSG@@V?$allocator@UAIMSG@@@std@@@std@@@std@@QBE_NXZ
_TEXT	SEGMENT PARA USE32 PUBLIC 'CODE'
_TEXT	ENDS
;	COMDAT ?front@?$queue@UAIMSG@@V?$deque@UAIMSG@@V?$allocator@UAIMSG@@@std@@@std@@@std@@QAEAAUAIMSG@@XZ
_TEXT	SEGMENT PARA USE32 PUBLIC 'CODE'
_TEXT	ENDS
;	COMDAT ?push@?$queue@UAIMSG@@V?$deque@UAIMSG@@V?$allocator@UAIMSG@@@std@@@std@@@std@@QAEXABUAIMSG@@@Z
_TEXT	SEGMENT PARA USE32 PUBLIC 'CODE'
_TEXT	ENDS
;	COMDAT ?pop@?$queue@UAIMSG@@V?$deque@UAIMSG@@V?$allocator@UAIMSG@@@std@@@std@@@std@@QAEXXZ
_TEXT	SEGMENT PARA USE32 PUBLIC 'CODE'
_TEXT	ENDS
;	COMDAT ??1?$deque@UAIMSG@@V?$allocator@UAIMSG@@@std@@@std@@QAE@XZ
_TEXT	SEGMENT PARA USE32 PUBLIC 'CODE'
_TEXT	ENDS
;	COMDAT ??Diterator@?$deque@PAUtagACTMSG@@V?$allocator@PAUtagACTMSG@@@std@@@std@@QBEAAPAUtagACTMSG@@XZ
_TEXT	SEGMENT PARA USE32 PUBLIC 'CODE'
_TEXT	ENDS
;	COMDAT ??Eiterator@?$deque@PAUtagACTMSG@@V?$allocator@PAUtagACTMSG@@@std@@@std@@QAEAAV012@XZ
_TEXT	SEGMENT PARA USE32 PUBLIC 'CODE'
_TEXT	ENDS
;	COMDAT ??9const_iterator@?$deque@PAUtagACTMSG@@V?$allocator@PAUtagACTMSG@@@std@@@std@@QBE_NABV012@@Z
_TEXT	SEGMENT PARA USE32 PUBLIC 'CODE'
_TEXT	ENDS
;	COMDAT ??Diterator@?$deque@PAUtagMAGICATKMSG@@V?$allocator@PAUtagMAGICATKMSG@@@std@@@std@@QBEAAPAUtagMAGICATKMSG@@XZ
_TEXT	SEGMENT PARA USE32 PUBLIC 'CODE'
_TEXT	ENDS
;	COMDAT ??Eiterator@?$deque@PAUtagMAGICATKMSG@@V?$allocator@PAUtagMAGICATKMSG@@@std@@@std@@QAEAAV012@XZ
_TEXT	SEGMENT PARA USE32 PUBLIC 'CODE'
_TEXT	ENDS
;	COMDAT ??9const_iterator@?$deque@PAUtagMAGICATKMSG@@V?$allocator@PAUtagMAGICATKMSG@@@std@@@std@@QBE_NABV012@@Z
_TEXT	SEGMENT PARA USE32 PUBLIC 'CODE'
_TEXT	ENDS
;	COMDAT ?erase@?$_Tree@V?$_Tmap_traits@KU_Friend@@U?$less@K@std@@V?$allocator@U?$pair@$$CBKU_Friend@@@std@@@3@$0A@@std@@@std@@QAEIABK@Z
_TEXT	SEGMENT PARA USE32 PUBLIC 'CODE'
_TEXT	ENDS
;	COMDAT ?size@?$_Tree@V?$_Tmap_traits@KPAVCGuildMember@@U?$less@K@std@@V?$allocator@U?$pair@$$CBKPAVCGuildMember@@@std@@@3@$0A@@std@@@std@@QBEIXZ
_TEXT	SEGMENT PARA USE32 PUBLIC 'CODE'
_TEXT	ENDS
;	COMDAT ?size@?$_Tree@V?$_Tmap_traits@KPAVCGuild@@U?$less@K@std@@V?$allocator@U?$pair@$$CBKPAVCGuild@@@std@@@3@$0A@@std@@@std@@QBEIXZ
_TEXT	SEGMENT PARA USE32 PUBLIC 'CODE'
_TEXT	ENDS
;	COMDAT ?size@?$vector@PAU__JOINPLAYER@CGuildCombat@@V?$allocator@PAU__JOINPLAYER@CGuildCombat@@@std@@@std@@QBEIXZ
_TEXT	SEGMENT PARA USE32 PUBLIC 'CODE'
_TEXT	ENDS
;	COMDAT ??A?$vector@PAU__JOINPLAYER@CGuildCombat@@V?$allocator@PAU__JOINPLAYER@CGuildCombat@@@std@@@std@@QAEAAPAU__JOINPLAYER@CGuildCombat@@I@Z
_TEXT	SEGMENT PARA USE32 PUBLIC 'CODE'
_TEXT	ENDS
;	COMDAT ?clear@?$vector@PAU__JOINPLAYER@CGuildCombat@@V?$allocator@PAU__JOINPLAYER@CGuildCombat@@@std@@@std@@QAEXXZ
_TEXT	SEGMENT PARA USE32 PUBLIC 'CODE'
_TEXT	ENDS
;	COMDAT ?clear@?$list@PAU__JOINPLAYER@CGuildCombat@@V?$allocator@PAU__JOINPLAYER@CGuildCombat@@@std@@@std@@QAEXXZ
_TEXT	SEGMENT PARA USE32 PUBLIC 'CODE'
_TEXT	ENDS
;	COMDAT ?size@?$_Tree@V?$_Tmap_traits@KPAU_PlayerData@@U?$less@K@std@@V?$allocator@U?$pair@$$CBKPAU_PlayerData@@@std@@@3@$0A@@std@@@std@@QBEIXZ
_TEXT	SEGMENT PARA USE32 PUBLIC 'CODE'
_TEXT	ENDS
;	COMDAT ??0?$vector@U__SECRETROOM_MONSTER@@V?$allocator@U__SECRETROOM_MONSTER@@@std@@@std@@QAE@XZ
_TEXT	SEGMENT PARA USE32 PUBLIC 'CODE'
_TEXT	ENDS
;	COMDAT ??1?$vector@U__SECRETROOM_MONSTER@@V?$allocator@U__SECRETROOM_MONSTER@@@std@@@std@@QAE@XZ
_TEXT	SEGMENT PARA USE32 PUBLIC 'CODE'
_TEXT	ENDS
;	COMDAT ??0?$vector@V?$basic_string@DU?$char_traits@D@std@@V?$allocator@D@2@@std@@V?$allocator@V?$basic_string@DU?$char_traits@D@std@@V?$allocator@D@2@@std@@@2@@std@@QAE@XZ
_TEXT	SEGMENT PARA USE32 PUBLIC 'CODE'
_TEXT	ENDS
;	COMDAT ??1?$vector@V?$basic_string@DU?$char_traits@D@std@@V?$allocator@D@2@@std@@V?$allocator@V?$basic_string@DU?$char_traits@D@std@@V?$allocator@D@2@@std@@@2@@std@@QAE@XZ
_TEXT	SEGMENT PARA USE32 PUBLIC 'CODE'
_TEXT	ENDS
;	COMDAT ?size@?$vector@V?$basic_string@DU?$char_traits@D@std@@V?$allocator@D@2@@std@@V?$allocator@V?$basic_string@DU?$char_traits@D@std@@V?$allocator@D@2@@std@@@2@@std@@QBEIXZ
_TEXT	SEGMENT PARA USE32 PUBLIC 'CODE'
_TEXT	ENDS
;	COMDAT ??A?$vector@V?$basic_string@DU?$char_traits@D@std@@V?$allocator@D@2@@std@@V?$allocator@V?$basic_string@DU?$char_traits@D@std@@V?$allocator@D@2@@std@@@2@@std@@QAEAAV?$basic_string@DU?$char_traits@D@std@@V?$allocator@D@2@@1@I@Z
_TEXT	SEGMENT PARA USE32 PUBLIC 'CODE'
_TEXT	ENDS
;	COMDAT ?push_back@?$vector@V?$basic_string@DU?$char_traits@D@std@@V?$allocator@D@2@@std@@V?$allocator@V?$basic_string@DU?$char_traits@D@std@@V?$allocator@D@2@@std@@@2@@std@@QAEXABV?$basic_string@DU?$char_traits@D@std@@V?$allocator@D@2@@2@@Z
_TEXT	SEGMENT PARA USE32 PUBLIC 'CODE'
_TEXT	ENDS
;	COMDAT ?clear@?$vector@V?$basic_string@DU?$char_traits@D@std@@V?$allocator@D@2@@std@@V?$allocator@V?$basic_string@DU?$char_traits@D@std@@V?$allocator@D@2@@std@@@2@@std@@QAEXXZ
_TEXT	SEGMENT PARA USE32 PUBLIC 'CODE'
_TEXT	ENDS
;	COMDAT ?push_back@?$vector@UMINIGMAME_PRIZE_LIST@CRainbowRaceMng@@V?$allocator@UMINIGMAME_PRIZE_LIST@CRainbowRaceMng@@@std@@@std@@QAEXABUMINIGMAME_PRIZE_LIST@CRainbowRaceMng@@@Z
_TEXT	SEGMENT PARA USE32 PUBLIC 'CODE'
_TEXT	ENDS
;	COMDAT ?size@?$_Tree@V?$_Tmap_traits@KPAVCRainbowRace@@U?$less@K@std@@V?$allocator@U?$pair@$$CBKPAVCRainbowRace@@@std@@@3@$0A@@std@@@std@@QBEIXZ
_TEXT	SEGMENT PARA USE32 PUBLIC 'CODE'
_TEXT	ENDS
;	COMDAT ?size@?$vector@PAVCMiniGameBase@@V?$allocator@PAVCMiniGameBase@@@std@@@std@@QBEIXZ
_TEXT	SEGMENT PARA USE32 PUBLIC 'CODE'
_TEXT	ENDS
;	COMDAT ??A?$vector@PAVCMiniGameBase@@V?$allocator@PAVCMiniGameBase@@@std@@@std@@QAEAAPAVCMiniGameBase@@I@Z
_TEXT	SEGMENT PARA USE32 PUBLIC 'CODE'
_TEXT	ENDS
;	COMDAT ?size@?$vector@UGuildHouse_Furniture_Info@CGuildHouseBase@@V?$allocator@UGuildHouse_Furniture_Info@CGuildHouseBase@@@std@@@std@@QBEIXZ
_TEXT	SEGMENT PARA USE32 PUBLIC 'CODE'
_TEXT	ENDS
;	COMDAT ??A?$vector@UGuildHouse_Furniture_Info@CGuildHouseBase@@V?$allocator@UGuildHouse_Furniture_Info@CGuildHouseBase@@@std@@@std@@QAEAAUGuildHouse_Furniture_Info@CGuildHouseBase@@I@Z
_TEXT	SEGMENT PARA USE32 PUBLIC 'CODE'
_TEXT	ENDS
;	COMDAT ?empty@?$_Tree@V?$_Tmap_traits@KPAVCGuildHouseBase@@U?$less@K@std@@V?$allocator@U?$pair@$$CBKPAVCGuildHouseBase@@@std@@@3@$0A@@std@@@std@@QBE_NXZ
_TEXT	SEGMENT PARA USE32 PUBLIC 'CODE'
_TEXT	ENDS
;	COMDAT ?insert@?$_Tree@V?$_Tmap_traits@KPAVCGuildHouseBase@@U?$less@K@std@@V?$allocator@U?$pair@$$CBKPAVCGuildHouseBase@@@std@@@3@$0A@@std@@@std@@QAE?AU?$pair@Viterator@?$_Tree@V?$_Tmap_traits@KPAVCGuildHouseBase@@U?$less@K@std@@V?$allocator@U?$pair@$$CBKPAVCGuildHouseBase@@@std@@@3@$0A@@std@@@std@@_N@2@ABU?$pair@$$CBKPAVCGuildHouseBase@@@2@@Z
_TEXT	SEGMENT PARA USE32 PUBLIC 'CODE'
_TEXT	ENDS
;	COMDAT ?size@?$_Tree@V?$_Tmap_traits@KPAVCCampusMember@@U?$less@K@std@@V?$allocator@U?$pair@$$CBKPAVCCampusMember@@@std@@@3@$0A@@std@@@std@@QBEIXZ
_TEXT	SEGMENT PARA USE32 PUBLIC 'CODE'
_TEXT	ENDS
;	COMDAT ?empty@?$_Tree@V?$_Tmap_traits@KPAVCCampus@@U?$less@K@std@@V?$allocator@U?$pair@$$CBKPAVCCampus@@@std@@@3@$0A@@std@@@std@@QBE_NXZ
_TEXT	SEGMENT PARA USE32 PUBLIC 'CODE'
_TEXT	ENDS
;	COMDAT ?erase@?$_Tree@V?$_Tmap_traits@KKU?$less@K@std@@V?$allocator@U?$pair@$$CBKK@std@@@2@$0A@@std@@@std@@QAEIABK@Z
_TEXT	SEGMENT PARA USE32 PUBLIC 'CODE'
_TEXT	ENDS
;	COMDAT ?compare@?$basic_string@DU?$char_traits@D@std@@V?$allocator@D@2@@std@@QBEHIIPBDI@Z
_TEXT	SEGMENT PARA USE32 PUBLIC 'CODE'
_TEXT	ENDS
;	COMDAT ??0?$allocator@V?$basic_string@DU?$char_traits@D@std@@V?$allocator@D@2@@std@@@std@@QAE@XZ
_TEXT	SEGMENT PARA USE32 PUBLIC 'CODE'
_TEXT	ENDS
;	COMDAT ?insert@?$_Tree@V?$_Tmap_traits@KPAVCCtrl@@U?$less@K@std@@V?$allocator@U?$pair@$$CBKPAVCCtrl@@@std@@@3@$0A@@std@@@std@@QAE?AViterator@12@V312@ABU?$pair@$$CBKPAVCCtrl@@@2@@Z
_TEXT	SEGMENT PARA USE32 PUBLIC 'CODE'
_TEXT	ENDS
;	COMDAT ??0?$pair@$$CBKPAVCCtrl@@@std@@QAE@ABKABQAVCCtrl@@@Z
_TEXT	SEGMENT PARA USE32 PUBLIC 'CODE'
_TEXT	ENDS
;	COMDAT ?_Tidy@?$deque@PAUtagACTMSG@@V?$allocator@PAUtagACTMSG@@@std@@@std@@IAEXXZ
_TEXT	SEGMENT PARA USE32 PUBLIC 'CODE'
_TEXT	ENDS
;	COMDAT ??0?$_Deque_val@PAUtagACTMSG@@V?$allocator@PAUtagACTMSG@@@std@@@std@@IAE@V?$allocator@PAUtagACTMSG@@@1@@Z
_TEXT	SEGMENT PARA USE32 PUBLIC 'CODE'
_TEXT	ENDS
;	COMDAT ??0?$allocator@PAUtagACTMSG@@@std@@QAE@XZ
_TEXT	SEGMENT PARA USE32 PUBLIC 'CODE'
_TEXT	ENDS
;	COMDAT ?_Tidy@?$deque@PAUtagMAGICATKMSG@@V?$allocator@PAUtagMAGICATKMSG@@@std@@@std@@IAEXXZ
_TEXT	SEGMENT PARA USE32 PUBLIC 'CODE'
_TEXT	ENDS
;	COMDAT ??0?$_Deque_val@PAUtagMAGICATKMSG@@V?$allocator@PAUtagMAGICATKMSG@@@std@@@std@@IAE@V?$allocator@PAUtagMAGICATKMSG@@@1@@Z
_TEXT	SEGMENT PARA USE32 PUBLIC 'CODE'
_TEXT	ENDS
;	COMDAT ??0?$allocator@PAUtagMAGICATKMSG@@@std@@QAE@XZ
_TEXT	SEGMENT PARA USE32 PUBLIC 'CODE'
_TEXT	ENDS
;	COMDAT ??0?$deque@UAIMSG@@V?$allocator@UAIMSG@@@std@@@std@@QAE@XZ
_TEXT	SEGMENT PARA USE32 PUBLIC 'CODE'
_TEXT	ENDS
;	COMDAT ?empty@?$deque@UAIMSG@@V?$allocator@UAIMSG@@@std@@@std@@QBE_NXZ
_TEXT	SEGMENT PARA USE32 PUBLIC 'CODE'
_TEXT	ENDS
;	COMDAT ?front@?$deque@UAIMSG@@V?$allocator@UAIMSG@@@std@@@std@@QAEAAUAIMSG@@XZ
_TEXT	SEGMENT PARA USE32 PUBLIC 'CODE'
_TEXT	ENDS
;	COMDAT ?pop_front@?$deque@UAIMSG@@V?$allocator@UAIMSG@@@std@@@std@@QAEXXZ
_TEXT	SEGMENT PARA USE32 PUBLIC 'CODE'
_TEXT	ENDS
;	COMDAT ?push_back@?$deque@UAIMSG@@V?$allocator@UAIMSG@@@std@@@std@@QAEXABUAIMSG@@@Z
_TEXT	SEGMENT PARA USE32 PUBLIC 'CODE'
_TEXT	ENDS
;	COMDAT ?_Tidy@?$deque@UAIMSG@@V?$allocator@UAIMSG@@@std@@@std@@IAEXXZ
_TEXT	SEGMENT PARA USE32 PUBLIC 'CODE'
_TEXT	ENDS
;	COMDAT ??0iterator@?$deque@PAUtagACTMSG@@V?$allocator@PAUtagACTMSG@@@std@@@std@@QAE@IPBV12@@Z
_TEXT	SEGMENT PARA USE32 PUBLIC 'CODE'
_TEXT	ENDS
;	COMDAT ??Dconst_iterator@?$deque@PAUtagACTMSG@@V?$allocator@PAUtagACTMSG@@@std@@@std@@QBEABQAUtagACTMSG@@XZ
_TEXT	SEGMENT PARA USE32 PUBLIC 'CODE'
_TEXT	ENDS
;	COMDAT ??8const_iterator@?$deque@PAUtagACTMSG@@V?$allocator@PAUtagACTMSG@@@std@@@std@@QBE_NABV012@@Z
_TEXT	SEGMENT PARA USE32 PUBLIC 'CODE'
_TEXT	ENDS
;	COMDAT ??0iterator@?$deque@PAUtagMAGICATKMSG@@V?$allocator@PAUtagMAGICATKMSG@@@std@@@std@@QAE@IPBV12@@Z
_TEXT	SEGMENT PARA USE32 PUBLIC 'CODE'
_TEXT	ENDS
;	COMDAT ??Dconst_iterator@?$deque@PAUtagMAGICATKMSG@@V?$allocator@PAUtagMAGICATKMSG@@@std@@@std@@QBEABQAUtagMAGICATKMSG@@XZ
_TEXT	SEGMENT PARA USE32 PUBLIC 'CODE'
_TEXT	ENDS
;	COMDAT ??8const_iterator@?$deque@PAUtagMAGICATKMSG@@V?$allocator@PAUtagMAGICATKMSG@@@std@@@std@@QBE_NABV012@@Z
_TEXT	SEGMENT PARA USE32 PUBLIC 'CODE'
_TEXT	ENDS
;	COMDAT ?erase@?$_Tree@V?$_Tmap_traits@KU_Friend@@U?$less@K@std@@V?$allocator@U?$pair@$$CBKU_Friend@@@std@@@3@$0A@@std@@@std@@QAE?AViterator@12@V312@0@Z
_TEXT	SEGMENT PARA USE32 PUBLIC 'CODE'
_TEXT	ENDS
;	COMDAT ?equal_range@?$_Tree@V?$_Tmap_traits@KU_Friend@@U?$less@K@std@@V?$allocator@U?$pair@$$CBKU_Friend@@@std@@@3@$0A@@std@@@std@@QAE?AU?$pair@Viterator@?$_Tree@V?$_Tmap_traits@KU_Friend@@U?$less@K@std@@V?$allocator@U?$pair@$$CBKU_Friend@@@std@@@3@$0A@@std@@@std@@V123@@2@ABK@Z
_TEXT	SEGMENT PARA USE32 PUBLIC 'CODE'
_TEXT	ENDS
;	COMDAT ?begin@?$vector@PAU__JOINPLAYER@CGuildCombat@@V?$allocator@PAU__JOINPLAYER@CGuildCombat@@@std@@@std@@QAE?AViterator@12@XZ
_TEXT	SEGMENT PARA USE32 PUBLIC 'CODE'
_TEXT	ENDS
;	COMDAT ?_Tidy@?$vector@PAU__JOINPLAYER@CGuildCombat@@V?$allocator@PAU__JOINPLAYER@CGuildCombat@@@std@@@std@@IAEXXZ
_TEXT	SEGMENT PARA USE32 PUBLIC 'CODE'
_TEXT	ENDS
;	COMDAT ?_Nextnode@?$list@PAU__JOINPLAYER@CGuildCombat@@V?$allocator@PAU__JOINPLAYER@CGuildCombat@@@std@@@std@@KAAAPAU_Node@?$_List_nod@PAU__JOINPLAYER@CGuildCombat@@V?$allocator@PAU__JOINPLAYER@CGuildCombat@@@std@@@2@PAU342@@Z
_TEXT	SEGMENT PARA USE32 PUBLIC 'CODE'
_TEXT	ENDS
;	COMDAT ?_Prevnode@?$list@PAU__JOINPLAYER@CGuildCombat@@V?$allocator@PAU__JOINPLAYER@CGuildCombat@@@std@@@std@@KAAAPAU_Node@?$_List_nod@PAU__JOINPLAYER@CGuildCombat@@V?$allocator@PAU__JOINPLAYER@CGuildCombat@@@std@@@2@PAU342@@Z
_TEXT	SEGMENT PARA USE32 PUBLIC 'CODE'
_TEXT	ENDS
;	COMDAT ?deallocate@?$allocator@U_Node@?$_List_nod@PAU__JOINPLAYER@CGuildCombat@@V?$allocator@PAU__JOINPLAYER@CGuildCombat@@@std@@@std@@@std@@QAEXPAU_Node@?$_List_nod@PAU__JOINPLAYER@CGuildCombat@@V?$allocator@PAU__JOINPLAYER@CGuildCombat@@@std@@@2@I@Z
_TEXT	SEGMENT PARA USE32 PUBLIC 'CODE'
_TEXT	ENDS
;	COMDAT ?destroy@?$allocator@U_Node@?$_List_nod@PAU__JOINPLAYER@CGuildCombat@@V?$allocator@PAU__JOINPLAYER@CGuildCombat@@@std@@@std@@@std@@QAEXPAU_Node@?$_List_nod@PAU__JOINPLAYER@CGuildCombat@@V?$allocator@PAU__JOINPLAYER@CGuildCombat@@@std@@@2@@Z
_TEXT	SEGMENT PARA USE32 PUBLIC 'CODE'
_TEXT	ENDS
;	COMDAT ?_Buy@?$vector@U__SECRETROOM_MONSTER@@V?$allocator@U__SECRETROOM_MONSTER@@@std@@@std@@IAE_NI@Z
_TEXT	SEGMENT PARA USE32 PUBLIC 'CODE'
_TEXT	ENDS
;	COMDAT ?_Tidy@?$vector@U__SECRETROOM_MONSTER@@V?$allocator@U__SECRETROOM_MONSTER@@@std@@@std@@IAEXXZ
_TEXT	SEGMENT PARA USE32 PUBLIC 'CODE'
_TEXT	ENDS
;	COMDAT ??0?$_Vector_val@U__SECRETROOM_MONSTER@@V?$allocator@U__SECRETROOM_MONSTER@@@std@@@std@@IAE@V?$allocator@U__SECRETROOM_MONSTER@@@1@@Z
_TEXT	SEGMENT PARA USE32 PUBLIC 'CODE'
_TEXT	ENDS
;	COMDAT ??0?$allocator@U__SECRETROOM_MONSTER@@@std@@QAE@XZ
_TEXT	SEGMENT PARA USE32 PUBLIC 'CODE'
_TEXT	ENDS
;	COMDAT ?capacity@?$vector@V?$basic_string@DU?$char_traits@D@std@@V?$allocator@D@2@@std@@V?$allocator@V?$basic_string@DU?$char_traits@D@std@@V?$allocator@D@2@@std@@@2@@std@@QBEIXZ
_TEXT	SEGMENT PARA USE32 PUBLIC 'CODE'
_TEXT	ENDS
;	COMDAT ?begin@?$vector@V?$basic_string@DU?$char_traits@D@std@@V?$allocator@D@2@@std@@V?$allocator@V?$basic_string@DU?$char_traits@D@std@@V?$allocator@D@2@@std@@@2@@std@@QAE?AViterator@12@XZ
_TEXT	SEGMENT PARA USE32 PUBLIC 'CODE'
_TEXT	ENDS
;	COMDAT ?end@?$vector@V?$basic_string@DU?$char_traits@D@std@@V?$allocator@D@2@@std@@V?$allocator@V?$basic_string@DU?$char_traits@D@std@@V?$allocator@D@2@@std@@@2@@std@@QAE?AViterator@12@XZ
_TEXT	SEGMENT PARA USE32 PUBLIC 'CODE'
_TEXT	ENDS
;	COMDAT ?insert@?$vector@V?$basic_string@DU?$char_traits@D@std@@V?$allocator@D@2@@std@@V?$allocator@V?$basic_string@DU?$char_traits@D@std@@V?$allocator@D@2@@std@@@2@@std@@QAE?AViterator@12@V312@ABV?$basic_string@DU?$char_traits@D@std@@V?$allocator@D@2@@2@@Z
_TEXT	SEGMENT PARA USE32 PUBLIC 'CODE'
_TEXT	ENDS
;	COMDAT ?_Buy@?$vector@V?$basic_string@DU?$char_traits@D@std@@V?$allocator@D@2@@std@@V?$allocator@V?$basic_string@DU?$char_traits@D@std@@V?$allocator@D@2@@std@@@2@@std@@IAE_NI@Z
_TEXT	SEGMENT PARA USE32 PUBLIC 'CODE'
_TEXT	ENDS
;	COMDAT ?_Tidy@?$vector@V?$basic_string@DU?$char_traits@D@std@@V?$allocator@D@2@@std@@V?$allocator@V?$basic_string@DU?$char_traits@D@std@@V?$allocator@D@2@@std@@@2@@std@@IAEXXZ
_TEXT	SEGMENT PARA USE32 PUBLIC 'CODE'
_TEXT	ENDS
;	COMDAT ?_Ufill@?$vector@V?$basic_string@DU?$char_traits@D@std@@V?$allocator@D@2@@std@@V?$allocator@V?$basic_string@DU?$char_traits@D@std@@V?$allocator@D@2@@std@@@2@@std@@IAEPAV?$basic_string@DU?$char_traits@D@std@@V?$allocator@D@2@@2@PAV32@IABV32@@Z
_TEXT	SEGMENT PARA USE32 PUBLIC 'CODE'
_TEXT	ENDS
;	COMDAT ??0?$_Vector_val@V?$basic_string@DU?$char_traits@D@std@@V?$allocator@D@2@@std@@V?$allocator@V?$basic_string@DU?$char_traits@D@std@@V?$allocator@D@2@@std@@@2@@std@@IAE@V?$allocator@V?$basic_string@DU?$char_traits@D@std@@V?$allocator@D@2@@std@@@1@@Z
_TEXT	SEGMENT PARA USE32 PUBLIC 'CODE'
_TEXT	ENDS
;	COMDAT ?capacity@?$vector@UMINIGMAME_PRIZE_LIST@CRainbowRaceMng@@V?$allocator@UMINIGMAME_PRIZE_LIST@CRainbowRaceMng@@@std@@@std@@QBEIXZ
_TEXT	SEGMENT PARA USE32 PUBLIC 'CODE'
_TEXT	ENDS
;	COMDAT ?end@?$vector@UMINIGMAME_PRIZE_LIST@CRainbowRaceMng@@V?$allocator@UMINIGMAME_PRIZE_LIST@CRainbowRaceMng@@@std@@@std@@QAE?AViterator@12@XZ
_TEXT	SEGMENT PARA USE32 PUBLIC 'CODE'
_TEXT	ENDS
;	COMDAT ?size@?$vector@UMINIGMAME_PRIZE_LIST@CRainbowRaceMng@@V?$allocator@UMINIGMAME_PRIZE_LIST@CRainbowRaceMng@@@std@@@std@@QBEIXZ
_TEXT	SEGMENT PARA USE32 PUBLIC 'CODE'
_TEXT	ENDS
;	COMDAT ?insert@?$vector@UMINIGMAME_PRIZE_LIST@CRainbowRaceMng@@V?$allocator@UMINIGMAME_PRIZE_LIST@CRainbowRaceMng@@@std@@@std@@QAE?AViterator@12@V312@ABUMINIGMAME_PRIZE_LIST@CRainbowRaceMng@@@Z
_TEXT	SEGMENT PARA USE32 PUBLIC 'CODE'
_TEXT	ENDS
;	COMDAT ?_Ufill@?$vector@UMINIGMAME_PRIZE_LIST@CRainbowRaceMng@@V?$allocator@UMINIGMAME_PRIZE_LIST@CRainbowRaceMng@@@std@@@std@@IAEPAUMINIGMAME_PRIZE_LIST@CRainbowRaceMng@@PAU34@IABU34@@Z
_TEXT	SEGMENT PARA USE32 PUBLIC 'CODE'
_TEXT	ENDS
;	COMDAT ?begin@?$vector@PAVCMiniGameBase@@V?$allocator@PAVCMiniGameBase@@@std@@@std@@QAE?AViterator@12@XZ
_TEXT	SEGMENT PARA USE32 PUBLIC 'CODE'
_TEXT	ENDS
;	COMDAT ?begin@?$vector@UGuildHouse_Furniture_Info@CGuildHouseBase@@V?$allocator@UGuildHouse_Furniture_Info@CGuildHouseBase@@@std@@@std@@QAE?AViterator@12@XZ
_TEXT	SEGMENT PARA USE32 PUBLIC 'CODE'
_TEXT	ENDS
;	COMDAT ?_Isnil@?$_Tree@V?$_Tmap_traits@KPAVCGuildHouseBase@@U?$less@K@std@@V?$allocator@U?$pair@$$CBKPAVCGuildHouseBase@@@std@@@3@$0A@@std@@@std@@KAAADPAU_Node@?$_Tree_nod@V?$_Tmap_traits@KPAVCGuildHouseBase@@U?$less@K@std@@V?$allocator@U?$pair@$$CBKPAVCGuildHouseBase@@@std@@@3@$0A@@std@@@2@@Z
_TEXT	SEGMENT PARA USE32 PUBLIC 'CODE'
_TEXT	ENDS
;	COMDAT ?_Key@?$_Tree@V?$_Tmap_traits@KPAVCGuildHouseBase@@U?$less@K@std@@V?$allocator@U?$pair@$$CBKPAVCGuildHouseBase@@@std@@@3@$0A@@std@@@std@@KAABKPAU_Node@?$_Tree_nod@V?$_Tmap_traits@KPAVCGuildHouseBase@@U?$less@K@std@@V?$allocator@U?$pair@$$CBKPAVCGuildHouseBase@@@std@@@3@$0A@@std@@@2@@Z
_TEXT	SEGMENT PARA USE32 PUBLIC 'CODE'
_TEXT	ENDS
;	COMDAT ?_Left@?$_Tree@V?$_Tmap_traits@KPAVCGuildHouseBase@@U?$less@K@std@@V?$allocator@U?$pair@$$CBKPAVCGuildHouseBase@@@std@@@3@$0A@@std@@@std@@KAAAPAU_Node@?$_Tree_nod@V?$_Tmap_traits@KPAVCGuildHouseBase@@U?$less@K@std@@V?$allocator@U?$pair@$$CBKPAVCGuildHouseBase@@@std@@@3@$0A@@std@@@2@PAU342@@Z
_TEXT	SEGMENT PARA USE32 PUBLIC 'CODE'
_TEXT	ENDS
;	COMDAT ?_Right@?$_Tree@V?$_Tmap_traits@KPAVCGuildHouseBase@@U?$less@K@std@@V?$allocator@U?$pair@$$CBKPAVCGuildHouseBase@@@std@@@3@$0A@@std@@@std@@KAAAPAU_Node@?$_Tree_nod@V?$_Tmap_traits@KPAVCGuildHouseBase@@U?$less@K@std@@V?$allocator@U?$pair@$$CBKPAVCGuildHouseBase@@@std@@@3@$0A@@std@@@2@PAU342@@Z
_TEXT	SEGMENT PARA USE32 PUBLIC 'CODE'
_TEXT	ENDS
;	COMDAT ?begin@?$_Tree@V?$_Tmap_traits@KPAVCGuildHouseBase@@U?$less@K@std@@V?$allocator@U?$pair@$$CBKPAVCGuildHouseBase@@@std@@@3@$0A@@std@@@std@@QAE?AViterator@12@XZ
_TEXT	SEGMENT PARA USE32 PUBLIC 'CODE'
_TEXT	ENDS
;	COMDAT ?size@?$_Tree@V?$_Tmap_traits@KPAVCGuildHouseBase@@U?$less@K@std@@V?$allocator@U?$pair@$$CBKPAVCGuildHouseBase@@@std@@@3@$0A@@std@@@std@@QBEIXZ
_TEXT	SEGMENT PARA USE32 PUBLIC 'CODE'
_TEXT	ENDS
;	COMDAT ?_Insert@?$_Tree@V?$_Tmap_traits@KPAVCGuildHouseBase@@U?$less@K@std@@V?$allocator@U?$pair@$$CBKPAVCGuildHouseBase@@@std@@@3@$0A@@std@@@std@@IAE?AViterator@12@_NPAU_Node@?$_Tree_nod@V?$_Tmap_traits@KPAVCGuildHouseBase@@U?$less@K@std@@V?$allocator@U?$pair@$$CBKPAVCGuildHouseBase@@@std@@@3@$0A@@std@@@2@ABU?$pair@$$CBKPAVCGuildHouseBase@@@2@@Z
_TEXT	SEGMENT PARA USE32 PUBLIC 'CODE'
_TEXT	ENDS
;	COMDAT ?_Root@?$_Tree@V?$_Tmap_traits@KPAVCGuildHouseBase@@U?$less@K@std@@V?$allocator@U?$pair@$$CBKPAVCGuildHouseBase@@@std@@@3@$0A@@std@@@std@@IAEAAPAU_Node@?$_Tree_nod@V?$_Tmap_traits@KPAVCGuildHouseBase@@U?$less@K@std@@V?$allocator@U?$pair@$$CBKPAVCGuildHouseBase@@@std@@@3@$0A@@std@@@2@XZ
_TEXT	SEGMENT PARA USE32 PUBLIC 'CODE'
_TEXT	ENDS
;	COMDAT ?_Kfn@?$_Tmap_traits@KPAVCGuildHouseBase@@U?$less@K@std@@V?$allocator@U?$pair@$$CBKPAVCGuildHouseBase@@@std@@@3@$0A@@std@@SAABKABU?$pair@$$CBKPAVCGuildHouseBase@@@2@@Z
_TEXT	SEGMENT PARA USE32 PUBLIC 'CODE'
_TEXT	ENDS
;	COMDAT ??0?$pair@Viterator@?$_Tree@V?$_Tmap_traits@KPAVCGuildHouseBase@@U?$less@K@std@@V?$allocator@U?$pair@$$CBKPAVCGuildHouseBase@@@std@@@3@$0A@@std@@@std@@_N@std@@QAE@ABViterator@?$_Tree@V?$_Tmap_traits@KPAVCGuildHouseBase@@U?$less@K@std@@V?$allocator@U?$pair@$$CBKPAVCGuildHouseBase@@@std@@@3@$0A@@std@@@1@AB_N@Z
_TEXT	SEGMENT PARA USE32 PUBLIC 'CODE'
_TEXT	ENDS
;	COMDAT ??0iterator@?$_Tree@V?$_Tmap_traits@KPAVCGuildHouseBase@@U?$less@K@std@@V?$allocator@U?$pair@$$CBKPAVCGuildHouseBase@@@std@@@3@$0A@@std@@@std@@QAE@PAU_Node@?$_Tree_nod@V?$_Tmap_traits@KPAVCGuildHouseBase@@U?$less@K@std@@V?$allocator@U?$pair@$$CBKPAVCGuildHouseBase@@@std@@@3@$0A@@std@@@2@@Z
_TEXT	SEGMENT PARA USE32 PUBLIC 'CODE'
_TEXT	ENDS
;	COMDAT ??Fiterator@?$_Tree@V?$_Tmap_traits@KPAVCGuildHouseBase@@U?$less@K@std@@V?$allocator@U?$pair@$$CBKPAVCGuildHouseBase@@@std@@@3@$0A@@std@@@std@@QAEAAV012@XZ
_TEXT	SEGMENT PARA USE32 PUBLIC 'CODE'
_TEXT	ENDS
;	COMDAT ??8const_iterator@?$_Tree@V?$_Tmap_traits@KPAVCGuildHouseBase@@U?$less@K@std@@V?$allocator@U?$pair@$$CBKPAVCGuildHouseBase@@@std@@@3@$0A@@std@@@std@@QBE_NABV012@@Z
_TEXT	SEGMENT PARA USE32 PUBLIC 'CODE'
_TEXT	ENDS
;	COMDAT ?_Mynode@const_iterator@?$_Tree@V?$_Tmap_traits@KPAVCGuildHouseBase@@U?$less@K@std@@V?$allocator@U?$pair@$$CBKPAVCGuildHouseBase@@@std@@@3@$0A@@std@@@std@@QBEPAU_Node@?$_Tree_nod@V?$_Tmap_traits@KPAVCGuildHouseBase@@U?$less@K@std@@V?$allocator@U?$pair@$$CBKPAVCGuildHouseBase@@@std@@@3@$0A@@std@@@3@XZ
_TEXT	SEGMENT PARA USE32 PUBLIC 'CODE'
_TEXT	ENDS
;	COMDAT ?size@?$_Tree@V?$_Tmap_traits@KPAVCCampus@@U?$less@K@std@@V?$allocator@U?$pair@$$CBKPAVCCampus@@@std@@@3@$0A@@std@@@std@@QBEIXZ
_TEXT	SEGMENT PARA USE32 PUBLIC 'CODE'
_TEXT	ENDS
;	COMDAT ?erase@?$_Tree@V?$_Tmap_traits@KKU?$less@K@std@@V?$allocator@U?$pair@$$CBKK@std@@@2@$0A@@std@@@std@@QAE?AViterator@12@V312@0@Z
_TEXT	SEGMENT PARA USE32 PUBLIC 'CODE'
_TEXT	ENDS
;	COMDAT ?equal_range@?$_Tree@V?$_Tmap_traits@KKU?$less@K@std@@V?$allocator@U?$pair@$$CBKK@std@@@2@$0A@@std@@@std@@QAE?AU?$pair@Viterator@?$_Tree@V?$_Tmap_traits@KKU?$less@K@std@@V?$allocator@U?$pair@$$CBKK@std@@@2@$0A@@std@@@std@@V123@@2@ABK@Z
_TEXT	SEGMENT PARA USE32 PUBLIC 'CODE'
_TEXT	ENDS
;	COMDAT ??Diterator@?$vector@PAU__JOINPLAYER@CGuildCombat@@V?$allocator@PAU__JOINPLAYER@CGuildCombat@@@std@@@std@@QBEAAPAU__JOINPLAYER@CGuildCombat@@XZ
_TEXT	SEGMENT PARA USE32 PUBLIC 'CODE'
_TEXT	ENDS
;	COMDAT ??Hiterator@?$vector@PAU__JOINPLAYER@CGuildCombat@@V?$allocator@PAU__JOINPLAYER@CGuildCombat@@@std@@@std@@QBE?AV012@H@Z
_TEXT	SEGMENT PARA USE32 PUBLIC 'CODE'
_TEXT	ENDS
;	COMDAT ??Diterator@?$vector@V?$basic_string@DU?$char_traits@D@std@@V?$allocator@D@2@@std@@V?$allocator@V?$basic_string@DU?$char_traits@D@std@@V?$allocator@D@2@@std@@@2@@std@@QBEAAV?$basic_string@DU?$char_traits@D@std@@V?$allocator@D@2@@2@XZ
_TEXT	SEGMENT PARA USE32 PUBLIC 'CODE'
_TEXT	ENDS
;	COMDAT ??Hiterator@?$vector@V?$basic_string@DU?$char_traits@D@std@@V?$allocator@D@2@@std@@V?$allocator@V?$basic_string@DU?$char_traits@D@std@@V?$allocator@D@2@@std@@@2@@std@@QBE?AV012@H@Z
_TEXT	SEGMENT PARA USE32 PUBLIC 'CODE'
_TEXT	ENDS
;	COMDAT ??Diterator@?$vector@PAVCMiniGameBase@@V?$allocator@PAVCMiniGameBase@@@std@@@std@@QBEAAPAVCMiniGameBase@@XZ
_TEXT	SEGMENT PARA USE32 PUBLIC 'CODE'
_TEXT	ENDS
;	COMDAT ??Hiterator@?$vector@PAVCMiniGameBase@@V?$allocator@PAVCMiniGameBase@@@std@@@std@@QBE?AV012@H@Z
_TEXT	SEGMENT PARA USE32 PUBLIC 'CODE'
_TEXT	ENDS
;	COMDAT ??Diterator@?$vector@UGuildHouse_Furniture_Info@CGuildHouseBase@@V?$allocator@UGuildHouse_Furniture_Info@CGuildHouseBase@@@std@@@std@@QBEAAUGuildHouse_Furniture_Info@CGuildHouseBase@@XZ
_TEXT	SEGMENT PARA USE32 PUBLIC 'CODE'
_TEXT	ENDS
;	COMDAT ??Hiterator@?$vector@UGuildHouse_Furniture_Info@CGuildHouseBase@@V?$allocator@UGuildHouse_Furniture_Info@CGuildHouseBase@@@std@@@std@@QBE?AV012@H@Z
_TEXT	SEGMENT PARA USE32 PUBLIC 'CODE'
_TEXT	ENDS
;	COMDAT ??0?$allocator@V?$basic_string@DU?$char_traits@D@std@@V?$allocator@D@2@@std@@@std@@QAE@ABV01@@Z
_TEXT	SEGMENT PARA USE32 PUBLIC 'CODE'
_TEXT	ENDS
;	COMDAT ?deallocate@?$allocator@V?$basic_string@DU?$char_traits@D@std@@V?$allocator@D@2@@std@@@std@@QAEXPAV?$basic_string@DU?$char_traits@D@std@@V?$allocator@D@2@@2@I@Z
_TEXT	SEGMENT PARA USE32 PUBLIC 'CODE'
_TEXT	ENDS
;	COMDAT ?allocate@?$allocator@V?$basic_string@DU?$char_traits@D@std@@V?$allocator@D@2@@std@@@std@@QAEPAV?$basic_string@DU?$char_traits@D@std@@V?$allocator@D@2@@2@I@Z
_TEXT	SEGMENT PARA USE32 PUBLIC 'CODE'
_TEXT	ENDS
;	COMDAT ?size@?$_Tree@V?$_Tmap_traits@KPAVCCtrl@@U?$less@K@std@@V?$allocator@U?$pair@$$CBKPAVCCtrl@@@std@@@3@$0A@@std@@@std@@QBEIXZ
_TEXT	SEGMENT PARA USE32 PUBLIC 'CODE'
_TEXT	ENDS
;	COMDAT ??0iterator@?$_Tree@V?$_Tmap_traits@KPAVCCtrl@@U?$less@K@std@@V?$allocator@U?$pair@$$CBKPAVCCtrl@@@std@@@3@$0A@@std@@@std@@QAE@XZ
_TEXT	SEGMENT PARA USE32 PUBLIC 'CODE'
_TEXT	ENDS
;	COMDAT ?pop_back@?$deque@PAUtagACTMSG@@V?$allocator@PAUtagACTMSG@@@std@@@std@@QAEXXZ
_TEXT	SEGMENT PARA USE32 PUBLIC 'CODE'
_TEXT	ENDS
;	COMDAT ??0?$_Deque_map@PAUtagACTMSG@@V?$allocator@PAUtagACTMSG@@@std@@@std@@IAE@V?$allocator@PAUtagACTMSG@@@1@@Z
_TEXT	SEGMENT PARA USE32 PUBLIC 'CODE'
_TEXT	ENDS
;	COMDAT ??0?$allocator@PAUtagACTMSG@@@std@@QAE@ABV01@@Z
_TEXT	SEGMENT PARA USE32 PUBLIC 'CODE'
_TEXT	ENDS
;	COMDAT ?deallocate@?$allocator@PAUtagACTMSG@@@std@@QAEXPAPAUtagACTMSG@@I@Z
_TEXT	SEGMENT PARA USE32 PUBLIC 'CODE'
_TEXT	ENDS
;	COMDAT ?deallocate@?$allocator@PAPAUtagACTMSG@@@std@@QAEXPAPAPAUtagACTMSG@@I@Z
_TEXT	SEGMENT PARA USE32 PUBLIC 'CODE'
_TEXT	ENDS
;	COMDAT ?destroy@?$allocator@PAPAUtagACTMSG@@@std@@QAEXPAPAPAUtagACTMSG@@@Z
_TEXT	SEGMENT PARA USE32 PUBLIC 'CODE'
_TEXT	ENDS
;	COMDAT ?pop_back@?$deque@PAUtagMAGICATKMSG@@V?$allocator@PAUtagMAGICATKMSG@@@std@@@std@@QAEXXZ
_TEXT	SEGMENT PARA USE32 PUBLIC 'CODE'
_TEXT	ENDS
;	COMDAT ??0?$_Deque_map@PAUtagMAGICATKMSG@@V?$allocator@PAUtagMAGICATKMSG@@@std@@@std@@IAE@V?$allocator@PAUtagMAGICATKMSG@@@1@@Z
_TEXT	SEGMENT PARA USE32 PUBLIC 'CODE'
_TEXT	ENDS
;	COMDAT ??0?$allocator@PAUtagMAGICATKMSG@@@std@@QAE@ABV01@@Z
_TEXT	SEGMENT PARA USE32 PUBLIC 'CODE'
_TEXT	ENDS
;	COMDAT ?deallocate@?$allocator@PAUtagMAGICATKMSG@@@std@@QAEXPAPAUtagMAGICATKMSG@@I@Z
_TEXT	SEGMENT PARA USE32 PUBLIC 'CODE'
_TEXT	ENDS
;	COMDAT ?deallocate@?$allocator@PAPAUtagMAGICATKMSG@@@std@@QAEXPAPAPAUtagMAGICATKMSG@@I@Z
_TEXT	SEGMENT PARA USE32 PUBLIC 'CODE'
_TEXT	ENDS
;	COMDAT ?destroy@?$allocator@PAPAUtagMAGICATKMSG@@@std@@QAEXPAPAPAUtagMAGICATKMSG@@@Z
_TEXT	SEGMENT PARA USE32 PUBLIC 'CODE'
_TEXT	ENDS
;	COMDAT ?begin@?$deque@UAIMSG@@V?$allocator@UAIMSG@@@std@@@std@@QAE?AViterator@12@XZ
_TEXT	SEGMENT PARA USE32 PUBLIC 'CODE'
_TEXT	ENDS
;	COMDAT ?pop_back@?$deque@UAIMSG@@V?$allocator@UAIMSG@@@std@@@std@@QAEXXZ
_TEXT	SEGMENT PARA USE32 PUBLIC 'CODE'
_TEXT	ENDS
;	COMDAT ?_Growmap@?$deque@UAIMSG@@V?$allocator@UAIMSG@@@std@@@std@@IAEXI@Z
_TEXT	SEGMENT PARA USE32 PUBLIC 'CODE'
_TEXT	ENDS
;	COMDAT ??0?$_Deque_val@UAIMSG@@V?$allocator@UAIMSG@@@std@@@std@@IAE@V?$allocator@UAIMSG@@@1@@Z
_TEXT	SEGMENT PARA USE32 PUBLIC 'CODE'
_TEXT	ENDS
;	COMDAT ??0?$allocator@UAIMSG@@@std@@QAE@XZ
_TEXT	SEGMENT PARA USE32 PUBLIC 'CODE'
_TEXT	ENDS
;	COMDAT ?deallocate@?$allocator@UAIMSG@@@std@@QAEXPAUAIMSG@@I@Z
_TEXT	SEGMENT PARA USE32 PUBLIC 'CODE'
_TEXT	ENDS
;	COMDAT ?allocate@?$allocator@UAIMSG@@@std@@QAEPAUAIMSG@@I@Z
_TEXT	SEGMENT PARA USE32 PUBLIC 'CODE'
_TEXT	ENDS
;	COMDAT ?construct@?$allocator@UAIMSG@@@std@@QAEXPAUAIMSG@@ABU3@@Z
_TEXT	SEGMENT PARA USE32 PUBLIC 'CODE'
_TEXT	ENDS
;	COMDAT ?destroy@?$allocator@UAIMSG@@@std@@QAEXPAUAIMSG@@@Z
_TEXT	SEGMENT PARA USE32 PUBLIC 'CODE'
_TEXT	ENDS
;	COMDAT ?deallocate@?$allocator@PAUAIMSG@@@std@@QAEXPAPAUAIMSG@@I@Z
_TEXT	SEGMENT PARA USE32 PUBLIC 'CODE'
_TEXT	ENDS
;	COMDAT ?destroy@?$allocator@PAUAIMSG@@@std@@QAEXPAPAUAIMSG@@@Z
_TEXT	SEGMENT PARA USE32 PUBLIC 'CODE'
_TEXT	ENDS
;	COMDAT ??0const_iterator@?$deque@PAUtagACTMSG@@V?$allocator@PAUtagACTMSG@@@std@@@std@@QAE@IPBV12@@Z
_TEXT	SEGMENT PARA USE32 PUBLIC 'CODE'
_TEXT	ENDS
;	COMDAT ??0const_iterator@?$deque@PAUtagMAGICATKMSG@@V?$allocator@PAUtagMAGICATKMSG@@@std@@@std@@QAE@IPBV12@@Z
_TEXT	SEGMENT PARA USE32 PUBLIC 'CODE'
_TEXT	ENDS
;	COMDAT ?begin@?$_Tree@V?$_Tmap_traits@KU_Friend@@U?$less@K@std@@V?$allocator@U?$pair@$$CBKU_Friend@@@std@@@3@$0A@@std@@@std@@QAE?AViterator@12@XZ
_TEXT	SEGMENT PARA USE32 PUBLIC 'CODE'
_TEXT	ENDS
;	COMDAT ?end@?$_Tree@V?$_Tmap_traits@KU_Friend@@U?$less@K@std@@V?$allocator@U?$pair@$$CBKU_Friend@@@std@@@3@$0A@@std@@@std@@QAE?AViterator@12@XZ
_TEXT	SEGMENT PARA USE32 PUBLIC 'CODE'
_TEXT	ENDS
;	COMDAT ?erase@?$_Tree@V?$_Tmap_traits@KU_Friend@@U?$less@K@std@@V?$allocator@U?$pair@$$CBKU_Friend@@@std@@@3@$0A@@std@@@std@@QAE?AViterator@12@V312@@Z
_TEXT	SEGMENT PARA USE32 PUBLIC 'CODE'
_TEXT	ENDS
;	COMDAT ?clear@?$_Tree@V?$_Tmap_traits@KU_Friend@@U?$less@K@std@@V?$allocator@U?$pair@$$CBKU_Friend@@@std@@@3@$0A@@std@@@std@@QAEXXZ
_TEXT	SEGMENT PARA USE32 PUBLIC 'CODE'
_TEXT	ENDS
;	COMDAT ?lower_bound@?$_Tree@V?$_Tmap_traits@KU_Friend@@U?$less@K@std@@V?$allocator@U?$pair@$$CBKU_Friend@@@std@@@3@$0A@@std@@@std@@QAE?AViterator@12@ABK@Z
_TEXT	SEGMENT PARA USE32 PUBLIC 'CODE'
_TEXT	ENDS
;	COMDAT ?upper_bound@?$_Tree@V?$_Tmap_traits@KU_Friend@@U?$less@K@std@@V?$allocator@U?$pair@$$CBKU_Friend@@@std@@@3@$0A@@std@@@std@@QAE?AViterator@12@ABK@Z
_TEXT	SEGMENT PARA USE32 PUBLIC 'CODE'
_TEXT	ENDS
;	COMDAT ??Eiterator@?$_Tree@V?$_Tmap_traits@KU_Friend@@U?$less@K@std@@V?$allocator@U?$pair@$$CBKU_Friend@@@std@@@3@$0A@@std@@@std@@QAE?AV012@H@Z
_TEXT	SEGMENT PARA USE32 PUBLIC 'CODE'
_TEXT	ENDS
;	COMDAT ??8const_iterator@?$_Tree@V?$_Tmap_traits@KU_Friend@@U?$less@K@std@@V?$allocator@U?$pair@$$CBKU_Friend@@@std@@@3@$0A@@std@@@std@@QBE_NABV012@@Z
_TEXT	SEGMENT PARA USE32 PUBLIC 'CODE'
_TEXT	ENDS
;	COMDAT ??9const_iterator@?$_Tree@V?$_Tmap_traits@KU_Friend@@U?$less@K@std@@V?$allocator@U?$pair@$$CBKU_Friend@@@std@@@3@$0A@@std@@@std@@QBE_NABV012@@Z
_TEXT	SEGMENT PARA USE32 PUBLIC 'CODE'
_TEXT	ENDS
;	COMDAT ?_Destroy@?$vector@PAU__JOINPLAYER@CGuildCombat@@V?$allocator@PAU__JOINPLAYER@CGuildCombat@@@std@@@std@@IAEXPAPAU__JOINPLAYER@CGuildCombat@@0@Z
_TEXT	SEGMENT PARA USE32 PUBLIC 'CODE'
_TEXT	ENDS
;	COMDAT ?deallocate@?$allocator@PAU__JOINPLAYER@CGuildCombat@@@std@@QAEXPAPAU__JOINPLAYER@CGuildCombat@@I@Z
_TEXT	SEGMENT PARA USE32 PUBLIC 'CODE'
_TEXT	ENDS
;	COMDAT ?max_size@?$vector@U__SECRETROOM_MONSTER@@V?$allocator@U__SECRETROOM_MONSTER@@@std@@@std@@QBEIXZ
_TEXT	SEGMENT PARA USE32 PUBLIC 'CODE'
_TEXT	ENDS
;	COMDAT ?_Destroy@?$vector@U__SECRETROOM_MONSTER@@V?$allocator@U__SECRETROOM_MONSTER@@@std@@@std@@IAEXPAU__SECRETROOM_MONSTER@@0@Z
_TEXT	SEGMENT PARA USE32 PUBLIC 'CODE'
_TEXT	ENDS
;	COMDAT ?_Xlen@?$vector@U__SECRETROOM_MONSTER@@V?$allocator@U__SECRETROOM_MONSTER@@@std@@@std@@IBEXXZ
_TEXT	SEGMENT PARA USE32 PUBLIC 'CODE'
_TEXT	ENDS
;	COMDAT ??0?$allocator@U__SECRETROOM_MONSTER@@@std@@QAE@ABV01@@Z
_TEXT	SEGMENT PARA USE32 PUBLIC 'CODE'
_TEXT	ENDS
;	COMDAT ?deallocate@?$allocator@U__SECRETROOM_MONSTER@@@std@@QAEXPAU__SECRETROOM_MONSTER@@I@Z
_TEXT	SEGMENT PARA USE32 PUBLIC 'CODE'
_TEXT	ENDS
;	COMDAT ?allocate@?$allocator@U__SECRETROOM_MONSTER@@@std@@QAEPAU__SECRETROOM_MONSTER@@I@Z
_TEXT	SEGMENT PARA USE32 PUBLIC 'CODE'
_TEXT	ENDS
;	COMDAT ?max_size@?$vector@V?$basic_string@DU?$char_traits@D@std@@V?$allocator@D@2@@std@@V?$allocator@V?$basic_string@DU?$char_traits@D@std@@V?$allocator@D@2@@std@@@2@@std@@QBEIXZ
_TEXT	SEGMENT PARA USE32 PUBLIC 'CODE'
_TEXT	ENDS
;	COMDAT ?_Destroy@?$vector@V?$basic_string@DU?$char_traits@D@std@@V?$allocator@D@2@@std@@V?$allocator@V?$basic_string@DU?$char_traits@D@std@@V?$allocator@D@2@@std@@@2@@std@@IAEXPAV?$basic_string@DU?$char_traits@D@std@@V?$allocator@D@2@@2@0@Z
_TEXT	SEGMENT PARA USE32 PUBLIC 'CODE'
_TEXT	ENDS
;	COMDAT ?_Insert_n@?$vector@V?$basic_string@DU?$char_traits@D@std@@V?$allocator@D@2@@std@@V?$allocator@V?$basic_string@DU?$char_traits@D@std@@V?$allocator@D@2@@std@@@2@@std@@IAEXViterator@12@IABV?$basic_string@DU?$char_traits@D@std@@V?$allocator@D@2@@2@@Z
_TEXT	SEGMENT PARA USE32 PUBLIC 'CODE'
_TEXT	ENDS
;	COMDAT ?_Xlen@?$vector@V?$basic_string@DU?$char_traits@D@std@@V?$allocator@D@2@@std@@V?$allocator@V?$basic_string@DU?$char_traits@D@std@@V?$allocator@D@2@@std@@@2@@std@@IBEXXZ
_TEXT	SEGMENT PARA USE32 PUBLIC 'CODE'
_TEXT	ENDS
;	COMDAT ?begin@?$vector@UMINIGMAME_PRIZE_LIST@CRainbowRaceMng@@V?$allocator@UMINIGMAME_PRIZE_LIST@CRainbowRaceMng@@@std@@@std@@QAE?AViterator@12@XZ
_TEXT	SEGMENT PARA USE32 PUBLIC 'CODE'
_TEXT	ENDS
;	COMDAT ?_Insert_n@?$vector@UMINIGMAME_PRIZE_LIST@CRainbowRaceMng@@V?$allocator@UMINIGMAME_PRIZE_LIST@CRainbowRaceMng@@@std@@@std@@IAEXViterator@12@IABUMINIGMAME_PRIZE_LIST@CRainbowRaceMng@@@Z
_TEXT	SEGMENT PARA USE32 PUBLIC 'CODE'
_TEXT	ENDS
;	COMDAT ?_Color@?$_Tree@V?$_Tmap_traits@KPAVCGuildHouseBase@@U?$less@K@std@@V?$allocator@U?$pair@$$CBKPAVCGuildHouseBase@@@std@@@3@$0A@@std@@@std@@KAAADPAU_Node@?$_Tree_nod@V?$_Tmap_traits@KPAVCGuildHouseBase@@U?$less@K@std@@V?$allocator@U?$pair@$$CBKPAVCGuildHouseBase@@@std@@@3@$0A@@std@@@2@@Z
_TEXT	SEGMENT PARA USE32 PUBLIC 'CODE'
_TEXT	ENDS
;	COMDAT ?_Parent@?$_Tree@V?$_Tmap_traits@KPAVCGuildHouseBase@@U?$less@K@std@@V?$allocator@U?$pair@$$CBKPAVCGuildHouseBase@@@std@@@3@$0A@@std@@@std@@KAAAPAU_Node@?$_Tree_nod@V?$_Tmap_traits@KPAVCGuildHouseBase@@U?$less@K@std@@V?$allocator@U?$pair@$$CBKPAVCGuildHouseBase@@@std@@@3@$0A@@std@@@2@PAU342@@Z
_TEXT	SEGMENT PARA USE32 PUBLIC 'CODE'
_TEXT	ENDS
;	COMDAT ?_Myval@?$_Tree@V?$_Tmap_traits@KPAVCGuildHouseBase@@U?$less@K@std@@V?$allocator@U?$pair@$$CBKPAVCGuildHouseBase@@@std@@@3@$0A@@std@@@std@@KAAAU?$pair@$$CBKPAVCGuildHouseBase@@@2@PAU_Node@?$_Tree_nod@V?$_Tmap_traits@KPAVCGuildHouseBase@@U?$less@K@std@@V?$allocator@U?$pair@$$CBKPAVCGuildHouseBase@@@std@@@3@$0A@@std@@@2@@Z
_TEXT	SEGMENT PARA USE32 PUBLIC 'CODE'
_TEXT	ENDS
;	COMDAT ?max_size@?$_Tree@V?$_Tmap_traits@KPAVCGuildHouseBase@@U?$less@K@std@@V?$allocator@U?$pair@$$CBKPAVCGuildHouseBase@@@std@@@3@$0A@@std@@@std@@QBEIXZ
_TEXT	SEGMENT PARA USE32 PUBLIC 'CODE'
_TEXT	ENDS
;	COMDAT ?_Lmost@?$_Tree@V?$_Tmap_traits@KPAVCGuildHouseBase@@U?$less@K@std@@V?$allocator@U?$pair@$$CBKPAVCGuildHouseBase@@@std@@@3@$0A@@std@@@std@@IAEAAPAU_Node@?$_Tree_nod@V?$_Tmap_traits@KPAVCGuildHouseBase@@U?$less@K@std@@V?$allocator@U?$pair@$$CBKPAVCGuildHouseBase@@@std@@@3@$0A@@std@@@2@XZ
_TEXT	SEGMENT PARA USE32 PUBLIC 'CODE'
_TEXT	ENDS
;	COMDAT ?_Lrotate@?$_Tree@V?$_Tmap_traits@KPAVCGuildHouseBase@@U?$less@K@std@@V?$allocator@U?$pair@$$CBKPAVCGuildHouseBase@@@std@@@3@$0A@@std@@@std@@IAEXPAU_Node@?$_Tree_nod@V?$_Tmap_traits@KPAVCGuildHouseBase@@U?$less@K@std@@V?$allocator@U?$pair@$$CBKPAVCGuildHouseBase@@@std@@@3@$0A@@std@@@2@@Z
_TEXT	SEGMENT PARA USE32 PUBLIC 'CODE'
_TEXT	ENDS
;	COMDAT ?_Rmost@?$_Tree@V?$_Tmap_traits@KPAVCGuildHouseBase@@U?$less@K@std@@V?$allocator@U?$pair@$$CBKPAVCGuildHouseBase@@@std@@@3@$0A@@std@@@std@@IAEAAPAU_Node@?$_Tree_nod@V?$_Tmap_traits@KPAVCGuildHouseBase@@U?$less@K@std@@V?$allocator@U?$pair@$$CBKPAVCGuildHouseBase@@@std@@@3@$0A@@std@@@2@XZ
_TEXT	SEGMENT PARA USE32 PUBLIC 'CODE'
_TEXT	ENDS
;	COMDAT ?_Rrotate@?$_Tree@V?$_Tmap_traits@KPAVCGuildHouseBase@@U?$less@K@std@@V?$allocator@U?$pair@$$CBKPAVCGuildHouseBase@@@std@@@3@$0A@@std@@@std@@IAEXPAU_Node@?$_Tree_nod@V?$_Tmap_traits@KPAVCGuildHouseBase@@U?$less@K@std@@V?$allocator@U?$pair@$$CBKPAVCGuildHouseBase@@@std@@@3@$0A@@std@@@2@@Z
_TEXT	SEGMENT PARA USE32 PUBLIC 'CODE'
_TEXT	ENDS
;	COMDAT ?_Buynode@?$_Tree@V?$_Tmap_traits@KPAVCGuildHouseBase@@U?$less@K@std@@V?$allocator@U?$pair@$$CBKPAVCGuildHouseBase@@@std@@@3@$0A@@std@@@std@@IAEPAU_Node@?$_Tree_nod@V?$_Tmap_traits@KPAVCGuildHouseBase@@U?$less@K@std@@V?$allocator@U?$pair@$$CBKPAVCGuildHouseBase@@@std@@@3@$0A@@std@@@2@PAU342@00ABU?$pair@$$CBKPAVCGuildHouseBase@@@2@D@Z
_TEXT	SEGMENT PARA USE32 PUBLIC 'CODE'
_TEXT	ENDS
;	COMDAT ??0const_iterator@?$_Tree@V?$_Tmap_traits@KPAVCGuildHouseBase@@U?$less@K@std@@V?$allocator@U?$pair@$$CBKPAVCGuildHouseBase@@@std@@@3@$0A@@std@@@std@@QAE@PAU_Node@?$_Tree_nod@V?$_Tmap_traits@KPAVCGuildHouseBase@@U?$less@K@std@@V?$allocator@U?$pair@$$CBKPAVCGuildHouseBase@@@std@@@3@$0A@@std@@@2@@Z
_TEXT	SEGMENT PARA USE32 PUBLIC 'CODE'
_TEXT	ENDS
;	COMDAT ??Fconst_iterator@?$_Tree@V?$_Tmap_traits@KPAVCGuildHouseBase@@U?$less@K@std@@V?$allocator@U?$pair@$$CBKPAVCGuildHouseBase@@@std@@@3@$0A@@std@@@std@@QAEAAV012@XZ
_TEXT	SEGMENT PARA USE32 PUBLIC 'CODE'
_TEXT	ENDS
;	COMDAT ?begin@?$_Tree@V?$_Tmap_traits@KKU?$less@K@std@@V?$allocator@U?$pair@$$CBKK@std@@@2@$0A@@std@@@std@@QAE?AViterator@12@XZ
_TEXT	SEGMENT PARA USE32 PUBLIC 'CODE'
_TEXT	ENDS
;	COMDAT ?end@?$_Tree@V?$_Tmap_traits@KKU?$less@K@std@@V?$allocator@U?$pair@$$CBKK@std@@@2@$0A@@std@@@std@@QAE?AViterator@12@XZ
_TEXT	SEGMENT PARA USE32 PUBLIC 'CODE'
_TEXT	ENDS
;	COMDAT ?erase@?$_Tree@V?$_Tmap_traits@KKU?$less@K@std@@V?$allocator@U?$pair@$$CBKK@std@@@2@$0A@@std@@@std@@QAE?AViterator@12@V312@@Z
_TEXT	SEGMENT PARA USE32 PUBLIC 'CODE'
_TEXT	ENDS
;	COMDAT ?clear@?$_Tree@V?$_Tmap_traits@KKU?$less@K@std@@V?$allocator@U?$pair@$$CBKK@std@@@2@$0A@@std@@@std@@QAEXXZ
_TEXT	SEGMENT PARA USE32 PUBLIC 'CODE'
_TEXT	ENDS
;	COMDAT ?lower_bound@?$_Tree@V?$_Tmap_traits@KKU?$less@K@std@@V?$allocator@U?$pair@$$CBKK@std@@@2@$0A@@std@@@std@@QAE?AViterator@12@ABK@Z
_TEXT	SEGMENT PARA USE32 PUBLIC 'CODE'
_TEXT	ENDS
;	COMDAT ?upper_bound@?$_Tree@V?$_Tmap_traits@KKU?$less@K@std@@V?$allocator@U?$pair@$$CBKK@std@@@2@$0A@@std@@@std@@QAE?AViterator@12@ABK@Z
_TEXT	SEGMENT PARA USE32 PUBLIC 'CODE'
_TEXT	ENDS
;	COMDAT ??Eiterator@?$_Tree@V?$_Tmap_traits@KKU?$less@K@std@@V?$allocator@U?$pair@$$CBKK@std@@@2@$0A@@std@@@std@@QAE?AV012@H@Z
_TEXT	SEGMENT PARA USE32 PUBLIC 'CODE'
_TEXT	ENDS
;	COMDAT ??8const_iterator@?$_Tree@V?$_Tmap_traits@KKU?$less@K@std@@V?$allocator@U?$pair@$$CBKK@std@@@2@$0A@@std@@@std@@QBE_NABV012@@Z
_TEXT	SEGMENT PARA USE32 PUBLIC 'CODE'
_TEXT	ENDS
;	COMDAT ??9const_iterator@?$_Tree@V?$_Tmap_traits@KKU?$less@K@std@@V?$allocator@U?$pair@$$CBKK@std@@@2@$0A@@std@@@std@@QBE_NABV012@@Z
_TEXT	SEGMENT PARA USE32 PUBLIC 'CODE'
_TEXT	ENDS
;	COMDAT ??0?$pair@Viterator@?$_Tree@V?$_Tmap_traits@KU_Friend@@U?$less@K@std@@V?$allocator@U?$pair@$$CBKU_Friend@@@std@@@3@$0A@@std@@@std@@V123@@std@@QAE@ABViterator@?$_Tree@V?$_Tmap_traits@KU_Friend@@U?$less@K@std@@V?$allocator@U?$pair@$$CBKU_Friend@@@std@@@3@$0A@@std@@@1@0@Z
_TEXT	SEGMENT PARA USE32 PUBLIC 'CODE'
_TEXT	ENDS
;	COMDAT ??0iterator@?$vector@PAU__JOINPLAYER@CGuildCombat@@V?$allocator@PAU__JOINPLAYER@CGuildCombat@@@std@@@std@@QAE@PAPAU__JOINPLAYER@CGuildCombat@@@Z
_TEXT	SEGMENT PARA USE32 PUBLIC 'CODE'
_TEXT	ENDS
;	COMDAT ??Yiterator@?$vector@PAU__JOINPLAYER@CGuildCombat@@V?$allocator@PAU__JOINPLAYER@CGuildCombat@@@std@@@std@@QAEAAV012@H@Z
_TEXT	SEGMENT PARA USE32 PUBLIC 'CODE'
_TEXT	ENDS
;	COMDAT ??Dconst_iterator@?$vector@PAU__JOINPLAYER@CGuildCombat@@V?$allocator@PAU__JOINPLAYER@CGuildCombat@@@std@@@std@@QBEABQAU__JOINPLAYER@CGuildCombat@@XZ
_TEXT	SEGMENT PARA USE32 PUBLIC 'CODE'
_TEXT	ENDS
;	COMDAT ??0iterator@?$vector@V?$basic_string@DU?$char_traits@D@std@@V?$allocator@D@2@@std@@V?$allocator@V?$basic_string@DU?$char_traits@D@std@@V?$allocator@D@2@@std@@@2@@std@@QAE@PAV?$basic_string@DU?$char_traits@D@std@@V?$allocator@D@2@@2@@Z
_TEXT	SEGMENT PARA USE32 PUBLIC 'CODE'
_TEXT	ENDS
;	COMDAT ??Yiterator@?$vector@V?$basic_string@DU?$char_traits@D@std@@V?$allocator@D@2@@std@@V?$allocator@V?$basic_string@DU?$char_traits@D@std@@V?$allocator@D@2@@std@@@2@@std@@QAEAAV012@H@Z
_TEXT	SEGMENT PARA USE32 PUBLIC 'CODE'
_TEXT	ENDS
;	COMDAT ??Giterator@?$vector@V?$basic_string@DU?$char_traits@D@std@@V?$allocator@D@2@@std@@V?$allocator@V?$basic_string@DU?$char_traits@D@std@@V?$allocator@D@2@@std@@@2@@std@@QBEHABVconst_iterator@12@@Z
_TEXT	SEGMENT PARA USE32 PUBLIC 'CODE'
_TEXT	ENDS
;	COMDAT ??Dconst_iterator@?$vector@V?$basic_string@DU?$char_traits@D@std@@V?$allocator@D@2@@std@@V?$allocator@V?$basic_string@DU?$char_traits@D@std@@V?$allocator@D@2@@std@@@2@@std@@QBEABV?$basic_string@DU?$char_traits@D@std@@V?$allocator@D@2@@2@XZ
_TEXT	SEGMENT PARA USE32 PUBLIC 'CODE'
_TEXT	ENDS
;	COMDAT ??0iterator@?$vector@UMINIGMAME_PRIZE_LIST@CRainbowRaceMng@@V?$allocator@UMINIGMAME_PRIZE_LIST@CRainbowRaceMng@@@std@@@std@@QAE@PAUMINIGMAME_PRIZE_LIST@CRainbowRaceMng@@@Z
_TEXT	SEGMENT PARA USE32 PUBLIC 'CODE'
_TEXT	ENDS
;	COMDAT ??Hiterator@?$vector@UMINIGMAME_PRIZE_LIST@CRainbowRaceMng@@V?$allocator@UMINIGMAME_PRIZE_LIST@CRainbowRaceMng@@@std@@@std@@QBE?AV012@H@Z
_TEXT	SEGMENT PARA USE32 PUBLIC 'CODE'
_TEXT	ENDS
;	COMDAT ??Giterator@?$vector@UMINIGMAME_PRIZE_LIST@CRainbowRaceMng@@V?$allocator@UMINIGMAME_PRIZE_LIST@CRainbowRaceMng@@@std@@@std@@QBEHABVconst_iterator@12@@Z
_TEXT	SEGMENT PARA USE32 PUBLIC 'CODE'
_TEXT	ENDS
;	COMDAT ??0iterator@?$vector@PAVCMiniGameBase@@V?$allocator@PAVCMiniGameBase@@@std@@@std@@QAE@PAPAVCMiniGameBase@@@Z
_TEXT	SEGMENT PARA USE32 PUBLIC 'CODE'
_TEXT	ENDS
;	COMDAT ??Yiterator@?$vector@PAVCMiniGameBase@@V?$allocator@PAVCMiniGameBase@@@std@@@std@@QAEAAV012@H@Z
_TEXT	SEGMENT PARA USE32 PUBLIC 'CODE'
_TEXT	ENDS
;	COMDAT ??Dconst_iterator@?$vector@PAVCMiniGameBase@@V?$allocator@PAVCMiniGameBase@@@std@@@std@@QBEABQAVCMiniGameBase@@XZ
_TEXT	SEGMENT PARA USE32 PUBLIC 'CODE'
_TEXT	ENDS
;	COMDAT ??0iterator@?$vector@UGuildHouse_Furniture_Info@CGuildHouseBase@@V?$allocator@UGuildHouse_Furniture_Info@CGuildHouseBase@@@std@@@std@@QAE@PAUGuildHouse_Furniture_Info@CGuildHouseBase@@@Z
_TEXT	SEGMENT PARA USE32 PUBLIC 'CODE'
_TEXT	ENDS
;	COMDAT ??Yiterator@?$vector@UGuildHouse_Furniture_Info@CGuildHouseBase@@V?$allocator@UGuildHouse_Furniture_Info@CGuildHouseBase@@@std@@@std@@QAEAAV012@H@Z
_TEXT	SEGMENT PARA USE32 PUBLIC 'CODE'
_TEXT	ENDS
;	COMDAT ??Dconst_iterator@?$vector@UGuildHouse_Furniture_Info@CGuildHouseBase@@V?$allocator@UGuildHouse_Furniture_Info@CGuildHouseBase@@@std@@@std@@QBEABUGuildHouse_Furniture_Info@CGuildHouseBase@@XZ
_TEXT	SEGMENT PARA USE32 PUBLIC 'CODE'
_TEXT	ENDS
;	COMDAT ??0?$pair@Viterator@?$_Tree@V?$_Tmap_traits@KKU?$less@K@std@@V?$allocator@U?$pair@$$CBKK@std@@@2@$0A@@std@@@std@@V123@@std@@QAE@ABViterator@?$_Tree@V?$_Tmap_traits@KKU?$less@K@std@@V?$allocator@U?$pair@$$CBKK@std@@@2@$0A@@std@@@1@0@Z
_TEXT	SEGMENT PARA USE32 PUBLIC 'CODE'
_TEXT	ENDS
;	COMDAT ??Diterator@?$deque@UAIMSG@@V?$allocator@UAIMSG@@@std@@@std@@QBEAAUAIMSG@@XZ
_TEXT	SEGMENT PARA USE32 PUBLIC 'CODE'
_TEXT	ENDS
;	COMDAT ?max_size@?$allocator@V?$basic_string@DU?$char_traits@D@std@@V?$allocator@D@2@@std@@@std@@QBEIXZ
_TEXT	SEGMENT PARA USE32 PUBLIC 'CODE'
_TEXT	ENDS
;	COMDAT ??0const_iterator@?$_Tree@V?$_Tmap_traits@KPAVCCtrl@@U?$less@K@std@@V?$allocator@U?$pair@$$CBKPAVCCtrl@@@std@@@3@$0A@@std@@@std@@QAE@XZ
_TEXT	SEGMENT PARA USE32 PUBLIC 'CODE'
_TEXT	ENDS
;	COMDAT ?destroy@?$allocator@PAUtagACTMSG@@@std@@QAEXPAPAUtagACTMSG@@@Z
_TEXT	SEGMENT PARA USE32 PUBLIC 'CODE'
_TEXT	ENDS
;	COMDAT ?destroy@?$allocator@PAUtagMAGICATKMSG@@@std@@QAEXPAPAUtagMAGICATKMSG@@@Z
_TEXT	SEGMENT PARA USE32 PUBLIC 'CODE'
_TEXT	ENDS
;	COMDAT ?max_size@?$deque@UAIMSG@@V?$allocator@UAIMSG@@@std@@@std@@QBEIXZ
_TEXT	SEGMENT PARA USE32 PUBLIC 'CODE'
_TEXT	ENDS
;	COMDAT ?_Xlen@?$deque@UAIMSG@@V?$allocator@UAIMSG@@@std@@@std@@IBEXXZ
_TEXT	SEGMENT PARA USE32 PUBLIC 'CODE'
_TEXT	ENDS
;	COMDAT ??0?$_Deque_map@UAIMSG@@V?$allocator@UAIMSG@@@std@@@std@@IAE@V?$allocator@UAIMSG@@@1@@Z
_TEXT	SEGMENT PARA USE32 PUBLIC 'CODE'
_TEXT	ENDS
;	COMDAT ??0?$allocator@UAIMSG@@@std@@QAE@ABV01@@Z
_TEXT	SEGMENT PARA USE32 PUBLIC 'CODE'
_TEXT	ENDS
;	COMDAT ?allocate@?$allocator@PAUAIMSG@@@std@@QAEPAPAUAIMSG@@I@Z
_TEXT	SEGMENT PARA USE32 PUBLIC 'CODE'
_TEXT	ENDS
;	COMDAT ?_Color@?$_Tree@V?$_Tmap_traits@KU_Friend@@U?$less@K@std@@V?$allocator@U?$pair@$$CBKU_Friend@@@std@@@3@$0A@@std@@@std@@KAAADPAU_Node@?$_Tree_nod@V?$_Tmap_traits@KU_Friend@@U?$less@K@std@@V?$allocator@U?$pair@$$CBKU_Friend@@@std@@@3@$0A@@std@@@2@@Z
_TEXT	SEGMENT PARA USE32 PUBLIC 'CODE'
_TEXT	ENDS
;	COMDAT ?_Isnil@?$_Tree@V?$_Tmap_traits@KU_Friend@@U?$less@K@std@@V?$allocator@U?$pair@$$CBKU_Friend@@@std@@@3@$0A@@std@@@std@@KAAADPAU_Node@?$_Tree_nod@V?$_Tmap_traits@KU_Friend@@U?$less@K@std@@V?$allocator@U?$pair@$$CBKU_Friend@@@std@@@3@$0A@@std@@@2@@Z
_TEXT	SEGMENT PARA USE32 PUBLIC 'CODE'
_TEXT	ENDS
;	COMDAT ?_Left@?$_Tree@V?$_Tmap_traits@KU_Friend@@U?$less@K@std@@V?$allocator@U?$pair@$$CBKU_Friend@@@std@@@3@$0A@@std@@@std@@KAAAPAU_Node@?$_Tree_nod@V?$_Tmap_traits@KU_Friend@@U?$less@K@std@@V?$allocator@U?$pair@$$CBKU_Friend@@@std@@@3@$0A@@std@@@2@PAU342@@Z
_TEXT	SEGMENT PARA USE32 PUBLIC 'CODE'
_TEXT	ENDS
;	COMDAT ?_Parent@?$_Tree@V?$_Tmap_traits@KU_Friend@@U?$less@K@std@@V?$allocator@U?$pair@$$CBKU_Friend@@@std@@@3@$0A@@std@@@std@@KAAAPAU_Node@?$_Tree_nod@V?$_Tmap_traits@KU_Friend@@U?$less@K@std@@V?$allocator@U?$pair@$$CBKU_Friend@@@std@@@3@$0A@@std@@@2@PAU342@@Z
_TEXT	SEGMENT PARA USE32 PUBLIC 'CODE'
_TEXT	ENDS
;	COMDAT ?_Right@?$_Tree@V?$_Tmap_traits@KU_Friend@@U?$less@K@std@@V?$allocator@U?$pair@$$CBKU_Friend@@@std@@@3@$0A@@std@@@std@@KAAAPAU_Node@?$_Tree_nod@V?$_Tmap_traits@KU_Friend@@U?$less@K@std@@V?$allocator@U?$pair@$$CBKU_Friend@@@std@@@3@$0A@@std@@@2@PAU342@@Z
_TEXT	SEGMENT PARA USE32 PUBLIC 'CODE'
_TEXT	ENDS
;	COMDAT ?_Erase@?$_Tree@V?$_Tmap_traits@KU_Friend@@U?$less@K@std@@V?$allocator@U?$pair@$$CBKU_Friend@@@std@@@3@$0A@@std@@@std@@IAEXPAU_Node@?$_Tree_nod@V?$_Tmap_traits@KU_Friend@@U?$less@K@std@@V?$allocator@U?$pair@$$CBKU_Friend@@@std@@@3@$0A@@std@@@2@@Z
_TEXT	SEGMENT PARA USE32 PUBLIC 'CODE'
_TEXT	ENDS
;	COMDAT ?_Lbound@?$_Tree@V?$_Tmap_traits@KU_Friend@@U?$less@K@std@@V?$allocator@U?$pair@$$CBKU_Friend@@@std@@@3@$0A@@std@@@std@@IBEPAU_Node@?$_Tree_nod@V?$_Tmap_traits@KU_Friend@@U?$less@K@std@@V?$allocator@U?$pair@$$CBKU_Friend@@@std@@@3@$0A@@std@@@2@ABK@Z
_TEXT	SEGMENT PARA USE32 PUBLIC 'CODE'
_TEXT	ENDS
;	COMDAT ?_Lmost@?$_Tree@V?$_Tmap_traits@KU_Friend@@U?$less@K@std@@V?$allocator@U?$pair@$$CBKU_Friend@@@std@@@3@$0A@@std@@@std@@IAEAAPAU_Node@?$_Tree_nod@V?$_Tmap_traits@KU_Friend@@U?$less@K@std@@V?$allocator@U?$pair@$$CBKU_Friend@@@std@@@3@$0A@@std@@@2@XZ
_TEXT	SEGMENT PARA USE32 PUBLIC 'CODE'
_TEXT	ENDS
;	COMDAT ?_Lrotate@?$_Tree@V?$_Tmap_traits@KU_Friend@@U?$less@K@std@@V?$allocator@U?$pair@$$CBKU_Friend@@@std@@@3@$0A@@std@@@std@@IAEXPAU_Node@?$_Tree_nod@V?$_Tmap_traits@KU_Friend@@U?$less@K@std@@V?$allocator@U?$pair@$$CBKU_Friend@@@std@@@3@$0A@@std@@@2@@Z
_TEXT	SEGMENT PARA USE32 PUBLIC 'CODE'
_TEXT	ENDS
;	COMDAT ?_Max@?$_Tree@V?$_Tmap_traits@KU_Friend@@U?$less@K@std@@V?$allocator@U?$pair@$$CBKU_Friend@@@std@@@3@$0A@@std@@@std@@KAPAU_Node@?$_Tree_nod@V?$_Tmap_traits@KU_Friend@@U?$less@K@std@@V?$allocator@U?$pair@$$CBKU_Friend@@@std@@@3@$0A@@std@@@2@PAU342@@Z
_TEXT	SEGMENT PARA USE32 PUBLIC 'CODE'
_TEXT	ENDS
;	COMDAT ?_Min@?$_Tree@V?$_Tmap_traits@KU_Friend@@U?$less@K@std@@V?$allocator@U?$pair@$$CBKU_Friend@@@std@@@3@$0A@@std@@@std@@KAPAU_Node@?$_Tree_nod@V?$_Tmap_traits@KU_Friend@@U?$less@K@std@@V?$allocator@U?$pair@$$CBKU_Friend@@@std@@@3@$0A@@std@@@2@PAU342@@Z
_TEXT	SEGMENT PARA USE32 PUBLIC 'CODE'
_TEXT	ENDS
;	COMDAT ?_Rmost@?$_Tree@V?$_Tmap_traits@KU_Friend@@U?$less@K@std@@V?$allocator@U?$pair@$$CBKU_Friend@@@std@@@3@$0A@@std@@@std@@IAEAAPAU_Node@?$_Tree_nod@V?$_Tmap_traits@KU_Friend@@U?$less@K@std@@V?$allocator@U?$pair@$$CBKU_Friend@@@std@@@3@$0A@@std@@@2@XZ
_TEXT	SEGMENT PARA USE32 PUBLIC 'CODE'
_TEXT	ENDS
;	COMDAT ?_Root@?$_Tree@V?$_Tmap_traits@KU_Friend@@U?$less@K@std@@V?$allocator@U?$pair@$$CBKU_Friend@@@std@@@3@$0A@@std@@@std@@IAEAAPAU_Node@?$_Tree_nod@V?$_Tmap_traits@KU_Friend@@U?$less@K@std@@V?$allocator@U?$pair@$$CBKU_Friend@@@std@@@3@$0A@@std@@@2@XZ
_TEXT	SEGMENT PARA USE32 PUBLIC 'CODE'
_TEXT	ENDS
;	COMDAT ?_Rrotate@?$_Tree@V?$_Tmap_traits@KU_Friend@@U?$less@K@std@@V?$allocator@U?$pair@$$CBKU_Friend@@@std@@@3@$0A@@std@@@std@@IAEXPAU_Node@?$_Tree_nod@V?$_Tmap_traits@KU_Friend@@U?$less@K@std@@V?$allocator@U?$pair@$$CBKU_Friend@@@std@@@3@$0A@@std@@@2@@Z
_TEXT	SEGMENT PARA USE32 PUBLIC 'CODE'
_TEXT	ENDS
;	COMDAT ?_Ubound@?$_Tree@V?$_Tmap_traits@KU_Friend@@U?$less@K@std@@V?$allocator@U?$pair@$$CBKU_Friend@@@std@@@3@$0A@@std@@@std@@IBEPAU_Node@?$_Tree_nod@V?$_Tmap_traits@KU_Friend@@U?$less@K@std@@V?$allocator@U?$pair@$$CBKU_Friend@@@std@@@3@$0A@@std@@@2@ABK@Z
_TEXT	SEGMENT PARA USE32 PUBLIC 'CODE'
_TEXT	ENDS
;	COMDAT ?deallocate@?$allocator@U_Node@?$_Tree_nod@V?$_Tmap_traits@KU_Friend@@U?$less@K@std@@V?$allocator@U?$pair@$$CBKU_Friend@@@std@@@3@$0A@@std@@@std@@@std@@QAEXPAU_Node@?$_Tree_nod@V?$_Tmap_traits@KU_Friend@@U?$less@K@std@@V?$allocator@U?$pair@$$CBKU_Friend@@@std@@@3@$0A@@std@@@2@I@Z
_TEXT	SEGMENT PARA USE32 PUBLIC 'CODE'
_TEXT	ENDS
;	COMDAT ?destroy@?$allocator@U_Node@?$_Tree_nod@V?$_Tmap_traits@KU_Friend@@U?$less@K@std@@V?$allocator@U?$pair@$$CBKU_Friend@@@std@@@3@$0A@@std@@@std@@@std@@QAEXPAU_Node@?$_Tree_nod@V?$_Tmap_traits@KU_Friend@@U?$less@K@std@@V?$allocator@U?$pair@$$CBKU_Friend@@@std@@@3@$0A@@std@@@2@@Z
_TEXT	SEGMENT PARA USE32 PUBLIC 'CODE'
_TEXT	ENDS
;	COMDAT ??0iterator@?$_Tree@V?$_Tmap_traits@KU_Friend@@U?$less@K@std@@V?$allocator@U?$pair@$$CBKU_Friend@@@std@@@3@$0A@@std@@@std@@QAE@PAU_Node@?$_Tree_nod@V?$_Tmap_traits@KU_Friend@@U?$less@K@std@@V?$allocator@U?$pair@$$CBKU_Friend@@@std@@@3@$0A@@std@@@2@@Z
_TEXT	SEGMENT PARA USE32 PUBLIC 'CODE'
_TEXT	ENDS
;	COMDAT ??Eiterator@?$_Tree@V?$_Tmap_traits@KU_Friend@@U?$less@K@std@@V?$allocator@U?$pair@$$CBKU_Friend@@@std@@@3@$0A@@std@@@std@@QAEAAV012@XZ
_TEXT	SEGMENT PARA USE32 PUBLIC 'CODE'
_TEXT	ENDS
;	COMDAT ?_Mynode@const_iterator@?$_Tree@V?$_Tmap_traits@KU_Friend@@U?$less@K@std@@V?$allocator@U?$pair@$$CBKU_Friend@@@std@@@3@$0A@@std@@@std@@QBEPAU_Node@?$_Tree_nod@V?$_Tmap_traits@KU_Friend@@U?$less@K@std@@V?$allocator@U?$pair@$$CBKU_Friend@@@std@@@3@$0A@@std@@@3@XZ
_TEXT	SEGMENT PARA USE32 PUBLIC 'CODE'
_TEXT	ENDS
;	COMDAT ?max_size@?$allocator@U__SECRETROOM_MONSTER@@@std@@QBEIXZ
_TEXT	SEGMENT PARA USE32 PUBLIC 'CODE'
_TEXT	ENDS
;	COMDAT ?max_size@?$vector@UMINIGMAME_PRIZE_LIST@CRainbowRaceMng@@V?$allocator@UMINIGMAME_PRIZE_LIST@CRainbowRaceMng@@@std@@@std@@QBEIXZ
_TEXT	SEGMENT PARA USE32 PUBLIC 'CODE'
_TEXT	ENDS
;	COMDAT ?_Destroy@?$vector@UMINIGMAME_PRIZE_LIST@CRainbowRaceMng@@V?$allocator@UMINIGMAME_PRIZE_LIST@CRainbowRaceMng@@@std@@@std@@IAEXPAUMINIGMAME_PRIZE_LIST@CRainbowRaceMng@@0@Z
_TEXT	SEGMENT PARA USE32 PUBLIC 'CODE'
_TEXT	ENDS
;	COMDAT ?_Xlen@?$vector@UMINIGMAME_PRIZE_LIST@CRainbowRaceMng@@V?$allocator@UMINIGMAME_PRIZE_LIST@CRainbowRaceMng@@@std@@@std@@IBEXXZ
_TEXT	SEGMENT PARA USE32 PUBLIC 'CODE'
_TEXT	ENDS
;	COMDAT ?deallocate@?$allocator@UMINIGMAME_PRIZE_LIST@CRainbowRaceMng@@@std@@QAEXPAUMINIGMAME_PRIZE_LIST@CRainbowRaceMng@@I@Z
_TEXT	SEGMENT PARA USE32 PUBLIC 'CODE'
_TEXT	ENDS
;	COMDAT ?allocate@?$allocator@UMINIGMAME_PRIZE_LIST@CRainbowRaceMng@@@std@@QAEPAUMINIGMAME_PRIZE_LIST@CRainbowRaceMng@@I@Z
_TEXT	SEGMENT PARA USE32 PUBLIC 'CODE'
_TEXT	ENDS
;	COMDAT ?max_size@?$allocator@U?$pair@$$CBKPAVCGuildHouseBase@@@std@@@std@@QBEIXZ
_TEXT	SEGMENT PARA USE32 PUBLIC 'CODE'
_TEXT	ENDS
;	COMDAT ?deallocate@?$allocator@U_Node@?$_Tree_nod@V?$_Tmap_traits@KPAVCGuildHouseBase@@U?$less@K@std@@V?$allocator@U?$pair@$$CBKPAVCGuildHouseBase@@@std@@@3@$0A@@std@@@std@@@std@@QAEXPAU_Node@?$_Tree_nod@V?$_Tmap_traits@KPAVCGuildHouseBase@@U?$less@K@std@@V?$allocator@U?$pair@$$CBKPAVCGuildHouseBase@@@std@@@3@$0A@@std@@@2@I@Z
_TEXT	SEGMENT PARA USE32 PUBLIC 'CODE'
_TEXT	ENDS
;	COMDAT ?allocate@?$allocator@U_Node@?$_Tree_nod@V?$_Tmap_traits@KPAVCGuildHouseBase@@U?$less@K@std@@V?$allocator@U?$pair@$$CBKPAVCGuildHouseBase@@@std@@@3@$0A@@std@@@std@@@std@@QAEPAU_Node@?$_Tree_nod@V?$_Tmap_traits@KPAVCGuildHouseBase@@U?$less@K@std@@V?$allocator@U?$pair@$$CBKPAVCGuildHouseBase@@@std@@@3@$0A@@std@@@2@I@Z
_TEXT	SEGMENT PARA USE32 PUBLIC 'CODE'
_TEXT	ENDS
;	COMDAT ?_Dec@const_iterator@?$_Tree@V?$_Tmap_traits@KPAVCGuildHouseBase@@U?$less@K@std@@V?$allocator@U?$pair@$$CBKPAVCGuildHouseBase@@@std@@@3@$0A@@std@@@std@@QAEXXZ
_TEXT	SEGMENT PARA USE32 PUBLIC 'CODE'
_TEXT	ENDS
;	COMDAT ?_Color@?$_Tree@V?$_Tmap_traits@KKU?$less@K@std@@V?$allocator@U?$pair@$$CBKK@std@@@2@$0A@@std@@@std@@KAAADPAU_Node@?$_Tree_nod@V?$_Tmap_traits@KKU?$less@K@std@@V?$allocator@U?$pair@$$CBKK@std@@@2@$0A@@std@@@2@@Z
_TEXT	SEGMENT PARA USE32 PUBLIC 'CODE'
_TEXT	ENDS
;	COMDAT ?_Isnil@?$_Tree@V?$_Tmap_traits@KKU?$less@K@std@@V?$allocator@U?$pair@$$CBKK@std@@@2@$0A@@std@@@std@@KAAADPAU_Node@?$_Tree_nod@V?$_Tmap_traits@KKU?$less@K@std@@V?$allocator@U?$pair@$$CBKK@std@@@2@$0A@@std@@@2@@Z
_TEXT	SEGMENT PARA USE32 PUBLIC 'CODE'
_TEXT	ENDS
;	COMDAT ?_Left@?$_Tree@V?$_Tmap_traits@KKU?$less@K@std@@V?$allocator@U?$pair@$$CBKK@std@@@2@$0A@@std@@@std@@KAAAPAU_Node@?$_Tree_nod@V?$_Tmap_traits@KKU?$less@K@std@@V?$allocator@U?$pair@$$CBKK@std@@@2@$0A@@std@@@2@PAU342@@Z
_TEXT	SEGMENT PARA USE32 PUBLIC 'CODE'
_TEXT	ENDS
;	COMDAT ?_Parent@?$_Tree@V?$_Tmap_traits@KKU?$less@K@std@@V?$allocator@U?$pair@$$CBKK@std@@@2@$0A@@std@@@std@@KAAAPAU_Node@?$_Tree_nod@V?$_Tmap_traits@KKU?$less@K@std@@V?$allocator@U?$pair@$$CBKK@std@@@2@$0A@@std@@@2@PAU342@@Z
_TEXT	SEGMENT PARA USE32 PUBLIC 'CODE'
_TEXT	ENDS
;	COMDAT ?_Right@?$_Tree@V?$_Tmap_traits@KKU?$less@K@std@@V?$allocator@U?$pair@$$CBKK@std@@@2@$0A@@std@@@std@@KAAAPAU_Node@?$_Tree_nod@V?$_Tmap_traits@KKU?$less@K@std@@V?$allocator@U?$pair@$$CBKK@std@@@2@$0A@@std@@@2@PAU342@@Z
_TEXT	SEGMENT PARA USE32 PUBLIC 'CODE'
_TEXT	ENDS
;	COMDAT ?_Erase@?$_Tree@V?$_Tmap_traits@KKU?$less@K@std@@V?$allocator@U?$pair@$$CBKK@std@@@2@$0A@@std@@@std@@IAEXPAU_Node@?$_Tree_nod@V?$_Tmap_traits@KKU?$less@K@std@@V?$allocator@U?$pair@$$CBKK@std@@@2@$0A@@std@@@2@@Z
_TEXT	SEGMENT PARA USE32 PUBLIC 'CODE'
_TEXT	ENDS
;	COMDAT ?_Lbound@?$_Tree@V?$_Tmap_traits@KKU?$less@K@std@@V?$allocator@U?$pair@$$CBKK@std@@@2@$0A@@std@@@std@@IBEPAU_Node@?$_Tree_nod@V?$_Tmap_traits@KKU?$less@K@std@@V?$allocator@U?$pair@$$CBKK@std@@@2@$0A@@std@@@2@ABK@Z
_TEXT	SEGMENT PARA USE32 PUBLIC 'CODE'
_TEXT	ENDS
;	COMDAT ?_Lmost@?$_Tree@V?$_Tmap_traits@KKU?$less@K@std@@V?$allocator@U?$pair@$$CBKK@std@@@2@$0A@@std@@@std@@IAEAAPAU_Node@?$_Tree_nod@V?$_Tmap_traits@KKU?$less@K@std@@V?$allocator@U?$pair@$$CBKK@std@@@2@$0A@@std@@@2@XZ
_TEXT	SEGMENT PARA USE32 PUBLIC 'CODE'
_TEXT	ENDS
;	COMDAT ?_Lrotate@?$_Tree@V?$_Tmap_traits@KKU?$less@K@std@@V?$allocator@U?$pair@$$CBKK@std@@@2@$0A@@std@@@std@@IAEXPAU_Node@?$_Tree_nod@V?$_Tmap_traits@KKU?$less@K@std@@V?$allocator@U?$pair@$$CBKK@std@@@2@$0A@@std@@@2@@Z
_TEXT	SEGMENT PARA USE32 PUBLIC 'CODE'
_TEXT	ENDS
;	COMDAT ?_Max@?$_Tree@V?$_Tmap_traits@KKU?$less@K@std@@V?$allocator@U?$pair@$$CBKK@std@@@2@$0A@@std@@@std@@KAPAU_Node@?$_Tree_nod@V?$_Tmap_traits@KKU?$less@K@std@@V?$allocator@U?$pair@$$CBKK@std@@@2@$0A@@std@@@2@PAU342@@Z
_TEXT	SEGMENT PARA USE32 PUBLIC 'CODE'
_TEXT	ENDS
;	COMDAT ?_Min@?$_Tree@V?$_Tmap_traits@KKU?$less@K@std@@V?$allocator@U?$pair@$$CBKK@std@@@2@$0A@@std@@@std@@KAPAU_Node@?$_Tree_nod@V?$_Tmap_traits@KKU?$less@K@std@@V?$allocator@U?$pair@$$CBKK@std@@@2@$0A@@std@@@2@PAU342@@Z
_TEXT	SEGMENT PARA USE32 PUBLIC 'CODE'
_TEXT	ENDS
;	COMDAT ?_Rmost@?$_Tree@V?$_Tmap_traits@KKU?$less@K@std@@V?$allocator@U?$pair@$$CBKK@std@@@2@$0A@@std@@@std@@IAEAAPAU_Node@?$_Tree_nod@V?$_Tmap_traits@KKU?$less@K@std@@V?$allocator@U?$pair@$$CBKK@std@@@2@$0A@@std@@@2@XZ
_TEXT	SEGMENT PARA USE32 PUBLIC 'CODE'
_TEXT	ENDS
;	COMDAT ?_Root@?$_Tree@V?$_Tmap_traits@KKU?$less@K@std@@V?$allocator@U?$pair@$$CBKK@std@@@2@$0A@@std@@@std@@IAEAAPAU_Node@?$_Tree_nod@V?$_Tmap_traits@KKU?$less@K@std@@V?$allocator@U?$pair@$$CBKK@std@@@2@$0A@@std@@@2@XZ
_TEXT	SEGMENT PARA USE32 PUBLIC 'CODE'
_TEXT	ENDS
;	COMDAT ?_Rrotate@?$_Tree@V?$_Tmap_traits@KKU?$less@K@std@@V?$allocator@U?$pair@$$CBKK@std@@@2@$0A@@std@@@std@@IAEXPAU_Node@?$_Tree_nod@V?$_Tmap_traits@KKU?$less@K@std@@V?$allocator@U?$pair@$$CBKK@std@@@2@$0A@@std@@@2@@Z
_TEXT	SEGMENT PARA USE32 PUBLIC 'CODE'
_TEXT	ENDS
;	COMDAT ?_Ubound@?$_Tree@V?$_Tmap_traits@KKU?$less@K@std@@V?$allocator@U?$pair@$$CBKK@std@@@2@$0A@@std@@@std@@IBEPAU_Node@?$_Tree_nod@V?$_Tmap_traits@KKU?$less@K@std@@V?$allocator@U?$pair@$$CBKK@std@@@2@$0A@@std@@@2@ABK@Z
_TEXT	SEGMENT PARA USE32 PUBLIC 'CODE'
_TEXT	ENDS
;	COMDAT ?deallocate@?$allocator@U_Node@?$_Tree_nod@V?$_Tmap_traits@KKU?$less@K@std@@V?$allocator@U?$pair@$$CBKK@std@@@2@$0A@@std@@@std@@@std@@QAEXPAU_Node@?$_Tree_nod@V?$_Tmap_traits@KKU?$less@K@std@@V?$allocator@U?$pair@$$CBKK@std@@@2@$0A@@std@@@2@I@Z
_TEXT	SEGMENT PARA USE32 PUBLIC 'CODE'
_TEXT	ENDS
;	COMDAT ?destroy@?$allocator@U_Node@?$_Tree_nod@V?$_Tmap_traits@KKU?$less@K@std@@V?$allocator@U?$pair@$$CBKK@std@@@2@$0A@@std@@@std@@@std@@QAEXPAU_Node@?$_Tree_nod@V?$_Tmap_traits@KKU?$less@K@std@@V?$allocator@U?$pair@$$CBKK@std@@@2@$0A@@std@@@2@@Z
_TEXT	SEGMENT PARA USE32 PUBLIC 'CODE'
_TEXT	ENDS
;	COMDAT ??0iterator@?$_Tree@V?$_Tmap_traits@KKU?$less@K@std@@V?$allocator@U?$pair@$$CBKK@std@@@2@$0A@@std@@@std@@QAE@PAU_Node@?$_Tree_nod@V?$_Tmap_traits@KKU?$less@K@std@@V?$allocator@U?$pair@$$CBKK@std@@@2@$0A@@std@@@2@@Z
_TEXT	SEGMENT PARA USE32 PUBLIC 'CODE'
_TEXT	ENDS
;	COMDAT ??Eiterator@?$_Tree@V?$_Tmap_traits@KKU?$less@K@std@@V?$allocator@U?$pair@$$CBKK@std@@@2@$0A@@std@@@std@@QAEAAV012@XZ
_TEXT	SEGMENT PARA USE32 PUBLIC 'CODE'
_TEXT	ENDS
;	COMDAT ?_Mynode@const_iterator@?$_Tree@V?$_Tmap_traits@KKU?$less@K@std@@V?$allocator@U?$pair@$$CBKK@std@@@2@$0A@@std@@@std@@QBEPAU_Node@?$_Tree_nod@V?$_Tmap_traits@KKU?$less@K@std@@V?$allocator@U?$pair@$$CBKK@std@@@2@$0A@@std@@@3@XZ
_TEXT	SEGMENT PARA USE32 PUBLIC 'CODE'
_TEXT	ENDS
;	COMDAT ??0const_iterator@?$vector@PAU__JOINPLAYER@CGuildCombat@@V?$allocator@PAU__JOINPLAYER@CGuildCombat@@@std@@@std@@QAE@PAPAU__JOINPLAYER@CGuildCombat@@@Z
_TEXT	SEGMENT PARA USE32 PUBLIC 'CODE'
_TEXT	ENDS
;	COMDAT ??0const_iterator@?$vector@V?$basic_string@DU?$char_traits@D@std@@V?$allocator@D@2@@std@@V?$allocator@V?$basic_string@DU?$char_traits@D@std@@V?$allocator@D@2@@std@@@2@@std@@QAE@PAV?$basic_string@DU?$char_traits@D@std@@V?$allocator@D@2@@2@@Z
_TEXT	SEGMENT PARA USE32 PUBLIC 'CODE'
_TEXT	ENDS
;	COMDAT ??Gconst_iterator@?$vector@V?$basic_string@DU?$char_traits@D@std@@V?$allocator@D@2@@std@@V?$allocator@V?$basic_string@DU?$char_traits@D@std@@V?$allocator@D@2@@std@@@2@@std@@QBEHABV012@@Z
_TEXT	SEGMENT PARA USE32 PUBLIC 'CODE'
_TEXT	ENDS
;	COMDAT ??Yiterator@?$vector@UMINIGMAME_PRIZE_LIST@CRainbowRaceMng@@V?$allocator@UMINIGMAME_PRIZE_LIST@CRainbowRaceMng@@@std@@@std@@QAEAAV012@H@Z
_TEXT	SEGMENT PARA USE32 PUBLIC 'CODE'
_TEXT	ENDS
;	COMDAT ??0const_iterator@?$vector@UMINIGMAME_PRIZE_LIST@CRainbowRaceMng@@V?$allocator@UMINIGMAME_PRIZE_LIST@CRainbowRaceMng@@@std@@@std@@QAE@PAUMINIGMAME_PRIZE_LIST@CRainbowRaceMng@@@Z
_TEXT	SEGMENT PARA USE32 PUBLIC 'CODE'
_TEXT	ENDS
;	COMDAT ??Gconst_iterator@?$vector@UMINIGMAME_PRIZE_LIST@CRainbowRaceMng@@V?$allocator@UMINIGMAME_PRIZE_LIST@CRainbowRaceMng@@@std@@@std@@QBEHABV012@@Z
_TEXT	SEGMENT PARA USE32 PUBLIC 'CODE'
_TEXT	ENDS
;	COMDAT ??0const_iterator@?$vector@PAVCMiniGameBase@@V?$allocator@PAVCMiniGameBase@@@std@@@std@@QAE@PAPAVCMiniGameBase@@@Z
_TEXT	SEGMENT PARA USE32 PUBLIC 'CODE'
_TEXT	ENDS
;	COMDAT ??0const_iterator@?$vector@UGuildHouse_Furniture_Info@CGuildHouseBase@@V?$allocator@UGuildHouse_Furniture_Info@CGuildHouseBase@@@std@@@std@@QAE@PAUGuildHouse_Furniture_Info@CGuildHouseBase@@@Z
_TEXT	SEGMENT PARA USE32 PUBLIC 'CODE'
_TEXT	ENDS
;	COMDAT ??0iterator@?$deque@UAIMSG@@V?$allocator@UAIMSG@@@std@@@std@@QAE@IPBV12@@Z
_TEXT	SEGMENT PARA USE32 PUBLIC 'CODE'
_TEXT	ENDS
;	COMDAT ??Dconst_iterator@?$deque@UAIMSG@@V?$allocator@UAIMSG@@@std@@@std@@QBEABUAIMSG@@XZ
_TEXT	SEGMENT PARA USE32 PUBLIC 'CODE'
_TEXT	ENDS
;	COMDAT ??0_Node@?$_Tree_nod@V?$_Tmap_traits@KPAVCGuildHouseBase@@U?$less@K@std@@V?$allocator@U?$pair@$$CBKPAVCGuildHouseBase@@@std@@@3@$0A@@std@@@std@@QAE@PAU012@00ABU?$pair@$$CBKPAVCGuildHouseBase@@@2@D@Z
_TEXT	SEGMENT PARA USE32 PUBLIC 'CODE'
_TEXT	ENDS
;	COMDAT ?max_size@?$allocator@UAIMSG@@@std@@QBEIXZ
_TEXT	SEGMENT PARA USE32 PUBLIC 'CODE'
_TEXT	ENDS
;	COMDAT ?_Key@?$_Tree@V?$_Tmap_traits@KU_Friend@@U?$less@K@std@@V?$allocator@U?$pair@$$CBKU_Friend@@@std@@@3@$0A@@std@@@std@@KAABKPAU_Node@?$_Tree_nod@V?$_Tmap_traits@KU_Friend@@U?$less@K@std@@V?$allocator@U?$pair@$$CBKU_Friend@@@std@@@3@$0A@@std@@@2@@Z
_TEXT	SEGMENT PARA USE32 PUBLIC 'CODE'
_TEXT	ENDS
;	COMDAT ?_Root@?$_Tree@V?$_Tmap_traits@KU_Friend@@U?$less@K@std@@V?$allocator@U?$pair@$$CBKU_Friend@@@std@@@3@$0A@@std@@@std@@IBEAAPAU_Node@?$_Tree_nod@V?$_Tmap_traits@KU_Friend@@U?$less@K@std@@V?$allocator@U?$pair@$$CBKU_Friend@@@std@@@3@$0A@@std@@@2@XZ
_TEXT	SEGMENT PARA USE32 PUBLIC 'CODE'
_TEXT	ENDS
;	COMDAT ??0const_iterator@?$_Tree@V?$_Tmap_traits@KU_Friend@@U?$less@K@std@@V?$allocator@U?$pair@$$CBKU_Friend@@@std@@@3@$0A@@std@@@std@@QAE@PAU_Node@?$_Tree_nod@V?$_Tmap_traits@KU_Friend@@U?$less@K@std@@V?$allocator@U?$pair@$$CBKU_Friend@@@std@@@3@$0A@@std@@@2@@Z
_TEXT	SEGMENT PARA USE32 PUBLIC 'CODE'
_TEXT	ENDS
;	COMDAT ??Econst_iterator@?$_Tree@V?$_Tmap_traits@KU_Friend@@U?$less@K@std@@V?$allocator@U?$pair@$$CBKU_Friend@@@std@@@3@$0A@@std@@@std@@QAEAAV012@XZ
_TEXT	SEGMENT PARA USE32 PUBLIC 'CODE'
_TEXT	ENDS
;	COMDAT ?max_size@?$allocator@UMINIGMAME_PRIZE_LIST@CRainbowRaceMng@@@std@@QBEIXZ
_TEXT	SEGMENT PARA USE32 PUBLIC 'CODE'
_TEXT	ENDS
;	COMDAT ?_Max@?$_Tree@V?$_Tmap_traits@KPAVCGuildHouseBase@@U?$less@K@std@@V?$allocator@U?$pair@$$CBKPAVCGuildHouseBase@@@std@@@3@$0A@@std@@@std@@KAPAU_Node@?$_Tree_nod@V?$_Tmap_traits@KPAVCGuildHouseBase@@U?$less@K@std@@V?$allocator@U?$pair@$$CBKPAVCGuildHouseBase@@@std@@@3@$0A@@std@@@2@PAU342@@Z
_TEXT	SEGMENT PARA USE32 PUBLIC 'CODE'
_TEXT	ENDS
;	COMDAT ?_Key@?$_Tree@V?$_Tmap_traits@KKU?$less@K@std@@V?$allocator@U?$pair@$$CBKK@std@@@2@$0A@@std@@@std@@KAABKPAU_Node@?$_Tree_nod@V?$_Tmap_traits@KKU?$less@K@std@@V?$allocator@U?$pair@$$CBKK@std@@@2@$0A@@std@@@2@@Z
_TEXT	SEGMENT PARA USE32 PUBLIC 'CODE'
_TEXT	ENDS
;	COMDAT ?_Root@?$_Tree@V?$_Tmap_traits@KKU?$less@K@std@@V?$allocator@U?$pair@$$CBKK@std@@@2@$0A@@std@@@std@@IBEAAPAU_Node@?$_Tree_nod@V?$_Tmap_traits@KKU?$less@K@std@@V?$allocator@U?$pair@$$CBKK@std@@@2@$0A@@std@@@2@XZ
_TEXT	SEGMENT PARA USE32 PUBLIC 'CODE'
_TEXT	ENDS
;	COMDAT ??0const_iterator@?$_Tree@V?$_Tmap_traits@KKU?$less@K@std@@V?$allocator@U?$pair@$$CBKK@std@@@2@$0A@@std@@@std@@QAE@PAU_Node@?$_Tree_nod@V?$_Tmap_traits@KKU?$less@K@std@@V?$allocator@U?$pair@$$CBKK@std@@@2@$0A@@std@@@2@@Z
_TEXT	SEGMENT PARA USE32 PUBLIC 'CODE'
_TEXT	ENDS
;	COMDAT ??Econst_iterator@?$_Tree@V?$_Tmap_traits@KKU?$less@K@std@@V?$allocator@U?$pair@$$CBKK@std@@@2@$0A@@std@@@std@@QAEAAV012@XZ
_TEXT	SEGMENT PARA USE32 PUBLIC 'CODE'
_TEXT	ENDS
;	COMDAT ??0const_iterator@?$deque@UAIMSG@@V?$allocator@UAIMSG@@@std@@@std@@QAE@IPBV12@@Z
_TEXT	SEGMENT PARA USE32 PUBLIC 'CODE'
_TEXT	ENDS
;	COMDAT ?_Myval@?$_Tree@V?$_Tmap_traits@KU_Friend@@U?$less@K@std@@V?$allocator@U?$pair@$$CBKU_Friend@@@std@@@3@$0A@@std@@@std@@KAAAU?$pair@$$CBKU_Friend@@@2@PAU_Node@?$_Tree_nod@V?$_Tmap_traits@KU_Friend@@U?$less@K@std@@V?$allocator@U?$pair@$$CBKU_Friend@@@std@@@3@$0A@@std@@@2@@Z
_TEXT	SEGMENT PARA USE32 PUBLIC 'CODE'
_TEXT	ENDS
;	COMDAT ?_Kfn@?$_Tmap_traits@KU_Friend@@U?$less@K@std@@V?$allocator@U?$pair@$$CBKU_Friend@@@std@@@3@$0A@@std@@SAABKABU?$pair@$$CBKU_Friend@@@2@@Z
_TEXT	SEGMENT PARA USE32 PUBLIC 'CODE'
_TEXT	ENDS
;	COMDAT ?_Inc@const_iterator@?$_Tree@V?$_Tmap_traits@KU_Friend@@U?$less@K@std@@V?$allocator@U?$pair@$$CBKU_Friend@@@std@@@3@$0A@@std@@@std@@QAEXXZ
_TEXT	SEGMENT PARA USE32 PUBLIC 'CODE'
_TEXT	ENDS
;	COMDAT ?_Myval@?$_Tree@V?$_Tmap_traits@KKU?$less@K@std@@V?$allocator@U?$pair@$$CBKK@std@@@2@$0A@@std@@@std@@KAAAU?$pair@$$CBKK@2@PAU_Node@?$_Tree_nod@V?$_Tmap_traits@KKU?$less@K@std@@V?$allocator@U?$pair@$$CBKK@std@@@2@$0A@@std@@@2@@Z
_TEXT	SEGMENT PARA USE32 PUBLIC 'CODE'
_TEXT	ENDS
;	COMDAT ?_Kfn@?$_Tmap_traits@KKU?$less@K@std@@V?$allocator@U?$pair@$$CBKK@std@@@2@$0A@@std@@SAABKABU?$pair@$$CBKK@2@@Z
_TEXT	SEGMENT PARA USE32 PUBLIC 'CODE'
_TEXT	ENDS
;	COMDAT ?_Inc@const_iterator@?$_Tree@V?$_Tmap_traits@KKU?$less@K@std@@V?$allocator@U?$pair@$$CBKK@std@@@2@$0A@@std@@@std@@QAEXXZ
_TEXT	SEGMENT PARA USE32 PUBLIC 'CODE'
_TEXT	ENDS
;	COMDAT ??$_Iter_cat@Vconst_iterator@?$vector@EV?$allocator@E@std@@@std@@@std@@YA?AUrandom_access_iterator_tag@0@ABVconst_iterator@?$vector@EV?$allocator@E@std@@@0@@Z
_TEXT	SEGMENT PARA USE32 PUBLIC 'CODE'
_TEXT	ENDS
;	COMDAT ??$_Assign@Vconst_iterator@?$vector@EV?$allocator@E@std@@@std@@@?$vector@EV?$allocator@E@std@@@std@@QAEXVconst_iterator@01@0Uinput_iterator_tag@1@@Z
_TEXT	SEGMENT PARA USE32 PUBLIC 'CODE'
_TEXT	ENDS
;	COMDAT ??$_Iter_cat@Viterator@?$_Tree@V?$_Tmap_traits@KPAVCUser@@U?$less@K@std@@V?$allocator@U?$pair@$$CBKPAVCUser@@@std@@@3@$0A@@std@@@std@@@std@@YA?AUbidirectional_iterator_tag@0@ABViterator@?$_Tree@V?$_Tmap_traits@KPAVCUser@@U?$less@K@std@@V?$allocator@U?$pair@$$CBKPAVCUser@@@std@@@3@$0A@@std@@@0@@Z
_TEXT	SEGMENT PARA USE32 PUBLIC 'CODE'
_TEXT	ENDS
;	COMDAT ??$_Distance2@Viterator@?$_Tree@V?$_Tmap_traits@KPAVCUser@@U?$less@K@std@@V?$allocator@U?$pair@$$CBKPAVCUser@@@std@@@3@$0A@@std@@@std@@I@std@@YAXViterator@?$_Tree@V?$_Tmap_traits@KPAVCUser@@U?$less@K@std@@V?$allocator@U?$pair@$$CBKPAVCUser@@@std@@@3@$0A@@std@@@0@0AAIUbidirectional_iterator_tag@0@@Z
_TEXT	SEGMENT PARA USE32 PUBLIC 'CODE'
_TEXT	ENDS
;	COMDAT ??$_Iter_cat@Viterator@?$_Tree@V?$_Tmap_traits@KPAVCCtrl@@U?$less@K@std@@V?$allocator@U?$pair@$$CBKPAVCCtrl@@@std@@@3@$0A@@std@@@std@@@std@@YA?AUbidirectional_iterator_tag@0@ABViterator@?$_Tree@V?$_Tmap_traits@KPAVCCtrl@@U?$less@K@std@@V?$allocator@U?$pair@$$CBKPAVCCtrl@@@std@@@3@$0A@@std@@@0@@Z
_TEXT	SEGMENT PARA USE32 PUBLIC 'CODE'
_TEXT	ENDS
;	COMDAT ??$_Distance2@Viterator@?$_Tree@V?$_Tmap_traits@KPAVCCtrl@@U?$less@K@std@@V?$allocator@U?$pair@$$CBKPAVCCtrl@@@std@@@3@$0A@@std@@@std@@I@std@@YAXViterator@?$_Tree@V?$_Tmap_traits@KPAVCCtrl@@U?$less@K@std@@V?$allocator@U?$pair@$$CBKPAVCCtrl@@@std@@@3@$0A@@std@@@0@0AAIUbidirectional_iterator_tag@0@@Z
_TEXT	SEGMENT PARA USE32 PUBLIC 'CODE'
_TEXT	ENDS
;	COMDAT ??$_Uninitialized_copy@Vconst_iterator@?$vector@EV?$allocator@E@std@@@std@@PAEV?$allocator@E@3@@std@@YAPAEVconst_iterator@?$vector@EV?$allocator@E@std@@@0@0PAEAAV?$allocator@E@0@@Z
_TEXT	SEGMENT PARA USE32 PUBLIC 'CODE'
_TEXT	ENDS
;	COMDAT ??$_Iter_cat@Viterator@?$_Tree@V?$_Tmap_traits@KEU?$less@K@std@@V?$allocator@U?$pair@$$CBKE@std@@@2@$0A@@std@@@std@@@std@@YA?AUbidirectional_iterator_tag@0@ABViterator@?$_Tree@V?$_Tmap_traits@KEU?$less@K@std@@V?$allocator@U?$pair@$$CBKE@std@@@2@$0A@@std@@@0@@Z
_TEXT	SEGMENT PARA USE32 PUBLIC 'CODE'
_TEXT	ENDS
;	COMDAT ??$_Distance2@Viterator@?$_Tree@V?$_Tmap_traits@KEU?$less@K@std@@V?$allocator@U?$pair@$$CBKE@std@@@2@$0A@@std@@@std@@I@std@@YAXViterator@?$_Tree@V?$_Tmap_traits@KEU?$less@K@std@@V?$allocator@U?$pair@$$CBKE@std@@@2@$0A@@std@@@0@0AAIUbidirectional_iterator_tag@0@@Z
_TEXT	SEGMENT PARA USE32 PUBLIC 'CODE'
_TEXT	ENDS
;	COMDAT ??$_Ptr_cat@PAU__SPAWNREGION@CEventLua@@PAU12@@std@@YA?AU_Nonscalar_ptr_iterator_tag@0@AAPAU__SPAWNREGION@CEventLua@@0@Z
_TEXT	SEGMENT PARA USE32 PUBLIC 'CODE'
_TEXT	ENDS
;	COMDAT ??$_Uninit_fill_n@PAU__SPAWNREGION@CEventLua@@IU12@V?$allocator@U__SPAWNREGION@CEventLua@@@std@@@std@@YAXPAU__SPAWNREGION@CEventLua@@IABU12@AAV?$allocator@U__SPAWNREGION@CEventLua@@@0@U_Nonscalar_ptr_iterator_tag@0@@Z
_TEXT	SEGMENT PARA USE32 PUBLIC 'CODE'
_TEXT	ENDS
;	COMDAT ??$_Copy_opt@PAJPAJ@std@@YAPAJPAJ00U_Scalar_ptr_iterator_tag@0@@Z
_TEXT	SEGMENT PARA USE32 PUBLIC 'CODE'
_TEXT	ENDS
;	COMDAT ??$_Uninitialized_copy@PAJPAJV?$allocator@J@std@@@std@@YAPAJPAJ00AAV?$allocator@J@0@@Z
_TEXT	SEGMENT PARA USE32 PUBLIC 'CODE'
_TEXT	ENDS
;	COMDAT ??$_Copy_backward_opt@PAJPAJ@std@@YAPAJPAJ00U_Scalar_ptr_iterator_tag@0@@Z
_TEXT	SEGMENT PARA USE32 PUBLIC 'CODE'
_TEXT	ENDS
;	COMDAT ??$_Ptr_cat@PAUtagDROPITEM@@PAU1@@std@@YA?AU_Nonscalar_ptr_iterator_tag@0@AAPAUtagDROPITEM@@0@Z
_TEXT	SEGMENT PARA USE32 PUBLIC 'CODE'
_TEXT	ENDS
;	COMDAT ??$_Destroy_range@UtagDROPITEM@@V?$allocator@UtagDROPITEM@@@std@@@std@@YAXPAUtagDROPITEM@@0AAV?$allocator@UtagDROPITEM@@@0@U_Nonscalar_ptr_iterator_tag@0@@Z
_TEXT	SEGMENT PARA USE32 PUBLIC 'CODE'
_TEXT	ENDS
;	COMDAT ??$_Ptr_cat@PAUWORMON@@PAU1@@std@@YA?AU_Nonscalar_ptr_iterator_tag@0@AAPAUWORMON@@0@Z
_TEXT	SEGMENT PARA USE32 PUBLIC 'CODE'
_TEXT	ENDS
;	COMDAT ??$_Destroy_range@UWORMON@@V?$allocator@UWORMON@@@std@@@std@@YAXPAUWORMON@@0AAV?$allocator@UWORMON@@@0@U_Nonscalar_ptr_iterator_tag@0@@Z
_TEXT	SEGMENT PARA USE32 PUBLIC 'CODE'
_TEXT	ENDS
;	COMDAT ??$_Ptr_cat@PAU__ITEMGAME@CMiniGame@@PAU12@@std@@YA?AU_Nonscalar_ptr_iterator_tag@0@AAPAU__ITEMGAME@CMiniGame@@0@Z
_TEXT	SEGMENT PARA USE32 PUBLIC 'CODE'
_TEXT	ENDS
;	COMDAT ??$_Destroy_range@U__ITEMGAME@CMiniGame@@V?$allocator@U__ITEMGAME@CMiniGame@@@std@@@std@@YAXPAU__ITEMGAME@CMiniGame@@0AAV?$allocator@U__ITEMGAME@CMiniGame@@@0@U_Nonscalar_ptr_iterator_tag@0@@Z
_TEXT	SEGMENT PARA USE32 PUBLIC 'CODE'
_TEXT	ENDS
;	COMDAT ??$_Destroy_range@KV?$allocator@K@std@@@std@@YAXPAK0AAV?$allocator@K@0@U_Scalar_ptr_iterator_tag@0@@Z
_TEXT	SEGMENT PARA USE32 PUBLIC 'CODE'
_TEXT	ENDS
;	COMDAT ??$_Destroy_range@HV?$allocator@H@std@@@std@@YAXPAH0AAV?$allocator@H@0@U_Scalar_ptr_iterator_tag@0@@Z
_TEXT	SEGMENT PARA USE32 PUBLIC 'CODE'
_TEXT	ENDS
;	COMDAT ??$_Ptr_cat@PAU__ITEM@CExchange@@PAU12@@std@@YA?AU_Nonscalar_ptr_iterator_tag@0@AAPAU__ITEM@CExchange@@0@Z
_TEXT	SEGMENT PARA USE32 PUBLIC 'CODE'
_TEXT	ENDS
;	COMDAT ??$_Destroy_range@U__ITEM@CExchange@@V?$allocator@U__ITEM@CExchange@@@std@@@std@@YAXPAU__ITEM@CExchange@@0AAV?$allocator@U__ITEM@CExchange@@@0@U_Nonscalar_ptr_iterator_tag@0@@Z
_TEXT	SEGMENT PARA USE32 PUBLIC 'CODE'
_TEXT	ENDS
;	COMDAT ??$_Ptr_cat@PAU__POINT@CExchange@@PAU12@@std@@YA?AU_Nonscalar_ptr_iterator_tag@0@AAPAU__POINT@CExchange@@0@Z
_TEXT	SEGMENT PARA USE32 PUBLIC 'CODE'
_TEXT	ENDS
;	COMDAT ??$_Destroy_range@U__POINT@CExchange@@V?$allocator@U__POINT@CExchange@@@std@@@std@@YAXPAU__POINT@CExchange@@0AAV?$allocator@U__POINT@CExchange@@@0@U_Nonscalar_ptr_iterator_tag@0@@Z
_TEXT	SEGMENT PARA USE32 PUBLIC 'CODE'
_TEXT	ENDS
;	COMDAT ??$_Destroy_range@EV?$allocator@E@std@@@std@@YAXPAE0AAV?$allocator@E@0@U_Scalar_ptr_iterator_tag@0@@Z
_TEXT	SEGMENT PARA USE32 PUBLIC 'CODE'
_TEXT	ENDS
;	COMDAT ??$_Uninitialized_copy@PAU__SPAWNREGION@CEventLua@@PAU12@V?$allocator@U__SPAWNREGION@CEventLua@@@std@@@std@@YAPAU__SPAWNREGION@CEventLua@@PAU12@00AAV?$allocator@U__SPAWNREGION@CEventLua@@@0@@Z
_TEXT	SEGMENT PARA USE32 PUBLIC 'CODE'
_TEXT	ENDS
;	COMDAT ??$_Copy_backward_opt@PAU__SPAWNREGION@CEventLua@@PAU12@@std@@YAPAU__SPAWNREGION@CEventLua@@PAU12@00U_Nonscalar_ptr_iterator_tag@0@@Z
_TEXT	SEGMENT PARA USE32 PUBLIC 'CODE'
_TEXT	ENDS
;	COMDAT ??$_Ptr_cat@PAUD3DXVECTOR3@@PAU1@@std@@YA?AU_Nonscalar_ptr_iterator_tag@0@AAPAUD3DXVECTOR3@@0@Z
_TEXT	SEGMENT PARA USE32 PUBLIC 'CODE'
_TEXT	ENDS
;	COMDAT ??$_Destroy_range@UD3DXVECTOR3@@V?$allocator@UD3DXVECTOR3@@@std@@@std@@YAXPAUD3DXVECTOR3@@0AAV?$allocator@UD3DXVECTOR3@@@0@U_Nonscalar_ptr_iterator_tag@0@@Z
_TEXT	SEGMENT PARA USE32 PUBLIC 'CODE'
_TEXT	ENDS
;	COMDAT ??$_Ptr_cat@PAU_GIFTBOX@@PAU1@@std@@YA?AU_Nonscalar_ptr_iterator_tag@0@AAPAU_GIFTBOX@@0@Z
_TEXT	SEGMENT PARA USE32 PUBLIC 'CODE'
_TEXT	ENDS
;	COMDAT ??$_Destroy_range@U_GIFTBOX@@V?$allocator@U_GIFTBOX@@@std@@@std@@YAXPAU_GIFTBOX@@0AAV?$allocator@U_GIFTBOX@@@0@U_Nonscalar_ptr_iterator_tag@0@@Z
_TEXT	SEGMENT PARA USE32 PUBLIC 'CODE'
_TEXT	ENDS
;	COMDAT ??$_Destroy_range@JV?$allocator@J@std@@@std@@YAXPAJ0AAV?$allocator@J@0@U_Scalar_ptr_iterator_tag@0@@Z
_TEXT	SEGMENT PARA USE32 PUBLIC 'CODE'
_TEXT	ENDS
;	COMDAT ??$_Uninit_fill_n@JIJ@std@@YAXPAJIABJAAV?$allocator@J@0@U_Scalar_ptr_iterator_tag@0@@Z
_TEXT	SEGMENT PARA USE32 PUBLIC 'CODE'
_TEXT	ENDS
;	COMDAT ??$_Destroy_range@U__SPAWNREGION@CEventLua@@V?$allocator@U__SPAWNREGION@CEventLua@@@std@@@std@@YAXPAU__SPAWNREGION@CEventLua@@0AAV?$allocator@U__SPAWNREGION@CEventLua@@@0@U_Nonscalar_ptr_iterator_tag@0@@Z
_TEXT	SEGMENT PARA USE32 PUBLIC 'CODE'
_TEXT	ENDS
;	COMDAT ??$make_pair@KPAVCGuildHouseBase@@@std@@YA?AU?$pair@KPAVCGuildHouseBase@@@0@KPAVCGuildHouseBase@@@Z
_TEXT	SEGMENT PARA USE32 PUBLIC 'CODE'
_TEXT	ENDS
;	COMDAT ??$?0KPAVCGuildHouseBase@@@?$pair@$$CBKPAVCGuildHouseBase@@@std@@QAE@ABU?$pair@KPAVCGuildHouseBase@@@1@@Z
_TEXT	SEGMENT PARA USE32 PUBLIC 'CODE'
_TEXT	ENDS
;	COMDAT ??$_Distance@Viterator@?$_Tree@V?$_Tmap_traits@KU_Friend@@U?$less@K@std@@V?$allocator@U?$pair@$$CBKU_Friend@@@std@@@3@$0A@@std@@@std@@I@std@@YAXViterator@?$_Tree@V?$_Tmap_traits@KU_Friend@@U?$less@K@std@@V?$allocator@U?$pair@$$CBKU_Friend@@@std@@@3@$0A@@std@@@0@0AAI@Z
_TEXT	SEGMENT PARA USE32 PUBLIC 'CODE'
_TEXT	ENDS
;	COMDAT ??$_Distance@Viterator@?$_Tree@V?$_Tmap_traits@KKU?$less@K@std@@V?$allocator@U?$pair@$$CBKK@std@@@2@$0A@@std@@@std@@I@std@@YAXViterator@?$_Tree@V?$_Tmap_traits@KKU?$less@K@std@@V?$allocator@U?$pair@$$CBKK@std@@@2@$0A@@std@@@0@0AAI@Z
_TEXT	SEGMENT PARA USE32 PUBLIC 'CODE'
_TEXT	ENDS
;	COMDAT ??$_Destroy@U_Node@?$_List_nod@PAU__JOINPLAYER@CGuildCombat@@V?$allocator@PAU__JOINPLAYER@CGuildCombat@@@std@@@std@@@std@@YAXPAU_Node@?$_List_nod@PAU__JOINPLAYER@CGuildCombat@@V?$allocator@PAU__JOINPLAYER@CGuildCombat@@@std@@@0@@Z
_TEXT	SEGMENT PARA USE32 PUBLIC 'CODE'
_TEXT	ENDS
;	COMDAT ??$_Uninitialized_fill_n@PAV?$basic_string@DU?$char_traits@D@std@@V?$allocator@D@2@@std@@IV12@V?$allocator@V?$basic_string@DU?$char_traits@D@std@@V?$allocator@D@2@@std@@@2@@std@@YAXPAV?$basic_string@DU?$char_traits@D@std@@V?$allocator@D@2@@0@IABV10@AAV?$allocator@V?$basic_string@DU?$char_traits@D@std@@V?$allocator@D@2@@std@@@0@@Z
_TEXT	SEGMENT PARA USE32 PUBLIC 'CODE'
_TEXT	ENDS
;	COMDAT ??$_Uninitialized_fill_n@PAUMINIGMAME_PRIZE_LIST@CRainbowRaceMng@@IU12@V?$allocator@UMINIGMAME_PRIZE_LIST@CRainbowRaceMng@@@std@@@std@@YAXPAUMINIGMAME_PRIZE_LIST@CRainbowRaceMng@@IABU12@AAV?$allocator@UMINIGMAME_PRIZE_LIST@CRainbowRaceMng@@@0@@Z
_TEXT	SEGMENT PARA USE32 PUBLIC 'CODE'
_TEXT	ENDS
;	COMDAT ??$_Allocate@V?$basic_string@DU?$char_traits@D@std@@V?$allocator@D@2@@std@@@std@@YAPAV?$basic_string@DU?$char_traits@D@std@@V?$allocator@D@2@@0@IPAV10@@Z
_TEXT	SEGMENT PARA USE32 PUBLIC 'CODE'
_TEXT	ENDS
;	COMDAT ??$?0PAUtagACTMSG@@@?$allocator@PAPAUtagACTMSG@@@std@@QAE@ABV?$allocator@PAUtagACTMSG@@@1@@Z
_TEXT	SEGMENT PARA USE32 PUBLIC 'CODE'
_TEXT	ENDS
;	COMDAT ??$_Destroy@PAPAUtagACTMSG@@@std@@YAXPAPAPAUtagACTMSG@@@Z
_TEXT	SEGMENT PARA USE32 PUBLIC 'CODE'
_TEXT	ENDS
;	COMDAT ??$?0PAUtagMAGICATKMSG@@@?$allocator@PAPAUtagMAGICATKMSG@@@std@@QAE@ABV?$allocator@PAUtagMAGICATKMSG@@@1@@Z
_TEXT	SEGMENT PARA USE32 PUBLIC 'CODE'
_TEXT	ENDS
;	COMDAT ??$_Destroy@PAPAUtagMAGICATKMSG@@@std@@YAXPAPAPAUtagMAGICATKMSG@@@Z
_TEXT	SEGMENT PARA USE32 PUBLIC 'CODE'
_TEXT	ENDS
;	COMDAT ??$_Uninitialized_copy@PAPAUAIMSG@@PAPAU1@V?$allocator@PAUAIMSG@@@std@@@std@@YAPAPAUAIMSG@@PAPAU1@00AAV?$allocator@PAUAIMSG@@@0@@Z
_TEXT	SEGMENT PARA USE32 PUBLIC 'CODE'
_TEXT	ENDS
;	COMDAT ??$_Uninitialized_fill_n@PAPAUAIMSG@@IPAU1@V?$allocator@PAUAIMSG@@@std@@@std@@YAXPAPAUAIMSG@@IABQAU1@AAV?$allocator@PAUAIMSG@@@0@@Z
_TEXT	SEGMENT PARA USE32 PUBLIC 'CODE'
_TEXT	ENDS
;	COMDAT ??$_Destroy_range@PAUAIMSG@@V?$allocator@PAUAIMSG@@@std@@@std@@YAXPAPAUAIMSG@@0AAV?$allocator@PAUAIMSG@@@0@@Z
_TEXT	SEGMENT PARA USE32 PUBLIC 'CODE'
_TEXT	ENDS
;	COMDAT ??$_Allocate@UAIMSG@@@std@@YAPAUAIMSG@@IPAU1@@Z
_TEXT	SEGMENT PARA USE32 PUBLIC 'CODE'
_TEXT	ENDS
;	COMDAT ??$_Construct@UAIMSG@@U1@@std@@YAXPAUAIMSG@@ABU1@@Z
_TEXT	SEGMENT PARA USE32 PUBLIC 'CODE'
_TEXT	ENDS
;	COMDAT ??$_Destroy@UAIMSG@@@std@@YAXPAUAIMSG@@@Z
_TEXT	SEGMENT PARA USE32 PUBLIC 'CODE'
_TEXT	ENDS
;	COMDAT ??$_Destroy@PAUAIMSG@@@std@@YAXPAPAUAIMSG@@@Z
_TEXT	SEGMENT PARA USE32 PUBLIC 'CODE'
_TEXT	ENDS
;	COMDAT ??$_Destroy_range@PAU__JOINPLAYER@CGuildCombat@@V?$allocator@PAU__JOINPLAYER@CGuildCombat@@@std@@@std@@YAXPAPAU__JOINPLAYER@CGuildCombat@@0AAV?$allocator@PAU__JOINPLAYER@CGuildCombat@@@0@@Z
_TEXT	SEGMENT PARA USE32 PUBLIC 'CODE'
_TEXT	ENDS
;	COMDAT ??$_Destroy_range@U__SECRETROOM_MONSTER@@V?$allocator@U__SECRETROOM_MONSTER@@@std@@@std@@YAXPAU__SECRETROOM_MONSTER@@0AAV?$allocator@U__SECRETROOM_MONSTER@@@0@@Z
_TEXT	SEGMENT PARA USE32 PUBLIC 'CODE'
_TEXT	ENDS
;	COMDAT ??$_Allocate@U__SECRETROOM_MONSTER@@@std@@YAPAU__SECRETROOM_MONSTER@@IPAU1@@Z
_TEXT	SEGMENT PARA USE32 PUBLIC 'CODE'
_TEXT	ENDS
;	COMDAT ??$_Destroy_range@V?$basic_string@DU?$char_traits@D@std@@V?$allocator@D@2@@std@@V?$allocator@V?$basic_string@DU?$char_traits@D@std@@V?$allocator@D@2@@std@@@2@@std@@YAXPAV?$basic_string@DU?$char_traits@D@std@@V?$allocator@D@2@@0@0AAV?$allocator@V?$basic_string@DU?$char_traits@D@std@@V?$allocator@D@2@@std@@@0@@Z
_TEXT	SEGMENT PARA USE32 PUBLIC 'CODE'
_TEXT	ENDS
;	COMDAT ??$_Ucopy@PAV?$basic_string@DU?$char_traits@D@std@@V?$allocator@D@2@@std@@@?$vector@V?$basic_string@DU?$char_traits@D@std@@V?$allocator@D@2@@std@@V?$allocator@V?$basic_string@DU?$char_traits@D@std@@V?$allocator@D@2@@std@@@2@@std@@IAEPAV?$basic_string@DU?$char_traits@D@std@@V?$allocator@D@2@@1@PAV21@00@Z
_TEXT	SEGMENT PARA USE32 PUBLIC 'CODE'
_TEXT	ENDS
;	COMDAT ??$fill@PAV?$basic_string@DU?$char_traits@D@std@@V?$allocator@D@2@@std@@V12@@std@@YAXPAV?$basic_string@DU?$char_traits@D@std@@V?$allocator@D@2@@0@0ABV10@@Z
_TEXT	SEGMENT PARA USE32 PUBLIC 'CODE'
_TEXT	ENDS
;	COMDAT ??$copy_backward@PAV?$basic_string@DU?$char_traits@D@std@@V?$allocator@D@2@@std@@PAV12@@std@@YAPAV?$basic_string@DU?$char_traits@D@std@@V?$allocator@D@2@@0@PAV10@00@Z
_TEXT	SEGMENT PARA USE32 PUBLIC 'CODE'
_TEXT	ENDS
;	COMDAT ??$_Ucopy@PAUMINIGMAME_PRIZE_LIST@CRainbowRaceMng@@@?$vector@UMINIGMAME_PRIZE_LIST@CRainbowRaceMng@@V?$allocator@UMINIGMAME_PRIZE_LIST@CRainbowRaceMng@@@std@@@std@@IAEPAUMINIGMAME_PRIZE_LIST@CRainbowRaceMng@@PAU23@00@Z
_TEXT	SEGMENT PARA USE32 PUBLIC 'CODE'
_TEXT	ENDS
;	COMDAT ??$fill@PAUMINIGMAME_PRIZE_LIST@CRainbowRaceMng@@U12@@std@@YAXPAUMINIGMAME_PRIZE_LIST@CRainbowRaceMng@@0ABU12@@Z
_TEXT	SEGMENT PARA USE32 PUBLIC 'CODE'
_TEXT	ENDS
;	COMDAT ??$copy_backward@PAUMINIGMAME_PRIZE_LIST@CRainbowRaceMng@@PAU12@@std@@YAPAUMINIGMAME_PRIZE_LIST@CRainbowRaceMng@@PAU12@00@Z
_TEXT	SEGMENT PARA USE32 PUBLIC 'CODE'
_TEXT	ENDS
;	COMDAT ??$_Destroy@PAUtagACTMSG@@@std@@YAXPAPAUtagACTMSG@@@Z
_TEXT	SEGMENT PARA USE32 PUBLIC 'CODE'
_TEXT	ENDS
;	COMDAT ??$_Destroy@PAUtagMAGICATKMSG@@@std@@YAXPAPAUtagMAGICATKMSG@@@Z
_TEXT	SEGMENT PARA USE32 PUBLIC 'CODE'
_TEXT	ENDS
;	COMDAT ??$?0UAIMSG@@@?$allocator@PAUAIMSG@@@std@@QAE@ABV?$allocator@UAIMSG@@@1@@Z
_TEXT	SEGMENT PARA USE32 PUBLIC 'CODE'
_TEXT	ENDS
;	COMDAT ??$_Allocate@PAUAIMSG@@@std@@YAPAPAUAIMSG@@IPAPAU1@@Z
_TEXT	SEGMENT PARA USE32 PUBLIC 'CODE'
_TEXT	ENDS
;	COMDAT ??$_Destroy@U_Node@?$_Tree_nod@V?$_Tmap_traits@KU_Friend@@U?$less@K@std@@V?$allocator@U?$pair@$$CBKU_Friend@@@std@@@3@$0A@@std@@@std@@@std@@YAXPAU_Node@?$_Tree_nod@V?$_Tmap_traits@KU_Friend@@U?$less@K@std@@V?$allocator@U?$pair@$$CBKU_Friend@@@std@@@3@$0A@@std@@@0@@Z
_TEXT	SEGMENT PARA USE32 PUBLIC 'CODE'
_TEXT	ENDS
;	COMDAT ??$_Destroy_range@UMINIGMAME_PRIZE_LIST@CRainbowRaceMng@@V?$allocator@UMINIGMAME_PRIZE_LIST@CRainbowRaceMng@@@std@@@std@@YAXPAUMINIGMAME_PRIZE_LIST@CRainbowRaceMng@@0AAV?$allocator@UMINIGMAME_PRIZE_LIST@CRainbowRaceMng@@@0@@Z
_TEXT	SEGMENT PARA USE32 PUBLIC 'CODE'
_TEXT	ENDS
;	COMDAT ??$_Allocate@UMINIGMAME_PRIZE_LIST@CRainbowRaceMng@@@std@@YAPAUMINIGMAME_PRIZE_LIST@CRainbowRaceMng@@IPAU12@@Z
_TEXT	SEGMENT PARA USE32 PUBLIC 'CODE'
_TEXT	ENDS
;	COMDAT ??$_Allocate@U_Node@?$_Tree_nod@V?$_Tmap_traits@KPAVCGuildHouseBase@@U?$less@K@std@@V?$allocator@U?$pair@$$CBKPAVCGuildHouseBase@@@std@@@3@$0A@@std@@@std@@@std@@YAPAU_Node@?$_Tree_nod@V?$_Tmap_traits@KPAVCGuildHouseBase@@U?$less@K@std@@V?$allocator@U?$pair@$$CBKPAVCGuildHouseBase@@@std@@@3@$0A@@std@@@0@IPAU120@@Z
_TEXT	SEGMENT PARA USE32 PUBLIC 'CODE'
_TEXT	ENDS
;	COMDAT ??$_Destroy@U_Node@?$_Tree_nod@V?$_Tmap_traits@KKU?$less@K@std@@V?$allocator@U?$pair@$$CBKK@std@@@2@$0A@@std@@@std@@@std@@YAXPAU_Node@?$_Tree_nod@V?$_Tmap_traits@KKU?$less@K@std@@V?$allocator@U?$pair@$$CBKK@std@@@2@$0A@@std@@@0@@Z
_TEXT	SEGMENT PARA USE32 PUBLIC 'CODE'
_TEXT	ENDS
;	COMDAT ?destroy@?$allocator@UtagDROPITEM@@@std@@QAEXPAUtagDROPITEM@@@Z
_TEXT	SEGMENT PARA USE32 PUBLIC 'CODE'
_TEXT	ENDS
;	COMDAT ?destroy@?$allocator@UWORMON@@@std@@QAEXPAUWORMON@@@Z
_TEXT	SEGMENT PARA USE32 PUBLIC 'CODE'
_TEXT	ENDS
;	COMDAT ?destroy@?$allocator@U__ITEMGAME@CMiniGame@@@std@@QAEXPAU__ITEMGAME@CMiniGame@@@Z
_TEXT	SEGMENT PARA USE32 PUBLIC 'CODE'
_TEXT	ENDS
;	COMDAT ?destroy@?$allocator@U__ITEM@CExchange@@@std@@QAEXPAU__ITEM@CExchange@@@Z
_TEXT	SEGMENT PARA USE32 PUBLIC 'CODE'
_TEXT	ENDS
;	COMDAT ?destroy@?$allocator@U__POINT@CExchange@@@std@@QAEXPAU__POINT@CExchange@@@Z
_TEXT	SEGMENT PARA USE32 PUBLIC 'CODE'
_TEXT	ENDS
;	COMDAT ?begin@?$vector@EV?$allocator@E@std@@@std@@QAE?AViterator@12@XZ
_TEXT	SEGMENT PARA USE32 PUBLIC 'CODE'
_TEXT	ENDS
;	COMDAT ?end@?$vector@EV?$allocator@E@std@@@std@@QAE?AViterator@12@XZ
_TEXT	SEGMENT PARA USE32 PUBLIC 'CODE'
_TEXT	ENDS
;	COMDAT ?erase@?$vector@EV?$allocator@E@std@@@std@@QAE?AViterator@12@V312@0@Z
_TEXT	SEGMENT PARA USE32 PUBLIC 'CODE'
_TEXT	ENDS
;	COMDAT ?construct@?$allocator@U__SPAWNREGION@CEventLua@@@std@@QAEXPAU__SPAWNREGION@CEventLua@@ABU34@@Z
_TEXT	SEGMENT PARA USE32 PUBLIC 'CODE'
_TEXT	ENDS
;	COMDAT ?destroy@?$allocator@U__SPAWNREGION@CEventLua@@@std@@QAEXPAU__SPAWNREGION@CEventLua@@@Z
_TEXT	SEGMENT PARA USE32 PUBLIC 'CODE'
_TEXT	ENDS
;	COMDAT ?destroy@?$allocator@UD3DXVECTOR3@@@std@@QAEXPAUD3DXVECTOR3@@@Z
_TEXT	SEGMENT PARA USE32 PUBLIC 'CODE'
_TEXT	ENDS
;	COMDAT ?destroy@?$allocator@U_GIFTBOX@@@std@@QAEXPAU_GIFTBOX@@@Z
_TEXT	SEGMENT PARA USE32 PUBLIC 'CODE'
_TEXT	ENDS
;	COMDAT ??0?$pair@KPAVCGuildHouseBase@@@std@@QAE@ABKABQAVCGuildHouseBase@@@Z
_TEXT	SEGMENT PARA USE32 PUBLIC 'CODE'
_TEXT	ENDS
;	COMDAT ??9const_iterator@?$vector@EV?$allocator@E@std@@@std@@QBE_NABV012@@Z
_TEXT	SEGMENT PARA USE32 PUBLIC 'CODE'
_TEXT	ENDS
;	COMDAT ??0iterator@?$vector@EV?$allocator@E@std@@@std@@QAE@PAE@Z
_TEXT	SEGMENT PARA USE32 PUBLIC 'CODE'
_TEXT	ENDS
;	COMDAT ??8const_iterator@?$vector@EV?$allocator@E@std@@@std@@QBE_NABV012@@Z
_TEXT	SEGMENT PARA USE32 PUBLIC 'CODE'
_TEXT	ENDS
;	COMDAT ??$insert@Vconst_iterator@?$vector@EV?$allocator@E@std@@@std@@@?$vector@EV?$allocator@E@std@@@std@@QAEXViterator@01@Vconst_iterator@01@1@Z
_TEXT	SEGMENT PARA USE32 PUBLIC 'CODE'
_TEXT	ENDS
;	COMDAT ??$_Ptr_cat@Vconst_iterator@?$vector@EV?$allocator@E@std@@@std@@PAE@std@@YA?AU_Nonscalar_ptr_iterator_tag@0@AAVconst_iterator@?$vector@EV?$allocator@E@std@@@0@AAPAE@Z
_TEXT	SEGMENT PARA USE32 PUBLIC 'CODE'
_TEXT	ENDS
;	COMDAT ??$_Uninit_copy@Vconst_iterator@?$vector@EV?$allocator@E@std@@@std@@PAEV?$allocator@E@3@@std@@YAPAEVconst_iterator@?$vector@EV?$allocator@E@std@@@0@0PAEAAV?$allocator@E@0@U_Nonscalar_ptr_iterator_tag@0@@Z
_TEXT	SEGMENT PARA USE32 PUBLIC 'CODE'
_TEXT	ENDS
;	COMDAT ??$_Uninit_copy@JJ@std@@YAPAJPAJ00AAV?$allocator@J@0@U_Scalar_ptr_iterator_tag@0@@Z
_TEXT	SEGMENT PARA USE32 PUBLIC 'CODE'
_TEXT	ENDS
;	COMDAT ??$_Uninit_copy@PAU__SPAWNREGION@CEventLua@@PAU12@V?$allocator@U__SPAWNREGION@CEventLua@@@std@@@std@@YAPAU__SPAWNREGION@CEventLua@@PAU12@00AAV?$allocator@U__SPAWNREGION@CEventLua@@@0@U_Nonscalar_ptr_iterator_tag@0@@Z
_TEXT	SEGMENT PARA USE32 PUBLIC 'CODE'
_TEXT	ENDS
;	COMDAT ??$fill_n@PAJIJ@std@@YAXPAJIABJ@Z
_TEXT	SEGMENT PARA USE32 PUBLIC 'CODE'
_TEXT	ENDS
;	COMDAT ??$_Iter_cat@Viterator@?$_Tree@V?$_Tmap_traits@KU_Friend@@U?$less@K@std@@V?$allocator@U?$pair@$$CBKU_Friend@@@std@@@3@$0A@@std@@@std@@@std@@YA?AUbidirectional_iterator_tag@0@ABViterator@?$_Tree@V?$_Tmap_traits@KU_Friend@@U?$less@K@std@@V?$allocator@U?$pair@$$CBKU_Friend@@@std@@@3@$0A@@std@@@0@@Z
_TEXT	SEGMENT PARA USE32 PUBLIC 'CODE'
_TEXT	ENDS
;	COMDAT ??$_Distance2@Viterator@?$_Tree@V?$_Tmap_traits@KU_Friend@@U?$less@K@std@@V?$allocator@U?$pair@$$CBKU_Friend@@@std@@@3@$0A@@std@@@std@@I@std@@YAXViterator@?$_Tree@V?$_Tmap_traits@KU_Friend@@U?$less@K@std@@V?$allocator@U?$pair@$$CBKU_Friend@@@std@@@3@$0A@@std@@@0@0AAIUbidirectional_iterator_tag@0@@Z
_TEXT	SEGMENT PARA USE32 PUBLIC 'CODE'
_TEXT	ENDS
;	COMDAT ??$_Iter_cat@Viterator@?$_Tree@V?$_Tmap_traits@KKU?$less@K@std@@V?$allocator@U?$pair@$$CBKK@std@@@2@$0A@@std@@@std@@@std@@YA?AUbidirectional_iterator_tag@0@ABViterator@?$_Tree@V?$_Tmap_traits@KKU?$less@K@std@@V?$allocator@U?$pair@$$CBKK@std@@@2@$0A@@std@@@0@@Z
_TEXT	SEGMENT PARA USE32 PUBLIC 'CODE'
_TEXT	ENDS
;	COMDAT ??$_Distance2@Viterator@?$_Tree@V?$_Tmap_traits@KKU?$less@K@std@@V?$allocator@U?$pair@$$CBKK@std@@@2@$0A@@std@@@std@@I@std@@YAXViterator@?$_Tree@V?$_Tmap_traits@KKU?$less@K@std@@V?$allocator@U?$pair@$$CBKK@std@@@2@$0A@@std@@@0@0AAIUbidirectional_iterator_tag@0@@Z
_TEXT	SEGMENT PARA USE32 PUBLIC 'CODE'
_TEXT	ENDS
;	COMDAT ??$_Ptr_cat@PAV?$basic_string@DU?$char_traits@D@std@@V?$allocator@D@2@@std@@PAV12@@std@@YA?AU_Nonscalar_ptr_iterator_tag@0@AAPAV?$basic_string@DU?$char_traits@D@std@@V?$allocator@D@2@@0@0@Z
_TEXT	SEGMENT PARA USE32 PUBLIC 'CODE'
_TEXT	ENDS
;	COMDAT ??$_Uninit_fill_n@PAV?$basic_string@DU?$char_traits@D@std@@V?$allocator@D@2@@std@@IV12@V?$allocator@V?$basic_string@DU?$char_traits@D@std@@V?$allocator@D@2@@std@@@2@@std@@YAXPAV?$basic_string@DU?$char_traits@D@std@@V?$allocator@D@2@@0@IABV10@AAV?$allocator@V?$basic_string@DU?$char_traits@D@std@@V?$allocator@D@2@@std@@@0@U_Nonscalar_ptr_iterator_tag@0@@Z
_TEXT	SEGMENT PARA USE32 PUBLIC 'CODE'
_TEXT	ENDS
;	COMDAT ??$_Ptr_cat@PAUMINIGMAME_PRIZE_LIST@CRainbowRaceMng@@PAU12@@std@@YA?AU_Nonscalar_ptr_iterator_tag@0@AAPAUMINIGMAME_PRIZE_LIST@CRainbowRaceMng@@0@Z
_TEXT	SEGMENT PARA USE32 PUBLIC 'CODE'
_TEXT	ENDS
;	COMDAT ??$_Uninit_fill_n@PAUMINIGMAME_PRIZE_LIST@CRainbowRaceMng@@IU12@V?$allocator@UMINIGMAME_PRIZE_LIST@CRainbowRaceMng@@@std@@@std@@YAXPAUMINIGMAME_PRIZE_LIST@CRainbowRaceMng@@IABU12@AAV?$allocator@UMINIGMAME_PRIZE_LIST@CRainbowRaceMng@@@0@U_Nonscalar_ptr_iterator_tag@0@@Z
_TEXT	SEGMENT PARA USE32 PUBLIC 'CODE'
_TEXT	ENDS
;	COMDAT ??$_Ptr_cat@UAIMSG@@@std@@YA?AU_Scalar_ptr_iterator_tag@0@PAPAUAIMSG@@0@Z
_TEXT	SEGMENT PARA USE32 PUBLIC 'CODE'
_TEXT	ENDS
;	COMDAT ??$_Uninit_copy@PAUAIMSG@@PAU1@@std@@YAPAPAUAIMSG@@PAPAU1@00AAV?$allocator@PAUAIMSG@@@0@U_Scalar_ptr_iterator_tag@0@@Z
_TEXT	SEGMENT PARA USE32 PUBLIC 'CODE'
_TEXT	ENDS
;	COMDAT ??$_Uninit_fill_n@PAUAIMSG@@IPAU1@@std@@YAXPAPAUAIMSG@@IABQAU1@AAV?$allocator@PAUAIMSG@@@0@U_Scalar_ptr_iterator_tag@0@@Z
_TEXT	SEGMENT PARA USE32 PUBLIC 'CODE'
_TEXT	ENDS
;	COMDAT ??$_Destroy_range@PAUAIMSG@@V?$allocator@PAUAIMSG@@@std@@@std@@YAXPAPAUAIMSG@@0AAV?$allocator@PAUAIMSG@@@0@U_Scalar_ptr_iterator_tag@0@@Z
_TEXT	SEGMENT PARA USE32 PUBLIC 'CODE'
_TEXT	ENDS
;	COMDAT ??$_Ptr_cat@U__JOINPLAYER@CGuildCombat@@@std@@YA?AU_Scalar_ptr_iterator_tag@0@PAPAU__JOINPLAYER@CGuildCombat@@0@Z
_TEXT	SEGMENT PARA USE32 PUBLIC 'CODE'
_TEXT	ENDS
;	COMDAT ??$_Destroy_range@PAU__JOINPLAYER@CGuildCombat@@V?$allocator@PAU__JOINPLAYER@CGuildCombat@@@std@@@std@@YAXPAPAU__JOINPLAYER@CGuildCombat@@0AAV?$allocator@PAU__JOINPLAYER@CGuildCombat@@@0@U_Scalar_ptr_iterator_tag@0@@Z
_TEXT	SEGMENT PARA USE32 PUBLIC 'CODE'
_TEXT	ENDS
;	COMDAT ??$_Ptr_cat@PAU__SECRETROOM_MONSTER@@PAU1@@std@@YA?AU_Nonscalar_ptr_iterator_tag@0@AAPAU__SECRETROOM_MONSTER@@0@Z
_TEXT	SEGMENT PARA USE32 PUBLIC 'CODE'
_TEXT	ENDS
;	COMDAT ??$_Destroy_range@U__SECRETROOM_MONSTER@@V?$allocator@U__SECRETROOM_MONSTER@@@std@@@std@@YAXPAU__SECRETROOM_MONSTER@@0AAV?$allocator@U__SECRETROOM_MONSTER@@@0@U_Nonscalar_ptr_iterator_tag@0@@Z
_TEXT	SEGMENT PARA USE32 PUBLIC 'CODE'
_TEXT	ENDS
;	COMDAT ??$_Destroy_range@V?$basic_string@DU?$char_traits@D@std@@V?$allocator@D@2@@std@@V?$allocator@V?$basic_string@DU?$char_traits@D@std@@V?$allocator@D@2@@std@@@2@@std@@YAXPAV?$basic_string@DU?$char_traits@D@std@@V?$allocator@D@2@@0@0AAV?$allocator@V?$basic_string@DU?$char_traits@D@std@@V?$allocator@D@2@@std@@@0@U_Nonscalar_ptr_iterator_tag@0@@Z
_TEXT	SEGMENT PARA USE32 PUBLIC 'CODE'
_TEXT	ENDS
;	COMDAT ??$_Uninitialized_copy@PAV?$basic_string@DU?$char_traits@D@std@@V?$allocator@D@2@@std@@PAV12@V?$allocator@V?$basic_string@DU?$char_traits@D@std@@V?$allocator@D@2@@std@@@2@@std@@YAPAV?$basic_string@DU?$char_traits@D@std@@V?$allocator@D@2@@0@PAV10@00AAV?$allocator@V?$basic_string@DU?$char_traits@D@std@@V?$allocator@D@2@@std@@@0@@Z
_TEXT	SEGMENT PARA USE32 PUBLIC 'CODE'
_TEXT	ENDS
;	COMDAT ??$_Copy_backward_opt@PAV?$basic_string@DU?$char_traits@D@std@@V?$allocator@D@2@@std@@PAV12@@std@@YAPAV?$basic_string@DU?$char_traits@D@std@@V?$allocator@D@2@@0@PAV10@00U_Nonscalar_ptr_iterator_tag@0@@Z
_TEXT	SEGMENT PARA USE32 PUBLIC 'CODE'
_TEXT	ENDS
;	COMDAT ??$_Uninitialized_copy@PAUMINIGMAME_PRIZE_LIST@CRainbowRaceMng@@PAU12@V?$allocator@UMINIGMAME_PRIZE_LIST@CRainbowRaceMng@@@std@@@std@@YAPAUMINIGMAME_PRIZE_LIST@CRainbowRaceMng@@PAU12@00AAV?$allocator@UMINIGMAME_PRIZE_LIST@CRainbowRaceMng@@@0@@Z
_TEXT	SEGMENT PARA USE32 PUBLIC 'CODE'
_TEXT	ENDS
;	COMDAT ??$_Copy_backward_opt@PAUMINIGMAME_PRIZE_LIST@CRainbowRaceMng@@PAU12@@std@@YAPAUMINIGMAME_PRIZE_LIST@CRainbowRaceMng@@PAU12@00U_Nonscalar_ptr_iterator_tag@0@@Z
_TEXT	SEGMENT PARA USE32 PUBLIC 'CODE'
_TEXT	ENDS
;	COMDAT ??$_Destroy_range@UMINIGMAME_PRIZE_LIST@CRainbowRaceMng@@V?$allocator@UMINIGMAME_PRIZE_LIST@CRainbowRaceMng@@@std@@@std@@YAXPAUMINIGMAME_PRIZE_LIST@CRainbowRaceMng@@0AAV?$allocator@UMINIGMAME_PRIZE_LIST@CRainbowRaceMng@@@0@U_Nonscalar_ptr_iterator_tag@0@@Z
_TEXT	SEGMENT PARA USE32 PUBLIC 'CODE'
_TEXT	ENDS
;	COMDAT ??$_Destroy@UtagDROPITEM@@@std@@YAXPAUtagDROPITEM@@@Z
_TEXT	SEGMENT PARA USE32 PUBLIC 'CODE'
_TEXT	ENDS
;	COMDAT ??$_Destroy@UWORMON@@@std@@YAXPAUWORMON@@@Z
_TEXT	SEGMENT PARA USE32 PUBLIC 'CODE'
_TEXT	ENDS
;	COMDAT ??$_Destroy@U__ITEMGAME@CMiniGame@@@std@@YAXPAU__ITEMGAME@CMiniGame@@@Z
_TEXT	SEGMENT PARA USE32 PUBLIC 'CODE'
_TEXT	ENDS
;	COMDAT ??$_Destroy@U__ITEM@CExchange@@@std@@YAXPAU__ITEM@CExchange@@@Z
_TEXT	SEGMENT PARA USE32 PUBLIC 'CODE'
_TEXT	ENDS
;	COMDAT ??$_Destroy@U__POINT@CExchange@@@std@@YAXPAU__POINT@CExchange@@@Z
_TEXT	SEGMENT PARA USE32 PUBLIC 'CODE'
_TEXT	ENDS
;	COMDAT ??$copy@PAEPAE@std@@YAPAEPAE00@Z
_TEXT	SEGMENT PARA USE32 PUBLIC 'CODE'
_TEXT	ENDS
;	COMDAT ??$_Construct@U__SPAWNREGION@CEventLua@@U12@@std@@YAXPAU__SPAWNREGION@CEventLua@@ABU12@@Z
_TEXT	SEGMENT PARA USE32 PUBLIC 'CODE'
_TEXT	ENDS
;	COMDAT ??$_Destroy@U__SPAWNREGION@CEventLua@@@std@@YAXPAU__SPAWNREGION@CEventLua@@@Z
_TEXT	SEGMENT PARA USE32 PUBLIC 'CODE'
_TEXT	ENDS
;	COMDAT ??$_Destroy@UD3DXVECTOR3@@@std@@YAXPAUD3DXVECTOR3@@@Z
_TEXT	SEGMENT PARA USE32 PUBLIC 'CODE'
_TEXT	ENDS
;	COMDAT ??$_Destroy@U_GIFTBOX@@@std@@YAXPAU_GIFTBOX@@@Z
_TEXT	SEGMENT PARA USE32 PUBLIC 'CODE'
_TEXT	ENDS
;	COMDAT ?construct@?$allocator@V?$basic_string@DU?$char_traits@D@std@@V?$allocator@D@2@@std@@@std@@QAEXPAV?$basic_string@DU?$char_traits@D@std@@V?$allocator@D@2@@2@ABV32@@Z
_TEXT	SEGMENT PARA USE32 PUBLIC 'CODE'
_TEXT	ENDS
;	COMDAT ?destroy@?$allocator@V?$basic_string@DU?$char_traits@D@std@@V?$allocator@D@2@@std@@@std@@QAEXPAV?$basic_string@DU?$char_traits@D@std@@V?$allocator@D@2@@2@@Z
_TEXT	SEGMENT PARA USE32 PUBLIC 'CODE'
_TEXT	ENDS
;	COMDAT ?construct@?$allocator@E@std@@QAEXPAEABE@Z
_TEXT	SEGMENT PARA USE32 PUBLIC 'CODE'
_TEXT	ENDS
;	COMDAT ?destroy@?$allocator@E@std@@QAEXPAE@Z
_TEXT	SEGMENT PARA USE32 PUBLIC 'CODE'
_TEXT	ENDS
;	COMDAT ??Dconst_iterator@?$vector@EV?$allocator@E@std@@@std@@QBEABEXZ
_TEXT	SEGMENT PARA USE32 PUBLIC 'CODE'
_TEXT	ENDS
;	COMDAT ??Econst_iterator@?$vector@EV?$allocator@E@std@@@std@@QAEAAV012@XZ
_TEXT	SEGMENT PARA USE32 PUBLIC 'CODE'
_TEXT	ENDS
;	COMDAT ?destroy@?$allocator@U__SECRETROOM_MONSTER@@@std@@QAEXPAU__SECRETROOM_MONSTER@@@Z
_TEXT	SEGMENT PARA USE32 PUBLIC 'CODE'
_TEXT	ENDS
;	COMDAT ?construct@?$allocator@UMINIGMAME_PRIZE_LIST@CRainbowRaceMng@@@std@@QAEXPAUMINIGMAME_PRIZE_LIST@CRainbowRaceMng@@ABU34@@Z
_TEXT	SEGMENT PARA USE32 PUBLIC 'CODE'
_TEXT	ENDS
;	COMDAT ?destroy@?$allocator@UMINIGMAME_PRIZE_LIST@CRainbowRaceMng@@@std@@QAEXPAUMINIGMAME_PRIZE_LIST@CRainbowRaceMng@@@Z
_TEXT	SEGMENT PARA USE32 PUBLIC 'CODE'
_TEXT	ENDS
;	COMDAT ??$_Insert@Vconst_iterator@?$vector@EV?$allocator@E@std@@@std@@@?$vector@EV?$allocator@E@std@@@std@@QAEXViterator@01@Vconst_iterator@01@1Uforward_iterator_tag@1@@Z
_TEXT	SEGMENT PARA USE32 PUBLIC 'CODE'
_TEXT	ENDS
;	COMDAT ??$fill_n@PAPAUAIMSG@@IPAU1@@std@@YAXPAPAUAIMSG@@IABQAU1@@Z
_TEXT	SEGMENT PARA USE32 PUBLIC 'CODE'
_TEXT	ENDS
;	COMDAT ??$_Uninit_copy@PAV?$basic_string@DU?$char_traits@D@std@@V?$allocator@D@2@@std@@PAV12@V?$allocator@V?$basic_string@DU?$char_traits@D@std@@V?$allocator@D@2@@std@@@2@@std@@YAPAV?$basic_string@DU?$char_traits@D@std@@V?$allocator@D@2@@0@PAV10@00AAV?$allocator@V?$basic_string@DU?$char_traits@D@std@@V?$allocator@D@2@@std@@@0@U_Nonscalar_ptr_iterator_tag@0@@Z
_TEXT	SEGMENT PARA USE32 PUBLIC 'CODE'
_TEXT	ENDS
;	COMDAT ??$_Uninit_copy@PAUMINIGMAME_PRIZE_LIST@CRainbowRaceMng@@PAU12@V?$allocator@UMINIGMAME_PRIZE_LIST@CRainbowRaceMng@@@std@@@std@@YAPAUMINIGMAME_PRIZE_LIST@CRainbowRaceMng@@PAU12@00AAV?$allocator@UMINIGMAME_PRIZE_LIST@CRainbowRaceMng@@@0@U_Nonscalar_ptr_iterator_tag@0@@Z
_TEXT	SEGMENT PARA USE32 PUBLIC 'CODE'
_TEXT	ENDS
;	COMDAT ??$_Copy_opt@PAEPAE@std@@YAPAEPAE00U_Scalar_ptr_iterator_tag@0@@Z
_TEXT	SEGMENT PARA USE32 PUBLIC 'CODE'
_TEXT	ENDS
;	COMDAT ??$_Construct@V?$basic_string@DU?$char_traits@D@std@@V?$allocator@D@2@@std@@V12@@std@@YAXPAV?$basic_string@DU?$char_traits@D@std@@V?$allocator@D@2@@0@ABV10@@Z
_TEXT	SEGMENT PARA USE32 PUBLIC 'CODE'
_TEXT	ENDS
;	COMDAT ??$_Destroy@V?$basic_string@DU?$char_traits@D@std@@V?$allocator@D@2@@std@@@std@@YAXPAV?$basic_string@DU?$char_traits@D@std@@V?$allocator@D@2@@0@@Z
_TEXT	SEGMENT PARA USE32 PUBLIC 'CODE'
_TEXT	ENDS
;	COMDAT ??$_Construct@EE@std@@YAXPAEABE@Z
_TEXT	SEGMENT PARA USE32 PUBLIC 'CODE'
_TEXT	ENDS
;	COMDAT ??$_Destroy@E@std@@YAXPAE@Z
_TEXT	SEGMENT PARA USE32 PUBLIC 'CODE'
_TEXT	ENDS
;	COMDAT ??$_Destroy@U__SECRETROOM_MONSTER@@@std@@YAXPAU__SECRETROOM_MONSTER@@@Z
_TEXT	SEGMENT PARA USE32 PUBLIC 'CODE'
_TEXT	ENDS
;	COMDAT ??$_Construct@UMINIGMAME_PRIZE_LIST@CRainbowRaceMng@@U12@@std@@YAXPAUMINIGMAME_PRIZE_LIST@CRainbowRaceMng@@ABU12@@Z
_TEXT	SEGMENT PARA USE32 PUBLIC 'CODE'
_TEXT	ENDS
;	COMDAT ??$_Destroy@UMINIGMAME_PRIZE_LIST@CRainbowRaceMng@@@std@@YAXPAUMINIGMAME_PRIZE_LIST@CRainbowRaceMng@@@Z
_TEXT	SEGMENT PARA USE32 PUBLIC 'CODE'
_TEXT	ENDS
;	COMDAT ??_G?$basic_string@DU?$char_traits@D@std@@V?$allocator@D@2@@std@@QAEPAXI@Z
_TEXT	SEGMENT PARA USE32 PUBLIC 'CODE'
_TEXT	ENDS
;	COMDAT ?capacity@?$vector@EV?$allocator@E@std@@@std@@QBEIXZ
_TEXT	SEGMENT PARA USE32 PUBLIC 'CODE'
_TEXT	ENDS
;	COMDAT ??Giterator@?$vector@EV?$allocator@E@std@@@std@@QBEHABVconst_iterator@12@@Z
_TEXT	SEGMENT PARA USE32 PUBLIC 'CODE'
_TEXT	ENDS
;	COMDAT ??Gconst_iterator@?$vector@EV?$allocator@E@std@@@std@@QBEHABV012@@Z
_TEXT	SEGMENT PARA USE32 PUBLIC 'CODE'
_TEXT	ENDS
;	COMDAT ??$_Distance@Vconst_iterator@?$vector@EV?$allocator@E@std@@@std@@I@std@@YAXVconst_iterator@?$vector@EV?$allocator@E@std@@@0@0AAI@Z
_TEXT	SEGMENT PARA USE32 PUBLIC 'CODE'
_TEXT	ENDS
;	COMDAT ??$_Ucopy@PAE@?$vector@EV?$allocator@E@std@@@std@@IAEPAEPAE00@Z
_TEXT	SEGMENT PARA USE32 PUBLIC 'CODE'
_TEXT	ENDS
;	COMDAT ??$advance@Vconst_iterator@?$vector@EV?$allocator@E@std@@@std@@H@std@@YAXAAVconst_iterator@?$vector@EV?$allocator@E@std@@@0@H@Z
_TEXT	SEGMENT PARA USE32 PUBLIC 'CODE'
_TEXT	ENDS
;	COMDAT ??$copy@Vconst_iterator@?$vector@EV?$allocator@E@std@@@std@@PAE@std@@YAPAEVconst_iterator@?$vector@EV?$allocator@E@std@@@0@0PAE@Z
_TEXT	SEGMENT PARA USE32 PUBLIC 'CODE'
_TEXT	ENDS
;	COMDAT ??$copy_backward@PAEPAE@std@@YAPAEPAE00@Z
_TEXT	SEGMENT PARA USE32 PUBLIC 'CODE'
_TEXT	ENDS
;	COMDAT ??$_Distance2@Vconst_iterator@?$vector@EV?$allocator@E@std@@@std@@I@std@@YAXVconst_iterator@?$vector@EV?$allocator@E@std@@@0@0AAIUrandom_access_iterator_tag@0@@Z
_TEXT	SEGMENT PARA USE32 PUBLIC 'CODE'
_TEXT	ENDS
;	COMDAT ??$_Uninitialized_copy@PAEPAEV?$allocator@E@std@@@std@@YAPAEPAE00AAV?$allocator@E@0@@Z
_TEXT	SEGMENT PARA USE32 PUBLIC 'CODE'
_TEXT	ENDS
;	COMDAT ??$_Advance@Vconst_iterator@?$vector@EV?$allocator@E@std@@@std@@H@std@@YAXAAVconst_iterator@?$vector@EV?$allocator@E@std@@@0@HUrandom_access_iterator_tag@0@@Z
_TEXT	SEGMENT PARA USE32 PUBLIC 'CODE'
_TEXT	ENDS
;	COMDAT ??$_Copy_opt@Vconst_iterator@?$vector@EV?$allocator@E@std@@@std@@PAE@std@@YAPAEVconst_iterator@?$vector@EV?$allocator@E@std@@@0@0PAEU_Nonscalar_ptr_iterator_tag@0@@Z
_TEXT	SEGMENT PARA USE32 PUBLIC 'CODE'
_TEXT	ENDS
;	COMDAT ??$_Copy_backward_opt@PAEPAE@std@@YAPAEPAE00U_Scalar_ptr_iterator_tag@0@@Z
_TEXT	SEGMENT PARA USE32 PUBLIC 'CODE'
_TEXT	ENDS
;	COMDAT ??Yconst_iterator@?$vector@EV?$allocator@E@std@@@std@@QAEAAV012@H@Z
_TEXT	SEGMENT PARA USE32 PUBLIC 'CODE'
_TEXT	ENDS
;	COMDAT ??$_Uninit_copy@EE@std@@YAPAEPAE00AAV?$allocator@E@0@U_Scalar_ptr_iterator_tag@0@@Z
_TEXT	SEGMENT PARA USE32 PUBLIC 'CODE'
_TEXT	ENDS
;	COMDAT ?IsReturnToBegin@CAIInterface@@UAEHXZ
_TEXT	SEGMENT PARA USE32 PUBLIC 'CODE'
_TEXT	ENDS
;	COMDAT ?InitAI@CAIInterface@@UAEXXZ
_TEXT	SEGMENT PARA USE32 PUBLIC 'CODE'
_TEXT	ENDS
;	COMDAT ?deallocate@?$allocator@E@std@@QAEXPAEI@Z
_TEXT	SEGMENT PARA USE32 PUBLIC 'CODE'
_TEXT	ENDS
;	COMDAT ??$_Ucopy@Vconst_iterator@?$vector@EV?$allocator@E@std@@@std@@@?$vector@EV?$allocator@E@std@@@std@@IAEPAEVconst_iterator@01@0PAE@Z
_TEXT	SEGMENT PARA USE32 PUBLIC 'CODE'
_TEXT	ENDS
;	COMDAT ?allocate@?$allocator@E@std@@QAEPAEI@Z
_TEXT	SEGMENT PARA USE32 PUBLIC 'CODE'
_TEXT	ENDS
;	COMDAT ??$_Allocate@E@std@@YAPAEIPAE@Z
_TEXT	SEGMENT PARA USE32 PUBLIC 'CODE'
_TEXT	ENDS
;	COMDAT ?_Xlen@?$vector@EV?$allocator@E@std@@@std@@IBEXXZ
_TEXT	SEGMENT PARA USE32 PUBLIC 'CODE'
_TEXT	ENDS
;	COMDAT ?size@?$vector@EV?$allocator@E@std@@@std@@QBEIXZ
_TEXT	SEGMENT PARA USE32 PUBLIC 'CODE'
_TEXT	ENDS
;	COMDAT ?max_size@?$vector@EV?$allocator@E@std@@@std@@QBEIXZ
_TEXT	SEGMENT PARA USE32 PUBLIC 'CODE'
_TEXT	ENDS
;	COMDAT ?max_size@?$allocator@E@std@@QBEIXZ
_TEXT	SEGMENT PARA USE32 PUBLIC 'CODE'
_TEXT	ENDS
;	COMDAT ?_Ptr_cat@std@@YA?AU_Scalar_ptr_iterator_tag@1@PAE0@Z
_TEXT	SEGMENT PARA USE32 PUBLIC 'CODE'
_TEXT	ENDS
;	COMDAT ??0const_iterator@?$vector@EV?$allocator@E@std@@@std@@QAE@PAE@Z
_TEXT	SEGMENT PARA USE32 PUBLIC 'CODE'
_TEXT	ENDS
;	COMDAT ?_Destroy@?$vector@EV?$allocator@E@std@@@std@@IAEXPAE0@Z
_TEXT	SEGMENT PARA USE32 PUBLIC 'CODE'
_TEXT	ENDS
;	COMDAT ??$_Destroy_range@EV?$allocator@E@std@@@std@@YAXPAE0AAV?$allocator@E@0@@Z
_TEXT	SEGMENT PARA USE32 PUBLIC 'CODE'
_TEXT	ENDS
;	COMDAT ??4?$basic_string@DU?$char_traits@D@std@@V?$allocator@D@2@@std@@QAEAAV01@ABV01@@Z
_TEXT	SEGMENT PARA USE32 PUBLIC 'CODE'
_TEXT	ENDS
;	COMDAT ?assign@?$basic_string@DU?$char_traits@D@std@@V?$allocator@D@2@@std@@QAEAAV12@ABV12@@Z
_TEXT	SEGMENT PARA USE32 PUBLIC 'CODE'
_TEXT	ENDS
;	COMDAT ?assign@?$basic_string@DU?$char_traits@D@std@@V?$allocator@D@2@@std@@QAEAAV12@ABV12@II@Z
_TEXT	SEGMENT PARA USE32 PUBLIC 'CODE'
_TEXT	ENDS
;	COMDAT ?erase@?$basic_string@DU?$char_traits@D@std@@V?$allocator@D@2@@std@@QAEAAV12@II@Z
_TEXT	SEGMENT PARA USE32 PUBLIC 'CODE'
_TEXT	ENDS
;	COMDAT ?move@?$char_traits@D@std@@SAPADPADPBDI@Z
_TEXT	SEGMENT PARA USE32 PUBLIC 'CODE'
_TEXT	ENDS
;	COMDAT ?_Grow@?$basic_string@DU?$char_traits@D@std@@V?$allocator@D@2@@std@@IAE_NI_N@Z
_TEXT	SEGMENT PARA USE32 PUBLIC 'CODE'
_TEXT	ENDS
;	COMDAT ?max_size@?$basic_string@DU?$char_traits@D@std@@V?$allocator@D@2@@std@@QBEIXZ
_TEXT	SEGMENT PARA USE32 PUBLIC 'CODE'
_TEXT	ENDS
;	COMDAT ?max_size@?$allocator@D@std@@QBEIXZ
_TEXT	SEGMENT PARA USE32 PUBLIC 'CODE'
_TEXT	ENDS
;	COMDAT ?_Copy@?$basic_string@DU?$char_traits@D@std@@V?$allocator@D@2@@std@@IAEXII@Z
_TEXT	SEGMENT PARA USE32 PUBLIC 'CODE'
_TEXT	ENDS
;	COMDAT ?allocate@?$allocator@D@std@@QAEPADI@Z
_TEXT	SEGMENT PARA USE32 PUBLIC 'CODE'
_TEXT	ENDS
;	COMDAT ??$_Allocate@D@std@@YAPADIPAD@Z
_TEXT	SEGMENT PARA USE32 PUBLIC 'CODE'
_TEXT	ENDS
;	COMDAT ?_Tidy@?$basic_string@DU?$char_traits@D@std@@V?$allocator@D@2@@std@@IAEX_NI@Z
_TEXT	SEGMENT PARA USE32 PUBLIC 'CODE'
_TEXT	ENDS
;	COMDAT ?deallocate@?$allocator@D@std@@QAEXPADI@Z
_TEXT	SEGMENT PARA USE32 PUBLIC 'CODE'
_TEXT	ENDS
;	COMDAT ?copy@?$char_traits@D@std@@SAPADPADPBDI@Z
_TEXT	SEGMENT PARA USE32 PUBLIC 'CODE'
_TEXT	ENDS
;	COMDAT ?_Myptr@?$basic_string@DU?$char_traits@D@std@@V?$allocator@D@2@@std@@QAEPADXZ
_TEXT	SEGMENT PARA USE32 PUBLIC 'CODE'
_TEXT	ENDS
;	COMDAT ?_Eos@?$basic_string@DU?$char_traits@D@std@@V?$allocator@D@2@@std@@IAEXI@Z
_TEXT	SEGMENT PARA USE32 PUBLIC 'CODE'
_TEXT	ENDS
;	COMDAT ?assign@?$char_traits@D@std@@SAXAADABD@Z
_TEXT	SEGMENT PARA USE32 PUBLIC 'CODE'
_TEXT	ENDS
;	COMDAT ?npos@?$basic_string@DU?$char_traits@D@std@@V?$allocator@D@2@@std@@2IB
CONST	SEGMENT DWORD USE32 PUBLIC 'CONST'
CONST	ENDS
;	COMDAT ?_Ptr_cat@std@@YA?AU_Scalar_ptr_iterator_tag@1@PAJ0@Z
_TEXT	SEGMENT PARA USE32 PUBLIC 'CODE'
_TEXT	ENDS
;	COMDAT ??9const_iterator@?$_Tree@V?$_Tmap_traits@KEU?$less@K@std@@V?$allocator@U?$pair@$$CBKE@std@@@2@$0A@@std@@@std@@QBE_NABV012@@Z
_TEXT	SEGMENT PARA USE32 PUBLIC 'CODE'
_TEXT	ENDS
;	COMDAT ??8const_iterator@?$_Tree@V?$_Tmap_traits@KEU?$less@K@std@@V?$allocator@U?$pair@$$CBKE@std@@@2@$0A@@std@@@std@@QBE_NABV012@@Z
_TEXT	SEGMENT PARA USE32 PUBLIC 'CODE'
_TEXT	ENDS
;	COMDAT ??Eiterator@?$_Tree@V?$_Tmap_traits@KEU?$less@K@std@@V?$allocator@U?$pair@$$CBKE@std@@@2@$0A@@std@@@std@@QAEAAV012@XZ
_TEXT	SEGMENT PARA USE32 PUBLIC 'CODE'
_TEXT	ENDS
;	COMDAT ??Econst_iterator@?$_Tree@V?$_Tmap_traits@KEU?$less@K@std@@V?$allocator@U?$pair@$$CBKE@std@@@2@$0A@@std@@@std@@QAEAAV012@XZ
_TEXT	SEGMENT PARA USE32 PUBLIC 'CODE'
_TEXT	ENDS
;	COMDAT ?_Inc@const_iterator@?$_Tree@V?$_Tmap_traits@KEU?$less@K@std@@V?$allocator@U?$pair@$$CBKE@std@@@2@$0A@@std@@@std@@QAEXXZ
_TEXT	SEGMENT PARA USE32 PUBLIC 'CODE'
_TEXT	ENDS
;	COMDAT ?_Min@?$_Tree@V?$_Tmap_traits@KEU?$less@K@std@@V?$allocator@U?$pair@$$CBKE@std@@@2@$0A@@std@@@std@@KAPAU_Node@?$_Tree_nod@V?$_Tmap_traits@KEU?$less@K@std@@V?$allocator@U?$pair@$$CBKE@std@@@2@$0A@@std@@@2@PAU342@@Z
_TEXT	SEGMENT PARA USE32 PUBLIC 'CODE'
_TEXT	ENDS
;	COMDAT ?_Left@?$_Tree@V?$_Tmap_traits@KEU?$less@K@std@@V?$allocator@U?$pair@$$CBKE@std@@@2@$0A@@std@@@std@@KAAAPAU_Node@?$_Tree_nod@V?$_Tmap_traits@KEU?$less@K@std@@V?$allocator@U?$pair@$$CBKE@std@@@2@$0A@@std@@@2@PAU342@@Z
_TEXT	SEGMENT PARA USE32 PUBLIC 'CODE'
_TEXT	ENDS
;	COMDAT ?_Isnil@?$_Tree@V?$_Tmap_traits@KEU?$less@K@std@@V?$allocator@U?$pair@$$CBKE@std@@@2@$0A@@std@@@std@@KAAADPAU_Node@?$_Tree_nod@V?$_Tmap_traits@KEU?$less@K@std@@V?$allocator@U?$pair@$$CBKE@std@@@2@$0A@@std@@@2@@Z
_TEXT	SEGMENT PARA USE32 PUBLIC 'CODE'
_TEXT	ENDS
;	COMDAT ?_Parent@?$_Tree@V?$_Tmap_traits@KEU?$less@K@std@@V?$allocator@U?$pair@$$CBKE@std@@@2@$0A@@std@@@std@@KAAAPAU_Node@?$_Tree_nod@V?$_Tmap_traits@KEU?$less@K@std@@V?$allocator@U?$pair@$$CBKE@std@@@2@$0A@@std@@@2@PAU342@@Z
_TEXT	SEGMENT PARA USE32 PUBLIC 'CODE'
_TEXT	ENDS
;	COMDAT ?_Right@?$_Tree@V?$_Tmap_traits@KEU?$less@K@std@@V?$allocator@U?$pair@$$CBKE@std@@@2@$0A@@std@@@std@@KAAAPAU_Node@?$_Tree_nod@V?$_Tmap_traits@KEU?$less@K@std@@V?$allocator@U?$pair@$$CBKE@std@@@2@$0A@@std@@@2@PAU342@@Z
_TEXT	SEGMENT PARA USE32 PUBLIC 'CODE'
_TEXT	ENDS
;	COMDAT ??9const_iterator@?$_Tree@V?$_Tmap_traits@KPAVCCtrl@@U?$less@K@std@@V?$allocator@U?$pair@$$CBKPAVCCtrl@@@std@@@3@$0A@@std@@@std@@QBE_NABV012@@Z
_TEXT	SEGMENT PARA USE32 PUBLIC 'CODE'
_TEXT	ENDS
;	COMDAT ??9const_iterator@?$_Tree@V?$_Tmap_traits@KPAVCUser@@U?$less@K@std@@V?$allocator@U?$pair@$$CBKPAVCUser@@@std@@@3@$0A@@std@@@std@@QBE_NABV012@@Z
_TEXT	SEGMENT PARA USE32 PUBLIC 'CODE'
_TEXT	ENDS
;	COMDAT ??8const_iterator@?$_Tree@V?$_Tmap_traits@KPAVCUser@@U?$less@K@std@@V?$allocator@U?$pair@$$CBKPAVCUser@@@std@@@3@$0A@@std@@@std@@QBE_NABV012@@Z
_TEXT	SEGMENT PARA USE32 PUBLIC 'CODE'
_TEXT	ENDS
;	COMDAT ??Eiterator@?$_Tree@V?$_Tmap_traits@KPAVCUser@@U?$less@K@std@@V?$allocator@U?$pair@$$CBKPAVCUser@@@std@@@3@$0A@@std@@@std@@QAEAAV012@XZ
_TEXT	SEGMENT PARA USE32 PUBLIC 'CODE'
_TEXT	ENDS
;	COMDAT ??Econst_iterator@?$_Tree@V?$_Tmap_traits@KPAVCUser@@U?$less@K@std@@V?$allocator@U?$pair@$$CBKPAVCUser@@@std@@@3@$0A@@std@@@std@@QAEAAV012@XZ
_TEXT	SEGMENT PARA USE32 PUBLIC 'CODE'
_TEXT	ENDS
;	COMDAT ?_Inc@const_iterator@?$_Tree@V?$_Tmap_traits@KPAVCUser@@U?$less@K@std@@V?$allocator@U?$pair@$$CBKPAVCUser@@@std@@@3@$0A@@std@@@std@@QAEXXZ
_TEXT	SEGMENT PARA USE32 PUBLIC 'CODE'
_TEXT	ENDS
;	COMDAT ?_Min@?$_Tree@V?$_Tmap_traits@KPAVCUser@@U?$less@K@std@@V?$allocator@U?$pair@$$CBKPAVCUser@@@std@@@3@$0A@@std@@@std@@KAPAU_Node@?$_Tree_nod@V?$_Tmap_traits@KPAVCUser@@U?$less@K@std@@V?$allocator@U?$pair@$$CBKPAVCUser@@@std@@@3@$0A@@std@@@2@PAU342@@Z
_TEXT	SEGMENT PARA USE32 PUBLIC 'CODE'
_TEXT	ENDS
;	COMDAT ?_Left@?$_Tree@V?$_Tmap_traits@KPAVCUser@@U?$less@K@std@@V?$allocator@U?$pair@$$CBKPAVCUser@@@std@@@3@$0A@@std@@@std@@KAAAPAU_Node@?$_Tree_nod@V?$_Tmap_traits@KPAVCUser@@U?$less@K@std@@V?$allocator@U?$pair@$$CBKPAVCUser@@@std@@@3@$0A@@std@@@2@PAU342@@Z
_TEXT	SEGMENT PARA USE32 PUBLIC 'CODE'
_TEXT	ENDS
;	COMDAT ?_Isnil@?$_Tree@V?$_Tmap_traits@KPAVCUser@@U?$less@K@std@@V?$allocator@U?$pair@$$CBKPAVCUser@@@std@@@3@$0A@@std@@@std@@KAAADPAU_Node@?$_Tree_nod@V?$_Tmap_traits@KPAVCUser@@U?$less@K@std@@V?$allocator@U?$pair@$$CBKPAVCUser@@@std@@@3@$0A@@std@@@2@@Z
_TEXT	SEGMENT PARA USE32 PUBLIC 'CODE'
_TEXT	ENDS
;	COMDAT ?_Parent@?$_Tree@V?$_Tmap_traits@KPAVCUser@@U?$less@K@std@@V?$allocator@U?$pair@$$CBKPAVCUser@@@std@@@3@$0A@@std@@@std@@KAAAPAU_Node@?$_Tree_nod@V?$_Tmap_traits@KPAVCUser@@U?$less@K@std@@V?$allocator@U?$pair@$$CBKPAVCUser@@@std@@@3@$0A@@std@@@2@PAU342@@Z
_TEXT	SEGMENT PARA USE32 PUBLIC 'CODE'
_TEXT	ENDS
;	COMDAT ?_Right@?$_Tree@V?$_Tmap_traits@KPAVCUser@@U?$less@K@std@@V?$allocator@U?$pair@$$CBKPAVCUser@@@std@@@3@$0A@@std@@@std@@KAAAPAU_Node@?$_Tree_nod@V?$_Tmap_traits@KPAVCUser@@U?$less@K@std@@V?$allocator@U?$pair@$$CBKPAVCUser@@@std@@@3@$0A@@std@@@2@PAU342@@Z
_TEXT	SEGMENT PARA USE32 PUBLIC 'CODE'
_TEXT	ENDS
;	COMDAT ?_Psave@?$_Facetptr@V?$ctype@G@std@@@std@@2PBVfacet@locale@2@B
_DATA	SEGMENT DWORD USE32 PUBLIC 'DATA'
_DATA	ENDS
;	COMDAT ?_Psave@?$_Facetptr@V?$ctype@D@std@@@std@@2PBVfacet@locale@2@B
_DATA	SEGMENT DWORD USE32 PUBLIC 'DATA'
_DATA	ENDS
;	COMDAT ??3@YAXPAX0@Z
_TEXT	SEGMENT PARA USE32 PUBLIC 'CODE'
_TEXT	ENDS
;	COMDAT ??2@YAPAXIPAX@Z
_TEXT	SEGMENT PARA USE32 PUBLIC 'CODE'
_TEXT	ENDS
;	COMDAT ??0?$basic_string@DU?$char_traits@D@std@@V?$allocator@D@2@@std@@QAE@ABV01@@Z
_TEXT	SEGMENT PARA USE32 PUBLIC 'CODE'
_TEXT	ENDS
;	COMDAT ??0?$_String_val@DV?$allocator@D@std@@@std@@IAE@V?$allocator@D@1@@Z
_TEXT	SEGMENT PARA USE32 PUBLIC 'CODE'
_TEXT	ENDS
;	COMDAT ??0?$allocator@D@std@@QAE@ABV01@@Z
_TEXT	SEGMENT PARA USE32 PUBLIC 'CODE'
_TEXT	ENDS
;	COMDAT ??_C@_0BD@OLBABOEK@vector?$DMT?$DO?5too?5long?$AA@
CONST	SEGMENT DWORD USE32 PUBLIC 'CONST'
CONST	ENDS
;	COMDAT ??$swap@D@std@@YAXAAD0@Z
_TEXT	SEGMENT PARA USE32 PUBLIC 'CODE'
_TEXT	ENDS
;	COMDAT __TI3?AVout_of_range@std@@
xdata$x	SEGMENT DWORD USE32 PUBLIC 'CONST'
xdata$x	ENDS
;	COMDAT ??1out_of_range@std@@UAE@XZ
_TEXT	SEGMENT PARA USE32 PUBLIC 'CODE'
_TEXT	ENDS
;	COMDAT ??_7out_of_range@std@@6B@
CONST	SEGMENT DWORD USE32 PUBLIC 'CONST'
CONST	ENDS
;	COMDAT ??_Gout_of_range@std@@UAEPAXI@Z
_TEXT	SEGMENT PARA USE32 PUBLIC 'CODE'
_TEXT	ENDS
;	COMDAT ?what@logic_error@std@@UBEPBDXZ
_TEXT	SEGMENT PARA USE32 PUBLIC 'CODE'
_TEXT	ENDS
;	COMDAT ??1logic_error@std@@UAE@XZ
_TEXT	SEGMENT PARA USE32 PUBLIC 'CODE'
_TEXT	ENDS
;	COMDAT ??_7logic_error@std@@6B@
CONST	SEGMENT DWORD USE32 PUBLIC 'CONST'
CONST	ENDS
;	COMDAT ??_Glogic_error@std@@UAEPAXI@Z
_TEXT	SEGMENT PARA USE32 PUBLIC 'CODE'
_TEXT	ENDS
;	COMDAT __CTA3?AVout_of_range@std@@
xdata$x	SEGMENT DWORD USE32 PUBLIC 'CONST'
xdata$x	ENDS
;	COMDAT __CT??_R0?AVout_of_range@std@@@8??0out_of_range@std@@QAE@ABV01@@Z40
xdata$x	SEGMENT DWORD USE32 PUBLIC 'CONST'
xdata$x	ENDS
;	COMDAT ??_R0?AVout_of_range@std@@@8
_DATA	SEGMENT DWORD USE32 PUBLIC 'DATA'
_DATA	ENDS
;	COMDAT ??0out_of_range@std@@QAE@ABV01@@Z
_TEXT	SEGMENT PARA USE32 PUBLIC 'CODE'
_TEXT	ENDS
;	COMDAT ??0logic_error@std@@QAE@ABV01@@Z
_TEXT	SEGMENT PARA USE32 PUBLIC 'CODE'
_TEXT	ENDS
;	COMDAT __CT??_R0?AVlogic_error@std@@@8??0logic_error@std@@QAE@ABV01@@Z40
xdata$x	SEGMENT DWORD USE32 PUBLIC 'CONST'
xdata$x	ENDS
;	COMDAT ??_R0?AVlogic_error@std@@@8
_DATA	SEGMENT DWORD USE32 PUBLIC 'DATA'
_DATA	ENDS
;	COMDAT __CT??_R0?AVexception@@@8??0exception@@QAE@ABV0@@Z12
xdata$x	SEGMENT DWORD USE32 PUBLIC 'CONST'
xdata$x	ENDS
;	COMDAT ??_R0?AVexception@@@8
_DATA	SEGMENT DWORD USE32 PUBLIC 'DATA'
_DATA	ENDS
;	COMDAT ??_C@_0BM@PAPJHAGI@invalid?5map?1set?$DMT?$DO?5iterator?$AA@
CONST	SEGMENT DWORD USE32 PUBLIC 'CONST'
CONST	ENDS
;	COMDAT ??0out_of_range@std@@QAE@ABV?$basic_string@DU?$char_traits@D@std@@V?$allocator@D@2@@1@@Z
_TEXT	SEGMENT PARA USE32 PUBLIC 'CODE'
_TEXT	ENDS
;	COMDAT ??0logic_error@std@@QAE@ABV?$basic_string@DU?$char_traits@D@std@@V?$allocator@D@2@@1@@Z
_TEXT	SEGMENT PARA USE32 PUBLIC 'CODE'
_TEXT	ENDS
;	COMDAT __TI3?AVlength_error@std@@
xdata$x	SEGMENT DWORD USE32 PUBLIC 'CONST'
xdata$x	ENDS
;	COMDAT ??1length_error@std@@UAE@XZ
_TEXT	SEGMENT PARA USE32 PUBLIC 'CODE'
_TEXT	ENDS
;	COMDAT ??_7length_error@std@@6B@
CONST	SEGMENT DWORD USE32 PUBLIC 'CONST'
CONST	ENDS
;	COMDAT ??_Glength_error@std@@UAEPAXI@Z
_TEXT	SEGMENT PARA USE32 PUBLIC 'CODE'
_TEXT	ENDS
;	COMDAT __CTA3?AVlength_error@std@@
xdata$x	SEGMENT DWORD USE32 PUBLIC 'CONST'
xdata$x	ENDS
;	COMDAT __CT??_R0?AVlength_error@std@@@8??0length_error@std@@QAE@ABV01@@Z40
xdata$x	SEGMENT DWORD USE32 PUBLIC 'CONST'
xdata$x	ENDS
;	COMDAT ??_R0?AVlength_error@std@@@8
_DATA	SEGMENT DWORD USE32 PUBLIC 'DATA'
_DATA	ENDS
;	COMDAT ??0length_error@std@@QAE@ABV01@@Z
_TEXT	SEGMENT PARA USE32 PUBLIC 'CODE'
_TEXT	ENDS
;	COMDAT ??_C@_0BE@JONHPENG@map?1set?$DMT?$DO?5too?5long?$AA@
CONST	SEGMENT DWORD USE32 PUBLIC 'CONST'
CONST	ENDS
;	COMDAT ??0length_error@std@@QAE@ABV?$basic_string@DU?$char_traits@D@std@@V?$allocator@D@2@@1@@Z
_TEXT	SEGMENT PARA USE32 PUBLIC 'CODE'
_TEXT	ENDS
;	COMDAT ?insert@?$_Tree@V?$_Tmap_traits@KPAVCCtrl@@U?$less@K@std@@V?$allocator@U?$pair@$$CBKPAVCCtrl@@@std@@@3@$0A@@std@@@std@@QAE?AU?$pair@Viterator@?$_Tree@V?$_Tmap_traits@KPAVCCtrl@@U?$less@K@std@@V?$allocator@U?$pair@$$CBKPAVCCtrl@@@std@@@3@$0A@@std@@@std@@_N@2@ABU?$pair@$$CBKPAVCCtrl@@@2@@Z
_TEXT	SEGMENT PARA USE32 PUBLIC 'CODE'
_TEXT	ENDS
;	COMDAT ?_Root@?$_Tree@V?$_Tmap_traits@KPAVCCtrl@@U?$less@K@std@@V?$allocator@U?$pair@$$CBKPAVCCtrl@@@std@@@3@$0A@@std@@@std@@IAEAAPAU_Node@?$_Tree_nod@V?$_Tmap_traits@KPAVCCtrl@@U?$less@K@std@@V?$allocator@U?$pair@$$CBKPAVCCtrl@@@std@@@3@$0A@@std@@@2@XZ
_TEXT	SEGMENT PARA USE32 PUBLIC 'CODE'
_TEXT	ENDS
;	COMDAT ?_Parent@?$_Tree@V?$_Tmap_traits@KPAVCCtrl@@U?$less@K@std@@V?$allocator@U?$pair@$$CBKPAVCCtrl@@@std@@@3@$0A@@std@@@std@@KAAAPAU_Node@?$_Tree_nod@V?$_Tmap_traits@KPAVCCtrl@@U?$less@K@std@@V?$allocator@U?$pair@$$CBKPAVCCtrl@@@std@@@3@$0A@@std@@@2@PAU342@@Z
_TEXT	SEGMENT PARA USE32 PUBLIC 'CODE'
_TEXT	ENDS
;	COMDAT ?_Left@?$_Tree@V?$_Tmap_traits@KPAVCCtrl@@U?$less@K@std@@V?$allocator@U?$pair@$$CBKPAVCCtrl@@@std@@@3@$0A@@std@@@std@@KAAAPAU_Node@?$_Tree_nod@V?$_Tmap_traits@KPAVCCtrl@@U?$less@K@std@@V?$allocator@U?$pair@$$CBKPAVCCtrl@@@std@@@3@$0A@@std@@@2@PAU342@@Z
_TEXT	SEGMENT PARA USE32 PUBLIC 'CODE'
_TEXT	ENDS
;	COMDAT ??0iterator@?$_Tree@V?$_Tmap_traits@KPAVCCtrl@@U?$less@K@std@@V?$allocator@U?$pair@$$CBKPAVCCtrl@@@std@@@3@$0A@@std@@@std@@QAE@PAU_Node@?$_Tree_nod@V?$_Tmap_traits@KPAVCCtrl@@U?$less@K@std@@V?$allocator@U?$pair@$$CBKPAVCCtrl@@@std@@@3@$0A@@std@@@2@@Z
_TEXT	SEGMENT PARA USE32 PUBLIC 'CODE'
_TEXT	ENDS
;	COMDAT ??0const_iterator@?$_Tree@V?$_Tmap_traits@KPAVCCtrl@@U?$less@K@std@@V?$allocator@U?$pair@$$CBKPAVCCtrl@@@std@@@3@$0A@@std@@@std@@QAE@PAU_Node@?$_Tree_nod@V?$_Tmap_traits@KPAVCCtrl@@U?$less@K@std@@V?$allocator@U?$pair@$$CBKPAVCCtrl@@@std@@@3@$0A@@std@@@2@@Z
_TEXT	SEGMENT PARA USE32 PUBLIC 'CODE'
_TEXT	ENDS
;	COMDAT ??0?$pair@Viterator@?$_Tree@V?$_Tmap_traits@KPAVCCtrl@@U?$less@K@std@@V?$allocator@U?$pair@$$CBKPAVCCtrl@@@std@@@3@$0A@@std@@@std@@_N@std@@QAE@ABViterator@?$_Tree@V?$_Tmap_traits@KPAVCCtrl@@U?$less@K@std@@V?$allocator@U?$pair@$$CBKPAVCCtrl@@@std@@@3@$0A@@std@@@1@AB_N@Z
_TEXT	SEGMENT PARA USE32 PUBLIC 'CODE'
_TEXT	ENDS
;	COMDAT ??Eiterator@?$_Tree@V?$_Tmap_traits@KPAVCCtrl@@U?$less@K@std@@V?$allocator@U?$pair@$$CBKPAVCCtrl@@@std@@@3@$0A@@std@@@std@@QAEAAV012@XZ
_TEXT	SEGMENT PARA USE32 PUBLIC 'CODE'
_TEXT	ENDS
;	COMDAT ??Econst_iterator@?$_Tree@V?$_Tmap_traits@KPAVCCtrl@@U?$less@K@std@@V?$allocator@U?$pair@$$CBKPAVCCtrl@@@std@@@3@$0A@@std@@@std@@QAEAAV012@XZ
_TEXT	SEGMENT PARA USE32 PUBLIC 'CODE'
_TEXT	ENDS
;	COMDAT ?_Inc@const_iterator@?$_Tree@V?$_Tmap_traits@KPAVCCtrl@@U?$less@K@std@@V?$allocator@U?$pair@$$CBKPAVCCtrl@@@std@@@3@$0A@@std@@@std@@QAEXXZ
_TEXT	SEGMENT PARA USE32 PUBLIC 'CODE'
_TEXT	ENDS
;	COMDAT ?_Min@?$_Tree@V?$_Tmap_traits@KPAVCCtrl@@U?$less@K@std@@V?$allocator@U?$pair@$$CBKPAVCCtrl@@@std@@@3@$0A@@std@@@std@@KAPAU_Node@?$_Tree_nod@V?$_Tmap_traits@KPAVCCtrl@@U?$less@K@std@@V?$allocator@U?$pair@$$CBKPAVCCtrl@@@std@@@3@$0A@@std@@@2@PAU342@@Z
_TEXT	SEGMENT PARA USE32 PUBLIC 'CODE'
_TEXT	ENDS
;	COMDAT ?_Right@?$_Tree@V?$_Tmap_traits@KPAVCCtrl@@U?$less@K@std@@V?$allocator@U?$pair@$$CBKPAVCCtrl@@@std@@@3@$0A@@std@@@std@@KAAAPAU_Node@?$_Tree_nod@V?$_Tmap_traits@KPAVCCtrl@@U?$less@K@std@@V?$allocator@U?$pair@$$CBKPAVCCtrl@@@std@@@3@$0A@@std@@@2@PAU342@@Z
_TEXT	SEGMENT PARA USE32 PUBLIC 'CODE'
_TEXT	ENDS
;	COMDAT ?_Isnil@?$_Tree@V?$_Tmap_traits@KPAVCCtrl@@U?$less@K@std@@V?$allocator@U?$pair@$$CBKPAVCCtrl@@@std@@@3@$0A@@std@@@std@@KAAADPAU_Node@?$_Tree_nod@V?$_Tmap_traits@KPAVCCtrl@@U?$less@K@std@@V?$allocator@U?$pair@$$CBKPAVCCtrl@@@std@@@3@$0A@@std@@@2@@Z
_TEXT	SEGMENT PARA USE32 PUBLIC 'CODE'
_TEXT	ENDS
;	COMDAT ??Fiterator@?$_Tree@V?$_Tmap_traits@KPAVCCtrl@@U?$less@K@std@@V?$allocator@U?$pair@$$CBKPAVCCtrl@@@std@@@3@$0A@@std@@@std@@QAEAAV012@XZ
_TEXT	SEGMENT PARA USE32 PUBLIC 'CODE'
_TEXT	ENDS
;	COMDAT ??Fconst_iterator@?$_Tree@V?$_Tmap_traits@KPAVCCtrl@@U?$less@K@std@@V?$allocator@U?$pair@$$CBKPAVCCtrl@@@std@@@3@$0A@@std@@@std@@QAEAAV012@XZ
_TEXT	SEGMENT PARA USE32 PUBLIC 'CODE'
_TEXT	ENDS
;	COMDAT ?_Dec@const_iterator@?$_Tree@V?$_Tmap_traits@KPAVCCtrl@@U?$less@K@std@@V?$allocator@U?$pair@$$CBKPAVCCtrl@@@std@@@3@$0A@@std@@@std@@QAEXXZ
_TEXT	SEGMENT PARA USE32 PUBLIC 'CODE'
_TEXT	ENDS
;	COMDAT ?_Max@?$_Tree@V?$_Tmap_traits@KPAVCCtrl@@U?$less@K@std@@V?$allocator@U?$pair@$$CBKPAVCCtrl@@@std@@@3@$0A@@std@@@std@@KAPAU_Node@?$_Tree_nod@V?$_Tmap_traits@KPAVCCtrl@@U?$less@K@std@@V?$allocator@U?$pair@$$CBKPAVCCtrl@@@std@@@3@$0A@@std@@@2@PAU342@@Z
_TEXT	SEGMENT PARA USE32 PUBLIC 'CODE'
_TEXT	ENDS
;	COMDAT ?_Rmost@?$_Tree@V?$_Tmap_traits@KPAVCCtrl@@U?$less@K@std@@V?$allocator@U?$pair@$$CBKPAVCCtrl@@@std@@@3@$0A@@std@@@std@@IAEAAPAU_Node@?$_Tree_nod@V?$_Tmap_traits@KPAVCCtrl@@U?$less@K@std@@V?$allocator@U?$pair@$$CBKPAVCCtrl@@@std@@@3@$0A@@std@@@2@XZ
_TEXT	SEGMENT PARA USE32 PUBLIC 'CODE'
_TEXT	ENDS
;	COMDAT ?_Kfn@?$_Tmap_traits@KPAVCCtrl@@U?$less@K@std@@V?$allocator@U?$pair@$$CBKPAVCCtrl@@@std@@@3@$0A@@std@@SAABKABU?$pair@$$CBKPAVCCtrl@@@2@@Z
_TEXT	SEGMENT PARA USE32 PUBLIC 'CODE'
_TEXT	ENDS
;	COMDAT ?begin@?$_Tree@V?$_Tmap_traits@KPAVCCtrl@@U?$less@K@std@@V?$allocator@U?$pair@$$CBKPAVCCtrl@@@std@@@3@$0A@@std@@@std@@QAE?AViterator@12@XZ
_TEXT	SEGMENT PARA USE32 PUBLIC 'CODE'
_TEXT	ENDS
;	COMDAT ?_Lmost@?$_Tree@V?$_Tmap_traits@KPAVCCtrl@@U?$less@K@std@@V?$allocator@U?$pair@$$CBKPAVCCtrl@@@std@@@3@$0A@@std@@@std@@IAEAAPAU_Node@?$_Tree_nod@V?$_Tmap_traits@KPAVCCtrl@@U?$less@K@std@@V?$allocator@U?$pair@$$CBKPAVCCtrl@@@std@@@3@$0A@@std@@@2@XZ
_TEXT	SEGMENT PARA USE32 PUBLIC 'CODE'
_TEXT	ENDS
;	COMDAT ?_Insert@?$_Tree@V?$_Tmap_traits@KPAVCCtrl@@U?$less@K@std@@V?$allocator@U?$pair@$$CBKPAVCCtrl@@@std@@@3@$0A@@std@@@std@@IAE?AViterator@12@_NPAU_Node@?$_Tree_nod@V?$_Tmap_traits@KPAVCCtrl@@U?$less@K@std@@V?$allocator@U?$pair@$$CBKPAVCCtrl@@@std@@@3@$0A@@std@@@2@ABU?$pair@$$CBKPAVCCtrl@@@2@@Z
_TEXT	SEGMENT PARA USE32 PUBLIC 'CODE'
_TEXT	ENDS
;	COMDAT ?max_size@?$_Tree@V?$_Tmap_traits@KPAVCCtrl@@U?$less@K@std@@V?$allocator@U?$pair@$$CBKPAVCCtrl@@@std@@@3@$0A@@std@@@std@@QBEIXZ
_TEXT	SEGMENT PARA USE32 PUBLIC 'CODE'
_TEXT	ENDS
;	COMDAT ?max_size@?$allocator@U?$pair@$$CBKPAVCCtrl@@@std@@@std@@QBEIXZ
_TEXT	SEGMENT PARA USE32 PUBLIC 'CODE'
_TEXT	ENDS
;	COMDAT ?_Buynode@?$_Tree@V?$_Tmap_traits@KPAVCCtrl@@U?$less@K@std@@V?$allocator@U?$pair@$$CBKPAVCCtrl@@@std@@@3@$0A@@std@@@std@@IAEPAU_Node@?$_Tree_nod@V?$_Tmap_traits@KPAVCCtrl@@U?$less@K@std@@V?$allocator@U?$pair@$$CBKPAVCCtrl@@@std@@@3@$0A@@std@@@2@PAU342@00ABU?$pair@$$CBKPAVCCtrl@@@2@D@Z
_TEXT	SEGMENT PARA USE32 PUBLIC 'CODE'
_TEXT	ENDS
;	COMDAT ?allocate@?$allocator@U_Node@?$_Tree_nod@V?$_Tmap_traits@KPAVCCtrl@@U?$less@K@std@@V?$allocator@U?$pair@$$CBKPAVCCtrl@@@std@@@3@$0A@@std@@@std@@@std@@QAEPAU_Node@?$_Tree_nod@V?$_Tmap_traits@KPAVCCtrl@@U?$less@K@std@@V?$allocator@U?$pair@$$CBKPAVCCtrl@@@std@@@3@$0A@@std@@@2@I@Z
_TEXT	SEGMENT PARA USE32 PUBLIC 'CODE'
_TEXT	ENDS
;	COMDAT ??$_Allocate@U_Node@?$_Tree_nod@V?$_Tmap_traits@KPAVCCtrl@@U?$less@K@std@@V?$allocator@U?$pair@$$CBKPAVCCtrl@@@std@@@3@$0A@@std@@@std@@@std@@YAPAU_Node@?$_Tree_nod@V?$_Tmap_traits@KPAVCCtrl@@U?$less@K@std@@V?$allocator@U?$pair@$$CBKPAVCCtrl@@@std@@@3@$0A@@std@@@0@IPAU120@@Z
_TEXT	SEGMENT PARA USE32 PUBLIC 'CODE'
_TEXT	ENDS
;	COMDAT ??0_Node@?$_Tree_nod@V?$_Tmap_traits@KPAVCCtrl@@U?$less@K@std@@V?$allocator@U?$pair@$$CBKPAVCCtrl@@@std@@@3@$0A@@std@@@std@@QAE@PAU012@00ABU?$pair@$$CBKPAVCCtrl@@@2@D@Z
_TEXT	SEGMENT PARA USE32 PUBLIC 'CODE'
_TEXT	ENDS
;	COMDAT ?deallocate@?$allocator@U_Node@?$_Tree_nod@V?$_Tmap_traits@KPAVCCtrl@@U?$less@K@std@@V?$allocator@U?$pair@$$CBKPAVCCtrl@@@std@@@3@$0A@@std@@@std@@@std@@QAEXPAU_Node@?$_Tree_nod@V?$_Tmap_traits@KPAVCCtrl@@U?$less@K@std@@V?$allocator@U?$pair@$$CBKPAVCCtrl@@@std@@@3@$0A@@std@@@2@I@Z
_TEXT	SEGMENT PARA USE32 PUBLIC 'CODE'
_TEXT	ENDS
;	COMDAT ?_Rrotate@?$_Tree@V?$_Tmap_traits@KPAVCCtrl@@U?$less@K@std@@V?$allocator@U?$pair@$$CBKPAVCCtrl@@@std@@@3@$0A@@std@@@std@@IAEXPAU_Node@?$_Tree_nod@V?$_Tmap_traits@KPAVCCtrl@@U?$less@K@std@@V?$allocator@U?$pair@$$CBKPAVCCtrl@@@std@@@3@$0A@@std@@@2@@Z
_TEXT	SEGMENT PARA USE32 PUBLIC 'CODE'
_TEXT	ENDS
;	COMDAT ?_Lrotate@?$_Tree@V?$_Tmap_traits@KPAVCCtrl@@U?$less@K@std@@V?$allocator@U?$pair@$$CBKPAVCCtrl@@@std@@@3@$0A@@std@@@std@@IAEXPAU_Node@?$_Tree_nod@V?$_Tmap_traits@KPAVCCtrl@@U?$less@K@std@@V?$allocator@U?$pair@$$CBKPAVCCtrl@@@std@@@3@$0A@@std@@@2@@Z
_TEXT	SEGMENT PARA USE32 PUBLIC 'CODE'
_TEXT	ENDS
;	COMDAT ?_Color@?$_Tree@V?$_Tmap_traits@KPAVCCtrl@@U?$less@K@std@@V?$allocator@U?$pair@$$CBKPAVCCtrl@@@std@@@3@$0A@@std@@@std@@KAAADPAU_Node@?$_Tree_nod@V?$_Tmap_traits@KPAVCCtrl@@U?$less@K@std@@V?$allocator@U?$pair@$$CBKPAVCCtrl@@@std@@@3@$0A@@std@@@2@@Z
_TEXT	SEGMENT PARA USE32 PUBLIC 'CODE'
_TEXT	ENDS
;	COMDAT ?compare@?$char_traits@D@std@@SAHPBD0I@Z
_TEXT	SEGMENT PARA USE32 PUBLIC 'CODE'
_TEXT	ENDS
;	COMDAT ??Diterator@?$_Tree@V?$_Tmap_traits@KPAVCCtrl@@U?$less@K@std@@V?$allocator@U?$pair@$$CBKPAVCCtrl@@@std@@@3@$0A@@std@@@std@@QBEAAU?$pair@$$CBKPAVCCtrl@@@2@XZ
_TEXT	SEGMENT PARA USE32 PUBLIC 'CODE'
_TEXT	ENDS
;	COMDAT ??Dconst_iterator@?$_Tree@V?$_Tmap_traits@KPAVCCtrl@@U?$less@K@std@@V?$allocator@U?$pair@$$CBKPAVCCtrl@@@std@@@3@$0A@@std@@@std@@QBEABU?$pair@$$CBKPAVCCtrl@@@2@XZ
_TEXT	SEGMENT PARA USE32 PUBLIC 'CODE'
_TEXT	ENDS
;	COMDAT ?_Myval@?$_Tree@V?$_Tmap_traits@KPAVCCtrl@@U?$less@K@std@@V?$allocator@U?$pair@$$CBKPAVCCtrl@@@std@@@3@$0A@@std@@@std@@KAAAU?$pair@$$CBKPAVCCtrl@@@2@PAU_Node@?$_Tree_nod@V?$_Tmap_traits@KPAVCCtrl@@U?$less@K@std@@V?$allocator@U?$pair@$$CBKPAVCCtrl@@@std@@@3@$0A@@std@@@2@@Z
_TEXT	SEGMENT PARA USE32 PUBLIC 'CODE'
_TEXT	ENDS
;	COMDAT ?_Mynode@const_iterator@?$_Tree@V?$_Tmap_traits@KPAVCCtrl@@U?$less@K@std@@V?$allocator@U?$pair@$$CBKPAVCCtrl@@@std@@@3@$0A@@std@@@std@@QBEPAU_Node@?$_Tree_nod@V?$_Tmap_traits@KPAVCCtrl@@U?$less@K@std@@V?$allocator@U?$pair@$$CBKPAVCCtrl@@@std@@@3@$0A@@std@@@3@XZ
_TEXT	SEGMENT PARA USE32 PUBLIC 'CODE'
_TEXT	ENDS
;	COMDAT ?_Key@?$_Tree@V?$_Tmap_traits@KPAVCCtrl@@U?$less@K@std@@V?$allocator@U?$pair@$$CBKPAVCCtrl@@@std@@@3@$0A@@std@@@std@@KAABKPAU_Node@?$_Tree_nod@V?$_Tmap_traits@KPAVCCtrl@@U?$less@K@std@@V?$allocator@U?$pair@$$CBKPAVCCtrl@@@std@@@3@$0A@@std@@@2@@Z
_TEXT	SEGMENT PARA USE32 PUBLIC 'CODE'
_TEXT	ENDS
;	COMDAT ??R?$less@K@std@@QBE_NABK0@Z
_TEXT	SEGMENT PARA USE32 PUBLIC 'CODE'
_TEXT	ENDS
;	COMDAT ?end@?$_Tree@V?$_Tmap_traits@KPAVCCtrl@@U?$less@K@std@@V?$allocator@U?$pair@$$CBKPAVCCtrl@@@std@@@3@$0A@@std@@@std@@QAE?AViterator@12@XZ
_TEXT	SEGMENT PARA USE32 PUBLIC 'CODE'
_TEXT	ENDS
;	COMDAT ??8const_iterator@?$_Tree@V?$_Tmap_traits@KPAVCCtrl@@U?$less@K@std@@V?$allocator@U?$pair@$$CBKPAVCCtrl@@@std@@@3@$0A@@std@@@std@@QBE_NABV012@@Z
_TEXT	SEGMENT PARA USE32 PUBLIC 'CODE'
_TEXT	ENDS
;	COMDAT ?lower_bound@?$_Tree@V?$_Tmap_traits@KPAVCCtrl@@U?$less@K@std@@V?$allocator@U?$pair@$$CBKPAVCCtrl@@@std@@@3@$0A@@std@@@std@@QAE?AViterator@12@ABK@Z
_TEXT	SEGMENT PARA USE32 PUBLIC 'CODE'
_TEXT	ENDS
;	COMDAT ?_Lbound@?$_Tree@V?$_Tmap_traits@KPAVCCtrl@@U?$less@K@std@@V?$allocator@U?$pair@$$CBKPAVCCtrl@@@std@@@3@$0A@@std@@@std@@IBEPAU_Node@?$_Tree_nod@V?$_Tmap_traits@KPAVCCtrl@@U?$less@K@std@@V?$allocator@U?$pair@$$CBKPAVCCtrl@@@std@@@3@$0A@@std@@@2@ABK@Z
_TEXT	SEGMENT PARA USE32 PUBLIC 'CODE'
_TEXT	ENDS
;	COMDAT ?_Root@?$_Tree@V?$_Tmap_traits@KPAVCCtrl@@U?$less@K@std@@V?$allocator@U?$pair@$$CBKPAVCCtrl@@@std@@@3@$0A@@std@@@std@@IBEAAPAU_Node@?$_Tree_nod@V?$_Tmap_traits@KPAVCCtrl@@U?$less@K@std@@V?$allocator@U?$pair@$$CBKPAVCCtrl@@@std@@@3@$0A@@std@@@2@XZ
_TEXT	SEGMENT PARA USE32 PUBLIC 'CODE'
_TEXT	ENDS
;	COMDAT ?_Myptr@?$basic_string@DU?$char_traits@D@std@@V?$allocator@D@2@@std@@QBEPBDXZ
_TEXT	SEGMENT PARA USE32 PUBLIC 'CODE'
_TEXT	ENDS
;	COMDAT ?size@?$basic_string@DU?$char_traits@D@std@@V?$allocator@D@2@@std@@QBEIXZ
_TEXT	SEGMENT PARA USE32 PUBLIC 'CODE'
_TEXT	ENDS
;	COMDAT ?GetPartyId@CMover@@QAEKXZ
_TEXT	SEGMENT PARA USE32 PUBLIC 'CODE'
_TEXT	ENDS
;	COMDAT ?GetAggro@CMover@@QAEKXZ
_TEXT	SEGMENT PARA USE32 PUBLIC 'CODE'
_TEXT	ENDS
;	COMDAT ?SetAggro@CMover@@QAEXJ@Z
_TEXT	SEGMENT PARA USE32 PUBLIC 'CODE'
_TEXT	ENDS
;	COMDAT ?IsPlayer@CMover@@QAEHXZ
_TEXT	SEGMENT PARA USE32 PUBLIC 'CODE'
_TEXT	ENDS
;	COMDAT ?GetLevel@CMover@@QAEHXZ
_TEXT	SEGMENT PARA USE32 PUBLIC 'CODE'
_TEXT	ENDS
;	COMDAT ?IsChaotic@CMover@@QAEHXZ
_TEXT	SEGMENT PARA USE32 PUBLIC 'CODE'
_TEXT	ENDS
;	COMDAT ?GetNextNode@CObj@@QAEPAV1@XZ
_TEXT	SEGMENT PARA USE32 PUBLIC 'CODE'
_TEXT	ENDS
;	COMDAT ?IsMode@CMover@@QAEHK@Z
_TEXT	SEGMENT PARA USE32 PUBLIC 'CODE'
_TEXT	ENDS
;	COMDAT ?D3DXVec3LengthSq@@YAMPBUD3DXVECTOR3@@@Z
_TEXT	SEGMENT PARA USE32 PUBLIC 'CODE'
_TEXT	ENDS
;	COMDAT ??GD3DXVECTOR3@@QBE?AU0@ABU0@@Z
_TEXT	SEGMENT PARA USE32 PUBLIC 'CODE'
_TEXT	ENDS
;	COMDAT ?IsFly@CMover@@QAEHXZ
_TEXT	SEGMENT PARA USE32 PUBLIC 'CODE'
_TEXT	ENDS
;	COMDAT ?IsFly@CAction@@QAEHXZ
_TEXT	SEGMENT PARA USE32 PUBLIC 'CODE'
_TEXT	ENDS
;	COMDAT ?GetId@CCtrl@@QAEKXZ
_TEXT	SEGMENT PARA USE32 PUBLIC 'CODE'
_TEXT	ENDS
;	COMDAT ?IsLive@CMover@@QAEHXZ
_TEXT	SEGMENT PARA USE32 PUBLIC 'CODE'
_TEXT	ENDS
;	COMDAT ?IsDie@CAction@@QAEHXZ
_TEXT	SEGMENT PARA USE32 PUBLIC 'CODE'
_TEXT	ENDS
;	COMDAT ?GetLayer@CObj@@QAEHXZ
_TEXT	SEGMENT PARA USE32 PUBLIC 'CODE'
_TEXT	ENDS
;	COMDAT ?GetWorld@CObj@@QAEPAVCWorld@@XZ
_TEXT	SEGMENT PARA USE32 PUBLIC 'CODE'
_TEXT	ENDS
;	COMDAT ?IsFlyingNPC@CMover@@QAEHXZ
_TEXT	SEGMENT PARA USE32 PUBLIC 'CODE'
_TEXT	ENDS
;	COMDAT ?GetPos@CObj@@QAE?AUD3DXVECTOR3@@XZ
_TEXT	SEGMENT PARA USE32 PUBLIC 'CODE'
_TEXT	ENDS
;	COMDAT ?GetMover@CAIInterface@@IAEPAVCMover@@XZ
_TEXT	SEGMENT PARA USE32 PUBLIC 'CODE'
_TEXT	ENDS
;	COMDAT ?GetPropA@CMover@@QAEPAUMoverProp@@XZ
_TEXT	SEGMENT PARA USE32 PUBLIC 'CODE'
_TEXT	ENDS
;	COMDAT ?GetMoverProp@CProject@@QAEPAUMoverProp@@H@Z
_TEXT	SEGMENT PARA USE32 PUBLIC 'CODE'
_TEXT	ENDS
;	COMDAT ?LOG_RANGE@@YAXPBDHHH@Z
_TEXT	SEGMENT PARA USE32 PUBLIC 'CODE'
_TEXT	ENDS
;	COMDAT ??_C@_0BM@HMFGHCP@?$CFs?5min?3?$CFd?0?5max?3?$CFd?0?5index?3?$CFd?$AA@
CONST	SEGMENT DWORD USE32 PUBLIC 'CONST'
CONST	ENDS
;	COMDAT ??_C@_0BJ@GKPOBPPI@GetMoverProp?5range_error?$AA@
CONST	SEGMENT DWORD USE32 PUBLIC 'CONST'
CONST	ENDS
;	COMDAT ??_7CAIInterface@@6B@
CONST	SEGMENT DWORD USE32 PUBLIC 'CONST'
CONST	ENDS
;	COMDAT ?erase@?$_Tree@V?$_Tmap_traits@KPAVCCtrl@@U?$less@K@std@@V?$allocator@U?$pair@$$CBKPAVCCtrl@@@std@@@3@$0A@@std@@@std@@QAEIABK@Z
_TEXT	SEGMENT PARA USE32 PUBLIC 'CODE'
_TEXT	ENDS
;	COMDAT ?equal_range@?$_Tree@V?$_Tmap_traits@KPAVCCtrl@@U?$less@K@std@@V?$allocator@U?$pair@$$CBKPAVCCtrl@@@std@@@3@$0A@@std@@@std@@QAE?AU?$pair@Viterator@?$_Tree@V?$_Tmap_traits@KPAVCCtrl@@U?$less@K@std@@V?$allocator@U?$pair@$$CBKPAVCCtrl@@@std@@@3@$0A@@std@@@std@@V123@@2@ABK@Z
_TEXT	SEGMENT PARA USE32 PUBLIC 'CODE'
_TEXT	ENDS
;	COMDAT ??0?$pair@Viterator@?$_Tree@V?$_Tmap_traits@KPAVCCtrl@@U?$less@K@std@@V?$allocator@U?$pair@$$CBKPAVCCtrl@@@std@@@3@$0A@@std@@@std@@V123@@std@@QAE@ABViterator@?$_Tree@V?$_Tmap_traits@KPAVCCtrl@@U?$less@K@std@@V?$allocator@U?$pair@$$CBKPAVCCtrl@@@std@@@3@$0A@@std@@@1@0@Z
_TEXT	SEGMENT PARA USE32 PUBLIC 'CODE'
_TEXT	ENDS
;	COMDAT ?upper_bound@?$_Tree@V?$_Tmap_traits@KPAVCCtrl@@U?$less@K@std@@V?$allocator@U?$pair@$$CBKPAVCCtrl@@@std@@@3@$0A@@std@@@std@@QAE?AViterator@12@ABK@Z
_TEXT	SEGMENT PARA USE32 PUBLIC 'CODE'
_TEXT	ENDS
;	COMDAT ?_Ubound@?$_Tree@V?$_Tmap_traits@KPAVCCtrl@@U?$less@K@std@@V?$allocator@U?$pair@$$CBKPAVCCtrl@@@std@@@3@$0A@@std@@@std@@IBEPAU_Node@?$_Tree_nod@V?$_Tmap_traits@KPAVCCtrl@@U?$less@K@std@@V?$allocator@U?$pair@$$CBKPAVCCtrl@@@std@@@3@$0A@@std@@@2@ABK@Z
_TEXT	SEGMENT PARA USE32 PUBLIC 'CODE'
_TEXT	ENDS
;	COMDAT ??$_Distance@Viterator@?$_Tree@V?$_Tmap_traits@KPAVCCtrl@@U?$less@K@std@@V?$allocator@U?$pair@$$CBKPAVCCtrl@@@std@@@3@$0A@@std@@@std@@I@std@@YAXViterator@?$_Tree@V?$_Tmap_traits@KPAVCCtrl@@U?$less@K@std@@V?$allocator@U?$pair@$$CBKPAVCCtrl@@@std@@@3@$0A@@std@@@0@0AAI@Z
_TEXT	SEGMENT PARA USE32 PUBLIC 'CODE'
_TEXT	ENDS
;	COMDAT ?erase@?$_Tree@V?$_Tmap_traits@KPAVCCtrl@@U?$less@K@std@@V?$allocator@U?$pair@$$CBKPAVCCtrl@@@std@@@3@$0A@@std@@@std@@QAE?AViterator@12@V312@0@Z
_TEXT	SEGMENT PARA USE32 PUBLIC 'CODE'
_TEXT	ENDS
;	COMDAT ?clear@?$_Tree@V?$_Tmap_traits@KPAVCCtrl@@U?$less@K@std@@V?$allocator@U?$pair@$$CBKPAVCCtrl@@@std@@@3@$0A@@std@@@std@@QAEXXZ
_TEXT	SEGMENT PARA USE32 PUBLIC 'CODE'
_TEXT	ENDS
;	COMDAT ?_Erase@?$_Tree@V?$_Tmap_traits@KPAVCCtrl@@U?$less@K@std@@V?$allocator@U?$pair@$$CBKPAVCCtrl@@@std@@@3@$0A@@std@@@std@@IAEXPAU_Node@?$_Tree_nod@V?$_Tmap_traits@KPAVCCtrl@@U?$less@K@std@@V?$allocator@U?$pair@$$CBKPAVCCtrl@@@std@@@3@$0A@@std@@@2@@Z
_TEXT	SEGMENT PARA USE32 PUBLIC 'CODE'
_TEXT	ENDS
;	COMDAT ?destroy@?$allocator@U_Node@?$_Tree_nod@V?$_Tmap_traits@KPAVCCtrl@@U?$less@K@std@@V?$allocator@U?$pair@$$CBKPAVCCtrl@@@std@@@3@$0A@@std@@@std@@@std@@QAEXPAU_Node@?$_Tree_nod@V?$_Tmap_traits@KPAVCCtrl@@U?$less@K@std@@V?$allocator@U?$pair@$$CBKPAVCCtrl@@@std@@@3@$0A@@std@@@2@@Z
_TEXT	SEGMENT PARA USE32 PUBLIC 'CODE'
_TEXT	ENDS
;	COMDAT ??$_Destroy@U_Node@?$_Tree_nod@V?$_Tmap_traits@KPAVCCtrl@@U?$less@K@std@@V?$allocator@U?$pair@$$CBKPAVCCtrl@@@std@@@3@$0A@@std@@@std@@@std@@YAXPAU_Node@?$_Tree_nod@V?$_Tmap_traits@KPAVCCtrl@@U?$less@K@std@@V?$allocator@U?$pair@$$CBKPAVCCtrl@@@std@@@3@$0A@@std@@@0@@Z
_TEXT	SEGMENT PARA USE32 PUBLIC 'CODE'
_TEXT	ENDS
;	COMDAT ?erase@?$_Tree@V?$_Tmap_traits@KPAVCCtrl@@U?$less@K@std@@V?$allocator@U?$pair@$$CBKPAVCCtrl@@@std@@@3@$0A@@std@@@std@@QAE?AViterator@12@V312@@Z
_TEXT	SEGMENT PARA USE32 PUBLIC 'CODE'
_TEXT	ENDS
;	COMDAT ??Eiterator@?$_Tree@V?$_Tmap_traits@KPAVCCtrl@@U?$less@K@std@@V?$allocator@U?$pair@$$CBKPAVCCtrl@@@std@@@3@$0A@@std@@@std@@QAE?AV012@H@Z
_TEXT	SEGMENT PARA USE32 PUBLIC 'CODE'
_TEXT	ENDS
;	COMDAT ??5@YAAAVCAr@@AAV0@AAUD3DXVECTOR3@@@Z
_TEXT	SEGMENT PARA USE32 PUBLIC 'CODE'
_TEXT	ENDS
;	COMDAT ??5CAr@@QAEAAV0@AAM@Z
_TEXT	SEGMENT PARA USE32 PUBLIC 'CODE'
_TEXT	ENDS
;	COMDAT ??5CAr@@QAEAAV0@AAJ@Z
_TEXT	SEGMENT PARA USE32 PUBLIC 'CODE'
_TEXT	ENDS
;	COMDAT ?time_null@@YAJXZ
_TEXT	SEGMENT PARA USE32 PUBLIC 'CODE'
_TEXT	ENDS
;	COMDAT ??6CAr@@QAEAAV0@J@Z
_TEXT	SEGMENT PARA USE32 PUBLIC 'CODE'
_TEXT	ENDS
;	COMDAT ??6@YAAAVCAr@@AAV0@UD3DXVECTOR3@@@Z
_TEXT	SEGMENT PARA USE32 PUBLIC 'CODE'
_TEXT	ENDS
;	COMDAT ??6CAr@@QAEAAV0@M@Z
_TEXT	SEGMENT PARA USE32 PUBLIC 'CODE'
_TEXT	ENDS
;	COMDAT ??1?$basic_string@DU?$char_traits@D@std@@V?$allocator@D@2@@std@@QAE@XZ
_TEXT	SEGMENT PARA USE32 PUBLIC 'CODE'
_TEXT	ENDS
;	COMDAT ??0?$basic_string@DU?$char_traits@D@std@@V?$allocator@D@2@@std@@QAE@PBD@Z
_TEXT	SEGMENT PARA USE32 PUBLIC 'CODE'
_TEXT	ENDS
;	COMDAT ??0?$allocator@D@std@@QAE@XZ
_TEXT	SEGMENT PARA USE32 PUBLIC 'CODE'
_TEXT	ENDS
;	COMDAT ?assign@?$basic_string@DU?$char_traits@D@std@@V?$allocator@D@2@@std@@QAEAAV12@PBD@Z
_TEXT	SEGMENT PARA USE32 PUBLIC 'CODE'
_TEXT	ENDS
;	COMDAT ?assign@?$basic_string@DU?$char_traits@D@std@@V?$allocator@D@2@@std@@QAEAAV12@PBDI@Z
_TEXT	SEGMENT PARA USE32 PUBLIC 'CODE'
_TEXT	ENDS
;	COMDAT ?_Inside@?$basic_string@DU?$char_traits@D@std@@V?$allocator@D@2@@std@@IAE_NPBD@Z
_TEXT	SEGMENT PARA USE32 PUBLIC 'CODE'
_TEXT	ENDS
;	COMDAT ?length@?$char_traits@D@std@@SAIPBD@Z
_TEXT	SEGMENT PARA USE32 PUBLIC 'CODE'
_TEXT	ENDS
;	COMDAT ?c_str@?$basic_string@DU?$char_traits@D@std@@V?$allocator@D@2@@std@@QBEPBDXZ
_TEXT	SEGMENT PARA USE32 PUBLIC 'CODE'
_TEXT	ENDS
;	COMDAT ??6CAr@@QAEAAV0@I@Z
_TEXT	SEGMENT PARA USE32 PUBLIC 'CODE'
_TEXT	ENDS
;	COMDAT ??_7__MINIGAME_EXT_PACKET@@6B@
CONST	SEGMENT DWORD USE32 PUBLIC 'CONST'
CONST	ENDS
;	COMDAT ??5CAr@@QAEAAV0@AAG@Z
_TEXT	SEGMENT PARA USE32 PUBLIC 'CODE'
_TEXT	ENDS
;	COMDAT ??5CAr@@QAEAAV0@AAH@Z
_TEXT	SEGMENT PARA USE32 PUBLIC 'CODE'
_TEXT	ENDS
;	COMDAT ??6CAr@@QAEAAV0@G@Z
_TEXT	SEGMENT PARA USE32 PUBLIC 'CODE'
_TEXT	ENDS
;	COMDAT ??6CAr@@QAEAAV0@H@Z
_TEXT	SEGMENT PARA USE32 PUBLIC 'CODE'
_TEXT	ENDS
;	COMDAT ??_7__MINIGAME_PACKET@@6B@
CONST	SEGMENT DWORD USE32 PUBLIC 'CONST'
CONST	ENDS
;	COMDAT ??1?$vector@KV?$allocator@K@std@@@std@@QAE@XZ
_TEXT	SEGMENT PARA USE32 PUBLIC 'CODE'
_TEXT	ENDS
;	COMDAT ?_Tidy@?$vector@KV?$allocator@K@std@@@std@@IAEXXZ
_TEXT	SEGMENT PARA USE32 PUBLIC 'CODE'
_TEXT	ENDS
;	COMDAT ?_Destroy@?$vector@KV?$allocator@K@std@@@std@@IAEXPAK0@Z
_TEXT	SEGMENT PARA USE32 PUBLIC 'CODE'
_TEXT	ENDS
;	COMDAT ??$_Destroy_range@KV?$allocator@K@std@@@std@@YAXPAK0AAV?$allocator@K@0@@Z
_TEXT	SEGMENT PARA USE32 PUBLIC 'CODE'
_TEXT	ENDS
;	COMDAT ?_Ptr_cat@std@@YA?AU_Scalar_ptr_iterator_tag@1@PAK0@Z
_TEXT	SEGMENT PARA USE32 PUBLIC 'CODE'
_TEXT	ENDS
;	COMDAT ?deallocate@?$allocator@K@std@@QAEXPAKI@Z
_TEXT	SEGMENT PARA USE32 PUBLIC 'CODE'
_TEXT	ENDS
;	COMDAT ??0?$vector@KV?$allocator@K@std@@@std@@QAE@XZ
_TEXT	SEGMENT PARA USE32 PUBLIC 'CODE'
_TEXT	ENDS
;	COMDAT ??0?$_Vector_val@KV?$allocator@K@std@@@std@@IAE@V?$allocator@K@1@@Z
_TEXT	SEGMENT PARA USE32 PUBLIC 'CODE'
_TEXT	ENDS
;	COMDAT ??0?$allocator@K@std@@QAE@ABV01@@Z
_TEXT	SEGMENT PARA USE32 PUBLIC 'CODE'
_TEXT	ENDS
;	COMDAT ??0?$allocator@K@std@@QAE@XZ
_TEXT	SEGMENT PARA USE32 PUBLIC 'CODE'
_TEXT	ENDS
;	COMDAT ?_Buy@?$vector@KV?$allocator@K@std@@@std@@IAE_NI@Z
_TEXT	SEGMENT PARA USE32 PUBLIC 'CODE'
_TEXT	ENDS
;	COMDAT ?max_size@?$vector@KV?$allocator@K@std@@@std@@QBEIXZ
_TEXT	SEGMENT PARA USE32 PUBLIC 'CODE'
_TEXT	ENDS
;	COMDAT ?max_size@?$allocator@K@std@@QBEIXZ
_TEXT	SEGMENT PARA USE32 PUBLIC 'CODE'
_TEXT	ENDS
;	COMDAT ?_Xlen@?$vector@KV?$allocator@K@std@@@std@@IBEXXZ
_TEXT	SEGMENT PARA USE32 PUBLIC 'CODE'
_TEXT	ENDS
;	COMDAT ?allocate@?$allocator@K@std@@QAEPAKI@Z
_TEXT	SEGMENT PARA USE32 PUBLIC 'CODE'
_TEXT	ENDS
;	COMDAT ??$_Allocate@K@std@@YAPAKIPAK@Z
_TEXT	SEGMENT PARA USE32 PUBLIC 'CODE'
_TEXT	ENDS
;	COMDAT ??5CAr@@QAEAAV0@AAK@Z
_TEXT	SEGMENT PARA USE32 PUBLIC 'CODE'
_TEXT	ENDS
;	COMDAT ??6CAr@@QAEAAV0@K@Z
_TEXT	SEGMENT PARA USE32 PUBLIC 'CODE'
_TEXT	ENDS
;	COMDAT ?IsStoring@CAr@@QBEHXZ
_TEXT	SEGMENT PARA USE32 PUBLIC 'CODE'
_TEXT	ENDS
;	COMDAT ??0D3DXVECTOR3@@QAE@MMM@Z
_TEXT	SEGMENT PARA USE32 PUBLIC 'CODE'
_TEXT	ENDS
;	COMDAT ?GetTickCount@CTime@ATL@@SG?AV12@XZ
_TEXT	SEGMENT PARA USE32 PUBLIC 'CODE'
_TEXT	ENDS
;	COMDAT ??0CTime@ATL@@QAE@_J@Z
_TEXT	SEGMENT PARA USE32 PUBLIC 'CODE'
_TEXT	ENDS
;	COMDAT ??0D3DXVECTOR3@@QAE@XZ
_TEXT	SEGMENT PARA USE32 PUBLIC 'CODE'
_TEXT	ENDS
;	COMDAT ??0CTime@ATL@@QAE@XZ
_TEXT	SEGMENT PARA USE32 PUBLIC 'CODE'
_TEXT	ENDS
sxdata	SEGMENT DWORD USE32 'SXDATA'
sxdata	ENDS
FLAT	GROUP _DATA, CONST, _BSS
	ASSUME	CS: FLAT, DS: FLAT, SS: FLAT
endif

INCLUDELIB LIBCMT
INCLUDELIB OLDNAMES

PUBLIC	?stateMap@CAIInterface@@2USTATEMAP@@B		; CAIInterface::stateMap
CONST	SEGMENT
?stateMap@CAIInterface@@2USTATEMAP@@B DD FLAT:?stateMap@CAIInterface@@2USTATEMAP@@B ; CAIInterface::stateMap
	DD	FLAT:?stateMapEntries@CAIInterface@@2QBUSTATEMAP_ENTRIES@@B
CONST	ENDS
PUBLIC	??2@YAPAXIPAX@Z					; operator new
; Function compile flags: /Ogty
; File c:\program files\microsoft visual studio .net 2003\vc7\include\new.h
;	COMDAT ??2@YAPAXIPAX@Z
_TEXT	SEGMENT
___formal$ = 8						; size = 4
__P$ = 12						; size = 4
??2@YAPAXIPAX@Z PROC NEAR				; operator new, COMDAT

; 109  :         {return (_P); }

  00000	8b 44 24 08	 mov	 eax, DWORD PTR __P$[esp-4]
  00004	c3		 ret	 0
??2@YAPAXIPAX@Z ENDP					; operator new
_TEXT	ENDS
PUBLIC	?GetStateMap@CAIInterface@@UBEPBUSTATEMAP@@XZ	; CAIInterface::GetStateMap
; Function compile flags: /Ogty
; File c:\documents and settings\test\mes documents\source\virtuos_v17\build\program\_aiinterface\aiinterface.cpp
;	COMDAT ?GetStateMap@CAIInterface@@UBEPBUSTATEMAP@@XZ
_TEXT	SEGMENT
?GetStateMap@CAIInterface@@UBEPBUSTATEMAP@@XZ PROC NEAR	; CAIInterface::GetStateMap, COMDAT
; _this$ = ecx

; 15   : BEGIN_AISTATE_MAP( CAIInterface, CAIInterface )

  00000	b8 00 00 00 00	 mov	 eax, OFFSET FLAT:?stateMap@CAIInterface@@2USTATEMAP@@B ; CAIInterface::stateMap
  00005	c3		 ret	 0
?GetStateMap@CAIInterface@@UBEPBUSTATEMAP@@XZ ENDP	; CAIInterface::GetStateMap
_TEXT	ENDS
PUBLIC	?GetAIStateFunc@CAIInterface@@AAEP81@AEHABUAIMSG@@@ZK@Z ; CAIInterface::GetAIStateFunc
; Function compile flags: /Ogty
;	COMDAT ?GetAIStateFunc@CAIInterface@@AAEP81@AEHABUAIMSG@@@ZK@Z
_TEXT	SEGMENT
$T257079 = 8						; size = 4
_dwState$ = 12						; size = 4
?GetAIStateFunc@CAIInterface@@AAEP81@AEHABUAIMSG@@@ZK@Z PROC NEAR ; CAIInterface::GetAIStateFunc, COMDAT
; _this$ = ecx

; 43   : 	const STATEMAP* lpCurrentStateMap = GetStateMap();

  00000	8b 01		 mov	 eax, DWORD PTR [ecx]
  00002	53		 push	 ebx
  00003	56		 push	 esi
  00004	57		 push	 edi
  00005	ff 10		 call	 DWORD PTR [eax]

; 44   : 	const STATEMAP_ENTRIES* lpEntries = lpCurrentStateMap->lpStateMapEntries;

  00007	8b 50 04	 mov	 edx, DWORD PTR [eax+4]

; 45   : 	//     . 
; 46   : 	while( lpCurrentStateMap->lpBaseStateMap->lpStateMapEntries != lpEntries )

  0000a	8b 30		 mov	 esi, DWORD PTR [eax]
  0000c	39 56 04	 cmp	 DWORD PTR [esi+4], edx
  0000f	74 29		 je	 SHORT $L251800
  00011	8b 7c 24 14	 mov	 edi, DWORD PTR _dwState$[esp+8]
$L251799:

; 47   : 	{
; 48   : 		int i = 0;

  00015	33 c9		 xor	 ecx, ecx
  00017	8d 42 08	 lea	 eax, DWORD PTR [edx+8]
  0001a	8d 9b 00 00 00
	00		 npad	 6
$L251803:

; 49   : 		while(  lpEntries[ i ].pStateFunc )

  00020	83 38 00	 cmp	 DWORD PTR [eax], 0
  00023	74 0b		 je	 SHORT $L257091

; 50   : 		{
; 51   : 			if( lpEntries[ i ].dwAIStateId == dwState )

  00025	39 78 f8	 cmp	 DWORD PTR [eax-8], edi
  00028	74 30		 je	 SHORT $L257088

; 54   : 			}
; 55   : 			i++;

  0002a	41		 inc	 ecx
  0002b	83 c0 18	 add	 eax, 24			; 00000018H

; 56   : 		}

  0002e	eb f0		 jmp	 SHORT $L251803
$L257091:

; 57   : 		//  !    .
; 58   : 		lpCurrentStateMap = lpCurrentStateMap->lpBaseStateMap;
; 59   : 		lpEntries = lpCurrentStateMap->lpStateMapEntries;

  00030	8b 56 04	 mov	 edx, DWORD PTR [esi+4]
  00033	8b 36		 mov	 esi, DWORD PTR [esi]
  00035	39 56 04	 cmp	 DWORD PTR [esi+4], edx
  00038	75 db		 jne	 SHORT $L251799
$L251800:

; 60   : 	}
; 61   : 	return NULL;

  0003a	8b 44 24 10	 mov	 eax, DWORD PTR $T257079[esp+8]
  0003e	33 c9		 xor	 ecx, ecx
  00040	8b d8		 mov	 ebx, eax
  00042	89 0b		 mov	 DWORD PTR [ebx], ecx
  00044	33 d2		 xor	 edx, edx
  00046	33 f6		 xor	 esi, esi
  00048	89 53 04	 mov	 DWORD PTR [ebx+4], edx
  0004b	89 73 08	 mov	 DWORD PTR [ebx+8], esi
  0004e	83 cf ff	 or	 edi, -1
  00051	89 7b 0c	 mov	 DWORD PTR [ebx+12], edi
  00054	5f		 pop	 edi
  00055	5e		 pop	 esi
  00056	5b		 pop	 ebx

; 62   : }

  00057	c2 08 00	 ret	 8
$L257088:

; 52   : 			{
; 53   : 				return lpEntries[ i ].pStateFunc;

  0005a	8b 44 24 10	 mov	 eax, DWORD PTR $T257079[esp+8]
  0005e	8d 0c 49	 lea	 ecx, DWORD PTR [ecx+ecx*2]
  00061	8d 54 ca 08	 lea	 edx, DWORD PTR [edx+ecx*8+8]
  00065	8b 32		 mov	 esi, DWORD PTR [edx]
  00067	8b c8		 mov	 ecx, eax
  00069	89 31		 mov	 DWORD PTR [ecx], esi
  0006b	8b 72 04	 mov	 esi, DWORD PTR [edx+4]
  0006e	89 71 04	 mov	 DWORD PTR [ecx+4], esi
  00071	8b 72 08	 mov	 esi, DWORD PTR [edx+8]
  00074	89 71 08	 mov	 DWORD PTR [ecx+8], esi
  00077	8b 52 0c	 mov	 edx, DWORD PTR [edx+12]
  0007a	5f		 pop	 edi
  0007b	5e		 pop	 esi
  0007c	89 51 0c	 mov	 DWORD PTR [ecx+12], edx
  0007f	5b		 pop	 ebx

; 62   : }

  00080	c2 08 00	 ret	 8
?GetAIStateFunc@CAIInterface@@AAEP81@AEHABUAIMSG@@@ZK@Z ENDP ; CAIInterface::GetAIStateFunc
_TEXT	ENDS
PUBLIC	?SendAIMsg@CAIInterface@@UAEXKKKK@Z		; CAIInterface::SendAIMsg
; Function compile flags: /Ogty
;	COMDAT ?SendAIMsg@CAIInterface@@UAEXKKKK@Z
_TEXT	SEGMENT
_msg$ = -32						; size = 16
$T257095 = -16						; size = 16
_dwMessage$ = 8						; size = 4
_dwParam1$ = 12						; size = 4
_dwParam2$ = 16						; size = 4
_dwParam3$ = 20						; size = 4
?SendAIMsg@CAIInterface@@UAEXKKKK@Z PROC NEAR		; CAIInterface::SendAIMsg, COMDAT
; _this$ = ecx

; 97   : {

  00000	83 ec 20	 sub	 esp, 32			; 00000020H

; 98   : 	AIMSG msg;
; 99   : 	msg.dwMessage	= dwMessage;
; 100  : 	msg.dwParam1	= dwParam1;
; 101  : 	msg.dwParam2	= dwParam2;

  00003	8b 54 24 2c	 mov	 edx, DWORD PTR _dwParam2$[esp+28]
  00007	8b 44 24 24	 mov	 eax, DWORD PTR _dwMessage$[esp+28]

; 102  : #ifdef __INSTANCE_AGGRO_SYSTEM
; 103  : 	msg.dwParam3	= dwParam3;
; 104  : #endif // __INSTANCE_AGGRO_SYSTEM
; 105  : 	if( dwMessage == AIMSG_SETSTATE )

  0000b	83 f8 04	 cmp	 eax, 4
  0000e	56		 push	 esi
  0000f	8b f1		 mov	 esi, ecx
  00011	8b 4c 24 2c	 mov	 ecx, DWORD PTR _dwParam1$[esp+32]
  00015	89 54 24 0c	 mov	 DWORD PTR _msg$[esp+44], edx
  00019	8b 54 24 34	 mov	 edx, DWORD PTR _dwParam3$[esp+32]
  0001d	89 44 24 04	 mov	 DWORD PTR _msg$[esp+36], eax
  00021	89 4c 24 08	 mov	 DWORD PTR _msg$[esp+40], ecx
  00025	89 54 24 10	 mov	 DWORD PTR _msg$[esp+48], edx
  00029	75 2e		 jne	 SHORT $L251828

; 106  : 	{
; 107  : 		msg.dwMessage	= AIMSG_INIT;
; 108  : 		m_pStateFunc	= GetAIStateFunc( dwParam1 );

  0002b	51		 push	 ecx
  0002c	8d 44 24 18	 lea	 eax, DWORD PTR $T257095[esp+40]
  00030	50		 push	 eax
  00031	8b ce		 mov	 ecx, esi
  00033	c7 44 24 0c 01
	00 00 00	 mov	 DWORD PTR _msg$[esp+44], 1
  0003b	e8 00 00 00 00	 call	 ?GetAIStateFunc@CAIInterface@@AAEP81@AEHABUAIMSG@@@ZK@Z ; CAIInterface::GetAIStateFunc
  00040	8b 10		 mov	 edx, DWORD PTR [eax]
  00042	8d 4e 20	 lea	 ecx, DWORD PTR [esi+32]
  00045	89 11		 mov	 DWORD PTR [ecx], edx
  00047	8b 50 04	 mov	 edx, DWORD PTR [eax+4]
  0004a	89 51 04	 mov	 DWORD PTR [ecx+4], edx
  0004d	8b 50 08	 mov	 edx, DWORD PTR [eax+8]
  00050	89 51 08	 mov	 DWORD PTR [ecx+8], edx
  00053	8b 40 0c	 mov	 eax, DWORD PTR [eax+12]
  00056	89 41 0c	 mov	 DWORD PTR [ecx+12], eax
$L251828:

; 109  : 	}
; 110  : 	if( m_pStateFunc )

  00059	8b 46 20	 mov	 eax, DWORD PTR [esi+32]
  0005c	85 c0		 test	 eax, eax
  0005e	74 0c		 je	 SHORT $L251829

; 111  : 		( this->*( m_pStateFunc ) ) ( msg );

  00060	8d 4c 24 04	 lea	 ecx, DWORD PTR _msg$[esp+36]
  00064	51		 push	 ecx
  00065	8b 4e 24	 mov	 ecx, DWORD PTR [esi+36]
  00068	03 ce		 add	 ecx, esi
  0006a	ff d0		 call	 eax
$L251829:
  0006c	5e		 pop	 esi

; 112  : }

  0006d	83 c4 20	 add	 esp, 32			; 00000020H
  00070	c2 10 00	 ret	 16			; 00000010H
?SendAIMsg@CAIInterface@@UAEXKKKK@Z ENDP		; CAIInterface::SendAIMsg
_TEXT	ENDS
PUBLIC	?IsState@CAIInterface@@UAEHH@Z			; CAIInterface::IsState
; Function compile flags: /Ogty
;	COMDAT ?IsState@CAIInterface@@UAEHH@Z
_TEXT	SEGMENT
$T257106 = -16						; size = 16
_nState$ = 8						; size = 4
?IsState@CAIInterface@@UAEHH@Z PROC NEAR		; CAIInterface::IsState, COMDAT
; _this$ = ecx

; 469  : 	if( m_pStateFunc == GetAIStateFunc( nState ) )

  00000	8b 44 24 04	 mov	 eax, DWORD PTR _nState$[esp-4]
  00004	83 ec 10	 sub	 esp, 16			; 00000010H
  00007	53		 push	 ebx
  00008	56		 push	 esi
  00009	57		 push	 edi
  0000a	8b f1		 mov	 esi, ecx
  0000c	50		 push	 eax
  0000d	8d 4c 24 10	 lea	 ecx, DWORD PTR $T257106[esp+32]
  00011	51		 push	 ecx
  00012	8b ce		 mov	 ecx, esi
  00014	e8 00 00 00 00	 call	 ?GetAIStateFunc@CAIInterface@@AAEP81@AEHABUAIMSG@@@ZK@Z ; CAIInterface::GetAIStateFunc
  00019	8b 10		 mov	 edx, DWORD PTR [eax]
  0001b	8b 4e 20	 mov	 ecx, DWORD PTR [esi+32]
  0001e	3b ca		 cmp	 ecx, edx
  00020	8b 78 04	 mov	 edi, DWORD PTR [eax+4]
  00023	8b 58 08	 mov	 ebx, DWORD PTR [eax+8]
  00026	8b 40 0c	 mov	 eax, DWORD PTR [eax+12]
  00029	75 21		 jne	 SHORT $L252325
  0002b	85 c9		 test	 ecx, ecx
  0002d	74 0f		 je	 SHORT $L257111
  0002f	39 7e 24	 cmp	 DWORD PTR [esi+36], edi
  00032	75 18		 jne	 SHORT $L252325
  00034	39 5e 28	 cmp	 DWORD PTR [esi+40], ebx
  00037	75 13		 jne	 SHORT $L252325
  00039	39 46 2c	 cmp	 DWORD PTR [esi+44], eax
  0003c	75 0e		 jne	 SHORT $L252325
$L257111:
  0003e	5f		 pop	 edi
  0003f	5e		 pop	 esi

; 470  : 		return TRUE;

  00040	b8 01 00 00 00	 mov	 eax, 1
  00045	5b		 pop	 ebx

; 472  : }

  00046	83 c4 10	 add	 esp, 16			; 00000010H
  00049	c2 04 00	 ret	 4
$L252325:
  0004c	5f		 pop	 edi
  0004d	5e		 pop	 esi

; 471  : 	return FALSE;

  0004e	33 c0		 xor	 eax, eax
  00050	5b		 pop	 ebx

; 472  : }

  00051	83 c4 10	 add	 esp, 16			; 00000010H
  00054	c2 04 00	 ret	 4
?IsState@CAIInterface@@UAEHH@Z ENDP			; CAIInterface::IsState
_TEXT	ENDS
PUBLIC	?empty@?$deque@UAIMSG@@V?$allocator@UAIMSG@@@std@@@std@@QBE_NXZ ; std::deque<AIMSG,std::allocator<AIMSG> >::empty
; Function compile flags: /Ogty
; File c:\program files\microsoft visual studio .net 2003\vc7\include\deque
;	COMDAT ?empty@?$deque@UAIMSG@@V?$allocator@UAIMSG@@@std@@@std@@QBE_NXZ
_TEXT	SEGMENT
?empty@?$deque@UAIMSG@@V?$allocator@UAIMSG@@@std@@@std@@QBE_NXZ PROC NEAR ; std::deque<AIMSG,std::allocator<AIMSG> >::empty, COMDAT
; _this$ = ecx

; 502  : 		return (_Mysize == 0);

  00000	8b 51 10	 mov	 edx, DWORD PTR [ecx+16]
  00003	33 c0		 xor	 eax, eax
  00005	85 d2		 test	 edx, edx
  00007	0f 94 c0	 sete	 al

; 503  : 		}

  0000a	c3		 ret	 0
?empty@?$deque@UAIMSG@@V?$allocator@UAIMSG@@@std@@@std@@QBE_NXZ ENDP ; std::deque<AIMSG,std::allocator<AIMSG> >::empty
_TEXT	ENDS
PUBLIC	??0?$allocator@UAIMSG@@@std@@QAE@XZ		; std::allocator<AIMSG>::allocator<AIMSG>
; Function compile flags: /Ogty
; File c:\program files\microsoft visual studio .net 2003\vc7\include\xmemory
;	COMDAT ??0?$allocator@UAIMSG@@@std@@QAE@XZ
_TEXT	SEGMENT
??0?$allocator@UAIMSG@@@std@@QAE@XZ PROC NEAR		; std::allocator<AIMSG>::allocator<AIMSG>, COMDAT
; _this$ = ecx

; 111  : 	allocator()

  00000	8b c1		 mov	 eax, ecx

; 112  : 		{	// construct default allocator (do nothing)
; 113  : 		}

  00002	c3		 ret	 0
??0?$allocator@UAIMSG@@@std@@QAE@XZ ENDP		; std::allocator<AIMSG>::allocator<AIMSG>
_TEXT	ENDS
PUBLIC	?deallocate@?$allocator@UAIMSG@@@std@@QAEXPAUAIMSG@@I@Z ; std::allocator<AIMSG>::deallocate
EXTRN	??3@YAXPAX@Z:NEAR				; operator delete
; Function compile flags: /Ogty
;	COMDAT ?deallocate@?$allocator@UAIMSG@@@std@@QAEXPAUAIMSG@@I@Z
_TEXT	SEGMENT
__Ptr$ = 8						; size = 4
___formal$ = 12						; size = 4
?deallocate@?$allocator@UAIMSG@@@std@@QAEXPAUAIMSG@@I@Z PROC NEAR ; std::allocator<AIMSG>::deallocate, COMDAT
; _this$ = ecx

; 132  : 		operator delete(_Ptr);

  00000	8b 44 24 04	 mov	 eax, DWORD PTR __Ptr$[esp-4]
  00004	50		 push	 eax
  00005	e8 00 00 00 00	 call	 ??3@YAXPAX@Z		; operator delete
  0000a	59		 pop	 ecx

; 133  : 		}

  0000b	c2 08 00	 ret	 8
?deallocate@?$allocator@UAIMSG@@@std@@QAEXPAUAIMSG@@I@Z ENDP ; std::allocator<AIMSG>::deallocate
_TEXT	ENDS
PUBLIC	?deallocate@?$allocator@PAUAIMSG@@@std@@QAEXPAPAUAIMSG@@I@Z ; std::allocator<AIMSG *>::deallocate
; Function compile flags: /Ogty
;	COMDAT ?deallocate@?$allocator@PAUAIMSG@@@std@@QAEXPAPAUAIMSG@@I@Z
_TEXT	SEGMENT
__Ptr$ = 8						; size = 4
___formal$ = 12						; size = 4
?deallocate@?$allocator@PAUAIMSG@@@std@@QAEXPAPAUAIMSG@@I@Z PROC NEAR ; std::allocator<AIMSG *>::deallocate, COMDAT
; _this$ = ecx

; 132  : 		operator delete(_Ptr);

  00000	8b 44 24 04	 mov	 eax, DWORD PTR __Ptr$[esp-4]
  00004	50		 push	 eax
  00005	e8 00 00 00 00	 call	 ??3@YAXPAX@Z		; operator delete
  0000a	59		 pop	 ecx

; 133  : 		}

  0000b	c2 08 00	 ret	 8
?deallocate@?$allocator@PAUAIMSG@@@std@@QAEXPAPAUAIMSG@@I@Z ENDP ; std::allocator<AIMSG *>::deallocate
_TEXT	ENDS
PUBLIC	??0?$allocator@UAIMSG@@@std@@QAE@ABV01@@Z	; std::allocator<AIMSG>::allocator<AIMSG>
; Function compile flags: /Ogty
;	COMDAT ??0?$allocator@UAIMSG@@@std@@QAE@ABV01@@Z
_TEXT	SEGMENT
___formal$ = 8						; size = 4
??0?$allocator@UAIMSG@@@std@@QAE@ABV01@@Z PROC NEAR	; std::allocator<AIMSG>::allocator<AIMSG>, COMDAT
; _this$ = ecx

; 115  : 	allocator(const allocator<_Ty>&)

  00000	8b c1		 mov	 eax, ecx

; 116  : 		{	// construct by copying (do nothing)
; 117  : 		}

  00002	c2 04 00	 ret	 4
??0?$allocator@UAIMSG@@@std@@QAE@ABV01@@Z ENDP		; std::allocator<AIMSG>::allocator<AIMSG>
_TEXT	ENDS
PUBLIC	??Dconst_iterator@?$deque@UAIMSG@@V?$allocator@UAIMSG@@@std@@@std@@QBEABUAIMSG@@XZ ; std::deque<AIMSG,std::allocator<AIMSG> >::const_iterator::operator*
; Function compile flags: /Ogty
; File c:\program files\microsoft visual studio .net 2003\vc7\include\deque
;	COMDAT ??Dconst_iterator@?$deque@UAIMSG@@V?$allocator@UAIMSG@@@std@@@std@@QBEABUAIMSG@@XZ
_TEXT	SEGMENT
??Dconst_iterator@?$deque@UAIMSG@@V?$allocator@UAIMSG@@@std@@@std@@QBEABUAIMSG@@XZ PROC NEAR ; std::deque<AIMSG,std::allocator<AIMSG> >::const_iterator::operator*, COMDAT
; _this$ = ecx

; 109  : 			size_type _Block = _Myoff / _DEQUESIZ;

  00000	8b 51 04	 mov	 edx, DWORD PTR [ecx+4]

; 110  : 			size_type _Off = _Myoff - _Block * _DEQUESIZ;
; 111  : 			if (_Mycont->_Mapsize <= _Block)

  00003	8b 09		 mov	 ecx, DWORD PTR [ecx]
  00005	56		 push	 esi
  00006	8b 71 08	 mov	 esi, DWORD PTR [ecx+8]
  00009	8b c2		 mov	 eax, edx
  0000b	2b c2		 sub	 eax, edx
  0000d	3b f2		 cmp	 esi, edx
  0000f	77 02		 ja	 SHORT $L254609

; 112  : 				_Block -= _Mycont->_Mapsize;

  00011	2b d6		 sub	 edx, esi
$L254609:

; 113  : 			return ((_Mycont->_Map)[_Block][_Off]);

  00013	8b 49 04	 mov	 ecx, DWORD PTR [ecx+4]
  00016	8b 34 91	 mov	 esi, DWORD PTR [ecx+edx*4]
  00019	c1 e0 04	 shl	 eax, 4
  0001c	03 c6		 add	 eax, esi
  0001e	5e		 pop	 esi

; 114  : 			}

  0001f	c3		 ret	 0
??Dconst_iterator@?$deque@UAIMSG@@V?$allocator@UAIMSG@@@std@@@std@@QBEABUAIMSG@@XZ ENDP ; std::deque<AIMSG,std::allocator<AIMSG> >::const_iterator::operator*
_TEXT	ENDS
PUBLIC	?max_size@?$allocator@UAIMSG@@@std@@QBEIXZ	; std::allocator<AIMSG>::max_size
; Function compile flags: /Ogty
; File c:\program files\microsoft visual studio .net 2003\vc7\include\xmemory
;	COMDAT ?max_size@?$allocator@UAIMSG@@@std@@QBEIXZ
_TEXT	SEGMENT
?max_size@?$allocator@UAIMSG@@@std@@QBEIXZ PROC NEAR	; std::allocator<AIMSG>::max_size, COMDAT
; _this$ = ecx

; 157  : 		_SIZT _Count = (_SIZT)(-1) / sizeof (_Ty);
; 158  : 		return (0 < _Count ? _Count : 1);

  00000	b8 ff ff ff 0f	 mov	 eax, 268435455		; 0fffffffH

; 159  : 		}

  00005	c3		 ret	 0
?max_size@?$allocator@UAIMSG@@@std@@QBEIXZ ENDP		; std::allocator<AIMSG>::max_size
_TEXT	ENDS
PUBLIC	??0const_iterator@?$deque@UAIMSG@@V?$allocator@UAIMSG@@@std@@@std@@QAE@IPBV12@@Z ; std::deque<AIMSG,std::allocator<AIMSG> >::const_iterator::const_iterator
; Function compile flags: /Ogty
; File c:\program files\microsoft visual studio .net 2003\vc7\include\deque
;	COMDAT ??0const_iterator@?$deque@UAIMSG@@V?$allocator@UAIMSG@@@std@@@std@@QAE@IPBV12@@Z
_TEXT	SEGMENT
__Off$ = 8						; size = 4
__Pdeque$ = 12						; size = 4
??0const_iterator@?$deque@UAIMSG@@V?$allocator@UAIMSG@@@std@@@std@@QAE@IPBV12@@Z PROC NEAR ; std::deque<AIMSG,std::allocator<AIMSG> >::const_iterator::const_iterator, COMDAT
; _this$ = ecx

; 102  : 			{	// construct with offset _Off in *_Pdeque
; 103  : 			_Mycont = _Pdeque;
; 104  : 			_Myoff = _Off;

  00000	8b 54 24 04	 mov	 edx, DWORD PTR __Off$[esp-4]
  00004	8b c1		 mov	 eax, ecx
  00006	8b 4c 24 08	 mov	 ecx, DWORD PTR __Pdeque$[esp-4]
  0000a	89 08		 mov	 DWORD PTR [eax], ecx
  0000c	89 50 04	 mov	 DWORD PTR [eax+4], edx

; 105  : 			}

  0000f	c2 08 00	 ret	 8
??0const_iterator@?$deque@UAIMSG@@V?$allocator@UAIMSG@@@std@@@std@@QAE@IPBV12@@Z ENDP ; std::deque<AIMSG,std::allocator<AIMSG> >::const_iterator::const_iterator
_TEXT	ENDS
PUBLIC	??$_Allocate@UAIMSG@@@std@@YAPAUAIMSG@@IPAU1@@Z	; std::_Allocate<AIMSG>
EXTRN	??2@YAPAXI@Z:NEAR				; operator new
; Function compile flags: /Ogty
; File c:\program files\microsoft visual studio .net 2003\vc7\include\xmemory
;	COMDAT ??$_Allocate@UAIMSG@@@std@@YAPAUAIMSG@@IPAU1@@Z
_TEXT	SEGMENT
__Count$ = 8						; size = 4
___formal$ = 12						; size = 4
??$_Allocate@UAIMSG@@@std@@YAPAUAIMSG@@IPAU1@@Z PROC NEAR ; std::_Allocate<AIMSG>, COMDAT

; 34   : 	return ((_Ty _FARQ *)operator new(_Count * sizeof (_Ty)));

  00000	8b 44 24 04	 mov	 eax, DWORD PTR __Count$[esp-4]
  00004	c1 e0 04	 shl	 eax, 4
  00007	50		 push	 eax
  00008	e8 00 00 00 00	 call	 ??2@YAPAXI@Z		; operator new
  0000d	83 c4 04	 add	 esp, 4

; 35   : 	}

  00010	c3		 ret	 0
??$_Allocate@UAIMSG@@@std@@YAPAUAIMSG@@IPAU1@@Z ENDP	; std::_Allocate<AIMSG>
_TEXT	ENDS
PUBLIC	??$_Construct@UAIMSG@@U1@@std@@YAXPAUAIMSG@@ABU1@@Z ; std::_Construct<AIMSG,AIMSG>
; Function compile flags: /Ogty
;	COMDAT ??$_Construct@UAIMSG@@U1@@std@@YAXPAUAIMSG@@ABU1@@Z
_TEXT	SEGMENT
__Ptr$ = 8						; size = 4
__Val$ = 12						; size = 4
??$_Construct@UAIMSG@@U1@@std@@YAXPAUAIMSG@@ABU1@@Z PROC NEAR ; std::_Construct<AIMSG,AIMSG>, COMDAT

; 42   : 	new ((void _FARQ *)_Ptr) _T1(_Val);

  00000	8b 44 24 04	 mov	 eax, DWORD PTR __Ptr$[esp-4]
  00004	85 c0		 test	 eax, eax
  00006	74 1a		 je	 SHORT $L257145
  00008	8b 4c 24 08	 mov	 ecx, DWORD PTR __Val$[esp-4]
  0000c	8b 11		 mov	 edx, DWORD PTR [ecx]
  0000e	89 10		 mov	 DWORD PTR [eax], edx
  00010	8b 51 04	 mov	 edx, DWORD PTR [ecx+4]
  00013	89 50 04	 mov	 DWORD PTR [eax+4], edx
  00016	8b 51 08	 mov	 edx, DWORD PTR [ecx+8]
  00019	89 50 08	 mov	 DWORD PTR [eax+8], edx
  0001c	8b 49 0c	 mov	 ecx, DWORD PTR [ecx+12]
  0001f	89 48 0c	 mov	 DWORD PTR [eax+12], ecx
$L257145:

; 43   : 	}

  00022	c3		 ret	 0
??$_Construct@UAIMSG@@U1@@std@@YAXPAUAIMSG@@ABU1@@Z ENDP ; std::_Construct<AIMSG,AIMSG>
_TEXT	ENDS
PUBLIC	??$_Destroy@UAIMSG@@@std@@YAXPAUAIMSG@@@Z	; std::_Destroy<AIMSG>
; Function compile flags: /Ogty
;	COMDAT ??$_Destroy@UAIMSG@@@std@@YAXPAUAIMSG@@@Z
_TEXT	SEGMENT
__Ptr$ = 8						; size = 4
??$_Destroy@UAIMSG@@@std@@YAXPAUAIMSG@@@Z PROC NEAR	; std::_Destroy<AIMSG>, COMDAT

; 49   : 	_DESTRUCTOR(_Ty, _Ptr);
; 50   : 	}

  00000	c3		 ret	 0
??$_Destroy@UAIMSG@@@std@@YAXPAUAIMSG@@@Z ENDP		; std::_Destroy<AIMSG>
_TEXT	ENDS
PUBLIC	??$_Destroy@PAUAIMSG@@@std@@YAXPAPAUAIMSG@@@Z	; std::_Destroy<AIMSG *>
; Function compile flags: /Ogty
;	COMDAT ??$_Destroy@PAUAIMSG@@@std@@YAXPAPAUAIMSG@@@Z
_TEXT	SEGMENT
__Ptr$ = 8						; size = 4
??$_Destroy@PAUAIMSG@@@std@@YAXPAPAUAIMSG@@@Z PROC NEAR	; std::_Destroy<AIMSG *>, COMDAT

; 49   : 	_DESTRUCTOR(_Ty, _Ptr);
; 50   : 	}

  00000	c3		 ret	 0
??$_Destroy@PAUAIMSG@@@std@@YAXPAPAUAIMSG@@@Z ENDP	; std::_Destroy<AIMSG *>
_TEXT	ENDS
PUBLIC	??$?0UAIMSG@@@?$allocator@PAUAIMSG@@@std@@QAE@ABV?$allocator@UAIMSG@@@1@@Z ; std::allocator<AIMSG *>::allocator<AIMSG *><AIMSG>
; Function compile flags: /Ogty
;	COMDAT ??$?0UAIMSG@@@?$allocator@PAUAIMSG@@@std@@QAE@ABV?$allocator@UAIMSG@@@1@@Z
_TEXT	SEGMENT
___formal$ = 8						; size = 4
??$?0UAIMSG@@@?$allocator@PAUAIMSG@@@std@@QAE@ABV?$allocator@UAIMSG@@@1@@Z PROC NEAR ; std::allocator<AIMSG *>::allocator<AIMSG *><AIMSG>, COMDAT
; _this$ = ecx

; 120  : 		allocator(const allocator<_Other>&)

  00000	8b c1		 mov	 eax, ecx

; 121  : 		{	// construct from a related allocator (do nothing)
; 122  : 		}

  00002	c2 04 00	 ret	 4
??$?0UAIMSG@@@?$allocator@PAUAIMSG@@@std@@QAE@ABV?$allocator@UAIMSG@@@1@@Z ENDP ; std::allocator<AIMSG *>::allocator<AIMSG *><AIMSG>
_TEXT	ENDS
PUBLIC	??$_Allocate@PAUAIMSG@@@std@@YAPAPAUAIMSG@@IPAPAU1@@Z ; std::_Allocate<AIMSG *>
; Function compile flags: /Ogty
;	COMDAT ??$_Allocate@PAUAIMSG@@@std@@YAPAPAUAIMSG@@IPAPAU1@@Z
_TEXT	SEGMENT
__Count$ = 8						; size = 4
___formal$ = 12						; size = 4
??$_Allocate@PAUAIMSG@@@std@@YAPAPAUAIMSG@@IPAPAU1@@Z PROC NEAR ; std::_Allocate<AIMSG *>, COMDAT

; 34   : 	return ((_Ty _FARQ *)operator new(_Count * sizeof (_Ty)));

  00000	8b 44 24 04	 mov	 eax, DWORD PTR __Count$[esp-4]
  00004	8d 0c 85 00 00
	00 00		 lea	 ecx, DWORD PTR [eax*4]
  0000b	51		 push	 ecx
  0000c	e8 00 00 00 00	 call	 ??2@YAPAXI@Z		; operator new
  00011	83 c4 04	 add	 esp, 4

; 35   : 	}

  00014	c3		 ret	 0
??$_Allocate@PAUAIMSG@@@std@@YAPAPAUAIMSG@@IPAPAU1@@Z ENDP ; std::_Allocate<AIMSG *>
_TEXT	ENDS
PUBLIC	??$_Ptr_cat@UAIMSG@@@std@@YA?AU_Scalar_ptr_iterator_tag@0@PAPAUAIMSG@@0@Z ; std::_Ptr_cat<AIMSG>
; Function compile flags: /Ogty
; File c:\program files\microsoft visual studio .net 2003\vc7\include\xutility
;	COMDAT ??$_Ptr_cat@UAIMSG@@@std@@YA?AU_Scalar_ptr_iterator_tag@0@PAPAUAIMSG@@0@Z
_TEXT	SEGMENT
__Cat$ = -1						; size = 1
___formal$ = 8						; size = 4
___formal$ = 12						; size = 4
??$_Ptr_cat@UAIMSG@@@std@@YA?AU_Scalar_ptr_iterator_tag@0@PAPAUAIMSG@@0@Z PROC NEAR ; std::_Ptr_cat<AIMSG>, COMDAT

; 218  : 	{	// return pointer category from pointer to pointer arguments

  00000	51		 push	 ecx

; 219  : 	_Scalar_ptr_iterator_tag _Cat;
; 220  : 	return (_Cat);

  00001	8a 44 24 03	 mov	 al, BYTE PTR __Cat$[esp+4]

; 221  : 	}

  00005	59		 pop	 ecx
  00006	c3		 ret	 0
??$_Ptr_cat@UAIMSG@@@std@@YA?AU_Scalar_ptr_iterator_tag@0@PAPAUAIMSG@@0@Z ENDP ; std::_Ptr_cat<AIMSG>
_TEXT	ENDS
PUBLIC	??$_Uninit_copy@PAUAIMSG@@PAU1@@std@@YAPAPAUAIMSG@@PAPAU1@00AAV?$allocator@PAUAIMSG@@@0@U_Scalar_ptr_iterator_tag@0@@Z ; std::_Uninit_copy<AIMSG *,AIMSG *>
EXTRN	_memmove:NEAR
; Function compile flags: /Ogty
; File c:\program files\microsoft visual studio .net 2003\vc7\include\memory
;	COMDAT ??$_Uninit_copy@PAUAIMSG@@PAU1@@std@@YAPAPAUAIMSG@@PAPAU1@00AAV?$allocator@PAUAIMSG@@@0@U_Scalar_ptr_iterator_tag@0@@Z
_TEXT	SEGMENT
__First$ = 8						; size = 4
__Last$ = 12						; size = 4
__Dest$ = 16						; size = 4
___formal$ = 20						; size = 4
___formal$ = 24						; size = 1
??$_Uninit_copy@PAUAIMSG@@PAU1@@std@@YAPAPAUAIMSG@@PAPAU1@00AAV?$allocator@PAUAIMSG@@@0@U_Scalar_ptr_iterator_tag@0@@Z PROC NEAR ; std::_Uninit_copy<AIMSG *,AIMSG *>, COMDAT

; 106  : 	size_t _Count = (size_t)(_Last - _First);

  00000	8b 4c 24 04	 mov	 ecx, DWORD PTR __First$[esp-4]
  00004	8b 44 24 08	 mov	 eax, DWORD PTR __Last$[esp-4]
  00008	2b c1		 sub	 eax, ecx
  0000a	56		 push	 esi
  0000b	c1 f8 02	 sar	 eax, 2

; 107  : 	return ((_Ty2 *)memmove(&*_Dest, &*_First,
; 108  : 		_Count * sizeof (*_First)) + _Count);	// NB: non-overlapping move

  0000e	8d 34 85 00 00
	00 00		 lea	 esi, DWORD PTR [eax*4]
  00015	8b 44 24 10	 mov	 eax, DWORD PTR __Dest$[esp]
  00019	56		 push	 esi
  0001a	51		 push	 ecx
  0001b	50		 push	 eax
  0001c	e8 00 00 00 00	 call	 _memmove
  00021	83 c4 0c	 add	 esp, 12			; 0000000cH
  00024	03 c6		 add	 eax, esi
  00026	5e		 pop	 esi

; 109  : 	}

  00027	c3		 ret	 0
??$_Uninit_copy@PAUAIMSG@@PAU1@@std@@YAPAPAUAIMSG@@PAPAU1@00AAV?$allocator@PAUAIMSG@@@0@U_Scalar_ptr_iterator_tag@0@@Z ENDP ; std::_Uninit_copy<AIMSG *,AIMSG *>
_TEXT	ENDS
PUBLIC	??$_Destroy_range@PAUAIMSG@@V?$allocator@PAUAIMSG@@@std@@@std@@YAXPAPAUAIMSG@@0AAV?$allocator@PAUAIMSG@@@0@U_Scalar_ptr_iterator_tag@0@@Z ; std::_Destroy_range<AIMSG *,std::allocator<AIMSG *> >
; Function compile flags: /Ogty
; File c:\program files\microsoft visual studio .net 2003\vc7\include\xmemory
;	COMDAT ??$_Destroy_range@PAUAIMSG@@V?$allocator@PAUAIMSG@@@std@@@std@@YAXPAPAUAIMSG@@0AAV?$allocator@PAUAIMSG@@@0@U_Scalar_ptr_iterator_tag@0@@Z
_TEXT	SEGMENT
__First$ = 8						; size = 4
__Last$ = 12						; size = 4
__Al$ = 16						; size = 4
___formal$ = 20						; size = 1
??$_Destroy_range@PAUAIMSG@@V?$allocator@PAUAIMSG@@@std@@@std@@YAXPAPAUAIMSG@@0AAV?$allocator@PAUAIMSG@@@0@U_Scalar_ptr_iterator_tag@0@@Z PROC NEAR ; std::_Destroy_range<AIMSG *,std::allocator<AIMSG *> >, COMDAT

; 234  : 	}

  00000	c3		 ret	 0
??$_Destroy_range@PAUAIMSG@@V?$allocator@PAUAIMSG@@@std@@@std@@YAXPAPAUAIMSG@@0AAV?$allocator@PAUAIMSG@@@0@U_Scalar_ptr_iterator_tag@0@@Z ENDP ; std::_Destroy_range<AIMSG *,std::allocator<AIMSG *> >
_TEXT	ENDS
PUBLIC	??$fill_n@PAPAUAIMSG@@IPAU1@@std@@YAXPAPAUAIMSG@@IABQAU1@@Z ; std::fill_n<AIMSG * *,unsigned int,AIMSG *>
; Function compile flags: /Ogty
; File c:\program files\microsoft visual studio .net 2003\vc7\include\xutility
;	COMDAT ??$fill_n@PAPAUAIMSG@@IPAU1@@std@@YAXPAPAUAIMSG@@IABQAU1@@Z
_TEXT	SEGMENT
__First$ = 8						; size = 4
__Count$ = 12						; size = 4
__Val$ = 16						; size = 4
??$fill_n@PAPAUAIMSG@@IPAU1@@std@@YAXPAPAUAIMSG@@IABQAU1@@Z PROC NEAR ; std::fill_n<AIMSG * *,unsigned int,AIMSG *>, COMDAT

; 1160 : 	for (; 0 < _Count; --_Count, ++_First)

  00000	8b 4c 24 08	 mov	 ecx, DWORD PTR __Count$[esp-4]
  00004	85 c9		 test	 ecx, ecx
  00006	76 14		 jbe	 SHORT $L256067
  00008	8b 54 24 0c	 mov	 edx, DWORD PTR __Val$[esp-4]
  0000c	8b 44 24 04	 mov	 eax, DWORD PTR __First$[esp-4]
  00010	56		 push	 esi
$L256065:

; 1161 : 		*_First = _Val;

  00011	8b 32		 mov	 esi, DWORD PTR [edx]
  00013	89 30		 mov	 DWORD PTR [eax], esi
  00015	83 c0 04	 add	 eax, 4
  00018	49		 dec	 ecx
  00019	75 f6		 jne	 SHORT $L256065
  0001b	5e		 pop	 esi
$L256067:

; 1162 : 	}

  0001c	c3		 ret	 0
??$fill_n@PAPAUAIMSG@@IPAU1@@std@@YAXPAPAUAIMSG@@IABQAU1@@Z ENDP ; std::fill_n<AIMSG * *,unsigned int,AIMSG *>
_TEXT	ENDS
PUBLIC	?assign@?$char_traits@D@std@@SAXAADABD@Z	; std::char_traits<char>::assign
; Function compile flags: /Ogty
; File c:\program files\microsoft visual studio .net 2003\vc7\include\iosfwd
;	COMDAT ?assign@?$char_traits@D@std@@SAXAADABD@Z
_TEXT	SEGMENT
__Left$ = 8						; size = 4
__Right$ = 12						; size = 4
?assign@?$char_traits@D@std@@SAXAADABD@Z PROC NEAR	; std::char_traits<char>::assign, COMDAT

; 331  : 		_Left = _Right;

  00000	8b 44 24 08	 mov	 eax, DWORD PTR __Right$[esp-4]
  00004	8a 08		 mov	 cl, BYTE PTR [eax]
  00006	8b 54 24 04	 mov	 edx, DWORD PTR __Left$[esp-4]
  0000a	88 0a		 mov	 BYTE PTR [edx], cl

; 332  : 		}

  0000c	c3		 ret	 0
?assign@?$char_traits@D@std@@SAXAADABD@Z ENDP		; std::char_traits<char>::assign
_TEXT	ENDS
PUBLIC	?length@?$char_traits@D@std@@SAIPBD@Z		; std::char_traits<char>::length
; Function compile flags: /Ogty
;	COMDAT ?length@?$char_traits@D@std@@SAIPBD@Z
_TEXT	SEGMENT
__First$ = 8						; size = 4
?length@?$char_traits@D@std@@SAIPBD@Z PROC NEAR		; std::char_traits<char>::length, COMDAT

; 352  : 		return (::strlen(_First));

  00000	8b 44 24 04	 mov	 eax, DWORD PTR __First$[esp-4]
  00004	8d 50 01	 lea	 edx, DWORD PTR [eax+1]
$L257182:
  00007	8a 08		 mov	 cl, BYTE PTR [eax]
  00009	40		 inc	 eax
  0000a	84 c9		 test	 cl, cl
  0000c	75 f9		 jne	 SHORT $L257182
  0000e	2b c2		 sub	 eax, edx

; 353  : 		}

  00010	c3		 ret	 0
?length@?$char_traits@D@std@@SAIPBD@Z ENDP		; std::char_traits<char>::length
_TEXT	ENDS
PUBLIC	?copy@?$char_traits@D@std@@SAPADPADPBDI@Z	; std::char_traits<char>::copy
; Function compile flags: /Ogty
;	COMDAT ?copy@?$char_traits@D@std@@SAPADPADPBDI@Z
_TEXT	SEGMENT
__First1$ = 8						; size = 4
__First2$ = 12						; size = 4
__Count$ = 16						; size = 4
?copy@?$char_traits@D@std@@SAPADPADPBDI@Z PROC NEAR	; std::char_traits<char>::copy, COMDAT

; 358  : 		return ((_Elem *)::memcpy(_First1, _First2, _Count));

  00000	8b 4c 24 0c	 mov	 ecx, DWORD PTR __Count$[esp-4]
  00004	56		 push	 esi
  00005	8b 74 24 0c	 mov	 esi, DWORD PTR __First2$[esp]
  00009	57		 push	 edi
  0000a	8b 7c 24 0c	 mov	 edi, DWORD PTR __First1$[esp+4]
  0000e	8b c1		 mov	 eax, ecx
  00010	8b d7		 mov	 edx, edi
  00012	c1 e9 02	 shr	 ecx, 2
  00015	f3 a5		 rep movsd
  00017	8b c8		 mov	 ecx, eax
  00019	83 e1 03	 and	 ecx, 3
  0001c	f3 a4		 rep movsb
  0001e	5f		 pop	 edi
  0001f	8b c2		 mov	 eax, edx
  00021	5e		 pop	 esi

; 359  : 		}

  00022	c3		 ret	 0
?copy@?$char_traits@D@std@@SAPADPADPBDI@Z ENDP		; std::char_traits<char>::copy
_TEXT	ENDS
PUBLIC	?move@?$char_traits@D@std@@SAPADPADPBDI@Z	; std::char_traits<char>::move
; Function compile flags: /Ogty
;	COMDAT ?move@?$char_traits@D@std@@SAPADPADPBDI@Z
_TEXT	SEGMENT
__First1$ = 8						; size = 4
__First2$ = 12						; size = 4
__Count$ = 16						; size = 4
?move@?$char_traits@D@std@@SAPADPADPBDI@Z PROC NEAR	; std::char_traits<char>::move, COMDAT

; 370  : 		return ((_Elem *)::memmove(_First1, _First2, _Count));

  00000	e9 00 00 00 00	 jmp	 _memmove
?move@?$char_traits@D@std@@SAPADPADPBDI@Z ENDP		; std::char_traits<char>::move
_TEXT	ENDS
PUBLIC	??0D3DXVECTOR3@@QAE@XZ				; D3DXVECTOR3::D3DXVECTOR3
; Function compile flags: /Ogty
; File c:\documents and settings\test\mes documents\source\virtuos_v17\build\program\dx_sdk\d3dx9math.h
;	COMDAT ??0D3DXVECTOR3@@QAE@XZ
_TEXT	SEGMENT
??0D3DXVECTOR3@@QAE@XZ PROC NEAR			; D3DXVECTOR3::D3DXVECTOR3, COMDAT
; _this$ = ecx

; 165  :     D3DXVECTOR3() {};

  00000	8b c1		 mov	 eax, ecx
  00002	c3		 ret	 0
??0D3DXVECTOR3@@QAE@XZ ENDP				; D3DXVECTOR3::D3DXVECTOR3
_TEXT	ENDS
PUBLIC	??0D3DXVECTOR3@@QAE@MMM@Z			; D3DXVECTOR3::D3DXVECTOR3
EXTRN	__fltused:NEAR
; Function compile flags: /Ogty
; File c:\documents and settings\test\mes documents\source\virtuos_v17\build\program\dx_sdk\d3dx9math.inl
;	COMDAT ??0D3DXVECTOR3@@QAE@MMM@Z
_TEXT	SEGMENT
_fx$ = 8						; size = 4
_fy$ = 12						; size = 4
_fz$ = 16						; size = 4
??0D3DXVECTOR3@@QAE@MMM@Z PROC NEAR			; D3DXVECTOR3::D3DXVECTOR3, COMDAT
; _this$ = ecx

; 300  :     x = fx;
; 301  :     y = fy;

  00000	8b 54 24 08	 mov	 edx, DWORD PTR _fy$[esp-4]
  00004	8b c1		 mov	 eax, ecx
  00006	8b 4c 24 04	 mov	 ecx, DWORD PTR _fx$[esp-4]
  0000a	89 08		 mov	 DWORD PTR [eax], ecx

; 302  :     z = fz;

  0000c	8b 4c 24 0c	 mov	 ecx, DWORD PTR _fz$[esp-4]
  00010	89 50 04	 mov	 DWORD PTR [eax+4], edx
  00013	89 48 08	 mov	 DWORD PTR [eax+8], ecx

; 303  : }

  00016	c2 0c 00	 ret	 12			; 0000000cH
??0D3DXVECTOR3@@QAE@MMM@Z ENDP				; D3DXVECTOR3::D3DXVECTOR3
_TEXT	ENDS
PUBLIC	??GD3DXVECTOR3@@QBE?AU0@ABU0@@Z			; D3DXVECTOR3::operator-
; Function compile flags: /Ogty
;	COMDAT ??GD3DXVECTOR3@@QBE?AU0@ABU0@@Z
_TEXT	SEGMENT
___$ReturnUdt$ = 8					; size = 4
_v$ = 12						; size = 4
??GD3DXVECTOR3@@QBE?AU0@ABU0@@Z PROC NEAR		; D3DXVECTOR3::operator-, COMDAT
; _this$ = ecx

; 383  :     return D3DXVECTOR3(x - v.x, y - v.y, z - v.z);

  00000	d9 41 08	 fld	 DWORD PTR [ecx+8]
  00003	8b 44 24 08	 mov	 eax, DWORD PTR _v$[esp-4]
  00007	d8 60 08	 fsub	 DWORD PTR [eax+8]
  0000a	d9 41 04	 fld	 DWORD PTR [ecx+4]
  0000d	d8 60 04	 fsub	 DWORD PTR [eax+4]
  00010	d9 01		 fld	 DWORD PTR [ecx]
  00012	d8 20		 fsub	 DWORD PTR [eax]
  00014	8b 44 24 04	 mov	 eax, DWORD PTR ___$ReturnUdt$[esp-4]
  00018	d9 18		 fstp	 DWORD PTR [eax]
  0001a	d9 58 04	 fstp	 DWORD PTR [eax+4]
  0001d	d9 58 08	 fstp	 DWORD PTR [eax+8]

; 384  : }

  00020	c2 08 00	 ret	 8
??GD3DXVECTOR3@@QBE?AU0@ABU0@@Z ENDP			; D3DXVECTOR3::operator-
_TEXT	ENDS
PUBLIC	?D3DXVec3LengthSq@@YAMPBUD3DXVECTOR3@@@Z	; D3DXVec3LengthSq
; Function compile flags: /Ogty
;	COMDAT ?D3DXVec3LengthSq@@YAMPBUD3DXVECTOR3@@@Z
_TEXT	SEGMENT
_pV$ = 8						; size = 4
?D3DXVec3LengthSq@@YAMPBUD3DXVECTOR3@@@Z PROC NEAR	; D3DXVec3LengthSq, COMDAT

; 1693 : #ifdef D3DX_DEBUG
; 1694 :     if(!pV)
; 1695 :         return 0.0f;
; 1696 : #endif
; 1697 : 
; 1698 :     return pV->x * pV->x + pV->y * pV->y + pV->z * pV->z;

  00000	8b 44 24 04	 mov	 eax, DWORD PTR _pV$[esp-4]
  00004	d9 40 08	 fld	 DWORD PTR [eax+8]
  00007	d9 40 04	 fld	 DWORD PTR [eax+4]
  0000a	d9 00		 fld	 DWORD PTR [eax]
  0000c	d9 c0		 fld	 ST(0)
  0000e	d8 c9		 fmul	 ST(0), ST(1)
  00010	d9 c2		 fld	 ST(2)
  00012	d8 cb		 fmul	 ST(0), ST(3)
  00014	de c1		 faddp	 ST(1), ST(0)
  00016	d9 c3		 fld	 ST(3)
  00018	d8 cc		 fmul	 ST(0), ST(4)
  0001a	de c1		 faddp	 ST(1), ST(0)
  0001c	dd db		 fstp	 ST(3)
  0001e	dd d8		 fstp	 ST(0)
  00020	dd d8		 fstp	 ST(0)

; 1699 : }

  00022	c3		 ret	 0
?D3DXVec3LengthSq@@YAMPBUD3DXVECTOR3@@@Z ENDP		; D3DXVec3LengthSq
_TEXT	ENDS
PUBLIC	?GetNextNode@CObj@@QAEPAV1@XZ			; CObj::GetNextNode
; Function compile flags: /Ogty
; File c:\documents and settings\test\mes documents\source\virtuos_v17\build\program\_common\obj.h
;	COMDAT ?GetNextNode@CObj@@QAEPAV1@XZ
_TEXT	SEGMENT
?GetNextNode@CObj@@QAEPAV1@XZ PROC NEAR			; CObj::GetNextNode, COMDAT
; _this$ = ecx

; 195  : 	CObj*			GetNextNode() { return m_pNext; }

  00000	8b 81 80 01 00
	00		 mov	 eax, DWORD PTR [ecx+384]
  00006	c3		 ret	 0
?GetNextNode@CObj@@QAEPAV1@XZ ENDP			; CObj::GetNextNode
_TEXT	ENDS
PUBLIC	?GetPos@CObj@@QAE?AUD3DXVECTOR3@@XZ		; CObj::GetPos
; Function compile flags: /Ogty
;	COMDAT ?GetPos@CObj@@QAE?AUD3DXVECTOR3@@XZ
_TEXT	SEGMENT
___$ReturnUdt$ = 8					; size = 4
?GetPos@CObj@@QAE?AUD3DXVECTOR3@@XZ PROC NEAR		; CObj::GetPos, COMDAT
; _this$ = ecx

; 215  : 	D3DXVECTOR3		GetPos()	{ return m_vPos; }

  00000	8b 44 24 04	 mov	 eax, DWORD PTR ___$ReturnUdt$[esp-4]
  00004	81 c1 60 01 00
	00		 add	 ecx, 352		; 00000160H
  0000a	56		 push	 esi
  0000b	8b 31		 mov	 esi, DWORD PTR [ecx]
  0000d	8b d0		 mov	 edx, eax
  0000f	89 32		 mov	 DWORD PTR [edx], esi
  00011	8b 71 04	 mov	 esi, DWORD PTR [ecx+4]
  00014	89 72 04	 mov	 DWORD PTR [edx+4], esi
  00017	8b 49 08	 mov	 ecx, DWORD PTR [ecx+8]
  0001a	89 4a 08	 mov	 DWORD PTR [edx+8], ecx
  0001d	5e		 pop	 esi
  0001e	c2 04 00	 ret	 4
?GetPos@CObj@@QAE?AUD3DXVECTOR3@@XZ ENDP		; CObj::GetPos
_TEXT	ENDS
PUBLIC	?GetWorld@CObj@@QAEPAVCWorld@@XZ		; CObj::GetWorld
; Function compile flags: /Ogty
;	COMDAT ?GetWorld@CObj@@QAEPAVCWorld@@XZ
_TEXT	SEGMENT
?GetWorld@CObj@@QAEPAVCWorld@@XZ PROC NEAR		; CObj::GetWorld, COMDAT
; _this$ = ecx

; 221  : 	CWorld*			GetWorld()	{ return m_pWorld; }

  00000	8b 81 6c 01 00
	00		 mov	 eax, DWORD PTR [ecx+364]
  00006	c3		 ret	 0
?GetWorld@CObj@@QAEPAVCWorld@@XZ ENDP			; CObj::GetWorld
_TEXT	ENDS
PUBLIC	?GetLayer@CObj@@QAEHXZ				; CObj::GetLayer
; Function compile flags: /Ogty
;	COMDAT ?GetLayer@CObj@@QAEHXZ
_TEXT	SEGMENT
?GetLayer@CObj@@QAEHXZ PROC NEAR			; CObj::GetLayer, COMDAT
; _this$ = ecx

; 247  : 	int		GetLayer()	{	return m_nLayer;	}

  00000	8b 81 b8 01 00
	00		 mov	 eax, DWORD PTR [ecx+440]
  00006	c3		 ret	 0
?GetLayer@CObj@@QAEHXZ ENDP				; CObj::GetLayer
_TEXT	ENDS
PUBLIC	?GetId@CCtrl@@QAEKXZ				; CCtrl::GetId
; Function compile flags: /Ogty
; File c:\documents and settings\test\mes documents\source\virtuos_v17\build\program\_common\ctrl.h
;	COMDAT ?GetId@CCtrl@@QAEKXZ
_TEXT	SEGMENT
?GetId@CCtrl@@QAEKXZ PROC NEAR				; CCtrl::GetId, COMDAT
; _this$ = ecx

; 58   : 	OBJID			GetId()					{ return m_objid;   }

  00000	8b 81 bc 01 00
	00		 mov	 eax, DWORD PTR [ecx+444]
  00006	c3		 ret	 0
?GetId@CCtrl@@QAEKXZ ENDP				; CCtrl::GetId
_TEXT	ENDS
PUBLIC	?LOG_RANGE@@YAXPBDHHH@Z				; LOG_RANGE
PUBLIC	??_C@_0BM@HMFGHCP@?$CFs?5min?3?$CFd?0?5max?3?$CFd?0?5index?3?$CFd?$AA@ ; `string'
EXTRN	?Error@@YAPBDPBDZZ:NEAR				; Error
;	COMDAT ??_C@_0BM@HMFGHCP@?$CFs?5min?3?$CFd?0?5max?3?$CFd?0?5index?3?$CFd?$AA@
; File c:\documents and settings\test\mes documents\source\virtuos_v17\build\program\_common\project.h
CONST	SEGMENT
??_C@_0BM@HMFGHCP@?$CFs?5min?3?$CFd?0?5max?3?$CFd?0?5index?3?$CFd?$AA@ DB '%'
	DB	's min:%d, max:%d, index:%d', 00H		; `string'
; Function compile flags: /Ogty
CONST	ENDS
;	COMDAT ?LOG_RANGE@@YAXPBDHHH@Z
_TEXT	SEGMENT
_szMsg$ = 8						; size = 4
_nMin$ = 12						; size = 4
_nMax$ = 16						; size = 4
_nIndex$ = 20						; size = 4
?LOG_RANGE@@YAXPBDHHH@Z PROC NEAR			; LOG_RANGE, COMDAT

; 559  : 	LPCTSTR szErr = Error( _T( "%s min:%d, max:%d, index:%d" ), szMsg, nMin, nMax, nIndex ); 

  00000	8b 44 24 10	 mov	 eax, DWORD PTR _nIndex$[esp-4]
  00004	8b 4c 24 0c	 mov	 ecx, DWORD PTR _nMax$[esp-4]
  00008	8b 54 24 08	 mov	 edx, DWORD PTR _nMin$[esp-4]
  0000c	50		 push	 eax
  0000d	8b 44 24 08	 mov	 eax, DWORD PTR _szMsg$[esp]
  00011	51		 push	 ecx
  00012	52		 push	 edx
  00013	50		 push	 eax
  00014	68 00 00 00 00	 push	 OFFSET FLAT:??_C@_0BM@HMFGHCP@?$CFs?5min?3?$CFd?0?5max?3?$CFd?0?5index?3?$CFd?$AA@
  00019	e8 00 00 00 00	 call	 ?Error@@YAPBDPBDZZ	; Error
  0001e	83 c4 14	 add	 esp, 20			; 00000014H

; 560  : 	ADDERRORMSG( szErr ); 
; 561  : }

  00021	c3		 ret	 0
?LOG_RANGE@@YAXPBDHHH@Z ENDP				; LOG_RANGE
_TEXT	ENDS
PUBLIC	??_C@_0BJ@GKPOBPPI@GetMoverProp?5range_error?$AA@ ; `string'
PUBLIC	?GetMoverProp@CProject@@QAEPAUMoverProp@@H@Z	; CProject::GetMoverProp
;	COMDAT ??_C@_0BJ@GKPOBPPI@GetMoverProp?5range_error?$AA@
CONST	SEGMENT
??_C@_0BJ@GKPOBPPI@GetMoverProp?5range_error?$AA@ DB 'GetMoverProp range_'
	DB	'error', 00H					; `string'
; Function compile flags: /Ogty
CONST	ENDS
;	COMDAT ?GetMoverProp@CProject@@QAEPAUMoverProp@@H@Z
_TEXT	SEGMENT
_nIndex$ = 8						; size = 4
?GetMoverProp@CProject@@QAEPAUMoverProp@@H@Z PROC NEAR	; CProject::GetMoverProp, COMDAT
; _this$ = ecx

; 1381 : 	VERIFY_RANGE( nIndex, 0, m_nMoverPropSize, "GetMoverProp range_error", NULL );

  00000	8b 44 24 04	 mov	 eax, DWORD PTR _nIndex$[esp-4]
  00004	85 c0		 test	 eax, eax
  00006	7c 19		 jl	 SHORT $L197938
  00008	3b 81 d0 01 00
	00		 cmp	 eax, DWORD PTR [ecx+464]
  0000e	7d 11		 jge	 SHORT $L197938

; 1382 : 	return m_pPropMover + nIndex;

  00010	8b 91 d4 01 00
	00		 mov	 edx, DWORD PTR [ecx+468]
  00016	69 c0 d8 06 00
	00		 imul	 eax, 1752		; 000006d8H
  0001c	03 c2		 add	 eax, edx

; 1383 : }

  0001e	c2 04 00	 ret	 4
$L197938:

; 1381 : 	VERIFY_RANGE( nIndex, 0, m_nMoverPropSize, "GetMoverProp range_error", NULL );

  00021	50		 push	 eax
  00022	8b 81 d0 01 00
	00		 mov	 eax, DWORD PTR [ecx+464]
  00028	50		 push	 eax
  00029	6a 00		 push	 0
  0002b	68 00 00 00 00	 push	 OFFSET FLAT:??_C@_0BJ@GKPOBPPI@GetMoverProp?5range_error?$AA@
  00030	68 00 00 00 00	 push	 OFFSET FLAT:??_C@_0BM@HMFGHCP@?$CFs?5min?3?$CFd?0?5max?3?$CFd?0?5index?3?$CFd?$AA@
  00035	e8 00 00 00 00	 call	 ?Error@@YAPBDPBDZZ	; Error
  0003a	83 c4 14	 add	 esp, 20			; 00000014H
  0003d	33 c0		 xor	 eax, eax

; 1383 : }

  0003f	c2 04 00	 ret	 4
?GetMoverProp@CProject@@QAEPAUMoverProp@@H@Z ENDP	; CProject::GetMoverProp
_TEXT	ENDS
PUBLIC	?IsFly@CAction@@QAEHXZ				; CAction::IsFly
; Function compile flags: /Ogty
; File c:\documents and settings\test\mes documents\source\virtuos_v17\build\program\_aiinterface\action.h
;	COMDAT ?IsFly@CAction@@QAEHXZ
_TEXT	SEGMENT
?IsFly@CAction@@QAEHXZ PROC NEAR			; CAction::IsFly, COMDAT
; _this$ = ecx

; 309  : 	BOOL			IsFly() { return (m_dwStateFlag & OBJSTAF_FLY) ? TRUE : FALSE; }

  00000	8b 41 08	 mov	 eax, DWORD PTR [ecx+8]
  00003	c1 e8 03	 shr	 eax, 3
  00006	83 e0 01	 and	 eax, 1
  00009	c3		 ret	 0
?IsFly@CAction@@QAEHXZ ENDP				; CAction::IsFly
_TEXT	ENDS
PUBLIC	?IsDie@CAction@@QAEHXZ				; CAction::IsDie
; Function compile flags: /Ogty
;	COMDAT ?IsDie@CAction@@QAEHXZ
_TEXT	SEGMENT
?IsDie@CAction@@QAEHXZ PROC NEAR			; CAction::IsDie, COMDAT
; _this$ = ecx

; 310  : 	BOOL			IsDie() { return (m_dwState & OBJSTA_DIE_ALL) ? TRUE : FALSE; }

  00000	8b 41 04	 mov	 eax, DWORD PTR [ecx+4]
  00003	c1 e8 1b	 shr	 eax, 27			; 0000001bH
  00006	83 e0 01	 and	 eax, 1
  00009	c3		 ret	 0
?IsDie@CAction@@QAEHXZ ENDP				; CAction::IsDie
_TEXT	ENDS
PUBLIC	?GetMover@CAIInterface@@IAEPAVCMover@@XZ	; CAIInterface::GetMover
; Function compile flags: /Ogty
; File c:\documents and settings\test\mes documents\source\virtuos_v17\build\program\_aiinterface\aiinterface.h
;	COMDAT ?GetMover@CAIInterface@@IAEPAVCMover@@XZ
_TEXT	SEGMENT
?GetMover@CAIInterface@@IAEPAVCMover@@XZ PROC NEAR	; CAIInterface::GetMover, COMDAT
; _this$ = ecx

; 127  : 	CMover* GetMover() { return (CMover*)m_pObj; }

  00000	8b 41 30	 mov	 eax, DWORD PTR [ecx+48]
  00003	c3		 ret	 0
?GetMover@CAIInterface@@IAEPAVCMover@@XZ ENDP		; CAIInterface::GetMover
_TEXT	ENDS
PUBLIC	?GetAggro@CMover@@QAEKXZ			; CMover::GetAggro
; Function compile flags: /Ogty
; File c:\documents and settings\test\mes documents\source\virtuos_v17\build\program\_common\mover.h
;	COMDAT ?GetAggro@CMover@@QAEKXZ
_TEXT	SEGMENT
?GetAggro@CMover@@QAEKXZ PROC NEAR			; CMover::GetAggro, COMDAT
; _this$ = ecx

; 802  : 	DWORD	GetAggro(){ return m_dwAggro; };

  00000	8b 81 88 11 00
	00		 mov	 eax, DWORD PTR [ecx+4488]
  00006	c3		 ret	 0
?GetAggro@CMover@@QAEKXZ ENDP				; CMover::GetAggro
_TEXT	ENDS
PUBLIC	?SetAggro@CMover@@QAEXJ@Z			; CMover::SetAggro
; Function compile flags: /Ogty
;	COMDAT ?SetAggro@CMover@@QAEXJ@Z
_TEXT	SEGMENT
_dwAggro$ = 8						; size = 4
?SetAggro@CMover@@QAEXJ@Z PROC NEAR			; CMover::SetAggro, COMDAT
; _this$ = ecx

; 803  : 	void	SetAggro( long dwAggro ){ if( dwAggro >= 0 ) m_dwAggro = (DWORD)dwAggro; else m_dwAggro = 0; };

  00000	8b 44 24 04	 mov	 eax, DWORD PTR _dwAggro$[esp-4]
  00004	33 d2		 xor	 edx, edx
  00006	85 c0		 test	 eax, eax
  00008	0f 9c c2	 setl	 dl
  0000b	4a		 dec	 edx
  0000c	23 d0		 and	 edx, eax
  0000e	89 91 88 11 00
	00		 mov	 DWORD PTR [ecx+4488], edx
  00014	c2 04 00	 ret	 4
?SetAggro@CMover@@QAEXJ@Z ENDP				; CMover::SetAggro
_TEXT	ENDS
PUBLIC	?GetPartyId@CMover@@QAEKXZ			; CMover::GetPartyId
; Function compile flags: /Ogty
;	COMDAT ?GetPartyId@CMover@@QAEKXZ
_TEXT	SEGMENT
?GetPartyId@CMover@@QAEKXZ PROC NEAR			; CMover::GetPartyId, COMDAT
; _this$ = ecx

; 1025 : 	u_long			GetPartyId() { return m_idparty; }

  00000	8b 81 18 07 00
	00		 mov	 eax, DWORD PTR [ecx+1816]
  00006	c3		 ret	 0
?GetPartyId@CMover@@QAEKXZ ENDP				; CMover::GetPartyId
_TEXT	ENDS
PUBLIC	?IsPlayer@CMover@@QAEHXZ			; CMover::IsPlayer
; Function compile flags: /Ogty
;	COMDAT ?IsPlayer@CMover@@QAEHXZ
_TEXT	SEGMENT
?IsPlayer@CMover@@QAEHXZ PROC NEAR			; CMover::IsPlayer, COMDAT
; _this$ = ecx

; 1042 : 	BOOL			IsPlayer()			{ return m_bPlayer; }

  00000	8b 81 34 02 00
	00		 mov	 eax, DWORD PTR [ecx+564]
  00006	c3		 ret	 0
?IsPlayer@CMover@@QAEHXZ ENDP				; CMover::IsPlayer
_TEXT	ENDS
PUBLIC	?IsFlyingNPC@CMover@@QAEHXZ			; CMover::IsFlyingNPC
; Function compile flags: /Ogty
;	COMDAT ?IsFlyingNPC@CMover@@QAEHXZ
_TEXT	SEGMENT
?IsFlyingNPC@CMover@@QAEHXZ PROC NEAR			; CMover::IsFlyingNPC, COMDAT
; _this$ = ecx

; 1044 : 	BOOL			IsFlyingNPC()		{ return (m_dwTypeFlag & OBJTYPE_FLYING) ? TRUE : FALSE; }		//  .

  00000	33 c0		 xor	 eax, eax
  00002	8a 81 42 02 00
	00		 mov	 al, BYTE PTR [ecx+578]
  00008	83 e0 01	 and	 eax, 1
  0000b	c3		 ret	 0
?IsFlyingNPC@CMover@@QAEHXZ ENDP			; CMover::IsFlyingNPC
_TEXT	ENDS
PUBLIC	?GetPropA@CMover@@QAEPAUMoverProp@@XZ		; CMover::GetPropA
EXTRN	?prj@@3VCProject@@A:BYTE			; prj
; Function compile flags: /Ogty
;	COMDAT ?GetPropA@CMover@@QAEPAUMoverProp@@XZ
_TEXT	SEGMENT
?GetPropA@CMover@@QAEPAUMoverProp@@XZ PROC NEAR		; CMover::GetPropA, COMDAT
; _this$ = ecx

; 1046 : 	MoverProp*		GetProp() { return prj.GetMoverProp( m_dwIndex ); }	//    	

  00000	8b 81 74 01 00
	00		 mov	 eax, DWORD PTR [ecx+372]
  00006	85 c0		 test	 eax, eax
  00008	8b 0d d0 01 00
	00		 mov	 ecx, DWORD PTR ?prj@@3VCProject@@A+464
  0000e	7c 13		 jl	 SHORT $L257277
  00010	3b c1		 cmp	 eax, ecx
  00012	7d 0f		 jge	 SHORT $L257277
  00014	8b 0d d4 01 00
	00		 mov	 ecx, DWORD PTR ?prj@@3VCProject@@A+468
  0001a	69 c0 d8 06 00
	00		 imul	 eax, 1752		; 000006d8H
  00020	03 c1		 add	 eax, ecx
  00022	c3		 ret	 0
$L257277:
  00023	50		 push	 eax
  00024	51		 push	 ecx
  00025	6a 00		 push	 0
  00027	68 00 00 00 00	 push	 OFFSET FLAT:??_C@_0BJ@GKPOBPPI@GetMoverProp?5range_error?$AA@
  0002c	68 00 00 00 00	 push	 OFFSET FLAT:??_C@_0BM@HMFGHCP@?$CFs?5min?3?$CFd?0?5max?3?$CFd?0?5index?3?$CFd?$AA@
  00031	e8 00 00 00 00	 call	 ?Error@@YAPBDPBDZZ	; Error
  00036	83 c4 14	 add	 esp, 20			; 00000014H
  00039	33 c0		 xor	 eax, eax
  0003b	c3		 ret	 0
?GetPropA@CMover@@QAEPAUMoverProp@@XZ ENDP		; CMover::GetPropA
_TEXT	ENDS
PUBLIC	?GetLevel@CMover@@QAEHXZ			; CMover::GetLevel
; Function compile flags: /Ogty
;	COMDAT ?GetLevel@CMover@@QAEHXZ
_TEXT	SEGMENT
?GetLevel@CMover@@QAEHXZ PROC NEAR			; CMover::GetLevel, COMDAT
; _this$ = ecx

; 1159 : 	int				GetLevel() { return m_nLevel; }

  00000	8b 81 e0 05 00
	00		 mov	 eax, DWORD PTR [ecx+1504]
  00006	c3		 ret	 0
?GetLevel@CMover@@QAEHXZ ENDP				; CMover::GetLevel
_TEXT	ENDS
PUBLIC	?IsLive@CMover@@QAEHXZ				; CMover::IsLive
; Function compile flags: /Ogty
;	COMDAT ?IsLive@CMover@@QAEHXZ
_TEXT	SEGMENT
?IsLive@CMover@@QAEHXZ PROC NEAR			; CMover::IsLive, COMDAT
; _this$ = ecx

; 1277 : 	BOOL			IsLive() { return m_pActMover->IsDie() == FALSE || m_nHitPoint > 0; }		// &&   || .  != > 

  00000	8b 81 3c 02 00
	00		 mov	 eax, DWORD PTR [ecx+572]
  00006	f7 40 04 00 00
	00 08		 test	 DWORD PTR [eax+4], 134217728 ; 08000000H
  0000d	74 0d		 je	 SHORT $L257286
  0000f	8b 81 00 06 00
	00		 mov	 eax, DWORD PTR [ecx+1536]
  00015	85 c0		 test	 eax, eax
  00017	7f 03		 jg	 SHORT $L257286
  00019	33 c0		 xor	 eax, eax
  0001b	c3		 ret	 0
$L257286:
  0001c	b8 01 00 00 00	 mov	 eax, 1
  00021	c3		 ret	 0
?IsLive@CMover@@QAEHXZ ENDP				; CMover::IsLive
_TEXT	ENDS
PUBLIC	?IsChaotic@CMover@@QAEHXZ			; CMover::IsChaotic
; Function compile flags: /Ogty
;	COMDAT ?IsChaotic@CMover@@QAEHXZ
_TEXT	SEGMENT
?IsChaotic@CMover@@QAEHXZ PROC NEAR			; CMover::IsChaotic, COMDAT
; _this$ = ecx

; 1283 : 	BOOL			IsChaotic( void ) { return m_dwPKPropensity > 0; }	/// 

  00000	8b 91 60 07 00
	00		 mov	 edx, DWORD PTR [ecx+1888]
  00006	33 c0		 xor	 eax, eax
  00008	3b c2		 cmp	 eax, edx
  0000a	1b c0		 sbb	 eax, eax
  0000c	f7 d8		 neg	 eax
  0000e	c3		 ret	 0
?IsChaotic@CMover@@QAEHXZ ENDP				; CMover::IsChaotic
_TEXT	ENDS
PUBLIC	?IsMode@CMover@@QAEHK@Z				; CMover::IsMode
EXTRN	?GetAdjParam@CMover@@QAEHH@Z:NEAR		; CMover::GetAdjParam
; Function compile flags: /Ogty
;	COMDAT ?IsMode@CMover@@QAEHK@Z
_TEXT	SEGMENT
_dwMode$ = 8						; size = 4
?IsMode@CMover@@QAEHK@Z PROC NEAR			; CMover::IsMode, COMDAT
; _this$ = ecx

; 1762 : { 

  00000	53		 push	 ebx

; 1763 : #ifdef __HACK_0516
; 1764 : 	switch( dwMode )
; 1765 : 	{
; 1766 : 		case MATCHLESS_MODE:		//  
; 1767 : 		case ONEKILL_MODE:		//  
; 1768 : 		case MATCHLESS2_MODE:	//  2
; 1769 : 			if( m_dwAuthorization == AUTH_GENERAL )
; 1770 : 				return FALSE;
; 1771 : 			break;
; 1772 : 	}
; 1773 : #endif	// __HACK_0516
; 1774 : 	if( (dwMode & TRANSPARENT_MODE) )	//   

  00001	8b 5c 24 08	 mov	 ebx, DWORD PTR _dwMode$[esp]
  00005	f6 c3 02	 test	 bl, 2
  00008	56		 push	 esi
  00009	8b f1		 mov	 esi, ecx
  0000b	74 16		 je	 SHORT $L212480

; 1775 : 		if( GetAdjParam(DST_CHRSTATE) & CHS_INVISIBILITY )	//  ?

  0000d	6a 40		 push	 64			; 00000040H
  0000f	e8 00 00 00 00	 call	 ?GetAdjParam@CMover@@QAEHH@Z ; CMover::GetAdjParam
  00014	f6 c4 04	 test	 ah, 4
  00017	74 0a		 je	 SHORT $L212480
  00019	5e		 pop	 esi

; 1776 : 			return TRUE;

  0001a	b8 01 00 00 00	 mov	 eax, 1
  0001f	5b		 pop	 ebx

; 1778 : }	

  00020	c2 04 00	 ret	 4
$L212480:

; 1777 : 	return ( ( m_dwMode & dwMode ) == dwMode ) ? TRUE : FALSE; 

  00023	8b 86 44 02 00
	00		 mov	 eax, DWORD PTR [esi+580]
  00029	23 c3		 and	 eax, ebx
  0002b	2b c3		 sub	 eax, ebx
  0002d	f7 d8		 neg	 eax
  0002f	1b c0		 sbb	 eax, eax
  00031	5e		 pop	 esi
  00032	40		 inc	 eax
  00033	5b		 pop	 ebx

; 1778 : }	

  00034	c2 04 00	 ret	 4
?IsMode@CMover@@QAEHK@Z ENDP				; CMover::IsMode
_TEXT	ENDS
PUBLIC	?IsFly@CMover@@QAEHXZ				; CMover::IsFly
; Function compile flags: /Ogty
;	COMDAT ?IsFly@CMover@@QAEHXZ
_TEXT	SEGMENT
?IsFly@CMover@@QAEHXZ PROC NEAR				; CMover::IsFly, COMDAT
; _this$ = ecx

; 1787 : #ifdef _DEBUG
; 1788 : 	if( IsNPC() )
; 1789 : 	{
; 1790 : 		Error( _T( "CMover::IsFly : NPC IsFly()  . IsFlyingNPC() ! %s" ), m_szName );
; 1791 : 		return FALSE;
; 1792 : 	}
; 1793 : #endif
; 1794 : 	return m_pActMover->IsFly();

  00000	8b 81 3c 02 00
	00		 mov	 eax, DWORD PTR [ecx+572]
  00006	8b 40 08	 mov	 eax, DWORD PTR [eax+8]
  00009	c1 e8 03	 shr	 eax, 3
  0000c	83 e0 01	 and	 eax, 1

; 1795 : }

  0000f	c3		 ret	 0
?IsFly@CMover@@QAEHXZ ENDP				; CMover::IsFly
_TEXT	ENDS
PUBLIC	?size@?$basic_string@DU?$char_traits@D@std@@V?$allocator@D@2@@std@@QBEIXZ ; std::basic_string<char,std::char_traits<char>,std::allocator<char> >::size
; Function compile flags: /Ogty
; File c:\program files\microsoft visual studio .net 2003\vc7\include\xstring
;	COMDAT ?size@?$basic_string@DU?$char_traits@D@std@@V?$allocator@D@2@@std@@QBEIXZ
_TEXT	SEGMENT
?size@?$basic_string@DU?$char_traits@D@std@@V?$allocator@D@2@@std@@QBEIXZ PROC NEAR ; std::basic_string<char,std::char_traits<char>,std::allocator<char> >::size, COMDAT
; _this$ = ecx

; 1109 : 		return (_Mysize);

  00000	8b 41 14	 mov	 eax, DWORD PTR [ecx+20]

; 1110 : 		}

  00003	c3		 ret	 0
?size@?$basic_string@DU?$char_traits@D@std@@V?$allocator@D@2@@std@@QBEIXZ ENDP ; std::basic_string<char,std::char_traits<char>,std::allocator<char> >::size
_TEXT	ENDS
PUBLIC	?_Myptr@?$basic_string@DU?$char_traits@D@std@@V?$allocator@D@2@@std@@QBEPBDXZ ; std::basic_string<char,std::char_traits<char>,std::allocator<char> >::_Myptr
; Function compile flags: /Ogty
;	COMDAT ?_Myptr@?$basic_string@DU?$char_traits@D@std@@V?$allocator@D@2@@std@@QBEPBDXZ
_TEXT	SEGMENT
?_Myptr@?$basic_string@DU?$char_traits@D@std@@V?$allocator@D@2@@std@@QBEPBDXZ PROC NEAR ; std::basic_string<char,std::char_traits<char>,std::allocator<char> >::_Myptr, COMDAT
; _this$ = ecx

; 1537 : 		return (_BUF_SIZE <= _Myres ? _Bx._Ptr : _Bx._Buf);

  00000	83 79 18 10	 cmp	 DWORD PTR [ecx+24], 16	; 00000010H
  00004	72 04		 jb	 SHORT $L257309
  00006	8b 41 04	 mov	 eax, DWORD PTR [ecx+4]

; 1538 : 		}

  00009	c3		 ret	 0
$L257309:

; 1537 : 		return (_BUF_SIZE <= _Myres ? _Bx._Ptr : _Bx._Buf);

  0000a	8d 41 04	 lea	 eax, DWORD PTR [ecx+4]

; 1538 : 		}

  0000d	c3		 ret	 0
?_Myptr@?$basic_string@DU?$char_traits@D@std@@V?$allocator@D@2@@std@@QBEPBDXZ ENDP ; std::basic_string<char,std::char_traits<char>,std::allocator<char> >::_Myptr
_TEXT	ENDS
PUBLIC	??0?$allocator@D@std@@QAE@XZ			; std::allocator<char>::allocator<char>
; Function compile flags: /Ogty
; File c:\program files\microsoft visual studio .net 2003\vc7\include\xmemory
;	COMDAT ??0?$allocator@D@std@@QAE@XZ
_TEXT	SEGMENT
??0?$allocator@D@std@@QAE@XZ PROC NEAR			; std::allocator<char>::allocator<char>, COMDAT
; _this$ = ecx

; 111  : 	allocator()

  00000	8b c1		 mov	 eax, ecx

; 112  : 		{	// construct default allocator (do nothing)
; 113  : 		}

  00002	c3		 ret	 0
??0?$allocator@D@std@@QAE@XZ ENDP			; std::allocator<char>::allocator<char>
_TEXT	ENDS
PUBLIC	??0?$allocator@D@std@@QAE@ABV01@@Z		; std::allocator<char>::allocator<char>
; Function compile flags: /Ogty
;	COMDAT ??0?$allocator@D@std@@QAE@ABV01@@Z
_TEXT	SEGMENT
___formal$ = 8						; size = 4
??0?$allocator@D@std@@QAE@ABV01@@Z PROC NEAR		; std::allocator<char>::allocator<char>, COMDAT
; _this$ = ecx

; 115  : 	allocator(const allocator<_Ty>&)

  00000	8b c1		 mov	 eax, ecx

; 116  : 		{	// construct by copying (do nothing)
; 117  : 		}

  00002	c2 04 00	 ret	 4
??0?$allocator@D@std@@QAE@ABV01@@Z ENDP			; std::allocator<char>::allocator<char>
_TEXT	ENDS
PUBLIC	?_Myptr@?$basic_string@DU?$char_traits@D@std@@V?$allocator@D@2@@std@@QAEPADXZ ; std::basic_string<char,std::char_traits<char>,std::allocator<char> >::_Myptr
; Function compile flags: /Ogty
; File c:\program files\microsoft visual studio .net 2003\vc7\include\xstring
;	COMDAT ?_Myptr@?$basic_string@DU?$char_traits@D@std@@V?$allocator@D@2@@std@@QAEPADXZ
_TEXT	SEGMENT
?_Myptr@?$basic_string@DU?$char_traits@D@std@@V?$allocator@D@2@@std@@QAEPADXZ PROC NEAR ; std::basic_string<char,std::char_traits<char>,std::allocator<char> >::_Myptr, COMDAT
; _this$ = ecx

; 1532 : 		return (_BUF_SIZE <= _Myres ? _Bx._Ptr : _Bx._Buf);

  00000	83 79 18 10	 cmp	 DWORD PTR [ecx+24], 16	; 00000010H
  00004	72 04		 jb	 SHORT $L257320
  00006	8b 41 04	 mov	 eax, DWORD PTR [ecx+4]

; 1533 : 		}

  00009	c3		 ret	 0
$L257320:

; 1532 : 		return (_BUF_SIZE <= _Myres ? _Bx._Ptr : _Bx._Buf);

  0000a	8d 41 04	 lea	 eax, DWORD PTR [ecx+4]

; 1533 : 		}

  0000d	c3		 ret	 0
?_Myptr@?$basic_string@DU?$char_traits@D@std@@V?$allocator@D@2@@std@@QAEPADXZ ENDP ; std::basic_string<char,std::char_traits<char>,std::allocator<char> >::_Myptr
_TEXT	ENDS
PUBLIC	?deallocate@?$allocator@D@std@@QAEXPADI@Z	; std::allocator<char>::deallocate
; Function compile flags: /Ogty
; File c:\program files\microsoft visual studio .net 2003\vc7\include\xmemory
;	COMDAT ?deallocate@?$allocator@D@std@@QAEXPADI@Z
_TEXT	SEGMENT
__Ptr$ = 8						; size = 4
___formal$ = 12						; size = 4
?deallocate@?$allocator@D@std@@QAEXPADI@Z PROC NEAR	; std::allocator<char>::deallocate, COMDAT
; _this$ = ecx

; 132  : 		operator delete(_Ptr);

  00000	8b 44 24 04	 mov	 eax, DWORD PTR __Ptr$[esp-4]
  00004	50		 push	 eax
  00005	e8 00 00 00 00	 call	 ??3@YAXPAX@Z		; operator delete
  0000a	59		 pop	 ecx

; 133  : 		}

  0000b	c2 08 00	 ret	 8
?deallocate@?$allocator@D@std@@QAEXPADI@Z ENDP		; std::allocator<char>::deallocate
_TEXT	ENDS
PUBLIC	?_Inside@?$basic_string@DU?$char_traits@D@std@@V?$allocator@D@2@@std@@IAE_NPBD@Z ; std::basic_string<char,std::char_traits<char>,std::allocator<char> >::_Inside
; Function compile flags: /Ogty
; File c:\program files\microsoft visual studio .net 2003\vc7\include\xstring
;	COMDAT ?_Inside@?$basic_string@DU?$char_traits@D@std@@V?$allocator@D@2@@std@@IAE_NPBD@Z
_TEXT	SEGMENT
__Ptr$ = 8						; size = 4
?_Inside@?$basic_string@DU?$char_traits@D@std@@V?$allocator@D@2@@std@@IAE_NPBD@Z PROC NEAR ; std::basic_string<char,std::char_traits<char>,std::allocator<char> >::_Inside, COMDAT
; _this$ = ecx

; 1494 : 		{	// test if _Ptr points inside string

  00000	56		 push	 esi

; 1495 : 		if (_Ptr < _Myptr() || _Myptr() + _Mysize <= _Ptr)

  00001	8b 71 18	 mov	 esi, DWORD PTR [ecx+24]
  00004	83 fe 10	 cmp	 esi, 16			; 00000010H
  00007	57		 push	 edi
  00008	8d 41 04	 lea	 eax, DWORD PTR [ecx+4]
  0000b	72 04		 jb	 SHORT $L257333
  0000d	8b 10		 mov	 edx, DWORD PTR [eax]
  0000f	eb 02		 jmp	 SHORT $L257334
$L257333:
  00011	8b d0		 mov	 edx, eax
$L257334:
  00013	8b 7c 24 0c	 mov	 edi, DWORD PTR __Ptr$[esp+4]
  00017	3b fa		 cmp	 edi, edx
  00019	72 17		 jb	 SHORT $L222788
  0001b	83 fe 10	 cmp	 esi, 16			; 00000010H
  0001e	72 02		 jb	 SHORT $L257341
  00020	8b 00		 mov	 eax, DWORD PTR [eax]
$L257341:
  00022	8b 49 14	 mov	 ecx, DWORD PTR [ecx+20]
  00025	03 c8		 add	 ecx, eax
  00027	3b cf		 cmp	 ecx, edi
  00029	76 07		 jbe	 SHORT $L222788
  0002b	5f		 pop	 edi

; 1497 : 		else
; 1498 : 			return (true);

  0002c	b0 01		 mov	 al, 1
  0002e	5e		 pop	 esi

; 1499 : 		}

  0002f	c2 04 00	 ret	 4
$L222788:
  00032	5f		 pop	 edi

; 1496 : 			return (false);	// don't ask

  00033	32 c0		 xor	 al, al
  00035	5e		 pop	 esi

; 1499 : 		}

  00036	c2 04 00	 ret	 4
?_Inside@?$basic_string@DU?$char_traits@D@std@@V?$allocator@D@2@@std@@IAE_NPBD@Z ENDP ; std::basic_string<char,std::char_traits<char>,std::allocator<char> >::_Inside
_TEXT	ENDS
PUBLIC	?max_size@?$allocator@D@std@@QBEIXZ		; std::allocator<char>::max_size
; Function compile flags: /Ogty
; File c:\program files\microsoft visual studio .net 2003\vc7\include\xmemory
;	COMDAT ?max_size@?$allocator@D@std@@QBEIXZ
_TEXT	SEGMENT
?max_size@?$allocator@D@std@@QBEIXZ PROC NEAR		; std::allocator<char>::max_size, COMDAT
; _this$ = ecx

; 157  : 		_SIZT _Count = (_SIZT)(-1) / sizeof (_Ty);
; 158  : 		return (0 < _Count ? _Count : 1);

  00000	83 c8 ff	 or	 eax, -1

; 159  : 		}

  00003	c3		 ret	 0
?max_size@?$allocator@D@std@@QBEIXZ ENDP		; std::allocator<char>::max_size
_TEXT	ENDS
PUBLIC	??$_Allocate@D@std@@YAPADIPAD@Z			; std::_Allocate<char>
; Function compile flags: /Ogty
;	COMDAT ??$_Allocate@D@std@@YAPADIPAD@Z
_TEXT	SEGMENT
__Count$ = 8						; size = 4
___formal$ = 12						; size = 4
??$_Allocate@D@std@@YAPADIPAD@Z PROC NEAR		; std::_Allocate<char>, COMDAT

; 34   : 	return ((_Ty _FARQ *)operator new(_Count * sizeof (_Ty)));

  00000	8b 44 24 04	 mov	 eax, DWORD PTR __Count$[esp-4]
  00004	50		 push	 eax
  00005	e8 00 00 00 00	 call	 ??2@YAPAXI@Z		; operator new
  0000a	83 c4 04	 add	 esp, 4

; 35   : 	}

  0000d	c3		 ret	 0
??$_Allocate@D@std@@YAPADIPAD@Z ENDP			; std::_Allocate<char>
_TEXT	ENDS
PUBLIC	__real@3f800000
PUBLIC	?ScanTargetNext@CAIInterface@@IAEPAVCMover@@PAVCObj@@HKK@Z ; CAIInterface::ScanTargetNext
EXTRN	?HasBuffByIk3@CMover@@QAEHK@Z:NEAR		; CMover::HasBuffByIk3
EXTRN	__ftol2:NEAR
EXTRN	?GetLinkWidth@CLayeredLinkMap@@QAEHKHH@Z:NEAR	; CLayeredLinkMap::GetLinkWidth
EXTRN	?GetObj@CLayeredLinkMap@@QAEPAPAVCObj@@KKH@Z:NEAR ; CLayeredLinkMap::GetObj
EXTRN	?GetMaxLinkLevel@CLayeredLinkMap@@QAEHKH@Z:NEAR	; CLayeredLinkMap::GetMaxLinkLevel
;	COMDAT __real@3f800000
; File c:\documents and settings\test\mes documents\source\virtuos_v17\build\program\_common\obj.h
CONST	SEGMENT
__real@3f800000 DD 03f800000r			; 1
; Function compile flags: /Ogty
; File c:\documents and settings\test\mes documents\source\virtuos_v17\build\program\_aiinterface\aiinterface.cpp
CONST	ENDS
;	COMDAT ?ScanTargetNext@CAIInterface@@IAEPAVCMover@@PAVCObj@@HKK@Z
_TEXT	SEGMENT
__nLinkXMin$251870 = -128				; size = 4
__nLinkZMax$251873 = -124				; size = 4
__nX$251874 = -124					; size = 4
__i$251878 = -120					; size = 4
__nLinkX$251862 = -116					; size = 4
__nLinkZ$251864 = -112					; size = 4
__nLinkXMax$251872 = -108				; size = 4
__k$251894 = -104					; size = 4
__j$251890 = -100					; size = 4
tv814 = -96						; size = 4
tv790 = -96						; size = 4
__pObjs$251882 = -96					; size = 4
_this$ = -92						; size = 4
tv507 = -88						; size = 4
tv513 = -84						; size = 4
tv516 = -80						; size = 4
tv521 = -76						; size = 4
tv526 = -72						; size = 4
tv531 = -68						; size = 4
_bFlyMob$ = -64						; size = 4
_fRadius$ = -60						; size = 4
tv817 = -56						; size = 4
$T257486 = -52						; size = 4
_vPos$ = -48						; size = 12
_vDist$ = -36						; size = 12
$T257353 = -24						; size = 12
$T257354 = -12						; size = 12
_pObjCenter$ = 8					; size = 4
_nRange$ = 12						; size = 4
_dwIdTarget$ = 16					; size = 4
_uParty$ = 20						; size = 4
?ScanTargetNext@CAIInterface@@IAEPAVCMover@@PAVCObj@@HKK@Z PROC NEAR ; CAIInterface::ScanTargetNext, COMDAT
; _this$ = ecx

; 151  : {

  00000	81 ec 80 00 00
	00		 sub	 esp, 128		; 00000080H

; 152  : 	//   ,       .
; 153  : 	//    ,  
; 154  : 	if( uParty == 0 || nRange <= 0 || GetMover()->GetProp()->dwClass == RANK_GUARD )

  00006	8b 84 24 90 00
	00 00		 mov	 eax, DWORD PTR _uParty$[esp+124]
  0000d	85 c0		 test	 eax, eax
  0000f	53		 push	 ebx
  00010	57		 push	 edi
  00011	8b f9		 mov	 edi, ecx
  00013	89 7c 24 2c	 mov	 DWORD PTR _this$[esp+136], edi
  00017	0f 84 2f 04 00
	00		 je	 $L251853
  0001d	8b 9c 24 90 00
	00 00		 mov	 ebx, DWORD PTR _nRange$[esp+132]
  00024	85 db		 test	 ebx, ebx
  00026	0f 8e 20 04 00
	00		 jle	 $L251853
  0002c	8b 4f 30	 mov	 ecx, DWORD PTR [edi+48]
  0002f	e8 00 00 00 00	 call	 ?GetPropA@CMover@@QAEPAUMoverProp@@XZ ; CMover::GetPropA
  00034	83 b8 94 00 00
	00 08		 cmp	 DWORD PTR [eax+148], 8
  0003b	0f 84 0b 04 00
	00		 je	 $L251853
  00041	55		 push	 ebp
  00042	56		 push	 esi

; 156  : 
; 157  : 	TRACE( "ScanTargetNext\n" );
; 158  : 	CObj* pObj;
; 159  : 	D3DXVECTOR3 vPos	= pObjCenter->GetPos();

  00043	8b b4 24 94 00
	00 00		 mov	 esi, DWORD PTR _pObjCenter$[esp+140]
  0004a	8d 86 60 01 00
	00		 lea	 eax, DWORD PTR [esi+352]
  00050	8b 08		 mov	 ecx, DWORD PTR [eax]
  00052	8b 50 04	 mov	 edx, DWORD PTR [eax+4]
  00055	8b 40 08	 mov	 eax, DWORD PTR [eax+8]
  00058	89 54 24 64	 mov	 DWORD PTR _vPos$[esp+148], edx

; 164  : 	float fRadius	= (float)( nRange * nRange );

  0005c	8b d3		 mov	 edx, ebx
  0005e	0f af d3	 imul	 edx, ebx
  00061	89 4c 24 60	 mov	 DWORD PTR _vPos$[esp+144], ecx
  00065	89 44 24 68	 mov	 DWORD PTR _vPos$[esp+152], eax
  00069	8b 47 30	 mov	 eax, DWORD PTR [edi+48]
  0006c	89 54 24 30	 mov	 DWORD PTR tv790[esp+144], edx
  00070	33 c9		 xor	 ecx, ecx
  00072	8a 88 42 02 00
	00		 mov	 cl, BYTE PTR [eax+578]
  00078	db 44 24 30	 fild	 DWORD PTR tv790[esp+144]

; 165  : 
; 166  : 	FOR_LINKMAP( pObjCenter->GetWorld(), vPos, pObj, nRange, CObj::linkPlayer, GetMover()->GetLayer() )

  0007c	8b 86 6c 01 00
	00		 mov	 eax, DWORD PTR [esi+364]
  00082	d9 5c 24 54	 fstp	 DWORD PTR _fRadius$[esp+144]
  00086	db 40 14	 fild	 DWORD PTR [eax+20]
  00089	d8 3d 00 00 00
	00		 fdivr	 DWORD PTR __real@3f800000
  0008f	83 e1 01	 and	 ecx, 1
  00092	89 4c 24 50	 mov	 DWORD PTR _bFlyMob$[esp+144], ecx
  00096	d9 44 24 60	 fld	 DWORD PTR _vPos$[esp+144]
  0009a	d8 c9		 fmul	 ST(0), ST(1)
  0009c	e8 00 00 00 00	 call	 __ftol2
  000a1	d8 4c 24 68	 fmul	 DWORD PTR _vPos$[esp+152]
  000a5	89 44 24 1c	 mov	 DWORD PTR __nLinkX$251862[esp+144], eax
  000a9	e8 00 00 00 00	 call	 __ftol2
  000ae	8b 8e 6c 01 00
	00		 mov	 ecx, DWORD PTR [esi+364]
  000b4	89 44 24 20	 mov	 DWORD PTR __nLinkZ$251864[esp+144], eax
  000b8	8b 47 30	 mov	 eax, DWORD PTR [edi+48]
  000bb	8b 80 b8 01 00
	00		 mov	 eax, DWORD PTR [eax+440]
  000c1	50		 push	 eax
  000c2	33 ed		 xor	 ebp, ebp
  000c4	6a 02		 push	 2
  000c6	83 c1 24	 add	 ecx, 36			; 00000024H
  000c9	89 6c 24 20	 mov	 DWORD PTR __i$251878[esp+152], ebp
  000cd	e8 00 00 00 00	 call	 ?GetMaxLinkLevel@CLayeredLinkMap@@QAEHKH@Z ; CLayeredLinkMap::GetMaxLinkLevel
  000d2	85 c0		 test	 eax, eax
  000d4	0f 8e 54 03 00
	00		 jle	 $L251881
  000da	d9 44 24 60	 fld	 DWORD PTR _vPos$[esp+144]
  000de	e8 00 00 00 00	 call	 __ftol2
  000e3	d9 44 24 68	 fld	 DWORD PTR _vPos$[esp+152]
  000e7	89 44 24 38	 mov	 DWORD PTR tv507[esp+144], eax
  000eb	e8 00 00 00 00	 call	 __ftol2
  000f0	8b 4c 24 1c	 mov	 ecx, DWORD PTR __nLinkX$251862[esp+144]
  000f4	8b 54 24 20	 mov	 edx, DWORD PTR __nLinkZ$251864[esp+144]
  000f8	89 44 24 3c	 mov	 DWORD PTR tv513[esp+144], eax
  000fc	8b c1		 mov	 eax, ecx
  000fe	2b c3		 sub	 eax, ebx
  00100	89 44 24 40	 mov	 DWORD PTR tv516[esp+144], eax
  00104	8b c2		 mov	 eax, edx
  00106	2b c3		 sub	 eax, ebx
  00108	03 cb		 add	 ecx, ebx
  0010a	03 d3		 add	 edx, ebx
  0010c	89 44 24 44	 mov	 DWORD PTR tv521[esp+144], eax
  00110	89 4c 24 48	 mov	 DWORD PTR tv526[esp+144], ecx
  00114	89 54 24 4c	 mov	 DWORD PTR tv531[esp+144], edx
  00118	eb 16		 jmp	 SHORT $L251879
$L257503:

; 160  : 	D3DXVECTOR3 vDist;
; 161  : 	CMover *pTarget	= NULL;
; 162  : 
; 163  : 	BOOL bFlyMob	= GetMover()->IsFlyingNPC();

  0011a	8b b4 24 94 00
	00 00		 mov	 esi, DWORD PTR _pObjCenter$[esp+140]
  00121	8b 7c 24 34	 mov	 edi, DWORD PTR _this$[esp+144]
  00125	8b 6c 24 18	 mov	 ebp, DWORD PTR __i$251878[esp+144]
  00129	8d a4 24 00 00
	00 00		 npad	 7
$L251879:

; 165  : 
; 166  : 	FOR_LINKMAP( pObjCenter->GetWorld(), vPos, pObj, nRange, CObj::linkPlayer, GetMover()->GetLayer() )

  00130	8b 4f 30	 mov	 ecx, DWORD PTR [edi+48]
  00133	8b 81 b8 01 00
	00		 mov	 eax, DWORD PTR [ecx+440]
  00139	8b 8e 6c 01 00
	00		 mov	 ecx, DWORD PTR [esi+364]
  0013f	50		 push	 eax
  00140	55		 push	 ebp
  00141	6a 02		 push	 2
  00143	83 c1 24	 add	 ecx, 36			; 00000024H
  00146	e8 00 00 00 00	 call	 ?GetLinkWidth@CLayeredLinkMap@@QAEHKHH@Z ; CLayeredLinkMap::GetLinkWidth
  0014b	8b 57 30	 mov	 edx, DWORD PTR [edi+48]
  0014e	8b 8e 6c 01 00
	00		 mov	 ecx, DWORD PTR [esi+364]
  00154	8b d8		 mov	 ebx, eax
  00156	8b 82 b8 01 00
	00		 mov	 eax, DWORD PTR [edx+440]
  0015c	50		 push	 eax
  0015d	55		 push	 ebp
  0015e	6a 02		 push	 2
  00160	83 c1 24	 add	 ecx, 36			; 00000024H
  00163	e8 00 00 00 00	 call	 ?GetObj@CLayeredLinkMap@@QAEPAPAVCObj@@KKH@Z ; CLayeredLinkMap::GetObj
  00168	8b b6 6c 01 00
	00		 mov	 esi, DWORD PTR [esi+364]
  0016e	89 44 24 30	 mov	 DWORD PTR __pObjs$251882[esp+144], eax
  00172	8b 46 04	 mov	 eax, DWORD PTR [esi+4]
  00175	8b f8		 mov	 edi, eax
  00177	c1 e0 07	 shl	 eax, 7
  0017a	0f af fb	 imul	 edi, ebx
  0017d	99		 cdq
  0017e	f7 ff		 idiv	 edi
  00180	8b 6e 08	 mov	 ebp, DWORD PTR [esi+8]
  00183	0f af eb	 imul	 ebp, ebx
  00186	8b 5e 14	 mov	 ebx, DWORD PTR [esi+20]
  00189	8b c8		 mov	 ecx, eax
  0018b	8b c3		 mov	 eax, ebx
  0018d	0f af c1	 imul	 eax, ecx
  00190	99		 cdq
  00191	2b c2		 sub	 eax, edx
  00193	8b f0		 mov	 esi, eax
  00195	8b 44 24 1c	 mov	 eax, DWORD PTR __nLinkX$251862[esp+144]
  00199	99		 cdq
  0019a	f7 f9		 idiv	 ecx
  0019c	8b 54 24 38	 mov	 edx, DWORD PTR tv507[esp+144]
  001a0	d1 fe		 sar	 esi, 1
  001a2	0f af c3	 imul	 eax, ebx
  001a5	0f af c1	 imul	 eax, ecx
  001a8	2b d0		 sub	 edx, eax
  001aa	33 c0		 xor	 eax, eax
  001ac	3b d6		 cmp	 edx, esi
  001ae	0f 9f c0	 setg	 al
  001b1	89 44 24 14	 mov	 DWORD PTR __nX$251874[esp+144], eax
  001b5	8b 44 24 20	 mov	 eax, DWORD PTR __nLinkZ$251864[esp+144]
  001b9	99		 cdq
  001ba	f7 f9		 idiv	 ecx
  001bc	8b 54 24 3c	 mov	 edx, DWORD PTR tv513[esp+144]
  001c0	0f af c3	 imul	 eax, ebx
  001c3	0f af c1	 imul	 eax, ecx
  001c6	2b d0		 sub	 edx, eax
  001c8	8b 44 24 40	 mov	 eax, DWORD PTR tv516[esp+144]
  001cc	33 db		 xor	 ebx, ebx
  001ce	3b d6		 cmp	 edx, esi
  001d0	99		 cdq
  001d1	0f 9f c3	 setg	 bl
  001d4	f7 f9		 idiv	 ecx
  001d6	8b 54 24 14	 mov	 edx, DWORD PTR __nX$251874[esp+144]
  001da	8d 44 10 ff	 lea	 eax, DWORD PTR [eax+edx-1]
  001de	85 c0		 test	 eax, eax
  001e0	89 44 24 10	 mov	 DWORD PTR __nLinkXMin$251870[esp+144], eax
  001e4	7d 08		 jge	 SHORT $L251886
  001e6	c7 44 24 10 00
	00 00 00	 mov	 DWORD PTR __nLinkXMin$251870[esp+144], 0
$L251886:
  001ee	8b 44 24 44	 mov	 eax, DWORD PTR tv521[esp+144]
  001f2	99		 cdq
  001f3	f7 f9		 idiv	 ecx
  001f5	8d 74 18 ff	 lea	 esi, DWORD PTR [eax+ebx-1]
  001f9	85 f6		 test	 esi, esi
  001fb	7d 02		 jge	 SHORT $L251887
  001fd	33 f6		 xor	 esi, esi
$L251887:
  001ff	8b 44 24 48	 mov	 eax, DWORD PTR tv526[esp+144]
  00203	99		 cdq
  00204	f7 f9		 idiv	 ecx
  00206	03 44 24 14	 add	 eax, DWORD PTR __nX$251874[esp+144]
  0020a	3b c7		 cmp	 eax, edi
  0020c	89 44 24 24	 mov	 DWORD PTR __nLinkXMax$251872[esp+144], eax
  00210	7c 07		 jl	 SHORT $L251888
  00212	8d 47 ff	 lea	 eax, DWORD PTR [edi-1]
  00215	89 44 24 24	 mov	 DWORD PTR __nLinkXMax$251872[esp+144], eax
$L251888:
  00219	8b 44 24 4c	 mov	 eax, DWORD PTR tv531[esp+144]
  0021d	99		 cdq
  0021e	f7 f9		 idiv	 ecx
  00220	03 c3		 add	 eax, ebx
  00222	3b c5		 cmp	 eax, ebp
  00224	89 44 24 14	 mov	 DWORD PTR __nLinkZMax$251873[esp+144], eax
  00228	7c 05		 jl	 SHORT $L251889
  0022a	4d		 dec	 ebp
  0022b	89 6c 24 14	 mov	 DWORD PTR __nLinkZMax$251873[esp+144], ebp
$L251889:
  0022f	3b 74 24 14	 cmp	 esi, DWORD PTR __nLinkZMax$251873[esp+144]
  00233	89 74 24 2c	 mov	 DWORD PTR __j$251890[esp+144], esi
  00237	0f 8f bb 01 00
	00		 jg	 $L251880
  0023d	8b 44 24 10	 mov	 eax, DWORD PTR __nLinkXMin$251870[esp+144]
  00241	0f af f7	 imul	 esi, edi
  00244	8b 54 24 30	 mov	 edx, DWORD PTR __pObjs$251882[esp+144]
  00248	03 f0		 add	 esi, eax
  0024a	8d 0c bd 00 00
	00 00		 lea	 ecx, DWORD PTR [edi*4]
  00251	8d 34 b2	 lea	 esi, DWORD PTR [edx+esi*4]
  00254	89 4c 24 58	 mov	 DWORD PTR tv817[esp+144], ecx
  00258	89 74 24 30	 mov	 DWORD PTR tv814[esp+144], esi
  0025c	8d 64 24 00	 npad	 4
$L251891:
  00260	8b 6c 24 24	 mov	 ebp, DWORD PTR __nLinkXMax$251872[esp+144]
  00264	3b c5		 cmp	 eax, ebp
  00266	89 44 24 28	 mov	 DWORD PTR __k$251894[esp+144], eax
  0026a	0f 8f 65 01 00
	00		 jg	 $L251892
  00270	8b fe		 mov	 edi, esi
$L251895:
  00272	8b 37		 mov	 esi, DWORD PTR [edi]
  00274	85 f6		 test	 esi, esi
  00276	bb e8 03 00 00	 mov	 ebx, 1000		; 000003e8H
  0027b	0f 84 3c 01 00
	00		 je	 $L251896
$L251900:
  00281	8b c3		 mov	 eax, ebx
  00283	4b		 dec	 ebx
  00284	85 c0		 test	 eax, eax
  00286	0f 84 31 01 00
	00		 je	 $L251896

; 167  : 	{
; 168  : 		pTarget	= (CMover *)pObj;
; 169  : 		if( pTarget->IsLive() && pTarget->GetId() != dwIdTarget ) 

  0028c	8b 86 3c 02 00
	00		 mov	 eax, DWORD PTR [esi+572]
  00292	f7 40 04 00 00
	00 08		 test	 DWORD PTR [eax+4], 134217728 ; 08000000H
  00299	74 0e		 je	 SHORT $L257447
  0029b	8b 8e 00 06 00
	00		 mov	 ecx, DWORD PTR [esi+1536]
  002a1	85 c9		 test	 ecx, ecx
  002a3	0f 8e 06 01 00
	00		 jle	 $L257502
$L257447:
  002a9	8b 8c 24 9c 00
	00 00		 mov	 ecx, DWORD PTR _dwIdTarget$[esp+140]
  002b0	39 8e bc 01 00
	00		 cmp	 DWORD PTR [esi+444], ecx
  002b6	0f 84 f3 00 00
	00		 je	 $L257502

; 170  : 		{
; 171  : 			if( bFlyMob == pTarget->IsFly() || bFlyMob == FALSE  )

  002bc	8b 50 08	 mov	 edx, DWORD PTR [eax+8]
  002bf	8b 44 24 50	 mov	 eax, DWORD PTR _bFlyMob$[esp+144]
  002c3	c1 ea 03	 shr	 edx, 3
  002c6	83 e2 01	 and	 edx, 1
  002c9	3b c2		 cmp	 eax, edx
  002cb	74 08		 je	 SHORT $L251905
  002cd	85 c0		 test	 eax, eax
  002cf	0f 85 da 00 00
	00		 jne	 $L257502
$L251905:

; 172  : 			{
; 173  : 				vDist	= pTarget->GetPos() - vPos;				

  002d5	8d 86 60 01 00
	00		 lea	 eax, DWORD PTR [esi+352]
  002db	8b 08		 mov	 ecx, DWORD PTR [eax]
  002dd	8b 50 04	 mov	 edx, DWORD PTR [eax+4]
  002e0	8b 40 08	 mov	 eax, DWORD PTR [eax+8]
  002e3	89 4c 24 78	 mov	 DWORD PTR $T257353[esp+144], ecx
  002e7	d9 44 24 78	 fld	 DWORD PTR $T257353[esp+144]
  002eb	d8 64 24 60	 fsub	 DWORD PTR _vPos$[esp+144]
  002ef	89 54 24 7c	 mov	 DWORD PTR $T257353[esp+148], edx
  002f3	89 84 24 80 00
	00 00		 mov	 DWORD PTR $T257353[esp+152], eax
  002fa	d9 9c 24 84 00
	00 00		 fstp	 DWORD PTR $T257354[esp+144]
  00301	8b 8c 24 84 00
	00 00		 mov	 ecx, DWORD PTR $T257354[esp+144]
  00308	d9 44 24 7c	 fld	 DWORD PTR $T257353[esp+148]
  0030c	89 4c 24 6c	 mov	 DWORD PTR _vDist$[esp+144], ecx
  00310	d8 64 24 64	 fsub	 DWORD PTR _vPos$[esp+148]
  00314	d9 9c 24 88 00
	00 00		 fstp	 DWORD PTR $T257354[esp+148]
  0031b	8b 94 24 88 00
	00 00		 mov	 edx, DWORD PTR $T257354[esp+148]
  00322	d9 84 24 80 00
	00 00		 fld	 DWORD PTR $T257353[esp+152]
  00329	89 54 24 70	 mov	 DWORD PTR _vDist$[esp+148], edx
  0032d	d8 64 24 68	 fsub	 DWORD PTR _vPos$[esp+152]
  00331	d9 9c 24 8c 00
	00 00		 fstp	 DWORD PTR $T257354[esp+152]
  00338	8b 84 24 8c 00
	00 00		 mov	 eax, DWORD PTR $T257354[esp+152]
  0033f	89 44 24 74	 mov	 DWORD PTR _vDist$[esp+152], eax

; 174  : 				if( D3DXVec3LengthSq( &vDist ) < fRadius && pTarget->m_idparty == uParty )

  00343	d9 44 24 74	 fld	 DWORD PTR _vDist$[esp+152]
  00347	d8 4c 24 74	 fmul	 DWORD PTR _vDist$[esp+152]
  0034b	d9 44 24 70	 fld	 DWORD PTR _vDist$[esp+148]
  0034f	d8 4c 24 70	 fmul	 DWORD PTR _vDist$[esp+148]
  00353	de c1		 faddp	 ST(1), ST(0)
  00355	d9 44 24 6c	 fld	 DWORD PTR _vDist$[esp+144]
  00359	d8 4c 24 6c	 fmul	 DWORD PTR _vDist$[esp+144]
  0035d	de c1		 faddp	 ST(1), ST(0)
  0035f	d8 5c 24 54	 fcomp	 DWORD PTR _fRadius$[esp+144]
  00363	df e0		 fnstsw	 ax
  00365	f6 c4 05	 test	 ah, 5
  00368	7a 45		 jp	 SHORT $L257502
  0036a	8b 8c 24 a0 00
	00 00		 mov	 ecx, DWORD PTR _uParty$[esp+140]
  00371	39 8e 18 07 00
	00		 cmp	 DWORD PTR [esi+1816], ecx
  00377	75 36		 jne	 SHORT $L257502

; 175  : 				{
; 176  : 					if( pTarget->IsMode( TRANSPARENT_MODE ) == FALSE )

  00379	6a 40		 push	 64			; 00000040H
  0037b	8b ce		 mov	 ecx, esi
  0037d	e8 00 00 00 00	 call	 ?GetAdjParam@CMover@@QAEHH@Z ; CMover::GetAdjParam
  00382	f6 c4 04	 test	 ah, 4
  00385	75 28		 jne	 SHORT $L257502
  00387	8b 96 44 02 00
	00		 mov	 edx, DWORD PTR [esi+580]
  0038d	80 e2 02	 and	 dl, 2
  00390	80 ea 02	 sub	 dl, 2
  00393	f6 da		 neg	 dl
  00395	1b d2		 sbb	 edx, edx
  00397	42		 inc	 edx
  00398	89 54 24 5c	 mov	 DWORD PTR $T257486[esp+144], edx
  0039c	75 11		 jne	 SHORT $L257502

; 177  : 						if( pTarget->HasBuffByIk3( IK3_TEXT_DISGUISE ) == FALSE )

  0039e	6a 51		 push	 81			; 00000051H
  003a0	8b ce		 mov	 ecx, esi
  003a2	e8 00 00 00 00	 call	 ?HasBuffByIk3@CMover@@QAEHK@Z ; CMover::HasBuffByIk3
  003a7	85 c0		 test	 eax, eax
  003a9	0f 84 8e 00 00
	00		 je	 $L257494
$L257502:

; 179  : 				}
; 180  : 			}
; 181  : 		}
; 182  : 	}
; 183  : 	END_LINKMAP

  003af	8b b6 80 01 00
	00		 mov	 esi, DWORD PTR [esi+384]
  003b5	85 f6		 test	 esi, esi
  003b7	0f 85 c4 fe ff
	ff		 jne	 $L251900
$L251896:

; 165  : 
; 166  : 	FOR_LINKMAP( pObjCenter->GetWorld(), vPos, pObj, nRange, CObj::linkPlayer, GetMover()->GetLayer() )

  003bd	8b 44 24 28	 mov	 eax, DWORD PTR __k$251894[esp+144]
  003c1	40		 inc	 eax
  003c2	83 c7 04	 add	 edi, 4
  003c5	3b c5		 cmp	 eax, ebp
  003c7	89 44 24 28	 mov	 DWORD PTR __k$251894[esp+144], eax
  003cb	0f 8e a1 fe ff
	ff		 jle	 $L251895
  003d1	8b 44 24 10	 mov	 eax, DWORD PTR __nLinkXMin$251870[esp+144]
$L251892:
  003d5	8b 4c 24 2c	 mov	 ecx, DWORD PTR __j$251890[esp+144]
  003d9	8b 74 24 30	 mov	 esi, DWORD PTR tv814[esp+144]
  003dd	8b 7c 24 58	 mov	 edi, DWORD PTR tv817[esp+144]
  003e1	8b 54 24 14	 mov	 edx, DWORD PTR __nLinkZMax$251873[esp+144]
  003e5	41		 inc	 ecx
  003e6	03 f7		 add	 esi, edi
  003e8	3b ca		 cmp	 ecx, edx
  003ea	89 4c 24 2c	 mov	 DWORD PTR __j$251890[esp+144], ecx
  003ee	89 74 24 30	 mov	 DWORD PTR tv814[esp+144], esi
  003f2	0f 8e 68 fe ff
	ff		 jle	 $L251891
$L251880:
  003f8	8b 44 24 34	 mov	 eax, DWORD PTR _this$[esp+144]
  003fc	8b 48 30	 mov	 ecx, DWORD PTR [eax+48]
  003ff	8b 81 b8 01 00
	00		 mov	 eax, DWORD PTR [ecx+440]
  00405	8b 94 24 94 00
	00 00		 mov	 edx, DWORD PTR _pObjCenter$[esp+140]
  0040c	8b 74 24 18	 mov	 esi, DWORD PTR __i$251878[esp+144]
  00410	8b 8a 6c 01 00
	00		 mov	 ecx, DWORD PTR [edx+364]
  00416	50		 push	 eax
  00417	46		 inc	 esi
  00418	6a 02		 push	 2
  0041a	83 c1 24	 add	 ecx, 36			; 00000024H
  0041d	89 74 24 20	 mov	 DWORD PTR __i$251878[esp+152], esi
  00421	e8 00 00 00 00	 call	 ?GetMaxLinkLevel@CLayeredLinkMap@@QAEHKH@Z ; CLayeredLinkMap::GetMaxLinkLevel
  00426	3b f0		 cmp	 esi, eax
  00428	0f 8c ec fc ff
	ff		 jl	 $L257503
$L251881:
  0042e	5e		 pop	 esi
  0042f	5d		 pop	 ebp
  00430	5f		 pop	 edi

; 184  : 	return NULL;

  00431	33 c0		 xor	 eax, eax
  00433	5b		 pop	 ebx

; 185  : }

  00434	81 c4 80 00 00
	00		 add	 esp, 128		; 00000080H
  0043a	c2 10 00	 ret	 16			; 00000010H
$L257494:

; 178  : 							return pTarget;

  0043d	8b c6		 mov	 eax, esi
  0043f	5e		 pop	 esi
  00440	5d		 pop	 ebp
  00441	5f		 pop	 edi
  00442	5b		 pop	 ebx

; 185  : }

  00443	81 c4 80 00 00
	00		 add	 esp, 128		; 00000080H
  00449	c2 10 00	 ret	 16			; 00000010H
$L251853:
  0044c	5f		 pop	 edi

; 155  : 		return NULL;

  0044d	33 c0		 xor	 eax, eax
  0044f	5b		 pop	 ebx

; 185  : }

  00450	81 c4 80 00 00
	00		 add	 esp, 128		; 00000080H
  00456	c2 10 00	 ret	 16			; 00000010H
?ScanTargetNext@CAIInterface@@IAEPAVCMover@@PAVCObj@@HKK@Z ENDP ; CAIInterface::ScanTargetNext
_TEXT	ENDS
PUBLIC	?ScanTarget@CAIInterface@@IAEPAVCMover@@PAVCObj@@HHKKH@Z ; CAIInterface::ScanTarget
EXTRN	?GetQuest@CMover@@QAEPAUtagQuest@@H@Z:NEAR	; CMover::GetQuest
EXTRN	?GetJob@CMover@@QAEHXZ:NEAR			; CMover::GetJob
EXTRN	?GetItemNum@CMover@@QAEHK@Z:NEAR		; CMover::GetItemNum
; Function compile flags: /Ogty
;	COMDAT ?ScanTarget@CAIInterface@@IAEPAVCMover@@PAVCObj@@HHKKH@Z
_TEXT	SEGMENT
__nLinkZMax$251945 = -140				; size = 4
__nX$251946 = -140					; size = 4
tv909 = -136						; size = 4
tv880 = -136						; size = 4
__pObjs$251954 = -136					; size = 4
__i$251950 = -132					; size = 4
__nLinkXMax$251944 = -128				; size = 4
__nLinkXMin$251942 = -124				; size = 4
_vPos$ = -120						; size = 12
_bCondScan$ = -108					; size = 4
__nLinkX$251934 = -104					; size = 4
_this$ = -100						; size = 4
__j$251962 = -96					; size = 4
__nLinkZ$251936 = -92					; size = 4
__k$251966 = -88					; size = 4
_vDist$ = -84						; size = 12
tv557 = -72						; size = 4
_fRadius$ = -68						; size = 4
tv562 = -64						; size = 4
tv912 = -60						; size = 4
tv572 = -56						; size = 4
___limit$251970 = -52					; size = 4
_bGuard$ = -48						; size = 4
_bFlyMob$ = -44						; size = 4
tv554 = -40						; size = 4
$T257511 = -36						; size = 12
tv548 = -24						; size = 4
tv567 = -20						; size = 4
$T257510 = -16						; size = 12
$T257676 = -4						; size = 4
_pObjCenter$ = 8					; size = 4
_nRangeMeter$ = 12					; size = 4
_nJobCond$ = 16						; size = 4
_dwQuest$ = 20						; size = 4
_dwItem$ = 24						; size = 4
_nChao$ = 28						; size = 4
?ScanTarget@CAIInterface@@IAEPAVCMover@@PAVCObj@@HHKKH@Z PROC NEAR ; CAIInterface::ScanTarget, COMDAT
; _this$ = ecx

; 191  : {

  00000	81 ec 8c 00 00
	00		 sub	 esp, 140		; 0000008cH
  00006	53		 push	 ebx
  00007	55		 push	 ebp
  00008	56		 push	 esi

; 192  : 	CObj* pObj;
; 193  : 	D3DXVECTOR3 vPos = pObjCenter->GetPos();

  00009	8b b4 24 9c 00
	00 00		 mov	 esi, DWORD PTR _pObjCenter$[esp+148]
  00010	8d 86 60 01 00
	00		 lea	 eax, DWORD PTR [esi+352]
  00016	57		 push	 edi
  00017	8b f9		 mov	 edi, ecx
  00019	8b 08		 mov	 ecx, DWORD PTR [eax]
  0001b	8b 50 04	 mov	 edx, DWORD PTR [eax+4]
  0001e	8b 40 08	 mov	 eax, DWORD PTR [eax+8]
  00021	89 44 24 2c	 mov	 DWORD PTR _vPos$[esp+164], eax

; 194  : 	D3DXVECTOR3 vDist;
; 195  : 	CMover *pTarget = NULL;
; 196  : 	int nAble = 0;
; 197  : 	BOOL bCondScan = FALSE;
; 198  : 	if( nJobCond || dwQuest || dwItem || nChao )

  00025	8b 84 24 a8 00
	00 00		 mov	 eax, DWORD PTR _nJobCond$[esp+152]
  0002c	33 ed		 xor	 ebp, ebp
  0002e	3b c5		 cmp	 eax, ebp
  00030	89 7c 24 38	 mov	 DWORD PTR _this$[esp+156], edi
  00034	89 4c 24 24	 mov	 DWORD PTR _vPos$[esp+156], ecx
  00038	89 54 24 28	 mov	 DWORD PTR _vPos$[esp+160], edx
  0003c	89 6c 24 30	 mov	 DWORD PTR _bCondScan$[esp+156], ebp
  00040	75 1b		 jne	 SHORT $L251929
  00042	39 ac 24 ac 00
	00 00		 cmp	 DWORD PTR _dwQuest$[esp+152], ebp
  00049	75 12		 jne	 SHORT $L251929
  0004b	39 ac 24 b0 00
	00 00		 cmp	 DWORD PTR _dwItem$[esp+152], ebp
  00052	75 09		 jne	 SHORT $L251929
  00054	39 ac 24 b4 00
	00 00		 cmp	 DWORD PTR _nChao$[esp+152], ebp
  0005b	74 08		 je	 SHORT $L257693
$L251929:

; 199  : 		bCondScan = TRUE;

  0005d	c7 44 24 30 01
	00 00 00	 mov	 DWORD PTR _bCondScan$[esp+156], 1
$L257693:

; 200  : 
; 201  : 	BOOL bGuard = ( GetMover()->GetProp()->dwClass == RANK_GUARD );

  00065	8b 4f 30	 mov	 ecx, DWORD PTR [edi+48]
  00068	8b 81 74 01 00
	00		 mov	 eax, DWORD PTR [ecx+372]
  0006e	3b c5		 cmp	 eax, ebp
  00070	8b 0d d0 01 00
	00		 mov	 ecx, DWORD PTR ?prj@@3VCProject@@A+464
  00076	7c 14		 jl	 SHORT $L257548
  00078	3b c1		 cmp	 eax, ecx
  0007a	7d 10		 jge	 SHORT $L257548
  0007c	8b 0d d4 01 00
	00		 mov	 ecx, DWORD PTR ?prj@@3VCProject@@A+468
  00082	69 c0 d8 06 00
	00		 imul	 eax, 1752		; 000006d8H
  00088	03 c1		 add	 eax, ecx
  0008a	eb 17		 jmp	 SHORT $L257543
$L257548:
  0008c	50		 push	 eax
  0008d	51		 push	 ecx
  0008e	55		 push	 ebp
  0008f	68 00 00 00 00	 push	 OFFSET FLAT:??_C@_0BJ@GKPOBPPI@GetMoverProp?5range_error?$AA@
  00094	68 00 00 00 00	 push	 OFFSET FLAT:??_C@_0BM@HMFGHCP@?$CFs?5min?3?$CFd?0?5max?3?$CFd?0?5index?3?$CFd?$AA@
  00099	e8 00 00 00 00	 call	 ?Error@@YAPBDPBDZZ	; Error
  0009e	83 c4 14	 add	 esp, 20			; 00000014H
  000a1	33 c0		 xor	 eax, eax
$L257543:
  000a3	8b 88 94 00 00
	00		 mov	 ecx, DWORD PTR [eax+148]

; 202  : 	BOOL bFlyMob = GetMover()->IsFlyingNPC();
; 203  : 
; 204  : 	float fRadius = (float)( nRangeMeter * nRangeMeter );	//  

  000a9	8b 9c 24 a4 00
	00 00		 mov	 ebx, DWORD PTR _nRangeMeter$[esp+152]
  000b0	33 d2		 xor	 edx, edx
  000b2	83 f9 08	 cmp	 ecx, 8
  000b5	0f 94 c2	 sete	 dl
  000b8	8b cb		 mov	 ecx, ebx
  000ba	0f af cb	 imul	 ecx, ebx
  000bd	89 4c 24 14	 mov	 DWORD PTR tv880[esp+156], ecx
  000c1	89 54 24 6c	 mov	 DWORD PTR _bGuard$[esp+156], edx

; 205  : 
; 206  : 	FOR_LINKMAP( pObjCenter->GetWorld(), vPos, pObj, nRangeMeter, CObj::linkPlayer, GetMover()->GetLayer() )

  000c5	8b 96 6c 01 00
	00		 mov	 edx, DWORD PTR [esi+364]
  000cb	db 44 24 14	 fild	 DWORD PTR tv880[esp+156]
  000cf	8b 47 30	 mov	 eax, DWORD PTR [edi+48]
  000d2	0f b6 80 42 02
	00 00		 movzx	 eax, BYTE PTR [eax+578]
  000d9	d9 5c 24 58	 fstp	 DWORD PTR _fRadius$[esp+156]
  000dd	db 42 14	 fild	 DWORD PTR [edx+20]

; 279  : 	return NULL;

  000e0	83 e0 01	 and	 eax, 1
  000e3	89 44 24 70	 mov	 DWORD PTR _bFlyMob$[esp+156], eax
  000e7	d8 3d 00 00 00
	00		 fdivr	 DWORD PTR __real@3f800000
  000ed	d9 44 24 24	 fld	 DWORD PTR _vPos$[esp+156]
  000f1	d8 c9		 fmul	 ST(0), ST(1)
  000f3	e8 00 00 00 00	 call	 __ftol2
  000f8	d8 4c 24 2c	 fmul	 DWORD PTR _vPos$[esp+164]
  000fc	89 44 24 34	 mov	 DWORD PTR __nLinkX$251934[esp+156], eax
  00100	e8 00 00 00 00	 call	 __ftol2
  00105	8b 8e 6c 01 00
	00		 mov	 ecx, DWORD PTR [esi+364]
  0010b	89 44 24 40	 mov	 DWORD PTR __nLinkZ$251936[esp+156], eax
  0010f	8b 47 30	 mov	 eax, DWORD PTR [edi+48]
  00112	8b 80 b8 01 00
	00		 mov	 eax, DWORD PTR [eax+440]
  00118	50		 push	 eax
  00119	6a 02		 push	 2
  0011b	83 c1 24	 add	 ecx, 36			; 00000024H
  0011e	89 6c 24 20	 mov	 DWORD PTR __i$251950[esp+164], ebp
  00122	e8 00 00 00 00	 call	 ?GetMaxLinkLevel@CLayeredLinkMap@@QAEHKH@Z ; CLayeredLinkMap::GetMaxLinkLevel
  00127	85 c0		 test	 eax, eax
  00129	0f 8e eb 03 00
	00		 jle	 $L251953
  0012f	d9 44 24 24	 fld	 DWORD PTR _vPos$[esp+156]
  00133	e8 00 00 00 00	 call	 __ftol2
  00138	d9 44 24 2c	 fld	 DWORD PTR _vPos$[esp+164]
  0013c	89 84 24 84 00
	00 00		 mov	 DWORD PTR tv548[esp+156], eax
  00143	e8 00 00 00 00	 call	 __ftol2
  00148	8b 4c 24 34	 mov	 ecx, DWORD PTR __nLinkX$251934[esp+156]
  0014c	8b 54 24 40	 mov	 edx, DWORD PTR __nLinkZ$251936[esp+156]
  00150	89 44 24 74	 mov	 DWORD PTR tv554[esp+156], eax
  00154	8b c1		 mov	 eax, ecx
  00156	2b c3		 sub	 eax, ebx
  00158	89 44 24 54	 mov	 DWORD PTR tv557[esp+156], eax
  0015c	8b c2		 mov	 eax, edx
  0015e	2b c3		 sub	 eax, ebx
  00160	03 cb		 add	 ecx, ebx
  00162	03 d3		 add	 edx, ebx
  00164	89 44 24 5c	 mov	 DWORD PTR tv562[esp+156], eax
  00168	89 8c 24 88 00
	00 00		 mov	 DWORD PTR tv567[esp+156], ecx
  0016f	89 54 24 64	 mov	 DWORD PTR tv572[esp+156], edx
  00173	eb 1b		 jmp	 SHORT $L251951
$L257694:

; 200  : 
; 201  : 	BOOL bGuard = ( GetMover()->GetProp()->dwClass == RANK_GUARD );

  00175	8b 7c 24 38	 mov	 edi, DWORD PTR _this$[esp+156]
  00179	8b b4 24 a0 00
	00 00		 mov	 esi, DWORD PTR _pObjCenter$[esp+152]
  00180	8b 6c 24 18	 mov	 ebp, DWORD PTR __i$251950[esp+156]
  00184	eb 0a 8d a4 24
	00 00 00 00 8d
	49 00		 npad	 12
$L251951:

; 205  : 
; 206  : 	FOR_LINKMAP( pObjCenter->GetWorld(), vPos, pObj, nRangeMeter, CObj::linkPlayer, GetMover()->GetLayer() )

  00190	8b 47 30	 mov	 eax, DWORD PTR [edi+48]
  00193	8b 80 b8 01 00
	00		 mov	 eax, DWORD PTR [eax+440]
  00199	8b 8e 6c 01 00
	00		 mov	 ecx, DWORD PTR [esi+364]
  0019f	50		 push	 eax
  001a0	55		 push	 ebp
  001a1	6a 02		 push	 2
  001a3	83 c1 24	 add	 ecx, 36			; 00000024H
  001a6	e8 00 00 00 00	 call	 ?GetLinkWidth@CLayeredLinkMap@@QAEHKHH@Z ; CLayeredLinkMap::GetLinkWidth
  001ab	8b 4f 30	 mov	 ecx, DWORD PTR [edi+48]
  001ae	8b d8		 mov	 ebx, eax
  001b0	8b 81 b8 01 00
	00		 mov	 eax, DWORD PTR [ecx+440]
  001b6	8b 8e 6c 01 00
	00		 mov	 ecx, DWORD PTR [esi+364]
  001bc	50		 push	 eax
  001bd	55		 push	 ebp
  001be	6a 02		 push	 2
  001c0	83 c1 24	 add	 ecx, 36			; 00000024H
  001c3	e8 00 00 00 00	 call	 ?GetObj@CLayeredLinkMap@@QAEPAPAVCObj@@KKH@Z ; CLayeredLinkMap::GetObj
  001c8	8b b6 6c 01 00
	00		 mov	 esi, DWORD PTR [esi+364]
  001ce	89 44 24 14	 mov	 DWORD PTR __pObjs$251954[esp+156], eax
  001d2	8b 46 04	 mov	 eax, DWORD PTR [esi+4]
  001d5	8b f8		 mov	 edi, eax
  001d7	c1 e0 07	 shl	 eax, 7
  001da	0f af fb	 imul	 edi, ebx
  001dd	99		 cdq
  001de	f7 ff		 idiv	 edi
  001e0	8b 6e 08	 mov	 ebp, DWORD PTR [esi+8]
  001e3	0f af eb	 imul	 ebp, ebx
  001e6	8b 5e 14	 mov	 ebx, DWORD PTR [esi+20]
  001e9	8b c8		 mov	 ecx, eax
  001eb	8b c3		 mov	 eax, ebx
  001ed	0f af c1	 imul	 eax, ecx
  001f0	99		 cdq
  001f1	2b c2		 sub	 eax, edx
  001f3	8b f0		 mov	 esi, eax
  001f5	8b 44 24 34	 mov	 eax, DWORD PTR __nLinkX$251934[esp+156]
  001f9	99		 cdq
  001fa	f7 f9		 idiv	 ecx
  001fc	8b 94 24 84 00
	00 00		 mov	 edx, DWORD PTR tv548[esp+156]
  00203	d1 fe		 sar	 esi, 1
  00205	0f af c3	 imul	 eax, ebx
  00208	0f af c1	 imul	 eax, ecx
  0020b	2b d0		 sub	 edx, eax
  0020d	33 c0		 xor	 eax, eax
  0020f	3b d6		 cmp	 edx, esi
  00211	0f 9f c0	 setg	 al
  00214	89 44 24 10	 mov	 DWORD PTR __nX$251946[esp+156], eax
  00218	8b 44 24 40	 mov	 eax, DWORD PTR __nLinkZ$251936[esp+156]
  0021c	99		 cdq
  0021d	f7 f9		 idiv	 ecx
  0021f	8b 54 24 74	 mov	 edx, DWORD PTR tv554[esp+156]
  00223	0f af c3	 imul	 eax, ebx
  00226	0f af c1	 imul	 eax, ecx
  00229	2b d0		 sub	 edx, eax
  0022b	8b 44 24 54	 mov	 eax, DWORD PTR tv557[esp+156]
  0022f	33 db		 xor	 ebx, ebx
  00231	3b d6		 cmp	 edx, esi
  00233	99		 cdq
  00234	0f 9f c3	 setg	 bl
  00237	f7 f9		 idiv	 ecx
  00239	8b 54 24 10	 mov	 edx, DWORD PTR __nX$251946[esp+156]
  0023d	8d 44 10 ff	 lea	 eax, DWORD PTR [eax+edx-1]
  00241	85 c0		 test	 eax, eax
  00243	89 44 24 20	 mov	 DWORD PTR __nLinkXMin$251942[esp+156], eax
  00247	7d 08		 jge	 SHORT $L251958
  00249	c7 44 24 20 00
	00 00 00	 mov	 DWORD PTR __nLinkXMin$251942[esp+156], 0
$L251958:
  00251	8b 44 24 5c	 mov	 eax, DWORD PTR tv562[esp+156]
  00255	99		 cdq
  00256	f7 f9		 idiv	 ecx
  00258	8d 74 18 ff	 lea	 esi, DWORD PTR [eax+ebx-1]
  0025c	85 f6		 test	 esi, esi
  0025e	7d 02		 jge	 SHORT $L251959
  00260	33 f6		 xor	 esi, esi
$L251959:
  00262	8b 84 24 88 00
	00 00		 mov	 eax, DWORD PTR tv567[esp+156]
  00269	99		 cdq
  0026a	f7 f9		 idiv	 ecx
  0026c	03 44 24 10	 add	 eax, DWORD PTR __nX$251946[esp+156]
  00270	3b c7		 cmp	 eax, edi
  00272	89 44 24 1c	 mov	 DWORD PTR __nLinkXMax$251944[esp+156], eax
  00276	7c 07		 jl	 SHORT $L251960
  00278	8d 47 ff	 lea	 eax, DWORD PTR [edi-1]
  0027b	89 44 24 1c	 mov	 DWORD PTR __nLinkXMax$251944[esp+156], eax
$L251960:
  0027f	8b 44 24 64	 mov	 eax, DWORD PTR tv572[esp+156]
  00283	99		 cdq
  00284	f7 f9		 idiv	 ecx
  00286	03 c3		 add	 eax, ebx
  00288	3b c5		 cmp	 eax, ebp
  0028a	89 44 24 10	 mov	 DWORD PTR __nLinkZMax$251945[esp+156], eax
  0028e	7c 05		 jl	 SHORT $L251961
  00290	4d		 dec	 ebp
  00291	89 6c 24 10	 mov	 DWORD PTR __nLinkZMax$251945[esp+156], ebp
$L251961:
  00295	3b 74 24 10	 cmp	 esi, DWORD PTR __nLinkZMax$251945[esp+156]
  00299	89 74 24 3c	 mov	 DWORD PTR __j$251962[esp+156], esi
  0029d	0f 8f 41 02 00
	00		 jg	 $L251952
  002a3	8b 44 24 20	 mov	 eax, DWORD PTR __nLinkXMin$251942[esp+156]
  002a7	0f af f7	 imul	 esi, edi
  002aa	8b 54 24 14	 mov	 edx, DWORD PTR __pObjs$251954[esp+156]
  002ae	03 f0		 add	 esi, eax
  002b0	8d 0c bd 00 00
	00 00		 lea	 ecx, DWORD PTR [edi*4]
  002b7	8d 34 b2	 lea	 esi, DWORD PTR [edx+esi*4]
  002ba	89 4c 24 60	 mov	 DWORD PTR tv912[esp+156], ecx
  002be	89 74 24 14	 mov	 DWORD PTR tv909[esp+156], esi
$L251963:
  002c2	3b 44 24 1c	 cmp	 eax, DWORD PTR __nLinkXMax$251944[esp+156]
  002c6	89 44 24 44	 mov	 DWORD PTR __k$251966[esp+156], eax
  002ca	0f 8f f1 01 00
	00		 jg	 $L251964
  002d0	8b ee		 mov	 ebp, esi
$L251967:
  002d2	8b 75 00	 mov	 esi, DWORD PTR [ebp]
  002d5	85 f6		 test	 esi, esi
  002d7	b8 e8 03 00 00	 mov	 eax, 1000		; 000003e8H
  002dc	0f 84 c3 01 00
	00		 je	 $L251968
  002e2	eb 04		 jmp	 SHORT $L251972
$L257695:
  002e4	8b 44 24 68	 mov	 eax, DWORD PTR ___limit$251970[esp+156]
$L251972:
  002e8	8b c8		 mov	 ecx, eax
  002ea	48		 dec	 eax
  002eb	85 c9		 test	 ecx, ecx
  002ed	89 44 24 68	 mov	 DWORD PTR ___limit$251970[esp+156], eax
  002f1	0f 84 ae 01 00
	00		 je	 $L251968

; 207  : 	{
; 208  : 		ASSERT( pObj->GetType() == OT_MOVER && ((CMover *)pObj)->IsPlayer() );
; 209  : 		pTarget = (CMover *)pObj;
; 210  : 
; 211  : 		//     .
; 212  : 		nAble = 0;
; 213  : 		//      .
; 214  : 		if( bCondScan == TRUE && pTarget->IsLive() ) 

  002f7	8b 44 24 30	 mov	 eax, DWORD PTR _bCondScan$[esp+156]
  002fb	33 db		 xor	 ebx, ebx
  002fd	83 f8 01	 cmp	 eax, 1
  00300	0f 85 91 01 00
	00		 jne	 $L257692
  00306	8b 96 3c 02 00
	00		 mov	 edx, DWORD PTR [esi+572]
  0030c	f7 42 04 00 00
	00 08		 test	 DWORD PTR [edx+4], 134217728 ; 08000000H
  00313	74 0e		 je	 SHORT $L257636
  00315	8b 86 00 06 00
	00		 mov	 eax, DWORD PTR [esi+1536]
  0031b	85 c0		 test	 eax, eax
  0031d	0f 8e 74 01 00
	00		 jle	 $L257692
$L257636:

; 215  : 		{
; 216  : 			// 1.       
; 217  : 			if( nJobCond == 0 )

  00323	8b bc 24 a8 00
	00 00		 mov	 edi, DWORD PTR _nJobCond$[esp+152]
  0032a	85 ff		 test	 edi, edi

; 218  : 				nAble++;
; 219  : 			else if( nJobCond == JOB_ALL || pTarget->GetJob() == nJobCond )		// JOB_ALL : 

  0032c	74 10		 je	 SHORT $L251980
  0032e	83 ff 28	 cmp	 edi, 40			; 00000028H
  00331	74 0b		 je	 SHORT $L251980
  00333	8b ce		 mov	 ecx, esi
  00335	e8 00 00 00 00	 call	 ?GetJob@CMover@@QAEHXZ	; CMover::GetJob
  0033a	3b c7		 cmp	 eax, edi
  0033c	75 05		 jne	 SHORT $L257689
$L251980:

; 220  : 				nAble++;

  0033e	bb 01 00 00 00	 mov	 ebx, 1
$L257689:

; 221  : 			// 2.     
; 222  : 			if( dwItem == 0 )

  00343	8b 84 24 b0 00
	00 00		 mov	 eax, DWORD PTR _dwItem$[esp+152]
  0034a	85 c0		 test	 eax, eax

; 223  : 				nAble++;
; 224  : 			else if( pTarget->GetItemNum( dwItem ) != 0 )	

  0034c	74 0c		 je	 SHORT $L257696
  0034e	50		 push	 eax
  0034f	8b ce		 mov	 ecx, esi
  00351	e8 00 00 00 00	 call	 ?GetItemNum@CMover@@QAEHK@Z ; CMover::GetItemNum
  00356	85 c0		 test	 eax, eax
  00358	74 01		 je	 SHORT $L257690
$L257696:

; 225  : 				nAble++;

  0035a	43		 inc	 ebx
$L257690:

; 226  : 			// 3.    
; 227  : 			if( dwQuest == 0 )

  0035b	8b 84 24 ac 00
	00 00		 mov	 eax, DWORD PTR _dwQuest$[esp+152]
  00362	85 c0		 test	 eax, eax

; 228  : 				nAble++;
; 229  : 			else if( pTarget->GetQuest( dwQuest ) != NULL )

  00364	74 0c		 je	 SHORT $L257697
  00366	50		 push	 eax
  00367	8b ce		 mov	 ecx, esi
  00369	e8 00 00 00 00	 call	 ?GetQuest@CMover@@QAEPAUtagQuest@@H@Z ; CMover::GetQuest
  0036e	85 c0		 test	 eax, eax
  00370	74 01		 je	 SHORT $L257691
$L257697:

; 230  : 				nAble++;	

  00372	43		 inc	 ebx
$L257691:

; 231  : 			//4.     
; 232  : 			if( nChao == 0 )

  00373	8b 84 24 b4 00
	00 00		 mov	 eax, DWORD PTR _nChao$[esp+152]
  0037a	85 c0		 test	 eax, eax

; 233  : 				nAble++;
; 234  : 			else

  0037c	74 20		 je	 SHORT $L257698

; 235  : 			{
; 236  : 				// 100 = , 101 = 
; 237  : 				if( nChao == 100 )

  0037e	83 f8 64	 cmp	 eax, 100		; 00000064H
  00381	75 0c		 jne	 SHORT $L251989

; 238  : 				{
; 239  : #if __VER >= 8 // __S8_PK
; 240  : 					if( pTarget->IsChaotic() )

  00383	8b 86 60 07 00
	00		 mov	 eax, DWORD PTR [esi+1888]
  00389	85 c0		 test	 eax, eax
  0038b	76 12		 jbe	 SHORT $L251993

; 241  : #else // __VER >= 8 // __S8_PK
; 242  : 					if( pTarget->IsGuardReactionChao() )
; 243  : #endif // __VER >= 8 // __S8_PK
; 244  : 						nAble++;
; 245  : 				}
; 246  : 				else if( nChao == 101 )

  0038d	eb 0f		 jmp	 SHORT $L257698
$L251989:
  0038f	83 f8 65	 cmp	 eax, 101		; 00000065H
  00392	75 0b		 jne	 SHORT $L251993

; 247  : 				{
; 248  : #if __VER >= 8 // __S8_PK
; 249  : 					if( !pTarget->IsChaotic() )

  00394	8b 86 60 07 00
	00		 mov	 eax, DWORD PTR [esi+1888]
  0039a	85 c0		 test	 eax, eax
  0039c	77 01		 ja	 SHORT $L251993
$L257698:

; 250  : #else // __VER >= 8 // __S8_PK
; 251  : 					if( pTarget->IsGuardReactionNormal() )
; 252  : #endif // __VER >= 8 // __S8_PK
; 253  : 						nAble++;

  0039e	43		 inc	 ebx
$L251993:

; 254  : 				}
; 255  : 			}
; 256  : 		}
; 257  : 		if( nAble == 4 )

  0039f	83 fb 04	 cmp	 ebx, 4
  003a2	0f 85 ef 00 00
	00		 jne	 $L257692

; 258  : 		{
; 259  : 			//   			
; 260  : 			//   ,    - 1. true true  2. false false
; 261  : 
; 262  : #ifdef __JHMA_VER_8_6     // 8      World
; 263  : 			if( bGuard || bFlyMob == pTarget->IsFly() || bFlyMob == FALSE  )		
; 264  : #else	// __VER >= 8  
; 265  : 			if( bGuard || bFlyMob == pTarget->IsFly() )		

  003a8	8b 44 24 6c	 mov	 eax, DWORD PTR _bGuard$[esp+156]
  003ac	85 c0		 test	 eax, eax
  003ae	75 1b		 jne	 SHORT $L251996
  003b0	8b 86 3c 02 00
	00		 mov	 eax, DWORD PTR [esi+572]
  003b6	8b 48 08	 mov	 ecx, DWORD PTR [eax+8]
  003b9	8b 44 24 70	 mov	 eax, DWORD PTR _bFlyMob$[esp+156]
  003bd	c1 e9 03	 shr	 ecx, 3
  003c0	83 e1 01	 and	 ecx, 1
  003c3	3b c1		 cmp	 eax, ecx
  003c5	0f 85 cc 00 00
	00		 jne	 $L257692
$L251996:

; 266  : #endif	// __VER >= 8  
; 267  : 			{
; 268  : 				vDist = pTarget->GetPos() - vPos;				

  003cb	8d 96 60 01 00
	00		 lea	 edx, DWORD PTR [esi+352]
  003d1	8b 02		 mov	 eax, DWORD PTR [edx]
  003d3	8b 4a 04	 mov	 ecx, DWORD PTR [edx+4]
  003d6	8b 52 08	 mov	 edx, DWORD PTR [edx+8]
  003d9	89 84 24 8c 00
	00 00		 mov	 DWORD PTR $T257510[esp+156], eax
  003e0	d9 84 24 8c 00
	00 00		 fld	 DWORD PTR $T257510[esp+156]
  003e7	d8 64 24 24	 fsub	 DWORD PTR _vPos$[esp+156]
  003eb	89 8c 24 90 00
	00 00		 mov	 DWORD PTR $T257510[esp+160], ecx
  003f2	89 94 24 94 00
	00 00		 mov	 DWORD PTR $T257510[esp+164], edx
  003f9	d9 5c 24 78	 fstp	 DWORD PTR $T257511[esp+156]
  003fd	8b 44 24 78	 mov	 eax, DWORD PTR $T257511[esp+156]
  00401	d9 84 24 90 00
	00 00		 fld	 DWORD PTR $T257510[esp+160]
  00408	89 44 24 48	 mov	 DWORD PTR _vDist$[esp+156], eax
  0040c	d8 64 24 28	 fsub	 DWORD PTR _vPos$[esp+160]
  00410	d9 5c 24 7c	 fstp	 DWORD PTR $T257511[esp+160]
  00414	8b 4c 24 7c	 mov	 ecx, DWORD PTR $T257511[esp+160]
  00418	d9 84 24 94 00
	00 00		 fld	 DWORD PTR $T257510[esp+164]
  0041f	89 4c 24 4c	 mov	 DWORD PTR _vDist$[esp+160], ecx
  00423	d8 64 24 2c	 fsub	 DWORD PTR _vPos$[esp+164]
  00427	d9 9c 24 80 00
	00 00		 fstp	 DWORD PTR $T257511[esp+164]
  0042e	8b 94 24 80 00
	00 00		 mov	 edx, DWORD PTR $T257511[esp+164]
  00435	89 54 24 50	 mov	 DWORD PTR _vDist$[esp+164], edx

; 269  : 				if( D3DXVec3LengthSq( &vDist ) < fRadius )	//      

  00439	d9 44 24 50	 fld	 DWORD PTR _vDist$[esp+164]
  0043d	d8 4c 24 50	 fmul	 DWORD PTR _vDist$[esp+164]
  00441	d9 44 24 4c	 fld	 DWORD PTR _vDist$[esp+160]
  00445	d8 4c 24 4c	 fmul	 DWORD PTR _vDist$[esp+160]
  00449	de c1		 faddp	 ST(1), ST(0)
  0044b	d9 44 24 48	 fld	 DWORD PTR _vDist$[esp+156]
  0044f	d8 4c 24 48	 fmul	 DWORD PTR _vDist$[esp+156]
  00453	de c1		 faddp	 ST(1), ST(0)
  00455	d8 5c 24 58	 fcomp	 DWORD PTR _fRadius$[esp+156]
  00459	df e0		 fnstsw	 ax
  0045b	f6 c4 05	 test	 ah, 5
  0045e	7a 37		 jp	 SHORT $L257692

; 270  : 				{
; 271  : 					if( pTarget->IsMode( TRANSPARENT_MODE ) == FALSE )

  00460	6a 40		 push	 64			; 00000040H
  00462	8b ce		 mov	 ecx, esi
  00464	e8 00 00 00 00	 call	 ?GetAdjParam@CMover@@QAEHH@Z ; CMover::GetAdjParam
  00469	f6 c4 04	 test	 ah, 4
  0046c	75 29		 jne	 SHORT $L257692
  0046e	8b 86 44 02 00
	00		 mov	 eax, DWORD PTR [esi+580]
  00474	24 02		 and	 al, 2
  00476	2c 02		 sub	 al, 2
  00478	f6 d8		 neg	 al
  0047a	1b c0		 sbb	 eax, eax
  0047c	40		 inc	 eax
  0047d	89 84 24 98 00
	00 00		 mov	 DWORD PTR $T257676[esp+156], eax
  00484	75 11		 jne	 SHORT $L257692

; 272  : 						if( pTarget->HasBuffByIk3( IK3_TEXT_DISGUISE ) == FALSE )

  00486	6a 51		 push	 81			; 00000051H
  00488	8b ce		 mov	 ecx, esi
  0048a	e8 00 00 00 00	 call	 ?HasBuffByIk3@CMover@@QAEHK@Z ; CMover::HasBuffByIk3
  0048f	85 c0		 test	 eax, eax
  00491	0f 84 92 00 00
	00		 je	 $L257684
$L257692:

; 274  : 				}
; 275  : 			}
; 276  : 		}
; 277  : 	}
; 278  : 	END_LINKMAP

  00497	8b b6 80 01 00
	00		 mov	 esi, DWORD PTR [esi+384]
  0049d	85 f6		 test	 esi, esi
  0049f	0f 85 3f fe ff
	ff		 jne	 $L257695
$L251968:

; 205  : 
; 206  : 	FOR_LINKMAP( pObjCenter->GetWorld(), vPos, pObj, nRangeMeter, CObj::linkPlayer, GetMover()->GetLayer() )

  004a5	8b 44 24 44	 mov	 eax, DWORD PTR __k$251966[esp+156]
  004a9	8b 4c 24 1c	 mov	 ecx, DWORD PTR __nLinkXMax$251944[esp+156]
  004ad	40		 inc	 eax
  004ae	83 c5 04	 add	 ebp, 4
  004b1	3b c1		 cmp	 eax, ecx
  004b3	89 44 24 44	 mov	 DWORD PTR __k$251966[esp+156], eax
  004b7	0f 8e 15 fe ff
	ff		 jle	 $L251967
  004bd	8b 44 24 20	 mov	 eax, DWORD PTR __nLinkXMin$251942[esp+156]
$L251964:
  004c1	8b 4c 24 3c	 mov	 ecx, DWORD PTR __j$251962[esp+156]
  004c5	8b 74 24 14	 mov	 esi, DWORD PTR tv909[esp+156]
  004c9	8b 7c 24 60	 mov	 edi, DWORD PTR tv912[esp+156]
  004cd	8b 54 24 10	 mov	 edx, DWORD PTR __nLinkZMax$251945[esp+156]
  004d1	41		 inc	 ecx
  004d2	03 f7		 add	 esi, edi
  004d4	3b ca		 cmp	 ecx, edx
  004d6	89 4c 24 3c	 mov	 DWORD PTR __j$251962[esp+156], ecx
  004da	89 74 24 14	 mov	 DWORD PTR tv909[esp+156], esi
  004de	0f 8e de fd ff
	ff		 jle	 $L251963
$L251952:
  004e4	8b 4c 24 38	 mov	 ecx, DWORD PTR _this$[esp+156]
  004e8	8b 51 30	 mov	 edx, DWORD PTR [ecx+48]
  004eb	8b 82 b8 01 00
	00		 mov	 eax, DWORD PTR [edx+440]
  004f1	8b 74 24 18	 mov	 esi, DWORD PTR __i$251950[esp+156]
  004f5	8b 8c 24 a0 00
	00 00		 mov	 ecx, DWORD PTR _pObjCenter$[esp+152]
  004fc	8b 89 6c 01 00
	00		 mov	 ecx, DWORD PTR [ecx+364]
  00502	50		 push	 eax
  00503	46		 inc	 esi
  00504	6a 02		 push	 2
  00506	83 c1 24	 add	 ecx, 36			; 00000024H
  00509	89 74 24 20	 mov	 DWORD PTR __i$251950[esp+164], esi
  0050d	e8 00 00 00 00	 call	 ?GetMaxLinkLevel@CLayeredLinkMap@@QAEHKH@Z ; CLayeredLinkMap::GetMaxLinkLevel
  00512	3b f0		 cmp	 esi, eax
  00514	0f 8c 5b fc ff
	ff		 jl	 $L257694
$L251953:
  0051a	5f		 pop	 edi
  0051b	5e		 pop	 esi
  0051c	5d		 pop	 ebp

; 279  : 	return NULL;

  0051d	33 c0		 xor	 eax, eax
  0051f	5b		 pop	 ebx

; 280  : }

  00520	81 c4 8c 00 00
	00		 add	 esp, 140		; 0000008cH
  00526	c2 18 00	 ret	 24			; 00000018H
$L257684:
  00529	5f		 pop	 edi

; 273  : 							return pTarget;

  0052a	8b c6		 mov	 eax, esi
  0052c	5e		 pop	 esi
  0052d	5d		 pop	 ebp
  0052e	5b		 pop	 ebx

; 280  : }

  0052f	81 c4 8c 00 00
	00		 add	 esp, 140		; 0000008cH
  00535	c2 18 00	 ret	 24			; 00000018H
?ScanTarget@CAIInterface@@IAEPAVCMover@@PAVCObj@@HHKKH@Z ENDP ; CAIInterface::ScanTarget
_TEXT	ENDS
PUBLIC	?ScanTargetStrong@CAIInterface@@IAEPAVCMover@@PAVCObj@@M@Z ; CAIInterface::ScanTargetStrong
EXTRN	?OLD_MPU@@3HB:DWORD				; OLD_MPU
; Function compile flags: /Ogty
;	COMDAT ?ScanTargetStrong@CAIInterface@@IAEPAVCMover@@PAVCObj@@M@Z
_TEXT	SEGMENT
_pObjMax$ = -104					; size = 4
__nLinkX$252014 = -100					; size = 4
__nLinkZ$252016 = -96					; size = 4
__nLinkXMin$252022 = -92				; size = 4
__i$252030 = -88					; size = 4
__nLinkXMax$252024 = -84				; size = 4
__nX$252026 = -84					; size = 4
tv684 = -80						; size = 4
__nZ$252027 = -80					; size = 4
tv73 = -76						; size = 4
__pObjs$252034 = -76					; size = 4
_this$ = -72						; size = 4
tv463 = -68						; size = 4
tv469 = -64						; size = 4
_fRadius$ = -60						; size = 4
tv688 = -56						; size = 4
$T257800 = -52						; size = 4
_vPos$ = -48						; size = 12
_vDist$ = -36						; size = 12
$T257702 = -24						; size = 12
$T257703 = -12						; size = 12
_pObjCenter$ = 8					; size = 4
_fRangeMeter$ = 12					; size = 4
?ScanTargetStrong@CAIInterface@@IAEPAVCMover@@PAVCObj@@M@Z PROC NEAR ; CAIInterface::ScanTargetStrong, COMDAT
; _this$ = ecx

; 284  : {

  00000	83 ec 68	 sub	 esp, 104		; 00000068H

; 285  : 	CObj *pObj;
; 286  : 	CObj *pObjMax = NULL;	//  .
; 287  : 	D3DXVECTOR3 vPos = pObjCenter->GetPos();
; 288  : 	D3DXVECTOR3 vDist;
; 289  : 	
; 290  : 	//  
; 291  : 	FLOAT fRadius = fRangeMeter * fRangeMeter;

  00003	d9 44 24 70	 fld	 DWORD PTR _fRangeMeter$[esp+100]
  00007	53		 push	 ebx
  00008	d8 4c 24 74	 fmul	 DWORD PTR _fRangeMeter$[esp+104]
  0000c	55		 push	 ebp
  0000d	56		 push	 esi
  0000e	57		 push	 edi
  0000f	8b 7c 24 7c	 mov	 edi, DWORD PTR _pObjCenter$[esp+116]
  00013	d9 5c 24 3c	 fstp	 DWORD PTR _fRadius$[esp+120]
  00017	8b d9		 mov	 ebx, ecx
  00019	8d 87 60 01 00
	00		 lea	 eax, DWORD PTR [edi+352]
  0001f	8b 08		 mov	 ecx, DWORD PTR [eax]
  00021	89 4c 24 48	 mov	 DWORD PTR _vPos$[esp+120], ecx

; 292  : 	
; 293  : 	FOR_LINKMAP( pObjCenter->GetWorld(), vPos, pObj, (int)( fRangeMeter / MPU ), CObj::linkPlayer, GetMover()->GetLayer() )

  00025	8b 8f 6c 01 00
	00		 mov	 ecx, DWORD PTR [edi+364]
  0002b	db 41 14	 fild	 DWORD PTR [ecx+20]
  0002e	8b 50 04	 mov	 edx, DWORD PTR [eax+4]
  00031	8b 40 08	 mov	 eax, DWORD PTR [eax+8]
  00034	33 f6		 xor	 esi, esi
  00036	d8 3d 00 00 00
	00		 fdivr	 DWORD PTR __real@3f800000
  0003c	89 5c 24 30	 mov	 DWORD PTR _this$[esp+120], ebx
  00040	89 74 24 10	 mov	 DWORD PTR _pObjMax$[esp+120], esi
  00044	89 54 24 4c	 mov	 DWORD PTR _vPos$[esp+124], edx
  00048	89 44 24 50	 mov	 DWORD PTR _vPos$[esp+128], eax
  0004c	d9 44 24 48	 fld	 DWORD PTR _vPos$[esp+120]
  00050	d8 c9		 fmul	 ST(0), ST(1)
  00052	e8 00 00 00 00	 call	 __ftol2
  00057	d8 4c 24 50	 fmul	 DWORD PTR _vPos$[esp+128]
  0005b	89 44 24 14	 mov	 DWORD PTR __nLinkX$252014[esp+120], eax
  0005f	e8 00 00 00 00	 call	 __ftol2
  00064	8b 53 30	 mov	 edx, DWORD PTR [ebx+48]
  00067	8b 8f 6c 01 00
	00		 mov	 ecx, DWORD PTR [edi+364]
  0006d	89 44 24 18	 mov	 DWORD PTR __nLinkZ$252016[esp+120], eax
  00071	8b 82 b8 01 00
	00		 mov	 eax, DWORD PTR [edx+440]
  00077	50		 push	 eax
  00078	33 ed		 xor	 ebp, ebp
  0007a	6a 02		 push	 2
  0007c	83 c1 24	 add	 ecx, 36			; 00000024H
  0007f	89 6c 24 28	 mov	 DWORD PTR __i$252030[esp+128], ebp
  00083	e8 00 00 00 00	 call	 ?GetMaxLinkLevel@CLayeredLinkMap@@QAEHKH@Z ; CLayeredLinkMap::GetMaxLinkLevel
  00088	85 c0		 test	 eax, eax
  0008a	0f 8e f1 02 00
	00		 jle	 $L257819
  00090	d9 44 24 48	 fld	 DWORD PTR _vPos$[esp+120]
  00094	e8 00 00 00 00	 call	 __ftol2
  00099	d9 44 24 50	 fld	 DWORD PTR _vPos$[esp+128]
  0009d	89 44 24 34	 mov	 DWORD PTR tv463[esp+120], eax
  000a1	e8 00 00 00 00	 call	 __ftol2
  000a6	89 44 24 38	 mov	 DWORD PTR tv469[esp+120], eax
  000aa	eb 14		 jmp	 SHORT $L252031
$L257821:
  000ac	8b 7c 24 7c	 mov	 edi, DWORD PTR _pObjCenter$[esp+116]
  000b0	8b 5c 24 30	 mov	 ebx, DWORD PTR _this$[esp+120]
  000b4	8b 6c 24 20	 mov	 ebp, DWORD PTR __i$252030[esp+120]
  000b8	eb 06 8d 9b 00
	00 00 00	 npad	 8
$L252031:
  000c0	8b 43 30	 mov	 eax, DWORD PTR [ebx+48]
  000c3	8b 80 b8 01 00
	00		 mov	 eax, DWORD PTR [eax+440]
  000c9	8b 8f 6c 01 00
	00		 mov	 ecx, DWORD PTR [edi+364]
  000cf	50		 push	 eax
  000d0	55		 push	 ebp
  000d1	6a 02		 push	 2
  000d3	83 c1 24	 add	 ecx, 36			; 00000024H
  000d6	e8 00 00 00 00	 call	 ?GetLinkWidth@CLayeredLinkMap@@QAEHKHH@Z ; CLayeredLinkMap::GetLinkWidth
  000db	8b 4b 30	 mov	 ecx, DWORD PTR [ebx+48]
  000de	8b f0		 mov	 esi, eax
  000e0	8b 81 b8 01 00
	00		 mov	 eax, DWORD PTR [ecx+440]
  000e6	8b 8f 6c 01 00
	00		 mov	 ecx, DWORD PTR [edi+364]
  000ec	50		 push	 eax
  000ed	55		 push	 ebp
  000ee	6a 02		 push	 2
  000f0	83 c1 24	 add	 ecx, 36			; 00000024H
  000f3	e8 00 00 00 00	 call	 ?GetObj@CLayeredLinkMap@@QAEPAPAVCObj@@KKH@Z ; CLayeredLinkMap::GetObj
  000f8	db 05 00 00 00
	00		 fild	 DWORD PTR ?OLD_MPU@@3HB	; OLD_MPU
  000fe	8b 8f 6c 01 00
	00		 mov	 ecx, DWORD PTR [edi+364]
  00104	89 44 24 2c	 mov	 DWORD PTR __pObjs$252034[esp+120], eax
  00108	8b 41 04	 mov	 eax, DWORD PTR [ecx+4]
  0010b	d8 bc 24 80 00
	00 00		 fdivr	 DWORD PTR _fRangeMeter$[esp+116]
  00112	8b f8		 mov	 edi, eax
  00114	c1 e0 07	 shl	 eax, 7
  00117	99		 cdq
  00118	8b 69 08	 mov	 ebp, DWORD PTR [ecx+8]
  0011b	8b 59 14	 mov	 ebx, DWORD PTR [ecx+20]
  0011e	0f af fe	 imul	 edi, esi
  00121	0f af ee	 imul	 ebp, esi
  00124	f7 ff		 idiv	 edi
  00126	8b f0		 mov	 esi, eax
  00128	8b c3		 mov	 eax, ebx
  0012a	0f af c6	 imul	 eax, esi
  0012d	99		 cdq
  0012e	2b c2		 sub	 eax, edx
  00130	8b c8		 mov	 ecx, eax
  00132	8b 44 24 14	 mov	 eax, DWORD PTR __nLinkX$252014[esp+120]
  00136	99		 cdq
  00137	f7 fe		 idiv	 esi
  00139	8b 54 24 34	 mov	 edx, DWORD PTR tv463[esp+120]
  0013d	d1 f9		 sar	 ecx, 1
  0013f	0f af c3	 imul	 eax, ebx
  00142	0f af c6	 imul	 eax, esi
  00145	2b d0		 sub	 edx, eax
  00147	33 c0		 xor	 eax, eax
  00149	3b d1		 cmp	 edx, ecx
  0014b	0f 9f c0	 setg	 al
  0014e	89 44 24 24	 mov	 DWORD PTR __nX$252026[esp+120], eax
  00152	8b 44 24 18	 mov	 eax, DWORD PTR __nLinkZ$252016[esp+120]
  00156	99		 cdq
  00157	f7 fe		 idiv	 esi
  00159	8b 54 24 38	 mov	 edx, DWORD PTR tv469[esp+120]
  0015d	0f af c3	 imul	 eax, ebx
  00160	0f af c6	 imul	 eax, esi
  00163	2b d0		 sub	 edx, eax
  00165	33 c0		 xor	 eax, eax
  00167	3b d1		 cmp	 edx, ecx
  00169	0f 9f c0	 setg	 al
  0016c	89 44 24 28	 mov	 DWORD PTR __nZ$252027[esp+120], eax
  00170	e8 00 00 00 00	 call	 __ftol2
  00175	8b 54 24 14	 mov	 edx, DWORD PTR __nLinkX$252014[esp+120]
  00179	8b d8		 mov	 ebx, eax
  0017b	8b c8		 mov	 ecx, eax
  0017d	f7 d9		 neg	 ecx
  0017f	8d 04 11	 lea	 eax, DWORD PTR [ecx+edx]
  00182	99		 cdq
  00183	f7 fe		 idiv	 esi
  00185	8b 54 24 24	 mov	 edx, DWORD PTR __nX$252026[esp+120]
  00189	8d 44 10 ff	 lea	 eax, DWORD PTR [eax+edx-1]
  0018d	85 c0		 test	 eax, eax
  0018f	89 44 24 1c	 mov	 DWORD PTR __nLinkXMin$252022[esp+120], eax
  00193	7d 08		 jge	 SHORT $L252039
  00195	c7 44 24 1c 00
	00 00 00	 mov	 DWORD PTR __nLinkXMin$252022[esp+120], 0
$L252039:
  0019d	8b 44 24 18	 mov	 eax, DWORD PTR __nLinkZ$252016[esp+120]
  001a1	03 c1		 add	 eax, ecx
  001a3	99		 cdq
  001a4	f7 fe		 idiv	 esi
  001a6	8b 4c 24 28	 mov	 ecx, DWORD PTR __nZ$252027[esp+120]
  001aa	8d 4c 08 ff	 lea	 ecx, DWORD PTR [eax+ecx-1]
  001ae	85 c9		 test	 ecx, ecx
  001b0	7d 02		 jge	 SHORT $L252041
  001b2	33 c9		 xor	 ecx, ecx
$L252041:
  001b4	8b 54 24 14	 mov	 edx, DWORD PTR __nLinkX$252014[esp+120]
  001b8	8d 04 13	 lea	 eax, DWORD PTR [ebx+edx]
  001bb	99		 cdq
  001bc	f7 fe		 idiv	 esi
  001be	03 44 24 24	 add	 eax, DWORD PTR __nX$252026[esp+120]
  001c2	3b c7		 cmp	 eax, edi
  001c4	89 44 24 24	 mov	 DWORD PTR __nLinkXMax$252024[esp+120], eax
  001c8	7c 07		 jl	 SHORT $L252043
  001ca	8d 47 ff	 lea	 eax, DWORD PTR [edi-1]
  001cd	89 44 24 24	 mov	 DWORD PTR __nLinkXMax$252024[esp+120], eax
$L252043:
  001d1	8b 54 24 18	 mov	 edx, DWORD PTR __nLinkZ$252016[esp+120]
  001d5	8d 04 13	 lea	 eax, DWORD PTR [ebx+edx]
  001d8	99		 cdq
  001d9	f7 fe		 idiv	 esi
  001db	03 44 24 28	 add	 eax, DWORD PTR __nZ$252027[esp+120]
  001df	3b c5		 cmp	 eax, ebp
  001e1	7c 03		 jl	 SHORT $L252045
  001e3	8d 45 ff	 lea	 eax, DWORD PTR [ebp-1]
$L252045:
  001e6	3b c8		 cmp	 ecx, eax
  001e8	0f 8f 52 01 00
	00		 jg	 $L252032
  001ee	8b f1		 mov	 esi, ecx
  001f0	0f af f7	 imul	 esi, edi
  001f3	8d 14 bd 00 00
	00 00		 lea	 edx, DWORD PTR [edi*4]
  001fa	8b 7c 24 2c	 mov	 edi, DWORD PTR __pObjs$252034[esp+120]
  001fe	89 54 24 40	 mov	 DWORD PTR tv688[esp+120], edx
  00202	8b 54 24 1c	 mov	 edx, DWORD PTR __nLinkXMin$252022[esp+120]
  00206	03 f2		 add	 esi, edx
  00208	2b c1		 sub	 eax, ecx
  0020a	8d 3c b7	 lea	 edi, DWORD PTR [edi+esi*4]
  0020d	40		 inc	 eax
  0020e	89 7c 24 28	 mov	 DWORD PTR tv684[esp+120], edi
  00212	89 44 24 2c	 mov	 DWORD PTR tv73[esp+120], eax
  00216	eb 08 8d a4 24
	00 00 00 00 90	 npad	 10
$L252047:
  00220	8b 44 24 24	 mov	 eax, DWORD PTR __nLinkXMax$252024[esp+120]
  00224	3b d0		 cmp	 edx, eax
  00226	0f 8f f7 00 00
	00		 jg	 $L252048
  0022c	8b d8		 mov	 ebx, eax
  0022e	2b da		 sub	 ebx, edx
  00230	43		 inc	 ebx
$L252051:
  00231	8b 37		 mov	 esi, DWORD PTR [edi]
  00233	85 f6		 test	 esi, esi
  00235	bd e8 03 00 00	 mov	 ebp, 1000		; 000003e8H
  0023a	0f 84 d5 00 00
	00		 je	 $L252052
$L252056:
  00240	8b c5		 mov	 eax, ebp
  00242	4d		 dec	 ebp
  00243	85 c0		 test	 eax, eax
  00245	0f 84 ca 00 00
	00		 je	 $L252052

; 294  : 	{
; 295  : 		vDist = pObj->GetPos() - vPos;	//  

  0024b	8d 8e 60 01 00
	00		 lea	 ecx, DWORD PTR [esi+352]
  00251	8b 11		 mov	 edx, DWORD PTR [ecx]
  00253	8b 41 04	 mov	 eax, DWORD PTR [ecx+4]
  00256	8b 49 08	 mov	 ecx, DWORD PTR [ecx+8]
  00259	89 54 24 60	 mov	 DWORD PTR $T257702[esp+120], edx
  0025d	d9 44 24 60	 fld	 DWORD PTR $T257702[esp+120]
  00261	d8 64 24 48	 fsub	 DWORD PTR _vPos$[esp+120]
  00265	89 44 24 64	 mov	 DWORD PTR $T257702[esp+124], eax
  00269	89 4c 24 68	 mov	 DWORD PTR $T257702[esp+128], ecx
  0026d	d9 5c 24 6c	 fstp	 DWORD PTR $T257703[esp+120]
  00271	8b 54 24 6c	 mov	 edx, DWORD PTR $T257703[esp+120]
  00275	d9 44 24 64	 fld	 DWORD PTR $T257702[esp+124]
  00279	89 54 24 54	 mov	 DWORD PTR _vDist$[esp+120], edx
  0027d	d8 64 24 4c	 fsub	 DWORD PTR _vPos$[esp+124]
  00281	d9 5c 24 70	 fstp	 DWORD PTR $T257703[esp+124]
  00285	8b 44 24 70	 mov	 eax, DWORD PTR $T257703[esp+124]
  00289	d9 44 24 68	 fld	 DWORD PTR $T257702[esp+128]
  0028d	89 44 24 58	 mov	 DWORD PTR _vDist$[esp+124], eax
  00291	d8 64 24 50	 fsub	 DWORD PTR _vPos$[esp+128]
  00295	d9 5c 24 74	 fstp	 DWORD PTR $T257703[esp+128]
  00299	8b 4c 24 74	 mov	 ecx, DWORD PTR $T257703[esp+128]
  0029d	89 4c 24 5c	 mov	 DWORD PTR _vDist$[esp+128], ecx

; 296  : 		float fDistSq = D3DXVec3LengthSq( &vDist );		//  Sq

  002a1	d9 44 24 5c	 fld	 DWORD PTR _vDist$[esp+128]
  002a5	d8 4c 24 5c	 fmul	 DWORD PTR _vDist$[esp+128]
  002a9	d9 44 24 58	 fld	 DWORD PTR _vDist$[esp+124]
  002ad	d8 4c 24 58	 fmul	 DWORD PTR _vDist$[esp+124]

; 312  : 
; 313  : 	return (CMover *)pObjMax;

  002b1	de c1		 faddp	 ST(1), ST(0)
  002b3	d9 44 24 54	 fld	 DWORD PTR _vDist$[esp+120]
  002b7	d8 4c 24 54	 fmul	 DWORD PTR _vDist$[esp+120]
  002bb	de c1		 faddp	 ST(1), ST(0)
  002bd	d8 5c 24 3c	 fcomp	 DWORD PTR _fRadius$[esp+120]
  002c1	df e0		 fnstsw	 ax
  002c3	f6 c4 05	 test	 ah, 5
  002c6	7a 3f		 jp	 SHORT $L257820
  002c8	6a 40		 push	 64			; 00000040H
  002ca	8b ce		 mov	 ecx, esi
  002cc	e8 00 00 00 00	 call	 ?GetAdjParam@CMover@@QAEHH@Z ; CMover::GetAdjParam
  002d1	f6 c4 04	 test	 ah, 4
  002d4	75 31		 jne	 SHORT $L257820
  002d6	8b 96 44 02 00
	00		 mov	 edx, DWORD PTR [esi+580]
  002dc	80 e2 02	 and	 dl, 2
  002df	80 ea 02	 sub	 dl, 2
  002e2	f6 da		 neg	 dl
  002e4	1b d2		 sbb	 edx, edx
  002e6	42		 inc	 edx
  002e7	89 54 24 44	 mov	 DWORD PTR $T257800[esp+120], edx
  002eb	75 1a		 jne	 SHORT $L257820
  002ed	8b 44 24 10	 mov	 eax, DWORD PTR _pObjMax$[esp+120]
  002f1	85 c0		 test	 eax, eax
  002f3	74 0e		 je	 SHORT $L252065
  002f5	8b 8e e0 05 00
	00		 mov	 ecx, DWORD PTR [esi+1504]
  002fb	3b 88 e0 05 00
	00		 cmp	 ecx, DWORD PTR [eax+1504]
  00301	7e 04		 jle	 SHORT $L257820
$L252065:

; 297  : 		if( fDistSq < fRadius )	
; 298  : 		{
; 299  : 			if(  !( ((CMover*)pObj)->IsMode( TRANSPARENT_MODE ) ) )
; 300  : 			{
; 301  : 				if( pObjMax )
; 302  : 				{
; 303  : 					if( ((CMover *)pObj)->GetLevel() > ((CMover *)pObjMax)->GetLevel() )		//   .
; 304  : 						pObjMax = pObj;
; 305  : 				} else
; 306  : 					pObjMax = pObj;

  00303	89 74 24 10	 mov	 DWORD PTR _pObjMax$[esp+120], esi
$L257820:

; 307  : 
; 308  : 			}
; 309  : 		}
; 310  : 	}
; 311  : 	END_LINKMAP

  00307	8b b6 80 01 00
	00		 mov	 esi, DWORD PTR [esi+384]
  0030d	85 f6		 test	 esi, esi
  0030f	0f 85 2b ff ff
	ff		 jne	 $L252056
$L252052:

; 292  : 	
; 293  : 	FOR_LINKMAP( pObjCenter->GetWorld(), vPos, pObj, (int)( fRangeMeter / MPU ), CObj::linkPlayer, GetMover()->GetLayer() )

  00315	83 c7 04	 add	 edi, 4
  00318	4b		 dec	 ebx
  00319	0f 85 12 ff ff
	ff		 jne	 $L252051
  0031f	8b 54 24 1c	 mov	 edx, DWORD PTR __nLinkXMin$252022[esp+120]
$L252048:
  00323	8b 7c 24 28	 mov	 edi, DWORD PTR tv684[esp+120]
  00327	8b 4c 24 40	 mov	 ecx, DWORD PTR tv688[esp+120]
  0032b	8b 44 24 2c	 mov	 eax, DWORD PTR tv73[esp+120]
  0032f	03 f9		 add	 edi, ecx
  00331	48		 dec	 eax
  00332	89 7c 24 28	 mov	 DWORD PTR tv684[esp+120], edi
  00336	89 44 24 2c	 mov	 DWORD PTR tv73[esp+120], eax
  0033a	0f 85 e0 fe ff
	ff		 jne	 $L252047
$L252032:
  00340	8b 54 24 30	 mov	 edx, DWORD PTR _this$[esp+120]
  00344	8b 42 30	 mov	 eax, DWORD PTR [edx+48]
  00347	8b 80 b8 01 00
	00		 mov	 eax, DWORD PTR [eax+440]
  0034d	8b 74 24 20	 mov	 esi, DWORD PTR __i$252030[esp+120]
  00351	8b 4c 24 7c	 mov	 ecx, DWORD PTR _pObjCenter$[esp+116]
  00355	8b 89 6c 01 00
	00		 mov	 ecx, DWORD PTR [ecx+364]
  0035b	50		 push	 eax
  0035c	46		 inc	 esi
  0035d	6a 02		 push	 2
  0035f	83 c1 24	 add	 ecx, 36			; 00000024H
  00362	89 74 24 28	 mov	 DWORD PTR __i$252030[esp+128], esi
  00366	e8 00 00 00 00	 call	 ?GetMaxLinkLevel@CLayeredLinkMap@@QAEHKH@Z ; CLayeredLinkMap::GetMaxLinkLevel
  0036b	3b f0		 cmp	 esi, eax
  0036d	0f 8c 39 fd ff
	ff		 jl	 $L257821

; 312  : 
; 313  : 	return (CMover *)pObjMax;

  00373	8b 44 24 10	 mov	 eax, DWORD PTR _pObjMax$[esp+120]
  00377	5f		 pop	 edi
  00378	5e		 pop	 esi
  00379	5d		 pop	 ebp
  0037a	5b		 pop	 ebx

; 314  : }

  0037b	83 c4 68	 add	 esp, 104		; 00000068H
  0037e	c2 08 00	 ret	 8
$L257819:
  00381	5f		 pop	 edi

; 312  : 
; 313  : 	return (CMover *)pObjMax;

  00382	8b c6		 mov	 eax, esi
  00384	5e		 pop	 esi
  00385	5d		 pop	 ebp
  00386	5b		 pop	 ebx

; 314  : }

  00387	83 c4 68	 add	 esp, 104		; 00000068H
  0038a	c2 08 00	 ret	 8
?ScanTargetStrong@CAIInterface@@IAEPAVCMover@@PAVCObj@@M@Z ENDP ; CAIInterface::ScanTargetStrong
_TEXT	ENDS
PUBLIC	?ScanTargetOverHealer@CAIInterface@@IAEPAVCMover@@PAVCObj@@M@Z ; CAIInterface::ScanTargetOverHealer
; Function compile flags: /Ogty
;	COMDAT ?ScanTargetOverHealer@CAIInterface@@IAEPAVCMover@@PAVCObj@@M@Z
_TEXT	SEGMENT
__nLinkX$252081 = -104					; size = 4
__nLinkZ$252083 = -100					; size = 4
__nLinkXMax$252091 = -96				; size = 4
__nLinkXMin$252089 = -92				; size = 4
__nLinkZMax$252092 = -88				; size = 4
__nX$252093 = -88					; size = 4
__i$252097 = -84					; size = 4
__j$252113 = -80					; size = 4
__nZ$252094 = -80					; size = 4
tv689 = -76						; size = 4
__pObjs$252101 = -76					; size = 4
_this$ = -72						; size = 4
tv463 = -68						; size = 4
tv469 = -64						; size = 4
_fRadius$ = -60						; size = 4
tv692 = -56						; size = 4
$T257924 = -52						; size = 4
_vPos$ = -48						; size = 12
_vDist$ = -36						; size = 12
$T257826 = -24						; size = 12
$T257827 = -12						; size = 12
_pObjCenter$ = 8					; size = 4
_fRangeMeter$ = 12					; size = 4
?ScanTargetOverHealer@CAIInterface@@IAEPAVCMover@@PAVCObj@@M@Z PROC NEAR ; CAIInterface::ScanTargetOverHealer, COMDAT
; _this$ = ecx

; 318  : {

  00000	83 ec 68	 sub	 esp, 104		; 00000068H

; 319  : #ifndef __CLIENT
; 320  : 	CObj *pObj;
; 321  : 	D3DXVECTOR3 vPos = pObjCenter->GetPos();
; 322  : 	D3DXVECTOR3 vDist;
; 323  : 	
; 324  : 	//  
; 325  : 	FLOAT fRadius = fRangeMeter * fRangeMeter;

  00003	d9 44 24 70	 fld	 DWORD PTR _fRangeMeter$[esp+100]
  00007	53		 push	 ebx
  00008	d8 4c 24 74	 fmul	 DWORD PTR _fRangeMeter$[esp+104]
  0000c	55		 push	 ebp
  0000d	56		 push	 esi
  0000e	57		 push	 edi
  0000f	8b 7c 24 7c	 mov	 edi, DWORD PTR _pObjCenter$[esp+116]
  00013	d9 5c 24 3c	 fstp	 DWORD PTR _fRadius$[esp+120]
  00017	8b d9		 mov	 ebx, ecx
  00019	8d 87 60 01 00
	00		 lea	 eax, DWORD PTR [edi+352]
  0001f	8b 08		 mov	 ecx, DWORD PTR [eax]
  00021	89 4c 24 48	 mov	 DWORD PTR _vPos$[esp+120], ecx

; 326  : 	
; 327  : 	FOR_LINKMAP( pObjCenter->GetWorld(), vPos, pObj, (int)( fRangeMeter / MPU ), CObj::linkPlayer, GetMover()->GetLayer() )

  00025	8b 8f 6c 01 00
	00		 mov	 ecx, DWORD PTR [edi+364]
  0002b	db 41 14	 fild	 DWORD PTR [ecx+20]
  0002e	8b 50 04	 mov	 edx, DWORD PTR [eax+4]
  00031	8b 40 08	 mov	 eax, DWORD PTR [eax+8]
  00034	89 5c 24 30	 mov	 DWORD PTR _this$[esp+120], ebx
  00038	d8 3d 00 00 00
	00		 fdivr	 DWORD PTR __real@3f800000
  0003e	89 54 24 4c	 mov	 DWORD PTR _vPos$[esp+124], edx
  00042	89 44 24 50	 mov	 DWORD PTR _vPos$[esp+128], eax
  00046	d9 44 24 48	 fld	 DWORD PTR _vPos$[esp+120]
  0004a	d8 c9		 fmul	 ST(0), ST(1)
  0004c	e8 00 00 00 00	 call	 __ftol2
  00051	d8 4c 24 50	 fmul	 DWORD PTR _vPos$[esp+128]
  00055	89 44 24 10	 mov	 DWORD PTR __nLinkX$252081[esp+120], eax
  00059	e8 00 00 00 00	 call	 __ftol2
  0005e	8b 53 30	 mov	 edx, DWORD PTR [ebx+48]
  00061	8b 8f 6c 01 00
	00		 mov	 ecx, DWORD PTR [edi+364]
  00067	89 44 24 14	 mov	 DWORD PTR __nLinkZ$252083[esp+120], eax
  0006b	8b 82 b8 01 00
	00		 mov	 eax, DWORD PTR [edx+440]
  00071	50		 push	 eax
  00072	33 ed		 xor	 ebp, ebp
  00074	6a 02		 push	 2
  00076	83 c1 24	 add	 ecx, 36			; 00000024H
  00079	89 6c 24 2c	 mov	 DWORD PTR __i$252097[esp+128], ebp
  0007d	e8 00 00 00 00	 call	 ?GetMaxLinkLevel@CLayeredLinkMap@@QAEHKH@Z ; CLayeredLinkMap::GetMaxLinkLevel
  00082	85 c0		 test	 eax, eax
  00084	0f 8e f3 02 00
	00		 jle	 $L252100
  0008a	d9 44 24 48	 fld	 DWORD PTR _vPos$[esp+120]
  0008e	e8 00 00 00 00	 call	 __ftol2
  00093	d9 44 24 50	 fld	 DWORD PTR _vPos$[esp+128]
  00097	89 44 24 34	 mov	 DWORD PTR tv463[esp+120], eax
  0009b	e8 00 00 00 00	 call	 __ftol2
  000a0	89 44 24 38	 mov	 DWORD PTR tv469[esp+120], eax
  000a4	eb 1a		 jmp	 SHORT $L252098
$L257941:
  000a6	8b 7c 24 7c	 mov	 edi, DWORD PTR _pObjCenter$[esp+116]
  000aa	8b 5c 24 30	 mov	 ebx, DWORD PTR _this$[esp+120]
  000ae	8b 6c 24 24	 mov	 ebp, DWORD PTR __i$252097[esp+120]
  000b2	eb 0c 8d a4 24
	00 00 00 00 eb
	03 8d 49 00	 npad	 14
$L252098:
  000c0	8b 43 30	 mov	 eax, DWORD PTR [ebx+48]
  000c3	8b 80 b8 01 00
	00		 mov	 eax, DWORD PTR [eax+440]
  000c9	8b 8f 6c 01 00
	00		 mov	 ecx, DWORD PTR [edi+364]
  000cf	50		 push	 eax
  000d0	55		 push	 ebp
  000d1	6a 02		 push	 2
  000d3	83 c1 24	 add	 ecx, 36			; 00000024H
  000d6	e8 00 00 00 00	 call	 ?GetLinkWidth@CLayeredLinkMap@@QAEHKHH@Z ; CLayeredLinkMap::GetLinkWidth
  000db	8b 4b 30	 mov	 ecx, DWORD PTR [ebx+48]
  000de	8b f0		 mov	 esi, eax
  000e0	8b 81 b8 01 00
	00		 mov	 eax, DWORD PTR [ecx+440]
  000e6	8b 8f 6c 01 00
	00		 mov	 ecx, DWORD PTR [edi+364]
  000ec	50		 push	 eax
  000ed	55		 push	 ebp
  000ee	6a 02		 push	 2
  000f0	83 c1 24	 add	 ecx, 36			; 00000024H
  000f3	e8 00 00 00 00	 call	 ?GetObj@CLayeredLinkMap@@QAEPAPAVCObj@@KKH@Z ; CLayeredLinkMap::GetObj
  000f8	db 05 00 00 00
	00		 fild	 DWORD PTR ?OLD_MPU@@3HB	; OLD_MPU
  000fe	8b 8f 6c 01 00
	00		 mov	 ecx, DWORD PTR [edi+364]
  00104	89 44 24 2c	 mov	 DWORD PTR __pObjs$252101[esp+120], eax
  00108	8b 41 04	 mov	 eax, DWORD PTR [ecx+4]
  0010b	d8 bc 24 80 00
	00 00		 fdivr	 DWORD PTR _fRangeMeter$[esp+116]
  00112	8b f8		 mov	 edi, eax
  00114	c1 e0 07	 shl	 eax, 7
  00117	99		 cdq
  00118	8b 69 08	 mov	 ebp, DWORD PTR [ecx+8]
  0011b	8b 59 14	 mov	 ebx, DWORD PTR [ecx+20]
  0011e	0f af fe	 imul	 edi, esi
  00121	0f af ee	 imul	 ebp, esi
  00124	f7 ff		 idiv	 edi
  00126	8b f0		 mov	 esi, eax
  00128	8b c3		 mov	 eax, ebx
  0012a	0f af c6	 imul	 eax, esi
  0012d	99		 cdq
  0012e	2b c2		 sub	 eax, edx
  00130	8b c8		 mov	 ecx, eax
  00132	8b 44 24 10	 mov	 eax, DWORD PTR __nLinkX$252081[esp+120]
  00136	99		 cdq
  00137	f7 fe		 idiv	 esi
  00139	8b 54 24 34	 mov	 edx, DWORD PTR tv463[esp+120]
  0013d	d1 f9		 sar	 ecx, 1
  0013f	0f af c3	 imul	 eax, ebx
  00142	0f af c6	 imul	 eax, esi
  00145	2b d0		 sub	 edx, eax
  00147	33 c0		 xor	 eax, eax
  00149	3b d1		 cmp	 edx, ecx
  0014b	0f 9f c0	 setg	 al
  0014e	89 44 24 20	 mov	 DWORD PTR __nX$252093[esp+120], eax
  00152	8b 44 24 14	 mov	 eax, DWORD PTR __nLinkZ$252083[esp+120]
  00156	99		 cdq
  00157	f7 fe		 idiv	 esi
  00159	8b 54 24 38	 mov	 edx, DWORD PTR tv469[esp+120]
  0015d	0f af c3	 imul	 eax, ebx
  00160	0f af c6	 imul	 eax, esi
  00163	2b d0		 sub	 edx, eax
  00165	33 c0		 xor	 eax, eax
  00167	3b d1		 cmp	 edx, ecx
  00169	0f 9f c0	 setg	 al
  0016c	89 44 24 28	 mov	 DWORD PTR __nZ$252094[esp+120], eax
  00170	e8 00 00 00 00	 call	 __ftol2
  00175	8b 54 24 10	 mov	 edx, DWORD PTR __nLinkX$252081[esp+120]
  00179	8b d8		 mov	 ebx, eax
  0017b	8b c8		 mov	 ecx, eax
  0017d	f7 d9		 neg	 ecx
  0017f	8d 04 11	 lea	 eax, DWORD PTR [ecx+edx]
  00182	99		 cdq
  00183	f7 fe		 idiv	 esi
  00185	8b 54 24 20	 mov	 edx, DWORD PTR __nX$252093[esp+120]
  00189	8d 44 10 ff	 lea	 eax, DWORD PTR [eax+edx-1]
  0018d	85 c0		 test	 eax, eax
  0018f	89 44 24 1c	 mov	 DWORD PTR __nLinkXMin$252089[esp+120], eax
  00193	7d 08		 jge	 SHORT $L252106
  00195	c7 44 24 1c 00
	00 00 00	 mov	 DWORD PTR __nLinkXMin$252089[esp+120], 0
$L252106:
  0019d	8b 44 24 14	 mov	 eax, DWORD PTR __nLinkZ$252083[esp+120]
  001a1	03 c1		 add	 eax, ecx
  001a3	99		 cdq
  001a4	f7 fe		 idiv	 esi
  001a6	8b 4c 24 28	 mov	 ecx, DWORD PTR __nZ$252094[esp+120]
  001aa	8d 4c 08 ff	 lea	 ecx, DWORD PTR [eax+ecx-1]
  001ae	85 c9		 test	 ecx, ecx
  001b0	7d 02		 jge	 SHORT $L252108
  001b2	33 c9		 xor	 ecx, ecx
$L252108:
  001b4	8b 54 24 10	 mov	 edx, DWORD PTR __nLinkX$252081[esp+120]
  001b8	8d 04 13	 lea	 eax, DWORD PTR [ebx+edx]
  001bb	99		 cdq
  001bc	f7 fe		 idiv	 esi
  001be	03 44 24 20	 add	 eax, DWORD PTR __nX$252093[esp+120]
  001c2	3b c7		 cmp	 eax, edi
  001c4	89 44 24 18	 mov	 DWORD PTR __nLinkXMax$252091[esp+120], eax
  001c8	7c 07		 jl	 SHORT $L252110
  001ca	8d 47 ff	 lea	 eax, DWORD PTR [edi-1]
  001cd	89 44 24 18	 mov	 DWORD PTR __nLinkXMax$252091[esp+120], eax
$L252110:
  001d1	8b 54 24 14	 mov	 edx, DWORD PTR __nLinkZ$252083[esp+120]
  001d5	8d 04 13	 lea	 eax, DWORD PTR [ebx+edx]
  001d8	99		 cdq
  001d9	f7 fe		 idiv	 esi
  001db	03 44 24 28	 add	 eax, DWORD PTR __nZ$252094[esp+120]
  001df	3b c5		 cmp	 eax, ebp
  001e1	89 44 24 20	 mov	 DWORD PTR __nLinkZMax$252092[esp+120], eax
  001e5	7c 05		 jl	 SHORT $L252112
  001e7	4d		 dec	 ebp
  001e8	89 6c 24 20	 mov	 DWORD PTR __nLinkZMax$252092[esp+120], ebp
$L252112:
  001ec	3b 4c 24 20	 cmp	 ecx, DWORD PTR __nLinkZMax$252092[esp+120]
  001f0	89 4c 24 28	 mov	 DWORD PTR __j$252113[esp+120], ecx
  001f4	0f 8f 50 01 00
	00		 jg	 $L252099
  001fa	8b 5c 24 1c	 mov	 ebx, DWORD PTR __nLinkXMin$252089[esp+120]
  001fe	0f af cf	 imul	 ecx, edi
  00201	8b 54 24 2c	 mov	 edx, DWORD PTR __pObjs$252101[esp+120]
  00205	03 cb		 add	 ecx, ebx
  00207	8d 04 bd 00 00
	00 00		 lea	 eax, DWORD PTR [edi*4]
  0020e	8d 0c 8a	 lea	 ecx, DWORD PTR [edx+ecx*4]
  00211	89 44 24 40	 mov	 DWORD PTR tv692[esp+120], eax
  00215	89 4c 24 2c	 mov	 DWORD PTR tv689[esp+120], ecx
  00219	8d a4 24 00 00
	00 00		 npad	 7
$L252114:
  00220	3b 5c 24 18	 cmp	 ebx, DWORD PTR __nLinkXMax$252091[esp+120]
  00224	0f 8f fd 00 00
	00		 jg	 $L252115
  0022a	8b f9		 mov	 edi, ecx
  0022c	8d 64 24 00	 npad	 4
$L252118:
  00230	8b 37		 mov	 esi, DWORD PTR [edi]
  00232	85 f6		 test	 esi, esi
  00234	bd e8 03 00 00	 mov	 ebp, 1000		; 000003e8H
  00239	0f 84 d4 00 00
	00		 je	 $L252119
  0023f	90		 npad	 1
$L252123:
  00240	8b c5		 mov	 eax, ebp
  00242	4d		 dec	 ebp
  00243	85 c0		 test	 eax, eax
  00245	0f 84 c8 00 00
	00		 je	 $L252119

; 328  : 	{
; 329  : 		vDist = pObj->GetPos() - vPos;	//  

  0024b	8d 8e 60 01 00
	00		 lea	 ecx, DWORD PTR [esi+352]
  00251	8b 11		 mov	 edx, DWORD PTR [ecx]
  00253	8b 41 04	 mov	 eax, DWORD PTR [ecx+4]
  00256	8b 49 08	 mov	 ecx, DWORD PTR [ecx+8]
  00259	89 54 24 60	 mov	 DWORD PTR $T257826[esp+120], edx
  0025d	d9 44 24 60	 fld	 DWORD PTR $T257826[esp+120]
  00261	d8 64 24 48	 fsub	 DWORD PTR _vPos$[esp+120]
  00265	89 44 24 64	 mov	 DWORD PTR $T257826[esp+124], eax
  00269	89 4c 24 68	 mov	 DWORD PTR $T257826[esp+128], ecx
  0026d	d9 5c 24 6c	 fstp	 DWORD PTR $T257827[esp+120]
  00271	8b 54 24 6c	 mov	 edx, DWORD PTR $T257827[esp+120]
  00275	d9 44 24 64	 fld	 DWORD PTR $T257826[esp+124]
  00279	89 54 24 54	 mov	 DWORD PTR _vDist$[esp+120], edx
  0027d	d8 64 24 4c	 fsub	 DWORD PTR _vPos$[esp+124]
  00281	d9 5c 24 70	 fstp	 DWORD PTR $T257827[esp+124]
  00285	8b 44 24 70	 mov	 eax, DWORD PTR $T257827[esp+124]
  00289	d9 44 24 68	 fld	 DWORD PTR $T257826[esp+128]
  0028d	89 44 24 58	 mov	 DWORD PTR _vDist$[esp+124], eax
  00291	d8 64 24 50	 fsub	 DWORD PTR _vPos$[esp+128]
  00295	d9 5c 24 74	 fstp	 DWORD PTR $T257827[esp+128]
  00299	8b 4c 24 74	 mov	 ecx, DWORD PTR $T257827[esp+128]
  0029d	89 4c 24 5c	 mov	 DWORD PTR _vDist$[esp+128], ecx

; 330  : 		float fDistSq = D3DXVec3LengthSq( &vDist );		//  Sq

  002a1	d9 44 24 5c	 fld	 DWORD PTR _vDist$[esp+128]
  002a5	d8 4c 24 5c	 fmul	 DWORD PTR _vDist$[esp+128]
  002a9	d9 44 24 58	 fld	 DWORD PTR _vDist$[esp+124]
  002ad	d8 4c 24 58	 fmul	 DWORD PTR _vDist$[esp+124]

; 344  : #endif	// __CLIENT
; 345  : 	return NULL;

  002b1	de c1		 faddp	 ST(1), ST(0)
  002b3	d9 44 24 54	 fld	 DWORD PTR _vDist$[esp+120]
  002b7	d8 4c 24 54	 fmul	 DWORD PTR _vDist$[esp+120]
  002bb	de c1		 faddp	 ST(1), ST(0)
  002bd	d8 5c 24 3c	 fcomp	 DWORD PTR _fRadius$[esp+120]
  002c1	df e0		 fnstsw	 ax
  002c3	f6 c4 05	 test	 ah, 5
  002c6	7a 3d		 jp	 SHORT $L257940
  002c8	6a 40		 push	 64			; 00000040H
  002ca	8b ce		 mov	 ecx, esi
  002cc	e8 00 00 00 00	 call	 ?GetAdjParam@CMover@@QAEHH@Z ; CMover::GetAdjParam
  002d1	f6 c4 04	 test	 ah, 4
  002d4	75 2f		 jne	 SHORT $L257940
  002d6	8b 96 44 02 00
	00		 mov	 edx, DWORD PTR [esi+580]
  002dc	80 e2 02	 and	 dl, 2
  002df	80 ea 02	 sub	 dl, 2
  002e2	f6 da		 neg	 dl
  002e4	1b d2		 sbb	 edx, edx
  002e6	42		 inc	 edx
  002e7	89 54 24 44	 mov	 DWORD PTR $T257924[esp+120], edx
  002eb	75 18		 jne	 SHORT $L257940
  002ed	8b 86 34 02 00
	00		 mov	 eax, DWORD PTR [esi+564]
  002f3	85 c0		 test	 eax, eax
  002f5	74 0e		 je	 SHORT $L257940
  002f7	8b 86 88 95 00
	00		 mov	 eax, DWORD PTR [esi+38280]
  002fd	85 c0		 test	 eax, eax
  002ff	0f 8f 84 00 00
	00		 jg	 $L257936
$L257940:

; 340  : 			}
; 341  : 		}
; 342  : 	}
; 343  : 	END_LINKMAP

  00305	8b b6 80 01 00
	00		 mov	 esi, DWORD PTR [esi+384]
  0030b	85 f6		 test	 esi, esi
  0030d	0f 85 2d ff ff
	ff		 jne	 $L252123
$L252119:

; 326  : 	
; 327  : 	FOR_LINKMAP( pObjCenter->GetWorld(), vPos, pObj, (int)( fRangeMeter / MPU ), CObj::linkPlayer, GetMover()->GetLayer() )

  00313	8b 44 24 18	 mov	 eax, DWORD PTR __nLinkXMax$252091[esp+120]
  00317	43		 inc	 ebx
  00318	83 c7 04	 add	 edi, 4
  0031b	3b d8		 cmp	 ebx, eax
  0031d	0f 8e 0d ff ff
	ff		 jle	 $L252118
  00323	8b 5c 24 1c	 mov	 ebx, DWORD PTR __nLinkXMin$252089[esp+120]
$L252115:
  00327	8b 44 24 28	 mov	 eax, DWORD PTR __j$252113[esp+120]
  0032b	8b 4c 24 2c	 mov	 ecx, DWORD PTR tv689[esp+120]
  0032f	8b 74 24 40	 mov	 esi, DWORD PTR tv692[esp+120]
  00333	8b 54 24 20	 mov	 edx, DWORD PTR __nLinkZMax$252092[esp+120]
  00337	40		 inc	 eax
  00338	03 ce		 add	 ecx, esi
  0033a	3b c2		 cmp	 eax, edx
  0033c	89 44 24 28	 mov	 DWORD PTR __j$252113[esp+120], eax
  00340	89 4c 24 2c	 mov	 DWORD PTR tv689[esp+120], ecx
  00344	0f 8e d6 fe ff
	ff		 jle	 $L252114
$L252099:
  0034a	8b 44 24 30	 mov	 eax, DWORD PTR _this$[esp+120]
  0034e	8b 48 30	 mov	 ecx, DWORD PTR [eax+48]
  00351	8b 81 b8 01 00
	00		 mov	 eax, DWORD PTR [ecx+440]
  00357	8b 54 24 7c	 mov	 edx, DWORD PTR _pObjCenter$[esp+116]
  0035b	8b 74 24 24	 mov	 esi, DWORD PTR __i$252097[esp+120]
  0035f	8b 8a 6c 01 00
	00		 mov	 ecx, DWORD PTR [edx+364]
  00365	50		 push	 eax
  00366	46		 inc	 esi
  00367	6a 02		 push	 2
  00369	83 c1 24	 add	 ecx, 36			; 00000024H
  0036c	89 74 24 2c	 mov	 DWORD PTR __i$252097[esp+128], esi
  00370	e8 00 00 00 00	 call	 ?GetMaxLinkLevel@CLayeredLinkMap@@QAEHKH@Z ; CLayeredLinkMap::GetMaxLinkLevel
  00375	3b f0		 cmp	 esi, eax
  00377	0f 8c 29 fd ff
	ff		 jl	 $L257941
$L252100:
  0037d	5f		 pop	 edi
  0037e	5e		 pop	 esi
  0037f	5d		 pop	 ebp

; 344  : #endif	// __CLIENT
; 345  : 	return NULL;

  00380	33 c0		 xor	 eax, eax
  00382	5b		 pop	 ebx

; 346  : }

  00383	83 c4 68	 add	 esp, 104		; 00000068H
  00386	c2 08 00	 ret	 8
$L257936:
  00389	5f		 pop	 edi

; 331  : 		if( fDistSq < fRadius )	
; 332  : 		{
; 333  : 			if(  !( ((CMover*)pObj)->IsMode( TRANSPARENT_MODE ) ) )
; 334  : 			{
; 335  : 				CMover *pMover = (CMover *)pObj;
; 336  : 
; 337  : 				if( pMover->IsPlayer() )
; 338  : 					if( ((CUser *)pMover)->m_nOverHeal > 0 )		//  .
; 339  : 						return pMover;

  0038a	8b c6		 mov	 eax, esi
  0038c	5e		 pop	 esi
  0038d	5d		 pop	 ebp
  0038e	5b		 pop	 ebx

; 346  : }

  0038f	83 c4 68	 add	 esp, 104		; 00000068H
  00392	c2 08 00	 ret	 8
?ScanTargetOverHealer@CAIInterface@@IAEPAVCMover@@PAVCObj@@M@Z ENDP ; CAIInterface::ScanTargetOverHealer
_TEXT	ENDS
PUBLIC	?IsInRange@CAIInterface@@IAEHAAUD3DXVECTOR3@@M@Z ; CAIInterface::IsInRange
; Function compile flags: /Ogty
;	COMDAT ?IsInRange@CAIInterface@@IAEHAAUD3DXVECTOR3@@M@Z
_TEXT	SEGMENT
_vDistant$ = 8						; size = 4
_fRange$ = 12						; size = 4
?IsInRange@CAIInterface@@IAEHAAUD3DXVECTOR3@@M@Z PROC NEAR ; CAIInterface::IsInRange, COMDAT
; _this$ = ecx

; 369  : 	vDistant.y	= 0.0f;

  00000	8b 44 24 04	 mov	 eax, DWORD PTR _vDistant$[esp-4]

; 370  : 	float fDistSq = D3DXVec3LengthSq( &vDistant );	

  00004	d9 40 08	 fld	 DWORD PTR [eax+8]
  00007	c7 40 04 00 00
	00 00		 mov	 DWORD PTR [eax+4], 0
  0000e	d9 00		 fld	 DWORD PTR [eax]
  00010	d9 c0		 fld	 ST(0)
  00012	d8 c9		 fmul	 ST(0), ST(1)
  00014	d9 c2		 fld	 ST(2)
  00016	d8 cb		 fmul	 ST(0), ST(3)

; 373  : 	return TRUE;

  00018	de c1		 faddp	 ST(1), ST(0)
  0001a	d9 44 24 08	 fld	 DWORD PTR _fRange$[esp-4]
  0001e	d8 4c 24 08	 fmul	 DWORD PTR _fRange$[esp-4]
  00022	de d9		 fcompp
  00024	df e0		 fnstsw	 ax
  00026	dd d8		 fstp	 ST(0)
  00028	f6 c4 05	 test	 ah, 5
  0002b	dd d8		 fstp	 ST(0)
  0002d	7a 05		 jp	 SHORT $L252158

; 371  : 	if( fDistSq > fRange * fRange )	
; 372  : 		return FALSE;

  0002f	33 c0		 xor	 eax, eax

; 374  : }

  00031	c2 08 00	 ret	 8
$L252158:

; 373  : 	return TRUE;

  00034	b8 01 00 00 00	 mov	 eax, 1

; 374  : }

  00039	c2 08 00	 ret	 8
?IsInRange@CAIInterface@@IAEHAAUD3DXVECTOR3@@M@Z ENDP	; CAIInterface::IsInRange
_TEXT	ENDS
PUBLIC	?ScanTargetOverParty@CAIInterface@@IAEPAVCMover@@PAVCObj@@MK@Z ; CAIInterface::ScanTargetOverParty
; Function compile flags: /Ogty
;	COMDAT ?ScanTargetOverParty@CAIInterface@@IAEPAVCMover@@PAVCObj@@MK@Z
_TEXT	SEGMENT
_pObjMax$ = -104					; size = 4
__nLinkX$252186 = -100					; size = 4
__nLinkZ$252188 = -96					; size = 4
__nLinkXMin$252194 = -92				; size = 4
__i$252202 = -88					; size = 4
__nLinkXMax$252196 = -84				; size = 4
__nX$252198 = -84					; size = 4
tv714 = -80						; size = 4
__nZ$252199 = -80					; size = 4
tv185 = -76						; size = 4
__pObjs$252206 = -76					; size = 4
_this$ = -72						; size = 4
tv463 = -68						; size = 4
tv469 = -64						; size = 4
_fRadius$ = -60						; size = 4
tv718 = -56						; size = 4
$T258062 = -52						; size = 4
_vPos$ = -48						; size = 12
_vDist$ = -36						; size = 12
$T257952 = -24						; size = 12
$T257953 = -12						; size = 12
_pObjCenter$ = 8					; size = 4
_fRangeMeter$ = 12					; size = 4
_idParty$ = 16						; size = 4
?ScanTargetOverParty@CAIInterface@@IAEPAVCMover@@PAVCObj@@MK@Z PROC NEAR ; CAIInterface::ScanTargetOverParty, COMDAT
; _this$ = ecx

; 395  : {

  00000	83 ec 68	 sub	 esp, 104		; 00000068H

; 396  : #ifndef __CLIENT
; 397  : 	CObj *pObj;
; 398  : 	CObj *pObjMax = NULL;
; 399  : 	D3DXVECTOR3 vPos = pObjCenter->GetPos();
; 400  : 	D3DXVECTOR3 vDist;
; 401  : 	
; 402  : 	FLOAT fRadius = fRangeMeter * fRangeMeter;

  00003	d9 44 24 70	 fld	 DWORD PTR _fRangeMeter$[esp+100]
  00007	53		 push	 ebx
  00008	d8 4c 24 74	 fmul	 DWORD PTR _fRangeMeter$[esp+104]
  0000c	55		 push	 ebp
  0000d	56		 push	 esi
  0000e	57		 push	 edi
  0000f	8b 7c 24 7c	 mov	 edi, DWORD PTR _pObjCenter$[esp+116]
  00013	d9 5c 24 3c	 fstp	 DWORD PTR _fRadius$[esp+120]
  00017	8b d9		 mov	 ebx, ecx
  00019	8d 87 60 01 00
	00		 lea	 eax, DWORD PTR [edi+352]
  0001f	8b 08		 mov	 ecx, DWORD PTR [eax]
  00021	89 4c 24 48	 mov	 DWORD PTR _vPos$[esp+120], ecx

; 403  : 	
; 404  : 	FOR_LINKMAP( pObjCenter->GetWorld(), vPos, pObj, (int)( fRangeMeter / MPU ), CObj::linkPlayer, GetMover()->GetLayer() )

  00025	8b 8f 6c 01 00
	00		 mov	 ecx, DWORD PTR [edi+364]
  0002b	db 41 14	 fild	 DWORD PTR [ecx+20]
  0002e	8b 50 04	 mov	 edx, DWORD PTR [eax+4]
  00031	8b 40 08	 mov	 eax, DWORD PTR [eax+8]
  00034	33 f6		 xor	 esi, esi
  00036	d8 3d 00 00 00
	00		 fdivr	 DWORD PTR __real@3f800000
  0003c	89 5c 24 30	 mov	 DWORD PTR _this$[esp+120], ebx
  00040	89 74 24 10	 mov	 DWORD PTR _pObjMax$[esp+120], esi
  00044	89 54 24 4c	 mov	 DWORD PTR _vPos$[esp+124], edx
  00048	89 44 24 50	 mov	 DWORD PTR _vPos$[esp+128], eax
  0004c	d9 44 24 48	 fld	 DWORD PTR _vPos$[esp+120]
  00050	d8 c9		 fmul	 ST(0), ST(1)
  00052	e8 00 00 00 00	 call	 __ftol2
  00057	d8 4c 24 50	 fmul	 DWORD PTR _vPos$[esp+128]
  0005b	89 44 24 14	 mov	 DWORD PTR __nLinkX$252186[esp+120], eax
  0005f	e8 00 00 00 00	 call	 __ftol2
  00064	8b 53 30	 mov	 edx, DWORD PTR [ebx+48]
  00067	8b 8f 6c 01 00
	00		 mov	 ecx, DWORD PTR [edi+364]
  0006d	89 44 24 18	 mov	 DWORD PTR __nLinkZ$252188[esp+120], eax
  00071	8b 82 b8 01 00
	00		 mov	 eax, DWORD PTR [edx+440]
  00077	50		 push	 eax
  00078	33 ed		 xor	 ebp, ebp
  0007a	6a 02		 push	 2
  0007c	83 c1 24	 add	 ecx, 36			; 00000024H
  0007f	89 6c 24 28	 mov	 DWORD PTR __i$252202[esp+128], ebp
  00083	e8 00 00 00 00	 call	 ?GetMaxLinkLevel@CLayeredLinkMap@@QAEHKH@Z ; CLayeredLinkMap::GetMaxLinkLevel
  00088	85 c0		 test	 eax, eax
  0008a	0f 8e 2f 03 00
	00		 jle	 $L258096
  00090	d9 44 24 48	 fld	 DWORD PTR _vPos$[esp+120]
  00094	e8 00 00 00 00	 call	 __ftol2
  00099	d9 44 24 50	 fld	 DWORD PTR _vPos$[esp+128]
  0009d	89 44 24 34	 mov	 DWORD PTR tv463[esp+120], eax
  000a1	e8 00 00 00 00	 call	 __ftol2
  000a6	89 44 24 38	 mov	 DWORD PTR tv469[esp+120], eax
  000aa	eb 14		 jmp	 SHORT $L252203
$L258098:
  000ac	8b 7c 24 7c	 mov	 edi, DWORD PTR _pObjCenter$[esp+116]
  000b0	8b 5c 24 30	 mov	 ebx, DWORD PTR _this$[esp+120]
  000b4	8b 6c 24 20	 mov	 ebp, DWORD PTR __i$252202[esp+120]
  000b8	eb 06 8d 9b 00
	00 00 00	 npad	 8
$L252203:
  000c0	8b 43 30	 mov	 eax, DWORD PTR [ebx+48]
  000c3	8b 80 b8 01 00
	00		 mov	 eax, DWORD PTR [eax+440]
  000c9	8b 8f 6c 01 00
	00		 mov	 ecx, DWORD PTR [edi+364]
  000cf	50		 push	 eax
  000d0	55		 push	 ebp
  000d1	6a 02		 push	 2
  000d3	83 c1 24	 add	 ecx, 36			; 00000024H
  000d6	e8 00 00 00 00	 call	 ?GetLinkWidth@CLayeredLinkMap@@QAEHKHH@Z ; CLayeredLinkMap::GetLinkWidth
  000db	8b 4b 30	 mov	 ecx, DWORD PTR [ebx+48]
  000de	8b f0		 mov	 esi, eax
  000e0	8b 81 b8 01 00
	00		 mov	 eax, DWORD PTR [ecx+440]
  000e6	8b 8f 6c 01 00
	00		 mov	 ecx, DWORD PTR [edi+364]
  000ec	50		 push	 eax
  000ed	55		 push	 ebp
  000ee	6a 02		 push	 2
  000f0	83 c1 24	 add	 ecx, 36			; 00000024H
  000f3	e8 00 00 00 00	 call	 ?GetObj@CLayeredLinkMap@@QAEPAPAVCObj@@KKH@Z ; CLayeredLinkMap::GetObj
  000f8	db 05 00 00 00
	00		 fild	 DWORD PTR ?OLD_MPU@@3HB	; OLD_MPU
  000fe	8b 8f 6c 01 00
	00		 mov	 ecx, DWORD PTR [edi+364]
  00104	89 44 24 2c	 mov	 DWORD PTR __pObjs$252206[esp+120], eax
  00108	8b 41 04	 mov	 eax, DWORD PTR [ecx+4]
  0010b	d8 bc 24 80 00
	00 00		 fdivr	 DWORD PTR _fRangeMeter$[esp+116]
  00112	8b f8		 mov	 edi, eax
  00114	c1 e0 07	 shl	 eax, 7
  00117	99		 cdq
  00118	8b 69 08	 mov	 ebp, DWORD PTR [ecx+8]
  0011b	8b 59 14	 mov	 ebx, DWORD PTR [ecx+20]
  0011e	0f af fe	 imul	 edi, esi
  00121	0f af ee	 imul	 ebp, esi
  00124	f7 ff		 idiv	 edi
  00126	8b f0		 mov	 esi, eax
  00128	8b c3		 mov	 eax, ebx
  0012a	0f af c6	 imul	 eax, esi
  0012d	99		 cdq
  0012e	2b c2		 sub	 eax, edx
  00130	8b c8		 mov	 ecx, eax
  00132	8b 44 24 14	 mov	 eax, DWORD PTR __nLinkX$252186[esp+120]
  00136	99		 cdq
  00137	f7 fe		 idiv	 esi
  00139	8b 54 24 34	 mov	 edx, DWORD PTR tv463[esp+120]
  0013d	d1 f9		 sar	 ecx, 1
  0013f	0f af c3	 imul	 eax, ebx
  00142	0f af c6	 imul	 eax, esi
  00145	2b d0		 sub	 edx, eax
  00147	33 c0		 xor	 eax, eax
  00149	3b d1		 cmp	 edx, ecx
  0014b	0f 9f c0	 setg	 al
  0014e	89 44 24 24	 mov	 DWORD PTR __nX$252198[esp+120], eax
  00152	8b 44 24 18	 mov	 eax, DWORD PTR __nLinkZ$252188[esp+120]
  00156	99		 cdq
  00157	f7 fe		 idiv	 esi
  00159	8b 54 24 38	 mov	 edx, DWORD PTR tv469[esp+120]
  0015d	0f af c3	 imul	 eax, ebx
  00160	0f af c6	 imul	 eax, esi
  00163	2b d0		 sub	 edx, eax
  00165	33 c0		 xor	 eax, eax
  00167	3b d1		 cmp	 edx, ecx
  00169	0f 9f c0	 setg	 al
  0016c	89 44 24 28	 mov	 DWORD PTR __nZ$252199[esp+120], eax
  00170	e8 00 00 00 00	 call	 __ftol2
  00175	8b 54 24 14	 mov	 edx, DWORD PTR __nLinkX$252186[esp+120]
  00179	8b d8		 mov	 ebx, eax
  0017b	8b c8		 mov	 ecx, eax
  0017d	f7 d9		 neg	 ecx
  0017f	8d 04 11	 lea	 eax, DWORD PTR [ecx+edx]
  00182	99		 cdq
  00183	f7 fe		 idiv	 esi
  00185	8b 54 24 24	 mov	 edx, DWORD PTR __nX$252198[esp+120]
  00189	8d 44 10 ff	 lea	 eax, DWORD PTR [eax+edx-1]
  0018d	85 c0		 test	 eax, eax
  0018f	89 44 24 1c	 mov	 DWORD PTR __nLinkXMin$252194[esp+120], eax
  00193	7d 08		 jge	 SHORT $L252211
  00195	c7 44 24 1c 00
	00 00 00	 mov	 DWORD PTR __nLinkXMin$252194[esp+120], 0
$L252211:
  0019d	8b 44 24 18	 mov	 eax, DWORD PTR __nLinkZ$252188[esp+120]
  001a1	03 c1		 add	 eax, ecx
  001a3	99		 cdq
  001a4	f7 fe		 idiv	 esi
  001a6	8b 4c 24 28	 mov	 ecx, DWORD PTR __nZ$252199[esp+120]
  001aa	8d 4c 08 ff	 lea	 ecx, DWORD PTR [eax+ecx-1]
  001ae	85 c9		 test	 ecx, ecx
  001b0	7d 02		 jge	 SHORT $L252213
  001b2	33 c9		 xor	 ecx, ecx
$L252213:
  001b4	8b 54 24 14	 mov	 edx, DWORD PTR __nLinkX$252186[esp+120]
  001b8	8d 04 13	 lea	 eax, DWORD PTR [ebx+edx]
  001bb	99		 cdq
  001bc	f7 fe		 idiv	 esi
  001be	03 44 24 24	 add	 eax, DWORD PTR __nX$252198[esp+120]
  001c2	3b c7		 cmp	 eax, edi
  001c4	89 44 24 24	 mov	 DWORD PTR __nLinkXMax$252196[esp+120], eax
  001c8	7c 07		 jl	 SHORT $L252215
  001ca	8d 47 ff	 lea	 eax, DWORD PTR [edi-1]
  001cd	89 44 24 24	 mov	 DWORD PTR __nLinkXMax$252196[esp+120], eax
$L252215:
  001d1	8b 54 24 18	 mov	 edx, DWORD PTR __nLinkZ$252188[esp+120]
  001d5	8d 04 13	 lea	 eax, DWORD PTR [ebx+edx]
  001d8	99		 cdq
  001d9	f7 fe		 idiv	 esi
  001db	03 44 24 28	 add	 eax, DWORD PTR __nZ$252199[esp+120]
  001df	3b c5		 cmp	 eax, ebp
  001e1	7c 03		 jl	 SHORT $L252217
  001e3	8d 45 ff	 lea	 eax, DWORD PTR [ebp-1]
$L252217:
  001e6	3b c8		 cmp	 ecx, eax
  001e8	0f 8f 90 01 00
	00		 jg	 $L252204
  001ee	8b f1		 mov	 esi, ecx
  001f0	0f af f7	 imul	 esi, edi
  001f3	8d 14 bd 00 00
	00 00		 lea	 edx, DWORD PTR [edi*4]
  001fa	8b 7c 24 2c	 mov	 edi, DWORD PTR __pObjs$252206[esp+120]
  001fe	89 54 24 40	 mov	 DWORD PTR tv718[esp+120], edx
  00202	8b 54 24 1c	 mov	 edx, DWORD PTR __nLinkXMin$252194[esp+120]
  00206	03 f2		 add	 esi, edx
  00208	2b c1		 sub	 eax, ecx
  0020a	8d 3c b7	 lea	 edi, DWORD PTR [edi+esi*4]
  0020d	40		 inc	 eax
  0020e	89 7c 24 28	 mov	 DWORD PTR tv714[esp+120], edi
  00212	89 44 24 2c	 mov	 DWORD PTR tv185[esp+120], eax
  00216	eb 08 8d a4 24
	00 00 00 00 90	 npad	 10
$L252219:
  00220	8b 44 24 24	 mov	 eax, DWORD PTR __nLinkXMax$252196[esp+120]
  00224	3b d0		 cmp	 edx, eax
  00226	0f 8f 35 01 00
	00		 jg	 $L252220
  0022c	8b d8		 mov	 ebx, eax
  0022e	2b da		 sub	 ebx, edx
  00230	43		 inc	 ebx
$L252223:
  00231	8b 37		 mov	 esi, DWORD PTR [edi]
  00233	85 f6		 test	 esi, esi
  00235	bd e8 03 00 00	 mov	 ebp, 1000		; 000003e8H
  0023a	0f 84 13 01 00
	00		 je	 $L252224
$L252228:
  00240	8b c5		 mov	 eax, ebp
  00242	4d		 dec	 ebp
  00243	85 c0		 test	 eax, eax
  00245	0f 84 08 01 00
	00		 je	 $L252224

; 405  : 	{
; 406  : 		ASSERT( pObj->GetType() == OT_MOVER && ((CMover *)pObj)->IsPlayer() );
; 407  : 		vDist = pObj->GetPos() - vPos;

  0024b	8d 8e 60 01 00
	00		 lea	 ecx, DWORD PTR [esi+352]
  00251	8b 11		 mov	 edx, DWORD PTR [ecx]
  00253	8b 41 04	 mov	 eax, DWORD PTR [ecx+4]
  00256	8b 49 08	 mov	 ecx, DWORD PTR [ecx+8]
  00259	89 54 24 60	 mov	 DWORD PTR $T257952[esp+120], edx
  0025d	d9 44 24 60	 fld	 DWORD PTR $T257952[esp+120]
  00261	d8 64 24 48	 fsub	 DWORD PTR _vPos$[esp+120]
  00265	89 44 24 64	 mov	 DWORD PTR $T257952[esp+124], eax
  00269	89 4c 24 68	 mov	 DWORD PTR $T257952[esp+128], ecx
  0026d	d9 5c 24 6c	 fstp	 DWORD PTR $T257953[esp+120]
  00271	8b 54 24 6c	 mov	 edx, DWORD PTR $T257953[esp+120]
  00275	d9 44 24 64	 fld	 DWORD PTR $T257952[esp+124]
  00279	89 54 24 54	 mov	 DWORD PTR _vDist$[esp+120], edx
  0027d	d8 64 24 4c	 fsub	 DWORD PTR _vPos$[esp+124]
  00281	d9 5c 24 70	 fstp	 DWORD PTR $T257953[esp+124]
  00285	8b 44 24 70	 mov	 eax, DWORD PTR $T257953[esp+124]
  00289	d9 44 24 68	 fld	 DWORD PTR $T257952[esp+128]
  0028d	89 44 24 58	 mov	 DWORD PTR _vDist$[esp+124], eax
  00291	d8 64 24 50	 fsub	 DWORD PTR _vPos$[esp+128]
  00295	d9 5c 24 74	 fstp	 DWORD PTR $T257953[esp+128]
  00299	8b 4c 24 74	 mov	 ecx, DWORD PTR $T257953[esp+128]
  0029d	89 4c 24 5c	 mov	 DWORD PTR _vDist$[esp+128], ecx

; 408  : 		float fDistSq = D3DXVec3LengthSq( &vDist );

  002a1	d9 44 24 5c	 fld	 DWORD PTR _vDist$[esp+128]
  002a5	d8 4c 24 5c	 fmul	 DWORD PTR _vDist$[esp+128]
  002a9	d9 44 24 58	 fld	 DWORD PTR _vDist$[esp+124]
  002ad	d8 4c 24 58	 fmul	 DWORD PTR _vDist$[esp+124]

; 425  : 	return (CMover *)pObjMax;

  002b1	de c1		 faddp	 ST(1), ST(0)
  002b3	d9 44 24 54	 fld	 DWORD PTR _vDist$[esp+120]
  002b7	d8 4c 24 54	 fmul	 DWORD PTR _vDist$[esp+120]
  002bb	de c1		 faddp	 ST(1), ST(0)
  002bd	d8 5c 24 3c	 fcomp	 DWORD PTR _fRadius$[esp+120]
  002c1	df e0		 fnstsw	 ax
  002c3	f6 c4 05	 test	 ah, 5
  002c6	0f 8a 79 00 00
	00		 jp	 $L258097
  002cc	8b 96 3c 02 00
	00		 mov	 edx, DWORD PTR [esi+572]
  002d2	f7 42 04 00 00
	00 08		 test	 DWORD PTR [edx+4], 134217728 ; 08000000H
  002d9	74 0a		 je	 SHORT $L258055
  002db	8b 86 00 06 00
	00		 mov	 eax, DWORD PTR [esi+1536]
  002e1	85 c0		 test	 eax, eax
  002e3	7e 60		 jle	 SHORT $L258097

; 409  : 		if( fDistSq < fRadius )	
; 410  : 		{
; 411  : 			if( ((CMover*)pObj)->IsLive() && !((CMover*)pObj)->IsMode( TRANSPARENT_MODE ) && ((CMover*)pObj)->GetPartyId() == idParty )

$L258055:
  002e5	6a 40		 push	 64			; 00000040H
  002e7	8b ce		 mov	 ecx, esi
  002e9	e8 00 00 00 00	 call	 ?GetAdjParam@CMover@@QAEHH@Z ; CMover::GetAdjParam
  002ee	f6 c4 04	 test	 ah, 4
  002f1	75 52		 jne	 SHORT $L258097
  002f3	8b 86 44 02 00
	00		 mov	 eax, DWORD PTR [esi+580]
  002f9	24 02		 and	 al, 2
  002fb	2c 02		 sub	 al, 2
  002fd	f6 d8		 neg	 al
  002ff	1b c0		 sbb	 eax, eax
  00301	40		 inc	 eax
  00302	89 44 24 44	 mov	 DWORD PTR $T258062[esp+120], eax
  00306	75 3d		 jne	 SHORT $L258097
  00308	8b 8c 24 84 00
	00 00		 mov	 ecx, DWORD PTR _idParty$[esp+116]
  0030f	39 8e 18 07 00
	00		 cmp	 DWORD PTR [esi+1816], ecx
  00315	75 2e		 jne	 SHORT $L258097

; 412  : 			{
; 413  : 				((CMover *)pObj)->SetAggro( ((CMover *)pObj)->GetAggro() + 1 );

  00317	8b 86 88 11 00
	00		 mov	 eax, DWORD PTR [esi+4488]
  0031d	40		 inc	 eax
  0031e	ba 00 00 00 00	 mov	 edx, 0
  00323	0f 98 c2	 sets	 dl
  00326	4a		 dec	 edx
  00327	23 d0		 and	 edx, eax

; 414  : 				if( pObjMax )

  00329	8b 44 24 10	 mov	 eax, DWORD PTR _pObjMax$[esp+120]
  0032d	85 c0		 test	 eax, eax
  0032f	89 96 88 11 00
	00		 mov	 DWORD PTR [esi+4488], edx
  00335	74 0a		 je	 SHORT $L252242

; 415  : 				{
; 416  : 					if( ((CMover *)pObj)->GetAggro() > ((CMover *)pObjMax)->GetAggro() )		//   .

  00337	8b ca		 mov	 ecx, edx
  00339	3b 88 88 11 00
	00		 cmp	 ecx, DWORD PTR [eax+4488]
  0033f	76 04		 jbe	 SHORT $L258097
$L252242:

; 417  : 						pObjMax = pObj;
; 418  : 				} else
; 419  : 					pObjMax = pObj;

  00341	89 74 24 10	 mov	 DWORD PTR _pObjMax$[esp+120], esi
$L258097:

; 420  : 
; 421  : 			}
; 422  : 		}
; 423  : 	}
; 424  : 	END_LINKMAP

  00345	8b b6 80 01 00
	00		 mov	 esi, DWORD PTR [esi+384]
  0034b	85 f6		 test	 esi, esi
  0034d	0f 85 ed fe ff
	ff		 jne	 $L252228
$L252224:

; 403  : 	
; 404  : 	FOR_LINKMAP( pObjCenter->GetWorld(), vPos, pObj, (int)( fRangeMeter / MPU ), CObj::linkPlayer, GetMover()->GetLayer() )

  00353	83 c7 04	 add	 edi, 4
  00356	4b		 dec	 ebx
  00357	0f 85 d4 fe ff
	ff		 jne	 $L252223
  0035d	8b 54 24 1c	 mov	 edx, DWORD PTR __nLinkXMin$252194[esp+120]
$L252220:
  00361	8b 7c 24 28	 mov	 edi, DWORD PTR tv714[esp+120]
  00365	8b 4c 24 40	 mov	 ecx, DWORD PTR tv718[esp+120]
  00369	8b 44 24 2c	 mov	 eax, DWORD PTR tv185[esp+120]
  0036d	03 f9		 add	 edi, ecx
  0036f	48		 dec	 eax
  00370	89 7c 24 28	 mov	 DWORD PTR tv714[esp+120], edi
  00374	89 44 24 2c	 mov	 DWORD PTR tv185[esp+120], eax
  00378	0f 85 a2 fe ff
	ff		 jne	 $L252219
$L252204:
  0037e	8b 54 24 30	 mov	 edx, DWORD PTR _this$[esp+120]
  00382	8b 42 30	 mov	 eax, DWORD PTR [edx+48]
  00385	8b 80 b8 01 00
	00		 mov	 eax, DWORD PTR [eax+440]
  0038b	8b 74 24 20	 mov	 esi, DWORD PTR __i$252202[esp+120]
  0038f	8b 4c 24 7c	 mov	 ecx, DWORD PTR _pObjCenter$[esp+116]
  00393	8b 89 6c 01 00
	00		 mov	 ecx, DWORD PTR [ecx+364]
  00399	50		 push	 eax
  0039a	46		 inc	 esi
  0039b	6a 02		 push	 2
  0039d	83 c1 24	 add	 ecx, 36			; 00000024H
  003a0	89 74 24 28	 mov	 DWORD PTR __i$252202[esp+128], esi
  003a4	e8 00 00 00 00	 call	 ?GetMaxLinkLevel@CLayeredLinkMap@@QAEHKH@Z ; CLayeredLinkMap::GetMaxLinkLevel
  003a9	3b f0		 cmp	 esi, eax
  003ab	0f 8c fb fc ff
	ff		 jl	 $L258098

; 425  : 	return (CMover *)pObjMax;

  003b1	8b 44 24 10	 mov	 eax, DWORD PTR _pObjMax$[esp+120]
  003b5	5f		 pop	 edi
  003b6	5e		 pop	 esi
  003b7	5d		 pop	 ebp
  003b8	5b		 pop	 ebx

; 426  : #else
; 427  : 	return NULL;
; 428  : #endif
; 429  : }

  003b9	83 c4 68	 add	 esp, 104		; 00000068H
  003bc	c2 0c 00	 ret	 12			; 0000000cH
$L258096:
  003bf	5f		 pop	 edi

; 425  : 	return (CMover *)pObjMax;

  003c0	8b c6		 mov	 eax, esi
  003c2	5e		 pop	 esi
  003c3	5d		 pop	 ebp
  003c4	5b		 pop	 ebx

; 426  : #else
; 427  : 	return NULL;
; 428  : #endif
; 429  : }

  003c5	83 c4 68	 add	 esp, 104		; 00000068H
  003c8	c2 0c 00	 ret	 12			; 0000000cH
?ScanTargetOverParty@CAIInterface@@IAEPAVCMover@@PAVCObj@@MK@Z ENDP ; CAIInterface::ScanTargetOverParty
_TEXT	ENDS
PUBLIC	?ScanTargetOverAggro@CAIInterface@@IAEPAVCMover@@PAVCObj@@M@Z ; CAIInterface::ScanTargetOverAggro
; Function compile flags: /Ogty
;	COMDAT ?ScanTargetOverAggro@CAIInterface@@IAEPAVCMover@@PAVCObj@@M@Z
_TEXT	SEGMENT
_pObjMax$ = -104					; size = 4
__nLinkX$252259 = -100					; size = 4
__nLinkZ$252261 = -96					; size = 4
__nLinkXMin$252267 = -92				; size = 4
__i$252275 = -88					; size = 4
__nLinkXMax$252269 = -84				; size = 4
__nX$252271 = -84					; size = 4
tv709 = -80						; size = 4
__nZ$252272 = -80					; size = 4
tv147 = -76						; size = 4
__pObjs$252279 = -76					; size = 4
_this$ = -72						; size = 4
tv463 = -68						; size = 4
tv469 = -64						; size = 4
_fRadius$ = -60						; size = 4
tv713 = -56						; size = 4
$T258213 = -52						; size = 4
_vPos$ = -48						; size = 12
_vDist$ = -36						; size = 12
$T258103 = -24						; size = 12
$T258104 = -12						; size = 12
_pObjCenter$ = 8					; size = 4
_fRangeMeter$ = 12					; size = 4
?ScanTargetOverAggro@CAIInterface@@IAEPAVCMover@@PAVCObj@@M@Z PROC NEAR ; CAIInterface::ScanTargetOverAggro, COMDAT
; _this$ = ecx

; 431  : {

  00000	83 ec 68	 sub	 esp, 104		; 00000068H

; 432  : #ifndef __CLIENT
; 433  : 	CObj *pObj;
; 434  : 	CObj *pObjMax = NULL;
; 435  : 	D3DXVECTOR3 vPos = pObjCenter->GetPos();
; 436  : 	D3DXVECTOR3 vDist;
; 437  : 	
; 438  : 	FLOAT fRadius = fRangeMeter * fRangeMeter;

  00003	d9 44 24 70	 fld	 DWORD PTR _fRangeMeter$[esp+100]
  00007	53		 push	 ebx
  00008	d8 4c 24 74	 fmul	 DWORD PTR _fRangeMeter$[esp+104]
  0000c	55		 push	 ebp
  0000d	56		 push	 esi
  0000e	57		 push	 edi
  0000f	8b 7c 24 7c	 mov	 edi, DWORD PTR _pObjCenter$[esp+116]
  00013	d9 5c 24 3c	 fstp	 DWORD PTR _fRadius$[esp+120]
  00017	8b d9		 mov	 ebx, ecx
  00019	8d 87 60 01 00
	00		 lea	 eax, DWORD PTR [edi+352]
  0001f	8b 08		 mov	 ecx, DWORD PTR [eax]
  00021	89 4c 24 48	 mov	 DWORD PTR _vPos$[esp+120], ecx

; 439  : 	
; 440  : 	FOR_LINKMAP( pObjCenter->GetWorld(), vPos, pObj, (int)( fRangeMeter / MPU ), CObj::linkPlayer, GetMover()->GetLayer() )

  00025	8b 8f 6c 01 00
	00		 mov	 ecx, DWORD PTR [edi+364]
  0002b	db 41 14	 fild	 DWORD PTR [ecx+20]
  0002e	8b 50 04	 mov	 edx, DWORD PTR [eax+4]
  00031	8b 40 08	 mov	 eax, DWORD PTR [eax+8]
  00034	33 f6		 xor	 esi, esi
  00036	d8 3d 00 00 00
	00		 fdivr	 DWORD PTR __real@3f800000
  0003c	89 5c 24 30	 mov	 DWORD PTR _this$[esp+120], ebx
  00040	89 74 24 10	 mov	 DWORD PTR _pObjMax$[esp+120], esi
  00044	89 54 24 4c	 mov	 DWORD PTR _vPos$[esp+124], edx
  00048	89 44 24 50	 mov	 DWORD PTR _vPos$[esp+128], eax
  0004c	d9 44 24 48	 fld	 DWORD PTR _vPos$[esp+120]
  00050	d8 c9		 fmul	 ST(0), ST(1)
  00052	e8 00 00 00 00	 call	 __ftol2
  00057	d8 4c 24 50	 fmul	 DWORD PTR _vPos$[esp+128]
  0005b	89 44 24 14	 mov	 DWORD PTR __nLinkX$252259[esp+120], eax
  0005f	e8 00 00 00 00	 call	 __ftol2
  00064	8b 53 30	 mov	 edx, DWORD PTR [ebx+48]
  00067	8b 8f 6c 01 00
	00		 mov	 ecx, DWORD PTR [edi+364]
  0006d	89 44 24 18	 mov	 DWORD PTR __nLinkZ$252261[esp+120], eax
  00071	8b 82 b8 01 00
	00		 mov	 eax, DWORD PTR [edx+440]
  00077	50		 push	 eax
  00078	33 ed		 xor	 ebp, ebp
  0007a	6a 02		 push	 2
  0007c	83 c1 24	 add	 ecx, 36			; 00000024H
  0007f	89 6c 24 28	 mov	 DWORD PTR __i$252275[esp+128], ebp
  00083	e8 00 00 00 00	 call	 ?GetMaxLinkLevel@CLayeredLinkMap@@QAEHKH@Z ; CLayeredLinkMap::GetMaxLinkLevel
  00088	85 c0		 test	 eax, eax
  0008a	0f 8e 1c 03 00
	00		 jle	 $L258243
  00090	d9 44 24 48	 fld	 DWORD PTR _vPos$[esp+120]
  00094	e8 00 00 00 00	 call	 __ftol2
  00099	d9 44 24 50	 fld	 DWORD PTR _vPos$[esp+128]
  0009d	89 44 24 34	 mov	 DWORD PTR tv463[esp+120], eax
  000a1	e8 00 00 00 00	 call	 __ftol2
  000a6	89 44 24 38	 mov	 DWORD PTR tv469[esp+120], eax
  000aa	eb 14		 jmp	 SHORT $L252276
$L258245:
  000ac	8b 7c 24 7c	 mov	 edi, DWORD PTR _pObjCenter$[esp+116]
  000b0	8b 5c 24 30	 mov	 ebx, DWORD PTR _this$[esp+120]
  000b4	8b 6c 24 20	 mov	 ebp, DWORD PTR __i$252275[esp+120]
  000b8	eb 06 8d 9b 00
	00 00 00	 npad	 8
$L252276:
  000c0	8b 43 30	 mov	 eax, DWORD PTR [ebx+48]
  000c3	8b 80 b8 01 00
	00		 mov	 eax, DWORD PTR [eax+440]
  000c9	8b 8f 6c 01 00
	00		 mov	 ecx, DWORD PTR [edi+364]
  000cf	50		 push	 eax
  000d0	55		 push	 ebp
  000d1	6a 02		 push	 2
  000d3	83 c1 24	 add	 ecx, 36			; 00000024H
  000d6	e8 00 00 00 00	 call	 ?GetLinkWidth@CLayeredLinkMap@@QAEHKHH@Z ; CLayeredLinkMap::GetLinkWidth
  000db	8b 4b 30	 mov	 ecx, DWORD PTR [ebx+48]
  000de	8b f0		 mov	 esi, eax
  000e0	8b 81 b8 01 00
	00		 mov	 eax, DWORD PTR [ecx+440]
  000e6	8b 8f 6c 01 00
	00		 mov	 ecx, DWORD PTR [edi+364]
  000ec	50		 push	 eax
  000ed	55		 push	 ebp
  000ee	6a 02		 push	 2
  000f0	83 c1 24	 add	 ecx, 36			; 00000024H
  000f3	e8 00 00 00 00	 call	 ?GetObj@CLayeredLinkMap@@QAEPAPAVCObj@@KKH@Z ; CLayeredLinkMap::GetObj
  000f8	db 05 00 00 00
	00		 fild	 DWORD PTR ?OLD_MPU@@3HB	; OLD_MPU
  000fe	8b 8f 6c 01 00
	00		 mov	 ecx, DWORD PTR [edi+364]
  00104	89 44 24 2c	 mov	 DWORD PTR __pObjs$252279[esp+120], eax
  00108	8b 41 04	 mov	 eax, DWORD PTR [ecx+4]
  0010b	d8 bc 24 80 00
	00 00		 fdivr	 DWORD PTR _fRangeMeter$[esp+116]
  00112	8b f8		 mov	 edi, eax
  00114	c1 e0 07	 shl	 eax, 7
  00117	99		 cdq
  00118	8b 69 08	 mov	 ebp, DWORD PTR [ecx+8]
  0011b	8b 59 14	 mov	 ebx, DWORD PTR [ecx+20]
  0011e	0f af fe	 imul	 edi, esi
  00121	0f af ee	 imul	 ebp, esi
  00124	f7 ff		 idiv	 edi
  00126	8b f0		 mov	 esi, eax
  00128	8b c3		 mov	 eax, ebx
  0012a	0f af c6	 imul	 eax, esi
  0012d	99		 cdq
  0012e	2b c2		 sub	 eax, edx
  00130	8b c8		 mov	 ecx, eax
  00132	8b 44 24 14	 mov	 eax, DWORD PTR __nLinkX$252259[esp+120]
  00136	99		 cdq
  00137	f7 fe		 idiv	 esi
  00139	8b 54 24 34	 mov	 edx, DWORD PTR tv463[esp+120]
  0013d	d1 f9		 sar	 ecx, 1
  0013f	0f af c3	 imul	 eax, ebx
  00142	0f af c6	 imul	 eax, esi
  00145	2b d0		 sub	 edx, eax
  00147	33 c0		 xor	 eax, eax
  00149	3b d1		 cmp	 edx, ecx
  0014b	0f 9f c0	 setg	 al
  0014e	89 44 24 24	 mov	 DWORD PTR __nX$252271[esp+120], eax
  00152	8b 44 24 18	 mov	 eax, DWORD PTR __nLinkZ$252261[esp+120]
  00156	99		 cdq
  00157	f7 fe		 idiv	 esi
  00159	8b 54 24 38	 mov	 edx, DWORD PTR tv469[esp+120]
  0015d	0f af c3	 imul	 eax, ebx
  00160	0f af c6	 imul	 eax, esi
  00163	2b d0		 sub	 edx, eax
  00165	33 c0		 xor	 eax, eax
  00167	3b d1		 cmp	 edx, ecx
  00169	0f 9f c0	 setg	 al
  0016c	89 44 24 28	 mov	 DWORD PTR __nZ$252272[esp+120], eax
  00170	e8 00 00 00 00	 call	 __ftol2
  00175	8b 54 24 14	 mov	 edx, DWORD PTR __nLinkX$252259[esp+120]
  00179	8b d8		 mov	 ebx, eax
  0017b	8b c8		 mov	 ecx, eax
  0017d	f7 d9		 neg	 ecx
  0017f	8d 04 11	 lea	 eax, DWORD PTR [ecx+edx]
  00182	99		 cdq
  00183	f7 fe		 idiv	 esi
  00185	8b 54 24 24	 mov	 edx, DWORD PTR __nX$252271[esp+120]
  00189	8d 44 10 ff	 lea	 eax, DWORD PTR [eax+edx-1]
  0018d	85 c0		 test	 eax, eax
  0018f	89 44 24 1c	 mov	 DWORD PTR __nLinkXMin$252267[esp+120], eax
  00193	7d 08		 jge	 SHORT $L252284
  00195	c7 44 24 1c 00
	00 00 00	 mov	 DWORD PTR __nLinkXMin$252267[esp+120], 0
$L252284:
  0019d	8b 44 24 18	 mov	 eax, DWORD PTR __nLinkZ$252261[esp+120]
  001a1	03 c1		 add	 eax, ecx
  001a3	99		 cdq
  001a4	f7 fe		 idiv	 esi
  001a6	8b 4c 24 28	 mov	 ecx, DWORD PTR __nZ$252272[esp+120]
  001aa	8d 4c 08 ff	 lea	 ecx, DWORD PTR [eax+ecx-1]
  001ae	85 c9		 test	 ecx, ecx
  001b0	7d 02		 jge	 SHORT $L252286
  001b2	33 c9		 xor	 ecx, ecx
$L252286:
  001b4	8b 54 24 14	 mov	 edx, DWORD PTR __nLinkX$252259[esp+120]
  001b8	8d 04 13	 lea	 eax, DWORD PTR [ebx+edx]
  001bb	99		 cdq
  001bc	f7 fe		 idiv	 esi
  001be	03 44 24 24	 add	 eax, DWORD PTR __nX$252271[esp+120]
  001c2	3b c7		 cmp	 eax, edi
  001c4	89 44 24 24	 mov	 DWORD PTR __nLinkXMax$252269[esp+120], eax
  001c8	7c 07		 jl	 SHORT $L252288
  001ca	8d 47 ff	 lea	 eax, DWORD PTR [edi-1]
  001cd	89 44 24 24	 mov	 DWORD PTR __nLinkXMax$252269[esp+120], eax
$L252288:
  001d1	8b 54 24 18	 mov	 edx, DWORD PTR __nLinkZ$252261[esp+120]
  001d5	8d 04 13	 lea	 eax, DWORD PTR [ebx+edx]
  001d8	99		 cdq
  001d9	f7 fe		 idiv	 esi
  001db	03 44 24 28	 add	 eax, DWORD PTR __nZ$252272[esp+120]
  001df	3b c5		 cmp	 eax, ebp
  001e1	7c 03		 jl	 SHORT $L252290
  001e3	8d 45 ff	 lea	 eax, DWORD PTR [ebp-1]
$L252290:
  001e6	3b c8		 cmp	 ecx, eax
  001e8	0f 8f 7d 01 00
	00		 jg	 $L252277
  001ee	8b f1		 mov	 esi, ecx
  001f0	0f af f7	 imul	 esi, edi
  001f3	8d 14 bd 00 00
	00 00		 lea	 edx, DWORD PTR [edi*4]
  001fa	8b 7c 24 2c	 mov	 edi, DWORD PTR __pObjs$252279[esp+120]
  001fe	89 54 24 40	 mov	 DWORD PTR tv713[esp+120], edx
  00202	8b 54 24 1c	 mov	 edx, DWORD PTR __nLinkXMin$252267[esp+120]
  00206	03 f2		 add	 esi, edx
  00208	2b c1		 sub	 eax, ecx
  0020a	8d 3c b7	 lea	 edi, DWORD PTR [edi+esi*4]
  0020d	40		 inc	 eax
  0020e	89 7c 24 28	 mov	 DWORD PTR tv709[esp+120], edi
  00212	89 44 24 2c	 mov	 DWORD PTR tv147[esp+120], eax
  00216	eb 08 8d a4 24
	00 00 00 00 90	 npad	 10
$L252292:
  00220	8b 44 24 24	 mov	 eax, DWORD PTR __nLinkXMax$252269[esp+120]
  00224	3b d0		 cmp	 edx, eax
  00226	0f 8f 22 01 00
	00		 jg	 $L252293
  0022c	8b d8		 mov	 ebx, eax
  0022e	2b da		 sub	 ebx, edx
  00230	43		 inc	 ebx
$L252296:
  00231	8b 37		 mov	 esi, DWORD PTR [edi]
  00233	85 f6		 test	 esi, esi
  00235	bd e8 03 00 00	 mov	 ebp, 1000		; 000003e8H
  0023a	0f 84 00 01 00
	00		 je	 $L252297
$L252301:
  00240	8b c5		 mov	 eax, ebp
  00242	4d		 dec	 ebp
  00243	85 c0		 test	 eax, eax
  00245	0f 84 f5 00 00
	00		 je	 $L252297

; 441  : 	{
; 442  : 		ASSERT( pObj->GetType() == OT_MOVER && ((CMover *)pObj)->IsPlayer() );
; 443  : 		vDist = pObj->GetPos() - vPos;

  0024b	8d 8e 60 01 00
	00		 lea	 ecx, DWORD PTR [esi+352]
  00251	8b 11		 mov	 edx, DWORD PTR [ecx]
  00253	8b 41 04	 mov	 eax, DWORD PTR [ecx+4]
  00256	8b 49 08	 mov	 ecx, DWORD PTR [ecx+8]
  00259	89 54 24 60	 mov	 DWORD PTR $T258103[esp+120], edx
  0025d	d9 44 24 60	 fld	 DWORD PTR $T258103[esp+120]
  00261	d8 64 24 48	 fsub	 DWORD PTR _vPos$[esp+120]
  00265	89 44 24 64	 mov	 DWORD PTR $T258103[esp+124], eax
  00269	89 4c 24 68	 mov	 DWORD PTR $T258103[esp+128], ecx
  0026d	d9 5c 24 6c	 fstp	 DWORD PTR $T258104[esp+120]
  00271	8b 54 24 6c	 mov	 edx, DWORD PTR $T258104[esp+120]
  00275	d9 44 24 64	 fld	 DWORD PTR $T258103[esp+124]
  00279	89 54 24 54	 mov	 DWORD PTR _vDist$[esp+120], edx
  0027d	d8 64 24 4c	 fsub	 DWORD PTR _vPos$[esp+124]
  00281	d9 5c 24 70	 fstp	 DWORD PTR $T258104[esp+124]
  00285	8b 44 24 70	 mov	 eax, DWORD PTR $T258104[esp+124]
  00289	d9 44 24 68	 fld	 DWORD PTR $T258103[esp+128]
  0028d	89 44 24 58	 mov	 DWORD PTR _vDist$[esp+124], eax
  00291	d8 64 24 50	 fsub	 DWORD PTR _vPos$[esp+128]
  00295	d9 5c 24 74	 fstp	 DWORD PTR $T258104[esp+128]
  00299	8b 4c 24 74	 mov	 ecx, DWORD PTR $T258104[esp+128]
  0029d	89 4c 24 5c	 mov	 DWORD PTR _vDist$[esp+128], ecx

; 444  : 		float fDistSq = D3DXVec3LengthSq( &vDist );

  002a1	d9 44 24 5c	 fld	 DWORD PTR _vDist$[esp+128]
  002a5	d8 4c 24 5c	 fmul	 DWORD PTR _vDist$[esp+128]
  002a9	d9 44 24 58	 fld	 DWORD PTR _vDist$[esp+124]
  002ad	d8 4c 24 58	 fmul	 DWORD PTR _vDist$[esp+124]

; 461  : 	return (CMover *)pObjMax;

  002b1	de c1		 faddp	 ST(1), ST(0)
  002b3	d9 44 24 54	 fld	 DWORD PTR _vDist$[esp+120]
  002b7	d8 4c 24 54	 fmul	 DWORD PTR _vDist$[esp+120]
  002bb	de c1		 faddp	 ST(1), ST(0)
  002bd	d8 5c 24 3c	 fcomp	 DWORD PTR _fRadius$[esp+120]
  002c1	df e0		 fnstsw	 ax
  002c3	f6 c4 05	 test	 ah, 5
  002c6	7a 6a		 jp	 SHORT $L258244
  002c8	8b 96 3c 02 00
	00		 mov	 edx, DWORD PTR [esi+572]
  002ce	f7 42 04 00 00
	00 08		 test	 DWORD PTR [edx+4], 134217728 ; 08000000H
  002d5	74 0a		 je	 SHORT $L258203
  002d7	8b 86 00 06 00
	00		 mov	 eax, DWORD PTR [esi+1536]
  002dd	85 c0		 test	 eax, eax
  002df	7e 51		 jle	 SHORT $L258244

; 445  : 		if( fDistSq < fRadius )	
; 446  : 		{
; 447  : 			if( ((CMover*)pObj)->IsLive() && !( ((CMover*)pObj)->IsMode( TRANSPARENT_MODE ) ) )

$L258203:
  002e1	6a 40		 push	 64			; 00000040H
  002e3	8b ce		 mov	 ecx, esi
  002e5	e8 00 00 00 00	 call	 ?GetAdjParam@CMover@@QAEHH@Z ; CMover::GetAdjParam
  002ea	f6 c4 04	 test	 ah, 4
  002ed	75 43		 jne	 SHORT $L258244
  002ef	8b 86 44 02 00
	00		 mov	 eax, DWORD PTR [esi+580]
  002f5	24 02		 and	 al, 2
  002f7	2c 02		 sub	 al, 2
  002f9	f6 d8		 neg	 al
  002fb	1b c0		 sbb	 eax, eax
  002fd	40		 inc	 eax
  002fe	89 44 24 44	 mov	 DWORD PTR $T258213[esp+120], eax
  00302	75 2e		 jne	 SHORT $L258244

; 448  : 			{
; 449  : 				((CMover *)pObj)->SetAggro( ((CMover *)pObj)->GetAggro() + 1 );

  00304	8b 86 88 11 00
	00		 mov	 eax, DWORD PTR [esi+4488]
  0030a	40		 inc	 eax
  0030b	b9 00 00 00 00	 mov	 ecx, 0
  00310	0f 98 c1	 sets	 cl
  00313	49		 dec	 ecx
  00314	23 c8		 and	 ecx, eax

; 450  : 				if( pObjMax )

  00316	8b 44 24 10	 mov	 eax, DWORD PTR _pObjMax$[esp+120]
  0031a	85 c0		 test	 eax, eax
  0031c	89 8e 88 11 00
	00		 mov	 DWORD PTR [esi+4488], ecx
  00322	74 0a		 je	 SHORT $L252314

; 451  : 				{
; 452  : 					if( ((CMover *)pObj)->GetAggro() > ((CMover *)pObjMax)->GetAggro() )		//   .

  00324	8b d1		 mov	 edx, ecx
  00326	3b 90 88 11 00
	00		 cmp	 edx, DWORD PTR [eax+4488]
  0032c	76 04		 jbe	 SHORT $L258244
$L252314:

; 453  : 						pObjMax = pObj;
; 454  : 				} else
; 455  : 					pObjMax = pObj;

  0032e	89 74 24 10	 mov	 DWORD PTR _pObjMax$[esp+120], esi
$L258244:

; 456  : 
; 457  : 			}
; 458  : 		}
; 459  : 	}
; 460  : 	END_LINKMAP

  00332	8b b6 80 01 00
	00		 mov	 esi, DWORD PTR [esi+384]
  00338	85 f6		 test	 esi, esi
  0033a	0f 85 00 ff ff
	ff		 jne	 $L252301
$L252297:

; 439  : 	
; 440  : 	FOR_LINKMAP( pObjCenter->GetWorld(), vPos, pObj, (int)( fRangeMeter / MPU ), CObj::linkPlayer, GetMover()->GetLayer() )

  00340	83 c7 04	 add	 edi, 4
  00343	4b		 dec	 ebx
  00344	0f 85 e7 fe ff
	ff		 jne	 $L252296
  0034a	8b 54 24 1c	 mov	 edx, DWORD PTR __nLinkXMin$252267[esp+120]
$L252293:
  0034e	8b 7c 24 28	 mov	 edi, DWORD PTR tv709[esp+120]
  00352	8b 4c 24 40	 mov	 ecx, DWORD PTR tv713[esp+120]
  00356	8b 44 24 2c	 mov	 eax, DWORD PTR tv147[esp+120]
  0035a	03 f9		 add	 edi, ecx
  0035c	48		 dec	 eax
  0035d	89 7c 24 28	 mov	 DWORD PTR tv709[esp+120], edi
  00361	89 44 24 2c	 mov	 DWORD PTR tv147[esp+120], eax
  00365	0f 85 b5 fe ff
	ff		 jne	 $L252292
$L252277:
  0036b	8b 44 24 30	 mov	 eax, DWORD PTR _this$[esp+120]
  0036f	8b 48 30	 mov	 ecx, DWORD PTR [eax+48]
  00372	8b 81 b8 01 00
	00		 mov	 eax, DWORD PTR [ecx+440]
  00378	8b 54 24 7c	 mov	 edx, DWORD PTR _pObjCenter$[esp+116]
  0037c	8b 74 24 20	 mov	 esi, DWORD PTR __i$252275[esp+120]
  00380	8b 8a 6c 01 00
	00		 mov	 ecx, DWORD PTR [edx+364]
  00386	50		 push	 eax
  00387	46		 inc	 esi
  00388	6a 02		 push	 2
  0038a	83 c1 24	 add	 ecx, 36			; 00000024H
  0038d	89 74 24 28	 mov	 DWORD PTR __i$252275[esp+128], esi
  00391	e8 00 00 00 00	 call	 ?GetMaxLinkLevel@CLayeredLinkMap@@QAEHKH@Z ; CLayeredLinkMap::GetMaxLinkLevel
  00396	3b f0		 cmp	 esi, eax
  00398	0f 8c 0e fd ff
	ff		 jl	 $L258245

; 461  : 	return (CMover *)pObjMax;

  0039e	8b 44 24 10	 mov	 eax, DWORD PTR _pObjMax$[esp+120]
  003a2	5f		 pop	 edi
  003a3	5e		 pop	 esi
  003a4	5d		 pop	 ebp
  003a5	5b		 pop	 ebx

; 462  : #else
; 463  : 	return NULL;
; 464  : #endif
; 465  : }

  003a6	83 c4 68	 add	 esp, 104		; 00000068H
  003a9	c2 08 00	 ret	 8
$L258243:
  003ac	5f		 pop	 edi

; 461  : 	return (CMover *)pObjMax;

  003ad	8b c6		 mov	 eax, esi
  003af	5e		 pop	 esi
  003b0	5d		 pop	 ebp
  003b1	5b		 pop	 ebx

; 462  : #else
; 463  : 	return NULL;
; 464  : #endif
; 465  : }

  003b2	83 c4 68	 add	 esp, 104		; 00000068H
  003b5	c2 08 00	 ret	 8
?ScanTargetOverAggro@CAIInterface@@IAEPAVCMover@@PAVCObj@@M@Z ENDP ; CAIInterface::ScanTargetOverAggro
_TEXT	ENDS
PUBLIC	?empty@?$queue@UAIMSG@@V?$deque@UAIMSG@@V?$allocator@UAIMSG@@@std@@@std@@@std@@QBE_NXZ ; std::queue<AIMSG,std::deque<AIMSG,std::allocator<AIMSG> > >::empty
; Function compile flags: /Ogty
; File c:\program files\microsoft visual studio .net 2003\vc7\include\queue
;	COMDAT ?empty@?$queue@UAIMSG@@V?$deque@UAIMSG@@V?$allocator@UAIMSG@@@std@@@std@@@std@@QBE_NXZ
_TEXT	SEGMENT
?empty@?$queue@UAIMSG@@V?$deque@UAIMSG@@V?$allocator@UAIMSG@@@std@@@std@@@std@@QBE_NXZ PROC NEAR ; std::queue<AIMSG,std::deque<AIMSG,std::allocator<AIMSG> > >::empty, COMDAT
; _this$ = ecx

; 36   : 		return (c.empty());

  00000	8b 51 10	 mov	 edx, DWORD PTR [ecx+16]
  00003	33 c0		 xor	 eax, eax
  00005	85 d2		 test	 edx, edx
  00007	0f 94 c0	 sete	 al

; 37   : 		}

  0000a	c3		 ret	 0
?empty@?$queue@UAIMSG@@V?$deque@UAIMSG@@V?$allocator@UAIMSG@@@std@@@std@@@std@@QBE_NXZ ENDP ; std::queue<AIMSG,std::deque<AIMSG,std::allocator<AIMSG> > >::empty
_TEXT	ENDS
PUBLIC	?allocate@?$allocator@UAIMSG@@@std@@QAEPAUAIMSG@@I@Z ; std::allocator<AIMSG>::allocate
; Function compile flags: /Ogty
; File c:\program files\microsoft visual studio .net 2003\vc7\include\xmemory
;	COMDAT ?allocate@?$allocator@UAIMSG@@@std@@QAEPAUAIMSG@@I@Z
_TEXT	SEGMENT
__Count$ = 8						; size = 4
?allocate@?$allocator@UAIMSG@@@std@@QAEPAUAIMSG@@I@Z PROC NEAR ; std::allocator<AIMSG>::allocate, COMDAT
; _this$ = ecx

; 137  : 		return (_Allocate(_Count, (pointer)0));

  00000	8b 44 24 04	 mov	 eax, DWORD PTR __Count$[esp-4]
  00004	c1 e0 04	 shl	 eax, 4
  00007	50		 push	 eax
  00008	e8 00 00 00 00	 call	 ??2@YAPAXI@Z		; operator new
  0000d	83 c4 04	 add	 esp, 4

; 138  : 		}

  00010	c2 04 00	 ret	 4
?allocate@?$allocator@UAIMSG@@@std@@QAEPAUAIMSG@@I@Z ENDP ; std::allocator<AIMSG>::allocate
_TEXT	ENDS
PUBLIC	?construct@?$allocator@UAIMSG@@@std@@QAEXPAUAIMSG@@ABU3@@Z ; std::allocator<AIMSG>::construct
; Function compile flags: /Ogty
;	COMDAT ?construct@?$allocator@UAIMSG@@@std@@QAEXPAUAIMSG@@ABU3@@Z
_TEXT	SEGMENT
__Ptr$ = 8						; size = 4
__Val$ = 12						; size = 4
?construct@?$allocator@UAIMSG@@@std@@QAEXPAUAIMSG@@ABU3@@Z PROC NEAR ; std::allocator<AIMSG>::construct, COMDAT
; _this$ = ecx

; 147  : 		_Construct(_Ptr, _Val);

  00000	8b 44 24 04	 mov	 eax, DWORD PTR __Ptr$[esp-4]
  00004	85 c0		 test	 eax, eax
  00006	74 1a		 je	 SHORT $L258271
  00008	8b 4c 24 08	 mov	 ecx, DWORD PTR __Val$[esp-4]
  0000c	8b 11		 mov	 edx, DWORD PTR [ecx]
  0000e	89 10		 mov	 DWORD PTR [eax], edx
  00010	8b 51 04	 mov	 edx, DWORD PTR [ecx+4]
  00013	89 50 04	 mov	 DWORD PTR [eax+4], edx
  00016	8b 51 08	 mov	 edx, DWORD PTR [ecx+8]
  00019	89 50 08	 mov	 DWORD PTR [eax+8], edx
  0001c	8b 49 0c	 mov	 ecx, DWORD PTR [ecx+12]
  0001f	89 48 0c	 mov	 DWORD PTR [eax+12], ecx
$L258271:

; 148  : 		}

  00022	c2 08 00	 ret	 8
?construct@?$allocator@UAIMSG@@@std@@QAEXPAUAIMSG@@ABU3@@Z ENDP ; std::allocator<AIMSG>::construct
_TEXT	ENDS
PUBLIC	?destroy@?$allocator@UAIMSG@@@std@@QAEXPAUAIMSG@@@Z ; std::allocator<AIMSG>::destroy
; Function compile flags: /Ogty
;	COMDAT ?destroy@?$allocator@UAIMSG@@@std@@QAEXPAUAIMSG@@@Z
_TEXT	SEGMENT
__Ptr$ = 8						; size = 4
?destroy@?$allocator@UAIMSG@@@std@@QAEXPAUAIMSG@@@Z PROC NEAR ; std::allocator<AIMSG>::destroy, COMDAT
; _this$ = ecx

; 152  : 		_Destroy(_Ptr);
; 153  : 		}

  00000	c2 04 00	 ret	 4
?destroy@?$allocator@UAIMSG@@@std@@QAEXPAUAIMSG@@@Z ENDP ; std::allocator<AIMSG>::destroy
_TEXT	ENDS
PUBLIC	?destroy@?$allocator@PAUAIMSG@@@std@@QAEXPAPAUAIMSG@@@Z ; std::allocator<AIMSG *>::destroy
; Function compile flags: /Ogty
;	COMDAT ?destroy@?$allocator@PAUAIMSG@@@std@@QAEXPAPAUAIMSG@@@Z
_TEXT	SEGMENT
__Ptr$ = 8						; size = 4
?destroy@?$allocator@PAUAIMSG@@@std@@QAEXPAPAUAIMSG@@@Z PROC NEAR ; std::allocator<AIMSG *>::destroy, COMDAT
; _this$ = ecx

; 152  : 		_Destroy(_Ptr);
; 153  : 		}

  00000	c2 04 00	 ret	 4
?destroy@?$allocator@PAUAIMSG@@@std@@QAEXPAPAUAIMSG@@@Z ENDP ; std::allocator<AIMSG *>::destroy
_TEXT	ENDS
PUBLIC	??Diterator@?$deque@UAIMSG@@V?$allocator@UAIMSG@@@std@@@std@@QBEAAUAIMSG@@XZ ; std::deque<AIMSG,std::allocator<AIMSG> >::iterator::operator*
; Function compile flags: /Ogty
; File c:\program files\microsoft visual studio .net 2003\vc7\include\deque
;	COMDAT ??Diterator@?$deque@UAIMSG@@V?$allocator@UAIMSG@@@std@@@std@@QBEAAUAIMSG@@XZ
_TEXT	SEGMENT
??Diterator@?$deque@UAIMSG@@V?$allocator@UAIMSG@@@std@@@std@@QBEAAUAIMSG@@XZ PROC NEAR ; std::deque<AIMSG,std::allocator<AIMSG> >::iterator::operator*, COMDAT
; _this$ = ecx

; 247  : 			return ((reference)**(const_iterator *)this);

  00000	8b 51 04	 mov	 edx, DWORD PTR [ecx+4]
  00003	8b 09		 mov	 ecx, DWORD PTR [ecx]
  00005	56		 push	 esi
  00006	8b 71 08	 mov	 esi, DWORD PTR [ecx+8]
  00009	8b c2		 mov	 eax, edx
  0000b	2b c2		 sub	 eax, edx
  0000d	3b f2		 cmp	 esi, edx
  0000f	77 02		 ja	 SHORT $L258296
  00011	2b d6		 sub	 edx, esi
$L258296:
  00013	8b 49 04	 mov	 ecx, DWORD PTR [ecx+4]
  00016	8b 34 91	 mov	 esi, DWORD PTR [ecx+edx*4]
  00019	c1 e0 04	 shl	 eax, 4
  0001c	03 c6		 add	 eax, esi
  0001e	5e		 pop	 esi

; 248  : 			}

  0001f	c3		 ret	 0
??Diterator@?$deque@UAIMSG@@V?$allocator@UAIMSG@@@std@@@std@@QBEAAUAIMSG@@XZ ENDP ; std::deque<AIMSG,std::allocator<AIMSG> >::iterator::operator*
_TEXT	ENDS
PUBLIC	?max_size@?$deque@UAIMSG@@V?$allocator@UAIMSG@@@std@@@std@@QBEIXZ ; std::deque<AIMSG,std::allocator<AIMSG> >::max_size
; Function compile flags: /Ogty
;	COMDAT ?max_size@?$deque@UAIMSG@@V?$allocator@UAIMSG@@@std@@@std@@QBEIXZ
_TEXT	SEGMENT
?max_size@?$deque@UAIMSG@@V?$allocator@UAIMSG@@@std@@@std@@QBEIXZ PROC NEAR ; std::deque<AIMSG,std::allocator<AIMSG> >::max_size, COMDAT
; _this$ = ecx

; 497  : 		return (this->_Alval.max_size());

  00000	b8 ff ff ff 0f	 mov	 eax, 268435455		; 0fffffffH

; 498  : 		}

  00005	c3		 ret	 0
?max_size@?$deque@UAIMSG@@V?$allocator@UAIMSG@@@std@@@std@@QBEIXZ ENDP ; std::deque<AIMSG,std::allocator<AIMSG> >::max_size
_TEXT	ENDS
PUBLIC	??0?$_Deque_map@UAIMSG@@V?$allocator@UAIMSG@@@std@@@std@@IAE@V?$allocator@UAIMSG@@@1@@Z ; std::_Deque_map<AIMSG,std::allocator<AIMSG> >::_Deque_map<AIMSG,std::allocator<AIMSG> >
; Function compile flags: /Ogty
;	COMDAT ??0?$_Deque_map@UAIMSG@@V?$allocator@UAIMSG@@@std@@@std@@IAE@V?$allocator@UAIMSG@@@1@@Z
_TEXT	SEGMENT
__Al$ = 8						; size = 1
??0?$_Deque_map@UAIMSG@@V?$allocator@UAIMSG@@@std@@@std@@IAE@V?$allocator@UAIMSG@@@1@@Z PROC NEAR ; std::_Deque_map<AIMSG,std::allocator<AIMSG> >::_Deque_map<AIMSG,std::allocator<AIMSG> >, COMDAT
; _this$ = ecx

; 21   : 		{	// construct allocator from _Al

  00000	8b c1		 mov	 eax, ecx

; 22   : 		}

  00002	c2 04 00	 ret	 4
??0?$_Deque_map@UAIMSG@@V?$allocator@UAIMSG@@@std@@@std@@IAE@V?$allocator@UAIMSG@@@1@@Z ENDP ; std::_Deque_map<AIMSG,std::allocator<AIMSG> >::_Deque_map<AIMSG,std::allocator<AIMSG> >
_TEXT	ENDS
PUBLIC	?allocate@?$allocator@PAUAIMSG@@@std@@QAEPAPAUAIMSG@@I@Z ; std::allocator<AIMSG *>::allocate
; Function compile flags: /Ogty
; File c:\program files\microsoft visual studio .net 2003\vc7\include\xmemory
;	COMDAT ?allocate@?$allocator@PAUAIMSG@@@std@@QAEPAPAUAIMSG@@I@Z
_TEXT	SEGMENT
__Count$ = 8						; size = 4
?allocate@?$allocator@PAUAIMSG@@@std@@QAEPAPAUAIMSG@@I@Z PROC NEAR ; std::allocator<AIMSG *>::allocate, COMDAT
; _this$ = ecx

; 137  : 		return (_Allocate(_Count, (pointer)0));

  00000	8b 44 24 04	 mov	 eax, DWORD PTR __Count$[esp-4]
  00004	8d 0c 85 00 00
	00 00		 lea	 ecx, DWORD PTR [eax*4]
  0000b	51		 push	 ecx
  0000c	e8 00 00 00 00	 call	 ??2@YAPAXI@Z		; operator new
  00011	83 c4 04	 add	 esp, 4

; 138  : 		}

  00014	c2 04 00	 ret	 4
?allocate@?$allocator@PAUAIMSG@@@std@@QAEPAPAUAIMSG@@I@Z ENDP ; std::allocator<AIMSG *>::allocate
_TEXT	ENDS
PUBLIC	??0iterator@?$deque@UAIMSG@@V?$allocator@UAIMSG@@@std@@@std@@QAE@IPBV12@@Z ; std::deque<AIMSG,std::allocator<AIMSG> >::iterator::iterator
; Function compile flags: /Ogty
; File c:\program files\microsoft visual studio .net 2003\vc7\include\deque
;	COMDAT ??0iterator@?$deque@UAIMSG@@V?$allocator@UAIMSG@@@std@@@std@@QAE@IPBV12@@Z
_TEXT	SEGMENT
__Off$ = 8						; size = 4
__Pdeque$ = 12						; size = 4
??0iterator@?$deque@UAIMSG@@V?$allocator@UAIMSG@@@std@@@std@@QAE@IPBV12@@Z PROC NEAR ; std::deque<AIMSG,std::allocator<AIMSG> >::iterator::iterator, COMDAT
; _this$ = ecx

; 242  : 			{	// construct with offset _Off in *_Pdeque

  00000	8b 54 24 04	 mov	 edx, DWORD PTR __Off$[esp-4]
  00004	8b c1		 mov	 eax, ecx
  00006	8b 4c 24 08	 mov	 ecx, DWORD PTR __Pdeque$[esp-4]
  0000a	89 08		 mov	 DWORD PTR [eax], ecx
  0000c	89 50 04	 mov	 DWORD PTR [eax+4], edx

; 243  : 			}

  0000f	c2 08 00	 ret	 8
??0iterator@?$deque@UAIMSG@@V?$allocator@UAIMSG@@@std@@@std@@QAE@IPBV12@@Z ENDP ; std::deque<AIMSG,std::allocator<AIMSG> >::iterator::iterator
_TEXT	ENDS
PUBLIC	??$_Uninitialized_copy@PAPAUAIMSG@@PAPAU1@V?$allocator@PAUAIMSG@@@std@@@std@@YAPAPAUAIMSG@@PAPAU1@00AAV?$allocator@PAUAIMSG@@@0@@Z ; std::_Uninitialized_copy<AIMSG * *,AIMSG * *,std::allocator<AIMSG *> >
; Function compile flags: /Ogty
; File c:\program files\microsoft visual studio .net 2003\vc7\include\memory
;	COMDAT ??$_Uninitialized_copy@PAPAUAIMSG@@PAPAU1@V?$allocator@PAUAIMSG@@@std@@@std@@YAPAPAUAIMSG@@PAPAU1@00AAV?$allocator@PAUAIMSG@@@0@@Z
_TEXT	SEGMENT
__First$ = 8						; size = 4
__Last$ = 12						; size = 4
__Dest$ = 16						; size = 4
__Al$ = 20						; size = 4
??$_Uninitialized_copy@PAPAUAIMSG@@PAPAU1@V?$allocator@PAUAIMSG@@@std@@@std@@YAPAPAUAIMSG@@PAPAU1@00AAV?$allocator@PAUAIMSG@@@0@@Z PROC NEAR ; std::_Uninitialized_copy<AIMSG * *,AIMSG * *,std::allocator<AIMSG *> >, COMDAT

; 127  : 	return (_Uninit_copy(_First, _Last, _Dest, _Al,
; 128  : 		_Ptr_cat(_First, _Dest)));

  00000	8b 4c 24 04	 mov	 ecx, DWORD PTR __First$[esp-4]
  00004	8b 44 24 08	 mov	 eax, DWORD PTR __Last$[esp-4]
  00008	2b c1		 sub	 eax, ecx
  0000a	56		 push	 esi
  0000b	c1 f8 02	 sar	 eax, 2
  0000e	8d 34 85 00 00
	00 00		 lea	 esi, DWORD PTR [eax*4]
  00015	8b 44 24 10	 mov	 eax, DWORD PTR __Dest$[esp]
  00019	56		 push	 esi
  0001a	51		 push	 ecx
  0001b	50		 push	 eax
  0001c	e8 00 00 00 00	 call	 _memmove
  00021	83 c4 0c	 add	 esp, 12			; 0000000cH
  00024	03 c6		 add	 eax, esi
  00026	5e		 pop	 esi

; 129  : 	}

  00027	c3		 ret	 0
??$_Uninitialized_copy@PAPAUAIMSG@@PAPAU1@V?$allocator@PAUAIMSG@@@std@@@std@@YAPAPAUAIMSG@@PAPAU1@00AAV?$allocator@PAUAIMSG@@@0@@Z ENDP ; std::_Uninitialized_copy<AIMSG * *,AIMSG * *,std::allocator<AIMSG *> >
_TEXT	ENDS
PUBLIC	??$_Destroy_range@PAUAIMSG@@V?$allocator@PAUAIMSG@@@std@@@std@@YAXPAPAUAIMSG@@0AAV?$allocator@PAUAIMSG@@@0@@Z ; std::_Destroy_range<AIMSG *,std::allocator<AIMSG *> >
; Function compile flags: /Ogty
; File c:\program files\microsoft visual studio .net 2003\vc7\include\xmemory
;	COMDAT ??$_Destroy_range@PAUAIMSG@@V?$allocator@PAUAIMSG@@@std@@@std@@YAXPAPAUAIMSG@@0AAV?$allocator@PAUAIMSG@@@0@@Z
_TEXT	SEGMENT
__First$ = 8						; size = 4
__Last$ = 12						; size = 4
__Al$ = 16						; size = 4
??$_Destroy_range@PAUAIMSG@@V?$allocator@PAUAIMSG@@@std@@@std@@YAXPAPAUAIMSG@@0AAV?$allocator@PAUAIMSG@@@0@@Z PROC NEAR ; std::_Destroy_range<AIMSG *,std::allocator<AIMSG *> >, COMDAT

; 217  : 	_Destroy_range(_First, _Last, _Al, _Ptr_cat(_First, _Last));
; 218  : 	}

  00000	c3		 ret	 0
??$_Destroy_range@PAUAIMSG@@V?$allocator@PAUAIMSG@@@std@@@std@@YAXPAPAUAIMSG@@0AAV?$allocator@PAUAIMSG@@@0@@Z ENDP ; std::_Destroy_range<AIMSG *,std::allocator<AIMSG *> >
_TEXT	ENDS
PUBLIC	??$_Uninit_fill_n@PAUAIMSG@@IPAU1@@std@@YAXPAPAUAIMSG@@IABQAU1@AAV?$allocator@PAUAIMSG@@@0@U_Scalar_ptr_iterator_tag@0@@Z ; std::_Uninit_fill_n<AIMSG *,unsigned int,AIMSG *>
; Function compile flags: /Ogty
; File c:\program files\microsoft visual studio .net 2003\vc7\include\memory
;	COMDAT ??$_Uninit_fill_n@PAUAIMSG@@IPAU1@@std@@YAXPAPAUAIMSG@@IABQAU1@AAV?$allocator@PAUAIMSG@@@0@U_Scalar_ptr_iterator_tag@0@@Z
_TEXT	SEGMENT
__First$ = 8						; size = 4
__Count$ = 12						; size = 4
__Val$ = 16						; size = 4
___formal$ = 20						; size = 4
___formal$ = 24						; size = 1
??$_Uninit_fill_n@PAUAIMSG@@IPAU1@@std@@YAXPAPAUAIMSG@@IABQAU1@AAV?$allocator@PAUAIMSG@@@0@U_Scalar_ptr_iterator_tag@0@@Z PROC NEAR ; std::_Uninit_fill_n<AIMSG *,unsigned int,AIMSG *>, COMDAT

; 237  : 	fill_n(_First, _Count, _Val);

  00000	8b 4c 24 08	 mov	 ecx, DWORD PTR __Count$[esp-4]
  00004	85 c9		 test	 ecx, ecx
  00006	8b 44 24 04	 mov	 eax, DWORD PTR __First$[esp-4]
  0000a	76 10		 jbe	 SHORT $L258356
  0000c	8b 54 24 0c	 mov	 edx, DWORD PTR __Val$[esp-4]
  00010	56		 push	 esi
$L258354:
  00011	8b 32		 mov	 esi, DWORD PTR [edx]
  00013	89 30		 mov	 DWORD PTR [eax], esi
  00015	83 c0 04	 add	 eax, 4
  00018	49		 dec	 ecx
  00019	75 f6		 jne	 SHORT $L258354
  0001b	5e		 pop	 esi
$L258356:

; 238  : 	}

  0001c	c3		 ret	 0
??$_Uninit_fill_n@PAUAIMSG@@IPAU1@@std@@YAXPAPAUAIMSG@@IABQAU1@AAV?$allocator@PAUAIMSG@@@0@U_Scalar_ptr_iterator_tag@0@@Z ENDP ; std::_Uninit_fill_n<AIMSG *,unsigned int,AIMSG *>
_TEXT	ENDS
PUBLIC	??0?$_String_val@DV?$allocator@D@std@@@std@@IAE@V?$allocator@D@1@@Z ; std::_String_val<char,std::allocator<char> >::_String_val<char,std::allocator<char> >
; Function compile flags: /Ogty
; File c:\program files\microsoft visual studio .net 2003\vc7\include\xstring
;	COMDAT ??0?$_String_val@DV?$allocator@D@std@@@std@@IAE@V?$allocator@D@1@@Z
_TEXT	SEGMENT
__Al$ = 8						; size = 1
??0?$_String_val@DV?$allocator@D@std@@@std@@IAE@V?$allocator@D@1@@Z PROC NEAR ; std::_String_val<char,std::allocator<char> >::_String_val<char,std::allocator<char> >, COMDAT
; _this$ = ecx

; 34   : 		{	// construct allocator from _Al

  00000	8b c1		 mov	 eax, ecx

; 35   : 		}

  00002	c2 04 00	 ret	 4
??0?$_String_val@DV?$allocator@D@std@@@std@@IAE@V?$allocator@D@1@@Z ENDP ; std::_String_val<char,std::allocator<char> >::_String_val<char,std::allocator<char> >
_TEXT	ENDS
PUBLIC	?_Eos@?$basic_string@DU?$char_traits@D@std@@V?$allocator@D@2@@std@@IAEXI@Z ; std::basic_string<char,std::char_traits<char>,std::allocator<char> >::_Eos
; Function compile flags: /Ogty
;	COMDAT ?_Eos@?$basic_string@DU?$char_traits@D@std@@V?$allocator@D@2@@std@@IAEXI@Z
_TEXT	SEGMENT
__Newsize$ = 8						; size = 4
?_Eos@?$basic_string@DU?$char_traits@D@std@@V?$allocator@D@2@@std@@IAEXI@Z PROC NEAR ; std::basic_string<char,std::char_traits<char>,std::allocator<char> >::_Eos, COMDAT
; _this$ = ecx

; 1475 : 		_Traits::assign(_Myptr()[_Mysize = _Newsize], _Elem());

  00000	83 79 18 10	 cmp	 DWORD PTR [ecx+24], 16	; 00000010H
  00004	8b 44 24 04	 mov	 eax, DWORD PTR __Newsize$[esp-4]
  00008	89 41 14	 mov	 DWORD PTR [ecx+20], eax
  0000b	72 0a		 jb	 SHORT $L258377
  0000d	8b 49 04	 mov	 ecx, DWORD PTR [ecx+4]
  00010	c6 04 01 00	 mov	 BYTE PTR [ecx+eax], 0

; 1476 : 		}

  00014	c2 04 00	 ret	 4

; 1475 : 		_Traits::assign(_Myptr()[_Mysize = _Newsize], _Elem());

$L258377:
  00017	c6 44 01 04 00	 mov	 BYTE PTR [ecx+eax+4], 0

; 1476 : 		}

  0001c	c2 04 00	 ret	 4
?_Eos@?$basic_string@DU?$char_traits@D@std@@V?$allocator@D@2@@std@@IAEXI@Z ENDP ; std::basic_string<char,std::char_traits<char>,std::allocator<char> >::_Eos
_TEXT	ENDS
PUBLIC	?max_size@?$basic_string@DU?$char_traits@D@std@@V?$allocator@D@2@@std@@QBEIXZ ; std::basic_string<char,std::char_traits<char>,std::allocator<char> >::max_size
; Function compile flags: /Ogty
;	COMDAT ?max_size@?$basic_string@DU?$char_traits@D@std@@V?$allocator@D@2@@std@@QBEIXZ
_TEXT	SEGMENT
?max_size@?$basic_string@DU?$char_traits@D@std@@V?$allocator@D@2@@std@@QBEIXZ PROC NEAR ; std::basic_string<char,std::char_traits<char>,std::allocator<char> >::max_size, COMDAT
; _this$ = ecx

; 1114 : 		size_type _Num = _Mybase::_Alval.max_size();
; 1115 : 		return (_Num <= 1 ? 1 : _Num - 1);

  00000	b8 fe ff ff ff	 mov	 eax, -2			; fffffffeH

; 1116 : 		}

  00005	c3		 ret	 0
?max_size@?$basic_string@DU?$char_traits@D@std@@V?$allocator@D@2@@std@@QBEIXZ ENDP ; std::basic_string<char,std::char_traits<char>,std::allocator<char> >::max_size
_TEXT	ENDS
PUBLIC	?allocate@?$allocator@D@std@@QAEPADI@Z		; std::allocator<char>::allocate
; Function compile flags: /Ogty
; File c:\program files\microsoft visual studio .net 2003\vc7\include\xmemory
;	COMDAT ?allocate@?$allocator@D@std@@QAEPADI@Z
_TEXT	SEGMENT
__Count$ = 8						; size = 4
?allocate@?$allocator@D@std@@QAEPADI@Z PROC NEAR	; std::allocator<char>::allocate, COMDAT
; _this$ = ecx

; 137  : 		return (_Allocate(_Count, (pointer)0));

  00000	8b 44 24 04	 mov	 eax, DWORD PTR __Count$[esp-4]
  00004	50		 push	 eax
  00005	e8 00 00 00 00	 call	 ??2@YAPAXI@Z		; operator new
  0000a	83 c4 04	 add	 esp, 4

; 138  : 		}

  0000d	c2 04 00	 ret	 4
?allocate@?$allocator@D@std@@QAEPADI@Z ENDP		; std::allocator<char>::allocate
_TEXT	ENDS
PUBLIC	?ScanTargetOverLeader@CAIInterface@@IAEPAVCMover@@PAVCObj@@MK@Z ; CAIInterface::ScanTargetOverLeader
EXTRN	?GetParty@CPartyMng@@QAEPAVCParty@@K@Z:NEAR	; CPartyMng::GetParty
EXTRN	?g_PartyMng@@3VCPartyMng@@A:BYTE		; g_PartyMng
EXTRN	?GetLeader@CParty@@QAEPAVCMover@@XZ:NEAR	; CParty::GetLeader
; Function compile flags: /Ogty
; File c:\documents and settings\test\mes documents\source\virtuos_v17\build\program\_aiinterface\aiinterface.cpp
;	COMDAT ?ScanTargetOverLeader@CAIInterface@@IAEPAVCMover@@PAVCObj@@MK@Z
_TEXT	SEGMENT
$T258404 = -36						; size = 12
$T258405 = -24						; size = 12
$T258406 = -12						; size = 12
_pObjCenter$ = 8					; size = 4
_fRangeMeter$ = 12					; size = 4
_idParty$ = 16						; size = 4
?ScanTargetOverLeader@CAIInterface@@IAEPAVCMover@@PAVCObj@@MK@Z PROC NEAR ; CAIInterface::ScanTargetOverLeader, COMDAT
; _this$ = ecx

; 376  : {

  00000	83 ec 24	 sub	 esp, 36			; 00000024H
  00003	55		 push	 ebp

; 377  : #ifndef __CLIENT
; 378  : 	CParty* pParty = g_PartyMng.GetParty( idParty );

  00004	8b 6c 24 34	 mov	 ebp, DWORD PTR _idParty$[esp+36]
  00008	56		 push	 esi
  00009	8b f1		 mov	 esi, ecx
  0000b	55		 push	 ebp
  0000c	b9 00 00 00 00	 mov	 ecx, OFFSET FLAT:?g_PartyMng@@3VCPartyMng@@A
  00011	e8 00 00 00 00	 call	 ?GetParty@CPartyMng@@QAEPAVCParty@@K@Z ; CPartyMng::GetParty

; 379  : 	CMover* pMover = NULL;
; 380  : 	if( pParty )	

  00016	85 c0		 test	 eax, eax
  00018	0f 84 d9 00 00
	00		 je	 $L252167
  0001e	53		 push	 ebx
  0001f	57		 push	 edi

; 381  : 		pMover = pParty->GetLeader();

  00020	8b c8		 mov	 ecx, eax
  00022	e8 00 00 00 00	 call	 ?GetLeader@CParty@@QAEPAVCMover@@XZ ; CParty::GetLeader

; 384  : 	if( pMover && pMover->IsLive() && IsInRange( ( pObjCenter->GetPos() - pMover->GetPos() ), fRangeMeter ) )

  00027	8b 7c 24 3c	 mov	 edi, DWORD PTR _fRangeMeter$[esp+48]
  0002b	8b 5c 24 38	 mov	 ebx, DWORD PTR _pObjCenter$[esp+48]
  0002f	8b d0		 mov	 edx, eax
  00031	85 d2		 test	 edx, edx
  00033	0f 84 aa 00 00
	00		 je	 $L252172
  00039	8b 82 3c 02 00
	00		 mov	 eax, DWORD PTR [edx+572]
  0003f	f7 40 04 00 00
	00 08		 test	 DWORD PTR [eax+4], 134217728 ; 08000000H
  00046	74 0e		 je	 SHORT $L258414
  00048	8b 82 00 06 00
	00		 mov	 eax, DWORD PTR [edx+1536]
  0004e	85 c0		 test	 eax, eax
  00050	0f 8e 8d 00 00
	00		 jle	 $L252172
$L258414:
  00056	8d 8a 60 01 00
	00		 lea	 ecx, DWORD PTR [edx+352]
  0005c	8b 01		 mov	 eax, DWORD PTR [ecx]
  0005e	89 44 24 1c	 mov	 DWORD PTR $T258405[esp+52], eax
  00062	8b 41 04	 mov	 eax, DWORD PTR [ecx+4]
  00065	8b 49 08	 mov	 ecx, DWORD PTR [ecx+8]
  00068	89 44 24 20	 mov	 DWORD PTR $T258405[esp+56], eax
  0006c	89 4c 24 24	 mov	 DWORD PTR $T258405[esp+60], ecx
  00070	8d 83 60 01 00
	00		 lea	 eax, DWORD PTR [ebx+352]
  00076	8b 08		 mov	 ecx, DWORD PTR [eax]
  00078	89 4c 24 10	 mov	 DWORD PTR $T258404[esp+52], ecx
  0007c	d9 44 24 10	 fld	 DWORD PTR $T258404[esp+52]
  00080	d8 64 24 1c	 fsub	 DWORD PTR $T258405[esp+52]
  00084	8b 48 04	 mov	 ecx, DWORD PTR [eax+4]
  00087	8b 40 08	 mov	 eax, DWORD PTR [eax+8]
  0008a	89 4c 24 14	 mov	 DWORD PTR $T258404[esp+56], ecx
  0008e	d9 5c 24 28	 fstp	 DWORD PTR $T258406[esp+52]
  00092	89 44 24 18	 mov	 DWORD PTR $T258404[esp+60], eax
  00096	d9 44 24 14	 fld	 DWORD PTR $T258404[esp+56]
  0009a	57		 push	 edi
  0009b	d8 64 24 24	 fsub	 DWORD PTR $T258405[esp+60]
  0009f	8d 4c 24 2c	 lea	 ecx, DWORD PTR $T258406[esp+56]
  000a3	51		 push	 ecx
  000a4	8b ce		 mov	 ecx, esi
  000a6	d9 5c 24 34	 fstp	 DWORD PTR $T258406[esp+64]
  000aa	d9 44 24 20	 fld	 DWORD PTR $T258404[esp+68]
  000ae	d8 64 24 2c	 fsub	 DWORD PTR $T258405[esp+68]
  000b2	d9 5c 24 38	 fstp	 DWORD PTR $T258406[esp+68]
  000b6	e8 00 00 00 00	 call	 ?IsInRange@CAIInterface@@IAEHAAUD3DXVECTOR3@@M@Z ; CAIInterface::IsInRange
  000bb	85 c0		 test	 eax, eax
  000bd	74 24		 je	 SHORT $L252172

; 385  : 	{
; 386  : 		pMover->SetAggro( pMover->GetAggro() + 1 );

  000bf	8b 82 88 11 00
	00		 mov	 eax, DWORD PTR [edx+4488]
  000c5	40		 inc	 eax
  000c6	b9 00 00 00 00	 mov	 ecx, 0
  000cb	0f 98 c1	 sets	 cl
  000ce	5f		 pop	 edi
  000cf	5b		 pop	 ebx
  000d0	5e		 pop	 esi
  000d1	5d		 pop	 ebp
  000d2	49		 dec	 ecx
  000d3	23 c8		 and	 ecx, eax
  000d5	89 8a 88 11 00
	00		 mov	 DWORD PTR [edx+4488], ecx

; 387  : 		return pMover;

  000db	8b c2		 mov	 eax, edx

; 391  : #endif
; 392  : 	return NULL;
; 393  : }

  000dd	83 c4 24	 add	 esp, 36			; 00000024H
  000e0	c2 0c 00	 ret	 12			; 0000000cH
$L252172:

; 388  : 	}
; 389  : 	else
; 390  : 		return ScanTargetOverParty( pObjCenter, fRangeMeter, idParty );

  000e3	55		 push	 ebp
  000e4	57		 push	 edi
  000e5	53		 push	 ebx
  000e6	8b ce		 mov	 ecx, esi
  000e8	e8 00 00 00 00	 call	 ?ScanTargetOverParty@CAIInterface@@IAEPAVCMover@@PAVCObj@@MK@Z ; CAIInterface::ScanTargetOverParty
  000ed	5f		 pop	 edi
  000ee	5b		 pop	 ebx
  000ef	5e		 pop	 esi
  000f0	5d		 pop	 ebp

; 391  : #endif
; 392  : 	return NULL;
; 393  : }

  000f1	83 c4 24	 add	 esp, 36			; 00000024H
  000f4	c2 0c 00	 ret	 12			; 0000000cH
$L252167:

; 382  : 	else
; 383  : 		return ScanTargetOverAggro( pObjCenter, fRangeMeter );

  000f7	8b 54 24 34	 mov	 edx, DWORD PTR _fRangeMeter$[esp+40]
  000fb	8b 44 24 30	 mov	 eax, DWORD PTR _pObjCenter$[esp+40]
  000ff	52		 push	 edx
  00100	50		 push	 eax
  00101	8b ce		 mov	 ecx, esi
  00103	e8 00 00 00 00	 call	 ?ScanTargetOverAggro@CAIInterface@@IAEPAVCMover@@PAVCObj@@M@Z ; CAIInterface::ScanTargetOverAggro
  00108	5e		 pop	 esi
  00109	5d		 pop	 ebp

; 391  : #endif
; 392  : 	return NULL;
; 393  : }

  0010a	83 c4 24	 add	 esp, 36			; 00000024H
  0010d	c2 0c 00	 ret	 12			; 0000000cH
?ScanTargetOverLeader@CAIInterface@@IAEPAVCMover@@PAVCObj@@MK@Z ENDP ; CAIInterface::ScanTargetOverLeader
_TEXT	ENDS
PUBLIC	?pop_front@?$deque@UAIMSG@@V?$allocator@UAIMSG@@@std@@@std@@QAEXXZ ; std::deque<AIMSG,std::allocator<AIMSG> >::pop_front
; Function compile flags: /Ogty
; File c:\program files\microsoft visual studio .net 2003\vc7\include\deque
;	COMDAT ?pop_front@?$deque@UAIMSG@@V?$allocator@UAIMSG@@@std@@@std@@QAEXXZ
_TEXT	SEGMENT
?pop_front@?$deque@UAIMSG@@V?$allocator@UAIMSG@@@std@@@std@@QAEXXZ PROC NEAR ; std::deque<AIMSG,std::allocator<AIMSG> >::pop_front, COMDAT
; _this$ = ecx

; 571  : 		if (!empty())

  00000	8b 41 10	 mov	 eax, DWORD PTR [ecx+16]
  00003	85 c0		 test	 eax, eax
  00005	74 24		 je	 SHORT $L253425

; 572  : 			{	// something to erase, do it
; 573  : 			size_type _Block = _Myoff / _DEQUESIZ;
; 574  : 			this->_Alval.destroy(_Map[_Block] + _Myoff % _DEQUESIZ);
; 575  : 			if (_Mapsize * _DEQUESIZ <= ++_Myoff)

  00007	8b 51 0c	 mov	 edx, DWORD PTR [ecx+12]
  0000a	57		 push	 edi
  0000b	8b 79 08	 mov	 edi, DWORD PTR [ecx+8]
  0000e	42		 inc	 edx
  0000f	3b fa		 cmp	 edi, edx
  00011	89 51 0c	 mov	 DWORD PTR [ecx+12], edx
  00014	5f		 pop	 edi
  00015	77 07		 ja	 SHORT $L253424

; 576  : 				_Myoff = 0;

  00017	c7 41 0c 00 00
	00 00		 mov	 DWORD PTR [ecx+12], 0
$L253424:

; 577  : 			if (--_Mysize == 0)

  0001e	48		 dec	 eax
  0001f	89 41 10	 mov	 DWORD PTR [ecx+16], eax
  00022	75 07		 jne	 SHORT $L253425

; 578  : 				_Myoff = 0;

  00024	c7 41 0c 00 00
	00 00		 mov	 DWORD PTR [ecx+12], 0
$L253425:

; 579  : 			}
; 580  : 		}

  0002b	c3		 ret	 0
?pop_front@?$deque@UAIMSG@@V?$allocator@UAIMSG@@@std@@@std@@QAEXXZ ENDP ; std::deque<AIMSG,std::allocator<AIMSG> >::pop_front
_TEXT	ENDS
PUBLIC	?begin@?$deque@UAIMSG@@V?$allocator@UAIMSG@@@std@@@std@@QAE?AViterator@12@XZ ; std::deque<AIMSG,std::allocator<AIMSG> >::begin
; Function compile flags: /Ogty
;	COMDAT ?begin@?$deque@UAIMSG@@V?$allocator@UAIMSG@@@std@@@std@@QAE?AViterator@12@XZ
_TEXT	SEGMENT
___$ReturnUdt$ = 8					; size = 4
?begin@?$deque@UAIMSG@@V?$allocator@UAIMSG@@@std@@@std@@QAE?AViterator@12@XZ PROC NEAR ; std::deque<AIMSG,std::allocator<AIMSG> >::begin, COMDAT
; _this$ = ecx

; 439  : 		return (iterator(_Myoff, this));

  00000	8b 51 0c	 mov	 edx, DWORD PTR [ecx+12]
  00003	8b 44 24 04	 mov	 eax, DWORD PTR ___$ReturnUdt$[esp-4]
  00007	89 08		 mov	 DWORD PTR [eax], ecx
  00009	89 50 04	 mov	 DWORD PTR [eax+4], edx

; 440  : 		}

  0000c	c2 04 00	 ret	 4
?begin@?$deque@UAIMSG@@V?$allocator@UAIMSG@@@std@@@std@@QAE?AViterator@12@XZ ENDP ; std::deque<AIMSG,std::allocator<AIMSG> >::begin
_TEXT	ENDS
PUBLIC	?pop_back@?$deque@UAIMSG@@V?$allocator@UAIMSG@@@std@@@std@@QAEXXZ ; std::deque<AIMSG,std::allocator<AIMSG> >::pop_back
; Function compile flags: /Ogty
;	COMDAT ?pop_back@?$deque@UAIMSG@@V?$allocator@UAIMSG@@@std@@@std@@QAEXXZ
_TEXT	SEGMENT
?pop_back@?$deque@UAIMSG@@V?$allocator@UAIMSG@@@std@@@std@@QAEXXZ PROC NEAR ; std::deque<AIMSG,std::allocator<AIMSG> >::pop_back, COMDAT
; _this$ = ecx

; 599  : 		if (!empty())

  00000	8b 41 10	 mov	 eax, DWORD PTR [ecx+16]
  00003	85 c0		 test	 eax, eax
  00005	74 0d		 je	 SHORT $L253798

; 600  : 			{	// something to erase, do it
; 601  : 			size_type _Newoff = _Mysize + _Myoff - 1;
; 602  : 			size_type _Block = _Newoff / _DEQUESIZ;
; 603  : 			if (_Mapsize <= _Block)
; 604  : 				_Block -= _Mapsize;
; 605  : 			this->_Alval.destroy(_Map[_Block] + _Newoff % _DEQUESIZ);
; 606  : 			if (--_Mysize == 0)

  00007	48		 dec	 eax
  00008	89 41 10	 mov	 DWORD PTR [ecx+16], eax
  0000b	75 07		 jne	 SHORT $L253798

; 607  : 				_Myoff = 0;

  0000d	c7 41 0c 00 00
	00 00		 mov	 DWORD PTR [ecx+12], 0
$L253798:

; 608  : 			}
; 609  : 		}

  00014	c3		 ret	 0
?pop_back@?$deque@UAIMSG@@V?$allocator@UAIMSG@@@std@@@std@@QAEXXZ ENDP ; std::deque<AIMSG,std::allocator<AIMSG> >::pop_back
_TEXT	ENDS
PUBLIC	??0?$_Deque_val@UAIMSG@@V?$allocator@UAIMSG@@@std@@@std@@IAE@V?$allocator@UAIMSG@@@1@@Z ; std::_Deque_val<AIMSG,std::allocator<AIMSG> >::_Deque_val<AIMSG,std::allocator<AIMSG> >
; Function compile flags: /Ogty
;	COMDAT ??0?$_Deque_val@UAIMSG@@V?$allocator@UAIMSG@@@std@@@std@@IAE@V?$allocator@UAIMSG@@@1@@Z
_TEXT	SEGMENT
__Al$ = 8						; size = 1
??0?$_Deque_val@UAIMSG@@V?$allocator@UAIMSG@@@std@@@std@@IAE@V?$allocator@UAIMSG@@@1@@Z PROC NEAR ; std::_Deque_val<AIMSG,std::allocator<AIMSG> >::_Deque_val<AIMSG,std::allocator<AIMSG> >, COMDAT
; _this$ = ecx

; 40   : 		{	// construct allocator and base from _Al

  00000	8b c1		 mov	 eax, ecx

; 41   : 		}

  00002	c2 04 00	 ret	 4
??0?$_Deque_val@UAIMSG@@V?$allocator@UAIMSG@@@std@@@std@@IAE@V?$allocator@UAIMSG@@@1@@Z ENDP ; std::_Deque_val<AIMSG,std::allocator<AIMSG> >::_Deque_val<AIMSG,std::allocator<AIMSG> >
_TEXT	ENDS
PUBLIC	??$_Uninitialized_fill_n@PAPAUAIMSG@@IPAU1@V?$allocator@PAUAIMSG@@@std@@@std@@YAXPAPAUAIMSG@@IABQAU1@AAV?$allocator@PAUAIMSG@@@0@@Z ; std::_Uninitialized_fill_n<AIMSG * *,unsigned int,AIMSG *,std::allocator<AIMSG *> >
; Function compile flags: /Ogty
; File c:\program files\microsoft visual studio .net 2003\vc7\include\memory
;	COMDAT ??$_Uninitialized_fill_n@PAPAUAIMSG@@IPAU1@V?$allocator@PAUAIMSG@@@std@@@std@@YAXPAPAUAIMSG@@IABQAU1@AAV?$allocator@PAUAIMSG@@@0@@Z
_TEXT	SEGMENT
__First$ = 8						; size = 4
__Count$ = 12						; size = 4
__Val$ = 16						; size = 4
__Al$ = 20						; size = 4
??$_Uninitialized_fill_n@PAPAUAIMSG@@IPAU1@V?$allocator@PAUAIMSG@@@std@@@std@@YAXPAPAUAIMSG@@IABQAU1@AAV?$allocator@PAUAIMSG@@@0@@Z PROC NEAR ; std::_Uninitialized_fill_n<AIMSG * *,unsigned int,AIMSG *,std::allocator<AIMSG *> >, COMDAT

; 256  : 	_Uninit_fill_n(_First, _Count, _Val, _Al,
; 257  : 		_Ptr_cat(_First, _First));

  00000	8b 4c 24 08	 mov	 ecx, DWORD PTR __Count$[esp-4]
  00004	85 c9		 test	 ecx, ecx
  00006	8b 44 24 04	 mov	 eax, DWORD PTR __First$[esp-4]
  0000a	76 10		 jbe	 SHORT $L258514
  0000c	8b 54 24 0c	 mov	 edx, DWORD PTR __Val$[esp-4]
  00010	56		 push	 esi
$L258512:
  00011	8b 32		 mov	 esi, DWORD PTR [edx]
  00013	89 30		 mov	 DWORD PTR [eax], esi
  00015	83 c0 04	 add	 eax, 4
  00018	49		 dec	 ecx
  00019	75 f6		 jne	 SHORT $L258512
  0001b	5e		 pop	 esi
$L258514:

; 258  : 	}

  0001c	c3		 ret	 0
??$_Uninitialized_fill_n@PAPAUAIMSG@@IPAU1@V?$allocator@PAUAIMSG@@@std@@@std@@YAXPAPAUAIMSG@@IABQAU1@AAV?$allocator@PAUAIMSG@@@0@@Z ENDP ; std::_Uninitialized_fill_n<AIMSG * *,unsigned int,AIMSG *,std::allocator<AIMSG *> >
_TEXT	ENDS
PUBLIC	?_Tidy@?$basic_string@DU?$char_traits@D@std@@V?$allocator@D@2@@std@@IAEX_NI@Z ; std::basic_string<char,std::char_traits<char>,std::allocator<char> >::_Tidy
; Function compile flags: /Ogty
; File c:\program files\microsoft visual studio .net 2003\vc7\include\xstring
;	COMDAT ?_Tidy@?$basic_string@DU?$char_traits@D@std@@V?$allocator@D@2@@std@@IAEX_NI@Z
_TEXT	SEGMENT
__Built$ = 8						; size = 1
__Newsize$ = 12						; size = 4
?_Tidy@?$basic_string@DU?$char_traits@D@std@@V?$allocator@D@2@@std@@IAEX_NI@Z PROC NEAR ; std::basic_string<char,std::char_traits<char>,std::allocator<char> >::_Tidy, COMDAT
; _this$ = ecx

; 1510 : 		if (!_Built)

  00000	8a 44 24 04	 mov	 al, BYTE PTR __Built$[esp-4]
  00004	84 c0		 test	 al, al
  00006	53		 push	 ebx
  00007	55		 push	 ebp
  00008	8b 6c 24 10	 mov	 ebp, DWORD PTR __Newsize$[esp+4]
  0000c	8b d9		 mov	 ebx, ecx
  0000e	74 2f		 je	 SHORT $L258526

; 1511 : 			;
; 1512 : 		else if (_BUF_SIZE <= _Myres)

  00010	83 7b 18 10	 cmp	 DWORD PTR [ebx+24], 16	; 00000010H
  00014	72 29		 jb	 SHORT $L258526

; 1513 : 			{	// copy any leftovers to small buffer and deallocate
; 1514 : 			_Elem *_Ptr = _Bx._Ptr;
; 1515 : 			if (0 < _Newsize)

  00016	85 ed		 test	 ebp, ebp
  00018	8b 43 04	 mov	 eax, DWORD PTR [ebx+4]
  0001b	57		 push	 edi
  0001c	8d 7b 04	 lea	 edi, DWORD PTR [ebx+4]
  0001f	76 14		 jbe	 SHORT $L258523
  00021	56		 push	 esi

; 1516 : 				_Traits::copy(_Bx._Buf, _Ptr, _Newsize);

  00022	8b cd		 mov	 ecx, ebp
  00024	8b d1		 mov	 edx, ecx
  00026	c1 e9 02	 shr	 ecx, 2
  00029	8b f0		 mov	 esi, eax
  0002b	f3 a5		 rep movsd
  0002d	8b ca		 mov	 ecx, edx
  0002f	83 e1 03	 and	 ecx, 3
  00032	f3 a4		 rep movsb
  00034	5e		 pop	 esi
$L258523:

; 1517 : 			_Mybase::_Alval.deallocate(_Ptr, _Myres + 1);

  00035	50		 push	 eax
  00036	e8 00 00 00 00	 call	 ??3@YAXPAX@Z		; operator delete
  0003b	83 c4 04	 add	 esp, 4
  0003e	5f		 pop	 edi
$L258526:

; 1518 : 			}
; 1519 : 		_Myres = _BUF_SIZE - 1;
; 1520 : 		_Eos(_Newsize);

  0003f	89 6b 14	 mov	 DWORD PTR [ebx+20], ebp
  00042	c7 43 18 0f 00
	00 00		 mov	 DWORD PTR [ebx+24], 15	; 0000000fH
  00049	c6 44 2b 04 00	 mov	 BYTE PTR [ebx+ebp+4], 0
  0004e	5d		 pop	 ebp
  0004f	5b		 pop	 ebx

; 1521 : 		}

  00050	c2 08 00	 ret	 8
?_Tidy@?$basic_string@DU?$char_traits@D@std@@V?$allocator@D@2@@std@@IAEX_NI@Z ENDP ; std::basic_string<char,std::char_traits<char>,std::allocator<char> >::_Tidy
_TEXT	ENDS
PUBLIC	?erase@?$basic_string@DU?$char_traits@D@std@@V?$allocator@D@2@@std@@QAEAAV12@II@Z ; std::basic_string<char,std::char_traits<char>,std::allocator<char> >::erase
EXTRN	?_Xran@_String_base@std@@QBEXXZ:NEAR		; std::_String_base::_Xran
; Function compile flags: /Ogty
;	COMDAT ?erase@?$basic_string@DU?$char_traits@D@std@@V?$allocator@D@2@@std@@QAEAAV12@II@Z
_TEXT	SEGMENT
__Off$ = 8						; size = 4
__Count$ = 12						; size = 4
?erase@?$basic_string@DU?$char_traits@D@std@@V?$allocator@D@2@@std@@QAEAAV12@II@Z PROC NEAR ; std::basic_string<char,std::char_traits<char>,std::allocator<char> >::erase, COMDAT
; _this$ = ecx

; 792  : 		{	// erase elements [_Off, _Off + _Count)

  00000	55		 push	 ebp

; 793  : 		if (_Mysize < _Off)

  00001	8b 6c 24 08	 mov	 ebp, DWORD PTR __Off$[esp]
  00005	56		 push	 esi
  00006	8b f1		 mov	 esi, ecx
  00008	39 6e 14	 cmp	 DWORD PTR [esi+20], ebp
  0000b	57		 push	 edi
  0000c	73 05		 jae	 SHORT $L221371

; 794  : 			_String_base::_Xran();	// _Off off end

  0000e	e8 00 00 00 00	 call	 ?_Xran@_String_base@std@@QBEXXZ ; std::_String_base::_Xran
$L221371:

; 795  : 		if (_Mysize - _Off < _Count)

  00013	8b 46 14	 mov	 eax, DWORD PTR [esi+20]
  00016	8b 7c 24 14	 mov	 edi, DWORD PTR __Count$[esp+8]
  0001a	2b c5		 sub	 eax, ebp
  0001c	3b c7		 cmp	 eax, edi
  0001e	73 02		 jae	 SHORT $L221372

; 796  : 			_Count = _Mysize - _Off;	// trim _Count

  00020	8b f8		 mov	 edi, eax
$L221372:

; 797  : 		if (0 < _Count)

  00022	85 ff		 test	 edi, edi
  00024	76 47		 jbe	 SHORT $L258592

; 798  : 			{	// move elements down
; 799  : 			_Traits::move(_Myptr() + _Off, _Myptr() + _Off + _Count,
; 800  : 				_Mysize - _Off - _Count);

  00026	8b 4e 18	 mov	 ecx, DWORD PTR [esi+24]
  00029	83 f9 10	 cmp	 ecx, 16			; 00000010H
  0002c	53		 push	 ebx
  0002d	8d 5e 04	 lea	 ebx, DWORD PTR [esi+4]
  00030	72 04		 jb	 SHORT $L258558
  00032	8b 13		 mov	 edx, DWORD PTR [ebx]
  00034	eb 02		 jmp	 SHORT $L258559
$L258558:
  00036	8b d3		 mov	 edx, ebx
$L258559:
  00038	83 f9 10	 cmp	 ecx, 16			; 00000010H
  0003b	72 04		 jb	 SHORT $L258565
  0003d	8b 0b		 mov	 ecx, DWORD PTR [ebx]
  0003f	eb 02		 jmp	 SHORT $L258566
$L258565:
  00041	8b cb		 mov	 ecx, ebx
$L258566:
  00043	2b c7		 sub	 eax, edi

; 803  : 			}
; 804  : 		return (*this);

  00045	03 d5		 add	 edx, ebp
  00047	50		 push	 eax
  00048	03 d7		 add	 edx, edi
  0004a	52		 push	 edx
  0004b	03 cd		 add	 ecx, ebp
  0004d	51		 push	 ecx
  0004e	e8 00 00 00 00	 call	 _memmove
  00053	8b 46 14	 mov	 eax, DWORD PTR [esi+20]
  00056	8b 4e 18	 mov	 ecx, DWORD PTR [esi+24]
  00059	2b c7		 sub	 eax, edi
  0005b	83 c4 0c	 add	 esp, 12			; 0000000cH
  0005e	83 f9 10	 cmp	 ecx, 16			; 00000010H
  00061	89 46 14	 mov	 DWORD PTR [esi+20], eax
  00064	72 02		 jb	 SHORT $L258589

; 801  : 			size_type _Newsize = _Mysize - _Count;
; 802  : 			_Eos(_Newsize);

  00066	8b 1b		 mov	 ebx, DWORD PTR [ebx]
$L258589:
  00068	c6 04 03 00	 mov	 BYTE PTR [ebx+eax], 0
  0006c	5b		 pop	 ebx
$L258592:
  0006d	5f		 pop	 edi

; 803  : 			}
; 804  : 		return (*this);

  0006e	8b c6		 mov	 eax, esi
  00070	5e		 pop	 esi
  00071	5d		 pop	 ebp

; 805  : 		}

  00072	c2 08 00	 ret	 8
?erase@?$basic_string@DU?$char_traits@D@std@@V?$allocator@D@2@@std@@QAEAAV12@II@Z ENDP ; std::basic_string<char,std::char_traits<char>,std::allocator<char> >::erase
_TEXT	ENDS
PUBLIC	?_Copy@?$basic_string@DU?$char_traits@D@std@@V?$allocator@D@2@@std@@IAEXII@Z ; std::basic_string<char,std::char_traits<char>,std::allocator<char> >::_Copy
EXTRN	__CxxThrowException@8:NEAR
EXTRN	__except_list:DWORD
EXTRN	___CxxFrameHandler:NEAR
;	COMDAT xdata$x
; File c:\program files\microsoft visual studio .net 2003\vc7\include\iosfwd
xdata$x	SEGMENT
$T258800 DD	0ffffffffH
	DD	00H
	DD	0ffffffffH
	DD	00H
	DD	01H
	DD	00H
	DD	01H
	DD	00H
$T258802 DD	00H
	DD	00H
	DD	00H
	DD	FLAT:$L258600
$T258803 DD	00H
	DD	00H
	DD	00H
	DD	FLAT:$L258598
$T258801 DD	02H
	DD	02H
	DD	03H
	DD	01H
	DD	FLAT:$T258802
	DD	00H
	DD	00H
	DD	03H
	DD	01H
	DD	FLAT:$T258803
$T258794 DD	019930520H
	DD	04H
	DD	FLAT:$T258800
	DD	02H
	DD	FLAT:$T258801
	DD	2 DUP(00H)
; Function compile flags: /Ogty
; File c:\program files\microsoft visual studio .net 2003\vc7\include\xstring
xdata$x	ENDS
;	COMDAT ?_Copy@?$basic_string@DU?$char_traits@D@std@@V?$allocator@D@2@@std@@IAEXII@Z
_TEXT	SEGMENT
__Newres$ = -24						; size = 4
_this$ = -20						; size = 4
__$EHRec$ = -16						; size = 16
__Ptr$ = 8						; size = 4
__Newsize$ = 8						; size = 4
__Oldlen$ = 12						; size = 4
?_Copy@?$basic_string@DU?$char_traits@D@std@@V?$allocator@D@2@@std@@IAEXII@Z PROC NEAR ; std::basic_string<char,std::char_traits<char>,std::allocator<char> >::_Copy, COMDAT
; _this$ = ecx

; 1444 : 		{	// copy _Oldlen elements to newly allocated buffer

  00000	55		 push	 ebp
  00001	8b ec		 mov	 ebp, esp
  00003	6a ff		 push	 -1
  00005	68 00 00 00 00	 push	 __ehhandler$?_Copy@?$basic_string@DU?$char_traits@D@std@@V?$allocator@D@2@@std@@IAEXII@Z
  0000a	64 a1 00 00 00
	00		 mov	 eax, DWORD PTR fs:__except_list
  00010	50		 push	 eax
  00011	64 89 25 00 00
	00 00		 mov	 DWORD PTR fs:__except_list, esp
  00018	83 ec 0c	 sub	 esp, 12			; 0000000cH

; 1445 : 		size_type _Newres = _Newsize | _ALLOC_MASK;

  0001b	8b 45 08	 mov	 eax, DWORD PTR __Newsize$[ebp]
  0001e	53		 push	 ebx
  0001f	56		 push	 esi
  00020	8b d8		 mov	 ebx, eax
  00022	83 cb 0f	 or	 ebx, 15			; 0000000fH

; 1446 : 		if (max_size() < _Newres)

  00025	83 fb fe	 cmp	 ebx, -2			; fffffffeH
  00028	57		 push	 edi
  00029	8b f1		 mov	 esi, ecx
  0002b	89 65 f0	 mov	 DWORD PTR __$EHRec$[ebp], esp
  0002e	89 75 ec	 mov	 DWORD PTR _this$[ebp], esi
  00031	76 04		 jbe	 SHORT $L222778

; 1447 : 			_Newres = _Newsize;	// undo roundup if too big

  00033	8b d8		 mov	 ebx, eax

; 1448 : 		else if (_Newres / 3 < _Myres / 2

  00035	eb 22		 jmp	 SHORT $L222780
$L222778:

; 1449 : 			&& _Myres <= max_size() - _Myres / 2)

  00037	8b 7e 18	 mov	 edi, DWORD PTR [esi+24]
  0003a	b8 ab aa aa aa	 mov	 eax, -1431655765	; aaaaaaabH
  0003f	f7 e3		 mul	 ebx
  00041	8b cf		 mov	 ecx, edi
  00043	d1 e9		 shr	 ecx, 1
  00045	d1 ea		 shr	 edx, 1
  00047	3b d1		 cmp	 edx, ecx
  00049	73 0e		 jae	 SHORT $L222780
  0004b	b8 fe ff ff ff	 mov	 eax, -2			; fffffffeH
  00050	2b c1		 sub	 eax, ecx
  00052	3b f8		 cmp	 edi, eax
  00054	77 03		 ja	 SHORT $L222780

; 1450 : 			_Newres = _Myres + _Myres / 2;	// grow exponentially if possible

  00056	8d 1c 39	 lea	 ebx, DWORD PTR [ecx+edi]
$L222780:

; 1451 : 		_Elem *_Ptr;
; 1452 : 
; 1453 : 		_TRY_BEGIN
; 1454 : 			_Ptr = _Mybase::_Alval.allocate(_Newres + 1);

  00059	8d 4b 01	 lea	 ecx, DWORD PTR [ebx+1]
  0005c	51		 push	 ecx
  0005d	c7 45 fc 00 00
	00 00		 mov	 DWORD PTR __$EHRec$[ebp+12], 0
  00064	e8 00 00 00 00	 call	 ??2@YAPAXI@Z		; operator new
  00069	8b d0		 mov	 edx, eax
  0006b	83 c4 04	 add	 esp, 4
  0006e	89 55 08	 mov	 DWORD PTR __Ptr$[ebp], edx
  00071	eb 29		 jmp	 SHORT $L222782
$L258598:

; 1455 : 		_CATCH_ALL
; 1456 : 			_Newres = _Newsize;	// allocation failed, undo roundup and retry

  00073	8b 45 08	 mov	 eax, DWORD PTR __Newsize$[ebp]
  00076	89 45 e8	 mov	 DWORD PTR __Newres$[ebp], eax

; 1457 : 			_TRY_BEGIN
; 1458 : 				_Ptr = _Mybase::_Alval.allocate(_Newres + 1);

  00079	40		 inc	 eax
  0007a	89 65 f0	 mov	 DWORD PTR __$EHRec$[ebp], esp
  0007d	50		 push	 eax
  0007e	c6 45 fc 02	 mov	 BYTE PTR __$EHRec$[ebp+12], 2
  00082	e8 00 00 00 00	 call	 ??2@YAPAXI@Z		; operator new
  00087	89 45 08	 mov	 DWORD PTR __Ptr$[ebp], eax
  0008a	83 c4 04	 add	 esp, 4

; 1462 : 			_CATCH_END
; 1463 : 		_CATCH_END

  0008d	b8 00 00 00 00	 mov	 eax, $L258795
  00092	c3		 ret	 0
$L258795:
  00093	8b 5d e8	 mov	 ebx, DWORD PTR __Newres$[ebp]
  00096	8b 75 ec	 mov	 esi, DWORD PTR _this$[ebp]
  00099	8b 55 08	 mov	 edx, DWORD PTR __Ptr$[ebp]
$L222782:

; 1464 : 
; 1465 : 		if (0 < _Oldlen)

  0009c	8b 4d 0c	 mov	 ecx, DWORD PTR __Oldlen$[ebp]
  0009f	85 c9		 test	 ecx, ecx
  000a1	76 24		 jbe	 SHORT $L258717

; 1466 : 			_Traits::copy(_Ptr, _Myptr(), _Oldlen);	// copy existing elements

  000a3	83 7e 18 10	 cmp	 DWORD PTR [esi+24], 16	; 00000010H
  000a7	72 05		 jb	 SHORT $L258714
  000a9	8b 76 04	 mov	 esi, DWORD PTR [esi+4]
  000ac	eb 03		 jmp	 SHORT $L258715
$L258714:
  000ae	83 c6 04	 add	 esi, 4
$L258715:
  000b1	8b c1		 mov	 eax, ecx
  000b3	c1 e9 02	 shr	 ecx, 2
  000b6	8b fa		 mov	 edi, edx
  000b8	f3 a5		 rep movsd
  000ba	8b c8		 mov	 ecx, eax
  000bc	83 e1 03	 and	 ecx, 3
  000bf	f3 a4		 rep movsb
  000c1	8b 75 ec	 mov	 esi, DWORD PTR _this$[ebp]
  000c4	8b 4d 0c	 mov	 ecx, DWORD PTR __Oldlen$[ebp]
$L258717:

; 1467 : 		_Tidy(true);

  000c7	83 7e 18 10	 cmp	 DWORD PTR [esi+24], 16	; 00000010H
  000cb	72 12		 jb	 SHORT $L258753
  000cd	8b 4e 04	 mov	 ecx, DWORD PTR [esi+4]
  000d0	51		 push	 ecx
  000d1	e8 00 00 00 00	 call	 ??3@YAXPAX@Z		; operator delete
  000d6	8b 55 08	 mov	 edx, DWORD PTR __Ptr$[ebp]
  000d9	8b 4d 0c	 mov	 ecx, DWORD PTR __Oldlen$[ebp]
  000dc	83 c4 04	 add	 esp, 4
$L258753:

; 1468 : 		_Bx._Ptr = _Ptr;
; 1469 : 		_Myres = _Newres;
; 1470 : 		_Eos(_Oldlen);

  000df	83 fb 10	 cmp	 ebx, 16			; 00000010H
  000e2	8d 46 04	 lea	 eax, DWORD PTR [esi+4]
  000e5	c6 00 00	 mov	 BYTE PTR [eax], 0
  000e8	89 10		 mov	 DWORD PTR [eax], edx
  000ea	89 5e 18	 mov	 DWORD PTR [esi+24], ebx
  000ed	89 4e 14	 mov	 DWORD PTR [esi+20], ecx
  000f0	72 02		 jb	 SHORT $L258788
  000f2	8b c2		 mov	 eax, edx
$L258788:

; 1471 : 		}

  000f4	5f		 pop	 edi
  000f5	c6 04 08 00	 mov	 BYTE PTR [eax+ecx], 0
  000f9	8b 4d f4	 mov	 ecx, DWORD PTR __$EHRec$[ebp+4]
  000fc	5e		 pop	 esi
  000fd	64 89 0d 00 00
	00 00		 mov	 DWORD PTR fs:__except_list, ecx
  00104	5b		 pop	 ebx
  00105	8b e5		 mov	 esp, ebp
  00107	5d		 pop	 ebp
  00108	c2 08 00	 ret	 8
$L258600:

; 1459 : 			_CATCH_ALL
; 1460 : 			_Tidy(true);	// failed again, discard storage and reraise

  0010b	8b 75 ec	 mov	 esi, DWORD PTR _this$[ebp]
  0010e	83 7e 18 10	 cmp	 DWORD PTR [esi+24], 16	; 00000010H
  00112	72 0c		 jb	 SHORT $L258692
  00114	8b 56 04	 mov	 edx, DWORD PTR [esi+4]
  00117	52		 push	 edx
  00118	e8 00 00 00 00	 call	 ??3@YAXPAX@Z		; operator delete
  0011d	83 c4 04	 add	 esp, 4
$L258692:

; 1461 : 			_RERAISE;

  00120	6a 00		 push	 0
  00122	c7 46 18 0f 00
	00 00		 mov	 DWORD PTR [esi+24], 15	; 0000000fH
  00129	c7 46 14 00 00
	00 00		 mov	 DWORD PTR [esi+20], 0
  00130	6a 00		 push	 0
  00132	c6 46 04 00	 mov	 BYTE PTR [esi+4], 0
  00136	e8 00 00 00 00	 call	 __CxxThrowException@8
$L258805:
$L258799:
  0013b	cc		 int	 3
_TEXT	ENDS
;	COMDAT text$x
text$x	SEGMENT
__ehhandler$?_Copy@?$basic_string@DU?$char_traits@D@std@@V?$allocator@D@2@@std@@IAEXII@Z:
  00000	b8 00 00 00 00	 mov	 eax, OFFSET FLAT:$T258794
  00005	e9 00 00 00 00	 jmp	 ___CxxFrameHandler
text$x	ENDS
?_Copy@?$basic_string@DU?$char_traits@D@std@@V?$allocator@D@2@@std@@IAEXII@Z ENDP ; std::basic_string<char,std::char_traits<char>,std::allocator<char> >::_Copy
PUBLIC	?ScanTargetAggro@CAIInterface@@IAEPAVCMover@@PAVCObj@@MKK@Z ; CAIInterface::ScanTargetAggro
; Function compile flags: /Ogty
; File c:\documents and settings\test\mes documents\source\virtuos_v17\build\program\_aiinterface\aiinterface.cpp
;	COMDAT ?ScanTargetAggro@CAIInterface@@IAEPAVCMover@@PAVCObj@@MKK@Z
_TEXT	SEGMENT
_pObjCenter$ = 8					; size = 4
_fRangeMeter$ = 12					; size = 4
_dwAIInterface$ = 16					; size = 4
_dwParty$ = 20						; size = 4
?ScanTargetAggro@CAIInterface@@IAEPAVCMover@@PAVCObj@@MKK@Z PROC NEAR ; CAIInterface::ScanTargetAggro, COMDAT
; _this$ = ecx

; 350  : 	switch( dwAIInterface )

  00000	8b 44 24 0c	 mov	 eax, DWORD PTR _dwAIInterface$[esp-4]
  00004	83 c0 f5	 add	 eax, -11		; fffffff5H
  00007	83 f8 03	 cmp	 eax, 3
  0000a	77 47		 ja	 SHORT $L252145
  0000c	ff 24 85 00 00
	00 00		 jmp	 DWORD PTR $L258810[eax*4]
$L252148:

; 351  : 	{
; 352  : 		case AII_AGGRO_NORMAL:
; 353  : 			return ScanTargetOverAggro( pObjCenter, fRangeMeter );

  00013	8b 44 24 08	 mov	 eax, DWORD PTR _fRangeMeter$[esp-4]
  00017	8b 54 24 04	 mov	 edx, DWORD PTR _pObjCenter$[esp-4]
  0001b	50		 push	 eax
  0001c	52		 push	 edx
  0001d	e8 00 00 00 00	 call	 ?ScanTargetOverAggro@CAIInterface@@IAEPAVCMover@@PAVCObj@@M@Z ; CAIInterface::ScanTargetOverAggro

; 366  : }

  00022	c2 10 00	 ret	 16			; 00000010H
$L252149:

; 354  : 			break;
; 355  : 		case AII_PARTY_AGGRO_LEADER:
; 356  : 			return ScanTargetOverLeader( pObjCenter, fRangeMeter, dwParty );

  00025	8b 44 24 10	 mov	 eax, DWORD PTR _dwParty$[esp-4]
  00029	8b 54 24 08	 mov	 edx, DWORD PTR _fRangeMeter$[esp-4]
  0002d	50		 push	 eax
  0002e	8b 44 24 08	 mov	 eax, DWORD PTR _pObjCenter$[esp]
  00032	52		 push	 edx
  00033	50		 push	 eax
  00034	e8 00 00 00 00	 call	 ?ScanTargetOverLeader@CAIInterface@@IAEPAVCMover@@PAVCObj@@MK@Z ; CAIInterface::ScanTargetOverLeader

; 366  : }

  00039	c2 10 00	 ret	 16			; 00000010H
$L252150:

; 357  : 			break;
; 358  : 		case AII_PARTY_AGGRO_SUB:
; 359  : 			return ScanTargetOverParty( pObjCenter, fRangeMeter, dwParty );

  0003c	8b 54 24 10	 mov	 edx, DWORD PTR _dwParty$[esp-4]
  00040	8b 44 24 08	 mov	 eax, DWORD PTR _fRangeMeter$[esp-4]
  00044	52		 push	 edx
  00045	8b 54 24 08	 mov	 edx, DWORD PTR _pObjCenter$[esp]
  00049	50		 push	 eax
  0004a	52		 push	 edx
  0004b	e8 00 00 00 00	 call	 ?ScanTargetOverParty@CAIInterface@@IAEPAVCMover@@PAVCObj@@MK@Z ; CAIInterface::ScanTargetOverParty

; 366  : }

  00050	c2 10 00	 ret	 16			; 00000010H
$L252145:

; 360  : 			break;
; 361  : 		case AII_ARENA_REAPER:
; 362  : 			return ScanTargetOverAggro( pObjCenter, fRangeMeter );
; 363  : 			break;
; 364  : 	}
; 365  : 	return NULL;

  00053	33 c0		 xor	 eax, eax

; 366  : }

  00055	c2 10 00	 ret	 16			; 00000010H
$L258810:
  00058	00 00 00 00	 DD	 $L252148
  0005c	00 00 00 00	 DD	 $L252149
  00060	00 00 00 00	 DD	 $L252150
  00064	00 00 00 00	 DD	 $L252148
?ScanTargetAggro@CAIInterface@@IAEPAVCMover@@PAVCObj@@MKK@Z ENDP ; CAIInterface::ScanTargetAggro
_TEXT	ENDS
PUBLIC	?pop@?$queue@UAIMSG@@V?$deque@UAIMSG@@V?$allocator@UAIMSG@@@std@@@std@@@std@@QAEXXZ ; std::queue<AIMSG,std::deque<AIMSG,std::allocator<AIMSG> > >::pop
; Function compile flags: /Ogty
; File c:\program files\microsoft visual studio .net 2003\vc7\include\queue
;	COMDAT ?pop@?$queue@UAIMSG@@V?$deque@UAIMSG@@V?$allocator@UAIMSG@@@std@@@std@@@std@@QAEXXZ
_TEXT	SEGMENT
?pop@?$queue@UAIMSG@@V?$deque@UAIMSG@@V?$allocator@UAIMSG@@@std@@@std@@@std@@QAEXXZ PROC NEAR ; std::queue<AIMSG,std::deque<AIMSG,std::allocator<AIMSG> > >::pop, COMDAT
; _this$ = ecx

; 71   : 		c.pop_front();

  00000	8b 41 10	 mov	 eax, DWORD PTR [ecx+16]
  00003	85 c0		 test	 eax, eax
  00005	74 24		 je	 SHORT $L258822
  00007	8b 51 0c	 mov	 edx, DWORD PTR [ecx+12]
  0000a	57		 push	 edi
  0000b	8b 79 08	 mov	 edi, DWORD PTR [ecx+8]
  0000e	42		 inc	 edx
  0000f	3b fa		 cmp	 edi, edx
  00011	89 51 0c	 mov	 DWORD PTR [ecx+12], edx
  00014	5f		 pop	 edi
  00015	77 07		 ja	 SHORT $L258821
  00017	c7 41 0c 00 00
	00 00		 mov	 DWORD PTR [ecx+12], 0
$L258821:
  0001e	48		 dec	 eax
  0001f	89 41 10	 mov	 DWORD PTR [ecx+16], eax
  00022	75 07		 jne	 SHORT $L258822
  00024	c7 41 0c 00 00
	00 00		 mov	 DWORD PTR [ecx+12], 0
$L258822:

; 72   : 		}

  0002b	c3		 ret	 0
?pop@?$queue@UAIMSG@@V?$deque@UAIMSG@@V?$allocator@UAIMSG@@@std@@@std@@@std@@QAEXXZ ENDP ; std::queue<AIMSG,std::deque<AIMSG,std::allocator<AIMSG> > >::pop
_TEXT	ENDS
PUBLIC	??0?$deque@UAIMSG@@V?$allocator@UAIMSG@@@std@@@std@@QAE@XZ ; std::deque<AIMSG,std::allocator<AIMSG> >::deque<AIMSG,std::allocator<AIMSG> >
; Function compile flags: /Ogty
; File c:\program files\microsoft visual studio .net 2003\vc7\include\deque
;	COMDAT ??0?$deque@UAIMSG@@V?$allocator@UAIMSG@@@std@@@std@@QAE@XZ
_TEXT	SEGMENT
??0?$deque@UAIMSG@@V?$allocator@UAIMSG@@@std@@@std@@QAE@XZ PROC NEAR ; std::deque<AIMSG,std::allocator<AIMSG> >::deque<AIMSG,std::allocator<AIMSG> >, COMDAT
; _this$ = ecx

; 327  : 		{	// construct empty deque

  00000	8b c1		 mov	 eax, ecx
  00002	33 c9		 xor	 ecx, ecx
  00004	89 48 04	 mov	 DWORD PTR [eax+4], ecx
  00007	89 48 08	 mov	 DWORD PTR [eax+8], ecx
  0000a	89 48 0c	 mov	 DWORD PTR [eax+12], ecx
  0000d	89 48 10	 mov	 DWORD PTR [eax+16], ecx

; 328  : 		}

  00010	c3		 ret	 0
??0?$deque@UAIMSG@@V?$allocator@UAIMSG@@@std@@@std@@QAE@XZ ENDP ; std::deque<AIMSG,std::allocator<AIMSG> >::deque<AIMSG,std::allocator<AIMSG> >
_TEXT	ENDS
PUBLIC	?front@?$deque@UAIMSG@@V?$allocator@UAIMSG@@@std@@@std@@QAEAAUAIMSG@@XZ ; std::deque<AIMSG,std::allocator<AIMSG> >::front
; Function compile flags: /Ogty
;	COMDAT ?front@?$deque@UAIMSG@@V?$allocator@UAIMSG@@@std@@@std@@QAEAAUAIMSG@@XZ
_TEXT	SEGMENT
?front@?$deque@UAIMSG@@V?$allocator@UAIMSG@@@std@@@std@@QAEAAUAIMSG@@XZ PROC NEAR ; std::deque<AIMSG,std::allocator<AIMSG> >::front, COMDAT
; _this$ = ecx

; 536  : 		return (*begin());

  00000	8b 41 0c	 mov	 eax, DWORD PTR [ecx+12]
  00003	8b 51 08	 mov	 edx, DWORD PTR [ecx+8]
  00006	3b d0		 cmp	 edx, eax
  00008	77 09		 ja	 SHORT $L258898
  0000a	8b 49 04	 mov	 ecx, DWORD PTR [ecx+4]
  0000d	2b c2		 sub	 eax, edx
  0000f	8b 04 81	 mov	 eax, DWORD PTR [ecx+eax*4]

; 537  : 		}

  00012	c3		 ret	 0
$L258898:

; 536  : 		return (*begin());

  00013	8b 51 04	 mov	 edx, DWORD PTR [ecx+4]
  00016	8b 04 82	 mov	 eax, DWORD PTR [edx+eax*4]

; 537  : 		}

  00019	c3		 ret	 0
?front@?$deque@UAIMSG@@V?$allocator@UAIMSG@@@std@@@std@@QAEAAUAIMSG@@XZ ENDP ; std::deque<AIMSG,std::allocator<AIMSG> >::front
_TEXT	ENDS
PUBLIC	?_Tidy@?$deque@UAIMSG@@V?$allocator@UAIMSG@@@std@@@std@@IAEXXZ ; std::deque<AIMSG,std::allocator<AIMSG> >::_Tidy
; Function compile flags: /Ogty
;	COMDAT ?_Tidy@?$deque@UAIMSG@@V?$allocator@UAIMSG@@@std@@@std@@IAEXXZ
_TEXT	SEGMENT
?_Tidy@?$deque@UAIMSG@@V?$allocator@UAIMSG@@@std@@@std@@IAEXXZ PROC NEAR ; std::deque<AIMSG,std::allocator<AIMSG> >::_Tidy, COMDAT
; _this$ = ecx

; 950  : 		{	// free all storage

  00000	53		 push	 ebx
  00001	56		 push	 esi
  00002	8b f1		 mov	 esi, ecx

; 951  : 		while (!empty())

  00004	8b 46 10	 mov	 eax, DWORD PTR [esi+16]
  00007	33 db		 xor	 ebx, ebx
  00009	3b c3		 cmp	 eax, ebx
  0000b	74 1a		 je	 SHORT $L253437
  0000d	8d 49 00	 npad	 3
$L253436:

; 952  : 			pop_back();

  00010	8b 46 10	 mov	 eax, DWORD PTR [esi+16]
  00013	3b c3		 cmp	 eax, ebx
  00015	74 0b		 je	 SHORT $L258917
  00017	48		 dec	 eax
  00018	3b c3		 cmp	 eax, ebx
  0001a	89 46 10	 mov	 DWORD PTR [esi+16], eax
  0001d	75 03		 jne	 SHORT $L258917
  0001f	89 5e 0c	 mov	 DWORD PTR [esi+12], ebx
$L258917:
  00022	39 5e 10	 cmp	 DWORD PTR [esi+16], ebx
  00025	75 e9		 jne	 SHORT $L253436
$L253437:
  00027	57		 push	 edi

; 953  : 		for (size_type _Count = _Mapsize; 0 < _Count; )

  00028	8b 7e 08	 mov	 edi, DWORD PTR [esi+8]
  0002b	3b fb		 cmp	 edi, ebx
  0002d	76 1a		 jbe	 SHORT $L253441
  0002f	90		 npad	 1
$L253440:

; 954  : 			{	// free storage for a block and destroy pointer
; 955  : 			if (*(_Map + --_Count) != 0)

  00030	8b 46 04	 mov	 eax, DWORD PTR [esi+4]
  00033	8b 44 b8 fc	 mov	 eax, DWORD PTR [eax+edi*4-4]
  00037	4f		 dec	 edi
  00038	3b c3		 cmp	 eax, ebx
  0003a	74 09		 je	 SHORT $L258920

; 956  : 				this->_Alval.deallocate(*(_Map + _Count), _DEQUESIZ);

  0003c	50		 push	 eax
  0003d	e8 00 00 00 00	 call	 ??3@YAXPAX@Z		; operator delete
  00042	83 c4 04	 add	 esp, 4
$L258920:

; 953  : 		for (size_type _Count = _Mapsize; 0 < _Count; )

  00045	3b fb		 cmp	 edi, ebx
  00047	77 e7		 ja	 SHORT $L253440
$L253441:

; 957  : 			this->_Almap.destroy(_Map + _Count);
; 958  : 			}
; 959  : 
; 960  : 		if (_Map)

  00049	8b 46 04	 mov	 eax, DWORD PTR [esi+4]
  0004c	3b c3		 cmp	 eax, ebx
  0004e	5f		 pop	 edi
  0004f	74 09		 je	 SHORT $L258930

; 961  : 			this->_Almap.deallocate(_Map, _Mapsize);	// free storage for map

  00051	50		 push	 eax
  00052	e8 00 00 00 00	 call	 ??3@YAXPAX@Z		; operator delete
  00057	83 c4 04	 add	 esp, 4
$L258930:

; 962  : 		_Mapsize = 0;

  0005a	89 5e 08	 mov	 DWORD PTR [esi+8], ebx

; 963  : 		_Map = 0;

  0005d	89 5e 04	 mov	 DWORD PTR [esi+4], ebx
  00060	5e		 pop	 esi
  00061	5b		 pop	 ebx

; 964  : 		}

  00062	c3		 ret	 0
?_Tidy@?$deque@UAIMSG@@V?$allocator@UAIMSG@@@std@@@std@@IAEXXZ ENDP ; std::deque<AIMSG,std::allocator<AIMSG> >::_Tidy
_TEXT	ENDS
PUBLIC	??1?$basic_string@DU?$char_traits@D@std@@V?$allocator@D@2@@std@@QAE@XZ ; std::basic_string<char,std::char_traits<char>,std::allocator<char> >::~basic_string<char,std::char_traits<char>,std::allocator<char> >
; Function compile flags: /Ogty
; File c:\program files\microsoft visual studio .net 2003\vc7\include\xstring
;	COMDAT ??1?$basic_string@DU?$char_traits@D@std@@V?$allocator@D@2@@std@@QAE@XZ
_TEXT	SEGMENT
??1?$basic_string@DU?$char_traits@D@std@@V?$allocator@D@2@@std@@QAE@XZ PROC NEAR ; std::basic_string<char,std::char_traits<char>,std::allocator<char> >::~basic_string<char,std::char_traits<char>,std::allocator<char> >, COMDAT
; _this$ = ecx

; 456  : 		{	// destroy the string

  00000	56		 push	 esi
  00001	8b f1		 mov	 esi, ecx

; 457  : 		_Tidy(true);

  00003	83 7e 18 10	 cmp	 DWORD PTR [esi+24], 16	; 00000010H
  00007	72 0c		 jb	 SHORT $L258967
  00009	8b 46 04	 mov	 eax, DWORD PTR [esi+4]
  0000c	50		 push	 eax
  0000d	e8 00 00 00 00	 call	 ??3@YAXPAX@Z		; operator delete
  00012	83 c4 04	 add	 esp, 4
$L258967:
  00015	33 c0		 xor	 eax, eax
  00017	c7 46 18 0f 00
	00 00		 mov	 DWORD PTR [esi+24], 15	; 0000000fH
  0001e	89 46 14	 mov	 DWORD PTR [esi+20], eax
  00021	88 46 04	 mov	 BYTE PTR [esi+4], al
  00024	5e		 pop	 esi

; 458  : 		}

  00025	c3		 ret	 0
??1?$basic_string@DU?$char_traits@D@std@@V?$allocator@D@2@@std@@QAE@XZ ENDP ; std::basic_string<char,std::char_traits<char>,std::allocator<char> >::~basic_string<char,std::char_traits<char>,std::allocator<char> >
_TEXT	ENDS
PUBLIC	?_Grow@?$basic_string@DU?$char_traits@D@std@@V?$allocator@D@2@@std@@IAE_NI_N@Z ; std::basic_string<char,std::char_traits<char>,std::allocator<char> >::_Grow
EXTRN	?_Xlen@_String_base@std@@QBEXXZ:NEAR		; std::_String_base::_Xlen
; Function compile flags: /Ogty
;	COMDAT ?_Grow@?$basic_string@DU?$char_traits@D@std@@V?$allocator@D@2@@std@@IAE_NI_N@Z
_TEXT	SEGMENT
__Newsize$ = 8						; size = 4
__Trim$ = 12						; size = 1
?_Grow@?$basic_string@DU?$char_traits@D@std@@V?$allocator@D@2@@std@@IAE_NI_N@Z PROC NEAR ; std::basic_string<char,std::char_traits<char>,std::allocator<char> >::_Grow, COMDAT
; _this$ = ecx

; 1480 : 		{	// ensure buffer is big enough, trim to size if _Trim is true

  00000	55		 push	 ebp
  00001	56		 push	 esi

; 1481 : 		if (max_size() < _Newsize)

  00002	8b 74 24 0c	 mov	 esi, DWORD PTR __Newsize$[esp+4]
  00006	83 fe fe	 cmp	 esi, -2			; fffffffeH
  00009	8b e9		 mov	 ebp, ecx
  0000b	76 05		 jbe	 SHORT $L221380

; 1482 : 			_String_base::_Xlen();	// result too long

  0000d	e8 00 00 00 00	 call	 ?_Xlen@_String_base@std@@QBEXXZ ; std::_String_base::_Xlen
$L221380:

; 1483 : 		if (_Myres < _Newsize)

  00012	8b 45 18	 mov	 eax, DWORD PTR [ebp+24]
  00015	3b c6		 cmp	 eax, esi
  00017	73 19		 jae	 SHORT $L221381

; 1484 : 			_Copy(_Newsize, _Mysize);	// reallocate to grow

  00019	8b 45 14	 mov	 eax, DWORD PTR [ebp+20]
  0001c	50		 push	 eax
  0001d	56		 push	 esi
  0001e	8b cd		 mov	 ecx, ebp
  00020	e8 00 00 00 00	 call	 ?_Copy@?$basic_string@DU?$char_traits@D@std@@V?$allocator@D@2@@std@@IAEXII@Z ; std::basic_string<char,std::char_traits<char>,std::allocator<char> >::_Copy

; 1490 : 		return (0 < _Newsize);	// return true only if more work to do

  00025	33 c0		 xor	 eax, eax
  00027	3b c6		 cmp	 eax, esi
  00029	1b c0		 sbb	 eax, eax
  0002b	5e		 pop	 esi
  0002c	f7 d8		 neg	 eax
  0002e	5d		 pop	 ebp

; 1491 : 		}

  0002f	c2 08 00	 ret	 8
$L221381:

; 1485 : 		else if (_Trim && _Newsize < _BUF_SIZE)

  00032	8a 4c 24 10	 mov	 cl, BYTE PTR __Trim$[esp+4]
  00036	84 c9		 test	 cl, cl
  00038	74 5c		 je	 SHORT $L221383
  0003a	83 fe 10	 cmp	 esi, 16			; 00000010H
  0003d	73 57		 jae	 SHORT $L221383
  0003f	53		 push	 ebx

; 1486 : 			_Tidy(true,	// copy and deallocate if trimming to small string
; 1487 : 				_Newsize < _Mysize ? _Newsize : _Mysize);

  00040	8b 5d 14	 mov	 ebx, DWORD PTR [ebp+20]
  00043	3b f3		 cmp	 esi, ebx
  00045	73 02		 jae	 SHORT $L258988
  00047	8b de		 mov	 ebx, esi
$L258988:
  00049	83 f8 10	 cmp	 eax, 16			; 00000010H
  0004c	72 2b		 jb	 SHORT $L259042
  0004e	85 db		 test	 ebx, ebx
  00050	8b 45 04	 mov	 eax, DWORD PTR [ebp+4]
  00053	57		 push	 edi
  00054	8d 7d 04	 lea	 edi, DWORD PTR [ebp+4]
  00057	76 16		 jbe	 SHORT $L259040
  00059	8b cb		 mov	 ecx, ebx
  0005b	8b d1		 mov	 edx, ecx
  0005d	c1 e9 02	 shr	 ecx, 2
  00060	8b f0		 mov	 esi, eax
  00062	f3 a5		 rep movsd
  00064	8b ca		 mov	 ecx, edx
  00066	83 e1 03	 and	 ecx, 3
  00069	f3 a4		 rep movsb
  0006b	8b 74 24 14	 mov	 esi, DWORD PTR __Newsize$[esp+12]
$L259040:
  0006f	50		 push	 eax
  00070	e8 00 00 00 00	 call	 ??3@YAXPAX@Z		; operator delete
  00075	83 c4 04	 add	 esp, 4
  00078	5f		 pop	 edi
$L259042:
  00079	89 5d 14	 mov	 DWORD PTR [ebp+20], ebx

; 1490 : 		return (0 < _Newsize);	// return true only if more work to do

  0007c	33 c0		 xor	 eax, eax
  0007e	c7 45 18 0f 00
	00 00		 mov	 DWORD PTR [ebp+24], 15	; 0000000fH
  00085	c6 44 2b 04 00	 mov	 BYTE PTR [ebx+ebp+4], 0
  0008a	3b c6		 cmp	 eax, esi
  0008c	5b		 pop	 ebx
  0008d	1b c0		 sbb	 eax, eax
  0008f	5e		 pop	 esi
  00090	f7 d8		 neg	 eax
  00092	5d		 pop	 ebp

; 1491 : 		}

  00093	c2 08 00	 ret	 8
$L221383:

; 1488 : 		else if (_Newsize == 0)

  00096	85 f6		 test	 esi, esi
  00098	75 23		 jne	 SHORT $L259079

; 1489 : 			_Eos(0);	// new size is zero, just null terminate

  0009a	83 f8 10	 cmp	 eax, 16			; 00000010H
  0009d	89 75 14	 mov	 DWORD PTR [ebp+20], esi
  000a0	72 14		 jb	 SHORT $L259077
  000a2	8b 6d 04	 mov	 ebp, DWORD PTR [ebp+4]

; 1490 : 		return (0 < _Newsize);	// return true only if more work to do

  000a5	33 c0		 xor	 eax, eax
  000a7	3b c6		 cmp	 eax, esi
  000a9	1b c0		 sbb	 eax, eax
  000ab	5e		 pop	 esi
  000ac	c6 45 00 00	 mov	 BYTE PTR [ebp], 0
  000b0	f7 d8		 neg	 eax
  000b2	5d		 pop	 ebp

; 1491 : 		}

  000b3	c2 08 00	 ret	 8

; 1489 : 			_Eos(0);	// new size is zero, just null terminate

$L259077:
  000b6	83 c5 04	 add	 ebp, 4
  000b9	c6 45 00 00	 mov	 BYTE PTR [ebp], 0
$L259079:

; 1490 : 		return (0 < _Newsize);	// return true only if more work to do

  000bd	33 c0		 xor	 eax, eax
  000bf	3b c6		 cmp	 eax, esi
  000c1	1b c0		 sbb	 eax, eax
  000c3	5e		 pop	 esi
  000c4	f7 d8		 neg	 eax
  000c6	5d		 pop	 ebp

; 1491 : 		}

  000c7	c2 08 00	 ret	 8
?_Grow@?$basic_string@DU?$char_traits@D@std@@V?$allocator@D@2@@std@@IAE_NI_N@Z ENDP ; std::basic_string<char,std::char_traits<char>,std::allocator<char> >::_Grow
_TEXT	ENDS
PUBLIC	?front@?$queue@UAIMSG@@V?$deque@UAIMSG@@V?$allocator@UAIMSG@@@std@@@std@@@std@@QAEAAUAIMSG@@XZ ; std::queue<AIMSG,std::deque<AIMSG,std::allocator<AIMSG> > >::front
; Function compile flags: /Ogty
; File c:\program files\microsoft visual studio .net 2003\vc7\include\queue
;	COMDAT ?front@?$queue@UAIMSG@@V?$deque@UAIMSG@@V?$allocator@UAIMSG@@@std@@@std@@@std@@QAEAAUAIMSG@@XZ
_TEXT	SEGMENT
?front@?$queue@UAIMSG@@V?$deque@UAIMSG@@V?$allocator@UAIMSG@@@std@@@std@@@std@@QAEAAUAIMSG@@XZ PROC NEAR ; std::queue<AIMSG,std::deque<AIMSG,std::allocator<AIMSG> > >::front, COMDAT
; _this$ = ecx

; 46   : 		return (c.front());

  00000	8b 41 0c	 mov	 eax, DWORD PTR [ecx+12]
  00003	8b 51 08	 mov	 edx, DWORD PTR [ecx+8]
  00006	3b d0		 cmp	 edx, eax
  00008	77 09		 ja	 SHORT $L259133
  0000a	8b 49 04	 mov	 ecx, DWORD PTR [ecx+4]
  0000d	2b c2		 sub	 eax, edx
  0000f	8b 04 81	 mov	 eax, DWORD PTR [ecx+eax*4]

; 47   : 		}

  00012	c3		 ret	 0
$L259133:

; 46   : 		return (c.front());

  00013	8b 51 04	 mov	 edx, DWORD PTR [ecx+4]
  00016	8b 04 82	 mov	 eax, DWORD PTR [edx+eax*4]

; 47   : 		}

  00019	c3		 ret	 0
?front@?$queue@UAIMSG@@V?$deque@UAIMSG@@V?$allocator@UAIMSG@@@std@@@std@@@std@@QAEAAUAIMSG@@XZ ENDP ; std::queue<AIMSG,std::deque<AIMSG,std::allocator<AIMSG> > >::front
_TEXT	ENDS
PUBLIC	??1?$deque@UAIMSG@@V?$allocator@UAIMSG@@@std@@@std@@QAE@XZ ; std::deque<AIMSG,std::allocator<AIMSG> >::~deque<AIMSG,std::allocator<AIMSG> >
; Function compile flags: /Ogty
; File c:\program files\microsoft visual studio .net 2003\vc7\include\deque
;	COMDAT ??1?$deque@UAIMSG@@V?$allocator@UAIMSG@@@std@@@std@@QAE@XZ
_TEXT	SEGMENT
??1?$deque@UAIMSG@@V?$allocator@UAIMSG@@@std@@@std@@QAE@XZ PROC NEAR ; std::deque<AIMSG,std::allocator<AIMSG> >::~deque<AIMSG,std::allocator<AIMSG> >, COMDAT
; _this$ = ecx

; 414  : 		_Tidy();

  00000	e9 00 00 00 00	 jmp	 ?_Tidy@?$deque@UAIMSG@@V?$allocator@UAIMSG@@@std@@@std@@IAEXXZ ; std::deque<AIMSG,std::allocator<AIMSG> >::_Tidy
??1?$deque@UAIMSG@@V?$allocator@UAIMSG@@@std@@@std@@QAE@XZ ENDP ; std::deque<AIMSG,std::allocator<AIMSG> >::~deque<AIMSG,std::allocator<AIMSG> >
_TEXT	ENDS
PUBLIC	??1logic_error@std@@UAE@XZ			; std::logic_error::~logic_error
PUBLIC	?what@logic_error@std@@UBEPBDXZ			; std::logic_error::what
PUBLIC	??_7logic_error@std@@6B@			; std::logic_error::`vftable'
PUBLIC	??_Glogic_error@std@@UAEPAXI@Z			; std::logic_error::`scalar deleting destructor'
EXTRN	??1exception@@UAE@XZ:NEAR			; exception::~exception
EXTRN	??_Elogic_error@std@@UAEPAXI@Z:NEAR		; std::logic_error::`vector deleting destructor'
;	COMDAT ??_7logic_error@std@@6B@
; File c:\program files\microsoft visual studio .net 2003\vc7\include\iosfwd
CONST	SEGMENT
??_7logic_error@std@@6B@ DD FLAT:??_Elogic_error@std@@UAEPAXI@Z ; std::logic_error::`vftable'
	DD	FLAT:?what@logic_error@std@@UBEPBDXZ
; Function compile flags: /Ogty
; File c:\program files\microsoft visual studio .net 2003\vc7\include\stdexcept
CONST	ENDS
;	COMDAT ??1logic_error@std@@UAE@XZ
_TEXT	SEGMENT
??1logic_error@std@@UAE@XZ PROC NEAR			; std::logic_error::~logic_error, COMDAT
; _this$ = ecx

; 23   : 		{}	// destroy the object

  00000	56		 push	 esi
  00001	8b f1		 mov	 esi, ecx
  00003	c7 06 00 00 00
	00		 mov	 DWORD PTR [esi], OFFSET FLAT:??_7logic_error@std@@6B@
  00009	83 7e 24 10	 cmp	 DWORD PTR [esi+36], 16	; 00000010H
  0000d	72 0c		 jb	 SHORT $L259198
  0000f	8b 46 10	 mov	 eax, DWORD PTR [esi+16]
  00012	50		 push	 eax
  00013	e8 00 00 00 00	 call	 ??3@YAXPAX@Z		; operator delete
  00018	83 c4 04	 add	 esp, 4
$L259198:
  0001b	33 c0		 xor	 eax, eax
  0001d	c7 46 24 0f 00
	00 00		 mov	 DWORD PTR [esi+36], 15	; 0000000fH
  00024	89 46 20	 mov	 DWORD PTR [esi+32], eax
  00027	88 46 10	 mov	 BYTE PTR [esi+16], al
  0002a	8b ce		 mov	 ecx, esi
  0002c	5e		 pop	 esi
  0002d	e9 00 00 00 00	 jmp	 ??1exception@@UAE@XZ	; exception::~exception
??1logic_error@std@@UAE@XZ ENDP				; std::logic_error::~logic_error
; Function compile flags: /Ogty
_TEXT	ENDS
;	COMDAT ?what@logic_error@std@@UBEPBDXZ
_TEXT	SEGMENT
?what@logic_error@std@@UBEPBDXZ PROC NEAR		; std::logic_error::what, COMDAT
; _this$ = ecx

; 27   : 		return (_Str.c_str());

  00000	83 79 24 10	 cmp	 DWORD PTR [ecx+36], 16	; 00000010H
  00004	72 04		 jb	 SHORT $L259230
  00006	8b 41 10	 mov	 eax, DWORD PTR [ecx+16]

; 28   : 		}

  00009	c3		 ret	 0

; 27   : 		return (_Str.c_str());

$L259230:
  0000a	8d 41 10	 lea	 eax, DWORD PTR [ecx+16]

; 28   : 		}

  0000d	c3		 ret	 0
?what@logic_error@std@@UBEPBDXZ ENDP			; std::logic_error::what
; Function compile flags: /Ogty
_TEXT	ENDS
;	COMDAT ??_Glogic_error@std@@UAEPAXI@Z
_TEXT	SEGMENT
___flags$ = 8						; size = 4
??_Glogic_error@std@@UAEPAXI@Z PROC NEAR		; std::logic_error::`scalar deleting destructor', COMDAT
; _this$ = ecx
  00000	56		 push	 esi
  00001	8b f1		 mov	 esi, ecx
  00003	e8 00 00 00 00	 call	 ??1logic_error@std@@UAE@XZ ; std::logic_error::~logic_error
  00008	f6 44 24 08 01	 test	 BYTE PTR ___flags$[esp], 1
  0000d	74 09		 je	 SHORT $L259238
  0000f	56		 push	 esi
  00010	e8 00 00 00 00	 call	 ??3@YAXPAX@Z		; operator delete
  00015	83 c4 04	 add	 esp, 4
$L259238:
  00018	8b c6		 mov	 eax, esi
  0001a	5e		 pop	 esi
  0001b	c2 04 00	 ret	 4
??_Glogic_error@std@@UAEPAXI@Z ENDP			; std::logic_error::`scalar deleting destructor'
_TEXT	ENDS
PUBLIC	?assign@?$basic_string@DU?$char_traits@D@std@@V?$allocator@D@2@@std@@QAEAAV12@ABV12@II@Z ; std::basic_string<char,std::char_traits<char>,std::allocator<char> >::assign
; Function compile flags: /Ogty
; File c:\program files\microsoft visual studio .net 2003\vc7\include\xstring
;	COMDAT ?assign@?$basic_string@DU?$char_traits@D@std@@V?$allocator@D@2@@std@@QAEAAV12@ABV12@II@Z
_TEXT	SEGMENT
__Right$ = 8						; size = 4
__Roff$ = 12						; size = 4
__Count$ = 16						; size = 4
?assign@?$basic_string@DU?$char_traits@D@std@@V?$allocator@D@2@@std@@QAEAAV12@ABV12@II@Z PROC NEAR ; std::basic_string<char,std::char_traits<char>,std::allocator<char> >::assign, COMDAT
; _this$ = ecx

; 590  : 		{	// assign _Right [_Roff, _Roff + _Count)

  00000	53		 push	 ebx
  00001	55		 push	 ebp
  00002	56		 push	 esi

; 591  : 		if (_Right.size() < _Roff)

  00003	8b 74 24 14	 mov	 esi, DWORD PTR __Roff$[esp+8]
  00007	57		 push	 edi
  00008	8b 7c 24 14	 mov	 edi, DWORD PTR __Right$[esp+12]
  0000c	39 77 14	 cmp	 DWORD PTR [edi+20], esi
  0000f	8b d9		 mov	 ebx, ecx
  00011	73 05		 jae	 SHORT $L220001

; 592  : 			_String_base::_Xran();	// _Roff off end

  00013	e8 00 00 00 00	 call	 ?_Xran@_String_base@std@@QBEXXZ ; std::_String_base::_Xran
$L220001:

; 593  : 		size_type _Num = _Right.size() - _Roff;

  00018	8b 6f 14	 mov	 ebp, DWORD PTR [edi+20]

; 594  : 		if (_Count < _Num)

  0001b	8b 44 24 1c	 mov	 eax, DWORD PTR __Count$[esp+12]
  0001f	2b ee		 sub	 ebp, esi
  00021	3b c5		 cmp	 eax, ebp
  00023	73 02		 jae	 SHORT $L220003

; 595  : 			_Num = _Count;	// trim _Num to size

  00025	8b e8		 mov	 ebp, eax
$L220003:

; 596  : 
; 597  : 		if (this == &_Right)

  00027	3b df		 cmp	 ebx, edi
  00029	75 1f		 jne	 SHORT $L220004

; 598  : 			erase((size_type)(_Roff + _Num)), erase(0, _Roff);	// substring

  0002b	6a ff		 push	 -1
  0002d	03 ee		 add	 ebp, esi
  0002f	55		 push	 ebp
  00030	8b cb		 mov	 ecx, ebx
  00032	e8 00 00 00 00	 call	 ?erase@?$basic_string@DU?$char_traits@D@std@@V?$allocator@D@2@@std@@QAEAAV12@II@Z ; std::basic_string<char,std::char_traits<char>,std::allocator<char> >::erase
  00037	56		 push	 esi
  00038	6a 00		 push	 0
  0003a	8b cb		 mov	 ecx, ebx
  0003c	e8 00 00 00 00	 call	 ?erase@?$basic_string@DU?$char_traits@D@std@@V?$allocator@D@2@@std@@QAEAAV12@II@Z ; std::basic_string<char,std::char_traits<char>,std::allocator<char> >::erase
  00041	5f		 pop	 edi
  00042	5e		 pop	 esi
  00043	5d		 pop	 ebp

; 603  : 			}
; 604  : 		return (*this);

  00044	8b c3		 mov	 eax, ebx
  00046	5b		 pop	 ebx

; 605  : 		}

  00047	c2 0c 00	 ret	 12			; 0000000cH
$L220004:

; 599  : 		else if (_Grow(_Num))

  0004a	83 fd fe	 cmp	 ebp, -2			; fffffffeH
  0004d	76 07		 jbe	 SHORT $L259355
  0004f	8b cb		 mov	 ecx, ebx
  00051	e8 00 00 00 00	 call	 ?_Xlen@_String_base@std@@QBEXXZ ; std::_String_base::_Xlen
$L259355:
  00056	8b 43 18	 mov	 eax, DWORD PTR [ebx+24]
  00059	3b c5		 cmp	 eax, ebp
  0005b	73 21		 jae	 SHORT $L259357
  0005d	8b 43 14	 mov	 eax, DWORD PTR [ebx+20]
  00060	50		 push	 eax
  00061	55		 push	 ebp
  00062	8b cb		 mov	 ecx, ebx
  00064	e8 00 00 00 00	 call	 ?_Copy@?$basic_string@DU?$char_traits@D@std@@V?$allocator@D@2@@std@@IAEXII@Z ; std::basic_string<char,std::char_traits<char>,std::allocator<char> >::_Copy
  00069	85 ed		 test	 ebp, ebp
$L259435:
  0006b	76 6d		 jbe	 SHORT $L259434

; 600  : 			{	// make room and assign new stuff
; 601  : 			_Traits::copy(_Myptr(), _Right._Myptr() + _Roff, _Num);

  0006d	8b 4f 18	 mov	 ecx, DWORD PTR [edi+24]
  00070	b8 10 00 00 00	 mov	 eax, 16			; 00000010H
  00075	3b c8		 cmp	 ecx, eax
  00077	72 2f		 jb	 SHORT $L259399
  00079	8b 57 04	 mov	 edx, DWORD PTR [edi+4]
  0007c	eb 2d		 jmp	 SHORT $L259400

; 599  : 		else if (_Grow(_Num))

$L259357:
  0007e	85 ed		 test	 ebp, ebp
  00080	75 e9		 jne	 SHORT $L259435
  00082	83 f8 10	 cmp	 eax, 16			; 00000010H
  00085	89 6b 14	 mov	 DWORD PTR [ebx+20], ebp
  00088	72 0f		 jb	 SHORT $L259391
  0008a	8b 43 04	 mov	 eax, DWORD PTR [ebx+4]
  0008d	5f		 pop	 edi
  0008e	5e		 pop	 esi
  0008f	c6 00 00	 mov	 BYTE PTR [eax], 0
  00092	5d		 pop	 ebp

; 603  : 			}
; 604  : 		return (*this);

  00093	8b c3		 mov	 eax, ebx
  00095	5b		 pop	 ebx

; 605  : 		}

  00096	c2 0c 00	 ret	 12			; 0000000cH

; 599  : 		else if (_Grow(_Num))

$L259391:
  00099	5f		 pop	 edi
  0009a	8d 43 04	 lea	 eax, DWORD PTR [ebx+4]
  0009d	5e		 pop	 esi
  0009e	c6 00 00	 mov	 BYTE PTR [eax], 0
  000a1	5d		 pop	 ebp

; 603  : 			}
; 604  : 		return (*this);

  000a2	8b c3		 mov	 eax, ebx
  000a4	5b		 pop	 ebx

; 605  : 		}

  000a5	c2 0c 00	 ret	 12			; 0000000cH

; 600  : 			{	// make room and assign new stuff
; 601  : 			_Traits::copy(_Myptr(), _Right._Myptr() + _Roff, _Num);

$L259399:
  000a8	8d 57 04	 lea	 edx, DWORD PTR [edi+4]
$L259400:
  000ab	39 43 18	 cmp	 DWORD PTR [ebx+24], eax
  000ae	8d 43 04	 lea	 eax, DWORD PTR [ebx+4]
  000b1	72 04		 jb	 SHORT $L259407
  000b3	8b 38		 mov	 edi, DWORD PTR [eax]
  000b5	eb 02		 jmp	 SHORT $L259408
$L259407:
  000b7	8b f8		 mov	 edi, eax
$L259408:
  000b9	03 f2		 add	 esi, edx
  000bb	8b cd		 mov	 ecx, ebp
  000bd	8b d1		 mov	 edx, ecx
  000bf	c1 e9 02	 shr	 ecx, 2
  000c2	f3 a5		 rep movsd
  000c4	8b ca		 mov	 ecx, edx
  000c6	83 e1 03	 and	 ecx, 3
  000c9	f3 a4		 rep movsb

; 602  : 			_Eos(_Num);

  000cb	83 7b 18 10	 cmp	 DWORD PTR [ebx+24], 16	; 00000010H
  000cf	89 6b 14	 mov	 DWORD PTR [ebx+20], ebp
  000d2	72 02		 jb	 SHORT $L259431
  000d4	8b 00		 mov	 eax, DWORD PTR [eax]
$L259431:
  000d6	c6 04 28 00	 mov	 BYTE PTR [eax+ebp], 0
$L259434:
  000da	5f		 pop	 edi
  000db	5e		 pop	 esi
  000dc	5d		 pop	 ebp

; 603  : 			}
; 604  : 		return (*this);

  000dd	8b c3		 mov	 eax, ebx
  000df	5b		 pop	 ebx

; 605  : 		}

  000e0	c2 0c 00	 ret	 12			; 0000000cH
?assign@?$basic_string@DU?$char_traits@D@std@@V?$allocator@D@2@@std@@QAEAAV12@ABV12@II@Z ENDP ; std::basic_string<char,std::char_traits<char>,std::allocator<char> >::assign
_TEXT	ENDS
PUBLIC	?assign@?$basic_string@DU?$char_traits@D@std@@V?$allocator@D@2@@std@@QAEAAV12@PBDI@Z ; std::basic_string<char,std::char_traits<char>,std::allocator<char> >::assign
; Function compile flags: /Ogty
;	COMDAT ?assign@?$basic_string@DU?$char_traits@D@std@@V?$allocator@D@2@@std@@QAEAAV12@PBDI@Z
_TEXT	SEGMENT
__Ptr$ = 8						; size = 4
__Num$ = 12						; size = 4
?assign@?$basic_string@DU?$char_traits@D@std@@V?$allocator@D@2@@std@@QAEAAV12@PBDI@Z PROC NEAR ; std::basic_string<char,std::char_traits<char>,std::allocator<char> >::assign, COMDAT
; _this$ = ecx

; 608  : 		{	// assign [_Ptr, _Ptr + _Num)

  00000	53		 push	 ebx
  00001	8b d9		 mov	 ebx, ecx

; 609  : 		if (_Inside(_Ptr))

  00003	8b 53 18	 mov	 edx, DWORD PTR [ebx+24]
  00006	83 fa 10	 cmp	 edx, 16			; 00000010H
  00009	56		 push	 esi
  0000a	57		 push	 edi
  0000b	72 05		 jb	 SHORT $L259457
  0000d	8b 43 04	 mov	 eax, DWORD PTR [ebx+4]
  00010	eb 03		 jmp	 SHORT $L259458
$L259457:
  00012	8d 43 04	 lea	 eax, DWORD PTR [ebx+4]
$L259458:
  00015	8b 74 24 10	 mov	 esi, DWORD PTR __Ptr$[esp+8]
  00019	3b f0		 cmp	 esi, eax
  0001b	72 34		 jb	 SHORT $L221367
  0001d	83 fa 10	 cmp	 edx, 16			; 00000010H
  00020	8d 43 04	 lea	 eax, DWORD PTR [ebx+4]
  00023	72 04		 jb	 SHORT $L259461
  00025	8b 08		 mov	 ecx, DWORD PTR [eax]
  00027	eb 02		 jmp	 SHORT $L259462
$L259461:
  00029	8b c8		 mov	 ecx, eax
$L259462:
  0002b	8b 7b 14	 mov	 edi, DWORD PTR [ebx+20]
  0002e	03 f9		 add	 edi, ecx
  00030	3b fe		 cmp	 edi, esi
  00032	76 1d		 jbe	 SHORT $L221367

; 610  : 			return (assign(*this, _Ptr - _Myptr(), _Num));	// substring

  00034	83 fa 10	 cmp	 edx, 16			; 00000010H
  00037	72 02		 jb	 SHORT $L259474
  00039	8b 00		 mov	 eax, DWORD PTR [eax]
$L259474:
  0003b	8b 4c 24 14	 mov	 ecx, DWORD PTR __Num$[esp+8]
  0003f	51		 push	 ecx
  00040	2b f0		 sub	 esi, eax
  00042	56		 push	 esi
  00043	53		 push	 ebx
  00044	8b cb		 mov	 ecx, ebx
  00046	e8 00 00 00 00	 call	 ?assign@?$basic_string@DU?$char_traits@D@std@@V?$allocator@D@2@@std@@QAEAAV12@ABV12@II@Z ; std::basic_string<char,std::char_traits<char>,std::allocator<char> >::assign
  0004b	5f		 pop	 edi
  0004c	5e		 pop	 esi
  0004d	5b		 pop	 ebx

; 618  : 		}

  0004e	c2 08 00	 ret	 8
$L221367:
  00051	55		 push	 ebp

; 611  : 
; 612  : 		if (_Grow(_Num))

  00052	8b 6c 24 18	 mov	 ebp, DWORD PTR __Num$[esp+12]
  00056	83 fd fe	 cmp	 ebp, -2			; fffffffeH
  00059	76 07		 jbe	 SHORT $L259572
  0005b	8b cb		 mov	 ecx, ebx
  0005d	e8 00 00 00 00	 call	 ?_Xlen@_String_base@std@@QBEXXZ ; std::_String_base::_Xlen
$L259572:
  00062	8b 43 18	 mov	 eax, DWORD PTR [ebx+24]
  00065	3b c5		 cmp	 eax, ebp
  00067	73 1b		 jae	 SHORT $L259573
  00069	8b 53 14	 mov	 edx, DWORD PTR [ebx+20]
  0006c	52		 push	 edx
  0006d	55		 push	 ebp
  0006e	8b cb		 mov	 ecx, ebx
  00070	e8 00 00 00 00	 call	 ?_Copy@?$basic_string@DU?$char_traits@D@std@@V?$allocator@D@2@@std@@IAEXII@Z ; std::basic_string<char,std::char_traits<char>,std::allocator<char> >::_Copy
  00075	85 ed		 test	 ebp, ebp
$L259653:
  00077	76 68		 jbe	 SHORT $L259650

; 613  : 			{	// make room and assign new stuff
; 614  : 			_Traits::copy(_Myptr(), _Ptr, _Num);

  00079	83 7b 18 10	 cmp	 DWORD PTR [ebx+24], 16	; 00000010H
  0007d	72 2f		 jb	 SHORT $L259625
  0007f	8b 7b 04	 mov	 edi, DWORD PTR [ebx+4]
  00082	eb 2d		 jmp	 SHORT $L259626

; 611  : 
; 612  : 		if (_Grow(_Num))

$L259573:
  00084	85 ed		 test	 ebp, ebp
  00086	75 ef		 jne	 SHORT $L259653
  00088	83 f8 10	 cmp	 eax, 16			; 00000010H
  0008b	89 6b 14	 mov	 DWORD PTR [ebx+20], ebp
  0008e	72 0f		 jb	 SHORT $L259616
  00090	8b 43 04	 mov	 eax, DWORD PTR [ebx+4]
  00093	5d		 pop	 ebp
  00094	5f		 pop	 edi
  00095	c6 00 00	 mov	 BYTE PTR [eax], 0
  00098	5e		 pop	 esi

; 616  : 			}
; 617  : 		return (*this);

  00099	8b c3		 mov	 eax, ebx
  0009b	5b		 pop	 ebx

; 618  : 		}

  0009c	c2 08 00	 ret	 8

; 611  : 
; 612  : 		if (_Grow(_Num))

$L259616:
  0009f	5d		 pop	 ebp
  000a0	8d 43 04	 lea	 eax, DWORD PTR [ebx+4]
  000a3	5f		 pop	 edi
  000a4	c6 00 00	 mov	 BYTE PTR [eax], 0
  000a7	5e		 pop	 esi

; 616  : 			}
; 617  : 		return (*this);

  000a8	8b c3		 mov	 eax, ebx
  000aa	5b		 pop	 ebx

; 618  : 		}

  000ab	c2 08 00	 ret	 8

; 613  : 			{	// make room and assign new stuff
; 614  : 			_Traits::copy(_Myptr(), _Ptr, _Num);

$L259625:
  000ae	8d 7b 04	 lea	 edi, DWORD PTR [ebx+4]
$L259626:
  000b1	8b cd		 mov	 ecx, ebp
  000b3	8b c1		 mov	 eax, ecx
  000b5	c1 e9 02	 shr	 ecx, 2
  000b8	f3 a5		 rep movsd
  000ba	8b c8		 mov	 ecx, eax
  000bc	83 e1 03	 and	 ecx, 3
  000bf	f3 a4		 rep movsb

; 615  : 			_Eos(_Num);

  000c1	83 7b 18 10	 cmp	 DWORD PTR [ebx+24], 16	; 00000010H
  000c5	89 6b 14	 mov	 DWORD PTR [ebx+20], ebp
  000c8	72 10		 jb	 SHORT $L259648
  000ca	8b 43 04	 mov	 eax, DWORD PTR [ebx+4]
  000cd	c6 04 28 00	 mov	 BYTE PTR [eax+ebp], 0
  000d1	5d		 pop	 ebp
  000d2	5f		 pop	 edi
  000d3	5e		 pop	 esi

; 616  : 			}
; 617  : 		return (*this);

  000d4	8b c3		 mov	 eax, ebx
  000d6	5b		 pop	 ebx

; 618  : 		}

  000d7	c2 08 00	 ret	 8

; 615  : 			_Eos(_Num);

$L259648:
  000da	8d 43 04	 lea	 eax, DWORD PTR [ebx+4]
  000dd	c6 04 28 00	 mov	 BYTE PTR [eax+ebp], 0
$L259650:
  000e1	5d		 pop	 ebp
  000e2	5f		 pop	 edi
  000e3	5e		 pop	 esi

; 616  : 			}
; 617  : 		return (*this);

  000e4	8b c3		 mov	 eax, ebx
  000e6	5b		 pop	 ebx

; 618  : 		}

  000e7	c2 08 00	 ret	 8
?assign@?$basic_string@DU?$char_traits@D@std@@V?$allocator@D@2@@std@@QAEAAV12@PBDI@Z ENDP ; std::basic_string<char,std::char_traits<char>,std::allocator<char> >::assign
_TEXT	ENDS
PUBLIC	??1?$queue@UAIMSG@@V?$deque@UAIMSG@@V?$allocator@UAIMSG@@@std@@@std@@@std@@QAE@XZ ; std::queue<AIMSG,std::deque<AIMSG,std::allocator<AIMSG> > >::~queue<AIMSG,std::deque<AIMSG,std::allocator<AIMSG> > >
; Function compile flags: /Ogty
;	COMDAT ??1?$queue@UAIMSG@@V?$deque@UAIMSG@@V?$allocator@UAIMSG@@@std@@@std@@@std@@QAE@XZ
_TEXT	SEGMENT
??1?$queue@UAIMSG@@V?$deque@UAIMSG@@V?$allocator@UAIMSG@@@std@@@std@@@std@@QAE@XZ PROC NEAR ; std::queue<AIMSG,std::deque<AIMSG,std::allocator<AIMSG> > >::~queue<AIMSG,std::deque<AIMSG,std::allocator<AIMSG> > >, COMDAT
; _this$ = ecx
  00000	e9 00 00 00 00	 jmp	 ?_Tidy@?$deque@UAIMSG@@V?$allocator@UAIMSG@@@std@@@std@@IAEXXZ ; std::deque<AIMSG,std::allocator<AIMSG> >::_Tidy
??1?$queue@UAIMSG@@V?$deque@UAIMSG@@V?$allocator@UAIMSG@@@std@@@std@@@std@@QAE@XZ ENDP ; std::queue<AIMSG,std::deque<AIMSG,std::allocator<AIMSG> > >::~queue<AIMSG,std::deque<AIMSG,std::allocator<AIMSG> > >
_TEXT	ENDS
PUBLIC	??1CAIInterface@@UAE@XZ				; CAIInterface::~CAIInterface
PUBLIC	?RouteMessage@CAIInterface@@UAEXXZ		; CAIInterface::RouteMessage
PUBLIC	?PostAIMsg@CAIInterface@@UAEXKKKK@Z		; CAIInterface::PostAIMsg
PUBLIC	?InitAI@CAIInterface@@UAEXXZ			; CAIInterface::InitAI
PUBLIC	?IsReturnToBegin@CAIInterface@@UAEHXZ		; CAIInterface::IsReturnToBegin
PUBLIC	??_7CAIInterface@@6B@				; CAIInterface::`vftable'
PUBLIC	??_GCAIInterface@@UAEPAXI@Z			; CAIInterface::`scalar deleting destructor'
EXTRN	??_ECAIInterface@@UAEPAXI@Z:NEAR		; CAIInterface::`vector deleting destructor'
;	COMDAT ??_7CAIInterface@@6B@
; File c:\program files\microsoft visual studio .net 2003\vc7\include\deque
CONST	SEGMENT
??_7CAIInterface@@6B@ DD FLAT:?GetStateMap@CAIInterface@@UBEPBUSTATEMAP@@XZ ; CAIInterface::`vftable'
	DD	FLAT:??_ECAIInterface@@UAEPAXI@Z
	DD	FLAT:?RouteMessage@CAIInterface@@UAEXXZ
	DD	FLAT:?SendAIMsg@CAIInterface@@UAEXKKKK@Z
	DD	FLAT:?PostAIMsg@CAIInterface@@UAEXKKKK@Z
	DD	FLAT:?InitAI@CAIInterface@@UAEXXZ
	DD	FLAT:?IsReturnToBegin@CAIInterface@@UAEHXZ
	DD	FLAT:?IsState@CAIInterface@@UAEHH@Z
; Function compile flags: /Ogty
; File c:\documents and settings\test\mes documents\source\virtuos_v17\build\program\_aiinterface\aiinterface.cpp
CONST	ENDS
;	COMDAT ??1CAIInterface@@UAE@XZ
_TEXT	SEGMENT
??1CAIInterface@@UAE@XZ PROC NEAR			; CAIInterface::~CAIInterface, COMDAT
; _this$ = ecx

; 36   : {

  00000	c7 01 00 00 00
	00		 mov	 DWORD PTR [ecx], OFFSET FLAT:??_7CAIInterface@@6B@

; 37   : }

  00006	83 c1 08	 add	 ecx, 8
  00009	e9 00 00 00 00	 jmp	 ?_Tidy@?$deque@UAIMSG@@V?$allocator@UAIMSG@@@std@@@std@@IAEXXZ ; std::deque<AIMSG,std::allocator<AIMSG> >::_Tidy
??1CAIInterface@@UAE@XZ ENDP				; CAIInterface::~CAIInterface
; Function compile flags: /Ogty
; File c:\documents and settings\test\mes documents\source\virtuos_v17\build\program\_aiinterface\aiinterface.h
_TEXT	ENDS
;	COMDAT ?InitAI@CAIInterface@@UAEXXZ
_TEXT	SEGMENT
?InitAI@CAIInterface@@UAEXXZ PROC NEAR			; CAIInterface::InitAI, COMDAT
; _this$ = ecx

; 119  : 	virtual void	InitAI() { }

  00000	c3		 ret	 0
?InitAI@CAIInterface@@UAEXXZ ENDP			; CAIInterface::InitAI
; Function compile flags: /Ogty
_TEXT	ENDS
;	COMDAT ?IsReturnToBegin@CAIInterface@@UAEHXZ
_TEXT	SEGMENT
?IsReturnToBegin@CAIInterface@@UAEHXZ PROC NEAR		; CAIInterface::IsReturnToBegin, COMDAT
; _this$ = ecx

; 121  : 	virtual		BOOL	IsReturnToBegin( void )		{	return FALSE;	}

  00000	33 c0		 xor	 eax, eax
  00002	c3		 ret	 0
?IsReturnToBegin@CAIInterface@@UAEHXZ ENDP		; CAIInterface::IsReturnToBegin
; Function compile flags: /Ogty
; File c:\documents and settings\test\mes documents\source\virtuos_v17\build\program\_aiinterface\aiinterface.cpp
_TEXT	ENDS
;	COMDAT ?RouteMessage@CAIInterface@@UAEXXZ
_TEXT	SEGMENT
_msg$ = -32						; size = 16
$T259682 = -16						; size = 16
?RouteMessage@CAIInterface@@UAEXXZ PROC NEAR		; CAIInterface::RouteMessage, COMDAT
; _this$ = ecx

; 66   : {

  00000	83 ec 20	 sub	 esp, 32			; 00000020H
  00003	53		 push	 ebx
  00004	56		 push	 esi
  00005	8b f1		 mov	 esi, ecx

; 67   : 	AIMSG msg;
; 68   : 
; 69   : 	while( !m_MsgQueue.empty() )

  00007	8b 46 18	 mov	 eax, DWORD PTR [esi+24]
  0000a	33 db		 xor	 ebx, ebx
  0000c	3b c3		 cmp	 eax, ebx
  0000e	0f 84 aa 00 00
	00		 je	 $L251814
  00014	55		 push	 ebp
  00015	57		 push	 edi
  00016	8d 6e 20	 lea	 ebp, DWORD PTR [esi+32]
  00019	8d a4 24 00 00
	00 00		 npad	 7
$L251813:

; 70   : 	{
; 71   : 		msg	= m_MsgQueue.front();

  00020	8b 46 14	 mov	 eax, DWORD PTR [esi+20]
  00023	8b 4e 10	 mov	 ecx, DWORD PTR [esi+16]
  00026	3b c8		 cmp	 ecx, eax
  00028	77 02		 ja	 SHORT $L259767
  0002a	2b c1		 sub	 eax, ecx
$L259767:
  0002c	8b 4e 0c	 mov	 ecx, DWORD PTR [esi+12]
  0002f	8b 14 81	 mov	 edx, DWORD PTR [ecx+eax*4]
  00032	8b 3a		 mov	 edi, DWORD PTR [edx]
  00034	89 7c 24 10	 mov	 DWORD PTR _msg$[esp+48], edi
  00038	8b 4a 04	 mov	 ecx, DWORD PTR [edx+4]
  0003b	89 4c 24 14	 mov	 DWORD PTR _msg$[esp+52], ecx
  0003f	8b 42 08	 mov	 eax, DWORD PTR [edx+8]
  00042	89 44 24 18	 mov	 DWORD PTR _msg$[esp+56], eax

; 72   : 		m_MsgQueue.pop();

  00046	8b 46 18	 mov	 eax, DWORD PTR [esi+24]
  00049	3b c3		 cmp	 eax, ebx
  0004b	8b 52 0c	 mov	 edx, DWORD PTR [edx+12]
  0004e	89 54 24 1c	 mov	 DWORD PTR _msg$[esp+60], edx
  00052	74 1a		 je	 SHORT $L259788
  00054	8b 56 14	 mov	 edx, DWORD PTR [esi+20]
  00057	42		 inc	 edx
  00058	39 56 10	 cmp	 DWORD PTR [esi+16], edx
  0005b	89 56 14	 mov	 DWORD PTR [esi+20], edx
  0005e	77 03		 ja	 SHORT $L259787
  00060	89 5e 14	 mov	 DWORD PTR [esi+20], ebx
$L259787:
  00063	48		 dec	 eax
  00064	3b c3		 cmp	 eax, ebx
  00066	89 46 18	 mov	 DWORD PTR [esi+24], eax
  00069	75 03		 jne	 SHORT $L259788
  0006b	89 5e 14	 mov	 DWORD PTR [esi+20], ebx
$L259788:

; 73   : 		if( msg.dwMessage == AIMSG_SETSTATE )

  0006e	83 ff 04	 cmp	 edi, 4
  00071	75 2d		 jne	 SHORT $L251815

; 74   : 		{
; 75   : 			msg.dwMessage	= AIMSG_INIT;
; 76   : 			m_pStateFunc	= GetAIStateFunc( msg.dwParam1 );

  00073	51		 push	 ecx
  00074	8d 44 24 24	 lea	 eax, DWORD PTR $T259682[esp+52]
  00078	50		 push	 eax
  00079	8b ce		 mov	 ecx, esi
  0007b	c7 44 24 18 01
	00 00 00	 mov	 DWORD PTR _msg$[esp+56], 1
  00083	e8 00 00 00 00	 call	 ?GetAIStateFunc@CAIInterface@@AAEP81@AEHABUAIMSG@@@ZK@Z ; CAIInterface::GetAIStateFunc
  00088	8b 10		 mov	 edx, DWORD PTR [eax]
  0008a	8b cd		 mov	 ecx, ebp
  0008c	89 11		 mov	 DWORD PTR [ecx], edx
  0008e	8b 50 04	 mov	 edx, DWORD PTR [eax+4]
  00091	89 51 04	 mov	 DWORD PTR [ecx+4], edx
  00094	8b 50 08	 mov	 edx, DWORD PTR [eax+8]
  00097	89 51 08	 mov	 DWORD PTR [ecx+8], edx
  0009a	8b 40 0c	 mov	 eax, DWORD PTR [eax+12]
  0009d	89 41 0c	 mov	 DWORD PTR [ecx+12], eax
$L251815:

; 77   : 		}
; 78   : 		if( m_pStateFunc )

  000a0	8b 45 00	 mov	 eax, DWORD PTR [ebp]
  000a3	3b c3		 cmp	 eax, ebx
  000a5	74 0c		 je	 SHORT $L251816

; 79   : 			( this->*( m_pStateFunc ) ) ( msg );

  000a7	8d 4c 24 10	 lea	 ecx, DWORD PTR _msg$[esp+48]
  000ab	51		 push	 ecx
  000ac	8b 4e 24	 mov	 ecx, DWORD PTR [esi+36]
  000af	03 ce		 add	 ecx, esi
  000b1	ff d0		 call	 eax
$L251816:
  000b3	39 5e 18	 cmp	 DWORD PTR [esi+24], ebx
  000b6	0f 85 64 ff ff
	ff		 jne	 $L251813
  000bc	5f		 pop	 edi
  000bd	5d		 pop	 ebp
$L251814:

; 80   : 	}
; 81   : 	if( m_pStateFunc )

  000be	8b 46 20	 mov	 eax, DWORD PTR [esi+32]
  000c1	3b c3		 cmp	 eax, ebx
  000c3	74 20		 je	 SHORT $L251818

; 82   : 	{
; 83   : 		msg.dwMessage	= AIMSG_PROCESS;
; 84   : 		msg.dwParam1	= 0;
; 85   : 		msg.dwParam2	= 0;
; 86   : #ifdef __INSTANCE_AGGRO_SYSTEM
; 87   : 		msg.dwParam3	= 0;
; 88   : #endif // __INSTANCE_AGGRO_SYSTEM
; 89   : 		( this->*( m_pStateFunc ) ) ( msg );

  000c5	8b 4e 24	 mov	 ecx, DWORD PTR [esi+36]
  000c8	8d 54 24 08	 lea	 edx, DWORD PTR _msg$[esp+40]
  000cc	52		 push	 edx
  000cd	03 ce		 add	 ecx, esi
  000cf	c7 44 24 0c 02
	00 00 00	 mov	 DWORD PTR _msg$[esp+44], 2
  000d7	89 5c 24 10	 mov	 DWORD PTR _msg$[esp+48], ebx
  000db	89 5c 24 14	 mov	 DWORD PTR _msg$[esp+52], ebx
  000df	89 5c 24 18	 mov	 DWORD PTR _msg$[esp+56], ebx
  000e3	ff d0		 call	 eax
$L251818:
  000e5	5e		 pop	 esi
  000e6	5b		 pop	 ebx

; 90   : 	}
; 91   : }

  000e7	83 c4 20	 add	 esp, 32			; 00000020H
  000ea	c3		 ret	 0
?RouteMessage@CAIInterface@@UAEXXZ ENDP			; CAIInterface::RouteMessage
_TEXT	ENDS
PUBLIC	??0?$queue@UAIMSG@@V?$deque@UAIMSG@@V?$allocator@UAIMSG@@@std@@@std@@@std@@QAE@XZ ; std::queue<AIMSG,std::deque<AIMSG,std::allocator<AIMSG> > >::queue<AIMSG,std::deque<AIMSG,std::allocator<AIMSG> > >
; Function compile flags: /Ogty
; File c:\program files\microsoft visual studio .net 2003\vc7\include\queue
;	COMDAT ??0?$queue@UAIMSG@@V?$deque@UAIMSG@@V?$allocator@UAIMSG@@@std@@@std@@@std@@QAE@XZ
_TEXT	SEGMENT
??0?$queue@UAIMSG@@V?$deque@UAIMSG@@V?$allocator@UAIMSG@@@std@@@std@@@std@@QAE@XZ PROC NEAR ; std::queue<AIMSG,std::deque<AIMSG,std::allocator<AIMSG> > >::queue<AIMSG,std::deque<AIMSG,std::allocator<AIMSG> > >, COMDAT
; _this$ = ecx

; 26   : 		{	// construct with empty container

  00000	8b c1		 mov	 eax, ecx
  00002	33 c9		 xor	 ecx, ecx
  00004	89 48 04	 mov	 DWORD PTR [eax+4], ecx
  00007	89 48 08	 mov	 DWORD PTR [eax+8], ecx
  0000a	89 48 0c	 mov	 DWORD PTR [eax+12], ecx
  0000d	89 48 10	 mov	 DWORD PTR [eax+16], ecx

; 27   : 		}

  00010	c3		 ret	 0
??0?$queue@UAIMSG@@V?$deque@UAIMSG@@V?$allocator@UAIMSG@@@std@@@std@@@std@@QAE@XZ ENDP ; std::queue<AIMSG,std::deque<AIMSG,std::allocator<AIMSG> > >::queue<AIMSG,std::deque<AIMSG,std::allocator<AIMSG> > >
_TEXT	ENDS
PUBLIC	??0?$basic_string@DU?$char_traits@D@std@@V?$allocator@D@2@@std@@QAE@ABV01@@Z ; std::basic_string<char,std::char_traits<char>,std::allocator<char> >::basic_string<char,std::char_traits<char>,std::allocator<char> >
; Function compile flags: /Ogty
; File c:\program files\microsoft visual studio .net 2003\vc7\include\xstring
;	COMDAT ??0?$basic_string@DU?$char_traits@D@std@@V?$allocator@D@2@@std@@QAE@ABV01@@Z
_TEXT	SEGMENT
__Right$ = 8						; size = 4
??0?$basic_string@DU?$char_traits@D@std@@V?$allocator@D@2@@std@@QAE@ABV01@@Z PROC NEAR ; std::basic_string<char,std::char_traits<char>,std::allocator<char> >::basic_string<char,std::char_traits<char>,std::allocator<char> >, COMDAT
; _this$ = ecx

; 323  : 		{	// construct by copying _Right

  00000	56		 push	 esi

; 324  : 		_Tidy();

  00001	33 c0		 xor	 eax, eax
  00003	8b f1		 mov	 esi, ecx

; 325  : 		assign(_Right, 0, npos);

  00005	6a ff		 push	 -1
  00007	89 46 14	 mov	 DWORD PTR [esi+20], eax
  0000a	c7 46 18 0f 00
	00 00		 mov	 DWORD PTR [esi+24], 15	; 0000000fH
  00011	50		 push	 eax
  00012	88 46 04	 mov	 BYTE PTR [esi+4], al
  00015	8b 44 24 10	 mov	 eax, DWORD PTR __Right$[esp+8]
  00019	50		 push	 eax
  0001a	e8 00 00 00 00	 call	 ?assign@?$basic_string@DU?$char_traits@D@std@@V?$allocator@D@2@@std@@QAEAAV12@ABV12@II@Z ; std::basic_string<char,std::char_traits<char>,std::allocator<char> >::assign

; 326  : 		}

  0001f	8b c6		 mov	 eax, esi
  00021	5e		 pop	 esi
  00022	c2 04 00	 ret	 4
??0?$basic_string@DU?$char_traits@D@std@@V?$allocator@D@2@@std@@QAE@ABV01@@Z ENDP ; std::basic_string<char,std::char_traits<char>,std::allocator<char> >::basic_string<char,std::char_traits<char>,std::allocator<char> >
_TEXT	ENDS
PUBLIC	?assign@?$basic_string@DU?$char_traits@D@std@@V?$allocator@D@2@@std@@QAEAAV12@PBD@Z ; std::basic_string<char,std::char_traits<char>,std::allocator<char> >::assign
; Function compile flags: /Ogty
;	COMDAT ?assign@?$basic_string@DU?$char_traits@D@std@@V?$allocator@D@2@@std@@QAEAAV12@PBD@Z
_TEXT	SEGMENT
__Ptr$ = 8						; size = 4
?assign@?$basic_string@DU?$char_traits@D@std@@V?$allocator@D@2@@std@@QAEAAV12@PBD@Z PROC NEAR ; std::basic_string<char,std::char_traits<char>,std::allocator<char> >::assign, COMDAT
; _this$ = ecx

; 621  : 		{	// assign [_Ptr, <null>)

  00000	56		 push	 esi

; 622  : 		return (assign(_Ptr, _Traits::length(_Ptr)));

  00001	8b 74 24 08	 mov	 esi, DWORD PTR __Ptr$[esp]
  00005	8b c6		 mov	 eax, esi
  00007	57		 push	 edi
  00008	8d 78 01	 lea	 edi, DWORD PTR [eax+1]
  0000b	eb 03 8d 49 00	 npad	 5
$L259925:
  00010	8a 10		 mov	 dl, BYTE PTR [eax]
  00012	40		 inc	 eax
  00013	84 d2		 test	 dl, dl
  00015	75 f9		 jne	 SHORT $L259925
  00017	2b c7		 sub	 eax, edi
  00019	50		 push	 eax
  0001a	56		 push	 esi
  0001b	e8 00 00 00 00	 call	 ?assign@?$basic_string@DU?$char_traits@D@std@@V?$allocator@D@2@@std@@QAEAAV12@PBDI@Z ; std::basic_string<char,std::char_traits<char>,std::allocator<char> >::assign
  00020	5f		 pop	 edi
  00021	5e		 pop	 esi

; 623  : 		}

  00022	c2 04 00	 ret	 4
?assign@?$basic_string@DU?$char_traits@D@std@@V?$allocator@D@2@@std@@QAEAAV12@PBD@Z ENDP ; std::basic_string<char,std::char_traits<char>,std::allocator<char> >::assign
_TEXT	ENDS
PUBLIC	??0CAIInterface@@QAE@XZ				; CAIInterface::CAIInterface
; Function compile flags: /Ogty
; File c:\documents and settings\test\mes documents\source\virtuos_v17\build\program\_aiinterface\aiinterface.cpp
;	COMDAT ??0CAIInterface@@QAE@XZ
_TEXT	SEGMENT
??0CAIInterface@@QAE@XZ PROC NEAR			; CAIInterface::CAIInterface, COMDAT
; _this$ = ecx

; 19   : {

  00000	8b c1		 mov	 eax, ecx
  00002	53		 push	 ebx
  00003	33 c9		 xor	 ecx, ecx
  00005	c7 00 00 00 00
	00		 mov	 DWORD PTR [eax], OFFSET FLAT:??_7CAIInterface@@6B@
  0000b	89 48 0c	 mov	 DWORD PTR [eax+12], ecx
  0000e	89 48 10	 mov	 DWORD PTR [eax+16], ecx
  00011	89 48 14	 mov	 DWORD PTR [eax+20], ecx
  00014	89 48 18	 mov	 DWORD PTR [eax+24], ecx
  00017	56		 push	 esi

; 20   : 	m_pObj = NULL;
; 21   : 	m_pStateFunc = NULL;

  00018	8d 58 20	 lea	 ebx, DWORD PTR [eax+32]
  0001b	89 0b		 mov	 DWORD PTR [ebx], ecx
  0001d	57		 push	 edi
  0001e	33 d2		 xor	 edx, edx
  00020	89 53 04	 mov	 DWORD PTR [ebx+4], edx
  00023	33 f6		 xor	 esi, esi
  00025	89 73 08	 mov	 DWORD PTR [ebx+8], esi
  00028	83 cf ff	 or	 edi, -1
  0002b	89 7b 0c	 mov	 DWORD PTR [ebx+12], edi
  0002e	5f		 pop	 edi
  0002f	5e		 pop	 esi
  00030	89 48 30	 mov	 DWORD PTR [eax+48], ecx

; 22   : #if __VER >= 9	//__AI_0509
; 23   : 	m_uParty	= 0;

  00033	89 48 34	 mov	 DWORD PTR [eax+52], ecx
  00036	5b		 pop	 ebx

; 24   : #endif	// __AI_0509
; 25   : }

  00037	c3		 ret	 0
??0CAIInterface@@QAE@XZ ENDP				; CAIInterface::CAIInterface
; Function compile flags: /Ogty
_TEXT	ENDS
;	COMDAT ??_GCAIInterface@@UAEPAXI@Z
_TEXT	SEGMENT
___flags$ = 8						; size = 4
??_GCAIInterface@@UAEPAXI@Z PROC NEAR			; CAIInterface::`scalar deleting destructor', COMDAT
; _this$ = ecx
  00000	56		 push	 esi
  00001	8b f1		 mov	 esi, ecx
  00003	e8 00 00 00 00	 call	 ??1CAIInterface@@UAE@XZ	; CAIInterface::~CAIInterface
  00008	f6 44 24 08 01	 test	 BYTE PTR ___flags$[esp], 1
  0000d	74 09		 je	 SHORT $L260006
  0000f	56		 push	 esi
  00010	e8 00 00 00 00	 call	 ??3@YAXPAX@Z		; operator delete
  00015	83 c4 04	 add	 esp, 4
$L260006:
  00018	8b c6		 mov	 eax, esi
  0001a	5e		 pop	 esi
  0001b	c2 04 00	 ret	 4
??_GCAIInterface@@UAEPAXI@Z ENDP			; CAIInterface::`scalar deleting destructor'
_TEXT	ENDS
PUBLIC	??0CAIInterface@@QAE@PAVCObj@@@Z		; CAIInterface::CAIInterface
; Function compile flags: /Ogty
;	COMDAT ??0CAIInterface@@QAE@PAVCObj@@@Z
_TEXT	SEGMENT
_pObj$ = 8						; size = 4
??0CAIInterface@@QAE@PAVCObj@@@Z PROC NEAR		; CAIInterface::CAIInterface, COMDAT
; _this$ = ecx

; 28   : 	m_pObj = pObj;

  00000	8b 54 24 04	 mov	 edx, DWORD PTR _pObj$[esp-4]
  00004	8b c1		 mov	 eax, ecx
  00006	53		 push	 ebx
  00007	33 c9		 xor	 ecx, ecx
  00009	c7 00 00 00 00
	00		 mov	 DWORD PTR [eax], OFFSET FLAT:??_7CAIInterface@@6B@
  0000f	89 48 0c	 mov	 DWORD PTR [eax+12], ecx
  00012	89 48 10	 mov	 DWORD PTR [eax+16], ecx
  00015	89 48 14	 mov	 DWORD PTR [eax+20], ecx
  00018	89 48 18	 mov	 DWORD PTR [eax+24], ecx
  0001b	56		 push	 esi

; 29   : 	m_pStateFunc = NULL;

  0001c	8d 58 20	 lea	 ebx, DWORD PTR [eax+32]
  0001f	89 0b		 mov	 DWORD PTR [ebx], ecx
  00021	89 50 30	 mov	 DWORD PTR [eax+48], edx
  00024	57		 push	 edi
  00025	33 d2		 xor	 edx, edx
  00027	89 53 04	 mov	 DWORD PTR [ebx+4], edx
  0002a	33 f6		 xor	 esi, esi
  0002c	89 73 08	 mov	 DWORD PTR [ebx+8], esi
  0002f	83 cf ff	 or	 edi, -1
  00032	89 7b 0c	 mov	 DWORD PTR [ebx+12], edi
  00035	5f		 pop	 edi
  00036	5e		 pop	 esi

; 30   : #if __VER >= 9	//__AI_0509
; 31   : 	m_uParty	= 0;

  00037	89 48 34	 mov	 DWORD PTR [eax+52], ecx
  0003a	5b		 pop	 ebx

; 32   : #endif	// __AI_0509
; 33   : }

  0003b	c2 04 00	 ret	 4
??0CAIInterface@@QAE@PAVCObj@@@Z ENDP			; CAIInterface::CAIInterface
_TEXT	ENDS
PUBLIC	??0logic_error@std@@QAE@ABV?$basic_string@DU?$char_traits@D@std@@V?$allocator@D@2@@1@@Z ; std::logic_error::logic_error
EXTRN	??0exception@@QAE@XZ:NEAR			; exception::exception
;	COMDAT xdata$x
; File c:\program files\microsoft visual studio .net 2003\vc7\include\iosfwd
xdata$x	SEGMENT
$T260187 DD	0ffffffffH
	DD	FLAT:$L260087
$T260185 DD	019930520H
	DD	01H
	DD	FLAT:$T260187
	DD	2 DUP(00H)
	DD	2 DUP(00H)
; Function compile flags: /Ogty
; File c:\program files\microsoft visual studio .net 2003\vc7\include\stdexcept
xdata$x	ENDS
;	COMDAT ??0logic_error@std@@QAE@ABV?$basic_string@DU?$char_traits@D@std@@V?$allocator@D@2@@1@@Z
_TEXT	SEGMENT
_this$ = -16						; size = 4
__$EHRec$ = -12						; size = 12
__Message$ = 8						; size = 4
??0logic_error@std@@QAE@ABV?$basic_string@DU?$char_traits@D@std@@V?$allocator@D@2@@1@@Z PROC NEAR ; std::logic_error::logic_error, COMDAT
; _this$ = ecx

; 19   : 		{	// construct from message string

  00000	6a ff		 push	 -1
  00002	68 00 00 00 00	 push	 __ehhandler$??0logic_error@std@@QAE@ABV?$basic_string@DU?$char_traits@D@std@@V?$allocator@D@2@@1@@Z
  00007	64 a1 00 00 00
	00		 mov	 eax, DWORD PTR fs:__except_list
  0000d	50		 push	 eax
  0000e	64 89 25 00 00
	00 00		 mov	 DWORD PTR fs:__except_list, esp
  00015	51		 push	 ecx
  00016	56		 push	 esi
  00017	8b f1		 mov	 esi, ecx
  00019	89 74 24 04	 mov	 DWORD PTR _this$[esp+20], esi
  0001d	e8 00 00 00 00	 call	 ??0exception@@QAE@XZ	; exception::exception
  00022	33 c0		 xor	 eax, eax
  00024	8d 4e 0c	 lea	 ecx, DWORD PTR [esi+12]
  00027	c7 06 00 00 00
	00		 mov	 DWORD PTR [esi], OFFSET FLAT:??_7logic_error@std@@6B@
  0002d	6a ff		 push	 -1
  0002f	89 41 14	 mov	 DWORD PTR [ecx+20], eax
  00032	c7 41 18 0f 00
	00 00		 mov	 DWORD PTR [ecx+24], 15	; 0000000fH
  00039	50		 push	 eax
  0003a	89 44 24 18	 mov	 DWORD PTR __$EHRec$[esp+36], eax
  0003e	88 41 04	 mov	 BYTE PTR [ecx+4], al
  00041	8b 44 24 20	 mov	 eax, DWORD PTR __Message$[esp+24]
  00045	50		 push	 eax
  00046	e8 00 00 00 00	 call	 ?assign@?$basic_string@DU?$char_traits@D@std@@V?$allocator@D@2@@std@@QAEAAV12@ABV12@II@Z ; std::basic_string<char,std::char_traits<char>,std::allocator<char> >::assign

; 20   : 		}

  0004b	8b 4c 24 08	 mov	 ecx, DWORD PTR __$EHRec$[esp+20]
  0004f	8b c6		 mov	 eax, esi
  00051	5e		 pop	 esi
  00052	64 89 0d 00 00
	00 00		 mov	 DWORD PTR fs:__except_list, ecx
  00059	83 c4 10	 add	 esp, 16			; 00000010H
  0005c	c2 04 00	 ret	 4
_TEXT	ENDS
;	COMDAT text$x
text$x	SEGMENT
$L260087:
  00000	8b 4d f0	 mov	 ecx, DWORD PTR _this$[ebp]
  00003	e9 00 00 00 00	 jmp	 ??1exception@@UAE@XZ	; exception::~exception
__ehhandler$??0logic_error@std@@QAE@ABV?$basic_string@DU?$char_traits@D@std@@V?$allocator@D@2@@1@@Z:
  00008	b8 00 00 00 00	 mov	 eax, OFFSET FLAT:$T260185
  0000d	e9 00 00 00 00	 jmp	 ___CxxFrameHandler
text$x	ENDS
??0logic_error@std@@QAE@ABV?$basic_string@DU?$char_traits@D@std@@V?$allocator@D@2@@1@@Z ENDP ; std::logic_error::logic_error
PUBLIC	??0length_error@std@@QAE@ABV?$basic_string@DU?$char_traits@D@std@@V?$allocator@D@2@@1@@Z ; std::length_error::length_error
PUBLIC	??_7length_error@std@@6B@			; std::length_error::`vftable'
PUBLIC	??_Glength_error@std@@UAEPAXI@Z			; std::length_error::`scalar deleting destructor'
EXTRN	??_Elength_error@std@@UAEPAXI@Z:NEAR		; std::length_error::`vector deleting destructor'
;	COMDAT ??_7length_error@std@@6B@
CONST	SEGMENT
??_7length_error@std@@6B@ DD FLAT:??_Elength_error@std@@UAEPAXI@Z ; std::length_error::`vftable'
	DD	FLAT:?what@logic_error@std@@UBEPBDXZ
; Function compile flags: /Ogty
CONST	ENDS
;	COMDAT ??0length_error@std@@QAE@ABV?$basic_string@DU?$char_traits@D@std@@V?$allocator@D@2@@1@@Z
_TEXT	SEGMENT
__Message$ = 8						; size = 4
??0length_error@std@@QAE@ABV?$basic_string@DU?$char_traits@D@std@@V?$allocator@D@2@@1@@Z PROC NEAR ; std::length_error::length_error, COMDAT
; _this$ = ecx

; 95   : 		{	// construct from message string

  00000	8b 44 24 04	 mov	 eax, DWORD PTR __Message$[esp-4]
  00004	56		 push	 esi
  00005	50		 push	 eax
  00006	8b f1		 mov	 esi, ecx
  00008	e8 00 00 00 00	 call	 ??0logic_error@std@@QAE@ABV?$basic_string@DU?$char_traits@D@std@@V?$allocator@D@2@@1@@Z ; std::logic_error::logic_error
  0000d	c7 06 00 00 00
	00		 mov	 DWORD PTR [esi], OFFSET FLAT:??_7length_error@std@@6B@

; 96   : 		}

  00013	8b c6		 mov	 eax, esi
  00015	5e		 pop	 esi
  00016	c2 04 00	 ret	 4
??0length_error@std@@QAE@ABV?$basic_string@DU?$char_traits@D@std@@V?$allocator@D@2@@1@@Z ENDP ; std::length_error::length_error
_TEXT	ENDS
PUBLIC	??1length_error@std@@UAE@XZ			; std::length_error::~length_error
; Function compile flags: /Ogty
;	COMDAT ??_Glength_error@std@@UAEPAXI@Z
_TEXT	SEGMENT
___flags$ = 8						; size = 4
??_Glength_error@std@@UAEPAXI@Z PROC NEAR		; std::length_error::`scalar deleting destructor', COMDAT
; _this$ = ecx
  00000	56		 push	 esi
  00001	8b f1		 mov	 esi, ecx
  00003	e8 00 00 00 00	 call	 ??1length_error@std@@UAE@XZ ; std::length_error::~length_error
  00008	f6 44 24 08 01	 test	 BYTE PTR ___flags$[esp], 1
  0000d	74 09		 je	 SHORT $L260197
  0000f	56		 push	 esi
  00010	e8 00 00 00 00	 call	 ??3@YAXPAX@Z		; operator delete
  00015	83 c4 04	 add	 esp, 4
$L260197:
  00018	8b c6		 mov	 eax, esi
  0001a	5e		 pop	 esi
  0001b	c2 04 00	 ret	 4
??_Glength_error@std@@UAEPAXI@Z ENDP			; std::length_error::`scalar deleting destructor'
; Function compile flags: /Ogty
_TEXT	ENDS
;	COMDAT ??1length_error@std@@UAE@XZ
_TEXT	SEGMENT
??1length_error@std@@UAE@XZ PROC NEAR			; std::length_error::~length_error, COMDAT
; _this$ = ecx

; 99   : 		{}	// destroy the object

  00000	56		 push	 esi
  00001	8b f1		 mov	 esi, ecx
  00003	c7 06 00 00 00
	00		 mov	 DWORD PTR [esi], OFFSET FLAT:??_7logic_error@std@@6B@
  00009	83 7e 24 10	 cmp	 DWORD PTR [esi+36], 16	; 00000010H
  0000d	72 0c		 jb	 SHORT $L260285
  0000f	8b 46 10	 mov	 eax, DWORD PTR [esi+16]
  00012	50		 push	 eax
  00013	e8 00 00 00 00	 call	 ??3@YAXPAX@Z		; operator delete
  00018	83 c4 04	 add	 esp, 4
$L260285:
  0001b	33 c0		 xor	 eax, eax
  0001d	c7 46 24 0f 00
	00 00		 mov	 DWORD PTR [esi+36], 15	; 0000000fH
  00024	89 46 20	 mov	 DWORD PTR [esi+32], eax
  00027	88 46 10	 mov	 BYTE PTR [esi+16], al
  0002a	8b ce		 mov	 ecx, esi
  0002c	5e		 pop	 esi
  0002d	e9 00 00 00 00	 jmp	 ??1exception@@UAE@XZ	; exception::~exception
??1length_error@std@@UAE@XZ ENDP			; std::length_error::~length_error
_TEXT	ENDS
PUBLIC	??0?$basic_string@DU?$char_traits@D@std@@V?$allocator@D@2@@std@@QAE@PBD@Z ; std::basic_string<char,std::char_traits<char>,std::allocator<char> >::basic_string<char,std::char_traits<char>,std::allocator<char> >
; Function compile flags: /Ogty
; File c:\program files\microsoft visual studio .net 2003\vc7\include\xstring
;	COMDAT ??0?$basic_string@DU?$char_traits@D@std@@V?$allocator@D@2@@std@@QAE@PBD@Z
_TEXT	SEGMENT
__Ptr$ = 8						; size = 4
??0?$basic_string@DU?$char_traits@D@std@@V?$allocator@D@2@@std@@QAE@PBD@Z PROC NEAR ; std::basic_string<char,std::char_traits<char>,std::allocator<char> >::basic_string<char,std::char_traits<char>,std::allocator<char> >, COMDAT
; _this$ = ecx

; 361  : 		_Tidy();
; 362  : 		assign(_Ptr);

  00000	8b 54 24 04	 mov	 edx, DWORD PTR __Ptr$[esp-4]
  00004	56		 push	 esi
  00005	8b f1		 mov	 esi, ecx
  00007	8b c2		 mov	 eax, edx
  00009	57		 push	 edi
  0000a	c7 46 18 0f 00
	00 00		 mov	 DWORD PTR [esi+24], 15	; 0000000fH
  00011	c7 46 14 00 00
	00 00		 mov	 DWORD PTR [esi+20], 0
  00018	c6 46 04 00	 mov	 BYTE PTR [esi+4], 0
  0001c	8d 78 01	 lea	 edi, DWORD PTR [eax+1]
  0001f	90		 npad	 1
$L260379:
  00020	8a 08		 mov	 cl, BYTE PTR [eax]
  00022	40		 inc	 eax
  00023	84 c9		 test	 cl, cl
  00025	75 f9		 jne	 SHORT $L260379
  00027	2b c7		 sub	 eax, edi
  00029	50		 push	 eax
  0002a	52		 push	 edx
  0002b	8b ce		 mov	 ecx, esi
  0002d	e8 00 00 00 00	 call	 ?assign@?$basic_string@DU?$char_traits@D@std@@V?$allocator@D@2@@std@@QAEAAV12@PBDI@Z ; std::basic_string<char,std::char_traits<char>,std::allocator<char> >::assign
  00032	5f		 pop	 edi

; 363  : 		}

  00033	8b c6		 mov	 eax, esi
  00035	5e		 pop	 esi
  00036	c2 04 00	 ret	 4
??0?$basic_string@DU?$char_traits@D@std@@V?$allocator@D@2@@std@@QAE@PBD@Z ENDP ; std::basic_string<char,std::char_traits<char>,std::allocator<char> >::basic_string<char,std::char_traits<char>,std::allocator<char> >
_TEXT	ENDS
PUBLIC	__TI3?AVlength_error@std@@
PUBLIC	__CTA3?AVlength_error@std@@
PUBLIC	??_R0?AVlength_error@std@@@8			; std::length_error `RTTI Type Descriptor'
PUBLIC	__CT??_R0?AVlength_error@std@@@8??0length_error@std@@QAE@ABV01@@Z40
PUBLIC	??_R0?AVlogic_error@std@@@8			; std::logic_error `RTTI Type Descriptor'
PUBLIC	__CT??_R0?AVlogic_error@std@@@8??0logic_error@std@@QAE@ABV01@@Z40
PUBLIC	??_R0?AVexception@@@8				; exception `RTTI Type Descriptor'
PUBLIC	__CT??_R0?AVexception@@@8??0exception@@QAE@ABV0@@Z12
PUBLIC	??_C@_0BC@KBDMBKEH@deque?$DMT?$DO?5too?5long?$AA@ ; `string'
PUBLIC	?_Xlen@?$deque@UAIMSG@@V?$allocator@UAIMSG@@@std@@@std@@IBEXXZ ; std::deque<AIMSG,std::allocator<AIMSG> >::_Xlen
PUBLIC	??0logic_error@std@@QAE@ABV01@@Z		; std::logic_error::logic_error
PUBLIC	??0length_error@std@@QAE@ABV01@@Z		; std::length_error::length_error
EXTRN	??0exception@@QAE@ABV0@@Z:NEAR			; exception::exception
EXTRN	??_7type_info@@6B@:DWORD			; type_info::`vftable'
;	COMDAT xdata$x
; File c:\program files\microsoft visual studio .net 2003\vc7\include\stdexcept
xdata$x	SEGMENT
$T260500 DD	0ffffffffH
	DD	FLAT:$L260385
$T260497 DD	019930520H
	DD	01H
	DD	FLAT:$T260500
	DD	2 DUP(00H)
	DD	2 DUP(00H)
xdata$x	ENDS
;	COMDAT ??_C@_0BC@KBDMBKEH@deque?$DMT?$DO?5too?5long?$AA@
CONST	SEGMENT
??_C@_0BC@KBDMBKEH@deque?$DMT?$DO?5too?5long?$AA@ DB 'deque<T> too long', 00H ; `string'
CONST	ENDS
;	COMDAT __TI3?AVlength_error@std@@
xdata$x	SEGMENT
__TI3?AVlength_error@std@@ DD 00H
	DD	FLAT:??1length_error@std@@UAE@XZ
	DD	00H
	DD	FLAT:__CTA3?AVlength_error@std@@
xdata$x	ENDS
;	COMDAT __CTA3?AVlength_error@std@@
xdata$x	SEGMENT
__CTA3?AVlength_error@std@@ DD 03H
	DD	FLAT:__CT??_R0?AVlength_error@std@@@8??0length_error@std@@QAE@ABV01@@Z40
	DD	FLAT:__CT??_R0?AVlogic_error@std@@@8??0logic_error@std@@QAE@ABV01@@Z40
	DD	FLAT:__CT??_R0?AVexception@@@8??0exception@@QAE@ABV0@@Z12
xdata$x	ENDS
;	COMDAT __CT??_R0?AVlength_error@std@@@8??0length_error@std@@QAE@ABV01@@Z40
xdata$x	SEGMENT
__CT??_R0?AVlength_error@std@@@8??0length_error@std@@QAE@ABV01@@Z40 DD 00H
	DD	FLAT:??_R0?AVlength_error@std@@@8
	DD	00H
	DD	0ffffffffH
	ORG $+4
	DD	028H
	DD	FLAT:??0length_error@std@@QAE@ABV01@@Z
xdata$x	ENDS
;	COMDAT ??_R0?AVlength_error@std@@@8
_DATA	SEGMENT
??_R0?AVlength_error@std@@@8 DD FLAT:??_7type_info@@6B@	; std::length_error `RTTI Type Descriptor'
	DD	00H
	DB	'.?AVlength_error@std@@', 00H
_DATA	ENDS
;	COMDAT __CT??_R0?AVlogic_error@std@@@8??0logic_error@std@@QAE@ABV01@@Z40
xdata$x	SEGMENT
__CT??_R0?AVlogic_error@std@@@8??0logic_error@std@@QAE@ABV01@@Z40 DD 00H
	DD	FLAT:??_R0?AVlogic_error@std@@@8
	DD	00H
	DD	0ffffffffH
	ORG $+4
	DD	028H
	DD	FLAT:??0logic_error@std@@QAE@ABV01@@Z
xdata$x	ENDS
;	COMDAT ??_R0?AVlogic_error@std@@@8
_DATA	SEGMENT
??_R0?AVlogic_error@std@@@8 DD FLAT:??_7type_info@@6B@	; std::logic_error `RTTI Type Descriptor'
	DD	00H
	DB	'.?AVlogic_error@std@@', 00H
_DATA	ENDS
;	COMDAT __CT??_R0?AVexception@@@8??0exception@@QAE@ABV0@@Z12
xdata$x	SEGMENT
__CT??_R0?AVexception@@@8??0exception@@QAE@ABV0@@Z12 DD 00H
	DD	FLAT:??_R0?AVexception@@@8
	DD	00H
	DD	0ffffffffH
	ORG $+4
	DD	0cH
	DD	FLAT:??0exception@@QAE@ABV0@@Z
xdata$x	ENDS
;	COMDAT ??_R0?AVexception@@@8
_DATA	SEGMENT
??_R0?AVexception@@@8 DD FLAT:??_7type_info@@6B@	; exception `RTTI Type Descriptor'
	DD	00H
	DB	'.?AVexception@@', 00H
; Function compile flags: /Ogty
; File c:\program files\microsoft visual studio .net 2003\vc7\include\deque
_DATA	ENDS
;	COMDAT ?_Xlen@?$deque@UAIMSG@@V?$allocator@UAIMSG@@@std@@@std@@IBEXXZ
_TEXT	SEGMENT
$T260384 = -80						; size = 28
$T260383 = -52						; size = 40
__$EHRec$ = -12						; size = 12
?_Xlen@?$deque@UAIMSG@@V?$allocator@UAIMSG@@@std@@@std@@IBEXXZ PROC NEAR ; std::deque<AIMSG,std::allocator<AIMSG> >::_Xlen, COMDAT
; _this$ = ecx

; 897  : 		{	// report length error

  00000	6a ff		 push	 -1
  00002	68 00 00 00 00	 push	 __ehhandler$?_Xlen@?$deque@UAIMSG@@V?$allocator@UAIMSG@@@std@@@std@@IBEXXZ
  00007	64 a1 00 00 00
	00		 mov	 eax, DWORD PTR fs:__except_list
  0000d	50		 push	 eax
  0000e	64 89 25 00 00
	00 00		 mov	 DWORD PTR fs:__except_list, esp
  00015	83 ec 44	 sub	 esp, 68			; 00000044H

; 898  : 		_THROW(length_error, "deque<T> too long");

  00018	6a 11		 push	 17			; 00000011H
  0001a	68 00 00 00 00	 push	 OFFSET FLAT:??_C@_0BC@KBDMBKEH@deque?$DMT?$DO?5too?5long?$AA@
  0001f	8d 4c 24 08	 lea	 ecx, DWORD PTR $T260384[esp+88]
  00023	c7 44 24 20 0f
	00 00 00	 mov	 DWORD PTR $T260384[esp+112], 15 ; 0000000fH
  0002b	c7 44 24 1c 00
	00 00 00	 mov	 DWORD PTR $T260384[esp+108], 0
  00033	c6 44 24 0c 00	 mov	 BYTE PTR $T260384[esp+92], 0
  00038	e8 00 00 00 00	 call	 ?assign@?$basic_string@DU?$char_traits@D@std@@V?$allocator@D@2@@std@@QAEAAV12@PBDI@Z ; std::basic_string<char,std::char_traits<char>,std::allocator<char> >::assign
  0003d	8d 04 24	 lea	 eax, DWORD PTR $T260384[esp+80]
  00040	50		 push	 eax
  00041	8d 4c 24 20	 lea	 ecx, DWORD PTR $T260383[esp+84]
  00045	c7 44 24 50 00
	00 00 00	 mov	 DWORD PTR __$EHRec$[esp+92], 0
  0004d	e8 00 00 00 00	 call	 ??0logic_error@std@@QAE@ABV?$basic_string@DU?$char_traits@D@std@@V?$allocator@D@2@@1@@Z ; std::logic_error::logic_error
  00052	68 00 00 00 00	 push	 OFFSET FLAT:__TI3?AVlength_error@std@@
  00057	8d 4c 24 20	 lea	 ecx, DWORD PTR $T260383[esp+84]
  0005b	51		 push	 ecx
  0005c	c7 44 24 24 00
	00 00 00	 mov	 DWORD PTR $T260383[esp+88], OFFSET FLAT:??_7length_error@std@@6B@
  00064	e8 00 00 00 00	 call	 __CxxThrowException@8
$L260501:
$L260499:
  00069	cc		 int	 3
_TEXT	ENDS
;	COMDAT text$x
text$x	SEGMENT
$L260385:
  00000	8d 4d b0	 lea	 ecx, DWORD PTR $T260384[ebp]
  00003	e9 00 00 00 00	 jmp	 ??1?$basic_string@DU?$char_traits@D@std@@V?$allocator@D@2@@std@@QAE@XZ ; std::basic_string<char,std::char_traits<char>,std::allocator<char> >::~basic_string<char,std::char_traits<char>,std::allocator<char> >
__ehhandler$?_Xlen@?$deque@UAIMSG@@V?$allocator@UAIMSG@@@std@@@std@@IBEXXZ:
  00008	b8 00 00 00 00	 mov	 eax, OFFSET FLAT:$T260497
  0000d	e9 00 00 00 00	 jmp	 ___CxxFrameHandler
text$x	ENDS
?_Xlen@?$deque@UAIMSG@@V?$allocator@UAIMSG@@@std@@@std@@IBEXXZ ENDP ; std::deque<AIMSG,std::allocator<AIMSG> >::_Xlen
;	COMDAT xdata$x
xdata$x	SEGMENT
$T260607 DD	0ffffffffH
	DD	FLAT:$L260507
$T260605 DD	019930520H
	DD	01H
	DD	FLAT:$T260607
	DD	2 DUP(00H)
	DD	2 DUP(00H)
; Function compile flags: /Ogty
xdata$x	ENDS
;	COMDAT ??0logic_error@std@@QAE@ABV01@@Z
_TEXT	SEGMENT
_this$ = -16						; size = 4
__$EHRec$ = -12						; size = 12
___that$ = 8						; size = 4
??0logic_error@std@@QAE@ABV01@@Z PROC NEAR		; std::logic_error::logic_error, COMDAT
; _this$ = ecx
  00000	6a ff		 push	 -1
  00002	68 00 00 00 00	 push	 __ehhandler$??0logic_error@std@@QAE@ABV01@@Z
  00007	64 a1 00 00 00
	00		 mov	 eax, DWORD PTR fs:__except_list
  0000d	50		 push	 eax
  0000e	64 89 25 00 00
	00 00		 mov	 DWORD PTR fs:__except_list, esp
  00015	51		 push	 ecx
  00016	56		 push	 esi
  00017	57		 push	 edi
  00018	8b 7c 24 1c	 mov	 edi, DWORD PTR ___that$[esp+20]
  0001c	8b f1		 mov	 esi, ecx
  0001e	57		 push	 edi
  0001f	89 74 24 0c	 mov	 DWORD PTR _this$[esp+28], esi
  00023	e8 00 00 00 00	 call	 ??0exception@@QAE@ABV0@@Z ; exception::exception
  00028	33 c0		 xor	 eax, eax
  0002a	6a ff		 push	 -1
  0002c	8d 4e 0c	 lea	 ecx, DWORD PTR [esi+12]
  0002f	c7 06 00 00 00
	00		 mov	 DWORD PTR [esi], OFFSET FLAT:??_7logic_error@std@@6B@
  00035	50		 push	 eax
  00036	83 c7 0c	 add	 edi, 12			; 0000000cH
  00039	c7 41 18 0f 00
	00 00		 mov	 DWORD PTR [ecx+24], 15	; 0000000fH
  00040	89 41 14	 mov	 DWORD PTR [ecx+20], eax
  00043	57		 push	 edi
  00044	89 44 24 20	 mov	 DWORD PTR __$EHRec$[esp+44], eax
  00048	88 41 04	 mov	 BYTE PTR [ecx+4], al
  0004b	e8 00 00 00 00	 call	 ?assign@?$basic_string@DU?$char_traits@D@std@@V?$allocator@D@2@@std@@QAEAAV12@ABV12@II@Z ; std::basic_string<char,std::char_traits<char>,std::allocator<char> >::assign
  00050	8b 4c 24 0c	 mov	 ecx, DWORD PTR __$EHRec$[esp+24]
  00054	5f		 pop	 edi
  00055	8b c6		 mov	 eax, esi
  00057	5e		 pop	 esi
  00058	64 89 0d 00 00
	00 00		 mov	 DWORD PTR fs:__except_list, ecx
  0005f	83 c4 10	 add	 esp, 16			; 00000010H
  00062	c2 04 00	 ret	 4
_TEXT	ENDS
;	COMDAT text$x
text$x	SEGMENT
$L260507:
  00000	8b 4d f0	 mov	 ecx, DWORD PTR _this$[ebp]
  00003	e9 00 00 00 00	 jmp	 ??1exception@@UAE@XZ	; exception::~exception
__ehhandler$??0logic_error@std@@QAE@ABV01@@Z:
  00008	b8 00 00 00 00	 mov	 eax, OFFSET FLAT:$T260605
  0000d	e9 00 00 00 00	 jmp	 ___CxxFrameHandler
text$x	ENDS
??0logic_error@std@@QAE@ABV01@@Z ENDP			; std::logic_error::logic_error
; Function compile flags: /Ogty
;	COMDAT ??0length_error@std@@QAE@ABV01@@Z
_TEXT	SEGMENT
___that$ = 8						; size = 4
??0length_error@std@@QAE@ABV01@@Z PROC NEAR		; std::length_error::length_error, COMDAT
; _this$ = ecx
  00000	8b 44 24 04	 mov	 eax, DWORD PTR ___that$[esp-4]
  00004	56		 push	 esi
  00005	50		 push	 eax
  00006	8b f1		 mov	 esi, ecx
  00008	e8 00 00 00 00	 call	 ??0logic_error@std@@QAE@ABV01@@Z
  0000d	c7 06 00 00 00
	00		 mov	 DWORD PTR [esi], OFFSET FLAT:??_7length_error@std@@6B@
  00013	8b c6		 mov	 eax, esi
  00015	5e		 pop	 esi
  00016	c2 04 00	 ret	 4
??0length_error@std@@QAE@ABV01@@Z ENDP			; std::length_error::length_error
_TEXT	ENDS
PUBLIC	?_Growmap@?$deque@UAIMSG@@V?$allocator@UAIMSG@@@std@@@std@@IAEXI@Z ; std::deque<AIMSG,std::allocator<AIMSG> >::_Growmap
; Function compile flags: /Ogty
;	COMDAT ?_Growmap@?$deque@UAIMSG@@V?$allocator@UAIMSG@@@std@@@std@@IAEXI@Z
_TEXT	SEGMENT
$T260681 = -12						; size = 4
tv353 = -8						; size = 4
tv346 = -8						; size = 4
__Myboff$ = -4						; size = 4
__Newmap$ = 8						; size = 4
__Count$ = 8						; size = 4
?_Growmap@?$deque@UAIMSG@@V?$allocator@UAIMSG@@@std@@@std@@IAEXI@Z PROC NEAR ; std::deque<AIMSG,std::allocator<AIMSG> >::_Growmap, COMDAT
; _this$ = ecx

; 907  : 		{	// grow map by _Count pointers

  00000	83 ec 0c	 sub	 esp, 12			; 0000000cH
  00003	53		 push	 ebx
  00004	8b d9		 mov	 ebx, ecx

; 908  : 		if (max_size() / _DEQUESIZ - _Mapsize < _Count)

  00006	8b 43 08	 mov	 eax, DWORD PTR [ebx+8]
  00009	b9 ff ff ff 0f	 mov	 ecx, 268435455		; 0fffffffH
  0000e	55		 push	 ebp
  0000f	8b 6c 24 18	 mov	 ebp, DWORD PTR __Count$[esp+16]
  00013	2b c8		 sub	 ecx, eax
  00015	3b cd		 cmp	 ecx, ebp
  00017	73 07		 jae	 SHORT $L253801

; 909  : 			_Xlen();	// result too long

  00019	8b cb		 mov	 ecx, ebx
  0001b	e8 00 00 00 00	 call	 ?_Xlen@?$deque@UAIMSG@@V?$allocator@UAIMSG@@@std@@@std@@IBEXXZ ; std::deque<AIMSG,std::allocator<AIMSG> >::_Xlen
$L260865:
$L253801:

; 910  : 
; 911  : 		size_type _Inc = _Mapsize / 2;	// try to grow by 50%

  00020	8b c8		 mov	 ecx, eax
  00022	d1 e9		 shr	 ecx, 1

; 912  : 		if (_Inc < _DEQUEMAPSIZ)

  00024	83 f9 08	 cmp	 ecx, 8
  00027	73 05		 jae	 SHORT $L253803

; 913  : 			_Inc = _DEQUEMAPSIZ;

  00029	b9 08 00 00 00	 mov	 ecx, 8
$L253803:

; 914  : 		if (_Count < _Inc && _Mapsize <= max_size() / _DEQUESIZ - _Inc)

  0002e	3b e9		 cmp	 ebp, ecx
  00030	73 0d		 jae	 SHORT $L253804
  00032	ba ff ff ff 0f	 mov	 edx, 268435455		; 0fffffffH
  00037	2b d1		 sub	 edx, ecx
  00039	3b c2		 cmp	 eax, edx
  0003b	77 02		 ja	 SHORT $L253804

; 915  : 			_Count = _Inc;

  0003d	8b e9		 mov	 ebp, ecx
$L253804:
  0003f	56		 push	 esi

; 916  : 		size_type _Myboff = _Myoff / _DEQUESIZ;
; 917  : 		_Mapptr _Newmap = this->_Almap.allocate(_Mapsize + _Count);

  00040	03 c5		 add	 eax, ebp
  00042	57		 push	 edi
  00043	8b 7b 0c	 mov	 edi, DWORD PTR [ebx+12]
  00046	c1 e0 02	 shl	 eax, 2
  00049	50		 push	 eax
  0004a	89 7c 24 1c	 mov	 DWORD PTR __Myboff$[esp+32], edi
  0004e	e8 00 00 00 00	 call	 ??2@YAPAXI@Z		; operator new

; 918  : 		_Mapptr _Myptr = _Newmap + _Myboff;
; 919  : 
; 920  : 		_Myptr = _Uninitialized_copy(_Map + _Myboff,
; 921  : 			_Map + _Mapsize, _Myptr, this->_Almap);	// copy initial to end

  00053	8b 4b 04	 mov	 ecx, DWORD PTR [ebx+4]
  00056	8b d0		 mov	 edx, eax
  00058	8d 34 bd 00 00
	00 00		 lea	 esi, DWORD PTR [edi*4]
  0005f	8d 04 0e	 lea	 eax, DWORD PTR [esi+ecx]
  00062	89 44 24 14	 mov	 DWORD PTR $T260681[esp+32], eax
  00066	8b 43 08	 mov	 eax, DWORD PTR [ebx+8]
  00069	c1 e0 02	 shl	 eax, 2
  0006c	2b 44 24 14	 sub	 eax, DWORD PTR $T260681[esp+32]
  00070	89 54 24 24	 mov	 DWORD PTR __Newmap$[esp+28], edx
  00074	03 c1		 add	 eax, ecx
  00076	8b 4c 24 14	 mov	 ecx, DWORD PTR $T260681[esp+32]
  0007a	c1 f8 02	 sar	 eax, 2
  0007d	c1 e0 02	 shl	 eax, 2
  00080	50		 push	 eax
  00081	51		 push	 ecx
  00082	03 d6		 add	 edx, esi
  00084	52		 push	 edx
  00085	89 44 24 24	 mov	 DWORD PTR tv346[esp+44], eax
  00089	e8 00 00 00 00	 call	 _memmove
  0008e	8b 54 24 24	 mov	 edx, DWORD PTR tv346[esp+44]

; 922  : 		if (_Myboff <= _Count)
; 923  : 			{	// increment greater than offset of initial block
; 924  : 			_Myptr = _Uninitialized_copy(_Map,
; 925  : 				_Map + _Myboff, _Myptr, this->_Almap);	// copy rest of old

  00092	8b 4b 04	 mov	 ecx, DWORD PTR [ebx+4]
  00095	83 c4 10	 add	 esp, 16			; 00000010H
  00098	03 c2		 add	 eax, edx
  0009a	3b fd		 cmp	 edi, ebp
  0009c	77 3f		 ja	 SHORT $L253817
  0009e	c1 fe 02	 sar	 esi, 2
  000a1	8b d6		 mov	 edx, esi
  000a3	c1 e2 02	 shl	 edx, 2
  000a6	52		 push	 edx
  000a7	51		 push	 ecx

; 926  : 			_Uninitialized_fill_n(_Myptr, _Count - _Myboff,
; 927  : 				(_Tptr)0, this->_Almap);	// clear suffix of new

  000a8	8b f5		 mov	 esi, ebp
  000aa	50		 push	 eax
  000ab	2b f7		 sub	 esi, edi
  000ad	89 54 24 20	 mov	 DWORD PTR tv353[esp+40], edx
  000b1	e8 00 00 00 00	 call	 _memmove
  000b6	8b 4c 24 20	 mov	 ecx, DWORD PTR tv353[esp+40]
  000ba	8b d0		 mov	 edx, eax
  000bc	83 c4 0c	 add	 esp, 12			; 0000000cH
  000bf	03 d1		 add	 edx, ecx
  000c1	85 f6		 test	 esi, esi
  000c3	76 0c		 jbe	 SHORT $L260733
  000c5	8b ce		 mov	 ecx, esi
  000c7	33 c0		 xor	 eax, eax
  000c9	8b fa		 mov	 edi, edx
  000cb	f3 ab		 rep stosd
  000cd	8b 7c 24 18	 mov	 edi, DWORD PTR __Myboff$[esp+28]
$L260733:

; 928  : 			_Uninitialized_fill_n(_Newmap, _Myboff,
; 929  : 				(_Tptr)0, this->_Almap);	// clear prefix of new

  000d1	85 ff		 test	 edi, edi
  000d3	76 4c		 jbe	 SHORT $L260862
  000d5	8b cf		 mov	 ecx, edi
  000d7	8b 7c 24 20	 mov	 edi, DWORD PTR __Newmap$[esp+24]

; 930  : 			}
; 931  : 		else

  000db	eb 40		 jmp	 SHORT $L260864
$L253817:

; 932  : 			{	// increment not greater than offset of initial block
; 933  : 			_Uninitialized_copy(_Map,
; 934  : 				_Map + _Count, _Myptr, this->_Almap);	// copy more old

  000dd	8d 3c ad 00 00
	00 00		 lea	 edi, DWORD PTR [ebp*4]
  000e4	8b d7		 mov	 edx, edi
  000e6	c1 fa 02	 sar	 edx, 2
  000e9	c1 e2 02	 shl	 edx, 2
  000ec	52		 push	 edx
  000ed	51		 push	 ecx
  000ee	50		 push	 eax
  000ef	e8 00 00 00 00	 call	 _memmove

; 935  : 			_Myptr = _Uninitialized_copy(_Map + _Count,
; 936  : 				_Map + _Myboff, _Newmap, this->_Almap);	// copy rest of old

  000f4	8b 43 04	 mov	 eax, DWORD PTR [ebx+4]
  000f7	8d 0c 07	 lea	 ecx, DWORD PTR [edi+eax]
  000fa	2b f1		 sub	 esi, ecx
  000fc	03 f0		 add	 esi, eax
  000fe	8b 44 24 2c	 mov	 eax, DWORD PTR __Newmap$[esp+36]
  00102	c1 fe 02	 sar	 esi, 2
  00105	c1 e6 02	 shl	 esi, 2
  00108	56		 push	 esi
  00109	51		 push	 ecx
  0010a	50		 push	 eax
  0010b	e8 00 00 00 00	 call	 _memmove
  00110	8b f8		 mov	 edi, eax
  00112	83 c4 18	 add	 esp, 24			; 00000018H
  00115	03 fe		 add	 edi, esi

; 937  : 			_Uninitialized_fill_n(_Myptr, _Count,
; 938  : 				(_Tptr)0, this->_Almap);	// clear rest to initial block

  00117	85 ed		 test	 ebp, ebp
  00119	76 06		 jbe	 SHORT $L260862

; 932  : 			{	// increment not greater than offset of initial block
; 933  : 			_Uninitialized_copy(_Map,
; 934  : 				_Map + _Count, _Myptr, this->_Almap);	// copy more old

  0011b	8b cd		 mov	 ecx, ebp
$L260864:
  0011d	33 c0		 xor	 eax, eax
  0011f	f3 ab		 rep stosd
$L260862:

; 939  : 			}
; 940  : 
; 941  : 		_Destroy_range(_Map + _Myboff, _Map + _Mapsize, this->_Almap);
; 942  : 		if (_Map)

  00121	8b 43 04	 mov	 eax, DWORD PTR [ebx+4]
  00124	85 c0		 test	 eax, eax
  00126	5f		 pop	 edi
  00127	5e		 pop	 esi
  00128	74 09		 je	 SHORT $L260852

; 943  : 			this->_Almap.deallocate(_Map, _Mapsize);	// free storage for old

  0012a	50		 push	 eax
  0012b	e8 00 00 00 00	 call	 ??3@YAXPAX@Z		; operator delete
  00130	83 c4 04	 add	 esp, 4
$L260852:

; 944  : 
; 945  : 		_Map = _Newmap;	// point at new
; 946  : 		_Mapsize += _Count;

  00133	8b 43 08	 mov	 eax, DWORD PTR [ebx+8]
  00136	8b 4c 24 18	 mov	 ecx, DWORD PTR __Newmap$[esp+16]
  0013a	03 c5		 add	 eax, ebp
  0013c	5d		 pop	 ebp
  0013d	89 4b 04	 mov	 DWORD PTR [ebx+4], ecx
  00140	89 43 08	 mov	 DWORD PTR [ebx+8], eax
  00143	5b		 pop	 ebx

; 947  : 		}

  00144	83 c4 0c	 add	 esp, 12			; 0000000cH
  00147	c2 04 00	 ret	 4
$L260863:
?_Growmap@?$deque@UAIMSG@@V?$allocator@UAIMSG@@@std@@@std@@IAEXI@Z ENDP ; std::deque<AIMSG,std::allocator<AIMSG> >::_Growmap
_TEXT	ENDS
PUBLIC	?push_back@?$deque@UAIMSG@@V?$allocator@UAIMSG@@@std@@@std@@QAEXABUAIMSG@@@Z ; std::deque<AIMSG,std::allocator<AIMSG> >::push_back
; Function compile flags: /Ogty
;	COMDAT ?push_back@?$deque@UAIMSG@@V?$allocator@UAIMSG@@@std@@@std@@QAEXABUAIMSG@@@Z
_TEXT	SEGMENT
__Val$ = 8						; size = 4
?push_back@?$deque@UAIMSG@@V?$allocator@UAIMSG@@@std@@@std@@QAEXABUAIMSG@@@Z PROC NEAR ; std::deque<AIMSG,std::allocator<AIMSG> >::push_back, COMDAT
; _this$ = ecx

; 583  : 		{	// insert element at end

  00000	56		 push	 esi
  00001	8b f1		 mov	 esi, ecx

; 584  : 		if ((_Myoff + _Mysize) % _DEQUESIZ == 0
; 585  : 			&& _Mapsize <= (_Mysize + _DEQUESIZ) / _DEQUESIZ)

  00003	8b 46 10	 mov	 eax, DWORD PTR [esi+16]
  00006	8b 4e 08	 mov	 ecx, DWORD PTR [esi+8]
  00009	40		 inc	 eax
  0000a	3b c8		 cmp	 ecx, eax
  0000c	57		 push	 edi
  0000d	77 09		 ja	 SHORT $L253428

; 586  : 			_Growmap(1);

  0000f	6a 01		 push	 1
  00011	8b ce		 mov	 ecx, esi
  00013	e8 00 00 00 00	 call	 ?_Growmap@?$deque@UAIMSG@@V?$allocator@UAIMSG@@@std@@@std@@IAEXI@Z ; std::deque<AIMSG,std::allocator<AIMSG> >::_Growmap
$L253428:

; 587  : 		size_type _Newoff = _Myoff + _Mysize;

  00018	8b 7e 0c	 mov	 edi, DWORD PTR [esi+12]
  0001b	8b 56 10	 mov	 edx, DWORD PTR [esi+16]

; 588  : 		size_type _Block = _Newoff / _DEQUESIZ;
; 589  : 		if (_Mapsize <= _Block)

  0001e	8b 46 08	 mov	 eax, DWORD PTR [esi+8]
  00021	03 fa		 add	 edi, edx
  00023	3b c7		 cmp	 eax, edi
  00025	77 02		 ja	 SHORT $L253431

; 590  : 			_Block -= _Mapsize;

  00027	2b f8		 sub	 edi, eax
$L253431:

; 591  : 		if (_Map[_Block] == 0)

  00029	8b 4e 04	 mov	 ecx, DWORD PTR [esi+4]
  0002c	83 3c b9 00	 cmp	 DWORD PTR [ecx+edi*4], 0
  00030	75 10		 jne	 SHORT $L253432

; 592  : 			_Map[_Block] = this->_Alval.allocate(_DEQUESIZ);

  00032	6a 10		 push	 16			; 00000010H
  00034	e8 00 00 00 00	 call	 ??2@YAPAXI@Z		; operator new
  00039	8b 56 04	 mov	 edx, DWORD PTR [esi+4]
  0003c	83 c4 04	 add	 esp, 4
  0003f	89 04 ba	 mov	 DWORD PTR [edx+edi*4], eax
$L253432:

; 593  : 		this->_Alval.construct(_Map[_Block] + _Newoff % _DEQUESIZ, _Val);

  00042	8b 46 04	 mov	 eax, DWORD PTR [esi+4]
  00045	8b 3c b8	 mov	 edi, DWORD PTR [eax+edi*4]
  00048	85 ff		 test	 edi, edi
  0004a	74 1a		 je	 SHORT $L260903
  0004c	8b 4c 24 0c	 mov	 ecx, DWORD PTR __Val$[esp+4]
  00050	8b 11		 mov	 edx, DWORD PTR [ecx]
  00052	89 17		 mov	 DWORD PTR [edi], edx
  00054	8b 41 04	 mov	 eax, DWORD PTR [ecx+4]
  00057	89 47 04	 mov	 DWORD PTR [edi+4], eax
  0005a	8b 51 08	 mov	 edx, DWORD PTR [ecx+8]
  0005d	89 57 08	 mov	 DWORD PTR [edi+8], edx
  00060	8b 41 0c	 mov	 eax, DWORD PTR [ecx+12]
  00063	89 47 0c	 mov	 DWORD PTR [edi+12], eax
$L260903:

; 594  : 		++_Mysize;

  00066	8b 46 10	 mov	 eax, DWORD PTR [esi+16]
  00069	40		 inc	 eax
  0006a	5f		 pop	 edi
  0006b	89 46 10	 mov	 DWORD PTR [esi+16], eax
  0006e	5e		 pop	 esi

; 595  : 		}

  0006f	c2 04 00	 ret	 4
?push_back@?$deque@UAIMSG@@V?$allocator@UAIMSG@@@std@@@std@@QAEXABUAIMSG@@@Z ENDP ; std::deque<AIMSG,std::allocator<AIMSG> >::push_back
_TEXT	ENDS
PUBLIC	?push@?$queue@UAIMSG@@V?$deque@UAIMSG@@V?$allocator@UAIMSG@@@std@@@std@@@std@@QAEXABUAIMSG@@@Z ; std::queue<AIMSG,std::deque<AIMSG,std::allocator<AIMSG> > >::push
; Function compile flags: /Ogty
; File c:\program files\microsoft visual studio .net 2003\vc7\include\queue
;	COMDAT ?push@?$queue@UAIMSG@@V?$deque@UAIMSG@@V?$allocator@UAIMSG@@@std@@@std@@@std@@QAEXABUAIMSG@@@Z
_TEXT	SEGMENT
__Val$ = 8						; size = 4
?push@?$queue@UAIMSG@@V?$deque@UAIMSG@@V?$allocator@UAIMSG@@@std@@@std@@@std@@QAEXABUAIMSG@@@Z PROC NEAR ; std::queue<AIMSG,std::deque<AIMSG,std::allocator<AIMSG> > >::push, COMDAT
; _this$ = ecx

; 66   : 		c.push_back(_Val);

  00000	e9 00 00 00 00	 jmp	 ?push_back@?$deque@UAIMSG@@V?$allocator@UAIMSG@@@std@@@std@@QAEXABUAIMSG@@@Z ; std::deque<AIMSG,std::allocator<AIMSG> >::push_back
?push@?$queue@UAIMSG@@V?$deque@UAIMSG@@V?$allocator@UAIMSG@@@std@@@std@@@std@@QAEXABUAIMSG@@@Z ENDP ; std::queue<AIMSG,std::deque<AIMSG,std::allocator<AIMSG> > >::push
; Function compile flags: /Ogty
; File c:\documents and settings\test\mes documents\source\virtuos_v17\build\program\_aiinterface\aiinterface.cpp
_TEXT	ENDS
;	COMDAT ?PostAIMsg@CAIInterface@@UAEXKKKK@Z
_TEXT	SEGMENT
_msg$251843 = -16					; size = 16
_dwMessage$ = 8						; size = 4
_dwParam1$ = 12						; size = 4
_dwParam2$ = 16						; size = 4
_dwParam3$ = 20						; size = 4
?PostAIMsg@CAIInterface@@UAEXKKKK@Z PROC NEAR		; CAIInterface::PostAIMsg, COMDAT
; _this$ = ecx

; 119  : #if __VER >= 9	//__AI_0509
; 120  : 	switch( dwMessage )

  00000	8b 44 24 04	 mov	 eax, DWORD PTR _dwMessage$[esp-4]
  00004	83 ec 10	 sub	 esp, 16			; 00000010H
  00007	83 f8 0b	 cmp	 eax, 11			; 0000000bH
  0000a	74 1d		 je	 SHORT $L251842

; 132  : 				break;
; 133  : 			}
; 134  : #ifdef __INSTANCE_AGGRO_SYSTEM
; 135  : 		default:	SendAIMsg( dwMessage, dwParam1, dwParam2, dwParam3 );	break;

  0000c	8b 11		 mov	 edx, DWORD PTR [ecx]
  0000e	56		 push	 esi
  0000f	8b 74 24 24	 mov	 esi, DWORD PTR _dwParam3$[esp+16]
  00013	56		 push	 esi
  00014	8b 74 24 24	 mov	 esi, DWORD PTR _dwParam2$[esp+20]
  00018	56		 push	 esi
  00019	8b 74 24 24	 mov	 esi, DWORD PTR _dwParam1$[esp+24]
  0001d	56		 push	 esi
  0001e	50		 push	 eax
  0001f	ff 52 0c	 call	 DWORD PTR [edx+12]
  00022	5e		 pop	 esi

; 136  : #else // __INSTANCE_AGGRO_SYSTEM
; 137  : 		default:	SendAIMsg( dwMessage, dwParam1, dwParam2 );	break;
; 138  : #endif // __INSTANCE_AGGRO_SYSTEM
; 139  : 	}
; 140  : #else	// __AI_0509
; 141  : 	AIMSG msg;
; 142  : 	msg.dwMessage	= dwMessage;
; 143  : 	msg.dwParam1	= dwParam1;
; 144  : 	msg.dwParam2	= dwParam2;
; 145  : 	m_MsgQueue.push( msg );
; 146  : #endif	// __AI_0509
; 147  : }

  00023	83 c4 10	 add	 esp, 16			; 00000010H
  00026	c2 10 00	 ret	 16			; 00000010H
$L251842:

; 121  : 	{
; 122  : 		case AIMSG_ARRIVAL:
; 123  : 			{
; 124  : 				AIMSG msg;
; 125  : 				msg.dwMessage	= dwMessage;
; 126  : 				msg.dwParam1	= dwParam1;
; 127  : 				msg.dwParam2	= dwParam2;

  00029	8b 54 24 1c	 mov	 edx, DWORD PTR _dwParam2$[esp+12]
  0002d	8b 44 24 18	 mov	 eax, DWORD PTR _dwParam1$[esp+12]
  00031	89 54 24 08	 mov	 DWORD PTR _msg$251843[esp+24], edx
  00035	89 44 24 04	 mov	 DWORD PTR _msg$251843[esp+20], eax

; 128  : #ifdef __INSTANCE_AGGRO_SYSTEM
; 129  : 				msg.dwParam3	= dwParam3;

  00039	8b 44 24 20	 mov	 eax, DWORD PTR _dwParam3$[esp+12]

; 130  : #endif // __INSTANCE_AGGRO_SYSTEM
; 131  : 				m_MsgQueue.push( msg );

  0003d	8d 14 24	 lea	 edx, DWORD PTR _msg$251843[esp+16]
  00040	52		 push	 edx
  00041	83 c1 08	 add	 ecx, 8
  00044	c7 44 24 04 0b
	00 00 00	 mov	 DWORD PTR _msg$251843[esp+20], 11 ; 0000000bH
  0004c	89 44 24 10	 mov	 DWORD PTR _msg$251843[esp+32], eax
  00050	e8 00 00 00 00	 call	 ?push_back@?$deque@UAIMSG@@V?$allocator@UAIMSG@@@std@@@std@@QAEXABUAIMSG@@@Z ; std::deque<AIMSG,std::allocator<AIMSG> >::push_back

; 136  : #else // __INSTANCE_AGGRO_SYSTEM
; 137  : 		default:	SendAIMsg( dwMessage, dwParam1, dwParam2 );	break;
; 138  : #endif // __INSTANCE_AGGRO_SYSTEM
; 139  : 	}
; 140  : #else	// __AI_0509
; 141  : 	AIMSG msg;
; 142  : 	msg.dwMessage	= dwMessage;
; 143  : 	msg.dwParam1	= dwParam1;
; 144  : 	msg.dwParam2	= dwParam2;
; 145  : 	m_MsgQueue.push( msg );
; 146  : #endif	// __AI_0509
; 147  : }

  00055	83 c4 10	 add	 esp, 16			; 00000010H
  00058	c2 10 00	 ret	 16			; 00000010H
?PostAIMsg@CAIInterface@@UAEXKKKK@Z ENDP		; CAIInterface::PostAIMsg
_TEXT	ENDS
CRT$XCU	SEGMENT
_$S2	DD	FLAT:_$E1
; Function compile flags: /Ogty
CRT$XCU	ENDS
;	COMDAT _$E1
text$yc	SEGMENT
_$E1	PROC NEAR					; COMDAT

; 16   : END_AISTATE_MAP()

  00000	56		 push	 esi
  00001	83 ce ff	 or	 esi, -1
  00004	33 c0		 xor	 eax, eax
  00006	33 c9		 xor	 ecx, ecx
  00008	33 d2		 xor	 edx, edx
  0000a	89 35 14 00 00
	00		 mov	 DWORD PTR ?stateMapEntries@CAIInterface@@2QBUSTATEMAP_ENTRIES@@B+20, esi
  00010	a3 08 00 00 00	 mov	 DWORD PTR ?stateMapEntries@CAIInterface@@2QBUSTATEMAP_ENTRIES@@B+8, eax
  00015	89 0d 0c 00 00
	00		 mov	 DWORD PTR ?stateMapEntries@CAIInterface@@2QBUSTATEMAP_ENTRIES@@B+12, ecx
  0001b	89 15 10 00 00
	00		 mov	 DWORD PTR ?stateMapEntries@CAIInterface@@2QBUSTATEMAP_ENTRIES@@B+16, edx
  00021	5e		 pop	 esi
  00022	c3		 ret	 0
_$E1	ENDP
text$yc	ENDS
PUBLIC	?stateMapEntries@CAIInterface@@2QBUSTATEMAP_ENTRIES@@B ; CAIInterface::stateMapEntries
_BSS	SEGMENT
?stateMapEntries@CAIInterface@@2QBUSTATEMAP_ENTRIES@@B DB 018H DUP (?) ; CAIInterface::stateMapEntries
_BSS	ENDS
END
