; Listing generated by Microsoft (R) Optimizing Compiler Version 13.10.6030 

	TITLE	\Documents and Settings\test\Mes documents\Source\Virtuos_v17\Build\Program\_AIInterface\AIPet.cpp
	.386P
include listing.inc
if @Version gt 510
.model FLAT
else
_TEXT	SEGMENT PARA USE32 PUBLIC 'CODE'
_TEXT	ENDS
_DATA	SEGMENT DWORD USE32 PUBLIC 'DATA'
_DATA	ENDS
CONST	SEGMENT DWORD USE32 PUBLIC 'CONST'
CONST	ENDS
_BSS	SEGMENT DWORD USE32 PUBLIC 'BSS'
_BSS	ENDS
$$SYMBOLS	SEGMENT BYTE USE32 'DEBSYM'
$$SYMBOLS	ENDS
$$TYPES	SEGMENT BYTE USE32 'DEBTYP'
$$TYPES	ENDS
_TLS	SEGMENT DWORD USE32 PUBLIC 'TLS'
_TLS	ENDS
text$yc	SEGMENT PARA USE32 PUBLIC 'CODE'
text$yc	ENDS
CRT$XCA	SEGMENT DWORD USE32 PUBLIC 'DATA'
CRT$XCA	ENDS
CRT$XCU	SEGMENT DWORD USE32 PUBLIC 'DATA'
CRT$XCU	ENDS
CRT$XCL	SEGMENT DWORD USE32 PUBLIC 'DATA'
CRT$XCL	ENDS
CRT$XCC	SEGMENT DWORD USE32 PUBLIC 'DATA'
CRT$XCC	ENDS
CRT$XCZ	SEGMENT DWORD USE32 PUBLIC 'DATA'
CRT$XCZ	ENDS
xdata$x	SEGMENT DWORD USE32 PUBLIC 'CONST'
xdata$x	ENDS
text$AFX_COL1	SEGMENT PARA USE32 PUBLIC ''
text$AFX_COL1	ENDS
;	COMDAT ?SetSkillId@CAIPet@@AAEXK@Z
_TEXT	SEGMENT PARA USE32 PUBLIC 'CODE'
_TEXT	ENDS
;	COMDAT ?GetSkillId@CAIPet@@AAEKXZ
_TEXT	SEGMENT PARA USE32 PUBLIC 'CODE'
_TEXT	ENDS
;	COMDAT ?SelectMemberClear@__GuildCombatMember@CGuildCombat@@QAEXXZ
_TEXT	SEGMENT PARA USE32 PUBLIC 'CODE'
_TEXT	ENDS
;	COMDAT ??0__MINIGAME_PACKET@@QAE@GHHH@Z
_TEXT	SEGMENT PARA USE32 PUBLIC 'CODE'
_TEXT	ENDS
;	COMDAT ?Serialize@__MINIGAME_PACKET@@UAEXAAVCAr@@@Z
_TEXT	SEGMENT PARA USE32 PUBLIC 'CODE'
_TEXT	ENDS
;	COMDAT ?Serialize@__MINIGAME_EXT_PACKET@@UAEXAAVCAr@@@Z
_TEXT	SEGMENT PARA USE32 PUBLIC 'CODE'
_TEXT	ENDS
;	COMDAT ??0MINIGMAME_PRIZE_LIST@CRainbowRaceMng@@QAE@KHK@Z
_TEXT	SEGMENT PARA USE32 PUBLIC 'CODE'
_TEXT	ENDS
;	COMDAT ?RemovePlayerId2CampusId@CCampusMng@@QAEXK@Z
_TEXT	SEGMENT PARA USE32 PUBLIC 'CODE'
_TEXT	ENDS
;	COMDAT ?GetPacketSize@CBuffer2@@UAEKPAE@Z
_TEXT	SEGMENT PARA USE32 PUBLIC 'CODE'
_TEXT	ENDS
;	COMDAT ?SetHeader@CBuffer2@@UAEXK@Z
_TEXT	SEGMENT PARA USE32 PUBLIC 'CODE'
_TEXT	ENDS
;	COMDAT ??_GCBuffer2@@UAEPAXI@Z
_TEXT	SEGMENT PARA USE32 PUBLIC 'CODE'
_TEXT	ENDS
;	COMDAT ??1CBuffer2@@UAE@XZ
_TEXT	SEGMENT PARA USE32 PUBLIC 'CODE'
_TEXT	ENDS
;	COMDAT ?IsEmpty@CBufferQueue@@QAEHXZ
_TEXT	SEGMENT PARA USE32 PUBLIC 'CODE'
_TEXT	ENDS
;	COMDAT ??1CMapChild@@UAE@XZ
_TEXT	SEGMENT PARA USE32 PUBLIC 'CODE'
_TEXT	ENDS
;	COMDAT ??_GCMapChild@@UAEPAXI@Z
_TEXT	SEGMENT PARA USE32 PUBLIC 'CODE'
_TEXT	ENDS
;	COMDAT ??1?$map@KPAVCClientSock@@U?$less@K@std@@V?$allocator@U?$pair@$$CBKPAVCClientSock@@@std@@@3@@std@@QAE@XZ
_TEXT	SEGMENT PARA USE32 PUBLIC 'CODE'
_TEXT	ENDS
;	COMDAT ??1CMapChildE@@UAE@XZ
_TEXT	SEGMENT PARA USE32 PUBLIC 'CODE'
_TEXT	ENDS
;	COMDAT ??_GCMapChildE@@UAEPAXI@Z
_TEXT	SEGMENT PARA USE32 PUBLIC 'CODE'
_TEXT	ENDS
;	COMDAT ??1?$map@KPAVCClientSockE@@U?$less@K@std@@V?$allocator@U?$pair@$$CBKPAVCClientSockE@@@std@@@3@@std@@QAE@XZ
_TEXT	SEGMENT PARA USE32 PUBLIC 'CODE'
_TEXT	ENDS
;	COMDAT ?GetRecvHandle@CDPSock@@QAEPAXXZ
_TEXT	SEGMENT PARA USE32 PUBLIC 'CODE'
_TEXT	ENDS
;	COMDAT ?GetStateMap@CAIPet@@UBEPBUSTATEMAP@@XZ
_TEXT	SEGMENT PARA USE32 PUBLIC 'CODE'
_TEXT	ENDS
;	COMDAT _$E1
text$yc	SEGMENT PARA USE32 PUBLIC 'CODE'
text$yc	ENDS
;	COMDAT ??0CAIPet@@QAE@XZ
_TEXT	SEGMENT PARA USE32 PUBLIC 'CODE'
_TEXT	ENDS
;	COMDAT ??_GCAIPet@@UAEPAXI@Z
_TEXT	SEGMENT PARA USE32 PUBLIC 'CODE'
_TEXT	ENDS
;	COMDAT ??0CAIPet@@QAE@PAVCObj@@@Z
_TEXT	SEGMENT PARA USE32 PUBLIC 'CODE'
_TEXT	ENDS
;	COMDAT ??1CAIPet@@UAE@XZ
_TEXT	SEGMENT PARA USE32 PUBLIC 'CODE'
_TEXT	ENDS
;	COMDAT ?Init@CAIPet@@AAEXXZ
_TEXT	SEGMENT PARA USE32 PUBLIC 'CODE'
_TEXT	ENDS
;	COMDAT ?Destroy@CAIPet@@AAEXXZ
_TEXT	SEGMENT PARA USE32 PUBLIC 'CODE'
_TEXT	ENDS
;	COMDAT ?InitAI@CAIPet@@UAEXXZ
_TEXT	SEGMENT PARA USE32 PUBLIC 'CODE'
_TEXT	ENDS
;	COMDAT ?MoveToDst@CAIPet@@AAEXUD3DXVECTOR3@@@Z
_TEXT	SEGMENT PARA USE32 PUBLIC 'CODE'
_TEXT	ENDS
;	COMDAT ?MoveToDst@CAIPet@@AAEXK@Z
_TEXT	SEGMENT PARA USE32 PUBLIC 'CODE'
_TEXT	ENDS
;	COMDAT ?SubItemLoot@CAIPet@@QAEHXZ
_TEXT	SEGMENT PARA USE32 PUBLIC 'CODE'
_TEXT	ENDS
;	COMDAT ?StateInit@CAIPet@@QAEHABUAIMSG@@@Z
_TEXT	SEGMENT PARA USE32 PUBLIC 'CODE'
_TEXT	ENDS
;	COMDAT ?MoveProcessIdle@CAIPet@@AAEHABUAIMSG@@@Z
_TEXT	SEGMENT PARA USE32 PUBLIC 'CODE'
_TEXT	ENDS
;	COMDAT ?StateIdle@CAIPet@@QAEHABUAIMSG@@@Z
_TEXT	SEGMENT PARA USE32 PUBLIC 'CODE'
_TEXT	ENDS
;	COMDAT ?MoveProcessRage@CAIPet@@AAEHABUAIMSG@@@Z
_TEXT	SEGMENT PARA USE32 PUBLIC 'CODE'
_TEXT	ENDS
;	COMDAT ?StateRage@CAIPet@@QAEHABUAIMSG@@@Z
_TEXT	SEGMENT PARA USE32 PUBLIC 'CODE'
_TEXT	ENDS
;	COMDAT ?NotOwnedPetInactivated@CAIPet@@AAEHXZ
_TEXT	SEGMENT PARA USE32 PUBLIC 'CODE'
_TEXT	ENDS
;	COMDAT ?SetItem@CAIPet@@QAEXPAVCMover@@PAVCItemElem@@@Z
_TEXT	SEGMENT PARA USE32 PUBLIC 'CODE'
_TEXT	ENDS
;	COMDAT ?SetSkill@CAIPet@@AAEXPAVCMover@@PAUItemProp@@@Z
_TEXT	SEGMENT PARA USE32 PUBLIC 'CODE'
_TEXT	ENDS
;	COMDAT ?ResetItem@CAIPet@@QAEXXZ
_TEXT	SEGMENT PARA USE32 PUBLIC 'CODE'
_TEXT	ENDS
;	COMDAT ?ResetSkill@CAIPet@@AAEXPAVCMover@@@Z
_TEXT	SEGMENT PARA USE32 PUBLIC 'CODE'
_TEXT	ENDS
;	COMDAT ?compare@?$basic_string@DU?$char_traits@D@std@@V?$allocator@D@2@@std@@QBEHABV12@@Z
_TEXT	SEGMENT PARA USE32 PUBLIC 'CODE'
_TEXT	ENDS
;	COMDAT ?IsFull@?$CStack@K@@QAEHXZ
_TEXT	SEGMENT PARA USE32 PUBLIC 'CODE'
_TEXT	ENDS
;	COMDAT ??A?$map@KPAVCCtrl@@U?$less@K@std@@V?$allocator@U?$pair@$$CBKPAVCCtrl@@@std@@@3@@std@@QAEAAPAVCCtrl@@ABK@Z
_TEXT	SEGMENT PARA USE32 PUBLIC 'CODE'
_TEXT	ENDS
;	COMDAT ??0?$pair@KPAVCCtrl@@@std@@QAE@ABKABQAVCCtrl@@@Z
_TEXT	SEGMENT PARA USE32 PUBLIC 'CODE'
_TEXT	ENDS
;	COMDAT ?GetMax@?$CItemContainer@VCItemElem@@@@QAEHXZ
_TEXT	SEGMENT PARA USE32 PUBLIC 'CODE'
_TEXT	ENDS
;	COMDAT ??0?$deque@PAUtagACTMSG@@V?$allocator@PAUtagACTMSG@@@std@@@std@@QAE@XZ
_TEXT	SEGMENT PARA USE32 PUBLIC 'CODE'
_TEXT	ENDS
;	COMDAT ??1?$deque@PAUtagACTMSG@@V?$allocator@PAUtagACTMSG@@@std@@@std@@QAE@XZ
_TEXT	SEGMENT PARA USE32 PUBLIC 'CODE'
_TEXT	ENDS
;	COMDAT ?begin@?$deque@PAUtagACTMSG@@V?$allocator@PAUtagACTMSG@@@std@@@std@@QAE?AViterator@12@XZ
_TEXT	SEGMENT PARA USE32 PUBLIC 'CODE'
_TEXT	ENDS
;	COMDAT ?end@?$deque@PAUtagACTMSG@@V?$allocator@PAUtagACTMSG@@@std@@@std@@QAE?AViterator@12@XZ
_TEXT	SEGMENT PARA USE32 PUBLIC 'CODE'
_TEXT	ENDS
;	COMDAT ?empty@?$deque@PAUtagACTMSG@@V?$allocator@PAUtagACTMSG@@@std@@@std@@QBE_NXZ
_TEXT	SEGMENT PARA USE32 PUBLIC 'CODE'
_TEXT	ENDS
;	COMDAT ?clear@?$deque@PAUtagACTMSG@@V?$allocator@PAUtagACTMSG@@@std@@@std@@QAEXXZ
_TEXT	SEGMENT PARA USE32 PUBLIC 'CODE'
_TEXT	ENDS
;	COMDAT ??0?$deque@PAUtagMAGICATKMSG@@V?$allocator@PAUtagMAGICATKMSG@@@std@@@std@@QAE@XZ
_TEXT	SEGMENT PARA USE32 PUBLIC 'CODE'
_TEXT	ENDS
;	COMDAT ??1?$deque@PAUtagMAGICATKMSG@@V?$allocator@PAUtagMAGICATKMSG@@@std@@@std@@QAE@XZ
_TEXT	SEGMENT PARA USE32 PUBLIC 'CODE'
_TEXT	ENDS
;	COMDAT ?begin@?$deque@PAUtagMAGICATKMSG@@V?$allocator@PAUtagMAGICATKMSG@@@std@@@std@@QAE?AViterator@12@XZ
_TEXT	SEGMENT PARA USE32 PUBLIC 'CODE'
_TEXT	ENDS
;	COMDAT ?end@?$deque@PAUtagMAGICATKMSG@@V?$allocator@PAUtagMAGICATKMSG@@@std@@@std@@QAE?AViterator@12@XZ
_TEXT	SEGMENT PARA USE32 PUBLIC 'CODE'
_TEXT	ENDS
;	COMDAT ?empty@?$deque@PAUtagMAGICATKMSG@@V?$allocator@PAUtagMAGICATKMSG@@@std@@@std@@QBE_NXZ
_TEXT	SEGMENT PARA USE32 PUBLIC 'CODE'
_TEXT	ENDS
;	COMDAT ?clear@?$deque@PAUtagMAGICATKMSG@@V?$allocator@PAUtagMAGICATKMSG@@@std@@@std@@QAEXXZ
_TEXT	SEGMENT PARA USE32 PUBLIC 'CODE'
_TEXT	ENDS
;	COMDAT ??Diterator@?$deque@PAUtagACTMSG@@V?$allocator@PAUtagACTMSG@@@std@@@std@@QBEAAPAUtagACTMSG@@XZ
_TEXT	SEGMENT PARA USE32 PUBLIC 'CODE'
_TEXT	ENDS
;	COMDAT ??Eiterator@?$deque@PAUtagACTMSG@@V?$allocator@PAUtagACTMSG@@@std@@@std@@QAEAAV012@XZ
_TEXT	SEGMENT PARA USE32 PUBLIC 'CODE'
_TEXT	ENDS
;	COMDAT ??9const_iterator@?$deque@PAUtagACTMSG@@V?$allocator@PAUtagACTMSG@@@std@@@std@@QBE_NABV012@@Z
_TEXT	SEGMENT PARA USE32 PUBLIC 'CODE'
_TEXT	ENDS
;	COMDAT ??Diterator@?$deque@PAUtagMAGICATKMSG@@V?$allocator@PAUtagMAGICATKMSG@@@std@@@std@@QBEAAPAUtagMAGICATKMSG@@XZ
_TEXT	SEGMENT PARA USE32 PUBLIC 'CODE'
_TEXT	ENDS
;	COMDAT ??Eiterator@?$deque@PAUtagMAGICATKMSG@@V?$allocator@PAUtagMAGICATKMSG@@@std@@@std@@QAEAAV012@XZ
_TEXT	SEGMENT PARA USE32 PUBLIC 'CODE'
_TEXT	ENDS
;	COMDAT ??9const_iterator@?$deque@PAUtagMAGICATKMSG@@V?$allocator@PAUtagMAGICATKMSG@@@std@@@std@@QBE_NABV012@@Z
_TEXT	SEGMENT PARA USE32 PUBLIC 'CODE'
_TEXT	ENDS
;	COMDAT ?erase@?$_Tree@V?$_Tmap_traits@KU_Friend@@U?$less@K@std@@V?$allocator@U?$pair@$$CBKU_Friend@@@std@@@3@$0A@@std@@@std@@QAEIABK@Z
_TEXT	SEGMENT PARA USE32 PUBLIC 'CODE'
_TEXT	ENDS
;	COMDAT ?size@?$_Tree@V?$_Tmap_traits@KPAVCGuildMember@@U?$less@K@std@@V?$allocator@U?$pair@$$CBKPAVCGuildMember@@@std@@@3@$0A@@std@@@std@@QBEIXZ
_TEXT	SEGMENT PARA USE32 PUBLIC 'CODE'
_TEXT	ENDS
;	COMDAT ?size@?$_Tree@V?$_Tmap_traits@KPAVCGuild@@U?$less@K@std@@V?$allocator@U?$pair@$$CBKPAVCGuild@@@std@@@3@$0A@@std@@@std@@QBEIXZ
_TEXT	SEGMENT PARA USE32 PUBLIC 'CODE'
_TEXT	ENDS
;	COMDAT ?size@?$vector@PAU__JOINPLAYER@CGuildCombat@@V?$allocator@PAU__JOINPLAYER@CGuildCombat@@@std@@@std@@QBEIXZ
_TEXT	SEGMENT PARA USE32 PUBLIC 'CODE'
_TEXT	ENDS
;	COMDAT ??A?$vector@PAU__JOINPLAYER@CGuildCombat@@V?$allocator@PAU__JOINPLAYER@CGuildCombat@@@std@@@std@@QAEAAPAU__JOINPLAYER@CGuildCombat@@I@Z
_TEXT	SEGMENT PARA USE32 PUBLIC 'CODE'
_TEXT	ENDS
;	COMDAT ?clear@?$vector@PAU__JOINPLAYER@CGuildCombat@@V?$allocator@PAU__JOINPLAYER@CGuildCombat@@@std@@@std@@QAEXXZ
_TEXT	SEGMENT PARA USE32 PUBLIC 'CODE'
_TEXT	ENDS
;	COMDAT ?clear@?$list@PAU__JOINPLAYER@CGuildCombat@@V?$allocator@PAU__JOINPLAYER@CGuildCombat@@@std@@@std@@QAEXXZ
_TEXT	SEGMENT PARA USE32 PUBLIC 'CODE'
_TEXT	ENDS
;	COMDAT ?size@?$_Tree@V?$_Tmap_traits@KPAU_PlayerData@@U?$less@K@std@@V?$allocator@U?$pair@$$CBKPAU_PlayerData@@@std@@@3@$0A@@std@@@std@@QBEIXZ
_TEXT	SEGMENT PARA USE32 PUBLIC 'CODE'
_TEXT	ENDS
;	COMDAT ??0?$vector@U__SECRETROOM_MONSTER@@V?$allocator@U__SECRETROOM_MONSTER@@@std@@@std@@QAE@XZ
_TEXT	SEGMENT PARA USE32 PUBLIC 'CODE'
_TEXT	ENDS
;	COMDAT ??1?$vector@U__SECRETROOM_MONSTER@@V?$allocator@U__SECRETROOM_MONSTER@@@std@@@std@@QAE@XZ
_TEXT	SEGMENT PARA USE32 PUBLIC 'CODE'
_TEXT	ENDS
;	COMDAT ??0?$vector@V?$basic_string@DU?$char_traits@D@std@@V?$allocator@D@2@@std@@V?$allocator@V?$basic_string@DU?$char_traits@D@std@@V?$allocator@D@2@@std@@@2@@std@@QAE@XZ
_TEXT	SEGMENT PARA USE32 PUBLIC 'CODE'
_TEXT	ENDS
;	COMDAT ??1?$vector@V?$basic_string@DU?$char_traits@D@std@@V?$allocator@D@2@@std@@V?$allocator@V?$basic_string@DU?$char_traits@D@std@@V?$allocator@D@2@@std@@@2@@std@@QAE@XZ
_TEXT	SEGMENT PARA USE32 PUBLIC 'CODE'
_TEXT	ENDS
;	COMDAT ?size@?$vector@V?$basic_string@DU?$char_traits@D@std@@V?$allocator@D@2@@std@@V?$allocator@V?$basic_string@DU?$char_traits@D@std@@V?$allocator@D@2@@std@@@2@@std@@QBEIXZ
_TEXT	SEGMENT PARA USE32 PUBLIC 'CODE'
_TEXT	ENDS
;	COMDAT ??A?$vector@V?$basic_string@DU?$char_traits@D@std@@V?$allocator@D@2@@std@@V?$allocator@V?$basic_string@DU?$char_traits@D@std@@V?$allocator@D@2@@std@@@2@@std@@QAEAAV?$basic_string@DU?$char_traits@D@std@@V?$allocator@D@2@@1@I@Z
_TEXT	SEGMENT PARA USE32 PUBLIC 'CODE'
_TEXT	ENDS
;	COMDAT ?push_back@?$vector@V?$basic_string@DU?$char_traits@D@std@@V?$allocator@D@2@@std@@V?$allocator@V?$basic_string@DU?$char_traits@D@std@@V?$allocator@D@2@@std@@@2@@std@@QAEXABV?$basic_string@DU?$char_traits@D@std@@V?$allocator@D@2@@2@@Z
_TEXT	SEGMENT PARA USE32 PUBLIC 'CODE'
_TEXT	ENDS
;	COMDAT ?clear@?$vector@V?$basic_string@DU?$char_traits@D@std@@V?$allocator@D@2@@std@@V?$allocator@V?$basic_string@DU?$char_traits@D@std@@V?$allocator@D@2@@std@@@2@@std@@QAEXXZ
_TEXT	SEGMENT PARA USE32 PUBLIC 'CODE'
_TEXT	ENDS
;	COMDAT ?push_back@?$vector@UMINIGMAME_PRIZE_LIST@CRainbowRaceMng@@V?$allocator@UMINIGMAME_PRIZE_LIST@CRainbowRaceMng@@@std@@@std@@QAEXABUMINIGMAME_PRIZE_LIST@CRainbowRaceMng@@@Z
_TEXT	SEGMENT PARA USE32 PUBLIC 'CODE'
_TEXT	ENDS
;	COMDAT ?size@?$_Tree@V?$_Tmap_traits@KPAVCRainbowRace@@U?$less@K@std@@V?$allocator@U?$pair@$$CBKPAVCRainbowRace@@@std@@@3@$0A@@std@@@std@@QBEIXZ
_TEXT	SEGMENT PARA USE32 PUBLIC 'CODE'
_TEXT	ENDS
;	COMDAT ?size@?$vector@PAVCMiniGameBase@@V?$allocator@PAVCMiniGameBase@@@std@@@std@@QBEIXZ
_TEXT	SEGMENT PARA USE32 PUBLIC 'CODE'
_TEXT	ENDS
;	COMDAT ??A?$vector@PAVCMiniGameBase@@V?$allocator@PAVCMiniGameBase@@@std@@@std@@QAEAAPAVCMiniGameBase@@I@Z
_TEXT	SEGMENT PARA USE32 PUBLIC 'CODE'
_TEXT	ENDS
;	COMDAT ?size@?$vector@UGuildHouse_Furniture_Info@CGuildHouseBase@@V?$allocator@UGuildHouse_Furniture_Info@CGuildHouseBase@@@std@@@std@@QBEIXZ
_TEXT	SEGMENT PARA USE32 PUBLIC 'CODE'
_TEXT	ENDS
;	COMDAT ??A?$vector@UGuildHouse_Furniture_Info@CGuildHouseBase@@V?$allocator@UGuildHouse_Furniture_Info@CGuildHouseBase@@@std@@@std@@QAEAAUGuildHouse_Furniture_Info@CGuildHouseBase@@I@Z
_TEXT	SEGMENT PARA USE32 PUBLIC 'CODE'
_TEXT	ENDS
;	COMDAT ?empty@?$_Tree@V?$_Tmap_traits@KPAVCGuildHouseBase@@U?$less@K@std@@V?$allocator@U?$pair@$$CBKPAVCGuildHouseBase@@@std@@@3@$0A@@std@@@std@@QBE_NXZ
_TEXT	SEGMENT PARA USE32 PUBLIC 'CODE'
_TEXT	ENDS
;	COMDAT ?insert@?$_Tree@V?$_Tmap_traits@KPAVCGuildHouseBase@@U?$less@K@std@@V?$allocator@U?$pair@$$CBKPAVCGuildHouseBase@@@std@@@3@$0A@@std@@@std@@QAE?AU?$pair@Viterator@?$_Tree@V?$_Tmap_traits@KPAVCGuildHouseBase@@U?$less@K@std@@V?$allocator@U?$pair@$$CBKPAVCGuildHouseBase@@@std@@@3@$0A@@std@@@std@@_N@2@ABU?$pair@$$CBKPAVCGuildHouseBase@@@2@@Z
_TEXT	SEGMENT PARA USE32 PUBLIC 'CODE'
_TEXT	ENDS
;	COMDAT ?size@?$_Tree@V?$_Tmap_traits@KPAVCCampusMember@@U?$less@K@std@@V?$allocator@U?$pair@$$CBKPAVCCampusMember@@@std@@@3@$0A@@std@@@std@@QBEIXZ
_TEXT	SEGMENT PARA USE32 PUBLIC 'CODE'
_TEXT	ENDS
;	COMDAT ?empty@?$_Tree@V?$_Tmap_traits@KPAVCCampus@@U?$less@K@std@@V?$allocator@U?$pair@$$CBKPAVCCampus@@@std@@@3@$0A@@std@@@std@@QBE_NXZ
_TEXT	SEGMENT PARA USE32 PUBLIC 'CODE'
_TEXT	ENDS
;	COMDAT ?erase@?$_Tree@V?$_Tmap_traits@KKU?$less@K@std@@V?$allocator@U?$pair@$$CBKK@std@@@2@$0A@@std@@@std@@QAEIABK@Z
_TEXT	SEGMENT PARA USE32 PUBLIC 'CODE'
_TEXT	ENDS
;	COMDAT ??0?$map@KPAVCClientSock@@U?$less@K@std@@V?$allocator@U?$pair@$$CBKPAVCClientSock@@@std@@@3@@std@@QAE@XZ
_TEXT	SEGMENT PARA USE32 PUBLIC 'CODE'
_TEXT	ENDS
;	COMDAT ??1?$_Tree@V?$_Tmap_traits@KPAVCClientSock@@U?$less@K@std@@V?$allocator@U?$pair@$$CBKPAVCClientSock@@@std@@@3@$0A@@std@@@std@@QAE@XZ
_TEXT	SEGMENT PARA USE32 PUBLIC 'CODE'
_TEXT	ENDS
;	COMDAT ?end@?$_Tree@V?$_Tmap_traits@KPAVCClientSock@@U?$less@K@std@@V?$allocator@U?$pair@$$CBKPAVCClientSock@@@std@@@3@$0A@@std@@@std@@QAE?AViterator@12@XZ
_TEXT	SEGMENT PARA USE32 PUBLIC 'CODE'
_TEXT	ENDS
;	COMDAT ?find@?$_Tree@V?$_Tmap_traits@KPAVCClientSock@@U?$less@K@std@@V?$allocator@U?$pair@$$CBKPAVCClientSock@@@std@@@3@$0A@@std@@@std@@QAE?AViterator@12@ABK@Z
_TEXT	SEGMENT PARA USE32 PUBLIC 'CODE'
_TEXT	ENDS
;	COMDAT ??Citerator@?$_Tree@V?$_Tmap_traits@KPAVCClientSock@@U?$less@K@std@@V?$allocator@U?$pair@$$CBKPAVCClientSock@@@std@@@3@$0A@@std@@@std@@QBEPAU?$pair@$$CBKPAVCClientSock@@@2@XZ
_TEXT	SEGMENT PARA USE32 PUBLIC 'CODE'
_TEXT	ENDS
;	COMDAT ??9const_iterator@?$_Tree@V?$_Tmap_traits@KPAVCClientSock@@U?$less@K@std@@V?$allocator@U?$pair@$$CBKPAVCClientSock@@@std@@@3@$0A@@std@@@std@@QBE_NABV012@@Z
_TEXT	SEGMENT PARA USE32 PUBLIC 'CODE'
_TEXT	ENDS
;	COMDAT ??0?$map@KPAVCClientSockE@@U?$less@K@std@@V?$allocator@U?$pair@$$CBKPAVCClientSockE@@@std@@@3@@std@@QAE@XZ
_TEXT	SEGMENT PARA USE32 PUBLIC 'CODE'
_TEXT	ENDS
;	COMDAT ??1?$_Tree@V?$_Tmap_traits@KPAVCClientSockE@@U?$less@K@std@@V?$allocator@U?$pair@$$CBKPAVCClientSockE@@@std@@@3@$0A@@std@@@std@@QAE@XZ
_TEXT	SEGMENT PARA USE32 PUBLIC 'CODE'
_TEXT	ENDS
;	COMDAT ?end@?$_Tree@V?$_Tmap_traits@KPAVCClientSockE@@U?$less@K@std@@V?$allocator@U?$pair@$$CBKPAVCClientSockE@@@std@@@3@$0A@@std@@@std@@QAE?AViterator@12@XZ
_TEXT	SEGMENT PARA USE32 PUBLIC 'CODE'
_TEXT	ENDS
;	COMDAT ?find@?$_Tree@V?$_Tmap_traits@KPAVCClientSockE@@U?$less@K@std@@V?$allocator@U?$pair@$$CBKPAVCClientSockE@@@std@@@3@$0A@@std@@@std@@QAE?AViterator@12@ABK@Z
_TEXT	SEGMENT PARA USE32 PUBLIC 'CODE'
_TEXT	ENDS
;	COMDAT ??Citerator@?$_Tree@V?$_Tmap_traits@KPAVCClientSockE@@U?$less@K@std@@V?$allocator@U?$pair@$$CBKPAVCClientSockE@@@std@@@3@$0A@@std@@@std@@QBEPAU?$pair@$$CBKPAVCClientSockE@@@2@XZ
_TEXT	SEGMENT PARA USE32 PUBLIC 'CODE'
_TEXT	ENDS
;	COMDAT ??9const_iterator@?$_Tree@V?$_Tmap_traits@KPAVCClientSockE@@U?$less@K@std@@V?$allocator@U?$pair@$$CBKPAVCClientSockE@@@std@@@3@$0A@@std@@@std@@QBE_NABV012@@Z
_TEXT	SEGMENT PARA USE32 PUBLIC 'CODE'
_TEXT	ENDS
;	COMDAT ?end@?$_Tree@V?$_Tmap_traits@KP8CDPCoreClient@@AEXAAVCAr@@KKK@ZU?$less@K@std@@V?$allocator@U?$pair@$$CBKP8CDPCoreClient@@AEXAAVCAr@@KKK@Z@std@@@4@$0A@@std@@@std@@QAE?AViterator@12@XZ
_TEXT	SEGMENT PARA USE32 PUBLIC 'CODE'
_TEXT	ENDS
;	COMDAT ?find@?$_Tree@V?$_Tmap_traits@KP8CDPCoreClient@@AEXAAVCAr@@KKK@ZU?$less@K@std@@V?$allocator@U?$pair@$$CBKP8CDPCoreClient@@AEXAAVCAr@@KKK@Z@std@@@4@$0A@@std@@@std@@QAE?AViterator@12@ABK@Z
_TEXT	SEGMENT PARA USE32 PUBLIC 'CODE'
_TEXT	ENDS
;	COMDAT ??Citerator@?$_Tree@V?$_Tmap_traits@KP8CDPCoreClient@@AEXAAVCAr@@KKK@ZU?$less@K@std@@V?$allocator@U?$pair@$$CBKP8CDPCoreClient@@AEXAAVCAr@@KKK@Z@std@@@4@$0A@@std@@@std@@QBEPAU?$pair@$$CBKP8CDPCoreClient@@AEXAAVCAr@@KKK@Z@2@XZ
_TEXT	SEGMENT PARA USE32 PUBLIC 'CODE'
_TEXT	ENDS
;	COMDAT ??9const_iterator@?$_Tree@V?$_Tmap_traits@KP8CDPCoreClient@@AEXAAVCAr@@KKK@ZU?$less@K@std@@V?$allocator@U?$pair@$$CBKP8CDPCoreClient@@AEXAAVCAr@@KKK@Z@std@@@4@$0A@@std@@@std@@QBE_NABV012@@Z
_TEXT	SEGMENT PARA USE32 PUBLIC 'CODE'
_TEXT	ENDS
;	COMDAT ?compare@?$basic_string@DU?$char_traits@D@std@@V?$allocator@D@2@@std@@QBEHIIPBDI@Z
_TEXT	SEGMENT PARA USE32 PUBLIC 'CODE'
_TEXT	ENDS
;	COMDAT ??0?$allocator@V?$basic_string@DU?$char_traits@D@std@@V?$allocator@D@2@@std@@@std@@QAE@XZ
_TEXT	SEGMENT PARA USE32 PUBLIC 'CODE'
_TEXT	ENDS
;	COMDAT ?insert@?$_Tree@V?$_Tmap_traits@KPAVCCtrl@@U?$less@K@std@@V?$allocator@U?$pair@$$CBKPAVCCtrl@@@std@@@3@$0A@@std@@@std@@QAE?AViterator@12@V312@ABU?$pair@$$CBKPAVCCtrl@@@2@@Z
_TEXT	SEGMENT PARA USE32 PUBLIC 'CODE'
_TEXT	ENDS
;	COMDAT ??0?$pair@$$CBKPAVCCtrl@@@std@@QAE@ABKABQAVCCtrl@@@Z
_TEXT	SEGMENT PARA USE32 PUBLIC 'CODE'
_TEXT	ENDS
;	COMDAT ?_Tidy@?$deque@PAUtagACTMSG@@V?$allocator@PAUtagACTMSG@@@std@@@std@@IAEXXZ
_TEXT	SEGMENT PARA USE32 PUBLIC 'CODE'
_TEXT	ENDS
;	COMDAT ??0?$_Deque_val@PAUtagACTMSG@@V?$allocator@PAUtagACTMSG@@@std@@@std@@IAE@V?$allocator@PAUtagACTMSG@@@1@@Z
_TEXT	SEGMENT PARA USE32 PUBLIC 'CODE'
_TEXT	ENDS
;	COMDAT ??0?$allocator@PAUtagACTMSG@@@std@@QAE@XZ
_TEXT	SEGMENT PARA USE32 PUBLIC 'CODE'
_TEXT	ENDS
;	COMDAT ?_Tidy@?$deque@PAUtagMAGICATKMSG@@V?$allocator@PAUtagMAGICATKMSG@@@std@@@std@@IAEXXZ
_TEXT	SEGMENT PARA USE32 PUBLIC 'CODE'
_TEXT	ENDS
;	COMDAT ??0?$_Deque_val@PAUtagMAGICATKMSG@@V?$allocator@PAUtagMAGICATKMSG@@@std@@@std@@IAE@V?$allocator@PAUtagMAGICATKMSG@@@1@@Z
_TEXT	SEGMENT PARA USE32 PUBLIC 'CODE'
_TEXT	ENDS
;	COMDAT ??0?$allocator@PAUtagMAGICATKMSG@@@std@@QAE@XZ
_TEXT	SEGMENT PARA USE32 PUBLIC 'CODE'
_TEXT	ENDS
;	COMDAT ??0iterator@?$deque@PAUtagACTMSG@@V?$allocator@PAUtagACTMSG@@@std@@@std@@QAE@IPBV12@@Z
_TEXT	SEGMENT PARA USE32 PUBLIC 'CODE'
_TEXT	ENDS
;	COMDAT ??Dconst_iterator@?$deque@PAUtagACTMSG@@V?$allocator@PAUtagACTMSG@@@std@@@std@@QBEABQAUtagACTMSG@@XZ
_TEXT	SEGMENT PARA USE32 PUBLIC 'CODE'
_TEXT	ENDS
;	COMDAT ??8const_iterator@?$deque@PAUtagACTMSG@@V?$allocator@PAUtagACTMSG@@@std@@@std@@QBE_NABV012@@Z
_TEXT	SEGMENT PARA USE32 PUBLIC 'CODE'
_TEXT	ENDS
;	COMDAT ??0iterator@?$deque@PAUtagMAGICATKMSG@@V?$allocator@PAUtagMAGICATKMSG@@@std@@@std@@QAE@IPBV12@@Z
_TEXT	SEGMENT PARA USE32 PUBLIC 'CODE'
_TEXT	ENDS
;	COMDAT ??Dconst_iterator@?$deque@PAUtagMAGICATKMSG@@V?$allocator@PAUtagMAGICATKMSG@@@std@@@std@@QBEABQAUtagMAGICATKMSG@@XZ
_TEXT	SEGMENT PARA USE32 PUBLIC 'CODE'
_TEXT	ENDS
;	COMDAT ??8const_iterator@?$deque@PAUtagMAGICATKMSG@@V?$allocator@PAUtagMAGICATKMSG@@@std@@@std@@QBE_NABV012@@Z
_TEXT	SEGMENT PARA USE32 PUBLIC 'CODE'
_TEXT	ENDS
;	COMDAT ?erase@?$_Tree@V?$_Tmap_traits@KU_Friend@@U?$less@K@std@@V?$allocator@U?$pair@$$CBKU_Friend@@@std@@@3@$0A@@std@@@std@@QAE?AViterator@12@V312@0@Z
_TEXT	SEGMENT PARA USE32 PUBLIC 'CODE'
_TEXT	ENDS
;	COMDAT ?equal_range@?$_Tree@V?$_Tmap_traits@KU_Friend@@U?$less@K@std@@V?$allocator@U?$pair@$$CBKU_Friend@@@std@@@3@$0A@@std@@@std@@QAE?AU?$pair@Viterator@?$_Tree@V?$_Tmap_traits@KU_Friend@@U?$less@K@std@@V?$allocator@U?$pair@$$CBKU_Friend@@@std@@@3@$0A@@std@@@std@@V123@@2@ABK@Z
_TEXT	SEGMENT PARA USE32 PUBLIC 'CODE'
_TEXT	ENDS
;	COMDAT ?begin@?$vector@PAU__JOINPLAYER@CGuildCombat@@V?$allocator@PAU__JOINPLAYER@CGuildCombat@@@std@@@std@@QAE?AViterator@12@XZ
_TEXT	SEGMENT PARA USE32 PUBLIC 'CODE'
_TEXT	ENDS
;	COMDAT ?_Tidy@?$vector@PAU__JOINPLAYER@CGuildCombat@@V?$allocator@PAU__JOINPLAYER@CGuildCombat@@@std@@@std@@IAEXXZ
_TEXT	SEGMENT PARA USE32 PUBLIC 'CODE'
_TEXT	ENDS
;	COMDAT ?_Nextnode@?$list@PAU__JOINPLAYER@CGuildCombat@@V?$allocator@PAU__JOINPLAYER@CGuildCombat@@@std@@@std@@KAAAPAU_Node@?$_List_nod@PAU__JOINPLAYER@CGuildCombat@@V?$allocator@PAU__JOINPLAYER@CGuildCombat@@@std@@@2@PAU342@@Z
_TEXT	SEGMENT PARA USE32 PUBLIC 'CODE'
_TEXT	ENDS
;	COMDAT ?_Prevnode@?$list@PAU__JOINPLAYER@CGuildCombat@@V?$allocator@PAU__JOINPLAYER@CGuildCombat@@@std@@@std@@KAAAPAU_Node@?$_List_nod@PAU__JOINPLAYER@CGuildCombat@@V?$allocator@PAU__JOINPLAYER@CGuildCombat@@@std@@@2@PAU342@@Z
_TEXT	SEGMENT PARA USE32 PUBLIC 'CODE'
_TEXT	ENDS
;	COMDAT ?deallocate@?$allocator@U_Node@?$_List_nod@PAU__JOINPLAYER@CGuildCombat@@V?$allocator@PAU__JOINPLAYER@CGuildCombat@@@std@@@std@@@std@@QAEXPAU_Node@?$_List_nod@PAU__JOINPLAYER@CGuildCombat@@V?$allocator@PAU__JOINPLAYER@CGuildCombat@@@std@@@2@I@Z
_TEXT	SEGMENT PARA USE32 PUBLIC 'CODE'
_TEXT	ENDS
;	COMDAT ?destroy@?$allocator@U_Node@?$_List_nod@PAU__JOINPLAYER@CGuildCombat@@V?$allocator@PAU__JOINPLAYER@CGuildCombat@@@std@@@std@@@std@@QAEXPAU_Node@?$_List_nod@PAU__JOINPLAYER@CGuildCombat@@V?$allocator@PAU__JOINPLAYER@CGuildCombat@@@std@@@2@@Z
_TEXT	SEGMENT PARA USE32 PUBLIC 'CODE'
_TEXT	ENDS
;	COMDAT ?_Buy@?$vector@U__SECRETROOM_MONSTER@@V?$allocator@U__SECRETROOM_MONSTER@@@std@@@std@@IAE_NI@Z
_TEXT	SEGMENT PARA USE32 PUBLIC 'CODE'
_TEXT	ENDS
;	COMDAT ?_Tidy@?$vector@U__SECRETROOM_MONSTER@@V?$allocator@U__SECRETROOM_MONSTER@@@std@@@std@@IAEXXZ
_TEXT	SEGMENT PARA USE32 PUBLIC 'CODE'
_TEXT	ENDS
;	COMDAT ??0?$_Vector_val@U__SECRETROOM_MONSTER@@V?$allocator@U__SECRETROOM_MONSTER@@@std@@@std@@IAE@V?$allocator@U__SECRETROOM_MONSTER@@@1@@Z
_TEXT	SEGMENT PARA USE32 PUBLIC 'CODE'
_TEXT	ENDS
;	COMDAT ??0?$allocator@U__SECRETROOM_MONSTER@@@std@@QAE@XZ
_TEXT	SEGMENT PARA USE32 PUBLIC 'CODE'
_TEXT	ENDS
;	COMDAT ?capacity@?$vector@V?$basic_string@DU?$char_traits@D@std@@V?$allocator@D@2@@std@@V?$allocator@V?$basic_string@DU?$char_traits@D@std@@V?$allocator@D@2@@std@@@2@@std@@QBEIXZ
_TEXT	SEGMENT PARA USE32 PUBLIC 'CODE'
_TEXT	ENDS
;	COMDAT ?begin@?$vector@V?$basic_string@DU?$char_traits@D@std@@V?$allocator@D@2@@std@@V?$allocator@V?$basic_string@DU?$char_traits@D@std@@V?$allocator@D@2@@std@@@2@@std@@QAE?AViterator@12@XZ
_TEXT	SEGMENT PARA USE32 PUBLIC 'CODE'
_TEXT	ENDS
;	COMDAT ?end@?$vector@V?$basic_string@DU?$char_traits@D@std@@V?$allocator@D@2@@std@@V?$allocator@V?$basic_string@DU?$char_traits@D@std@@V?$allocator@D@2@@std@@@2@@std@@QAE?AViterator@12@XZ
_TEXT	SEGMENT PARA USE32 PUBLIC 'CODE'
_TEXT	ENDS
;	COMDAT ?insert@?$vector@V?$basic_string@DU?$char_traits@D@std@@V?$allocator@D@2@@std@@V?$allocator@V?$basic_string@DU?$char_traits@D@std@@V?$allocator@D@2@@std@@@2@@std@@QAE?AViterator@12@V312@ABV?$basic_string@DU?$char_traits@D@std@@V?$allocator@D@2@@2@@Z
_TEXT	SEGMENT PARA USE32 PUBLIC 'CODE'
_TEXT	ENDS
;	COMDAT ?_Buy@?$vector@V?$basic_string@DU?$char_traits@D@std@@V?$allocator@D@2@@std@@V?$allocator@V?$basic_string@DU?$char_traits@D@std@@V?$allocator@D@2@@std@@@2@@std@@IAE_NI@Z
_TEXT	SEGMENT PARA USE32 PUBLIC 'CODE'
_TEXT	ENDS
;	COMDAT ?_Tidy@?$vector@V?$basic_string@DU?$char_traits@D@std@@V?$allocator@D@2@@std@@V?$allocator@V?$basic_string@DU?$char_traits@D@std@@V?$allocator@D@2@@std@@@2@@std@@IAEXXZ
_TEXT	SEGMENT PARA USE32 PUBLIC 'CODE'
_TEXT	ENDS
;	COMDAT ?_Ufill@?$vector@V?$basic_string@DU?$char_traits@D@std@@V?$allocator@D@2@@std@@V?$allocator@V?$basic_string@DU?$char_traits@D@std@@V?$allocator@D@2@@std@@@2@@std@@IAEPAV?$basic_string@DU?$char_traits@D@std@@V?$allocator@D@2@@2@PAV32@IABV32@@Z
_TEXT	SEGMENT PARA USE32 PUBLIC 'CODE'
_TEXT	ENDS
;	COMDAT ??0?$_Vector_val@V?$basic_string@DU?$char_traits@D@std@@V?$allocator@D@2@@std@@V?$allocator@V?$basic_string@DU?$char_traits@D@std@@V?$allocator@D@2@@std@@@2@@std@@IAE@V?$allocator@V?$basic_string@DU?$char_traits@D@std@@V?$allocator@D@2@@std@@@1@@Z
_TEXT	SEGMENT PARA USE32 PUBLIC 'CODE'
_TEXT	ENDS
;	COMDAT ?capacity@?$vector@UMINIGMAME_PRIZE_LIST@CRainbowRaceMng@@V?$allocator@UMINIGMAME_PRIZE_LIST@CRainbowRaceMng@@@std@@@std@@QBEIXZ
_TEXT	SEGMENT PARA USE32 PUBLIC 'CODE'
_TEXT	ENDS
;	COMDAT ?end@?$vector@UMINIGMAME_PRIZE_LIST@CRainbowRaceMng@@V?$allocator@UMINIGMAME_PRIZE_LIST@CRainbowRaceMng@@@std@@@std@@QAE?AViterator@12@XZ
_TEXT	SEGMENT PARA USE32 PUBLIC 'CODE'
_TEXT	ENDS
;	COMDAT ?size@?$vector@UMINIGMAME_PRIZE_LIST@CRainbowRaceMng@@V?$allocator@UMINIGMAME_PRIZE_LIST@CRainbowRaceMng@@@std@@@std@@QBEIXZ
_TEXT	SEGMENT PARA USE32 PUBLIC 'CODE'
_TEXT	ENDS
;	COMDAT ?insert@?$vector@UMINIGMAME_PRIZE_LIST@CRainbowRaceMng@@V?$allocator@UMINIGMAME_PRIZE_LIST@CRainbowRaceMng@@@std@@@std@@QAE?AViterator@12@V312@ABUMINIGMAME_PRIZE_LIST@CRainbowRaceMng@@@Z
_TEXT	SEGMENT PARA USE32 PUBLIC 'CODE'
_TEXT	ENDS
;	COMDAT ?_Ufill@?$vector@UMINIGMAME_PRIZE_LIST@CRainbowRaceMng@@V?$allocator@UMINIGMAME_PRIZE_LIST@CRainbowRaceMng@@@std@@@std@@IAEPAUMINIGMAME_PRIZE_LIST@CRainbowRaceMng@@PAU34@IABU34@@Z
_TEXT	SEGMENT PARA USE32 PUBLIC 'CODE'
_TEXT	ENDS
;	COMDAT ?begin@?$vector@PAVCMiniGameBase@@V?$allocator@PAVCMiniGameBase@@@std@@@std@@QAE?AViterator@12@XZ
_TEXT	SEGMENT PARA USE32 PUBLIC 'CODE'
_TEXT	ENDS
;	COMDAT ?begin@?$vector@UGuildHouse_Furniture_Info@CGuildHouseBase@@V?$allocator@UGuildHouse_Furniture_Info@CGuildHouseBase@@@std@@@std@@QAE?AViterator@12@XZ
_TEXT	SEGMENT PARA USE32 PUBLIC 'CODE'
_TEXT	ENDS
;	COMDAT ?_Isnil@?$_Tree@V?$_Tmap_traits@KPAVCGuildHouseBase@@U?$less@K@std@@V?$allocator@U?$pair@$$CBKPAVCGuildHouseBase@@@std@@@3@$0A@@std@@@std@@KAAADPAU_Node@?$_Tree_nod@V?$_Tmap_traits@KPAVCGuildHouseBase@@U?$less@K@std@@V?$allocator@U?$pair@$$CBKPAVCGuildHouseBase@@@std@@@3@$0A@@std@@@2@@Z
_TEXT	SEGMENT PARA USE32 PUBLIC 'CODE'
_TEXT	ENDS
;	COMDAT ?_Key@?$_Tree@V?$_Tmap_traits@KPAVCGuildHouseBase@@U?$less@K@std@@V?$allocator@U?$pair@$$CBKPAVCGuildHouseBase@@@std@@@3@$0A@@std@@@std@@KAABKPAU_Node@?$_Tree_nod@V?$_Tmap_traits@KPAVCGuildHouseBase@@U?$less@K@std@@V?$allocator@U?$pair@$$CBKPAVCGuildHouseBase@@@std@@@3@$0A@@std@@@2@@Z
_TEXT	SEGMENT PARA USE32 PUBLIC 'CODE'
_TEXT	ENDS
;	COMDAT ?_Left@?$_Tree@V?$_Tmap_traits@KPAVCGuildHouseBase@@U?$less@K@std@@V?$allocator@U?$pair@$$CBKPAVCGuildHouseBase@@@std@@@3@$0A@@std@@@std@@KAAAPAU_Node@?$_Tree_nod@V?$_Tmap_traits@KPAVCGuildHouseBase@@U?$less@K@std@@V?$allocator@U?$pair@$$CBKPAVCGuildHouseBase@@@std@@@3@$0A@@std@@@2@PAU342@@Z
_TEXT	SEGMENT PARA USE32 PUBLIC 'CODE'
_TEXT	ENDS
;	COMDAT ?_Right@?$_Tree@V?$_Tmap_traits@KPAVCGuildHouseBase@@U?$less@K@std@@V?$allocator@U?$pair@$$CBKPAVCGuildHouseBase@@@std@@@3@$0A@@std@@@std@@KAAAPAU_Node@?$_Tree_nod@V?$_Tmap_traits@KPAVCGuildHouseBase@@U?$less@K@std@@V?$allocator@U?$pair@$$CBKPAVCGuildHouseBase@@@std@@@3@$0A@@std@@@2@PAU342@@Z
_TEXT	SEGMENT PARA USE32 PUBLIC 'CODE'
_TEXT	ENDS
;	COMDAT ?begin@?$_Tree@V?$_Tmap_traits@KPAVCGuildHouseBase@@U?$less@K@std@@V?$allocator@U?$pair@$$CBKPAVCGuildHouseBase@@@std@@@3@$0A@@std@@@std@@QAE?AViterator@12@XZ
_TEXT	SEGMENT PARA USE32 PUBLIC 'CODE'
_TEXT	ENDS
;	COMDAT ?size@?$_Tree@V?$_Tmap_traits@KPAVCGuildHouseBase@@U?$less@K@std@@V?$allocator@U?$pair@$$CBKPAVCGuildHouseBase@@@std@@@3@$0A@@std@@@std@@QBEIXZ
_TEXT	SEGMENT PARA USE32 PUBLIC 'CODE'
_TEXT	ENDS
;	COMDAT ?_Insert@?$_Tree@V?$_Tmap_traits@KPAVCGuildHouseBase@@U?$less@K@std@@V?$allocator@U?$pair@$$CBKPAVCGuildHouseBase@@@std@@@3@$0A@@std@@@std@@IAE?AViterator@12@_NPAU_Node@?$_Tree_nod@V?$_Tmap_traits@KPAVCGuildHouseBase@@U?$less@K@std@@V?$allocator@U?$pair@$$CBKPAVCGuildHouseBase@@@std@@@3@$0A@@std@@@2@ABU?$pair@$$CBKPAVCGuildHouseBase@@@2@@Z
_TEXT	SEGMENT PARA USE32 PUBLIC 'CODE'
_TEXT	ENDS
;	COMDAT ?_Root@?$_Tree@V?$_Tmap_traits@KPAVCGuildHouseBase@@U?$less@K@std@@V?$allocator@U?$pair@$$CBKPAVCGuildHouseBase@@@std@@@3@$0A@@std@@@std@@IAEAAPAU_Node@?$_Tree_nod@V?$_Tmap_traits@KPAVCGuildHouseBase@@U?$less@K@std@@V?$allocator@U?$pair@$$CBKPAVCGuildHouseBase@@@std@@@3@$0A@@std@@@2@XZ
_TEXT	SEGMENT PARA USE32 PUBLIC 'CODE'
_TEXT	ENDS
;	COMDAT ?_Kfn@?$_Tmap_traits@KPAVCGuildHouseBase@@U?$less@K@std@@V?$allocator@U?$pair@$$CBKPAVCGuildHouseBase@@@std@@@3@$0A@@std@@SAABKABU?$pair@$$CBKPAVCGuildHouseBase@@@2@@Z
_TEXT	SEGMENT PARA USE32 PUBLIC 'CODE'
_TEXT	ENDS
;	COMDAT ??0?$pair@Viterator@?$_Tree@V?$_Tmap_traits@KPAVCGuildHouseBase@@U?$less@K@std@@V?$allocator@U?$pair@$$CBKPAVCGuildHouseBase@@@std@@@3@$0A@@std@@@std@@_N@std@@QAE@ABViterator@?$_Tree@V?$_Tmap_traits@KPAVCGuildHouseBase@@U?$less@K@std@@V?$allocator@U?$pair@$$CBKPAVCGuildHouseBase@@@std@@@3@$0A@@std@@@1@AB_N@Z
_TEXT	SEGMENT PARA USE32 PUBLIC 'CODE'
_TEXT	ENDS
;	COMDAT ??0iterator@?$_Tree@V?$_Tmap_traits@KPAVCGuildHouseBase@@U?$less@K@std@@V?$allocator@U?$pair@$$CBKPAVCGuildHouseBase@@@std@@@3@$0A@@std@@@std@@QAE@PAU_Node@?$_Tree_nod@V?$_Tmap_traits@KPAVCGuildHouseBase@@U?$less@K@std@@V?$allocator@U?$pair@$$CBKPAVCGuildHouseBase@@@std@@@3@$0A@@std@@@2@@Z
_TEXT	SEGMENT PARA USE32 PUBLIC 'CODE'
_TEXT	ENDS
;	COMDAT ??Fiterator@?$_Tree@V?$_Tmap_traits@KPAVCGuildHouseBase@@U?$less@K@std@@V?$allocator@U?$pair@$$CBKPAVCGuildHouseBase@@@std@@@3@$0A@@std@@@std@@QAEAAV012@XZ
_TEXT	SEGMENT PARA USE32 PUBLIC 'CODE'
_TEXT	ENDS
;	COMDAT ??8const_iterator@?$_Tree@V?$_Tmap_traits@KPAVCGuildHouseBase@@U?$less@K@std@@V?$allocator@U?$pair@$$CBKPAVCGuildHouseBase@@@std@@@3@$0A@@std@@@std@@QBE_NABV012@@Z
_TEXT	SEGMENT PARA USE32 PUBLIC 'CODE'
_TEXT	ENDS
;	COMDAT ?_Mynode@const_iterator@?$_Tree@V?$_Tmap_traits@KPAVCGuildHouseBase@@U?$less@K@std@@V?$allocator@U?$pair@$$CBKPAVCGuildHouseBase@@@std@@@3@$0A@@std@@@std@@QBEPAU_Node@?$_Tree_nod@V?$_Tmap_traits@KPAVCGuildHouseBase@@U?$less@K@std@@V?$allocator@U?$pair@$$CBKPAVCGuildHouseBase@@@std@@@3@$0A@@std@@@3@XZ
_TEXT	SEGMENT PARA USE32 PUBLIC 'CODE'
_TEXT	ENDS
;	COMDAT ?size@?$_Tree@V?$_Tmap_traits@KPAVCCampus@@U?$less@K@std@@V?$allocator@U?$pair@$$CBKPAVCCampus@@@std@@@3@$0A@@std@@@std@@QBEIXZ
_TEXT	SEGMENT PARA USE32 PUBLIC 'CODE'
_TEXT	ENDS
;	COMDAT ?erase@?$_Tree@V?$_Tmap_traits@KKU?$less@K@std@@V?$allocator@U?$pair@$$CBKK@std@@@2@$0A@@std@@@std@@QAE?AViterator@12@V312@0@Z
_TEXT	SEGMENT PARA USE32 PUBLIC 'CODE'
_TEXT	ENDS
;	COMDAT ?equal_range@?$_Tree@V?$_Tmap_traits@KKU?$less@K@std@@V?$allocator@U?$pair@$$CBKK@std@@@2@$0A@@std@@@std@@QAE?AU?$pair@Viterator@?$_Tree@V?$_Tmap_traits@KKU?$less@K@std@@V?$allocator@U?$pair@$$CBKK@std@@@2@$0A@@std@@@std@@V123@@2@ABK@Z
_TEXT	SEGMENT PARA USE32 PUBLIC 'CODE'
_TEXT	ENDS
;	COMDAT ?_Key@?$_Tree@V?$_Tmap_traits@KPAVCClientSock@@U?$less@K@std@@V?$allocator@U?$pair@$$CBKPAVCClientSock@@@std@@@3@$0A@@std@@@std@@KAABKPAU_Node@?$_Tree_nod@V?$_Tmap_traits@KPAVCClientSock@@U?$less@K@std@@V?$allocator@U?$pair@$$CBKPAVCClientSock@@@std@@@3@$0A@@std@@@2@@Z
_TEXT	SEGMENT PARA USE32 PUBLIC 'CODE'
_TEXT	ENDS
;	COMDAT ??0?$_Tree@V?$_Tmap_traits@KPAVCClientSock@@U?$less@K@std@@V?$allocator@U?$pair@$$CBKPAVCClientSock@@@std@@@3@$0A@@std@@@std@@QAE@ABU?$less@K@1@ABV?$allocator@U?$pair@$$CBKPAVCClientSock@@@std@@@1@@Z
_TEXT	SEGMENT PARA USE32 PUBLIC 'CODE'
_TEXT	ENDS
;	COMDAT ?lower_bound@?$_Tree@V?$_Tmap_traits@KPAVCClientSock@@U?$less@K@std@@V?$allocator@U?$pair@$$CBKPAVCClientSock@@@std@@@3@$0A@@std@@@std@@QAE?AViterator@12@ABK@Z
_TEXT	SEGMENT PARA USE32 PUBLIC 'CODE'
_TEXT	ENDS
;	COMDAT ?_Tidy@?$_Tree@V?$_Tmap_traits@KPAVCClientSock@@U?$less@K@std@@V?$allocator@U?$pair@$$CBKPAVCClientSock@@@std@@@3@$0A@@std@@@std@@IAEXXZ
_TEXT	SEGMENT PARA USE32 PUBLIC 'CODE'
_TEXT	ENDS
;	COMDAT ??0?$allocator@U?$pair@$$CBKPAVCClientSock@@@std@@@std@@QAE@XZ
_TEXT	SEGMENT PARA USE32 PUBLIC 'CODE'
_TEXT	ENDS
;	COMDAT ??0iterator@?$_Tree@V?$_Tmap_traits@KPAVCClientSock@@U?$less@K@std@@V?$allocator@U?$pair@$$CBKPAVCClientSock@@@std@@@3@$0A@@std@@@std@@QAE@PAU_Node@?$_Tree_nod@V?$_Tmap_traits@KPAVCClientSock@@U?$less@K@std@@V?$allocator@U?$pair@$$CBKPAVCClientSock@@@std@@@3@$0A@@std@@@2@@Z
_TEXT	SEGMENT PARA USE32 PUBLIC 'CODE'
_TEXT	ENDS
;	COMDAT ??Diterator@?$_Tree@V?$_Tmap_traits@KPAVCClientSock@@U?$less@K@std@@V?$allocator@U?$pair@$$CBKPAVCClientSock@@@std@@@3@$0A@@std@@@std@@QBEAAU?$pair@$$CBKPAVCClientSock@@@2@XZ
_TEXT	SEGMENT PARA USE32 PUBLIC 'CODE'
_TEXT	ENDS
;	COMDAT ??8const_iterator@?$_Tree@V?$_Tmap_traits@KPAVCClientSock@@U?$less@K@std@@V?$allocator@U?$pair@$$CBKPAVCClientSock@@@std@@@3@$0A@@std@@@std@@QBE_NABV012@@Z
_TEXT	SEGMENT PARA USE32 PUBLIC 'CODE'
_TEXT	ENDS
;	COMDAT ?_Mynode@const_iterator@?$_Tree@V?$_Tmap_traits@KPAVCClientSock@@U?$less@K@std@@V?$allocator@U?$pair@$$CBKPAVCClientSock@@@std@@@3@$0A@@std@@@std@@QBEPAU_Node@?$_Tree_nod@V?$_Tmap_traits@KPAVCClientSock@@U?$less@K@std@@V?$allocator@U?$pair@$$CBKPAVCClientSock@@@std@@@3@$0A@@std@@@3@XZ
_TEXT	SEGMENT PARA USE32 PUBLIC 'CODE'
_TEXT	ENDS
;	COMDAT ?_Key@?$_Tree@V?$_Tmap_traits@KPAVCClientSockE@@U?$less@K@std@@V?$allocator@U?$pair@$$CBKPAVCClientSockE@@@std@@@3@$0A@@std@@@std@@KAABKPAU_Node@?$_Tree_nod@V?$_Tmap_traits@KPAVCClientSockE@@U?$less@K@std@@V?$allocator@U?$pair@$$CBKPAVCClientSockE@@@std@@@3@$0A@@std@@@2@@Z
_TEXT	SEGMENT PARA USE32 PUBLIC 'CODE'
_TEXT	ENDS
;	COMDAT ??0?$_Tree@V?$_Tmap_traits@KPAVCClientSockE@@U?$less@K@std@@V?$allocator@U?$pair@$$CBKPAVCClientSockE@@@std@@@3@$0A@@std@@@std@@QAE@ABU?$less@K@1@ABV?$allocator@U?$pair@$$CBKPAVCClientSockE@@@std@@@1@@Z
_TEXT	SEGMENT PARA USE32 PUBLIC 'CODE'
_TEXT	ENDS
;	COMDAT ?lower_bound@?$_Tree@V?$_Tmap_traits@KPAVCClientSockE@@U?$less@K@std@@V?$allocator@U?$pair@$$CBKPAVCClientSockE@@@std@@@3@$0A@@std@@@std@@QAE?AViterator@12@ABK@Z
_TEXT	SEGMENT PARA USE32 PUBLIC 'CODE'
_TEXT	ENDS
;	COMDAT ?_Tidy@?$_Tree@V?$_Tmap_traits@KPAVCClientSockE@@U?$less@K@std@@V?$allocator@U?$pair@$$CBKPAVCClientSockE@@@std@@@3@$0A@@std@@@std@@IAEXXZ
_TEXT	SEGMENT PARA USE32 PUBLIC 'CODE'
_TEXT	ENDS
;	COMDAT ??0?$allocator@U?$pair@$$CBKPAVCClientSockE@@@std@@@std@@QAE@XZ
_TEXT	SEGMENT PARA USE32 PUBLIC 'CODE'
_TEXT	ENDS
;	COMDAT ??0iterator@?$_Tree@V?$_Tmap_traits@KPAVCClientSockE@@U?$less@K@std@@V?$allocator@U?$pair@$$CBKPAVCClientSockE@@@std@@@3@$0A@@std@@@std@@QAE@PAU_Node@?$_Tree_nod@V?$_Tmap_traits@KPAVCClientSockE@@U?$less@K@std@@V?$allocator@U?$pair@$$CBKPAVCClientSockE@@@std@@@3@$0A@@std@@@2@@Z
_TEXT	SEGMENT PARA USE32 PUBLIC 'CODE'
_TEXT	ENDS
;	COMDAT ??Diterator@?$_Tree@V?$_Tmap_traits@KPAVCClientSockE@@U?$less@K@std@@V?$allocator@U?$pair@$$CBKPAVCClientSockE@@@std@@@3@$0A@@std@@@std@@QBEAAU?$pair@$$CBKPAVCClientSockE@@@2@XZ
_TEXT	SEGMENT PARA USE32 PUBLIC 'CODE'
_TEXT	ENDS
;	COMDAT ??8const_iterator@?$_Tree@V?$_Tmap_traits@KPAVCClientSockE@@U?$less@K@std@@V?$allocator@U?$pair@$$CBKPAVCClientSockE@@@std@@@3@$0A@@std@@@std@@QBE_NABV012@@Z
_TEXT	SEGMENT PARA USE32 PUBLIC 'CODE'
_TEXT	ENDS
;	COMDAT ?_Mynode@const_iterator@?$_Tree@V?$_Tmap_traits@KPAVCClientSockE@@U?$less@K@std@@V?$allocator@U?$pair@$$CBKPAVCClientSockE@@@std@@@3@$0A@@std@@@std@@QBEPAU_Node@?$_Tree_nod@V?$_Tmap_traits@KPAVCClientSockE@@U?$less@K@std@@V?$allocator@U?$pair@$$CBKPAVCClientSockE@@@std@@@3@$0A@@std@@@3@XZ
_TEXT	SEGMENT PARA USE32 PUBLIC 'CODE'
_TEXT	ENDS
;	COMDAT ?_Key@?$_Tree@V?$_Tmap_traits@KP8CDPCoreClient@@AEXAAVCAr@@KKK@ZU?$less@K@std@@V?$allocator@U?$pair@$$CBKP8CDPCoreClient@@AEXAAVCAr@@KKK@Z@std@@@4@$0A@@std@@@std@@KAABKPAU_Node@?$_Tree_nod@V?$_Tmap_traits@KP8CDPCoreClient@@AEXAAVCAr@@KKK@ZU?$less@K@std@@V?$allocator@U?$pair@$$CBKP8CDPCoreClient@@AEXAAVCAr@@KKK@Z@std@@@4@$0A@@std@@@2@@Z
_TEXT	SEGMENT PARA USE32 PUBLIC 'CODE'
_TEXT	ENDS
;	COMDAT ?lower_bound@?$_Tree@V?$_Tmap_traits@KP8CDPCoreClient@@AEXAAVCAr@@KKK@ZU?$less@K@std@@V?$allocator@U?$pair@$$CBKP8CDPCoreClient@@AEXAAVCAr@@KKK@Z@std@@@4@$0A@@std@@@std@@QAE?AViterator@12@ABK@Z
_TEXT	SEGMENT PARA USE32 PUBLIC 'CODE'
_TEXT	ENDS
;	COMDAT ??0iterator@?$_Tree@V?$_Tmap_traits@KP8CDPCoreClient@@AEXAAVCAr@@KKK@ZU?$less@K@std@@V?$allocator@U?$pair@$$CBKP8CDPCoreClient@@AEXAAVCAr@@KKK@Z@std@@@4@$0A@@std@@@std@@QAE@PAU_Node@?$_Tree_nod@V?$_Tmap_traits@KP8CDPCoreClient@@AEXAAVCAr@@KKK@ZU?$less@K@std@@V?$allocator@U?$pair@$$CBKP8CDPCoreClient@@AEXAAVCAr@@KKK@Z@std@@@4@$0A@@std@@@2@@Z
_TEXT	SEGMENT PARA USE32 PUBLIC 'CODE'
_TEXT	ENDS
;	COMDAT ??Diterator@?$_Tree@V?$_Tmap_traits@KP8CDPCoreClient@@AEXAAVCAr@@KKK@ZU?$less@K@std@@V?$allocator@U?$pair@$$CBKP8CDPCoreClient@@AEXAAVCAr@@KKK@Z@std@@@4@$0A@@std@@@std@@QBEAAU?$pair@$$CBKP8CDPCoreClient@@AEXAAVCAr@@KKK@Z@2@XZ
_TEXT	SEGMENT PARA USE32 PUBLIC 'CODE'
_TEXT	ENDS
;	COMDAT ??8const_iterator@?$_Tree@V?$_Tmap_traits@KP8CDPCoreClient@@AEXAAVCAr@@KKK@ZU?$less@K@std@@V?$allocator@U?$pair@$$CBKP8CDPCoreClient@@AEXAAVCAr@@KKK@Z@std@@@4@$0A@@std@@@std@@QBE_NABV012@@Z
_TEXT	SEGMENT PARA USE32 PUBLIC 'CODE'
_TEXT	ENDS
;	COMDAT ?_Mynode@const_iterator@?$_Tree@V?$_Tmap_traits@KP8CDPCoreClient@@AEXAAVCAr@@KKK@ZU?$less@K@std@@V?$allocator@U?$pair@$$CBKP8CDPCoreClient@@AEXAAVCAr@@KKK@Z@std@@@4@$0A@@std@@@std@@QBEPAU_Node@?$_Tree_nod@V?$_Tmap_traits@KP8CDPCoreClient@@AEXAAVCAr@@KKK@ZU?$less@K@std@@V?$allocator@U?$pair@$$CBKP8CDPCoreClient@@AEXAAVCAr@@KKK@Z@std@@@4@$0A@@std@@@3@XZ
_TEXT	SEGMENT PARA USE32 PUBLIC 'CODE'
_TEXT	ENDS
;	COMDAT ??Diterator@?$vector@PAU__JOINPLAYER@CGuildCombat@@V?$allocator@PAU__JOINPLAYER@CGuildCombat@@@std@@@std@@QBEAAPAU__JOINPLAYER@CGuildCombat@@XZ
_TEXT	SEGMENT PARA USE32 PUBLIC 'CODE'
_TEXT	ENDS
;	COMDAT ??Hiterator@?$vector@PAU__JOINPLAYER@CGuildCombat@@V?$allocator@PAU__JOINPLAYER@CGuildCombat@@@std@@@std@@QBE?AV012@H@Z
_TEXT	SEGMENT PARA USE32 PUBLIC 'CODE'
_TEXT	ENDS
;	COMDAT ??Diterator@?$vector@V?$basic_string@DU?$char_traits@D@std@@V?$allocator@D@2@@std@@V?$allocator@V?$basic_string@DU?$char_traits@D@std@@V?$allocator@D@2@@std@@@2@@std@@QBEAAV?$basic_string@DU?$char_traits@D@std@@V?$allocator@D@2@@2@XZ
_TEXT	SEGMENT PARA USE32 PUBLIC 'CODE'
_TEXT	ENDS
;	COMDAT ??Hiterator@?$vector@V?$basic_string@DU?$char_traits@D@std@@V?$allocator@D@2@@std@@V?$allocator@V?$basic_string@DU?$char_traits@D@std@@V?$allocator@D@2@@std@@@2@@std@@QBE?AV012@H@Z
_TEXT	SEGMENT PARA USE32 PUBLIC 'CODE'
_TEXT	ENDS
;	COMDAT ??Diterator@?$vector@PAVCMiniGameBase@@V?$allocator@PAVCMiniGameBase@@@std@@@std@@QBEAAPAVCMiniGameBase@@XZ
_TEXT	SEGMENT PARA USE32 PUBLIC 'CODE'
_TEXT	ENDS
;	COMDAT ??Hiterator@?$vector@PAVCMiniGameBase@@V?$allocator@PAVCMiniGameBase@@@std@@@std@@QBE?AV012@H@Z
_TEXT	SEGMENT PARA USE32 PUBLIC 'CODE'
_TEXT	ENDS
;	COMDAT ??Diterator@?$vector@UGuildHouse_Furniture_Info@CGuildHouseBase@@V?$allocator@UGuildHouse_Furniture_Info@CGuildHouseBase@@@std@@@std@@QBEAAUGuildHouse_Furniture_Info@CGuildHouseBase@@XZ
_TEXT	SEGMENT PARA USE32 PUBLIC 'CODE'
_TEXT	ENDS
;	COMDAT ??Hiterator@?$vector@UGuildHouse_Furniture_Info@CGuildHouseBase@@V?$allocator@UGuildHouse_Furniture_Info@CGuildHouseBase@@@std@@@std@@QBE?AV012@H@Z
_TEXT	SEGMENT PARA USE32 PUBLIC 'CODE'
_TEXT	ENDS
;	COMDAT ??0?$allocator@V?$basic_string@DU?$char_traits@D@std@@V?$allocator@D@2@@std@@@std@@QAE@ABV01@@Z
_TEXT	SEGMENT PARA USE32 PUBLIC 'CODE'
_TEXT	ENDS
;	COMDAT ?deallocate@?$allocator@V?$basic_string@DU?$char_traits@D@std@@V?$allocator@D@2@@std@@@std@@QAEXPAV?$basic_string@DU?$char_traits@D@std@@V?$allocator@D@2@@2@I@Z
_TEXT	SEGMENT PARA USE32 PUBLIC 'CODE'
_TEXT	ENDS
;	COMDAT ?allocate@?$allocator@V?$basic_string@DU?$char_traits@D@std@@V?$allocator@D@2@@std@@@std@@QAEPAV?$basic_string@DU?$char_traits@D@std@@V?$allocator@D@2@@2@I@Z
_TEXT	SEGMENT PARA USE32 PUBLIC 'CODE'
_TEXT	ENDS
;	COMDAT ?size@?$_Tree@V?$_Tmap_traits@KPAVCCtrl@@U?$less@K@std@@V?$allocator@U?$pair@$$CBKPAVCCtrl@@@std@@@3@$0A@@std@@@std@@QBEIXZ
_TEXT	SEGMENT PARA USE32 PUBLIC 'CODE'
_TEXT	ENDS
;	COMDAT ??0iterator@?$_Tree@V?$_Tmap_traits@KPAVCCtrl@@U?$less@K@std@@V?$allocator@U?$pair@$$CBKPAVCCtrl@@@std@@@3@$0A@@std@@@std@@QAE@XZ
_TEXT	SEGMENT PARA USE32 PUBLIC 'CODE'
_TEXT	ENDS
;	COMDAT ?pop_back@?$deque@PAUtagACTMSG@@V?$allocator@PAUtagACTMSG@@@std@@@std@@QAEXXZ
_TEXT	SEGMENT PARA USE32 PUBLIC 'CODE'
_TEXT	ENDS
;	COMDAT ??0?$_Deque_map@PAUtagACTMSG@@V?$allocator@PAUtagACTMSG@@@std@@@std@@IAE@V?$allocator@PAUtagACTMSG@@@1@@Z
_TEXT	SEGMENT PARA USE32 PUBLIC 'CODE'
_TEXT	ENDS
;	COMDAT ??0?$allocator@PAUtagACTMSG@@@std@@QAE@ABV01@@Z
_TEXT	SEGMENT PARA USE32 PUBLIC 'CODE'
_TEXT	ENDS
;	COMDAT ?deallocate@?$allocator@PAUtagACTMSG@@@std@@QAEXPAPAUtagACTMSG@@I@Z
_TEXT	SEGMENT PARA USE32 PUBLIC 'CODE'
_TEXT	ENDS
;	COMDAT ?deallocate@?$allocator@PAPAUtagACTMSG@@@std@@QAEXPAPAPAUtagACTMSG@@I@Z
_TEXT	SEGMENT PARA USE32 PUBLIC 'CODE'
_TEXT	ENDS
;	COMDAT ?destroy@?$allocator@PAPAUtagACTMSG@@@std@@QAEXPAPAPAUtagACTMSG@@@Z
_TEXT	SEGMENT PARA USE32 PUBLIC 'CODE'
_TEXT	ENDS
;	COMDAT ?pop_back@?$deque@PAUtagMAGICATKMSG@@V?$allocator@PAUtagMAGICATKMSG@@@std@@@std@@QAEXXZ
_TEXT	SEGMENT PARA USE32 PUBLIC 'CODE'
_TEXT	ENDS
;	COMDAT ??0?$_Deque_map@PAUtagMAGICATKMSG@@V?$allocator@PAUtagMAGICATKMSG@@@std@@@std@@IAE@V?$allocator@PAUtagMAGICATKMSG@@@1@@Z
_TEXT	SEGMENT PARA USE32 PUBLIC 'CODE'
_TEXT	ENDS
;	COMDAT ??0?$allocator@PAUtagMAGICATKMSG@@@std@@QAE@ABV01@@Z
_TEXT	SEGMENT PARA USE32 PUBLIC 'CODE'
_TEXT	ENDS
;	COMDAT ?deallocate@?$allocator@PAUtagMAGICATKMSG@@@std@@QAEXPAPAUtagMAGICATKMSG@@I@Z
_TEXT	SEGMENT PARA USE32 PUBLIC 'CODE'
_TEXT	ENDS
;	COMDAT ?deallocate@?$allocator@PAPAUtagMAGICATKMSG@@@std@@QAEXPAPAPAUtagMAGICATKMSG@@I@Z
_TEXT	SEGMENT PARA USE32 PUBLIC 'CODE'
_TEXT	ENDS
;	COMDAT ?destroy@?$allocator@PAPAUtagMAGICATKMSG@@@std@@QAEXPAPAPAUtagMAGICATKMSG@@@Z
_TEXT	SEGMENT PARA USE32 PUBLIC 'CODE'
_TEXT	ENDS
;	COMDAT ??0const_iterator@?$deque@PAUtagACTMSG@@V?$allocator@PAUtagACTMSG@@@std@@@std@@QAE@IPBV12@@Z
_TEXT	SEGMENT PARA USE32 PUBLIC 'CODE'
_TEXT	ENDS
;	COMDAT ??0const_iterator@?$deque@PAUtagMAGICATKMSG@@V?$allocator@PAUtagMAGICATKMSG@@@std@@@std@@QAE@IPBV12@@Z
_TEXT	SEGMENT PARA USE32 PUBLIC 'CODE'
_TEXT	ENDS
;	COMDAT ?begin@?$_Tree@V?$_Tmap_traits@KU_Friend@@U?$less@K@std@@V?$allocator@U?$pair@$$CBKU_Friend@@@std@@@3@$0A@@std@@@std@@QAE?AViterator@12@XZ
_TEXT	SEGMENT PARA USE32 PUBLIC 'CODE'
_TEXT	ENDS
;	COMDAT ?end@?$_Tree@V?$_Tmap_traits@KU_Friend@@U?$less@K@std@@V?$allocator@U?$pair@$$CBKU_Friend@@@std@@@3@$0A@@std@@@std@@QAE?AViterator@12@XZ
_TEXT	SEGMENT PARA USE32 PUBLIC 'CODE'
_TEXT	ENDS
;	COMDAT ?erase@?$_Tree@V?$_Tmap_traits@KU_Friend@@U?$less@K@std@@V?$allocator@U?$pair@$$CBKU_Friend@@@std@@@3@$0A@@std@@@std@@QAE?AViterator@12@V312@@Z
_TEXT	SEGMENT PARA USE32 PUBLIC 'CODE'
_TEXT	ENDS
;	COMDAT ?clear@?$_Tree@V?$_Tmap_traits@KU_Friend@@U?$less@K@std@@V?$allocator@U?$pair@$$CBKU_Friend@@@std@@@3@$0A@@std@@@std@@QAEXXZ
_TEXT	SEGMENT PARA USE32 PUBLIC 'CODE'
_TEXT	ENDS
;	COMDAT ?lower_bound@?$_Tree@V?$_Tmap_traits@KU_Friend@@U?$less@K@std@@V?$allocator@U?$pair@$$CBKU_Friend@@@std@@@3@$0A@@std@@@std@@QAE?AViterator@12@ABK@Z
_TEXT	SEGMENT PARA USE32 PUBLIC 'CODE'
_TEXT	ENDS
;	COMDAT ?upper_bound@?$_Tree@V?$_Tmap_traits@KU_Friend@@U?$less@K@std@@V?$allocator@U?$pair@$$CBKU_Friend@@@std@@@3@$0A@@std@@@std@@QAE?AViterator@12@ABK@Z
_TEXT	SEGMENT PARA USE32 PUBLIC 'CODE'
_TEXT	ENDS
;	COMDAT ??Eiterator@?$_Tree@V?$_Tmap_traits@KU_Friend@@U?$less@K@std@@V?$allocator@U?$pair@$$CBKU_Friend@@@std@@@3@$0A@@std@@@std@@QAE?AV012@H@Z
_TEXT	SEGMENT PARA USE32 PUBLIC 'CODE'
_TEXT	ENDS
;	COMDAT ??8const_iterator@?$_Tree@V?$_Tmap_traits@KU_Friend@@U?$less@K@std@@V?$allocator@U?$pair@$$CBKU_Friend@@@std@@@3@$0A@@std@@@std@@QBE_NABV012@@Z
_TEXT	SEGMENT PARA USE32 PUBLIC 'CODE'
_TEXT	ENDS
;	COMDAT ??9const_iterator@?$_Tree@V?$_Tmap_traits@KU_Friend@@U?$less@K@std@@V?$allocator@U?$pair@$$CBKU_Friend@@@std@@@3@$0A@@std@@@std@@QBE_NABV012@@Z
_TEXT	SEGMENT PARA USE32 PUBLIC 'CODE'
_TEXT	ENDS
;	COMDAT ?_Destroy@?$vector@PAU__JOINPLAYER@CGuildCombat@@V?$allocator@PAU__JOINPLAYER@CGuildCombat@@@std@@@std@@IAEXPAPAU__JOINPLAYER@CGuildCombat@@0@Z
_TEXT	SEGMENT PARA USE32 PUBLIC 'CODE'
_TEXT	ENDS
;	COMDAT ?deallocate@?$allocator@PAU__JOINPLAYER@CGuildCombat@@@std@@QAEXPAPAU__JOINPLAYER@CGuildCombat@@I@Z
_TEXT	SEGMENT PARA USE32 PUBLIC 'CODE'
_TEXT	ENDS
;	COMDAT ?max_size@?$vector@U__SECRETROOM_MONSTER@@V?$allocator@U__SECRETROOM_MONSTER@@@std@@@std@@QBEIXZ
_TEXT	SEGMENT PARA USE32 PUBLIC 'CODE'
_TEXT	ENDS
;	COMDAT ?_Destroy@?$vector@U__SECRETROOM_MONSTER@@V?$allocator@U__SECRETROOM_MONSTER@@@std@@@std@@IAEXPAU__SECRETROOM_MONSTER@@0@Z
_TEXT	SEGMENT PARA USE32 PUBLIC 'CODE'
_TEXT	ENDS
;	COMDAT ?_Xlen@?$vector@U__SECRETROOM_MONSTER@@V?$allocator@U__SECRETROOM_MONSTER@@@std@@@std@@IBEXXZ
_TEXT	SEGMENT PARA USE32 PUBLIC 'CODE'
_TEXT	ENDS
;	COMDAT ??0?$allocator@U__SECRETROOM_MONSTER@@@std@@QAE@ABV01@@Z
_TEXT	SEGMENT PARA USE32 PUBLIC 'CODE'
_TEXT	ENDS
;	COMDAT ?deallocate@?$allocator@U__SECRETROOM_MONSTER@@@std@@QAEXPAU__SECRETROOM_MONSTER@@I@Z
_TEXT	SEGMENT PARA USE32 PUBLIC 'CODE'
_TEXT	ENDS
;	COMDAT ?allocate@?$allocator@U__SECRETROOM_MONSTER@@@std@@QAEPAU__SECRETROOM_MONSTER@@I@Z
_TEXT	SEGMENT PARA USE32 PUBLIC 'CODE'
_TEXT	ENDS
;	COMDAT ?max_size@?$vector@V?$basic_string@DU?$char_traits@D@std@@V?$allocator@D@2@@std@@V?$allocator@V?$basic_string@DU?$char_traits@D@std@@V?$allocator@D@2@@std@@@2@@std@@QBEIXZ
_TEXT	SEGMENT PARA USE32 PUBLIC 'CODE'
_TEXT	ENDS
;	COMDAT ?_Destroy@?$vector@V?$basic_string@DU?$char_traits@D@std@@V?$allocator@D@2@@std@@V?$allocator@V?$basic_string@DU?$char_traits@D@std@@V?$allocator@D@2@@std@@@2@@std@@IAEXPAV?$basic_string@DU?$char_traits@D@std@@V?$allocator@D@2@@2@0@Z
_TEXT	SEGMENT PARA USE32 PUBLIC 'CODE'
_TEXT	ENDS
;	COMDAT ?_Insert_n@?$vector@V?$basic_string@DU?$char_traits@D@std@@V?$allocator@D@2@@std@@V?$allocator@V?$basic_string@DU?$char_traits@D@std@@V?$allocator@D@2@@std@@@2@@std@@IAEXViterator@12@IABV?$basic_string@DU?$char_traits@D@std@@V?$allocator@D@2@@2@@Z
_TEXT	SEGMENT PARA USE32 PUBLIC 'CODE'
_TEXT	ENDS
;	COMDAT ?_Xlen@?$vector@V?$basic_string@DU?$char_traits@D@std@@V?$allocator@D@2@@std@@V?$allocator@V?$basic_string@DU?$char_traits@D@std@@V?$allocator@D@2@@std@@@2@@std@@IBEXXZ
_TEXT	SEGMENT PARA USE32 PUBLIC 'CODE'
_TEXT	ENDS
;	COMDAT ?begin@?$vector@UMINIGMAME_PRIZE_LIST@CRainbowRaceMng@@V?$allocator@UMINIGMAME_PRIZE_LIST@CRainbowRaceMng@@@std@@@std@@QAE?AViterator@12@XZ
_TEXT	SEGMENT PARA USE32 PUBLIC 'CODE'
_TEXT	ENDS
;	COMDAT ?_Insert_n@?$vector@UMINIGMAME_PRIZE_LIST@CRainbowRaceMng@@V?$allocator@UMINIGMAME_PRIZE_LIST@CRainbowRaceMng@@@std@@@std@@IAEXViterator@12@IABUMINIGMAME_PRIZE_LIST@CRainbowRaceMng@@@Z
_TEXT	SEGMENT PARA USE32 PUBLIC 'CODE'
_TEXT	ENDS
;	COMDAT ?_Color@?$_Tree@V?$_Tmap_traits@KPAVCGuildHouseBase@@U?$less@K@std@@V?$allocator@U?$pair@$$CBKPAVCGuildHouseBase@@@std@@@3@$0A@@std@@@std@@KAAADPAU_Node@?$_Tree_nod@V?$_Tmap_traits@KPAVCGuildHouseBase@@U?$less@K@std@@V?$allocator@U?$pair@$$CBKPAVCGuildHouseBase@@@std@@@3@$0A@@std@@@2@@Z
_TEXT	SEGMENT PARA USE32 PUBLIC 'CODE'
_TEXT	ENDS
;	COMDAT ?_Parent@?$_Tree@V?$_Tmap_traits@KPAVCGuildHouseBase@@U?$less@K@std@@V?$allocator@U?$pair@$$CBKPAVCGuildHouseBase@@@std@@@3@$0A@@std@@@std@@KAAAPAU_Node@?$_Tree_nod@V?$_Tmap_traits@KPAVCGuildHouseBase@@U?$less@K@std@@V?$allocator@U?$pair@$$CBKPAVCGuildHouseBase@@@std@@@3@$0A@@std@@@2@PAU342@@Z
_TEXT	SEGMENT PARA USE32 PUBLIC 'CODE'
_TEXT	ENDS
;	COMDAT ?_Myval@?$_Tree@V?$_Tmap_traits@KPAVCGuildHouseBase@@U?$less@K@std@@V?$allocator@U?$pair@$$CBKPAVCGuildHouseBase@@@std@@@3@$0A@@std@@@std@@KAAAU?$pair@$$CBKPAVCGuildHouseBase@@@2@PAU_Node@?$_Tree_nod@V?$_Tmap_traits@KPAVCGuildHouseBase@@U?$less@K@std@@V?$allocator@U?$pair@$$CBKPAVCGuildHouseBase@@@std@@@3@$0A@@std@@@2@@Z
_TEXT	SEGMENT PARA USE32 PUBLIC 'CODE'
_TEXT	ENDS
;	COMDAT ?max_size@?$_Tree@V?$_Tmap_traits@KPAVCGuildHouseBase@@U?$less@K@std@@V?$allocator@U?$pair@$$CBKPAVCGuildHouseBase@@@std@@@3@$0A@@std@@@std@@QBEIXZ
_TEXT	SEGMENT PARA USE32 PUBLIC 'CODE'
_TEXT	ENDS
;	COMDAT ?_Lmost@?$_Tree@V?$_Tmap_traits@KPAVCGuildHouseBase@@U?$less@K@std@@V?$allocator@U?$pair@$$CBKPAVCGuildHouseBase@@@std@@@3@$0A@@std@@@std@@IAEAAPAU_Node@?$_Tree_nod@V?$_Tmap_traits@KPAVCGuildHouseBase@@U?$less@K@std@@V?$allocator@U?$pair@$$CBKPAVCGuildHouseBase@@@std@@@3@$0A@@std@@@2@XZ
_TEXT	SEGMENT PARA USE32 PUBLIC 'CODE'
_TEXT	ENDS
;	COMDAT ?_Lrotate@?$_Tree@V?$_Tmap_traits@KPAVCGuildHouseBase@@U?$less@K@std@@V?$allocator@U?$pair@$$CBKPAVCGuildHouseBase@@@std@@@3@$0A@@std@@@std@@IAEXPAU_Node@?$_Tree_nod@V?$_Tmap_traits@KPAVCGuildHouseBase@@U?$less@K@std@@V?$allocator@U?$pair@$$CBKPAVCGuildHouseBase@@@std@@@3@$0A@@std@@@2@@Z
_TEXT	SEGMENT PARA USE32 PUBLIC 'CODE'
_TEXT	ENDS
;	COMDAT ?_Rmost@?$_Tree@V?$_Tmap_traits@KPAVCGuildHouseBase@@U?$less@K@std@@V?$allocator@U?$pair@$$CBKPAVCGuildHouseBase@@@std@@@3@$0A@@std@@@std@@IAEAAPAU_Node@?$_Tree_nod@V?$_Tmap_traits@KPAVCGuildHouseBase@@U?$less@K@std@@V?$allocator@U?$pair@$$CBKPAVCGuildHouseBase@@@std@@@3@$0A@@std@@@2@XZ
_TEXT	SEGMENT PARA USE32 PUBLIC 'CODE'
_TEXT	ENDS
;	COMDAT ?_Rrotate@?$_Tree@V?$_Tmap_traits@KPAVCGuildHouseBase@@U?$less@K@std@@V?$allocator@U?$pair@$$CBKPAVCGuildHouseBase@@@std@@@3@$0A@@std@@@std@@IAEXPAU_Node@?$_Tree_nod@V?$_Tmap_traits@KPAVCGuildHouseBase@@U?$less@K@std@@V?$allocator@U?$pair@$$CBKPAVCGuildHouseBase@@@std@@@3@$0A@@std@@@2@@Z
_TEXT	SEGMENT PARA USE32 PUBLIC 'CODE'
_TEXT	ENDS
;	COMDAT ?_Buynode@?$_Tree@V?$_Tmap_traits@KPAVCGuildHouseBase@@U?$less@K@std@@V?$allocator@U?$pair@$$CBKPAVCGuildHouseBase@@@std@@@3@$0A@@std@@@std@@IAEPAU_Node@?$_Tree_nod@V?$_Tmap_traits@KPAVCGuildHouseBase@@U?$less@K@std@@V?$allocator@U?$pair@$$CBKPAVCGuildHouseBase@@@std@@@3@$0A@@std@@@2@PAU342@00ABU?$pair@$$CBKPAVCGuildHouseBase@@@2@D@Z
_TEXT	SEGMENT PARA USE32 PUBLIC 'CODE'
_TEXT	ENDS
;	COMDAT ??0const_iterator@?$_Tree@V?$_Tmap_traits@KPAVCGuildHouseBase@@U?$less@K@std@@V?$allocator@U?$pair@$$CBKPAVCGuildHouseBase@@@std@@@3@$0A@@std@@@std@@QAE@PAU_Node@?$_Tree_nod@V?$_Tmap_traits@KPAVCGuildHouseBase@@U?$less@K@std@@V?$allocator@U?$pair@$$CBKPAVCGuildHouseBase@@@std@@@3@$0A@@std@@@2@@Z
_TEXT	SEGMENT PARA USE32 PUBLIC 'CODE'
_TEXT	ENDS
;	COMDAT ??Fconst_iterator@?$_Tree@V?$_Tmap_traits@KPAVCGuildHouseBase@@U?$less@K@std@@V?$allocator@U?$pair@$$CBKPAVCGuildHouseBase@@@std@@@3@$0A@@std@@@std@@QAEAAV012@XZ
_TEXT	SEGMENT PARA USE32 PUBLIC 'CODE'
_TEXT	ENDS
;	COMDAT ?begin@?$_Tree@V?$_Tmap_traits@KKU?$less@K@std@@V?$allocator@U?$pair@$$CBKK@std@@@2@$0A@@std@@@std@@QAE?AViterator@12@XZ
_TEXT	SEGMENT PARA USE32 PUBLIC 'CODE'
_TEXT	ENDS
;	COMDAT ?end@?$_Tree@V?$_Tmap_traits@KKU?$less@K@std@@V?$allocator@U?$pair@$$CBKK@std@@@2@$0A@@std@@@std@@QAE?AViterator@12@XZ
_TEXT	SEGMENT PARA USE32 PUBLIC 'CODE'
_TEXT	ENDS
;	COMDAT ?erase@?$_Tree@V?$_Tmap_traits@KKU?$less@K@std@@V?$allocator@U?$pair@$$CBKK@std@@@2@$0A@@std@@@std@@QAE?AViterator@12@V312@@Z
_TEXT	SEGMENT PARA USE32 PUBLIC 'CODE'
_TEXT	ENDS
;	COMDAT ?clear@?$_Tree@V?$_Tmap_traits@KKU?$less@K@std@@V?$allocator@U?$pair@$$CBKK@std@@@2@$0A@@std@@@std@@QAEXXZ
_TEXT	SEGMENT PARA USE32 PUBLIC 'CODE'
_TEXT	ENDS
;	COMDAT ?lower_bound@?$_Tree@V?$_Tmap_traits@KKU?$less@K@std@@V?$allocator@U?$pair@$$CBKK@std@@@2@$0A@@std@@@std@@QAE?AViterator@12@ABK@Z
_TEXT	SEGMENT PARA USE32 PUBLIC 'CODE'
_TEXT	ENDS
;	COMDAT ?upper_bound@?$_Tree@V?$_Tmap_traits@KKU?$less@K@std@@V?$allocator@U?$pair@$$CBKK@std@@@2@$0A@@std@@@std@@QAE?AViterator@12@ABK@Z
_TEXT	SEGMENT PARA USE32 PUBLIC 'CODE'
_TEXT	ENDS
;	COMDAT ??Eiterator@?$_Tree@V?$_Tmap_traits@KKU?$less@K@std@@V?$allocator@U?$pair@$$CBKK@std@@@2@$0A@@std@@@std@@QAE?AV012@H@Z
_TEXT	SEGMENT PARA USE32 PUBLIC 'CODE'
_TEXT	ENDS
;	COMDAT ??8const_iterator@?$_Tree@V?$_Tmap_traits@KKU?$less@K@std@@V?$allocator@U?$pair@$$CBKK@std@@@2@$0A@@std@@@std@@QBE_NABV012@@Z
_TEXT	SEGMENT PARA USE32 PUBLIC 'CODE'
_TEXT	ENDS
;	COMDAT ??9const_iterator@?$_Tree@V?$_Tmap_traits@KKU?$less@K@std@@V?$allocator@U?$pair@$$CBKK@std@@@2@$0A@@std@@@std@@QBE_NABV012@@Z
_TEXT	SEGMENT PARA USE32 PUBLIC 'CODE'
_TEXT	ENDS
;	COMDAT ?_Left@?$_Tree@V?$_Tmap_traits@KPAVCClientSock@@U?$less@K@std@@V?$allocator@U?$pair@$$CBKPAVCClientSock@@@std@@@3@$0A@@std@@@std@@KAAAPAU_Node@?$_Tree_nod@V?$_Tmap_traits@KPAVCClientSock@@U?$less@K@std@@V?$allocator@U?$pair@$$CBKPAVCClientSock@@@std@@@3@$0A@@std@@@2@PAU342@@Z
_TEXT	SEGMENT PARA USE32 PUBLIC 'CODE'
_TEXT	ENDS
;	COMDAT ?_Parent@?$_Tree@V?$_Tmap_traits@KPAVCClientSock@@U?$less@K@std@@V?$allocator@U?$pair@$$CBKPAVCClientSock@@@std@@@3@$0A@@std@@@std@@KAAAPAU_Node@?$_Tree_nod@V?$_Tmap_traits@KPAVCClientSock@@U?$less@K@std@@V?$allocator@U?$pair@$$CBKPAVCClientSock@@@std@@@3@$0A@@std@@@2@PAU342@@Z
_TEXT	SEGMENT PARA USE32 PUBLIC 'CODE'
_TEXT	ENDS
;	COMDAT ?_Right@?$_Tree@V?$_Tmap_traits@KPAVCClientSock@@U?$less@K@std@@V?$allocator@U?$pair@$$CBKPAVCClientSock@@@std@@@3@$0A@@std@@@std@@KAAAPAU_Node@?$_Tree_nod@V?$_Tmap_traits@KPAVCClientSock@@U?$less@K@std@@V?$allocator@U?$pair@$$CBKPAVCClientSock@@@std@@@3@$0A@@std@@@2@PAU342@@Z
_TEXT	SEGMENT PARA USE32 PUBLIC 'CODE'
_TEXT	ENDS
;	COMDAT ?_Myval@?$_Tree@V?$_Tmap_traits@KPAVCClientSock@@U?$less@K@std@@V?$allocator@U?$pair@$$CBKPAVCClientSock@@@std@@@3@$0A@@std@@@std@@KAAAU?$pair@$$CBKPAVCClientSock@@@2@PAU_Node@?$_Tree_nod@V?$_Tmap_traits@KPAVCClientSock@@U?$less@K@std@@V?$allocator@U?$pair@$$CBKPAVCClientSock@@@std@@@3@$0A@@std@@@2@@Z
_TEXT	SEGMENT PARA USE32 PUBLIC 'CODE'
_TEXT	ENDS
;	COMDAT ?begin@?$_Tree@V?$_Tmap_traits@KPAVCClientSock@@U?$less@K@std@@V?$allocator@U?$pair@$$CBKPAVCClientSock@@@std@@@3@$0A@@std@@@std@@QAE?AViterator@12@XZ
_TEXT	SEGMENT PARA USE32 PUBLIC 'CODE'
_TEXT	ENDS
;	COMDAT ?erase@?$_Tree@V?$_Tmap_traits@KPAVCClientSock@@U?$less@K@std@@V?$allocator@U?$pair@$$CBKPAVCClientSock@@@std@@@3@$0A@@std@@@std@@QAE?AViterator@12@V312@0@Z
_TEXT	SEGMENT PARA USE32 PUBLIC 'CODE'
_TEXT	ENDS
;	COMDAT ?_Init@?$_Tree@V?$_Tmap_traits@KPAVCClientSock@@U?$less@K@std@@V?$allocator@U?$pair@$$CBKPAVCClientSock@@@std@@@3@$0A@@std@@@std@@IAEXXZ
_TEXT	SEGMENT PARA USE32 PUBLIC 'CODE'
_TEXT	ENDS
;	COMDAT ?_Lbound@?$_Tree@V?$_Tmap_traits@KPAVCClientSock@@U?$less@K@std@@V?$allocator@U?$pair@$$CBKPAVCClientSock@@@std@@@3@$0A@@std@@@std@@IBEPAU_Node@?$_Tree_nod@V?$_Tmap_traits@KPAVCClientSock@@U?$less@K@std@@V?$allocator@U?$pair@$$CBKPAVCClientSock@@@std@@@3@$0A@@std@@@2@ABK@Z
_TEXT	SEGMENT PARA USE32 PUBLIC 'CODE'
_TEXT	ENDS
;	COMDAT ??0?$_Tree_val@V?$_Tmap_traits@KPAVCClientSock@@U?$less@K@std@@V?$allocator@U?$pair@$$CBKPAVCClientSock@@@std@@@3@$0A@@std@@@std@@IAE@ABU?$less@K@1@V?$allocator@U?$pair@$$CBKPAVCClientSock@@@std@@@1@@Z
_TEXT	SEGMENT PARA USE32 PUBLIC 'CODE'
_TEXT	ENDS
;	COMDAT ?_Kfn@?$_Tmap_traits@KPAVCClientSock@@U?$less@K@std@@V?$allocator@U?$pair@$$CBKPAVCClientSock@@@std@@@3@$0A@@std@@SAABKABU?$pair@$$CBKPAVCClientSock@@@2@@Z
_TEXT	SEGMENT PARA USE32 PUBLIC 'CODE'
_TEXT	ENDS
;	COMDAT ??0?$allocator@U?$pair@$$CBKPAVCClientSock@@@std@@@std@@QAE@ABV01@@Z
_TEXT	SEGMENT PARA USE32 PUBLIC 'CODE'
_TEXT	ENDS
;	COMDAT ?deallocate@?$allocator@U_Node@?$_Tree_nod@V?$_Tmap_traits@KPAVCClientSock@@U?$less@K@std@@V?$allocator@U?$pair@$$CBKPAVCClientSock@@@std@@@3@$0A@@std@@@std@@@std@@QAEXPAU_Node@?$_Tree_nod@V?$_Tmap_traits@KPAVCClientSock@@U?$less@K@std@@V?$allocator@U?$pair@$$CBKPAVCClientSock@@@std@@@3@$0A@@std@@@2@I@Z
_TEXT	SEGMENT PARA USE32 PUBLIC 'CODE'
_TEXT	ENDS
;	COMDAT ?destroy@?$allocator@PAU_Node@?$_Tree_nod@V?$_Tmap_traits@KPAVCClientSock@@U?$less@K@std@@V?$allocator@U?$pair@$$CBKPAVCClientSock@@@std@@@3@$0A@@std@@@std@@@std@@QAEXPAPAU_Node@?$_Tree_nod@V?$_Tmap_traits@KPAVCClientSock@@U?$less@K@std@@V?$allocator@U?$pair@$$CBKPAVCClientSock@@@std@@@3@$0A@@std@@@2@@Z
_TEXT	SEGMENT PARA USE32 PUBLIC 'CODE'
_TEXT	ENDS
;	COMDAT ??0const_iterator@?$_Tree@V?$_Tmap_traits@KPAVCClientSock@@U?$less@K@std@@V?$allocator@U?$pair@$$CBKPAVCClientSock@@@std@@@3@$0A@@std@@@std@@QAE@PAU_Node@?$_Tree_nod@V?$_Tmap_traits@KPAVCClientSock@@U?$less@K@std@@V?$allocator@U?$pair@$$CBKPAVCClientSock@@@std@@@3@$0A@@std@@@2@@Z
_TEXT	SEGMENT PARA USE32 PUBLIC 'CODE'
_TEXT	ENDS
;	COMDAT ??Dconst_iterator@?$_Tree@V?$_Tmap_traits@KPAVCClientSock@@U?$less@K@std@@V?$allocator@U?$pair@$$CBKPAVCClientSock@@@std@@@3@$0A@@std@@@std@@QBEABU?$pair@$$CBKPAVCClientSock@@@2@XZ
_TEXT	SEGMENT PARA USE32 PUBLIC 'CODE'
_TEXT	ENDS
;	COMDAT ?_Left@?$_Tree@V?$_Tmap_traits@KPAVCClientSockE@@U?$less@K@std@@V?$allocator@U?$pair@$$CBKPAVCClientSockE@@@std@@@3@$0A@@std@@@std@@KAAAPAU_Node@?$_Tree_nod@V?$_Tmap_traits@KPAVCClientSockE@@U?$less@K@std@@V?$allocator@U?$pair@$$CBKPAVCClientSockE@@@std@@@3@$0A@@std@@@2@PAU342@@Z
_TEXT	SEGMENT PARA USE32 PUBLIC 'CODE'
_TEXT	ENDS
;	COMDAT ?_Parent@?$_Tree@V?$_Tmap_traits@KPAVCClientSockE@@U?$less@K@std@@V?$allocator@U?$pair@$$CBKPAVCClientSockE@@@std@@@3@$0A@@std@@@std@@KAAAPAU_Node@?$_Tree_nod@V?$_Tmap_traits@KPAVCClientSockE@@U?$less@K@std@@V?$allocator@U?$pair@$$CBKPAVCClientSockE@@@std@@@3@$0A@@std@@@2@PAU342@@Z
_TEXT	SEGMENT PARA USE32 PUBLIC 'CODE'
_TEXT	ENDS
;	COMDAT ?_Right@?$_Tree@V?$_Tmap_traits@KPAVCClientSockE@@U?$less@K@std@@V?$allocator@U?$pair@$$CBKPAVCClientSockE@@@std@@@3@$0A@@std@@@std@@KAAAPAU_Node@?$_Tree_nod@V?$_Tmap_traits@KPAVCClientSockE@@U?$less@K@std@@V?$allocator@U?$pair@$$CBKPAVCClientSockE@@@std@@@3@$0A@@std@@@2@PAU342@@Z
_TEXT	SEGMENT PARA USE32 PUBLIC 'CODE'
_TEXT	ENDS
;	COMDAT ?_Myval@?$_Tree@V?$_Tmap_traits@KPAVCClientSockE@@U?$less@K@std@@V?$allocator@U?$pair@$$CBKPAVCClientSockE@@@std@@@3@$0A@@std@@@std@@KAAAU?$pair@$$CBKPAVCClientSockE@@@2@PAU_Node@?$_Tree_nod@V?$_Tmap_traits@KPAVCClientSockE@@U?$less@K@std@@V?$allocator@U?$pair@$$CBKPAVCClientSockE@@@std@@@3@$0A@@std@@@2@@Z
_TEXT	SEGMENT PARA USE32 PUBLIC 'CODE'
_TEXT	ENDS
;	COMDAT ?begin@?$_Tree@V?$_Tmap_traits@KPAVCClientSockE@@U?$less@K@std@@V?$allocator@U?$pair@$$CBKPAVCClientSockE@@@std@@@3@$0A@@std@@@std@@QAE?AViterator@12@XZ
_TEXT	SEGMENT PARA USE32 PUBLIC 'CODE'
_TEXT	ENDS
;	COMDAT ?erase@?$_Tree@V?$_Tmap_traits@KPAVCClientSockE@@U?$less@K@std@@V?$allocator@U?$pair@$$CBKPAVCClientSockE@@@std@@@3@$0A@@std@@@std@@QAE?AViterator@12@V312@0@Z
_TEXT	SEGMENT PARA USE32 PUBLIC 'CODE'
_TEXT	ENDS
;	COMDAT ?_Init@?$_Tree@V?$_Tmap_traits@KPAVCClientSockE@@U?$less@K@std@@V?$allocator@U?$pair@$$CBKPAVCClientSockE@@@std@@@3@$0A@@std@@@std@@IAEXXZ
_TEXT	SEGMENT PARA USE32 PUBLIC 'CODE'
_TEXT	ENDS
;	COMDAT ?_Lbound@?$_Tree@V?$_Tmap_traits@KPAVCClientSockE@@U?$less@K@std@@V?$allocator@U?$pair@$$CBKPAVCClientSockE@@@std@@@3@$0A@@std@@@std@@IBEPAU_Node@?$_Tree_nod@V?$_Tmap_traits@KPAVCClientSockE@@U?$less@K@std@@V?$allocator@U?$pair@$$CBKPAVCClientSockE@@@std@@@3@$0A@@std@@@2@ABK@Z
_TEXT	SEGMENT PARA USE32 PUBLIC 'CODE'
_TEXT	ENDS
;	COMDAT ??0?$_Tree_val@V?$_Tmap_traits@KPAVCClientSockE@@U?$less@K@std@@V?$allocator@U?$pair@$$CBKPAVCClientSockE@@@std@@@3@$0A@@std@@@std@@IAE@ABU?$less@K@1@V?$allocator@U?$pair@$$CBKPAVCClientSockE@@@std@@@1@@Z
_TEXT	SEGMENT PARA USE32 PUBLIC 'CODE'
_TEXT	ENDS
;	COMDAT ?_Kfn@?$_Tmap_traits@KPAVCClientSockE@@U?$less@K@std@@V?$allocator@U?$pair@$$CBKPAVCClientSockE@@@std@@@3@$0A@@std@@SAABKABU?$pair@$$CBKPAVCClientSockE@@@2@@Z
_TEXT	SEGMENT PARA USE32 PUBLIC 'CODE'
_TEXT	ENDS
;	COMDAT ??0?$allocator@U?$pair@$$CBKPAVCClientSockE@@@std@@@std@@QAE@ABV01@@Z
_TEXT	SEGMENT PARA USE32 PUBLIC 'CODE'
_TEXT	ENDS
;	COMDAT ?deallocate@?$allocator@U_Node@?$_Tree_nod@V?$_Tmap_traits@KPAVCClientSockE@@U?$less@K@std@@V?$allocator@U?$pair@$$CBKPAVCClientSockE@@@std@@@3@$0A@@std@@@std@@@std@@QAEXPAU_Node@?$_Tree_nod@V?$_Tmap_traits@KPAVCClientSockE@@U?$less@K@std@@V?$allocator@U?$pair@$$CBKPAVCClientSockE@@@std@@@3@$0A@@std@@@2@I@Z
_TEXT	SEGMENT PARA USE32 PUBLIC 'CODE'
_TEXT	ENDS
;	COMDAT ?destroy@?$allocator@PAU_Node@?$_Tree_nod@V?$_Tmap_traits@KPAVCClientSockE@@U?$less@K@std@@V?$allocator@U?$pair@$$CBKPAVCClientSockE@@@std@@@3@$0A@@std@@@std@@@std@@QAEXPAPAU_Node@?$_Tree_nod@V?$_Tmap_traits@KPAVCClientSockE@@U?$less@K@std@@V?$allocator@U?$pair@$$CBKPAVCClientSockE@@@std@@@3@$0A@@std@@@2@@Z
_TEXT	SEGMENT PARA USE32 PUBLIC 'CODE'
_TEXT	ENDS
;	COMDAT ??0const_iterator@?$_Tree@V?$_Tmap_traits@KPAVCClientSockE@@U?$less@K@std@@V?$allocator@U?$pair@$$CBKPAVCClientSockE@@@std@@@3@$0A@@std@@@std@@QAE@PAU_Node@?$_Tree_nod@V?$_Tmap_traits@KPAVCClientSockE@@U?$less@K@std@@V?$allocator@U?$pair@$$CBKPAVCClientSockE@@@std@@@3@$0A@@std@@@2@@Z
_TEXT	SEGMENT PARA USE32 PUBLIC 'CODE'
_TEXT	ENDS
;	COMDAT ??Dconst_iterator@?$_Tree@V?$_Tmap_traits@KPAVCClientSockE@@U?$less@K@std@@V?$allocator@U?$pair@$$CBKPAVCClientSockE@@@std@@@3@$0A@@std@@@std@@QBEABU?$pair@$$CBKPAVCClientSockE@@@2@XZ
_TEXT	SEGMENT PARA USE32 PUBLIC 'CODE'
_TEXT	ENDS
;	COMDAT ?_Myval@?$_Tree@V?$_Tmap_traits@KP8CDPCoreClient@@AEXAAVCAr@@KKK@ZU?$less@K@std@@V?$allocator@U?$pair@$$CBKP8CDPCoreClient@@AEXAAVCAr@@KKK@Z@std@@@4@$0A@@std@@@std@@KAAAU?$pair@$$CBKP8CDPCoreClient@@AEXAAVCAr@@KKK@Z@2@PAU_Node@?$_Tree_nod@V?$_Tmap_traits@KP8CDPCoreClient@@AEXAAVCAr@@KKK@ZU?$less@K@std@@V?$allocator@U?$pair@$$CBKP8CDPCoreClient@@AEXAAVCAr@@KKK@Z@std@@@4@$0A@@std@@@2@@Z
_TEXT	SEGMENT PARA USE32 PUBLIC 'CODE'
_TEXT	ENDS
;	COMDAT ?_Lbound@?$_Tree@V?$_Tmap_traits@KP8CDPCoreClient@@AEXAAVCAr@@KKK@ZU?$less@K@std@@V?$allocator@U?$pair@$$CBKP8CDPCoreClient@@AEXAAVCAr@@KKK@Z@std@@@4@$0A@@std@@@std@@IBEPAU_Node@?$_Tree_nod@V?$_Tmap_traits@KP8CDPCoreClient@@AEXAAVCAr@@KKK@ZU?$less@K@std@@V?$allocator@U?$pair@$$CBKP8CDPCoreClient@@AEXAAVCAr@@KKK@Z@std@@@4@$0A@@std@@@2@ABK@Z
_TEXT	SEGMENT PARA USE32 PUBLIC 'CODE'
_TEXT	ENDS
;	COMDAT ?_Kfn@?$_Tmap_traits@KP8CDPCoreClient@@AEXAAVCAr@@KKK@ZU?$less@K@std@@V?$allocator@U?$pair@$$CBKP8CDPCoreClient@@AEXAAVCAr@@KKK@Z@std@@@4@$0A@@std@@SAABKABU?$pair@$$CBKP8CDPCoreClient@@AEXAAVCAr@@KKK@Z@2@@Z
_TEXT	SEGMENT PARA USE32 PUBLIC 'CODE'
_TEXT	ENDS
;	COMDAT ??0const_iterator@?$_Tree@V?$_Tmap_traits@KP8CDPCoreClient@@AEXAAVCAr@@KKK@ZU?$less@K@std@@V?$allocator@U?$pair@$$CBKP8CDPCoreClient@@AEXAAVCAr@@KKK@Z@std@@@4@$0A@@std@@@std@@QAE@PAU_Node@?$_Tree_nod@V?$_Tmap_traits@KP8CDPCoreClient@@AEXAAVCAr@@KKK@ZU?$less@K@std@@V?$allocator@U?$pair@$$CBKP8CDPCoreClient@@AEXAAVCAr@@KKK@Z@std@@@4@$0A@@std@@@2@@Z
_TEXT	SEGMENT PARA USE32 PUBLIC 'CODE'
_TEXT	ENDS
;	COMDAT ??Dconst_iterator@?$_Tree@V?$_Tmap_traits@KP8CDPCoreClient@@AEXAAVCAr@@KKK@ZU?$less@K@std@@V?$allocator@U?$pair@$$CBKP8CDPCoreClient@@AEXAAVCAr@@KKK@Z@std@@@4@$0A@@std@@@std@@QBEABU?$pair@$$CBKP8CDPCoreClient@@AEXAAVCAr@@KKK@Z@2@XZ
_TEXT	SEGMENT PARA USE32 PUBLIC 'CODE'
_TEXT	ENDS
;	COMDAT ??0?$pair@Viterator@?$_Tree@V?$_Tmap_traits@KU_Friend@@U?$less@K@std@@V?$allocator@U?$pair@$$CBKU_Friend@@@std@@@3@$0A@@std@@@std@@V123@@std@@QAE@ABViterator@?$_Tree@V?$_Tmap_traits@KU_Friend@@U?$less@K@std@@V?$allocator@U?$pair@$$CBKU_Friend@@@std@@@3@$0A@@std@@@1@0@Z
_TEXT	SEGMENT PARA USE32 PUBLIC 'CODE'
_TEXT	ENDS
;	COMDAT ??0iterator@?$vector@PAU__JOINPLAYER@CGuildCombat@@V?$allocator@PAU__JOINPLAYER@CGuildCombat@@@std@@@std@@QAE@PAPAU__JOINPLAYER@CGuildCombat@@@Z
_TEXT	SEGMENT PARA USE32 PUBLIC 'CODE'
_TEXT	ENDS
;	COMDAT ??Yiterator@?$vector@PAU__JOINPLAYER@CGuildCombat@@V?$allocator@PAU__JOINPLAYER@CGuildCombat@@@std@@@std@@QAEAAV012@H@Z
_TEXT	SEGMENT PARA USE32 PUBLIC 'CODE'
_TEXT	ENDS
;	COMDAT ??Dconst_iterator@?$vector@PAU__JOINPLAYER@CGuildCombat@@V?$allocator@PAU__JOINPLAYER@CGuildCombat@@@std@@@std@@QBEABQAU__JOINPLAYER@CGuildCombat@@XZ
_TEXT	SEGMENT PARA USE32 PUBLIC 'CODE'
_TEXT	ENDS
;	COMDAT ??0iterator@?$vector@V?$basic_string@DU?$char_traits@D@std@@V?$allocator@D@2@@std@@V?$allocator@V?$basic_string@DU?$char_traits@D@std@@V?$allocator@D@2@@std@@@2@@std@@QAE@PAV?$basic_string@DU?$char_traits@D@std@@V?$allocator@D@2@@2@@Z
_TEXT	SEGMENT PARA USE32 PUBLIC 'CODE'
_TEXT	ENDS
;	COMDAT ??Yiterator@?$vector@V?$basic_string@DU?$char_traits@D@std@@V?$allocator@D@2@@std@@V?$allocator@V?$basic_string@DU?$char_traits@D@std@@V?$allocator@D@2@@std@@@2@@std@@QAEAAV012@H@Z
_TEXT	SEGMENT PARA USE32 PUBLIC 'CODE'
_TEXT	ENDS
;	COMDAT ??Giterator@?$vector@V?$basic_string@DU?$char_traits@D@std@@V?$allocator@D@2@@std@@V?$allocator@V?$basic_string@DU?$char_traits@D@std@@V?$allocator@D@2@@std@@@2@@std@@QBEHABVconst_iterator@12@@Z
_TEXT	SEGMENT PARA USE32 PUBLIC 'CODE'
_TEXT	ENDS
;	COMDAT ??Dconst_iterator@?$vector@V?$basic_string@DU?$char_traits@D@std@@V?$allocator@D@2@@std@@V?$allocator@V?$basic_string@DU?$char_traits@D@std@@V?$allocator@D@2@@std@@@2@@std@@QBEABV?$basic_string@DU?$char_traits@D@std@@V?$allocator@D@2@@2@XZ
_TEXT	SEGMENT PARA USE32 PUBLIC 'CODE'
_TEXT	ENDS
;	COMDAT ??0iterator@?$vector@UMINIGMAME_PRIZE_LIST@CRainbowRaceMng@@V?$allocator@UMINIGMAME_PRIZE_LIST@CRainbowRaceMng@@@std@@@std@@QAE@PAUMINIGMAME_PRIZE_LIST@CRainbowRaceMng@@@Z
_TEXT	SEGMENT PARA USE32 PUBLIC 'CODE'
_TEXT	ENDS
;	COMDAT ??Hiterator@?$vector@UMINIGMAME_PRIZE_LIST@CRainbowRaceMng@@V?$allocator@UMINIGMAME_PRIZE_LIST@CRainbowRaceMng@@@std@@@std@@QBE?AV012@H@Z
_TEXT	SEGMENT PARA USE32 PUBLIC 'CODE'
_TEXT	ENDS
;	COMDAT ??Giterator@?$vector@UMINIGMAME_PRIZE_LIST@CRainbowRaceMng@@V?$allocator@UMINIGMAME_PRIZE_LIST@CRainbowRaceMng@@@std@@@std@@QBEHABVconst_iterator@12@@Z
_TEXT	SEGMENT PARA USE32 PUBLIC 'CODE'
_TEXT	ENDS
;	COMDAT ??0iterator@?$vector@PAVCMiniGameBase@@V?$allocator@PAVCMiniGameBase@@@std@@@std@@QAE@PAPAVCMiniGameBase@@@Z
_TEXT	SEGMENT PARA USE32 PUBLIC 'CODE'
_TEXT	ENDS
;	COMDAT ??Yiterator@?$vector@PAVCMiniGameBase@@V?$allocator@PAVCMiniGameBase@@@std@@@std@@QAEAAV012@H@Z
_TEXT	SEGMENT PARA USE32 PUBLIC 'CODE'
_TEXT	ENDS
;	COMDAT ??Dconst_iterator@?$vector@PAVCMiniGameBase@@V?$allocator@PAVCMiniGameBase@@@std@@@std@@QBEABQAVCMiniGameBase@@XZ
_TEXT	SEGMENT PARA USE32 PUBLIC 'CODE'
_TEXT	ENDS
;	COMDAT ??0iterator@?$vector@UGuildHouse_Furniture_Info@CGuildHouseBase@@V?$allocator@UGuildHouse_Furniture_Info@CGuildHouseBase@@@std@@@std@@QAE@PAUGuildHouse_Furniture_Info@CGuildHouseBase@@@Z
_TEXT	SEGMENT PARA USE32 PUBLIC 'CODE'
_TEXT	ENDS
;	COMDAT ??Yiterator@?$vector@UGuildHouse_Furniture_Info@CGuildHouseBase@@V?$allocator@UGuildHouse_Furniture_Info@CGuildHouseBase@@@std@@@std@@QAEAAV012@H@Z
_TEXT	SEGMENT PARA USE32 PUBLIC 'CODE'
_TEXT	ENDS
;	COMDAT ??Dconst_iterator@?$vector@UGuildHouse_Furniture_Info@CGuildHouseBase@@V?$allocator@UGuildHouse_Furniture_Info@CGuildHouseBase@@@std@@@std@@QBEABUGuildHouse_Furniture_Info@CGuildHouseBase@@XZ
_TEXT	SEGMENT PARA USE32 PUBLIC 'CODE'
_TEXT	ENDS
;	COMDAT ??0?$pair@Viterator@?$_Tree@V?$_Tmap_traits@KKU?$less@K@std@@V?$allocator@U?$pair@$$CBKK@std@@@2@$0A@@std@@@std@@V123@@std@@QAE@ABViterator@?$_Tree@V?$_Tmap_traits@KKU?$less@K@std@@V?$allocator@U?$pair@$$CBKK@std@@@2@$0A@@std@@@1@0@Z
_TEXT	SEGMENT PARA USE32 PUBLIC 'CODE'
_TEXT	ENDS
;	COMDAT ?max_size@?$allocator@V?$basic_string@DU?$char_traits@D@std@@V?$allocator@D@2@@std@@@std@@QBEIXZ
_TEXT	SEGMENT PARA USE32 PUBLIC 'CODE'
_TEXT	ENDS
;	COMDAT ??0const_iterator@?$_Tree@V?$_Tmap_traits@KPAVCCtrl@@U?$less@K@std@@V?$allocator@U?$pair@$$CBKPAVCCtrl@@@std@@@3@$0A@@std@@@std@@QAE@XZ
_TEXT	SEGMENT PARA USE32 PUBLIC 'CODE'
_TEXT	ENDS
;	COMDAT ?destroy@?$allocator@PAUtagACTMSG@@@std@@QAEXPAPAUtagACTMSG@@@Z
_TEXT	SEGMENT PARA USE32 PUBLIC 'CODE'
_TEXT	ENDS
;	COMDAT ?destroy@?$allocator@PAUtagMAGICATKMSG@@@std@@QAEXPAPAUtagMAGICATKMSG@@@Z
_TEXT	SEGMENT PARA USE32 PUBLIC 'CODE'
_TEXT	ENDS
;	COMDAT ?_Color@?$_Tree@V?$_Tmap_traits@KU_Friend@@U?$less@K@std@@V?$allocator@U?$pair@$$CBKU_Friend@@@std@@@3@$0A@@std@@@std@@KAAADPAU_Node@?$_Tree_nod@V?$_Tmap_traits@KU_Friend@@U?$less@K@std@@V?$allocator@U?$pair@$$CBKU_Friend@@@std@@@3@$0A@@std@@@2@@Z
_TEXT	SEGMENT PARA USE32 PUBLIC 'CODE'
_TEXT	ENDS
;	COMDAT ?_Isnil@?$_Tree@V?$_Tmap_traits@KU_Friend@@U?$less@K@std@@V?$allocator@U?$pair@$$CBKU_Friend@@@std@@@3@$0A@@std@@@std@@KAAADPAU_Node@?$_Tree_nod@V?$_Tmap_traits@KU_Friend@@U?$less@K@std@@V?$allocator@U?$pair@$$CBKU_Friend@@@std@@@3@$0A@@std@@@2@@Z
_TEXT	SEGMENT PARA USE32 PUBLIC 'CODE'
_TEXT	ENDS
;	COMDAT ?_Left@?$_Tree@V?$_Tmap_traits@KU_Friend@@U?$less@K@std@@V?$allocator@U?$pair@$$CBKU_Friend@@@std@@@3@$0A@@std@@@std@@KAAAPAU_Node@?$_Tree_nod@V?$_Tmap_traits@KU_Friend@@U?$less@K@std@@V?$allocator@U?$pair@$$CBKU_Friend@@@std@@@3@$0A@@std@@@2@PAU342@@Z
_TEXT	SEGMENT PARA USE32 PUBLIC 'CODE'
_TEXT	ENDS
;	COMDAT ?_Parent@?$_Tree@V?$_Tmap_traits@KU_Friend@@U?$less@K@std@@V?$allocator@U?$pair@$$CBKU_Friend@@@std@@@3@$0A@@std@@@std@@KAAAPAU_Node@?$_Tree_nod@V?$_Tmap_traits@KU_Friend@@U?$less@K@std@@V?$allocator@U?$pair@$$CBKU_Friend@@@std@@@3@$0A@@std@@@2@PAU342@@Z
_TEXT	SEGMENT PARA USE32 PUBLIC 'CODE'
_TEXT	ENDS
;	COMDAT ?_Right@?$_Tree@V?$_Tmap_traits@KU_Friend@@U?$less@K@std@@V?$allocator@U?$pair@$$CBKU_Friend@@@std@@@3@$0A@@std@@@std@@KAAAPAU_Node@?$_Tree_nod@V?$_Tmap_traits@KU_Friend@@U?$less@K@std@@V?$allocator@U?$pair@$$CBKU_Friend@@@std@@@3@$0A@@std@@@2@PAU342@@Z
_TEXT	SEGMENT PARA USE32 PUBLIC 'CODE'
_TEXT	ENDS
;	COMDAT ?_Erase@?$_Tree@V?$_Tmap_traits@KU_Friend@@U?$less@K@std@@V?$allocator@U?$pair@$$CBKU_Friend@@@std@@@3@$0A@@std@@@std@@IAEXPAU_Node@?$_Tree_nod@V?$_Tmap_traits@KU_Friend@@U?$less@K@std@@V?$allocator@U?$pair@$$CBKU_Friend@@@std@@@3@$0A@@std@@@2@@Z
_TEXT	SEGMENT PARA USE32 PUBLIC 'CODE'
_TEXT	ENDS
;	COMDAT ?_Lbound@?$_Tree@V?$_Tmap_traits@KU_Friend@@U?$less@K@std@@V?$allocator@U?$pair@$$CBKU_Friend@@@std@@@3@$0A@@std@@@std@@IBEPAU_Node@?$_Tree_nod@V?$_Tmap_traits@KU_Friend@@U?$less@K@std@@V?$allocator@U?$pair@$$CBKU_Friend@@@std@@@3@$0A@@std@@@2@ABK@Z
_TEXT	SEGMENT PARA USE32 PUBLIC 'CODE'
_TEXT	ENDS
;	COMDAT ?_Lmost@?$_Tree@V?$_Tmap_traits@KU_Friend@@U?$less@K@std@@V?$allocator@U?$pair@$$CBKU_Friend@@@std@@@3@$0A@@std@@@std@@IAEAAPAU_Node@?$_Tree_nod@V?$_Tmap_traits@KU_Friend@@U?$less@K@std@@V?$allocator@U?$pair@$$CBKU_Friend@@@std@@@3@$0A@@std@@@2@XZ
_TEXT	SEGMENT PARA USE32 PUBLIC 'CODE'
_TEXT	ENDS
;	COMDAT ?_Lrotate@?$_Tree@V?$_Tmap_traits@KU_Friend@@U?$less@K@std@@V?$allocator@U?$pair@$$CBKU_Friend@@@std@@@3@$0A@@std@@@std@@IAEXPAU_Node@?$_Tree_nod@V?$_Tmap_traits@KU_Friend@@U?$less@K@std@@V?$allocator@U?$pair@$$CBKU_Friend@@@std@@@3@$0A@@std@@@2@@Z
_TEXT	SEGMENT PARA USE32 PUBLIC 'CODE'
_TEXT	ENDS
;	COMDAT ?_Max@?$_Tree@V?$_Tmap_traits@KU_Friend@@U?$less@K@std@@V?$allocator@U?$pair@$$CBKU_Friend@@@std@@@3@$0A@@std@@@std@@KAPAU_Node@?$_Tree_nod@V?$_Tmap_traits@KU_Friend@@U?$less@K@std@@V?$allocator@U?$pair@$$CBKU_Friend@@@std@@@3@$0A@@std@@@2@PAU342@@Z
_TEXT	SEGMENT PARA USE32 PUBLIC 'CODE'
_TEXT	ENDS
;	COMDAT ?_Min@?$_Tree@V?$_Tmap_traits@KU_Friend@@U?$less@K@std@@V?$allocator@U?$pair@$$CBKU_Friend@@@std@@@3@$0A@@std@@@std@@KAPAU_Node@?$_Tree_nod@V?$_Tmap_traits@KU_Friend@@U?$less@K@std@@V?$allocator@U?$pair@$$CBKU_Friend@@@std@@@3@$0A@@std@@@2@PAU342@@Z
_TEXT	SEGMENT PARA USE32 PUBLIC 'CODE'
_TEXT	ENDS
;	COMDAT ?_Rmost@?$_Tree@V?$_Tmap_traits@KU_Friend@@U?$less@K@std@@V?$allocator@U?$pair@$$CBKU_Friend@@@std@@@3@$0A@@std@@@std@@IAEAAPAU_Node@?$_Tree_nod@V?$_Tmap_traits@KU_Friend@@U?$less@K@std@@V?$allocator@U?$pair@$$CBKU_Friend@@@std@@@3@$0A@@std@@@2@XZ
_TEXT	SEGMENT PARA USE32 PUBLIC 'CODE'
_TEXT	ENDS
;	COMDAT ?_Root@?$_Tree@V?$_Tmap_traits@KU_Friend@@U?$less@K@std@@V?$allocator@U?$pair@$$CBKU_Friend@@@std@@@3@$0A@@std@@@std@@IAEAAPAU_Node@?$_Tree_nod@V?$_Tmap_traits@KU_Friend@@U?$less@K@std@@V?$allocator@U?$pair@$$CBKU_Friend@@@std@@@3@$0A@@std@@@2@XZ
_TEXT	SEGMENT PARA USE32 PUBLIC 'CODE'
_TEXT	ENDS
;	COMDAT ?_Rrotate@?$_Tree@V?$_Tmap_traits@KU_Friend@@U?$less@K@std@@V?$allocator@U?$pair@$$CBKU_Friend@@@std@@@3@$0A@@std@@@std@@IAEXPAU_Node@?$_Tree_nod@V?$_Tmap_traits@KU_Friend@@U?$less@K@std@@V?$allocator@U?$pair@$$CBKU_Friend@@@std@@@3@$0A@@std@@@2@@Z
_TEXT	SEGMENT PARA USE32 PUBLIC 'CODE'
_TEXT	ENDS
;	COMDAT ?_Ubound@?$_Tree@V?$_Tmap_traits@KU_Friend@@U?$less@K@std@@V?$allocator@U?$pair@$$CBKU_Friend@@@std@@@3@$0A@@std@@@std@@IBEPAU_Node@?$_Tree_nod@V?$_Tmap_traits@KU_Friend@@U?$less@K@std@@V?$allocator@U?$pair@$$CBKU_Friend@@@std@@@3@$0A@@std@@@2@ABK@Z
_TEXT	SEGMENT PARA USE32 PUBLIC 'CODE'
_TEXT	ENDS
;	COMDAT ?deallocate@?$allocator@U_Node@?$_Tree_nod@V?$_Tmap_traits@KU_Friend@@U?$less@K@std@@V?$allocator@U?$pair@$$CBKU_Friend@@@std@@@3@$0A@@std@@@std@@@std@@QAEXPAU_Node@?$_Tree_nod@V?$_Tmap_traits@KU_Friend@@U?$less@K@std@@V?$allocator@U?$pair@$$CBKU_Friend@@@std@@@3@$0A@@std@@@2@I@Z
_TEXT	SEGMENT PARA USE32 PUBLIC 'CODE'
_TEXT	ENDS
;	COMDAT ?destroy@?$allocator@U_Node@?$_Tree_nod@V?$_Tmap_traits@KU_Friend@@U?$less@K@std@@V?$allocator@U?$pair@$$CBKU_Friend@@@std@@@3@$0A@@std@@@std@@@std@@QAEXPAU_Node@?$_Tree_nod@V?$_Tmap_traits@KU_Friend@@U?$less@K@std@@V?$allocator@U?$pair@$$CBKU_Friend@@@std@@@3@$0A@@std@@@2@@Z
_TEXT	SEGMENT PARA USE32 PUBLIC 'CODE'
_TEXT	ENDS
;	COMDAT ??0iterator@?$_Tree@V?$_Tmap_traits@KU_Friend@@U?$less@K@std@@V?$allocator@U?$pair@$$CBKU_Friend@@@std@@@3@$0A@@std@@@std@@QAE@PAU_Node@?$_Tree_nod@V?$_Tmap_traits@KU_Friend@@U?$less@K@std@@V?$allocator@U?$pair@$$CBKU_Friend@@@std@@@3@$0A@@std@@@2@@Z
_TEXT	SEGMENT PARA USE32 PUBLIC 'CODE'
_TEXT	ENDS
;	COMDAT ??Eiterator@?$_Tree@V?$_Tmap_traits@KU_Friend@@U?$less@K@std@@V?$allocator@U?$pair@$$CBKU_Friend@@@std@@@3@$0A@@std@@@std@@QAEAAV012@XZ
_TEXT	SEGMENT PARA USE32 PUBLIC 'CODE'
_TEXT	ENDS
;	COMDAT ?_Mynode@const_iterator@?$_Tree@V?$_Tmap_traits@KU_Friend@@U?$less@K@std@@V?$allocator@U?$pair@$$CBKU_Friend@@@std@@@3@$0A@@std@@@std@@QBEPAU_Node@?$_Tree_nod@V?$_Tmap_traits@KU_Friend@@U?$less@K@std@@V?$allocator@U?$pair@$$CBKU_Friend@@@std@@@3@$0A@@std@@@3@XZ
_TEXT	SEGMENT PARA USE32 PUBLIC 'CODE'
_TEXT	ENDS
;	COMDAT ?max_size@?$allocator@U__SECRETROOM_MONSTER@@@std@@QBEIXZ
_TEXT	SEGMENT PARA USE32 PUBLIC 'CODE'
_TEXT	ENDS
;	COMDAT ?max_size@?$vector@UMINIGMAME_PRIZE_LIST@CRainbowRaceMng@@V?$allocator@UMINIGMAME_PRIZE_LIST@CRainbowRaceMng@@@std@@@std@@QBEIXZ
_TEXT	SEGMENT PARA USE32 PUBLIC 'CODE'
_TEXT	ENDS
;	COMDAT ?_Destroy@?$vector@UMINIGMAME_PRIZE_LIST@CRainbowRaceMng@@V?$allocator@UMINIGMAME_PRIZE_LIST@CRainbowRaceMng@@@std@@@std@@IAEXPAUMINIGMAME_PRIZE_LIST@CRainbowRaceMng@@0@Z
_TEXT	SEGMENT PARA USE32 PUBLIC 'CODE'
_TEXT	ENDS
;	COMDAT ?_Xlen@?$vector@UMINIGMAME_PRIZE_LIST@CRainbowRaceMng@@V?$allocator@UMINIGMAME_PRIZE_LIST@CRainbowRaceMng@@@std@@@std@@IBEXXZ
_TEXT	SEGMENT PARA USE32 PUBLIC 'CODE'
_TEXT	ENDS
;	COMDAT ?deallocate@?$allocator@UMINIGMAME_PRIZE_LIST@CRainbowRaceMng@@@std@@QAEXPAUMINIGMAME_PRIZE_LIST@CRainbowRaceMng@@I@Z
_TEXT	SEGMENT PARA USE32 PUBLIC 'CODE'
_TEXT	ENDS
;	COMDAT ?allocate@?$allocator@UMINIGMAME_PRIZE_LIST@CRainbowRaceMng@@@std@@QAEPAUMINIGMAME_PRIZE_LIST@CRainbowRaceMng@@I@Z
_TEXT	SEGMENT PARA USE32 PUBLIC 'CODE'
_TEXT	ENDS
;	COMDAT ?max_size@?$allocator@U?$pair@$$CBKPAVCGuildHouseBase@@@std@@@std@@QBEIXZ
_TEXT	SEGMENT PARA USE32 PUBLIC 'CODE'
_TEXT	ENDS
;	COMDAT ?deallocate@?$allocator@U_Node@?$_Tree_nod@V?$_Tmap_traits@KPAVCGuildHouseBase@@U?$less@K@std@@V?$allocator@U?$pair@$$CBKPAVCGuildHouseBase@@@std@@@3@$0A@@std@@@std@@@std@@QAEXPAU_Node@?$_Tree_nod@V?$_Tmap_traits@KPAVCGuildHouseBase@@U?$less@K@std@@V?$allocator@U?$pair@$$CBKPAVCGuildHouseBase@@@std@@@3@$0A@@std@@@2@I@Z
_TEXT	SEGMENT PARA USE32 PUBLIC 'CODE'
_TEXT	ENDS
;	COMDAT ?allocate@?$allocator@U_Node@?$_Tree_nod@V?$_Tmap_traits@KPAVCGuildHouseBase@@U?$less@K@std@@V?$allocator@U?$pair@$$CBKPAVCGuildHouseBase@@@std@@@3@$0A@@std@@@std@@@std@@QAEPAU_Node@?$_Tree_nod@V?$_Tmap_traits@KPAVCGuildHouseBase@@U?$less@K@std@@V?$allocator@U?$pair@$$CBKPAVCGuildHouseBase@@@std@@@3@$0A@@std@@@2@I@Z
_TEXT	SEGMENT PARA USE32 PUBLIC 'CODE'
_TEXT	ENDS
;	COMDAT ?_Dec@const_iterator@?$_Tree@V?$_Tmap_traits@KPAVCGuildHouseBase@@U?$less@K@std@@V?$allocator@U?$pair@$$CBKPAVCGuildHouseBase@@@std@@@3@$0A@@std@@@std@@QAEXXZ
_TEXT	SEGMENT PARA USE32 PUBLIC 'CODE'
_TEXT	ENDS
;	COMDAT ?_Color@?$_Tree@V?$_Tmap_traits@KKU?$less@K@std@@V?$allocator@U?$pair@$$CBKK@std@@@2@$0A@@std@@@std@@KAAADPAU_Node@?$_Tree_nod@V?$_Tmap_traits@KKU?$less@K@std@@V?$allocator@U?$pair@$$CBKK@std@@@2@$0A@@std@@@2@@Z
_TEXT	SEGMENT PARA USE32 PUBLIC 'CODE'
_TEXT	ENDS
;	COMDAT ?_Isnil@?$_Tree@V?$_Tmap_traits@KKU?$less@K@std@@V?$allocator@U?$pair@$$CBKK@std@@@2@$0A@@std@@@std@@KAAADPAU_Node@?$_Tree_nod@V?$_Tmap_traits@KKU?$less@K@std@@V?$allocator@U?$pair@$$CBKK@std@@@2@$0A@@std@@@2@@Z
_TEXT	SEGMENT PARA USE32 PUBLIC 'CODE'
_TEXT	ENDS
;	COMDAT ?_Left@?$_Tree@V?$_Tmap_traits@KKU?$less@K@std@@V?$allocator@U?$pair@$$CBKK@std@@@2@$0A@@std@@@std@@KAAAPAU_Node@?$_Tree_nod@V?$_Tmap_traits@KKU?$less@K@std@@V?$allocator@U?$pair@$$CBKK@std@@@2@$0A@@std@@@2@PAU342@@Z
_TEXT	SEGMENT PARA USE32 PUBLIC 'CODE'
_TEXT	ENDS
;	COMDAT ?_Parent@?$_Tree@V?$_Tmap_traits@KKU?$less@K@std@@V?$allocator@U?$pair@$$CBKK@std@@@2@$0A@@std@@@std@@KAAAPAU_Node@?$_Tree_nod@V?$_Tmap_traits@KKU?$less@K@std@@V?$allocator@U?$pair@$$CBKK@std@@@2@$0A@@std@@@2@PAU342@@Z
_TEXT	SEGMENT PARA USE32 PUBLIC 'CODE'
_TEXT	ENDS
;	COMDAT ?_Right@?$_Tree@V?$_Tmap_traits@KKU?$less@K@std@@V?$allocator@U?$pair@$$CBKK@std@@@2@$0A@@std@@@std@@KAAAPAU_Node@?$_Tree_nod@V?$_Tmap_traits@KKU?$less@K@std@@V?$allocator@U?$pair@$$CBKK@std@@@2@$0A@@std@@@2@PAU342@@Z
_TEXT	SEGMENT PARA USE32 PUBLIC 'CODE'
_TEXT	ENDS
;	COMDAT ?_Erase@?$_Tree@V?$_Tmap_traits@KKU?$less@K@std@@V?$allocator@U?$pair@$$CBKK@std@@@2@$0A@@std@@@std@@IAEXPAU_Node@?$_Tree_nod@V?$_Tmap_traits@KKU?$less@K@std@@V?$allocator@U?$pair@$$CBKK@std@@@2@$0A@@std@@@2@@Z
_TEXT	SEGMENT PARA USE32 PUBLIC 'CODE'
_TEXT	ENDS
;	COMDAT ?_Lbound@?$_Tree@V?$_Tmap_traits@KKU?$less@K@std@@V?$allocator@U?$pair@$$CBKK@std@@@2@$0A@@std@@@std@@IBEPAU_Node@?$_Tree_nod@V?$_Tmap_traits@KKU?$less@K@std@@V?$allocator@U?$pair@$$CBKK@std@@@2@$0A@@std@@@2@ABK@Z
_TEXT	SEGMENT PARA USE32 PUBLIC 'CODE'
_TEXT	ENDS
;	COMDAT ?_Lmost@?$_Tree@V?$_Tmap_traits@KKU?$less@K@std@@V?$allocator@U?$pair@$$CBKK@std@@@2@$0A@@std@@@std@@IAEAAPAU_Node@?$_Tree_nod@V?$_Tmap_traits@KKU?$less@K@std@@V?$allocator@U?$pair@$$CBKK@std@@@2@$0A@@std@@@2@XZ
_TEXT	SEGMENT PARA USE32 PUBLIC 'CODE'
_TEXT	ENDS
;	COMDAT ?_Lrotate@?$_Tree@V?$_Tmap_traits@KKU?$less@K@std@@V?$allocator@U?$pair@$$CBKK@std@@@2@$0A@@std@@@std@@IAEXPAU_Node@?$_Tree_nod@V?$_Tmap_traits@KKU?$less@K@std@@V?$allocator@U?$pair@$$CBKK@std@@@2@$0A@@std@@@2@@Z
_TEXT	SEGMENT PARA USE32 PUBLIC 'CODE'
_TEXT	ENDS
;	COMDAT ?_Max@?$_Tree@V?$_Tmap_traits@KKU?$less@K@std@@V?$allocator@U?$pair@$$CBKK@std@@@2@$0A@@std@@@std@@KAPAU_Node@?$_Tree_nod@V?$_Tmap_traits@KKU?$less@K@std@@V?$allocator@U?$pair@$$CBKK@std@@@2@$0A@@std@@@2@PAU342@@Z
_TEXT	SEGMENT PARA USE32 PUBLIC 'CODE'
_TEXT	ENDS
;	COMDAT ?_Min@?$_Tree@V?$_Tmap_traits@KKU?$less@K@std@@V?$allocator@U?$pair@$$CBKK@std@@@2@$0A@@std@@@std@@KAPAU_Node@?$_Tree_nod@V?$_Tmap_traits@KKU?$less@K@std@@V?$allocator@U?$pair@$$CBKK@std@@@2@$0A@@std@@@2@PAU342@@Z
_TEXT	SEGMENT PARA USE32 PUBLIC 'CODE'
_TEXT	ENDS
;	COMDAT ?_Rmost@?$_Tree@V?$_Tmap_traits@KKU?$less@K@std@@V?$allocator@U?$pair@$$CBKK@std@@@2@$0A@@std@@@std@@IAEAAPAU_Node@?$_Tree_nod@V?$_Tmap_traits@KKU?$less@K@std@@V?$allocator@U?$pair@$$CBKK@std@@@2@$0A@@std@@@2@XZ
_TEXT	SEGMENT PARA USE32 PUBLIC 'CODE'
_TEXT	ENDS
;	COMDAT ?_Root@?$_Tree@V?$_Tmap_traits@KKU?$less@K@std@@V?$allocator@U?$pair@$$CBKK@std@@@2@$0A@@std@@@std@@IAEAAPAU_Node@?$_Tree_nod@V?$_Tmap_traits@KKU?$less@K@std@@V?$allocator@U?$pair@$$CBKK@std@@@2@$0A@@std@@@2@XZ
_TEXT	SEGMENT PARA USE32 PUBLIC 'CODE'
_TEXT	ENDS
;	COMDAT ?_Rrotate@?$_Tree@V?$_Tmap_traits@KKU?$less@K@std@@V?$allocator@U?$pair@$$CBKK@std@@@2@$0A@@std@@@std@@IAEXPAU_Node@?$_Tree_nod@V?$_Tmap_traits@KKU?$less@K@std@@V?$allocator@U?$pair@$$CBKK@std@@@2@$0A@@std@@@2@@Z
_TEXT	SEGMENT PARA USE32 PUBLIC 'CODE'
_TEXT	ENDS
;	COMDAT ?_Ubound@?$_Tree@V?$_Tmap_traits@KKU?$less@K@std@@V?$allocator@U?$pair@$$CBKK@std@@@2@$0A@@std@@@std@@IBEPAU_Node@?$_Tree_nod@V?$_Tmap_traits@KKU?$less@K@std@@V?$allocator@U?$pair@$$CBKK@std@@@2@$0A@@std@@@2@ABK@Z
_TEXT	SEGMENT PARA USE32 PUBLIC 'CODE'
_TEXT	ENDS
;	COMDAT ?deallocate@?$allocator@U_Node@?$_Tree_nod@V?$_Tmap_traits@KKU?$less@K@std@@V?$allocator@U?$pair@$$CBKK@std@@@2@$0A@@std@@@std@@@std@@QAEXPAU_Node@?$_Tree_nod@V?$_Tmap_traits@KKU?$less@K@std@@V?$allocator@U?$pair@$$CBKK@std@@@2@$0A@@std@@@2@I@Z
_TEXT	SEGMENT PARA USE32 PUBLIC 'CODE'
_TEXT	ENDS
;	COMDAT ?destroy@?$allocator@U_Node@?$_Tree_nod@V?$_Tmap_traits@KKU?$less@K@std@@V?$allocator@U?$pair@$$CBKK@std@@@2@$0A@@std@@@std@@@std@@QAEXPAU_Node@?$_Tree_nod@V?$_Tmap_traits@KKU?$less@K@std@@V?$allocator@U?$pair@$$CBKK@std@@@2@$0A@@std@@@2@@Z
_TEXT	SEGMENT PARA USE32 PUBLIC 'CODE'
_TEXT	ENDS
;	COMDAT ??0iterator@?$_Tree@V?$_Tmap_traits@KKU?$less@K@std@@V?$allocator@U?$pair@$$CBKK@std@@@2@$0A@@std@@@std@@QAE@PAU_Node@?$_Tree_nod@V?$_Tmap_traits@KKU?$less@K@std@@V?$allocator@U?$pair@$$CBKK@std@@@2@$0A@@std@@@2@@Z
_TEXT	SEGMENT PARA USE32 PUBLIC 'CODE'
_TEXT	ENDS
;	COMDAT ??Eiterator@?$_Tree@V?$_Tmap_traits@KKU?$less@K@std@@V?$allocator@U?$pair@$$CBKK@std@@@2@$0A@@std@@@std@@QAEAAV012@XZ
_TEXT	SEGMENT PARA USE32 PUBLIC 'CODE'
_TEXT	ENDS
;	COMDAT ?_Mynode@const_iterator@?$_Tree@V?$_Tmap_traits@KKU?$less@K@std@@V?$allocator@U?$pair@$$CBKK@std@@@2@$0A@@std@@@std@@QBEPAU_Node@?$_Tree_nod@V?$_Tmap_traits@KKU?$less@K@std@@V?$allocator@U?$pair@$$CBKK@std@@@2@$0A@@std@@@3@XZ
_TEXT	SEGMENT PARA USE32 PUBLIC 'CODE'
_TEXT	ENDS
;	COMDAT ?_Isnil@?$_Tree@V?$_Tmap_traits@KPAVCClientSock@@U?$less@K@std@@V?$allocator@U?$pair@$$CBKPAVCClientSock@@@std@@@3@$0A@@std@@@std@@KAAADPAU_Node@?$_Tree_nod@V?$_Tmap_traits@KPAVCClientSock@@U?$less@K@std@@V?$allocator@U?$pair@$$CBKPAVCClientSock@@@std@@@3@$0A@@std@@@2@@Z
_TEXT	SEGMENT PARA USE32 PUBLIC 'CODE'
_TEXT	ENDS
;	COMDAT ?erase@?$_Tree@V?$_Tmap_traits@KPAVCClientSock@@U?$less@K@std@@V?$allocator@U?$pair@$$CBKPAVCClientSock@@@std@@@3@$0A@@std@@@std@@QAE?AViterator@12@V312@@Z
_TEXT	SEGMENT PARA USE32 PUBLIC 'CODE'
_TEXT	ENDS
;	COMDAT ?clear@?$_Tree@V?$_Tmap_traits@KPAVCClientSock@@U?$less@K@std@@V?$allocator@U?$pair@$$CBKPAVCClientSock@@@std@@@3@$0A@@std@@@std@@QAEXXZ
_TEXT	SEGMENT PARA USE32 PUBLIC 'CODE'
_TEXT	ENDS
;	COMDAT ?_Lmost@?$_Tree@V?$_Tmap_traits@KPAVCClientSock@@U?$less@K@std@@V?$allocator@U?$pair@$$CBKPAVCClientSock@@@std@@@3@$0A@@std@@@std@@IAEAAPAU_Node@?$_Tree_nod@V?$_Tmap_traits@KPAVCClientSock@@U?$less@K@std@@V?$allocator@U?$pair@$$CBKPAVCClientSock@@@std@@@3@$0A@@std@@@2@XZ
_TEXT	SEGMENT PARA USE32 PUBLIC 'CODE'
_TEXT	ENDS
;	COMDAT ?_Rmost@?$_Tree@V?$_Tmap_traits@KPAVCClientSock@@U?$less@K@std@@V?$allocator@U?$pair@$$CBKPAVCClientSock@@@std@@@3@$0A@@std@@@std@@IAEAAPAU_Node@?$_Tree_nod@V?$_Tmap_traits@KPAVCClientSock@@U?$less@K@std@@V?$allocator@U?$pair@$$CBKPAVCClientSock@@@std@@@3@$0A@@std@@@2@XZ
_TEXT	SEGMENT PARA USE32 PUBLIC 'CODE'
_TEXT	ENDS
;	COMDAT ?_Root@?$_Tree@V?$_Tmap_traits@KPAVCClientSock@@U?$less@K@std@@V?$allocator@U?$pair@$$CBKPAVCClientSock@@@std@@@3@$0A@@std@@@std@@IAEAAPAU_Node@?$_Tree_nod@V?$_Tmap_traits@KPAVCClientSock@@U?$less@K@std@@V?$allocator@U?$pair@$$CBKPAVCClientSock@@@std@@@3@$0A@@std@@@2@XZ
_TEXT	SEGMENT PARA USE32 PUBLIC 'CODE'
_TEXT	ENDS
;	COMDAT ?_Root@?$_Tree@V?$_Tmap_traits@KPAVCClientSock@@U?$less@K@std@@V?$allocator@U?$pair@$$CBKPAVCClientSock@@@std@@@3@$0A@@std@@@std@@IBEAAPAU_Node@?$_Tree_nod@V?$_Tmap_traits@KPAVCClientSock@@U?$less@K@std@@V?$allocator@U?$pair@$$CBKPAVCClientSock@@@std@@@3@$0A@@std@@@2@XZ
_TEXT	SEGMENT PARA USE32 PUBLIC 'CODE'
_TEXT	ENDS
;	COMDAT ?_Buynode@?$_Tree@V?$_Tmap_traits@KPAVCClientSock@@U?$less@K@std@@V?$allocator@U?$pair@$$CBKPAVCClientSock@@@std@@@3@$0A@@std@@@std@@IAEPAU_Node@?$_Tree_nod@V?$_Tmap_traits@KPAVCClientSock@@U?$less@K@std@@V?$allocator@U?$pair@$$CBKPAVCClientSock@@@std@@@3@$0A@@std@@@2@XZ
_TEXT	SEGMENT PARA USE32 PUBLIC 'CODE'
_TEXT	ENDS
;	COMDAT ??0?$_Tree_ptr@V?$_Tmap_traits@KPAVCClientSock@@U?$less@K@std@@V?$allocator@U?$pair@$$CBKPAVCClientSock@@@std@@@3@$0A@@std@@@std@@IAE@ABU?$less@K@1@V?$allocator@U?$pair@$$CBKPAVCClientSock@@@std@@@1@@Z
_TEXT	SEGMENT PARA USE32 PUBLIC 'CODE'
_TEXT	ENDS
;	COMDAT ??Eiterator@?$_Tree@V?$_Tmap_traits@KPAVCClientSock@@U?$less@K@std@@V?$allocator@U?$pair@$$CBKPAVCClientSock@@@std@@@3@$0A@@std@@@std@@QAE?AV012@H@Z
_TEXT	SEGMENT PARA USE32 PUBLIC 'CODE'
_TEXT	ENDS
;	COMDAT ?_Isnil@?$_Tree@V?$_Tmap_traits@KPAVCClientSockE@@U?$less@K@std@@V?$allocator@U?$pair@$$CBKPAVCClientSockE@@@std@@@3@$0A@@std@@@std@@KAAADPAU_Node@?$_Tree_nod@V?$_Tmap_traits@KPAVCClientSockE@@U?$less@K@std@@V?$allocator@U?$pair@$$CBKPAVCClientSockE@@@std@@@3@$0A@@std@@@2@@Z
_TEXT	SEGMENT PARA USE32 PUBLIC 'CODE'
_TEXT	ENDS
;	COMDAT ?erase@?$_Tree@V?$_Tmap_traits@KPAVCClientSockE@@U?$less@K@std@@V?$allocator@U?$pair@$$CBKPAVCClientSockE@@@std@@@3@$0A@@std@@@std@@QAE?AViterator@12@V312@@Z
_TEXT	SEGMENT PARA USE32 PUBLIC 'CODE'
_TEXT	ENDS
;	COMDAT ?clear@?$_Tree@V?$_Tmap_traits@KPAVCClientSockE@@U?$less@K@std@@V?$allocator@U?$pair@$$CBKPAVCClientSockE@@@std@@@3@$0A@@std@@@std@@QAEXXZ
_TEXT	SEGMENT PARA USE32 PUBLIC 'CODE'
_TEXT	ENDS
;	COMDAT ?_Lmost@?$_Tree@V?$_Tmap_traits@KPAVCClientSockE@@U?$less@K@std@@V?$allocator@U?$pair@$$CBKPAVCClientSockE@@@std@@@3@$0A@@std@@@std@@IAEAAPAU_Node@?$_Tree_nod@V?$_Tmap_traits@KPAVCClientSockE@@U?$less@K@std@@V?$allocator@U?$pair@$$CBKPAVCClientSockE@@@std@@@3@$0A@@std@@@2@XZ
_TEXT	SEGMENT PARA USE32 PUBLIC 'CODE'
_TEXT	ENDS
;	COMDAT ?_Rmost@?$_Tree@V?$_Tmap_traits@KPAVCClientSockE@@U?$less@K@std@@V?$allocator@U?$pair@$$CBKPAVCClientSockE@@@std@@@3@$0A@@std@@@std@@IAEAAPAU_Node@?$_Tree_nod@V?$_Tmap_traits@KPAVCClientSockE@@U?$less@K@std@@V?$allocator@U?$pair@$$CBKPAVCClientSockE@@@std@@@3@$0A@@std@@@2@XZ
_TEXT	SEGMENT PARA USE32 PUBLIC 'CODE'
_TEXT	ENDS
;	COMDAT ?_Root@?$_Tree@V?$_Tmap_traits@KPAVCClientSockE@@U?$less@K@std@@V?$allocator@U?$pair@$$CBKPAVCClientSockE@@@std@@@3@$0A@@std@@@std@@IAEAAPAU_Node@?$_Tree_nod@V?$_Tmap_traits@KPAVCClientSockE@@U?$less@K@std@@V?$allocator@U?$pair@$$CBKPAVCClientSockE@@@std@@@3@$0A@@std@@@2@XZ
_TEXT	SEGMENT PARA USE32 PUBLIC 'CODE'
_TEXT	ENDS
;	COMDAT ?_Root@?$_Tree@V?$_Tmap_traits@KPAVCClientSockE@@U?$less@K@std@@V?$allocator@U?$pair@$$CBKPAVCClientSockE@@@std@@@3@$0A@@std@@@std@@IBEAAPAU_Node@?$_Tree_nod@V?$_Tmap_traits@KPAVCClientSockE@@U?$less@K@std@@V?$allocator@U?$pair@$$CBKPAVCClientSockE@@@std@@@3@$0A@@std@@@2@XZ
_TEXT	SEGMENT PARA USE32 PUBLIC 'CODE'
_TEXT	ENDS
;	COMDAT ?_Buynode@?$_Tree@V?$_Tmap_traits@KPAVCClientSockE@@U?$less@K@std@@V?$allocator@U?$pair@$$CBKPAVCClientSockE@@@std@@@3@$0A@@std@@@std@@IAEPAU_Node@?$_Tree_nod@V?$_Tmap_traits@KPAVCClientSockE@@U?$less@K@std@@V?$allocator@U?$pair@$$CBKPAVCClientSockE@@@std@@@3@$0A@@std@@@2@XZ
_TEXT	SEGMENT PARA USE32 PUBLIC 'CODE'
_TEXT	ENDS
;	COMDAT ??0?$_Tree_ptr@V?$_Tmap_traits@KPAVCClientSockE@@U?$less@K@std@@V?$allocator@U?$pair@$$CBKPAVCClientSockE@@@std@@@3@$0A@@std@@@std@@IAE@ABU?$less@K@1@V?$allocator@U?$pair@$$CBKPAVCClientSockE@@@std@@@1@@Z
_TEXT	SEGMENT PARA USE32 PUBLIC 'CODE'
_TEXT	ENDS
;	COMDAT ??Eiterator@?$_Tree@V?$_Tmap_traits@KPAVCClientSockE@@U?$less@K@std@@V?$allocator@U?$pair@$$CBKPAVCClientSockE@@@std@@@3@$0A@@std@@@std@@QAE?AV012@H@Z
_TEXT	SEGMENT PARA USE32 PUBLIC 'CODE'
_TEXT	ENDS
;	COMDAT ?_Isnil@?$_Tree@V?$_Tmap_traits@KP8CDPCoreClient@@AEXAAVCAr@@KKK@ZU?$less@K@std@@V?$allocator@U?$pair@$$CBKP8CDPCoreClient@@AEXAAVCAr@@KKK@Z@std@@@4@$0A@@std@@@std@@KAAADPAU_Node@?$_Tree_nod@V?$_Tmap_traits@KP8CDPCoreClient@@AEXAAVCAr@@KKK@ZU?$less@K@std@@V?$allocator@U?$pair@$$CBKP8CDPCoreClient@@AEXAAVCAr@@KKK@Z@std@@@4@$0A@@std@@@2@@Z
_TEXT	SEGMENT PARA USE32 PUBLIC 'CODE'
_TEXT	ENDS
;	COMDAT ?_Left@?$_Tree@V?$_Tmap_traits@KP8CDPCoreClient@@AEXAAVCAr@@KKK@ZU?$less@K@std@@V?$allocator@U?$pair@$$CBKP8CDPCoreClient@@AEXAAVCAr@@KKK@Z@std@@@4@$0A@@std@@@std@@KAAAPAU_Node@?$_Tree_nod@V?$_Tmap_traits@KP8CDPCoreClient@@AEXAAVCAr@@KKK@ZU?$less@K@std@@V?$allocator@U?$pair@$$CBKP8CDPCoreClient@@AEXAAVCAr@@KKK@Z@std@@@4@$0A@@std@@@2@PAU342@@Z
_TEXT	SEGMENT PARA USE32 PUBLIC 'CODE'
_TEXT	ENDS
;	COMDAT ?_Right@?$_Tree@V?$_Tmap_traits@KP8CDPCoreClient@@AEXAAVCAr@@KKK@ZU?$less@K@std@@V?$allocator@U?$pair@$$CBKP8CDPCoreClient@@AEXAAVCAr@@KKK@Z@std@@@4@$0A@@std@@@std@@KAAAPAU_Node@?$_Tree_nod@V?$_Tmap_traits@KP8CDPCoreClient@@AEXAAVCAr@@KKK@ZU?$less@K@std@@V?$allocator@U?$pair@$$CBKP8CDPCoreClient@@AEXAAVCAr@@KKK@Z@std@@@4@$0A@@std@@@2@PAU342@@Z
_TEXT	SEGMENT PARA USE32 PUBLIC 'CODE'
_TEXT	ENDS
;	COMDAT ?_Root@?$_Tree@V?$_Tmap_traits@KP8CDPCoreClient@@AEXAAVCAr@@KKK@ZU?$less@K@std@@V?$allocator@U?$pair@$$CBKP8CDPCoreClient@@AEXAAVCAr@@KKK@Z@std@@@4@$0A@@std@@@std@@IBEAAPAU_Node@?$_Tree_nod@V?$_Tmap_traits@KP8CDPCoreClient@@AEXAAVCAr@@KKK@ZU?$less@K@std@@V?$allocator@U?$pair@$$CBKP8CDPCoreClient@@AEXAAVCAr@@KKK@Z@std@@@4@$0A@@std@@@2@XZ
_TEXT	SEGMENT PARA USE32 PUBLIC 'CODE'
_TEXT	ENDS
;	COMDAT ??0const_iterator@?$vector@PAU__JOINPLAYER@CGuildCombat@@V?$allocator@PAU__JOINPLAYER@CGuildCombat@@@std@@@std@@QAE@PAPAU__JOINPLAYER@CGuildCombat@@@Z
_TEXT	SEGMENT PARA USE32 PUBLIC 'CODE'
_TEXT	ENDS
;	COMDAT ??0const_iterator@?$vector@V?$basic_string@DU?$char_traits@D@std@@V?$allocator@D@2@@std@@V?$allocator@V?$basic_string@DU?$char_traits@D@std@@V?$allocator@D@2@@std@@@2@@std@@QAE@PAV?$basic_string@DU?$char_traits@D@std@@V?$allocator@D@2@@2@@Z
_TEXT	SEGMENT PARA USE32 PUBLIC 'CODE'
_TEXT	ENDS
;	COMDAT ??Gconst_iterator@?$vector@V?$basic_string@DU?$char_traits@D@std@@V?$allocator@D@2@@std@@V?$allocator@V?$basic_string@DU?$char_traits@D@std@@V?$allocator@D@2@@std@@@2@@std@@QBEHABV012@@Z
_TEXT	SEGMENT PARA USE32 PUBLIC 'CODE'
_TEXT	ENDS
;	COMDAT ??Yiterator@?$vector@UMINIGMAME_PRIZE_LIST@CRainbowRaceMng@@V?$allocator@UMINIGMAME_PRIZE_LIST@CRainbowRaceMng@@@std@@@std@@QAEAAV012@H@Z
_TEXT	SEGMENT PARA USE32 PUBLIC 'CODE'
_TEXT	ENDS
;	COMDAT ??0const_iterator@?$vector@UMINIGMAME_PRIZE_LIST@CRainbowRaceMng@@V?$allocator@UMINIGMAME_PRIZE_LIST@CRainbowRaceMng@@@std@@@std@@QAE@PAUMINIGMAME_PRIZE_LIST@CRainbowRaceMng@@@Z
_TEXT	SEGMENT PARA USE32 PUBLIC 'CODE'
_TEXT	ENDS
;	COMDAT ??Gconst_iterator@?$vector@UMINIGMAME_PRIZE_LIST@CRainbowRaceMng@@V?$allocator@UMINIGMAME_PRIZE_LIST@CRainbowRaceMng@@@std@@@std@@QBEHABV012@@Z
_TEXT	SEGMENT PARA USE32 PUBLIC 'CODE'
_TEXT	ENDS
;	COMDAT ??0const_iterator@?$vector@PAVCMiniGameBase@@V?$allocator@PAVCMiniGameBase@@@std@@@std@@QAE@PAPAVCMiniGameBase@@@Z
_TEXT	SEGMENT PARA USE32 PUBLIC 'CODE'
_TEXT	ENDS
;	COMDAT ??0const_iterator@?$vector@UGuildHouse_Furniture_Info@CGuildHouseBase@@V?$allocator@UGuildHouse_Furniture_Info@CGuildHouseBase@@@std@@@std@@QAE@PAUGuildHouse_Furniture_Info@CGuildHouseBase@@@Z
_TEXT	SEGMENT PARA USE32 PUBLIC 'CODE'
_TEXT	ENDS
;	COMDAT ??0_Node@?$_Tree_nod@V?$_Tmap_traits@KPAVCGuildHouseBase@@U?$less@K@std@@V?$allocator@U?$pair@$$CBKPAVCGuildHouseBase@@@std@@@3@$0A@@std@@@std@@QAE@PAU012@00ABU?$pair@$$CBKPAVCGuildHouseBase@@@2@D@Z
_TEXT	SEGMENT PARA USE32 PUBLIC 'CODE'
_TEXT	ENDS
;	COMDAT ?_Key@?$_Tree@V?$_Tmap_traits@KU_Friend@@U?$less@K@std@@V?$allocator@U?$pair@$$CBKU_Friend@@@std@@@3@$0A@@std@@@std@@KAABKPAU_Node@?$_Tree_nod@V?$_Tmap_traits@KU_Friend@@U?$less@K@std@@V?$allocator@U?$pair@$$CBKU_Friend@@@std@@@3@$0A@@std@@@2@@Z
_TEXT	SEGMENT PARA USE32 PUBLIC 'CODE'
_TEXT	ENDS
;	COMDAT ?_Root@?$_Tree@V?$_Tmap_traits@KU_Friend@@U?$less@K@std@@V?$allocator@U?$pair@$$CBKU_Friend@@@std@@@3@$0A@@std@@@std@@IBEAAPAU_Node@?$_Tree_nod@V?$_Tmap_traits@KU_Friend@@U?$less@K@std@@V?$allocator@U?$pair@$$CBKU_Friend@@@std@@@3@$0A@@std@@@2@XZ
_TEXT	SEGMENT PARA USE32 PUBLIC 'CODE'
_TEXT	ENDS
;	COMDAT ??0const_iterator@?$_Tree@V?$_Tmap_traits@KU_Friend@@U?$less@K@std@@V?$allocator@U?$pair@$$CBKU_Friend@@@std@@@3@$0A@@std@@@std@@QAE@PAU_Node@?$_Tree_nod@V?$_Tmap_traits@KU_Friend@@U?$less@K@std@@V?$allocator@U?$pair@$$CBKU_Friend@@@std@@@3@$0A@@std@@@2@@Z
_TEXT	SEGMENT PARA USE32 PUBLIC 'CODE'
_TEXT	ENDS
;	COMDAT ??Econst_iterator@?$_Tree@V?$_Tmap_traits@KU_Friend@@U?$less@K@std@@V?$allocator@U?$pair@$$CBKU_Friend@@@std@@@3@$0A@@std@@@std@@QAEAAV012@XZ
_TEXT	SEGMENT PARA USE32 PUBLIC 'CODE'
_TEXT	ENDS
;	COMDAT ?max_size@?$allocator@UMINIGMAME_PRIZE_LIST@CRainbowRaceMng@@@std@@QBEIXZ
_TEXT	SEGMENT PARA USE32 PUBLIC 'CODE'
_TEXT	ENDS
;	COMDAT ?_Max@?$_Tree@V?$_Tmap_traits@KPAVCGuildHouseBase@@U?$less@K@std@@V?$allocator@U?$pair@$$CBKPAVCGuildHouseBase@@@std@@@3@$0A@@std@@@std@@KAPAU_Node@?$_Tree_nod@V?$_Tmap_traits@KPAVCGuildHouseBase@@U?$less@K@std@@V?$allocator@U?$pair@$$CBKPAVCGuildHouseBase@@@std@@@3@$0A@@std@@@2@PAU342@@Z
_TEXT	SEGMENT PARA USE32 PUBLIC 'CODE'
_TEXT	ENDS
;	COMDAT ?_Key@?$_Tree@V?$_Tmap_traits@KKU?$less@K@std@@V?$allocator@U?$pair@$$CBKK@std@@@2@$0A@@std@@@std@@KAABKPAU_Node@?$_Tree_nod@V?$_Tmap_traits@KKU?$less@K@std@@V?$allocator@U?$pair@$$CBKK@std@@@2@$0A@@std@@@2@@Z
_TEXT	SEGMENT PARA USE32 PUBLIC 'CODE'
_TEXT	ENDS
;	COMDAT ?_Root@?$_Tree@V?$_Tmap_traits@KKU?$less@K@std@@V?$allocator@U?$pair@$$CBKK@std@@@2@$0A@@std@@@std@@IBEAAPAU_Node@?$_Tree_nod@V?$_Tmap_traits@KKU?$less@K@std@@V?$allocator@U?$pair@$$CBKK@std@@@2@$0A@@std@@@2@XZ
_TEXT	SEGMENT PARA USE32 PUBLIC 'CODE'
_TEXT	ENDS
;	COMDAT ??0const_iterator@?$_Tree@V?$_Tmap_traits@KKU?$less@K@std@@V?$allocator@U?$pair@$$CBKK@std@@@2@$0A@@std@@@std@@QAE@PAU_Node@?$_Tree_nod@V?$_Tmap_traits@KKU?$less@K@std@@V?$allocator@U?$pair@$$CBKK@std@@@2@$0A@@std@@@2@@Z
_TEXT	SEGMENT PARA USE32 PUBLIC 'CODE'
_TEXT	ENDS
;	COMDAT ??Econst_iterator@?$_Tree@V?$_Tmap_traits@KKU?$less@K@std@@V?$allocator@U?$pair@$$CBKK@std@@@2@$0A@@std@@@std@@QAEAAV012@XZ
_TEXT	SEGMENT PARA USE32 PUBLIC 'CODE'
_TEXT	ENDS
;	COMDAT ?_Color@?$_Tree@V?$_Tmap_traits@KPAVCClientSock@@U?$less@K@std@@V?$allocator@U?$pair@$$CBKPAVCClientSock@@@std@@@3@$0A@@std@@@std@@KAAADPAU_Node@?$_Tree_nod@V?$_Tmap_traits@KPAVCClientSock@@U?$less@K@std@@V?$allocator@U?$pair@$$CBKPAVCClientSock@@@std@@@3@$0A@@std@@@2@@Z
_TEXT	SEGMENT PARA USE32 PUBLIC 'CODE'
_TEXT	ENDS
;	COMDAT ?_Erase@?$_Tree@V?$_Tmap_traits@KPAVCClientSock@@U?$less@K@std@@V?$allocator@U?$pair@$$CBKPAVCClientSock@@@std@@@3@$0A@@std@@@std@@IAEXPAU_Node@?$_Tree_nod@V?$_Tmap_traits@KPAVCClientSock@@U?$less@K@std@@V?$allocator@U?$pair@$$CBKPAVCClientSock@@@std@@@3@$0A@@std@@@2@@Z
_TEXT	SEGMENT PARA USE32 PUBLIC 'CODE'
_TEXT	ENDS
;	COMDAT ?_Lrotate@?$_Tree@V?$_Tmap_traits@KPAVCClientSock@@U?$less@K@std@@V?$allocator@U?$pair@$$CBKPAVCClientSock@@@std@@@3@$0A@@std@@@std@@IAEXPAU_Node@?$_Tree_nod@V?$_Tmap_traits@KPAVCClientSock@@U?$less@K@std@@V?$allocator@U?$pair@$$CBKPAVCClientSock@@@std@@@3@$0A@@std@@@2@@Z
_TEXT	SEGMENT PARA USE32 PUBLIC 'CODE'
_TEXT	ENDS
;	COMDAT ?_Max@?$_Tree@V?$_Tmap_traits@KPAVCClientSock@@U?$less@K@std@@V?$allocator@U?$pair@$$CBKPAVCClientSock@@@std@@@3@$0A@@std@@@std@@KAPAU_Node@?$_Tree_nod@V?$_Tmap_traits@KPAVCClientSock@@U?$less@K@std@@V?$allocator@U?$pair@$$CBKPAVCClientSock@@@std@@@3@$0A@@std@@@2@PAU342@@Z
_TEXT	SEGMENT PARA USE32 PUBLIC 'CODE'
_TEXT	ENDS
;	COMDAT ?_Min@?$_Tree@V?$_Tmap_traits@KPAVCClientSock@@U?$less@K@std@@V?$allocator@U?$pair@$$CBKPAVCClientSock@@@std@@@3@$0A@@std@@@std@@KAPAU_Node@?$_Tree_nod@V?$_Tmap_traits@KPAVCClientSock@@U?$less@K@std@@V?$allocator@U?$pair@$$CBKPAVCClientSock@@@std@@@3@$0A@@std@@@2@PAU342@@Z
_TEXT	SEGMENT PARA USE32 PUBLIC 'CODE'
_TEXT	ENDS
;	COMDAT ?_Rrotate@?$_Tree@V?$_Tmap_traits@KPAVCClientSock@@U?$less@K@std@@V?$allocator@U?$pair@$$CBKPAVCClientSock@@@std@@@3@$0A@@std@@@std@@IAEXPAU_Node@?$_Tree_nod@V?$_Tmap_traits@KPAVCClientSock@@U?$less@K@std@@V?$allocator@U?$pair@$$CBKPAVCClientSock@@@std@@@3@$0A@@std@@@2@@Z
_TEXT	SEGMENT PARA USE32 PUBLIC 'CODE'
_TEXT	ENDS
;	COMDAT ??0?$_Tree_nod@V?$_Tmap_traits@KPAVCClientSock@@U?$less@K@std@@V?$allocator@U?$pair@$$CBKPAVCClientSock@@@std@@@3@$0A@@std@@@std@@IAE@ABU?$less@K@1@V?$allocator@U?$pair@$$CBKPAVCClientSock@@@std@@@1@@Z
_TEXT	SEGMENT PARA USE32 PUBLIC 'CODE'
_TEXT	ENDS
;	COMDAT ?allocate@?$allocator@U_Node@?$_Tree_nod@V?$_Tmap_traits@KPAVCClientSock@@U?$less@K@std@@V?$allocator@U?$pair@$$CBKPAVCClientSock@@@std@@@3@$0A@@std@@@std@@@std@@QAEPAU_Node@?$_Tree_nod@V?$_Tmap_traits@KPAVCClientSock@@U?$less@K@std@@V?$allocator@U?$pair@$$CBKPAVCClientSock@@@std@@@3@$0A@@std@@@2@I@Z
_TEXT	SEGMENT PARA USE32 PUBLIC 'CODE'
_TEXT	ENDS
;	COMDAT ?destroy@?$allocator@U_Node@?$_Tree_nod@V?$_Tmap_traits@KPAVCClientSock@@U?$less@K@std@@V?$allocator@U?$pair@$$CBKPAVCClientSock@@@std@@@3@$0A@@std@@@std@@@std@@QAEXPAU_Node@?$_Tree_nod@V?$_Tmap_traits@KPAVCClientSock@@U?$less@K@std@@V?$allocator@U?$pair@$$CBKPAVCClientSock@@@std@@@3@$0A@@std@@@2@@Z
_TEXT	SEGMENT PARA USE32 PUBLIC 'CODE'
_TEXT	ENDS
;	COMDAT ?construct@?$allocator@PAU_Node@?$_Tree_nod@V?$_Tmap_traits@KPAVCClientSock@@U?$less@K@std@@V?$allocator@U?$pair@$$CBKPAVCClientSock@@@std@@@3@$0A@@std@@@std@@@std@@QAEXPAPAU_Node@?$_Tree_nod@V?$_Tmap_traits@KPAVCClientSock@@U?$less@K@std@@V?$allocator@U?$pair@$$CBKPAVCClientSock@@@std@@@3@$0A@@std@@@2@ABQAU342@@Z
_TEXT	SEGMENT PARA USE32 PUBLIC 'CODE'
_TEXT	ENDS
;	COMDAT ??Eiterator@?$_Tree@V?$_Tmap_traits@KPAVCClientSock@@U?$less@K@std@@V?$allocator@U?$pair@$$CBKPAVCClientSock@@@std@@@3@$0A@@std@@@std@@QAEAAV012@XZ
_TEXT	SEGMENT PARA USE32 PUBLIC 'CODE'
_TEXT	ENDS
;	COMDAT ?_Color@?$_Tree@V?$_Tmap_traits@KPAVCClientSockE@@U?$less@K@std@@V?$allocator@U?$pair@$$CBKPAVCClientSockE@@@std@@@3@$0A@@std@@@std@@KAAADPAU_Node@?$_Tree_nod@V?$_Tmap_traits@KPAVCClientSockE@@U?$less@K@std@@V?$allocator@U?$pair@$$CBKPAVCClientSockE@@@std@@@3@$0A@@std@@@2@@Z
_TEXT	SEGMENT PARA USE32 PUBLIC 'CODE'
_TEXT	ENDS
;	COMDAT ?_Erase@?$_Tree@V?$_Tmap_traits@KPAVCClientSockE@@U?$less@K@std@@V?$allocator@U?$pair@$$CBKPAVCClientSockE@@@std@@@3@$0A@@std@@@std@@IAEXPAU_Node@?$_Tree_nod@V?$_Tmap_traits@KPAVCClientSockE@@U?$less@K@std@@V?$allocator@U?$pair@$$CBKPAVCClientSockE@@@std@@@3@$0A@@std@@@2@@Z
_TEXT	SEGMENT PARA USE32 PUBLIC 'CODE'
_TEXT	ENDS
;	COMDAT ?_Lrotate@?$_Tree@V?$_Tmap_traits@KPAVCClientSockE@@U?$less@K@std@@V?$allocator@U?$pair@$$CBKPAVCClientSockE@@@std@@@3@$0A@@std@@@std@@IAEXPAU_Node@?$_Tree_nod@V?$_Tmap_traits@KPAVCClientSockE@@U?$less@K@std@@V?$allocator@U?$pair@$$CBKPAVCClientSockE@@@std@@@3@$0A@@std@@@2@@Z
_TEXT	SEGMENT PARA USE32 PUBLIC 'CODE'
_TEXT	ENDS
;	COMDAT ?_Max@?$_Tree@V?$_Tmap_traits@KPAVCClientSockE@@U?$less@K@std@@V?$allocator@U?$pair@$$CBKPAVCClientSockE@@@std@@@3@$0A@@std@@@std@@KAPAU_Node@?$_Tree_nod@V?$_Tmap_traits@KPAVCClientSockE@@U?$less@K@std@@V?$allocator@U?$pair@$$CBKPAVCClientSockE@@@std@@@3@$0A@@std@@@2@PAU342@@Z
_TEXT	SEGMENT PARA USE32 PUBLIC 'CODE'
_TEXT	ENDS
;	COMDAT ?_Min@?$_Tree@V?$_Tmap_traits@KPAVCClientSockE@@U?$less@K@std@@V?$allocator@U?$pair@$$CBKPAVCClientSockE@@@std@@@3@$0A@@std@@@std@@KAPAU_Node@?$_Tree_nod@V?$_Tmap_traits@KPAVCClientSockE@@U?$less@K@std@@V?$allocator@U?$pair@$$CBKPAVCClientSockE@@@std@@@3@$0A@@std@@@2@PAU342@@Z
_TEXT	SEGMENT PARA USE32 PUBLIC 'CODE'
_TEXT	ENDS
;	COMDAT ?_Rrotate@?$_Tree@V?$_Tmap_traits@KPAVCClientSockE@@U?$less@K@std@@V?$allocator@U?$pair@$$CBKPAVCClientSockE@@@std@@@3@$0A@@std@@@std@@IAEXPAU_Node@?$_Tree_nod@V?$_Tmap_traits@KPAVCClientSockE@@U?$less@K@std@@V?$allocator@U?$pair@$$CBKPAVCClientSockE@@@std@@@3@$0A@@std@@@2@@Z
_TEXT	SEGMENT PARA USE32 PUBLIC 'CODE'
_TEXT	ENDS
;	COMDAT ??0?$_Tree_nod@V?$_Tmap_traits@KPAVCClientSockE@@U?$less@K@std@@V?$allocator@U?$pair@$$CBKPAVCClientSockE@@@std@@@3@$0A@@std@@@std@@IAE@ABU?$less@K@1@V?$allocator@U?$pair@$$CBKPAVCClientSockE@@@std@@@1@@Z
_TEXT	SEGMENT PARA USE32 PUBLIC 'CODE'
_TEXT	ENDS
;	COMDAT ?allocate@?$allocator@U_Node@?$_Tree_nod@V?$_Tmap_traits@KPAVCClientSockE@@U?$less@K@std@@V?$allocator@U?$pair@$$CBKPAVCClientSockE@@@std@@@3@$0A@@std@@@std@@@std@@QAEPAU_Node@?$_Tree_nod@V?$_Tmap_traits@KPAVCClientSockE@@U?$less@K@std@@V?$allocator@U?$pair@$$CBKPAVCClientSockE@@@std@@@3@$0A@@std@@@2@I@Z
_TEXT	SEGMENT PARA USE32 PUBLIC 'CODE'
_TEXT	ENDS
;	COMDAT ?destroy@?$allocator@U_Node@?$_Tree_nod@V?$_Tmap_traits@KPAVCClientSockE@@U?$less@K@std@@V?$allocator@U?$pair@$$CBKPAVCClientSockE@@@std@@@3@$0A@@std@@@std@@@std@@QAEXPAU_Node@?$_Tree_nod@V?$_Tmap_traits@KPAVCClientSockE@@U?$less@K@std@@V?$allocator@U?$pair@$$CBKPAVCClientSockE@@@std@@@3@$0A@@std@@@2@@Z
_TEXT	SEGMENT PARA USE32 PUBLIC 'CODE'
_TEXT	ENDS
;	COMDAT ?construct@?$allocator@PAU_Node@?$_Tree_nod@V?$_Tmap_traits@KPAVCClientSockE@@U?$less@K@std@@V?$allocator@U?$pair@$$CBKPAVCClientSockE@@@std@@@3@$0A@@std@@@std@@@std@@QAEXPAPAU_Node@?$_Tree_nod@V?$_Tmap_traits@KPAVCClientSockE@@U?$less@K@std@@V?$allocator@U?$pair@$$CBKPAVCClientSockE@@@std@@@3@$0A@@std@@@2@ABQAU342@@Z
_TEXT	SEGMENT PARA USE32 PUBLIC 'CODE'
_TEXT	ENDS
;	COMDAT ??Eiterator@?$_Tree@V?$_Tmap_traits@KPAVCClientSockE@@U?$less@K@std@@V?$allocator@U?$pair@$$CBKPAVCClientSockE@@@std@@@3@$0A@@std@@@std@@QAEAAV012@XZ
_TEXT	SEGMENT PARA USE32 PUBLIC 'CODE'
_TEXT	ENDS
;	COMDAT ?_Parent@?$_Tree@V?$_Tmap_traits@KP8CDPCoreClient@@AEXAAVCAr@@KKK@ZU?$less@K@std@@V?$allocator@U?$pair@$$CBKP8CDPCoreClient@@AEXAAVCAr@@KKK@Z@std@@@4@$0A@@std@@@std@@KAAAPAU_Node@?$_Tree_nod@V?$_Tmap_traits@KP8CDPCoreClient@@AEXAAVCAr@@KKK@ZU?$less@K@std@@V?$allocator@U?$pair@$$CBKP8CDPCoreClient@@AEXAAVCAr@@KKK@Z@std@@@4@$0A@@std@@@2@PAU342@@Z
_TEXT	SEGMENT PARA USE32 PUBLIC 'CODE'
_TEXT	ENDS
;	COMDAT ?_Myval@?$_Tree@V?$_Tmap_traits@KU_Friend@@U?$less@K@std@@V?$allocator@U?$pair@$$CBKU_Friend@@@std@@@3@$0A@@std@@@std@@KAAAU?$pair@$$CBKU_Friend@@@2@PAU_Node@?$_Tree_nod@V?$_Tmap_traits@KU_Friend@@U?$less@K@std@@V?$allocator@U?$pair@$$CBKU_Friend@@@std@@@3@$0A@@std@@@2@@Z
_TEXT	SEGMENT PARA USE32 PUBLIC 'CODE'
_TEXT	ENDS
;	COMDAT ?_Kfn@?$_Tmap_traits@KU_Friend@@U?$less@K@std@@V?$allocator@U?$pair@$$CBKU_Friend@@@std@@@3@$0A@@std@@SAABKABU?$pair@$$CBKU_Friend@@@2@@Z
_TEXT	SEGMENT PARA USE32 PUBLIC 'CODE'
_TEXT	ENDS
;	COMDAT ?_Inc@const_iterator@?$_Tree@V?$_Tmap_traits@KU_Friend@@U?$less@K@std@@V?$allocator@U?$pair@$$CBKU_Friend@@@std@@@3@$0A@@std@@@std@@QAEXXZ
_TEXT	SEGMENT PARA USE32 PUBLIC 'CODE'
_TEXT	ENDS
;	COMDAT ?_Myval@?$_Tree@V?$_Tmap_traits@KKU?$less@K@std@@V?$allocator@U?$pair@$$CBKK@std@@@2@$0A@@std@@@std@@KAAAU?$pair@$$CBKK@2@PAU_Node@?$_Tree_nod@V?$_Tmap_traits@KKU?$less@K@std@@V?$allocator@U?$pair@$$CBKK@std@@@2@$0A@@std@@@2@@Z
_TEXT	SEGMENT PARA USE32 PUBLIC 'CODE'
_TEXT	ENDS
;	COMDAT ?_Kfn@?$_Tmap_traits@KKU?$less@K@std@@V?$allocator@U?$pair@$$CBKK@std@@@2@$0A@@std@@SAABKABU?$pair@$$CBKK@2@@Z
_TEXT	SEGMENT PARA USE32 PUBLIC 'CODE'
_TEXT	ENDS
;	COMDAT ?_Inc@const_iterator@?$_Tree@V?$_Tmap_traits@KKU?$less@K@std@@V?$allocator@U?$pair@$$CBKK@std@@@2@$0A@@std@@@std@@QAEXXZ
_TEXT	SEGMENT PARA USE32 PUBLIC 'CODE'
_TEXT	ENDS
;	COMDAT ??0?$_Tmap_traits@KPAVCClientSock@@U?$less@K@std@@V?$allocator@U?$pair@$$CBKPAVCClientSock@@@std@@@3@$0A@@std@@QAE@U?$less@K@1@@Z
_TEXT	SEGMENT PARA USE32 PUBLIC 'CODE'
_TEXT	ENDS
;	COMDAT ??Econst_iterator@?$_Tree@V?$_Tmap_traits@KPAVCClientSock@@U?$less@K@std@@V?$allocator@U?$pair@$$CBKPAVCClientSock@@@std@@@3@$0A@@std@@@std@@QAEAAV012@XZ
_TEXT	SEGMENT PARA USE32 PUBLIC 'CODE'
_TEXT	ENDS
;	COMDAT ??0?$_Tmap_traits@KPAVCClientSockE@@U?$less@K@std@@V?$allocator@U?$pair@$$CBKPAVCClientSockE@@@std@@@3@$0A@@std@@QAE@U?$less@K@1@@Z
_TEXT	SEGMENT PARA USE32 PUBLIC 'CODE'
_TEXT	ENDS
;	COMDAT ??Econst_iterator@?$_Tree@V?$_Tmap_traits@KPAVCClientSockE@@U?$less@K@std@@V?$allocator@U?$pair@$$CBKPAVCClientSockE@@@std@@@3@$0A@@std@@@std@@QAEAAV012@XZ
_TEXT	SEGMENT PARA USE32 PUBLIC 'CODE'
_TEXT	ENDS
;	COMDAT ?_Inc@const_iterator@?$_Tree@V?$_Tmap_traits@KPAVCClientSock@@U?$less@K@std@@V?$allocator@U?$pair@$$CBKPAVCClientSock@@@std@@@3@$0A@@std@@@std@@QAEXXZ
_TEXT	SEGMENT PARA USE32 PUBLIC 'CODE'
_TEXT	ENDS
;	COMDAT ?_Inc@const_iterator@?$_Tree@V?$_Tmap_traits@KPAVCClientSockE@@U?$less@K@std@@V?$allocator@U?$pair@$$CBKPAVCClientSockE@@@std@@@3@$0A@@std@@@std@@QAEXXZ
_TEXT	SEGMENT PARA USE32 PUBLIC 'CODE'
_TEXT	ENDS
;	COMDAT ??$_Iter_cat@Vconst_iterator@?$vector@EV?$allocator@E@std@@@std@@@std@@YA?AUrandom_access_iterator_tag@0@ABVconst_iterator@?$vector@EV?$allocator@E@std@@@0@@Z
_TEXT	SEGMENT PARA USE32 PUBLIC 'CODE'
_TEXT	ENDS
;	COMDAT ??$_Assign@Vconst_iterator@?$vector@EV?$allocator@E@std@@@std@@@?$vector@EV?$allocator@E@std@@@std@@QAEXVconst_iterator@01@0Uinput_iterator_tag@1@@Z
_TEXT	SEGMENT PARA USE32 PUBLIC 'CODE'
_TEXT	ENDS
;	COMDAT ??$_Iter_cat@Viterator@?$_Tree@V?$_Tmap_traits@KPAVCUser@@U?$less@K@std@@V?$allocator@U?$pair@$$CBKPAVCUser@@@std@@@3@$0A@@std@@@std@@@std@@YA?AUbidirectional_iterator_tag@0@ABViterator@?$_Tree@V?$_Tmap_traits@KPAVCUser@@U?$less@K@std@@V?$allocator@U?$pair@$$CBKPAVCUser@@@std@@@3@$0A@@std@@@0@@Z
_TEXT	SEGMENT PARA USE32 PUBLIC 'CODE'
_TEXT	ENDS
;	COMDAT ??$_Distance2@Viterator@?$_Tree@V?$_Tmap_traits@KPAVCUser@@U?$less@K@std@@V?$allocator@U?$pair@$$CBKPAVCUser@@@std@@@3@$0A@@std@@@std@@I@std@@YAXViterator@?$_Tree@V?$_Tmap_traits@KPAVCUser@@U?$less@K@std@@V?$allocator@U?$pair@$$CBKPAVCUser@@@std@@@3@$0A@@std@@@0@0AAIUbidirectional_iterator_tag@0@@Z
_TEXT	SEGMENT PARA USE32 PUBLIC 'CODE'
_TEXT	ENDS
;	COMDAT ??$_Iter_cat@Viterator@?$_Tree@V?$_Tmap_traits@KPAVCCtrl@@U?$less@K@std@@V?$allocator@U?$pair@$$CBKPAVCCtrl@@@std@@@3@$0A@@std@@@std@@@std@@YA?AUbidirectional_iterator_tag@0@ABViterator@?$_Tree@V?$_Tmap_traits@KPAVCCtrl@@U?$less@K@std@@V?$allocator@U?$pair@$$CBKPAVCCtrl@@@std@@@3@$0A@@std@@@0@@Z
_TEXT	SEGMENT PARA USE32 PUBLIC 'CODE'
_TEXT	ENDS
;	COMDAT ??$_Distance2@Viterator@?$_Tree@V?$_Tmap_traits@KPAVCCtrl@@U?$less@K@std@@V?$allocator@U?$pair@$$CBKPAVCCtrl@@@std@@@3@$0A@@std@@@std@@I@std@@YAXViterator@?$_Tree@V?$_Tmap_traits@KPAVCCtrl@@U?$less@K@std@@V?$allocator@U?$pair@$$CBKPAVCCtrl@@@std@@@3@$0A@@std@@@0@0AAIUbidirectional_iterator_tag@0@@Z
_TEXT	SEGMENT PARA USE32 PUBLIC 'CODE'
_TEXT	ENDS
;	COMDAT ??$_Uninitialized_copy@Vconst_iterator@?$vector@EV?$allocator@E@std@@@std@@PAEV?$allocator@E@3@@std@@YAPAEVconst_iterator@?$vector@EV?$allocator@E@std@@@0@0PAEAAV?$allocator@E@0@@Z
_TEXT	SEGMENT PARA USE32 PUBLIC 'CODE'
_TEXT	ENDS
;	COMDAT ??$_Iter_cat@Viterator@?$_Tree@V?$_Tmap_traits@KEU?$less@K@std@@V?$allocator@U?$pair@$$CBKE@std@@@2@$0A@@std@@@std@@@std@@YA?AUbidirectional_iterator_tag@0@ABViterator@?$_Tree@V?$_Tmap_traits@KEU?$less@K@std@@V?$allocator@U?$pair@$$CBKE@std@@@2@$0A@@std@@@0@@Z
_TEXT	SEGMENT PARA USE32 PUBLIC 'CODE'
_TEXT	ENDS
;	COMDAT ??$_Distance2@Viterator@?$_Tree@V?$_Tmap_traits@KEU?$less@K@std@@V?$allocator@U?$pair@$$CBKE@std@@@2@$0A@@std@@@std@@I@std@@YAXViterator@?$_Tree@V?$_Tmap_traits@KEU?$less@K@std@@V?$allocator@U?$pair@$$CBKE@std@@@2@$0A@@std@@@0@0AAIUbidirectional_iterator_tag@0@@Z
_TEXT	SEGMENT PARA USE32 PUBLIC 'CODE'
_TEXT	ENDS
;	COMDAT ??$_Ptr_cat@PAU__SPAWNREGION@CEventLua@@PAU12@@std@@YA?AU_Nonscalar_ptr_iterator_tag@0@AAPAU__SPAWNREGION@CEventLua@@0@Z
_TEXT	SEGMENT PARA USE32 PUBLIC 'CODE'
_TEXT	ENDS
;	COMDAT ??$_Uninit_fill_n@PAU__SPAWNREGION@CEventLua@@IU12@V?$allocator@U__SPAWNREGION@CEventLua@@@std@@@std@@YAXPAU__SPAWNREGION@CEventLua@@IABU12@AAV?$allocator@U__SPAWNREGION@CEventLua@@@0@U_Nonscalar_ptr_iterator_tag@0@@Z
_TEXT	SEGMENT PARA USE32 PUBLIC 'CODE'
_TEXT	ENDS
;	COMDAT ??$_Copy_opt@PAJPAJ@std@@YAPAJPAJ00U_Scalar_ptr_iterator_tag@0@@Z
_TEXT	SEGMENT PARA USE32 PUBLIC 'CODE'
_TEXT	ENDS
;	COMDAT ??$_Uninitialized_copy@PAJPAJV?$allocator@J@std@@@std@@YAPAJPAJ00AAV?$allocator@J@0@@Z
_TEXT	SEGMENT PARA USE32 PUBLIC 'CODE'
_TEXT	ENDS
;	COMDAT ??$_Copy_backward_opt@PAJPAJ@std@@YAPAJPAJ00U_Scalar_ptr_iterator_tag@0@@Z
_TEXT	SEGMENT PARA USE32 PUBLIC 'CODE'
_TEXT	ENDS
;	COMDAT ??$_Ptr_cat@PAUtagDROPITEM@@PAU1@@std@@YA?AU_Nonscalar_ptr_iterator_tag@0@AAPAUtagDROPITEM@@0@Z
_TEXT	SEGMENT PARA USE32 PUBLIC 'CODE'
_TEXT	ENDS
;	COMDAT ??$_Destroy_range@UtagDROPITEM@@V?$allocator@UtagDROPITEM@@@std@@@std@@YAXPAUtagDROPITEM@@0AAV?$allocator@UtagDROPITEM@@@0@U_Nonscalar_ptr_iterator_tag@0@@Z
_TEXT	SEGMENT PARA USE32 PUBLIC 'CODE'
_TEXT	ENDS
;	COMDAT ??$_Ptr_cat@PAUWORMON@@PAU1@@std@@YA?AU_Nonscalar_ptr_iterator_tag@0@AAPAUWORMON@@0@Z
_TEXT	SEGMENT PARA USE32 PUBLIC 'CODE'
_TEXT	ENDS
;	COMDAT ??$_Destroy_range@UWORMON@@V?$allocator@UWORMON@@@std@@@std@@YAXPAUWORMON@@0AAV?$allocator@UWORMON@@@0@U_Nonscalar_ptr_iterator_tag@0@@Z
_TEXT	SEGMENT PARA USE32 PUBLIC 'CODE'
_TEXT	ENDS
;	COMDAT ??$_Ptr_cat@PAU__ITEMGAME@CMiniGame@@PAU12@@std@@YA?AU_Nonscalar_ptr_iterator_tag@0@AAPAU__ITEMGAME@CMiniGame@@0@Z
_TEXT	SEGMENT PARA USE32 PUBLIC 'CODE'
_TEXT	ENDS
;	COMDAT ??$_Destroy_range@U__ITEMGAME@CMiniGame@@V?$allocator@U__ITEMGAME@CMiniGame@@@std@@@std@@YAXPAU__ITEMGAME@CMiniGame@@0AAV?$allocator@U__ITEMGAME@CMiniGame@@@0@U_Nonscalar_ptr_iterator_tag@0@@Z
_TEXT	SEGMENT PARA USE32 PUBLIC 'CODE'
_TEXT	ENDS
;	COMDAT ??$_Destroy_range@KV?$allocator@K@std@@@std@@YAXPAK0AAV?$allocator@K@0@U_Scalar_ptr_iterator_tag@0@@Z
_TEXT	SEGMENT PARA USE32 PUBLIC 'CODE'
_TEXT	ENDS
;	COMDAT ??$_Destroy_range@HV?$allocator@H@std@@@std@@YAXPAH0AAV?$allocator@H@0@U_Scalar_ptr_iterator_tag@0@@Z
_TEXT	SEGMENT PARA USE32 PUBLIC 'CODE'
_TEXT	ENDS
;	COMDAT ??$_Ptr_cat@PAU__ITEM@CExchange@@PAU12@@std@@YA?AU_Nonscalar_ptr_iterator_tag@0@AAPAU__ITEM@CExchange@@0@Z
_TEXT	SEGMENT PARA USE32 PUBLIC 'CODE'
_TEXT	ENDS
;	COMDAT ??$_Destroy_range@U__ITEM@CExchange@@V?$allocator@U__ITEM@CExchange@@@std@@@std@@YAXPAU__ITEM@CExchange@@0AAV?$allocator@U__ITEM@CExchange@@@0@U_Nonscalar_ptr_iterator_tag@0@@Z
_TEXT	SEGMENT PARA USE32 PUBLIC 'CODE'
_TEXT	ENDS
;	COMDAT ??$_Ptr_cat@PAU__POINT@CExchange@@PAU12@@std@@YA?AU_Nonscalar_ptr_iterator_tag@0@AAPAU__POINT@CExchange@@0@Z
_TEXT	SEGMENT PARA USE32 PUBLIC 'CODE'
_TEXT	ENDS
;	COMDAT ??$_Destroy_range@U__POINT@CExchange@@V?$allocator@U__POINT@CExchange@@@std@@@std@@YAXPAU__POINT@CExchange@@0AAV?$allocator@U__POINT@CExchange@@@0@U_Nonscalar_ptr_iterator_tag@0@@Z
_TEXT	SEGMENT PARA USE32 PUBLIC 'CODE'
_TEXT	ENDS
;	COMDAT ??$_Destroy_range@EV?$allocator@E@std@@@std@@YAXPAE0AAV?$allocator@E@0@U_Scalar_ptr_iterator_tag@0@@Z
_TEXT	SEGMENT PARA USE32 PUBLIC 'CODE'
_TEXT	ENDS
;	COMDAT ??$_Uninitialized_copy@PAU__SPAWNREGION@CEventLua@@PAU12@V?$allocator@U__SPAWNREGION@CEventLua@@@std@@@std@@YAPAU__SPAWNREGION@CEventLua@@PAU12@00AAV?$allocator@U__SPAWNREGION@CEventLua@@@0@@Z
_TEXT	SEGMENT PARA USE32 PUBLIC 'CODE'
_TEXT	ENDS
;	COMDAT ??$_Copy_backward_opt@PAU__SPAWNREGION@CEventLua@@PAU12@@std@@YAPAU__SPAWNREGION@CEventLua@@PAU12@00U_Nonscalar_ptr_iterator_tag@0@@Z
_TEXT	SEGMENT PARA USE32 PUBLIC 'CODE'
_TEXT	ENDS
;	COMDAT ??$_Ptr_cat@PAUD3DXVECTOR3@@PAU1@@std@@YA?AU_Nonscalar_ptr_iterator_tag@0@AAPAUD3DXVECTOR3@@0@Z
_TEXT	SEGMENT PARA USE32 PUBLIC 'CODE'
_TEXT	ENDS
;	COMDAT ??$_Destroy_range@UD3DXVECTOR3@@V?$allocator@UD3DXVECTOR3@@@std@@@std@@YAXPAUD3DXVECTOR3@@0AAV?$allocator@UD3DXVECTOR3@@@0@U_Nonscalar_ptr_iterator_tag@0@@Z
_TEXT	SEGMENT PARA USE32 PUBLIC 'CODE'
_TEXT	ENDS
;	COMDAT ??$_Ptr_cat@PAU_GIFTBOX@@PAU1@@std@@YA?AU_Nonscalar_ptr_iterator_tag@0@AAPAU_GIFTBOX@@0@Z
_TEXT	SEGMENT PARA USE32 PUBLIC 'CODE'
_TEXT	ENDS
;	COMDAT ??$_Destroy_range@U_GIFTBOX@@V?$allocator@U_GIFTBOX@@@std@@@std@@YAXPAU_GIFTBOX@@0AAV?$allocator@U_GIFTBOX@@@0@U_Nonscalar_ptr_iterator_tag@0@@Z
_TEXT	SEGMENT PARA USE32 PUBLIC 'CODE'
_TEXT	ENDS
;	COMDAT ??$_Destroy_range@JV?$allocator@J@std@@@std@@YAXPAJ0AAV?$allocator@J@0@U_Scalar_ptr_iterator_tag@0@@Z
_TEXT	SEGMENT PARA USE32 PUBLIC 'CODE'
_TEXT	ENDS
;	COMDAT ??$_Uninit_fill_n@JIJ@std@@YAXPAJIABJAAV?$allocator@J@0@U_Scalar_ptr_iterator_tag@0@@Z
_TEXT	SEGMENT PARA USE32 PUBLIC 'CODE'
_TEXT	ENDS
;	COMDAT ??$_Destroy_range@U__SPAWNREGION@CEventLua@@V?$allocator@U__SPAWNREGION@CEventLua@@@std@@@std@@YAXPAU__SPAWNREGION@CEventLua@@0AAV?$allocator@U__SPAWNREGION@CEventLua@@@0@U_Nonscalar_ptr_iterator_tag@0@@Z
_TEXT	SEGMENT PARA USE32 PUBLIC 'CODE'
_TEXT	ENDS
;	COMDAT ??$make_pair@KPAVCGuildHouseBase@@@std@@YA?AU?$pair@KPAVCGuildHouseBase@@@0@KPAVCGuildHouseBase@@@Z
_TEXT	SEGMENT PARA USE32 PUBLIC 'CODE'
_TEXT	ENDS
;	COMDAT ??$?0KPAVCGuildHouseBase@@@?$pair@$$CBKPAVCGuildHouseBase@@@std@@QAE@ABU?$pair@KPAVCGuildHouseBase@@@1@@Z
_TEXT	SEGMENT PARA USE32 PUBLIC 'CODE'
_TEXT	ENDS
;	COMDAT ??$_Distance@Viterator@?$_Tree@V?$_Tmap_traits@KU_Friend@@U?$less@K@std@@V?$allocator@U?$pair@$$CBKU_Friend@@@std@@@3@$0A@@std@@@std@@I@std@@YAXViterator@?$_Tree@V?$_Tmap_traits@KU_Friend@@U?$less@K@std@@V?$allocator@U?$pair@$$CBKU_Friend@@@std@@@3@$0A@@std@@@0@0AAI@Z
_TEXT	SEGMENT PARA USE32 PUBLIC 'CODE'
_TEXT	ENDS
;	COMDAT ??$_Distance@Viterator@?$_Tree@V?$_Tmap_traits@KKU?$less@K@std@@V?$allocator@U?$pair@$$CBKK@std@@@2@$0A@@std@@@std@@I@std@@YAXViterator@?$_Tree@V?$_Tmap_traits@KKU?$less@K@std@@V?$allocator@U?$pair@$$CBKK@std@@@2@$0A@@std@@@0@0AAI@Z
_TEXT	SEGMENT PARA USE32 PUBLIC 'CODE'
_TEXT	ENDS
;	COMDAT ??$_Destroy@U_Node@?$_List_nod@PAU__JOINPLAYER@CGuildCombat@@V?$allocator@PAU__JOINPLAYER@CGuildCombat@@@std@@@std@@@std@@YAXPAU_Node@?$_List_nod@PAU__JOINPLAYER@CGuildCombat@@V?$allocator@PAU__JOINPLAYER@CGuildCombat@@@std@@@0@@Z
_TEXT	SEGMENT PARA USE32 PUBLIC 'CODE'
_TEXT	ENDS
;	COMDAT ??$_Uninitialized_fill_n@PAV?$basic_string@DU?$char_traits@D@std@@V?$allocator@D@2@@std@@IV12@V?$allocator@V?$basic_string@DU?$char_traits@D@std@@V?$allocator@D@2@@std@@@2@@std@@YAXPAV?$basic_string@DU?$char_traits@D@std@@V?$allocator@D@2@@0@IABV10@AAV?$allocator@V?$basic_string@DU?$char_traits@D@std@@V?$allocator@D@2@@std@@@0@@Z
_TEXT	SEGMENT PARA USE32 PUBLIC 'CODE'
_TEXT	ENDS
;	COMDAT ??$_Uninitialized_fill_n@PAUMINIGMAME_PRIZE_LIST@CRainbowRaceMng@@IU12@V?$allocator@UMINIGMAME_PRIZE_LIST@CRainbowRaceMng@@@std@@@std@@YAXPAUMINIGMAME_PRIZE_LIST@CRainbowRaceMng@@IABU12@AAV?$allocator@UMINIGMAME_PRIZE_LIST@CRainbowRaceMng@@@0@@Z
_TEXT	SEGMENT PARA USE32 PUBLIC 'CODE'
_TEXT	ENDS
;	COMDAT ??$_Allocate@V?$basic_string@DU?$char_traits@D@std@@V?$allocator@D@2@@std@@@std@@YAPAV?$basic_string@DU?$char_traits@D@std@@V?$allocator@D@2@@0@IPAV10@@Z
_TEXT	SEGMENT PARA USE32 PUBLIC 'CODE'
_TEXT	ENDS
;	COMDAT ??$?0PAUtagACTMSG@@@?$allocator@PAPAUtagACTMSG@@@std@@QAE@ABV?$allocator@PAUtagACTMSG@@@1@@Z
_TEXT	SEGMENT PARA USE32 PUBLIC 'CODE'
_TEXT	ENDS
;	COMDAT ??$_Destroy@PAPAUtagACTMSG@@@std@@YAXPAPAPAUtagACTMSG@@@Z
_TEXT	SEGMENT PARA USE32 PUBLIC 'CODE'
_TEXT	ENDS
;	COMDAT ??$?0PAUtagMAGICATKMSG@@@?$allocator@PAPAUtagMAGICATKMSG@@@std@@QAE@ABV?$allocator@PAUtagMAGICATKMSG@@@1@@Z
_TEXT	SEGMENT PARA USE32 PUBLIC 'CODE'
_TEXT	ENDS
;	COMDAT ??$_Destroy@PAPAUtagMAGICATKMSG@@@std@@YAXPAPAPAUtagMAGICATKMSG@@@Z
_TEXT	SEGMENT PARA USE32 PUBLIC 'CODE'
_TEXT	ENDS
;	COMDAT ??$_Destroy_range@PAU__JOINPLAYER@CGuildCombat@@V?$allocator@PAU__JOINPLAYER@CGuildCombat@@@std@@@std@@YAXPAPAU__JOINPLAYER@CGuildCombat@@0AAV?$allocator@PAU__JOINPLAYER@CGuildCombat@@@0@@Z
_TEXT	SEGMENT PARA USE32 PUBLIC 'CODE'
_TEXT	ENDS
;	COMDAT ??$_Destroy_range@U__SECRETROOM_MONSTER@@V?$allocator@U__SECRETROOM_MONSTER@@@std@@@std@@YAXPAU__SECRETROOM_MONSTER@@0AAV?$allocator@U__SECRETROOM_MONSTER@@@0@@Z
_TEXT	SEGMENT PARA USE32 PUBLIC 'CODE'
_TEXT	ENDS
;	COMDAT ??$_Allocate@U__SECRETROOM_MONSTER@@@std@@YAPAU__SECRETROOM_MONSTER@@IPAU1@@Z
_TEXT	SEGMENT PARA USE32 PUBLIC 'CODE'
_TEXT	ENDS
;	COMDAT ??$_Destroy_range@V?$basic_string@DU?$char_traits@D@std@@V?$allocator@D@2@@std@@V?$allocator@V?$basic_string@DU?$char_traits@D@std@@V?$allocator@D@2@@std@@@2@@std@@YAXPAV?$basic_string@DU?$char_traits@D@std@@V?$allocator@D@2@@0@0AAV?$allocator@V?$basic_string@DU?$char_traits@D@std@@V?$allocator@D@2@@std@@@0@@Z
_TEXT	SEGMENT PARA USE32 PUBLIC 'CODE'
_TEXT	ENDS
;	COMDAT ??$_Ucopy@PAV?$basic_string@DU?$char_traits@D@std@@V?$allocator@D@2@@std@@@?$vector@V?$basic_string@DU?$char_traits@D@std@@V?$allocator@D@2@@std@@V?$allocator@V?$basic_string@DU?$char_traits@D@std@@V?$allocator@D@2@@std@@@2@@std@@IAEPAV?$basic_string@DU?$char_traits@D@std@@V?$allocator@D@2@@1@PAV21@00@Z
_TEXT	SEGMENT PARA USE32 PUBLIC 'CODE'
_TEXT	ENDS
;	COMDAT ??$fill@PAV?$basic_string@DU?$char_traits@D@std@@V?$allocator@D@2@@std@@V12@@std@@YAXPAV?$basic_string@DU?$char_traits@D@std@@V?$allocator@D@2@@0@0ABV10@@Z
_TEXT	SEGMENT PARA USE32 PUBLIC 'CODE'
_TEXT	ENDS
;	COMDAT ??$copy_backward@PAV?$basic_string@DU?$char_traits@D@std@@V?$allocator@D@2@@std@@PAV12@@std@@YAPAV?$basic_string@DU?$char_traits@D@std@@V?$allocator@D@2@@0@PAV10@00@Z
_TEXT	SEGMENT PARA USE32 PUBLIC 'CODE'
_TEXT	ENDS
;	COMDAT ??$_Ucopy@PAUMINIGMAME_PRIZE_LIST@CRainbowRaceMng@@@?$vector@UMINIGMAME_PRIZE_LIST@CRainbowRaceMng@@V?$allocator@UMINIGMAME_PRIZE_LIST@CRainbowRaceMng@@@std@@@std@@IAEPAUMINIGMAME_PRIZE_LIST@CRainbowRaceMng@@PAU23@00@Z
_TEXT	SEGMENT PARA USE32 PUBLIC 'CODE'
_TEXT	ENDS
;	COMDAT ??$fill@PAUMINIGMAME_PRIZE_LIST@CRainbowRaceMng@@U12@@std@@YAXPAUMINIGMAME_PRIZE_LIST@CRainbowRaceMng@@0ABU12@@Z
_TEXT	SEGMENT PARA USE32 PUBLIC 'CODE'
_TEXT	ENDS
;	COMDAT ??$copy_backward@PAUMINIGMAME_PRIZE_LIST@CRainbowRaceMng@@PAU12@@std@@YAPAUMINIGMAME_PRIZE_LIST@CRainbowRaceMng@@PAU12@00@Z
_TEXT	SEGMENT PARA USE32 PUBLIC 'CODE'
_TEXT	ENDS
;	COMDAT ??$_Destroy@PAU_Node@?$_Tree_nod@V?$_Tmap_traits@KPAVCClientSock@@U?$less@K@std@@V?$allocator@U?$pair@$$CBKPAVCClientSock@@@std@@@3@$0A@@std@@@std@@@std@@YAXPAPAU_Node@?$_Tree_nod@V?$_Tmap_traits@KPAVCClientSock@@U?$less@K@std@@V?$allocator@U?$pair@$$CBKPAVCClientSock@@@std@@@3@$0A@@std@@@0@@Z
_TEXT	SEGMENT PARA USE32 PUBLIC 'CODE'
_TEXT	ENDS
;	COMDAT ??$_Destroy@PAU_Node@?$_Tree_nod@V?$_Tmap_traits@KPAVCClientSockE@@U?$less@K@std@@V?$allocator@U?$pair@$$CBKPAVCClientSockE@@@std@@@3@$0A@@std@@@std@@@std@@YAXPAPAU_Node@?$_Tree_nod@V?$_Tmap_traits@KPAVCClientSockE@@U?$less@K@std@@V?$allocator@U?$pair@$$CBKPAVCClientSockE@@@std@@@3@$0A@@std@@@0@@Z
_TEXT	SEGMENT PARA USE32 PUBLIC 'CODE'
_TEXT	ENDS
;	COMDAT ??$_Destroy@PAUtagACTMSG@@@std@@YAXPAPAUtagACTMSG@@@Z
_TEXT	SEGMENT PARA USE32 PUBLIC 'CODE'
_TEXT	ENDS
;	COMDAT ??$_Destroy@PAUtagMAGICATKMSG@@@std@@YAXPAPAUtagMAGICATKMSG@@@Z
_TEXT	SEGMENT PARA USE32 PUBLIC 'CODE'
_TEXT	ENDS
;	COMDAT ??$_Destroy@U_Node@?$_Tree_nod@V?$_Tmap_traits@KU_Friend@@U?$less@K@std@@V?$allocator@U?$pair@$$CBKU_Friend@@@std@@@3@$0A@@std@@@std@@@std@@YAXPAU_Node@?$_Tree_nod@V?$_Tmap_traits@KU_Friend@@U?$less@K@std@@V?$allocator@U?$pair@$$CBKU_Friend@@@std@@@3@$0A@@std@@@0@@Z
_TEXT	SEGMENT PARA USE32 PUBLIC 'CODE'
_TEXT	ENDS
;	COMDAT ??$_Destroy_range@UMINIGMAME_PRIZE_LIST@CRainbowRaceMng@@V?$allocator@UMINIGMAME_PRIZE_LIST@CRainbowRaceMng@@@std@@@std@@YAXPAUMINIGMAME_PRIZE_LIST@CRainbowRaceMng@@0AAV?$allocator@UMINIGMAME_PRIZE_LIST@CRainbowRaceMng@@@0@@Z
_TEXT	SEGMENT PARA USE32 PUBLIC 'CODE'
_TEXT	ENDS
;	COMDAT ??$_Allocate@UMINIGMAME_PRIZE_LIST@CRainbowRaceMng@@@std@@YAPAUMINIGMAME_PRIZE_LIST@CRainbowRaceMng@@IPAU12@@Z
_TEXT	SEGMENT PARA USE32 PUBLIC 'CODE'
_TEXT	ENDS
;	COMDAT ??$_Allocate@U_Node@?$_Tree_nod@V?$_Tmap_traits@KPAVCGuildHouseBase@@U?$less@K@std@@V?$allocator@U?$pair@$$CBKPAVCGuildHouseBase@@@std@@@3@$0A@@std@@@std@@@std@@YAPAU_Node@?$_Tree_nod@V?$_Tmap_traits@KPAVCGuildHouseBase@@U?$less@K@std@@V?$allocator@U?$pair@$$CBKPAVCGuildHouseBase@@@std@@@3@$0A@@std@@@0@IPAU120@@Z
_TEXT	SEGMENT PARA USE32 PUBLIC 'CODE'
_TEXT	ENDS
;	COMDAT ??$_Destroy@U_Node@?$_Tree_nod@V?$_Tmap_traits@KKU?$less@K@std@@V?$allocator@U?$pair@$$CBKK@std@@@2@$0A@@std@@@std@@@std@@YAXPAU_Node@?$_Tree_nod@V?$_Tmap_traits@KKU?$less@K@std@@V?$allocator@U?$pair@$$CBKK@std@@@2@$0A@@std@@@0@@Z
_TEXT	SEGMENT PARA USE32 PUBLIC 'CODE'
_TEXT	ENDS
;	COMDAT ??$?0U?$pair@$$CBKPAVCClientSock@@@std@@@?$allocator@PAU_Node@?$_Tree_nod@V?$_Tmap_traits@KPAVCClientSock@@U?$less@K@std@@V?$allocator@U?$pair@$$CBKPAVCClientSock@@@std@@@3@$0A@@std@@@std@@@std@@QAE@ABV?$allocator@U?$pair@$$CBKPAVCClientSock@@@std@@@1@@Z
_TEXT	SEGMENT PARA USE32 PUBLIC 'CODE'
_TEXT	ENDS
;	COMDAT ??$?0U?$pair@$$CBKPAVCClientSockE@@@std@@@?$allocator@PAU_Node@?$_Tree_nod@V?$_Tmap_traits@KPAVCClientSockE@@U?$less@K@std@@V?$allocator@U?$pair@$$CBKPAVCClientSockE@@@std@@@3@$0A@@std@@@std@@@std@@QAE@ABV?$allocator@U?$pair@$$CBKPAVCClientSockE@@@std@@@1@@Z
_TEXT	SEGMENT PARA USE32 PUBLIC 'CODE'
_TEXT	ENDS
;	COMDAT ??$?0U?$pair@$$CBKPAVCClientSock@@@std@@@?$allocator@U_Node@?$_Tree_nod@V?$_Tmap_traits@KPAVCClientSock@@U?$less@K@std@@V?$allocator@U?$pair@$$CBKPAVCClientSock@@@std@@@3@$0A@@std@@@std@@@std@@QAE@ABV?$allocator@U?$pair@$$CBKPAVCClientSock@@@std@@@1@@Z
_TEXT	SEGMENT PARA USE32 PUBLIC 'CODE'
_TEXT	ENDS
;	COMDAT ??$_Allocate@U_Node@?$_Tree_nod@V?$_Tmap_traits@KPAVCClientSock@@U?$less@K@std@@V?$allocator@U?$pair@$$CBKPAVCClientSock@@@std@@@3@$0A@@std@@@std@@@std@@YAPAU_Node@?$_Tree_nod@V?$_Tmap_traits@KPAVCClientSock@@U?$less@K@std@@V?$allocator@U?$pair@$$CBKPAVCClientSock@@@std@@@3@$0A@@std@@@0@IPAU120@@Z
_TEXT	SEGMENT PARA USE32 PUBLIC 'CODE'
_TEXT	ENDS
;	COMDAT ??$_Destroy@U_Node@?$_Tree_nod@V?$_Tmap_traits@KPAVCClientSock@@U?$less@K@std@@V?$allocator@U?$pair@$$CBKPAVCClientSock@@@std@@@3@$0A@@std@@@std@@@std@@YAXPAU_Node@?$_Tree_nod@V?$_Tmap_traits@KPAVCClientSock@@U?$less@K@std@@V?$allocator@U?$pair@$$CBKPAVCClientSock@@@std@@@3@$0A@@std@@@0@@Z
_TEXT	SEGMENT PARA USE32 PUBLIC 'CODE'
_TEXT	ENDS
;	COMDAT ??$_Construct@PAU_Node@?$_Tree_nod@V?$_Tmap_traits@KPAVCClientSock@@U?$less@K@std@@V?$allocator@U?$pair@$$CBKPAVCClientSock@@@std@@@3@$0A@@std@@@std@@PAU123@@std@@YAXPAPAU_Node@?$_Tree_nod@V?$_Tmap_traits@KPAVCClientSock@@U?$less@K@std@@V?$allocator@U?$pair@$$CBKPAVCClientSock@@@std@@@3@$0A@@std@@@0@ABQAU120@@Z
_TEXT	SEGMENT PARA USE32 PUBLIC 'CODE'
_TEXT	ENDS
;	COMDAT ??$?0U?$pair@$$CBKPAVCClientSockE@@@std@@@?$allocator@U_Node@?$_Tree_nod@V?$_Tmap_traits@KPAVCClientSockE@@U?$less@K@std@@V?$allocator@U?$pair@$$CBKPAVCClientSockE@@@std@@@3@$0A@@std@@@std@@@std@@QAE@ABV?$allocator@U?$pair@$$CBKPAVCClientSockE@@@std@@@1@@Z
_TEXT	SEGMENT PARA USE32 PUBLIC 'CODE'
_TEXT	ENDS
;	COMDAT ??$_Allocate@U_Node@?$_Tree_nod@V?$_Tmap_traits@KPAVCClientSockE@@U?$less@K@std@@V?$allocator@U?$pair@$$CBKPAVCClientSockE@@@std@@@3@$0A@@std@@@std@@@std@@YAPAU_Node@?$_Tree_nod@V?$_Tmap_traits@KPAVCClientSockE@@U?$less@K@std@@V?$allocator@U?$pair@$$CBKPAVCClientSockE@@@std@@@3@$0A@@std@@@0@IPAU120@@Z
_TEXT	SEGMENT PARA USE32 PUBLIC 'CODE'
_TEXT	ENDS
;	COMDAT ??$_Destroy@U_Node@?$_Tree_nod@V?$_Tmap_traits@KPAVCClientSockE@@U?$less@K@std@@V?$allocator@U?$pair@$$CBKPAVCClientSockE@@@std@@@3@$0A@@std@@@std@@@std@@YAXPAU_Node@?$_Tree_nod@V?$_Tmap_traits@KPAVCClientSockE@@U?$less@K@std@@V?$allocator@U?$pair@$$CBKPAVCClientSockE@@@std@@@3@$0A@@std@@@0@@Z
_TEXT	SEGMENT PARA USE32 PUBLIC 'CODE'
_TEXT	ENDS
;	COMDAT ??$_Construct@PAU_Node@?$_Tree_nod@V?$_Tmap_traits@KPAVCClientSockE@@U?$less@K@std@@V?$allocator@U?$pair@$$CBKPAVCClientSockE@@@std@@@3@$0A@@std@@@std@@PAU123@@std@@YAXPAPAU_Node@?$_Tree_nod@V?$_Tmap_traits@KPAVCClientSockE@@U?$less@K@std@@V?$allocator@U?$pair@$$CBKPAVCClientSockE@@@std@@@3@$0A@@std@@@0@ABQAU120@@Z
_TEXT	SEGMENT PARA USE32 PUBLIC 'CODE'
_TEXT	ENDS
;	COMDAT ?destroy@?$allocator@UtagDROPITEM@@@std@@QAEXPAUtagDROPITEM@@@Z
_TEXT	SEGMENT PARA USE32 PUBLIC 'CODE'
_TEXT	ENDS
;	COMDAT ?destroy@?$allocator@UWORMON@@@std@@QAEXPAUWORMON@@@Z
_TEXT	SEGMENT PARA USE32 PUBLIC 'CODE'
_TEXT	ENDS
;	COMDAT ?destroy@?$allocator@U__ITEMGAME@CMiniGame@@@std@@QAEXPAU__ITEMGAME@CMiniGame@@@Z
_TEXT	SEGMENT PARA USE32 PUBLIC 'CODE'
_TEXT	ENDS
;	COMDAT ?destroy@?$allocator@U__ITEM@CExchange@@@std@@QAEXPAU__ITEM@CExchange@@@Z
_TEXT	SEGMENT PARA USE32 PUBLIC 'CODE'
_TEXT	ENDS
;	COMDAT ?destroy@?$allocator@U__POINT@CExchange@@@std@@QAEXPAU__POINT@CExchange@@@Z
_TEXT	SEGMENT PARA USE32 PUBLIC 'CODE'
_TEXT	ENDS
;	COMDAT ?begin@?$vector@EV?$allocator@E@std@@@std@@QAE?AViterator@12@XZ
_TEXT	SEGMENT PARA USE32 PUBLIC 'CODE'
_TEXT	ENDS
;	COMDAT ?end@?$vector@EV?$allocator@E@std@@@std@@QAE?AViterator@12@XZ
_TEXT	SEGMENT PARA USE32 PUBLIC 'CODE'
_TEXT	ENDS
;	COMDAT ?erase@?$vector@EV?$allocator@E@std@@@std@@QAE?AViterator@12@V312@0@Z
_TEXT	SEGMENT PARA USE32 PUBLIC 'CODE'
_TEXT	ENDS
;	COMDAT ?construct@?$allocator@U__SPAWNREGION@CEventLua@@@std@@QAEXPAU__SPAWNREGION@CEventLua@@ABU34@@Z
_TEXT	SEGMENT PARA USE32 PUBLIC 'CODE'
_TEXT	ENDS
;	COMDAT ?destroy@?$allocator@U__SPAWNREGION@CEventLua@@@std@@QAEXPAU__SPAWNREGION@CEventLua@@@Z
_TEXT	SEGMENT PARA USE32 PUBLIC 'CODE'
_TEXT	ENDS
;	COMDAT ?destroy@?$allocator@UD3DXVECTOR3@@@std@@QAEXPAUD3DXVECTOR3@@@Z
_TEXT	SEGMENT PARA USE32 PUBLIC 'CODE'
_TEXT	ENDS
;	COMDAT ?destroy@?$allocator@U_GIFTBOX@@@std@@QAEXPAU_GIFTBOX@@@Z
_TEXT	SEGMENT PARA USE32 PUBLIC 'CODE'
_TEXT	ENDS
;	COMDAT ??0?$pair@KPAVCGuildHouseBase@@@std@@QAE@ABKABQAVCGuildHouseBase@@@Z
_TEXT	SEGMENT PARA USE32 PUBLIC 'CODE'
_TEXT	ENDS
;	COMDAT ??9const_iterator@?$vector@EV?$allocator@E@std@@@std@@QBE_NABV012@@Z
_TEXT	SEGMENT PARA USE32 PUBLIC 'CODE'
_TEXT	ENDS
;	COMDAT ??0iterator@?$vector@EV?$allocator@E@std@@@std@@QAE@PAE@Z
_TEXT	SEGMENT PARA USE32 PUBLIC 'CODE'
_TEXT	ENDS
;	COMDAT ??8const_iterator@?$vector@EV?$allocator@E@std@@@std@@QBE_NABV012@@Z
_TEXT	SEGMENT PARA USE32 PUBLIC 'CODE'
_TEXT	ENDS
;	COMDAT ??$insert@Vconst_iterator@?$vector@EV?$allocator@E@std@@@std@@@?$vector@EV?$allocator@E@std@@@std@@QAEXViterator@01@Vconst_iterator@01@1@Z
_TEXT	SEGMENT PARA USE32 PUBLIC 'CODE'
_TEXT	ENDS
;	COMDAT ??$_Ptr_cat@Vconst_iterator@?$vector@EV?$allocator@E@std@@@std@@PAE@std@@YA?AU_Nonscalar_ptr_iterator_tag@0@AAVconst_iterator@?$vector@EV?$allocator@E@std@@@0@AAPAE@Z
_TEXT	SEGMENT PARA USE32 PUBLIC 'CODE'
_TEXT	ENDS
;	COMDAT ??$_Uninit_copy@Vconst_iterator@?$vector@EV?$allocator@E@std@@@std@@PAEV?$allocator@E@3@@std@@YAPAEVconst_iterator@?$vector@EV?$allocator@E@std@@@0@0PAEAAV?$allocator@E@0@U_Nonscalar_ptr_iterator_tag@0@@Z
_TEXT	SEGMENT PARA USE32 PUBLIC 'CODE'
_TEXT	ENDS
;	COMDAT ??$_Uninit_copy@JJ@std@@YAPAJPAJ00AAV?$allocator@J@0@U_Scalar_ptr_iterator_tag@0@@Z
_TEXT	SEGMENT PARA USE32 PUBLIC 'CODE'
_TEXT	ENDS
;	COMDAT ??$_Uninit_copy@PAU__SPAWNREGION@CEventLua@@PAU12@V?$allocator@U__SPAWNREGION@CEventLua@@@std@@@std@@YAPAU__SPAWNREGION@CEventLua@@PAU12@00AAV?$allocator@U__SPAWNREGION@CEventLua@@@0@U_Nonscalar_ptr_iterator_tag@0@@Z
_TEXT	SEGMENT PARA USE32 PUBLIC 'CODE'
_TEXT	ENDS
;	COMDAT ??$fill_n@PAJIJ@std@@YAXPAJIABJ@Z
_TEXT	SEGMENT PARA USE32 PUBLIC 'CODE'
_TEXT	ENDS
;	COMDAT ??$_Iter_cat@Viterator@?$_Tree@V?$_Tmap_traits@KU_Friend@@U?$less@K@std@@V?$allocator@U?$pair@$$CBKU_Friend@@@std@@@3@$0A@@std@@@std@@@std@@YA?AUbidirectional_iterator_tag@0@ABViterator@?$_Tree@V?$_Tmap_traits@KU_Friend@@U?$less@K@std@@V?$allocator@U?$pair@$$CBKU_Friend@@@std@@@3@$0A@@std@@@0@@Z
_TEXT	SEGMENT PARA USE32 PUBLIC 'CODE'
_TEXT	ENDS
;	COMDAT ??$_Distance2@Viterator@?$_Tree@V?$_Tmap_traits@KU_Friend@@U?$less@K@std@@V?$allocator@U?$pair@$$CBKU_Friend@@@std@@@3@$0A@@std@@@std@@I@std@@YAXViterator@?$_Tree@V?$_Tmap_traits@KU_Friend@@U?$less@K@std@@V?$allocator@U?$pair@$$CBKU_Friend@@@std@@@3@$0A@@std@@@0@0AAIUbidirectional_iterator_tag@0@@Z
_TEXT	SEGMENT PARA USE32 PUBLIC 'CODE'
_TEXT	ENDS
;	COMDAT ??$_Iter_cat@Viterator@?$_Tree@V?$_Tmap_traits@KKU?$less@K@std@@V?$allocator@U?$pair@$$CBKK@std@@@2@$0A@@std@@@std@@@std@@YA?AUbidirectional_iterator_tag@0@ABViterator@?$_Tree@V?$_Tmap_traits@KKU?$less@K@std@@V?$allocator@U?$pair@$$CBKK@std@@@2@$0A@@std@@@0@@Z
_TEXT	SEGMENT PARA USE32 PUBLIC 'CODE'
_TEXT	ENDS
;	COMDAT ??$_Distance2@Viterator@?$_Tree@V?$_Tmap_traits@KKU?$less@K@std@@V?$allocator@U?$pair@$$CBKK@std@@@2@$0A@@std@@@std@@I@std@@YAXViterator@?$_Tree@V?$_Tmap_traits@KKU?$less@K@std@@V?$allocator@U?$pair@$$CBKK@std@@@2@$0A@@std@@@0@0AAIUbidirectional_iterator_tag@0@@Z
_TEXT	SEGMENT PARA USE32 PUBLIC 'CODE'
_TEXT	ENDS
;	COMDAT ??$_Ptr_cat@PAV?$basic_string@DU?$char_traits@D@std@@V?$allocator@D@2@@std@@PAV12@@std@@YA?AU_Nonscalar_ptr_iterator_tag@0@AAPAV?$basic_string@DU?$char_traits@D@std@@V?$allocator@D@2@@0@0@Z
_TEXT	SEGMENT PARA USE32 PUBLIC 'CODE'
_TEXT	ENDS
;	COMDAT ??$_Uninit_fill_n@PAV?$basic_string@DU?$char_traits@D@std@@V?$allocator@D@2@@std@@IV12@V?$allocator@V?$basic_string@DU?$char_traits@D@std@@V?$allocator@D@2@@std@@@2@@std@@YAXPAV?$basic_string@DU?$char_traits@D@std@@V?$allocator@D@2@@0@IABV10@AAV?$allocator@V?$basic_string@DU?$char_traits@D@std@@V?$allocator@D@2@@std@@@0@U_Nonscalar_ptr_iterator_tag@0@@Z
_TEXT	SEGMENT PARA USE32 PUBLIC 'CODE'
_TEXT	ENDS
;	COMDAT ??$_Ptr_cat@PAUMINIGMAME_PRIZE_LIST@CRainbowRaceMng@@PAU12@@std@@YA?AU_Nonscalar_ptr_iterator_tag@0@AAPAUMINIGMAME_PRIZE_LIST@CRainbowRaceMng@@0@Z
_TEXT	SEGMENT PARA USE32 PUBLIC 'CODE'
_TEXT	ENDS
;	COMDAT ??$_Uninit_fill_n@PAUMINIGMAME_PRIZE_LIST@CRainbowRaceMng@@IU12@V?$allocator@UMINIGMAME_PRIZE_LIST@CRainbowRaceMng@@@std@@@std@@YAXPAUMINIGMAME_PRIZE_LIST@CRainbowRaceMng@@IABU12@AAV?$allocator@UMINIGMAME_PRIZE_LIST@CRainbowRaceMng@@@0@U_Nonscalar_ptr_iterator_tag@0@@Z
_TEXT	SEGMENT PARA USE32 PUBLIC 'CODE'
_TEXT	ENDS
;	COMDAT ??$_Ptr_cat@U__JOINPLAYER@CGuildCombat@@@std@@YA?AU_Scalar_ptr_iterator_tag@0@PAPAU__JOINPLAYER@CGuildCombat@@0@Z
_TEXT	SEGMENT PARA USE32 PUBLIC 'CODE'
_TEXT	ENDS
;	COMDAT ??$_Destroy_range@PAU__JOINPLAYER@CGuildCombat@@V?$allocator@PAU__JOINPLAYER@CGuildCombat@@@std@@@std@@YAXPAPAU__JOINPLAYER@CGuildCombat@@0AAV?$allocator@PAU__JOINPLAYER@CGuildCombat@@@0@U_Scalar_ptr_iterator_tag@0@@Z
_TEXT	SEGMENT PARA USE32 PUBLIC 'CODE'
_TEXT	ENDS
;	COMDAT ??$_Ptr_cat@PAU__SECRETROOM_MONSTER@@PAU1@@std@@YA?AU_Nonscalar_ptr_iterator_tag@0@AAPAU__SECRETROOM_MONSTER@@0@Z
_TEXT	SEGMENT PARA USE32 PUBLIC 'CODE'
_TEXT	ENDS
;	COMDAT ??$_Destroy_range@U__SECRETROOM_MONSTER@@V?$allocator@U__SECRETROOM_MONSTER@@@std@@@std@@YAXPAU__SECRETROOM_MONSTER@@0AAV?$allocator@U__SECRETROOM_MONSTER@@@0@U_Nonscalar_ptr_iterator_tag@0@@Z
_TEXT	SEGMENT PARA USE32 PUBLIC 'CODE'
_TEXT	ENDS
;	COMDAT ??$_Destroy_range@V?$basic_string@DU?$char_traits@D@std@@V?$allocator@D@2@@std@@V?$allocator@V?$basic_string@DU?$char_traits@D@std@@V?$allocator@D@2@@std@@@2@@std@@YAXPAV?$basic_string@DU?$char_traits@D@std@@V?$allocator@D@2@@0@0AAV?$allocator@V?$basic_string@DU?$char_traits@D@std@@V?$allocator@D@2@@std@@@0@U_Nonscalar_ptr_iterator_tag@0@@Z
_TEXT	SEGMENT PARA USE32 PUBLIC 'CODE'
_TEXT	ENDS
;	COMDAT ??$_Uninitialized_copy@PAV?$basic_string@DU?$char_traits@D@std@@V?$allocator@D@2@@std@@PAV12@V?$allocator@V?$basic_string@DU?$char_traits@D@std@@V?$allocator@D@2@@std@@@2@@std@@YAPAV?$basic_string@DU?$char_traits@D@std@@V?$allocator@D@2@@0@PAV10@00AAV?$allocator@V?$basic_string@DU?$char_traits@D@std@@V?$allocator@D@2@@std@@@0@@Z
_TEXT	SEGMENT PARA USE32 PUBLIC 'CODE'
_TEXT	ENDS
;	COMDAT ??$_Copy_backward_opt@PAV?$basic_string@DU?$char_traits@D@std@@V?$allocator@D@2@@std@@PAV12@@std@@YAPAV?$basic_string@DU?$char_traits@D@std@@V?$allocator@D@2@@0@PAV10@00U_Nonscalar_ptr_iterator_tag@0@@Z
_TEXT	SEGMENT PARA USE32 PUBLIC 'CODE'
_TEXT	ENDS
;	COMDAT ??$_Uninitialized_copy@PAUMINIGMAME_PRIZE_LIST@CRainbowRaceMng@@PAU12@V?$allocator@UMINIGMAME_PRIZE_LIST@CRainbowRaceMng@@@std@@@std@@YAPAUMINIGMAME_PRIZE_LIST@CRainbowRaceMng@@PAU12@00AAV?$allocator@UMINIGMAME_PRIZE_LIST@CRainbowRaceMng@@@0@@Z
_TEXT	SEGMENT PARA USE32 PUBLIC 'CODE'
_TEXT	ENDS
;	COMDAT ??$_Copy_backward_opt@PAUMINIGMAME_PRIZE_LIST@CRainbowRaceMng@@PAU12@@std@@YAPAUMINIGMAME_PRIZE_LIST@CRainbowRaceMng@@PAU12@00U_Nonscalar_ptr_iterator_tag@0@@Z
_TEXT	SEGMENT PARA USE32 PUBLIC 'CODE'
_TEXT	ENDS
;	COMDAT ??$_Destroy_range@UMINIGMAME_PRIZE_LIST@CRainbowRaceMng@@V?$allocator@UMINIGMAME_PRIZE_LIST@CRainbowRaceMng@@@std@@@std@@YAXPAUMINIGMAME_PRIZE_LIST@CRainbowRaceMng@@0AAV?$allocator@UMINIGMAME_PRIZE_LIST@CRainbowRaceMng@@@0@U_Nonscalar_ptr_iterator_tag@0@@Z
_TEXT	SEGMENT PARA USE32 PUBLIC 'CODE'
_TEXT	ENDS
;	COMDAT ??$_Destroy@UtagDROPITEM@@@std@@YAXPAUtagDROPITEM@@@Z
_TEXT	SEGMENT PARA USE32 PUBLIC 'CODE'
_TEXT	ENDS
;	COMDAT ??$_Destroy@UWORMON@@@std@@YAXPAUWORMON@@@Z
_TEXT	SEGMENT PARA USE32 PUBLIC 'CODE'
_TEXT	ENDS
;	COMDAT ??$_Destroy@U__ITEMGAME@CMiniGame@@@std@@YAXPAU__ITEMGAME@CMiniGame@@@Z
_TEXT	SEGMENT PARA USE32 PUBLIC 'CODE'
_TEXT	ENDS
;	COMDAT ??$_Destroy@U__ITEM@CExchange@@@std@@YAXPAU__ITEM@CExchange@@@Z
_TEXT	SEGMENT PARA USE32 PUBLIC 'CODE'
_TEXT	ENDS
;	COMDAT ??$_Destroy@U__POINT@CExchange@@@std@@YAXPAU__POINT@CExchange@@@Z
_TEXT	SEGMENT PARA USE32 PUBLIC 'CODE'
_TEXT	ENDS
;	COMDAT ??$copy@PAEPAE@std@@YAPAEPAE00@Z
_TEXT	SEGMENT PARA USE32 PUBLIC 'CODE'
_TEXT	ENDS
;	COMDAT ??$_Construct@U__SPAWNREGION@CEventLua@@U12@@std@@YAXPAU__SPAWNREGION@CEventLua@@ABU12@@Z
_TEXT	SEGMENT PARA USE32 PUBLIC 'CODE'
_TEXT	ENDS
;	COMDAT ??$_Destroy@U__SPAWNREGION@CEventLua@@@std@@YAXPAU__SPAWNREGION@CEventLua@@@Z
_TEXT	SEGMENT PARA USE32 PUBLIC 'CODE'
_TEXT	ENDS
;	COMDAT ??$_Destroy@UD3DXVECTOR3@@@std@@YAXPAUD3DXVECTOR3@@@Z
_TEXT	SEGMENT PARA USE32 PUBLIC 'CODE'
_TEXT	ENDS
;	COMDAT ??$_Destroy@U_GIFTBOX@@@std@@YAXPAU_GIFTBOX@@@Z
_TEXT	SEGMENT PARA USE32 PUBLIC 'CODE'
_TEXT	ENDS
;	COMDAT ?construct@?$allocator@V?$basic_string@DU?$char_traits@D@std@@V?$allocator@D@2@@std@@@std@@QAEXPAV?$basic_string@DU?$char_traits@D@std@@V?$allocator@D@2@@2@ABV32@@Z
_TEXT	SEGMENT PARA USE32 PUBLIC 'CODE'
_TEXT	ENDS
;	COMDAT ?destroy@?$allocator@V?$basic_string@DU?$char_traits@D@std@@V?$allocator@D@2@@std@@@std@@QAEXPAV?$basic_string@DU?$char_traits@D@std@@V?$allocator@D@2@@2@@Z
_TEXT	SEGMENT PARA USE32 PUBLIC 'CODE'
_TEXT	ENDS
;	COMDAT ?construct@?$allocator@E@std@@QAEXPAEABE@Z
_TEXT	SEGMENT PARA USE32 PUBLIC 'CODE'
_TEXT	ENDS
;	COMDAT ?destroy@?$allocator@E@std@@QAEXPAE@Z
_TEXT	SEGMENT PARA USE32 PUBLIC 'CODE'
_TEXT	ENDS
;	COMDAT ??Dconst_iterator@?$vector@EV?$allocator@E@std@@@std@@QBEABEXZ
_TEXT	SEGMENT PARA USE32 PUBLIC 'CODE'
_TEXT	ENDS
;	COMDAT ??Econst_iterator@?$vector@EV?$allocator@E@std@@@std@@QAEAAV012@XZ
_TEXT	SEGMENT PARA USE32 PUBLIC 'CODE'
_TEXT	ENDS
;	COMDAT ?destroy@?$allocator@U__SECRETROOM_MONSTER@@@std@@QAEXPAU__SECRETROOM_MONSTER@@@Z
_TEXT	SEGMENT PARA USE32 PUBLIC 'CODE'
_TEXT	ENDS
;	COMDAT ?construct@?$allocator@UMINIGMAME_PRIZE_LIST@CRainbowRaceMng@@@std@@QAEXPAUMINIGMAME_PRIZE_LIST@CRainbowRaceMng@@ABU34@@Z
_TEXT	SEGMENT PARA USE32 PUBLIC 'CODE'
_TEXT	ENDS
;	COMDAT ?destroy@?$allocator@UMINIGMAME_PRIZE_LIST@CRainbowRaceMng@@@std@@QAEXPAUMINIGMAME_PRIZE_LIST@CRainbowRaceMng@@@Z
_TEXT	SEGMENT PARA USE32 PUBLIC 'CODE'
_TEXT	ENDS
;	COMDAT ??$_Insert@Vconst_iterator@?$vector@EV?$allocator@E@std@@@std@@@?$vector@EV?$allocator@E@std@@@std@@QAEXViterator@01@Vconst_iterator@01@1Uforward_iterator_tag@1@@Z
_TEXT	SEGMENT PARA USE32 PUBLIC 'CODE'
_TEXT	ENDS
;	COMDAT ??$_Uninit_copy@PAV?$basic_string@DU?$char_traits@D@std@@V?$allocator@D@2@@std@@PAV12@V?$allocator@V?$basic_string@DU?$char_traits@D@std@@V?$allocator@D@2@@std@@@2@@std@@YAPAV?$basic_string@DU?$char_traits@D@std@@V?$allocator@D@2@@0@PAV10@00AAV?$allocator@V?$basic_string@DU?$char_traits@D@std@@V?$allocator@D@2@@std@@@0@U_Nonscalar_ptr_iterator_tag@0@@Z
_TEXT	SEGMENT PARA USE32 PUBLIC 'CODE'
_TEXT	ENDS
;	COMDAT ??$_Uninit_copy@PAUMINIGMAME_PRIZE_LIST@CRainbowRaceMng@@PAU12@V?$allocator@UMINIGMAME_PRIZE_LIST@CRainbowRaceMng@@@std@@@std@@YAPAUMINIGMAME_PRIZE_LIST@CRainbowRaceMng@@PAU12@00AAV?$allocator@UMINIGMAME_PRIZE_LIST@CRainbowRaceMng@@@0@U_Nonscalar_ptr_iterator_tag@0@@Z
_TEXT	SEGMENT PARA USE32 PUBLIC 'CODE'
_TEXT	ENDS
;	COMDAT ??$_Copy_opt@PAEPAE@std@@YAPAEPAE00U_Scalar_ptr_iterator_tag@0@@Z
_TEXT	SEGMENT PARA USE32 PUBLIC 'CODE'
_TEXT	ENDS
;	COMDAT ??$_Construct@V?$basic_string@DU?$char_traits@D@std@@V?$allocator@D@2@@std@@V12@@std@@YAXPAV?$basic_string@DU?$char_traits@D@std@@V?$allocator@D@2@@0@ABV10@@Z
_TEXT	SEGMENT PARA USE32 PUBLIC 'CODE'
_TEXT	ENDS
;	COMDAT ??$_Destroy@V?$basic_string@DU?$char_traits@D@std@@V?$allocator@D@2@@std@@@std@@YAXPAV?$basic_string@DU?$char_traits@D@std@@V?$allocator@D@2@@0@@Z
_TEXT	SEGMENT PARA USE32 PUBLIC 'CODE'
_TEXT	ENDS
;	COMDAT ??$_Construct@EE@std@@YAXPAEABE@Z
_TEXT	SEGMENT PARA USE32 PUBLIC 'CODE'
_TEXT	ENDS
;	COMDAT ??$_Destroy@E@std@@YAXPAE@Z
_TEXT	SEGMENT PARA USE32 PUBLIC 'CODE'
_TEXT	ENDS
;	COMDAT ??$_Destroy@U__SECRETROOM_MONSTER@@@std@@YAXPAU__SECRETROOM_MONSTER@@@Z
_TEXT	SEGMENT PARA USE32 PUBLIC 'CODE'
_TEXT	ENDS
;	COMDAT ??$_Construct@UMINIGMAME_PRIZE_LIST@CRainbowRaceMng@@U12@@std@@YAXPAUMINIGMAME_PRIZE_LIST@CRainbowRaceMng@@ABU12@@Z
_TEXT	SEGMENT PARA USE32 PUBLIC 'CODE'
_TEXT	ENDS
;	COMDAT ??$_Destroy@UMINIGMAME_PRIZE_LIST@CRainbowRaceMng@@@std@@YAXPAUMINIGMAME_PRIZE_LIST@CRainbowRaceMng@@@Z
_TEXT	SEGMENT PARA USE32 PUBLIC 'CODE'
_TEXT	ENDS
;	COMDAT ??_G?$basic_string@DU?$char_traits@D@std@@V?$allocator@D@2@@std@@QAEPAXI@Z
_TEXT	SEGMENT PARA USE32 PUBLIC 'CODE'
_TEXT	ENDS
;	COMDAT ?capacity@?$vector@EV?$allocator@E@std@@@std@@QBEIXZ
_TEXT	SEGMENT PARA USE32 PUBLIC 'CODE'
_TEXT	ENDS
;	COMDAT ??Giterator@?$vector@EV?$allocator@E@std@@@std@@QBEHABVconst_iterator@12@@Z
_TEXT	SEGMENT PARA USE32 PUBLIC 'CODE'
_TEXT	ENDS
;	COMDAT ??Gconst_iterator@?$vector@EV?$allocator@E@std@@@std@@QBEHABV012@@Z
_TEXT	SEGMENT PARA USE32 PUBLIC 'CODE'
_TEXT	ENDS
;	COMDAT ??$_Distance@Vconst_iterator@?$vector@EV?$allocator@E@std@@@std@@I@std@@YAXVconst_iterator@?$vector@EV?$allocator@E@std@@@0@0AAI@Z
_TEXT	SEGMENT PARA USE32 PUBLIC 'CODE'
_TEXT	ENDS
;	COMDAT ??$_Ucopy@PAE@?$vector@EV?$allocator@E@std@@@std@@IAEPAEPAE00@Z
_TEXT	SEGMENT PARA USE32 PUBLIC 'CODE'
_TEXT	ENDS
;	COMDAT ??$advance@Vconst_iterator@?$vector@EV?$allocator@E@std@@@std@@H@std@@YAXAAVconst_iterator@?$vector@EV?$allocator@E@std@@@0@H@Z
_TEXT	SEGMENT PARA USE32 PUBLIC 'CODE'
_TEXT	ENDS
;	COMDAT ??$copy@Vconst_iterator@?$vector@EV?$allocator@E@std@@@std@@PAE@std@@YAPAEVconst_iterator@?$vector@EV?$allocator@E@std@@@0@0PAE@Z
_TEXT	SEGMENT PARA USE32 PUBLIC 'CODE'
_TEXT	ENDS
;	COMDAT ??$copy_backward@PAEPAE@std@@YAPAEPAE00@Z
_TEXT	SEGMENT PARA USE32 PUBLIC 'CODE'
_TEXT	ENDS
;	COMDAT ??$_Distance2@Vconst_iterator@?$vector@EV?$allocator@E@std@@@std@@I@std@@YAXVconst_iterator@?$vector@EV?$allocator@E@std@@@0@0AAIUrandom_access_iterator_tag@0@@Z
_TEXT	SEGMENT PARA USE32 PUBLIC 'CODE'
_TEXT	ENDS
;	COMDAT ??$_Uninitialized_copy@PAEPAEV?$allocator@E@std@@@std@@YAPAEPAE00AAV?$allocator@E@0@@Z
_TEXT	SEGMENT PARA USE32 PUBLIC 'CODE'
_TEXT	ENDS
;	COMDAT ??$_Advance@Vconst_iterator@?$vector@EV?$allocator@E@std@@@std@@H@std@@YAXAAVconst_iterator@?$vector@EV?$allocator@E@std@@@0@HUrandom_access_iterator_tag@0@@Z
_TEXT	SEGMENT PARA USE32 PUBLIC 'CODE'
_TEXT	ENDS
;	COMDAT ??$_Copy_opt@Vconst_iterator@?$vector@EV?$allocator@E@std@@@std@@PAE@std@@YAPAEVconst_iterator@?$vector@EV?$allocator@E@std@@@0@0PAEU_Nonscalar_ptr_iterator_tag@0@@Z
_TEXT	SEGMENT PARA USE32 PUBLIC 'CODE'
_TEXT	ENDS
;	COMDAT ??$_Copy_backward_opt@PAEPAE@std@@YAPAEPAE00U_Scalar_ptr_iterator_tag@0@@Z
_TEXT	SEGMENT PARA USE32 PUBLIC 'CODE'
_TEXT	ENDS
;	COMDAT ??Yconst_iterator@?$vector@EV?$allocator@E@std@@@std@@QAEAAV012@H@Z
_TEXT	SEGMENT PARA USE32 PUBLIC 'CODE'
_TEXT	ENDS
;	COMDAT ??$_Uninit_copy@EE@std@@YAPAEPAE00AAV?$allocator@E@0@U_Scalar_ptr_iterator_tag@0@@Z
_TEXT	SEGMENT PARA USE32 PUBLIC 'CODE'
_TEXT	ENDS
;	COMDAT ?IsReturnToBegin@CAIInterface@@UAEHXZ
_TEXT	SEGMENT PARA USE32 PUBLIC 'CODE'
_TEXT	ENDS
;	COMDAT ?deallocate@?$allocator@E@std@@QAEXPAEI@Z
_TEXT	SEGMENT PARA USE32 PUBLIC 'CODE'
_TEXT	ENDS
;	COMDAT ??$_Ucopy@Vconst_iterator@?$vector@EV?$allocator@E@std@@@std@@@?$vector@EV?$allocator@E@std@@@std@@IAEPAEVconst_iterator@01@0PAE@Z
_TEXT	SEGMENT PARA USE32 PUBLIC 'CODE'
_TEXT	ENDS
;	COMDAT ?allocate@?$allocator@E@std@@QAEPAEI@Z
_TEXT	SEGMENT PARA USE32 PUBLIC 'CODE'
_TEXT	ENDS
;	COMDAT ??$_Allocate@E@std@@YAPAEIPAE@Z
_TEXT	SEGMENT PARA USE32 PUBLIC 'CODE'
_TEXT	ENDS
;	COMDAT ?_Xlen@?$vector@EV?$allocator@E@std@@@std@@IBEXXZ
_TEXT	SEGMENT PARA USE32 PUBLIC 'CODE'
_TEXT	ENDS
;	COMDAT ?size@?$vector@EV?$allocator@E@std@@@std@@QBEIXZ
_TEXT	SEGMENT PARA USE32 PUBLIC 'CODE'
_TEXT	ENDS
;	COMDAT ?max_size@?$vector@EV?$allocator@E@std@@@std@@QBEIXZ
_TEXT	SEGMENT PARA USE32 PUBLIC 'CODE'
_TEXT	ENDS
;	COMDAT ?max_size@?$allocator@E@std@@QBEIXZ
_TEXT	SEGMENT PARA USE32 PUBLIC 'CODE'
_TEXT	ENDS
;	COMDAT ?_Ptr_cat@std@@YA?AU_Scalar_ptr_iterator_tag@1@PAE0@Z
_TEXT	SEGMENT PARA USE32 PUBLIC 'CODE'
_TEXT	ENDS
;	COMDAT ??0const_iterator@?$vector@EV?$allocator@E@std@@@std@@QAE@PAE@Z
_TEXT	SEGMENT PARA USE32 PUBLIC 'CODE'
_TEXT	ENDS
;	COMDAT ?_Destroy@?$vector@EV?$allocator@E@std@@@std@@IAEXPAE0@Z
_TEXT	SEGMENT PARA USE32 PUBLIC 'CODE'
_TEXT	ENDS
;	COMDAT ??$_Destroy_range@EV?$allocator@E@std@@@std@@YAXPAE0AAV?$allocator@E@0@@Z
_TEXT	SEGMENT PARA USE32 PUBLIC 'CODE'
_TEXT	ENDS
;	COMDAT ??4?$basic_string@DU?$char_traits@D@std@@V?$allocator@D@2@@std@@QAEAAV01@ABV01@@Z
_TEXT	SEGMENT PARA USE32 PUBLIC 'CODE'
_TEXT	ENDS
;	COMDAT ?assign@?$basic_string@DU?$char_traits@D@std@@V?$allocator@D@2@@std@@QAEAAV12@ABV12@@Z
_TEXT	SEGMENT PARA USE32 PUBLIC 'CODE'
_TEXT	ENDS
;	COMDAT ?assign@?$basic_string@DU?$char_traits@D@std@@V?$allocator@D@2@@std@@QAEAAV12@ABV12@II@Z
_TEXT	SEGMENT PARA USE32 PUBLIC 'CODE'
_TEXT	ENDS
;	COMDAT ?erase@?$basic_string@DU?$char_traits@D@std@@V?$allocator@D@2@@std@@QAEAAV12@II@Z
_TEXT	SEGMENT PARA USE32 PUBLIC 'CODE'
_TEXT	ENDS
;	COMDAT ?move@?$char_traits@D@std@@SAPADPADPBDI@Z
_TEXT	SEGMENT PARA USE32 PUBLIC 'CODE'
_TEXT	ENDS
;	COMDAT ?_Grow@?$basic_string@DU?$char_traits@D@std@@V?$allocator@D@2@@std@@IAE_NI_N@Z
_TEXT	SEGMENT PARA USE32 PUBLIC 'CODE'
_TEXT	ENDS
;	COMDAT ?max_size@?$basic_string@DU?$char_traits@D@std@@V?$allocator@D@2@@std@@QBEIXZ
_TEXT	SEGMENT PARA USE32 PUBLIC 'CODE'
_TEXT	ENDS
;	COMDAT ?max_size@?$allocator@D@std@@QBEIXZ
_TEXT	SEGMENT PARA USE32 PUBLIC 'CODE'
_TEXT	ENDS
;	COMDAT ?_Copy@?$basic_string@DU?$char_traits@D@std@@V?$allocator@D@2@@std@@IAEXII@Z
_TEXT	SEGMENT PARA USE32 PUBLIC 'CODE'
_TEXT	ENDS
;	COMDAT ?allocate@?$allocator@D@std@@QAEPADI@Z
_TEXT	SEGMENT PARA USE32 PUBLIC 'CODE'
_TEXT	ENDS
;	COMDAT ??$_Allocate@D@std@@YAPADIPAD@Z
_TEXT	SEGMENT PARA USE32 PUBLIC 'CODE'
_TEXT	ENDS
;	COMDAT ?_Tidy@?$basic_string@DU?$char_traits@D@std@@V?$allocator@D@2@@std@@IAEX_NI@Z
_TEXT	SEGMENT PARA USE32 PUBLIC 'CODE'
_TEXT	ENDS
;	COMDAT ?deallocate@?$allocator@D@std@@QAEXPADI@Z
_TEXT	SEGMENT PARA USE32 PUBLIC 'CODE'
_TEXT	ENDS
;	COMDAT ?copy@?$char_traits@D@std@@SAPADPADPBDI@Z
_TEXT	SEGMENT PARA USE32 PUBLIC 'CODE'
_TEXT	ENDS
;	COMDAT ?_Myptr@?$basic_string@DU?$char_traits@D@std@@V?$allocator@D@2@@std@@QAEPADXZ
_TEXT	SEGMENT PARA USE32 PUBLIC 'CODE'
_TEXT	ENDS
;	COMDAT ?_Eos@?$basic_string@DU?$char_traits@D@std@@V?$allocator@D@2@@std@@IAEXI@Z
_TEXT	SEGMENT PARA USE32 PUBLIC 'CODE'
_TEXT	ENDS
;	COMDAT ?assign@?$char_traits@D@std@@SAXAADABD@Z
_TEXT	SEGMENT PARA USE32 PUBLIC 'CODE'
_TEXT	ENDS
;	COMDAT ?npos@?$basic_string@DU?$char_traits@D@std@@V?$allocator@D@2@@std@@2IB
CONST	SEGMENT DWORD USE32 PUBLIC 'CONST'
CONST	ENDS
;	COMDAT ?_Ptr_cat@std@@YA?AU_Scalar_ptr_iterator_tag@1@PAJ0@Z
_TEXT	SEGMENT PARA USE32 PUBLIC 'CODE'
_TEXT	ENDS
;	COMDAT ??9const_iterator@?$_Tree@V?$_Tmap_traits@KEU?$less@K@std@@V?$allocator@U?$pair@$$CBKE@std@@@2@$0A@@std@@@std@@QBE_NABV012@@Z
_TEXT	SEGMENT PARA USE32 PUBLIC 'CODE'
_TEXT	ENDS
;	COMDAT ??8const_iterator@?$_Tree@V?$_Tmap_traits@KEU?$less@K@std@@V?$allocator@U?$pair@$$CBKE@std@@@2@$0A@@std@@@std@@QBE_NABV012@@Z
_TEXT	SEGMENT PARA USE32 PUBLIC 'CODE'
_TEXT	ENDS
;	COMDAT ??Eiterator@?$_Tree@V?$_Tmap_traits@KEU?$less@K@std@@V?$allocator@U?$pair@$$CBKE@std@@@2@$0A@@std@@@std@@QAEAAV012@XZ
_TEXT	SEGMENT PARA USE32 PUBLIC 'CODE'
_TEXT	ENDS
;	COMDAT ??Econst_iterator@?$_Tree@V?$_Tmap_traits@KEU?$less@K@std@@V?$allocator@U?$pair@$$CBKE@std@@@2@$0A@@std@@@std@@QAEAAV012@XZ
_TEXT	SEGMENT PARA USE32 PUBLIC 'CODE'
_TEXT	ENDS
;	COMDAT ?_Inc@const_iterator@?$_Tree@V?$_Tmap_traits@KEU?$less@K@std@@V?$allocator@U?$pair@$$CBKE@std@@@2@$0A@@std@@@std@@QAEXXZ
_TEXT	SEGMENT PARA USE32 PUBLIC 'CODE'
_TEXT	ENDS
;	COMDAT ?_Min@?$_Tree@V?$_Tmap_traits@KEU?$less@K@std@@V?$allocator@U?$pair@$$CBKE@std@@@2@$0A@@std@@@std@@KAPAU_Node@?$_Tree_nod@V?$_Tmap_traits@KEU?$less@K@std@@V?$allocator@U?$pair@$$CBKE@std@@@2@$0A@@std@@@2@PAU342@@Z
_TEXT	SEGMENT PARA USE32 PUBLIC 'CODE'
_TEXT	ENDS
;	COMDAT ?_Left@?$_Tree@V?$_Tmap_traits@KEU?$less@K@std@@V?$allocator@U?$pair@$$CBKE@std@@@2@$0A@@std@@@std@@KAAAPAU_Node@?$_Tree_nod@V?$_Tmap_traits@KEU?$less@K@std@@V?$allocator@U?$pair@$$CBKE@std@@@2@$0A@@std@@@2@PAU342@@Z
_TEXT	SEGMENT PARA USE32 PUBLIC 'CODE'
_TEXT	ENDS
;	COMDAT ?_Isnil@?$_Tree@V?$_Tmap_traits@KEU?$less@K@std@@V?$allocator@U?$pair@$$CBKE@std@@@2@$0A@@std@@@std@@KAAADPAU_Node@?$_Tree_nod@V?$_Tmap_traits@KEU?$less@K@std@@V?$allocator@U?$pair@$$CBKE@std@@@2@$0A@@std@@@2@@Z
_TEXT	SEGMENT PARA USE32 PUBLIC 'CODE'
_TEXT	ENDS
;	COMDAT ?_Parent@?$_Tree@V?$_Tmap_traits@KEU?$less@K@std@@V?$allocator@U?$pair@$$CBKE@std@@@2@$0A@@std@@@std@@KAAAPAU_Node@?$_Tree_nod@V?$_Tmap_traits@KEU?$less@K@std@@V?$allocator@U?$pair@$$CBKE@std@@@2@$0A@@std@@@2@PAU342@@Z
_TEXT	SEGMENT PARA USE32 PUBLIC 'CODE'
_TEXT	ENDS
;	COMDAT ?_Right@?$_Tree@V?$_Tmap_traits@KEU?$less@K@std@@V?$allocator@U?$pair@$$CBKE@std@@@2@$0A@@std@@@std@@KAAAPAU_Node@?$_Tree_nod@V?$_Tmap_traits@KEU?$less@K@std@@V?$allocator@U?$pair@$$CBKE@std@@@2@$0A@@std@@@2@PAU342@@Z
_TEXT	SEGMENT PARA USE32 PUBLIC 'CODE'
_TEXT	ENDS
;	COMDAT ??9const_iterator@?$_Tree@V?$_Tmap_traits@KPAVCCtrl@@U?$less@K@std@@V?$allocator@U?$pair@$$CBKPAVCCtrl@@@std@@@3@$0A@@std@@@std@@QBE_NABV012@@Z
_TEXT	SEGMENT PARA USE32 PUBLIC 'CODE'
_TEXT	ENDS
;	COMDAT ??9const_iterator@?$_Tree@V?$_Tmap_traits@KPAVCUser@@U?$less@K@std@@V?$allocator@U?$pair@$$CBKPAVCUser@@@std@@@3@$0A@@std@@@std@@QBE_NABV012@@Z
_TEXT	SEGMENT PARA USE32 PUBLIC 'CODE'
_TEXT	ENDS
;	COMDAT ??8const_iterator@?$_Tree@V?$_Tmap_traits@KPAVCUser@@U?$less@K@std@@V?$allocator@U?$pair@$$CBKPAVCUser@@@std@@@3@$0A@@std@@@std@@QBE_NABV012@@Z
_TEXT	SEGMENT PARA USE32 PUBLIC 'CODE'
_TEXT	ENDS
;	COMDAT ??Eiterator@?$_Tree@V?$_Tmap_traits@KPAVCUser@@U?$less@K@std@@V?$allocator@U?$pair@$$CBKPAVCUser@@@std@@@3@$0A@@std@@@std@@QAEAAV012@XZ
_TEXT	SEGMENT PARA USE32 PUBLIC 'CODE'
_TEXT	ENDS
;	COMDAT ??Econst_iterator@?$_Tree@V?$_Tmap_traits@KPAVCUser@@U?$less@K@std@@V?$allocator@U?$pair@$$CBKPAVCUser@@@std@@@3@$0A@@std@@@std@@QAEAAV012@XZ
_TEXT	SEGMENT PARA USE32 PUBLIC 'CODE'
_TEXT	ENDS
;	COMDAT ?_Inc@const_iterator@?$_Tree@V?$_Tmap_traits@KPAVCUser@@U?$less@K@std@@V?$allocator@U?$pair@$$CBKPAVCUser@@@std@@@3@$0A@@std@@@std@@QAEXXZ
_TEXT	SEGMENT PARA USE32 PUBLIC 'CODE'
_TEXT	ENDS
;	COMDAT ?_Min@?$_Tree@V?$_Tmap_traits@KPAVCUser@@U?$less@K@std@@V?$allocator@U?$pair@$$CBKPAVCUser@@@std@@@3@$0A@@std@@@std@@KAPAU_Node@?$_Tree_nod@V?$_Tmap_traits@KPAVCUser@@U?$less@K@std@@V?$allocator@U?$pair@$$CBKPAVCUser@@@std@@@3@$0A@@std@@@2@PAU342@@Z
_TEXT	SEGMENT PARA USE32 PUBLIC 'CODE'
_TEXT	ENDS
;	COMDAT ?_Left@?$_Tree@V?$_Tmap_traits@KPAVCUser@@U?$less@K@std@@V?$allocator@U?$pair@$$CBKPAVCUser@@@std@@@3@$0A@@std@@@std@@KAAAPAU_Node@?$_Tree_nod@V?$_Tmap_traits@KPAVCUser@@U?$less@K@std@@V?$allocator@U?$pair@$$CBKPAVCUser@@@std@@@3@$0A@@std@@@2@PAU342@@Z
_TEXT	SEGMENT PARA USE32 PUBLIC 'CODE'
_TEXT	ENDS
;	COMDAT ?_Isnil@?$_Tree@V?$_Tmap_traits@KPAVCUser@@U?$less@K@std@@V?$allocator@U?$pair@$$CBKPAVCUser@@@std@@@3@$0A@@std@@@std@@KAAADPAU_Node@?$_Tree_nod@V?$_Tmap_traits@KPAVCUser@@U?$less@K@std@@V?$allocator@U?$pair@$$CBKPAVCUser@@@std@@@3@$0A@@std@@@2@@Z
_TEXT	SEGMENT PARA USE32 PUBLIC 'CODE'
_TEXT	ENDS
;	COMDAT ?_Parent@?$_Tree@V?$_Tmap_traits@KPAVCUser@@U?$less@K@std@@V?$allocator@U?$pair@$$CBKPAVCUser@@@std@@@3@$0A@@std@@@std@@KAAAPAU_Node@?$_Tree_nod@V?$_Tmap_traits@KPAVCUser@@U?$less@K@std@@V?$allocator@U?$pair@$$CBKPAVCUser@@@std@@@3@$0A@@std@@@2@PAU342@@Z
_TEXT	SEGMENT PARA USE32 PUBLIC 'CODE'
_TEXT	ENDS
;	COMDAT ?_Right@?$_Tree@V?$_Tmap_traits@KPAVCUser@@U?$less@K@std@@V?$allocator@U?$pair@$$CBKPAVCUser@@@std@@@3@$0A@@std@@@std@@KAAAPAU_Node@?$_Tree_nod@V?$_Tmap_traits@KPAVCUser@@U?$less@K@std@@V?$allocator@U?$pair@$$CBKPAVCUser@@@std@@@3@$0A@@std@@@2@PAU342@@Z
_TEXT	SEGMENT PARA USE32 PUBLIC 'CODE'
_TEXT	ENDS
;	COMDAT ?_Psave@?$_Facetptr@V?$ctype@G@std@@@std@@2PBVfacet@locale@2@B
_DATA	SEGMENT DWORD USE32 PUBLIC 'DATA'
_DATA	ENDS
;	COMDAT ?_Psave@?$_Facetptr@V?$ctype@D@std@@@std@@2PBVfacet@locale@2@B
_DATA	SEGMENT DWORD USE32 PUBLIC 'DATA'
_DATA	ENDS
;	COMDAT ??3@YAXPAX0@Z
_TEXT	SEGMENT PARA USE32 PUBLIC 'CODE'
_TEXT	ENDS
;	COMDAT ??2@YAPAXIPAX@Z
_TEXT	SEGMENT PARA USE32 PUBLIC 'CODE'
_TEXT	ENDS
;	COMDAT ??0?$basic_string@DU?$char_traits@D@std@@V?$allocator@D@2@@std@@QAE@ABV01@@Z
_TEXT	SEGMENT PARA USE32 PUBLIC 'CODE'
_TEXT	ENDS
;	COMDAT ??0?$_String_val@DV?$allocator@D@std@@@std@@IAE@V?$allocator@D@1@@Z
_TEXT	SEGMENT PARA USE32 PUBLIC 'CODE'
_TEXT	ENDS
;	COMDAT ??0?$allocator@D@std@@QAE@ABV01@@Z
_TEXT	SEGMENT PARA USE32 PUBLIC 'CODE'
_TEXT	ENDS
;	COMDAT ??_C@_0BD@OLBABOEK@vector?$DMT?$DO?5too?5long?$AA@
CONST	SEGMENT DWORD USE32 PUBLIC 'CONST'
CONST	ENDS
;	COMDAT ??$swap@D@std@@YAXAAD0@Z
_TEXT	SEGMENT PARA USE32 PUBLIC 'CODE'
_TEXT	ENDS
;	COMDAT __TI3?AVout_of_range@std@@
xdata$x	SEGMENT DWORD USE32 PUBLIC 'CONST'
xdata$x	ENDS
;	COMDAT ??1out_of_range@std@@UAE@XZ
_TEXT	SEGMENT PARA USE32 PUBLIC 'CODE'
_TEXT	ENDS
;	COMDAT ??_7out_of_range@std@@6B@
CONST	SEGMENT DWORD USE32 PUBLIC 'CONST'
CONST	ENDS
;	COMDAT ??_Gout_of_range@std@@UAEPAXI@Z
_TEXT	SEGMENT PARA USE32 PUBLIC 'CODE'
_TEXT	ENDS
;	COMDAT ?what@logic_error@std@@UBEPBDXZ
_TEXT	SEGMENT PARA USE32 PUBLIC 'CODE'
_TEXT	ENDS
;	COMDAT ??1logic_error@std@@UAE@XZ
_TEXT	SEGMENT PARA USE32 PUBLIC 'CODE'
_TEXT	ENDS
;	COMDAT ??_7logic_error@std@@6B@
CONST	SEGMENT DWORD USE32 PUBLIC 'CONST'
CONST	ENDS
;	COMDAT ??_Glogic_error@std@@UAEPAXI@Z
_TEXT	SEGMENT PARA USE32 PUBLIC 'CODE'
_TEXT	ENDS
;	COMDAT __CTA3?AVout_of_range@std@@
xdata$x	SEGMENT DWORD USE32 PUBLIC 'CONST'
xdata$x	ENDS
;	COMDAT __CT??_R0?AVout_of_range@std@@@8??0out_of_range@std@@QAE@ABV01@@Z40
xdata$x	SEGMENT DWORD USE32 PUBLIC 'CONST'
xdata$x	ENDS
;	COMDAT ??_R0?AVout_of_range@std@@@8
_DATA	SEGMENT DWORD USE32 PUBLIC 'DATA'
_DATA	ENDS
;	COMDAT ??0out_of_range@std@@QAE@ABV01@@Z
_TEXT	SEGMENT PARA USE32 PUBLIC 'CODE'
_TEXT	ENDS
;	COMDAT ??0logic_error@std@@QAE@ABV01@@Z
_TEXT	SEGMENT PARA USE32 PUBLIC 'CODE'
_TEXT	ENDS
;	COMDAT __CT??_R0?AVlogic_error@std@@@8??0logic_error@std@@QAE@ABV01@@Z40
xdata$x	SEGMENT DWORD USE32 PUBLIC 'CONST'
xdata$x	ENDS
;	COMDAT ??_R0?AVlogic_error@std@@@8
_DATA	SEGMENT DWORD USE32 PUBLIC 'DATA'
_DATA	ENDS
;	COMDAT __CT??_R0?AVexception@@@8??0exception@@QAE@ABV0@@Z12
xdata$x	SEGMENT DWORD USE32 PUBLIC 'CONST'
xdata$x	ENDS
;	COMDAT ??_R0?AVexception@@@8
_DATA	SEGMENT DWORD USE32 PUBLIC 'DATA'
_DATA	ENDS
;	COMDAT ??_C@_0BM@PAPJHAGI@invalid?5map?1set?$DMT?$DO?5iterator?$AA@
CONST	SEGMENT DWORD USE32 PUBLIC 'CONST'
CONST	ENDS
;	COMDAT ??0out_of_range@std@@QAE@ABV?$basic_string@DU?$char_traits@D@std@@V?$allocator@D@2@@1@@Z
_TEXT	SEGMENT PARA USE32 PUBLIC 'CODE'
_TEXT	ENDS
;	COMDAT ??0logic_error@std@@QAE@ABV?$basic_string@DU?$char_traits@D@std@@V?$allocator@D@2@@1@@Z
_TEXT	SEGMENT PARA USE32 PUBLIC 'CODE'
_TEXT	ENDS
;	COMDAT __TI3?AVlength_error@std@@
xdata$x	SEGMENT DWORD USE32 PUBLIC 'CONST'
xdata$x	ENDS
;	COMDAT ??1length_error@std@@UAE@XZ
_TEXT	SEGMENT PARA USE32 PUBLIC 'CODE'
_TEXT	ENDS
;	COMDAT ??_7length_error@std@@6B@
CONST	SEGMENT DWORD USE32 PUBLIC 'CONST'
CONST	ENDS
;	COMDAT ??_Glength_error@std@@UAEPAXI@Z
_TEXT	SEGMENT PARA USE32 PUBLIC 'CODE'
_TEXT	ENDS
;	COMDAT __CTA3?AVlength_error@std@@
xdata$x	SEGMENT DWORD USE32 PUBLIC 'CONST'
xdata$x	ENDS
;	COMDAT __CT??_R0?AVlength_error@std@@@8??0length_error@std@@QAE@ABV01@@Z40
xdata$x	SEGMENT DWORD USE32 PUBLIC 'CONST'
xdata$x	ENDS
;	COMDAT ??_R0?AVlength_error@std@@@8
_DATA	SEGMENT DWORD USE32 PUBLIC 'DATA'
_DATA	ENDS
;	COMDAT ??0length_error@std@@QAE@ABV01@@Z
_TEXT	SEGMENT PARA USE32 PUBLIC 'CODE'
_TEXT	ENDS
;	COMDAT ??_C@_0BE@JONHPENG@map?1set?$DMT?$DO?5too?5long?$AA@
CONST	SEGMENT DWORD USE32 PUBLIC 'CONST'
CONST	ENDS
;	COMDAT ??0length_error@std@@QAE@ABV?$basic_string@DU?$char_traits@D@std@@V?$allocator@D@2@@1@@Z
_TEXT	SEGMENT PARA USE32 PUBLIC 'CODE'
_TEXT	ENDS
;	COMDAT ?insert@?$_Tree@V?$_Tmap_traits@KPAVCCtrl@@U?$less@K@std@@V?$allocator@U?$pair@$$CBKPAVCCtrl@@@std@@@3@$0A@@std@@@std@@QAE?AU?$pair@Viterator@?$_Tree@V?$_Tmap_traits@KPAVCCtrl@@U?$less@K@std@@V?$allocator@U?$pair@$$CBKPAVCCtrl@@@std@@@3@$0A@@std@@@std@@_N@2@ABU?$pair@$$CBKPAVCCtrl@@@2@@Z
_TEXT	SEGMENT PARA USE32 PUBLIC 'CODE'
_TEXT	ENDS
;	COMDAT ?_Root@?$_Tree@V?$_Tmap_traits@KPAVCCtrl@@U?$less@K@std@@V?$allocator@U?$pair@$$CBKPAVCCtrl@@@std@@@3@$0A@@std@@@std@@IAEAAPAU_Node@?$_Tree_nod@V?$_Tmap_traits@KPAVCCtrl@@U?$less@K@std@@V?$allocator@U?$pair@$$CBKPAVCCtrl@@@std@@@3@$0A@@std@@@2@XZ
_TEXT	SEGMENT PARA USE32 PUBLIC 'CODE'
_TEXT	ENDS
;	COMDAT ?_Parent@?$_Tree@V?$_Tmap_traits@KPAVCCtrl@@U?$less@K@std@@V?$allocator@U?$pair@$$CBKPAVCCtrl@@@std@@@3@$0A@@std@@@std@@KAAAPAU_Node@?$_Tree_nod@V?$_Tmap_traits@KPAVCCtrl@@U?$less@K@std@@V?$allocator@U?$pair@$$CBKPAVCCtrl@@@std@@@3@$0A@@std@@@2@PAU342@@Z
_TEXT	SEGMENT PARA USE32 PUBLIC 'CODE'
_TEXT	ENDS
;	COMDAT ?_Left@?$_Tree@V?$_Tmap_traits@KPAVCCtrl@@U?$less@K@std@@V?$allocator@U?$pair@$$CBKPAVCCtrl@@@std@@@3@$0A@@std@@@std@@KAAAPAU_Node@?$_Tree_nod@V?$_Tmap_traits@KPAVCCtrl@@U?$less@K@std@@V?$allocator@U?$pair@$$CBKPAVCCtrl@@@std@@@3@$0A@@std@@@2@PAU342@@Z
_TEXT	SEGMENT PARA USE32 PUBLIC 'CODE'
_TEXT	ENDS
;	COMDAT ??0iterator@?$_Tree@V?$_Tmap_traits@KPAVCCtrl@@U?$less@K@std@@V?$allocator@U?$pair@$$CBKPAVCCtrl@@@std@@@3@$0A@@std@@@std@@QAE@PAU_Node@?$_Tree_nod@V?$_Tmap_traits@KPAVCCtrl@@U?$less@K@std@@V?$allocator@U?$pair@$$CBKPAVCCtrl@@@std@@@3@$0A@@std@@@2@@Z
_TEXT	SEGMENT PARA USE32 PUBLIC 'CODE'
_TEXT	ENDS
;	COMDAT ??0const_iterator@?$_Tree@V?$_Tmap_traits@KPAVCCtrl@@U?$less@K@std@@V?$allocator@U?$pair@$$CBKPAVCCtrl@@@std@@@3@$0A@@std@@@std@@QAE@PAU_Node@?$_Tree_nod@V?$_Tmap_traits@KPAVCCtrl@@U?$less@K@std@@V?$allocator@U?$pair@$$CBKPAVCCtrl@@@std@@@3@$0A@@std@@@2@@Z
_TEXT	SEGMENT PARA USE32 PUBLIC 'CODE'
_TEXT	ENDS
;	COMDAT ??0?$pair@Viterator@?$_Tree@V?$_Tmap_traits@KPAVCCtrl@@U?$less@K@std@@V?$allocator@U?$pair@$$CBKPAVCCtrl@@@std@@@3@$0A@@std@@@std@@_N@std@@QAE@ABViterator@?$_Tree@V?$_Tmap_traits@KPAVCCtrl@@U?$less@K@std@@V?$allocator@U?$pair@$$CBKPAVCCtrl@@@std@@@3@$0A@@std@@@1@AB_N@Z
_TEXT	SEGMENT PARA USE32 PUBLIC 'CODE'
_TEXT	ENDS
;	COMDAT ??Eiterator@?$_Tree@V?$_Tmap_traits@KPAVCCtrl@@U?$less@K@std@@V?$allocator@U?$pair@$$CBKPAVCCtrl@@@std@@@3@$0A@@std@@@std@@QAEAAV012@XZ
_TEXT	SEGMENT PARA USE32 PUBLIC 'CODE'
_TEXT	ENDS
;	COMDAT ??Econst_iterator@?$_Tree@V?$_Tmap_traits@KPAVCCtrl@@U?$less@K@std@@V?$allocator@U?$pair@$$CBKPAVCCtrl@@@std@@@3@$0A@@std@@@std@@QAEAAV012@XZ
_TEXT	SEGMENT PARA USE32 PUBLIC 'CODE'
_TEXT	ENDS
;	COMDAT ?_Inc@const_iterator@?$_Tree@V?$_Tmap_traits@KPAVCCtrl@@U?$less@K@std@@V?$allocator@U?$pair@$$CBKPAVCCtrl@@@std@@@3@$0A@@std@@@std@@QAEXXZ
_TEXT	SEGMENT PARA USE32 PUBLIC 'CODE'
_TEXT	ENDS
;	COMDAT ?_Min@?$_Tree@V?$_Tmap_traits@KPAVCCtrl@@U?$less@K@std@@V?$allocator@U?$pair@$$CBKPAVCCtrl@@@std@@@3@$0A@@std@@@std@@KAPAU_Node@?$_Tree_nod@V?$_Tmap_traits@KPAVCCtrl@@U?$less@K@std@@V?$allocator@U?$pair@$$CBKPAVCCtrl@@@std@@@3@$0A@@std@@@2@PAU342@@Z
_TEXT	SEGMENT PARA USE32 PUBLIC 'CODE'
_TEXT	ENDS
;	COMDAT ?_Right@?$_Tree@V?$_Tmap_traits@KPAVCCtrl@@U?$less@K@std@@V?$allocator@U?$pair@$$CBKPAVCCtrl@@@std@@@3@$0A@@std@@@std@@KAAAPAU_Node@?$_Tree_nod@V?$_Tmap_traits@KPAVCCtrl@@U?$less@K@std@@V?$allocator@U?$pair@$$CBKPAVCCtrl@@@std@@@3@$0A@@std@@@2@PAU342@@Z
_TEXT	SEGMENT PARA USE32 PUBLIC 'CODE'
_TEXT	ENDS
;	COMDAT ?_Isnil@?$_Tree@V?$_Tmap_traits@KPAVCCtrl@@U?$less@K@std@@V?$allocator@U?$pair@$$CBKPAVCCtrl@@@std@@@3@$0A@@std@@@std@@KAAADPAU_Node@?$_Tree_nod@V?$_Tmap_traits@KPAVCCtrl@@U?$less@K@std@@V?$allocator@U?$pair@$$CBKPAVCCtrl@@@std@@@3@$0A@@std@@@2@@Z
_TEXT	SEGMENT PARA USE32 PUBLIC 'CODE'
_TEXT	ENDS
;	COMDAT ??Fiterator@?$_Tree@V?$_Tmap_traits@KPAVCCtrl@@U?$less@K@std@@V?$allocator@U?$pair@$$CBKPAVCCtrl@@@std@@@3@$0A@@std@@@std@@QAEAAV012@XZ
_TEXT	SEGMENT PARA USE32 PUBLIC 'CODE'
_TEXT	ENDS
;	COMDAT ??Fconst_iterator@?$_Tree@V?$_Tmap_traits@KPAVCCtrl@@U?$less@K@std@@V?$allocator@U?$pair@$$CBKPAVCCtrl@@@std@@@3@$0A@@std@@@std@@QAEAAV012@XZ
_TEXT	SEGMENT PARA USE32 PUBLIC 'CODE'
_TEXT	ENDS
;	COMDAT ?_Dec@const_iterator@?$_Tree@V?$_Tmap_traits@KPAVCCtrl@@U?$less@K@std@@V?$allocator@U?$pair@$$CBKPAVCCtrl@@@std@@@3@$0A@@std@@@std@@QAEXXZ
_TEXT	SEGMENT PARA USE32 PUBLIC 'CODE'
_TEXT	ENDS
;	COMDAT ?_Max@?$_Tree@V?$_Tmap_traits@KPAVCCtrl@@U?$less@K@std@@V?$allocator@U?$pair@$$CBKPAVCCtrl@@@std@@@3@$0A@@std@@@std@@KAPAU_Node@?$_Tree_nod@V?$_Tmap_traits@KPAVCCtrl@@U?$less@K@std@@V?$allocator@U?$pair@$$CBKPAVCCtrl@@@std@@@3@$0A@@std@@@2@PAU342@@Z
_TEXT	SEGMENT PARA USE32 PUBLIC 'CODE'
_TEXT	ENDS
;	COMDAT ?_Rmost@?$_Tree@V?$_Tmap_traits@KPAVCCtrl@@U?$less@K@std@@V?$allocator@U?$pair@$$CBKPAVCCtrl@@@std@@@3@$0A@@std@@@std@@IAEAAPAU_Node@?$_Tree_nod@V?$_Tmap_traits@KPAVCCtrl@@U?$less@K@std@@V?$allocator@U?$pair@$$CBKPAVCCtrl@@@std@@@3@$0A@@std@@@2@XZ
_TEXT	SEGMENT PARA USE32 PUBLIC 'CODE'
_TEXT	ENDS
;	COMDAT ?_Kfn@?$_Tmap_traits@KPAVCCtrl@@U?$less@K@std@@V?$allocator@U?$pair@$$CBKPAVCCtrl@@@std@@@3@$0A@@std@@SAABKABU?$pair@$$CBKPAVCCtrl@@@2@@Z
_TEXT	SEGMENT PARA USE32 PUBLIC 'CODE'
_TEXT	ENDS
;	COMDAT ?begin@?$_Tree@V?$_Tmap_traits@KPAVCCtrl@@U?$less@K@std@@V?$allocator@U?$pair@$$CBKPAVCCtrl@@@std@@@3@$0A@@std@@@std@@QAE?AViterator@12@XZ
_TEXT	SEGMENT PARA USE32 PUBLIC 'CODE'
_TEXT	ENDS
;	COMDAT ?_Lmost@?$_Tree@V?$_Tmap_traits@KPAVCCtrl@@U?$less@K@std@@V?$allocator@U?$pair@$$CBKPAVCCtrl@@@std@@@3@$0A@@std@@@std@@IAEAAPAU_Node@?$_Tree_nod@V?$_Tmap_traits@KPAVCCtrl@@U?$less@K@std@@V?$allocator@U?$pair@$$CBKPAVCCtrl@@@std@@@3@$0A@@std@@@2@XZ
_TEXT	SEGMENT PARA USE32 PUBLIC 'CODE'
_TEXT	ENDS
;	COMDAT ?_Insert@?$_Tree@V?$_Tmap_traits@KPAVCCtrl@@U?$less@K@std@@V?$allocator@U?$pair@$$CBKPAVCCtrl@@@std@@@3@$0A@@std@@@std@@IAE?AViterator@12@_NPAU_Node@?$_Tree_nod@V?$_Tmap_traits@KPAVCCtrl@@U?$less@K@std@@V?$allocator@U?$pair@$$CBKPAVCCtrl@@@std@@@3@$0A@@std@@@2@ABU?$pair@$$CBKPAVCCtrl@@@2@@Z
_TEXT	SEGMENT PARA USE32 PUBLIC 'CODE'
_TEXT	ENDS
;	COMDAT ?max_size@?$_Tree@V?$_Tmap_traits@KPAVCCtrl@@U?$less@K@std@@V?$allocator@U?$pair@$$CBKPAVCCtrl@@@std@@@3@$0A@@std@@@std@@QBEIXZ
_TEXT	SEGMENT PARA USE32 PUBLIC 'CODE'
_TEXT	ENDS
;	COMDAT ?max_size@?$allocator@U?$pair@$$CBKPAVCCtrl@@@std@@@std@@QBEIXZ
_TEXT	SEGMENT PARA USE32 PUBLIC 'CODE'
_TEXT	ENDS
;	COMDAT ?_Buynode@?$_Tree@V?$_Tmap_traits@KPAVCCtrl@@U?$less@K@std@@V?$allocator@U?$pair@$$CBKPAVCCtrl@@@std@@@3@$0A@@std@@@std@@IAEPAU_Node@?$_Tree_nod@V?$_Tmap_traits@KPAVCCtrl@@U?$less@K@std@@V?$allocator@U?$pair@$$CBKPAVCCtrl@@@std@@@3@$0A@@std@@@2@PAU342@00ABU?$pair@$$CBKPAVCCtrl@@@2@D@Z
_TEXT	SEGMENT PARA USE32 PUBLIC 'CODE'
_TEXT	ENDS
;	COMDAT ?allocate@?$allocator@U_Node@?$_Tree_nod@V?$_Tmap_traits@KPAVCCtrl@@U?$less@K@std@@V?$allocator@U?$pair@$$CBKPAVCCtrl@@@std@@@3@$0A@@std@@@std@@@std@@QAEPAU_Node@?$_Tree_nod@V?$_Tmap_traits@KPAVCCtrl@@U?$less@K@std@@V?$allocator@U?$pair@$$CBKPAVCCtrl@@@std@@@3@$0A@@std@@@2@I@Z
_TEXT	SEGMENT PARA USE32 PUBLIC 'CODE'
_TEXT	ENDS
;	COMDAT ??$_Allocate@U_Node@?$_Tree_nod@V?$_Tmap_traits@KPAVCCtrl@@U?$less@K@std@@V?$allocator@U?$pair@$$CBKPAVCCtrl@@@std@@@3@$0A@@std@@@std@@@std@@YAPAU_Node@?$_Tree_nod@V?$_Tmap_traits@KPAVCCtrl@@U?$less@K@std@@V?$allocator@U?$pair@$$CBKPAVCCtrl@@@std@@@3@$0A@@std@@@0@IPAU120@@Z
_TEXT	SEGMENT PARA USE32 PUBLIC 'CODE'
_TEXT	ENDS
;	COMDAT ??0_Node@?$_Tree_nod@V?$_Tmap_traits@KPAVCCtrl@@U?$less@K@std@@V?$allocator@U?$pair@$$CBKPAVCCtrl@@@std@@@3@$0A@@std@@@std@@QAE@PAU012@00ABU?$pair@$$CBKPAVCCtrl@@@2@D@Z
_TEXT	SEGMENT PARA USE32 PUBLIC 'CODE'
_TEXT	ENDS
;	COMDAT ?deallocate@?$allocator@U_Node@?$_Tree_nod@V?$_Tmap_traits@KPAVCCtrl@@U?$less@K@std@@V?$allocator@U?$pair@$$CBKPAVCCtrl@@@std@@@3@$0A@@std@@@std@@@std@@QAEXPAU_Node@?$_Tree_nod@V?$_Tmap_traits@KPAVCCtrl@@U?$less@K@std@@V?$allocator@U?$pair@$$CBKPAVCCtrl@@@std@@@3@$0A@@std@@@2@I@Z
_TEXT	SEGMENT PARA USE32 PUBLIC 'CODE'
_TEXT	ENDS
;	COMDAT ?_Rrotate@?$_Tree@V?$_Tmap_traits@KPAVCCtrl@@U?$less@K@std@@V?$allocator@U?$pair@$$CBKPAVCCtrl@@@std@@@3@$0A@@std@@@std@@IAEXPAU_Node@?$_Tree_nod@V?$_Tmap_traits@KPAVCCtrl@@U?$less@K@std@@V?$allocator@U?$pair@$$CBKPAVCCtrl@@@std@@@3@$0A@@std@@@2@@Z
_TEXT	SEGMENT PARA USE32 PUBLIC 'CODE'
_TEXT	ENDS
;	COMDAT ?_Lrotate@?$_Tree@V?$_Tmap_traits@KPAVCCtrl@@U?$less@K@std@@V?$allocator@U?$pair@$$CBKPAVCCtrl@@@std@@@3@$0A@@std@@@std@@IAEXPAU_Node@?$_Tree_nod@V?$_Tmap_traits@KPAVCCtrl@@U?$less@K@std@@V?$allocator@U?$pair@$$CBKPAVCCtrl@@@std@@@3@$0A@@std@@@2@@Z
_TEXT	SEGMENT PARA USE32 PUBLIC 'CODE'
_TEXT	ENDS
;	COMDAT ?_Color@?$_Tree@V?$_Tmap_traits@KPAVCCtrl@@U?$less@K@std@@V?$allocator@U?$pair@$$CBKPAVCCtrl@@@std@@@3@$0A@@std@@@std@@KAAADPAU_Node@?$_Tree_nod@V?$_Tmap_traits@KPAVCCtrl@@U?$less@K@std@@V?$allocator@U?$pair@$$CBKPAVCCtrl@@@std@@@3@$0A@@std@@@2@@Z
_TEXT	SEGMENT PARA USE32 PUBLIC 'CODE'
_TEXT	ENDS
;	COMDAT ?compare@?$char_traits@D@std@@SAHPBD0I@Z
_TEXT	SEGMENT PARA USE32 PUBLIC 'CODE'
_TEXT	ENDS
;	COMDAT ??Diterator@?$_Tree@V?$_Tmap_traits@KPAVCCtrl@@U?$less@K@std@@V?$allocator@U?$pair@$$CBKPAVCCtrl@@@std@@@3@$0A@@std@@@std@@QBEAAU?$pair@$$CBKPAVCCtrl@@@2@XZ
_TEXT	SEGMENT PARA USE32 PUBLIC 'CODE'
_TEXT	ENDS
;	COMDAT ??Dconst_iterator@?$_Tree@V?$_Tmap_traits@KPAVCCtrl@@U?$less@K@std@@V?$allocator@U?$pair@$$CBKPAVCCtrl@@@std@@@3@$0A@@std@@@std@@QBEABU?$pair@$$CBKPAVCCtrl@@@2@XZ
_TEXT	SEGMENT PARA USE32 PUBLIC 'CODE'
_TEXT	ENDS
;	COMDAT ?_Myval@?$_Tree@V?$_Tmap_traits@KPAVCCtrl@@U?$less@K@std@@V?$allocator@U?$pair@$$CBKPAVCCtrl@@@std@@@3@$0A@@std@@@std@@KAAAU?$pair@$$CBKPAVCCtrl@@@2@PAU_Node@?$_Tree_nod@V?$_Tmap_traits@KPAVCCtrl@@U?$less@K@std@@V?$allocator@U?$pair@$$CBKPAVCCtrl@@@std@@@3@$0A@@std@@@2@@Z
_TEXT	SEGMENT PARA USE32 PUBLIC 'CODE'
_TEXT	ENDS
;	COMDAT ?_Mynode@const_iterator@?$_Tree@V?$_Tmap_traits@KPAVCCtrl@@U?$less@K@std@@V?$allocator@U?$pair@$$CBKPAVCCtrl@@@std@@@3@$0A@@std@@@std@@QBEPAU_Node@?$_Tree_nod@V?$_Tmap_traits@KPAVCCtrl@@U?$less@K@std@@V?$allocator@U?$pair@$$CBKPAVCCtrl@@@std@@@3@$0A@@std@@@3@XZ
_TEXT	SEGMENT PARA USE32 PUBLIC 'CODE'
_TEXT	ENDS
;	COMDAT ?_Key@?$_Tree@V?$_Tmap_traits@KPAVCCtrl@@U?$less@K@std@@V?$allocator@U?$pair@$$CBKPAVCCtrl@@@std@@@3@$0A@@std@@@std@@KAABKPAU_Node@?$_Tree_nod@V?$_Tmap_traits@KPAVCCtrl@@U?$less@K@std@@V?$allocator@U?$pair@$$CBKPAVCCtrl@@@std@@@3@$0A@@std@@@2@@Z
_TEXT	SEGMENT PARA USE32 PUBLIC 'CODE'
_TEXT	ENDS
;	COMDAT ??R?$less@K@std@@QBE_NABK0@Z
_TEXT	SEGMENT PARA USE32 PUBLIC 'CODE'
_TEXT	ENDS
;	COMDAT ?end@?$_Tree@V?$_Tmap_traits@KPAVCCtrl@@U?$less@K@std@@V?$allocator@U?$pair@$$CBKPAVCCtrl@@@std@@@3@$0A@@std@@@std@@QAE?AViterator@12@XZ
_TEXT	SEGMENT PARA USE32 PUBLIC 'CODE'
_TEXT	ENDS
;	COMDAT ??8const_iterator@?$_Tree@V?$_Tmap_traits@KPAVCCtrl@@U?$less@K@std@@V?$allocator@U?$pair@$$CBKPAVCCtrl@@@std@@@3@$0A@@std@@@std@@QBE_NABV012@@Z
_TEXT	SEGMENT PARA USE32 PUBLIC 'CODE'
_TEXT	ENDS
;	COMDAT ?lower_bound@?$_Tree@V?$_Tmap_traits@KPAVCCtrl@@U?$less@K@std@@V?$allocator@U?$pair@$$CBKPAVCCtrl@@@std@@@3@$0A@@std@@@std@@QAE?AViterator@12@ABK@Z
_TEXT	SEGMENT PARA USE32 PUBLIC 'CODE'
_TEXT	ENDS
;	COMDAT ?_Lbound@?$_Tree@V?$_Tmap_traits@KPAVCCtrl@@U?$less@K@std@@V?$allocator@U?$pair@$$CBKPAVCCtrl@@@std@@@3@$0A@@std@@@std@@IBEPAU_Node@?$_Tree_nod@V?$_Tmap_traits@KPAVCCtrl@@U?$less@K@std@@V?$allocator@U?$pair@$$CBKPAVCCtrl@@@std@@@3@$0A@@std@@@2@ABK@Z
_TEXT	SEGMENT PARA USE32 PUBLIC 'CODE'
_TEXT	ENDS
;	COMDAT ?_Root@?$_Tree@V?$_Tmap_traits@KPAVCCtrl@@U?$less@K@std@@V?$allocator@U?$pair@$$CBKPAVCCtrl@@@std@@@3@$0A@@std@@@std@@IBEAAPAU_Node@?$_Tree_nod@V?$_Tmap_traits@KPAVCCtrl@@U?$less@K@std@@V?$allocator@U?$pair@$$CBKPAVCCtrl@@@std@@@3@$0A@@std@@@2@XZ
_TEXT	SEGMENT PARA USE32 PUBLIC 'CODE'
_TEXT	ENDS
;	COMDAT ?_Myptr@?$basic_string@DU?$char_traits@D@std@@V?$allocator@D@2@@std@@QBEPBDXZ
_TEXT	SEGMENT PARA USE32 PUBLIC 'CODE'
_TEXT	ENDS
;	COMDAT ?size@?$basic_string@DU?$char_traits@D@std@@V?$allocator@D@2@@std@@QBEIXZ
_TEXT	SEGMENT PARA USE32 PUBLIC 'CODE'
_TEXT	ENDS
;	COMDAT ?IsEatPet@CItemElem@@QAEHXZ
_TEXT	SEGMENT PARA USE32 PUBLIC 'CODE'
_TEXT	ENDS
;	COMDAT ?GetPropA@CItemElem@@QAEPAUItemProp@@XZ
_TEXT	SEGMENT PARA USE32 PUBLIC 'CODE'
_TEXT	ENDS
;	COMDAT ?GetItemProp@CProject@@QAEPAUItemProp@@H@Z
_TEXT	SEGMENT PARA USE32 PUBLIC 'CODE'
_TEXT	ENDS
;	COMDAT ?LOG_RANGE@@YAXPBDHHH@Z
_TEXT	SEGMENT PARA USE32 PUBLIC 'CODE'
_TEXT	ENDS
;	COMDAT ??_C@_0BM@HMFGHCP@?$CFs?5min?3?$CFd?0?5max?3?$CFd?0?5index?3?$CFd?$AA@
CONST	SEGMENT DWORD USE32 PUBLIC 'CONST'
CONST	ENDS
;	COMDAT ?GetSize@?$CFixedArray@UItemProp@@@@QAEHXZ
_TEXT	SEGMENT PARA USE32 PUBLIC 'CODE'
_TEXT	ENDS
;	COMDAT ??_C@_0BI@BEIFNGEL@GetItemProp?5range_error?$AA@
CONST	SEGMENT DWORD USE32 PUBLIC 'CONST'
CONST	ENDS
;	COMDAT ?LOG_CALLSTACK@@YAXXZ
_TEXT	SEGMENT PARA USE32 PUBLIC 'CODE'
_TEXT	ENDS
;	COMDAT ?GetAt@?$CFixedArray@UItemProp@@@@QAEPAUItemProp@@K@Z
_TEXT	SEGMENT PARA USE32 PUBLIC 'CODE'
_TEXT	ENDS
;	COMDAT ?IsInvalidObj@@YAHPAVCObj@@@Z
_TEXT	SEGMENT PARA USE32 PUBLIC 'CODE'
_TEXT	ENDS
;	COMDAT ?GetCount@CMover@@QAEHXZ
_TEXT	SEGMENT PARA USE32 PUBLIC 'CODE'
_TEXT	ENDS
;	COMDAT ?IsEmptyDest@CMover@@QAEHXZ
_TEXT	SEGMENT PARA USE32 PUBLIC 'CODE'
_TEXT	ENDS
;	COMDAT ?IsEmptyDestPos@CMover@@QAEHXZ
_TEXT	SEGMENT PARA USE32 PUBLIC 'CODE'
_TEXT	ENDS
;	COMDAT ?IsEmptyDestObj@CMover@@QAEHXZ
_TEXT	SEGMENT PARA USE32 PUBLIC 'CODE'
_TEXT	ENDS
;	COMDAT ?ClearDest@CMover@@QAEXXZ
_TEXT	SEGMENT PARA USE32 PUBLIC 'CODE'
_TEXT	ENDS
;	COMDAT ?ClearDestObj@CMover@@QAEXXZ
_TEXT	SEGMENT PARA USE32 PUBLIC 'CODE'
_TEXT	ENDS
;	COMDAT ?ClearDestPos@CMover@@QAEXXZ
_TEXT	SEGMENT PARA USE32 PUBLIC 'CODE'
_TEXT	ENDS
;	COMDAT ?SendActMsg@CMover@@QAEHW4OBJMSG@@HHHH@Z
_TEXT	SEGMENT PARA USE32 PUBLIC 'CODE'
_TEXT	ENDS
;	COMDAT ?GetState@CAction@@QAEKXZ
_TEXT	SEGMENT PARA USE32 PUBLIC 'CODE'
_TEXT	ENDS
;	COMDAT ?IsDie@CMover@@QAEHXZ
_TEXT	SEGMENT PARA USE32 PUBLIC 'CODE'
_TEXT	ENDS
;	COMDAT ?IsDie@CAction@@QAEHXZ
_TEXT	SEGMENT PARA USE32 PUBLIC 'CODE'
_TEXT	ENDS
;	COMDAT ?IsValidObj@@YAHPAVCObj@@@Z
_TEXT	SEGMENT PARA USE32 PUBLIC 'CODE'
_TEXT	ENDS
;	COMDAT ?GetId@CCtrl@@QAEKXZ
_TEXT	SEGMENT PARA USE32 PUBLIC 'CODE'
_TEXT	ENDS
;	COMDAT ?GetNextNode@CObj@@QAEPAV1@XZ
_TEXT	SEGMENT PARA USE32 PUBLIC 'CODE'
_TEXT	ENDS
;	COMDAT ?IsDelete@CObj@@QAEHXZ
_TEXT	SEGMENT PARA USE32 PUBLIC 'CODE'
_TEXT	ENDS
;	COMDAT ?GetPropA@CItem@@QAEPAUItemProp@@XZ
_TEXT	SEGMENT PARA USE32 PUBLIC 'CODE'
_TEXT	ENDS
;	COMDAT ?GetIndex@CObj@@QAEKXZ
_TEXT	SEGMENT PARA USE32 PUBLIC 'CODE'
_TEXT	ENDS
;	COMDAT ?GetType@CObj@@QAEKXZ
_TEXT	SEGMENT PARA USE32 PUBLIC 'CODE'
_TEXT	ENDS
;	COMDAT ?GetLayer@CObj@@QAEHXZ
_TEXT	SEGMENT PARA USE32 PUBLIC 'CODE'
_TEXT	ENDS
;	COMDAT ?IsFly@CMover@@QAEHXZ
_TEXT	SEGMENT PARA USE32 PUBLIC 'CODE'
_TEXT	ENDS
;	COMDAT ?IsFly@CAction@@QAEHXZ
_TEXT	SEGMENT PARA USE32 PUBLIC 'CODE'
_TEXT	ENDS
;	COMDAT ?D3DXVec3LengthSq@@YAMPBUD3DXVECTOR3@@@Z
_TEXT	SEGMENT PARA USE32 PUBLIC 'CODE'
_TEXT	ENDS
;	COMDAT ??GD3DXVECTOR3@@QBE?AU0@ABU0@@Z
_TEXT	SEGMENT PARA USE32 PUBLIC 'CODE'
_TEXT	ENDS
;	COMDAT ?GetPos@CObj@@QAE?AUD3DXVECTOR3@@XZ
_TEXT	SEGMENT PARA USE32 PUBLIC 'CODE'
_TEXT	ENDS
;	COMDAT ?GetPropA@CMover@@QAEPAUMoverProp@@XZ
_TEXT	SEGMENT PARA USE32 PUBLIC 'CODE'
_TEXT	ENDS
;	COMDAT ?GetMoverProp@CProject@@QAEPAUMoverProp@@H@Z
_TEXT	SEGMENT PARA USE32 PUBLIC 'CODE'
_TEXT	ENDS
;	COMDAT ??_C@_0BJ@GKPOBPPI@GetMoverProp?5range_error?$AA@
CONST	SEGMENT DWORD USE32 PUBLIC 'CONST'
CONST	ENDS
;	COMDAT ?GetDestId@CMover@@QAEKXZ
_TEXT	SEGMENT PARA USE32 PUBLIC 'CODE'
_TEXT	ENDS
;	COMDAT ?GetWorld@CAIInterface@@IAEPAVCWorld@@XZ
_TEXT	SEGMENT PARA USE32 PUBLIC 'CODE'
_TEXT	ENDS
;	COMDAT ?GetWorld@CObj@@QAEPAVCWorld@@XZ
_TEXT	SEGMENT PARA USE32 PUBLIC 'CODE'
_TEXT	ENDS
;	COMDAT ?GetMover@CAIInterface@@IAEPAVCMover@@XZ
_TEXT	SEGMENT PARA USE32 PUBLIC 'CODE'
_TEXT	ENDS
;	COMDAT ??_7CAIPet@@6B@
CONST	SEGMENT DWORD USE32 PUBLIC 'CONST'
CONST	ENDS
;	COMDAT ??_7CMapChildE@@6B@
CONST	SEGMENT DWORD USE32 PUBLIC 'CONST'
CONST	ENDS
;	COMDAT ?Leave@CMclCritSec@@QAEXXZ
_TEXT	SEGMENT PARA USE32 PUBLIC 'CODE'
_TEXT	ENDS
;	COMDAT ?Enter@CMclCritSec@@QAEXXZ
_TEXT	SEGMENT PARA USE32 PUBLIC 'CODE'
_TEXT	ENDS
;	COMDAT ??1CMclCritSec@@UAE@XZ
_TEXT	SEGMENT PARA USE32 PUBLIC 'CODE'
_TEXT	ENDS
;	COMDAT ??_7CMclCritSec@@6B@
CONST	SEGMENT DWORD USE32 PUBLIC 'CONST'
CONST	ENDS
;	COMDAT ??_GCMclCritSec@@UAEPAXI@Z
_TEXT	SEGMENT PARA USE32 PUBLIC 'CODE'
_TEXT	ENDS
;	COMDAT ??0CMclCritSec@@QAE@XZ
_TEXT	SEGMENT PARA USE32 PUBLIC 'CODE'
_TEXT	ENDS
;	COMDAT ??_7CMapChild@@6B@
CONST	SEGMENT DWORD USE32 PUBLIC 'CONST'
CONST	ENDS
;	COMDAT ??1CMclAutoLock@@QAE@XZ
_TEXT	SEGMENT PARA USE32 PUBLIC 'CODE'
_TEXT	ENDS
;	COMDAT ??0CMclAutoLock@@QAE@AAVCMclCritSec@@@Z
_TEXT	SEGMENT PARA USE32 PUBLIC 'CODE'
_TEXT	ENDS
;	COMDAT ??_7CBuffer2@@6B@
CONST	SEGMENT DWORD USE32 PUBLIC 'CONST'
CONST	ENDS
;	COMDAT ?erase@?$_Tree@V?$_Tmap_traits@KPAVCCtrl@@U?$less@K@std@@V?$allocator@U?$pair@$$CBKPAVCCtrl@@@std@@@3@$0A@@std@@@std@@QAEIABK@Z
_TEXT	SEGMENT PARA USE32 PUBLIC 'CODE'
_TEXT	ENDS
;	COMDAT ?equal_range@?$_Tree@V?$_Tmap_traits@KPAVCCtrl@@U?$less@K@std@@V?$allocator@U?$pair@$$CBKPAVCCtrl@@@std@@@3@$0A@@std@@@std@@QAE?AU?$pair@Viterator@?$_Tree@V?$_Tmap_traits@KPAVCCtrl@@U?$less@K@std@@V?$allocator@U?$pair@$$CBKPAVCCtrl@@@std@@@3@$0A@@std@@@std@@V123@@2@ABK@Z
_TEXT	SEGMENT PARA USE32 PUBLIC 'CODE'
_TEXT	ENDS
;	COMDAT ??0?$pair@Viterator@?$_Tree@V?$_Tmap_traits@KPAVCCtrl@@U?$less@K@std@@V?$allocator@U?$pair@$$CBKPAVCCtrl@@@std@@@3@$0A@@std@@@std@@V123@@std@@QAE@ABViterator@?$_Tree@V?$_Tmap_traits@KPAVCCtrl@@U?$less@K@std@@V?$allocator@U?$pair@$$CBKPAVCCtrl@@@std@@@3@$0A@@std@@@1@0@Z
_TEXT	SEGMENT PARA USE32 PUBLIC 'CODE'
_TEXT	ENDS
;	COMDAT ?upper_bound@?$_Tree@V?$_Tmap_traits@KPAVCCtrl@@U?$less@K@std@@V?$allocator@U?$pair@$$CBKPAVCCtrl@@@std@@@3@$0A@@std@@@std@@QAE?AViterator@12@ABK@Z
_TEXT	SEGMENT PARA USE32 PUBLIC 'CODE'
_TEXT	ENDS
;	COMDAT ?_Ubound@?$_Tree@V?$_Tmap_traits@KPAVCCtrl@@U?$less@K@std@@V?$allocator@U?$pair@$$CBKPAVCCtrl@@@std@@@3@$0A@@std@@@std@@IBEPAU_Node@?$_Tree_nod@V?$_Tmap_traits@KPAVCCtrl@@U?$less@K@std@@V?$allocator@U?$pair@$$CBKPAVCCtrl@@@std@@@3@$0A@@std@@@2@ABK@Z
_TEXT	SEGMENT PARA USE32 PUBLIC 'CODE'
_TEXT	ENDS
;	COMDAT ??$_Distance@Viterator@?$_Tree@V?$_Tmap_traits@KPAVCCtrl@@U?$less@K@std@@V?$allocator@U?$pair@$$CBKPAVCCtrl@@@std@@@3@$0A@@std@@@std@@I@std@@YAXViterator@?$_Tree@V?$_Tmap_traits@KPAVCCtrl@@U?$less@K@std@@V?$allocator@U?$pair@$$CBKPAVCCtrl@@@std@@@3@$0A@@std@@@0@0AAI@Z
_TEXT	SEGMENT PARA USE32 PUBLIC 'CODE'
_TEXT	ENDS
;	COMDAT ?erase@?$_Tree@V?$_Tmap_traits@KPAVCCtrl@@U?$less@K@std@@V?$allocator@U?$pair@$$CBKPAVCCtrl@@@std@@@3@$0A@@std@@@std@@QAE?AViterator@12@V312@0@Z
_TEXT	SEGMENT PARA USE32 PUBLIC 'CODE'
_TEXT	ENDS
;	COMDAT ?clear@?$_Tree@V?$_Tmap_traits@KPAVCCtrl@@U?$less@K@std@@V?$allocator@U?$pair@$$CBKPAVCCtrl@@@std@@@3@$0A@@std@@@std@@QAEXXZ
_TEXT	SEGMENT PARA USE32 PUBLIC 'CODE'
_TEXT	ENDS
;	COMDAT ?_Erase@?$_Tree@V?$_Tmap_traits@KPAVCCtrl@@U?$less@K@std@@V?$allocator@U?$pair@$$CBKPAVCCtrl@@@std@@@3@$0A@@std@@@std@@IAEXPAU_Node@?$_Tree_nod@V?$_Tmap_traits@KPAVCCtrl@@U?$less@K@std@@V?$allocator@U?$pair@$$CBKPAVCCtrl@@@std@@@3@$0A@@std@@@2@@Z
_TEXT	SEGMENT PARA USE32 PUBLIC 'CODE'
_TEXT	ENDS
;	COMDAT ?destroy@?$allocator@U_Node@?$_Tree_nod@V?$_Tmap_traits@KPAVCCtrl@@U?$less@K@std@@V?$allocator@U?$pair@$$CBKPAVCCtrl@@@std@@@3@$0A@@std@@@std@@@std@@QAEXPAU_Node@?$_Tree_nod@V?$_Tmap_traits@KPAVCCtrl@@U?$less@K@std@@V?$allocator@U?$pair@$$CBKPAVCCtrl@@@std@@@3@$0A@@std@@@2@@Z
_TEXT	SEGMENT PARA USE32 PUBLIC 'CODE'
_TEXT	ENDS
;	COMDAT ??$_Destroy@U_Node@?$_Tree_nod@V?$_Tmap_traits@KPAVCCtrl@@U?$less@K@std@@V?$allocator@U?$pair@$$CBKPAVCCtrl@@@std@@@3@$0A@@std@@@std@@@std@@YAXPAU_Node@?$_Tree_nod@V?$_Tmap_traits@KPAVCCtrl@@U?$less@K@std@@V?$allocator@U?$pair@$$CBKPAVCCtrl@@@std@@@3@$0A@@std@@@0@@Z
_TEXT	SEGMENT PARA USE32 PUBLIC 'CODE'
_TEXT	ENDS
;	COMDAT ?erase@?$_Tree@V?$_Tmap_traits@KPAVCCtrl@@U?$less@K@std@@V?$allocator@U?$pair@$$CBKPAVCCtrl@@@std@@@3@$0A@@std@@@std@@QAE?AViterator@12@V312@@Z
_TEXT	SEGMENT PARA USE32 PUBLIC 'CODE'
_TEXT	ENDS
;	COMDAT ??Eiterator@?$_Tree@V?$_Tmap_traits@KPAVCCtrl@@U?$less@K@std@@V?$allocator@U?$pair@$$CBKPAVCCtrl@@@std@@@3@$0A@@std@@@std@@QAE?AV012@H@Z
_TEXT	SEGMENT PARA USE32 PUBLIC 'CODE'
_TEXT	ENDS
;	COMDAT ??5@YAAAVCAr@@AAV0@AAUD3DXVECTOR3@@@Z
_TEXT	SEGMENT PARA USE32 PUBLIC 'CODE'
_TEXT	ENDS
;	COMDAT ??5CAr@@QAEAAV0@AAM@Z
_TEXT	SEGMENT PARA USE32 PUBLIC 'CODE'
_TEXT	ENDS
;	COMDAT ??5CAr@@QAEAAV0@AAJ@Z
_TEXT	SEGMENT PARA USE32 PUBLIC 'CODE'
_TEXT	ENDS
;	COMDAT ?time_null@@YAJXZ
_TEXT	SEGMENT PARA USE32 PUBLIC 'CODE'
_TEXT	ENDS
;	COMDAT ??6CAr@@QAEAAV0@J@Z
_TEXT	SEGMENT PARA USE32 PUBLIC 'CODE'
_TEXT	ENDS
;	COMDAT ??6@YAAAVCAr@@AAV0@UD3DXVECTOR3@@@Z
_TEXT	SEGMENT PARA USE32 PUBLIC 'CODE'
_TEXT	ENDS
;	COMDAT ??6CAr@@QAEAAV0@M@Z
_TEXT	SEGMENT PARA USE32 PUBLIC 'CODE'
_TEXT	ENDS
;	COMDAT ??1?$basic_string@DU?$char_traits@D@std@@V?$allocator@D@2@@std@@QAE@XZ
_TEXT	SEGMENT PARA USE32 PUBLIC 'CODE'
_TEXT	ENDS
;	COMDAT ??0?$basic_string@DU?$char_traits@D@std@@V?$allocator@D@2@@std@@QAE@PBD@Z
_TEXT	SEGMENT PARA USE32 PUBLIC 'CODE'
_TEXT	ENDS
;	COMDAT ??0?$allocator@D@std@@QAE@XZ
_TEXT	SEGMENT PARA USE32 PUBLIC 'CODE'
_TEXT	ENDS
;	COMDAT ?assign@?$basic_string@DU?$char_traits@D@std@@V?$allocator@D@2@@std@@QAEAAV12@PBD@Z
_TEXT	SEGMENT PARA USE32 PUBLIC 'CODE'
_TEXT	ENDS
;	COMDAT ?assign@?$basic_string@DU?$char_traits@D@std@@V?$allocator@D@2@@std@@QAEAAV12@PBDI@Z
_TEXT	SEGMENT PARA USE32 PUBLIC 'CODE'
_TEXT	ENDS
;	COMDAT ?_Inside@?$basic_string@DU?$char_traits@D@std@@V?$allocator@D@2@@std@@IAE_NPBD@Z
_TEXT	SEGMENT PARA USE32 PUBLIC 'CODE'
_TEXT	ENDS
;	COMDAT ?length@?$char_traits@D@std@@SAIPBD@Z
_TEXT	SEGMENT PARA USE32 PUBLIC 'CODE'
_TEXT	ENDS
;	COMDAT ?c_str@?$basic_string@DU?$char_traits@D@std@@V?$allocator@D@2@@std@@QBEPBDXZ
_TEXT	SEGMENT PARA USE32 PUBLIC 'CODE'
_TEXT	ENDS
;	COMDAT ??6CAr@@QAEAAV0@I@Z
_TEXT	SEGMENT PARA USE32 PUBLIC 'CODE'
_TEXT	ENDS
;	COMDAT ??_7__MINIGAME_EXT_PACKET@@6B@
CONST	SEGMENT DWORD USE32 PUBLIC 'CONST'
CONST	ENDS
;	COMDAT ??5CAr@@QAEAAV0@AAG@Z
_TEXT	SEGMENT PARA USE32 PUBLIC 'CODE'
_TEXT	ENDS
;	COMDAT ??5CAr@@QAEAAV0@AAH@Z
_TEXT	SEGMENT PARA USE32 PUBLIC 'CODE'
_TEXT	ENDS
;	COMDAT ??6CAr@@QAEAAV0@G@Z
_TEXT	SEGMENT PARA USE32 PUBLIC 'CODE'
_TEXT	ENDS
;	COMDAT ??6CAr@@QAEAAV0@H@Z
_TEXT	SEGMENT PARA USE32 PUBLIC 'CODE'
_TEXT	ENDS
;	COMDAT ??_7__MINIGAME_PACKET@@6B@
CONST	SEGMENT DWORD USE32 PUBLIC 'CONST'
CONST	ENDS
;	COMDAT ??1?$vector@KV?$allocator@K@std@@@std@@QAE@XZ
_TEXT	SEGMENT PARA USE32 PUBLIC 'CODE'
_TEXT	ENDS
;	COMDAT ?_Tidy@?$vector@KV?$allocator@K@std@@@std@@IAEXXZ
_TEXT	SEGMENT PARA USE32 PUBLIC 'CODE'
_TEXT	ENDS
;	COMDAT ?_Destroy@?$vector@KV?$allocator@K@std@@@std@@IAEXPAK0@Z
_TEXT	SEGMENT PARA USE32 PUBLIC 'CODE'
_TEXT	ENDS
;	COMDAT ??$_Destroy_range@KV?$allocator@K@std@@@std@@YAXPAK0AAV?$allocator@K@0@@Z
_TEXT	SEGMENT PARA USE32 PUBLIC 'CODE'
_TEXT	ENDS
;	COMDAT ?_Ptr_cat@std@@YA?AU_Scalar_ptr_iterator_tag@1@PAK0@Z
_TEXT	SEGMENT PARA USE32 PUBLIC 'CODE'
_TEXT	ENDS
;	COMDAT ?deallocate@?$allocator@K@std@@QAEXPAKI@Z
_TEXT	SEGMENT PARA USE32 PUBLIC 'CODE'
_TEXT	ENDS
;	COMDAT ??0?$vector@KV?$allocator@K@std@@@std@@QAE@XZ
_TEXT	SEGMENT PARA USE32 PUBLIC 'CODE'
_TEXT	ENDS
;	COMDAT ??0?$_Vector_val@KV?$allocator@K@std@@@std@@IAE@V?$allocator@K@1@@Z
_TEXT	SEGMENT PARA USE32 PUBLIC 'CODE'
_TEXT	ENDS
;	COMDAT ??0?$allocator@K@std@@QAE@ABV01@@Z
_TEXT	SEGMENT PARA USE32 PUBLIC 'CODE'
_TEXT	ENDS
;	COMDAT ??0?$allocator@K@std@@QAE@XZ
_TEXT	SEGMENT PARA USE32 PUBLIC 'CODE'
_TEXT	ENDS
;	COMDAT ?_Buy@?$vector@KV?$allocator@K@std@@@std@@IAE_NI@Z
_TEXT	SEGMENT PARA USE32 PUBLIC 'CODE'
_TEXT	ENDS
;	COMDAT ?max_size@?$vector@KV?$allocator@K@std@@@std@@QBEIXZ
_TEXT	SEGMENT PARA USE32 PUBLIC 'CODE'
_TEXT	ENDS
;	COMDAT ?max_size@?$allocator@K@std@@QBEIXZ
_TEXT	SEGMENT PARA USE32 PUBLIC 'CODE'
_TEXT	ENDS
;	COMDAT ?_Xlen@?$vector@KV?$allocator@K@std@@@std@@IBEXXZ
_TEXT	SEGMENT PARA USE32 PUBLIC 'CODE'
_TEXT	ENDS
;	COMDAT ?allocate@?$allocator@K@std@@QAEPAKI@Z
_TEXT	SEGMENT PARA USE32 PUBLIC 'CODE'
_TEXT	ENDS
;	COMDAT ??$_Allocate@K@std@@YAPAKIPAK@Z
_TEXT	SEGMENT PARA USE32 PUBLIC 'CODE'
_TEXT	ENDS
;	COMDAT ??5CAr@@QAEAAV0@AAK@Z
_TEXT	SEGMENT PARA USE32 PUBLIC 'CODE'
_TEXT	ENDS
;	COMDAT ??6CAr@@QAEAAV0@K@Z
_TEXT	SEGMENT PARA USE32 PUBLIC 'CODE'
_TEXT	ENDS
;	COMDAT ?IsStoring@CAr@@QBEHXZ
_TEXT	SEGMENT PARA USE32 PUBLIC 'CODE'
_TEXT	ENDS
;	COMDAT ??0D3DXVECTOR3@@QAE@MMM@Z
_TEXT	SEGMENT PARA USE32 PUBLIC 'CODE'
_TEXT	ENDS
;	COMDAT ?GetTickCount@CTime@ATL@@SG?AV12@XZ
_TEXT	SEGMENT PARA USE32 PUBLIC 'CODE'
_TEXT	ENDS
;	COMDAT ??0CTime@ATL@@QAE@_J@Z
_TEXT	SEGMENT PARA USE32 PUBLIC 'CODE'
_TEXT	ENDS
;	COMDAT ??0D3DXVECTOR3@@QAE@XZ
_TEXT	SEGMENT PARA USE32 PUBLIC 'CODE'
_TEXT	ENDS
;	COMDAT ??0CTime@ATL@@QAE@XZ
_TEXT	SEGMENT PARA USE32 PUBLIC 'CODE'
_TEXT	ENDS
sxdata	SEGMENT DWORD USE32 'SXDATA'
sxdata	ENDS
FLAT	GROUP _DATA, CONST, _BSS
	ASSUME	CS: FLAT, DS: FLAT, SS: FLAT
endif

INCLUDELIB LIBCMT
INCLUDELIB OLDNAMES

PUBLIC	?stateMap@CAIPet@@2USTATEMAP@@B			; CAIPet::stateMap
EXTRN	?stateMap@CAIInterface@@2USTATEMAP@@B:QWORD	; CAIInterface::stateMap
CONST	SEGMENT
?stateMap@CAIPet@@2USTATEMAP@@B DD FLAT:?stateMap@CAIInterface@@2USTATEMAP@@B ; CAIPet::stateMap
	DD	FLAT:?stateMapEntries@CAIPet@@2QBUSTATEMAP_ENTRIES@@B
CONST	ENDS
PUBLIC	?SetSkillId@CAIPet@@AAEXK@Z			; CAIPet::SetSkillId
; Function compile flags: /Ogty
; File c:\documents and settings\test\mes documents\source\virtuos_v17\build\program\_aiinterface\aipet.h
;	COMDAT ?SetSkillId@CAIPet@@AAEXK@Z
_TEXT	SEGMENT
_dwSkill$ = 8						; size = 4
?SetSkillId@CAIPet@@AAEXK@Z PROC NEAR			; CAIPet::SetSkillId, COMDAT
; _this$ = ecx

; 50   : 	void	SetSkillId( DWORD dwSkill )		{ m_dwSkillId = dwSkill; }	//   

  00000	8b 44 24 04	 mov	 eax, DWORD PTR _dwSkill$[esp-4]
  00004	89 41 48	 mov	 DWORD PTR [ecx+72], eax
  00007	c2 04 00	 ret	 4
?SetSkillId@CAIPet@@AAEXK@Z ENDP			; CAIPet::SetSkillId
_TEXT	ENDS
PUBLIC	?GetSkillId@CAIPet@@AAEKXZ			; CAIPet::GetSkillId
; Function compile flags: /Ogty
;	COMDAT ?GetSkillId@CAIPet@@AAEKXZ
_TEXT	SEGMENT
?GetSkillId@CAIPet@@AAEKXZ PROC NEAR			; CAIPet::GetSkillId, COMDAT
; _this$ = ecx

; 51   : 	DWORD	GetSkillId()	{	return m_dwSkillId;	}	//   

  00000	8b 41 48	 mov	 eax, DWORD PTR [ecx+72]
  00003	c3		 ret	 0
?GetSkillId@CAIPet@@AAEKXZ ENDP				; CAIPet::GetSkillId
_TEXT	ENDS
PUBLIC	?GetStateMap@CAIPet@@UBEPBUSTATEMAP@@XZ		; CAIPet::GetStateMap
; Function compile flags: /Ogty
; File c:\documents and settings\test\mes documents\source\virtuos_v17\build\program\_aiinterface\aipet.cpp
;	COMDAT ?GetStateMap@CAIPet@@UBEPBUSTATEMAP@@XZ
_TEXT	SEGMENT
?GetStateMap@CAIPet@@UBEPBUSTATEMAP@@XZ PROC NEAR	; CAIPet::GetStateMap, COMDAT
; _this$ = ecx

; 22   : BEGIN_AISTATE_MAP( CAIPet, CAIInterface )

  00000	b8 00 00 00 00	 mov	 eax, OFFSET FLAT:?stateMap@CAIPet@@2USTATEMAP@@B ; CAIPet::stateMap
  00005	c3		 ret	 0
?GetStateMap@CAIPet@@UBEPBUSTATEMAP@@XZ ENDP		; CAIPet::GetStateMap
_TEXT	ENDS
PUBLIC	?Init@CAIPet@@AAEXXZ				; CAIPet::Init
; Function compile flags: /Ogty
;	COMDAT ?Init@CAIPet@@AAEXXZ
_TEXT	SEGMENT
?Init@CAIPet@@AAEXXZ PROC NEAR				; CAIPet::Init, COMDAT
; _this$ = ecx

; 62   : 	m_idOwner	= NULL_ID;

  00000	83 c8 ff	 or	 eax, -1

; 63   : 	m_bLootMove		= FALSE;				

  00003	33 d2		 xor	 edx, edx
  00005	89 41 38	 mov	 DWORD PTR [ecx+56], eax
  00008	89 51 3c	 mov	 DWORD PTR [ecx+60], edx

; 64   : 	m_idLootItem	= NULL_ID;				

  0000b	89 41 40	 mov	 DWORD PTR [ecx+64], eax

; 65   : 	m_nState	= PETSTATE_IDLE;

  0000e	89 51 44	 mov	 DWORD PTR [ecx+68], edx

; 66   : #if __VER >= 12 // __PET_0519
; 67   : 	m_dwSkillId		= NULL_ID;	// 

  00011	89 41 48	 mov	 DWORD PTR [ecx+72], eax

; 68   : 	m_idPetItem		= NULL_ID;	//  

  00014	89 41 4c	 mov	 DWORD PTR [ecx+76], eax

; 69   : #endif	// __PET_0519
; 70   : }

  00017	c3		 ret	 0
?Init@CAIPet@@AAEXXZ ENDP				; CAIPet::Init
_TEXT	ENDS
PUBLIC	?Destroy@CAIPet@@AAEXXZ				; CAIPet::Destroy
; Function compile flags: /Ogty
;	COMDAT ?Destroy@CAIPet@@AAEXXZ
_TEXT	SEGMENT
?Destroy@CAIPet@@AAEXXZ PROC NEAR			; CAIPet::Destroy, COMDAT
; _this$ = ecx

; 74   : 	//   .
; 75   : 
; 76   : 
; 77   : 	Init();

  00000	83 c8 ff	 or	 eax, -1
  00003	33 d2		 xor	 edx, edx
  00005	89 41 38	 mov	 DWORD PTR [ecx+56], eax
  00008	89 51 3c	 mov	 DWORD PTR [ecx+60], edx
  0000b	89 41 40	 mov	 DWORD PTR [ecx+64], eax
  0000e	89 51 44	 mov	 DWORD PTR [ecx+68], edx
  00011	89 41 48	 mov	 DWORD PTR [ecx+72], eax
  00014	89 41 4c	 mov	 DWORD PTR [ecx+76], eax

; 78   : }

  00017	c3		 ret	 0
?Destroy@CAIPet@@AAEXXZ ENDP				; CAIPet::Destroy
_TEXT	ENDS
PUBLIC	?InitAI@CAIPet@@UAEXXZ				; CAIPet::InitAI
; Function compile flags: /Ogty
;	COMDAT ?InitAI@CAIPet@@UAEXXZ
_TEXT	SEGMENT
?InitAI@CAIPet@@UAEXXZ PROC NEAR			; CAIPet::InitAI, COMDAT
; _this$ = ecx

; 82   : 	PostAIMsg( AIMSG_SETSTATE, STATE_IDLE ); 

  00000	8b 01		 mov	 eax, DWORD PTR [ecx]
  00002	6a 00		 push	 0
  00004	6a 00		 push	 0
  00006	6a 02		 push	 2
  00008	6a 04		 push	 4
  0000a	ff 50 10	 call	 DWORD PTR [eax+16]

; 83   : }

  0000d	c3		 ret	 0
?InitAI@CAIPet@@UAEXXZ ENDP				; CAIPet::InitAI
_TEXT	ENDS
PUBLIC	?StateInit@CAIPet@@QAEHABUAIMSG@@@Z		; CAIPet::StateInit
; Function compile flags: /Ogty
;	COMDAT ?StateInit@CAIPet@@QAEHABUAIMSG@@@Z
_TEXT	SEGMENT
_msg$ = 8						; size = 4
?StateInit@CAIPet@@QAEHABUAIMSG@@@Z PROC NEAR		; CAIPet::StateInit, COMDAT
; _this$ = ecx

; 270  : 	return TRUE;

  00000	b8 01 00 00 00	 mov	 eax, 1

; 271  : }

  00005	c2 04 00	 ret	 4
?StateInit@CAIPet@@QAEHABUAIMSG@@@Z ENDP		; CAIPet::StateInit
_TEXT	ENDS
PUBLIC	?SetSkill@CAIPet@@AAEXPAVCMover@@PAUItemProp@@@Z ; CAIPet::SetSkill
EXTRN	?DoActiveSkill@CCtrl@@QAEXKHPAV1@_NH@Z:NEAR	; CCtrl::DoActiveSkill
; Function compile flags: /Ogty
;	COMDAT ?SetSkill@CAIPet@@AAEXPAVCMover@@PAUItemProp@@@Z
_TEXT	SEGMENT
_pPlayer$ = 8						; size = 4
_Prop$ = 12						; size = 4
?SetSkill@CAIPet@@AAEXPAVCMover@@PAUItemProp@@@Z PROC NEAR ; CAIPet::SetSkill, COMDAT
; _this$ = ecx

; 542  : 	if( Prop->dwActiveSkill != NULL_ID )

  00000	8b 54 24 08	 mov	 edx, DWORD PTR _Prop$[esp-4]
  00004	8b 82 a0 01 00
	00		 mov	 eax, DWORD PTR [edx+416]
  0000a	83 f8 ff	 cmp	 eax, -1
  0000d	74 1a		 je	 SHORT $L259349

; 543  : 	{
; 544  : 		SetSkillId( Prop->dwActiveSkill );
; 545  : 		pPlayer->DoActiveSkill( Prop->dwActiveSkill, 1, pPlayer );

  0000f	6a 00		 push	 0
  00011	89 41 48	 mov	 DWORD PTR [ecx+72], eax
  00014	8b 4c 24 08	 mov	 ecx, DWORD PTR _pPlayer$[esp]
  00018	8b 82 a0 01 00
	00		 mov	 eax, DWORD PTR [edx+416]
  0001e	6a 00		 push	 0
  00020	51		 push	 ecx
  00021	6a 01		 push	 1
  00023	50		 push	 eax
  00024	e8 00 00 00 00	 call	 ?DoActiveSkill@CCtrl@@QAEXKHPAV1@_NH@Z ; CCtrl::DoActiveSkill
$L259349:

; 546  : 	}
; 547  : }

  00029	c2 08 00	 ret	 8
?SetSkill@CAIPet@@AAEXPAVCMover@@PAUItemProp@@@Z ENDP	; CAIPet::SetSkill
_TEXT	ENDS
PUBLIC	?ResetSkill@CAIPet@@AAEXPAVCMover@@@Z		; CAIPet::ResetSkill
EXTRN	?HasBuff@CMover@@QAEHGG@Z:NEAR			; CMover::HasBuff
EXTRN	?RemoveBuff@CMover@@QAEXGG@Z:NEAR		; CMover::RemoveBuff
; Function compile flags: /Ogty
;	COMDAT ?ResetSkill@CAIPet@@AAEXPAVCMover@@@Z
_TEXT	SEGMENT
_pPlayer$ = 8						; size = 4
?ResetSkill@CAIPet@@AAEXPAVCMover@@@Z PROC NEAR		; CAIPet::ResetSkill, COMDAT
; _this$ = ecx

; 565  : {	//   

  00000	57		 push	 edi
  00001	8b f9		 mov	 edi, ecx

; 566  : 	if( GetSkillId() != NULL_ID && pPlayer->HasBuff( BUFF_SKILL, (WORD)( GetSkillId() ) ) )

  00003	8b 47 48	 mov	 eax, DWORD PTR [edi+72]
  00006	83 f8 ff	 cmp	 eax, -1
  00009	74 24		 je	 SHORT $L259364
  0000b	56		 push	 esi
  0000c	8b 74 24 0c	 mov	 esi, DWORD PTR _pPlayer$[esp+4]
  00010	50		 push	 eax
  00011	6a 01		 push	 1
  00013	8b ce		 mov	 ecx, esi
  00015	e8 00 00 00 00	 call	 ?HasBuff@CMover@@QAEHGG@Z ; CMover::HasBuff
  0001a	85 c0		 test	 eax, eax
  0001c	74 10		 je	 SHORT $L264434

; 567  : 		pPlayer->RemoveBuff( BUFF_SKILL, (WORD)( GetSkillId() ) );

  0001e	33 c0		 xor	 eax, eax
  00020	66 8b 47 48	 mov	 ax, WORD PTR [edi+72]
  00024	8b ce		 mov	 ecx, esi
  00026	50		 push	 eax
  00027	6a 01		 push	 1
  00029	e8 00 00 00 00	 call	 ?RemoveBuff@CMover@@QAEXGG@Z ; CMover::RemoveBuff
$L264434:
  0002e	5e		 pop	 esi
$L259364:
  0002f	5f		 pop	 edi

; 568  : }

  00030	c2 04 00	 ret	 4
?ResetSkill@CAIPet@@AAEXPAVCMover@@@Z ENDP		; CAIPet::ResetSkill
_TEXT	ENDS
PUBLIC	??0D3DXVECTOR3@@QAE@XZ				; D3DXVECTOR3::D3DXVECTOR3
; Function compile flags: /Ogty
; File c:\documents and settings\test\mes documents\source\virtuos_v17\build\program\dx_sdk\d3dx9math.h
;	COMDAT ??0D3DXVECTOR3@@QAE@XZ
_TEXT	SEGMENT
??0D3DXVECTOR3@@QAE@XZ PROC NEAR			; D3DXVECTOR3::D3DXVECTOR3, COMDAT
; _this$ = ecx

; 165  :     D3DXVECTOR3() {};

  00000	8b c1		 mov	 eax, ecx
  00002	c3		 ret	 0
??0D3DXVECTOR3@@QAE@XZ ENDP				; D3DXVECTOR3::D3DXVECTOR3
_TEXT	ENDS
PUBLIC	??0D3DXVECTOR3@@QAE@MMM@Z			; D3DXVECTOR3::D3DXVECTOR3
EXTRN	__fltused:NEAR
; Function compile flags: /Ogty
; File c:\documents and settings\test\mes documents\source\virtuos_v17\build\program\dx_sdk\d3dx9math.inl
;	COMDAT ??0D3DXVECTOR3@@QAE@MMM@Z
_TEXT	SEGMENT
_fx$ = 8						; size = 4
_fy$ = 12						; size = 4
_fz$ = 16						; size = 4
??0D3DXVECTOR3@@QAE@MMM@Z PROC NEAR			; D3DXVECTOR3::D3DXVECTOR3, COMDAT
; _this$ = ecx

; 300  :     x = fx;
; 301  :     y = fy;

  00000	8b 54 24 08	 mov	 edx, DWORD PTR _fy$[esp-4]
  00004	8b c1		 mov	 eax, ecx
  00006	8b 4c 24 04	 mov	 ecx, DWORD PTR _fx$[esp-4]
  0000a	89 08		 mov	 DWORD PTR [eax], ecx

; 302  :     z = fz;

  0000c	8b 4c 24 0c	 mov	 ecx, DWORD PTR _fz$[esp-4]
  00010	89 50 04	 mov	 DWORD PTR [eax+4], edx
  00013	89 48 08	 mov	 DWORD PTR [eax+8], ecx

; 303  : }

  00016	c2 0c 00	 ret	 12			; 0000000cH
??0D3DXVECTOR3@@QAE@MMM@Z ENDP				; D3DXVECTOR3::D3DXVECTOR3
_TEXT	ENDS
PUBLIC	??GD3DXVECTOR3@@QBE?AU0@ABU0@@Z			; D3DXVECTOR3::operator-
; Function compile flags: /Ogty
;	COMDAT ??GD3DXVECTOR3@@QBE?AU0@ABU0@@Z
_TEXT	SEGMENT
___$ReturnUdt$ = 8					; size = 4
_v$ = 12						; size = 4
??GD3DXVECTOR3@@QBE?AU0@ABU0@@Z PROC NEAR		; D3DXVECTOR3::operator-, COMDAT
; _this$ = ecx

; 383  :     return D3DXVECTOR3(x - v.x, y - v.y, z - v.z);

  00000	d9 41 08	 fld	 DWORD PTR [ecx+8]
  00003	8b 44 24 08	 mov	 eax, DWORD PTR _v$[esp-4]
  00007	d8 60 08	 fsub	 DWORD PTR [eax+8]
  0000a	d9 41 04	 fld	 DWORD PTR [ecx+4]
  0000d	d8 60 04	 fsub	 DWORD PTR [eax+4]
  00010	d9 01		 fld	 DWORD PTR [ecx]
  00012	d8 20		 fsub	 DWORD PTR [eax]
  00014	8b 44 24 04	 mov	 eax, DWORD PTR ___$ReturnUdt$[esp-4]
  00018	d9 18		 fstp	 DWORD PTR [eax]
  0001a	d9 58 04	 fstp	 DWORD PTR [eax+4]
  0001d	d9 58 08	 fstp	 DWORD PTR [eax+8]

; 384  : }

  00020	c2 08 00	 ret	 8
??GD3DXVECTOR3@@QBE?AU0@ABU0@@Z ENDP			; D3DXVECTOR3::operator-
_TEXT	ENDS
PUBLIC	?D3DXVec3LengthSq@@YAMPBUD3DXVECTOR3@@@Z	; D3DXVec3LengthSq
; Function compile flags: /Ogty
;	COMDAT ?D3DXVec3LengthSq@@YAMPBUD3DXVECTOR3@@@Z
_TEXT	SEGMENT
_pV$ = 8						; size = 4
?D3DXVec3LengthSq@@YAMPBUD3DXVECTOR3@@@Z PROC NEAR	; D3DXVec3LengthSq, COMDAT

; 1693 : #ifdef D3DX_DEBUG
; 1694 :     if(!pV)
; 1695 :         return 0.0f;
; 1696 : #endif
; 1697 : 
; 1698 :     return pV->x * pV->x + pV->y * pV->y + pV->z * pV->z;

  00000	8b 44 24 04	 mov	 eax, DWORD PTR _pV$[esp-4]
  00004	d9 40 08	 fld	 DWORD PTR [eax+8]
  00007	d9 40 04	 fld	 DWORD PTR [eax+4]
  0000a	d9 00		 fld	 DWORD PTR [eax]
  0000c	d9 c0		 fld	 ST(0)
  0000e	d8 c9		 fmul	 ST(0), ST(1)
  00010	d9 c2		 fld	 ST(2)
  00012	d8 cb		 fmul	 ST(0), ST(3)
  00014	de c1		 faddp	 ST(1), ST(0)
  00016	d9 c3		 fld	 ST(3)
  00018	d8 cc		 fmul	 ST(0), ST(4)
  0001a	de c1		 faddp	 ST(1), ST(0)
  0001c	dd db		 fstp	 ST(3)
  0001e	dd d8		 fstp	 ST(0)
  00020	dd d8		 fstp	 ST(0)

; 1699 : }

  00022	c3		 ret	 0
?D3DXVec3LengthSq@@YAMPBUD3DXVECTOR3@@@Z ENDP		; D3DXVec3LengthSq
_TEXT	ENDS
PUBLIC	?IsDelete@CObj@@QAEHXZ				; CObj::IsDelete
; Function compile flags: /Ogty
; File c:\documents and settings\test\mes documents\source\virtuos_v17\build\program\_common\obj.h
;	COMDAT ?IsDelete@CObj@@QAEHXZ
_TEXT	SEGMENT
?IsDelete@CObj@@QAEHXZ PROC NEAR			; CObj::IsDelete, COMDAT
; _this$ = ecx

; 180  : 	BOOL			IsDelete()	{ return (m_dwFlags & OBJ_FLAG_DELETE);  }

  00000	8b 41 04	 mov	 eax, DWORD PTR [ecx+4]
  00003	83 e0 01	 and	 eax, 1
  00006	c3		 ret	 0
?IsDelete@CObj@@QAEHXZ ENDP				; CObj::IsDelete
_TEXT	ENDS
PUBLIC	?GetNextNode@CObj@@QAEPAV1@XZ			; CObj::GetNextNode
; Function compile flags: /Ogty
;	COMDAT ?GetNextNode@CObj@@QAEPAV1@XZ
_TEXT	SEGMENT
?GetNextNode@CObj@@QAEPAV1@XZ PROC NEAR			; CObj::GetNextNode, COMDAT
; _this$ = ecx

; 195  : 	CObj*			GetNextNode() { return m_pNext; }

  00000	8b 81 80 01 00
	00		 mov	 eax, DWORD PTR [ecx+384]
  00006	c3		 ret	 0
?GetNextNode@CObj@@QAEPAV1@XZ ENDP			; CObj::GetNextNode
_TEXT	ENDS
PUBLIC	?GetType@CObj@@QAEKXZ				; CObj::GetType
; Function compile flags: /Ogty
;	COMDAT ?GetType@CObj@@QAEKXZ
_TEXT	SEGMENT
?GetType@CObj@@QAEKXZ PROC NEAR				; CObj::GetType, COMDAT
; _this$ = ecx

; 206  : 	DWORD			GetType() { return m_dwType; }

  00000	8b 81 70 01 00
	00		 mov	 eax, DWORD PTR [ecx+368]
  00006	c3		 ret	 0
?GetType@CObj@@QAEKXZ ENDP				; CObj::GetType
_TEXT	ENDS
PUBLIC	?GetIndex@CObj@@QAEKXZ				; CObj::GetIndex
; Function compile flags: /Ogty
;	COMDAT ?GetIndex@CObj@@QAEKXZ
_TEXT	SEGMENT
?GetIndex@CObj@@QAEKXZ PROC NEAR			; CObj::GetIndex, COMDAT
; _this$ = ecx

; 207  : 	DWORD			GetIndex() { return m_dwIndex; }

  00000	8b 81 74 01 00
	00		 mov	 eax, DWORD PTR [ecx+372]
  00006	c3		 ret	 0
?GetIndex@CObj@@QAEKXZ ENDP				; CObj::GetIndex
_TEXT	ENDS
PUBLIC	?GetPos@CObj@@QAE?AUD3DXVECTOR3@@XZ		; CObj::GetPos
; Function compile flags: /Ogty
;	COMDAT ?GetPos@CObj@@QAE?AUD3DXVECTOR3@@XZ
_TEXT	SEGMENT
___$ReturnUdt$ = 8					; size = 4
?GetPos@CObj@@QAE?AUD3DXVECTOR3@@XZ PROC NEAR		; CObj::GetPos, COMDAT
; _this$ = ecx

; 215  : 	D3DXVECTOR3		GetPos()	{ return m_vPos; }

  00000	8b 44 24 04	 mov	 eax, DWORD PTR ___$ReturnUdt$[esp-4]
  00004	81 c1 60 01 00
	00		 add	 ecx, 352		; 00000160H
  0000a	56		 push	 esi
  0000b	8b 31		 mov	 esi, DWORD PTR [ecx]
  0000d	8b d0		 mov	 edx, eax
  0000f	89 32		 mov	 DWORD PTR [edx], esi
  00011	8b 71 04	 mov	 esi, DWORD PTR [ecx+4]
  00014	89 72 04	 mov	 DWORD PTR [edx+4], esi
  00017	8b 49 08	 mov	 ecx, DWORD PTR [ecx+8]
  0001a	89 4a 08	 mov	 DWORD PTR [edx+8], ecx
  0001d	5e		 pop	 esi
  0001e	c2 04 00	 ret	 4
?GetPos@CObj@@QAE?AUD3DXVECTOR3@@XZ ENDP		; CObj::GetPos
_TEXT	ENDS
PUBLIC	?GetWorld@CObj@@QAEPAVCWorld@@XZ		; CObj::GetWorld
; Function compile flags: /Ogty
;	COMDAT ?GetWorld@CObj@@QAEPAVCWorld@@XZ
_TEXT	SEGMENT
?GetWorld@CObj@@QAEPAVCWorld@@XZ PROC NEAR		; CObj::GetWorld, COMDAT
; _this$ = ecx

; 221  : 	CWorld*			GetWorld()	{ return m_pWorld; }

  00000	8b 81 6c 01 00
	00		 mov	 eax, DWORD PTR [ecx+364]
  00006	c3		 ret	 0
?GetWorld@CObj@@QAEPAVCWorld@@XZ ENDP			; CObj::GetWorld
_TEXT	ENDS
PUBLIC	?GetLayer@CObj@@QAEHXZ				; CObj::GetLayer
; Function compile flags: /Ogty
;	COMDAT ?GetLayer@CObj@@QAEHXZ
_TEXT	SEGMENT
?GetLayer@CObj@@QAEHXZ PROC NEAR			; CObj::GetLayer, COMDAT
; _this$ = ecx

; 247  : 	int		GetLayer()	{	return m_nLayer;	}

  00000	8b 81 b8 01 00
	00		 mov	 eax, DWORD PTR [ecx+440]
  00006	c3		 ret	 0
?GetLayer@CObj@@QAEHXZ ENDP				; CObj::GetLayer
_TEXT	ENDS
PUBLIC	?IsValidObj@@YAHPAVCObj@@@Z			; IsValidObj
; Function compile flags: /Ogty
;	COMDAT ?IsValidObj@@YAHPAVCObj@@@Z
_TEXT	SEGMENT
_pObj$ = 8						; size = 4
?IsValidObj@@YAHPAVCObj@@@Z PROC NEAR			; IsValidObj, COMDAT

; 327  : 	return pObj && ( pObj->IsDelete() == FALSE ); 

  00000	8b 44 24 04	 mov	 eax, DWORD PTR _pObj$[esp-4]
  00004	85 c0		 test	 eax, eax
  00006	74 0c		 je	 SHORT $L264478
  00008	f6 40 04 01	 test	 BYTE PTR [eax+4], 1
  0000c	75 06		 jne	 SHORT $L264478
  0000e	b8 01 00 00 00	 mov	 eax, 1

; 328  : }

  00013	c3		 ret	 0
$L264478:

; 327  : 	return pObj && ( pObj->IsDelete() == FALSE ); 

  00014	33 c0		 xor	 eax, eax

; 328  : }

  00016	c3		 ret	 0
?IsValidObj@@YAHPAVCObj@@@Z ENDP			; IsValidObj
_TEXT	ENDS
PUBLIC	?IsInvalidObj@@YAHPAVCObj@@@Z			; IsInvalidObj
; Function compile flags: /Ogty
;	COMDAT ?IsInvalidObj@@YAHPAVCObj@@@Z
_TEXT	SEGMENT
_pObj$ = 8						; size = 4
?IsInvalidObj@@YAHPAVCObj@@@Z PROC NEAR			; IsInvalidObj, COMDAT

; 332  : 	return !IsValidObj( pObj ); 

  00000	8b 44 24 04	 mov	 eax, DWORD PTR _pObj$[esp-4]
  00004	85 c0		 test	 eax, eax
  00006	74 15		 je	 SHORT $L264493
  00008	f6 40 04 01	 test	 BYTE PTR [eax+4], 1
  0000c	75 0f		 jne	 SHORT $L264493
  0000e	b8 01 00 00 00	 mov	 eax, 1
  00013	33 c9		 xor	 ecx, ecx
  00015	85 c0		 test	 eax, eax
  00017	0f 94 c1	 sete	 cl
  0001a	8b c1		 mov	 eax, ecx

; 333  : }

  0001c	c3		 ret	 0

; 332  : 	return !IsValidObj( pObj ); 

$L264493:
  0001d	33 c0		 xor	 eax, eax
  0001f	33 c9		 xor	 ecx, ecx
  00021	85 c0		 test	 eax, eax
  00023	0f 94 c1	 sete	 cl
  00026	8b c1		 mov	 eax, ecx

; 333  : }

  00028	c3		 ret	 0
?IsInvalidObj@@YAHPAVCObj@@@Z ENDP			; IsInvalidObj
_TEXT	ENDS
PUBLIC	?GetId@CCtrl@@QAEKXZ				; CCtrl::GetId
; Function compile flags: /Ogty
; File c:\documents and settings\test\mes documents\source\virtuos_v17\build\program\_common\ctrl.h
;	COMDAT ?GetId@CCtrl@@QAEKXZ
_TEXT	SEGMENT
?GetId@CCtrl@@QAEKXZ PROC NEAR				; CCtrl::GetId, COMDAT
; _this$ = ecx

; 58   : 	OBJID			GetId()					{ return m_objid;   }

  00000	8b 81 bc 01 00
	00		 mov	 eax, DWORD PTR [ecx+444]
  00006	c3		 ret	 0
?GetId@CCtrl@@QAEKXZ ENDP				; CCtrl::GetId
_TEXT	ENDS
PUBLIC	?LOG_RANGE@@YAXPBDHHH@Z				; LOG_RANGE
PUBLIC	??_C@_0BM@HMFGHCP@?$CFs?5min?3?$CFd?0?5max?3?$CFd?0?5index?3?$CFd?$AA@ ; `string'
EXTRN	?Error@@YAPBDPBDZZ:NEAR				; Error
;	COMDAT ??_C@_0BM@HMFGHCP@?$CFs?5min?3?$CFd?0?5max?3?$CFd?0?5index?3?$CFd?$AA@
; File c:\documents and settings\test\mes documents\source\virtuos_v17\build\program\_common\project.h
CONST	SEGMENT
??_C@_0BM@HMFGHCP@?$CFs?5min?3?$CFd?0?5max?3?$CFd?0?5index?3?$CFd?$AA@ DB '%'
	DB	's min:%d, max:%d, index:%d', 00H		; `string'
; Function compile flags: /Ogty
CONST	ENDS
;	COMDAT ?LOG_RANGE@@YAXPBDHHH@Z
_TEXT	SEGMENT
_szMsg$ = 8						; size = 4
_nMin$ = 12						; size = 4
_nMax$ = 16						; size = 4
_nIndex$ = 20						; size = 4
?LOG_RANGE@@YAXPBDHHH@Z PROC NEAR			; LOG_RANGE, COMDAT

; 559  : 	LPCTSTR szErr = Error( _T( "%s min:%d, max:%d, index:%d" ), szMsg, nMin, nMax, nIndex ); 

  00000	8b 44 24 10	 mov	 eax, DWORD PTR _nIndex$[esp-4]
  00004	8b 4c 24 0c	 mov	 ecx, DWORD PTR _nMax$[esp-4]
  00008	8b 54 24 08	 mov	 edx, DWORD PTR _nMin$[esp-4]
  0000c	50		 push	 eax
  0000d	8b 44 24 08	 mov	 eax, DWORD PTR _szMsg$[esp]
  00011	51		 push	 ecx
  00012	52		 push	 edx
  00013	50		 push	 eax
  00014	68 00 00 00 00	 push	 OFFSET FLAT:??_C@_0BM@HMFGHCP@?$CFs?5min?3?$CFd?0?5max?3?$CFd?0?5index?3?$CFd?$AA@
  00019	e8 00 00 00 00	 call	 ?Error@@YAPBDPBDZZ	; Error
  0001e	83 c4 14	 add	 esp, 20			; 00000014H

; 560  : 	ADDERRORMSG( szErr ); 
; 561  : }

  00021	c3		 ret	 0
?LOG_RANGE@@YAXPBDHHH@Z ENDP				; LOG_RANGE
_TEXT	ENDS
PUBLIC	?LOG_CALLSTACK@@YAXXZ				; LOG_CALLSTACK
; Function compile flags: /Ogty
;	COMDAT ?LOG_CALLSTACK@@YAXXZ
_TEXT	SEGMENT
?LOG_CALLSTACK@@YAXXZ PROC NEAR				; LOG_CALLSTACK, COMDAT

; 565  : #ifdef _DEBUG
; 566  : 	__asm int 3
; 567  : #endif
; 568  : 
; 569  : #if defined(__INTERNALSERVER)
; 570  : 	int *p = NULL;		//    
; 571  : 	*p = 1;
; 572  : #endif
; 573  : }

  00000	c3		 ret	 0
?LOG_CALLSTACK@@YAXXZ ENDP				; LOG_CALLSTACK
_TEXT	ENDS
PUBLIC	??_C@_0BJ@GKPOBPPI@GetMoverProp?5range_error?$AA@ ; `string'
PUBLIC	?GetMoverProp@CProject@@QAEPAUMoverProp@@H@Z	; CProject::GetMoverProp
;	COMDAT ??_C@_0BJ@GKPOBPPI@GetMoverProp?5range_error?$AA@
CONST	SEGMENT
??_C@_0BJ@GKPOBPPI@GetMoverProp?5range_error?$AA@ DB 'GetMoverProp range_'
	DB	'error', 00H					; `string'
; Function compile flags: /Ogty
CONST	ENDS
;	COMDAT ?GetMoverProp@CProject@@QAEPAUMoverProp@@H@Z
_TEXT	SEGMENT
_nIndex$ = 8						; size = 4
?GetMoverProp@CProject@@QAEPAUMoverProp@@H@Z PROC NEAR	; CProject::GetMoverProp, COMDAT
; _this$ = ecx

; 1381 : 	VERIFY_RANGE( nIndex, 0, m_nMoverPropSize, "GetMoverProp range_error", NULL );

  00000	8b 44 24 04	 mov	 eax, DWORD PTR _nIndex$[esp-4]
  00004	85 c0		 test	 eax, eax
  00006	7c 19		 jl	 SHORT $L197938
  00008	3b 81 d0 01 00
	00		 cmp	 eax, DWORD PTR [ecx+464]
  0000e	7d 11		 jge	 SHORT $L197938

; 1382 : 	return m_pPropMover + nIndex;

  00010	8b 91 d4 01 00
	00		 mov	 edx, DWORD PTR [ecx+468]
  00016	69 c0 d8 06 00
	00		 imul	 eax, 1752		; 000006d8H
  0001c	03 c2		 add	 eax, edx

; 1383 : }

  0001e	c2 04 00	 ret	 4
$L197938:

; 1381 : 	VERIFY_RANGE( nIndex, 0, m_nMoverPropSize, "GetMoverProp range_error", NULL );

  00021	50		 push	 eax
  00022	8b 81 d0 01 00
	00		 mov	 eax, DWORD PTR [ecx+464]
  00028	50		 push	 eax
  00029	6a 00		 push	 0
  0002b	68 00 00 00 00	 push	 OFFSET FLAT:??_C@_0BJ@GKPOBPPI@GetMoverProp?5range_error?$AA@
  00030	68 00 00 00 00	 push	 OFFSET FLAT:??_C@_0BM@HMFGHCP@?$CFs?5min?3?$CFd?0?5max?3?$CFd?0?5index?3?$CFd?$AA@
  00035	e8 00 00 00 00	 call	 ?Error@@YAPBDPBDZZ	; Error
  0003a	83 c4 14	 add	 esp, 20			; 00000014H
  0003d	33 c0		 xor	 eax, eax

; 1383 : }

  0003f	c2 04 00	 ret	 4
?GetMoverProp@CProject@@QAEPAUMoverProp@@H@Z ENDP	; CProject::GetMoverProp
_TEXT	ENDS
PUBLIC	?GetState@CAction@@QAEKXZ			; CAction::GetState
; Function compile flags: /Ogty
; File c:\documents and settings\test\mes documents\source\virtuos_v17\build\program\_aiinterface\action.h
;	COMDAT ?GetState@CAction@@QAEKXZ
_TEXT	SEGMENT
?GetState@CAction@@QAEKXZ PROC NEAR			; CAction::GetState, COMDAT
; _this$ = ecx

; 291  : 	DWORD			GetState() { return m_dwState; }

  00000	8b 41 04	 mov	 eax, DWORD PTR [ecx+4]
  00003	c3		 ret	 0
?GetState@CAction@@QAEKXZ ENDP				; CAction::GetState
_TEXT	ENDS
PUBLIC	?IsFly@CAction@@QAEHXZ				; CAction::IsFly
; Function compile flags: /Ogty
;	COMDAT ?IsFly@CAction@@QAEHXZ
_TEXT	SEGMENT
?IsFly@CAction@@QAEHXZ PROC NEAR			; CAction::IsFly, COMDAT
; _this$ = ecx

; 309  : 	BOOL			IsFly() { return (m_dwStateFlag & OBJSTAF_FLY) ? TRUE : FALSE; }

  00000	8b 41 08	 mov	 eax, DWORD PTR [ecx+8]
  00003	c1 e8 03	 shr	 eax, 3
  00006	83 e0 01	 and	 eax, 1
  00009	c3		 ret	 0
?IsFly@CAction@@QAEHXZ ENDP				; CAction::IsFly
_TEXT	ENDS
PUBLIC	?IsDie@CAction@@QAEHXZ				; CAction::IsDie
; Function compile flags: /Ogty
;	COMDAT ?IsDie@CAction@@QAEHXZ
_TEXT	SEGMENT
?IsDie@CAction@@QAEHXZ PROC NEAR			; CAction::IsDie, COMDAT
; _this$ = ecx

; 310  : 	BOOL			IsDie() { return (m_dwState & OBJSTA_DIE_ALL) ? TRUE : FALSE; }

  00000	8b 41 04	 mov	 eax, DWORD PTR [ecx+4]
  00003	c1 e8 1b	 shr	 eax, 27			; 0000001bH
  00006	83 e0 01	 and	 eax, 1
  00009	c3		 ret	 0
?IsDie@CAction@@QAEHXZ ENDP				; CAction::IsDie
_TEXT	ENDS
PUBLIC	?GetMover@CAIInterface@@IAEPAVCMover@@XZ	; CAIInterface::GetMover
; Function compile flags: /Ogty
; File c:\documents and settings\test\mes documents\source\virtuos_v17\build\program\_aiinterface\aiinterface.h
;	COMDAT ?GetMover@CAIInterface@@IAEPAVCMover@@XZ
_TEXT	SEGMENT
?GetMover@CAIInterface@@IAEPAVCMover@@XZ PROC NEAR	; CAIInterface::GetMover, COMDAT
; _this$ = ecx

; 127  : 	CMover* GetMover() { return (CMover*)m_pObj; }

  00000	8b 41 30	 mov	 eax, DWORD PTR [ecx+48]
  00003	c3		 ret	 0
?GetMover@CAIInterface@@IAEPAVCMover@@XZ ENDP		; CAIInterface::GetMover
_TEXT	ENDS
PUBLIC	?GetWorld@CAIInterface@@IAEPAVCWorld@@XZ	; CAIInterface::GetWorld
; Function compile flags: /Ogty
;	COMDAT ?GetWorld@CAIInterface@@IAEPAVCWorld@@XZ
_TEXT	SEGMENT
?GetWorld@CAIInterface@@IAEPAVCWorld@@XZ PROC NEAR	; CAIInterface::GetWorld, COMDAT
; _this$ = ecx

; 128  : 	CWorld* GetWorld() { return m_pObj->GetWorld(); }

  00000	8b 41 30	 mov	 eax, DWORD PTR [ecx+48]
  00003	8b 80 6c 01 00
	00		 mov	 eax, DWORD PTR [eax+364]
  00009	c3		 ret	 0
?GetWorld@CAIInterface@@IAEPAVCWorld@@XZ ENDP		; CAIInterface::GetWorld
_TEXT	ENDS
PUBLIC	?GetPropA@CMover@@QAEPAUMoverProp@@XZ		; CMover::GetPropA
EXTRN	?prj@@3VCProject@@A:BYTE			; prj
; Function compile flags: /Ogty
; File c:\documents and settings\test\mes documents\source\virtuos_v17\build\program\_common\mover.h
;	COMDAT ?GetPropA@CMover@@QAEPAUMoverProp@@XZ
_TEXT	SEGMENT
?GetPropA@CMover@@QAEPAUMoverProp@@XZ PROC NEAR		; CMover::GetPropA, COMDAT
; _this$ = ecx

; 1046 : 	MoverProp*		GetProp() { return prj.GetMoverProp( m_dwIndex ); }	//    	

  00000	8b 81 74 01 00
	00		 mov	 eax, DWORD PTR [ecx+372]
  00006	85 c0		 test	 eax, eax
  00008	8b 0d d0 01 00
	00		 mov	 ecx, DWORD PTR ?prj@@3VCProject@@A+464
  0000e	7c 13		 jl	 SHORT $L264548
  00010	3b c1		 cmp	 eax, ecx
  00012	7d 0f		 jge	 SHORT $L264548
  00014	8b 0d d4 01 00
	00		 mov	 ecx, DWORD PTR ?prj@@3VCProject@@A+468
  0001a	69 c0 d8 06 00
	00		 imul	 eax, 1752		; 000006d8H
  00020	03 c1		 add	 eax, ecx
  00022	c3		 ret	 0
$L264548:
  00023	50		 push	 eax
  00024	51		 push	 ecx
  00025	6a 00		 push	 0
  00027	68 00 00 00 00	 push	 OFFSET FLAT:??_C@_0BJ@GKPOBPPI@GetMoverProp?5range_error?$AA@
  0002c	68 00 00 00 00	 push	 OFFSET FLAT:??_C@_0BM@HMFGHCP@?$CFs?5min?3?$CFd?0?5max?3?$CFd?0?5index?3?$CFd?$AA@
  00031	e8 00 00 00 00	 call	 ?Error@@YAPBDPBDZZ	; Error
  00036	83 c4 14	 add	 esp, 20			; 00000014H
  00039	33 c0		 xor	 eax, eax
  0003b	c3		 ret	 0
?GetPropA@CMover@@QAEPAUMoverProp@@XZ ENDP		; CMover::GetPropA
_TEXT	ENDS
PUBLIC	?GetDestId@CMover@@QAEKXZ			; CMover::GetDestId
; Function compile flags: /Ogty
;	COMDAT ?GetDestId@CMover@@QAEKXZ
_TEXT	SEGMENT
?GetDestId@CMover@@QAEKXZ PROC NEAR			; CMover::GetDestId, COMDAT
; _this$ = ecx

; 1049 : 	OBJID			GetDestId()			{ return m_idDest; }

  00000	8b 81 5c 02 00
	00		 mov	 eax, DWORD PTR [ecx+604]
  00006	c3		 ret	 0
?GetDestId@CMover@@QAEKXZ ENDP				; CMover::GetDestId
_TEXT	ENDS
PUBLIC	?ClearDestObj@CMover@@QAEXXZ			; CMover::ClearDestObj
; Function compile flags: /Ogty
;	COMDAT ?ClearDestObj@CMover@@QAEXXZ
_TEXT	SEGMENT
?ClearDestObj@CMover@@QAEXXZ PROC NEAR			; CMover::ClearDestObj, COMDAT
; _this$ = ecx

; 1056 : 	void			ClearDestObj()     	{ m_idDest = NULL_ID; m_fArrivalRange = 0.0f; }

  00000	c7 81 5c 02 00
	00 ff ff ff ff	 mov	 DWORD PTR [ecx+604], -1
  0000a	c7 81 58 02 00
	00 00 00 00 00	 mov	 DWORD PTR [ecx+600], 0
  00014	c3		 ret	 0
?ClearDestObj@CMover@@QAEXXZ ENDP			; CMover::ClearDestObj
_TEXT	ENDS
PUBLIC	?ClearDestPos@CMover@@QAEXXZ			; CMover::ClearDestPos
; Function compile flags: /Ogty
;	COMDAT ?ClearDestPos@CMover@@QAEXXZ
_TEXT	SEGMENT
$T264564 = -12						; size = 12
?ClearDestPos@CMover@@QAEXXZ PROC NEAR			; CMover::ClearDestPos, COMDAT
; _this$ = ecx

; 1057 : 	void			ClearDestPos()		{ m_vDestPos = D3DXVECTOR3( 0.0f, 0.0f, 0.0f ); }		

  00000	83 ec 0c	 sub	 esp, 12			; 0000000cH
  00003	c7 04 24 00 00
	00 00		 mov	 DWORD PTR $T264564[esp+12], 0
  0000a	8b 04 24	 mov	 eax, DWORD PTR $T264564[esp+12]
  0000d	81 c1 60 02 00
	00		 add	 ecx, 608		; 00000260H
  00013	89 01		 mov	 DWORD PTR [ecx], eax
  00015	c7 44 24 04 00
	00 00 00	 mov	 DWORD PTR $T264564[esp+16], 0
  0001d	8b 54 24 04	 mov	 edx, DWORD PTR $T264564[esp+16]
  00021	c7 44 24 08 00
	00 00 00	 mov	 DWORD PTR $T264564[esp+20], 0
  00029	8b 44 24 08	 mov	 eax, DWORD PTR $T264564[esp+20]
  0002d	89 51 04	 mov	 DWORD PTR [ecx+4], edx
  00030	89 41 08	 mov	 DWORD PTR [ecx+8], eax
  00033	83 c4 0c	 add	 esp, 12			; 0000000cH
  00036	c3		 ret	 0
?ClearDestPos@CMover@@QAEXXZ ENDP			; CMover::ClearDestPos
_TEXT	ENDS
PUBLIC	?ClearDest@CMover@@QAEXXZ			; CMover::ClearDest
; Function compile flags: /Ogty
;	COMDAT ?ClearDest@CMover@@QAEXXZ
_TEXT	SEGMENT
$T264582 = -12						; size = 12
?ClearDest@CMover@@QAEXXZ PROC NEAR			; CMover::ClearDest, COMDAT
; _this$ = ecx

; 1058 : 	void			ClearDest()			{ ClearDestObj(); ClearDestPos(); }

  00000	83 ec 0c	 sub	 esp, 12			; 0000000cH
  00003	c7 81 5c 02 00
	00 ff ff ff ff	 mov	 DWORD PTR [ecx+604], -1
  0000d	c7 81 58 02 00
	00 00 00 00 00	 mov	 DWORD PTR [ecx+600], 0
  00017	c7 04 24 00 00
	00 00		 mov	 DWORD PTR $T264582[esp+12], 0
  0001e	8b 04 24	 mov	 eax, DWORD PTR $T264582[esp+12]
  00021	81 c1 60 02 00
	00		 add	 ecx, 608		; 00000260H
  00027	89 01		 mov	 DWORD PTR [ecx], eax
  00029	c7 44 24 04 00
	00 00 00	 mov	 DWORD PTR $T264582[esp+16], 0
  00031	8b 54 24 04	 mov	 edx, DWORD PTR $T264582[esp+16]
  00035	c7 44 24 08 00
	00 00 00	 mov	 DWORD PTR $T264582[esp+20], 0
  0003d	8b 44 24 08	 mov	 eax, DWORD PTR $T264582[esp+20]
  00041	89 51 04	 mov	 DWORD PTR [ecx+4], edx
  00044	89 41 08	 mov	 DWORD PTR [ecx+8], eax
  00047	83 c4 0c	 add	 esp, 12			; 0000000cH
  0004a	c3		 ret	 0
?ClearDest@CMover@@QAEXXZ ENDP				; CMover::ClearDest
_TEXT	ENDS
PUBLIC	?IsEmptyDestObj@CMover@@QAEHXZ			; CMover::IsEmptyDestObj
; Function compile flags: /Ogty
;	COMDAT ?IsEmptyDestObj@CMover@@QAEHXZ
_TEXT	SEGMENT
?IsEmptyDestObj@CMover@@QAEHXZ PROC NEAR		; CMover::IsEmptyDestObj, COMDAT
; _this$ = ecx

; 1061 : 	BOOL			IsEmptyDestObj()	{ return m_idDest == NULL_ID; }

  00000	8b 91 5c 02 00
	00		 mov	 edx, DWORD PTR [ecx+604]
  00006	33 c0		 xor	 eax, eax
  00008	83 fa ff	 cmp	 edx, -1
  0000b	0f 94 c0	 sete	 al
  0000e	c3		 ret	 0
?IsEmptyDestObj@CMover@@QAEHXZ ENDP			; CMover::IsEmptyDestObj
_TEXT	ENDS
PUBLIC	?IsEmptyDestPos@CMover@@QAEHXZ			; CMover::IsEmptyDestPos
PUBLIC	__real@00000000
;	COMDAT __real@00000000
CONST	SEGMENT
__real@00000000 DD 000000000r			; 0
; Function compile flags: /Ogty
CONST	ENDS
;	COMDAT ?IsEmptyDestPos@CMover@@QAEHXZ
_TEXT	SEGMENT
?IsEmptyDestPos@CMover@@QAEHXZ PROC NEAR		; CMover::IsEmptyDestPos, COMDAT
; _this$ = ecx

; 1062 : 	BOOL			IsEmptyDestPos()	{ return m_vDestPos.x == 0.0f && m_vDestPos.z == 0.0f; }

  00000	d9 05 00 00 00
	00		 fld	 DWORD PTR __real@00000000
  00006	d9 81 60 02 00
	00		 fld	 DWORD PTR [ecx+608]
  0000c	da e9		 fucompp
  0000e	df e0		 fnstsw	 ax
  00010	f6 c4 44	 test	 ah, 68			; 00000044H
  00013	7a 1b		 jp	 SHORT $L264592
  00015	d9 05 00 00 00
	00		 fld	 DWORD PTR __real@00000000
  0001b	d9 81 68 02 00
	00		 fld	 DWORD PTR [ecx+616]
  00021	da e9		 fucompp
  00023	df e0		 fnstsw	 ax
  00025	f6 c4 44	 test	 ah, 68			; 00000044H
  00028	7a 06		 jp	 SHORT $L264592
  0002a	b8 01 00 00 00	 mov	 eax, 1
  0002f	c3		 ret	 0
$L264592:
  00030	33 c0		 xor	 eax, eax
  00032	c3		 ret	 0
?IsEmptyDestPos@CMover@@QAEHXZ ENDP			; CMover::IsEmptyDestPos
_TEXT	ENDS
PUBLIC	?IsEmptyDest@CMover@@QAEHXZ			; CMover::IsEmptyDest
; Function compile flags: /Ogty
;	COMDAT ?IsEmptyDest@CMover@@QAEHXZ
_TEXT	SEGMENT
?IsEmptyDest@CMover@@QAEHXZ PROC NEAR			; CMover::IsEmptyDest, COMDAT
; _this$ = ecx

; 1063 : 	BOOL			IsEmptyDest()		{ return IsEmptyDestPos() && IsEmptyDestObj(); }

  00000	d9 05 00 00 00
	00		 fld	 DWORD PTR __real@00000000
  00006	d9 81 60 02 00
	00		 fld	 DWORD PTR [ecx+608]
  0000c	da e9		 fucompp
  0000e	df e0		 fnstsw	 ax
  00010	f6 c4 44	 test	 ah, 68			; 00000044H
  00013	7a 24		 jp	 SHORT $L264597
  00015	d9 05 00 00 00
	00		 fld	 DWORD PTR __real@00000000
  0001b	d9 81 68 02 00
	00		 fld	 DWORD PTR [ecx+616]
  00021	da e9		 fucompp
  00023	df e0		 fnstsw	 ax
  00025	f6 c4 44	 test	 ah, 68			; 00000044H
  00028	7a 0f		 jp	 SHORT $L264597
  0002a	83 b9 5c 02 00
	00 ff		 cmp	 DWORD PTR [ecx+604], -1
  00031	75 06		 jne	 SHORT $L264597
  00033	b8 01 00 00 00	 mov	 eax, 1
  00038	c3		 ret	 0
$L264597:
  00039	33 c0		 xor	 eax, eax
  0003b	c3		 ret	 0
?IsEmptyDest@CMover@@QAEHXZ ENDP			; CMover::IsEmptyDest
_TEXT	ENDS
PUBLIC	?IsDie@CMover@@QAEHXZ				; CMover::IsDie
; Function compile flags: /Ogty
;	COMDAT ?IsDie@CMover@@QAEHXZ
_TEXT	SEGMENT
?IsDie@CMover@@QAEHXZ PROC NEAR				; CMover::IsDie, COMDAT
; _this$ = ecx

; 1276 : 	BOOL			IsDie() { return m_pActMover->IsDie() || m_nHitPoint == 0; }

  00000	8b 81 3c 02 00
	00		 mov	 eax, DWORD PTR [ecx+572]
  00006	f7 40 04 00 00
	00 08		 test	 DWORD PTR [eax+4], 134217728 ; 08000000H
  0000d	75 0d		 jne	 SHORT $L264613
  0000f	8b 81 00 06 00
	00		 mov	 eax, DWORD PTR [ecx+1536]
  00015	85 c0		 test	 eax, eax
  00017	74 03		 je	 SHORT $L264613
  00019	33 c0		 xor	 eax, eax
  0001b	c3		 ret	 0
$L264613:
  0001c	b8 01 00 00 00	 mov	 eax, 1
  00021	c3		 ret	 0
?IsDie@CMover@@QAEHXZ ENDP				; CMover::IsDie
_TEXT	ENDS
PUBLIC	?GetCount@CMover@@QAEHXZ			; CMover::GetCount
; Function compile flags: /Ogty
;	COMDAT ?GetCount@CMover@@QAEHXZ
_TEXT	SEGMENT
?GetCount@CMover@@QAEHXZ PROC NEAR			; CMover::GetCount, COMDAT
; _this$ = ecx

; 1278 : 	int				GetCount() { return m_nCount; }

  00000	8b 81 80 16 00
	00		 mov	 eax, DWORD PTR [ecx+5760]
  00006	c3		 ret	 0
?GetCount@CMover@@QAEHXZ ENDP				; CMover::GetCount
_TEXT	ENDS
PUBLIC	?IsFly@CMover@@QAEHXZ				; CMover::IsFly
; Function compile flags: /Ogty
;	COMDAT ?IsFly@CMover@@QAEHXZ
_TEXT	SEGMENT
?IsFly@CMover@@QAEHXZ PROC NEAR				; CMover::IsFly, COMDAT
; _this$ = ecx

; 1787 : #ifdef _DEBUG
; 1788 : 	if( IsNPC() )
; 1789 : 	{
; 1790 : 		Error( _T( "CMover::IsFly : NPC IsFly()  . IsFlyingNPC() ! %s" ), m_szName );
; 1791 : 		return FALSE;
; 1792 : 	}
; 1793 : #endif
; 1794 : 	return m_pActMover->IsFly();

  00000	8b 81 3c 02 00
	00		 mov	 eax, DWORD PTR [ecx+572]
  00006	8b 40 08	 mov	 eax, DWORD PTR [eax+8]
  00009	c1 e8 03	 shr	 eax, 3
  0000c	83 e0 01	 and	 eax, 1

; 1795 : }

  0000f	c3		 ret	 0
?IsFly@CMover@@QAEHXZ ENDP				; CMover::IsFly
_TEXT	ENDS
PUBLIC	?SendActMsg@CMover@@QAEHW4OBJMSG@@HHHH@Z	; CMover::SendActMsg
; Function compile flags: /Ogty
;	COMDAT ?SendActMsg@CMover@@QAEHW4OBJMSG@@HHHH@Z
_TEXT	SEGMENT
_dwMsg$ = 8						; size = 4
_nParam1$ = 12						; size = 4
_nParam2$ = 16						; size = 4
_nParam3$ = 20						; size = 4
_nParam4$ = 24						; size = 4
?SendActMsg@CMover@@QAEHW4OBJMSG@@HHHH@Z PROC NEAR	; CMover::SendActMsg, COMDAT
; _this$ = ecx

; 1820 : 	if( m_pActMover )	

  00000	8b 81 3c 02 00
	00		 mov	 eax, DWORD PTR [ecx+572]
  00006	85 c0		 test	 eax, eax
  00008	74 25		 je	 SHORT $L212505

; 1821 : 		return m_pActMover->SendActMsg( dwMsg, nParam1, nParam2, nParam3, nParam4 );	

  0000a	8b 54 24 14	 mov	 edx, DWORD PTR _nParam4$[esp-4]
  0000e	6a 00		 push	 0
  00010	52		 push	 edx
  00011	8b 54 24 18	 mov	 edx, DWORD PTR _nParam3$[esp+4]
  00015	52		 push	 edx
  00016	8b 54 24 18	 mov	 edx, DWORD PTR _nParam2$[esp+8]
  0001a	52		 push	 edx
  0001b	8b 54 24 18	 mov	 edx, DWORD PTR _nParam1$[esp+12]
  0001f	52		 push	 edx
  00020	8b 54 24 18	 mov	 edx, DWORD PTR _dwMsg$[esp+16]
  00024	8b c8		 mov	 ecx, eax
  00026	8b 01		 mov	 eax, DWORD PTR [ecx]
  00028	52		 push	 edx
  00029	ff 50 04	 call	 DWORD PTR [eax+4]

; 1824 : }

  0002c	c2 14 00	 ret	 20			; 00000014H
$L212505:

; 1822 : 	else
; 1823 : 		return 0;

  0002f	33 c0		 xor	 eax, eax

; 1824 : }

  00031	c2 14 00	 ret	 20			; 00000014H
?SendActMsg@CMover@@QAEHW4OBJMSG@@HHHH@Z ENDP		; CMover::SendActMsg
_TEXT	ENDS
PUBLIC	?GetSize@?$CFixedArray@UItemProp@@@@QAEHXZ	; CFixedArray<ItemProp>::GetSize
; Function compile flags: /Ogty
; File c:\documents and settings\test\mes documents\source\virtuos_v17\build\program\_common\data.h
;	COMDAT ?GetSize@?$CFixedArray@UItemProp@@@@QAEHXZ
_TEXT	SEGMENT
?GetSize@?$CFixedArray@UItemProp@@@@QAEHXZ PROC NEAR	; CFixedArray<ItemProp>::GetSize, COMDAT
; _this$ = ecx

; 221  : 	int  GetSize() { return m_nMaxIndex; }

  00000	8b 41 18	 mov	 eax, DWORD PTR [ecx+24]
  00003	c3		 ret	 0
?GetSize@?$CFixedArray@UItemProp@@@@QAEHXZ ENDP		; CFixedArray<ItemProp>::GetSize
_TEXT	ENDS
PUBLIC	?GetAt@?$CFixedArray@UItemProp@@@@QAEPAUItemProp@@K@Z ; CFixedArray<ItemProp>::GetAt
; Function compile flags: /Ogty
;	COMDAT ?GetAt@?$CFixedArray@UItemProp@@@@QAEPAUItemProp@@K@Z
_TEXT	SEGMENT
_dwIndex$ = 8						; size = 4
?GetAt@?$CFixedArray@UItemProp@@@@QAEPAUItemProp@@K@Z PROC NEAR ; CFixedArray<ItemProp>::GetAt, COMDAT
; _this$ = ecx

; 270  : 	if( dwIndex >= (DWORD)m_nMaxIndex )

  00000	8b 44 24 04	 mov	 eax, DWORD PTR _dwIndex$[esp-4]
  00004	3b 41 18	 cmp	 eax, DWORD PTR [ecx+24]
  00007	72 05		 jb	 SHORT $L224299

; 271  : 		return NULL;

  00009	33 c0		 xor	 eax, eax

; 273  : }

  0000b	c2 04 00	 ret	 4
$L224299:

; 272  : 	return (T*) m_apOffset[ dwIndex ];

  0000e	8b 49 08	 mov	 ecx, DWORD PTR [ecx+8]
  00011	8b 04 81	 mov	 eax, DWORD PTR [ecx+eax*4]

; 273  : }

  00014	c2 04 00	 ret	 4
?GetAt@?$CFixedArray@UItemProp@@@@QAEPAUItemProp@@K@Z ENDP ; CFixedArray<ItemProp>::GetAt
_TEXT	ENDS
PUBLIC	??0CAIPet@@QAE@XZ				; CAIPet::CAIPet
PUBLIC	??_7CAIPet@@6B@					; CAIPet::`vftable'
PUBLIC	??_GCAIPet@@UAEPAXI@Z				; CAIPet::`scalar deleting destructor'
PUBLIC	?IsReturnToBegin@CAIInterface@@UAEHXZ		; CAIInterface::IsReturnToBegin
EXTRN	??_ECAIPet@@UAEPAXI@Z:NEAR			; CAIPet::`vector deleting destructor'
EXTRN	??0CAIInterface@@QAE@XZ:NEAR			; CAIInterface::CAIInterface
EXTRN	?RouteMessage@CAIInterface@@UAEXXZ:NEAR		; CAIInterface::RouteMessage
EXTRN	?SendAIMsg@CAIInterface@@UAEXKKKK@Z:NEAR	; CAIInterface::SendAIMsg
EXTRN	?PostAIMsg@CAIInterface@@UAEXKKKK@Z:NEAR	; CAIInterface::PostAIMsg
EXTRN	?IsState@CAIInterface@@UAEHH@Z:NEAR		; CAIInterface::IsState
;	COMDAT ??_7CAIPet@@6B@
; File c:\documents and settings\test\mes documents\source\virtuos_v17\build\program\_aiinterface\aipet.cpp
CONST	SEGMENT
??_7CAIPet@@6B@ DD FLAT:?GetStateMap@CAIPet@@UBEPBUSTATEMAP@@XZ ; CAIPet::`vftable'
	DD	FLAT:??_ECAIPet@@UAEPAXI@Z
	DD	FLAT:?RouteMessage@CAIInterface@@UAEXXZ
	DD	FLAT:?SendAIMsg@CAIInterface@@UAEXKKKK@Z
	DD	FLAT:?PostAIMsg@CAIInterface@@UAEXKKKK@Z
	DD	FLAT:?InitAI@CAIPet@@UAEXXZ
	DD	FLAT:?IsReturnToBegin@CAIInterface@@UAEHXZ
	DD	FLAT:?IsState@CAIInterface@@UAEHH@Z
; Function compile flags: /Ogty
CONST	ENDS
;	COMDAT ??0CAIPet@@QAE@XZ
_TEXT	SEGMENT
??0CAIPet@@QAE@XZ PROC NEAR				; CAIPet::CAIPet, COMDAT
; _this$ = ecx

; 47   : {

  00000	56		 push	 esi
  00001	8b f1		 mov	 esi, ecx
  00003	e8 00 00 00 00	 call	 ??0CAIInterface@@QAE@XZ	; CAIInterface::CAIInterface

; 48   : 	Init();

  00008	83 c8 ff	 or	 eax, -1
  0000b	33 c9		 xor	 ecx, ecx
  0000d	89 46 38	 mov	 DWORD PTR [esi+56], eax
  00010	89 46 40	 mov	 DWORD PTR [esi+64], eax
  00013	89 46 48	 mov	 DWORD PTR [esi+72], eax
  00016	89 46 4c	 mov	 DWORD PTR [esi+76], eax
  00019	c7 06 00 00 00
	00		 mov	 DWORD PTR [esi], OFFSET FLAT:??_7CAIPet@@6B@
  0001f	89 4e 3c	 mov	 DWORD PTR [esi+60], ecx
  00022	89 4e 44	 mov	 DWORD PTR [esi+68], ecx

; 49   : }

  00025	8b c6		 mov	 eax, esi
  00027	5e		 pop	 esi
  00028	c3		 ret	 0
??0CAIPet@@QAE@XZ ENDP					; CAIPet::CAIPet
; Function compile flags: /Ogty
; File c:\documents and settings\test\mes documents\source\virtuos_v17\build\program\_aiinterface\aiinterface.h
_TEXT	ENDS
;	COMDAT ?IsReturnToBegin@CAIInterface@@UAEHXZ
_TEXT	SEGMENT
?IsReturnToBegin@CAIInterface@@UAEHXZ PROC NEAR		; CAIInterface::IsReturnToBegin, COMDAT
; _this$ = ecx

; 121  : 	virtual		BOOL	IsReturnToBegin( void )		{	return FALSE;	}

  00000	33 c0		 xor	 eax, eax
  00002	c3		 ret	 0
?IsReturnToBegin@CAIInterface@@UAEHXZ ENDP		; CAIInterface::IsReturnToBegin
_TEXT	ENDS
PUBLIC	??0CAIPet@@QAE@PAVCObj@@@Z			; CAIPet::CAIPet
EXTRN	??0CAIInterface@@QAE@PAVCObj@@@Z:NEAR		; CAIInterface::CAIInterface
; Function compile flags: /Ogty
; File c:\documents and settings\test\mes documents\source\virtuos_v17\build\program\_aiinterface\aipet.cpp
;	COMDAT ??0CAIPet@@QAE@PAVCObj@@@Z
_TEXT	SEGMENT
_pObj$ = 8						; size = 4
??0CAIPet@@QAE@PAVCObj@@@Z PROC NEAR			; CAIPet::CAIPet, COMDAT
; _this$ = ecx

; 51   : {

  00000	8b 44 24 04	 mov	 eax, DWORD PTR _pObj$[esp-4]
  00004	56		 push	 esi
  00005	50		 push	 eax
  00006	8b f1		 mov	 esi, ecx
  00008	e8 00 00 00 00	 call	 ??0CAIInterface@@QAE@PAVCObj@@@Z ; CAIInterface::CAIInterface

; 52   : 	Init();

  0000d	83 c8 ff	 or	 eax, -1
  00010	33 c9		 xor	 ecx, ecx
  00012	89 46 38	 mov	 DWORD PTR [esi+56], eax
  00015	89 46 40	 mov	 DWORD PTR [esi+64], eax
  00018	89 46 48	 mov	 DWORD PTR [esi+72], eax
  0001b	89 46 4c	 mov	 DWORD PTR [esi+76], eax
  0001e	c7 06 00 00 00
	00		 mov	 DWORD PTR [esi], OFFSET FLAT:??_7CAIPet@@6B@
  00024	89 4e 3c	 mov	 DWORD PTR [esi+60], ecx
  00027	89 4e 44	 mov	 DWORD PTR [esi+68], ecx

; 53   : }

  0002a	8b c6		 mov	 eax, esi
  0002c	5e		 pop	 esi
  0002d	c2 04 00	 ret	 4
??0CAIPet@@QAE@PAVCObj@@@Z ENDP				; CAIPet::CAIPet
_TEXT	ENDS
PUBLIC	??1CAIPet@@UAE@XZ				; CAIPet::~CAIPet
EXTRN	??1CAIInterface@@UAE@XZ:NEAR			; CAIInterface::~CAIInterface
; Function compile flags: /Ogty
;	COMDAT ??1CAIPet@@UAE@XZ
_TEXT	SEGMENT
??1CAIPet@@UAE@XZ PROC NEAR				; CAIPet::~CAIPet, COMDAT
; _this$ = ecx

; 57   : 	Destroy();

  00000	83 c8 ff	 or	 eax, -1
  00003	33 d2		 xor	 edx, edx
  00005	c7 01 00 00 00
	00		 mov	 DWORD PTR [ecx], OFFSET FLAT:??_7CAIPet@@6B@
  0000b	89 41 38	 mov	 DWORD PTR [ecx+56], eax
  0000e	89 51 3c	 mov	 DWORD PTR [ecx+60], edx
  00011	89 41 40	 mov	 DWORD PTR [ecx+64], eax
  00014	89 51 44	 mov	 DWORD PTR [ecx+68], edx
  00017	89 41 48	 mov	 DWORD PTR [ecx+72], eax
  0001a	89 41 4c	 mov	 DWORD PTR [ecx+76], eax

; 58   : }

  0001d	e9 00 00 00 00	 jmp	 ??1CAIInterface@@UAE@XZ	; CAIInterface::~CAIInterface
??1CAIPet@@UAE@XZ ENDP					; CAIPet::~CAIPet
_TEXT	ENDS
PUBLIC	?MoveToDst@CAIPet@@AAEXUD3DXVECTOR3@@@Z		; CAIPet::MoveToDst
EXTRN	?AddSetDestPos@CUserMng@@QAEXPAVCMover@@ABUD3DXVECTOR3@@E@Z:NEAR ; CUserMng::AddSetDestPos
EXTRN	?SetDestPos@CMover@@QAEXABUD3DXVECTOR3@@_NH@Z:NEAR ; CMover::SetDestPos
EXTRN	?g_UserMng@@3VCUserMng@@A:BYTE			; g_UserMng
; Function compile flags: /Ogty
;	COMDAT ?MoveToDst@CAIPet@@AAEXUD3DXVECTOR3@@@Z
_TEXT	SEGMENT
_vDst$ = 8						; size = 12
?MoveToDst@CAIPet@@AAEXUD3DXVECTOR3@@@Z PROC NEAR	; CAIPet::MoveToDst, COMDAT
; _this$ = ecx

; 87   : {

  00000	56		 push	 esi

; 88   : 	CMover* pMover = GetMover();

  00001	8b 71 30	 mov	 esi, DWORD PTR [ecx+48]

; 89   : 	CWorld* pWorld = GetWorld();
; 90   : 	pMover->SetDestPos( vDst );

  00004	6a 01		 push	 1
  00006	6a 01		 push	 1
  00008	8d 44 24 10	 lea	 eax, DWORD PTR _vDst$[esp+8]
  0000c	50		 push	 eax
  0000d	8b ce		 mov	 ecx, esi
  0000f	e8 00 00 00 00	 call	 ?SetDestPos@CMover@@QAEXABUD3DXVECTOR3@@_NH@Z ; CMover::SetDestPos

; 91   : 	pMover->m_nCorr		= -1;
; 92   : 	g_UserMng.AddSetDestPos( pMover, vDst, 1 );

  00014	6a 01		 push	 1
  00016	8d 4c 24 0c	 lea	 ecx, DWORD PTR _vDst$[esp+4]
  0001a	51		 push	 ecx
  0001b	56		 push	 esi
  0001c	b9 00 00 00 00	 mov	 ecx, OFFSET FLAT:?g_UserMng@@3VCUserMng@@A
  00021	c7 86 78 02 00
	00 ff ff ff ff	 mov	 DWORD PTR [esi+632], -1
  0002b	e8 00 00 00 00	 call	 ?AddSetDestPos@CUserMng@@QAEXPAVCMover@@ABUD3DXVECTOR3@@E@Z ; CUserMng::AddSetDestPos
  00030	5e		 pop	 esi

; 93   : 	
; 94   : }

  00031	c2 0c 00	 ret	 12			; 0000000cH
?MoveToDst@CAIPet@@AAEXUD3DXVECTOR3@@@Z ENDP		; CAIPet::MoveToDst
_TEXT	ENDS
PUBLIC	?MoveToDst@CAIPet@@AAEXK@Z			; CAIPet::MoveToDst
EXTRN	?SetDestObj@CMover@@QAEXKMH@Z:NEAR		; CMover::SetDestObj
EXTRN	?AddMoverSetDestObj@CUserMng@@QAEXPAVCMover@@KMH@Z:NEAR ; CUserMng::AddMoverSetDestObj
; Function compile flags: /Ogty
;	COMDAT ?MoveToDst@CAIPet@@AAEXK@Z
_TEXT	SEGMENT
_idTarget$ = 8						; size = 4
?MoveToDst@CAIPet@@AAEXK@Z PROC NEAR			; CAIPet::MoveToDst, COMDAT
; _this$ = ecx

; 98   : {

  00000	56		 push	 esi

; 99   : 	CMover* pMover = GetMover();

  00001	8b 71 30	 mov	 esi, DWORD PTR [ecx+48]

; 100  : 	if( pMover->GetDestId() == idTarget )

  00004	8b 86 5c 02 00
	00		 mov	 eax, DWORD PTR [esi+604]
  0000a	57		 push	 edi
  0000b	8b 7c 24 0c	 mov	 edi, DWORD PTR _idTarget$[esp+4]
  0000f	3b c7		 cmp	 eax, edi
  00011	74 1c		 je	 SHORT $L259044

; 101  : 		return;
; 102  : 	pMover->SetDestObj( idTarget ); //  .

  00013	6a 00		 push	 0
  00015	6a 00		 push	 0
  00017	57		 push	 edi
  00018	8b ce		 mov	 ecx, esi
  0001a	e8 00 00 00 00	 call	 ?SetDestObj@CMover@@QAEXKMH@Z ; CMover::SetDestObj

; 103  : 	g_UserMng.AddMoverSetDestObj( (CMover*)pMover, idTarget );

  0001f	6a 00		 push	 0
  00021	6a 00		 push	 0
  00023	57		 push	 edi
  00024	56		 push	 esi
  00025	b9 00 00 00 00	 mov	 ecx, OFFSET FLAT:?g_UserMng@@3VCUserMng@@A
  0002a	e8 00 00 00 00	 call	 ?AddMoverSetDestObj@CUserMng@@QAEXPAVCMover@@KMH@Z ; CUserMng::AddMoverSetDestObj
$L259044:
  0002f	5f		 pop	 edi
  00030	5e		 pop	 esi

; 104  : }

  00031	c2 04 00	 ret	 4
?MoveToDst@CAIPet@@AAEXK@Z ENDP				; CAIPet::MoveToDst
_TEXT	ENDS
PUBLIC	?MoveProcessRage@CAIPet@@AAEHABUAIMSG@@@Z	; CAIPet::MoveProcessRage
; Function compile flags: /Ogty
;	COMDAT ?MoveProcessRage@CAIPet@@AAEHABUAIMSG@@@Z
_TEXT	SEGMENT
_msg$ = 8						; size = 4
?MoveProcessRage@CAIPet@@AAEHABUAIMSG@@@Z PROC NEAR	; CAIPet::MoveProcessRage, COMDAT
; _this$ = ecx

; 441  : {

  00000	56		 push	 esi

; 442  : 	CMover* pMover = GetMover();

  00001	8b 71 30	 mov	 esi, DWORD PTR [ecx+48]

; 443  : 	CWorld* pWorld = GetWorld();
; 444  : 	MoverProp *pProp = pMover->GetProp();

  00004	8b 86 74 01 00
	00		 mov	 eax, DWORD PTR [esi+372]
  0000a	85 c0		 test	 eax, eax
  0000c	8b 0d d0 01 00
	00		 mov	 ecx, DWORD PTR ?prj@@3VCProject@@A+464
  00012	7c 04		 jl	 SHORT $L264731
  00014	3b c1		 cmp	 eax, ecx
  00016	7c 16		 jl	 SHORT $L264726
$L264731:
  00018	50		 push	 eax
  00019	51		 push	 ecx
  0001a	6a 00		 push	 0
  0001c	68 00 00 00 00	 push	 OFFSET FLAT:??_C@_0BJ@GKPOBPPI@GetMoverProp?5range_error?$AA@
  00021	68 00 00 00 00	 push	 OFFSET FLAT:??_C@_0BM@HMFGHCP@?$CFs?5min?3?$CFd?0?5max?3?$CFd?0?5index?3?$CFd?$AA@
  00026	e8 00 00 00 00	 call	 ?Error@@YAPBDPBDZZ	; Error
  0002b	83 c4 14	 add	 esp, 20			; 00000014H
$L264726:

; 445  : 	
; 446  : 	//         
; 447  : 	if( pMover->IsDie() || (pMover->m_pActMover->GetState() & OBJSTA_DMG_FLY_ALL) )

  0002e	8b 86 3c 02 00
	00		 mov	 eax, DWORD PTR [esi+572]
  00034	8b 40 04	 mov	 eax, DWORD PTR [eax+4]
  00037	a9 00 00 00 08	 test	 eax, 134217728		; 08000000H
  0003c	75 1a		 jne	 SHORT $L259300
  0003e	8b 8e 00 06 00
	00		 mov	 ecx, DWORD PTR [esi+1536]
  00044	85 c9		 test	 ecx, ecx
  00046	74 10		 je	 SHORT $L259300
  00048	a9 00 00 00 02	 test	 eax, 33554432		; 02000000H
  0004d	75 09		 jne	 SHORT $L259300

; 449  : 
; 450  : 	return TRUE;

  0004f	b8 01 00 00 00	 mov	 eax, 1
  00054	5e		 pop	 esi

; 451  : }

  00055	c2 04 00	 ret	 4
$L259300:

; 448  : 		return FALSE;

  00058	33 c0		 xor	 eax, eax
  0005a	5e		 pop	 esi

; 451  : }

  0005b	c2 04 00	 ret	 4
?MoveProcessRage@CAIPet@@AAEHABUAIMSG@@@Z ENDP		; CAIPet::MoveProcessRage
_TEXT	ENDS
PUBLIC	?StateRage@CAIPet@@QAEHABUAIMSG@@@Z		; CAIPet::StateRage
; Function compile flags: /Ogty
;	COMDAT ?StateRage@CAIPet@@QAEHABUAIMSG@@@Z
_TEXT	SEGMENT
_msg$ = 8						; size = 4
?StateRage@CAIPet@@QAEHABUAIMSG@@@Z PROC NEAR		; CAIPet::StateRage, COMDAT
; _this$ = ecx

; 455  : 	CMover* pMover = GetMover();

  00000	8b 41 30	 mov	 eax, DWORD PTR [ecx+48]

; 456  : 	CWorld* pWorld = GetWorld();
; 457  : 	if( IsInvalidObj(pMover) )	return FALSE;

  00003	85 c0		 test	 eax, eax
  00005	74 06		 je	 SHORT $L264785
  00007	f6 40 04 01	 test	 BYTE PTR [eax+4], 1
  0000b	74 05		 je	 SHORT $L259307
$L264785:
  0000d	33 c0		 xor	 eax, eax

; 491  : //		SendAIMsg( AIMSG_SETPROCESS, FALSE );
; 492  : 
; 493  : 	EndAIHandler( )
; 494  : 	
; 495  : 	return TRUE;
; 496  : }

  0000f	c2 04 00	 ret	 4
$L259307:

; 458  : 
; 459  : 	BeginAIHandler( )
; 460  : 
; 461  : 	///////////////////////////////////////////////////////////////////////////////////////////////////
; 462  : 	OnMessage( AIMSG_INIT ) 

  00012	8b 54 24 04	 mov	 edx, DWORD PTR _msg$[esp-4]
  00016	8b 02		 mov	 eax, DWORD PTR [edx]
  00018	83 f8 01	 cmp	 eax, 1

; 463  : 
; 464  : 	///////////////////////////////////////////////////////////////////////////////////////////////////
; 465  : 	OnMessage( AIMSG_INIT_TARGETCLEAR )		//    .

  0001b	74 39		 je	 SHORT $L259326
  0001d	83 f8 11	 cmp	 eax, 17			; 00000011H

; 466  : 		
; 467  : 	///////////////////////////////////////////////////////////////////////////////////////////////////
; 468  : 	OnMessage( AIMSG_PROCESS ) 

  00020	74 34		 je	 SHORT $L259326
  00022	83 f8 02	 cmp	 eax, 2
  00025	75 0e		 jne	 SHORT $L259314

; 469  : 		MoveProcessRage( msg );

  00027	52		 push	 edx
  00028	e8 00 00 00 00	 call	 ?MoveProcessRage@CAIPet@@AAEHABUAIMSG@@@Z ; CAIPet::MoveProcessRage

; 482  : 
; 483  : 	///////////////////////////////////////////////////////////////////////////////////////////////////
; 484  : 	OnMessage( AIMSG_BEGINMOVE )
; 485  : 
; 486  : 	///////////////////////////////////////////////////////////////////////////////////////////////////
; 487  : 	OnMessage( AIMSG_ARRIVAL )
; 488  : 
; 489  : 	///////////////////////////////////////////////////////////////////////////////////////////////////
; 490  : 	OnMessage( AIMSG_EXIT )	

  0002d	b8 01 00 00 00	 mov	 eax, 1

; 491  : //		SendAIMsg( AIMSG_SETPROCESS, FALSE );
; 492  : 
; 493  : 	EndAIHandler( )
; 494  : 	
; 495  : 	return TRUE;
; 496  : }

  00032	c2 04 00	 ret	 4
$L259314:

; 470  : 		
; 471  : 	///////////////////////////////////////////////////////////////////////////////////////////////////
; 472  : 	OnMessage( AIMSG_DAMAGE ) 

  00035	83 f8 08	 cmp	 eax, 8

; 473  : 
; 474  : 	///////////////////////////////////////////////////////////////////////////////////////////////////
; 475  : 	OnMessage( AIMSG_COLLISION )

  00038	74 1c		 je	 SHORT $L259326
  0003a	83 f8 0a	 cmp	 eax, 10			; 0000000aH

; 476  : 	///////////////////////////////////////////////////////////////////////////////////////////////////
; 477  : 	OnMessage( AIMSG_DIE ) 

  0003d	74 17		 je	 SHORT $L259326
  0003f	83 f8 09	 cmp	 eax, 9

; 478  : 	
; 479  : 	///////////////////////////////////////////////////////////////////////////////////////////////////
; 480  : 	OnMessage( AIMSG_DSTDIE ) 

  00042	74 12		 je	 SHORT $L259326
  00044	83 f8 07	 cmp	 eax, 7
  00047	75 0d		 jne	 SHORT $L259326

; 481  : 		SendAIMsg( AIMSG_SETSTATE, STATE_IDLE );

  00049	8b 01		 mov	 eax, DWORD PTR [ecx]
  0004b	6a 00		 push	 0
  0004d	6a 00		 push	 0
  0004f	6a 02		 push	 2
  00051	6a 04		 push	 4
  00053	ff 50 0c	 call	 DWORD PTR [eax+12]
$L259326:

; 482  : 
; 483  : 	///////////////////////////////////////////////////////////////////////////////////////////////////
; 484  : 	OnMessage( AIMSG_BEGINMOVE )
; 485  : 
; 486  : 	///////////////////////////////////////////////////////////////////////////////////////////////////
; 487  : 	OnMessage( AIMSG_ARRIVAL )
; 488  : 
; 489  : 	///////////////////////////////////////////////////////////////////////////////////////////////////
; 490  : 	OnMessage( AIMSG_EXIT )	

  00056	b8 01 00 00 00	 mov	 eax, 1

; 491  : //		SendAIMsg( AIMSG_SETPROCESS, FALSE );
; 492  : 
; 493  : 	EndAIHandler( )
; 494  : 	
; 495  : 	return TRUE;
; 496  : }

  0005b	c2 04 00	 ret	 4
?StateRage@CAIPet@@QAEHABUAIMSG@@@Z ENDP		; CAIPet::StateRage
_TEXT	ENDS
PUBLIC	?NotOwnedPetInactivated@CAIPet@@AAEHXZ		; CAIPet::NotOwnedPetInactivated
EXTRN	?Delete@CObj@@QAEXXZ:NEAR			; CObj::Delete
EXTRN	?InactivateEatPet@CMover@@QAEXXZ:NEAR		; CMover::InactivateEatPet
EXTRN	?GetMover@CProject@@QAEPAVCMover@@K@Z:NEAR	; CProject::GetMover
EXTRN	?IsValidArea@CMover@@QAEHPAV1@M@Z:NEAR		; CMover::IsValidArea
; Function compile flags: /Ogty
;	COMDAT ?NotOwnedPetInactivated@CAIPet@@AAEHXZ
_TEXT	SEGMENT
?NotOwnedPetInactivated@CAIPet@@AAEHXZ PROC NEAR	; CAIPet::NotOwnedPetInactivated, COMDAT
; _this$ = ecx

; 500  : 	CMover *pEatPet		= GetMover();
; 501  : 	CMover *pOwner	= prj.GetMover( m_idOwner ); 

  00000	8b 41 38	 mov	 eax, DWORD PTR [ecx+56]
  00003	56		 push	 esi
  00004	57		 push	 edi
  00005	8b 79 30	 mov	 edi, DWORD PTR [ecx+48]
  00008	50		 push	 eax
  00009	b9 00 00 00 00	 mov	 ecx, OFFSET FLAT:?prj@@3VCProject@@A
  0000e	e8 00 00 00 00	 call	 ?GetMover@CProject@@QAEPAVCMover@@K@Z ; CProject::GetMover
  00013	8b f0		 mov	 esi, eax

; 502  : 
; 503  : 	if( IsInvalidObj( pOwner ) )

  00015	85 f6		 test	 esi, esi
  00017	74 06		 je	 SHORT $L264813
  00019	f6 46 04 01	 test	 BYTE PTR [esi+4], 1
  0001d	74 0f		 je	 SHORT $L259335
$L264813:

; 504  : 	{
; 505  : 		pEatPet->Delete();

  0001f	8b cf		 mov	 ecx, edi
  00021	e8 00 00 00 00	 call	 ?Delete@CObj@@QAEXXZ	; CObj::Delete
  00026	5f		 pop	 edi

; 506  : 		return TRUE;

  00027	b8 01 00 00 00	 mov	 eax, 1
  0002c	5e		 pop	 esi

; 529  : }

  0002d	c3		 ret	 0
$L259335:

; 507  : 	}
; 508  : /*#if __VER < 15 // __REACTIVATE_EATPET
; 509  : 	if( pOwner->IsDie() 
; 510  : 		|| !pOwner->IsValidArea( pEatPet, 32 )
; 511  : 	)
; 512  : 	{
; 513  : 		pOwner->InactivateEatPet();
; 514  : 		return TRUE;
; 515  : 	}
; 516  : #else // __REACTIVATE_EATPET*/
; 517  :     if( pOwner->IsDie() )

  0002e	8b 8e 3c 02 00
	00		 mov	 ecx, DWORD PTR [esi+572]
  00034	f7 41 04 00 00
	00 08		 test	 DWORD PTR [ecx+4], 134217728 ; 08000000H
  0003b	75 1b		 jne	 SHORT $L264825
  0003d	8b 86 00 06 00
	00		 mov	 eax, DWORD PTR [esi+1536]
  00043	85 c0		 test	 eax, eax

; 518  :     {
; 519  :         pOwner->InactivateEatPet();
; 520  :         return TRUE;

  00045	74 11		 je	 SHORT $L264825

; 521  :     }
; 522  :     else if( !pOwner->IsValidArea( pEatPet, 32 ) )

  00047	68 00 00 00 42	 push	 1107296256		; 42000000H
  0004c	57		 push	 edi
  0004d	8b ce		 mov	 ecx, esi
  0004f	e8 00 00 00 00	 call	 ?IsValidArea@CMover@@QAEHPAV1@M@Z ; CMover::IsValidArea
  00054	85 c0		 test	 eax, eax
  00056	75 0f		 jne	 SHORT $L259338

; 507  : 	}
; 508  : /*#if __VER < 15 // __REACTIVATE_EATPET
; 509  : 	if( pOwner->IsDie() 
; 510  : 		|| !pOwner->IsValidArea( pEatPet, 32 )
; 511  : 	)
; 512  : 	{
; 513  : 		pOwner->InactivateEatPet();
; 514  : 		return TRUE;
; 515  : 	}
; 516  : #else // __REACTIVATE_EATPET*/
; 517  :     if( pOwner->IsDie() )

$L264825:

; 523  :     {
; 524  :         pOwner->InactivateEatPet();

  00058	8b ce		 mov	 ecx, esi
  0005a	e8 00 00 00 00	 call	 ?InactivateEatPet@CMover@@QAEXXZ ; CMover::InactivateEatPet
  0005f	5f		 pop	 edi

; 525  :         return TRUE;

  00060	b8 01 00 00 00	 mov	 eax, 1
  00065	5e		 pop	 esi

; 529  : }

  00066	c3		 ret	 0
$L259338:
  00067	5f		 pop	 edi

; 526  :     }
; 527  : //#endif // __REACTIVATE_EATPET
; 528  : 	return FALSE;

  00068	33 c0		 xor	 eax, eax
  0006a	5e		 pop	 esi

; 529  : }

  0006b	c3		 ret	 0
?NotOwnedPetInactivated@CAIPet@@AAEHXZ ENDP		; CAIPet::NotOwnedPetInactivated
_TEXT	ENDS
PUBLIC	??_C@_0BI@BEIFNGEL@GetItemProp?5range_error?$AA@ ; `string'
PUBLIC	?GetItemProp@CProject@@QAEPAUItemProp@@H@Z	; CProject::GetItemProp
;	COMDAT ??_C@_0BI@BEIFNGEL@GetItemProp?5range_error?$AA@
; File c:\documents and settings\test\mes documents\source\virtuos_v17\build\program\_common\data.h
CONST	SEGMENT
??_C@_0BI@BEIFNGEL@GetItemProp?5range_error?$AA@ DB 'GetItemProp range_er'
	DB	'ror', 00H					; `string'
; Function compile flags: /Ogty
; File c:\documents and settings\test\mes documents\source\virtuos_v17\build\program\_common\project.h
CONST	ENDS
;	COMDAT ?GetItemProp@CProject@@QAEPAUItemProp@@H@Z
_TEXT	SEGMENT
_nIndex$ = 8						; size = 4
?GetItemProp@CProject@@QAEPAUItemProp@@H@Z PROC NEAR	; CProject::GetItemProp, COMDAT
; _this$ = ecx

; 1364 : 	VERIFY_RANGE_ASSERT( nIndex, 0, m_aPropItem.GetSize(), "GetItemProp range_error", NULL );

  00000	8b 44 24 04	 mov	 eax, DWORD PTR _nIndex$[esp-4]
  00004	85 c0		 test	 eax, eax
  00006	7c 1a		 jl	 SHORT $L197914
  00008	8b 91 5c 02 00
	00		 mov	 edx, DWORD PTR [ecx+604]
  0000e	3b c2		 cmp	 eax, edx
  00010	7d 10		 jge	 SHORT $L197914

; 1365 : 	return m_aPropItem.GetAt( nIndex ); 

  00012	3b c2		 cmp	 eax, edx
  00014	73 28		 jae	 SHORT $L264855
  00016	8b 89 4c 02 00
	00		 mov	 ecx, DWORD PTR [ecx+588]
  0001c	8b 04 81	 mov	 eax, DWORD PTR [ecx+eax*4]

; 1366 : }

  0001f	c2 04 00	 ret	 4
$L197914:

; 1364 : 	VERIFY_RANGE_ASSERT( nIndex, 0, m_aPropItem.GetSize(), "GetItemProp range_error", NULL );

  00022	8b 91 5c 02 00
	00		 mov	 edx, DWORD PTR [ecx+604]
  00028	50		 push	 eax
  00029	52		 push	 edx
  0002a	6a 00		 push	 0
  0002c	68 00 00 00 00	 push	 OFFSET FLAT:??_C@_0BI@BEIFNGEL@GetItemProp?5range_error?$AA@
  00031	68 00 00 00 00	 push	 OFFSET FLAT:??_C@_0BM@HMFGHCP@?$CFs?5min?3?$CFd?0?5max?3?$CFd?0?5index?3?$CFd?$AA@
  00036	e8 00 00 00 00	 call	 ?Error@@YAPBDPBDZZ	; Error
  0003b	83 c4 14	 add	 esp, 20			; 00000014H
$L264855:
  0003e	33 c0		 xor	 eax, eax

; 1366 : }

  00040	c2 04 00	 ret	 4
?GetItemProp@CProject@@QAEPAUItemProp@@H@Z ENDP		; CProject::GetItemProp
_TEXT	ENDS
PUBLIC	?GetPropA@CItemElem@@QAEPAUItemProp@@XZ		; CItemElem::GetPropA
; Function compile flags: /Ogty
; File c:\documents and settings\test\mes documents\source\virtuos_v17\build\program\_common\item.h
;	COMDAT ?GetPropA@CItemElem@@QAEPAUItemProp@@XZ
_TEXT	SEGMENT
?GetPropA@CItemElem@@QAEPAUItemProp@@XZ PROC NEAR	; CItemElem::GetPropA, COMDAT
; _this$ = ecx

; 229  : 	ItemProp*	GetProp()	{	return prj.GetItemProp( m_dwItemId );	}

  00000	8b 41 0c	 mov	 eax, DWORD PTR [ecx+12]
  00003	85 c0		 test	 eax, eax
  00005	8b 0d 5c 02 00
	00		 mov	 ecx, DWORD PTR ?prj@@3VCProject@@A+604
  0000b	7c 10		 jl	 SHORT $L264886
  0000d	3b c1		 cmp	 eax, ecx
  0000f	7d 0c		 jge	 SHORT $L264886
  00011	73 20		 jae	 SHORT $L264902
  00013	8b 0d 4c 02 00
	00		 mov	 ecx, DWORD PTR ?prj@@3VCProject@@A+588
  00019	8b 04 81	 mov	 eax, DWORD PTR [ecx+eax*4]
  0001c	c3		 ret	 0
$L264886:
  0001d	50		 push	 eax
  0001e	51		 push	 ecx
  0001f	6a 00		 push	 0
  00021	68 00 00 00 00	 push	 OFFSET FLAT:??_C@_0BI@BEIFNGEL@GetItemProp?5range_error?$AA@
  00026	68 00 00 00 00	 push	 OFFSET FLAT:??_C@_0BM@HMFGHCP@?$CFs?5min?3?$CFd?0?5max?3?$CFd?0?5index?3?$CFd?$AA@
  0002b	e8 00 00 00 00	 call	 ?Error@@YAPBDPBDZZ	; Error
  00030	83 c4 14	 add	 esp, 20			; 00000014H
$L264902:
  00033	33 c0		 xor	 eax, eax
  00035	c3		 ret	 0
?GetPropA@CItemElem@@QAEPAUItemProp@@XZ ENDP		; CItemElem::GetPropA
_TEXT	ENDS
PUBLIC	?GetPropA@CItem@@QAEPAUItemProp@@XZ		; CItem::GetPropA
; Function compile flags: /Ogty
;	COMDAT ?GetPropA@CItem@@QAEPAUItemProp@@XZ
_TEXT	SEGMENT
?GetPropA@CItem@@QAEPAUItemProp@@XZ PROC NEAR		; CItem::GetPropA, COMDAT
; _this$ = ecx

; 991  : 	ItemProp* GetProp() { return prj.GetItemProp( GetIndex() ); }

  00000	8b 81 74 01 00
	00		 mov	 eax, DWORD PTR [ecx+372]
  00006	85 c0		 test	 eax, eax
  00008	8b 0d 5c 02 00
	00		 mov	 ecx, DWORD PTR ?prj@@3VCProject@@A+604
  0000e	7c 10		 jl	 SHORT $L264937
  00010	3b c1		 cmp	 eax, ecx
  00012	7d 0c		 jge	 SHORT $L264937
  00014	73 20		 jae	 SHORT $L264952
  00016	8b 0d 4c 02 00
	00		 mov	 ecx, DWORD PTR ?prj@@3VCProject@@A+588
  0001c	8b 04 81	 mov	 eax, DWORD PTR [ecx+eax*4]
  0001f	c3		 ret	 0
$L264937:
  00020	50		 push	 eax
  00021	51		 push	 ecx
  00022	6a 00		 push	 0
  00024	68 00 00 00 00	 push	 OFFSET FLAT:??_C@_0BI@BEIFNGEL@GetItemProp?5range_error?$AA@
  00029	68 00 00 00 00	 push	 OFFSET FLAT:??_C@_0BM@HMFGHCP@?$CFs?5min?3?$CFd?0?5max?3?$CFd?0?5index?3?$CFd?$AA@
  0002e	e8 00 00 00 00	 call	 ?Error@@YAPBDPBDZZ	; Error
  00033	83 c4 14	 add	 esp, 20			; 00000014H
$L264952:
  00036	33 c0		 xor	 eax, eax
  00038	c3		 ret	 0
?GetPropA@CItem@@QAEPAUItemProp@@XZ ENDP		; CItem::GetPropA
_TEXT	ENDS
EXTRN	??3@YAXPAX@Z:NEAR				; operator delete
; Function compile flags: /Ogty
;	COMDAT ??_GCAIPet@@UAEPAXI@Z
_TEXT	SEGMENT
___flags$ = 8						; size = 4
??_GCAIPet@@UAEPAXI@Z PROC NEAR				; CAIPet::`scalar deleting destructor', COMDAT
; _this$ = ecx
  00000	56		 push	 esi
  00001	8b f1		 mov	 esi, ecx
  00003	e8 00 00 00 00	 call	 ??1CAIPet@@UAE@XZ	; CAIPet::~CAIPet
  00008	f6 44 24 08 01	 test	 BYTE PTR ___flags$[esp], 1
  0000d	74 09		 je	 SHORT $L264956
  0000f	56		 push	 esi
  00010	e8 00 00 00 00	 call	 ??3@YAXPAX@Z		; operator delete
  00015	83 c4 04	 add	 esp, 4
$L264956:
  00018	8b c6		 mov	 eax, esi
  0001a	5e		 pop	 esi
  0001b	c2 04 00	 ret	 4
??_GCAIPet@@UAEPAXI@Z ENDP				; CAIPet::`scalar deleting destructor'
_TEXT	ENDS
PUBLIC	?SubItemLoot@CAIPet@@QAEHXZ			; CAIPet::SubItemLoot
PUBLIC	__real@44800000
PUBLIC	__real@3f800000
PUBLIC	__real@43610000
PUBLIC	__real@4b18967f
EXTRN	?IsLoot@CMover@@QAEHPAVCItem@@H@Z:NEAR		; CMover::IsLoot
EXTRN	?GetCtrl@CProject@@QAEPAVCCtrl@@K@Z:NEAR	; CProject::GetCtrl
EXTRN	?GetLinkWidth@CLayeredLinkMap@@QAEHKHH@Z:NEAR	; CLayeredLinkMap::GetLinkWidth
EXTRN	?GetObj@CLayeredLinkMap@@QAEPAPAVCObj@@KKH@Z:NEAR ; CLayeredLinkMap::GetObj
EXTRN	?GetMaxLinkLevel@CLayeredLinkMap@@QAEHKH@Z:NEAR	; CLayeredLinkMap::GetMaxLinkLevel
EXTRN	__ftol2:NEAR
;	COMDAT __real@44800000
; File c:\documents and settings\test\mes documents\source\virtuos_v17\build\program\_common\obj.h
CONST	SEGMENT
__real@44800000 DD 044800000r			; 1024
CONST	ENDS
;	COMDAT __real@3f800000
CONST	SEGMENT
__real@3f800000 DD 03f800000r			; 1
CONST	ENDS
;	COMDAT __real@43610000
CONST	SEGMENT
__real@43610000 DD 043610000r			; 225
CONST	ENDS
;	COMDAT __real@4b18967f
CONST	SEGMENT
__real@4b18967f DD 04b18967fr			; 1e+007
; Function compile flags: /Ogty
; File c:\documents and settings\test\mes documents\source\virtuos_v17\build\program\_aiinterface\aipet.cpp
CONST	ENDS
;	COMDAT ?SubItemLoot@CAIPet@@QAEHXZ
_TEXT	SEGMENT
_pMover$ = -124						; size = 4
__nLinkXMin$259077 = -120				; size = 4
__nLinkZMax$259080 = -116				; size = 4
__i$259085 = -112					; size = 4
__nMaxWidth$259074 = -108				; size = 4
__k$259101 = -104					; size = 4
__nLinkXMax$259079 = -100				; size = 4
__j$259097 = -96					; size = 4
__nX$259081 = -96					; size = 4
_pWorld$ = -92						; size = 4
_pMinObj$ = -88						; size = 4
_this$ = -84						; size = 4
__nLinkX$259069 = -80					; size = 4
tv2149 = -76						; size = 4
__nLinkZ$259071 = -72					; size = 4
tv2155 = -68						; size = 4
_pOwner$ = -64						; size = 4
tv2180 = -60						; size = 4
__pObjs$259089 = -56					; size = 4
___limit$259105 = -52					; size = 4
$T264960 = -48						; size = 12
_vDist$ = -48						; size = 12
$T264965 = -36						; size = 12
_vPos$ = -36						; size = 12
$T264964 = -24						; size = 12
$T264961 = -24						; size = 12
$T268137 = -12						; size = 12
$T264963 = -12						; size = 12
$T264962 = -12						; size = 12
?SubItemLoot@CAIPet@@QAEHXZ PROC NEAR			; CAIPet::SubItemLoot, COMDAT
; _this$ = ecx

; 109  : {

  00000	83 ec 7c	 sub	 esp, 124		; 0000007cH
  00003	53		 push	 ebx
  00004	55		 push	 ebp
  00005	56		 push	 esi
  00006	8b f1		 mov	 esi, ecx

; 110  : 	CMover* pMover = GetMover();
; 111  : 	CMover* pOwner = prj.GetMover( m_idOwner );

  00008	8b 46 38	 mov	 eax, DWORD PTR [esi+56]
  0000b	57		 push	 edi
  0000c	8b 7e 30	 mov	 edi, DWORD PTR [esi+48]
  0000f	50		 push	 eax
  00010	b9 00 00 00 00	 mov	 ecx, OFFSET FLAT:?prj@@3VCProject@@A
  00015	89 74 24 3c	 mov	 DWORD PTR _this$[esp+144], esi
  00019	89 7c 24 14	 mov	 DWORD PTR _pMover$[esp+144], edi
  0001d	e8 00 00 00 00	 call	 ?GetMover@CProject@@QAEPAVCMover@@K@Z ; CProject::GetMover

; 112  : 	CWorld* pWorld = GetWorld();

  00022	8b 4e 30	 mov	 ecx, DWORD PTR [esi+48]
  00025	8b b1 6c 01 00
	00		 mov	 esi, DWORD PTR [ecx+364]

; 113  : 	MoverProp *pProp = pMover->GetProp();

  0002b	8b 0d d0 01 00
	00		 mov	 ecx, DWORD PTR ?prj@@3VCProject@@A+464
  00031	8b d8		 mov	 ebx, eax
  00033	8b 87 74 01 00
	00		 mov	 eax, DWORD PTR [edi+372]
  00039	33 ed		 xor	 ebp, ebp
  0003b	3b c5		 cmp	 eax, ebp
  0003d	89 5c 24 4c	 mov	 DWORD PTR _pOwner$[esp+140], ebx
  00041	89 74 24 30	 mov	 DWORD PTR _pWorld$[esp+140], esi
  00045	7c 04		 jl	 SHORT $L265005
  00047	3b c1		 cmp	 eax, ecx
  00049	7c 15		 jl	 SHORT $L265000
$L265005:
  0004b	50		 push	 eax
  0004c	51		 push	 ecx
  0004d	55		 push	 ebp
  0004e	68 00 00 00 00	 push	 OFFSET FLAT:??_C@_0BJ@GKPOBPPI@GetMoverProp?5range_error?$AA@
  00053	68 00 00 00 00	 push	 OFFSET FLAT:??_C@_0BM@HMFGHCP@?$CFs?5min?3?$CFd?0?5max?3?$CFd?0?5index?3?$CFd?$AA@
  00058	e8 00 00 00 00	 call	 ?Error@@YAPBDPBDZZ	; Error
  0005d	83 c4 14	 add	 esp, 20			; 00000014H
$L265000:

; 114  : 	D3DXVECTOR3 vPos = pMover->GetPos();

  00060	8d 87 60 01 00
	00		 lea	 eax, DWORD PTR [edi+352]
  00066	8b d0		 mov	 edx, eax
  00068	8b 0a		 mov	 ecx, DWORD PTR [edx]
  0006a	89 4c 24 68	 mov	 DWORD PTR _vPos$[esp+140], ecx
  0006e	8b 4a 04	 mov	 ecx, DWORD PTR [edx+4]
  00071	8b 52 08	 mov	 edx, DWORD PTR [edx+8]
  00074	89 4c 24 6c	 mov	 DWORD PTR _vPos$[esp+144], ecx

; 115  : 	CObj *pObj = NULL;
; 116  : 	int nRange = 0;
; 117  : 	D3DXVECTOR3 vDist;
; 118  : 	FLOAT fDistSq, fMinDist = 9999999.0f;
; 119  : 	CObj *pMinObj = NULL;
; 120  : 
; 121  : 	vDist = pOwner->GetPos() - pMover->GetPos();

  00078	8b 08		 mov	 ecx, DWORD PTR [eax]
  0007a	89 4c 24 74	 mov	 DWORD PTR $T264961[esp+140], ecx
  0007e	89 54 24 70	 mov	 DWORD PTR _vPos$[esp+148], edx
  00082	8b 50 04	 mov	 edx, DWORD PTR [eax+4]
  00085	8b 40 08	 mov	 eax, DWORD PTR [eax+8]
  00088	89 54 24 78	 mov	 DWORD PTR $T264961[esp+144], edx
  0008c	8d 8b 60 01 00
	00		 lea	 ecx, DWORD PTR [ebx+352]
  00092	8b 11		 mov	 edx, DWORD PTR [ecx]
  00094	89 54 24 5c	 mov	 DWORD PTR $T264960[esp+140], edx
  00098	d9 44 24 5c	 fld	 DWORD PTR $T264960[esp+140]
  0009c	d8 64 24 74	 fsub	 DWORD PTR $T264961[esp+140]
  000a0	89 44 24 7c	 mov	 DWORD PTR $T264961[esp+148], eax
  000a4	8b 41 04	 mov	 eax, DWORD PTR [ecx+4]
  000a7	8b 49 08	 mov	 ecx, DWORD PTR [ecx+8]
  000aa	d9 9c 24 80 00
	00 00		 fstp	 DWORD PTR $T264962[esp+140]
  000b1	8b 94 24 80 00
	00 00		 mov	 edx, DWORD PTR $T264962[esp+140]
  000b8	89 44 24 60	 mov	 DWORD PTR $T264960[esp+144], eax
  000bc	d9 44 24 60	 fld	 DWORD PTR $T264960[esp+144]
  000c0	d8 64 24 78	 fsub	 DWORD PTR $T264961[esp+144]
  000c4	89 4c 24 64	 mov	 DWORD PTR $T264960[esp+148], ecx
  000c8	89 54 24 5c	 mov	 DWORD PTR _vDist$[esp+140], edx
  000cc	89 6c 24 34	 mov	 DWORD PTR _pMinObj$[esp+140], ebp
  000d0	d9 9c 24 84 00
	00 00		 fstp	 DWORD PTR $T264962[esp+144]
  000d7	8b 84 24 84 00
	00 00		 mov	 eax, DWORD PTR $T264962[esp+144]
  000de	d9 44 24 64	 fld	 DWORD PTR $T264960[esp+148]
  000e2	89 44 24 60	 mov	 DWORD PTR _vDist$[esp+144], eax
  000e6	d8 64 24 7c	 fsub	 DWORD PTR $T264961[esp+148]
  000ea	d9 9c 24 88 00
	00 00		 fstp	 DWORD PTR $T264962[esp+148]
  000f1	8b 8c 24 88 00
	00 00		 mov	 ecx, DWORD PTR $T264962[esp+148]
  000f8	89 4c 24 64	 mov	 DWORD PTR _vDist$[esp+148], ecx

; 122  : 	fDistSq = D3DXVec3LengthSq( &vDist );

  000fc	d9 44 24 64	 fld	 DWORD PTR _vDist$[esp+148]
  00100	d8 4c 24 64	 fmul	 DWORD PTR _vDist$[esp+148]
  00104	d9 44 24 60	 fld	 DWORD PTR _vDist$[esp+144]
  00108	d8 4c 24 60	 fmul	 DWORD PTR _vDist$[esp+144]

; 262  : 		}
; 263  : 	}
; 264  : 		
; 265  : 	return m_bLootMove;

  0010c	de c1		 faddp	 ST(1), ST(0)
  0010e	d9 44 24 5c	 fld	 DWORD PTR _vDist$[esp+140]
  00112	d8 4c 24 5c	 fmul	 DWORD PTR _vDist$[esp+140]
  00116	de c1		 faddp	 ST(1), ST(0)
  00118	d8 1d 00 00 00
	00		 fcomp	 DWORD PTR __real@44800000
  0011e	df e0		 fnstsw	 ax
  00120	f6 c4 41	 test	 ah, 65			; 00000041H
  00123	74 0c		 je	 SHORT $L268225
  00125	8b 93 3c 02 00
	00		 mov	 edx, DWORD PTR [ebx+572]
  0012b	f6 42 08 08	 test	 BYTE PTR [edx+8], 8
  0012f	74 0a		 je	 SHORT $L259068
$L268225:
  00131	5f		 pop	 edi
  00132	5e		 pop	 esi
  00133	5d		 pop	 ebp

; 123  : 	if( fDistSq > 32.0f * 32.0f )	//   32   .
; 124  : 		return FALSE;
; 125  : 
; 126  : 	if( pOwner && pOwner->IsFly() )
; 127  : 		return FALSE;

  00134	33 c0		 xor	 eax, eax
  00136	5b		 pop	 ebx

; 266  : }

  00137	83 c4 7c	 add	 esp, 124		; 0000007cH
  0013a	c3		 ret	 0
$L259068:

; 128  : 		
; 129  : 	//   . -  ...
; 130  : 	FOR_LINKMAP( pWorld, vPos, pObj, nRange, CObj::linkDynamic, pMover->GetLayer() )

  0013b	db 46 14	 fild	 DWORD PTR [esi+20]
  0013e	d8 3d 00 00 00
	00		 fdivr	 DWORD PTR __real@3f800000
  00144	d9 44 24 68	 fld	 DWORD PTR _vPos$[esp+140]
  00148	d8 c9		 fmul	 ST(0), ST(1)
  0014a	e8 00 00 00 00	 call	 __ftol2
  0014f	d8 4c 24 70	 fmul	 DWORD PTR _vPos$[esp+148]
  00153	89 44 24 3c	 mov	 DWORD PTR __nLinkX$259069[esp+140], eax
  00157	e8 00 00 00 00	 call	 __ftol2
  0015c	8b bf b8 01 00
	00		 mov	 edi, DWORD PTR [edi+440]
  00162	57		 push	 edi
  00163	8d 4e 24	 lea	 ecx, DWORD PTR [esi+36]
  00166	6a 01		 push	 1
  00168	89 44 24 4c	 mov	 DWORD PTR __nLinkZ$259071[esp+148], eax
  0016c	89 6c 24 24	 mov	 DWORD PTR __i$259085[esp+148], ebp
  00170	e8 00 00 00 00	 call	 ?GetMaxLinkLevel@CLayeredLinkMap@@QAEHKH@Z ; CLayeredLinkMap::GetMaxLinkLevel
  00175	85 c0		 test	 eax, eax
  00177	0f 8e 98 10 00
	00		 jle	 $L259210
  0017d	d9 44 24 68	 fld	 DWORD PTR _vPos$[esp+140]
  00181	e8 00 00 00 00	 call	 __ftol2
  00186	d9 44 24 70	 fld	 DWORD PTR _vPos$[esp+148]
  0018a	89 44 24 40	 mov	 DWORD PTR tv2149[esp+140], eax
  0018e	e8 00 00 00 00	 call	 __ftol2
  00193	89 44 24 48	 mov	 DWORD PTR tv2155[esp+140], eax
  00197	eb 07 8d a4 24
	00 00 00 00	 npad	 9
$L259086:
  001a0	8b 44 24 10	 mov	 eax, DWORD PTR _pMover$[esp+140]
  001a4	8b 80 b8 01 00
	00		 mov	 eax, DWORD PTR [eax+440]
  001aa	8b 6c 24 1c	 mov	 ebp, DWORD PTR __i$259085[esp+140]
  001ae	8b 7c 24 30	 mov	 edi, DWORD PTR _pWorld$[esp+140]
  001b2	50		 push	 eax
  001b3	55		 push	 ebp
  001b4	8d 5f 24	 lea	 ebx, DWORD PTR [edi+36]
  001b7	6a 01		 push	 1
  001b9	8b cb		 mov	 ecx, ebx
  001bb	e8 00 00 00 00	 call	 ?GetLinkWidth@CLayeredLinkMap@@QAEHKHH@Z ; CLayeredLinkMap::GetLinkWidth
  001c0	8b 4c 24 10	 mov	 ecx, DWORD PTR _pMover$[esp+140]
  001c4	8b f0		 mov	 esi, eax
  001c6	8b 81 b8 01 00
	00		 mov	 eax, DWORD PTR [ecx+440]
  001cc	50		 push	 eax
  001cd	55		 push	 ebp
  001ce	6a 01		 push	 1
  001d0	8b cb		 mov	 ecx, ebx
  001d2	e8 00 00 00 00	 call	 ?GetObj@CLayeredLinkMap@@QAEPAPAVCObj@@KKH@Z ; CLayeredLinkMap::GetObj
  001d7	89 44 24 54	 mov	 DWORD PTR __pObjs$259089[esp+140], eax
  001db	8b 47 04	 mov	 eax, DWORD PTR [edi+4]
  001de	8b c8		 mov	 ecx, eax
  001e0	0f af ce	 imul	 ecx, esi
  001e3	c1 e0 07	 shl	 eax, 7
  001e6	99		 cdq
  001e7	f7 f9		 idiv	 ecx
  001e9	8b 5f 08	 mov	 ebx, DWORD PTR [edi+8]
  001ec	8b 7f 14	 mov	 edi, DWORD PTR [edi+20]
  001ef	0f af de	 imul	 ebx, esi
  001f2	89 4c 24 20	 mov	 DWORD PTR __nMaxWidth$259074[esp+140], ecx
  001f6	8b c8		 mov	 ecx, eax
  001f8	8b c7		 mov	 eax, edi
  001fa	0f af c1	 imul	 eax, ecx
  001fd	99		 cdq
  001fe	2b c2		 sub	 eax, edx
  00200	8b f0		 mov	 esi, eax
  00202	8b 44 24 3c	 mov	 eax, DWORD PTR __nLinkX$259069[esp+140]
  00206	99		 cdq
  00207	f7 f9		 idiv	 ecx
  00209	d1 fe		 sar	 esi, 1
  0020b	8b e8		 mov	 ebp, eax
  0020d	8b 44 24 40	 mov	 eax, DWORD PTR tv2149[esp+140]

; 262  : 		}
; 263  : 	}
; 264  : 		
; 265  : 	return m_bLootMove;

  00211	8b d5		 mov	 edx, ebp
  00213	0f af d7	 imul	 edx, edi
  00216	0f af d1	 imul	 edx, ecx
  00219	2b c2		 sub	 eax, edx
  0021b	33 d2		 xor	 edx, edx
  0021d	3b c6		 cmp	 eax, esi
  0021f	8b 44 24 44	 mov	 eax, DWORD PTR __nLinkZ$259071[esp+140]
  00223	0f 9f c2	 setg	 dl
  00226	89 54 24 2c	 mov	 DWORD PTR __nX$259081[esp+140], edx
  0022a	99		 cdq
  0022b	f7 f9		 idiv	 ecx
  0022d	8b d0		 mov	 edx, eax
  0022f	0f af d7	 imul	 edx, edi
  00232	0f af d1	 imul	 edx, ecx
  00235	8b 4c 24 48	 mov	 ecx, DWORD PTR tv2155[esp+140]
  00239	2b ca		 sub	 ecx, edx
  0023b	33 d2		 xor	 edx, edx
  0023d	3b ce		 cmp	 ecx, esi
  0023f	0f 9f c2	 setg	 dl
  00242	8b ca		 mov	 ecx, edx
  00244	8b 54 24 2c	 mov	 edx, DWORD PTR __nX$259081[esp+140]
  00248	03 ea		 add	 ebp, edx
  0024a	8d 55 ff	 lea	 edx, DWORD PTR [ebp-1]
  0024d	85 d2		 test	 edx, edx
  0024f	89 54 24 14	 mov	 DWORD PTR __nLinkXMin$259077[esp+140], edx
  00253	7d 08		 jge	 SHORT $L268157

; 128  : 		
; 129  : 	//   . -  ...
; 130  : 	FOR_LINKMAP( pWorld, vPos, pObj, nRange, CObj::linkDynamic, pMover->GetLayer() )

  00255	c7 44 24 14 00
	00 00 00	 mov	 DWORD PTR __nLinkXMin$259077[esp+140], 0
$L268157:
  0025d	03 c8		 add	 ecx, eax
  0025f	8d 41 ff	 lea	 eax, DWORD PTR [ecx-1]
  00262	85 c0		 test	 eax, eax
  00264	7d 02		 jge	 SHORT $L259094
  00266	33 c0		 xor	 eax, eax
$L259094:
  00268	8b 54 24 20	 mov	 edx, DWORD PTR __nMaxWidth$259074[esp+140]
  0026c	8b f5		 mov	 esi, ebp
  0026e	3b f2		 cmp	 esi, edx
  00270	89 74 24 28	 mov	 DWORD PTR __nLinkXMax$259079[esp+140], esi
  00274	7c 07		 jl	 SHORT $L259095
  00276	8d 72 ff	 lea	 esi, DWORD PTR [edx-1]
  00279	89 74 24 28	 mov	 DWORD PTR __nLinkXMax$259079[esp+140], esi
$L259095:
  0027d	8b d1		 mov	 edx, ecx
  0027f	3b d3		 cmp	 edx, ebx
  00281	89 54 24 18	 mov	 DWORD PTR __nLinkZMax$259080[esp+140], edx
  00285	7c 07		 jl	 SHORT $L259096
  00287	4b		 dec	 ebx
  00288	89 5c 24 18	 mov	 DWORD PTR __nLinkZMax$259080[esp+140], ebx
  0028c	8b d3		 mov	 edx, ebx
$L259096:
  0028e	3b c2		 cmp	 eax, edx
  00290	8b c8		 mov	 ecx, eax
  00292	89 4c 24 2c	 mov	 DWORD PTR __j$259097[esp+140], ecx
  00296	0f 8f c2 0e 00
	00		 jg	 $L259087
  0029c	a1 5c 02 00 00	 mov	 eax, DWORD PTR ?prj@@3VCProject@@A+604
  002a1	8b 6c 24 4c	 mov	 ebp, DWORD PTR _pOwner$[esp+140]
  002a5	bf 00 00 01 00	 mov	 edi, 65536		; 00010000H
  002aa	8d 9b 00 00 00
	00		 npad	 6
$L259098:
  002b0	8b 54 24 14	 mov	 edx, DWORD PTR __nLinkXMin$259077[esp+140]
  002b4	8b da		 mov	 ebx, edx
  002b6	3b de		 cmp	 ebx, esi
  002b8	89 54 24 24	 mov	 DWORD PTR __k$259101[esp+140], edx
  002bc	0f 8f 8b 0e 00
	00		 jg	 $L259099
  002c2	0f af 4c 24 20	 imul	 ecx, DWORD PTR __nMaxWidth$259074[esp+140]
  002c7	89 4c 24 50	 mov	 DWORD PTR tv2180[esp+140], ecx
  002cb	eb 04		 jmp	 SHORT $L259102
$L268161:
  002cd	8b 4c 24 50	 mov	 ecx, DWORD PTR tv2180[esp+140]
$L259102:
  002d1	03 ca		 add	 ecx, edx
  002d3	8b 54 24 54	 mov	 edx, DWORD PTR __pObjs$259089[esp+140]
  002d7	8b 34 8a	 mov	 esi, DWORD PTR [edx+ecx*4]
  002da	85 f6		 test	 esi, esi
  002dc	b9 e8 03 00 00	 mov	 ecx, 1000		; 000003e8H
  002e1	0f 84 4d 0e 00
	00		 je	 $L259103
  002e7	eb 07		 jmp	 SHORT $L259107
$L268159:
  002e9	8b 4c 24 58	 mov	 ecx, DWORD PTR ___limit$259105[esp+140]
  002ed	8d 49 00	 npad	 3
$L259107:
  002f0	8b d1		 mov	 edx, ecx
  002f2	49		 dec	 ecx
  002f3	85 d2		 test	 edx, edx
  002f5	89 4c 24 58	 mov	 DWORD PTR ___limit$259105[esp+140], ecx
  002f9	0f 84 35 0e 00
	00		 je	 $L259103

; 131  : 	{
; 132  : 		if( pObj->GetType() == OT_ITEM )	//  

  002ff	83 be 70 01 00
	00 04		 cmp	 DWORD PTR [esi+368], 4
  00306	0f 85 1a 0e 00
	00		 jne	 $L259205

; 133  : 		{
; 134  : 			CItem *pItem = (CItem *)pObj;
; 135  : 			ItemProp* pItemProp	= pItem->GetProp();

  0030c	8b 8e 74 01 00
	00		 mov	 ecx, DWORD PTR [esi+372]
  00312	85 c9		 test	 ecx, ecx
  00314	7c 11		 jl	 SHORT $L265116
  00316	3b c8		 cmp	 ecx, eax
  00318	7d 0d		 jge	 SHORT $L265116
  0031a	73 26		 jae	 SHORT $L268226
  0031c	8b 15 4c 02 00
	00		 mov	 edx, DWORD PTR ?prj@@3VCProject@@A+588
  00322	8b 0c 8a	 mov	 ecx, DWORD PTR [edx+ecx*4]
  00325	eb 1d		 jmp	 SHORT $L265111
$L265116:
  00327	51		 push	 ecx
  00328	50		 push	 eax
  00329	6a 00		 push	 0
  0032b	68 00 00 00 00	 push	 OFFSET FLAT:??_C@_0BI@BEIFNGEL@GetItemProp?5range_error?$AA@
  00330	68 00 00 00 00	 push	 OFFSET FLAT:??_C@_0BM@HMFGHCP@?$CFs?5min?3?$CFd?0?5max?3?$CFd?0?5index?3?$CFd?$AA@
  00335	e8 00 00 00 00	 call	 ?Error@@YAPBDPBDZZ	; Error
  0033a	a1 5c 02 00 00	 mov	 eax, DWORD PTR ?prj@@3VCProject@@A+604
  0033f	83 c4 14	 add	 esp, 20			; 00000014H
$L268226:
  00342	33 c9		 xor	 ecx, ecx
$L265111:

; 136  : 			//    StateIdle ARRIVAL DoLoot()   SubItemLoot() 
; 137  : 			// Loot       ..      .
; 138  : //			if( pItem->GetId() != m_idLootItem )		
; 139  : 			if( pItem->IsDelete() == FALSE )

  00344	f6 46 04 01	 test	 BYTE PTR [esi+4], 1
  00348	0f 85 d8 0d 00
	00		 jne	 $L259205

; 140  : 			{
; 141  : 				if( pItemProp )

  0034e	85 c9		 test	 ecx, ecx
  00350	0f 84 d0 0d 00
	00		 je	 $L259205

; 142  : 				{
; 143  : #ifdef __PETFILTER
; 144  : 					BOOL b1 = TRUE;
; 145  : 						if( (((CUser*)pOwner)->m_dwPetfilter & FILTER_HPFOOD) && pItem->GetProp()->dwItemKind2 == IK2_FOOD )

  00356	8a 8d 30 57 00
	00		 mov	 cl, BYTE PTR [ebp+22320]
  0035c	bb 01 00 00 00	 mov	 ebx, 1
  00361	84 cb		 test	 cl, bl
  00363	74 40		 je	 SHORT $L268160
  00365	8b 8e 74 01 00
	00		 mov	 ecx, DWORD PTR [esi+372]
  0036b	85 c9		 test	 ecx, ecx
  0036d	7c 11		 jl	 SHORT $L265189
  0036f	3b c8		 cmp	 ecx, eax
  00371	7d 0d		 jge	 SHORT $L265189
  00373	73 26		 jae	 SHORT $L268227
  00375	8b 15 4c 02 00
	00		 mov	 edx, DWORD PTR ?prj@@3VCProject@@A+588
  0037b	8b 0c 8a	 mov	 ecx, DWORD PTR [edx+ecx*4]
  0037e	eb 1d		 jmp	 SHORT $L265184
$L265189:
  00380	51		 push	 ecx
  00381	50		 push	 eax
  00382	6a 00		 push	 0
  00384	68 00 00 00 00	 push	 OFFSET FLAT:??_C@_0BI@BEIFNGEL@GetItemProp?5range_error?$AA@
  00389	68 00 00 00 00	 push	 OFFSET FLAT:??_C@_0BM@HMFGHCP@?$CFs?5min?3?$CFd?0?5max?3?$CFd?0?5index?3?$CFd?$AA@
  0038e	e8 00 00 00 00	 call	 ?Error@@YAPBDPBDZZ	; Error
  00393	a1 5c 02 00 00	 mov	 eax, DWORD PTR ?prj@@3VCProject@@A+604
  00398	83 c4 14	 add	 esp, 20			; 00000014H
$L268227:
  0039b	33 c9		 xor	 ecx, ecx
$L265184:
  0039d	83 79 74 0e	 cmp	 DWORD PTR [ecx+116], 14	; 0000000eH
  003a1	75 02		 jne	 SHORT $L268160

; 146  : 							b1 = FALSE;

  003a3	33 db		 xor	 ebx, ebx
$L268160:

; 147  : 						if( (((CUser*)pOwner)->m_dwPetfilter & FILTER_MPFOOD) && pItem->GetProp()->dwItemKind3 == IK3_REFRESHER )

  003a5	f6 85 30 57 00
	00 02		 test	 BYTE PTR [ebp+22320], 2
  003ac	74 40		 je	 SHORT $L268162
  003ae	8b 8e 74 01 00
	00		 mov	 ecx, DWORD PTR [esi+372]
  003b4	85 c9		 test	 ecx, ecx
  003b6	7c 11		 jl	 SHORT $L265263
  003b8	3b c8		 cmp	 ecx, eax
  003ba	7d 0d		 jge	 SHORT $L265263
  003bc	73 26		 jae	 SHORT $L268228
  003be	8b 15 4c 02 00
	00		 mov	 edx, DWORD PTR ?prj@@3VCProject@@A+588
  003c4	8b 0c 8a	 mov	 ecx, DWORD PTR [edx+ecx*4]
  003c7	eb 1d		 jmp	 SHORT $L265258
$L265263:
  003c9	51		 push	 ecx
  003ca	50		 push	 eax
  003cb	6a 00		 push	 0
  003cd	68 00 00 00 00	 push	 OFFSET FLAT:??_C@_0BI@BEIFNGEL@GetItemProp?5range_error?$AA@
  003d2	68 00 00 00 00	 push	 OFFSET FLAT:??_C@_0BM@HMFGHCP@?$CFs?5min?3?$CFd?0?5max?3?$CFd?0?5index?3?$CFd?$AA@
  003d7	e8 00 00 00 00	 call	 ?Error@@YAPBDPBDZZ	; Error
  003dc	a1 5c 02 00 00	 mov	 eax, DWORD PTR ?prj@@3VCProject@@A+604
  003e1	83 c4 14	 add	 esp, 20			; 00000014H
$L268228:
  003e4	33 c9		 xor	 ecx, ecx
$L265258:
  003e6	83 79 78 19	 cmp	 DWORD PTR [ecx+120], 25	; 00000019H
  003ea	75 02		 jne	 SHORT $L268162

; 148  : 							b1 = FALSE;

  003ec	33 db		 xor	 ebx, ebx
$L268162:

; 149  : 						if( (((CUser*)pOwner)->m_dwPetfilter & FILTER_FPFOOD) && pItem->GetProp()->dwItemKind2 == IK2_POTION)

  003ee	f6 85 30 57 00
	00 04		 test	 BYTE PTR [ebp+22320], 4
  003f5	0f 84 89 00 00
	00		 je	 $L268164
  003fb	8b 8e 74 01 00
	00		 mov	 ecx, DWORD PTR [esi+372]
  00401	85 c9		 test	 ecx, ecx
  00403	7c 11		 jl	 SHORT $L265341
  00405	3b c8		 cmp	 ecx, eax
  00407	7d 0d		 jge	 SHORT $L265341
  00409	73 26		 jae	 SHORT $L268229
  0040b	8b 15 4c 02 00
	00		 mov	 edx, DWORD PTR ?prj@@3VCProject@@A+588
  00411	8b 0c 8a	 mov	 ecx, DWORD PTR [edx+ecx*4]
  00414	eb 1d		 jmp	 SHORT $L265336
$L265341:
  00416	51		 push	 ecx
  00417	50		 push	 eax
  00418	6a 00		 push	 0
  0041a	68 00 00 00 00	 push	 OFFSET FLAT:??_C@_0BI@BEIFNGEL@GetItemProp?5range_error?$AA@
  0041f	68 00 00 00 00	 push	 OFFSET FLAT:??_C@_0BM@HMFGHCP@?$CFs?5min?3?$CFd?0?5max?3?$CFd?0?5index?3?$CFd?$AA@
  00424	e8 00 00 00 00	 call	 ?Error@@YAPBDPBDZZ	; Error
  00429	a1 5c 02 00 00	 mov	 eax, DWORD PTR ?prj@@3VCProject@@A+604
  0042e	83 c4 14	 add	 esp, 20			; 00000014H
$L268229:
  00431	33 c9		 xor	 ecx, ecx
$L265336:
  00433	83 79 74 0c	 cmp	 DWORD PTR [ecx+116], 12	; 0000000cH
  00437	75 02		 jne	 SHORT $L268163

; 150  : 							b1 = FALSE;

  00439	33 db		 xor	 ebx, ebx
$L268163:

; 151  : 						if( (((CUser*)pOwner)->m_dwPetfilter & FILTER_FPFOOD) && pItem->GetProp()->dwItemKind1 == IK3_DRINK)

  0043b	f6 85 30 57 00
	00 04		 test	 BYTE PTR [ebp+22320], 4
  00442	74 40		 je	 SHORT $L268164
  00444	8b 8e 74 01 00
	00		 mov	 ecx, DWORD PTR [esi+372]
  0044a	85 c9		 test	 ecx, ecx
  0044c	7c 11		 jl	 SHORT $L265411
  0044e	3b c8		 cmp	 ecx, eax
  00450	7d 0d		 jge	 SHORT $L265411
  00452	73 26		 jae	 SHORT $L268230
  00454	8b 15 4c 02 00
	00		 mov	 edx, DWORD PTR ?prj@@3VCProject@@A+588
  0045a	8b 0c 8a	 mov	 ecx, DWORD PTR [edx+ecx*4]
  0045d	eb 1d		 jmp	 SHORT $L265406
$L265411:
  0045f	51		 push	 ecx
  00460	50		 push	 eax
  00461	6a 00		 push	 0
  00463	68 00 00 00 00	 push	 OFFSET FLAT:??_C@_0BI@BEIFNGEL@GetItemProp?5range_error?$AA@
  00468	68 00 00 00 00	 push	 OFFSET FLAT:??_C@_0BM@HMFGHCP@?$CFs?5min?3?$CFd?0?5max?3?$CFd?0?5index?3?$CFd?$AA@
  0046d	e8 00 00 00 00	 call	 ?Error@@YAPBDPBDZZ	; Error
  00472	a1 5c 02 00 00	 mov	 eax, DWORD PTR ?prj@@3VCProject@@A+604
  00477	83 c4 14	 add	 esp, 20			; 00000014H
$L268230:
  0047a	33 c9		 xor	 ecx, ecx
$L265406:
  0047c	83 79 70 23	 cmp	 DWORD PTR [ecx+112], 35	; 00000023H
  00480	75 02		 jne	 SHORT $L268164

; 152  : 							b1 = FALSE;

  00482	33 db		 xor	 ebx, ebx
$L268164:

; 153  : 						if( (((CUser*)pOwner)->m_dwPetfilter & FILTER_BWEAPON) && pItem->GetProp()->dwReferStat1 == WEAPON_GENERAL )

  00484	f6 85 30 57 00
	00 08		 test	 BYTE PTR [ebp+22320], 8
  0048b	74 44		 je	 SHORT $L268201
  0048d	8b 8e 74 01 00
	00		 mov	 ecx, DWORD PTR [esi+372]
  00493	85 c9		 test	 ecx, ecx
  00495	7c 11		 jl	 SHORT $L265481
  00497	3b c8		 cmp	 ecx, eax
  00499	7d 0d		 jge	 SHORT $L265481
  0049b	73 26		 jae	 SHORT $L268231
  0049d	8b 15 4c 02 00
	00		 mov	 edx, DWORD PTR ?prj@@3VCProject@@A+588
  004a3	8b 0c 8a	 mov	 ecx, DWORD PTR [edx+ecx*4]
  004a6	eb 1d		 jmp	 SHORT $L265476
$L265481:
  004a8	51		 push	 ecx
  004a9	50		 push	 eax
  004aa	6a 00		 push	 0
  004ac	68 00 00 00 00	 push	 OFFSET FLAT:??_C@_0BI@BEIFNGEL@GetItemProp?5range_error?$AA@
  004b1	68 00 00 00 00	 push	 OFFSET FLAT:??_C@_0BM@HMFGHCP@?$CFs?5min?3?$CFd?0?5max?3?$CFd?0?5index?3?$CFd?$AA@
  004b6	e8 00 00 00 00	 call	 ?Error@@YAPBDPBDZZ	; Error
  004bb	a1 5c 02 00 00	 mov	 eax, DWORD PTR ?prj@@3VCProject@@A+604
  004c0	83 c4 14	 add	 esp, 20			; 00000014H
$L268231:
  004c3	33 c9		 xor	 ecx, ecx
$L265476:
  004c5	8b 91 00 02 00
	00		 mov	 edx, DWORD PTR [ecx+512]
  004cb	85 d2		 test	 edx, edx
  004cd	75 02		 jne	 SHORT $L268201

; 154  : 							b1 = FALSE;

  004cf	33 db		 xor	 ebx, ebx
$L268201:

; 155  : 						if( (((CUser*)pOwner)->m_dwPetfilter & FILTER_GWEAPON) && pItem->GetProp()->dwReferStat1 == WEAPON_UNIQUE )

  004d1	f6 85 30 57 00
	00 10		 test	 BYTE PTR [ebp+22320], 16 ; 00000010H
  004d8	74 43		 je	 SHORT $L268165
  004da	8b 8e 74 01 00
	00		 mov	 ecx, DWORD PTR [esi+372]
  004e0	85 c9		 test	 ecx, ecx
  004e2	7c 11		 jl	 SHORT $L265544
  004e4	3b c8		 cmp	 ecx, eax
  004e6	7d 0d		 jge	 SHORT $L265544
  004e8	73 26		 jae	 SHORT $L268232
  004ea	8b 15 4c 02 00
	00		 mov	 edx, DWORD PTR ?prj@@3VCProject@@A+588
  004f0	8b 0c 8a	 mov	 ecx, DWORD PTR [edx+ecx*4]
  004f3	eb 1d		 jmp	 SHORT $L265536
$L265544:
  004f5	51		 push	 ecx
  004f6	50		 push	 eax
  004f7	6a 00		 push	 0
  004f9	68 00 00 00 00	 push	 OFFSET FLAT:??_C@_0BI@BEIFNGEL@GetItemProp?5range_error?$AA@
  004fe	68 00 00 00 00	 push	 OFFSET FLAT:??_C@_0BM@HMFGHCP@?$CFs?5min?3?$CFd?0?5max?3?$CFd?0?5index?3?$CFd?$AA@
  00503	e8 00 00 00 00	 call	 ?Error@@YAPBDPBDZZ	; Error
  00508	a1 5c 02 00 00	 mov	 eax, DWORD PTR ?prj@@3VCProject@@A+604
  0050d	83 c4 14	 add	 esp, 20			; 00000014H
$L268232:
  00510	33 c9		 xor	 ecx, ecx
$L265536:
  00512	83 b9 00 02 00
	00 01		 cmp	 DWORD PTR [ecx+512], 1
  00519	75 02		 jne	 SHORT $L268165

; 156  : 							b1 = FALSE;

  0051b	33 db		 xor	 ebx, ebx
$L268165:

; 157  : 						if( (((CUser*)pOwner)->m_dwPetfilter & FILTER_BSET) && pItem->GetProp()->dwReferStat1 == ARMOR_GEN)

  0051d	f6 85 30 57 00
	00 20		 test	 BYTE PTR [ebp+22320], 32 ; 00000020H
  00524	74 43		 je	 SHORT $L268166
  00526	8b 8e 74 01 00
	00		 mov	 ecx, DWORD PTR [esi+372]
  0052c	85 c9		 test	 ecx, ecx
  0052e	7c 11		 jl	 SHORT $L265608
  00530	3b c8		 cmp	 ecx, eax
  00532	7d 0d		 jge	 SHORT $L265608
  00534	73 26		 jae	 SHORT $L268233
  00536	8b 15 4c 02 00
	00		 mov	 edx, DWORD PTR ?prj@@3VCProject@@A+588
  0053c	8b 0c 8a	 mov	 ecx, DWORD PTR [edx+ecx*4]
  0053f	eb 1d		 jmp	 SHORT $L265603
$L265608:
  00541	51		 push	 ecx
  00542	50		 push	 eax
  00543	6a 00		 push	 0
  00545	68 00 00 00 00	 push	 OFFSET FLAT:??_C@_0BI@BEIFNGEL@GetItemProp?5range_error?$AA@
  0054a	68 00 00 00 00	 push	 OFFSET FLAT:??_C@_0BM@HMFGHCP@?$CFs?5min?3?$CFd?0?5max?3?$CFd?0?5index?3?$CFd?$AA@
  0054f	e8 00 00 00 00	 call	 ?Error@@YAPBDPBDZZ	; Error
  00554	a1 5c 02 00 00	 mov	 eax, DWORD PTR ?prj@@3VCProject@@A+604
  00559	83 c4 14	 add	 esp, 20			; 00000014H
$L268233:
  0055c	33 c9		 xor	 ecx, ecx
$L265603:
  0055e	83 b9 00 02 00
	00 09		 cmp	 DWORD PTR [ecx+512], 9
  00565	75 02		 jne	 SHORT $L268166

; 158  : 							b1 = FALSE;

  00567	33 db		 xor	 ebx, ebx
$L268166:

; 159  : 						if( (((CUser*)pOwner)->m_dwPetfilter & FILTER_GSET) && pItem->GetProp()->dwReferStat1 == ARMOR_SET )

  00569	f6 85 30 57 00
	00 40		 test	 BYTE PTR [ebp+22320], 64 ; 00000040H
  00570	74 43		 je	 SHORT $L268167
  00572	8b 8e 74 01 00
	00		 mov	 ecx, DWORD PTR [esi+372]
  00578	85 c9		 test	 ecx, ecx
  0057a	7c 11		 jl	 SHORT $L265679
  0057c	3b c8		 cmp	 ecx, eax
  0057e	7d 0d		 jge	 SHORT $L265679
  00580	73 26		 jae	 SHORT $L268234
  00582	8b 15 4c 02 00
	00		 mov	 edx, DWORD PTR ?prj@@3VCProject@@A+588
  00588	8b 0c 8a	 mov	 ecx, DWORD PTR [edx+ecx*4]
  0058b	eb 1d		 jmp	 SHORT $L265674
$L265679:
  0058d	51		 push	 ecx
  0058e	50		 push	 eax
  0058f	6a 00		 push	 0
  00591	68 00 00 00 00	 push	 OFFSET FLAT:??_C@_0BI@BEIFNGEL@GetItemProp?5range_error?$AA@
  00596	68 00 00 00 00	 push	 OFFSET FLAT:??_C@_0BM@HMFGHCP@?$CFs?5min?3?$CFd?0?5max?3?$CFd?0?5index?3?$CFd?$AA@
  0059b	e8 00 00 00 00	 call	 ?Error@@YAPBDPBDZZ	; Error
  005a0	a1 5c 02 00 00	 mov	 eax, DWORD PTR ?prj@@3VCProject@@A+604
  005a5	83 c4 14	 add	 esp, 20			; 00000014H
$L268234:
  005a8	33 c9		 xor	 ecx, ecx
$L265674:
  005aa	83 b9 00 02 00
	00 03		 cmp	 DWORD PTR [ecx+512], 3
  005b1	75 02		 jne	 SHORT $L268167

; 160  : 							b1 = FALSE;

  005b3	33 db		 xor	 ebx, ebx
$L268167:

; 161  : 						if( (((CUser*)pOwner)->m_dwPetfilter & FILTER_NECKLACE) && pItem->GetProp()->dwItemKind3 == IK3_NECKLACE )

  005b5	8a 8d 30 57 00
	00		 mov	 cl, BYTE PTR [ebp+22320]
  005bb	84 c9		 test	 cl, cl
  005bd	79 40		 jns	 SHORT $L268168
  005bf	8b 8e 74 01 00
	00		 mov	 ecx, DWORD PTR [esi+372]
  005c5	85 c9		 test	 ecx, ecx
  005c7	7c 11		 jl	 SHORT $L265749
  005c9	3b c8		 cmp	 ecx, eax
  005cb	7d 0d		 jge	 SHORT $L265749
  005cd	73 26		 jae	 SHORT $L268235
  005cf	8b 15 4c 02 00
	00		 mov	 edx, DWORD PTR ?prj@@3VCProject@@A+588
  005d5	8b 0c 8a	 mov	 ecx, DWORD PTR [edx+ecx*4]
  005d8	eb 1d		 jmp	 SHORT $L265744
$L265749:
  005da	51		 push	 ecx
  005db	50		 push	 eax
  005dc	6a 00		 push	 0
  005de	68 00 00 00 00	 push	 OFFSET FLAT:??_C@_0BI@BEIFNGEL@GetItemProp?5range_error?$AA@
  005e3	68 00 00 00 00	 push	 OFFSET FLAT:??_C@_0BM@HMFGHCP@?$CFs?5min?3?$CFd?0?5max?3?$CFd?0?5index?3?$CFd?$AA@
  005e8	e8 00 00 00 00	 call	 ?Error@@YAPBDPBDZZ	; Error
  005ed	a1 5c 02 00 00	 mov	 eax, DWORD PTR ?prj@@3VCProject@@A+604
  005f2	83 c4 14	 add	 esp, 20			; 00000014H
$L268235:
  005f5	33 c9		 xor	 ecx, ecx
$L265744:
  005f7	83 79 78 1c	 cmp	 DWORD PTR [ecx+120], 28	; 0000001cH
  005fb	75 02		 jne	 SHORT $L268168

; 162  : 							b1 = FALSE;

  005fd	33 db		 xor	 ebx, ebx
$L268168:

; 163  : 						if( (((CUser*)pOwner)->m_dwPetfilter & FILTER_EARRING) && pItem->GetProp()->dwItemKind3 == IK3_EARRING )

  005ff	8b 8d 30 57 00
	00		 mov	 ecx, DWORD PTR [ebp+22320]
  00605	f6 c5 01	 test	 ch, 1
  00608	74 40		 je	 SHORT $L268169
  0060a	8b 8e 74 01 00
	00		 mov	 ecx, DWORD PTR [esi+372]
  00610	85 c9		 test	 ecx, ecx
  00612	7c 11		 jl	 SHORT $L265819
  00614	3b c8		 cmp	 ecx, eax
  00616	7d 0d		 jge	 SHORT $L265819
  00618	73 26		 jae	 SHORT $L268236
  0061a	8b 15 4c 02 00
	00		 mov	 edx, DWORD PTR ?prj@@3VCProject@@A+588
  00620	8b 0c 8a	 mov	 ecx, DWORD PTR [edx+ecx*4]
  00623	eb 1d		 jmp	 SHORT $L265814
$L265819:
  00625	51		 push	 ecx
  00626	50		 push	 eax
  00627	6a 00		 push	 0
  00629	68 00 00 00 00	 push	 OFFSET FLAT:??_C@_0BI@BEIFNGEL@GetItemProp?5range_error?$AA@
  0062e	68 00 00 00 00	 push	 OFFSET FLAT:??_C@_0BM@HMFGHCP@?$CFs?5min?3?$CFd?0?5max?3?$CFd?0?5index?3?$CFd?$AA@
  00633	e8 00 00 00 00	 call	 ?Error@@YAPBDPBDZZ	; Error
  00638	a1 5c 02 00 00	 mov	 eax, DWORD PTR ?prj@@3VCProject@@A+604
  0063d	83 c4 14	 add	 esp, 20			; 00000014H
$L268236:
  00640	33 c9		 xor	 ecx, ecx
$L265814:
  00642	83 79 78 1b	 cmp	 DWORD PTR [ecx+120], 27	; 0000001bH
  00646	75 02		 jne	 SHORT $L268169

; 164  : 							b1 = FALSE;

  00648	33 db		 xor	 ebx, ebx
$L268169:

; 165  : 						if( (((CUser*)pOwner)->m_dwPetfilter & FILTER_RING) && pItem->GetProp()->dwItemKind3 == IK3_RING )

  0064a	8b 8d 30 57 00
	00		 mov	 ecx, DWORD PTR [ebp+22320]
  00650	f6 c5 02	 test	 ch, 2
  00653	74 40		 je	 SHORT $L268170
  00655	8b 8e 74 01 00
	00		 mov	 ecx, DWORD PTR [esi+372]
  0065b	85 c9		 test	 ecx, ecx
  0065d	7c 11		 jl	 SHORT $L265889
  0065f	3b c8		 cmp	 ecx, eax
  00661	7d 0d		 jge	 SHORT $L265889
  00663	73 26		 jae	 SHORT $L268237
  00665	8b 15 4c 02 00
	00		 mov	 edx, DWORD PTR ?prj@@3VCProject@@A+588
  0066b	8b 0c 8a	 mov	 ecx, DWORD PTR [edx+ecx*4]
  0066e	eb 1d		 jmp	 SHORT $L265884
$L265889:
  00670	51		 push	 ecx
  00671	50		 push	 eax
  00672	6a 00		 push	 0
  00674	68 00 00 00 00	 push	 OFFSET FLAT:??_C@_0BI@BEIFNGEL@GetItemProp?5range_error?$AA@
  00679	68 00 00 00 00	 push	 OFFSET FLAT:??_C@_0BM@HMFGHCP@?$CFs?5min?3?$CFd?0?5max?3?$CFd?0?5index?3?$CFd?$AA@
  0067e	e8 00 00 00 00	 call	 ?Error@@YAPBDPBDZZ	; Error
  00683	a1 5c 02 00 00	 mov	 eax, DWORD PTR ?prj@@3VCProject@@A+604
  00688	83 c4 14	 add	 esp, 20			; 00000014H
$L268237:
  0068b	33 c9		 xor	 ecx, ecx
$L265884:
  0068d	83 79 78 1d	 cmp	 DWORD PTR [ecx+120], 29	; 0000001dH
  00691	75 02		 jne	 SHORT $L268170

; 166  : 							b1 = FALSE;

  00693	33 db		 xor	 ebx, ebx
$L268170:

; 167  : 						if( (((CUser*)pOwner)->m_dwPetfilter & FILTER_EGG) && pItem->GetProp()->dwID == II_PET_EGG )

  00695	8b 8d 30 57 00
	00		 mov	 ecx, DWORD PTR [ebp+22320]
  0069b	f6 c5 04	 test	 ch, 4
  0069e	74 42		 je	 SHORT $L268171
  006a0	8b 8e 74 01 00
	00		 mov	 ecx, DWORD PTR [esi+372]
  006a6	85 c9		 test	 ecx, ecx
  006a8	7c 11		 jl	 SHORT $L265959
  006aa	3b c8		 cmp	 ecx, eax
  006ac	7d 0d		 jge	 SHORT $L265959
  006ae	73 26		 jae	 SHORT $L268238
  006b0	8b 15 4c 02 00
	00		 mov	 edx, DWORD PTR ?prj@@3VCProject@@A+588
  006b6	8b 0c 8a	 mov	 ecx, DWORD PTR [edx+ecx*4]
  006b9	eb 1d		 jmp	 SHORT $L265954
$L265959:
  006bb	51		 push	 ecx
  006bc	50		 push	 eax
  006bd	6a 00		 push	 0
  006bf	68 00 00 00 00	 push	 OFFSET FLAT:??_C@_0BI@BEIFNGEL@GetItemProp?5range_error?$AA@
  006c4	68 00 00 00 00	 push	 OFFSET FLAT:??_C@_0BM@HMFGHCP@?$CFs?5min?3?$CFd?0?5max?3?$CFd?0?5index?3?$CFd?$AA@
  006c9	e8 00 00 00 00	 call	 ?Error@@YAPBDPBDZZ	; Error
  006ce	a1 5c 02 00 00	 mov	 eax, DWORD PTR ?prj@@3VCProject@@A+604
  006d3	83 c4 14	 add	 esp, 20			; 00000014H
$L268238:
  006d6	33 c9		 xor	 ecx, ecx
$L265954:
  006d8	81 39 25 52 00
	00		 cmp	 DWORD PTR [ecx], 21029	; 00005225H
  006de	75 02		 jne	 SHORT $L268171

; 168  : 							b1 = FALSE;

  006e0	33 db		 xor	 ebx, ebx
$L268171:

; 169  : 						if( (((CUser*)pOwner)->m_dwPetfilter & FILTER_SUNSTONE) && pItem->GetProp()->dwID == II_GEN_MAT_ORICHALCUM01)

  006e2	8b 8d 30 57 00
	00		 mov	 ecx, DWORD PTR [ebp+22320]
  006e8	f6 c5 08	 test	 ch, 8
  006eb	0f 84 31 01 00
	00		 je	 $L268175
  006f1	8b 8e 74 01 00
	00		 mov	 ecx, DWORD PTR [esi+372]
  006f7	85 c9		 test	 ecx, ecx
  006f9	7c 11		 jl	 SHORT $L266029
  006fb	3b c8		 cmp	 ecx, eax
  006fd	7d 0d		 jge	 SHORT $L266029
  006ff	73 26		 jae	 SHORT $L268239
  00701	8b 15 4c 02 00
	00		 mov	 edx, DWORD PTR ?prj@@3VCProject@@A+588
  00707	8b 0c 8a	 mov	 ecx, DWORD PTR [edx+ecx*4]
  0070a	eb 1d		 jmp	 SHORT $L266024
$L266029:
  0070c	51		 push	 ecx
  0070d	50		 push	 eax
  0070e	6a 00		 push	 0
  00710	68 00 00 00 00	 push	 OFFSET FLAT:??_C@_0BI@BEIFNGEL@GetItemProp?5range_error?$AA@
  00715	68 00 00 00 00	 push	 OFFSET FLAT:??_C@_0BM@HMFGHCP@?$CFs?5min?3?$CFd?0?5max?3?$CFd?0?5index?3?$CFd?$AA@
  0071a	e8 00 00 00 00	 call	 ?Error@@YAPBDPBDZZ	; Error
  0071f	a1 5c 02 00 00	 mov	 eax, DWORD PTR ?prj@@3VCProject@@A+604
  00724	83 c4 14	 add	 esp, 20			; 00000014H
$L268239:
  00727	33 c9		 xor	 ecx, ecx
$L266024:
  00729	81 39 f3 07 00
	00		 cmp	 DWORD PTR [ecx], 2035	; 000007f3H
  0072f	75 02		 jne	 SHORT $L268172

; 170  : 							b1 = FALSE;

  00731	33 db		 xor	 ebx, ebx
$L268172:

; 171  : 						if( (((CUser*)pOwner)->m_dwPetfilter & FILTER_SUNSTONE) && pItem->GetProp()->dwID == II_GEN_MAT_ORICHALCUM02)

  00733	8b 8d 30 57 00
	00		 mov	 ecx, DWORD PTR [ebp+22320]
  00739	f6 c5 08	 test	 ch, 8
  0073c	0f 84 e0 00 00
	00		 je	 $L268175
  00742	8b 8e 74 01 00
	00		 mov	 ecx, DWORD PTR [esi+372]
  00748	85 c9		 test	 ecx, ecx
  0074a	7c 11		 jl	 SHORT $L266099
  0074c	3b c8		 cmp	 ecx, eax
  0074e	7d 0d		 jge	 SHORT $L266099
  00750	73 26		 jae	 SHORT $L268240
  00752	8b 15 4c 02 00
	00		 mov	 edx, DWORD PTR ?prj@@3VCProject@@A+588
  00758	8b 0c 8a	 mov	 ecx, DWORD PTR [edx+ecx*4]
  0075b	eb 1d		 jmp	 SHORT $L266094
$L266099:
  0075d	51		 push	 ecx
  0075e	50		 push	 eax
  0075f	6a 00		 push	 0
  00761	68 00 00 00 00	 push	 OFFSET FLAT:??_C@_0BI@BEIFNGEL@GetItemProp?5range_error?$AA@
  00766	68 00 00 00 00	 push	 OFFSET FLAT:??_C@_0BM@HMFGHCP@?$CFs?5min?3?$CFd?0?5max?3?$CFd?0?5index?3?$CFd?$AA@
  0076b	e8 00 00 00 00	 call	 ?Error@@YAPBDPBDZZ	; Error
  00770	a1 5c 02 00 00	 mov	 eax, DWORD PTR ?prj@@3VCProject@@A+604
  00775	83 c4 14	 add	 esp, 20			; 00000014H
$L268240:
  00778	33 c9		 xor	 ecx, ecx
$L266094:
  0077a	81 39 f2 07 00
	00		 cmp	 DWORD PTR [ecx], 2034	; 000007f2H
  00780	75 02		 jne	 SHORT $L268173

; 172  : 							b1 = FALSE;

  00782	33 db		 xor	 ebx, ebx
$L268173:

; 173  : 						if( (((CUser*)pOwner)->m_dwPetfilter & FILTER_SUNSTONE) && pItem->GetProp()->dwID == II_GEN_MAT_ORICHALCUM01_1)

  00784	8b 8d 30 57 00
	00		 mov	 ecx, DWORD PTR [ebp+22320]
  0078a	f6 c5 08	 test	 ch, 8
  0078d	0f 84 8f 00 00
	00		 je	 $L268175
  00793	8b 8e 74 01 00
	00		 mov	 ecx, DWORD PTR [esi+372]
  00799	85 c9		 test	 ecx, ecx
  0079b	7c 11		 jl	 SHORT $L266169
  0079d	3b c8		 cmp	 ecx, eax
  0079f	7d 0d		 jge	 SHORT $L266169
  007a1	73 26		 jae	 SHORT $L268241
  007a3	8b 15 4c 02 00
	00		 mov	 edx, DWORD PTR ?prj@@3VCProject@@A+588
  007a9	8b 0c 8a	 mov	 ecx, DWORD PTR [edx+ecx*4]
  007ac	eb 1d		 jmp	 SHORT $L266164
$L266169:
  007ae	51		 push	 ecx
  007af	50		 push	 eax
  007b0	6a 00		 push	 0
  007b2	68 00 00 00 00	 push	 OFFSET FLAT:??_C@_0BI@BEIFNGEL@GetItemProp?5range_error?$AA@
  007b7	68 00 00 00 00	 push	 OFFSET FLAT:??_C@_0BM@HMFGHCP@?$CFs?5min?3?$CFd?0?5max?3?$CFd?0?5index?3?$CFd?$AA@
  007bc	e8 00 00 00 00	 call	 ?Error@@YAPBDPBDZZ	; Error
  007c1	a1 5c 02 00 00	 mov	 eax, DWORD PTR ?prj@@3VCProject@@A+604
  007c6	83 c4 14	 add	 esp, 20			; 00000014H
$L268241:
  007c9	33 c9		 xor	 ecx, ecx
$L266164:
  007cb	81 39 22 08 00
	00		 cmp	 DWORD PTR [ecx], 2082	; 00000822H
  007d1	75 02		 jne	 SHORT $L268174

; 174  : 							b1 = FALSE;

  007d3	33 db		 xor	 ebx, ebx
$L268174:

; 175  : 						if( (((CUser*)pOwner)->m_dwPetfilter & FILTER_SUNSTONE) && pItem->GetProp()->dwID == II_SYS_SYS_SCR_SCRAPORICHALCUM)

  007d5	8b 8d 30 57 00
	00		 mov	 ecx, DWORD PTR [ebp+22320]
  007db	f6 c5 08	 test	 ch, 8
  007de	74 42		 je	 SHORT $L268175
  007e0	8b 8e 74 01 00
	00		 mov	 ecx, DWORD PTR [esi+372]
  007e6	85 c9		 test	 ecx, ecx
  007e8	7c 11		 jl	 SHORT $L266239
  007ea	3b c8		 cmp	 ecx, eax
  007ec	7d 0d		 jge	 SHORT $L266239
  007ee	73 26		 jae	 SHORT $L268242
  007f0	8b 15 4c 02 00
	00		 mov	 edx, DWORD PTR ?prj@@3VCProject@@A+588
  007f6	8b 0c 8a	 mov	 ecx, DWORD PTR [edx+ecx*4]
  007f9	eb 1d		 jmp	 SHORT $L266234
$L266239:
  007fb	51		 push	 ecx
  007fc	50		 push	 eax
  007fd	6a 00		 push	 0
  007ff	68 00 00 00 00	 push	 OFFSET FLAT:??_C@_0BI@BEIFNGEL@GetItemProp?5range_error?$AA@
  00804	68 00 00 00 00	 push	 OFFSET FLAT:??_C@_0BM@HMFGHCP@?$CFs?5min?3?$CFd?0?5max?3?$CFd?0?5index?3?$CFd?$AA@
  00809	e8 00 00 00 00	 call	 ?Error@@YAPBDPBDZZ	; Error
  0080e	a1 5c 02 00 00	 mov	 eax, DWORD PTR ?prj@@3VCProject@@A+604
  00813	83 c4 14	 add	 esp, 20			; 00000014H
$L268242:
  00816	33 c9		 xor	 ecx, ecx
$L266234:
  00818	81 39 71 67 00
	00		 cmp	 DWORD PTR [ecx], 26481	; 00006771H
  0081e	75 02		 jne	 SHORT $L268175

; 176  : 							b1 = FALSE;

  00820	33 db		 xor	 ebx, ebx
$L268175:

; 177  : 						if( (((CUser*)pOwner)->m_dwPetfilter & FILTER_MOONSTONE) && pItem->GetProp()->dwID == II_GEN_MAT_MOONSTONE)

  00822	8b 8d 30 57 00
	00		 mov	 ecx, DWORD PTR [ebp+22320]
  00828	f6 c5 10	 test	 ch, 16			; 00000010H
  0082b	0f 84 e0 00 00
	00		 je	 $L268178
  00831	8b 8e 74 01 00
	00		 mov	 ecx, DWORD PTR [esi+372]
  00837	85 c9		 test	 ecx, ecx
  00839	7c 11		 jl	 SHORT $L266321
  0083b	3b c8		 cmp	 ecx, eax
  0083d	7d 0d		 jge	 SHORT $L266321
  0083f	73 26		 jae	 SHORT $L268243
  00841	8b 15 4c 02 00
	00		 mov	 edx, DWORD PTR ?prj@@3VCProject@@A+588
  00847	8b 0c 8a	 mov	 ecx, DWORD PTR [edx+ecx*4]
  0084a	eb 1d		 jmp	 SHORT $L266316
$L266321:
  0084c	51		 push	 ecx
  0084d	50		 push	 eax
  0084e	6a 00		 push	 0
  00850	68 00 00 00 00	 push	 OFFSET FLAT:??_C@_0BI@BEIFNGEL@GetItemProp?5range_error?$AA@
  00855	68 00 00 00 00	 push	 OFFSET FLAT:??_C@_0BM@HMFGHCP@?$CFs?5min?3?$CFd?0?5max?3?$CFd?0?5index?3?$CFd?$AA@
  0085a	e8 00 00 00 00	 call	 ?Error@@YAPBDPBDZZ	; Error
  0085f	a1 5c 02 00 00	 mov	 eax, DWORD PTR ?prj@@3VCProject@@A+604
  00864	83 c4 14	 add	 esp, 20			; 00000014H
$L268243:
  00867	33 c9		 xor	 ecx, ecx
$L266316:
  00869	81 39 f4 07 00
	00		 cmp	 DWORD PTR [ecx], 2036	; 000007f4H
  0086f	75 02		 jne	 SHORT $L268176

; 178  : 							b1 = FALSE;

  00871	33 db		 xor	 ebx, ebx
$L268176:

; 179  : 						if( (((CUser*)pOwner)->m_dwPetfilter & FILTER_MOONSTONE) && pItem->GetProp()->dwID == II_GEN_MAT_MOONSTONE_1)

  00873	8b 8d 30 57 00
	00		 mov	 ecx, DWORD PTR [ebp+22320]
  00879	f6 c5 10	 test	 ch, 16			; 00000010H
  0087c	0f 84 8f 00 00
	00		 je	 $L268178
  00882	8b 8e 74 01 00
	00		 mov	 ecx, DWORD PTR [esi+372]
  00888	85 c9		 test	 ecx, ecx
  0088a	7c 11		 jl	 SHORT $L266391
  0088c	3b c8		 cmp	 ecx, eax
  0088e	7d 0d		 jge	 SHORT $L266391
  00890	73 26		 jae	 SHORT $L268244
  00892	8b 15 4c 02 00
	00		 mov	 edx, DWORD PTR ?prj@@3VCProject@@A+588
  00898	8b 0c 8a	 mov	 ecx, DWORD PTR [edx+ecx*4]
  0089b	eb 1d		 jmp	 SHORT $L266386
$L266391:
  0089d	51		 push	 ecx
  0089e	50		 push	 eax
  0089f	6a 00		 push	 0
  008a1	68 00 00 00 00	 push	 OFFSET FLAT:??_C@_0BI@BEIFNGEL@GetItemProp?5range_error?$AA@
  008a6	68 00 00 00 00	 push	 OFFSET FLAT:??_C@_0BM@HMFGHCP@?$CFs?5min?3?$CFd?0?5max?3?$CFd?0?5index?3?$CFd?$AA@
  008ab	e8 00 00 00 00	 call	 ?Error@@YAPBDPBDZZ	; Error
  008b0	a1 5c 02 00 00	 mov	 eax, DWORD PTR ?prj@@3VCProject@@A+604
  008b5	83 c4 14	 add	 esp, 20			; 00000014H
$L268244:
  008b8	33 c9		 xor	 ecx, ecx
$L266386:
  008ba	81 39 23 08 00
	00		 cmp	 DWORD PTR [ecx], 2083	; 00000823H
  008c0	75 02		 jne	 SHORT $L268177

; 180  : 							b1 = FALSE;

  008c2	33 db		 xor	 ebx, ebx
$L268177:

; 181  : 						if( (((CUser*)pOwner)->m_dwPetfilter & FILTER_MOONSTONE) && pItem->GetProp()->dwID == II_SYS_SYS_SCR_SCRAPMOONSTONE)

  008c4	8b 8d 30 57 00
	00		 mov	 ecx, DWORD PTR [ebp+22320]
  008ca	f6 c5 10	 test	 ch, 16			; 00000010H
  008cd	74 42		 je	 SHORT $L268178
  008cf	8b 8e 74 01 00
	00		 mov	 ecx, DWORD PTR [esi+372]
  008d5	85 c9		 test	 ecx, ecx
  008d7	7c 11		 jl	 SHORT $L266461
  008d9	3b c8		 cmp	 ecx, eax
  008db	7d 0d		 jge	 SHORT $L266461
  008dd	73 26		 jae	 SHORT $L268245
  008df	8b 15 4c 02 00
	00		 mov	 edx, DWORD PTR ?prj@@3VCProject@@A+588
  008e5	8b 0c 8a	 mov	 ecx, DWORD PTR [edx+ecx*4]
  008e8	eb 1d		 jmp	 SHORT $L266456
$L266461:
  008ea	51		 push	 ecx
  008eb	50		 push	 eax
  008ec	6a 00		 push	 0
  008ee	68 00 00 00 00	 push	 OFFSET FLAT:??_C@_0BI@BEIFNGEL@GetItemProp?5range_error?$AA@
  008f3	68 00 00 00 00	 push	 OFFSET FLAT:??_C@_0BM@HMFGHCP@?$CFs?5min?3?$CFd?0?5max?3?$CFd?0?5index?3?$CFd?$AA@
  008f8	e8 00 00 00 00	 call	 ?Error@@YAPBDPBDZZ	; Error
  008fd	a1 5c 02 00 00	 mov	 eax, DWORD PTR ?prj@@3VCProject@@A+604
  00902	83 c4 14	 add	 esp, 20			; 00000014H
$L268245:
  00905	33 c9		 xor	 ecx, ecx
$L266456:
  00907	81 39 72 67 00
	00		 cmp	 DWORD PTR [ecx], 26482	; 00006772H
  0090d	75 02		 jne	 SHORT $L268178

; 182  : 							b1 = FALSE;

  0090f	33 db		 xor	 ebx, ebx
$L268178:

; 183  : 						if( (((CUser*)pOwner)->m_dwPetfilter & FILTER_QUESTITEM) && pItem->GetProp()->dwItemKind2 == IK2_GEM)

  00911	8b 8d 30 57 00
	00		 mov	 ecx, DWORD PTR [ebp+22320]
  00917	f6 c5 20	 test	 ch, 32			; 00000020H
  0091a	0f 84 8b 00 00
	00		 je	 $L268180
  00920	8b 8e 74 01 00
	00		 mov	 ecx, DWORD PTR [esi+372]
  00926	85 c9		 test	 ecx, ecx
  00928	7c 11		 jl	 SHORT $L266531
  0092a	3b c8		 cmp	 ecx, eax
  0092c	7d 0d		 jge	 SHORT $L266531
  0092e	73 26		 jae	 SHORT $L268246
  00930	8b 15 4c 02 00
	00		 mov	 edx, DWORD PTR ?prj@@3VCProject@@A+588
  00936	8b 0c 8a	 mov	 ecx, DWORD PTR [edx+ecx*4]
  00939	eb 1d		 jmp	 SHORT $L266526
$L266531:
  0093b	51		 push	 ecx
  0093c	50		 push	 eax
  0093d	6a 00		 push	 0
  0093f	68 00 00 00 00	 push	 OFFSET FLAT:??_C@_0BI@BEIFNGEL@GetItemProp?5range_error?$AA@
  00944	68 00 00 00 00	 push	 OFFSET FLAT:??_C@_0BM@HMFGHCP@?$CFs?5min?3?$CFd?0?5max?3?$CFd?0?5index?3?$CFd?$AA@
  00949	e8 00 00 00 00	 call	 ?Error@@YAPBDPBDZZ	; Error
  0094e	a1 5c 02 00 00	 mov	 eax, DWORD PTR ?prj@@3VCProject@@A+604
  00953	83 c4 14	 add	 esp, 20			; 00000014H
$L268246:
  00956	33 c9		 xor	 ecx, ecx
$L266526:
  00958	83 79 74 10	 cmp	 DWORD PTR [ecx+116], 16	; 00000010H
  0095c	75 02		 jne	 SHORT $L268179

; 184  : 							b1 = FALSE;

  0095e	33 db		 xor	 ebx, ebx
$L268179:

; 185  : 						if( (((CUser*)pOwner)->m_dwPetfilter & FILTER_QUESTITEM) && pItem->GetProp()->dwItemKind2 == IK3_GEM)

  00960	8b 8d 30 57 00
	00		 mov	 ecx, DWORD PTR [ebp+22320]
  00966	f6 c5 20	 test	 ch, 32			; 00000020H
  00969	74 40		 je	 SHORT $L268180
  0096b	8b 8e 74 01 00
	00		 mov	 ecx, DWORD PTR [esi+372]
  00971	85 c9		 test	 ecx, ecx
  00973	7c 11		 jl	 SHORT $L266588
  00975	3b c8		 cmp	 ecx, eax
  00977	7d 0d		 jge	 SHORT $L266588
  00979	73 26		 jae	 SHORT $L268247
  0097b	8b 15 4c 02 00
	00		 mov	 edx, DWORD PTR ?prj@@3VCProject@@A+588
  00981	8b 0c 8a	 mov	 ecx, DWORD PTR [edx+ecx*4]
  00984	eb 1d		 jmp	 SHORT $L266583
$L266588:
  00986	51		 push	 ecx
  00987	50		 push	 eax
  00988	6a 00		 push	 0
  0098a	68 00 00 00 00	 push	 OFFSET FLAT:??_C@_0BI@BEIFNGEL@GetItemProp?5range_error?$AA@
  0098f	68 00 00 00 00	 push	 OFFSET FLAT:??_C@_0BM@HMFGHCP@?$CFs?5min?3?$CFd?0?5max?3?$CFd?0?5index?3?$CFd?$AA@
  00994	e8 00 00 00 00	 call	 ?Error@@YAPBDPBDZZ	; Error
  00999	a1 5c 02 00 00	 mov	 eax, DWORD PTR ?prj@@3VCProject@@A+604
  0099e	83 c4 14	 add	 esp, 20			; 00000014H
$L268247:
  009a1	33 c9		 xor	 ecx, ecx
$L266583:
  009a3	83 79 74 22	 cmp	 DWORD PTR [ecx+116], 34	; 00000022H
  009a7	75 02		 jne	 SHORT $L268180

; 186  : 							b1 = FALSE;

  009a9	33 db		 xor	 ebx, ebx
$L268180:

; 187  : 						if( (((CUser*)pOwner)->m_dwPetfilter & FILTER_ELECARDS) && pItem->GetProp()->dwItemKind3 == IK3_ELECARD )

  009ab	8b 8d 30 57 00
	00		 mov	 ecx, DWORD PTR [ebp+22320]
  009b1	f6 c5 40	 test	 ch, 64			; 00000040H
  009b4	74 40		 je	 SHORT $L268181
  009b6	8b 8e 74 01 00
	00		 mov	 ecx, DWORD PTR [esi+372]
  009bc	85 c9		 test	 ecx, ecx
  009be	7c 11		 jl	 SHORT $L266658
  009c0	3b c8		 cmp	 ecx, eax
  009c2	7d 0d		 jge	 SHORT $L266658
  009c4	73 26		 jae	 SHORT $L268248
  009c6	8b 15 4c 02 00
	00		 mov	 edx, DWORD PTR ?prj@@3VCProject@@A+588
  009cc	8b 0c 8a	 mov	 ecx, DWORD PTR [edx+ecx*4]
  009cf	eb 1d		 jmp	 SHORT $L266653
$L266658:
  009d1	51		 push	 ecx
  009d2	50		 push	 eax
  009d3	6a 00		 push	 0
  009d5	68 00 00 00 00	 push	 OFFSET FLAT:??_C@_0BI@BEIFNGEL@GetItemProp?5range_error?$AA@
  009da	68 00 00 00 00	 push	 OFFSET FLAT:??_C@_0BM@HMFGHCP@?$CFs?5min?3?$CFd?0?5max?3?$CFd?0?5index?3?$CFd?$AA@
  009df	e8 00 00 00 00	 call	 ?Error@@YAPBDPBDZZ	; Error
  009e4	a1 5c 02 00 00	 mov	 eax, DWORD PTR ?prj@@3VCProject@@A+604
  009e9	83 c4 14	 add	 esp, 20			; 00000014H
$L268248:
  009ec	33 c9		 xor	 ecx, ecx
$L266653:
  009ee	83 79 78 25	 cmp	 DWORD PTR [ecx+120], 37	; 00000025H
  009f2	75 02		 jne	 SHORT $L268181

; 188  : 							b1 = FALSE;

  009f4	33 db		 xor	 ebx, ebx
$L268181:

; 189  : 						if( (((CUser*)pOwner)->m_dwPetfilter & FILTER_4PCARD) && pItem->GetProp()->dwID == II_GEN_MAT_ELE_MAGMA)

  009f6	8b 8d 30 57 00
	00		 mov	 ecx, DWORD PTR [ebp+22320]
  009fc	84 ed		 test	 ch, ch
  009fe	0f 89 7e 01 00
	00		 jns	 $L268186
  00a04	8b 8e 74 01 00
	00		 mov	 ecx, DWORD PTR [esi+372]
  00a0a	85 c9		 test	 ecx, ecx
  00a0c	7c 11		 jl	 SHORT $L266729
  00a0e	3b c8		 cmp	 ecx, eax
  00a10	7d 0d		 jge	 SHORT $L266729
  00a12	73 26		 jae	 SHORT $L268249
  00a14	8b 15 4c 02 00
	00		 mov	 edx, DWORD PTR ?prj@@3VCProject@@A+588
  00a1a	8b 0c 8a	 mov	 ecx, DWORD PTR [edx+ecx*4]
  00a1d	eb 1d		 jmp	 SHORT $L266724
$L266729:
  00a1f	51		 push	 ecx
  00a20	50		 push	 eax
  00a21	6a 00		 push	 0
  00a23	68 00 00 00 00	 push	 OFFSET FLAT:??_C@_0BI@BEIFNGEL@GetItemProp?5range_error?$AA@
  00a28	68 00 00 00 00	 push	 OFFSET FLAT:??_C@_0BM@HMFGHCP@?$CFs?5min?3?$CFd?0?5max?3?$CFd?0?5index?3?$CFd?$AA@
  00a2d	e8 00 00 00 00	 call	 ?Error@@YAPBDPBDZZ	; Error
  00a32	a1 5c 02 00 00	 mov	 eax, DWORD PTR ?prj@@3VCProject@@A+604
  00a37	83 c4 14	 add	 esp, 20			; 00000014H
$L268249:
  00a3a	33 c9		 xor	 ecx, ecx
$L266724:
  00a3c	81 39 87 0c 00
	00		 cmp	 DWORD PTR [ecx], 3207	; 00000c87H
  00a42	75 02		 jne	 SHORT $L268182

; 190  : 							b1 = FALSE;

  00a44	33 db		 xor	 ebx, ebx
$L268182:

; 191  : 						if( (((CUser*)pOwner)->m_dwPetfilter & FILTER_4PCARD) && pItem->GetProp()->dwID == II_GEN_MAT_ELE_FLOOD)

  00a46	8b 8d 30 57 00
	00		 mov	 ecx, DWORD PTR [ebp+22320]
  00a4c	84 ed		 test	 ch, ch
  00a4e	0f 89 2e 01 00
	00		 jns	 $L268186
  00a54	8b 8e 74 01 00
	00		 mov	 ecx, DWORD PTR [esi+372]
  00a5a	85 c9		 test	 ecx, ecx
  00a5c	7c 11		 jl	 SHORT $L266799
  00a5e	3b c8		 cmp	 ecx, eax
  00a60	7d 0d		 jge	 SHORT $L266799
  00a62	73 26		 jae	 SHORT $L268250
  00a64	8b 15 4c 02 00
	00		 mov	 edx, DWORD PTR ?prj@@3VCProject@@A+588
  00a6a	8b 0c 8a	 mov	 ecx, DWORD PTR [edx+ecx*4]
  00a6d	eb 1d		 jmp	 SHORT $L266794
$L266799:
  00a6f	51		 push	 ecx
  00a70	50		 push	 eax
  00a71	6a 00		 push	 0
  00a73	68 00 00 00 00	 push	 OFFSET FLAT:??_C@_0BI@BEIFNGEL@GetItemProp?5range_error?$AA@
  00a78	68 00 00 00 00	 push	 OFFSET FLAT:??_C@_0BM@HMFGHCP@?$CFs?5min?3?$CFd?0?5max?3?$CFd?0?5index?3?$CFd?$AA@
  00a7d	e8 00 00 00 00	 call	 ?Error@@YAPBDPBDZZ	; Error
  00a82	a1 5c 02 00 00	 mov	 eax, DWORD PTR ?prj@@3VCProject@@A+604
  00a87	83 c4 14	 add	 esp, 20			; 00000014H
$L268250:
  00a8a	33 c9		 xor	 ecx, ecx
$L266794:
  00a8c	81 39 8c 0c 00
	00		 cmp	 DWORD PTR [ecx], 3212	; 00000c8cH
  00a92	75 02		 jne	 SHORT $L268183

; 192  : 							b1 = FALSE;

  00a94	33 db		 xor	 ebx, ebx
$L268183:

; 193  : 						if( (((CUser*)pOwner)->m_dwPetfilter & FILTER_4PCARD) && pItem->GetProp()->dwID == II_GEN_MAT_ELE_STORM)

  00a96	8b 8d 30 57 00
	00		 mov	 ecx, DWORD PTR [ebp+22320]
  00a9c	84 ed		 test	 ch, ch
  00a9e	0f 89 de 00 00
	00		 jns	 $L268186
  00aa4	8b 8e 74 01 00
	00		 mov	 ecx, DWORD PTR [esi+372]
  00aaa	85 c9		 test	 ecx, ecx
  00aac	7c 11		 jl	 SHORT $L266869
  00aae	3b c8		 cmp	 ecx, eax
  00ab0	7d 0d		 jge	 SHORT $L266869
  00ab2	73 26		 jae	 SHORT $L268251
  00ab4	8b 15 4c 02 00
	00		 mov	 edx, DWORD PTR ?prj@@3VCProject@@A+588
  00aba	8b 0c 8a	 mov	 ecx, DWORD PTR [edx+ecx*4]
  00abd	eb 1d		 jmp	 SHORT $L266864
$L266869:
  00abf	51		 push	 ecx
  00ac0	50		 push	 eax
  00ac1	6a 00		 push	 0
  00ac3	68 00 00 00 00	 push	 OFFSET FLAT:??_C@_0BI@BEIFNGEL@GetItemProp?5range_error?$AA@
  00ac8	68 00 00 00 00	 push	 OFFSET FLAT:??_C@_0BM@HMFGHCP@?$CFs?5min?3?$CFd?0?5max?3?$CFd?0?5index?3?$CFd?$AA@
  00acd	e8 00 00 00 00	 call	 ?Error@@YAPBDPBDZZ	; Error
  00ad2	a1 5c 02 00 00	 mov	 eax, DWORD PTR ?prj@@3VCProject@@A+604
  00ad7	83 c4 14	 add	 esp, 20			; 00000014H
$L268251:
  00ada	33 c9		 xor	 ecx, ecx
$L266864:
  00adc	81 39 9b 0c 00
	00		 cmp	 DWORD PTR [ecx], 3227	; 00000c9bH
  00ae2	75 02		 jne	 SHORT $L268184

; 194  : 							b1 = FALSE;

  00ae4	33 db		 xor	 ebx, ebx
$L268184:

; 195  : 						if( (((CUser*)pOwner)->m_dwPetfilter & FILTER_4PCARD) && pItem->GetProp()->dwID == II_GEN_MAT_ELE_THUNDER)

  00ae6	8b 8d 30 57 00
	00		 mov	 ecx, DWORD PTR [ebp+22320]
  00aec	84 ed		 test	 ch, ch
  00aee	0f 89 8e 00 00
	00		 jns	 $L268186
  00af4	8b 8e 74 01 00
	00		 mov	 ecx, DWORD PTR [esi+372]
  00afa	85 c9		 test	 ecx, ecx
  00afc	7c 11		 jl	 SHORT $L266939
  00afe	3b c8		 cmp	 ecx, eax
  00b00	7d 0d		 jge	 SHORT $L266939
  00b02	73 26		 jae	 SHORT $L268252
  00b04	8b 15 4c 02 00
	00		 mov	 edx, DWORD PTR ?prj@@3VCProject@@A+588
  00b0a	8b 0c 8a	 mov	 ecx, DWORD PTR [edx+ecx*4]
  00b0d	eb 1d		 jmp	 SHORT $L266934
$L266939:
  00b0f	51		 push	 ecx
  00b10	50		 push	 eax
  00b11	6a 00		 push	 0
  00b13	68 00 00 00 00	 push	 OFFSET FLAT:??_C@_0BI@BEIFNGEL@GetItemProp?5range_error?$AA@
  00b18	68 00 00 00 00	 push	 OFFSET FLAT:??_C@_0BM@HMFGHCP@?$CFs?5min?3?$CFd?0?5max?3?$CFd?0?5index?3?$CFd?$AA@
  00b1d	e8 00 00 00 00	 call	 ?Error@@YAPBDPBDZZ	; Error
  00b22	a1 5c 02 00 00	 mov	 eax, DWORD PTR ?prj@@3VCProject@@A+604
  00b27	83 c4 14	 add	 esp, 20			; 00000014H
$L268252:
  00b2a	33 c9		 xor	 ecx, ecx
$L266934:
  00b2c	81 39 91 0c 00
	00		 cmp	 DWORD PTR [ecx], 3217	; 00000c91H
  00b32	75 02		 jne	 SHORT $L268185

; 196  : 							b1 = FALSE;

  00b34	33 db		 xor	 ebx, ebx
$L268185:

; 197  : 						if( (((CUser*)pOwner)->m_dwPetfilter & FILTER_4PCARD) && pItem->GetProp()->dwID == II_GEN_MAT_ELE_MOUNTAIN)

  00b36	8b 8d 30 57 00
	00		 mov	 ecx, DWORD PTR [ebp+22320]
  00b3c	84 ed		 test	 ch, ch
  00b3e	79 42		 jns	 SHORT $L268186
  00b40	8b 8e 74 01 00
	00		 mov	 ecx, DWORD PTR [esi+372]
  00b46	85 c9		 test	 ecx, ecx
  00b48	7c 11		 jl	 SHORT $L267009
  00b4a	3b c8		 cmp	 ecx, eax
  00b4c	7d 0d		 jge	 SHORT $L267009
  00b4e	73 26		 jae	 SHORT $L268253
  00b50	8b 15 4c 02 00
	00		 mov	 edx, DWORD PTR ?prj@@3VCProject@@A+588
  00b56	8b 0c 8a	 mov	 ecx, DWORD PTR [edx+ecx*4]
  00b59	eb 1d		 jmp	 SHORT $L267004
$L267009:
  00b5b	51		 push	 ecx
  00b5c	50		 push	 eax
  00b5d	6a 00		 push	 0
  00b5f	68 00 00 00 00	 push	 OFFSET FLAT:??_C@_0BI@BEIFNGEL@GetItemProp?5range_error?$AA@
  00b64	68 00 00 00 00	 push	 OFFSET FLAT:??_C@_0BM@HMFGHCP@?$CFs?5min?3?$CFd?0?5max?3?$CFd?0?5index?3?$CFd?$AA@
  00b69	e8 00 00 00 00	 call	 ?Error@@YAPBDPBDZZ	; Error
  00b6e	a1 5c 02 00 00	 mov	 eax, DWORD PTR ?prj@@3VCProject@@A+604
  00b73	83 c4 14	 add	 esp, 20			; 00000014H
$L268253:
  00b76	33 c9		 xor	 ecx, ecx
$L267004:
  00b78	81 39 96 0c 00
	00		 cmp	 DWORD PTR [ecx], 3222	; 00000c96H
  00b7e	75 02		 jne	 SHORT $L268186

; 198  : 							b1 = FALSE;

  00b80	33 db		 xor	 ebx, ebx
$L268186:

; 199  : 						if( (((CUser*)pOwner)->m_dwPetfilter & FILTER_7PCARD) && pItem->GetProp()->dwID == II_GEN_MAT_ELE_EARTHQUAKE)

  00b82	85 bd 30 57 00
	00		 test	 DWORD PTR [ebp+22320], edi
  00b88	0f 84 76 01 00
	00		 je	 $L268191
  00b8e	8b 8e 74 01 00
	00		 mov	 ecx, DWORD PTR [esi+372]
  00b94	85 c9		 test	 ecx, ecx
  00b96	7c 11		 jl	 SHORT $L267079
  00b98	3b c8		 cmp	 ecx, eax
  00b9a	7d 0d		 jge	 SHORT $L267079
  00b9c	73 26		 jae	 SHORT $L268254
  00b9e	8b 15 4c 02 00
	00		 mov	 edx, DWORD PTR ?prj@@3VCProject@@A+588
  00ba4	8b 0c 8a	 mov	 ecx, DWORD PTR [edx+ecx*4]
  00ba7	eb 1d		 jmp	 SHORT $L267074
$L267079:
  00ba9	51		 push	 ecx
  00baa	50		 push	 eax
  00bab	6a 00		 push	 0
  00bad	68 00 00 00 00	 push	 OFFSET FLAT:??_C@_0BI@BEIFNGEL@GetItemProp?5range_error?$AA@
  00bb2	68 00 00 00 00	 push	 OFFSET FLAT:??_C@_0BM@HMFGHCP@?$CFs?5min?3?$CFd?0?5max?3?$CFd?0?5index?3?$CFd?$AA@
  00bb7	e8 00 00 00 00	 call	 ?Error@@YAPBDPBDZZ	; Error
  00bbc	a1 5c 02 00 00	 mov	 eax, DWORD PTR ?prj@@3VCProject@@A+604
  00bc1	83 c4 14	 add	 esp, 20			; 00000014H
$L268254:
  00bc4	33 c9		 xor	 ecx, ecx
$L267074:
  00bc6	81 39 97 0c 00
	00		 cmp	 DWORD PTR [ecx], 3223	; 00000c97H
  00bcc	75 02		 jne	 SHORT $L268187

; 200  : 							b1 = FALSE;

  00bce	33 db		 xor	 ebx, ebx
$L268187:

; 201  : 						if( (((CUser*)pOwner)->m_dwPetfilter & FILTER_7PCARD) && pItem->GetProp()->dwID == II_GEN_MAT_ELE_LIGHTING)

  00bd0	85 bd 30 57 00
	00		 test	 DWORD PTR [ebp+22320], edi
  00bd6	0f 84 28 01 00
	00		 je	 $L268191
  00bdc	8b 8e 74 01 00
	00		 mov	 ecx, DWORD PTR [esi+372]
  00be2	85 c9		 test	 ecx, ecx
  00be4	7c 11		 jl	 SHORT $L267149
  00be6	3b c8		 cmp	 ecx, eax
  00be8	7d 0d		 jge	 SHORT $L267149
  00bea	73 26		 jae	 SHORT $L268255
  00bec	8b 15 4c 02 00
	00		 mov	 edx, DWORD PTR ?prj@@3VCProject@@A+588
  00bf2	8b 0c 8a	 mov	 ecx, DWORD PTR [edx+ecx*4]
  00bf5	eb 1d		 jmp	 SHORT $L267144
$L267149:
  00bf7	51		 push	 ecx
  00bf8	50		 push	 eax
  00bf9	6a 00		 push	 0
  00bfb	68 00 00 00 00	 push	 OFFSET FLAT:??_C@_0BI@BEIFNGEL@GetItemProp?5range_error?$AA@
  00c00	68 00 00 00 00	 push	 OFFSET FLAT:??_C@_0BM@HMFGHCP@?$CFs?5min?3?$CFd?0?5max?3?$CFd?0?5index?3?$CFd?$AA@
  00c05	e8 00 00 00 00	 call	 ?Error@@YAPBDPBDZZ	; Error
  00c0a	a1 5c 02 00 00	 mov	 eax, DWORD PTR ?prj@@3VCProject@@A+604
  00c0f	83 c4 14	 add	 esp, 20			; 00000014H
$L268255:
  00c12	33 c9		 xor	 ecx, ecx
$L267144:
  00c14	81 39 92 0c 00
	00		 cmp	 DWORD PTR [ecx], 3218	; 00000c92H
  00c1a	75 02		 jne	 SHORT $L268188

; 202  : 							b1 = FALSE;

  00c1c	33 db		 xor	 ebx, ebx
$L268188:

; 203  : 						if( (((CUser*)pOwner)->m_dwPetfilter & FILTER_7PCARD) && pItem->GetProp()->dwID == II_GEN_MAT_ELE_VACCUM)

  00c1e	85 bd 30 57 00
	00		 test	 DWORD PTR [ebp+22320], edi
  00c24	0f 84 da 00 00
	00		 je	 $L268191
  00c2a	8b 8e 74 01 00
	00		 mov	 ecx, DWORD PTR [esi+372]
  00c30	85 c9		 test	 ecx, ecx
  00c32	7c 11		 jl	 SHORT $L267219
  00c34	3b c8		 cmp	 ecx, eax
  00c36	7d 0d		 jge	 SHORT $L267219
  00c38	73 26		 jae	 SHORT $L268256
  00c3a	8b 15 4c 02 00
	00		 mov	 edx, DWORD PTR ?prj@@3VCProject@@A+588
  00c40	8b 0c 8a	 mov	 ecx, DWORD PTR [edx+ecx*4]
  00c43	eb 1d		 jmp	 SHORT $L267214
$L267219:
  00c45	51		 push	 ecx
  00c46	50		 push	 eax
  00c47	6a 00		 push	 0
  00c49	68 00 00 00 00	 push	 OFFSET FLAT:??_C@_0BI@BEIFNGEL@GetItemProp?5range_error?$AA@
  00c4e	68 00 00 00 00	 push	 OFFSET FLAT:??_C@_0BM@HMFGHCP@?$CFs?5min?3?$CFd?0?5max?3?$CFd?0?5index?3?$CFd?$AA@
  00c53	e8 00 00 00 00	 call	 ?Error@@YAPBDPBDZZ	; Error
  00c58	a1 5c 02 00 00	 mov	 eax, DWORD PTR ?prj@@3VCProject@@A+604
  00c5d	83 c4 14	 add	 esp, 20			; 00000014H
$L268256:
  00c60	33 c9		 xor	 ecx, ecx
$L267214:
  00c62	81 39 9c 0c 00
	00		 cmp	 DWORD PTR [ecx], 3228	; 00000c9cH
  00c68	75 02		 jne	 SHORT $L268189

; 204  : 							b1 = FALSE;

  00c6a	33 db		 xor	 ebx, ebx
$L268189:

; 205  : 						if( (((CUser*)pOwner)->m_dwPetfilter & FILTER_7PCARD) && pItem->GetProp()->dwID == II_GEN_MAT_ELE_OCEAN)

  00c6c	85 bd 30 57 00
	00		 test	 DWORD PTR [ebp+22320], edi
  00c72	0f 84 8c 00 00
	00		 je	 $L268191
  00c78	8b 8e 74 01 00
	00		 mov	 ecx, DWORD PTR [esi+372]
  00c7e	85 c9		 test	 ecx, ecx
  00c80	7c 11		 jl	 SHORT $L267281
  00c82	3b c8		 cmp	 ecx, eax
  00c84	7d 0d		 jge	 SHORT $L267281
  00c86	73 26		 jae	 SHORT $L268257
  00c88	8b 15 4c 02 00
	00		 mov	 edx, DWORD PTR ?prj@@3VCProject@@A+588
  00c8e	8b 0c 8a	 mov	 ecx, DWORD PTR [edx+ecx*4]
  00c91	eb 1d		 jmp	 SHORT $L267299
$L267281:
  00c93	51		 push	 ecx
  00c94	50		 push	 eax
  00c95	6a 00		 push	 0
  00c97	68 00 00 00 00	 push	 OFFSET FLAT:??_C@_0BI@BEIFNGEL@GetItemProp?5range_error?$AA@
  00c9c	68 00 00 00 00	 push	 OFFSET FLAT:??_C@_0BM@HMFGHCP@?$CFs?5min?3?$CFd?0?5max?3?$CFd?0?5index?3?$CFd?$AA@
  00ca1	e8 00 00 00 00	 call	 ?Error@@YAPBDPBDZZ	; Error
  00ca6	a1 5c 02 00 00	 mov	 eax, DWORD PTR ?prj@@3VCProject@@A+604
  00cab	83 c4 14	 add	 esp, 20			; 00000014H
$L268257:
  00cae	33 c9		 xor	 ecx, ecx
$L267299:
  00cb0	81 39 8d 0c 00
	00		 cmp	 DWORD PTR [ecx], 3213	; 00000c8dH
  00cb6	75 02		 jne	 SHORT $L268190

; 206  : 							b1 = FALSE;

  00cb8	33 db		 xor	 ebx, ebx
$L268190:

; 207  : 						if( (((CUser*)pOwner)->m_dwPetfilter & FILTER_7PCARD) && pItem->GetProp()->dwID == II_GEN_MAT_ELE_VOLCANO)

  00cba	85 bd 30 57 00
	00		 test	 DWORD PTR [ebp+22320], edi
  00cc0	74 42		 je	 SHORT $L268191
  00cc2	8b 8e 74 01 00
	00		 mov	 ecx, DWORD PTR [esi+372]
  00cc8	85 c9		 test	 ecx, ecx
  00cca	7c 11		 jl	 SHORT $L267371
  00ccc	3b c8		 cmp	 ecx, eax
  00cce	7d 0d		 jge	 SHORT $L267371
  00cd0	73 26		 jae	 SHORT $L268258
  00cd2	8b 15 4c 02 00
	00		 mov	 edx, DWORD PTR ?prj@@3VCProject@@A+588
  00cd8	8b 0c 8a	 mov	 ecx, DWORD PTR [edx+ecx*4]
  00cdb	eb 1d		 jmp	 SHORT $L267366
$L267371:
  00cdd	51		 push	 ecx
  00cde	50		 push	 eax
  00cdf	6a 00		 push	 0
  00ce1	68 00 00 00 00	 push	 OFFSET FLAT:??_C@_0BI@BEIFNGEL@GetItemProp?5range_error?$AA@
  00ce6	68 00 00 00 00	 push	 OFFSET FLAT:??_C@_0BM@HMFGHCP@?$CFs?5min?3?$CFd?0?5max?3?$CFd?0?5index?3?$CFd?$AA@
  00ceb	e8 00 00 00 00	 call	 ?Error@@YAPBDPBDZZ	; Error
  00cf0	a1 5c 02 00 00	 mov	 eax, DWORD PTR ?prj@@3VCProject@@A+604
  00cf5	83 c4 14	 add	 esp, 20			; 00000014H
$L268258:
  00cf8	33 c9		 xor	 ecx, ecx
$L267366:
  00cfa	81 39 88 0c 00
	00		 cmp	 DWORD PTR [ecx], 3208	; 00000c88H
  00d00	75 02		 jne	 SHORT $L268191

; 208  : 							b1 = FALSE;

  00d02	33 db		 xor	 ebx, ebx
$L268191:

; 209  : 						if( (((CUser*)pOwner)->m_dwPetfilter & FILTER_BPIECARD) && pItem->GetProp()->dwID == II_GEN_MAT_ELE_CANDLEB)

  00d04	f7 85 30 57 00
	00 00 00 02 00	 test	 DWORD PTR [ebp+22320], 131072 ; 00020000H
  00d0e	0f 84 86 01 00
	00		 je	 $L268196
  00d14	8b 8e 74 01 00
	00		 mov	 ecx, DWORD PTR [esi+372]
  00d1a	85 c9		 test	 ecx, ecx
  00d1c	7c 11		 jl	 SHORT $L267441
  00d1e	3b c8		 cmp	 ecx, eax
  00d20	7d 0d		 jge	 SHORT $L267441
  00d22	73 26		 jae	 SHORT $L268259
  00d24	8b 15 4c 02 00
	00		 mov	 edx, DWORD PTR ?prj@@3VCProject@@A+588
  00d2a	8b 0c 8a	 mov	 ecx, DWORD PTR [edx+ecx*4]
  00d2d	eb 1d		 jmp	 SHORT $L267436
$L267441:
  00d2f	51		 push	 ecx
  00d30	50		 push	 eax
  00d31	6a 00		 push	 0
  00d33	68 00 00 00 00	 push	 OFFSET FLAT:??_C@_0BI@BEIFNGEL@GetItemProp?5range_error?$AA@
  00d38	68 00 00 00 00	 push	 OFFSET FLAT:??_C@_0BM@HMFGHCP@?$CFs?5min?3?$CFd?0?5max?3?$CFd?0?5index?3?$CFd?$AA@
  00d3d	e8 00 00 00 00	 call	 ?Error@@YAPBDPBDZZ	; Error
  00d42	a1 5c 02 00 00	 mov	 eax, DWORD PTR ?prj@@3VCProject@@A+604
  00d47	83 c4 14	 add	 esp, 20			; 00000014H
$L268259:
  00d4a	33 c9		 xor	 ecx, ecx
$L267436:
  00d4c	81 39 e4 67 00
	00		 cmp	 DWORD PTR [ecx], 26596	; 000067e4H
  00d52	75 02		 jne	 SHORT $L268192

; 210  : 							b1 = FALSE;

  00d54	33 db		 xor	 ebx, ebx
$L268192:

; 211  : 						if( (((CUser*)pOwner)->m_dwPetfilter & FILTER_BPIECARD) && pItem->GetProp()->dwID == II_GEN_MAT_ELE_RAINATKB)

  00d56	f7 85 30 57 00
	00 00 00 02 00	 test	 DWORD PTR [ebp+22320], 131072 ; 00020000H
  00d60	0f 84 34 01 00
	00		 je	 $L268196
  00d66	8b 8e 74 01 00
	00		 mov	 ecx, DWORD PTR [esi+372]
  00d6c	85 c9		 test	 ecx, ecx
  00d6e	7c 11		 jl	 SHORT $L267511
  00d70	3b c8		 cmp	 ecx, eax
  00d72	7d 0d		 jge	 SHORT $L267511
  00d74	73 26		 jae	 SHORT $L268260
  00d76	8b 15 4c 02 00
	00		 mov	 edx, DWORD PTR ?prj@@3VCProject@@A+588
  00d7c	8b 0c 8a	 mov	 ecx, DWORD PTR [edx+ecx*4]
  00d7f	eb 1d		 jmp	 SHORT $L267506
$L267511:
  00d81	51		 push	 ecx
  00d82	50		 push	 eax
  00d83	6a 00		 push	 0
  00d85	68 00 00 00 00	 push	 OFFSET FLAT:??_C@_0BI@BEIFNGEL@GetItemProp?5range_error?$AA@
  00d8a	68 00 00 00 00	 push	 OFFSET FLAT:??_C@_0BM@HMFGHCP@?$CFs?5min?3?$CFd?0?5max?3?$CFd?0?5index?3?$CFd?$AA@
  00d8f	e8 00 00 00 00	 call	 ?Error@@YAPBDPBDZZ	; Error
  00d94	a1 5c 02 00 00	 mov	 eax, DWORD PTR ?prj@@3VCProject@@A+604
  00d99	83 c4 14	 add	 esp, 20			; 00000014H
$L268260:
  00d9c	33 c9		 xor	 ecx, ecx
$L267506:
  00d9e	81 39 e8 67 00
	00		 cmp	 DWORD PTR [ecx], 26600	; 000067e8H
  00da4	75 02		 jne	 SHORT $L268193

; 212  : 							b1 = FALSE;

  00da6	33 db		 xor	 ebx, ebx
$L268193:

; 213  : 						if( (((CUser*)pOwner)->m_dwPetfilter & FILTER_BPIECARD) && pItem->GetProp()->dwID == II_GEN_MAT_ELE_BREEZEATKB)

  00da8	f7 85 30 57 00
	00 00 00 02 00	 test	 DWORD PTR [ebp+22320], 131072 ; 00020000H
  00db2	0f 84 e2 00 00
	00		 je	 $L268196
  00db8	8b 8e 74 01 00
	00		 mov	 ecx, DWORD PTR [esi+372]
  00dbe	85 c9		 test	 ecx, ecx
  00dc0	7c 11		 jl	 SHORT $L267581
  00dc2	3b c8		 cmp	 ecx, eax
  00dc4	7d 0d		 jge	 SHORT $L267581
  00dc6	73 26		 jae	 SHORT $L268261
  00dc8	8b 15 4c 02 00
	00		 mov	 edx, DWORD PTR ?prj@@3VCProject@@A+588
  00dce	8b 0c 8a	 mov	 ecx, DWORD PTR [edx+ecx*4]
  00dd1	eb 1d		 jmp	 SHORT $L267576
$L267581:
  00dd3	51		 push	 ecx
  00dd4	50		 push	 eax
  00dd5	6a 00		 push	 0
  00dd7	68 00 00 00 00	 push	 OFFSET FLAT:??_C@_0BI@BEIFNGEL@GetItemProp?5range_error?$AA@
  00ddc	68 00 00 00 00	 push	 OFFSET FLAT:??_C@_0BM@HMFGHCP@?$CFs?5min?3?$CFd?0?5max?3?$CFd?0?5index?3?$CFd?$AA@
  00de1	e8 00 00 00 00	 call	 ?Error@@YAPBDPBDZZ	; Error
  00de6	a1 5c 02 00 00	 mov	 eax, DWORD PTR ?prj@@3VCProject@@A+604
  00deb	83 c4 14	 add	 esp, 20			; 00000014H
$L268261:
  00dee	33 c9		 xor	 ecx, ecx
$L267576:
  00df0	81 39 ec 67 00
	00		 cmp	 DWORD PTR [ecx], 26604	; 000067ecH
  00df6	75 02		 jne	 SHORT $L268194

; 214  : 							b1 = FALSE;

  00df8	33 db		 xor	 ebx, ebx
$L268194:

; 215  : 						if( (((CUser*)pOwner)->m_dwPetfilter & FILTER_BPIECARD) && pItem->GetProp()->dwID == II_GEN_MAT_ELE_SPARKATKB)

  00dfa	f7 85 30 57 00
	00 00 00 02 00	 test	 DWORD PTR [ebp+22320], 131072 ; 00020000H
  00e04	0f 84 90 00 00
	00		 je	 $L268196
  00e0a	8b 8e 74 01 00
	00		 mov	 ecx, DWORD PTR [esi+372]
  00e10	85 c9		 test	 ecx, ecx
  00e12	7c 11		 jl	 SHORT $L267638
  00e14	3b c8		 cmp	 ecx, eax
  00e16	7d 0d		 jge	 SHORT $L267638
  00e18	73 26		 jae	 SHORT $L268262
  00e1a	8b 15 4c 02 00
	00		 mov	 edx, DWORD PTR ?prj@@3VCProject@@A+588
  00e20	8b 0c 8a	 mov	 ecx, DWORD PTR [edx+ecx*4]
  00e23	eb 1d		 jmp	 SHORT $L267633
$L267638:
  00e25	51		 push	 ecx
  00e26	50		 push	 eax
  00e27	6a 00		 push	 0
  00e29	68 00 00 00 00	 push	 OFFSET FLAT:??_C@_0BI@BEIFNGEL@GetItemProp?5range_error?$AA@
  00e2e	68 00 00 00 00	 push	 OFFSET FLAT:??_C@_0BM@HMFGHCP@?$CFs?5min?3?$CFd?0?5max?3?$CFd?0?5index?3?$CFd?$AA@
  00e33	e8 00 00 00 00	 call	 ?Error@@YAPBDPBDZZ	; Error
  00e38	a1 5c 02 00 00	 mov	 eax, DWORD PTR ?prj@@3VCProject@@A+604
  00e3d	83 c4 14	 add	 esp, 20			; 00000014H
$L268262:
  00e40	33 c9		 xor	 ecx, ecx
$L267633:
  00e42	81 39 f0 67 00
	00		 cmp	 DWORD PTR [ecx], 26608	; 000067f0H
  00e48	75 02		 jne	 SHORT $L268195

; 216  : 							b1 = FALSE;

  00e4a	33 db		 xor	 ebx, ebx
$L268195:

; 217  : 						if( (((CUser*)pOwner)->m_dwPetfilter & FILTER_BPIECARD) && pItem->GetProp()->dwID == II_GEN_MAT_ELE_SANDATKB)

  00e4c	f7 85 30 57 00
	00 00 00 02 00	 test	 DWORD PTR [ebp+22320], 131072 ; 00020000H
  00e56	74 42		 je	 SHORT $L268196
  00e58	8b 8e 74 01 00
	00		 mov	 ecx, DWORD PTR [esi+372]
  00e5e	85 c9		 test	 ecx, ecx
  00e60	7c 11		 jl	 SHORT $L267708
  00e62	3b c8		 cmp	 ecx, eax
  00e64	7d 0d		 jge	 SHORT $L267708
  00e66	73 26		 jae	 SHORT $L268263
  00e68	8b 15 4c 02 00
	00		 mov	 edx, DWORD PTR ?prj@@3VCProject@@A+588
  00e6e	8b 0c 8a	 mov	 ecx, DWORD PTR [edx+ecx*4]
  00e71	eb 1d		 jmp	 SHORT $L267703
$L267708:
  00e73	51		 push	 ecx
  00e74	50		 push	 eax
  00e75	6a 00		 push	 0
  00e77	68 00 00 00 00	 push	 OFFSET FLAT:??_C@_0BI@BEIFNGEL@GetItemProp?5range_error?$AA@
  00e7c	68 00 00 00 00	 push	 OFFSET FLAT:??_C@_0BM@HMFGHCP@?$CFs?5min?3?$CFd?0?5max?3?$CFd?0?5index?3?$CFd?$AA@
  00e81	e8 00 00 00 00	 call	 ?Error@@YAPBDPBDZZ	; Error
  00e86	a1 5c 02 00 00	 mov	 eax, DWORD PTR ?prj@@3VCProject@@A+604
  00e8b	83 c4 14	 add	 esp, 20			; 00000014H
$L268263:
  00e8e	33 c9		 xor	 ecx, ecx
$L267703:
  00e90	81 39 f4 67 00
	00		 cmp	 DWORD PTR [ecx], 26612	; 000067f4H
  00e96	75 02		 jne	 SHORT $L268196

; 218  : 							b1 = FALSE;

  00e98	33 db		 xor	 ebx, ebx
$L268196:

; 219  : 						if( (((CUser*)pOwner)->m_dwPetfilter & FILTER_APIECARD) && pItem->GetProp()->dwID == II_GEN_MAT_ELE_SANDATKA)

  00e9a	f7 85 30 57 00
	00 00 00 04 00	 test	 DWORD PTR [ebp+22320], 262144 ; 00040000H
  00ea4	0f 84 88 01 00
	00		 je	 $L259199
  00eaa	8b 8e 74 01 00
	00		 mov	 ecx, DWORD PTR [esi+372]
  00eb0	85 c9		 test	 ecx, ecx
  00eb2	7c 11		 jl	 SHORT $L267779
  00eb4	3b c8		 cmp	 ecx, eax
  00eb6	7d 0d		 jge	 SHORT $L267779
  00eb8	73 26		 jae	 SHORT $L268264
  00eba	8b 15 4c 02 00
	00		 mov	 edx, DWORD PTR ?prj@@3VCProject@@A+588
  00ec0	8b 0c 8a	 mov	 ecx, DWORD PTR [edx+ecx*4]
  00ec3	eb 1d		 jmp	 SHORT $L267774
$L267779:
  00ec5	51		 push	 ecx
  00ec6	50		 push	 eax
  00ec7	6a 00		 push	 0
  00ec9	68 00 00 00 00	 push	 OFFSET FLAT:??_C@_0BI@BEIFNGEL@GetItemProp?5range_error?$AA@
  00ece	68 00 00 00 00	 push	 OFFSET FLAT:??_C@_0BM@HMFGHCP@?$CFs?5min?3?$CFd?0?5max?3?$CFd?0?5index?3?$CFd?$AA@
  00ed3	e8 00 00 00 00	 call	 ?Error@@YAPBDPBDZZ	; Error
  00ed8	a1 5c 02 00 00	 mov	 eax, DWORD PTR ?prj@@3VCProject@@A+604
  00edd	83 c4 14	 add	 esp, 20			; 00000014H
$L268264:
  00ee0	33 c9		 xor	 ecx, ecx
$L267774:
  00ee2	81 39 f5 67 00
	00		 cmp	 DWORD PTR [ecx], 26613	; 000067f5H
  00ee8	75 02		 jne	 SHORT $L268197

; 220  : 							b1 = FALSE;

  00eea	33 db		 xor	 ebx, ebx
$L268197:

; 221  : 						if( (((CUser*)pOwner)->m_dwPetfilter & FILTER_APIECARD) && pItem->GetProp()->dwID == II_GEN_MAT_ELE_SPARKATKA)

  00eec	f7 85 30 57 00
	00 00 00 04 00	 test	 DWORD PTR [ebp+22320], 262144 ; 00040000H
  00ef6	0f 84 36 01 00
	00		 je	 $L259199
  00efc	8b 8e 74 01 00
	00		 mov	 ecx, DWORD PTR [esi+372]
  00f02	85 c9		 test	 ecx, ecx
  00f04	7c 11		 jl	 SHORT $L267849
  00f06	3b c8		 cmp	 ecx, eax
  00f08	7d 0d		 jge	 SHORT $L267849
  00f0a	73 26		 jae	 SHORT $L268265
  00f0c	8b 15 4c 02 00
	00		 mov	 edx, DWORD PTR ?prj@@3VCProject@@A+588
  00f12	8b 0c 8a	 mov	 ecx, DWORD PTR [edx+ecx*4]
  00f15	eb 1d		 jmp	 SHORT $L267844
$L267849:
  00f17	51		 push	 ecx
  00f18	50		 push	 eax
  00f19	6a 00		 push	 0
  00f1b	68 00 00 00 00	 push	 OFFSET FLAT:??_C@_0BI@BEIFNGEL@GetItemProp?5range_error?$AA@
  00f20	68 00 00 00 00	 push	 OFFSET FLAT:??_C@_0BM@HMFGHCP@?$CFs?5min?3?$CFd?0?5max?3?$CFd?0?5index?3?$CFd?$AA@
  00f25	e8 00 00 00 00	 call	 ?Error@@YAPBDPBDZZ	; Error
  00f2a	a1 5c 02 00 00	 mov	 eax, DWORD PTR ?prj@@3VCProject@@A+604
  00f2f	83 c4 14	 add	 esp, 20			; 00000014H
$L268265:
  00f32	33 c9		 xor	 ecx, ecx
$L267844:
  00f34	81 39 f1 67 00
	00		 cmp	 DWORD PTR [ecx], 26609	; 000067f1H
  00f3a	75 02		 jne	 SHORT $L268198

; 222  : 							b1 = FALSE;

  00f3c	33 db		 xor	 ebx, ebx
$L268198:

; 223  : 						if( (((CUser*)pOwner)->m_dwPetfilter & FILTER_APIECARD) && pItem->GetProp()->dwID == II_GEN_MAT_ELE_BREEZEATKA)

  00f3e	f7 85 30 57 00
	00 00 00 04 00	 test	 DWORD PTR [ebp+22320], 262144 ; 00040000H
  00f48	0f 84 e4 00 00
	00		 je	 $L259199
  00f4e	8b 8e 74 01 00
	00		 mov	 ecx, DWORD PTR [esi+372]
  00f54	85 c9		 test	 ecx, ecx
  00f56	7c 11		 jl	 SHORT $L267919
  00f58	3b c8		 cmp	 ecx, eax
  00f5a	7d 0d		 jge	 SHORT $L267919
  00f5c	73 26		 jae	 SHORT $L268266
  00f5e	8b 15 4c 02 00
	00		 mov	 edx, DWORD PTR ?prj@@3VCProject@@A+588
  00f64	8b 0c 8a	 mov	 ecx, DWORD PTR [edx+ecx*4]
  00f67	eb 1d		 jmp	 SHORT $L267914
$L267919:
  00f69	51		 push	 ecx
  00f6a	50		 push	 eax
  00f6b	6a 00		 push	 0
  00f6d	68 00 00 00 00	 push	 OFFSET FLAT:??_C@_0BI@BEIFNGEL@GetItemProp?5range_error?$AA@
  00f72	68 00 00 00 00	 push	 OFFSET FLAT:??_C@_0BM@HMFGHCP@?$CFs?5min?3?$CFd?0?5max?3?$CFd?0?5index?3?$CFd?$AA@
  00f77	e8 00 00 00 00	 call	 ?Error@@YAPBDPBDZZ	; Error
  00f7c	a1 5c 02 00 00	 mov	 eax, DWORD PTR ?prj@@3VCProject@@A+604
  00f81	83 c4 14	 add	 esp, 20			; 00000014H
$L268266:
  00f84	33 c9		 xor	 ecx, ecx
$L267914:
  00f86	81 39 ed 67 00
	00		 cmp	 DWORD PTR [ecx], 26605	; 000067edH
  00f8c	75 02		 jne	 SHORT $L268199

; 224  : 							b1 = FALSE;

  00f8e	33 db		 xor	 ebx, ebx
$L268199:

; 225  : 						if( (((CUser*)pOwner)->m_dwPetfilter & FILTER_APIECARD) && pItem->GetProp()->dwID == II_GEN_MAT_ELE_RAINATKA)

  00f90	f7 85 30 57 00
	00 00 00 04 00	 test	 DWORD PTR [ebp+22320], 262144 ; 00040000H
  00f9a	0f 84 92 00 00
	00		 je	 $L259199
  00fa0	8b 8e 74 01 00
	00		 mov	 ecx, DWORD PTR [esi+372]
  00fa6	85 c9		 test	 ecx, ecx
  00fa8	7c 11		 jl	 SHORT $L267989
  00faa	3b c8		 cmp	 ecx, eax
  00fac	7d 0d		 jge	 SHORT $L267989
  00fae	73 26		 jae	 SHORT $L268267
  00fb0	8b 15 4c 02 00
	00		 mov	 edx, DWORD PTR ?prj@@3VCProject@@A+588
  00fb6	8b 0c 8a	 mov	 ecx, DWORD PTR [edx+ecx*4]
  00fb9	eb 1d		 jmp	 SHORT $L267984
$L267989:
  00fbb	51		 push	 ecx
  00fbc	50		 push	 eax
  00fbd	6a 00		 push	 0
  00fbf	68 00 00 00 00	 push	 OFFSET FLAT:??_C@_0BI@BEIFNGEL@GetItemProp?5range_error?$AA@
  00fc4	68 00 00 00 00	 push	 OFFSET FLAT:??_C@_0BM@HMFGHCP@?$CFs?5min?3?$CFd?0?5max?3?$CFd?0?5index?3?$CFd?$AA@
  00fc9	e8 00 00 00 00	 call	 ?Error@@YAPBDPBDZZ	; Error
  00fce	a1 5c 02 00 00	 mov	 eax, DWORD PTR ?prj@@3VCProject@@A+604
  00fd3	83 c4 14	 add	 esp, 20			; 00000014H
$L268267:
  00fd6	33 c9		 xor	 ecx, ecx
$L267984:
  00fd8	81 39 e9 67 00
	00		 cmp	 DWORD PTR [ecx], 26601	; 000067e9H
  00fde	75 02		 jne	 SHORT $L268200

; 226  : 							b1 = FALSE;

  00fe0	33 db		 xor	 ebx, ebx
$L268200:

; 227  : 						if( (((CUser*)pOwner)->m_dwPetfilter & FILTER_APIECARD) && pItem->GetProp()->dwID == II_GEN_MAT_ELE_CANDLEA)

  00fe2	f7 85 30 57 00
	00 00 00 04 00	 test	 DWORD PTR [ebp+22320], 262144 ; 00040000H
  00fec	74 44		 je	 SHORT $L259199
  00fee	8b 8e 74 01 00
	00		 mov	 ecx, DWORD PTR [esi+372]
  00ff4	85 c9		 test	 ecx, ecx
  00ff6	7c 18		 jl	 SHORT $L268059
  00ff8	3b c8		 cmp	 ecx, eax
  00ffa	7d 14		 jge	 SHORT $L268059
  00ffc	72 06		 jb	 SHORT $L268071
  00ffe	33 c9		 xor	 ecx, ecx
  01000	8b c1		 mov	 eax, ecx
  01002	eb 24		 jmp	 SHORT $L268054
$L268071:
  01004	a1 4c 02 00 00	 mov	 eax, DWORD PTR ?prj@@3VCProject@@A+588
  01009	8b 0c 88	 mov	 ecx, DWORD PTR [eax+ecx*4]
  0100c	8b c1		 mov	 eax, ecx
  0100e	eb 18		 jmp	 SHORT $L268054
$L268059:
  01010	51		 push	 ecx
  01011	50		 push	 eax
  01012	6a 00		 push	 0
  01014	68 00 00 00 00	 push	 OFFSET FLAT:??_C@_0BI@BEIFNGEL@GetItemProp?5range_error?$AA@
  01019	68 00 00 00 00	 push	 OFFSET FLAT:??_C@_0BM@HMFGHCP@?$CFs?5min?3?$CFd?0?5max?3?$CFd?0?5index?3?$CFd?$AA@
  0101e	e8 00 00 00 00	 call	 ?Error@@YAPBDPBDZZ	; Error
  01023	83 c4 14	 add	 esp, 20			; 00000014H
  01026	33 c0		 xor	 eax, eax
$L268054:
  01028	81 38 e5 67 00
	00		 cmp	 DWORD PTR [eax], 26597	; 000067e5H
  0102e	75 02		 jne	 SHORT $L259199

; 228  : 							b1 = FALSE;

  01030	33 db		 xor	 ebx, ebx
$L259199:

; 229  : 					
; 230  : 
; 231  : 					if( pOwner->IsLoot( pItem, TRUE ) && b1 )//  .

  01032	6a 01		 push	 1
  01034	56		 push	 esi
  01035	8b cd		 mov	 ecx, ebp
  01037	e8 00 00 00 00	 call	 ?IsLoot@CMover@@QAEHPAVCItem@@H@Z ; CMover::IsLoot
  0103c	85 c0		 test	 eax, eax
  0103e	0f 84 dd 00 00
	00		 je	 $L268155
  01044	85 db		 test	 ebx, ebx
  01046	0f 84 d5 00 00
	00		 je	 $L268155

; 232  : #else //__PETFILTER
; 233  : 					if( pOwner->IsLoot( pItem, TRUE) )
; 234  : #endif //__PETFILTER
; 235  : 					if( pOwner->IsLoot( pItem, TRUE) )//  .

  0104c	6a 01		 push	 1
  0104e	56		 push	 esi
  0104f	8b cd		 mov	 ecx, ebp
  01051	e8 00 00 00 00	 call	 ?IsLoot@CMover@@QAEHPAVCItem@@H@Z ; CMover::IsLoot
  01056	85 c0		 test	 eax, eax
  01058	0f 84 c3 00 00
	00		 je	 $L268155

; 236  : 					{
; 237  : 						vDist = pObj->GetPos() - pMover->GetPos();

  0105e	8b 44 24 10	 mov	 eax, DWORD PTR _pMover$[esp+140]
  01062	05 60 01 00 00	 add	 eax, 352		; 00000160H
  01067	8b 08		 mov	 ecx, DWORD PTR [eax]
  01069	8b 50 04	 mov	 edx, DWORD PTR [eax+4]
  0106c	8b 40 08	 mov	 eax, DWORD PTR [eax+8]
  0106f	89 4c 24 74	 mov	 DWORD PTR $T264964[esp+140], ecx
  01073	89 54 24 78	 mov	 DWORD PTR $T264964[esp+144], edx
  01077	8d 8e 60 01 00
	00		 lea	 ecx, DWORD PTR [esi+352]
  0107d	8b 11		 mov	 edx, DWORD PTR [ecx]
  0107f	89 94 24 80 00
	00 00		 mov	 DWORD PTR $T264963[esp+140], edx
  01086	d9 84 24 80 00
	00 00		 fld	 DWORD PTR $T264963[esp+140]
  0108d	d8 64 24 74	 fsub	 DWORD PTR $T264964[esp+140]
  01091	89 44 24 7c	 mov	 DWORD PTR $T264964[esp+148], eax
  01095	8b 41 04	 mov	 eax, DWORD PTR [ecx+4]
  01098	8b 49 08	 mov	 ecx, DWORD PTR [ecx+8]
  0109b	d9 5c 24 68	 fstp	 DWORD PTR $T264965[esp+140]
  0109f	8b 54 24 68	 mov	 edx, DWORD PTR $T264965[esp+140]
  010a3	89 84 24 84 00
	00 00		 mov	 DWORD PTR $T264963[esp+144], eax
  010aa	d9 84 24 84 00
	00 00		 fld	 DWORD PTR $T264963[esp+144]
  010b1	d8 64 24 78	 fsub	 DWORD PTR $T264964[esp+144]
  010b5	89 8c 24 88 00
	00 00		 mov	 DWORD PTR $T264963[esp+148], ecx
  010bc	89 54 24 5c	 mov	 DWORD PTR _vDist$[esp+140], edx
  010c0	d9 5c 24 6c	 fstp	 DWORD PTR $T264965[esp+144]
  010c4	8b 44 24 6c	 mov	 eax, DWORD PTR $T264965[esp+144]
  010c8	d9 84 24 88 00
	00 00		 fld	 DWORD PTR $T264963[esp+148]
  010cf	89 44 24 60	 mov	 DWORD PTR _vDist$[esp+144], eax
  010d3	d8 64 24 7c	 fsub	 DWORD PTR $T264964[esp+148]
  010d7	d9 5c 24 70	 fstp	 DWORD PTR $T264965[esp+148]
  010db	8b 4c 24 70	 mov	 ecx, DWORD PTR $T264965[esp+148]
  010df	89 4c 24 64	 mov	 DWORD PTR _vDist$[esp+148], ecx

; 238  : 						fDistSq = D3DXVec3LengthSq( &vDist );		//  .

  010e3	d9 44 24 64	 fld	 DWORD PTR _vDist$[esp+148]
  010e7	d8 4c 24 64	 fmul	 DWORD PTR _vDist$[esp+148]
  010eb	d9 44 24 60	 fld	 DWORD PTR _vDist$[esp+144]
  010ef	d8 4c 24 60	 fmul	 DWORD PTR _vDist$[esp+144]
  010f3	de c1		 faddp	 ST(1), ST(0)
  010f5	d9 44 24 5c	 fld	 DWORD PTR _vDist$[esp+140]
  010f9	d8 4c 24 5c	 fmul	 DWORD PTR _vDist$[esp+140]
  010fd	de c1		 faddp	 ST(1), ST(0)

; 239  : 						if( fDistSq < 15 * 15 && fDistSq < fMinDist )	// 10 ...     .

  010ff	d8 15 00 00 00
	00		 fcom	 DWORD PTR __real@43610000
  01105	df e0		 fnstsw	 ax
  01107	f6 c4 05	 test	 ah, 5
  0110a	7a 13		 jp	 SHORT $L268156
  0110c	d8 1d 00 00 00
	00		 fcomp	 DWORD PTR __real@4b18967f
  01112	df e0		 fnstsw	 ax
  01114	f6 c4 05	 test	 ah, 5
  01117	7a 08		 jp	 SHORT $L268155

; 240  : 							pMinObj = pObj;

  01119	89 74 24 34	 mov	 DWORD PTR _pMinObj$[esp+140], esi
  0111d	eb 02		 jmp	 SHORT $L268155
$L268156:

; 239  : 						if( fDistSq < 15 * 15 && fDistSq < fMinDist )	// 10 ...     .

  0111f	dd d8		 fstp	 ST(0)
$L268155:

; 240  : 							pMinObj = pObj;

  01121	a1 5c 02 00 00	 mov	 eax, DWORD PTR ?prj@@3VCProject@@A+604
$L259205:

; 241  : 					}
; 242  : 				}
; 243  : 			}
; 244  : 		}
; 245  : 	}
; 246  : 	END_LINKMAP

  01126	8b b6 80 01 00
	00		 mov	 esi, DWORD PTR [esi+384]
  0112c	85 f6		 test	 esi, esi
  0112e	0f 85 b5 f1 ff
	ff		 jne	 $L268159
$L259103:

; 128  : 		
; 129  : 	//   . -  ...
; 130  : 	FOR_LINKMAP( pWorld, vPos, pObj, nRange, CObj::linkDynamic, pMover->GetLayer() )

  01134	8b 54 24 24	 mov	 edx, DWORD PTR __k$259101[esp+140]
  01138	8b 74 24 28	 mov	 esi, DWORD PTR __nLinkXMax$259079[esp+140]
  0113c	42		 inc	 edx
  0113d	3b d6		 cmp	 edx, esi
  0113f	89 54 24 24	 mov	 DWORD PTR __k$259101[esp+140], edx
  01143	0f 8e 84 f1 ff
	ff		 jle	 $L268161
  01149	8b 4c 24 2c	 mov	 ecx, DWORD PTR __j$259097[esp+140]
$L259099:
  0114d	8b 54 24 18	 mov	 edx, DWORD PTR __nLinkZMax$259080[esp+140]
  01151	41		 inc	 ecx
  01152	3b ca		 cmp	 ecx, edx
  01154	89 4c 24 2c	 mov	 DWORD PTR __j$259097[esp+140], ecx
  01158	0f 8e 52 f1 ff
	ff		 jle	 $L259098
$L259087:
  0115e	8b 54 24 10	 mov	 edx, DWORD PTR _pMover$[esp+140]
  01162	8b 82 b8 01 00
	00		 mov	 eax, DWORD PTR [edx+440]
  01168	8b 74 24 1c	 mov	 esi, DWORD PTR __i$259085[esp+140]
  0116c	8b 4c 24 30	 mov	 ecx, DWORD PTR _pWorld$[esp+140]
  01170	50		 push	 eax
  01171	46		 inc	 esi
  01172	6a 01		 push	 1
  01174	83 c1 24	 add	 ecx, 36			; 00000024H
  01177	89 74 24 24	 mov	 DWORD PTR __i$259085[esp+148], esi
  0117b	e8 00 00 00 00	 call	 ?GetMaxLinkLevel@CLayeredLinkMap@@QAEHKH@Z ; CLayeredLinkMap::GetMaxLinkLevel
  01180	3b f0		 cmp	 esi, eax
  01182	0f 8c 18 f0 ff
	ff		 jl	 $L259086

; 247  : 
; 248  : 	if( pMinObj )

  01188	8b 74 24 34	 mov	 esi, DWORD PTR _pMinObj$[esp+140]
  0118c	85 f6		 test	 esi, esi
  0118e	0f 84 81 00 00
	00		 je	 $L259210

; 249  : 	{
; 250  : 		// Get object ID of the loot item
; 251  : 		DWORD dwIdLootItem = ((CItem *)pMinObj)->GetId();

  01194	8b 9e bc 01 00
	00		 mov	 ebx, DWORD PTR [esi+444]

; 252  : 
; 253  : 		// Get the item obj
; 254  : 		CCtrl *pCtrl = prj.GetCtrl( dwIdLootItem );	

  0119a	53		 push	 ebx
  0119b	b9 00 00 00 00	 mov	 ecx, OFFSET FLAT:?prj@@3VCProject@@A
  011a0	e8 00 00 00 00	 call	 ?GetCtrl@CProject@@QAEPAVCCtrl@@K@Z ; CProject::GetCtrl

; 255  : 
; 256  : 		// if exists...
; 257  : 		if( IsValidObj(pCtrl) )

  011a5	85 c0		 test	 eax, eax
  011a7	74 6c		 je	 SHORT $L259210
  011a9	f6 40 04 01	 test	 BYTE PTR [eax+4], 1
  011ad	75 66		 jne	 SHORT $L259210

; 258  : 		{
; 259  : 				MoveToDst( pMinObj->GetPos() );		//  .

  011af	8b 7c 24 38	 mov	 edi, DWORD PTR _this$[esp+140]
  011b3	81 c6 60 01 00
	00		 add	 esi, 352		; 00000160H
  011b9	8b 06		 mov	 eax, DWORD PTR [esi]
  011bb	8b 4e 04	 mov	 ecx, DWORD PTR [esi+4]
  011be	8b 56 08	 mov	 edx, DWORD PTR [esi+8]
  011c1	8b 77 30	 mov	 esi, DWORD PTR [edi+48]
  011c4	6a 01		 push	 1
  011c6	89 84 24 84 00
	00 00		 mov	 DWORD PTR $T268137[esp+144], eax
  011cd	6a 01		 push	 1
  011cf	8d 84 24 88 00
	00 00		 lea	 eax, DWORD PTR $T268137[esp+148]
  011d6	89 8c 24 8c 00
	00 00		 mov	 DWORD PTR $T268137[esp+152], ecx
  011dd	50		 push	 eax
  011de	8b ce		 mov	 ecx, esi
  011e0	89 94 24 94 00
	00 00		 mov	 DWORD PTR $T268137[esp+160], edx
  011e7	e8 00 00 00 00	 call	 ?SetDestPos@CMover@@QAEXABUD3DXVECTOR3@@_NH@Z ; CMover::SetDestPos
  011ec	6a 01		 push	 1
  011ee	8d 8c 24 84 00
	00 00		 lea	 ecx, DWORD PTR $T268137[esp+144]
  011f5	51		 push	 ecx
  011f6	56		 push	 esi
  011f7	b9 00 00 00 00	 mov	 ecx, OFFSET FLAT:?g_UserMng@@3VCUserMng@@A
  011fc	c7 86 78 02 00
	00 ff ff ff ff	 mov	 DWORD PTR [esi+632], -1
  01206	e8 00 00 00 00	 call	 ?AddSetDestPos@CUserMng@@QAEXPAVCMover@@ABUD3DXVECTOR3@@E@Z ; CUserMng::AddSetDestPos

; 260  : 				m_idLootItem = dwIdLootItem;

  0120b	89 5f 40	 mov	 DWORD PTR [edi+64], ebx

; 261  : 				m_bLootMove = TRUE;

  0120e	c7 47 3c 01 00
	00 00		 mov	 DWORD PTR [edi+60], 1
$L259210:

; 262  : 		}
; 263  : 	}
; 264  : 		
; 265  : 	return m_bLootMove;

  01215	8b 54 24 38	 mov	 edx, DWORD PTR _this$[esp+140]
  01219	8b 42 3c	 mov	 eax, DWORD PTR [edx+60]
  0121c	5f		 pop	 edi
  0121d	5e		 pop	 esi
  0121e	5d		 pop	 ebp
  0121f	5b		 pop	 ebx

; 266  : }

  01220	83 c4 7c	 add	 esp, 124		; 0000007cH
  01223	c3		 ret	 0
?SubItemLoot@CAIPet@@QAEHXZ ENDP			; CAIPet::SubItemLoot
_TEXT	ENDS
PUBLIC	?MoveProcessIdle@CAIPet@@AAEHABUAIMSG@@@Z	; CAIPet::MoveProcessIdle
EXTRN	?IsRangeObj@CObj@@QAEHPAV1@M@Z:NEAR		; CObj::IsRangeObj
; Function compile flags: /Ogty
;	COMDAT ?MoveProcessIdle@CAIPet@@AAEHABUAIMSG@@@Z
_TEXT	SEGMENT
$T268272 = -24						; size = 12
$T268273 = -12						; size = 12
$T268271 = -12						; size = 12
_msg$ = 8						; size = 4
?MoveProcessIdle@CAIPet@@AAEHABUAIMSG@@@Z PROC NEAR	; CAIPet::MoveProcessIdle, COMDAT
; _this$ = ecx

; 274  : {

  00000	83 ec 18	 sub	 esp, 24			; 00000018H
  00003	53		 push	 ebx
  00004	55		 push	 ebp
  00005	56		 push	 esi
  00006	8b f1		 mov	 esi, ecx

; 275  : 	CMover *pMover = GetMover();
; 276  : 	CMover *pOwner = prj.GetMover( m_idOwner ); 

  00008	8b 46 38	 mov	 eax, DWORD PTR [esi+56]
  0000b	57		 push	 edi
  0000c	8b 7e 30	 mov	 edi, DWORD PTR [esi+48]
  0000f	50		 push	 eax
  00010	b9 00 00 00 00	 mov	 ecx, OFFSET FLAT:?prj@@3VCProject@@A
  00015	e8 00 00 00 00	 call	 ?GetMover@CProject@@QAEPAVCMover@@K@Z ; CProject::GetMover

; 277  : 	CWorld *pWorld = GetWorld();
; 278  : 	MoverProp *pProp = pMover->GetProp();

  0001a	8b 0d d0 01 00
	00		 mov	 ecx, DWORD PTR ?prj@@3VCProject@@A+464
  00020	8b e8		 mov	 ebp, eax
  00022	8b 87 74 01 00
	00		 mov	 eax, DWORD PTR [edi+372]
  00028	33 db		 xor	 ebx, ebx
  0002a	3b c3		 cmp	 eax, ebx
  0002c	7c 04		 jl	 SHORT $L268313
  0002e	3b c1		 cmp	 eax, ecx
  00030	7c 15		 jl	 SHORT $L268308
$L268313:
  00032	50		 push	 eax
  00033	51		 push	 ecx
  00034	53		 push	 ebx
  00035	68 00 00 00 00	 push	 OFFSET FLAT:??_C@_0BJ@GKPOBPPI@GetMoverProp?5range_error?$AA@
  0003a	68 00 00 00 00	 push	 OFFSET FLAT:??_C@_0BM@HMFGHCP@?$CFs?5min?3?$CFd?0?5max?3?$CFd?0?5index?3?$CFd?$AA@
  0003f	e8 00 00 00 00	 call	 ?Error@@YAPBDPBDZZ	; Error
  00044	83 c4 14	 add	 esp, 20			; 00000014H
$L268308:

; 279  : 
; 280  : 
; 281  : 	//         
; 282  : 	if( pMover->IsDie() || (pMover->m_pActMover->GetState() & OBJSTA_DMG_FLY_ALL) )

  00047	8b 8f 3c 02 00
	00		 mov	 ecx, DWORD PTR [edi+572]
  0004d	8b 41 04	 mov	 eax, DWORD PTR [ecx+4]
  00050	a9 00 00 00 08	 test	 eax, 134217728		; 08000000H
  00055	0f 85 72 01 00
	00		 jne	 $L259225
  0005b	39 9f 00 06 00
	00		 cmp	 DWORD PTR [edi+1536], ebx
  00061	0f 84 66 01 00
	00		 je	 $L259225
  00067	a9 00 00 00 02	 test	 eax, 33554432		; 02000000H
  0006c	0f 85 5b 01 00
	00		 jne	 $L259225

; 283  : 		return FALSE;
; 284  : 
; 285  : 	if( NotOwnedPetInactivated() )

  00072	8b ce		 mov	 ecx, esi
  00074	e8 00 00 00 00	 call	 ?NotOwnedPetInactivated@CAIPet@@AAEHXZ ; CAIPet::NotOwnedPetInactivated
  00079	85 c0		 test	 eax, eax

; 286  : 		return FALSE;

  0007b	0f 85 4c 01 00
	00		 jne	 $L259225

; 287  : 	
; 288  : 	if( m_bLootMove == FALSE )	//      ...

  00081	39 5e 3c	 cmp	 DWORD PTR [esi+60], ebx
  00084	75 6c		 jne	 SHORT $L259238

; 289  : 	{
; 290  : 		//     .
; 291  : 		if( m_nState == PETSTATE_IDLE )

  00086	8b 46 44	 mov	 eax, DWORD PTR [esi+68]
  00089	3b c3		 cmp	 eax, ebx
  0008b	0f 85 cc 00 00
	00		 jne	 $L259228

; 292  : 		{
; 293  : 			D3DXVECTOR3 vDist = pOwner->GetPos() - pMover->GetPos();

  00091	8d 54 24 10	 lea	 edx, DWORD PTR $T268272[esp+40]
  00095	52		 push	 edx
  00096	8b cf		 mov	 ecx, edi
  00098	e8 00 00 00 00	 call	 ?GetPos@CObj@@QAE?AUD3DXVECTOR3@@XZ ; CObj::GetPos
  0009d	8b d8		 mov	 ebx, eax
  0009f	8d 44 24 1c	 lea	 eax, DWORD PTR $T268271[esp+40]
  000a3	50		 push	 eax
  000a4	8b cd		 mov	 ecx, ebp
  000a6	e8 00 00 00 00	 call	 ?GetPos@CObj@@QAE?AUD3DXVECTOR3@@XZ ; CObj::GetPos
  000ab	d9 00		 fld	 DWORD PTR [eax]
  000ad	d8 23		 fsub	 DWORD PTR [ebx]
  000af	d9 40 04	 fld	 DWORD PTR [eax+4]
  000b2	d8 63 04	 fsub	 DWORD PTR [ebx+4]
  000b5	d9 40 08	 fld	 DWORD PTR [eax+8]
  000b8	d8 63 08	 fsub	 DWORD PTR [ebx+8]

; 294  : 			FLOAT fDistSq = D3DXVec3LengthSq( &vDist );

  000bb	d9 c0		 fld	 ST(0)
  000bd	d8 c9		 fmul	 ST(0), ST(1)
  000bf	d9 c2		 fld	 ST(2)
  000c1	d8 cb		 fmul	 ST(0), ST(3)
  000c3	de c1		 faddp	 ST(1), ST(0)
  000c5	d9 c3		 fld	 ST(3)
  000c7	d8 cc		 fmul	 ST(0), ST(4)

; 295  : 			if( fDistSq > 1.0f * 1.0f )

  000c9	de c1		 faddp	 ST(1), ST(0)
  000cb	d8 1d 00 00 00
	00		 fcomp	 DWORD PTR __real@3f800000
  000d1	dd d8		 fstp	 ST(0)
  000d3	df e0		 fnstsw	 ax
  000d5	dd d8		 fstp	 ST(0)
  000d7	f6 c4 41	 test	 ah, 65			; 00000041H
  000da	dd d8		 fstp	 ST(0)
  000dc	75 12		 jne	 SHORT $L268355

; 296  : 			{
; 297  : 				MoveToDst( m_idOwner );

  000de	8b 4e 38	 mov	 ecx, DWORD PTR [esi+56]
  000e1	51		 push	 ecx
  000e2	8b ce		 mov	 ecx, esi
  000e4	e8 00 00 00 00	 call	 ?MoveToDst@CAIPet@@AAEXK@Z ; CAIPet::MoveToDst

; 298  : 				m_nState = PETSTATE_TRACE;

  000e9	c7 46 44 01 00
	00 00		 mov	 DWORD PTR [esi+68], 1
$L268355:

; 299  : 			}
; 300  : 		} else

  000f0	33 db		 xor	 ebx, ebx
$L259238:

; 314  : 			}
; 315  : 			
; 316  : 		}
; 317  : 	}
; 318  : 
; 319  : 	//  /
; 320  : 	{
; 321  : 		{
; 322  : 			if( (pMover->GetCount() & 15) == 0 )		//   ...  15 1

  000f2	f6 87 80 16 00
	00 0f		 test	 BYTE PTR [edi+5760], 15	; 0000000fH
  000f9	75 13		 jne	 SHORT $L259241

; 323  : 			{	
; 324  : 				if( m_bLootMove == FALSE )		//      

  000fb	39 5e 3c	 cmp	 DWORD PTR [esi+60], ebx
  000fe	75 0e		 jne	 SHORT $L259241

; 325  : 					if( SubItemLoot() )		//  .

  00100	8b ce		 mov	 ecx, esi
  00102	e8 00 00 00 00	 call	 ?SubItemLoot@CAIPet@@QAEHXZ ; CAIPet::SubItemLoot
  00107	85 c0		 test	 eax, eax
  00109	74 03		 je	 SHORT $L259241

; 326  : 						m_nState = PETSTATE_IDLE;	//   .

  0010b	89 5e 44	 mov	 DWORD PTR [esi+68], ebx
$L259241:

; 327  : 			}
; 328  : 		}
; 329  : 
; 330  : 		if( m_bLootMove == TRUE )

  0010e	83 7e 3c 01	 cmp	 DWORD PTR [esi+60], 1
  00112	0f 85 a6 00 00
	00		 jne	 $L259247

; 331  : 		{
; 332  : 			CCtrl *pCtrl = prj.GetCtrl( m_idLootItem );		//    .

  00118	8b 56 40	 mov	 edx, DWORD PTR [esi+64]
  0011b	52		 push	 edx
  0011c	b9 00 00 00 00	 mov	 ecx, OFFSET FLAT:?prj@@3VCProject@@A
  00121	e8 00 00 00 00	 call	 ?GetCtrl@CProject@@QAEPAVCCtrl@@K@Z ; CProject::GetCtrl

; 333  : 			if( IsInvalidObj(pCtrl) )		//     

  00126	50		 push	 eax
  00127	e8 00 00 00 00	 call	 ?IsInvalidObj@@YAHPAVCObj@@@Z ; IsInvalidObj
  0012c	83 c4 04	 add	 esp, 4
  0012f	85 c0		 test	 eax, eax

; 334  : 			{
; 335  : 				MoveToDst( pMover->GetPos() );	//  .

  00131	8b cf		 mov	 ecx, edi
  00133	74 73		 je	 SHORT $L259244
  00135	8d 44 24 1c	 lea	 eax, DWORD PTR $T268273[esp+40]
  00139	50		 push	 eax
  0013a	e8 00 00 00 00	 call	 ?GetPos@CObj@@QAE?AUD3DXVECTOR3@@XZ ; CObj::GetPos
  0013f	8b 10		 mov	 edx, DWORD PTR [eax]
  00141	83 ec 0c	 sub	 esp, 12			; 0000000cH
  00144	8b cc		 mov	 ecx, esp
  00146	89 11		 mov	 DWORD PTR [ecx], edx
  00148	8b 50 04	 mov	 edx, DWORD PTR [eax+4]
  0014b	8b 40 08	 mov	 eax, DWORD PTR [eax+8]
  0014e	89 51 04	 mov	 DWORD PTR [ecx+4], edx
  00151	89 41 08	 mov	 DWORD PTR [ecx+8], eax
  00154	8b ce		 mov	 ecx, esi
  00156	e8 00 00 00 00	 call	 ?MoveToDst@CAIPet@@AAEXUD3DXVECTOR3@@@Z ; CAIPet::MoveToDst

; 336  : 				m_bLootMove = FALSE;
; 337  : 				m_idLootItem = NULL_ID;
; 338  : 				m_nState = PETSTATE_IDLE;
; 339  : 			} else

  0015b	eb 54		 jmp	 SHORT $L268356
$L259228:

; 301  : 		if( m_nState == PETSTATE_TRACE )

  0015d	83 f8 01	 cmp	 eax, 1
  00160	75 90		 jne	 SHORT $L259238

; 302  : 		{
; 303  : 			if( pOwner->IsRangeObj( pMover, 0 ) == TRUE )		//   .

  00162	53		 push	 ebx
  00163	57		 push	 edi
  00164	8b cd		 mov	 ecx, ebp
  00166	e8 00 00 00 00	 call	 ?IsRangeObj@CObj@@QAEHPAV1@M@Z ; CObj::IsRangeObj
  0016b	83 f8 01	 cmp	 eax, 1
  0016e	75 17		 jne	 SHORT $L259237

; 304  : 			{
; 305  : 				m_nState = PETSTATE_IDLE;			//  
; 306  : 				pMover->SendActMsg( OBJMSG_STOP );	//  

  00170	53		 push	 ebx
  00171	53		 push	 ebx
  00172	53		 push	 ebx
  00173	53		 push	 ebx
  00174	6a 06		 push	 6
  00176	8b cf		 mov	 ecx, edi
  00178	89 5e 44	 mov	 DWORD PTR [esi+68], ebx
  0017b	e8 00 00 00 00	 call	 ?SendActMsg@CMover@@QAEHW4OBJMSG@@HHHH@Z ; CMover::SendActMsg

; 307  : 				pMover->ClearDest();				//  .

  00180	8b cf		 mov	 ecx, edi
  00182	e8 00 00 00 00	 call	 ?ClearDest@CMover@@QAEXXZ ; CMover::ClearDest
$L259237:

; 308  : 			}
; 309  : 			if( pMover->IsEmptyDest() )			//        .

  00187	8b cf		 mov	 ecx, edi
  00189	e8 00 00 00 00	 call	 ?IsEmptyDest@CMover@@QAEHXZ ; CMover::IsEmptyDest
  0018e	85 c0		 test	 eax, eax
  00190	0f 84 5c ff ff
	ff		 je	 $L259238

; 310  : 			{
; 311  : 				m_bLootMove = FALSE;			//   .

  00196	89 5e 3c	 mov	 DWORD PTR [esi+60], ebx

; 312  : 				m_idLootItem = NULL_ID;

  00199	c7 46 40 ff ff
	ff ff		 mov	 DWORD PTR [esi+64], -1

; 313  : 				m_nState = PETSTATE_IDLE;

  001a0	89 5e 44	 mov	 DWORD PTR [esi+68], ebx
  001a3	e9 4a ff ff ff	 jmp	 $L259238
$L259244:

; 340  : 			{
; 341  : 				if( pMover->IsEmptyDest() )			//        .

  001a8	e8 00 00 00 00	 call	 ?IsEmptyDest@CMover@@QAEHXZ ; CMover::IsEmptyDest
  001ad	85 c0		 test	 eax, eax
  001af	74 0d		 je	 SHORT $L259247
$L268356:

; 342  : 				{
; 343  : 					m_bLootMove = FALSE;			//   .

  001b1	89 5e 3c	 mov	 DWORD PTR [esi+60], ebx

; 344  : 					m_idLootItem = NULL_ID;

  001b4	c7 46 40 ff ff
	ff ff		 mov	 DWORD PTR [esi+64], -1

; 345  : 					m_nState = PETSTATE_IDLE;

  001bb	89 5e 44	 mov	 DWORD PTR [esi+68], ebx
$L259247:

; 346  : 				}
; 347  : 			}
; 348  : 		}
; 349  : 	}
; 350  : 
; 351  : 	return TRUE;

  001be	b8 01 00 00 00	 mov	 eax, 1

; 352  : }

  001c3	5f		 pop	 edi
  001c4	5e		 pop	 esi
  001c5	5d		 pop	 ebp
  001c6	5b		 pop	 ebx
  001c7	83 c4 18	 add	 esp, 24			; 00000018H
  001ca	c2 04 00	 ret	 4
$L259225:
  001cd	5f		 pop	 edi
  001ce	5e		 pop	 esi
  001cf	5d		 pop	 ebp
  001d0	33 c0		 xor	 eax, eax
  001d2	5b		 pop	 ebx
  001d3	83 c4 18	 add	 esp, 24			; 00000018H
  001d6	c2 04 00	 ret	 4
?MoveProcessIdle@CAIPet@@AAEHABUAIMSG@@@Z ENDP		; CAIPet::MoveProcessIdle
_TEXT	ENDS
PUBLIC	__real@41c80000
PUBLIC	?StateIdle@CAIPet@@QAEHABUAIMSG@@@Z		; CAIPet::StateIdle
EXTRN	?DoLoot@CMover@@QAEHPAVCItem@@@Z:NEAR		; CMover::DoLoot
;	COMDAT __real@41c80000
; File c:\documents and settings\test\mes documents\source\virtuos_v17\build\program\_common\obj.h
CONST	SEGMENT
__real@41c80000 DD 041c80000r			; 25
; Function compile flags: /Ogty
; File c:\documents and settings\test\mes documents\source\virtuos_v17\build\program\_aiinterface\aipet.cpp
CONST	ENDS
;	COMDAT ?StateIdle@CAIPet@@QAEHABUAIMSG@@@Z
_TEXT	SEGMENT
$T268361 = -24						; size = 12
$T268360 = -12						; size = 12
_msg$ = 8						; size = 4
?StateIdle@CAIPet@@QAEHABUAIMSG@@@Z PROC NEAR		; CAIPet::StateIdle, COMDAT
; _this$ = ecx

; 355  : {

  00000	83 ec 18	 sub	 esp, 24			; 00000018H
  00003	53		 push	 ebx
  00004	56		 push	 esi
  00005	8b f1		 mov	 esi, ecx

; 356  : 	CMover* pMover = GetMover();
; 357  : 	CWorld* pWorld = GetWorld();
; 358  : 
; 359  : 	BeginAIHandler( )
; 360  : 
; 361  : 	///////////////////////////////////////////////////////////////////////////////////////////////////
; 362  : 	OnMessage( AIMSG_INIT ) 

  00007	8b 4c 24 24	 mov	 ecx, DWORD PTR _msg$[esp+28]
  0000b	8b 01		 mov	 eax, DWORD PTR [ecx]
  0000d	83 f8 01	 cmp	 eax, 1
  00010	8b 5e 30	 mov	 ebx, DWORD PTR [esi+48]

; 363  : //		SetStop( SEC( 0 ) );
; 364  : 	///////////////////////////////////////////////////////////////////////////////////////////////////
; 365  : 	OnMessage( AIMSG_INIT_TARGETCLEAR )

  00013	0f 84 2b 01 00
	00		 je	 $L259268
  00019	83 f8 11	 cmp	 eax, 17			; 00000011H

; 366  : //		m_dwIdTarget = NULL_ID;
; 367  : 			
; 368  : 	///////////////////////////////////////////////////////////////////////////////////////////////////
; 369  : 	OnMessage( AIMSG_PROCESS ) 

  0001c	0f 84 22 01 00
	00		 je	 $L259268
  00022	83 f8 02	 cmp	 eax, 2
  00025	75 15		 jne	 SHORT $L259260

; 370  : 		MoveProcessIdle( msg );

  00027	51		 push	 ecx
  00028	8b ce		 mov	 ecx, esi
  0002a	e8 00 00 00 00	 call	 ?MoveProcessIdle@CAIPet@@AAEHABUAIMSG@@@Z ; CAIPet::MoveProcessIdle
  0002f	5e		 pop	 esi

; 418  : 					}
; 419  : 				}
; 420  : 			}
; 421  : 		}
; 422  : 		
; 423  : 	///////////////////////////////////////////////////////////////////////////////////////////////////
; 424  : 	OnMessage( AIMSG_EXIT )	

  00030	b8 01 00 00 00	 mov	 eax, 1
  00035	5b		 pop	 ebx

; 429  : }

  00036	83 c4 18	 add	 esp, 24			; 00000018H
  00039	c2 04 00	 ret	 4
$L259260:

; 371  : 
; 372  : 	///////////////////////////////////////////////////////////////////////////////////////////////////
; 373  : 	OnMessage( AIMSG_DAMAGE ) 

  0003c	83 f8 08	 cmp	 eax, 8

; 374  : 
; 375  : 	///////////////////////////////////////////////////////////////////////////////////////////////////
; 376  : 	OnMessage( AIMSG_DIE ) 

  0003f	0f 84 ff 00 00
	00		 je	 $L259268
  00045	83 f8 09	 cmp	 eax, 9
  00048	75 1c		 jne	 SHORT $L259264

; 377  : 		SendAIMsg( AIMSG_EXIT );

  0004a	8b 06		 mov	 eax, DWORD PTR [esi]
  0004c	6a 00		 push	 0
  0004e	6a 00		 push	 0
  00050	6a 00		 push	 0
  00052	6a 12		 push	 18			; 00000012H
  00054	8b ce		 mov	 ecx, esi
  00056	ff 50 0c	 call	 DWORD PTR [eax+12]
  00059	5e		 pop	 esi

; 418  : 					}
; 419  : 				}
; 420  : 			}
; 421  : 		}
; 422  : 		
; 423  : 	///////////////////////////////////////////////////////////////////////////////////////////////////
; 424  : 	OnMessage( AIMSG_EXIT )	

  0005a	b8 01 00 00 00	 mov	 eax, 1
  0005f	5b		 pop	 ebx

; 429  : }

  00060	83 c4 18	 add	 esp, 24			; 00000018H
  00063	c2 04 00	 ret	 4
$L259264:

; 378  : 
; 379  : 	///////////////////////////////////////////////////////////////////////////////////////////////////
; 380  : 	OnMessage( AIMSG_COLLISION )

  00066	83 f8 0a	 cmp	 eax, 10			; 0000000aH

; 381  : 
; 382  : 	///////////////////////////////////////////////////////////////////////////////////////////////////
; 383  : 	OnMessage( AIMSG_ARRIVAL )

  00069	0f 84 d5 00 00
	00		 je	 $L259268
  0006f	83 f8 0b	 cmp	 eax, 11			; 0000000bH
  00072	0f 85 cc 00 00
	00		 jne	 $L259268

; 384  : 		{
; 385  : 			if( m_bLootMove )	//  .

  00078	8b 46 3c	 mov	 eax, DWORD PTR [esi+60]
  0007b	85 c0		 test	 eax, eax
  0007d	55		 push	 ebp
  0007e	57		 push	 edi
  0007f	0f 84 bd 00 00
	00		 je	 $L268396

; 386  : 			{
; 387  : 				CMover *pOwner = prj.GetMover( m_idOwner );

  00085	8b 4e 38	 mov	 ecx, DWORD PTR [esi+56]
  00088	51		 push	 ecx
  00089	b9 00 00 00 00	 mov	 ecx, OFFSET FLAT:?prj@@3VCProject@@A
  0008e	e8 00 00 00 00	 call	 ?GetMover@CProject@@QAEPAVCMover@@K@Z ; CProject::GetMover
  00093	8b e8		 mov	 ebp, eax

; 388  : 				if( IsValidObj(pOwner) )

  00095	55		 push	 ebp
  00096	e8 00 00 00 00	 call	 ?IsValidObj@@YAHPAVCObj@@@Z ; IsValidObj
  0009b	83 c4 04	 add	 esp, 4
  0009e	85 c0		 test	 eax, eax
  000a0	0f 84 9c 00 00
	00		 je	 $L268396

; 389  : 				{
; 390  : 					BOOL bSuccess = FALSE;
; 391  : 					CCtrl *pCtrl = prj.GetCtrl( m_idLootItem );		//    .

  000a6	8b 56 40	 mov	 edx, DWORD PTR [esi+64]
  000a9	52		 push	 edx
  000aa	b9 00 00 00 00	 mov	 ecx, OFFSET FLAT:?prj@@3VCProject@@A
  000af	e8 00 00 00 00	 call	 ?GetCtrl@CProject@@QAEPAVCCtrl@@K@Z ; CProject::GetCtrl
  000b4	8b f8		 mov	 edi, eax

; 392  : 					if( IsValidObj(pCtrl) )

  000b6	57		 push	 edi
  000b7	e8 00 00 00 00	 call	 ?IsValidObj@@YAHPAVCObj@@@Z ; IsValidObj
  000bc	83 c4 04	 add	 esp, 4
  000bf	85 c0		 test	 eax, eax
  000c1	74 71		 je	 SHORT $L268395

; 393  : 					{
; 394  : 						CItem *pItem = (CItem *)pCtrl;
; 395  : 						D3DXVECTOR3 vDist = pCtrl->GetPos() - pMover->GetPos();

  000c3	8d 44 24 10	 lea	 eax, DWORD PTR $T268361[esp+40]
  000c7	50		 push	 eax
  000c8	8b cb		 mov	 ecx, ebx
  000ca	e8 00 00 00 00	 call	 ?GetPos@CObj@@QAE?AUD3DXVECTOR3@@XZ ; CObj::GetPos
  000cf	8d 4c 24 1c	 lea	 ecx, DWORD PTR $T268360[esp+40]
  000d3	51		 push	 ecx
  000d4	8b cf		 mov	 ecx, edi
  000d6	8b d8		 mov	 ebx, eax
  000d8	e8 00 00 00 00	 call	 ?GetPos@CObj@@QAE?AUD3DXVECTOR3@@XZ ; CObj::GetPos
  000dd	d9 00		 fld	 DWORD PTR [eax]
  000df	d8 23		 fsub	 DWORD PTR [ebx]
  000e1	d9 40 04	 fld	 DWORD PTR [eax+4]
  000e4	d8 63 04	 fsub	 DWORD PTR [ebx+4]
  000e7	d9 40 08	 fld	 DWORD PTR [eax+8]
  000ea	d8 63 08	 fsub	 DWORD PTR [ebx+8]

; 396  : 						FLOAT fDistSq = D3DXVec3LengthSq( &vDist );

  000ed	d9 c0		 fld	 ST(0)
  000ef	d8 c9		 fmul	 ST(0), ST(1)
  000f1	d9 c3		 fld	 ST(3)
  000f3	d8 cc		 fmul	 ST(0), ST(4)

; 425  : 
; 426  : 	EndAIHandler( )
; 427  : 
; 428  : 	return TRUE;

  000f5	de c1		 faddp	 ST(1), ST(0)
  000f7	d9 c2		 fld	 ST(2)
  000f9	d8 cb		 fmul	 ST(0), ST(3)
  000fb	de c1		 faddp	 ST(1), ST(0)
  000fd	d8 1d 00 00 00
	00		 fcomp	 DWORD PTR __real@41c80000
  00103	dd d8		 fstp	 ST(0)
  00105	df e0		 fnstsw	 ax
  00107	dd d8		 fstp	 ST(0)
  00109	f6 c4 05	 test	 ah, 5
  0010c	dd d8		 fstp	 ST(0)
  0010e	7a 24		 jp	 SHORT $L268395
  00110	f6 47 04 01	 test	 BYTE PTR [edi+4], 1
  00114	75 2c		 jne	 SHORT $L268396
  00116	8b cf		 mov	 ecx, edi
  00118	e8 00 00 00 00	 call	 ?GetPropA@CItem@@QAEPAUItemProp@@XZ ; CItem::GetPropA
  0011d	57		 push	 edi
  0011e	8b cd		 mov	 ecx, ebp
  00120	e8 00 00 00 00	 call	 ?DoLoot@CMover@@QAEHPAVCItem@@@Z ; CMover::DoLoot
  00125	85 c0		 test	 eax, eax
  00127	74 0b		 je	 SHORT $L268395
  00129	8b ce		 mov	 ecx, esi
  0012b	e8 00 00 00 00	 call	 ?SubItemLoot@CAIPet@@QAEHXZ ; CAIPet::SubItemLoot
  00130	85 c0		 test	 eax, eax
  00132	75 0e		 jne	 SHORT $L268396
$L268395:

; 397  : 						if( fDistSq < 5.0f * 5.0f )		//      
; 398  : 						{
; 399  : 							if( pItem->IsDelete() )
; 400  : 								return TRUE;
; 401  : 							CItemElem* pItemElem = (CItemElem *)pItem->m_pItemBase;
; 402  : 							ItemProp *pItemProp = pItem->GetProp();
; 403  : 							//      .
; 404  : 							bSuccess = pOwner->DoLoot( pItem );
; 405  : 						}
; 406  : 					}
; 407  : 					if( bSuccess )
; 408  : 					{
; 409  : 						if( SubItemLoot() == FALSE )		//          .
; 410  : 						{
; 411  : 							m_bLootMove = FALSE;		// this   .
; 412  : 							m_idLootItem = NULL_ID;
; 413  : 						}
; 414  : 					} else
; 415  : 					{
; 416  : 						m_bLootMove = FALSE;		// this   .

  00134	c7 46 3c 00 00
	00 00		 mov	 DWORD PTR [esi+60], 0

; 417  : 						m_idLootItem = NULL_ID;

  0013b	c7 46 40 ff ff
	ff ff		 mov	 DWORD PTR [esi+64], -1
$L268396:
  00142	5f		 pop	 edi
  00143	5d		 pop	 ebp
$L259268:
  00144	5e		 pop	 esi

; 418  : 					}
; 419  : 				}
; 420  : 			}
; 421  : 		}
; 422  : 		
; 423  : 	///////////////////////////////////////////////////////////////////////////////////////////////////
; 424  : 	OnMessage( AIMSG_EXIT )	

  00145	b8 01 00 00 00	 mov	 eax, 1
  0014a	5b		 pop	 ebx

; 429  : }

  0014b	83 c4 18	 add	 esp, 24			; 00000018H
  0014e	c2 04 00	 ret	 4
?StateIdle@CAIPet@@QAEHABUAIMSG@@@Z ENDP		; CAIPet::StateIdle
_TEXT	ENDS
PUBLIC	?SetItem@CAIPet@@QAEXPAVCMover@@PAVCItemElem@@@Z ; CAIPet::SetItem
EXTRN	?SetDestParamRandomOptExtension@CMover@@QAEXPAVCItemElem@@@Z:NEAR ; CMover::SetDestParamRandomOptExtension
; Function compile flags: /Ogty
;	COMDAT ?SetItem@CAIPet@@QAEXPAVCMover@@PAVCItemElem@@@Z
_TEXT	SEGMENT
_pPlayer$ = 8						; size = 4
_pItem$ = 12						; size = 4
?SetItem@CAIPet@@QAEXPAVCMover@@PAVCItemElem@@@Z PROC NEAR ; CAIPet::SetItem, COMDAT
; _this$ = ecx

; 533  : {	//     

  00000	53		 push	 ebx

; 534  : 	m_idPetItem		= pItem->m_dwObjId;
; 535  : 	pPlayer->SetDestParamRandomOptExtension( pItem );

  00001	8b 5c 24 08	 mov	 ebx, DWORD PTR _pPlayer$[esp]
  00005	56		 push	 esi
  00006	8b 74 24 10	 mov	 esi, DWORD PTR _pItem$[esp+4]
  0000a	8b 46 04	 mov	 eax, DWORD PTR [esi+4]
  0000d	57		 push	 edi
  0000e	8b f9		 mov	 edi, ecx
  00010	56		 push	 esi
  00011	8b cb		 mov	 ecx, ebx
  00013	89 47 4c	 mov	 DWORD PTR [edi+76], eax
  00016	e8 00 00 00 00	 call	 ?SetDestParamRandomOptExtension@CMover@@QAEXPAVCItemElem@@@Z ; CMover::SetDestParamRandomOptExtension

; 536  : 	SetSkill( pPlayer, pItem->GetProp() );		//    

  0001b	8b 46 0c	 mov	 eax, DWORD PTR [esi+12]
  0001e	85 c0		 test	 eax, eax
  00020	8b 0d 5c 02 00
	00		 mov	 ecx, DWORD PTR ?prj@@3VCProject@@A+604
  00026	7c 11		 jl	 SHORT $L268465
  00028	3b c1		 cmp	 eax, ecx
  0002a	7d 0d		 jge	 SHORT $L268465
  0002c	73 21		 jae	 SHORT $L268477
  0002e	8b 0d 4c 02 00
	00		 mov	 ecx, DWORD PTR ?prj@@3VCProject@@A+588
  00034	8b 04 81	 mov	 eax, DWORD PTR [ecx+eax*4]
  00037	eb 18		 jmp	 SHORT $L268460
$L268465:
  00039	50		 push	 eax
  0003a	51		 push	 ecx
  0003b	6a 00		 push	 0
  0003d	68 00 00 00 00	 push	 OFFSET FLAT:??_C@_0BI@BEIFNGEL@GetItemProp?5range_error?$AA@
  00042	68 00 00 00 00	 push	 OFFSET FLAT:??_C@_0BM@HMFGHCP@?$CFs?5min?3?$CFd?0?5max?3?$CFd?0?5index?3?$CFd?$AA@
  00047	e8 00 00 00 00	 call	 ?Error@@YAPBDPBDZZ	; Error
  0004c	83 c4 14	 add	 esp, 20			; 00000014H
$L268477:
  0004f	33 c0		 xor	 eax, eax
$L268460:
  00051	8b 88 a0 01 00
	00		 mov	 ecx, DWORD PTR [eax+416]
  00057	83 f9 ff	 cmp	 ecx, -1
  0005a	74 18		 je	 SHORT $L268476
  0005c	6a 00		 push	 0
  0005e	6a 00		 push	 0
  00060	53		 push	 ebx
  00061	89 4f 48	 mov	 DWORD PTR [edi+72], ecx
  00064	8b 90 a0 01 00
	00		 mov	 edx, DWORD PTR [eax+416]
  0006a	6a 01		 push	 1
  0006c	52		 push	 edx
  0006d	8b cb		 mov	 ecx, ebx
  0006f	e8 00 00 00 00	 call	 ?DoActiveSkill@CCtrl@@QAEXKHPAV1@_NH@Z ; CCtrl::DoActiveSkill
$L268476:
  00074	5f		 pop	 edi
  00075	5e		 pop	 esi
  00076	5b		 pop	 ebx

; 537  : 																		//        
; 538  : }

  00077	c2 08 00	 ret	 8
?SetItem@CAIPet@@QAEXPAVCMover@@PAVCItemElem@@@Z ENDP	; CAIPet::SetItem
_TEXT	ENDS
PUBLIC	?IsEatPet@CItemElem@@QAEHXZ			; CItemElem::IsEatPet
; Function compile flags: /Ogty
; File c:\documents and settings\test\mes documents\source\virtuos_v17\build\program\_common\item.h
;	COMDAT ?IsEatPet@CItemElem@@QAEHXZ
_TEXT	SEGMENT
?IsEatPet@CItemElem@@QAEHXZ PROC NEAR			; CItemElem::IsEatPet, COMDAT
; _this$ = ecx

; 217  : 	BOOL	IsEatPet( void )	{	return GetProp()->dwItemKind3 == IK3_PET;	}

  00000	8b 41 0c	 mov	 eax, DWORD PTR [ecx+12]
  00003	85 c0		 test	 eax, eax
  00005	8b 0d 5c 02 00
	00		 mov	 ecx, DWORD PTR ?prj@@3VCProject@@A+604
  0000b	7c 1d		 jl	 SHORT $L268544
  0000d	3b c1		 cmp	 eax, ecx
  0000f	7d 19		 jge	 SHORT $L268544
  00011	73 2d		 jae	 SHORT $L268546
  00013	8b 0d 4c 02 00
	00		 mov	 ecx, DWORD PTR ?prj@@3VCProject@@A+588
  00019	8b 04 81	 mov	 eax, DWORD PTR [ecx+eax*4]
  0001c	8b 48 78	 mov	 ecx, DWORD PTR [eax+120]
  0001f	33 d2		 xor	 edx, edx
  00021	83 f9 64	 cmp	 ecx, 100		; 00000064H
  00024	0f 94 c2	 sete	 dl
  00027	8b c2		 mov	 eax, edx
  00029	c3		 ret	 0
$L268544:
  0002a	50		 push	 eax
  0002b	51		 push	 ecx
  0002c	6a 00		 push	 0
  0002e	68 00 00 00 00	 push	 OFFSET FLAT:??_C@_0BI@BEIFNGEL@GetItemProp?5range_error?$AA@
  00033	68 00 00 00 00	 push	 OFFSET FLAT:??_C@_0BM@HMFGHCP@?$CFs?5min?3?$CFd?0?5max?3?$CFd?0?5index?3?$CFd?$AA@
  00038	e8 00 00 00 00	 call	 ?Error@@YAPBDPBDZZ	; Error
  0003d	83 c4 14	 add	 esp, 20			; 00000014H
$L268546:
  00040	33 c0		 xor	 eax, eax
  00042	8b 48 78	 mov	 ecx, DWORD PTR [eax+120]
  00045	33 d2		 xor	 edx, edx
  00047	83 f9 64	 cmp	 ecx, 100		; 00000064H
  0004a	0f 94 c2	 sete	 dl
  0004d	8b c2		 mov	 eax, edx
  0004f	c3		 ret	 0
?IsEatPet@CItemElem@@QAEHXZ ENDP			; CItemElem::IsEatPet
_TEXT	ENDS
PUBLIC	?ResetItem@CAIPet@@QAEXXZ			; CAIPet::ResetItem
EXTRN	?ResetDestParamRandomOptExtension@CMover@@QAEXPAVCItemElem@@@Z:NEAR ; CMover::ResetDestParamRandomOptExtension
EXTRN	?GetItemId@CMover@@QAEPAVCItemBase@@K@Z:NEAR	; CMover::GetItemId
; Function compile flags: /Ogty
; File c:\documents and settings\test\mes documents\source\virtuos_v17\build\program\_aiinterface\aipet.cpp
;	COMDAT ?ResetItem@CAIPet@@QAEXXZ
_TEXT	SEGMENT
?ResetItem@CAIPet@@QAEXXZ PROC NEAR			; CAIPet::ResetItem, COMDAT
; _this$ = ecx

; 550  : {	//     

  00000	56		 push	 esi
  00001	8b f1		 mov	 esi, ecx

; 551  : 	CMover* pPlayer		= prj.GetMover( m_idOwner );

  00003	8b 46 38	 mov	 eax, DWORD PTR [esi+56]
  00006	57		 push	 edi
  00007	50		 push	 eax
  00008	b9 00 00 00 00	 mov	 ecx, OFFSET FLAT:?prj@@3VCProject@@A
  0000d	e8 00 00 00 00	 call	 ?GetMover@CProject@@QAEPAVCMover@@K@Z ; CProject::GetMover
  00012	8b f8		 mov	 edi, eax

; 552  : 	if( IsValidObj( pPlayer ) )

  00014	85 ff		 test	 edi, edi
  00016	74 3e		 je	 SHORT $L268566
  00018	f6 47 04 01	 test	 BYTE PTR [edi+4], 1
  0001c	75 38		 jne	 SHORT $L268566

; 553  : 	{
; 554  : 		CItemElem* pItem	= static_cast<CItemElem*>( pPlayer->GetItemId( m_idPetItem ) );

  0001e	8b 4e 4c	 mov	 ecx, DWORD PTR [esi+76]
  00021	53		 push	 ebx
  00022	51		 push	 ecx
  00023	8b cf		 mov	 ecx, edi
  00025	e8 00 00 00 00	 call	 ?GetItemId@CMover@@QAEPAVCItemBase@@K@Z ; CMover::GetItemId
  0002a	8b d8		 mov	 ebx, eax

; 555  : 		if( pItem && pItem->IsEatPet() )

  0002c	85 db		 test	 ebx, ebx
  0002e	74 1b		 je	 SHORT $L268563
  00030	8b cb		 mov	 ecx, ebx
  00032	e8 00 00 00 00	 call	 ?IsEatPet@CItemElem@@QAEHXZ ; CItemElem::IsEatPet
  00037	85 c0		 test	 eax, eax
  00039	74 10		 je	 SHORT $L268563

; 556  : 		{
; 557  : 			pPlayer->ResetDestParamRandomOptExtension( pItem );

  0003b	53		 push	 ebx
  0003c	8b cf		 mov	 ecx, edi
  0003e	e8 00 00 00 00	 call	 ?ResetDestParamRandomOptExtension@CMover@@QAEXPAVCItemElem@@@Z ; CMover::ResetDestParamRandomOptExtension

; 558  : 			ResetSkill( pPlayer );	//   

  00043	57		 push	 edi
  00044	8b ce		 mov	 ecx, esi
  00046	e8 00 00 00 00	 call	 ?ResetSkill@CAIPet@@AAEXPAVCMover@@@Z ; CAIPet::ResetSkill
$L268563:
  0004b	5b		 pop	 ebx
  0004c	5f		 pop	 edi

; 559  : 		}
; 560  : 	}
; 561  : 	m_idPetItem		= NULL_ID;

  0004d	c7 46 4c ff ff
	ff ff		 mov	 DWORD PTR [esi+76], -1
  00054	5e		 pop	 esi

; 562  : }

  00055	c3		 ret	 0
$L268566:
  00056	5f		 pop	 edi

; 559  : 		}
; 560  : 	}
; 561  : 	m_idPetItem		= NULL_ID;

  00057	c7 46 4c ff ff
	ff ff		 mov	 DWORD PTR [esi+76], -1
  0005e	5e		 pop	 esi

; 562  : }

  0005f	c3		 ret	 0
?ResetItem@CAIPet@@QAEXXZ ENDP				; CAIPet::ResetItem
_TEXT	ENDS
CRT$XCU	SEGMENT
_$S2	DD	FLAT:_$E1
; Function compile flags: /Ogty
CRT$XCU	ENDS
;	COMDAT _$E1
text$yc	SEGMENT
_$E1	PROC NEAR					; COMDAT

; 24   : 	ON_STATE( STATE_INIT   , StateInit   )

  00000	b8 00 00 00 00	 mov	 eax, OFFSET FLAT:?StateInit@CAIPet@@QAEHABUAIMSG@@@Z ; CAIPet::StateInit
  00005	a3 08 00 00 00	 mov	 DWORD PTR ?stateMapEntries@CAIPet@@2QBUSTATEMAP_ENTRIES@@B+8, eax
  0000a	56		 push	 esi
  0000b	33 f6		 xor	 esi, esi

; 25   : 	ON_STATE( STATE_IDLE   , StateIdle   )

  0000d	b8 00 00 00 00	 mov	 eax, OFFSET FLAT:?StateIdle@CAIPet@@QAEHABUAIMSG@@@Z ; CAIPet::StateIdle
  00012	a3 20 00 00 00	 mov	 DWORD PTR ?stateMapEntries@CAIPet@@2QBUSTATEMAP_ENTRIES@@B+32, eax

; 26   : 	ON_STATE( STATE_RAGE   , StateRage   )

  00017	b8 00 00 00 00	 mov	 eax, OFFSET FLAT:?StateRage@CAIPet@@QAEHABUAIMSG@@@Z ; CAIPet::StateRage
  0001c	33 c9		 xor	 ecx, ecx
  0001e	33 d2		 xor	 edx, edx
  00020	89 35 14 00 00
	00		 mov	 DWORD PTR ?stateMapEntries@CAIPet@@2QBUSTATEMAP_ENTRIES@@B+20, esi
  00026	89 35 2c 00 00
	00		 mov	 DWORD PTR ?stateMapEntries@CAIPet@@2QBUSTATEMAP_ENTRIES@@B+44, esi
  0002c	89 35 44 00 00
	00		 mov	 DWORD PTR ?stateMapEntries@CAIPet@@2QBUSTATEMAP_ENTRIES@@B+68, esi

; 27   : 
; 28   : END_AISTATE_MAP()

  00032	83 ce ff	 or	 esi, -1
  00035	a3 38 00 00 00	 mov	 DWORD PTR ?stateMapEntries@CAIPet@@2QBUSTATEMAP_ENTRIES@@B+56, eax
  0003a	33 c0		 xor	 eax, eax
  0003c	89 35 5c 00 00
	00		 mov	 DWORD PTR ?stateMapEntries@CAIPet@@2QBUSTATEMAP_ENTRIES@@B+92, esi
  00042	89 0d 0c 00 00
	00		 mov	 DWORD PTR ?stateMapEntries@CAIPet@@2QBUSTATEMAP_ENTRIES@@B+12, ecx
  00048	89 15 10 00 00
	00		 mov	 DWORD PTR ?stateMapEntries@CAIPet@@2QBUSTATEMAP_ENTRIES@@B+16, edx
  0004e	89 0d 24 00 00
	00		 mov	 DWORD PTR ?stateMapEntries@CAIPet@@2QBUSTATEMAP_ENTRIES@@B+36, ecx
  00054	89 15 28 00 00
	00		 mov	 DWORD PTR ?stateMapEntries@CAIPet@@2QBUSTATEMAP_ENTRIES@@B+40, edx
  0005a	89 0d 3c 00 00
	00		 mov	 DWORD PTR ?stateMapEntries@CAIPet@@2QBUSTATEMAP_ENTRIES@@B+60, ecx
  00060	89 15 40 00 00
	00		 mov	 DWORD PTR ?stateMapEntries@CAIPet@@2QBUSTATEMAP_ENTRIES@@B+64, edx
  00066	a3 50 00 00 00	 mov	 DWORD PTR ?stateMapEntries@CAIPet@@2QBUSTATEMAP_ENTRIES@@B+80, eax
  0006b	89 0d 54 00 00
	00		 mov	 DWORD PTR ?stateMapEntries@CAIPet@@2QBUSTATEMAP_ENTRIES@@B+84, ecx
  00071	89 15 58 00 00
	00		 mov	 DWORD PTR ?stateMapEntries@CAIPet@@2QBUSTATEMAP_ENTRIES@@B+88, edx
  00077	5e		 pop	 esi
  00078	c3		 ret	 0
_$E1	ENDP
text$yc	ENDS
PUBLIC	?stateMapEntries@CAIPet@@2QBUSTATEMAP_ENTRIES@@B ; CAIPet::stateMapEntries
_DATA	SEGMENT
?stateMapEntries@CAIPet@@2QBUSTATEMAP_ENTRIES@@B DD 01H	; CAIPet::stateMapEntries
	ORG $+4
	DB	16 DUP(00H)
	DD	02H
	DB	20 DUP(00H)
	DD	03H
	DB	20 DUP(00H)
	DD	00H
	ORG $+20
_DATA	ENDS
END
