; Listing generated by Microsoft (R) Optimizing Compiler Version 13.10.6030 

	TITLE	.\AttackArbiter.cpp
	.386P
include listing.inc
if @Version gt 510
.model FLAT
else
_TEXT	SEGMENT PARA USE32 PUBLIC 'CODE'
_TEXT	ENDS
_DATA	SEGMENT DWORD USE32 PUBLIC 'DATA'
_DATA	ENDS
CONST	SEGMENT DWORD USE32 PUBLIC 'CONST'
CONST	ENDS
_BSS	SEGMENT DWORD USE32 PUBLIC 'BSS'
_BSS	ENDS
$$SYMBOLS	SEGMENT BYTE USE32 'DEBSYM'
$$SYMBOLS	ENDS
$$TYPES	SEGMENT BYTE USE32 'DEBTYP'
$$TYPES	ENDS
_TLS	SEGMENT DWORD USE32 PUBLIC 'TLS'
_TLS	ENDS
;	COMDAT ??_C@_0BA@GFPHKILF@ProcessAbnormal?$AA@
CONST	SEGMENT DWORD USE32 PUBLIC 'CONST'
CONST	ENDS
xdata$x	SEGMENT DWORD USE32 PUBLIC 'CONST'
xdata$x	ENDS
text$AFX_COL1	SEGMENT PARA USE32 PUBLIC ''
text$AFX_COL1	ENDS
;	COMDAT ?SelectMemberClear@__GuildCombatMember@CGuildCombat@@QAEXXZ
_TEXT	SEGMENT PARA USE32 PUBLIC 'CODE'
_TEXT	ENDS
;	COMDAT ??0__MINIGAME_PACKET@@QAE@GHHH@Z
_TEXT	SEGMENT PARA USE32 PUBLIC 'CODE'
_TEXT	ENDS
;	COMDAT ?Serialize@__MINIGAME_PACKET@@UAEXAAVCAr@@@Z
_TEXT	SEGMENT PARA USE32 PUBLIC 'CODE'
_TEXT	ENDS
;	COMDAT ?Serialize@__MINIGAME_EXT_PACKET@@UAEXAAVCAr@@@Z
_TEXT	SEGMENT PARA USE32 PUBLIC 'CODE'
_TEXT	ENDS
;	COMDAT ??0MINIGMAME_PRIZE_LIST@CRainbowRaceMng@@QAE@KHK@Z
_TEXT	SEGMENT PARA USE32 PUBLIC 'CODE'
_TEXT	ENDS
;	COMDAT ?RemovePlayerId2CampusId@CCampusMng@@QAEXK@Z
_TEXT	SEGMENT PARA USE32 PUBLIC 'CODE'
_TEXT	ENDS
;	COMDAT ?GetPacketSize@CBuffer2@@UAEKPAE@Z
_TEXT	SEGMENT PARA USE32 PUBLIC 'CODE'
_TEXT	ENDS
;	COMDAT ?SetHeader@CBuffer2@@UAEXK@Z
_TEXT	SEGMENT PARA USE32 PUBLIC 'CODE'
_TEXT	ENDS
;	COMDAT ??_GCBuffer2@@UAEPAXI@Z
_TEXT	SEGMENT PARA USE32 PUBLIC 'CODE'
_TEXT	ENDS
;	COMDAT ??1CBuffer2@@UAE@XZ
_TEXT	SEGMENT PARA USE32 PUBLIC 'CODE'
_TEXT	ENDS
;	COMDAT ?IsEmpty@CBufferQueue@@QAEHXZ
_TEXT	SEGMENT PARA USE32 PUBLIC 'CODE'
_TEXT	ENDS
;	COMDAT ??1CMapChild@@UAE@XZ
_TEXT	SEGMENT PARA USE32 PUBLIC 'CODE'
_TEXT	ENDS
;	COMDAT ??_GCMapChild@@UAEPAXI@Z
_TEXT	SEGMENT PARA USE32 PUBLIC 'CODE'
_TEXT	ENDS
;	COMDAT ??1?$map@KPAVCClientSock@@U?$less@K@std@@V?$allocator@U?$pair@$$CBKPAVCClientSock@@@std@@@3@@std@@QAE@XZ
_TEXT	SEGMENT PARA USE32 PUBLIC 'CODE'
_TEXT	ENDS
;	COMDAT ??1CMapChildE@@UAE@XZ
_TEXT	SEGMENT PARA USE32 PUBLIC 'CODE'
_TEXT	ENDS
;	COMDAT ??_GCMapChildE@@UAEPAXI@Z
_TEXT	SEGMENT PARA USE32 PUBLIC 'CODE'
_TEXT	ENDS
;	COMDAT ??1?$map@KPAVCClientSockE@@U?$less@K@std@@V?$allocator@U?$pair@$$CBKPAVCClientSockE@@@std@@@3@@std@@QAE@XZ
_TEXT	SEGMENT PARA USE32 PUBLIC 'CODE'
_TEXT	ENDS
;	COMDAT ?GetRecvHandle@CDPSock@@QAEPAXXZ
_TEXT	SEGMENT PARA USE32 PUBLIC 'CODE'
_TEXT	ENDS
;	COMDAT ?GetAtkType@ATTACK_INFO@@QBE?AW4ATK_TYPE@@XZ
_TEXT	SEGMENT PARA USE32 PUBLIC 'CODE'
_TEXT	ENDS
;	COMDAT ?CanIgnoreDEF@ATTACK_INFO@@QBEHXZ
_TEXT	SEGMENT PARA USE32 PUBLIC 'CODE'
_TEXT	ENDS
;	COMDAT ?GetChargeLevel@ATTACK_INFO@@QBEHXZ
_TEXT	SEGMENT PARA USE32 PUBLIC 'CODE'
_TEXT	ENDS
;	COMDAT ?GetSkillLevel@ATTACK_INFO@@QBEHXZ
_TEXT	SEGMENT PARA USE32 PUBLIC 'CODE'
_TEXT	ENDS
;	COMDAT ?GetAttackCount@ATTACK_INFO@@QBEHXZ
_TEXT	SEGMENT PARA USE32 PUBLIC 'CODE'
_TEXT	ENDS
;	COMDAT ?GetSkill@ATTACK_INFO@@QBEHXZ
_TEXT	SEGMENT PARA USE32 PUBLIC 'CODE'
_TEXT	ENDS
;	COMDAT ?IsRangeAttack@ATTACK_INFO@@QBEHXZ
_TEXT	SEGMENT PARA USE32 PUBLIC 'CODE'
_TEXT	ENDS
;	COMDAT ??0CAttackArbiter@@QAE@KPAVCMover@@0KHHH@Z
_TEXT	SEGMENT PARA USE32 PUBLIC 'CODE'
_TEXT	ENDS
;	COMDAT ??_GCAttackArbiter@@UAEPAXI@Z
_TEXT	SEGMENT PARA USE32 PUBLIC 'CODE'
_TEXT	ENDS
;	COMDAT ??1CAttackArbiter@@UAE@XZ
_TEXT	SEGMENT PARA USE32 PUBLIC 'CODE'
_TEXT	ENDS
;	COMDAT ?OnDamageMsgW@CAttackArbiter@@QAEHXZ
_TEXT	SEGMENT PARA USE32 PUBLIC 'CODE'
_TEXT	ENDS
;	COMDAT ?CheckValidDamageMsg@CAttackArbiter@@AAEHXZ
_TEXT	SEGMENT PARA USE32 PUBLIC 'CODE'
_TEXT	ENDS
;	COMDAT ?CalcATK@CAttackArbiter@@AAEHPAUATTACK_INFO@@@Z
_TEXT	SEGMENT PARA USE32 PUBLIC 'CODE'
_TEXT	ENDS
;	COMDAT ?CalcDamage@CAttackArbiter@@AAEHPAUATTACK_INFO@@@Z
_TEXT	SEGMENT PARA USE32 PUBLIC 'CODE'
_TEXT	ENDS
;	COMDAT ?OnAfterDamage@CAttackArbiter@@AAEHPAUATTACK_INFO@@H@Z
_TEXT	SEGMENT PARA USE32 PUBLIC 'CODE'
_TEXT	ENDS
;	COMDAT ?GetPostCalcType@@YA?AW4POSTCALC_TYPE@@K@Z
_TEXT	SEGMENT PARA USE32 PUBLIC 'CODE'
_TEXT	ENDS
;	COMDAT ?PostCalcDamage@CAttackArbiter@@AAEHHPAUATTACK_INFO@@@Z
_TEXT	SEGMENT PARA USE32 PUBLIC 'CODE'
_TEXT	ENDS
;	COMDAT ?PostAsalraalaikum@CAttackArbiter@@AAEHXZ
_TEXT	SEGMENT PARA USE32 PUBLIC 'CODE'
_TEXT	ENDS
;	COMDAT ?ChanceSkill@CAttackArbiter@@AAEXHPAVCCtrl@@0@Z
_TEXT	SEGMENT PARA USE32 PUBLIC 'CODE'
_TEXT	ENDS
;	COMDAT ?ProcessAbnormal@CAttackArbiter@@AAEXHPAUATTACK_INFO@@@Z
_TEXT	SEGMENT PARA USE32 PUBLIC 'CODE'
_TEXT	ENDS
;	COMDAT ?MinusHP@CAttackArbiter@@AAEHPAH@Z
_TEXT	SEGMENT PARA USE32 PUBLIC 'CODE'
_TEXT	ENDS
;	COMDAT ?StealHP@CAttackArbiter@@AAEXHW4ATK_TYPE@@@Z
_TEXT	SEGMENT PARA USE32 PUBLIC 'CODE'
_TEXT	ENDS
;	COMDAT ?OnDamaged@CAttackArbiter@@AAEXH@Z
_TEXT	SEGMENT PARA USE32 PUBLIC 'CODE'
_TEXT	ENDS
;	COMDAT ?OnDied@CAttackArbiter@@AAEXXZ
_TEXT	SEGMENT PARA USE32 PUBLIC 'CODE'
_TEXT	ENDS
;	COMDAT ?OnDiedPVP@CAttackArbiter@@AAEXXZ
_TEXT	SEGMENT PARA USE32 PUBLIC 'CODE'
_TEXT	ENDS
;	COMDAT ?OnDiedSchoolEvent@CAttackArbiter@@AAEXXZ
_TEXT	SEGMENT PARA USE32 PUBLIC 'CODE'
_TEXT	ENDS
;	COMDAT ?GetHandFlag@CAttackArbiter@@AAEEXZ
_TEXT	SEGMENT PARA USE32 PUBLIC 'CODE'
_TEXT	ENDS
;	COMDAT ?compare@?$basic_string@DU?$char_traits@D@std@@V?$allocator@D@2@@std@@QBEHABV12@@Z
_TEXT	SEGMENT PARA USE32 PUBLIC 'CODE'
_TEXT	ENDS
;	COMDAT ?IsFull@?$CStack@K@@QAEHXZ
_TEXT	SEGMENT PARA USE32 PUBLIC 'CODE'
_TEXT	ENDS
;	COMDAT ??A?$map@KPAVCCtrl@@U?$less@K@std@@V?$allocator@U?$pair@$$CBKPAVCCtrl@@@std@@@3@@std@@QAEAAPAVCCtrl@@ABK@Z
_TEXT	SEGMENT PARA USE32 PUBLIC 'CODE'
_TEXT	ENDS
;	COMDAT ??0?$pair@KPAVCCtrl@@@std@@QAE@ABKABQAVCCtrl@@@Z
_TEXT	SEGMENT PARA USE32 PUBLIC 'CODE'
_TEXT	ENDS
;	COMDAT ??0?$map@KHU?$less@K@std@@V?$allocator@U?$pair@$$CBKH@std@@@2@@std@@QAE@XZ
_TEXT	SEGMENT PARA USE32 PUBLIC 'CODE'
_TEXT	ENDS
;	COMDAT ?GetMax@?$CItemContainer@VCItemElem@@@@QAEHXZ
_TEXT	SEGMENT PARA USE32 PUBLIC 'CODE'
_TEXT	ENDS
;	COMDAT ??0?$deque@PAUtagACTMSG@@V?$allocator@PAUtagACTMSG@@@std@@@std@@QAE@XZ
_TEXT	SEGMENT PARA USE32 PUBLIC 'CODE'
_TEXT	ENDS
;	COMDAT ??1?$deque@PAUtagACTMSG@@V?$allocator@PAUtagACTMSG@@@std@@@std@@QAE@XZ
_TEXT	SEGMENT PARA USE32 PUBLIC 'CODE'
_TEXT	ENDS
;	COMDAT ?begin@?$deque@PAUtagACTMSG@@V?$allocator@PAUtagACTMSG@@@std@@@std@@QAE?AViterator@12@XZ
_TEXT	SEGMENT PARA USE32 PUBLIC 'CODE'
_TEXT	ENDS
;	COMDAT ?end@?$deque@PAUtagACTMSG@@V?$allocator@PAUtagACTMSG@@@std@@@std@@QAE?AViterator@12@XZ
_TEXT	SEGMENT PARA USE32 PUBLIC 'CODE'
_TEXT	ENDS
;	COMDAT ?empty@?$deque@PAUtagACTMSG@@V?$allocator@PAUtagACTMSG@@@std@@@std@@QBE_NXZ
_TEXT	SEGMENT PARA USE32 PUBLIC 'CODE'
_TEXT	ENDS
;	COMDAT ?clear@?$deque@PAUtagACTMSG@@V?$allocator@PAUtagACTMSG@@@std@@@std@@QAEXXZ
_TEXT	SEGMENT PARA USE32 PUBLIC 'CODE'
_TEXT	ENDS
;	COMDAT ??0?$deque@PAUtagMAGICATKMSG@@V?$allocator@PAUtagMAGICATKMSG@@@std@@@std@@QAE@XZ
_TEXT	SEGMENT PARA USE32 PUBLIC 'CODE'
_TEXT	ENDS
;	COMDAT ??1?$deque@PAUtagMAGICATKMSG@@V?$allocator@PAUtagMAGICATKMSG@@@std@@@std@@QAE@XZ
_TEXT	SEGMENT PARA USE32 PUBLIC 'CODE'
_TEXT	ENDS
;	COMDAT ?begin@?$deque@PAUtagMAGICATKMSG@@V?$allocator@PAUtagMAGICATKMSG@@@std@@@std@@QAE?AViterator@12@XZ
_TEXT	SEGMENT PARA USE32 PUBLIC 'CODE'
_TEXT	ENDS
;	COMDAT ?end@?$deque@PAUtagMAGICATKMSG@@V?$allocator@PAUtagMAGICATKMSG@@@std@@@std@@QAE?AViterator@12@XZ
_TEXT	SEGMENT PARA USE32 PUBLIC 'CODE'
_TEXT	ENDS
;	COMDAT ?empty@?$deque@PAUtagMAGICATKMSG@@V?$allocator@PAUtagMAGICATKMSG@@@std@@@std@@QBE_NXZ
_TEXT	SEGMENT PARA USE32 PUBLIC 'CODE'
_TEXT	ENDS
;	COMDAT ?clear@?$deque@PAUtagMAGICATKMSG@@V?$allocator@PAUtagMAGICATKMSG@@@std@@@std@@QAEXXZ
_TEXT	SEGMENT PARA USE32 PUBLIC 'CODE'
_TEXT	ENDS
;	COMDAT ??Citerator@?$_Tree@V?$_Tmap_traits@KHU?$less@K@std@@V?$allocator@U?$pair@$$CBKH@std@@@2@$0A@@std@@@std@@QBEPAU?$pair@$$CBKH@2@XZ
_TEXT	SEGMENT PARA USE32 PUBLIC 'CODE'
_TEXT	ENDS
;	COMDAT ??Diterator@?$deque@PAUtagACTMSG@@V?$allocator@PAUtagACTMSG@@@std@@@std@@QBEAAPAUtagACTMSG@@XZ
_TEXT	SEGMENT PARA USE32 PUBLIC 'CODE'
_TEXT	ENDS
;	COMDAT ??Eiterator@?$deque@PAUtagACTMSG@@V?$allocator@PAUtagACTMSG@@@std@@@std@@QAEAAV012@XZ
_TEXT	SEGMENT PARA USE32 PUBLIC 'CODE'
_TEXT	ENDS
;	COMDAT ??9const_iterator@?$deque@PAUtagACTMSG@@V?$allocator@PAUtagACTMSG@@@std@@@std@@QBE_NABV012@@Z
_TEXT	SEGMENT PARA USE32 PUBLIC 'CODE'
_TEXT	ENDS
;	COMDAT ??Diterator@?$deque@PAUtagMAGICATKMSG@@V?$allocator@PAUtagMAGICATKMSG@@@std@@@std@@QBEAAPAUtagMAGICATKMSG@@XZ
_TEXT	SEGMENT PARA USE32 PUBLIC 'CODE'
_TEXT	ENDS
;	COMDAT ??Eiterator@?$deque@PAUtagMAGICATKMSG@@V?$allocator@PAUtagMAGICATKMSG@@@std@@@std@@QAEAAV012@XZ
_TEXT	SEGMENT PARA USE32 PUBLIC 'CODE'
_TEXT	ENDS
;	COMDAT ??9const_iterator@?$deque@PAUtagMAGICATKMSG@@V?$allocator@PAUtagMAGICATKMSG@@@std@@@std@@QBE_NABV012@@Z
_TEXT	SEGMENT PARA USE32 PUBLIC 'CODE'
_TEXT	ENDS
;	COMDAT ?erase@?$_Tree@V?$_Tmap_traits@KU_Friend@@U?$less@K@std@@V?$allocator@U?$pair@$$CBKU_Friend@@@std@@@3@$0A@@std@@@std@@QAEIABK@Z
_TEXT	SEGMENT PARA USE32 PUBLIC 'CODE'
_TEXT	ENDS
;	COMDAT ?size@?$_Tree@V?$_Tmap_traits@KPAVCGuildMember@@U?$less@K@std@@V?$allocator@U?$pair@$$CBKPAVCGuildMember@@@std@@@3@$0A@@std@@@std@@QBEIXZ
_TEXT	SEGMENT PARA USE32 PUBLIC 'CODE'
_TEXT	ENDS
;	COMDAT ?size@?$_Tree@V?$_Tmap_traits@KPAVCGuild@@U?$less@K@std@@V?$allocator@U?$pair@$$CBKPAVCGuild@@@std@@@3@$0A@@std@@@std@@QBEIXZ
_TEXT	SEGMENT PARA USE32 PUBLIC 'CODE'
_TEXT	ENDS
;	COMDAT ?size@?$vector@PAU__JOINPLAYER@CGuildCombat@@V?$allocator@PAU__JOINPLAYER@CGuildCombat@@@std@@@std@@QBEIXZ
_TEXT	SEGMENT PARA USE32 PUBLIC 'CODE'
_TEXT	ENDS
;	COMDAT ??A?$vector@PAU__JOINPLAYER@CGuildCombat@@V?$allocator@PAU__JOINPLAYER@CGuildCombat@@@std@@@std@@QAEAAPAU__JOINPLAYER@CGuildCombat@@I@Z
_TEXT	SEGMENT PARA USE32 PUBLIC 'CODE'
_TEXT	ENDS
;	COMDAT ?clear@?$vector@PAU__JOINPLAYER@CGuildCombat@@V?$allocator@PAU__JOINPLAYER@CGuildCombat@@@std@@@std@@QAEXXZ
_TEXT	SEGMENT PARA USE32 PUBLIC 'CODE'
_TEXT	ENDS
;	COMDAT ?clear@?$list@PAU__JOINPLAYER@CGuildCombat@@V?$allocator@PAU__JOINPLAYER@CGuildCombat@@@std@@@std@@QAEXXZ
_TEXT	SEGMENT PARA USE32 PUBLIC 'CODE'
_TEXT	ENDS
;	COMDAT ?size@?$_Tree@V?$_Tmap_traits@KPAU_PlayerData@@U?$less@K@std@@V?$allocator@U?$pair@$$CBKPAU_PlayerData@@@std@@@3@$0A@@std@@@std@@QBEIXZ
_TEXT	SEGMENT PARA USE32 PUBLIC 'CODE'
_TEXT	ENDS
;	COMDAT ??0?$vector@U__SECRETROOM_MONSTER@@V?$allocator@U__SECRETROOM_MONSTER@@@std@@@std@@QAE@XZ
_TEXT	SEGMENT PARA USE32 PUBLIC 'CODE'
_TEXT	ENDS
;	COMDAT ??1?$vector@U__SECRETROOM_MONSTER@@V?$allocator@U__SECRETROOM_MONSTER@@@std@@@std@@QAE@XZ
_TEXT	SEGMENT PARA USE32 PUBLIC 'CODE'
_TEXT	ENDS
;	COMDAT ??0?$vector@V?$basic_string@DU?$char_traits@D@std@@V?$allocator@D@2@@std@@V?$allocator@V?$basic_string@DU?$char_traits@D@std@@V?$allocator@D@2@@std@@@2@@std@@QAE@XZ
_TEXT	SEGMENT PARA USE32 PUBLIC 'CODE'
_TEXT	ENDS
;	COMDAT ??1?$vector@V?$basic_string@DU?$char_traits@D@std@@V?$allocator@D@2@@std@@V?$allocator@V?$basic_string@DU?$char_traits@D@std@@V?$allocator@D@2@@std@@@2@@std@@QAE@XZ
_TEXT	SEGMENT PARA USE32 PUBLIC 'CODE'
_TEXT	ENDS
;	COMDAT ?size@?$vector@V?$basic_string@DU?$char_traits@D@std@@V?$allocator@D@2@@std@@V?$allocator@V?$basic_string@DU?$char_traits@D@std@@V?$allocator@D@2@@std@@@2@@std@@QBEIXZ
_TEXT	SEGMENT PARA USE32 PUBLIC 'CODE'
_TEXT	ENDS
;	COMDAT ??A?$vector@V?$basic_string@DU?$char_traits@D@std@@V?$allocator@D@2@@std@@V?$allocator@V?$basic_string@DU?$char_traits@D@std@@V?$allocator@D@2@@std@@@2@@std@@QAEAAV?$basic_string@DU?$char_traits@D@std@@V?$allocator@D@2@@1@I@Z
_TEXT	SEGMENT PARA USE32 PUBLIC 'CODE'
_TEXT	ENDS
;	COMDAT ?push_back@?$vector@V?$basic_string@DU?$char_traits@D@std@@V?$allocator@D@2@@std@@V?$allocator@V?$basic_string@DU?$char_traits@D@std@@V?$allocator@D@2@@std@@@2@@std@@QAEXABV?$basic_string@DU?$char_traits@D@std@@V?$allocator@D@2@@2@@Z
_TEXT	SEGMENT PARA USE32 PUBLIC 'CODE'
_TEXT	ENDS
;	COMDAT ?clear@?$vector@V?$basic_string@DU?$char_traits@D@std@@V?$allocator@D@2@@std@@V?$allocator@V?$basic_string@DU?$char_traits@D@std@@V?$allocator@D@2@@std@@@2@@std@@QAEXXZ
_TEXT	SEGMENT PARA USE32 PUBLIC 'CODE'
_TEXT	ENDS
;	COMDAT ?push_back@?$vector@UMINIGMAME_PRIZE_LIST@CRainbowRaceMng@@V?$allocator@UMINIGMAME_PRIZE_LIST@CRainbowRaceMng@@@std@@@std@@QAEXABUMINIGMAME_PRIZE_LIST@CRainbowRaceMng@@@Z
_TEXT	SEGMENT PARA USE32 PUBLIC 'CODE'
_TEXT	ENDS
;	COMDAT ?size@?$_Tree@V?$_Tmap_traits@KPAVCRainbowRace@@U?$less@K@std@@V?$allocator@U?$pair@$$CBKPAVCRainbowRace@@@std@@@3@$0A@@std@@@std@@QBEIXZ
_TEXT	SEGMENT PARA USE32 PUBLIC 'CODE'
_TEXT	ENDS
;	COMDAT ?size@?$vector@PAVCMiniGameBase@@V?$allocator@PAVCMiniGameBase@@@std@@@std@@QBEIXZ
_TEXT	SEGMENT PARA USE32 PUBLIC 'CODE'
_TEXT	ENDS
;	COMDAT ??A?$vector@PAVCMiniGameBase@@V?$allocator@PAVCMiniGameBase@@@std@@@std@@QAEAAPAVCMiniGameBase@@I@Z
_TEXT	SEGMENT PARA USE32 PUBLIC 'CODE'
_TEXT	ENDS
;	COMDAT ?size@?$vector@UGuildHouse_Furniture_Info@CGuildHouseBase@@V?$allocator@UGuildHouse_Furniture_Info@CGuildHouseBase@@@std@@@std@@QBEIXZ
_TEXT	SEGMENT PARA USE32 PUBLIC 'CODE'
_TEXT	ENDS
;	COMDAT ??A?$vector@UGuildHouse_Furniture_Info@CGuildHouseBase@@V?$allocator@UGuildHouse_Furniture_Info@CGuildHouseBase@@@std@@@std@@QAEAAUGuildHouse_Furniture_Info@CGuildHouseBase@@I@Z
_TEXT	SEGMENT PARA USE32 PUBLIC 'CODE'
_TEXT	ENDS
;	COMDAT ?empty@?$_Tree@V?$_Tmap_traits@KPAVCGuildHouseBase@@U?$less@K@std@@V?$allocator@U?$pair@$$CBKPAVCGuildHouseBase@@@std@@@3@$0A@@std@@@std@@QBE_NXZ
_TEXT	SEGMENT PARA USE32 PUBLIC 'CODE'
_TEXT	ENDS
;	COMDAT ?insert@?$_Tree@V?$_Tmap_traits@KPAVCGuildHouseBase@@U?$less@K@std@@V?$allocator@U?$pair@$$CBKPAVCGuildHouseBase@@@std@@@3@$0A@@std@@@std@@QAE?AU?$pair@Viterator@?$_Tree@V?$_Tmap_traits@KPAVCGuildHouseBase@@U?$less@K@std@@V?$allocator@U?$pair@$$CBKPAVCGuildHouseBase@@@std@@@3@$0A@@std@@@std@@_N@2@ABU?$pair@$$CBKPAVCGuildHouseBase@@@2@@Z
_TEXT	SEGMENT PARA USE32 PUBLIC 'CODE'
_TEXT	ENDS
;	COMDAT ?size@?$_Tree@V?$_Tmap_traits@KPAVCCampusMember@@U?$less@K@std@@V?$allocator@U?$pair@$$CBKPAVCCampusMember@@@std@@@3@$0A@@std@@@std@@QBEIXZ
_TEXT	SEGMENT PARA USE32 PUBLIC 'CODE'
_TEXT	ENDS
;	COMDAT ?empty@?$_Tree@V?$_Tmap_traits@KPAVCCampus@@U?$less@K@std@@V?$allocator@U?$pair@$$CBKPAVCCampus@@@std@@@3@$0A@@std@@@std@@QBE_NXZ
_TEXT	SEGMENT PARA USE32 PUBLIC 'CODE'
_TEXT	ENDS
;	COMDAT ?erase@?$_Tree@V?$_Tmap_traits@KKU?$less@K@std@@V?$allocator@U?$pair@$$CBKK@std@@@2@$0A@@std@@@std@@QAEIABK@Z
_TEXT	SEGMENT PARA USE32 PUBLIC 'CODE'
_TEXT	ENDS
;	COMDAT ??0?$map@KPAVCClientSock@@U?$less@K@std@@V?$allocator@U?$pair@$$CBKPAVCClientSock@@@std@@@3@@std@@QAE@XZ
_TEXT	SEGMENT PARA USE32 PUBLIC 'CODE'
_TEXT	ENDS
;	COMDAT ??1?$_Tree@V?$_Tmap_traits@KPAVCClientSock@@U?$less@K@std@@V?$allocator@U?$pair@$$CBKPAVCClientSock@@@std@@@3@$0A@@std@@@std@@QAE@XZ
_TEXT	SEGMENT PARA USE32 PUBLIC 'CODE'
_TEXT	ENDS
;	COMDAT ?end@?$_Tree@V?$_Tmap_traits@KPAVCClientSock@@U?$less@K@std@@V?$allocator@U?$pair@$$CBKPAVCClientSock@@@std@@@3@$0A@@std@@@std@@QAE?AViterator@12@XZ
_TEXT	SEGMENT PARA USE32 PUBLIC 'CODE'
_TEXT	ENDS
;	COMDAT ?find@?$_Tree@V?$_Tmap_traits@KPAVCClientSock@@U?$less@K@std@@V?$allocator@U?$pair@$$CBKPAVCClientSock@@@std@@@3@$0A@@std@@@std@@QAE?AViterator@12@ABK@Z
_TEXT	SEGMENT PARA USE32 PUBLIC 'CODE'
_TEXT	ENDS
;	COMDAT ??Citerator@?$_Tree@V?$_Tmap_traits@KPAVCClientSock@@U?$less@K@std@@V?$allocator@U?$pair@$$CBKPAVCClientSock@@@std@@@3@$0A@@std@@@std@@QBEPAU?$pair@$$CBKPAVCClientSock@@@2@XZ
_TEXT	SEGMENT PARA USE32 PUBLIC 'CODE'
_TEXT	ENDS
;	COMDAT ??9const_iterator@?$_Tree@V?$_Tmap_traits@KPAVCClientSock@@U?$less@K@std@@V?$allocator@U?$pair@$$CBKPAVCClientSock@@@std@@@3@$0A@@std@@@std@@QBE_NABV012@@Z
_TEXT	SEGMENT PARA USE32 PUBLIC 'CODE'
_TEXT	ENDS
;	COMDAT ??0?$map@KPAVCClientSockE@@U?$less@K@std@@V?$allocator@U?$pair@$$CBKPAVCClientSockE@@@std@@@3@@std@@QAE@XZ
_TEXT	SEGMENT PARA USE32 PUBLIC 'CODE'
_TEXT	ENDS
;	COMDAT ??1?$_Tree@V?$_Tmap_traits@KPAVCClientSockE@@U?$less@K@std@@V?$allocator@U?$pair@$$CBKPAVCClientSockE@@@std@@@3@$0A@@std@@@std@@QAE@XZ
_TEXT	SEGMENT PARA USE32 PUBLIC 'CODE'
_TEXT	ENDS
;	COMDAT ?end@?$_Tree@V?$_Tmap_traits@KPAVCClientSockE@@U?$less@K@std@@V?$allocator@U?$pair@$$CBKPAVCClientSockE@@@std@@@3@$0A@@std@@@std@@QAE?AViterator@12@XZ
_TEXT	SEGMENT PARA USE32 PUBLIC 'CODE'
_TEXT	ENDS
;	COMDAT ?find@?$_Tree@V?$_Tmap_traits@KPAVCClientSockE@@U?$less@K@std@@V?$allocator@U?$pair@$$CBKPAVCClientSockE@@@std@@@3@$0A@@std@@@std@@QAE?AViterator@12@ABK@Z
_TEXT	SEGMENT PARA USE32 PUBLIC 'CODE'
_TEXT	ENDS
;	COMDAT ??Citerator@?$_Tree@V?$_Tmap_traits@KPAVCClientSockE@@U?$less@K@std@@V?$allocator@U?$pair@$$CBKPAVCClientSockE@@@std@@@3@$0A@@std@@@std@@QBEPAU?$pair@$$CBKPAVCClientSockE@@@2@XZ
_TEXT	SEGMENT PARA USE32 PUBLIC 'CODE'
_TEXT	ENDS
;	COMDAT ??9const_iterator@?$_Tree@V?$_Tmap_traits@KPAVCClientSockE@@U?$less@K@std@@V?$allocator@U?$pair@$$CBKPAVCClientSockE@@@std@@@3@$0A@@std@@@std@@QBE_NABV012@@Z
_TEXT	SEGMENT PARA USE32 PUBLIC 'CODE'
_TEXT	ENDS
;	COMDAT ?end@?$_Tree@V?$_Tmap_traits@KP8CDPDatabaseClient@@AEXAAVCAr@@KK@ZU?$less@K@std@@V?$allocator@U?$pair@$$CBKP8CDPDatabaseClient@@AEXAAVCAr@@KK@Z@std@@@4@$0A@@std@@@std@@QAE?AViterator@12@XZ
_TEXT	SEGMENT PARA USE32 PUBLIC 'CODE'
_TEXT	ENDS
;	COMDAT ?find@?$_Tree@V?$_Tmap_traits@KP8CDPDatabaseClient@@AEXAAVCAr@@KK@ZU?$less@K@std@@V?$allocator@U?$pair@$$CBKP8CDPDatabaseClient@@AEXAAVCAr@@KK@Z@std@@@4@$0A@@std@@@std@@QAE?AViterator@12@ABK@Z
_TEXT	SEGMENT PARA USE32 PUBLIC 'CODE'
_TEXT	ENDS
;	COMDAT ??Citerator@?$_Tree@V?$_Tmap_traits@KP8CDPDatabaseClient@@AEXAAVCAr@@KK@ZU?$less@K@std@@V?$allocator@U?$pair@$$CBKP8CDPDatabaseClient@@AEXAAVCAr@@KK@Z@std@@@4@$0A@@std@@@std@@QBEPAU?$pair@$$CBKP8CDPDatabaseClient@@AEXAAVCAr@@KK@Z@2@XZ
_TEXT	SEGMENT PARA USE32 PUBLIC 'CODE'
_TEXT	ENDS
;	COMDAT ??9const_iterator@?$_Tree@V?$_Tmap_traits@KP8CDPDatabaseClient@@AEXAAVCAr@@KK@ZU?$less@K@std@@V?$allocator@U?$pair@$$CBKP8CDPDatabaseClient@@AEXAAVCAr@@KK@Z@std@@@4@$0A@@std@@@std@@QBE_NABV012@@Z
_TEXT	SEGMENT PARA USE32 PUBLIC 'CODE'
_TEXT	ENDS
;	COMDAT ?compare@?$basic_string@DU?$char_traits@D@std@@V?$allocator@D@2@@std@@QBEHIIPBDI@Z
_TEXT	SEGMENT PARA USE32 PUBLIC 'CODE'
_TEXT	ENDS
;	COMDAT ??0?$allocator@V?$basic_string@DU?$char_traits@D@std@@V?$allocator@D@2@@std@@@std@@QAE@XZ
_TEXT	SEGMENT PARA USE32 PUBLIC 'CODE'
_TEXT	ENDS
;	COMDAT ?insert@?$_Tree@V?$_Tmap_traits@KPAVCCtrl@@U?$less@K@std@@V?$allocator@U?$pair@$$CBKPAVCCtrl@@@std@@@3@$0A@@std@@@std@@QAE?AViterator@12@V312@ABU?$pair@$$CBKPAVCCtrl@@@2@@Z
_TEXT	SEGMENT PARA USE32 PUBLIC 'CODE'
_TEXT	ENDS
;	COMDAT ??0?$pair@$$CBKPAVCCtrl@@@std@@QAE@ABKABQAVCCtrl@@@Z
_TEXT	SEGMENT PARA USE32 PUBLIC 'CODE'
_TEXT	ENDS
;	COMDAT ??0?$_Tree@V?$_Tmap_traits@KHU?$less@K@std@@V?$allocator@U?$pair@$$CBKH@std@@@2@$0A@@std@@@std@@QAE@ABU?$less@K@1@ABV?$allocator@U?$pair@$$CBKH@std@@@1@@Z
_TEXT	SEGMENT PARA USE32 PUBLIC 'CODE'
_TEXT	ENDS
;	COMDAT ??0?$allocator@U?$pair@$$CBKH@std@@@std@@QAE@XZ
_TEXT	SEGMENT PARA USE32 PUBLIC 'CODE'
_TEXT	ENDS
;	COMDAT ?_Tidy@?$deque@PAUtagACTMSG@@V?$allocator@PAUtagACTMSG@@@std@@@std@@IAEXXZ
_TEXT	SEGMENT PARA USE32 PUBLIC 'CODE'
_TEXT	ENDS
;	COMDAT ??0?$_Deque_val@PAUtagACTMSG@@V?$allocator@PAUtagACTMSG@@@std@@@std@@IAE@V?$allocator@PAUtagACTMSG@@@1@@Z
_TEXT	SEGMENT PARA USE32 PUBLIC 'CODE'
_TEXT	ENDS
;	COMDAT ??0?$allocator@PAUtagACTMSG@@@std@@QAE@XZ
_TEXT	SEGMENT PARA USE32 PUBLIC 'CODE'
_TEXT	ENDS
;	COMDAT ?_Tidy@?$deque@PAUtagMAGICATKMSG@@V?$allocator@PAUtagMAGICATKMSG@@@std@@@std@@IAEXXZ
_TEXT	SEGMENT PARA USE32 PUBLIC 'CODE'
_TEXT	ENDS
;	COMDAT ??0?$_Deque_val@PAUtagMAGICATKMSG@@V?$allocator@PAUtagMAGICATKMSG@@@std@@@std@@IAE@V?$allocator@PAUtagMAGICATKMSG@@@1@@Z
_TEXT	SEGMENT PARA USE32 PUBLIC 'CODE'
_TEXT	ENDS
;	COMDAT ??0?$allocator@PAUtagMAGICATKMSG@@@std@@QAE@XZ
_TEXT	SEGMENT PARA USE32 PUBLIC 'CODE'
_TEXT	ENDS
;	COMDAT ??Diterator@?$_Tree@V?$_Tmap_traits@KHU?$less@K@std@@V?$allocator@U?$pair@$$CBKH@std@@@2@$0A@@std@@@std@@QBEAAU?$pair@$$CBKH@2@XZ
_TEXT	SEGMENT PARA USE32 PUBLIC 'CODE'
_TEXT	ENDS
;	COMDAT ??0iterator@?$deque@PAUtagACTMSG@@V?$allocator@PAUtagACTMSG@@@std@@@std@@QAE@IPBV12@@Z
_TEXT	SEGMENT PARA USE32 PUBLIC 'CODE'
_TEXT	ENDS
;	COMDAT ??Dconst_iterator@?$deque@PAUtagACTMSG@@V?$allocator@PAUtagACTMSG@@@std@@@std@@QBEABQAUtagACTMSG@@XZ
_TEXT	SEGMENT PARA USE32 PUBLIC 'CODE'
_TEXT	ENDS
;	COMDAT ??8const_iterator@?$deque@PAUtagACTMSG@@V?$allocator@PAUtagACTMSG@@@std@@@std@@QBE_NABV012@@Z
_TEXT	SEGMENT PARA USE32 PUBLIC 'CODE'
_TEXT	ENDS
;	COMDAT ??0iterator@?$deque@PAUtagMAGICATKMSG@@V?$allocator@PAUtagMAGICATKMSG@@@std@@@std@@QAE@IPBV12@@Z
_TEXT	SEGMENT PARA USE32 PUBLIC 'CODE'
_TEXT	ENDS
;	COMDAT ??Dconst_iterator@?$deque@PAUtagMAGICATKMSG@@V?$allocator@PAUtagMAGICATKMSG@@@std@@@std@@QBEABQAUtagMAGICATKMSG@@XZ
_TEXT	SEGMENT PARA USE32 PUBLIC 'CODE'
_TEXT	ENDS
;	COMDAT ??8const_iterator@?$deque@PAUtagMAGICATKMSG@@V?$allocator@PAUtagMAGICATKMSG@@@std@@@std@@QBE_NABV012@@Z
_TEXT	SEGMENT PARA USE32 PUBLIC 'CODE'
_TEXT	ENDS
;	COMDAT ?erase@?$_Tree@V?$_Tmap_traits@KU_Friend@@U?$less@K@std@@V?$allocator@U?$pair@$$CBKU_Friend@@@std@@@3@$0A@@std@@@std@@QAE?AViterator@12@V312@0@Z
_TEXT	SEGMENT PARA USE32 PUBLIC 'CODE'
_TEXT	ENDS
;	COMDAT ?equal_range@?$_Tree@V?$_Tmap_traits@KU_Friend@@U?$less@K@std@@V?$allocator@U?$pair@$$CBKU_Friend@@@std@@@3@$0A@@std@@@std@@QAE?AU?$pair@Viterator@?$_Tree@V?$_Tmap_traits@KU_Friend@@U?$less@K@std@@V?$allocator@U?$pair@$$CBKU_Friend@@@std@@@3@$0A@@std@@@std@@V123@@2@ABK@Z
_TEXT	SEGMENT PARA USE32 PUBLIC 'CODE'
_TEXT	ENDS
;	COMDAT ?begin@?$vector@PAU__JOINPLAYER@CGuildCombat@@V?$allocator@PAU__JOINPLAYER@CGuildCombat@@@std@@@std@@QAE?AViterator@12@XZ
_TEXT	SEGMENT PARA USE32 PUBLIC 'CODE'
_TEXT	ENDS
;	COMDAT ?_Tidy@?$vector@PAU__JOINPLAYER@CGuildCombat@@V?$allocator@PAU__JOINPLAYER@CGuildCombat@@@std@@@std@@IAEXXZ
_TEXT	SEGMENT PARA USE32 PUBLIC 'CODE'
_TEXT	ENDS
;	COMDAT ?_Nextnode@?$list@PAU__JOINPLAYER@CGuildCombat@@V?$allocator@PAU__JOINPLAYER@CGuildCombat@@@std@@@std@@KAAAPAU_Node@?$_List_nod@PAU__JOINPLAYER@CGuildCombat@@V?$allocator@PAU__JOINPLAYER@CGuildCombat@@@std@@@2@PAU342@@Z
_TEXT	SEGMENT PARA USE32 PUBLIC 'CODE'
_TEXT	ENDS
;	COMDAT ?_Prevnode@?$list@PAU__JOINPLAYER@CGuildCombat@@V?$allocator@PAU__JOINPLAYER@CGuildCombat@@@std@@@std@@KAAAPAU_Node@?$_List_nod@PAU__JOINPLAYER@CGuildCombat@@V?$allocator@PAU__JOINPLAYER@CGuildCombat@@@std@@@2@PAU342@@Z
_TEXT	SEGMENT PARA USE32 PUBLIC 'CODE'
_TEXT	ENDS
;	COMDAT ?deallocate@?$allocator@U_Node@?$_List_nod@PAU__JOINPLAYER@CGuildCombat@@V?$allocator@PAU__JOINPLAYER@CGuildCombat@@@std@@@std@@@std@@QAEXPAU_Node@?$_List_nod@PAU__JOINPLAYER@CGuildCombat@@V?$allocator@PAU__JOINPLAYER@CGuildCombat@@@std@@@2@I@Z
_TEXT	SEGMENT PARA USE32 PUBLIC 'CODE'
_TEXT	ENDS
;	COMDAT ?destroy@?$allocator@U_Node@?$_List_nod@PAU__JOINPLAYER@CGuildCombat@@V?$allocator@PAU__JOINPLAYER@CGuildCombat@@@std@@@std@@@std@@QAEXPAU_Node@?$_List_nod@PAU__JOINPLAYER@CGuildCombat@@V?$allocator@PAU__JOINPLAYER@CGuildCombat@@@std@@@2@@Z
_TEXT	SEGMENT PARA USE32 PUBLIC 'CODE'
_TEXT	ENDS
;	COMDAT ?_Buy@?$vector@U__SECRETROOM_MONSTER@@V?$allocator@U__SECRETROOM_MONSTER@@@std@@@std@@IAE_NI@Z
_TEXT	SEGMENT PARA USE32 PUBLIC 'CODE'
_TEXT	ENDS
;	COMDAT ?_Tidy@?$vector@U__SECRETROOM_MONSTER@@V?$allocator@U__SECRETROOM_MONSTER@@@std@@@std@@IAEXXZ
_TEXT	SEGMENT PARA USE32 PUBLIC 'CODE'
_TEXT	ENDS
;	COMDAT ??0?$_Vector_val@U__SECRETROOM_MONSTER@@V?$allocator@U__SECRETROOM_MONSTER@@@std@@@std@@IAE@V?$allocator@U__SECRETROOM_MONSTER@@@1@@Z
_TEXT	SEGMENT PARA USE32 PUBLIC 'CODE'
_TEXT	ENDS
;	COMDAT ??0?$allocator@U__SECRETROOM_MONSTER@@@std@@QAE@XZ
_TEXT	SEGMENT PARA USE32 PUBLIC 'CODE'
_TEXT	ENDS
;	COMDAT ?capacity@?$vector@V?$basic_string@DU?$char_traits@D@std@@V?$allocator@D@2@@std@@V?$allocator@V?$basic_string@DU?$char_traits@D@std@@V?$allocator@D@2@@std@@@2@@std@@QBEIXZ
_TEXT	SEGMENT PARA USE32 PUBLIC 'CODE'
_TEXT	ENDS
;	COMDAT ?begin@?$vector@V?$basic_string@DU?$char_traits@D@std@@V?$allocator@D@2@@std@@V?$allocator@V?$basic_string@DU?$char_traits@D@std@@V?$allocator@D@2@@std@@@2@@std@@QAE?AViterator@12@XZ
_TEXT	SEGMENT PARA USE32 PUBLIC 'CODE'
_TEXT	ENDS
;	COMDAT ?end@?$vector@V?$basic_string@DU?$char_traits@D@std@@V?$allocator@D@2@@std@@V?$allocator@V?$basic_string@DU?$char_traits@D@std@@V?$allocator@D@2@@std@@@2@@std@@QAE?AViterator@12@XZ
_TEXT	SEGMENT PARA USE32 PUBLIC 'CODE'
_TEXT	ENDS
;	COMDAT ?insert@?$vector@V?$basic_string@DU?$char_traits@D@std@@V?$allocator@D@2@@std@@V?$allocator@V?$basic_string@DU?$char_traits@D@std@@V?$allocator@D@2@@std@@@2@@std@@QAE?AViterator@12@V312@ABV?$basic_string@DU?$char_traits@D@std@@V?$allocator@D@2@@2@@Z
_TEXT	SEGMENT PARA USE32 PUBLIC 'CODE'
_TEXT	ENDS
;	COMDAT ?_Buy@?$vector@V?$basic_string@DU?$char_traits@D@std@@V?$allocator@D@2@@std@@V?$allocator@V?$basic_string@DU?$char_traits@D@std@@V?$allocator@D@2@@std@@@2@@std@@IAE_NI@Z
_TEXT	SEGMENT PARA USE32 PUBLIC 'CODE'
_TEXT	ENDS
;	COMDAT ?_Tidy@?$vector@V?$basic_string@DU?$char_traits@D@std@@V?$allocator@D@2@@std@@V?$allocator@V?$basic_string@DU?$char_traits@D@std@@V?$allocator@D@2@@std@@@2@@std@@IAEXXZ
_TEXT	SEGMENT PARA USE32 PUBLIC 'CODE'
_TEXT	ENDS
;	COMDAT ?_Ufill@?$vector@V?$basic_string@DU?$char_traits@D@std@@V?$allocator@D@2@@std@@V?$allocator@V?$basic_string@DU?$char_traits@D@std@@V?$allocator@D@2@@std@@@2@@std@@IAEPAV?$basic_string@DU?$char_traits@D@std@@V?$allocator@D@2@@2@PAV32@IABV32@@Z
_TEXT	SEGMENT PARA USE32 PUBLIC 'CODE'
_TEXT	ENDS
;	COMDAT ??0?$_Vector_val@V?$basic_string@DU?$char_traits@D@std@@V?$allocator@D@2@@std@@V?$allocator@V?$basic_string@DU?$char_traits@D@std@@V?$allocator@D@2@@std@@@2@@std@@IAE@V?$allocator@V?$basic_string@DU?$char_traits@D@std@@V?$allocator@D@2@@std@@@1@@Z
_TEXT	SEGMENT PARA USE32 PUBLIC 'CODE'
_TEXT	ENDS
;	COMDAT ?capacity@?$vector@UMINIGMAME_PRIZE_LIST@CRainbowRaceMng@@V?$allocator@UMINIGMAME_PRIZE_LIST@CRainbowRaceMng@@@std@@@std@@QBEIXZ
_TEXT	SEGMENT PARA USE32 PUBLIC 'CODE'
_TEXT	ENDS
;	COMDAT ?end@?$vector@UMINIGMAME_PRIZE_LIST@CRainbowRaceMng@@V?$allocator@UMINIGMAME_PRIZE_LIST@CRainbowRaceMng@@@std@@@std@@QAE?AViterator@12@XZ
_TEXT	SEGMENT PARA USE32 PUBLIC 'CODE'
_TEXT	ENDS
;	COMDAT ?size@?$vector@UMINIGMAME_PRIZE_LIST@CRainbowRaceMng@@V?$allocator@UMINIGMAME_PRIZE_LIST@CRainbowRaceMng@@@std@@@std@@QBEIXZ
_TEXT	SEGMENT PARA USE32 PUBLIC 'CODE'
_TEXT	ENDS
;	COMDAT ?insert@?$vector@UMINIGMAME_PRIZE_LIST@CRainbowRaceMng@@V?$allocator@UMINIGMAME_PRIZE_LIST@CRainbowRaceMng@@@std@@@std@@QAE?AViterator@12@V312@ABUMINIGMAME_PRIZE_LIST@CRainbowRaceMng@@@Z
_TEXT	SEGMENT PARA USE32 PUBLIC 'CODE'
_TEXT	ENDS
;	COMDAT ?_Ufill@?$vector@UMINIGMAME_PRIZE_LIST@CRainbowRaceMng@@V?$allocator@UMINIGMAME_PRIZE_LIST@CRainbowRaceMng@@@std@@@std@@IAEPAUMINIGMAME_PRIZE_LIST@CRainbowRaceMng@@PAU34@IABU34@@Z
_TEXT	SEGMENT PARA USE32 PUBLIC 'CODE'
_TEXT	ENDS
;	COMDAT ?begin@?$vector@PAVCMiniGameBase@@V?$allocator@PAVCMiniGameBase@@@std@@@std@@QAE?AViterator@12@XZ
_TEXT	SEGMENT PARA USE32 PUBLIC 'CODE'
_TEXT	ENDS
;	COMDAT ?begin@?$vector@UGuildHouse_Furniture_Info@CGuildHouseBase@@V?$allocator@UGuildHouse_Furniture_Info@CGuildHouseBase@@@std@@@std@@QAE?AViterator@12@XZ
_TEXT	SEGMENT PARA USE32 PUBLIC 'CODE'
_TEXT	ENDS
;	COMDAT ?_Isnil@?$_Tree@V?$_Tmap_traits@KPAVCGuildHouseBase@@U?$less@K@std@@V?$allocator@U?$pair@$$CBKPAVCGuildHouseBase@@@std@@@3@$0A@@std@@@std@@KAAADPAU_Node@?$_Tree_nod@V?$_Tmap_traits@KPAVCGuildHouseBase@@U?$less@K@std@@V?$allocator@U?$pair@$$CBKPAVCGuildHouseBase@@@std@@@3@$0A@@std@@@2@@Z
_TEXT	SEGMENT PARA USE32 PUBLIC 'CODE'
_TEXT	ENDS
;	COMDAT ?_Key@?$_Tree@V?$_Tmap_traits@KPAVCGuildHouseBase@@U?$less@K@std@@V?$allocator@U?$pair@$$CBKPAVCGuildHouseBase@@@std@@@3@$0A@@std@@@std@@KAABKPAU_Node@?$_Tree_nod@V?$_Tmap_traits@KPAVCGuildHouseBase@@U?$less@K@std@@V?$allocator@U?$pair@$$CBKPAVCGuildHouseBase@@@std@@@3@$0A@@std@@@2@@Z
_TEXT	SEGMENT PARA USE32 PUBLIC 'CODE'
_TEXT	ENDS
;	COMDAT ?_Left@?$_Tree@V?$_Tmap_traits@KPAVCGuildHouseBase@@U?$less@K@std@@V?$allocator@U?$pair@$$CBKPAVCGuildHouseBase@@@std@@@3@$0A@@std@@@std@@KAAAPAU_Node@?$_Tree_nod@V?$_Tmap_traits@KPAVCGuildHouseBase@@U?$less@K@std@@V?$allocator@U?$pair@$$CBKPAVCGuildHouseBase@@@std@@@3@$0A@@std@@@2@PAU342@@Z
_TEXT	SEGMENT PARA USE32 PUBLIC 'CODE'
_TEXT	ENDS
;	COMDAT ?_Right@?$_Tree@V?$_Tmap_traits@KPAVCGuildHouseBase@@U?$less@K@std@@V?$allocator@U?$pair@$$CBKPAVCGuildHouseBase@@@std@@@3@$0A@@std@@@std@@KAAAPAU_Node@?$_Tree_nod@V?$_Tmap_traits@KPAVCGuildHouseBase@@U?$less@K@std@@V?$allocator@U?$pair@$$CBKPAVCGuildHouseBase@@@std@@@3@$0A@@std@@@2@PAU342@@Z
_TEXT	SEGMENT PARA USE32 PUBLIC 'CODE'
_TEXT	ENDS
;	COMDAT ?begin@?$_Tree@V?$_Tmap_traits@KPAVCGuildHouseBase@@U?$less@K@std@@V?$allocator@U?$pair@$$CBKPAVCGuildHouseBase@@@std@@@3@$0A@@std@@@std@@QAE?AViterator@12@XZ
_TEXT	SEGMENT PARA USE32 PUBLIC 'CODE'
_TEXT	ENDS
;	COMDAT ?size@?$_Tree@V?$_Tmap_traits@KPAVCGuildHouseBase@@U?$less@K@std@@V?$allocator@U?$pair@$$CBKPAVCGuildHouseBase@@@std@@@3@$0A@@std@@@std@@QBEIXZ
_TEXT	SEGMENT PARA USE32 PUBLIC 'CODE'
_TEXT	ENDS
;	COMDAT ?_Insert@?$_Tree@V?$_Tmap_traits@KPAVCGuildHouseBase@@U?$less@K@std@@V?$allocator@U?$pair@$$CBKPAVCGuildHouseBase@@@std@@@3@$0A@@std@@@std@@IAE?AViterator@12@_NPAU_Node@?$_Tree_nod@V?$_Tmap_traits@KPAVCGuildHouseBase@@U?$less@K@std@@V?$allocator@U?$pair@$$CBKPAVCGuildHouseBase@@@std@@@3@$0A@@std@@@2@ABU?$pair@$$CBKPAVCGuildHouseBase@@@2@@Z
_TEXT	SEGMENT PARA USE32 PUBLIC 'CODE'
_TEXT	ENDS
;	COMDAT ?_Root@?$_Tree@V?$_Tmap_traits@KPAVCGuildHouseBase@@U?$less@K@std@@V?$allocator@U?$pair@$$CBKPAVCGuildHouseBase@@@std@@@3@$0A@@std@@@std@@IAEAAPAU_Node@?$_Tree_nod@V?$_Tmap_traits@KPAVCGuildHouseBase@@U?$less@K@std@@V?$allocator@U?$pair@$$CBKPAVCGuildHouseBase@@@std@@@3@$0A@@std@@@2@XZ
_TEXT	SEGMENT PARA USE32 PUBLIC 'CODE'
_TEXT	ENDS
;	COMDAT ?_Kfn@?$_Tmap_traits@KPAVCGuildHouseBase@@U?$less@K@std@@V?$allocator@U?$pair@$$CBKPAVCGuildHouseBase@@@std@@@3@$0A@@std@@SAABKABU?$pair@$$CBKPAVCGuildHouseBase@@@2@@Z
_TEXT	SEGMENT PARA USE32 PUBLIC 'CODE'
_TEXT	ENDS
;	COMDAT ??0?$pair@Viterator@?$_Tree@V?$_Tmap_traits@KPAVCGuildHouseBase@@U?$less@K@std@@V?$allocator@U?$pair@$$CBKPAVCGuildHouseBase@@@std@@@3@$0A@@std@@@std@@_N@std@@QAE@ABViterator@?$_Tree@V?$_Tmap_traits@KPAVCGuildHouseBase@@U?$less@K@std@@V?$allocator@U?$pair@$$CBKPAVCGuildHouseBase@@@std@@@3@$0A@@std@@@1@AB_N@Z
_TEXT	SEGMENT PARA USE32 PUBLIC 'CODE'
_TEXT	ENDS
;	COMDAT ??0iterator@?$_Tree@V?$_Tmap_traits@KPAVCGuildHouseBase@@U?$less@K@std@@V?$allocator@U?$pair@$$CBKPAVCGuildHouseBase@@@std@@@3@$0A@@std@@@std@@QAE@PAU_Node@?$_Tree_nod@V?$_Tmap_traits@KPAVCGuildHouseBase@@U?$less@K@std@@V?$allocator@U?$pair@$$CBKPAVCGuildHouseBase@@@std@@@3@$0A@@std@@@2@@Z
_TEXT	SEGMENT PARA USE32 PUBLIC 'CODE'
_TEXT	ENDS
;	COMDAT ??Fiterator@?$_Tree@V?$_Tmap_traits@KPAVCGuildHouseBase@@U?$less@K@std@@V?$allocator@U?$pair@$$CBKPAVCGuildHouseBase@@@std@@@3@$0A@@std@@@std@@QAEAAV012@XZ
_TEXT	SEGMENT PARA USE32 PUBLIC 'CODE'
_TEXT	ENDS
;	COMDAT ??8const_iterator@?$_Tree@V?$_Tmap_traits@KPAVCGuildHouseBase@@U?$less@K@std@@V?$allocator@U?$pair@$$CBKPAVCGuildHouseBase@@@std@@@3@$0A@@std@@@std@@QBE_NABV012@@Z
_TEXT	SEGMENT PARA USE32 PUBLIC 'CODE'
_TEXT	ENDS
;	COMDAT ?_Mynode@const_iterator@?$_Tree@V?$_Tmap_traits@KPAVCGuildHouseBase@@U?$less@K@std@@V?$allocator@U?$pair@$$CBKPAVCGuildHouseBase@@@std@@@3@$0A@@std@@@std@@QBEPAU_Node@?$_Tree_nod@V?$_Tmap_traits@KPAVCGuildHouseBase@@U?$less@K@std@@V?$allocator@U?$pair@$$CBKPAVCGuildHouseBase@@@std@@@3@$0A@@std@@@3@XZ
_TEXT	SEGMENT PARA USE32 PUBLIC 'CODE'
_TEXT	ENDS
;	COMDAT ?size@?$_Tree@V?$_Tmap_traits@KPAVCCampus@@U?$less@K@std@@V?$allocator@U?$pair@$$CBKPAVCCampus@@@std@@@3@$0A@@std@@@std@@QBEIXZ
_TEXT	SEGMENT PARA USE32 PUBLIC 'CODE'
_TEXT	ENDS
;	COMDAT ?erase@?$_Tree@V?$_Tmap_traits@KKU?$less@K@std@@V?$allocator@U?$pair@$$CBKK@std@@@2@$0A@@std@@@std@@QAE?AViterator@12@V312@0@Z
_TEXT	SEGMENT PARA USE32 PUBLIC 'CODE'
_TEXT	ENDS
;	COMDAT ?equal_range@?$_Tree@V?$_Tmap_traits@KKU?$less@K@std@@V?$allocator@U?$pair@$$CBKK@std@@@2@$0A@@std@@@std@@QAE?AU?$pair@Viterator@?$_Tree@V?$_Tmap_traits@KKU?$less@K@std@@V?$allocator@U?$pair@$$CBKK@std@@@2@$0A@@std@@@std@@V123@@2@ABK@Z
_TEXT	SEGMENT PARA USE32 PUBLIC 'CODE'
_TEXT	ENDS
;	COMDAT ?_Key@?$_Tree@V?$_Tmap_traits@KPAVCClientSock@@U?$less@K@std@@V?$allocator@U?$pair@$$CBKPAVCClientSock@@@std@@@3@$0A@@std@@@std@@KAABKPAU_Node@?$_Tree_nod@V?$_Tmap_traits@KPAVCClientSock@@U?$less@K@std@@V?$allocator@U?$pair@$$CBKPAVCClientSock@@@std@@@3@$0A@@std@@@2@@Z
_TEXT	SEGMENT PARA USE32 PUBLIC 'CODE'
_TEXT	ENDS
;	COMDAT ??0?$_Tree@V?$_Tmap_traits@KPAVCClientSock@@U?$less@K@std@@V?$allocator@U?$pair@$$CBKPAVCClientSock@@@std@@@3@$0A@@std@@@std@@QAE@ABU?$less@K@1@ABV?$allocator@U?$pair@$$CBKPAVCClientSock@@@std@@@1@@Z
_TEXT	SEGMENT PARA USE32 PUBLIC 'CODE'
_TEXT	ENDS
;	COMDAT ?lower_bound@?$_Tree@V?$_Tmap_traits@KPAVCClientSock@@U?$less@K@std@@V?$allocator@U?$pair@$$CBKPAVCClientSock@@@std@@@3@$0A@@std@@@std@@QAE?AViterator@12@ABK@Z
_TEXT	SEGMENT PARA USE32 PUBLIC 'CODE'
_TEXT	ENDS
;	COMDAT ?_Tidy@?$_Tree@V?$_Tmap_traits@KPAVCClientSock@@U?$less@K@std@@V?$allocator@U?$pair@$$CBKPAVCClientSock@@@std@@@3@$0A@@std@@@std@@IAEXXZ
_TEXT	SEGMENT PARA USE32 PUBLIC 'CODE'
_TEXT	ENDS
;	COMDAT ??0?$allocator@U?$pair@$$CBKPAVCClientSock@@@std@@@std@@QAE@XZ
_TEXT	SEGMENT PARA USE32 PUBLIC 'CODE'
_TEXT	ENDS
;	COMDAT ??0iterator@?$_Tree@V?$_Tmap_traits@KPAVCClientSock@@U?$less@K@std@@V?$allocator@U?$pair@$$CBKPAVCClientSock@@@std@@@3@$0A@@std@@@std@@QAE@PAU_Node@?$_Tree_nod@V?$_Tmap_traits@KPAVCClientSock@@U?$less@K@std@@V?$allocator@U?$pair@$$CBKPAVCClientSock@@@std@@@3@$0A@@std@@@2@@Z
_TEXT	SEGMENT PARA USE32 PUBLIC 'CODE'
_TEXT	ENDS
;	COMDAT ??Diterator@?$_Tree@V?$_Tmap_traits@KPAVCClientSock@@U?$less@K@std@@V?$allocator@U?$pair@$$CBKPAVCClientSock@@@std@@@3@$0A@@std@@@std@@QBEAAU?$pair@$$CBKPAVCClientSock@@@2@XZ
_TEXT	SEGMENT PARA USE32 PUBLIC 'CODE'
_TEXT	ENDS
;	COMDAT ??8const_iterator@?$_Tree@V?$_Tmap_traits@KPAVCClientSock@@U?$less@K@std@@V?$allocator@U?$pair@$$CBKPAVCClientSock@@@std@@@3@$0A@@std@@@std@@QBE_NABV012@@Z
_TEXT	SEGMENT PARA USE32 PUBLIC 'CODE'
_TEXT	ENDS
;	COMDAT ?_Mynode@const_iterator@?$_Tree@V?$_Tmap_traits@KPAVCClientSock@@U?$less@K@std@@V?$allocator@U?$pair@$$CBKPAVCClientSock@@@std@@@3@$0A@@std@@@std@@QBEPAU_Node@?$_Tree_nod@V?$_Tmap_traits@KPAVCClientSock@@U?$less@K@std@@V?$allocator@U?$pair@$$CBKPAVCClientSock@@@std@@@3@$0A@@std@@@3@XZ
_TEXT	SEGMENT PARA USE32 PUBLIC 'CODE'
_TEXT	ENDS
;	COMDAT ?_Key@?$_Tree@V?$_Tmap_traits@KPAVCClientSockE@@U?$less@K@std@@V?$allocator@U?$pair@$$CBKPAVCClientSockE@@@std@@@3@$0A@@std@@@std@@KAABKPAU_Node@?$_Tree_nod@V?$_Tmap_traits@KPAVCClientSockE@@U?$less@K@std@@V?$allocator@U?$pair@$$CBKPAVCClientSockE@@@std@@@3@$0A@@std@@@2@@Z
_TEXT	SEGMENT PARA USE32 PUBLIC 'CODE'
_TEXT	ENDS
;	COMDAT ??0?$_Tree@V?$_Tmap_traits@KPAVCClientSockE@@U?$less@K@std@@V?$allocator@U?$pair@$$CBKPAVCClientSockE@@@std@@@3@$0A@@std@@@std@@QAE@ABU?$less@K@1@ABV?$allocator@U?$pair@$$CBKPAVCClientSockE@@@std@@@1@@Z
_TEXT	SEGMENT PARA USE32 PUBLIC 'CODE'
_TEXT	ENDS
;	COMDAT ?lower_bound@?$_Tree@V?$_Tmap_traits@KPAVCClientSockE@@U?$less@K@std@@V?$allocator@U?$pair@$$CBKPAVCClientSockE@@@std@@@3@$0A@@std@@@std@@QAE?AViterator@12@ABK@Z
_TEXT	SEGMENT PARA USE32 PUBLIC 'CODE'
_TEXT	ENDS
;	COMDAT ?_Tidy@?$_Tree@V?$_Tmap_traits@KPAVCClientSockE@@U?$less@K@std@@V?$allocator@U?$pair@$$CBKPAVCClientSockE@@@std@@@3@$0A@@std@@@std@@IAEXXZ
_TEXT	SEGMENT PARA USE32 PUBLIC 'CODE'
_TEXT	ENDS
;	COMDAT ??0?$allocator@U?$pair@$$CBKPAVCClientSockE@@@std@@@std@@QAE@XZ
_TEXT	SEGMENT PARA USE32 PUBLIC 'CODE'
_TEXT	ENDS
;	COMDAT ??0iterator@?$_Tree@V?$_Tmap_traits@KPAVCClientSockE@@U?$less@K@std@@V?$allocator@U?$pair@$$CBKPAVCClientSockE@@@std@@@3@$0A@@std@@@std@@QAE@PAU_Node@?$_Tree_nod@V?$_Tmap_traits@KPAVCClientSockE@@U?$less@K@std@@V?$allocator@U?$pair@$$CBKPAVCClientSockE@@@std@@@3@$0A@@std@@@2@@Z
_TEXT	SEGMENT PARA USE32 PUBLIC 'CODE'
_TEXT	ENDS
;	COMDAT ??Diterator@?$_Tree@V?$_Tmap_traits@KPAVCClientSockE@@U?$less@K@std@@V?$allocator@U?$pair@$$CBKPAVCClientSockE@@@std@@@3@$0A@@std@@@std@@QBEAAU?$pair@$$CBKPAVCClientSockE@@@2@XZ
_TEXT	SEGMENT PARA USE32 PUBLIC 'CODE'
_TEXT	ENDS
;	COMDAT ??8const_iterator@?$_Tree@V?$_Tmap_traits@KPAVCClientSockE@@U?$less@K@std@@V?$allocator@U?$pair@$$CBKPAVCClientSockE@@@std@@@3@$0A@@std@@@std@@QBE_NABV012@@Z
_TEXT	SEGMENT PARA USE32 PUBLIC 'CODE'
_TEXT	ENDS
;	COMDAT ?_Mynode@const_iterator@?$_Tree@V?$_Tmap_traits@KPAVCClientSockE@@U?$less@K@std@@V?$allocator@U?$pair@$$CBKPAVCClientSockE@@@std@@@3@$0A@@std@@@std@@QBEPAU_Node@?$_Tree_nod@V?$_Tmap_traits@KPAVCClientSockE@@U?$less@K@std@@V?$allocator@U?$pair@$$CBKPAVCClientSockE@@@std@@@3@$0A@@std@@@3@XZ
_TEXT	SEGMENT PARA USE32 PUBLIC 'CODE'
_TEXT	ENDS
;	COMDAT ?_Key@?$_Tree@V?$_Tmap_traits@KP8CDPDatabaseClient@@AEXAAVCAr@@KK@ZU?$less@K@std@@V?$allocator@U?$pair@$$CBKP8CDPDatabaseClient@@AEXAAVCAr@@KK@Z@std@@@4@$0A@@std@@@std@@KAABKPAU_Node@?$_Tree_nod@V?$_Tmap_traits@KP8CDPDatabaseClient@@AEXAAVCAr@@KK@ZU?$less@K@std@@V?$allocator@U?$pair@$$CBKP8CDPDatabaseClient@@AEXAAVCAr@@KK@Z@std@@@4@$0A@@std@@@2@@Z
_TEXT	SEGMENT PARA USE32 PUBLIC 'CODE'
_TEXT	ENDS
;	COMDAT ?lower_bound@?$_Tree@V?$_Tmap_traits@KP8CDPDatabaseClient@@AEXAAVCAr@@KK@ZU?$less@K@std@@V?$allocator@U?$pair@$$CBKP8CDPDatabaseClient@@AEXAAVCAr@@KK@Z@std@@@4@$0A@@std@@@std@@QAE?AViterator@12@ABK@Z
_TEXT	SEGMENT PARA USE32 PUBLIC 'CODE'
_TEXT	ENDS
;	COMDAT ??0iterator@?$_Tree@V?$_Tmap_traits@KP8CDPDatabaseClient@@AEXAAVCAr@@KK@ZU?$less@K@std@@V?$allocator@U?$pair@$$CBKP8CDPDatabaseClient@@AEXAAVCAr@@KK@Z@std@@@4@$0A@@std@@@std@@QAE@PAU_Node@?$_Tree_nod@V?$_Tmap_traits@KP8CDPDatabaseClient@@AEXAAVCAr@@KK@ZU?$less@K@std@@V?$allocator@U?$pair@$$CBKP8CDPDatabaseClient@@AEXAAVCAr@@KK@Z@std@@@4@$0A@@std@@@2@@Z
_TEXT	SEGMENT PARA USE32 PUBLIC 'CODE'
_TEXT	ENDS
;	COMDAT ??Diterator@?$_Tree@V?$_Tmap_traits@KP8CDPDatabaseClient@@AEXAAVCAr@@KK@ZU?$less@K@std@@V?$allocator@U?$pair@$$CBKP8CDPDatabaseClient@@AEXAAVCAr@@KK@Z@std@@@4@$0A@@std@@@std@@QBEAAU?$pair@$$CBKP8CDPDatabaseClient@@AEXAAVCAr@@KK@Z@2@XZ
_TEXT	SEGMENT PARA USE32 PUBLIC 'CODE'
_TEXT	ENDS
;	COMDAT ??8const_iterator@?$_Tree@V?$_Tmap_traits@KP8CDPDatabaseClient@@AEXAAVCAr@@KK@ZU?$less@K@std@@V?$allocator@U?$pair@$$CBKP8CDPDatabaseClient@@AEXAAVCAr@@KK@Z@std@@@4@$0A@@std@@@std@@QBE_NABV012@@Z
_TEXT	SEGMENT PARA USE32 PUBLIC 'CODE'
_TEXT	ENDS
;	COMDAT ?_Mynode@const_iterator@?$_Tree@V?$_Tmap_traits@KP8CDPDatabaseClient@@AEXAAVCAr@@KK@ZU?$less@K@std@@V?$allocator@U?$pair@$$CBKP8CDPDatabaseClient@@AEXAAVCAr@@KK@Z@std@@@4@$0A@@std@@@std@@QBEPAU_Node@?$_Tree_nod@V?$_Tmap_traits@KP8CDPDatabaseClient@@AEXAAVCAr@@KK@ZU?$less@K@std@@V?$allocator@U?$pair@$$CBKP8CDPDatabaseClient@@AEXAAVCAr@@KK@Z@std@@@4@$0A@@std@@@3@XZ
_TEXT	SEGMENT PARA USE32 PUBLIC 'CODE'
_TEXT	ENDS
;	COMDAT ??Diterator@?$vector@PAU__JOINPLAYER@CGuildCombat@@V?$allocator@PAU__JOINPLAYER@CGuildCombat@@@std@@@std@@QBEAAPAU__JOINPLAYER@CGuildCombat@@XZ
_TEXT	SEGMENT PARA USE32 PUBLIC 'CODE'
_TEXT	ENDS
;	COMDAT ??Hiterator@?$vector@PAU__JOINPLAYER@CGuildCombat@@V?$allocator@PAU__JOINPLAYER@CGuildCombat@@@std@@@std@@QBE?AV012@H@Z
_TEXT	SEGMENT PARA USE32 PUBLIC 'CODE'
_TEXT	ENDS
;	COMDAT ??Diterator@?$vector@V?$basic_string@DU?$char_traits@D@std@@V?$allocator@D@2@@std@@V?$allocator@V?$basic_string@DU?$char_traits@D@std@@V?$allocator@D@2@@std@@@2@@std@@QBEAAV?$basic_string@DU?$char_traits@D@std@@V?$allocator@D@2@@2@XZ
_TEXT	SEGMENT PARA USE32 PUBLIC 'CODE'
_TEXT	ENDS
;	COMDAT ??Hiterator@?$vector@V?$basic_string@DU?$char_traits@D@std@@V?$allocator@D@2@@std@@V?$allocator@V?$basic_string@DU?$char_traits@D@std@@V?$allocator@D@2@@std@@@2@@std@@QBE?AV012@H@Z
_TEXT	SEGMENT PARA USE32 PUBLIC 'CODE'
_TEXT	ENDS
;	COMDAT ??Diterator@?$vector@PAVCMiniGameBase@@V?$allocator@PAVCMiniGameBase@@@std@@@std@@QBEAAPAVCMiniGameBase@@XZ
_TEXT	SEGMENT PARA USE32 PUBLIC 'CODE'
_TEXT	ENDS
;	COMDAT ??Hiterator@?$vector@PAVCMiniGameBase@@V?$allocator@PAVCMiniGameBase@@@std@@@std@@QBE?AV012@H@Z
_TEXT	SEGMENT PARA USE32 PUBLIC 'CODE'
_TEXT	ENDS
;	COMDAT ??Diterator@?$vector@UGuildHouse_Furniture_Info@CGuildHouseBase@@V?$allocator@UGuildHouse_Furniture_Info@CGuildHouseBase@@@std@@@std@@QBEAAUGuildHouse_Furniture_Info@CGuildHouseBase@@XZ
_TEXT	SEGMENT PARA USE32 PUBLIC 'CODE'
_TEXT	ENDS
;	COMDAT ??Hiterator@?$vector@UGuildHouse_Furniture_Info@CGuildHouseBase@@V?$allocator@UGuildHouse_Furniture_Info@CGuildHouseBase@@@std@@@std@@QBE?AV012@H@Z
_TEXT	SEGMENT PARA USE32 PUBLIC 'CODE'
_TEXT	ENDS
;	COMDAT ??0?$allocator@V?$basic_string@DU?$char_traits@D@std@@V?$allocator@D@2@@std@@@std@@QAE@ABV01@@Z
_TEXT	SEGMENT PARA USE32 PUBLIC 'CODE'
_TEXT	ENDS
;	COMDAT ?deallocate@?$allocator@V?$basic_string@DU?$char_traits@D@std@@V?$allocator@D@2@@std@@@std@@QAEXPAV?$basic_string@DU?$char_traits@D@std@@V?$allocator@D@2@@2@I@Z
_TEXT	SEGMENT PARA USE32 PUBLIC 'CODE'
_TEXT	ENDS
;	COMDAT ?allocate@?$allocator@V?$basic_string@DU?$char_traits@D@std@@V?$allocator@D@2@@std@@@std@@QAEPAV?$basic_string@DU?$char_traits@D@std@@V?$allocator@D@2@@2@I@Z
_TEXT	SEGMENT PARA USE32 PUBLIC 'CODE'
_TEXT	ENDS
;	COMDAT ?size@?$_Tree@V?$_Tmap_traits@KPAVCCtrl@@U?$less@K@std@@V?$allocator@U?$pair@$$CBKPAVCCtrl@@@std@@@3@$0A@@std@@@std@@QBEIXZ
_TEXT	SEGMENT PARA USE32 PUBLIC 'CODE'
_TEXT	ENDS
;	COMDAT ??0iterator@?$_Tree@V?$_Tmap_traits@KPAVCCtrl@@U?$less@K@std@@V?$allocator@U?$pair@$$CBKPAVCCtrl@@@std@@@3@$0A@@std@@@std@@QAE@XZ
_TEXT	SEGMENT PARA USE32 PUBLIC 'CODE'
_TEXT	ENDS
;	COMDAT ?_Init@?$_Tree@V?$_Tmap_traits@KHU?$less@K@std@@V?$allocator@U?$pair@$$CBKH@std@@@2@$0A@@std@@@std@@IAEXXZ
_TEXT	SEGMENT PARA USE32 PUBLIC 'CODE'
_TEXT	ENDS
;	COMDAT ??0?$_Tree_val@V?$_Tmap_traits@KHU?$less@K@std@@V?$allocator@U?$pair@$$CBKH@std@@@2@$0A@@std@@@std@@IAE@ABU?$less@K@1@V?$allocator@U?$pair@$$CBKH@std@@@1@@Z
_TEXT	SEGMENT PARA USE32 PUBLIC 'CODE'
_TEXT	ENDS
;	COMDAT ??0?$allocator@U?$pair@$$CBKH@std@@@std@@QAE@ABV01@@Z
_TEXT	SEGMENT PARA USE32 PUBLIC 'CODE'
_TEXT	ENDS
;	COMDAT ?pop_back@?$deque@PAUtagACTMSG@@V?$allocator@PAUtagACTMSG@@@std@@@std@@QAEXXZ
_TEXT	SEGMENT PARA USE32 PUBLIC 'CODE'
_TEXT	ENDS
;	COMDAT ??0?$_Deque_map@PAUtagACTMSG@@V?$allocator@PAUtagACTMSG@@@std@@@std@@IAE@V?$allocator@PAUtagACTMSG@@@1@@Z
_TEXT	SEGMENT PARA USE32 PUBLIC 'CODE'
_TEXT	ENDS
;	COMDAT ??0?$allocator@PAUtagACTMSG@@@std@@QAE@ABV01@@Z
_TEXT	SEGMENT PARA USE32 PUBLIC 'CODE'
_TEXT	ENDS
;	COMDAT ?deallocate@?$allocator@PAUtagACTMSG@@@std@@QAEXPAPAUtagACTMSG@@I@Z
_TEXT	SEGMENT PARA USE32 PUBLIC 'CODE'
_TEXT	ENDS
;	COMDAT ?deallocate@?$allocator@PAPAUtagACTMSG@@@std@@QAEXPAPAPAUtagACTMSG@@I@Z
_TEXT	SEGMENT PARA USE32 PUBLIC 'CODE'
_TEXT	ENDS
;	COMDAT ?destroy@?$allocator@PAPAUtagACTMSG@@@std@@QAEXPAPAPAUtagACTMSG@@@Z
_TEXT	SEGMENT PARA USE32 PUBLIC 'CODE'
_TEXT	ENDS
;	COMDAT ?pop_back@?$deque@PAUtagMAGICATKMSG@@V?$allocator@PAUtagMAGICATKMSG@@@std@@@std@@QAEXXZ
_TEXT	SEGMENT PARA USE32 PUBLIC 'CODE'
_TEXT	ENDS
;	COMDAT ??0?$_Deque_map@PAUtagMAGICATKMSG@@V?$allocator@PAUtagMAGICATKMSG@@@std@@@std@@IAE@V?$allocator@PAUtagMAGICATKMSG@@@1@@Z
_TEXT	SEGMENT PARA USE32 PUBLIC 'CODE'
_TEXT	ENDS
;	COMDAT ??0?$allocator@PAUtagMAGICATKMSG@@@std@@QAE@ABV01@@Z
_TEXT	SEGMENT PARA USE32 PUBLIC 'CODE'
_TEXT	ENDS
;	COMDAT ?deallocate@?$allocator@PAUtagMAGICATKMSG@@@std@@QAEXPAPAUtagMAGICATKMSG@@I@Z
_TEXT	SEGMENT PARA USE32 PUBLIC 'CODE'
_TEXT	ENDS
;	COMDAT ?deallocate@?$allocator@PAPAUtagMAGICATKMSG@@@std@@QAEXPAPAPAUtagMAGICATKMSG@@I@Z
_TEXT	SEGMENT PARA USE32 PUBLIC 'CODE'
_TEXT	ENDS
;	COMDAT ?destroy@?$allocator@PAPAUtagMAGICATKMSG@@@std@@QAEXPAPAPAUtagMAGICATKMSG@@@Z
_TEXT	SEGMENT PARA USE32 PUBLIC 'CODE'
_TEXT	ENDS
;	COMDAT ??Dconst_iterator@?$_Tree@V?$_Tmap_traits@KHU?$less@K@std@@V?$allocator@U?$pair@$$CBKH@std@@@2@$0A@@std@@@std@@QBEABU?$pair@$$CBKH@2@XZ
_TEXT	SEGMENT PARA USE32 PUBLIC 'CODE'
_TEXT	ENDS
;	COMDAT ??0const_iterator@?$deque@PAUtagACTMSG@@V?$allocator@PAUtagACTMSG@@@std@@@std@@QAE@IPBV12@@Z
_TEXT	SEGMENT PARA USE32 PUBLIC 'CODE'
_TEXT	ENDS
;	COMDAT ??0const_iterator@?$deque@PAUtagMAGICATKMSG@@V?$allocator@PAUtagMAGICATKMSG@@@std@@@std@@QAE@IPBV12@@Z
_TEXT	SEGMENT PARA USE32 PUBLIC 'CODE'
_TEXT	ENDS
;	COMDAT ?begin@?$_Tree@V?$_Tmap_traits@KU_Friend@@U?$less@K@std@@V?$allocator@U?$pair@$$CBKU_Friend@@@std@@@3@$0A@@std@@@std@@QAE?AViterator@12@XZ
_TEXT	SEGMENT PARA USE32 PUBLIC 'CODE'
_TEXT	ENDS
;	COMDAT ?end@?$_Tree@V?$_Tmap_traits@KU_Friend@@U?$less@K@std@@V?$allocator@U?$pair@$$CBKU_Friend@@@std@@@3@$0A@@std@@@std@@QAE?AViterator@12@XZ
_TEXT	SEGMENT PARA USE32 PUBLIC 'CODE'
_TEXT	ENDS
;	COMDAT ?erase@?$_Tree@V?$_Tmap_traits@KU_Friend@@U?$less@K@std@@V?$allocator@U?$pair@$$CBKU_Friend@@@std@@@3@$0A@@std@@@std@@QAE?AViterator@12@V312@@Z
_TEXT	SEGMENT PARA USE32 PUBLIC 'CODE'
_TEXT	ENDS
;	COMDAT ?clear@?$_Tree@V?$_Tmap_traits@KU_Friend@@U?$less@K@std@@V?$allocator@U?$pair@$$CBKU_Friend@@@std@@@3@$0A@@std@@@std@@QAEXXZ
_TEXT	SEGMENT PARA USE32 PUBLIC 'CODE'
_TEXT	ENDS
;	COMDAT ?lower_bound@?$_Tree@V?$_Tmap_traits@KU_Friend@@U?$less@K@std@@V?$allocator@U?$pair@$$CBKU_Friend@@@std@@@3@$0A@@std@@@std@@QAE?AViterator@12@ABK@Z
_TEXT	SEGMENT PARA USE32 PUBLIC 'CODE'
_TEXT	ENDS
;	COMDAT ?upper_bound@?$_Tree@V?$_Tmap_traits@KU_Friend@@U?$less@K@std@@V?$allocator@U?$pair@$$CBKU_Friend@@@std@@@3@$0A@@std@@@std@@QAE?AViterator@12@ABK@Z
_TEXT	SEGMENT PARA USE32 PUBLIC 'CODE'
_TEXT	ENDS
;	COMDAT ??Eiterator@?$_Tree@V?$_Tmap_traits@KU_Friend@@U?$less@K@std@@V?$allocator@U?$pair@$$CBKU_Friend@@@std@@@3@$0A@@std@@@std@@QAE?AV012@H@Z
_TEXT	SEGMENT PARA USE32 PUBLIC 'CODE'
_TEXT	ENDS
;	COMDAT ??8const_iterator@?$_Tree@V?$_Tmap_traits@KU_Friend@@U?$less@K@std@@V?$allocator@U?$pair@$$CBKU_Friend@@@std@@@3@$0A@@std@@@std@@QBE_NABV012@@Z
_TEXT	SEGMENT PARA USE32 PUBLIC 'CODE'
_TEXT	ENDS
;	COMDAT ??9const_iterator@?$_Tree@V?$_Tmap_traits@KU_Friend@@U?$less@K@std@@V?$allocator@U?$pair@$$CBKU_Friend@@@std@@@3@$0A@@std@@@std@@QBE_NABV012@@Z
_TEXT	SEGMENT PARA USE32 PUBLIC 'CODE'
_TEXT	ENDS
;	COMDAT ?_Destroy@?$vector@PAU__JOINPLAYER@CGuildCombat@@V?$allocator@PAU__JOINPLAYER@CGuildCombat@@@std@@@std@@IAEXPAPAU__JOINPLAYER@CGuildCombat@@0@Z
_TEXT	SEGMENT PARA USE32 PUBLIC 'CODE'
_TEXT	ENDS
;	COMDAT ?deallocate@?$allocator@PAU__JOINPLAYER@CGuildCombat@@@std@@QAEXPAPAU__JOINPLAYER@CGuildCombat@@I@Z
_TEXT	SEGMENT PARA USE32 PUBLIC 'CODE'
_TEXT	ENDS
;	COMDAT ?max_size@?$vector@U__SECRETROOM_MONSTER@@V?$allocator@U__SECRETROOM_MONSTER@@@std@@@std@@QBEIXZ
_TEXT	SEGMENT PARA USE32 PUBLIC 'CODE'
_TEXT	ENDS
;	COMDAT ?_Destroy@?$vector@U__SECRETROOM_MONSTER@@V?$allocator@U__SECRETROOM_MONSTER@@@std@@@std@@IAEXPAU__SECRETROOM_MONSTER@@0@Z
_TEXT	SEGMENT PARA USE32 PUBLIC 'CODE'
_TEXT	ENDS
;	COMDAT ?_Xlen@?$vector@U__SECRETROOM_MONSTER@@V?$allocator@U__SECRETROOM_MONSTER@@@std@@@std@@IBEXXZ
_TEXT	SEGMENT PARA USE32 PUBLIC 'CODE'
_TEXT	ENDS
;	COMDAT ??0?$allocator@U__SECRETROOM_MONSTER@@@std@@QAE@ABV01@@Z
_TEXT	SEGMENT PARA USE32 PUBLIC 'CODE'
_TEXT	ENDS
;	COMDAT ?deallocate@?$allocator@U__SECRETROOM_MONSTER@@@std@@QAEXPAU__SECRETROOM_MONSTER@@I@Z
_TEXT	SEGMENT PARA USE32 PUBLIC 'CODE'
_TEXT	ENDS
;	COMDAT ?allocate@?$allocator@U__SECRETROOM_MONSTER@@@std@@QAEPAU__SECRETROOM_MONSTER@@I@Z
_TEXT	SEGMENT PARA USE32 PUBLIC 'CODE'
_TEXT	ENDS
;	COMDAT ?max_size@?$vector@V?$basic_string@DU?$char_traits@D@std@@V?$allocator@D@2@@std@@V?$allocator@V?$basic_string@DU?$char_traits@D@std@@V?$allocator@D@2@@std@@@2@@std@@QBEIXZ
_TEXT	SEGMENT PARA USE32 PUBLIC 'CODE'
_TEXT	ENDS
;	COMDAT ?_Destroy@?$vector@V?$basic_string@DU?$char_traits@D@std@@V?$allocator@D@2@@std@@V?$allocator@V?$basic_string@DU?$char_traits@D@std@@V?$allocator@D@2@@std@@@2@@std@@IAEXPAV?$basic_string@DU?$char_traits@D@std@@V?$allocator@D@2@@2@0@Z
_TEXT	SEGMENT PARA USE32 PUBLIC 'CODE'
_TEXT	ENDS
;	COMDAT ?_Insert_n@?$vector@V?$basic_string@DU?$char_traits@D@std@@V?$allocator@D@2@@std@@V?$allocator@V?$basic_string@DU?$char_traits@D@std@@V?$allocator@D@2@@std@@@2@@std@@IAEXViterator@12@IABV?$basic_string@DU?$char_traits@D@std@@V?$allocator@D@2@@2@@Z
_TEXT	SEGMENT PARA USE32 PUBLIC 'CODE'
_TEXT	ENDS
;	COMDAT ?_Xlen@?$vector@V?$basic_string@DU?$char_traits@D@std@@V?$allocator@D@2@@std@@V?$allocator@V?$basic_string@DU?$char_traits@D@std@@V?$allocator@D@2@@std@@@2@@std@@IBEXXZ
_TEXT	SEGMENT PARA USE32 PUBLIC 'CODE'
_TEXT	ENDS
;	COMDAT ?begin@?$vector@UMINIGMAME_PRIZE_LIST@CRainbowRaceMng@@V?$allocator@UMINIGMAME_PRIZE_LIST@CRainbowRaceMng@@@std@@@std@@QAE?AViterator@12@XZ
_TEXT	SEGMENT PARA USE32 PUBLIC 'CODE'
_TEXT	ENDS
;	COMDAT ?_Insert_n@?$vector@UMINIGMAME_PRIZE_LIST@CRainbowRaceMng@@V?$allocator@UMINIGMAME_PRIZE_LIST@CRainbowRaceMng@@@std@@@std@@IAEXViterator@12@IABUMINIGMAME_PRIZE_LIST@CRainbowRaceMng@@@Z
_TEXT	SEGMENT PARA USE32 PUBLIC 'CODE'
_TEXT	ENDS
;	COMDAT ?_Color@?$_Tree@V?$_Tmap_traits@KPAVCGuildHouseBase@@U?$less@K@std@@V?$allocator@U?$pair@$$CBKPAVCGuildHouseBase@@@std@@@3@$0A@@std@@@std@@KAAADPAU_Node@?$_Tree_nod@V?$_Tmap_traits@KPAVCGuildHouseBase@@U?$less@K@std@@V?$allocator@U?$pair@$$CBKPAVCGuildHouseBase@@@std@@@3@$0A@@std@@@2@@Z
_TEXT	SEGMENT PARA USE32 PUBLIC 'CODE'
_TEXT	ENDS
;	COMDAT ?_Parent@?$_Tree@V?$_Tmap_traits@KPAVCGuildHouseBase@@U?$less@K@std@@V?$allocator@U?$pair@$$CBKPAVCGuildHouseBase@@@std@@@3@$0A@@std@@@std@@KAAAPAU_Node@?$_Tree_nod@V?$_Tmap_traits@KPAVCGuildHouseBase@@U?$less@K@std@@V?$allocator@U?$pair@$$CBKPAVCGuildHouseBase@@@std@@@3@$0A@@std@@@2@PAU342@@Z
_TEXT	SEGMENT PARA USE32 PUBLIC 'CODE'
_TEXT	ENDS
;	COMDAT ?_Myval@?$_Tree@V?$_Tmap_traits@KPAVCGuildHouseBase@@U?$less@K@std@@V?$allocator@U?$pair@$$CBKPAVCGuildHouseBase@@@std@@@3@$0A@@std@@@std@@KAAAU?$pair@$$CBKPAVCGuildHouseBase@@@2@PAU_Node@?$_Tree_nod@V?$_Tmap_traits@KPAVCGuildHouseBase@@U?$less@K@std@@V?$allocator@U?$pair@$$CBKPAVCGuildHouseBase@@@std@@@3@$0A@@std@@@2@@Z
_TEXT	SEGMENT PARA USE32 PUBLIC 'CODE'
_TEXT	ENDS
;	COMDAT ?max_size@?$_Tree@V?$_Tmap_traits@KPAVCGuildHouseBase@@U?$less@K@std@@V?$allocator@U?$pair@$$CBKPAVCGuildHouseBase@@@std@@@3@$0A@@std@@@std@@QBEIXZ
_TEXT	SEGMENT PARA USE32 PUBLIC 'CODE'
_TEXT	ENDS
;	COMDAT ?_Lmost@?$_Tree@V?$_Tmap_traits@KPAVCGuildHouseBase@@U?$less@K@std@@V?$allocator@U?$pair@$$CBKPAVCGuildHouseBase@@@std@@@3@$0A@@std@@@std@@IAEAAPAU_Node@?$_Tree_nod@V?$_Tmap_traits@KPAVCGuildHouseBase@@U?$less@K@std@@V?$allocator@U?$pair@$$CBKPAVCGuildHouseBase@@@std@@@3@$0A@@std@@@2@XZ
_TEXT	SEGMENT PARA USE32 PUBLIC 'CODE'
_TEXT	ENDS
;	COMDAT ?_Lrotate@?$_Tree@V?$_Tmap_traits@KPAVCGuildHouseBase@@U?$less@K@std@@V?$allocator@U?$pair@$$CBKPAVCGuildHouseBase@@@std@@@3@$0A@@std@@@std@@IAEXPAU_Node@?$_Tree_nod@V?$_Tmap_traits@KPAVCGuildHouseBase@@U?$less@K@std@@V?$allocator@U?$pair@$$CBKPAVCGuildHouseBase@@@std@@@3@$0A@@std@@@2@@Z
_TEXT	SEGMENT PARA USE32 PUBLIC 'CODE'
_TEXT	ENDS
;	COMDAT ?_Rmost@?$_Tree@V?$_Tmap_traits@KPAVCGuildHouseBase@@U?$less@K@std@@V?$allocator@U?$pair@$$CBKPAVCGuildHouseBase@@@std@@@3@$0A@@std@@@std@@IAEAAPAU_Node@?$_Tree_nod@V?$_Tmap_traits@KPAVCGuildHouseBase@@U?$less@K@std@@V?$allocator@U?$pair@$$CBKPAVCGuildHouseBase@@@std@@@3@$0A@@std@@@2@XZ
_TEXT	SEGMENT PARA USE32 PUBLIC 'CODE'
_TEXT	ENDS
;	COMDAT ?_Rrotate@?$_Tree@V?$_Tmap_traits@KPAVCGuildHouseBase@@U?$less@K@std@@V?$allocator@U?$pair@$$CBKPAVCGuildHouseBase@@@std@@@3@$0A@@std@@@std@@IAEXPAU_Node@?$_Tree_nod@V?$_Tmap_traits@KPAVCGuildHouseBase@@U?$less@K@std@@V?$allocator@U?$pair@$$CBKPAVCGuildHouseBase@@@std@@@3@$0A@@std@@@2@@Z
_TEXT	SEGMENT PARA USE32 PUBLIC 'CODE'
_TEXT	ENDS
;	COMDAT ?_Buynode@?$_Tree@V?$_Tmap_traits@KPAVCGuildHouseBase@@U?$less@K@std@@V?$allocator@U?$pair@$$CBKPAVCGuildHouseBase@@@std@@@3@$0A@@std@@@std@@IAEPAU_Node@?$_Tree_nod@V?$_Tmap_traits@KPAVCGuildHouseBase@@U?$less@K@std@@V?$allocator@U?$pair@$$CBKPAVCGuildHouseBase@@@std@@@3@$0A@@std@@@2@PAU342@00ABU?$pair@$$CBKPAVCGuildHouseBase@@@2@D@Z
_TEXT	SEGMENT PARA USE32 PUBLIC 'CODE'
_TEXT	ENDS
;	COMDAT ??0const_iterator@?$_Tree@V?$_Tmap_traits@KPAVCGuildHouseBase@@U?$less@K@std@@V?$allocator@U?$pair@$$CBKPAVCGuildHouseBase@@@std@@@3@$0A@@std@@@std@@QAE@PAU_Node@?$_Tree_nod@V?$_Tmap_traits@KPAVCGuildHouseBase@@U?$less@K@std@@V?$allocator@U?$pair@$$CBKPAVCGuildHouseBase@@@std@@@3@$0A@@std@@@2@@Z
_TEXT	SEGMENT PARA USE32 PUBLIC 'CODE'
_TEXT	ENDS
;	COMDAT ??Fconst_iterator@?$_Tree@V?$_Tmap_traits@KPAVCGuildHouseBase@@U?$less@K@std@@V?$allocator@U?$pair@$$CBKPAVCGuildHouseBase@@@std@@@3@$0A@@std@@@std@@QAEAAV012@XZ
_TEXT	SEGMENT PARA USE32 PUBLIC 'CODE'
_TEXT	ENDS
;	COMDAT ?begin@?$_Tree@V?$_Tmap_traits@KKU?$less@K@std@@V?$allocator@U?$pair@$$CBKK@std@@@2@$0A@@std@@@std@@QAE?AViterator@12@XZ
_TEXT	SEGMENT PARA USE32 PUBLIC 'CODE'
_TEXT	ENDS
;	COMDAT ?end@?$_Tree@V?$_Tmap_traits@KKU?$less@K@std@@V?$allocator@U?$pair@$$CBKK@std@@@2@$0A@@std@@@std@@QAE?AViterator@12@XZ
_TEXT	SEGMENT PARA USE32 PUBLIC 'CODE'
_TEXT	ENDS
;	COMDAT ?erase@?$_Tree@V?$_Tmap_traits@KKU?$less@K@std@@V?$allocator@U?$pair@$$CBKK@std@@@2@$0A@@std@@@std@@QAE?AViterator@12@V312@@Z
_TEXT	SEGMENT PARA USE32 PUBLIC 'CODE'
_TEXT	ENDS
;	COMDAT ?clear@?$_Tree@V?$_Tmap_traits@KKU?$less@K@std@@V?$allocator@U?$pair@$$CBKK@std@@@2@$0A@@std@@@std@@QAEXXZ
_TEXT	SEGMENT PARA USE32 PUBLIC 'CODE'
_TEXT	ENDS
;	COMDAT ?lower_bound@?$_Tree@V?$_Tmap_traits@KKU?$less@K@std@@V?$allocator@U?$pair@$$CBKK@std@@@2@$0A@@std@@@std@@QAE?AViterator@12@ABK@Z
_TEXT	SEGMENT PARA USE32 PUBLIC 'CODE'
_TEXT	ENDS
;	COMDAT ?upper_bound@?$_Tree@V?$_Tmap_traits@KKU?$less@K@std@@V?$allocator@U?$pair@$$CBKK@std@@@2@$0A@@std@@@std@@QAE?AViterator@12@ABK@Z
_TEXT	SEGMENT PARA USE32 PUBLIC 'CODE'
_TEXT	ENDS
;	COMDAT ??Eiterator@?$_Tree@V?$_Tmap_traits@KKU?$less@K@std@@V?$allocator@U?$pair@$$CBKK@std@@@2@$0A@@std@@@std@@QAE?AV012@H@Z
_TEXT	SEGMENT PARA USE32 PUBLIC 'CODE'
_TEXT	ENDS
;	COMDAT ??8const_iterator@?$_Tree@V?$_Tmap_traits@KKU?$less@K@std@@V?$allocator@U?$pair@$$CBKK@std@@@2@$0A@@std@@@std@@QBE_NABV012@@Z
_TEXT	SEGMENT PARA USE32 PUBLIC 'CODE'
_TEXT	ENDS
;	COMDAT ??9const_iterator@?$_Tree@V?$_Tmap_traits@KKU?$less@K@std@@V?$allocator@U?$pair@$$CBKK@std@@@2@$0A@@std@@@std@@QBE_NABV012@@Z
_TEXT	SEGMENT PARA USE32 PUBLIC 'CODE'
_TEXT	ENDS
;	COMDAT ?_Left@?$_Tree@V?$_Tmap_traits@KPAVCClientSock@@U?$less@K@std@@V?$allocator@U?$pair@$$CBKPAVCClientSock@@@std@@@3@$0A@@std@@@std@@KAAAPAU_Node@?$_Tree_nod@V?$_Tmap_traits@KPAVCClientSock@@U?$less@K@std@@V?$allocator@U?$pair@$$CBKPAVCClientSock@@@std@@@3@$0A@@std@@@2@PAU342@@Z
_TEXT	SEGMENT PARA USE32 PUBLIC 'CODE'
_TEXT	ENDS
;	COMDAT ?_Parent@?$_Tree@V?$_Tmap_traits@KPAVCClientSock@@U?$less@K@std@@V?$allocator@U?$pair@$$CBKPAVCClientSock@@@std@@@3@$0A@@std@@@std@@KAAAPAU_Node@?$_Tree_nod@V?$_Tmap_traits@KPAVCClientSock@@U?$less@K@std@@V?$allocator@U?$pair@$$CBKPAVCClientSock@@@std@@@3@$0A@@std@@@2@PAU342@@Z
_TEXT	SEGMENT PARA USE32 PUBLIC 'CODE'
_TEXT	ENDS
;	COMDAT ?_Right@?$_Tree@V?$_Tmap_traits@KPAVCClientSock@@U?$less@K@std@@V?$allocator@U?$pair@$$CBKPAVCClientSock@@@std@@@3@$0A@@std@@@std@@KAAAPAU_Node@?$_Tree_nod@V?$_Tmap_traits@KPAVCClientSock@@U?$less@K@std@@V?$allocator@U?$pair@$$CBKPAVCClientSock@@@std@@@3@$0A@@std@@@2@PAU342@@Z
_TEXT	SEGMENT PARA USE32 PUBLIC 'CODE'
_TEXT	ENDS
;	COMDAT ?_Myval@?$_Tree@V?$_Tmap_traits@KPAVCClientSock@@U?$less@K@std@@V?$allocator@U?$pair@$$CBKPAVCClientSock@@@std@@@3@$0A@@std@@@std@@KAAAU?$pair@$$CBKPAVCClientSock@@@2@PAU_Node@?$_Tree_nod@V?$_Tmap_traits@KPAVCClientSock@@U?$less@K@std@@V?$allocator@U?$pair@$$CBKPAVCClientSock@@@std@@@3@$0A@@std@@@2@@Z
_TEXT	SEGMENT PARA USE32 PUBLIC 'CODE'
_TEXT	ENDS
;	COMDAT ?begin@?$_Tree@V?$_Tmap_traits@KPAVCClientSock@@U?$less@K@std@@V?$allocator@U?$pair@$$CBKPAVCClientSock@@@std@@@3@$0A@@std@@@std@@QAE?AViterator@12@XZ
_TEXT	SEGMENT PARA USE32 PUBLIC 'CODE'
_TEXT	ENDS
;	COMDAT ?erase@?$_Tree@V?$_Tmap_traits@KPAVCClientSock@@U?$less@K@std@@V?$allocator@U?$pair@$$CBKPAVCClientSock@@@std@@@3@$0A@@std@@@std@@QAE?AViterator@12@V312@0@Z
_TEXT	SEGMENT PARA USE32 PUBLIC 'CODE'
_TEXT	ENDS
;	COMDAT ?_Init@?$_Tree@V?$_Tmap_traits@KPAVCClientSock@@U?$less@K@std@@V?$allocator@U?$pair@$$CBKPAVCClientSock@@@std@@@3@$0A@@std@@@std@@IAEXXZ
_TEXT	SEGMENT PARA USE32 PUBLIC 'CODE'
_TEXT	ENDS
;	COMDAT ?_Lbound@?$_Tree@V?$_Tmap_traits@KPAVCClientSock@@U?$less@K@std@@V?$allocator@U?$pair@$$CBKPAVCClientSock@@@std@@@3@$0A@@std@@@std@@IBEPAU_Node@?$_Tree_nod@V?$_Tmap_traits@KPAVCClientSock@@U?$less@K@std@@V?$allocator@U?$pair@$$CBKPAVCClientSock@@@std@@@3@$0A@@std@@@2@ABK@Z
_TEXT	SEGMENT PARA USE32 PUBLIC 'CODE'
_TEXT	ENDS
;	COMDAT ??0?$_Tree_val@V?$_Tmap_traits@KPAVCClientSock@@U?$less@K@std@@V?$allocator@U?$pair@$$CBKPAVCClientSock@@@std@@@3@$0A@@std@@@std@@IAE@ABU?$less@K@1@V?$allocator@U?$pair@$$CBKPAVCClientSock@@@std@@@1@@Z
_TEXT	SEGMENT PARA USE32 PUBLIC 'CODE'
_TEXT	ENDS
;	COMDAT ?_Kfn@?$_Tmap_traits@KPAVCClientSock@@U?$less@K@std@@V?$allocator@U?$pair@$$CBKPAVCClientSock@@@std@@@3@$0A@@std@@SAABKABU?$pair@$$CBKPAVCClientSock@@@2@@Z
_TEXT	SEGMENT PARA USE32 PUBLIC 'CODE'
_TEXT	ENDS
;	COMDAT ??0?$allocator@U?$pair@$$CBKPAVCClientSock@@@std@@@std@@QAE@ABV01@@Z
_TEXT	SEGMENT PARA USE32 PUBLIC 'CODE'
_TEXT	ENDS
;	COMDAT ?deallocate@?$allocator@U_Node@?$_Tree_nod@V?$_Tmap_traits@KPAVCClientSock@@U?$less@K@std@@V?$allocator@U?$pair@$$CBKPAVCClientSock@@@std@@@3@$0A@@std@@@std@@@std@@QAEXPAU_Node@?$_Tree_nod@V?$_Tmap_traits@KPAVCClientSock@@U?$less@K@std@@V?$allocator@U?$pair@$$CBKPAVCClientSock@@@std@@@3@$0A@@std@@@2@I@Z
_TEXT	SEGMENT PARA USE32 PUBLIC 'CODE'
_TEXT	ENDS
;	COMDAT ?destroy@?$allocator@PAU_Node@?$_Tree_nod@V?$_Tmap_traits@KPAVCClientSock@@U?$less@K@std@@V?$allocator@U?$pair@$$CBKPAVCClientSock@@@std@@@3@$0A@@std@@@std@@@std@@QAEXPAPAU_Node@?$_Tree_nod@V?$_Tmap_traits@KPAVCClientSock@@U?$less@K@std@@V?$allocator@U?$pair@$$CBKPAVCClientSock@@@std@@@3@$0A@@std@@@2@@Z
_TEXT	SEGMENT PARA USE32 PUBLIC 'CODE'
_TEXT	ENDS
;	COMDAT ??0const_iterator@?$_Tree@V?$_Tmap_traits@KPAVCClientSock@@U?$less@K@std@@V?$allocator@U?$pair@$$CBKPAVCClientSock@@@std@@@3@$0A@@std@@@std@@QAE@PAU_Node@?$_Tree_nod@V?$_Tmap_traits@KPAVCClientSock@@U?$less@K@std@@V?$allocator@U?$pair@$$CBKPAVCClientSock@@@std@@@3@$0A@@std@@@2@@Z
_TEXT	SEGMENT PARA USE32 PUBLIC 'CODE'
_TEXT	ENDS
;	COMDAT ??Dconst_iterator@?$_Tree@V?$_Tmap_traits@KPAVCClientSock@@U?$less@K@std@@V?$allocator@U?$pair@$$CBKPAVCClientSock@@@std@@@3@$0A@@std@@@std@@QBEABU?$pair@$$CBKPAVCClientSock@@@2@XZ
_TEXT	SEGMENT PARA USE32 PUBLIC 'CODE'
_TEXT	ENDS
;	COMDAT ?_Left@?$_Tree@V?$_Tmap_traits@KPAVCClientSockE@@U?$less@K@std@@V?$allocator@U?$pair@$$CBKPAVCClientSockE@@@std@@@3@$0A@@std@@@std@@KAAAPAU_Node@?$_Tree_nod@V?$_Tmap_traits@KPAVCClientSockE@@U?$less@K@std@@V?$allocator@U?$pair@$$CBKPAVCClientSockE@@@std@@@3@$0A@@std@@@2@PAU342@@Z
_TEXT	SEGMENT PARA USE32 PUBLIC 'CODE'
_TEXT	ENDS
;	COMDAT ?_Parent@?$_Tree@V?$_Tmap_traits@KPAVCClientSockE@@U?$less@K@std@@V?$allocator@U?$pair@$$CBKPAVCClientSockE@@@std@@@3@$0A@@std@@@std@@KAAAPAU_Node@?$_Tree_nod@V?$_Tmap_traits@KPAVCClientSockE@@U?$less@K@std@@V?$allocator@U?$pair@$$CBKPAVCClientSockE@@@std@@@3@$0A@@std@@@2@PAU342@@Z
_TEXT	SEGMENT PARA USE32 PUBLIC 'CODE'
_TEXT	ENDS
;	COMDAT ?_Right@?$_Tree@V?$_Tmap_traits@KPAVCClientSockE@@U?$less@K@std@@V?$allocator@U?$pair@$$CBKPAVCClientSockE@@@std@@@3@$0A@@std@@@std@@KAAAPAU_Node@?$_Tree_nod@V?$_Tmap_traits@KPAVCClientSockE@@U?$less@K@std@@V?$allocator@U?$pair@$$CBKPAVCClientSockE@@@std@@@3@$0A@@std@@@2@PAU342@@Z
_TEXT	SEGMENT PARA USE32 PUBLIC 'CODE'
_TEXT	ENDS
;	COMDAT ?_Myval@?$_Tree@V?$_Tmap_traits@KPAVCClientSockE@@U?$less@K@std@@V?$allocator@U?$pair@$$CBKPAVCClientSockE@@@std@@@3@$0A@@std@@@std@@KAAAU?$pair@$$CBKPAVCClientSockE@@@2@PAU_Node@?$_Tree_nod@V?$_Tmap_traits@KPAVCClientSockE@@U?$less@K@std@@V?$allocator@U?$pair@$$CBKPAVCClientSockE@@@std@@@3@$0A@@std@@@2@@Z
_TEXT	SEGMENT PARA USE32 PUBLIC 'CODE'
_TEXT	ENDS
;	COMDAT ?begin@?$_Tree@V?$_Tmap_traits@KPAVCClientSockE@@U?$less@K@std@@V?$allocator@U?$pair@$$CBKPAVCClientSockE@@@std@@@3@$0A@@std@@@std@@QAE?AViterator@12@XZ
_TEXT	SEGMENT PARA USE32 PUBLIC 'CODE'
_TEXT	ENDS
;	COMDAT ?erase@?$_Tree@V?$_Tmap_traits@KPAVCClientSockE@@U?$less@K@std@@V?$allocator@U?$pair@$$CBKPAVCClientSockE@@@std@@@3@$0A@@std@@@std@@QAE?AViterator@12@V312@0@Z
_TEXT	SEGMENT PARA USE32 PUBLIC 'CODE'
_TEXT	ENDS
;	COMDAT ?_Init@?$_Tree@V?$_Tmap_traits@KPAVCClientSockE@@U?$less@K@std@@V?$allocator@U?$pair@$$CBKPAVCClientSockE@@@std@@@3@$0A@@std@@@std@@IAEXXZ
_TEXT	SEGMENT PARA USE32 PUBLIC 'CODE'
_TEXT	ENDS
;	COMDAT ?_Lbound@?$_Tree@V?$_Tmap_traits@KPAVCClientSockE@@U?$less@K@std@@V?$allocator@U?$pair@$$CBKPAVCClientSockE@@@std@@@3@$0A@@std@@@std@@IBEPAU_Node@?$_Tree_nod@V?$_Tmap_traits@KPAVCClientSockE@@U?$less@K@std@@V?$allocator@U?$pair@$$CBKPAVCClientSockE@@@std@@@3@$0A@@std@@@2@ABK@Z
_TEXT	SEGMENT PARA USE32 PUBLIC 'CODE'
_TEXT	ENDS
;	COMDAT ??0?$_Tree_val@V?$_Tmap_traits@KPAVCClientSockE@@U?$less@K@std@@V?$allocator@U?$pair@$$CBKPAVCClientSockE@@@std@@@3@$0A@@std@@@std@@IAE@ABU?$less@K@1@V?$allocator@U?$pair@$$CBKPAVCClientSockE@@@std@@@1@@Z
_TEXT	SEGMENT PARA USE32 PUBLIC 'CODE'
_TEXT	ENDS
;	COMDAT ?_Kfn@?$_Tmap_traits@KPAVCClientSockE@@U?$less@K@std@@V?$allocator@U?$pair@$$CBKPAVCClientSockE@@@std@@@3@$0A@@std@@SAABKABU?$pair@$$CBKPAVCClientSockE@@@2@@Z
_TEXT	SEGMENT PARA USE32 PUBLIC 'CODE'
_TEXT	ENDS
;	COMDAT ??0?$allocator@U?$pair@$$CBKPAVCClientSockE@@@std@@@std@@QAE@ABV01@@Z
_TEXT	SEGMENT PARA USE32 PUBLIC 'CODE'
_TEXT	ENDS
;	COMDAT ?deallocate@?$allocator@U_Node@?$_Tree_nod@V?$_Tmap_traits@KPAVCClientSockE@@U?$less@K@std@@V?$allocator@U?$pair@$$CBKPAVCClientSockE@@@std@@@3@$0A@@std@@@std@@@std@@QAEXPAU_Node@?$_Tree_nod@V?$_Tmap_traits@KPAVCClientSockE@@U?$less@K@std@@V?$allocator@U?$pair@$$CBKPAVCClientSockE@@@std@@@3@$0A@@std@@@2@I@Z
_TEXT	SEGMENT PARA USE32 PUBLIC 'CODE'
_TEXT	ENDS
;	COMDAT ?destroy@?$allocator@PAU_Node@?$_Tree_nod@V?$_Tmap_traits@KPAVCClientSockE@@U?$less@K@std@@V?$allocator@U?$pair@$$CBKPAVCClientSockE@@@std@@@3@$0A@@std@@@std@@@std@@QAEXPAPAU_Node@?$_Tree_nod@V?$_Tmap_traits@KPAVCClientSockE@@U?$less@K@std@@V?$allocator@U?$pair@$$CBKPAVCClientSockE@@@std@@@3@$0A@@std@@@2@@Z
_TEXT	SEGMENT PARA USE32 PUBLIC 'CODE'
_TEXT	ENDS
;	COMDAT ??0const_iterator@?$_Tree@V?$_Tmap_traits@KPAVCClientSockE@@U?$less@K@std@@V?$allocator@U?$pair@$$CBKPAVCClientSockE@@@std@@@3@$0A@@std@@@std@@QAE@PAU_Node@?$_Tree_nod@V?$_Tmap_traits@KPAVCClientSockE@@U?$less@K@std@@V?$allocator@U?$pair@$$CBKPAVCClientSockE@@@std@@@3@$0A@@std@@@2@@Z
_TEXT	SEGMENT PARA USE32 PUBLIC 'CODE'
_TEXT	ENDS
;	COMDAT ??Dconst_iterator@?$_Tree@V?$_Tmap_traits@KPAVCClientSockE@@U?$less@K@std@@V?$allocator@U?$pair@$$CBKPAVCClientSockE@@@std@@@3@$0A@@std@@@std@@QBEABU?$pair@$$CBKPAVCClientSockE@@@2@XZ
_TEXT	SEGMENT PARA USE32 PUBLIC 'CODE'
_TEXT	ENDS
;	COMDAT ?_Myval@?$_Tree@V?$_Tmap_traits@KP8CDPDatabaseClient@@AEXAAVCAr@@KK@ZU?$less@K@std@@V?$allocator@U?$pair@$$CBKP8CDPDatabaseClient@@AEXAAVCAr@@KK@Z@std@@@4@$0A@@std@@@std@@KAAAU?$pair@$$CBKP8CDPDatabaseClient@@AEXAAVCAr@@KK@Z@2@PAU_Node@?$_Tree_nod@V?$_Tmap_traits@KP8CDPDatabaseClient@@AEXAAVCAr@@KK@ZU?$less@K@std@@V?$allocator@U?$pair@$$CBKP8CDPDatabaseClient@@AEXAAVCAr@@KK@Z@std@@@4@$0A@@std@@@2@@Z
_TEXT	SEGMENT PARA USE32 PUBLIC 'CODE'
_TEXT	ENDS
;	COMDAT ?_Lbound@?$_Tree@V?$_Tmap_traits@KP8CDPDatabaseClient@@AEXAAVCAr@@KK@ZU?$less@K@std@@V?$allocator@U?$pair@$$CBKP8CDPDatabaseClient@@AEXAAVCAr@@KK@Z@std@@@4@$0A@@std@@@std@@IBEPAU_Node@?$_Tree_nod@V?$_Tmap_traits@KP8CDPDatabaseClient@@AEXAAVCAr@@KK@ZU?$less@K@std@@V?$allocator@U?$pair@$$CBKP8CDPDatabaseClient@@AEXAAVCAr@@KK@Z@std@@@4@$0A@@std@@@2@ABK@Z
_TEXT	SEGMENT PARA USE32 PUBLIC 'CODE'
_TEXT	ENDS
;	COMDAT ?_Kfn@?$_Tmap_traits@KP8CDPDatabaseClient@@AEXAAVCAr@@KK@ZU?$less@K@std@@V?$allocator@U?$pair@$$CBKP8CDPDatabaseClient@@AEXAAVCAr@@KK@Z@std@@@4@$0A@@std@@SAABKABU?$pair@$$CBKP8CDPDatabaseClient@@AEXAAVCAr@@KK@Z@2@@Z
_TEXT	SEGMENT PARA USE32 PUBLIC 'CODE'
_TEXT	ENDS
;	COMDAT ??0const_iterator@?$_Tree@V?$_Tmap_traits@KP8CDPDatabaseClient@@AEXAAVCAr@@KK@ZU?$less@K@std@@V?$allocator@U?$pair@$$CBKP8CDPDatabaseClient@@AEXAAVCAr@@KK@Z@std@@@4@$0A@@std@@@std@@QAE@PAU_Node@?$_Tree_nod@V?$_Tmap_traits@KP8CDPDatabaseClient@@AEXAAVCAr@@KK@ZU?$less@K@std@@V?$allocator@U?$pair@$$CBKP8CDPDatabaseClient@@AEXAAVCAr@@KK@Z@std@@@4@$0A@@std@@@2@@Z
_TEXT	SEGMENT PARA USE32 PUBLIC 'CODE'
_TEXT	ENDS
;	COMDAT ??Dconst_iterator@?$_Tree@V?$_Tmap_traits@KP8CDPDatabaseClient@@AEXAAVCAr@@KK@ZU?$less@K@std@@V?$allocator@U?$pair@$$CBKP8CDPDatabaseClient@@AEXAAVCAr@@KK@Z@std@@@4@$0A@@std@@@std@@QBEABU?$pair@$$CBKP8CDPDatabaseClient@@AEXAAVCAr@@KK@Z@2@XZ
_TEXT	SEGMENT PARA USE32 PUBLIC 'CODE'
_TEXT	ENDS
;	COMDAT ??0?$pair@Viterator@?$_Tree@V?$_Tmap_traits@KU_Friend@@U?$less@K@std@@V?$allocator@U?$pair@$$CBKU_Friend@@@std@@@3@$0A@@std@@@std@@V123@@std@@QAE@ABViterator@?$_Tree@V?$_Tmap_traits@KU_Friend@@U?$less@K@std@@V?$allocator@U?$pair@$$CBKU_Friend@@@std@@@3@$0A@@std@@@1@0@Z
_TEXT	SEGMENT PARA USE32 PUBLIC 'CODE'
_TEXT	ENDS
;	COMDAT ??0iterator@?$vector@PAU__JOINPLAYER@CGuildCombat@@V?$allocator@PAU__JOINPLAYER@CGuildCombat@@@std@@@std@@QAE@PAPAU__JOINPLAYER@CGuildCombat@@@Z
_TEXT	SEGMENT PARA USE32 PUBLIC 'CODE'
_TEXT	ENDS
;	COMDAT ??Yiterator@?$vector@PAU__JOINPLAYER@CGuildCombat@@V?$allocator@PAU__JOINPLAYER@CGuildCombat@@@std@@@std@@QAEAAV012@H@Z
_TEXT	SEGMENT PARA USE32 PUBLIC 'CODE'
_TEXT	ENDS
;	COMDAT ??Dconst_iterator@?$vector@PAU__JOINPLAYER@CGuildCombat@@V?$allocator@PAU__JOINPLAYER@CGuildCombat@@@std@@@std@@QBEABQAU__JOINPLAYER@CGuildCombat@@XZ
_TEXT	SEGMENT PARA USE32 PUBLIC 'CODE'
_TEXT	ENDS
;	COMDAT ??0iterator@?$vector@V?$basic_string@DU?$char_traits@D@std@@V?$allocator@D@2@@std@@V?$allocator@V?$basic_string@DU?$char_traits@D@std@@V?$allocator@D@2@@std@@@2@@std@@QAE@PAV?$basic_string@DU?$char_traits@D@std@@V?$allocator@D@2@@2@@Z
_TEXT	SEGMENT PARA USE32 PUBLIC 'CODE'
_TEXT	ENDS
;	COMDAT ??Yiterator@?$vector@V?$basic_string@DU?$char_traits@D@std@@V?$allocator@D@2@@std@@V?$allocator@V?$basic_string@DU?$char_traits@D@std@@V?$allocator@D@2@@std@@@2@@std@@QAEAAV012@H@Z
_TEXT	SEGMENT PARA USE32 PUBLIC 'CODE'
_TEXT	ENDS
;	COMDAT ??Giterator@?$vector@V?$basic_string@DU?$char_traits@D@std@@V?$allocator@D@2@@std@@V?$allocator@V?$basic_string@DU?$char_traits@D@std@@V?$allocator@D@2@@std@@@2@@std@@QBEHABVconst_iterator@12@@Z
_TEXT	SEGMENT PARA USE32 PUBLIC 'CODE'
_TEXT	ENDS
;	COMDAT ??Dconst_iterator@?$vector@V?$basic_string@DU?$char_traits@D@std@@V?$allocator@D@2@@std@@V?$allocator@V?$basic_string@DU?$char_traits@D@std@@V?$allocator@D@2@@std@@@2@@std@@QBEABV?$basic_string@DU?$char_traits@D@std@@V?$allocator@D@2@@2@XZ
_TEXT	SEGMENT PARA USE32 PUBLIC 'CODE'
_TEXT	ENDS
;	COMDAT ??0iterator@?$vector@UMINIGMAME_PRIZE_LIST@CRainbowRaceMng@@V?$allocator@UMINIGMAME_PRIZE_LIST@CRainbowRaceMng@@@std@@@std@@QAE@PAUMINIGMAME_PRIZE_LIST@CRainbowRaceMng@@@Z
_TEXT	SEGMENT PARA USE32 PUBLIC 'CODE'
_TEXT	ENDS
;	COMDAT ??Hiterator@?$vector@UMINIGMAME_PRIZE_LIST@CRainbowRaceMng@@V?$allocator@UMINIGMAME_PRIZE_LIST@CRainbowRaceMng@@@std@@@std@@QBE?AV012@H@Z
_TEXT	SEGMENT PARA USE32 PUBLIC 'CODE'
_TEXT	ENDS
;	COMDAT ??Giterator@?$vector@UMINIGMAME_PRIZE_LIST@CRainbowRaceMng@@V?$allocator@UMINIGMAME_PRIZE_LIST@CRainbowRaceMng@@@std@@@std@@QBEHABVconst_iterator@12@@Z
_TEXT	SEGMENT PARA USE32 PUBLIC 'CODE'
_TEXT	ENDS
;	COMDAT ??0iterator@?$vector@PAVCMiniGameBase@@V?$allocator@PAVCMiniGameBase@@@std@@@std@@QAE@PAPAVCMiniGameBase@@@Z
_TEXT	SEGMENT PARA USE32 PUBLIC 'CODE'
_TEXT	ENDS
;	COMDAT ??Yiterator@?$vector@PAVCMiniGameBase@@V?$allocator@PAVCMiniGameBase@@@std@@@std@@QAEAAV012@H@Z
_TEXT	SEGMENT PARA USE32 PUBLIC 'CODE'
_TEXT	ENDS
;	COMDAT ??Dconst_iterator@?$vector@PAVCMiniGameBase@@V?$allocator@PAVCMiniGameBase@@@std@@@std@@QBEABQAVCMiniGameBase@@XZ
_TEXT	SEGMENT PARA USE32 PUBLIC 'CODE'
_TEXT	ENDS
;	COMDAT ??0iterator@?$vector@UGuildHouse_Furniture_Info@CGuildHouseBase@@V?$allocator@UGuildHouse_Furniture_Info@CGuildHouseBase@@@std@@@std@@QAE@PAUGuildHouse_Furniture_Info@CGuildHouseBase@@@Z
_TEXT	SEGMENT PARA USE32 PUBLIC 'CODE'
_TEXT	ENDS
;	COMDAT ??Yiterator@?$vector@UGuildHouse_Furniture_Info@CGuildHouseBase@@V?$allocator@UGuildHouse_Furniture_Info@CGuildHouseBase@@@std@@@std@@QAEAAV012@H@Z
_TEXT	SEGMENT PARA USE32 PUBLIC 'CODE'
_TEXT	ENDS
;	COMDAT ??Dconst_iterator@?$vector@UGuildHouse_Furniture_Info@CGuildHouseBase@@V?$allocator@UGuildHouse_Furniture_Info@CGuildHouseBase@@@std@@@std@@QBEABUGuildHouse_Furniture_Info@CGuildHouseBase@@XZ
_TEXT	SEGMENT PARA USE32 PUBLIC 'CODE'
_TEXT	ENDS
;	COMDAT ??0?$pair@Viterator@?$_Tree@V?$_Tmap_traits@KKU?$less@K@std@@V?$allocator@U?$pair@$$CBKK@std@@@2@$0A@@std@@@std@@V123@@std@@QAE@ABViterator@?$_Tree@V?$_Tmap_traits@KKU?$less@K@std@@V?$allocator@U?$pair@$$CBKK@std@@@2@$0A@@std@@@1@0@Z
_TEXT	SEGMENT PARA USE32 PUBLIC 'CODE'
_TEXT	ENDS
;	COMDAT ?max_size@?$allocator@V?$basic_string@DU?$char_traits@D@std@@V?$allocator@D@2@@std@@@std@@QBEIXZ
_TEXT	SEGMENT PARA USE32 PUBLIC 'CODE'
_TEXT	ENDS
;	COMDAT ??0const_iterator@?$_Tree@V?$_Tmap_traits@KPAVCCtrl@@U?$less@K@std@@V?$allocator@U?$pair@$$CBKPAVCCtrl@@@std@@@3@$0A@@std@@@std@@QAE@XZ
_TEXT	SEGMENT PARA USE32 PUBLIC 'CODE'
_TEXT	ENDS
;	COMDAT ?_Myval@?$_Tree@V?$_Tmap_traits@KHU?$less@K@std@@V?$allocator@U?$pair@$$CBKH@std@@@2@$0A@@std@@@std@@KAAAU?$pair@$$CBKH@2@PAU_Node@?$_Tree_nod@V?$_Tmap_traits@KHU?$less@K@std@@V?$allocator@U?$pair@$$CBKH@std@@@2@$0A@@std@@@2@@Z
_TEXT	SEGMENT PARA USE32 PUBLIC 'CODE'
_TEXT	ENDS
;	COMDAT ?_Buynode@?$_Tree@V?$_Tmap_traits@KHU?$less@K@std@@V?$allocator@U?$pair@$$CBKH@std@@@2@$0A@@std@@@std@@IAEPAU_Node@?$_Tree_nod@V?$_Tmap_traits@KHU?$less@K@std@@V?$allocator@U?$pair@$$CBKH@std@@@2@$0A@@std@@@2@XZ
_TEXT	SEGMENT PARA USE32 PUBLIC 'CODE'
_TEXT	ENDS
;	COMDAT ??0?$_Tree_ptr@V?$_Tmap_traits@KHU?$less@K@std@@V?$allocator@U?$pair@$$CBKH@std@@@2@$0A@@std@@@std@@IAE@ABU?$less@K@1@V?$allocator@U?$pair@$$CBKH@std@@@1@@Z
_TEXT	SEGMENT PARA USE32 PUBLIC 'CODE'
_TEXT	ENDS
;	COMDAT ?destroy@?$allocator@PAUtagACTMSG@@@std@@QAEXPAPAUtagACTMSG@@@Z
_TEXT	SEGMENT PARA USE32 PUBLIC 'CODE'
_TEXT	ENDS
;	COMDAT ?destroy@?$allocator@PAUtagMAGICATKMSG@@@std@@QAEXPAPAUtagMAGICATKMSG@@@Z
_TEXT	SEGMENT PARA USE32 PUBLIC 'CODE'
_TEXT	ENDS
;	COMDAT ?_Color@?$_Tree@V?$_Tmap_traits@KU_Friend@@U?$less@K@std@@V?$allocator@U?$pair@$$CBKU_Friend@@@std@@@3@$0A@@std@@@std@@KAAADPAU_Node@?$_Tree_nod@V?$_Tmap_traits@KU_Friend@@U?$less@K@std@@V?$allocator@U?$pair@$$CBKU_Friend@@@std@@@3@$0A@@std@@@2@@Z
_TEXT	SEGMENT PARA USE32 PUBLIC 'CODE'
_TEXT	ENDS
;	COMDAT ?_Isnil@?$_Tree@V?$_Tmap_traits@KU_Friend@@U?$less@K@std@@V?$allocator@U?$pair@$$CBKU_Friend@@@std@@@3@$0A@@std@@@std@@KAAADPAU_Node@?$_Tree_nod@V?$_Tmap_traits@KU_Friend@@U?$less@K@std@@V?$allocator@U?$pair@$$CBKU_Friend@@@std@@@3@$0A@@std@@@2@@Z
_TEXT	SEGMENT PARA USE32 PUBLIC 'CODE'
_TEXT	ENDS
;	COMDAT ?_Left@?$_Tree@V?$_Tmap_traits@KU_Friend@@U?$less@K@std@@V?$allocator@U?$pair@$$CBKU_Friend@@@std@@@3@$0A@@std@@@std@@KAAAPAU_Node@?$_Tree_nod@V?$_Tmap_traits@KU_Friend@@U?$less@K@std@@V?$allocator@U?$pair@$$CBKU_Friend@@@std@@@3@$0A@@std@@@2@PAU342@@Z
_TEXT	SEGMENT PARA USE32 PUBLIC 'CODE'
_TEXT	ENDS
;	COMDAT ?_Parent@?$_Tree@V?$_Tmap_traits@KU_Friend@@U?$less@K@std@@V?$allocator@U?$pair@$$CBKU_Friend@@@std@@@3@$0A@@std@@@std@@KAAAPAU_Node@?$_Tree_nod@V?$_Tmap_traits@KU_Friend@@U?$less@K@std@@V?$allocator@U?$pair@$$CBKU_Friend@@@std@@@3@$0A@@std@@@2@PAU342@@Z
_TEXT	SEGMENT PARA USE32 PUBLIC 'CODE'
_TEXT	ENDS
;	COMDAT ?_Right@?$_Tree@V?$_Tmap_traits@KU_Friend@@U?$less@K@std@@V?$allocator@U?$pair@$$CBKU_Friend@@@std@@@3@$0A@@std@@@std@@KAAAPAU_Node@?$_Tree_nod@V?$_Tmap_traits@KU_Friend@@U?$less@K@std@@V?$allocator@U?$pair@$$CBKU_Friend@@@std@@@3@$0A@@std@@@2@PAU342@@Z
_TEXT	SEGMENT PARA USE32 PUBLIC 'CODE'
_TEXT	ENDS
;	COMDAT ?_Erase@?$_Tree@V?$_Tmap_traits@KU_Friend@@U?$less@K@std@@V?$allocator@U?$pair@$$CBKU_Friend@@@std@@@3@$0A@@std@@@std@@IAEXPAU_Node@?$_Tree_nod@V?$_Tmap_traits@KU_Friend@@U?$less@K@std@@V?$allocator@U?$pair@$$CBKU_Friend@@@std@@@3@$0A@@std@@@2@@Z
_TEXT	SEGMENT PARA USE32 PUBLIC 'CODE'
_TEXT	ENDS
;	COMDAT ?_Lbound@?$_Tree@V?$_Tmap_traits@KU_Friend@@U?$less@K@std@@V?$allocator@U?$pair@$$CBKU_Friend@@@std@@@3@$0A@@std@@@std@@IBEPAU_Node@?$_Tree_nod@V?$_Tmap_traits@KU_Friend@@U?$less@K@std@@V?$allocator@U?$pair@$$CBKU_Friend@@@std@@@3@$0A@@std@@@2@ABK@Z
_TEXT	SEGMENT PARA USE32 PUBLIC 'CODE'
_TEXT	ENDS
;	COMDAT ?_Lmost@?$_Tree@V?$_Tmap_traits@KU_Friend@@U?$less@K@std@@V?$allocator@U?$pair@$$CBKU_Friend@@@std@@@3@$0A@@std@@@std@@IAEAAPAU_Node@?$_Tree_nod@V?$_Tmap_traits@KU_Friend@@U?$less@K@std@@V?$allocator@U?$pair@$$CBKU_Friend@@@std@@@3@$0A@@std@@@2@XZ
_TEXT	SEGMENT PARA USE32 PUBLIC 'CODE'
_TEXT	ENDS
;	COMDAT ?_Lrotate@?$_Tree@V?$_Tmap_traits@KU_Friend@@U?$less@K@std@@V?$allocator@U?$pair@$$CBKU_Friend@@@std@@@3@$0A@@std@@@std@@IAEXPAU_Node@?$_Tree_nod@V?$_Tmap_traits@KU_Friend@@U?$less@K@std@@V?$allocator@U?$pair@$$CBKU_Friend@@@std@@@3@$0A@@std@@@2@@Z
_TEXT	SEGMENT PARA USE32 PUBLIC 'CODE'
_TEXT	ENDS
;	COMDAT ?_Max@?$_Tree@V?$_Tmap_traits@KU_Friend@@U?$less@K@std@@V?$allocator@U?$pair@$$CBKU_Friend@@@std@@@3@$0A@@std@@@std@@KAPAU_Node@?$_Tree_nod@V?$_Tmap_traits@KU_Friend@@U?$less@K@std@@V?$allocator@U?$pair@$$CBKU_Friend@@@std@@@3@$0A@@std@@@2@PAU342@@Z
_TEXT	SEGMENT PARA USE32 PUBLIC 'CODE'
_TEXT	ENDS
;	COMDAT ?_Min@?$_Tree@V?$_Tmap_traits@KU_Friend@@U?$less@K@std@@V?$allocator@U?$pair@$$CBKU_Friend@@@std@@@3@$0A@@std@@@std@@KAPAU_Node@?$_Tree_nod@V?$_Tmap_traits@KU_Friend@@U?$less@K@std@@V?$allocator@U?$pair@$$CBKU_Friend@@@std@@@3@$0A@@std@@@2@PAU342@@Z
_TEXT	SEGMENT PARA USE32 PUBLIC 'CODE'
_TEXT	ENDS
;	COMDAT ?_Rmost@?$_Tree@V?$_Tmap_traits@KU_Friend@@U?$less@K@std@@V?$allocator@U?$pair@$$CBKU_Friend@@@std@@@3@$0A@@std@@@std@@IAEAAPAU_Node@?$_Tree_nod@V?$_Tmap_traits@KU_Friend@@U?$less@K@std@@V?$allocator@U?$pair@$$CBKU_Friend@@@std@@@3@$0A@@std@@@2@XZ
_TEXT	SEGMENT PARA USE32 PUBLIC 'CODE'
_TEXT	ENDS
;	COMDAT ?_Root@?$_Tree@V?$_Tmap_traits@KU_Friend@@U?$less@K@std@@V?$allocator@U?$pair@$$CBKU_Friend@@@std@@@3@$0A@@std@@@std@@IAEAAPAU_Node@?$_Tree_nod@V?$_Tmap_traits@KU_Friend@@U?$less@K@std@@V?$allocator@U?$pair@$$CBKU_Friend@@@std@@@3@$0A@@std@@@2@XZ
_TEXT	SEGMENT PARA USE32 PUBLIC 'CODE'
_TEXT	ENDS
;	COMDAT ?_Rrotate@?$_Tree@V?$_Tmap_traits@KU_Friend@@U?$less@K@std@@V?$allocator@U?$pair@$$CBKU_Friend@@@std@@@3@$0A@@std@@@std@@IAEXPAU_Node@?$_Tree_nod@V?$_Tmap_traits@KU_Friend@@U?$less@K@std@@V?$allocator@U?$pair@$$CBKU_Friend@@@std@@@3@$0A@@std@@@2@@Z
_TEXT	SEGMENT PARA USE32 PUBLIC 'CODE'
_TEXT	ENDS
;	COMDAT ?_Ubound@?$_Tree@V?$_Tmap_traits@KU_Friend@@U?$less@K@std@@V?$allocator@U?$pair@$$CBKU_Friend@@@std@@@3@$0A@@std@@@std@@IBEPAU_Node@?$_Tree_nod@V?$_Tmap_traits@KU_Friend@@U?$less@K@std@@V?$allocator@U?$pair@$$CBKU_Friend@@@std@@@3@$0A@@std@@@2@ABK@Z
_TEXT	SEGMENT PARA USE32 PUBLIC 'CODE'
_TEXT	ENDS
;	COMDAT ?deallocate@?$allocator@U_Node@?$_Tree_nod@V?$_Tmap_traits@KU_Friend@@U?$less@K@std@@V?$allocator@U?$pair@$$CBKU_Friend@@@std@@@3@$0A@@std@@@std@@@std@@QAEXPAU_Node@?$_Tree_nod@V?$_Tmap_traits@KU_Friend@@U?$less@K@std@@V?$allocator@U?$pair@$$CBKU_Friend@@@std@@@3@$0A@@std@@@2@I@Z
_TEXT	SEGMENT PARA USE32 PUBLIC 'CODE'
_TEXT	ENDS
;	COMDAT ?destroy@?$allocator@U_Node@?$_Tree_nod@V?$_Tmap_traits@KU_Friend@@U?$less@K@std@@V?$allocator@U?$pair@$$CBKU_Friend@@@std@@@3@$0A@@std@@@std@@@std@@QAEXPAU_Node@?$_Tree_nod@V?$_Tmap_traits@KU_Friend@@U?$less@K@std@@V?$allocator@U?$pair@$$CBKU_Friend@@@std@@@3@$0A@@std@@@2@@Z
_TEXT	SEGMENT PARA USE32 PUBLIC 'CODE'
_TEXT	ENDS
;	COMDAT ??0iterator@?$_Tree@V?$_Tmap_traits@KU_Friend@@U?$less@K@std@@V?$allocator@U?$pair@$$CBKU_Friend@@@std@@@3@$0A@@std@@@std@@QAE@PAU_Node@?$_Tree_nod@V?$_Tmap_traits@KU_Friend@@U?$less@K@std@@V?$allocator@U?$pair@$$CBKU_Friend@@@std@@@3@$0A@@std@@@2@@Z
_TEXT	SEGMENT PARA USE32 PUBLIC 'CODE'
_TEXT	ENDS
;	COMDAT ??Eiterator@?$_Tree@V?$_Tmap_traits@KU_Friend@@U?$less@K@std@@V?$allocator@U?$pair@$$CBKU_Friend@@@std@@@3@$0A@@std@@@std@@QAEAAV012@XZ
_TEXT	SEGMENT PARA USE32 PUBLIC 'CODE'
_TEXT	ENDS
;	COMDAT ?_Mynode@const_iterator@?$_Tree@V?$_Tmap_traits@KU_Friend@@U?$less@K@std@@V?$allocator@U?$pair@$$CBKU_Friend@@@std@@@3@$0A@@std@@@std@@QBEPAU_Node@?$_Tree_nod@V?$_Tmap_traits@KU_Friend@@U?$less@K@std@@V?$allocator@U?$pair@$$CBKU_Friend@@@std@@@3@$0A@@std@@@3@XZ
_TEXT	SEGMENT PARA USE32 PUBLIC 'CODE'
_TEXT	ENDS
;	COMDAT ?max_size@?$allocator@U__SECRETROOM_MONSTER@@@std@@QBEIXZ
_TEXT	SEGMENT PARA USE32 PUBLIC 'CODE'
_TEXT	ENDS
;	COMDAT ?max_size@?$vector@UMINIGMAME_PRIZE_LIST@CRainbowRaceMng@@V?$allocator@UMINIGMAME_PRIZE_LIST@CRainbowRaceMng@@@std@@@std@@QBEIXZ
_TEXT	SEGMENT PARA USE32 PUBLIC 'CODE'
_TEXT	ENDS
;	COMDAT ?_Destroy@?$vector@UMINIGMAME_PRIZE_LIST@CRainbowRaceMng@@V?$allocator@UMINIGMAME_PRIZE_LIST@CRainbowRaceMng@@@std@@@std@@IAEXPAUMINIGMAME_PRIZE_LIST@CRainbowRaceMng@@0@Z
_TEXT	SEGMENT PARA USE32 PUBLIC 'CODE'
_TEXT	ENDS
;	COMDAT ?_Xlen@?$vector@UMINIGMAME_PRIZE_LIST@CRainbowRaceMng@@V?$allocator@UMINIGMAME_PRIZE_LIST@CRainbowRaceMng@@@std@@@std@@IBEXXZ
_TEXT	SEGMENT PARA USE32 PUBLIC 'CODE'
_TEXT	ENDS
;	COMDAT ?deallocate@?$allocator@UMINIGMAME_PRIZE_LIST@CRainbowRaceMng@@@std@@QAEXPAUMINIGMAME_PRIZE_LIST@CRainbowRaceMng@@I@Z
_TEXT	SEGMENT PARA USE32 PUBLIC 'CODE'
_TEXT	ENDS
;	COMDAT ?allocate@?$allocator@UMINIGMAME_PRIZE_LIST@CRainbowRaceMng@@@std@@QAEPAUMINIGMAME_PRIZE_LIST@CRainbowRaceMng@@I@Z
_TEXT	SEGMENT PARA USE32 PUBLIC 'CODE'
_TEXT	ENDS
;	COMDAT ?max_size@?$allocator@U?$pair@$$CBKPAVCGuildHouseBase@@@std@@@std@@QBEIXZ
_TEXT	SEGMENT PARA USE32 PUBLIC 'CODE'
_TEXT	ENDS
;	COMDAT ?deallocate@?$allocator@U_Node@?$_Tree_nod@V?$_Tmap_traits@KPAVCGuildHouseBase@@U?$less@K@std@@V?$allocator@U?$pair@$$CBKPAVCGuildHouseBase@@@std@@@3@$0A@@std@@@std@@@std@@QAEXPAU_Node@?$_Tree_nod@V?$_Tmap_traits@KPAVCGuildHouseBase@@U?$less@K@std@@V?$allocator@U?$pair@$$CBKPAVCGuildHouseBase@@@std@@@3@$0A@@std@@@2@I@Z
_TEXT	SEGMENT PARA USE32 PUBLIC 'CODE'
_TEXT	ENDS
;	COMDAT ?allocate@?$allocator@U_Node@?$_Tree_nod@V?$_Tmap_traits@KPAVCGuildHouseBase@@U?$less@K@std@@V?$allocator@U?$pair@$$CBKPAVCGuildHouseBase@@@std@@@3@$0A@@std@@@std@@@std@@QAEPAU_Node@?$_Tree_nod@V?$_Tmap_traits@KPAVCGuildHouseBase@@U?$less@K@std@@V?$allocator@U?$pair@$$CBKPAVCGuildHouseBase@@@std@@@3@$0A@@std@@@2@I@Z
_TEXT	SEGMENT PARA USE32 PUBLIC 'CODE'
_TEXT	ENDS
;	COMDAT ?_Dec@const_iterator@?$_Tree@V?$_Tmap_traits@KPAVCGuildHouseBase@@U?$less@K@std@@V?$allocator@U?$pair@$$CBKPAVCGuildHouseBase@@@std@@@3@$0A@@std@@@std@@QAEXXZ
_TEXT	SEGMENT PARA USE32 PUBLIC 'CODE'
_TEXT	ENDS
;	COMDAT ?_Color@?$_Tree@V?$_Tmap_traits@KKU?$less@K@std@@V?$allocator@U?$pair@$$CBKK@std@@@2@$0A@@std@@@std@@KAAADPAU_Node@?$_Tree_nod@V?$_Tmap_traits@KKU?$less@K@std@@V?$allocator@U?$pair@$$CBKK@std@@@2@$0A@@std@@@2@@Z
_TEXT	SEGMENT PARA USE32 PUBLIC 'CODE'
_TEXT	ENDS
;	COMDAT ?_Isnil@?$_Tree@V?$_Tmap_traits@KKU?$less@K@std@@V?$allocator@U?$pair@$$CBKK@std@@@2@$0A@@std@@@std@@KAAADPAU_Node@?$_Tree_nod@V?$_Tmap_traits@KKU?$less@K@std@@V?$allocator@U?$pair@$$CBKK@std@@@2@$0A@@std@@@2@@Z
_TEXT	SEGMENT PARA USE32 PUBLIC 'CODE'
_TEXT	ENDS
;	COMDAT ?_Left@?$_Tree@V?$_Tmap_traits@KKU?$less@K@std@@V?$allocator@U?$pair@$$CBKK@std@@@2@$0A@@std@@@std@@KAAAPAU_Node@?$_Tree_nod@V?$_Tmap_traits@KKU?$less@K@std@@V?$allocator@U?$pair@$$CBKK@std@@@2@$0A@@std@@@2@PAU342@@Z
_TEXT	SEGMENT PARA USE32 PUBLIC 'CODE'
_TEXT	ENDS
;	COMDAT ?_Parent@?$_Tree@V?$_Tmap_traits@KKU?$less@K@std@@V?$allocator@U?$pair@$$CBKK@std@@@2@$0A@@std@@@std@@KAAAPAU_Node@?$_Tree_nod@V?$_Tmap_traits@KKU?$less@K@std@@V?$allocator@U?$pair@$$CBKK@std@@@2@$0A@@std@@@2@PAU342@@Z
_TEXT	SEGMENT PARA USE32 PUBLIC 'CODE'
_TEXT	ENDS
;	COMDAT ?_Right@?$_Tree@V?$_Tmap_traits@KKU?$less@K@std@@V?$allocator@U?$pair@$$CBKK@std@@@2@$0A@@std@@@std@@KAAAPAU_Node@?$_Tree_nod@V?$_Tmap_traits@KKU?$less@K@std@@V?$allocator@U?$pair@$$CBKK@std@@@2@$0A@@std@@@2@PAU342@@Z
_TEXT	SEGMENT PARA USE32 PUBLIC 'CODE'
_TEXT	ENDS
;	COMDAT ?_Erase@?$_Tree@V?$_Tmap_traits@KKU?$less@K@std@@V?$allocator@U?$pair@$$CBKK@std@@@2@$0A@@std@@@std@@IAEXPAU_Node@?$_Tree_nod@V?$_Tmap_traits@KKU?$less@K@std@@V?$allocator@U?$pair@$$CBKK@std@@@2@$0A@@std@@@2@@Z
_TEXT	SEGMENT PARA USE32 PUBLIC 'CODE'
_TEXT	ENDS
;	COMDAT ?_Lbound@?$_Tree@V?$_Tmap_traits@KKU?$less@K@std@@V?$allocator@U?$pair@$$CBKK@std@@@2@$0A@@std@@@std@@IBEPAU_Node@?$_Tree_nod@V?$_Tmap_traits@KKU?$less@K@std@@V?$allocator@U?$pair@$$CBKK@std@@@2@$0A@@std@@@2@ABK@Z
_TEXT	SEGMENT PARA USE32 PUBLIC 'CODE'
_TEXT	ENDS
;	COMDAT ?_Lmost@?$_Tree@V?$_Tmap_traits@KKU?$less@K@std@@V?$allocator@U?$pair@$$CBKK@std@@@2@$0A@@std@@@std@@IAEAAPAU_Node@?$_Tree_nod@V?$_Tmap_traits@KKU?$less@K@std@@V?$allocator@U?$pair@$$CBKK@std@@@2@$0A@@std@@@2@XZ
_TEXT	SEGMENT PARA USE32 PUBLIC 'CODE'
_TEXT	ENDS
;	COMDAT ?_Lrotate@?$_Tree@V?$_Tmap_traits@KKU?$less@K@std@@V?$allocator@U?$pair@$$CBKK@std@@@2@$0A@@std@@@std@@IAEXPAU_Node@?$_Tree_nod@V?$_Tmap_traits@KKU?$less@K@std@@V?$allocator@U?$pair@$$CBKK@std@@@2@$0A@@std@@@2@@Z
_TEXT	SEGMENT PARA USE32 PUBLIC 'CODE'
_TEXT	ENDS
;	COMDAT ?_Max@?$_Tree@V?$_Tmap_traits@KKU?$less@K@std@@V?$allocator@U?$pair@$$CBKK@std@@@2@$0A@@std@@@std@@KAPAU_Node@?$_Tree_nod@V?$_Tmap_traits@KKU?$less@K@std@@V?$allocator@U?$pair@$$CBKK@std@@@2@$0A@@std@@@2@PAU342@@Z
_TEXT	SEGMENT PARA USE32 PUBLIC 'CODE'
_TEXT	ENDS
;	COMDAT ?_Min@?$_Tree@V?$_Tmap_traits@KKU?$less@K@std@@V?$allocator@U?$pair@$$CBKK@std@@@2@$0A@@std@@@std@@KAPAU_Node@?$_Tree_nod@V?$_Tmap_traits@KKU?$less@K@std@@V?$allocator@U?$pair@$$CBKK@std@@@2@$0A@@std@@@2@PAU342@@Z
_TEXT	SEGMENT PARA USE32 PUBLIC 'CODE'
_TEXT	ENDS
;	COMDAT ?_Rmost@?$_Tree@V?$_Tmap_traits@KKU?$less@K@std@@V?$allocator@U?$pair@$$CBKK@std@@@2@$0A@@std@@@std@@IAEAAPAU_Node@?$_Tree_nod@V?$_Tmap_traits@KKU?$less@K@std@@V?$allocator@U?$pair@$$CBKK@std@@@2@$0A@@std@@@2@XZ
_TEXT	SEGMENT PARA USE32 PUBLIC 'CODE'
_TEXT	ENDS
;	COMDAT ?_Root@?$_Tree@V?$_Tmap_traits@KKU?$less@K@std@@V?$allocator@U?$pair@$$CBKK@std@@@2@$0A@@std@@@std@@IAEAAPAU_Node@?$_Tree_nod@V?$_Tmap_traits@KKU?$less@K@std@@V?$allocator@U?$pair@$$CBKK@std@@@2@$0A@@std@@@2@XZ
_TEXT	SEGMENT PARA USE32 PUBLIC 'CODE'
_TEXT	ENDS
;	COMDAT ?_Rrotate@?$_Tree@V?$_Tmap_traits@KKU?$less@K@std@@V?$allocator@U?$pair@$$CBKK@std@@@2@$0A@@std@@@std@@IAEXPAU_Node@?$_Tree_nod@V?$_Tmap_traits@KKU?$less@K@std@@V?$allocator@U?$pair@$$CBKK@std@@@2@$0A@@std@@@2@@Z
_TEXT	SEGMENT PARA USE32 PUBLIC 'CODE'
_TEXT	ENDS
;	COMDAT ?_Ubound@?$_Tree@V?$_Tmap_traits@KKU?$less@K@std@@V?$allocator@U?$pair@$$CBKK@std@@@2@$0A@@std@@@std@@IBEPAU_Node@?$_Tree_nod@V?$_Tmap_traits@KKU?$less@K@std@@V?$allocator@U?$pair@$$CBKK@std@@@2@$0A@@std@@@2@ABK@Z
_TEXT	SEGMENT PARA USE32 PUBLIC 'CODE'
_TEXT	ENDS
;	COMDAT ?deallocate@?$allocator@U_Node@?$_Tree_nod@V?$_Tmap_traits@KKU?$less@K@std@@V?$allocator@U?$pair@$$CBKK@std@@@2@$0A@@std@@@std@@@std@@QAEXPAU_Node@?$_Tree_nod@V?$_Tmap_traits@KKU?$less@K@std@@V?$allocator@U?$pair@$$CBKK@std@@@2@$0A@@std@@@2@I@Z
_TEXT	SEGMENT PARA USE32 PUBLIC 'CODE'
_TEXT	ENDS
;	COMDAT ?destroy@?$allocator@U_Node@?$_Tree_nod@V?$_Tmap_traits@KKU?$less@K@std@@V?$allocator@U?$pair@$$CBKK@std@@@2@$0A@@std@@@std@@@std@@QAEXPAU_Node@?$_Tree_nod@V?$_Tmap_traits@KKU?$less@K@std@@V?$allocator@U?$pair@$$CBKK@std@@@2@$0A@@std@@@2@@Z
_TEXT	SEGMENT PARA USE32 PUBLIC 'CODE'
_TEXT	ENDS
;	COMDAT ??0iterator@?$_Tree@V?$_Tmap_traits@KKU?$less@K@std@@V?$allocator@U?$pair@$$CBKK@std@@@2@$0A@@std@@@std@@QAE@PAU_Node@?$_Tree_nod@V?$_Tmap_traits@KKU?$less@K@std@@V?$allocator@U?$pair@$$CBKK@std@@@2@$0A@@std@@@2@@Z
_TEXT	SEGMENT PARA USE32 PUBLIC 'CODE'
_TEXT	ENDS
;	COMDAT ??Eiterator@?$_Tree@V?$_Tmap_traits@KKU?$less@K@std@@V?$allocator@U?$pair@$$CBKK@std@@@2@$0A@@std@@@std@@QAEAAV012@XZ
_TEXT	SEGMENT PARA USE32 PUBLIC 'CODE'
_TEXT	ENDS
;	COMDAT ?_Mynode@const_iterator@?$_Tree@V?$_Tmap_traits@KKU?$less@K@std@@V?$allocator@U?$pair@$$CBKK@std@@@2@$0A@@std@@@std@@QBEPAU_Node@?$_Tree_nod@V?$_Tmap_traits@KKU?$less@K@std@@V?$allocator@U?$pair@$$CBKK@std@@@2@$0A@@std@@@3@XZ
_TEXT	SEGMENT PARA USE32 PUBLIC 'CODE'
_TEXT	ENDS
;	COMDAT ?_Isnil@?$_Tree@V?$_Tmap_traits@KPAVCClientSock@@U?$less@K@std@@V?$allocator@U?$pair@$$CBKPAVCClientSock@@@std@@@3@$0A@@std@@@std@@KAAADPAU_Node@?$_Tree_nod@V?$_Tmap_traits@KPAVCClientSock@@U?$less@K@std@@V?$allocator@U?$pair@$$CBKPAVCClientSock@@@std@@@3@$0A@@std@@@2@@Z
_TEXT	SEGMENT PARA USE32 PUBLIC 'CODE'
_TEXT	ENDS
;	COMDAT ?erase@?$_Tree@V?$_Tmap_traits@KPAVCClientSock@@U?$less@K@std@@V?$allocator@U?$pair@$$CBKPAVCClientSock@@@std@@@3@$0A@@std@@@std@@QAE?AViterator@12@V312@@Z
_TEXT	SEGMENT PARA USE32 PUBLIC 'CODE'
_TEXT	ENDS
;	COMDAT ?clear@?$_Tree@V?$_Tmap_traits@KPAVCClientSock@@U?$less@K@std@@V?$allocator@U?$pair@$$CBKPAVCClientSock@@@std@@@3@$0A@@std@@@std@@QAEXXZ
_TEXT	SEGMENT PARA USE32 PUBLIC 'CODE'
_TEXT	ENDS
;	COMDAT ?_Lmost@?$_Tree@V?$_Tmap_traits@KPAVCClientSock@@U?$less@K@std@@V?$allocator@U?$pair@$$CBKPAVCClientSock@@@std@@@3@$0A@@std@@@std@@IAEAAPAU_Node@?$_Tree_nod@V?$_Tmap_traits@KPAVCClientSock@@U?$less@K@std@@V?$allocator@U?$pair@$$CBKPAVCClientSock@@@std@@@3@$0A@@std@@@2@XZ
_TEXT	SEGMENT PARA USE32 PUBLIC 'CODE'
_TEXT	ENDS
;	COMDAT ?_Rmost@?$_Tree@V?$_Tmap_traits@KPAVCClientSock@@U?$less@K@std@@V?$allocator@U?$pair@$$CBKPAVCClientSock@@@std@@@3@$0A@@std@@@std@@IAEAAPAU_Node@?$_Tree_nod@V?$_Tmap_traits@KPAVCClientSock@@U?$less@K@std@@V?$allocator@U?$pair@$$CBKPAVCClientSock@@@std@@@3@$0A@@std@@@2@XZ
_TEXT	SEGMENT PARA USE32 PUBLIC 'CODE'
_TEXT	ENDS
;	COMDAT ?_Root@?$_Tree@V?$_Tmap_traits@KPAVCClientSock@@U?$less@K@std@@V?$allocator@U?$pair@$$CBKPAVCClientSock@@@std@@@3@$0A@@std@@@std@@IAEAAPAU_Node@?$_Tree_nod@V?$_Tmap_traits@KPAVCClientSock@@U?$less@K@std@@V?$allocator@U?$pair@$$CBKPAVCClientSock@@@std@@@3@$0A@@std@@@2@XZ
_TEXT	SEGMENT PARA USE32 PUBLIC 'CODE'
_TEXT	ENDS
;	COMDAT ?_Root@?$_Tree@V?$_Tmap_traits@KPAVCClientSock@@U?$less@K@std@@V?$allocator@U?$pair@$$CBKPAVCClientSock@@@std@@@3@$0A@@std@@@std@@IBEAAPAU_Node@?$_Tree_nod@V?$_Tmap_traits@KPAVCClientSock@@U?$less@K@std@@V?$allocator@U?$pair@$$CBKPAVCClientSock@@@std@@@3@$0A@@std@@@2@XZ
_TEXT	SEGMENT PARA USE32 PUBLIC 'CODE'
_TEXT	ENDS
;	COMDAT ?_Buynode@?$_Tree@V?$_Tmap_traits@KPAVCClientSock@@U?$less@K@std@@V?$allocator@U?$pair@$$CBKPAVCClientSock@@@std@@@3@$0A@@std@@@std@@IAEPAU_Node@?$_Tree_nod@V?$_Tmap_traits@KPAVCClientSock@@U?$less@K@std@@V?$allocator@U?$pair@$$CBKPAVCClientSock@@@std@@@3@$0A@@std@@@2@XZ
_TEXT	SEGMENT PARA USE32 PUBLIC 'CODE'
_TEXT	ENDS
;	COMDAT ??0?$_Tree_ptr@V?$_Tmap_traits@KPAVCClientSock@@U?$less@K@std@@V?$allocator@U?$pair@$$CBKPAVCClientSock@@@std@@@3@$0A@@std@@@std@@IAE@ABU?$less@K@1@V?$allocator@U?$pair@$$CBKPAVCClientSock@@@std@@@1@@Z
_TEXT	SEGMENT PARA USE32 PUBLIC 'CODE'
_TEXT	ENDS
;	COMDAT ??Eiterator@?$_Tree@V?$_Tmap_traits@KPAVCClientSock@@U?$less@K@std@@V?$allocator@U?$pair@$$CBKPAVCClientSock@@@std@@@3@$0A@@std@@@std@@QAE?AV012@H@Z
_TEXT	SEGMENT PARA USE32 PUBLIC 'CODE'
_TEXT	ENDS
;	COMDAT ?_Isnil@?$_Tree@V?$_Tmap_traits@KPAVCClientSockE@@U?$less@K@std@@V?$allocator@U?$pair@$$CBKPAVCClientSockE@@@std@@@3@$0A@@std@@@std@@KAAADPAU_Node@?$_Tree_nod@V?$_Tmap_traits@KPAVCClientSockE@@U?$less@K@std@@V?$allocator@U?$pair@$$CBKPAVCClientSockE@@@std@@@3@$0A@@std@@@2@@Z
_TEXT	SEGMENT PARA USE32 PUBLIC 'CODE'
_TEXT	ENDS
;	COMDAT ?erase@?$_Tree@V?$_Tmap_traits@KPAVCClientSockE@@U?$less@K@std@@V?$allocator@U?$pair@$$CBKPAVCClientSockE@@@std@@@3@$0A@@std@@@std@@QAE?AViterator@12@V312@@Z
_TEXT	SEGMENT PARA USE32 PUBLIC 'CODE'
_TEXT	ENDS
;	COMDAT ?clear@?$_Tree@V?$_Tmap_traits@KPAVCClientSockE@@U?$less@K@std@@V?$allocator@U?$pair@$$CBKPAVCClientSockE@@@std@@@3@$0A@@std@@@std@@QAEXXZ
_TEXT	SEGMENT PARA USE32 PUBLIC 'CODE'
_TEXT	ENDS
;	COMDAT ?_Lmost@?$_Tree@V?$_Tmap_traits@KPAVCClientSockE@@U?$less@K@std@@V?$allocator@U?$pair@$$CBKPAVCClientSockE@@@std@@@3@$0A@@std@@@std@@IAEAAPAU_Node@?$_Tree_nod@V?$_Tmap_traits@KPAVCClientSockE@@U?$less@K@std@@V?$allocator@U?$pair@$$CBKPAVCClientSockE@@@std@@@3@$0A@@std@@@2@XZ
_TEXT	SEGMENT PARA USE32 PUBLIC 'CODE'
_TEXT	ENDS
;	COMDAT ?_Rmost@?$_Tree@V?$_Tmap_traits@KPAVCClientSockE@@U?$less@K@std@@V?$allocator@U?$pair@$$CBKPAVCClientSockE@@@std@@@3@$0A@@std@@@std@@IAEAAPAU_Node@?$_Tree_nod@V?$_Tmap_traits@KPAVCClientSockE@@U?$less@K@std@@V?$allocator@U?$pair@$$CBKPAVCClientSockE@@@std@@@3@$0A@@std@@@2@XZ
_TEXT	SEGMENT PARA USE32 PUBLIC 'CODE'
_TEXT	ENDS
;	COMDAT ?_Root@?$_Tree@V?$_Tmap_traits@KPAVCClientSockE@@U?$less@K@std@@V?$allocator@U?$pair@$$CBKPAVCClientSockE@@@std@@@3@$0A@@std@@@std@@IAEAAPAU_Node@?$_Tree_nod@V?$_Tmap_traits@KPAVCClientSockE@@U?$less@K@std@@V?$allocator@U?$pair@$$CBKPAVCClientSockE@@@std@@@3@$0A@@std@@@2@XZ
_TEXT	SEGMENT PARA USE32 PUBLIC 'CODE'
_TEXT	ENDS
;	COMDAT ?_Root@?$_Tree@V?$_Tmap_traits@KPAVCClientSockE@@U?$less@K@std@@V?$allocator@U?$pair@$$CBKPAVCClientSockE@@@std@@@3@$0A@@std@@@std@@IBEAAPAU_Node@?$_Tree_nod@V?$_Tmap_traits@KPAVCClientSockE@@U?$less@K@std@@V?$allocator@U?$pair@$$CBKPAVCClientSockE@@@std@@@3@$0A@@std@@@2@XZ
_TEXT	SEGMENT PARA USE32 PUBLIC 'CODE'
_TEXT	ENDS
;	COMDAT ?_Buynode@?$_Tree@V?$_Tmap_traits@KPAVCClientSockE@@U?$less@K@std@@V?$allocator@U?$pair@$$CBKPAVCClientSockE@@@std@@@3@$0A@@std@@@std@@IAEPAU_Node@?$_Tree_nod@V?$_Tmap_traits@KPAVCClientSockE@@U?$less@K@std@@V?$allocator@U?$pair@$$CBKPAVCClientSockE@@@std@@@3@$0A@@std@@@2@XZ
_TEXT	SEGMENT PARA USE32 PUBLIC 'CODE'
_TEXT	ENDS
;	COMDAT ??0?$_Tree_ptr@V?$_Tmap_traits@KPAVCClientSockE@@U?$less@K@std@@V?$allocator@U?$pair@$$CBKPAVCClientSockE@@@std@@@3@$0A@@std@@@std@@IAE@ABU?$less@K@1@V?$allocator@U?$pair@$$CBKPAVCClientSockE@@@std@@@1@@Z
_TEXT	SEGMENT PARA USE32 PUBLIC 'CODE'
_TEXT	ENDS
;	COMDAT ??Eiterator@?$_Tree@V?$_Tmap_traits@KPAVCClientSockE@@U?$less@K@std@@V?$allocator@U?$pair@$$CBKPAVCClientSockE@@@std@@@3@$0A@@std@@@std@@QAE?AV012@H@Z
_TEXT	SEGMENT PARA USE32 PUBLIC 'CODE'
_TEXT	ENDS
;	COMDAT ?_Isnil@?$_Tree@V?$_Tmap_traits@KP8CDPDatabaseClient@@AEXAAVCAr@@KK@ZU?$less@K@std@@V?$allocator@U?$pair@$$CBKP8CDPDatabaseClient@@AEXAAVCAr@@KK@Z@std@@@4@$0A@@std@@@std@@KAAADPAU_Node@?$_Tree_nod@V?$_Tmap_traits@KP8CDPDatabaseClient@@AEXAAVCAr@@KK@ZU?$less@K@std@@V?$allocator@U?$pair@$$CBKP8CDPDatabaseClient@@AEXAAVCAr@@KK@Z@std@@@4@$0A@@std@@@2@@Z
_TEXT	SEGMENT PARA USE32 PUBLIC 'CODE'
_TEXT	ENDS
;	COMDAT ?_Left@?$_Tree@V?$_Tmap_traits@KP8CDPDatabaseClient@@AEXAAVCAr@@KK@ZU?$less@K@std@@V?$allocator@U?$pair@$$CBKP8CDPDatabaseClient@@AEXAAVCAr@@KK@Z@std@@@4@$0A@@std@@@std@@KAAAPAU_Node@?$_Tree_nod@V?$_Tmap_traits@KP8CDPDatabaseClient@@AEXAAVCAr@@KK@ZU?$less@K@std@@V?$allocator@U?$pair@$$CBKP8CDPDatabaseClient@@AEXAAVCAr@@KK@Z@std@@@4@$0A@@std@@@2@PAU342@@Z
_TEXT	SEGMENT PARA USE32 PUBLIC 'CODE'
_TEXT	ENDS
;	COMDAT ?_Right@?$_Tree@V?$_Tmap_traits@KP8CDPDatabaseClient@@AEXAAVCAr@@KK@ZU?$less@K@std@@V?$allocator@U?$pair@$$CBKP8CDPDatabaseClient@@AEXAAVCAr@@KK@Z@std@@@4@$0A@@std@@@std@@KAAAPAU_Node@?$_Tree_nod@V?$_Tmap_traits@KP8CDPDatabaseClient@@AEXAAVCAr@@KK@ZU?$less@K@std@@V?$allocator@U?$pair@$$CBKP8CDPDatabaseClient@@AEXAAVCAr@@KK@Z@std@@@4@$0A@@std@@@2@PAU342@@Z
_TEXT	SEGMENT PARA USE32 PUBLIC 'CODE'
_TEXT	ENDS
;	COMDAT ?_Root@?$_Tree@V?$_Tmap_traits@KP8CDPDatabaseClient@@AEXAAVCAr@@KK@ZU?$less@K@std@@V?$allocator@U?$pair@$$CBKP8CDPDatabaseClient@@AEXAAVCAr@@KK@Z@std@@@4@$0A@@std@@@std@@IBEAAPAU_Node@?$_Tree_nod@V?$_Tmap_traits@KP8CDPDatabaseClient@@AEXAAVCAr@@KK@ZU?$less@K@std@@V?$allocator@U?$pair@$$CBKP8CDPDatabaseClient@@AEXAAVCAr@@KK@Z@std@@@4@$0A@@std@@@2@XZ
_TEXT	SEGMENT PARA USE32 PUBLIC 'CODE'
_TEXT	ENDS
;	COMDAT ??0const_iterator@?$vector@PAU__JOINPLAYER@CGuildCombat@@V?$allocator@PAU__JOINPLAYER@CGuildCombat@@@std@@@std@@QAE@PAPAU__JOINPLAYER@CGuildCombat@@@Z
_TEXT	SEGMENT PARA USE32 PUBLIC 'CODE'
_TEXT	ENDS
;	COMDAT ??0const_iterator@?$vector@V?$basic_string@DU?$char_traits@D@std@@V?$allocator@D@2@@std@@V?$allocator@V?$basic_string@DU?$char_traits@D@std@@V?$allocator@D@2@@std@@@2@@std@@QAE@PAV?$basic_string@DU?$char_traits@D@std@@V?$allocator@D@2@@2@@Z
_TEXT	SEGMENT PARA USE32 PUBLIC 'CODE'
_TEXT	ENDS
;	COMDAT ??Gconst_iterator@?$vector@V?$basic_string@DU?$char_traits@D@std@@V?$allocator@D@2@@std@@V?$allocator@V?$basic_string@DU?$char_traits@D@std@@V?$allocator@D@2@@std@@@2@@std@@QBEHABV012@@Z
_TEXT	SEGMENT PARA USE32 PUBLIC 'CODE'
_TEXT	ENDS
;	COMDAT ??Yiterator@?$vector@UMINIGMAME_PRIZE_LIST@CRainbowRaceMng@@V?$allocator@UMINIGMAME_PRIZE_LIST@CRainbowRaceMng@@@std@@@std@@QAEAAV012@H@Z
_TEXT	SEGMENT PARA USE32 PUBLIC 'CODE'
_TEXT	ENDS
;	COMDAT ??0const_iterator@?$vector@UMINIGMAME_PRIZE_LIST@CRainbowRaceMng@@V?$allocator@UMINIGMAME_PRIZE_LIST@CRainbowRaceMng@@@std@@@std@@QAE@PAUMINIGMAME_PRIZE_LIST@CRainbowRaceMng@@@Z
_TEXT	SEGMENT PARA USE32 PUBLIC 'CODE'
_TEXT	ENDS
;	COMDAT ??Gconst_iterator@?$vector@UMINIGMAME_PRIZE_LIST@CRainbowRaceMng@@V?$allocator@UMINIGMAME_PRIZE_LIST@CRainbowRaceMng@@@std@@@std@@QBEHABV012@@Z
_TEXT	SEGMENT PARA USE32 PUBLIC 'CODE'
_TEXT	ENDS
;	COMDAT ??0const_iterator@?$vector@PAVCMiniGameBase@@V?$allocator@PAVCMiniGameBase@@@std@@@std@@QAE@PAPAVCMiniGameBase@@@Z
_TEXT	SEGMENT PARA USE32 PUBLIC 'CODE'
_TEXT	ENDS
;	COMDAT ??0const_iterator@?$vector@UGuildHouse_Furniture_Info@CGuildHouseBase@@V?$allocator@UGuildHouse_Furniture_Info@CGuildHouseBase@@@std@@@std@@QAE@PAUGuildHouse_Furniture_Info@CGuildHouseBase@@@Z
_TEXT	SEGMENT PARA USE32 PUBLIC 'CODE'
_TEXT	ENDS
;	COMDAT ??0_Node@?$_Tree_nod@V?$_Tmap_traits@KPAVCGuildHouseBase@@U?$less@K@std@@V?$allocator@U?$pair@$$CBKPAVCGuildHouseBase@@@std@@@3@$0A@@std@@@std@@QAE@PAU012@00ABU?$pair@$$CBKPAVCGuildHouseBase@@@2@D@Z
_TEXT	SEGMENT PARA USE32 PUBLIC 'CODE'
_TEXT	ENDS
;	COMDAT ??0?$_Tree_nod@V?$_Tmap_traits@KHU?$less@K@std@@V?$allocator@U?$pair@$$CBKH@std@@@2@$0A@@std@@@std@@IAE@ABU?$less@K@1@V?$allocator@U?$pair@$$CBKH@std@@@1@@Z
_TEXT	SEGMENT PARA USE32 PUBLIC 'CODE'
_TEXT	ENDS
;	COMDAT ?allocate@?$allocator@U_Node@?$_Tree_nod@V?$_Tmap_traits@KHU?$less@K@std@@V?$allocator@U?$pair@$$CBKH@std@@@2@$0A@@std@@@std@@@std@@QAEPAU_Node@?$_Tree_nod@V?$_Tmap_traits@KHU?$less@K@std@@V?$allocator@U?$pair@$$CBKH@std@@@2@$0A@@std@@@2@I@Z
_TEXT	SEGMENT PARA USE32 PUBLIC 'CODE'
_TEXT	ENDS
;	COMDAT ?construct@?$allocator@PAU_Node@?$_Tree_nod@V?$_Tmap_traits@KHU?$less@K@std@@V?$allocator@U?$pair@$$CBKH@std@@@2@$0A@@std@@@std@@@std@@QAEXPAPAU_Node@?$_Tree_nod@V?$_Tmap_traits@KHU?$less@K@std@@V?$allocator@U?$pair@$$CBKH@std@@@2@$0A@@std@@@2@ABQAU342@@Z
_TEXT	SEGMENT PARA USE32 PUBLIC 'CODE'
_TEXT	ENDS
;	COMDAT ?_Key@?$_Tree@V?$_Tmap_traits@KU_Friend@@U?$less@K@std@@V?$allocator@U?$pair@$$CBKU_Friend@@@std@@@3@$0A@@std@@@std@@KAABKPAU_Node@?$_Tree_nod@V?$_Tmap_traits@KU_Friend@@U?$less@K@std@@V?$allocator@U?$pair@$$CBKU_Friend@@@std@@@3@$0A@@std@@@2@@Z
_TEXT	SEGMENT PARA USE32 PUBLIC 'CODE'
_TEXT	ENDS
;	COMDAT ?_Root@?$_Tree@V?$_Tmap_traits@KU_Friend@@U?$less@K@std@@V?$allocator@U?$pair@$$CBKU_Friend@@@std@@@3@$0A@@std@@@std@@IBEAAPAU_Node@?$_Tree_nod@V?$_Tmap_traits@KU_Friend@@U?$less@K@std@@V?$allocator@U?$pair@$$CBKU_Friend@@@std@@@3@$0A@@std@@@2@XZ
_TEXT	SEGMENT PARA USE32 PUBLIC 'CODE'
_TEXT	ENDS
;	COMDAT ??0const_iterator@?$_Tree@V?$_Tmap_traits@KU_Friend@@U?$less@K@std@@V?$allocator@U?$pair@$$CBKU_Friend@@@std@@@3@$0A@@std@@@std@@QAE@PAU_Node@?$_Tree_nod@V?$_Tmap_traits@KU_Friend@@U?$less@K@std@@V?$allocator@U?$pair@$$CBKU_Friend@@@std@@@3@$0A@@std@@@2@@Z
_TEXT	SEGMENT PARA USE32 PUBLIC 'CODE'
_TEXT	ENDS
;	COMDAT ??Econst_iterator@?$_Tree@V?$_Tmap_traits@KU_Friend@@U?$less@K@std@@V?$allocator@U?$pair@$$CBKU_Friend@@@std@@@3@$0A@@std@@@std@@QAEAAV012@XZ
_TEXT	SEGMENT PARA USE32 PUBLIC 'CODE'
_TEXT	ENDS
;	COMDAT ?max_size@?$allocator@UMINIGMAME_PRIZE_LIST@CRainbowRaceMng@@@std@@QBEIXZ
_TEXT	SEGMENT PARA USE32 PUBLIC 'CODE'
_TEXT	ENDS
;	COMDAT ?_Max@?$_Tree@V?$_Tmap_traits@KPAVCGuildHouseBase@@U?$less@K@std@@V?$allocator@U?$pair@$$CBKPAVCGuildHouseBase@@@std@@@3@$0A@@std@@@std@@KAPAU_Node@?$_Tree_nod@V?$_Tmap_traits@KPAVCGuildHouseBase@@U?$less@K@std@@V?$allocator@U?$pair@$$CBKPAVCGuildHouseBase@@@std@@@3@$0A@@std@@@2@PAU342@@Z
_TEXT	SEGMENT PARA USE32 PUBLIC 'CODE'
_TEXT	ENDS
;	COMDAT ?_Key@?$_Tree@V?$_Tmap_traits@KKU?$less@K@std@@V?$allocator@U?$pair@$$CBKK@std@@@2@$0A@@std@@@std@@KAABKPAU_Node@?$_Tree_nod@V?$_Tmap_traits@KKU?$less@K@std@@V?$allocator@U?$pair@$$CBKK@std@@@2@$0A@@std@@@2@@Z
_TEXT	SEGMENT PARA USE32 PUBLIC 'CODE'
_TEXT	ENDS
;	COMDAT ?_Root@?$_Tree@V?$_Tmap_traits@KKU?$less@K@std@@V?$allocator@U?$pair@$$CBKK@std@@@2@$0A@@std@@@std@@IBEAAPAU_Node@?$_Tree_nod@V?$_Tmap_traits@KKU?$less@K@std@@V?$allocator@U?$pair@$$CBKK@std@@@2@$0A@@std@@@2@XZ
_TEXT	SEGMENT PARA USE32 PUBLIC 'CODE'
_TEXT	ENDS
;	COMDAT ??0const_iterator@?$_Tree@V?$_Tmap_traits@KKU?$less@K@std@@V?$allocator@U?$pair@$$CBKK@std@@@2@$0A@@std@@@std@@QAE@PAU_Node@?$_Tree_nod@V?$_Tmap_traits@KKU?$less@K@std@@V?$allocator@U?$pair@$$CBKK@std@@@2@$0A@@std@@@2@@Z
_TEXT	SEGMENT PARA USE32 PUBLIC 'CODE'
_TEXT	ENDS
;	COMDAT ??Econst_iterator@?$_Tree@V?$_Tmap_traits@KKU?$less@K@std@@V?$allocator@U?$pair@$$CBKK@std@@@2@$0A@@std@@@std@@QAEAAV012@XZ
_TEXT	SEGMENT PARA USE32 PUBLIC 'CODE'
_TEXT	ENDS
;	COMDAT ?_Color@?$_Tree@V?$_Tmap_traits@KPAVCClientSock@@U?$less@K@std@@V?$allocator@U?$pair@$$CBKPAVCClientSock@@@std@@@3@$0A@@std@@@std@@KAAADPAU_Node@?$_Tree_nod@V?$_Tmap_traits@KPAVCClientSock@@U?$less@K@std@@V?$allocator@U?$pair@$$CBKPAVCClientSock@@@std@@@3@$0A@@std@@@2@@Z
_TEXT	SEGMENT PARA USE32 PUBLIC 'CODE'
_TEXT	ENDS
;	COMDAT ?_Erase@?$_Tree@V?$_Tmap_traits@KPAVCClientSock@@U?$less@K@std@@V?$allocator@U?$pair@$$CBKPAVCClientSock@@@std@@@3@$0A@@std@@@std@@IAEXPAU_Node@?$_Tree_nod@V?$_Tmap_traits@KPAVCClientSock@@U?$less@K@std@@V?$allocator@U?$pair@$$CBKPAVCClientSock@@@std@@@3@$0A@@std@@@2@@Z
_TEXT	SEGMENT PARA USE32 PUBLIC 'CODE'
_TEXT	ENDS
;	COMDAT ?_Lrotate@?$_Tree@V?$_Tmap_traits@KPAVCClientSock@@U?$less@K@std@@V?$allocator@U?$pair@$$CBKPAVCClientSock@@@std@@@3@$0A@@std@@@std@@IAEXPAU_Node@?$_Tree_nod@V?$_Tmap_traits@KPAVCClientSock@@U?$less@K@std@@V?$allocator@U?$pair@$$CBKPAVCClientSock@@@std@@@3@$0A@@std@@@2@@Z
_TEXT	SEGMENT PARA USE32 PUBLIC 'CODE'
_TEXT	ENDS
;	COMDAT ?_Max@?$_Tree@V?$_Tmap_traits@KPAVCClientSock@@U?$less@K@std@@V?$allocator@U?$pair@$$CBKPAVCClientSock@@@std@@@3@$0A@@std@@@std@@KAPAU_Node@?$_Tree_nod@V?$_Tmap_traits@KPAVCClientSock@@U?$less@K@std@@V?$allocator@U?$pair@$$CBKPAVCClientSock@@@std@@@3@$0A@@std@@@2@PAU342@@Z
_TEXT	SEGMENT PARA USE32 PUBLIC 'CODE'
_TEXT	ENDS
;	COMDAT ?_Min@?$_Tree@V?$_Tmap_traits@KPAVCClientSock@@U?$less@K@std@@V?$allocator@U?$pair@$$CBKPAVCClientSock@@@std@@@3@$0A@@std@@@std@@KAPAU_Node@?$_Tree_nod@V?$_Tmap_traits@KPAVCClientSock@@U?$less@K@std@@V?$allocator@U?$pair@$$CBKPAVCClientSock@@@std@@@3@$0A@@std@@@2@PAU342@@Z
_TEXT	SEGMENT PARA USE32 PUBLIC 'CODE'
_TEXT	ENDS
;	COMDAT ?_Rrotate@?$_Tree@V?$_Tmap_traits@KPAVCClientSock@@U?$less@K@std@@V?$allocator@U?$pair@$$CBKPAVCClientSock@@@std@@@3@$0A@@std@@@std@@IAEXPAU_Node@?$_Tree_nod@V?$_Tmap_traits@KPAVCClientSock@@U?$less@K@std@@V?$allocator@U?$pair@$$CBKPAVCClientSock@@@std@@@3@$0A@@std@@@2@@Z
_TEXT	SEGMENT PARA USE32 PUBLIC 'CODE'
_TEXT	ENDS
;	COMDAT ??0?$_Tree_nod@V?$_Tmap_traits@KPAVCClientSock@@U?$less@K@std@@V?$allocator@U?$pair@$$CBKPAVCClientSock@@@std@@@3@$0A@@std@@@std@@IAE@ABU?$less@K@1@V?$allocator@U?$pair@$$CBKPAVCClientSock@@@std@@@1@@Z
_TEXT	SEGMENT PARA USE32 PUBLIC 'CODE'
_TEXT	ENDS
;	COMDAT ?allocate@?$allocator@U_Node@?$_Tree_nod@V?$_Tmap_traits@KPAVCClientSock@@U?$less@K@std@@V?$allocator@U?$pair@$$CBKPAVCClientSock@@@std@@@3@$0A@@std@@@std@@@std@@QAEPAU_Node@?$_Tree_nod@V?$_Tmap_traits@KPAVCClientSock@@U?$less@K@std@@V?$allocator@U?$pair@$$CBKPAVCClientSock@@@std@@@3@$0A@@std@@@2@I@Z
_TEXT	SEGMENT PARA USE32 PUBLIC 'CODE'
_TEXT	ENDS
;	COMDAT ?destroy@?$allocator@U_Node@?$_Tree_nod@V?$_Tmap_traits@KPAVCClientSock@@U?$less@K@std@@V?$allocator@U?$pair@$$CBKPAVCClientSock@@@std@@@3@$0A@@std@@@std@@@std@@QAEXPAU_Node@?$_Tree_nod@V?$_Tmap_traits@KPAVCClientSock@@U?$less@K@std@@V?$allocator@U?$pair@$$CBKPAVCClientSock@@@std@@@3@$0A@@std@@@2@@Z
_TEXT	SEGMENT PARA USE32 PUBLIC 'CODE'
_TEXT	ENDS
;	COMDAT ?construct@?$allocator@PAU_Node@?$_Tree_nod@V?$_Tmap_traits@KPAVCClientSock@@U?$less@K@std@@V?$allocator@U?$pair@$$CBKPAVCClientSock@@@std@@@3@$0A@@std@@@std@@@std@@QAEXPAPAU_Node@?$_Tree_nod@V?$_Tmap_traits@KPAVCClientSock@@U?$less@K@std@@V?$allocator@U?$pair@$$CBKPAVCClientSock@@@std@@@3@$0A@@std@@@2@ABQAU342@@Z
_TEXT	SEGMENT PARA USE32 PUBLIC 'CODE'
_TEXT	ENDS
;	COMDAT ??Eiterator@?$_Tree@V?$_Tmap_traits@KPAVCClientSock@@U?$less@K@std@@V?$allocator@U?$pair@$$CBKPAVCClientSock@@@std@@@3@$0A@@std@@@std@@QAEAAV012@XZ
_TEXT	SEGMENT PARA USE32 PUBLIC 'CODE'
_TEXT	ENDS
;	COMDAT ?_Color@?$_Tree@V?$_Tmap_traits@KPAVCClientSockE@@U?$less@K@std@@V?$allocator@U?$pair@$$CBKPAVCClientSockE@@@std@@@3@$0A@@std@@@std@@KAAADPAU_Node@?$_Tree_nod@V?$_Tmap_traits@KPAVCClientSockE@@U?$less@K@std@@V?$allocator@U?$pair@$$CBKPAVCClientSockE@@@std@@@3@$0A@@std@@@2@@Z
_TEXT	SEGMENT PARA USE32 PUBLIC 'CODE'
_TEXT	ENDS
;	COMDAT ?_Erase@?$_Tree@V?$_Tmap_traits@KPAVCClientSockE@@U?$less@K@std@@V?$allocator@U?$pair@$$CBKPAVCClientSockE@@@std@@@3@$0A@@std@@@std@@IAEXPAU_Node@?$_Tree_nod@V?$_Tmap_traits@KPAVCClientSockE@@U?$less@K@std@@V?$allocator@U?$pair@$$CBKPAVCClientSockE@@@std@@@3@$0A@@std@@@2@@Z
_TEXT	SEGMENT PARA USE32 PUBLIC 'CODE'
_TEXT	ENDS
;	COMDAT ?_Lrotate@?$_Tree@V?$_Tmap_traits@KPAVCClientSockE@@U?$less@K@std@@V?$allocator@U?$pair@$$CBKPAVCClientSockE@@@std@@@3@$0A@@std@@@std@@IAEXPAU_Node@?$_Tree_nod@V?$_Tmap_traits@KPAVCClientSockE@@U?$less@K@std@@V?$allocator@U?$pair@$$CBKPAVCClientSockE@@@std@@@3@$0A@@std@@@2@@Z
_TEXT	SEGMENT PARA USE32 PUBLIC 'CODE'
_TEXT	ENDS
;	COMDAT ?_Max@?$_Tree@V?$_Tmap_traits@KPAVCClientSockE@@U?$less@K@std@@V?$allocator@U?$pair@$$CBKPAVCClientSockE@@@std@@@3@$0A@@std@@@std@@KAPAU_Node@?$_Tree_nod@V?$_Tmap_traits@KPAVCClientSockE@@U?$less@K@std@@V?$allocator@U?$pair@$$CBKPAVCClientSockE@@@std@@@3@$0A@@std@@@2@PAU342@@Z
_TEXT	SEGMENT PARA USE32 PUBLIC 'CODE'
_TEXT	ENDS
;	COMDAT ?_Min@?$_Tree@V?$_Tmap_traits@KPAVCClientSockE@@U?$less@K@std@@V?$allocator@U?$pair@$$CBKPAVCClientSockE@@@std@@@3@$0A@@std@@@std@@KAPAU_Node@?$_Tree_nod@V?$_Tmap_traits@KPAVCClientSockE@@U?$less@K@std@@V?$allocator@U?$pair@$$CBKPAVCClientSockE@@@std@@@3@$0A@@std@@@2@PAU342@@Z
_TEXT	SEGMENT PARA USE32 PUBLIC 'CODE'
_TEXT	ENDS
;	COMDAT ?_Rrotate@?$_Tree@V?$_Tmap_traits@KPAVCClientSockE@@U?$less@K@std@@V?$allocator@U?$pair@$$CBKPAVCClientSockE@@@std@@@3@$0A@@std@@@std@@IAEXPAU_Node@?$_Tree_nod@V?$_Tmap_traits@KPAVCClientSockE@@U?$less@K@std@@V?$allocator@U?$pair@$$CBKPAVCClientSockE@@@std@@@3@$0A@@std@@@2@@Z
_TEXT	SEGMENT PARA USE32 PUBLIC 'CODE'
_TEXT	ENDS
;	COMDAT ??0?$_Tree_nod@V?$_Tmap_traits@KPAVCClientSockE@@U?$less@K@std@@V?$allocator@U?$pair@$$CBKPAVCClientSockE@@@std@@@3@$0A@@std@@@std@@IAE@ABU?$less@K@1@V?$allocator@U?$pair@$$CBKPAVCClientSockE@@@std@@@1@@Z
_TEXT	SEGMENT PARA USE32 PUBLIC 'CODE'
_TEXT	ENDS
;	COMDAT ?allocate@?$allocator@U_Node@?$_Tree_nod@V?$_Tmap_traits@KPAVCClientSockE@@U?$less@K@std@@V?$allocator@U?$pair@$$CBKPAVCClientSockE@@@std@@@3@$0A@@std@@@std@@@std@@QAEPAU_Node@?$_Tree_nod@V?$_Tmap_traits@KPAVCClientSockE@@U?$less@K@std@@V?$allocator@U?$pair@$$CBKPAVCClientSockE@@@std@@@3@$0A@@std@@@2@I@Z
_TEXT	SEGMENT PARA USE32 PUBLIC 'CODE'
_TEXT	ENDS
;	COMDAT ?destroy@?$allocator@U_Node@?$_Tree_nod@V?$_Tmap_traits@KPAVCClientSockE@@U?$less@K@std@@V?$allocator@U?$pair@$$CBKPAVCClientSockE@@@std@@@3@$0A@@std@@@std@@@std@@QAEXPAU_Node@?$_Tree_nod@V?$_Tmap_traits@KPAVCClientSockE@@U?$less@K@std@@V?$allocator@U?$pair@$$CBKPAVCClientSockE@@@std@@@3@$0A@@std@@@2@@Z
_TEXT	SEGMENT PARA USE32 PUBLIC 'CODE'
_TEXT	ENDS
;	COMDAT ?construct@?$allocator@PAU_Node@?$_Tree_nod@V?$_Tmap_traits@KPAVCClientSockE@@U?$less@K@std@@V?$allocator@U?$pair@$$CBKPAVCClientSockE@@@std@@@3@$0A@@std@@@std@@@std@@QAEXPAPAU_Node@?$_Tree_nod@V?$_Tmap_traits@KPAVCClientSockE@@U?$less@K@std@@V?$allocator@U?$pair@$$CBKPAVCClientSockE@@@std@@@3@$0A@@std@@@2@ABQAU342@@Z
_TEXT	SEGMENT PARA USE32 PUBLIC 'CODE'
_TEXT	ENDS
;	COMDAT ??Eiterator@?$_Tree@V?$_Tmap_traits@KPAVCClientSockE@@U?$less@K@std@@V?$allocator@U?$pair@$$CBKPAVCClientSockE@@@std@@@3@$0A@@std@@@std@@QAEAAV012@XZ
_TEXT	SEGMENT PARA USE32 PUBLIC 'CODE'
_TEXT	ENDS
;	COMDAT ?_Parent@?$_Tree@V?$_Tmap_traits@KP8CDPDatabaseClient@@AEXAAVCAr@@KK@ZU?$less@K@std@@V?$allocator@U?$pair@$$CBKP8CDPDatabaseClient@@AEXAAVCAr@@KK@Z@std@@@4@$0A@@std@@@std@@KAAAPAU_Node@?$_Tree_nod@V?$_Tmap_traits@KP8CDPDatabaseClient@@AEXAAVCAr@@KK@ZU?$less@K@std@@V?$allocator@U?$pair@$$CBKP8CDPDatabaseClient@@AEXAAVCAr@@KK@Z@std@@@4@$0A@@std@@@2@PAU342@@Z
_TEXT	SEGMENT PARA USE32 PUBLIC 'CODE'
_TEXT	ENDS
;	COMDAT ??0?$_Tmap_traits@KHU?$less@K@std@@V?$allocator@U?$pair@$$CBKH@std@@@2@$0A@@std@@QAE@U?$less@K@1@@Z
_TEXT	SEGMENT PARA USE32 PUBLIC 'CODE'
_TEXT	ENDS
;	COMDAT ?_Myval@?$_Tree@V?$_Tmap_traits@KU_Friend@@U?$less@K@std@@V?$allocator@U?$pair@$$CBKU_Friend@@@std@@@3@$0A@@std@@@std@@KAAAU?$pair@$$CBKU_Friend@@@2@PAU_Node@?$_Tree_nod@V?$_Tmap_traits@KU_Friend@@U?$less@K@std@@V?$allocator@U?$pair@$$CBKU_Friend@@@std@@@3@$0A@@std@@@2@@Z
_TEXT	SEGMENT PARA USE32 PUBLIC 'CODE'
_TEXT	ENDS
;	COMDAT ?_Kfn@?$_Tmap_traits@KU_Friend@@U?$less@K@std@@V?$allocator@U?$pair@$$CBKU_Friend@@@std@@@3@$0A@@std@@SAABKABU?$pair@$$CBKU_Friend@@@2@@Z
_TEXT	SEGMENT PARA USE32 PUBLIC 'CODE'
_TEXT	ENDS
;	COMDAT ?_Inc@const_iterator@?$_Tree@V?$_Tmap_traits@KU_Friend@@U?$less@K@std@@V?$allocator@U?$pair@$$CBKU_Friend@@@std@@@3@$0A@@std@@@std@@QAEXXZ
_TEXT	SEGMENT PARA USE32 PUBLIC 'CODE'
_TEXT	ENDS
;	COMDAT ?_Myval@?$_Tree@V?$_Tmap_traits@KKU?$less@K@std@@V?$allocator@U?$pair@$$CBKK@std@@@2@$0A@@std@@@std@@KAAAU?$pair@$$CBKK@2@PAU_Node@?$_Tree_nod@V?$_Tmap_traits@KKU?$less@K@std@@V?$allocator@U?$pair@$$CBKK@std@@@2@$0A@@std@@@2@@Z
_TEXT	SEGMENT PARA USE32 PUBLIC 'CODE'
_TEXT	ENDS
;	COMDAT ?_Kfn@?$_Tmap_traits@KKU?$less@K@std@@V?$allocator@U?$pair@$$CBKK@std@@@2@$0A@@std@@SAABKABU?$pair@$$CBKK@2@@Z
_TEXT	SEGMENT PARA USE32 PUBLIC 'CODE'
_TEXT	ENDS
;	COMDAT ?_Inc@const_iterator@?$_Tree@V?$_Tmap_traits@KKU?$less@K@std@@V?$allocator@U?$pair@$$CBKK@std@@@2@$0A@@std@@@std@@QAEXXZ
_TEXT	SEGMENT PARA USE32 PUBLIC 'CODE'
_TEXT	ENDS
;	COMDAT ??0?$_Tmap_traits@KPAVCClientSock@@U?$less@K@std@@V?$allocator@U?$pair@$$CBKPAVCClientSock@@@std@@@3@$0A@@std@@QAE@U?$less@K@1@@Z
_TEXT	SEGMENT PARA USE32 PUBLIC 'CODE'
_TEXT	ENDS
;	COMDAT ??Econst_iterator@?$_Tree@V?$_Tmap_traits@KPAVCClientSock@@U?$less@K@std@@V?$allocator@U?$pair@$$CBKPAVCClientSock@@@std@@@3@$0A@@std@@@std@@QAEAAV012@XZ
_TEXT	SEGMENT PARA USE32 PUBLIC 'CODE'
_TEXT	ENDS
;	COMDAT ??0?$_Tmap_traits@KPAVCClientSockE@@U?$less@K@std@@V?$allocator@U?$pair@$$CBKPAVCClientSockE@@@std@@@3@$0A@@std@@QAE@U?$less@K@1@@Z
_TEXT	SEGMENT PARA USE32 PUBLIC 'CODE'
_TEXT	ENDS
;	COMDAT ??Econst_iterator@?$_Tree@V?$_Tmap_traits@KPAVCClientSockE@@U?$less@K@std@@V?$allocator@U?$pair@$$CBKPAVCClientSockE@@@std@@@3@$0A@@std@@@std@@QAEAAV012@XZ
_TEXT	SEGMENT PARA USE32 PUBLIC 'CODE'
_TEXT	ENDS
;	COMDAT ?_Inc@const_iterator@?$_Tree@V?$_Tmap_traits@KPAVCClientSock@@U?$less@K@std@@V?$allocator@U?$pair@$$CBKPAVCClientSock@@@std@@@3@$0A@@std@@@std@@QAEXXZ
_TEXT	SEGMENT PARA USE32 PUBLIC 'CODE'
_TEXT	ENDS
;	COMDAT ?_Inc@const_iterator@?$_Tree@V?$_Tmap_traits@KPAVCClientSockE@@U?$less@K@std@@V?$allocator@U?$pair@$$CBKPAVCClientSockE@@@std@@@3@$0A@@std@@@std@@QAEXXZ
_TEXT	SEGMENT PARA USE32 PUBLIC 'CODE'
_TEXT	ENDS
;	COMDAT ??$_Iter_cat@Vconst_iterator@?$vector@EV?$allocator@E@std@@@std@@@std@@YA?AUrandom_access_iterator_tag@0@ABVconst_iterator@?$vector@EV?$allocator@E@std@@@0@@Z
_TEXT	SEGMENT PARA USE32 PUBLIC 'CODE'
_TEXT	ENDS
;	COMDAT ??$_Assign@Vconst_iterator@?$vector@EV?$allocator@E@std@@@std@@@?$vector@EV?$allocator@E@std@@@std@@QAEXVconst_iterator@01@0Uinput_iterator_tag@1@@Z
_TEXT	SEGMENT PARA USE32 PUBLIC 'CODE'
_TEXT	ENDS
;	COMDAT ??$_Iter_cat@Viterator@?$_Tree@V?$_Tmap_traits@KPAVCUser@@U?$less@K@std@@V?$allocator@U?$pair@$$CBKPAVCUser@@@std@@@3@$0A@@std@@@std@@@std@@YA?AUbidirectional_iterator_tag@0@ABViterator@?$_Tree@V?$_Tmap_traits@KPAVCUser@@U?$less@K@std@@V?$allocator@U?$pair@$$CBKPAVCUser@@@std@@@3@$0A@@std@@@0@@Z
_TEXT	SEGMENT PARA USE32 PUBLIC 'CODE'
_TEXT	ENDS
;	COMDAT ??$_Distance2@Viterator@?$_Tree@V?$_Tmap_traits@KPAVCUser@@U?$less@K@std@@V?$allocator@U?$pair@$$CBKPAVCUser@@@std@@@3@$0A@@std@@@std@@I@std@@YAXViterator@?$_Tree@V?$_Tmap_traits@KPAVCUser@@U?$less@K@std@@V?$allocator@U?$pair@$$CBKPAVCUser@@@std@@@3@$0A@@std@@@0@0AAIUbidirectional_iterator_tag@0@@Z
_TEXT	SEGMENT PARA USE32 PUBLIC 'CODE'
_TEXT	ENDS
;	COMDAT ??$_Iter_cat@Viterator@?$_Tree@V?$_Tmap_traits@KPAVCCtrl@@U?$less@K@std@@V?$allocator@U?$pair@$$CBKPAVCCtrl@@@std@@@3@$0A@@std@@@std@@@std@@YA?AUbidirectional_iterator_tag@0@ABViterator@?$_Tree@V?$_Tmap_traits@KPAVCCtrl@@U?$less@K@std@@V?$allocator@U?$pair@$$CBKPAVCCtrl@@@std@@@3@$0A@@std@@@0@@Z
_TEXT	SEGMENT PARA USE32 PUBLIC 'CODE'
_TEXT	ENDS
;	COMDAT ??$_Distance2@Viterator@?$_Tree@V?$_Tmap_traits@KPAVCCtrl@@U?$less@K@std@@V?$allocator@U?$pair@$$CBKPAVCCtrl@@@std@@@3@$0A@@std@@@std@@I@std@@YAXViterator@?$_Tree@V?$_Tmap_traits@KPAVCCtrl@@U?$less@K@std@@V?$allocator@U?$pair@$$CBKPAVCCtrl@@@std@@@3@$0A@@std@@@0@0AAIUbidirectional_iterator_tag@0@@Z
_TEXT	SEGMENT PARA USE32 PUBLIC 'CODE'
_TEXT	ENDS
;	COMDAT ??$_Uninitialized_copy@Vconst_iterator@?$vector@EV?$allocator@E@std@@@std@@PAEV?$allocator@E@3@@std@@YAPAEVconst_iterator@?$vector@EV?$allocator@E@std@@@0@0PAEAAV?$allocator@E@0@@Z
_TEXT	SEGMENT PARA USE32 PUBLIC 'CODE'
_TEXT	ENDS
;	COMDAT ??$_Iter_cat@Viterator@?$_Tree@V?$_Tmap_traits@KEU?$less@K@std@@V?$allocator@U?$pair@$$CBKE@std@@@2@$0A@@std@@@std@@@std@@YA?AUbidirectional_iterator_tag@0@ABViterator@?$_Tree@V?$_Tmap_traits@KEU?$less@K@std@@V?$allocator@U?$pair@$$CBKE@std@@@2@$0A@@std@@@0@@Z
_TEXT	SEGMENT PARA USE32 PUBLIC 'CODE'
_TEXT	ENDS
;	COMDAT ??$_Distance2@Viterator@?$_Tree@V?$_Tmap_traits@KEU?$less@K@std@@V?$allocator@U?$pair@$$CBKE@std@@@2@$0A@@std@@@std@@I@std@@YAXViterator@?$_Tree@V?$_Tmap_traits@KEU?$less@K@std@@V?$allocator@U?$pair@$$CBKE@std@@@2@$0A@@std@@@0@0AAIUbidirectional_iterator_tag@0@@Z
_TEXT	SEGMENT PARA USE32 PUBLIC 'CODE'
_TEXT	ENDS
;	COMDAT ??$_Ptr_cat@PAU__SPAWNREGION@CEventLua@@PAU12@@std@@YA?AU_Nonscalar_ptr_iterator_tag@0@AAPAU__SPAWNREGION@CEventLua@@0@Z
_TEXT	SEGMENT PARA USE32 PUBLIC 'CODE'
_TEXT	ENDS
;	COMDAT ??$_Uninit_fill_n@PAU__SPAWNREGION@CEventLua@@IU12@V?$allocator@U__SPAWNREGION@CEventLua@@@std@@@std@@YAXPAU__SPAWNREGION@CEventLua@@IABU12@AAV?$allocator@U__SPAWNREGION@CEventLua@@@0@U_Nonscalar_ptr_iterator_tag@0@@Z
_TEXT	SEGMENT PARA USE32 PUBLIC 'CODE'
_TEXT	ENDS
;	COMDAT ??$_Copy_opt@PAJPAJ@std@@YAPAJPAJ00U_Scalar_ptr_iterator_tag@0@@Z
_TEXT	SEGMENT PARA USE32 PUBLIC 'CODE'
_TEXT	ENDS
;	COMDAT ??$_Uninitialized_copy@PAJPAJV?$allocator@J@std@@@std@@YAPAJPAJ00AAV?$allocator@J@0@@Z
_TEXT	SEGMENT PARA USE32 PUBLIC 'CODE'
_TEXT	ENDS
;	COMDAT ??$_Copy_backward_opt@PAJPAJ@std@@YAPAJPAJ00U_Scalar_ptr_iterator_tag@0@@Z
_TEXT	SEGMENT PARA USE32 PUBLIC 'CODE'
_TEXT	ENDS
;	COMDAT ??$_Ptr_cat@PAUtagDROPITEM@@PAU1@@std@@YA?AU_Nonscalar_ptr_iterator_tag@0@AAPAUtagDROPITEM@@0@Z
_TEXT	SEGMENT PARA USE32 PUBLIC 'CODE'
_TEXT	ENDS
;	COMDAT ??$_Destroy_range@UtagDROPITEM@@V?$allocator@UtagDROPITEM@@@std@@@std@@YAXPAUtagDROPITEM@@0AAV?$allocator@UtagDROPITEM@@@0@U_Nonscalar_ptr_iterator_tag@0@@Z
_TEXT	SEGMENT PARA USE32 PUBLIC 'CODE'
_TEXT	ENDS
;	COMDAT ??$_Ptr_cat@PAUWORMON@@PAU1@@std@@YA?AU_Nonscalar_ptr_iterator_tag@0@AAPAUWORMON@@0@Z
_TEXT	SEGMENT PARA USE32 PUBLIC 'CODE'
_TEXT	ENDS
;	COMDAT ??$_Destroy_range@UWORMON@@V?$allocator@UWORMON@@@std@@@std@@YAXPAUWORMON@@0AAV?$allocator@UWORMON@@@0@U_Nonscalar_ptr_iterator_tag@0@@Z
_TEXT	SEGMENT PARA USE32 PUBLIC 'CODE'
_TEXT	ENDS
;	COMDAT ??$_Ptr_cat@PAU__ITEMGAME@CMiniGame@@PAU12@@std@@YA?AU_Nonscalar_ptr_iterator_tag@0@AAPAU__ITEMGAME@CMiniGame@@0@Z
_TEXT	SEGMENT PARA USE32 PUBLIC 'CODE'
_TEXT	ENDS
;	COMDAT ??$_Destroy_range@U__ITEMGAME@CMiniGame@@V?$allocator@U__ITEMGAME@CMiniGame@@@std@@@std@@YAXPAU__ITEMGAME@CMiniGame@@0AAV?$allocator@U__ITEMGAME@CMiniGame@@@0@U_Nonscalar_ptr_iterator_tag@0@@Z
_TEXT	SEGMENT PARA USE32 PUBLIC 'CODE'
_TEXT	ENDS
;	COMDAT ??$_Destroy_range@KV?$allocator@K@std@@@std@@YAXPAK0AAV?$allocator@K@0@U_Scalar_ptr_iterator_tag@0@@Z
_TEXT	SEGMENT PARA USE32 PUBLIC 'CODE'
_TEXT	ENDS
;	COMDAT ??$_Destroy_range@HV?$allocator@H@std@@@std@@YAXPAH0AAV?$allocator@H@0@U_Scalar_ptr_iterator_tag@0@@Z
_TEXT	SEGMENT PARA USE32 PUBLIC 'CODE'
_TEXT	ENDS
;	COMDAT ??$_Ptr_cat@PAU__ITEM@CExchange@@PAU12@@std@@YA?AU_Nonscalar_ptr_iterator_tag@0@AAPAU__ITEM@CExchange@@0@Z
_TEXT	SEGMENT PARA USE32 PUBLIC 'CODE'
_TEXT	ENDS
;	COMDAT ??$_Destroy_range@U__ITEM@CExchange@@V?$allocator@U__ITEM@CExchange@@@std@@@std@@YAXPAU__ITEM@CExchange@@0AAV?$allocator@U__ITEM@CExchange@@@0@U_Nonscalar_ptr_iterator_tag@0@@Z
_TEXT	SEGMENT PARA USE32 PUBLIC 'CODE'
_TEXT	ENDS
;	COMDAT ??$_Ptr_cat@PAU__POINT@CExchange@@PAU12@@std@@YA?AU_Nonscalar_ptr_iterator_tag@0@AAPAU__POINT@CExchange@@0@Z
_TEXT	SEGMENT PARA USE32 PUBLIC 'CODE'
_TEXT	ENDS
;	COMDAT ??$_Destroy_range@U__POINT@CExchange@@V?$allocator@U__POINT@CExchange@@@std@@@std@@YAXPAU__POINT@CExchange@@0AAV?$allocator@U__POINT@CExchange@@@0@U_Nonscalar_ptr_iterator_tag@0@@Z
_TEXT	SEGMENT PARA USE32 PUBLIC 'CODE'
_TEXT	ENDS
;	COMDAT ??$_Destroy_range@EV?$allocator@E@std@@@std@@YAXPAE0AAV?$allocator@E@0@U_Scalar_ptr_iterator_tag@0@@Z
_TEXT	SEGMENT PARA USE32 PUBLIC 'CODE'
_TEXT	ENDS
;	COMDAT ??$_Uninitialized_copy@PAU__SPAWNREGION@CEventLua@@PAU12@V?$allocator@U__SPAWNREGION@CEventLua@@@std@@@std@@YAPAU__SPAWNREGION@CEventLua@@PAU12@00AAV?$allocator@U__SPAWNREGION@CEventLua@@@0@@Z
_TEXT	SEGMENT PARA USE32 PUBLIC 'CODE'
_TEXT	ENDS
;	COMDAT ??$_Copy_backward_opt@PAU__SPAWNREGION@CEventLua@@PAU12@@std@@YAPAU__SPAWNREGION@CEventLua@@PAU12@00U_Nonscalar_ptr_iterator_tag@0@@Z
_TEXT	SEGMENT PARA USE32 PUBLIC 'CODE'
_TEXT	ENDS
;	COMDAT ??$_Ptr_cat@PAUD3DXVECTOR3@@PAU1@@std@@YA?AU_Nonscalar_ptr_iterator_tag@0@AAPAUD3DXVECTOR3@@0@Z
_TEXT	SEGMENT PARA USE32 PUBLIC 'CODE'
_TEXT	ENDS
;	COMDAT ??$_Destroy_range@UD3DXVECTOR3@@V?$allocator@UD3DXVECTOR3@@@std@@@std@@YAXPAUD3DXVECTOR3@@0AAV?$allocator@UD3DXVECTOR3@@@0@U_Nonscalar_ptr_iterator_tag@0@@Z
_TEXT	SEGMENT PARA USE32 PUBLIC 'CODE'
_TEXT	ENDS
;	COMDAT ??$_Ptr_cat@PAU_GIFTBOX@@PAU1@@std@@YA?AU_Nonscalar_ptr_iterator_tag@0@AAPAU_GIFTBOX@@0@Z
_TEXT	SEGMENT PARA USE32 PUBLIC 'CODE'
_TEXT	ENDS
;	COMDAT ??$_Destroy_range@U_GIFTBOX@@V?$allocator@U_GIFTBOX@@@std@@@std@@YAXPAU_GIFTBOX@@0AAV?$allocator@U_GIFTBOX@@@0@U_Nonscalar_ptr_iterator_tag@0@@Z
_TEXT	SEGMENT PARA USE32 PUBLIC 'CODE'
_TEXT	ENDS
;	COMDAT ??$_Destroy_range@JV?$allocator@J@std@@@std@@YAXPAJ0AAV?$allocator@J@0@U_Scalar_ptr_iterator_tag@0@@Z
_TEXT	SEGMENT PARA USE32 PUBLIC 'CODE'
_TEXT	ENDS
;	COMDAT ??$_Uninit_fill_n@JIJ@std@@YAXPAJIABJAAV?$allocator@J@0@U_Scalar_ptr_iterator_tag@0@@Z
_TEXT	SEGMENT PARA USE32 PUBLIC 'CODE'
_TEXT	ENDS
;	COMDAT ??$_Destroy_range@U__SPAWNREGION@CEventLua@@V?$allocator@U__SPAWNREGION@CEventLua@@@std@@@std@@YAXPAU__SPAWNREGION@CEventLua@@0AAV?$allocator@U__SPAWNREGION@CEventLua@@@0@U_Nonscalar_ptr_iterator_tag@0@@Z
_TEXT	SEGMENT PARA USE32 PUBLIC 'CODE'
_TEXT	ENDS
;	COMDAT ??$make_pair@KPAVCGuildHouseBase@@@std@@YA?AU?$pair@KPAVCGuildHouseBase@@@0@KPAVCGuildHouseBase@@@Z
_TEXT	SEGMENT PARA USE32 PUBLIC 'CODE'
_TEXT	ENDS
;	COMDAT ??$?0KPAVCGuildHouseBase@@@?$pair@$$CBKPAVCGuildHouseBase@@@std@@QAE@ABU?$pair@KPAVCGuildHouseBase@@@1@@Z
_TEXT	SEGMENT PARA USE32 PUBLIC 'CODE'
_TEXT	ENDS
;	COMDAT ??$_Distance@Viterator@?$_Tree@V?$_Tmap_traits@KU_Friend@@U?$less@K@std@@V?$allocator@U?$pair@$$CBKU_Friend@@@std@@@3@$0A@@std@@@std@@I@std@@YAXViterator@?$_Tree@V?$_Tmap_traits@KU_Friend@@U?$less@K@std@@V?$allocator@U?$pair@$$CBKU_Friend@@@std@@@3@$0A@@std@@@0@0AAI@Z
_TEXT	SEGMENT PARA USE32 PUBLIC 'CODE'
_TEXT	ENDS
;	COMDAT ??$_Distance@Viterator@?$_Tree@V?$_Tmap_traits@KKU?$less@K@std@@V?$allocator@U?$pair@$$CBKK@std@@@2@$0A@@std@@@std@@I@std@@YAXViterator@?$_Tree@V?$_Tmap_traits@KKU?$less@K@std@@V?$allocator@U?$pair@$$CBKK@std@@@2@$0A@@std@@@0@0AAI@Z
_TEXT	SEGMENT PARA USE32 PUBLIC 'CODE'
_TEXT	ENDS
;	COMDAT ??$_Destroy@U_Node@?$_List_nod@PAU__JOINPLAYER@CGuildCombat@@V?$allocator@PAU__JOINPLAYER@CGuildCombat@@@std@@@std@@@std@@YAXPAU_Node@?$_List_nod@PAU__JOINPLAYER@CGuildCombat@@V?$allocator@PAU__JOINPLAYER@CGuildCombat@@@std@@@0@@Z
_TEXT	SEGMENT PARA USE32 PUBLIC 'CODE'
_TEXT	ENDS
;	COMDAT ??$_Uninitialized_fill_n@PAV?$basic_string@DU?$char_traits@D@std@@V?$allocator@D@2@@std@@IV12@V?$allocator@V?$basic_string@DU?$char_traits@D@std@@V?$allocator@D@2@@std@@@2@@std@@YAXPAV?$basic_string@DU?$char_traits@D@std@@V?$allocator@D@2@@0@IABV10@AAV?$allocator@V?$basic_string@DU?$char_traits@D@std@@V?$allocator@D@2@@std@@@0@@Z
_TEXT	SEGMENT PARA USE32 PUBLIC 'CODE'
_TEXT	ENDS
;	COMDAT ??$_Uninitialized_fill_n@PAUMINIGMAME_PRIZE_LIST@CRainbowRaceMng@@IU12@V?$allocator@UMINIGMAME_PRIZE_LIST@CRainbowRaceMng@@@std@@@std@@YAXPAUMINIGMAME_PRIZE_LIST@CRainbowRaceMng@@IABU12@AAV?$allocator@UMINIGMAME_PRIZE_LIST@CRainbowRaceMng@@@0@@Z
_TEXT	SEGMENT PARA USE32 PUBLIC 'CODE'
_TEXT	ENDS
;	COMDAT ??$_Allocate@V?$basic_string@DU?$char_traits@D@std@@V?$allocator@D@2@@std@@@std@@YAPAV?$basic_string@DU?$char_traits@D@std@@V?$allocator@D@2@@0@IPAV10@@Z
_TEXT	SEGMENT PARA USE32 PUBLIC 'CODE'
_TEXT	ENDS
;	COMDAT ??$?0PAUtagACTMSG@@@?$allocator@PAPAUtagACTMSG@@@std@@QAE@ABV?$allocator@PAUtagACTMSG@@@1@@Z
_TEXT	SEGMENT PARA USE32 PUBLIC 'CODE'
_TEXT	ENDS
;	COMDAT ??$_Destroy@PAPAUtagACTMSG@@@std@@YAXPAPAPAUtagACTMSG@@@Z
_TEXT	SEGMENT PARA USE32 PUBLIC 'CODE'
_TEXT	ENDS
;	COMDAT ??$?0PAUtagMAGICATKMSG@@@?$allocator@PAPAUtagMAGICATKMSG@@@std@@QAE@ABV?$allocator@PAUtagMAGICATKMSG@@@1@@Z
_TEXT	SEGMENT PARA USE32 PUBLIC 'CODE'
_TEXT	ENDS
;	COMDAT ??$_Destroy@PAPAUtagMAGICATKMSG@@@std@@YAXPAPAPAUtagMAGICATKMSG@@@Z
_TEXT	SEGMENT PARA USE32 PUBLIC 'CODE'
_TEXT	ENDS
;	COMDAT ??$_Destroy_range@PAU__JOINPLAYER@CGuildCombat@@V?$allocator@PAU__JOINPLAYER@CGuildCombat@@@std@@@std@@YAXPAPAU__JOINPLAYER@CGuildCombat@@0AAV?$allocator@PAU__JOINPLAYER@CGuildCombat@@@0@@Z
_TEXT	SEGMENT PARA USE32 PUBLIC 'CODE'
_TEXT	ENDS
;	COMDAT ??$_Destroy_range@U__SECRETROOM_MONSTER@@V?$allocator@U__SECRETROOM_MONSTER@@@std@@@std@@YAXPAU__SECRETROOM_MONSTER@@0AAV?$allocator@U__SECRETROOM_MONSTER@@@0@@Z
_TEXT	SEGMENT PARA USE32 PUBLIC 'CODE'
_TEXT	ENDS
;	COMDAT ??$_Allocate@U__SECRETROOM_MONSTER@@@std@@YAPAU__SECRETROOM_MONSTER@@IPAU1@@Z
_TEXT	SEGMENT PARA USE32 PUBLIC 'CODE'
_TEXT	ENDS
;	COMDAT ??$_Destroy_range@V?$basic_string@DU?$char_traits@D@std@@V?$allocator@D@2@@std@@V?$allocator@V?$basic_string@DU?$char_traits@D@std@@V?$allocator@D@2@@std@@@2@@std@@YAXPAV?$basic_string@DU?$char_traits@D@std@@V?$allocator@D@2@@0@0AAV?$allocator@V?$basic_string@DU?$char_traits@D@std@@V?$allocator@D@2@@std@@@0@@Z
_TEXT	SEGMENT PARA USE32 PUBLIC 'CODE'
_TEXT	ENDS
;	COMDAT ??$_Ucopy@PAV?$basic_string@DU?$char_traits@D@std@@V?$allocator@D@2@@std@@@?$vector@V?$basic_string@DU?$char_traits@D@std@@V?$allocator@D@2@@std@@V?$allocator@V?$basic_string@DU?$char_traits@D@std@@V?$allocator@D@2@@std@@@2@@std@@IAEPAV?$basic_string@DU?$char_traits@D@std@@V?$allocator@D@2@@1@PAV21@00@Z
_TEXT	SEGMENT PARA USE32 PUBLIC 'CODE'
_TEXT	ENDS
;	COMDAT ??$fill@PAV?$basic_string@DU?$char_traits@D@std@@V?$allocator@D@2@@std@@V12@@std@@YAXPAV?$basic_string@DU?$char_traits@D@std@@V?$allocator@D@2@@0@0ABV10@@Z
_TEXT	SEGMENT PARA USE32 PUBLIC 'CODE'
_TEXT	ENDS
;	COMDAT ??$copy_backward@PAV?$basic_string@DU?$char_traits@D@std@@V?$allocator@D@2@@std@@PAV12@@std@@YAPAV?$basic_string@DU?$char_traits@D@std@@V?$allocator@D@2@@0@PAV10@00@Z
_TEXT	SEGMENT PARA USE32 PUBLIC 'CODE'
_TEXT	ENDS
;	COMDAT ??$_Ucopy@PAUMINIGMAME_PRIZE_LIST@CRainbowRaceMng@@@?$vector@UMINIGMAME_PRIZE_LIST@CRainbowRaceMng@@V?$allocator@UMINIGMAME_PRIZE_LIST@CRainbowRaceMng@@@std@@@std@@IAEPAUMINIGMAME_PRIZE_LIST@CRainbowRaceMng@@PAU23@00@Z
_TEXT	SEGMENT PARA USE32 PUBLIC 'CODE'
_TEXT	ENDS
;	COMDAT ??$fill@PAUMINIGMAME_PRIZE_LIST@CRainbowRaceMng@@U12@@std@@YAXPAUMINIGMAME_PRIZE_LIST@CRainbowRaceMng@@0ABU12@@Z
_TEXT	SEGMENT PARA USE32 PUBLIC 'CODE'
_TEXT	ENDS
;	COMDAT ??$copy_backward@PAUMINIGMAME_PRIZE_LIST@CRainbowRaceMng@@PAU12@@std@@YAPAUMINIGMAME_PRIZE_LIST@CRainbowRaceMng@@PAU12@00@Z
_TEXT	SEGMENT PARA USE32 PUBLIC 'CODE'
_TEXT	ENDS
;	COMDAT ??$_Destroy@PAU_Node@?$_Tree_nod@V?$_Tmap_traits@KPAVCClientSock@@U?$less@K@std@@V?$allocator@U?$pair@$$CBKPAVCClientSock@@@std@@@3@$0A@@std@@@std@@@std@@YAXPAPAU_Node@?$_Tree_nod@V?$_Tmap_traits@KPAVCClientSock@@U?$less@K@std@@V?$allocator@U?$pair@$$CBKPAVCClientSock@@@std@@@3@$0A@@std@@@0@@Z
_TEXT	SEGMENT PARA USE32 PUBLIC 'CODE'
_TEXT	ENDS
;	COMDAT ??$_Destroy@PAU_Node@?$_Tree_nod@V?$_Tmap_traits@KPAVCClientSockE@@U?$less@K@std@@V?$allocator@U?$pair@$$CBKPAVCClientSockE@@@std@@@3@$0A@@std@@@std@@@std@@YAXPAPAU_Node@?$_Tree_nod@V?$_Tmap_traits@KPAVCClientSockE@@U?$less@K@std@@V?$allocator@U?$pair@$$CBKPAVCClientSockE@@@std@@@3@$0A@@std@@@0@@Z
_TEXT	SEGMENT PARA USE32 PUBLIC 'CODE'
_TEXT	ENDS
;	COMDAT ??$?0U?$pair@$$CBKH@std@@@?$allocator@PAU_Node@?$_Tree_nod@V?$_Tmap_traits@KHU?$less@K@std@@V?$allocator@U?$pair@$$CBKH@std@@@2@$0A@@std@@@std@@@std@@QAE@ABV?$allocator@U?$pair@$$CBKH@std@@@1@@Z
_TEXT	SEGMENT PARA USE32 PUBLIC 'CODE'
_TEXT	ENDS
;	COMDAT ??$_Destroy@PAUtagACTMSG@@@std@@YAXPAPAUtagACTMSG@@@Z
_TEXT	SEGMENT PARA USE32 PUBLIC 'CODE'
_TEXT	ENDS
;	COMDAT ??$_Destroy@PAUtagMAGICATKMSG@@@std@@YAXPAPAUtagMAGICATKMSG@@@Z
_TEXT	SEGMENT PARA USE32 PUBLIC 'CODE'
_TEXT	ENDS
;	COMDAT ??$_Destroy@U_Node@?$_Tree_nod@V?$_Tmap_traits@KU_Friend@@U?$less@K@std@@V?$allocator@U?$pair@$$CBKU_Friend@@@std@@@3@$0A@@std@@@std@@@std@@YAXPAU_Node@?$_Tree_nod@V?$_Tmap_traits@KU_Friend@@U?$less@K@std@@V?$allocator@U?$pair@$$CBKU_Friend@@@std@@@3@$0A@@std@@@0@@Z
_TEXT	SEGMENT PARA USE32 PUBLIC 'CODE'
_TEXT	ENDS
;	COMDAT ??$_Destroy_range@UMINIGMAME_PRIZE_LIST@CRainbowRaceMng@@V?$allocator@UMINIGMAME_PRIZE_LIST@CRainbowRaceMng@@@std@@@std@@YAXPAUMINIGMAME_PRIZE_LIST@CRainbowRaceMng@@0AAV?$allocator@UMINIGMAME_PRIZE_LIST@CRainbowRaceMng@@@0@@Z
_TEXT	SEGMENT PARA USE32 PUBLIC 'CODE'
_TEXT	ENDS
;	COMDAT ??$_Allocate@UMINIGMAME_PRIZE_LIST@CRainbowRaceMng@@@std@@YAPAUMINIGMAME_PRIZE_LIST@CRainbowRaceMng@@IPAU12@@Z
_TEXT	SEGMENT PARA USE32 PUBLIC 'CODE'
_TEXT	ENDS
;	COMDAT ??$_Allocate@U_Node@?$_Tree_nod@V?$_Tmap_traits@KPAVCGuildHouseBase@@U?$less@K@std@@V?$allocator@U?$pair@$$CBKPAVCGuildHouseBase@@@std@@@3@$0A@@std@@@std@@@std@@YAPAU_Node@?$_Tree_nod@V?$_Tmap_traits@KPAVCGuildHouseBase@@U?$less@K@std@@V?$allocator@U?$pair@$$CBKPAVCGuildHouseBase@@@std@@@3@$0A@@std@@@0@IPAU120@@Z
_TEXT	SEGMENT PARA USE32 PUBLIC 'CODE'
_TEXT	ENDS
;	COMDAT ??$_Destroy@U_Node@?$_Tree_nod@V?$_Tmap_traits@KKU?$less@K@std@@V?$allocator@U?$pair@$$CBKK@std@@@2@$0A@@std@@@std@@@std@@YAXPAU_Node@?$_Tree_nod@V?$_Tmap_traits@KKU?$less@K@std@@V?$allocator@U?$pair@$$CBKK@std@@@2@$0A@@std@@@0@@Z
_TEXT	SEGMENT PARA USE32 PUBLIC 'CODE'
_TEXT	ENDS
;	COMDAT ??$?0U?$pair@$$CBKPAVCClientSock@@@std@@@?$allocator@PAU_Node@?$_Tree_nod@V?$_Tmap_traits@KPAVCClientSock@@U?$less@K@std@@V?$allocator@U?$pair@$$CBKPAVCClientSock@@@std@@@3@$0A@@std@@@std@@@std@@QAE@ABV?$allocator@U?$pair@$$CBKPAVCClientSock@@@std@@@1@@Z
_TEXT	SEGMENT PARA USE32 PUBLIC 'CODE'
_TEXT	ENDS
;	COMDAT ??$?0U?$pair@$$CBKPAVCClientSockE@@@std@@@?$allocator@PAU_Node@?$_Tree_nod@V?$_Tmap_traits@KPAVCClientSockE@@U?$less@K@std@@V?$allocator@U?$pair@$$CBKPAVCClientSockE@@@std@@@3@$0A@@std@@@std@@@std@@QAE@ABV?$allocator@U?$pair@$$CBKPAVCClientSockE@@@std@@@1@@Z
_TEXT	SEGMENT PARA USE32 PUBLIC 'CODE'
_TEXT	ENDS
;	COMDAT ??$?0U?$pair@$$CBKH@std@@@?$allocator@U_Node@?$_Tree_nod@V?$_Tmap_traits@KHU?$less@K@std@@V?$allocator@U?$pair@$$CBKH@std@@@2@$0A@@std@@@std@@@std@@QAE@ABV?$allocator@U?$pair@$$CBKH@std@@@1@@Z
_TEXT	SEGMENT PARA USE32 PUBLIC 'CODE'
_TEXT	ENDS
;	COMDAT ??$_Allocate@U_Node@?$_Tree_nod@V?$_Tmap_traits@KHU?$less@K@std@@V?$allocator@U?$pair@$$CBKH@std@@@2@$0A@@std@@@std@@@std@@YAPAU_Node@?$_Tree_nod@V?$_Tmap_traits@KHU?$less@K@std@@V?$allocator@U?$pair@$$CBKH@std@@@2@$0A@@std@@@0@IPAU120@@Z
_TEXT	SEGMENT PARA USE32 PUBLIC 'CODE'
_TEXT	ENDS
;	COMDAT ??$_Construct@PAU_Node@?$_Tree_nod@V?$_Tmap_traits@KHU?$less@K@std@@V?$allocator@U?$pair@$$CBKH@std@@@2@$0A@@std@@@std@@PAU123@@std@@YAXPAPAU_Node@?$_Tree_nod@V?$_Tmap_traits@KHU?$less@K@std@@V?$allocator@U?$pair@$$CBKH@std@@@2@$0A@@std@@@0@ABQAU120@@Z
_TEXT	SEGMENT PARA USE32 PUBLIC 'CODE'
_TEXT	ENDS
;	COMDAT ??$?0U?$pair@$$CBKPAVCClientSock@@@std@@@?$allocator@U_Node@?$_Tree_nod@V?$_Tmap_traits@KPAVCClientSock@@U?$less@K@std@@V?$allocator@U?$pair@$$CBKPAVCClientSock@@@std@@@3@$0A@@std@@@std@@@std@@QAE@ABV?$allocator@U?$pair@$$CBKPAVCClientSock@@@std@@@1@@Z
_TEXT	SEGMENT PARA USE32 PUBLIC 'CODE'
_TEXT	ENDS
;	COMDAT ??$_Allocate@U_Node@?$_Tree_nod@V?$_Tmap_traits@KPAVCClientSock@@U?$less@K@std@@V?$allocator@U?$pair@$$CBKPAVCClientSock@@@std@@@3@$0A@@std@@@std@@@std@@YAPAU_Node@?$_Tree_nod@V?$_Tmap_traits@KPAVCClientSock@@U?$less@K@std@@V?$allocator@U?$pair@$$CBKPAVCClientSock@@@std@@@3@$0A@@std@@@0@IPAU120@@Z
_TEXT	SEGMENT PARA USE32 PUBLIC 'CODE'
_TEXT	ENDS
;	COMDAT ??$_Destroy@U_Node@?$_Tree_nod@V?$_Tmap_traits@KPAVCClientSock@@U?$less@K@std@@V?$allocator@U?$pair@$$CBKPAVCClientSock@@@std@@@3@$0A@@std@@@std@@@std@@YAXPAU_Node@?$_Tree_nod@V?$_Tmap_traits@KPAVCClientSock@@U?$less@K@std@@V?$allocator@U?$pair@$$CBKPAVCClientSock@@@std@@@3@$0A@@std@@@0@@Z
_TEXT	SEGMENT PARA USE32 PUBLIC 'CODE'
_TEXT	ENDS
;	COMDAT ??$_Construct@PAU_Node@?$_Tree_nod@V?$_Tmap_traits@KPAVCClientSock@@U?$less@K@std@@V?$allocator@U?$pair@$$CBKPAVCClientSock@@@std@@@3@$0A@@std@@@std@@PAU123@@std@@YAXPAPAU_Node@?$_Tree_nod@V?$_Tmap_traits@KPAVCClientSock@@U?$less@K@std@@V?$allocator@U?$pair@$$CBKPAVCClientSock@@@std@@@3@$0A@@std@@@0@ABQAU120@@Z
_TEXT	SEGMENT PARA USE32 PUBLIC 'CODE'
_TEXT	ENDS
;	COMDAT ??$?0U?$pair@$$CBKPAVCClientSockE@@@std@@@?$allocator@U_Node@?$_Tree_nod@V?$_Tmap_traits@KPAVCClientSockE@@U?$less@K@std@@V?$allocator@U?$pair@$$CBKPAVCClientSockE@@@std@@@3@$0A@@std@@@std@@@std@@QAE@ABV?$allocator@U?$pair@$$CBKPAVCClientSockE@@@std@@@1@@Z
_TEXT	SEGMENT PARA USE32 PUBLIC 'CODE'
_TEXT	ENDS
;	COMDAT ??$_Allocate@U_Node@?$_Tree_nod@V?$_Tmap_traits@KPAVCClientSockE@@U?$less@K@std@@V?$allocator@U?$pair@$$CBKPAVCClientSockE@@@std@@@3@$0A@@std@@@std@@@std@@YAPAU_Node@?$_Tree_nod@V?$_Tmap_traits@KPAVCClientSockE@@U?$less@K@std@@V?$allocator@U?$pair@$$CBKPAVCClientSockE@@@std@@@3@$0A@@std@@@0@IPAU120@@Z
_TEXT	SEGMENT PARA USE32 PUBLIC 'CODE'
_TEXT	ENDS
;	COMDAT ??$_Destroy@U_Node@?$_Tree_nod@V?$_Tmap_traits@KPAVCClientSockE@@U?$less@K@std@@V?$allocator@U?$pair@$$CBKPAVCClientSockE@@@std@@@3@$0A@@std@@@std@@@std@@YAXPAU_Node@?$_Tree_nod@V?$_Tmap_traits@KPAVCClientSockE@@U?$less@K@std@@V?$allocator@U?$pair@$$CBKPAVCClientSockE@@@std@@@3@$0A@@std@@@0@@Z
_TEXT	SEGMENT PARA USE32 PUBLIC 'CODE'
_TEXT	ENDS
;	COMDAT ??$_Construct@PAU_Node@?$_Tree_nod@V?$_Tmap_traits@KPAVCClientSockE@@U?$less@K@std@@V?$allocator@U?$pair@$$CBKPAVCClientSockE@@@std@@@3@$0A@@std@@@std@@PAU123@@std@@YAXPAPAU_Node@?$_Tree_nod@V?$_Tmap_traits@KPAVCClientSockE@@U?$less@K@std@@V?$allocator@U?$pair@$$CBKPAVCClientSockE@@@std@@@3@$0A@@std@@@0@ABQAU120@@Z
_TEXT	SEGMENT PARA USE32 PUBLIC 'CODE'
_TEXT	ENDS
;	COMDAT ?destroy@?$allocator@UtagDROPITEM@@@std@@QAEXPAUtagDROPITEM@@@Z
_TEXT	SEGMENT PARA USE32 PUBLIC 'CODE'
_TEXT	ENDS
;	COMDAT ?destroy@?$allocator@UWORMON@@@std@@QAEXPAUWORMON@@@Z
_TEXT	SEGMENT PARA USE32 PUBLIC 'CODE'
_TEXT	ENDS
;	COMDAT ?destroy@?$allocator@U__ITEMGAME@CMiniGame@@@std@@QAEXPAU__ITEMGAME@CMiniGame@@@Z
_TEXT	SEGMENT PARA USE32 PUBLIC 'CODE'
_TEXT	ENDS
;	COMDAT ?destroy@?$allocator@U__ITEM@CExchange@@@std@@QAEXPAU__ITEM@CExchange@@@Z
_TEXT	SEGMENT PARA USE32 PUBLIC 'CODE'
_TEXT	ENDS
;	COMDAT ?destroy@?$allocator@U__POINT@CExchange@@@std@@QAEXPAU__POINT@CExchange@@@Z
_TEXT	SEGMENT PARA USE32 PUBLIC 'CODE'
_TEXT	ENDS
;	COMDAT ?begin@?$vector@EV?$allocator@E@std@@@std@@QAE?AViterator@12@XZ
_TEXT	SEGMENT PARA USE32 PUBLIC 'CODE'
_TEXT	ENDS
;	COMDAT ?end@?$vector@EV?$allocator@E@std@@@std@@QAE?AViterator@12@XZ
_TEXT	SEGMENT PARA USE32 PUBLIC 'CODE'
_TEXT	ENDS
;	COMDAT ?erase@?$vector@EV?$allocator@E@std@@@std@@QAE?AViterator@12@V312@0@Z
_TEXT	SEGMENT PARA USE32 PUBLIC 'CODE'
_TEXT	ENDS
;	COMDAT ?construct@?$allocator@U__SPAWNREGION@CEventLua@@@std@@QAEXPAU__SPAWNREGION@CEventLua@@ABU34@@Z
_TEXT	SEGMENT PARA USE32 PUBLIC 'CODE'
_TEXT	ENDS
;	COMDAT ?destroy@?$allocator@U__SPAWNREGION@CEventLua@@@std@@QAEXPAU__SPAWNREGION@CEventLua@@@Z
_TEXT	SEGMENT PARA USE32 PUBLIC 'CODE'
_TEXT	ENDS
;	COMDAT ?destroy@?$allocator@UD3DXVECTOR3@@@std@@QAEXPAUD3DXVECTOR3@@@Z
_TEXT	SEGMENT PARA USE32 PUBLIC 'CODE'
_TEXT	ENDS
;	COMDAT ?destroy@?$allocator@U_GIFTBOX@@@std@@QAEXPAU_GIFTBOX@@@Z
_TEXT	SEGMENT PARA USE32 PUBLIC 'CODE'
_TEXT	ENDS
;	COMDAT ??0?$pair@KPAVCGuildHouseBase@@@std@@QAE@ABKABQAVCGuildHouseBase@@@Z
_TEXT	SEGMENT PARA USE32 PUBLIC 'CODE'
_TEXT	ENDS
;	COMDAT ??9const_iterator@?$vector@EV?$allocator@E@std@@@std@@QBE_NABV012@@Z
_TEXT	SEGMENT PARA USE32 PUBLIC 'CODE'
_TEXT	ENDS
;	COMDAT ??0iterator@?$vector@EV?$allocator@E@std@@@std@@QAE@PAE@Z
_TEXT	SEGMENT PARA USE32 PUBLIC 'CODE'
_TEXT	ENDS
;	COMDAT ??8const_iterator@?$vector@EV?$allocator@E@std@@@std@@QBE_NABV012@@Z
_TEXT	SEGMENT PARA USE32 PUBLIC 'CODE'
_TEXT	ENDS
;	COMDAT ??$insert@Vconst_iterator@?$vector@EV?$allocator@E@std@@@std@@@?$vector@EV?$allocator@E@std@@@std@@QAEXViterator@01@Vconst_iterator@01@1@Z
_TEXT	SEGMENT PARA USE32 PUBLIC 'CODE'
_TEXT	ENDS
;	COMDAT ??$_Ptr_cat@Vconst_iterator@?$vector@EV?$allocator@E@std@@@std@@PAE@std@@YA?AU_Nonscalar_ptr_iterator_tag@0@AAVconst_iterator@?$vector@EV?$allocator@E@std@@@0@AAPAE@Z
_TEXT	SEGMENT PARA USE32 PUBLIC 'CODE'
_TEXT	ENDS
;	COMDAT ??$_Uninit_copy@Vconst_iterator@?$vector@EV?$allocator@E@std@@@std@@PAEV?$allocator@E@3@@std@@YAPAEVconst_iterator@?$vector@EV?$allocator@E@std@@@0@0PAEAAV?$allocator@E@0@U_Nonscalar_ptr_iterator_tag@0@@Z
_TEXT	SEGMENT PARA USE32 PUBLIC 'CODE'
_TEXT	ENDS
;	COMDAT ??$_Uninit_copy@JJ@std@@YAPAJPAJ00AAV?$allocator@J@0@U_Scalar_ptr_iterator_tag@0@@Z
_TEXT	SEGMENT PARA USE32 PUBLIC 'CODE'
_TEXT	ENDS
;	COMDAT ??$_Uninit_copy@PAU__SPAWNREGION@CEventLua@@PAU12@V?$allocator@U__SPAWNREGION@CEventLua@@@std@@@std@@YAPAU__SPAWNREGION@CEventLua@@PAU12@00AAV?$allocator@U__SPAWNREGION@CEventLua@@@0@U_Nonscalar_ptr_iterator_tag@0@@Z
_TEXT	SEGMENT PARA USE32 PUBLIC 'CODE'
_TEXT	ENDS
;	COMDAT ??$fill_n@PAJIJ@std@@YAXPAJIABJ@Z
_TEXT	SEGMENT PARA USE32 PUBLIC 'CODE'
_TEXT	ENDS
;	COMDAT ??$_Iter_cat@Viterator@?$_Tree@V?$_Tmap_traits@KU_Friend@@U?$less@K@std@@V?$allocator@U?$pair@$$CBKU_Friend@@@std@@@3@$0A@@std@@@std@@@std@@YA?AUbidirectional_iterator_tag@0@ABViterator@?$_Tree@V?$_Tmap_traits@KU_Friend@@U?$less@K@std@@V?$allocator@U?$pair@$$CBKU_Friend@@@std@@@3@$0A@@std@@@0@@Z
_TEXT	SEGMENT PARA USE32 PUBLIC 'CODE'
_TEXT	ENDS
;	COMDAT ??$_Distance2@Viterator@?$_Tree@V?$_Tmap_traits@KU_Friend@@U?$less@K@std@@V?$allocator@U?$pair@$$CBKU_Friend@@@std@@@3@$0A@@std@@@std@@I@std@@YAXViterator@?$_Tree@V?$_Tmap_traits@KU_Friend@@U?$less@K@std@@V?$allocator@U?$pair@$$CBKU_Friend@@@std@@@3@$0A@@std@@@0@0AAIUbidirectional_iterator_tag@0@@Z
_TEXT	SEGMENT PARA USE32 PUBLIC 'CODE'
_TEXT	ENDS
;	COMDAT ??$_Iter_cat@Viterator@?$_Tree@V?$_Tmap_traits@KKU?$less@K@std@@V?$allocator@U?$pair@$$CBKK@std@@@2@$0A@@std@@@std@@@std@@YA?AUbidirectional_iterator_tag@0@ABViterator@?$_Tree@V?$_Tmap_traits@KKU?$less@K@std@@V?$allocator@U?$pair@$$CBKK@std@@@2@$0A@@std@@@0@@Z
_TEXT	SEGMENT PARA USE32 PUBLIC 'CODE'
_TEXT	ENDS
;	COMDAT ??$_Distance2@Viterator@?$_Tree@V?$_Tmap_traits@KKU?$less@K@std@@V?$allocator@U?$pair@$$CBKK@std@@@2@$0A@@std@@@std@@I@std@@YAXViterator@?$_Tree@V?$_Tmap_traits@KKU?$less@K@std@@V?$allocator@U?$pair@$$CBKK@std@@@2@$0A@@std@@@0@0AAIUbidirectional_iterator_tag@0@@Z
_TEXT	SEGMENT PARA USE32 PUBLIC 'CODE'
_TEXT	ENDS
;	COMDAT ??$_Ptr_cat@PAV?$basic_string@DU?$char_traits@D@std@@V?$allocator@D@2@@std@@PAV12@@std@@YA?AU_Nonscalar_ptr_iterator_tag@0@AAPAV?$basic_string@DU?$char_traits@D@std@@V?$allocator@D@2@@0@0@Z
_TEXT	SEGMENT PARA USE32 PUBLIC 'CODE'
_TEXT	ENDS
;	COMDAT ??$_Uninit_fill_n@PAV?$basic_string@DU?$char_traits@D@std@@V?$allocator@D@2@@std@@IV12@V?$allocator@V?$basic_string@DU?$char_traits@D@std@@V?$allocator@D@2@@std@@@2@@std@@YAXPAV?$basic_string@DU?$char_traits@D@std@@V?$allocator@D@2@@0@IABV10@AAV?$allocator@V?$basic_string@DU?$char_traits@D@std@@V?$allocator@D@2@@std@@@0@U_Nonscalar_ptr_iterator_tag@0@@Z
_TEXT	SEGMENT PARA USE32 PUBLIC 'CODE'
_TEXT	ENDS
;	COMDAT ??$_Ptr_cat@PAUMINIGMAME_PRIZE_LIST@CRainbowRaceMng@@PAU12@@std@@YA?AU_Nonscalar_ptr_iterator_tag@0@AAPAUMINIGMAME_PRIZE_LIST@CRainbowRaceMng@@0@Z
_TEXT	SEGMENT PARA USE32 PUBLIC 'CODE'
_TEXT	ENDS
;	COMDAT ??$_Uninit_fill_n@PAUMINIGMAME_PRIZE_LIST@CRainbowRaceMng@@IU12@V?$allocator@UMINIGMAME_PRIZE_LIST@CRainbowRaceMng@@@std@@@std@@YAXPAUMINIGMAME_PRIZE_LIST@CRainbowRaceMng@@IABU12@AAV?$allocator@UMINIGMAME_PRIZE_LIST@CRainbowRaceMng@@@0@U_Nonscalar_ptr_iterator_tag@0@@Z
_TEXT	SEGMENT PARA USE32 PUBLIC 'CODE'
_TEXT	ENDS
;	COMDAT ??$_Ptr_cat@U__JOINPLAYER@CGuildCombat@@@std@@YA?AU_Scalar_ptr_iterator_tag@0@PAPAU__JOINPLAYER@CGuildCombat@@0@Z
_TEXT	SEGMENT PARA USE32 PUBLIC 'CODE'
_TEXT	ENDS
;	COMDAT ??$_Destroy_range@PAU__JOINPLAYER@CGuildCombat@@V?$allocator@PAU__JOINPLAYER@CGuildCombat@@@std@@@std@@YAXPAPAU__JOINPLAYER@CGuildCombat@@0AAV?$allocator@PAU__JOINPLAYER@CGuildCombat@@@0@U_Scalar_ptr_iterator_tag@0@@Z
_TEXT	SEGMENT PARA USE32 PUBLIC 'CODE'
_TEXT	ENDS
;	COMDAT ??$_Ptr_cat@PAU__SECRETROOM_MONSTER@@PAU1@@std@@YA?AU_Nonscalar_ptr_iterator_tag@0@AAPAU__SECRETROOM_MONSTER@@0@Z
_TEXT	SEGMENT PARA USE32 PUBLIC 'CODE'
_TEXT	ENDS
;	COMDAT ??$_Destroy_range@U__SECRETROOM_MONSTER@@V?$allocator@U__SECRETROOM_MONSTER@@@std@@@std@@YAXPAU__SECRETROOM_MONSTER@@0AAV?$allocator@U__SECRETROOM_MONSTER@@@0@U_Nonscalar_ptr_iterator_tag@0@@Z
_TEXT	SEGMENT PARA USE32 PUBLIC 'CODE'
_TEXT	ENDS
;	COMDAT ??$_Destroy_range@V?$basic_string@DU?$char_traits@D@std@@V?$allocator@D@2@@std@@V?$allocator@V?$basic_string@DU?$char_traits@D@std@@V?$allocator@D@2@@std@@@2@@std@@YAXPAV?$basic_string@DU?$char_traits@D@std@@V?$allocator@D@2@@0@0AAV?$allocator@V?$basic_string@DU?$char_traits@D@std@@V?$allocator@D@2@@std@@@0@U_Nonscalar_ptr_iterator_tag@0@@Z
_TEXT	SEGMENT PARA USE32 PUBLIC 'CODE'
_TEXT	ENDS
;	COMDAT ??$_Uninitialized_copy@PAV?$basic_string@DU?$char_traits@D@std@@V?$allocator@D@2@@std@@PAV12@V?$allocator@V?$basic_string@DU?$char_traits@D@std@@V?$allocator@D@2@@std@@@2@@std@@YAPAV?$basic_string@DU?$char_traits@D@std@@V?$allocator@D@2@@0@PAV10@00AAV?$allocator@V?$basic_string@DU?$char_traits@D@std@@V?$allocator@D@2@@std@@@0@@Z
_TEXT	SEGMENT PARA USE32 PUBLIC 'CODE'
_TEXT	ENDS
;	COMDAT ??$_Copy_backward_opt@PAV?$basic_string@DU?$char_traits@D@std@@V?$allocator@D@2@@std@@PAV12@@std@@YAPAV?$basic_string@DU?$char_traits@D@std@@V?$allocator@D@2@@0@PAV10@00U_Nonscalar_ptr_iterator_tag@0@@Z
_TEXT	SEGMENT PARA USE32 PUBLIC 'CODE'
_TEXT	ENDS
;	COMDAT ??$_Uninitialized_copy@PAUMINIGMAME_PRIZE_LIST@CRainbowRaceMng@@PAU12@V?$allocator@UMINIGMAME_PRIZE_LIST@CRainbowRaceMng@@@std@@@std@@YAPAUMINIGMAME_PRIZE_LIST@CRainbowRaceMng@@PAU12@00AAV?$allocator@UMINIGMAME_PRIZE_LIST@CRainbowRaceMng@@@0@@Z
_TEXT	SEGMENT PARA USE32 PUBLIC 'CODE'
_TEXT	ENDS
;	COMDAT ??$_Copy_backward_opt@PAUMINIGMAME_PRIZE_LIST@CRainbowRaceMng@@PAU12@@std@@YAPAUMINIGMAME_PRIZE_LIST@CRainbowRaceMng@@PAU12@00U_Nonscalar_ptr_iterator_tag@0@@Z
_TEXT	SEGMENT PARA USE32 PUBLIC 'CODE'
_TEXT	ENDS
;	COMDAT ??$_Destroy_range@UMINIGMAME_PRIZE_LIST@CRainbowRaceMng@@V?$allocator@UMINIGMAME_PRIZE_LIST@CRainbowRaceMng@@@std@@@std@@YAXPAUMINIGMAME_PRIZE_LIST@CRainbowRaceMng@@0AAV?$allocator@UMINIGMAME_PRIZE_LIST@CRainbowRaceMng@@@0@U_Nonscalar_ptr_iterator_tag@0@@Z
_TEXT	SEGMENT PARA USE32 PUBLIC 'CODE'
_TEXT	ENDS
;	COMDAT ??$_Destroy@UtagDROPITEM@@@std@@YAXPAUtagDROPITEM@@@Z
_TEXT	SEGMENT PARA USE32 PUBLIC 'CODE'
_TEXT	ENDS
;	COMDAT ??$_Destroy@UWORMON@@@std@@YAXPAUWORMON@@@Z
_TEXT	SEGMENT PARA USE32 PUBLIC 'CODE'
_TEXT	ENDS
;	COMDAT ??$_Destroy@U__ITEMGAME@CMiniGame@@@std@@YAXPAU__ITEMGAME@CMiniGame@@@Z
_TEXT	SEGMENT PARA USE32 PUBLIC 'CODE'
_TEXT	ENDS
;	COMDAT ??$_Destroy@U__ITEM@CExchange@@@std@@YAXPAU__ITEM@CExchange@@@Z
_TEXT	SEGMENT PARA USE32 PUBLIC 'CODE'
_TEXT	ENDS
;	COMDAT ??$_Destroy@U__POINT@CExchange@@@std@@YAXPAU__POINT@CExchange@@@Z
_TEXT	SEGMENT PARA USE32 PUBLIC 'CODE'
_TEXT	ENDS
;	COMDAT ??$copy@PAEPAE@std@@YAPAEPAE00@Z
_TEXT	SEGMENT PARA USE32 PUBLIC 'CODE'
_TEXT	ENDS
;	COMDAT ??$_Construct@U__SPAWNREGION@CEventLua@@U12@@std@@YAXPAU__SPAWNREGION@CEventLua@@ABU12@@Z
_TEXT	SEGMENT PARA USE32 PUBLIC 'CODE'
_TEXT	ENDS
;	COMDAT ??$_Destroy@U__SPAWNREGION@CEventLua@@@std@@YAXPAU__SPAWNREGION@CEventLua@@@Z
_TEXT	SEGMENT PARA USE32 PUBLIC 'CODE'
_TEXT	ENDS
;	COMDAT ??$_Destroy@UD3DXVECTOR3@@@std@@YAXPAUD3DXVECTOR3@@@Z
_TEXT	SEGMENT PARA USE32 PUBLIC 'CODE'
_TEXT	ENDS
;	COMDAT ??$_Destroy@U_GIFTBOX@@@std@@YAXPAU_GIFTBOX@@@Z
_TEXT	SEGMENT PARA USE32 PUBLIC 'CODE'
_TEXT	ENDS
;	COMDAT ?construct@?$allocator@V?$basic_string@DU?$char_traits@D@std@@V?$allocator@D@2@@std@@@std@@QAEXPAV?$basic_string@DU?$char_traits@D@std@@V?$allocator@D@2@@2@ABV32@@Z
_TEXT	SEGMENT PARA USE32 PUBLIC 'CODE'
_TEXT	ENDS
;	COMDAT ?destroy@?$allocator@V?$basic_string@DU?$char_traits@D@std@@V?$allocator@D@2@@std@@@std@@QAEXPAV?$basic_string@DU?$char_traits@D@std@@V?$allocator@D@2@@2@@Z
_TEXT	SEGMENT PARA USE32 PUBLIC 'CODE'
_TEXT	ENDS
;	COMDAT ?construct@?$allocator@E@std@@QAEXPAEABE@Z
_TEXT	SEGMENT PARA USE32 PUBLIC 'CODE'
_TEXT	ENDS
;	COMDAT ?destroy@?$allocator@E@std@@QAEXPAE@Z
_TEXT	SEGMENT PARA USE32 PUBLIC 'CODE'
_TEXT	ENDS
;	COMDAT ??Dconst_iterator@?$vector@EV?$allocator@E@std@@@std@@QBEABEXZ
_TEXT	SEGMENT PARA USE32 PUBLIC 'CODE'
_TEXT	ENDS
;	COMDAT ??Econst_iterator@?$vector@EV?$allocator@E@std@@@std@@QAEAAV012@XZ
_TEXT	SEGMENT PARA USE32 PUBLIC 'CODE'
_TEXT	ENDS
;	COMDAT ?destroy@?$allocator@U__SECRETROOM_MONSTER@@@std@@QAEXPAU__SECRETROOM_MONSTER@@@Z
_TEXT	SEGMENT PARA USE32 PUBLIC 'CODE'
_TEXT	ENDS
;	COMDAT ?construct@?$allocator@UMINIGMAME_PRIZE_LIST@CRainbowRaceMng@@@std@@QAEXPAUMINIGMAME_PRIZE_LIST@CRainbowRaceMng@@ABU34@@Z
_TEXT	SEGMENT PARA USE32 PUBLIC 'CODE'
_TEXT	ENDS
;	COMDAT ?destroy@?$allocator@UMINIGMAME_PRIZE_LIST@CRainbowRaceMng@@@std@@QAEXPAUMINIGMAME_PRIZE_LIST@CRainbowRaceMng@@@Z
_TEXT	SEGMENT PARA USE32 PUBLIC 'CODE'
_TEXT	ENDS
;	COMDAT ??$_Insert@Vconst_iterator@?$vector@EV?$allocator@E@std@@@std@@@?$vector@EV?$allocator@E@std@@@std@@QAEXViterator@01@Vconst_iterator@01@1Uforward_iterator_tag@1@@Z
_TEXT	SEGMENT PARA USE32 PUBLIC 'CODE'
_TEXT	ENDS
;	COMDAT ??$_Uninit_copy@PAV?$basic_string@DU?$char_traits@D@std@@V?$allocator@D@2@@std@@PAV12@V?$allocator@V?$basic_string@DU?$char_traits@D@std@@V?$allocator@D@2@@std@@@2@@std@@YAPAV?$basic_string@DU?$char_traits@D@std@@V?$allocator@D@2@@0@PAV10@00AAV?$allocator@V?$basic_string@DU?$char_traits@D@std@@V?$allocator@D@2@@std@@@0@U_Nonscalar_ptr_iterator_tag@0@@Z
_TEXT	SEGMENT PARA USE32 PUBLIC 'CODE'
_TEXT	ENDS
;	COMDAT ??$_Uninit_copy@PAUMINIGMAME_PRIZE_LIST@CRainbowRaceMng@@PAU12@V?$allocator@UMINIGMAME_PRIZE_LIST@CRainbowRaceMng@@@std@@@std@@YAPAUMINIGMAME_PRIZE_LIST@CRainbowRaceMng@@PAU12@00AAV?$allocator@UMINIGMAME_PRIZE_LIST@CRainbowRaceMng@@@0@U_Nonscalar_ptr_iterator_tag@0@@Z
_TEXT	SEGMENT PARA USE32 PUBLIC 'CODE'
_TEXT	ENDS
;	COMDAT ??$_Copy_opt@PAEPAE@std@@YAPAEPAE00U_Scalar_ptr_iterator_tag@0@@Z
_TEXT	SEGMENT PARA USE32 PUBLIC 'CODE'
_TEXT	ENDS
;	COMDAT ??$_Construct@V?$basic_string@DU?$char_traits@D@std@@V?$allocator@D@2@@std@@V12@@std@@YAXPAV?$basic_string@DU?$char_traits@D@std@@V?$allocator@D@2@@0@ABV10@@Z
_TEXT	SEGMENT PARA USE32 PUBLIC 'CODE'
_TEXT	ENDS
;	COMDAT ??$_Destroy@V?$basic_string@DU?$char_traits@D@std@@V?$allocator@D@2@@std@@@std@@YAXPAV?$basic_string@DU?$char_traits@D@std@@V?$allocator@D@2@@0@@Z
_TEXT	SEGMENT PARA USE32 PUBLIC 'CODE'
_TEXT	ENDS
;	COMDAT ??$_Construct@EE@std@@YAXPAEABE@Z
_TEXT	SEGMENT PARA USE32 PUBLIC 'CODE'
_TEXT	ENDS
;	COMDAT ??$_Destroy@E@std@@YAXPAE@Z
_TEXT	SEGMENT PARA USE32 PUBLIC 'CODE'
_TEXT	ENDS
;	COMDAT ??$_Destroy@U__SECRETROOM_MONSTER@@@std@@YAXPAU__SECRETROOM_MONSTER@@@Z
_TEXT	SEGMENT PARA USE32 PUBLIC 'CODE'
_TEXT	ENDS
;	COMDAT ??$_Construct@UMINIGMAME_PRIZE_LIST@CRainbowRaceMng@@U12@@std@@YAXPAUMINIGMAME_PRIZE_LIST@CRainbowRaceMng@@ABU12@@Z
_TEXT	SEGMENT PARA USE32 PUBLIC 'CODE'
_TEXT	ENDS
;	COMDAT ??$_Destroy@UMINIGMAME_PRIZE_LIST@CRainbowRaceMng@@@std@@YAXPAUMINIGMAME_PRIZE_LIST@CRainbowRaceMng@@@Z
_TEXT	SEGMENT PARA USE32 PUBLIC 'CODE'
_TEXT	ENDS
;	COMDAT ??_G?$basic_string@DU?$char_traits@D@std@@V?$allocator@D@2@@std@@QAEPAXI@Z
_TEXT	SEGMENT PARA USE32 PUBLIC 'CODE'
_TEXT	ENDS
;	COMDAT ?capacity@?$vector@EV?$allocator@E@std@@@std@@QBEIXZ
_TEXT	SEGMENT PARA USE32 PUBLIC 'CODE'
_TEXT	ENDS
;	COMDAT ??Giterator@?$vector@EV?$allocator@E@std@@@std@@QBEHABVconst_iterator@12@@Z
_TEXT	SEGMENT PARA USE32 PUBLIC 'CODE'
_TEXT	ENDS
;	COMDAT ??Gconst_iterator@?$vector@EV?$allocator@E@std@@@std@@QBEHABV012@@Z
_TEXT	SEGMENT PARA USE32 PUBLIC 'CODE'
_TEXT	ENDS
;	COMDAT ??$_Distance@Vconst_iterator@?$vector@EV?$allocator@E@std@@@std@@I@std@@YAXVconst_iterator@?$vector@EV?$allocator@E@std@@@0@0AAI@Z
_TEXT	SEGMENT PARA USE32 PUBLIC 'CODE'
_TEXT	ENDS
;	COMDAT ??$_Ucopy@PAE@?$vector@EV?$allocator@E@std@@@std@@IAEPAEPAE00@Z
_TEXT	SEGMENT PARA USE32 PUBLIC 'CODE'
_TEXT	ENDS
;	COMDAT ??$advance@Vconst_iterator@?$vector@EV?$allocator@E@std@@@std@@H@std@@YAXAAVconst_iterator@?$vector@EV?$allocator@E@std@@@0@H@Z
_TEXT	SEGMENT PARA USE32 PUBLIC 'CODE'
_TEXT	ENDS
;	COMDAT ??$copy@Vconst_iterator@?$vector@EV?$allocator@E@std@@@std@@PAE@std@@YAPAEVconst_iterator@?$vector@EV?$allocator@E@std@@@0@0PAE@Z
_TEXT	SEGMENT PARA USE32 PUBLIC 'CODE'
_TEXT	ENDS
;	COMDAT ??$copy_backward@PAEPAE@std@@YAPAEPAE00@Z
_TEXT	SEGMENT PARA USE32 PUBLIC 'CODE'
_TEXT	ENDS
;	COMDAT ??$_Distance2@Vconst_iterator@?$vector@EV?$allocator@E@std@@@std@@I@std@@YAXVconst_iterator@?$vector@EV?$allocator@E@std@@@0@0AAIUrandom_access_iterator_tag@0@@Z
_TEXT	SEGMENT PARA USE32 PUBLIC 'CODE'
_TEXT	ENDS
;	COMDAT ??$_Uninitialized_copy@PAEPAEV?$allocator@E@std@@@std@@YAPAEPAE00AAV?$allocator@E@0@@Z
_TEXT	SEGMENT PARA USE32 PUBLIC 'CODE'
_TEXT	ENDS
;	COMDAT ??$_Advance@Vconst_iterator@?$vector@EV?$allocator@E@std@@@std@@H@std@@YAXAAVconst_iterator@?$vector@EV?$allocator@E@std@@@0@HUrandom_access_iterator_tag@0@@Z
_TEXT	SEGMENT PARA USE32 PUBLIC 'CODE'
_TEXT	ENDS
;	COMDAT ??$_Copy_opt@Vconst_iterator@?$vector@EV?$allocator@E@std@@@std@@PAE@std@@YAPAEVconst_iterator@?$vector@EV?$allocator@E@std@@@0@0PAEU_Nonscalar_ptr_iterator_tag@0@@Z
_TEXT	SEGMENT PARA USE32 PUBLIC 'CODE'
_TEXT	ENDS
;	COMDAT ??$_Copy_backward_opt@PAEPAE@std@@YAPAEPAE00U_Scalar_ptr_iterator_tag@0@@Z
_TEXT	SEGMENT PARA USE32 PUBLIC 'CODE'
_TEXT	ENDS
;	COMDAT ??Yconst_iterator@?$vector@EV?$allocator@E@std@@@std@@QAEAAV012@H@Z
_TEXT	SEGMENT PARA USE32 PUBLIC 'CODE'
_TEXT	ENDS
;	COMDAT ??$_Uninit_copy@EE@std@@YAPAEPAE00AAV?$allocator@E@0@U_Scalar_ptr_iterator_tag@0@@Z
_TEXT	SEGMENT PARA USE32 PUBLIC 'CODE'
_TEXT	ENDS
;	COMDAT ?deallocate@?$allocator@E@std@@QAEXPAEI@Z
_TEXT	SEGMENT PARA USE32 PUBLIC 'CODE'
_TEXT	ENDS
;	COMDAT ??$_Ucopy@Vconst_iterator@?$vector@EV?$allocator@E@std@@@std@@@?$vector@EV?$allocator@E@std@@@std@@IAEPAEVconst_iterator@01@0PAE@Z
_TEXT	SEGMENT PARA USE32 PUBLIC 'CODE'
_TEXT	ENDS
;	COMDAT ?allocate@?$allocator@E@std@@QAEPAEI@Z
_TEXT	SEGMENT PARA USE32 PUBLIC 'CODE'
_TEXT	ENDS
;	COMDAT ??$_Allocate@E@std@@YAPAEIPAE@Z
_TEXT	SEGMENT PARA USE32 PUBLIC 'CODE'
_TEXT	ENDS
;	COMDAT ?_Xlen@?$vector@EV?$allocator@E@std@@@std@@IBEXXZ
_TEXT	SEGMENT PARA USE32 PUBLIC 'CODE'
_TEXT	ENDS
;	COMDAT ?size@?$vector@EV?$allocator@E@std@@@std@@QBEIXZ
_TEXT	SEGMENT PARA USE32 PUBLIC 'CODE'
_TEXT	ENDS
;	COMDAT ?max_size@?$vector@EV?$allocator@E@std@@@std@@QBEIXZ
_TEXT	SEGMENT PARA USE32 PUBLIC 'CODE'
_TEXT	ENDS
;	COMDAT ?max_size@?$allocator@E@std@@QBEIXZ
_TEXT	SEGMENT PARA USE32 PUBLIC 'CODE'
_TEXT	ENDS
;	COMDAT ?_Ptr_cat@std@@YA?AU_Scalar_ptr_iterator_tag@1@PAE0@Z
_TEXT	SEGMENT PARA USE32 PUBLIC 'CODE'
_TEXT	ENDS
;	COMDAT ??0const_iterator@?$vector@EV?$allocator@E@std@@@std@@QAE@PAE@Z
_TEXT	SEGMENT PARA USE32 PUBLIC 'CODE'
_TEXT	ENDS
;	COMDAT ?_Destroy@?$vector@EV?$allocator@E@std@@@std@@IAEXPAE0@Z
_TEXT	SEGMENT PARA USE32 PUBLIC 'CODE'
_TEXT	ENDS
;	COMDAT ??$_Destroy_range@EV?$allocator@E@std@@@std@@YAXPAE0AAV?$allocator@E@0@@Z
_TEXT	SEGMENT PARA USE32 PUBLIC 'CODE'
_TEXT	ENDS
;	COMDAT ??4?$basic_string@DU?$char_traits@D@std@@V?$allocator@D@2@@std@@QAEAAV01@ABV01@@Z
_TEXT	SEGMENT PARA USE32 PUBLIC 'CODE'
_TEXT	ENDS
;	COMDAT ?assign@?$basic_string@DU?$char_traits@D@std@@V?$allocator@D@2@@std@@QAEAAV12@ABV12@@Z
_TEXT	SEGMENT PARA USE32 PUBLIC 'CODE'
_TEXT	ENDS
;	COMDAT ?assign@?$basic_string@DU?$char_traits@D@std@@V?$allocator@D@2@@std@@QAEAAV12@ABV12@II@Z
_TEXT	SEGMENT PARA USE32 PUBLIC 'CODE'
_TEXT	ENDS
;	COMDAT ?erase@?$basic_string@DU?$char_traits@D@std@@V?$allocator@D@2@@std@@QAEAAV12@II@Z
_TEXT	SEGMENT PARA USE32 PUBLIC 'CODE'
_TEXT	ENDS
;	COMDAT ?move@?$char_traits@D@std@@SAPADPADPBDI@Z
_TEXT	SEGMENT PARA USE32 PUBLIC 'CODE'
_TEXT	ENDS
;	COMDAT ?_Grow@?$basic_string@DU?$char_traits@D@std@@V?$allocator@D@2@@std@@IAE_NI_N@Z
_TEXT	SEGMENT PARA USE32 PUBLIC 'CODE'
_TEXT	ENDS
;	COMDAT ?max_size@?$basic_string@DU?$char_traits@D@std@@V?$allocator@D@2@@std@@QBEIXZ
_TEXT	SEGMENT PARA USE32 PUBLIC 'CODE'
_TEXT	ENDS
;	COMDAT ?max_size@?$allocator@D@std@@QBEIXZ
_TEXT	SEGMENT PARA USE32 PUBLIC 'CODE'
_TEXT	ENDS
;	COMDAT ?_Copy@?$basic_string@DU?$char_traits@D@std@@V?$allocator@D@2@@std@@IAEXII@Z
_TEXT	SEGMENT PARA USE32 PUBLIC 'CODE'
_TEXT	ENDS
;	COMDAT ?allocate@?$allocator@D@std@@QAEPADI@Z
_TEXT	SEGMENT PARA USE32 PUBLIC 'CODE'
_TEXT	ENDS
;	COMDAT ??$_Allocate@D@std@@YAPADIPAD@Z
_TEXT	SEGMENT PARA USE32 PUBLIC 'CODE'
_TEXT	ENDS
;	COMDAT ?_Tidy@?$basic_string@DU?$char_traits@D@std@@V?$allocator@D@2@@std@@IAEX_NI@Z
_TEXT	SEGMENT PARA USE32 PUBLIC 'CODE'
_TEXT	ENDS
;	COMDAT ?deallocate@?$allocator@D@std@@QAEXPADI@Z
_TEXT	SEGMENT PARA USE32 PUBLIC 'CODE'
_TEXT	ENDS
;	COMDAT ?copy@?$char_traits@D@std@@SAPADPADPBDI@Z
_TEXT	SEGMENT PARA USE32 PUBLIC 'CODE'
_TEXT	ENDS
;	COMDAT ?_Myptr@?$basic_string@DU?$char_traits@D@std@@V?$allocator@D@2@@std@@QAEPADXZ
_TEXT	SEGMENT PARA USE32 PUBLIC 'CODE'
_TEXT	ENDS
;	COMDAT ?_Eos@?$basic_string@DU?$char_traits@D@std@@V?$allocator@D@2@@std@@IAEXI@Z
_TEXT	SEGMENT PARA USE32 PUBLIC 'CODE'
_TEXT	ENDS
;	COMDAT ?assign@?$char_traits@D@std@@SAXAADABD@Z
_TEXT	SEGMENT PARA USE32 PUBLIC 'CODE'
_TEXT	ENDS
;	COMDAT ?npos@?$basic_string@DU?$char_traits@D@std@@V?$allocator@D@2@@std@@2IB
CONST	SEGMENT DWORD USE32 PUBLIC 'CONST'
CONST	ENDS
;	COMDAT ?_Ptr_cat@std@@YA?AU_Scalar_ptr_iterator_tag@1@PAJ0@Z
_TEXT	SEGMENT PARA USE32 PUBLIC 'CODE'
_TEXT	ENDS
;	COMDAT ??9const_iterator@?$_Tree@V?$_Tmap_traits@KEU?$less@K@std@@V?$allocator@U?$pair@$$CBKE@std@@@2@$0A@@std@@@std@@QBE_NABV012@@Z
_TEXT	SEGMENT PARA USE32 PUBLIC 'CODE'
_TEXT	ENDS
;	COMDAT ??8const_iterator@?$_Tree@V?$_Tmap_traits@KEU?$less@K@std@@V?$allocator@U?$pair@$$CBKE@std@@@2@$0A@@std@@@std@@QBE_NABV012@@Z
_TEXT	SEGMENT PARA USE32 PUBLIC 'CODE'
_TEXT	ENDS
;	COMDAT ??Eiterator@?$_Tree@V?$_Tmap_traits@KEU?$less@K@std@@V?$allocator@U?$pair@$$CBKE@std@@@2@$0A@@std@@@std@@QAEAAV012@XZ
_TEXT	SEGMENT PARA USE32 PUBLIC 'CODE'
_TEXT	ENDS
;	COMDAT ??Econst_iterator@?$_Tree@V?$_Tmap_traits@KEU?$less@K@std@@V?$allocator@U?$pair@$$CBKE@std@@@2@$0A@@std@@@std@@QAEAAV012@XZ
_TEXT	SEGMENT PARA USE32 PUBLIC 'CODE'
_TEXT	ENDS
;	COMDAT ?_Inc@const_iterator@?$_Tree@V?$_Tmap_traits@KEU?$less@K@std@@V?$allocator@U?$pair@$$CBKE@std@@@2@$0A@@std@@@std@@QAEXXZ
_TEXT	SEGMENT PARA USE32 PUBLIC 'CODE'
_TEXT	ENDS
;	COMDAT ?_Min@?$_Tree@V?$_Tmap_traits@KEU?$less@K@std@@V?$allocator@U?$pair@$$CBKE@std@@@2@$0A@@std@@@std@@KAPAU_Node@?$_Tree_nod@V?$_Tmap_traits@KEU?$less@K@std@@V?$allocator@U?$pair@$$CBKE@std@@@2@$0A@@std@@@2@PAU342@@Z
_TEXT	SEGMENT PARA USE32 PUBLIC 'CODE'
_TEXT	ENDS
;	COMDAT ?_Left@?$_Tree@V?$_Tmap_traits@KEU?$less@K@std@@V?$allocator@U?$pair@$$CBKE@std@@@2@$0A@@std@@@std@@KAAAPAU_Node@?$_Tree_nod@V?$_Tmap_traits@KEU?$less@K@std@@V?$allocator@U?$pair@$$CBKE@std@@@2@$0A@@std@@@2@PAU342@@Z
_TEXT	SEGMENT PARA USE32 PUBLIC 'CODE'
_TEXT	ENDS
;	COMDAT ?_Isnil@?$_Tree@V?$_Tmap_traits@KEU?$less@K@std@@V?$allocator@U?$pair@$$CBKE@std@@@2@$0A@@std@@@std@@KAAADPAU_Node@?$_Tree_nod@V?$_Tmap_traits@KEU?$less@K@std@@V?$allocator@U?$pair@$$CBKE@std@@@2@$0A@@std@@@2@@Z
_TEXT	SEGMENT PARA USE32 PUBLIC 'CODE'
_TEXT	ENDS
;	COMDAT ?_Parent@?$_Tree@V?$_Tmap_traits@KEU?$less@K@std@@V?$allocator@U?$pair@$$CBKE@std@@@2@$0A@@std@@@std@@KAAAPAU_Node@?$_Tree_nod@V?$_Tmap_traits@KEU?$less@K@std@@V?$allocator@U?$pair@$$CBKE@std@@@2@$0A@@std@@@2@PAU342@@Z
_TEXT	SEGMENT PARA USE32 PUBLIC 'CODE'
_TEXT	ENDS
;	COMDAT ?_Right@?$_Tree@V?$_Tmap_traits@KEU?$less@K@std@@V?$allocator@U?$pair@$$CBKE@std@@@2@$0A@@std@@@std@@KAAAPAU_Node@?$_Tree_nod@V?$_Tmap_traits@KEU?$less@K@std@@V?$allocator@U?$pair@$$CBKE@std@@@2@$0A@@std@@@2@PAU342@@Z
_TEXT	SEGMENT PARA USE32 PUBLIC 'CODE'
_TEXT	ENDS
;	COMDAT ??9const_iterator@?$_Tree@V?$_Tmap_traits@KPAVCCtrl@@U?$less@K@std@@V?$allocator@U?$pair@$$CBKPAVCCtrl@@@std@@@3@$0A@@std@@@std@@QBE_NABV012@@Z
_TEXT	SEGMENT PARA USE32 PUBLIC 'CODE'
_TEXT	ENDS
;	COMDAT ??9const_iterator@?$_Tree@V?$_Tmap_traits@KPAVCUser@@U?$less@K@std@@V?$allocator@U?$pair@$$CBKPAVCUser@@@std@@@3@$0A@@std@@@std@@QBE_NABV012@@Z
_TEXT	SEGMENT PARA USE32 PUBLIC 'CODE'
_TEXT	ENDS
;	COMDAT ??8const_iterator@?$_Tree@V?$_Tmap_traits@KPAVCUser@@U?$less@K@std@@V?$allocator@U?$pair@$$CBKPAVCUser@@@std@@@3@$0A@@std@@@std@@QBE_NABV012@@Z
_TEXT	SEGMENT PARA USE32 PUBLIC 'CODE'
_TEXT	ENDS
;	COMDAT ??Eiterator@?$_Tree@V?$_Tmap_traits@KPAVCUser@@U?$less@K@std@@V?$allocator@U?$pair@$$CBKPAVCUser@@@std@@@3@$0A@@std@@@std@@QAEAAV012@XZ
_TEXT	SEGMENT PARA USE32 PUBLIC 'CODE'
_TEXT	ENDS
;	COMDAT ??Econst_iterator@?$_Tree@V?$_Tmap_traits@KPAVCUser@@U?$less@K@std@@V?$allocator@U?$pair@$$CBKPAVCUser@@@std@@@3@$0A@@std@@@std@@QAEAAV012@XZ
_TEXT	SEGMENT PARA USE32 PUBLIC 'CODE'
_TEXT	ENDS
;	COMDAT ?_Inc@const_iterator@?$_Tree@V?$_Tmap_traits@KPAVCUser@@U?$less@K@std@@V?$allocator@U?$pair@$$CBKPAVCUser@@@std@@@3@$0A@@std@@@std@@QAEXXZ
_TEXT	SEGMENT PARA USE32 PUBLIC 'CODE'
_TEXT	ENDS
;	COMDAT ?_Min@?$_Tree@V?$_Tmap_traits@KPAVCUser@@U?$less@K@std@@V?$allocator@U?$pair@$$CBKPAVCUser@@@std@@@3@$0A@@std@@@std@@KAPAU_Node@?$_Tree_nod@V?$_Tmap_traits@KPAVCUser@@U?$less@K@std@@V?$allocator@U?$pair@$$CBKPAVCUser@@@std@@@3@$0A@@std@@@2@PAU342@@Z
_TEXT	SEGMENT PARA USE32 PUBLIC 'CODE'
_TEXT	ENDS
;	COMDAT ?_Left@?$_Tree@V?$_Tmap_traits@KPAVCUser@@U?$less@K@std@@V?$allocator@U?$pair@$$CBKPAVCUser@@@std@@@3@$0A@@std@@@std@@KAAAPAU_Node@?$_Tree_nod@V?$_Tmap_traits@KPAVCUser@@U?$less@K@std@@V?$allocator@U?$pair@$$CBKPAVCUser@@@std@@@3@$0A@@std@@@2@PAU342@@Z
_TEXT	SEGMENT PARA USE32 PUBLIC 'CODE'
_TEXT	ENDS
;	COMDAT ?_Isnil@?$_Tree@V?$_Tmap_traits@KPAVCUser@@U?$less@K@std@@V?$allocator@U?$pair@$$CBKPAVCUser@@@std@@@3@$0A@@std@@@std@@KAAADPAU_Node@?$_Tree_nod@V?$_Tmap_traits@KPAVCUser@@U?$less@K@std@@V?$allocator@U?$pair@$$CBKPAVCUser@@@std@@@3@$0A@@std@@@2@@Z
_TEXT	SEGMENT PARA USE32 PUBLIC 'CODE'
_TEXT	ENDS
;	COMDAT ?_Parent@?$_Tree@V?$_Tmap_traits@KPAVCUser@@U?$less@K@std@@V?$allocator@U?$pair@$$CBKPAVCUser@@@std@@@3@$0A@@std@@@std@@KAAAPAU_Node@?$_Tree_nod@V?$_Tmap_traits@KPAVCUser@@U?$less@K@std@@V?$allocator@U?$pair@$$CBKPAVCUser@@@std@@@3@$0A@@std@@@2@PAU342@@Z
_TEXT	SEGMENT PARA USE32 PUBLIC 'CODE'
_TEXT	ENDS
;	COMDAT ?_Right@?$_Tree@V?$_Tmap_traits@KPAVCUser@@U?$less@K@std@@V?$allocator@U?$pair@$$CBKPAVCUser@@@std@@@3@$0A@@std@@@std@@KAAAPAU_Node@?$_Tree_nod@V?$_Tmap_traits@KPAVCUser@@U?$less@K@std@@V?$allocator@U?$pair@$$CBKPAVCUser@@@std@@@3@$0A@@std@@@2@PAU342@@Z
_TEXT	SEGMENT PARA USE32 PUBLIC 'CODE'
_TEXT	ENDS
;	COMDAT ?_Psave@?$_Facetptr@V?$ctype@G@std@@@std@@2PBVfacet@locale@2@B
_DATA	SEGMENT DWORD USE32 PUBLIC 'DATA'
_DATA	ENDS
;	COMDAT ?_Psave@?$_Facetptr@V?$ctype@D@std@@@std@@2PBVfacet@locale@2@B
_DATA	SEGMENT DWORD USE32 PUBLIC 'DATA'
_DATA	ENDS
;	COMDAT ?_Color@?$_Tree@V?$_Tmap_traits@KHU?$less@K@std@@V?$allocator@U?$pair@$$CBKH@std@@@2@$0A@@std@@@std@@KAAADPAU_Node@?$_Tree_nod@V?$_Tmap_traits@KHU?$less@K@std@@V?$allocator@U?$pair@$$CBKH@std@@@2@$0A@@std@@@2@@Z
_TEXT	SEGMENT PARA USE32 PUBLIC 'CODE'
_TEXT	ENDS
;	COMDAT ?deallocate@?$allocator@U_Node@?$_Tree_nod@V?$_Tmap_traits@KHU?$less@K@std@@V?$allocator@U?$pair@$$CBKH@std@@@2@$0A@@std@@@std@@@std@@QAEXPAU_Node@?$_Tree_nod@V?$_Tmap_traits@KHU?$less@K@std@@V?$allocator@U?$pair@$$CBKH@std@@@2@$0A@@std@@@2@I@Z
_TEXT	SEGMENT PARA USE32 PUBLIC 'CODE'
_TEXT	ENDS
;	COMDAT ?destroy@?$allocator@PAU_Node@?$_Tree_nod@V?$_Tmap_traits@KHU?$less@K@std@@V?$allocator@U?$pair@$$CBKH@std@@@2@$0A@@std@@@std@@@std@@QAEXPAPAU_Node@?$_Tree_nod@V?$_Tmap_traits@KHU?$less@K@std@@V?$allocator@U?$pair@$$CBKH@std@@@2@$0A@@std@@@2@@Z
_TEXT	SEGMENT PARA USE32 PUBLIC 'CODE'
_TEXT	ENDS
;	COMDAT ??$_Destroy@PAU_Node@?$_Tree_nod@V?$_Tmap_traits@KHU?$less@K@std@@V?$allocator@U?$pair@$$CBKH@std@@@2@$0A@@std@@@std@@@std@@YAXPAPAU_Node@?$_Tree_nod@V?$_Tmap_traits@KHU?$less@K@std@@V?$allocator@U?$pair@$$CBKH@std@@@2@$0A@@std@@@0@@Z
_TEXT	SEGMENT PARA USE32 PUBLIC 'CODE'
_TEXT	ENDS
;	COMDAT ?_Right@?$_Tree@V?$_Tmap_traits@KHU?$less@K@std@@V?$allocator@U?$pair@$$CBKH@std@@@2@$0A@@std@@@std@@KAAAPAU_Node@?$_Tree_nod@V?$_Tmap_traits@KHU?$less@K@std@@V?$allocator@U?$pair@$$CBKH@std@@@2@$0A@@std@@@2@PAU342@@Z
_TEXT	SEGMENT PARA USE32 PUBLIC 'CODE'
_TEXT	ENDS
;	COMDAT ?_Parent@?$_Tree@V?$_Tmap_traits@KHU?$less@K@std@@V?$allocator@U?$pair@$$CBKH@std@@@2@$0A@@std@@@std@@KAAAPAU_Node@?$_Tree_nod@V?$_Tmap_traits@KHU?$less@K@std@@V?$allocator@U?$pair@$$CBKH@std@@@2@$0A@@std@@@2@PAU342@@Z
_TEXT	SEGMENT PARA USE32 PUBLIC 'CODE'
_TEXT	ENDS
;	COMDAT ?_Left@?$_Tree@V?$_Tmap_traits@KHU?$less@K@std@@V?$allocator@U?$pair@$$CBKH@std@@@2@$0A@@std@@@std@@KAAAPAU_Node@?$_Tree_nod@V?$_Tmap_traits@KHU?$less@K@std@@V?$allocator@U?$pair@$$CBKH@std@@@2@$0A@@std@@@2@PAU342@@Z
_TEXT	SEGMENT PARA USE32 PUBLIC 'CODE'
_TEXT	ENDS
;	COMDAT ??3@YAXPAX0@Z
_TEXT	SEGMENT PARA USE32 PUBLIC 'CODE'
_TEXT	ENDS
;	COMDAT ??2@YAPAXIPAX@Z
_TEXT	SEGMENT PARA USE32 PUBLIC 'CODE'
_TEXT	ENDS
;	COMDAT ??0?$basic_string@DU?$char_traits@D@std@@V?$allocator@D@2@@std@@QAE@ABV01@@Z
_TEXT	SEGMENT PARA USE32 PUBLIC 'CODE'
_TEXT	ENDS
;	COMDAT ??0?$_String_val@DV?$allocator@D@std@@@std@@IAE@V?$allocator@D@1@@Z
_TEXT	SEGMENT PARA USE32 PUBLIC 'CODE'
_TEXT	ENDS
;	COMDAT ??0?$allocator@D@std@@QAE@ABV01@@Z
_TEXT	SEGMENT PARA USE32 PUBLIC 'CODE'
_TEXT	ENDS
;	COMDAT ??_C@_0BD@OLBABOEK@vector?$DMT?$DO?5too?5long?$AA@
CONST	SEGMENT DWORD USE32 PUBLIC 'CONST'
CONST	ENDS
;	COMDAT ??$swap@D@std@@YAXAAD0@Z
_TEXT	SEGMENT PARA USE32 PUBLIC 'CODE'
_TEXT	ENDS
;	COMDAT __TI3?AVout_of_range@std@@
xdata$x	SEGMENT DWORD USE32 PUBLIC 'CONST'
xdata$x	ENDS
;	COMDAT ??1out_of_range@std@@UAE@XZ
_TEXT	SEGMENT PARA USE32 PUBLIC 'CODE'
_TEXT	ENDS
;	COMDAT ??_7out_of_range@std@@6B@
CONST	SEGMENT DWORD USE32 PUBLIC 'CONST'
CONST	ENDS
;	COMDAT ??_Gout_of_range@std@@UAEPAXI@Z
_TEXT	SEGMENT PARA USE32 PUBLIC 'CODE'
_TEXT	ENDS
;	COMDAT ?what@logic_error@std@@UBEPBDXZ
_TEXT	SEGMENT PARA USE32 PUBLIC 'CODE'
_TEXT	ENDS
;	COMDAT ??1logic_error@std@@UAE@XZ
_TEXT	SEGMENT PARA USE32 PUBLIC 'CODE'
_TEXT	ENDS
;	COMDAT ??_7logic_error@std@@6B@
CONST	SEGMENT DWORD USE32 PUBLIC 'CONST'
CONST	ENDS
;	COMDAT ??_Glogic_error@std@@UAEPAXI@Z
_TEXT	SEGMENT PARA USE32 PUBLIC 'CODE'
_TEXT	ENDS
;	COMDAT __CTA3?AVout_of_range@std@@
xdata$x	SEGMENT DWORD USE32 PUBLIC 'CONST'
xdata$x	ENDS
;	COMDAT __CT??_R0?AVout_of_range@std@@@8??0out_of_range@std@@QAE@ABV01@@Z40
xdata$x	SEGMENT DWORD USE32 PUBLIC 'CONST'
xdata$x	ENDS
;	COMDAT ??_R0?AVout_of_range@std@@@8
_DATA	SEGMENT DWORD USE32 PUBLIC 'DATA'
_DATA	ENDS
;	COMDAT ??0out_of_range@std@@QAE@ABV01@@Z
_TEXT	SEGMENT PARA USE32 PUBLIC 'CODE'
_TEXT	ENDS
;	COMDAT ??0logic_error@std@@QAE@ABV01@@Z
_TEXT	SEGMENT PARA USE32 PUBLIC 'CODE'
_TEXT	ENDS
;	COMDAT __CT??_R0?AVlogic_error@std@@@8??0logic_error@std@@QAE@ABV01@@Z40
xdata$x	SEGMENT DWORD USE32 PUBLIC 'CONST'
xdata$x	ENDS
;	COMDAT ??_R0?AVlogic_error@std@@@8
_DATA	SEGMENT DWORD USE32 PUBLIC 'DATA'
_DATA	ENDS
;	COMDAT __CT??_R0?AVexception@@@8??0exception@@QAE@ABV0@@Z12
xdata$x	SEGMENT DWORD USE32 PUBLIC 'CONST'
xdata$x	ENDS
;	COMDAT ??_R0?AVexception@@@8
_DATA	SEGMENT DWORD USE32 PUBLIC 'DATA'
_DATA	ENDS
;	COMDAT ??_C@_0BM@PAPJHAGI@invalid?5map?1set?$DMT?$DO?5iterator?$AA@
CONST	SEGMENT DWORD USE32 PUBLIC 'CONST'
CONST	ENDS
;	COMDAT ??0out_of_range@std@@QAE@ABV?$basic_string@DU?$char_traits@D@std@@V?$allocator@D@2@@1@@Z
_TEXT	SEGMENT PARA USE32 PUBLIC 'CODE'
_TEXT	ENDS
;	COMDAT ??0logic_error@std@@QAE@ABV?$basic_string@DU?$char_traits@D@std@@V?$allocator@D@2@@1@@Z
_TEXT	SEGMENT PARA USE32 PUBLIC 'CODE'
_TEXT	ENDS
;	COMDAT ?_Rmost@?$_Tree@V?$_Tmap_traits@KHU?$less@K@std@@V?$allocator@U?$pair@$$CBKH@std@@@2@$0A@@std@@@std@@IAEAAPAU_Node@?$_Tree_nod@V?$_Tmap_traits@KHU?$less@K@std@@V?$allocator@U?$pair@$$CBKH@std@@@2@$0A@@std@@@2@XZ
_TEXT	SEGMENT PARA USE32 PUBLIC 'CODE'
_TEXT	ENDS
;	COMDAT ?_Lmost@?$_Tree@V?$_Tmap_traits@KHU?$less@K@std@@V?$allocator@U?$pair@$$CBKH@std@@@2@$0A@@std@@@std@@IAEAAPAU_Node@?$_Tree_nod@V?$_Tmap_traits@KHU?$less@K@std@@V?$allocator@U?$pair@$$CBKH@std@@@2@$0A@@std@@@2@XZ
_TEXT	SEGMENT PARA USE32 PUBLIC 'CODE'
_TEXT	ENDS
;	COMDAT ?_Root@?$_Tree@V?$_Tmap_traits@KHU?$less@K@std@@V?$allocator@U?$pair@$$CBKH@std@@@2@$0A@@std@@@std@@IAEAAPAU_Node@?$_Tree_nod@V?$_Tmap_traits@KHU?$less@K@std@@V?$allocator@U?$pair@$$CBKH@std@@@2@$0A@@std@@@2@XZ
_TEXT	SEGMENT PARA USE32 PUBLIC 'CODE'
_TEXT	ENDS
;	COMDAT ?_Isnil@?$_Tree@V?$_Tmap_traits@KHU?$less@K@std@@V?$allocator@U?$pair@$$CBKH@std@@@2@$0A@@std@@@std@@KAAADPAU_Node@?$_Tree_nod@V?$_Tmap_traits@KHU?$less@K@std@@V?$allocator@U?$pair@$$CBKH@std@@@2@$0A@@std@@@2@@Z
_TEXT	SEGMENT PARA USE32 PUBLIC 'CODE'
_TEXT	ENDS
;	COMDAT __TI3?AVlength_error@std@@
xdata$x	SEGMENT DWORD USE32 PUBLIC 'CONST'
xdata$x	ENDS
;	COMDAT ??1length_error@std@@UAE@XZ
_TEXT	SEGMENT PARA USE32 PUBLIC 'CODE'
_TEXT	ENDS
;	COMDAT ??_7length_error@std@@6B@
CONST	SEGMENT DWORD USE32 PUBLIC 'CONST'
CONST	ENDS
;	COMDAT ??_Glength_error@std@@UAEPAXI@Z
_TEXT	SEGMENT PARA USE32 PUBLIC 'CODE'
_TEXT	ENDS
;	COMDAT __CTA3?AVlength_error@std@@
xdata$x	SEGMENT DWORD USE32 PUBLIC 'CONST'
xdata$x	ENDS
;	COMDAT __CT??_R0?AVlength_error@std@@@8??0length_error@std@@QAE@ABV01@@Z40
xdata$x	SEGMENT DWORD USE32 PUBLIC 'CONST'
xdata$x	ENDS
;	COMDAT ??_R0?AVlength_error@std@@@8
_DATA	SEGMENT DWORD USE32 PUBLIC 'DATA'
_DATA	ENDS
;	COMDAT ??0length_error@std@@QAE@ABV01@@Z
_TEXT	SEGMENT PARA USE32 PUBLIC 'CODE'
_TEXT	ENDS
;	COMDAT ??_C@_0BE@JONHPENG@map?1set?$DMT?$DO?5too?5long?$AA@
CONST	SEGMENT DWORD USE32 PUBLIC 'CONST'
CONST	ENDS
;	COMDAT ??0length_error@std@@QAE@ABV?$basic_string@DU?$char_traits@D@std@@V?$allocator@D@2@@1@@Z
_TEXT	SEGMENT PARA USE32 PUBLIC 'CODE'
_TEXT	ENDS
;	COMDAT ?insert@?$_Tree@V?$_Tmap_traits@KPAVCCtrl@@U?$less@K@std@@V?$allocator@U?$pair@$$CBKPAVCCtrl@@@std@@@3@$0A@@std@@@std@@QAE?AU?$pair@Viterator@?$_Tree@V?$_Tmap_traits@KPAVCCtrl@@U?$less@K@std@@V?$allocator@U?$pair@$$CBKPAVCCtrl@@@std@@@3@$0A@@std@@@std@@_N@2@ABU?$pair@$$CBKPAVCCtrl@@@2@@Z
_TEXT	SEGMENT PARA USE32 PUBLIC 'CODE'
_TEXT	ENDS
;	COMDAT ?_Root@?$_Tree@V?$_Tmap_traits@KPAVCCtrl@@U?$less@K@std@@V?$allocator@U?$pair@$$CBKPAVCCtrl@@@std@@@3@$0A@@std@@@std@@IAEAAPAU_Node@?$_Tree_nod@V?$_Tmap_traits@KPAVCCtrl@@U?$less@K@std@@V?$allocator@U?$pair@$$CBKPAVCCtrl@@@std@@@3@$0A@@std@@@2@XZ
_TEXT	SEGMENT PARA USE32 PUBLIC 'CODE'
_TEXT	ENDS
;	COMDAT ?_Parent@?$_Tree@V?$_Tmap_traits@KPAVCCtrl@@U?$less@K@std@@V?$allocator@U?$pair@$$CBKPAVCCtrl@@@std@@@3@$0A@@std@@@std@@KAAAPAU_Node@?$_Tree_nod@V?$_Tmap_traits@KPAVCCtrl@@U?$less@K@std@@V?$allocator@U?$pair@$$CBKPAVCCtrl@@@std@@@3@$0A@@std@@@2@PAU342@@Z
_TEXT	SEGMENT PARA USE32 PUBLIC 'CODE'
_TEXT	ENDS
;	COMDAT ?_Left@?$_Tree@V?$_Tmap_traits@KPAVCCtrl@@U?$less@K@std@@V?$allocator@U?$pair@$$CBKPAVCCtrl@@@std@@@3@$0A@@std@@@std@@KAAAPAU_Node@?$_Tree_nod@V?$_Tmap_traits@KPAVCCtrl@@U?$less@K@std@@V?$allocator@U?$pair@$$CBKPAVCCtrl@@@std@@@3@$0A@@std@@@2@PAU342@@Z
_TEXT	SEGMENT PARA USE32 PUBLIC 'CODE'
_TEXT	ENDS
;	COMDAT ??0iterator@?$_Tree@V?$_Tmap_traits@KPAVCCtrl@@U?$less@K@std@@V?$allocator@U?$pair@$$CBKPAVCCtrl@@@std@@@3@$0A@@std@@@std@@QAE@PAU_Node@?$_Tree_nod@V?$_Tmap_traits@KPAVCCtrl@@U?$less@K@std@@V?$allocator@U?$pair@$$CBKPAVCCtrl@@@std@@@3@$0A@@std@@@2@@Z
_TEXT	SEGMENT PARA USE32 PUBLIC 'CODE'
_TEXT	ENDS
;	COMDAT ??0const_iterator@?$_Tree@V?$_Tmap_traits@KPAVCCtrl@@U?$less@K@std@@V?$allocator@U?$pair@$$CBKPAVCCtrl@@@std@@@3@$0A@@std@@@std@@QAE@PAU_Node@?$_Tree_nod@V?$_Tmap_traits@KPAVCCtrl@@U?$less@K@std@@V?$allocator@U?$pair@$$CBKPAVCCtrl@@@std@@@3@$0A@@std@@@2@@Z
_TEXT	SEGMENT PARA USE32 PUBLIC 'CODE'
_TEXT	ENDS
;	COMDAT ??0?$pair@Viterator@?$_Tree@V?$_Tmap_traits@KPAVCCtrl@@U?$less@K@std@@V?$allocator@U?$pair@$$CBKPAVCCtrl@@@std@@@3@$0A@@std@@@std@@_N@std@@QAE@ABViterator@?$_Tree@V?$_Tmap_traits@KPAVCCtrl@@U?$less@K@std@@V?$allocator@U?$pair@$$CBKPAVCCtrl@@@std@@@3@$0A@@std@@@1@AB_N@Z
_TEXT	SEGMENT PARA USE32 PUBLIC 'CODE'
_TEXT	ENDS
;	COMDAT ??Eiterator@?$_Tree@V?$_Tmap_traits@KPAVCCtrl@@U?$less@K@std@@V?$allocator@U?$pair@$$CBKPAVCCtrl@@@std@@@3@$0A@@std@@@std@@QAEAAV012@XZ
_TEXT	SEGMENT PARA USE32 PUBLIC 'CODE'
_TEXT	ENDS
;	COMDAT ??Econst_iterator@?$_Tree@V?$_Tmap_traits@KPAVCCtrl@@U?$less@K@std@@V?$allocator@U?$pair@$$CBKPAVCCtrl@@@std@@@3@$0A@@std@@@std@@QAEAAV012@XZ
_TEXT	SEGMENT PARA USE32 PUBLIC 'CODE'
_TEXT	ENDS
;	COMDAT ?_Inc@const_iterator@?$_Tree@V?$_Tmap_traits@KPAVCCtrl@@U?$less@K@std@@V?$allocator@U?$pair@$$CBKPAVCCtrl@@@std@@@3@$0A@@std@@@std@@QAEXXZ
_TEXT	SEGMENT PARA USE32 PUBLIC 'CODE'
_TEXT	ENDS
;	COMDAT ?_Min@?$_Tree@V?$_Tmap_traits@KPAVCCtrl@@U?$less@K@std@@V?$allocator@U?$pair@$$CBKPAVCCtrl@@@std@@@3@$0A@@std@@@std@@KAPAU_Node@?$_Tree_nod@V?$_Tmap_traits@KPAVCCtrl@@U?$less@K@std@@V?$allocator@U?$pair@$$CBKPAVCCtrl@@@std@@@3@$0A@@std@@@2@PAU342@@Z
_TEXT	SEGMENT PARA USE32 PUBLIC 'CODE'
_TEXT	ENDS
;	COMDAT ?_Right@?$_Tree@V?$_Tmap_traits@KPAVCCtrl@@U?$less@K@std@@V?$allocator@U?$pair@$$CBKPAVCCtrl@@@std@@@3@$0A@@std@@@std@@KAAAPAU_Node@?$_Tree_nod@V?$_Tmap_traits@KPAVCCtrl@@U?$less@K@std@@V?$allocator@U?$pair@$$CBKPAVCCtrl@@@std@@@3@$0A@@std@@@2@PAU342@@Z
_TEXT	SEGMENT PARA USE32 PUBLIC 'CODE'
_TEXT	ENDS
;	COMDAT ?_Isnil@?$_Tree@V?$_Tmap_traits@KPAVCCtrl@@U?$less@K@std@@V?$allocator@U?$pair@$$CBKPAVCCtrl@@@std@@@3@$0A@@std@@@std@@KAAADPAU_Node@?$_Tree_nod@V?$_Tmap_traits@KPAVCCtrl@@U?$less@K@std@@V?$allocator@U?$pair@$$CBKPAVCCtrl@@@std@@@3@$0A@@std@@@2@@Z
_TEXT	SEGMENT PARA USE32 PUBLIC 'CODE'
_TEXT	ENDS
;	COMDAT ??Fiterator@?$_Tree@V?$_Tmap_traits@KPAVCCtrl@@U?$less@K@std@@V?$allocator@U?$pair@$$CBKPAVCCtrl@@@std@@@3@$0A@@std@@@std@@QAEAAV012@XZ
_TEXT	SEGMENT PARA USE32 PUBLIC 'CODE'
_TEXT	ENDS
;	COMDAT ??Fconst_iterator@?$_Tree@V?$_Tmap_traits@KPAVCCtrl@@U?$less@K@std@@V?$allocator@U?$pair@$$CBKPAVCCtrl@@@std@@@3@$0A@@std@@@std@@QAEAAV012@XZ
_TEXT	SEGMENT PARA USE32 PUBLIC 'CODE'
_TEXT	ENDS
;	COMDAT ?_Dec@const_iterator@?$_Tree@V?$_Tmap_traits@KPAVCCtrl@@U?$less@K@std@@V?$allocator@U?$pair@$$CBKPAVCCtrl@@@std@@@3@$0A@@std@@@std@@QAEXXZ
_TEXT	SEGMENT PARA USE32 PUBLIC 'CODE'
_TEXT	ENDS
;	COMDAT ?_Max@?$_Tree@V?$_Tmap_traits@KPAVCCtrl@@U?$less@K@std@@V?$allocator@U?$pair@$$CBKPAVCCtrl@@@std@@@3@$0A@@std@@@std@@KAPAU_Node@?$_Tree_nod@V?$_Tmap_traits@KPAVCCtrl@@U?$less@K@std@@V?$allocator@U?$pair@$$CBKPAVCCtrl@@@std@@@3@$0A@@std@@@2@PAU342@@Z
_TEXT	SEGMENT PARA USE32 PUBLIC 'CODE'
_TEXT	ENDS
;	COMDAT ?_Rmost@?$_Tree@V?$_Tmap_traits@KPAVCCtrl@@U?$less@K@std@@V?$allocator@U?$pair@$$CBKPAVCCtrl@@@std@@@3@$0A@@std@@@std@@IAEAAPAU_Node@?$_Tree_nod@V?$_Tmap_traits@KPAVCCtrl@@U?$less@K@std@@V?$allocator@U?$pair@$$CBKPAVCCtrl@@@std@@@3@$0A@@std@@@2@XZ
_TEXT	SEGMENT PARA USE32 PUBLIC 'CODE'
_TEXT	ENDS
;	COMDAT ?_Kfn@?$_Tmap_traits@KPAVCCtrl@@U?$less@K@std@@V?$allocator@U?$pair@$$CBKPAVCCtrl@@@std@@@3@$0A@@std@@SAABKABU?$pair@$$CBKPAVCCtrl@@@2@@Z
_TEXT	SEGMENT PARA USE32 PUBLIC 'CODE'
_TEXT	ENDS
;	COMDAT ?begin@?$_Tree@V?$_Tmap_traits@KPAVCCtrl@@U?$less@K@std@@V?$allocator@U?$pair@$$CBKPAVCCtrl@@@std@@@3@$0A@@std@@@std@@QAE?AViterator@12@XZ
_TEXT	SEGMENT PARA USE32 PUBLIC 'CODE'
_TEXT	ENDS
;	COMDAT ?_Lmost@?$_Tree@V?$_Tmap_traits@KPAVCCtrl@@U?$less@K@std@@V?$allocator@U?$pair@$$CBKPAVCCtrl@@@std@@@3@$0A@@std@@@std@@IAEAAPAU_Node@?$_Tree_nod@V?$_Tmap_traits@KPAVCCtrl@@U?$less@K@std@@V?$allocator@U?$pair@$$CBKPAVCCtrl@@@std@@@3@$0A@@std@@@2@XZ
_TEXT	SEGMENT PARA USE32 PUBLIC 'CODE'
_TEXT	ENDS
;	COMDAT ?_Insert@?$_Tree@V?$_Tmap_traits@KPAVCCtrl@@U?$less@K@std@@V?$allocator@U?$pair@$$CBKPAVCCtrl@@@std@@@3@$0A@@std@@@std@@IAE?AViterator@12@_NPAU_Node@?$_Tree_nod@V?$_Tmap_traits@KPAVCCtrl@@U?$less@K@std@@V?$allocator@U?$pair@$$CBKPAVCCtrl@@@std@@@3@$0A@@std@@@2@ABU?$pair@$$CBKPAVCCtrl@@@2@@Z
_TEXT	SEGMENT PARA USE32 PUBLIC 'CODE'
_TEXT	ENDS
;	COMDAT ?max_size@?$_Tree@V?$_Tmap_traits@KPAVCCtrl@@U?$less@K@std@@V?$allocator@U?$pair@$$CBKPAVCCtrl@@@std@@@3@$0A@@std@@@std@@QBEIXZ
_TEXT	SEGMENT PARA USE32 PUBLIC 'CODE'
_TEXT	ENDS
;	COMDAT ?max_size@?$allocator@U?$pair@$$CBKPAVCCtrl@@@std@@@std@@QBEIXZ
_TEXT	SEGMENT PARA USE32 PUBLIC 'CODE'
_TEXT	ENDS
;	COMDAT ?_Buynode@?$_Tree@V?$_Tmap_traits@KPAVCCtrl@@U?$less@K@std@@V?$allocator@U?$pair@$$CBKPAVCCtrl@@@std@@@3@$0A@@std@@@std@@IAEPAU_Node@?$_Tree_nod@V?$_Tmap_traits@KPAVCCtrl@@U?$less@K@std@@V?$allocator@U?$pair@$$CBKPAVCCtrl@@@std@@@3@$0A@@std@@@2@PAU342@00ABU?$pair@$$CBKPAVCCtrl@@@2@D@Z
_TEXT	SEGMENT PARA USE32 PUBLIC 'CODE'
_TEXT	ENDS
;	COMDAT ?allocate@?$allocator@U_Node@?$_Tree_nod@V?$_Tmap_traits@KPAVCCtrl@@U?$less@K@std@@V?$allocator@U?$pair@$$CBKPAVCCtrl@@@std@@@3@$0A@@std@@@std@@@std@@QAEPAU_Node@?$_Tree_nod@V?$_Tmap_traits@KPAVCCtrl@@U?$less@K@std@@V?$allocator@U?$pair@$$CBKPAVCCtrl@@@std@@@3@$0A@@std@@@2@I@Z
_TEXT	SEGMENT PARA USE32 PUBLIC 'CODE'
_TEXT	ENDS
;	COMDAT ??$_Allocate@U_Node@?$_Tree_nod@V?$_Tmap_traits@KPAVCCtrl@@U?$less@K@std@@V?$allocator@U?$pair@$$CBKPAVCCtrl@@@std@@@3@$0A@@std@@@std@@@std@@YAPAU_Node@?$_Tree_nod@V?$_Tmap_traits@KPAVCCtrl@@U?$less@K@std@@V?$allocator@U?$pair@$$CBKPAVCCtrl@@@std@@@3@$0A@@std@@@0@IPAU120@@Z
_TEXT	SEGMENT PARA USE32 PUBLIC 'CODE'
_TEXT	ENDS
;	COMDAT ??0_Node@?$_Tree_nod@V?$_Tmap_traits@KPAVCCtrl@@U?$less@K@std@@V?$allocator@U?$pair@$$CBKPAVCCtrl@@@std@@@3@$0A@@std@@@std@@QAE@PAU012@00ABU?$pair@$$CBKPAVCCtrl@@@2@D@Z
_TEXT	SEGMENT PARA USE32 PUBLIC 'CODE'
_TEXT	ENDS
;	COMDAT ?deallocate@?$allocator@U_Node@?$_Tree_nod@V?$_Tmap_traits@KPAVCCtrl@@U?$less@K@std@@V?$allocator@U?$pair@$$CBKPAVCCtrl@@@std@@@3@$0A@@std@@@std@@@std@@QAEXPAU_Node@?$_Tree_nod@V?$_Tmap_traits@KPAVCCtrl@@U?$less@K@std@@V?$allocator@U?$pair@$$CBKPAVCCtrl@@@std@@@3@$0A@@std@@@2@I@Z
_TEXT	SEGMENT PARA USE32 PUBLIC 'CODE'
_TEXT	ENDS
;	COMDAT ?_Rrotate@?$_Tree@V?$_Tmap_traits@KPAVCCtrl@@U?$less@K@std@@V?$allocator@U?$pair@$$CBKPAVCCtrl@@@std@@@3@$0A@@std@@@std@@IAEXPAU_Node@?$_Tree_nod@V?$_Tmap_traits@KPAVCCtrl@@U?$less@K@std@@V?$allocator@U?$pair@$$CBKPAVCCtrl@@@std@@@3@$0A@@std@@@2@@Z
_TEXT	SEGMENT PARA USE32 PUBLIC 'CODE'
_TEXT	ENDS
;	COMDAT ?_Lrotate@?$_Tree@V?$_Tmap_traits@KPAVCCtrl@@U?$less@K@std@@V?$allocator@U?$pair@$$CBKPAVCCtrl@@@std@@@3@$0A@@std@@@std@@IAEXPAU_Node@?$_Tree_nod@V?$_Tmap_traits@KPAVCCtrl@@U?$less@K@std@@V?$allocator@U?$pair@$$CBKPAVCCtrl@@@std@@@3@$0A@@std@@@2@@Z
_TEXT	SEGMENT PARA USE32 PUBLIC 'CODE'
_TEXT	ENDS
;	COMDAT ?_Color@?$_Tree@V?$_Tmap_traits@KPAVCCtrl@@U?$less@K@std@@V?$allocator@U?$pair@$$CBKPAVCCtrl@@@std@@@3@$0A@@std@@@std@@KAAADPAU_Node@?$_Tree_nod@V?$_Tmap_traits@KPAVCCtrl@@U?$less@K@std@@V?$allocator@U?$pair@$$CBKPAVCCtrl@@@std@@@3@$0A@@std@@@2@@Z
_TEXT	SEGMENT PARA USE32 PUBLIC 'CODE'
_TEXT	ENDS
;	COMDAT ?compare@?$char_traits@D@std@@SAHPBD0I@Z
_TEXT	SEGMENT PARA USE32 PUBLIC 'CODE'
_TEXT	ENDS
;	COMDAT ??1?$_Tree@V?$_Tmap_traits@KHU?$less@K@std@@V?$allocator@U?$pair@$$CBKH@std@@@2@$0A@@std@@@std@@QAE@XZ
_TEXT	SEGMENT PARA USE32 PUBLIC 'CODE'
_TEXT	ENDS
;	COMDAT ?_Tidy@?$_Tree@V?$_Tmap_traits@KHU?$less@K@std@@V?$allocator@U?$pair@$$CBKH@std@@@2@$0A@@std@@@std@@IAEXXZ
_TEXT	SEGMENT PARA USE32 PUBLIC 'CODE'
_TEXT	ENDS
;	COMDAT ?erase@?$_Tree@V?$_Tmap_traits@KHU?$less@K@std@@V?$allocator@U?$pair@$$CBKH@std@@@2@$0A@@std@@@std@@QAE?AViterator@12@V312@0@Z
_TEXT	SEGMENT PARA USE32 PUBLIC 'CODE'
_TEXT	ENDS
;	COMDAT ??8const_iterator@?$_Tree@V?$_Tmap_traits@KHU?$less@K@std@@V?$allocator@U?$pair@$$CBKH@std@@@2@$0A@@std@@@std@@QBE_NABV012@@Z
_TEXT	SEGMENT PARA USE32 PUBLIC 'CODE'
_TEXT	ENDS
;	COMDAT ?clear@?$_Tree@V?$_Tmap_traits@KHU?$less@K@std@@V?$allocator@U?$pair@$$CBKH@std@@@2@$0A@@std@@@std@@QAEXXZ
_TEXT	SEGMENT PARA USE32 PUBLIC 'CODE'
_TEXT	ENDS
;	COMDAT ?_Erase@?$_Tree@V?$_Tmap_traits@KHU?$less@K@std@@V?$allocator@U?$pair@$$CBKH@std@@@2@$0A@@std@@@std@@IAEXPAU_Node@?$_Tree_nod@V?$_Tmap_traits@KHU?$less@K@std@@V?$allocator@U?$pair@$$CBKH@std@@@2@$0A@@std@@@2@@Z
_TEXT	SEGMENT PARA USE32 PUBLIC 'CODE'
_TEXT	ENDS
;	COMDAT ?destroy@?$allocator@U_Node@?$_Tree_nod@V?$_Tmap_traits@KHU?$less@K@std@@V?$allocator@U?$pair@$$CBKH@std@@@2@$0A@@std@@@std@@@std@@QAEXPAU_Node@?$_Tree_nod@V?$_Tmap_traits@KHU?$less@K@std@@V?$allocator@U?$pair@$$CBKH@std@@@2@$0A@@std@@@2@@Z
_TEXT	SEGMENT PARA USE32 PUBLIC 'CODE'
_TEXT	ENDS
;	COMDAT ??$_Destroy@U_Node@?$_Tree_nod@V?$_Tmap_traits@KHU?$less@K@std@@V?$allocator@U?$pair@$$CBKH@std@@@2@$0A@@std@@@std@@@std@@YAXPAU_Node@?$_Tree_nod@V?$_Tmap_traits@KHU?$less@K@std@@V?$allocator@U?$pair@$$CBKH@std@@@2@$0A@@std@@@0@@Z
_TEXT	SEGMENT PARA USE32 PUBLIC 'CODE'
_TEXT	ENDS
;	COMDAT ?erase@?$_Tree@V?$_Tmap_traits@KHU?$less@K@std@@V?$allocator@U?$pair@$$CBKH@std@@@2@$0A@@std@@@std@@QAE?AViterator@12@V312@@Z
_TEXT	SEGMENT PARA USE32 PUBLIC 'CODE'
_TEXT	ENDS
;	COMDAT ??Eiterator@?$_Tree@V?$_Tmap_traits@KHU?$less@K@std@@V?$allocator@U?$pair@$$CBKH@std@@@2@$0A@@std@@@std@@QAEAAV012@XZ
_TEXT	SEGMENT PARA USE32 PUBLIC 'CODE'
_TEXT	ENDS
;	COMDAT ??Econst_iterator@?$_Tree@V?$_Tmap_traits@KHU?$less@K@std@@V?$allocator@U?$pair@$$CBKH@std@@@2@$0A@@std@@@std@@QAEAAV012@XZ
_TEXT	SEGMENT PARA USE32 PUBLIC 'CODE'
_TEXT	ENDS
;	COMDAT ?_Inc@const_iterator@?$_Tree@V?$_Tmap_traits@KHU?$less@K@std@@V?$allocator@U?$pair@$$CBKH@std@@@2@$0A@@std@@@std@@QAEXXZ
_TEXT	SEGMENT PARA USE32 PUBLIC 'CODE'
_TEXT	ENDS
;	COMDAT ?_Mynode@const_iterator@?$_Tree@V?$_Tmap_traits@KHU?$less@K@std@@V?$allocator@U?$pair@$$CBKH@std@@@2@$0A@@std@@@std@@QBEPAU_Node@?$_Tree_nod@V?$_Tmap_traits@KHU?$less@K@std@@V?$allocator@U?$pair@$$CBKH@std@@@2@$0A@@std@@@3@XZ
_TEXT	SEGMENT PARA USE32 PUBLIC 'CODE'
_TEXT	ENDS
;	COMDAT ?_Min@?$_Tree@V?$_Tmap_traits@KHU?$less@K@std@@V?$allocator@U?$pair@$$CBKH@std@@@2@$0A@@std@@@std@@KAPAU_Node@?$_Tree_nod@V?$_Tmap_traits@KHU?$less@K@std@@V?$allocator@U?$pair@$$CBKH@std@@@2@$0A@@std@@@2@PAU342@@Z
_TEXT	SEGMENT PARA USE32 PUBLIC 'CODE'
_TEXT	ENDS
;	COMDAT ?_Max@?$_Tree@V?$_Tmap_traits@KHU?$less@K@std@@V?$allocator@U?$pair@$$CBKH@std@@@2@$0A@@std@@@std@@KAPAU_Node@?$_Tree_nod@V?$_Tmap_traits@KHU?$less@K@std@@V?$allocator@U?$pair@$$CBKH@std@@@2@$0A@@std@@@2@PAU342@@Z
_TEXT	SEGMENT PARA USE32 PUBLIC 'CODE'
_TEXT	ENDS
;	COMDAT ?_Lrotate@?$_Tree@V?$_Tmap_traits@KHU?$less@K@std@@V?$allocator@U?$pair@$$CBKH@std@@@2@$0A@@std@@@std@@IAEXPAU_Node@?$_Tree_nod@V?$_Tmap_traits@KHU?$less@K@std@@V?$allocator@U?$pair@$$CBKH@std@@@2@$0A@@std@@@2@@Z
_TEXT	SEGMENT PARA USE32 PUBLIC 'CODE'
_TEXT	ENDS
;	COMDAT ?_Rrotate@?$_Tree@V?$_Tmap_traits@KHU?$less@K@std@@V?$allocator@U?$pair@$$CBKH@std@@@2@$0A@@std@@@std@@IAEXPAU_Node@?$_Tree_nod@V?$_Tmap_traits@KHU?$less@K@std@@V?$allocator@U?$pair@$$CBKH@std@@@2@$0A@@std@@@2@@Z
_TEXT	SEGMENT PARA USE32 PUBLIC 'CODE'
_TEXT	ENDS
;	COMDAT ??Diterator@?$_Tree@V?$_Tmap_traits@KPAVCCtrl@@U?$less@K@std@@V?$allocator@U?$pair@$$CBKPAVCCtrl@@@std@@@3@$0A@@std@@@std@@QBEAAU?$pair@$$CBKPAVCCtrl@@@2@XZ
_TEXT	SEGMENT PARA USE32 PUBLIC 'CODE'
_TEXT	ENDS
;	COMDAT ??Dconst_iterator@?$_Tree@V?$_Tmap_traits@KPAVCCtrl@@U?$less@K@std@@V?$allocator@U?$pair@$$CBKPAVCCtrl@@@std@@@3@$0A@@std@@@std@@QBEABU?$pair@$$CBKPAVCCtrl@@@2@XZ
_TEXT	SEGMENT PARA USE32 PUBLIC 'CODE'
_TEXT	ENDS
;	COMDAT ?_Myval@?$_Tree@V?$_Tmap_traits@KPAVCCtrl@@U?$less@K@std@@V?$allocator@U?$pair@$$CBKPAVCCtrl@@@std@@@3@$0A@@std@@@std@@KAAAU?$pair@$$CBKPAVCCtrl@@@2@PAU_Node@?$_Tree_nod@V?$_Tmap_traits@KPAVCCtrl@@U?$less@K@std@@V?$allocator@U?$pair@$$CBKPAVCCtrl@@@std@@@3@$0A@@std@@@2@@Z
_TEXT	SEGMENT PARA USE32 PUBLIC 'CODE'
_TEXT	ENDS
;	COMDAT ?_Mynode@const_iterator@?$_Tree@V?$_Tmap_traits@KPAVCCtrl@@U?$less@K@std@@V?$allocator@U?$pair@$$CBKPAVCCtrl@@@std@@@3@$0A@@std@@@std@@QBEPAU_Node@?$_Tree_nod@V?$_Tmap_traits@KPAVCCtrl@@U?$less@K@std@@V?$allocator@U?$pair@$$CBKPAVCCtrl@@@std@@@3@$0A@@std@@@3@XZ
_TEXT	SEGMENT PARA USE32 PUBLIC 'CODE'
_TEXT	ENDS
;	COMDAT ?_Key@?$_Tree@V?$_Tmap_traits@KPAVCCtrl@@U?$less@K@std@@V?$allocator@U?$pair@$$CBKPAVCCtrl@@@std@@@3@$0A@@std@@@std@@KAABKPAU_Node@?$_Tree_nod@V?$_Tmap_traits@KPAVCCtrl@@U?$less@K@std@@V?$allocator@U?$pair@$$CBKPAVCCtrl@@@std@@@3@$0A@@std@@@2@@Z
_TEXT	SEGMENT PARA USE32 PUBLIC 'CODE'
_TEXT	ENDS
;	COMDAT ??R?$less@K@std@@QBE_NABK0@Z
_TEXT	SEGMENT PARA USE32 PUBLIC 'CODE'
_TEXT	ENDS
;	COMDAT ?end@?$_Tree@V?$_Tmap_traits@KPAVCCtrl@@U?$less@K@std@@V?$allocator@U?$pair@$$CBKPAVCCtrl@@@std@@@3@$0A@@std@@@std@@QAE?AViterator@12@XZ
_TEXT	SEGMENT PARA USE32 PUBLIC 'CODE'
_TEXT	ENDS
;	COMDAT ??8const_iterator@?$_Tree@V?$_Tmap_traits@KPAVCCtrl@@U?$less@K@std@@V?$allocator@U?$pair@$$CBKPAVCCtrl@@@std@@@3@$0A@@std@@@std@@QBE_NABV012@@Z
_TEXT	SEGMENT PARA USE32 PUBLIC 'CODE'
_TEXT	ENDS
;	COMDAT ?lower_bound@?$_Tree@V?$_Tmap_traits@KPAVCCtrl@@U?$less@K@std@@V?$allocator@U?$pair@$$CBKPAVCCtrl@@@std@@@3@$0A@@std@@@std@@QAE?AViterator@12@ABK@Z
_TEXT	SEGMENT PARA USE32 PUBLIC 'CODE'
_TEXT	ENDS
;	COMDAT ?_Lbound@?$_Tree@V?$_Tmap_traits@KPAVCCtrl@@U?$less@K@std@@V?$allocator@U?$pair@$$CBKPAVCCtrl@@@std@@@3@$0A@@std@@@std@@IBEPAU_Node@?$_Tree_nod@V?$_Tmap_traits@KPAVCCtrl@@U?$less@K@std@@V?$allocator@U?$pair@$$CBKPAVCCtrl@@@std@@@3@$0A@@std@@@2@ABK@Z
_TEXT	SEGMENT PARA USE32 PUBLIC 'CODE'
_TEXT	ENDS
;	COMDAT ?_Root@?$_Tree@V?$_Tmap_traits@KPAVCCtrl@@U?$less@K@std@@V?$allocator@U?$pair@$$CBKPAVCCtrl@@@std@@@3@$0A@@std@@@std@@IBEAAPAU_Node@?$_Tree_nod@V?$_Tmap_traits@KPAVCCtrl@@U?$less@K@std@@V?$allocator@U?$pair@$$CBKPAVCCtrl@@@std@@@3@$0A@@std@@@2@XZ
_TEXT	SEGMENT PARA USE32 PUBLIC 'CODE'
_TEXT	ENDS
;	COMDAT ?_Myptr@?$basic_string@DU?$char_traits@D@std@@V?$allocator@D@2@@std@@QBEPBDXZ
_TEXT	SEGMENT PARA USE32 PUBLIC 'CODE'
_TEXT	ENDS
;	COMDAT ?size@?$basic_string@DU?$char_traits@D@std@@V?$allocator@D@2@@std@@QBEIXZ
_TEXT	SEGMENT PARA USE32 PUBLIC 'CODE'
_TEXT	ENDS
;	COMDAT ?GetLayer@CObj@@QAEHXZ
_TEXT	SEGMENT PARA USE32 PUBLIC 'CODE'
_TEXT	ENDS
;	COMDAT ?eventitem@?N@??OnDiedSchoolEvent@CAttackArbiter@@AAEXXZ@4PAUtagEVENTITEM@@A
_DATA	SEGMENT DWORD USE32 PUBLIC 'DATA'
_DATA	ENDS
;	COMDAT ?SetMode@CMover@@QAEXK@Z
_TEXT	SEGMENT PARA USE32 PUBLIC 'CODE'
_TEXT	ENDS
;	COMDAT ?SetPosChanged@CObj@@QAEXH@Z
_TEXT	SEGMENT PARA USE32 PUBLIC 'CODE'
_TEXT	ENDS
;	COMDAT ?SetFlag@CObj@@AAEXHK@Z
_TEXT	SEGMENT PARA USE32 PUBLIC 'CODE'
_TEXT	ENDS
;	COMDAT ?ClearDestObj@CMover@@QAEXXZ
_TEXT	SEGMENT PARA USE32 PUBLIC 'CODE'
_TEXT	ENDS
;	COMDAT ?GetPKPropensity@CMover@@QAEKXZ
_TEXT	SEGMENT PARA USE32 PUBLIC 'CODE'
_TEXT	ENDS
;	COMDAT ?IsChaotic@CMover@@QAEHXZ
_TEXT	SEGMENT PARA USE32 PUBLIC 'CODE'
_TEXT	ENDS
;	COMDAT ?IsArena@CWorld@@QAEHXZ
_TEXT	SEGMENT PARA USE32 PUBLIC 'CODE'
_TEXT	ENDS
;	COMDAT ?GetWorld@CObj@@QAEPAVCWorld@@XZ
_TEXT	SEGMENT PARA USE32 PUBLIC 'CODE'
_TEXT	ENDS
;	COMDAT ?GetOwner@CMover@@QAEKXZ
_TEXT	SEGMENT PARA USE32 PUBLIC 'CODE'
_TEXT	ENDS
;	COMDAT ?IsValidObjID@@YAHK@Z
_TEXT	SEGMENT PARA USE32 PUBLIC 'CODE'
_TEXT	ENDS
;	COMDAT ?HasOwner@CMover@@QAEHXZ
_TEXT	SEGMENT PARA USE32 PUBLIC 'CODE'
_TEXT	ENDS
;	COMDAT ?IsDie@CMover@@QAEHXZ
_TEXT	SEGMENT PARA USE32 PUBLIC 'CODE'
_TEXT	ENDS
;	COMDAT ?IsDie@CAction@@QAEHXZ
_TEXT	SEGMENT PARA USE32 PUBLIC 'CODE'
_TEXT	ENDS
;	COMDAT ?SetAggro@CMover@@QAEXJ@Z
_TEXT	SEGMENT PARA USE32 PUBLIC 'CODE'
_TEXT	ENDS
;	COMDAT ?GetItemProp@CProject@@QAEPAUItemProp@@H@Z
_TEXT	SEGMENT PARA USE32 PUBLIC 'CODE'
_TEXT	ENDS
;	COMDAT ?LOG_RANGE@@YAXPBDHHH@Z
_TEXT	SEGMENT PARA USE32 PUBLIC 'CODE'
_TEXT	ENDS
;	COMDAT ??_C@_0BM@HMFGHCP@?$CFs?5min?3?$CFd?0?5max?3?$CFd?0?5index?3?$CFd?$AA@
CONST	SEGMENT DWORD USE32 PUBLIC 'CONST'
CONST	ENDS
;	COMDAT ?GetSize@?$CFixedArray@UItemProp@@@@QAEHXZ
_TEXT	SEGMENT PARA USE32 PUBLIC 'CODE'
_TEXT	ENDS
;	COMDAT ??_C@_0BI@BEIFNGEL@GetItemProp?5range_error?$AA@
CONST	SEGMENT DWORD USE32 PUBLIC 'CONST'
CONST	ENDS
;	COMDAT ?LOG_CALLSTACK@@YAXXZ
_TEXT	SEGMENT PARA USE32 PUBLIC 'CODE'
_TEXT	ENDS
;	COMDAT ?GetAt@?$CFixedArray@UItemProp@@@@QAEPAUItemProp@@K@Z
_TEXT	SEGMENT PARA USE32 PUBLIC 'CODE'
_TEXT	ENDS
;	COMDAT ?GetPiercingItem@CItemElem@@QAEKH@Z
_TEXT	SEGMENT PARA USE32 PUBLIC 'CODE'
_TEXT	ENDS
;	COMDAT ?GetPiercingSize@CItemElem@@QAEHXZ
_TEXT	SEGMENT PARA USE32 PUBLIC 'CODE'
_TEXT	ENDS
;	COMDAT ?IsBaruna@ItemProp@@QAEHXZ
_TEXT	SEGMENT PARA USE32 PUBLIC 'CODE'
_TEXT	ENDS
;	COMDAT ?GetPropA@CItemElem@@QAEPAUItemProp@@XZ
_TEXT	SEGMENT PARA USE32 PUBLIC 'CODE'
_TEXT	ENDS
;	COMDAT ?random@@YAHH@Z
_TEXT	SEGMENT PARA USE32 PUBLIC 'CODE'
_TEXT	ENDS
;	COMDAT ?GetType@CObj@@QAEKXZ
_TEXT	SEGMENT PARA USE32 PUBLIC 'CODE'
_TEXT	ENDS
;	COMDAT ?IsSMMode@CMover@@QAEHH@Z
_TEXT	SEGMENT PARA USE32 PUBLIC 'CODE'
_TEXT	ENDS
;	COMDAT ?GetGold@CMover@@QAEHXZ
_TEXT	SEGMENT PARA USE32 PUBLIC 'CODE'
_TEXT	ENDS
;	COMDAT ?GetPos@CObj@@QAE?AUD3DXVECTOR3@@XZ
_TEXT	SEGMENT PARA USE32 PUBLIC 'CODE'
_TEXT	ENDS
;	COMDAT ?GetLevel@CMover@@QAEHXZ
_TEXT	SEGMENT PARA USE32 PUBLIC 'CODE'
_TEXT	ENDS
;	COMDAT ?GetPropA@CMover@@QAEPAUMoverProp@@XZ
_TEXT	SEGMENT PARA USE32 PUBLIC 'CODE'
_TEXT	ENDS
;	COMDAT ?GetMoverProp@CProject@@QAEPAUMoverProp@@H@Z
_TEXT	SEGMENT PARA USE32 PUBLIC 'CODE'
_TEXT	ENDS
;	COMDAT ??_C@_0BJ@GKPOBPPI@GetMoverProp?5range_error?$AA@
CONST	SEGMENT DWORD USE32 PUBLIC 'CONST'
CONST	ENDS
;	COMDAT ?GetId@CCtrl@@QAEKXZ
_TEXT	SEGMENT PARA USE32 PUBLIC 'CODE'
_TEXT	ENDS
;	COMDAT ?SendDamage@CActionMover@@QAEHKKHHH@Z
_TEXT	SEGMENT PARA USE32 PUBLIC 'CODE'
_TEXT	ENDS
;	COMDAT ?IsSit@CAction@@QAEHXZ
_TEXT	SEGMENT PARA USE32 PUBLIC 'CODE'
_TEXT	ENDS
;	COMDAT ?GetPKValue@CMover@@QAEHXZ
_TEXT	SEGMENT PARA USE32 PUBLIC 'CODE'
_TEXT	ENDS
;	COMDAT ?IsPlayer@CMover@@QAEHXZ
_TEXT	SEGMENT PARA USE32 PUBLIC 'CODE'
_TEXT	ENDS
;	COMDAT ?IsMode@CMover@@QAEHK@Z
_TEXT	SEGMENT PARA USE32 PUBLIC 'CODE'
_TEXT	ENDS
;	COMDAT ?GetIndex@CObj@@QAEKXZ
_TEXT	SEGMENT PARA USE32 PUBLIC 'CODE'
_TEXT	ENDS
;	COMDAT ?IsEventSpawnMonster@CEventLua@@QAEHK@Z
_TEXT	SEGMENT PARA USE32 PUBLIC 'CODE'
_TEXT	ENDS
;	COMDAT ?find@?$_Tree@V?$_Tmap_traits@KEU?$less@K@std@@V?$allocator@U?$pair@$$CBKE@std@@@2@$0A@@std@@@std@@QAE?AViterator@12@ABK@Z
_TEXT	SEGMENT PARA USE32 PUBLIC 'CODE'
_TEXT	ENDS
;	COMDAT ?lower_bound@?$_Tree@V?$_Tmap_traits@KEU?$less@K@std@@V?$allocator@U?$pair@$$CBKE@std@@@2@$0A@@std@@@std@@QAE?AViterator@12@ABK@Z
_TEXT	SEGMENT PARA USE32 PUBLIC 'CODE'
_TEXT	ENDS
;	COMDAT ??0iterator@?$_Tree@V?$_Tmap_traits@KEU?$less@K@std@@V?$allocator@U?$pair@$$CBKE@std@@@2@$0A@@std@@@std@@QAE@PAU_Node@?$_Tree_nod@V?$_Tmap_traits@KEU?$less@K@std@@V?$allocator@U?$pair@$$CBKE@std@@@2@$0A@@std@@@2@@Z
_TEXT	SEGMENT PARA USE32 PUBLIC 'CODE'
_TEXT	ENDS
;	COMDAT ??0const_iterator@?$_Tree@V?$_Tmap_traits@KEU?$less@K@std@@V?$allocator@U?$pair@$$CBKE@std@@@2@$0A@@std@@@std@@QAE@PAU_Node@?$_Tree_nod@V?$_Tmap_traits@KEU?$less@K@std@@V?$allocator@U?$pair@$$CBKE@std@@@2@$0A@@std@@@2@@Z
_TEXT	SEGMENT PARA USE32 PUBLIC 'CODE'
_TEXT	ENDS
;	COMDAT ?_Lbound@?$_Tree@V?$_Tmap_traits@KEU?$less@K@std@@V?$allocator@U?$pair@$$CBKE@std@@@2@$0A@@std@@@std@@IBEPAU_Node@?$_Tree_nod@V?$_Tmap_traits@KEU?$less@K@std@@V?$allocator@U?$pair@$$CBKE@std@@@2@$0A@@std@@@2@ABK@Z
_TEXT	SEGMENT PARA USE32 PUBLIC 'CODE'
_TEXT	ENDS
;	COMDAT ?_Root@?$_Tree@V?$_Tmap_traits@KEU?$less@K@std@@V?$allocator@U?$pair@$$CBKE@std@@@2@$0A@@std@@@std@@IBEAAPAU_Node@?$_Tree_nod@V?$_Tmap_traits@KEU?$less@K@std@@V?$allocator@U?$pair@$$CBKE@std@@@2@$0A@@std@@@2@XZ
_TEXT	SEGMENT PARA USE32 PUBLIC 'CODE'
_TEXT	ENDS
;	COMDAT ?_Key@?$_Tree@V?$_Tmap_traits@KEU?$less@K@std@@V?$allocator@U?$pair@$$CBKE@std@@@2@$0A@@std@@@std@@KAABKPAU_Node@?$_Tree_nod@V?$_Tmap_traits@KEU?$less@K@std@@V?$allocator@U?$pair@$$CBKE@std@@@2@$0A@@std@@@2@@Z
_TEXT	SEGMENT PARA USE32 PUBLIC 'CODE'
_TEXT	ENDS
;	COMDAT ?_Kfn@?$_Tmap_traits@KEU?$less@K@std@@V?$allocator@U?$pair@$$CBKE@std@@@2@$0A@@std@@SAABKABU?$pair@$$CBKE@2@@Z
_TEXT	SEGMENT PARA USE32 PUBLIC 'CODE'
_TEXT	ENDS
;	COMDAT ?_Myval@?$_Tree@V?$_Tmap_traits@KEU?$less@K@std@@V?$allocator@U?$pair@$$CBKE@std@@@2@$0A@@std@@@std@@KAAAU?$pair@$$CBKE@2@PAU_Node@?$_Tree_nod@V?$_Tmap_traits@KEU?$less@K@std@@V?$allocator@U?$pair@$$CBKE@std@@@2@$0A@@std@@@2@@Z
_TEXT	SEGMENT PARA USE32 PUBLIC 'CODE'
_TEXT	ENDS
;	COMDAT ?_Mynode@const_iterator@?$_Tree@V?$_Tmap_traits@KEU?$less@K@std@@V?$allocator@U?$pair@$$CBKE@std@@@2@$0A@@std@@@std@@QBEPAU_Node@?$_Tree_nod@V?$_Tmap_traits@KEU?$less@K@std@@V?$allocator@U?$pair@$$CBKE@std@@@2@$0A@@std@@@3@XZ
_TEXT	SEGMENT PARA USE32 PUBLIC 'CODE'
_TEXT	ENDS
;	COMDAT ?end@?$_Tree@V?$_Tmap_traits@KEU?$less@K@std@@V?$allocator@U?$pair@$$CBKE@std@@@2@$0A@@std@@@std@@QAE?AViterator@12@XZ
_TEXT	SEGMENT PARA USE32 PUBLIC 'CODE'
_TEXT	ENDS
;	COMDAT ?IsNPC@CMover@@QAEHXZ
_TEXT	SEGMENT PARA USE32 PUBLIC 'CODE'
_TEXT	ENDS
;	COMDAT ??_7CAttackArbiter@@6B@
CONST	SEGMENT DWORD USE32 PUBLIC 'CONST'
CONST	ENDS
;	COMDAT ?IsSkillAttack@@YAHK@Z
_TEXT	SEGMENT PARA USE32 PUBLIC 'CODE'
_TEXT	ENDS
;	COMDAT ?end@?$_Tree@V?$_Tmap_traits@KHU?$less@K@std@@V?$allocator@U?$pair@$$CBKH@std@@@2@$0A@@std@@@std@@QAE?AViterator@12@XZ
_TEXT	SEGMENT PARA USE32 PUBLIC 'CODE'
_TEXT	ENDS
;	COMDAT ??0iterator@?$_Tree@V?$_Tmap_traits@KHU?$less@K@std@@V?$allocator@U?$pair@$$CBKH@std@@@2@$0A@@std@@@std@@QAE@PAU_Node@?$_Tree_nod@V?$_Tmap_traits@KHU?$less@K@std@@V?$allocator@U?$pair@$$CBKH@std@@@2@$0A@@std@@@2@@Z
_TEXT	SEGMENT PARA USE32 PUBLIC 'CODE'
_TEXT	ENDS
;	COMDAT ??0const_iterator@?$_Tree@V?$_Tmap_traits@KHU?$less@K@std@@V?$allocator@U?$pair@$$CBKH@std@@@2@$0A@@std@@@std@@QAE@PAU_Node@?$_Tree_nod@V?$_Tmap_traits@KHU?$less@K@std@@V?$allocator@U?$pair@$$CBKH@std@@@2@$0A@@std@@@2@@Z
_TEXT	SEGMENT PARA USE32 PUBLIC 'CODE'
_TEXT	ENDS
;	COMDAT ??9const_iterator@?$_Tree@V?$_Tmap_traits@KHU?$less@K@std@@V?$allocator@U?$pair@$$CBKH@std@@@2@$0A@@std@@@std@@QBE_NABV012@@Z
_TEXT	SEGMENT PARA USE32 PUBLIC 'CODE'
_TEXT	ENDS
;	COMDAT ??Eiterator@?$_Tree@V?$_Tmap_traits@KHU?$less@K@std@@V?$allocator@U?$pair@$$CBKH@std@@@2@$0A@@std@@@std@@QAE?AV012@H@Z
_TEXT	SEGMENT PARA USE32 PUBLIC 'CODE'
_TEXT	ENDS
;	COMDAT ?begin@?$_Tree@V?$_Tmap_traits@KHU?$less@K@std@@V?$allocator@U?$pair@$$CBKH@std@@@2@$0A@@std@@@std@@QAE?AViterator@12@XZ
_TEXT	SEGMENT PARA USE32 PUBLIC 'CODE'
_TEXT	ENDS
;	COMDAT ?xRandom@@YAKK@Z
_TEXT	SEGMENT PARA USE32 PUBLIC 'CODE'
_TEXT	ENDS
;	COMDAT ?xRand@@YAKXZ
_TEXT	SEGMENT PARA USE32 PUBLIC 'CODE'
_TEXT	ENDS
;	COMDAT ??1?$map@KHU?$less@K@std@@V?$allocator@U?$pair@$$CBKH@std@@@2@@std@@QAE@XZ
_TEXT	SEGMENT PARA USE32 PUBLIC 'CODE'
_TEXT	ENDS
;	COMDAT ??_7CMapChildE@@6B@
CONST	SEGMENT DWORD USE32 PUBLIC 'CONST'
CONST	ENDS
;	COMDAT ?Leave@CMclCritSec@@QAEXXZ
_TEXT	SEGMENT PARA USE32 PUBLIC 'CODE'
_TEXT	ENDS
;	COMDAT ?Enter@CMclCritSec@@QAEXXZ
_TEXT	SEGMENT PARA USE32 PUBLIC 'CODE'
_TEXT	ENDS
;	COMDAT ??1CMclCritSec@@UAE@XZ
_TEXT	SEGMENT PARA USE32 PUBLIC 'CODE'
_TEXT	ENDS
;	COMDAT ??_7CMclCritSec@@6B@
CONST	SEGMENT DWORD USE32 PUBLIC 'CONST'
CONST	ENDS
;	COMDAT ??_GCMclCritSec@@UAEPAXI@Z
_TEXT	SEGMENT PARA USE32 PUBLIC 'CODE'
_TEXT	ENDS
;	COMDAT ??0CMclCritSec@@QAE@XZ
_TEXT	SEGMENT PARA USE32 PUBLIC 'CODE'
_TEXT	ENDS
;	COMDAT ??_7CMapChild@@6B@
CONST	SEGMENT DWORD USE32 PUBLIC 'CONST'
CONST	ENDS
;	COMDAT ??1CMclAutoLock@@QAE@XZ
_TEXT	SEGMENT PARA USE32 PUBLIC 'CODE'
_TEXT	ENDS
;	COMDAT ??0CMclAutoLock@@QAE@AAVCMclCritSec@@@Z
_TEXT	SEGMENT PARA USE32 PUBLIC 'CODE'
_TEXT	ENDS
;	COMDAT ??_7CBuffer2@@6B@
CONST	SEGMENT DWORD USE32 PUBLIC 'CONST'
CONST	ENDS
;	COMDAT ?erase@?$_Tree@V?$_Tmap_traits@KPAVCCtrl@@U?$less@K@std@@V?$allocator@U?$pair@$$CBKPAVCCtrl@@@std@@@3@$0A@@std@@@std@@QAEIABK@Z
_TEXT	SEGMENT PARA USE32 PUBLIC 'CODE'
_TEXT	ENDS
;	COMDAT ?equal_range@?$_Tree@V?$_Tmap_traits@KPAVCCtrl@@U?$less@K@std@@V?$allocator@U?$pair@$$CBKPAVCCtrl@@@std@@@3@$0A@@std@@@std@@QAE?AU?$pair@Viterator@?$_Tree@V?$_Tmap_traits@KPAVCCtrl@@U?$less@K@std@@V?$allocator@U?$pair@$$CBKPAVCCtrl@@@std@@@3@$0A@@std@@@std@@V123@@2@ABK@Z
_TEXT	SEGMENT PARA USE32 PUBLIC 'CODE'
_TEXT	ENDS
;	COMDAT ??0?$pair@Viterator@?$_Tree@V?$_Tmap_traits@KPAVCCtrl@@U?$less@K@std@@V?$allocator@U?$pair@$$CBKPAVCCtrl@@@std@@@3@$0A@@std@@@std@@V123@@std@@QAE@ABViterator@?$_Tree@V?$_Tmap_traits@KPAVCCtrl@@U?$less@K@std@@V?$allocator@U?$pair@$$CBKPAVCCtrl@@@std@@@3@$0A@@std@@@1@0@Z
_TEXT	SEGMENT PARA USE32 PUBLIC 'CODE'
_TEXT	ENDS
;	COMDAT ?upper_bound@?$_Tree@V?$_Tmap_traits@KPAVCCtrl@@U?$less@K@std@@V?$allocator@U?$pair@$$CBKPAVCCtrl@@@std@@@3@$0A@@std@@@std@@QAE?AViterator@12@ABK@Z
_TEXT	SEGMENT PARA USE32 PUBLIC 'CODE'
_TEXT	ENDS
;	COMDAT ?_Ubound@?$_Tree@V?$_Tmap_traits@KPAVCCtrl@@U?$less@K@std@@V?$allocator@U?$pair@$$CBKPAVCCtrl@@@std@@@3@$0A@@std@@@std@@IBEPAU_Node@?$_Tree_nod@V?$_Tmap_traits@KPAVCCtrl@@U?$less@K@std@@V?$allocator@U?$pair@$$CBKPAVCCtrl@@@std@@@3@$0A@@std@@@2@ABK@Z
_TEXT	SEGMENT PARA USE32 PUBLIC 'CODE'
_TEXT	ENDS
;	COMDAT ??$_Distance@Viterator@?$_Tree@V?$_Tmap_traits@KPAVCCtrl@@U?$less@K@std@@V?$allocator@U?$pair@$$CBKPAVCCtrl@@@std@@@3@$0A@@std@@@std@@I@std@@YAXViterator@?$_Tree@V?$_Tmap_traits@KPAVCCtrl@@U?$less@K@std@@V?$allocator@U?$pair@$$CBKPAVCCtrl@@@std@@@3@$0A@@std@@@0@0AAI@Z
_TEXT	SEGMENT PARA USE32 PUBLIC 'CODE'
_TEXT	ENDS
;	COMDAT ?erase@?$_Tree@V?$_Tmap_traits@KPAVCCtrl@@U?$less@K@std@@V?$allocator@U?$pair@$$CBKPAVCCtrl@@@std@@@3@$0A@@std@@@std@@QAE?AViterator@12@V312@0@Z
_TEXT	SEGMENT PARA USE32 PUBLIC 'CODE'
_TEXT	ENDS
;	COMDAT ?clear@?$_Tree@V?$_Tmap_traits@KPAVCCtrl@@U?$less@K@std@@V?$allocator@U?$pair@$$CBKPAVCCtrl@@@std@@@3@$0A@@std@@@std@@QAEXXZ
_TEXT	SEGMENT PARA USE32 PUBLIC 'CODE'
_TEXT	ENDS
;	COMDAT ?_Erase@?$_Tree@V?$_Tmap_traits@KPAVCCtrl@@U?$less@K@std@@V?$allocator@U?$pair@$$CBKPAVCCtrl@@@std@@@3@$0A@@std@@@std@@IAEXPAU_Node@?$_Tree_nod@V?$_Tmap_traits@KPAVCCtrl@@U?$less@K@std@@V?$allocator@U?$pair@$$CBKPAVCCtrl@@@std@@@3@$0A@@std@@@2@@Z
_TEXT	SEGMENT PARA USE32 PUBLIC 'CODE'
_TEXT	ENDS
;	COMDAT ?destroy@?$allocator@U_Node@?$_Tree_nod@V?$_Tmap_traits@KPAVCCtrl@@U?$less@K@std@@V?$allocator@U?$pair@$$CBKPAVCCtrl@@@std@@@3@$0A@@std@@@std@@@std@@QAEXPAU_Node@?$_Tree_nod@V?$_Tmap_traits@KPAVCCtrl@@U?$less@K@std@@V?$allocator@U?$pair@$$CBKPAVCCtrl@@@std@@@3@$0A@@std@@@2@@Z
_TEXT	SEGMENT PARA USE32 PUBLIC 'CODE'
_TEXT	ENDS
;	COMDAT ??$_Destroy@U_Node@?$_Tree_nod@V?$_Tmap_traits@KPAVCCtrl@@U?$less@K@std@@V?$allocator@U?$pair@$$CBKPAVCCtrl@@@std@@@3@$0A@@std@@@std@@@std@@YAXPAU_Node@?$_Tree_nod@V?$_Tmap_traits@KPAVCCtrl@@U?$less@K@std@@V?$allocator@U?$pair@$$CBKPAVCCtrl@@@std@@@3@$0A@@std@@@0@@Z
_TEXT	SEGMENT PARA USE32 PUBLIC 'CODE'
_TEXT	ENDS
;	COMDAT ?erase@?$_Tree@V?$_Tmap_traits@KPAVCCtrl@@U?$less@K@std@@V?$allocator@U?$pair@$$CBKPAVCCtrl@@@std@@@3@$0A@@std@@@std@@QAE?AViterator@12@V312@@Z
_TEXT	SEGMENT PARA USE32 PUBLIC 'CODE'
_TEXT	ENDS
;	COMDAT ??Eiterator@?$_Tree@V?$_Tmap_traits@KPAVCCtrl@@U?$less@K@std@@V?$allocator@U?$pair@$$CBKPAVCCtrl@@@std@@@3@$0A@@std@@@std@@QAE?AV012@H@Z
_TEXT	SEGMENT PARA USE32 PUBLIC 'CODE'
_TEXT	ENDS
;	COMDAT ??5@YAAAVCAr@@AAV0@AAUD3DXVECTOR3@@@Z
_TEXT	SEGMENT PARA USE32 PUBLIC 'CODE'
_TEXT	ENDS
;	COMDAT ??5CAr@@QAEAAV0@AAM@Z
_TEXT	SEGMENT PARA USE32 PUBLIC 'CODE'
_TEXT	ENDS
;	COMDAT ??5CAr@@QAEAAV0@AAJ@Z
_TEXT	SEGMENT PARA USE32 PUBLIC 'CODE'
_TEXT	ENDS
;	COMDAT ?time_null@@YAJXZ
_TEXT	SEGMENT PARA USE32 PUBLIC 'CODE'
_TEXT	ENDS
;	COMDAT ??6CAr@@QAEAAV0@J@Z
_TEXT	SEGMENT PARA USE32 PUBLIC 'CODE'
_TEXT	ENDS
;	COMDAT ??6@YAAAVCAr@@AAV0@UD3DXVECTOR3@@@Z
_TEXT	SEGMENT PARA USE32 PUBLIC 'CODE'
_TEXT	ENDS
;	COMDAT ??6CAr@@QAEAAV0@M@Z
_TEXT	SEGMENT PARA USE32 PUBLIC 'CODE'
_TEXT	ENDS
;	COMDAT ??1?$basic_string@DU?$char_traits@D@std@@V?$allocator@D@2@@std@@QAE@XZ
_TEXT	SEGMENT PARA USE32 PUBLIC 'CODE'
_TEXT	ENDS
;	COMDAT ??0?$basic_string@DU?$char_traits@D@std@@V?$allocator@D@2@@std@@QAE@PBD@Z
_TEXT	SEGMENT PARA USE32 PUBLIC 'CODE'
_TEXT	ENDS
;	COMDAT ??0?$allocator@D@std@@QAE@XZ
_TEXT	SEGMENT PARA USE32 PUBLIC 'CODE'
_TEXT	ENDS
;	COMDAT ?assign@?$basic_string@DU?$char_traits@D@std@@V?$allocator@D@2@@std@@QAEAAV12@PBD@Z
_TEXT	SEGMENT PARA USE32 PUBLIC 'CODE'
_TEXT	ENDS
;	COMDAT ?assign@?$basic_string@DU?$char_traits@D@std@@V?$allocator@D@2@@std@@QAEAAV12@PBDI@Z
_TEXT	SEGMENT PARA USE32 PUBLIC 'CODE'
_TEXT	ENDS
;	COMDAT ?_Inside@?$basic_string@DU?$char_traits@D@std@@V?$allocator@D@2@@std@@IAE_NPBD@Z
_TEXT	SEGMENT PARA USE32 PUBLIC 'CODE'
_TEXT	ENDS
;	COMDAT ?length@?$char_traits@D@std@@SAIPBD@Z
_TEXT	SEGMENT PARA USE32 PUBLIC 'CODE'
_TEXT	ENDS
;	COMDAT ?c_str@?$basic_string@DU?$char_traits@D@std@@V?$allocator@D@2@@std@@QBEPBDXZ
_TEXT	SEGMENT PARA USE32 PUBLIC 'CODE'
_TEXT	ENDS
;	COMDAT ??6CAr@@QAEAAV0@I@Z
_TEXT	SEGMENT PARA USE32 PUBLIC 'CODE'
_TEXT	ENDS
;	COMDAT ??_7__MINIGAME_EXT_PACKET@@6B@
CONST	SEGMENT DWORD USE32 PUBLIC 'CONST'
CONST	ENDS
;	COMDAT ??5CAr@@QAEAAV0@AAG@Z
_TEXT	SEGMENT PARA USE32 PUBLIC 'CODE'
_TEXT	ENDS
;	COMDAT ??5CAr@@QAEAAV0@AAH@Z
_TEXT	SEGMENT PARA USE32 PUBLIC 'CODE'
_TEXT	ENDS
;	COMDAT ??6CAr@@QAEAAV0@G@Z
_TEXT	SEGMENT PARA USE32 PUBLIC 'CODE'
_TEXT	ENDS
;	COMDAT ??6CAr@@QAEAAV0@H@Z
_TEXT	SEGMENT PARA USE32 PUBLIC 'CODE'
_TEXT	ENDS
;	COMDAT ??_7__MINIGAME_PACKET@@6B@
CONST	SEGMENT DWORD USE32 PUBLIC 'CONST'
CONST	ENDS
;	COMDAT ??1?$vector@KV?$allocator@K@std@@@std@@QAE@XZ
_TEXT	SEGMENT PARA USE32 PUBLIC 'CODE'
_TEXT	ENDS
;	COMDAT ?_Tidy@?$vector@KV?$allocator@K@std@@@std@@IAEXXZ
_TEXT	SEGMENT PARA USE32 PUBLIC 'CODE'
_TEXT	ENDS
;	COMDAT ?_Destroy@?$vector@KV?$allocator@K@std@@@std@@IAEXPAK0@Z
_TEXT	SEGMENT PARA USE32 PUBLIC 'CODE'
_TEXT	ENDS
;	COMDAT ??$_Destroy_range@KV?$allocator@K@std@@@std@@YAXPAK0AAV?$allocator@K@0@@Z
_TEXT	SEGMENT PARA USE32 PUBLIC 'CODE'
_TEXT	ENDS
;	COMDAT ?_Ptr_cat@std@@YA?AU_Scalar_ptr_iterator_tag@1@PAK0@Z
_TEXT	SEGMENT PARA USE32 PUBLIC 'CODE'
_TEXT	ENDS
;	COMDAT ?deallocate@?$allocator@K@std@@QAEXPAKI@Z
_TEXT	SEGMENT PARA USE32 PUBLIC 'CODE'
_TEXT	ENDS
;	COMDAT ??0?$vector@KV?$allocator@K@std@@@std@@QAE@XZ
_TEXT	SEGMENT PARA USE32 PUBLIC 'CODE'
_TEXT	ENDS
;	COMDAT ??0?$_Vector_val@KV?$allocator@K@std@@@std@@IAE@V?$allocator@K@1@@Z
_TEXT	SEGMENT PARA USE32 PUBLIC 'CODE'
_TEXT	ENDS
;	COMDAT ??0?$allocator@K@std@@QAE@ABV01@@Z
_TEXT	SEGMENT PARA USE32 PUBLIC 'CODE'
_TEXT	ENDS
;	COMDAT ??0?$allocator@K@std@@QAE@XZ
_TEXT	SEGMENT PARA USE32 PUBLIC 'CODE'
_TEXT	ENDS
;	COMDAT ?_Buy@?$vector@KV?$allocator@K@std@@@std@@IAE_NI@Z
_TEXT	SEGMENT PARA USE32 PUBLIC 'CODE'
_TEXT	ENDS
;	COMDAT ?max_size@?$vector@KV?$allocator@K@std@@@std@@QBEIXZ
_TEXT	SEGMENT PARA USE32 PUBLIC 'CODE'
_TEXT	ENDS
;	COMDAT ?max_size@?$allocator@K@std@@QBEIXZ
_TEXT	SEGMENT PARA USE32 PUBLIC 'CODE'
_TEXT	ENDS
;	COMDAT ?_Xlen@?$vector@KV?$allocator@K@std@@@std@@IBEXXZ
_TEXT	SEGMENT PARA USE32 PUBLIC 'CODE'
_TEXT	ENDS
;	COMDAT ?allocate@?$allocator@K@std@@QAEPAKI@Z
_TEXT	SEGMENT PARA USE32 PUBLIC 'CODE'
_TEXT	ENDS
;	COMDAT ??$_Allocate@K@std@@YAPAKIPAK@Z
_TEXT	SEGMENT PARA USE32 PUBLIC 'CODE'
_TEXT	ENDS
;	COMDAT ??5CAr@@QAEAAV0@AAK@Z
_TEXT	SEGMENT PARA USE32 PUBLIC 'CODE'
_TEXT	ENDS
;	COMDAT ??6CAr@@QAEAAV0@K@Z
_TEXT	SEGMENT PARA USE32 PUBLIC 'CODE'
_TEXT	ENDS
;	COMDAT ?IsStoring@CAr@@QBEHXZ
_TEXT	SEGMENT PARA USE32 PUBLIC 'CODE'
_TEXT	ENDS
;	COMDAT ??0D3DXVECTOR3@@QAE@MMM@Z
_TEXT	SEGMENT PARA USE32 PUBLIC 'CODE'
_TEXT	ENDS
;	COMDAT ?GetTickCount@CTime@ATL@@SG?AV12@XZ
_TEXT	SEGMENT PARA USE32 PUBLIC 'CODE'
_TEXT	ENDS
;	COMDAT ??0CTime@ATL@@QAE@_J@Z
_TEXT	SEGMENT PARA USE32 PUBLIC 'CODE'
_TEXT	ENDS
;	COMDAT ??0D3DXVECTOR3@@QAE@XZ
_TEXT	SEGMENT PARA USE32 PUBLIC 'CODE'
_TEXT	ENDS
;	COMDAT ??0CTime@ATL@@QAE@XZ
_TEXT	SEGMENT PARA USE32 PUBLIC 'CODE'
_TEXT	ENDS
sxdata	SEGMENT DWORD USE32 'SXDATA'
sxdata	ENDS
FLAT	GROUP _DATA, CONST, _BSS
	ASSUME	CS: FLAT, DS: FLAT, SS: FLAT
endif

INCLUDELIB LIBCMT
INCLUDELIB OLDNAMES

PUBLIC	?GetAtkType@ATTACK_INFO@@QBE?AW4ATK_TYPE@@XZ	; ATTACK_INFO::GetAtkType
; Function compile flags: /Ogty
; File c:\documents and settings\test\mes documents\source\virtuos_v17\build\program\worldserver\attackarbiter.cpp
;	COMDAT ?GetAtkType@ATTACK_INFO@@QBE?AW4ATK_TYPE@@XZ
_TEXT	SEGMENT
?GetAtkType@ATTACK_INFO@@QBE?AW4ATK_TYPE@@XZ PROC NEAR	; ATTACK_INFO::GetAtkType, COMDAT
; _this$ = ecx

; 38   : 	ATK_TYPE type = ATK_GENERIC;
; 39   : 
; 40   : 	if( dwAtkFlags & AF_MELEESKILL )

  00000	8b 49 08	 mov	 ecx, DWORD PTR [ecx+8]
  00003	f6 c1 10	 test	 cl, 16			; 00000010H
  00006	b8 04 00 00 00	 mov	 eax, 4
  0000b	74 06		 je	 SHORT $L259621

; 41   : 	{
; 42   : 		type = ATK_MELEESKILL;

  0000d	b8 01 00 00 00	 mov	 eax, 1

; 55   : 	}
; 56   : 
; 57   : 	return type;
; 58   : }

  00012	c3		 ret	 0
$L259621:

; 43   : 	}
; 44   : 	else if( dwAtkFlags & AF_MAGICSKILL )

  00013	f6 c1 20	 test	 cl, 32			; 00000020H
  00016	74 06		 je	 SHORT $L259624

; 45   : 	{
; 46   : 		type = ATK_MAGICSKILL;

  00018	b8 02 00 00 00	 mov	 eax, 2

; 55   : 	}
; 56   : 
; 57   : 	return type;
; 58   : }

  0001d	c3		 ret	 0
$L259624:

; 47   : 	}	
; 48   : 	else if( dwAtkFlags & AF_MAGIC )		//   

  0001e	f6 c1 08	 test	 cl, 8
  00021	74 06		 je	 SHORT $L259627

; 49   : 	{
; 50   : 		type = ATK_MAGIC;

  00023	b8 03 00 00 00	 mov	 eax, 3

; 55   : 	}
; 56   : 
; 57   : 	return type;
; 58   : }

  00028	c3		 ret	 0
$L259627:

; 51   : 	}
; 52   : 	else if( dwAtkFlags & AF_FORCE )		//    

  00029	f6 c5 20	 test	 ch, 32			; 00000020H
  0002c	74 02		 je	 SHORT $L259630

; 53   : 	{
; 54   : 		type = ATK_FORCE;

  0002e	33 c0		 xor	 eax, eax
$L259630:

; 55   : 	}
; 56   : 
; 57   : 	return type;
; 58   : }

  00030	c3		 ret	 0
?GetAtkType@ATTACK_INFO@@QBE?AW4ATK_TYPE@@XZ ENDP	; ATTACK_INFO::GetAtkType
_TEXT	ENDS
PUBLIC	?GetSkillLevel@ATTACK_INFO@@QBEHXZ		; ATTACK_INFO::GetSkillLevel
; Function compile flags: /Ogty
;	COMDAT ?GetSkillLevel@ATTACK_INFO@@QBEHXZ
_TEXT	SEGMENT
?GetSkillLevel@ATTACK_INFO@@QBEHXZ PROC NEAR		; ATTACK_INFO::GetSkillLevel, COMDAT
; _this$ = ecx

; 87   : 	ASSERT( IsSkillAttack( dwAtkFlags ) );
; 88   : 	return ( nParam & 0xFF);	

  00000	8b 41 0c	 mov	 eax, DWORD PTR [ecx+12]
  00003	25 ff 00 00 00	 and	 eax, 255		; 000000ffH

; 89   : }

  00008	c3		 ret	 0
?GetSkillLevel@ATTACK_INFO@@QBEHXZ ENDP			; ATTACK_INFO::GetSkillLevel
_TEXT	ENDS
PUBLIC	?GetAttackCount@ATTACK_INFO@@QBEHXZ		; ATTACK_INFO::GetAttackCount
; Function compile flags: /Ogty
;	COMDAT ?GetAttackCount@ATTACK_INFO@@QBEHXZ
_TEXT	SEGMENT
?GetAttackCount@ATTACK_INFO@@QBEHXZ PROC NEAR		; ATTACK_INFO::GetAttackCount, COMDAT
; _this$ = ecx

; 93   : 	return ( nParam >> 8) & 0xFF;		//  0,  1 

  00000	0f b6 41 0d	 movzx	 eax, BYTE PTR [ecx+13]

; 94   : }

  00004	c3		 ret	 0
?GetAttackCount@ATTACK_INFO@@QBEHXZ ENDP		; ATTACK_INFO::GetAttackCount
_TEXT	ENDS
PUBLIC	?IsRangeAttack@ATTACK_INFO@@QBEHXZ		; ATTACK_INFO::IsRangeAttack
; Function compile flags: /Ogty
;	COMDAT ?IsRangeAttack@ATTACK_INFO@@QBEHXZ
_TEXT	SEGMENT
?IsRangeAttack@ATTACK_INFO@@QBEHXZ PROC NEAR		; ATTACK_INFO::IsRangeAttack, COMDAT
; _this$ = ecx

; 106  : 	return ( dwAtkFlags & AF_RANGE );

  00000	8b 41 08	 mov	 eax, DWORD PTR [ecx+8]
  00003	25 00 40 00 00	 and	 eax, 16384		; 00004000H

; 107  : }

  00008	c3		 ret	 0
?IsRangeAttack@ATTACK_INFO@@QBEHXZ ENDP			; ATTACK_INFO::IsRangeAttack
_TEXT	ENDS
PUBLIC	??0CAttackArbiter@@QAE@KPAVCMover@@0KHHH@Z	; CAttackArbiter::CAttackArbiter
PUBLIC	??_7CAttackArbiter@@6B@				; CAttackArbiter::`vftable'
PUBLIC	??_GCAttackArbiter@@UAEPAXI@Z			; CAttackArbiter::`scalar deleting destructor'
EXTRN	??_ECAttackArbiter@@UAEPAXI@Z:NEAR		; CAttackArbiter::`vector deleting destructor'
;	COMDAT ??_7CAttackArbiter@@6B@
CONST	SEGMENT
??_7CAttackArbiter@@6B@ DD FLAT:??_ECAttackArbiter@@UAEPAXI@Z ; CAttackArbiter::`vftable'
; Function compile flags: /Ogty
CONST	ENDS
;	COMDAT ??0CAttackArbiter@@QAE@KPAVCMover@@0KHHH@Z
_TEXT	SEGMENT
_dwMsg$ = 8						; size = 4
_pAttacker$ = 12					; size = 4
_pDefender$ = 16					; size = 4
_dwAtkFlags$ = 20					; size = 4
_nParam$ = 24						; size = 4
_bTarget$ = 28						; size = 4
_nReflect$ = 32						; size = 4
??0CAttackArbiter@@QAE@KPAVCMover@@0KHHH@Z PROC NEAR	; CAttackArbiter::CAttackArbiter, COMDAT
; _this$ = ecx

; 121  : {

  00000	8b 54 24 08	 mov	 edx, DWORD PTR _pAttacker$[esp-4]
  00004	8b c1		 mov	 eax, ecx
  00006	8b 4c 24 04	 mov	 ecx, DWORD PTR _dwMsg$[esp-4]
  0000a	89 48 04	 mov	 DWORD PTR [eax+4], ecx
  0000d	8b 4c 24 0c	 mov	 ecx, DWORD PTR _pDefender$[esp-4]
  00011	89 50 08	 mov	 DWORD PTR [eax+8], edx
  00014	8b 54 24 10	 mov	 edx, DWORD PTR _dwAtkFlags$[esp-4]
  00018	89 48 0c	 mov	 DWORD PTR [eax+12], ecx
  0001b	8b 4c 24 14	 mov	 ecx, DWORD PTR _nParam$[esp-4]
  0001f	89 50 10	 mov	 DWORD PTR [eax+16], edx
  00022	8b 54 24 18	 mov	 edx, DWORD PTR _bTarget$[esp-4]
  00026	89 48 14	 mov	 DWORD PTR [eax+20], ecx
  00029	8b 4c 24 1c	 mov	 ecx, DWORD PTR _nReflect$[esp-4]
  0002d	c7 00 00 00 00
	00		 mov	 DWORD PTR [eax], OFFSET FLAT:??_7CAttackArbiter@@6B@
  00033	89 50 18	 mov	 DWORD PTR [eax+24], edx
  00036	89 48 1c	 mov	 DWORD PTR [eax+28], ecx

; 122  : #if __VER >= 11 // __REFLECTDMG_AFTER
; 123  : 	m_nReflectDmg = 0;

  00039	c7 40 20 00 00
	00 00		 mov	 DWORD PTR [eax+32], 0

; 124  : #endif // __REFLECTDMG_AFTER
; 125  : }

  00040	c2 1c 00	 ret	 28			; 0000001cH
??0CAttackArbiter@@QAE@KPAVCMover@@0KHHH@Z ENDP		; CAttackArbiter::CAttackArbiter
_TEXT	ENDS
PUBLIC	??1CAttackArbiter@@UAE@XZ			; CAttackArbiter::~CAttackArbiter
; Function compile flags: /Ogty
;	COMDAT ??1CAttackArbiter@@UAE@XZ
_TEXT	SEGMENT
??1CAttackArbiter@@UAE@XZ PROC NEAR			; CAttackArbiter::~CAttackArbiter, COMDAT
; _this$ = ecx

; 128  : {

  00000	c7 01 00 00 00
	00		 mov	 DWORD PTR [ecx], OFFSET FLAT:??_7CAttackArbiter@@6B@

; 129  : }

  00006	c3		 ret	 0
??1CAttackArbiter@@UAE@XZ ENDP				; CAttackArbiter::~CAttackArbiter
_TEXT	ENDS
PUBLIC	?GetPostCalcType@@YA?AW4POSTCALC_TYPE@@K@Z	; GetPostCalcType
; Function compile flags: /Ogty
;	COMDAT ?GetPostCalcType@@YA?AW4POSTCALC_TYPE@@K@Z
_TEXT	SEGMENT
_dwAtkFlags$ = 8					; size = 4
?GetPostCalcType@@YA?AW4POSTCALC_TYPE@@K@Z PROC NEAR	; GetPostCalcType, COMDAT

; 450  : 	if ( dwAtkFlags & AF_MAGICSKILL )		//  

  00000	8a 44 24 04	 mov	 al, BYTE PTR _dwAtkFlags$[esp-4]
  00004	a8 20		 test	 al, 32			; 00000020H
  00006	74 06		 je	 SHORT $L259792

; 451  : 		return POSTCALC_MAGICSKILL;

  00008	b8 01 00 00 00	 mov	 eax, 1

; 454  : 		return POSTCALC_GENERIC;
; 455  : 	
; 456  : 	return POSTCALC_DPC;
; 457  : }

  0000d	c3		 ret	 0
$L259792:

; 452  : 
; 453  : 	if ( dwAtkFlags & AF_GENERIC )			//  

  0000e	0f b6 c0	 movzx	 eax, al
  00011	83 e0 01	 and	 eax, 1
  00014	d1 e0		 shl	 eax, 1

; 454  : 		return POSTCALC_GENERIC;
; 455  : 	
; 456  : 	return POSTCALC_DPC;
; 457  : }

  00016	c3		 ret	 0
?GetPostCalcType@@YA?AW4POSTCALC_TYPE@@K@Z ENDP		; GetPostCalcType
_TEXT	ENDS
PUBLIC	?MinusHP@CAttackArbiter@@AAEHPAH@Z		; CAttackArbiter::MinusHP
EXTRN	?GetHitPoint@CMover@@QAEHXZ:NEAR		; CMover::GetHitPoint
; Function compile flags: /Ogty
;	COMDAT ?MinusHP@CAttackArbiter@@AAEHPAH@Z
_TEXT	SEGMENT
_pnDamage$ = 8						; size = 4
?MinusHP@CAttackArbiter@@AAEHPAH@Z PROC NEAR		; CAttackArbiter::MinusHP, COMDAT
; _this$ = ecx

; 749  : {

  00000	56		 push	 esi
  00001	8b f1		 mov	 esi, ecx

; 750  : 	int nHP = m_pDefender->GetHitPoint() - *pnDamage;	// HP .

  00003	8b 4e 0c	 mov	 ecx, DWORD PTR [esi+12]
  00006	57		 push	 edi
  00007	e8 00 00 00 00	 call	 ?GetHitPoint@CMover@@QAEHXZ ; CMover::GetHitPoint
  0000c	8b 7c 24 0c	 mov	 edi, DWORD PTR _pnDamage$[esp+4]
  00010	2b 07		 sub	 eax, DWORD PTR [edi]

; 751  : 	if( nHP <= 0 )

  00012	85 c0		 test	 eax, eax
  00014	7f 1b		 jg	 SHORT $L259956

; 752  : 	{
; 753  : 		if( m_pDefender->m_dwMode & MATCHLESS2_MODE )	// HP 0   

  00016	8b 4e 0c	 mov	 ecx, DWORD PTR [esi+12]
  00019	0f b6 b1 44 02
	00 00		 movzx	 esi, BYTE PTR [ecx+580]
  00020	c1 ee 05	 shr	 esi, 5
  00023	83 e6 01	 and	 esi, 1

; 754  : 			nHP = 1;									// hp 1 
; 755  : 		else
; 756  : 			nHP = 0;									//     .
; 757  : 		*pnDamage = m_pDefender->GetHitPoint() - nHP;

  00026	e8 00 00 00 00	 call	 ?GetHitPoint@CMover@@QAEHXZ ; CMover::GetHitPoint
  0002b	2b c6		 sub	 eax, esi
  0002d	89 07		 mov	 DWORD PTR [edi], eax

; 758  : 	}
; 759  : 	/*
; 760  : 	else	
; 761  : 	{
; 762  : 		int nActionHPRate = m_pDefender->GetAdjParam( DST_AUTOHP );							//  HP
; 763  : 		if( nActionHPRate > 0 )
; 764  : 		{
; 765  : 			float fHPPercent = (float)nHP / m_pDefender->GetMaxHitPoint();					//  HP  
; 766  : 			if( fHPPercent <= (nActionHPRate / 100.0f) )									//  HP HP 
; 767  : 			{
; 768  : 				float fAddHP = m_pDefender->GetChgParam( DST_AUTOHP ) / 100.0f;				//  HP
; 769  : 				int nAddHP = m_pDefender->GetMaxHitPoint() * fAddHP;						// MaxHP  .
; 770  : 				nHP += nAddHP;
; 771  : 				m_pDefender->SetPointParam( DST_HP, nHP );									// HP.
; 772  : 				g_UserMng.AddCreateSfxObj( m_pDefender, XI_GEN_CURE01 );					//   .
; 773  : 				m_pDefender->RemoveBuff( BUFF_SKILL, SI_ASS_HEAL_PREVENTION );	// .				
; 774  : 			}
; 775  : 		}
; 776  : 	}
; 777  : 	*/
; 778  : 
; 779  : 	return nHP;

  0002f	8b c6		 mov	 eax, esi
$L259956:
  00031	5f		 pop	 edi
  00032	5e		 pop	 esi

; 780  : }

  00033	c2 04 00	 ret	 4
?MinusHP@CAttackArbiter@@AAEHPAH@Z ENDP			; CAttackArbiter::MinusHP
_TEXT	ENDS
PUBLIC	?GetHandFlag@CAttackArbiter@@AAEEXZ		; CAttackArbiter::GetHandFlag
; Function compile flags: /Ogty
;	COMDAT ?GetHandFlag@CAttackArbiter@@AAEEXZ
_TEXT	SEGMENT
?GetHandFlag@CAttackArbiter@@AAEEXZ PROC NEAR		; CAttackArbiter::GetHandFlag, COMDAT
; _this$ = ecx

; 977  : 	BYTE cbHandFlag = 0x01;				//   .
; 978  : 
; 979  : 	if( m_dwAtkFlags & AF_RANGE )		//     

  00000	8b 51 10	 mov	 edx, DWORD PTR [ecx+16]
  00003	f6 c6 40	 test	 dh, 64			; 00000040H
  00006	b0 01		 mov	 al, 1

; 980  : 		return cbHandFlag;

  00008	75 0b		 jne	 SHORT $L265246

; 981  : 
; 982  : 	if( m_dwAtkFlags & AF_GENERIC )		// 

  0000a	84 d0		 test	 dl, al
  0000c	74 09		 je	 SHORT $L260034

; 983  : 	{
; 984  : 		cbHandFlag = m_nParam & 0x03;	//  2     .

  0000e	8a 41 14	 mov	 al, BYTE PTR [ecx+20]
  00011	24 03		 and	 al, 3

; 985  : 		if( cbHandFlag == 0 )	

  00013	75 02		 jne	 SHORT $L260034
$L265246:

; 986  : 			cbHandFlag = 0x01;			//    

  00015	b0 01		 mov	 al, 1
$L260034:

; 987  : 	}
; 988  : 
; 989  : 	return cbHandFlag;
; 990  : }

  00017	c3		 ret	 0
?GetHandFlag@CAttackArbiter@@AAEEXZ ENDP		; CAttackArbiter::GetHandFlag
_TEXT	ENDS
PUBLIC	?xRand@@YAKXZ					; xRand
EXTRN	?g_next@@3KA:DWORD				; g_next
; Function compile flags: /Ogty
; File c:\documents and settings\test\mes documents\source\virtuos_v17\build\program\_common\xutil.h
;	COMDAT ?xRand@@YAKXZ
_TEXT	SEGMENT
?xRand@@YAKXZ PROC NEAR					; xRand, COMDAT

; 16   : 	g_next = g_next * 1103515245 + 12345;// + nRandomSeed[ i++ ];

  00000	a1 00 00 00 00	 mov	 eax, DWORD PTR ?g_next@@3KA ; g_next
  00005	69 c0 6d 4e c6
	41		 imul	 eax, 1103515245		; 41c64e6dH
  0000b	05 39 30 00 00	 add	 eax, 12345		; 00003039H
  00010	a3 00 00 00 00	 mov	 DWORD PTR ?g_next@@3KA, eax ; g_next

; 17   : 	return g_next;	//   .
; 18   : }

  00015	c3		 ret	 0
?xRand@@YAKXZ ENDP					; xRand
_TEXT	ENDS
PUBLIC	?xRandom@@YAKK@Z				; xRandom
; Function compile flags: /Ogty
;	COMDAT ?xRandom@@YAKK@Z
_TEXT	SEGMENT
_num$ = 8						; size = 4
?xRandom@@YAKK@Z PROC NEAR				; xRandom, COMDAT

; 22   : 	return  xRand() % num;

  00000	a1 00 00 00 00	 mov	 eax, DWORD PTR ?g_next@@3KA ; g_next
  00005	69 c0 6d 4e c6
	41		 imul	 eax, 1103515245		; 41c64e6dH
  0000b	05 39 30 00 00	 add	 eax, 12345		; 00003039H
  00010	a3 00 00 00 00	 mov	 DWORD PTR ?g_next@@3KA, eax ; g_next
  00015	33 d2		 xor	 edx, edx
  00017	f7 74 24 04	 div	 DWORD PTR _num$[esp-4]
  0001b	8b c2		 mov	 eax, edx

; 23   : }

  0001d	c3		 ret	 0
?xRandom@@YAKK@Z ENDP					; xRandom
_TEXT	ENDS
PUBLIC	?random@@YAHH@Z					; random
EXTRN	_rand:NEAR
; Function compile flags: /Ogty
;	COMDAT ?random@@YAHH@Z
_TEXT	SEGMENT
_nNum$ = 8						; size = 4
?random@@YAHH@Z PROC NEAR				; random, COMDAT

; 28   : inline int	random( int nNum ) { return rand() % nNum; }

  00000	e8 00 00 00 00	 call	 _rand
  00005	99		 cdq
  00006	f7 7c 24 04	 idiv	 DWORD PTR _nNum$[esp-4]
  0000a	8b c2		 mov	 eax, edx
  0000c	c3		 ret	 0
?random@@YAHH@Z ENDP					; random
_TEXT	ENDS
PUBLIC	?GetType@CObj@@QAEKXZ				; CObj::GetType
; Function compile flags: /Ogty
; File c:\documents and settings\test\mes documents\source\virtuos_v17\build\program\_common\obj.h
;	COMDAT ?GetType@CObj@@QAEKXZ
_TEXT	SEGMENT
?GetType@CObj@@QAEKXZ PROC NEAR				; CObj::GetType, COMDAT
; _this$ = ecx

; 206  : 	DWORD			GetType() { return m_dwType; }

  00000	8b 81 70 01 00
	00		 mov	 eax, DWORD PTR [ecx+368]
  00006	c3		 ret	 0
?GetType@CObj@@QAEKXZ ENDP				; CObj::GetType
_TEXT	ENDS
PUBLIC	?GetIndex@CObj@@QAEKXZ				; CObj::GetIndex
; Function compile flags: /Ogty
;	COMDAT ?GetIndex@CObj@@QAEKXZ
_TEXT	SEGMENT
?GetIndex@CObj@@QAEKXZ PROC NEAR			; CObj::GetIndex, COMDAT
; _this$ = ecx

; 207  : 	DWORD			GetIndex() { return m_dwIndex; }

  00000	8b 81 74 01 00
	00		 mov	 eax, DWORD PTR [ecx+372]
  00006	c3		 ret	 0
?GetIndex@CObj@@QAEKXZ ENDP				; CObj::GetIndex
_TEXT	ENDS
PUBLIC	?GetPos@CObj@@QAE?AUD3DXVECTOR3@@XZ		; CObj::GetPos
; Function compile flags: /Ogty
;	COMDAT ?GetPos@CObj@@QAE?AUD3DXVECTOR3@@XZ
_TEXT	SEGMENT
___$ReturnUdt$ = 8					; size = 4
?GetPos@CObj@@QAE?AUD3DXVECTOR3@@XZ PROC NEAR		; CObj::GetPos, COMDAT
; _this$ = ecx

; 215  : 	D3DXVECTOR3		GetPos()	{ return m_vPos; }

  00000	8b 44 24 04	 mov	 eax, DWORD PTR ___$ReturnUdt$[esp-4]
  00004	81 c1 60 01 00
	00		 add	 ecx, 352		; 00000160H
  0000a	56		 push	 esi
  0000b	8b 31		 mov	 esi, DWORD PTR [ecx]
  0000d	8b d0		 mov	 edx, eax
  0000f	89 32		 mov	 DWORD PTR [edx], esi
  00011	8b 71 04	 mov	 esi, DWORD PTR [ecx+4]
  00014	89 72 04	 mov	 DWORD PTR [edx+4], esi
  00017	8b 49 08	 mov	 ecx, DWORD PTR [ecx+8]
  0001a	89 4a 08	 mov	 DWORD PTR [edx+8], ecx
  0001d	5e		 pop	 esi
  0001e	c2 04 00	 ret	 4
?GetPos@CObj@@QAE?AUD3DXVECTOR3@@XZ ENDP		; CObj::GetPos
_TEXT	ENDS
PUBLIC	?GetWorld@CObj@@QAEPAVCWorld@@XZ		; CObj::GetWorld
; Function compile flags: /Ogty
;	COMDAT ?GetWorld@CObj@@QAEPAVCWorld@@XZ
_TEXT	SEGMENT
?GetWorld@CObj@@QAEPAVCWorld@@XZ PROC NEAR		; CObj::GetWorld, COMDAT
; _this$ = ecx

; 221  : 	CWorld*			GetWorld()	{ return m_pWorld; }

  00000	8b 81 6c 01 00
	00		 mov	 eax, DWORD PTR [ecx+364]
  00006	c3		 ret	 0
?GetWorld@CObj@@QAEPAVCWorld@@XZ ENDP			; CObj::GetWorld
_TEXT	ENDS
PUBLIC	?GetLayer@CObj@@QAEHXZ				; CObj::GetLayer
; Function compile flags: /Ogty
;	COMDAT ?GetLayer@CObj@@QAEHXZ
_TEXT	SEGMENT
?GetLayer@CObj@@QAEHXZ PROC NEAR			; CObj::GetLayer, COMDAT
; _this$ = ecx

; 247  : 	int		GetLayer()	{	return m_nLayer;	}

  00000	8b 81 b8 01 00
	00		 mov	 eax, DWORD PTR [ecx+440]
  00006	c3		 ret	 0
?GetLayer@CObj@@QAEHXZ ENDP				; CObj::GetLayer
_TEXT	ENDS
PUBLIC	?SetFlag@CObj@@AAEXHK@Z				; CObj::SetFlag
; Function compile flags: /Ogty
;	COMDAT ?SetFlag@CObj@@AAEXHK@Z
_TEXT	SEGMENT
_bUpdate$ = 8						; size = 4
_dwValue$ = 12						; size = 4
?SetFlag@CObj@@AAEXHK@Z PROC NEAR			; CObj::SetFlag, COMDAT
; _this$ = ecx

; 272  : 	if( bUpdate )

  00000	8b 44 24 04	 mov	 eax, DWORD PTR _bUpdate$[esp-4]
  00004	85 c0		 test	 eax, eax
  00006	74 0f		 je	 SHORT $L176539

; 273  : 		m_dwFlags |= dwValue;

  00008	8b 51 04	 mov	 edx, DWORD PTR [ecx+4]
  0000b	8b 44 24 08	 mov	 eax, DWORD PTR _dwValue$[esp-4]
  0000f	0b d0		 or	 edx, eax
  00011	89 51 04	 mov	 DWORD PTR [ecx+4], edx

; 276  : }

  00014	c2 08 00	 ret	 8
$L176539:

; 274  : 	else
; 275  : 		m_dwFlags &= (~dwValue);

  00017	8b 54 24 08	 mov	 edx, DWORD PTR _dwValue$[esp-4]
  0001b	8b 41 04	 mov	 eax, DWORD PTR [ecx+4]
  0001e	f7 d2		 not	 edx
  00020	23 c2		 and	 eax, edx
  00022	89 41 04	 mov	 DWORD PTR [ecx+4], eax

; 276  : }

  00025	c2 08 00	 ret	 8
?SetFlag@CObj@@AAEXHK@Z ENDP				; CObj::SetFlag
_TEXT	ENDS
PUBLIC	?IsValidObjID@@YAHK@Z				; IsValidObjID
; Function compile flags: /Ogty
;	COMDAT ?IsValidObjID@@YAHK@Z
_TEXT	SEGMENT
_id$ = 8						; size = 4
?IsValidObjID@@YAHK@Z PROC NEAR				; IsValidObjID, COMDAT

; 337  : 	return ( NULL_ID != id && 0 != id );

  00000	8b 44 24 04	 mov	 eax, DWORD PTR _id$[esp-4]
  00004	83 f8 ff	 cmp	 eax, -1
  00007	74 0a		 je	 SHORT $L265280
  00009	85 c0		 test	 eax, eax
  0000b	74 06		 je	 SHORT $L265280
  0000d	b8 01 00 00 00	 mov	 eax, 1

; 338  : }

  00012	c3		 ret	 0
$L265280:

; 337  : 	return ( NULL_ID != id && 0 != id );

  00013	33 c0		 xor	 eax, eax

; 338  : }

  00015	c3		 ret	 0
?IsValidObjID@@YAHK@Z ENDP				; IsValidObjID
_TEXT	ENDS
PUBLIC	?IsBaruna@ItemProp@@QAEHXZ			; ItemProp::IsBaruna
; Function compile flags: /Ogty
; File c:\documents and settings\test\mes documents\source\virtuos_v17\build\program\_common\projectcmn.h
;	COMDAT ?IsBaruna@ItemProp@@QAEHXZ
_TEXT	SEGMENT
?IsBaruna@ItemProp@@QAEHXZ PROC NEAR			; ItemProp::IsBaruna, COMDAT
; _this$ = ecx

; 469  : 		return( dwReferStat1 >= BARUNA_D && dwReferStat1 <= BARUNA_S );

  00000	8b 81 00 02 00
	00		 mov	 eax, DWORD PTR [ecx+512]
  00006	83 f8 04	 cmp	 eax, 4
  00009	72 0b		 jb	 SHORT $L265285
  0000b	83 f8 08	 cmp	 eax, 8
  0000e	77 06		 ja	 SHORT $L265285
  00010	b8 01 00 00 00	 mov	 eax, 1

; 470  : 	}

  00015	c3		 ret	 0
$L265285:

; 469  : 		return( dwReferStat1 >= BARUNA_D && dwReferStat1 <= BARUNA_S );

  00016	33 c0		 xor	 eax, eax

; 470  : 	}

  00018	c3		 ret	 0
?IsBaruna@ItemProp@@QAEHXZ ENDP				; ItemProp::IsBaruna
_TEXT	ENDS
PUBLIC	?GetId@CCtrl@@QAEKXZ				; CCtrl::GetId
; Function compile flags: /Ogty
; File c:\documents and settings\test\mes documents\source\virtuos_v17\build\program\_common\ctrl.h
;	COMDAT ?GetId@CCtrl@@QAEKXZ
_TEXT	SEGMENT
?GetId@CCtrl@@QAEKXZ PROC NEAR				; CCtrl::GetId, COMDAT
; _this$ = ecx

; 58   : 	OBJID			GetId()					{ return m_objid;   }

  00000	8b 81 bc 01 00
	00		 mov	 eax, DWORD PTR [ecx+444]
  00006	c3		 ret	 0
?GetId@CCtrl@@QAEKXZ ENDP				; CCtrl::GetId
_TEXT	ENDS
PUBLIC	?LOG_RANGE@@YAXPBDHHH@Z				; LOG_RANGE
PUBLIC	??_C@_0BM@HMFGHCP@?$CFs?5min?3?$CFd?0?5max?3?$CFd?0?5index?3?$CFd?$AA@ ; `string'
EXTRN	?Error@@YAPBDPBDZZ:NEAR				; Error
;	COMDAT ??_C@_0BM@HMFGHCP@?$CFs?5min?3?$CFd?0?5max?3?$CFd?0?5index?3?$CFd?$AA@
; File c:\documents and settings\test\mes documents\source\virtuos_v17\build\program\_common\project.h
CONST	SEGMENT
??_C@_0BM@HMFGHCP@?$CFs?5min?3?$CFd?0?5max?3?$CFd?0?5index?3?$CFd?$AA@ DB '%'
	DB	's min:%d, max:%d, index:%d', 00H		; `string'
; Function compile flags: /Ogty
CONST	ENDS
;	COMDAT ?LOG_RANGE@@YAXPBDHHH@Z
_TEXT	SEGMENT
_szMsg$ = 8						; size = 4
_nMin$ = 12						; size = 4
_nMax$ = 16						; size = 4
_nIndex$ = 20						; size = 4
?LOG_RANGE@@YAXPBDHHH@Z PROC NEAR			; LOG_RANGE, COMDAT

; 559  : 	LPCTSTR szErr = Error( _T( "%s min:%d, max:%d, index:%d" ), szMsg, nMin, nMax, nIndex ); 

  00000	8b 44 24 10	 mov	 eax, DWORD PTR _nIndex$[esp-4]
  00004	8b 4c 24 0c	 mov	 ecx, DWORD PTR _nMax$[esp-4]
  00008	8b 54 24 08	 mov	 edx, DWORD PTR _nMin$[esp-4]
  0000c	50		 push	 eax
  0000d	8b 44 24 08	 mov	 eax, DWORD PTR _szMsg$[esp]
  00011	51		 push	 ecx
  00012	52		 push	 edx
  00013	50		 push	 eax
  00014	68 00 00 00 00	 push	 OFFSET FLAT:??_C@_0BM@HMFGHCP@?$CFs?5min?3?$CFd?0?5max?3?$CFd?0?5index?3?$CFd?$AA@
  00019	e8 00 00 00 00	 call	 ?Error@@YAPBDPBDZZ	; Error
  0001e	83 c4 14	 add	 esp, 20			; 00000014H

; 560  : 	ADDERRORMSG( szErr ); 
; 561  : }

  00021	c3		 ret	 0
?LOG_RANGE@@YAXPBDHHH@Z ENDP				; LOG_RANGE
_TEXT	ENDS
PUBLIC	?LOG_CALLSTACK@@YAXXZ				; LOG_CALLSTACK
; Function compile flags: /Ogty
;	COMDAT ?LOG_CALLSTACK@@YAXXZ
_TEXT	SEGMENT
?LOG_CALLSTACK@@YAXXZ PROC NEAR				; LOG_CALLSTACK, COMDAT

; 565  : #ifdef _DEBUG
; 566  : 	__asm int 3
; 567  : #endif
; 568  : 
; 569  : #if defined(__INTERNALSERVER)
; 570  : 	int *p = NULL;		//    
; 571  : 	*p = 1;
; 572  : #endif
; 573  : }

  00000	c3		 ret	 0
?LOG_CALLSTACK@@YAXXZ ENDP				; LOG_CALLSTACK
_TEXT	ENDS
PUBLIC	??_C@_0BJ@GKPOBPPI@GetMoverProp?5range_error?$AA@ ; `string'
PUBLIC	?GetMoverProp@CProject@@QAEPAUMoverProp@@H@Z	; CProject::GetMoverProp
;	COMDAT ??_C@_0BJ@GKPOBPPI@GetMoverProp?5range_error?$AA@
CONST	SEGMENT
??_C@_0BJ@GKPOBPPI@GetMoverProp?5range_error?$AA@ DB 'GetMoverProp range_'
	DB	'error', 00H					; `string'
; Function compile flags: /Ogty
CONST	ENDS
;	COMDAT ?GetMoverProp@CProject@@QAEPAUMoverProp@@H@Z
_TEXT	SEGMENT
_nIndex$ = 8						; size = 4
?GetMoverProp@CProject@@QAEPAUMoverProp@@H@Z PROC NEAR	; CProject::GetMoverProp, COMDAT
; _this$ = ecx

; 1381 : 	VERIFY_RANGE( nIndex, 0, m_nMoverPropSize, "GetMoverProp range_error", NULL );

  00000	8b 44 24 04	 mov	 eax, DWORD PTR _nIndex$[esp-4]
  00004	85 c0		 test	 eax, eax
  00006	7c 19		 jl	 SHORT $L197938
  00008	3b 81 d0 01 00
	00		 cmp	 eax, DWORD PTR [ecx+464]
  0000e	7d 11		 jge	 SHORT $L197938

; 1382 : 	return m_pPropMover + nIndex;

  00010	8b 91 d4 01 00
	00		 mov	 edx, DWORD PTR [ecx+468]
  00016	69 c0 d8 06 00
	00		 imul	 eax, 1752		; 000006d8H
  0001c	03 c2		 add	 eax, edx

; 1383 : }

  0001e	c2 04 00	 ret	 4
$L197938:

; 1381 : 	VERIFY_RANGE( nIndex, 0, m_nMoverPropSize, "GetMoverProp range_error", NULL );

  00021	50		 push	 eax
  00022	8b 81 d0 01 00
	00		 mov	 eax, DWORD PTR [ecx+464]
  00028	50		 push	 eax
  00029	6a 00		 push	 0
  0002b	68 00 00 00 00	 push	 OFFSET FLAT:??_C@_0BJ@GKPOBPPI@GetMoverProp?5range_error?$AA@
  00030	68 00 00 00 00	 push	 OFFSET FLAT:??_C@_0BM@HMFGHCP@?$CFs?5min?3?$CFd?0?5max?3?$CFd?0?5index?3?$CFd?$AA@
  00035	e8 00 00 00 00	 call	 ?Error@@YAPBDPBDZZ	; Error
  0003a	83 c4 14	 add	 esp, 20			; 00000014H
  0003d	33 c0		 xor	 eax, eax

; 1383 : }

  0003f	c2 04 00	 ret	 4
?GetMoverProp@CProject@@QAEPAUMoverProp@@H@Z ENDP	; CProject::GetMoverProp
_TEXT	ENDS
PUBLIC	?GetPiercingSize@CItemElem@@QAEHXZ		; CItemElem::GetPiercingSize
EXTRN	?GetPiercingSize@CPiercing@@QAEHXZ:NEAR		; CPiercing::GetPiercingSize
; Function compile flags: /Ogty
; File c:\documents and settings\test\mes documents\source\virtuos_v17\build\program\_common\item.h
;	COMDAT ?GetPiercingSize@CItemElem@@QAEHXZ
_TEXT	SEGMENT
?GetPiercingSize@CItemElem@@QAEHXZ PROC NEAR		; CItemElem::GetPiercingSize, COMDAT
; _this$ = ecx

; 101  : 	int		GetPiercingSize()	{	return m_piercing.GetPiercingSize();		}

  00000	83 c1 3c	 add	 ecx, 60			; 0000003cH
  00003	e9 00 00 00 00	 jmp	 ?GetPiercingSize@CPiercing@@QAEHXZ ; CPiercing::GetPiercingSize
?GetPiercingSize@CItemElem@@QAEHXZ ENDP			; CItemElem::GetPiercingSize
_TEXT	ENDS
PUBLIC	?GetPiercingItem@CItemElem@@QAEKH@Z		; CItemElem::GetPiercingItem
EXTRN	?GetPiercingItem@CPiercing@@QAEKH@Z:NEAR	; CPiercing::GetPiercingItem
; Function compile flags: /Ogty
;	COMDAT ?GetPiercingItem@CItemElem@@QAEKH@Z
_TEXT	SEGMENT
_nth$ = 8						; size = 4
?GetPiercingItem@CItemElem@@QAEKH@Z PROC NEAR		; CItemElem::GetPiercingItem, COMDAT
; _this$ = ecx

; 104  : 	DWORD	GetPiercingItem( int nth )	{	return m_piercing.GetPiercingItem( nth );	}

  00000	83 c1 3c	 add	 ecx, 60			; 0000003cH
  00003	e9 00 00 00 00	 jmp	 ?GetPiercingItem@CPiercing@@QAEKH@Z ; CPiercing::GetPiercingItem
?GetPiercingItem@CItemElem@@QAEKH@Z ENDP		; CItemElem::GetPiercingItem
_TEXT	ENDS
PUBLIC	?IsDie@CAction@@QAEHXZ				; CAction::IsDie
; Function compile flags: /Ogty
; File c:\documents and settings\test\mes documents\source\virtuos_v17\build\program\_aiinterface\action.h
;	COMDAT ?IsDie@CAction@@QAEHXZ
_TEXT	SEGMENT
?IsDie@CAction@@QAEHXZ PROC NEAR			; CAction::IsDie, COMDAT
; _this$ = ecx

; 310  : 	BOOL			IsDie() { return (m_dwState & OBJSTA_DIE_ALL) ? TRUE : FALSE; }

  00000	8b 41 04	 mov	 eax, DWORD PTR [ecx+4]
  00003	c1 e8 1b	 shr	 eax, 27			; 0000001bH
  00006	83 e0 01	 and	 eax, 1
  00009	c3		 ret	 0
?IsDie@CAction@@QAEHXZ ENDP				; CAction::IsDie
_TEXT	ENDS
PUBLIC	?IsSit@CAction@@QAEHXZ				; CAction::IsSit
; Function compile flags: /Ogty
;	COMDAT ?IsSit@CAction@@QAEHXZ
_TEXT	SEGMENT
?IsSit@CAction@@QAEHXZ PROC NEAR			; CAction::IsSit, COMDAT
; _this$ = ecx

; 311  : 	BOOL			IsSit() { return (m_dwStateFlag & OBJSTAF_SIT) ? TRUE : FALSE; }

  00000	8b 41 08	 mov	 eax, DWORD PTR [ecx+8]
  00003	c1 e8 02	 shr	 eax, 2
  00006	83 e0 01	 and	 eax, 1
  00009	c3		 ret	 0
?IsSit@CAction@@QAEHXZ ENDP				; CAction::IsSit
_TEXT	ENDS
PUBLIC	?IsSkillAttack@@YAHK@Z				; IsSkillAttack
; Function compile flags: /Ogty
; File c:\documents and settings\test\mes documents\source\virtuos_v17\build\program\_aiinterface\actionmover.h
;	COMDAT ?IsSkillAttack@@YAHK@Z
_TEXT	SEGMENT
_dwAtkFlags$ = 8					; size = 4
?IsSkillAttack@@YAHK@Z PROC NEAR			; IsSkillAttack, COMDAT

; 49   : 	return (dwAtkFlags & (AF_MELEESKILL|AF_MAGICSKILL) );

  00000	8b 44 24 04	 mov	 eax, DWORD PTR _dwAtkFlags$[esp-4]
  00004	83 e0 30	 and	 eax, 48			; 00000030H

; 50   : }

  00007	c3		 ret	 0
?IsSkillAttack@@YAHK@Z ENDP				; IsSkillAttack
_TEXT	ENDS
PUBLIC	?SendDamage@CActionMover@@QAEHKKHHH@Z		; CActionMover::SendDamage
; Function compile flags: /Ogty
;	COMDAT ?SendDamage@CActionMover@@QAEHKKHHH@Z
_TEXT	SEGMENT
_dwAtkFlags$ = 8					; size = 4
_idSender$ = 12						; size = 4
_nParam$ = 16						; size = 4
_bTarget$ = 20						; size = 4
_nReflect$ = 24						; size = 4
?SendDamage@CActionMover@@QAEHKKHHH@Z PROC NEAR		; CActionMover::SendDamage, COMDAT
; _this$ = ecx

; 134  : 	int				SendDamage( DWORD dwAtkFlags, OBJID idSender, int nParam = 0, BOOL bTarget = TRUE, int nReflect = 0 )	{	return SendActMsg( OBJMSG_DAMAGE, dwAtkFlags, idSender, nParam, bTarget, nReflect );	}

  00000	8b 54 24 14	 mov	 edx, DWORD PTR _nReflect$[esp-4]
  00004	8b 01		 mov	 eax, DWORD PTR [ecx]
  00006	52		 push	 edx
  00007	8b 54 24 14	 mov	 edx, DWORD PTR _bTarget$[esp]
  0000b	52		 push	 edx
  0000c	8b 54 24 14	 mov	 edx, DWORD PTR _nParam$[esp+4]
  00010	52		 push	 edx
  00011	8b 54 24 14	 mov	 edx, DWORD PTR _idSender$[esp+8]
  00015	52		 push	 edx
  00016	8b 54 24 14	 mov	 edx, DWORD PTR _dwAtkFlags$[esp+12]
  0001a	52		 push	 edx
  0001b	6a 29		 push	 41			; 00000029H
  0001d	ff 50 04	 call	 DWORD PTR [eax+4]
  00020	c2 14 00	 ret	 20			; 00000014H
?SendDamage@CActionMover@@QAEHKKHHH@Z ENDP		; CActionMover::SendDamage
_TEXT	ENDS
PUBLIC	?SetAggro@CMover@@QAEXJ@Z			; CMover::SetAggro
; Function compile flags: /Ogty
; File c:\documents and settings\test\mes documents\source\virtuos_v17\build\program\_common\mover.h
;	COMDAT ?SetAggro@CMover@@QAEXJ@Z
_TEXT	SEGMENT
_dwAggro$ = 8						; size = 4
?SetAggro@CMover@@QAEXJ@Z PROC NEAR			; CMover::SetAggro, COMDAT
; _this$ = ecx

; 803  : 	void	SetAggro( long dwAggro ){ if( dwAggro >= 0 ) m_dwAggro = (DWORD)dwAggro; else m_dwAggro = 0; };

  00000	8b 44 24 04	 mov	 eax, DWORD PTR _dwAggro$[esp-4]
  00004	33 d2		 xor	 edx, edx
  00006	85 c0		 test	 eax, eax
  00008	0f 9c c2	 setl	 dl
  0000b	4a		 dec	 edx
  0000c	23 d0		 and	 edx, eax
  0000e	89 91 88 11 00
	00		 mov	 DWORD PTR [ecx+4488], edx
  00014	c2 04 00	 ret	 4
?SetAggro@CMover@@QAEXJ@Z ENDP				; CMover::SetAggro
_TEXT	ENDS
PUBLIC	?SetMode@CMover@@QAEXK@Z			; CMover::SetMode
; Function compile flags: /Ogty
;	COMDAT ?SetMode@CMover@@QAEXK@Z
_TEXT	SEGMENT
_dwMode$ = 8						; size = 4
?SetMode@CMover@@QAEXK@Z PROC NEAR			; CMover::SetMode, COMDAT
; _this$ = ecx

; 1027 : 	void			SetMode( DWORD dwMode )		{ m_dwMode |= dwMode; }	//  V

  00000	8b 91 44 02 00
	00		 mov	 edx, DWORD PTR [ecx+580]
  00006	8b 44 24 04	 mov	 eax, DWORD PTR _dwMode$[esp-4]
  0000a	0b d0		 or	 edx, eax
  0000c	89 91 44 02 00
	00		 mov	 DWORD PTR [ecx+580], edx
  00012	c2 04 00	 ret	 4
?SetMode@CMover@@QAEXK@Z ENDP				; CMover::SetMode
_TEXT	ENDS
PUBLIC	?IsNPC@CMover@@QAEHXZ				; CMover::IsNPC
; Function compile flags: /Ogty
;	COMDAT ?IsNPC@CMover@@QAEHXZ
_TEXT	SEGMENT
?IsNPC@CMover@@QAEHXZ PROC NEAR				; CMover::IsNPC, COMDAT
; _this$ = ecx

; 1041 : 	BOOL			IsNPC()				{ return !m_bPlayer; }

  00000	8b 91 34 02 00
	00		 mov	 edx, DWORD PTR [ecx+564]
  00006	33 c0		 xor	 eax, eax
  00008	85 d2		 test	 edx, edx
  0000a	0f 94 c0	 sete	 al
  0000d	c3		 ret	 0
?IsNPC@CMover@@QAEHXZ ENDP				; CMover::IsNPC
_TEXT	ENDS
PUBLIC	?IsPlayer@CMover@@QAEHXZ			; CMover::IsPlayer
; Function compile flags: /Ogty
;	COMDAT ?IsPlayer@CMover@@QAEHXZ
_TEXT	SEGMENT
?IsPlayer@CMover@@QAEHXZ PROC NEAR			; CMover::IsPlayer, COMDAT
; _this$ = ecx

; 1042 : 	BOOL			IsPlayer()			{ return m_bPlayer; }

  00000	8b 81 34 02 00
	00		 mov	 eax, DWORD PTR [ecx+564]
  00006	c3		 ret	 0
?IsPlayer@CMover@@QAEHXZ ENDP				; CMover::IsPlayer
_TEXT	ENDS
PUBLIC	?GetPropA@CMover@@QAEPAUMoverProp@@XZ		; CMover::GetPropA
EXTRN	?prj@@3VCProject@@A:BYTE			; prj
; Function compile flags: /Ogty
;	COMDAT ?GetPropA@CMover@@QAEPAUMoverProp@@XZ
_TEXT	SEGMENT
?GetPropA@CMover@@QAEPAUMoverProp@@XZ PROC NEAR		; CMover::GetPropA, COMDAT
; _this$ = ecx

; 1046 : 	MoverProp*		GetProp() { return prj.GetMoverProp( m_dwIndex ); }	//    	

  00000	8b 81 74 01 00
	00		 mov	 eax, DWORD PTR [ecx+372]
  00006	85 c0		 test	 eax, eax
  00008	8b 0d d0 01 00
	00		 mov	 ecx, DWORD PTR ?prj@@3VCProject@@A+464
  0000e	7c 13		 jl	 SHORT $L265354
  00010	3b c1		 cmp	 eax, ecx
  00012	7d 0f		 jge	 SHORT $L265354
  00014	8b 0d d4 01 00
	00		 mov	 ecx, DWORD PTR ?prj@@3VCProject@@A+468
  0001a	69 c0 d8 06 00
	00		 imul	 eax, 1752		; 000006d8H
  00020	03 c1		 add	 eax, ecx
  00022	c3		 ret	 0
$L265354:
  00023	50		 push	 eax
  00024	51		 push	 ecx
  00025	6a 00		 push	 0
  00027	68 00 00 00 00	 push	 OFFSET FLAT:??_C@_0BJ@GKPOBPPI@GetMoverProp?5range_error?$AA@
  0002c	68 00 00 00 00	 push	 OFFSET FLAT:??_C@_0BM@HMFGHCP@?$CFs?5min?3?$CFd?0?5max?3?$CFd?0?5index?3?$CFd?$AA@
  00031	e8 00 00 00 00	 call	 ?Error@@YAPBDPBDZZ	; Error
  00036	83 c4 14	 add	 esp, 20			; 00000014H
  00039	33 c0		 xor	 eax, eax
  0003b	c3		 ret	 0
?GetPropA@CMover@@QAEPAUMoverProp@@XZ ENDP		; CMover::GetPropA
_TEXT	ENDS
PUBLIC	?ClearDestObj@CMover@@QAEXXZ			; CMover::ClearDestObj
EXTRN	__fltused:NEAR
; Function compile flags: /Ogty
;	COMDAT ?ClearDestObj@CMover@@QAEXXZ
_TEXT	SEGMENT
?ClearDestObj@CMover@@QAEXXZ PROC NEAR			; CMover::ClearDestObj, COMDAT
; _this$ = ecx

; 1056 : 	void			ClearDestObj()     	{ m_idDest = NULL_ID; m_fArrivalRange = 0.0f; }

  00000	c7 81 5c 02 00
	00 ff ff ff ff	 mov	 DWORD PTR [ecx+604], -1
  0000a	c7 81 58 02 00
	00 00 00 00 00	 mov	 DWORD PTR [ecx+600], 0
  00014	c3		 ret	 0
?ClearDestObj@CMover@@QAEXXZ ENDP			; CMover::ClearDestObj
_TEXT	ENDS
PUBLIC	?GetLevel@CMover@@QAEHXZ			; CMover::GetLevel
; Function compile flags: /Ogty
;	COMDAT ?GetLevel@CMover@@QAEHXZ
_TEXT	SEGMENT
?GetLevel@CMover@@QAEHXZ PROC NEAR			; CMover::GetLevel, COMDAT
; _this$ = ecx

; 1159 : 	int				GetLevel() { return m_nLevel; }

  00000	8b 81 e0 05 00
	00		 mov	 eax, DWORD PTR [ecx+1504]
  00006	c3		 ret	 0
?GetLevel@CMover@@QAEHXZ ENDP				; CMover::GetLevel
_TEXT	ENDS
PUBLIC	?IsDie@CMover@@QAEHXZ				; CMover::IsDie
; Function compile flags: /Ogty
;	COMDAT ?IsDie@CMover@@QAEHXZ
_TEXT	SEGMENT
?IsDie@CMover@@QAEHXZ PROC NEAR				; CMover::IsDie, COMDAT
; _this$ = ecx

; 1276 : 	BOOL			IsDie() { return m_pActMover->IsDie() || m_nHitPoint == 0; }

  00000	8b 81 3c 02 00
	00		 mov	 eax, DWORD PTR [ecx+572]
  00006	f7 40 04 00 00
	00 08		 test	 DWORD PTR [eax+4], 134217728 ; 08000000H
  0000d	75 0d		 jne	 SHORT $L265367
  0000f	8b 81 00 06 00
	00		 mov	 eax, DWORD PTR [ecx+1536]
  00015	85 c0		 test	 eax, eax
  00017	74 03		 je	 SHORT $L265367
  00019	33 c0		 xor	 eax, eax
  0001b	c3		 ret	 0
$L265367:
  0001c	b8 01 00 00 00	 mov	 eax, 1
  00021	c3		 ret	 0
?IsDie@CMover@@QAEHXZ ENDP				; CMover::IsDie
_TEXT	ENDS
PUBLIC	?IsChaotic@CMover@@QAEHXZ			; CMover::IsChaotic
; Function compile flags: /Ogty
;	COMDAT ?IsChaotic@CMover@@QAEHXZ
_TEXT	SEGMENT
?IsChaotic@CMover@@QAEHXZ PROC NEAR			; CMover::IsChaotic, COMDAT
; _this$ = ecx

; 1283 : 	BOOL			IsChaotic( void ) { return m_dwPKPropensity > 0; }	/// 

  00000	8b 91 60 07 00
	00		 mov	 edx, DWORD PTR [ecx+1888]
  00006	33 c0		 xor	 eax, eax
  00008	3b c2		 cmp	 eax, edx
  0000a	1b c0		 sbb	 eax, eax
  0000c	f7 d8		 neg	 eax
  0000e	c3		 ret	 0
?IsChaotic@CMover@@QAEHXZ ENDP				; CMover::IsChaotic
_TEXT	ENDS
PUBLIC	?GetPKValue@CMover@@QAEHXZ			; CMover::GetPKValue
; Function compile flags: /Ogty
;	COMDAT ?GetPKValue@CMover@@QAEHXZ
_TEXT	SEGMENT
?GetPKValue@CMover@@QAEHXZ PROC NEAR			; CMover::GetPKValue, COMDAT
; _this$ = ecx

; 1285 : 	int				GetPKValue( void ) { return m_nPKValue; }

  00000	8b 81 5c 07 00
	00		 mov	 eax, DWORD PTR [ecx+1884]
  00006	c3		 ret	 0
?GetPKValue@CMover@@QAEHXZ ENDP				; CMover::GetPKValue
_TEXT	ENDS
PUBLIC	?GetPKPropensity@CMover@@QAEKXZ			; CMover::GetPKPropensity
; Function compile flags: /Ogty
;	COMDAT ?GetPKPropensity@CMover@@QAEKXZ
_TEXT	SEGMENT
?GetPKPropensity@CMover@@QAEKXZ PROC NEAR		; CMover::GetPKPropensity, COMDAT
; _this$ = ecx

; 1287 : 	DWORD			GetPKPropensity( void ) { return m_dwPKPropensity; }

  00000	8b 81 60 07 00
	00		 mov	 eax, DWORD PTR [ecx+1888]
  00006	c3		 ret	 0
?GetPKPropensity@CMover@@QAEKXZ ENDP			; CMover::GetPKPropensity
_TEXT	ENDS
PUBLIC	?IsSMMode@CMover@@QAEHH@Z			; CMover::IsSMMode
; Function compile flags: /Ogty
;	COMDAT ?IsSMMode@CMover@@QAEHH@Z
_TEXT	SEGMENT
_nType$ = 8						; size = 4
?IsSMMode@CMover@@QAEHH@Z PROC NEAR			; CMover::IsSMMode, COMDAT
; _this$ = ecx

; 1483 : 	BOOL			IsSMMode( int nType ) { return ( m_dwSMTime[nType] > 0 ) ? TRUE : FALSE; }

  00000	8b 54 24 04	 mov	 edx, DWORD PTR _nType$[esp-4]
  00004	56		 push	 esi
  00005	8b b4 91 04 03
	00 00		 mov	 esi, DWORD PTR [ecx+edx*4+772]
  0000c	33 c0		 xor	 eax, eax
  0000e	3b c6		 cmp	 eax, esi
  00010	1b c0		 sbb	 eax, eax
  00012	f7 d8		 neg	 eax
  00014	5e		 pop	 esi
  00015	c2 04 00	 ret	 4
?IsSMMode@CMover@@QAEHH@Z ENDP				; CMover::IsSMMode
_TEXT	ENDS
PUBLIC	?HasOwner@CMover@@QAEHXZ			; CMover::HasOwner
; Function compile flags: /Ogty
;	COMDAT ?HasOwner@CMover@@QAEHXZ
_TEXT	SEGMENT
?HasOwner@CMover@@QAEHXZ PROC NEAR			; CMover::HasOwner, COMDAT
; _this$ = ecx

; 1722 : 	BOOL			HasOwner(){ return ( m_dwIdOwner != NULL && m_dwIdOwner != NULL_ID ); };

  00000	8b 81 d4 16 00
	00		 mov	 eax, DWORD PTR [ecx+5844]
  00006	85 c0		 test	 eax, eax
  00008	74 0b		 je	 SHORT $L265387
  0000a	83 f8 ff	 cmp	 eax, -1
  0000d	74 06		 je	 SHORT $L265387
  0000f	b8 01 00 00 00	 mov	 eax, 1
  00014	c3		 ret	 0
$L265387:
  00015	33 c0		 xor	 eax, eax
  00017	c3		 ret	 0
?HasOwner@CMover@@QAEHXZ ENDP				; CMover::HasOwner
_TEXT	ENDS
PUBLIC	?GetOwner@CMover@@QAEKXZ			; CMover::GetOwner
; Function compile flags: /Ogty
;	COMDAT ?GetOwner@CMover@@QAEKXZ
_TEXT	SEGMENT
?GetOwner@CMover@@QAEKXZ PROC NEAR			; CMover::GetOwner, COMDAT
; _this$ = ecx

; 1723 : 	DWORD			GetOwner(){ return m_dwIdOwner; };

  00000	8b 81 d4 16 00
	00		 mov	 eax, DWORD PTR [ecx+5844]
  00006	c3		 ret	 0
?GetOwner@CMover@@QAEKXZ ENDP				; CMover::GetOwner
_TEXT	ENDS
PUBLIC	?IsMode@CMover@@QAEHK@Z				; CMover::IsMode
EXTRN	?GetAdjParam@CMover@@QAEHH@Z:NEAR		; CMover::GetAdjParam
; Function compile flags: /Ogty
;	COMDAT ?IsMode@CMover@@QAEHK@Z
_TEXT	SEGMENT
_dwMode$ = 8						; size = 4
?IsMode@CMover@@QAEHK@Z PROC NEAR			; CMover::IsMode, COMDAT
; _this$ = ecx

; 1762 : { 

  00000	53		 push	 ebx

; 1763 : #ifdef __HACK_0516
; 1764 : 	switch( dwMode )
; 1765 : 	{
; 1766 : 		case MATCHLESS_MODE:		//  
; 1767 : 		case ONEKILL_MODE:		//  
; 1768 : 		case MATCHLESS2_MODE:	//  2
; 1769 : 			if( m_dwAuthorization == AUTH_GENERAL )
; 1770 : 				return FALSE;
; 1771 : 			break;
; 1772 : 	}
; 1773 : #endif	// __HACK_0516
; 1774 : 	if( (dwMode & TRANSPARENT_MODE) )	//   

  00001	8b 5c 24 08	 mov	 ebx, DWORD PTR _dwMode$[esp]
  00005	f6 c3 02	 test	 bl, 2
  00008	56		 push	 esi
  00009	8b f1		 mov	 esi, ecx
  0000b	74 16		 je	 SHORT $L212480

; 1775 : 		if( GetAdjParam(DST_CHRSTATE) & CHS_INVISIBILITY )	//  ?

  0000d	6a 40		 push	 64			; 00000040H
  0000f	e8 00 00 00 00	 call	 ?GetAdjParam@CMover@@QAEHH@Z ; CMover::GetAdjParam
  00014	f6 c4 04	 test	 ah, 4
  00017	74 0a		 je	 SHORT $L212480
  00019	5e		 pop	 esi

; 1776 : 			return TRUE;

  0001a	b8 01 00 00 00	 mov	 eax, 1
  0001f	5b		 pop	 ebx

; 1778 : }	

  00020	c2 04 00	 ret	 4
$L212480:

; 1777 : 	return ( ( m_dwMode & dwMode ) == dwMode ) ? TRUE : FALSE; 

  00023	8b 86 44 02 00
	00		 mov	 eax, DWORD PTR [esi+580]
  00029	23 c3		 and	 eax, ebx
  0002b	2b c3		 sub	 eax, ebx
  0002d	f7 d8		 neg	 eax
  0002f	1b c0		 sbb	 eax, eax
  00031	5e		 pop	 esi
  00032	40		 inc	 eax
  00033	5b		 pop	 ebx

; 1778 : }	

  00034	c2 04 00	 ret	 4
?IsMode@CMover@@QAEHK@Z ENDP				; CMover::IsMode
_TEXT	ENDS
PUBLIC	?GetGold@CMover@@QAEHXZ				; CMover::GetGold
; Function compile flags: /Ogty
;	COMDAT ?GetGold@CMover@@QAEHXZ
_TEXT	SEGMENT
?GetGold@CMover@@QAEHXZ PROC NEAR			; CMover::GetGold, COMDAT
; _this$ = ecx

; 1829 : 	int nGold = m_dwGold;
; 1830 : //	nGold -= m_vtInfo.TradeGetGold();
; 1831 : 	ASSERT( nGold >= 0 );
; 1832 : 	return nGold;

  00000	8b 81 84 16 00
	00		 mov	 eax, DWORD PTR [ecx+5764]

; 1833 : }

  00006	c3		 ret	 0
?GetGold@CMover@@QAEHXZ ENDP				; CMover::GetGold
_TEXT	ENDS
PUBLIC	?IsArena@CWorld@@QAEHXZ				; CWorld::IsArena
; Function compile flags: /Ogty
; File c:\documents and settings\test\mes documents\source\virtuos_v17\build\program\_common\world.h
;	COMDAT ?IsArena@CWorld@@QAEHXZ
_TEXT	SEGMENT
?IsArena@CWorld@@QAEHXZ PROC NEAR			; CWorld::IsArena, COMDAT
; _this$ = ecx

; 417  : 		{	return( m_dwWorldID == WI_WORLD_ARENA );	}

  00000	8b 11		 mov	 edx, DWORD PTR [ecx]
  00002	33 c0		 xor	 eax, eax
  00004	81 fa d0 00 00
	00		 cmp	 edx, 208		; 000000d0H
  0000a	0f 94 c0	 sete	 al
  0000d	c3		 ret	 0
?IsArena@CWorld@@QAEHXZ ENDP				; CWorld::IsArena
_TEXT	ENDS
PUBLIC	?GetSize@?$CFixedArray@UItemProp@@@@QAEHXZ	; CFixedArray<ItemProp>::GetSize
; Function compile flags: /Ogty
; File c:\documents and settings\test\mes documents\source\virtuos_v17\build\program\_common\data.h
;	COMDAT ?GetSize@?$CFixedArray@UItemProp@@@@QAEHXZ
_TEXT	SEGMENT
?GetSize@?$CFixedArray@UItemProp@@@@QAEHXZ PROC NEAR	; CFixedArray<ItemProp>::GetSize, COMDAT
; _this$ = ecx

; 221  : 	int  GetSize() { return m_nMaxIndex; }

  00000	8b 41 18	 mov	 eax, DWORD PTR [ecx+24]
  00003	c3		 ret	 0
?GetSize@?$CFixedArray@UItemProp@@@@QAEHXZ ENDP		; CFixedArray<ItemProp>::GetSize
_TEXT	ENDS
PUBLIC	??R?$less@K@std@@QBE_NABK0@Z			; std::less<unsigned long>::operator()
; Function compile flags: /Ogty
; File c:\program files\microsoft visual studio .net 2003\vc7\include\functional
;	COMDAT ??R?$less@K@std@@QBE_NABK0@Z
_TEXT	SEGMENT
__Left$ = 8						; size = 4
__Right$ = 12						; size = 4
??R?$less@K@std@@QBE_NABK0@Z PROC NEAR			; std::less<unsigned long>::operator(), COMDAT
; _this$ = ecx

; 139  : 		return (_Left < _Right);

  00000	8b 44 24 04	 mov	 eax, DWORD PTR __Left$[esp-4]
  00004	8b 08		 mov	 ecx, DWORD PTR [eax]
  00006	8b 54 24 08	 mov	 edx, DWORD PTR __Right$[esp-4]
  0000a	3b 0a		 cmp	 ecx, DWORD PTR [edx]
  0000c	1b c0		 sbb	 eax, eax
  0000e	f7 d8		 neg	 eax

; 140  : 		}

  00010	c2 08 00	 ret	 8
??R?$less@K@std@@QBE_NABK0@Z ENDP			; std::less<unsigned long>::operator()
_TEXT	ENDS
PUBLIC	??8const_iterator@?$_Tree@V?$_Tmap_traits@KEU?$less@K@std@@V?$allocator@U?$pair@$$CBKE@std@@@2@$0A@@std@@@std@@QBE_NABV012@@Z ; std::_Tree<std::_Tmap_traits<unsigned long,unsigned char,std::less<unsigned long>,std::allocator<std::pair<unsigned long const ,unsigned char> >,0> >::const_iterator::operator==
; Function compile flags: /Ogty
; File c:\program files\microsoft visual studio .net 2003\vc7\include\xtree
;	COMDAT ??8const_iterator@?$_Tree@V?$_Tmap_traits@KEU?$less@K@std@@V?$allocator@U?$pair@$$CBKE@std@@@2@$0A@@std@@@std@@QBE_NABV012@@Z
_TEXT	SEGMENT
__Right$ = 8						; size = 4
??8const_iterator@?$_Tree@V?$_Tmap_traits@KEU?$less@K@std@@V?$allocator@U?$pair@$$CBKE@std@@@2@$0A@@std@@@std@@QBE_NABV012@@Z PROC NEAR ; std::_Tree<std::_Tmap_traits<unsigned long,unsigned char,std::less<unsigned long>,std::allocator<std::pair<unsigned long const ,unsigned char> >,0> >::const_iterator::operator==, COMDAT
; _this$ = ecx

; 241  : 			return (_Ptr == _Right._Ptr);

  00000	8b 01		 mov	 eax, DWORD PTR [ecx]
  00002	8b 4c 24 04	 mov	 ecx, DWORD PTR __Right$[esp-4]
  00006	2b 01		 sub	 eax, DWORD PTR [ecx]
  00008	f7 d8		 neg	 eax
  0000a	1b c0		 sbb	 eax, eax
  0000c	40		 inc	 eax

; 242  : 			}

  0000d	c2 04 00	 ret	 4
??8const_iterator@?$_Tree@V?$_Tmap_traits@KEU?$less@K@std@@V?$allocator@U?$pair@$$CBKE@std@@@2@$0A@@std@@@std@@QBE_NABV012@@Z ENDP ; std::_Tree<std::_Tmap_traits<unsigned long,unsigned char,std::less<unsigned long>,std::allocator<std::pair<unsigned long const ,unsigned char> >,0> >::const_iterator::operator==
_TEXT	ENDS
PUBLIC	?_Mynode@const_iterator@?$_Tree@V?$_Tmap_traits@KEU?$less@K@std@@V?$allocator@U?$pair@$$CBKE@std@@@2@$0A@@std@@@std@@QBEPAU_Node@?$_Tree_nod@V?$_Tmap_traits@KEU?$less@K@std@@V?$allocator@U?$pair@$$CBKE@std@@@2@$0A@@std@@@3@XZ ; std::_Tree<std::_Tmap_traits<unsigned long,unsigned char,std::less<unsigned long>,std::allocator<std::pair<unsigned long const ,unsigned char> >,0> >::const_iterator::_Mynode
; Function compile flags: /Ogty
;	COMDAT ?_Mynode@const_iterator@?$_Tree@V?$_Tmap_traits@KEU?$less@K@std@@V?$allocator@U?$pair@$$CBKE@std@@@2@$0A@@std@@@std@@QBEPAU_Node@?$_Tree_nod@V?$_Tmap_traits@KEU?$less@K@std@@V?$allocator@U?$pair@$$CBKE@std@@@2@$0A@@std@@@3@XZ
_TEXT	SEGMENT
?_Mynode@const_iterator@?$_Tree@V?$_Tmap_traits@KEU?$less@K@std@@V?$allocator@U?$pair@$$CBKE@std@@@2@$0A@@std@@@std@@QBEPAU_Node@?$_Tree_nod@V?$_Tmap_traits@KEU?$less@K@std@@V?$allocator@U?$pair@$$CBKE@std@@@2@$0A@@std@@@3@XZ PROC NEAR ; std::_Tree<std::_Tmap_traits<unsigned long,unsigned char,std::less<unsigned long>,std::allocator<std::pair<unsigned long const ,unsigned char> >,0> >::const_iterator::_Mynode, COMDAT
; _this$ = ecx

; 284  : 			return (_Ptr);

  00000	8b 01		 mov	 eax, DWORD PTR [ecx]

; 285  : 			}

  00002	c3		 ret	 0
?_Mynode@const_iterator@?$_Tree@V?$_Tmap_traits@KEU?$less@K@std@@V?$allocator@U?$pair@$$CBKE@std@@@2@$0A@@std@@@std@@QBEPAU_Node@?$_Tree_nod@V?$_Tmap_traits@KEU?$less@K@std@@V?$allocator@U?$pair@$$CBKE@std@@@2@$0A@@std@@@3@XZ ENDP ; std::_Tree<std::_Tmap_traits<unsigned long,unsigned char,std::less<unsigned long>,std::allocator<std::pair<unsigned long const ,unsigned char> >,0> >::const_iterator::_Mynode
_TEXT	ENDS
PUBLIC	?_Myval@?$_Tree@V?$_Tmap_traits@KEU?$less@K@std@@V?$allocator@U?$pair@$$CBKE@std@@@2@$0A@@std@@@std@@KAAAU?$pair@$$CBKE@2@PAU_Node@?$_Tree_nod@V?$_Tmap_traits@KEU?$less@K@std@@V?$allocator@U?$pair@$$CBKE@std@@@2@$0A@@std@@@2@@Z ; std::_Tree<std::_Tmap_traits<unsigned long,unsigned char,std::less<unsigned long>,std::allocator<std::pair<unsigned long const ,unsigned char> >,0> >::_Myval
; Function compile flags: /Ogty
;	COMDAT ?_Myval@?$_Tree@V?$_Tmap_traits@KEU?$less@K@std@@V?$allocator@U?$pair@$$CBKE@std@@@2@$0A@@std@@@std@@KAAAU?$pair@$$CBKE@2@PAU_Node@?$_Tree_nod@V?$_Tmap_traits@KEU?$less@K@std@@V?$allocator@U?$pair@$$CBKE@std@@@2@$0A@@std@@@2@@Z
_TEXT	SEGMENT
__Pnode$ = 8						; size = 4
?_Myval@?$_Tree@V?$_Tmap_traits@KEU?$less@K@std@@V?$allocator@U?$pair@$$CBKE@std@@@2@$0A@@std@@@std@@KAAAU?$pair@$$CBKE@2@PAU_Node@?$_Tree_nod@V?$_Tmap_traits@KEU?$less@K@std@@V?$allocator@U?$pair@$$CBKE@std@@@2@$0A@@std@@@2@@Z PROC NEAR ; std::_Tree<std::_Tmap_traits<unsigned long,unsigned char,std::less<unsigned long>,std::allocator<std::pair<unsigned long const ,unsigned char> >,0> >::_Myval, COMDAT

; 162  : 		return ((_Vref)(*_Pnode)._Myval);

  00000	8b 44 24 04	 mov	 eax, DWORD PTR __Pnode$[esp-4]
  00004	83 c0 0c	 add	 eax, 12			; 0000000cH

; 163  : 		}

  00007	c3		 ret	 0
?_Myval@?$_Tree@V?$_Tmap_traits@KEU?$less@K@std@@V?$allocator@U?$pair@$$CBKE@std@@@2@$0A@@std@@@std@@KAAAU?$pair@$$CBKE@2@PAU_Node@?$_Tree_nod@V?$_Tmap_traits@KEU?$less@K@std@@V?$allocator@U?$pair@$$CBKE@std@@@2@$0A@@std@@@2@@Z ENDP ; std::_Tree<std::_Tmap_traits<unsigned long,unsigned char,std::less<unsigned long>,std::allocator<std::pair<unsigned long const ,unsigned char> >,0> >::_Myval
_TEXT	ENDS
PUBLIC	?_Kfn@?$_Tmap_traits@KEU?$less@K@std@@V?$allocator@U?$pair@$$CBKE@std@@@2@$0A@@std@@SAABKABU?$pair@$$CBKE@2@@Z ; std::_Tmap_traits<unsigned long,unsigned char,std::less<unsigned long>,std::allocator<std::pair<unsigned long const ,unsigned char> >,0>::_Kfn
; Function compile flags: /Ogty
; File c:\program files\microsoft visual studio .net 2003\vc7\include\map
;	COMDAT ?_Kfn@?$_Tmap_traits@KEU?$less@K@std@@V?$allocator@U?$pair@$$CBKE@std@@@2@$0A@@std@@SAABKABU?$pair@$$CBKE@2@@Z
_TEXT	SEGMENT
__Val$ = 8						; size = 4
?_Kfn@?$_Tmap_traits@KEU?$less@K@std@@V?$allocator@U?$pair@$$CBKE@std@@@2@$0A@@std@@SAABKABU?$pair@$$CBKE@2@@Z PROC NEAR ; std::_Tmap_traits<unsigned long,unsigned char,std::less<unsigned long>,std::allocator<std::pair<unsigned long const ,unsigned char> >,0>::_Kfn, COMDAT

; 64   : 		return (_Val.first);

  00000	8b 44 24 04	 mov	 eax, DWORD PTR __Val$[esp-4]

; 65   : 		}

  00004	c3		 ret	 0
?_Kfn@?$_Tmap_traits@KEU?$less@K@std@@V?$allocator@U?$pair@$$CBKE@std@@@2@$0A@@std@@SAABKABU?$pair@$$CBKE@2@@Z ENDP ; std::_Tmap_traits<unsigned long,unsigned char,std::less<unsigned long>,std::allocator<std::pair<unsigned long const ,unsigned char> >,0>::_Kfn
_TEXT	ENDS
PUBLIC	??0const_iterator@?$_Tree@V?$_Tmap_traits@KEU?$less@K@std@@V?$allocator@U?$pair@$$CBKE@std@@@2@$0A@@std@@@std@@QAE@PAU_Node@?$_Tree_nod@V?$_Tmap_traits@KEU?$less@K@std@@V?$allocator@U?$pair@$$CBKE@std@@@2@$0A@@std@@@2@@Z ; std::_Tree<std::_Tmap_traits<unsigned long,unsigned char,std::less<unsigned long>,std::allocator<std::pair<unsigned long const ,unsigned char> >,0> >::const_iterator::const_iterator
; Function compile flags: /Ogty
; File c:\program files\microsoft visual studio .net 2003\vc7\include\xtree
;	COMDAT ??0const_iterator@?$_Tree@V?$_Tmap_traits@KEU?$less@K@std@@V?$allocator@U?$pair@$$CBKE@std@@@2@$0A@@std@@@std@@QAE@PAU_Node@?$_Tree_nod@V?$_Tmap_traits@KEU?$less@K@std@@V?$allocator@U?$pair@$$CBKE@std@@@2@$0A@@std@@@2@@Z
_TEXT	SEGMENT
__Pnode$ = 8						; size = 4
??0const_iterator@?$_Tree@V?$_Tmap_traits@KEU?$less@K@std@@V?$allocator@U?$pair@$$CBKE@std@@@2@$0A@@std@@@std@@QAE@PAU_Node@?$_Tree_nod@V?$_Tmap_traits@KEU?$less@K@std@@V?$allocator@U?$pair@$$CBKE@std@@@2@$0A@@std@@@2@@Z PROC NEAR ; std::_Tree<std::_Tmap_traits<unsigned long,unsigned char,std::less<unsigned long>,std::allocator<std::pair<unsigned long const ,unsigned char> >,0> >::const_iterator::const_iterator, COMDAT
; _this$ = ecx

; 200  : 			{	// construct with node pointer _Pnode

  00000	8b c1		 mov	 eax, ecx
  00002	8b 4c 24 04	 mov	 ecx, DWORD PTR __Pnode$[esp-4]
  00006	89 08		 mov	 DWORD PTR [eax], ecx

; 201  : 			}

  00008	c2 04 00	 ret	 4
??0const_iterator@?$_Tree@V?$_Tmap_traits@KEU?$less@K@std@@V?$allocator@U?$pair@$$CBKE@std@@@2@$0A@@std@@@std@@QAE@PAU_Node@?$_Tree_nod@V?$_Tmap_traits@KEU?$less@K@std@@V?$allocator@U?$pair@$$CBKE@std@@@2@$0A@@std@@@2@@Z ENDP ; std::_Tree<std::_Tmap_traits<unsigned long,unsigned char,std::less<unsigned long>,std::allocator<std::pair<unsigned long const ,unsigned char> >,0> >::const_iterator::const_iterator
_TEXT	ENDS
PUBLIC	?_Isnil@?$_Tree@V?$_Tmap_traits@KEU?$less@K@std@@V?$allocator@U?$pair@$$CBKE@std@@@2@$0A@@std@@@std@@KAAADPAU_Node@?$_Tree_nod@V?$_Tmap_traits@KEU?$less@K@std@@V?$allocator@U?$pair@$$CBKE@std@@@2@$0A@@std@@@2@@Z ; std::_Tree<std::_Tmap_traits<unsigned long,unsigned char,std::less<unsigned long>,std::allocator<std::pair<unsigned long const ,unsigned char> >,0> >::_Isnil
; Function compile flags: /Ogty
;	COMDAT ?_Isnil@?$_Tree@V?$_Tmap_traits@KEU?$less@K@std@@V?$allocator@U?$pair@$$CBKE@std@@@2@$0A@@std@@@std@@KAAADPAU_Node@?$_Tree_nod@V?$_Tmap_traits@KEU?$less@K@std@@V?$allocator@U?$pair@$$CBKE@std@@@2@$0A@@std@@@2@@Z
_TEXT	SEGMENT
__Pnode$ = 8						; size = 4
?_Isnil@?$_Tree@V?$_Tmap_traits@KEU?$less@K@std@@V?$allocator@U?$pair@$$CBKE@std@@@2@$0A@@std@@@std@@KAAADPAU_Node@?$_Tree_nod@V?$_Tmap_traits@KEU?$less@K@std@@V?$allocator@U?$pair@$$CBKE@std@@@2@$0A@@std@@@2@@Z PROC NEAR ; std::_Tree<std::_Tmap_traits<unsigned long,unsigned char,std::less<unsigned long>,std::allocator<std::pair<unsigned long const ,unsigned char> >,0> >::_Isnil, COMDAT

; 137  : 		return ((_Charref)(*_Pnode)._Isnil);

  00000	8b 44 24 04	 mov	 eax, DWORD PTR __Pnode$[esp-4]
  00004	83 c0 15	 add	 eax, 21			; 00000015H

; 138  : 		}

  00007	c3		 ret	 0
?_Isnil@?$_Tree@V?$_Tmap_traits@KEU?$less@K@std@@V?$allocator@U?$pair@$$CBKE@std@@@2@$0A@@std@@@std@@KAAADPAU_Node@?$_Tree_nod@V?$_Tmap_traits@KEU?$less@K@std@@V?$allocator@U?$pair@$$CBKE@std@@@2@$0A@@std@@@2@@Z ENDP ; std::_Tree<std::_Tmap_traits<unsigned long,unsigned char,std::less<unsigned long>,std::allocator<std::pair<unsigned long const ,unsigned char> >,0> >::_Isnil
_TEXT	ENDS
PUBLIC	?_Left@?$_Tree@V?$_Tmap_traits@KEU?$less@K@std@@V?$allocator@U?$pair@$$CBKE@std@@@2@$0A@@std@@@std@@KAAAPAU_Node@?$_Tree_nod@V?$_Tmap_traits@KEU?$less@K@std@@V?$allocator@U?$pair@$$CBKE@std@@@2@$0A@@std@@@2@PAU342@@Z ; std::_Tree<std::_Tmap_traits<unsigned long,unsigned char,std::less<unsigned long>,std::allocator<std::pair<unsigned long const ,unsigned char> >,0> >::_Left
; Function compile flags: /Ogty
;	COMDAT ?_Left@?$_Tree@V?$_Tmap_traits@KEU?$less@K@std@@V?$allocator@U?$pair@$$CBKE@std@@@2@$0A@@std@@@std@@KAAAPAU_Node@?$_Tree_nod@V?$_Tmap_traits@KEU?$less@K@std@@V?$allocator@U?$pair@$$CBKE@std@@@2@$0A@@std@@@2@PAU342@@Z
_TEXT	SEGMENT
__Pnode$ = 8						; size = 4
?_Left@?$_Tree@V?$_Tmap_traits@KEU?$less@K@std@@V?$allocator@U?$pair@$$CBKE@std@@@2@$0A@@std@@@std@@KAAAPAU_Node@?$_Tree_nod@V?$_Tmap_traits@KEU?$less@K@std@@V?$allocator@U?$pair@$$CBKE@std@@@2@$0A@@std@@@2@PAU342@@Z PROC NEAR ; std::_Tree<std::_Tmap_traits<unsigned long,unsigned char,std::less<unsigned long>,std::allocator<std::pair<unsigned long const ,unsigned char> >,0> >::_Left, COMDAT

; 147  : 		return ((_Nodepref)(*_Pnode)._Left);

  00000	8b 44 24 04	 mov	 eax, DWORD PTR __Pnode$[esp-4]

; 148  : 		}

  00004	c3		 ret	 0
?_Left@?$_Tree@V?$_Tmap_traits@KEU?$less@K@std@@V?$allocator@U?$pair@$$CBKE@std@@@2@$0A@@std@@@std@@KAAAPAU_Node@?$_Tree_nod@V?$_Tmap_traits@KEU?$less@K@std@@V?$allocator@U?$pair@$$CBKE@std@@@2@$0A@@std@@@2@PAU342@@Z ENDP ; std::_Tree<std::_Tmap_traits<unsigned long,unsigned char,std::less<unsigned long>,std::allocator<std::pair<unsigned long const ,unsigned char> >,0> >::_Left
_TEXT	ENDS
PUBLIC	?_Parent@?$_Tree@V?$_Tmap_traits@KEU?$less@K@std@@V?$allocator@U?$pair@$$CBKE@std@@@2@$0A@@std@@@std@@KAAAPAU_Node@?$_Tree_nod@V?$_Tmap_traits@KEU?$less@K@std@@V?$allocator@U?$pair@$$CBKE@std@@@2@$0A@@std@@@2@PAU342@@Z ; std::_Tree<std::_Tmap_traits<unsigned long,unsigned char,std::less<unsigned long>,std::allocator<std::pair<unsigned long const ,unsigned char> >,0> >::_Parent
; Function compile flags: /Ogty
;	COMDAT ?_Parent@?$_Tree@V?$_Tmap_traits@KEU?$less@K@std@@V?$allocator@U?$pair@$$CBKE@std@@@2@$0A@@std@@@std@@KAAAPAU_Node@?$_Tree_nod@V?$_Tmap_traits@KEU?$less@K@std@@V?$allocator@U?$pair@$$CBKE@std@@@2@$0A@@std@@@2@PAU342@@Z
_TEXT	SEGMENT
__Pnode$ = 8						; size = 4
?_Parent@?$_Tree@V?$_Tmap_traits@KEU?$less@K@std@@V?$allocator@U?$pair@$$CBKE@std@@@2@$0A@@std@@@std@@KAAAPAU_Node@?$_Tree_nod@V?$_Tmap_traits@KEU?$less@K@std@@V?$allocator@U?$pair@$$CBKE@std@@@2@$0A@@std@@@2@PAU342@@Z PROC NEAR ; std::_Tree<std::_Tmap_traits<unsigned long,unsigned char,std::less<unsigned long>,std::allocator<std::pair<unsigned long const ,unsigned char> >,0> >::_Parent, COMDAT

; 152  : 		return ((_Nodepref)(*_Pnode)._Parent);

  00000	8b 44 24 04	 mov	 eax, DWORD PTR __Pnode$[esp-4]
  00004	83 c0 04	 add	 eax, 4

; 153  : 		}

  00007	c3		 ret	 0
?_Parent@?$_Tree@V?$_Tmap_traits@KEU?$less@K@std@@V?$allocator@U?$pair@$$CBKE@std@@@2@$0A@@std@@@std@@KAAAPAU_Node@?$_Tree_nod@V?$_Tmap_traits@KEU?$less@K@std@@V?$allocator@U?$pair@$$CBKE@std@@@2@$0A@@std@@@2@PAU342@@Z ENDP ; std::_Tree<std::_Tmap_traits<unsigned long,unsigned char,std::less<unsigned long>,std::allocator<std::pair<unsigned long const ,unsigned char> >,0> >::_Parent
_TEXT	ENDS
PUBLIC	?_Right@?$_Tree@V?$_Tmap_traits@KEU?$less@K@std@@V?$allocator@U?$pair@$$CBKE@std@@@2@$0A@@std@@@std@@KAAAPAU_Node@?$_Tree_nod@V?$_Tmap_traits@KEU?$less@K@std@@V?$allocator@U?$pair@$$CBKE@std@@@2@$0A@@std@@@2@PAU342@@Z ; std::_Tree<std::_Tmap_traits<unsigned long,unsigned char,std::less<unsigned long>,std::allocator<std::pair<unsigned long const ,unsigned char> >,0> >::_Right
; Function compile flags: /Ogty
;	COMDAT ?_Right@?$_Tree@V?$_Tmap_traits@KEU?$less@K@std@@V?$allocator@U?$pair@$$CBKE@std@@@2@$0A@@std@@@std@@KAAAPAU_Node@?$_Tree_nod@V?$_Tmap_traits@KEU?$less@K@std@@V?$allocator@U?$pair@$$CBKE@std@@@2@$0A@@std@@@2@PAU342@@Z
_TEXT	SEGMENT
__Pnode$ = 8						; size = 4
?_Right@?$_Tree@V?$_Tmap_traits@KEU?$less@K@std@@V?$allocator@U?$pair@$$CBKE@std@@@2@$0A@@std@@@std@@KAAAPAU_Node@?$_Tree_nod@V?$_Tmap_traits@KEU?$less@K@std@@V?$allocator@U?$pair@$$CBKE@std@@@2@$0A@@std@@@2@PAU342@@Z PROC NEAR ; std::_Tree<std::_Tmap_traits<unsigned long,unsigned char,std::less<unsigned long>,std::allocator<std::pair<unsigned long const ,unsigned char> >,0> >::_Right, COMDAT

; 157  : 		return ((_Nodepref)(*_Pnode)._Right);

  00000	8b 44 24 04	 mov	 eax, DWORD PTR __Pnode$[esp-4]
  00004	83 c0 08	 add	 eax, 8

; 158  : 		}

  00007	c3		 ret	 0
?_Right@?$_Tree@V?$_Tmap_traits@KEU?$less@K@std@@V?$allocator@U?$pair@$$CBKE@std@@@2@$0A@@std@@@std@@KAAAPAU_Node@?$_Tree_nod@V?$_Tmap_traits@KEU?$less@K@std@@V?$allocator@U?$pair@$$CBKE@std@@@2@$0A@@std@@@2@PAU342@@Z ENDP ; std::_Tree<std::_Tmap_traits<unsigned long,unsigned char,std::less<unsigned long>,std::allocator<std::pair<unsigned long const ,unsigned char> >,0> >::_Right
_TEXT	ENDS
PUBLIC	?_Root@?$_Tree@V?$_Tmap_traits@KEU?$less@K@std@@V?$allocator@U?$pair@$$CBKE@std@@@2@$0A@@std@@@std@@IBEAAPAU_Node@?$_Tree_nod@V?$_Tmap_traits@KEU?$less@K@std@@V?$allocator@U?$pair@$$CBKE@std@@@2@$0A@@std@@@2@XZ ; std::_Tree<std::_Tmap_traits<unsigned long,unsigned char,std::less<unsigned long>,std::allocator<std::pair<unsigned long const ,unsigned char> >,0> >::_Root
; Function compile flags: /Ogty
;	COMDAT ?_Root@?$_Tree@V?$_Tmap_traits@KEU?$less@K@std@@V?$allocator@U?$pair@$$CBKE@std@@@2@$0A@@std@@@std@@IBEAAPAU_Node@?$_Tree_nod@V?$_Tmap_traits@KEU?$less@K@std@@V?$allocator@U?$pair@$$CBKE@std@@@2@$0A@@std@@@2@XZ
_TEXT	SEGMENT
?_Root@?$_Tree@V?$_Tmap_traits@KEU?$less@K@std@@V?$allocator@U?$pair@$$CBKE@std@@@2@$0A@@std@@@std@@IBEAAPAU_Node@?$_Tree_nod@V?$_Tmap_traits@KEU?$less@K@std@@V?$allocator@U?$pair@$$CBKE@std@@@2@$0A@@std@@@2@XZ PROC NEAR ; std::_Tree<std::_Tmap_traits<unsigned long,unsigned char,std::less<unsigned long>,std::allocator<std::pair<unsigned long const ,unsigned char> >,0> >::_Root, COMDAT
; _this$ = ecx

; 1064 : 		return (_Parent(_Myhead));

  00000	8b 41 04	 mov	 eax, DWORD PTR [ecx+4]
  00003	83 c0 04	 add	 eax, 4

; 1065 : 		}

  00006	c3		 ret	 0
?_Root@?$_Tree@V?$_Tmap_traits@KEU?$less@K@std@@V?$allocator@U?$pair@$$CBKE@std@@@2@$0A@@std@@@std@@IBEAAPAU_Node@?$_Tree_nod@V?$_Tmap_traits@KEU?$less@K@std@@V?$allocator@U?$pair@$$CBKE@std@@@2@$0A@@std@@@2@XZ ENDP ; std::_Tree<std::_Tmap_traits<unsigned long,unsigned char,std::less<unsigned long>,std::allocator<std::pair<unsigned long const ,unsigned char> >,0> >::_Root
_TEXT	ENDS
PUBLIC	?GetAt@?$CFixedArray@UItemProp@@@@QAEPAUItemProp@@K@Z ; CFixedArray<ItemProp>::GetAt
; Function compile flags: /Ogty
; File c:\documents and settings\test\mes documents\source\virtuos_v17\build\program\_common\data.h
;	COMDAT ?GetAt@?$CFixedArray@UItemProp@@@@QAEPAUItemProp@@K@Z
_TEXT	SEGMENT
_dwIndex$ = 8						; size = 4
?GetAt@?$CFixedArray@UItemProp@@@@QAEPAUItemProp@@K@Z PROC NEAR ; CFixedArray<ItemProp>::GetAt, COMDAT
; _this$ = ecx

; 270  : 	if( dwIndex >= (DWORD)m_nMaxIndex )

  00000	8b 44 24 04	 mov	 eax, DWORD PTR _dwIndex$[esp-4]
  00004	3b 41 18	 cmp	 eax, DWORD PTR [ecx+24]
  00007	72 05		 jb	 SHORT $L224299

; 271  : 		return NULL;

  00009	33 c0		 xor	 eax, eax

; 273  : }

  0000b	c2 04 00	 ret	 4
$L224299:

; 272  : 	return (T*) m_apOffset[ dwIndex ];

  0000e	8b 49 08	 mov	 ecx, DWORD PTR [ecx+8]
  00011	8b 04 81	 mov	 eax, DWORD PTR [ecx+eax*4]

; 273  : }

  00014	c2 04 00	 ret	 4
?GetAt@?$CFixedArray@UItemProp@@@@QAEPAUItemProp@@K@Z ENDP ; CFixedArray<ItemProp>::GetAt
_TEXT	ENDS
PUBLIC	?GetChargeLevel@ATTACK_INFO@@QBEHXZ		; ATTACK_INFO::GetChargeLevel
; Function compile flags: /Ogty
; File c:\documents and settings\test\mes documents\source\virtuos_v17\build\program\worldserver\attackarbiter.cpp
;	COMDAT ?GetChargeLevel@ATTACK_INFO@@QBEHXZ
_TEXT	SEGMENT
?GetChargeLevel@ATTACK_INFO@@QBEHXZ PROC NEAR		; ATTACK_INFO::GetChargeLevel, COMDAT
; _this$ = ecx

; 79   : 	if( IsSkillAttack( dwAtkFlags ) )

  00000	f6 41 08 30	 test	 BYTE PTR [ecx+8], 48	; 00000030H
  00004	74 03		 je	 SHORT $L259646

; 80   : 		return 0;

  00006	33 c0		 xor	 eax, eax

; 83   : }

  00008	c3		 ret	 0
$L259646:

; 81   : 	
; 82   : 	return ( nParam & 0xFF);			// 

  00009	8b 41 0c	 mov	 eax, DWORD PTR [ecx+12]
  0000c	25 ff 00 00 00	 and	 eax, 255		; 000000ffH

; 83   : }

  00011	c3		 ret	 0
?GetChargeLevel@ATTACK_INFO@@QBEHXZ ENDP		; ATTACK_INFO::GetChargeLevel
_TEXT	ENDS
PUBLIC	?GetSkill@ATTACK_INFO@@QBEHXZ			; ATTACK_INFO::GetSkill
; Function compile flags: /Ogty
;	COMDAT ?GetSkill@ATTACK_INFO@@QBEHXZ
_TEXT	SEGMENT
?GetSkill@ATTACK_INFO@@QBEHXZ PROC NEAR			; ATTACK_INFO::GetSkill, COMDAT
; _this$ = ecx

; 98   : 	if( IsSkillAttack( dwAtkFlags ) )

  00000	f6 41 08 30	 test	 BYTE PTR [ecx+8], 48	; 00000030H
  00004	74 05		 je	 SHORT $L259657

; 99   : 		return ( nParam >> 16) & 0xFFFF;	//  ID

  00006	0f b7 41 0e	 movzx	 eax, WORD PTR [ecx+14]

; 102  : }

  0000a	c3		 ret	 0
$L259657:

; 100  : 	else
; 101  : 		return 0;

  0000b	33 c0		 xor	 eax, eax

; 102  : }

  0000d	c3		 ret	 0
?GetSkill@ATTACK_INFO@@QBEHXZ ENDP			; ATTACK_INFO::GetSkill
_TEXT	ENDS
EXTRN	??3@YAXPAX@Z:NEAR				; operator delete
; Function compile flags: /Ogty
;	COMDAT ??_GCAttackArbiter@@UAEPAXI@Z
_TEXT	SEGMENT
___flags$ = 8						; size = 4
??_GCAttackArbiter@@UAEPAXI@Z PROC NEAR			; CAttackArbiter::`scalar deleting destructor', COMDAT
; _this$ = ecx
  00000	f6 44 24 04 01	 test	 BYTE PTR ___flags$[esp-4], 1
  00005	56		 push	 esi
  00006	8b f1		 mov	 esi, ecx
  00008	c7 06 00 00 00
	00		 mov	 DWORD PTR [esi], OFFSET FLAT:??_7CAttackArbiter@@6B@
  0000e	74 09		 je	 SHORT $L265461
  00010	56		 push	 esi
  00011	e8 00 00 00 00	 call	 ??3@YAXPAX@Z		; operator delete
  00016	83 c4 04	 add	 esp, 4
$L265461:
  00019	8b c6		 mov	 eax, esi
  0001b	5e		 pop	 esi
  0001c	c2 04 00	 ret	 4
??_GCAttackArbiter@@UAEPAXI@Z ENDP			; CAttackArbiter::`scalar deleting destructor'
_TEXT	ENDS
PUBLIC	?CheckValidDamageMsg@CAttackArbiter@@AAEHXZ	; CAttackArbiter::CheckValidDamageMsg
EXTRN	?IsSteal@CMover@@QAEHPAV1@@Z:NEAR		; CMover::IsSteal
EXTRN	?GetInstance@CCreateMonster@@SAPAV1@XZ:NEAR	; CCreateMonster::GetInstance
EXTRN	?IsAttackAble@CCreateMonster@@QAEHPAVCUser@@PAVCMover@@H@Z:NEAR ; CCreateMonster::IsAttackAble
EXTRN	?g_UserMng@@3VCUserMng@@A:BYTE			; g_UserMng
EXTRN	?GetState@CFlyffEvent@@QAEEH@Z:NEAR		; CFlyffEvent::GetState
EXTRN	?g_eLocal@@3VCFlyffEvent@@A:BYTE		; g_eLocal
EXTRN	?GetInstance@CEventMonster@@SAPAV1@XZ:NEAR	; CEventMonster::GetInstance
EXTRN	?SetEventMonster@CEventMonster@@QAEHK@Z:NEAR	; CEventMonster::SetEventMonster
EXTRN	?GetLevelGap@CEventMonster@@QAEHXZ:NEAR		; CEventMonster::GetLevelGap
EXTRN	?AddDamage@CUserMng@@QAEXPAVCMover@@KKK@Z:NEAR	; CUserMng::AddDamage
; Function compile flags: /Ogty
;	COMDAT ?CheckValidDamageMsg@CAttackArbiter@@AAEHXZ
_TEXT	SEGMENT
?CheckValidDamageMsg@CAttackArbiter@@AAEHXZ PROC NEAR	; CAttackArbiter::CheckValidDamageMsg, COMDAT
; _this$ = ecx

; 272  : {

  00000	56		 push	 esi
  00001	8b f1		 mov	 esi, ecx

; 273  : #ifdef __EVENT_MONSTER
; 274  : 	//    15  MISS
; 275  : 	if( m_pAttacker->IsPlayer() && !m_pDefender->IsPlayer() )

  00003	8b 46 08	 mov	 eax, DWORD PTR [esi+8]
  00006	8b 88 34 02 00
	00		 mov	 ecx, DWORD PTR [eax+564]
  0000c	85 c9		 test	 ecx, ecx
  0000e	57		 push	 edi
  0000f	74 56		 je	 SHORT $L265491
  00011	8b 4e 0c	 mov	 ecx, DWORD PTR [esi+12]
  00014	8b 81 34 02 00
	00		 mov	 eax, DWORD PTR [ecx+564]
  0001a	85 c0		 test	 eax, eax
  0001c	75 49		 jne	 SHORT $L265491

; 276  : 	{
; 277  : 		MoverProp* lpMoverProp = m_pDefender->GetProp();

  0001e	e8 00 00 00 00	 call	 ?GetPropA@CMover@@QAEPAUMoverProp@@XZ ; CMover::GetPropA

; 278  : 		if( lpMoverProp && CEventMonster::GetInstance()->SetEventMonster( lpMoverProp->dwID ) )

  00023	85 c0		 test	 eax, eax
  00025	74 40		 je	 SHORT $L265491
  00027	8b 08		 mov	 ecx, DWORD PTR [eax]
  00029	51		 push	 ecx
  0002a	e8 00 00 00 00	 call	 ?GetInstance@CEventMonster@@SAPAV1@XZ ; CEventMonster::GetInstance
  0002f	8b c8		 mov	 ecx, eax
  00031	e8 00 00 00 00	 call	 ?SetEventMonster@CEventMonster@@QAEHK@Z ; CEventMonster::SetEventMonster
  00036	85 c0		 test	 eax, eax
  00038	74 2d		 je	 SHORT $L265491

; 279  : 			if( m_pAttacker->GetLevel() - m_pDefender->GetLevel() >= CEventMonster::GetInstance()->GetLevelGap() )

  0003a	8b 56 08	 mov	 edx, DWORD PTR [esi+8]
  0003d	8b 46 0c	 mov	 eax, DWORD PTR [esi+12]
  00040	8b ba e0 05 00
	00		 mov	 edi, DWORD PTR [edx+1504]
  00046	55		 push	 ebp
  00047	8b a8 e0 05 00
	00		 mov	 ebp, DWORD PTR [eax+1504]
  0004d	e8 00 00 00 00	 call	 ?GetInstance@CEventMonster@@SAPAV1@XZ ; CEventMonster::GetInstance
  00052	8b c8		 mov	 ecx, eax
  00054	e8 00 00 00 00	 call	 ?GetLevelGap@CEventMonster@@QAEHXZ ; CEventMonster::GetLevelGap
  00059	2b fd		 sub	 edi, ebp
  0005b	3b f8		 cmp	 edi, eax
  0005d	5d		 pop	 ebp
  0005e	7c 07		 jl	 SHORT $L265491

; 280  : 				m_dwAtkFlags = AF_MISS;

  00060	c7 46 10 02 00
	00 00		 mov	 DWORD PTR [esi+16], 2
$L265491:

; 281  : 	}
; 282  : #endif // __EVENT_MONSTER
; 283  : 
; 284  : #if __VER >= 12 // __NEW_ITEMCREATEMON_SERVER
; 285  : 	if( m_pAttacker->IsPlayer() && !CCreateMonster::GetInstance()->IsAttackAble( static_cast<CUser*>(m_pAttacker), m_pDefender, TRUE ) )

  00067	8b 46 08	 mov	 eax, DWORD PTR [esi+8]
  0006a	8b 88 34 02 00
	00		 mov	 ecx, DWORD PTR [eax+564]
  00070	83 cf ff	 or	 edi, -1
  00073	85 c9		 test	 ecx, ecx
  00075	74 30		 je	 SHORT $L259727
  00077	8b 4e 0c	 mov	 ecx, DWORD PTR [esi+12]
  0007a	6a 01		 push	 1
  0007c	51		 push	 ecx
  0007d	50		 push	 eax
  0007e	e8 00 00 00 00	 call	 ?GetInstance@CCreateMonster@@SAPAV1@XZ ; CCreateMonster::GetInstance
  00083	8b c8		 mov	 ecx, eax
  00085	e8 00 00 00 00	 call	 ?IsAttackAble@CCreateMonster@@QAEHPAVCUser@@PAVCMover@@H@Z ; CCreateMonster::IsAttackAble
  0008a	85 c0		 test	 eax, eax
  0008c	75 19		 jne	 SHORT $L259727

; 286  : 	{
; 287  : 		m_dwAtkFlags = AF_MISS;
; 288  : 		m_pDefender->m_idAttacker = NULL_ID;

  0008e	8b 56 0c	 mov	 edx, DWORD PTR [esi+12]
  00091	c7 46 10 02 00
	00 00		 mov	 DWORD PTR [esi+16], 2
  00098	89 ba 9c 06 00
	00		 mov	 DWORD PTR [edx+1692], edi

; 289  : 		m_pDefender->m_idTargeter = NULL_ID;

  0009e	8b 46 0c	 mov	 eax, DWORD PTR [esi+12]
  000a1	89 b8 a0 06 00
	00		 mov	 DWORD PTR [eax+1696], edi
$L259727:

; 290  : 	}
; 291  : #endif // __NEW_ITEMCREATEMON_SERVER
; 292  : 
; 293  : 	if( m_dwAtkFlags & AF_MISS ) 

  000a7	8b 4e 10	 mov	 ecx, DWORD PTR [esi+16]
  000aa	f6 c1 02	 test	 cl, 2
  000ad	74 28		 je	 SHORT $L259730

; 294  : 	{
; 295  : 		g_UserMng.AddDamage( m_pDefender, GETID( m_pAttacker ), 0, m_dwAtkFlags );

  000af	8b 46 08	 mov	 eax, DWORD PTR [esi+8]
  000b2	85 c0		 test	 eax, eax
  000b4	74 08		 je	 SHORT $L265465
  000b6	8b 80 bc 01 00
	00		 mov	 eax, DWORD PTR [eax+444]
  000bc	eb 02		 jmp	 SHORT $L265466
$L265465:
  000be	8b c7		 mov	 eax, edi
$L265466:
  000c0	51		 push	 ecx
  000c1	8b 4e 0c	 mov	 ecx, DWORD PTR [esi+12]
  000c4	6a 00		 push	 0
  000c6	50		 push	 eax
  000c7	51		 push	 ecx
  000c8	b9 00 00 00 00	 mov	 ecx, OFFSET FLAT:?g_UserMng@@3VCUserMng@@A
  000cd	e8 00 00 00 00	 call	 ?AddDamage@CUserMng@@QAEXPAVCMover@@KKK@Z ; CUserMng::AddDamage
$L265492:
  000d2	5f		 pop	 edi

; 296  : 		return FALSE;

  000d3	33 c0		 xor	 eax, eax
  000d5	5e		 pop	 esi

; 308  : }

  000d6	c3		 ret	 0
$L259730:

; 297  : 	}
; 298  : 
; 299  : 	//   .
; 300  : 	//           .
; 301  : 	//                .
; 302  : 	if( !g_eLocal.GetState( EVE_STEAL ) )

  000d7	6a 0d		 push	 13			; 0000000dH
  000d9	b9 00 00 00 00	 mov	 ecx, OFFSET FLAT:?g_eLocal@@3VCFlyffEvent@@A
  000de	e8 00 00 00 00	 call	 ?GetState@CFlyffEvent@@QAEEH@Z ; CFlyffEvent::GetState
  000e3	84 c0		 test	 al, al
  000e5	75 10		 jne	 SHORT $L259732

; 303  : 	{
; 304  : 		if( m_pAttacker->IsSteal( m_pDefender ) )	// m_pAttacker  ?

  000e7	8b 56 0c	 mov	 edx, DWORD PTR [esi+12]
  000ea	8b 4e 08	 mov	 ecx, DWORD PTR [esi+8]
  000ed	52		 push	 edx
  000ee	e8 00 00 00 00	 call	 ?IsSteal@CMover@@QAEHPAV1@@Z ; CMover::IsSteal
  000f3	85 c0		 test	 eax, eax

; 305  : 			return FALSE;					

  000f5	75 db		 jne	 SHORT $L265492
$L259732:
  000f7	5f		 pop	 edi

; 306  : 	}
; 307  : 	return TRUE;

  000f8	b8 01 00 00 00	 mov	 eax, 1
  000fd	5e		 pop	 esi

; 308  : }

  000fe	c3		 ret	 0
?CheckValidDamageMsg@CAttackArbiter@@AAEHXZ ENDP	; CAttackArbiter::CheckValidDamageMsg
_TEXT	ENDS
PUBLIC	__real@3dcccccd
PUBLIC	?CalcATK@CAttackArbiter@@AAEHPAUATTACK_INFO@@@Z	; CAttackArbiter::CalcATK
EXTRN	?GetMagicSkillPower@CMover@@QAEHPAUATTACK_INFO@@@Z:NEAR ; CMover::GetMagicSkillPower
EXTRN	?GetParam@CMover@@QAEHHH@Z:NEAR			; CMover::GetParam
EXTRN	__ftol2:NEAR
EXTRN	?GetATKMultiplier@CMover@@QAEMPAV1@K@Z:NEAR	; CMover::GetATKMultiplier
EXTRN	?GetHitPower@CMover@@QAEHPAUATTACK_INFO@@@Z:NEAR ; CMover::GetHitPower
EXTRN	?GetMeleeSkillPower@CMover@@QAEHPAUATTACK_INFO@@@Z:NEAR ; CMover::GetMeleeSkillPower
EXTRN	?GetMagicHitPower@CMover@@QAEHH@Z:NEAR		; CMover::GetMagicHitPower
EXTRN	?GetAttackPower@CEventLua@@QAEHH@Z:NEAR		; CEventLua::GetAttackPower
;	COMDAT __real@3dcccccd
; File c:\documents and settings\test\mes documents\source\virtuos_v17\build\program\_common\mover.h
CONST	SEGMENT
__real@3dcccccd DD 03dcccccdr			; 0.1
; Function compile flags: /Ogty
; File c:\documents and settings\test\mes documents\source\virtuos_v17\build\program\worldserver\attackarbiter.cpp
CONST	ENDS
;	COMDAT ?CalcATK@CAttackArbiter@@AAEHPAUATTACK_INFO@@@Z
_TEXT	SEGMENT
_nATK$ = -4						; size = 4
_pInfo$ = 8						; size = 4
?CalcATK@CAttackArbiter@@AAEHPAUATTACK_INFO@@@Z PROC NEAR ; CAttackArbiter::CalcATK, COMDAT
; _this$ = ecx

; 311  : {

  00000	51		 push	 ecx
  00001	53		 push	 ebx
  00002	56		 push	 esi
  00003	57		 push	 edi

; 312  : 	int nATK = 0;
; 313  : 	int nCount = pInfo->GetAttackCount();		//  0,  1 

  00004	8b 7c 24 14	 mov	 edi, DWORD PTR _pInfo$[esp+12]
  00008	8b 47 0c	 mov	 eax, DWORD PTR [edi+12]
  0000b	8b f1		 mov	 esi, ecx

; 314  : 
; 315  : 	switch( pInfo->GetAtkType() )

  0000d	8b 4f 08	 mov	 ecx, DWORD PTR [edi+8]
  00010	f6 c1 10	 test	 cl, 16			; 00000010H
  00013	c7 44 24 0c 00
	00 00 00	 mov	 DWORD PTR _nATK$[esp+16], 0
  0001b	0f b6 dc	 movzx	 ebx, ah
  0001e	ba 04 00 00 00	 mov	 edx, 4
  00023	74 07		 je	 SHORT $L265503
  00025	ba 01 00 00 00	 mov	 edx, 1
  0002a	eb 1f		 jmp	 SHORT $L265524
$L265503:
  0002c	f6 c1 20	 test	 cl, 32			; 00000020H
  0002f	74 07		 je	 SHORT $L265505
  00031	ba 02 00 00 00	 mov	 edx, 2
  00036	eb 13		 jmp	 SHORT $L265524
$L265505:
  00038	f6 c1 08	 test	 cl, 8
  0003b	74 07		 je	 SHORT $L265507
  0003d	ba 03 00 00 00	 mov	 edx, 3
  00042	eb 07		 jmp	 SHORT $L265524
$L265507:
  00044	f6 c5 20	 test	 ch, 32			; 00000020H
  00047	74 02		 je	 SHORT $L265524
  00049	33 d2		 xor	 edx, edx
$L265524:
  0004b	ff 24 95 00 00
	00 00		 jmp	 DWORD PTR $L265530[edx*4]
$L259743:

; 316  : 	{
; 317  : 	case ATK_FORCE:								//   (,  )
; 318  : 		nATK = m_nParam;						

  00052	8b 46 14	 mov	 eax, DWORD PTR [esi+20]

; 319  : 		nCount = 0;		

  00055	33 db		 xor	 ebx, ebx

; 320  : 		break;

  00057	eb 41		 jmp	 SHORT $L265529
$L259744:

; 321  : 	case ATK_MELEESKILL:						//  
; 322  : 		nATK = m_pAttacker->GetMeleeSkillPower( pInfo );

  00059	8b 4e 08	 mov	 ecx, DWORD PTR [esi+8]
  0005c	57		 push	 edi
  0005d	e8 00 00 00 00	 call	 ?GetMeleeSkillPower@CMover@@QAEHPAUATTACK_INFO@@@Z ; CMover::GetMeleeSkillPower

; 323  : 		break;

  00062	eb 36		 jmp	 SHORT $L265529
$L259745:

; 324  : 	case ATK_MAGICSKILL:						//   
; 325  : 		nATK = m_pAttacker->GetMagicSkillPower( pInfo );

  00064	8b 4e 08	 mov	 ecx, DWORD PTR [esi+8]
  00067	57		 push	 edi
  00068	e8 00 00 00 00	 call	 ?GetMagicSkillPower@CMover@@QAEHPAUATTACK_INFO@@@Z ; CMover::GetMagicSkillPower

; 326  : 		break;

  0006d	eb 2b		 jmp	 SHORT $L265529
$L259746:

; 327  : 	case ATK_MAGIC:								//   
; 328  : 		nATK = m_pAttacker->GetMagicHitPower( pInfo->GetChargeLevel() );

  0006f	f6 c1 30	 test	 cl, 48			; 00000030H
  00072	74 0d		 je	 SHORT $L265518
  00074	8b 4e 08	 mov	 ecx, DWORD PTR [esi+8]
  00077	33 c0		 xor	 eax, eax
  00079	50		 push	 eax
  0007a	e8 00 00 00 00	 call	 ?GetMagicHitPower@CMover@@QAEHH@Z ; CMover::GetMagicHitPower

; 329  : 		break;

  0007f	eb 19		 jmp	 SHORT $L265529

; 327  : 	case ATK_MAGIC:								//   
; 328  : 		nATK = m_pAttacker->GetMagicHitPower( pInfo->GetChargeLevel() );

$L265518:
  00081	8b 4e 08	 mov	 ecx, DWORD PTR [esi+8]
  00084	25 ff 00 00 00	 and	 eax, 255		; 000000ffH
  00089	50		 push	 eax
  0008a	e8 00 00 00 00	 call	 ?GetMagicHitPower@CMover@@QAEHH@Z ; CMover::GetMagicHitPower

; 329  : 		break;

  0008f	eb 09		 jmp	 SHORT $L265529
$L259747:

; 330  : 	case ATK_GENERIC:							//   
; 331  : 		nATK = m_pAttacker->GetHitPower( pInfo );

  00091	8b 4e 08	 mov	 ecx, DWORD PTR [esi+8]
  00094	57		 push	 edi
  00095	e8 00 00 00 00	 call	 ?GetHitPower@CMover@@QAEHPAUATTACK_INFO@@@Z ; CMover::GetHitPower
$L265529:
  0009a	89 44 24 0c	 mov	 DWORD PTR _nATK$[esp+16], eax
$L259740:

; 332  : 		break;
; 333  : 	}
; 334  : 
; 335  : 	nATK	= (int)( nATK * m_pAttacker->GetATKMultiplier( m_pDefender, pInfo->dwAtkFlags ) );	//  . 	

  0009e	8b 4f 08	 mov	 ecx, DWORD PTR [edi+8]
  000a1	8b 56 0c	 mov	 edx, DWORD PTR [esi+12]
  000a4	51		 push	 ecx
  000a5	8b 4e 08	 mov	 ecx, DWORD PTR [esi+8]
  000a8	52		 push	 edx
  000a9	e8 00 00 00 00	 call	 ?GetATKMultiplier@CMover@@QAEMPAV1@K@Z ; CMover::GetATKMultiplier
  000ae	da 4c 24 0c	 fimul	 DWORD PTR _nATK$[esp+16]
  000b2	e8 00 00 00 00	 call	 __ftol2

; 336  : 	if( nCount > 0 )															//   ATK 10%

  000b7	85 db		 test	 ebx, ebx
  000b9	8b f8		 mov	 edi, eax
  000bb	89 7c 24 0c	 mov	 DWORD PTR _nATK$[esp+16], edi
  000bf	7e 11		 jle	 SHORT $L259749

; 337  : 		nATK	= (int)( nATK * 0.1f );

  000c1	db 44 24 0c	 fild	 DWORD PTR _nATK$[esp+16]
  000c5	d8 0d 00 00 00
	00		 fmul	 DWORD PTR __real@3dcccccd
  000cb	e8 00 00 00 00	 call	 __ftol2
  000d0	8b f8		 mov	 edi, eax
$L259749:

; 338  : 
; 339  : //#ifdef __PET_0410
; 340  : 	nATK	+= m_pAttacker->GetParam( DST_ATKPOWER, 0 );

  000d2	8b 4e 08	 mov	 ecx, DWORD PTR [esi+8]
  000d5	6a 00		 push	 0
  000d7	6a 53		 push	 83			; 00000053H
  000d9	e8 00 00 00 00	 call	 ?GetParam@CMover@@QAEHHH@Z ; CMover::GetParam
  000de	03 f8		 add	 edi, eax

; 341  : //#endif	// __PET_0410
; 342  : 
; 343  : #if __VER >= 9 // __EVENTLUA_ATKDEF
; 344  : 	if( m_pAttacker->IsPlayer() )

  000e0	8b 46 08	 mov	 eax, DWORD PTR [esi+8]
  000e3	8b 88 34 02 00
	00		 mov	 ecx, DWORD PTR [eax+564]
  000e9	85 c9		 test	 ecx, ecx
  000eb	74 0e		 je	 SHORT $L259751

; 345  : 		nATK += prj.m_EventLua.GetAttackPower();

  000ed	6a 01		 push	 1
  000ef	b9 f8 91 11 00	 mov	 ecx, OFFSET FLAT:?prj@@3VCProject@@A+1151480
  000f4	e8 00 00 00 00	 call	 ?GetAttackPower@CEventLua@@QAEHH@Z ; CEventLua::GetAttackPower
  000f9	03 f8		 add	 edi, eax
$L259751:

; 346  : #endif // __EVENTLUA_ATKDEF
; 347  : 
; 348  : #ifdef __JEFF_11
; 349  : 	if( nATK < 0 )

  000fb	85 ff		 test	 edi, edi
  000fd	7d 09		 jge	 SHORT $L265528
  000ff	5f		 pop	 edi
  00100	5e		 pop	 esi

; 350  : 		nATK	= 0;

  00101	33 c0		 xor	 eax, eax
  00103	5b		 pop	 ebx

; 354  : }

  00104	59		 pop	 ecx
  00105	c2 04 00	 ret	 4
$L265528:

; 351  : #endif	// __JEFF_11
; 352  : 
; 353  : 	return nATK;

  00108	8b c7		 mov	 eax, edi
  0010a	5f		 pop	 edi
  0010b	5e		 pop	 esi
  0010c	5b		 pop	 ebx

; 354  : }

  0010d	59		 pop	 ecx
  0010e	c2 04 00	 ret	 4
  00111	8d 49 00	 npad	 3
$L265530:
  00114	00 00 00 00	 DD	 $L259743
  00118	00 00 00 00	 DD	 $L259744
  0011c	00 00 00 00	 DD	 $L259745
  00120	00 00 00 00	 DD	 $L259746
  00124	00 00 00 00	 DD	 $L259747
?CalcATK@CAttackArbiter@@AAEHPAUATTACK_INFO@@@Z ENDP	; CAttackArbiter::CalcATK
_TEXT	ENDS
PUBLIC	?OnAfterDamage@CAttackArbiter@@AAEHPAUATTACK_INFO@@H@Z ; CAttackArbiter::OnAfterDamage
EXTRN	?IsRangeObj@CObj@@QAEHABUD3DXVECTOR3@@M@Z:NEAR	; CObj::IsRangeObj
EXTRN	?RemoveChrStateBuffs@CMover@@QAEXK@Z:NEAR	; CMover::RemoveChrStateBuffs
EXTRN	?IsReturnToBegin@CMover@@QAEHXZ:NEAR		; CMover::IsReturnToBegin
EXTRN	?GetSkill@CMover@@QAEPAUtagSkill@@K@Z:NEAR	; CMover::GetSkill
EXTRN	?AddGold@CMover@@QAEHHH@Z:NEAR			; CMover::AddGold
EXTRN	?DoUseSkill@CMover@@QAEHKHKW4SKILLUSETYPE@@HH@Z:NEAR ; CMover::DoUseSkill
; Function compile flags: /Ogty
;	COMDAT ?OnAfterDamage@CAttackArbiter@@AAEHPAUATTACK_INFO@@H@Z
_TEXT	SEGMENT
$T265535 = -12						; size = 12
$T265534 = -12						; size = 12
_pInfo$ = 8						; size = 4
_nDamage$ = 12						; size = 4
?OnAfterDamage@CAttackArbiter@@AAEHPAUATTACK_INFO@@H@Z PROC NEAR ; CAttackArbiter::OnAfterDamage, COMDAT
; _this$ = ecx

; 370  : {

  00000	83 ec 0c	 sub	 esp, 12			; 0000000cH
  00003	53		 push	 ebx

; 371  : 	CMover* pAttacker = pInfo->pAttacker;
; 372  : 	CMover* pDefender = pInfo->pDefender;
; 373  : 
; 374  : 	if( pAttacker->IsPlayer() && nDamage > 0 )

  00004	8b 5c 24 18	 mov	 ebx, DWORD PTR _nDamage$[esp+12]
  00008	55		 push	 ebp
  00009	8b 6c 24 18	 mov	 ebp, DWORD PTR _pInfo$[esp+16]
  0000d	56		 push	 esi
  0000e	8b 75 04	 mov	 esi, DWORD PTR [ebp+4]
  00011	57		 push	 edi
  00012	8b 7d 00	 mov	 edi, DWORD PTR [ebp]
  00015	8b 87 34 02 00
	00		 mov	 eax, DWORD PTR [edi+564]
  0001b	85 c0		 test	 eax, eax
  0001d	74 1e		 je	 SHORT $L259768
  0001f	85 db		 test	 ebx, ebx
  00021	7e 1a		 jle	 SHORT $L259768

; 375  : 	{
; 376  : 		if( pDefender->GetAdjParam( DST_CHRSTATE ) & CHS_DOUBLE )	//   

  00023	6a 40		 push	 64			; 00000040H
  00025	8b ce		 mov	 ecx, esi
  00027	e8 00 00 00 00	 call	 ?GetAdjParam@CMover@@QAEHH@Z ; CMover::GetAdjParam
  0002c	f6 c4 40	 test	 ah, 64			; 00000040H
  0002f	74 0c		 je	 SHORT $L259768

; 377  : 			pDefender->RemoveChrStateBuffs( CHS_DOUBLE );

  00031	68 00 40 00 00	 push	 16384			; 00004000H
  00036	8b ce		 mov	 ecx, esi
  00038	e8 00 00 00 00	 call	 ?RemoveChrStateBuffs@CMover@@QAEXK@Z ; CMover::RemoveChrStateBuffs
$L259768:

; 378  : 	}
; 379  : 
; 380  : 	if( pDefender->GetAdjParam( DST_CHRSTATE) & CHS_ATK_COUNTERATTACK  ) //  :  

  0003d	6a 40		 push	 64			; 00000040H
  0003f	8b ce		 mov	 ecx, esi
  00041	e8 00 00 00 00	 call	 ?GetAdjParam@CMover@@QAEHH@Z ; CMover::GetAdjParam
  00046	a9 00 00 04 00	 test	 eax, 262144		; 00040000H
  0004b	0f 84 86 00 00
	00		 je	 $L259769

; 381  : 	{
; 382  : 		if( pDefender->IsRangeObj( pAttacker->GetPos(), 3.0f ) )

  00051	8d 87 60 01 00
	00		 lea	 eax, DWORD PTR [edi+352]
  00057	8b 08		 mov	 ecx, DWORD PTR [eax]
  00059	8b 50 04	 mov	 edx, DWORD PTR [eax+4]
  0005c	8b 40 08	 mov	 eax, DWORD PTR [eax+8]
  0005f	89 4c 24 10	 mov	 DWORD PTR $T265534[esp+28], ecx
  00063	68 00 00 40 40	 push	 1077936128		; 40400000H
  00068	8d 4c 24 14	 lea	 ecx, DWORD PTR $T265534[esp+32]
  0006c	51		 push	 ecx
  0006d	8b ce		 mov	 ecx, esi
  0006f	89 54 24 1c	 mov	 DWORD PTR $T265534[esp+40], edx
  00073	89 44 24 20	 mov	 DWORD PTR $T265534[esp+44], eax
  00077	e8 00 00 00 00	 call	 ?IsRangeObj@CObj@@QAEHABUD3DXVECTOR3@@M@Z ; CObj::IsRangeObj
  0007c	85 c0		 test	 eax, eax
  0007e	0f 84 c0 00 00
	00		 je	 $L265584

; 383  : 		{
; 384  : 			pDefender->RemoveChrStateBuffs( CHS_ATK_COUNTERATTACK );

  00084	68 00 00 04 00	 push	 262144			; 00040000H
  00089	8b ce		 mov	 ecx, esi
  0008b	e8 00 00 00 00	 call	 ?RemoveChrStateBuffs@CMover@@QAEXK@Z ; CMover::RemoveChrStateBuffs

; 385  : 
; 386  : 			int nLevel = 1;
; 387  : 			if( pDefender->IsPlayer() )

  00090	8b 86 34 02 00
	00		 mov	 eax, DWORD PTR [esi+564]
  00096	85 c0		 test	 eax, eax
  00098	bb 01 00 00 00	 mov	 ebx, 1
  0009d	74 13		 je	 SHORT $L265583

; 388  : 			{
; 389  : 				LPSKILL pSkill = pDefender->GetSkill(SI_ACR_YOYO_COUNTER);

  0009f	68 cc 00 00 00	 push	 204			; 000000ccH
  000a4	8b ce		 mov	 ecx, esi
  000a6	e8 00 00 00 00	 call	 ?GetSkill@CMover@@QAEPAUtagSkill@@K@Z ; CMover::GetSkill

; 390  : 				if( pSkill )

  000ab	85 c0		 test	 eax, eax
  000ad	74 03		 je	 SHORT $L265583

; 391  : 				{
; 392  : #ifdef __SKILL0517
; 393  : 					nLevel	= pDefender->GetSkillLevel( pSkill );
; 394  : #else	// __SKILL0517
; 395  : 					nLevel = pSkill->dwLevel;

  000af	8b 58 04	 mov	 ebx, DWORD PTR [eax+4]
$L265583:

; 396  : #endif	// __SKILL0517
; 397  : 				}
; 398  : 			}
; 399  : #if __VER >= 8 // __S8_PK
; 400  : 			pDefender->DoUseSkill( SI_GEN_ATK_COUNTER, nLevel, pAttacker->GetId(), SUT_NORMAL, FALSE, 0 );

  000b2	8b 97 bc 01 00
	00		 mov	 edx, DWORD PTR [edi+444]
  000b8	6a 00		 push	 0
  000ba	6a 00		 push	 0
  000bc	6a 00		 push	 0
  000be	52		 push	 edx
  000bf	53		 push	 ebx
  000c0	68 df 00 00 00	 push	 223			; 000000dfH
  000c5	8b ce		 mov	 ecx, esi
  000c7	e8 00 00 00 00	 call	 ?DoUseSkill@CMover@@QAEHKHKW4SKILLUSETYPE@@HH@Z ; CMover::DoUseSkill

; 401  : #else // __VER >= 8 __S8_PK
; 402  : 			pDefender->DoUseSkill( SI_GEN_ATK_COUNTER, nLevel, pAttacker->GetId(), SUT_NORMAL, 0 );
; 403  : #endif // __VER >= 8 __S8_PK
; 404  : 
; 405  : 			nDamage = 0;

  000cc	33 db		 xor	 ebx, ebx

; 406  : 			pInfo->dwAtkFlags = AF_MISS;

  000ce	c7 45 08 02 00
	00 00		 mov	 DWORD PTR [ebp+8], 2

; 407  : 		}
; 408  : 	}
; 409  : 	else

  000d5	eb 6d		 jmp	 SHORT $L265584
$L259769:

; 410  : 	if( pDefender->GetAdjParam( DST_CHRSTATE) & CHS_DMG_COUNTERATTACK  ) //  :  

  000d7	6a 40		 push	 64			; 00000040H
  000d9	8b ce		 mov	 ecx, esi
  000db	e8 00 00 00 00	 call	 ?GetAdjParam@CMover@@QAEHH@Z ; CMover::GetAdjParam
  000e0	a9 00 00 02 00	 test	 eax, 131072		; 00020000H
  000e5	74 5d		 je	 SHORT $L265584

; 411  : 	{
; 412  : 		if( pDefender->IsRangeObj( pAttacker->GetPos(), 3.0f ) )

  000e7	8d 87 60 01 00
	00		 lea	 eax, DWORD PTR [edi+352]
  000ed	8b 08		 mov	 ecx, DWORD PTR [eax]
  000ef	8b 50 04	 mov	 edx, DWORD PTR [eax+4]
  000f2	8b 40 08	 mov	 eax, DWORD PTR [eax+8]
  000f5	89 4c 24 10	 mov	 DWORD PTR $T265535[esp+28], ecx
  000f9	68 00 00 40 40	 push	 1077936128		; 40400000H
  000fe	8d 4c 24 14	 lea	 ecx, DWORD PTR $T265535[esp+32]
  00102	51		 push	 ecx
  00103	8b ce		 mov	 ecx, esi
  00105	89 54 24 1c	 mov	 DWORD PTR $T265535[esp+40], edx
  00109	89 44 24 20	 mov	 DWORD PTR $T265535[esp+44], eax
  0010d	e8 00 00 00 00	 call	 ?IsRangeObj@CObj@@QAEHABUD3DXVECTOR3@@M@Z ; CObj::IsRangeObj
  00112	85 c0		 test	 eax, eax
  00114	74 2e		 je	 SHORT $L265584

; 413  : 		{
; 414  : 			pDefender->RemoveChrStateBuffs( CHS_DMG_COUNTERATTACK );

  00116	68 00 00 02 00	 push	 131072			; 00020000H
  0011b	8b ce		 mov	 ecx, esi
  0011d	e8 00 00 00 00	 call	 ?RemoveChrStateBuffs@CMover@@QAEXK@Z ; CMover::RemoveChrStateBuffs

; 415  : #if __VER >= 8 // __S8_PK
; 416  : 			pDefender->DoUseSkill( SI_GEN_ATK_COUNTER, pInfo->GetSkillLevel(), pAttacker->GetId(), SUT_NORMAL, FALSE, 0 );	

  00122	8b 97 bc 01 00
	00		 mov	 edx, DWORD PTR [edi+444]
  00128	8b 45 0c	 mov	 eax, DWORD PTR [ebp+12]
  0012b	6a 00		 push	 0
  0012d	6a 00		 push	 0
  0012f	6a 00		 push	 0
  00131	52		 push	 edx
  00132	25 ff 00 00 00	 and	 eax, 255		; 000000ffH
  00137	50		 push	 eax
  00138	68 df 00 00 00	 push	 223			; 000000dfH
  0013d	8b ce		 mov	 ecx, esi
  0013f	e8 00 00 00 00	 call	 ?DoUseSkill@CMover@@QAEHKHKW4SKILLUSETYPE@@HH@Z ; CMover::DoUseSkill
$L265584:

; 417  : #else // __VER >= 8 __S8_PK
; 418  : 			pDefender->DoUseSkill( SI_GEN_ATK_COUNTER, pInfo->GetSkillLevel(), pAttacker->GetId(), SUT_NORMAL, 0 );	
; 419  : #endif // __VER >= 8 __S8_PK
; 420  : 		}
; 421  : 	}
; 422  : 
; 423  : 	if( pInfo->GetSkill() == SI_JST_YOYO_HITOFPENYA && nDamage > 0 )

  00144	f6 45 08 30	 test	 BYTE PTR [ebp+8], 48	; 00000030H
  00148	74 29		 je	 SHORT $L259781
  0014a	0f b7 45 0e	 movzx	 eax, WORD PTR [ebp+14]
  0014e	3d d4 00 00 00	 cmp	 eax, 212		; 000000d4H
  00153	75 1e		 jne	 SHORT $L259781
  00155	85 db		 test	 ebx, ebx
  00157	7e 1a		 jle	 SHORT $L259781

; 424  : 	{
; 425  : 		nDamage = min( pAttacker->GetGold(), nDamage );

  00159	8b 87 84 16 00
	00		 mov	 eax, DWORD PTR [edi+5764]
  0015f	3b c3		 cmp	 eax, ebx
  00161	7d 02		 jge	 SHORT $L265536
  00163	8b d8		 mov	 ebx, eax
$L265536:

; 426  : 		pAttacker->AddGold( -nDamage );

  00165	8b cb		 mov	 ecx, ebx
  00167	f7 d9		 neg	 ecx
  00169	6a 01		 push	 1
  0016b	51		 push	 ecx
  0016c	8b cf		 mov	 ecx, edi
  0016e	e8 00 00 00 00	 call	 ?AddGold@CMover@@QAEHHH@Z ; CMover::AddGold
$L259781:

; 427  : 	}
; 428  : 
; 429  : #if __VER >= 9	//__AI_0509
; 430  : 	if( pDefender->IsReturnToBegin() )

  00173	8b ce		 mov	 ecx, esi
  00175	e8 00 00 00 00	 call	 ?IsReturnToBegin@CMover@@QAEHXZ ; CMover::IsReturnToBegin
  0017a	85 c0		 test	 eax, eax
  0017c	74 13		 je	 SHORT $L265582
  0017e	5f		 pop	 edi
  0017f	5e		 pop	 esi

; 431  : 	{
; 432  : 		nDamage = 0;
; 433  : 		pInfo->dwAtkFlags = AF_MISS;

  00180	c7 45 08 02 00
	00 00		 mov	 DWORD PTR [ebp+8], 2
  00187	5d		 pop	 ebp
  00188	33 c0		 xor	 eax, eax
  0018a	5b		 pop	 ebx

; 438  : }

  0018b	83 c4 0c	 add	 esp, 12			; 0000000cH
  0018e	c2 08 00	 ret	 8
$L265582:
  00191	5f		 pop	 edi
  00192	5e		 pop	 esi
  00193	5d		 pop	 ebp

; 434  : 	}
; 435  : #endif	// __AI_0509
; 436  : 
; 437  : 	return nDamage;

  00194	8b c3		 mov	 eax, ebx
  00196	5b		 pop	 ebx

; 438  : }

  00197	83 c4 0c	 add	 esp, 12			; 0000000cH
  0019a	c2 08 00	 ret	 8
?OnAfterDamage@CAttackArbiter@@AAEHPAUATTACK_INFO@@H@Z ENDP ; CAttackArbiter::OnAfterDamage
_TEXT	ENDS
PUBLIC	?PostAsalraalaikum@CAttackArbiter@@AAEHXZ	; CAttackArbiter::PostAsalraalaikum
EXTRN	?GetInstance@CMonsterSkill@@SAPAV1@XZ:NEAR	; CMonsterSkill::GetInstance
EXTRN	?GetMonsterSkillLevel@CMonsterSkill@@QAEKPAVCMover@@K@Z:NEAR ; CMonsterSkill::GetMonsterSkillLevel
EXTRN	?SetPointParam@CMover@@QAEXHHH@Z:NEAR		; CMover::SetPointParam
EXTRN	?GetStr@CMover@@QAEHXZ:NEAR			; CMover::GetStr
EXTRN	?GetManaPoint@CMover@@QAEHXZ:NEAR		; CMover::GetManaPoint
; Function compile flags: /Ogty
;	COMDAT ?PostAsalraalaikum@CAttackArbiter@@AAEHXZ
_TEXT	SEGMENT
?PostAsalraalaikum@CAttackArbiter@@AAEHXZ PROC NEAR	; CAttackArbiter::PostAsalraalaikum, COMDAT
; _this$ = ecx

; 528  : {

  00000	53		 push	 ebx
  00001	55		 push	 ebp
  00002	56		 push	 esi
  00003	57		 push	 edi
  00004	8b f1		 mov	 esi, ecx

; 529  : 	int nAddDmg = 0;
; 530  : 
; 531  : 	LPSKILL pSkill = m_pAttacker->GetSkill( SI_BIL_PST_ASALRAALAIKUM );

  00006	8b 4e 08	 mov	 ecx, DWORD PTR [esi+8]
  00009	68 9f 00 00 00	 push	 159			; 0000009fH
  0000e	33 ff		 xor	 edi, edi
  00010	e8 00 00 00 00	 call	 ?GetSkill@CMover@@QAEPAUtagSkill@@K@Z ; CMover::GetSkill

; 532  : 	DWORD dwSkillLevel = 
; 533  : #ifdef __SKILL0517
; 534  : 		m_pAttacker->GetSkillLevel( pSkill );
; 535  : #else	// __SKILL0517
; 536  : 		pSkill ? pSkill->dwLevel : 0;

  00015	85 c0		 test	 eax, eax
  00017	74 05		 je	 SHORT $L265588
  00019	8b 68 04	 mov	 ebp, DWORD PTR [eax+4]
  0001c	eb 02		 jmp	 SHORT $L265589
$L265588:
  0001e	33 ed		 xor	 ebp, ebp
$L265589:

; 537  : #endif	// __SKILL0517
; 538  : 
; 539  : #if __VER >= 12 // __MONSTER_SKILL
; 540  : 	if( m_pAttacker->IsNPC() )

  00020	8b 46 08	 mov	 eax, DWORD PTR [esi+8]
  00023	8b 88 34 02 00
	00		 mov	 ecx, DWORD PTR [eax+564]
  00029	85 c9		 test	 ecx, ecx
  0002b	75 14		 jne	 SHORT $L259832

; 541  : 		dwSkillLevel = CMonsterSkill::GetInstance()->GetMonsterSkillLevel( m_pAttacker, SI_BIL_PST_ASALRAALAIKUM );

  0002d	68 9f 00 00 00	 push	 159			; 0000009fH
  00032	50		 push	 eax
  00033	e8 00 00 00 00	 call	 ?GetInstance@CMonsterSkill@@SAPAV1@XZ ; CMonsterSkill::GetInstance
  00038	8b c8		 mov	 ecx, eax
  0003a	e8 00 00 00 00	 call	 ?GetMonsterSkillLevel@CMonsterSkill@@QAEKPAVCMover@@K@Z ; CMonsterSkill::GetMonsterSkillLevel
  0003f	8b e8		 mov	 ebp, eax
$L259832:

; 542  : #endif // __MONSTERSKILL
; 543  : 
; 544  : 	switch( dwSkillLevel )

  00041	8d 45 ff	 lea	 eax, DWORD PTR [ebp-1]
  00044	83 f8 09	 cmp	 eax, 9
  00047	77 4b		 ja	 SHORT $L259834
  00049	ff 24 85 00 00
	00 00		 jmp	 DWORD PTR $L265600[eax*4]
$L259837:

; 545  : 	{
; 546  : 		case 1:		nAddDmg = 20;	break;

  00050	bf 14 00 00 00	 mov	 edi, 20			; 00000014H
  00055	eb 3d		 jmp	 SHORT $L259834
$L259838:

; 547  : 		case 2:		nAddDmg = 30;	break;

  00057	bf 1e 00 00 00	 mov	 edi, 30			; 0000001eH
  0005c	eb 36		 jmp	 SHORT $L259834
$L259839:

; 548  : 		case 3:		nAddDmg = 40;	break;

  0005e	bf 28 00 00 00	 mov	 edi, 40			; 00000028H
  00063	eb 2f		 jmp	 SHORT $L259834
$L259840:

; 549  : 		case 4:		nAddDmg = 50;	break;

  00065	bf 32 00 00 00	 mov	 edi, 50			; 00000032H
  0006a	eb 28		 jmp	 SHORT $L259834
$L259841:

; 550  : 		case 5:		nAddDmg = 60;	break;

  0006c	bf 3c 00 00 00	 mov	 edi, 60			; 0000003cH
  00071	eb 21		 jmp	 SHORT $L259834
$L259842:

; 551  : 		case 6:		nAddDmg = 70;	break;

  00073	bf 46 00 00 00	 mov	 edi, 70			; 00000046H
  00078	eb 1a		 jmp	 SHORT $L259834
$L259843:

; 552  : 		case 7:		nAddDmg = 80;	break;

  0007a	bf 50 00 00 00	 mov	 edi, 80			; 00000050H
  0007f	eb 13		 jmp	 SHORT $L259834
$L259844:

; 553  : 		case 8:		nAddDmg = 90;	break;

  00081	bf 5a 00 00 00	 mov	 edi, 90			; 0000005aH
  00086	eb 0c		 jmp	 SHORT $L259834
$L259845:

; 554  : 		case 9:		nAddDmg = 100;	break;

  00088	bf 64 00 00 00	 mov	 edi, 100		; 00000064H
  0008d	eb 05		 jmp	 SHORT $L259834
$L259846:

; 555  : 		case 10:	nAddDmg = 150;	break;

  0008f	bf 96 00 00 00	 mov	 edi, 150		; 00000096H
$L259834:

; 556  : 	}
; 557  : 
; 558  : 	int nMP = m_pAttacker->GetManaPoint();						//  

  00094	8b 4e 08	 mov	 ecx, DWORD PTR [esi+8]
  00097	e8 00 00 00 00	 call	 ?GetManaPoint@CMover@@QAEHXZ ; CMover::GetManaPoint

; 559  : 	if( m_pAttacker->IsPlayer() && m_pAttacker->IsSMMode( SM_MAINTAIN_MP ) == FALSE )		// MP   MP .

  0009c	8b 4e 08	 mov	 ecx, DWORD PTR [esi+8]
  0009f	8b d8		 mov	 ebx, eax
  000a1	8b 81 34 02 00
	00		 mov	 eax, DWORD PTR [ecx+564]
  000a7	85 c0		 test	 eax, eax
  000a9	74 15		 je	 SHORT $L259848
  000ab	8b 81 1c 03 00
	00		 mov	 eax, DWORD PTR [ecx+796]
  000b1	85 c0		 test	 eax, eax
  000b3	77 0b		 ja	 SHORT $L259848

; 560  : 		m_pAttacker->SetPointParam( DST_MP, 0 );				// 0 .

  000b5	6a 00		 push	 0
  000b7	6a 00		 push	 0
  000b9	6a 27		 push	 39			; 00000027H
  000bb	e8 00 00 00 00	 call	 ?SetPointParam@CMover@@QAEXHHH@Z ; CMover::SetPointParam
$L259848:

; 561  : 	return ( ( ( m_pAttacker->GetStr() / 10 ) * dwSkillLevel ) * ( 5 + nMP / 10 ) + nAddDmg );

  000c0	8b 4e 08	 mov	 ecx, DWORD PTR [esi+8]
  000c3	e8 00 00 00 00	 call	 ?GetStr@CMover@@QAEHXZ	; CMover::GetStr
  000c8	8b c8		 mov	 ecx, eax
  000ca	b8 67 66 66 66	 mov	 eax, 1717986919		; 66666667H
  000cf	f7 e9		 imul	 ecx
  000d1	c1 fa 02	 sar	 edx, 2
  000d4	8b c2		 mov	 eax, edx
  000d6	c1 e8 1f	 shr	 eax, 31			; 0000001fH
  000d9	03 c2		 add	 eax, edx
  000db	8b c8		 mov	 ecx, eax
  000dd	b8 67 66 66 66	 mov	 eax, 1717986919		; 66666667H
  000e2	f7 eb		 imul	 ebx
  000e4	c1 fa 02	 sar	 edx, 2
  000e7	8b c2		 mov	 eax, edx
  000e9	c1 e8 1f	 shr	 eax, 31			; 0000001fH
  000ec	8d 54 02 05	 lea	 edx, DWORD PTR [edx+eax+5]
  000f0	0f af ca	 imul	 ecx, edx
  000f3	0f af cd	 imul	 ecx, ebp
  000f6	03 cf		 add	 ecx, edi
  000f8	5f		 pop	 edi
  000f9	5e		 pop	 esi
  000fa	5d		 pop	 ebp
  000fb	8b c1		 mov	 eax, ecx
  000fd	5b		 pop	 ebx

; 562  : }

  000fe	c3		 ret	 0
  000ff	90		 npad	 1
$L265600:
  00100	00 00 00 00	 DD	 $L259837
  00104	00 00 00 00	 DD	 $L259838
  00108	00 00 00 00	 DD	 $L259839
  0010c	00 00 00 00	 DD	 $L259840
  00110	00 00 00 00	 DD	 $L259841
  00114	00 00 00 00	 DD	 $L259842
  00118	00 00 00 00	 DD	 $L259843
  0011c	00 00 00 00	 DD	 $L259844
  00120	00 00 00 00	 DD	 $L259845
  00124	00 00 00 00	 DD	 $L259846
?PostAsalraalaikum@CAttackArbiter@@AAEHXZ ENDP		; CAttackArbiter::PostAsalraalaikum
_TEXT	ENDS
PUBLIC	?ChanceSkill@CAttackArbiter@@AAEXHPAVCCtrl@@0@Z	; CAttackArbiter::ChanceSkill
EXTRN	?DoActiveSkill@CCtrl@@QAEXKHPAV1@_NH@Z:NEAR	; CCtrl::DoActiveSkill
EXTRN	?GetChgParam@CMover@@QAEHH@Z:NEAR		; CMover::GetChgParam
EXTRN	?GetAddSkillProp@CProject@@QAEPAUAddSkillProp@@K@Z:NEAR ; CProject::GetAddSkillProp
; Function compile flags: /Ogty
;	COMDAT ?ChanceSkill@CAttackArbiter@@AAEXHPAVCCtrl@@0@Z
_TEXT	SEGMENT
_nDestParam$ = 8					; size = 4
_pAttackCtrl$ = 12					; size = 4
_pDefendCtrl$ = 16					; size = 4
?ChanceSkill@CAttackArbiter@@AAEXHPAVCCtrl@@0@Z PROC NEAR ; CAttackArbiter::ChanceSkill, COMDAT
; _this$ = ecx

; 568  : #ifdef _DEBUG
; 569  : 	if( nDestParam == DST_CHR_CHANCESTEALHP )
; 570  : 	{
; 571  : 		int a = 0;
; 572  : 	}
; 573  : #endif
; 574  : 	if( m_pAttacker->GetType() != OT_MOVER )	return;

  00000	8b 51 08	 mov	 edx, DWORD PTR [ecx+8]
  00003	56		 push	 esi
  00004	8b b2 70 01 00
	00		 mov	 esi, DWORD PTR [edx+368]
  0000a	b8 05 00 00 00	 mov	 eax, 5
  0000f	3b f0		 cmp	 esi, eax
  00011	75 76		 jne	 SHORT $L259867

; 575  : 	if( m_pDefender->GetType() != OT_MOVER )	return;

  00013	8b 49 0c	 mov	 ecx, DWORD PTR [ecx+12]
  00016	39 81 70 01 00
	00		 cmp	 DWORD PTR [ecx+368], eax
  0001c	75 6b		 jne	 SHORT $L259867

; 576  : 	
; 577  : 	CMover *pAttacker = (CMover *)pAttackCtrl;
; 578  : 	CMover *pDefender = (CMover *)pDefendCtrl;
; 579  : 
; 580  : 	int nRate = pAttacker->GetAdjParam( nDestParam );

  0001e	8b 74 24 0c	 mov	 esi, DWORD PTR _pAttackCtrl$[esp]
  00022	57		 push	 edi
  00023	8b 7c 24 0c	 mov	 edi, DWORD PTR _nDestParam$[esp+4]
  00027	57		 push	 edi
  00028	8b ce		 mov	 ecx, esi
  0002a	e8 00 00 00 00	 call	 ?GetAdjParam@CMover@@QAEHH@Z ; CMover::GetAdjParam
  0002f	8b c8		 mov	 ecx, eax

; 581  : 	if( nRate > 0 )	//  

  00031	85 c9		 test	 ecx, ecx
  00033	7e 53		 jle	 SHORT $L265620

; 582  : 	{
; 583  : 		if( (int)( xRandom(100) ) <= nRate )

  00035	a1 00 00 00 00	 mov	 eax, DWORD PTR ?g_next@@3KA ; g_next
  0003a	69 c0 6d 4e c6
	41		 imul	 eax, 1103515245		; 41c64e6dH
  00040	05 39 30 00 00	 add	 eax, 12345		; 00003039H
  00045	53		 push	 ebx
  00046	33 d2		 xor	 edx, edx
  00048	bb 64 00 00 00	 mov	 ebx, 100		; 00000064H
  0004d	a3 00 00 00 00	 mov	 DWORD PTR ?g_next@@3KA, eax ; g_next
  00052	f7 f3		 div	 ebx
  00054	5b		 pop	 ebx
  00055	3b d1		 cmp	 edx, ecx
  00057	7f 2f		 jg	 SHORT $L265620

; 584  : 		{
; 585  : 			DWORD dwAddSkill = pAttacker->GetChgParam( nDestParam );		//   

  00059	57		 push	 edi
  0005a	8b ce		 mov	 ecx, esi
  0005c	e8 00 00 00 00	 call	 ?GetChgParam@CMover@@QAEHH@Z ; CMover::GetChgParam

; 586  : 			
; 587  : 			AddSkillProp *pAddSkillProp;
; 588  : 			pAddSkillProp = prj.GetAddSkillProp( dwAddSkill );

  00061	50		 push	 eax
  00062	b9 00 00 00 00	 mov	 ecx, OFFSET FLAT:?prj@@3VCProject@@A
  00067	e8 00 00 00 00	 call	 ?GetAddSkillProp@CProject@@QAEPAUAddSkillProp@@K@Z ; CProject::GetAddSkillProp

; 589  : 			if( pAddSkillProp )

  0006c	85 c0		 test	 eax, eax
  0006e	74 18		 je	 SHORT $L265620

; 590  : 				pAttacker->DoActiveSkill( pAddSkillProp->dwName, pAddSkillProp->dwSkillLvl, pDefender );		// dwActiveSkill Lv1 .

  00070	8b 54 24 14	 mov	 edx, DWORD PTR _pDefendCtrl$[esp+4]
  00074	8b 48 08	 mov	 ecx, DWORD PTR [eax+8]
  00077	6a 00		 push	 0
  00079	6a 00		 push	 0
  0007b	52		 push	 edx
  0007c	8b 50 04	 mov	 edx, DWORD PTR [eax+4]
  0007f	51		 push	 ecx
  00080	52		 push	 edx
  00081	8b ce		 mov	 ecx, esi
  00083	e8 00 00 00 00	 call	 ?DoActiveSkill@CCtrl@@QAEXKHPAV1@_NH@Z ; CCtrl::DoActiveSkill
$L265620:
  00088	5f		 pop	 edi
$L259867:
  00089	5e		 pop	 esi

; 591  : 			//				m_pDefender->SetPoison( TRUE, m_pAttacker->GetId(), m_pAttacker->GetChgParam( DST_CHR_CHANCEPOISON ), m_pAttacker->m_tmPoisonUnit, m_pAttacker->m_wPoisonDamage );
; 592  : 		}
; 593  : 		
; 594  : 	}
; 595  : }

  0008a	c2 0c 00	 ret	 12			; 0000000cH
?ChanceSkill@CAttackArbiter@@AAEXHPAVCCtrl@@0@Z ENDP	; CAttackArbiter::ChanceSkill
_TEXT	ENDS
PUBLIC	__real@3c23d70a
PUBLIC	__real@4f800000
PUBLIC	?StealHP@CAttackArbiter@@AAEXHW4ATK_TYPE@@@Z	; CAttackArbiter::StealHP
EXTRN	?GetActiveHandItemProp@CMover@@QAEPAUItemProp@@H@Z:NEAR ; CMover::GetActiveHandItemProp
EXTRN	?SetDestParam@CMover@@QAEXHHHH@Z:NEAR		; CMover::SetDestParam
;	COMDAT __real@4f800000
; File c:\documents and settings\test\mes documents\source\virtuos_v17\build\program\_common\mover.h
CONST	SEGMENT
__real@4f800000 DD 04f800000r			; 4.29497e+009
CONST	ENDS
;	COMDAT __real@3c23d70a
CONST	SEGMENT
__real@3c23d70a DD 03c23d70ar			; 0.01
; Function compile flags: /Ogty
; File c:\documents and settings\test\mes documents\source\virtuos_v17\build\program\worldserver\attackarbiter.cpp
CONST	ENDS
;	COMDAT ?StealHP@CAttackArbiter@@AAEXHW4ATK_TYPE@@@Z
_TEXT	SEGMENT
tv190 = -4						; size = 4
_nDamage$ = 8						; size = 4
_nDstHP$259971 = 12					; size = 4
_type$ = 12						; size = 4
?StealHP@CAttackArbiter@@AAEXHW4ATK_TYPE@@@Z PROC NEAR	; CAttackArbiter::StealHP, COMDAT
; _this$ = ecx

; 788  : {

  00000	51		 push	 ecx
  00001	56		 push	 esi
  00002	8b f1		 mov	 esi, ecx

; 789  : 	ItemProp *pHandItem = m_pAttacker->GetActiveHandItemProp();

  00004	8b 4e 08	 mov	 ecx, DWORD PTR [esi+8]
  00007	6a 0a		 push	 10			; 0000000aH
  00009	e8 00 00 00 00	 call	 ?GetActiveHandItemProp@CMover@@QAEPAUItemProp@@H@Z ; CMover::GetActiveHandItemProp

; 790  : 	if( pHandItem )

  0000e	85 c0		 test	 eax, eax
  00010	74 42		 je	 SHORT $L259967

; 791  : 	{
; 792  : 		if( pHandItem->dwDestParam1 == DST_CHR_STEALHP )					//      

  00012	83 b8 40 01 00
	00 38		 cmp	 DWORD PTR [eax+320], 56	; 00000038H
  00019	75 39		 jne	 SHORT $L259967

; 795  : 			m_pAttacker->SetDestParam( DST_HP, nStealHP, NULL_CHGPARAM );				//  HP .

  0001b	8b 80 58 01 00
	00		 mov	 eax, DWORD PTR [eax+344]
  00021	85 c0		 test	 eax, eax
  00023	6a 01		 push	 1
  00025	89 44 24 08	 mov	 DWORD PTR tv190[esp+12], eax
  00029	db 44 24 08	 fild	 DWORD PTR tv190[esp+12]
  0002d	68 ff ff ff 7f	 push	 2147483647		; 7fffffffH
  00032	7d 06		 jge	 SHORT $L265630
  00034	d8 05 00 00 00
	00		 fadd	 DWORD PTR __real@4f800000
$L265630:

; 793  : 		{
; 794  : 			int nStealHP = (int)( nDamage * (pHandItem->nAdjParamVal1 / 100.0f) );	//   % .

  0003a	d8 0d 00 00 00
	00		 fmul	 DWORD PTR __real@3c23d70a

; 795  : 			m_pAttacker->SetDestParam( DST_HP, nStealHP, NULL_CHGPARAM );				//  HP .

  00040	da 4c 24 14	 fimul	 DWORD PTR _nDamage$[esp+12]
  00044	e8 00 00 00 00	 call	 __ftol2
  00049	8b 4e 08	 mov	 ecx, DWORD PTR [esi+8]
  0004c	50		 push	 eax
  0004d	6a 26		 push	 38			; 00000026H
  0004f	e8 00 00 00 00	 call	 ?SetDestParam@CMover@@QAEXHHHH@Z ; CMover::SetDestParam
$L259967:

; 796  : 		}
; 797  : 	}
; 798  : 
; 799  : #if __VER >= 9 // __ULTIMATE
; 800  : 	if( type == ATK_GENERIC && m_pAttacker->IsPlayer() )

  00054	83 7c 24 10 04	 cmp	 DWORD PTR _type$[esp+4], 4
  00059	75 43		 jne	 SHORT $L259974
  0005b	8b 4e 08	 mov	 ecx, DWORD PTR [esi+8]
  0005e	8b 81 34 02 00
	00		 mov	 eax, DWORD PTR [ecx+564]
  00064	85 c0		 test	 eax, eax
  00066	74 36		 je	 SHORT $L259974

; 801  : 	{
; 802  : 		int nDstHP = m_pAttacker->GetParam( DST_MELEE_STEALHP, 0 );

  00068	6a 00		 push	 0
  0006a	6a 51		 push	 81			; 00000051H
  0006c	e8 00 00 00 00	 call	 ?GetParam@CMover@@QAEHHH@Z ; CMover::GetParam

; 803  : 		int nStealHP = (int)( nDamage * (nDstHP / 100.0f) );
; 804  : 		if( 0 < nDstHP )

  00071	85 c0		 test	 eax, eax
  00073	89 44 24 10	 mov	 DWORD PTR _nDstHP$259971[esp+4], eax
  00077	7e 25		 jle	 SHORT $L259974

; 805  : 			m_pAttacker->SetDestParam( DST_HP, nStealHP, NULL_CHGPARAM );				//  HP .

  00079	db 44 24 10	 fild	 DWORD PTR _nDstHP$259971[esp+4]
  0007d	6a 01		 push	 1
  0007f	68 ff ff ff 7f	 push	 2147483647		; 7fffffffH
  00084	d8 0d 00 00 00
	00		 fmul	 DWORD PTR __real@3c23d70a
  0008a	da 4c 24 14	 fimul	 DWORD PTR _nDamage$[esp+12]
  0008e	e8 00 00 00 00	 call	 __ftol2
  00093	8b 4e 08	 mov	 ecx, DWORD PTR [esi+8]
  00096	50		 push	 eax
  00097	6a 26		 push	 38			; 00000026H
  00099	e8 00 00 00 00	 call	 ?SetDestParam@CMover@@QAEXHHHH@Z ; CMover::SetDestParam
$L259974:
  0009e	5e		 pop	 esi

; 806  : 	}
; 807  : #endif // __ULTIMATE
; 808  : }

  0009f	59		 pop	 ecx
  000a0	c2 08 00	 ret	 8
?StealHP@CAttackArbiter@@AAEXHW4ATK_TYPE@@@Z ENDP	; CAttackArbiter::StealHP
_TEXT	ENDS
PUBLIC	?OnDamaged@CAttackArbiter@@AAEXH@Z		; CAttackArbiter::OnDamaged
EXTRN	?SetDamagedMotion@CMover@@QAEXPAV1@K@Z:NEAR	; CMover::SetDamagedMotion
; Function compile flags: /Ogty
;	COMDAT ?OnDamaged@CAttackArbiter@@AAEXH@Z
_TEXT	SEGMENT
_nDamage$ = 8						; size = 4
?OnDamaged@CAttackArbiter@@AAEXH@Z PROC NEAR		; CAttackArbiter::OnDamaged, COMDAT
; _this$ = ecx

; 815  : {

  00000	56		 push	 esi
  00001	8b f1		 mov	 esi, ecx

; 816  : #if __VER >= 9 // __RECOVERY10
; 817  : 	m_pDefender->m_nAtkCnt = 1;

  00003	8b 46 0c	 mov	 eax, DWORD PTR [esi+12]
  00006	c7 80 b0 06 00
	00 01 00 00 00	 mov	 DWORD PTR [eax+1712], 1

; 818  : #endif // __RECOVERY10
; 819  : 	m_pDefender->SetDamagedMotion( m_pAttacker, m_dwAtkFlags );

  00010	8b 4e 10	 mov	 ecx, DWORD PTR [esi+16]
  00013	8b 56 08	 mov	 edx, DWORD PTR [esi+8]
  00016	51		 push	 ecx
  00017	8b 4e 0c	 mov	 ecx, DWORD PTR [esi+12]
  0001a	52		 push	 edx
  0001b	e8 00 00 00 00	 call	 ?SetDamagedMotion@CMover@@QAEXPAV1@K@Z ; CMover::SetDamagedMotion

; 820  : 
; 821  : 	g_UserMng.AddDamage( m_pDefender, GETID( m_pAttacker ), nDamage, m_dwAtkFlags );

  00020	8b 46 08	 mov	 eax, DWORD PTR [esi+8]
  00023	85 c0		 test	 eax, eax
  00025	74 08		 je	 SHORT $L265636
  00027	8b 80 bc 01 00
	00		 mov	 eax, DWORD PTR [eax+444]
  0002d	eb 03		 jmp	 SHORT $L265637
$L265636:
  0002f	83 c8 ff	 or	 eax, -1
$L265637:
  00032	8b 4e 10	 mov	 ecx, DWORD PTR [esi+16]
  00035	8b 54 24 08	 mov	 edx, DWORD PTR _nDamage$[esp]
  00039	51		 push	 ecx
  0003a	52		 push	 edx
  0003b	50		 push	 eax
  0003c	8b 46 0c	 mov	 eax, DWORD PTR [esi+12]
  0003f	50		 push	 eax
  00040	b9 00 00 00 00	 mov	 ecx, OFFSET FLAT:?g_UserMng@@3VCUserMng@@A
  00045	e8 00 00 00 00	 call	 ?AddDamage@CUserMng@@QAEXPAVCMover@@KKK@Z ; CUserMng::AddDamage
  0004a	5e		 pop	 esi

; 822  : }

  0004b	c2 04 00	 ret	 4
?OnDamaged@CAttackArbiter@@AAEXH@Z ENDP			; CAttackArbiter::OnDamaged
_TEXT	ENDS
PUBLIC	?SetPosChanged@CObj@@QAEXH@Z			; CObj::SetPosChanged
; Function compile flags: /Ogty
; File c:\documents and settings\test\mes documents\source\virtuos_v17\build\program\_common\obj.h
;	COMDAT ?SetPosChanged@CObj@@QAEXH@Z
_TEXT	SEGMENT
_bUpdate$ = 8						; size = 4
?SetPosChanged@CObj@@QAEXH@Z PROC NEAR			; CObj::SetPosChanged, COMDAT
; _this$ = ecx

; 183  : 	void			SetPosChanged( BOOL bUpdate) { SetFlag( bUpdate, OBJ_FLAG_POSCHANGED ); }

  00000	8b 44 24 04	 mov	 eax, DWORD PTR _bUpdate$[esp-4]
  00004	85 c0		 test	 eax, eax
  00006	8b 41 04	 mov	 eax, DWORD PTR [ecx+4]
  00009	74 09		 je	 SHORT $L265647
  0000b	83 c8 10	 or	 eax, 16			; 00000010H
  0000e	89 41 04	 mov	 DWORD PTR [ecx+4], eax
  00011	c2 04 00	 ret	 4
$L265647:
  00014	83 e0 ef	 and	 eax, -17		; ffffffefH
  00017	89 41 04	 mov	 DWORD PTR [ecx+4], eax
  0001a	c2 04 00	 ret	 4
?SetPosChanged@CObj@@QAEXH@Z ENDP			; CObj::SetPosChanged
_TEXT	ENDS
PUBLIC	??_C@_0BI@BEIFNGEL@GetItemProp?5range_error?$AA@ ; `string'
PUBLIC	?GetItemProp@CProject@@QAEPAUItemProp@@H@Z	; CProject::GetItemProp
;	COMDAT ??_C@_0BI@BEIFNGEL@GetItemProp?5range_error?$AA@
; File c:\documents and settings\test\mes documents\source\virtuos_v17\build\program\_common\data.h
CONST	SEGMENT
??_C@_0BI@BEIFNGEL@GetItemProp?5range_error?$AA@ DB 'GetItemProp range_er'
	DB	'ror', 00H					; `string'
; Function compile flags: /Ogty
; File c:\documents and settings\test\mes documents\source\virtuos_v17\build\program\_common\project.h
CONST	ENDS
;	COMDAT ?GetItemProp@CProject@@QAEPAUItemProp@@H@Z
_TEXT	SEGMENT
_nIndex$ = 8						; size = 4
?GetItemProp@CProject@@QAEPAUItemProp@@H@Z PROC NEAR	; CProject::GetItemProp, COMDAT
; _this$ = ecx

; 1364 : 	VERIFY_RANGE_ASSERT( nIndex, 0, m_aPropItem.GetSize(), "GetItemProp range_error", NULL );

  00000	8b 44 24 04	 mov	 eax, DWORD PTR _nIndex$[esp-4]
  00004	85 c0		 test	 eax, eax
  00006	7c 1a		 jl	 SHORT $L197914
  00008	8b 91 5c 02 00
	00		 mov	 edx, DWORD PTR [ecx+604]
  0000e	3b c2		 cmp	 eax, edx
  00010	7d 10		 jge	 SHORT $L197914

; 1365 : 	return m_aPropItem.GetAt( nIndex ); 

  00012	3b c2		 cmp	 eax, edx
  00014	73 28		 jae	 SHORT $L265675
  00016	8b 89 4c 02 00
	00		 mov	 ecx, DWORD PTR [ecx+588]
  0001c	8b 04 81	 mov	 eax, DWORD PTR [ecx+eax*4]

; 1366 : }

  0001f	c2 04 00	 ret	 4
$L197914:

; 1364 : 	VERIFY_RANGE_ASSERT( nIndex, 0, m_aPropItem.GetSize(), "GetItemProp range_error", NULL );

  00022	8b 91 5c 02 00
	00		 mov	 edx, DWORD PTR [ecx+604]
  00028	50		 push	 eax
  00029	52		 push	 edx
  0002a	6a 00		 push	 0
  0002c	68 00 00 00 00	 push	 OFFSET FLAT:??_C@_0BI@BEIFNGEL@GetItemProp?5range_error?$AA@
  00031	68 00 00 00 00	 push	 OFFSET FLAT:??_C@_0BM@HMFGHCP@?$CFs?5min?3?$CFd?0?5max?3?$CFd?0?5index?3?$CFd?$AA@
  00036	e8 00 00 00 00	 call	 ?Error@@YAPBDPBDZZ	; Error
  0003b	83 c4 14	 add	 esp, 20			; 00000014H
$L265675:
  0003e	33 c0		 xor	 eax, eax

; 1366 : }

  00040	c2 04 00	 ret	 4
?GetItemProp@CProject@@QAEPAUItemProp@@H@Z ENDP		; CProject::GetItemProp
_TEXT	ENDS
PUBLIC	?GetPropA@CItemElem@@QAEPAUItemProp@@XZ		; CItemElem::GetPropA
; Function compile flags: /Ogty
; File c:\documents and settings\test\mes documents\source\virtuos_v17\build\program\_common\item.h
;	COMDAT ?GetPropA@CItemElem@@QAEPAUItemProp@@XZ
_TEXT	SEGMENT
?GetPropA@CItemElem@@QAEPAUItemProp@@XZ PROC NEAR	; CItemElem::GetPropA, COMDAT
; _this$ = ecx

; 229  : 	ItemProp*	GetProp()	{	return prj.GetItemProp( m_dwItemId );	}

  00000	8b 41 0c	 mov	 eax, DWORD PTR [ecx+12]
  00003	85 c0		 test	 eax, eax
  00005	8b 0d 5c 02 00
	00		 mov	 ecx, DWORD PTR ?prj@@3VCProject@@A+604
  0000b	7c 10		 jl	 SHORT $L265706
  0000d	3b c1		 cmp	 eax, ecx
  0000f	7d 0c		 jge	 SHORT $L265706
  00011	73 20		 jae	 SHORT $L265722
  00013	8b 0d 4c 02 00
	00		 mov	 ecx, DWORD PTR ?prj@@3VCProject@@A+588
  00019	8b 04 81	 mov	 eax, DWORD PTR [ecx+eax*4]
  0001c	c3		 ret	 0
$L265706:
  0001d	50		 push	 eax
  0001e	51		 push	 ecx
  0001f	6a 00		 push	 0
  00021	68 00 00 00 00	 push	 OFFSET FLAT:??_C@_0BI@BEIFNGEL@GetItemProp?5range_error?$AA@
  00026	68 00 00 00 00	 push	 OFFSET FLAT:??_C@_0BM@HMFGHCP@?$CFs?5min?3?$CFd?0?5max?3?$CFd?0?5index?3?$CFd?$AA@
  0002b	e8 00 00 00 00	 call	 ?Error@@YAPBDPBDZZ	; Error
  00030	83 c4 14	 add	 esp, 20			; 00000014H
$L265722:
  00033	33 c0		 xor	 eax, eax
  00035	c3		 ret	 0
?GetPropA@CItemElem@@QAEPAUItemProp@@XZ ENDP		; CItemElem::GetPropA
_TEXT	ENDS
PUBLIC	??9const_iterator@?$_Tree@V?$_Tmap_traits@KEU?$less@K@std@@V?$allocator@U?$pair@$$CBKE@std@@@2@$0A@@std@@@std@@QBE_NABV012@@Z ; std::_Tree<std::_Tmap_traits<unsigned long,unsigned char,std::less<unsigned long>,std::allocator<std::pair<unsigned long const ,unsigned char> >,0> >::const_iterator::operator!=
; Function compile flags: /Ogty
; File c:\program files\microsoft visual studio .net 2003\vc7\include\xtree
;	COMDAT ??9const_iterator@?$_Tree@V?$_Tmap_traits@KEU?$less@K@std@@V?$allocator@U?$pair@$$CBKE@std@@@2@$0A@@std@@@std@@QBE_NABV012@@Z
_TEXT	SEGMENT
__Right$ = 8						; size = 4
??9const_iterator@?$_Tree@V?$_Tmap_traits@KEU?$less@K@std@@V?$allocator@U?$pair@$$CBKE@std@@@2@$0A@@std@@@std@@QBE_NABV012@@Z PROC NEAR ; std::_Tree<std::_Tmap_traits<unsigned long,unsigned char,std::less<unsigned long>,std::allocator<std::pair<unsigned long const ,unsigned char> >,0> >::const_iterator::operator!=, COMDAT
; _this$ = ecx

; 246  : 			return (!(*this == _Right));

  00000	8b 01		 mov	 eax, DWORD PTR [ecx]
  00002	8b 54 24 04	 mov	 edx, DWORD PTR __Right$[esp-4]
  00006	56		 push	 esi
  00007	8b 32		 mov	 esi, DWORD PTR [edx]
  00009	33 c9		 xor	 ecx, ecx
  0000b	3b c6		 cmp	 eax, esi
  0000d	0f 95 c1	 setne	 cl
  00010	8a c1		 mov	 al, cl
  00012	5e		 pop	 esi

; 247  : 			}

  00013	c2 04 00	 ret	 4
??9const_iterator@?$_Tree@V?$_Tmap_traits@KEU?$less@K@std@@V?$allocator@U?$pair@$$CBKE@std@@@2@$0A@@std@@@std@@QBE_NABV012@@Z ENDP ; std::_Tree<std::_Tmap_traits<unsigned long,unsigned char,std::less<unsigned long>,std::allocator<std::pair<unsigned long const ,unsigned char> >,0> >::const_iterator::operator!=
_TEXT	ENDS
PUBLIC	?_Key@?$_Tree@V?$_Tmap_traits@KEU?$less@K@std@@V?$allocator@U?$pair@$$CBKE@std@@@2@$0A@@std@@@std@@KAABKPAU_Node@?$_Tree_nod@V?$_Tmap_traits@KEU?$less@K@std@@V?$allocator@U?$pair@$$CBKE@std@@@2@$0A@@std@@@2@@Z ; std::_Tree<std::_Tmap_traits<unsigned long,unsigned char,std::less<unsigned long>,std::allocator<std::pair<unsigned long const ,unsigned char> >,0> >::_Key
; Function compile flags: /Ogty
;	COMDAT ?_Key@?$_Tree@V?$_Tmap_traits@KEU?$less@K@std@@V?$allocator@U?$pair@$$CBKE@std@@@2@$0A@@std@@@std@@KAABKPAU_Node@?$_Tree_nod@V?$_Tmap_traits@KEU?$less@K@std@@V?$allocator@U?$pair@$$CBKE@std@@@2@$0A@@std@@@2@@Z
_TEXT	SEGMENT
__Pnode$ = 8						; size = 4
?_Key@?$_Tree@V?$_Tmap_traits@KEU?$less@K@std@@V?$allocator@U?$pair@$$CBKE@std@@@2@$0A@@std@@@std@@KAABKPAU_Node@?$_Tree_nod@V?$_Tmap_traits@KEU?$less@K@std@@V?$allocator@U?$pair@$$CBKE@std@@@2@$0A@@std@@@2@@Z PROC NEAR ; std::_Tree<std::_Tmap_traits<unsigned long,unsigned char,std::less<unsigned long>,std::allocator<std::pair<unsigned long const ,unsigned char> >,0> >::_Key, COMDAT

; 142  : 		return (_Mybase::_Kfn(_Myval(_Pnode)));

  00000	8b 44 24 04	 mov	 eax, DWORD PTR __Pnode$[esp-4]
  00004	83 c0 0c	 add	 eax, 12			; 0000000cH

; 143  : 		}

  00007	c3		 ret	 0
?_Key@?$_Tree@V?$_Tmap_traits@KEU?$less@K@std@@V?$allocator@U?$pair@$$CBKE@std@@@2@$0A@@std@@@std@@KAABKPAU_Node@?$_Tree_nod@V?$_Tmap_traits@KEU?$less@K@std@@V?$allocator@U?$pair@$$CBKE@std@@@2@$0A@@std@@@2@@Z ENDP ; std::_Tree<std::_Tmap_traits<unsigned long,unsigned char,std::less<unsigned long>,std::allocator<std::pair<unsigned long const ,unsigned char> >,0> >::_Key
_TEXT	ENDS
PUBLIC	??0iterator@?$_Tree@V?$_Tmap_traits@KEU?$less@K@std@@V?$allocator@U?$pair@$$CBKE@std@@@2@$0A@@std@@@std@@QAE@PAU_Node@?$_Tree_nod@V?$_Tmap_traits@KEU?$less@K@std@@V?$allocator@U?$pair@$$CBKE@std@@@2@$0A@@std@@@2@@Z ; std::_Tree<std::_Tmap_traits<unsigned long,unsigned char,std::less<unsigned long>,std::allocator<std::pair<unsigned long const ,unsigned char> >,0> >::iterator::iterator
; Function compile flags: /Ogty
;	COMDAT ??0iterator@?$_Tree@V?$_Tmap_traits@KEU?$less@K@std@@V?$allocator@U?$pair@$$CBKE@std@@@2@$0A@@std@@@std@@QAE@PAU_Node@?$_Tree_nod@V?$_Tmap_traits@KEU?$less@K@std@@V?$allocator@U?$pair@$$CBKE@std@@@2@$0A@@std@@@2@@Z
_TEXT	SEGMENT
__Pnode$ = 8						; size = 4
??0iterator@?$_Tree@V?$_Tmap_traits@KEU?$less@K@std@@V?$allocator@U?$pair@$$CBKE@std@@@2@$0A@@std@@@std@@QAE@PAU_Node@?$_Tree_nod@V?$_Tmap_traits@KEU?$less@K@std@@V?$allocator@U?$pair@$$CBKE@std@@@2@$0A@@std@@@2@@Z PROC NEAR ; std::_Tree<std::_Tmap_traits<unsigned long,unsigned char,std::less<unsigned long>,std::allocator<std::pair<unsigned long const ,unsigned char> >,0> >::iterator::iterator, COMDAT
; _this$ = ecx

; 312  : 			{	// construct with node pointer _Pnode

  00000	8b c1		 mov	 eax, ecx
  00002	8b 4c 24 04	 mov	 ecx, DWORD PTR __Pnode$[esp-4]
  00006	89 08		 mov	 DWORD PTR [eax], ecx

; 313  : 			}

  00008	c2 04 00	 ret	 4
??0iterator@?$_Tree@V?$_Tmap_traits@KEU?$less@K@std@@V?$allocator@U?$pair@$$CBKE@std@@@2@$0A@@std@@@std@@QAE@PAU_Node@?$_Tree_nod@V?$_Tmap_traits@KEU?$less@K@std@@V?$allocator@U?$pair@$$CBKE@std@@@2@$0A@@std@@@2@@Z ENDP ; std::_Tree<std::_Tmap_traits<unsigned long,unsigned char,std::less<unsigned long>,std::allocator<std::pair<unsigned long const ,unsigned char> >,0> >::iterator::iterator
_TEXT	ENDS
PUBLIC	?_Lbound@?$_Tree@V?$_Tmap_traits@KEU?$less@K@std@@V?$allocator@U?$pair@$$CBKE@std@@@2@$0A@@std@@@std@@IBEPAU_Node@?$_Tree_nod@V?$_Tmap_traits@KEU?$less@K@std@@V?$allocator@U?$pair@$$CBKE@std@@@2@$0A@@std@@@2@ABK@Z ; std::_Tree<std::_Tmap_traits<unsigned long,unsigned char,std::less<unsigned long>,std::allocator<std::pair<unsigned long const ,unsigned char> >,0> >::_Lbound
; Function compile flags: /Ogty
;	COMDAT ?_Lbound@?$_Tree@V?$_Tmap_traits@KEU?$less@K@std@@V?$allocator@U?$pair@$$CBKE@std@@@2@$0A@@std@@@std@@IBEPAU_Node@?$_Tree_nod@V?$_Tmap_traits@KEU?$less@K@std@@V?$allocator@U?$pair@$$CBKE@std@@@2@$0A@@std@@@2@ABK@Z
_TEXT	SEGMENT
__Keyval$ = 8						; size = 4
?_Lbound@?$_Tree@V?$_Tmap_traits@KEU?$less@K@std@@V?$allocator@U?$pair@$$CBKE@std@@@2@$0A@@std@@@std@@IBEPAU_Node@?$_Tree_nod@V?$_Tmap_traits@KEU?$less@K@std@@V?$allocator@U?$pair@$$CBKE@std@@@2@$0A@@std@@@2@ABK@Z PROC NEAR ; std::_Tree<std::_Tmap_traits<unsigned long,unsigned char,std::less<unsigned long>,std::allocator<std::pair<unsigned long const ,unsigned char> >,0> >::_Lbound, COMDAT
; _this$ = ecx

; 988  : 		_Nodeptr _Pnode = _Root();

  00000	8b 41 04	 mov	 eax, DWORD PTR [ecx+4]
  00003	8b 48 04	 mov	 ecx, DWORD PTR [eax+4]

; 989  : 		_Nodeptr _Wherenode = _Myhead;	// end() if search fails
; 990  : 
; 991  : 		while (!_Isnil(_Pnode))

  00006	8a 51 15	 mov	 dl, BYTE PTR [ecx+21]
  00009	84 d2		 test	 dl, dl
  0000b	75 1d		 jne	 SHORT $L222141
  0000d	8b 54 24 04	 mov	 edx, DWORD PTR __Keyval$[esp-4]
  00011	8b 12		 mov	 edx, DWORD PTR [edx]
  00013	53		 push	 ebx
$L222140:

; 992  : 			if (this->comp(_Key(_Pnode), _Keyval))

  00014	39 51 0c	 cmp	 DWORD PTR [ecx+12], edx
  00017	73 05		 jae	 SHORT $L222142

; 993  : 				_Pnode = _Right(_Pnode);	// descend right subtree

  00019	8b 49 08	 mov	 ecx, DWORD PTR [ecx+8]

; 994  : 			else

  0001c	eb 04		 jmp	 SHORT $L222143
$L222142:

; 995  : 				{	// _Pnode not less than _Keyval, remember it
; 996  : 				_Wherenode = _Pnode;

  0001e	8b c1		 mov	 eax, ecx

; 997  : 				_Pnode = _Left(_Pnode);	// descend left subtree

  00020	8b 09		 mov	 ecx, DWORD PTR [ecx]
$L222143:
  00022	8a 59 15	 mov	 bl, BYTE PTR [ecx+21]
  00025	84 db		 test	 bl, bl
  00027	74 eb		 je	 SHORT $L222140
  00029	5b		 pop	 ebx
$L222141:

; 998  : 				}
; 999  : 
; 1000 : 		return (_Wherenode);	// return best remembered candidate
; 1001 : 		}

  0002a	c2 04 00	 ret	 4
?_Lbound@?$_Tree@V?$_Tmap_traits@KEU?$less@K@std@@V?$allocator@U?$pair@$$CBKE@std@@@2@$0A@@std@@@std@@IBEPAU_Node@?$_Tree_nod@V?$_Tmap_traits@KEU?$less@K@std@@V?$allocator@U?$pair@$$CBKE@std@@@2@$0A@@std@@@2@ABK@Z ENDP ; std::_Tree<std::_Tmap_traits<unsigned long,unsigned char,std::less<unsigned long>,std::allocator<std::pair<unsigned long const ,unsigned char> >,0> >::_Lbound
_TEXT	ENDS
PUBLIC	?CanIgnoreDEF@ATTACK_INFO@@QBEHXZ		; ATTACK_INFO::CanIgnoreDEF
; Function compile flags: /Ogty
; File c:\documents and settings\test\mes documents\source\virtuos_v17\build\program\worldserver\attackarbiter.cpp
;	COMDAT ?CanIgnoreDEF@ATTACK_INFO@@QBEHXZ
_TEXT	SEGMENT
?CanIgnoreDEF@ATTACK_INFO@@QBEHXZ PROC NEAR		; ATTACK_INFO::CanIgnoreDEF, COMDAT
; _this$ = ecx

; 63   : 	int nSkill = GetSkill();

  00000	8b 41 08	 mov	 eax, DWORD PTR [ecx+8]
  00003	a8 30		 test	 al, 48			; 00000030H
  00005	74 06		 je	 SHORT $L265793
  00007	0f b7 49 0e	 movzx	 ecx, WORD PTR [ecx+14]
  0000b	eb 02		 jmp	 SHORT $L265794
$L265793:
  0000d	33 c9		 xor	 ecx, ecx
$L265794:

; 64   : 	switch ( nSkill )

  0000f	81 e9 9f 00 00
	00		 sub	 ecx, 159		; 0000009fH
  00015	74 0c		 je	 SHORT $L259639
  00017	83 e9 35	 sub	 ecx, 53			; 00000035H
  0001a	74 07		 je	 SHORT $L259639

; 68   : 	case SI_JST_YOYO_HITOFPENYA :
; 69   : 		return TRUE;
; 70   : 	}
; 71   : 
; 72   : 	if( dwAtkFlags & AF_FORCE )		//    ,   (: ,  )  

  0001c	c1 e8 0d	 shr	 eax, 13			; 0000000dH
  0001f	83 e0 01	 and	 eax, 1

; 73   : 		return TRUE;
; 74   : 	return FALSE;
; 75   : }

  00022	c3		 ret	 0
$L259639:

; 65   : 	{
; 66   : 	case SI_BIL_PST_ASALRAALAIKUM :
; 67   : 		return TRUE;

  00023	b8 01 00 00 00	 mov	 eax, 1

; 73   : 		return TRUE;
; 74   : 	return FALSE;
; 75   : }

  00028	c3		 ret	 0
?CanIgnoreDEF@ATTACK_INFO@@QBEHXZ ENDP			; ATTACK_INFO::CanIgnoreDEF
_TEXT	ENDS
PUBLIC	?PostCalcDamage@CAttackArbiter@@AAEHHPAUATTACK_INFO@@@Z ; CAttackArbiter::PostCalcDamage
PUBLIC	__real@3d4ccccd
PUBLIC	__real@3f800000
EXTRN	?ApplyDPC@CMover@@QAEHHPAUATTACK_INFO@@@Z:NEAR	; CMover::ApplyDPC
EXTRN	?CalcLinkAttackDamage@CMover@@QAEHH@Z:NEAR	; CMover::CalcLinkAttackDamage
EXTRN	?RemoveBuff@CMover@@QAEXGG@Z:NEAR		; CMover::RemoveBuff
EXTRN	?ResetDestParam@CMover@@QAEXHHH@Z:NEAR		; CMover::ResetDestParam
EXTRN	?GetDamageMultiplier@CMover@@QAEMPAUATTACK_INFO@@@Z:NEAR ; CMover::GetDamageMultiplier
EXTRN	?PostCalcMagicSkill@CMover@@QAEHHPAUATTACK_INFO@@@Z:NEAR ; CMover::PostCalcMagicSkill
EXTRN	?PostCalcGeneric@CMover@@QAEHHPAUATTACK_INFO@@@Z:NEAR ; CMover::PostCalcGeneric
;	COMDAT __real@3d4ccccd
; File c:\documents and settings\test\mes documents\source\virtuos_v17\build\program\_common\mover.h
CONST	SEGMENT
__real@3d4ccccd DD 03d4ccccdr			; 0.05
CONST	ENDS
;	COMDAT __real@3f800000
CONST	SEGMENT
__real@3f800000 DD 03f800000r			; 1
; Function compile flags: /Ogty
; File c:\documents and settings\test\mes documents\source\virtuos_v17\build\program\worldserver\attackarbiter.cpp
CONST	ENDS
;	COMDAT ?PostCalcDamage@CAttackArbiter@@AAEHHPAUATTACK_INFO@@@Z
_TEXT	SEGMENT
_this$ = -4						; size = 4
_nDamage$ = 8						; size = 4
_nATK$ = 8						; size = 4
_nDelta$259806 = 12					; size = 4
_pInfo$ = 12						; size = 4
?PostCalcDamage@CAttackArbiter@@AAEHHPAUATTACK_INFO@@@Z PROC NEAR ; CAttackArbiter::PostCalcDamage, COMDAT
; _this$ = ecx

; 460  : {

  00000	51		 push	 ecx
  00001	57		 push	 edi

; 461  : 	if ( pInfo->dwAtkFlags & AF_FORCE )		// 

  00002	8b 7c 24 10	 mov	 edi, DWORD PTR _pInfo$[esp+4]
  00006	8b 47 08	 mov	 eax, DWORD PTR [edi+8]
  00009	f6 c4 20	 test	 ah, 32			; 00000020H
  0000c	89 4c 24 04	 mov	 DWORD PTR _this$[esp+8], ecx
  00010	74 09		 je	 SHORT $L259801

; 462  : 		return nATK;

  00012	8b 44 24 0c	 mov	 eax, DWORD PTR _nATK$[esp+4]
  00016	5f		 pop	 edi

; 524  : 	return nDamage;
; 525  : }	

  00017	59		 pop	 ecx
  00018	c2 08 00	 ret	 8
$L259801:

; 463  : 
; 464  : 	CMover* pAttacker = pInfo->pAttacker;
; 465  : 	CMover* pDefender = pInfo->pDefender;
; 466  : 
; 467  : 	// :  ,       UP
; 468  : 	if( ((pInfo->dwAtkFlags & AF_MAGICSKILL) == 0) && pAttacker->IsNPC() && pDefender->IsPlayer() )	

  0001b	a8 20		 test	 al, 32			; 00000020H
  0001d	53		 push	 ebx
  0001e	8b 5f 04	 mov	 ebx, DWORD PTR [edi+4]
  00021	55		 push	 ebp
  00022	8b 2f		 mov	 ebp, DWORD PTR [edi]
  00024	75 43		 jne	 SHORT $L265844
  00026	8b 85 34 02 00
	00		 mov	 eax, DWORD PTR [ebp+564]
  0002c	85 c0		 test	 eax, eax
  0002e	75 39		 jne	 SHORT $L265844
  00030	8b 83 34 02 00
	00		 mov	 eax, DWORD PTR [ebx+564]
  00036	85 c0		 test	 eax, eax
  00038	74 2f		 je	 SHORT $L265844

; 469  : 	{
; 470  : 		int nDelta = pAttacker->GetLevel() - pDefender->GetLevel();

  0003a	8b 85 e0 05 00
	00		 mov	 eax, DWORD PTR [ebp+1504]
  00040	2b 83 e0 05 00
	00		 sub	 eax, DWORD PTR [ebx+1504]

; 471  : 		if( nDelta > 0 ) 

  00046	85 c0		 test	 eax, eax
  00048	89 44 24 18	 mov	 DWORD PTR _nDelta$259806[esp+12], eax
  0004c	7e 1b		 jle	 SHORT $L265844

; 472  : 		{
; 473  : 			float fpower = 1.0f + ( 0.05f * nDelta );
; 474  : 			nATK	= (int)( nATK * fpower );

  0004e	db 44 24 18	 fild	 DWORD PTR _nDelta$259806[esp+12]
  00052	d8 0d 00 00 00
	00		 fmul	 DWORD PTR __real@3d4ccccd
  00058	d8 05 00 00 00
	00		 fadd	 DWORD PTR __real@3f800000
  0005e	da 4c 24 14	 fimul	 DWORD PTR _nATK$[esp+12]
  00062	e8 00 00 00 00	 call	 __ftol2
  00067	eb 04		 jmp	 SHORT $L259807
$L265844:
  00069	8b 44 24 14	 mov	 eax, DWORD PTR _nATK$[esp+12]
$L259807:

; 475  : 		}
; 476  : 	}
; 477  : 
; 478  : 	int nDamage = nATK;
; 479  : 	switch( GetPostCalcType( pInfo->dwAtkFlags ) )

  0006d	8b 4f 08	 mov	 ecx, DWORD PTR [edi+8]
  00070	f6 c1 20	 test	 cl, 32			; 00000020H
  00073	56		 push	 esi
  00074	8b f0		 mov	 esi, eax
  00076	74 07		 je	 SHORT $L265816
  00078	b9 01 00 00 00	 mov	 ecx, 1
  0007d	eb 08		 jmp	 SHORT $L265817
$L265816:
  0007f	0f b6 c9	 movzx	 ecx, cl
  00082	83 e1 01	 and	 ecx, 1
  00085	d1 e1		 shl	 ecx, 1
$L265817:
  00087	83 e9 00	 sub	 ecx, 0
  0008a	74 1c		 je	 SHORT $L259815
  0008c	49		 dec	 ecx
  0008d	74 0e		 je	 SHORT $L259816
  0008f	49		 dec	 ecx
  00090	75 21		 jne	 SHORT $L259812

; 491  : 	case POSTCALC_GENERIC:
; 492  : 		nDamage = pAttacker->PostCalcGeneric( nATK, pInfo );

  00092	57		 push	 edi
  00093	50		 push	 eax
  00094	8b cd		 mov	 ecx, ebp
  00096	e8 00 00 00 00	 call	 ?PostCalcGeneric@CMover@@QAEHHPAUATTACK_INFO@@@Z ; CMover::PostCalcGeneric

; 493  : 		break;

  0009b	eb 14		 jmp	 SHORT $L265848
$L259816:

; 483  : #if __VER < 13 // __EXT_ENCHANT
; 484  : 		if( nATK > 0 )
; 485  : 			nDamage += pAttacker->CalcPropDamage( pDefender, pInfo->dwAtkFlags );		//  
; 486  : #endif // __EXT_ENCHANT
; 487  : 		break;
; 488  : 	case POSTCALC_MAGICSKILL:
; 489  : 		nDamage = pAttacker->PostCalcMagicSkill( nATK, pInfo );

  0009d	57		 push	 edi
  0009e	50		 push	 eax
  0009f	8b cd		 mov	 ecx, ebp
  000a1	e8 00 00 00 00	 call	 ?PostCalcMagicSkill@CMover@@QAEHHPAUATTACK_INFO@@@Z ; CMover::PostCalcMagicSkill

; 490  : 		break;

  000a6	eb 09		 jmp	 SHORT $L265848
$L259815:

; 480  : 	{
; 481  : 	case POSTCALC_DPC:
; 482  : 		nDamage = pDefender->ApplyDPC( nATK, pInfo );	// Defense, Parry, Critical 

  000a8	57		 push	 edi
  000a9	50		 push	 eax
  000aa	8b cb		 mov	 ecx, ebx
  000ac	e8 00 00 00 00	 call	 ?ApplyDPC@CMover@@QAEHHPAUATTACK_INFO@@@Z ; CMover::ApplyDPC
$L265848:
  000b1	8b f0		 mov	 esi, eax
$L259812:

; 494  : 	}
; 495  : 
; 496  : 	if( nDamage <= 0 )

  000b3	85 f6		 test	 esi, esi
  000b5	7f 0a		 jg	 SHORT $L259818
  000b7	5e		 pop	 esi
  000b8	5d		 pop	 ebp
  000b9	5b		 pop	 ebx

; 497  : 		return 0;

  000ba	33 c0		 xor	 eax, eax
  000bc	5f		 pop	 edi

; 524  : 	return nDamage;
; 525  : }	

  000bd	59		 pop	 ecx
  000be	c2 08 00	 ret	 8
$L259818:

; 498  : 
; 499  : 	nDamage += pAttacker->CalcLinkAttackDamage( nDamage );						//   .

  000c1	56		 push	 esi
  000c2	8b cd		 mov	 ecx, ebp
  000c4	e8 00 00 00 00	 call	 ?CalcLinkAttackDamage@CMover@@QAEHH@Z ; CMover::CalcLinkAttackDamage
  000c9	03 f0		 add	 esi, eax

; 500  : 	if( pInfo->GetSkill() == SI_BIL_PST_ASALRAALAIKUM )

  000cb	f6 47 08 30	 test	 BYTE PTR [edi+8], 48	; 00000030H
  000cf	89 74 24 18	 mov	 DWORD PTR _nDamage$[esp+16], esi
  000d3	74 1a		 je	 SHORT $L259819
  000d5	0f b7 47 0e	 movzx	 eax, WORD PTR [edi+14]
  000d9	3d 9f 00 00 00	 cmp	 eax, 159		; 0000009fH
  000de	75 0f		 jne	 SHORT $L259819

; 501  : 		nDamage += PostAsalraalaikum();

  000e0	8b 4c 24 10	 mov	 ecx, DWORD PTR _this$[esp+20]
  000e4	e8 00 00 00 00	 call	 ?PostAsalraalaikum@CAttackArbiter@@AAEHXZ ; CAttackArbiter::PostAsalraalaikum
  000e9	03 f0		 add	 esi, eax
  000eb	89 74 24 18	 mov	 DWORD PTR _nDamage$[esp+16], esi
$L259819:

; 502  : 
; 503  : 	nDamage	= (int)( nDamage * pAttacker->GetDamageMultiplier( pInfo ) );		//  

  000ef	57		 push	 edi
  000f0	8b cd		 mov	 ecx, ebp
  000f2	e8 00 00 00 00	 call	 ?GetDamageMultiplier@CMover@@QAEMPAUATTACK_INFO@@@Z ; CMover::GetDamageMultiplier
  000f7	da 4c 24 18	 fimul	 DWORD PTR _nDamage$[esp+16]
  000fb	e8 00 00 00 00	 call	 __ftol2
  00100	8b f0		 mov	 esi, eax

; 504  : #ifdef __3RD_LEGEND16
; 505  :   if( pDefender->IsPlayer() && pAttacker->IsPlayer() )

  00102	8b 83 34 02 00
	00		 mov	 eax, DWORD PTR [ebx+564]
  00108	85 c0		 test	 eax, eax
  0010a	74 50		 je	 SHORT $L259825
  0010c	8b 85 34 02 00
	00		 mov	 eax, DWORD PTR [ebp+564]
  00112	85 c0		 test	 eax, eax
  00114	74 46		 je	 SHORT $L259825

; 506  :   {
; 507  :     int nImmunity = pDefender->GetParam( DST_IGNORE_DMG_PVP, 0 );

  00116	6a 00		 push	 0
  00118	6a 5e		 push	 94			; 0000005eH
  0011a	8b cb		 mov	 ecx, ebx
  0011c	e8 00 00 00 00	 call	 ?GetParam@CMover@@QAEHHH@Z ; CMover::GetParam

; 508  :     if( nImmunity > 0 )

  00121	85 c0		 test	 eax, eax
  00123	7e 37		 jle	 SHORT $L259825

; 509  :     {
; 510  :       if( ( nImmunity - nDamage ) <= 0 )

  00125	8b c8		 mov	 ecx, eax
  00127	2b ce		 sub	 ecx, esi
  00129	85 c9		 test	 ecx, ecx

; 511  :       {
; 512  :         nDamage -= nImmunity;
; 513  :         pDefender->RemoveBuff( BUFF_SKILL, SI_FLO_SUP_ABSOLUTE );

  0012b	8b cb		 mov	 ecx, ebx
  0012d	7f 21		 jg	 SHORT $L259824
  0012f	68 a5 01 00 00	 push	 421			; 000001a5H
  00134	6a 01		 push	 1
  00136	2b f0		 sub	 esi, eax
  00138	e8 00 00 00 00	 call	 ?RemoveBuff@CMover@@QAEXGG@Z ; CMover::RemoveBuff

; 519  :       }
; 520  :     }
; 521  :   }
; 522  : #endif // __3RD_LEGEND16
; 523  : 	nDamage = OnAfterDamage( pInfo, nDamage );

  0013d	8b 4c 24 10	 mov	 ecx, DWORD PTR _this$[esp+20]
  00141	56		 push	 esi
  00142	57		 push	 edi
  00143	e8 00 00 00 00	 call	 ?OnAfterDamage@CAttackArbiter@@AAEHPAUATTACK_INFO@@H@Z ; CAttackArbiter::OnAfterDamage
  00148	5e		 pop	 esi
  00149	5d		 pop	 ebp
  0014a	5b		 pop	 ebx
  0014b	5f		 pop	 edi

; 524  : 	return nDamage;
; 525  : }	

  0014c	59		 pop	 ecx
  0014d	c2 08 00	 ret	 8
$L259824:

; 514  :       }
; 515  :       else
; 516  :       {
; 517  :         pDefender->ResetDestParam( DST_IGNORE_DMG_PVP, nDamage, TRUE );

  00150	6a 01		 push	 1
  00152	56		 push	 esi
  00153	6a 5e		 push	 94			; 0000005eH
  00155	e8 00 00 00 00	 call	 ?ResetDestParam@CMover@@QAEXHHH@Z ; CMover::ResetDestParam

; 518  :         nDamage = 0;

  0015a	33 f6		 xor	 esi, esi
$L259825:

; 519  :       }
; 520  :     }
; 521  :   }
; 522  : #endif // __3RD_LEGEND16
; 523  : 	nDamage = OnAfterDamage( pInfo, nDamage );

  0015c	8b 4c 24 10	 mov	 ecx, DWORD PTR _this$[esp+20]
  00160	56		 push	 esi
  00161	57		 push	 edi
  00162	e8 00 00 00 00	 call	 ?OnAfterDamage@CAttackArbiter@@AAEHPAUATTACK_INFO@@H@Z ; CAttackArbiter::OnAfterDamage
  00167	5e		 pop	 esi
  00168	5d		 pop	 ebp
  00169	5b		 pop	 ebx
  0016a	5f		 pop	 edi

; 524  : 	return nDamage;
; 525  : }	

  0016b	59		 pop	 ecx
  0016c	c2 08 00	 ret	 8
?PostCalcDamage@CAttackArbiter@@AAEHHPAUATTACK_INFO@@@Z ENDP ; CAttackArbiter::PostCalcDamage
_TEXT	ENDS
PUBLIC	?ProcessAbnormal@CAttackArbiter@@AAEXHPAUATTACK_INFO@@@Z ; CAttackArbiter::ProcessAbnormal
PUBLIC	??_C@_0BA@GFPHKILF@ProcessAbnormal?$AA@		; `string'
EXTRN	?HasBuff@CMover@@QAEHGG@Z:NEAR			; CMover::HasBuff
EXTRN	?GetWeaponItem@CMover@@QAEPAVCItemElem@@H@Z:NEAR ; CMover::GetWeaponItem
;	COMDAT ??_C@_0BA@GFPHKILF@ProcessAbnormal?$AA@
; File c:\documents and settings\test\mes documents\source\virtuos_v17\build\program\_common\item.h
CONST	SEGMENT
??_C@_0BA@GFPHKILF@ProcessAbnormal?$AA@ DB 'ProcessAbnormal', 00H ; `string'
; Function compile flags: /Ogty
; File c:\documents and settings\test\mes documents\source\virtuos_v17\build\program\worldserver\attackarbiter.cpp
CONST	ENDS
;	COMDAT ?ProcessAbnormal@CAttackArbiter@@AAEXHPAUATTACK_INFO@@@Z
_TEXT	SEGMENT
_nSkill$ = -8						; size = 4
_nReflectDmgRate$ = -4					; size = 4
_pSkillProp$259918 = 8					; size = 4
_nDmg$259890 = 8					; size = 4
_nDamage$ = 8						; size = 4
_pAddSkillProp$259919 = 12				; size = 4
_pInfo$ = 12						; size = 4
?ProcessAbnormal@CAttackArbiter@@AAEXHPAUATTACK_INFO@@@Z PROC NEAR ; CAttackArbiter::ProcessAbnormal, COMDAT
; _this$ = ecx

; 600  : {

  00000	83 ec 08	 sub	 esp, 8
  00003	53		 push	 ebx

; 601  : 	int	nSkill = pInfo->GetSkill();

  00004	8b 5c 24 14	 mov	 ebx, DWORD PTR _pInfo$[esp+8]
  00008	f6 43 08 30	 test	 BYTE PTR [ebx+8], 48	; 00000030H
  0000c	55		 push	 ebp
  0000d	56		 push	 esi
  0000e	57		 push	 edi
  0000f	8b f1		 mov	 esi, ecx
  00011	74 0a		 je	 SHORT $L265857
  00013	0f b7 43 0e	 movzx	 eax, WORD PTR [ebx+14]
  00017	89 44 24 10	 mov	 DWORD PTR _nSkill$[esp+24], eax
  0001b	eb 08		 jmp	 SHORT $L265858
$L265857:
  0001d	c7 44 24 10 00
	00 00 00	 mov	 DWORD PTR _nSkill$[esp+24], 0
$L265858:

; 602  : 
; 603  : 	// ?    .
; 604  : 	int nReflectDmgRate = m_pDefender->GetAdjParam( DST_REFLECT_DAMAGE );

  00025	8b 4e 0c	 mov	 ecx, DWORD PTR [esi+12]
  00028	6a 1d		 push	 29			; 0000001dH
  0002a	e8 00 00 00 00	 call	 ?GetAdjParam@CMover@@QAEHH@Z ; CMover::GetAdjParam

; 605  : 	if( nReflectDmgRate > 0 )

  0002f	85 c0		 test	 eax, eax
  00031	89 44 24 14	 mov	 DWORD PTR _nReflectDmgRate$[esp+24], eax
  00035	0f 8e a5 00 00
	00		 jle	 $L265943

; 606  : 	{
; 607  : 		int nReflectRate = m_pDefender->GetChgParam( DST_REFLECT_DAMAGE );	

  0003b	8b 4e 0c	 mov	 ecx, DWORD PTR [esi+12]
  0003e	6a 1d		 push	 29			; 0000001dH
  00040	e8 00 00 00 00	 call	 ?GetChgParam@CMover@@QAEHH@Z ; CMover::GetChgParam
  00045	8b c8		 mov	 ecx, eax

; 608  : 
; 609  : 		BOOL bAble = TRUE;
; 610  : 		if( nReflectRate > 0 )			//     

  00047	85 c9		 test	 ecx, ecx
  00049	bf 01 00 00 00	 mov	 edi, 1
  0004e	7e 24		 jle	 SHORT $L265944

; 611  : 			if( (int)( xRandom(100) ) > nReflectRate )	//  ?

  00050	a1 00 00 00 00	 mov	 eax, DWORD PTR ?g_next@@3KA ; g_next
  00055	69 c0 6d 4e c6
	41		 imul	 eax, 1103515245		; 41c64e6dH
  0005b	05 39 30 00 00	 add	 eax, 12345		; 00003039H
  00060	33 d2		 xor	 edx, edx
  00062	bd 64 00 00 00	 mov	 ebp, 100		; 00000064H
  00067	a3 00 00 00 00	 mov	 DWORD PTR ?g_next@@3KA, eax ; g_next
  0006c	f7 f5		 div	 ebp
  0006e	3b d1		 cmp	 edx, ecx
  00070	7e 02		 jle	 SHORT $L265944

; 612  : 				bAble = FALSE;

  00072	33 ff		 xor	 edi, edi
$L265944:

; 613  : 
; 614  : 		ATK_TYPE atkType = pInfo->GetAtkType();

  00074	8b 43 08	 mov	 eax, DWORD PTR [ebx+8]
  00077	a8 30		 test	 al, 48			; 00000030H
  00079	75 0b		 jne	 SHORT $L265942
  0007b	a8 08		 test	 al, 8
  0007d	75 1a		 jne	 SHORT $L259883
  0007f	f6 c4 20	 test	 ah, 32			; 00000020H
  00082	74 15		 je	 SHORT $L259883

; 615  : 		switch( atkType )

  00084	eb 5a		 jmp	 SHORT $L265943
$L265942:

; 616  : 		{
; 617  : 		case ATK_MELEESKILL:
; 618  : 		case ATK_MAGICSKILL:
; 619  : 			if( m_pDefender->HasBuff( BUFF_SKILL, SI_PSY_NLG_CRUCIOSPELL ) )		//    

  00086	8b 4e 0c	 mov	 ecx, DWORD PTR [esi+12]
  00089	68 a5 00 00 00	 push	 165			; 000000a5H
  0008e	6a 01		 push	 1
  00090	e8 00 00 00 00	 call	 ?HasBuff@CMover@@QAEHGG@Z ; CMover::HasBuff
  00095	85 c0		 test	 eax, eax
  00097	75 47		 jne	 SHORT $L265943
$L259883:

; 620  : 				bAble = FALSE;
; 621  : #if __VER >= 11 // __REFLECTDMG_AFTER
; 622  : 			break;
; 623  : #endif // __REFLECTDMG_AFTER
; 624  : 		case ATK_FORCE:															//  
; 625  : 			bAble = FALSE;
; 626  : 			break;
; 627  : 		}
; 628  : 
; 629  : 		if( bAble )

  00099	85 ff		 test	 edi, edi
  0009b	74 43		 je	 SHORT $L265943

; 630  : 		{
; 631  : 			int nDmg = (int)( nDamage * (float)(nReflectDmgRate / 100.0f) );

  0009d	db 44 24 14	 fild	 DWORD PTR _nReflectDmgRate$[esp+24]
  000a1	d8 0d 00 00 00
	00		 fmul	 DWORD PTR __real@3c23d70a
  000a7	da 4c 24 1c	 fimul	 DWORD PTR _nDamage$[esp+20]
  000ab	e8 00 00 00 00	 call	 __ftol2

; 632  : #if __VER >= 8 // __S8_PVP_DST_REFLECT_DAMAGE
; 633  : 			if( m_pAttacker->IsPlayer() && m_pDefender->IsPlayer() )

  000b0	8b 4e 08	 mov	 ecx, DWORD PTR [esi+8]
  000b3	8b 91 34 02 00
	00		 mov	 edx, DWORD PTR [ecx+564]
  000b9	85 d2		 test	 edx, edx
  000bb	89 44 24 1c	 mov	 DWORD PTR _nDmg$259890[esp+20], eax
  000bf	74 1c		 je	 SHORT $L259893
  000c1	8b 56 0c	 mov	 edx, DWORD PTR [esi+12]
  000c4	8b 8a 34 02 00
	00		 mov	 ecx, DWORD PTR [edx+564]
  000ca	85 c9		 test	 ecx, ecx
  000cc	74 0f		 je	 SHORT $L259893

; 634  : 				nDmg = (int)( nDmg * 0.1f );

  000ce	db 44 24 1c	 fild	 DWORD PTR _nDmg$259890[esp+20]
  000d2	d8 0d 00 00 00
	00		 fmul	 DWORD PTR __real@3dcccccd
  000d8	e8 00 00 00 00	 call	 __ftol2
$L259893:

; 635  : #endif // __VER >= 8 // __S8_PVP_DST_REFLECT_DAMAGE
; 636  : #if __VER >= 11 // __REFLECTDMG_AFTER
; 637  : 			m_nReflectDmg = nDmg;

  000dd	89 46 20	 mov	 DWORD PTR [esi+32], eax
$L265943:

; 638  : #else // __REFLECTDMG_AFTER
; 639  : 			m_pAttacker->m_pActMover->SendDamage( AF_FORCE, 
; 640  : 			                                  m_pDefender->GetId(), 
; 641  : 			                                  nDmg, TRUE, 2 );
; 642  : #endif // __REFLECTDMG_AFTER
; 643  : 		}
; 644  : 	}
; 645  : 
; 646  : 	// chipi_080325 - AF_MAGICSKILL      
; 647  : 	if( (m_dwAtkFlags & AF_MAGICSKILL) && m_pAttacker->IsPlayer() )

  000e0	f6 46 10 20	 test	 BYTE PTR [esi+16], 32	; 00000020H
  000e4	74 2f		 je	 SHORT $L265952
  000e6	8b 46 08	 mov	 eax, DWORD PTR [esi+8]
  000e9	8b 88 34 02 00
	00		 mov	 ecx, DWORD PTR [eax+564]
  000ef	85 c9		 test	 ecx, ecx
  000f1	74 22		 je	 SHORT $L265952

; 648  : 	{
; 649  : 		switch( nSkill )

  000f3	8b 4c 24 10	 mov	 ecx, DWORD PTR _nSkill$[esp+24]
  000f7	81 f9 9e 00 00
	00		 cmp	 ecx, 158		; 0000009eH
  000fd	7c 16		 jl	 SHORT $L265952
  000ff	81 f9 9f 00 00
	00		 cmp	 ecx, 159		; 0000009fH
  00105	7f 0e		 jg	 SHORT $L265952

; 650  : 		{
; 651  : 			case SI_BIL_PST_BGVURTIALBOLD :
; 652  : 			case SI_BIL_PST_ASALRAALAIKUM :
; 653  : 				ChanceSkill( DST_CHR_CHANCESTUN,	m_pAttacker, m_pDefender );

  00107	8b 4e 0c	 mov	 ecx, DWORD PTR [esi+12]
  0010a	51		 push	 ecx
  0010b	50		 push	 eax
  0010c	6a 39		 push	 57			; 00000039H
  0010e	8b ce		 mov	 ecx, esi
  00110	e8 00 00 00 00	 call	 ?ChanceSkill@CAttackArbiter@@AAEXHPAVCCtrl@@0@Z ; CAttackArbiter::ChanceSkill
$L265952:

; 654  : 				break;
; 655  : 		}
; 656  : 	}
; 657  : 		
; 658  : 	if( m_dwAtkFlags & (AF_GENERIC | AF_MELEESKILL) )		// / .

  00115	f6 46 10 11	 test	 BYTE PTR [esi+16], 17	; 00000011H
  00119	0f 84 be 00 00
	00		 je	 $L265946

; 659  : 	{
; 660  : 		if( m_pAttacker->IsPlayer() )

  0011f	8b 46 08	 mov	 eax, DWORD PTR [esi+8]
  00122	8b 88 34 02 00
	00		 mov	 ecx, DWORD PTR [eax+564]
  00128	85 c9		 test	 ecx, ecx
  0012a	74 52		 je	 SHORT $L259905

; 661  : 		{
; 662  : 			ChanceSkill( DST_CHR_CHANCESTUN,	m_pAttacker, m_pDefender );

  0012c	8b 56 0c	 mov	 edx, DWORD PTR [esi+12]
  0012f	52		 push	 edx
  00130	50		 push	 eax
  00131	6a 39		 push	 57			; 00000039H
  00133	8b ce		 mov	 ecx, esi
  00135	e8 00 00 00 00	 call	 ?ChanceSkill@CAttackArbiter@@AAEXHPAVCCtrl@@0@Z ; CAttackArbiter::ChanceSkill

; 663  : 			ChanceSkill( DST_CHR_CHANCEPOISON,	m_pAttacker, m_pDefender );

  0013a	8b 46 0c	 mov	 eax, DWORD PTR [esi+12]
  0013d	8b 4e 08	 mov	 ecx, DWORD PTR [esi+8]
  00140	50		 push	 eax
  00141	51		 push	 ecx
  00142	6a 3c		 push	 60			; 0000003cH
  00144	8b ce		 mov	 ecx, esi
  00146	e8 00 00 00 00	 call	 ?ChanceSkill@CAttackArbiter@@AAEXHPAVCCtrl@@0@Z ; CAttackArbiter::ChanceSkill

; 664  : 			ChanceSkill( DST_CHR_CHANCEDARK,	m_pAttacker, m_pDefender );

  0014b	8b 56 0c	 mov	 edx, DWORD PTR [esi+12]
  0014e	8b 46 08	 mov	 eax, DWORD PTR [esi+8]
  00151	52		 push	 edx
  00152	50		 push	 eax
  00153	6a 3b		 push	 59			; 0000003bH
  00155	8b ce		 mov	 ecx, esi
  00157	e8 00 00 00 00	 call	 ?ChanceSkill@CAttackArbiter@@AAEXHPAVCCtrl@@0@Z ; CAttackArbiter::ChanceSkill

; 665  : 			ChanceSkill( DST_CHR_CHANCEBLEEDING, m_pAttacker, m_pDefender );

  0015c	8b 4e 0c	 mov	 ecx, DWORD PTR [esi+12]
  0015f	8b 56 08	 mov	 edx, DWORD PTR [esi+8]
  00162	51		 push	 ecx
  00163	52		 push	 edx
  00164	6a 46		 push	 70			; 00000046H
  00166	8b ce		 mov	 ecx, esi
  00168	e8 00 00 00 00	 call	 ?ChanceSkill@CAttackArbiter@@AAEXHPAVCCtrl@@0@Z ; CAttackArbiter::ChanceSkill

; 666  : 			ChanceSkill( DST_CHR_CHANCESTEALHP, m_pAttacker, m_pDefender );

  0016d	8b 46 0c	 mov	 eax, DWORD PTR [esi+12]
  00170	8b 4e 08	 mov	 ecx, DWORD PTR [esi+8]
  00173	50		 push	 eax
  00174	51		 push	 ecx
  00175	6a 45		 push	 69			; 00000045H
  00177	8b ce		 mov	 ecx, esi
  00179	e8 00 00 00 00	 call	 ?ChanceSkill@CAttackArbiter@@AAEXHPAVCCtrl@@0@Z ; CAttackArbiter::ChanceSkill
$L259905:

; 667  : 		}
; 668  : 		
; 669  : 		// Active Skill( )
; 670  : 		{
; 671  : 			ItemProp *pAttackerHandItemProp = m_pAttacker->GetActiveHandItemProp();

  0017e	8b 4e 08	 mov	 ecx, DWORD PTR [esi+8]
  00181	6a 0a		 push	 10			; 0000000aH
  00183	e8 00 00 00 00	 call	 ?GetActiveHandItemProp@CMover@@QAEPAUItemProp@@H@Z ; CMover::GetActiveHandItemProp
  00188	8b f8		 mov	 edi, eax

; 672  : 			if( pAttackerHandItemProp )

  0018a	85 ff		 test	 edi, edi
  0018c	74 4f		 je	 SHORT $L265946

; 673  : 			{
; 674  : 				DWORD dwActiveSkill	= pAttackerHandItemProp->dwActiveSkill;
; 675  : 				DWORD dwActiveSkillLevel = pAttackerHandItemProp->dwActiveSkillLv;

  0018e	8b af cc 00 00
	00		 mov	 ebp, DWORD PTR [edi+204]

; 676  : 				if( dwActiveSkillLevel == NULL_ID )

  00194	83 fd ff	 cmp	 ebp, -1
  00197	8b 9f a0 01 00
	00		 mov	 ebx, DWORD PTR [edi+416]
  0019d	75 05		 jne	 SHORT $L265949

; 677  : 					dwActiveSkillLevel = 1;

  0019f	bd 01 00 00 00	 mov	 ebp, 1
$L265949:

; 678  : 				if(  dwActiveSkill != NULL_ID )	//    .

  001a4	83 fb ff	 cmp	 ebx, -1
  001a7	74 30		 je	 SHORT $L265945

; 679  : 				{
; 680  : 					if( pAttackerHandItemProp->dwActiveSkillRate == NULL_ID ||		// =  100%
; 681  : 						(DWORD)( random(100) ) < pAttackerHandItemProp->dwActiveSkillRate )	//  .

  001a9	83 bf a4 01 00
	00 ff		 cmp	 DWORD PTR [edi+420], -1
  001b0	74 15		 je	 SHORT $L259914
  001b2	e8 00 00 00 00	 call	 _rand
  001b7	99		 cdq
  001b8	b9 64 00 00 00	 mov	 ecx, 100		; 00000064H
  001bd	f7 f9		 idiv	 ecx
  001bf	3b 97 a4 01 00
	00		 cmp	 edx, DWORD PTR [edi+420]
  001c5	73 12		 jae	 SHORT $L265945
$L259914:

; 682  : 					{
; 683  : 						m_pAttacker->DoActiveSkill( dwActiveSkill, dwActiveSkillLevel, m_pDefender, true );		// dwActiveSkill Lv1 . true .     .

  001c7	8b 56 0c	 mov	 edx, DWORD PTR [esi+12]
  001ca	8b 4e 08	 mov	 ecx, DWORD PTR [esi+8]
  001cd	6a 00		 push	 0
  001cf	6a 01		 push	 1
  001d1	52		 push	 edx
  001d2	55		 push	 ebp
  001d3	53		 push	 ebx
  001d4	e8 00 00 00 00	 call	 ?DoActiveSkill@CCtrl@@QAEXKHPAV1@_NH@Z ; CCtrl::DoActiveSkill
$L265945:
  001d9	8b 5c 24 20	 mov	 ebx, DWORD PTR _pInfo$[esp+20]
$L265946:

; 684  : 						TRACE( "%s ActiveSkill , ", m_pAttacker->GetName() );
; 685  : 					}
; 686  : 				}
; 687  : 			}
; 688  : 		}
; 689  : 	} // AF_GENERIC
; 690  : 
; 691  : 	if( m_dwAtkFlags & ( AF_MELEESKILL | AF_MAGICSKILL ) )	//  

  001dd	f6 46 10 30	 test	 BYTE PTR [esi+16], 48	; 00000030H
  001e1	0f 84 8e 00 00
	00		 je	 $L265947

; 692  : 	{
; 693  : 		ItemProp* pSkillProp;
; 694  : 		AddSkillProp *pAddSkillProp;
; 695  : 		m_pAttacker->GetSkillProp( &pSkillProp, &pAddSkillProp, nSkill, pInfo->GetSkillLevel(), "ProcessAbnormal" );

  001e7	8b 53 0c	 mov	 edx, DWORD PTR [ebx+12]
  001ea	8b 4e 08	 mov	 ecx, DWORD PTR [esi+8]
  001ed	8b 01		 mov	 eax, DWORD PTR [ecx]
  001ef	68 00 00 00 00	 push	 OFFSET FLAT:??_C@_0BA@GFPHKILF@ProcessAbnormal?$AA@
  001f4	81 e2 ff 00 00
	00		 and	 edx, 255		; 000000ffH
  001fa	52		 push	 edx
  001fb	8b 54 24 18	 mov	 edx, DWORD PTR _nSkill$[esp+32]
  001ff	52		 push	 edx
  00200	8d 54 24 2c	 lea	 edx, DWORD PTR _pAddSkillProp$259919[esp+32]
  00204	52		 push	 edx
  00205	8d 54 24 2c	 lea	 edx, DWORD PTR _pSkillProp$259918[esp+36]
  00209	52		 push	 edx
  0020a	ff 50 30	 call	 DWORD PTR [eax+48]

; 696  : 		DWORD dwActiveSkill = pAddSkillProp->dwActiveSkill;

  0020d	8b 4c 24 20	 mov	 ecx, DWORD PTR _pAddSkillProp$259919[esp+20]
  00211	8b 59 48	 mov	 ebx, DWORD PTR [ecx+72]

; 697  : 		if( dwActiveSkill != NULL_ID )		//    .

  00214	83 fb ff	 cmp	 ebx, -1
  00217	74 5c		 je	 SHORT $L265947

; 698  : 		{
; 699  : 			DWORD dwActiveSkillRate	= pAddSkillProp->dwActiveSkillRate;
; 700  : #if __VER >= 9	// __SKILL_0706
; 701  : 			if( m_pAttacker->IsPlayer() && m_pDefender->IsPlayer() )

  00219	8b 46 08	 mov	 eax, DWORD PTR [esi+8]
  0021c	8b 90 34 02 00
	00		 mov	 edx, DWORD PTR [eax+564]
  00222	85 d2		 test	 edx, edx
  00224	8b 79 4c	 mov	 edi, DWORD PTR [ecx+76]
  00227	74 10		 je	 SHORT $L259924
  00229	8b 56 0c	 mov	 edx, DWORD PTR [esi+12]
  0022c	8b 82 34 02 00
	00		 mov	 eax, DWORD PTR [edx+564]
  00232	85 c0		 test	 eax, eax
  00234	74 03		 je	 SHORT $L259924

; 702  : 				dwActiveSkillRate	= pAddSkillProp->dwActiveSkillRatePVP;

  00236	8b 79 50	 mov	 edi, DWORD PTR [ecx+80]
$L259924:

; 703  : #endif	// __SKILL_0706
; 704  : 			//  .
; 705  : 			if( dwActiveSkillRate == NULL_ID || xRandom(100) < dwActiveSkillRate )

  00239	83 ff ff	 cmp	 edi, -1
  0023c	74 22		 je	 SHORT $L259926
  0023e	a1 00 00 00 00	 mov	 eax, DWORD PTR ?g_next@@3KA ; g_next
  00243	69 c0 6d 4e c6
	41		 imul	 eax, 1103515245		; 41c64e6dH
  00249	05 39 30 00 00	 add	 eax, 12345		; 00003039H
  0024e	33 d2		 xor	 edx, edx
  00250	bd 64 00 00 00	 mov	 ebp, 100		; 00000064H
  00255	a3 00 00 00 00	 mov	 DWORD PTR ?g_next@@3KA, eax ; g_next
  0025a	f7 f5		 div	 ebp
  0025c	3b d7		 cmp	 edx, edi
  0025e	73 15		 jae	 SHORT $L265947
$L259926:

; 706  : 				m_pAttacker->DoActiveSkill( dwActiveSkill, pAddSkillProp->dwSkillLvl, m_pDefender );	// 

  00260	8b 46 0c	 mov	 eax, DWORD PTR [esi+12]
  00263	8b 49 08	 mov	 ecx, DWORD PTR [ecx+8]
  00266	6a 00		 push	 0
  00268	6a 00		 push	 0
  0026a	50		 push	 eax
  0026b	51		 push	 ecx
  0026c	8b 4e 08	 mov	 ecx, DWORD PTR [esi+8]
  0026f	53		 push	 ebx
  00270	e8 00 00 00 00	 call	 ?DoActiveSkill@CCtrl@@QAEXKHPAV1@_NH@Z ; CCtrl::DoActiveSkill
$L265947:

; 707  : 		}
; 708  : 	}
; 709  : #ifdef __BARUNA_PIERCING
; 710  : 	if( m_dwAtkFlags &( AF_GENERIC | AF_MELEESKILL | AF_MAGICSKILL ))

  00275	f6 46 10 31	 test	 BYTE PTR [esi+16], 49	; 00000031H
  00279	0f 84 f0 00 00
	00		 je	 $L265938

; 711  : 	{
; 712  : 		if (m_pDefender->IsPlayer() || !m_pAttacker->IsPlayer())

  0027f	8b 56 0c	 mov	 edx, DWORD PTR [esi+12]
  00282	8b 82 34 02 00
	00		 mov	 eax, DWORD PTR [edx+564]
  00288	85 c0		 test	 eax, eax
  0028a	0f 85 df 00 00
	00		 jne	 $L265938
  00290	8b 4e 08	 mov	 ecx, DWORD PTR [esi+8]
  00293	8b 81 34 02 00
	00		 mov	 eax, DWORD PTR [ecx+564]
  00299	85 c0		 test	 eax, eax
  0029b	0f 84 ce 00 00
	00		 je	 $L265938

; 713  : 			return;
; 714  : 
; 715  : 		CItemElem *pItemElem = m_pAttacker->GetWeaponItem();

  002a1	6a 0a		 push	 10			; 0000000aH
  002a3	e8 00 00 00 00	 call	 ?GetWeaponItem@CMover@@QAEPAVCItemElem@@H@Z ; CMover::GetWeaponItem
  002a8	8b f8		 mov	 edi, eax

; 716  : 		if( !pItemElem )

  002aa	85 ff		 test	 edi, edi
  002ac	0f 84 bd 00 00
	00		 je	 $L265938

; 717  : 			return;
; 718  : 		ItemProp *pProp = pItemElem->GetProp();

  002b2	8b cf		 mov	 ecx, edi
  002b4	e8 00 00 00 00	 call	 ?GetPropA@CItemElem@@QAEPAUItemProp@@XZ ; CItemElem::GetPropA

; 719  : 		if ( !pProp )

  002b9	85 c0		 test	 eax, eax
  002bb	0f 84 ae 00 00
	00		 je	 $L265938

; 720  : 			return;
; 721  : 
; 722  : 		if( !pProp->IsBaruna() )

  002c1	8b c8		 mov	 ecx, eax
  002c3	e8 00 00 00 00	 call	 ?IsBaruna@ItemProp@@QAEHXZ ; ItemProp::IsBaruna
  002c8	85 c0		 test	 eax, eax
  002ca	0f 84 9f 00 00
	00		 je	 $L265938

; 723  : 			return;
; 724  : 
; 725  : 		for( int i = 0; i < pItemElem->GetPiercingSize(); i++ )

  002d0	8d 6f 3c	 lea	 ebp, DWORD PTR [edi+60]
  002d3	8b cd		 mov	 ecx, ebp
  002d5	33 db		 xor	 ebx, ebx
  002d7	e8 00 00 00 00	 call	 ?GetPiercingSize@CPiercing@@QAEHXZ ; CPiercing::GetPiercingSize
  002dc	85 c0		 test	 eax, eax
  002de	0f 8e 8b 00 00
	00		 jle	 $L265938
$L259939:

; 726  : 		{
; 727  : 			if( pItemElem->GetPiercingItem( i ) != 0 )

  002e4	53		 push	 ebx
  002e5	8b cd		 mov	 ecx, ebp
  002e7	e8 00 00 00 00	 call	 ?GetPiercingItem@CPiercing@@QAEKH@Z ; CPiercing::GetPiercingItem
  002ec	85 c0		 test	 eax, eax
  002ee	74 6f		 je	 SHORT $L259940

; 728  : 			{
; 729  : 				DWORD dwRuneId = pItemElem->GetPiercingItem(i);				 

  002f0	53		 push	 ebx
  002f1	8b cd		 mov	 ecx, ebp
  002f3	e8 00 00 00 00	 call	 ?GetPiercingItem@CPiercing@@QAEKH@Z ; CPiercing::GetPiercingItem

; 730  : 				ItemProp *pRuneProp = prj.GetItemProp( dwRuneId );

  002f8	50		 push	 eax
  002f9	b9 00 00 00 00	 mov	 ecx, OFFSET FLAT:?prj@@3VCProject@@A
  002fe	e8 00 00 00 00	 call	 ?GetItemProp@CProject@@QAEPAUItemProp@@H@Z ; CProject::GetItemProp
  00303	8b f8		 mov	 edi, eax

; 731  : 				if( !pRuneProp )

  00305	85 ff		 test	 edi, edi
  00307	74 66		 je	 SHORT $L265938

; 732  : 					return;
; 733  : 				if( (int)( xRandom( 10000 ) ) < pRuneProp->dwHitActiveSkillProb )

  00309	68 10 27 00 00	 push	 10000			; 00002710H
  0030e	e8 00 00 00 00	 call	 ?xRandom@@YAKK@Z	; xRandom
  00313	8b 8f f0 02 00
	00		 mov	 ecx, DWORD PTR [edi+752]
  00319	83 c4 04	 add	 esp, 4
  0031c	3b c1		 cmp	 eax, ecx
  0031e	73 3f		 jae	 SHORT $L259940

; 734  : 				{
; 735  : 					if( pRuneProp->dwHitActiveSkillTarget == IST_ANOTHER )

  00320	8b 87 f4 02 00
	00		 mov	 eax, DWORD PTR [edi+756]
  00326	83 f8 02	 cmp	 eax, 2
  00329	75 14		 jne	 SHORT $L259948

; 736  : 						m_pAttacker->DoActiveSkill( pRuneProp->dwHitActiveSkillId, pRuneProp->dwHitActiveSkillLv, m_pDefender );

  0032b	8b 46 0c	 mov	 eax, DWORD PTR [esi+12]
  0032e	8b 8f ec 02 00
	00		 mov	 ecx, DWORD PTR [edi+748]
  00334	6a 00		 push	 0
  00336	6a 00		 push	 0
  00338	50		 push	 eax
  00339	51		 push	 ecx
  0033a	8b 4e 08	 mov	 ecx, DWORD PTR [esi+8]

; 737  : 					else

  0033d	eb 14		 jmp	 SHORT $L265953
$L259948:

; 738  : 					if( pRuneProp->dwHitActiveSkillTarget == IST_SELF )

  0033f	83 f8 01	 cmp	 eax, 1
  00342	75 1b		 jne	 SHORT $L259940

; 739  : 						m_pAttacker->DoActiveSkill( pRuneProp->dwHitActiveSkillId, pRuneProp->dwHitActiveSkillLv, m_pAttacker );

  00344	8b 4e 08	 mov	 ecx, DWORD PTR [esi+8]
  00347	8b 87 ec 02 00
	00		 mov	 eax, DWORD PTR [edi+748]
  0034d	6a 00		 push	 0
  0034f	6a 00		 push	 0
  00351	51		 push	 ecx
  00352	50		 push	 eax
$L265953:
  00353	8b 97 e8 02 00
	00		 mov	 edx, DWORD PTR [edi+744]
  00359	52		 push	 edx
  0035a	e8 00 00 00 00	 call	 ?DoActiveSkill@CCtrl@@QAEXKHPAV1@_NH@Z ; CCtrl::DoActiveSkill
$L259940:
  0035f	8b cd		 mov	 ecx, ebp
  00361	43		 inc	 ebx
  00362	e8 00 00 00 00	 call	 ?GetPiercingSize@CPiercing@@QAEHXZ ; CPiercing::GetPiercingSize
  00367	3b d8		 cmp	 ebx, eax
  00369	0f 8c 75 ff ff
	ff		 jl	 $L259939
$L265938:
  0036f	5f		 pop	 edi
  00370	5e		 pop	 esi
  00371	5d		 pop	 ebp
  00372	5b		 pop	 ebx

; 740  : 				}
; 741  : 			}
; 742  : 		}
; 743  : 	}
; 744  : #endif // __BARUNA_PIERCING
; 745  : }

  00373	83 c4 08	 add	 esp, 8
  00376	c2 08 00	 ret	 8
?ProcessAbnormal@CAttackArbiter@@AAEXHPAUATTACK_INFO@@@Z ENDP ; CAttackArbiter::ProcessAbnormal
_TEXT	ENDS
PUBLIC	?OnDiedPVP@CAttackArbiter@@AAEXXZ		; CAttackArbiter::OnDiedPVP
EXTRN	?DoPVPEnd@CMover@@QAEXPAVCCtrl@@_NK@Z:NEAR	; CMover::DoPVPEnd
EXTRN	?ClearDuel@CMover@@QAEXXZ:NEAR			; CMover::ClearDuel
EXTRN	?AddDuelStart@CUser@@QAEXKH@Z:NEAR		; CUser::AddDuelStart
EXTRN	?Delete@CObj@@QAEXXZ:NEAR			; CObj::Delete
EXTRN	?AddSetDuel@CUser@@QAEXPAVCMover@@@Z:NEAR	; CUser::AddSetDuel
EXTRN	?SubDuel@CMover@@QAEHPAV1@@Z:NEAR		; CMover::SubDuel
EXTRN	?AddKillRecovery@CMover@@QAEXXZ:NEAR		; CMover::AddKillRecovery
; Function compile flags: /Ogty
;	COMDAT ?OnDiedPVP@CAttackArbiter@@AAEXXZ
_TEXT	SEGMENT
?OnDiedPVP@CAttackArbiter@@AAEXXZ PROC NEAR		; CAttackArbiter::OnDiedPVP, COMDAT
; _this$ = ecx

; 898  : {

  00000	56		 push	 esi
  00001	8b f1		 mov	 esi, ecx

; 899  : 	if( m_pDefender->IsNPC() && m_pDefender->IsDie() )	 

  00003	8b 4e 0c	 mov	 ecx, DWORD PTR [esi+12]
  00006	8b 81 34 02 00
	00		 mov	 eax, DWORD PTR [ecx+564]
  0000c	57		 push	 edi
  0000d	33 ff		 xor	 edi, edi
  0000f	3b c7		 cmp	 eax, edi
  00011	75 1e		 jne	 SHORT $L259996
  00013	8b 81 3c 02 00
	00		 mov	 eax, DWORD PTR [ecx+572]
  00019	f7 40 04 00 00
	00 08		 test	 DWORD PTR [eax+4], 134217728 ; 08000000H
  00020	75 08		 jne	 SHORT $L265968
  00022	39 b9 00 06 00
	00		 cmp	 DWORD PTR [ecx+1536], edi
  00028	75 07		 jne	 SHORT $L259996
$L265968:
  0002a	5f		 pop	 edi
  0002b	5e		 pop	 esi

; 900  : 	{
; 901  : 		m_pDefender->Delete();							//  ...   .

  0002c	e9 00 00 00 00	 jmp	 ?Delete@CObj@@QAEXXZ	; CObj::Delete
$L259996:

; 902  : 		return;
; 903  : 	}
; 904  : 
; 905  : 	m_pDefender->SubDuel( m_pAttacker );// 

  00031	8b 56 08	 mov	 edx, DWORD PTR [esi+8]
  00034	52		 push	 edx
  00035	e8 00 00 00 00	 call	 ?SubDuel@CMover@@QAEHPAV1@@Z ; CMover::SubDuel

; 906  : 	
; 907  : 	m_pDefender->SetPosChanged( TRUE );

  0003a	8b 46 0c	 mov	 eax, DWORD PTR [esi+12]
  0003d	8b 50 04	 mov	 edx, DWORD PTR [eax+4]
  00040	b9 10 00 00 00	 mov	 ecx, 16			; 00000010H
  00045	0b d1		 or	 edx, ecx
  00047	89 50 04	 mov	 DWORD PTR [eax+4], edx

; 908  : 	m_pAttacker->SetPosChanged( TRUE );

  0004a	8b 46 08	 mov	 eax, DWORD PTR [esi+8]
  0004d	09 48 04	 or	 DWORD PTR [eax+4], ecx

; 909  : 
; 910  : 	m_pAttacker->ClearDuel();

  00050	8b 4e 08	 mov	 ecx, DWORD PTR [esi+8]
  00053	e8 00 00 00 00	 call	 ?ClearDuel@CMover@@QAEXXZ ; CMover::ClearDuel

; 911  : 	( (CUser*)m_pAttacker )->AddSetDuel( m_pAttacker );

  00058	8b 4e 08	 mov	 ecx, DWORD PTR [esi+8]
  0005b	51		 push	 ecx
  0005c	e8 00 00 00 00	 call	 ?AddSetDuel@CUser@@QAEXPAVCMover@@@Z ; CUser::AddSetDuel

; 912  : 	m_pDefender->ClearDuel();

  00061	8b 4e 0c	 mov	 ecx, DWORD PTR [esi+12]
  00064	e8 00 00 00 00	 call	 ?ClearDuel@CMover@@QAEXXZ ; CMover::ClearDuel

; 913  : 	( (CUser*)m_pDefender )->AddSetDuel( m_pDefender );

  00069	8b 4e 0c	 mov	 ecx, DWORD PTR [esi+12]
  0006c	51		 push	 ecx
  0006d	e8 00 00 00 00	 call	 ?AddSetDuel@CUser@@QAEXPAVCMover@@@Z ; CUser::AddSetDuel

; 914  : 
; 915  : 	m_pDefender->AddKillRecovery();

  00072	8b 4e 0c	 mov	 ecx, DWORD PTR [esi+12]
  00075	e8 00 00 00 00	 call	 ?AddKillRecovery@CMover@@QAEXXZ ; CMover::AddKillRecovery

; 916  : 	m_pAttacker->AddKillRecovery();

  0007a	8b 4e 08	 mov	 ecx, DWORD PTR [esi+8]
  0007d	e8 00 00 00 00	 call	 ?AddKillRecovery@CMover@@QAEXXZ ; CMover::AddKillRecovery

; 917  : 
; 918  : 	m_pAttacker->m_nAtkCnt = 0;							//    

  00082	8b 46 08	 mov	 eax, DWORD PTR [esi+8]
  00085	89 b8 b0 06 00
	00		 mov	 DWORD PTR [eax+1712], edi

; 919  : 	m_pDefender->m_nAtkCnt = 0;							//    

  0008b	8b 4e 0c	 mov	 ecx, DWORD PTR [esi+12]
  0008e	89 b9 b0 06 00
	00		 mov	 DWORD PTR [ecx+1712], edi

; 920  : 
; 921  : 	m_pDefender->DoPVPEnd( m_pAttacker, false ,m_dwMsg );			//

  00094	8b 56 04	 mov	 edx, DWORD PTR [esi+4]
  00097	8b 46 08	 mov	 eax, DWORD PTR [esi+8]
  0009a	8b 4e 0c	 mov	 ecx, DWORD PTR [esi+12]
  0009d	52		 push	 edx
  0009e	57		 push	 edi
  0009f	50		 push	 eax
  000a0	e8 00 00 00 00	 call	 ?DoPVPEnd@CMover@@QAEXPAVCCtrl@@_NK@Z ; CMover::DoPVPEnd

; 922  : 
; 923  : 	( (CUser*)m_pAttacker )->AddDuelStart( m_pDefender->m_idPlayer , 3 );	//      . 3:, 4 : 

  000a5	8b 4e 0c	 mov	 ecx, DWORD PTR [esi+12]
  000a8	8b 91 38 02 00
	00		 mov	 edx, DWORD PTR [ecx+568]
  000ae	8b 4e 08	 mov	 ecx, DWORD PTR [esi+8]
  000b1	6a 03		 push	 3
  000b3	52		 push	 edx
  000b4	e8 00 00 00 00	 call	 ?AddDuelStart@CUser@@QAEXKH@Z ; CUser::AddDuelStart

; 924  : 	( (CUser*)m_pDefender )->AddDuelStart( m_pAttacker->m_idPlayer , 4 );

  000b9	8b 46 08	 mov	 eax, DWORD PTR [esi+8]
  000bc	8b 88 38 02 00
	00		 mov	 ecx, DWORD PTR [eax+568]
  000c2	6a 04		 push	 4
  000c4	51		 push	 ecx
  000c5	8b 4e 0c	 mov	 ecx, DWORD PTR [esi+12]
  000c8	e8 00 00 00 00	 call	 ?AddDuelStart@CUser@@QAEXKH@Z ; CUser::AddDuelStart

; 925  : 
; 926  : 
; 927  : 	m_pAttacker->ClearDestObj();						//  .

  000cd	8b 46 08	 mov	 eax, DWORD PTR [esi+8]
  000d0	83 c9 ff	 or	 ecx, -1
  000d3	89 b8 58 02 00
	00		 mov	 DWORD PTR [eax+600], edi
  000d9	89 88 5c 02 00
	00		 mov	 DWORD PTR [eax+604], ecx

; 928  : 	m_pDefender->ClearDestObj();						//  .

  000df	8b 76 0c	 mov	 esi, DWORD PTR [esi+12]
  000e2	89 be 58 02 00
	00		 mov	 DWORD PTR [esi+600], edi
  000e8	5f		 pop	 edi
  000e9	89 8e 5c 02 00
	00		 mov	 DWORD PTR [esi+604], ecx
  000ef	5e		 pop	 esi

; 929  : }

  000f0	c3		 ret	 0
?OnDiedPVP@CAttackArbiter@@AAEXXZ ENDP			; CAttackArbiter::OnDiedPVP
_TEXT	ENDS
PUBLIC	?OnDiedSchoolEvent@CAttackArbiter@@AAEXXZ	; CAttackArbiter::OnDiedSchoolEvent
EXTRN	?GetGuild@CMover@@QAEPAVCGuild@@XZ:NEAR		; CMover::GetGuild
EXTRN	?AddObj@CWorld@@QAEHPAVCObj@@HH@Z:NEAR		; CWorld::AddObj
EXTRN	??2@YAPAXI@Z:NEAR				; operator new
EXTRN	?AddModifyMode@CUserMng@@QAEXPAVCUser@@@Z:NEAR	; CUserMng::AddModifyMode
EXTRN	?SetPos@CObj@@QAEXABUD3DXVECTOR3@@@Z:NEAR	; CObj::SetPos
EXTRN	?SetAngle@CObj@@QAEXM@Z:NEAR			; CObj::SetAngle
EXTRN	??0CItem@@QAE@XZ:NEAR				; CItem::CItem
EXTRN	?SetSerialNumber@CItemBase@@QAEXXZ:NEAR		; CItemBase::SetSerialNumber
EXTRN	??0CItemElem@@QAE@XZ:NEAR			; CItemElem::CItemElem
EXTRN	__except_list:DWORD
EXTRN	___CxxFrameHandler:NEAR
;	COMDAT xdata$x
; File c:\documents and settings\test\mes documents\source\virtuos_v17\build\program\_common\obj.h
xdata$x	SEGMENT
$T266132 DD	0ffffffffH
	DD	FLAT:$L266021
	DD	0ffffffffH
	DD	FLAT:$L266022
$T266122 DD	019930520H
	DD	02H
	DD	FLAT:$T266132
	DD	2 DUP(00H)
	DD	2 DUP(00H)
xdata$x	ENDS
;	COMDAT ?eventitem@?N@??OnDiedSchoolEvent@CAttackArbiter@@AAEXXZ@4PAUtagEVENTITEM@@A
_DATA	SEGMENT
?eventitem@?N@??OnDiedSchoolEvent@CAttackArbiter@@AAEXXZ@4PAUtagEVENTITEM@@A DD 0af5H ; `CAttackArbiter::OnDiedSchoolEvent'::`13'::eventitem
	DD	0cH
	DD	09ebH
	DD	07H
	DD	09f8H
	DD	07H
; Function compile flags: /Ogty
; File c:\documents and settings\test\mes documents\source\virtuos_v17\build\program\worldserver\attackarbiter.cpp
_DATA	ENDS
;	COMDAT ?OnDiedSchoolEvent@CAttackArbiter@@AAEXXZ
_TEXT	SEGMENT
tv439 = -28						; size = 4
$T266029 = -28						; size = 4
$T266017 = -28						; size = 4
$T266013 = -28						; size = 4
$T266020 = -24						; size = 12
__$EHRec$ = -12						; size = 12
?OnDiedSchoolEvent@CAttackArbiter@@AAEXXZ PROC NEAR	; CAttackArbiter::OnDiedSchoolEvent, COMDAT
; _this$ = ecx

; 935  : {

  00000	64 a1 00 00 00
	00		 mov	 eax, DWORD PTR fs:__except_list
  00006	6a ff		 push	 -1
  00008	68 00 00 00 00	 push	 __ehhandler$?OnDiedSchoolEvent@CAttackArbiter@@AAEXXZ
  0000d	50		 push	 eax
  0000e	64 89 25 00 00
	00 00		 mov	 DWORD PTR fs:__except_list, esp
  00015	83 ec 10	 sub	 esp, 16			; 00000010H
  00018	55		 push	 ebp
  00019	8b e9		 mov	 ebp, ecx

; 936  : 	if( g_eLocal.GetState( EVE_SCHOOL_BATTLE ) == SBS_START2 )	// '/sbstart2' 

  0001b	6a 05		 push	 5
  0001d	b9 00 00 00 00	 mov	 ecx, OFFSET FLAT:?g_eLocal@@3VCFlyffEvent@@A
  00022	e8 00 00 00 00	 call	 ?GetState@CFlyffEvent@@QAEEH@Z ; CFlyffEvent::GetState
  00027	3c 03		 cmp	 al, 3
  00029	0f 85 aa 01 00
	00		 jne	 $L260017

; 937  : 	{
; 938  : 		if( m_pDefender->m_dwAuthorization < AUTH_GAMEMASTER )

  0002f	8b 4d 0c	 mov	 ecx, DWORD PTR [ebp+12]
  00032	83 b9 48 06 00
	00 4c		 cmp	 DWORD PTR [ecx+1608], 76 ; 0000004cH
  00039	73 42		 jae	 SHORT $L266126

; 939  : 		{
; 940  : 			if( !m_pDefender->IsMode( OBSERVE_MODE ) )

  0003b	8b 81 44 02 00
	00		 mov	 eax, DWORD PTR [ecx+580]
  00041	25 c0 00 00 00	 and	 eax, 192		; 000000c0H
  00046	2c c0		 sub	 al, 192			; 000000c0H
  00048	f6 d8		 neg	 al
  0004a	1b c0		 sbb	 eax, eax
  0004c	40		 inc	 eax
  0004d	89 44 24 04	 mov	 DWORD PTR $T266029[esp+32], eax
  00051	75 0f		 jne	 SHORT $L266125

; 941  : 			{
; 942  : 				CGuild* pGuild	= m_pDefender->GetGuild();

  00053	e8 00 00 00 00	 call	 ?GetGuild@CMover@@QAEPAVCGuild@@XZ ; CMover::GetGuild

; 943  : 				if( pGuild )

  00058	85 c0		 test	 eax, eax
  0005a	74 06		 je	 SHORT $L266125

; 944  : 					pGuild->m_nDead++;	

  0005c	ff 80 40 01 00
	00		 inc	 DWORD PTR [eax+320]
$L266125:

; 945  : 			}
; 946  : 			m_pDefender->SetMode( OBSERVE_MODE );

  00062	8b 45 0c	 mov	 eax, DWORD PTR [ebp+12]
  00065	81 88 44 02 00
	00 c0 00 00 00	 or	 DWORD PTR [eax+580], 192 ; 000000c0H

; 947  : 			g_UserMng.AddModifyMode( (CUser*)m_pDefender );

  0006f	8b 4d 0c	 mov	 ecx, DWORD PTR [ebp+12]
  00072	51		 push	 ecx
  00073	b9 00 00 00 00	 mov	 ecx, OFFSET FLAT:?g_UserMng@@3VCUserMng@@A
  00078	e8 00 00 00 00	 call	 ?AddModifyMode@CUserMng@@QAEXPAVCUser@@@Z ; CUserMng::AddModifyMode
$L266126:
  0007d	53		 push	 ebx
  0007e	56		 push	 esi
  0007f	57		 push	 edi

; 948  : 		}
; 949  : 
; 950  : 		static EVENTITEM eventitem[3] =
; 951  : 		{
; 952  : 			II_GEN_FOO_INS_HOTDOG,		12,
; 953  : 			II_GEN_REF_REF_TENTH,		7,
; 954  : 			II_GEN_POT_DRI_VITAL900,	7,
; 955  : 		};
; 956  : 
; 957  : 		for( int i = 0; i < 3; i++ )

  00080	bb 04 00 00 00	 mov	 ebx, OFFSET FLAT:?eventitem@?N@??OnDiedSchoolEvent@CAttackArbiter@@AAEXXZ@4PAUtagEVENTITEM@@A+4
$L266127:

; 958  : 		{
; 959  : 			CItemElem* pItemElem		= new CItemElem;

  00085	68 b8 00 00 00	 push	 184			; 000000b8H
  0008a	e8 00 00 00 00	 call	 ??2@YAPAXI@Z		; operator new
  0008f	83 c4 04	 add	 esp, 4
  00092	89 44 24 10	 mov	 DWORD PTR $T266013[esp+44], eax
  00096	33 f6		 xor	 esi, esi
  00098	3b c6		 cmp	 eax, esi
  0009a	89 74 24 28	 mov	 DWORD PTR __$EHRec$[esp+52], esi
  0009e	74 0b		 je	 SHORT $L266014
  000a0	8b c8		 mov	 ecx, eax
  000a2	e8 00 00 00 00	 call	 ??0CItemElem@@QAE@XZ	; CItemElem::CItemElem
  000a7	8b f8		 mov	 edi, eax
  000a9	eb 02		 jmp	 SHORT $L266015
$L266014:
  000ab	33 ff		 xor	 edi, edi
$L266015:

; 960  : 			pItemElem->m_dwItemId		= eventitem[i].dwIndex;

  000ad	8b 53 fc	 mov	 edx, DWORD PTR [ebx-4]
  000b0	89 57 0c	 mov	 DWORD PTR [edi+12], edx

; 961  : 			pItemElem->m_nItemNum		= (short)( eventitem[i].dwPrabability );

  000b3	66 8b 03	 mov	 ax, WORD PTR [ebx]
  000b6	66 89 87 80 00
	00 00		 mov	 WORD PTR [edi+128], ax

; 962  : 			pItemElem->m_nHitPoint		= pItemElem->GetProp()->dwEndurance;

  000bd	8b 0d 5c 02 00
	00		 mov	 ecx, DWORD PTR ?prj@@3VCProject@@A+604
  000c3	8b c2		 mov	 eax, edx
  000c5	3b c6		 cmp	 eax, esi
  000c7	c7 44 24 28 ff
	ff ff ff	 mov	 DWORD PTR __$EHRec$[esp+52], -1
  000cf	7c 11		 jl	 SHORT $L266085
  000d1	3b c1		 cmp	 eax, ecx
  000d3	7d 0d		 jge	 SHORT $L266085
  000d5	73 20		 jae	 SHORT $L266131
  000d7	8b 0d 4c 02 00
	00		 mov	 ecx, DWORD PTR ?prj@@3VCProject@@A+588
  000dd	8b 04 81	 mov	 eax, DWORD PTR [ecx+eax*4]
  000e0	eb 17		 jmp	 SHORT $L266080
$L266085:
  000e2	50		 push	 eax
  000e3	51		 push	 ecx
  000e4	56		 push	 esi
  000e5	68 00 00 00 00	 push	 OFFSET FLAT:??_C@_0BI@BEIFNGEL@GetItemProp?5range_error?$AA@
  000ea	68 00 00 00 00	 push	 OFFSET FLAT:??_C@_0BM@HMFGHCP@?$CFs?5min?3?$CFd?0?5max?3?$CFd?0?5index?3?$CFd?$AA@
  000ef	e8 00 00 00 00	 call	 ?Error@@YAPBDPBDZZ	; Error
  000f4	83 c4 14	 add	 esp, 20			; 00000014H
$L266131:
  000f7	33 c0		 xor	 eax, eax
$L266080:
  000f9	8b 90 90 00 00
	00		 mov	 edx, DWORD PTR [eax+144]

; 963  : 			pItemElem->SetSerialNumber();

  000ff	8b cf		 mov	 ecx, edi
  00101	89 57 7c	 mov	 DWORD PTR [edi+124], edx
  00104	e8 00 00 00 00	 call	 ?SetSerialNumber@CItemBase@@QAEXXZ ; CItemBase::SetSerialNumber

; 964  : 
; 965  : 			CItem* pItem		= new CItem;

  00109	68 4c 02 00 00	 push	 588			; 0000024cH
  0010e	e8 00 00 00 00	 call	 ??2@YAPAXI@Z		; operator new
  00113	83 c4 04	 add	 esp, 4
  00116	89 44 24 10	 mov	 DWORD PTR $T266017[esp+44], eax
  0011a	3b c6		 cmp	 eax, esi
  0011c	c7 44 24 28 01
	00 00 00	 mov	 DWORD PTR __$EHRec$[esp+52], 1
  00124	74 09		 je	 SHORT $L266019
  00126	8b c8		 mov	 ecx, eax
  00128	e8 00 00 00 00	 call	 ??0CItem@@QAE@XZ	; CItem::CItem
  0012d	8b f0		 mov	 esi, eax
$L266019:

; 966  : 			pItem->m_pItemBase	= pItemElem;
; 967  : 			pItem->SetIndex( D3DDEVICE, pItemElem->m_dwItemId );

  0012f	8b 06		 mov	 eax, DWORD PTR [esi]
  00131	89 be 34 02 00
	00		 mov	 DWORD PTR [esi+564], edi
  00137	8b 4f 0c	 mov	 ecx, DWORD PTR [edi+12]
  0013a	6a 00		 push	 0
  0013c	51		 push	 ecx
  0013d	6a 00		 push	 0
  0013f	8b ce		 mov	 ecx, esi
  00141	c7 44 24 34 ff
	ff ff ff	 mov	 DWORD PTR __$EHRec$[esp+64], -1
  00149	ff 50 2c	 call	 DWORD PTR [eax+44]

; 968  : 			pItem->SetPos( m_pDefender->GetPos() );

  0014c	8b 45 0c	 mov	 eax, DWORD PTR [ebp+12]
  0014f	05 60 01 00 00	 add	 eax, 352		; 00000160H
  00154	8b 10		 mov	 edx, DWORD PTR [eax]
  00156	89 54 24 14	 mov	 DWORD PTR $T266020[esp+44], edx
  0015a	8b 48 04	 mov	 ecx, DWORD PTR [eax+4]
  0015d	89 4c 24 18	 mov	 DWORD PTR $T266020[esp+48], ecx
  00161	8b 50 08	 mov	 edx, DWORD PTR [eax+8]
  00164	8d 44 24 14	 lea	 eax, DWORD PTR $T266020[esp+44]
  00168	50		 push	 eax
  00169	8b ce		 mov	 ecx, esi
  0016b	89 54 24 20	 mov	 DWORD PTR $T266020[esp+56], edx
  0016f	e8 00 00 00 00	 call	 ?SetPos@CObj@@QAEXABUD3DXVECTOR3@@@Z ; CObj::SetPos

; 969  : 			pItem->SetAngle( (float)( xRandom( 360 ) ) );

  00174	a1 00 00 00 00	 mov	 eax, DWORD PTR ?g_next@@3KA ; g_next
  00179	69 c0 6d 4e c6
	41		 imul	 eax, 1103515245		; 41c64e6dH
  0017f	05 39 30 00 00	 add	 eax, 12345		; 00003039H
  00184	33 d2		 xor	 edx, edx
  00186	b9 68 01 00 00	 mov	 ecx, 360		; 00000168H
  0018b	a3 00 00 00 00	 mov	 DWORD PTR ?g_next@@3KA, eax ; g_next
  00190	f7 f1		 div	 ecx
  00192	85 d2		 test	 edx, edx
  00194	89 54 24 10	 mov	 DWORD PTR tv439[esp+44], edx
  00198	db 44 24 10	 fild	 DWORD PTR tv439[esp+44]
  0019c	7d 06		 jge	 SHORT $L266130
  0019e	d8 05 00 00 00
	00		 fadd	 DWORD PTR __real@4f800000
$L266130:
  001a4	51		 push	 ecx
  001a5	8b ce		 mov	 ecx, esi
  001a7	d9 1c 24	 fstp	 DWORD PTR [esp]
  001aa	e8 00 00 00 00	 call	 ?SetAngle@CObj@@QAEXM@Z	; CObj::SetAngle

; 970  : 			m_pDefender->GetWorld()->ADDOBJ( pItem, TRUE, m_pDefender->GetLayer() );

  001af	8b 45 0c	 mov	 eax, DWORD PTR [ebp+12]
  001b2	8b 90 b8 01 00
	00		 mov	 edx, DWORD PTR [eax+440]
  001b8	8b 88 6c 01 00
	00		 mov	 ecx, DWORD PTR [eax+364]
  001be	52		 push	 edx
  001bf	6a 01		 push	 1
  001c1	56		 push	 esi
  001c2	e8 00 00 00 00	 call	 ?AddObj@CWorld@@QAEHPAVCObj@@HH@Z ; CWorld::AddObj
  001c7	83 c3 08	 add	 ebx, 8
  001ca	81 fb 1c 00 00
	00		 cmp	 ebx, OFFSET FLAT:?eventitem@?N@??OnDiedSchoolEvent@CAttackArbiter@@AAEXXZ@4PAUtagEVENTITEM@@A+28
  001d0	0f 8c af fe ff
	ff		 jl	 $L266127
  001d6	5f		 pop	 edi
  001d7	5e		 pop	 esi
  001d8	5b		 pop	 ebx
$L260017:

; 971  : 		}
; 972  : 	}
; 973  : }

  001d9	8b 4c 24 14	 mov	 ecx, DWORD PTR __$EHRec$[esp+32]
  001dd	5d		 pop	 ebp
  001de	64 89 0d 00 00
	00 00		 mov	 DWORD PTR fs:__except_list, ecx
  001e5	83 c4 1c	 add	 esp, 28			; 0000001cH
  001e8	c3		 ret	 0
_TEXT	ENDS
;	COMDAT text$x
text$x	SEGMENT
$L266021:
  00000	8b 45 e4	 mov	 eax, DWORD PTR $T266013[ebp]
  00003	50		 push	 eax
  00004	e8 00 00 00 00	 call	 ??3@YAXPAX@Z		; operator delete
  00009	59		 pop	 ecx
  0000a	c3		 ret	 0
$L266022:
  0000b	8b 45 e4	 mov	 eax, DWORD PTR $T266017[ebp]
  0000e	50		 push	 eax
  0000f	e8 00 00 00 00	 call	 ??3@YAXPAX@Z		; operator delete
  00014	59		 pop	 ecx
  00015	c3		 ret	 0
__ehhandler$?OnDiedSchoolEvent@CAttackArbiter@@AAEXXZ:
  00016	b8 00 00 00 00	 mov	 eax, OFFSET FLAT:$T266122
  0001b	e9 00 00 00 00	 jmp	 ___CxxFrameHandler
text$x	ENDS
?OnDiedSchoolEvent@CAttackArbiter@@AAEXXZ ENDP		; CAttackArbiter::OnDiedSchoolEvent
PUBLIC	?end@?$_Tree@V?$_Tmap_traits@KEU?$less@K@std@@V?$allocator@U?$pair@$$CBKE@std@@@2@$0A@@std@@@std@@QAE?AViterator@12@XZ ; std::_Tree<std::_Tmap_traits<unsigned long,unsigned char,std::less<unsigned long>,std::allocator<std::pair<unsigned long const ,unsigned char> >,0> >::end
; Function compile flags: /Ogty
; File c:\program files\microsoft visual studio .net 2003\vc7\include\xtree
;	COMDAT ?end@?$_Tree@V?$_Tmap_traits@KEU?$less@K@std@@V?$allocator@U?$pair@$$CBKE@std@@@2@$0A@@std@@@std@@QAE?AViterator@12@XZ
_TEXT	SEGMENT
___$ReturnUdt$ = 8					; size = 4
?end@?$_Tree@V?$_Tmap_traits@KEU?$less@K@std@@V?$allocator@U?$pair@$$CBKE@std@@@2@$0A@@std@@@std@@QAE?AViterator@12@XZ PROC NEAR ; std::_Tree<std::_Tmap_traits<unsigned long,unsigned char,std::less<unsigned long>,std::allocator<std::pair<unsigned long const ,unsigned char> >,0> >::end, COMDAT
; _this$ = ecx

; 418  : 		return (_TREE_ITERATOR(_Myhead));

  00000	8b 49 04	 mov	 ecx, DWORD PTR [ecx+4]
  00003	8b 44 24 04	 mov	 eax, DWORD PTR ___$ReturnUdt$[esp-4]
  00007	89 08		 mov	 DWORD PTR [eax], ecx

; 419  : 		}

  00009	c2 04 00	 ret	 4
?end@?$_Tree@V?$_Tmap_traits@KEU?$less@K@std@@V?$allocator@U?$pair@$$CBKE@std@@@2@$0A@@std@@@std@@QAE?AViterator@12@XZ ENDP ; std::_Tree<std::_Tmap_traits<unsigned long,unsigned char,std::less<unsigned long>,std::allocator<std::pair<unsigned long const ,unsigned char> >,0> >::end
_TEXT	ENDS
PUBLIC	?lower_bound@?$_Tree@V?$_Tmap_traits@KEU?$less@K@std@@V?$allocator@U?$pair@$$CBKE@std@@@2@$0A@@std@@@std@@QAE?AViterator@12@ABK@Z ; std::_Tree<std::_Tmap_traits<unsigned long,unsigned char,std::less<unsigned long>,std::allocator<std::pair<unsigned long const ,unsigned char> >,0> >::lower_bound
; Function compile flags: /Ogty
;	COMDAT ?lower_bound@?$_Tree@V?$_Tmap_traits@KEU?$less@K@std@@V?$allocator@U?$pair@$$CBKE@std@@@2@$0A@@std@@@std@@QAE?AViterator@12@ABK@Z
_TEXT	SEGMENT
___$ReturnUdt$ = 8					; size = 4
__Keyval$ = 12						; size = 4
?lower_bound@?$_Tree@V?$_Tmap_traits@KEU?$less@K@std@@V?$allocator@U?$pair@$$CBKE@std@@@2@$0A@@std@@@std@@QAE?AViterator@12@ABK@Z PROC NEAR ; std::_Tree<std::_Tmap_traits<unsigned long,unsigned char,std::less<unsigned long>,std::allocator<std::pair<unsigned long const ,unsigned char> >,0> >::lower_bound, COMDAT
; _this$ = ecx

; 810  : 		return (_TREE_ITERATOR(_Lbound(_Keyval)));

  00000	8b 49 04	 mov	 ecx, DWORD PTR [ecx+4]
  00003	8b 41 04	 mov	 eax, DWORD PTR [ecx+4]
  00006	8a 50 15	 mov	 dl, BYTE PTR [eax+21]
  00009	84 d2		 test	 dl, dl
  0000b	75 1d		 jne	 SHORT $L266220
  0000d	8b 54 24 08	 mov	 edx, DWORD PTR __Keyval$[esp-4]
  00011	8b 12		 mov	 edx, DWORD PTR [edx]
  00013	53		 push	 ebx
$L266198:
  00014	39 50 0c	 cmp	 DWORD PTR [eax+12], edx
  00017	73 05		 jae	 SHORT $L266202
  00019	8b 40 08	 mov	 eax, DWORD PTR [eax+8]
  0001c	eb 04		 jmp	 SHORT $L266204
$L266202:
  0001e	8b c8		 mov	 ecx, eax
  00020	8b 00		 mov	 eax, DWORD PTR [eax]
$L266204:
  00022	8a 58 15	 mov	 bl, BYTE PTR [eax+21]
  00025	84 db		 test	 bl, bl
  00027	74 eb		 je	 SHORT $L266198
  00029	5b		 pop	 ebx
$L266220:
  0002a	8b 44 24 04	 mov	 eax, DWORD PTR ___$ReturnUdt$[esp-4]
  0002e	89 08		 mov	 DWORD PTR [eax], ecx

; 811  : 		}

  00030	c2 08 00	 ret	 8
?lower_bound@?$_Tree@V?$_Tmap_traits@KEU?$less@K@std@@V?$allocator@U?$pair@$$CBKE@std@@@2@$0A@@std@@@std@@QAE?AViterator@12@ABK@Z ENDP ; std::_Tree<std::_Tmap_traits<unsigned long,unsigned char,std::less<unsigned long>,std::allocator<std::pair<unsigned long const ,unsigned char> >,0> >::lower_bound
_TEXT	ENDS
PUBLIC	?CalcDamage@CAttackArbiter@@AAEHPAUATTACK_INFO@@@Z ; CAttackArbiter::CalcDamage
; Function compile flags: /Ogty
; File c:\documents and settings\test\mes documents\source\virtuos_v17\build\program\worldserver\attackarbiter.cpp
;	COMDAT ?CalcDamage@CAttackArbiter@@AAEHPAUATTACK_INFO@@@Z
_TEXT	SEGMENT
_pInfo$ = 8						; size = 4
?CalcDamage@CAttackArbiter@@AAEHPAUATTACK_INFO@@@Z PROC NEAR ; CAttackArbiter::CalcDamage, COMDAT
; _this$ = ecx

; 359  : {

  00000	56		 push	 esi
  00001	8b f1		 mov	 esi, ecx

; 360  : 	if( m_pAttacker->m_dwMode & ONEKILL_MODE )	//  

  00003	8b 46 08	 mov	 eax, DWORD PTR [esi+8]
  00006	f6 80 44 02 00
	00 04		 test	 BYTE PTR [eax+580], 4
  0000d	74 0c		 je	 SHORT $L259758

; 361  : 		return m_pDefender->GetHitPoint();	

  0000f	8b 4e 0c	 mov	 ecx, DWORD PTR [esi+12]
  00012	e8 00 00 00 00	 call	 ?GetHitPoint@CMover@@QAEHXZ ; CMover::GetHitPoint
  00017	5e		 pop	 esi

; 365  : 
; 366  : 	return nDamage;
; 367  : }

  00018	c2 04 00	 ret	 4
$L259758:
  0001b	57		 push	 edi

; 362  : 
; 363  : 	int nDamage = PostCalcDamage( CalcATK( pInfo ), pInfo );

  0001c	8b 7c 24 0c	 mov	 edi, DWORD PTR _pInfo$[esp+4]
  00020	57		 push	 edi
  00021	57		 push	 edi
  00022	8b ce		 mov	 ecx, esi
  00024	e8 00 00 00 00	 call	 ?CalcATK@CAttackArbiter@@AAEHPAUATTACK_INFO@@@Z ; CAttackArbiter::CalcATK
  00029	50		 push	 eax
  0002a	8b ce		 mov	 ecx, esi
  0002c	e8 00 00 00 00	 call	 ?PostCalcDamage@CAttackArbiter@@AAEHHPAUATTACK_INFO@@@Z ; CAttackArbiter::PostCalcDamage

; 364  : 	m_dwAtkFlags = pInfo->dwAtkFlags;

  00031	8b 4f 08	 mov	 ecx, DWORD PTR [edi+8]
  00034	5f		 pop	 edi
  00035	89 4e 10	 mov	 DWORD PTR [esi+16], ecx
  00038	5e		 pop	 esi

; 365  : 
; 366  : 	return nDamage;
; 367  : }

  00039	c2 04 00	 ret	 4
?CalcDamage@CAttackArbiter@@AAEHPAUATTACK_INFO@@@Z ENDP	; CAttackArbiter::CalcDamage
_TEXT	ENDS
PUBLIC	?OnDied@CAttackArbiter@@AAEXXZ			; CAttackArbiter::OnDied
EXTRN	?xRandom@@YAKKK@Z:NEAR				; xRandom
EXTRN	?SubAroundExp@CMover@@QAEXPAV1@M@Z:NEAR		; CMover::SubAroundExp
EXTRN	?AddPKPropensity@CUserMng@@QAEXPAVCMover@@@Z:NEAR ; CUserMng::AddPKPropensity
EXTRN	?GetMover@CProject@@QAEPAVCMover@@K@Z:NEAR	; CProject::GetMover
EXTRN	?SetPKPropensity@CMover@@QAEXK@Z:NEAR		; CMover::SetPKPropensity
EXTRN	?SendLogPkPvp@CDPDatabaseClient@@QAEXPAVCMover@@0HD@Z:NEAR ; CDPDatabaseClient::SendLogPkPvp
EXTRN	?DropItemByDied@CMover@@QAEHPAV1@@Z:NEAR	; CMover::DropItemByDied
EXTRN	?DoDie@CMover@@QAEHPAVCCtrl@@K@Z:NEAR		; CMover::DoDie
EXTRN	?SubPVP@CMover@@QAEXPAV1@H@Z:NEAR		; CMover::SubPVP
EXTRN	?g_dpDBClient@@3VCDPDatabaseClient@@A:BYTE	; g_dpDBClient
EXTRN	?SubExperience@CMover@@QAEHPAV1@@Z:NEAR		; CMover::SubExperience
; Function compile flags: /Ogty
;	COMDAT ?OnDied@CAttackArbiter@@AAEXXZ
_TEXT	SEGMENT
?OnDied@CAttackArbiter@@AAEXXZ PROC NEAR		; CAttackArbiter::OnDied, COMDAT
; _this$ = ecx

; 826  : {

  00000	56		 push	 esi
  00001	8b f1		 mov	 esi, ecx

; 827  : #ifndef __CLIENT
; 828  : #ifdef __AI_AGGRO
; 829  : 	if( m_pDefender->IsPlayer() )

  00003	8b 46 0c	 mov	 eax, DWORD PTR [esi+12]
  00006	8b 88 34 02 00
	00		 mov	 ecx, DWORD PTR [eax+564]
  0000c	85 c9		 test	 ecx, ecx
  0000e	57		 push	 edi
  0000f	74 0a		 je	 SHORT $L266236

; 830  : 		m_pDefender->SetAggro( 0 );

  00011	c7 80 88 11 00
	00 00 00 00 00	 mov	 DWORD PTR [eax+4488], 0
$L266236:

; 831  : #endif
; 832  : #endif
; 833  : 
; 834  : #if __VER >= 8   // 8   PVP   Neuz, World
; 835  : 	if( m_pDefender && m_pAttacker && m_pDefender->m_nDuel != 0 && m_pAttacker->m_nDuel != 0 && 
; 836  : 		m_pDefender->m_idDuelOther == m_pAttacker->GetId() )

  0001b	8b 4e 0c	 mov	 ecx, DWORD PTR [esi+12]
  0001e	85 c9		 test	 ecx, ecx
  00020	74 32		 je	 SHORT $L259983
  00022	8b 46 08	 mov	 eax, DWORD PTR [esi+8]
  00025	85 c0		 test	 eax, eax
  00027	74 2b		 je	 SHORT $L259983
  00029	8b 91 44 07 00
	00		 mov	 edx, DWORD PTR [ecx+1860]
  0002f	85 d2		 test	 edx, edx
  00031	74 21		 je	 SHORT $L259983
  00033	8b 90 44 07 00
	00		 mov	 edx, DWORD PTR [eax+1860]
  00039	85 d2		 test	 edx, edx
  0003b	74 17		 je	 SHORT $L259983
  0003d	8b 91 48 07 00
	00		 mov	 edx, DWORD PTR [ecx+1864]
  00043	3b 90 bc 01 00
	00		 cmp	 edx, DWORD PTR [eax+444]
  00049	75 09		 jne	 SHORT $L259983
  0004b	5f		 pop	 edi

; 837  : 	{
; 838  : 		OnDiedPVP();

  0004c	8b ce		 mov	 ecx, esi
  0004e	5e		 pop	 esi
  0004f	e9 00 00 00 00	 jmp	 ?OnDiedPVP@CAttackArbiter@@AAEXXZ ; CAttackArbiter::OnDiedPVP
$L259983:

; 839  : 		return;
; 840  : 	}
; 841  : #endif	//__VER >= 8  
; 842  : 	m_pDefender->SubPVP( m_pAttacker, m_nReflect );					// m_pDefender    .

  00054	8b 46 1c	 mov	 eax, DWORD PTR [esi+28]
  00057	8b 56 08	 mov	 edx, DWORD PTR [esi+8]
  0005a	50		 push	 eax
  0005b	52		 push	 edx
  0005c	e8 00 00 00 00	 call	 ?SubPVP@CMover@@QAEXPAV1@H@Z ; CMover::SubPVP

; 843  : 
; 844  : 	m_pAttacker->AddKillRecovery();

  00061	8b 4e 08	 mov	 ecx, DWORD PTR [esi+8]
  00064	e8 00 00 00 00	 call	 ?AddKillRecovery@CMover@@QAEXXZ ; CMover::AddKillRecovery

; 845  : 
; 846  : 	OnDiedSchoolEvent();

  00069	8b ce		 mov	 ecx, esi
  0006b	e8 00 00 00 00	 call	 ?OnDiedSchoolEvent@CAttackArbiter@@AAEXXZ ; CAttackArbiter::OnDiedSchoolEvent

; 847  : 
; 848  : 	if( m_pDefender->IsNPC() && m_pDefender->IsDie() )	 

  00070	8b 4e 0c	 mov	 ecx, DWORD PTR [esi+12]
  00073	8b 81 34 02 00
	00		 mov	 eax, DWORD PTR [ecx+564]
  00079	85 c0		 test	 eax, eax
  0007b	75 20		 jne	 SHORT $L259984
  0007d	8b 81 3c 02 00
	00		 mov	 eax, DWORD PTR [ecx+572]
  00083	f7 40 04 00 00
	00 08		 test	 DWORD PTR [eax+4], 134217728 ; 08000000H
  0008a	75 0a		 jne	 SHORT $L266254
  0008c	8b 81 00 06 00
	00		 mov	 eax, DWORD PTR [ecx+1536]
  00092	85 c0		 test	 eax, eax
  00094	75 07		 jne	 SHORT $L259984
$L266254:
  00096	5f		 pop	 edi
  00097	5e		 pop	 esi

; 849  : 	{
; 850  : 		m_pDefender->Delete();							//  ...   .

  00098	e9 00 00 00 00	 jmp	 ?Delete@CObj@@QAEXXZ	; CObj::Delete
$L259984:

; 851  : 		return;
; 852  : 	}
; 853  : 
; 854  : 	if( m_pDefender->m_dwIndex == MI_CLOCKWORK1 || m_pDefender->m_dwIndex == MI_BIGMUSCLE || m_pDefender->m_dwIndex == MI_KRRR )		

  0009d	8b 81 74 01 00
	00		 mov	 eax, DWORD PTR [ecx+372]
  000a3	3d a4 00 00 00	 cmp	 eax, 164		; 000000a4H
  000a8	74 3f		 je	 SHORT $L259986
  000aa	3d a5 00 00 00	 cmp	 eax, 165		; 000000a5H
  000af	74 38		 je	 SHORT $L259986
  000b1	3d a6 00 00 00	 cmp	 eax, 166		; 000000a6H
  000b6	74 31		 je	 SHORT $L259986

; 856  : 	else
; 857  : #ifdef __AI_AGGRO
; 858  : 		//CMover* pAttacker = m_pAttacker;
; 859  : 		if( m_pAttacker->HasOwner() && IsValidObjID( m_pAttacker->GetOwner() ) )

  000b8	8b 4e 08	 mov	 ecx, DWORD PTR [esi+8]
  000bb	8b 81 d4 16 00
	00		 mov	 eax, DWORD PTR [ecx+5844]
  000c1	85 c0		 test	 eax, eax
  000c3	74 32		 je	 SHORT $L259988
  000c5	83 f8 ff	 cmp	 eax, -1
  000c8	74 2d		 je	 SHORT $L259988
  000ca	8b f8		 mov	 edi, eax
  000cc	57		 push	 edi
  000cd	e8 00 00 00 00	 call	 ?IsValidObjID@@YAHK@Z	; IsValidObjID
  000d2	83 c4 04	 add	 esp, 4
  000d5	85 c0		 test	 eax, eax
  000d7	74 1e		 je	 SHORT $L259988

; 860  : 		{
; 861  : 			m_pAttacker = prj.GetMover( m_pAttacker->GetOwner() );

  000d9	57		 push	 edi
  000da	b9 00 00 00 00	 mov	 ecx, OFFSET FLAT:?prj@@3VCProject@@A
  000df	e8 00 00 00 00	 call	 ?GetMover@CProject@@QAEPAVCMover@@K@Z ; CProject::GetMover
  000e4	89 46 08	 mov	 DWORD PTR [esi+8], eax
  000e7	eb 0e		 jmp	 SHORT $L259988
$L259986:

; 855  : 		m_pDefender->SubAroundExp( m_pAttacker, 50.0f );		// 50    .

  000e9	8b 56 08	 mov	 edx, DWORD PTR [esi+8]
  000ec	68 00 00 48 42	 push	 1112014848		; 42480000H
  000f1	52		 push	 edx
  000f2	e8 00 00 00 00	 call	 ?SubAroundExp@CMover@@QAEXPAV1@M@Z ; CMover::SubAroundExp
$L259988:

; 862  : 		}
; 863  : 		m_pAttacker->SubExperience( m_pDefender );

  000f7	8b 46 0c	 mov	 eax, DWORD PTR [esi+12]
  000fa	8b 4e 08	 mov	 ecx, DWORD PTR [esi+8]
  000fd	50		 push	 eax
  000fe	e8 00 00 00 00	 call	 ?SubExperience@CMover@@QAEHPAV1@@Z ; CMover::SubExperience

; 864  : #else
; 865  : 		m_pAttacker->SubExperience( m_pDefender );		// m_pDefender   m_pAttacker  .
; 866  : #endif//__AI_AGGRO
; 867  : 	m_pDefender->DropItemByDied( m_pAttacker );

  00103	8b 4e 08	 mov	 ecx, DWORD PTR [esi+8]
  00106	51		 push	 ecx
  00107	8b 4e 0c	 mov	 ecx, DWORD PTR [esi+12]
  0010a	e8 00 00 00 00	 call	 ?DropItemByDied@CMover@@QAEHPAV1@@Z ; CMover::DropItemByDied

; 868  : 
; 869  : #if __VER >= 8 // __S8_PK
; 870  : #ifdef __JEFF_11_4
; 871  : 	BOOL bArena		= m_pDefender->GetWorld() && m_pDefender->GetWorld()->IsArena();

  0010f	8b 46 0c	 mov	 eax, DWORD PTR [esi+12]
  00112	8b 88 6c 01 00
	00		 mov	 ecx, DWORD PTR [eax+364]
  00118	85 c9		 test	 ecx, ecx
  0011a	74 0f		 je	 SHORT $L266227
  0011c	81 39 d0 00 00
	00		 cmp	 DWORD PTR [ecx], 208	; 000000d0H
  00122	75 07		 jne	 SHORT $L266227
  00124	b9 01 00 00 00	 mov	 ecx, 1
  00129	eb 02		 jmp	 SHORT $L266228
$L266227:
  0012b	33 c9		 xor	 ecx, ecx
$L266228:

; 872  : #endif	// __JEFF_11_4
; 873  : 
; 874  : 	if( m_pDefender->IsPlayer() && m_pDefender->IsChaotic()
; 875  : #ifdef __JEFF_11_4
; 876  : 		&& !bArena
; 877  : #endif	// __JEFF_11_4
; 878  : 		)

  0012d	8b 90 34 02 00
	00		 mov	 edx, DWORD PTR [eax+564]
  00133	85 d2		 test	 edx, edx
  00135	74 67		 je	 SHORT $L259990
  00137	8b b8 60 07 00
	00		 mov	 edi, DWORD PTR [eax+1888]
  0013d	85 ff		 test	 edi, edi
  0013f	76 5d		 jbe	 SHORT $L259990
  00141	85 c9		 test	 ecx, ecx
  00143	75 59		 jne	 SHORT $L259990

; 879  : 	{
; 880  : 		DWORD dwPropensity = m_pDefender->GetPKPropensity(); // undorflow
; 881  : 		m_pDefender->SetPKPropensity( m_pDefender->GetPKPropensity() - xRandom( prj.m_PKSetting.nDiePropensityMin, prj.m_PKSetting.nDiePropensityMax + 1 ));

  00145	8b 15 8c 46 0f
	00		 mov	 edx, DWORD PTR ?prj@@3VCProject@@A+1001100
  0014b	a1 88 46 0f 00	 mov	 eax, DWORD PTR ?prj@@3VCProject@@A+1001096
  00150	42		 inc	 edx
  00151	52		 push	 edx
  00152	50		 push	 eax
  00153	e8 00 00 00 00	 call	 ?xRandom@@YAKKK@Z	; xRandom
  00158	8b cf		 mov	 ecx, edi
  0015a	2b c8		 sub	 ecx, eax
  0015c	83 c4 08	 add	 esp, 8
  0015f	51		 push	 ecx
  00160	8b 4e 0c	 mov	 ecx, DWORD PTR [esi+12]
  00163	e8 00 00 00 00	 call	 ?SetPKPropensity@CMover@@QAEXK@Z ; CMover::SetPKPropensity

; 882  : 		if( dwPropensity <= m_pDefender->GetPKPropensity() )

  00168	8b 4e 0c	 mov	 ecx, DWORD PTR [esi+12]
  0016b	3b b9 60 07 00
	00		 cmp	 edi, DWORD PTR [ecx+1888]
  00171	77 07		 ja	 SHORT $L259992

; 883  : 			m_pDefender->SetPKPropensity( 0 );

  00173	6a 00		 push	 0
  00175	e8 00 00 00 00	 call	 ?SetPKPropensity@CMover@@QAEXK@Z ; CMover::SetPKPropensity
$L259992:

; 884  : 		g_UserMng.AddPKPropensity( m_pDefender );

  0017a	8b 56 0c	 mov	 edx, DWORD PTR [esi+12]
  0017d	52		 push	 edx
  0017e	b9 00 00 00 00	 mov	 ecx, OFFSET FLAT:?g_UserMng@@3VCUserMng@@A
  00183	e8 00 00 00 00	 call	 ?AddPKPropensity@CUserMng@@QAEXPAVCMover@@@Z ; CUserMng::AddPKPropensity

; 885  : 		g_dpDBClient.SendLogPkPvp( m_pDefender, m_pAttacker, 0, 'P' );

  00188	8b 46 08	 mov	 eax, DWORD PTR [esi+8]
  0018b	8b 4e 0c	 mov	 ecx, DWORD PTR [esi+12]
  0018e	6a 50		 push	 80			; 00000050H
  00190	6a 00		 push	 0
  00192	50		 push	 eax
  00193	51		 push	 ecx
  00194	b9 00 00 00 00	 mov	 ecx, OFFSET FLAT:?g_dpDBClient@@3VCDPDatabaseClient@@A
  00199	e8 00 00 00 00	 call	 ?SendLogPkPvp@CDPDatabaseClient@@QAEXPAVCMover@@0HD@Z ; CDPDatabaseClient::SendLogPkPvp
$L259990:

; 886  : 	}	
; 887  : #endif // __VER >= 8 // __S8_PK
; 888  : 
; 889  : 	m_pAttacker->m_nAtkCnt = 0;							//     

  0019e	8b 56 08	 mov	 edx, DWORD PTR [esi+8]
  001a1	c7 82 b0 06 00
	00 00 00 00 00	 mov	 DWORD PTR [edx+1712], 0

; 890  : 	m_pDefender->DoDie( m_pAttacker, m_dwMsg );			// m_pDefender . 

  001ab	8b 46 04	 mov	 eax, DWORD PTR [esi+4]
  001ae	8b 4e 08	 mov	 ecx, DWORD PTR [esi+8]
  001b1	50		 push	 eax
  001b2	51		 push	 ecx
  001b3	8b 4e 0c	 mov	 ecx, DWORD PTR [esi+12]
  001b6	e8 00 00 00 00	 call	 ?DoDie@CMover@@QAEHPAVCCtrl@@K@Z ; CMover::DoDie

; 891  : 
; 892  : 	m_pAttacker->ClearDestObj();						//    .

  001bb	8b 76 08	 mov	 esi, DWORD PTR [esi+8]
  001be	5f		 pop	 edi
  001bf	c7 86 5c 02 00
	00 ff ff ff ff	 mov	 DWORD PTR [esi+604], -1
  001c9	c7 86 58 02 00
	00 00 00 00 00	 mov	 DWORD PTR [esi+600], 0
  001d3	5e		 pop	 esi

; 893  : }

  001d4	c3		 ret	 0
?OnDied@CAttackArbiter@@AAEXXZ ENDP			; CAttackArbiter::OnDied
_TEXT	ENDS
PUBLIC	?find@?$_Tree@V?$_Tmap_traits@KEU?$less@K@std@@V?$allocator@U?$pair@$$CBKE@std@@@2@$0A@@std@@@std@@QAE?AViterator@12@ABK@Z ; std::_Tree<std::_Tmap_traits<unsigned long,unsigned char,std::less<unsigned long>,std::allocator<std::pair<unsigned long const ,unsigned char> >,0> >::find
; Function compile flags: /Ogty
; File c:\program files\microsoft visual studio .net 2003\vc7\include\xtree
;	COMDAT ?find@?$_Tree@V?$_Tmap_traits@KEU?$less@K@std@@V?$allocator@U?$pair@$$CBKE@std@@@2@$0A@@std@@@std@@QAE?AViterator@12@ABK@Z
_TEXT	SEGMENT
$T266318 = -4						; size = 4
___$ReturnUdt$ = 8					; size = 4
__Where$ = 12						; size = 4
__Keyval$ = 12						; size = 4
?find@?$_Tree@V?$_Tmap_traits@KEU?$less@K@std@@V?$allocator@U?$pair@$$CBKE@std@@@2@$0A@@std@@@std@@QAE?AViterator@12@ABK@Z PROC NEAR ; std::_Tree<std::_Tmap_traits<unsigned long,unsigned char,std::less<unsigned long>,std::allocator<std::pair<unsigned long const ,unsigned char> >,0> >::find, COMDAT
; _this$ = ecx

; 787  : 		{	// find an element in mutable sequence that matches _Keyval

  00000	51		 push	 ecx

; 788  : 		iterator _Where = lower_bound(_Keyval);

  00001	8b 51 04	 mov	 edx, DWORD PTR [ecx+4]
  00004	8b 42 04	 mov	 eax, DWORD PTR [edx+4]
  00007	53		 push	 ebx
  00008	8a 58 15	 mov	 bl, BYTE PTR [eax+21]
  0000b	84 db		 test	 bl, bl
  0000d	56		 push	 esi
  0000e	57		 push	 edi
  0000f	8b 7c 24 18	 mov	 edi, DWORD PTR __Keyval$[esp+12]
  00013	75 17		 jne	 SHORT $L266413
  00015	8b 37		 mov	 esi, DWORD PTR [edi]
$L266412:
  00017	39 70 0c	 cmp	 DWORD PTR [eax+12], esi
  0001a	73 05		 jae	 SHORT $L266414
  0001c	8b 40 08	 mov	 eax, DWORD PTR [eax+8]
  0001f	eb 04		 jmp	 SHORT $L266415
$L266414:
  00021	8b d0		 mov	 edx, eax
  00023	8b 00		 mov	 eax, DWORD PTR [eax]
$L266415:
  00025	8a 58 15	 mov	 bl, BYTE PTR [eax+21]
  00028	84 db		 test	 bl, bl
  0002a	74 eb		 je	 SHORT $L266412
$L266413:

; 789  : 		return (_Where == end() || this->comp(_Keyval, _Key(_Where._Mynode()))
; 790  : 			? end() : _Where);

  0002c	8b 41 04	 mov	 eax, DWORD PTR [ecx+4]
  0002f	3b d0		 cmp	 edx, eax
  00031	89 54 24 18	 mov	 DWORD PTR __Where$[esp+12], edx
  00035	74 1a		 je	 SHORT $L266317
  00037	8b 0f		 mov	 ecx, DWORD PTR [edi]
  00039	3b 4a 0c	 cmp	 ecx, DWORD PTR [edx+12]
  0003c	72 13		 jb	 SHORT $L266317
  0003e	8d 44 24 18	 lea	 eax, DWORD PTR __Where$[esp+12]
  00042	8b 10		 mov	 edx, DWORD PTR [eax]
  00044	8b 44 24 14	 mov	 eax, DWORD PTR ___$ReturnUdt$[esp+12]
  00048	5f		 pop	 edi
  00049	5e		 pop	 esi
  0004a	89 10		 mov	 DWORD PTR [eax], edx
  0004c	5b		 pop	 ebx

; 791  : 		}

  0004d	59		 pop	 ecx
  0004e	c2 08 00	 ret	 8
$L266317:

; 789  : 		return (_Where == end() || this->comp(_Keyval, _Key(_Where._Mynode()))
; 790  : 			? end() : _Where);

  00051	89 44 24 0c	 mov	 DWORD PTR $T266318[esp+16], eax
  00055	8d 44 24 0c	 lea	 eax, DWORD PTR $T266318[esp+16]
  00059	8b 10		 mov	 edx, DWORD PTR [eax]
  0005b	8b 44 24 14	 mov	 eax, DWORD PTR ___$ReturnUdt$[esp+12]
  0005f	5f		 pop	 edi
  00060	5e		 pop	 esi
  00061	89 10		 mov	 DWORD PTR [eax], edx
  00063	5b		 pop	 ebx

; 791  : 		}

  00064	59		 pop	 ecx
  00065	c2 08 00	 ret	 8
?find@?$_Tree@V?$_Tmap_traits@KEU?$less@K@std@@V?$allocator@U?$pair@$$CBKE@std@@@2@$0A@@std@@@std@@QAE?AViterator@12@ABK@Z ENDP ; std::_Tree<std::_Tmap_traits<unsigned long,unsigned char,std::less<unsigned long>,std::allocator<std::pair<unsigned long const ,unsigned char> >,0> >::find
_TEXT	ENDS
PUBLIC	?IsEventSpawnMonster@CEventLua@@QAEHK@Z		; CEventLua::IsEventSpawnMonster
; Function compile flags: /Ogty
; File c:\documents and settings\test\mes documents\source\virtuos_v17\build\program\_common\eventlua.h
;	COMDAT ?IsEventSpawnMonster@CEventLua@@QAEHK@Z
_TEXT	SEGMENT
$T266479 = -4						; size = 4
_dwMonsterId$ = 8					; size = 4
?IsEventSpawnMonster@CEventLua@@QAEHK@Z PROC NEAR	; CEventLua::IsEventSpawnMonster, COMDAT
; _this$ = ecx

; 236  : 	BOOL	IsEventSpawnMonster( DWORD dwMonsterId ) { return m_mapMonsterId.find( dwMonsterId ) != m_mapMonsterId.end(); }

  00000	51		 push	 ecx
  00001	56		 push	 esi
  00002	8b f1		 mov	 esi, ecx
  00004	8d 44 24 0c	 lea	 eax, DWORD PTR _dwMonsterId$[esp+4]
  00008	50		 push	 eax
  00009	8d 4c 24 08	 lea	 ecx, DWORD PTR $T266479[esp+12]
  0000d	51		 push	 ecx
  0000e	8d 4e 70	 lea	 ecx, DWORD PTR [esi+112]
  00011	e8 00 00 00 00	 call	 ?find@?$_Tree@V?$_Tmap_traits@KEU?$less@K@std@@V?$allocator@U?$pair@$$CBKE@std@@@2@$0A@@std@@@std@@QAE?AViterator@12@ABK@Z ; std::_Tree<std::_Tmap_traits<unsigned long,unsigned char,std::less<unsigned long>,std::allocator<std::pair<unsigned long const ,unsigned char> >,0> >::find
  00016	8b 10		 mov	 edx, DWORD PTR [eax]
  00018	3b 56 74	 cmp	 edx, DWORD PTR [esi+116]
  0001b	0f 95 c0	 setne	 al
  0001e	0f b6 c0	 movzx	 eax, al
  00021	5e		 pop	 esi
  00022	59		 pop	 ecx
  00023	c2 04 00	 ret	 4
?IsEventSpawnMonster@CEventLua@@QAEHK@Z ENDP		; CEventLua::IsEventSpawnMonster
_TEXT	ENDS
PUBLIC	?OnDamageMsgW@CAttackArbiter@@QAEHXZ		; CAttackArbiter::OnDamageMsgW
EXTRN	?MonsterTransform@CMonsterSkill@@QAEHPAVCMover@@H@Z:NEAR ; CMonsterSkill::MonsterTransform
EXTRN	?EndPVP@CMover@@QAEXH@Z:NEAR			; CMover::EndPVP
EXTRN	?IsGuildCombatTarget@CMover@@QAEHPAV1@@Z:NEAR	; CMover::IsGuildCombatTarget
EXTRN	?AddCreateSfxObj@CUserMng@@QAEXPAVCCtrl@@KMMMH@Z:NEAR ; CUserMng::AddCreateSfxObj
EXTRN	?GetMaxHitPoint@CMover@@QAEHXZ:NEAR		; CMover::GetMaxHitPoint
EXTRN	?ResetState@CAction@@QAEXK@Z:NEAR		; CAction::ResetState
EXTRN	?OnAttacked@CMover@@QAEXPAV1@HHH@Z:NEAR		; CMover::OnAttacked
; Function compile flags: /Ogty
; File c:\documents and settings\test\mes documents\source\virtuos_v17\build\program\worldserver\attackarbiter.cpp
;	COMDAT ?OnDamageMsgW@CAttackArbiter@@QAEHXZ
_TEXT	SEGMENT
_cbHandFlag$ = -38					; size = 1
_cbFlag$259687 = -37					; size = 1
tv563 = -36						; size = 4
_nHP$266606 = -36					; size = 4
$T266567 = -36						; size = 4
_nDamageDecRate$259698 = -36				; size = 4
tv562 = -32						; size = 4
_fAddHP$259712 = -32					; size = 4
_nDamage$ = -32						; size = 4
tv557 = -28						; size = 4
tv555 = -28						; size = 4
$T266554 = -28						; size = 4
_nActionHPRate$259707 = -28				; size = 4
_info$ = -24						; size = 24
?OnDamageMsgW@CAttackArbiter@@QAEHXZ PROC NEAR		; CAttackArbiter::OnDamageMsgW, COMDAT
; _this$ = ecx

; 132  : {

  00000	83 ec 28	 sub	 esp, 40			; 00000028H
  00003	56		 push	 esi
  00004	8b f1		 mov	 esi, ecx

; 133  : 	if( !CheckValidDamageMsg() )

  00006	e8 00 00 00 00	 call	 ?CheckValidDamageMsg@CAttackArbiter@@AAEHXZ ; CAttackArbiter::CheckValidDamageMsg
  0000b	85 c0		 test	 eax, eax
  0000d	75 05		 jne	 SHORT $L259683
  0000f	5e		 pop	 esi

; 268  : }

  00010	83 c4 28	 add	 esp, 40			; 00000028H
  00013	c3		 ret	 0
$L259683:

; 134  : 	{
; 135  : /*	 
; 136  : #if __VER >= 8 // __S8_PK
; 137  : 		if( m_pAttacker->IsPlayer() && m_pDefender->IsPlayer() )
; 138  : 		{
; 139  : 			HITTYPE type = m_pAttacker->GetHitType( m_pDefender, m_bTarget, m_nReflect );
; 140  : 			if( type == HITTYPE_PK )
; 141  : 			{
; 142  : 				if( m_nReflect )
; 143  : 					return 0;
; 144  : 				
; 145  : 				if( m_pAttacker->IsChaotic() || m_pDefender->IsChaotic() )
; 146  : 					return 0;
; 147  : #ifdef __JEFF_11_4
; 148  : 				CWorld* pWorld	= m_pDefender->GetWorld();
; 149  : 				if( pWorld && pWorld->IsArena() )
; 150  : 					return 0;
; 151  : #endif	// __JEFF_11_4
; 152  : 
; 153  : 				if( m_pDefender->IsPKPink() )
; 154  : 					m_pAttacker->SetPKPink( GetTickCount() + SEC(prj.m_PKSetting.nReadyAttack) );
; 155  : 				else
; 156  : 					m_pAttacker->SetPKPink( GetTickCount() + SEC(prj.m_PKSetting.nGeneralAttack) );
; 157  : 				g_UserMng.AddPKPink( m_pAttacker, 1 );
; 158  : 			}
; 159  : 		}
; 160  : #endif // __VER >= 8 __S8_PK
; 161  : */
; 162  : 		return 0;
; 163  : 	}
; 164  : 	ATTACK_INFO info;
; 165  : 	info.dwAtkFlags = m_dwAtkFlags;
; 166  : 	info.pAttacker  = m_pAttacker;

  00014	8b 4e 08	 mov	 ecx, DWORD PTR [esi+8]
  00017	8b 46 10	 mov	 eax, DWORD PTR [esi+16]

; 167  : 	info.pDefender  = m_pDefender;

  0001a	8b 56 0c	 mov	 edx, DWORD PTR [esi+12]
  0001d	89 4c 24 14	 mov	 DWORD PTR _info$[esp+44], ecx

; 168  : 	info.nParam     = m_nParam;

  00021	8b 4e 14	 mov	 ecx, DWORD PTR [esi+20]
  00024	53		 push	 ebx

; 169  : 	info.nParts     = PARTS_RWEAPON;
; 170  : 
; 171  : 	int nDamage = 0;

  00025	33 db		 xor	 ebx, ebx

; 172  : 	BYTE cbHandFlag	= GetHandFlag();

  00027	f6 c4 40	 test	 ah, 64			; 00000040H
  0002a	89 4c 24 24	 mov	 DWORD PTR _info$[esp+60], ecx
  0002e	89 44 24 20	 mov	 DWORD PTR _info$[esp+56], eax
  00032	89 54 24 1c	 mov	 DWORD PTR _info$[esp+52], edx
  00036	c7 44 24 28 0a
	00 00 00	 mov	 DWORD PTR _info$[esp+64], 10 ; 0000000aH
  0003e	b1 01		 mov	 cl, 1
  00040	74 06		 je	 SHORT $L266515
  00042	88 4c 24 0a	 mov	 BYTE PTR _cbHandFlag$[esp+48], cl
  00046	eb 12		 jmp	 SHORT $L266513
$L266515:
  00048	a8 01		 test	 al, 1
  0004a	74 0a		 je	 SHORT $L266517
  0004c	8a 4e 14	 mov	 cl, BYTE PTR [esi+20]
  0004f	80 e1 03	 and	 cl, 3
  00052	75 02		 jne	 SHORT $L266517
  00054	b1 01		 mov	 cl, 1
$L266517:
  00056	88 4c 24 0a	 mov	 BYTE PTR _cbHandFlag$[esp+48], cl
$L266513:

; 173  : 	for( BYTE cbFlag = 0x01; cbFlag <= 0x02; ++cbFlag )	

  0005a	b0 01		 mov	 al, 1
  0005c	88 44 24 0b	 mov	 BYTE PTR _cbFlag$259687[esp+48], al
  00060	57		 push	 edi
$L259688:

; 174  : 	{
; 175  : 		if( cbHandFlag & cbFlag )

  00061	8a 54 24 0e	 mov	 dl, BYTE PTR _cbHandFlag$[esp+52]
  00065	84 c2		 test	 al, dl
  00067	0f 84 df 00 00
	00		 je	 $L259689

; 176  : 		{
; 177  : 			info.nParts = (cbFlag & 0x01) ? PARTS_RWEAPON : PARTS_LWEAPON;
; 178  : #ifdef __EVENTLUA_SPAWN
; 179  : 			if( m_pDefender->IsNPC() && prj.m_EventLua.IsEventSpawnMonster( m_pDefender->GetIndex() ) && !m_pAttacker->IsMode( ONEKILL_MODE ) )

  0006d	8b 7e 0c	 mov	 edi, DWORD PTR [esi+12]
  00070	24 01		 and	 al, 1
  00072	f6 d8		 neg	 al
  00074	1b c0		 sbb	 eax, eax
  00076	f7 d8		 neg	 eax
  00078	83 c0 09	 add	 eax, 9
  0007b	89 44 24 2c	 mov	 DWORD PTR _info$[esp+68], eax
  0007f	8b 87 34 02 00
	00		 mov	 eax, DWORD PTR [edi+564]
  00085	85 c0		 test	 eax, eax
  00087	75 3e		 jne	 SHORT $L259693
  00089	8b 87 74 01 00
	00		 mov	 eax, DWORD PTR [edi+372]
  0008f	8d 4c 24 10	 lea	 ecx, DWORD PTR $T266567[esp+52]
  00093	51		 push	 ecx
  00094	8d 54 24 1c	 lea	 edx, DWORD PTR $T266554[esp+56]
  00098	52		 push	 edx
  00099	b9 68 92 11 00	 mov	 ecx, OFFSET FLAT:?prj@@3VCProject@@A+1151592
  0009e	89 44 24 18	 mov	 DWORD PTR $T266567[esp+60], eax
  000a2	e8 00 00 00 00	 call	 ?find@?$_Tree@V?$_Tmap_traits@KEU?$less@K@std@@V?$allocator@U?$pair@$$CBKE@std@@@2@$0A@@std@@@std@@QAE?AViterator@12@ABK@Z ; std::_Tree<std::_Tmap_traits<unsigned long,unsigned char,std::less<unsigned long>,std::allocator<std::pair<unsigned long const ,unsigned char> >,0> >::find
  000a7	8b 00		 mov	 eax, DWORD PTR [eax]
  000a9	3b 05 6c 92 11
	00		 cmp	 eax, DWORD PTR ?prj@@3VCProject@@A+1151596
  000af	74 16		 je	 SHORT $L259693
  000b1	8b 4e 08	 mov	 ecx, DWORD PTR [esi+8]
  000b4	f6 81 44 02 00
	00 04		 test	 BYTE PTR [ecx+580], 4
  000bb	75 0a		 jne	 SHORT $L259693

; 180  : 			{
; 181  : 				nDamage = 1;

  000bd	bb 01 00 00 00	 mov	 ebx, 1

; 182  : 				continue;

  000c2	e9 85 00 00 00	 jmp	 $L259689
$L259693:

; 183  : 			}
; 184  : #endif // __EVENTLUA_SPAWN
; 185  : #if __VER < 11 // __REMOVE_ENDURANCE
; 186  : 			m_pDefender->Abrade( m_pAttacker, info.nParts );
; 187  : #endif // __REMOVE_ENDURANCE
; 188  : 			int n = CalcDamage( &info );					//  . (m_dwAtkFlags   ) 

  000c7	8b 56 08	 mov	 edx, DWORD PTR [esi+8]
  000ca	f6 82 44 02 00
	00 04		 test	 BYTE PTR [edx+580], 4
  000d1	74 09		 je	 SHORT $L266578
  000d3	8b cf		 mov	 ecx, edi
  000d5	e8 00 00 00 00	 call	 ?GetHitPoint@CMover@@QAEHXZ ; CMover::GetHitPoint
  000da	eb 1e		 jmp	 SHORT $L266631
$L266578:
  000dc	8d 44 24 1c	 lea	 eax, DWORD PTR _info$[esp+52]
  000e0	8b c8		 mov	 ecx, eax
  000e2	50		 push	 eax
  000e3	51		 push	 ecx
  000e4	8b ce		 mov	 ecx, esi
  000e6	e8 00 00 00 00	 call	 ?CalcATK@CAttackArbiter@@AAEHPAUATTACK_INFO@@@Z ; CAttackArbiter::CalcATK
  000eb	50		 push	 eax
  000ec	8b ce		 mov	 ecx, esi
  000ee	e8 00 00 00 00	 call	 ?PostCalcDamage@CAttackArbiter@@AAEHHPAUATTACK_INFO@@@Z ; CAttackArbiter::PostCalcDamage
  000f3	8b 54 24 24	 mov	 edx, DWORD PTR _info$[esp+60]
  000f7	89 56 10	 mov	 DWORD PTR [esi+16], edx
$L266631:
  000fa	8b f8		 mov	 edi, eax

; 189  : 			if( n > 0 )

  000fc	85 ff		 test	 edi, edi
  000fe	7e 4c		 jle	 SHORT $L259689

; 190  : 			{
; 191  : 				ProcessAbnormal( n, &info );				// , , ,   

  00100	8d 44 24 1c	 lea	 eax, DWORD PTR _info$[esp+52]
  00104	50		 push	 eax
  00105	57		 push	 edi
  00106	8b ce		 mov	 ecx, esi
  00108	e8 00 00 00 00	 call	 ?ProcessAbnormal@CAttackArbiter@@AAEXHPAUATTACK_INFO@@@Z ; CAttackArbiter::ProcessAbnormal

; 192  : #if __VER >= 9 // __ULTIMATE
; 193  : 				StealHP( n, info.GetAtkType() );								//  

  0010d	8b 4c 24 24	 mov	 ecx, DWORD PTR _info$[esp+60]
  00111	f6 c1 10	 test	 cl, 16			; 00000010H
  00114	b8 04 00 00 00	 mov	 eax, 4
  00119	74 07		 je	 SHORT $L266584
  0011b	b8 01 00 00 00	 mov	 eax, 1
  00120	eb 1f		 jmp	 SHORT $L266590
$L266584:
  00122	f6 c1 20	 test	 cl, 32			; 00000020H
  00125	74 07		 je	 SHORT $L266586
  00127	b8 02 00 00 00	 mov	 eax, 2
  0012c	eb 13		 jmp	 SHORT $L266590
$L266586:
  0012e	f6 c1 08	 test	 cl, 8
  00131	74 07		 je	 SHORT $L266588
  00133	b8 03 00 00 00	 mov	 eax, 3
  00138	eb 07		 jmp	 SHORT $L266590
$L266588:
  0013a	f6 c5 20	 test	 ch, 32			; 00000020H
  0013d	74 02		 je	 SHORT $L266590
  0013f	33 c0		 xor	 eax, eax
$L266590:
  00141	50		 push	 eax
  00142	57		 push	 edi
  00143	8b ce		 mov	 ecx, esi
  00145	e8 00 00 00 00	 call	 ?StealHP@CAttackArbiter@@AAEXHW4ATK_TYPE@@@Z ; CAttackArbiter::StealHP

; 194  : #else // __ULTIMATE
; 195  : 				StealHP( n );								//  
; 196  : #endif // __ULTIMATE
; 197  : 				nDamage += n;

  0014a	03 df		 add	 ebx, edi
$L259689:
  0014c	8a 44 24 0f	 mov	 al, BYTE PTR _cbFlag$259687[esp+52]
  00150	fe c0		 inc	 al
  00152	3c 02		 cmp	 al, 2
  00154	88 44 24 0f	 mov	 BYTE PTR _cbFlag$259687[esp+52], al
  00158	0f 86 03 ff ff
	ff		 jbe	 $L259688

; 198  : 			}
; 199  : 		}
; 200  : 	}
; 201  : 
; 202  : #if __VER >= 8 // __GUILDCOMBAT_85
; 203  : 	if( m_pAttacker->IsPlayer() && m_pDefender->IsPlayer() )

  0015e	8b 4e 08	 mov	 ecx, DWORD PTR [esi+8]
  00161	8b 81 34 02 00
	00		 mov	 eax, DWORD PTR [ecx+564]
  00167	85 c0		 test	 eax, eax
  00169	74 74		 je	 SHORT $L259697
  0016b	8b 4e 0c	 mov	 ecx, DWORD PTR [esi+12]
  0016e	8b 81 34 02 00
	00		 mov	 eax, DWORD PTR [ecx+564]
  00174	85 c0		 test	 eax, eax
  00176	74 67		 je	 SHORT $L259697

; 204  : 	{
; 205  : 		nDamage -= (nDamage * m_pDefender->GetParam( DST_PVP_DMG_RATE, 0) / 100);

  00178	6a 00		 push	 0
  0017a	6a 16		 push	 22			; 00000016H
  0017c	e8 00 00 00 00	 call	 ?GetParam@CMover@@QAEHHH@Z ; CMover::GetParam
  00181	8b c8		 mov	 ecx, eax
  00183	0f af cb	 imul	 ecx, ebx
  00186	b8 e1 7a 14 ae	 mov	 eax, -1374389535	; ae147ae1H
  0018b	f7 e9		 imul	 ecx

; 206  : #if __VER >= 9 // __CHAO_DMGDEC
; 207  : 		if( !m_pAttacker->IsGuildCombatTarget( m_pDefender ) )

  0018d	8b 4e 0c	 mov	 ecx, DWORD PTR [esi+12]
  00190	c1 fa 05	 sar	 edx, 5
  00193	8b c2		 mov	 eax, edx
  00195	c1 e8 1f	 shr	 eax, 31			; 0000001fH
  00198	03 c2		 add	 eax, edx
  0019a	03 d8		 add	 ebx, eax
  0019c	51		 push	 ecx
  0019d	8b 4e 08	 mov	 ecx, DWORD PTR [esi+8]
  001a0	89 5c 24 18	 mov	 DWORD PTR _nDamage$[esp+56], ebx
  001a4	e8 00 00 00 00	 call	 ?IsGuildCombatTarget@CMover@@QAEHPAV1@@Z ; CMover::IsGuildCombatTarget
  001a9	85 c0		 test	 eax, eax
  001ab	75 32		 jne	 SHORT $L259697

; 208  : 		{
; 209  : 			int nDamageDecRate = m_pAttacker->GetPKValue() * 5;

  001ad	8b 56 08	 mov	 edx, DWORD PTR [esi+8]
  001b0	8b 82 5c 07 00
	00		 mov	 eax, DWORD PTR [edx+1884]
  001b6	8d 04 80	 lea	 eax, DWORD PTR [eax+eax*4]

; 210  : 			if( nDamageDecRate > 99 )

  001b9	83 f8 63	 cmp	 eax, 99			; 00000063H
  001bc	89 44 24 10	 mov	 DWORD PTR _nDamageDecRate$259698[esp+52], eax
  001c0	7e 08		 jle	 SHORT $L259699

; 211  : 				nDamageDecRate = 99;

  001c2	c7 44 24 10 63
	00 00 00	 mov	 DWORD PTR _nDamageDecRate$259698[esp+52], 99 ; 00000063H
$L259699:

; 212  : 			nDamage -= (int)( nDamage * ( (float)nDamageDecRate/(float)100) );

  001ca	db 44 24 10	 fild	 DWORD PTR _nDamageDecRate$259698[esp+52]
  001ce	d8 0d 00 00 00
	00		 fmul	 DWORD PTR __real@3c23d70a
  001d4	da 4c 24 14	 fimul	 DWORD PTR _nDamage$[esp+52]
  001d8	e8 00 00 00 00	 call	 __ftol2
  001dd	2b d8		 sub	 ebx, eax
$L259697:

; 213  : 		}
; 214  : #endif // __CHAO_DMGDEC
; 215  : 	}
; 216  : #endif // __VER >= 8
; 217  : 
; 218  : 	nDamage = max( nDamage, 1 );

  001df	83 fb 01	 cmp	 ebx, 1
  001e2	7f 05		 jg	 SHORT $L266510
  001e4	bb 01 00 00 00	 mov	 ebx, 1
$L266510:

; 219  : 	int nHP = MinusHP( &nDamage );							// HP   

  001e9	8b 4e 0c	 mov	 ecx, DWORD PTR [esi+12]
  001ec	e8 00 00 00 00	 call	 ?GetHitPoint@CMover@@QAEHXZ ; CMover::GetHitPoint
  001f1	8b f8		 mov	 edi, eax
  001f3	2b fb		 sub	 edi, ebx
  001f5	85 ff		 test	 edi, edi
  001f7	89 7c 24 10	 mov	 DWORD PTR _nHP$266606[esp+52], edi
  001fb	7f 1d		 jg	 SHORT $L266607
  001fd	8b 4e 0c	 mov	 ecx, DWORD PTR [esi+12]
  00200	0f b6 b9 44 02
	00 00		 movzx	 edi, BYTE PTR [ecx+580]
  00207	c1 ef 05	 shr	 edi, 5
  0020a	83 e7 01	 and	 edi, 1
  0020d	89 7c 24 10	 mov	 DWORD PTR _nHP$266606[esp+52], edi
  00211	e8 00 00 00 00	 call	 ?GetHitPoint@CMover@@QAEHXZ ; CMover::GetHitPoint
  00216	8b d8		 mov	 ebx, eax
  00218	2b df		 sub	 ebx, edi
$L266607:

; 220  : 
; 221  : #if __VER >= 14 // __INSTANCE_DUNGEON
; 222  : 	if( CMonsterSkill::GetInstance()->MonsterTransform( m_pDefender, nHP ) )

  0021a	8b 46 0c	 mov	 eax, DWORD PTR [esi+12]
  0021d	55		 push	 ebp
  0021e	57		 push	 edi
  0021f	50		 push	 eax
  00220	8b ef		 mov	 ebp, edi
  00222	e8 00 00 00 00	 call	 ?GetInstance@CMonsterSkill@@SAPAV1@XZ ; CMonsterSkill::GetInstance
  00227	8b c8		 mov	 ecx, eax
  00229	e8 00 00 00 00	 call	 ?MonsterTransform@CMonsterSkill@@QAEHPAVCMover@@H@Z ; CMonsterSkill::MonsterTransform
  0022e	85 c0		 test	 eax, eax
  00230	74 0a		 je	 SHORT $L259704
  00232	5d		 pop	 ebp
  00233	5f		 pop	 edi
  00234	5b		 pop	 ebx

; 223  : 		return 0;

  00235	33 c0		 xor	 eax, eax
  00237	5e		 pop	 esi

; 268  : }

  00238	83 c4 28	 add	 esp, 40			; 00000028H
  0023b	c3		 ret	 0
$L259704:

; 224  : #endif // __INSTANCE_DUNGEON
; 225  : 
; 226  : 	if( m_pDefender->m_pActMover->IsSit() )					//  &   

  0023c	8b 4e 0c	 mov	 ecx, DWORD PTR [esi+12]
  0023f	8b 89 3c 02 00
	00		 mov	 ecx, DWORD PTR [ecx+572]
  00245	f6 41 08 04	 test	 BYTE PTR [ecx+8], 4
  00249	74 0a		 je	 SHORT $L259705

; 227  : 		m_pDefender->m_pActMover->ResetState( OBJSTA_MOVE_ALL );

  0024b	68 ff 00 00 00	 push	 255			; 000000ffH
  00250	e8 00 00 00 00	 call	 ?ResetState@CAction@@QAEXK@Z ; CAction::ResetState
$L259705:

; 228  : 	m_pDefender->m_pActMover->SendActMsg( OBJMSG_STAND );	

  00255	8b 56 0c	 mov	 edx, DWORD PTR [esi+12]
  00258	8b 8a 3c 02 00
	00		 mov	 ecx, DWORD PTR [edx+572]
  0025e	8b 01		 mov	 eax, DWORD PTR [ecx]
  00260	6a 00		 push	 0
  00262	6a 00		 push	 0
  00264	6a 00		 push	 0
  00266	6a 00		 push	 0
  00268	6a 00		 push	 0
  0026a	6a 03		 push	 3
  0026c	ff 50 04	 call	 DWORD PTR [eax+4]

; 229  : 	
; 230  : 	m_pDefender->OnAttacked( m_pAttacker, nDamage, m_bTarget, m_nReflect );		//   ,   	

  0026f	8b 4e 1c	 mov	 ecx, DWORD PTR [esi+28]
  00272	8b 56 18	 mov	 edx, DWORD PTR [esi+24]
  00275	8b 46 08	 mov	 eax, DWORD PTR [esi+8]
  00278	51		 push	 ecx
  00279	8b 4e 0c	 mov	 ecx, DWORD PTR [esi+12]
  0027c	52		 push	 edx
  0027d	53		 push	 ebx
  0027e	50		 push	 eax
  0027f	e8 00 00 00 00	 call	 ?OnAttacked@CMover@@QAEXPAV1@HHH@Z ; CMover::OnAttacked

; 231  : 	if( nHP > 0 )

  00284	85 ff		 test	 edi, edi

; 232  : 	{
; 233  : 		OnDamaged( nDamage );								//   ,  ,  

  00286	8b ce		 mov	 ecx, esi
  00288	0f 8e fa 00 00
	00		 jle	 $L259706
  0028e	53		 push	 ebx
  0028f	e8 00 00 00 00	 call	 ?OnDamaged@CAttackArbiter@@AAEXH@Z ; CAttackArbiter::OnDamaged

; 234  : 		// MinusHP()  -    .
; 235  : 		int nActionHPRate = m_pDefender->GetAdjParam( DST_AUTOHP );							//  HP

  00294	8b 4e 0c	 mov	 ecx, DWORD PTR [esi+12]
  00297	6a 3a		 push	 58			; 0000003aH
  00299	e8 00 00 00 00	 call	 ?GetAdjParam@CMover@@QAEHH@Z ; CMover::GetAdjParam

; 236  : 		if( nActionHPRate > 0 )

  0029e	85 c0		 test	 eax, eax
  002a0	89 44 24 1c	 mov	 DWORD PTR _nActionHPRate$259707[esp+56], eax
  002a4	0f 8e 99 00 00
	00		 jle	 $L266626

; 237  : 		{
; 238  : 			float fHPPercent = (float)nHP / m_pDefender->GetMaxHitPoint();					//  HP  
; 239  : 			if( fHPPercent <= (nActionHPRate / 100.0f) )									//  HP HP 

  002aa	db 44 24 14	 fild	 DWORD PTR _nHP$266606[esp+56]
  002ae	8b 4e 0c	 mov	 ecx, DWORD PTR [esi+12]
  002b1	d9 5c 24 14	 fstp	 DWORD PTR tv563[esp+56]
  002b5	e8 00 00 00 00	 call	 ?GetMaxHitPoint@CMover@@QAEHXZ ; CMover::GetMaxHitPoint
  002ba	89 44 24 18	 mov	 DWORD PTR tv562[esp+56], eax
  002be	db 44 24 18	 fild	 DWORD PTR tv562[esp+56]
  002c2	d8 7c 24 14	 fdivr	 DWORD PTR tv563[esp+56]
  002c6	db 44 24 1c	 fild	 DWORD PTR _nActionHPRate$259707[esp+56]
  002ca	d8 0d 00 00 00
	00		 fmul	 DWORD PTR __real@3c23d70a
  002d0	de d9		 fcompp
  002d2	df e0		 fnstsw	 ax
  002d4	f6 c4 01	 test	 ah, 1
  002d7	75 6a		 jne	 SHORT $L266626

; 240  : 			{
; 241  : 				float fAddHP = m_pDefender->GetChgParam( DST_AUTOHP ) / 100.0f;				//  HP

  002d9	8b 4e 0c	 mov	 ecx, DWORD PTR [esi+12]
  002dc	6a 3a		 push	 58			; 0000003aH
  002de	e8 00 00 00 00	 call	 ?GetChgParam@CMover@@QAEHH@Z ; CMover::GetChgParam

; 242  : 				int nAddHP = (int)( m_pDefender->GetMaxHitPoint() * fAddHP );				// MaxHP  .

  002e3	8b 4e 0c	 mov	 ecx, DWORD PTR [esi+12]
  002e6	89 44 24 1c	 mov	 DWORD PTR tv557[esp+56], eax
  002ea	db 44 24 1c	 fild	 DWORD PTR tv557[esp+56]
  002ee	d8 0d 00 00 00
	00		 fmul	 DWORD PTR __real@3c23d70a
  002f4	d9 5c 24 18	 fstp	 DWORD PTR _fAddHP$259712[esp+56]
  002f8	e8 00 00 00 00	 call	 ?GetMaxHitPoint@CMover@@QAEHXZ ; CMover::GetMaxHitPoint

; 243  : 				nHP += nAddHP;

  002fd	89 44 24 1c	 mov	 DWORD PTR tv555[esp+56], eax
  00301	db 44 24 1c	 fild	 DWORD PTR tv555[esp+56]
  00305	d8 4c 24 18	 fmul	 DWORD PTR _fAddHP$259712[esp+56]
  00309	e8 00 00 00 00	 call	 __ftol2

; 244  : 				m_pDefender->SetPointParam( DST_HP, nHP, TRUE );									// HP.

  0030e	8b 4e 0c	 mov	 ecx, DWORD PTR [esi+12]
  00311	8b e8		 mov	 ebp, eax
  00313	6a 01		 push	 1
  00315	03 ef		 add	 ebp, edi
  00317	55		 push	 ebp
  00318	6a 26		 push	 38			; 00000026H
  0031a	e8 00 00 00 00	 call	 ?SetPointParam@CMover@@QAEXHHH@Z ; CMover::SetPointParam

; 245  : 				g_UserMng.AddCreateSfxObj( m_pDefender, XI_GEN_CURE01 );					//   .

  0031f	8b 4e 0c	 mov	 ecx, DWORD PTR [esi+12]
  00322	6a 00		 push	 0
  00324	6a 00		 push	 0
  00326	6a 00		 push	 0
  00328	6a 00		 push	 0
  0032a	6a 3e		 push	 62			; 0000003eH
  0032c	51		 push	 ecx
  0032d	b9 00 00 00 00	 mov	 ecx, OFFSET FLAT:?g_UserMng@@3VCUserMng@@A
  00332	e8 00 00 00 00	 call	 ?AddCreateSfxObj@CUserMng@@QAEXPAVCCtrl@@KMMMH@Z ; CUserMng::AddCreateSfxObj

; 246  : 				m_pDefender->RemoveBuff( BUFF_SKILL, SI_ASS_HEAL_PREVENTION );	// .

  00337	8b 4e 0c	 mov	 ecx, DWORD PTR [esi+12]
  0033a	6a 30		 push	 48			; 00000030H
  0033c	6a 01		 push	 1
  0033e	e8 00 00 00 00	 call	 ?RemoveBuff@CMover@@QAEXGG@Z ; CMover::RemoveBuff
$L266626:

; 247  : 			}
; 248  : 		}
; 249  : #if __VER >= 11 // __REFLECTDMG_AFTER
; 250  : 		if( m_nReflectDmg )

  00343	8b 46 20	 mov	 eax, DWORD PTR [esi+32]
  00346	85 c0		 test	 eax, eax
  00348	74 43		 je	 SHORT $L259717

; 251  : 		{
; 252  : 			m_pAttacker->m_pActMover->SendDamage( AF_FORCE, m_pDefender->GetId(), m_nReflectDmg, TRUE, 2 );

  0034a	8b 56 08	 mov	 edx, DWORD PTR [esi+8]
  0034d	8b 8a 3c 02 00
	00		 mov	 ecx, DWORD PTR [edx+572]
  00353	8b 11		 mov	 edx, DWORD PTR [ecx]
  00355	6a 02		 push	 2
  00357	6a 01		 push	 1
  00359	50		 push	 eax
  0035a	8b 46 0c	 mov	 eax, DWORD PTR [esi+12]
  0035d	8b 80 bc 01 00
	00		 mov	 eax, DWORD PTR [eax+444]
  00363	50		 push	 eax
  00364	68 00 20 00 00	 push	 8192			; 00002000H
  00369	6a 29		 push	 41			; 00000029H
  0036b	ff 52 04	 call	 DWORD PTR [edx+4]

; 259  : 	
; 260  : 
; 261  : #if __VER >= 8   // 8   PVP   Neuz, World
; 262  : 	m_pDefender->EndPVP(nHP);

  0036e	8b 4e 0c	 mov	 ecx, DWORD PTR [esi+12]
  00371	55		 push	 ebp
  00372	c7 46 20 00 00
	00 00		 mov	 DWORD PTR [esi+32], 0
  00379	e8 00 00 00 00	 call	 ?EndPVP@CMover@@QAEXH@Z	; CMover::EndPVP
  0037e	5d		 pop	 ebp
  0037f	5f		 pop	 edi

; 263  : #else	//__VER >= 8
; 264  : 	m_pDefender->m_nHitPoint = nHP;
; 265  : #endif	//__VER >= 8
; 266  : 
; 267  : 	return nDamage;

  00380	8b c3		 mov	 eax, ebx
  00382	5b		 pop	 ebx
  00383	5e		 pop	 esi

; 268  : }

  00384	83 c4 28	 add	 esp, 40			; 00000028H
  00387	c3		 ret	 0
$L259706:

; 253  : 			m_nReflectDmg = 0;
; 254  : 		}
; 255  : #endif// __REFLECTDMG_AFTER
; 256  : 	}
; 257  : 	else	
; 258  : 		OnDied();											// ,   

  00388	e8 00 00 00 00	 call	 ?OnDied@CAttackArbiter@@AAEXXZ ; CAttackArbiter::OnDied
$L259717:

; 259  : 	
; 260  : 
; 261  : #if __VER >= 8   // 8   PVP   Neuz, World
; 262  : 	m_pDefender->EndPVP(nHP);

  0038d	8b 4e 0c	 mov	 ecx, DWORD PTR [esi+12]
  00390	55		 push	 ebp
  00391	e8 00 00 00 00	 call	 ?EndPVP@CMover@@QAEXH@Z	; CMover::EndPVP
  00396	5d		 pop	 ebp
  00397	5f		 pop	 edi

; 263  : #else	//__VER >= 8
; 264  : 	m_pDefender->m_nHitPoint = nHP;
; 265  : #endif	//__VER >= 8
; 266  : 
; 267  : 	return nDamage;

  00398	8b c3		 mov	 eax, ebx
  0039a	5b		 pop	 ebx
  0039b	5e		 pop	 esi

; 268  : }

  0039c	83 c4 28	 add	 esp, 40			; 00000028H
  0039f	c3		 ret	 0
?OnDamageMsgW@CAttackArbiter@@QAEHXZ ENDP		; CAttackArbiter::OnDamageMsgW
_TEXT	ENDS
END
