; Listing generated by Microsoft (R) Optimizing Compiler Version 13.10.6030 

	TITLE	\Documents and Settings\test\Mes documents\Source\Virtuos_v17\Build\Program\_Common\Continent.cpp
	.386P
include listing.inc
if @Version gt 510
.model FLAT
else
_TEXT	SEGMENT PARA USE32 PUBLIC 'CODE'
_TEXT	ENDS
_DATA	SEGMENT DWORD USE32 PUBLIC 'DATA'
_DATA	ENDS
CONST	SEGMENT DWORD USE32 PUBLIC 'CONST'
CONST	ENDS
_BSS	SEGMENT DWORD USE32 PUBLIC 'BSS'
_BSS	ENDS
$$SYMBOLS	SEGMENT BYTE USE32 'DEBSYM'
$$SYMBOLS	ENDS
$$TYPES	SEGMENT BYTE USE32 'DEBTYP'
$$TYPES	ENDS
_TLS	SEGMENT DWORD USE32 PUBLIC 'TLS'
_TLS	ENDS
;	COMDAT ??_C@_0L@KFPAPNMN@WdMadrigal?$AA@
CONST	SEGMENT DWORD USE32 PUBLIC 'CONST'
CONST	ENDS
;	COMDAT ??_C@_06NGHBMAIH@World?2?$AA@
CONST	SEGMENT DWORD USE32 PUBLIC 'CONST'
CONST	ENDS
;	COMDAT ??_C@_08HEFLNCGE@?4wld?4cnt?$AA@
CONST	SEGMENT DWORD USE32 PUBLIC 'CONST'
CONST	ENDS
;	COMDAT ??_C@_01KICIPPFI@?2?$AA@
CONST	SEGMENT DWORD USE32 PUBLIC 'CONST'
CONST	ENDS
;	COMDAT ??_C@_09DLHPOJLJ@Continent?$AA@
CONST	SEGMENT DWORD USE32 PUBLIC 'CONST'
CONST	ENDS
;	COMDAT ??_C@_05ILMMJGEC@BEGIN?$AA@
CONST	SEGMENT DWORD USE32 PUBLIC 'CONST'
CONST	ENDS
;	COMDAT ??_C@_03JMGAKCCH@END?$AA@
CONST	SEGMENT DWORD USE32 PUBLIC 'CONST'
CONST	ENDS
;	COMDAT ??_C@_04PDHHGLID@C_id?$AA@
CONST	SEGMENT DWORD USE32 PUBLIC 'CONST'
CONST	ENDS
;	COMDAT ??_C@_06HPIMPLPK@VERTEX?$AA@
CONST	SEGMENT DWORD USE32 PUBLIC 'CONST'
CONST	ENDS
;	COMDAT ??_C@_04DADAHDDM@TOWN?$AA@
CONST	SEGMENT DWORD USE32 PUBLIC 'CONST'
CONST	ENDS
;	COMDAT ??_C@_0O@EGCOAAKO@C_useRealData?$AA@
CONST	SEGMENT DWORD USE32 PUBLIC 'CONST'
CONST	ENDS
;	COMDAT ??_C@_06BMAOEDJD@Flaris?$AA@
CONST	SEGMENT DWORD USE32 PUBLIC 'CONST'
CONST	ENDS
;	COMDAT ??_C@_05CPEBJIKJ@Saint?$AA@
CONST	SEGMENT DWORD USE32 PUBLIC 'CONST'
CONST	ENDS
;	COMDAT ??_C@_05PBNOGAOL@Ricis?$AA@
CONST	SEGMENT DWORD USE32 PUBLIC 'CONST'
CONST	ENDS
;	COMDAT ??_C@_08JHEPJMJO@Darkon12?$AA@
CONST	SEGMENT DWORD USE32 PUBLIC 'CONST'
CONST	ENDS
;	COMDAT ??_C@_07GHKECFAJ@Darkon3?$AA@
CONST	SEGMENT DWORD USE32 PUBLIC 'CONST'
CONST	ENDS
;	COMDAT ??_C@_08NDIDOBMH@Harmonin?$AA@
CONST	SEGMENT DWORD USE32 PUBLIC 'CONST'
CONST	ENDS
;	COMDAT ??_C@_0M@OHPEKFLK@Estia_envir?$AA@
CONST	SEGMENT DWORD USE32 PUBLIC 'CONST'
CONST	ENDS
;	COMDAT ??_C@_05HAGHMCBO@Estia?$AA@
CONST	SEGMENT DWORD USE32 PUBLIC 'CONST'
CONST	ENDS
;	COMDAT ??_C@_06MLCICBFL@Darken?$AA@
CONST	SEGMENT DWORD USE32 PUBLIC 'CONST'
CONST	ENDS
;	COMDAT ??_C@_0O@JJLGFEMO@Flarinenosple?$AA@
CONST	SEGMENT DWORD USE32 PUBLIC 'CONST'
CONST	ENDS
;	COMDAT ??_C@_08FHABOGPM@Saincity?$AA@
CONST	SEGMENT DWORD USE32 PUBLIC 'CONST'
CONST	ENDS
;	COMDAT ??_C@_07GIGGNJIL@Kaillun?$AA@
CONST	SEGMENT DWORD USE32 PUBLIC 'CONST'
CONST	ENDS
;	COMDAT ??_C@_05KCAAALNE@Eliun?$AA@
CONST	SEGMENT DWORD USE32 PUBLIC 'CONST'
CONST	ENDS
;	COMDAT ??_C@_06HDOENCBM@Bahara?$AA@
CONST	SEGMENT DWORD USE32 PUBLIC 'CONST'
CONST	ENDS
;	COMDAT ??_C@_0L@NOHPMHGP@UpresiaEnt?$AA@
CONST	SEGMENT DWORD USE32 PUBLIC 'CONST'
CONST	ENDS
text$yd	SEGMENT PARA USE32 PUBLIC 'CODE'
text$yd	ENDS
xdata$x	SEGMENT DWORD USE32 PUBLIC 'CONST'
xdata$x	ENDS
text$AFX_COL1	SEGMENT PARA USE32 PUBLIC ''
text$AFX_COL1	ENDS
;	COMDAT ??0CContinent@@QAE@XZ
_TEXT	SEGMENT PARA USE32 PUBLIC 'CODE'
_TEXT	ENDS
;	COMDAT ??_GCContinent@@UAEPAXI@Z
_TEXT	SEGMENT PARA USE32 PUBLIC 'CODE'
_TEXT	ENDS
;	COMDAT ??1?$map@EV?$vector@VCPoint@@V?$allocator@VCPoint@@@std@@@std@@U?$less@E@2@V?$allocator@U?$pair@$$CBEV?$vector@VCPoint@@V?$allocator@VCPoint@@@std@@@std@@@std@@@2@@std@@QAE@XZ
_TEXT	SEGMENT PARA USE32 PUBLIC 'CODE'
_TEXT	ENDS
;	COMDAT ??1CContinent@@UAE@XZ
_TEXT	SEGMENT PARA USE32 PUBLIC 'CODE'
_TEXT	ENDS
;	COMDAT ?GetInstance@CContinent@@SAPAV1@XZ
_TEXT	SEGMENT PARA USE32 PUBLIC 'CODE'
_TEXT	ENDS
;	COMDAT _$E2
text$yd	SEGMENT PARA USE32 PUBLIC 'CODE'
text$yd	ENDS
;	COMDAT ?Init@CContinent@@AAEXXZ
_TEXT	SEGMENT PARA USE32 PUBLIC 'CODE'
_TEXT	ENDS
;	COMDAT ??1?$pair@HV?$vector@VCPoint@@V?$allocator@VCPoint@@@std@@@std@@@std@@QAE@XZ
_TEXT	SEGMENT PARA USE32 PUBLIC 'CODE'
_TEXT	ENDS
;	COMDAT ??1?$pair@$$CBEV?$vector@VCPoint@@V?$allocator@VCPoint@@@std@@@std@@@std@@QAE@XZ
_TEXT	SEGMENT PARA USE32 PUBLIC 'CODE'
_TEXT	ENDS
;	COMDAT ?Point_In_Poly@CContinent@@AAEHV?$vector@VCPoint@@V?$allocator@VCPoint@@@std@@@std@@VCPoint@@@Z
_TEXT	SEGMENT PARA USE32 PUBLIC 'CODE'
_TEXT	ENDS
;	COMDAT ?GetContinent@CContinent@@QAEEPAVCMover@@@Z
_TEXT	SEGMENT PARA USE32 PUBLIC 'CODE'
_TEXT	ENDS
;	COMDAT ?GetArea@CContinent@@QAEEPAVCMover@@@Z
_TEXT	SEGMENT PARA USE32 PUBLIC 'CODE'
_TEXT	ENDS
;	COMDAT ?IsValidObj@CContinent@@SAHPAVCMover@@@Z
_TEXT	SEGMENT PARA USE32 PUBLIC 'CODE'
_TEXT	ENDS
;	COMDAT ?GetContinent@CContinent@@QAEEABUD3DXVECTOR3@@@Z
_TEXT	SEGMENT PARA USE32 PUBLIC 'CODE'
_TEXT	ENDS
;	COMDAT ?GetTown@CContinent@@QAEEABUD3DXVECTOR3@@@Z
_TEXT	SEGMENT PARA USE32 PUBLIC 'CODE'
_TEXT	ENDS
;	COMDAT ?GetArea@CContinent@@AAEEE@Z
_TEXT	SEGMENT PARA USE32 PUBLIC 'CODE'
_TEXT	ENDS
;	COMDAT ?GetContinentName@CContinent@@QAE?AV?$CStringT@DV?$StrTraitMFC@DV?$ChTraitsCRT@D@ATL@@@@@ATL@@E@Z
_TEXT	SEGMENT PARA USE32 PUBLIC 'CODE'
_TEXT	ENDS
;	COMDAT ?GetRevivalPos@CContinent@@QAE?AUD3DXVECTOR3@@E@Z
_TEXT	SEGMENT PARA USE32 PUBLIC 'CODE'
_TEXT	ENDS
;	COMDAT ?GetContinentIndex@CContinent@@QAEHPBD@Z
_TEXT	SEGMENT PARA USE32 PUBLIC 'CODE'
_TEXT	ENDS
;	COMDAT ??HATL@@YA?AV?$CStringT@DV?$StrTraitMFC@DV?$ChTraitsCRT@D@ATL@@@@@0@ABV10@0@Z
_TEXT	SEGMENT PARA USE32 PUBLIC 'CODE'
_TEXT	ENDS
;	COMDAT ??8ATL@@YA_NABV?$CStringT@DV?$StrTraitMFC@DV?$ChTraitsCRT@D@ATL@@@@@0@PBD@Z
_TEXT	SEGMENT PARA USE32 PUBLIC 'CODE'
_TEXT	ENDS
;	COMDAT ??9ATL@@YA_NABV?$CStringT@DV?$StrTraitMFC@DV?$ChTraitsCRT@D@ATL@@@@@0@PBD@Z
_TEXT	SEGMENT PARA USE32 PUBLIC 'CODE'
_TEXT	ENDS
;	COMDAT ?compare@?$basic_string@DU?$char_traits@D@std@@V?$allocator@D@2@@std@@QBEHABV12@@Z
_TEXT	SEGMENT PARA USE32 PUBLIC 'CODE'
_TEXT	ENDS
;	COMDAT ?IsFull@?$CStack@K@@QAEHXZ
_TEXT	SEGMENT PARA USE32 PUBLIC 'CODE'
_TEXT	ENDS
;	COMDAT ??0?$pair@KPAVCCtrl@@@std@@QAE@ABKABQAVCCtrl@@@Z
_TEXT	SEGMENT PARA USE32 PUBLIC 'CODE'
_TEXT	ENDS
;	COMDAT ?GetMax@?$CItemContainer@VCItemElem@@@@QAEHXZ
_TEXT	SEGMENT PARA USE32 PUBLIC 'CODE'
_TEXT	ENDS
;	COMDAT ??0?$deque@PAUtagACTMSG@@V?$allocator@PAUtagACTMSG@@@std@@@std@@QAE@XZ
_TEXT	SEGMENT PARA USE32 PUBLIC 'CODE'
_TEXT	ENDS
;	COMDAT ??1?$deque@PAUtagACTMSG@@V?$allocator@PAUtagACTMSG@@@std@@@std@@QAE@XZ
_TEXT	SEGMENT PARA USE32 PUBLIC 'CODE'
_TEXT	ENDS
;	COMDAT ?begin@?$deque@PAUtagACTMSG@@V?$allocator@PAUtagACTMSG@@@std@@@std@@QAE?AViterator@12@XZ
_TEXT	SEGMENT PARA USE32 PUBLIC 'CODE'
_TEXT	ENDS
;	COMDAT ?end@?$deque@PAUtagACTMSG@@V?$allocator@PAUtagACTMSG@@@std@@@std@@QAE?AViterator@12@XZ
_TEXT	SEGMENT PARA USE32 PUBLIC 'CODE'
_TEXT	ENDS
;	COMDAT ?empty@?$deque@PAUtagACTMSG@@V?$allocator@PAUtagACTMSG@@@std@@@std@@QBE_NXZ
_TEXT	SEGMENT PARA USE32 PUBLIC 'CODE'
_TEXT	ENDS
;	COMDAT ?clear@?$deque@PAUtagACTMSG@@V?$allocator@PAUtagACTMSG@@@std@@@std@@QAEXXZ
_TEXT	SEGMENT PARA USE32 PUBLIC 'CODE'
_TEXT	ENDS
;	COMDAT ??0?$deque@PAUtagMAGICATKMSG@@V?$allocator@PAUtagMAGICATKMSG@@@std@@@std@@QAE@XZ
_TEXT	SEGMENT PARA USE32 PUBLIC 'CODE'
_TEXT	ENDS
;	COMDAT ??1?$deque@PAUtagMAGICATKMSG@@V?$allocator@PAUtagMAGICATKMSG@@@std@@@std@@QAE@XZ
_TEXT	SEGMENT PARA USE32 PUBLIC 'CODE'
_TEXT	ENDS
;	COMDAT ?begin@?$deque@PAUtagMAGICATKMSG@@V?$allocator@PAUtagMAGICATKMSG@@@std@@@std@@QAE?AViterator@12@XZ
_TEXT	SEGMENT PARA USE32 PUBLIC 'CODE'
_TEXT	ENDS
;	COMDAT ?end@?$deque@PAUtagMAGICATKMSG@@V?$allocator@PAUtagMAGICATKMSG@@@std@@@std@@QAE?AViterator@12@XZ
_TEXT	SEGMENT PARA USE32 PUBLIC 'CODE'
_TEXT	ENDS
;	COMDAT ?empty@?$deque@PAUtagMAGICATKMSG@@V?$allocator@PAUtagMAGICATKMSG@@@std@@@std@@QBE_NXZ
_TEXT	SEGMENT PARA USE32 PUBLIC 'CODE'
_TEXT	ENDS
;	COMDAT ?clear@?$deque@PAUtagMAGICATKMSG@@V?$allocator@PAUtagMAGICATKMSG@@@std@@@std@@QAEXXZ
_TEXT	SEGMENT PARA USE32 PUBLIC 'CODE'
_TEXT	ENDS
;	COMDAT ??Diterator@?$deque@PAUtagACTMSG@@V?$allocator@PAUtagACTMSG@@@std@@@std@@QBEAAPAUtagACTMSG@@XZ
_TEXT	SEGMENT PARA USE32 PUBLIC 'CODE'
_TEXT	ENDS
;	COMDAT ??Eiterator@?$deque@PAUtagACTMSG@@V?$allocator@PAUtagACTMSG@@@std@@@std@@QAEAAV012@XZ
_TEXT	SEGMENT PARA USE32 PUBLIC 'CODE'
_TEXT	ENDS
;	COMDAT ??9const_iterator@?$deque@PAUtagACTMSG@@V?$allocator@PAUtagACTMSG@@@std@@@std@@QBE_NABV012@@Z
_TEXT	SEGMENT PARA USE32 PUBLIC 'CODE'
_TEXT	ENDS
;	COMDAT ??Diterator@?$deque@PAUtagMAGICATKMSG@@V?$allocator@PAUtagMAGICATKMSG@@@std@@@std@@QBEAAPAUtagMAGICATKMSG@@XZ
_TEXT	SEGMENT PARA USE32 PUBLIC 'CODE'
_TEXT	ENDS
;	COMDAT ??Eiterator@?$deque@PAUtagMAGICATKMSG@@V?$allocator@PAUtagMAGICATKMSG@@@std@@@std@@QAEAAV012@XZ
_TEXT	SEGMENT PARA USE32 PUBLIC 'CODE'
_TEXT	ENDS
;	COMDAT ??9const_iterator@?$deque@PAUtagMAGICATKMSG@@V?$allocator@PAUtagMAGICATKMSG@@@std@@@std@@QBE_NABV012@@Z
_TEXT	SEGMENT PARA USE32 PUBLIC 'CODE'
_TEXT	ENDS
;	COMDAT ??0?$map@EV?$vector@VCPoint@@V?$allocator@VCPoint@@@std@@@std@@U?$less@E@2@V?$allocator@U?$pair@$$CBEV?$vector@VCPoint@@V?$allocator@VCPoint@@@std@@@std@@@std@@@2@@std@@QAE@XZ
_TEXT	SEGMENT PARA USE32 PUBLIC 'CODE'
_TEXT	ENDS
;	COMDAT ??1?$_Tree@V?$_Tmap_traits@EV?$vector@VCPoint@@V?$allocator@VCPoint@@@std@@@std@@U?$less@E@2@V?$allocator@U?$pair@$$CBEV?$vector@VCPoint@@V?$allocator@VCPoint@@@std@@@std@@@std@@@2@$0A@@std@@@std@@QAE@XZ
_TEXT	SEGMENT PARA USE32 PUBLIC 'CODE'
_TEXT	ENDS
;	COMDAT ?begin@?$_Tree@V?$_Tmap_traits@EV?$vector@VCPoint@@V?$allocator@VCPoint@@@std@@@std@@U?$less@E@2@V?$allocator@U?$pair@$$CBEV?$vector@VCPoint@@V?$allocator@VCPoint@@@std@@@std@@@std@@@2@$0A@@std@@@std@@QAE?AViterator@12@XZ
_TEXT	SEGMENT PARA USE32 PUBLIC 'CODE'
_TEXT	ENDS
;	COMDAT ?end@?$_Tree@V?$_Tmap_traits@EV?$vector@VCPoint@@V?$allocator@VCPoint@@@std@@@std@@U?$less@E@2@V?$allocator@U?$pair@$$CBEV?$vector@VCPoint@@V?$allocator@VCPoint@@@std@@@std@@@std@@@2@$0A@@std@@@std@@QAE?AViterator@12@XZ
_TEXT	SEGMENT PARA USE32 PUBLIC 'CODE'
_TEXT	ENDS
;	COMDAT ?insert@?$_Tree@V?$_Tmap_traits@EV?$vector@VCPoint@@V?$allocator@VCPoint@@@std@@@std@@U?$less@E@2@V?$allocator@U?$pair@$$CBEV?$vector@VCPoint@@V?$allocator@VCPoint@@@std@@@std@@@std@@@2@$0A@@std@@@std@@QAE?AU?$pair@Viterator@?$_Tree@V?$_Tmap_traits@EV?$vector@VCPoint@@V?$allocator@VCPoint@@@std@@@std@@U?$less@E@2@V?$allocator@U?$pair@$$CBEV?$vector@VCPoint@@V?$allocator@VCPoint@@@std@@@std@@@std@@@2@$0A@@std@@@std@@_N@2@ABU?$pair@$$CBEV?$vector@VCPoint@@V?$allocator@VCPoint@@@std@@@std@@@2@@Z
_TEXT	SEGMENT PARA USE32 PUBLIC 'CODE'
_TEXT	ENDS
;	COMDAT ?clear@?$_Tree@V?$_Tmap_traits@EV?$vector@VCPoint@@V?$allocator@VCPoint@@@std@@@std@@U?$less@E@2@V?$allocator@U?$pair@$$CBEV?$vector@VCPoint@@V?$allocator@VCPoint@@@std@@@std@@@std@@@2@$0A@@std@@@std@@QAEXXZ
_TEXT	SEGMENT PARA USE32 PUBLIC 'CODE'
_TEXT	ENDS
;	COMDAT ??0?$vector@VCPoint@@V?$allocator@VCPoint@@@std@@@std@@QAE@XZ
_TEXT	SEGMENT PARA USE32 PUBLIC 'CODE'
_TEXT	ENDS
;	COMDAT ??0?$vector@VCPoint@@V?$allocator@VCPoint@@@std@@@std@@QAE@ABV01@@Z
_TEXT	SEGMENT PARA USE32 PUBLIC 'CODE'
_TEXT	ENDS
;	COMDAT ??1?$vector@VCPoint@@V?$allocator@VCPoint@@@std@@@std@@QAE@XZ
_TEXT	SEGMENT PARA USE32 PUBLIC 'CODE'
_TEXT	ENDS
;	COMDAT ??4?$vector@VCPoint@@V?$allocator@VCPoint@@@std@@@std@@QAEAAV01@ABV01@@Z
_TEXT	SEGMENT PARA USE32 PUBLIC 'CODE'
_TEXT	ENDS
;	COMDAT ?size@?$vector@VCPoint@@V?$allocator@VCPoint@@@std@@@std@@QBEIXZ
_TEXT	SEGMENT PARA USE32 PUBLIC 'CODE'
_TEXT	ENDS
;	COMDAT ?empty@?$vector@VCPoint@@V?$allocator@VCPoint@@@std@@@std@@QBE_NXZ
_TEXT	SEGMENT PARA USE32 PUBLIC 'CODE'
_TEXT	ENDS
;	COMDAT ??A?$vector@VCPoint@@V?$allocator@VCPoint@@@std@@@std@@QAEAAVCPoint@@I@Z
_TEXT	SEGMENT PARA USE32 PUBLIC 'CODE'
_TEXT	ENDS
;	COMDAT ?push_back@?$vector@VCPoint@@V?$allocator@VCPoint@@@std@@@std@@QAEXABVCPoint@@@Z
_TEXT	SEGMENT PARA USE32 PUBLIC 'CODE'
_TEXT	ENDS
;	COMDAT ?clear@?$vector@VCPoint@@V?$allocator@VCPoint@@@std@@@std@@QAEXXZ
_TEXT	SEGMENT PARA USE32 PUBLIC 'CODE'
_TEXT	ENDS
;	COMDAT ??0?$pair@Viterator@?$_Tree@V?$_Tmap_traits@EV?$vector@VCPoint@@V?$allocator@VCPoint@@@std@@@std@@U?$less@E@2@V?$allocator@U?$pair@$$CBEV?$vector@VCPoint@@V?$allocator@VCPoint@@@std@@@std@@@std@@@2@$0A@@std@@@std@@H@std@@QAE@XZ
_TEXT	SEGMENT PARA USE32 PUBLIC 'CODE'
_TEXT	ENDS
;	COMDAT ??Citerator@?$_Tree@V?$_Tmap_traits@EV?$vector@VCPoint@@V?$allocator@VCPoint@@@std@@@std@@U?$less@E@2@V?$allocator@U?$pair@$$CBEV?$vector@VCPoint@@V?$allocator@VCPoint@@@std@@@std@@@std@@@2@$0A@@std@@@std@@QBEPAU?$pair@$$CBEV?$vector@VCPoint@@V?$allocator@VCPoint@@@std@@@std@@@2@XZ
_TEXT	SEGMENT PARA USE32 PUBLIC 'CODE'
_TEXT	ENDS
;	COMDAT ??Eiterator@?$_Tree@V?$_Tmap_traits@EV?$vector@VCPoint@@V?$allocator@VCPoint@@@std@@@std@@U?$less@E@2@V?$allocator@U?$pair@$$CBEV?$vector@VCPoint@@V?$allocator@VCPoint@@@std@@@std@@@std@@@2@$0A@@std@@@std@@QAEAAV012@XZ
_TEXT	SEGMENT PARA USE32 PUBLIC 'CODE'
_TEXT	ENDS
;	COMDAT ??9const_iterator@?$_Tree@V?$_Tmap_traits@EV?$vector@VCPoint@@V?$allocator@VCPoint@@@std@@@std@@U?$less@E@2@V?$allocator@U?$pair@$$CBEV?$vector@VCPoint@@V?$allocator@VCPoint@@@std@@@std@@@std@@@2@$0A@@std@@@std@@QBE_NABV012@@Z
_TEXT	SEGMENT PARA USE32 PUBLIC 'CODE'
_TEXT	ENDS
;	COMDAT ??0?$CStringT@DV?$StrTraitMFC@DV?$ChTraitsCRT@D@ATL@@@@@ATL@@QAE@PAUIAtlStringMgr@1@@Z
_TEXT	SEGMENT PARA USE32 PUBLIC 'CODE'
_TEXT	ENDS
;	COMDAT ?Compare@?$CStringT@DV?$StrTraitMFC@DV?$ChTraitsCRT@D@ATL@@@@@ATL@@QBEHPBD@Z
_TEXT	SEGMENT PARA USE32 PUBLIC 'CODE'
_TEXT	ENDS
;	COMDAT ?GetManager@?$CSimpleStringT@D$0A@@ATL@@QBEPAUIAtlStringMgr@2@XZ
_TEXT	SEGMENT PARA USE32 PUBLIC 'CODE'
_TEXT	ENDS
;	COMDAT ?Concatenate@?$CSimpleStringT@D$0A@@ATL@@KAXAAV12@PBDH1H@Z
_TEXT	SEGMENT PARA USE32 PUBLIC 'CODE'
_TEXT	ENDS
;	COMDAT ?compare@?$basic_string@DU?$char_traits@D@std@@V?$allocator@D@2@@std@@QBEHIIPBDI@Z
_TEXT	SEGMENT PARA USE32 PUBLIC 'CODE'
_TEXT	ENDS
;	COMDAT ??R?$less@E@std@@QBE_NABE0@Z
_TEXT	SEGMENT PARA USE32 PUBLIC 'CODE'
_TEXT	ENDS
;	COMDAT ?_Tidy@?$deque@PAUtagACTMSG@@V?$allocator@PAUtagACTMSG@@@std@@@std@@IAEXXZ
_TEXT	SEGMENT PARA USE32 PUBLIC 'CODE'
_TEXT	ENDS
;	COMDAT ??0?$_Deque_val@PAUtagACTMSG@@V?$allocator@PAUtagACTMSG@@@std@@@std@@IAE@V?$allocator@PAUtagACTMSG@@@1@@Z
_TEXT	SEGMENT PARA USE32 PUBLIC 'CODE'
_TEXT	ENDS
;	COMDAT ??0?$allocator@PAUtagACTMSG@@@std@@QAE@XZ
_TEXT	SEGMENT PARA USE32 PUBLIC 'CODE'
_TEXT	ENDS
;	COMDAT ?_Tidy@?$deque@PAUtagMAGICATKMSG@@V?$allocator@PAUtagMAGICATKMSG@@@std@@@std@@IAEXXZ
_TEXT	SEGMENT PARA USE32 PUBLIC 'CODE'
_TEXT	ENDS
;	COMDAT ??0?$_Deque_val@PAUtagMAGICATKMSG@@V?$allocator@PAUtagMAGICATKMSG@@@std@@@std@@IAE@V?$allocator@PAUtagMAGICATKMSG@@@1@@Z
_TEXT	SEGMENT PARA USE32 PUBLIC 'CODE'
_TEXT	ENDS
;	COMDAT ??0?$allocator@PAUtagMAGICATKMSG@@@std@@QAE@XZ
_TEXT	SEGMENT PARA USE32 PUBLIC 'CODE'
_TEXT	ENDS
;	COMDAT ??0iterator@?$deque@PAUtagACTMSG@@V?$allocator@PAUtagACTMSG@@@std@@@std@@QAE@IPBV12@@Z
_TEXT	SEGMENT PARA USE32 PUBLIC 'CODE'
_TEXT	ENDS
;	COMDAT ??Dconst_iterator@?$deque@PAUtagACTMSG@@V?$allocator@PAUtagACTMSG@@@std@@@std@@QBEABQAUtagACTMSG@@XZ
_TEXT	SEGMENT PARA USE32 PUBLIC 'CODE'
_TEXT	ENDS
;	COMDAT ??8const_iterator@?$deque@PAUtagACTMSG@@V?$allocator@PAUtagACTMSG@@@std@@@std@@QBE_NABV012@@Z
_TEXT	SEGMENT PARA USE32 PUBLIC 'CODE'
_TEXT	ENDS
;	COMDAT ??0iterator@?$deque@PAUtagMAGICATKMSG@@V?$allocator@PAUtagMAGICATKMSG@@@std@@@std@@QAE@IPBV12@@Z
_TEXT	SEGMENT PARA USE32 PUBLIC 'CODE'
_TEXT	ENDS
;	COMDAT ??Dconst_iterator@?$deque@PAUtagMAGICATKMSG@@V?$allocator@PAUtagMAGICATKMSG@@@std@@@std@@QBEABQAUtagMAGICATKMSG@@XZ
_TEXT	SEGMENT PARA USE32 PUBLIC 'CODE'
_TEXT	ENDS
;	COMDAT ??8const_iterator@?$deque@PAUtagMAGICATKMSG@@V?$allocator@PAUtagMAGICATKMSG@@@std@@@std@@QBE_NABV012@@Z
_TEXT	SEGMENT PARA USE32 PUBLIC 'CODE'
_TEXT	ENDS
;	COMDAT ?_Isnil@?$_Tree@V?$_Tmap_traits@EV?$vector@VCPoint@@V?$allocator@VCPoint@@@std@@@std@@U?$less@E@2@V?$allocator@U?$pair@$$CBEV?$vector@VCPoint@@V?$allocator@VCPoint@@@std@@@std@@@std@@@2@$0A@@std@@@std@@KAAADPAU_Node@?$_Tree_nod@V?$_Tmap_traits@EV?$vector@VCPoint@@V?$allocator@VCPoint@@@std@@@std@@U?$less@E@2@V?$allocator@U?$pair@$$CBEV?$vector@VCPoint@@V?$allocator@VCPoint@@@std@@@std@@@std@@@2@$0A@@std@@@2@@Z
_TEXT	SEGMENT PARA USE32 PUBLIC 'CODE'
_TEXT	ENDS
;	COMDAT ?_Key@?$_Tree@V?$_Tmap_traits@EV?$vector@VCPoint@@V?$allocator@VCPoint@@@std@@@std@@U?$less@E@2@V?$allocator@U?$pair@$$CBEV?$vector@VCPoint@@V?$allocator@VCPoint@@@std@@@std@@@std@@@2@$0A@@std@@@std@@KAABEPAU_Node@?$_Tree_nod@V?$_Tmap_traits@EV?$vector@VCPoint@@V?$allocator@VCPoint@@@std@@@std@@U?$less@E@2@V?$allocator@U?$pair@$$CBEV?$vector@VCPoint@@V?$allocator@VCPoint@@@std@@@std@@@std@@@2@$0A@@std@@@2@@Z
_TEXT	SEGMENT PARA USE32 PUBLIC 'CODE'
_TEXT	ENDS
;	COMDAT ?_Left@?$_Tree@V?$_Tmap_traits@EV?$vector@VCPoint@@V?$allocator@VCPoint@@@std@@@std@@U?$less@E@2@V?$allocator@U?$pair@$$CBEV?$vector@VCPoint@@V?$allocator@VCPoint@@@std@@@std@@@std@@@2@$0A@@std@@@std@@KAAAPAU_Node@?$_Tree_nod@V?$_Tmap_traits@EV?$vector@VCPoint@@V?$allocator@VCPoint@@@std@@@std@@U?$less@E@2@V?$allocator@U?$pair@$$CBEV?$vector@VCPoint@@V?$allocator@VCPoint@@@std@@@std@@@std@@@2@$0A@@std@@@2@PAU342@@Z
_TEXT	SEGMENT PARA USE32 PUBLIC 'CODE'
_TEXT	ENDS
;	COMDAT ?_Right@?$_Tree@V?$_Tmap_traits@EV?$vector@VCPoint@@V?$allocator@VCPoint@@@std@@@std@@U?$less@E@2@V?$allocator@U?$pair@$$CBEV?$vector@VCPoint@@V?$allocator@VCPoint@@@std@@@std@@@std@@@2@$0A@@std@@@std@@KAAAPAU_Node@?$_Tree_nod@V?$_Tmap_traits@EV?$vector@VCPoint@@V?$allocator@VCPoint@@@std@@@std@@U?$less@E@2@V?$allocator@U?$pair@$$CBEV?$vector@VCPoint@@V?$allocator@VCPoint@@@std@@@std@@@std@@@2@$0A@@std@@@2@PAU342@@Z
_TEXT	SEGMENT PARA USE32 PUBLIC 'CODE'
_TEXT	ENDS
;	COMDAT ??0?$_Tree@V?$_Tmap_traits@EV?$vector@VCPoint@@V?$allocator@VCPoint@@@std@@@std@@U?$less@E@2@V?$allocator@U?$pair@$$CBEV?$vector@VCPoint@@V?$allocator@VCPoint@@@std@@@std@@@std@@@2@$0A@@std@@@std@@QAE@ABU?$less@E@1@ABV?$allocator@U?$pair@$$CBEV?$vector@VCPoint@@V?$allocator@VCPoint@@@std@@@std@@@std@@@1@@Z
_TEXT	SEGMENT PARA USE32 PUBLIC 'CODE'
_TEXT	ENDS
;	COMDAT ?_Erase@?$_Tree@V?$_Tmap_traits@EV?$vector@VCPoint@@V?$allocator@VCPoint@@@std@@@std@@U?$less@E@2@V?$allocator@U?$pair@$$CBEV?$vector@VCPoint@@V?$allocator@VCPoint@@@std@@@std@@@std@@@2@$0A@@std@@@std@@IAEXPAU_Node@?$_Tree_nod@V?$_Tmap_traits@EV?$vector@VCPoint@@V?$allocator@VCPoint@@@std@@@std@@U?$less@E@2@V?$allocator@U?$pair@$$CBEV?$vector@VCPoint@@V?$allocator@VCPoint@@@std@@@std@@@std@@@2@$0A@@std@@@2@@Z
_TEXT	SEGMENT PARA USE32 PUBLIC 'CODE'
_TEXT	ENDS
;	COMDAT ?_Insert@?$_Tree@V?$_Tmap_traits@EV?$vector@VCPoint@@V?$allocator@VCPoint@@@std@@@std@@U?$less@E@2@V?$allocator@U?$pair@$$CBEV?$vector@VCPoint@@V?$allocator@VCPoint@@@std@@@std@@@std@@@2@$0A@@std@@@std@@IAE?AViterator@12@_NPAU_Node@?$_Tree_nod@V?$_Tmap_traits@EV?$vector@VCPoint@@V?$allocator@VCPoint@@@std@@@std@@U?$less@E@2@V?$allocator@U?$pair@$$CBEV?$vector@VCPoint@@V?$allocator@VCPoint@@@std@@@std@@@std@@@2@$0A@@std@@@2@ABU?$pair@$$CBEV?$vector@VCPoint@@V?$allocator@VCPoint@@@std@@@std@@@2@@Z
_TEXT	SEGMENT PARA USE32 PUBLIC 'CODE'
_TEXT	ENDS
;	COMDAT ?_Lmost@?$_Tree@V?$_Tmap_traits@EV?$vector@VCPoint@@V?$allocator@VCPoint@@@std@@@std@@U?$less@E@2@V?$allocator@U?$pair@$$CBEV?$vector@VCPoint@@V?$allocator@VCPoint@@@std@@@std@@@std@@@2@$0A@@std@@@std@@IAEAAPAU_Node@?$_Tree_nod@V?$_Tmap_traits@EV?$vector@VCPoint@@V?$allocator@VCPoint@@@std@@@std@@U?$less@E@2@V?$allocator@U?$pair@$$CBEV?$vector@VCPoint@@V?$allocator@VCPoint@@@std@@@std@@@std@@@2@$0A@@std@@@2@XZ
_TEXT	SEGMENT PARA USE32 PUBLIC 'CODE'
_TEXT	ENDS
;	COMDAT ?_Rmost@?$_Tree@V?$_Tmap_traits@EV?$vector@VCPoint@@V?$allocator@VCPoint@@@std@@@std@@U?$less@E@2@V?$allocator@U?$pair@$$CBEV?$vector@VCPoint@@V?$allocator@VCPoint@@@std@@@std@@@std@@@2@$0A@@std@@@std@@IAEAAPAU_Node@?$_Tree_nod@V?$_Tmap_traits@EV?$vector@VCPoint@@V?$allocator@VCPoint@@@std@@@std@@U?$less@E@2@V?$allocator@U?$pair@$$CBEV?$vector@VCPoint@@V?$allocator@VCPoint@@@std@@@std@@@std@@@2@$0A@@std@@@2@XZ
_TEXT	SEGMENT PARA USE32 PUBLIC 'CODE'
_TEXT	ENDS
;	COMDAT ?_Root@?$_Tree@V?$_Tmap_traits@EV?$vector@VCPoint@@V?$allocator@VCPoint@@@std@@@std@@U?$less@E@2@V?$allocator@U?$pair@$$CBEV?$vector@VCPoint@@V?$allocator@VCPoint@@@std@@@std@@@std@@@2@$0A@@std@@@std@@IAEAAPAU_Node@?$_Tree_nod@V?$_Tmap_traits@EV?$vector@VCPoint@@V?$allocator@VCPoint@@@std@@@std@@U?$less@E@2@V?$allocator@U?$pair@$$CBEV?$vector@VCPoint@@V?$allocator@VCPoint@@@std@@@std@@@std@@@2@$0A@@std@@@2@XZ
_TEXT	SEGMENT PARA USE32 PUBLIC 'CODE'
_TEXT	ENDS
;	COMDAT ?_Tidy@?$_Tree@V?$_Tmap_traits@EV?$vector@VCPoint@@V?$allocator@VCPoint@@@std@@@std@@U?$less@E@2@V?$allocator@U?$pair@$$CBEV?$vector@VCPoint@@V?$allocator@VCPoint@@@std@@@std@@@std@@@2@$0A@@std@@@std@@IAEXXZ
_TEXT	SEGMENT PARA USE32 PUBLIC 'CODE'
_TEXT	ENDS
;	COMDAT ?_Kfn@?$_Tmap_traits@EV?$vector@VCPoint@@V?$allocator@VCPoint@@@std@@@std@@U?$less@E@2@V?$allocator@U?$pair@$$CBEV?$vector@VCPoint@@V?$allocator@VCPoint@@@std@@@std@@@std@@@2@$0A@@std@@SAABEABU?$pair@$$CBEV?$vector@VCPoint@@V?$allocator@VCPoint@@@std@@@std@@@2@@Z
_TEXT	SEGMENT PARA USE32 PUBLIC 'CODE'
_TEXT	ENDS
;	COMDAT ??0?$allocator@U?$pair@$$CBEV?$vector@VCPoint@@V?$allocator@VCPoint@@@std@@@std@@@std@@@std@@QAE@XZ
_TEXT	SEGMENT PARA USE32 PUBLIC 'CODE'
_TEXT	ENDS
;	COMDAT ?capacity@?$vector@VCPoint@@V?$allocator@VCPoint@@@std@@@std@@QBEIXZ
_TEXT	SEGMENT PARA USE32 PUBLIC 'CODE'
_TEXT	ENDS
;	COMDAT ?begin@?$vector@VCPoint@@V?$allocator@VCPoint@@@std@@@std@@QAE?AViterator@12@XZ
_TEXT	SEGMENT PARA USE32 PUBLIC 'CODE'
_TEXT	ENDS
;	COMDAT ?begin@?$vector@VCPoint@@V?$allocator@VCPoint@@@std@@@std@@QBE?AVconst_iterator@12@XZ
_TEXT	SEGMENT PARA USE32 PUBLIC 'CODE'
_TEXT	ENDS
;	COMDAT ?end@?$vector@VCPoint@@V?$allocator@VCPoint@@@std@@@std@@QAE?AViterator@12@XZ
_TEXT	SEGMENT PARA USE32 PUBLIC 'CODE'
_TEXT	ENDS
;	COMDAT ?end@?$vector@VCPoint@@V?$allocator@VCPoint@@@std@@@std@@QBE?AVconst_iterator@12@XZ
_TEXT	SEGMENT PARA USE32 PUBLIC 'CODE'
_TEXT	ENDS
;	COMDAT ?insert@?$vector@VCPoint@@V?$allocator@VCPoint@@@std@@@std@@QAE?AViterator@12@V312@ABVCPoint@@@Z
_TEXT	SEGMENT PARA USE32 PUBLIC 'CODE'
_TEXT	ENDS
;	COMDAT ?_Buy@?$vector@VCPoint@@V?$allocator@VCPoint@@@std@@@std@@IAE_NI@Z
_TEXT	SEGMENT PARA USE32 PUBLIC 'CODE'
_TEXT	ENDS
;	COMDAT ?_Destroy@?$vector@VCPoint@@V?$allocator@VCPoint@@@std@@@std@@IAEXPAVCPoint@@0@Z
_TEXT	SEGMENT PARA USE32 PUBLIC 'CODE'
_TEXT	ENDS
;	COMDAT ?_Tidy@?$vector@VCPoint@@V?$allocator@VCPoint@@@std@@@std@@IAEXXZ
_TEXT	SEGMENT PARA USE32 PUBLIC 'CODE'
_TEXT	ENDS
;	COMDAT ?_Ufill@?$vector@VCPoint@@V?$allocator@VCPoint@@@std@@@std@@IAEPAVCPoint@@PAV3@IABV3@@Z
_TEXT	SEGMENT PARA USE32 PUBLIC 'CODE'
_TEXT	ENDS
;	COMDAT ??0?$_Vector_val@VCPoint@@V?$allocator@VCPoint@@@std@@@std@@IAE@V?$allocator@VCPoint@@@1@@Z
_TEXT	SEGMENT PARA USE32 PUBLIC 'CODE'
_TEXT	ENDS
;	COMDAT ??0?$allocator@VCPoint@@@std@@QAE@XZ
_TEXT	SEGMENT PARA USE32 PUBLIC 'CODE'
_TEXT	ENDS
;	COMDAT ??0?$allocator@VCPoint@@@std@@QAE@ABV01@@Z
_TEXT	SEGMENT PARA USE32 PUBLIC 'CODE'
_TEXT	ENDS
;	COMDAT ?deallocate@?$allocator@VCPoint@@@std@@QAEXPAVCPoint@@I@Z
_TEXT	SEGMENT PARA USE32 PUBLIC 'CODE'
_TEXT	ENDS
;	COMDAT ??0iterator@?$_Tree@V?$_Tmap_traits@EV?$vector@VCPoint@@V?$allocator@VCPoint@@@std@@@std@@U?$less@E@2@V?$allocator@U?$pair@$$CBEV?$vector@VCPoint@@V?$allocator@VCPoint@@@std@@@std@@@std@@@2@$0A@@std@@@std@@QAE@XZ
_TEXT	SEGMENT PARA USE32 PUBLIC 'CODE'
_TEXT	ENDS
;	COMDAT ??0iterator@?$_Tree@V?$_Tmap_traits@EV?$vector@VCPoint@@V?$allocator@VCPoint@@@std@@@std@@U?$less@E@2@V?$allocator@U?$pair@$$CBEV?$vector@VCPoint@@V?$allocator@VCPoint@@@std@@@std@@@std@@@2@$0A@@std@@@std@@QAE@PAU_Node@?$_Tree_nod@V?$_Tmap_traits@EV?$vector@VCPoint@@V?$allocator@VCPoint@@@std@@@std@@U?$less@E@2@V?$allocator@U?$pair@$$CBEV?$vector@VCPoint@@V?$allocator@VCPoint@@@std@@@std@@@std@@@2@$0A@@std@@@2@@Z
_TEXT	SEGMENT PARA USE32 PUBLIC 'CODE'
_TEXT	ENDS
;	COMDAT ??Diterator@?$_Tree@V?$_Tmap_traits@EV?$vector@VCPoint@@V?$allocator@VCPoint@@@std@@@std@@U?$less@E@2@V?$allocator@U?$pair@$$CBEV?$vector@VCPoint@@V?$allocator@VCPoint@@@std@@@std@@@std@@@2@$0A@@std@@@std@@QBEAAU?$pair@$$CBEV?$vector@VCPoint@@V?$allocator@VCPoint@@@std@@@std@@@2@XZ
_TEXT	SEGMENT PARA USE32 PUBLIC 'CODE'
_TEXT	ENDS
;	COMDAT ??Fiterator@?$_Tree@V?$_Tmap_traits@EV?$vector@VCPoint@@V?$allocator@VCPoint@@@std@@@std@@U?$less@E@2@V?$allocator@U?$pair@$$CBEV?$vector@VCPoint@@V?$allocator@VCPoint@@@std@@@std@@@std@@@2@$0A@@std@@@std@@QAEAAV012@XZ
_TEXT	SEGMENT PARA USE32 PUBLIC 'CODE'
_TEXT	ENDS
;	COMDAT ??Econst_iterator@?$_Tree@V?$_Tmap_traits@EV?$vector@VCPoint@@V?$allocator@VCPoint@@@std@@@std@@U?$less@E@2@V?$allocator@U?$pair@$$CBEV?$vector@VCPoint@@V?$allocator@VCPoint@@@std@@@std@@@std@@@2@$0A@@std@@@std@@QAEAAV012@XZ
_TEXT	SEGMENT PARA USE32 PUBLIC 'CODE'
_TEXT	ENDS
;	COMDAT ??8const_iterator@?$_Tree@V?$_Tmap_traits@EV?$vector@VCPoint@@V?$allocator@VCPoint@@@std@@@std@@U?$less@E@2@V?$allocator@U?$pair@$$CBEV?$vector@VCPoint@@V?$allocator@VCPoint@@@std@@@std@@@std@@@2@$0A@@std@@@std@@QBE_NABV012@@Z
_TEXT	SEGMENT PARA USE32 PUBLIC 'CODE'
_TEXT	ENDS
;	COMDAT ?_Mynode@const_iterator@?$_Tree@V?$_Tmap_traits@EV?$vector@VCPoint@@V?$allocator@VCPoint@@@std@@@std@@U?$less@E@2@V?$allocator@U?$pair@$$CBEV?$vector@VCPoint@@V?$allocator@VCPoint@@@std@@@std@@@std@@@2@$0A@@std@@@std@@QBEPAU_Node@?$_Tree_nod@V?$_Tmap_traits@EV?$vector@VCPoint@@V?$allocator@VCPoint@@@std@@@std@@U?$less@E@2@V?$allocator@U?$pair@$$CBEV?$vector@VCPoint@@V?$allocator@VCPoint@@@std@@@std@@@std@@@2@$0A@@std@@@3@XZ
_TEXT	SEGMENT PARA USE32 PUBLIC 'CODE'
_TEXT	ENDS
;	COMDAT ??0?$pair@Viterator@?$_Tree@V?$_Tmap_traits@EV?$vector@VCPoint@@V?$allocator@VCPoint@@@std@@@std@@U?$less@E@2@V?$allocator@U?$pair@$$CBEV?$vector@VCPoint@@V?$allocator@VCPoint@@@std@@@std@@@std@@@2@$0A@@std@@@std@@_N@std@@QAE@ABViterator@?$_Tree@V?$_Tmap_traits@EV?$vector@VCPoint@@V?$allocator@VCPoint@@@std@@@std@@U?$less@E@2@V?$allocator@U?$pair@$$CBEV?$vector@VCPoint@@V?$allocator@VCPoint@@@std@@@std@@@std@@@2@$0A@@std@@@1@AB_N@Z
_TEXT	SEGMENT PARA USE32 PUBLIC 'CODE'
_TEXT	ENDS
;	COMDAT ??Diterator@?$vector@VCPoint@@V?$allocator@VCPoint@@@std@@@std@@QBEAAVCPoint@@XZ
_TEXT	SEGMENT PARA USE32 PUBLIC 'CODE'
_TEXT	ENDS
;	COMDAT ??Hiterator@?$vector@VCPoint@@V?$allocator@VCPoint@@@std@@@std@@QBE?AV012@H@Z
_TEXT	SEGMENT PARA USE32 PUBLIC 'CODE'
_TEXT	ENDS
;	COMDAT ?StringCompare@?$ChTraitsCRT@D@ATL@@SAHPBD0@Z
_TEXT	SEGMENT PARA USE32 PUBLIC 'CODE'
_TEXT	ENDS
;	COMDAT ?pop_back@?$deque@PAUtagACTMSG@@V?$allocator@PAUtagACTMSG@@@std@@@std@@QAEXXZ
_TEXT	SEGMENT PARA USE32 PUBLIC 'CODE'
_TEXT	ENDS
;	COMDAT ??0?$_Deque_map@PAUtagACTMSG@@V?$allocator@PAUtagACTMSG@@@std@@@std@@IAE@V?$allocator@PAUtagACTMSG@@@1@@Z
_TEXT	SEGMENT PARA USE32 PUBLIC 'CODE'
_TEXT	ENDS
;	COMDAT ??0?$allocator@PAUtagACTMSG@@@std@@QAE@ABV01@@Z
_TEXT	SEGMENT PARA USE32 PUBLIC 'CODE'
_TEXT	ENDS
;	COMDAT ?deallocate@?$allocator@PAUtagACTMSG@@@std@@QAEXPAPAUtagACTMSG@@I@Z
_TEXT	SEGMENT PARA USE32 PUBLIC 'CODE'
_TEXT	ENDS
;	COMDAT ?deallocate@?$allocator@PAPAUtagACTMSG@@@std@@QAEXPAPAPAUtagACTMSG@@I@Z
_TEXT	SEGMENT PARA USE32 PUBLIC 'CODE'
_TEXT	ENDS
;	COMDAT ?destroy@?$allocator@PAPAUtagACTMSG@@@std@@QAEXPAPAPAUtagACTMSG@@@Z
_TEXT	SEGMENT PARA USE32 PUBLIC 'CODE'
_TEXT	ENDS
;	COMDAT ?pop_back@?$deque@PAUtagMAGICATKMSG@@V?$allocator@PAUtagMAGICATKMSG@@@std@@@std@@QAEXXZ
_TEXT	SEGMENT PARA USE32 PUBLIC 'CODE'
_TEXT	ENDS
;	COMDAT ??0?$_Deque_map@PAUtagMAGICATKMSG@@V?$allocator@PAUtagMAGICATKMSG@@@std@@@std@@IAE@V?$allocator@PAUtagMAGICATKMSG@@@1@@Z
_TEXT	SEGMENT PARA USE32 PUBLIC 'CODE'
_TEXT	ENDS
;	COMDAT ??0?$allocator@PAUtagMAGICATKMSG@@@std@@QAE@ABV01@@Z
_TEXT	SEGMENT PARA USE32 PUBLIC 'CODE'
_TEXT	ENDS
;	COMDAT ?deallocate@?$allocator@PAUtagMAGICATKMSG@@@std@@QAEXPAPAUtagMAGICATKMSG@@I@Z
_TEXT	SEGMENT PARA USE32 PUBLIC 'CODE'
_TEXT	ENDS
;	COMDAT ?deallocate@?$allocator@PAPAUtagMAGICATKMSG@@@std@@QAEXPAPAPAUtagMAGICATKMSG@@I@Z
_TEXT	SEGMENT PARA USE32 PUBLIC 'CODE'
_TEXT	ENDS
;	COMDAT ?destroy@?$allocator@PAPAUtagMAGICATKMSG@@@std@@QAEXPAPAPAUtagMAGICATKMSG@@@Z
_TEXT	SEGMENT PARA USE32 PUBLIC 'CODE'
_TEXT	ENDS
;	COMDAT ??0const_iterator@?$deque@PAUtagACTMSG@@V?$allocator@PAUtagACTMSG@@@std@@@std@@QAE@IPBV12@@Z
_TEXT	SEGMENT PARA USE32 PUBLIC 'CODE'
_TEXT	ENDS
;	COMDAT ??0const_iterator@?$deque@PAUtagMAGICATKMSG@@V?$allocator@PAUtagMAGICATKMSG@@@std@@@std@@QAE@IPBV12@@Z
_TEXT	SEGMENT PARA USE32 PUBLIC 'CODE'
_TEXT	ENDS
;	COMDAT ?_Color@?$_Tree@V?$_Tmap_traits@EV?$vector@VCPoint@@V?$allocator@VCPoint@@@std@@@std@@U?$less@E@2@V?$allocator@U?$pair@$$CBEV?$vector@VCPoint@@V?$allocator@VCPoint@@@std@@@std@@@std@@@2@$0A@@std@@@std@@KAAADPAU_Node@?$_Tree_nod@V?$_Tmap_traits@EV?$vector@VCPoint@@V?$allocator@VCPoint@@@std@@@std@@U?$less@E@2@V?$allocator@U?$pair@$$CBEV?$vector@VCPoint@@V?$allocator@VCPoint@@@std@@@std@@@std@@@2@$0A@@std@@@2@@Z
_TEXT	SEGMENT PARA USE32 PUBLIC 'CODE'
_TEXT	ENDS
;	COMDAT ?_Parent@?$_Tree@V?$_Tmap_traits@EV?$vector@VCPoint@@V?$allocator@VCPoint@@@std@@@std@@U?$less@E@2@V?$allocator@U?$pair@$$CBEV?$vector@VCPoint@@V?$allocator@VCPoint@@@std@@@std@@@std@@@2@$0A@@std@@@std@@KAAAPAU_Node@?$_Tree_nod@V?$_Tmap_traits@EV?$vector@VCPoint@@V?$allocator@VCPoint@@@std@@@std@@U?$less@E@2@V?$allocator@U?$pair@$$CBEV?$vector@VCPoint@@V?$allocator@VCPoint@@@std@@@std@@@std@@@2@$0A@@std@@@2@PAU342@@Z
_TEXT	SEGMENT PARA USE32 PUBLIC 'CODE'
_TEXT	ENDS
;	COMDAT ?_Myval@?$_Tree@V?$_Tmap_traits@EV?$vector@VCPoint@@V?$allocator@VCPoint@@@std@@@std@@U?$less@E@2@V?$allocator@U?$pair@$$CBEV?$vector@VCPoint@@V?$allocator@VCPoint@@@std@@@std@@@std@@@2@$0A@@std@@@std@@KAAAU?$pair@$$CBEV?$vector@VCPoint@@V?$allocator@VCPoint@@@std@@@std@@@2@PAU_Node@?$_Tree_nod@V?$_Tmap_traits@EV?$vector@VCPoint@@V?$allocator@VCPoint@@@std@@@std@@U?$less@E@2@V?$allocator@U?$pair@$$CBEV?$vector@VCPoint@@V?$allocator@VCPoint@@@std@@@std@@@std@@@2@$0A@@std@@@2@@Z
_TEXT	SEGMENT PARA USE32 PUBLIC 'CODE'
_TEXT	ENDS
;	COMDAT ?max_size@?$_Tree@V?$_Tmap_traits@EV?$vector@VCPoint@@V?$allocator@VCPoint@@@std@@@std@@U?$less@E@2@V?$allocator@U?$pair@$$CBEV?$vector@VCPoint@@V?$allocator@VCPoint@@@std@@@std@@@std@@@2@$0A@@std@@@std@@QBEIXZ
_TEXT	SEGMENT PARA USE32 PUBLIC 'CODE'
_TEXT	ENDS
;	COMDAT ?erase@?$_Tree@V?$_Tmap_traits@EV?$vector@VCPoint@@V?$allocator@VCPoint@@@std@@@std@@U?$less@E@2@V?$allocator@U?$pair@$$CBEV?$vector@VCPoint@@V?$allocator@VCPoint@@@std@@@std@@@std@@@2@$0A@@std@@@std@@QAE?AViterator@12@V312@0@Z
_TEXT	SEGMENT PARA USE32 PUBLIC 'CODE'
_TEXT	ENDS
;	COMDAT ?_Init@?$_Tree@V?$_Tmap_traits@EV?$vector@VCPoint@@V?$allocator@VCPoint@@@std@@@std@@U?$less@E@2@V?$allocator@U?$pair@$$CBEV?$vector@VCPoint@@V?$allocator@VCPoint@@@std@@@std@@@std@@@2@$0A@@std@@@std@@IAEXXZ
_TEXT	SEGMENT PARA USE32 PUBLIC 'CODE'
_TEXT	ENDS
;	COMDAT ?_Lrotate@?$_Tree@V?$_Tmap_traits@EV?$vector@VCPoint@@V?$allocator@VCPoint@@@std@@@std@@U?$less@E@2@V?$allocator@U?$pair@$$CBEV?$vector@VCPoint@@V?$allocator@VCPoint@@@std@@@std@@@std@@@2@$0A@@std@@@std@@IAEXPAU_Node@?$_Tree_nod@V?$_Tmap_traits@EV?$vector@VCPoint@@V?$allocator@VCPoint@@@std@@@std@@U?$less@E@2@V?$allocator@U?$pair@$$CBEV?$vector@VCPoint@@V?$allocator@VCPoint@@@std@@@std@@@std@@@2@$0A@@std@@@2@@Z
_TEXT	SEGMENT PARA USE32 PUBLIC 'CODE'
_TEXT	ENDS
;	COMDAT ?_Rrotate@?$_Tree@V?$_Tmap_traits@EV?$vector@VCPoint@@V?$allocator@VCPoint@@@std@@@std@@U?$less@E@2@V?$allocator@U?$pair@$$CBEV?$vector@VCPoint@@V?$allocator@VCPoint@@@std@@@std@@@std@@@2@$0A@@std@@@std@@IAEXPAU_Node@?$_Tree_nod@V?$_Tmap_traits@EV?$vector@VCPoint@@V?$allocator@VCPoint@@@std@@@std@@U?$less@E@2@V?$allocator@U?$pair@$$CBEV?$vector@VCPoint@@V?$allocator@VCPoint@@@std@@@std@@@std@@@2@$0A@@std@@@2@@Z
_TEXT	SEGMENT PARA USE32 PUBLIC 'CODE'
_TEXT	ENDS
;	COMDAT ?_Buynode@?$_Tree@V?$_Tmap_traits@EV?$vector@VCPoint@@V?$allocator@VCPoint@@@std@@@std@@U?$less@E@2@V?$allocator@U?$pair@$$CBEV?$vector@VCPoint@@V?$allocator@VCPoint@@@std@@@std@@@std@@@2@$0A@@std@@@std@@IAEPAU_Node@?$_Tree_nod@V?$_Tmap_traits@EV?$vector@VCPoint@@V?$allocator@VCPoint@@@std@@@std@@U?$less@E@2@V?$allocator@U?$pair@$$CBEV?$vector@VCPoint@@V?$allocator@VCPoint@@@std@@@std@@@std@@@2@$0A@@std@@@2@PAU342@00ABU?$pair@$$CBEV?$vector@VCPoint@@V?$allocator@VCPoint@@@std@@@std@@@2@D@Z
_TEXT	SEGMENT PARA USE32 PUBLIC 'CODE'
_TEXT	ENDS
;	COMDAT ??0?$_Tree_val@V?$_Tmap_traits@EV?$vector@VCPoint@@V?$allocator@VCPoint@@@std@@@std@@U?$less@E@2@V?$allocator@U?$pair@$$CBEV?$vector@VCPoint@@V?$allocator@VCPoint@@@std@@@std@@@std@@@2@$0A@@std@@@std@@IAE@ABU?$less@E@1@V?$allocator@U?$pair@$$CBEV?$vector@VCPoint@@V?$allocator@VCPoint@@@std@@@std@@@std@@@1@@Z
_TEXT	SEGMENT PARA USE32 PUBLIC 'CODE'
_TEXT	ENDS
;	COMDAT ??0?$allocator@U?$pair@$$CBEV?$vector@VCPoint@@V?$allocator@VCPoint@@@std@@@std@@@std@@@std@@QAE@ABV01@@Z
_TEXT	SEGMENT PARA USE32 PUBLIC 'CODE'
_TEXT	ENDS
;	COMDAT ?deallocate@?$allocator@U_Node@?$_Tree_nod@V?$_Tmap_traits@EV?$vector@VCPoint@@V?$allocator@VCPoint@@@std@@@std@@U?$less@E@2@V?$allocator@U?$pair@$$CBEV?$vector@VCPoint@@V?$allocator@VCPoint@@@std@@@std@@@std@@@2@$0A@@std@@@std@@@std@@QAEXPAU_Node@?$_Tree_nod@V?$_Tmap_traits@EV?$vector@VCPoint@@V?$allocator@VCPoint@@@std@@@std@@U?$less@E@2@V?$allocator@U?$pair@$$CBEV?$vector@VCPoint@@V?$allocator@VCPoint@@@std@@@std@@@std@@@2@$0A@@std@@@2@I@Z
_TEXT	SEGMENT PARA USE32 PUBLIC 'CODE'
_TEXT	ENDS
;	COMDAT ?destroy@?$allocator@U_Node@?$_Tree_nod@V?$_Tmap_traits@EV?$vector@VCPoint@@V?$allocator@VCPoint@@@std@@@std@@U?$less@E@2@V?$allocator@U?$pair@$$CBEV?$vector@VCPoint@@V?$allocator@VCPoint@@@std@@@std@@@std@@@2@$0A@@std@@@std@@@std@@QAEXPAU_Node@?$_Tree_nod@V?$_Tmap_traits@EV?$vector@VCPoint@@V?$allocator@VCPoint@@@std@@@std@@U?$less@E@2@V?$allocator@U?$pair@$$CBEV?$vector@VCPoint@@V?$allocator@VCPoint@@@std@@@std@@@std@@@2@$0A@@std@@@2@@Z
_TEXT	SEGMENT PARA USE32 PUBLIC 'CODE'
_TEXT	ENDS
;	COMDAT ?destroy@?$allocator@PAU_Node@?$_Tree_nod@V?$_Tmap_traits@EV?$vector@VCPoint@@V?$allocator@VCPoint@@@std@@@std@@U?$less@E@2@V?$allocator@U?$pair@$$CBEV?$vector@VCPoint@@V?$allocator@VCPoint@@@std@@@std@@@std@@@2@$0A@@std@@@std@@@std@@QAEXPAPAU_Node@?$_Tree_nod@V?$_Tmap_traits@EV?$vector@VCPoint@@V?$allocator@VCPoint@@@std@@@std@@U?$less@E@2@V?$allocator@U?$pair@$$CBEV?$vector@VCPoint@@V?$allocator@VCPoint@@@std@@@std@@@std@@@2@$0A@@std@@@2@@Z
_TEXT	SEGMENT PARA USE32 PUBLIC 'CODE'
_TEXT	ENDS
;	COMDAT ?max_size@?$vector@VCPoint@@V?$allocator@VCPoint@@@std@@@std@@QBEIXZ
_TEXT	SEGMENT PARA USE32 PUBLIC 'CODE'
_TEXT	ENDS
;	COMDAT ?_Insert_n@?$vector@VCPoint@@V?$allocator@VCPoint@@@std@@@std@@IAEXViterator@12@IABVCPoint@@@Z
_TEXT	SEGMENT PARA USE32 PUBLIC 'CODE'
_TEXT	ENDS
;	COMDAT ?_Xlen@?$vector@VCPoint@@V?$allocator@VCPoint@@@std@@@std@@IBEXXZ
_TEXT	SEGMENT PARA USE32 PUBLIC 'CODE'
_TEXT	ENDS
;	COMDAT ?allocate@?$allocator@VCPoint@@@std@@QAEPAVCPoint@@I@Z
_TEXT	SEGMENT PARA USE32 PUBLIC 'CODE'
_TEXT	ENDS
;	COMDAT ??0const_iterator@?$_Tree@V?$_Tmap_traits@EV?$vector@VCPoint@@V?$allocator@VCPoint@@@std@@@std@@U?$less@E@2@V?$allocator@U?$pair@$$CBEV?$vector@VCPoint@@V?$allocator@VCPoint@@@std@@@std@@@std@@@2@$0A@@std@@@std@@QAE@XZ
_TEXT	SEGMENT PARA USE32 PUBLIC 'CODE'
_TEXT	ENDS
;	COMDAT ??0const_iterator@?$_Tree@V?$_Tmap_traits@EV?$vector@VCPoint@@V?$allocator@VCPoint@@@std@@@std@@U?$less@E@2@V?$allocator@U?$pair@$$CBEV?$vector@VCPoint@@V?$allocator@VCPoint@@@std@@@std@@@std@@@2@$0A@@std@@@std@@QAE@PAU_Node@?$_Tree_nod@V?$_Tmap_traits@EV?$vector@VCPoint@@V?$allocator@VCPoint@@@std@@@std@@U?$less@E@2@V?$allocator@U?$pair@$$CBEV?$vector@VCPoint@@V?$allocator@VCPoint@@@std@@@std@@@std@@@2@$0A@@std@@@2@@Z
_TEXT	SEGMENT PARA USE32 PUBLIC 'CODE'
_TEXT	ENDS
;	COMDAT ??Dconst_iterator@?$_Tree@V?$_Tmap_traits@EV?$vector@VCPoint@@V?$allocator@VCPoint@@@std@@@std@@U?$less@E@2@V?$allocator@U?$pair@$$CBEV?$vector@VCPoint@@V?$allocator@VCPoint@@@std@@@std@@@std@@@2@$0A@@std@@@std@@QBEABU?$pair@$$CBEV?$vector@VCPoint@@V?$allocator@VCPoint@@@std@@@std@@@2@XZ
_TEXT	SEGMENT PARA USE32 PUBLIC 'CODE'
_TEXT	ENDS
;	COMDAT ??Fconst_iterator@?$_Tree@V?$_Tmap_traits@EV?$vector@VCPoint@@V?$allocator@VCPoint@@@std@@@std@@U?$less@E@2@V?$allocator@U?$pair@$$CBEV?$vector@VCPoint@@V?$allocator@VCPoint@@@std@@@std@@@std@@@2@$0A@@std@@@std@@QAEAAV012@XZ
_TEXT	SEGMENT PARA USE32 PUBLIC 'CODE'
_TEXT	ENDS
;	COMDAT ?_Inc@const_iterator@?$_Tree@V?$_Tmap_traits@EV?$vector@VCPoint@@V?$allocator@VCPoint@@@std@@@std@@U?$less@E@2@V?$allocator@U?$pair@$$CBEV?$vector@VCPoint@@V?$allocator@VCPoint@@@std@@@std@@@std@@@2@$0A@@std@@@std@@QAEXXZ
_TEXT	SEGMENT PARA USE32 PUBLIC 'CODE'
_TEXT	ENDS
;	COMDAT ??0const_iterator@?$vector@VCPoint@@V?$allocator@VCPoint@@@std@@@std@@QAE@PAVCPoint@@@Z
_TEXT	SEGMENT PARA USE32 PUBLIC 'CODE'
_TEXT	ENDS
;	COMDAT ??Dconst_iterator@?$vector@VCPoint@@V?$allocator@VCPoint@@@std@@@std@@QBEABVCPoint@@XZ
_TEXT	SEGMENT PARA USE32 PUBLIC 'CODE'
_TEXT	ENDS
;	COMDAT ??0iterator@?$vector@VCPoint@@V?$allocator@VCPoint@@@std@@@std@@QAE@PAVCPoint@@@Z
_TEXT	SEGMENT PARA USE32 PUBLIC 'CODE'
_TEXT	ENDS
;	COMDAT ??Yiterator@?$vector@VCPoint@@V?$allocator@VCPoint@@@std@@@std@@QAEAAV012@H@Z
_TEXT	SEGMENT PARA USE32 PUBLIC 'CODE'
_TEXT	ENDS
;	COMDAT ??Giterator@?$vector@VCPoint@@V?$allocator@VCPoint@@@std@@@std@@QBEHABVconst_iterator@12@@Z
_TEXT	SEGMENT PARA USE32 PUBLIC 'CODE'
_TEXT	ENDS
;	COMDAT ?destroy@?$allocator@PAUtagACTMSG@@@std@@QAEXPAPAUtagACTMSG@@@Z
_TEXT	SEGMENT PARA USE32 PUBLIC 'CODE'
_TEXT	ENDS
;	COMDAT ?destroy@?$allocator@PAUtagMAGICATKMSG@@@std@@QAEXPAPAUtagMAGICATKMSG@@@Z
_TEXT	SEGMENT PARA USE32 PUBLIC 'CODE'
_TEXT	ENDS
;	COMDAT ?erase@?$_Tree@V?$_Tmap_traits@EV?$vector@VCPoint@@V?$allocator@VCPoint@@@std@@@std@@U?$less@E@2@V?$allocator@U?$pair@$$CBEV?$vector@VCPoint@@V?$allocator@VCPoint@@@std@@@std@@@std@@@2@$0A@@std@@@std@@QAE?AViterator@12@V312@@Z
_TEXT	SEGMENT PARA USE32 PUBLIC 'CODE'
_TEXT	ENDS
;	COMDAT ?_Min@?$_Tree@V?$_Tmap_traits@EV?$vector@VCPoint@@V?$allocator@VCPoint@@@std@@@std@@U?$less@E@2@V?$allocator@U?$pair@$$CBEV?$vector@VCPoint@@V?$allocator@VCPoint@@@std@@@std@@@std@@@2@$0A@@std@@@std@@KAPAU_Node@?$_Tree_nod@V?$_Tmap_traits@EV?$vector@VCPoint@@V?$allocator@VCPoint@@@std@@@std@@U?$less@E@2@V?$allocator@U?$pair@$$CBEV?$vector@VCPoint@@V?$allocator@VCPoint@@@std@@@std@@@std@@@2@$0A@@std@@@2@PAU342@@Z
_TEXT	SEGMENT PARA USE32 PUBLIC 'CODE'
_TEXT	ENDS
;	COMDAT ?_Buynode@?$_Tree@V?$_Tmap_traits@EV?$vector@VCPoint@@V?$allocator@VCPoint@@@std@@@std@@U?$less@E@2@V?$allocator@U?$pair@$$CBEV?$vector@VCPoint@@V?$allocator@VCPoint@@@std@@@std@@@std@@@2@$0A@@std@@@std@@IAEPAU_Node@?$_Tree_nod@V?$_Tmap_traits@EV?$vector@VCPoint@@V?$allocator@VCPoint@@@std@@@std@@U?$less@E@2@V?$allocator@U?$pair@$$CBEV?$vector@VCPoint@@V?$allocator@VCPoint@@@std@@@std@@@std@@@2@$0A@@std@@@2@XZ
_TEXT	SEGMENT PARA USE32 PUBLIC 'CODE'
_TEXT	ENDS
;	COMDAT ??0?$_Tree_ptr@V?$_Tmap_traits@EV?$vector@VCPoint@@V?$allocator@VCPoint@@@std@@@std@@U?$less@E@2@V?$allocator@U?$pair@$$CBEV?$vector@VCPoint@@V?$allocator@VCPoint@@@std@@@std@@@std@@@2@$0A@@std@@@std@@IAE@ABU?$less@E@1@V?$allocator@U?$pair@$$CBEV?$vector@VCPoint@@V?$allocator@VCPoint@@@std@@@std@@@std@@@1@@Z
_TEXT	SEGMENT PARA USE32 PUBLIC 'CODE'
_TEXT	ENDS
;	COMDAT ?max_size@?$allocator@U?$pair@$$CBEV?$vector@VCPoint@@V?$allocator@VCPoint@@@std@@@std@@@std@@@std@@QBEIXZ
_TEXT	SEGMENT PARA USE32 PUBLIC 'CODE'
_TEXT	ENDS
;	COMDAT ?allocate@?$allocator@U_Node@?$_Tree_nod@V?$_Tmap_traits@EV?$vector@VCPoint@@V?$allocator@VCPoint@@@std@@@std@@U?$less@E@2@V?$allocator@U?$pair@$$CBEV?$vector@VCPoint@@V?$allocator@VCPoint@@@std@@@std@@@std@@@2@$0A@@std@@@std@@@std@@QAEPAU_Node@?$_Tree_nod@V?$_Tmap_traits@EV?$vector@VCPoint@@V?$allocator@VCPoint@@@std@@@std@@U?$less@E@2@V?$allocator@U?$pair@$$CBEV?$vector@VCPoint@@V?$allocator@VCPoint@@@std@@@std@@@std@@@2@$0A@@std@@@2@I@Z
_TEXT	SEGMENT PARA USE32 PUBLIC 'CODE'
_TEXT	ENDS
;	COMDAT ?max_size@?$allocator@VCPoint@@@std@@QBEIXZ
_TEXT	SEGMENT PARA USE32 PUBLIC 'CODE'
_TEXT	ENDS
;	COMDAT ??Eiterator@?$_Tree@V?$_Tmap_traits@EV?$vector@VCPoint@@V?$allocator@VCPoint@@@std@@@std@@U?$less@E@2@V?$allocator@U?$pair@$$CBEV?$vector@VCPoint@@V?$allocator@VCPoint@@@std@@@std@@@std@@@2@$0A@@std@@@std@@QAE?AV012@H@Z
_TEXT	SEGMENT PARA USE32 PUBLIC 'CODE'
_TEXT	ENDS
;	COMDAT ?_Dec@const_iterator@?$_Tree@V?$_Tmap_traits@EV?$vector@VCPoint@@V?$allocator@VCPoint@@@std@@@std@@U?$less@E@2@V?$allocator@U?$pair@$$CBEV?$vector@VCPoint@@V?$allocator@VCPoint@@@std@@@std@@@std@@@2@$0A@@std@@@std@@QAEXXZ
_TEXT	SEGMENT PARA USE32 PUBLIC 'CODE'
_TEXT	ENDS
;	COMDAT ??Gconst_iterator@?$vector@VCPoint@@V?$allocator@VCPoint@@@std@@@std@@QBEHABV012@@Z
_TEXT	SEGMENT PARA USE32 PUBLIC 'CODE'
_TEXT	ENDS
;	COMDAT ??0_Node@?$_Tree_nod@V?$_Tmap_traits@EV?$vector@VCPoint@@V?$allocator@VCPoint@@@std@@@std@@U?$less@E@2@V?$allocator@U?$pair@$$CBEV?$vector@VCPoint@@V?$allocator@VCPoint@@@std@@@std@@@std@@@2@$0A@@std@@@std@@QAE@PAU012@00ABU?$pair@$$CBEV?$vector@VCPoint@@V?$allocator@VCPoint@@@std@@@std@@@2@D@Z
_TEXT	SEGMENT PARA USE32 PUBLIC 'CODE'
_TEXT	ENDS
;	COMDAT ??0?$pair@$$CBEV?$vector@VCPoint@@V?$allocator@VCPoint@@@std@@@std@@@std@@QAE@ABU01@@Z
_TEXT	SEGMENT PARA USE32 PUBLIC 'CODE'
_TEXT	ENDS
;	COMDAT ?_Max@?$_Tree@V?$_Tmap_traits@EV?$vector@VCPoint@@V?$allocator@VCPoint@@@std@@@std@@U?$less@E@2@V?$allocator@U?$pair@$$CBEV?$vector@VCPoint@@V?$allocator@VCPoint@@@std@@@std@@@std@@@2@$0A@@std@@@std@@KAPAU_Node@?$_Tree_nod@V?$_Tmap_traits@EV?$vector@VCPoint@@V?$allocator@VCPoint@@@std@@@std@@U?$less@E@2@V?$allocator@U?$pair@$$CBEV?$vector@VCPoint@@V?$allocator@VCPoint@@@std@@@std@@@std@@@2@$0A@@std@@@2@PAU342@@Z
_TEXT	SEGMENT PARA USE32 PUBLIC 'CODE'
_TEXT	ENDS
;	COMDAT ??0?$_Tree_nod@V?$_Tmap_traits@EV?$vector@VCPoint@@V?$allocator@VCPoint@@@std@@@std@@U?$less@E@2@V?$allocator@U?$pair@$$CBEV?$vector@VCPoint@@V?$allocator@VCPoint@@@std@@@std@@@std@@@2@$0A@@std@@@std@@IAE@ABU?$less@E@1@V?$allocator@U?$pair@$$CBEV?$vector@VCPoint@@V?$allocator@VCPoint@@@std@@@std@@@std@@@1@@Z
_TEXT	SEGMENT PARA USE32 PUBLIC 'CODE'
_TEXT	ENDS
;	COMDAT ?construct@?$allocator@PAU_Node@?$_Tree_nod@V?$_Tmap_traits@EV?$vector@VCPoint@@V?$allocator@VCPoint@@@std@@@std@@U?$less@E@2@V?$allocator@U?$pair@$$CBEV?$vector@VCPoint@@V?$allocator@VCPoint@@@std@@@std@@@std@@@2@$0A@@std@@@std@@@std@@QAEXPAPAU_Node@?$_Tree_nod@V?$_Tmap_traits@EV?$vector@VCPoint@@V?$allocator@VCPoint@@@std@@@std@@U?$less@E@2@V?$allocator@U?$pair@$$CBEV?$vector@VCPoint@@V?$allocator@VCPoint@@@std@@@std@@@std@@@2@$0A@@std@@@2@ABQAU342@@Z
_TEXT	SEGMENT PARA USE32 PUBLIC 'CODE'
_TEXT	ENDS
;	COMDAT ??0?$_Tmap_traits@EV?$vector@VCPoint@@V?$allocator@VCPoint@@@std@@@std@@U?$less@E@2@V?$allocator@U?$pair@$$CBEV?$vector@VCPoint@@V?$allocator@VCPoint@@@std@@@std@@@std@@@2@$0A@@std@@QAE@U?$less@E@1@@Z
_TEXT	SEGMENT PARA USE32 PUBLIC 'CODE'
_TEXT	ENDS
;	COMDAT ??$_Iter_cat@Vconst_iterator@?$vector@EV?$allocator@E@std@@@std@@@std@@YA?AUrandom_access_iterator_tag@0@ABVconst_iterator@?$vector@EV?$allocator@E@std@@@0@@Z
_TEXT	SEGMENT PARA USE32 PUBLIC 'CODE'
_TEXT	ENDS
;	COMDAT ??$_Assign@Vconst_iterator@?$vector@EV?$allocator@E@std@@@std@@@?$vector@EV?$allocator@E@std@@@std@@QAEXVconst_iterator@01@0Uinput_iterator_tag@1@@Z
_TEXT	SEGMENT PARA USE32 PUBLIC 'CODE'
_TEXT	ENDS
;	COMDAT ??$_Iter_cat@Viterator@?$_Tree@V?$_Tmap_traits@KPAVCUser@@U?$less@K@std@@V?$allocator@U?$pair@$$CBKPAVCUser@@@std@@@3@$0A@@std@@@std@@@std@@YA?AUbidirectional_iterator_tag@0@ABViterator@?$_Tree@V?$_Tmap_traits@KPAVCUser@@U?$less@K@std@@V?$allocator@U?$pair@$$CBKPAVCUser@@@std@@@3@$0A@@std@@@0@@Z
_TEXT	SEGMENT PARA USE32 PUBLIC 'CODE'
_TEXT	ENDS
;	COMDAT ??$_Distance2@Viterator@?$_Tree@V?$_Tmap_traits@KPAVCUser@@U?$less@K@std@@V?$allocator@U?$pair@$$CBKPAVCUser@@@std@@@3@$0A@@std@@@std@@I@std@@YAXViterator@?$_Tree@V?$_Tmap_traits@KPAVCUser@@U?$less@K@std@@V?$allocator@U?$pair@$$CBKPAVCUser@@@std@@@3@$0A@@std@@@0@0AAIUbidirectional_iterator_tag@0@@Z
_TEXT	SEGMENT PARA USE32 PUBLIC 'CODE'
_TEXT	ENDS
;	COMDAT ??$_Iter_cat@Viterator@?$_Tree@V?$_Tmap_traits@KPAVCCtrl@@U?$less@K@std@@V?$allocator@U?$pair@$$CBKPAVCCtrl@@@std@@@3@$0A@@std@@@std@@@std@@YA?AUbidirectional_iterator_tag@0@ABViterator@?$_Tree@V?$_Tmap_traits@KPAVCCtrl@@U?$less@K@std@@V?$allocator@U?$pair@$$CBKPAVCCtrl@@@std@@@3@$0A@@std@@@0@@Z
_TEXT	SEGMENT PARA USE32 PUBLIC 'CODE'
_TEXT	ENDS
;	COMDAT ??$_Distance2@Viterator@?$_Tree@V?$_Tmap_traits@KPAVCCtrl@@U?$less@K@std@@V?$allocator@U?$pair@$$CBKPAVCCtrl@@@std@@@3@$0A@@std@@@std@@I@std@@YAXViterator@?$_Tree@V?$_Tmap_traits@KPAVCCtrl@@U?$less@K@std@@V?$allocator@U?$pair@$$CBKPAVCCtrl@@@std@@@3@$0A@@std@@@0@0AAIUbidirectional_iterator_tag@0@@Z
_TEXT	SEGMENT PARA USE32 PUBLIC 'CODE'
_TEXT	ENDS
;	COMDAT ??$_Uninitialized_copy@Vconst_iterator@?$vector@EV?$allocator@E@std@@@std@@PAEV?$allocator@E@3@@std@@YAPAEVconst_iterator@?$vector@EV?$allocator@E@std@@@0@0PAEAAV?$allocator@E@0@@Z
_TEXT	SEGMENT PARA USE32 PUBLIC 'CODE'
_TEXT	ENDS
;	COMDAT ??$_Iter_cat@Viterator@?$_Tree@V?$_Tmap_traits@KEU?$less@K@std@@V?$allocator@U?$pair@$$CBKE@std@@@2@$0A@@std@@@std@@@std@@YA?AUbidirectional_iterator_tag@0@ABViterator@?$_Tree@V?$_Tmap_traits@KEU?$less@K@std@@V?$allocator@U?$pair@$$CBKE@std@@@2@$0A@@std@@@0@@Z
_TEXT	SEGMENT PARA USE32 PUBLIC 'CODE'
_TEXT	ENDS
;	COMDAT ??$_Distance2@Viterator@?$_Tree@V?$_Tmap_traits@KEU?$less@K@std@@V?$allocator@U?$pair@$$CBKE@std@@@2@$0A@@std@@@std@@I@std@@YAXViterator@?$_Tree@V?$_Tmap_traits@KEU?$less@K@std@@V?$allocator@U?$pair@$$CBKE@std@@@2@$0A@@std@@@0@0AAIUbidirectional_iterator_tag@0@@Z
_TEXT	SEGMENT PARA USE32 PUBLIC 'CODE'
_TEXT	ENDS
;	COMDAT ??$_Ptr_cat@PAU__SPAWNREGION@CEventLua@@PAU12@@std@@YA?AU_Nonscalar_ptr_iterator_tag@0@AAPAU__SPAWNREGION@CEventLua@@0@Z
_TEXT	SEGMENT PARA USE32 PUBLIC 'CODE'
_TEXT	ENDS
;	COMDAT ??$_Uninit_fill_n@PAU__SPAWNREGION@CEventLua@@IU12@V?$allocator@U__SPAWNREGION@CEventLua@@@std@@@std@@YAXPAU__SPAWNREGION@CEventLua@@IABU12@AAV?$allocator@U__SPAWNREGION@CEventLua@@@0@U_Nonscalar_ptr_iterator_tag@0@@Z
_TEXT	SEGMENT PARA USE32 PUBLIC 'CODE'
_TEXT	ENDS
;	COMDAT ??$_Copy_opt@PAJPAJ@std@@YAPAJPAJ00U_Scalar_ptr_iterator_tag@0@@Z
_TEXT	SEGMENT PARA USE32 PUBLIC 'CODE'
_TEXT	ENDS
;	COMDAT ??$_Uninitialized_copy@PAJPAJV?$allocator@J@std@@@std@@YAPAJPAJ00AAV?$allocator@J@0@@Z
_TEXT	SEGMENT PARA USE32 PUBLIC 'CODE'
_TEXT	ENDS
;	COMDAT ??$_Copy_backward_opt@PAJPAJ@std@@YAPAJPAJ00U_Scalar_ptr_iterator_tag@0@@Z
_TEXT	SEGMENT PARA USE32 PUBLIC 'CODE'
_TEXT	ENDS
;	COMDAT ??$_Ptr_cat@PAUtagDROPITEM@@PAU1@@std@@YA?AU_Nonscalar_ptr_iterator_tag@0@AAPAUtagDROPITEM@@0@Z
_TEXT	SEGMENT PARA USE32 PUBLIC 'CODE'
_TEXT	ENDS
;	COMDAT ??$_Destroy_range@UtagDROPITEM@@V?$allocator@UtagDROPITEM@@@std@@@std@@YAXPAUtagDROPITEM@@0AAV?$allocator@UtagDROPITEM@@@0@U_Nonscalar_ptr_iterator_tag@0@@Z
_TEXT	SEGMENT PARA USE32 PUBLIC 'CODE'
_TEXT	ENDS
;	COMDAT ??$_Ptr_cat@PAUWORMON@@PAU1@@std@@YA?AU_Nonscalar_ptr_iterator_tag@0@AAPAUWORMON@@0@Z
_TEXT	SEGMENT PARA USE32 PUBLIC 'CODE'
_TEXT	ENDS
;	COMDAT ??$_Destroy_range@UWORMON@@V?$allocator@UWORMON@@@std@@@std@@YAXPAUWORMON@@0AAV?$allocator@UWORMON@@@0@U_Nonscalar_ptr_iterator_tag@0@@Z
_TEXT	SEGMENT PARA USE32 PUBLIC 'CODE'
_TEXT	ENDS
;	COMDAT ??$_Ptr_cat@PAU__ITEMGAME@CMiniGame@@PAU12@@std@@YA?AU_Nonscalar_ptr_iterator_tag@0@AAPAU__ITEMGAME@CMiniGame@@0@Z
_TEXT	SEGMENT PARA USE32 PUBLIC 'CODE'
_TEXT	ENDS
;	COMDAT ??$_Destroy_range@U__ITEMGAME@CMiniGame@@V?$allocator@U__ITEMGAME@CMiniGame@@@std@@@std@@YAXPAU__ITEMGAME@CMiniGame@@0AAV?$allocator@U__ITEMGAME@CMiniGame@@@0@U_Nonscalar_ptr_iterator_tag@0@@Z
_TEXT	SEGMENT PARA USE32 PUBLIC 'CODE'
_TEXT	ENDS
;	COMDAT ??$_Destroy_range@KV?$allocator@K@std@@@std@@YAXPAK0AAV?$allocator@K@0@U_Scalar_ptr_iterator_tag@0@@Z
_TEXT	SEGMENT PARA USE32 PUBLIC 'CODE'
_TEXT	ENDS
;	COMDAT ??$_Destroy_range@HV?$allocator@H@std@@@std@@YAXPAH0AAV?$allocator@H@0@U_Scalar_ptr_iterator_tag@0@@Z
_TEXT	SEGMENT PARA USE32 PUBLIC 'CODE'
_TEXT	ENDS
;	COMDAT ??$_Ptr_cat@PAU__ITEM@CExchange@@PAU12@@std@@YA?AU_Nonscalar_ptr_iterator_tag@0@AAPAU__ITEM@CExchange@@0@Z
_TEXT	SEGMENT PARA USE32 PUBLIC 'CODE'
_TEXT	ENDS
;	COMDAT ??$_Destroy_range@U__ITEM@CExchange@@V?$allocator@U__ITEM@CExchange@@@std@@@std@@YAXPAU__ITEM@CExchange@@0AAV?$allocator@U__ITEM@CExchange@@@0@U_Nonscalar_ptr_iterator_tag@0@@Z
_TEXT	SEGMENT PARA USE32 PUBLIC 'CODE'
_TEXT	ENDS
;	COMDAT ??$_Ptr_cat@PAU__POINT@CExchange@@PAU12@@std@@YA?AU_Nonscalar_ptr_iterator_tag@0@AAPAU__POINT@CExchange@@0@Z
_TEXT	SEGMENT PARA USE32 PUBLIC 'CODE'
_TEXT	ENDS
;	COMDAT ??$_Destroy_range@U__POINT@CExchange@@V?$allocator@U__POINT@CExchange@@@std@@@std@@YAXPAU__POINT@CExchange@@0AAV?$allocator@U__POINT@CExchange@@@0@U_Nonscalar_ptr_iterator_tag@0@@Z
_TEXT	SEGMENT PARA USE32 PUBLIC 'CODE'
_TEXT	ENDS
;	COMDAT ??$_Destroy_range@EV?$allocator@E@std@@@std@@YAXPAE0AAV?$allocator@E@0@U_Scalar_ptr_iterator_tag@0@@Z
_TEXT	SEGMENT PARA USE32 PUBLIC 'CODE'
_TEXT	ENDS
;	COMDAT ??$_Uninitialized_copy@PAU__SPAWNREGION@CEventLua@@PAU12@V?$allocator@U__SPAWNREGION@CEventLua@@@std@@@std@@YAPAU__SPAWNREGION@CEventLua@@PAU12@00AAV?$allocator@U__SPAWNREGION@CEventLua@@@0@@Z
_TEXT	SEGMENT PARA USE32 PUBLIC 'CODE'
_TEXT	ENDS
;	COMDAT ??$_Copy_backward_opt@PAU__SPAWNREGION@CEventLua@@PAU12@@std@@YAPAU__SPAWNREGION@CEventLua@@PAU12@00U_Nonscalar_ptr_iterator_tag@0@@Z
_TEXT	SEGMENT PARA USE32 PUBLIC 'CODE'
_TEXT	ENDS
;	COMDAT ??$_Ptr_cat@PAUD3DXVECTOR3@@PAU1@@std@@YA?AU_Nonscalar_ptr_iterator_tag@0@AAPAUD3DXVECTOR3@@0@Z
_TEXT	SEGMENT PARA USE32 PUBLIC 'CODE'
_TEXT	ENDS
;	COMDAT ??$_Destroy_range@UD3DXVECTOR3@@V?$allocator@UD3DXVECTOR3@@@std@@@std@@YAXPAUD3DXVECTOR3@@0AAV?$allocator@UD3DXVECTOR3@@@0@U_Nonscalar_ptr_iterator_tag@0@@Z
_TEXT	SEGMENT PARA USE32 PUBLIC 'CODE'
_TEXT	ENDS
;	COMDAT ??$_Ptr_cat@PAU_GIFTBOX@@PAU1@@std@@YA?AU_Nonscalar_ptr_iterator_tag@0@AAPAU_GIFTBOX@@0@Z
_TEXT	SEGMENT PARA USE32 PUBLIC 'CODE'
_TEXT	ENDS
;	COMDAT ??$_Destroy_range@U_GIFTBOX@@V?$allocator@U_GIFTBOX@@@std@@@std@@YAXPAU_GIFTBOX@@0AAV?$allocator@U_GIFTBOX@@@0@U_Nonscalar_ptr_iterator_tag@0@@Z
_TEXT	SEGMENT PARA USE32 PUBLIC 'CODE'
_TEXT	ENDS
;	COMDAT ??$_Destroy_range@JV?$allocator@J@std@@@std@@YAXPAJ0AAV?$allocator@J@0@U_Scalar_ptr_iterator_tag@0@@Z
_TEXT	SEGMENT PARA USE32 PUBLIC 'CODE'
_TEXT	ENDS
;	COMDAT ??$_Uninit_fill_n@JIJ@std@@YAXPAJIABJAAV?$allocator@J@0@U_Scalar_ptr_iterator_tag@0@@Z
_TEXT	SEGMENT PARA USE32 PUBLIC 'CODE'
_TEXT	ENDS
;	COMDAT ??$_Destroy_range@U__SPAWNREGION@CEventLua@@V?$allocator@U__SPAWNREGION@CEventLua@@@std@@@std@@YAXPAU__SPAWNREGION@CEventLua@@0AAV?$allocator@U__SPAWNREGION@CEventLua@@@0@U_Nonscalar_ptr_iterator_tag@0@@Z
_TEXT	SEGMENT PARA USE32 PUBLIC 'CODE'
_TEXT	ENDS
;	COMDAT ??$make_pair@HV?$vector@VCPoint@@V?$allocator@VCPoint@@@std@@@std@@@std@@YA?AU?$pair@HV?$vector@VCPoint@@V?$allocator@VCPoint@@@std@@@std@@@0@HV?$vector@VCPoint@@V?$allocator@VCPoint@@@std@@@0@@Z
_TEXT	SEGMENT PARA USE32 PUBLIC 'CODE'
_TEXT	ENDS
;	COMDAT ??$?0HV?$vector@VCPoint@@V?$allocator@VCPoint@@@std@@@std@@@?$pair@$$CBEV?$vector@VCPoint@@V?$allocator@VCPoint@@@std@@@std@@@std@@QAE@ABU?$pair@HV?$vector@VCPoint@@V?$allocator@VCPoint@@@std@@@std@@@1@@Z
_TEXT	SEGMENT PARA USE32 PUBLIC 'CODE'
_TEXT	ENDS
;	COMDAT ??$?0Viterator@?$_Tree@V?$_Tmap_traits@EV?$vector@VCPoint@@V?$allocator@VCPoint@@@std@@@std@@U?$less@E@2@V?$allocator@U?$pair@$$CBEV?$vector@VCPoint@@V?$allocator@VCPoint@@@std@@@std@@@std@@@2@$0A@@std@@@std@@_N@?$pair@Viterator@?$_Tree@V?$_Tmap_traits@EV?$vector@VCPoint@@V?$allocator@VCPoint@@@std@@@std@@U?$less@E@2@V?$allocator@U?$pair@$$CBEV?$vector@VCPoint@@V?$allocator@VCPoint@@@std@@@std@@@std@@@2@$0A@@std@@@std@@H@std@@QAE@ABU?$pair@Viterator@?$_Tree@V?$_Tmap_traits@EV?$vector@VCPoint@@V?$allocator@VCPoint@@@std@@@std@@U?$less@E@2@V?$allocator@U?$pair@$$CBEV?$vector@VCPoint@@V?$allocator@VCPoint@@@std@@@std@@@std@@@2@$0A@@std@@@std@@_N@1@@Z
_TEXT	SEGMENT PARA USE32 PUBLIC 'CODE'
_TEXT	ENDS
;	COMDAT ??$_Ucopy@Vconst_iterator@?$vector@VCPoint@@V?$allocator@VCPoint@@@std@@@std@@@?$vector@VCPoint@@V?$allocator@VCPoint@@@std@@@std@@IAEPAVCPoint@@Vconst_iterator@01@0PAV2@@Z
_TEXT	SEGMENT PARA USE32 PUBLIC 'CODE'
_TEXT	ENDS
;	COMDAT ??$copy@PAVCPoint@@PAV1@@std@@YAPAVCPoint@@PAV1@00@Z
_TEXT	SEGMENT PARA USE32 PUBLIC 'CODE'
_TEXT	ENDS
;	COMDAT ??$_Ucopy@PAVCPoint@@@?$vector@VCPoint@@V?$allocator@VCPoint@@@std@@@std@@IAEPAVCPoint@@PAV2@00@Z
_TEXT	SEGMENT PARA USE32 PUBLIC 'CODE'
_TEXT	ENDS
;	COMDAT ??$_Destroy_range@VCPoint@@V?$allocator@VCPoint@@@std@@@std@@YAXPAVCPoint@@0AAV?$allocator@VCPoint@@@0@@Z
_TEXT	SEGMENT PARA USE32 PUBLIC 'CODE'
_TEXT	ENDS
;	COMDAT ??$_Uninitialized_fill_n@PAVCPoint@@IV1@V?$allocator@VCPoint@@@std@@@std@@YAXPAVCPoint@@IABV1@AAV?$allocator@VCPoint@@@0@@Z
_TEXT	SEGMENT PARA USE32 PUBLIC 'CODE'
_TEXT	ENDS
;	COMDAT ??$?0PAUtagACTMSG@@@?$allocator@PAPAUtagACTMSG@@@std@@QAE@ABV?$allocator@PAUtagACTMSG@@@1@@Z
_TEXT	SEGMENT PARA USE32 PUBLIC 'CODE'
_TEXT	ENDS
;	COMDAT ??$_Destroy@PAPAUtagACTMSG@@@std@@YAXPAPAPAUtagACTMSG@@@Z
_TEXT	SEGMENT PARA USE32 PUBLIC 'CODE'
_TEXT	ENDS
;	COMDAT ??$?0PAUtagMAGICATKMSG@@@?$allocator@PAPAUtagMAGICATKMSG@@@std@@QAE@ABV?$allocator@PAUtagMAGICATKMSG@@@1@@Z
_TEXT	SEGMENT PARA USE32 PUBLIC 'CODE'
_TEXT	ENDS
;	COMDAT ??$_Destroy@PAPAUtagMAGICATKMSG@@@std@@YAXPAPAPAUtagMAGICATKMSG@@@Z
_TEXT	SEGMENT PARA USE32 PUBLIC 'CODE'
_TEXT	ENDS
;	COMDAT ??$_Destroy@U_Node@?$_Tree_nod@V?$_Tmap_traits@EV?$vector@VCPoint@@V?$allocator@VCPoint@@@std@@@std@@U?$less@E@2@V?$allocator@U?$pair@$$CBEV?$vector@VCPoint@@V?$allocator@VCPoint@@@std@@@std@@@std@@@2@$0A@@std@@@std@@@std@@YAXPAU_Node@?$_Tree_nod@V?$_Tmap_traits@EV?$vector@VCPoint@@V?$allocator@VCPoint@@@std@@@std@@U?$less@E@2@V?$allocator@U?$pair@$$CBEV?$vector@VCPoint@@V?$allocator@VCPoint@@@std@@@std@@@std@@@2@$0A@@std@@@0@@Z
_TEXT	SEGMENT PARA USE32 PUBLIC 'CODE'
_TEXT	ENDS
;	COMDAT ??$_Destroy@PAU_Node@?$_Tree_nod@V?$_Tmap_traits@EV?$vector@VCPoint@@V?$allocator@VCPoint@@@std@@@std@@U?$less@E@2@V?$allocator@U?$pair@$$CBEV?$vector@VCPoint@@V?$allocator@VCPoint@@@std@@@std@@@std@@@2@$0A@@std@@@std@@@std@@YAXPAPAU_Node@?$_Tree_nod@V?$_Tmap_traits@EV?$vector@VCPoint@@V?$allocator@VCPoint@@@std@@@std@@U?$less@E@2@V?$allocator@U?$pair@$$CBEV?$vector@VCPoint@@V?$allocator@VCPoint@@@std@@@std@@@std@@@2@$0A@@std@@@0@@Z
_TEXT	SEGMENT PARA USE32 PUBLIC 'CODE'
_TEXT	ENDS
;	COMDAT ??$fill@PAVCPoint@@V1@@std@@YAXPAVCPoint@@0ABV1@@Z
_TEXT	SEGMENT PARA USE32 PUBLIC 'CODE'
_TEXT	ENDS
;	COMDAT ??$copy_backward@PAVCPoint@@PAV1@@std@@YAPAVCPoint@@PAV1@00@Z
_TEXT	SEGMENT PARA USE32 PUBLIC 'CODE'
_TEXT	ENDS
;	COMDAT ??$_Allocate@VCPoint@@@std@@YAPAVCPoint@@IPAV1@@Z
_TEXT	SEGMENT PARA USE32 PUBLIC 'CODE'
_TEXT	ENDS
;	COMDAT ??$_Destroy@PAUtagACTMSG@@@std@@YAXPAPAUtagACTMSG@@@Z
_TEXT	SEGMENT PARA USE32 PUBLIC 'CODE'
_TEXT	ENDS
;	COMDAT ??$_Destroy@PAUtagMAGICATKMSG@@@std@@YAXPAPAUtagMAGICATKMSG@@@Z
_TEXT	SEGMENT PARA USE32 PUBLIC 'CODE'
_TEXT	ENDS
;	COMDAT ??$?0U?$pair@$$CBEV?$vector@VCPoint@@V?$allocator@VCPoint@@@std@@@std@@@std@@@?$allocator@PAU_Node@?$_Tree_nod@V?$_Tmap_traits@EV?$vector@VCPoint@@V?$allocator@VCPoint@@@std@@@std@@U?$less@E@2@V?$allocator@U?$pair@$$CBEV?$vector@VCPoint@@V?$allocator@VCPoint@@@std@@@std@@@std@@@2@$0A@@std@@@std@@@std@@QAE@ABV?$allocator@U?$pair@$$CBEV?$vector@VCPoint@@V?$allocator@VCPoint@@@std@@@std@@@std@@@1@@Z
_TEXT	SEGMENT PARA USE32 PUBLIC 'CODE'
_TEXT	ENDS
;	COMDAT ??$_Allocate@U_Node@?$_Tree_nod@V?$_Tmap_traits@EV?$vector@VCPoint@@V?$allocator@VCPoint@@@std@@@std@@U?$less@E@2@V?$allocator@U?$pair@$$CBEV?$vector@VCPoint@@V?$allocator@VCPoint@@@std@@@std@@@std@@@2@$0A@@std@@@std@@@std@@YAPAU_Node@?$_Tree_nod@V?$_Tmap_traits@EV?$vector@VCPoint@@V?$allocator@VCPoint@@@std@@@std@@U?$less@E@2@V?$allocator@U?$pair@$$CBEV?$vector@VCPoint@@V?$allocator@VCPoint@@@std@@@std@@@std@@@2@$0A@@std@@@0@IPAU120@@Z
_TEXT	SEGMENT PARA USE32 PUBLIC 'CODE'
_TEXT	ENDS
;	COMDAT ??$?0U?$pair@$$CBEV?$vector@VCPoint@@V?$allocator@VCPoint@@@std@@@std@@@std@@@?$allocator@U_Node@?$_Tree_nod@V?$_Tmap_traits@EV?$vector@VCPoint@@V?$allocator@VCPoint@@@std@@@std@@U?$less@E@2@V?$allocator@U?$pair@$$CBEV?$vector@VCPoint@@V?$allocator@VCPoint@@@std@@@std@@@std@@@2@$0A@@std@@@std@@@std@@QAE@ABV?$allocator@U?$pair@$$CBEV?$vector@VCPoint@@V?$allocator@VCPoint@@@std@@@std@@@std@@@1@@Z
_TEXT	SEGMENT PARA USE32 PUBLIC 'CODE'
_TEXT	ENDS
;	COMDAT ??$_Construct@PAU_Node@?$_Tree_nod@V?$_Tmap_traits@EV?$vector@VCPoint@@V?$allocator@VCPoint@@@std@@@std@@U?$less@E@2@V?$allocator@U?$pair@$$CBEV?$vector@VCPoint@@V?$allocator@VCPoint@@@std@@@std@@@std@@@2@$0A@@std@@@std@@PAU123@@std@@YAXPAPAU_Node@?$_Tree_nod@V?$_Tmap_traits@EV?$vector@VCPoint@@V?$allocator@VCPoint@@@std@@@std@@U?$less@E@2@V?$allocator@U?$pair@$$CBEV?$vector@VCPoint@@V?$allocator@VCPoint@@@std@@@std@@@std@@@2@$0A@@std@@@0@ABQAU120@@Z
_TEXT	SEGMENT PARA USE32 PUBLIC 'CODE'
_TEXT	ENDS
;	COMDAT ??_G_Node@?$_Tree_nod@V?$_Tmap_traits@EV?$vector@VCPoint@@V?$allocator@VCPoint@@@std@@@std@@U?$less@E@2@V?$allocator@U?$pair@$$CBEV?$vector@VCPoint@@V?$allocator@VCPoint@@@std@@@std@@@std@@@2@$0A@@std@@@std@@QAEPAXI@Z
_TEXT	SEGMENT PARA USE32 PUBLIC 'CODE'
_TEXT	ENDS
;	COMDAT ??1_Node@?$_Tree_nod@V?$_Tmap_traits@EV?$vector@VCPoint@@V?$allocator@VCPoint@@@std@@@std@@U?$less@E@2@V?$allocator@U?$pair@$$CBEV?$vector@VCPoint@@V?$allocator@VCPoint@@@std@@@std@@@std@@@2@$0A@@std@@@std@@QAE@XZ
_TEXT	SEGMENT PARA USE32 PUBLIC 'CODE'
_TEXT	ENDS
;	COMDAT ?destroy@?$allocator@UtagDROPITEM@@@std@@QAEXPAUtagDROPITEM@@@Z
_TEXT	SEGMENT PARA USE32 PUBLIC 'CODE'
_TEXT	ENDS
;	COMDAT ?destroy@?$allocator@UWORMON@@@std@@QAEXPAUWORMON@@@Z
_TEXT	SEGMENT PARA USE32 PUBLIC 'CODE'
_TEXT	ENDS
;	COMDAT ?destroy@?$allocator@U__ITEMGAME@CMiniGame@@@std@@QAEXPAU__ITEMGAME@CMiniGame@@@Z
_TEXT	SEGMENT PARA USE32 PUBLIC 'CODE'
_TEXT	ENDS
;	COMDAT ?destroy@?$allocator@U__ITEM@CExchange@@@std@@QAEXPAU__ITEM@CExchange@@@Z
_TEXT	SEGMENT PARA USE32 PUBLIC 'CODE'
_TEXT	ENDS
;	COMDAT ?destroy@?$allocator@U__POINT@CExchange@@@std@@QAEXPAU__POINT@CExchange@@@Z
_TEXT	SEGMENT PARA USE32 PUBLIC 'CODE'
_TEXT	ENDS
;	COMDAT ?begin@?$vector@EV?$allocator@E@std@@@std@@QAE?AViterator@12@XZ
_TEXT	SEGMENT PARA USE32 PUBLIC 'CODE'
_TEXT	ENDS
;	COMDAT ?end@?$vector@EV?$allocator@E@std@@@std@@QAE?AViterator@12@XZ
_TEXT	SEGMENT PARA USE32 PUBLIC 'CODE'
_TEXT	ENDS
;	COMDAT ?erase@?$vector@EV?$allocator@E@std@@@std@@QAE?AViterator@12@V312@0@Z
_TEXT	SEGMENT PARA USE32 PUBLIC 'CODE'
_TEXT	ENDS
;	COMDAT ?construct@?$allocator@U__SPAWNREGION@CEventLua@@@std@@QAEXPAU__SPAWNREGION@CEventLua@@ABU34@@Z
_TEXT	SEGMENT PARA USE32 PUBLIC 'CODE'
_TEXT	ENDS
;	COMDAT ?destroy@?$allocator@U__SPAWNREGION@CEventLua@@@std@@QAEXPAU__SPAWNREGION@CEventLua@@@Z
_TEXT	SEGMENT PARA USE32 PUBLIC 'CODE'
_TEXT	ENDS
;	COMDAT ?destroy@?$allocator@UD3DXVECTOR3@@@std@@QAEXPAUD3DXVECTOR3@@@Z
_TEXT	SEGMENT PARA USE32 PUBLIC 'CODE'
_TEXT	ENDS
;	COMDAT ?destroy@?$allocator@U_GIFTBOX@@@std@@QAEXPAU_GIFTBOX@@@Z
_TEXT	SEGMENT PARA USE32 PUBLIC 'CODE'
_TEXT	ENDS
;	COMDAT ??0?$pair@HV?$vector@VCPoint@@V?$allocator@VCPoint@@@std@@@std@@@std@@QAE@ABHABV?$vector@VCPoint@@V?$allocator@VCPoint@@@std@@@1@@Z
_TEXT	SEGMENT PARA USE32 PUBLIC 'CODE'
_TEXT	ENDS
;	COMDAT ??9const_iterator@?$vector@EV?$allocator@E@std@@@std@@QBE_NABV012@@Z
_TEXT	SEGMENT PARA USE32 PUBLIC 'CODE'
_TEXT	ENDS
;	COMDAT ??0iterator@?$vector@EV?$allocator@E@std@@@std@@QAE@PAE@Z
_TEXT	SEGMENT PARA USE32 PUBLIC 'CODE'
_TEXT	ENDS
;	COMDAT ??8const_iterator@?$vector@EV?$allocator@E@std@@@std@@QBE_NABV012@@Z
_TEXT	SEGMENT PARA USE32 PUBLIC 'CODE'
_TEXT	ENDS
;	COMDAT ??$insert@Vconst_iterator@?$vector@EV?$allocator@E@std@@@std@@@?$vector@EV?$allocator@E@std@@@std@@QAEXViterator@01@Vconst_iterator@01@1@Z
_TEXT	SEGMENT PARA USE32 PUBLIC 'CODE'
_TEXT	ENDS
;	COMDAT ??$_Ptr_cat@Vconst_iterator@?$vector@EV?$allocator@E@std@@@std@@PAE@std@@YA?AU_Nonscalar_ptr_iterator_tag@0@AAVconst_iterator@?$vector@EV?$allocator@E@std@@@0@AAPAE@Z
_TEXT	SEGMENT PARA USE32 PUBLIC 'CODE'
_TEXT	ENDS
;	COMDAT ??$_Uninit_copy@Vconst_iterator@?$vector@EV?$allocator@E@std@@@std@@PAEV?$allocator@E@3@@std@@YAPAEVconst_iterator@?$vector@EV?$allocator@E@std@@@0@0PAEAAV?$allocator@E@0@U_Nonscalar_ptr_iterator_tag@0@@Z
_TEXT	SEGMENT PARA USE32 PUBLIC 'CODE'
_TEXT	ENDS
;	COMDAT ??$_Uninit_copy@JJ@std@@YAPAJPAJ00AAV?$allocator@J@0@U_Scalar_ptr_iterator_tag@0@@Z
_TEXT	SEGMENT PARA USE32 PUBLIC 'CODE'
_TEXT	ENDS
;	COMDAT ??$_Uninit_copy@PAU__SPAWNREGION@CEventLua@@PAU12@V?$allocator@U__SPAWNREGION@CEventLua@@@std@@@std@@YAPAU__SPAWNREGION@CEventLua@@PAU12@00AAV?$allocator@U__SPAWNREGION@CEventLua@@@0@U_Nonscalar_ptr_iterator_tag@0@@Z
_TEXT	SEGMENT PARA USE32 PUBLIC 'CODE'
_TEXT	ENDS
;	COMDAT ??$fill_n@PAJIJ@std@@YAXPAJIABJ@Z
_TEXT	SEGMENT PARA USE32 PUBLIC 'CODE'
_TEXT	ENDS
;	COMDAT ??$_Uninitialized_copy@Vconst_iterator@?$vector@VCPoint@@V?$allocator@VCPoint@@@std@@@std@@PAVCPoint@@V?$allocator@VCPoint@@@3@@std@@YAPAVCPoint@@Vconst_iterator@?$vector@VCPoint@@V?$allocator@VCPoint@@@std@@@0@0PAV1@AAV?$allocator@VCPoint@@@0@@Z
_TEXT	SEGMENT PARA USE32 PUBLIC 'CODE'
_TEXT	ENDS
;	COMDAT ??$_Ptr_cat@PAVCPoint@@PAV1@@std@@YA?AU_Nonscalar_ptr_iterator_tag@0@AAPAVCPoint@@0@Z
_TEXT	SEGMENT PARA USE32 PUBLIC 'CODE'
_TEXT	ENDS
;	COMDAT ??$_Copy_opt@PAVCPoint@@PAV1@@std@@YAPAVCPoint@@PAV1@00U_Nonscalar_ptr_iterator_tag@0@@Z
_TEXT	SEGMENT PARA USE32 PUBLIC 'CODE'
_TEXT	ENDS
;	COMDAT ??$_Uninitialized_copy@PAVCPoint@@PAV1@V?$allocator@VCPoint@@@std@@@std@@YAPAVCPoint@@PAV1@00AAV?$allocator@VCPoint@@@0@@Z
_TEXT	SEGMENT PARA USE32 PUBLIC 'CODE'
_TEXT	ENDS
;	COMDAT ??$_Destroy_range@VCPoint@@V?$allocator@VCPoint@@@std@@@std@@YAXPAVCPoint@@0AAV?$allocator@VCPoint@@@0@U_Nonscalar_ptr_iterator_tag@0@@Z
_TEXT	SEGMENT PARA USE32 PUBLIC 'CODE'
_TEXT	ENDS
;	COMDAT ??$_Uninit_fill_n@PAVCPoint@@IV1@V?$allocator@VCPoint@@@std@@@std@@YAXPAVCPoint@@IABV1@AAV?$allocator@VCPoint@@@0@U_Nonscalar_ptr_iterator_tag@0@@Z
_TEXT	SEGMENT PARA USE32 PUBLIC 'CODE'
_TEXT	ENDS
;	COMDAT ??$_Copy_backward_opt@PAVCPoint@@PAV1@@std@@YAPAVCPoint@@PAV1@00U_Nonscalar_ptr_iterator_tag@0@@Z
_TEXT	SEGMENT PARA USE32 PUBLIC 'CODE'
_TEXT	ENDS
;	COMDAT ??$_Destroy@UtagDROPITEM@@@std@@YAXPAUtagDROPITEM@@@Z
_TEXT	SEGMENT PARA USE32 PUBLIC 'CODE'
_TEXT	ENDS
;	COMDAT ??$_Destroy@UWORMON@@@std@@YAXPAUWORMON@@@Z
_TEXT	SEGMENT PARA USE32 PUBLIC 'CODE'
_TEXT	ENDS
;	COMDAT ??$_Destroy@U__ITEMGAME@CMiniGame@@@std@@YAXPAU__ITEMGAME@CMiniGame@@@Z
_TEXT	SEGMENT PARA USE32 PUBLIC 'CODE'
_TEXT	ENDS
;	COMDAT ??$_Destroy@U__ITEM@CExchange@@@std@@YAXPAU__ITEM@CExchange@@@Z
_TEXT	SEGMENT PARA USE32 PUBLIC 'CODE'
_TEXT	ENDS
;	COMDAT ??$_Destroy@U__POINT@CExchange@@@std@@YAXPAU__POINT@CExchange@@@Z
_TEXT	SEGMENT PARA USE32 PUBLIC 'CODE'
_TEXT	ENDS
;	COMDAT ??$copy@PAEPAE@std@@YAPAEPAE00@Z
_TEXT	SEGMENT PARA USE32 PUBLIC 'CODE'
_TEXT	ENDS
;	COMDAT ??$_Construct@U__SPAWNREGION@CEventLua@@U12@@std@@YAXPAU__SPAWNREGION@CEventLua@@ABU12@@Z
_TEXT	SEGMENT PARA USE32 PUBLIC 'CODE'
_TEXT	ENDS
;	COMDAT ??$_Destroy@U__SPAWNREGION@CEventLua@@@std@@YAXPAU__SPAWNREGION@CEventLua@@@Z
_TEXT	SEGMENT PARA USE32 PUBLIC 'CODE'
_TEXT	ENDS
;	COMDAT ??$_Destroy@UD3DXVECTOR3@@@std@@YAXPAUD3DXVECTOR3@@@Z
_TEXT	SEGMENT PARA USE32 PUBLIC 'CODE'
_TEXT	ENDS
;	COMDAT ??$_Destroy@U_GIFTBOX@@@std@@YAXPAU_GIFTBOX@@@Z
_TEXT	SEGMENT PARA USE32 PUBLIC 'CODE'
_TEXT	ENDS
;	COMDAT ?construct@?$allocator@E@std@@QAEXPAEABE@Z
_TEXT	SEGMENT PARA USE32 PUBLIC 'CODE'
_TEXT	ENDS
;	COMDAT ?destroy@?$allocator@E@std@@QAEXPAE@Z
_TEXT	SEGMENT PARA USE32 PUBLIC 'CODE'
_TEXT	ENDS
;	COMDAT ??Dconst_iterator@?$vector@EV?$allocator@E@std@@@std@@QBEABEXZ
_TEXT	SEGMENT PARA USE32 PUBLIC 'CODE'
_TEXT	ENDS
;	COMDAT ??Econst_iterator@?$vector@EV?$allocator@E@std@@@std@@QAEAAV012@XZ
_TEXT	SEGMENT PARA USE32 PUBLIC 'CODE'
_TEXT	ENDS
;	COMDAT ?construct@?$allocator@VCPoint@@@std@@QAEXPAVCPoint@@ABV3@@Z
_TEXT	SEGMENT PARA USE32 PUBLIC 'CODE'
_TEXT	ENDS
;	COMDAT ?destroy@?$allocator@VCPoint@@@std@@QAEXPAVCPoint@@@Z
_TEXT	SEGMENT PARA USE32 PUBLIC 'CODE'
_TEXT	ENDS
;	COMDAT ??$_Insert@Vconst_iterator@?$vector@EV?$allocator@E@std@@@std@@@?$vector@EV?$allocator@E@std@@@std@@QAEXViterator@01@Vconst_iterator@01@1Uforward_iterator_tag@1@@Z
_TEXT	SEGMENT PARA USE32 PUBLIC 'CODE'
_TEXT	ENDS
;	COMDAT ??$_Ptr_cat@Vconst_iterator@?$vector@VCPoint@@V?$allocator@VCPoint@@@std@@@std@@PAVCPoint@@@std@@YA?AU_Nonscalar_ptr_iterator_tag@0@AAVconst_iterator@?$vector@VCPoint@@V?$allocator@VCPoint@@@std@@@0@AAPAVCPoint@@@Z
_TEXT	SEGMENT PARA USE32 PUBLIC 'CODE'
_TEXT	ENDS
;	COMDAT ??$_Uninit_copy@Vconst_iterator@?$vector@VCPoint@@V?$allocator@VCPoint@@@std@@@std@@PAVCPoint@@V?$allocator@VCPoint@@@3@@std@@YAPAVCPoint@@Vconst_iterator@?$vector@VCPoint@@V?$allocator@VCPoint@@@std@@@0@0PAV1@AAV?$allocator@VCPoint@@@0@U_Nonscalar_ptr_iterator_tag@0@@Z
_TEXT	SEGMENT PARA USE32 PUBLIC 'CODE'
_TEXT	ENDS
;	COMDAT ??$_Uninit_copy@PAVCPoint@@PAV1@V?$allocator@VCPoint@@@std@@@std@@YAPAVCPoint@@PAV1@00AAV?$allocator@VCPoint@@@0@U_Nonscalar_ptr_iterator_tag@0@@Z
_TEXT	SEGMENT PARA USE32 PUBLIC 'CODE'
_TEXT	ENDS
;	COMDAT ??$_Copy_opt@PAEPAE@std@@YAPAEPAE00U_Scalar_ptr_iterator_tag@0@@Z
_TEXT	SEGMENT PARA USE32 PUBLIC 'CODE'
_TEXT	ENDS
;	COMDAT ??$_Construct@EE@std@@YAXPAEABE@Z
_TEXT	SEGMENT PARA USE32 PUBLIC 'CODE'
_TEXT	ENDS
;	COMDAT ??$_Destroy@E@std@@YAXPAE@Z
_TEXT	SEGMENT PARA USE32 PUBLIC 'CODE'
_TEXT	ENDS
;	COMDAT ??$_Construct@VCPoint@@V1@@std@@YAXPAVCPoint@@ABV1@@Z
_TEXT	SEGMENT PARA USE32 PUBLIC 'CODE'
_TEXT	ENDS
;	COMDAT ??$_Destroy@VCPoint@@@std@@YAXPAVCPoint@@@Z
_TEXT	SEGMENT PARA USE32 PUBLIC 'CODE'
_TEXT	ENDS
;	COMDAT ?capacity@?$vector@EV?$allocator@E@std@@@std@@QBEIXZ
_TEXT	SEGMENT PARA USE32 PUBLIC 'CODE'
_TEXT	ENDS
;	COMDAT ??Econst_iterator@?$vector@VCPoint@@V?$allocator@VCPoint@@@std@@@std@@QAEAAV012@XZ
_TEXT	SEGMENT PARA USE32 PUBLIC 'CODE'
_TEXT	ENDS
;	COMDAT ??9const_iterator@?$vector@VCPoint@@V?$allocator@VCPoint@@@std@@@std@@QBE_NABV012@@Z
_TEXT	SEGMENT PARA USE32 PUBLIC 'CODE'
_TEXT	ENDS
;	COMDAT ??Giterator@?$vector@EV?$allocator@E@std@@@std@@QBEHABVconst_iterator@12@@Z
_TEXT	SEGMENT PARA USE32 PUBLIC 'CODE'
_TEXT	ENDS
;	COMDAT ??Gconst_iterator@?$vector@EV?$allocator@E@std@@@std@@QBEHABV012@@Z
_TEXT	SEGMENT PARA USE32 PUBLIC 'CODE'
_TEXT	ENDS
;	COMDAT ??8const_iterator@?$vector@VCPoint@@V?$allocator@VCPoint@@@std@@@std@@QBE_NABV012@@Z
_TEXT	SEGMENT PARA USE32 PUBLIC 'CODE'
_TEXT	ENDS
;	COMDAT ??$_Distance@Vconst_iterator@?$vector@EV?$allocator@E@std@@@std@@I@std@@YAXVconst_iterator@?$vector@EV?$allocator@E@std@@@0@0AAI@Z
_TEXT	SEGMENT PARA USE32 PUBLIC 'CODE'
_TEXT	ENDS
;	COMDAT ??$_Ucopy@PAE@?$vector@EV?$allocator@E@std@@@std@@IAEPAEPAE00@Z
_TEXT	SEGMENT PARA USE32 PUBLIC 'CODE'
_TEXT	ENDS
;	COMDAT ??$advance@Vconst_iterator@?$vector@EV?$allocator@E@std@@@std@@H@std@@YAXAAVconst_iterator@?$vector@EV?$allocator@E@std@@@0@H@Z
_TEXT	SEGMENT PARA USE32 PUBLIC 'CODE'
_TEXT	ENDS
;	COMDAT ??$copy@Vconst_iterator@?$vector@EV?$allocator@E@std@@@std@@PAE@std@@YAPAEVconst_iterator@?$vector@EV?$allocator@E@std@@@0@0PAE@Z
_TEXT	SEGMENT PARA USE32 PUBLIC 'CODE'
_TEXT	ENDS
;	COMDAT ??$copy_backward@PAEPAE@std@@YAPAEPAE00@Z
_TEXT	SEGMENT PARA USE32 PUBLIC 'CODE'
_TEXT	ENDS
;	COMDAT ??$_Distance2@Vconst_iterator@?$vector@EV?$allocator@E@std@@@std@@I@std@@YAXVconst_iterator@?$vector@EV?$allocator@E@std@@@0@0AAIUrandom_access_iterator_tag@0@@Z
_TEXT	SEGMENT PARA USE32 PUBLIC 'CODE'
_TEXT	ENDS
;	COMDAT ??$_Uninitialized_copy@PAEPAEV?$allocator@E@std@@@std@@YAPAEPAE00AAV?$allocator@E@0@@Z
_TEXT	SEGMENT PARA USE32 PUBLIC 'CODE'
_TEXT	ENDS
;	COMDAT ??$_Advance@Vconst_iterator@?$vector@EV?$allocator@E@std@@@std@@H@std@@YAXAAVconst_iterator@?$vector@EV?$allocator@E@std@@@0@HUrandom_access_iterator_tag@0@@Z
_TEXT	SEGMENT PARA USE32 PUBLIC 'CODE'
_TEXT	ENDS
;	COMDAT ??$_Copy_opt@Vconst_iterator@?$vector@EV?$allocator@E@std@@@std@@PAE@std@@YAPAEVconst_iterator@?$vector@EV?$allocator@E@std@@@0@0PAEU_Nonscalar_ptr_iterator_tag@0@@Z
_TEXT	SEGMENT PARA USE32 PUBLIC 'CODE'
_TEXT	ENDS
;	COMDAT ??$_Copy_backward_opt@PAEPAE@std@@YAPAEPAE00U_Scalar_ptr_iterator_tag@0@@Z
_TEXT	SEGMENT PARA USE32 PUBLIC 'CODE'
_TEXT	ENDS
;	COMDAT ??Yconst_iterator@?$vector@EV?$allocator@E@std@@@std@@QAEAAV012@H@Z
_TEXT	SEGMENT PARA USE32 PUBLIC 'CODE'
_TEXT	ENDS
;	COMDAT ??$_Uninit_copy@EE@std@@YAPAEPAE00AAV?$allocator@E@0@U_Scalar_ptr_iterator_tag@0@@Z
_TEXT	SEGMENT PARA USE32 PUBLIC 'CODE'
_TEXT	ENDS
;	COMDAT ?deallocate@?$allocator@E@std@@QAEXPAEI@Z
_TEXT	SEGMENT PARA USE32 PUBLIC 'CODE'
_TEXT	ENDS
;	COMDAT ??$_Ucopy@Vconst_iterator@?$vector@EV?$allocator@E@std@@@std@@@?$vector@EV?$allocator@E@std@@@std@@IAEPAEVconst_iterator@01@0PAE@Z
_TEXT	SEGMENT PARA USE32 PUBLIC 'CODE'
_TEXT	ENDS
;	COMDAT ?allocate@?$allocator@E@std@@QAEPAEI@Z
_TEXT	SEGMENT PARA USE32 PUBLIC 'CODE'
_TEXT	ENDS
;	COMDAT ??$_Allocate@E@std@@YAPAEIPAE@Z
_TEXT	SEGMENT PARA USE32 PUBLIC 'CODE'
_TEXT	ENDS
;	COMDAT ?_Xlen@?$vector@EV?$allocator@E@std@@@std@@IBEXXZ
_TEXT	SEGMENT PARA USE32 PUBLIC 'CODE'
_TEXT	ENDS
;	COMDAT ?size@?$vector@EV?$allocator@E@std@@@std@@QBEIXZ
_TEXT	SEGMENT PARA USE32 PUBLIC 'CODE'
_TEXT	ENDS
;	COMDAT ?max_size@?$vector@EV?$allocator@E@std@@@std@@QBEIXZ
_TEXT	SEGMENT PARA USE32 PUBLIC 'CODE'
_TEXT	ENDS
;	COMDAT ?max_size@?$allocator@E@std@@QBEIXZ
_TEXT	SEGMENT PARA USE32 PUBLIC 'CODE'
_TEXT	ENDS
;	COMDAT ?_Ptr_cat@std@@YA?AU_Scalar_ptr_iterator_tag@1@PAE0@Z
_TEXT	SEGMENT PARA USE32 PUBLIC 'CODE'
_TEXT	ENDS
;	COMDAT ??0const_iterator@?$vector@EV?$allocator@E@std@@@std@@QAE@PAE@Z
_TEXT	SEGMENT PARA USE32 PUBLIC 'CODE'
_TEXT	ENDS
;	COMDAT ?_Destroy@?$vector@EV?$allocator@E@std@@@std@@IAEXPAE0@Z
_TEXT	SEGMENT PARA USE32 PUBLIC 'CODE'
_TEXT	ENDS
;	COMDAT ??$_Destroy_range@EV?$allocator@E@std@@@std@@YAXPAE0AAV?$allocator@E@0@@Z
_TEXT	SEGMENT PARA USE32 PUBLIC 'CODE'
_TEXT	ENDS
;	COMDAT ?_Ptr_cat@std@@YA?AU_Scalar_ptr_iterator_tag@1@PAJ0@Z
_TEXT	SEGMENT PARA USE32 PUBLIC 'CODE'
_TEXT	ENDS
;	COMDAT ??9const_iterator@?$_Tree@V?$_Tmap_traits@KEU?$less@K@std@@V?$allocator@U?$pair@$$CBKE@std@@@2@$0A@@std@@@std@@QBE_NABV012@@Z
_TEXT	SEGMENT PARA USE32 PUBLIC 'CODE'
_TEXT	ENDS
;	COMDAT ??8const_iterator@?$_Tree@V?$_Tmap_traits@KEU?$less@K@std@@V?$allocator@U?$pair@$$CBKE@std@@@2@$0A@@std@@@std@@QBE_NABV012@@Z
_TEXT	SEGMENT PARA USE32 PUBLIC 'CODE'
_TEXT	ENDS
;	COMDAT ??Eiterator@?$_Tree@V?$_Tmap_traits@KEU?$less@K@std@@V?$allocator@U?$pair@$$CBKE@std@@@2@$0A@@std@@@std@@QAEAAV012@XZ
_TEXT	SEGMENT PARA USE32 PUBLIC 'CODE'
_TEXT	ENDS
;	COMDAT ??Econst_iterator@?$_Tree@V?$_Tmap_traits@KEU?$less@K@std@@V?$allocator@U?$pair@$$CBKE@std@@@2@$0A@@std@@@std@@QAEAAV012@XZ
_TEXT	SEGMENT PARA USE32 PUBLIC 'CODE'
_TEXT	ENDS
;	COMDAT ?_Inc@const_iterator@?$_Tree@V?$_Tmap_traits@KEU?$less@K@std@@V?$allocator@U?$pair@$$CBKE@std@@@2@$0A@@std@@@std@@QAEXXZ
_TEXT	SEGMENT PARA USE32 PUBLIC 'CODE'
_TEXT	ENDS
;	COMDAT ?_Min@?$_Tree@V?$_Tmap_traits@KEU?$less@K@std@@V?$allocator@U?$pair@$$CBKE@std@@@2@$0A@@std@@@std@@KAPAU_Node@?$_Tree_nod@V?$_Tmap_traits@KEU?$less@K@std@@V?$allocator@U?$pair@$$CBKE@std@@@2@$0A@@std@@@2@PAU342@@Z
_TEXT	SEGMENT PARA USE32 PUBLIC 'CODE'
_TEXT	ENDS
;	COMDAT ?_Left@?$_Tree@V?$_Tmap_traits@KEU?$less@K@std@@V?$allocator@U?$pair@$$CBKE@std@@@2@$0A@@std@@@std@@KAAAPAU_Node@?$_Tree_nod@V?$_Tmap_traits@KEU?$less@K@std@@V?$allocator@U?$pair@$$CBKE@std@@@2@$0A@@std@@@2@PAU342@@Z
_TEXT	SEGMENT PARA USE32 PUBLIC 'CODE'
_TEXT	ENDS
;	COMDAT ?_Isnil@?$_Tree@V?$_Tmap_traits@KEU?$less@K@std@@V?$allocator@U?$pair@$$CBKE@std@@@2@$0A@@std@@@std@@KAAADPAU_Node@?$_Tree_nod@V?$_Tmap_traits@KEU?$less@K@std@@V?$allocator@U?$pair@$$CBKE@std@@@2@$0A@@std@@@2@@Z
_TEXT	SEGMENT PARA USE32 PUBLIC 'CODE'
_TEXT	ENDS
;	COMDAT ?_Parent@?$_Tree@V?$_Tmap_traits@KEU?$less@K@std@@V?$allocator@U?$pair@$$CBKE@std@@@2@$0A@@std@@@std@@KAAAPAU_Node@?$_Tree_nod@V?$_Tmap_traits@KEU?$less@K@std@@V?$allocator@U?$pair@$$CBKE@std@@@2@$0A@@std@@@2@PAU342@@Z
_TEXT	SEGMENT PARA USE32 PUBLIC 'CODE'
_TEXT	ENDS
;	COMDAT ?_Right@?$_Tree@V?$_Tmap_traits@KEU?$less@K@std@@V?$allocator@U?$pair@$$CBKE@std@@@2@$0A@@std@@@std@@KAAAPAU_Node@?$_Tree_nod@V?$_Tmap_traits@KEU?$less@K@std@@V?$allocator@U?$pair@$$CBKE@std@@@2@$0A@@std@@@2@PAU342@@Z
_TEXT	SEGMENT PARA USE32 PUBLIC 'CODE'
_TEXT	ENDS
;	COMDAT ??9const_iterator@?$_Tree@V?$_Tmap_traits@KPAVCCtrl@@U?$less@K@std@@V?$allocator@U?$pair@$$CBKPAVCCtrl@@@std@@@3@$0A@@std@@@std@@QBE_NABV012@@Z
_TEXT	SEGMENT PARA USE32 PUBLIC 'CODE'
_TEXT	ENDS
;	COMDAT ??8const_iterator@?$_Tree@V?$_Tmap_traits@KPAVCCtrl@@U?$less@K@std@@V?$allocator@U?$pair@$$CBKPAVCCtrl@@@std@@@3@$0A@@std@@@std@@QBE_NABV012@@Z
_TEXT	SEGMENT PARA USE32 PUBLIC 'CODE'
_TEXT	ENDS
;	COMDAT ??Eiterator@?$_Tree@V?$_Tmap_traits@KPAVCCtrl@@U?$less@K@std@@V?$allocator@U?$pair@$$CBKPAVCCtrl@@@std@@@3@$0A@@std@@@std@@QAEAAV012@XZ
_TEXT	SEGMENT PARA USE32 PUBLIC 'CODE'
_TEXT	ENDS
;	COMDAT ??Econst_iterator@?$_Tree@V?$_Tmap_traits@KPAVCCtrl@@U?$less@K@std@@V?$allocator@U?$pair@$$CBKPAVCCtrl@@@std@@@3@$0A@@std@@@std@@QAEAAV012@XZ
_TEXT	SEGMENT PARA USE32 PUBLIC 'CODE'
_TEXT	ENDS
;	COMDAT ?_Inc@const_iterator@?$_Tree@V?$_Tmap_traits@KPAVCCtrl@@U?$less@K@std@@V?$allocator@U?$pair@$$CBKPAVCCtrl@@@std@@@3@$0A@@std@@@std@@QAEXXZ
_TEXT	SEGMENT PARA USE32 PUBLIC 'CODE'
_TEXT	ENDS
;	COMDAT ?_Min@?$_Tree@V?$_Tmap_traits@KPAVCCtrl@@U?$less@K@std@@V?$allocator@U?$pair@$$CBKPAVCCtrl@@@std@@@3@$0A@@std@@@std@@KAPAU_Node@?$_Tree_nod@V?$_Tmap_traits@KPAVCCtrl@@U?$less@K@std@@V?$allocator@U?$pair@$$CBKPAVCCtrl@@@std@@@3@$0A@@std@@@2@PAU342@@Z
_TEXT	SEGMENT PARA USE32 PUBLIC 'CODE'
_TEXT	ENDS
;	COMDAT ?_Left@?$_Tree@V?$_Tmap_traits@KPAVCCtrl@@U?$less@K@std@@V?$allocator@U?$pair@$$CBKPAVCCtrl@@@std@@@3@$0A@@std@@@std@@KAAAPAU_Node@?$_Tree_nod@V?$_Tmap_traits@KPAVCCtrl@@U?$less@K@std@@V?$allocator@U?$pair@$$CBKPAVCCtrl@@@std@@@3@$0A@@std@@@2@PAU342@@Z
_TEXT	SEGMENT PARA USE32 PUBLIC 'CODE'
_TEXT	ENDS
;	COMDAT ?_Isnil@?$_Tree@V?$_Tmap_traits@KPAVCCtrl@@U?$less@K@std@@V?$allocator@U?$pair@$$CBKPAVCCtrl@@@std@@@3@$0A@@std@@@std@@KAAADPAU_Node@?$_Tree_nod@V?$_Tmap_traits@KPAVCCtrl@@U?$less@K@std@@V?$allocator@U?$pair@$$CBKPAVCCtrl@@@std@@@3@$0A@@std@@@2@@Z
_TEXT	SEGMENT PARA USE32 PUBLIC 'CODE'
_TEXT	ENDS
;	COMDAT ?_Parent@?$_Tree@V?$_Tmap_traits@KPAVCCtrl@@U?$less@K@std@@V?$allocator@U?$pair@$$CBKPAVCCtrl@@@std@@@3@$0A@@std@@@std@@KAAAPAU_Node@?$_Tree_nod@V?$_Tmap_traits@KPAVCCtrl@@U?$less@K@std@@V?$allocator@U?$pair@$$CBKPAVCCtrl@@@std@@@3@$0A@@std@@@2@PAU342@@Z
_TEXT	SEGMENT PARA USE32 PUBLIC 'CODE'
_TEXT	ENDS
;	COMDAT ?_Right@?$_Tree@V?$_Tmap_traits@KPAVCCtrl@@U?$less@K@std@@V?$allocator@U?$pair@$$CBKPAVCCtrl@@@std@@@3@$0A@@std@@@std@@KAAAPAU_Node@?$_Tree_nod@V?$_Tmap_traits@KPAVCCtrl@@U?$less@K@std@@V?$allocator@U?$pair@$$CBKPAVCCtrl@@@std@@@3@$0A@@std@@@2@PAU342@@Z
_TEXT	SEGMENT PARA USE32 PUBLIC 'CODE'
_TEXT	ENDS
;	COMDAT ??9const_iterator@?$_Tree@V?$_Tmap_traits@KPAVCUser@@U?$less@K@std@@V?$allocator@U?$pair@$$CBKPAVCUser@@@std@@@3@$0A@@std@@@std@@QBE_NABV012@@Z
_TEXT	SEGMENT PARA USE32 PUBLIC 'CODE'
_TEXT	ENDS
;	COMDAT ??8const_iterator@?$_Tree@V?$_Tmap_traits@KPAVCUser@@U?$less@K@std@@V?$allocator@U?$pair@$$CBKPAVCUser@@@std@@@3@$0A@@std@@@std@@QBE_NABV012@@Z
_TEXT	SEGMENT PARA USE32 PUBLIC 'CODE'
_TEXT	ENDS
;	COMDAT ??Eiterator@?$_Tree@V?$_Tmap_traits@KPAVCUser@@U?$less@K@std@@V?$allocator@U?$pair@$$CBKPAVCUser@@@std@@@3@$0A@@std@@@std@@QAEAAV012@XZ
_TEXT	SEGMENT PARA USE32 PUBLIC 'CODE'
_TEXT	ENDS
;	COMDAT ??Econst_iterator@?$_Tree@V?$_Tmap_traits@KPAVCUser@@U?$less@K@std@@V?$allocator@U?$pair@$$CBKPAVCUser@@@std@@@3@$0A@@std@@@std@@QAEAAV012@XZ
_TEXT	SEGMENT PARA USE32 PUBLIC 'CODE'
_TEXT	ENDS
;	COMDAT ?_Inc@const_iterator@?$_Tree@V?$_Tmap_traits@KPAVCUser@@U?$less@K@std@@V?$allocator@U?$pair@$$CBKPAVCUser@@@std@@@3@$0A@@std@@@std@@QAEXXZ
_TEXT	SEGMENT PARA USE32 PUBLIC 'CODE'
_TEXT	ENDS
;	COMDAT ?_Min@?$_Tree@V?$_Tmap_traits@KPAVCUser@@U?$less@K@std@@V?$allocator@U?$pair@$$CBKPAVCUser@@@std@@@3@$0A@@std@@@std@@KAPAU_Node@?$_Tree_nod@V?$_Tmap_traits@KPAVCUser@@U?$less@K@std@@V?$allocator@U?$pair@$$CBKPAVCUser@@@std@@@3@$0A@@std@@@2@PAU342@@Z
_TEXT	SEGMENT PARA USE32 PUBLIC 'CODE'
_TEXT	ENDS
;	COMDAT ?_Left@?$_Tree@V?$_Tmap_traits@KPAVCUser@@U?$less@K@std@@V?$allocator@U?$pair@$$CBKPAVCUser@@@std@@@3@$0A@@std@@@std@@KAAAPAU_Node@?$_Tree_nod@V?$_Tmap_traits@KPAVCUser@@U?$less@K@std@@V?$allocator@U?$pair@$$CBKPAVCUser@@@std@@@3@$0A@@std@@@2@PAU342@@Z
_TEXT	SEGMENT PARA USE32 PUBLIC 'CODE'
_TEXT	ENDS
;	COMDAT ?_Isnil@?$_Tree@V?$_Tmap_traits@KPAVCUser@@U?$less@K@std@@V?$allocator@U?$pair@$$CBKPAVCUser@@@std@@@3@$0A@@std@@@std@@KAAADPAU_Node@?$_Tree_nod@V?$_Tmap_traits@KPAVCUser@@U?$less@K@std@@V?$allocator@U?$pair@$$CBKPAVCUser@@@std@@@3@$0A@@std@@@2@@Z
_TEXT	SEGMENT PARA USE32 PUBLIC 'CODE'
_TEXT	ENDS
;	COMDAT ?_Parent@?$_Tree@V?$_Tmap_traits@KPAVCUser@@U?$less@K@std@@V?$allocator@U?$pair@$$CBKPAVCUser@@@std@@@3@$0A@@std@@@std@@KAAAPAU_Node@?$_Tree_nod@V?$_Tmap_traits@KPAVCUser@@U?$less@K@std@@V?$allocator@U?$pair@$$CBKPAVCUser@@@std@@@3@$0A@@std@@@2@PAU342@@Z
_TEXT	SEGMENT PARA USE32 PUBLIC 'CODE'
_TEXT	ENDS
;	COMDAT ?_Right@?$_Tree@V?$_Tmap_traits@KPAVCUser@@U?$less@K@std@@V?$allocator@U?$pair@$$CBKPAVCUser@@@std@@@3@$0A@@std@@@std@@KAAAPAU_Node@?$_Tree_nod@V?$_Tmap_traits@KPAVCUser@@U?$less@K@std@@V?$allocator@U?$pair@$$CBKPAVCUser@@@std@@@3@$0A@@std@@@2@PAU342@@Z
_TEXT	SEGMENT PARA USE32 PUBLIC 'CODE'
_TEXT	ENDS
;	COMDAT ?_Psave@?$_Facetptr@V?$ctype@G@std@@@std@@2PBVfacet@locale@2@B
_DATA	SEGMENT DWORD USE32 PUBLIC 'DATA'
_DATA	ENDS
;	COMDAT ?_Psave@?$_Facetptr@V?$ctype@D@std@@@std@@2PBVfacet@locale@2@B
_DATA	SEGMENT DWORD USE32 PUBLIC 'DATA'
_DATA	ENDS
;	COMDAT ??$swap@D@std@@YAXAAD0@Z
_TEXT	SEGMENT PARA USE32 PUBLIC 'CODE'
_TEXT	ENDS
;	COMDAT __TI3?AVout_of_range@std@@
xdata$x	SEGMENT DWORD USE32 PUBLIC 'CONST'
xdata$x	ENDS
;	COMDAT ??1out_of_range@std@@UAE@XZ
_TEXT	SEGMENT PARA USE32 PUBLIC 'CODE'
_TEXT	ENDS
;	COMDAT ??_7out_of_range@std@@6B@
CONST	SEGMENT DWORD USE32 PUBLIC 'CONST'
CONST	ENDS
;	COMDAT ??_Gout_of_range@std@@UAEPAXI@Z
_TEXT	SEGMENT PARA USE32 PUBLIC 'CODE'
_TEXT	ENDS
;	COMDAT ?what@logic_error@std@@UBEPBDXZ
_TEXT	SEGMENT PARA USE32 PUBLIC 'CODE'
_TEXT	ENDS
;	COMDAT ?c_str@?$basic_string@DU?$char_traits@D@std@@V?$allocator@D@2@@std@@QBEPBDXZ
_TEXT	SEGMENT PARA USE32 PUBLIC 'CODE'
_TEXT	ENDS
;	COMDAT ??1logic_error@std@@UAE@XZ
_TEXT	SEGMENT PARA USE32 PUBLIC 'CODE'
_TEXT	ENDS
;	COMDAT ??_7logic_error@std@@6B@
CONST	SEGMENT DWORD USE32 PUBLIC 'CONST'
CONST	ENDS
;	COMDAT ??_Glogic_error@std@@UAEPAXI@Z
_TEXT	SEGMENT PARA USE32 PUBLIC 'CODE'
_TEXT	ENDS
;	COMDAT __CTA3?AVout_of_range@std@@
xdata$x	SEGMENT DWORD USE32 PUBLIC 'CONST'
xdata$x	ENDS
;	COMDAT __CT??_R0?AVout_of_range@std@@@8??0out_of_range@std@@QAE@ABV01@@Z40
xdata$x	SEGMENT DWORD USE32 PUBLIC 'CONST'
xdata$x	ENDS
;	COMDAT ??_R0?AVout_of_range@std@@@8
_DATA	SEGMENT DWORD USE32 PUBLIC 'DATA'
_DATA	ENDS
;	COMDAT ??0out_of_range@std@@QAE@ABV01@@Z
_TEXT	SEGMENT PARA USE32 PUBLIC 'CODE'
_TEXT	ENDS
;	COMDAT ??0logic_error@std@@QAE@ABV01@@Z
_TEXT	SEGMENT PARA USE32 PUBLIC 'CODE'
_TEXT	ENDS
;	COMDAT ??0?$basic_string@DU?$char_traits@D@std@@V?$allocator@D@2@@std@@QAE@ABV01@@Z
_TEXT	SEGMENT PARA USE32 PUBLIC 'CODE'
_TEXT	ENDS
;	COMDAT ??0?$_String_val@DV?$allocator@D@std@@@std@@IAE@V?$allocator@D@1@@Z
_TEXT	SEGMENT PARA USE32 PUBLIC 'CODE'
_TEXT	ENDS
;	COMDAT ??0?$allocator@D@std@@QAE@ABV01@@Z
_TEXT	SEGMENT PARA USE32 PUBLIC 'CODE'
_TEXT	ENDS
;	COMDAT ?_Tidy@?$basic_string@DU?$char_traits@D@std@@V?$allocator@D@2@@std@@IAEX_NI@Z
_TEXT	SEGMENT PARA USE32 PUBLIC 'CODE'
_TEXT	ENDS
;	COMDAT ?copy@?$char_traits@D@std@@SAPADPADPBDI@Z
_TEXT	SEGMENT PARA USE32 PUBLIC 'CODE'
_TEXT	ENDS
;	COMDAT ?deallocate@?$allocator@D@std@@QAEXPADI@Z
_TEXT	SEGMENT PARA USE32 PUBLIC 'CODE'
_TEXT	ENDS
;	COMDAT ?_Eos@?$basic_string@DU?$char_traits@D@std@@V?$allocator@D@2@@std@@IAEXI@Z
_TEXT	SEGMENT PARA USE32 PUBLIC 'CODE'
_TEXT	ENDS
;	COMDAT ?assign@?$char_traits@D@std@@SAXAADABD@Z
_TEXT	SEGMENT PARA USE32 PUBLIC 'CODE'
_TEXT	ENDS
;	COMDAT ?_Myptr@?$basic_string@DU?$char_traits@D@std@@V?$allocator@D@2@@std@@QAEPADXZ
_TEXT	SEGMENT PARA USE32 PUBLIC 'CODE'
_TEXT	ENDS
;	COMDAT ?assign@?$basic_string@DU?$char_traits@D@std@@V?$allocator@D@2@@std@@QAEAAV12@ABV12@II@Z
_TEXT	SEGMENT PARA USE32 PUBLIC 'CODE'
_TEXT	ENDS
;	COMDAT ?erase@?$basic_string@DU?$char_traits@D@std@@V?$allocator@D@2@@std@@QAEAAV12@II@Z
_TEXT	SEGMENT PARA USE32 PUBLIC 'CODE'
_TEXT	ENDS
;	COMDAT ?move@?$char_traits@D@std@@SAPADPADPBDI@Z
_TEXT	SEGMENT PARA USE32 PUBLIC 'CODE'
_TEXT	ENDS
;	COMDAT ?_Grow@?$basic_string@DU?$char_traits@D@std@@V?$allocator@D@2@@std@@IAE_NI_N@Z
_TEXT	SEGMENT PARA USE32 PUBLIC 'CODE'
_TEXT	ENDS
;	COMDAT ?max_size@?$basic_string@DU?$char_traits@D@std@@V?$allocator@D@2@@std@@QBEIXZ
_TEXT	SEGMENT PARA USE32 PUBLIC 'CODE'
_TEXT	ENDS
;	COMDAT ?max_size@?$allocator@D@std@@QBEIXZ
_TEXT	SEGMENT PARA USE32 PUBLIC 'CODE'
_TEXT	ENDS
;	COMDAT ?_Copy@?$basic_string@DU?$char_traits@D@std@@V?$allocator@D@2@@std@@IAEXII@Z
_TEXT	SEGMENT PARA USE32 PUBLIC 'CODE'
_TEXT	ENDS
;	COMDAT ?allocate@?$allocator@D@std@@QAEPADI@Z
_TEXT	SEGMENT PARA USE32 PUBLIC 'CODE'
_TEXT	ENDS
;	COMDAT ??$_Allocate@D@std@@YAPADIPAD@Z
_TEXT	SEGMENT PARA USE32 PUBLIC 'CODE'
_TEXT	ENDS
;	COMDAT ?npos@?$basic_string@DU?$char_traits@D@std@@V?$allocator@D@2@@std@@2IB
CONST	SEGMENT DWORD USE32 PUBLIC 'CONST'
CONST	ENDS
;	COMDAT __CT??_R0?AVlogic_error@std@@@8??0logic_error@std@@QAE@ABV01@@Z40
xdata$x	SEGMENT DWORD USE32 PUBLIC 'CONST'
xdata$x	ENDS
;	COMDAT ??_R0?AVlogic_error@std@@@8
_DATA	SEGMENT DWORD USE32 PUBLIC 'DATA'
_DATA	ENDS
;	COMDAT __CT??_R0?AVexception@@@8??0exception@@QAE@ABV0@@Z12
xdata$x	SEGMENT DWORD USE32 PUBLIC 'CONST'
xdata$x	ENDS
;	COMDAT ??_R0?AVexception@@@8
_DATA	SEGMENT DWORD USE32 PUBLIC 'DATA'
_DATA	ENDS
;	COMDAT ??_C@_0BM@PAPJHAGI@invalid?5map?1set?$DMT?$DO?5iterator?$AA@
CONST	SEGMENT DWORD USE32 PUBLIC 'CONST'
CONST	ENDS
;	COMDAT ??0out_of_range@std@@QAE@ABV?$basic_string@DU?$char_traits@D@std@@V?$allocator@D@2@@1@@Z
_TEXT	SEGMENT PARA USE32 PUBLIC 'CODE'
_TEXT	ENDS
;	COMDAT ??0logic_error@std@@QAE@ABV?$basic_string@DU?$char_traits@D@std@@V?$allocator@D@2@@1@@Z
_TEXT	SEGMENT PARA USE32 PUBLIC 'CODE'
_TEXT	ENDS
;	COMDAT ??_C@_0BD@OLBABOEK@vector?$DMT?$DO?5too?5long?$AA@
CONST	SEGMENT DWORD USE32 PUBLIC 'CONST'
CONST	ENDS
;	COMDAT ??3@YAXPAX0@Z
_TEXT	SEGMENT PARA USE32 PUBLIC 'CODE'
_TEXT	ENDS
;	COMDAT ??2@YAPAXIPAX@Z
_TEXT	SEGMENT PARA USE32 PUBLIC 'CODE'
_TEXT	ENDS
;	COMDAT __TI3?AVlength_error@std@@
xdata$x	SEGMENT DWORD USE32 PUBLIC 'CONST'
xdata$x	ENDS
;	COMDAT ??1length_error@std@@UAE@XZ
_TEXT	SEGMENT PARA USE32 PUBLIC 'CODE'
_TEXT	ENDS
;	COMDAT ??_7length_error@std@@6B@
CONST	SEGMENT DWORD USE32 PUBLIC 'CONST'
CONST	ENDS
;	COMDAT ??_Glength_error@std@@UAEPAXI@Z
_TEXT	SEGMENT PARA USE32 PUBLIC 'CODE'
_TEXT	ENDS
;	COMDAT __CTA3?AVlength_error@std@@
xdata$x	SEGMENT DWORD USE32 PUBLIC 'CONST'
xdata$x	ENDS
;	COMDAT __CT??_R0?AVlength_error@std@@@8??0length_error@std@@QAE@ABV01@@Z40
xdata$x	SEGMENT DWORD USE32 PUBLIC 'CONST'
xdata$x	ENDS
;	COMDAT ??_R0?AVlength_error@std@@@8
_DATA	SEGMENT DWORD USE32 PUBLIC 'DATA'
_DATA	ENDS
;	COMDAT ??0length_error@std@@QAE@ABV01@@Z
_TEXT	SEGMENT PARA USE32 PUBLIC 'CODE'
_TEXT	ENDS
;	COMDAT ??1?$basic_string@DU?$char_traits@D@std@@V?$allocator@D@2@@std@@QAE@XZ
_TEXT	SEGMENT PARA USE32 PUBLIC 'CODE'
_TEXT	ENDS
;	COMDAT ??_C@_0BE@JONHPENG@map?1set?$DMT?$DO?5too?5long?$AA@
CONST	SEGMENT DWORD USE32 PUBLIC 'CONST'
CONST	ENDS
;	COMDAT ??0?$basic_string@DU?$char_traits@D@std@@V?$allocator@D@2@@std@@QAE@PBD@Z
_TEXT	SEGMENT PARA USE32 PUBLIC 'CODE'
_TEXT	ENDS
;	COMDAT ??0?$allocator@D@std@@QAE@XZ
_TEXT	SEGMENT PARA USE32 PUBLIC 'CODE'
_TEXT	ENDS
;	COMDAT ?assign@?$basic_string@DU?$char_traits@D@std@@V?$allocator@D@2@@std@@QAEAAV12@PBD@Z
_TEXT	SEGMENT PARA USE32 PUBLIC 'CODE'
_TEXT	ENDS
;	COMDAT ?assign@?$basic_string@DU?$char_traits@D@std@@V?$allocator@D@2@@std@@QAEAAV12@PBDI@Z
_TEXT	SEGMENT PARA USE32 PUBLIC 'CODE'
_TEXT	ENDS
;	COMDAT ?_Inside@?$basic_string@DU?$char_traits@D@std@@V?$allocator@D@2@@std@@IAE_NPBD@Z
_TEXT	SEGMENT PARA USE32 PUBLIC 'CODE'
_TEXT	ENDS
;	COMDAT ?length@?$char_traits@D@std@@SAIPBD@Z
_TEXT	SEGMENT PARA USE32 PUBLIC 'CODE'
_TEXT	ENDS
;	COMDAT ??0length_error@std@@QAE@ABV?$basic_string@DU?$char_traits@D@std@@V?$allocator@D@2@@1@@Z
_TEXT	SEGMENT PARA USE32 PUBLIC 'CODE'
_TEXT	ENDS
;	COMDAT ?compare@?$char_traits@D@std@@SAHPBD0I@Z
_TEXT	SEGMENT PARA USE32 PUBLIC 'CODE'
_TEXT	ENDS
;	COMDAT ?ReleaseBufferSetLength@?$CSimpleStringT@D$0A@@ATL@@QAEXH@Z
_TEXT	SEGMENT PARA USE32 PUBLIC 'CODE'
_TEXT	ENDS
;	COMDAT ?SetLength@?$CSimpleStringT@D$0A@@ATL@@AAEXH@Z
_TEXT	SEGMENT PARA USE32 PUBLIC 'CODE'
_TEXT	ENDS
;	COMDAT ?AtlThrow@ATL@@YGXJ@Z
_TEXT	SEGMENT PARA USE32 PUBLIC 'CODE'
_TEXT	ENDS
;	COMDAT ?CopyChars@?$CSimpleStringT@D$0A@@ATL@@SAXPADPBDH@Z
_TEXT	SEGMENT PARA USE32 PUBLIC 'CODE'
_TEXT	ENDS
;	COMDAT ?GetBuffer@?$CSimpleStringT@D$0A@@ATL@@QAEPADH@Z
_TEXT	SEGMENT PARA USE32 PUBLIC 'CODE'
_TEXT	ENDS
;	COMDAT ?PrepareWrite@?$CSimpleStringT@D$0A@@ATL@@AAEPADH@Z
_TEXT	SEGMENT PARA USE32 PUBLIC 'CODE'
_TEXT	ENDS
;	COMDAT ?PrepareWrite2@?$CSimpleStringT@D$0A@@ATL@@AAEXH@Z
_TEXT	SEGMENT PARA USE32 PUBLIC 'CODE'
_TEXT	ENDS
;	COMDAT ?IsShared@CStringData@ATL@@QBE_NXZ
_TEXT	SEGMENT PARA USE32 PUBLIC 'CODE'
_TEXT	ENDS
;	COMDAT ?Fork@?$CSimpleStringT@D$0A@@ATL@@AAEXH@Z
_TEXT	SEGMENT PARA USE32 PUBLIC 'CODE'
_TEXT	ENDS
;	COMDAT ?ThrowMemoryException@?$CSimpleStringT@D$0A@@ATL@@KAXXZ
_TEXT	SEGMENT PARA USE32 PUBLIC 'CODE'
_TEXT	ENDS
;	COMDAT ?data@CStringData@ATL@@QAEPAXXZ
_TEXT	SEGMENT PARA USE32 PUBLIC 'CODE'
_TEXT	ENDS
;	COMDAT ?Release@CStringData@ATL@@QAEXXZ
_TEXT	SEGMENT PARA USE32 PUBLIC 'CODE'
_TEXT	ENDS
;	COMDAT ?Attach@?$CSimpleStringT@D$0A@@ATL@@AAEXPAUCStringData@2@@Z
_TEXT	SEGMENT PARA USE32 PUBLIC 'CODE'
_TEXT	ENDS
;	COMDAT ?Reallocate@?$CSimpleStringT@D$0A@@ATL@@AAEXH@Z
_TEXT	SEGMENT PARA USE32 PUBLIC 'CODE'
_TEXT	ENDS
;	COMDAT ?GetData@?$CSimpleStringT@D$0A@@ATL@@ABEPAUCStringData@2@XZ
_TEXT	SEGMENT PARA USE32 PUBLIC 'CODE'
_TEXT	ENDS
;	COMDAT ?GetString@?$CSimpleStringT@D$0A@@ATL@@QBEPBDXZ
_TEXT	SEGMENT PARA USE32 PUBLIC 'CODE'
_TEXT	ENDS
;	COMDAT ??1?$CSimpleStringT@D$0A@@ATL@@QAE@XZ
_TEXT	SEGMENT PARA USE32 PUBLIC 'CODE'
_TEXT	ENDS
;	COMDAT ??0?$CSimpleStringT@D$0A@@ATL@@QAE@PAUIAtlStringMgr@1@@Z
_TEXT	SEGMENT PARA USE32 PUBLIC 'CODE'
_TEXT	ENDS
;	COMDAT ?_Myptr@?$basic_string@DU?$char_traits@D@std@@V?$allocator@D@2@@std@@QBEPBDXZ
_TEXT	SEGMENT PARA USE32 PUBLIC 'CODE'
_TEXT	ENDS
;	COMDAT ?size@?$basic_string@DU?$char_traits@D@std@@V?$allocator@D@2@@std@@QBEIXZ
_TEXT	SEGMENT PARA USE32 PUBLIC 'CODE'
_TEXT	ENDS
;	COMDAT ?GetLength@?$CSimpleStringT@D$0A@@ATL@@QBEHXZ
_TEXT	SEGMENT PARA USE32 PUBLIC 'CODE'
_TEXT	ENDS
;	COMDAT ??0D3DXVECTOR3@@QAE@MMM@Z
_TEXT	SEGMENT PARA USE32 PUBLIC 'CODE'
_TEXT	ENDS
;	COMDAT ??0D3DXVECTOR3@@QAE@XZ
_TEXT	SEGMENT PARA USE32 PUBLIC 'CODE'
_TEXT	ENDS
;	COMDAT ??0?$CStringT@DV?$StrTraitMFC@DV?$ChTraitsCRT@D@ATL@@@@@ATL@@QAE@ABV01@@Z
_TEXT	SEGMENT PARA USE32 PUBLIC 'CODE'
_TEXT	ENDS
;	COMDAT ??0?$CSimpleStringT@D$0A@@ATL@@QAE@ABV01@@Z
_TEXT	SEGMENT PARA USE32 PUBLIC 'CODE'
_TEXT	ENDS
;	COMDAT ?CloneData@?$CSimpleStringT@D$0A@@ATL@@CAPAUCStringData@2@PAU32@@Z
_TEXT	SEGMENT PARA USE32 PUBLIC 'CODE'
_TEXT	ENDS
;	COMDAT ?IsLocked@CStringData@ATL@@QBE_NXZ
_TEXT	SEGMENT PARA USE32 PUBLIC 'CODE'
_TEXT	ENDS
;	COMDAT ?AddRef@CStringData@ATL@@QAEXXZ
_TEXT	SEGMENT PARA USE32 PUBLIC 'CODE'
_TEXT	ENDS
;	COMDAT ?GetText@CProject@@QAEPBDK@Z
_TEXT	SEGMENT PARA USE32 PUBLIC 'CODE'
_TEXT	ENDS
;	COMDAT ?LOG_RANGE@@YAXPBDHHH@Z
_TEXT	SEGMENT PARA USE32 PUBLIC 'CODE'
_TEXT	ENDS
;	COMDAT ??_C@_0BM@HMFGHCP@?$CFs?5min?3?$CFd?0?5max?3?$CFd?0?5index?3?$CFd?$AA@
CONST	SEGMENT DWORD USE32 PUBLIC 'CONST'
CONST	ENDS
;	COMDAT ?GetSize@?$CFixedArray@UtagColorText@@@@QAEHXZ
_TEXT	SEGMENT PARA USE32 PUBLIC 'CODE'
_TEXT	ENDS
;	COMDAT ??_C@_0BE@OHDBLHOM@GetText?5range_error?$AA@
CONST	SEGMENT DWORD USE32 PUBLIC 'CONST'
CONST	ENDS
;	COMDAT ??_C@_05KKCIMGE@error?$AA@
CONST	SEGMENT DWORD USE32 PUBLIC 'CONST'
CONST	ENDS
;	COMDAT ??_C@_00CNPNBAHC@?$AA@
CONST	SEGMENT DWORD USE32 PUBLIC 'CONST'
CONST	ENDS
;	COMDAT ?GetAt@?$CFixedArray@UtagColorText@@@@QAEPAUtagColorText@@K@Z
_TEXT	SEGMENT PARA USE32 PUBLIC 'CODE'
_TEXT	ENDS
;	COMDAT ??4?$CStringT@DV?$StrTraitMFC@DV?$ChTraitsCRT@D@ATL@@@@@ATL@@QAEAAV01@PBD@Z
_TEXT	SEGMENT PARA USE32 PUBLIC 'CODE'
_TEXT	ENDS
;	COMDAT ??4?$CSimpleStringT@D$0A@@ATL@@QAEAAV01@PBD@Z
_TEXT	SEGMENT PARA USE32 PUBLIC 'CODE'
_TEXT	ENDS
;	COMDAT ?SetString@?$CSimpleStringT@D$0A@@ATL@@QAEXPBD@Z
_TEXT	SEGMENT PARA USE32 PUBLIC 'CODE'
_TEXT	ENDS
;	COMDAT ?SetString@?$CSimpleStringT@D$0A@@ATL@@QAEXPBDH@Z
_TEXT	SEGMENT PARA USE32 PUBLIC 'CODE'
_TEXT	ENDS
;	COMDAT ?Empty@?$CSimpleStringT@D$0A@@ATL@@QAEXXZ
_TEXT	SEGMENT PARA USE32 PUBLIC 'CODE'
_TEXT	ENDS
;	COMDAT ?CopyCharsOverlapped@?$CSimpleStringT@D$0A@@ATL@@SAXPADPBDH@Z
_TEXT	SEGMENT PARA USE32 PUBLIC 'CODE'
_TEXT	ENDS
;	COMDAT ?StringLength@?$CSimpleStringT@D$0A@@ATL@@SAHPBD@Z
_TEXT	SEGMENT PARA USE32 PUBLIC 'CODE'
_TEXT	ENDS
;	COMDAT ??0?$CStringT@DV?$StrTraitMFC@DV?$ChTraitsCRT@D@ATL@@@@@ATL@@QAE@XZ
_TEXT	SEGMENT PARA USE32 PUBLIC 'CODE'
_TEXT	ENDS
;	COMDAT ?GetDefaultManager@?$StrTraitMFC@DV?$ChTraitsCRT@D@ATL@@@@SAPAUIAtlStringMgr@ATL@@XZ
_TEXT	SEGMENT PARA USE32 PUBLIC 'CODE'
_TEXT	ENDS
;	COMDAT ?IsValidObj@@YAHPAVCObj@@@Z
_TEXT	SEGMENT PARA USE32 PUBLIC 'CODE'
_TEXT	ENDS
;	COMDAT ?IsDelete@CObj@@QAEHXZ
_TEXT	SEGMENT PARA USE32 PUBLIC 'CODE'
_TEXT	ENDS
;	COMDAT ?GetPos@CObj@@QAE?AUD3DXVECTOR3@@XZ
_TEXT	SEGMENT PARA USE32 PUBLIC 'CODE'
_TEXT	ENDS
;	COMDAT ?GetWorld@CObj@@QAEPAVCWorld@@XZ
_TEXT	SEGMENT PARA USE32 PUBLIC 'CODE'
_TEXT	ENDS
;	COMDAT ??0CPoint@@QAE@XZ
_TEXT	SEGMENT PARA USE32 PUBLIC 'CODE'
_TEXT	ENDS
;	COMDAT ??0CPoint@@QAE@HH@Z
_TEXT	SEGMENT PARA USE32 PUBLIC 'CODE'
_TEXT	ENDS
;	COMDAT ??B?$CSimpleStringT@D$0A@@ATL@@QBEPBDXZ
_TEXT	SEGMENT PARA USE32 PUBLIC 'CODE'
_TEXT	ENDS
;	COMDAT ??0?$CStringT@DV?$StrTraitMFC@DV?$ChTraitsCRT@D@ATL@@@@@ATL@@QAE@PBD@Z
_TEXT	SEGMENT PARA USE32 PUBLIC 'CODE'
_TEXT	ENDS
;	COMDAT ?CheckImplicitLoad@?$CStringT@DV?$StrTraitMFC@DV?$ChTraitsCRT@D@ATL@@@@@ATL@@AAE_NPBX@Z
_TEXT	SEGMENT PARA USE32 PUBLIC 'CODE'
_TEXT	ENDS
;	COMDAT ?LoadStringA@?$CStringT@DV?$StrTraitMFC@DV?$ChTraitsCRT@D@ATL@@@@@ATL@@QAEHI@Z
_TEXT	SEGMENT PARA USE32 PUBLIC 'CODE'
_TEXT	ENDS
;	COMDAT ?FindStringResourceInstance@?$StrTraitMFC@DV?$ChTraitsCRT@D@ATL@@@@SAPAUHINSTANCE__@@I@Z
_TEXT	SEGMENT PARA USE32 PUBLIC 'CODE'
_TEXT	ENDS
;	COMDAT ?LoadStringA@?$CStringT@DV?$StrTraitMFC@DV?$ChTraitsCRT@D@ATL@@@@@ATL@@QAEHPAUHINSTANCE__@@I@Z
_TEXT	SEGMENT PARA USE32 PUBLIC 'CODE'
_TEXT	ENDS
;	COMDAT ?AtlGetStringResourceImage@ATL@@YAPBUATLSTRINGRESOURCEIMAGE@1@PAUHINSTANCE__@@I@Z
_TEXT	SEGMENT PARA USE32 PUBLIC 'CODE'
_TEXT	ENDS
;	COMDAT ?_AtlGetStringResourceImage@ATL@@YAPBUATLSTRINGRESOURCEIMAGE@1@PAUHINSTANCE__@@PAUHRSRC__@@I@Z
_TEXT	SEGMENT PARA USE32 PUBLIC 'CODE'
_TEXT	ENDS
;	COMDAT ?GetBaseTypeLength@?$ChTraitsCRT@D@ATL@@SAHPBGH@Z
_TEXT	SEGMENT PARA USE32 PUBLIC 'CODE'
_TEXT	ENDS
;	COMDAT ?_AtlGetConversionACP@ATL@@YGIXZ
_TEXT	SEGMENT PARA USE32 PUBLIC 'CODE'
_TEXT	ENDS
;	COMDAT ?g_pfnGetThreadACP@ATL@@3P6GIXZA
_DATA	SEGMENT DWORD USE32 PUBLIC 'DATA'
_DATA	ENDS
;	COMDAT ?_AtlGetThreadACPThunk@ATL@@YGIXZ
_TEXT	SEGMENT PARA USE32 PUBLIC 'CODE'
_TEXT	ENDS
;	COMDAT ?_AtlGetThreadACPReal@ATL@@YGIXZ
_TEXT	SEGMENT PARA USE32 PUBLIC 'CODE'
_TEXT	ENDS
;	COMDAT ?_AtlGetThreadACPFake@ATL@@YGIXZ
_TEXT	SEGMENT PARA USE32 PUBLIC 'CODE'
_TEXT	ENDS
;	COMDAT ?InterlockedExchangePointer@@YGPAXPAPAXPAX@Z
_TEXT	SEGMENT PARA USE32 PUBLIC 'CODE'
_TEXT	ENDS
;	COMDAT ?ConvertToBaseType@?$ChTraitsCRT@D@ATL@@SAXPADHPBGH@Z
_TEXT	SEGMENT PARA USE32 PUBLIC 'CODE'
_TEXT	ENDS
;	COMDAT ??1?$CStringT@DV?$StrTraitMFC@DV?$ChTraitsCRT@D@ATL@@@@@ATL@@QAE@XZ
_TEXT	SEGMENT PARA USE32 PUBLIC 'CODE'
_TEXT	ENDS
;	COMDAT ?sContinent@?1??GetInstance@CContinent@@SAPAV2@XZ@4V2@A
_BSS	SEGMENT DWORD USE32 PUBLIC 'BSS'
_BSS	ENDS
;	COMDAT ?$S1@?1??GetInstance@CContinent@@SAPAV2@XZ@4IA
_BSS	SEGMENT DWORD USE32 PUBLIC 'BSS'
_BSS	ENDS
;	COMDAT ??_7CContinent@@6B@
CONST	SEGMENT DWORD USE32 PUBLIC 'CONST'
CONST	ENDS
sxdata	SEGMENT DWORD USE32 'SXDATA'
sxdata	ENDS
FLAT	GROUP _DATA, CONST, _BSS
	ASSUME	CS: FLAT, DS: FLAT, SS: FLAT
endif

INCLUDELIB LIBCMT
INCLUDELIB OLDNAMES

PUBLIC	?g_pfnGetThreadACP@ATL@@3P6GIXZA		; ATL::g_pfnGetThreadACP
PUBLIC	?_AtlGetThreadACPThunk@ATL@@YGIXZ		; ATL::_AtlGetThreadACPThunk
;	COMDAT ?g_pfnGetThreadACP@ATL@@3P6GIXZA
_DATA	SEGMENT
?g_pfnGetThreadACP@ATL@@3P6GIXZA DD FLAT:?_AtlGetThreadACPThunk@ATL@@YGIXZ ; ATL::g_pfnGetThreadACP
_DATA	ENDS
PUBLIC	??2@YAPAXIPAX@Z					; operator new
; Function compile flags: /Ogty
; File c:\program files\microsoft visual studio .net 2003\vc7\include\new.h
;	COMDAT ??2@YAPAXIPAX@Z
_TEXT	SEGMENT
___formal$ = 8						; size = 4
__P$ = 12						; size = 4
??2@YAPAXIPAX@Z PROC NEAR				; operator new, COMDAT

; 109  :         {return (_P); }

  00000	8b 44 24 08	 mov	 eax, DWORD PTR __P$[esp-4]
  00004	c3		 ret	 0
??2@YAPAXIPAX@Z ENDP					; operator new
_TEXT	ENDS
PUBLIC	??3@YAXPAX0@Z					; operator delete
; Function compile flags: /Ogty
;	COMDAT ??3@YAXPAX0@Z
_TEXT	SEGMENT
___formal$ = 8						; size = 4
___formal$ = 12						; size = 4
??3@YAXPAX0@Z PROC NEAR					; operator delete, COMDAT

; 112  :         {return; }

  00000	c3		 ret	 0
??3@YAXPAX0@Z ENDP					; operator delete
_TEXT	ENDS
PUBLIC	?GetArea@CContinent@@AAEEE@Z			; CContinent::GetArea
; Function compile flags: /Ogty
; File c:\documents and settings\test\mes documents\source\virtuos_v17\build\program\_common\continent.cpp
;	COMDAT ?GetArea@CContinent@@AAEEE@Z
_TEXT	SEGMENT
_nCont$ = 8						; size = 1
?GetArea@CContinent@@AAEEE@Z PROC NEAR			; CContinent::GetArea, COMDAT
; _this$ = ecx

; 218  : 	if( nCont == CONT_NODATA )

  00000	8a 44 24 04	 mov	 al, BYTE PTR _nCont$[esp-4]
  00004	84 c0		 test	 al, al
  00006	75 03		 jne	 SHORT $L230825

; 223  : 		return CONT_WEST;
; 224  : 
; 225  : 	return CONT_NODATA;
; 226  : }

  00008	c2 04 00	 ret	 4
$L230825:

; 219  : 		return CONT_NODATA;
; 220  : 	else if( nCont <= CONT_EAST )

  0000b	3c 0f		 cmp	 al, 15			; 0000000fH
  0000d	77 05		 ja	 SHORT $L230827

; 221  : 		return CONT_EAST;

  0000f	b0 0f		 mov	 al, 15			; 0000000fH

; 223  : 		return CONT_WEST;
; 224  : 
; 225  : 	return CONT_NODATA;
; 226  : }

  00011	c2 04 00	 ret	 4
$L230827:

; 222  : 	else if( nCont >= CONT_WEST )

  00014	3c f0		 cmp	 al, 240			; 000000f0H
  00016	0f 92 c0	 setb	 al
  00019	fe c8		 dec	 al
  0001b	25 f0 00 00 00	 and	 eax, 240		; 000000f0H

; 223  : 		return CONT_WEST;
; 224  : 
; 225  : 	return CONT_NODATA;
; 226  : }

  00020	c2 04 00	 ret	 4
?GetArea@CContinent@@AAEEE@Z ENDP			; CContinent::GetArea
_TEXT	ENDS
PUBLIC	?GetContinentIndex@CContinent@@QAEHPBD@Z	; CContinent::GetContinentIndex
PUBLIC	??_C@_06BMAOEDJD@Flaris?$AA@			; `string'
PUBLIC	??_C@_05CPEBJIKJ@Saint?$AA@			; `string'
PUBLIC	??_C@_05PBNOGAOL@Ricis?$AA@			; `string'
PUBLIC	??_C@_08JHEPJMJO@Darkon12?$AA@			; `string'
PUBLIC	??_C@_07GHKECFAJ@Darkon3?$AA@			; `string'
PUBLIC	??_C@_08NDIDOBMH@Harmonin?$AA@			; `string'
PUBLIC	??_C@_0M@OHPEKFLK@Estia_envir?$AA@		; `string'
PUBLIC	??_C@_05HAGHMCBO@Estia?$AA@			; `string'
PUBLIC	??_C@_06MLCICBFL@Darken?$AA@			; `string'
PUBLIC	??_C@_0O@JJLGFEMO@Flarinenosple?$AA@		; `string'
PUBLIC	??_C@_08FHABOGPM@Saincity?$AA@			; `string'
PUBLIC	??_C@_07GIGGNJIL@Kaillun?$AA@			; `string'
PUBLIC	??_C@_05KCAAALNE@Eliun?$AA@			; `string'
PUBLIC	??_C@_06HDOENCBM@Bahara?$AA@			; `string'
PUBLIC	??_C@_0L@NOHPMHGP@UpresiaEnt?$AA@		; `string'
;	COMDAT ??_C@_06BMAOEDJD@Flaris?$AA@
CONST	SEGMENT
??_C@_06BMAOEDJD@Flaris?$AA@ DB 'Flaris', 00H		; `string'
CONST	ENDS
;	COMDAT ??_C@_05CPEBJIKJ@Saint?$AA@
CONST	SEGMENT
??_C@_05CPEBJIKJ@Saint?$AA@ DB 'Saint', 00H		; `string'
CONST	ENDS
;	COMDAT ??_C@_05PBNOGAOL@Ricis?$AA@
CONST	SEGMENT
??_C@_05PBNOGAOL@Ricis?$AA@ DB 'Ricis', 00H		; `string'
CONST	ENDS
;	COMDAT ??_C@_08JHEPJMJO@Darkon12?$AA@
CONST	SEGMENT
??_C@_08JHEPJMJO@Darkon12?$AA@ DB 'Darkon12', 00H	; `string'
CONST	ENDS
;	COMDAT ??_C@_07GHKECFAJ@Darkon3?$AA@
CONST	SEGMENT
??_C@_07GHKECFAJ@Darkon3?$AA@ DB 'Darkon3', 00H		; `string'
CONST	ENDS
;	COMDAT ??_C@_08NDIDOBMH@Harmonin?$AA@
CONST	SEGMENT
??_C@_08NDIDOBMH@Harmonin?$AA@ DB 'Harmonin', 00H	; `string'
CONST	ENDS
;	COMDAT ??_C@_0M@OHPEKFLK@Estia_envir?$AA@
CONST	SEGMENT
??_C@_0M@OHPEKFLK@Estia_envir?$AA@ DB 'Estia_envir', 00H ; `string'
CONST	ENDS
;	COMDAT ??_C@_05HAGHMCBO@Estia?$AA@
CONST	SEGMENT
??_C@_05HAGHMCBO@Estia?$AA@ DB 'Estia', 00H		; `string'
CONST	ENDS
;	COMDAT ??_C@_06MLCICBFL@Darken?$AA@
CONST	SEGMENT
??_C@_06MLCICBFL@Darken?$AA@ DB 'Darken', 00H		; `string'
CONST	ENDS
;	COMDAT ??_C@_0O@JJLGFEMO@Flarinenosple?$AA@
CONST	SEGMENT
??_C@_0O@JJLGFEMO@Flarinenosple?$AA@ DB 'Flarinenosple', 00H ; `string'
CONST	ENDS
;	COMDAT ??_C@_08FHABOGPM@Saincity?$AA@
CONST	SEGMENT
??_C@_08FHABOGPM@Saincity?$AA@ DB 'Saincity', 00H	; `string'
CONST	ENDS
;	COMDAT ??_C@_07GIGGNJIL@Kaillun?$AA@
CONST	SEGMENT
??_C@_07GIGGNJIL@Kaillun?$AA@ DB 'Kaillun', 00H		; `string'
CONST	ENDS
;	COMDAT ??_C@_05KCAAALNE@Eliun?$AA@
CONST	SEGMENT
??_C@_05KCAAALNE@Eliun?$AA@ DB 'Eliun', 00H		; `string'
CONST	ENDS
;	COMDAT ??_C@_06HDOENCBM@Bahara?$AA@
CONST	SEGMENT
??_C@_06HDOENCBM@Bahara?$AA@ DB 'Bahara', 00H		; `string'
CONST	ENDS
;	COMDAT ??_C@_0L@NOHPMHGP@UpresiaEnt?$AA@
CONST	SEGMENT
??_C@_0L@NOHPMHGP@UpresiaEnt?$AA@ DB 'UpresiaEnt', 00H	; `string'
; Function compile flags: /Ogty
CONST	ENDS
;	COMDAT ?GetContinentIndex@CContinent@@QAEHPBD@Z
_TEXT	SEGMENT
_continentName$ = 8					; size = 4
?GetContinentIndex@CContinent@@QAEHPBD@Z PROC NEAR	; CContinent::GetContinentIndex, COMDAT
; _this$ = ecx

; 323  : 	if( strcmp( "Flaris", continentName ) == 0 )

  00000	8b 44 24 04	 mov	 eax, DWORD PTR _continentName$[esp-4]
  00004	56		 push	 esi
  00005	57		 push	 edi
  00006	8b f8		 mov	 edi, eax
  00008	be 00 00 00 00	 mov	 esi, OFFSET FLAT:??_C@_06BMAOEDJD@Flaris?$AA@
  0000d	b9 07 00 00 00	 mov	 ecx, 7
  00012	33 d2		 xor	 edx, edx
  00014	f3 a6		 repe cmpsb
  00016	75 0a		 jne	 SHORT $L230881
  00018	5f		 pop	 edi

; 324  : 	{
; 325  : 		return CONT_FLARIS;

  00019	b8 01 00 00 00	 mov	 eax, 1
  0001e	5e		 pop	 esi

; 396  : 	{
; 397  : 		return CONT_BAHARA;
; 398  : 	}
; 399  : #endif // __VER >= 17
; 400  : 
; 401  : 	return CONT_NODATA;
; 402  : }

  0001f	c2 04 00	 ret	 4
$L230881:

; 326  : 	}
; 327  : 	else 
; 328  : 	if( strcmp( "Saint", continentName ) == 0 )

  00022	8b f8		 mov	 edi, eax
  00024	be 00 00 00 00	 mov	 esi, OFFSET FLAT:??_C@_05CPEBJIKJ@Saint?$AA@
  00029	b9 06 00 00 00	 mov	 ecx, 6
  0002e	33 d2		 xor	 edx, edx
  00030	f3 a6		 repe cmpsb
  00032	75 0a		 jne	 SHORT $L230884
  00034	5f		 pop	 edi

; 329  : 	{
; 330  : 		return CONT_SAINTMORNING;

  00035	b8 02 00 00 00	 mov	 eax, 2
  0003a	5e		 pop	 esi

; 396  : 	{
; 397  : 		return CONT_BAHARA;
; 398  : 	}
; 399  : #endif // __VER >= 17
; 400  : 
; 401  : 	return CONT_NODATA;
; 402  : }

  0003b	c2 04 00	 ret	 4
$L230884:

; 331  : 	}
; 332  : 	else
; 333  : 	if( strcmp( "Ricis", continentName ) == 0 )

  0003e	8b f8		 mov	 edi, eax
  00040	be 00 00 00 00	 mov	 esi, OFFSET FLAT:??_C@_05PBNOGAOL@Ricis?$AA@
  00045	b9 06 00 00 00	 mov	 ecx, 6
  0004a	33 d2		 xor	 edx, edx
  0004c	f3 a6		 repe cmpsb
  0004e	75 0a		 jne	 SHORT $L230887
  00050	5f		 pop	 edi

; 334  : 	{
; 335  : 		return CONT_RICIS;

  00051	b8 03 00 00 00	 mov	 eax, 3
  00056	5e		 pop	 esi

; 396  : 	{
; 397  : 		return CONT_BAHARA;
; 398  : 	}
; 399  : #endif // __VER >= 17
; 400  : 
; 401  : 	return CONT_NODATA;
; 402  : }

  00057	c2 04 00	 ret	 4
$L230887:

; 336  : 	}
; 337  : 	else
; 338  : 	if( strcmp( "Darkon12", continentName ) == 0 )

  0005a	8b f8		 mov	 edi, eax
  0005c	be 00 00 00 00	 mov	 esi, OFFSET FLAT:??_C@_08JHEPJMJO@Darkon12?$AA@
  00061	b9 09 00 00 00	 mov	 ecx, 9
  00066	33 d2		 xor	 edx, edx
  00068	f3 a6		 repe cmpsb
  0006a	75 0a		 jne	 SHORT $L230890
  0006c	5f		 pop	 edi

; 339  : 	{
; 340  : 		return CONT_DARKON12;

  0006d	b8 f1 00 00 00	 mov	 eax, 241		; 000000f1H
  00072	5e		 pop	 esi

; 396  : 	{
; 397  : 		return CONT_BAHARA;
; 398  : 	}
; 399  : #endif // __VER >= 17
; 400  : 
; 401  : 	return CONT_NODATA;
; 402  : }

  00073	c2 04 00	 ret	 4
$L230890:

; 341  : 	}
; 342  : 	else
; 343  : 	if( strcmp( "Darkon3", continentName ) == 0 )

  00076	8b f8		 mov	 edi, eax
  00078	be 00 00 00 00	 mov	 esi, OFFSET FLAT:??_C@_07GHKECFAJ@Darkon3?$AA@
  0007d	b9 08 00 00 00	 mov	 ecx, 8
  00082	33 d2		 xor	 edx, edx
  00084	f3 a6		 repe cmpsb
  00086	75 0a		 jne	 SHORT $L230893
  00088	5f		 pop	 edi

; 344  : 	{
; 345  : 		return CONT_DARKON3;

  00089	b8 f2 00 00 00	 mov	 eax, 242		; 000000f2H
  0008e	5e		 pop	 esi

; 396  : 	{
; 397  : 		return CONT_BAHARA;
; 398  : 	}
; 399  : #endif // __VER >= 17
; 400  : 
; 401  : 	return CONT_NODATA;
; 402  : }

  0008f	c2 04 00	 ret	 4
$L230893:

; 346  : 	}
; 347  : 	else
; 348  : 	if( strcmp( "Harmonin", continentName ) == 0 )

  00092	8b f8		 mov	 edi, eax
  00094	be 00 00 00 00	 mov	 esi, OFFSET FLAT:??_C@_08NDIDOBMH@Harmonin?$AA@
  00099	b9 09 00 00 00	 mov	 ecx, 9
  0009e	33 d2		 xor	 edx, edx
  000a0	f3 a6		 repe cmpsb
  000a2	75 0a		 jne	 SHORT $L230896
  000a4	5f		 pop	 edi

; 349  : 	{
; 350  : 		return CONT_HARMONIN;

  000a5	b8 f3 00 00 00	 mov	 eax, 243		; 000000f3H
  000aa	5e		 pop	 esi

; 396  : 	{
; 397  : 		return CONT_BAHARA;
; 398  : 	}
; 399  : #endif // __VER >= 17
; 400  : 
; 401  : 	return CONT_NODATA;
; 402  : }

  000ab	c2 04 00	 ret	 4
$L230896:

; 351  : 	}
; 352  : 	else
; 353  : 	if( strcmp( "Estia_envir", continentName ) == 0 )

  000ae	8b f8		 mov	 edi, eax
  000b0	be 00 00 00 00	 mov	 esi, OFFSET FLAT:??_C@_0M@OHPEKFLK@Estia_envir?$AA@
  000b5	b9 0c 00 00 00	 mov	 ecx, 12			; 0000000cH
  000ba	33 d2		 xor	 edx, edx
  000bc	f3 a6		 repe cmpsb
  000be	75 0a		 jne	 SHORT $L230899
$L233472:
  000c0	5f		 pop	 edi

; 354  : 	{
; 355  : 		return CONT_ESTIA;

  000c1	b8 04 00 00 00	 mov	 eax, 4
  000c6	5e		 pop	 esi

; 396  : 	{
; 397  : 		return CONT_BAHARA;
; 398  : 	}
; 399  : #endif // __VER >= 17
; 400  : 
; 401  : 	return CONT_NODATA;
; 402  : }

  000c7	c2 04 00	 ret	 4
$L230899:

; 356  : 	}
; 357  : 	else
; 358  : 	if( strcmp( "Estia", continentName ) == 0 )

  000ca	8b f8		 mov	 edi, eax
  000cc	be 00 00 00 00	 mov	 esi, OFFSET FLAT:??_C@_05HAGHMCBO@Estia?$AA@
  000d1	b9 06 00 00 00	 mov	 ecx, 6
  000d6	33 d2		 xor	 edx, edx
  000d8	f3 a6		 repe cmpsb

; 359  : 	{
; 360  : 		return CONT_ESTIA;

  000da	74 e4		 je	 SHORT $L233472

; 361  : 	}
; 362  : 	else
; 363  : 	if( strcmp( "Darken", continentName ) == 0 )

  000dc	8b f8		 mov	 edi, eax
  000de	be 00 00 00 00	 mov	 esi, OFFSET FLAT:??_C@_06MLCICBFL@Darken?$AA@
  000e3	b9 07 00 00 00	 mov	 ecx, 7
  000e8	33 d2		 xor	 edx, edx
  000ea	f3 a6		 repe cmpsb
  000ec	75 0a		 jne	 SHORT $L230905
  000ee	5f		 pop	 edi

; 364  : 	{
; 365  : 		return TOWN_DARKEN;

  000ef	b8 34 00 00 00	 mov	 eax, 52			; 00000034H
  000f4	5e		 pop	 esi

; 396  : 	{
; 397  : 		return CONT_BAHARA;
; 398  : 	}
; 399  : #endif // __VER >= 17
; 400  : 
; 401  : 	return CONT_NODATA;
; 402  : }

  000f5	c2 04 00	 ret	 4
$L230905:

; 366  : 	}
; 367  : 	else
; 368  : 	if( strcmp( "Flarinenosple", continentName ) == 0 )

  000f8	8b f8		 mov	 edi, eax
  000fa	be 00 00 00 00	 mov	 esi, OFFSET FLAT:??_C@_0O@JJLGFEMO@Flarinenosple?$AA@
  000ff	b9 0e 00 00 00	 mov	 ecx, 14			; 0000000eH
  00104	33 d2		 xor	 edx, edx
  00106	f3 a6		 repe cmpsb
  00108	75 0a		 jne	 SHORT $L230908
  0010a	5f		 pop	 edi

; 369  : 	{
; 370  : 		return TOWN_FLARINENOSPLE;

  0010b	b8 36 00 00 00	 mov	 eax, 54			; 00000036H
  00110	5e		 pop	 esi

; 396  : 	{
; 397  : 		return CONT_BAHARA;
; 398  : 	}
; 399  : #endif // __VER >= 17
; 400  : 
; 401  : 	return CONT_NODATA;
; 402  : }

  00111	c2 04 00	 ret	 4
$L230908:

; 371  : 	}
; 372  : 	else
; 373  : 	if( strcmp( "Saincity", continentName ) == 0 )

  00114	8b f8		 mov	 edi, eax
  00116	be 00 00 00 00	 mov	 esi, OFFSET FLAT:??_C@_08FHABOGPM@Saincity?$AA@
  0011b	b9 09 00 00 00	 mov	 ecx, 9
  00120	33 d2		 xor	 edx, edx
  00122	f3 a6		 repe cmpsb
  00124	75 0a		 jne	 SHORT $L230911
  00126	5f		 pop	 edi

; 374  : 	{
; 375  : 		return TOWN_SAINCITY;

  00127	b8 33 00 00 00	 mov	 eax, 51			; 00000033H
  0012c	5e		 pop	 esi

; 396  : 	{
; 397  : 		return CONT_BAHARA;
; 398  : 	}
; 399  : #endif // __VER >= 17
; 400  : 
; 401  : 	return CONT_NODATA;
; 402  : }

  0012d	c2 04 00	 ret	 4
$L230911:

; 376  : 	}
; 377  : 	else
; 378  : 	if( strcmp( "Kaillun", continentName ) == 0 )

  00130	8b f8		 mov	 edi, eax
  00132	be 00 00 00 00	 mov	 esi, OFFSET FLAT:??_C@_07GIGGNJIL@Kaillun?$AA@
  00137	b9 08 00 00 00	 mov	 ecx, 8
  0013c	33 d2		 xor	 edx, edx
  0013e	f3 a6		 repe cmpsb
  00140	75 0a		 jne	 SHORT $L230914
  00142	5f		 pop	 edi

; 379  : 	{
; 380  : 		return CONT_KAILLUN;

  00143	b8 f4 00 00 00	 mov	 eax, 244		; 000000f4H
  00148	5e		 pop	 esi

; 396  : 	{
; 397  : 		return CONT_BAHARA;
; 398  : 	}
; 399  : #endif // __VER >= 17
; 400  : 
; 401  : 	return CONT_NODATA;
; 402  : }

  00149	c2 04 00	 ret	 4
$L230914:

; 381  : 	}
; 382  : 	else
; 383  : 	if( strcmp( "Eliun", continentName ) == 0 )

  0014c	8b f8		 mov	 edi, eax
  0014e	be 00 00 00 00	 mov	 esi, OFFSET FLAT:??_C@_05KCAAALNE@Eliun?$AA@
  00153	b9 06 00 00 00	 mov	 ecx, 6
  00158	33 d2		 xor	 edx, edx
  0015a	f3 a6		 repe cmpsb
  0015c	75 0a		 jne	 SHORT $L230917
  0015e	5f		 pop	 edi

; 384  : 	{
; 385  : 		return TOWN_ELIUN;

  0015f	b8 35 00 00 00	 mov	 eax, 53			; 00000035H
  00164	5e		 pop	 esi

; 396  : 	{
; 397  : 		return CONT_BAHARA;
; 398  : 	}
; 399  : #endif // __VER >= 17
; 400  : 
; 401  : 	return CONT_NODATA;
; 402  : }

  00165	c2 04 00	 ret	 4
$L230917:

; 386  : 	}
; 387  : 
; 388  : #if __VER >= 17
; 389  : 	else
; 390  : 	if( strcmp( "Bahara", continentName ) == 0 )

  00168	8b f8		 mov	 edi, eax
  0016a	be 00 00 00 00	 mov	 esi, OFFSET FLAT:??_C@_06HDOENCBM@Bahara?$AA@
  0016f	b9 07 00 00 00	 mov	 ecx, 7
  00174	33 d2		 xor	 edx, edx
  00176	f3 a6		 repe cmpsb
  00178	75 0a		 jne	 SHORT $L230920
  0017a	5f		 pop	 edi

; 391  : 	{
; 392  : 		return CONT_BAHARA;

  0017b	b8 f5 00 00 00	 mov	 eax, 245		; 000000f5H
  00180	5e		 pop	 esi

; 396  : 	{
; 397  : 		return CONT_BAHARA;
; 398  : 	}
; 399  : #endif // __VER >= 17
; 400  : 
; 401  : 	return CONT_NODATA;
; 402  : }

  00181	c2 04 00	 ret	 4
$L230920:

; 393  : 	}
; 394  : 	else
; 395  : 	if( strcmp( "UpresiaEnt", continentName ) == 0 )

  00184	8b f8		 mov	 edi, eax
  00186	33 c0		 xor	 eax, eax
  00188	be 00 00 00 00	 mov	 esi, OFFSET FLAT:??_C@_0L@NOHPMHGP@UpresiaEnt?$AA@
  0018d	b9 0b 00 00 00	 mov	 ecx, 11			; 0000000bH
  00192	f3 a6		 repe cmpsb
  00194	0f 95 c0	 setne	 al
  00197	5f		 pop	 edi
  00198	5e		 pop	 esi
  00199	48		 dec	 eax
  0019a	25 f5 00 00 00	 and	 eax, 245		; 000000f5H

; 396  : 	{
; 397  : 		return CONT_BAHARA;
; 398  : 	}
; 399  : #endif // __VER >= 17
; 400  : 
; 401  : 	return CONT_NODATA;
; 402  : }

  0019f	c2 04 00	 ret	 4
?GetContinentIndex@CContinent@@QAEHPBD@Z ENDP		; CContinent::GetContinentIndex
_TEXT	ENDS
PUBLIC	?InterlockedExchangePointer@@YGPAXPAPAXPAX@Z	; InterlockedExchangePointer
EXTRN	__imp__InterlockedExchange@8:NEAR
; Function compile flags: /Ogty
; File c:\program files\microsoft visual studio .net 2003\vc7\atlmfc\include\atlconv.h
;	COMDAT ?InterlockedExchangePointer@@YGPAXPAPAXPAX@Z
_TEXT	SEGMENT
_pp$ = 8						; size = 4
_pNew$ = 12						; size = 4
?InterlockedExchangePointer@@YGPAXPAPAXPAX@Z PROC NEAR	; InterlockedExchangePointer, COMDAT

; 92   : 	return( reinterpret_cast<void*>(static_cast<LONG_PTR>(::InterlockedExchange(reinterpret_cast<LONG*>(pp), static_cast<LONG>(reinterpret_cast<LONG_PTR>(pNew))))) );

  00000	ff 25 00 00 00
	00		 jmp	 DWORD PTR __imp__InterlockedExchange@8
?InterlockedExchangePointer@@YGPAXPAPAXPAX@Z ENDP	; InterlockedExchangePointer
_TEXT	ENDS
PUBLIC	?_AtlGetThreadACPFake@ATL@@YGIXZ		; ATL::_AtlGetThreadACPFake
EXTRN	___security_cookie:DWORD
EXTRN	@__security_check_cookie@4:NEAR
EXTRN	__imp__GetThreadLocale@0:NEAR
EXTRN	__imp__GetACP@0:NEAR
EXTRN	__imp__GetLocaleInfoA@16:NEAR
; Function compile flags: /Ogty
;	COMDAT ?_AtlGetThreadACPFake@ATL@@YGIXZ
_TEXT	SEGMENT
_szACP$ = -12						; size = 7
__$ArrayPad$ = -4					; size = 4
__$ReturnAddr$ = 4					; size = 4
?_AtlGetThreadACPFake@ATL@@YGIXZ PROC NEAR		; ATL::_AtlGetThreadACPFake, COMDAT

; 101  : {

  00000	83 ec 0c	 sub	 esp, 12			; 0000000cH
  00003	a1 00 00 00 00	 mov	 eax, DWORD PTR ___security_cookie
  00008	33 c4		 xor	 eax, esp
  0000a	56		 push	 esi
  0000b	89 44 24 0c	 mov	 DWORD PTR __$ArrayPad$[esp+16], eax

; 102  : 	UINT nACP = 0;

  0000f	33 f6		 xor	 esi, esi

; 103  : 
; 104  : 	LCID lcidThread = ::GetThreadLocale();

  00011	ff 15 00 00 00
	00		 call	 DWORD PTR __imp__GetThreadLocale@0

; 105  : 
; 106  : 	char szACP[7];
; 107  : 	// GetLocaleInfoA will fail for a Unicode-only LCID, but those are only supported on 
; 108  : 	// Windows 2000.  Since Windows 2000 supports CP_THREAD_ACP, this code path is never
; 109  : 	// executed on Windows 2000.
; 110  : 	if (::GetLocaleInfoA(lcidThread, LOCALE_IDEFAULTANSICODEPAGE, szACP, 7) != 0)

  00017	6a 07		 push	 7
  00019	8d 4c 24 08	 lea	 ecx, DWORD PTR _szACP$[esp+20]
  0001d	51		 push	 ecx
  0001e	68 04 10 00 00	 push	 4100			; 00001004H
  00023	50		 push	 eax
  00024	ff 15 00 00 00
	00		 call	 DWORD PTR __imp__GetLocaleInfoA@16
  0002a	85 c0		 test	 eax, eax
  0002c	74 27		 je	 SHORT $L233483

; 111  : 	{
; 112  : 		char* pch = szACP;
; 113  : 		while (*pch != '\0')

  0002e	8a 44 24 04	 mov	 al, BYTE PTR _szACP$[esp+16]
  00032	84 c0		 test	 al, al
  00034	8d 4c 24 04	 lea	 ecx, DWORD PTR _szACP$[esp+16]
  00038	74 1b		 je	 SHORT $L233483
  0003a	8d 9b 00 00 00
	00		 npad	 6
$L38556:

; 114  : 		{
; 115  : 			nACP *= 10;
; 116  : 			nACP += *pch++ - '0';

  00040	0f be c0	 movsx	 eax, al
  00043	8d 14 b6	 lea	 edx, DWORD PTR [esi+esi*4]
  00046	41		 inc	 ecx
  00047	8d 74 50 d0	 lea	 esi, DWORD PTR [eax+edx*2-48]
  0004b	8a 01		 mov	 al, BYTE PTR [ecx]
  0004d	84 c0		 test	 al, al
  0004f	75 ef		 jne	 SHORT $L38556

; 117  : 		}
; 118  : 	}
; 119  : 	// Use the Default ANSI Code Page if we were unable to get the thread ACP or if one does not exist.
; 120  : 	if (nACP == 0)

  00051	85 f6		 test	 esi, esi
  00053	75 16		 jne	 SHORT $L233484
$L233483:

; 121  : 		nACP = ::GetACP();

  00055	ff 15 00 00 00
	00		 call	 DWORD PTR __imp__GetACP@0
  0005b	5e		 pop	 esi

; 122  : 
; 123  : 	return nACP;
; 124  : }

  0005c	8b 4c 24 08	 mov	 ecx, DWORD PTR __$ArrayPad$[esp+12]
  00060	33 cc		 xor	 ecx, esp
  00062	e8 00 00 00 00	 call	 @__security_check_cookie@4
  00067	83 c4 0c	 add	 esp, 12			; 0000000cH
  0006a	c3		 ret	 0
$L233484:
  0006b	8b 4c 24 0c	 mov	 ecx, DWORD PTR __$ArrayPad$[esp+16]
  0006f	8b c6		 mov	 eax, esi
  00071	5e		 pop	 esi
  00072	33 cc		 xor	 ecx, esp
  00074	e8 00 00 00 00	 call	 @__security_check_cookie@4
  00079	83 c4 0c	 add	 esp, 12			; 0000000cH
  0007c	c3		 ret	 0
?_AtlGetThreadACPFake@ATL@@YGIXZ ENDP			; ATL::_AtlGetThreadACPFake
_TEXT	ENDS
PUBLIC	?_AtlGetThreadACPReal@ATL@@YGIXZ		; ATL::_AtlGetThreadACPReal
; Function compile flags: /Ogty
;	COMDAT ?_AtlGetThreadACPReal@ATL@@YGIXZ
_TEXT	SEGMENT
?_AtlGetThreadACPReal@ATL@@YGIXZ PROC NEAR		; ATL::_AtlGetThreadACPReal, COMDAT

; 128  : 	return( CP_THREAD_ACP );

  00000	b8 03 00 00 00	 mov	 eax, 3

; 129  : }

  00005	c3		 ret	 0
?_AtlGetThreadACPReal@ATL@@YGIXZ ENDP			; ATL::_AtlGetThreadACPReal
_TEXT	ENDS
EXTRN	__imp__GetVersionExA@4:NEAR
; Function compile flags: /Ogty
;	COMDAT ?_AtlGetThreadACPThunk@ATL@@YGIXZ
_TEXT	SEGMENT
_ver$ = -152						; size = 148
__$ArrayPad$ = -4					; size = 4
__$ReturnAddr$ = 4					; size = 4
?_AtlGetThreadACPThunk@ATL@@YGIXZ PROC NEAR		; ATL::_AtlGetThreadACPThunk, COMDAT

; 134  : {

  00000	81 ec 98 00 00
	00		 sub	 esp, 152		; 00000098H
  00006	a1 00 00 00 00	 mov	 eax, DWORD PTR ___security_cookie
  0000b	33 c4		 xor	 eax, esp
  0000d	89 84 24 94 00
	00 00		 mov	 DWORD PTR __$ArrayPad$[esp+152], eax

; 135  : 	OSVERSIONINFO ver;
; 136  : 	ATLGETTHREADACP pfnGetThreadACP;
; 137  : 
; 138  : 	ver.dwOSVersionInfoSize = sizeof( ver );
; 139  : 	::GetVersionEx( &ver );

  00014	8d 04 24	 lea	 eax, DWORD PTR _ver$[esp+152]
  00017	50		 push	 eax
  00018	c7 44 24 04 94
	00 00 00	 mov	 DWORD PTR _ver$[esp+156], 148 ; 00000094H
  00020	ff 15 00 00 00
	00		 call	 DWORD PTR __imp__GetVersionExA@4

; 140  : 	if( (ver.dwPlatformId == VER_PLATFORM_WIN32_NT) && (ver.dwMajorVersion >= 5) )

  00026	83 7c 24 10 02	 cmp	 DWORD PTR _ver$[esp+168], 2
  0002b	75 0c		 jne	 SHORT $L38566
  0002d	83 7c 24 04 05	 cmp	 DWORD PTR _ver$[esp+156], 5

; 141  : 	{
; 142  : 		// On Win2K, CP_THREAD_ACP is supported
; 143  : 		pfnGetThreadACP = _AtlGetThreadACPReal;

  00032	b8 00 00 00 00	 mov	 eax, OFFSET FLAT:?_AtlGetThreadACPReal@ATL@@YGIXZ ; ATL::_AtlGetThreadACPReal
  00037	73 05		 jae	 SHORT $L38567
$L38566:

; 144  : 	}
; 145  : 	else
; 146  : 	{
; 147  : 		pfnGetThreadACP = _AtlGetThreadACPFake;

  00039	b8 00 00 00 00	 mov	 eax, OFFSET FLAT:?_AtlGetThreadACPFake@ATL@@YGIXZ ; ATL::_AtlGetThreadACPFake
$L38567:

; 148  : 	}
; 149  : 	InterlockedExchangePointer( reinterpret_cast< void** >(&g_pfnGetThreadACP), pfnGetThreadACP );

  0003e	50		 push	 eax
  0003f	68 00 00 00 00	 push	 OFFSET FLAT:?g_pfnGetThreadACP@ATL@@3P6GIXZA ; ATL::g_pfnGetThreadACP
  00044	ff 15 00 00 00
	00		 call	 DWORD PTR __imp__InterlockedExchange@8

; 150  : 
; 151  : 	return( g_pfnGetThreadACP() );

  0004a	ff 15 00 00 00
	00		 call	 DWORD PTR ?g_pfnGetThreadACP@ATL@@3P6GIXZA ; ATL::g_pfnGetThreadACP

; 152  : }

  00050	8b 8c 24 94 00
	00 00		 mov	 ecx, DWORD PTR __$ArrayPad$[esp+152]
  00057	33 cc		 xor	 ecx, esp
  00059	e8 00 00 00 00	 call	 @__security_check_cookie@4
  0005e	81 c4 98 00 00
	00		 add	 esp, 152		; 00000098H
  00064	c3		 ret	 0
?_AtlGetThreadACPThunk@ATL@@YGIXZ ENDP			; ATL::_AtlGetThreadACPThunk
_TEXT	ENDS
PUBLIC	?_AtlGetConversionACP@ATL@@YGIXZ		; ATL::_AtlGetConversionACP
; Function compile flags: /Ogty
;	COMDAT ?_AtlGetConversionACP@ATL@@YGIXZ
_TEXT	SEGMENT
?_AtlGetConversionACP@ATL@@YGIXZ PROC NEAR		; ATL::_AtlGetConversionACP, COMDAT

; 158  : 	return( g_pfnGetThreadACP() );

  00000	ff 25 00 00 00
	00		 jmp	 DWORD PTR ?g_pfnGetThreadACP@ATL@@3P6GIXZA ; ATL::g_pfnGetThreadACP
?_AtlGetConversionACP@ATL@@YGIXZ ENDP			; ATL::_AtlGetConversionACP
_TEXT	ENDS
PUBLIC	?size@?$vector@VCPoint@@V?$allocator@VCPoint@@@std@@@std@@QBEIXZ ; std::vector<CPoint,std::allocator<CPoint> >::size
; Function compile flags: /Ogty
; File c:\program files\microsoft visual studio .net 2003\vc7\include\vector
;	COMDAT ?size@?$vector@VCPoint@@V?$allocator@VCPoint@@@std@@@std@@QBEIXZ
_TEXT	SEGMENT
?size@?$vector@VCPoint@@V?$allocator@VCPoint@@@std@@@std@@QBEIXZ PROC NEAR ; std::vector<CPoint,std::allocator<CPoint> >::size, COMDAT
; _this$ = ecx

; 516  : 		return (_Myfirst == 0 ? 0 : _Mylast - _Myfirst);

  00000	8b 51 04	 mov	 edx, DWORD PTR [ecx+4]
  00003	85 d2		 test	 edx, edx
  00005	75 03		 jne	 SHORT $L233506
  00007	33 c0		 xor	 eax, eax

; 517  : 		}

  00009	c3		 ret	 0
$L233506:

; 516  : 		return (_Myfirst == 0 ? 0 : _Mylast - _Myfirst);

  0000a	8b 41 08	 mov	 eax, DWORD PTR [ecx+8]
  0000d	2b c2		 sub	 eax, edx
  0000f	c1 f8 03	 sar	 eax, 3

; 517  : 		}

  00012	c3		 ret	 0
?size@?$vector@VCPoint@@V?$allocator@VCPoint@@@std@@@std@@QBEIXZ ENDP ; std::vector<CPoint,std::allocator<CPoint> >::size
_TEXT	ENDS
PUBLIC	?empty@?$vector@VCPoint@@V?$allocator@VCPoint@@@std@@@std@@QBE_NXZ ; std::vector<CPoint,std::allocator<CPoint> >::empty
; Function compile flags: /Ogty
;	COMDAT ?empty@?$vector@VCPoint@@V?$allocator@VCPoint@@@std@@@std@@QBE_NXZ
_TEXT	SEGMENT
?empty@?$vector@VCPoint@@V?$allocator@VCPoint@@@std@@@std@@QBE_NXZ PROC NEAR ; std::vector<CPoint,std::allocator<CPoint> >::empty, COMDAT
; _this$ = ecx

; 526  : 		return (size() == 0);

  00000	8b 51 04	 mov	 edx, DWORD PTR [ecx+4]
  00003	85 d2		 test	 edx, edx
  00005	75 0c		 jne	 SHORT $L233515
  00007	33 c0		 xor	 eax, eax
  00009	33 c9		 xor	 ecx, ecx
  0000b	85 c0		 test	 eax, eax
  0000d	0f 94 c1	 sete	 cl
  00010	8a c1		 mov	 al, cl

; 527  : 		}

  00012	c3		 ret	 0

; 526  : 		return (size() == 0);

$L233515:
  00013	8b 41 08	 mov	 eax, DWORD PTR [ecx+8]
  00016	2b c2		 sub	 eax, edx
  00018	c1 f8 03	 sar	 eax, 3
  0001b	33 c9		 xor	 ecx, ecx
  0001d	85 c0		 test	 eax, eax
  0001f	0f 94 c1	 sete	 cl
  00022	8a c1		 mov	 al, cl

; 527  : 		}

  00024	c3		 ret	 0
?empty@?$vector@VCPoint@@V?$allocator@VCPoint@@@std@@@std@@QBE_NXZ ENDP ; std::vector<CPoint,std::allocator<CPoint> >::empty
_TEXT	ENDS
PUBLIC	??R?$less@E@std@@QBE_NABE0@Z			; std::less<unsigned char>::operator()
; Function compile flags: /Ogty
; File c:\program files\microsoft visual studio .net 2003\vc7\include\functional
;	COMDAT ??R?$less@E@std@@QBE_NABE0@Z
_TEXT	SEGMENT
__Left$ = 8						; size = 4
__Right$ = 12						; size = 4
??R?$less@E@std@@QBE_NABE0@Z PROC NEAR			; std::less<unsigned char>::operator(), COMDAT
; _this$ = ecx

; 139  : 		return (_Left < _Right);

  00000	8b 44 24 04	 mov	 eax, DWORD PTR __Left$[esp-4]
  00004	8a 08		 mov	 cl, BYTE PTR [eax]
  00006	8b 54 24 08	 mov	 edx, DWORD PTR __Right$[esp-4]
  0000a	33 c0		 xor	 eax, eax
  0000c	3a 0a		 cmp	 cl, BYTE PTR [edx]
  0000e	1b c0		 sbb	 eax, eax
  00010	f7 d8		 neg	 eax

; 140  : 		}

  00012	c2 08 00	 ret	 8
??R?$less@E@std@@QBE_NABE0@Z ENDP			; std::less<unsigned char>::operator()
_TEXT	ENDS
PUBLIC	?AtlThrow@ATL@@YGXJ@Z				; ATL::AtlThrow
EXTRN	?AfxThrowMemoryException@@YGXXZ:NEAR		; AfxThrowMemoryException
EXTRN	?AfxThrowOleException@@YGXJ@Z:NEAR		; AfxThrowOleException
; Function compile flags: /Ogty
; File c:\program files\microsoft visual studio .net 2003\vc7\atlmfc\include\atlexcept.h
;	COMDAT ?AtlThrow@ATL@@YGXJ@Z
_TEXT	SEGMENT
_hr$ = 8						; size = 4
?AtlThrow@ATL@@YGXJ@Z PROC NEAR				; ATL::AtlThrow, COMDAT

; 62   : 	ATLTRACE(atlTraceException, 0, _T("AtlThrow: hr = 0x%x\n"), hr );
; 63   : #ifdef _AFX
; 64   : 	if( hr == E_OUTOFMEMORY )

  00000	8b 44 24 04	 mov	 eax, DWORD PTR _hr$[esp-4]
  00004	3d 0e 00 07 80	 cmp	 eax, -2147024882	; 8007000eH
  00009	75 05		 jne	 SHORT $L39168

; 65   : 	{
; 66   : 		AfxThrowMemoryException();

  0000b	e8 00 00 00 00	 call	 ?AfxThrowMemoryException@@YGXXZ ; AfxThrowMemoryException
$L233525:
$L39168:

; 67   : 	}
; 68   : 	else
; 69   : 	{
; 70   : 		AfxThrowOleException( hr );

  00010	50		 push	 eax
  00011	e8 00 00 00 00	 call	 ?AfxThrowOleException@@YGXJ@Z ; AfxThrowOleException
$L233526:
$L233524:
  00016	cc		 int	 3
?AtlThrow@ATL@@YGXJ@Z ENDP				; ATL::AtlThrow
_TEXT	ENDS
PUBLIC	?_Isnil@?$_Tree@V?$_Tmap_traits@EV?$vector@VCPoint@@V?$allocator@VCPoint@@@std@@@std@@U?$less@E@2@V?$allocator@U?$pair@$$CBEV?$vector@VCPoint@@V?$allocator@VCPoint@@@std@@@std@@@std@@@2@$0A@@std@@@std@@KAAADPAU_Node@?$_Tree_nod@V?$_Tmap_traits@EV?$vector@VCPoint@@V?$allocator@VCPoint@@@std@@@std@@U?$less@E@2@V?$allocator@U?$pair@$$CBEV?$vector@VCPoint@@V?$allocator@VCPoint@@@std@@@std@@@std@@@2@$0A@@std@@@2@@Z ; std::_Tree<std::_Tmap_traits<unsigned char,std::vector<CPoint,std::allocator<CPoint> >,std::less<unsigned char>,std::allocator<std::pair<unsigned char const ,std::vector<CPoint,std::allocator<CPoint> > > >,0> >::_Isnil
; Function compile flags: /Ogty
; File c:\program files\microsoft visual studio .net 2003\vc7\include\xtree
;	COMDAT ?_Isnil@?$_Tree@V?$_Tmap_traits@EV?$vector@VCPoint@@V?$allocator@VCPoint@@@std@@@std@@U?$less@E@2@V?$allocator@U?$pair@$$CBEV?$vector@VCPoint@@V?$allocator@VCPoint@@@std@@@std@@@std@@@2@$0A@@std@@@std@@KAAADPAU_Node@?$_Tree_nod@V?$_Tmap_traits@EV?$vector@VCPoint@@V?$allocator@VCPoint@@@std@@@std@@U?$less@E@2@V?$allocator@U?$pair@$$CBEV?$vector@VCPoint@@V?$allocator@VCPoint@@@std@@@std@@@std@@@2@$0A@@std@@@2@@Z
_TEXT	SEGMENT
__Pnode$ = 8						; size = 4
?_Isnil@?$_Tree@V?$_Tmap_traits@EV?$vector@VCPoint@@V?$allocator@VCPoint@@@std@@@std@@U?$less@E@2@V?$allocator@U?$pair@$$CBEV?$vector@VCPoint@@V?$allocator@VCPoint@@@std@@@std@@@std@@@2@$0A@@std@@@std@@KAAADPAU_Node@?$_Tree_nod@V?$_Tmap_traits@EV?$vector@VCPoint@@V?$allocator@VCPoint@@@std@@@std@@U?$less@E@2@V?$allocator@U?$pair@$$CBEV?$vector@VCPoint@@V?$allocator@VCPoint@@@std@@@std@@@std@@@2@$0A@@std@@@2@@Z PROC NEAR ; std::_Tree<std::_Tmap_traits<unsigned char,std::vector<CPoint,std::allocator<CPoint> >,std::less<unsigned char>,std::allocator<std::pair<unsigned char const ,std::vector<CPoint,std::allocator<CPoint> > > >,0> >::_Isnil, COMDAT

; 137  : 		return ((_Charref)(*_Pnode)._Isnil);

  00000	8b 44 24 04	 mov	 eax, DWORD PTR __Pnode$[esp-4]
  00004	83 c0 21	 add	 eax, 33			; 00000021H

; 138  : 		}

  00007	c3		 ret	 0
?_Isnil@?$_Tree@V?$_Tmap_traits@EV?$vector@VCPoint@@V?$allocator@VCPoint@@@std@@@std@@U?$less@E@2@V?$allocator@U?$pair@$$CBEV?$vector@VCPoint@@V?$allocator@VCPoint@@@std@@@std@@@std@@@2@$0A@@std@@@std@@KAAADPAU_Node@?$_Tree_nod@V?$_Tmap_traits@EV?$vector@VCPoint@@V?$allocator@VCPoint@@@std@@@std@@U?$less@E@2@V?$allocator@U?$pair@$$CBEV?$vector@VCPoint@@V?$allocator@VCPoint@@@std@@@std@@@std@@@2@$0A@@std@@@2@@Z ENDP ; std::_Tree<std::_Tmap_traits<unsigned char,std::vector<CPoint,std::allocator<CPoint> >,std::less<unsigned char>,std::allocator<std::pair<unsigned char const ,std::vector<CPoint,std::allocator<CPoint> > > >,0> >::_Isnil
_TEXT	ENDS
PUBLIC	?_Left@?$_Tree@V?$_Tmap_traits@EV?$vector@VCPoint@@V?$allocator@VCPoint@@@std@@@std@@U?$less@E@2@V?$allocator@U?$pair@$$CBEV?$vector@VCPoint@@V?$allocator@VCPoint@@@std@@@std@@@std@@@2@$0A@@std@@@std@@KAAAPAU_Node@?$_Tree_nod@V?$_Tmap_traits@EV?$vector@VCPoint@@V?$allocator@VCPoint@@@std@@@std@@U?$less@E@2@V?$allocator@U?$pair@$$CBEV?$vector@VCPoint@@V?$allocator@VCPoint@@@std@@@std@@@std@@@2@$0A@@std@@@2@PAU342@@Z ; std::_Tree<std::_Tmap_traits<unsigned char,std::vector<CPoint,std::allocator<CPoint> >,std::less<unsigned char>,std::allocator<std::pair<unsigned char const ,std::vector<CPoint,std::allocator<CPoint> > > >,0> >::_Left
; Function compile flags: /Ogty
;	COMDAT ?_Left@?$_Tree@V?$_Tmap_traits@EV?$vector@VCPoint@@V?$allocator@VCPoint@@@std@@@std@@U?$less@E@2@V?$allocator@U?$pair@$$CBEV?$vector@VCPoint@@V?$allocator@VCPoint@@@std@@@std@@@std@@@2@$0A@@std@@@std@@KAAAPAU_Node@?$_Tree_nod@V?$_Tmap_traits@EV?$vector@VCPoint@@V?$allocator@VCPoint@@@std@@@std@@U?$less@E@2@V?$allocator@U?$pair@$$CBEV?$vector@VCPoint@@V?$allocator@VCPoint@@@std@@@std@@@std@@@2@$0A@@std@@@2@PAU342@@Z
_TEXT	SEGMENT
__Pnode$ = 8						; size = 4
?_Left@?$_Tree@V?$_Tmap_traits@EV?$vector@VCPoint@@V?$allocator@VCPoint@@@std@@@std@@U?$less@E@2@V?$allocator@U?$pair@$$CBEV?$vector@VCPoint@@V?$allocator@VCPoint@@@std@@@std@@@std@@@2@$0A@@std@@@std@@KAAAPAU_Node@?$_Tree_nod@V?$_Tmap_traits@EV?$vector@VCPoint@@V?$allocator@VCPoint@@@std@@@std@@U?$less@E@2@V?$allocator@U?$pair@$$CBEV?$vector@VCPoint@@V?$allocator@VCPoint@@@std@@@std@@@std@@@2@$0A@@std@@@2@PAU342@@Z PROC NEAR ; std::_Tree<std::_Tmap_traits<unsigned char,std::vector<CPoint,std::allocator<CPoint> >,std::less<unsigned char>,std::allocator<std::pair<unsigned char const ,std::vector<CPoint,std::allocator<CPoint> > > >,0> >::_Left, COMDAT

; 147  : 		return ((_Nodepref)(*_Pnode)._Left);

  00000	8b 44 24 04	 mov	 eax, DWORD PTR __Pnode$[esp-4]

; 148  : 		}

  00004	c3		 ret	 0
?_Left@?$_Tree@V?$_Tmap_traits@EV?$vector@VCPoint@@V?$allocator@VCPoint@@@std@@@std@@U?$less@E@2@V?$allocator@U?$pair@$$CBEV?$vector@VCPoint@@V?$allocator@VCPoint@@@std@@@std@@@std@@@2@$0A@@std@@@std@@KAAAPAU_Node@?$_Tree_nod@V?$_Tmap_traits@EV?$vector@VCPoint@@V?$allocator@VCPoint@@@std@@@std@@U?$less@E@2@V?$allocator@U?$pair@$$CBEV?$vector@VCPoint@@V?$allocator@VCPoint@@@std@@@std@@@std@@@2@$0A@@std@@@2@PAU342@@Z ENDP ; std::_Tree<std::_Tmap_traits<unsigned char,std::vector<CPoint,std::allocator<CPoint> >,std::less<unsigned char>,std::allocator<std::pair<unsigned char const ,std::vector<CPoint,std::allocator<CPoint> > > >,0> >::_Left
_TEXT	ENDS
PUBLIC	?_Right@?$_Tree@V?$_Tmap_traits@EV?$vector@VCPoint@@V?$allocator@VCPoint@@@std@@@std@@U?$less@E@2@V?$allocator@U?$pair@$$CBEV?$vector@VCPoint@@V?$allocator@VCPoint@@@std@@@std@@@std@@@2@$0A@@std@@@std@@KAAAPAU_Node@?$_Tree_nod@V?$_Tmap_traits@EV?$vector@VCPoint@@V?$allocator@VCPoint@@@std@@@std@@U?$less@E@2@V?$allocator@U?$pair@$$CBEV?$vector@VCPoint@@V?$allocator@VCPoint@@@std@@@std@@@std@@@2@$0A@@std@@@2@PAU342@@Z ; std::_Tree<std::_Tmap_traits<unsigned char,std::vector<CPoint,std::allocator<CPoint> >,std::less<unsigned char>,std::allocator<std::pair<unsigned char const ,std::vector<CPoint,std::allocator<CPoint> > > >,0> >::_Right
; Function compile flags: /Ogty
;	COMDAT ?_Right@?$_Tree@V?$_Tmap_traits@EV?$vector@VCPoint@@V?$allocator@VCPoint@@@std@@@std@@U?$less@E@2@V?$allocator@U?$pair@$$CBEV?$vector@VCPoint@@V?$allocator@VCPoint@@@std@@@std@@@std@@@2@$0A@@std@@@std@@KAAAPAU_Node@?$_Tree_nod@V?$_Tmap_traits@EV?$vector@VCPoint@@V?$allocator@VCPoint@@@std@@@std@@U?$less@E@2@V?$allocator@U?$pair@$$CBEV?$vector@VCPoint@@V?$allocator@VCPoint@@@std@@@std@@@std@@@2@$0A@@std@@@2@PAU342@@Z
_TEXT	SEGMENT
__Pnode$ = 8						; size = 4
?_Right@?$_Tree@V?$_Tmap_traits@EV?$vector@VCPoint@@V?$allocator@VCPoint@@@std@@@std@@U?$less@E@2@V?$allocator@U?$pair@$$CBEV?$vector@VCPoint@@V?$allocator@VCPoint@@@std@@@std@@@std@@@2@$0A@@std@@@std@@KAAAPAU_Node@?$_Tree_nod@V?$_Tmap_traits@EV?$vector@VCPoint@@V?$allocator@VCPoint@@@std@@@std@@U?$less@E@2@V?$allocator@U?$pair@$$CBEV?$vector@VCPoint@@V?$allocator@VCPoint@@@std@@@std@@@std@@@2@$0A@@std@@@2@PAU342@@Z PROC NEAR ; std::_Tree<std::_Tmap_traits<unsigned char,std::vector<CPoint,std::allocator<CPoint> >,std::less<unsigned char>,std::allocator<std::pair<unsigned char const ,std::vector<CPoint,std::allocator<CPoint> > > >,0> >::_Right, COMDAT

; 157  : 		return ((_Nodepref)(*_Pnode)._Right);

  00000	8b 44 24 04	 mov	 eax, DWORD PTR __Pnode$[esp-4]
  00004	83 c0 08	 add	 eax, 8

; 158  : 		}

  00007	c3		 ret	 0
?_Right@?$_Tree@V?$_Tmap_traits@EV?$vector@VCPoint@@V?$allocator@VCPoint@@@std@@@std@@U?$less@E@2@V?$allocator@U?$pair@$$CBEV?$vector@VCPoint@@V?$allocator@VCPoint@@@std@@@std@@@std@@@2@$0A@@std@@@std@@KAAAPAU_Node@?$_Tree_nod@V?$_Tmap_traits@EV?$vector@VCPoint@@V?$allocator@VCPoint@@@std@@@std@@U?$less@E@2@V?$allocator@U?$pair@$$CBEV?$vector@VCPoint@@V?$allocator@VCPoint@@@std@@@std@@@std@@@2@$0A@@std@@@2@PAU342@@Z ENDP ; std::_Tree<std::_Tmap_traits<unsigned char,std::vector<CPoint,std::allocator<CPoint> >,std::less<unsigned char>,std::allocator<std::pair<unsigned char const ,std::vector<CPoint,std::allocator<CPoint> > > >,0> >::_Right
_TEXT	ENDS
PUBLIC	?_AtlGetStringResourceImage@ATL@@YAPBUATLSTRINGRESOURCEIMAGE@1@PAUHINSTANCE__@@PAUHRSRC__@@I@Z ; ATL::_AtlGetStringResourceImage
EXTRN	__imp__LoadResource@8:NEAR
EXTRN	__imp__SizeofResource@8:NEAR
EXTRN	__imp__LockResource@4:NEAR
; Function compile flags: /Ogty
; File c:\program files\microsoft visual studio .net 2003\vc7\atlmfc\include\atlcore.h
;	COMDAT ?_AtlGetStringResourceImage@ATL@@YAPBUATLSTRINGRESOURCEIMAGE@1@PAUHINSTANCE__@@PAUHRSRC__@@I@Z
_TEXT	SEGMENT
_hInstance$ = 8						; size = 4
_hResource$ = 12					; size = 4
_id$ = 16						; size = 4
?_AtlGetStringResourceImage@ATL@@YAPBUATLSTRINGRESOURCEIMAGE@1@PAUHINSTANCE__@@PAUHRSRC__@@I@Z PROC NEAR ; ATL::_AtlGetStringResourceImage, COMDAT

; 239  : {

  00000	53		 push	 ebx

; 240  : 	const ATLSTRINGRESOURCEIMAGE* pImage;
; 241  : 	const ATLSTRINGRESOURCEIMAGE* pImageEnd;
; 242  : 	ULONG nResourceSize;
; 243  : 	HGLOBAL hGlobal;
; 244  : 	UINT iIndex;
; 245  : 
; 246  : 	hGlobal = ::LoadResource( hInstance, hResource );

  00001	8b 5c 24 08	 mov	 ebx, DWORD PTR _hInstance$[esp]
  00005	57		 push	 edi
  00006	8b 7c 24 10	 mov	 edi, DWORD PTR _hResource$[esp+4]
  0000a	57		 push	 edi
  0000b	53		 push	 ebx
  0000c	ff 15 00 00 00
	00		 call	 DWORD PTR __imp__LoadResource@8

; 247  : 	if( hGlobal == NULL )

  00012	85 c0		 test	 eax, eax
  00014	75 03		 jne	 SHORT $L39522
  00016	5f		 pop	 edi
  00017	5b		 pop	 ebx

; 272  : 	{
; 273  : 		return( NULL );
; 274  : 	}
; 275  : 
; 276  : 	return( pImage );
; 277  : }

  00018	c3		 ret	 0
$L39522:
  00019	56		 push	 esi

; 248  : 	{
; 249  : 		return( NULL );
; 250  : 	}
; 251  : 
; 252  : 	pImage = (const ATLSTRINGRESOURCEIMAGE*)::LockResource( hGlobal );

  0001a	50		 push	 eax
  0001b	ff 15 00 00 00
	00		 call	 DWORD PTR __imp__LockResource@4
  00021	8b f0		 mov	 esi, eax

; 253  : 	if( pImage == NULL )

  00023	85 f6		 test	 esi, esi
  00025	75 06		 jne	 SHORT $L39524
$L233541:
  00027	5e		 pop	 esi
  00028	5f		 pop	 edi

; 254  : 	{
; 255  : 		return( NULL );

  00029	33 c0		 xor	 eax, eax
  0002b	5b		 pop	 ebx

; 272  : 	{
; 273  : 		return( NULL );
; 274  : 	}
; 275  : 
; 276  : 	return( pImage );
; 277  : }

  0002c	c3		 ret	 0
$L39524:

; 256  : 	}
; 257  : 
; 258  : 	nResourceSize = ::SizeofResource( hInstance, hResource );

  0002d	57		 push	 edi
  0002e	53		 push	 ebx
  0002f	ff 15 00 00 00
	00		 call	 DWORD PTR __imp__SizeofResource@8

; 259  : 	pImageEnd = (const ATLSTRINGRESOURCEIMAGE*)(LPBYTE( pImage )+nResourceSize);
; 260  : 	iIndex = id&0x000f;

  00035	8b 4c 24 18	 mov	 ecx, DWORD PTR _id$[esp+8]
  00039	03 c6		 add	 eax, esi
  0003b	83 e1 0f	 and	 ecx, 15			; 0000000fH

; 261  : 
; 262  : 	while( (iIndex > 0) && (pImage < pImageEnd) )

  0003e	76 0e		 jbe	 SHORT $L39528
$L39527:
  00040	3b f0		 cmp	 esi, eax
  00042	73 e3		 jae	 SHORT $L233541

; 263  : 	{
; 264  : 		pImage = (const ATLSTRINGRESOURCEIMAGE*)(LPBYTE( pImage )+(sizeof( ATLSTRINGRESOURCEIMAGE )+(pImage->nLength*sizeof( WCHAR ))));
; 265  : 		iIndex--;

  00044	49		 dec	 ecx
  00045	0f b7 16	 movzx	 edx, WORD PTR [esi]
  00048	8d 74 56 02	 lea	 esi, DWORD PTR [esi+edx*2+2]
  0004c	75 f2		 jne	 SHORT $L39527
$L39528:

; 266  : 	}
; 267  : 	if( pImage >= pImageEnd )

  0004e	3b f0		 cmp	 esi, eax

; 268  : 	{
; 269  : 		return( NULL );

  00050	73 d5		 jae	 SHORT $L233541

; 270  : 	}
; 271  : 	if( pImage->nLength == 0 )

  00052	66 8b 06	 mov	 ax, WORD PTR [esi]
  00055	66 f7 d8	 neg	 ax
  00058	1b c0		 sbb	 eax, eax
  0005a	23 c6		 and	 eax, esi
  0005c	5e		 pop	 esi
  0005d	5f		 pop	 edi
  0005e	5b		 pop	 ebx

; 272  : 	{
; 273  : 		return( NULL );
; 274  : 	}
; 275  : 
; 276  : 	return( pImage );
; 277  : }

  0005f	c3		 ret	 0
?_AtlGetStringResourceImage@ATL@@YAPBUATLSTRINGRESOURCEIMAGE@1@PAUHINSTANCE__@@PAUHRSRC__@@I@Z ENDP ; ATL::_AtlGetStringResourceImage
_TEXT	ENDS
PUBLIC	?AtlGetStringResourceImage@ATL@@YAPBUATLSTRINGRESOURCEIMAGE@1@PAUHINSTANCE__@@I@Z ; ATL::AtlGetStringResourceImage
EXTRN	__imp__FindResourceA@12:NEAR
; Function compile flags: /Ogty
;	COMDAT ?AtlGetStringResourceImage@ATL@@YAPBUATLSTRINGRESOURCEIMAGE@1@PAUHINSTANCE__@@I@Z
_TEXT	SEGMENT
_hInstance$ = 8						; size = 4
_id$ = 12						; size = 4
?AtlGetStringResourceImage@ATL@@YAPBUATLSTRINGRESOURCEIMAGE@1@PAUHINSTANCE__@@I@Z PROC NEAR ; ATL::AtlGetStringResourceImage, COMDAT

; 280  : {

  00000	56		 push	 esi

; 281  : 	HRSRC hResource;
; 282  : 
; 283  : 	hResource = ::FindResource( hInstance, MAKEINTRESOURCE( ((id>>4)+1) ), RT_STRING );

  00001	8b 74 24 0c	 mov	 esi, DWORD PTR _id$[esp]
  00005	8b c6		 mov	 eax, esi
  00007	c1 e8 04	 shr	 eax, 4
  0000a	57		 push	 edi
  0000b	8b 7c 24 0c	 mov	 edi, DWORD PTR _hInstance$[esp+4]
  0000f	40		 inc	 eax
  00010	0f b7 c8	 movzx	 ecx, ax
  00013	6a 06		 push	 6
  00015	51		 push	 ecx
  00016	57		 push	 edi
  00017	ff 15 00 00 00
	00		 call	 DWORD PTR __imp__FindResourceA@12

; 284  : 	if( hResource == NULL )

  0001d	85 c0		 test	 eax, eax
  0001f	75 03		 jne	 SHORT $L39545
  00021	5f		 pop	 edi
  00022	5e		 pop	 esi

; 290  : }

  00023	c3		 ret	 0
$L39545:

; 285  : 	{
; 286  : 		return( NULL );
; 287  : 	}
; 288  : 
; 289  : 	return _AtlGetStringResourceImage( hInstance, hResource, id );

  00024	56		 push	 esi
  00025	50		 push	 eax
  00026	57		 push	 edi
  00027	e8 00 00 00 00	 call	 ?_AtlGetStringResourceImage@ATL@@YAPBUATLSTRINGRESOURCEIMAGE@1@PAUHINSTANCE__@@PAUHRSRC__@@I@Z ; ATL::_AtlGetStringResourceImage
  0002c	83 c4 0c	 add	 esp, 12			; 0000000cH
  0002f	5f		 pop	 edi
  00030	5e		 pop	 esi

; 290  : }

  00031	c3		 ret	 0
?AtlGetStringResourceImage@ATL@@YAPBUATLSTRINGRESOURCEIMAGE@1@PAUHINSTANCE__@@I@Z ENDP ; ATL::AtlGetStringResourceImage
_TEXT	ENDS
PUBLIC	?_Lmost@?$_Tree@V?$_Tmap_traits@EV?$vector@VCPoint@@V?$allocator@VCPoint@@@std@@@std@@U?$less@E@2@V?$allocator@U?$pair@$$CBEV?$vector@VCPoint@@V?$allocator@VCPoint@@@std@@@std@@@std@@@2@$0A@@std@@@std@@IAEAAPAU_Node@?$_Tree_nod@V?$_Tmap_traits@EV?$vector@VCPoint@@V?$allocator@VCPoint@@@std@@@std@@U?$less@E@2@V?$allocator@U?$pair@$$CBEV?$vector@VCPoint@@V?$allocator@VCPoint@@@std@@@std@@@std@@@2@$0A@@std@@@2@XZ ; std::_Tree<std::_Tmap_traits<unsigned char,std::vector<CPoint,std::allocator<CPoint> >,std::less<unsigned char>,std::allocator<std::pair<unsigned char const ,std::vector<CPoint,std::allocator<CPoint> > > >,0> >::_Lmost
; Function compile flags: /Ogty
; File c:\program files\microsoft visual studio .net 2003\vc7\include\xtree
;	COMDAT ?_Lmost@?$_Tree@V?$_Tmap_traits@EV?$vector@VCPoint@@V?$allocator@VCPoint@@@std@@@std@@U?$less@E@2@V?$allocator@U?$pair@$$CBEV?$vector@VCPoint@@V?$allocator@VCPoint@@@std@@@std@@@std@@@2@$0A@@std@@@std@@IAEAAPAU_Node@?$_Tree_nod@V?$_Tmap_traits@EV?$vector@VCPoint@@V?$allocator@VCPoint@@@std@@@std@@U?$less@E@2@V?$allocator@U?$pair@$$CBEV?$vector@VCPoint@@V?$allocator@VCPoint@@@std@@@std@@@std@@@2@$0A@@std@@@2@XZ
_TEXT	SEGMENT
?_Lmost@?$_Tree@V?$_Tmap_traits@EV?$vector@VCPoint@@V?$allocator@VCPoint@@@std@@@std@@U?$less@E@2@V?$allocator@U?$pair@$$CBEV?$vector@VCPoint@@V?$allocator@VCPoint@@@std@@@std@@@std@@@2@$0A@@std@@@std@@IAEAAPAU_Node@?$_Tree_nod@V?$_Tmap_traits@EV?$vector@VCPoint@@V?$allocator@VCPoint@@@std@@@std@@U?$less@E@2@V?$allocator@U?$pair@$$CBEV?$vector@VCPoint@@V?$allocator@VCPoint@@@std@@@std@@@std@@@2@$0A@@std@@@2@XZ PROC NEAR ; std::_Tree<std::_Tmap_traits<unsigned char,std::vector<CPoint,std::allocator<CPoint> >,std::less<unsigned char>,std::allocator<std::pair<unsigned char const ,std::vector<CPoint,std::allocator<CPoint> > > >,0> >::_Lmost, COMDAT
; _this$ = ecx

; 1005 : 		return (_Left(_Myhead));

  00000	8b 41 04	 mov	 eax, DWORD PTR [ecx+4]

; 1006 : 		}

  00003	c3		 ret	 0
?_Lmost@?$_Tree@V?$_Tmap_traits@EV?$vector@VCPoint@@V?$allocator@VCPoint@@@std@@@std@@U?$less@E@2@V?$allocator@U?$pair@$$CBEV?$vector@VCPoint@@V?$allocator@VCPoint@@@std@@@std@@@std@@@2@$0A@@std@@@std@@IAEAAPAU_Node@?$_Tree_nod@V?$_Tmap_traits@EV?$vector@VCPoint@@V?$allocator@VCPoint@@@std@@@std@@U?$less@E@2@V?$allocator@U?$pair@$$CBEV?$vector@VCPoint@@V?$allocator@VCPoint@@@std@@@std@@@std@@@2@$0A@@std@@@2@XZ ENDP ; std::_Tree<std::_Tmap_traits<unsigned char,std::vector<CPoint,std::allocator<CPoint> >,std::less<unsigned char>,std::allocator<std::pair<unsigned char const ,std::vector<CPoint,std::allocator<CPoint> > > >,0> >::_Lmost
_TEXT	ENDS
PUBLIC	?_Rmost@?$_Tree@V?$_Tmap_traits@EV?$vector@VCPoint@@V?$allocator@VCPoint@@@std@@@std@@U?$less@E@2@V?$allocator@U?$pair@$$CBEV?$vector@VCPoint@@V?$allocator@VCPoint@@@std@@@std@@@std@@@2@$0A@@std@@@std@@IAEAAPAU_Node@?$_Tree_nod@V?$_Tmap_traits@EV?$vector@VCPoint@@V?$allocator@VCPoint@@@std@@@std@@U?$less@E@2@V?$allocator@U?$pair@$$CBEV?$vector@VCPoint@@V?$allocator@VCPoint@@@std@@@std@@@std@@@2@$0A@@std@@@2@XZ ; std::_Tree<std::_Tmap_traits<unsigned char,std::vector<CPoint,std::allocator<CPoint> >,std::less<unsigned char>,std::allocator<std::pair<unsigned char const ,std::vector<CPoint,std::allocator<CPoint> > > >,0> >::_Rmost
; Function compile flags: /Ogty
;	COMDAT ?_Rmost@?$_Tree@V?$_Tmap_traits@EV?$vector@VCPoint@@V?$allocator@VCPoint@@@std@@@std@@U?$less@E@2@V?$allocator@U?$pair@$$CBEV?$vector@VCPoint@@V?$allocator@VCPoint@@@std@@@std@@@std@@@2@$0A@@std@@@std@@IAEAAPAU_Node@?$_Tree_nod@V?$_Tmap_traits@EV?$vector@VCPoint@@V?$allocator@VCPoint@@@std@@@std@@U?$less@E@2@V?$allocator@U?$pair@$$CBEV?$vector@VCPoint@@V?$allocator@VCPoint@@@std@@@std@@@std@@@2@$0A@@std@@@2@XZ
_TEXT	SEGMENT
?_Rmost@?$_Tree@V?$_Tmap_traits@EV?$vector@VCPoint@@V?$allocator@VCPoint@@@std@@@std@@U?$less@E@2@V?$allocator@U?$pair@$$CBEV?$vector@VCPoint@@V?$allocator@VCPoint@@@std@@@std@@@std@@@2@$0A@@std@@@std@@IAEAAPAU_Node@?$_Tree_nod@V?$_Tmap_traits@EV?$vector@VCPoint@@V?$allocator@VCPoint@@@std@@@std@@U?$less@E@2@V?$allocator@U?$pair@$$CBEV?$vector@VCPoint@@V?$allocator@VCPoint@@@std@@@std@@@std@@@2@$0A@@std@@@2@XZ PROC NEAR ; std::_Tree<std::_Tmap_traits<unsigned char,std::vector<CPoint,std::allocator<CPoint> >,std::less<unsigned char>,std::allocator<std::pair<unsigned char const ,std::vector<CPoint,std::allocator<CPoint> > > >,0> >::_Rmost, COMDAT
; _this$ = ecx

; 1049 : 		return (_Right(_Myhead));

  00000	8b 41 04	 mov	 eax, DWORD PTR [ecx+4]
  00003	83 c0 08	 add	 eax, 8

; 1050 : 		}

  00006	c3		 ret	 0
?_Rmost@?$_Tree@V?$_Tmap_traits@EV?$vector@VCPoint@@V?$allocator@VCPoint@@@std@@@std@@U?$less@E@2@V?$allocator@U?$pair@$$CBEV?$vector@VCPoint@@V?$allocator@VCPoint@@@std@@@std@@@std@@@2@$0A@@std@@@std@@IAEAAPAU_Node@?$_Tree_nod@V?$_Tmap_traits@EV?$vector@VCPoint@@V?$allocator@VCPoint@@@std@@@std@@U?$less@E@2@V?$allocator@U?$pair@$$CBEV?$vector@VCPoint@@V?$allocator@VCPoint@@@std@@@std@@@std@@@2@$0A@@std@@@2@XZ ENDP ; std::_Tree<std::_Tmap_traits<unsigned char,std::vector<CPoint,std::allocator<CPoint> >,std::less<unsigned char>,std::allocator<std::pair<unsigned char const ,std::vector<CPoint,std::allocator<CPoint> > > >,0> >::_Rmost
_TEXT	ENDS
PUBLIC	?_Kfn@?$_Tmap_traits@EV?$vector@VCPoint@@V?$allocator@VCPoint@@@std@@@std@@U?$less@E@2@V?$allocator@U?$pair@$$CBEV?$vector@VCPoint@@V?$allocator@VCPoint@@@std@@@std@@@std@@@2@$0A@@std@@SAABEABU?$pair@$$CBEV?$vector@VCPoint@@V?$allocator@VCPoint@@@std@@@std@@@2@@Z ; std::_Tmap_traits<unsigned char,std::vector<CPoint,std::allocator<CPoint> >,std::less<unsigned char>,std::allocator<std::pair<unsigned char const ,std::vector<CPoint,std::allocator<CPoint> > > >,0>::_Kfn
; Function compile flags: /Ogty
; File c:\program files\microsoft visual studio .net 2003\vc7\include\map
;	COMDAT ?_Kfn@?$_Tmap_traits@EV?$vector@VCPoint@@V?$allocator@VCPoint@@@std@@@std@@U?$less@E@2@V?$allocator@U?$pair@$$CBEV?$vector@VCPoint@@V?$allocator@VCPoint@@@std@@@std@@@std@@@2@$0A@@std@@SAABEABU?$pair@$$CBEV?$vector@VCPoint@@V?$allocator@VCPoint@@@std@@@std@@@2@@Z
_TEXT	SEGMENT
__Val$ = 8						; size = 4
?_Kfn@?$_Tmap_traits@EV?$vector@VCPoint@@V?$allocator@VCPoint@@@std@@@std@@U?$less@E@2@V?$allocator@U?$pair@$$CBEV?$vector@VCPoint@@V?$allocator@VCPoint@@@std@@@std@@@std@@@2@$0A@@std@@SAABEABU?$pair@$$CBEV?$vector@VCPoint@@V?$allocator@VCPoint@@@std@@@std@@@2@@Z PROC NEAR ; std::_Tmap_traits<unsigned char,std::vector<CPoint,std::allocator<CPoint> >,std::less<unsigned char>,std::allocator<std::pair<unsigned char const ,std::vector<CPoint,std::allocator<CPoint> > > >,0>::_Kfn, COMDAT

; 64   : 		return (_Val.first);

  00000	8b 44 24 04	 mov	 eax, DWORD PTR __Val$[esp-4]

; 65   : 		}

  00004	c3		 ret	 0
?_Kfn@?$_Tmap_traits@EV?$vector@VCPoint@@V?$allocator@VCPoint@@@std@@@std@@U?$less@E@2@V?$allocator@U?$pair@$$CBEV?$vector@VCPoint@@V?$allocator@VCPoint@@@std@@@std@@@std@@@2@$0A@@std@@SAABEABU?$pair@$$CBEV?$vector@VCPoint@@V?$allocator@VCPoint@@@std@@@std@@@2@@Z ENDP ; std::_Tmap_traits<unsigned char,std::vector<CPoint,std::allocator<CPoint> >,std::less<unsigned char>,std::allocator<std::pair<unsigned char const ,std::vector<CPoint,std::allocator<CPoint> > > >,0>::_Kfn
_TEXT	ENDS
PUBLIC	??0?$allocator@U?$pair@$$CBEV?$vector@VCPoint@@V?$allocator@VCPoint@@@std@@@std@@@std@@@std@@QAE@XZ ; std::allocator<std::pair<unsigned char const ,std::vector<CPoint,std::allocator<CPoint> > > >::allocator<std::pair<unsigned char const ,std::vector<CPoint,std::allocator<CPoint> > > >
; Function compile flags: /Ogty
; File c:\program files\microsoft visual studio .net 2003\vc7\include\xmemory
;	COMDAT ??0?$allocator@U?$pair@$$CBEV?$vector@VCPoint@@V?$allocator@VCPoint@@@std@@@std@@@std@@@std@@QAE@XZ
_TEXT	SEGMENT
??0?$allocator@U?$pair@$$CBEV?$vector@VCPoint@@V?$allocator@VCPoint@@@std@@@std@@@std@@@std@@QAE@XZ PROC NEAR ; std::allocator<std::pair<unsigned char const ,std::vector<CPoint,std::allocator<CPoint> > > >::allocator<std::pair<unsigned char const ,std::vector<CPoint,std::allocator<CPoint> > > >, COMDAT
; _this$ = ecx

; 111  : 	allocator()

  00000	8b c1		 mov	 eax, ecx

; 112  : 		{	// construct default allocator (do nothing)
; 113  : 		}

  00002	c3		 ret	 0
??0?$allocator@U?$pair@$$CBEV?$vector@VCPoint@@V?$allocator@VCPoint@@@std@@@std@@@std@@@std@@QAE@XZ ENDP ; std::allocator<std::pair<unsigned char const ,std::vector<CPoint,std::allocator<CPoint> > > >::allocator<std::pair<unsigned char const ,std::vector<CPoint,std::allocator<CPoint> > > >
_TEXT	ENDS
PUBLIC	?capacity@?$vector@VCPoint@@V?$allocator@VCPoint@@@std@@@std@@QBEIXZ ; std::vector<CPoint,std::allocator<CPoint> >::capacity
; Function compile flags: /Ogty
; File c:\program files\microsoft visual studio .net 2003\vc7\include\vector
;	COMDAT ?capacity@?$vector@VCPoint@@V?$allocator@VCPoint@@@std@@@std@@QBEIXZ
_TEXT	SEGMENT
?capacity@?$vector@VCPoint@@V?$allocator@VCPoint@@@std@@@std@@QBEIXZ PROC NEAR ; std::vector<CPoint,std::allocator<CPoint> >::capacity, COMDAT
; _this$ = ecx

; 458  : 		return (_Myfirst == 0 ? 0 : _Myend - _Myfirst);

  00000	8b 51 04	 mov	 edx, DWORD PTR [ecx+4]
  00003	85 d2		 test	 edx, edx
  00005	75 03		 jne	 SHORT $L233568
  00007	33 c0		 xor	 eax, eax

; 459  : 		}

  00009	c3		 ret	 0
$L233568:

; 458  : 		return (_Myfirst == 0 ? 0 : _Myend - _Myfirst);

  0000a	8b 41 0c	 mov	 eax, DWORD PTR [ecx+12]
  0000d	2b c2		 sub	 eax, edx
  0000f	c1 f8 03	 sar	 eax, 3

; 459  : 		}

  00012	c3		 ret	 0
?capacity@?$vector@VCPoint@@V?$allocator@VCPoint@@@std@@@std@@QBEIXZ ENDP ; std::vector<CPoint,std::allocator<CPoint> >::capacity
_TEXT	ENDS
PUBLIC	??0?$allocator@VCPoint@@@std@@QAE@XZ		; std::allocator<CPoint>::allocator<CPoint>
; Function compile flags: /Ogty
; File c:\program files\microsoft visual studio .net 2003\vc7\include\xmemory
;	COMDAT ??0?$allocator@VCPoint@@@std@@QAE@XZ
_TEXT	SEGMENT
??0?$allocator@VCPoint@@@std@@QAE@XZ PROC NEAR		; std::allocator<CPoint>::allocator<CPoint>, COMDAT
; _this$ = ecx

; 111  : 	allocator()

  00000	8b c1		 mov	 eax, ecx

; 112  : 		{	// construct default allocator (do nothing)
; 113  : 		}

  00002	c3		 ret	 0
??0?$allocator@VCPoint@@@std@@QAE@XZ ENDP		; std::allocator<CPoint>::allocator<CPoint>
_TEXT	ENDS
PUBLIC	??0?$allocator@VCPoint@@@std@@QAE@ABV01@@Z	; std::allocator<CPoint>::allocator<CPoint>
; Function compile flags: /Ogty
;	COMDAT ??0?$allocator@VCPoint@@@std@@QAE@ABV01@@Z
_TEXT	SEGMENT
___formal$ = 8						; size = 4
??0?$allocator@VCPoint@@@std@@QAE@ABV01@@Z PROC NEAR	; std::allocator<CPoint>::allocator<CPoint>, COMDAT
; _this$ = ecx

; 115  : 	allocator(const allocator<_Ty>&)

  00000	8b c1		 mov	 eax, ecx

; 116  : 		{	// construct by copying (do nothing)
; 117  : 		}

  00002	c2 04 00	 ret	 4
??0?$allocator@VCPoint@@@std@@QAE@ABV01@@Z ENDP		; std::allocator<CPoint>::allocator<CPoint>
_TEXT	ENDS
PUBLIC	?deallocate@?$allocator@VCPoint@@@std@@QAEXPAVCPoint@@I@Z ; std::allocator<CPoint>::deallocate
EXTRN	??3@YAXPAX@Z:NEAR				; operator delete
; Function compile flags: /Ogty
;	COMDAT ?deallocate@?$allocator@VCPoint@@@std@@QAEXPAVCPoint@@I@Z
_TEXT	SEGMENT
__Ptr$ = 8						; size = 4
___formal$ = 12						; size = 4
?deallocate@?$allocator@VCPoint@@@std@@QAEXPAVCPoint@@I@Z PROC NEAR ; std::allocator<CPoint>::deallocate, COMDAT
; _this$ = ecx

; 132  : 		operator delete(_Ptr);

  00000	8b 44 24 04	 mov	 eax, DWORD PTR __Ptr$[esp-4]
  00004	50		 push	 eax
  00005	e8 00 00 00 00	 call	 ??3@YAXPAX@Z		; operator delete
  0000a	59		 pop	 ecx

; 133  : 		}

  0000b	c2 08 00	 ret	 8
?deallocate@?$allocator@VCPoint@@@std@@QAEXPAVCPoint@@I@Z ENDP ; std::allocator<CPoint>::deallocate
_TEXT	ENDS
PUBLIC	?data@CStringData@ATL@@QAEPAXXZ			; ATL::CStringData::data
; Function compile flags: /Ogty
; File c:\program files\microsoft visual studio .net 2003\vc7\atlmfc\include\atlsimpstr.h
;	COMDAT ?data@CStringData@ATL@@QAEPAXXZ
_TEXT	SEGMENT
?data@CStringData@ATL@@QAEPAXXZ PROC NEAR		; ATL::CStringData::data, COMDAT
; _this$ = ecx

; 66   : 		return (this+1);

  00000	8d 41 10	 lea	 eax, DWORD PTR [ecx+16]

; 67   : 	}

  00003	c3		 ret	 0
?data@CStringData@ATL@@QAEPAXXZ ENDP			; ATL::CStringData::data
_TEXT	ENDS
PUBLIC	?AddRef@CStringData@ATL@@QAEXXZ			; ATL::CStringData::AddRef
; Function compile flags: /Ogty
;	COMDAT ?AddRef@CStringData@ATL@@QAEXXZ
_TEXT	SEGMENT
?AddRef@CStringData@ATL@@QAEXXZ PROC NEAR		; ATL::CStringData::AddRef, COMDAT
; _this$ = ecx

; 71   : 		ATLASSERT(nRefs > 0);
; 72   : 		_InterlockedIncrement(&nRefs);

  00000	83 c1 0c	 add	 ecx, 12			; 0000000cH
  00003	b8 01 00 00 00	 mov	 eax, 1
  00008	f0 0f c1 01	 lock	  xadd	 DWORD PTR [ecx], eax

; 73   : 	}

  0000c	c3		 ret	 0
?AddRef@CStringData@ATL@@QAEXXZ ENDP			; ATL::CStringData::AddRef
_TEXT	ENDS
PUBLIC	?IsLocked@CStringData@ATL@@QBE_NXZ		; ATL::CStringData::IsLocked
; Function compile flags: /Ogty
;	COMDAT ?IsLocked@CStringData@ATL@@QBE_NXZ
_TEXT	SEGMENT
?IsLocked@CStringData@ATL@@QBE_NXZ PROC NEAR		; ATL::CStringData::IsLocked, COMDAT
; _this$ = ecx

; 76   : 		return nRefs < 0;

  00000	8b 51 0c	 mov	 edx, DWORD PTR [ecx+12]
  00003	33 c0		 xor	 eax, eax
  00005	85 d2		 test	 edx, edx
  00007	0f 9c c0	 setl	 al

; 77   : 	}

  0000a	c3		 ret	 0
?IsLocked@CStringData@ATL@@QBE_NXZ ENDP			; ATL::CStringData::IsLocked
_TEXT	ENDS
PUBLIC	?IsShared@CStringData@ATL@@QBE_NXZ		; ATL::CStringData::IsShared
; Function compile flags: /Ogty
;	COMDAT ?IsShared@CStringData@ATL@@QBE_NXZ
_TEXT	SEGMENT
?IsShared@CStringData@ATL@@QBE_NXZ PROC NEAR		; ATL::CStringData::IsShared, COMDAT
; _this$ = ecx

; 80   : 		return( nRefs > 1 ); 

  00000	8b 51 0c	 mov	 edx, DWORD PTR [ecx+12]
  00003	33 c0		 xor	 eax, eax
  00005	83 fa 01	 cmp	 edx, 1
  00008	0f 9f c0	 setg	 al

; 81   : 	}

  0000b	c3		 ret	 0
?IsShared@CStringData@ATL@@QBE_NXZ ENDP			; ATL::CStringData::IsShared
_TEXT	ENDS
PUBLIC	??8const_iterator@?$_Tree@V?$_Tmap_traits@EV?$vector@VCPoint@@V?$allocator@VCPoint@@@std@@@std@@U?$less@E@2@V?$allocator@U?$pair@$$CBEV?$vector@VCPoint@@V?$allocator@VCPoint@@@std@@@std@@@std@@@2@$0A@@std@@@std@@QBE_NABV012@@Z ; std::_Tree<std::_Tmap_traits<unsigned char,std::vector<CPoint,std::allocator<CPoint> >,std::less<unsigned char>,std::allocator<std::pair<unsigned char const ,std::vector<CPoint,std::allocator<CPoint> > > >,0> >::const_iterator::operator==
; Function compile flags: /Ogty
; File c:\program files\microsoft visual studio .net 2003\vc7\include\xtree
;	COMDAT ??8const_iterator@?$_Tree@V?$_Tmap_traits@EV?$vector@VCPoint@@V?$allocator@VCPoint@@@std@@@std@@U?$less@E@2@V?$allocator@U?$pair@$$CBEV?$vector@VCPoint@@V?$allocator@VCPoint@@@std@@@std@@@std@@@2@$0A@@std@@@std@@QBE_NABV012@@Z
_TEXT	SEGMENT
__Right$ = 8						; size = 4
??8const_iterator@?$_Tree@V?$_Tmap_traits@EV?$vector@VCPoint@@V?$allocator@VCPoint@@@std@@@std@@U?$less@E@2@V?$allocator@U?$pair@$$CBEV?$vector@VCPoint@@V?$allocator@VCPoint@@@std@@@std@@@std@@@2@$0A@@std@@@std@@QBE_NABV012@@Z PROC NEAR ; std::_Tree<std::_Tmap_traits<unsigned char,std::vector<CPoint,std::allocator<CPoint> >,std::less<unsigned char>,std::allocator<std::pair<unsigned char const ,std::vector<CPoint,std::allocator<CPoint> > > >,0> >::const_iterator::operator==, COMDAT
; _this$ = ecx

; 241  : 			return (_Ptr == _Right._Ptr);

  00000	8b 01		 mov	 eax, DWORD PTR [ecx]
  00002	8b 4c 24 04	 mov	 ecx, DWORD PTR __Right$[esp-4]
  00006	2b 01		 sub	 eax, DWORD PTR [ecx]
  00008	f7 d8		 neg	 eax
  0000a	1b c0		 sbb	 eax, eax
  0000c	40		 inc	 eax

; 242  : 			}

  0000d	c2 04 00	 ret	 4
??8const_iterator@?$_Tree@V?$_Tmap_traits@EV?$vector@VCPoint@@V?$allocator@VCPoint@@@std@@@std@@U?$less@E@2@V?$allocator@U?$pair@$$CBEV?$vector@VCPoint@@V?$allocator@VCPoint@@@std@@@std@@@std@@@2@$0A@@std@@@std@@QBE_NABV012@@Z ENDP ; std::_Tree<std::_Tmap_traits<unsigned char,std::vector<CPoint,std::allocator<CPoint> >,std::less<unsigned char>,std::allocator<std::pair<unsigned char const ,std::vector<CPoint,std::allocator<CPoint> > > >,0> >::const_iterator::operator==
_TEXT	ENDS
PUBLIC	?_Mynode@const_iterator@?$_Tree@V?$_Tmap_traits@EV?$vector@VCPoint@@V?$allocator@VCPoint@@@std@@@std@@U?$less@E@2@V?$allocator@U?$pair@$$CBEV?$vector@VCPoint@@V?$allocator@VCPoint@@@std@@@std@@@std@@@2@$0A@@std@@@std@@QBEPAU_Node@?$_Tree_nod@V?$_Tmap_traits@EV?$vector@VCPoint@@V?$allocator@VCPoint@@@std@@@std@@U?$less@E@2@V?$allocator@U?$pair@$$CBEV?$vector@VCPoint@@V?$allocator@VCPoint@@@std@@@std@@@std@@@2@$0A@@std@@@3@XZ ; std::_Tree<std::_Tmap_traits<unsigned char,std::vector<CPoint,std::allocator<CPoint> >,std::less<unsigned char>,std::allocator<std::pair<unsigned char const ,std::vector<CPoint,std::allocator<CPoint> > > >,0> >::const_iterator::_Mynode
; Function compile flags: /Ogty
;	COMDAT ?_Mynode@const_iterator@?$_Tree@V?$_Tmap_traits@EV?$vector@VCPoint@@V?$allocator@VCPoint@@@std@@@std@@U?$less@E@2@V?$allocator@U?$pair@$$CBEV?$vector@VCPoint@@V?$allocator@VCPoint@@@std@@@std@@@std@@@2@$0A@@std@@@std@@QBEPAU_Node@?$_Tree_nod@V?$_Tmap_traits@EV?$vector@VCPoint@@V?$allocator@VCPoint@@@std@@@std@@U?$less@E@2@V?$allocator@U?$pair@$$CBEV?$vector@VCPoint@@V?$allocator@VCPoint@@@std@@@std@@@std@@@2@$0A@@std@@@3@XZ
_TEXT	SEGMENT
?_Mynode@const_iterator@?$_Tree@V?$_Tmap_traits@EV?$vector@VCPoint@@V?$allocator@VCPoint@@@std@@@std@@U?$less@E@2@V?$allocator@U?$pair@$$CBEV?$vector@VCPoint@@V?$allocator@VCPoint@@@std@@@std@@@std@@@2@$0A@@std@@@std@@QBEPAU_Node@?$_Tree_nod@V?$_Tmap_traits@EV?$vector@VCPoint@@V?$allocator@VCPoint@@@std@@@std@@U?$less@E@2@V?$allocator@U?$pair@$$CBEV?$vector@VCPoint@@V?$allocator@VCPoint@@@std@@@std@@@std@@@2@$0A@@std@@@3@XZ PROC NEAR ; std::_Tree<std::_Tmap_traits<unsigned char,std::vector<CPoint,std::allocator<CPoint> >,std::less<unsigned char>,std::allocator<std::pair<unsigned char const ,std::vector<CPoint,std::allocator<CPoint> > > >,0> >::const_iterator::_Mynode, COMDAT
; _this$ = ecx

; 284  : 			return (_Ptr);

  00000	8b 01		 mov	 eax, DWORD PTR [ecx]

; 285  : 			}

  00002	c3		 ret	 0
?_Mynode@const_iterator@?$_Tree@V?$_Tmap_traits@EV?$vector@VCPoint@@V?$allocator@VCPoint@@@std@@@std@@U?$less@E@2@V?$allocator@U?$pair@$$CBEV?$vector@VCPoint@@V?$allocator@VCPoint@@@std@@@std@@@std@@@2@$0A@@std@@@std@@QBEPAU_Node@?$_Tree_nod@V?$_Tmap_traits@EV?$vector@VCPoint@@V?$allocator@VCPoint@@@std@@@std@@U?$less@E@2@V?$allocator@U?$pair@$$CBEV?$vector@VCPoint@@V?$allocator@VCPoint@@@std@@@std@@@std@@@2@$0A@@std@@@3@XZ ENDP ; std::_Tree<std::_Tmap_traits<unsigned char,std::vector<CPoint,std::allocator<CPoint> >,std::less<unsigned char>,std::allocator<std::pair<unsigned char const ,std::vector<CPoint,std::allocator<CPoint> > > >,0> >::const_iterator::_Mynode
_TEXT	ENDS
PUBLIC	??0?$pair@Viterator@?$_Tree@V?$_Tmap_traits@EV?$vector@VCPoint@@V?$allocator@VCPoint@@@std@@@std@@U?$less@E@2@V?$allocator@U?$pair@$$CBEV?$vector@VCPoint@@V?$allocator@VCPoint@@@std@@@std@@@std@@@2@$0A@@std@@@std@@_N@std@@QAE@ABViterator@?$_Tree@V?$_Tmap_traits@EV?$vector@VCPoint@@V?$allocator@VCPoint@@@std@@@std@@U?$less@E@2@V?$allocator@U?$pair@$$CBEV?$vector@VCPoint@@V?$allocator@VCPoint@@@std@@@std@@@std@@@2@$0A@@std@@@1@AB_N@Z ; std::pair<std::_Tree<std::_Tmap_traits<unsigned char,std::vector<CPoint,std::allocator<CPoint> >,std::less<unsigned char>,std::allocator<std::pair<unsigned char const ,std::vector<CPoint,std::allocator<CPoint> > > >,0> >::iterator,bool>::pair<std::_Tree<std::_Tmap_traits<unsigned char,std::vector<CPoint,std::allocator<CPoint> >,std::less<unsigned char>,std::allocator<std::pair<unsigned char const ,std::vector<CPoint,std::allocator<CPoint> > > >,0> >::iterator,bool>
; Function compile flags: /Ogty
; File c:\program files\microsoft visual studio .net 2003\vc7\include\utility
;	COMDAT ??0?$pair@Viterator@?$_Tree@V?$_Tmap_traits@EV?$vector@VCPoint@@V?$allocator@VCPoint@@@std@@@std@@U?$less@E@2@V?$allocator@U?$pair@$$CBEV?$vector@VCPoint@@V?$allocator@VCPoint@@@std@@@std@@@std@@@2@$0A@@std@@@std@@_N@std@@QAE@ABViterator@?$_Tree@V?$_Tmap_traits@EV?$vector@VCPoint@@V?$allocator@VCPoint@@@std@@@std@@U?$less@E@2@V?$allocator@U?$pair@$$CBEV?$vector@VCPoint@@V?$allocator@VCPoint@@@std@@@std@@@std@@@2@$0A@@std@@@1@AB_N@Z
_TEXT	SEGMENT
__Val1$ = 8						; size = 4
__Val2$ = 12						; size = 4
??0?$pair@Viterator@?$_Tree@V?$_Tmap_traits@EV?$vector@VCPoint@@V?$allocator@VCPoint@@@std@@@std@@U?$less@E@2@V?$allocator@U?$pair@$$CBEV?$vector@VCPoint@@V?$allocator@VCPoint@@@std@@@std@@@std@@@2@$0A@@std@@@std@@_N@std@@QAE@ABViterator@?$_Tree@V?$_Tmap_traits@EV?$vector@VCPoint@@V?$allocator@VCPoint@@@std@@@std@@U?$less@E@2@V?$allocator@U?$pair@$$CBEV?$vector@VCPoint@@V?$allocator@VCPoint@@@std@@@std@@@std@@@2@$0A@@std@@@1@AB_N@Z PROC NEAR ; std::pair<std::_Tree<std::_Tmap_traits<unsigned char,std::vector<CPoint,std::allocator<CPoint> >,std::less<unsigned char>,std::allocator<std::pair<unsigned char const ,std::vector<CPoint,std::allocator<CPoint> > > >,0> >::iterator,bool>::pair<std::_Tree<std::_Tmap_traits<unsigned char,std::vector<CPoint,std::allocator<CPoint> >,std::less<unsigned char>,std::allocator<std::pair<unsigned char const ,std::vector<CPoint,std::allocator<CPoint> > > >,0> >::iterator,bool>, COMDAT
; _this$ = ecx

; 34   : 		{	// construct from specified values

  00000	8b c1		 mov	 eax, ecx
  00002	8b 4c 24 04	 mov	 ecx, DWORD PTR __Val1$[esp-4]
  00006	8b 11		 mov	 edx, DWORD PTR [ecx]
  00008	8b 4c 24 08	 mov	 ecx, DWORD PTR __Val2$[esp-4]
  0000c	89 10		 mov	 DWORD PTR [eax], edx
  0000e	8a 11		 mov	 dl, BYTE PTR [ecx]
  00010	88 50 04	 mov	 BYTE PTR [eax+4], dl

; 35   : 		}

  00013	c2 08 00	 ret	 8
??0?$pair@Viterator@?$_Tree@V?$_Tmap_traits@EV?$vector@VCPoint@@V?$allocator@VCPoint@@@std@@@std@@U?$less@E@2@V?$allocator@U?$pair@$$CBEV?$vector@VCPoint@@V?$allocator@VCPoint@@@std@@@std@@@std@@@2@$0A@@std@@@std@@_N@std@@QAE@ABViterator@?$_Tree@V?$_Tmap_traits@EV?$vector@VCPoint@@V?$allocator@VCPoint@@@std@@@std@@U?$less@E@2@V?$allocator@U?$pair@$$CBEV?$vector@VCPoint@@V?$allocator@VCPoint@@@std@@@std@@@std@@@2@$0A@@std@@@1@AB_N@Z ENDP ; std::pair<std::_Tree<std::_Tmap_traits<unsigned char,std::vector<CPoint,std::allocator<CPoint> >,std::less<unsigned char>,std::allocator<std::pair<unsigned char const ,std::vector<CPoint,std::allocator<CPoint> > > >,0> >::iterator,bool>::pair<std::_Tree<std::_Tmap_traits<unsigned char,std::vector<CPoint,std::allocator<CPoint> >,std::less<unsigned char>,std::allocator<std::pair<unsigned char const ,std::vector<CPoint,std::allocator<CPoint> > > >,0> >::iterator,bool>
_TEXT	ENDS
PUBLIC	?Release@CStringData@ATL@@QAEXXZ		; ATL::CStringData::Release
; Function compile flags: /Ogty
; File c:\program files\microsoft visual studio .net 2003\vc7\atlmfc\include\atlsimpstr.h
;	COMDAT ?Release@CStringData@ATL@@QAEXXZ
_TEXT	SEGMENT
?Release@CStringData@ATL@@QAEXXZ PROC NEAR		; ATL::CStringData::Release, COMDAT
; _this$ = ecx

; 93   : 		ATLASSERT( nRefs != 0 );
; 94   : 
; 95   : 		if( _InterlockedDecrement( &nRefs ) <= 0 )

  00000	8d 41 0c	 lea	 eax, DWORD PTR [ecx+12]
  00003	83 ca ff	 or	 edx, -1
  00006	f0 0f c1 10	 lock	  xadd	 DWORD PTR [eax], edx
  0000a	4a		 dec	 edx
  0000b	85 d2		 test	 edx, edx
  0000d	7f 0a		 jg	 SHORT $L39885

; 96   : 		{
; 97   : 			pStringMgr->Free( this );

  0000f	8b 01		 mov	 eax, DWORD PTR [ecx]
  00011	8b 10		 mov	 edx, DWORD PTR [eax]
  00013	51		 push	 ecx
  00014	8b c8		 mov	 ecx, eax
  00016	ff 52 04	 call	 DWORD PTR [edx+4]
$L39885:

; 98   : 		}
; 99   : 	}

  00019	c3		 ret	 0
?Release@CStringData@ATL@@QAEXXZ ENDP			; ATL::CStringData::Release
_TEXT	ENDS
PUBLIC	?StringCompare@?$ChTraitsCRT@D@ATL@@SAHPBD0@Z	; ATL::ChTraitsCRT<char>::StringCompare
EXTRN	__mbscmp:NEAR
; Function compile flags: /Ogty
; File c:\program files\microsoft visual studio .net 2003\vc7\atlmfc\include\cstringt.h
;	COMDAT ?StringCompare@?$ChTraitsCRT@D@ATL@@SAHPBD0@Z
_TEXT	SEGMENT
_pszA$ = 8						; size = 4
_pszB$ = 12						; size = 4
?StringCompare@?$ChTraitsCRT@D@ATL@@SAHPBD0@Z PROC NEAR	; ATL::ChTraitsCRT<char>::StringCompare, COMDAT

; 336  : 		return _mbscmp( reinterpret_cast< const unsigned char* >( pszA ), reinterpret_cast< const unsigned char* >( pszB ) );

  00000	e9 00 00 00 00	 jmp	 __mbscmp
?StringCompare@?$ChTraitsCRT@D@ATL@@SAHPBD0@Z ENDP	; ATL::ChTraitsCRT<char>::StringCompare
_TEXT	ENDS
PUBLIC	?_Color@?$_Tree@V?$_Tmap_traits@EV?$vector@VCPoint@@V?$allocator@VCPoint@@@std@@@std@@U?$less@E@2@V?$allocator@U?$pair@$$CBEV?$vector@VCPoint@@V?$allocator@VCPoint@@@std@@@std@@@std@@@2@$0A@@std@@@std@@KAAADPAU_Node@?$_Tree_nod@V?$_Tmap_traits@EV?$vector@VCPoint@@V?$allocator@VCPoint@@@std@@@std@@U?$less@E@2@V?$allocator@U?$pair@$$CBEV?$vector@VCPoint@@V?$allocator@VCPoint@@@std@@@std@@@std@@@2@$0A@@std@@@2@@Z ; std::_Tree<std::_Tmap_traits<unsigned char,std::vector<CPoint,std::allocator<CPoint> >,std::less<unsigned char>,std::allocator<std::pair<unsigned char const ,std::vector<CPoint,std::allocator<CPoint> > > >,0> >::_Color
; Function compile flags: /Ogty
; File c:\program files\microsoft visual studio .net 2003\vc7\include\xtree
;	COMDAT ?_Color@?$_Tree@V?$_Tmap_traits@EV?$vector@VCPoint@@V?$allocator@VCPoint@@@std@@@std@@U?$less@E@2@V?$allocator@U?$pair@$$CBEV?$vector@VCPoint@@V?$allocator@VCPoint@@@std@@@std@@@std@@@2@$0A@@std@@@std@@KAAADPAU_Node@?$_Tree_nod@V?$_Tmap_traits@EV?$vector@VCPoint@@V?$allocator@VCPoint@@@std@@@std@@U?$less@E@2@V?$allocator@U?$pair@$$CBEV?$vector@VCPoint@@V?$allocator@VCPoint@@@std@@@std@@@std@@@2@$0A@@std@@@2@@Z
_TEXT	SEGMENT
__Pnode$ = 8						; size = 4
?_Color@?$_Tree@V?$_Tmap_traits@EV?$vector@VCPoint@@V?$allocator@VCPoint@@@std@@@std@@U?$less@E@2@V?$allocator@U?$pair@$$CBEV?$vector@VCPoint@@V?$allocator@VCPoint@@@std@@@std@@@std@@@2@$0A@@std@@@std@@KAAADPAU_Node@?$_Tree_nod@V?$_Tmap_traits@EV?$vector@VCPoint@@V?$allocator@VCPoint@@@std@@@std@@U?$less@E@2@V?$allocator@U?$pair@$$CBEV?$vector@VCPoint@@V?$allocator@VCPoint@@@std@@@std@@@std@@@2@$0A@@std@@@2@@Z PROC NEAR ; std::_Tree<std::_Tmap_traits<unsigned char,std::vector<CPoint,std::allocator<CPoint> >,std::less<unsigned char>,std::allocator<std::pair<unsigned char const ,std::vector<CPoint,std::allocator<CPoint> > > >,0> >::_Color, COMDAT

; 132  : 		return ((_Charref)(*_Pnode)._Color);

  00000	8b 44 24 04	 mov	 eax, DWORD PTR __Pnode$[esp-4]
  00004	83 c0 20	 add	 eax, 32			; 00000020H

; 133  : 		}

  00007	c3		 ret	 0
?_Color@?$_Tree@V?$_Tmap_traits@EV?$vector@VCPoint@@V?$allocator@VCPoint@@@std@@@std@@U?$less@E@2@V?$allocator@U?$pair@$$CBEV?$vector@VCPoint@@V?$allocator@VCPoint@@@std@@@std@@@std@@@2@$0A@@std@@@std@@KAAADPAU_Node@?$_Tree_nod@V?$_Tmap_traits@EV?$vector@VCPoint@@V?$allocator@VCPoint@@@std@@@std@@U?$less@E@2@V?$allocator@U?$pair@$$CBEV?$vector@VCPoint@@V?$allocator@VCPoint@@@std@@@std@@@std@@@2@$0A@@std@@@2@@Z ENDP ; std::_Tree<std::_Tmap_traits<unsigned char,std::vector<CPoint,std::allocator<CPoint> >,std::less<unsigned char>,std::allocator<std::pair<unsigned char const ,std::vector<CPoint,std::allocator<CPoint> > > >,0> >::_Color
_TEXT	ENDS
PUBLIC	?_Parent@?$_Tree@V?$_Tmap_traits@EV?$vector@VCPoint@@V?$allocator@VCPoint@@@std@@@std@@U?$less@E@2@V?$allocator@U?$pair@$$CBEV?$vector@VCPoint@@V?$allocator@VCPoint@@@std@@@std@@@std@@@2@$0A@@std@@@std@@KAAAPAU_Node@?$_Tree_nod@V?$_Tmap_traits@EV?$vector@VCPoint@@V?$allocator@VCPoint@@@std@@@std@@U?$less@E@2@V?$allocator@U?$pair@$$CBEV?$vector@VCPoint@@V?$allocator@VCPoint@@@std@@@std@@@std@@@2@$0A@@std@@@2@PAU342@@Z ; std::_Tree<std::_Tmap_traits<unsigned char,std::vector<CPoint,std::allocator<CPoint> >,std::less<unsigned char>,std::allocator<std::pair<unsigned char const ,std::vector<CPoint,std::allocator<CPoint> > > >,0> >::_Parent
; Function compile flags: /Ogty
;	COMDAT ?_Parent@?$_Tree@V?$_Tmap_traits@EV?$vector@VCPoint@@V?$allocator@VCPoint@@@std@@@std@@U?$less@E@2@V?$allocator@U?$pair@$$CBEV?$vector@VCPoint@@V?$allocator@VCPoint@@@std@@@std@@@std@@@2@$0A@@std@@@std@@KAAAPAU_Node@?$_Tree_nod@V?$_Tmap_traits@EV?$vector@VCPoint@@V?$allocator@VCPoint@@@std@@@std@@U?$less@E@2@V?$allocator@U?$pair@$$CBEV?$vector@VCPoint@@V?$allocator@VCPoint@@@std@@@std@@@std@@@2@$0A@@std@@@2@PAU342@@Z
_TEXT	SEGMENT
__Pnode$ = 8						; size = 4
?_Parent@?$_Tree@V?$_Tmap_traits@EV?$vector@VCPoint@@V?$allocator@VCPoint@@@std@@@std@@U?$less@E@2@V?$allocator@U?$pair@$$CBEV?$vector@VCPoint@@V?$allocator@VCPoint@@@std@@@std@@@std@@@2@$0A@@std@@@std@@KAAAPAU_Node@?$_Tree_nod@V?$_Tmap_traits@EV?$vector@VCPoint@@V?$allocator@VCPoint@@@std@@@std@@U?$less@E@2@V?$allocator@U?$pair@$$CBEV?$vector@VCPoint@@V?$allocator@VCPoint@@@std@@@std@@@std@@@2@$0A@@std@@@2@PAU342@@Z PROC NEAR ; std::_Tree<std::_Tmap_traits<unsigned char,std::vector<CPoint,std::allocator<CPoint> >,std::less<unsigned char>,std::allocator<std::pair<unsigned char const ,std::vector<CPoint,std::allocator<CPoint> > > >,0> >::_Parent, COMDAT

; 152  : 		return ((_Nodepref)(*_Pnode)._Parent);

  00000	8b 44 24 04	 mov	 eax, DWORD PTR __Pnode$[esp-4]
  00004	83 c0 04	 add	 eax, 4

; 153  : 		}

  00007	c3		 ret	 0
?_Parent@?$_Tree@V?$_Tmap_traits@EV?$vector@VCPoint@@V?$allocator@VCPoint@@@std@@@std@@U?$less@E@2@V?$allocator@U?$pair@$$CBEV?$vector@VCPoint@@V?$allocator@VCPoint@@@std@@@std@@@std@@@2@$0A@@std@@@std@@KAAAPAU_Node@?$_Tree_nod@V?$_Tmap_traits@EV?$vector@VCPoint@@V?$allocator@VCPoint@@@std@@@std@@U?$less@E@2@V?$allocator@U?$pair@$$CBEV?$vector@VCPoint@@V?$allocator@VCPoint@@@std@@@std@@@std@@@2@$0A@@std@@@2@PAU342@@Z ENDP ; std::_Tree<std::_Tmap_traits<unsigned char,std::vector<CPoint,std::allocator<CPoint> >,std::less<unsigned char>,std::allocator<std::pair<unsigned char const ,std::vector<CPoint,std::allocator<CPoint> > > >,0> >::_Parent
_TEXT	ENDS
PUBLIC	?_Myval@?$_Tree@V?$_Tmap_traits@EV?$vector@VCPoint@@V?$allocator@VCPoint@@@std@@@std@@U?$less@E@2@V?$allocator@U?$pair@$$CBEV?$vector@VCPoint@@V?$allocator@VCPoint@@@std@@@std@@@std@@@2@$0A@@std@@@std@@KAAAU?$pair@$$CBEV?$vector@VCPoint@@V?$allocator@VCPoint@@@std@@@std@@@2@PAU_Node@?$_Tree_nod@V?$_Tmap_traits@EV?$vector@VCPoint@@V?$allocator@VCPoint@@@std@@@std@@U?$less@E@2@V?$allocator@U?$pair@$$CBEV?$vector@VCPoint@@V?$allocator@VCPoint@@@std@@@std@@@std@@@2@$0A@@std@@@2@@Z ; std::_Tree<std::_Tmap_traits<unsigned char,std::vector<CPoint,std::allocator<CPoint> >,std::less<unsigned char>,std::allocator<std::pair<unsigned char const ,std::vector<CPoint,std::allocator<CPoint> > > >,0> >::_Myval
; Function compile flags: /Ogty
;	COMDAT ?_Myval@?$_Tree@V?$_Tmap_traits@EV?$vector@VCPoint@@V?$allocator@VCPoint@@@std@@@std@@U?$less@E@2@V?$allocator@U?$pair@$$CBEV?$vector@VCPoint@@V?$allocator@VCPoint@@@std@@@std@@@std@@@2@$0A@@std@@@std@@KAAAU?$pair@$$CBEV?$vector@VCPoint@@V?$allocator@VCPoint@@@std@@@std@@@2@PAU_Node@?$_Tree_nod@V?$_Tmap_traits@EV?$vector@VCPoint@@V?$allocator@VCPoint@@@std@@@std@@U?$less@E@2@V?$allocator@U?$pair@$$CBEV?$vector@VCPoint@@V?$allocator@VCPoint@@@std@@@std@@@std@@@2@$0A@@std@@@2@@Z
_TEXT	SEGMENT
__Pnode$ = 8						; size = 4
?_Myval@?$_Tree@V?$_Tmap_traits@EV?$vector@VCPoint@@V?$allocator@VCPoint@@@std@@@std@@U?$less@E@2@V?$allocator@U?$pair@$$CBEV?$vector@VCPoint@@V?$allocator@VCPoint@@@std@@@std@@@std@@@2@$0A@@std@@@std@@KAAAU?$pair@$$CBEV?$vector@VCPoint@@V?$allocator@VCPoint@@@std@@@std@@@2@PAU_Node@?$_Tree_nod@V?$_Tmap_traits@EV?$vector@VCPoint@@V?$allocator@VCPoint@@@std@@@std@@U?$less@E@2@V?$allocator@U?$pair@$$CBEV?$vector@VCPoint@@V?$allocator@VCPoint@@@std@@@std@@@std@@@2@$0A@@std@@@2@@Z PROC NEAR ; std::_Tree<std::_Tmap_traits<unsigned char,std::vector<CPoint,std::allocator<CPoint> >,std::less<unsigned char>,std::allocator<std::pair<unsigned char const ,std::vector<CPoint,std::allocator<CPoint> > > >,0> >::_Myval, COMDAT

; 162  : 		return ((_Vref)(*_Pnode)._Myval);

  00000	8b 44 24 04	 mov	 eax, DWORD PTR __Pnode$[esp-4]
  00004	83 c0 0c	 add	 eax, 12			; 0000000cH

; 163  : 		}

  00007	c3		 ret	 0
?_Myval@?$_Tree@V?$_Tmap_traits@EV?$vector@VCPoint@@V?$allocator@VCPoint@@@std@@@std@@U?$less@E@2@V?$allocator@U?$pair@$$CBEV?$vector@VCPoint@@V?$allocator@VCPoint@@@std@@@std@@@std@@@2@$0A@@std@@@std@@KAAAU?$pair@$$CBEV?$vector@VCPoint@@V?$allocator@VCPoint@@@std@@@std@@@2@PAU_Node@?$_Tree_nod@V?$_Tmap_traits@EV?$vector@VCPoint@@V?$allocator@VCPoint@@@std@@@std@@U?$less@E@2@V?$allocator@U?$pair@$$CBEV?$vector@VCPoint@@V?$allocator@VCPoint@@@std@@@std@@@std@@@2@$0A@@std@@@2@@Z ENDP ; std::_Tree<std::_Tmap_traits<unsigned char,std::vector<CPoint,std::allocator<CPoint> >,std::less<unsigned char>,std::allocator<std::pair<unsigned char const ,std::vector<CPoint,std::allocator<CPoint> > > >,0> >::_Myval
_TEXT	ENDS
PUBLIC	??0?$allocator@U?$pair@$$CBEV?$vector@VCPoint@@V?$allocator@VCPoint@@@std@@@std@@@std@@@std@@QAE@ABV01@@Z ; std::allocator<std::pair<unsigned char const ,std::vector<CPoint,std::allocator<CPoint> > > >::allocator<std::pair<unsigned char const ,std::vector<CPoint,std::allocator<CPoint> > > >
; Function compile flags: /Ogty
; File c:\program files\microsoft visual studio .net 2003\vc7\include\xmemory
;	COMDAT ??0?$allocator@U?$pair@$$CBEV?$vector@VCPoint@@V?$allocator@VCPoint@@@std@@@std@@@std@@@std@@QAE@ABV01@@Z
_TEXT	SEGMENT
___formal$ = 8						; size = 4
??0?$allocator@U?$pair@$$CBEV?$vector@VCPoint@@V?$allocator@VCPoint@@@std@@@std@@@std@@@std@@QAE@ABV01@@Z PROC NEAR ; std::allocator<std::pair<unsigned char const ,std::vector<CPoint,std::allocator<CPoint> > > >::allocator<std::pair<unsigned char const ,std::vector<CPoint,std::allocator<CPoint> > > >, COMDAT
; _this$ = ecx

; 115  : 	allocator(const allocator<_Ty>&)

  00000	8b c1		 mov	 eax, ecx

; 116  : 		{	// construct by copying (do nothing)
; 117  : 		}

  00002	c2 04 00	 ret	 4
??0?$allocator@U?$pair@$$CBEV?$vector@VCPoint@@V?$allocator@VCPoint@@@std@@@std@@@std@@@std@@QAE@ABV01@@Z ENDP ; std::allocator<std::pair<unsigned char const ,std::vector<CPoint,std::allocator<CPoint> > > >::allocator<std::pair<unsigned char const ,std::vector<CPoint,std::allocator<CPoint> > > >
_TEXT	ENDS
PUBLIC	?deallocate@?$allocator@U_Node@?$_Tree_nod@V?$_Tmap_traits@EV?$vector@VCPoint@@V?$allocator@VCPoint@@@std@@@std@@U?$less@E@2@V?$allocator@U?$pair@$$CBEV?$vector@VCPoint@@V?$allocator@VCPoint@@@std@@@std@@@std@@@2@$0A@@std@@@std@@@std@@QAEXPAU_Node@?$_Tree_nod@V?$_Tmap_traits@EV?$vector@VCPoint@@V?$allocator@VCPoint@@@std@@@std@@U?$less@E@2@V?$allocator@U?$pair@$$CBEV?$vector@VCPoint@@V?$allocator@VCPoint@@@std@@@std@@@std@@@2@$0A@@std@@@2@I@Z ; std::allocator<std::_Tree_nod<std::_Tmap_traits<unsigned char,std::vector<CPoint,std::allocator<CPoint> >,std::less<unsigned char>,std::allocator<std::pair<unsigned char const ,std::vector<CPoint,std::allocator<CPoint> > > >,0> >::_Node>::deallocate
; Function compile flags: /Ogty
;	COMDAT ?deallocate@?$allocator@U_Node@?$_Tree_nod@V?$_Tmap_traits@EV?$vector@VCPoint@@V?$allocator@VCPoint@@@std@@@std@@U?$less@E@2@V?$allocator@U?$pair@$$CBEV?$vector@VCPoint@@V?$allocator@VCPoint@@@std@@@std@@@std@@@2@$0A@@std@@@std@@@std@@QAEXPAU_Node@?$_Tree_nod@V?$_Tmap_traits@EV?$vector@VCPoint@@V?$allocator@VCPoint@@@std@@@std@@U?$less@E@2@V?$allocator@U?$pair@$$CBEV?$vector@VCPoint@@V?$allocator@VCPoint@@@std@@@std@@@std@@@2@$0A@@std@@@2@I@Z
_TEXT	SEGMENT
__Ptr$ = 8						; size = 4
___formal$ = 12						; size = 4
?deallocate@?$allocator@U_Node@?$_Tree_nod@V?$_Tmap_traits@EV?$vector@VCPoint@@V?$allocator@VCPoint@@@std@@@std@@U?$less@E@2@V?$allocator@U?$pair@$$CBEV?$vector@VCPoint@@V?$allocator@VCPoint@@@std@@@std@@@std@@@2@$0A@@std@@@std@@@std@@QAEXPAU_Node@?$_Tree_nod@V?$_Tmap_traits@EV?$vector@VCPoint@@V?$allocator@VCPoint@@@std@@@std@@U?$less@E@2@V?$allocator@U?$pair@$$CBEV?$vector@VCPoint@@V?$allocator@VCPoint@@@std@@@std@@@std@@@2@$0A@@std@@@2@I@Z PROC NEAR ; std::allocator<std::_Tree_nod<std::_Tmap_traits<unsigned char,std::vector<CPoint,std::allocator<CPoint> >,std::less<unsigned char>,std::allocator<std::pair<unsigned char const ,std::vector<CPoint,std::allocator<CPoint> > > >,0> >::_Node>::deallocate, COMDAT
; _this$ = ecx

; 132  : 		operator delete(_Ptr);

  00000	8b 44 24 04	 mov	 eax, DWORD PTR __Ptr$[esp-4]
  00004	50		 push	 eax
  00005	e8 00 00 00 00	 call	 ??3@YAXPAX@Z		; operator delete
  0000a	59		 pop	 ecx

; 133  : 		}

  0000b	c2 08 00	 ret	 8
?deallocate@?$allocator@U_Node@?$_Tree_nod@V?$_Tmap_traits@EV?$vector@VCPoint@@V?$allocator@VCPoint@@@std@@@std@@U?$less@E@2@V?$allocator@U?$pair@$$CBEV?$vector@VCPoint@@V?$allocator@VCPoint@@@std@@@std@@@std@@@2@$0A@@std@@@std@@@std@@QAEXPAU_Node@?$_Tree_nod@V?$_Tmap_traits@EV?$vector@VCPoint@@V?$allocator@VCPoint@@@std@@@std@@U?$less@E@2@V?$allocator@U?$pair@$$CBEV?$vector@VCPoint@@V?$allocator@VCPoint@@@std@@@std@@@std@@@2@$0A@@std@@@2@I@Z ENDP ; std::allocator<std::_Tree_nod<std::_Tmap_traits<unsigned char,std::vector<CPoint,std::allocator<CPoint> >,std::less<unsigned char>,std::allocator<std::pair<unsigned char const ,std::vector<CPoint,std::allocator<CPoint> > > >,0> >::_Node>::deallocate
_TEXT	ENDS
PUBLIC	??0const_iterator@?$_Tree@V?$_Tmap_traits@EV?$vector@VCPoint@@V?$allocator@VCPoint@@@std@@@std@@U?$less@E@2@V?$allocator@U?$pair@$$CBEV?$vector@VCPoint@@V?$allocator@VCPoint@@@std@@@std@@@std@@@2@$0A@@std@@@std@@QAE@XZ ; std::_Tree<std::_Tmap_traits<unsigned char,std::vector<CPoint,std::allocator<CPoint> >,std::less<unsigned char>,std::allocator<std::pair<unsigned char const ,std::vector<CPoint,std::allocator<CPoint> > > >,0> >::const_iterator::const_iterator
; Function compile flags: /Ogty
; File c:\program files\microsoft visual studio .net 2003\vc7\include\xtree
;	COMDAT ??0const_iterator@?$_Tree@V?$_Tmap_traits@EV?$vector@VCPoint@@V?$allocator@VCPoint@@@std@@@std@@U?$less@E@2@V?$allocator@U?$pair@$$CBEV?$vector@VCPoint@@V?$allocator@VCPoint@@@std@@@std@@@std@@@2@$0A@@std@@@std@@QAE@XZ
_TEXT	SEGMENT
??0const_iterator@?$_Tree@V?$_Tmap_traits@EV?$vector@VCPoint@@V?$allocator@VCPoint@@@std@@@std@@U?$less@E@2@V?$allocator@U?$pair@$$CBEV?$vector@VCPoint@@V?$allocator@VCPoint@@@std@@@std@@@std@@@2@$0A@@std@@@std@@QAE@XZ PROC NEAR ; std::_Tree<std::_Tmap_traits<unsigned char,std::vector<CPoint,std::allocator<CPoint> >,std::less<unsigned char>,std::allocator<std::pair<unsigned char const ,std::vector<CPoint,std::allocator<CPoint> > > >,0> >::const_iterator::const_iterator, COMDAT
; _this$ = ecx

; 193  : 			{	// construct with null node pointer

  00000	8b c1		 mov	 eax, ecx
  00002	c7 00 00 00 00
	00		 mov	 DWORD PTR [eax], 0

; 194  : 			}

  00008	c3		 ret	 0
??0const_iterator@?$_Tree@V?$_Tmap_traits@EV?$vector@VCPoint@@V?$allocator@VCPoint@@@std@@@std@@U?$less@E@2@V?$allocator@U?$pair@$$CBEV?$vector@VCPoint@@V?$allocator@VCPoint@@@std@@@std@@@std@@@2@$0A@@std@@@std@@QAE@XZ ENDP ; std::_Tree<std::_Tmap_traits<unsigned char,std::vector<CPoint,std::allocator<CPoint> >,std::less<unsigned char>,std::allocator<std::pair<unsigned char const ,std::vector<CPoint,std::allocator<CPoint> > > >,0> >::const_iterator::const_iterator
_TEXT	ENDS
PUBLIC	??0const_iterator@?$_Tree@V?$_Tmap_traits@EV?$vector@VCPoint@@V?$allocator@VCPoint@@@std@@@std@@U?$less@E@2@V?$allocator@U?$pair@$$CBEV?$vector@VCPoint@@V?$allocator@VCPoint@@@std@@@std@@@std@@@2@$0A@@std@@@std@@QAE@PAU_Node@?$_Tree_nod@V?$_Tmap_traits@EV?$vector@VCPoint@@V?$allocator@VCPoint@@@std@@@std@@U?$less@E@2@V?$allocator@U?$pair@$$CBEV?$vector@VCPoint@@V?$allocator@VCPoint@@@std@@@std@@@std@@@2@$0A@@std@@@2@@Z ; std::_Tree<std::_Tmap_traits<unsigned char,std::vector<CPoint,std::allocator<CPoint> >,std::less<unsigned char>,std::allocator<std::pair<unsigned char const ,std::vector<CPoint,std::allocator<CPoint> > > >,0> >::const_iterator::const_iterator
; Function compile flags: /Ogty
;	COMDAT ??0const_iterator@?$_Tree@V?$_Tmap_traits@EV?$vector@VCPoint@@V?$allocator@VCPoint@@@std@@@std@@U?$less@E@2@V?$allocator@U?$pair@$$CBEV?$vector@VCPoint@@V?$allocator@VCPoint@@@std@@@std@@@std@@@2@$0A@@std@@@std@@QAE@PAU_Node@?$_Tree_nod@V?$_Tmap_traits@EV?$vector@VCPoint@@V?$allocator@VCPoint@@@std@@@std@@U?$less@E@2@V?$allocator@U?$pair@$$CBEV?$vector@VCPoint@@V?$allocator@VCPoint@@@std@@@std@@@std@@@2@$0A@@std@@@2@@Z
_TEXT	SEGMENT
__Pnode$ = 8						; size = 4
??0const_iterator@?$_Tree@V?$_Tmap_traits@EV?$vector@VCPoint@@V?$allocator@VCPoint@@@std@@@std@@U?$less@E@2@V?$allocator@U?$pair@$$CBEV?$vector@VCPoint@@V?$allocator@VCPoint@@@std@@@std@@@std@@@2@$0A@@std@@@std@@QAE@PAU_Node@?$_Tree_nod@V?$_Tmap_traits@EV?$vector@VCPoint@@V?$allocator@VCPoint@@@std@@@std@@U?$less@E@2@V?$allocator@U?$pair@$$CBEV?$vector@VCPoint@@V?$allocator@VCPoint@@@std@@@std@@@std@@@2@$0A@@std@@@2@@Z PROC NEAR ; std::_Tree<std::_Tmap_traits<unsigned char,std::vector<CPoint,std::allocator<CPoint> >,std::less<unsigned char>,std::allocator<std::pair<unsigned char const ,std::vector<CPoint,std::allocator<CPoint> > > >,0> >::const_iterator::const_iterator, COMDAT
; _this$ = ecx

; 200  : 			{	// construct with node pointer _Pnode

  00000	8b c1		 mov	 eax, ecx
  00002	8b 4c 24 04	 mov	 ecx, DWORD PTR __Pnode$[esp-4]
  00006	89 08		 mov	 DWORD PTR [eax], ecx

; 201  : 			}

  00008	c2 04 00	 ret	 4
??0const_iterator@?$_Tree@V?$_Tmap_traits@EV?$vector@VCPoint@@V?$allocator@VCPoint@@@std@@@std@@U?$less@E@2@V?$allocator@U?$pair@$$CBEV?$vector@VCPoint@@V?$allocator@VCPoint@@@std@@@std@@@std@@@2@$0A@@std@@@std@@QAE@PAU_Node@?$_Tree_nod@V?$_Tmap_traits@EV?$vector@VCPoint@@V?$allocator@VCPoint@@@std@@@std@@U?$less@E@2@V?$allocator@U?$pair@$$CBEV?$vector@VCPoint@@V?$allocator@VCPoint@@@std@@@std@@@std@@@2@$0A@@std@@@2@@Z ENDP ; std::_Tree<std::_Tmap_traits<unsigned char,std::vector<CPoint,std::allocator<CPoint> >,std::less<unsigned char>,std::allocator<std::pair<unsigned char const ,std::vector<CPoint,std::allocator<CPoint> > > >,0> >::const_iterator::const_iterator
_TEXT	ENDS
PUBLIC	??Dconst_iterator@?$_Tree@V?$_Tmap_traits@EV?$vector@VCPoint@@V?$allocator@VCPoint@@@std@@@std@@U?$less@E@2@V?$allocator@U?$pair@$$CBEV?$vector@VCPoint@@V?$allocator@VCPoint@@@std@@@std@@@std@@@2@$0A@@std@@@std@@QBEABU?$pair@$$CBEV?$vector@VCPoint@@V?$allocator@VCPoint@@@std@@@std@@@2@XZ ; std::_Tree<std::_Tmap_traits<unsigned char,std::vector<CPoint,std::allocator<CPoint> >,std::less<unsigned char>,std::allocator<std::pair<unsigned char const ,std::vector<CPoint,std::allocator<CPoint> > > >,0> >::const_iterator::operator*
; Function compile flags: /Ogty
;	COMDAT ??Dconst_iterator@?$_Tree@V?$_Tmap_traits@EV?$vector@VCPoint@@V?$allocator@VCPoint@@@std@@@std@@U?$less@E@2@V?$allocator@U?$pair@$$CBEV?$vector@VCPoint@@V?$allocator@VCPoint@@@std@@@std@@@std@@@2@$0A@@std@@@std@@QBEABU?$pair@$$CBEV?$vector@VCPoint@@V?$allocator@VCPoint@@@std@@@std@@@2@XZ
_TEXT	SEGMENT
??Dconst_iterator@?$_Tree@V?$_Tmap_traits@EV?$vector@VCPoint@@V?$allocator@VCPoint@@@std@@@std@@U?$less@E@2@V?$allocator@U?$pair@$$CBEV?$vector@VCPoint@@V?$allocator@VCPoint@@@std@@@std@@@std@@@2@$0A@@std@@@std@@QBEABU?$pair@$$CBEV?$vector@VCPoint@@V?$allocator@VCPoint@@@std@@@std@@@2@XZ PROC NEAR ; std::_Tree<std::_Tmap_traits<unsigned char,std::vector<CPoint,std::allocator<CPoint> >,std::less<unsigned char>,std::allocator<std::pair<unsigned char const ,std::vector<CPoint,std::allocator<CPoint> > > >,0> >::const_iterator::operator*, COMDAT
; _this$ = ecx

; 205  : 			return (_Myval(_Ptr));

  00000	8b 01		 mov	 eax, DWORD PTR [ecx]
  00002	83 c0 0c	 add	 eax, 12			; 0000000cH

; 206  : 			}

  00005	c3		 ret	 0
??Dconst_iterator@?$_Tree@V?$_Tmap_traits@EV?$vector@VCPoint@@V?$allocator@VCPoint@@@std@@@std@@U?$less@E@2@V?$allocator@U?$pair@$$CBEV?$vector@VCPoint@@V?$allocator@VCPoint@@@std@@@std@@@std@@@2@$0A@@std@@@std@@QBEABU?$pair@$$CBEV?$vector@VCPoint@@V?$allocator@VCPoint@@@std@@@std@@@2@XZ ENDP ; std::_Tree<std::_Tmap_traits<unsigned char,std::vector<CPoint,std::allocator<CPoint> >,std::less<unsigned char>,std::allocator<std::pair<unsigned char const ,std::vector<CPoint,std::allocator<CPoint> > > >,0> >::const_iterator::operator*
_TEXT	ENDS
PUBLIC	??0const_iterator@?$vector@VCPoint@@V?$allocator@VCPoint@@@std@@@std@@QAE@PAVCPoint@@@Z ; std::vector<CPoint,std::allocator<CPoint> >::const_iterator::const_iterator
; Function compile flags: /Ogty
; File c:\program files\microsoft visual studio .net 2003\vc7\include\vector
;	COMDAT ??0const_iterator@?$vector@VCPoint@@V?$allocator@VCPoint@@@std@@@std@@QAE@PAVCPoint@@@Z
_TEXT	SEGMENT
__Ptr$ = 8						; size = 4
??0const_iterator@?$vector@VCPoint@@V?$allocator@VCPoint@@@std@@@std@@QAE@PAVCPoint@@@Z PROC NEAR ; std::vector<CPoint,std::allocator<CPoint> >::const_iterator::const_iterator, COMDAT
; _this$ = ecx

; 73   : 		const_iterator(_Tptr _Ptr)

  00000	8b c1		 mov	 eax, ecx

; 74   : 			{	// construct with pointer _Ptr
; 75   : 			_Myptr = _Ptr;

  00002	8b 4c 24 04	 mov	 ecx, DWORD PTR __Ptr$[esp-4]
  00006	89 08		 mov	 DWORD PTR [eax], ecx

; 76   : 			}

  00008	c2 04 00	 ret	 4
??0const_iterator@?$vector@VCPoint@@V?$allocator@VCPoint@@@std@@@std@@QAE@PAVCPoint@@@Z ENDP ; std::vector<CPoint,std::allocator<CPoint> >::const_iterator::const_iterator
_TEXT	ENDS
PUBLIC	??Dconst_iterator@?$vector@VCPoint@@V?$allocator@VCPoint@@@std@@@std@@QBEABVCPoint@@XZ ; std::vector<CPoint,std::allocator<CPoint> >::const_iterator::operator*
; Function compile flags: /Ogty
;	COMDAT ??Dconst_iterator@?$vector@VCPoint@@V?$allocator@VCPoint@@@std@@@std@@QBEABVCPoint@@XZ
_TEXT	SEGMENT
??Dconst_iterator@?$vector@VCPoint@@V?$allocator@VCPoint@@@std@@@std@@QBEABVCPoint@@XZ PROC NEAR ; std::vector<CPoint,std::allocator<CPoint> >::const_iterator::operator*, COMDAT
; _this$ = ecx

; 80   : 
; 81   : 
; 82   : 			return (*_Myptr);

  00000	8b 01		 mov	 eax, DWORD PTR [ecx]

; 83   : 			}

  00002	c3		 ret	 0
??Dconst_iterator@?$vector@VCPoint@@V?$allocator@VCPoint@@@std@@@std@@QBEABVCPoint@@XZ ENDP ; std::vector<CPoint,std::allocator<CPoint> >::const_iterator::operator*
_TEXT	ENDS
PUBLIC	??0iterator@?$vector@VCPoint@@V?$allocator@VCPoint@@@std@@@std@@QAE@PAVCPoint@@@Z ; std::vector<CPoint,std::allocator<CPoint> >::iterator::iterator
; Function compile flags: /Ogty
;	COMDAT ??0iterator@?$vector@VCPoint@@V?$allocator@VCPoint@@@std@@@std@@QAE@PAVCPoint@@@Z
_TEXT	SEGMENT
__Ptr$ = 8						; size = 4
??0iterator@?$vector@VCPoint@@V?$allocator@VCPoint@@@std@@@std@@QAE@PAVCPoint@@@Z PROC NEAR ; std::vector<CPoint,std::allocator<CPoint> >::iterator::iterator, COMDAT
; _this$ = ecx

; 215  : 			{	// construct with pointer _Ptr

  00000	8b c1		 mov	 eax, ecx
  00002	8b 4c 24 04	 mov	 ecx, DWORD PTR __Ptr$[esp-4]
  00006	89 08		 mov	 DWORD PTR [eax], ecx

; 216  : 			}

  00008	c2 04 00	 ret	 4
??0iterator@?$vector@VCPoint@@V?$allocator@VCPoint@@@std@@@std@@QAE@PAVCPoint@@@Z ENDP ; std::vector<CPoint,std::allocator<CPoint> >::iterator::iterator
_TEXT	ENDS
PUBLIC	??Yiterator@?$vector@VCPoint@@V?$allocator@VCPoint@@@std@@@std@@QAEAAV012@H@Z ; std::vector<CPoint,std::allocator<CPoint> >::iterator::operator+=
; Function compile flags: /Ogty
;	COMDAT ??Yiterator@?$vector@VCPoint@@V?$allocator@VCPoint@@@std@@@std@@QAEAAV012@H@Z
_TEXT	SEGMENT
__Off$ = 8						; size = 4
??Yiterator@?$vector@VCPoint@@V?$allocator@VCPoint@@@std@@@std@@QAEAAV012@H@Z PROC NEAR ; std::vector<CPoint,std::allocator<CPoint> >::iterator::operator+=, COMDAT
; _this$ = ecx

; 255  : 			{	// increment by integer

  00000	8b c1		 mov	 eax, ecx

; 256  : 			this->_Myptr += _Off;

  00002	8b 4c 24 04	 mov	 ecx, DWORD PTR __Off$[esp-4]
  00006	8d 14 cd 00 00
	00 00		 lea	 edx, DWORD PTR [ecx*8]
  0000d	01 10		 add	 DWORD PTR [eax], edx

; 257  : 			return (*this);
; 258  : 			}

  0000f	c2 04 00	 ret	 4
??Yiterator@?$vector@VCPoint@@V?$allocator@VCPoint@@@std@@@std@@QAEAAV012@H@Z ENDP ; std::vector<CPoint,std::allocator<CPoint> >::iterator::operator+=
_TEXT	ENDS
PUBLIC	?_Min@?$_Tree@V?$_Tmap_traits@EV?$vector@VCPoint@@V?$allocator@VCPoint@@@std@@@std@@U?$less@E@2@V?$allocator@U?$pair@$$CBEV?$vector@VCPoint@@V?$allocator@VCPoint@@@std@@@std@@@std@@@2@$0A@@std@@@std@@KAPAU_Node@?$_Tree_nod@V?$_Tmap_traits@EV?$vector@VCPoint@@V?$allocator@VCPoint@@@std@@@std@@U?$less@E@2@V?$allocator@U?$pair@$$CBEV?$vector@VCPoint@@V?$allocator@VCPoint@@@std@@@std@@@std@@@2@$0A@@std@@@2@PAU342@@Z ; std::_Tree<std::_Tmap_traits<unsigned char,std::vector<CPoint,std::allocator<CPoint> >,std::less<unsigned char>,std::allocator<std::pair<unsigned char const ,std::vector<CPoint,std::allocator<CPoint> > > >,0> >::_Min
; Function compile flags: /Ogty
; File c:\program files\microsoft visual studio .net 2003\vc7\include\xtree
;	COMDAT ?_Min@?$_Tree@V?$_Tmap_traits@EV?$vector@VCPoint@@V?$allocator@VCPoint@@@std@@@std@@U?$less@E@2@V?$allocator@U?$pair@$$CBEV?$vector@VCPoint@@V?$allocator@VCPoint@@@std@@@std@@@std@@@2@$0A@@std@@@std@@KAPAU_Node@?$_Tree_nod@V?$_Tmap_traits@EV?$vector@VCPoint@@V?$allocator@VCPoint@@@std@@@std@@U?$less@E@2@V?$allocator@U?$pair@$$CBEV?$vector@VCPoint@@V?$allocator@VCPoint@@@std@@@std@@@std@@@2@$0A@@std@@@2@PAU342@@Z
_TEXT	SEGMENT
__Pnode$ = 8						; size = 4
?_Min@?$_Tree@V?$_Tmap_traits@EV?$vector@VCPoint@@V?$allocator@VCPoint@@@std@@@std@@U?$less@E@2@V?$allocator@U?$pair@$$CBEV?$vector@VCPoint@@V?$allocator@VCPoint@@@std@@@std@@@std@@@2@$0A@@std@@@std@@KAPAU_Node@?$_Tree_nod@V?$_Tmap_traits@EV?$vector@VCPoint@@V?$allocator@VCPoint@@@std@@@std@@U?$less@E@2@V?$allocator@U?$pair@$$CBEV?$vector@VCPoint@@V?$allocator@VCPoint@@@std@@@std@@@std@@@2@$0A@@std@@@2@PAU342@@Z PROC NEAR ; std::_Tree<std::_Tmap_traits<unsigned char,std::vector<CPoint,std::allocator<CPoint> >,std::less<unsigned char>,std::allocator<std::pair<unsigned char const ,std::vector<CPoint,std::allocator<CPoint> > > >,0> >::_Min, COMDAT

; 1042 : 		while (!_Isnil(_Left(_Pnode)))

  00000	8b 44 24 04	 mov	 eax, DWORD PTR __Pnode$[esp-4]
  00004	8b 08		 mov	 ecx, DWORD PTR [eax]
  00006	8a 51 21	 mov	 dl, BYTE PTR [ecx+33]
  00009	84 d2		 test	 dl, dl
  0000b	75 0e		 jne	 SHORT $L231743
  0000d	8d 49 00	 npad	 3
$L231742:

; 1043 : 			_Pnode = _Left(_Pnode);

  00010	8b c1		 mov	 eax, ecx
  00012	8b 08		 mov	 ecx, DWORD PTR [eax]
  00014	8a 51 21	 mov	 dl, BYTE PTR [ecx+33]
  00017	84 d2		 test	 dl, dl
  00019	74 f5		 je	 SHORT $L231742
$L231743:

; 1044 : 		return (_Pnode);
; 1045 : 		}

  0001b	c3		 ret	 0
?_Min@?$_Tree@V?$_Tmap_traits@EV?$vector@VCPoint@@V?$allocator@VCPoint@@@std@@@std@@U?$less@E@2@V?$allocator@U?$pair@$$CBEV?$vector@VCPoint@@V?$allocator@VCPoint@@@std@@@std@@@std@@@2@$0A@@std@@@std@@KAPAU_Node@?$_Tree_nod@V?$_Tmap_traits@EV?$vector@VCPoint@@V?$allocator@VCPoint@@@std@@@std@@U?$less@E@2@V?$allocator@U?$pair@$$CBEV?$vector@VCPoint@@V?$allocator@VCPoint@@@std@@@std@@@std@@@2@$0A@@std@@@2@PAU342@@Z ENDP ; std::_Tree<std::_Tmap_traits<unsigned char,std::vector<CPoint,std::allocator<CPoint> >,std::less<unsigned char>,std::allocator<std::pair<unsigned char const ,std::vector<CPoint,std::allocator<CPoint> > > >,0> >::_Min
_TEXT	ENDS
PUBLIC	?max_size@?$allocator@U?$pair@$$CBEV?$vector@VCPoint@@V?$allocator@VCPoint@@@std@@@std@@@std@@@std@@QBEIXZ ; std::allocator<std::pair<unsigned char const ,std::vector<CPoint,std::allocator<CPoint> > > >::max_size
; Function compile flags: /Ogty
; File c:\program files\microsoft visual studio .net 2003\vc7\include\xmemory
;	COMDAT ?max_size@?$allocator@U?$pair@$$CBEV?$vector@VCPoint@@V?$allocator@VCPoint@@@std@@@std@@@std@@@std@@QBEIXZ
_TEXT	SEGMENT
?max_size@?$allocator@U?$pair@$$CBEV?$vector@VCPoint@@V?$allocator@VCPoint@@@std@@@std@@@std@@@std@@QBEIXZ PROC NEAR ; std::allocator<std::pair<unsigned char const ,std::vector<CPoint,std::allocator<CPoint> > > >::max_size, COMDAT
; _this$ = ecx

; 157  : 		_SIZT _Count = (_SIZT)(-1) / sizeof (_Ty);
; 158  : 		return (0 < _Count ? _Count : 1);

  00000	b8 cc cc cc 0c	 mov	 eax, 214748364		; 0cccccccH

; 159  : 		}

  00005	c3		 ret	 0
?max_size@?$allocator@U?$pair@$$CBEV?$vector@VCPoint@@V?$allocator@VCPoint@@@std@@@std@@@std@@@std@@QBEIXZ ENDP ; std::allocator<std::pair<unsigned char const ,std::vector<CPoint,std::allocator<CPoint> > > >::max_size
_TEXT	ENDS
PUBLIC	?max_size@?$allocator@VCPoint@@@std@@QBEIXZ	; std::allocator<CPoint>::max_size
; Function compile flags: /Ogty
;	COMDAT ?max_size@?$allocator@VCPoint@@@std@@QBEIXZ
_TEXT	SEGMENT
?max_size@?$allocator@VCPoint@@@std@@QBEIXZ PROC NEAR	; std::allocator<CPoint>::max_size, COMDAT
; _this$ = ecx

; 157  : 		_SIZT _Count = (_SIZT)(-1) / sizeof (_Ty);
; 158  : 		return (0 < _Count ? _Count : 1);

  00000	b8 ff ff ff 1f	 mov	 eax, 536870911		; 1fffffffH

; 159  : 		}

  00005	c3		 ret	 0
?max_size@?$allocator@VCPoint@@@std@@QBEIXZ ENDP	; std::allocator<CPoint>::max_size
_TEXT	ENDS
PUBLIC	??Gconst_iterator@?$vector@VCPoint@@V?$allocator@VCPoint@@@std@@@std@@QBEHABV012@@Z ; std::vector<CPoint,std::allocator<CPoint> >::const_iterator::operator-
; Function compile flags: /Ogty
; File c:\program files\microsoft visual studio .net 2003\vc7\include\vector
;	COMDAT ??Gconst_iterator@?$vector@VCPoint@@V?$allocator@VCPoint@@@std@@@std@@QBEHABV012@@Z
_TEXT	SEGMENT
__Right$ = 8						; size = 4
??Gconst_iterator@?$vector@VCPoint@@V?$allocator@VCPoint@@@std@@@std@@QBEHABV012@@Z PROC NEAR ; std::vector<CPoint,std::allocator<CPoint> >::const_iterator::operator-, COMDAT
; _this$ = ecx

; 141  : 
; 142  : 
; 143  : 			return (_Myptr - _Right._Myptr);

  00000	8b 01		 mov	 eax, DWORD PTR [ecx]
  00002	8b 4c 24 04	 mov	 ecx, DWORD PTR __Right$[esp-4]
  00006	2b 01		 sub	 eax, DWORD PTR [ecx]
  00008	c1 f8 03	 sar	 eax, 3

; 144  : 			}

  0000b	c2 04 00	 ret	 4
??Gconst_iterator@?$vector@VCPoint@@V?$allocator@VCPoint@@@std@@@std@@QBEHABV012@@Z ENDP ; std::vector<CPoint,std::allocator<CPoint> >::const_iterator::operator-
_TEXT	ENDS
PUBLIC	?_Max@?$_Tree@V?$_Tmap_traits@EV?$vector@VCPoint@@V?$allocator@VCPoint@@@std@@@std@@U?$less@E@2@V?$allocator@U?$pair@$$CBEV?$vector@VCPoint@@V?$allocator@VCPoint@@@std@@@std@@@std@@@2@$0A@@std@@@std@@KAPAU_Node@?$_Tree_nod@V?$_Tmap_traits@EV?$vector@VCPoint@@V?$allocator@VCPoint@@@std@@@std@@U?$less@E@2@V?$allocator@U?$pair@$$CBEV?$vector@VCPoint@@V?$allocator@VCPoint@@@std@@@std@@@std@@@2@$0A@@std@@@2@PAU342@@Z ; std::_Tree<std::_Tmap_traits<unsigned char,std::vector<CPoint,std::allocator<CPoint> >,std::less<unsigned char>,std::allocator<std::pair<unsigned char const ,std::vector<CPoint,std::allocator<CPoint> > > >,0> >::_Max
; Function compile flags: /Ogty
; File c:\program files\microsoft visual studio .net 2003\vc7\include\xtree
;	COMDAT ?_Max@?$_Tree@V?$_Tmap_traits@EV?$vector@VCPoint@@V?$allocator@VCPoint@@@std@@@std@@U?$less@E@2@V?$allocator@U?$pair@$$CBEV?$vector@VCPoint@@V?$allocator@VCPoint@@@std@@@std@@@std@@@2@$0A@@std@@@std@@KAPAU_Node@?$_Tree_nod@V?$_Tmap_traits@EV?$vector@VCPoint@@V?$allocator@VCPoint@@@std@@@std@@U?$less@E@2@V?$allocator@U?$pair@$$CBEV?$vector@VCPoint@@V?$allocator@VCPoint@@@std@@@std@@@std@@@2@$0A@@std@@@2@PAU342@@Z
_TEXT	SEGMENT
__Pnode$ = 8						; size = 4
?_Max@?$_Tree@V?$_Tmap_traits@EV?$vector@VCPoint@@V?$allocator@VCPoint@@@std@@@std@@U?$less@E@2@V?$allocator@U?$pair@$$CBEV?$vector@VCPoint@@V?$allocator@VCPoint@@@std@@@std@@@std@@@2@$0A@@std@@@std@@KAPAU_Node@?$_Tree_nod@V?$_Tmap_traits@EV?$vector@VCPoint@@V?$allocator@VCPoint@@@std@@@std@@U?$less@E@2@V?$allocator@U?$pair@$$CBEV?$vector@VCPoint@@V?$allocator@VCPoint@@@std@@@std@@@std@@@2@$0A@@std@@@2@PAU342@@Z PROC NEAR ; std::_Tree<std::_Tmap_traits<unsigned char,std::vector<CPoint,std::allocator<CPoint> >,std::less<unsigned char>,std::allocator<std::pair<unsigned char const ,std::vector<CPoint,std::allocator<CPoint> > > >,0> >::_Max, COMDAT

; 1035 : 		while (!_Isnil(_Right(_Pnode)))

  00000	8b 44 24 04	 mov	 eax, DWORD PTR __Pnode$[esp-4]
  00004	8b 48 08	 mov	 ecx, DWORD PTR [eax+8]
  00007	8a 51 21	 mov	 dl, BYTE PTR [ecx+33]
  0000a	84 d2		 test	 dl, dl
  0000c	75 0e		 jne	 SHORT $L231807
  0000e	8b ff		 npad	 2
$L231806:

; 1036 : 			_Pnode = _Right(_Pnode);

  00010	8b c1		 mov	 eax, ecx
  00012	8b 48 08	 mov	 ecx, DWORD PTR [eax+8]
  00015	8a 51 21	 mov	 dl, BYTE PTR [ecx+33]
  00018	84 d2		 test	 dl, dl
  0001a	74 f4		 je	 SHORT $L231806
$L231807:

; 1037 : 		return (_Pnode);
; 1038 : 		}

  0001c	c3		 ret	 0
?_Max@?$_Tree@V?$_Tmap_traits@EV?$vector@VCPoint@@V?$allocator@VCPoint@@@std@@@std@@U?$less@E@2@V?$allocator@U?$pair@$$CBEV?$vector@VCPoint@@V?$allocator@VCPoint@@@std@@@std@@@std@@@2@$0A@@std@@@std@@KAPAU_Node@?$_Tree_nod@V?$_Tmap_traits@EV?$vector@VCPoint@@V?$allocator@VCPoint@@@std@@@std@@U?$less@E@2@V?$allocator@U?$pair@$$CBEV?$vector@VCPoint@@V?$allocator@VCPoint@@@std@@@std@@@std@@@2@$0A@@std@@@2@PAU342@@Z ENDP ; std::_Tree<std::_Tmap_traits<unsigned char,std::vector<CPoint,std::allocator<CPoint> >,std::less<unsigned char>,std::allocator<std::pair<unsigned char const ,std::vector<CPoint,std::allocator<CPoint> > > >,0> >::_Max
_TEXT	ENDS
PUBLIC	??0?$_Tmap_traits@EV?$vector@VCPoint@@V?$allocator@VCPoint@@@std@@@std@@U?$less@E@2@V?$allocator@U?$pair@$$CBEV?$vector@VCPoint@@V?$allocator@VCPoint@@@std@@@std@@@std@@@2@$0A@@std@@QAE@U?$less@E@1@@Z ; std::_Tmap_traits<unsigned char,std::vector<CPoint,std::allocator<CPoint> >,std::less<unsigned char>,std::allocator<std::pair<unsigned char const ,std::vector<CPoint,std::allocator<CPoint> > > >,0>::_Tmap_traits<unsigned char,std::vector<CPoint,std::allocator<CPoint> >,std::less<unsigned char>,std::allocator<std::pair<unsigned char const ,std::vector<CPoint,std::allocator<CPoint> > > >,0>
; Function compile flags: /Ogty
; File c:\program files\microsoft visual studio .net 2003\vc7\include\map
;	COMDAT ??0?$_Tmap_traits@EV?$vector@VCPoint@@V?$allocator@VCPoint@@@std@@@std@@U?$less@E@2@V?$allocator@U?$pair@$$CBEV?$vector@VCPoint@@V?$allocator@VCPoint@@@std@@@std@@@std@@@2@$0A@@std@@QAE@U?$less@E@1@@Z
_TEXT	SEGMENT
__Parg$ = 8						; size = 1
??0?$_Tmap_traits@EV?$vector@VCPoint@@V?$allocator@VCPoint@@@std@@@std@@U?$less@E@2@V?$allocator@U?$pair@$$CBEV?$vector@VCPoint@@V?$allocator@VCPoint@@@std@@@std@@@std@@@2@$0A@@std@@QAE@U?$less@E@1@@Z PROC NEAR ; std::_Tmap_traits<unsigned char,std::vector<CPoint,std::allocator<CPoint> >,std::less<unsigned char>,std::allocator<std::pair<unsigned char const ,std::vector<CPoint,std::allocator<CPoint> > > >,0>::_Tmap_traits<unsigned char,std::vector<CPoint,std::allocator<CPoint> >,std::less<unsigned char>,std::allocator<std::pair<unsigned char const ,std::vector<CPoint,std::allocator<CPoint> > > >,0>, COMDAT
; _this$ = ecx

; 38   : 		{	// construct with specified comparator

  00000	8b c1		 mov	 eax, ecx

; 39   : 		}

  00002	c2 04 00	 ret	 4
??0?$_Tmap_traits@EV?$vector@VCPoint@@V?$allocator@VCPoint@@@std@@@std@@U?$less@E@2@V?$allocator@U?$pair@$$CBEV?$vector@VCPoint@@V?$allocator@VCPoint@@@std@@@std@@@std@@@2@$0A@@std@@QAE@U?$less@E@1@@Z ENDP ; std::_Tmap_traits<unsigned char,std::vector<CPoint,std::allocator<CPoint> >,std::less<unsigned char>,std::allocator<std::pair<unsigned char const ,std::vector<CPoint,std::allocator<CPoint> > > >,0>::_Tmap_traits<unsigned char,std::vector<CPoint,std::allocator<CPoint> >,std::less<unsigned char>,std::allocator<std::pair<unsigned char const ,std::vector<CPoint,std::allocator<CPoint> > > >,0>
_TEXT	ENDS
PUBLIC	??$?0Viterator@?$_Tree@V?$_Tmap_traits@EV?$vector@VCPoint@@V?$allocator@VCPoint@@@std@@@std@@U?$less@E@2@V?$allocator@U?$pair@$$CBEV?$vector@VCPoint@@V?$allocator@VCPoint@@@std@@@std@@@std@@@2@$0A@@std@@@std@@_N@?$pair@Viterator@?$_Tree@V?$_Tmap_traits@EV?$vector@VCPoint@@V?$allocator@VCPoint@@@std@@@std@@U?$less@E@2@V?$allocator@U?$pair@$$CBEV?$vector@VCPoint@@V?$allocator@VCPoint@@@std@@@std@@@std@@@2@$0A@@std@@@std@@H@std@@QAE@ABU?$pair@Viterator@?$_Tree@V?$_Tmap_traits@EV?$vector@VCPoint@@V?$allocator@VCPoint@@@std@@@std@@U?$less@E@2@V?$allocator@U?$pair@$$CBEV?$vector@VCPoint@@V?$allocator@VCPoint@@@std@@@std@@@std@@@2@$0A@@std@@@std@@_N@1@@Z ; std::pair<std::_Tree<std::_Tmap_traits<unsigned char,std::vector<CPoint,std::allocator<CPoint> >,std::less<unsigned char>,std::allocator<std::pair<unsigned char const ,std::vector<CPoint,std::allocator<CPoint> > > >,0> >::iterator,int>::pair<std::_Tree<std::_Tmap_traits<unsigned char,std::vector<CPoint,std::allocator<CPoint> >,std::less<unsigned char>,std::allocator<std::pair<unsigned char const ,std::vector<CPoint,std::allocator<CPoint> > > >,0> >::iterator,int><std::_Tree<std::_Tmap_traits<unsigned char,std::vector<CPoint,std::allocator<CPoint> >,std::less<unsigned char>,std::allocator<std::pair<unsigned char const ,std::vector<CPoint,std::allocator<CPoint> > > >,0> >::iterator,bool>
; Function compile flags: /Ogty
; File c:\program files\microsoft visual studio .net 2003\vc7\include\utility
;	COMDAT ??$?0Viterator@?$_Tree@V?$_Tmap_traits@EV?$vector@VCPoint@@V?$allocator@VCPoint@@@std@@@std@@U?$less@E@2@V?$allocator@U?$pair@$$CBEV?$vector@VCPoint@@V?$allocator@VCPoint@@@std@@@std@@@std@@@2@$0A@@std@@@std@@_N@?$pair@Viterator@?$_Tree@V?$_Tmap_traits@EV?$vector@VCPoint@@V?$allocator@VCPoint@@@std@@@std@@U?$less@E@2@V?$allocator@U?$pair@$$CBEV?$vector@VCPoint@@V?$allocator@VCPoint@@@std@@@std@@@std@@@2@$0A@@std@@@std@@H@std@@QAE@ABU?$pair@Viterator@?$_Tree@V?$_Tmap_traits@EV?$vector@VCPoint@@V?$allocator@VCPoint@@@std@@@std@@U?$less@E@2@V?$allocator@U?$pair@$$CBEV?$vector@VCPoint@@V?$allocator@VCPoint@@@std@@@std@@@std@@@2@$0A@@std@@@std@@_N@1@@Z
_TEXT	SEGMENT
__Right$ = 8						; size = 4
??$?0Viterator@?$_Tree@V?$_Tmap_traits@EV?$vector@VCPoint@@V?$allocator@VCPoint@@@std@@@std@@U?$less@E@2@V?$allocator@U?$pair@$$CBEV?$vector@VCPoint@@V?$allocator@VCPoint@@@std@@@std@@@std@@@2@$0A@@std@@@std@@_N@?$pair@Viterator@?$_Tree@V?$_Tmap_traits@EV?$vector@VCPoint@@V?$allocator@VCPoint@@@std@@@std@@U?$less@E@2@V?$allocator@U?$pair@$$CBEV?$vector@VCPoint@@V?$allocator@VCPoint@@@std@@@std@@@std@@@2@$0A@@std@@@std@@H@std@@QAE@ABU?$pair@Viterator@?$_Tree@V?$_Tmap_traits@EV?$vector@VCPoint@@V?$allocator@VCPoint@@@std@@@std@@U?$less@E@2@V?$allocator@U?$pair@$$CBEV?$vector@VCPoint@@V?$allocator@VCPoint@@@std@@@std@@@std@@@2@$0A@@std@@@std@@_N@1@@Z PROC NEAR ; std::pair<std::_Tree<std::_Tmap_traits<unsigned char,std::vector<CPoint,std::allocator<CPoint> >,std::less<unsigned char>,std::allocator<std::pair<unsigned char const ,std::vector<CPoint,std::allocator<CPoint> > > >,0> >::iterator,int>::pair<std::_Tree<std::_Tmap_traits<unsigned char,std::vector<CPoint,std::allocator<CPoint> >,std::less<unsigned char>,std::allocator<std::pair<unsigned char const ,std::vector<CPoint,std::allocator<CPoint> > > >,0> >::iterator,int><std::_Tree<std::_Tmap_traits<unsigned char,std::vector<CPoint,std::allocator<CPoint> >,std::less<unsigned char>,std::allocator<std::pair<unsigned char const ,std::vector<CPoint,std::allocator<CPoint> > > >,0> >::iterator,bool>, COMDAT
; _this$ = ecx

; 41   : 		{	// construct from compatible pair

  00000	8b c1		 mov	 eax, ecx
  00002	8b 4c 24 04	 mov	 ecx, DWORD PTR __Right$[esp-4]
  00006	8b 11		 mov	 edx, DWORD PTR [ecx]
  00008	89 10		 mov	 DWORD PTR [eax], edx
  0000a	0f b6 49 04	 movzx	 ecx, BYTE PTR [ecx+4]
  0000e	89 48 04	 mov	 DWORD PTR [eax+4], ecx

; 42   : 		}

  00011	c2 04 00	 ret	 4
??$?0Viterator@?$_Tree@V?$_Tmap_traits@EV?$vector@VCPoint@@V?$allocator@VCPoint@@@std@@@std@@U?$less@E@2@V?$allocator@U?$pair@$$CBEV?$vector@VCPoint@@V?$allocator@VCPoint@@@std@@@std@@@std@@@2@$0A@@std@@@std@@_N@?$pair@Viterator@?$_Tree@V?$_Tmap_traits@EV?$vector@VCPoint@@V?$allocator@VCPoint@@@std@@@std@@U?$less@E@2@V?$allocator@U?$pair@$$CBEV?$vector@VCPoint@@V?$allocator@VCPoint@@@std@@@std@@@std@@@2@$0A@@std@@@std@@H@std@@QAE@ABU?$pair@Viterator@?$_Tree@V?$_Tmap_traits@EV?$vector@VCPoint@@V?$allocator@VCPoint@@@std@@@std@@U?$less@E@2@V?$allocator@U?$pair@$$CBEV?$vector@VCPoint@@V?$allocator@VCPoint@@@std@@@std@@@std@@@2@$0A@@std@@@std@@_N@1@@Z ENDP ; std::pair<std::_Tree<std::_Tmap_traits<unsigned char,std::vector<CPoint,std::allocator<CPoint> >,std::less<unsigned char>,std::allocator<std::pair<unsigned char const ,std::vector<CPoint,std::allocator<CPoint> > > >,0> >::iterator,int>::pair<std::_Tree<std::_Tmap_traits<unsigned char,std::vector<CPoint,std::allocator<CPoint> >,std::less<unsigned char>,std::allocator<std::pair<unsigned char const ,std::vector<CPoint,std::allocator<CPoint> > > >,0> >::iterator,int><std::_Tree<std::_Tmap_traits<unsigned char,std::vector<CPoint,std::allocator<CPoint> >,std::less<unsigned char>,std::allocator<std::pair<unsigned char const ,std::vector<CPoint,std::allocator<CPoint> > > >,0> >::iterator,bool>
_TEXT	ENDS
PUBLIC	??$_Destroy@PAU_Node@?$_Tree_nod@V?$_Tmap_traits@EV?$vector@VCPoint@@V?$allocator@VCPoint@@@std@@@std@@U?$less@E@2@V?$allocator@U?$pair@$$CBEV?$vector@VCPoint@@V?$allocator@VCPoint@@@std@@@std@@@std@@@2@$0A@@std@@@std@@@std@@YAXPAPAU_Node@?$_Tree_nod@V?$_Tmap_traits@EV?$vector@VCPoint@@V?$allocator@VCPoint@@@std@@@std@@U?$less@E@2@V?$allocator@U?$pair@$$CBEV?$vector@VCPoint@@V?$allocator@VCPoint@@@std@@@std@@@std@@@2@$0A@@std@@@0@@Z ; std::_Destroy<std::_Tree_nod<std::_Tmap_traits<unsigned char,std::vector<CPoint,std::allocator<CPoint> >,std::less<unsigned char>,std::allocator<std::pair<unsigned char const ,std::vector<CPoint,std::allocator<CPoint> > > >,0> >::_Node *>
; Function compile flags: /Ogty
; File c:\program files\microsoft visual studio .net 2003\vc7\include\xmemory
;	COMDAT ??$_Destroy@PAU_Node@?$_Tree_nod@V?$_Tmap_traits@EV?$vector@VCPoint@@V?$allocator@VCPoint@@@std@@@std@@U?$less@E@2@V?$allocator@U?$pair@$$CBEV?$vector@VCPoint@@V?$allocator@VCPoint@@@std@@@std@@@std@@@2@$0A@@std@@@std@@@std@@YAXPAPAU_Node@?$_Tree_nod@V?$_Tmap_traits@EV?$vector@VCPoint@@V?$allocator@VCPoint@@@std@@@std@@U?$less@E@2@V?$allocator@U?$pair@$$CBEV?$vector@VCPoint@@V?$allocator@VCPoint@@@std@@@std@@@std@@@2@$0A@@std@@@0@@Z
_TEXT	SEGMENT
__Ptr$ = 8						; size = 4
??$_Destroy@PAU_Node@?$_Tree_nod@V?$_Tmap_traits@EV?$vector@VCPoint@@V?$allocator@VCPoint@@@std@@@std@@U?$less@E@2@V?$allocator@U?$pair@$$CBEV?$vector@VCPoint@@V?$allocator@VCPoint@@@std@@@std@@@std@@@2@$0A@@std@@@std@@@std@@YAXPAPAU_Node@?$_Tree_nod@V?$_Tmap_traits@EV?$vector@VCPoint@@V?$allocator@VCPoint@@@std@@@std@@U?$less@E@2@V?$allocator@U?$pair@$$CBEV?$vector@VCPoint@@V?$allocator@VCPoint@@@std@@@std@@@std@@@2@$0A@@std@@@0@@Z PROC NEAR ; std::_Destroy<std::_Tree_nod<std::_Tmap_traits<unsigned char,std::vector<CPoint,std::allocator<CPoint> >,std::less<unsigned char>,std::allocator<std::pair<unsigned char const ,std::vector<CPoint,std::allocator<CPoint> > > >,0> >::_Node *>, COMDAT

; 49   : 	_DESTRUCTOR(_Ty, _Ptr);
; 50   : 	}

  00000	c3		 ret	 0
??$_Destroy@PAU_Node@?$_Tree_nod@V?$_Tmap_traits@EV?$vector@VCPoint@@V?$allocator@VCPoint@@@std@@@std@@U?$less@E@2@V?$allocator@U?$pair@$$CBEV?$vector@VCPoint@@V?$allocator@VCPoint@@@std@@@std@@@std@@@2@$0A@@std@@@std@@@std@@YAXPAPAU_Node@?$_Tree_nod@V?$_Tmap_traits@EV?$vector@VCPoint@@V?$allocator@VCPoint@@@std@@@std@@U?$less@E@2@V?$allocator@U?$pair@$$CBEV?$vector@VCPoint@@V?$allocator@VCPoint@@@std@@@std@@@std@@@2@$0A@@std@@@0@@Z ENDP ; std::_Destroy<std::_Tree_nod<std::_Tmap_traits<unsigned char,std::vector<CPoint,std::allocator<CPoint> >,std::less<unsigned char>,std::allocator<std::pair<unsigned char const ,std::vector<CPoint,std::allocator<CPoint> > > >,0> >::_Node *>
_TEXT	ENDS
PUBLIC	??$fill@PAVCPoint@@V1@@std@@YAXPAVCPoint@@0ABV1@@Z ; std::fill<CPoint *,CPoint>
; Function compile flags: /Ogty
; File c:\program files\microsoft visual studio .net 2003\vc7\include\xutility
;	COMDAT ??$fill@PAVCPoint@@V1@@std@@YAXPAVCPoint@@0ABV1@@Z
_TEXT	SEGMENT
__First$ = 8						; size = 4
__Last$ = 12						; size = 4
__Val$ = 16						; size = 4
??$fill@PAVCPoint@@V1@@std@@YAXPAVCPoint@@0ABV1@@Z PROC NEAR ; std::fill<CPoint *,CPoint>, COMDAT

; 1135 : 	for (; _First != _Last; ++_First)

  00000	8b 44 24 04	 mov	 eax, DWORD PTR __First$[esp-4]
  00004	8b 54 24 08	 mov	 edx, DWORD PTR __Last$[esp-4]
  00008	3b c2		 cmp	 eax, edx
  0000a	74 17		 je	 SHORT $L232267
  0000c	8b 4c 24 0c	 mov	 ecx, DWORD PTR __Val$[esp-4]
  00010	56		 push	 esi
$L232265:

; 1136 : 		*_First = _Val;

  00011	8b 31		 mov	 esi, DWORD PTR [ecx]
  00013	89 30		 mov	 DWORD PTR [eax], esi
  00015	8b 71 04	 mov	 esi, DWORD PTR [ecx+4]
  00018	89 70 04	 mov	 DWORD PTR [eax+4], esi
  0001b	83 c0 08	 add	 eax, 8
  0001e	3b c2		 cmp	 eax, edx
  00020	75 ef		 jne	 SHORT $L232265
  00022	5e		 pop	 esi
$L232267:

; 1137 : 	}

  00023	c3		 ret	 0
??$fill@PAVCPoint@@V1@@std@@YAXPAVCPoint@@0ABV1@@Z ENDP	; std::fill<CPoint *,CPoint>
_TEXT	ENDS
PUBLIC	??$_Allocate@VCPoint@@@std@@YAPAVCPoint@@IPAV1@@Z ; std::_Allocate<CPoint>
EXTRN	??2@YAPAXI@Z:NEAR				; operator new
; Function compile flags: /Ogty
; File c:\program files\microsoft visual studio .net 2003\vc7\include\xmemory
;	COMDAT ??$_Allocate@VCPoint@@@std@@YAPAVCPoint@@IPAV1@@Z
_TEXT	SEGMENT
__Count$ = 8						; size = 4
___formal$ = 12						; size = 4
??$_Allocate@VCPoint@@@std@@YAPAVCPoint@@IPAV1@@Z PROC NEAR ; std::_Allocate<CPoint>, COMDAT

; 34   : 	return ((_Ty _FARQ *)operator new(_Count * sizeof (_Ty)));

  00000	8b 44 24 04	 mov	 eax, DWORD PTR __Count$[esp-4]
  00004	8d 0c c5 00 00
	00 00		 lea	 ecx, DWORD PTR [eax*8]
  0000b	51		 push	 ecx
  0000c	e8 00 00 00 00	 call	 ??2@YAPAXI@Z		; operator new
  00011	83 c4 04	 add	 esp, 4

; 35   : 	}

  00014	c3		 ret	 0
??$_Allocate@VCPoint@@@std@@YAPAVCPoint@@IPAV1@@Z ENDP	; std::_Allocate<CPoint>
_TEXT	ENDS
PUBLIC	??$?0U?$pair@$$CBEV?$vector@VCPoint@@V?$allocator@VCPoint@@@std@@@std@@@std@@@?$allocator@PAU_Node@?$_Tree_nod@V?$_Tmap_traits@EV?$vector@VCPoint@@V?$allocator@VCPoint@@@std@@@std@@U?$less@E@2@V?$allocator@U?$pair@$$CBEV?$vector@VCPoint@@V?$allocator@VCPoint@@@std@@@std@@@std@@@2@$0A@@std@@@std@@@std@@QAE@ABV?$allocator@U?$pair@$$CBEV?$vector@VCPoint@@V?$allocator@VCPoint@@@std@@@std@@@std@@@1@@Z ; std::allocator<std::_Tree_nod<std::_Tmap_traits<unsigned char,std::vector<CPoint,std::allocator<CPoint> >,std::less<unsigned char>,std::allocator<std::pair<unsigned char const ,std::vector<CPoint,std::allocator<CPoint> > > >,0> >::_Node *>::allocator<std::_Tree_nod<std::_Tmap_traits<unsigned char,std::vector<CPoint,std::allocator<CPoint> >,std::less<unsigned char>,std::allocator<std::pair<unsigned char const ,std::vector<CPoint,std::allocator<CPoint> > > >,0> >::_Node *><std::pair<unsigned char const ,std::vector<CPoint,std::allocator<CPoint> > > >
; Function compile flags: /Ogty
;	COMDAT ??$?0U?$pair@$$CBEV?$vector@VCPoint@@V?$allocator@VCPoint@@@std@@@std@@@std@@@?$allocator@PAU_Node@?$_Tree_nod@V?$_Tmap_traits@EV?$vector@VCPoint@@V?$allocator@VCPoint@@@std@@@std@@U?$less@E@2@V?$allocator@U?$pair@$$CBEV?$vector@VCPoint@@V?$allocator@VCPoint@@@std@@@std@@@std@@@2@$0A@@std@@@std@@@std@@QAE@ABV?$allocator@U?$pair@$$CBEV?$vector@VCPoint@@V?$allocator@VCPoint@@@std@@@std@@@std@@@1@@Z
_TEXT	SEGMENT
___formal$ = 8						; size = 4
??$?0U?$pair@$$CBEV?$vector@VCPoint@@V?$allocator@VCPoint@@@std@@@std@@@std@@@?$allocator@PAU_Node@?$_Tree_nod@V?$_Tmap_traits@EV?$vector@VCPoint@@V?$allocator@VCPoint@@@std@@@std@@U?$less@E@2@V?$allocator@U?$pair@$$CBEV?$vector@VCPoint@@V?$allocator@VCPoint@@@std@@@std@@@std@@@2@$0A@@std@@@std@@@std@@QAE@ABV?$allocator@U?$pair@$$CBEV?$vector@VCPoint@@V?$allocator@VCPoint@@@std@@@std@@@std@@@1@@Z PROC NEAR ; std::allocator<std::_Tree_nod<std::_Tmap_traits<unsigned char,std::vector<CPoint,std::allocator<CPoint> >,std::less<unsigned char>,std::allocator<std::pair<unsigned char const ,std::vector<CPoint,std::allocator<CPoint> > > >,0> >::_Node *>::allocator<std::_Tree_nod<std::_Tmap_traits<unsigned char,std::vector<CPoint,std::allocator<CPoint> >,std::less<unsigned char>,std::allocator<std::pair<unsigned char const ,std::vector<CPoint,std::allocator<CPoint> > > >,0> >::_Node *><std::pair<unsigned char const ,std::vector<CPoint,std::allocator<CPoint> > > >, COMDAT
; _this$ = ecx

; 120  : 		allocator(const allocator<_Other>&)

  00000	8b c1		 mov	 eax, ecx

; 121  : 		{	// construct from a related allocator (do nothing)
; 122  : 		}

  00002	c2 04 00	 ret	 4
??$?0U?$pair@$$CBEV?$vector@VCPoint@@V?$allocator@VCPoint@@@std@@@std@@@std@@@?$allocator@PAU_Node@?$_Tree_nod@V?$_Tmap_traits@EV?$vector@VCPoint@@V?$allocator@VCPoint@@@std@@@std@@U?$less@E@2@V?$allocator@U?$pair@$$CBEV?$vector@VCPoint@@V?$allocator@VCPoint@@@std@@@std@@@std@@@2@$0A@@std@@@std@@@std@@QAE@ABV?$allocator@U?$pair@$$CBEV?$vector@VCPoint@@V?$allocator@VCPoint@@@std@@@std@@@std@@@1@@Z ENDP ; std::allocator<std::_Tree_nod<std::_Tmap_traits<unsigned char,std::vector<CPoint,std::allocator<CPoint> >,std::less<unsigned char>,std::allocator<std::pair<unsigned char const ,std::vector<CPoint,std::allocator<CPoint> > > >,0> >::_Node *>::allocator<std::_Tree_nod<std::_Tmap_traits<unsigned char,std::vector<CPoint,std::allocator<CPoint> >,std::less<unsigned char>,std::allocator<std::pair<unsigned char const ,std::vector<CPoint,std::allocator<CPoint> > > >,0> >::_Node *><std::pair<unsigned char const ,std::vector<CPoint,std::allocator<CPoint> > > >
_TEXT	ENDS
PUBLIC	??$_Allocate@U_Node@?$_Tree_nod@V?$_Tmap_traits@EV?$vector@VCPoint@@V?$allocator@VCPoint@@@std@@@std@@U?$less@E@2@V?$allocator@U?$pair@$$CBEV?$vector@VCPoint@@V?$allocator@VCPoint@@@std@@@std@@@std@@@2@$0A@@std@@@std@@@std@@YAPAU_Node@?$_Tree_nod@V?$_Tmap_traits@EV?$vector@VCPoint@@V?$allocator@VCPoint@@@std@@@std@@U?$less@E@2@V?$allocator@U?$pair@$$CBEV?$vector@VCPoint@@V?$allocator@VCPoint@@@std@@@std@@@std@@@2@$0A@@std@@@0@IPAU120@@Z ; std::_Allocate<std::_Tree_nod<std::_Tmap_traits<unsigned char,std::vector<CPoint,std::allocator<CPoint> >,std::less<unsigned char>,std::allocator<std::pair<unsigned char const ,std::vector<CPoint,std::allocator<CPoint> > > >,0> >::_Node>
; Function compile flags: /Ogty
;	COMDAT ??$_Allocate@U_Node@?$_Tree_nod@V?$_Tmap_traits@EV?$vector@VCPoint@@V?$allocator@VCPoint@@@std@@@std@@U?$less@E@2@V?$allocator@U?$pair@$$CBEV?$vector@VCPoint@@V?$allocator@VCPoint@@@std@@@std@@@std@@@2@$0A@@std@@@std@@@std@@YAPAU_Node@?$_Tree_nod@V?$_Tmap_traits@EV?$vector@VCPoint@@V?$allocator@VCPoint@@@std@@@std@@U?$less@E@2@V?$allocator@U?$pair@$$CBEV?$vector@VCPoint@@V?$allocator@VCPoint@@@std@@@std@@@std@@@2@$0A@@std@@@0@IPAU120@@Z
_TEXT	SEGMENT
__Count$ = 8						; size = 4
___formal$ = 12						; size = 4
??$_Allocate@U_Node@?$_Tree_nod@V?$_Tmap_traits@EV?$vector@VCPoint@@V?$allocator@VCPoint@@@std@@@std@@U?$less@E@2@V?$allocator@U?$pair@$$CBEV?$vector@VCPoint@@V?$allocator@VCPoint@@@std@@@std@@@std@@@2@$0A@@std@@@std@@@std@@YAPAU_Node@?$_Tree_nod@V?$_Tmap_traits@EV?$vector@VCPoint@@V?$allocator@VCPoint@@@std@@@std@@U?$less@E@2@V?$allocator@U?$pair@$$CBEV?$vector@VCPoint@@V?$allocator@VCPoint@@@std@@@std@@@std@@@2@$0A@@std@@@0@IPAU120@@Z PROC NEAR ; std::_Allocate<std::_Tree_nod<std::_Tmap_traits<unsigned char,std::vector<CPoint,std::allocator<CPoint> >,std::less<unsigned char>,std::allocator<std::pair<unsigned char const ,std::vector<CPoint,std::allocator<CPoint> > > >,0> >::_Node>, COMDAT

; 34   : 	return ((_Ty _FARQ *)operator new(_Count * sizeof (_Ty)));

  00000	8b 44 24 04	 mov	 eax, DWORD PTR __Count$[esp-4]
  00004	8d 04 c0	 lea	 eax, DWORD PTR [eax+eax*8]
  00007	c1 e0 02	 shl	 eax, 2
  0000a	50		 push	 eax
  0000b	e8 00 00 00 00	 call	 ??2@YAPAXI@Z		; operator new
  00010	83 c4 04	 add	 esp, 4

; 35   : 	}

  00013	c3		 ret	 0
??$_Allocate@U_Node@?$_Tree_nod@V?$_Tmap_traits@EV?$vector@VCPoint@@V?$allocator@VCPoint@@@std@@@std@@U?$less@E@2@V?$allocator@U?$pair@$$CBEV?$vector@VCPoint@@V?$allocator@VCPoint@@@std@@@std@@@std@@@2@$0A@@std@@@std@@@std@@YAPAU_Node@?$_Tree_nod@V?$_Tmap_traits@EV?$vector@VCPoint@@V?$allocator@VCPoint@@@std@@@std@@U?$less@E@2@V?$allocator@U?$pair@$$CBEV?$vector@VCPoint@@V?$allocator@VCPoint@@@std@@@std@@@std@@@2@$0A@@std@@@0@IPAU120@@Z ENDP ; std::_Allocate<std::_Tree_nod<std::_Tmap_traits<unsigned char,std::vector<CPoint,std::allocator<CPoint> >,std::less<unsigned char>,std::allocator<std::pair<unsigned char const ,std::vector<CPoint,std::allocator<CPoint> > > >,0> >::_Node>
_TEXT	ENDS
PUBLIC	??$?0U?$pair@$$CBEV?$vector@VCPoint@@V?$allocator@VCPoint@@@std@@@std@@@std@@@?$allocator@U_Node@?$_Tree_nod@V?$_Tmap_traits@EV?$vector@VCPoint@@V?$allocator@VCPoint@@@std@@@std@@U?$less@E@2@V?$allocator@U?$pair@$$CBEV?$vector@VCPoint@@V?$allocator@VCPoint@@@std@@@std@@@std@@@2@$0A@@std@@@std@@@std@@QAE@ABV?$allocator@U?$pair@$$CBEV?$vector@VCPoint@@V?$allocator@VCPoint@@@std@@@std@@@std@@@1@@Z ; std::allocator<std::_Tree_nod<std::_Tmap_traits<unsigned char,std::vector<CPoint,std::allocator<CPoint> >,std::less<unsigned char>,std::allocator<std::pair<unsigned char const ,std::vector<CPoint,std::allocator<CPoint> > > >,0> >::_Node>::allocator<std::_Tree_nod<std::_Tmap_traits<unsigned char,std::vector<CPoint,std::allocator<CPoint> >,std::less<unsigned char>,std::allocator<std::pair<unsigned char const ,std::vector<CPoint,std::allocator<CPoint> > > >,0> >::_Node><std::pair<unsigned char const ,std::vector<CPoint,std::allocator<CPoint> > > >
; Function compile flags: /Ogty
;	COMDAT ??$?0U?$pair@$$CBEV?$vector@VCPoint@@V?$allocator@VCPoint@@@std@@@std@@@std@@@?$allocator@U_Node@?$_Tree_nod@V?$_Tmap_traits@EV?$vector@VCPoint@@V?$allocator@VCPoint@@@std@@@std@@U?$less@E@2@V?$allocator@U?$pair@$$CBEV?$vector@VCPoint@@V?$allocator@VCPoint@@@std@@@std@@@std@@@2@$0A@@std@@@std@@@std@@QAE@ABV?$allocator@U?$pair@$$CBEV?$vector@VCPoint@@V?$allocator@VCPoint@@@std@@@std@@@std@@@1@@Z
_TEXT	SEGMENT
___formal$ = 8						; size = 4
??$?0U?$pair@$$CBEV?$vector@VCPoint@@V?$allocator@VCPoint@@@std@@@std@@@std@@@?$allocator@U_Node@?$_Tree_nod@V?$_Tmap_traits@EV?$vector@VCPoint@@V?$allocator@VCPoint@@@std@@@std@@U?$less@E@2@V?$allocator@U?$pair@$$CBEV?$vector@VCPoint@@V?$allocator@VCPoint@@@std@@@std@@@std@@@2@$0A@@std@@@std@@@std@@QAE@ABV?$allocator@U?$pair@$$CBEV?$vector@VCPoint@@V?$allocator@VCPoint@@@std@@@std@@@std@@@1@@Z PROC NEAR ; std::allocator<std::_Tree_nod<std::_Tmap_traits<unsigned char,std::vector<CPoint,std::allocator<CPoint> >,std::less<unsigned char>,std::allocator<std::pair<unsigned char const ,std::vector<CPoint,std::allocator<CPoint> > > >,0> >::_Node>::allocator<std::_Tree_nod<std::_Tmap_traits<unsigned char,std::vector<CPoint,std::allocator<CPoint> >,std::less<unsigned char>,std::allocator<std::pair<unsigned char const ,std::vector<CPoint,std::allocator<CPoint> > > >,0> >::_Node><std::pair<unsigned char const ,std::vector<CPoint,std::allocator<CPoint> > > >, COMDAT
; _this$ = ecx

; 120  : 		allocator(const allocator<_Other>&)

  00000	8b c1		 mov	 eax, ecx

; 121  : 		{	// construct from a related allocator (do nothing)
; 122  : 		}

  00002	c2 04 00	 ret	 4
??$?0U?$pair@$$CBEV?$vector@VCPoint@@V?$allocator@VCPoint@@@std@@@std@@@std@@@?$allocator@U_Node@?$_Tree_nod@V?$_Tmap_traits@EV?$vector@VCPoint@@V?$allocator@VCPoint@@@std@@@std@@U?$less@E@2@V?$allocator@U?$pair@$$CBEV?$vector@VCPoint@@V?$allocator@VCPoint@@@std@@@std@@@std@@@2@$0A@@std@@@std@@@std@@QAE@ABV?$allocator@U?$pair@$$CBEV?$vector@VCPoint@@V?$allocator@VCPoint@@@std@@@std@@@std@@@1@@Z ENDP ; std::allocator<std::_Tree_nod<std::_Tmap_traits<unsigned char,std::vector<CPoint,std::allocator<CPoint> >,std::less<unsigned char>,std::allocator<std::pair<unsigned char const ,std::vector<CPoint,std::allocator<CPoint> > > >,0> >::_Node>::allocator<std::_Tree_nod<std::_Tmap_traits<unsigned char,std::vector<CPoint,std::allocator<CPoint> >,std::less<unsigned char>,std::allocator<std::pair<unsigned char const ,std::vector<CPoint,std::allocator<CPoint> > > >,0> >::_Node><std::pair<unsigned char const ,std::vector<CPoint,std::allocator<CPoint> > > >
_TEXT	ENDS
PUBLIC	??$_Construct@PAU_Node@?$_Tree_nod@V?$_Tmap_traits@EV?$vector@VCPoint@@V?$allocator@VCPoint@@@std@@@std@@U?$less@E@2@V?$allocator@U?$pair@$$CBEV?$vector@VCPoint@@V?$allocator@VCPoint@@@std@@@std@@@std@@@2@$0A@@std@@@std@@PAU123@@std@@YAXPAPAU_Node@?$_Tree_nod@V?$_Tmap_traits@EV?$vector@VCPoint@@V?$allocator@VCPoint@@@std@@@std@@U?$less@E@2@V?$allocator@U?$pair@$$CBEV?$vector@VCPoint@@V?$allocator@VCPoint@@@std@@@std@@@std@@@2@$0A@@std@@@0@ABQAU120@@Z ; std::_Construct<std::_Tree_nod<std::_Tmap_traits<unsigned char,std::vector<CPoint,std::allocator<CPoint> >,std::less<unsigned char>,std::allocator<std::pair<unsigned char const ,std::vector<CPoint,std::allocator<CPoint> > > >,0> >::_Node *,std::_Tree_nod<std::_Tmap_traits<unsigned char,std::vector<CPoint,std::allocator<CPoint> >,std::less<unsigned char>,std::allocator<std::pair<unsigned char const ,std::vector<CPoint,std::allocator<CPoint> > > >,0> >::_Node *>
; Function compile flags: /Ogty
;	COMDAT ??$_Construct@PAU_Node@?$_Tree_nod@V?$_Tmap_traits@EV?$vector@VCPoint@@V?$allocator@VCPoint@@@std@@@std@@U?$less@E@2@V?$allocator@U?$pair@$$CBEV?$vector@VCPoint@@V?$allocator@VCPoint@@@std@@@std@@@std@@@2@$0A@@std@@@std@@PAU123@@std@@YAXPAPAU_Node@?$_Tree_nod@V?$_Tmap_traits@EV?$vector@VCPoint@@V?$allocator@VCPoint@@@std@@@std@@U?$less@E@2@V?$allocator@U?$pair@$$CBEV?$vector@VCPoint@@V?$allocator@VCPoint@@@std@@@std@@@std@@@2@$0A@@std@@@0@ABQAU120@@Z
_TEXT	SEGMENT
__Ptr$ = 8						; size = 4
__Val$ = 12						; size = 4
??$_Construct@PAU_Node@?$_Tree_nod@V?$_Tmap_traits@EV?$vector@VCPoint@@V?$allocator@VCPoint@@@std@@@std@@U?$less@E@2@V?$allocator@U?$pair@$$CBEV?$vector@VCPoint@@V?$allocator@VCPoint@@@std@@@std@@@std@@@2@$0A@@std@@@std@@PAU123@@std@@YAXPAPAU_Node@?$_Tree_nod@V?$_Tmap_traits@EV?$vector@VCPoint@@V?$allocator@VCPoint@@@std@@@std@@U?$less@E@2@V?$allocator@U?$pair@$$CBEV?$vector@VCPoint@@V?$allocator@VCPoint@@@std@@@std@@@std@@@2@$0A@@std@@@0@ABQAU120@@Z PROC NEAR ; std::_Construct<std::_Tree_nod<std::_Tmap_traits<unsigned char,std::vector<CPoint,std::allocator<CPoint> >,std::less<unsigned char>,std::allocator<std::pair<unsigned char const ,std::vector<CPoint,std::allocator<CPoint> > > >,0> >::_Node *,std::_Tree_nod<std::_Tmap_traits<unsigned char,std::vector<CPoint,std::allocator<CPoint> >,std::less<unsigned char>,std::allocator<std::pair<unsigned char const ,std::vector<CPoint,std::allocator<CPoint> > > >,0> >::_Node *>, COMDAT

; 42   : 	new ((void _FARQ *)_Ptr) _T1(_Val);

  00000	8b 44 24 04	 mov	 eax, DWORD PTR __Ptr$[esp-4]
  00004	85 c0		 test	 eax, eax
  00006	74 08		 je	 SHORT $L233722
  00008	8b 4c 24 08	 mov	 ecx, DWORD PTR __Val$[esp-4]
  0000c	8b 11		 mov	 edx, DWORD PTR [ecx]
  0000e	89 10		 mov	 DWORD PTR [eax], edx
$L233722:

; 43   : 	}

  00010	c3		 ret	 0
??$_Construct@PAU_Node@?$_Tree_nod@V?$_Tmap_traits@EV?$vector@VCPoint@@V?$allocator@VCPoint@@@std@@@std@@U?$less@E@2@V?$allocator@U?$pair@$$CBEV?$vector@VCPoint@@V?$allocator@VCPoint@@@std@@@std@@@std@@@2@$0A@@std@@@std@@PAU123@@std@@YAXPAPAU_Node@?$_Tree_nod@V?$_Tmap_traits@EV?$vector@VCPoint@@V?$allocator@VCPoint@@@std@@@std@@U?$less@E@2@V?$allocator@U?$pair@$$CBEV?$vector@VCPoint@@V?$allocator@VCPoint@@@std@@@std@@@std@@@2@$0A@@std@@@0@ABQAU120@@Z ENDP ; std::_Construct<std::_Tree_nod<std::_Tmap_traits<unsigned char,std::vector<CPoint,std::allocator<CPoint> >,std::less<unsigned char>,std::allocator<std::pair<unsigned char const ,std::vector<CPoint,std::allocator<CPoint> > > >,0> >::_Node *,std::_Tree_nod<std::_Tmap_traits<unsigned char,std::vector<CPoint,std::allocator<CPoint> >,std::less<unsigned char>,std::allocator<std::pair<unsigned char const ,std::vector<CPoint,std::allocator<CPoint> > > >,0> >::_Node *>
_TEXT	ENDS
PUBLIC	??$_Ptr_cat@PAVCPoint@@PAV1@@std@@YA?AU_Nonscalar_ptr_iterator_tag@0@AAPAVCPoint@@0@Z ; std::_Ptr_cat<CPoint *,CPoint *>
; Function compile flags: /Ogty
; File c:\program files\microsoft visual studio .net 2003\vc7\include\xutility
;	COMDAT ??$_Ptr_cat@PAVCPoint@@PAV1@@std@@YA?AU_Nonscalar_ptr_iterator_tag@0@AAPAVCPoint@@0@Z
_TEXT	SEGMENT
__Cat$ = -1						; size = 1
___formal$ = 8						; size = 4
___formal$ = 12						; size = 4
??$_Ptr_cat@PAVCPoint@@PAV1@@std@@YA?AU_Nonscalar_ptr_iterator_tag@0@AAPAVCPoint@@0@Z PROC NEAR ; std::_Ptr_cat<CPoint *,CPoint *>, COMDAT

; 211  : 	{	// return pointer category from arbitrary arguments

  00000	51		 push	 ecx

; 212  : 	_Nonscalar_ptr_iterator_tag _Cat;
; 213  : 	return (_Cat);

  00001	8a 44 24 03	 mov	 al, BYTE PTR __Cat$[esp+4]

; 214  : 	}

  00005	59		 pop	 ecx
  00006	c3		 ret	 0
??$_Ptr_cat@PAVCPoint@@PAV1@@std@@YA?AU_Nonscalar_ptr_iterator_tag@0@AAPAVCPoint@@0@Z ENDP ; std::_Ptr_cat<CPoint *,CPoint *>
_TEXT	ENDS
PUBLIC	??$_Copy_opt@PAVCPoint@@PAV1@@std@@YAPAVCPoint@@PAV1@00U_Nonscalar_ptr_iterator_tag@0@@Z ; std::_Copy_opt<CPoint *,CPoint *>
; Function compile flags: /Ogty
;	COMDAT ??$_Copy_opt@PAVCPoint@@PAV1@@std@@YAPAVCPoint@@PAV1@00U_Nonscalar_ptr_iterator_tag@0@@Z
_TEXT	SEGMENT
__First$ = 8						; size = 4
__Last$ = 12						; size = 4
__Dest$ = 16						; size = 4
___formal$ = 20						; size = 1
??$_Copy_opt@PAVCPoint@@PAV1@@std@@YAPAVCPoint@@PAV1@00U_Nonscalar_ptr_iterator_tag@0@@Z PROC NEAR ; std::_Copy_opt<CPoint *,CPoint *>, COMDAT

; 1021 : 	for (; _First != _Last; ++_Dest, ++_First)

  00000	8b 4c 24 04	 mov	 ecx, DWORD PTR __First$[esp-4]
  00004	8b 54 24 08	 mov	 edx, DWORD PTR __Last$[esp-4]
  00008	3b ca		 cmp	 ecx, edx
  0000a	8b 44 24 0c	 mov	 eax, DWORD PTR __Dest$[esp-4]
  0000e	74 16		 je	 SHORT $L232475
  00010	56		 push	 esi
$L232473:

; 1022 : 		*_Dest = *_First;

  00011	8b 31		 mov	 esi, DWORD PTR [ecx]
  00013	89 30		 mov	 DWORD PTR [eax], esi
  00015	8b 71 04	 mov	 esi, DWORD PTR [ecx+4]
  00018	89 70 04	 mov	 DWORD PTR [eax+4], esi
  0001b	83 c1 08	 add	 ecx, 8
  0001e	83 c0 08	 add	 eax, 8
  00021	3b ca		 cmp	 ecx, edx
  00023	75 ec		 jne	 SHORT $L232473
  00025	5e		 pop	 esi
$L232475:

; 1023 : 	return (_Dest);
; 1024 : 	}

  00026	c3		 ret	 0
??$_Copy_opt@PAVCPoint@@PAV1@@std@@YAPAVCPoint@@PAV1@00U_Nonscalar_ptr_iterator_tag@0@@Z ENDP ; std::_Copy_opt<CPoint *,CPoint *>
_TEXT	ENDS
PUBLIC	??$_Copy_backward_opt@PAVCPoint@@PAV1@@std@@YAPAVCPoint@@PAV1@00U_Nonscalar_ptr_iterator_tag@0@@Z ; std::_Copy_backward_opt<CPoint *,CPoint *>
; Function compile flags: /Ogty
;	COMDAT ??$_Copy_backward_opt@PAVCPoint@@PAV1@@std@@YAPAVCPoint@@PAV1@00U_Nonscalar_ptr_iterator_tag@0@@Z
_TEXT	SEGMENT
__First$ = 8						; size = 4
__Last$ = 12						; size = 4
__Dest$ = 16						; size = 4
___formal$ = 20						; size = 1
??$_Copy_backward_opt@PAVCPoint@@PAV1@@std@@YAPAVCPoint@@PAV1@00U_Nonscalar_ptr_iterator_tag@0@@Z PROC NEAR ; std::_Copy_backward_opt<CPoint *,CPoint *>, COMDAT

; 1049 : 	while (_First != _Last)

  00000	8b 54 24 04	 mov	 edx, DWORD PTR __First$[esp-4]
  00004	8b 4c 24 08	 mov	 ecx, DWORD PTR __Last$[esp-4]
  00008	3b d1		 cmp	 edx, ecx
  0000a	8b 44 24 0c	 mov	 eax, DWORD PTR __Dest$[esp-4]
  0000e	74 17		 je	 SHORT $L232532
  00010	56		 push	 esi
$L232531:

; 1050 : 		*--_Dest = *--_Last;

  00011	8b 71 f8	 mov	 esi, DWORD PTR [ecx-8]
  00014	83 e9 08	 sub	 ecx, 8
  00017	83 e8 08	 sub	 eax, 8
  0001a	3b ca		 cmp	 ecx, edx
  0001c	89 30		 mov	 DWORD PTR [eax], esi
  0001e	8b 71 04	 mov	 esi, DWORD PTR [ecx+4]
  00021	89 70 04	 mov	 DWORD PTR [eax+4], esi
  00024	75 eb		 jne	 SHORT $L232531
  00026	5e		 pop	 esi
$L232532:

; 1051 : 	return (_Dest);
; 1052 : 	}

  00027	c3		 ret	 0
??$_Copy_backward_opt@PAVCPoint@@PAV1@@std@@YAPAVCPoint@@PAV1@00U_Nonscalar_ptr_iterator_tag@0@@Z ENDP ; std::_Copy_backward_opt<CPoint *,CPoint *>
_TEXT	ENDS
PUBLIC	??0CPoint@@QAE@XZ				; CPoint::CPoint
; Function compile flags: /Ogty
; File c:\program files\microsoft visual studio .net 2003\vc7\atlmfc\include\atltypes.inl
;	COMDAT ??0CPoint@@QAE@XZ
_TEXT	SEGMENT
??0CPoint@@QAE@XZ PROC NEAR				; CPoint::CPoint, COMDAT
; _this$ = ecx

; 61   : 	{ /* random filled */ }

  00000	8b c1		 mov	 eax, ecx
  00002	c3		 ret	 0
??0CPoint@@QAE@XZ ENDP					; CPoint::CPoint
_TEXT	ENDS
PUBLIC	??0CPoint@@QAE@HH@Z				; CPoint::CPoint
; Function compile flags: /Ogty
;	COMDAT ??0CPoint@@QAE@HH@Z
_TEXT	SEGMENT
_initX$ = 8						; size = 4
_initY$ = 12						; size = 4
??0CPoint@@QAE@HH@Z PROC NEAR				; CPoint::CPoint, COMDAT
; _this$ = ecx

; 63   : 	{ x = initX; y = initY; }

  00000	8b 54 24 08	 mov	 edx, DWORD PTR _initY$[esp-4]
  00004	8b c1		 mov	 eax, ecx
  00006	8b 4c 24 04	 mov	 ecx, DWORD PTR _initX$[esp-4]
  0000a	89 08		 mov	 DWORD PTR [eax], ecx
  0000c	89 50 04	 mov	 DWORD PTR [eax+4], edx
  0000f	c2 08 00	 ret	 8
??0CPoint@@QAE@HH@Z ENDP				; CPoint::CPoint
_TEXT	ENDS
PUBLIC	??$_Ptr_cat@Vconst_iterator@?$vector@VCPoint@@V?$allocator@VCPoint@@@std@@@std@@PAVCPoint@@@std@@YA?AU_Nonscalar_ptr_iterator_tag@0@AAVconst_iterator@?$vector@VCPoint@@V?$allocator@VCPoint@@@std@@@0@AAPAVCPoint@@@Z ; std::_Ptr_cat<std::vector<CPoint,std::allocator<CPoint> >::const_iterator,CPoint *>
; Function compile flags: /Ogty
; File c:\program files\microsoft visual studio .net 2003\vc7\include\xutility
;	COMDAT ??$_Ptr_cat@Vconst_iterator@?$vector@VCPoint@@V?$allocator@VCPoint@@@std@@@std@@PAVCPoint@@@std@@YA?AU_Nonscalar_ptr_iterator_tag@0@AAVconst_iterator@?$vector@VCPoint@@V?$allocator@VCPoint@@@std@@@0@AAPAVCPoint@@@Z
_TEXT	SEGMENT
__Cat$ = -1						; size = 1
___formal$ = 8						; size = 4
___formal$ = 12						; size = 4
??$_Ptr_cat@Vconst_iterator@?$vector@VCPoint@@V?$allocator@VCPoint@@@std@@@std@@PAVCPoint@@@std@@YA?AU_Nonscalar_ptr_iterator_tag@0@AAVconst_iterator@?$vector@VCPoint@@V?$allocator@VCPoint@@@std@@@0@AAPAVCPoint@@@Z PROC NEAR ; std::_Ptr_cat<std::vector<CPoint,std::allocator<CPoint> >::const_iterator,CPoint *>, COMDAT

; 211  : 	{	// return pointer category from arbitrary arguments

  00000	51		 push	 ecx

; 212  : 	_Nonscalar_ptr_iterator_tag _Cat;
; 213  : 	return (_Cat);

  00001	8a 44 24 03	 mov	 al, BYTE PTR __Cat$[esp+4]

; 214  : 	}

  00005	59		 pop	 ecx
  00006	c3		 ret	 0
??$_Ptr_cat@Vconst_iterator@?$vector@VCPoint@@V?$allocator@VCPoint@@@std@@@std@@PAVCPoint@@@std@@YA?AU_Nonscalar_ptr_iterator_tag@0@AAVconst_iterator@?$vector@VCPoint@@V?$allocator@VCPoint@@@std@@@0@AAPAVCPoint@@@Z ENDP ; std::_Ptr_cat<std::vector<CPoint,std::allocator<CPoint> >::const_iterator,CPoint *>
_TEXT	ENDS
PUBLIC	??$_Construct@VCPoint@@V1@@std@@YAXPAVCPoint@@ABV1@@Z ; std::_Construct<CPoint,CPoint>
; Function compile flags: /Ogty
; File c:\program files\microsoft visual studio .net 2003\vc7\include\xmemory
;	COMDAT ??$_Construct@VCPoint@@V1@@std@@YAXPAVCPoint@@ABV1@@Z
_TEXT	SEGMENT
__Ptr$ = 8						; size = 4
__Val$ = 12						; size = 4
??$_Construct@VCPoint@@V1@@std@@YAXPAVCPoint@@ABV1@@Z PROC NEAR ; std::_Construct<CPoint,CPoint>, COMDAT

; 42   : 	new ((void _FARQ *)_Ptr) _T1(_Val);

  00000	8b 44 24 04	 mov	 eax, DWORD PTR __Ptr$[esp-4]
  00004	85 c0		 test	 eax, eax
  00006	74 0e		 je	 SHORT $L233755
  00008	8b 4c 24 08	 mov	 ecx, DWORD PTR __Val$[esp-4]
  0000c	8b 11		 mov	 edx, DWORD PTR [ecx]
  0000e	89 10		 mov	 DWORD PTR [eax], edx
  00010	8b 49 04	 mov	 ecx, DWORD PTR [ecx+4]
  00013	89 48 04	 mov	 DWORD PTR [eax+4], ecx
$L233755:

; 43   : 	}

  00016	c3		 ret	 0
??$_Construct@VCPoint@@V1@@std@@YAXPAVCPoint@@ABV1@@Z ENDP ; std::_Construct<CPoint,CPoint>
_TEXT	ENDS
PUBLIC	??$_Destroy@VCPoint@@@std@@YAXPAVCPoint@@@Z	; std::_Destroy<CPoint>
; Function compile flags: /Ogty
;	COMDAT ??$_Destroy@VCPoint@@@std@@YAXPAVCPoint@@@Z
_TEXT	SEGMENT
__Ptr$ = 8						; size = 4
??$_Destroy@VCPoint@@@std@@YAXPAVCPoint@@@Z PROC NEAR	; std::_Destroy<CPoint>, COMDAT

; 49   : 	_DESTRUCTOR(_Ty, _Ptr);
; 50   : 	}

  00000	c3		 ret	 0
??$_Destroy@VCPoint@@@std@@YAXPAVCPoint@@@Z ENDP	; std::_Destroy<CPoint>
_TEXT	ENDS
PUBLIC	??Econst_iterator@?$vector@VCPoint@@V?$allocator@VCPoint@@@std@@@std@@QAEAAV012@XZ ; std::vector<CPoint,std::allocator<CPoint> >::const_iterator::operator++
; Function compile flags: /Ogty
; File c:\program files\microsoft visual studio .net 2003\vc7\include\vector
;	COMDAT ??Econst_iterator@?$vector@VCPoint@@V?$allocator@VCPoint@@@std@@@std@@QAEAAV012@XZ
_TEXT	SEGMENT
??Econst_iterator@?$vector@VCPoint@@V?$allocator@VCPoint@@@std@@@std@@QAEAAV012@XZ PROC NEAR ; std::vector<CPoint,std::allocator<CPoint> >::const_iterator::operator++, COMDAT
; _this$ = ecx

; 91   : 			{	// preincrement

  00000	8b c1		 mov	 eax, ecx

; 92   : 			++_Myptr;

  00002	83 00 08	 add	 DWORD PTR [eax], 8

; 93   : 			return (*this);
; 94   : 			}

  00005	c3		 ret	 0
??Econst_iterator@?$vector@VCPoint@@V?$allocator@VCPoint@@@std@@@std@@QAEAAV012@XZ ENDP ; std::vector<CPoint,std::allocator<CPoint> >::const_iterator::operator++
_TEXT	ENDS
PUBLIC	??8const_iterator@?$vector@VCPoint@@V?$allocator@VCPoint@@@std@@@std@@QBE_NABV012@@Z ; std::vector<CPoint,std::allocator<CPoint> >::const_iterator::operator==
; Function compile flags: /Ogty
;	COMDAT ??8const_iterator@?$vector@VCPoint@@V?$allocator@VCPoint@@@std@@@std@@QBE_NABV012@@Z
_TEXT	SEGMENT
__Right$ = 8						; size = 4
??8const_iterator@?$vector@VCPoint@@V?$allocator@VCPoint@@@std@@@std@@QBE_NABV012@@Z PROC NEAR ; std::vector<CPoint,std::allocator<CPoint> >::const_iterator::operator==, COMDAT
; _this$ = ecx

; 153  : 
; 154  : 
; 155  : 			return (_Myptr == _Right._Myptr);

  00000	8b 01		 mov	 eax, DWORD PTR [ecx]
  00002	8b 4c 24 04	 mov	 ecx, DWORD PTR __Right$[esp-4]
  00006	2b 01		 sub	 eax, DWORD PTR [ecx]
  00008	f7 d8		 neg	 eax
  0000a	1b c0		 sbb	 eax, eax
  0000c	40		 inc	 eax

; 156  : 			}

  0000d	c2 04 00	 ret	 4
??8const_iterator@?$vector@VCPoint@@V?$allocator@VCPoint@@@std@@@std@@QBE_NABV012@@Z ENDP ; std::vector<CPoint,std::allocator<CPoint> >::const_iterator::operator==
_TEXT	ENDS
PUBLIC	?assign@?$char_traits@D@std@@SAXAADABD@Z	; std::char_traits<char>::assign
; Function compile flags: /Ogty
; File c:\program files\microsoft visual studio .net 2003\vc7\include\iosfwd
;	COMDAT ?assign@?$char_traits@D@std@@SAXAADABD@Z
_TEXT	SEGMENT
__Left$ = 8						; size = 4
__Right$ = 12						; size = 4
?assign@?$char_traits@D@std@@SAXAADABD@Z PROC NEAR	; std::char_traits<char>::assign, COMDAT

; 331  : 		_Left = _Right;

  00000	8b 44 24 08	 mov	 eax, DWORD PTR __Right$[esp-4]
  00004	8a 08		 mov	 cl, BYTE PTR [eax]
  00006	8b 54 24 04	 mov	 edx, DWORD PTR __Left$[esp-4]
  0000a	88 0a		 mov	 BYTE PTR [edx], cl

; 332  : 		}

  0000c	c3		 ret	 0
?assign@?$char_traits@D@std@@SAXAADABD@Z ENDP		; std::char_traits<char>::assign
_TEXT	ENDS
PUBLIC	?length@?$char_traits@D@std@@SAIPBD@Z		; std::char_traits<char>::length
; Function compile flags: /Ogty
;	COMDAT ?length@?$char_traits@D@std@@SAIPBD@Z
_TEXT	SEGMENT
__First$ = 8						; size = 4
?length@?$char_traits@D@std@@SAIPBD@Z PROC NEAR		; std::char_traits<char>::length, COMDAT

; 352  : 		return (::strlen(_First));

  00000	8b 44 24 04	 mov	 eax, DWORD PTR __First$[esp-4]
  00004	8d 50 01	 lea	 edx, DWORD PTR [eax+1]
$L233775:
  00007	8a 08		 mov	 cl, BYTE PTR [eax]
  00009	40		 inc	 eax
  0000a	84 c9		 test	 cl, cl
  0000c	75 f9		 jne	 SHORT $L233775
  0000e	2b c2		 sub	 eax, edx

; 353  : 		}

  00010	c3		 ret	 0
?length@?$char_traits@D@std@@SAIPBD@Z ENDP		; std::char_traits<char>::length
_TEXT	ENDS
PUBLIC	?copy@?$char_traits@D@std@@SAPADPADPBDI@Z	; std::char_traits<char>::copy
; Function compile flags: /Ogty
;	COMDAT ?copy@?$char_traits@D@std@@SAPADPADPBDI@Z
_TEXT	SEGMENT
__First1$ = 8						; size = 4
__First2$ = 12						; size = 4
__Count$ = 16						; size = 4
?copy@?$char_traits@D@std@@SAPADPADPBDI@Z PROC NEAR	; std::char_traits<char>::copy, COMDAT

; 358  : 		return ((_Elem *)::memcpy(_First1, _First2, _Count));

  00000	8b 4c 24 0c	 mov	 ecx, DWORD PTR __Count$[esp-4]
  00004	56		 push	 esi
  00005	8b 74 24 0c	 mov	 esi, DWORD PTR __First2$[esp]
  00009	57		 push	 edi
  0000a	8b 7c 24 0c	 mov	 edi, DWORD PTR __First1$[esp+4]
  0000e	8b c1		 mov	 eax, ecx
  00010	8b d7		 mov	 edx, edi
  00012	c1 e9 02	 shr	 ecx, 2
  00015	f3 a5		 rep movsd
  00017	8b c8		 mov	 ecx, eax
  00019	83 e1 03	 and	 ecx, 3
  0001c	f3 a4		 rep movsb
  0001e	5f		 pop	 edi
  0001f	8b c2		 mov	 eax, edx
  00021	5e		 pop	 esi

; 359  : 		}

  00022	c3		 ret	 0
?copy@?$char_traits@D@std@@SAPADPADPBDI@Z ENDP		; std::char_traits<char>::copy
_TEXT	ENDS
PUBLIC	?move@?$char_traits@D@std@@SAPADPADPBDI@Z	; std::char_traits<char>::move
EXTRN	_memmove:NEAR
; Function compile flags: /Ogty
;	COMDAT ?move@?$char_traits@D@std@@SAPADPADPBDI@Z
_TEXT	SEGMENT
__First1$ = 8						; size = 4
__First2$ = 12						; size = 4
__Count$ = 16						; size = 4
?move@?$char_traits@D@std@@SAPADPADPBDI@Z PROC NEAR	; std::char_traits<char>::move, COMDAT

; 370  : 		return ((_Elem *)::memmove(_First1, _First2, _Count));

  00000	e9 00 00 00 00	 jmp	 _memmove
?move@?$char_traits@D@std@@SAPADPADPBDI@Z ENDP		; std::char_traits<char>::move
_TEXT	ENDS
PUBLIC	??0D3DXVECTOR3@@QAE@XZ				; D3DXVECTOR3::D3DXVECTOR3
; Function compile flags: /Ogty
; File c:\documents and settings\test\mes documents\source\virtuos_v17\build\program\dx_sdk\d3dx9math.h
;	COMDAT ??0D3DXVECTOR3@@QAE@XZ
_TEXT	SEGMENT
??0D3DXVECTOR3@@QAE@XZ PROC NEAR			; D3DXVECTOR3::D3DXVECTOR3, COMDAT
; _this$ = ecx

; 165  :     D3DXVECTOR3() {};

  00000	8b c1		 mov	 eax, ecx
  00002	c3		 ret	 0
??0D3DXVECTOR3@@QAE@XZ ENDP				; D3DXVECTOR3::D3DXVECTOR3
_TEXT	ENDS
PUBLIC	??0D3DXVECTOR3@@QAE@MMM@Z			; D3DXVECTOR3::D3DXVECTOR3
EXTRN	__fltused:NEAR
; Function compile flags: /Ogty
; File c:\documents and settings\test\mes documents\source\virtuos_v17\build\program\dx_sdk\d3dx9math.inl
;	COMDAT ??0D3DXVECTOR3@@QAE@MMM@Z
_TEXT	SEGMENT
_fx$ = 8						; size = 4
_fy$ = 12						; size = 4
_fz$ = 16						; size = 4
??0D3DXVECTOR3@@QAE@MMM@Z PROC NEAR			; D3DXVECTOR3::D3DXVECTOR3, COMDAT
; _this$ = ecx

; 300  :     x = fx;
; 301  :     y = fy;

  00000	8b 54 24 08	 mov	 edx, DWORD PTR _fy$[esp-4]
  00004	8b c1		 mov	 eax, ecx
  00006	8b 4c 24 04	 mov	 ecx, DWORD PTR _fx$[esp-4]
  0000a	89 08		 mov	 DWORD PTR [eax], ecx

; 302  :     z = fz;

  0000c	8b 4c 24 0c	 mov	 ecx, DWORD PTR _fz$[esp-4]
  00010	89 50 04	 mov	 DWORD PTR [eax+4], edx
  00013	89 48 08	 mov	 DWORD PTR [eax+8], ecx

; 303  : }

  00016	c2 0c 00	 ret	 12			; 0000000cH
??0D3DXVECTOR3@@QAE@MMM@Z ENDP				; D3DXVECTOR3::D3DXVECTOR3
_TEXT	ENDS
PUBLIC	?IsDelete@CObj@@QAEHXZ				; CObj::IsDelete
; Function compile flags: /Ogty
; File c:\documents and settings\test\mes documents\source\virtuos_v17\build\program\_common\obj.h
;	COMDAT ?IsDelete@CObj@@QAEHXZ
_TEXT	SEGMENT
?IsDelete@CObj@@QAEHXZ PROC NEAR			; CObj::IsDelete, COMDAT
; _this$ = ecx

; 180  : 	BOOL			IsDelete()	{ return (m_dwFlags & OBJ_FLAG_DELETE);  }

  00000	8b 41 04	 mov	 eax, DWORD PTR [ecx+4]
  00003	83 e0 01	 and	 eax, 1
  00006	c3		 ret	 0
?IsDelete@CObj@@QAEHXZ ENDP				; CObj::IsDelete
_TEXT	ENDS
PUBLIC	?GetPos@CObj@@QAE?AUD3DXVECTOR3@@XZ		; CObj::GetPos
; Function compile flags: /Ogty
;	COMDAT ?GetPos@CObj@@QAE?AUD3DXVECTOR3@@XZ
_TEXT	SEGMENT
___$ReturnUdt$ = 8					; size = 4
?GetPos@CObj@@QAE?AUD3DXVECTOR3@@XZ PROC NEAR		; CObj::GetPos, COMDAT
; _this$ = ecx

; 215  : 	D3DXVECTOR3		GetPos()	{ return m_vPos; }

  00000	8b 44 24 04	 mov	 eax, DWORD PTR ___$ReturnUdt$[esp-4]
  00004	81 c1 60 01 00
	00		 add	 ecx, 352		; 00000160H
  0000a	56		 push	 esi
  0000b	8b 31		 mov	 esi, DWORD PTR [ecx]
  0000d	8b d0		 mov	 edx, eax
  0000f	89 32		 mov	 DWORD PTR [edx], esi
  00011	8b 71 04	 mov	 esi, DWORD PTR [ecx+4]
  00014	89 72 04	 mov	 DWORD PTR [edx+4], esi
  00017	8b 49 08	 mov	 ecx, DWORD PTR [ecx+8]
  0001a	89 4a 08	 mov	 DWORD PTR [edx+8], ecx
  0001d	5e		 pop	 esi
  0001e	c2 04 00	 ret	 4
?GetPos@CObj@@QAE?AUD3DXVECTOR3@@XZ ENDP		; CObj::GetPos
_TEXT	ENDS
PUBLIC	?GetWorld@CObj@@QAEPAVCWorld@@XZ		; CObj::GetWorld
; Function compile flags: /Ogty
;	COMDAT ?GetWorld@CObj@@QAEPAVCWorld@@XZ
_TEXT	SEGMENT
?GetWorld@CObj@@QAEPAVCWorld@@XZ PROC NEAR		; CObj::GetWorld, COMDAT
; _this$ = ecx

; 221  : 	CWorld*			GetWorld()	{ return m_pWorld; }

  00000	8b 81 6c 01 00
	00		 mov	 eax, DWORD PTR [ecx+364]
  00006	c3		 ret	 0
?GetWorld@CObj@@QAEPAVCWorld@@XZ ENDP			; CObj::GetWorld
_TEXT	ENDS
PUBLIC	?IsValidObj@@YAHPAVCObj@@@Z			; IsValidObj
; Function compile flags: /Ogty
;	COMDAT ?IsValidObj@@YAHPAVCObj@@@Z
_TEXT	SEGMENT
_pObj$ = 8						; size = 4
?IsValidObj@@YAHPAVCObj@@@Z PROC NEAR			; IsValidObj, COMDAT

; 327  : 	return pObj && ( pObj->IsDelete() == FALSE ); 

  00000	8b 44 24 04	 mov	 eax, DWORD PTR _pObj$[esp-4]
  00004	85 c0		 test	 eax, eax
  00006	74 0c		 je	 SHORT $L233802
  00008	f6 40 04 01	 test	 BYTE PTR [eax+4], 1
  0000c	75 06		 jne	 SHORT $L233802
  0000e	b8 01 00 00 00	 mov	 eax, 1

; 328  : }

  00013	c3		 ret	 0
$L233802:

; 327  : 	return pObj && ( pObj->IsDelete() == FALSE ); 

  00014	33 c0		 xor	 eax, eax

; 328  : }

  00016	c3		 ret	 0
?IsValidObj@@YAHPAVCObj@@@Z ENDP			; IsValidObj
_TEXT	ENDS
PUBLIC	?LOG_RANGE@@YAXPBDHHH@Z				; LOG_RANGE
PUBLIC	??_C@_0BM@HMFGHCP@?$CFs?5min?3?$CFd?0?5max?3?$CFd?0?5index?3?$CFd?$AA@ ; `string'
EXTRN	?Error@@YAPBDPBDZZ:NEAR				; Error
;	COMDAT ??_C@_0BM@HMFGHCP@?$CFs?5min?3?$CFd?0?5max?3?$CFd?0?5index?3?$CFd?$AA@
; File c:\documents and settings\test\mes documents\source\virtuos_v17\build\program\_common\project.h
CONST	SEGMENT
??_C@_0BM@HMFGHCP@?$CFs?5min?3?$CFd?0?5max?3?$CFd?0?5index?3?$CFd?$AA@ DB '%'
	DB	's min:%d, max:%d, index:%d', 00H		; `string'
; Function compile flags: /Ogty
CONST	ENDS
;	COMDAT ?LOG_RANGE@@YAXPBDHHH@Z
_TEXT	SEGMENT
_szMsg$ = 8						; size = 4
_nMin$ = 12						; size = 4
_nMax$ = 16						; size = 4
_nIndex$ = 20						; size = 4
?LOG_RANGE@@YAXPBDHHH@Z PROC NEAR			; LOG_RANGE, COMDAT

; 559  : 	LPCTSTR szErr = Error( _T( "%s min:%d, max:%d, index:%d" ), szMsg, nMin, nMax, nIndex ); 

  00000	8b 44 24 10	 mov	 eax, DWORD PTR _nIndex$[esp-4]
  00004	8b 4c 24 0c	 mov	 ecx, DWORD PTR _nMax$[esp-4]
  00008	8b 54 24 08	 mov	 edx, DWORD PTR _nMin$[esp-4]
  0000c	50		 push	 eax
  0000d	8b 44 24 08	 mov	 eax, DWORD PTR _szMsg$[esp]
  00011	51		 push	 ecx
  00012	52		 push	 edx
  00013	50		 push	 eax
  00014	68 00 00 00 00	 push	 OFFSET FLAT:??_C@_0BM@HMFGHCP@?$CFs?5min?3?$CFd?0?5max?3?$CFd?0?5index?3?$CFd?$AA@
  00019	e8 00 00 00 00	 call	 ?Error@@YAPBDPBDZZ	; Error
  0001e	83 c4 14	 add	 esp, 20			; 00000014H

; 560  : 	ADDERRORMSG( szErr ); 
; 561  : }

  00021	c3		 ret	 0
?LOG_RANGE@@YAXPBDHHH@Z ENDP				; LOG_RANGE
_TEXT	ENDS
PUBLIC	??B?$CSimpleStringT@D$0A@@ATL@@QBEPBDXZ		; ATL::CSimpleStringT<char,0>::operator char const *
; Function compile flags: /Ogty
; File c:\program files\microsoft visual studio .net 2003\vc7\atlmfc\include\atlsimpstr.h
;	COMDAT ??B?$CSimpleStringT@D$0A@@ATL@@QBEPBDXZ
_TEXT	SEGMENT
??B?$CSimpleStringT@D$0A@@ATL@@QBEPBDXZ PROC NEAR	; ATL::CSimpleStringT<char,0>::operator char const *, COMDAT
; _this$ = ecx

; 379  : 		return( m_pszData );

  00000	8b 01		 mov	 eax, DWORD PTR [ecx]

; 380  : 	}

  00002	c3		 ret	 0
??B?$CSimpleStringT@D$0A@@ATL@@QBEPBDXZ ENDP		; ATL::CSimpleStringT<char,0>::operator char const *
_TEXT	ENDS
PUBLIC	?size@?$basic_string@DU?$char_traits@D@std@@V?$allocator@D@2@@std@@QBEIXZ ; std::basic_string<char,std::char_traits<char>,std::allocator<char> >::size
; Function compile flags: /Ogty
; File c:\program files\microsoft visual studio .net 2003\vc7\include\xstring
;	COMDAT ?size@?$basic_string@DU?$char_traits@D@std@@V?$allocator@D@2@@std@@QBEIXZ
_TEXT	SEGMENT
?size@?$basic_string@DU?$char_traits@D@std@@V?$allocator@D@2@@std@@QBEIXZ PROC NEAR ; std::basic_string<char,std::char_traits<char>,std::allocator<char> >::size, COMDAT
; _this$ = ecx

; 1109 : 		return (_Mysize);

  00000	8b 41 14	 mov	 eax, DWORD PTR [ecx+20]

; 1110 : 		}

  00003	c3		 ret	 0
?size@?$basic_string@DU?$char_traits@D@std@@V?$allocator@D@2@@std@@QBEIXZ ENDP ; std::basic_string<char,std::char_traits<char>,std::allocator<char> >::size
_TEXT	ENDS
PUBLIC	?GetSize@?$CFixedArray@UtagColorText@@@@QAEHXZ	; CFixedArray<tagColorText>::GetSize
; Function compile flags: /Ogty
; File c:\documents and settings\test\mes documents\source\virtuos_v17\build\program\_common\data.h
;	COMDAT ?GetSize@?$CFixedArray@UtagColorText@@@@QAEHXZ
_TEXT	SEGMENT
?GetSize@?$CFixedArray@UtagColorText@@@@QAEHXZ PROC NEAR ; CFixedArray<tagColorText>::GetSize, COMDAT
; _this$ = ecx

; 221  : 	int  GetSize() { return m_nMaxIndex; }

  00000	8b 41 18	 mov	 eax, DWORD PTR [ecx+24]
  00003	c3		 ret	 0
?GetSize@?$CFixedArray@UtagColorText@@@@QAEHXZ ENDP	; CFixedArray<tagColorText>::GetSize
_TEXT	ENDS
PUBLIC	?GetString@?$CSimpleStringT@D$0A@@ATL@@QBEPBDXZ	; ATL::CSimpleStringT<char,0>::GetString
; Function compile flags: /Ogty
; File c:\program files\microsoft visual studio .net 2003\vc7\atlmfc\include\atlsimpstr.h
;	COMDAT ?GetString@?$CSimpleStringT@D$0A@@ATL@@QBEPBDXZ
_TEXT	SEGMENT
?GetString@?$CSimpleStringT@D$0A@@ATL@@QBEPBDXZ PROC NEAR ; ATL::CSimpleStringT<char,0>::GetString, COMDAT
; _this$ = ecx

; 510  : 		return( m_pszData );

  00000	8b 01		 mov	 eax, DWORD PTR [ecx]

; 511  : 	}

  00002	c3		 ret	 0
?GetString@?$CSimpleStringT@D$0A@@ATL@@QBEPBDXZ ENDP	; ATL::CSimpleStringT<char,0>::GetString
_TEXT	ENDS
PUBLIC	?StringLength@?$CSimpleStringT@D$0A@@ATL@@SAHPBD@Z ; ATL::CSimpleStringT<char,0>::StringLength
; Function compile flags: /Ogty
;	COMDAT ?StringLength@?$CSimpleStringT@D$0A@@ATL@@SAHPBD@Z
_TEXT	SEGMENT
_psz$ = 8						; size = 4
?StringLength@?$CSimpleStringT@D$0A@@ATL@@SAHPBD@Z PROC NEAR ; ATL::CSimpleStringT<char,0>::StringLength, COMDAT

; 678  : 		if( psz == NULL )

  00000	8b 44 24 04	 mov	 eax, DWORD PTR _psz$[esp-4]
  00004	85 c0		 test	 eax, eax
  00006	75 01		 jne	 SHORT $L219971

; 683  : 	}

  00008	c3		 ret	 0
$L219971:

; 679  : 		{
; 680  : 			return( 0 );
; 681  : 		}
; 682  : 		return( int( strlen( psz ) ) );

  00009	8d 50 01	 lea	 edx, DWORD PTR [eax+1]
  0000c	8d 64 24 00	 npad	 4
$L233825:
  00010	8a 08		 mov	 cl, BYTE PTR [eax]
  00012	40		 inc	 eax
  00013	84 c9		 test	 cl, cl
  00015	75 f9		 jne	 SHORT $L233825
  00017	2b c2		 sub	 eax, edx

; 683  : 	}

  00019	c3		 ret	 0
?StringLength@?$CSimpleStringT@D$0A@@ATL@@SAHPBD@Z ENDP	; ATL::CSimpleStringT<char,0>::StringLength
_TEXT	ENDS
PUBLIC	?GetData@?$CSimpleStringT@D$0A@@ATL@@ABEPAUCStringData@2@XZ ; ATL::CSimpleStringT<char,0>::GetData
; Function compile flags: /Ogty
;	COMDAT ?GetData@?$CSimpleStringT@D$0A@@ATL@@ABEPAUCStringData@2@XZ
_TEXT	SEGMENT
?GetData@?$CSimpleStringT@D$0A@@ATL@@ABEPAUCStringData@2@XZ PROC NEAR ; ATL::CSimpleStringT<char,0>::GetData, COMDAT
; _this$ = ecx

; 731  : 		return( reinterpret_cast< CStringData* >( m_pszData )-1 );

  00000	8b 01		 mov	 eax, DWORD PTR [ecx]
  00002	83 e8 10	 sub	 eax, 16			; 00000010H

; 732  : 	}

  00005	c3		 ret	 0
?GetData@?$CSimpleStringT@D$0A@@ATL@@ABEPAUCStringData@2@XZ ENDP ; ATL::CSimpleStringT<char,0>::GetData
_TEXT	ENDS
PUBLIC	?SetLength@?$CSimpleStringT@D$0A@@ATL@@AAEXH@Z	; ATL::CSimpleStringT<char,0>::SetLength
; Function compile flags: /Ogty
;	COMDAT ?SetLength@?$CSimpleStringT@D$0A@@ATL@@AAEXH@Z
_TEXT	SEGMENT
_nLength$ = 8						; size = 4
?SetLength@?$CSimpleStringT@D$0A@@ATL@@AAEXH@Z PROC NEAR ; ATL::CSimpleStringT<char,0>::SetLength, COMDAT
; _this$ = ecx

; 790  : 		ATLASSERT( nLength >= 0 );
; 791  : 		ATLASSERT( nLength <= GetData()->nAllocLength );
; 792  : 
; 793  : 		if( nLength < 0 || nLength > GetData()->nAllocLength)

  00000	8b 44 24 04	 mov	 eax, DWORD PTR _nLength$[esp-4]
  00004	85 c0		 test	 eax, eax
  00006	7c 13		 jl	 SHORT $L219986
  00008	8b 11		 mov	 edx, DWORD PTR [ecx]
  0000a	3b 42 f8	 cmp	 eax, DWORD PTR [edx-8]
  0000d	7f 0c		 jg	 SHORT $L219986

; 794  : 			AtlThrow(E_INVALIDARG);
; 795  : 			
; 796  : 		GetData()->nDataLength = nLength;

  0000f	89 42 f4	 mov	 DWORD PTR [edx-12], eax

; 797  : 		m_pszData[nLength] = 0;

  00012	8b 09		 mov	 ecx, DWORD PTR [ecx]
  00014	c6 04 08 00	 mov	 BYTE PTR [eax+ecx], 0

; 798  : 	}

  00018	c2 04 00	 ret	 4
$L219986:
  0001b	68 57 00 07 80	 push	 -2147024809		; 80070057H
  00020	e8 00 00 00 00	 call	 ?AtlThrow@ATL@@YGXJ@Z	; ATL::AtlThrow
$L233839:
$L233838:
  00025	cc		 int	 3
?SetLength@?$CSimpleStringT@D$0A@@ATL@@AAEXH@Z ENDP	; ATL::CSimpleStringT<char,0>::SetLength
_TEXT	ENDS
PUBLIC	?FindStringResourceInstance@?$StrTraitMFC@DV?$ChTraitsCRT@D@ATL@@@@SAPAUHINSTANCE__@@I@Z ; StrTraitMFC<char,ATL::ChTraitsCRT<char> >::FindStringResourceInstance
EXTRN	?AfxFindStringResourceHandle@@YGPAUHINSTANCE__@@I@Z:NEAR ; AfxFindStringResourceHandle
; Function compile flags: /Ogty
; File c:\program files\microsoft visual studio .net 2003\vc7\atlmfc\include\afxstr.h
;	COMDAT ?FindStringResourceInstance@?$StrTraitMFC@DV?$ChTraitsCRT@D@ATL@@@@SAPAUHINSTANCE__@@I@Z
_TEXT	SEGMENT
_nID$ = 8						; size = 4
?FindStringResourceInstance@?$StrTraitMFC@DV?$ChTraitsCRT@D@ATL@@@@SAPAUHINSTANCE__@@I@Z PROC NEAR ; StrTraitMFC<char,ATL::ChTraitsCRT<char> >::FindStringResourceInstance, COMDAT

; 45   : 		return( AfxFindStringResourceHandle( nID ) );

  00000	8b 44 24 04	 mov	 eax, DWORD PTR _nID$[esp-4]
  00004	50		 push	 eax
  00005	e8 00 00 00 00	 call	 ?AfxFindStringResourceHandle@@YGPAUHINSTANCE__@@I@Z ; AfxFindStringResourceHandle

; 46   : 	}

  0000a	c3		 ret	 0
?FindStringResourceInstance@?$StrTraitMFC@DV?$ChTraitsCRT@D@ATL@@@@SAPAUHINSTANCE__@@I@Z ENDP ; StrTraitMFC<char,ATL::ChTraitsCRT<char> >::FindStringResourceInstance
_TEXT	ENDS
PUBLIC	?GetDefaultManager@?$StrTraitMFC@DV?$ChTraitsCRT@D@ATL@@@@SAPAUIAtlStringMgr@ATL@@XZ ; StrTraitMFC<char,ATL::ChTraitsCRT<char> >::GetDefaultManager
EXTRN	?AfxGetStringManager@@YGPAUIAtlStringMgr@ATL@@XZ:NEAR ; AfxGetStringManager
; Function compile flags: /Ogty
;	COMDAT ?GetDefaultManager@?$StrTraitMFC@DV?$ChTraitsCRT@D@ATL@@@@SAPAUIAtlStringMgr@ATL@@XZ
_TEXT	SEGMENT
?GetDefaultManager@?$StrTraitMFC@DV?$ChTraitsCRT@D@ATL@@@@SAPAUIAtlStringMgr@ATL@@XZ PROC NEAR ; StrTraitMFC<char,ATL::ChTraitsCRT<char> >::GetDefaultManager, COMDAT

; 50   : 		return( AfxGetStringManager() );

  00000	e9 00 00 00 00	 jmp	 ?AfxGetStringManager@@YGPAUIAtlStringMgr@ATL@@XZ ; AfxGetStringManager
?GetDefaultManager@?$StrTraitMFC@DV?$ChTraitsCRT@D@ATL@@@@SAPAUIAtlStringMgr@ATL@@XZ ENDP ; StrTraitMFC<char,ATL::ChTraitsCRT<char> >::GetDefaultManager
_TEXT	ENDS
PUBLIC	?_Myptr@?$basic_string@DU?$char_traits@D@std@@V?$allocator@D@2@@std@@QBEPBDXZ ; std::basic_string<char,std::char_traits<char>,std::allocator<char> >::_Myptr
; Function compile flags: /Ogty
; File c:\program files\microsoft visual studio .net 2003\vc7\include\xstring
;	COMDAT ?_Myptr@?$basic_string@DU?$char_traits@D@std@@V?$allocator@D@2@@std@@QBEPBDXZ
_TEXT	SEGMENT
?_Myptr@?$basic_string@DU?$char_traits@D@std@@V?$allocator@D@2@@std@@QBEPBDXZ PROC NEAR ; std::basic_string<char,std::char_traits<char>,std::allocator<char> >::_Myptr, COMDAT
; _this$ = ecx

; 1537 : 		return (_BUF_SIZE <= _Myres ? _Bx._Ptr : _Bx._Buf);

  00000	83 79 18 10	 cmp	 DWORD PTR [ecx+24], 16	; 00000010H
  00004	72 04		 jb	 SHORT $L233850
  00006	8b 41 04	 mov	 eax, DWORD PTR [ecx+4]

; 1538 : 		}

  00009	c3		 ret	 0
$L233850:

; 1537 : 		return (_BUF_SIZE <= _Myres ? _Bx._Ptr : _Bx._Buf);

  0000a	8d 41 04	 lea	 eax, DWORD PTR [ecx+4]

; 1538 : 		}

  0000d	c3		 ret	 0
?_Myptr@?$basic_string@DU?$char_traits@D@std@@V?$allocator@D@2@@std@@QBEPBDXZ ENDP ; std::basic_string<char,std::char_traits<char>,std::allocator<char> >::_Myptr
_TEXT	ENDS
PUBLIC	??0?$allocator@D@std@@QAE@XZ			; std::allocator<char>::allocator<char>
; Function compile flags: /Ogty
; File c:\program files\microsoft visual studio .net 2003\vc7\include\xmemory
;	COMDAT ??0?$allocator@D@std@@QAE@XZ
_TEXT	SEGMENT
??0?$allocator@D@std@@QAE@XZ PROC NEAR			; std::allocator<char>::allocator<char>, COMDAT
; _this$ = ecx

; 111  : 	allocator()

  00000	8b c1		 mov	 eax, ecx

; 112  : 		{	// construct default allocator (do nothing)
; 113  : 		}

  00002	c3		 ret	 0
??0?$allocator@D@std@@QAE@XZ ENDP			; std::allocator<char>::allocator<char>
_TEXT	ENDS
PUBLIC	??0?$allocator@D@std@@QAE@ABV01@@Z		; std::allocator<char>::allocator<char>
; Function compile flags: /Ogty
;	COMDAT ??0?$allocator@D@std@@QAE@ABV01@@Z
_TEXT	SEGMENT
___formal$ = 8						; size = 4
??0?$allocator@D@std@@QAE@ABV01@@Z PROC NEAR		; std::allocator<char>::allocator<char>, COMDAT
; _this$ = ecx

; 115  : 	allocator(const allocator<_Ty>&)

  00000	8b c1		 mov	 eax, ecx

; 116  : 		{	// construct by copying (do nothing)
; 117  : 		}

  00002	c2 04 00	 ret	 4
??0?$allocator@D@std@@QAE@ABV01@@Z ENDP			; std::allocator<char>::allocator<char>
_TEXT	ENDS
PUBLIC	?Attach@?$CSimpleStringT@D$0A@@ATL@@AAEXPAUCStringData@2@@Z ; ATL::CSimpleStringT<char,0>::Attach
; Function compile flags: /Ogty
; File c:\program files\microsoft visual studio .net 2003\vc7\atlmfc\include\atlsimpstr.h
;	COMDAT ?Attach@?$CSimpleStringT@D$0A@@ATL@@AAEXPAUCStringData@2@@Z
_TEXT	SEGMENT
_pData$ = 8						; size = 4
?Attach@?$CSimpleStringT@D$0A@@ATL@@AAEXPAUCStringData@2@@Z PROC NEAR ; ATL::CSimpleStringT<char,0>::Attach, COMDAT
; _this$ = ecx

; 712  : 		m_pszData = static_cast< PXSTR >( pData->data() );

  00000	8b 44 24 04	 mov	 eax, DWORD PTR _pData$[esp-4]
  00004	83 c0 10	 add	 eax, 16			; 00000010H
  00007	89 01		 mov	 DWORD PTR [ecx], eax

; 713  : 	}

  00009	c2 04 00	 ret	 4
?Attach@?$CSimpleStringT@D$0A@@ATL@@AAEXPAUCStringData@2@@Z ENDP ; ATL::CSimpleStringT<char,0>::Attach
_TEXT	ENDS
PUBLIC	?GetBaseTypeLength@?$ChTraitsCRT@D@ATL@@SAHPBGH@Z ; ATL::ChTraitsCRT<char>::GetBaseTypeLength
EXTRN	__imp__WideCharToMultiByte@32:NEAR
; Function compile flags: /Ogty
; File c:\program files\microsoft visual studio .net 2003\vc7\atlmfc\include\cstringt.h
;	COMDAT ?GetBaseTypeLength@?$ChTraitsCRT@D@ATL@@SAHPBGH@Z
_TEXT	SEGMENT
_pszSource$ = 8						; size = 4
_nLength$ = 12						; size = 4
?GetBaseTypeLength@?$ChTraitsCRT@D@ATL@@SAHPBGH@Z PROC NEAR ; ATL::ChTraitsCRT<char>::GetBaseTypeLength, COMDAT

; 437  : 		// Returns required buffer length in XCHARs
; 438  : 		return ::WideCharToMultiByte( _AtlGetConversionACP(), 0, pszSource, nLength, NULL, 0, NULL, NULL );

  00000	ff 15 00 00 00
	00		 call	 DWORD PTR ?g_pfnGetThreadACP@ATL@@3P6GIXZA ; ATL::g_pfnGetThreadACP
  00006	8b 4c 24 08	 mov	 ecx, DWORD PTR _nLength$[esp-4]
  0000a	8b 54 24 04	 mov	 edx, DWORD PTR _pszSource$[esp-4]
  0000e	6a 00		 push	 0
  00010	6a 00		 push	 0
  00012	6a 00		 push	 0
  00014	6a 00		 push	 0
  00016	51		 push	 ecx
  00017	52		 push	 edx
  00018	6a 00		 push	 0
  0001a	50		 push	 eax
  0001b	ff 15 00 00 00
	00		 call	 DWORD PTR __imp__WideCharToMultiByte@32

; 439  : 	}

  00021	c3		 ret	 0
?GetBaseTypeLength@?$ChTraitsCRT@D@ATL@@SAHPBGH@Z ENDP	; ATL::ChTraitsCRT<char>::GetBaseTypeLength
_TEXT	ENDS
PUBLIC	?ConvertToBaseType@?$ChTraitsCRT@D@ATL@@SAXPADHPBGH@Z ; ATL::ChTraitsCRT<char>::ConvertToBaseType
; Function compile flags: /Ogty
;	COMDAT ?ConvertToBaseType@?$ChTraitsCRT@D@ATL@@SAXPADHPBGH@Z
_TEXT	SEGMENT
_pszDest$ = 8						; size = 4
_nDestLength$ = 12					; size = 4
_pszSrc$ = 16						; size = 4
_nSrcLength$ = 20					; size = 4
?ConvertToBaseType@?$ChTraitsCRT@D@ATL@@SAXPADHPBGH@Z PROC NEAR ; ATL::ChTraitsCRT<char>::ConvertToBaseType, COMDAT

; 452  : 		// nLen is in XCHARs
; 453  : 		::WideCharToMultiByte( _AtlGetConversionACP(), 0, pszSrc, nSrcLength, pszDest, nDestLength, NULL, NULL );

  00000	8b 44 24 08	 mov	 eax, DWORD PTR _nDestLength$[esp-4]
  00004	8b 4c 24 04	 mov	 ecx, DWORD PTR _pszDest$[esp-4]
  00008	8b 54 24 10	 mov	 edx, DWORD PTR _nSrcLength$[esp-4]
  0000c	6a 00		 push	 0
  0000e	6a 00		 push	 0
  00010	50		 push	 eax
  00011	8b 44 24 18	 mov	 eax, DWORD PTR _pszSrc$[esp+8]
  00015	51		 push	 ecx
  00016	52		 push	 edx
  00017	50		 push	 eax
  00018	6a 00		 push	 0
  0001a	ff 15 00 00 00
	00		 call	 DWORD PTR ?g_pfnGetThreadACP@ATL@@3P6GIXZA ; ATL::g_pfnGetThreadACP
  00020	50		 push	 eax
  00021	ff 15 00 00 00
	00		 call	 DWORD PTR __imp__WideCharToMultiByte@32

; 454  : 	}

  00027	c3		 ret	 0
?ConvertToBaseType@?$ChTraitsCRT@D@ATL@@SAXPADHPBGH@Z ENDP ; ATL::ChTraitsCRT<char>::ConvertToBaseType
_TEXT	ENDS
PUBLIC	?_Myptr@?$basic_string@DU?$char_traits@D@std@@V?$allocator@D@2@@std@@QAEPADXZ ; std::basic_string<char,std::char_traits<char>,std::allocator<char> >::_Myptr
; Function compile flags: /Ogty
; File c:\program files\microsoft visual studio .net 2003\vc7\include\xstring
;	COMDAT ?_Myptr@?$basic_string@DU?$char_traits@D@std@@V?$allocator@D@2@@std@@QAEPADXZ
_TEXT	SEGMENT
?_Myptr@?$basic_string@DU?$char_traits@D@std@@V?$allocator@D@2@@std@@QAEPADXZ PROC NEAR ; std::basic_string<char,std::char_traits<char>,std::allocator<char> >::_Myptr, COMDAT
; _this$ = ecx

; 1532 : 		return (_BUF_SIZE <= _Myres ? _Bx._Ptr : _Bx._Buf);

  00000	83 79 18 10	 cmp	 DWORD PTR [ecx+24], 16	; 00000010H
  00004	72 04		 jb	 SHORT $L233880
  00006	8b 41 04	 mov	 eax, DWORD PTR [ecx+4]

; 1533 : 		}

  00009	c3		 ret	 0
$L233880:

; 1532 : 		return (_BUF_SIZE <= _Myres ? _Bx._Ptr : _Bx._Buf);

  0000a	8d 41 04	 lea	 eax, DWORD PTR [ecx+4]

; 1533 : 		}

  0000d	c3		 ret	 0
?_Myptr@?$basic_string@DU?$char_traits@D@std@@V?$allocator@D@2@@std@@QAEPADXZ ENDP ; std::basic_string<char,std::char_traits<char>,std::allocator<char> >::_Myptr
_TEXT	ENDS
PUBLIC	?deallocate@?$allocator@D@std@@QAEXPADI@Z	; std::allocator<char>::deallocate
; Function compile flags: /Ogty
; File c:\program files\microsoft visual studio .net 2003\vc7\include\xmemory
;	COMDAT ?deallocate@?$allocator@D@std@@QAEXPADI@Z
_TEXT	SEGMENT
__Ptr$ = 8						; size = 4
___formal$ = 12						; size = 4
?deallocate@?$allocator@D@std@@QAEXPADI@Z PROC NEAR	; std::allocator<char>::deallocate, COMDAT
; _this$ = ecx

; 132  : 		operator delete(_Ptr);

  00000	8b 44 24 04	 mov	 eax, DWORD PTR __Ptr$[esp-4]
  00004	50		 push	 eax
  00005	e8 00 00 00 00	 call	 ??3@YAXPAX@Z		; operator delete
  0000a	59		 pop	 ecx

; 133  : 		}

  0000b	c2 08 00	 ret	 8
?deallocate@?$allocator@D@std@@QAEXPADI@Z ENDP		; std::allocator<char>::deallocate
_TEXT	ENDS
PUBLIC	?CopyChars@?$CSimpleStringT@D$0A@@ATL@@SAXPADPBDH@Z ; ATL::CSimpleStringT<char,0>::CopyChars
; Function compile flags: /Ogty
; File c:\program files\microsoft visual studio .net 2003\vc7\atlmfc\include\atlsimpstr.h
;	COMDAT ?CopyChars@?$CSimpleStringT@D$0A@@ATL@@SAXPADPBDH@Z
_TEXT	SEGMENT
_pchDest$ = 8						; size = 4
_pchSrc$ = 12						; size = 4
_nChars$ = 16						; size = 4
?CopyChars@?$CSimpleStringT@D$0A@@ATL@@SAXPADPBDH@Z PROC NEAR ; ATL::CSimpleStringT<char,0>::CopyChars, COMDAT

; 653  : 		memcpy( pchDest, pchSrc, nChars*sizeof( XCHAR ) );

  00000	8b 4c 24 0c	 mov	 ecx, DWORD PTR _nChars$[esp-4]
  00004	56		 push	 esi
  00005	8b 74 24 0c	 mov	 esi, DWORD PTR _pchSrc$[esp]
  00009	8b c1		 mov	 eax, ecx
  0000b	57		 push	 edi
  0000c	8b 7c 24 0c	 mov	 edi, DWORD PTR _pchDest$[esp+4]
  00010	c1 e9 02	 shr	 ecx, 2
  00013	f3 a5		 rep movsd
  00015	8b c8		 mov	 ecx, eax
  00017	83 e1 03	 and	 ecx, 3
  0001a	f3 a4		 rep movsb
  0001c	5f		 pop	 edi
  0001d	5e		 pop	 esi

; 654  : 	}

  0001e	c3		 ret	 0
?CopyChars@?$CSimpleStringT@D$0A@@ATL@@SAXPADPBDH@Z ENDP ; ATL::CSimpleStringT<char,0>::CopyChars
_TEXT	ENDS
PUBLIC	?CopyCharsOverlapped@?$CSimpleStringT@D$0A@@ATL@@SAXPADPBDH@Z ; ATL::CSimpleStringT<char,0>::CopyCharsOverlapped
; Function compile flags: /Ogty
;	COMDAT ?CopyCharsOverlapped@?$CSimpleStringT@D$0A@@ATL@@SAXPADPBDH@Z
_TEXT	SEGMENT
_pchDest$ = 8						; size = 4
_pchSrc$ = 12						; size = 4
_nChars$ = 16						; size = 4
?CopyCharsOverlapped@?$CSimpleStringT@D$0A@@ATL@@SAXPADPBDH@Z PROC NEAR ; ATL::CSimpleStringT<char,0>::CopyCharsOverlapped, COMDAT

; 657  : 		memmove( pchDest, pchSrc, nChars*sizeof( XCHAR ) );

  00000	e9 00 00 00 00	 jmp	 _memmove
?CopyCharsOverlapped@?$CSimpleStringT@D$0A@@ATL@@SAXPADPBDH@Z ENDP ; ATL::CSimpleStringT<char,0>::CopyCharsOverlapped
_TEXT	ENDS
PUBLIC	?ThrowMemoryException@?$CSimpleStringT@D$0A@@ATL@@KAXXZ ; ATL::CSimpleStringT<char,0>::ThrowMemoryException
; Function compile flags: /Ogty
;	COMDAT ?ThrowMemoryException@?$CSimpleStringT@D$0A@@ATL@@KAXXZ
_TEXT	SEGMENT
?ThrowMemoryException@?$CSimpleStringT@D$0A@@ATL@@KAXXZ PROC NEAR ; ATL::CSimpleStringT<char,0>::ThrowMemoryException, COMDAT

; 705  : 		AtlThrow( E_OUTOFMEMORY );

  00000	68 0e 00 07 80	 push	 -2147024882		; 8007000eH
  00005	e8 00 00 00 00	 call	 ?AtlThrow@ATL@@YGXJ@Z	; ATL::AtlThrow
$L233895:
$L233894:
  0000a	cc		 int	 3
?ThrowMemoryException@?$CSimpleStringT@D$0A@@ATL@@KAXXZ ENDP ; ATL::CSimpleStringT<char,0>::ThrowMemoryException
_TEXT	ENDS
PUBLIC	?Fork@?$CSimpleStringT@D$0A@@ATL@@AAEXH@Z	; ATL::CSimpleStringT<char,0>::Fork
; Function compile flags: /Ogty
;	COMDAT ?Fork@?$CSimpleStringT@D$0A@@ATL@@AAEXH@Z
_TEXT	SEGMENT
_this$ = -4						; size = 4
tv181 = 8						; size = 4
_nLength$ = 8						; size = 4
?Fork@?$CSimpleStringT@D$0A@@ATL@@AAEXH@Z PROC NEAR	; ATL::CSimpleStringT<char,0>::Fork, COMDAT
; _this$ = ecx

; 715  : 	{

  00000	51		 push	 ecx
  00001	53		 push	 ebx

; 716  : 		CStringData* pOldData = GetData();

  00002	8b 19		 mov	 ebx, DWORD PTR [ecx]
  00004	83 eb 10	 sub	 ebx, 16			; 00000010H
  00007	55		 push	 ebp

; 717  : 		int nOldLength = pOldData->nDataLength;

  00008	8b 6b 04	 mov	 ebp, DWORD PTR [ebx+4]
  0000b	89 4c 24 08	 mov	 DWORD PTR _this$[esp+12], ecx

; 718  : 		CStringData* pNewData = pOldData->pStringMgr->Clone()->Allocate( nLength, sizeof( XCHAR ) );

  0000f	8b 0b		 mov	 ecx, DWORD PTR [ebx]
  00011	8b 01		 mov	 eax, DWORD PTR [ecx]
  00013	56		 push	 esi
  00014	ff 50 10	 call	 DWORD PTR [eax+16]
  00017	8b 74 24 14	 mov	 esi, DWORD PTR _nLength$[esp+12]
  0001b	8b 10		 mov	 edx, DWORD PTR [eax]
  0001d	6a 01		 push	 1
  0001f	56		 push	 esi
  00020	8b c8		 mov	 ecx, eax
  00022	ff 12		 call	 DWORD PTR [edx]

; 719  : 		if( pNewData == NULL )

  00024	85 c0		 test	 eax, eax
  00026	75 05		 jne	 SHORT $L222762

; 720  : 		{
; 721  : 			ThrowMemoryException();

  00028	e8 00 00 00 00	 call	 ?ThrowMemoryException@?$CSimpleStringT@D$0A@@ATL@@KAXXZ ; ATL::CSimpleStringT<char,0>::ThrowMemoryException
$L233926:
$L222762:

; 722  : 		}
; 723  : 		int nCharsToCopy = ((nOldLength < nLength) ? nOldLength : nLength)+1;  // Copy '\0'

  0002d	3b ee		 cmp	 ebp, esi
  0002f	7d 02		 jge	 SHORT $L233900
  00031	8b f5		 mov	 esi, ebp
$L233900:
  00033	8d 4e 01	 lea	 ecx, DWORD PTR [esi+1]

; 724  : 		CopyChars( PXSTR( pNewData->data() ), PCXSTR( pOldData->data() ), nCharsToCopy );

  00036	8b d1		 mov	 edx, ecx
  00038	57		 push	 edi
  00039	c1 e9 02	 shr	 ecx, 2
  0003c	8d 78 10	 lea	 edi, DWORD PTR [eax+16]
  0003f	89 7c 24 18	 mov	 DWORD PTR tv181[esp+16], edi
  00043	8d 73 10	 lea	 esi, DWORD PTR [ebx+16]
  00046	f3 a5		 rep movsd
  00048	8b ca		 mov	 ecx, edx
  0004a	83 e1 03	 and	 ecx, 3
  0004d	f3 a4		 rep movsb

; 725  : 		pNewData->nDataLength = nOldLength;

  0004f	89 68 04	 mov	 DWORD PTR [eax+4], ebp

; 726  : 		pOldData->Release();

  00052	8d 43 0c	 lea	 eax, DWORD PTR [ebx+12]
  00055	83 c9 ff	 or	 ecx, -1
  00058	f0 0f c1 08	 lock	  xadd	 DWORD PTR [eax], ecx
  0005c	49		 dec	 ecx
  0005d	85 c9		 test	 ecx, ecx
  0005f	5f		 pop	 edi
  00060	7f 08		 jg	 SHORT $L233916
  00062	8b 0b		 mov	 ecx, DWORD PTR [ebx]
  00064	8b 11		 mov	 edx, DWORD PTR [ecx]
  00066	53		 push	 ebx
  00067	ff 52 04	 call	 DWORD PTR [edx+4]
$L233916:

; 727  : 		Attach( pNewData );

  0006a	8b 44 24 14	 mov	 eax, DWORD PTR tv181[esp+12]
  0006e	8b 4c 24 0c	 mov	 ecx, DWORD PTR _this$[esp+16]
  00072	5e		 pop	 esi
  00073	5d		 pop	 ebp
  00074	89 01		 mov	 DWORD PTR [ecx], eax
  00076	5b		 pop	 ebx

; 728  : 	}

  00077	59		 pop	 ecx
  00078	c2 04 00	 ret	 4
$L233925:
?Fork@?$CSimpleStringT@D$0A@@ATL@@AAEXH@Z ENDP		; ATL::CSimpleStringT<char,0>::Fork
_TEXT	ENDS
PUBLIC	?Reallocate@?$CSimpleStringT@D$0A@@ATL@@AAEXH@Z	; ATL::CSimpleStringT<char,0>::Reallocate
; Function compile flags: /Ogty
;	COMDAT ?Reallocate@?$CSimpleStringT@D$0A@@ATL@@AAEXH@Z
_TEXT	SEGMENT
_nLength$ = 8						; size = 4
?Reallocate@?$CSimpleStringT@D$0A@@ATL@@AAEXH@Z PROC NEAR ; ATL::CSimpleStringT<char,0>::Reallocate, COMDAT
; _this$ = ecx

; 776  : 	{

  00000	56		 push	 esi
  00001	57		 push	 edi

; 777  : 		CStringData* pOldData = GetData();
; 778  : 		ATLASSERT( pOldData->nAllocLength < nLength );
; 779  : 		IAtlStringMgr* pStringMgr = pOldData->pStringMgr;
; 780  : 		CStringData* pNewData = pStringMgr->Reallocate( pOldData, nLength, sizeof( XCHAR ) );

  00002	8b 7c 24 0c	 mov	 edi, DWORD PTR _nLength$[esp+4]
  00006	8b f1		 mov	 esi, ecx
  00008	8b 06		 mov	 eax, DWORD PTR [esi]
  0000a	8b 48 f0	 mov	 ecx, DWORD PTR [eax-16]
  0000d	8b 11		 mov	 edx, DWORD PTR [ecx]
  0000f	83 e8 10	 sub	 eax, 16			; 00000010H
  00012	6a 01		 push	 1
  00014	57		 push	 edi
  00015	50		 push	 eax
  00016	ff 52 08	 call	 DWORD PTR [edx+8]

; 781  : 		if( pNewData == NULL )

  00019	85 c0		 test	 eax, eax
  0001b	75 05		 jne	 SHORT $L222771

; 782  : 		{
; 783  : 			ThrowMemoryException();

  0001d	e8 00 00 00 00	 call	 ?ThrowMemoryException@?$CSimpleStringT@D$0A@@ATL@@KAXXZ ; ATL::CSimpleStringT<char,0>::ThrowMemoryException
$L233942:
$L222771:

; 784  : 		}
; 785  : 		Attach( pNewData );

  00022	83 c0 10	 add	 eax, 16			; 00000010H
  00025	5f		 pop	 edi
  00026	89 06		 mov	 DWORD PTR [esi], eax
  00028	5e		 pop	 esi

; 786  : 	}

  00029	c2 04 00	 ret	 4
$L233941:
?Reallocate@?$CSimpleStringT@D$0A@@ATL@@AAEXH@Z ENDP	; ATL::CSimpleStringT<char,0>::Reallocate
_TEXT	ENDS
PUBLIC	?_Inside@?$basic_string@DU?$char_traits@D@std@@V?$allocator@D@2@@std@@IAE_NPBD@Z ; std::basic_string<char,std::char_traits<char>,std::allocator<char> >::_Inside
; Function compile flags: /Ogty
; File c:\program files\microsoft visual studio .net 2003\vc7\include\xstring
;	COMDAT ?_Inside@?$basic_string@DU?$char_traits@D@std@@V?$allocator@D@2@@std@@IAE_NPBD@Z
_TEXT	SEGMENT
__Ptr$ = 8						; size = 4
?_Inside@?$basic_string@DU?$char_traits@D@std@@V?$allocator@D@2@@std@@IAE_NPBD@Z PROC NEAR ; std::basic_string<char,std::char_traits<char>,std::allocator<char> >::_Inside, COMDAT
; _this$ = ecx

; 1494 : 		{	// test if _Ptr points inside string

  00000	56		 push	 esi

; 1495 : 		if (_Ptr < _Myptr() || _Myptr() + _Mysize <= _Ptr)

  00001	8b 71 18	 mov	 esi, DWORD PTR [ecx+24]
  00004	83 fe 10	 cmp	 esi, 16			; 00000010H
  00007	57		 push	 edi
  00008	8d 41 04	 lea	 eax, DWORD PTR [ecx+4]
  0000b	72 04		 jb	 SHORT $L233951
  0000d	8b 10		 mov	 edx, DWORD PTR [eax]
  0000f	eb 02		 jmp	 SHORT $L233952
$L233951:
  00011	8b d0		 mov	 edx, eax
$L233952:
  00013	8b 7c 24 0c	 mov	 edi, DWORD PTR __Ptr$[esp+4]
  00017	3b fa		 cmp	 edi, edx
  00019	72 17		 jb	 SHORT $L222788
  0001b	83 fe 10	 cmp	 esi, 16			; 00000010H
  0001e	72 02		 jb	 SHORT $L233959
  00020	8b 00		 mov	 eax, DWORD PTR [eax]
$L233959:
  00022	8b 49 14	 mov	 ecx, DWORD PTR [ecx+20]
  00025	03 c8		 add	 ecx, eax
  00027	3b cf		 cmp	 ecx, edi
  00029	76 07		 jbe	 SHORT $L222788
  0002b	5f		 pop	 edi

; 1497 : 		else
; 1498 : 			return (true);

  0002c	b0 01		 mov	 al, 1
  0002e	5e		 pop	 esi

; 1499 : 		}

  0002f	c2 04 00	 ret	 4
$L222788:
  00032	5f		 pop	 edi

; 1496 : 			return (false);	// don't ask

  00033	32 c0		 xor	 al, al
  00035	5e		 pop	 esi

; 1499 : 		}

  00036	c2 04 00	 ret	 4
?_Inside@?$basic_string@DU?$char_traits@D@std@@V?$allocator@D@2@@std@@IAE_NPBD@Z ENDP ; std::basic_string<char,std::char_traits<char>,std::allocator<char> >::_Inside
_TEXT	ENDS
PUBLIC	?max_size@?$allocator@D@std@@QBEIXZ		; std::allocator<char>::max_size
; Function compile flags: /Ogty
; File c:\program files\microsoft visual studio .net 2003\vc7\include\xmemory
;	COMDAT ?max_size@?$allocator@D@std@@QBEIXZ
_TEXT	SEGMENT
?max_size@?$allocator@D@std@@QBEIXZ PROC NEAR		; std::allocator<char>::max_size, COMDAT
; _this$ = ecx

; 157  : 		_SIZT _Count = (_SIZT)(-1) / sizeof (_Ty);
; 158  : 		return (0 < _Count ? _Count : 1);

  00000	83 c8 ff	 or	 eax, -1

; 159  : 		}

  00003	c3		 ret	 0
?max_size@?$allocator@D@std@@QBEIXZ ENDP		; std::allocator<char>::max_size
_TEXT	ENDS
PUBLIC	?GetAt@?$CFixedArray@UtagColorText@@@@QAEPAUtagColorText@@K@Z ; CFixedArray<tagColorText>::GetAt
; Function compile flags: /Ogty
; File c:\documents and settings\test\mes documents\source\virtuos_v17\build\program\_common\data.h
;	COMDAT ?GetAt@?$CFixedArray@UtagColorText@@@@QAEPAUtagColorText@@K@Z
_TEXT	SEGMENT
_dwIndex$ = 8						; size = 4
?GetAt@?$CFixedArray@UtagColorText@@@@QAEPAUtagColorText@@K@Z PROC NEAR ; CFixedArray<tagColorText>::GetAt, COMDAT
; _this$ = ecx

; 270  : 	if( dwIndex >= (DWORD)m_nMaxIndex )

  00000	8b 44 24 04	 mov	 eax, DWORD PTR _dwIndex$[esp-4]
  00004	3b 41 18	 cmp	 eax, DWORD PTR [ecx+24]
  00007	72 05		 jb	 SHORT $L224363

; 271  : 		return NULL;

  00009	33 c0		 xor	 eax, eax

; 273  : }

  0000b	c2 04 00	 ret	 4
$L224363:

; 272  : 	return (T*) m_apOffset[ dwIndex ];

  0000e	8b 49 08	 mov	 ecx, DWORD PTR [ecx+8]
  00011	8b 04 81	 mov	 eax, DWORD PTR [ecx+eax*4]

; 273  : }

  00014	c2 04 00	 ret	 4
?GetAt@?$CFixedArray@UtagColorText@@@@QAEPAUtagColorText@@K@Z ENDP ; CFixedArray<tagColorText>::GetAt
_TEXT	ENDS
PUBLIC	??$swap@D@std@@YAXAAD0@Z			; std::swap<char>
; Function compile flags: /Ogty
; File c:\program files\microsoft visual studio .net 2003\vc7\include\utility
;	COMDAT ??$swap@D@std@@YAXAAD0@Z
_TEXT	SEGMENT
__Left$ = 8						; size = 4
__Right$ = 12						; size = 4
??$swap@D@std@@YAXAAD0@Z PROC NEAR			; std::swap<char>, COMDAT

; 15   : 	_Ty _Tmp = _Left;

  00000	8b 44 24 04	 mov	 eax, DWORD PTR __Left$[esp-4]
  00004	8a 08		 mov	 cl, BYTE PTR [eax]
  00006	56		 push	 esi

; 16   : 	_Left = _Right, _Right = _Tmp;

  00007	8b 74 24 0c	 mov	 esi, DWORD PTR __Right$[esp]
  0000b	8a 16		 mov	 dl, BYTE PTR [esi]
  0000d	88 10		 mov	 BYTE PTR [eax], dl
  0000f	88 0e		 mov	 BYTE PTR [esi], cl
  00011	5e		 pop	 esi

; 17   : 	}

  00012	c3		 ret	 0
??$swap@D@std@@YAXAAD0@Z ENDP				; std::swap<char>
_TEXT	ENDS
PUBLIC	??$_Allocate@D@std@@YAPADIPAD@Z			; std::_Allocate<char>
; Function compile flags: /Ogty
; File c:\program files\microsoft visual studio .net 2003\vc7\include\xmemory
;	COMDAT ??$_Allocate@D@std@@YAPADIPAD@Z
_TEXT	SEGMENT
__Count$ = 8						; size = 4
___formal$ = 12						; size = 4
??$_Allocate@D@std@@YAPADIPAD@Z PROC NEAR		; std::_Allocate<char>, COMDAT

; 34   : 	return ((_Ty _FARQ *)operator new(_Count * sizeof (_Ty)));

  00000	8b 44 24 04	 mov	 eax, DWORD PTR __Count$[esp-4]
  00004	50		 push	 eax
  00005	e8 00 00 00 00	 call	 ??2@YAPAXI@Z		; operator new
  0000a	83 c4 04	 add	 esp, 4

; 35   : 	}

  0000d	c3		 ret	 0
??$_Allocate@D@std@@YAPADIPAD@Z ENDP			; std::_Allocate<char>
_TEXT	ENDS
PUBLIC	?IsValidObj@CContinent@@SAHPAVCMover@@@Z	; CContinent::IsValidObj
; Function compile flags: /Ogty
; File c:\documents and settings\test\mes documents\source\virtuos_v17\build\program\_common\continent.cpp
;	COMDAT ?IsValidObj@CContinent@@SAHPAVCMover@@@Z
_TEXT	SEGMENT
_pMover$ = 8						; size = 4
?IsValidObj@CContinent@@SAHPAVCMover@@@Z PROC NEAR	; CContinent::IsValidObj, COMDAT

; 173  : 	return ( ::IsValidObj( pMover ) && pMover->GetWorld() );

  00000	8b 44 24 04	 mov	 eax, DWORD PTR _pMover$[esp-4]
  00004	85 c0		 test	 eax, eax
  00006	74 16		 je	 SHORT $L233977
  00008	f6 40 04 01	 test	 BYTE PTR [eax+4], 1
  0000c	75 10		 jne	 SHORT $L233977
  0000e	8b 88 6c 01 00
	00		 mov	 ecx, DWORD PTR [eax+364]
  00014	85 c9		 test	 ecx, ecx
  00016	74 06		 je	 SHORT $L233977
  00018	b8 01 00 00 00	 mov	 eax, 1

; 174  : }

  0001d	c3		 ret	 0
$L233977:

; 173  : 	return ( ::IsValidObj( pMover ) && pMover->GetWorld() );

  0001e	33 c0		 xor	 eax, eax

; 174  : }

  00020	c3		 ret	 0
?IsValidObj@CContinent@@SAHPAVCMover@@@Z ENDP		; CContinent::IsValidObj
_TEXT	ENDS
PUBLIC	?GetRevivalPos@CContinent@@QAE?AUD3DXVECTOR3@@E@Z ; CContinent::GetRevivalPos
; Function compile flags: /Ogty
;	COMDAT ?GetRevivalPos@CContinent@@QAE?AUD3DXVECTOR3@@E@Z
_TEXT	SEGMENT
$T234007 = -12						; size = 12
$T234006 = -12						; size = 12
$T234005 = -12						; size = 12
$T234003 = -12						; size = 12
$T234001 = -12						; size = 12
___$ReturnUdt$ = 8					; size = 4
_nContinent$ = 12					; size = 1
?GetRevivalPos@CContinent@@QAE?AUD3DXVECTOR3@@E@Z PROC NEAR ; CContinent::GetRevivalPos, COMDAT
; _this$ = ecx

; 271  : 	D3DXVECTOR3 vPos;
; 272  : 	
; 273  : 	switch( nContinent )

  00000	0f b6 44 24 08	 movzx	 eax, BYTE PTR _nContinent$[esp-4]
  00005	83 ec 0c	 sub	 esp, 12			; 0000000cH
  00008	3d f2 00 00 00	 cmp	 eax, 242		; 000000f2H
  0000d	56		 push	 esi
  0000e	57		 push	 edi
  0000f	77 56		 ja	 SHORT $L230875
  00011	0f b6 80 00 00
	00 00		 movzx	 eax, BYTE PTR $L234038[eax]
  00018	ff 24 85 00 00
	00 00		 jmp	 DWORD PTR $L234062[eax*4]
$L230863:

; 274  : 	{
; 275  : 		case CONT_NODATA :			vPos = D3DXVECTOR3( 6968, 0, 3328 );	break;
; 276  : 		case CONT_FLARIS :			vPos = D3DXVECTOR3( 6968, 0, 3328 );	break;
; 277  : 		case CONT_SAINTMORNING :	vPos = D3DXVECTOR3( 8470, 0, 3635 );	break;

  0001f	c7 44 24 08 00
	58 04 46	 mov	 DWORD PTR $T234001[esp+20], 1174689792 ; 46045800H
  00027	c7 44 24 10 00
	30 63 45	 mov	 DWORD PTR $T234001[esp+28], 1164128256 ; 45633000H
  0002f	eb 46		 jmp	 SHORT $L234061
$L230867:

; 278  : 		case CONT_DARKON12 :		vPos = D3DXVECTOR3( 3808, 0, 4455 );	break;
; 279  : 		case CONT_DARKON3 :			vPos = D3DXVECTOR3( 3808, 0, 4455 );	break;

  00031	c7 44 24 08 00
	00 6e 45	 mov	 DWORD PTR $T234003[esp+20], 1164836864 ; 456e0000H
  00039	c7 44 24 10 00
	38 8b 45	 mov	 DWORD PTR $T234003[esp+28], 1166751744 ; 458b3800H
  00041	eb 34		 jmp	 SHORT $L234061
$L230871:

; 280  : 		case CONT_RICIS :			vPos = D3DXVECTOR3( 8470, 0, 3635 );	break;
; 281  : 		case CONT_EAST :			vPos = D3DXVECTOR3( 6959, 0, 3217 );	break;

  00043	c7 44 24 08 00
	78 d9 45	 mov	 DWORD PTR $T234005[esp+20], 1171879936 ; 45d97800H
  0004b	c7 44 24 10 00
	10 49 45	 mov	 DWORD PTR $T234005[esp+28], 1162416128 ; 45491000H
  00053	eb 22		 jmp	 SHORT $L234061
$L230873:

; 282  : 		case CONT_WEST :			vPos = D3DXVECTOR3( 3824, 0, 4456 );	break;

  00055	c7 44 24 08 00
	00 6f 45	 mov	 DWORD PTR $T234006[esp+20], 1164902400 ; 456f0000H
  0005d	c7 44 24 10 00
	40 8b 45	 mov	 DWORD PTR $T234006[esp+28], 1166753792 ; 458b4000H
  00065	eb 10		 jmp	 SHORT $L234061
$L230875:

; 283  : 		
; 284  : 		default :					vPos = D3DXVECTOR3( 6968, 0, 3328 );	break;

  00067	c7 44 24 08 00
	c0 d9 45	 mov	 DWORD PTR $T234007[esp+20], 1171898368 ; 45d9c000H
  0006f	c7 44 24 10 00
	00 50 45	 mov	 DWORD PTR $T234007[esp+28], 1162870784 ; 45500000H
$L234061:

; 285  : 	}
; 286  : 	
; 287  : 	return vPos;

  00077	8b 44 24 18	 mov	 eax, DWORD PTR ___$ReturnUdt$[esp+16]
  0007b	8b 4c 24 08	 mov	 ecx, DWORD PTR $T234007[esp+20]
  0007f	8b 74 24 10	 mov	 esi, DWORD PTR $T234007[esp+28]
  00083	8b f8		 mov	 edi, eax
  00085	89 0f		 mov	 DWORD PTR [edi], ecx
  00087	c7 44 24 0c 00
	00 00 00	 mov	 DWORD PTR $T234007[esp+24], 0
  0008f	8b 54 24 0c	 mov	 edx, DWORD PTR $T234007[esp+24]
  00093	89 57 04	 mov	 DWORD PTR [edi+4], edx
  00096	89 77 08	 mov	 DWORD PTR [edi+8], esi
  00099	5f		 pop	 edi
  0009a	5e		 pop	 esi

; 288  : }

  0009b	83 c4 0c	 add	 esp, 12			; 0000000cH
  0009e	c2 08 00	 ret	 8
  000a1	8d 49 00	 npad	 3
$L234062:
  000a4	00 00 00 00	 DD	 $L230875
  000a8	00 00 00 00	 DD	 $L230863
  000ac	00 00 00 00	 DD	 $L230871
  000b0	00 00 00 00	 DD	 $L230873
  000b4	00 00 00 00	 DD	 $L230867
  000b8	00 00 00 00	 DD	 $L230875
$L234038:
  000bc	00		 DB	 0
  000bd	00		 DB	 0
  000be	01		 DB	 1
  000bf	01		 DB	 1
  000c0	05		 DB	 5
  000c1	05		 DB	 5
  000c2	05		 DB	 5
  000c3	05		 DB	 5
  000c4	05		 DB	 5
  000c5	05		 DB	 5
  000c6	05		 DB	 5
  000c7	05		 DB	 5
  000c8	05		 DB	 5
  000c9	05		 DB	 5
  000ca	05		 DB	 5
  000cb	02		 DB	 2
  000cc	05		 DB	 5
  000cd	05		 DB	 5
  000ce	05		 DB	 5
  000cf	05		 DB	 5
  000d0	05		 DB	 5
  000d1	05		 DB	 5
  000d2	05		 DB	 5
  000d3	05		 DB	 5
  000d4	05		 DB	 5
  000d5	05		 DB	 5
  000d6	05		 DB	 5
  000d7	05		 DB	 5
  000d8	05		 DB	 5
  000d9	05		 DB	 5
  000da	05		 DB	 5
  000db	05		 DB	 5
  000dc	05		 DB	 5
  000dd	05		 DB	 5
  000de	05		 DB	 5
  000df	05		 DB	 5
  000e0	05		 DB	 5
  000e1	05		 DB	 5
  000e2	05		 DB	 5
  000e3	05		 DB	 5
  000e4	05		 DB	 5
  000e5	05		 DB	 5
  000e6	05		 DB	 5
  000e7	05		 DB	 5
  000e8	05		 DB	 5
  000e9	05		 DB	 5
  000ea	05		 DB	 5
  000eb	05		 DB	 5
  000ec	05		 DB	 5
  000ed	05		 DB	 5
  000ee	05		 DB	 5
  000ef	05		 DB	 5
  000f0	05		 DB	 5
  000f1	05		 DB	 5
  000f2	05		 DB	 5
  000f3	05		 DB	 5
  000f4	05		 DB	 5
  000f5	05		 DB	 5
  000f6	05		 DB	 5
  000f7	05		 DB	 5
  000f8	05		 DB	 5
  000f9	05		 DB	 5
  000fa	05		 DB	 5
  000fb	05		 DB	 5
  000fc	05		 DB	 5
  000fd	05		 DB	 5
  000fe	05		 DB	 5
  000ff	05		 DB	 5
  00100	05		 DB	 5
  00101	05		 DB	 5
  00102	05		 DB	 5
  00103	05		 DB	 5
  00104	05		 DB	 5
  00105	05		 DB	 5
  00106	05		 DB	 5
  00107	05		 DB	 5
  00108	05		 DB	 5
  00109	05		 DB	 5
  0010a	05		 DB	 5
  0010b	05		 DB	 5
  0010c	05		 DB	 5
  0010d	05		 DB	 5
  0010e	05		 DB	 5
  0010f	05		 DB	 5
  00110	05		 DB	 5
  00111	05		 DB	 5
  00112	05		 DB	 5
  00113	05		 DB	 5
  00114	05		 DB	 5
  00115	05		 DB	 5
  00116	05		 DB	 5
  00117	05		 DB	 5
  00118	05		 DB	 5
  00119	05		 DB	 5
  0011a	05		 DB	 5
  0011b	05		 DB	 5
  0011c	05		 DB	 5
  0011d	05		 DB	 5
  0011e	05		 DB	 5
  0011f	05		 DB	 5
  00120	05		 DB	 5
  00121	05		 DB	 5
  00122	05		 DB	 5
  00123	05		 DB	 5
  00124	05		 DB	 5
  00125	05		 DB	 5
  00126	05		 DB	 5
  00127	05		 DB	 5
  00128	05		 DB	 5
  00129	05		 DB	 5
  0012a	05		 DB	 5
  0012b	05		 DB	 5
  0012c	05		 DB	 5
  0012d	05		 DB	 5
  0012e	05		 DB	 5
  0012f	05		 DB	 5
  00130	05		 DB	 5
  00131	05		 DB	 5
  00132	05		 DB	 5
  00133	05		 DB	 5
  00134	05		 DB	 5
  00135	05		 DB	 5
  00136	05		 DB	 5
  00137	05		 DB	 5
  00138	05		 DB	 5
  00139	05		 DB	 5
  0013a	05		 DB	 5
  0013b	05		 DB	 5
  0013c	05		 DB	 5
  0013d	05		 DB	 5
  0013e	05		 DB	 5
  0013f	05		 DB	 5
  00140	05		 DB	 5
  00141	05		 DB	 5
  00142	05		 DB	 5
  00143	05		 DB	 5
  00144	05		 DB	 5
  00145	05		 DB	 5
  00146	05		 DB	 5
  00147	05		 DB	 5
  00148	05		 DB	 5
  00149	05		 DB	 5
  0014a	05		 DB	 5
  0014b	05		 DB	 5
  0014c	05		 DB	 5
  0014d	05		 DB	 5
  0014e	05		 DB	 5
  0014f	05		 DB	 5
  00150	05		 DB	 5
  00151	05		 DB	 5
  00152	05		 DB	 5
  00153	05		 DB	 5
  00154	05		 DB	 5
  00155	05		 DB	 5
  00156	05		 DB	 5
  00157	05		 DB	 5
  00158	05		 DB	 5
  00159	05		 DB	 5
  0015a	05		 DB	 5
  0015b	05		 DB	 5
  0015c	05		 DB	 5
  0015d	05		 DB	 5
  0015e	05		 DB	 5
  0015f	05		 DB	 5
  00160	05		 DB	 5
  00161	05		 DB	 5
  00162	05		 DB	 5
  00163	05		 DB	 5
  00164	05		 DB	 5
  00165	05		 DB	 5
  00166	05		 DB	 5
  00167	05		 DB	 5
  00168	05		 DB	 5
  00169	05		 DB	 5
  0016a	05		 DB	 5
  0016b	05		 DB	 5
  0016c	05		 DB	 5
  0016d	05		 DB	 5
  0016e	05		 DB	 5
  0016f	05		 DB	 5
  00170	05		 DB	 5
  00171	05		 DB	 5
  00172	05		 DB	 5
  00173	05		 DB	 5
  00174	05		 DB	 5
  00175	05		 DB	 5
  00176	05		 DB	 5
  00177	05		 DB	 5
  00178	05		 DB	 5
  00179	05		 DB	 5
  0017a	05		 DB	 5
  0017b	05		 DB	 5
  0017c	05		 DB	 5
  0017d	05		 DB	 5
  0017e	05		 DB	 5
  0017f	05		 DB	 5
  00180	05		 DB	 5
  00181	05		 DB	 5
  00182	05		 DB	 5
  00183	05		 DB	 5
  00184	05		 DB	 5
  00185	05		 DB	 5
  00186	05		 DB	 5
  00187	05		 DB	 5
  00188	05		 DB	 5
  00189	05		 DB	 5
  0018a	05		 DB	 5
  0018b	05		 DB	 5
  0018c	05		 DB	 5
  0018d	05		 DB	 5
  0018e	05		 DB	 5
  0018f	05		 DB	 5
  00190	05		 DB	 5
  00191	05		 DB	 5
  00192	05		 DB	 5
  00193	05		 DB	 5
  00194	05		 DB	 5
  00195	05		 DB	 5
  00196	05		 DB	 5
  00197	05		 DB	 5
  00198	05		 DB	 5
  00199	05		 DB	 5
  0019a	05		 DB	 5
  0019b	05		 DB	 5
  0019c	05		 DB	 5
  0019d	05		 DB	 5
  0019e	05		 DB	 5
  0019f	05		 DB	 5
  001a0	05		 DB	 5
  001a1	05		 DB	 5
  001a2	05		 DB	 5
  001a3	05		 DB	 5
  001a4	05		 DB	 5
  001a5	05		 DB	 5
  001a6	05		 DB	 5
  001a7	05		 DB	 5
  001a8	05		 DB	 5
  001a9	05		 DB	 5
  001aa	05		 DB	 5
  001ab	05		 DB	 5
  001ac	03		 DB	 3
  001ad	04		 DB	 4
  001ae	04		 DB	 4
?GetRevivalPos@CContinent@@QAE?AUD3DXVECTOR3@@E@Z ENDP	; CContinent::GetRevivalPos
_TEXT	ENDS
PUBLIC	??9const_iterator@?$_Tree@V?$_Tmap_traits@EV?$vector@VCPoint@@V?$allocator@VCPoint@@@std@@@std@@U?$less@E@2@V?$allocator@U?$pair@$$CBEV?$vector@VCPoint@@V?$allocator@VCPoint@@@std@@@std@@@std@@@2@$0A@@std@@@std@@QBE_NABV012@@Z ; std::_Tree<std::_Tmap_traits<unsigned char,std::vector<CPoint,std::allocator<CPoint> >,std::less<unsigned char>,std::allocator<std::pair<unsigned char const ,std::vector<CPoint,std::allocator<CPoint> > > >,0> >::const_iterator::operator!=
; Function compile flags: /Ogty
; File c:\program files\microsoft visual studio .net 2003\vc7\include\xtree
;	COMDAT ??9const_iterator@?$_Tree@V?$_Tmap_traits@EV?$vector@VCPoint@@V?$allocator@VCPoint@@@std@@@std@@U?$less@E@2@V?$allocator@U?$pair@$$CBEV?$vector@VCPoint@@V?$allocator@VCPoint@@@std@@@std@@@std@@@2@$0A@@std@@@std@@QBE_NABV012@@Z
_TEXT	SEGMENT
__Right$ = 8						; size = 4
??9const_iterator@?$_Tree@V?$_Tmap_traits@EV?$vector@VCPoint@@V?$allocator@VCPoint@@@std@@@std@@U?$less@E@2@V?$allocator@U?$pair@$$CBEV?$vector@VCPoint@@V?$allocator@VCPoint@@@std@@@std@@@std@@@2@$0A@@std@@@std@@QBE_NABV012@@Z PROC NEAR ; std::_Tree<std::_Tmap_traits<unsigned char,std::vector<CPoint,std::allocator<CPoint> >,std::less<unsigned char>,std::allocator<std::pair<unsigned char const ,std::vector<CPoint,std::allocator<CPoint> > > >,0> >::const_iterator::operator!=, COMDAT
; _this$ = ecx

; 246  : 			return (!(*this == _Right));

  00000	8b 01		 mov	 eax, DWORD PTR [ecx]
  00002	8b 54 24 04	 mov	 edx, DWORD PTR __Right$[esp-4]
  00006	56		 push	 esi
  00007	8b 32		 mov	 esi, DWORD PTR [edx]
  00009	33 c9		 xor	 ecx, ecx
  0000b	3b c6		 cmp	 eax, esi
  0000d	0f 95 c1	 setne	 cl
  00010	8a c1		 mov	 al, cl
  00012	5e		 pop	 esi

; 247  : 			}

  00013	c2 04 00	 ret	 4
??9const_iterator@?$_Tree@V?$_Tmap_traits@EV?$vector@VCPoint@@V?$allocator@VCPoint@@@std@@@std@@U?$less@E@2@V?$allocator@U?$pair@$$CBEV?$vector@VCPoint@@V?$allocator@VCPoint@@@std@@@std@@@std@@@2@$0A@@std@@@std@@QBE_NABV012@@Z ENDP ; std::_Tree<std::_Tmap_traits<unsigned char,std::vector<CPoint,std::allocator<CPoint> >,std::less<unsigned char>,std::allocator<std::pair<unsigned char const ,std::vector<CPoint,std::allocator<CPoint> > > >,0> >::const_iterator::operator!=
_TEXT	ENDS
PUBLIC	?Compare@?$CStringT@DV?$StrTraitMFC@DV?$ChTraitsCRT@D@ATL@@@@@ATL@@QBEHPBD@Z ; ATL::CStringT<char,StrTraitMFC<char,ATL::ChTraitsCRT<char> > >::Compare
; Function compile flags: /Ogty
; File c:\program files\microsoft visual studio .net 2003\vc7\atlmfc\include\cstringt.h
;	COMDAT ?Compare@?$CStringT@DV?$StrTraitMFC@DV?$ChTraitsCRT@D@ATL@@@@@ATL@@QBEHPBD@Z
_TEXT	SEGMENT
_psz$ = 8						; size = 4
?Compare@?$CStringT@DV?$StrTraitMFC@DV?$ChTraitsCRT@D@ATL@@@@@ATL@@QBEHPBD@Z PROC NEAR ; ATL::CStringT<char,StrTraitMFC<char,ATL::ChTraitsCRT<char> > >::Compare, COMDAT
; _this$ = ecx

; 1088 : 		ATLASSERT( AtlIsValidString( psz ) );
; 1089 : 		return( StringTraits::StringCompare( GetString(), psz ) );

  00000	8b 44 24 04	 mov	 eax, DWORD PTR _psz$[esp-4]
  00004	8b 09		 mov	 ecx, DWORD PTR [ecx]
  00006	50		 push	 eax
  00007	51		 push	 ecx
  00008	e8 00 00 00 00	 call	 __mbscmp
  0000d	83 c4 08	 add	 esp, 8

; 1090 : 	}

  00010	c2 04 00	 ret	 4
?Compare@?$CStringT@DV?$StrTraitMFC@DV?$ChTraitsCRT@D@ATL@@@@@ATL@@QBEHPBD@Z ENDP ; ATL::CStringT<char,StrTraitMFC<char,ATL::ChTraitsCRT<char> > >::Compare
_TEXT	ENDS
PUBLIC	?GetManager@?$CSimpleStringT@D$0A@@ATL@@QBEPAUIAtlStringMgr@2@XZ ; ATL::CSimpleStringT<char,0>::GetManager
; Function compile flags: /Ogty
; File c:\program files\microsoft visual studio .net 2003\vc7\atlmfc\include\atlsimpstr.h
;	COMDAT ?GetManager@?$CSimpleStringT@D$0A@@ATL@@QBEPAUIAtlStringMgr@2@XZ
_TEXT	SEGMENT
?GetManager@?$CSimpleStringT@D$0A@@ATL@@QBEPAUIAtlStringMgr@2@XZ PROC NEAR ; ATL::CSimpleStringT<char,0>::GetManager, COMDAT
; _this$ = ecx

; 505  : 		return( GetData()->pStringMgr->Clone() );

  00000	8b 01		 mov	 eax, DWORD PTR [ecx]
  00002	8b 48 f0	 mov	 ecx, DWORD PTR [eax-16]
  00005	8b 11		 mov	 edx, DWORD PTR [ecx]
  00007	ff 62 10	 jmp	 DWORD PTR [edx+16]
?GetManager@?$CSimpleStringT@D$0A@@ATL@@QBEPAUIAtlStringMgr@2@XZ ENDP ; ATL::CSimpleStringT<char,0>::GetManager
_TEXT	ENDS
PUBLIC	?_Key@?$_Tree@V?$_Tmap_traits@EV?$vector@VCPoint@@V?$allocator@VCPoint@@@std@@@std@@U?$less@E@2@V?$allocator@U?$pair@$$CBEV?$vector@VCPoint@@V?$allocator@VCPoint@@@std@@@std@@@std@@@2@$0A@@std@@@std@@KAABEPAU_Node@?$_Tree_nod@V?$_Tmap_traits@EV?$vector@VCPoint@@V?$allocator@VCPoint@@@std@@@std@@U?$less@E@2@V?$allocator@U?$pair@$$CBEV?$vector@VCPoint@@V?$allocator@VCPoint@@@std@@@std@@@std@@@2@$0A@@std@@@2@@Z ; std::_Tree<std::_Tmap_traits<unsigned char,std::vector<CPoint,std::allocator<CPoint> >,std::less<unsigned char>,std::allocator<std::pair<unsigned char const ,std::vector<CPoint,std::allocator<CPoint> > > >,0> >::_Key
; Function compile flags: /Ogty
; File c:\program files\microsoft visual studio .net 2003\vc7\include\xtree
;	COMDAT ?_Key@?$_Tree@V?$_Tmap_traits@EV?$vector@VCPoint@@V?$allocator@VCPoint@@@std@@@std@@U?$less@E@2@V?$allocator@U?$pair@$$CBEV?$vector@VCPoint@@V?$allocator@VCPoint@@@std@@@std@@@std@@@2@$0A@@std@@@std@@KAABEPAU_Node@?$_Tree_nod@V?$_Tmap_traits@EV?$vector@VCPoint@@V?$allocator@VCPoint@@@std@@@std@@U?$less@E@2@V?$allocator@U?$pair@$$CBEV?$vector@VCPoint@@V?$allocator@VCPoint@@@std@@@std@@@std@@@2@$0A@@std@@@2@@Z
_TEXT	SEGMENT
__Pnode$ = 8						; size = 4
?_Key@?$_Tree@V?$_Tmap_traits@EV?$vector@VCPoint@@V?$allocator@VCPoint@@@std@@@std@@U?$less@E@2@V?$allocator@U?$pair@$$CBEV?$vector@VCPoint@@V?$allocator@VCPoint@@@std@@@std@@@std@@@2@$0A@@std@@@std@@KAABEPAU_Node@?$_Tree_nod@V?$_Tmap_traits@EV?$vector@VCPoint@@V?$allocator@VCPoint@@@std@@@std@@U?$less@E@2@V?$allocator@U?$pair@$$CBEV?$vector@VCPoint@@V?$allocator@VCPoint@@@std@@@std@@@std@@@2@$0A@@std@@@2@@Z PROC NEAR ; std::_Tree<std::_Tmap_traits<unsigned char,std::vector<CPoint,std::allocator<CPoint> >,std::less<unsigned char>,std::allocator<std::pair<unsigned char const ,std::vector<CPoint,std::allocator<CPoint> > > >,0> >::_Key, COMDAT

; 142  : 		return (_Mybase::_Kfn(_Myval(_Pnode)));

  00000	8b 44 24 04	 mov	 eax, DWORD PTR __Pnode$[esp-4]
  00004	83 c0 0c	 add	 eax, 12			; 0000000cH

; 143  : 		}

  00007	c3		 ret	 0
?_Key@?$_Tree@V?$_Tmap_traits@EV?$vector@VCPoint@@V?$allocator@VCPoint@@@std@@@std@@U?$less@E@2@V?$allocator@U?$pair@$$CBEV?$vector@VCPoint@@V?$allocator@VCPoint@@@std@@@std@@@std@@@2@$0A@@std@@@std@@KAABEPAU_Node@?$_Tree_nod@V?$_Tmap_traits@EV?$vector@VCPoint@@V?$allocator@VCPoint@@@std@@@std@@U?$less@E@2@V?$allocator@U?$pair@$$CBEV?$vector@VCPoint@@V?$allocator@VCPoint@@@std@@@std@@@std@@@2@$0A@@std@@@2@@Z ENDP ; std::_Tree<std::_Tmap_traits<unsigned char,std::vector<CPoint,std::allocator<CPoint> >,std::less<unsigned char>,std::allocator<std::pair<unsigned char const ,std::vector<CPoint,std::allocator<CPoint> > > >,0> >::_Key
_TEXT	ENDS
PUBLIC	?_Root@?$_Tree@V?$_Tmap_traits@EV?$vector@VCPoint@@V?$allocator@VCPoint@@@std@@@std@@U?$less@E@2@V?$allocator@U?$pair@$$CBEV?$vector@VCPoint@@V?$allocator@VCPoint@@@std@@@std@@@std@@@2@$0A@@std@@@std@@IAEAAPAU_Node@?$_Tree_nod@V?$_Tmap_traits@EV?$vector@VCPoint@@V?$allocator@VCPoint@@@std@@@std@@U?$less@E@2@V?$allocator@U?$pair@$$CBEV?$vector@VCPoint@@V?$allocator@VCPoint@@@std@@@std@@@std@@@2@$0A@@std@@@2@XZ ; std::_Tree<std::_Tmap_traits<unsigned char,std::vector<CPoint,std::allocator<CPoint> >,std::less<unsigned char>,std::allocator<std::pair<unsigned char const ,std::vector<CPoint,std::allocator<CPoint> > > >,0> >::_Root
; Function compile flags: /Ogty
;	COMDAT ?_Root@?$_Tree@V?$_Tmap_traits@EV?$vector@VCPoint@@V?$allocator@VCPoint@@@std@@@std@@U?$less@E@2@V?$allocator@U?$pair@$$CBEV?$vector@VCPoint@@V?$allocator@VCPoint@@@std@@@std@@@std@@@2@$0A@@std@@@std@@IAEAAPAU_Node@?$_Tree_nod@V?$_Tmap_traits@EV?$vector@VCPoint@@V?$allocator@VCPoint@@@std@@@std@@U?$less@E@2@V?$allocator@U?$pair@$$CBEV?$vector@VCPoint@@V?$allocator@VCPoint@@@std@@@std@@@std@@@2@$0A@@std@@@2@XZ
_TEXT	SEGMENT
?_Root@?$_Tree@V?$_Tmap_traits@EV?$vector@VCPoint@@V?$allocator@VCPoint@@@std@@@std@@U?$less@E@2@V?$allocator@U?$pair@$$CBEV?$vector@VCPoint@@V?$allocator@VCPoint@@@std@@@std@@@std@@@2@$0A@@std@@@std@@IAEAAPAU_Node@?$_Tree_nod@V?$_Tmap_traits@EV?$vector@VCPoint@@V?$allocator@VCPoint@@@std@@@std@@U?$less@E@2@V?$allocator@U?$pair@$$CBEV?$vector@VCPoint@@V?$allocator@VCPoint@@@std@@@std@@@std@@@2@$0A@@std@@@2@XZ PROC NEAR ; std::_Tree<std::_Tmap_traits<unsigned char,std::vector<CPoint,std::allocator<CPoint> >,std::less<unsigned char>,std::allocator<std::pair<unsigned char const ,std::vector<CPoint,std::allocator<CPoint> > > >,0> >::_Root, COMDAT
; _this$ = ecx

; 1059 : 		return (_Parent(_Myhead));

  00000	8b 41 04	 mov	 eax, DWORD PTR [ecx+4]
  00003	83 c0 04	 add	 eax, 4

; 1060 : 		}

  00006	c3		 ret	 0
?_Root@?$_Tree@V?$_Tmap_traits@EV?$vector@VCPoint@@V?$allocator@VCPoint@@@std@@@std@@U?$less@E@2@V?$allocator@U?$pair@$$CBEV?$vector@VCPoint@@V?$allocator@VCPoint@@@std@@@std@@@std@@@2@$0A@@std@@@std@@IAEAAPAU_Node@?$_Tree_nod@V?$_Tmap_traits@EV?$vector@VCPoint@@V?$allocator@VCPoint@@@std@@@std@@U?$less@E@2@V?$allocator@U?$pair@$$CBEV?$vector@VCPoint@@V?$allocator@VCPoint@@@std@@@std@@@std@@@2@$0A@@std@@@2@XZ ENDP ; std::_Tree<std::_Tmap_traits<unsigned char,std::vector<CPoint,std::allocator<CPoint> >,std::less<unsigned char>,std::allocator<std::pair<unsigned char const ,std::vector<CPoint,std::allocator<CPoint> > > >,0> >::_Root
_TEXT	ENDS
PUBLIC	?begin@?$vector@VCPoint@@V?$allocator@VCPoint@@@std@@@std@@QAE?AViterator@12@XZ ; std::vector<CPoint,std::allocator<CPoint> >::begin
; Function compile flags: /Ogty
; File c:\program files\microsoft visual studio .net 2003\vc7\include\vector
;	COMDAT ?begin@?$vector@VCPoint@@V?$allocator@VCPoint@@@std@@@std@@QAE?AViterator@12@XZ
_TEXT	SEGMENT
___$ReturnUdt$ = 8					; size = 4
?begin@?$vector@VCPoint@@V?$allocator@VCPoint@@@std@@@std@@QAE?AViterator@12@XZ PROC NEAR ; std::vector<CPoint,std::allocator<CPoint> >::begin, COMDAT
; _this$ = ecx

; 463  : 		return (iterator(_Myfirst));

  00000	8b 49 04	 mov	 ecx, DWORD PTR [ecx+4]
  00003	8b 44 24 04	 mov	 eax, DWORD PTR ___$ReturnUdt$[esp-4]
  00007	89 08		 mov	 DWORD PTR [eax], ecx

; 464  : 		}

  00009	c2 04 00	 ret	 4
?begin@?$vector@VCPoint@@V?$allocator@VCPoint@@@std@@@std@@QAE?AViterator@12@XZ ENDP ; std::vector<CPoint,std::allocator<CPoint> >::begin
_TEXT	ENDS
PUBLIC	?begin@?$vector@VCPoint@@V?$allocator@VCPoint@@@std@@@std@@QBE?AVconst_iterator@12@XZ ; std::vector<CPoint,std::allocator<CPoint> >::begin
; Function compile flags: /Ogty
;	COMDAT ?begin@?$vector@VCPoint@@V?$allocator@VCPoint@@@std@@@std@@QBE?AVconst_iterator@12@XZ
_TEXT	SEGMENT
___$ReturnUdt$ = 8					; size = 4
?begin@?$vector@VCPoint@@V?$allocator@VCPoint@@@std@@@std@@QBE?AVconst_iterator@12@XZ PROC NEAR ; std::vector<CPoint,std::allocator<CPoint> >::begin, COMDAT
; _this$ = ecx

; 468  : 		return (const_iterator(_Myfirst));

  00000	8b 49 04	 mov	 ecx, DWORD PTR [ecx+4]
  00003	8b 44 24 04	 mov	 eax, DWORD PTR ___$ReturnUdt$[esp-4]
  00007	89 08		 mov	 DWORD PTR [eax], ecx

; 469  : 		}

  00009	c2 04 00	 ret	 4
?begin@?$vector@VCPoint@@V?$allocator@VCPoint@@@std@@@std@@QBE?AVconst_iterator@12@XZ ENDP ; std::vector<CPoint,std::allocator<CPoint> >::begin
_TEXT	ENDS
PUBLIC	?end@?$vector@VCPoint@@V?$allocator@VCPoint@@@std@@@std@@QAE?AViterator@12@XZ ; std::vector<CPoint,std::allocator<CPoint> >::end
; Function compile flags: /Ogty
;	COMDAT ?end@?$vector@VCPoint@@V?$allocator@VCPoint@@@std@@@std@@QAE?AViterator@12@XZ
_TEXT	SEGMENT
___$ReturnUdt$ = 8					; size = 4
?end@?$vector@VCPoint@@V?$allocator@VCPoint@@@std@@@std@@QAE?AViterator@12@XZ PROC NEAR ; std::vector<CPoint,std::allocator<CPoint> >::end, COMDAT
; _this$ = ecx

; 473  : 		return (iterator(_Mylast));

  00000	8b 49 08	 mov	 ecx, DWORD PTR [ecx+8]
  00003	8b 44 24 04	 mov	 eax, DWORD PTR ___$ReturnUdt$[esp-4]
  00007	89 08		 mov	 DWORD PTR [eax], ecx

; 474  : 		}

  00009	c2 04 00	 ret	 4
?end@?$vector@VCPoint@@V?$allocator@VCPoint@@@std@@@std@@QAE?AViterator@12@XZ ENDP ; std::vector<CPoint,std::allocator<CPoint> >::end
_TEXT	ENDS
PUBLIC	?end@?$vector@VCPoint@@V?$allocator@VCPoint@@@std@@@std@@QBE?AVconst_iterator@12@XZ ; std::vector<CPoint,std::allocator<CPoint> >::end
; Function compile flags: /Ogty
;	COMDAT ?end@?$vector@VCPoint@@V?$allocator@VCPoint@@@std@@@std@@QBE?AVconst_iterator@12@XZ
_TEXT	SEGMENT
___$ReturnUdt$ = 8					; size = 4
?end@?$vector@VCPoint@@V?$allocator@VCPoint@@@std@@@std@@QBE?AVconst_iterator@12@XZ PROC NEAR ; std::vector<CPoint,std::allocator<CPoint> >::end, COMDAT
; _this$ = ecx

; 478  : 		return (const_iterator(_Mylast));

  00000	8b 49 08	 mov	 ecx, DWORD PTR [ecx+8]
  00003	8b 44 24 04	 mov	 eax, DWORD PTR ___$ReturnUdt$[esp-4]
  00007	89 08		 mov	 DWORD PTR [eax], ecx

; 479  : 		}

  00009	c2 04 00	 ret	 4
?end@?$vector@VCPoint@@V?$allocator@VCPoint@@@std@@@std@@QBE?AVconst_iterator@12@XZ ENDP ; std::vector<CPoint,std::allocator<CPoint> >::end
_TEXT	ENDS
PUBLIC	??0?$_Vector_val@VCPoint@@V?$allocator@VCPoint@@@std@@@std@@IAE@V?$allocator@VCPoint@@@1@@Z ; std::_Vector_val<CPoint,std::allocator<CPoint> >::_Vector_val<CPoint,std::allocator<CPoint> >
; Function compile flags: /Ogty
;	COMDAT ??0?$_Vector_val@VCPoint@@V?$allocator@VCPoint@@@std@@@std@@IAE@V?$allocator@VCPoint@@@1@@Z
_TEXT	SEGMENT
__Al$ = 8						; size = 1
??0?$_Vector_val@VCPoint@@V?$allocator@VCPoint@@@std@@@std@@IAE@V?$allocator@VCPoint@@@1@@Z PROC NEAR ; std::_Vector_val<CPoint,std::allocator<CPoint> >::_Vector_val<CPoint,std::allocator<CPoint> >, COMDAT
; _this$ = ecx

; 21   : 		{	// construct allocator from _Al

  00000	8b c1		 mov	 eax, ecx

; 22   : 		}

  00002	c2 04 00	 ret	 4
??0?$_Vector_val@VCPoint@@V?$allocator@VCPoint@@@std@@@std@@IAE@V?$allocator@VCPoint@@@1@@Z ENDP ; std::_Vector_val<CPoint,std::allocator<CPoint> >::_Vector_val<CPoint,std::allocator<CPoint> >
_TEXT	ENDS
PUBLIC	??0iterator@?$_Tree@V?$_Tmap_traits@EV?$vector@VCPoint@@V?$allocator@VCPoint@@@std@@@std@@U?$less@E@2@V?$allocator@U?$pair@$$CBEV?$vector@VCPoint@@V?$allocator@VCPoint@@@std@@@std@@@std@@@2@$0A@@std@@@std@@QAE@XZ ; std::_Tree<std::_Tmap_traits<unsigned char,std::vector<CPoint,std::allocator<CPoint> >,std::less<unsigned char>,std::allocator<std::pair<unsigned char const ,std::vector<CPoint,std::allocator<CPoint> > > >,0> >::iterator::iterator
; Function compile flags: /Ogty
; File c:\program files\microsoft visual studio .net 2003\vc7\include\xtree
;	COMDAT ??0iterator@?$_Tree@V?$_Tmap_traits@EV?$vector@VCPoint@@V?$allocator@VCPoint@@@std@@@std@@U?$less@E@2@V?$allocator@U?$pair@$$CBEV?$vector@VCPoint@@V?$allocator@VCPoint@@@std@@@std@@@std@@@2@$0A@@std@@@std@@QAE@XZ
_TEXT	SEGMENT
??0iterator@?$_Tree@V?$_Tmap_traits@EV?$vector@VCPoint@@V?$allocator@VCPoint@@@std@@@std@@U?$less@E@2@V?$allocator@U?$pair@$$CBEV?$vector@VCPoint@@V?$allocator@VCPoint@@@std@@@std@@@std@@@2@$0A@@std@@@std@@QAE@XZ PROC NEAR ; std::_Tree<std::_Tmap_traits<unsigned char,std::vector<CPoint,std::allocator<CPoint> >,std::less<unsigned char>,std::allocator<std::pair<unsigned char const ,std::vector<CPoint,std::allocator<CPoint> > > >,0> >::iterator::iterator, COMDAT
; _this$ = ecx

; 304  : 		iterator()

  00000	8b c1		 mov	 eax, ecx
  00002	c7 00 00 00 00
	00		 mov	 DWORD PTR [eax], 0

; 305  : 			{	// construct with null node pointer
; 306  : 			}

  00008	c3		 ret	 0
??0iterator@?$_Tree@V?$_Tmap_traits@EV?$vector@VCPoint@@V?$allocator@VCPoint@@@std@@@std@@U?$less@E@2@V?$allocator@U?$pair@$$CBEV?$vector@VCPoint@@V?$allocator@VCPoint@@@std@@@std@@@std@@@2@$0A@@std@@@std@@QAE@XZ ENDP ; std::_Tree<std::_Tmap_traits<unsigned char,std::vector<CPoint,std::allocator<CPoint> >,std::less<unsigned char>,std::allocator<std::pair<unsigned char const ,std::vector<CPoint,std::allocator<CPoint> > > >,0> >::iterator::iterator
_TEXT	ENDS
PUBLIC	??0iterator@?$_Tree@V?$_Tmap_traits@EV?$vector@VCPoint@@V?$allocator@VCPoint@@@std@@@std@@U?$less@E@2@V?$allocator@U?$pair@$$CBEV?$vector@VCPoint@@V?$allocator@VCPoint@@@std@@@std@@@std@@@2@$0A@@std@@@std@@QAE@PAU_Node@?$_Tree_nod@V?$_Tmap_traits@EV?$vector@VCPoint@@V?$allocator@VCPoint@@@std@@@std@@U?$less@E@2@V?$allocator@U?$pair@$$CBEV?$vector@VCPoint@@V?$allocator@VCPoint@@@std@@@std@@@std@@@2@$0A@@std@@@2@@Z ; std::_Tree<std::_Tmap_traits<unsigned char,std::vector<CPoint,std::allocator<CPoint> >,std::less<unsigned char>,std::allocator<std::pair<unsigned char const ,std::vector<CPoint,std::allocator<CPoint> > > >,0> >::iterator::iterator
; Function compile flags: /Ogty
;	COMDAT ??0iterator@?$_Tree@V?$_Tmap_traits@EV?$vector@VCPoint@@V?$allocator@VCPoint@@@std@@@std@@U?$less@E@2@V?$allocator@U?$pair@$$CBEV?$vector@VCPoint@@V?$allocator@VCPoint@@@std@@@std@@@std@@@2@$0A@@std@@@std@@QAE@PAU_Node@?$_Tree_nod@V?$_Tmap_traits@EV?$vector@VCPoint@@V?$allocator@VCPoint@@@std@@@std@@U?$less@E@2@V?$allocator@U?$pair@$$CBEV?$vector@VCPoint@@V?$allocator@VCPoint@@@std@@@std@@@std@@@2@$0A@@std@@@2@@Z
_TEXT	SEGMENT
__Pnode$ = 8						; size = 4
??0iterator@?$_Tree@V?$_Tmap_traits@EV?$vector@VCPoint@@V?$allocator@VCPoint@@@std@@@std@@U?$less@E@2@V?$allocator@U?$pair@$$CBEV?$vector@VCPoint@@V?$allocator@VCPoint@@@std@@@std@@@std@@@2@$0A@@std@@@std@@QAE@PAU_Node@?$_Tree_nod@V?$_Tmap_traits@EV?$vector@VCPoint@@V?$allocator@VCPoint@@@std@@@std@@U?$less@E@2@V?$allocator@U?$pair@$$CBEV?$vector@VCPoint@@V?$allocator@VCPoint@@@std@@@std@@@std@@@2@$0A@@std@@@2@@Z PROC NEAR ; std::_Tree<std::_Tmap_traits<unsigned char,std::vector<CPoint,std::allocator<CPoint> >,std::less<unsigned char>,std::allocator<std::pair<unsigned char const ,std::vector<CPoint,std::allocator<CPoint> > > >,0> >::iterator::iterator, COMDAT
; _this$ = ecx

; 312  : 			{	// construct with node pointer _Pnode

  00000	8b c1		 mov	 eax, ecx
  00002	8b 4c 24 04	 mov	 ecx, DWORD PTR __Pnode$[esp-4]
  00006	89 08		 mov	 DWORD PTR [eax], ecx

; 313  : 			}

  00008	c2 04 00	 ret	 4
??0iterator@?$_Tree@V?$_Tmap_traits@EV?$vector@VCPoint@@V?$allocator@VCPoint@@@std@@@std@@U?$less@E@2@V?$allocator@U?$pair@$$CBEV?$vector@VCPoint@@V?$allocator@VCPoint@@@std@@@std@@@std@@@2@$0A@@std@@@std@@QAE@PAU_Node@?$_Tree_nod@V?$_Tmap_traits@EV?$vector@VCPoint@@V?$allocator@VCPoint@@@std@@@std@@U?$less@E@2@V?$allocator@U?$pair@$$CBEV?$vector@VCPoint@@V?$allocator@VCPoint@@@std@@@std@@@std@@@2@$0A@@std@@@2@@Z ENDP ; std::_Tree<std::_Tmap_traits<unsigned char,std::vector<CPoint,std::allocator<CPoint> >,std::less<unsigned char>,std::allocator<std::pair<unsigned char const ,std::vector<CPoint,std::allocator<CPoint> > > >,0> >::iterator::iterator
_TEXT	ENDS
PUBLIC	??Diterator@?$_Tree@V?$_Tmap_traits@EV?$vector@VCPoint@@V?$allocator@VCPoint@@@std@@@std@@U?$less@E@2@V?$allocator@U?$pair@$$CBEV?$vector@VCPoint@@V?$allocator@VCPoint@@@std@@@std@@@std@@@2@$0A@@std@@@std@@QBEAAU?$pair@$$CBEV?$vector@VCPoint@@V?$allocator@VCPoint@@@std@@@std@@@2@XZ ; std::_Tree<std::_Tmap_traits<unsigned char,std::vector<CPoint,std::allocator<CPoint> >,std::less<unsigned char>,std::allocator<std::pair<unsigned char const ,std::vector<CPoint,std::allocator<CPoint> > > >,0> >::iterator::operator*
; Function compile flags: /Ogty
;	COMDAT ??Diterator@?$_Tree@V?$_Tmap_traits@EV?$vector@VCPoint@@V?$allocator@VCPoint@@@std@@@std@@U?$less@E@2@V?$allocator@U?$pair@$$CBEV?$vector@VCPoint@@V?$allocator@VCPoint@@@std@@@std@@@std@@@2@$0A@@std@@@std@@QBEAAU?$pair@$$CBEV?$vector@VCPoint@@V?$allocator@VCPoint@@@std@@@std@@@2@XZ
_TEXT	SEGMENT
??Diterator@?$_Tree@V?$_Tmap_traits@EV?$vector@VCPoint@@V?$allocator@VCPoint@@@std@@@std@@U?$less@E@2@V?$allocator@U?$pair@$$CBEV?$vector@VCPoint@@V?$allocator@VCPoint@@@std@@@std@@@std@@@2@$0A@@std@@@std@@QBEAAU?$pair@$$CBEV?$vector@VCPoint@@V?$allocator@VCPoint@@@std@@@std@@@2@XZ PROC NEAR ; std::_Tree<std::_Tmap_traits<unsigned char,std::vector<CPoint,std::allocator<CPoint> >,std::less<unsigned char>,std::allocator<std::pair<unsigned char const ,std::vector<CPoint,std::allocator<CPoint> > > >,0> >::iterator::operator*, COMDAT
; _this$ = ecx

; 317  : 			return ((reference)**(const_iterator *)this);

  00000	8b 01		 mov	 eax, DWORD PTR [ecx]
  00002	83 c0 0c	 add	 eax, 12			; 0000000cH

; 318  : 			}

  00005	c3		 ret	 0
??Diterator@?$_Tree@V?$_Tmap_traits@EV?$vector@VCPoint@@V?$allocator@VCPoint@@@std@@@std@@U?$less@E@2@V?$allocator@U?$pair@$$CBEV?$vector@VCPoint@@V?$allocator@VCPoint@@@std@@@std@@@std@@@2@$0A@@std@@@std@@QBEAAU?$pair@$$CBEV?$vector@VCPoint@@V?$allocator@VCPoint@@@std@@@std@@@2@XZ ENDP ; std::_Tree<std::_Tmap_traits<unsigned char,std::vector<CPoint,std::allocator<CPoint> >,std::less<unsigned char>,std::allocator<std::pair<unsigned char const ,std::vector<CPoint,std::allocator<CPoint> > > >,0> >::iterator::operator*
_TEXT	ENDS
PUBLIC	??Diterator@?$vector@VCPoint@@V?$allocator@VCPoint@@@std@@@std@@QBEAAVCPoint@@XZ ; std::vector<CPoint,std::allocator<CPoint> >::iterator::operator*
; Function compile flags: /Ogty
; File c:\program files\microsoft visual studio .net 2003\vc7\include\vector
;	COMDAT ??Diterator@?$vector@VCPoint@@V?$allocator@VCPoint@@@std@@@std@@QBEAAVCPoint@@XZ
_TEXT	SEGMENT
??Diterator@?$vector@VCPoint@@V?$allocator@VCPoint@@@std@@@std@@QBEAAVCPoint@@XZ PROC NEAR ; std::vector<CPoint,std::allocator<CPoint> >::iterator::operator*, COMDAT
; _this$ = ecx

; 220  : 			return ((reference)**(const_iterator *)this);

  00000	8b 01		 mov	 eax, DWORD PTR [ecx]

; 221  : 			}

  00002	c3		 ret	 0
??Diterator@?$vector@VCPoint@@V?$allocator@VCPoint@@@std@@@std@@QBEAAVCPoint@@XZ ENDP ; std::vector<CPoint,std::allocator<CPoint> >::iterator::operator*
_TEXT	ENDS
PUBLIC	??Hiterator@?$vector@VCPoint@@V?$allocator@VCPoint@@@std@@@std@@QBE?AV012@H@Z ; std::vector<CPoint,std::allocator<CPoint> >::iterator::operator+
; Function compile flags: /Ogty
;	COMDAT ??Hiterator@?$vector@VCPoint@@V?$allocator@VCPoint@@@std@@@std@@QBE?AV012@H@Z
_TEXT	SEGMENT
___$ReturnUdt$ = 8					; size = 4
__Off$ = 12						; size = 4
??Hiterator@?$vector@VCPoint@@V?$allocator@VCPoint@@@std@@@std@@QBE?AV012@H@Z PROC NEAR ; std::vector<CPoint,std::allocator<CPoint> >::iterator::operator+, COMDAT
; _this$ = ecx

; 262  : 			iterator _Tmp = *this;
; 263  : 			return (_Tmp += _Off);

  00000	8b 01		 mov	 eax, DWORD PTR [ecx]
  00002	8b 4c 24 08	 mov	 ecx, DWORD PTR __Off$[esp-4]
  00006	8d 14 c8	 lea	 edx, DWORD PTR [eax+ecx*8]
  00009	8b 44 24 04	 mov	 eax, DWORD PTR ___$ReturnUdt$[esp-4]
  0000d	89 10		 mov	 DWORD PTR [eax], edx

; 264  : 			}

  0000f	c2 08 00	 ret	 8
??Hiterator@?$vector@VCPoint@@V?$allocator@VCPoint@@@std@@@std@@QBE?AV012@H@Z ENDP ; std::vector<CPoint,std::allocator<CPoint> >::iterator::operator+
_TEXT	ENDS
PUBLIC	?max_size@?$_Tree@V?$_Tmap_traits@EV?$vector@VCPoint@@V?$allocator@VCPoint@@@std@@@std@@U?$less@E@2@V?$allocator@U?$pair@$$CBEV?$vector@VCPoint@@V?$allocator@VCPoint@@@std@@@std@@@std@@@2@$0A@@std@@@std@@QBEIXZ ; std::_Tree<std::_Tmap_traits<unsigned char,std::vector<CPoint,std::allocator<CPoint> >,std::less<unsigned char>,std::allocator<std::pair<unsigned char const ,std::vector<CPoint,std::allocator<CPoint> > > >,0> >::max_size
; Function compile flags: /Ogty
; File c:\program files\microsoft visual studio .net 2003\vc7\include\xtree
;	COMDAT ?max_size@?$_Tree@V?$_Tmap_traits@EV?$vector@VCPoint@@V?$allocator@VCPoint@@@std@@@std@@U?$less@E@2@V?$allocator@U?$pair@$$CBEV?$vector@VCPoint@@V?$allocator@VCPoint@@@std@@@std@@@std@@@2@$0A@@std@@@std@@QBEIXZ
_TEXT	SEGMENT
?max_size@?$_Tree@V?$_Tmap_traits@EV?$vector@VCPoint@@V?$allocator@VCPoint@@@std@@@std@@U?$less@E@2@V?$allocator@U?$pair@$$CBEV?$vector@VCPoint@@V?$allocator@VCPoint@@@std@@@std@@@std@@@2@$0A@@std@@@std@@QBEIXZ PROC NEAR ; std::_Tree<std::_Tmap_traits<unsigned char,std::vector<CPoint,std::allocator<CPoint> >,std::less<unsigned char>,std::allocator<std::pair<unsigned char const ,std::vector<CPoint,std::allocator<CPoint> > > >,0> >::max_size, COMDAT
; _this$ = ecx

; 453  : 		return (this->_Alval.max_size());

  00000	b8 cc cc cc 0c	 mov	 eax, 214748364		; 0cccccccH

; 454  : 		}

  00005	c3		 ret	 0
?max_size@?$_Tree@V?$_Tmap_traits@EV?$vector@VCPoint@@V?$allocator@VCPoint@@@std@@@std@@U?$less@E@2@V?$allocator@U?$pair@$$CBEV?$vector@VCPoint@@V?$allocator@VCPoint@@@std@@@std@@@std@@@2@$0A@@std@@@std@@QBEIXZ ENDP ; std::_Tree<std::_Tmap_traits<unsigned char,std::vector<CPoint,std::allocator<CPoint> >,std::less<unsigned char>,std::allocator<std::pair<unsigned char const ,std::vector<CPoint,std::allocator<CPoint> > > >,0> >::max_size
_TEXT	ENDS
PUBLIC	?_Lrotate@?$_Tree@V?$_Tmap_traits@EV?$vector@VCPoint@@V?$allocator@VCPoint@@@std@@@std@@U?$less@E@2@V?$allocator@U?$pair@$$CBEV?$vector@VCPoint@@V?$allocator@VCPoint@@@std@@@std@@@std@@@2@$0A@@std@@@std@@IAEXPAU_Node@?$_Tree_nod@V?$_Tmap_traits@EV?$vector@VCPoint@@V?$allocator@VCPoint@@@std@@@std@@U?$less@E@2@V?$allocator@U?$pair@$$CBEV?$vector@VCPoint@@V?$allocator@VCPoint@@@std@@@std@@@std@@@2@$0A@@std@@@2@@Z ; std::_Tree<std::_Tmap_traits<unsigned char,std::vector<CPoint,std::allocator<CPoint> >,std::less<unsigned char>,std::allocator<std::pair<unsigned char const ,std::vector<CPoint,std::allocator<CPoint> > > >,0> >::_Lrotate
; Function compile flags: /Ogty
;	COMDAT ?_Lrotate@?$_Tree@V?$_Tmap_traits@EV?$vector@VCPoint@@V?$allocator@VCPoint@@@std@@@std@@U?$less@E@2@V?$allocator@U?$pair@$$CBEV?$vector@VCPoint@@V?$allocator@VCPoint@@@std@@@std@@@std@@@2@$0A@@std@@@std@@IAEXPAU_Node@?$_Tree_nod@V?$_Tmap_traits@EV?$vector@VCPoint@@V?$allocator@VCPoint@@@std@@@std@@U?$less@E@2@V?$allocator@U?$pair@$$CBEV?$vector@VCPoint@@V?$allocator@VCPoint@@@std@@@std@@@std@@@2@$0A@@std@@@2@@Z
_TEXT	SEGMENT
__Wherenode$ = 8					; size = 4
?_Lrotate@?$_Tree@V?$_Tmap_traits@EV?$vector@VCPoint@@V?$allocator@VCPoint@@@std@@@std@@U?$less@E@2@V?$allocator@U?$pair@$$CBEV?$vector@VCPoint@@V?$allocator@VCPoint@@@std@@@std@@@std@@@2@$0A@@std@@@std@@IAEXPAU_Node@?$_Tree_nod@V?$_Tmap_traits@EV?$vector@VCPoint@@V?$allocator@VCPoint@@@std@@@std@@U?$less@E@2@V?$allocator@U?$pair@$$CBEV?$vector@VCPoint@@V?$allocator@VCPoint@@@std@@@std@@@std@@@2@$0A@@std@@@2@@Z PROC NEAR ; std::_Tree<std::_Tmap_traits<unsigned char,std::vector<CPoint,std::allocator<CPoint> >,std::less<unsigned char>,std::allocator<std::pair<unsigned char const ,std::vector<CPoint,std::allocator<CPoint> > > >,0> >::_Lrotate, COMDAT
; _this$ = ecx

; 1015 : 		_Nodeptr _Pnode = _Right(_Wherenode);

  00000	8b 54 24 04	 mov	 edx, DWORD PTR __Wherenode$[esp-4]
  00004	8b 42 08	 mov	 eax, DWORD PTR [edx+8]
  00007	53		 push	 ebx
  00008	56		 push	 esi

; 1016 : 		_Right(_Wherenode) = _Left(_Pnode);

  00009	8b 30		 mov	 esi, DWORD PTR [eax]
  0000b	89 72 08	 mov	 DWORD PTR [edx+8], esi

; 1017 : 
; 1018 : 		if (!_Isnil(_Left(_Pnode)))

  0000e	8b 30		 mov	 esi, DWORD PTR [eax]
  00010	8a 5e 21	 mov	 bl, BYTE PTR [esi+33]
  00013	84 db		 test	 bl, bl
  00015	75 03		 jne	 SHORT $L231558

; 1019 : 			_Parent(_Left(_Pnode)) = _Wherenode;

  00017	89 56 04	 mov	 DWORD PTR [esi+4], edx
$L231558:

; 1020 : 		_Parent(_Pnode) = _Parent(_Wherenode);

  0001a	8b 72 04	 mov	 esi, DWORD PTR [edx+4]
  0001d	89 70 04	 mov	 DWORD PTR [eax+4], esi

; 1021 : 
; 1022 : 		if (_Wherenode == _Root())

  00020	8b 49 04	 mov	 ecx, DWORD PTR [ecx+4]
  00023	3b 51 04	 cmp	 edx, DWORD PTR [ecx+4]
  00026	75 0d		 jne	 SHORT $L231559

; 1023 : 			_Root() = _Pnode;

  00028	89 41 04	 mov	 DWORD PTR [ecx+4], eax
  0002b	5e		 pop	 esi

; 1028 : 
; 1029 : 		_Left(_Pnode) = _Wherenode;

  0002c	89 10		 mov	 DWORD PTR [eax], edx

; 1030 : 		_Parent(_Wherenode) = _Pnode;

  0002e	89 42 04	 mov	 DWORD PTR [edx+4], eax
  00031	5b		 pop	 ebx

; 1031 : 		}

  00032	c2 04 00	 ret	 4
$L231559:

; 1024 : 		else if (_Wherenode == _Left(_Parent(_Wherenode)))

  00035	8b 4a 04	 mov	 ecx, DWORD PTR [edx+4]
  00038	3b 11		 cmp	 edx, DWORD PTR [ecx]
  0003a	75 0c		 jne	 SHORT $L231561

; 1025 : 			_Left(_Parent(_Wherenode)) = _Pnode;

  0003c	89 01		 mov	 DWORD PTR [ecx], eax
  0003e	5e		 pop	 esi

; 1028 : 
; 1029 : 		_Left(_Pnode) = _Wherenode;

  0003f	89 10		 mov	 DWORD PTR [eax], edx

; 1030 : 		_Parent(_Wherenode) = _Pnode;

  00041	89 42 04	 mov	 DWORD PTR [edx+4], eax
  00044	5b		 pop	 ebx

; 1031 : 		}

  00045	c2 04 00	 ret	 4
$L231561:

; 1026 : 		else
; 1027 : 			_Right(_Parent(_Wherenode)) = _Pnode;

  00048	89 41 08	 mov	 DWORD PTR [ecx+8], eax
  0004b	5e		 pop	 esi

; 1028 : 
; 1029 : 		_Left(_Pnode) = _Wherenode;

  0004c	89 10		 mov	 DWORD PTR [eax], edx

; 1030 : 		_Parent(_Wherenode) = _Pnode;

  0004e	89 42 04	 mov	 DWORD PTR [edx+4], eax
  00051	5b		 pop	 ebx

; 1031 : 		}

  00052	c2 04 00	 ret	 4
?_Lrotate@?$_Tree@V?$_Tmap_traits@EV?$vector@VCPoint@@V?$allocator@VCPoint@@@std@@@std@@U?$less@E@2@V?$allocator@U?$pair@$$CBEV?$vector@VCPoint@@V?$allocator@VCPoint@@@std@@@std@@@std@@@2@$0A@@std@@@std@@IAEXPAU_Node@?$_Tree_nod@V?$_Tmap_traits@EV?$vector@VCPoint@@V?$allocator@VCPoint@@@std@@@std@@U?$less@E@2@V?$allocator@U?$pair@$$CBEV?$vector@VCPoint@@V?$allocator@VCPoint@@@std@@@std@@@std@@@2@$0A@@std@@@2@@Z ENDP ; std::_Tree<std::_Tmap_traits<unsigned char,std::vector<CPoint,std::allocator<CPoint> >,std::less<unsigned char>,std::allocator<std::pair<unsigned char const ,std::vector<CPoint,std::allocator<CPoint> > > >,0> >::_Lrotate
_TEXT	ENDS
PUBLIC	?_Rrotate@?$_Tree@V?$_Tmap_traits@EV?$vector@VCPoint@@V?$allocator@VCPoint@@@std@@@std@@U?$less@E@2@V?$allocator@U?$pair@$$CBEV?$vector@VCPoint@@V?$allocator@VCPoint@@@std@@@std@@@std@@@2@$0A@@std@@@std@@IAEXPAU_Node@?$_Tree_nod@V?$_Tmap_traits@EV?$vector@VCPoint@@V?$allocator@VCPoint@@@std@@@std@@U?$less@E@2@V?$allocator@U?$pair@$$CBEV?$vector@VCPoint@@V?$allocator@VCPoint@@@std@@@std@@@std@@@2@$0A@@std@@@2@@Z ; std::_Tree<std::_Tmap_traits<unsigned char,std::vector<CPoint,std::allocator<CPoint> >,std::less<unsigned char>,std::allocator<std::pair<unsigned char const ,std::vector<CPoint,std::allocator<CPoint> > > >,0> >::_Rrotate
; Function compile flags: /Ogty
;	COMDAT ?_Rrotate@?$_Tree@V?$_Tmap_traits@EV?$vector@VCPoint@@V?$allocator@VCPoint@@@std@@@std@@U?$less@E@2@V?$allocator@U?$pair@$$CBEV?$vector@VCPoint@@V?$allocator@VCPoint@@@std@@@std@@@std@@@2@$0A@@std@@@std@@IAEXPAU_Node@?$_Tree_nod@V?$_Tmap_traits@EV?$vector@VCPoint@@V?$allocator@VCPoint@@@std@@@std@@U?$less@E@2@V?$allocator@U?$pair@$$CBEV?$vector@VCPoint@@V?$allocator@VCPoint@@@std@@@std@@@std@@@2@$0A@@std@@@2@@Z
_TEXT	SEGMENT
__Wherenode$ = 8					; size = 4
?_Rrotate@?$_Tree@V?$_Tmap_traits@EV?$vector@VCPoint@@V?$allocator@VCPoint@@@std@@@std@@U?$less@E@2@V?$allocator@U?$pair@$$CBEV?$vector@VCPoint@@V?$allocator@VCPoint@@@std@@@std@@@std@@@2@$0A@@std@@@std@@IAEXPAU_Node@?$_Tree_nod@V?$_Tmap_traits@EV?$vector@VCPoint@@V?$allocator@VCPoint@@@std@@@std@@U?$less@E@2@V?$allocator@U?$pair@$$CBEV?$vector@VCPoint@@V?$allocator@VCPoint@@@std@@@std@@@std@@@2@$0A@@std@@@2@@Z PROC NEAR ; std::_Tree<std::_Tmap_traits<unsigned char,std::vector<CPoint,std::allocator<CPoint> >,std::less<unsigned char>,std::allocator<std::pair<unsigned char const ,std::vector<CPoint,std::allocator<CPoint> > > >,0> >::_Rrotate, COMDAT
; _this$ = ecx

; 1069 : 		_Nodeptr _Pnode = _Left(_Wherenode);

  00000	8b 54 24 04	 mov	 edx, DWORD PTR __Wherenode$[esp-4]
  00004	8b 02		 mov	 eax, DWORD PTR [edx]
  00006	53		 push	 ebx
  00007	56		 push	 esi

; 1070 : 		_Left(_Wherenode) = _Right(_Pnode);

  00008	8b 70 08	 mov	 esi, DWORD PTR [eax+8]
  0000b	89 32		 mov	 DWORD PTR [edx], esi

; 1071 : 
; 1072 : 		if (!_Isnil(_Right(_Pnode)))

  0000d	8b 70 08	 mov	 esi, DWORD PTR [eax+8]
  00010	8a 5e 21	 mov	 bl, BYTE PTR [esi+33]
  00013	84 db		 test	 bl, bl
  00015	75 03		 jne	 SHORT $L231566

; 1073 : 			_Parent(_Right(_Pnode)) = _Wherenode;

  00017	89 56 04	 mov	 DWORD PTR [esi+4], edx
$L231566:

; 1074 : 		_Parent(_Pnode) = _Parent(_Wherenode);

  0001a	8b 72 04	 mov	 esi, DWORD PTR [edx+4]
  0001d	89 70 04	 mov	 DWORD PTR [eax+4], esi

; 1075 : 
; 1076 : 		if (_Wherenode == _Root())

  00020	8b 49 04	 mov	 ecx, DWORD PTR [ecx+4]
  00023	3b 51 04	 cmp	 edx, DWORD PTR [ecx+4]
  00026	75 0e		 jne	 SHORT $L231567

; 1077 : 			_Root() = _Pnode;

  00028	89 41 04	 mov	 DWORD PTR [ecx+4], eax
  0002b	5e		 pop	 esi

; 1082 : 
; 1083 : 		_Right(_Pnode) = _Wherenode;

  0002c	89 50 08	 mov	 DWORD PTR [eax+8], edx

; 1084 : 		_Parent(_Wherenode) = _Pnode;

  0002f	89 42 04	 mov	 DWORD PTR [edx+4], eax
  00032	5b		 pop	 ebx

; 1085 : 		}

  00033	c2 04 00	 ret	 4
$L231567:

; 1078 : 		else if (_Wherenode == _Right(_Parent(_Wherenode)))

  00036	8b 4a 04	 mov	 ecx, DWORD PTR [edx+4]
  00039	3b 51 08	 cmp	 edx, DWORD PTR [ecx+8]
  0003c	75 0e		 jne	 SHORT $L231569

; 1079 : 			_Right(_Parent(_Wherenode)) = _Pnode;

  0003e	89 41 08	 mov	 DWORD PTR [ecx+8], eax
  00041	5e		 pop	 esi

; 1082 : 
; 1083 : 		_Right(_Pnode) = _Wherenode;

  00042	89 50 08	 mov	 DWORD PTR [eax+8], edx

; 1084 : 		_Parent(_Wherenode) = _Pnode;

  00045	89 42 04	 mov	 DWORD PTR [edx+4], eax
  00048	5b		 pop	 ebx

; 1085 : 		}

  00049	c2 04 00	 ret	 4
$L231569:

; 1080 : 		else
; 1081 : 			_Left(_Parent(_Wherenode)) = _Pnode;

  0004c	89 01		 mov	 DWORD PTR [ecx], eax
  0004e	5e		 pop	 esi

; 1082 : 
; 1083 : 		_Right(_Pnode) = _Wherenode;

  0004f	89 50 08	 mov	 DWORD PTR [eax+8], edx

; 1084 : 		_Parent(_Wherenode) = _Pnode;

  00052	89 42 04	 mov	 DWORD PTR [edx+4], eax
  00055	5b		 pop	 ebx

; 1085 : 		}

  00056	c2 04 00	 ret	 4
?_Rrotate@?$_Tree@V?$_Tmap_traits@EV?$vector@VCPoint@@V?$allocator@VCPoint@@@std@@@std@@U?$less@E@2@V?$allocator@U?$pair@$$CBEV?$vector@VCPoint@@V?$allocator@VCPoint@@@std@@@std@@@std@@@2@$0A@@std@@@std@@IAEXPAU_Node@?$_Tree_nod@V?$_Tmap_traits@EV?$vector@VCPoint@@V?$allocator@VCPoint@@@std@@@std@@U?$less@E@2@V?$allocator@U?$pair@$$CBEV?$vector@VCPoint@@V?$allocator@VCPoint@@@std@@@std@@@std@@@2@$0A@@std@@@2@@Z ENDP ; std::_Tree<std::_Tmap_traits<unsigned char,std::vector<CPoint,std::allocator<CPoint> >,std::less<unsigned char>,std::allocator<std::pair<unsigned char const ,std::vector<CPoint,std::allocator<CPoint> > > >,0> >::_Rrotate
_TEXT	ENDS
PUBLIC	?destroy@?$allocator@PAU_Node@?$_Tree_nod@V?$_Tmap_traits@EV?$vector@VCPoint@@V?$allocator@VCPoint@@@std@@@std@@U?$less@E@2@V?$allocator@U?$pair@$$CBEV?$vector@VCPoint@@V?$allocator@VCPoint@@@std@@@std@@@std@@@2@$0A@@std@@@std@@@std@@QAEXPAPAU_Node@?$_Tree_nod@V?$_Tmap_traits@EV?$vector@VCPoint@@V?$allocator@VCPoint@@@std@@@std@@U?$less@E@2@V?$allocator@U?$pair@$$CBEV?$vector@VCPoint@@V?$allocator@VCPoint@@@std@@@std@@@std@@@2@$0A@@std@@@2@@Z ; std::allocator<std::_Tree_nod<std::_Tmap_traits<unsigned char,std::vector<CPoint,std::allocator<CPoint> >,std::less<unsigned char>,std::allocator<std::pair<unsigned char const ,std::vector<CPoint,std::allocator<CPoint> > > >,0> >::_Node *>::destroy
; Function compile flags: /Ogty
; File c:\program files\microsoft visual studio .net 2003\vc7\include\xmemory
;	COMDAT ?destroy@?$allocator@PAU_Node@?$_Tree_nod@V?$_Tmap_traits@EV?$vector@VCPoint@@V?$allocator@VCPoint@@@std@@@std@@U?$less@E@2@V?$allocator@U?$pair@$$CBEV?$vector@VCPoint@@V?$allocator@VCPoint@@@std@@@std@@@std@@@2@$0A@@std@@@std@@@std@@QAEXPAPAU_Node@?$_Tree_nod@V?$_Tmap_traits@EV?$vector@VCPoint@@V?$allocator@VCPoint@@@std@@@std@@U?$less@E@2@V?$allocator@U?$pair@$$CBEV?$vector@VCPoint@@V?$allocator@VCPoint@@@std@@@std@@@std@@@2@$0A@@std@@@2@@Z
_TEXT	SEGMENT
__Ptr$ = 8						; size = 4
?destroy@?$allocator@PAU_Node@?$_Tree_nod@V?$_Tmap_traits@EV?$vector@VCPoint@@V?$allocator@VCPoint@@@std@@@std@@U?$less@E@2@V?$allocator@U?$pair@$$CBEV?$vector@VCPoint@@V?$allocator@VCPoint@@@std@@@std@@@std@@@2@$0A@@std@@@std@@@std@@QAEXPAPAU_Node@?$_Tree_nod@V?$_Tmap_traits@EV?$vector@VCPoint@@V?$allocator@VCPoint@@@std@@@std@@U?$less@E@2@V?$allocator@U?$pair@$$CBEV?$vector@VCPoint@@V?$allocator@VCPoint@@@std@@@std@@@std@@@2@$0A@@std@@@2@@Z PROC NEAR ; std::allocator<std::_Tree_nod<std::_Tmap_traits<unsigned char,std::vector<CPoint,std::allocator<CPoint> >,std::less<unsigned char>,std::allocator<std::pair<unsigned char const ,std::vector<CPoint,std::allocator<CPoint> > > >,0> >::_Node *>::destroy, COMDAT
; _this$ = ecx

; 152  : 		_Destroy(_Ptr);
; 153  : 		}

  00000	c2 04 00	 ret	 4
?destroy@?$allocator@PAU_Node@?$_Tree_nod@V?$_Tmap_traits@EV?$vector@VCPoint@@V?$allocator@VCPoint@@@std@@@std@@U?$less@E@2@V?$allocator@U?$pair@$$CBEV?$vector@VCPoint@@V?$allocator@VCPoint@@@std@@@std@@@std@@@2@$0A@@std@@@std@@@std@@QAEXPAPAU_Node@?$_Tree_nod@V?$_Tmap_traits@EV?$vector@VCPoint@@V?$allocator@VCPoint@@@std@@@std@@U?$less@E@2@V?$allocator@U?$pair@$$CBEV?$vector@VCPoint@@V?$allocator@VCPoint@@@std@@@std@@@std@@@2@$0A@@std@@@2@@Z ENDP ; std::allocator<std::_Tree_nod<std::_Tmap_traits<unsigned char,std::vector<CPoint,std::allocator<CPoint> >,std::less<unsigned char>,std::allocator<std::pair<unsigned char const ,std::vector<CPoint,std::allocator<CPoint> > > >,0> >::_Node *>::destroy
_TEXT	ENDS
PUBLIC	?max_size@?$vector@VCPoint@@V?$allocator@VCPoint@@@std@@@std@@QBEIXZ ; std::vector<CPoint,std::allocator<CPoint> >::max_size
; Function compile flags: /Ogty
; File c:\program files\microsoft visual studio .net 2003\vc7\include\vector
;	COMDAT ?max_size@?$vector@VCPoint@@V?$allocator@VCPoint@@@std@@@std@@QBEIXZ
_TEXT	SEGMENT
?max_size@?$vector@VCPoint@@V?$allocator@VCPoint@@@std@@@std@@QBEIXZ PROC NEAR ; std::vector<CPoint,std::allocator<CPoint> >::max_size, COMDAT
; _this$ = ecx

; 521  : 		return (this->_Alval.max_size());

  00000	b8 ff ff ff 1f	 mov	 eax, 536870911		; 1fffffffH

; 522  : 		}

  00005	c3		 ret	 0
?max_size@?$vector@VCPoint@@V?$allocator@VCPoint@@@std@@@std@@QBEIXZ ENDP ; std::vector<CPoint,std::allocator<CPoint> >::max_size
_TEXT	ENDS
PUBLIC	?allocate@?$allocator@VCPoint@@@std@@QAEPAVCPoint@@I@Z ; std::allocator<CPoint>::allocate
; Function compile flags: /Ogty
; File c:\program files\microsoft visual studio .net 2003\vc7\include\xmemory
;	COMDAT ?allocate@?$allocator@VCPoint@@@std@@QAEPAVCPoint@@I@Z
_TEXT	SEGMENT
__Count$ = 8						; size = 4
?allocate@?$allocator@VCPoint@@@std@@QAEPAVCPoint@@I@Z PROC NEAR ; std::allocator<CPoint>::allocate, COMDAT
; _this$ = ecx

; 137  : 		return (_Allocate(_Count, (pointer)0));

  00000	8b 44 24 04	 mov	 eax, DWORD PTR __Count$[esp-4]
  00004	8d 0c c5 00 00
	00 00		 lea	 ecx, DWORD PTR [eax*8]
  0000b	51		 push	 ecx
  0000c	e8 00 00 00 00	 call	 ??2@YAPAXI@Z		; operator new
  00011	83 c4 04	 add	 esp, 4

; 138  : 		}

  00014	c2 04 00	 ret	 4
?allocate@?$allocator@VCPoint@@@std@@QAEPAVCPoint@@I@Z ENDP ; std::allocator<CPoint>::allocate
_TEXT	ENDS
PUBLIC	?_Inc@const_iterator@?$_Tree@V?$_Tmap_traits@EV?$vector@VCPoint@@V?$allocator@VCPoint@@@std@@@std@@U?$less@E@2@V?$allocator@U?$pair@$$CBEV?$vector@VCPoint@@V?$allocator@VCPoint@@@std@@@std@@@std@@@2@$0A@@std@@@std@@QAEXXZ ; std::_Tree<std::_Tmap_traits<unsigned char,std::vector<CPoint,std::allocator<CPoint> >,std::less<unsigned char>,std::allocator<std::pair<unsigned char const ,std::vector<CPoint,std::allocator<CPoint> > > >,0> >::const_iterator::_Inc
; Function compile flags: /Ogty
; File c:\program files\microsoft visual studio .net 2003\vc7\include\xtree
;	COMDAT ?_Inc@const_iterator@?$_Tree@V?$_Tmap_traits@EV?$vector@VCPoint@@V?$allocator@VCPoint@@@std@@@std@@U?$less@E@2@V?$allocator@U?$pair@$$CBEV?$vector@VCPoint@@V?$allocator@VCPoint@@@std@@@std@@@std@@@2@$0A@@std@@@std@@QAEXXZ
_TEXT	SEGMENT
?_Inc@const_iterator@?$_Tree@V?$_Tmap_traits@EV?$vector@VCPoint@@V?$allocator@VCPoint@@@std@@@std@@U?$less@E@2@V?$allocator@U?$pair@$$CBEV?$vector@VCPoint@@V?$allocator@VCPoint@@@std@@@std@@@std@@@2@$0A@@std@@@std@@QAEXXZ PROC NEAR ; std::_Tree<std::_Tmap_traits<unsigned char,std::vector<CPoint,std::allocator<CPoint> >,std::less<unsigned char>,std::allocator<std::pair<unsigned char const ,std::vector<CPoint,std::allocator<CPoint> > > >,0> >::const_iterator::_Inc, COMDAT
; _this$ = ecx

; 268  : 			if (_Isnil(_Ptr))

  00000	8b 01		 mov	 eax, DWORD PTR [ecx]
  00002	8a 50 21	 mov	 dl, BYTE PTR [eax+33]
  00005	84 d2		 test	 dl, dl
  00007	75 4d		 jne	 SHORT $L231661

; 269  : 				;	// end() shouldn't be incremented, don't move
; 270  : 			else if (!_Isnil(_Right(_Ptr)))

  00009	8b 50 08	 mov	 edx, DWORD PTR [eax+8]
  0000c	53		 push	 ebx
  0000d	8a 5a 21	 mov	 bl, BYTE PTR [edx+33]
  00010	84 db		 test	 bl, bl
  00012	75 1b		 jne	 SHORT $L234406

; 271  : 				_Ptr = _Min(_Right(_Ptr));	// ==> smallest of right subtree

  00014	8b 02		 mov	 eax, DWORD PTR [edx]
  00016	8a 58 21	 mov	 bl, BYTE PTR [eax+33]
  00019	84 db		 test	 bl, bl
  0001b	75 0e		 jne	 SHORT $L234387
  0001d	8d 49 00	 npad	 3
$L234386:
  00020	8b d0		 mov	 edx, eax
  00022	8b 02		 mov	 eax, DWORD PTR [edx]
  00024	8a 58 21	 mov	 bl, BYTE PTR [eax+33]
  00027	84 db		 test	 bl, bl
  00029	74 f5		 je	 SHORT $L234386
$L234387:
  0002b	89 11		 mov	 DWORD PTR [ecx], edx
  0002d	5b		 pop	 ebx

; 279  : 				}
; 280  : 			}

  0002e	c3		 ret	 0
$L234406:

; 272  : 			else
; 273  : 				{	// climb looking for right subtree
; 274  : 				_Nodeptr _Pnode;
; 275  : 				while (!_Isnil(_Pnode = _Parent(_Ptr))
; 276  : 					&& _Ptr == _Right(_Pnode))

  0002f	8b 40 04	 mov	 eax, DWORD PTR [eax+4]
  00032	8a 50 21	 mov	 dl, BYTE PTR [eax+33]
  00035	84 d2		 test	 dl, dl
  00037	75 1a		 jne	 SHORT $L231665
  00039	8d a4 24 00 00
	00 00		 npad	 7
$L231664:
  00040	8b 11		 mov	 edx, DWORD PTR [ecx]
  00042	3b 50 08	 cmp	 edx, DWORD PTR [eax+8]
  00045	75 0c		 jne	 SHORT $L231665

; 277  : 					_Ptr = _Pnode;	// ==> parent while right subtree

  00047	89 01		 mov	 DWORD PTR [ecx], eax
  00049	8b 40 04	 mov	 eax, DWORD PTR [eax+4]
  0004c	8a 50 21	 mov	 dl, BYTE PTR [eax+33]
  0004f	84 d2		 test	 dl, dl
  00051	74 ed		 je	 SHORT $L231664
$L231665:

; 278  : 				_Ptr = _Pnode;	// ==> parent (head if end())

  00053	89 01		 mov	 DWORD PTR [ecx], eax
  00055	5b		 pop	 ebx
$L231661:

; 279  : 				}
; 280  : 			}

  00056	c3		 ret	 0
?_Inc@const_iterator@?$_Tree@V?$_Tmap_traits@EV?$vector@VCPoint@@V?$allocator@VCPoint@@@std@@@std@@U?$less@E@2@V?$allocator@U?$pair@$$CBEV?$vector@VCPoint@@V?$allocator@VCPoint@@@std@@@std@@@std@@@2@$0A@@std@@@std@@QAEXXZ ENDP ; std::_Tree<std::_Tmap_traits<unsigned char,std::vector<CPoint,std::allocator<CPoint> >,std::less<unsigned char>,std::allocator<std::pair<unsigned char const ,std::vector<CPoint,std::allocator<CPoint> > > >,0> >::const_iterator::_Inc
_TEXT	ENDS
PUBLIC	??Giterator@?$vector@VCPoint@@V?$allocator@VCPoint@@@std@@@std@@QBEHABVconst_iterator@12@@Z ; std::vector<CPoint,std::allocator<CPoint> >::iterator::operator-
; Function compile flags: /Ogty
; File c:\program files\microsoft visual studio .net 2003\vc7\include\vector
;	COMDAT ??Giterator@?$vector@VCPoint@@V?$allocator@VCPoint@@@std@@@std@@QBEHABVconst_iterator@12@@Z
_TEXT	SEGMENT
__Right$ = 8						; size = 4
??Giterator@?$vector@VCPoint@@V?$allocator@VCPoint@@@std@@@std@@QBEHABVconst_iterator@12@@Z PROC NEAR ; std::vector<CPoint,std::allocator<CPoint> >::iterator::operator-, COMDAT
; _this$ = ecx

; 279  : 			return ((const_iterator)*this - _Right);

  00000	8b 01		 mov	 eax, DWORD PTR [ecx]
  00002	8b 4c 24 04	 mov	 ecx, DWORD PTR __Right$[esp-4]
  00006	2b 01		 sub	 eax, DWORD PTR [ecx]
  00008	c1 f8 03	 sar	 eax, 3

; 280  : 			}

  0000b	c2 04 00	 ret	 4
??Giterator@?$vector@VCPoint@@V?$allocator@VCPoint@@@std@@@std@@QBEHABVconst_iterator@12@@Z ENDP ; std::vector<CPoint,std::allocator<CPoint> >::iterator::operator-
_TEXT	ENDS
PUBLIC	?allocate@?$allocator@U_Node@?$_Tree_nod@V?$_Tmap_traits@EV?$vector@VCPoint@@V?$allocator@VCPoint@@@std@@@std@@U?$less@E@2@V?$allocator@U?$pair@$$CBEV?$vector@VCPoint@@V?$allocator@VCPoint@@@std@@@std@@@std@@@2@$0A@@std@@@std@@@std@@QAEPAU_Node@?$_Tree_nod@V?$_Tmap_traits@EV?$vector@VCPoint@@V?$allocator@VCPoint@@@std@@@std@@U?$less@E@2@V?$allocator@U?$pair@$$CBEV?$vector@VCPoint@@V?$allocator@VCPoint@@@std@@@std@@@std@@@2@$0A@@std@@@2@I@Z ; std::allocator<std::_Tree_nod<std::_Tmap_traits<unsigned char,std::vector<CPoint,std::allocator<CPoint> >,std::less<unsigned char>,std::allocator<std::pair<unsigned char const ,std::vector<CPoint,std::allocator<CPoint> > > >,0> >::_Node>::allocate
; Function compile flags: /Ogty
; File c:\program files\microsoft visual studio .net 2003\vc7\include\xmemory
;	COMDAT ?allocate@?$allocator@U_Node@?$_Tree_nod@V?$_Tmap_traits@EV?$vector@VCPoint@@V?$allocator@VCPoint@@@std@@@std@@U?$less@E@2@V?$allocator@U?$pair@$$CBEV?$vector@VCPoint@@V?$allocator@VCPoint@@@std@@@std@@@std@@@2@$0A@@std@@@std@@@std@@QAEPAU_Node@?$_Tree_nod@V?$_Tmap_traits@EV?$vector@VCPoint@@V?$allocator@VCPoint@@@std@@@std@@U?$less@E@2@V?$allocator@U?$pair@$$CBEV?$vector@VCPoint@@V?$allocator@VCPoint@@@std@@@std@@@std@@@2@$0A@@std@@@2@I@Z
_TEXT	SEGMENT
__Count$ = 8						; size = 4
?allocate@?$allocator@U_Node@?$_Tree_nod@V?$_Tmap_traits@EV?$vector@VCPoint@@V?$allocator@VCPoint@@@std@@@std@@U?$less@E@2@V?$allocator@U?$pair@$$CBEV?$vector@VCPoint@@V?$allocator@VCPoint@@@std@@@std@@@std@@@2@$0A@@std@@@std@@@std@@QAEPAU_Node@?$_Tree_nod@V?$_Tmap_traits@EV?$vector@VCPoint@@V?$allocator@VCPoint@@@std@@@std@@U?$less@E@2@V?$allocator@U?$pair@$$CBEV?$vector@VCPoint@@V?$allocator@VCPoint@@@std@@@std@@@std@@@2@$0A@@std@@@2@I@Z PROC NEAR ; std::allocator<std::_Tree_nod<std::_Tmap_traits<unsigned char,std::vector<CPoint,std::allocator<CPoint> >,std::less<unsigned char>,std::allocator<std::pair<unsigned char const ,std::vector<CPoint,std::allocator<CPoint> > > >,0> >::_Node>::allocate, COMDAT
; _this$ = ecx

; 137  : 		return (_Allocate(_Count, (pointer)0));

  00000	8b 44 24 04	 mov	 eax, DWORD PTR __Count$[esp-4]
  00004	8d 04 c0	 lea	 eax, DWORD PTR [eax+eax*8]
  00007	c1 e0 02	 shl	 eax, 2
  0000a	50		 push	 eax
  0000b	e8 00 00 00 00	 call	 ??2@YAPAXI@Z		; operator new
  00010	83 c4 04	 add	 esp, 4

; 138  : 		}

  00013	c2 04 00	 ret	 4
?allocate@?$allocator@U_Node@?$_Tree_nod@V?$_Tmap_traits@EV?$vector@VCPoint@@V?$allocator@VCPoint@@@std@@@std@@U?$less@E@2@V?$allocator@U?$pair@$$CBEV?$vector@VCPoint@@V?$allocator@VCPoint@@@std@@@std@@@std@@@2@$0A@@std@@@std@@@std@@QAEPAU_Node@?$_Tree_nod@V?$_Tmap_traits@EV?$vector@VCPoint@@V?$allocator@VCPoint@@@std@@@std@@U?$less@E@2@V?$allocator@U?$pair@$$CBEV?$vector@VCPoint@@V?$allocator@VCPoint@@@std@@@std@@@std@@@2@$0A@@std@@@2@I@Z ENDP ; std::allocator<std::_Tree_nod<std::_Tmap_traits<unsigned char,std::vector<CPoint,std::allocator<CPoint> >,std::less<unsigned char>,std::allocator<std::pair<unsigned char const ,std::vector<CPoint,std::allocator<CPoint> > > >,0> >::_Node>::allocate
_TEXT	ENDS
PUBLIC	?_Dec@const_iterator@?$_Tree@V?$_Tmap_traits@EV?$vector@VCPoint@@V?$allocator@VCPoint@@@std@@@std@@U?$less@E@2@V?$allocator@U?$pair@$$CBEV?$vector@VCPoint@@V?$allocator@VCPoint@@@std@@@std@@@std@@@2@$0A@@std@@@std@@QAEXXZ ; std::_Tree<std::_Tmap_traits<unsigned char,std::vector<CPoint,std::allocator<CPoint> >,std::less<unsigned char>,std::allocator<std::pair<unsigned char const ,std::vector<CPoint,std::allocator<CPoint> > > >,0> >::const_iterator::_Dec
; Function compile flags: /Ogty
; File c:\program files\microsoft visual studio .net 2003\vc7\include\xtree
;	COMDAT ?_Dec@const_iterator@?$_Tree@V?$_Tmap_traits@EV?$vector@VCPoint@@V?$allocator@VCPoint@@@std@@@std@@U?$less@E@2@V?$allocator@U?$pair@$$CBEV?$vector@VCPoint@@V?$allocator@VCPoint@@@std@@@std@@@std@@@2@$0A@@std@@@std@@QAEXXZ
_TEXT	SEGMENT
?_Dec@const_iterator@?$_Tree@V?$_Tmap_traits@EV?$vector@VCPoint@@V?$allocator@VCPoint@@@std@@@std@@U?$less@E@2@V?$allocator@U?$pair@$$CBEV?$vector@VCPoint@@V?$allocator@VCPoint@@@std@@@std@@@std@@@2@$0A@@std@@@std@@QAEXXZ PROC NEAR ; std::_Tree<std::_Tmap_traits<unsigned char,std::vector<CPoint,std::allocator<CPoint> >,std::less<unsigned char>,std::allocator<std::pair<unsigned char const ,std::vector<CPoint,std::allocator<CPoint> > > >,0> >::const_iterator::_Dec, COMDAT
; _this$ = ecx

; 251  : 			if (_Isnil(_Ptr))

  00000	8b 01		 mov	 eax, DWORD PTR [ecx]
  00002	8a 50 21	 mov	 dl, BYTE PTR [eax+33]
  00005	84 d2		 test	 dl, dl
  00007	74 06		 je	 SHORT $L231784

; 252  : 				_Ptr = _Right(_Ptr);	// end() ==> rightmost

  00009	8b 40 08	 mov	 eax, DWORD PTR [eax+8]
  0000c	89 01		 mov	 DWORD PTR [ecx], eax

; 263  : 				}
; 264  : 			}

  0000e	c3		 ret	 0
$L231784:

; 253  : 			else if (!_Isnil(_Left(_Ptr)))

  0000f	8b 10		 mov	 edx, DWORD PTR [eax]
  00011	53		 push	 ebx
  00012	8a 5a 21	 mov	 bl, BYTE PTR [edx+33]
  00015	84 db		 test	 bl, bl
  00017	75 1a		 jne	 SHORT $L234477

; 254  : 				_Ptr = _Max(_Left(_Ptr));	// ==> largest of left subtree

  00019	8b 42 08	 mov	 eax, DWORD PTR [edx+8]
  0001c	8a 58 21	 mov	 bl, BYTE PTR [eax+33]
  0001f	84 db		 test	 bl, bl
  00021	75 0c		 jne	 SHORT $L234455
$L234454:
  00023	8b d0		 mov	 edx, eax
  00025	8b 42 08	 mov	 eax, DWORD PTR [edx+8]
  00028	8a 58 21	 mov	 bl, BYTE PTR [eax+33]
  0002b	84 db		 test	 bl, bl
  0002d	74 f4		 je	 SHORT $L234454
$L234455:
  0002f	89 11		 mov	 DWORD PTR [ecx], edx
  00031	5b		 pop	 ebx

; 263  : 				}
; 264  : 			}

  00032	c3		 ret	 0
$L234477:

; 255  : 			else
; 256  : 				{	// climb looking for left subtree
; 257  : 				_Nodeptr _Pnode;
; 258  : 				while (!_Isnil(_Pnode = _Parent(_Ptr))
; 259  : 					&& _Ptr == _Left(_Pnode))

  00033	8b 40 04	 mov	 eax, DWORD PTR [eax+4]
  00036	8a 50 21	 mov	 dl, BYTE PTR [eax+33]
  00039	84 d2		 test	 dl, dl
  0003b	75 1e		 jne	 SHORT $L234480
  0003d	8d 49 00	 npad	 3
$L231790:
  00040	8b 11		 mov	 edx, DWORD PTR [ecx]
  00042	3b 10		 cmp	 edx, DWORD PTR [eax]
  00044	75 0c		 jne	 SHORT $L231791

; 260  : 					_Ptr = _Pnode;	// ==> parent while left subtree

  00046	89 01		 mov	 DWORD PTR [ecx], eax
  00048	8b 40 04	 mov	 eax, DWORD PTR [eax+4]
  0004b	8a 50 21	 mov	 dl, BYTE PTR [eax+33]
  0004e	84 d2		 test	 dl, dl
  00050	74 ee		 je	 SHORT $L231790
$L231791:

; 261  : 				if (!_Isnil(_Pnode))

  00052	8a 50 21	 mov	 dl, BYTE PTR [eax+33]
  00055	84 d2		 test	 dl, dl
  00057	75 02		 jne	 SHORT $L234480

; 262  : 					_Ptr = _Pnode;	// ==> parent if not head

  00059	89 01		 mov	 DWORD PTR [ecx], eax
$L234480:
  0005b	5b		 pop	 ebx

; 263  : 				}
; 264  : 			}

  0005c	c3		 ret	 0
?_Dec@const_iterator@?$_Tree@V?$_Tmap_traits@EV?$vector@VCPoint@@V?$allocator@VCPoint@@@std@@@std@@U?$less@E@2@V?$allocator@U?$pair@$$CBEV?$vector@VCPoint@@V?$allocator@VCPoint@@@std@@@std@@@std@@@2@$0A@@std@@@std@@QAEXXZ ENDP ; std::_Tree<std::_Tmap_traits<unsigned char,std::vector<CPoint,std::allocator<CPoint> >,std::less<unsigned char>,std::allocator<std::pair<unsigned char const ,std::vector<CPoint,std::allocator<CPoint> > > >,0> >::const_iterator::_Dec
_TEXT	ENDS
PUBLIC	??0?$_Tree_nod@V?$_Tmap_traits@EV?$vector@VCPoint@@V?$allocator@VCPoint@@@std@@@std@@U?$less@E@2@V?$allocator@U?$pair@$$CBEV?$vector@VCPoint@@V?$allocator@VCPoint@@@std@@@std@@@std@@@2@$0A@@std@@@std@@IAE@ABU?$less@E@1@V?$allocator@U?$pair@$$CBEV?$vector@VCPoint@@V?$allocator@VCPoint@@@std@@@std@@@std@@@1@@Z ; std::_Tree_nod<std::_Tmap_traits<unsigned char,std::vector<CPoint,std::allocator<CPoint> >,std::less<unsigned char>,std::allocator<std::pair<unsigned char const ,std::vector<CPoint,std::allocator<CPoint> > > >,0> >::_Tree_nod<std::_Tmap_traits<unsigned char,std::vector<CPoint,std::allocator<CPoint> >,std::less<unsigned char>,std::allocator<std::pair<unsigned char const ,std::vector<CPoint,std::allocator<CPoint> > > >,0> >
; Function compile flags: /Ogty
;	COMDAT ??0?$_Tree_nod@V?$_Tmap_traits@EV?$vector@VCPoint@@V?$allocator@VCPoint@@@std@@@std@@U?$less@E@2@V?$allocator@U?$pair@$$CBEV?$vector@VCPoint@@V?$allocator@VCPoint@@@std@@@std@@@std@@@2@$0A@@std@@@std@@IAE@ABU?$less@E@1@V?$allocator@U?$pair@$$CBEV?$vector@VCPoint@@V?$allocator@VCPoint@@@std@@@std@@@std@@@1@@Z
_TEXT	SEGMENT
__Parg$ = 8						; size = 4
__Al$ = 12						; size = 1
??0?$_Tree_nod@V?$_Tmap_traits@EV?$vector@VCPoint@@V?$allocator@VCPoint@@@std@@@std@@U?$less@E@2@V?$allocator@U?$pair@$$CBEV?$vector@VCPoint@@V?$allocator@VCPoint@@@std@@@std@@@std@@@2@$0A@@std@@@std@@IAE@ABU?$less@E@1@V?$allocator@U?$pair@$$CBEV?$vector@VCPoint@@V?$allocator@VCPoint@@@std@@@std@@@std@@@1@@Z PROC NEAR ; std::_Tree_nod<std::_Tmap_traits<unsigned char,std::vector<CPoint,std::allocator<CPoint> >,std::less<unsigned char>,std::allocator<std::pair<unsigned char const ,std::vector<CPoint,std::allocator<CPoint> > > >,0> >::_Tree_nod<std::_Tmap_traits<unsigned char,std::vector<CPoint,std::allocator<CPoint> >,std::less<unsigned char>,std::allocator<std::pair<unsigned char const ,std::vector<CPoint,std::allocator<CPoint> > > >,0> >, COMDAT
; _this$ = ecx

; 54   : 		{	// construct traits from _Parg and allocator from _Al

  00000	8b c1		 mov	 eax, ecx

; 55   : 		}

  00002	c2 08 00	 ret	 8
??0?$_Tree_nod@V?$_Tmap_traits@EV?$vector@VCPoint@@V?$allocator@VCPoint@@@std@@@std@@U?$less@E@2@V?$allocator@U?$pair@$$CBEV?$vector@VCPoint@@V?$allocator@VCPoint@@@std@@@std@@@std@@@2@$0A@@std@@@std@@IAE@ABU?$less@E@1@V?$allocator@U?$pair@$$CBEV?$vector@VCPoint@@V?$allocator@VCPoint@@@std@@@std@@@std@@@1@@Z ENDP ; std::_Tree_nod<std::_Tmap_traits<unsigned char,std::vector<CPoint,std::allocator<CPoint> >,std::less<unsigned char>,std::allocator<std::pair<unsigned char const ,std::vector<CPoint,std::allocator<CPoint> > > >,0> >::_Tree_nod<std::_Tmap_traits<unsigned char,std::vector<CPoint,std::allocator<CPoint> >,std::less<unsigned char>,std::allocator<std::pair<unsigned char const ,std::vector<CPoint,std::allocator<CPoint> > > >,0> >
_TEXT	ENDS
PUBLIC	?construct@?$allocator@PAU_Node@?$_Tree_nod@V?$_Tmap_traits@EV?$vector@VCPoint@@V?$allocator@VCPoint@@@std@@@std@@U?$less@E@2@V?$allocator@U?$pair@$$CBEV?$vector@VCPoint@@V?$allocator@VCPoint@@@std@@@std@@@std@@@2@$0A@@std@@@std@@@std@@QAEXPAPAU_Node@?$_Tree_nod@V?$_Tmap_traits@EV?$vector@VCPoint@@V?$allocator@VCPoint@@@std@@@std@@U?$less@E@2@V?$allocator@U?$pair@$$CBEV?$vector@VCPoint@@V?$allocator@VCPoint@@@std@@@std@@@std@@@2@$0A@@std@@@2@ABQAU342@@Z ; std::allocator<std::_Tree_nod<std::_Tmap_traits<unsigned char,std::vector<CPoint,std::allocator<CPoint> >,std::less<unsigned char>,std::allocator<std::pair<unsigned char const ,std::vector<CPoint,std::allocator<CPoint> > > >,0> >::_Node *>::construct
; Function compile flags: /Ogty
; File c:\program files\microsoft visual studio .net 2003\vc7\include\xmemory
;	COMDAT ?construct@?$allocator@PAU_Node@?$_Tree_nod@V?$_Tmap_traits@EV?$vector@VCPoint@@V?$allocator@VCPoint@@@std@@@std@@U?$less@E@2@V?$allocator@U?$pair@$$CBEV?$vector@VCPoint@@V?$allocator@VCPoint@@@std@@@std@@@std@@@2@$0A@@std@@@std@@@std@@QAEXPAPAU_Node@?$_Tree_nod@V?$_Tmap_traits@EV?$vector@VCPoint@@V?$allocator@VCPoint@@@std@@@std@@U?$less@E@2@V?$allocator@U?$pair@$$CBEV?$vector@VCPoint@@V?$allocator@VCPoint@@@std@@@std@@@std@@@2@$0A@@std@@@2@ABQAU342@@Z
_TEXT	SEGMENT
__Ptr$ = 8						; size = 4
__Val$ = 12						; size = 4
?construct@?$allocator@PAU_Node@?$_Tree_nod@V?$_Tmap_traits@EV?$vector@VCPoint@@V?$allocator@VCPoint@@@std@@@std@@U?$less@E@2@V?$allocator@U?$pair@$$CBEV?$vector@VCPoint@@V?$allocator@VCPoint@@@std@@@std@@@std@@@2@$0A@@std@@@std@@@std@@QAEXPAPAU_Node@?$_Tree_nod@V?$_Tmap_traits@EV?$vector@VCPoint@@V?$allocator@VCPoint@@@std@@@std@@U?$less@E@2@V?$allocator@U?$pair@$$CBEV?$vector@VCPoint@@V?$allocator@VCPoint@@@std@@@std@@@std@@@2@$0A@@std@@@2@ABQAU342@@Z PROC NEAR ; std::allocator<std::_Tree_nod<std::_Tmap_traits<unsigned char,std::vector<CPoint,std::allocator<CPoint> >,std::less<unsigned char>,std::allocator<std::pair<unsigned char const ,std::vector<CPoint,std::allocator<CPoint> > > >,0> >::_Node *>::construct, COMDAT
; _this$ = ecx

; 147  : 		_Construct(_Ptr, _Val);

  00000	8b 44 24 04	 mov	 eax, DWORD PTR __Ptr$[esp-4]
  00004	85 c0		 test	 eax, eax
  00006	74 08		 je	 SHORT $L234501
  00008	8b 4c 24 08	 mov	 ecx, DWORD PTR __Val$[esp-4]
  0000c	8b 11		 mov	 edx, DWORD PTR [ecx]
  0000e	89 10		 mov	 DWORD PTR [eax], edx
$L234501:

; 148  : 		}

  00010	c2 08 00	 ret	 8
?construct@?$allocator@PAU_Node@?$_Tree_nod@V?$_Tmap_traits@EV?$vector@VCPoint@@V?$allocator@VCPoint@@@std@@@std@@U?$less@E@2@V?$allocator@U?$pair@$$CBEV?$vector@VCPoint@@V?$allocator@VCPoint@@@std@@@std@@@std@@@2@$0A@@std@@@std@@@std@@QAEXPAPAU_Node@?$_Tree_nod@V?$_Tmap_traits@EV?$vector@VCPoint@@V?$allocator@VCPoint@@@std@@@std@@U?$less@E@2@V?$allocator@U?$pair@$$CBEV?$vector@VCPoint@@V?$allocator@VCPoint@@@std@@@std@@@std@@@2@$0A@@std@@@2@ABQAU342@@Z ENDP ; std::allocator<std::_Tree_nod<std::_Tmap_traits<unsigned char,std::vector<CPoint,std::allocator<CPoint> >,std::less<unsigned char>,std::allocator<std::pair<unsigned char const ,std::vector<CPoint,std::allocator<CPoint> > > >,0> >::_Node *>::construct
_TEXT	ENDS
PUBLIC	??$copy@PAVCPoint@@PAV1@@std@@YAPAVCPoint@@PAV1@00@Z ; std::copy<CPoint *,CPoint *>
; Function compile flags: /Ogty
; File c:\program files\microsoft visual studio .net 2003\vc7\include\xutility
;	COMDAT ??$copy@PAVCPoint@@PAV1@@std@@YAPAVCPoint@@PAV1@00@Z
_TEXT	SEGMENT
__First$ = 8						; size = 4
__Last$ = 12						; size = 4
__Dest$ = 16						; size = 4
??$copy@PAVCPoint@@PAV1@@std@@YAPAVCPoint@@PAV1@00@Z PROC NEAR ; std::copy<CPoint *,CPoint *>, COMDAT

; 1040 : 	return (_Copy_opt(_First, _Last, _Dest, _Ptr_cat(_First, _Dest)));

  00000	8b 4c 24 04	 mov	 ecx, DWORD PTR __First$[esp-4]
  00004	8b 54 24 08	 mov	 edx, DWORD PTR __Last$[esp-4]
  00008	3b ca		 cmp	 ecx, edx
  0000a	8b 44 24 0c	 mov	 eax, DWORD PTR __Dest$[esp-4]
  0000e	74 16		 je	 SHORT $L234521
  00010	56		 push	 esi
$L234519:
  00011	8b 31		 mov	 esi, DWORD PTR [ecx]
  00013	89 30		 mov	 DWORD PTR [eax], esi
  00015	8b 71 04	 mov	 esi, DWORD PTR [ecx+4]
  00018	89 70 04	 mov	 DWORD PTR [eax+4], esi
  0001b	83 c1 08	 add	 ecx, 8
  0001e	83 c0 08	 add	 eax, 8
  00021	3b ca		 cmp	 ecx, edx
  00023	75 ec		 jne	 SHORT $L234519
  00025	5e		 pop	 esi
$L234521:

; 1041 : 	}

  00026	c3		 ret	 0
??$copy@PAVCPoint@@PAV1@@std@@YAPAVCPoint@@PAV1@00@Z ENDP ; std::copy<CPoint *,CPoint *>
_TEXT	ENDS
PUBLIC	??$copy_backward@PAVCPoint@@PAV1@@std@@YAPAVCPoint@@PAV1@00@Z ; std::copy_backward<CPoint *,CPoint *>
; Function compile flags: /Ogty
;	COMDAT ??$copy_backward@PAVCPoint@@PAV1@@std@@YAPAVCPoint@@PAV1@00@Z
_TEXT	SEGMENT
__First$ = 8						; size = 4
__Last$ = 12						; size = 4
__Dest$ = 16						; size = 4
??$copy_backward@PAVCPoint@@PAV1@@std@@YAPAVCPoint@@PAV1@00@Z PROC NEAR ; std::copy_backward<CPoint *,CPoint *>, COMDAT

; 1068 : 	return (_Copy_backward_opt(_First, _Last, _Dest,
; 1069 : 		_Ptr_cat(_First, _Dest)));

  00000	8b 4c 24 08	 mov	 ecx, DWORD PTR __Last$[esp-4]
  00004	8b 54 24 04	 mov	 edx, DWORD PTR __First$[esp-4]
  00008	3b d1		 cmp	 edx, ecx
  0000a	8b 44 24 0c	 mov	 eax, DWORD PTR __Dest$[esp-4]
  0000e	74 17		 je	 SHORT $L234539
  00010	56		 push	 esi
$L234538:
  00011	8b 71 f8	 mov	 esi, DWORD PTR [ecx-8]
  00014	83 e9 08	 sub	 ecx, 8
  00017	83 e8 08	 sub	 eax, 8
  0001a	3b ca		 cmp	 ecx, edx
  0001c	89 30		 mov	 DWORD PTR [eax], esi
  0001e	8b 71 04	 mov	 esi, DWORD PTR [ecx+4]
  00021	89 70 04	 mov	 DWORD PTR [eax+4], esi
  00024	75 eb		 jne	 SHORT $L234538
  00026	5e		 pop	 esi
$L234539:

; 1070 : 	}

  00027	c3		 ret	 0
??$copy_backward@PAVCPoint@@PAV1@@std@@YAPAVCPoint@@PAV1@00@Z ENDP ; std::copy_backward<CPoint *,CPoint *>
_TEXT	ENDS
PUBLIC	?construct@?$allocator@VCPoint@@@std@@QAEXPAVCPoint@@ABV3@@Z ; std::allocator<CPoint>::construct
; Function compile flags: /Ogty
; File c:\program files\microsoft visual studio .net 2003\vc7\include\xmemory
;	COMDAT ?construct@?$allocator@VCPoint@@@std@@QAEXPAVCPoint@@ABV3@@Z
_TEXT	SEGMENT
__Ptr$ = 8						; size = 4
__Val$ = 12						; size = 4
?construct@?$allocator@VCPoint@@@std@@QAEXPAVCPoint@@ABV3@@Z PROC NEAR ; std::allocator<CPoint>::construct, COMDAT
; _this$ = ecx

; 147  : 		_Construct(_Ptr, _Val);

  00000	8b 44 24 04	 mov	 eax, DWORD PTR __Ptr$[esp-4]
  00004	85 c0		 test	 eax, eax
  00006	74 0e		 je	 SHORT $L234558
  00008	8b 4c 24 08	 mov	 ecx, DWORD PTR __Val$[esp-4]
  0000c	8b 11		 mov	 edx, DWORD PTR [ecx]
  0000e	89 10		 mov	 DWORD PTR [eax], edx
  00010	8b 49 04	 mov	 ecx, DWORD PTR [ecx+4]
  00013	89 48 04	 mov	 DWORD PTR [eax+4], ecx
$L234558:

; 148  : 		}

  00016	c2 08 00	 ret	 8
?construct@?$allocator@VCPoint@@@std@@QAEXPAVCPoint@@ABV3@@Z ENDP ; std::allocator<CPoint>::construct
_TEXT	ENDS
PUBLIC	?destroy@?$allocator@VCPoint@@@std@@QAEXPAVCPoint@@@Z ; std::allocator<CPoint>::destroy
; Function compile flags: /Ogty
;	COMDAT ?destroy@?$allocator@VCPoint@@@std@@QAEXPAVCPoint@@@Z
_TEXT	SEGMENT
__Ptr$ = 8						; size = 4
?destroy@?$allocator@VCPoint@@@std@@QAEXPAVCPoint@@@Z PROC NEAR ; std::allocator<CPoint>::destroy, COMDAT
; _this$ = ecx

; 152  : 		_Destroy(_Ptr);
; 153  : 		}

  00000	c2 04 00	 ret	 4
?destroy@?$allocator@VCPoint@@@std@@QAEXPAVCPoint@@@Z ENDP ; std::allocator<CPoint>::destroy
_TEXT	ENDS
PUBLIC	??$_Uninit_copy@PAVCPoint@@PAV1@V?$allocator@VCPoint@@@std@@@std@@YAPAVCPoint@@PAV1@00AAV?$allocator@VCPoint@@@0@U_Nonscalar_ptr_iterator_tag@0@@Z ; std::_Uninit_copy<CPoint *,CPoint *,std::allocator<CPoint> >
EXTRN	__CxxThrowException@8:NEAR
; Function compile flags: /Ogty
; File c:\program files\microsoft visual studio .net 2003\vc7\include\memory
;	COMDAT ??$_Uninit_copy@PAVCPoint@@PAV1@V?$allocator@VCPoint@@@std@@@std@@YAPAVCPoint@@PAV1@00AAV?$allocator@VCPoint@@@0@U_Nonscalar_ptr_iterator_tag@0@@Z
_TEXT	SEGMENT
__First$ = 8						; size = 4
__Last$ = 12						; size = 4
__Dest$ = 16						; size = 4
__Al$ = 20						; size = 4
___formal$ = 24						; size = 1
??$_Uninit_copy@PAVCPoint@@PAV1@V?$allocator@VCPoint@@@std@@@std@@YAPAVCPoint@@PAV1@00AAV?$allocator@VCPoint@@@0@U_Nonscalar_ptr_iterator_tag@0@@Z PROC NEAR ; std::_Uninit_copy<CPoint *,CPoint *,std::allocator<CPoint> >, COMDAT

; 78   : 	_FwdIt _Next = _Dest;
; 79   : 
; 80   : 	_TRY_BEGIN
; 81   : 	for (; _First != _Last; ++_Dest, ++_First)

  00000	8b 4c 24 04	 mov	 ecx, DWORD PTR __First$[esp-4]
  00004	8b 54 24 08	 mov	 edx, DWORD PTR __Last$[esp-4]
  00008	3b ca		 cmp	 ecx, edx
  0000a	8b 44 24 0c	 mov	 eax, DWORD PTR __Dest$[esp-4]
  0000e	74 1a		 je	 SHORT $L232666
  00010	56		 push	 esi
$L232664:

; 82   : 		_Al.construct(_Dest, *_First);

  00011	85 c0		 test	 eax, eax
  00013	74 0a		 je	 SHORT $L232665
  00015	8b 31		 mov	 esi, DWORD PTR [ecx]
  00017	89 30		 mov	 DWORD PTR [eax], esi
  00019	8b 71 04	 mov	 esi, DWORD PTR [ecx+4]
  0001c	89 70 04	 mov	 DWORD PTR [eax+4], esi
$L232665:
  0001f	83 c1 08	 add	 ecx, 8
  00022	83 c0 08	 add	 eax, 8
  00025	3b ca		 cmp	 ecx, edx
  00027	75 e8		 jne	 SHORT $L232664
  00029	5e		 pop	 esi
$L232666:

; 83   : 	_CATCH_ALL
; 84   : 	for (; _Next != _Dest; ++_Next)
; 85   : 		_Al.destroy(_Next);
; 86   : 	_RERAISE;
; 87   : 	_CATCH_END
; 88   : 	return (_Dest);
; 89   : 	}

  0002a	c3		 ret	 0
??$_Uninit_copy@PAVCPoint@@PAV1@V?$allocator@VCPoint@@@std@@@std@@YAPAVCPoint@@PAV1@00AAV?$allocator@VCPoint@@@0@U_Nonscalar_ptr_iterator_tag@0@@Z ENDP ; std::_Uninit_copy<CPoint *,CPoint *,std::allocator<CPoint> >
_TEXT	ENDS
PUBLIC	??9const_iterator@?$vector@VCPoint@@V?$allocator@VCPoint@@@std@@@std@@QBE_NABV012@@Z ; std::vector<CPoint,std::allocator<CPoint> >::const_iterator::operator!=
; Function compile flags: /Ogty
; File c:\program files\microsoft visual studio .net 2003\vc7\include\vector
;	COMDAT ??9const_iterator@?$vector@VCPoint@@V?$allocator@VCPoint@@@std@@@std@@QBE_NABV012@@Z
_TEXT	SEGMENT
__Right$ = 8						; size = 4
??9const_iterator@?$vector@VCPoint@@V?$allocator@VCPoint@@@std@@@std@@QBE_NABV012@@Z PROC NEAR ; std::vector<CPoint,std::allocator<CPoint> >::const_iterator::operator!=, COMDAT
; _this$ = ecx

; 160  : 			return (!(*this == _Right));

  00000	8b 01		 mov	 eax, DWORD PTR [ecx]
  00002	8b 54 24 04	 mov	 edx, DWORD PTR __Right$[esp-4]
  00006	56		 push	 esi
  00007	8b 32		 mov	 esi, DWORD PTR [edx]
  00009	33 c9		 xor	 ecx, ecx
  0000b	3b c6		 cmp	 eax, esi
  0000d	0f 95 c1	 setne	 cl
  00010	8a c1		 mov	 al, cl
  00012	5e		 pop	 esi

; 161  : 			}

  00013	c2 04 00	 ret	 4
??9const_iterator@?$vector@VCPoint@@V?$allocator@VCPoint@@@std@@@std@@QBE_NABV012@@Z ENDP ; std::vector<CPoint,std::allocator<CPoint> >::const_iterator::operator!=
_TEXT	ENDS
PUBLIC	??_C@_0BE@OHDBLHOM@GetText?5range_error?$AA@	; `string'
PUBLIC	??_C@_05KKCIMGE@error?$AA@			; `string'
PUBLIC	?GetText@CProject@@QAEPBDK@Z			; CProject::GetText
PUBLIC	??_C@_00CNPNBAHC@?$AA@				; `string'
;	COMDAT ??_C@_00CNPNBAHC@?$AA@
; File c:\documents and settings\test\mes documents\source\virtuos_v17\build\program\_common\data.h
CONST	SEGMENT
??_C@_00CNPNBAHC@?$AA@ DB 00H				; `string'
CONST	ENDS
;	COMDAT ??_C@_0BE@OHDBLHOM@GetText?5range_error?$AA@
CONST	SEGMENT
??_C@_0BE@OHDBLHOM@GetText?5range_error?$AA@ DB 'GetText range_error', 00H ; `string'
CONST	ENDS
;	COMDAT ??_C@_05KKCIMGE@error?$AA@
CONST	SEGMENT
??_C@_05KKCIMGE@error?$AA@ DB 'error', 00H		; `string'
; Function compile flags: /Ogty
; File c:\documents and settings\test\mes documents\source\virtuos_v17\build\program\_common\project.h
CONST	ENDS
;	COMDAT ?GetText@CProject@@QAEPBDK@Z
_TEXT	SEGMENT
_dwIndex$ = 8						; size = 4
?GetText@CProject@@QAEPBDK@Z PROC NEAR			; CProject::GetText, COMDAT
; _this$ = ecx

; 1402 : 	VERIFY_RANGE( (int)( dwIndex ), 0, m_colorText.GetSize(), "GetText range_error", "error" );

  00000	8b 44 24 04	 mov	 eax, DWORD PTR _dwIndex$[esp-4]
  00004	85 c0		 test	 eax, eax
  00006	7c 41		 jl	 SHORT $L197970
  00008	8b 91 c8 02 00
	00		 mov	 edx, DWORD PTR [ecx+712]
  0000e	3b c2		 cmp	 eax, edx
  00010	7d 37		 jge	 SHORT $L197970

; 1403 : 	if( m_colorText.GetAt( dwIndex ) == NULL )

  00012	3b c2		 cmp	 eax, edx
  00014	73 0c		 jae	 SHORT $L234639
  00016	8b 91 b8 02 00
	00		 mov	 edx, DWORD PTR [ecx+696]
  0001c	83 3c 82 00	 cmp	 DWORD PTR [edx+eax*4], 0
  00020	75 08		 jne	 SHORT $L197974
$L234639:

; 1404 : 		return "";

  00022	b8 00 00 00 00	 mov	 eax, OFFSET FLAT:??_C@_00CNPNBAHC@?$AA@

; 1406 : }

  00027	c2 04 00	 ret	 4
$L197974:

; 1405 : 	return m_colorText.GetAt( dwIndex )->lpszData; 

  0002a	3b 81 c8 02 00
	00		 cmp	 eax, DWORD PTR [ecx+712]
  00030	72 08		 jb	 SHORT $L234635
  00032	33 c0		 xor	 eax, eax
  00034	8b 40 04	 mov	 eax, DWORD PTR [eax+4]

; 1406 : }

  00037	c2 04 00	 ret	 4

; 1405 : 	return m_colorText.GetAt( dwIndex )->lpszData; 

$L234635:
  0003a	8b 89 b8 02 00
	00		 mov	 ecx, DWORD PTR [ecx+696]
  00040	8b 04 81	 mov	 eax, DWORD PTR [ecx+eax*4]
  00043	8b 40 04	 mov	 eax, DWORD PTR [eax+4]

; 1406 : }

  00046	c2 04 00	 ret	 4
$L197970:

; 1402 : 	VERIFY_RANGE( (int)( dwIndex ), 0, m_colorText.GetSize(), "GetText range_error", "error" );

  00049	8b 91 c8 02 00
	00		 mov	 edx, DWORD PTR [ecx+712]
  0004f	50		 push	 eax
  00050	52		 push	 edx
  00051	6a 00		 push	 0
  00053	68 00 00 00 00	 push	 OFFSET FLAT:??_C@_0BE@OHDBLHOM@GetText?5range_error?$AA@
  00058	68 00 00 00 00	 push	 OFFSET FLAT:??_C@_0BM@HMFGHCP@?$CFs?5min?3?$CFd?0?5max?3?$CFd?0?5index?3?$CFd?$AA@
  0005d	e8 00 00 00 00	 call	 ?Error@@YAPBDPBDZZ	; Error
  00062	83 c4 14	 add	 esp, 20			; 00000014H
  00065	b8 00 00 00 00	 mov	 eax, OFFSET FLAT:??_C@_05KKCIMGE@error?$AA@

; 1406 : }

  0006a	c2 04 00	 ret	 4
?GetText@CProject@@QAEPBDK@Z ENDP			; CProject::GetText
_TEXT	ENDS
PUBLIC	?GetLength@?$CSimpleStringT@D$0A@@ATL@@QBEHXZ	; ATL::CSimpleStringT<char,0>::GetLength
; Function compile flags: /Ogty
; File c:\program files\microsoft visual studio .net 2003\vc7\atlmfc\include\atlsimpstr.h
;	COMDAT ?GetLength@?$CSimpleStringT@D$0A@@ATL@@QBEHXZ
_TEXT	SEGMENT
?GetLength@?$CSimpleStringT@D$0A@@ATL@@QBEHXZ PROC NEAR	; ATL::CSimpleStringT<char,0>::GetLength, COMDAT
; _this$ = ecx

; 501  : 		return( GetData()->nDataLength );

  00000	8b 01		 mov	 eax, DWORD PTR [ecx]
  00002	8b 40 f4	 mov	 eax, DWORD PTR [eax-12]

; 502  : 	}

  00005	c3		 ret	 0
?GetLength@?$CSimpleStringT@D$0A@@ATL@@QBEHXZ ENDP	; ATL::CSimpleStringT<char,0>::GetLength
_TEXT	ENDS
PUBLIC	??0?$CSimpleStringT@D$0A@@ATL@@QAE@PAUIAtlStringMgr@1@@Z ; ATL::CSimpleStringT<char,0>::CSimpleStringT<char,0>
; Function compile flags: /Ogty
;	COMDAT ??0?$CSimpleStringT@D$0A@@ATL@@QAE@PAUIAtlStringMgr@1@@Z
_TEXT	SEGMENT
_pStringMgr$ = 8					; size = 4
??0?$CSimpleStringT@D$0A@@ATL@@QAE@PAUIAtlStringMgr@1@@Z PROC NEAR ; ATL::CSimpleStringT<char,0>::CSimpleStringT<char,0>, COMDAT
; _this$ = ecx

; 210  : 	explicit CSimpleStringT( IAtlStringMgr* pStringMgr ) throw()

  00000	56		 push	 esi
  00001	8b f1		 mov	 esi, ecx

; 211  : 	{
; 212  : 		ATLASSERT( pStringMgr != NULL );
; 213  : 		CStringData* pData = pStringMgr->GetNilString();

  00003	8b 4c 24 08	 mov	 ecx, DWORD PTR _pStringMgr$[esp]
  00007	8b 01		 mov	 eax, DWORD PTR [ecx]
  00009	ff 50 0c	 call	 DWORD PTR [eax+12]

; 214  : 		Attach( pData );

  0000c	83 c0 10	 add	 eax, 16			; 00000010H
  0000f	89 06		 mov	 DWORD PTR [esi], eax

; 215  : 	}

  00011	8b c6		 mov	 eax, esi
  00013	5e		 pop	 esi
  00014	c2 04 00	 ret	 4
??0?$CSimpleStringT@D$0A@@ATL@@QAE@PAUIAtlStringMgr@1@@Z ENDP ; ATL::CSimpleStringT<char,0>::CSimpleStringT<char,0>
_TEXT	ENDS
PUBLIC	??1?$CSimpleStringT@D$0A@@ATL@@QAE@XZ		; ATL::CSimpleStringT<char,0>::~CSimpleStringT<char,0>
; Function compile flags: /Ogty
;	COMDAT ??1?$CSimpleStringT@D$0A@@ATL@@QAE@XZ
_TEXT	SEGMENT
??1?$CSimpleStringT@D$0A@@ATL@@QAE@XZ PROC NEAR		; ATL::CSimpleStringT<char,0>::~CSimpleStringT<char,0>, COMDAT
; _this$ = ecx

; 263  : 		CStringData* pData = GetData();

  00000	8b 01		 mov	 eax, DWORD PTR [ecx]
  00002	83 e8 10	 sub	 eax, 16			; 00000010H

; 264  : 		pData->Release();

  00005	8d 48 0c	 lea	 ecx, DWORD PTR [eax+12]
  00008	83 ca ff	 or	 edx, -1
  0000b	f0 0f c1 11	 lock	  xadd	 DWORD PTR [ecx], edx
  0000f	4a		 dec	 edx
  00010	85 d2		 test	 edx, edx
  00012	7f 08		 jg	 SHORT $L234666
  00014	8b 08		 mov	 ecx, DWORD PTR [eax]
  00016	8b 11		 mov	 edx, DWORD PTR [ecx]
  00018	50		 push	 eax
  00019	ff 52 04	 call	 DWORD PTR [edx+4]
$L234666:

; 265  : 	}

  0001c	c3		 ret	 0
??1?$CSimpleStringT@D$0A@@ATL@@QAE@XZ ENDP		; ATL::CSimpleStringT<char,0>::~CSimpleStringT<char,0>
_TEXT	ENDS
PUBLIC	?ReleaseBufferSetLength@?$CSimpleStringT@D$0A@@ATL@@QAEXH@Z ; ATL::CSimpleStringT<char,0>::ReleaseBufferSetLength
; Function compile flags: /Ogty
;	COMDAT ?ReleaseBufferSetLength@?$CSimpleStringT@D$0A@@ATL@@QAEXH@Z
_TEXT	SEGMENT
_nNewLength$ = 8					; size = 4
?ReleaseBufferSetLength@?$CSimpleStringT@D$0A@@ATL@@QAEXH@Z PROC NEAR ; ATL::CSimpleStringT<char,0>::ReleaseBufferSetLength, COMDAT
; _this$ = ecx

; 547  : 		ATLASSERT( nNewLength >= 0 );
; 548  : 		SetLength( nNewLength );

  00000	8b 44 24 04	 mov	 eax, DWORD PTR _nNewLength$[esp-4]
  00004	85 c0		 test	 eax, eax
  00006	7c 13		 jl	 SHORT $L234684
  00008	8b 11		 mov	 edx, DWORD PTR [ecx]
  0000a	3b 42 f8	 cmp	 eax, DWORD PTR [edx-8]
  0000d	7f 0c		 jg	 SHORT $L234684
  0000f	89 42 f4	 mov	 DWORD PTR [edx-12], eax
  00012	8b 09		 mov	 ecx, DWORD PTR [ecx]
  00014	c6 04 08 00	 mov	 BYTE PTR [eax+ecx], 0

; 549  : 	}

  00018	c2 04 00	 ret	 4
$L234684:
  0001b	68 57 00 07 80	 push	 -2147024809		; 80070057H
  00020	e8 00 00 00 00	 call	 ?AtlThrow@ATL@@YGXJ@Z	; ATL::AtlThrow
$L234687:
$L234686:
  00025	cc		 int	 3
?ReleaseBufferSetLength@?$CSimpleStringT@D$0A@@ATL@@QAEXH@Z ENDP ; ATL::CSimpleStringT<char,0>::ReleaseBufferSetLength
_TEXT	ENDS
PUBLIC	??0?$_String_val@DV?$allocator@D@std@@@std@@IAE@V?$allocator@D@1@@Z ; std::_String_val<char,std::allocator<char> >::_String_val<char,std::allocator<char> >
; Function compile flags: /Ogty
; File c:\program files\microsoft visual studio .net 2003\vc7\include\xstring
;	COMDAT ??0?$_String_val@DV?$allocator@D@std@@@std@@IAE@V?$allocator@D@1@@Z
_TEXT	SEGMENT
__Al$ = 8						; size = 1
??0?$_String_val@DV?$allocator@D@std@@@std@@IAE@V?$allocator@D@1@@Z PROC NEAR ; std::_String_val<char,std::allocator<char> >::_String_val<char,std::allocator<char> >, COMDAT
; _this$ = ecx

; 34   : 		{	// construct allocator from _Al

  00000	8b c1		 mov	 eax, ecx

; 35   : 		}

  00002	c2 04 00	 ret	 4
??0?$_String_val@DV?$allocator@D@std@@@std@@IAE@V?$allocator@D@1@@Z ENDP ; std::_String_val<char,std::allocator<char> >::_String_val<char,std::allocator<char> >
_TEXT	ENDS
PUBLIC	?Empty@?$CSimpleStringT@D$0A@@ATL@@QAEXXZ	; ATL::CSimpleStringT<char,0>::Empty
; Function compile flags: /Ogty
; File c:\program files\microsoft visual studio .net 2003\vc7\atlmfc\include\atlsimpstr.h
;	COMDAT ?Empty@?$CSimpleStringT@D$0A@@ATL@@QAEXXZ
_TEXT	SEGMENT
?Empty@?$CSimpleStringT@D$0A@@ATL@@QAEXXZ PROC NEAR	; ATL::CSimpleStringT<char,0>::Empty, COMDAT
; _this$ = ecx

; 421  : 	{

  00000	56		 push	 esi
  00001	8b f1		 mov	 esi, ecx

; 422  : 		CStringData* pOldData = GetData();

  00003	8b 0e		 mov	 ecx, DWORD PTR [esi]

; 423  : 		IAtlStringMgr* pStringMgr = pOldData->pStringMgr;
; 424  : 		if( pOldData->nDataLength == 0 )

  00005	8b 51 f4	 mov	 edx, DWORD PTR [ecx-12]
  00008	85 d2		 test	 edx, edx
  0000a	8d 41 f0	 lea	 eax, DWORD PTR [ecx-16]
  0000d	57		 push	 edi
  0000e	8b 38		 mov	 edi, DWORD PTR [eax]
  00010	74 4c		 je	 SHORT $L234727
  00012	53		 push	 ebx

; 425  : 		{
; 426  : 			return;
; 427  : 		}
; 428  : 
; 429  : 		if( pOldData->IsLocked() )

  00013	8b 58 0c	 mov	 ebx, DWORD PTR [eax+12]
  00016	8d 50 0c	 lea	 edx, DWORD PTR [eax+12]
  00019	85 db		 test	 ebx, ebx
  0001b	5b		 pop	 ebx
  0001c	7d 20		 jge	 SHORT $L221323

; 430  : 		{
; 431  : 			// Don't reallocate a locked buffer that's shrinking
; 432  : 			SetLength( 0 );

  0001e	8b 41 f8	 mov	 eax, DWORD PTR [ecx-8]
  00021	85 c0		 test	 eax, eax
  00023	7d 0a		 jge	 SHORT $L234716
  00025	68 57 00 07 80	 push	 -2147024809		; 80070057H
  0002a	e8 00 00 00 00	 call	 ?AtlThrow@ATL@@YGXJ@Z	; ATL::AtlThrow
$L234732:
$L234716:
  0002f	c7 41 f4 00 00
	00 00		 mov	 DWORD PTR [ecx-12], 0
  00036	8b 06		 mov	 eax, DWORD PTR [esi]
  00038	5f		 pop	 edi
  00039	c6 00 00	 mov	 BYTE PTR [eax], 0
  0003c	5e		 pop	 esi

; 439  : 		}
; 440  : 	}

  0003d	c3		 ret	 0
$L221323:

; 433  : 		}
; 434  : 		else
; 435  : 		{
; 436  : 			pOldData->Release();

  0003e	83 c9 ff	 or	 ecx, -1
  00041	f0 0f c1 0a	 lock	  xadd	 DWORD PTR [edx], ecx
  00045	49		 dec	 ecx
  00046	85 c9		 test	 ecx, ecx
  00048	7f 08		 jg	 SHORT $L234722
  0004a	8b 08		 mov	 ecx, DWORD PTR [eax]
  0004c	8b 11		 mov	 edx, DWORD PTR [ecx]
  0004e	50		 push	 eax
  0004f	ff 52 04	 call	 DWORD PTR [edx+4]
$L234722:

; 437  : 			CStringData* pNewData = pStringMgr->GetNilString();

  00052	8b 07		 mov	 eax, DWORD PTR [edi]
  00054	8b cf		 mov	 ecx, edi
  00056	ff 50 0c	 call	 DWORD PTR [eax+12]

; 438  : 			Attach( pNewData );

  00059	83 c0 10	 add	 eax, 16			; 00000010H
  0005c	89 06		 mov	 DWORD PTR [esi], eax
$L234727:
  0005e	5f		 pop	 edi
  0005f	5e		 pop	 esi

; 439  : 		}
; 440  : 	}

  00060	c3		 ret	 0
$L234731:
?Empty@?$CSimpleStringT@D$0A@@ATL@@QAEXXZ ENDP		; ATL::CSimpleStringT<char,0>::Empty
_TEXT	ENDS
PUBLIC	?PrepareWrite2@?$CSimpleStringT@D$0A@@ATL@@AAEXH@Z ; ATL::CSimpleStringT<char,0>::PrepareWrite2
; Function compile flags: /Ogty
;	COMDAT ?PrepareWrite2@?$CSimpleStringT@D$0A@@ATL@@AAEXH@Z
_TEXT	SEGMENT
_nLength$ = 8						; size = 4
?PrepareWrite2@?$CSimpleStringT@D$0A@@ATL@@AAEXH@Z PROC NEAR ; ATL::CSimpleStringT<char,0>::PrepareWrite2, COMDAT
; _this$ = ecx

; 747  : 		CStringData* pOldData = GetData();

  00000	8b 01		 mov	 eax, DWORD PTR [ecx]

; 748  : 		if( pOldData->nDataLength > nLength )

  00002	8b 54 24 04	 mov	 edx, DWORD PTR _nLength$[esp-4]
  00006	83 e8 10	 sub	 eax, 16			; 00000010H
  00009	56		 push	 esi
  0000a	8b 70 04	 mov	 esi, DWORD PTR [eax+4]
  0000d	3b f2		 cmp	 esi, edx
  0000f	7e 02		 jle	 SHORT $L221345

; 749  : 		{
; 750  : 			nLength = pOldData->nDataLength;

  00011	8b d6		 mov	 edx, esi
$L221345:

; 751  : 		}
; 752  : 		if( pOldData->IsShared() )

  00013	83 78 0c 01	 cmp	 DWORD PTR [eax+12], 1
  00017	5e		 pop	 esi
  00018	7e 09		 jle	 SHORT $L221346

; 753  : 		{
; 754  : 			Fork( nLength );

  0001a	89 54 24 04	 mov	 DWORD PTR _nLength$[esp-4], edx
  0001e	e9 00 00 00 00	 jmp	 ?Fork@?$CSimpleStringT@D$0A@@ATL@@AAEXH@Z ; ATL::CSimpleStringT<char,0>::Fork
$L221346:

; 755  : 		}
; 756  : 		else if( pOldData->nAllocLength < nLength )

  00023	8b 40 08	 mov	 eax, DWORD PTR [eax+8]
  00026	3b c2		 cmp	 eax, edx
  00028	7d 1f		 jge	 SHORT $L221348

; 757  : 		{
; 758  : 			// Grow exponentially, until we hit 1K.
; 759  : 			int nNewLength = pOldData->nAllocLength;
; 760  : 			if( nNewLength > 1024 )

  0002a	3d 00 04 00 00	 cmp	 eax, 1024		; 00000400H
  0002f	7e 07		 jle	 SHORT $L221350

; 761  : 			{
; 762  : 				nNewLength += 1024;

  00031	05 00 04 00 00	 add	 eax, 1024		; 00000400H

; 763  : 			}
; 764  : 			else

  00036	eb 02		 jmp	 SHORT $L221351
$L221350:

; 765  : 			{
; 766  : 				nNewLength *= 2;

  00038	03 c0		 add	 eax, eax
$L221351:

; 767  : 			}
; 768  : 			if( nNewLength < nLength )

  0003a	3b c2		 cmp	 eax, edx
  0003c	7d 02		 jge	 SHORT $L221352

; 769  : 			{
; 770  : 				nNewLength = nLength;

  0003e	8b c2		 mov	 eax, edx
$L221352:

; 771  : 			}
; 772  : 			Reallocate( nNewLength );

  00040	89 44 24 04	 mov	 DWORD PTR _nLength$[esp-4], eax
  00044	e9 00 00 00 00	 jmp	 ?Reallocate@?$CSimpleStringT@D$0A@@ATL@@AAEXH@Z ; ATL::CSimpleStringT<char,0>::Reallocate
$L221348:

; 773  : 		}
; 774  : 	}

  00049	c2 04 00	 ret	 4
?PrepareWrite2@?$CSimpleStringT@D$0A@@ATL@@AAEXH@Z ENDP	; ATL::CSimpleStringT<char,0>::PrepareWrite2
_TEXT	ENDS
PUBLIC	?CloneData@?$CSimpleStringT@D$0A@@ATL@@CAPAUCStringData@2@PAU32@@Z ; ATL::CSimpleStringT<char,0>::CloneData
; Function compile flags: /Ogty
;	COMDAT ?CloneData@?$CSimpleStringT@D$0A@@ATL@@CAPAUCStringData@2@PAU32@@Z
_TEXT	SEGMENT
_pData$ = 8						; size = 4
?CloneData@?$CSimpleStringT@D$0A@@ATL@@CAPAUCStringData@2@PAU32@@Z PROC NEAR ; ATL::CSimpleStringT<char,0>::CloneData, COMDAT

; 801  : 	{

  00000	56		 push	 esi

; 802  : 		CStringData* pNewData = NULL;
; 803  : 
; 804  : 		IAtlStringMgr* pNewStringMgr = pData->pStringMgr->Clone();

  00001	8b 74 24 08	 mov	 esi, DWORD PTR _pData$[esp]
  00005	8b 0e		 mov	 ecx, DWORD PTR [esi]
  00007	8b 01		 mov	 eax, DWORD PTR [ecx]
  00009	ff 50 10	 call	 DWORD PTR [eax+16]

; 805  : 		if( !pData->IsLocked() && (pNewStringMgr == pData->pStringMgr) )

  0000c	8b 56 0c	 mov	 edx, DWORD PTR [esi+12]
  0000f	85 d2		 test	 edx, edx
  00011	8d 4e 0c	 lea	 ecx, DWORD PTR [esi+12]
  00014	7c 11		 jl	 SHORT $L221356
  00016	3b 06		 cmp	 eax, DWORD PTR [esi]
  00018	75 0d		 jne	 SHORT $L221356

; 806  : 		{
; 807  : 			pNewData = pData;

  0001a	8b c6		 mov	 eax, esi

; 808  : 			pNewData->AddRef();

  0001c	ba 01 00 00 00	 mov	 edx, 1
  00021	f0 0f c1 11	 lock	  xadd	 DWORD PTR [ecx], edx
  00025	5e		 pop	 esi

; 819  : 		}
; 820  : 
; 821  : 		return( pNewData );
; 822  : 	}

  00026	c3		 ret	 0
$L221356:

; 809  : 		}
; 810  : 		else
; 811  : 		{
; 812  : 			pNewData = pNewStringMgr->Allocate( pData->nDataLength, sizeof( XCHAR ) );

  00027	8b 4e 04	 mov	 ecx, DWORD PTR [esi+4]
  0002a	8b 10		 mov	 edx, DWORD PTR [eax]
  0002c	6a 01		 push	 1
  0002e	51		 push	 ecx
  0002f	8b c8		 mov	 ecx, eax
  00031	ff 12		 call	 DWORD PTR [edx]

; 813  : 			if( pNewData == NULL )

  00033	85 c0		 test	 eax, eax
  00035	75 05		 jne	 SHORT $L221359

; 814  : 			{
; 815  : 				ThrowMemoryException();

  00037	e9 00 00 00 00	 jmp	 ?ThrowMemoryException@?$CSimpleStringT@D$0A@@ATL@@KAXXZ ; ATL::CSimpleStringT<char,0>::ThrowMemoryException
$L221359:

; 816  : 			}
; 817  : 			pNewData->nDataLength = pData->nDataLength;

  0003c	8b 56 04	 mov	 edx, DWORD PTR [esi+4]
  0003f	89 50 04	 mov	 DWORD PTR [eax+4], edx

; 818  : 			CopyChars( PXSTR( pNewData->data() ), PCXSTR( pData->data() ), pData->nDataLength+1 );  // Copy '\0'

  00042	8b 4e 04	 mov	 ecx, DWORD PTR [esi+4]
  00045	41		 inc	 ecx
  00046	8b d1		 mov	 edx, ecx
  00048	57		 push	 edi
  00049	c1 e9 02	 shr	 ecx, 2
  0004c	83 c6 10	 add	 esi, 16			; 00000010H
  0004f	8d 78 10	 lea	 edi, DWORD PTR [eax+16]
  00052	f3 a5		 rep movsd
  00054	8b ca		 mov	 ecx, edx
  00056	83 e1 03	 and	 ecx, 3
  00059	f3 a4		 rep movsb
  0005b	5f		 pop	 edi
  0005c	5e		 pop	 esi

; 819  : 		}
; 820  : 
; 821  : 		return( pNewData );
; 822  : 	}

  0005d	c3		 ret	 0
?CloneData@?$CSimpleStringT@D$0A@@ATL@@CAPAUCStringData@2@PAU32@@Z ENDP ; ATL::CSimpleStringT<char,0>::CloneData
_TEXT	ENDS
PUBLIC	?_Eos@?$basic_string@DU?$char_traits@D@std@@V?$allocator@D@2@@std@@IAEXI@Z ; std::basic_string<char,std::char_traits<char>,std::allocator<char> >::_Eos
; Function compile flags: /Ogty
; File c:\program files\microsoft visual studio .net 2003\vc7\include\xstring
;	COMDAT ?_Eos@?$basic_string@DU?$char_traits@D@std@@V?$allocator@D@2@@std@@IAEXI@Z
_TEXT	SEGMENT
__Newsize$ = 8						; size = 4
?_Eos@?$basic_string@DU?$char_traits@D@std@@V?$allocator@D@2@@std@@IAEXI@Z PROC NEAR ; std::basic_string<char,std::char_traits<char>,std::allocator<char> >::_Eos, COMDAT
; _this$ = ecx

; 1475 : 		_Traits::assign(_Myptr()[_Mysize = _Newsize], _Elem());

  00000	83 79 18 10	 cmp	 DWORD PTR [ecx+24], 16	; 00000010H
  00004	8b 44 24 04	 mov	 eax, DWORD PTR __Newsize$[esp-4]
  00008	89 41 14	 mov	 DWORD PTR [ecx+20], eax
  0000b	72 0a		 jb	 SHORT $L234771
  0000d	8b 49 04	 mov	 ecx, DWORD PTR [ecx+4]
  00010	c6 04 01 00	 mov	 BYTE PTR [ecx+eax], 0

; 1476 : 		}

  00014	c2 04 00	 ret	 4

; 1475 : 		_Traits::assign(_Myptr()[_Mysize = _Newsize], _Elem());

$L234771:
  00017	c6 44 01 04 00	 mov	 BYTE PTR [ecx+eax+4], 0

; 1476 : 		}

  0001c	c2 04 00	 ret	 4
?_Eos@?$basic_string@DU?$char_traits@D@std@@V?$allocator@D@2@@std@@IAEXI@Z ENDP ; std::basic_string<char,std::char_traits<char>,std::allocator<char> >::_Eos
_TEXT	ENDS
PUBLIC	?max_size@?$basic_string@DU?$char_traits@D@std@@V?$allocator@D@2@@std@@QBEIXZ ; std::basic_string<char,std::char_traits<char>,std::allocator<char> >::max_size
; Function compile flags: /Ogty
;	COMDAT ?max_size@?$basic_string@DU?$char_traits@D@std@@V?$allocator@D@2@@std@@QBEIXZ
_TEXT	SEGMENT
?max_size@?$basic_string@DU?$char_traits@D@std@@V?$allocator@D@2@@std@@QBEIXZ PROC NEAR ; std::basic_string<char,std::char_traits<char>,std::allocator<char> >::max_size, COMDAT
; _this$ = ecx

; 1114 : 		size_type _Num = _Mybase::_Alval.max_size();
; 1115 : 		return (_Num <= 1 ? 1 : _Num - 1);

  00000	b8 fe ff ff ff	 mov	 eax, -2			; fffffffeH

; 1116 : 		}

  00005	c3		 ret	 0
?max_size@?$basic_string@DU?$char_traits@D@std@@V?$allocator@D@2@@std@@QBEIXZ ENDP ; std::basic_string<char,std::char_traits<char>,std::allocator<char> >::max_size
_TEXT	ENDS
PUBLIC	?allocate@?$allocator@D@std@@QAEPADI@Z		; std::allocator<char>::allocate
; Function compile flags: /Ogty
; File c:\program files\microsoft visual studio .net 2003\vc7\include\xmemory
;	COMDAT ?allocate@?$allocator@D@std@@QAEPADI@Z
_TEXT	SEGMENT
__Count$ = 8						; size = 4
?allocate@?$allocator@D@std@@QAEPADI@Z PROC NEAR	; std::allocator<char>::allocate, COMDAT
; _this$ = ecx

; 137  : 		return (_Allocate(_Count, (pointer)0));

  00000	8b 44 24 04	 mov	 eax, DWORD PTR __Count$[esp-4]
  00004	50		 push	 eax
  00005	e8 00 00 00 00	 call	 ??2@YAPAXI@Z		; operator new
  0000a	83 c4 04	 add	 esp, 4

; 138  : 		}

  0000d	c2 04 00	 ret	 4
?allocate@?$allocator@D@std@@QAEPADI@Z ENDP		; std::allocator<char>::allocate
_TEXT	ENDS
PUBLIC	??8ATL@@YA_NABV?$CStringT@DV?$StrTraitMFC@DV?$ChTraitsCRT@D@ATL@@@@@0@PBD@Z ; ATL::operator==
; Function compile flags: /Ogty
; File c:\program files\microsoft visual studio .net 2003\vc7\atlmfc\include\cstringt.h
;	COMDAT ??8ATL@@YA_NABV?$CStringT@DV?$StrTraitMFC@DV?$ChTraitsCRT@D@ATL@@@@@0@PBD@Z
_TEXT	SEGMENT
_str1$ = 8						; size = 4
_psz2$ = 12						; size = 4
??8ATL@@YA_NABV?$CStringT@DV?$StrTraitMFC@DV?$ChTraitsCRT@D@ATL@@@@@0@PBD@Z PROC NEAR ; ATL::operator==, COMDAT

; 2088 : 		return( str1.Compare( psz2 ) == 0 );

  00000	8b 4c 24 08	 mov	 ecx, DWORD PTR _psz2$[esp-4]
  00004	8b 44 24 04	 mov	 eax, DWORD PTR _str1$[esp-4]
  00008	8b 00		 mov	 eax, DWORD PTR [eax]
  0000a	51		 push	 ecx
  0000b	50		 push	 eax
  0000c	e8 00 00 00 00	 call	 __mbscmp
  00011	83 c4 08	 add	 esp, 8
  00014	f7 d8		 neg	 eax
  00016	1b c0		 sbb	 eax, eax
  00018	40		 inc	 eax

; 2089 : 	}

  00019	c3		 ret	 0
??8ATL@@YA_NABV?$CStringT@DV?$StrTraitMFC@DV?$ChTraitsCRT@D@ATL@@@@@0@PBD@Z ENDP ; ATL::operator==
_TEXT	ENDS
PUBLIC	??9ATL@@YA_NABV?$CStringT@DV?$StrTraitMFC@DV?$ChTraitsCRT@D@ATL@@@@@0@PBD@Z ; ATL::operator!=
; Function compile flags: /Ogty
;	COMDAT ??9ATL@@YA_NABV?$CStringT@DV?$StrTraitMFC@DV?$ChTraitsCRT@D@ATL@@@@@0@PBD@Z
_TEXT	SEGMENT
_str1$ = 8						; size = 4
_psz2$ = 12						; size = 4
??9ATL@@YA_NABV?$CStringT@DV?$StrTraitMFC@DV?$ChTraitsCRT@D@ATL@@@@@0@PBD@Z PROC NEAR ; ATL::operator!=, COMDAT

; 2122 : 		return( str1.Compare( psz2 ) != 0 );

  00000	8b 4c 24 08	 mov	 ecx, DWORD PTR _psz2$[esp-4]
  00004	8b 44 24 04	 mov	 eax, DWORD PTR _str1$[esp-4]
  00008	8b 00		 mov	 eax, DWORD PTR [eax]
  0000a	51		 push	 ecx
  0000b	50		 push	 eax
  0000c	e8 00 00 00 00	 call	 __mbscmp
  00011	83 c4 08	 add	 esp, 8
  00014	f7 d8		 neg	 eax
  00016	1b c0		 sbb	 eax, eax
  00018	f7 d8		 neg	 eax

; 2123 : 	}

  0001a	c3		 ret	 0
??9ATL@@YA_NABV?$CStringT@DV?$StrTraitMFC@DV?$ChTraitsCRT@D@ATL@@@@@0@PBD@Z ENDP ; ATL::operator!=
_TEXT	ENDS
PUBLIC	?begin@?$_Tree@V?$_Tmap_traits@EV?$vector@VCPoint@@V?$allocator@VCPoint@@@std@@@std@@U?$less@E@2@V?$allocator@U?$pair@$$CBEV?$vector@VCPoint@@V?$allocator@VCPoint@@@std@@@std@@@std@@@2@$0A@@std@@@std@@QAE?AViterator@12@XZ ; std::_Tree<std::_Tmap_traits<unsigned char,std::vector<CPoint,std::allocator<CPoint> >,std::less<unsigned char>,std::allocator<std::pair<unsigned char const ,std::vector<CPoint,std::allocator<CPoint> > > >,0> >::begin
; Function compile flags: /Ogty
; File c:\program files\microsoft visual studio .net 2003\vc7\include\xtree
;	COMDAT ?begin@?$_Tree@V?$_Tmap_traits@EV?$vector@VCPoint@@V?$allocator@VCPoint@@@std@@@std@@U?$less@E@2@V?$allocator@U?$pair@$$CBEV?$vector@VCPoint@@V?$allocator@VCPoint@@@std@@@std@@@std@@@2@$0A@@std@@@std@@QAE?AViterator@12@XZ
_TEXT	SEGMENT
___$ReturnUdt$ = 8					; size = 4
?begin@?$_Tree@V?$_Tmap_traits@EV?$vector@VCPoint@@V?$allocator@VCPoint@@@std@@@std@@U?$less@E@2@V?$allocator@U?$pair@$$CBEV?$vector@VCPoint@@V?$allocator@VCPoint@@@std@@@std@@@std@@@2@$0A@@std@@@std@@QAE?AViterator@12@XZ PROC NEAR ; std::_Tree<std::_Tmap_traits<unsigned char,std::vector<CPoint,std::allocator<CPoint> >,std::less<unsigned char>,std::allocator<std::pair<unsigned char const ,std::vector<CPoint,std::allocator<CPoint> > > >,0> >::begin, COMDAT
; _this$ = ecx

; 408  : 		return (_TREE_ITERATOR(_Lmost()));

  00000	8b 41 04	 mov	 eax, DWORD PTR [ecx+4]
  00003	8b 08		 mov	 ecx, DWORD PTR [eax]
  00005	8b 44 24 04	 mov	 eax, DWORD PTR ___$ReturnUdt$[esp-4]
  00009	89 08		 mov	 DWORD PTR [eax], ecx

; 409  : 		}

  0000b	c2 04 00	 ret	 4
?begin@?$_Tree@V?$_Tmap_traits@EV?$vector@VCPoint@@V?$allocator@VCPoint@@@std@@@std@@U?$less@E@2@V?$allocator@U?$pair@$$CBEV?$vector@VCPoint@@V?$allocator@VCPoint@@@std@@@std@@@std@@@2@$0A@@std@@@std@@QAE?AViterator@12@XZ ENDP ; std::_Tree<std::_Tmap_traits<unsigned char,std::vector<CPoint,std::allocator<CPoint> >,std::less<unsigned char>,std::allocator<std::pair<unsigned char const ,std::vector<CPoint,std::allocator<CPoint> > > >,0> >::begin
_TEXT	ENDS
PUBLIC	?end@?$_Tree@V?$_Tmap_traits@EV?$vector@VCPoint@@V?$allocator@VCPoint@@@std@@@std@@U?$less@E@2@V?$allocator@U?$pair@$$CBEV?$vector@VCPoint@@V?$allocator@VCPoint@@@std@@@std@@@std@@@2@$0A@@std@@@std@@QAE?AViterator@12@XZ ; std::_Tree<std::_Tmap_traits<unsigned char,std::vector<CPoint,std::allocator<CPoint> >,std::less<unsigned char>,std::allocator<std::pair<unsigned char const ,std::vector<CPoint,std::allocator<CPoint> > > >,0> >::end
; Function compile flags: /Ogty
;	COMDAT ?end@?$_Tree@V?$_Tmap_traits@EV?$vector@VCPoint@@V?$allocator@VCPoint@@@std@@@std@@U?$less@E@2@V?$allocator@U?$pair@$$CBEV?$vector@VCPoint@@V?$allocator@VCPoint@@@std@@@std@@@std@@@2@$0A@@std@@@std@@QAE?AViterator@12@XZ
_TEXT	SEGMENT
___$ReturnUdt$ = 8					; size = 4
?end@?$_Tree@V?$_Tmap_traits@EV?$vector@VCPoint@@V?$allocator@VCPoint@@@std@@@std@@U?$less@E@2@V?$allocator@U?$pair@$$CBEV?$vector@VCPoint@@V?$allocator@VCPoint@@@std@@@std@@@std@@@2@$0A@@std@@@std@@QAE?AViterator@12@XZ PROC NEAR ; std::_Tree<std::_Tmap_traits<unsigned char,std::vector<CPoint,std::allocator<CPoint> >,std::less<unsigned char>,std::allocator<std::pair<unsigned char const ,std::vector<CPoint,std::allocator<CPoint> > > >,0> >::end, COMDAT
; _this$ = ecx

; 418  : 		return (_TREE_ITERATOR(_Myhead));

  00000	8b 49 04	 mov	 ecx, DWORD PTR [ecx+4]
  00003	8b 44 24 04	 mov	 eax, DWORD PTR ___$ReturnUdt$[esp-4]
  00007	89 08		 mov	 DWORD PTR [eax], ecx

; 419  : 		}

  00009	c2 04 00	 ret	 4
?end@?$_Tree@V?$_Tmap_traits@EV?$vector@VCPoint@@V?$allocator@VCPoint@@@std@@@std@@U?$less@E@2@V?$allocator@U?$pair@$$CBEV?$vector@VCPoint@@V?$allocator@VCPoint@@@std@@@std@@@std@@@2@$0A@@std@@@std@@QAE?AViterator@12@XZ ENDP ; std::_Tree<std::_Tmap_traits<unsigned char,std::vector<CPoint,std::allocator<CPoint> >,std::less<unsigned char>,std::allocator<std::pair<unsigned char const ,std::vector<CPoint,std::allocator<CPoint> > > >,0> >::end
_TEXT	ENDS
PUBLIC	??A?$vector@VCPoint@@V?$allocator@VCPoint@@@std@@@std@@QAEAAVCPoint@@I@Z ; std::vector<CPoint,std::allocator<CPoint> >::operator[]
; Function compile flags: /Ogty
; File c:\program files\microsoft visual studio .net 2003\vc7\include\vector
;	COMDAT ??A?$vector@VCPoint@@V?$allocator@VCPoint@@@std@@@std@@QAEAAVCPoint@@I@Z
_TEXT	SEGMENT
__Pos$ = 8						; size = 4
??A?$vector@VCPoint@@V?$allocator@VCPoint@@@std@@@std@@QAEAAVCPoint@@I@Z PROC NEAR ; std::vector<CPoint,std::allocator<CPoint> >::operator[], COMDAT
; _this$ = ecx

; 555  : 		return (*(begin() + _Pos));

  00000	8b 41 04	 mov	 eax, DWORD PTR [ecx+4]
  00003	8b 4c 24 04	 mov	 ecx, DWORD PTR __Pos$[esp-4]
  00007	8d 04 c8	 lea	 eax, DWORD PTR [eax+ecx*8]

; 556  : 		}

  0000a	c2 04 00	 ret	 4
??A?$vector@VCPoint@@V?$allocator@VCPoint@@@std@@@std@@QAEAAVCPoint@@I@Z ENDP ; std::vector<CPoint,std::allocator<CPoint> >::operator[]
_TEXT	ENDS
PUBLIC	??0?$pair@Viterator@?$_Tree@V?$_Tmap_traits@EV?$vector@VCPoint@@V?$allocator@VCPoint@@@std@@@std@@U?$less@E@2@V?$allocator@U?$pair@$$CBEV?$vector@VCPoint@@V?$allocator@VCPoint@@@std@@@std@@@std@@@2@$0A@@std@@@std@@H@std@@QAE@XZ ; std::pair<std::_Tree<std::_Tmap_traits<unsigned char,std::vector<CPoint,std::allocator<CPoint> >,std::less<unsigned char>,std::allocator<std::pair<unsigned char const ,std::vector<CPoint,std::allocator<CPoint> > > >,0> >::iterator,int>::pair<std::_Tree<std::_Tmap_traits<unsigned char,std::vector<CPoint,std::allocator<CPoint> >,std::less<unsigned char>,std::allocator<std::pair<unsigned char const ,std::vector<CPoint,std::allocator<CPoint> > > >,0> >::iterator,int>
; Function compile flags: /Ogty
; File c:\program files\microsoft visual studio .net 2003\vc7\include\utility
;	COMDAT ??0?$pair@Viterator@?$_Tree@V?$_Tmap_traits@EV?$vector@VCPoint@@V?$allocator@VCPoint@@@std@@@std@@U?$less@E@2@V?$allocator@U?$pair@$$CBEV?$vector@VCPoint@@V?$allocator@VCPoint@@@std@@@std@@@std@@@2@$0A@@std@@@std@@H@std@@QAE@XZ
_TEXT	SEGMENT
??0?$pair@Viterator@?$_Tree@V?$_Tmap_traits@EV?$vector@VCPoint@@V?$allocator@VCPoint@@@std@@@std@@U?$less@E@2@V?$allocator@U?$pair@$$CBEV?$vector@VCPoint@@V?$allocator@VCPoint@@@std@@@std@@@std@@@2@$0A@@std@@@std@@H@std@@QAE@XZ PROC NEAR ; std::pair<std::_Tree<std::_Tmap_traits<unsigned char,std::vector<CPoint,std::allocator<CPoint> >,std::less<unsigned char>,std::allocator<std::pair<unsigned char const ,std::vector<CPoint,std::allocator<CPoint> > > >,0> >::iterator,int>::pair<std::_Tree<std::_Tmap_traits<unsigned char,std::vector<CPoint,std::allocator<CPoint> >,std::less<unsigned char>,std::allocator<std::pair<unsigned char const ,std::vector<CPoint,std::allocator<CPoint> > > >,0> >::iterator,int>, COMDAT
; _this$ = ecx

; 29   : 		{	// construct from defaults

  00000	8b c1		 mov	 eax, ecx
  00002	c7 00 00 00 00
	00		 mov	 DWORD PTR [eax], 0
  00008	c7 40 04 00 00
	00 00		 mov	 DWORD PTR [eax+4], 0

; 30   : 		}

  0000f	c3		 ret	 0
??0?$pair@Viterator@?$_Tree@V?$_Tmap_traits@EV?$vector@VCPoint@@V?$allocator@VCPoint@@@std@@@std@@U?$less@E@2@V?$allocator@U?$pair@$$CBEV?$vector@VCPoint@@V?$allocator@VCPoint@@@std@@@std@@@std@@@2@$0A@@std@@@std@@H@std@@QAE@XZ ENDP ; std::pair<std::_Tree<std::_Tmap_traits<unsigned char,std::vector<CPoint,std::allocator<CPoint> >,std::less<unsigned char>,std::allocator<std::pair<unsigned char const ,std::vector<CPoint,std::allocator<CPoint> > > >,0> >::iterator,int>::pair<std::_Tree<std::_Tmap_traits<unsigned char,std::vector<CPoint,std::allocator<CPoint> >,std::less<unsigned char>,std::allocator<std::pair<unsigned char const ,std::vector<CPoint,std::allocator<CPoint> > > >,0> >::iterator,int>
_TEXT	ENDS
PUBLIC	??Citerator@?$_Tree@V?$_Tmap_traits@EV?$vector@VCPoint@@V?$allocator@VCPoint@@@std@@@std@@U?$less@E@2@V?$allocator@U?$pair@$$CBEV?$vector@VCPoint@@V?$allocator@VCPoint@@@std@@@std@@@std@@@2@$0A@@std@@@std@@QBEPAU?$pair@$$CBEV?$vector@VCPoint@@V?$allocator@VCPoint@@@std@@@std@@@2@XZ ; std::_Tree<std::_Tmap_traits<unsigned char,std::vector<CPoint,std::allocator<CPoint> >,std::less<unsigned char>,std::allocator<std::pair<unsigned char const ,std::vector<CPoint,std::allocator<CPoint> > > >,0> >::iterator::operator->
; Function compile flags: /Ogty
; File c:\program files\microsoft visual studio .net 2003\vc7\include\xtree
;	COMDAT ??Citerator@?$_Tree@V?$_Tmap_traits@EV?$vector@VCPoint@@V?$allocator@VCPoint@@@std@@@std@@U?$less@E@2@V?$allocator@U?$pair@$$CBEV?$vector@VCPoint@@V?$allocator@VCPoint@@@std@@@std@@@std@@@2@$0A@@std@@@std@@QBEPAU?$pair@$$CBEV?$vector@VCPoint@@V?$allocator@VCPoint@@@std@@@std@@@2@XZ
_TEXT	SEGMENT
??Citerator@?$_Tree@V?$_Tmap_traits@EV?$vector@VCPoint@@V?$allocator@VCPoint@@@std@@@std@@U?$less@E@2@V?$allocator@U?$pair@$$CBEV?$vector@VCPoint@@V?$allocator@VCPoint@@@std@@@std@@@std@@@2@$0A@@std@@@std@@QBEPAU?$pair@$$CBEV?$vector@VCPoint@@V?$allocator@VCPoint@@@std@@@std@@@2@XZ PROC NEAR ; std::_Tree<std::_Tmap_traits<unsigned char,std::vector<CPoint,std::allocator<CPoint> >,std::less<unsigned char>,std::allocator<std::pair<unsigned char const ,std::vector<CPoint,std::allocator<CPoint> > > >,0> >::iterator::operator->, COMDAT
; _this$ = ecx

; 322  : 			return (&**this);

  00000	8b 01		 mov	 eax, DWORD PTR [ecx]
  00002	83 c0 0c	 add	 eax, 12			; 0000000cH

; 323  : 			}

  00005	c3		 ret	 0
??Citerator@?$_Tree@V?$_Tmap_traits@EV?$vector@VCPoint@@V?$allocator@VCPoint@@@std@@@std@@U?$less@E@2@V?$allocator@U?$pair@$$CBEV?$vector@VCPoint@@V?$allocator@VCPoint@@@std@@@std@@@std@@@2@$0A@@std@@@std@@QBEPAU?$pair@$$CBEV?$vector@VCPoint@@V?$allocator@VCPoint@@@std@@@std@@@2@XZ ENDP ; std::_Tree<std::_Tmap_traits<unsigned char,std::vector<CPoint,std::allocator<CPoint> >,std::less<unsigned char>,std::allocator<std::pair<unsigned char const ,std::vector<CPoint,std::allocator<CPoint> > > >,0> >::iterator::operator->
_TEXT	ENDS
PUBLIC	??0?$CStringT@DV?$StrTraitMFC@DV?$ChTraitsCRT@D@ATL@@@@@ATL@@QAE@PAUIAtlStringMgr@1@@Z ; ATL::CStringT<char,StrTraitMFC<char,ATL::ChTraitsCRT<char> > >::CStringT<char,StrTraitMFC<char,ATL::ChTraitsCRT<char> > >
; Function compile flags: /Ogty
; File c:\program files\microsoft visual studio .net 2003\vc7\atlmfc\include\cstringt.h
;	COMDAT ??0?$CStringT@DV?$StrTraitMFC@DV?$ChTraitsCRT@D@ATL@@@@@ATL@@QAE@PAUIAtlStringMgr@1@@Z
_TEXT	SEGMENT
_pStringMgr$ = 8					; size = 4
??0?$CStringT@DV?$StrTraitMFC@DV?$ChTraitsCRT@D@ATL@@@@@ATL@@QAE@PAUIAtlStringMgr@1@@Z PROC NEAR ; ATL::CStringT<char,StrTraitMFC<char,ATL::ChTraitsCRT<char> > >::CStringT<char,StrTraitMFC<char,ATL::ChTraitsCRT<char> > >, COMDAT
; _this$ = ecx

; 800  : 	{ 

  00000	56		 push	 esi
  00001	8b f1		 mov	 esi, ecx
  00003	8b 4c 24 08	 mov	 ecx, DWORD PTR _pStringMgr$[esp]
  00007	8b 01		 mov	 eax, DWORD PTR [ecx]
  00009	ff 50 0c	 call	 DWORD PTR [eax+12]
  0000c	83 c0 10	 add	 eax, 16			; 00000010H
  0000f	89 06		 mov	 DWORD PTR [esi], eax

; 801  : 	}

  00011	8b c6		 mov	 eax, esi
  00013	5e		 pop	 esi
  00014	c2 04 00	 ret	 4
??0?$CStringT@DV?$StrTraitMFC@DV?$ChTraitsCRT@D@ATL@@@@@ATL@@QAE@PAUIAtlStringMgr@1@@Z ENDP ; ATL::CStringT<char,StrTraitMFC<char,ATL::ChTraitsCRT<char> > >::CStringT<char,StrTraitMFC<char,ATL::ChTraitsCRT<char> > >
_TEXT	ENDS
PUBLIC	??Econst_iterator@?$_Tree@V?$_Tmap_traits@EV?$vector@VCPoint@@V?$allocator@VCPoint@@@std@@@std@@U?$less@E@2@V?$allocator@U?$pair@$$CBEV?$vector@VCPoint@@V?$allocator@VCPoint@@@std@@@std@@@std@@@2@$0A@@std@@@std@@QAEAAV012@XZ ; std::_Tree<std::_Tmap_traits<unsigned char,std::vector<CPoint,std::allocator<CPoint> >,std::less<unsigned char>,std::allocator<std::pair<unsigned char const ,std::vector<CPoint,std::allocator<CPoint> > > >,0> >::const_iterator::operator++
; Function compile flags: /Ogty
; File c:\program files\microsoft visual studio .net 2003\vc7\include\xtree
;	COMDAT ??Econst_iterator@?$_Tree@V?$_Tmap_traits@EV?$vector@VCPoint@@V?$allocator@VCPoint@@@std@@@std@@U?$less@E@2@V?$allocator@U?$pair@$$CBEV?$vector@VCPoint@@V?$allocator@VCPoint@@@std@@@std@@@std@@@2@$0A@@std@@@std@@QAEAAV012@XZ
_TEXT	SEGMENT
??Econst_iterator@?$_Tree@V?$_Tmap_traits@EV?$vector@VCPoint@@V?$allocator@VCPoint@@@std@@@std@@U?$less@E@2@V?$allocator@U?$pair@$$CBEV?$vector@VCPoint@@V?$allocator@VCPoint@@@std@@@std@@@std@@@2@$0A@@std@@@std@@QAEAAV012@XZ PROC NEAR ; std::_Tree<std::_Tmap_traits<unsigned char,std::vector<CPoint,std::allocator<CPoint> >,std::less<unsigned char>,std::allocator<std::pair<unsigned char const ,std::vector<CPoint,std::allocator<CPoint> > > >,0> >::const_iterator::operator++, COMDAT
; _this$ = ecx

; 214  : 			{	// preincrement

  00000	56		 push	 esi
  00001	8b f1		 mov	 esi, ecx

; 215  : 			_Inc();

  00003	e8 00 00 00 00	 call	 ?_Inc@const_iterator@?$_Tree@V?$_Tmap_traits@EV?$vector@VCPoint@@V?$allocator@VCPoint@@@std@@@std@@U?$less@E@2@V?$allocator@U?$pair@$$CBEV?$vector@VCPoint@@V?$allocator@VCPoint@@@std@@@std@@@std@@@2@$0A@@std@@@std@@QAEXXZ ; std::_Tree<std::_Tmap_traits<unsigned char,std::vector<CPoint,std::allocator<CPoint> >,std::less<unsigned char>,std::allocator<std::pair<unsigned char const ,std::vector<CPoint,std::allocator<CPoint> > > >,0> >::const_iterator::_Inc

; 216  : 			return (*this);

  00008	8b c6		 mov	 eax, esi
  0000a	5e		 pop	 esi

; 217  : 			}

  0000b	c3		 ret	 0
??Econst_iterator@?$_Tree@V?$_Tmap_traits@EV?$vector@VCPoint@@V?$allocator@VCPoint@@@std@@@std@@U?$less@E@2@V?$allocator@U?$pair@$$CBEV?$vector@VCPoint@@V?$allocator@VCPoint@@@std@@@std@@@std@@@2@$0A@@std@@@std@@QAEAAV012@XZ ENDP ; std::_Tree<std::_Tmap_traits<unsigned char,std::vector<CPoint,std::allocator<CPoint> >,std::less<unsigned char>,std::allocator<std::pair<unsigned char const ,std::vector<CPoint,std::allocator<CPoint> > > >,0> >::const_iterator::operator++
_TEXT	ENDS
PUBLIC	??Fconst_iterator@?$_Tree@V?$_Tmap_traits@EV?$vector@VCPoint@@V?$allocator@VCPoint@@@std@@@std@@U?$less@E@2@V?$allocator@U?$pair@$$CBEV?$vector@VCPoint@@V?$allocator@VCPoint@@@std@@@std@@@std@@@2@$0A@@std@@@std@@QAEAAV012@XZ ; std::_Tree<std::_Tmap_traits<unsigned char,std::vector<CPoint,std::allocator<CPoint> >,std::less<unsigned char>,std::allocator<std::pair<unsigned char const ,std::vector<CPoint,std::allocator<CPoint> > > >,0> >::const_iterator::operator--
; Function compile flags: /Ogty
;	COMDAT ??Fconst_iterator@?$_Tree@V?$_Tmap_traits@EV?$vector@VCPoint@@V?$allocator@VCPoint@@@std@@@std@@U?$less@E@2@V?$allocator@U?$pair@$$CBEV?$vector@VCPoint@@V?$allocator@VCPoint@@@std@@@std@@@std@@@2@$0A@@std@@@std@@QAEAAV012@XZ
_TEXT	SEGMENT
??Fconst_iterator@?$_Tree@V?$_Tmap_traits@EV?$vector@VCPoint@@V?$allocator@VCPoint@@@std@@@std@@U?$less@E@2@V?$allocator@U?$pair@$$CBEV?$vector@VCPoint@@V?$allocator@VCPoint@@@std@@@std@@@std@@@2@$0A@@std@@@std@@QAEAAV012@XZ PROC NEAR ; std::_Tree<std::_Tmap_traits<unsigned char,std::vector<CPoint,std::allocator<CPoint> >,std::less<unsigned char>,std::allocator<std::pair<unsigned char const ,std::vector<CPoint,std::allocator<CPoint> > > >,0> >::const_iterator::operator--, COMDAT
; _this$ = ecx

; 227  : 			{	// predecrement

  00000	56		 push	 esi
  00001	8b f1		 mov	 esi, ecx

; 228  : 			_Dec();

  00003	e8 00 00 00 00	 call	 ?_Dec@const_iterator@?$_Tree@V?$_Tmap_traits@EV?$vector@VCPoint@@V?$allocator@VCPoint@@@std@@@std@@U?$less@E@2@V?$allocator@U?$pair@$$CBEV?$vector@VCPoint@@V?$allocator@VCPoint@@@std@@@std@@@std@@@2@$0A@@std@@@std@@QAEXXZ ; std::_Tree<std::_Tmap_traits<unsigned char,std::vector<CPoint,std::allocator<CPoint> >,std::less<unsigned char>,std::allocator<std::pair<unsigned char const ,std::vector<CPoint,std::allocator<CPoint> > > >,0> >::const_iterator::_Dec

; 229  : 			return (*this);

  00008	8b c6		 mov	 eax, esi
  0000a	5e		 pop	 esi

; 230  : 			}

  0000b	c3		 ret	 0
??Fconst_iterator@?$_Tree@V?$_Tmap_traits@EV?$vector@VCPoint@@V?$allocator@VCPoint@@@std@@@std@@U?$less@E@2@V?$allocator@U?$pair@$$CBEV?$vector@VCPoint@@V?$allocator@VCPoint@@@std@@@std@@@std@@@2@$0A@@std@@@std@@QAEAAV012@XZ ENDP ; std::_Tree<std::_Tmap_traits<unsigned char,std::vector<CPoint,std::allocator<CPoint> >,std::less<unsigned char>,std::allocator<std::pair<unsigned char const ,std::vector<CPoint,std::allocator<CPoint> > > >,0> >::const_iterator::operator--
_TEXT	ENDS
PUBLIC	?_Buynode@?$_Tree@V?$_Tmap_traits@EV?$vector@VCPoint@@V?$allocator@VCPoint@@@std@@@std@@U?$less@E@2@V?$allocator@U?$pair@$$CBEV?$vector@VCPoint@@V?$allocator@VCPoint@@@std@@@std@@@std@@@2@$0A@@std@@@std@@IAEPAU_Node@?$_Tree_nod@V?$_Tmap_traits@EV?$vector@VCPoint@@V?$allocator@VCPoint@@@std@@@std@@U?$less@E@2@V?$allocator@U?$pair@$$CBEV?$vector@VCPoint@@V?$allocator@VCPoint@@@std@@@std@@@std@@@2@$0A@@std@@@2@XZ ; std::_Tree<std::_Tmap_traits<unsigned char,std::vector<CPoint,std::allocator<CPoint> >,std::less<unsigned char>,std::allocator<std::pair<unsigned char const ,std::vector<CPoint,std::allocator<CPoint> > > >,0> >::_Buynode
; Function compile flags: /Ogty
;	COMDAT ?_Buynode@?$_Tree@V?$_Tmap_traits@EV?$vector@VCPoint@@V?$allocator@VCPoint@@@std@@@std@@U?$less@E@2@V?$allocator@U?$pair@$$CBEV?$vector@VCPoint@@V?$allocator@VCPoint@@@std@@@std@@@std@@@2@$0A@@std@@@std@@IAEPAU_Node@?$_Tree_nod@V?$_Tmap_traits@EV?$vector@VCPoint@@V?$allocator@VCPoint@@@std@@@std@@U?$less@E@2@V?$allocator@U?$pair@$$CBEV?$vector@VCPoint@@V?$allocator@VCPoint@@@std@@@std@@@std@@@2@$0A@@std@@@2@XZ
_TEXT	SEGMENT
?_Buynode@?$_Tree@V?$_Tmap_traits@EV?$vector@VCPoint@@V?$allocator@VCPoint@@@std@@@std@@U?$less@E@2@V?$allocator@U?$pair@$$CBEV?$vector@VCPoint@@V?$allocator@VCPoint@@@std@@@std@@@std@@@2@$0A@@std@@@std@@IAEPAU_Node@?$_Tree_nod@V?$_Tmap_traits@EV?$vector@VCPoint@@V?$allocator@VCPoint@@@std@@@std@@U?$less@E@2@V?$allocator@U?$pair@$$CBEV?$vector@VCPoint@@V?$allocator@VCPoint@@@std@@@std@@@std@@@2@$0A@@std@@@2@XZ PROC NEAR ; std::_Tree<std::_Tmap_traits<unsigned char,std::vector<CPoint,std::allocator<CPoint> >,std::less<unsigned char>,std::allocator<std::pair<unsigned char const ,std::vector<CPoint,std::allocator<CPoint> > > >,0> >::_Buynode, COMDAT
; _this$ = ecx

; 1106 : 		_Nodeptr _Wherenode = this->_Alnod.allocate(1);

  00000	6a 24		 push	 36			; 00000024H
  00002	e8 00 00 00 00	 call	 ??2@YAPAXI@Z		; operator new
  00007	83 c4 04	 add	 esp, 4

; 1107 : 		int _Linkcnt = 0;
; 1108 : 
; 1109 : 		_TRY_BEGIN
; 1110 : 		this->_Alptr.construct(&_Left(_Wherenode), 0);

  0000a	85 c0		 test	 eax, eax
  0000c	74 06		 je	 SHORT $L234992
  0000e	c7 00 00 00 00
	00		 mov	 DWORD PTR [eax], 0
$L234992:

; 1111 : 		++_Linkcnt;
; 1112 : 		this->_Alptr.construct(&_Parent(_Wherenode), 0);

  00014	8d 48 04	 lea	 ecx, DWORD PTR [eax+4]
  00017	85 c9		 test	 ecx, ecx
  00019	74 06		 je	 SHORT $L235019
  0001b	c7 01 00 00 00
	00		 mov	 DWORD PTR [ecx], 0
$L235019:

; 1113 : 		++_Linkcnt;
; 1114 : 		this->_Alptr.construct(&_Right(_Wherenode), 0);

  00021	8d 48 08	 lea	 ecx, DWORD PTR [eax+8]
  00024	85 c9		 test	 ecx, ecx
  00026	74 06		 je	 SHORT $L235046
  00028	c7 01 00 00 00
	00		 mov	 DWORD PTR [ecx], 0
$L235046:

; 1115 : 		_CATCH_ALL
; 1116 : 		if (1 < _Linkcnt)
; 1117 : 			this->_Alptr.destroy(&_Parent(_Wherenode));
; 1118 : 		if (0 < _Linkcnt)
; 1119 : 			this->_Alptr.destroy(&_Left(_Wherenode));
; 1120 : 		this->_Alnod.deallocate(_Wherenode, 1);
; 1121 : 		_RERAISE;
; 1122 : 		_CATCH_END
; 1123 : 		_Color(_Wherenode) = _Black;

  0002e	c6 40 20 01	 mov	 BYTE PTR [eax+32], 1

; 1124 : 		_Isnil(_Wherenode) = false;

  00032	c6 40 21 00	 mov	 BYTE PTR [eax+33], 0

; 1125 : 		return (_Wherenode);
; 1126 : 		}

  00036	c3		 ret	 0
?_Buynode@?$_Tree@V?$_Tmap_traits@EV?$vector@VCPoint@@V?$allocator@VCPoint@@@std@@@std@@U?$less@E@2@V?$allocator@U?$pair@$$CBEV?$vector@VCPoint@@V?$allocator@VCPoint@@@std@@@std@@@std@@@2@$0A@@std@@@std@@IAEPAU_Node@?$_Tree_nod@V?$_Tmap_traits@EV?$vector@VCPoint@@V?$allocator@VCPoint@@@std@@@std@@U?$less@E@2@V?$allocator@U?$pair@$$CBEV?$vector@VCPoint@@V?$allocator@VCPoint@@@std@@@std@@@std@@@2@$0A@@std@@@2@XZ ENDP ; std::_Tree<std::_Tmap_traits<unsigned char,std::vector<CPoint,std::allocator<CPoint> >,std::less<unsigned char>,std::allocator<std::pair<unsigned char const ,std::vector<CPoint,std::allocator<CPoint> > > >,0> >::_Buynode
_TEXT	ENDS
PUBLIC	??0?$_Tree_ptr@V?$_Tmap_traits@EV?$vector@VCPoint@@V?$allocator@VCPoint@@@std@@@std@@U?$less@E@2@V?$allocator@U?$pair@$$CBEV?$vector@VCPoint@@V?$allocator@VCPoint@@@std@@@std@@@std@@@2@$0A@@std@@@std@@IAE@ABU?$less@E@1@V?$allocator@U?$pair@$$CBEV?$vector@VCPoint@@V?$allocator@VCPoint@@@std@@@std@@@std@@@1@@Z ; std::_Tree_ptr<std::_Tmap_traits<unsigned char,std::vector<CPoint,std::allocator<CPoint> >,std::less<unsigned char>,std::allocator<std::pair<unsigned char const ,std::vector<CPoint,std::allocator<CPoint> > > >,0> >::_Tree_ptr<std::_Tmap_traits<unsigned char,std::vector<CPoint,std::allocator<CPoint> >,std::less<unsigned char>,std::allocator<std::pair<unsigned char const ,std::vector<CPoint,std::allocator<CPoint> > > >,0> >
; Function compile flags: /Ogty
;	COMDAT ??0?$_Tree_ptr@V?$_Tmap_traits@EV?$vector@VCPoint@@V?$allocator@VCPoint@@@std@@@std@@U?$less@E@2@V?$allocator@U?$pair@$$CBEV?$vector@VCPoint@@V?$allocator@VCPoint@@@std@@@std@@@std@@@2@$0A@@std@@@std@@IAE@ABU?$less@E@1@V?$allocator@U?$pair@$$CBEV?$vector@VCPoint@@V?$allocator@VCPoint@@@std@@@std@@@std@@@1@@Z
_TEXT	SEGMENT
__Parg$ = 8						; size = 4
__Al$ = 12						; size = 1
??0?$_Tree_ptr@V?$_Tmap_traits@EV?$vector@VCPoint@@V?$allocator@VCPoint@@@std@@@std@@U?$less@E@2@V?$allocator@U?$pair@$$CBEV?$vector@VCPoint@@V?$allocator@VCPoint@@@std@@@std@@@std@@@2@$0A@@std@@@std@@IAE@ABU?$less@E@1@V?$allocator@U?$pair@$$CBEV?$vector@VCPoint@@V?$allocator@VCPoint@@@std@@@std@@@std@@@1@@Z PROC NEAR ; std::_Tree_ptr<std::_Tmap_traits<unsigned char,std::vector<CPoint,std::allocator<CPoint> >,std::less<unsigned char>,std::allocator<std::pair<unsigned char const ,std::vector<CPoint,std::allocator<CPoint> > > >,0> >::_Tree_ptr<std::_Tmap_traits<unsigned char,std::vector<CPoint,std::allocator<CPoint> >,std::less<unsigned char>,std::allocator<std::pair<unsigned char const ,std::vector<CPoint,std::allocator<CPoint> > > >,0> >, COMDAT
; _this$ = ecx

; 76   : 		{	// construct base, and allocator from _Al

  00000	8b c1		 mov	 eax, ecx

; 77   : 		}

  00002	c2 08 00	 ret	 8
??0?$_Tree_ptr@V?$_Tmap_traits@EV?$vector@VCPoint@@V?$allocator@VCPoint@@@std@@@std@@U?$less@E@2@V?$allocator@U?$pair@$$CBEV?$vector@VCPoint@@V?$allocator@VCPoint@@@std@@@std@@@std@@@2@$0A@@std@@@std@@IAE@ABU?$less@E@1@V?$allocator@U?$pair@$$CBEV?$vector@VCPoint@@V?$allocator@VCPoint@@@std@@@std@@@std@@@1@@Z ENDP ; std::_Tree_ptr<std::_Tmap_traits<unsigned char,std::vector<CPoint,std::allocator<CPoint> >,std::less<unsigned char>,std::allocator<std::pair<unsigned char const ,std::vector<CPoint,std::allocator<CPoint> > > >,0> >::_Tree_ptr<std::_Tmap_traits<unsigned char,std::vector<CPoint,std::allocator<CPoint> >,std::less<unsigned char>,std::allocator<std::pair<unsigned char const ,std::vector<CPoint,std::allocator<CPoint> > > >,0> >
_TEXT	ENDS
PUBLIC	??$_Uninitialized_copy@PAVCPoint@@PAV1@V?$allocator@VCPoint@@@std@@@std@@YAPAVCPoint@@PAV1@00AAV?$allocator@VCPoint@@@0@@Z ; std::_Uninitialized_copy<CPoint *,CPoint *,std::allocator<CPoint> >
; Function compile flags: /Ogty
; File c:\program files\microsoft visual studio .net 2003\vc7\include\memory
;	COMDAT ??$_Uninitialized_copy@PAVCPoint@@PAV1@V?$allocator@VCPoint@@@std@@@std@@YAPAVCPoint@@PAV1@00AAV?$allocator@VCPoint@@@0@@Z
_TEXT	SEGMENT
__Cat$235099 = -4					; size = 1
__First$ = 8						; size = 4
__Last$ = 12						; size = 4
__Dest$ = 16						; size = 4
__Al$ = 20						; size = 4
??$_Uninitialized_copy@PAVCPoint@@PAV1@V?$allocator@VCPoint@@@std@@@std@@YAPAVCPoint@@PAV1@00AAV?$allocator@VCPoint@@@0@@Z PROC NEAR ; std::_Uninitialized_copy<CPoint *,CPoint *,std::allocator<CPoint> >, COMDAT

; 126  : 	{	// copy [_First, _Last) to raw _Dest, using _Al

  00000	51		 push	 ecx

; 127  : 	return (_Uninit_copy(_First, _Last, _Dest, _Al,
; 128  : 		_Ptr_cat(_First, _Dest)));

  00001	8b 04 24	 mov	 eax, DWORD PTR __Cat$235099[esp+4]
  00004	8b 4c 24 14	 mov	 ecx, DWORD PTR __Al$[esp]
  00008	8b 54 24 10	 mov	 edx, DWORD PTR __Dest$[esp]
  0000c	50		 push	 eax
  0000d	8b 44 24 10	 mov	 eax, DWORD PTR __Last$[esp+4]
  00011	51		 push	 ecx
  00012	8b 4c 24 10	 mov	 ecx, DWORD PTR __First$[esp+8]
  00016	52		 push	 edx
  00017	50		 push	 eax
  00018	51		 push	 ecx
  00019	e8 00 00 00 00	 call	 ??$_Uninit_copy@PAVCPoint@@PAV1@V?$allocator@VCPoint@@@std@@@std@@YAPAVCPoint@@PAV1@00AAV?$allocator@VCPoint@@@0@U_Nonscalar_ptr_iterator_tag@0@@Z ; std::_Uninit_copy<CPoint *,CPoint *,std::allocator<CPoint> >

; 129  : 	}

  0001e	83 c4 18	 add	 esp, 24			; 00000018H
  00021	c3		 ret	 0
??$_Uninitialized_copy@PAVCPoint@@PAV1@V?$allocator@VCPoint@@@std@@@std@@YAPAVCPoint@@PAV1@00AAV?$allocator@VCPoint@@@0@@Z ENDP ; std::_Uninitialized_copy<CPoint *,CPoint *,std::allocator<CPoint> >
_TEXT	ENDS
PUBLIC	??$_Destroy_range@VCPoint@@V?$allocator@VCPoint@@@std@@@std@@YAXPAVCPoint@@0AAV?$allocator@VCPoint@@@0@U_Nonscalar_ptr_iterator_tag@0@@Z ; std::_Destroy_range<CPoint,std::allocator<CPoint> >
; Function compile flags: /Ogty
; File c:\program files\microsoft visual studio .net 2003\vc7\include\xmemory
;	COMDAT ??$_Destroy_range@VCPoint@@V?$allocator@VCPoint@@@std@@@std@@YAXPAVCPoint@@0AAV?$allocator@VCPoint@@@0@U_Nonscalar_ptr_iterator_tag@0@@Z
_TEXT	SEGMENT
__First$ = 8						; size = 4
__Last$ = 12						; size = 4
__Al$ = 16						; size = 4
___formal$ = 20						; size = 1
??$_Destroy_range@VCPoint@@V?$allocator@VCPoint@@@std@@@std@@YAXPAVCPoint@@0AAV?$allocator@VCPoint@@@0@U_Nonscalar_ptr_iterator_tag@0@@Z PROC NEAR ; std::_Destroy_range<CPoint,std::allocator<CPoint> >, COMDAT

; 225  : 	for (; _First != _Last; ++_First)
; 226  : 		_Al.destroy(_First);
; 227  : 	}

  00000	c3		 ret	 0
??$_Destroy_range@VCPoint@@V?$allocator@VCPoint@@@std@@@std@@YAXPAVCPoint@@0AAV?$allocator@VCPoint@@@0@U_Nonscalar_ptr_iterator_tag@0@@Z ENDP ; std::_Destroy_range<CPoint,std::allocator<CPoint> >
_TEXT	ENDS
PUBLIC	??$_Uninit_fill_n@PAVCPoint@@IV1@V?$allocator@VCPoint@@@std@@@std@@YAXPAVCPoint@@IABV1@AAV?$allocator@VCPoint@@@0@U_Nonscalar_ptr_iterator_tag@0@@Z ; std::_Uninit_fill_n<CPoint *,unsigned int,CPoint,std::allocator<CPoint> >
; Function compile flags: /Ogty
; File c:\program files\microsoft visual studio .net 2003\vc7\include\memory
;	COMDAT ??$_Uninit_fill_n@PAVCPoint@@IV1@V?$allocator@VCPoint@@@std@@@std@@YAXPAVCPoint@@IABV1@AAV?$allocator@VCPoint@@@0@U_Nonscalar_ptr_iterator_tag@0@@Z
_TEXT	SEGMENT
__First$ = 8						; size = 4
__Count$ = 12						; size = 4
__Val$ = 16						; size = 4
__Al$ = 20						; size = 4
___formal$ = 24						; size = 1
??$_Uninit_fill_n@PAVCPoint@@IV1@V?$allocator@VCPoint@@@std@@@std@@YAXPAVCPoint@@IABV1@AAV?$allocator@VCPoint@@@0@U_Nonscalar_ptr_iterator_tag@0@@Z PROC NEAR ; std::_Uninit_fill_n<CPoint *,unsigned int,CPoint,std::allocator<CPoint> >, COMDAT

; 208  : 	_FwdIt _Next = _First;
; 209  : 
; 210  : 	_TRY_BEGIN
; 211  : 	for (; 0 < _Count; --_Count, ++_First)

  00000	8b 44 24 08	 mov	 eax, DWORD PTR __Count$[esp-4]
  00004	85 c0		 test	 eax, eax
  00006	76 20		 jbe	 SHORT $L232525
  00008	8b 4c 24 0c	 mov	 ecx, DWORD PTR __Val$[esp-4]
  0000c	8b d0		 mov	 edx, eax
  0000e	8b 44 24 04	 mov	 eax, DWORD PTR __First$[esp-4]
  00012	56		 push	 esi
$L232523:

; 212  : 		_Al.construct(_First, _Val);

  00013	85 c0		 test	 eax, eax
  00015	74 0a		 je	 SHORT $L232524
  00017	8b 31		 mov	 esi, DWORD PTR [ecx]
  00019	89 30		 mov	 DWORD PTR [eax], esi
  0001b	8b 71 04	 mov	 esi, DWORD PTR [ecx+4]
  0001e	89 70 04	 mov	 DWORD PTR [eax+4], esi
$L232524:
  00021	83 c0 08	 add	 eax, 8
  00024	4a		 dec	 edx
  00025	75 ec		 jne	 SHORT $L232523
  00027	5e		 pop	 esi
$L232525:

; 213  : 	_CATCH_ALL
; 214  : 	for (; _Next != _First; ++_Next)
; 215  : 		_Al.destroy(_Next);
; 216  : 	_RERAISE;
; 217  : 	_CATCH_END
; 218  : 	}

  00028	c3		 ret	 0
??$_Uninit_fill_n@PAVCPoint@@IV1@V?$allocator@VCPoint@@@std@@@std@@YAXPAVCPoint@@IABV1@AAV?$allocator@VCPoint@@@0@U_Nonscalar_ptr_iterator_tag@0@@Z ENDP ; std::_Uninit_fill_n<CPoint *,unsigned int,CPoint,std::allocator<CPoint> >
_TEXT	ENDS
PUBLIC	??$_Uninit_copy@Vconst_iterator@?$vector@VCPoint@@V?$allocator@VCPoint@@@std@@@std@@PAVCPoint@@V?$allocator@VCPoint@@@3@@std@@YAPAVCPoint@@Vconst_iterator@?$vector@VCPoint@@V?$allocator@VCPoint@@@std@@@0@0PAV1@AAV?$allocator@VCPoint@@@0@U_Nonscalar_ptr_iterator_tag@0@@Z ; std::_Uninit_copy<std::vector<CPoint,std::allocator<CPoint> >::const_iterator,CPoint *,std::allocator<CPoint> >
; Function compile flags: /Ogty
;	COMDAT ??$_Uninit_copy@Vconst_iterator@?$vector@VCPoint@@V?$allocator@VCPoint@@@std@@@std@@PAVCPoint@@V?$allocator@VCPoint@@@3@@std@@YAPAVCPoint@@Vconst_iterator@?$vector@VCPoint@@V?$allocator@VCPoint@@@std@@@0@0PAV1@AAV?$allocator@VCPoint@@@0@U_Nonscalar_ptr_iterator_tag@0@@Z
_TEXT	SEGMENT
__First$ = 8						; size = 4
__Last$ = 12						; size = 4
__Dest$ = 16						; size = 4
__Al$ = 20						; size = 4
___formal$ = 24						; size = 1
??$_Uninit_copy@Vconst_iterator@?$vector@VCPoint@@V?$allocator@VCPoint@@@std@@@std@@PAVCPoint@@V?$allocator@VCPoint@@@3@@std@@YAPAVCPoint@@Vconst_iterator@?$vector@VCPoint@@V?$allocator@VCPoint@@@std@@@0@0PAV1@AAV?$allocator@VCPoint@@@0@U_Nonscalar_ptr_iterator_tag@0@@Z PROC NEAR ; std::_Uninit_copy<std::vector<CPoint,std::allocator<CPoint> >::const_iterator,CPoint *,std::allocator<CPoint> >, COMDAT

; 78   : 	_FwdIt _Next = _Dest;
; 79   : 
; 80   : 	_TRY_BEGIN
; 81   : 	for (; _First != _Last; ++_Dest, ++_First)

  00000	8b 4c 24 04	 mov	 ecx, DWORD PTR __First$[esp-4]
  00004	8b 54 24 08	 mov	 edx, DWORD PTR __Last$[esp-4]
  00008	3b ca		 cmp	 ecx, edx
  0000a	8b 44 24 0c	 mov	 eax, DWORD PTR __Dest$[esp-4]
  0000e	74 1a		 je	 SHORT $L232657
  00010	56		 push	 esi
$L235145:

; 82   : 		_Al.construct(_Dest, *_First);

  00011	85 c0		 test	 eax, eax
  00013	74 0a		 je	 SHORT $L232656
  00015	8b 31		 mov	 esi, DWORD PTR [ecx]
  00017	89 30		 mov	 DWORD PTR [eax], esi
  00019	8b 71 04	 mov	 esi, DWORD PTR [ecx+4]
  0001c	89 70 04	 mov	 DWORD PTR [eax+4], esi
$L232656:
  0001f	83 c1 08	 add	 ecx, 8
  00022	83 c0 08	 add	 eax, 8
  00025	3b ca		 cmp	 ecx, edx
  00027	75 e8		 jne	 SHORT $L235145
  00029	5e		 pop	 esi
$L232657:

; 83   : 	_CATCH_ALL
; 84   : 	for (; _Next != _Dest; ++_Next)
; 85   : 		_Al.destroy(_Next);
; 86   : 	_RERAISE;
; 87   : 	_CATCH_END
; 88   : 	return (_Dest);
; 89   : 	}

  0002a	c3		 ret	 0
??$_Uninit_copy@Vconst_iterator@?$vector@VCPoint@@V?$allocator@VCPoint@@@std@@@std@@PAVCPoint@@V?$allocator@VCPoint@@@3@@std@@YAPAVCPoint@@Vconst_iterator@?$vector@VCPoint@@V?$allocator@VCPoint@@@std@@@0@0PAV1@AAV?$allocator@VCPoint@@@0@U_Nonscalar_ptr_iterator_tag@0@@Z ENDP ; std::_Uninit_copy<std::vector<CPoint,std::allocator<CPoint> >::const_iterator,CPoint *,std::allocator<CPoint> >
_TEXT	ENDS
PUBLIC	??0?$CStringT@DV?$StrTraitMFC@DV?$ChTraitsCRT@D@ATL@@@@@ATL@@QAE@XZ ; ATL::CStringT<char,StrTraitMFC<char,ATL::ChTraitsCRT<char> > >::CStringT<char,StrTraitMFC<char,ATL::ChTraitsCRT<char> > >
; Function compile flags: /Ogty
; File c:\program files\microsoft visual studio .net 2003\vc7\atlmfc\include\cstringt.h
;	COMDAT ??0?$CStringT@DV?$StrTraitMFC@DV?$ChTraitsCRT@D@ATL@@@@@ATL@@QAE@XZ
_TEXT	SEGMENT
??0?$CStringT@DV?$StrTraitMFC@DV?$ChTraitsCRT@D@ATL@@@@@ATL@@QAE@XZ PROC NEAR ; ATL::CStringT<char,StrTraitMFC<char,ATL::ChTraitsCRT<char> > >::CStringT<char,StrTraitMFC<char,ATL::ChTraitsCRT<char> > >, COMDAT
; _this$ = ecx

; 796  : 	{

  00000	56		 push	 esi
  00001	8b f1		 mov	 esi, ecx
  00003	e8 00 00 00 00	 call	 ?AfxGetStringManager@@YGPAUIAtlStringMgr@ATL@@XZ ; AfxGetStringManager
  00008	8b 10		 mov	 edx, DWORD PTR [eax]
  0000a	8b c8		 mov	 ecx, eax
  0000c	ff 52 0c	 call	 DWORD PTR [edx+12]
  0000f	83 c0 10	 add	 eax, 16			; 00000010H
  00012	89 06		 mov	 DWORD PTR [esi], eax

; 797  : 	}

  00014	8b c6		 mov	 eax, esi
  00016	5e		 pop	 esi
  00017	c3		 ret	 0
??0?$CStringT@DV?$StrTraitMFC@DV?$ChTraitsCRT@D@ATL@@@@@ATL@@QAE@XZ ENDP ; ATL::CStringT<char,StrTraitMFC<char,ATL::ChTraitsCRT<char> > >::CStringT<char,StrTraitMFC<char,ATL::ChTraitsCRT<char> > >
_TEXT	ENDS
PUBLIC	??1?$CStringT@DV?$StrTraitMFC@DV?$ChTraitsCRT@D@ATL@@@@@ATL@@QAE@XZ ; ATL::CStringT<char,StrTraitMFC<char,ATL::ChTraitsCRT<char> > >::~CStringT<char,StrTraitMFC<char,ATL::ChTraitsCRT<char> > >
; Function compile flags: /Ogty
;	COMDAT ??1?$CStringT@DV?$StrTraitMFC@DV?$ChTraitsCRT@D@ATL@@@@@ATL@@QAE@XZ
_TEXT	SEGMENT
??1?$CStringT@DV?$StrTraitMFC@DV?$ChTraitsCRT@D@ATL@@@@@ATL@@QAE@XZ PROC NEAR ; ATL::CStringT<char,StrTraitMFC<char,ATL::ChTraitsCRT<char> > >::~CStringT<char,StrTraitMFC<char,ATL::ChTraitsCRT<char> > >, COMDAT
; _this$ = ecx

; 963  : 	}

  00000	8b 01		 mov	 eax, DWORD PTR [ecx]
  00002	83 e8 10	 sub	 eax, 16			; 00000010H
  00005	8d 48 0c	 lea	 ecx, DWORD PTR [eax+12]
  00008	83 ca ff	 or	 edx, -1
  0000b	f0 0f c1 11	 lock	  xadd	 DWORD PTR [ecx], edx
  0000f	4a		 dec	 edx
  00010	85 d2		 test	 edx, edx
  00012	7f 08		 jg	 SHORT $L235227
  00014	8b 08		 mov	 ecx, DWORD PTR [eax]
  00016	8b 11		 mov	 edx, DWORD PTR [ecx]
  00018	50		 push	 eax
  00019	ff 52 04	 call	 DWORD PTR [edx+4]
$L235227:
  0001c	c3		 ret	 0
??1?$CStringT@DV?$StrTraitMFC@DV?$ChTraitsCRT@D@ATL@@@@@ATL@@QAE@XZ ENDP ; ATL::CStringT<char,StrTraitMFC<char,ATL::ChTraitsCRT<char> > >::~CStringT<char,StrTraitMFC<char,ATL::ChTraitsCRT<char> > >
_TEXT	ENDS
PUBLIC	??0?$CSimpleStringT@D$0A@@ATL@@QAE@ABV01@@Z	; ATL::CSimpleStringT<char,0>::CSimpleStringT<char,0>
; Function compile flags: /Ogty
; File c:\program files\microsoft visual studio .net 2003\vc7\atlmfc\include\atlsimpstr.h
;	COMDAT ??0?$CSimpleStringT@D$0A@@ATL@@QAE@ABV01@@Z
_TEXT	SEGMENT
_strSrc$ = 8						; size = 4
??0?$CSimpleStringT@D$0A@@ATL@@QAE@ABV01@@Z PROC NEAR	; ATL::CSimpleStringT<char,0>::CSimpleStringT<char,0>, COMDAT
; _this$ = ecx

; 218  : 	{
; 219  : 		CStringData* pSrcData = strSrc.GetData();

  00000	8b 44 24 04	 mov	 eax, DWORD PTR _strSrc$[esp-4]
  00004	8b 00		 mov	 eax, DWORD PTR [eax]
  00006	56		 push	 esi
  00007	83 e8 10	 sub	 eax, 16			; 00000010H

; 220  : 		CStringData* pNewData = CloneData( pSrcData );

  0000a	50		 push	 eax
  0000b	8b f1		 mov	 esi, ecx
  0000d	e8 00 00 00 00	 call	 ?CloneData@?$CSimpleStringT@D$0A@@ATL@@CAPAUCStringData@2@PAU32@@Z ; ATL::CSimpleStringT<char,0>::CloneData

; 221  : 		Attach( pNewData );

  00012	83 c0 10	 add	 eax, 16			; 00000010H
  00015	89 06		 mov	 DWORD PTR [esi], eax
  00017	83 c4 04	 add	 esp, 4

; 222  : 	}

  0001a	8b c6		 mov	 eax, esi
  0001c	5e		 pop	 esi
  0001d	c2 04 00	 ret	 4
??0?$CSimpleStringT@D$0A@@ATL@@QAE@ABV01@@Z ENDP	; ATL::CSimpleStringT<char,0>::CSimpleStringT<char,0>
_TEXT	ENDS
PUBLIC	?PrepareWrite@?$CSimpleStringT@D$0A@@ATL@@AAEPADH@Z ; ATL::CSimpleStringT<char,0>::PrepareWrite
; Function compile flags: /Ogty
;	COMDAT ?PrepareWrite@?$CSimpleStringT@D$0A@@ATL@@AAEPADH@Z
_TEXT	SEGMENT
_nLength$ = 8						; size = 4
?PrepareWrite@?$CSimpleStringT@D$0A@@ATL@@AAEPADH@Z PROC NEAR ; ATL::CSimpleStringT<char,0>::PrepareWrite, COMDAT
; _this$ = ecx

; 734  : 	{

  00000	56		 push	 esi
  00001	8b f1		 mov	 esi, ecx

; 735  : 		CStringData* pOldData = GetData();

  00003	8b 06		 mov	 eax, DWORD PTR [esi]

; 736  : 		int nShared = 1-pOldData->nRefs;  // nShared < 0 means true, >= 0 means false

  00005	8b 50 fc	 mov	 edx, DWORD PTR [eax-4]
  00008	83 e8 10	 sub	 eax, 16			; 00000010H
  0000b	b9 01 00 00 00	 mov	 ecx, 1
  00010	2b ca		 sub	 ecx, edx

; 737  : 		int nTooShort = pOldData->nAllocLength-nLength;  // nTooShort < 0 means true, >= 0 means false

  00012	8b 50 08	 mov	 edx, DWORD PTR [eax+8]
  00015	8b 44 24 08	 mov	 eax, DWORD PTR _nLength$[esp]
  00019	2b d0		 sub	 edx, eax

; 738  : 		if( (nShared|nTooShort) < 0 )  // If either sign bit is set (i.e. either is less than zero), we need to copy data

  0001b	0b ca		 or	 ecx, edx
  0001d	7d 08		 jge	 SHORT $L235250

; 739  : 		{
; 740  : 			PrepareWrite2( nLength );

  0001f	50		 push	 eax
  00020	8b ce		 mov	 ecx, esi
  00022	e8 00 00 00 00	 call	 ?PrepareWrite2@?$CSimpleStringT@D$0A@@ATL@@AAEXH@Z ; ATL::CSimpleStringT<char,0>::PrepareWrite2
$L235250:

; 741  : 		}
; 742  : 
; 743  : 		return( m_pszData );

  00027	8b 06		 mov	 eax, DWORD PTR [esi]
  00029	5e		 pop	 esi

; 744  : 	}

  0002a	c2 04 00	 ret	 4
?PrepareWrite@?$CSimpleStringT@D$0A@@ATL@@AAEPADH@Z ENDP ; ATL::CSimpleStringT<char,0>::PrepareWrite
_TEXT	ENDS
PUBLIC	?_Tidy@?$basic_string@DU?$char_traits@D@std@@V?$allocator@D@2@@std@@IAEX_NI@Z ; std::basic_string<char,std::char_traits<char>,std::allocator<char> >::_Tidy
; Function compile flags: /Ogty
; File c:\program files\microsoft visual studio .net 2003\vc7\include\xstring
;	COMDAT ?_Tidy@?$basic_string@DU?$char_traits@D@std@@V?$allocator@D@2@@std@@IAEX_NI@Z
_TEXT	SEGMENT
__Built$ = 8						; size = 1
__Newsize$ = 12						; size = 4
?_Tidy@?$basic_string@DU?$char_traits@D@std@@V?$allocator@D@2@@std@@IAEX_NI@Z PROC NEAR ; std::basic_string<char,std::char_traits<char>,std::allocator<char> >::_Tidy, COMDAT
; _this$ = ecx

; 1510 : 		if (!_Built)

  00000	8a 44 24 04	 mov	 al, BYTE PTR __Built$[esp-4]
  00004	84 c0		 test	 al, al
  00006	53		 push	 ebx
  00007	55		 push	 ebp
  00008	8b 6c 24 10	 mov	 ebp, DWORD PTR __Newsize$[esp+4]
  0000c	8b d9		 mov	 ebx, ecx
  0000e	74 2f		 je	 SHORT $L235258

; 1511 : 			;
; 1512 : 		else if (_BUF_SIZE <= _Myres)

  00010	83 7b 18 10	 cmp	 DWORD PTR [ebx+24], 16	; 00000010H
  00014	72 29		 jb	 SHORT $L235258

; 1513 : 			{	// copy any leftovers to small buffer and deallocate
; 1514 : 			_Elem *_Ptr = _Bx._Ptr;
; 1515 : 			if (0 < _Newsize)

  00016	85 ed		 test	 ebp, ebp
  00018	8b 43 04	 mov	 eax, DWORD PTR [ebx+4]
  0001b	57		 push	 edi
  0001c	8d 7b 04	 lea	 edi, DWORD PTR [ebx+4]
  0001f	76 14		 jbe	 SHORT $L235255
  00021	56		 push	 esi

; 1516 : 				_Traits::copy(_Bx._Buf, _Ptr, _Newsize);

  00022	8b cd		 mov	 ecx, ebp
  00024	8b d1		 mov	 edx, ecx
  00026	c1 e9 02	 shr	 ecx, 2
  00029	8b f0		 mov	 esi, eax
  0002b	f3 a5		 rep movsd
  0002d	8b ca		 mov	 ecx, edx
  0002f	83 e1 03	 and	 ecx, 3
  00032	f3 a4		 rep movsb
  00034	5e		 pop	 esi
$L235255:

; 1517 : 			_Mybase::_Alval.deallocate(_Ptr, _Myres + 1);

  00035	50		 push	 eax
  00036	e8 00 00 00 00	 call	 ??3@YAXPAX@Z		; operator delete
  0003b	83 c4 04	 add	 esp, 4
  0003e	5f		 pop	 edi
$L235258:

; 1518 : 			}
; 1519 : 		_Myres = _BUF_SIZE - 1;
; 1520 : 		_Eos(_Newsize);

  0003f	89 6b 14	 mov	 DWORD PTR [ebx+20], ebp
  00042	c7 43 18 0f 00
	00 00		 mov	 DWORD PTR [ebx+24], 15	; 0000000fH
  00049	c6 44 2b 04 00	 mov	 BYTE PTR [ebx+ebp+4], 0
  0004e	5d		 pop	 ebp
  0004f	5b		 pop	 ebx

; 1521 : 		}

  00050	c2 08 00	 ret	 8
?_Tidy@?$basic_string@DU?$char_traits@D@std@@V?$allocator@D@2@@std@@IAEX_NI@Z ENDP ; std::basic_string<char,std::char_traits<char>,std::allocator<char> >::_Tidy
_TEXT	ENDS
PUBLIC	?erase@?$basic_string@DU?$char_traits@D@std@@V?$allocator@D@2@@std@@QAEAAV12@II@Z ; std::basic_string<char,std::char_traits<char>,std::allocator<char> >::erase
EXTRN	?_Xran@_String_base@std@@QBEXXZ:NEAR		; std::_String_base::_Xran
; Function compile flags: /Ogty
;	COMDAT ?erase@?$basic_string@DU?$char_traits@D@std@@V?$allocator@D@2@@std@@QAEAAV12@II@Z
_TEXT	SEGMENT
__Off$ = 8						; size = 4
__Count$ = 12						; size = 4
?erase@?$basic_string@DU?$char_traits@D@std@@V?$allocator@D@2@@std@@QAEAAV12@II@Z PROC NEAR ; std::basic_string<char,std::char_traits<char>,std::allocator<char> >::erase, COMDAT
; _this$ = ecx

; 792  : 		{	// erase elements [_Off, _Off + _Count)

  00000	55		 push	 ebp

; 793  : 		if (_Mysize < _Off)

  00001	8b 6c 24 08	 mov	 ebp, DWORD PTR __Off$[esp]
  00005	56		 push	 esi
  00006	8b f1		 mov	 esi, ecx
  00008	39 6e 14	 cmp	 DWORD PTR [esi+20], ebp
  0000b	57		 push	 edi
  0000c	73 05		 jae	 SHORT $L221371

; 794  : 			_String_base::_Xran();	// _Off off end

  0000e	e8 00 00 00 00	 call	 ?_Xran@_String_base@std@@QBEXXZ ; std::_String_base::_Xran
$L221371:

; 795  : 		if (_Mysize - _Off < _Count)

  00013	8b 46 14	 mov	 eax, DWORD PTR [esi+20]
  00016	8b 7c 24 14	 mov	 edi, DWORD PTR __Count$[esp+8]
  0001a	2b c5		 sub	 eax, ebp
  0001c	3b c7		 cmp	 eax, edi
  0001e	73 02		 jae	 SHORT $L221372

; 796  : 			_Count = _Mysize - _Off;	// trim _Count

  00020	8b f8		 mov	 edi, eax
$L221372:

; 797  : 		if (0 < _Count)

  00022	85 ff		 test	 edi, edi
  00024	76 47		 jbe	 SHORT $L235324

; 798  : 			{	// move elements down
; 799  : 			_Traits::move(_Myptr() + _Off, _Myptr() + _Off + _Count,
; 800  : 				_Mysize - _Off - _Count);

  00026	8b 4e 18	 mov	 ecx, DWORD PTR [esi+24]
  00029	83 f9 10	 cmp	 ecx, 16			; 00000010H
  0002c	53		 push	 ebx
  0002d	8d 5e 04	 lea	 ebx, DWORD PTR [esi+4]
  00030	72 04		 jb	 SHORT $L235290
  00032	8b 13		 mov	 edx, DWORD PTR [ebx]
  00034	eb 02		 jmp	 SHORT $L235291
$L235290:
  00036	8b d3		 mov	 edx, ebx
$L235291:
  00038	83 f9 10	 cmp	 ecx, 16			; 00000010H
  0003b	72 04		 jb	 SHORT $L235297
  0003d	8b 0b		 mov	 ecx, DWORD PTR [ebx]
  0003f	eb 02		 jmp	 SHORT $L235298
$L235297:
  00041	8b cb		 mov	 ecx, ebx
$L235298:
  00043	2b c7		 sub	 eax, edi

; 803  : 			}
; 804  : 		return (*this);

  00045	03 d5		 add	 edx, ebp
  00047	50		 push	 eax
  00048	03 d7		 add	 edx, edi
  0004a	52		 push	 edx
  0004b	03 cd		 add	 ecx, ebp
  0004d	51		 push	 ecx
  0004e	e8 00 00 00 00	 call	 _memmove
  00053	8b 46 14	 mov	 eax, DWORD PTR [esi+20]
  00056	8b 4e 18	 mov	 ecx, DWORD PTR [esi+24]
  00059	2b c7		 sub	 eax, edi
  0005b	83 c4 0c	 add	 esp, 12			; 0000000cH
  0005e	83 f9 10	 cmp	 ecx, 16			; 00000010H
  00061	89 46 14	 mov	 DWORD PTR [esi+20], eax
  00064	72 02		 jb	 SHORT $L235321

; 801  : 			size_type _Newsize = _Mysize - _Count;
; 802  : 			_Eos(_Newsize);

  00066	8b 1b		 mov	 ebx, DWORD PTR [ebx]
$L235321:
  00068	c6 04 03 00	 mov	 BYTE PTR [ebx+eax], 0
  0006c	5b		 pop	 ebx
$L235324:
  0006d	5f		 pop	 edi

; 803  : 			}
; 804  : 		return (*this);

  0006e	8b c6		 mov	 eax, esi
  00070	5e		 pop	 esi
  00071	5d		 pop	 ebp

; 805  : 		}

  00072	c2 08 00	 ret	 8
?erase@?$basic_string@DU?$char_traits@D@std@@V?$allocator@D@2@@std@@QAEAAV12@II@Z ENDP ; std::basic_string<char,std::char_traits<char>,std::allocator<char> >::erase
_TEXT	ENDS
PUBLIC	?_Copy@?$basic_string@DU?$char_traits@D@std@@V?$allocator@D@2@@std@@IAEXII@Z ; std::basic_string<char,std::char_traits<char>,std::allocator<char> >::_Copy
EXTRN	__except_list:DWORD
EXTRN	___CxxFrameHandler:NEAR
;	COMDAT xdata$x
; File c:\program files\microsoft visual studio .net 2003\vc7\include\iosfwd
xdata$x	SEGMENT
$T235529 DD	0ffffffffH
	DD	00H
	DD	0ffffffffH
	DD	00H
	DD	01H
	DD	00H
	DD	01H
	DD	00H
$T235531 DD	00H
	DD	00H
	DD	00H
	DD	FLAT:$L235331
$T235532 DD	00H
	DD	00H
	DD	00H
	DD	FLAT:$L235329
$T235530 DD	02H
	DD	02H
	DD	03H
	DD	01H
	DD	FLAT:$T235531
	DD	00H
	DD	00H
	DD	03H
	DD	01H
	DD	FLAT:$T235532
$T235523 DD	019930520H
	DD	04H
	DD	FLAT:$T235529
	DD	02H
	DD	FLAT:$T235530
	DD	2 DUP(00H)
; Function compile flags: /Ogty
; File c:\program files\microsoft visual studio .net 2003\vc7\include\xstring
xdata$x	ENDS
;	COMDAT ?_Copy@?$basic_string@DU?$char_traits@D@std@@V?$allocator@D@2@@std@@IAEXII@Z
_TEXT	SEGMENT
__Newres$ = -24						; size = 4
_this$ = -20						; size = 4
__$EHRec$ = -16						; size = 16
__Ptr$ = 8						; size = 4
__Newsize$ = 8						; size = 4
__Oldlen$ = 12						; size = 4
?_Copy@?$basic_string@DU?$char_traits@D@std@@V?$allocator@D@2@@std@@IAEXII@Z PROC NEAR ; std::basic_string<char,std::char_traits<char>,std::allocator<char> >::_Copy, COMDAT
; _this$ = ecx

; 1444 : 		{	// copy _Oldlen elements to newly allocated buffer

  00000	55		 push	 ebp
  00001	8b ec		 mov	 ebp, esp
  00003	6a ff		 push	 -1
  00005	68 00 00 00 00	 push	 __ehhandler$?_Copy@?$basic_string@DU?$char_traits@D@std@@V?$allocator@D@2@@std@@IAEXII@Z
  0000a	64 a1 00 00 00
	00		 mov	 eax, DWORD PTR fs:__except_list
  00010	50		 push	 eax
  00011	64 89 25 00 00
	00 00		 mov	 DWORD PTR fs:__except_list, esp
  00018	83 ec 0c	 sub	 esp, 12			; 0000000cH

; 1445 : 		size_type _Newres = _Newsize | _ALLOC_MASK;

  0001b	8b 45 08	 mov	 eax, DWORD PTR __Newsize$[ebp]
  0001e	53		 push	 ebx
  0001f	56		 push	 esi
  00020	8b d8		 mov	 ebx, eax
  00022	83 cb 0f	 or	 ebx, 15			; 0000000fH

; 1446 : 		if (max_size() < _Newres)

  00025	83 fb fe	 cmp	 ebx, -2			; fffffffeH
  00028	57		 push	 edi
  00029	8b f1		 mov	 esi, ecx
  0002b	89 65 f0	 mov	 DWORD PTR __$EHRec$[ebp], esp
  0002e	89 75 ec	 mov	 DWORD PTR _this$[ebp], esi
  00031	76 04		 jbe	 SHORT $L222778

; 1447 : 			_Newres = _Newsize;	// undo roundup if too big

  00033	8b d8		 mov	 ebx, eax

; 1448 : 		else if (_Newres / 3 < _Myres / 2

  00035	eb 22		 jmp	 SHORT $L222780
$L222778:

; 1449 : 			&& _Myres <= max_size() - _Myres / 2)

  00037	8b 7e 18	 mov	 edi, DWORD PTR [esi+24]
  0003a	b8 ab aa aa aa	 mov	 eax, -1431655765	; aaaaaaabH
  0003f	f7 e3		 mul	 ebx
  00041	8b cf		 mov	 ecx, edi
  00043	d1 e9		 shr	 ecx, 1
  00045	d1 ea		 shr	 edx, 1
  00047	3b d1		 cmp	 edx, ecx
  00049	73 0e		 jae	 SHORT $L222780
  0004b	b8 fe ff ff ff	 mov	 eax, -2			; fffffffeH
  00050	2b c1		 sub	 eax, ecx
  00052	3b f8		 cmp	 edi, eax
  00054	77 03		 ja	 SHORT $L222780

; 1450 : 			_Newres = _Myres + _Myres / 2;	// grow exponentially if possible

  00056	8d 1c 39	 lea	 ebx, DWORD PTR [ecx+edi]
$L222780:

; 1451 : 		_Elem *_Ptr;
; 1452 : 
; 1453 : 		_TRY_BEGIN
; 1454 : 			_Ptr = _Mybase::_Alval.allocate(_Newres + 1);

  00059	8d 4b 01	 lea	 ecx, DWORD PTR [ebx+1]
  0005c	51		 push	 ecx
  0005d	c7 45 fc 00 00
	00 00		 mov	 DWORD PTR __$EHRec$[ebp+12], 0
  00064	e8 00 00 00 00	 call	 ??2@YAPAXI@Z		; operator new
  00069	8b d0		 mov	 edx, eax
  0006b	83 c4 04	 add	 esp, 4
  0006e	89 55 08	 mov	 DWORD PTR __Ptr$[ebp], edx
  00071	eb 29		 jmp	 SHORT $L222782
$L235329:

; 1455 : 		_CATCH_ALL
; 1456 : 			_Newres = _Newsize;	// allocation failed, undo roundup and retry

  00073	8b 45 08	 mov	 eax, DWORD PTR __Newsize$[ebp]
  00076	89 45 e8	 mov	 DWORD PTR __Newres$[ebp], eax

; 1457 : 			_TRY_BEGIN
; 1458 : 				_Ptr = _Mybase::_Alval.allocate(_Newres + 1);

  00079	40		 inc	 eax
  0007a	89 65 f0	 mov	 DWORD PTR __$EHRec$[ebp], esp
  0007d	50		 push	 eax
  0007e	c6 45 fc 02	 mov	 BYTE PTR __$EHRec$[ebp+12], 2
  00082	e8 00 00 00 00	 call	 ??2@YAPAXI@Z		; operator new
  00087	89 45 08	 mov	 DWORD PTR __Ptr$[ebp], eax
  0008a	83 c4 04	 add	 esp, 4

; 1462 : 			_CATCH_END
; 1463 : 		_CATCH_END

  0008d	b8 00 00 00 00	 mov	 eax, $L235524
  00092	c3		 ret	 0
$L235524:
  00093	8b 5d e8	 mov	 ebx, DWORD PTR __Newres$[ebp]
  00096	8b 75 ec	 mov	 esi, DWORD PTR _this$[ebp]
  00099	8b 55 08	 mov	 edx, DWORD PTR __Ptr$[ebp]
$L222782:

; 1464 : 
; 1465 : 		if (0 < _Oldlen)

  0009c	8b 4d 0c	 mov	 ecx, DWORD PTR __Oldlen$[ebp]
  0009f	85 c9		 test	 ecx, ecx
  000a1	76 24		 jbe	 SHORT $L235448

; 1466 : 			_Traits::copy(_Ptr, _Myptr(), _Oldlen);	// copy existing elements

  000a3	83 7e 18 10	 cmp	 DWORD PTR [esi+24], 16	; 00000010H
  000a7	72 05		 jb	 SHORT $L235445
  000a9	8b 76 04	 mov	 esi, DWORD PTR [esi+4]
  000ac	eb 03		 jmp	 SHORT $L235446
$L235445:
  000ae	83 c6 04	 add	 esi, 4
$L235446:
  000b1	8b c1		 mov	 eax, ecx
  000b3	c1 e9 02	 shr	 ecx, 2
  000b6	8b fa		 mov	 edi, edx
  000b8	f3 a5		 rep movsd
  000ba	8b c8		 mov	 ecx, eax
  000bc	83 e1 03	 and	 ecx, 3
  000bf	f3 a4		 rep movsb
  000c1	8b 75 ec	 mov	 esi, DWORD PTR _this$[ebp]
  000c4	8b 4d 0c	 mov	 ecx, DWORD PTR __Oldlen$[ebp]
$L235448:

; 1467 : 		_Tidy(true);

  000c7	83 7e 18 10	 cmp	 DWORD PTR [esi+24], 16	; 00000010H
  000cb	72 12		 jb	 SHORT $L235484
  000cd	8b 4e 04	 mov	 ecx, DWORD PTR [esi+4]
  000d0	51		 push	 ecx
  000d1	e8 00 00 00 00	 call	 ??3@YAXPAX@Z		; operator delete
  000d6	8b 55 08	 mov	 edx, DWORD PTR __Ptr$[ebp]
  000d9	8b 4d 0c	 mov	 ecx, DWORD PTR __Oldlen$[ebp]
  000dc	83 c4 04	 add	 esp, 4
$L235484:

; 1468 : 		_Bx._Ptr = _Ptr;
; 1469 : 		_Myres = _Newres;
; 1470 : 		_Eos(_Oldlen);

  000df	83 fb 10	 cmp	 ebx, 16			; 00000010H
  000e2	8d 46 04	 lea	 eax, DWORD PTR [esi+4]
  000e5	c6 00 00	 mov	 BYTE PTR [eax], 0
  000e8	89 10		 mov	 DWORD PTR [eax], edx
  000ea	89 5e 18	 mov	 DWORD PTR [esi+24], ebx
  000ed	89 4e 14	 mov	 DWORD PTR [esi+20], ecx
  000f0	72 02		 jb	 SHORT $L235519
  000f2	8b c2		 mov	 eax, edx
$L235519:

; 1471 : 		}

  000f4	5f		 pop	 edi
  000f5	c6 04 08 00	 mov	 BYTE PTR [eax+ecx], 0
  000f9	8b 4d f4	 mov	 ecx, DWORD PTR __$EHRec$[ebp+4]
  000fc	5e		 pop	 esi
  000fd	64 89 0d 00 00
	00 00		 mov	 DWORD PTR fs:__except_list, ecx
  00104	5b		 pop	 ebx
  00105	8b e5		 mov	 esp, ebp
  00107	5d		 pop	 ebp
  00108	c2 08 00	 ret	 8
$L235331:

; 1459 : 			_CATCH_ALL
; 1460 : 			_Tidy(true);	// failed again, discard storage and reraise

  0010b	8b 75 ec	 mov	 esi, DWORD PTR _this$[ebp]
  0010e	83 7e 18 10	 cmp	 DWORD PTR [esi+24], 16	; 00000010H
  00112	72 0c		 jb	 SHORT $L235423
  00114	8b 56 04	 mov	 edx, DWORD PTR [esi+4]
  00117	52		 push	 edx
  00118	e8 00 00 00 00	 call	 ??3@YAXPAX@Z		; operator delete
  0011d	83 c4 04	 add	 esp, 4
$L235423:

; 1461 : 			_RERAISE;

  00120	6a 00		 push	 0
  00122	c7 46 18 0f 00
	00 00		 mov	 DWORD PTR [esi+24], 15	; 0000000fH
  00129	c7 46 14 00 00
	00 00		 mov	 DWORD PTR [esi+20], 0
  00130	6a 00		 push	 0
  00132	c6 46 04 00	 mov	 BYTE PTR [esi+4], 0
  00136	e8 00 00 00 00	 call	 __CxxThrowException@8
$L235534:
$L235528:
  0013b	cc		 int	 3
_TEXT	ENDS
;	COMDAT text$x
text$x	SEGMENT
__ehhandler$?_Copy@?$basic_string@DU?$char_traits@D@std@@V?$allocator@D@2@@std@@IAEXII@Z:
  00000	b8 00 00 00 00	 mov	 eax, OFFSET FLAT:$T235523
  00005	e9 00 00 00 00	 jmp	 ___CxxFrameHandler
text$x	ENDS
?_Copy@?$basic_string@DU?$char_traits@D@std@@V?$allocator@D@2@@std@@IAEXII@Z ENDP ; std::basic_string<char,std::char_traits<char>,std::allocator<char> >::_Copy
PUBLIC	??Eiterator@?$_Tree@V?$_Tmap_traits@EV?$vector@VCPoint@@V?$allocator@VCPoint@@@std@@@std@@U?$less@E@2@V?$allocator@U?$pair@$$CBEV?$vector@VCPoint@@V?$allocator@VCPoint@@@std@@@std@@@std@@@2@$0A@@std@@@std@@QAEAAV012@XZ ; std::_Tree<std::_Tmap_traits<unsigned char,std::vector<CPoint,std::allocator<CPoint> >,std::less<unsigned char>,std::allocator<std::pair<unsigned char const ,std::vector<CPoint,std::allocator<CPoint> > > >,0> >::iterator::operator++
; Function compile flags: /Ogty
; File c:\program files\microsoft visual studio .net 2003\vc7\include\xtree
;	COMDAT ??Eiterator@?$_Tree@V?$_Tmap_traits@EV?$vector@VCPoint@@V?$allocator@VCPoint@@@std@@@std@@U?$less@E@2@V?$allocator@U?$pair@$$CBEV?$vector@VCPoint@@V?$allocator@VCPoint@@@std@@@std@@@std@@@2@$0A@@std@@@std@@QAEAAV012@XZ
_TEXT	SEGMENT
??Eiterator@?$_Tree@V?$_Tmap_traits@EV?$vector@VCPoint@@V?$allocator@VCPoint@@@std@@@std@@U?$less@E@2@V?$allocator@U?$pair@$$CBEV?$vector@VCPoint@@V?$allocator@VCPoint@@@std@@@std@@@std@@@2@$0A@@std@@@std@@QAEAAV012@XZ PROC NEAR ; std::_Tree<std::_Tmap_traits<unsigned char,std::vector<CPoint,std::allocator<CPoint> >,std::less<unsigned char>,std::allocator<std::pair<unsigned char const ,std::vector<CPoint,std::allocator<CPoint> > > >,0> >::iterator::operator++, COMDAT
; _this$ = ecx

; 326  : 			{	// preincrement

  00000	56		 push	 esi
  00001	8b f1		 mov	 esi, ecx

; 327  : 			++(*(const_iterator *)this);

  00003	e8 00 00 00 00	 call	 ?_Inc@const_iterator@?$_Tree@V?$_Tmap_traits@EV?$vector@VCPoint@@V?$allocator@VCPoint@@@std@@@std@@U?$less@E@2@V?$allocator@U?$pair@$$CBEV?$vector@VCPoint@@V?$allocator@VCPoint@@@std@@@std@@@std@@@2@$0A@@std@@@std@@QAEXXZ ; std::_Tree<std::_Tmap_traits<unsigned char,std::vector<CPoint,std::allocator<CPoint> >,std::less<unsigned char>,std::allocator<std::pair<unsigned char const ,std::vector<CPoint,std::allocator<CPoint> > > >,0> >::const_iterator::_Inc

; 328  : 			return (*this);

  00008	8b c6		 mov	 eax, esi
  0000a	5e		 pop	 esi

; 329  : 			}

  0000b	c3		 ret	 0
??Eiterator@?$_Tree@V?$_Tmap_traits@EV?$vector@VCPoint@@V?$allocator@VCPoint@@@std@@@std@@U?$less@E@2@V?$allocator@U?$pair@$$CBEV?$vector@VCPoint@@V?$allocator@VCPoint@@@std@@@std@@@std@@@2@$0A@@std@@@std@@QAEAAV012@XZ ENDP ; std::_Tree<std::_Tmap_traits<unsigned char,std::vector<CPoint,std::allocator<CPoint> >,std::less<unsigned char>,std::allocator<std::pair<unsigned char const ,std::vector<CPoint,std::allocator<CPoint> > > >,0> >::iterator::operator++
_TEXT	ENDS
PUBLIC	??Fiterator@?$_Tree@V?$_Tmap_traits@EV?$vector@VCPoint@@V?$allocator@VCPoint@@@std@@@std@@U?$less@E@2@V?$allocator@U?$pair@$$CBEV?$vector@VCPoint@@V?$allocator@VCPoint@@@std@@@std@@@std@@@2@$0A@@std@@@std@@QAEAAV012@XZ ; std::_Tree<std::_Tmap_traits<unsigned char,std::vector<CPoint,std::allocator<CPoint> >,std::less<unsigned char>,std::allocator<std::pair<unsigned char const ,std::vector<CPoint,std::allocator<CPoint> > > >,0> >::iterator::operator--
; Function compile flags: /Ogty
;	COMDAT ??Fiterator@?$_Tree@V?$_Tmap_traits@EV?$vector@VCPoint@@V?$allocator@VCPoint@@@std@@@std@@U?$less@E@2@V?$allocator@U?$pair@$$CBEV?$vector@VCPoint@@V?$allocator@VCPoint@@@std@@@std@@@std@@@2@$0A@@std@@@std@@QAEAAV012@XZ
_TEXT	SEGMENT
??Fiterator@?$_Tree@V?$_Tmap_traits@EV?$vector@VCPoint@@V?$allocator@VCPoint@@@std@@@std@@U?$less@E@2@V?$allocator@U?$pair@$$CBEV?$vector@VCPoint@@V?$allocator@VCPoint@@@std@@@std@@@std@@@2@$0A@@std@@@std@@QAEAAV012@XZ PROC NEAR ; std::_Tree<std::_Tmap_traits<unsigned char,std::vector<CPoint,std::allocator<CPoint> >,std::less<unsigned char>,std::allocator<std::pair<unsigned char const ,std::vector<CPoint,std::allocator<CPoint> > > >,0> >::iterator::operator--, COMDAT
; _this$ = ecx

; 339  : 			{	// predecrement

  00000	56		 push	 esi
  00001	8b f1		 mov	 esi, ecx

; 340  : 			--(*(const_iterator *)this);

  00003	e8 00 00 00 00	 call	 ?_Dec@const_iterator@?$_Tree@V?$_Tmap_traits@EV?$vector@VCPoint@@V?$allocator@VCPoint@@@std@@@std@@U?$less@E@2@V?$allocator@U?$pair@$$CBEV?$vector@VCPoint@@V?$allocator@VCPoint@@@std@@@std@@@std@@@2@$0A@@std@@@std@@QAEXXZ ; std::_Tree<std::_Tmap_traits<unsigned char,std::vector<CPoint,std::allocator<CPoint> >,std::less<unsigned char>,std::allocator<std::pair<unsigned char const ,std::vector<CPoint,std::allocator<CPoint> > > >,0> >::const_iterator::_Dec

; 341  : 			return (*this);

  00008	8b c6		 mov	 eax, esi
  0000a	5e		 pop	 esi

; 342  : 			}

  0000b	c3		 ret	 0
??Fiterator@?$_Tree@V?$_Tmap_traits@EV?$vector@VCPoint@@V?$allocator@VCPoint@@@std@@@std@@U?$less@E@2@V?$allocator@U?$pair@$$CBEV?$vector@VCPoint@@V?$allocator@VCPoint@@@std@@@std@@@std@@@2@$0A@@std@@@std@@QAEAAV012@XZ ENDP ; std::_Tree<std::_Tmap_traits<unsigned char,std::vector<CPoint,std::allocator<CPoint> >,std::less<unsigned char>,std::allocator<std::pair<unsigned char const ,std::vector<CPoint,std::allocator<CPoint> > > >,0> >::iterator::operator--
_TEXT	ENDS
PUBLIC	?_Init@?$_Tree@V?$_Tmap_traits@EV?$vector@VCPoint@@V?$allocator@VCPoint@@@std@@@std@@U?$less@E@2@V?$allocator@U?$pair@$$CBEV?$vector@VCPoint@@V?$allocator@VCPoint@@@std@@@std@@@std@@@2@$0A@@std@@@std@@IAEXXZ ; std::_Tree<std::_Tmap_traits<unsigned char,std::vector<CPoint,std::allocator<CPoint> >,std::less<unsigned char>,std::allocator<std::pair<unsigned char const ,std::vector<CPoint,std::allocator<CPoint> > > >,0> >::_Init
; Function compile flags: /Ogty
;	COMDAT ?_Init@?$_Tree@V?$_Tmap_traits@EV?$vector@VCPoint@@V?$allocator@VCPoint@@@std@@@std@@U?$less@E@2@V?$allocator@U?$pair@$$CBEV?$vector@VCPoint@@V?$allocator@VCPoint@@@std@@@std@@@std@@@2@$0A@@std@@@std@@IAEXXZ
_TEXT	SEGMENT
?_Init@?$_Tree@V?$_Tmap_traits@EV?$vector@VCPoint@@V?$allocator@VCPoint@@@std@@@std@@U?$less@E@2@V?$allocator@U?$pair@$$CBEV?$vector@VCPoint@@V?$allocator@VCPoint@@@std@@@std@@@std@@@2@$0A@@std@@@std@@IAEXXZ PROC NEAR ; std::_Tree<std::_Tmap_traits<unsigned char,std::vector<CPoint,std::allocator<CPoint> >,std::less<unsigned char>,std::allocator<std::pair<unsigned char const ,std::vector<CPoint,std::allocator<CPoint> > > >,0> >::_Init, COMDAT
; _this$ = ecx

; 901  : 		{	// create head/nil node and make tree empty

  00000	56		 push	 esi
  00001	8b f1		 mov	 esi, ecx

; 902  : 		_Myhead = _Buynode();

  00003	e8 00 00 00 00	 call	 ?_Buynode@?$_Tree@V?$_Tmap_traits@EV?$vector@VCPoint@@V?$allocator@VCPoint@@@std@@@std@@U?$less@E@2@V?$allocator@U?$pair@$$CBEV?$vector@VCPoint@@V?$allocator@VCPoint@@@std@@@std@@@std@@@2@$0A@@std@@@std@@IAEPAU_Node@?$_Tree_nod@V?$_Tmap_traits@EV?$vector@VCPoint@@V?$allocator@VCPoint@@@std@@@std@@U?$less@E@2@V?$allocator@U?$pair@$$CBEV?$vector@VCPoint@@V?$allocator@VCPoint@@@std@@@std@@@std@@@2@$0A@@std@@@2@XZ ; std::_Tree<std::_Tmap_traits<unsigned char,std::vector<CPoint,std::allocator<CPoint> >,std::less<unsigned char>,std::allocator<std::pair<unsigned char const ,std::vector<CPoint,std::allocator<CPoint> > > >,0> >::_Buynode
  00008	89 46 04	 mov	 DWORD PTR [esi+4], eax

; 903  : 		_Isnil(_Myhead) = true;

  0000b	c6 40 21 01	 mov	 BYTE PTR [eax+33], 1

; 904  : 		_Root() = _Myhead;

  0000f	8b 46 04	 mov	 eax, DWORD PTR [esi+4]
  00012	89 40 04	 mov	 DWORD PTR [eax+4], eax

; 905  : 		_Lmost() = _Myhead, _Rmost() = _Myhead;

  00015	8b 46 04	 mov	 eax, DWORD PTR [esi+4]
  00018	89 00		 mov	 DWORD PTR [eax], eax
  0001a	8b 46 04	 mov	 eax, DWORD PTR [esi+4]
  0001d	89 40 08	 mov	 DWORD PTR [eax+8], eax

; 906  : 		_Mysize = 0;

  00020	c7 46 08 00 00
	00 00		 mov	 DWORD PTR [esi+8], 0
  00027	5e		 pop	 esi

; 907  : 		}

  00028	c3		 ret	 0
?_Init@?$_Tree@V?$_Tmap_traits@EV?$vector@VCPoint@@V?$allocator@VCPoint@@@std@@@std@@U?$less@E@2@V?$allocator@U?$pair@$$CBEV?$vector@VCPoint@@V?$allocator@VCPoint@@@std@@@std@@@std@@@2@$0A@@std@@@std@@IAEXXZ ENDP ; std::_Tree<std::_Tmap_traits<unsigned char,std::vector<CPoint,std::allocator<CPoint> >,std::less<unsigned char>,std::allocator<std::pair<unsigned char const ,std::vector<CPoint,std::allocator<CPoint> > > >,0> >::_Init
_TEXT	ENDS
PUBLIC	??0?$_Tree_val@V?$_Tmap_traits@EV?$vector@VCPoint@@V?$allocator@VCPoint@@@std@@@std@@U?$less@E@2@V?$allocator@U?$pair@$$CBEV?$vector@VCPoint@@V?$allocator@VCPoint@@@std@@@std@@@std@@@2@$0A@@std@@@std@@IAE@ABU?$less@E@1@V?$allocator@U?$pair@$$CBEV?$vector@VCPoint@@V?$allocator@VCPoint@@@std@@@std@@@std@@@1@@Z ; std::_Tree_val<std::_Tmap_traits<unsigned char,std::vector<CPoint,std::allocator<CPoint> >,std::less<unsigned char>,std::allocator<std::pair<unsigned char const ,std::vector<CPoint,std::allocator<CPoint> > > >,0> >::_Tree_val<std::_Tmap_traits<unsigned char,std::vector<CPoint,std::allocator<CPoint> >,std::less<unsigned char>,std::allocator<std::pair<unsigned char const ,std::vector<CPoint,std::allocator<CPoint> > > >,0> >
; Function compile flags: /Ogty
;	COMDAT ??0?$_Tree_val@V?$_Tmap_traits@EV?$vector@VCPoint@@V?$allocator@VCPoint@@@std@@@std@@U?$less@E@2@V?$allocator@U?$pair@$$CBEV?$vector@VCPoint@@V?$allocator@VCPoint@@@std@@@std@@@std@@@2@$0A@@std@@@std@@IAE@ABU?$less@E@1@V?$allocator@U?$pair@$$CBEV?$vector@VCPoint@@V?$allocator@VCPoint@@@std@@@std@@@std@@@1@@Z
_TEXT	SEGMENT
__Parg$ = 8						; size = 4
__Al$ = 12						; size = 1
??0?$_Tree_val@V?$_Tmap_traits@EV?$vector@VCPoint@@V?$allocator@VCPoint@@@std@@@std@@U?$less@E@2@V?$allocator@U?$pair@$$CBEV?$vector@VCPoint@@V?$allocator@VCPoint@@@std@@@std@@@std@@@2@$0A@@std@@@std@@IAE@ABU?$less@E@1@V?$allocator@U?$pair@$$CBEV?$vector@VCPoint@@V?$allocator@VCPoint@@@std@@@std@@@std@@@1@@Z PROC NEAR ; std::_Tree_val<std::_Tmap_traits<unsigned char,std::vector<CPoint,std::allocator<CPoint> >,std::less<unsigned char>,std::allocator<std::pair<unsigned char const ,std::vector<CPoint,std::allocator<CPoint> > > >,0> >::_Tree_val<std::_Tmap_traits<unsigned char,std::vector<CPoint,std::allocator<CPoint> >,std::less<unsigned char>,std::allocator<std::pair<unsigned char const ,std::vector<CPoint,std::allocator<CPoint> > > >,0> >, COMDAT
; _this$ = ecx

; 95   : 		{	// construct base, and allocator from _Al

  00000	8b c1		 mov	 eax, ecx

; 96   : 		}

  00002	c2 08 00	 ret	 8
??0?$_Tree_val@V?$_Tmap_traits@EV?$vector@VCPoint@@V?$allocator@VCPoint@@@std@@@std@@U?$less@E@2@V?$allocator@U?$pair@$$CBEV?$vector@VCPoint@@V?$allocator@VCPoint@@@std@@@std@@@std@@@2@$0A@@std@@@std@@IAE@ABU?$less@E@1@V?$allocator@U?$pair@$$CBEV?$vector@VCPoint@@V?$allocator@VCPoint@@@std@@@std@@@std@@@1@@Z ENDP ; std::_Tree_val<std::_Tmap_traits<unsigned char,std::vector<CPoint,std::allocator<CPoint> >,std::less<unsigned char>,std::allocator<std::pair<unsigned char const ,std::vector<CPoint,std::allocator<CPoint> > > >,0> >::_Tree_val<std::_Tmap_traits<unsigned char,std::vector<CPoint,std::allocator<CPoint> >,std::less<unsigned char>,std::allocator<std::pair<unsigned char const ,std::vector<CPoint,std::allocator<CPoint> > > >,0> >
_TEXT	ENDS
PUBLIC	??Eiterator@?$_Tree@V?$_Tmap_traits@EV?$vector@VCPoint@@V?$allocator@VCPoint@@@std@@@std@@U?$less@E@2@V?$allocator@U?$pair@$$CBEV?$vector@VCPoint@@V?$allocator@VCPoint@@@std@@@std@@@std@@@2@$0A@@std@@@std@@QAE?AV012@H@Z ; std::_Tree<std::_Tmap_traits<unsigned char,std::vector<CPoint,std::allocator<CPoint> >,std::less<unsigned char>,std::allocator<std::pair<unsigned char const ,std::vector<CPoint,std::allocator<CPoint> > > >,0> >::iterator::operator++
; Function compile flags: /Ogty
;	COMDAT ??Eiterator@?$_Tree@V?$_Tmap_traits@EV?$vector@VCPoint@@V?$allocator@VCPoint@@@std@@@std@@U?$less@E@2@V?$allocator@U?$pair@$$CBEV?$vector@VCPoint@@V?$allocator@VCPoint@@@std@@@std@@@std@@@2@$0A@@std@@@std@@QAE?AV012@H@Z
_TEXT	SEGMENT
___$ReturnUdt$ = 8					; size = 4
___formal$ = 12						; size = 4
??Eiterator@?$_Tree@V?$_Tmap_traits@EV?$vector@VCPoint@@V?$allocator@VCPoint@@@std@@@std@@U?$less@E@2@V?$allocator@U?$pair@$$CBEV?$vector@VCPoint@@V?$allocator@VCPoint@@@std@@@std@@@std@@@2@$0A@@std@@@std@@QAE?AV012@H@Z PROC NEAR ; std::_Tree<std::_Tmap_traits<unsigned char,std::vector<CPoint,std::allocator<CPoint> >,std::less<unsigned char>,std::allocator<std::pair<unsigned char const ,std::vector<CPoint,std::allocator<CPoint> > > >,0> >::iterator::operator++, COMDAT
; _this$ = ecx

; 332  : 			{	// postincrement

  00000	56		 push	 esi

; 333  : 			iterator _Tmp = *this;

  00001	8b 31		 mov	 esi, DWORD PTR [ecx]

; 334  : 			++*this;

  00003	e8 00 00 00 00	 call	 ?_Inc@const_iterator@?$_Tree@V?$_Tmap_traits@EV?$vector@VCPoint@@V?$allocator@VCPoint@@@std@@@std@@U?$less@E@2@V?$allocator@U?$pair@$$CBEV?$vector@VCPoint@@V?$allocator@VCPoint@@@std@@@std@@@std@@@2@$0A@@std@@@std@@QAEXXZ ; std::_Tree<std::_Tmap_traits<unsigned char,std::vector<CPoint,std::allocator<CPoint> >,std::less<unsigned char>,std::allocator<std::pair<unsigned char const ,std::vector<CPoint,std::allocator<CPoint> > > >,0> >::const_iterator::_Inc

; 335  : 			return (_Tmp);

  00008	8b 44 24 08	 mov	 eax, DWORD PTR ___$ReturnUdt$[esp]
  0000c	89 30		 mov	 DWORD PTR [eax], esi
  0000e	5e		 pop	 esi

; 336  : 			}

  0000f	c2 08 00	 ret	 8
??Eiterator@?$_Tree@V?$_Tmap_traits@EV?$vector@VCPoint@@V?$allocator@VCPoint@@@std@@@std@@U?$less@E@2@V?$allocator@U?$pair@$$CBEV?$vector@VCPoint@@V?$allocator@VCPoint@@@std@@@std@@@std@@@2@$0A@@std@@@std@@QAE?AV012@H@Z ENDP ; std::_Tree<std::_Tmap_traits<unsigned char,std::vector<CPoint,std::allocator<CPoint> >,std::less<unsigned char>,std::allocator<std::pair<unsigned char const ,std::vector<CPoint,std::allocator<CPoint> > > >,0> >::iterator::operator++
_TEXT	ENDS
PUBLIC	??$_Ucopy@PAVCPoint@@@?$vector@VCPoint@@V?$allocator@VCPoint@@@std@@@std@@IAEPAVCPoint@@PAV2@00@Z ; std::vector<CPoint,std::allocator<CPoint> >::_Ucopy<CPoint *>
; Function compile flags: /Ogty
; File c:\program files\microsoft visual studio .net 2003\vc7\include\vector
;	COMDAT ??$_Ucopy@PAVCPoint@@@?$vector@VCPoint@@V?$allocator@VCPoint@@@std@@@std@@IAEPAVCPoint@@PAV2@00@Z
_TEXT	SEGMENT
__First$ = 8						; size = 4
__Last$ = 12						; size = 4
__Cat$235651 = 16					; size = 1
__Ptr$ = 16						; size = 4
??$_Ucopy@PAVCPoint@@@?$vector@VCPoint@@V?$allocator@VCPoint@@@std@@@std@@IAEPAVCPoint@@PAV2@00@Z PROC NEAR ; std::vector<CPoint,std::allocator<CPoint> >::_Ucopy<CPoint *>, COMDAT
; _this$ = ecx

; 802  : 		{	// copy initializing [_First, _Last), using allocator
; 803  : 		return (_Uninitialized_copy(_First, _Last,
; 804  : 			_Ptr, this->_Alval));

  00000	8b 44 24 0c	 mov	 eax, DWORD PTR __Cat$235651[esp-4]
  00004	8b 54 24 08	 mov	 edx, DWORD PTR __Last$[esp-4]
  00008	50		 push	 eax
  00009	8b 44 24 08	 mov	 eax, DWORD PTR __First$[esp]
  0000d	51		 push	 ecx
  0000e	8b 4c 24 14	 mov	 ecx, DWORD PTR __Ptr$[esp+4]
  00012	51		 push	 ecx
  00013	52		 push	 edx
  00014	50		 push	 eax
  00015	e8 00 00 00 00	 call	 ??$_Uninit_copy@PAVCPoint@@PAV1@V?$allocator@VCPoint@@@std@@@std@@YAPAVCPoint@@PAV1@00AAV?$allocator@VCPoint@@@0@U_Nonscalar_ptr_iterator_tag@0@@Z ; std::_Uninit_copy<CPoint *,CPoint *,std::allocator<CPoint> >
  0001a	83 c4 14	 add	 esp, 20			; 00000014H

; 805  : 		}

  0001d	c2 0c 00	 ret	 12			; 0000000cH
??$_Ucopy@PAVCPoint@@@?$vector@VCPoint@@V?$allocator@VCPoint@@@std@@@std@@IAEPAVCPoint@@PAV2@00@Z ENDP ; std::vector<CPoint,std::allocator<CPoint> >::_Ucopy<CPoint *>
_TEXT	ENDS
PUBLIC	??$_Destroy_range@VCPoint@@V?$allocator@VCPoint@@@std@@@std@@YAXPAVCPoint@@0AAV?$allocator@VCPoint@@@0@@Z ; std::_Destroy_range<CPoint,std::allocator<CPoint> >
; Function compile flags: /Ogty
; File c:\program files\microsoft visual studio .net 2003\vc7\include\xmemory
;	COMDAT ??$_Destroy_range@VCPoint@@V?$allocator@VCPoint@@@std@@@std@@YAXPAVCPoint@@0AAV?$allocator@VCPoint@@@0@@Z
_TEXT	SEGMENT
__First$ = 8						; size = 4
__Last$ = 12						; size = 4
__Al$ = 16						; size = 4
??$_Destroy_range@VCPoint@@V?$allocator@VCPoint@@@std@@@std@@YAXPAVCPoint@@0AAV?$allocator@VCPoint@@@0@@Z PROC NEAR ; std::_Destroy_range<CPoint,std::allocator<CPoint> >, COMDAT

; 217  : 	_Destroy_range(_First, _Last, _Al, _Ptr_cat(_First, _Last));
; 218  : 	}

  00000	c3		 ret	 0
??$_Destroy_range@VCPoint@@V?$allocator@VCPoint@@@std@@@std@@YAXPAVCPoint@@0AAV?$allocator@VCPoint@@@0@@Z ENDP ; std::_Destroy_range<CPoint,std::allocator<CPoint> >
_TEXT	ENDS
PUBLIC	??$_Uninitialized_fill_n@PAVCPoint@@IV1@V?$allocator@VCPoint@@@std@@@std@@YAXPAVCPoint@@IABV1@AAV?$allocator@VCPoint@@@0@@Z ; std::_Uninitialized_fill_n<CPoint *,unsigned int,CPoint,std::allocator<CPoint> >
; Function compile flags: /Ogty
; File c:\program files\microsoft visual studio .net 2003\vc7\include\memory
;	COMDAT ??$_Uninitialized_fill_n@PAVCPoint@@IV1@V?$allocator@VCPoint@@@std@@@std@@YAXPAVCPoint@@IABV1@AAV?$allocator@VCPoint@@@0@@Z
_TEXT	SEGMENT
__Cat$235669 = -4					; size = 1
__First$ = 8						; size = 4
__Count$ = 12						; size = 4
__Val$ = 16						; size = 4
__Al$ = 20						; size = 4
??$_Uninitialized_fill_n@PAVCPoint@@IV1@V?$allocator@VCPoint@@@std@@@std@@YAXPAVCPoint@@IABV1@AAV?$allocator@VCPoint@@@0@@Z PROC NEAR ; std::_Uninitialized_fill_n<CPoint *,unsigned int,CPoint,std::allocator<CPoint> >, COMDAT

; 255  : 	{	// copy _Count *_Val to raw _First, using _Al

  00000	51		 push	 ecx

; 256  : 	_Uninit_fill_n(_First, _Count, _Val, _Al,
; 257  : 		_Ptr_cat(_First, _First));

  00001	8b 04 24	 mov	 eax, DWORD PTR __Cat$235669[esp+4]
  00004	8b 4c 24 14	 mov	 ecx, DWORD PTR __Al$[esp]
  00008	8b 54 24 10	 mov	 edx, DWORD PTR __Val$[esp]
  0000c	50		 push	 eax
  0000d	8b 44 24 10	 mov	 eax, DWORD PTR __Count$[esp+4]
  00011	51		 push	 ecx
  00012	8b 4c 24 10	 mov	 ecx, DWORD PTR __First$[esp+8]
  00016	52		 push	 edx
  00017	50		 push	 eax
  00018	51		 push	 ecx
  00019	e8 00 00 00 00	 call	 ??$_Uninit_fill_n@PAVCPoint@@IV1@V?$allocator@VCPoint@@@std@@@std@@YAXPAVCPoint@@IABV1@AAV?$allocator@VCPoint@@@0@U_Nonscalar_ptr_iterator_tag@0@@Z ; std::_Uninit_fill_n<CPoint *,unsigned int,CPoint,std::allocator<CPoint> >

; 258  : 	}

  0001e	83 c4 18	 add	 esp, 24			; 00000018H
  00021	c3		 ret	 0
??$_Uninitialized_fill_n@PAVCPoint@@IV1@V?$allocator@VCPoint@@@std@@@std@@YAXPAVCPoint@@IABV1@AAV?$allocator@VCPoint@@@0@@Z ENDP ; std::_Uninitialized_fill_n<CPoint *,unsigned int,CPoint,std::allocator<CPoint> >
_TEXT	ENDS
PUBLIC	??$_Uninitialized_copy@Vconst_iterator@?$vector@VCPoint@@V?$allocator@VCPoint@@@std@@@std@@PAVCPoint@@V?$allocator@VCPoint@@@3@@std@@YAPAVCPoint@@Vconst_iterator@?$vector@VCPoint@@V?$allocator@VCPoint@@@std@@@0@0PAV1@AAV?$allocator@VCPoint@@@0@@Z ; std::_Uninitialized_copy<std::vector<CPoint,std::allocator<CPoint> >::const_iterator,CPoint *,std::allocator<CPoint> >
; Function compile flags: /Ogty
;	COMDAT ??$_Uninitialized_copy@Vconst_iterator@?$vector@VCPoint@@V?$allocator@VCPoint@@@std@@@std@@PAVCPoint@@V?$allocator@VCPoint@@@3@@std@@YAPAVCPoint@@Vconst_iterator@?$vector@VCPoint@@V?$allocator@VCPoint@@@std@@@0@0PAV1@AAV?$allocator@VCPoint@@@0@@Z
_TEXT	SEGMENT
__Cat$235678 = -4					; size = 1
__First$ = 8						; size = 4
__Last$ = 12						; size = 4
__Dest$ = 16						; size = 4
__Al$ = 20						; size = 4
??$_Uninitialized_copy@Vconst_iterator@?$vector@VCPoint@@V?$allocator@VCPoint@@@std@@@std@@PAVCPoint@@V?$allocator@VCPoint@@@3@@std@@YAPAVCPoint@@Vconst_iterator@?$vector@VCPoint@@V?$allocator@VCPoint@@@std@@@0@0PAV1@AAV?$allocator@VCPoint@@@0@@Z PROC NEAR ; std::_Uninitialized_copy<std::vector<CPoint,std::allocator<CPoint> >::const_iterator,CPoint *,std::allocator<CPoint> >, COMDAT

; 126  : 	{	// copy [_First, _Last) to raw _Dest, using _Al

  00000	51		 push	 ecx

; 127  : 	return (_Uninit_copy(_First, _Last, _Dest, _Al,
; 128  : 		_Ptr_cat(_First, _Dest)));

  00001	8b 04 24	 mov	 eax, DWORD PTR __Cat$235678[esp+4]
  00004	8b 4c 24 14	 mov	 ecx, DWORD PTR __Al$[esp]
  00008	8b 54 24 10	 mov	 edx, DWORD PTR __Dest$[esp]
  0000c	50		 push	 eax
  0000d	8b 44 24 10	 mov	 eax, DWORD PTR __Last$[esp+4]
  00011	51		 push	 ecx
  00012	8b 4c 24 10	 mov	 ecx, DWORD PTR __First$[esp+8]
  00016	52		 push	 edx
  00017	50		 push	 eax
  00018	51		 push	 ecx
  00019	e8 00 00 00 00	 call	 ??$_Uninit_copy@Vconst_iterator@?$vector@VCPoint@@V?$allocator@VCPoint@@@std@@@std@@PAVCPoint@@V?$allocator@VCPoint@@@3@@std@@YAPAVCPoint@@Vconst_iterator@?$vector@VCPoint@@V?$allocator@VCPoint@@@std@@@0@0PAV1@AAV?$allocator@VCPoint@@@0@U_Nonscalar_ptr_iterator_tag@0@@Z ; std::_Uninit_copy<std::vector<CPoint,std::allocator<CPoint> >::const_iterator,CPoint *,std::allocator<CPoint> >

; 129  : 	}

  0001e	83 c4 18	 add	 esp, 24			; 00000018H
  00021	c3		 ret	 0
??$_Uninitialized_copy@Vconst_iterator@?$vector@VCPoint@@V?$allocator@VCPoint@@@std@@@std@@PAVCPoint@@V?$allocator@VCPoint@@@3@@std@@YAPAVCPoint@@Vconst_iterator@?$vector@VCPoint@@V?$allocator@VCPoint@@@std@@@0@0PAV1@AAV?$allocator@VCPoint@@@0@@Z ENDP ; std::_Uninitialized_copy<std::vector<CPoint,std::allocator<CPoint> >::const_iterator,CPoint *,std::allocator<CPoint> >
_TEXT	ENDS
PUBLIC	??0?$CStringT@DV?$StrTraitMFC@DV?$ChTraitsCRT@D@ATL@@@@@ATL@@QAE@ABV01@@Z ; ATL::CStringT<char,StrTraitMFC<char,ATL::ChTraitsCRT<char> > >::CStringT<char,StrTraitMFC<char,ATL::ChTraitsCRT<char> > >
; Function compile flags: /Ogty
; File c:\program files\microsoft visual studio .net 2003\vc7\atlmfc\include\cstringt.h
;	COMDAT ??0?$CStringT@DV?$StrTraitMFC@DV?$ChTraitsCRT@D@ATL@@@@@ATL@@QAE@ABV01@@Z
_TEXT	SEGMENT
_strSrc$ = 8						; size = 4
??0?$CStringT@DV?$StrTraitMFC@DV?$ChTraitsCRT@D@ATL@@@@@ATL@@QAE@ABV01@@Z PROC NEAR ; ATL::CStringT<char,StrTraitMFC<char,ATL::ChTraitsCRT<char> > >::CStringT<char,StrTraitMFC<char,ATL::ChTraitsCRT<char> > >, COMDAT
; _this$ = ecx

; 814  : 	{

  00000	8b 44 24 04	 mov	 eax, DWORD PTR _strSrc$[esp-4]
  00004	8b 00		 mov	 eax, DWORD PTR [eax]
  00006	56		 push	 esi
  00007	83 e8 10	 sub	 eax, 16			; 00000010H
  0000a	50		 push	 eax
  0000b	8b f1		 mov	 esi, ecx
  0000d	e8 00 00 00 00	 call	 ?CloneData@?$CSimpleStringT@D$0A@@ATL@@CAPAUCStringData@2@PAU32@@Z ; ATL::CSimpleStringT<char,0>::CloneData
  00012	83 c0 10	 add	 eax, 16			; 00000010H
  00015	89 06		 mov	 DWORD PTR [esi], eax
  00017	83 c4 04	 add	 esp, 4

; 815  : 	}

  0001a	8b c6		 mov	 eax, esi
  0001c	5e		 pop	 esi
  0001d	c2 04 00	 ret	 4
??0?$CStringT@DV?$StrTraitMFC@DV?$ChTraitsCRT@D@ATL@@@@@ATL@@QAE@ABV01@@Z ENDP ; ATL::CStringT<char,StrTraitMFC<char,ATL::ChTraitsCRT<char> > >::CStringT<char,StrTraitMFC<char,ATL::ChTraitsCRT<char> > >
_TEXT	ENDS
PUBLIC	?GetBuffer@?$CSimpleStringT@D$0A@@ATL@@QAEPADH@Z ; ATL::CSimpleStringT<char,0>::GetBuffer
; Function compile flags: /Ogty
; File c:\program files\microsoft visual studio .net 2003\vc7\atlmfc\include\atlsimpstr.h
;	COMDAT ?GetBuffer@?$CSimpleStringT@D$0A@@ATL@@QAEPADH@Z
_TEXT	SEGMENT
_nMinBufferLength$ = 8					; size = 4
?GetBuffer@?$CSimpleStringT@D$0A@@ATL@@QAEPADH@Z PROC NEAR ; ATL::CSimpleStringT<char,0>::GetBuffer, COMDAT
; _this$ = ecx

; 489  : 	{

  00000	56		 push	 esi
  00001	8b f1		 mov	 esi, ecx

; 490  : 		return( PrepareWrite( nMinBufferLength ) );

  00003	8b 06		 mov	 eax, DWORD PTR [esi]
  00005	8b 50 fc	 mov	 edx, DWORD PTR [eax-4]
  00008	83 e8 10	 sub	 eax, 16			; 00000010H
  0000b	b9 01 00 00 00	 mov	 ecx, 1
  00010	2b ca		 sub	 ecx, edx
  00012	8b 50 08	 mov	 edx, DWORD PTR [eax+8]
  00015	8b 44 24 08	 mov	 eax, DWORD PTR _nMinBufferLength$[esp]
  00019	2b d0		 sub	 edx, eax
  0001b	0b ca		 or	 ecx, edx
  0001d	7d 08		 jge	 SHORT $L235721
  0001f	50		 push	 eax
  00020	8b ce		 mov	 ecx, esi
  00022	e8 00 00 00 00	 call	 ?PrepareWrite2@?$CSimpleStringT@D$0A@@ATL@@AAEXH@Z ; ATL::CSimpleStringT<char,0>::PrepareWrite2
$L235721:
  00027	8b 06		 mov	 eax, DWORD PTR [esi]
  00029	5e		 pop	 esi

; 491  : 	}

  0002a	c2 04 00	 ret	 4
?GetBuffer@?$CSimpleStringT@D$0A@@ATL@@QAEPADH@Z ENDP	; ATL::CSimpleStringT<char,0>::GetBuffer
_TEXT	ENDS
PUBLIC	??1?$basic_string@DU?$char_traits@D@std@@V?$allocator@D@2@@std@@QAE@XZ ; std::basic_string<char,std::char_traits<char>,std::allocator<char> >::~basic_string<char,std::char_traits<char>,std::allocator<char> >
; Function compile flags: /Ogty
; File c:\program files\microsoft visual studio .net 2003\vc7\include\xstring
;	COMDAT ??1?$basic_string@DU?$char_traits@D@std@@V?$allocator@D@2@@std@@QAE@XZ
_TEXT	SEGMENT
??1?$basic_string@DU?$char_traits@D@std@@V?$allocator@D@2@@std@@QAE@XZ PROC NEAR ; std::basic_string<char,std::char_traits<char>,std::allocator<char> >::~basic_string<char,std::char_traits<char>,std::allocator<char> >, COMDAT
; _this$ = ecx

; 456  : 		{	// destroy the string

  00000	56		 push	 esi
  00001	8b f1		 mov	 esi, ecx

; 457  : 		_Tidy(true);

  00003	83 7e 18 10	 cmp	 DWORD PTR [esi+24], 16	; 00000010H
  00007	72 0c		 jb	 SHORT $L235758
  00009	8b 46 04	 mov	 eax, DWORD PTR [esi+4]
  0000c	50		 push	 eax
  0000d	e8 00 00 00 00	 call	 ??3@YAXPAX@Z		; operator delete
  00012	83 c4 04	 add	 esp, 4
$L235758:
  00015	33 c0		 xor	 eax, eax
  00017	c7 46 18 0f 00
	00 00		 mov	 DWORD PTR [esi+24], 15	; 0000000fH
  0001e	89 46 14	 mov	 DWORD PTR [esi+20], eax
  00021	88 46 04	 mov	 BYTE PTR [esi+4], al
  00024	5e		 pop	 esi

; 458  : 		}

  00025	c3		 ret	 0
??1?$basic_string@DU?$char_traits@D@std@@V?$allocator@D@2@@std@@QAE@XZ ENDP ; std::basic_string<char,std::char_traits<char>,std::allocator<char> >::~basic_string<char,std::char_traits<char>,std::allocator<char> >
_TEXT	ENDS
PUBLIC	?LoadStringA@?$CStringT@DV?$StrTraitMFC@DV?$ChTraitsCRT@D@ATL@@@@@ATL@@QAEHPAUHINSTANCE__@@I@Z ; ATL::CStringT<char,StrTraitMFC<char,ATL::ChTraitsCRT<char> > >::LoadStringA
; Function compile flags: /Ogty
; File c:\program files\microsoft visual studio .net 2003\vc7\atlmfc\include\cstringt.h
;	COMDAT ?LoadStringA@?$CStringT@DV?$StrTraitMFC@DV?$ChTraitsCRT@D@ATL@@@@@ATL@@QAEHPAUHINSTANCE__@@I@Z
_TEXT	SEGMENT
_hInstance$ = 8						; size = 4
_nID$ = 12						; size = 4
?LoadStringA@?$CStringT@DV?$StrTraitMFC@DV?$ChTraitsCRT@D@ATL@@@@@ATL@@QAEHPAUHINSTANCE__@@I@Z PROC NEAR ; ATL::CStringT<char,StrTraitMFC<char,ATL::ChTraitsCRT<char> > >::LoadStringA, COMDAT
; _this$ = ecx

; 1981 : 	{

  00000	53		 push	 ebx
  00001	56		 push	 esi

; 1982 : 		const ATLSTRINGRESOURCEIMAGE* pImage = AtlGetStringResourceImage( hInstance, nID );

  00002	8b 74 24 10	 mov	 esi, DWORD PTR _nID$[esp+4]
  00006	8b c6		 mov	 eax, esi
  00008	c1 e8 04	 shr	 eax, 4
  0000b	57		 push	 edi
  0000c	8b 7c 24 10	 mov	 edi, DWORD PTR _hInstance$[esp+8]
  00010	40		 inc	 eax
  00011	8b d9		 mov	 ebx, ecx
  00013	0f b7 c8	 movzx	 ecx, ax
  00016	6a 06		 push	 6
  00018	51		 push	 ecx
  00019	57		 push	 edi
  0001a	ff 15 00 00 00
	00		 call	 DWORD PTR __imp__FindResourceA@12
  00020	85 c0		 test	 eax, eax
  00022	74 11		 je	 SHORT $L235854
  00024	56		 push	 esi
  00025	50		 push	 eax
  00026	57		 push	 edi
  00027	e8 00 00 00 00	 call	 ?_AtlGetStringResourceImage@ATL@@YAPBUATLSTRINGRESOURCEIMAGE@1@PAUHINSTANCE__@@PAUHRSRC__@@I@Z ; ATL::_AtlGetStringResourceImage
  0002c	8b f8		 mov	 edi, eax
  0002e	83 c4 0c	 add	 esp, 12			; 0000000cH

; 1983 : 		if( pImage == NULL )

  00031	85 ff		 test	 edi, edi
  00033	75 08		 jne	 SHORT $L219928
$L235854:
  00035	5f		 pop	 edi
  00036	5e		 pop	 esi

; 1984 : 		{
; 1985 : 			return( FALSE );

  00037	33 c0		 xor	 eax, eax
  00039	5b		 pop	 ebx

; 1994 : 	}

  0003a	c2 08 00	 ret	 8
$L219928:

; 1986 : 		}
; 1987 : 
; 1988 : 		int nLength = StringTraits::GetBaseTypeLength( pImage->achString, pImage->nLength );

  0003d	0f b7 37	 movzx	 esi, WORD PTR [edi]
  00040	55		 push	 ebp
  00041	ff 15 00 00 00
	00		 call	 DWORD PTR ?g_pfnGetThreadACP@ATL@@3P6GIXZA ; ATL::g_pfnGetThreadACP
  00047	6a 00		 push	 0
  00049	6a 00		 push	 0
  0004b	6a 00		 push	 0
  0004d	6a 00		 push	 0
  0004f	56		 push	 esi
  00050	8d 6f 02	 lea	 ebp, DWORD PTR [edi+2]
  00053	55		 push	 ebp
  00054	6a 00		 push	 0
  00056	50		 push	 eax
  00057	ff 15 00 00 00
	00		 call	 DWORD PTR __imp__WideCharToMultiByte@32
  0005d	8b f0		 mov	 esi, eax

; 1989 : 		PXSTR pszBuffer = GetBuffer( nLength );

  0005f	8b 03		 mov	 eax, DWORD PTR [ebx]
  00061	8b 48 fc	 mov	 ecx, DWORD PTR [eax-4]
  00064	83 e8 10	 sub	 eax, 16			; 00000010H
  00067	8b 40 08	 mov	 eax, DWORD PTR [eax+8]
  0006a	ba 01 00 00 00	 mov	 edx, 1
  0006f	2b d1		 sub	 edx, ecx
  00071	2b c6		 sub	 eax, esi
  00073	0b d0		 or	 edx, eax
  00075	7d 08		 jge	 SHORT $L235815
  00077	56		 push	 esi
  00078	8b cb		 mov	 ecx, ebx
  0007a	e8 00 00 00 00	 call	 ?PrepareWrite2@?$CSimpleStringT@D$0A@@ATL@@AAEXH@Z ; ATL::CSimpleStringT<char,0>::PrepareWrite2
$L235815:
  0007f	8b 03		 mov	 eax, DWORD PTR [ebx]

; 1990 : 		StringTraits::ConvertToBaseType( pszBuffer, nLength, pImage->achString, pImage->nLength );

  00081	0f b7 0f	 movzx	 ecx, WORD PTR [edi]
  00084	6a 00		 push	 0
  00086	6a 00		 push	 0
  00088	56		 push	 esi
  00089	50		 push	 eax
  0008a	51		 push	 ecx
  0008b	55		 push	 ebp
  0008c	6a 00		 push	 0
  0008e	ff 15 00 00 00
	00		 call	 DWORD PTR ?g_pfnGetThreadACP@ATL@@3P6GIXZA ; ATL::g_pfnGetThreadACP
  00094	50		 push	 eax
  00095	ff 15 00 00 00
	00		 call	 DWORD PTR __imp__WideCharToMultiByte@32

; 1991 : 		ReleaseBufferSetLength( nLength );

  0009b	85 f6		 test	 esi, esi
  0009d	5d		 pop	 ebp
  0009e	7c 1b		 jl	 SHORT $L235851
  000a0	8b 03		 mov	 eax, DWORD PTR [ebx]
  000a2	3b 70 f8	 cmp	 esi, DWORD PTR [eax-8]
  000a5	7f 14		 jg	 SHORT $L235851
  000a7	89 70 f4	 mov	 DWORD PTR [eax-12], esi
  000aa	8b 0b		 mov	 ecx, DWORD PTR [ebx]
  000ac	5f		 pop	 edi
  000ad	c6 04 0e 00	 mov	 BYTE PTR [esi+ecx], 0
  000b1	5e		 pop	 esi

; 1992 : 
; 1993 : 		return( TRUE );

  000b2	b8 01 00 00 00	 mov	 eax, 1
  000b7	5b		 pop	 ebx

; 1994 : 	}

  000b8	c2 08 00	 ret	 8
$L235851:
  000bb	68 57 00 07 80	 push	 -2147024809		; 80070057H
  000c0	e8 00 00 00 00	 call	 ?AtlThrow@ATL@@YGXJ@Z	; ATL::AtlThrow
$L235856:
$L235855:
  000c5	cc		 int	 3
?LoadStringA@?$CStringT@DV?$StrTraitMFC@DV?$ChTraitsCRT@D@ATL@@@@@ATL@@QAEHPAUHINSTANCE__@@I@Z ENDP ; ATL::CStringT<char,StrTraitMFC<char,ATL::ChTraitsCRT<char> > >::LoadStringA
_TEXT	ENDS
PUBLIC	?SetString@?$CSimpleStringT@D$0A@@ATL@@QAEXPBDH@Z ; ATL::CSimpleStringT<char,0>::SetString
; Function compile flags: /Ogty
; File c:\program files\microsoft visual studio .net 2003\vc7\atlmfc\include\atlsimpstr.h
;	COMDAT ?SetString@?$CSimpleStringT@D$0A@@ATL@@QAEXPBDH@Z
_TEXT	SEGMENT
_pszSrc$ = 8						; size = 4
_nLength$ = 12						; size = 4
?SetString@?$CSimpleStringT@D$0A@@ATL@@QAEXPBDH@Z PROC NEAR ; ATL::CSimpleStringT<char,0>::SetString, COMDAT
; _this$ = ecx

; 583  : 	{

  00000	53		 push	 ebx

; 584  : 		if( nLength == 0 )

  00001	8b 5c 24 0c	 mov	 ebx, DWORD PTR _nLength$[esp]
  00005	85 db		 test	 ebx, ebx
  00007	55		 push	 ebp
  00008	8b e9		 mov	 ebp, ecx
  0000a	75 0a		 jne	 SHORT $L221330

; 585  : 		{
; 586  : 			Empty();

  0000c	e8 00 00 00 00	 call	 ?Empty@?$CSimpleStringT@D$0A@@ATL@@QAEXXZ ; ATL::CSimpleStringT<char,0>::Empty
  00011	5d		 pop	 ebp
  00012	5b		 pop	 ebx

; 614  : 		}
; 615  : 	}

  00013	c2 08 00	 ret	 8
$L221330:

; 587  : 		}
; 588  : 		else
; 589  : 		{
; 590  : 			// It is possible that pszSrc points to a location inside of our 
; 591  : 			// buffer.  GetBuffer() might change m_pszData if (1) the buffer 
; 592  : 			// is shared or (2) the buffer is too small to hold the new 
; 593  : 			// string.  We detect this aliasing, and modify pszSrc to point
; 594  : 			// into the newly allocated buffer instead.
; 595  : 			
; 596  : 			if(pszSrc == NULL)

  00016	8b 54 24 0c	 mov	 edx, DWORD PTR _pszSrc$[esp+4]
  0001a	85 d2		 test	 edx, edx
  0001c	75 0a		 jne	 SHORT $L221332

; 612  : 			}
; 613  : 			ReleaseBufferSetLength( nLength );

$L235928:
  0001e	68 57 00 07 80	 push	 -2147024809		; 80070057H
  00023	e8 00 00 00 00	 call	 ?AtlThrow@ATL@@YGXJ@Z	; ATL::AtlThrow
$L235932:
$L221332:

; 597  : 				AtlThrow(E_INVALIDARG);			
; 598  : 				
; 599  : 			UINT nOldLength = GetLength();

  00028	8b 45 00	 mov	 eax, DWORD PTR [ebp]
  0002b	56		 push	 esi

; 600  : 			UINT_PTR nOffset = pszSrc-GetString();

  0002c	8b f2		 mov	 esi, edx
  0002e	2b f0		 sub	 esi, eax

; 601  : 			// If 0 <= nOffset <= nOldLength, then pszSrc points into our 
; 602  : 			// buffer
; 603  : 
; 604  : 			PXSTR pszBuffer = GetBuffer( nLength );

  00030	b9 01 00 00 00	 mov	 ecx, 1
  00035	2b 48 fc	 sub	 ecx, DWORD PTR [eax-4]
  00038	57		 push	 edi
  00039	8b 78 f4	 mov	 edi, DWORD PTR [eax-12]
  0003c	8b 40 f8	 mov	 eax, DWORD PTR [eax-8]
  0003f	2b c3		 sub	 eax, ebx
  00041	0b c8		 or	 ecx, eax
  00043	7d 0c		 jge	 SHORT $L235895
  00045	53		 push	 ebx
  00046	8b cd		 mov	 ecx, ebp
  00048	e8 00 00 00 00	 call	 ?PrepareWrite2@?$CSimpleStringT@D$0A@@ATL@@AAEXH@Z ; ATL::CSimpleStringT<char,0>::PrepareWrite2
  0004d	8b 54 24 14	 mov	 edx, DWORD PTR _pszSrc$[esp+12]
$L235895:

; 605  : 			if( nOffset <= nOldLength )

  00051	3b f7		 cmp	 esi, edi
  00053	8b 45 00	 mov	 eax, DWORD PTR [ebp]
  00056	77 10		 ja	 SHORT $L221337

; 606  : 			{
; 607  : 				CopyCharsOverlapped( pszBuffer, pszBuffer+nOffset, nLength );

  00058	53		 push	 ebx
  00059	8d 0c 30	 lea	 ecx, DWORD PTR [eax+esi]
  0005c	51		 push	 ecx
  0005d	50		 push	 eax
  0005e	e8 00 00 00 00	 call	 _memmove
  00063	83 c4 0c	 add	 esp, 12			; 0000000cH

; 608  : 			}
; 609  : 			else

  00066	eb 14		 jmp	 SHORT $L235902
$L221337:

; 610  : 			{
; 611  : 				CopyChars( pszBuffer, pszSrc, nLength );

  00068	8b cb		 mov	 ecx, ebx
  0006a	8b f2		 mov	 esi, edx
  0006c	8b d1		 mov	 edx, ecx
  0006e	c1 e9 02	 shr	 ecx, 2
  00071	8b f8		 mov	 edi, eax
  00073	f3 a5		 rep movsd
  00075	8b ca		 mov	 ecx, edx
  00077	83 e1 03	 and	 ecx, 3
  0007a	f3 a4		 rep movsb
$L235902:

; 612  : 			}
; 613  : 			ReleaseBufferSetLength( nLength );

  0007c	85 db		 test	 ebx, ebx
  0007e	5f		 pop	 edi
  0007f	5e		 pop	 esi
  00080	7c 9c		 jl	 SHORT $L235928
  00082	8b 45 00	 mov	 eax, DWORD PTR [ebp]
  00085	3b 58 f8	 cmp	 ebx, DWORD PTR [eax-8]
  00088	7f 94		 jg	 SHORT $L235928
  0008a	89 58 f4	 mov	 DWORD PTR [eax-12], ebx
  0008d	8b 45 00	 mov	 eax, DWORD PTR [ebp]
  00090	5d		 pop	 ebp
  00091	c6 04 03 00	 mov	 BYTE PTR [ebx+eax], 0
  00095	5b		 pop	 ebx

; 614  : 		}
; 615  : 	}

  00096	c2 08 00	 ret	 8
$L235931:
?SetString@?$CSimpleStringT@D$0A@@ATL@@QAEXPBDH@Z ENDP	; ATL::CSimpleStringT<char,0>::SetString
_TEXT	ENDS
PUBLIC	?_Grow@?$basic_string@DU?$char_traits@D@std@@V?$allocator@D@2@@std@@IAE_NI_N@Z ; std::basic_string<char,std::char_traits<char>,std::allocator<char> >::_Grow
EXTRN	?_Xlen@_String_base@std@@QBEXXZ:NEAR		; std::_String_base::_Xlen
; Function compile flags: /Ogty
; File c:\program files\microsoft visual studio .net 2003\vc7\include\xstring
;	COMDAT ?_Grow@?$basic_string@DU?$char_traits@D@std@@V?$allocator@D@2@@std@@IAE_NI_N@Z
_TEXT	SEGMENT
__Newsize$ = 8						; size = 4
__Trim$ = 12						; size = 1
?_Grow@?$basic_string@DU?$char_traits@D@std@@V?$allocator@D@2@@std@@IAE_NI_N@Z PROC NEAR ; std::basic_string<char,std::char_traits<char>,std::allocator<char> >::_Grow, COMDAT
; _this$ = ecx

; 1480 : 		{	// ensure buffer is big enough, trim to size if _Trim is true

  00000	55		 push	 ebp
  00001	56		 push	 esi

; 1481 : 		if (max_size() < _Newsize)

  00002	8b 74 24 0c	 mov	 esi, DWORD PTR __Newsize$[esp+4]
  00006	83 fe fe	 cmp	 esi, -2			; fffffffeH
  00009	8b e9		 mov	 ebp, ecx
  0000b	76 05		 jbe	 SHORT $L221380

; 1482 : 			_String_base::_Xlen();	// result too long

  0000d	e8 00 00 00 00	 call	 ?_Xlen@_String_base@std@@QBEXXZ ; std::_String_base::_Xlen
$L221380:

; 1483 : 		if (_Myres < _Newsize)

  00012	8b 45 18	 mov	 eax, DWORD PTR [ebp+24]
  00015	3b c6		 cmp	 eax, esi
  00017	73 19		 jae	 SHORT $L221381

; 1484 : 			_Copy(_Newsize, _Mysize);	// reallocate to grow

  00019	8b 45 14	 mov	 eax, DWORD PTR [ebp+20]
  0001c	50		 push	 eax
  0001d	56		 push	 esi
  0001e	8b cd		 mov	 ecx, ebp
  00020	e8 00 00 00 00	 call	 ?_Copy@?$basic_string@DU?$char_traits@D@std@@V?$allocator@D@2@@std@@IAEXII@Z ; std::basic_string<char,std::char_traits<char>,std::allocator<char> >::_Copy

; 1490 : 		return (0 < _Newsize);	// return true only if more work to do

  00025	33 c0		 xor	 eax, eax
  00027	3b c6		 cmp	 eax, esi
  00029	1b c0		 sbb	 eax, eax
  0002b	5e		 pop	 esi
  0002c	f7 d8		 neg	 eax
  0002e	5d		 pop	 ebp

; 1491 : 		}

  0002f	c2 08 00	 ret	 8
$L221381:

; 1485 : 		else if (_Trim && _Newsize < _BUF_SIZE)

  00032	8a 4c 24 10	 mov	 cl, BYTE PTR __Trim$[esp+4]
  00036	84 c9		 test	 cl, cl
  00038	74 5c		 je	 SHORT $L221383
  0003a	83 fe 10	 cmp	 esi, 16			; 00000010H
  0003d	73 57		 jae	 SHORT $L221383
  0003f	53		 push	 ebx

; 1486 : 			_Tidy(true,	// copy and deallocate if trimming to small string
; 1487 : 				_Newsize < _Mysize ? _Newsize : _Mysize);

  00040	8b 5d 14	 mov	 ebx, DWORD PTR [ebp+20]
  00043	3b f3		 cmp	 esi, ebx
  00045	73 02		 jae	 SHORT $L235937
  00047	8b de		 mov	 ebx, esi
$L235937:
  00049	83 f8 10	 cmp	 eax, 16			; 00000010H
  0004c	72 2b		 jb	 SHORT $L235991
  0004e	85 db		 test	 ebx, ebx
  00050	8b 45 04	 mov	 eax, DWORD PTR [ebp+4]
  00053	57		 push	 edi
  00054	8d 7d 04	 lea	 edi, DWORD PTR [ebp+4]
  00057	76 16		 jbe	 SHORT $L235989
  00059	8b cb		 mov	 ecx, ebx
  0005b	8b d1		 mov	 edx, ecx
  0005d	c1 e9 02	 shr	 ecx, 2
  00060	8b f0		 mov	 esi, eax
  00062	f3 a5		 rep movsd
  00064	8b ca		 mov	 ecx, edx
  00066	83 e1 03	 and	 ecx, 3
  00069	f3 a4		 rep movsb
  0006b	8b 74 24 14	 mov	 esi, DWORD PTR __Newsize$[esp+12]
$L235989:
  0006f	50		 push	 eax
  00070	e8 00 00 00 00	 call	 ??3@YAXPAX@Z		; operator delete
  00075	83 c4 04	 add	 esp, 4
  00078	5f		 pop	 edi
$L235991:
  00079	89 5d 14	 mov	 DWORD PTR [ebp+20], ebx

; 1490 : 		return (0 < _Newsize);	// return true only if more work to do

  0007c	33 c0		 xor	 eax, eax
  0007e	c7 45 18 0f 00
	00 00		 mov	 DWORD PTR [ebp+24], 15	; 0000000fH
  00085	c6 44 2b 04 00	 mov	 BYTE PTR [ebx+ebp+4], 0
  0008a	3b c6		 cmp	 eax, esi
  0008c	5b		 pop	 ebx
  0008d	1b c0		 sbb	 eax, eax
  0008f	5e		 pop	 esi
  00090	f7 d8		 neg	 eax
  00092	5d		 pop	 ebp

; 1491 : 		}

  00093	c2 08 00	 ret	 8
$L221383:

; 1488 : 		else if (_Newsize == 0)

  00096	85 f6		 test	 esi, esi
  00098	75 23		 jne	 SHORT $L236028

; 1489 : 			_Eos(0);	// new size is zero, just null terminate

  0009a	83 f8 10	 cmp	 eax, 16			; 00000010H
  0009d	89 75 14	 mov	 DWORD PTR [ebp+20], esi
  000a0	72 14		 jb	 SHORT $L236026
  000a2	8b 6d 04	 mov	 ebp, DWORD PTR [ebp+4]

; 1490 : 		return (0 < _Newsize);	// return true only if more work to do

  000a5	33 c0		 xor	 eax, eax
  000a7	3b c6		 cmp	 eax, esi
  000a9	1b c0		 sbb	 eax, eax
  000ab	5e		 pop	 esi
  000ac	c6 45 00 00	 mov	 BYTE PTR [ebp], 0
  000b0	f7 d8		 neg	 eax
  000b2	5d		 pop	 ebp

; 1491 : 		}

  000b3	c2 08 00	 ret	 8

; 1489 : 			_Eos(0);	// new size is zero, just null terminate

$L236026:
  000b6	83 c5 04	 add	 ebp, 4
  000b9	c6 45 00 00	 mov	 BYTE PTR [ebp], 0
$L236028:

; 1490 : 		return (0 < _Newsize);	// return true only if more work to do

  000bd	33 c0		 xor	 eax, eax
  000bf	3b c6		 cmp	 eax, esi
  000c1	1b c0		 sbb	 eax, eax
  000c3	5e		 pop	 esi
  000c4	f7 d8		 neg	 eax
  000c6	5d		 pop	 ebp

; 1491 : 		}

  000c7	c2 08 00	 ret	 8
?_Grow@?$basic_string@DU?$char_traits@D@std@@V?$allocator@D@2@@std@@IAE_NI_N@Z ENDP ; std::basic_string<char,std::char_traits<char>,std::allocator<char> >::_Grow
_TEXT	ENDS
PUBLIC	?Concatenate@?$CSimpleStringT@D$0A@@ATL@@KAXAAV12@PBDH1H@Z ; ATL::CSimpleStringT<char,0>::Concatenate
; Function compile flags: /Ogty
; File c:\program files\microsoft visual studio .net 2003\vc7\atlmfc\include\atlsimpstr.h
;	COMDAT ?Concatenate@?$CSimpleStringT@D$0A@@ATL@@KAXAAV12@PBDH1H@Z
_TEXT	SEGMENT
_strResult$ = 8						; size = 4
_psz1$ = 12						; size = 4
_nLength1$ = 16						; size = 4
_psz2$ = 20						; size = 4
_nLength2$ = 24						; size = 4
?Concatenate@?$CSimpleStringT@D$0A@@ATL@@KAXAAV12@PBDH1H@Z PROC NEAR ; ATL::CSimpleStringT<char,0>::Concatenate, COMDAT

; 697  : 		int nNewLength = nLength1+nLength2;

  00000	8b 44 24 14	 mov	 eax, DWORD PTR _nLength2$[esp-4]
  00004	53		 push	 ebx
  00005	55		 push	 ebp

; 698  : 		PXSTR pszBuffer = strResult.GetBuffer( nNewLength );

  00006	8b 6c 24 0c	 mov	 ebp, DWORD PTR _strResult$[esp+4]
  0000a	56		 push	 esi
  0000b	8b 74 24 18	 mov	 esi, DWORD PTR _nLength1$[esp+8]
  0000f	8d 1c 06	 lea	 ebx, DWORD PTR [esi+eax]
  00012	8b 45 00	 mov	 eax, DWORD PTR [ebp]
  00015	8b 50 fc	 mov	 edx, DWORD PTR [eax-4]
  00018	83 e8 10	 sub	 eax, 16			; 00000010H
  0001b	b9 01 00 00 00	 mov	 ecx, 1
  00020	2b ca		 sub	 ecx, edx
  00022	8b 50 08	 mov	 edx, DWORD PTR [eax+8]
  00025	2b d3		 sub	 edx, ebx
  00027	0b ca		 or	 ecx, edx
  00029	7d 08		 jge	 SHORT $L236057
  0002b	53		 push	 ebx
  0002c	8b cd		 mov	 ecx, ebp
  0002e	e8 00 00 00 00	 call	 ?PrepareWrite2@?$CSimpleStringT@D$0A@@ATL@@AAEXH@Z ; ATL::CSimpleStringT<char,0>::PrepareWrite2
$L236057:
  00033	8b 45 00	 mov	 eax, DWORD PTR [ebp]

; 699  : 		CopyChars( pszBuffer, psz1, nLength1 );

  00036	8b ce		 mov	 ecx, esi
  00038	8b 74 24 14	 mov	 esi, DWORD PTR _psz1$[esp+8]
  0003c	8b d1		 mov	 edx, ecx
  0003e	c1 e9 02	 shr	 ecx, 2
  00041	57		 push	 edi
  00042	8b f8		 mov	 edi, eax
  00044	f3 a5		 rep movsd
  00046	8b ca		 mov	 ecx, edx

; 700  : 		CopyChars( pszBuffer+nLength1, psz2, nLength2 );

  00048	8b 54 24 1c	 mov	 edx, DWORD PTR _nLength1$[esp+12]
  0004c	83 e1 03	 and	 ecx, 3
  0004f	f3 a4		 rep movsb
  00051	8b 4c 24 24	 mov	 ecx, DWORD PTR _nLength2$[esp+12]
  00055	8b 74 24 20	 mov	 esi, DWORD PTR _psz2$[esp+12]
  00059	8d 3c 10	 lea	 edi, DWORD PTR [eax+edx]
  0005c	8b c1		 mov	 eax, ecx
  0005e	c1 e9 02	 shr	 ecx, 2
  00061	f3 a5		 rep movsd
  00063	8b c8		 mov	 ecx, eax
  00065	83 e1 03	 and	 ecx, 3

; 701  : 		strResult.ReleaseBufferSetLength( nNewLength );

  00068	85 db		 test	 ebx, ebx
  0006a	f3 a4		 rep movsb
  0006c	5f		 pop	 edi
  0006d	7c 16		 jl	 SHORT $L236089
  0006f	8b 45 00	 mov	 eax, DWORD PTR [ebp]
  00072	3b 58 f8	 cmp	 ebx, DWORD PTR [eax-8]
  00075	7f 0e		 jg	 SHORT $L236089
  00077	89 58 f4	 mov	 DWORD PTR [eax-12], ebx
  0007a	8b 4d 00	 mov	 ecx, DWORD PTR [ebp]
  0007d	5e		 pop	 esi
  0007e	5d		 pop	 ebp
  0007f	c6 04 0b 00	 mov	 BYTE PTR [ebx+ecx], 0
  00083	5b		 pop	 ebx

; 702  : 	}

  00084	c3		 ret	 0
$L236089:
  00085	68 57 00 07 80	 push	 -2147024809		; 80070057H
  0008a	e8 00 00 00 00	 call	 ?AtlThrow@ATL@@YGXJ@Z	; ATL::AtlThrow
$L236093:
$L236092:
  0008f	cc		 int	 3
?Concatenate@?$CSimpleStringT@D$0A@@ATL@@KAXAAV12@PBDH1H@Z ENDP ; ATL::CSimpleStringT<char,0>::Concatenate
_TEXT	ENDS
PUBLIC	??0?$_Tree@V?$_Tmap_traits@EV?$vector@VCPoint@@V?$allocator@VCPoint@@@std@@@std@@U?$less@E@2@V?$allocator@U?$pair@$$CBEV?$vector@VCPoint@@V?$allocator@VCPoint@@@std@@@std@@@std@@@2@$0A@@std@@@std@@QAE@ABU?$less@E@1@ABV?$allocator@U?$pair@$$CBEV?$vector@VCPoint@@V?$allocator@VCPoint@@@std@@@std@@@std@@@1@@Z ; std::_Tree<std::_Tmap_traits<unsigned char,std::vector<CPoint,std::allocator<CPoint> >,std::less<unsigned char>,std::allocator<std::pair<unsigned char const ,std::vector<CPoint,std::allocator<CPoint> > > >,0> >::_Tree<std::_Tmap_traits<unsigned char,std::vector<CPoint,std::allocator<CPoint> >,std::less<unsigned char>,std::allocator<std::pair<unsigned char const ,std::vector<CPoint,std::allocator<CPoint> > > >,0> >
; Function compile flags: /Ogty
; File c:\program files\microsoft visual studio .net 2003\vc7\include\xtree
;	COMDAT ??0?$_Tree@V?$_Tmap_traits@EV?$vector@VCPoint@@V?$allocator@VCPoint@@@std@@@std@@U?$less@E@2@V?$allocator@U?$pair@$$CBEV?$vector@VCPoint@@V?$allocator@VCPoint@@@std@@@std@@@std@@@2@$0A@@std@@@std@@QAE@ABU?$less@E@1@ABV?$allocator@U?$pair@$$CBEV?$vector@VCPoint@@V?$allocator@VCPoint@@@std@@@std@@@std@@@1@@Z
_TEXT	SEGMENT
__Parg$ = 8						; size = 4
__Al$ = 12						; size = 4
??0?$_Tree@V?$_Tmap_traits@EV?$vector@VCPoint@@V?$allocator@VCPoint@@@std@@@std@@U?$less@E@2@V?$allocator@U?$pair@$$CBEV?$vector@VCPoint@@V?$allocator@VCPoint@@@std@@@std@@@std@@@2@$0A@@std@@@std@@QAE@ABU?$less@E@1@ABV?$allocator@U?$pair@$$CBEV?$vector@VCPoint@@V?$allocator@VCPoint@@@std@@@std@@@std@@@1@@Z PROC NEAR ; std::_Tree<std::_Tmap_traits<unsigned char,std::vector<CPoint,std::allocator<CPoint> >,std::less<unsigned char>,std::allocator<std::pair<unsigned char const ,std::vector<CPoint,std::allocator<CPoint> > > >,0> >::_Tree<std::_Tmap_traits<unsigned char,std::vector<CPoint,std::allocator<CPoint> >,std::less<unsigned char>,std::allocator<std::pair<unsigned char const ,std::vector<CPoint,std::allocator<CPoint> > > >,0> >, COMDAT
; _this$ = ecx

; 361  : 		{	// construct empty tree

  00000	56		 push	 esi
  00001	8b f1		 mov	 esi, ecx

; 362  : 		_Init();

  00003	e8 00 00 00 00	 call	 ?_Buynode@?$_Tree@V?$_Tmap_traits@EV?$vector@VCPoint@@V?$allocator@VCPoint@@@std@@@std@@U?$less@E@2@V?$allocator@U?$pair@$$CBEV?$vector@VCPoint@@V?$allocator@VCPoint@@@std@@@std@@@std@@@2@$0A@@std@@@std@@IAEPAU_Node@?$_Tree_nod@V?$_Tmap_traits@EV?$vector@VCPoint@@V?$allocator@VCPoint@@@std@@@std@@U?$less@E@2@V?$allocator@U?$pair@$$CBEV?$vector@VCPoint@@V?$allocator@VCPoint@@@std@@@std@@@std@@@2@$0A@@std@@@2@XZ ; std::_Tree<std::_Tmap_traits<unsigned char,std::vector<CPoint,std::allocator<CPoint> >,std::less<unsigned char>,std::allocator<std::pair<unsigned char const ,std::vector<CPoint,std::allocator<CPoint> > > >,0> >::_Buynode
  00008	89 46 04	 mov	 DWORD PTR [esi+4], eax
  0000b	c6 40 21 01	 mov	 BYTE PTR [eax+33], 1
  0000f	8b 46 04	 mov	 eax, DWORD PTR [esi+4]
  00012	89 40 04	 mov	 DWORD PTR [eax+4], eax
  00015	8b 46 04	 mov	 eax, DWORD PTR [esi+4]
  00018	89 00		 mov	 DWORD PTR [eax], eax
  0001a	8b 46 04	 mov	 eax, DWORD PTR [esi+4]
  0001d	89 40 08	 mov	 DWORD PTR [eax+8], eax
  00020	c7 46 08 00 00
	00 00		 mov	 DWORD PTR [esi+8], 0

; 363  : 		}

  00027	8b c6		 mov	 eax, esi
  00029	5e		 pop	 esi
  0002a	c2 08 00	 ret	 8
??0?$_Tree@V?$_Tmap_traits@EV?$vector@VCPoint@@V?$allocator@VCPoint@@@std@@@std@@U?$less@E@2@V?$allocator@U?$pair@$$CBEV?$vector@VCPoint@@V?$allocator@VCPoint@@@std@@@std@@@std@@@2@$0A@@std@@@std@@QAE@ABU?$less@E@1@ABV?$allocator@U?$pair@$$CBEV?$vector@VCPoint@@V?$allocator@VCPoint@@@std@@@std@@@std@@@1@@Z ENDP ; std::_Tree<std::_Tmap_traits<unsigned char,std::vector<CPoint,std::allocator<CPoint> >,std::less<unsigned char>,std::allocator<std::pair<unsigned char const ,std::vector<CPoint,std::allocator<CPoint> > > >,0> >::_Tree<std::_Tmap_traits<unsigned char,std::vector<CPoint,std::allocator<CPoint> >,std::less<unsigned char>,std::allocator<std::pair<unsigned char const ,std::vector<CPoint,std::allocator<CPoint> > > >,0> >
_TEXT	ENDS
PUBLIC	?_Destroy@?$vector@VCPoint@@V?$allocator@VCPoint@@@std@@@std@@IAEXPAVCPoint@@0@Z ; std::vector<CPoint,std::allocator<CPoint> >::_Destroy
; Function compile flags: /Ogty
; File c:\program files\microsoft visual studio .net 2003\vc7\include\vector
;	COMDAT ?_Destroy@?$vector@VCPoint@@V?$allocator@VCPoint@@@std@@@std@@IAEXPAVCPoint@@0@Z
_TEXT	SEGMENT
__First$ = 8						; size = 4
__Last$ = 12						; size = 4
?_Destroy@?$vector@VCPoint@@V?$allocator@VCPoint@@@std@@@std@@IAEXPAVCPoint@@0@Z PROC NEAR ; std::vector<CPoint,std::allocator<CPoint> >::_Destroy, COMDAT
; _this$ = ecx

; 787  : 		_Destroy_range(_First, _Last, this->_Alval);
; 788  : 		}

  00000	c2 08 00	 ret	 8
?_Destroy@?$vector@VCPoint@@V?$allocator@VCPoint@@@std@@@std@@IAEXPAVCPoint@@0@Z ENDP ; std::vector<CPoint,std::allocator<CPoint> >::_Destroy
_TEXT	ENDS
PUBLIC	?_Tidy@?$vector@VCPoint@@V?$allocator@VCPoint@@@std@@@std@@IAEXXZ ; std::vector<CPoint,std::allocator<CPoint> >::_Tidy
; Function compile flags: /Ogty
;	COMDAT ?_Tidy@?$vector@VCPoint@@V?$allocator@VCPoint@@@std@@@std@@IAEXXZ
_TEXT	SEGMENT
?_Tidy@?$vector@VCPoint@@V?$allocator@VCPoint@@@std@@@std@@IAEXXZ PROC NEAR ; std::vector<CPoint,std::allocator<CPoint> >::_Tidy, COMDAT
; _this$ = ecx

; 791  : 		{	// free all storage

  00000	56		 push	 esi
  00001	8b f1		 mov	 esi, ecx

; 792  : 		if (_Myfirst != 0)

  00003	8b 46 04	 mov	 eax, DWORD PTR [esi+4]
  00006	85 c0		 test	 eax, eax
  00008	74 09		 je	 SHORT $L236221

; 793  : 			{	// something to free, destroy and deallocate it
; 794  : 			_Destroy(_Myfirst, _Mylast);
; 795  : 			this->_Alval.deallocate(_Myfirst, _Myend - _Myfirst);

  0000a	50		 push	 eax
  0000b	e8 00 00 00 00	 call	 ??3@YAXPAX@Z		; operator delete
  00010	83 c4 04	 add	 esp, 4
$L236221:

; 796  : 			}
; 797  : 		_Myfirst = 0, _Mylast = 0, _Myend = 0;

  00013	c7 46 04 00 00
	00 00		 mov	 DWORD PTR [esi+4], 0
  0001a	c7 46 08 00 00
	00 00		 mov	 DWORD PTR [esi+8], 0
  00021	c7 46 0c 00 00
	00 00		 mov	 DWORD PTR [esi+12], 0
  00028	5e		 pop	 esi

; 798  : 		}

  00029	c3		 ret	 0
?_Tidy@?$vector@VCPoint@@V?$allocator@VCPoint@@@std@@@std@@IAEXXZ ENDP ; std::vector<CPoint,std::allocator<CPoint> >::_Tidy
_TEXT	ENDS
PUBLIC	?_Ufill@?$vector@VCPoint@@V?$allocator@VCPoint@@@std@@@std@@IAEPAVCPoint@@PAV3@IABV3@@Z ; std::vector<CPoint,std::allocator<CPoint> >::_Ufill
; Function compile flags: /Ogty
;	COMDAT ?_Ufill@?$vector@VCPoint@@V?$allocator@VCPoint@@@std@@@std@@IAEPAVCPoint@@PAV3@IABV3@@Z
_TEXT	SEGMENT
__Ptr$ = 8						; size = 4
__Count$ = 12						; size = 4
__Cat$236237 = 16					; size = 1
__Val$ = 16						; size = 4
?_Ufill@?$vector@VCPoint@@V?$allocator@VCPoint@@@std@@@std@@IAEPAVCPoint@@PAV3@IABV3@@Z PROC NEAR ; std::vector<CPoint,std::allocator<CPoint> >::_Ufill, COMDAT
; _this$ = ecx

; 878  : 		_Uninitialized_fill_n(_Ptr, _Count, _Val, this->_Alval);

  00000	8b 44 24 0c	 mov	 eax, DWORD PTR __Cat$236237[esp-4]
  00004	56		 push	 esi
  00005	8b 74 24 0c	 mov	 esi, DWORD PTR __Count$[esp]
  00009	57		 push	 edi
  0000a	8b 7c 24 0c	 mov	 edi, DWORD PTR __Ptr$[esp+4]
  0000e	50		 push	 eax
  0000f	51		 push	 ecx
  00010	8b 4c 24 1c	 mov	 ecx, DWORD PTR __Val$[esp+12]
  00014	51		 push	 ecx
  00015	56		 push	 esi
  00016	57		 push	 edi
  00017	e8 00 00 00 00	 call	 ??$_Uninit_fill_n@PAVCPoint@@IV1@V?$allocator@VCPoint@@@std@@@std@@YAXPAVCPoint@@IABV1@AAV?$allocator@VCPoint@@@0@U_Nonscalar_ptr_iterator_tag@0@@Z ; std::_Uninit_fill_n<CPoint *,unsigned int,CPoint,std::allocator<CPoint> >
  0001c	83 c4 14	 add	 esp, 20			; 00000014H

; 879  : 		return (_Ptr + _Count);

  0001f	8d 04 f7	 lea	 eax, DWORD PTR [edi+esi*8]
  00022	5f		 pop	 edi
  00023	5e		 pop	 esi

; 880  : 		}

  00024	c2 0c 00	 ret	 12			; 0000000cH
?_Ufill@?$vector@VCPoint@@V?$allocator@VCPoint@@@std@@@std@@IAEPAVCPoint@@PAV3@IABV3@@Z ENDP ; std::vector<CPoint,std::allocator<CPoint> >::_Ufill
_TEXT	ENDS
PUBLIC	??$_Ucopy@Vconst_iterator@?$vector@VCPoint@@V?$allocator@VCPoint@@@std@@@std@@@?$vector@VCPoint@@V?$allocator@VCPoint@@@std@@@std@@IAEPAVCPoint@@Vconst_iterator@01@0PAV2@@Z ; std::vector<CPoint,std::allocator<CPoint> >::_Ucopy<std::vector<CPoint,std::allocator<CPoint> >::const_iterator>
; Function compile flags: /Ogty
;	COMDAT ??$_Ucopy@Vconst_iterator@?$vector@VCPoint@@V?$allocator@VCPoint@@@std@@@std@@@?$vector@VCPoint@@V?$allocator@VCPoint@@@std@@@std@@IAEPAVCPoint@@Vconst_iterator@01@0PAV2@@Z
_TEXT	SEGMENT
__First$ = 8						; size = 4
__Last$ = 12						; size = 4
__Cat$236253 = 16					; size = 1
__Ptr$ = 16						; size = 4
??$_Ucopy@Vconst_iterator@?$vector@VCPoint@@V?$allocator@VCPoint@@@std@@@std@@@?$vector@VCPoint@@V?$allocator@VCPoint@@@std@@@std@@IAEPAVCPoint@@Vconst_iterator@01@0PAV2@@Z PROC NEAR ; std::vector<CPoint,std::allocator<CPoint> >::_Ucopy<std::vector<CPoint,std::allocator<CPoint> >::const_iterator>, COMDAT
; _this$ = ecx

; 802  : 		{	// copy initializing [_First, _Last), using allocator
; 803  : 		return (_Uninitialized_copy(_First, _Last,
; 804  : 			_Ptr, this->_Alval));

  00000	8b 44 24 0c	 mov	 eax, DWORD PTR __Cat$236253[esp-4]
  00004	8b 54 24 08	 mov	 edx, DWORD PTR __Last$[esp-4]
  00008	50		 push	 eax
  00009	8b 44 24 08	 mov	 eax, DWORD PTR __First$[esp]
  0000d	51		 push	 ecx
  0000e	8b 4c 24 14	 mov	 ecx, DWORD PTR __Ptr$[esp+4]
  00012	51		 push	 ecx
  00013	52		 push	 edx
  00014	50		 push	 eax
  00015	e8 00 00 00 00	 call	 ??$_Uninit_copy@Vconst_iterator@?$vector@VCPoint@@V?$allocator@VCPoint@@@std@@@std@@PAVCPoint@@V?$allocator@VCPoint@@@3@@std@@YAPAVCPoint@@Vconst_iterator@?$vector@VCPoint@@V?$allocator@VCPoint@@@std@@@0@0PAV1@AAV?$allocator@VCPoint@@@0@U_Nonscalar_ptr_iterator_tag@0@@Z ; std::_Uninit_copy<std::vector<CPoint,std::allocator<CPoint> >::const_iterator,CPoint *,std::allocator<CPoint> >
  0001a	83 c4 14	 add	 esp, 20			; 00000014H

; 805  : 		}

  0001d	c2 0c 00	 ret	 12			; 0000000cH
??$_Ucopy@Vconst_iterator@?$vector@VCPoint@@V?$allocator@VCPoint@@@std@@@std@@@?$vector@VCPoint@@V?$allocator@VCPoint@@@std@@@std@@IAEPAVCPoint@@Vconst_iterator@01@0PAV2@@Z ENDP ; std::vector<CPoint,std::allocator<CPoint> >::_Ucopy<std::vector<CPoint,std::allocator<CPoint> >::const_iterator>
_TEXT	ENDS
PUBLIC	??1logic_error@std@@UAE@XZ			; std::logic_error::~logic_error
PUBLIC	?what@logic_error@std@@UBEPBDXZ			; std::logic_error::what
PUBLIC	??_7logic_error@std@@6B@			; std::logic_error::`vftable'
PUBLIC	??_Glogic_error@std@@UAEPAXI@Z			; std::logic_error::`scalar deleting destructor'
EXTRN	??1exception@@UAE@XZ:NEAR			; exception::~exception
EXTRN	??_Elogic_error@std@@UAEPAXI@Z:NEAR		; std::logic_error::`vector deleting destructor'
;	COMDAT ??_7logic_error@std@@6B@
; File c:\program files\microsoft visual studio .net 2003\vc7\include\iosfwd
CONST	SEGMENT
??_7logic_error@std@@6B@ DD FLAT:??_Elogic_error@std@@UAEPAXI@Z ; std::logic_error::`vftable'
	DD	FLAT:?what@logic_error@std@@UBEPBDXZ
; Function compile flags: /Ogty
; File c:\program files\microsoft visual studio .net 2003\vc7\include\stdexcept
CONST	ENDS
;	COMDAT ??1logic_error@std@@UAE@XZ
_TEXT	SEGMENT
??1logic_error@std@@UAE@XZ PROC NEAR			; std::logic_error::~logic_error, COMDAT
; _this$ = ecx

; 23   : 		{}	// destroy the object

  00000	56		 push	 esi
  00001	8b f1		 mov	 esi, ecx
  00003	c7 06 00 00 00
	00		 mov	 DWORD PTR [esi], OFFSET FLAT:??_7logic_error@std@@6B@
  00009	83 7e 24 10	 cmp	 DWORD PTR [esi+36], 16	; 00000010H
  0000d	72 0c		 jb	 SHORT $L236319
  0000f	8b 46 10	 mov	 eax, DWORD PTR [esi+16]
  00012	50		 push	 eax
  00013	e8 00 00 00 00	 call	 ??3@YAXPAX@Z		; operator delete
  00018	83 c4 04	 add	 esp, 4
$L236319:
  0001b	33 c0		 xor	 eax, eax
  0001d	c7 46 24 0f 00
	00 00		 mov	 DWORD PTR [esi+36], 15	; 0000000fH
  00024	89 46 20	 mov	 DWORD PTR [esi+32], eax
  00027	88 46 10	 mov	 BYTE PTR [esi+16], al
  0002a	8b ce		 mov	 ecx, esi
  0002c	5e		 pop	 esi
  0002d	e9 00 00 00 00	 jmp	 ??1exception@@UAE@XZ	; exception::~exception
??1logic_error@std@@UAE@XZ ENDP				; std::logic_error::~logic_error
; Function compile flags: /Ogty
_TEXT	ENDS
;	COMDAT ?what@logic_error@std@@UBEPBDXZ
_TEXT	SEGMENT
?what@logic_error@std@@UBEPBDXZ PROC NEAR		; std::logic_error::what, COMDAT
; _this$ = ecx

; 27   : 		return (_Str.c_str());

  00000	83 79 24 10	 cmp	 DWORD PTR [ecx+36], 16	; 00000010H
  00004	72 04		 jb	 SHORT $L236352
  00006	8b 41 10	 mov	 eax, DWORD PTR [ecx+16]

; 28   : 		}

  00009	c3		 ret	 0

; 27   : 		return (_Str.c_str());

$L236352:
  0000a	8d 41 10	 lea	 eax, DWORD PTR [ecx+16]

; 28   : 		}

  0000d	c3		 ret	 0
?what@logic_error@std@@UBEPBDXZ ENDP			; std::logic_error::what
; Function compile flags: /Ogty
_TEXT	ENDS
;	COMDAT ??_Glogic_error@std@@UAEPAXI@Z
_TEXT	SEGMENT
___flags$ = 8						; size = 4
??_Glogic_error@std@@UAEPAXI@Z PROC NEAR		; std::logic_error::`scalar deleting destructor', COMDAT
; _this$ = ecx
  00000	56		 push	 esi
  00001	8b f1		 mov	 esi, ecx
  00003	e8 00 00 00 00	 call	 ??1logic_error@std@@UAE@XZ ; std::logic_error::~logic_error
  00008	f6 44 24 08 01	 test	 BYTE PTR ___flags$[esp], 1
  0000d	74 09		 je	 SHORT $L236359
  0000f	56		 push	 esi
  00010	e8 00 00 00 00	 call	 ??3@YAXPAX@Z		; operator delete
  00015	83 c4 04	 add	 esp, 4
$L236359:
  00018	8b c6		 mov	 eax, esi
  0001a	5e		 pop	 esi
  0001b	c2 04 00	 ret	 4
??_Glogic_error@std@@UAEPAXI@Z ENDP			; std::logic_error::`scalar deleting destructor'
_TEXT	ENDS
PUBLIC	?LoadStringA@?$CStringT@DV?$StrTraitMFC@DV?$ChTraitsCRT@D@ATL@@@@@ATL@@QAEHI@Z ; ATL::CStringT<char,StrTraitMFC<char,ATL::ChTraitsCRT<char> > >::LoadStringA
; Function compile flags: /Ogty
; File c:\program files\microsoft visual studio .net 2003\vc7\atlmfc\include\cstringt.h
;	COMDAT ?LoadStringA@?$CStringT@DV?$StrTraitMFC@DV?$ChTraitsCRT@D@ATL@@@@@ATL@@QAEHI@Z
_TEXT	SEGMENT
_nID$ = 8						; size = 4
?LoadStringA@?$CStringT@DV?$StrTraitMFC@DV?$ChTraitsCRT@D@ATL@@@@@ATL@@QAEHI@Z PROC NEAR ; ATL::CStringT<char,StrTraitMFC<char,ATL::ChTraitsCRT<char> > >::LoadStringA, COMDAT
; _this$ = ecx

; 1969 : 	{

  00000	56		 push	 esi
  00001	57		 push	 edi

; 1970 : 		HINSTANCE hInst = StringTraits::FindStringResourceInstance( nID );

  00002	8b 7c 24 0c	 mov	 edi, DWORD PTR _nID$[esp+4]
  00006	57		 push	 edi
  00007	8b f1		 mov	 esi, ecx
  00009	e8 00 00 00 00	 call	 ?AfxFindStringResourceHandle@@YGPAUHINSTANCE__@@I@Z ; AfxFindStringResourceHandle

; 1971 : 		if( hInst == NULL )

  0000e	85 c0		 test	 eax, eax
  00010	75 05		 jne	 SHORT $L218601
  00012	5f		 pop	 edi
  00013	5e		 pop	 esi

; 1977 : 	}

  00014	c2 04 00	 ret	 4
$L218601:

; 1972 : 		{
; 1973 : 			return( FALSE );
; 1974 : 		}
; 1975 : 
; 1976 : 		return( LoadString( hInst, nID ) );		

  00017	57		 push	 edi
  00018	50		 push	 eax
  00019	8b ce		 mov	 ecx, esi
  0001b	e8 00 00 00 00	 call	 ?LoadStringA@?$CStringT@DV?$StrTraitMFC@DV?$ChTraitsCRT@D@ATL@@@@@ATL@@QAEHPAUHINSTANCE__@@I@Z ; ATL::CStringT<char,StrTraitMFC<char,ATL::ChTraitsCRT<char> > >::LoadStringA
  00020	5f		 pop	 edi
  00021	5e		 pop	 esi

; 1977 : 	}

  00022	c2 04 00	 ret	 4
?LoadStringA@?$CStringT@DV?$StrTraitMFC@DV?$ChTraitsCRT@D@ATL@@@@@ATL@@QAEHI@Z ENDP ; ATL::CStringT<char,StrTraitMFC<char,ATL::ChTraitsCRT<char> > >::LoadStringA
_TEXT	ENDS
PUBLIC	?CheckImplicitLoad@?$CStringT@DV?$StrTraitMFC@DV?$ChTraitsCRT@D@ATL@@@@@ATL@@AAE_NPBX@Z ; ATL::CStringT<char,StrTraitMFC<char,ATL::ChTraitsCRT<char> > >::CheckImplicitLoad
; Function compile flags: /Ogty
;	COMDAT ?CheckImplicitLoad@?$CStringT@DV?$StrTraitMFC@DV?$ChTraitsCRT@D@ATL@@@@@ATL@@AAE_NPBX@Z
_TEXT	SEGMENT
_pv$ = 8						; size = 4
?CheckImplicitLoad@?$CStringT@DV?$StrTraitMFC@DV?$ChTraitsCRT@D@ATL@@@@@ATL@@AAE_NPBX@Z PROC NEAR ; ATL::CStringT<char,StrTraitMFC<char,ATL::ChTraitsCRT<char> > >::CheckImplicitLoad, COMDAT
; _this$ = ecx

; 2229 : 	{

  00000	57		 push	 edi
  00001	8b f9		 mov	 edi, ecx

; 2230 : 		bool bRet = false;
; 2231 : 
; 2232 : 		if( (pv != NULL) && IS_INTRESOURCE( pv ) )

  00003	8b 4c 24 08	 mov	 ecx, DWORD PTR _pv$[esp]
  00007	32 c0		 xor	 al, al
  00009	85 c9		 test	 ecx, ecx
  0000b	74 22		 je	 SHORT $L219935
  0000d	f7 c1 00 00 ff
	ff		 test	 ecx, -65536		; ffff0000H
  00013	75 1a		 jne	 SHORT $L219935
  00015	56		 push	 esi

; 2233 : 		{
; 2234 : 			UINT nID = LOWORD( reinterpret_cast< DWORD_PTR >( pv ) );

  00016	0f b7 f1	 movzx	 esi, cx

; 2235 : 			if( !LoadString( nID ) )

  00019	56		 push	 esi
  0001a	e8 00 00 00 00	 call	 ?AfxFindStringResourceHandle@@YGPAUHINSTANCE__@@I@Z ; AfxFindStringResourceHandle
  0001f	85 c0		 test	 eax, eax
  00021	74 09		 je	 SHORT $L236373
  00023	56		 push	 esi
  00024	50		 push	 eax
  00025	8b cf		 mov	 ecx, edi
  00027	e8 00 00 00 00	 call	 ?LoadStringA@?$CStringT@DV?$StrTraitMFC@DV?$ChTraitsCRT@D@ATL@@@@@ATL@@QAEHPAUHINSTANCE__@@I@Z ; ATL::CStringT<char,StrTraitMFC<char,ATL::ChTraitsCRT<char> > >::LoadStringA
$L236373:

; 2236 : 			{
; 2237 : 				ATLTRACE( atlTraceString, 2, _T( "Warning: implicit LoadString(%u) failed\n" ), nID );
; 2238 : 			}
; 2239 : 			bRet = true;

  0002c	b0 01		 mov	 al, 1
  0002e	5e		 pop	 esi
$L219935:
  0002f	5f		 pop	 edi

; 2240 : 		}
; 2241 : 
; 2242 : 		return( bRet );
; 2243 : 	}

  00030	c2 04 00	 ret	 4
?CheckImplicitLoad@?$CStringT@DV?$StrTraitMFC@DV?$ChTraitsCRT@D@ATL@@@@@ATL@@AAE_NPBX@Z ENDP ; ATL::CStringT<char,StrTraitMFC<char,ATL::ChTraitsCRT<char> > >::CheckImplicitLoad
_TEXT	ENDS
PUBLIC	?assign@?$basic_string@DU?$char_traits@D@std@@V?$allocator@D@2@@std@@QAEAAV12@ABV12@II@Z ; std::basic_string<char,std::char_traits<char>,std::allocator<char> >::assign
; Function compile flags: /Ogty
; File c:\program files\microsoft visual studio .net 2003\vc7\include\xstring
;	COMDAT ?assign@?$basic_string@DU?$char_traits@D@std@@V?$allocator@D@2@@std@@QAEAAV12@ABV12@II@Z
_TEXT	SEGMENT
__Right$ = 8						; size = 4
__Roff$ = 12						; size = 4
__Count$ = 16						; size = 4
?assign@?$basic_string@DU?$char_traits@D@std@@V?$allocator@D@2@@std@@QAEAAV12@ABV12@II@Z PROC NEAR ; std::basic_string<char,std::char_traits<char>,std::allocator<char> >::assign, COMDAT
; _this$ = ecx

; 590  : 		{	// assign _Right [_Roff, _Roff + _Count)

  00000	53		 push	 ebx
  00001	55		 push	 ebp
  00002	56		 push	 esi

; 591  : 		if (_Right.size() < _Roff)

  00003	8b 74 24 14	 mov	 esi, DWORD PTR __Roff$[esp+8]
  00007	57		 push	 edi
  00008	8b 7c 24 14	 mov	 edi, DWORD PTR __Right$[esp+12]
  0000c	39 77 14	 cmp	 DWORD PTR [edi+20], esi
  0000f	8b d9		 mov	 ebx, ecx
  00011	73 05		 jae	 SHORT $L220001

; 592  : 			_String_base::_Xran();	// _Roff off end

  00013	e8 00 00 00 00	 call	 ?_Xran@_String_base@std@@QBEXXZ ; std::_String_base::_Xran
$L220001:

; 593  : 		size_type _Num = _Right.size() - _Roff;

  00018	8b 6f 14	 mov	 ebp, DWORD PTR [edi+20]

; 594  : 		if (_Count < _Num)

  0001b	8b 44 24 1c	 mov	 eax, DWORD PTR __Count$[esp+12]
  0001f	2b ee		 sub	 ebp, esi
  00021	3b c5		 cmp	 eax, ebp
  00023	73 02		 jae	 SHORT $L220003

; 595  : 			_Num = _Count;	// trim _Num to size

  00025	8b e8		 mov	 ebp, eax
$L220003:

; 596  : 
; 597  : 		if (this == &_Right)

  00027	3b df		 cmp	 ebx, edi
  00029	75 1f		 jne	 SHORT $L220004

; 598  : 			erase((size_type)(_Roff + _Num)), erase(0, _Roff);	// substring

  0002b	6a ff		 push	 -1
  0002d	03 ee		 add	 ebp, esi
  0002f	55		 push	 ebp
  00030	8b cb		 mov	 ecx, ebx
  00032	e8 00 00 00 00	 call	 ?erase@?$basic_string@DU?$char_traits@D@std@@V?$allocator@D@2@@std@@QAEAAV12@II@Z ; std::basic_string<char,std::char_traits<char>,std::allocator<char> >::erase
  00037	56		 push	 esi
  00038	6a 00		 push	 0
  0003a	8b cb		 mov	 ecx, ebx
  0003c	e8 00 00 00 00	 call	 ?erase@?$basic_string@DU?$char_traits@D@std@@V?$allocator@D@2@@std@@QAEAAV12@II@Z ; std::basic_string<char,std::char_traits<char>,std::allocator<char> >::erase
  00041	5f		 pop	 edi
  00042	5e		 pop	 esi
  00043	5d		 pop	 ebp

; 603  : 			}
; 604  : 		return (*this);

  00044	8b c3		 mov	 eax, ebx
  00046	5b		 pop	 ebx

; 605  : 		}

  00047	c2 0c 00	 ret	 12			; 0000000cH
$L220004:

; 599  : 		else if (_Grow(_Num))

  0004a	83 fd fe	 cmp	 ebp, -2			; fffffffeH
  0004d	76 07		 jbe	 SHORT $L236490
  0004f	8b cb		 mov	 ecx, ebx
  00051	e8 00 00 00 00	 call	 ?_Xlen@_String_base@std@@QBEXXZ ; std::_String_base::_Xlen
$L236490:
  00056	8b 43 18	 mov	 eax, DWORD PTR [ebx+24]
  00059	3b c5		 cmp	 eax, ebp
  0005b	73 21		 jae	 SHORT $L236491
  0005d	8b 43 14	 mov	 eax, DWORD PTR [ebx+20]
  00060	50		 push	 eax
  00061	55		 push	 ebp
  00062	8b cb		 mov	 ecx, ebx
  00064	e8 00 00 00 00	 call	 ?_Copy@?$basic_string@DU?$char_traits@D@std@@V?$allocator@D@2@@std@@IAEXII@Z ; std::basic_string<char,std::char_traits<char>,std::allocator<char> >::_Copy
  00069	85 ed		 test	 ebp, ebp
$L236578:
  0006b	76 6d		 jbe	 SHORT $L236577

; 600  : 			{	// make room and assign new stuff
; 601  : 			_Traits::copy(_Myptr(), _Right._Myptr() + _Roff, _Num);

  0006d	8b 4f 18	 mov	 ecx, DWORD PTR [edi+24]
  00070	b8 10 00 00 00	 mov	 eax, 16			; 00000010H
  00075	3b c8		 cmp	 ecx, eax
  00077	72 2f		 jb	 SHORT $L236543
  00079	8b 57 04	 mov	 edx, DWORD PTR [edi+4]
  0007c	eb 2d		 jmp	 SHORT $L236544

; 599  : 		else if (_Grow(_Num))

$L236491:
  0007e	85 ed		 test	 ebp, ebp
  00080	75 e9		 jne	 SHORT $L236578
  00082	83 f8 10	 cmp	 eax, 16			; 00000010H
  00085	89 6b 14	 mov	 DWORD PTR [ebx+20], ebp
  00088	72 0f		 jb	 SHORT $L236534
  0008a	8b 43 04	 mov	 eax, DWORD PTR [ebx+4]
  0008d	5f		 pop	 edi
  0008e	5e		 pop	 esi
  0008f	c6 00 00	 mov	 BYTE PTR [eax], 0
  00092	5d		 pop	 ebp

; 603  : 			}
; 604  : 		return (*this);

  00093	8b c3		 mov	 eax, ebx
  00095	5b		 pop	 ebx

; 605  : 		}

  00096	c2 0c 00	 ret	 12			; 0000000cH

; 599  : 		else if (_Grow(_Num))

$L236534:
  00099	5f		 pop	 edi
  0009a	8d 43 04	 lea	 eax, DWORD PTR [ebx+4]
  0009d	5e		 pop	 esi
  0009e	c6 00 00	 mov	 BYTE PTR [eax], 0
  000a1	5d		 pop	 ebp

; 603  : 			}
; 604  : 		return (*this);

  000a2	8b c3		 mov	 eax, ebx
  000a4	5b		 pop	 ebx

; 605  : 		}

  000a5	c2 0c 00	 ret	 12			; 0000000cH

; 600  : 			{	// make room and assign new stuff
; 601  : 			_Traits::copy(_Myptr(), _Right._Myptr() + _Roff, _Num);

$L236543:
  000a8	8d 57 04	 lea	 edx, DWORD PTR [edi+4]
$L236544:
  000ab	39 43 18	 cmp	 DWORD PTR [ebx+24], eax
  000ae	8d 43 04	 lea	 eax, DWORD PTR [ebx+4]
  000b1	72 04		 jb	 SHORT $L236549
  000b3	8b 38		 mov	 edi, DWORD PTR [eax]
  000b5	eb 02		 jmp	 SHORT $L236550
$L236549:
  000b7	8b f8		 mov	 edi, eax
$L236550:
  000b9	03 f2		 add	 esi, edx
  000bb	8b cd		 mov	 ecx, ebp
  000bd	8b d1		 mov	 edx, ecx
  000bf	c1 e9 02	 shr	 ecx, 2
  000c2	f3 a5		 rep movsd
  000c4	8b ca		 mov	 ecx, edx
  000c6	83 e1 03	 and	 ecx, 3
  000c9	f3 a4		 rep movsb

; 602  : 			_Eos(_Num);

  000cb	83 7b 18 10	 cmp	 DWORD PTR [ebx+24], 16	; 00000010H
  000cf	89 6b 14	 mov	 DWORD PTR [ebx+20], ebp
  000d2	72 02		 jb	 SHORT $L236572
  000d4	8b 00		 mov	 eax, DWORD PTR [eax]
$L236572:
  000d6	c6 04 28 00	 mov	 BYTE PTR [eax+ebp], 0
$L236577:
  000da	5f		 pop	 edi
  000db	5e		 pop	 esi
  000dc	5d		 pop	 ebp

; 603  : 			}
; 604  : 		return (*this);

  000dd	8b c3		 mov	 eax, ebx
  000df	5b		 pop	 ebx

; 605  : 		}

  000e0	c2 0c 00	 ret	 12			; 0000000cH
?assign@?$basic_string@DU?$char_traits@D@std@@V?$allocator@D@2@@std@@QAEAAV12@ABV12@II@Z ENDP ; std::basic_string<char,std::char_traits<char>,std::allocator<char> >::assign
_TEXT	ENDS
PUBLIC	?SetString@?$CSimpleStringT@D$0A@@ATL@@QAEXPBD@Z ; ATL::CSimpleStringT<char,0>::SetString
; Function compile flags: /Ogty
; File c:\program files\microsoft visual studio .net 2003\vc7\atlmfc\include\atlsimpstr.h
;	COMDAT ?SetString@?$CSimpleStringT@D$0A@@ATL@@QAEXPBD@Z
_TEXT	SEGMENT
_pszSrc$ = 8						; size = 4
?SetString@?$CSimpleStringT@D$0A@@ATL@@QAEXPBD@Z PROC NEAR ; ATL::CSimpleStringT<char,0>::SetString, COMDAT
; _this$ = ecx

; 579  : 	{

  00000	56		 push	 esi

; 580  : 		SetString( pszSrc, StringLength( pszSrc ) );

  00001	8b 74 24 08	 mov	 esi, DWORD PTR _pszSrc$[esp]
  00005	85 f6		 test	 esi, esi
  00007	75 0d		 jne	 SHORT $L236585
  00009	33 c0		 xor	 eax, eax
  0000b	50		 push	 eax
  0000c	56		 push	 esi
  0000d	e8 00 00 00 00	 call	 ?SetString@?$CSimpleStringT@D$0A@@ATL@@QAEXPBDH@Z ; ATL::CSimpleStringT<char,0>::SetString
  00012	5e		 pop	 esi

; 581  : 	}

  00013	c2 04 00	 ret	 4

; 580  : 		SetString( pszSrc, StringLength( pszSrc ) );

$L236585:
  00016	8b c6		 mov	 eax, esi
  00018	57		 push	 edi
  00019	8d 78 01	 lea	 edi, DWORD PTR [eax+1]
  0001c	8d 64 24 00	 npad	 4
$L236587:
  00020	8a 10		 mov	 dl, BYTE PTR [eax]
  00022	40		 inc	 eax
  00023	84 d2		 test	 dl, dl
  00025	75 f9		 jne	 SHORT $L236587
  00027	2b c7		 sub	 eax, edi
  00029	5f		 pop	 edi
  0002a	50		 push	 eax
  0002b	56		 push	 esi
  0002c	e8 00 00 00 00	 call	 ?SetString@?$CSimpleStringT@D$0A@@ATL@@QAEXPBDH@Z ; ATL::CSimpleStringT<char,0>::SetString
  00031	5e		 pop	 esi

; 581  : 	}

  00032	c2 04 00	 ret	 4
?SetString@?$CSimpleStringT@D$0A@@ATL@@QAEXPBD@Z ENDP	; ATL::CSimpleStringT<char,0>::SetString
_TEXT	ENDS
PUBLIC	?assign@?$basic_string@DU?$char_traits@D@std@@V?$allocator@D@2@@std@@QAEAAV12@PBDI@Z ; std::basic_string<char,std::char_traits<char>,std::allocator<char> >::assign
; Function compile flags: /Ogty
; File c:\program files\microsoft visual studio .net 2003\vc7\include\xstring
;	COMDAT ?assign@?$basic_string@DU?$char_traits@D@std@@V?$allocator@D@2@@std@@QAEAAV12@PBDI@Z
_TEXT	SEGMENT
__Ptr$ = 8						; size = 4
__Num$ = 12						; size = 4
?assign@?$basic_string@DU?$char_traits@D@std@@V?$allocator@D@2@@std@@QAEAAV12@PBDI@Z PROC NEAR ; std::basic_string<char,std::char_traits<char>,std::allocator<char> >::assign, COMDAT
; _this$ = ecx

; 608  : 		{	// assign [_Ptr, _Ptr + _Num)

  00000	53		 push	 ebx
  00001	8b d9		 mov	 ebx, ecx

; 609  : 		if (_Inside(_Ptr))

  00003	8b 53 18	 mov	 edx, DWORD PTR [ebx+24]
  00006	83 fa 10	 cmp	 edx, 16			; 00000010H
  00009	56		 push	 esi
  0000a	57		 push	 edi
  0000b	72 05		 jb	 SHORT $L236608
  0000d	8b 43 04	 mov	 eax, DWORD PTR [ebx+4]
  00010	eb 03		 jmp	 SHORT $L236609
$L236608:
  00012	8d 43 04	 lea	 eax, DWORD PTR [ebx+4]
$L236609:
  00015	8b 74 24 10	 mov	 esi, DWORD PTR __Ptr$[esp+8]
  00019	3b f0		 cmp	 esi, eax
  0001b	72 34		 jb	 SHORT $L221367
  0001d	83 fa 10	 cmp	 edx, 16			; 00000010H
  00020	8d 43 04	 lea	 eax, DWORD PTR [ebx+4]
  00023	72 04		 jb	 SHORT $L236612
  00025	8b 08		 mov	 ecx, DWORD PTR [eax]
  00027	eb 02		 jmp	 SHORT $L236613
$L236612:
  00029	8b c8		 mov	 ecx, eax
$L236613:
  0002b	8b 7b 14	 mov	 edi, DWORD PTR [ebx+20]
  0002e	03 f9		 add	 edi, ecx
  00030	3b fe		 cmp	 edi, esi
  00032	76 1d		 jbe	 SHORT $L221367

; 610  : 			return (assign(*this, _Ptr - _Myptr(), _Num));	// substring

  00034	83 fa 10	 cmp	 edx, 16			; 00000010H
  00037	72 02		 jb	 SHORT $L236625
  00039	8b 00		 mov	 eax, DWORD PTR [eax]
$L236625:
  0003b	8b 4c 24 14	 mov	 ecx, DWORD PTR __Num$[esp+8]
  0003f	51		 push	 ecx
  00040	2b f0		 sub	 esi, eax
  00042	56		 push	 esi
  00043	53		 push	 ebx
  00044	8b cb		 mov	 ecx, ebx
  00046	e8 00 00 00 00	 call	 ?assign@?$basic_string@DU?$char_traits@D@std@@V?$allocator@D@2@@std@@QAEAAV12@ABV12@II@Z ; std::basic_string<char,std::char_traits<char>,std::allocator<char> >::assign
  0004b	5f		 pop	 edi
  0004c	5e		 pop	 esi
  0004d	5b		 pop	 ebx

; 618  : 		}

  0004e	c2 08 00	 ret	 8
$L221367:
  00051	55		 push	 ebp

; 611  : 
; 612  : 		if (_Grow(_Num))

  00052	8b 6c 24 18	 mov	 ebp, DWORD PTR __Num$[esp+12]
  00056	83 fd fe	 cmp	 ebp, -2			; fffffffeH
  00059	76 07		 jbe	 SHORT $L236766
  0005b	8b cb		 mov	 ecx, ebx
  0005d	e8 00 00 00 00	 call	 ?_Xlen@_String_base@std@@QBEXXZ ; std::_String_base::_Xlen
$L236766:
  00062	8b 43 18	 mov	 eax, DWORD PTR [ebx+24]
  00065	3b c5		 cmp	 eax, ebp
  00067	73 1b		 jae	 SHORT $L236767
  00069	8b 53 14	 mov	 edx, DWORD PTR [ebx+20]
  0006c	52		 push	 edx
  0006d	55		 push	 ebp
  0006e	8b cb		 mov	 ecx, ebx
  00070	e8 00 00 00 00	 call	 ?_Copy@?$basic_string@DU?$char_traits@D@std@@V?$allocator@D@2@@std@@IAEXII@Z ; std::basic_string<char,std::char_traits<char>,std::allocator<char> >::_Copy
  00075	85 ed		 test	 ebp, ebp
$L236805:
  00077	76 68		 jbe	 SHORT $L236802

; 613  : 			{	// make room and assign new stuff
; 614  : 			_Traits::copy(_Myptr(), _Ptr, _Num);

  00079	83 7b 18 10	 cmp	 DWORD PTR [ebx+24], 16	; 00000010H
  0007d	72 2f		 jb	 SHORT $L236777
  0007f	8b 7b 04	 mov	 edi, DWORD PTR [ebx+4]
  00082	eb 2d		 jmp	 SHORT $L236778

; 611  : 
; 612  : 		if (_Grow(_Num))

$L236767:
  00084	85 ed		 test	 ebp, ebp
  00086	75 ef		 jne	 SHORT $L236805
  00088	83 f8 10	 cmp	 eax, 16			; 00000010H
  0008b	89 6b 14	 mov	 DWORD PTR [ebx+20], ebp
  0008e	72 0f		 jb	 SHORT $L236759
  00090	8b 43 04	 mov	 eax, DWORD PTR [ebx+4]
  00093	5d		 pop	 ebp
  00094	5f		 pop	 edi
  00095	c6 00 00	 mov	 BYTE PTR [eax], 0
  00098	5e		 pop	 esi

; 616  : 			}
; 617  : 		return (*this);

  00099	8b c3		 mov	 eax, ebx
  0009b	5b		 pop	 ebx

; 618  : 		}

  0009c	c2 08 00	 ret	 8

; 611  : 
; 612  : 		if (_Grow(_Num))

$L236759:
  0009f	5d		 pop	 ebp
  000a0	8d 43 04	 lea	 eax, DWORD PTR [ebx+4]
  000a3	5f		 pop	 edi
  000a4	c6 00 00	 mov	 BYTE PTR [eax], 0
  000a7	5e		 pop	 esi

; 616  : 			}
; 617  : 		return (*this);

  000a8	8b c3		 mov	 eax, ebx
  000aa	5b		 pop	 ebx

; 618  : 		}

  000ab	c2 08 00	 ret	 8

; 613  : 			{	// make room and assign new stuff
; 614  : 			_Traits::copy(_Myptr(), _Ptr, _Num);

$L236777:
  000ae	8d 7b 04	 lea	 edi, DWORD PTR [ebx+4]
$L236778:
  000b1	8b cd		 mov	 ecx, ebp
  000b3	8b c1		 mov	 eax, ecx
  000b5	c1 e9 02	 shr	 ecx, 2
  000b8	f3 a5		 rep movsd
  000ba	8b c8		 mov	 ecx, eax
  000bc	83 e1 03	 and	 ecx, 3
  000bf	f3 a4		 rep movsb

; 615  : 			_Eos(_Num);

  000c1	83 7b 18 10	 cmp	 DWORD PTR [ebx+24], 16	; 00000010H
  000c5	89 6b 14	 mov	 DWORD PTR [ebx+20], ebp
  000c8	72 10		 jb	 SHORT $L236800
  000ca	8b 43 04	 mov	 eax, DWORD PTR [ebx+4]
  000cd	c6 04 28 00	 mov	 BYTE PTR [eax+ebp], 0
  000d1	5d		 pop	 ebp
  000d2	5f		 pop	 edi
  000d3	5e		 pop	 esi

; 616  : 			}
; 617  : 		return (*this);

  000d4	8b c3		 mov	 eax, ebx
  000d6	5b		 pop	 ebx

; 618  : 		}

  000d7	c2 08 00	 ret	 8

; 615  : 			_Eos(_Num);

$L236800:
  000da	8d 43 04	 lea	 eax, DWORD PTR [ebx+4]
  000dd	c6 04 28 00	 mov	 BYTE PTR [eax+ebp], 0
$L236802:
  000e1	5d		 pop	 ebp
  000e2	5f		 pop	 edi
  000e3	5e		 pop	 esi

; 616  : 			}
; 617  : 		return (*this);

  000e4	8b c3		 mov	 eax, ebx
  000e6	5b		 pop	 ebx

; 618  : 		}

  000e7	c2 08 00	 ret	 8
?assign@?$basic_string@DU?$char_traits@D@std@@V?$allocator@D@2@@std@@QAEAAV12@PBDI@Z ENDP ; std::basic_string<char,std::char_traits<char>,std::allocator<char> >::assign
_TEXT	ENDS
PUBLIC	??HATL@@YA?AV?$CStringT@DV?$StrTraitMFC@DV?$ChTraitsCRT@D@ATL@@@@@0@ABV10@0@Z ; ATL::operator+
;	COMDAT xdata$x
; File c:\program files\microsoft visual studio .net 2003\vc7\atlmfc\include\atlsimpstr.h
xdata$x	SEGMENT
$T236941 DD	0ffffffffH
	DD	FLAT:$L236809
$T236938 DD	019930520H
	DD	01H
	DD	FLAT:$T236941
	DD	2 DUP(00H)
	DD	2 DUP(00H)
; Function compile flags: /Ogty
; File c:\program files\microsoft visual studio .net 2003\vc7\atlmfc\include\cstringt.h
xdata$x	ENDS
;	COMDAT ??HATL@@YA?AV?$CStringT@DV?$StrTraitMFC@DV?$ChTraitsCRT@D@ATL@@@@@0@ABV10@0@Z
_TEXT	SEGMENT
$T236811 = -16						; size = 4
__$EHRec$ = -12						; size = 12
___$ReturnUdt$ = 8					; size = 4
_strResult$ = 12					; size = 4
_str1$ = 12						; size = 4
_str2$ = 16						; size = 4
??HATL@@YA?AV?$CStringT@DV?$StrTraitMFC@DV?$ChTraitsCRT@D@ATL@@@@@0@ABV10@0@Z PROC NEAR ; ATL::operator+, COMDAT

; 2014 : 	{

  00000	6a ff		 push	 -1
  00002	68 00 00 00 00	 push	 __ehhandler$??HATL@@YA?AV?$CStringT@DV?$StrTraitMFC@DV?$ChTraitsCRT@D@ATL@@@@@0@ABV10@0@Z
  00007	64 a1 00 00 00
	00		 mov	 eax, DWORD PTR fs:__except_list
  0000d	50		 push	 eax
  0000e	64 89 25 00 00
	00 00		 mov	 DWORD PTR fs:__except_list, esp
  00015	51		 push	 ecx
  00016	56		 push	 esi

; 2015 : 		CStringT strResult( str1.GetManager() );

  00017	8b 74 24 1c	 mov	 esi, DWORD PTR _str1$[esp+16]
  0001b	8b 06		 mov	 eax, DWORD PTR [esi]
  0001d	8b 48 f0	 mov	 ecx, DWORD PTR [eax-16]
  00020	8b 11		 mov	 edx, DWORD PTR [ecx]
  00022	57		 push	 edi
  00023	33 ff		 xor	 edi, edi
  00025	89 7c 24 08	 mov	 DWORD PTR $T236811[esp+24], edi
  00029	ff 52 10	 call	 DWORD PTR [edx+16]
  0002c	8b 10		 mov	 edx, DWORD PTR [eax]
  0002e	8b c8		 mov	 ecx, eax
  00030	ff 52 0c	 call	 DWORD PTR [edx+12]
  00033	83 c0 10	 add	 eax, 16			; 00000010H
  00036	89 44 24 20	 mov	 DWORD PTR _strResult$[esp+20], eax

; 2016 : 
; 2017 : 		Concatenate( strResult, str1, str1.GetLength(), str2, str2.GetLength() );

  0003a	8b 44 24 24	 mov	 eax, DWORD PTR _str2$[esp+20]
  0003e	8b 00		 mov	 eax, DWORD PTR [eax]
  00040	8b 50 f4	 mov	 edx, DWORD PTR [eax-12]
  00043	8b 0e		 mov	 ecx, DWORD PTR [esi]
  00045	8b 71 f4	 mov	 esi, DWORD PTR [ecx-12]
  00048	52		 push	 edx
  00049	50		 push	 eax
  0004a	56		 push	 esi
  0004b	51		 push	 ecx
  0004c	8d 4c 24 30	 lea	 ecx, DWORD PTR _strResult$[esp+36]
  00050	51		 push	 ecx
  00051	89 7c 24 28	 mov	 DWORD PTR __$EHRec$[esp+52], edi
  00055	e8 00 00 00 00	 call	 ?Concatenate@?$CSimpleStringT@D$0A@@ATL@@KAXAAV12@PBDH1H@Z ; ATL::CSimpleStringT<char,0>::Concatenate

; 2018 : 
; 2019 : 		return( strResult );

  0005a	8b 74 24 34	 mov	 esi, DWORD PTR _strResult$[esp+40]
  0005e	83 c6 f0	 add	 esi, -16		; fffffff0H
  00061	56		 push	 esi
  00062	e8 00 00 00 00	 call	 ?CloneData@?$CSimpleStringT@D$0A@@ATL@@CAPAUCStringData@2@PAU32@@Z ; ATL::CSimpleStringT<char,0>::CloneData
  00067	8b 7c 24 34	 mov	 edi, DWORD PTR ___$ReturnUdt$[esp+44]
  0006b	83 c0 10	 add	 eax, 16			; 00000010H
  0006e	89 07		 mov	 DWORD PTR [edi], eax
  00070	83 c4 18	 add	 esp, 24			; 00000018H
  00073	c7 44 24 14 ff
	ff ff ff	 mov	 DWORD PTR __$EHRec$[esp+32], -1
  0007b	8d 56 0c	 lea	 edx, DWORD PTR [esi+12]
  0007e	83 c8 ff	 or	 eax, -1
  00081	f0 0f c1 02	 lock	  xadd	 DWORD PTR [edx], eax
  00085	48		 dec	 eax
  00086	85 c0		 test	 eax, eax
  00088	7f 08		 jg	 SHORT $L236939
  0008a	8b 0e		 mov	 ecx, DWORD PTR [esi]
  0008c	8b 11		 mov	 edx, DWORD PTR [ecx]
  0008e	56		 push	 esi
  0008f	ff 52 04	 call	 DWORD PTR [edx+4]
$L236939:

; 2020 : 	}

  00092	8b 4c 24 0c	 mov	 ecx, DWORD PTR __$EHRec$[esp+24]
  00096	8b c7		 mov	 eax, edi
  00098	5f		 pop	 edi
  00099	5e		 pop	 esi
  0009a	64 89 0d 00 00
	00 00		 mov	 DWORD PTR fs:__except_list, ecx
  000a1	83 c4 10	 add	 esp, 16			; 00000010H
  000a4	c3		 ret	 0
_TEXT	ENDS
;	COMDAT text$x
text$x	SEGMENT
$L236809:
  00000	8d 4d 08	 lea	 ecx, DWORD PTR _strResult$[ebp-4]
  00003	e9 00 00 00 00	 jmp	 ??1?$CStringT@DV?$StrTraitMFC@DV?$ChTraitsCRT@D@ATL@@@@@ATL@@QAE@XZ ; ATL::CStringT<char,StrTraitMFC<char,ATL::ChTraitsCRT<char> > >::~CStringT<char,StrTraitMFC<char,ATL::ChTraitsCRT<char> > >
__ehhandler$??HATL@@YA?AV?$CStringT@DV?$StrTraitMFC@DV?$ChTraitsCRT@D@ATL@@@@@0@ABV10@0@Z:
  00008	b8 00 00 00 00	 mov	 eax, OFFSET FLAT:$T236938
  0000d	e9 00 00 00 00	 jmp	 ___CxxFrameHandler
text$x	ENDS
??HATL@@YA?AV?$CStringT@DV?$StrTraitMFC@DV?$ChTraitsCRT@D@ATL@@@@@0@ABV10@0@Z ENDP ; ATL::operator+
PUBLIC	??1?$vector@VCPoint@@V?$allocator@VCPoint@@@std@@@std@@QAE@XZ ; std::vector<CPoint,std::allocator<CPoint> >::~vector<CPoint,std::allocator<CPoint> >
; Function compile flags: /Ogty
; File c:\program files\microsoft visual studio .net 2003\vc7\include\vector
;	COMDAT ??1?$vector@VCPoint@@V?$allocator@VCPoint@@@std@@@std@@QAE@XZ
_TEXT	SEGMENT
??1?$vector@VCPoint@@V?$allocator@VCPoint@@@std@@@std@@QAE@XZ PROC NEAR ; std::vector<CPoint,std::allocator<CPoint> >::~vector<CPoint,std::allocator<CPoint> >, COMDAT
; _this$ = ecx

; 387  : 		{	// destroy the object

  00000	56		 push	 esi
  00001	8b f1		 mov	 esi, ecx

; 388  : 		_Tidy();

  00003	8b 46 04	 mov	 eax, DWORD PTR [esi+4]
  00006	85 c0		 test	 eax, eax
  00008	74 09		 je	 SHORT $L236956
  0000a	50		 push	 eax
  0000b	e8 00 00 00 00	 call	 ??3@YAXPAX@Z		; operator delete
  00010	83 c4 04	 add	 esp, 4
$L236956:
  00013	c7 46 04 00 00
	00 00		 mov	 DWORD PTR [esi+4], 0
  0001a	c7 46 08 00 00
	00 00		 mov	 DWORD PTR [esi+8], 0
  00021	c7 46 0c 00 00
	00 00		 mov	 DWORD PTR [esi+12], 0
  00028	5e		 pop	 esi

; 389  : 		}

  00029	c3		 ret	 0
??1?$vector@VCPoint@@V?$allocator@VCPoint@@@std@@@std@@QAE@XZ ENDP ; std::vector<CPoint,std::allocator<CPoint> >::~vector<CPoint,std::allocator<CPoint> >
_TEXT	ENDS
PUBLIC	?clear@?$vector@VCPoint@@V?$allocator@VCPoint@@@std@@@std@@QAEXXZ ; std::vector<CPoint,std::allocator<CPoint> >::clear
; Function compile flags: /Ogty
;	COMDAT ?clear@?$vector@VCPoint@@V?$allocator@VCPoint@@@std@@@std@@QAEXXZ
_TEXT	SEGMENT
?clear@?$vector@VCPoint@@V?$allocator@VCPoint@@@std@@@std@@QAEXXZ PROC NEAR ; std::vector<CPoint,std::allocator<CPoint> >::clear, COMDAT
; _this$ = ecx

; 743  : 		{	// erase all

  00000	56		 push	 esi
  00001	8b f1		 mov	 esi, ecx

; 744  : 		_Tidy();

  00003	8b 46 04	 mov	 eax, DWORD PTR [esi+4]
  00006	85 c0		 test	 eax, eax
  00008	74 09		 je	 SHORT $L236970
  0000a	50		 push	 eax
  0000b	e8 00 00 00 00	 call	 ??3@YAXPAX@Z		; operator delete
  00010	83 c4 04	 add	 esp, 4
$L236970:
  00013	c7 46 04 00 00
	00 00		 mov	 DWORD PTR [esi+4], 0
  0001a	c7 46 08 00 00
	00 00		 mov	 DWORD PTR [esi+8], 0
  00021	c7 46 0c 00 00
	00 00		 mov	 DWORD PTR [esi+12], 0
  00028	5e		 pop	 esi

; 745  : 		}

  00029	c3		 ret	 0
?clear@?$vector@VCPoint@@V?$allocator@VCPoint@@@std@@@std@@QAEXXZ ENDP ; std::vector<CPoint,std::allocator<CPoint> >::clear
_TEXT	ENDS
PUBLIC	??0?$basic_string@DU?$char_traits@D@std@@V?$allocator@D@2@@std@@QAE@ABV01@@Z ; std::basic_string<char,std::char_traits<char>,std::allocator<char> >::basic_string<char,std::char_traits<char>,std::allocator<char> >
; Function compile flags: /Ogty
; File c:\program files\microsoft visual studio .net 2003\vc7\include\xstring
;	COMDAT ??0?$basic_string@DU?$char_traits@D@std@@V?$allocator@D@2@@std@@QAE@ABV01@@Z
_TEXT	SEGMENT
__Right$ = 8						; size = 4
??0?$basic_string@DU?$char_traits@D@std@@V?$allocator@D@2@@std@@QAE@ABV01@@Z PROC NEAR ; std::basic_string<char,std::char_traits<char>,std::allocator<char> >::basic_string<char,std::char_traits<char>,std::allocator<char> >, COMDAT
; _this$ = ecx

; 323  : 		{	// construct by copying _Right

  00000	56		 push	 esi

; 324  : 		_Tidy();

  00001	33 c0		 xor	 eax, eax
  00003	8b f1		 mov	 esi, ecx

; 325  : 		assign(_Right, 0, npos);

  00005	6a ff		 push	 -1
  00007	89 46 14	 mov	 DWORD PTR [esi+20], eax
  0000a	c7 46 18 0f 00
	00 00		 mov	 DWORD PTR [esi+24], 15	; 0000000fH
  00011	50		 push	 eax
  00012	88 46 04	 mov	 BYTE PTR [esi+4], al
  00015	8b 44 24 10	 mov	 eax, DWORD PTR __Right$[esp+8]
  00019	50		 push	 eax
  0001a	e8 00 00 00 00	 call	 ?assign@?$basic_string@DU?$char_traits@D@std@@V?$allocator@D@2@@std@@QAEAAV12@ABV12@II@Z ; std::basic_string<char,std::char_traits<char>,std::allocator<char> >::assign

; 326  : 		}

  0001f	8b c6		 mov	 eax, esi
  00021	5e		 pop	 esi
  00022	c2 04 00	 ret	 4
??0?$basic_string@DU?$char_traits@D@std@@V?$allocator@D@2@@std@@QAE@ABV01@@Z ENDP ; std::basic_string<char,std::char_traits<char>,std::allocator<char> >::basic_string<char,std::char_traits<char>,std::allocator<char> >
_TEXT	ENDS
PUBLIC	??4?$CSimpleStringT@D$0A@@ATL@@QAEAAV01@PBD@Z	; ATL::CSimpleStringT<char,0>::operator=
; Function compile flags: /Ogty
; File c:\program files\microsoft visual studio .net 2003\vc7\atlmfc\include\atlsimpstr.h
;	COMDAT ??4?$CSimpleStringT@D$0A@@ATL@@QAEAAV01@PBD@Z
_TEXT	SEGMENT
_pszSrc$ = 8						; size = 4
??4?$CSimpleStringT@D$0A@@ATL@@QAEAAV01@PBD@Z PROC NEAR	; ATL::CSimpleStringT<char,0>::operator=, COMDAT
; _this$ = ecx

; 316  : 		SetString( pszSrc );

  00000	8b 54 24 04	 mov	 edx, DWORD PTR _pszSrc$[esp-4]
  00004	85 d2		 test	 edx, edx
  00006	57		 push	 edi
  00007	8b f9		 mov	 edi, ecx
  00009	75 0f		 jne	 SHORT $L237052
  0000b	33 c0		 xor	 eax, eax
  0000d	50		 push	 eax
  0000e	52		 push	 edx
  0000f	e8 00 00 00 00	 call	 ?SetString@?$CSimpleStringT@D$0A@@ATL@@QAEXPBDH@Z ; ATL::CSimpleStringT<char,0>::SetString

; 317  : 
; 318  : 		return( *this );

  00014	8b c7		 mov	 eax, edi
  00016	5f		 pop	 edi

; 319  : 	}

  00017	c2 04 00	 ret	 4

; 316  : 		SetString( pszSrc );

$L237052:
  0001a	8b c2		 mov	 eax, edx
  0001c	56		 push	 esi
  0001d	8d 70 01	 lea	 esi, DWORD PTR [eax+1]
$L237053:
  00020	8a 08		 mov	 cl, BYTE PTR [eax]
  00022	40		 inc	 eax
  00023	84 c9		 test	 cl, cl
  00025	75 f9		 jne	 SHORT $L237053
  00027	2b c6		 sub	 eax, esi
  00029	5e		 pop	 esi
  0002a	50		 push	 eax
  0002b	52		 push	 edx
  0002c	8b cf		 mov	 ecx, edi
  0002e	e8 00 00 00 00	 call	 ?SetString@?$CSimpleStringT@D$0A@@ATL@@QAEXPBDH@Z ; ATL::CSimpleStringT<char,0>::SetString

; 317  : 
; 318  : 		return( *this );

  00033	8b c7		 mov	 eax, edi
  00035	5f		 pop	 edi

; 319  : 	}

  00036	c2 04 00	 ret	 4
??4?$CSimpleStringT@D$0A@@ATL@@QAEAAV01@PBD@Z ENDP	; ATL::CSimpleStringT<char,0>::operator=
_TEXT	ENDS
PUBLIC	?assign@?$basic_string@DU?$char_traits@D@std@@V?$allocator@D@2@@std@@QAEAAV12@PBD@Z ; std::basic_string<char,std::char_traits<char>,std::allocator<char> >::assign
; Function compile flags: /Ogty
; File c:\program files\microsoft visual studio .net 2003\vc7\include\xstring
;	COMDAT ?assign@?$basic_string@DU?$char_traits@D@std@@V?$allocator@D@2@@std@@QAEAAV12@PBD@Z
_TEXT	SEGMENT
__Ptr$ = 8						; size = 4
?assign@?$basic_string@DU?$char_traits@D@std@@V?$allocator@D@2@@std@@QAEAAV12@PBD@Z PROC NEAR ; std::basic_string<char,std::char_traits<char>,std::allocator<char> >::assign, COMDAT
; _this$ = ecx

; 621  : 		{	// assign [_Ptr, <null>)

  00000	56		 push	 esi

; 622  : 		return (assign(_Ptr, _Traits::length(_Ptr)));

  00001	8b 74 24 08	 mov	 esi, DWORD PTR __Ptr$[esp]
  00005	8b c6		 mov	 eax, esi
  00007	57		 push	 edi
  00008	8d 78 01	 lea	 edi, DWORD PTR [eax+1]
  0000b	eb 03 8d 49 00	 npad	 5
$L237060:
  00010	8a 10		 mov	 dl, BYTE PTR [eax]
  00012	40		 inc	 eax
  00013	84 d2		 test	 dl, dl
  00015	75 f9		 jne	 SHORT $L237060
  00017	2b c7		 sub	 eax, edi
  00019	50		 push	 eax
  0001a	56		 push	 esi
  0001b	e8 00 00 00 00	 call	 ?assign@?$basic_string@DU?$char_traits@D@std@@V?$allocator@D@2@@std@@QAEAAV12@PBDI@Z ; std::basic_string<char,std::char_traits<char>,std::allocator<char> >::assign
  00020	5f		 pop	 edi
  00021	5e		 pop	 esi

; 623  : 		}

  00022	c2 04 00	 ret	 4
?assign@?$basic_string@DU?$char_traits@D@std@@V?$allocator@D@2@@std@@QAEAAV12@PBD@Z ENDP ; std::basic_string<char,std::char_traits<char>,std::allocator<char> >::assign
_TEXT	ENDS
PUBLIC	??1?$pair@HV?$vector@VCPoint@@V?$allocator@VCPoint@@@std@@@std@@@std@@QAE@XZ ; std::pair<int,std::vector<CPoint,std::allocator<CPoint> > >::~pair<int,std::vector<CPoint,std::allocator<CPoint> > >
; Function compile flags: /Ogty
;	COMDAT ??1?$pair@HV?$vector@VCPoint@@V?$allocator@VCPoint@@@std@@@std@@@std@@QAE@XZ
_TEXT	SEGMENT
??1?$pair@HV?$vector@VCPoint@@V?$allocator@VCPoint@@@std@@@std@@@std@@QAE@XZ PROC NEAR ; std::pair<int,std::vector<CPoint,std::allocator<CPoint> > >::~pair<int,std::vector<CPoint,std::allocator<CPoint> > >, COMDAT
; _this$ = ecx
  00000	56		 push	 esi
  00001	8b f1		 mov	 esi, ecx
  00003	8b 46 08	 mov	 eax, DWORD PTR [esi+8]
  00006	85 c0		 test	 eax, eax
  00008	74 09		 je	 SHORT $L237081
  0000a	50		 push	 eax
  0000b	e8 00 00 00 00	 call	 ??3@YAXPAX@Z		; operator delete
  00010	83 c4 04	 add	 esp, 4
$L237081:
  00013	c7 46 08 00 00
	00 00		 mov	 DWORD PTR [esi+8], 0
  0001a	c7 46 0c 00 00
	00 00		 mov	 DWORD PTR [esi+12], 0
  00021	c7 46 10 00 00
	00 00		 mov	 DWORD PTR [esi+16], 0
  00028	5e		 pop	 esi
  00029	c3		 ret	 0
??1?$pair@HV?$vector@VCPoint@@V?$allocator@VCPoint@@@std@@@std@@@std@@QAE@XZ ENDP ; std::pair<int,std::vector<CPoint,std::allocator<CPoint> > >::~pair<int,std::vector<CPoint,std::allocator<CPoint> > >
_TEXT	ENDS
PUBLIC	??1?$pair@$$CBEV?$vector@VCPoint@@V?$allocator@VCPoint@@@std@@@std@@@std@@QAE@XZ ; std::pair<unsigned char const ,std::vector<CPoint,std::allocator<CPoint> > >::~pair<unsigned char const ,std::vector<CPoint,std::allocator<CPoint> > >
; Function compile flags: /Ogty
;	COMDAT ??1?$pair@$$CBEV?$vector@VCPoint@@V?$allocator@VCPoint@@@std@@@std@@@std@@QAE@XZ
_TEXT	SEGMENT
??1?$pair@$$CBEV?$vector@VCPoint@@V?$allocator@VCPoint@@@std@@@std@@@std@@QAE@XZ PROC NEAR ; std::pair<unsigned char const ,std::vector<CPoint,std::allocator<CPoint> > >::~pair<unsigned char const ,std::vector<CPoint,std::allocator<CPoint> > >, COMDAT
; _this$ = ecx
  00000	56		 push	 esi
  00001	8b f1		 mov	 esi, ecx
  00003	8b 46 08	 mov	 eax, DWORD PTR [esi+8]
  00006	85 c0		 test	 eax, eax
  00008	74 09		 je	 SHORT $L237105
  0000a	50		 push	 eax
  0000b	e8 00 00 00 00	 call	 ??3@YAXPAX@Z		; operator delete
  00010	83 c4 04	 add	 esp, 4
$L237105:
  00013	c7 46 08 00 00
	00 00		 mov	 DWORD PTR [esi+8], 0
  0001a	c7 46 0c 00 00
	00 00		 mov	 DWORD PTR [esi+12], 0
  00021	c7 46 10 00 00
	00 00		 mov	 DWORD PTR [esi+16], 0
  00028	5e		 pop	 esi
  00029	c3		 ret	 0
??1?$pair@$$CBEV?$vector@VCPoint@@V?$allocator@VCPoint@@@std@@@std@@@std@@QAE@XZ ENDP ; std::pair<unsigned char const ,std::vector<CPoint,std::allocator<CPoint> > >::~pair<unsigned char const ,std::vector<CPoint,std::allocator<CPoint> > >
_TEXT	ENDS
PUBLIC	?Point_In_Poly@CContinent@@AAEHV?$vector@VCPoint@@V?$allocator@VCPoint@@@std@@@std@@VCPoint@@@Z ; CContinent::Point_In_Poly
; Function compile flags: /Ogty
; File c:\documents and settings\test\mes documents\source\virtuos_v17\build\program\_common\continent.cpp
;	COMDAT ?Point_In_Poly@CContinent@@AAEHV?$vector@VCPoint@@V?$allocator@VCPoint@@@std@@@std@@VCPoint@@@Z
_TEXT	SEGMENT
_counter$ = -16						; size = 4
_i$ = -12						; size = 4
tv332 = -8						; size = 4
tv259 = -4						; size = 4
_vecMap$ = 8						; size = 16
_test_point$ = 24					; size = 8
?Point_In_Poly@CContinent@@AAEHV?$vector@VCPoint@@V?$allocator@VCPoint@@@std@@@std@@VCPoint@@@Z PROC NEAR ; CContinent::Point_In_Poly, COMDAT
; _this$ = ecx

; 106  : {

  00000	83 ec 10	 sub	 esp, 16			; 00000010H

; 107  : 	int counter = 0;
; 108  : 	int i;
; 109  : 	double xinters;
; 110  : 	CPoint p1,p2;
; 111  : 	
; 112  : 	p1 = vecMap[0];
; 113  : 	for( i=1;i<=(int)( vecMap.size() );i++ )

  00003	8b 4c 24 1c	 mov	 ecx, DWORD PTR _vecMap$[esp+20]
  00007	53		 push	 ebx
  00008	55		 push	 ebp
  00009	56		 push	 esi
  0000a	57		 push	 edi
  0000b	8b 7c 24 28	 mov	 edi, DWORD PTR _vecMap$[esp+32]
  0000f	8b 1f		 mov	 ebx, DWORD PTR [edi]
  00011	8b 77 04	 mov	 esi, DWORD PTR [edi+4]
  00014	33 d2		 xor	 edx, edx
  00016	2b cf		 sub	 ecx, edi
  00018	c1 f9 03	 sar	 ecx, 3
  0001b	89 54 24 10	 mov	 DWORD PTR _counter$[esp+32], edx
  0001f	b8 01 00 00 00	 mov	 eax, 1

; 129  : 					}
; 130  : 				}
; 131  : 			}
; 132  : 		}
; 133  : 		p1 = p2;

  00024	89 4c 24 1c	 mov	 DWORD PTR tv259[esp+32], ecx
$L237296:
  00028	3b c1		 cmp	 eax, ecx
  0002a	8b 6c 24 38	 mov	 ebp, DWORD PTR _test_point$[esp+32]
  0002e	89 44 24 14	 mov	 DWORD PTR _i$[esp+32], eax
  00032	0f 8f 81 00 00
	00		 jg	 $L230739
  00038	33 d2		 xor	 edx, edx
  0003a	f7 f1		 div	 ecx
  0003c	8b 4c d7 04	 mov	 ecx, DWORD PTR [edi+edx*8+4]
  00040	3b f1		 cmp	 esi, ecx
  00042	8b c6		 mov	 eax, esi
  00044	8d 3c d7	 lea	 edi, DWORD PTR [edi+edx*8]
  00047	8b 17		 mov	 edx, DWORD PTR [edi]
  00049	7c 02		 jl	 SHORT $L237113

; 114  : 	{
; 115  : 		p2 = vecMap[i % vecMap.size()];
; 116  : 		
; 117  : 		if (test_point.y > min_cont(p1.y,p2.y))

  0004b	8b c1		 mov	 eax, ecx
$L237113:
  0004d	3b e8		 cmp	 ebp, eax
  0004f	7e 4d		 jle	 SHORT $L237292

; 118  : 		{
; 119  : 			if (test_point.y <= max_cont(p1.y,p2.y))

  00051	3b f1		 cmp	 esi, ecx
  00053	8b c6		 mov	 eax, esi
  00055	7f 02		 jg	 SHORT $L237115
  00057	8b c1		 mov	 eax, ecx
$L237115:
  00059	3b e8		 cmp	 ebp, eax
  0005b	7f 41		 jg	 SHORT $L237292

; 120  : 			{
; 121  : 				if (test_point.x <= max_cont(p1.x,p2.x))

  0005d	3b da		 cmp	 ebx, edx
  0005f	8b c3		 mov	 eax, ebx
  00061	7f 02		 jg	 SHORT $L237117
  00063	8b c2		 mov	 eax, edx
$L237117:
  00065	39 44 24 34	 cmp	 DWORD PTR _test_point$[esp+28], eax
  00069	7f 33		 jg	 SHORT $L237292

; 122  : 				{
; 123  : 					if (p1.y != p2.y)

  0006b	3b f1		 cmp	 esi, ecx
  0006d	74 2f		 je	 SHORT $L237292

; 124  : 					{
; 125  : 						xinters = (test_point.y-p1.y)*(p2.x-p1.x)/(p2.y-p1.y)+p1.x;
; 126  : 						
; 127  : 						if (p1.x == p2.x || test_point.x <= xinters)

  0006f	3b da		 cmp	 ebx, edx
  00071	74 27		 je	 SHORT $L237291
  00073	8b 44 24 38	 mov	 eax, DWORD PTR _test_point$[esp+32]
  00077	db 44 24 34	 fild	 DWORD PTR _test_point$[esp+28]
  0007b	2b c6		 sub	 eax, esi
  0007d	2b d3		 sub	 edx, ebx
  0007f	0f af c2	 imul	 eax, edx
  00082	99		 cdq
  00083	2b ce		 sub	 ecx, esi
  00085	f7 f9		 idiv	 ecx
  00087	03 c3		 add	 eax, ebx
  00089	89 44 24 18	 mov	 DWORD PTR tv332[esp+32], eax
  0008d	db 44 24 18	 fild	 DWORD PTR tv332[esp+32]
  00091	de d9		 fcompp
  00093	df e0		 fnstsw	 ax
  00095	f6 c4 01	 test	 ah, 1
  00098	75 04		 jne	 SHORT $L237292
$L237291:

; 128  : 							counter++;

  0009a	ff 44 24 10	 inc	 DWORD PTR _counter$[esp+32]
$L237292:
  0009e	8b 44 24 14	 mov	 eax, DWORD PTR _i$[esp+32]

; 129  : 					}
; 130  : 				}
; 131  : 			}
; 132  : 		}
; 133  : 		p1 = p2;

  000a2	8b 1f		 mov	 ebx, DWORD PTR [edi]
  000a4	8b 77 04	 mov	 esi, DWORD PTR [edi+4]
  000a7	8b 7c 24 28	 mov	 edi, DWORD PTR _vecMap$[esp+32]
  000ab	8b 4c 24 1c	 mov	 ecx, DWORD PTR tv259[esp+32]
  000af	8b 54 24 10	 mov	 edx, DWORD PTR _counter$[esp+32]
  000b3	40		 inc	 eax
  000b4	e9 6f ff ff ff	 jmp	 $L237296
$L230739:

; 134  : 	}
; 135  : 	
; 136  : 	if (counter % 2 == 0)

  000b9	81 e2 01 00 00
	80		 and	 edx, -2147483647	; 80000001H
  000bf	79 05		 jns	 SHORT $L237295
  000c1	4a		 dec	 edx
  000c2	83 ca fe	 or	 edx, -2			; fffffffeH
  000c5	42		 inc	 edx
$L237295:

; 137  : 		return FALSE;

  000c6	57		 push	 edi

; 134  : 	}
; 135  : 	
; 136  : 	if (counter % 2 == 0)

  000c7	75 14		 jne	 SHORT $L230746

; 137  : 		return FALSE;

  000c9	e8 00 00 00 00	 call	 ??3@YAXPAX@Z		; operator delete
  000ce	83 c4 04	 add	 esp, 4
  000d1	5f		 pop	 edi
  000d2	5e		 pop	 esi
  000d3	5d		 pop	 ebp
  000d4	33 c0		 xor	 eax, eax
  000d6	5b		 pop	 ebx

; 140  : }

  000d7	83 c4 10	 add	 esp, 16			; 00000010H
  000da	c2 18 00	 ret	 24			; 00000018H
$L230746:

; 138  : 	else
; 139  : 		return TRUE;

  000dd	e8 00 00 00 00	 call	 ??3@YAXPAX@Z		; operator delete
  000e2	83 c4 04	 add	 esp, 4
  000e5	5f		 pop	 edi
  000e6	5e		 pop	 esi
  000e7	5d		 pop	 ebp
  000e8	b8 01 00 00 00	 mov	 eax, 1
  000ed	5b		 pop	 ebx

; 140  : }

  000ee	83 c4 10	 add	 esp, 16			; 00000010H
  000f1	c2 18 00	 ret	 24			; 00000018H
?Point_In_Poly@CContinent@@AAEHV?$vector@VCPoint@@V?$allocator@VCPoint@@@std@@@std@@VCPoint@@@Z ENDP ; CContinent::Point_In_Poly
_TEXT	ENDS
PUBLIC	??1_Node@?$_Tree_nod@V?$_Tmap_traits@EV?$vector@VCPoint@@V?$allocator@VCPoint@@@std@@@std@@U?$less@E@2@V?$allocator@U?$pair@$$CBEV?$vector@VCPoint@@V?$allocator@VCPoint@@@std@@@std@@@std@@@2@$0A@@std@@@std@@QAE@XZ ; std::_Tree_nod<std::_Tmap_traits<unsigned char,std::vector<CPoint,std::allocator<CPoint> >,std::less<unsigned char>,std::allocator<std::pair<unsigned char const ,std::vector<CPoint,std::allocator<CPoint> > > >,0> >::_Node::~_Node
; Function compile flags: /Ogty
;	COMDAT ??1_Node@?$_Tree_nod@V?$_Tmap_traits@EV?$vector@VCPoint@@V?$allocator@VCPoint@@@std@@@std@@U?$less@E@2@V?$allocator@U?$pair@$$CBEV?$vector@VCPoint@@V?$allocator@VCPoint@@@std@@@std@@@std@@@2@$0A@@std@@@std@@QAE@XZ
_TEXT	SEGMENT
??1_Node@?$_Tree_nod@V?$_Tmap_traits@EV?$vector@VCPoint@@V?$allocator@VCPoint@@@std@@@std@@U?$less@E@2@V?$allocator@U?$pair@$$CBEV?$vector@VCPoint@@V?$allocator@VCPoint@@@std@@@std@@@std@@@2@$0A@@std@@@std@@QAE@XZ PROC NEAR ; std::_Tree_nod<std::_Tmap_traits<unsigned char,std::vector<CPoint,std::allocator<CPoint> >,std::less<unsigned char>,std::allocator<std::pair<unsigned char const ,std::vector<CPoint,std::allocator<CPoint> > > >,0> >::_Node::~_Node, COMDAT
; _this$ = ecx
  00000	56		 push	 esi
  00001	8b f1		 mov	 esi, ecx
  00003	8b 46 14	 mov	 eax, DWORD PTR [esi+20]
  00006	85 c0		 test	 eax, eax
  00008	74 09		 je	 SHORT $L237329
  0000a	50		 push	 eax
  0000b	e8 00 00 00 00	 call	 ??3@YAXPAX@Z		; operator delete
  00010	83 c4 04	 add	 esp, 4
$L237329:
  00013	c7 46 14 00 00
	00 00		 mov	 DWORD PTR [esi+20], 0
  0001a	c7 46 18 00 00
	00 00		 mov	 DWORD PTR [esi+24], 0
  00021	c7 46 1c 00 00
	00 00		 mov	 DWORD PTR [esi+28], 0
  00028	5e		 pop	 esi
  00029	c3		 ret	 0
??1_Node@?$_Tree_nod@V?$_Tmap_traits@EV?$vector@VCPoint@@V?$allocator@VCPoint@@@std@@@std@@U?$less@E@2@V?$allocator@U?$pair@$$CBEV?$vector@VCPoint@@V?$allocator@VCPoint@@@std@@@std@@@std@@@2@$0A@@std@@@std@@QAE@XZ ENDP ; std::_Tree_nod<std::_Tmap_traits<unsigned char,std::vector<CPoint,std::allocator<CPoint> >,std::less<unsigned char>,std::allocator<std::pair<unsigned char const ,std::vector<CPoint,std::allocator<CPoint> > > >,0> >::_Node::~_Node
_TEXT	ENDS
PUBLIC	??0logic_error@std@@QAE@ABV?$basic_string@DU?$char_traits@D@std@@V?$allocator@D@2@@1@@Z ; std::logic_error::logic_error
EXTRN	??0exception@@QAE@XZ:NEAR			; exception::exception
;	COMDAT xdata$x
; File c:\program files\microsoft visual studio .net 2003\vc7\include\iosfwd
xdata$x	SEGMENT
$T237434 DD	0ffffffffH
	DD	FLAT:$L237334
$T237432 DD	019930520H
	DD	01H
	DD	FLAT:$T237434
	DD	2 DUP(00H)
	DD	2 DUP(00H)
; Function compile flags: /Ogty
; File c:\program files\microsoft visual studio .net 2003\vc7\include\stdexcept
xdata$x	ENDS
;	COMDAT ??0logic_error@std@@QAE@ABV?$basic_string@DU?$char_traits@D@std@@V?$allocator@D@2@@1@@Z
_TEXT	SEGMENT
_this$ = -16						; size = 4
__$EHRec$ = -12						; size = 12
__Message$ = 8						; size = 4
??0logic_error@std@@QAE@ABV?$basic_string@DU?$char_traits@D@std@@V?$allocator@D@2@@1@@Z PROC NEAR ; std::logic_error::logic_error, COMDAT
; _this$ = ecx

; 19   : 		{	// construct from message string

  00000	6a ff		 push	 -1
  00002	68 00 00 00 00	 push	 __ehhandler$??0logic_error@std@@QAE@ABV?$basic_string@DU?$char_traits@D@std@@V?$allocator@D@2@@1@@Z
  00007	64 a1 00 00 00
	00		 mov	 eax, DWORD PTR fs:__except_list
  0000d	50		 push	 eax
  0000e	64 89 25 00 00
	00 00		 mov	 DWORD PTR fs:__except_list, esp
  00015	51		 push	 ecx
  00016	56		 push	 esi
  00017	8b f1		 mov	 esi, ecx
  00019	89 74 24 04	 mov	 DWORD PTR _this$[esp+20], esi
  0001d	e8 00 00 00 00	 call	 ??0exception@@QAE@XZ	; exception::exception
  00022	33 c0		 xor	 eax, eax
  00024	8d 4e 0c	 lea	 ecx, DWORD PTR [esi+12]
  00027	c7 06 00 00 00
	00		 mov	 DWORD PTR [esi], OFFSET FLAT:??_7logic_error@std@@6B@
  0002d	6a ff		 push	 -1
  0002f	89 41 14	 mov	 DWORD PTR [ecx+20], eax
  00032	c7 41 18 0f 00
	00 00		 mov	 DWORD PTR [ecx+24], 15	; 0000000fH
  00039	50		 push	 eax
  0003a	89 44 24 18	 mov	 DWORD PTR __$EHRec$[esp+36], eax
  0003e	88 41 04	 mov	 BYTE PTR [ecx+4], al
  00041	8b 44 24 20	 mov	 eax, DWORD PTR __Message$[esp+24]
  00045	50		 push	 eax
  00046	e8 00 00 00 00	 call	 ?assign@?$basic_string@DU?$char_traits@D@std@@V?$allocator@D@2@@std@@QAEAAV12@ABV12@II@Z ; std::basic_string<char,std::char_traits<char>,std::allocator<char> >::assign

; 20   : 		}

  0004b	8b 4c 24 08	 mov	 ecx, DWORD PTR __$EHRec$[esp+20]
  0004f	8b c6		 mov	 eax, esi
  00051	5e		 pop	 esi
  00052	64 89 0d 00 00
	00 00		 mov	 DWORD PTR fs:__except_list, ecx
  00059	83 c4 10	 add	 esp, 16			; 00000010H
  0005c	c2 04 00	 ret	 4
_TEXT	ENDS
;	COMDAT text$x
text$x	SEGMENT
$L237334:
  00000	8b 4d f0	 mov	 ecx, DWORD PTR _this$[ebp]
  00003	e9 00 00 00 00	 jmp	 ??1exception@@UAE@XZ	; exception::~exception
__ehhandler$??0logic_error@std@@QAE@ABV?$basic_string@DU?$char_traits@D@std@@V?$allocator@D@2@@1@@Z:
  00008	b8 00 00 00 00	 mov	 eax, OFFSET FLAT:$T237432
  0000d	e9 00 00 00 00	 jmp	 ___CxxFrameHandler
text$x	ENDS
??0logic_error@std@@QAE@ABV?$basic_string@DU?$char_traits@D@std@@V?$allocator@D@2@@1@@Z ENDP ; std::logic_error::logic_error
PUBLIC	??0length_error@std@@QAE@ABV?$basic_string@DU?$char_traits@D@std@@V?$allocator@D@2@@1@@Z ; std::length_error::length_error
PUBLIC	??_7length_error@std@@6B@			; std::length_error::`vftable'
PUBLIC	??_Glength_error@std@@UAEPAXI@Z			; std::length_error::`scalar deleting destructor'
EXTRN	??_Elength_error@std@@UAEPAXI@Z:NEAR		; std::length_error::`vector deleting destructor'
;	COMDAT ??_7length_error@std@@6B@
CONST	SEGMENT
??_7length_error@std@@6B@ DD FLAT:??_Elength_error@std@@UAEPAXI@Z ; std::length_error::`vftable'
	DD	FLAT:?what@logic_error@std@@UBEPBDXZ
; Function compile flags: /Ogty
CONST	ENDS
;	COMDAT ??0length_error@std@@QAE@ABV?$basic_string@DU?$char_traits@D@std@@V?$allocator@D@2@@1@@Z
_TEXT	SEGMENT
__Message$ = 8						; size = 4
??0length_error@std@@QAE@ABV?$basic_string@DU?$char_traits@D@std@@V?$allocator@D@2@@1@@Z PROC NEAR ; std::length_error::length_error, COMDAT
; _this$ = ecx

; 95   : 		{	// construct from message string

  00000	8b 44 24 04	 mov	 eax, DWORD PTR __Message$[esp-4]
  00004	56		 push	 esi
  00005	50		 push	 eax
  00006	8b f1		 mov	 esi, ecx
  00008	e8 00 00 00 00	 call	 ??0logic_error@std@@QAE@ABV?$basic_string@DU?$char_traits@D@std@@V?$allocator@D@2@@1@@Z ; std::logic_error::logic_error
  0000d	c7 06 00 00 00
	00		 mov	 DWORD PTR [esi], OFFSET FLAT:??_7length_error@std@@6B@

; 96   : 		}

  00013	8b c6		 mov	 eax, esi
  00015	5e		 pop	 esi
  00016	c2 04 00	 ret	 4
??0length_error@std@@QAE@ABV?$basic_string@DU?$char_traits@D@std@@V?$allocator@D@2@@1@@Z ENDP ; std::length_error::length_error
_TEXT	ENDS
PUBLIC	??1length_error@std@@UAE@XZ			; std::length_error::~length_error
; Function compile flags: /Ogty
;	COMDAT ??_Glength_error@std@@UAEPAXI@Z
_TEXT	SEGMENT
___flags$ = 8						; size = 4
??_Glength_error@std@@UAEPAXI@Z PROC NEAR		; std::length_error::`scalar deleting destructor', COMDAT
; _this$ = ecx
  00000	56		 push	 esi
  00001	8b f1		 mov	 esi, ecx
  00003	e8 00 00 00 00	 call	 ??1length_error@std@@UAE@XZ ; std::length_error::~length_error
  00008	f6 44 24 08 01	 test	 BYTE PTR ___flags$[esp], 1
  0000d	74 09		 je	 SHORT $L237444
  0000f	56		 push	 esi
  00010	e8 00 00 00 00	 call	 ??3@YAXPAX@Z		; operator delete
  00015	83 c4 04	 add	 esp, 4
$L237444:
  00018	8b c6		 mov	 eax, esi
  0001a	5e		 pop	 esi
  0001b	c2 04 00	 ret	 4
??_Glength_error@std@@UAEPAXI@Z ENDP			; std::length_error::`scalar deleting destructor'
; Function compile flags: /Ogty
_TEXT	ENDS
;	COMDAT ??1length_error@std@@UAE@XZ
_TEXT	SEGMENT
??1length_error@std@@UAE@XZ PROC NEAR			; std::length_error::~length_error, COMDAT
; _this$ = ecx

; 99   : 		{}	// destroy the object

  00000	56		 push	 esi
  00001	8b f1		 mov	 esi, ecx
  00003	c7 06 00 00 00
	00		 mov	 DWORD PTR [esi], OFFSET FLAT:??_7logic_error@std@@6B@
  00009	83 7e 24 10	 cmp	 DWORD PTR [esi+36], 16	; 00000010H
  0000d	72 0c		 jb	 SHORT $L237533
  0000f	8b 46 10	 mov	 eax, DWORD PTR [esi+16]
  00012	50		 push	 eax
  00013	e8 00 00 00 00	 call	 ??3@YAXPAX@Z		; operator delete
  00018	83 c4 04	 add	 esp, 4
$L237533:
  0001b	33 c0		 xor	 eax, eax
  0001d	c7 46 24 0f 00
	00 00		 mov	 DWORD PTR [esi+36], 15	; 0000000fH
  00024	89 46 20	 mov	 DWORD PTR [esi+32], eax
  00027	88 46 10	 mov	 BYTE PTR [esi+16], al
  0002a	8b ce		 mov	 ecx, esi
  0002c	5e		 pop	 esi
  0002d	e9 00 00 00 00	 jmp	 ??1exception@@UAE@XZ	; exception::~exception
??1length_error@std@@UAE@XZ ENDP			; std::length_error::~length_error
_TEXT	ENDS
PUBLIC	??0out_of_range@std@@QAE@ABV?$basic_string@DU?$char_traits@D@std@@V?$allocator@D@2@@1@@Z ; std::out_of_range::out_of_range
PUBLIC	??_7out_of_range@std@@6B@			; std::out_of_range::`vftable'
PUBLIC	??_Gout_of_range@std@@UAEPAXI@Z			; std::out_of_range::`scalar deleting destructor'
EXTRN	??_Eout_of_range@std@@UAEPAXI@Z:NEAR		; std::out_of_range::`vector deleting destructor'
;	COMDAT ??_7out_of_range@std@@6B@
CONST	SEGMENT
??_7out_of_range@std@@6B@ DD FLAT:??_Eout_of_range@std@@UAEPAXI@Z ; std::out_of_range::`vftable'
	DD	FLAT:?what@logic_error@std@@UBEPBDXZ
; Function compile flags: /Ogty
CONST	ENDS
;	COMDAT ??0out_of_range@std@@QAE@ABV?$basic_string@DU?$char_traits@D@std@@V?$allocator@D@2@@1@@Z
_TEXT	SEGMENT
__Message$ = 8						; size = 4
??0out_of_range@std@@QAE@ABV?$basic_string@DU?$char_traits@D@std@@V?$allocator@D@2@@1@@Z PROC NEAR ; std::out_of_range::out_of_range, COMDAT
; _this$ = ecx

; 118  : 		{	// construct from message string

  00000	8b 44 24 04	 mov	 eax, DWORD PTR __Message$[esp-4]
  00004	56		 push	 esi
  00005	50		 push	 eax
  00006	8b f1		 mov	 esi, ecx
  00008	e8 00 00 00 00	 call	 ??0logic_error@std@@QAE@ABV?$basic_string@DU?$char_traits@D@std@@V?$allocator@D@2@@1@@Z ; std::logic_error::logic_error
  0000d	c7 06 00 00 00
	00		 mov	 DWORD PTR [esi], OFFSET FLAT:??_7out_of_range@std@@6B@

; 119  : 		}

  00013	8b c6		 mov	 eax, esi
  00015	5e		 pop	 esi
  00016	c2 04 00	 ret	 4
??0out_of_range@std@@QAE@ABV?$basic_string@DU?$char_traits@D@std@@V?$allocator@D@2@@1@@Z ENDP ; std::out_of_range::out_of_range
_TEXT	ENDS
PUBLIC	??1out_of_range@std@@UAE@XZ			; std::out_of_range::~out_of_range
; Function compile flags: /Ogty
;	COMDAT ??_Gout_of_range@std@@UAEPAXI@Z
_TEXT	SEGMENT
___flags$ = 8						; size = 4
??_Gout_of_range@std@@UAEPAXI@Z PROC NEAR		; std::out_of_range::`scalar deleting destructor', COMDAT
; _this$ = ecx
  00000	56		 push	 esi
  00001	8b f1		 mov	 esi, ecx
  00003	e8 00 00 00 00	 call	 ??1out_of_range@std@@UAE@XZ ; std::out_of_range::~out_of_range
  00008	f6 44 24 08 01	 test	 BYTE PTR ___flags$[esp], 1
  0000d	74 09		 je	 SHORT $L237558
  0000f	56		 push	 esi
  00010	e8 00 00 00 00	 call	 ??3@YAXPAX@Z		; operator delete
  00015	83 c4 04	 add	 esp, 4
$L237558:
  00018	8b c6		 mov	 eax, esi
  0001a	5e		 pop	 esi
  0001b	c2 04 00	 ret	 4
??_Gout_of_range@std@@UAEPAXI@Z ENDP			; std::out_of_range::`scalar deleting destructor'
; Function compile flags: /Ogty
_TEXT	ENDS
;	COMDAT ??1out_of_range@std@@UAE@XZ
_TEXT	SEGMENT
??1out_of_range@std@@UAE@XZ PROC NEAR			; std::out_of_range::~out_of_range, COMDAT
; _this$ = ecx

; 122  : 		{}	// destroy the object

  00000	56		 push	 esi
  00001	8b f1		 mov	 esi, ecx
  00003	c7 06 00 00 00
	00		 mov	 DWORD PTR [esi], OFFSET FLAT:??_7logic_error@std@@6B@
  00009	83 7e 24 10	 cmp	 DWORD PTR [esi+36], 16	; 00000010H
  0000d	72 0c		 jb	 SHORT $L237643
  0000f	8b 46 10	 mov	 eax, DWORD PTR [esi+16]
  00012	50		 push	 eax
  00013	e8 00 00 00 00	 call	 ??3@YAXPAX@Z		; operator delete
  00018	83 c4 04	 add	 esp, 4
$L237643:
  0001b	33 c0		 xor	 eax, eax
  0001d	c7 46 24 0f 00
	00 00		 mov	 DWORD PTR [esi+36], 15	; 0000000fH
  00024	89 46 20	 mov	 DWORD PTR [esi+32], eax
  00027	88 46 10	 mov	 BYTE PTR [esi+16], al
  0002a	8b ce		 mov	 ecx, esi
  0002c	5e		 pop	 esi
  0002d	e9 00 00 00 00	 jmp	 ??1exception@@UAE@XZ	; exception::~exception
??1out_of_range@std@@UAE@XZ ENDP			; std::out_of_range::~out_of_range
_TEXT	ENDS
PUBLIC	??4?$CStringT@DV?$StrTraitMFC@DV?$ChTraitsCRT@D@ATL@@@@@ATL@@QAEAAV01@PBD@Z ; ATL::CStringT<char,StrTraitMFC<char,ATL::ChTraitsCRT<char> > >::operator=
; Function compile flags: /Ogty
; File c:\program files\microsoft visual studio .net 2003\vc7\atlmfc\include\cstringt.h
;	COMDAT ??4?$CStringT@DV?$StrTraitMFC@DV?$ChTraitsCRT@D@ATL@@@@@ATL@@QAEAAV01@PBD@Z
_TEXT	SEGMENT
_pszSrc$ = 8						; size = 4
??4?$CStringT@DV?$StrTraitMFC@DV?$ChTraitsCRT@D@ATL@@@@@ATL@@QAEAAV01@PBD@Z PROC NEAR ; ATL::CStringT<char,StrTraitMFC<char,ATL::ChTraitsCRT<char> > >::operator=, COMDAT
; _this$ = ecx

; 983  : 		CThisSimpleString::operator=( pszSrc );

  00000	8b 54 24 04	 mov	 edx, DWORD PTR _pszSrc$[esp-4]
  00004	85 d2		 test	 edx, edx
  00006	57		 push	 edi
  00007	8b f9		 mov	 edi, ecx
  00009	75 0f		 jne	 SHORT $L237684
  0000b	33 c0		 xor	 eax, eax
  0000d	50		 push	 eax
  0000e	52		 push	 edx
  0000f	e8 00 00 00 00	 call	 ?SetString@?$CSimpleStringT@D$0A@@ATL@@QAEXPBDH@Z ; ATL::CSimpleStringT<char,0>::SetString

; 984  : 
; 985  : 		return( *this );

  00014	8b c7		 mov	 eax, edi
  00016	5f		 pop	 edi

; 986  : 	}

  00017	c2 04 00	 ret	 4

; 983  : 		CThisSimpleString::operator=( pszSrc );

$L237684:
  0001a	8b c2		 mov	 eax, edx
  0001c	56		 push	 esi
  0001d	8d 70 01	 lea	 esi, DWORD PTR [eax+1]
$L237687:
  00020	8a 08		 mov	 cl, BYTE PTR [eax]
  00022	40		 inc	 eax
  00023	84 c9		 test	 cl, cl
  00025	75 f9		 jne	 SHORT $L237687
  00027	2b c6		 sub	 eax, esi
  00029	5e		 pop	 esi
  0002a	50		 push	 eax
  0002b	52		 push	 edx
  0002c	8b cf		 mov	 ecx, edi
  0002e	e8 00 00 00 00	 call	 ?SetString@?$CSimpleStringT@D$0A@@ATL@@QAEXPBDH@Z ; ATL::CSimpleStringT<char,0>::SetString

; 984  : 
; 985  : 		return( *this );

  00033	8b c7		 mov	 eax, edi
  00035	5f		 pop	 edi

; 986  : 	}

  00036	c2 04 00	 ret	 4
??4?$CStringT@DV?$StrTraitMFC@DV?$ChTraitsCRT@D@ATL@@@@@ATL@@QAEAAV01@PBD@Z ENDP ; ATL::CStringT<char,StrTraitMFC<char,ATL::ChTraitsCRT<char> > >::operator=
_TEXT	ENDS
PUBLIC	??0?$basic_string@DU?$char_traits@D@std@@V?$allocator@D@2@@std@@QAE@PBD@Z ; std::basic_string<char,std::char_traits<char>,std::allocator<char> >::basic_string<char,std::char_traits<char>,std::allocator<char> >
; Function compile flags: /Ogty
; File c:\program files\microsoft visual studio .net 2003\vc7\include\xstring
;	COMDAT ??0?$basic_string@DU?$char_traits@D@std@@V?$allocator@D@2@@std@@QAE@PBD@Z
_TEXT	SEGMENT
__Ptr$ = 8						; size = 4
??0?$basic_string@DU?$char_traits@D@std@@V?$allocator@D@2@@std@@QAE@PBD@Z PROC NEAR ; std::basic_string<char,std::char_traits<char>,std::allocator<char> >::basic_string<char,std::char_traits<char>,std::allocator<char> >, COMDAT
; _this$ = ecx

; 361  : 		_Tidy();
; 362  : 		assign(_Ptr);

  00000	8b 54 24 04	 mov	 edx, DWORD PTR __Ptr$[esp-4]
  00004	56		 push	 esi
  00005	8b f1		 mov	 esi, ecx
  00007	8b c2		 mov	 eax, edx
  00009	57		 push	 edi
  0000a	c7 46 18 0f 00
	00 00		 mov	 DWORD PTR [esi+24], 15	; 0000000fH
  00011	c7 46 14 00 00
	00 00		 mov	 DWORD PTR [esi+20], 0
  00018	c6 46 04 00	 mov	 BYTE PTR [esi+4], 0
  0001c	8d 78 01	 lea	 edi, DWORD PTR [eax+1]
  0001f	90		 npad	 1
$L237763:
  00020	8a 08		 mov	 cl, BYTE PTR [eax]
  00022	40		 inc	 eax
  00023	84 c9		 test	 cl, cl
  00025	75 f9		 jne	 SHORT $L237763
  00027	2b c7		 sub	 eax, edi
  00029	50		 push	 eax
  0002a	52		 push	 edx
  0002b	8b ce		 mov	 ecx, esi
  0002d	e8 00 00 00 00	 call	 ?assign@?$basic_string@DU?$char_traits@D@std@@V?$allocator@D@2@@std@@QAEAAV12@PBDI@Z ; std::basic_string<char,std::char_traits<char>,std::allocator<char> >::assign
  00032	5f		 pop	 edi

; 363  : 		}

  00033	8b c6		 mov	 eax, esi
  00035	5e		 pop	 esi
  00036	c2 04 00	 ret	 4
??0?$basic_string@DU?$char_traits@D@std@@V?$allocator@D@2@@std@@QAE@PBD@Z ENDP ; std::basic_string<char,std::char_traits<char>,std::allocator<char> >::basic_string<char,std::char_traits<char>,std::allocator<char> >
_TEXT	ENDS
PUBLIC	?GetContinentName@CContinent@@QAE?AV?$CStringT@DV?$StrTraitMFC@DV?$ChTraitsCRT@D@ATL@@@@@ATL@@E@Z ; CContinent::GetContinentName
EXTRN	?prj@@3VCProject@@A:BYTE			; prj
;	COMDAT xdata$x
; File c:\program files\microsoft visual studio .net 2003\vc7\atlmfc\include\atlsimpstr.h
xdata$x	SEGMENT
$T237873 DD	0ffffffffH
	DD	FLAT:$L237767
$T237867 DD	019930520H
	DD	01H
	DD	FLAT:$T237873
	DD	2 DUP(00H)
	DD	2 DUP(00H)
; Function compile flags: /Ogty
; File c:\documents and settings\test\mes documents\source\virtuos_v17\build\program\_common\continent.cpp
xdata$x	ENDS
;	COMDAT ?GetContinentName@CContinent@@QAE?AV?$CStringT@DV?$StrTraitMFC@DV?$ChTraitsCRT@D@ATL@@@@@ATL@@E@Z
_TEXT	SEGMENT
$T237769 = -16						; size = 4
_strTemp$ = -16						; size = 4
__$EHRec$ = -12						; size = 12
___$ReturnUdt$ = 8					; size = 4
_nCont$ = 12						; size = 1
?GetContinentName@CContinent@@QAE?AV?$CStringT@DV?$StrTraitMFC@DV?$ChTraitsCRT@D@ATL@@@@@ATL@@E@Z PROC NEAR ; CContinent::GetContinentName, COMDAT
; _this$ = ecx

; 229  : {

  00000	6a ff		 push	 -1
  00002	68 00 00 00 00	 push	 __ehhandler$?GetContinentName@CContinent@@QAE?AV?$CStringT@DV?$StrTraitMFC@DV?$ChTraitsCRT@D@ATL@@@@@ATL@@E@Z
  00007	64 a1 00 00 00
	00		 mov	 eax, DWORD PTR fs:__except_list
  0000d	50		 push	 eax
  0000e	64 89 25 00 00
	00 00		 mov	 DWORD PTR fs:__except_list, esp
  00015	51		 push	 ecx
  00016	56		 push	 esi
  00017	33 f6		 xor	 esi, esi
  00019	57		 push	 edi
  0001a	89 74 24 08	 mov	 DWORD PTR $T237769[esp+24], esi

; 230  : 	CString strTemp;

  0001e	e8 00 00 00 00	 call	 ?AfxGetStringManager@@YGPAUIAtlStringMgr@ATL@@XZ ; AfxGetStringManager
  00023	8b 10		 mov	 edx, DWORD PTR [eax]
  00025	8b c8		 mov	 ecx, eax
  00027	ff 52 0c	 call	 DWORD PTR [edx+12]
  0002a	83 c0 10	 add	 eax, 16			; 00000010H
  0002d	89 44 24 08	 mov	 DWORD PTR _strTemp$[esp+24], eax

; 231  : 	
; 232  : 	switch( nCont )

  00031	0f b6 44 24 20	 movzx	 eax, BYTE PTR _nCont$[esp+20]
  00036	48		 dec	 eax
  00037	3d fe 00 00 00	 cmp	 eax, 254		; 000000feH
  0003c	89 74 24 14	 mov	 DWORD PTR __$EHRec$[esp+32], esi
  00040	77 5f		 ja	 SHORT $L230837
  00042	0f b6 80 00 00
	00 00		 movzx	 eax, BYTE PTR $L237868[eax]
  00049	ff 24 85 00 00
	00 00		 jmp	 DWORD PTR $L237872[eax*4]
$L230840:

; 233  : 	{
; 234  : 		case CONT_FLARIS :
; 235  : 			strTemp = prj.GetText( TID_GAME_CONT_FLARIS );

  00050	68 81 0e 00 00	 push	 3713			; 00000e81H

; 236  : 			break;

  00055	eb 36		 jmp	 SHORT $L237871
$L230841:

; 237  : 		case CONT_SAINTMORNING :
; 238  : 			strTemp = prj.GetText( TID_GAME_CONT_SAINTMORNING );

  00057	68 82 0e 00 00	 push	 3714			; 00000e82H

; 239  : 			break;

  0005c	eb 2f		 jmp	 SHORT $L237871
$L230842:

; 240  : 		case CONT_RICIS :
; 241  : 			strTemp = prj.GetText( TID_GAME_CONT_RICIS );

  0005e	68 85 0e 00 00	 push	 3717			; 00000e85H

; 242  : 			break;

  00063	eb 28		 jmp	 SHORT $L237871
$L230843:

; 243  : 		case CONT_EAST :
; 244  : 			strTemp = prj.GetText( TID_GAME_CONT_EAST );

  00065	68 86 0e 00 00	 push	 3718			; 00000e86H

; 245  : 			break;

  0006a	eb 21		 jmp	 SHORT $L237871
$L230844:

; 246  : 
; 247  : 		case CONT_DARKON12 :
; 248  : 			strTemp = prj.GetText( TID_GAME_CONT_DARKON12 );

  0006c	68 83 0e 00 00	 push	 3715			; 00000e83H

; 249  : 			break;

  00071	eb 1a		 jmp	 SHORT $L237871
$L230845:

; 250  : 		case CONT_DARKON3 :
; 251  : 			strTemp = prj.GetText( TID_GAME_CONT_DARKON3 );

  00073	68 84 0e 00 00	 push	 3716			; 00000e84H

; 252  : 			break;

  00078	eb 13		 jmp	 SHORT $L237871
$L230846:

; 253  : 		case CONT_HARMONIN :
; 254  : 			strTemp = prj.GetText( TID_GAME_CONT_HARMONIN );

  0007a	68 4f 10 00 00	 push	 4175			; 0000104fH

; 255  : 			break;

  0007f	eb 0c		 jmp	 SHORT $L237871
$L230847:

; 256  : 		case CONT_WEST :
; 257  : 			strTemp = prj.GetText( TID_GAME_CONT_WEST );

  00081	68 87 0e 00 00	 push	 3719			; 00000e87H

; 258  : 			break;

  00086	eb 05		 jmp	 SHORT $L237871
$L230848:

; 259  : 
; 260  : 		case CONT_ALL :
; 261  : 			strTemp = prj.GetText( TID_GAME_CONT_ALL );

  00088	68 c4 0e 00 00	 push	 3780			; 00000ec4H
$L237871:
  0008d	b9 00 00 00 00	 mov	 ecx, OFFSET FLAT:?prj@@3VCProject@@A
  00092	e8 00 00 00 00	 call	 ?GetText@CProject@@QAEPBDK@Z ; CProject::GetText
  00097	8d 4c 24 08	 lea	 ecx, DWORD PTR _strTemp$[esp+24]
  0009b	50		 push	 eax
  0009c	e8 00 00 00 00	 call	 ??4?$CStringT@DV?$StrTraitMFC@DV?$ChTraitsCRT@D@ATL@@@@@ATL@@QAEAAV01@PBD@Z ; ATL::CStringT<char,StrTraitMFC<char,ATL::ChTraitsCRT<char> > >::operator=
$L230837:

; 262  : 			break;
; 263  : 	}
; 264  : 
; 265  : 	return strTemp;

  000a1	8b 74 24 08	 mov	 esi, DWORD PTR _strTemp$[esp+24]
  000a5	83 c6 f0	 add	 esi, -16		; fffffff0H
  000a8	56		 push	 esi
  000a9	e8 00 00 00 00	 call	 ?CloneData@?$CSimpleStringT@D$0A@@ATL@@CAPAUCStringData@2@PAU32@@Z ; ATL::CSimpleStringT<char,0>::CloneData
  000ae	8b 7c 24 20	 mov	 edi, DWORD PTR ___$ReturnUdt$[esp+24]
  000b2	83 c0 10	 add	 eax, 16			; 00000010H
  000b5	83 c4 04	 add	 esp, 4
  000b8	89 07		 mov	 DWORD PTR [edi], eax
  000ba	c7 44 24 14 ff
	ff ff ff	 mov	 DWORD PTR __$EHRec$[esp+32], -1
  000c2	8d 4e 0c	 lea	 ecx, DWORD PTR [esi+12]
  000c5	83 ca ff	 or	 edx, -1
  000c8	f0 0f c1 11	 lock	  xadd	 DWORD PTR [ecx], edx
  000cc	4a		 dec	 edx
  000cd	85 d2		 test	 edx, edx
  000cf	7f 08		 jg	 SHORT $L237869
  000d1	8b 0e		 mov	 ecx, DWORD PTR [esi]
  000d3	8b 01		 mov	 eax, DWORD PTR [ecx]
  000d5	56		 push	 esi
  000d6	ff 50 04	 call	 DWORD PTR [eax+4]
$L237869:

; 266  : }

  000d9	8b 4c 24 0c	 mov	 ecx, DWORD PTR __$EHRec$[esp+24]
  000dd	8b c7		 mov	 eax, edi
  000df	5f		 pop	 edi
  000e0	5e		 pop	 esi
  000e1	64 89 0d 00 00
	00 00		 mov	 DWORD PTR fs:__except_list, ecx
  000e8	83 c4 10	 add	 esp, 16			; 00000010H
  000eb	c2 08 00	 ret	 8
  000ee	8b ff		 npad	 2
$L237872:
  000f0	00 00 00 00	 DD	 $L230840
  000f4	00 00 00 00	 DD	 $L230841
  000f8	00 00 00 00	 DD	 $L230842
  000fc	00 00 00 00	 DD	 $L230843
  00100	00 00 00 00	 DD	 $L230847
  00104	00 00 00 00	 DD	 $L230844
  00108	00 00 00 00	 DD	 $L230845
  0010c	00 00 00 00	 DD	 $L230846
  00110	00 00 00 00	 DD	 $L230848
  00114	00 00 00 00	 DD	 $L230837
$L237868:
  00118	00		 DB	 0
  00119	01		 DB	 1
  0011a	02		 DB	 2
  0011b	09		 DB	 9
  0011c	09		 DB	 9
  0011d	09		 DB	 9
  0011e	09		 DB	 9
  0011f	09		 DB	 9
  00120	09		 DB	 9
  00121	09		 DB	 9
  00122	09		 DB	 9
  00123	09		 DB	 9
  00124	09		 DB	 9
  00125	09		 DB	 9
  00126	03		 DB	 3
  00127	09		 DB	 9
  00128	09		 DB	 9
  00129	09		 DB	 9
  0012a	09		 DB	 9
  0012b	09		 DB	 9
  0012c	09		 DB	 9
  0012d	09		 DB	 9
  0012e	09		 DB	 9
  0012f	09		 DB	 9
  00130	09		 DB	 9
  00131	09		 DB	 9
  00132	09		 DB	 9
  00133	09		 DB	 9
  00134	09		 DB	 9
  00135	09		 DB	 9
  00136	09		 DB	 9
  00137	09		 DB	 9
  00138	09		 DB	 9
  00139	09		 DB	 9
  0013a	09		 DB	 9
  0013b	09		 DB	 9
  0013c	09		 DB	 9
  0013d	09		 DB	 9
  0013e	09		 DB	 9
  0013f	09		 DB	 9
  00140	09		 DB	 9
  00141	09		 DB	 9
  00142	09		 DB	 9
  00143	09		 DB	 9
  00144	09		 DB	 9
  00145	09		 DB	 9
  00146	09		 DB	 9
  00147	09		 DB	 9
  00148	09		 DB	 9
  00149	09		 DB	 9
  0014a	09		 DB	 9
  0014b	09		 DB	 9
  0014c	09		 DB	 9
  0014d	09		 DB	 9
  0014e	09		 DB	 9
  0014f	09		 DB	 9
  00150	09		 DB	 9
  00151	09		 DB	 9
  00152	09		 DB	 9
  00153	09		 DB	 9
  00154	09		 DB	 9
  00155	09		 DB	 9
  00156	09		 DB	 9
  00157	09		 DB	 9
  00158	09		 DB	 9
  00159	09		 DB	 9
  0015a	09		 DB	 9
  0015b	09		 DB	 9
  0015c	09		 DB	 9
  0015d	09		 DB	 9
  0015e	09		 DB	 9
  0015f	09		 DB	 9
  00160	09		 DB	 9
  00161	09		 DB	 9
  00162	09		 DB	 9
  00163	09		 DB	 9
  00164	09		 DB	 9
  00165	09		 DB	 9
  00166	09		 DB	 9
  00167	09		 DB	 9
  00168	09		 DB	 9
  00169	09		 DB	 9
  0016a	09		 DB	 9
  0016b	09		 DB	 9
  0016c	09		 DB	 9
  0016d	09		 DB	 9
  0016e	09		 DB	 9
  0016f	09		 DB	 9
  00170	09		 DB	 9
  00171	09		 DB	 9
  00172	09		 DB	 9
  00173	09		 DB	 9
  00174	09		 DB	 9
  00175	09		 DB	 9
  00176	09		 DB	 9
  00177	09		 DB	 9
  00178	09		 DB	 9
  00179	09		 DB	 9
  0017a	09		 DB	 9
  0017b	09		 DB	 9
  0017c	09		 DB	 9
  0017d	09		 DB	 9
  0017e	09		 DB	 9
  0017f	09		 DB	 9
  00180	09		 DB	 9
  00181	09		 DB	 9
  00182	09		 DB	 9
  00183	09		 DB	 9
  00184	09		 DB	 9
  00185	09		 DB	 9
  00186	09		 DB	 9
  00187	09		 DB	 9
  00188	09		 DB	 9
  00189	09		 DB	 9
  0018a	09		 DB	 9
  0018b	09		 DB	 9
  0018c	09		 DB	 9
  0018d	09		 DB	 9
  0018e	09		 DB	 9
  0018f	09		 DB	 9
  00190	09		 DB	 9
  00191	09		 DB	 9
  00192	09		 DB	 9
  00193	09		 DB	 9
  00194	09		 DB	 9
  00195	09		 DB	 9
  00196	09		 DB	 9
  00197	09		 DB	 9
  00198	09		 DB	 9
  00199	09		 DB	 9
  0019a	09		 DB	 9
  0019b	09		 DB	 9
  0019c	09		 DB	 9
  0019d	09		 DB	 9
  0019e	09		 DB	 9
  0019f	09		 DB	 9
  001a0	09		 DB	 9
  001a1	09		 DB	 9
  001a2	09		 DB	 9
  001a3	09		 DB	 9
  001a4	09		 DB	 9
  001a5	09		 DB	 9
  001a6	09		 DB	 9
  001a7	09		 DB	 9
  001a8	09		 DB	 9
  001a9	09		 DB	 9
  001aa	09		 DB	 9
  001ab	09		 DB	 9
  001ac	09		 DB	 9
  001ad	09		 DB	 9
  001ae	09		 DB	 9
  001af	09		 DB	 9
  001b0	09		 DB	 9
  001b1	09		 DB	 9
  001b2	09		 DB	 9
  001b3	09		 DB	 9
  001b4	09		 DB	 9
  001b5	09		 DB	 9
  001b6	09		 DB	 9
  001b7	09		 DB	 9
  001b8	09		 DB	 9
  001b9	09		 DB	 9
  001ba	09		 DB	 9
  001bb	09		 DB	 9
  001bc	09		 DB	 9
  001bd	09		 DB	 9
  001be	09		 DB	 9
  001bf	09		 DB	 9
  001c0	09		 DB	 9
  001c1	09		 DB	 9
  001c2	09		 DB	 9
  001c3	09		 DB	 9
  001c4	09		 DB	 9
  001c5	09		 DB	 9
  001c6	09		 DB	 9
  001c7	09		 DB	 9
  001c8	09		 DB	 9
  001c9	09		 DB	 9
  001ca	09		 DB	 9
  001cb	09		 DB	 9
  001cc	09		 DB	 9
  001cd	09		 DB	 9
  001ce	09		 DB	 9
  001cf	09		 DB	 9
  001d0	09		 DB	 9
  001d1	09		 DB	 9
  001d2	09		 DB	 9
  001d3	09		 DB	 9
  001d4	09		 DB	 9
  001d5	09		 DB	 9
  001d6	09		 DB	 9
  001d7	09		 DB	 9
  001d8	09		 DB	 9
  001d9	09		 DB	 9
  001da	09		 DB	 9
  001db	09		 DB	 9
  001dc	09		 DB	 9
  001dd	09		 DB	 9
  001de	09		 DB	 9
  001df	09		 DB	 9
  001e0	09		 DB	 9
  001e1	09		 DB	 9
  001e2	09		 DB	 9
  001e3	09		 DB	 9
  001e4	09		 DB	 9
  001e5	09		 DB	 9
  001e6	09		 DB	 9
  001e7	09		 DB	 9
  001e8	09		 DB	 9
  001e9	09		 DB	 9
  001ea	09		 DB	 9
  001eb	09		 DB	 9
  001ec	09		 DB	 9
  001ed	09		 DB	 9
  001ee	09		 DB	 9
  001ef	09		 DB	 9
  001f0	09		 DB	 9
  001f1	09		 DB	 9
  001f2	09		 DB	 9
  001f3	09		 DB	 9
  001f4	09		 DB	 9
  001f5	09		 DB	 9
  001f6	09		 DB	 9
  001f7	09		 DB	 9
  001f8	09		 DB	 9
  001f9	09		 DB	 9
  001fa	09		 DB	 9
  001fb	09		 DB	 9
  001fc	09		 DB	 9
  001fd	09		 DB	 9
  001fe	09		 DB	 9
  001ff	09		 DB	 9
  00200	09		 DB	 9
  00201	09		 DB	 9
  00202	09		 DB	 9
  00203	09		 DB	 9
  00204	09		 DB	 9
  00205	09		 DB	 9
  00206	09		 DB	 9
  00207	04		 DB	 4
  00208	05		 DB	 5
  00209	06		 DB	 6
  0020a	07		 DB	 7
  0020b	09		 DB	 9
  0020c	09		 DB	 9
  0020d	09		 DB	 9
  0020e	09		 DB	 9
  0020f	09		 DB	 9
  00210	09		 DB	 9
  00211	09		 DB	 9
  00212	09		 DB	 9
  00213	09		 DB	 9
  00214	09		 DB	 9
  00215	09		 DB	 9
  00216	08		 DB	 8
_TEXT	ENDS
;	COMDAT text$x
text$x	SEGMENT
$L237767:
  00000	8d 4d f0	 lea	 ecx, DWORD PTR _strTemp$[ebp]
  00003	e9 00 00 00 00	 jmp	 ??1?$CStringT@DV?$StrTraitMFC@DV?$ChTraitsCRT@D@ATL@@@@@ATL@@QAE@XZ ; ATL::CStringT<char,StrTraitMFC<char,ATL::ChTraitsCRT<char> > >::~CStringT<char,StrTraitMFC<char,ATL::ChTraitsCRT<char> > >
__ehhandler$?GetContinentName@CContinent@@QAE?AV?$CStringT@DV?$StrTraitMFC@DV?$ChTraitsCRT@D@ATL@@@@@ATL@@E@Z:
  00008	b8 00 00 00 00	 mov	 eax, OFFSET FLAT:$T237867
  0000d	e9 00 00 00 00	 jmp	 ___CxxFrameHandler
text$x	ENDS
?GetContinentName@CContinent@@QAE?AV?$CStringT@DV?$StrTraitMFC@DV?$ChTraitsCRT@D@ATL@@@@@ATL@@E@Z ENDP ; CContinent::GetContinentName
PUBLIC	?_Xlen@?$vector@VCPoint@@V?$allocator@VCPoint@@@std@@@std@@IBEXXZ ; std::vector<CPoint,std::allocator<CPoint> >::_Xlen
PUBLIC	??_C@_0BD@OLBABOEK@vector?$DMT?$DO?5too?5long?$AA@ ; `string'
PUBLIC	__TI3?AVlength_error@std@@
PUBLIC	__CTA3?AVlength_error@std@@
PUBLIC	??_R0?AVlength_error@std@@@8			; std::length_error `RTTI Type Descriptor'
PUBLIC	__CT??_R0?AVlength_error@std@@@8??0length_error@std@@QAE@ABV01@@Z40
PUBLIC	??_R0?AVlogic_error@std@@@8			; std::logic_error `RTTI Type Descriptor'
PUBLIC	__CT??_R0?AVlogic_error@std@@@8??0logic_error@std@@QAE@ABV01@@Z40
PUBLIC	??_R0?AVexception@@@8				; exception `RTTI Type Descriptor'
PUBLIC	__CT??_R0?AVexception@@@8??0exception@@QAE@ABV0@@Z12
PUBLIC	??0logic_error@std@@QAE@ABV01@@Z		; std::logic_error::logic_error
PUBLIC	??0length_error@std@@QAE@ABV01@@Z		; std::length_error::length_error
EXTRN	??0exception@@QAE@ABV0@@Z:NEAR			; exception::exception
EXTRN	??_7type_info@@6B@:DWORD			; type_info::`vftable'
;	COMDAT xdata$x
; File c:\program files\microsoft visual studio .net 2003\vc7\include\stdexcept
xdata$x	SEGMENT
$T237996 DD	0ffffffffH
	DD	FLAT:$L237881
$T237993 DD	019930520H
	DD	01H
	DD	FLAT:$T237996
	DD	2 DUP(00H)
	DD	2 DUP(00H)
xdata$x	ENDS
;	COMDAT ??_C@_0BD@OLBABOEK@vector?$DMT?$DO?5too?5long?$AA@
CONST	SEGMENT
??_C@_0BD@OLBABOEK@vector?$DMT?$DO?5too?5long?$AA@ DB 'vector<T> too long'
	DB	00H						; `string'
CONST	ENDS
;	COMDAT __TI3?AVlength_error@std@@
xdata$x	SEGMENT
__TI3?AVlength_error@std@@ DD 00H
	DD	FLAT:??1length_error@std@@UAE@XZ
	DD	00H
	DD	FLAT:__CTA3?AVlength_error@std@@
xdata$x	ENDS
;	COMDAT __CTA3?AVlength_error@std@@
xdata$x	SEGMENT
__CTA3?AVlength_error@std@@ DD 03H
	DD	FLAT:__CT??_R0?AVlength_error@std@@@8??0length_error@std@@QAE@ABV01@@Z40
	DD	FLAT:__CT??_R0?AVlogic_error@std@@@8??0logic_error@std@@QAE@ABV01@@Z40
	DD	FLAT:__CT??_R0?AVexception@@@8??0exception@@QAE@ABV0@@Z12
xdata$x	ENDS
;	COMDAT __CT??_R0?AVlength_error@std@@@8??0length_error@std@@QAE@ABV01@@Z40
xdata$x	SEGMENT
__CT??_R0?AVlength_error@std@@@8??0length_error@std@@QAE@ABV01@@Z40 DD 00H
	DD	FLAT:??_R0?AVlength_error@std@@@8
	DD	00H
	DD	0ffffffffH
	ORG $+4
	DD	028H
	DD	FLAT:??0length_error@std@@QAE@ABV01@@Z
xdata$x	ENDS
;	COMDAT ??_R0?AVlength_error@std@@@8
_DATA	SEGMENT
??_R0?AVlength_error@std@@@8 DD FLAT:??_7type_info@@6B@	; std::length_error `RTTI Type Descriptor'
	DD	00H
	DB	'.?AVlength_error@std@@', 00H
_DATA	ENDS
;	COMDAT __CT??_R0?AVlogic_error@std@@@8??0logic_error@std@@QAE@ABV01@@Z40
xdata$x	SEGMENT
__CT??_R0?AVlogic_error@std@@@8??0logic_error@std@@QAE@ABV01@@Z40 DD 00H
	DD	FLAT:??_R0?AVlogic_error@std@@@8
	DD	00H
	DD	0ffffffffH
	ORG $+4
	DD	028H
	DD	FLAT:??0logic_error@std@@QAE@ABV01@@Z
xdata$x	ENDS
;	COMDAT ??_R0?AVlogic_error@std@@@8
_DATA	SEGMENT
??_R0?AVlogic_error@std@@@8 DD FLAT:??_7type_info@@6B@	; std::logic_error `RTTI Type Descriptor'
	DD	00H
	DB	'.?AVlogic_error@std@@', 00H
_DATA	ENDS
;	COMDAT __CT??_R0?AVexception@@@8??0exception@@QAE@ABV0@@Z12
xdata$x	SEGMENT
__CT??_R0?AVexception@@@8??0exception@@QAE@ABV0@@Z12 DD 00H
	DD	FLAT:??_R0?AVexception@@@8
	DD	00H
	DD	0ffffffffH
	ORG $+4
	DD	0cH
	DD	FLAT:??0exception@@QAE@ABV0@@Z
xdata$x	ENDS
;	COMDAT ??_R0?AVexception@@@8
_DATA	SEGMENT
??_R0?AVexception@@@8 DD FLAT:??_7type_info@@6B@	; exception `RTTI Type Descriptor'
	DD	00H
	DB	'.?AVexception@@', 00H
; Function compile flags: /Ogty
; File c:\program files\microsoft visual studio .net 2003\vc7\include\vector
_DATA	ENDS
;	COMDAT ?_Xlen@?$vector@VCPoint@@V?$allocator@VCPoint@@@std@@@std@@IBEXXZ
_TEXT	SEGMENT
$T237880 = -80						; size = 28
$T237879 = -52						; size = 40
__$EHRec$ = -12						; size = 12
?_Xlen@?$vector@VCPoint@@V?$allocator@VCPoint@@@std@@@std@@IBEXXZ PROC NEAR ; std::vector<CPoint,std::allocator<CPoint> >::_Xlen, COMDAT
; _this$ = ecx

; 883  : 		{	// report a length_error

  00000	6a ff		 push	 -1
  00002	68 00 00 00 00	 push	 __ehhandler$?_Xlen@?$vector@VCPoint@@V?$allocator@VCPoint@@@std@@@std@@IBEXXZ
  00007	64 a1 00 00 00
	00		 mov	 eax, DWORD PTR fs:__except_list
  0000d	50		 push	 eax
  0000e	64 89 25 00 00
	00 00		 mov	 DWORD PTR fs:__except_list, esp
  00015	83 ec 44	 sub	 esp, 68			; 00000044H

; 884  : 		_THROW(length_error, "vector<T> too long");

  00018	6a 12		 push	 18			; 00000012H
  0001a	68 00 00 00 00	 push	 OFFSET FLAT:??_C@_0BD@OLBABOEK@vector?$DMT?$DO?5too?5long?$AA@
  0001f	8d 4c 24 08	 lea	 ecx, DWORD PTR $T237880[esp+88]
  00023	c7 44 24 20 0f
	00 00 00	 mov	 DWORD PTR $T237880[esp+112], 15 ; 0000000fH
  0002b	c7 44 24 1c 00
	00 00 00	 mov	 DWORD PTR $T237880[esp+108], 0
  00033	c6 44 24 0c 00	 mov	 BYTE PTR $T237880[esp+92], 0
  00038	e8 00 00 00 00	 call	 ?assign@?$basic_string@DU?$char_traits@D@std@@V?$allocator@D@2@@std@@QAEAAV12@PBDI@Z ; std::basic_string<char,std::char_traits<char>,std::allocator<char> >::assign
  0003d	8d 04 24	 lea	 eax, DWORD PTR $T237880[esp+80]
  00040	50		 push	 eax
  00041	8d 4c 24 20	 lea	 ecx, DWORD PTR $T237879[esp+84]
  00045	c7 44 24 50 00
	00 00 00	 mov	 DWORD PTR __$EHRec$[esp+92], 0
  0004d	e8 00 00 00 00	 call	 ??0logic_error@std@@QAE@ABV?$basic_string@DU?$char_traits@D@std@@V?$allocator@D@2@@1@@Z ; std::logic_error::logic_error
  00052	68 00 00 00 00	 push	 OFFSET FLAT:__TI3?AVlength_error@std@@
  00057	8d 4c 24 20	 lea	 ecx, DWORD PTR $T237879[esp+84]
  0005b	51		 push	 ecx
  0005c	c7 44 24 24 00
	00 00 00	 mov	 DWORD PTR $T237879[esp+88], OFFSET FLAT:??_7length_error@std@@6B@
  00064	e8 00 00 00 00	 call	 __CxxThrowException@8
$L237997:
$L237995:
  00069	cc		 int	 3
_TEXT	ENDS
;	COMDAT text$x
text$x	SEGMENT
$L237881:
  00000	8d 4d b0	 lea	 ecx, DWORD PTR $T237880[ebp]
  00003	e9 00 00 00 00	 jmp	 ??1?$basic_string@DU?$char_traits@D@std@@V?$allocator@D@2@@std@@QAE@XZ ; std::basic_string<char,std::char_traits<char>,std::allocator<char> >::~basic_string<char,std::char_traits<char>,std::allocator<char> >
__ehhandler$?_Xlen@?$vector@VCPoint@@V?$allocator@VCPoint@@@std@@@std@@IBEXXZ:
  00008	b8 00 00 00 00	 mov	 eax, OFFSET FLAT:$T237993
  0000d	e9 00 00 00 00	 jmp	 ___CxxFrameHandler
text$x	ENDS
?_Xlen@?$vector@VCPoint@@V?$allocator@VCPoint@@@std@@@std@@IBEXXZ ENDP ; std::vector<CPoint,std::allocator<CPoint> >::_Xlen
;	COMDAT xdata$x
xdata$x	SEGMENT
$T238103 DD	0ffffffffH
	DD	FLAT:$L238003
$T238101 DD	019930520H
	DD	01H
	DD	FLAT:$T238103
	DD	2 DUP(00H)
	DD	2 DUP(00H)
; Function compile flags: /Ogty
xdata$x	ENDS
;	COMDAT ??0logic_error@std@@QAE@ABV01@@Z
_TEXT	SEGMENT
_this$ = -16						; size = 4
__$EHRec$ = -12						; size = 12
___that$ = 8						; size = 4
??0logic_error@std@@QAE@ABV01@@Z PROC NEAR		; std::logic_error::logic_error, COMDAT
; _this$ = ecx
  00000	6a ff		 push	 -1
  00002	68 00 00 00 00	 push	 __ehhandler$??0logic_error@std@@QAE@ABV01@@Z
  00007	64 a1 00 00 00
	00		 mov	 eax, DWORD PTR fs:__except_list
  0000d	50		 push	 eax
  0000e	64 89 25 00 00
	00 00		 mov	 DWORD PTR fs:__except_list, esp
  00015	51		 push	 ecx
  00016	56		 push	 esi
  00017	57		 push	 edi
  00018	8b 7c 24 1c	 mov	 edi, DWORD PTR ___that$[esp+20]
  0001c	8b f1		 mov	 esi, ecx
  0001e	57		 push	 edi
  0001f	89 74 24 0c	 mov	 DWORD PTR _this$[esp+28], esi
  00023	e8 00 00 00 00	 call	 ??0exception@@QAE@ABV0@@Z ; exception::exception
  00028	33 c0		 xor	 eax, eax
  0002a	6a ff		 push	 -1
  0002c	8d 4e 0c	 lea	 ecx, DWORD PTR [esi+12]
  0002f	c7 06 00 00 00
	00		 mov	 DWORD PTR [esi], OFFSET FLAT:??_7logic_error@std@@6B@
  00035	50		 push	 eax
  00036	83 c7 0c	 add	 edi, 12			; 0000000cH
  00039	c7 41 18 0f 00
	00 00		 mov	 DWORD PTR [ecx+24], 15	; 0000000fH
  00040	89 41 14	 mov	 DWORD PTR [ecx+20], eax
  00043	57		 push	 edi
  00044	89 44 24 20	 mov	 DWORD PTR __$EHRec$[esp+44], eax
  00048	88 41 04	 mov	 BYTE PTR [ecx+4], al
  0004b	e8 00 00 00 00	 call	 ?assign@?$basic_string@DU?$char_traits@D@std@@V?$allocator@D@2@@std@@QAEAAV12@ABV12@II@Z ; std::basic_string<char,std::char_traits<char>,std::allocator<char> >::assign
  00050	8b 4c 24 0c	 mov	 ecx, DWORD PTR __$EHRec$[esp+24]
  00054	5f		 pop	 edi
  00055	8b c6		 mov	 eax, esi
  00057	5e		 pop	 esi
  00058	64 89 0d 00 00
	00 00		 mov	 DWORD PTR fs:__except_list, ecx
  0005f	83 c4 10	 add	 esp, 16			; 00000010H
  00062	c2 04 00	 ret	 4
_TEXT	ENDS
;	COMDAT text$x
text$x	SEGMENT
$L238003:
  00000	8b 4d f0	 mov	 ecx, DWORD PTR _this$[ebp]
  00003	e9 00 00 00 00	 jmp	 ??1exception@@UAE@XZ	; exception::~exception
__ehhandler$??0logic_error@std@@QAE@ABV01@@Z:
  00008	b8 00 00 00 00	 mov	 eax, OFFSET FLAT:$T238101
  0000d	e9 00 00 00 00	 jmp	 ___CxxFrameHandler
text$x	ENDS
??0logic_error@std@@QAE@ABV01@@Z ENDP			; std::logic_error::logic_error
; Function compile flags: /Ogty
;	COMDAT ??0length_error@std@@QAE@ABV01@@Z
_TEXT	SEGMENT
___that$ = 8						; size = 4
??0length_error@std@@QAE@ABV01@@Z PROC NEAR		; std::length_error::length_error, COMDAT
; _this$ = ecx
  00000	8b 44 24 04	 mov	 eax, DWORD PTR ___that$[esp-4]
  00004	56		 push	 esi
  00005	50		 push	 eax
  00006	8b f1		 mov	 esi, ecx
  00008	e8 00 00 00 00	 call	 ??0logic_error@std@@QAE@ABV01@@Z
  0000d	c7 06 00 00 00
	00		 mov	 DWORD PTR [esi], OFFSET FLAT:??_7length_error@std@@6B@
  00013	8b c6		 mov	 eax, esi
  00015	5e		 pop	 esi
  00016	c2 04 00	 ret	 4
??0length_error@std@@QAE@ABV01@@Z ENDP			; std::length_error::length_error
_TEXT	ENDS
PUBLIC	??_G_Node@?$_Tree_nod@V?$_Tmap_traits@EV?$vector@VCPoint@@V?$allocator@VCPoint@@@std@@@std@@U?$less@E@2@V?$allocator@U?$pair@$$CBEV?$vector@VCPoint@@V?$allocator@VCPoint@@@std@@@std@@@std@@@2@$0A@@std@@@std@@QAEPAXI@Z ; std::_Tree_nod<std::_Tmap_traits<unsigned char,std::vector<CPoint,std::allocator<CPoint> >,std::less<unsigned char>,std::allocator<std::pair<unsigned char const ,std::vector<CPoint,std::allocator<CPoint> > > >,0> >::_Node::`scalar deleting destructor'
; Function compile flags: /Ogty
;	COMDAT ??_G_Node@?$_Tree_nod@V?$_Tmap_traits@EV?$vector@VCPoint@@V?$allocator@VCPoint@@@std@@@std@@U?$less@E@2@V?$allocator@U?$pair@$$CBEV?$vector@VCPoint@@V?$allocator@VCPoint@@@std@@@std@@@std@@@2@$0A@@std@@@std@@QAEPAXI@Z
_TEXT	SEGMENT
___flags$ = 8						; size = 4
??_G_Node@?$_Tree_nod@V?$_Tmap_traits@EV?$vector@VCPoint@@V?$allocator@VCPoint@@@std@@@std@@U?$less@E@2@V?$allocator@U?$pair@$$CBEV?$vector@VCPoint@@V?$allocator@VCPoint@@@std@@@std@@@std@@@2@$0A@@std@@@std@@QAEPAXI@Z PROC NEAR ; std::_Tree_nod<std::_Tmap_traits<unsigned char,std::vector<CPoint,std::allocator<CPoint> >,std::less<unsigned char>,std::allocator<std::pair<unsigned char const ,std::vector<CPoint,std::allocator<CPoint> > > >,0> >::_Node::`scalar deleting destructor', COMDAT
; _this$ = ecx
  00000	56		 push	 esi
  00001	8b f1		 mov	 esi, ecx
  00003	e8 00 00 00 00	 call	 ??1_Node@?$_Tree_nod@V?$_Tmap_traits@EV?$vector@VCPoint@@V?$allocator@VCPoint@@@std@@@std@@U?$less@E@2@V?$allocator@U?$pair@$$CBEV?$vector@VCPoint@@V?$allocator@VCPoint@@@std@@@std@@@std@@@2@$0A@@std@@@std@@QAE@XZ
  00008	f6 44 24 08 01	 test	 BYTE PTR ___flags$[esp], 1
  0000d	74 09		 je	 SHORT $L238113
  0000f	56		 push	 esi
  00010	e8 00 00 00 00	 call	 ??3@YAXPAX@Z		; operator delete
  00015	83 c4 04	 add	 esp, 4
$L238113:
  00018	8b c6		 mov	 eax, esi
  0001a	5e		 pop	 esi
  0001b	c2 04 00	 ret	 4
??_G_Node@?$_Tree_nod@V?$_Tmap_traits@EV?$vector@VCPoint@@V?$allocator@VCPoint@@@std@@@std@@U?$less@E@2@V?$allocator@U?$pair@$$CBEV?$vector@VCPoint@@V?$allocator@VCPoint@@@std@@@std@@@std@@@2@$0A@@std@@@std@@QAEPAXI@Z ENDP ; std::_Tree_nod<std::_Tmap_traits<unsigned char,std::vector<CPoint,std::allocator<CPoint> >,std::less<unsigned char>,std::allocator<std::pair<unsigned char const ,std::vector<CPoint,std::allocator<CPoint> > > >,0> >::_Node::`scalar deleting destructor'
_TEXT	ENDS
PUBLIC	??0?$CStringT@DV?$StrTraitMFC@DV?$ChTraitsCRT@D@ATL@@@@@ATL@@QAE@PBD@Z ; ATL::CStringT<char,StrTraitMFC<char,ATL::ChTraitsCRT<char> > >::CStringT<char,StrTraitMFC<char,ATL::ChTraitsCRT<char> > >
;	COMDAT xdata$x
; File c:\program files\microsoft visual studio .net 2003\vc7\atlmfc\include\atlsimpstr.h
xdata$x	SEGMENT
$T238198 DD	0ffffffffH
	DD	FLAT:$L238117
$T238192 DD	019930520H
	DD	01H
	DD	FLAT:$T238198
	DD	2 DUP(00H)
	DD	2 DUP(00H)
; Function compile flags: /Ogty
; File c:\program files\microsoft visual studio .net 2003\vc7\atlmfc\include\cstringt.h
xdata$x	ENDS
;	COMDAT ??0?$CStringT@DV?$StrTraitMFC@DV?$ChTraitsCRT@D@ATL@@@@@ATL@@QAE@PBD@Z
_TEXT	SEGMENT
_this$ = -16						; size = 4
__$EHRec$ = -12						; size = 12
_pszSrc$ = 8						; size = 4
??0?$CStringT@DV?$StrTraitMFC@DV?$ChTraitsCRT@D@ATL@@@@@ATL@@QAE@PBD@Z PROC NEAR ; ATL::CStringT<char,StrTraitMFC<char,ATL::ChTraitsCRT<char> > >::CStringT<char,StrTraitMFC<char,ATL::ChTraitsCRT<char> > >, COMDAT
; _this$ = ecx

; 830  : 	{

  00000	6a ff		 push	 -1
  00002	68 00 00 00 00	 push	 __ehhandler$??0?$CStringT@DV?$StrTraitMFC@DV?$ChTraitsCRT@D@ATL@@@@@ATL@@QAE@PBD@Z
  00007	64 a1 00 00 00
	00		 mov	 eax, DWORD PTR fs:__except_list
  0000d	50		 push	 eax
  0000e	64 89 25 00 00
	00 00		 mov	 DWORD PTR fs:__except_list, esp
  00015	51		 push	 ecx
  00016	56		 push	 esi
  00017	8b f1		 mov	 esi, ecx
  00019	57		 push	 edi
  0001a	89 74 24 08	 mov	 DWORD PTR _this$[esp+24], esi
  0001e	e8 00 00 00 00	 call	 ?AfxGetStringManager@@YGPAUIAtlStringMgr@ATL@@XZ ; AfxGetStringManager
  00023	8b 10		 mov	 edx, DWORD PTR [eax]
  00025	8b c8		 mov	 ecx, eax
  00027	ff 52 0c	 call	 DWORD PTR [edx+12]
  0002a	83 c0 10	 add	 eax, 16			; 00000010H
  0002d	89 06		 mov	 DWORD PTR [esi], eax

; 831  : 		if( !CheckImplicitLoad( pszSrc ) )

  0002f	8b 54 24 1c	 mov	 edx, DWORD PTR _pszSrc$[esp+20]
  00033	85 d2		 test	 edx, edx
  00035	c7 44 24 14 00
	00 00 00	 mov	 DWORD PTR __$EHRec$[esp+32], 0
  0003d	74 33		 je	 SHORT $L238194
  0003f	f7 c2 00 00 ff
	ff		 test	 edx, -65536		; ffff0000H
  00045	75 2f		 jne	 SHORT $L238189
  00047	0f b7 fa	 movzx	 edi, dx
  0004a	57		 push	 edi
  0004b	e8 00 00 00 00	 call	 ?AfxFindStringResourceHandle@@YGPAUHINSTANCE__@@I@Z ; AfxFindStringResourceHandle
  00050	85 c0		 test	 eax, eax
  00052	74 3e		 je	 SHORT $L238196
  00054	57		 push	 edi
  00055	50		 push	 eax
  00056	8b ce		 mov	 ecx, esi
  00058	e8 00 00 00 00	 call	 ?LoadStringA@?$CStringT@DV?$StrTraitMFC@DV?$ChTraitsCRT@D@ATL@@@@@ATL@@QAEHPAUHINSTANCE__@@I@Z ; ATL::CStringT<char,StrTraitMFC<char,ATL::ChTraitsCRT<char> > >::LoadStringA
  0005d	5f		 pop	 edi

; 835  : 		}
; 836  : 	}

  0005e	8b c6		 mov	 eax, esi
  00060	5e		 pop	 esi
  00061	8b 4c 24 04	 mov	 ecx, DWORD PTR __$EHRec$[esp+16]
  00065	64 89 0d 00 00
	00 00		 mov	 DWORD PTR fs:__except_list, ecx
  0006c	83 c4 10	 add	 esp, 16			; 00000010H
  0006f	c2 04 00	 ret	 4
$L238194:

; 832  : 		{
; 833  : 			// nDestLength is in XCHARs
; 834  : 			*this = pszSrc;

  00072	33 c0		 xor	 eax, eax
  00074	eb 13		 jmp	 SHORT $L238188
$L238189:
  00076	8b c2		 mov	 eax, edx
  00078	8d 78 01	 lea	 edi, DWORD PTR [eax+1]
  0007b	eb 03 8d 49 00	 npad	 5
$L238195:
  00080	8a 08		 mov	 cl, BYTE PTR [eax]
  00082	40		 inc	 eax
  00083	84 c9		 test	 cl, cl
  00085	75 f9		 jne	 SHORT $L238195
  00087	2b c7		 sub	 eax, edi
$L238188:
  00089	50		 push	 eax
  0008a	52		 push	 edx
  0008b	8b ce		 mov	 ecx, esi
  0008d	e8 00 00 00 00	 call	 ?SetString@?$CSimpleStringT@D$0A@@ATL@@QAEXPBDH@Z ; ATL::CSimpleStringT<char,0>::SetString
$L238196:

; 835  : 		}
; 836  : 	}

  00092	8b 4c 24 0c	 mov	 ecx, DWORD PTR __$EHRec$[esp+24]
  00096	5f		 pop	 edi
  00097	8b c6		 mov	 eax, esi
  00099	5e		 pop	 esi
  0009a	64 89 0d 00 00
	00 00		 mov	 DWORD PTR fs:__except_list, ecx
  000a1	83 c4 10	 add	 esp, 16			; 00000010H
  000a4	c2 04 00	 ret	 4
_TEXT	ENDS
;	COMDAT text$x
text$x	SEGMENT
$L238117:
  00000	8b 4d f0	 mov	 ecx, DWORD PTR _this$[ebp]
  00003	e9 00 00 00 00	 jmp	 ??1?$CSimpleStringT@D$0A@@ATL@@QAE@XZ ; ATL::CSimpleStringT<char,0>::~CSimpleStringT<char,0>
__ehhandler$??0?$CStringT@DV?$StrTraitMFC@DV?$ChTraitsCRT@D@ATL@@@@@ATL@@QAE@PBD@Z:
  00008	b8 00 00 00 00	 mov	 eax, OFFSET FLAT:$T238192
  0000d	e9 00 00 00 00	 jmp	 ___CxxFrameHandler
text$x	ENDS
??0?$CStringT@DV?$StrTraitMFC@DV?$ChTraitsCRT@D@ATL@@@@@ATL@@QAE@PBD@Z ENDP ; ATL::CStringT<char,StrTraitMFC<char,ATL::ChTraitsCRT<char> > >::CStringT<char,StrTraitMFC<char,ATL::ChTraitsCRT<char> > >
PUBLIC	?_Buy@?$vector@VCPoint@@V?$allocator@VCPoint@@@std@@@std@@IAE_NI@Z ; std::vector<CPoint,std::allocator<CPoint> >::_Buy
; Function compile flags: /Ogty
; File c:\program files\microsoft visual studio .net 2003\vc7\include\vector
;	COMDAT ?_Buy@?$vector@VCPoint@@V?$allocator@VCPoint@@@std@@@std@@IAE_NI@Z
_TEXT	SEGMENT
__Capacity$ = 8						; size = 4
?_Buy@?$vector@VCPoint@@V?$allocator@VCPoint@@@std@@@std@@IAE_NI@Z PROC NEAR ; std::vector<CPoint,std::allocator<CPoint> >::_Buy, COMDAT
; _this$ = ecx

; 771  : 		_Myfirst = 0, _Mylast = 0, _Myend = 0;
; 772  : 		if (_Capacity == 0)

  00000	8b 44 24 04	 mov	 eax, DWORD PTR __Capacity$[esp-4]
  00004	56		 push	 esi
  00005	8b f1		 mov	 esi, ecx
  00007	33 c9		 xor	 ecx, ecx
  00009	3b c1		 cmp	 eax, ecx
  0000b	89 4e 04	 mov	 DWORD PTR [esi+4], ecx
  0000e	89 4e 08	 mov	 DWORD PTR [esi+8], ecx
  00011	89 4e 0c	 mov	 DWORD PTR [esi+12], ecx
  00014	75 06		 jne	 SHORT $L231414

; 773  : 			return (false);

  00016	32 c0		 xor	 al, al
  00018	5e		 pop	 esi

; 783  : 		}

  00019	c2 04 00	 ret	 4
$L231414:

; 774  : 		else if (max_size() < _Capacity)

  0001c	3d ff ff ff 1f	 cmp	 eax, 536870911		; 1fffffffH
  00021	76 07		 jbe	 SHORT $L231416

; 775  : 			_Xlen();	// result too long

  00023	8b ce		 mov	 ecx, esi
  00025	e8 00 00 00 00	 call	 ?_Xlen@?$vector@VCPoint@@V?$allocator@VCPoint@@@std@@@std@@IBEXXZ ; std::vector<CPoint,std::allocator<CPoint> >::_Xlen
$L238229:
$L231416:
  0002a	57		 push	 edi

; 776  : 		else
; 777  : 			{	// nonempty array, allocate storage
; 778  : 			_Myfirst = this->_Alval.allocate(_Capacity);

  0002b	8d 3c c5 00 00
	00 00		 lea	 edi, DWORD PTR [eax*8]
  00032	57		 push	 edi
  00033	e8 00 00 00 00	 call	 ??2@YAPAXI@Z		; operator new

; 779  : 			_Mylast = _Myfirst;
; 780  : 			_Myend = _Myfirst + _Capacity;

  00038	03 f8		 add	 edi, eax
  0003a	83 c4 04	 add	 esp, 4
  0003d	89 7e 0c	 mov	 DWORD PTR [esi+12], edi
  00040	89 46 04	 mov	 DWORD PTR [esi+4], eax
  00043	89 46 08	 mov	 DWORD PTR [esi+8], eax
  00046	5f		 pop	 edi

; 781  : 			}
; 782  : 		return (true);

  00047	b0 01		 mov	 al, 1
  00049	5e		 pop	 esi

; 783  : 		}

  0004a	c2 04 00	 ret	 4
$L238228:
?_Buy@?$vector@VCPoint@@V?$allocator@VCPoint@@@std@@@std@@IAE_NI@Z ENDP ; std::vector<CPoint,std::allocator<CPoint> >::_Buy
_TEXT	ENDS
PUBLIC	?_Insert_n@?$vector@VCPoint@@V?$allocator@VCPoint@@@std@@@std@@IAEXViterator@12@IABVCPoint@@@Z ; std::vector<CPoint,std::allocator<CPoint> >::_Insert_n
;	COMDAT xdata$x
; File c:\program files\microsoft visual studio .net 2003\vc7\include\xutility
xdata$x	SEGMENT
$T238451 DD	0ffffffffH
	DD	00H
	DD	0ffffffffH
	DD	00H
	DD	0ffffffffH
	DD	00H
	DD	0ffffffffH
	DD	00H
$T238453 DD	00H
	DD	00H
	DD	00H
	DD	FLAT:$L238236
$T238454 DD	00H
	DD	00H
	DD	00H
	DD	FLAT:$L238238
$T238452 DD	00H
	DD	00H
	DD	01H
	DD	01H
	DD	FLAT:$T238453
	DD	02H
	DD	02H
	DD	03H
	DD	01H
	DD	FLAT:$T238454
$T238448 DD	019930520H
	DD	04H
	DD	FLAT:$T238451
	DD	02H
	DD	FLAT:$T238452
	DD	2 DUP(00H)
; Function compile flags: /Ogty
; File c:\program files\microsoft visual studio .net 2003\vc7\include\vector
xdata$x	ENDS
;	COMDAT ?_Insert_n@?$vector@VCPoint@@V?$allocator@VCPoint@@@std@@@std@@IAEXViterator@12@IABVCPoint@@@Z
_TEXT	SEGMENT
__Tmp$ = -28						; size = 8
__Newvec$231611 = -20					; size = 4
__$EHRec$ = -16						; size = 16
tv446 = 8						; size = 4
__Cat$238420 = 8					; size = 1
__Cat$238358 = 8					; size = 1
__Cat$238381 = 8					; size = 1
__Cat$238335 = 8					; size = 1
__Where$ = 8						; size = 4
tv445 = 12						; size = 4
__Count$ = 12						; size = 4
tv430 = 16						; size = 4
tv220 = 16						; size = 4
__Val$ = 16						; size = 4
?_Insert_n@?$vector@VCPoint@@V?$allocator@VCPoint@@@std@@@std@@IAEXViterator@12@IABVCPoint@@@Z PROC NEAR ; std::vector<CPoint,std::allocator<CPoint> >::_Insert_n, COMDAT
; _this$ = ecx

; 809  : 		{	// insert _Count * _Val at _Where

  00000	55		 push	 ebp
  00001	8b ec		 mov	 ebp, esp
  00003	6a ff		 push	 -1
  00005	68 00 00 00 00	 push	 __ehhandler$?_Insert_n@?$vector@VCPoint@@V?$allocator@VCPoint@@@std@@@std@@IAEXViterator@12@IABVCPoint@@@Z
  0000a	64 a1 00 00 00
	00		 mov	 eax, DWORD PTR fs:__except_list
  00010	50		 push	 eax
  00011	64 89 25 00 00
	00 00		 mov	 DWORD PTR fs:__except_list, esp
  00018	83 ec 10	 sub	 esp, 16			; 00000010H

; 810  : 		_Ty _Tmp = _Val;	// in case _Val is in sequence

  0001b	8b 45 10	 mov	 eax, DWORD PTR __Val$[ebp]
  0001e	8b 50 04	 mov	 edx, DWORD PTR [eax+4]
  00021	53		 push	 ebx
  00022	56		 push	 esi
  00023	8b f1		 mov	 esi, ecx
  00025	8b 08		 mov	 ecx, DWORD PTR [eax]
  00027	89 4d e4	 mov	 DWORD PTR __Tmp$[ebp], ecx

; 811  : 		size_type _Capacity = capacity();

  0002a	8b 4e 04	 mov	 ecx, DWORD PTR [esi+4]
  0002d	85 c9		 test	 ecx, ecx
  0002f	57		 push	 edi
  00030	89 65 f0	 mov	 DWORD PTR __$EHRec$[ebp], esp
  00033	89 55 e8	 mov	 DWORD PTR __Tmp$[ebp+4], edx
  00036	75 04		 jne	 SHORT $L238243
  00038	33 c0		 xor	 eax, eax
  0003a	eb 08		 jmp	 SHORT $L238244
$L238243:
  0003c	8b 46 0c	 mov	 eax, DWORD PTR [esi+12]
  0003f	2b c1		 sub	 eax, ecx
  00041	c1 f8 03	 sar	 eax, 3
$L238244:

; 812  : 
; 813  : 		if (_Count == 0)

  00044	8b 5d 0c	 mov	 ebx, DWORD PTR __Count$[ebp]
  00047	85 db		 test	 ebx, ebx
  00049	0f 84 e1 01 00
	00		 je	 $L231626

; 814  : 			;
; 815  : 		else if (max_size() - size() < _Count)

  0004f	85 c9		 test	 ecx, ecx
  00051	75 04		 jne	 SHORT $L238266
  00053	33 d2		 xor	 edx, edx
  00055	eb 08		 jmp	 SHORT $L238267
$L238266:
  00057	8b 56 08	 mov	 edx, DWORD PTR [esi+8]
  0005a	2b d1		 sub	 edx, ecx
  0005c	c1 fa 03	 sar	 edx, 3
$L238267:
  0005f	bf ff ff ff 1f	 mov	 edi, 536870911		; 1fffffffH
  00064	2b fa		 sub	 edi, edx
  00066	3b fb		 cmp	 edi, ebx
  00068	73 07		 jae	 SHORT $L231607

; 816  : 			_Xlen();	// result too long

  0006a	8b ce		 mov	 ecx, esi
  0006c	e8 00 00 00 00	 call	 ?_Xlen@?$vector@VCPoint@@V?$allocator@VCPoint@@@std@@@std@@IBEXXZ ; std::vector<CPoint,std::allocator<CPoint> >::_Xlen
$L238455:
$L231607:

; 817  : 		else if (_Capacity < size() + _Count)

  00071	85 c9		 test	 ecx, ecx
  00073	75 04		 jne	 SHORT $L238273
  00075	33 d2		 xor	 edx, edx
  00077	eb 08		 jmp	 SHORT $L238274
$L238273:
  00079	8b 56 08	 mov	 edx, DWORD PTR [esi+8]
  0007c	2b d1		 sub	 edx, ecx
  0007e	c1 fa 03	 sar	 edx, 3
$L238274:
  00081	03 d3		 add	 edx, ebx
  00083	3b c2		 cmp	 eax, edx
  00085	0f 83 f8 00 00
	00		 jae	 $L231609

; 818  : 			{	// not enough room, reallocate
; 819  : 			_Capacity = max_size() - _Capacity / 2 < _Capacity
; 820  : 				? 0 : _Capacity + _Capacity / 2;	// try to grow by 50%

  0008b	8b d0		 mov	 edx, eax
  0008d	d1 ea		 shr	 edx, 1
  0008f	bf ff ff ff 1f	 mov	 edi, 536870911		; 1fffffffH
  00094	2b fa		 sub	 edi, edx
  00096	3b f8		 cmp	 edi, eax
  00098	73 04		 jae	 SHORT $L238233
  0009a	33 c0		 xor	 eax, eax
  0009c	eb 02		 jmp	 SHORT $L238234
$L238233:
  0009e	03 c2		 add	 eax, edx
$L238234:

; 821  : 			if (_Capacity < size() + _Count)

  000a0	85 c9		 test	 ecx, ecx
  000a2	75 04		 jne	 SHORT $L238296
  000a4	33 d2		 xor	 edx, edx
  000a6	eb 08		 jmp	 SHORT $L238297
$L238296:
  000a8	8b 56 08	 mov	 edx, DWORD PTR [esi+8]
  000ab	2b d1		 sub	 edx, ecx
  000ad	c1 fa 03	 sar	 edx, 3
$L238297:
  000b0	03 d3		 add	 edx, ebx
  000b2	3b c2		 cmp	 eax, edx
  000b4	73 12		 jae	 SHORT $L231610

; 822  : 				_Capacity = size() + _Count;

  000b6	85 c9		 test	 ecx, ecx
  000b8	75 04		 jne	 SHORT $L238303
  000ba	33 c0		 xor	 eax, eax
  000bc	eb 08		 jmp	 SHORT $L238304
$L238303:
  000be	8b 46 08	 mov	 eax, DWORD PTR [esi+8]
  000c1	2b c1		 sub	 eax, ecx
  000c3	c1 f8 03	 sar	 eax, 3
$L238304:
  000c6	03 c3		 add	 eax, ebx
$L231610:

; 823  : 			pointer _Newvec = this->_Alval.allocate(_Capacity);

  000c8	c1 e0 03	 shl	 eax, 3
  000cb	50		 push	 eax
  000cc	89 45 0c	 mov	 DWORD PTR tv445[ebp], eax
  000cf	e8 00 00 00 00	 call	 ??2@YAPAXI@Z		; operator new

; 824  : 			pointer _Ptr = _Newvec;
; 825  : 
; 826  : 			_TRY_BEGIN
; 827  : 			_Ptr = _Ucopy(_Myfirst, _ITER_BASE(_Where),
; 828  : 				_Newvec);	// copy prefix

  000d4	8b 4d 08	 mov	 ecx, DWORD PTR __Cat$238335[ebp]
  000d7	8b 55 08	 mov	 edx, DWORD PTR __Where$[ebp]
  000da	51		 push	 ecx
  000db	8b f8		 mov	 edi, eax
  000dd	8b 46 04	 mov	 eax, DWORD PTR [esi+4]
  000e0	56		 push	 esi
  000e1	57		 push	 edi
  000e2	52		 push	 edx
  000e3	50		 push	 eax
  000e4	89 7d ec	 mov	 DWORD PTR __Newvec$231611[ebp], edi
  000e7	c7 45 fc 00 00
	00 00		 mov	 DWORD PTR __$EHRec$[ebp+12], 0
  000ee	e8 00 00 00 00	 call	 ??$_Uninit_copy@PAVCPoint@@PAV1@V?$allocator@VCPoint@@@std@@@std@@YAPAVCPoint@@PAV1@00AAV?$allocator@VCPoint@@@0@U_Nonscalar_ptr_iterator_tag@0@@Z ; std::_Uninit_copy<CPoint *,CPoint *,std::allocator<CPoint> >

; 829  : 			_Ptr = _Ufill(_Ptr, _Count, _Tmp);	// add new stuff

  000f3	8b 4d 08	 mov	 ecx, DWORD PTR __Cat$238358[ebp]
  000f6	83 c4 18	 add	 esp, 24			; 00000018H
  000f9	51		 push	 ecx
  000fa	56		 push	 esi
  000fb	8d 55 e4	 lea	 edx, DWORD PTR __Tmp$[ebp]
  000fe	52		 push	 edx
  000ff	53		 push	 ebx
  00100	50		 push	 eax
  00101	89 45 10	 mov	 DWORD PTR tv220[ebp], eax
  00104	e8 00 00 00 00	 call	 ??$_Uninit_fill_n@PAVCPoint@@IV1@V?$allocator@VCPoint@@@std@@@std@@YAXPAVCPoint@@IABV1@AAV?$allocator@VCPoint@@@0@U_Nonscalar_ptr_iterator_tag@0@@Z ; std::_Uninit_fill_n<CPoint *,unsigned int,CPoint,std::allocator<CPoint> >

; 830  : 			_Ucopy(_ITER_BASE(_Where), _Mylast, _Ptr);	// copy suffix

  00109	8b 55 08	 mov	 edx, DWORD PTR __Cat$238381[ebp]
  0010c	8b 45 10	 mov	 eax, DWORD PTR tv220[ebp]
  0010f	8b 4e 08	 mov	 ecx, DWORD PTR [esi+8]
  00112	83 c4 14	 add	 esp, 20			; 00000014H
  00115	52		 push	 edx
  00116	8d 04 d8	 lea	 eax, DWORD PTR [eax+ebx*8]
  00119	56		 push	 esi
  0011a	50		 push	 eax
  0011b	8b 45 08	 mov	 eax, DWORD PTR __Where$[ebp]
  0011e	51		 push	 ecx
  0011f	50		 push	 eax
  00120	e8 00 00 00 00	 call	 ??$_Uninit_copy@PAVCPoint@@PAV1@V?$allocator@VCPoint@@@std@@@std@@YAPAVCPoint@@PAV1@00AAV?$allocator@VCPoint@@@0@U_Nonscalar_ptr_iterator_tag@0@@Z ; std::_Uninit_copy<CPoint *,CPoint *,std::allocator<CPoint> >

; 835  : 			_CATCH_END
; 836  : 
; 837  : 			_Count += size();

  00125	8b 4e 04	 mov	 ecx, DWORD PTR [esi+4]
  00128	83 c4 14	 add	 esp, 20			; 00000014H
  0012b	85 c9		 test	 ecx, ecx
  0012d	75 04		 jne	 SHORT $L238392
  0012f	33 c0		 xor	 eax, eax
  00131	eb 08		 jmp	 SHORT $L238393
$L238392:
  00133	8b 46 08	 mov	 eax, DWORD PTR [esi+8]
  00136	2b c1		 sub	 eax, ecx
  00138	c1 f8 03	 sar	 eax, 3
$L238393:
  0013b	03 d8		 add	 ebx, eax

; 838  : 			if (_Myfirst != 0)

  0013d	85 c9		 test	 ecx, ecx
  0013f	74 09		 je	 SHORT $L238395

; 839  : 				{	// destroy and deallocate old array
; 840  : 				_Destroy(_Myfirst, _Mylast);
; 841  : 				this->_Alval.deallocate(_Myfirst, _Myend - _Myfirst);

  00141	51		 push	 ecx
  00142	e8 00 00 00 00	 call	 ??3@YAXPAX@Z		; operator delete
  00147	83 c4 04	 add	 esp, 4
$L238395:

; 842  : 				}
; 843  : 			_Myend = _Newvec + _Capacity;

  0014a	8b 4d 0c	 mov	 ecx, DWORD PTR tv445[ebp]
  0014d	03 cf		 add	 ecx, edi

; 844  : 			_Mylast = _Newvec + _Count;

  0014f	8d 14 df	 lea	 edx, DWORD PTR [edi+ebx*8]
  00152	89 4e 0c	 mov	 DWORD PTR [esi+12], ecx
  00155	89 56 08	 mov	 DWORD PTR [esi+8], edx

; 845  : 			_Myfirst = _Newvec;

  00158	89 7e 04	 mov	 DWORD PTR [esi+4], edi

; 873  : 			}
; 874  : 		}

  0015b	8b 4d f4	 mov	 ecx, DWORD PTR __$EHRec$[ebp+4]
  0015e	64 89 0d 00 00
	00 00		 mov	 DWORD PTR fs:__except_list, ecx
  00165	5f		 pop	 edi
  00166	5e		 pop	 esi
  00167	5b		 pop	 ebx
  00168	8b e5		 mov	 esp, ebp
  0016a	5d		 pop	 ebp
  0016b	c2 0c 00	 ret	 12			; 0000000cH
$L238236:

; 831  : 			_CATCH_ALL
; 832  : 			_Destroy(_Newvec, _Ptr);
; 833  : 			this->_Alval.deallocate(_Newvec, _Capacity);

  0016e	8b 45 ec	 mov	 eax, DWORD PTR __Newvec$231611[ebp]
  00171	50		 push	 eax
  00172	e8 00 00 00 00	 call	 ??3@YAXPAX@Z		; operator delete
  00177	83 c4 04	 add	 esp, 4
$L238238:

; 834  : 			_RERAISE;

  0017a	6a 00		 push	 0
  0017c	6a 00		 push	 0
  0017e	e8 00 00 00 00	 call	 __CxxThrowException@8
$L238456:
$L231609:

; 846  : 			}
; 847  : 		else if ((size_type)(_Mylast - _ITER_BASE(_Where)) < _Count)

  00183	8b 46 08	 mov	 eax, DWORD PTR [esi+8]
  00186	8b 7d 08	 mov	 edi, DWORD PTR __Where$[ebp]
  00189	8b c8		 mov	 ecx, eax
  0018b	2b cf		 sub	 ecx, edi
  0018d	c1 f9 03	 sar	 ecx, 3
  00190	3b cb		 cmp	 ecx, ebx

; 848  : 			{	// new stuff spills off end
; 849  : 			_Ucopy(_ITER_BASE(_Where), _Mylast,
; 850  : 				_ITER_BASE(_Where) + _Count);	// copy suffix

  00192	8d 0c dd 00 00
	00 00		 lea	 ecx, DWORD PTR [ebx*8]
  00199	89 4d 08	 mov	 DWORD PTR tv446[ebp], ecx
  0019c	8b 55 08	 mov	 edx, DWORD PTR __Cat$238420[ebp]
  0019f	52		 push	 edx
  001a0	89 45 10	 mov	 DWORD PTR tv430[ebp], eax
  001a3	56		 push	 esi
  001a4	73 5d		 jae	 SHORT $L231617
  001a6	03 cf		 add	 ecx, edi
  001a8	51		 push	 ecx
  001a9	50		 push	 eax
  001aa	57		 push	 edi
  001ab	e8 00 00 00 00	 call	 ??$_Uninit_copy@PAVCPoint@@PAV1@V?$allocator@VCPoint@@@std@@@std@@YAPAVCPoint@@PAV1@00AAV?$allocator@VCPoint@@@0@U_Nonscalar_ptr_iterator_tag@0@@Z ; std::_Uninit_copy<CPoint *,CPoint *,std::allocator<CPoint> >

; 851  : 
; 852  : 			_TRY_BEGIN
; 853  : 			_Ufill(_Mylast, _Count - (_Mylast - _ITER_BASE(_Where)),
; 854  : 				_Tmp);	// insert new stuff off end

  001b0	8b 46 08	 mov	 eax, DWORD PTR [esi+8]
  001b3	8b d0		 mov	 edx, eax
  001b5	83 c4 14	 add	 esp, 20			; 00000014H
  001b8	2b d7		 sub	 edx, edi
  001ba	8d 4d e4	 lea	 ecx, DWORD PTR __Tmp$[ebp]
  001bd	51		 push	 ecx
  001be	c1 fa 03	 sar	 edx, 3
  001c1	2b da		 sub	 ebx, edx
  001c3	53		 push	 ebx
  001c4	50		 push	 eax
  001c5	8b ce		 mov	 ecx, esi
  001c7	c7 45 fc 02 00
	00 00		 mov	 DWORD PTR __$EHRec$[ebp+12], 2
  001ce	e8 00 00 00 00	 call	 ?_Ufill@?$vector@VCPoint@@V?$allocator@VCPoint@@@std@@@std@@IAEPAVCPoint@@PAV3@IABV3@@Z ; std::vector<CPoint,std::allocator<CPoint> >::_Ufill

; 855  : 			_CATCH_ALL
; 856  : 			_Destroy(_ITER_BASE(_Where) + _Count, _Mylast + _Count);
; 857  : 			_RERAISE;
; 858  : 			_CATCH_END
; 859  : 
; 860  : 			_Mylast += _Count;

  001d3	8b 5e 08	 mov	 ebx, DWORD PTR [esi+8]
  001d6	8b 45 08	 mov	 eax, DWORD PTR tv446[ebp]
  001d9	03 d8		 add	 ebx, eax
  001db	89 5e 08	 mov	 DWORD PTR [esi+8], ebx

; 861  : 			fill(_ITER_BASE(_Where), _Mylast - _Count,
; 862  : 				_Tmp);	// insert up to old end

  001de	8d 4d e4	 lea	 ecx, DWORD PTR __Tmp$[ebp]
  001e1	8b f3		 mov	 esi, ebx
  001e3	51		 push	 ecx
  001e4	2b f0		 sub	 esi, eax
  001e6	56		 push	 esi
  001e7	57		 push	 edi
  001e8	e8 00 00 00 00	 call	 ??$fill@PAVCPoint@@V1@@std@@YAXPAVCPoint@@0ABV1@@Z ; std::fill<CPoint *,CPoint>
  001ed	83 c4 0c	 add	 esp, 12			; 0000000cH

; 873  : 			}
; 874  : 		}

  001f0	8b 4d f4	 mov	 ecx, DWORD PTR __$EHRec$[ebp+4]
  001f3	64 89 0d 00 00
	00 00		 mov	 DWORD PTR fs:__except_list, ecx
  001fa	5f		 pop	 edi
  001fb	5e		 pop	 esi
  001fc	5b		 pop	 ebx
  001fd	8b e5		 mov	 esp, ebp
  001ff	5d		 pop	 ebp
  00200	c2 0c 00	 ret	 12			; 0000000cH
$L231617:

; 863  : 			}
; 864  : 		else
; 865  : 			{	// new stuff can all be assigned
; 866  : 			pointer _Oldend = _Mylast;
; 867  : 			_Mylast = _Ucopy(_Oldend - _Count, _Oldend,
; 868  : 				_Mylast);	// copy suffix

  00203	50		 push	 eax
  00204	8b d8		 mov	 ebx, eax
  00206	2b d9		 sub	 ebx, ecx
  00208	50		 push	 eax
  00209	53		 push	 ebx
  0020a	e8 00 00 00 00	 call	 ??$_Uninit_copy@PAVCPoint@@PAV1@V?$allocator@VCPoint@@@std@@@std@@YAPAVCPoint@@PAV1@00AAV?$allocator@VCPoint@@@0@U_Nonscalar_ptr_iterator_tag@0@@Z ; std::_Uninit_copy<CPoint *,CPoint *,std::allocator<CPoint> >
  0020f	89 46 08	 mov	 DWORD PTR [esi+8], eax

; 869  : 			copy_backward(_ITER_BASE(_Where), _Oldend - _Count,
; 870  : 				_Oldend);	// copy hole

  00212	8b 45 10	 mov	 eax, DWORD PTR tv430[ebp]
  00215	50		 push	 eax
  00216	53		 push	 ebx
  00217	57		 push	 edi
  00218	e8 00 00 00 00	 call	 ??$copy_backward@PAVCPoint@@PAV1@@std@@YAPAVCPoint@@PAV1@00@Z ; std::copy_backward<CPoint *,CPoint *>

; 871  : 			fill(_ITER_BASE(_Where), _ITER_BASE(_Where) + _Count,
; 872  : 				_Tmp);	// insert into hole

  0021d	8b 55 08	 mov	 edx, DWORD PTR tv446[ebp]
  00220	8d 4d e4	 lea	 ecx, DWORD PTR __Tmp$[ebp]
  00223	51		 push	 ecx
  00224	03 d7		 add	 edx, edi
  00226	52		 push	 edx
  00227	57		 push	 edi
  00228	e8 00 00 00 00	 call	 ??$fill@PAVCPoint@@V1@@std@@YAXPAVCPoint@@0ABV1@@Z ; std::fill<CPoint *,CPoint>
  0022d	83 c4 2c	 add	 esp, 44			; 0000002cH
$L231626:

; 873  : 			}
; 874  : 		}

  00230	8b 4d f4	 mov	 ecx, DWORD PTR __$EHRec$[ebp+4]
  00233	5f		 pop	 edi
  00234	5e		 pop	 esi
  00235	64 89 0d 00 00
	00 00		 mov	 DWORD PTR fs:__except_list, ecx
  0023c	5b		 pop	 ebx
  0023d	8b e5		 mov	 esp, ebp
  0023f	5d		 pop	 ebp
  00240	c2 0c 00	 ret	 12			; 0000000cH
$L238450:
_TEXT	ENDS
;	COMDAT text$x
text$x	SEGMENT
__ehhandler$?_Insert_n@?$vector@VCPoint@@V?$allocator@VCPoint@@@std@@@std@@IAEXViterator@12@IABVCPoint@@@Z:
  00000	b8 00 00 00 00	 mov	 eax, OFFSET FLAT:$T238448
  00005	e9 00 00 00 00	 jmp	 ___CxxFrameHandler
text$x	ENDS
?_Insert_n@?$vector@VCPoint@@V?$allocator@VCPoint@@@std@@@std@@IAEXViterator@12@IABVCPoint@@@Z ENDP ; std::vector<CPoint,std::allocator<CPoint> >::_Insert_n
PUBLIC	??$_Destroy@U_Node@?$_Tree_nod@V?$_Tmap_traits@EV?$vector@VCPoint@@V?$allocator@VCPoint@@@std@@@std@@U?$less@E@2@V?$allocator@U?$pair@$$CBEV?$vector@VCPoint@@V?$allocator@VCPoint@@@std@@@std@@@std@@@2@$0A@@std@@@std@@@std@@YAXPAU_Node@?$_Tree_nod@V?$_Tmap_traits@EV?$vector@VCPoint@@V?$allocator@VCPoint@@@std@@@std@@U?$less@E@2@V?$allocator@U?$pair@$$CBEV?$vector@VCPoint@@V?$allocator@VCPoint@@@std@@@std@@@std@@@2@$0A@@std@@@0@@Z ; std::_Destroy<std::_Tree_nod<std::_Tmap_traits<unsigned char,std::vector<CPoint,std::allocator<CPoint> >,std::less<unsigned char>,std::allocator<std::pair<unsigned char const ,std::vector<CPoint,std::allocator<CPoint> > > >,0> >::_Node>
; Function compile flags: /Ogty
; File c:\program files\microsoft visual studio .net 2003\vc7\include\xmemory
;	COMDAT ??$_Destroy@U_Node@?$_Tree_nod@V?$_Tmap_traits@EV?$vector@VCPoint@@V?$allocator@VCPoint@@@std@@@std@@U?$less@E@2@V?$allocator@U?$pair@$$CBEV?$vector@VCPoint@@V?$allocator@VCPoint@@@std@@@std@@@std@@@2@$0A@@std@@@std@@@std@@YAXPAU_Node@?$_Tree_nod@V?$_Tmap_traits@EV?$vector@VCPoint@@V?$allocator@VCPoint@@@std@@@std@@U?$less@E@2@V?$allocator@U?$pair@$$CBEV?$vector@VCPoint@@V?$allocator@VCPoint@@@std@@@std@@@std@@@2@$0A@@std@@@0@@Z
_TEXT	SEGMENT
__Ptr$ = 8						; size = 4
??$_Destroy@U_Node@?$_Tree_nod@V?$_Tmap_traits@EV?$vector@VCPoint@@V?$allocator@VCPoint@@@std@@@std@@U?$less@E@2@V?$allocator@U?$pair@$$CBEV?$vector@VCPoint@@V?$allocator@VCPoint@@@std@@@std@@@std@@@2@$0A@@std@@@std@@@std@@YAXPAU_Node@?$_Tree_nod@V?$_Tmap_traits@EV?$vector@VCPoint@@V?$allocator@VCPoint@@@std@@@std@@U?$less@E@2@V?$allocator@U?$pair@$$CBEV?$vector@VCPoint@@V?$allocator@VCPoint@@@std@@@std@@@std@@@2@$0A@@std@@@0@@Z PROC NEAR ; std::_Destroy<std::_Tree_nod<std::_Tmap_traits<unsigned char,std::vector<CPoint,std::allocator<CPoint> >,std::less<unsigned char>,std::allocator<std::pair<unsigned char const ,std::vector<CPoint,std::allocator<CPoint> > > >,0> >::_Node>, COMDAT

; 49   : 	_DESTRUCTOR(_Ty, _Ptr);

  00000	8b 4c 24 04	 mov	 ecx, DWORD PTR __Ptr$[esp-4]
  00004	e9 00 00 00 00	 jmp	 ??1_Node@?$_Tree_nod@V?$_Tmap_traits@EV?$vector@VCPoint@@V?$allocator@VCPoint@@@std@@@std@@U?$less@E@2@V?$allocator@U?$pair@$$CBEV?$vector@VCPoint@@V?$allocator@VCPoint@@@std@@@std@@@std@@@2@$0A@@std@@@std@@QAE@XZ
??$_Destroy@U_Node@?$_Tree_nod@V?$_Tmap_traits@EV?$vector@VCPoint@@V?$allocator@VCPoint@@@std@@@std@@U?$less@E@2@V?$allocator@U?$pair@$$CBEV?$vector@VCPoint@@V?$allocator@VCPoint@@@std@@@std@@@std@@@2@$0A@@std@@@std@@@std@@YAXPAU_Node@?$_Tree_nod@V?$_Tmap_traits@EV?$vector@VCPoint@@V?$allocator@VCPoint@@@std@@@std@@U?$less@E@2@V?$allocator@U?$pair@$$CBEV?$vector@VCPoint@@V?$allocator@VCPoint@@@std@@@std@@@std@@@2@$0A@@std@@@0@@Z ENDP ; std::_Destroy<std::_Tree_nod<std::_Tmap_traits<unsigned char,std::vector<CPoint,std::allocator<CPoint> >,std::less<unsigned char>,std::allocator<std::pair<unsigned char const ,std::vector<CPoint,std::allocator<CPoint> > > >,0> >::_Node>
_TEXT	ENDS
PUBLIC	??0?$vector@VCPoint@@V?$allocator@VCPoint@@@std@@@std@@QAE@XZ ; std::vector<CPoint,std::allocator<CPoint> >::vector<CPoint,std::allocator<CPoint> >
; Function compile flags: /Ogty
; File c:\program files\microsoft visual studio .net 2003\vc7\include\vector
;	COMDAT ??0?$vector@VCPoint@@V?$allocator@VCPoint@@@std@@@std@@QAE@XZ
_TEXT	SEGMENT
??0?$vector@VCPoint@@V?$allocator@VCPoint@@@std@@@std@@QAE@XZ PROC NEAR ; std::vector<CPoint,std::allocator<CPoint> >::vector<CPoint,std::allocator<CPoint> >, COMDAT
; _this$ = ecx

; 299  : 		{	// construct empty vector

  00000	8b c1		 mov	 eax, ecx

; 300  : 		_Buy(0);

  00002	33 c9		 xor	 ecx, ecx
  00004	89 48 04	 mov	 DWORD PTR [eax+4], ecx
  00007	89 48 08	 mov	 DWORD PTR [eax+8], ecx
  0000a	89 48 0c	 mov	 DWORD PTR [eax+12], ecx

; 301  : 		}

  0000d	c3		 ret	 0
??0?$vector@VCPoint@@V?$allocator@VCPoint@@@std@@@std@@QAE@XZ ENDP ; std::vector<CPoint,std::allocator<CPoint> >::vector<CPoint,std::allocator<CPoint> >
_TEXT	ENDS
PUBLIC	??0?$vector@VCPoint@@V?$allocator@VCPoint@@@std@@@std@@QAE@ABV01@@Z ; std::vector<CPoint,std::allocator<CPoint> >::vector<CPoint,std::allocator<CPoint> >
;	COMDAT xdata$x
; File c:\program files\microsoft visual studio .net 2003\vc7\include\xutility
xdata$x	SEGMENT
$T238647 DD	0ffffffffH
	DD	00H
	DD	0ffffffffH
	DD	00H
$T238649 DD	00H
	DD	00H
	DD	00H
	DD	FLAT:$L238532
$T238648 DD	00H
	DD	00H
	DD	01H
	DD	01H
	DD	FLAT:$T238649
$T238643 DD	019930520H
	DD	02H
	DD	FLAT:$T238647
	DD	01H
	DD	FLAT:$T238648
	DD	2 DUP(00H)
; Function compile flags: /Ogty
; File c:\program files\microsoft visual studio .net 2003\vc7\include\vector
xdata$x	ENDS
;	COMDAT ??0?$vector@VCPoint@@V?$allocator@VCPoint@@@std@@@std@@QAE@ABV01@@Z
_TEXT	SEGMENT
_this$ = -20						; size = 4
__$EHRec$ = -16						; size = 16
__Cat$238636 = 8					; size = 1
__Right$ = 8						; size = 4
??0?$vector@VCPoint@@V?$allocator@VCPoint@@@std@@@std@@QAE@ABV01@@Z PROC NEAR ; std::vector<CPoint,std::allocator<CPoint> >::vector<CPoint,std::allocator<CPoint> >, COMDAT
; _this$ = ecx

; 329  : 		{	// construct by copying _Right

  00000	55		 push	 ebp
  00001	8b ec		 mov	 ebp, esp
  00003	6a ff		 push	 -1
  00005	68 00 00 00 00	 push	 __ehhandler$??0?$vector@VCPoint@@V?$allocator@VCPoint@@@std@@@std@@QAE@ABV01@@Z
  0000a	64 a1 00 00 00
	00		 mov	 eax, DWORD PTR fs:__except_list
  00010	50		 push	 eax
  00011	64 89 25 00 00
	00 00		 mov	 DWORD PTR fs:__except_list, esp
  00018	83 ec 08	 sub	 esp, 8
  0001b	53		 push	 ebx

; 330  : 		if (_Buy(_Right.size()))

  0001c	8b 5d 08	 mov	 ebx, DWORD PTR __Right$[ebp]
  0001f	56		 push	 esi
  00020	8b f1		 mov	 esi, ecx
  00022	8b 4b 04	 mov	 ecx, DWORD PTR [ebx+4]
  00025	33 d2		 xor	 edx, edx
  00027	3b ca		 cmp	 ecx, edx
  00029	57		 push	 edi
  0002a	89 65 f0	 mov	 DWORD PTR __$EHRec$[ebp], esp
  0002d	89 75 ec	 mov	 DWORD PTR _this$[ebp], esi
  00030	75 04		 jne	 SHORT $L238551
  00032	33 c0		 xor	 eax, eax
  00034	eb 08		 jmp	 SHORT $L238552
$L238551:
  00036	8b 43 08	 mov	 eax, DWORD PTR [ebx+8]
  00039	2b c1		 sub	 eax, ecx
  0003b	c1 f8 03	 sar	 eax, 3
$L238552:
  0003e	3b c2		 cmp	 eax, edx
  00040	89 56 04	 mov	 DWORD PTR [esi+4], edx
  00043	89 56 08	 mov	 DWORD PTR [esi+8], edx
  00046	89 56 0c	 mov	 DWORD PTR [esi+12], edx
  00049	74 46		 je	 SHORT $L231062
  0004b	3d ff ff ff 1f	 cmp	 eax, 536870911		; 1fffffffH
  00050	76 07		 jbe	 SHORT $L238593
  00052	8b ce		 mov	 ecx, esi
  00054	e8 00 00 00 00	 call	 ?_Xlen@?$vector@VCPoint@@V?$allocator@VCPoint@@@std@@@std@@IBEXXZ ; std::vector<CPoint,std::allocator<CPoint> >::_Xlen
$L238650:
$L238593:
  00059	8d 3c c5 00 00
	00 00		 lea	 edi, DWORD PTR [eax*8]
  00060	57		 push	 edi
  00061	e8 00 00 00 00	 call	 ??2@YAPAXI@Z		; operator new

; 331  : 			_TRY_BEGIN
; 332  : 			_Mylast = _Ucopy(_Right.begin(), _Right.end(), _Myfirst);

  00066	8b 55 08	 mov	 edx, DWORD PTR __Cat$238636[ebp]
  00069	52		 push	 edx
  0006a	03 f8		 add	 edi, eax
  0006c	56		 push	 esi
  0006d	89 46 04	 mov	 DWORD PTR [esi+4], eax
  00070	89 46 08	 mov	 DWORD PTR [esi+8], eax
  00073	89 7e 0c	 mov	 DWORD PTR [esi+12], edi
  00076	8b 4b 08	 mov	 ecx, DWORD PTR [ebx+8]
  00079	8b 5b 04	 mov	 ebx, DWORD PTR [ebx+4]
  0007c	50		 push	 eax
  0007d	51		 push	 ecx
  0007e	53		 push	 ebx
  0007f	c7 45 fc 00 00
	00 00		 mov	 DWORD PTR __$EHRec$[ebp+12], 0
  00086	e8 00 00 00 00	 call	 ??$_Uninit_copy@Vconst_iterator@?$vector@VCPoint@@V?$allocator@VCPoint@@@std@@@std@@PAVCPoint@@V?$allocator@VCPoint@@@3@@std@@YAPAVCPoint@@Vconst_iterator@?$vector@VCPoint@@V?$allocator@VCPoint@@@std@@@0@0PAV1@AAV?$allocator@VCPoint@@@0@U_Nonscalar_ptr_iterator_tag@0@@Z ; std::_Uninit_copy<std::vector<CPoint,std::allocator<CPoint> >::const_iterator,CPoint *,std::allocator<CPoint> >
  0008b	83 c4 18	 add	 esp, 24			; 00000018H
  0008e	89 46 08	 mov	 DWORD PTR [esi+8], eax
$L231062:

; 336  : 			_CATCH_END
; 337  : 		}

  00091	8b 4d f4	 mov	 ecx, DWORD PTR __$EHRec$[ebp+4]
  00094	5f		 pop	 edi
  00095	8b c6		 mov	 eax, esi
  00097	5e		 pop	 esi
  00098	64 89 0d 00 00
	00 00		 mov	 DWORD PTR fs:__except_list, ecx
  0009f	5b		 pop	 ebx
  000a0	8b e5		 mov	 esp, ebp
  000a2	5d		 pop	 ebp
  000a3	c2 04 00	 ret	 4
$L238532:

; 333  : 			_CATCH_ALL
; 334  : 			_Tidy();

  000a6	8b 4d ec	 mov	 ecx, DWORD PTR _this$[ebp]
  000a9	e8 00 00 00 00	 call	 ?_Tidy@?$vector@VCPoint@@V?$allocator@VCPoint@@@std@@@std@@IAEXXZ ; std::vector<CPoint,std::allocator<CPoint> >::_Tidy

; 335  : 			_RERAISE;

  000ae	6a 00		 push	 0
  000b0	6a 00		 push	 0
  000b2	e8 00 00 00 00	 call	 __CxxThrowException@8
$L238651:
$L238646:
  000b7	cc		 int	 3
_TEXT	ENDS
;	COMDAT text$x
text$x	SEGMENT
__ehhandler$??0?$vector@VCPoint@@V?$allocator@VCPoint@@@std@@@std@@QAE@ABV01@@Z:
  00000	b8 00 00 00 00	 mov	 eax, OFFSET FLAT:$T238643
  00005	e9 00 00 00 00	 jmp	 ___CxxFrameHandler
text$x	ENDS
??0?$vector@VCPoint@@V?$allocator@VCPoint@@@std@@@std@@QAE@ABV01@@Z ENDP ; std::vector<CPoint,std::allocator<CPoint> >::vector<CPoint,std::allocator<CPoint> >
PUBLIC	??4?$vector@VCPoint@@V?$allocator@VCPoint@@@std@@@std@@QAEAAV01@ABV01@@Z ; std::vector<CPoint,std::allocator<CPoint> >::operator=
; Function compile flags: /Ogty
;	COMDAT ??4?$vector@VCPoint@@V?$allocator@VCPoint@@@std@@@std@@QAEAAV01@ABV01@@Z
_TEXT	SEGMENT
__Cat$238744 = 8					; size = 1
__Right$ = 8						; size = 4
??4?$vector@VCPoint@@V?$allocator@VCPoint@@@std@@@std@@QAEAAV01@ABV01@@Z PROC NEAR ; std::vector<CPoint,std::allocator<CPoint> >::operator=, COMDAT
; _this$ = ecx

; 392  : 		{	// assign _Right

  00000	56		 push	 esi
  00001	57		 push	 edi

; 393  : 		if (this != &_Right)

  00002	8b 7c 24 0c	 mov	 edi, DWORD PTR __Right$[esp+4]
  00006	8b f1		 mov	 esi, ecx
  00008	3b f7		 cmp	 esi, edi
  0000a	0f 84 2d 01 00
	00		 je	 $L238763
  00010	53		 push	 ebx

; 394  : 			{	// worth doing
; 395  : 
; 396  : 
; 397  : 			if (_Right.size() == 0)

  00011	8b 5f 04	 mov	 ebx, DWORD PTR [edi+4]
  00014	33 d2		 xor	 edx, edx
  00016	3b da		 cmp	 ebx, edx
  00018	55		 push	 ebp
  00019	74 0e		 je	 SHORT $L238761
  0001b	8b 6f 08	 mov	 ebp, DWORD PTR [edi+8]
  0001e	8b cd		 mov	 ecx, ebp
  00020	2b cb		 sub	 ecx, ebx
  00022	c1 f9 03	 sar	 ecx, 3
  00025	3b ca		 cmp	 ecx, edx
  00027	75 24		 jne	 SHORT $L231154
$L238761:

; 398  : 				clear();	// new sequence empty, free storage

  00029	8b 46 04	 mov	 eax, DWORD PTR [esi+4]
  0002c	3b c2		 cmp	 eax, edx
  0002e	74 0b		 je	 SHORT $L238679
  00030	50		 push	 eax
  00031	e8 00 00 00 00	 call	 ??3@YAXPAX@Z		; operator delete
  00036	83 c4 04	 add	 esp, 4
  00039	33 d2		 xor	 edx, edx
$L238679:
  0003b	5d		 pop	 ebp
  0003c	5b		 pop	 ebx
  0003d	5f		 pop	 edi
  0003e	89 56 04	 mov	 DWORD PTR [esi+4], edx
  00041	89 56 08	 mov	 DWORD PTR [esi+8], edx
  00044	89 56 0c	 mov	 DWORD PTR [esi+12], edx

; 422  : 				}
; 423  : 			}
; 424  : 		return (*this);

  00047	8b c6		 mov	 eax, esi
  00049	5e		 pop	 esi

; 425  : 		}

  0004a	c2 04 00	 ret	 4
$L231154:

; 399  : 			else if (_Right.size() <= size())

  0004d	8b 46 04	 mov	 eax, DWORD PTR [esi+4]
  00050	3b c2		 cmp	 eax, edx
  00052	75 04		 jne	 SHORT $L238693
  00054	33 d2		 xor	 edx, edx
  00056	eb 08		 jmp	 SHORT $L238694
$L238693:
  00058	8b 56 08	 mov	 edx, DWORD PTR [esi+8]
  0005b	2b d0		 sub	 edx, eax
  0005d	c1 fa 03	 sar	 edx, 3
$L238694:
  00060	3b ca		 cmp	 ecx, edx
  00062	77 40		 ja	 SHORT $L231156

; 400  : 				{	// enough elements, copy new and destroy old
; 401  : 				pointer _Ptr = copy(_Right._Myfirst, _Right._Mylast,
; 402  : 					_Myfirst);	// copy new

  00064	50		 push	 eax
  00065	55		 push	 ebp
  00066	53		 push	 ebx
  00067	e8 00 00 00 00	 call	 ??$copy@PAVCPoint@@PAV1@@std@@YAPAVCPoint@@PAV1@00@Z ; std::copy<CPoint *,CPoint *>

; 403  : 				_Destroy(_Ptr, _Mylast);	// destroy old
; 404  : 				_Mylast = _Myfirst + _Right.size();

  0006c	8b 47 04	 mov	 eax, DWORD PTR [edi+4]
  0006f	83 c4 0c	 add	 esp, 12			; 0000000cH
  00072	85 c0		 test	 eax, eax
  00074	75 14		 jne	 SHORT $L238700
  00076	8b 46 04	 mov	 eax, DWORD PTR [esi+4]
  00079	5d		 pop	 ebp
  0007a	33 ff		 xor	 edi, edi
  0007c	8d 0c f8	 lea	 ecx, DWORD PTR [eax+edi*8]
  0007f	5b		 pop	 ebx
  00080	5f		 pop	 edi
  00081	89 4e 08	 mov	 DWORD PTR [esi+8], ecx

; 422  : 				}
; 423  : 			}
; 424  : 		return (*this);

  00084	8b c6		 mov	 eax, esi
  00086	5e		 pop	 esi

; 425  : 		}

  00087	c2 04 00	 ret	 4

; 403  : 				_Destroy(_Ptr, _Mylast);	// destroy old
; 404  : 				_Mylast = _Myfirst + _Right.size();

$L238700:
  0008a	8b 7f 08	 mov	 edi, DWORD PTR [edi+8]
  0008d	2b f8		 sub	 edi, eax
  0008f	8b 46 04	 mov	 eax, DWORD PTR [esi+4]
  00092	5d		 pop	 ebp
  00093	c1 ff 03	 sar	 edi, 3
  00096	8d 0c f8	 lea	 ecx, DWORD PTR [eax+edi*8]
  00099	5b		 pop	 ebx
  0009a	5f		 pop	 edi
  0009b	89 4e 08	 mov	 DWORD PTR [esi+8], ecx

; 422  : 				}
; 423  : 			}
; 424  : 		return (*this);

  0009e	8b c6		 mov	 eax, esi
  000a0	5e		 pop	 esi

; 425  : 		}

  000a1	c2 04 00	 ret	 4
$L231156:

; 405  : 				}
; 406  : 			else if (_Right.size() <= capacity())

  000a4	85 c0		 test	 eax, eax
  000a6	75 04		 jne	 SHORT $L238714
  000a8	33 d2		 xor	 edx, edx
  000aa	eb 08		 jmp	 SHORT $L238715
$L238714:
  000ac	8b 56 0c	 mov	 edx, DWORD PTR [esi+12]
  000af	2b d0		 sub	 edx, eax
  000b1	c1 fa 03	 sar	 edx, 3
$L238715:
  000b4	3b ca		 cmp	 ecx, edx
  000b6	77 41		 ja	 SHORT $L231166

; 407  : 				{	// enough room, copy and construct new
; 408  : 				pointer _Ptr = _Right._Myfirst + size();

  000b8	85 c0		 test	 eax, eax
  000ba	75 04		 jne	 SHORT $L238721
  000bc	33 d2		 xor	 edx, edx
  000be	eb 08		 jmp	 SHORT $L238722
$L238721:
  000c0	8b 56 08	 mov	 edx, DWORD PTR [esi+8]
  000c3	2b d0		 sub	 edx, eax
  000c5	c1 fa 03	 sar	 edx, 3
$L238722:
  000c8	8b 4f 04	 mov	 ecx, DWORD PTR [edi+4]

; 409  : 				copy(_Right._Myfirst, _Ptr, _Myfirst);

  000cb	50		 push	 eax
  000cc	8d 1c d1	 lea	 ebx, DWORD PTR [ecx+edx*8]
  000cf	53		 push	 ebx
  000d0	51		 push	 ecx
  000d1	e8 00 00 00 00	 call	 ??$copy@PAVCPoint@@PAV1@@std@@YAPAVCPoint@@PAV1@00@Z ; std::copy<CPoint *,CPoint *>

; 410  : 				_Mylast = _Ucopy(_Ptr, _Right._Mylast, _Mylast);

  000d6	8b 54 24 20	 mov	 edx, DWORD PTR __Cat$238744[esp+24]
  000da	8b 46 08	 mov	 eax, DWORD PTR [esi+8]
  000dd	8b 7f 08	 mov	 edi, DWORD PTR [edi+8]
  000e0	52		 push	 edx
  000e1	56		 push	 esi
  000e2	50		 push	 eax
  000e3	57		 push	 edi
  000e4	53		 push	 ebx
  000e5	e8 00 00 00 00	 call	 ??$_Uninit_copy@PAVCPoint@@PAV1@V?$allocator@VCPoint@@@std@@@std@@YAPAVCPoint@@PAV1@00AAV?$allocator@VCPoint@@@0@U_Nonscalar_ptr_iterator_tag@0@@Z ; std::_Uninit_copy<CPoint *,CPoint *,std::allocator<CPoint> >
  000ea	83 c4 20	 add	 esp, 32			; 00000020H
  000ed	5d		 pop	 ebp
  000ee	5b		 pop	 ebx
  000ef	89 46 08	 mov	 DWORD PTR [esi+8], eax
  000f2	5f		 pop	 edi

; 422  : 				}
; 423  : 			}
; 424  : 		return (*this);

  000f3	8b c6		 mov	 eax, esi
  000f5	5e		 pop	 esi

; 425  : 		}

  000f6	c2 04 00	 ret	 4
$L231166:

; 411  : 				}
; 412  : 			else
; 413  : 				{	// not enough room, allocate new array and construct new
; 414  : 				if (_Myfirst != 0)

  000f9	85 c0		 test	 eax, eax
  000fb	74 09		 je	 SHORT $L238750

; 415  : 					{	// discard old array
; 416  : 					_Destroy(_Myfirst, _Mylast);
; 417  : 					this->_Alval.deallocate(_Myfirst, _Myend - _Myfirst);

  000fd	50		 push	 eax
  000fe	e8 00 00 00 00	 call	 ??3@YAXPAX@Z		; operator delete
  00103	83 c4 04	 add	 esp, 4
$L238750:

; 418  : 					}
; 419  : 				if (_Buy(_Right.size()))

  00106	8b 4f 04	 mov	 ecx, DWORD PTR [edi+4]
  00109	85 c9		 test	 ecx, ecx
  0010b	75 04		 jne	 SHORT $L238758
  0010d	33 c0		 xor	 eax, eax
  0010f	eb 08		 jmp	 SHORT $L238759
$L238758:
  00111	8b 47 08	 mov	 eax, DWORD PTR [edi+8]
  00114	2b c1		 sub	 eax, ecx
  00116	c1 f8 03	 sar	 eax, 3
$L238759:
  00119	50		 push	 eax
  0011a	8b ce		 mov	 ecx, esi
  0011c	e8 00 00 00 00	 call	 ?_Buy@?$vector@VCPoint@@V?$allocator@VCPoint@@@std@@@std@@IAE_NI@Z ; std::vector<CPoint,std::allocator<CPoint> >::_Buy
  00121	84 c0		 test	 al, al
  00123	74 16		 je	 SHORT $L238762

; 420  : 					_Mylast = _Ucopy(_Right._Myfirst, _Right._Mylast,
; 421  : 						_Myfirst);

  00125	8b 46 04	 mov	 eax, DWORD PTR [esi+4]
  00128	8b 4f 08	 mov	 ecx, DWORD PTR [edi+8]
  0012b	8b 57 04	 mov	 edx, DWORD PTR [edi+4]
  0012e	50		 push	 eax
  0012f	51		 push	 ecx
  00130	52		 push	 edx
  00131	8b ce		 mov	 ecx, esi
  00133	e8 00 00 00 00	 call	 ??$_Ucopy@PAVCPoint@@@?$vector@VCPoint@@V?$allocator@VCPoint@@@std@@@std@@IAEPAVCPoint@@PAV2@00@Z ; std::vector<CPoint,std::allocator<CPoint> >::_Ucopy<CPoint *>
  00138	89 46 08	 mov	 DWORD PTR [esi+8], eax
$L238762:
  0013b	5d		 pop	 ebp
  0013c	5b		 pop	 ebx
$L238763:
  0013d	5f		 pop	 edi

; 422  : 				}
; 423  : 			}
; 424  : 		return (*this);

  0013e	8b c6		 mov	 eax, esi
  00140	5e		 pop	 esi

; 425  : 		}

  00141	c2 04 00	 ret	 4
??4?$vector@VCPoint@@V?$allocator@VCPoint@@@std@@@std@@QAEAAV01@ABV01@@Z ENDP ; std::vector<CPoint,std::allocator<CPoint> >::operator=
_TEXT	ENDS
PUBLIC	?insert@?$vector@VCPoint@@V?$allocator@VCPoint@@@std@@@std@@QAE?AViterator@12@V312@ABVCPoint@@@Z ; std::vector<CPoint,std::allocator<CPoint> >::insert
; Function compile flags: /Ogty
;	COMDAT ?insert@?$vector@VCPoint@@V?$allocator@VCPoint@@@std@@@std@@QAE?AViterator@12@V312@ABVCPoint@@@Z
_TEXT	SEGMENT
___$ReturnUdt$ = 8					; size = 4
__Where$ = 12						; size = 4
__Val$ = 16						; size = 4
?insert@?$vector@VCPoint@@V?$allocator@VCPoint@@@std@@@std@@QAE?AViterator@12@V312@ABVCPoint@@@Z PROC NEAR ; std::vector<CPoint,std::allocator<CPoint> >::insert, COMDAT
; _this$ = ecx

; 621  : 		size_type _Off = size() == 0 ? 0 : _Where - begin();

  00000	8b 54 24 08	 mov	 edx, DWORD PTR __Where$[esp-4]
  00004	56		 push	 esi
  00005	57		 push	 edi
  00006	8b f9		 mov	 edi, ecx
  00008	8b 4f 04	 mov	 ecx, DWORD PTR [edi+4]
  0000b	85 c9		 test	 ecx, ecx
  0000d	74 0c		 je	 SHORT $L238832
  0000f	8b 47 08	 mov	 eax, DWORD PTR [edi+8]
  00012	2b c1		 sub	 eax, ecx
  00014	c1 f8 03	 sar	 eax, 3
  00017	85 c0		 test	 eax, eax
  00019	75 04		 jne	 SHORT $L238771
$L238832:
  0001b	33 f6		 xor	 esi, esi
  0001d	eb 07		 jmp	 SHORT $L238772
$L238771:
  0001f	8b f2		 mov	 esi, edx
  00021	2b f1		 sub	 esi, ecx
  00023	c1 fe 03	 sar	 esi, 3
$L238772:

; 622  : 		_Insert_n(_Where, (size_type)1, _Val);

  00026	8b 44 24 14	 mov	 eax, DWORD PTR __Val$[esp+4]
  0002a	50		 push	 eax
  0002b	6a 01		 push	 1
  0002d	52		 push	 edx
  0002e	8b cf		 mov	 ecx, edi
  00030	e8 00 00 00 00	 call	 ?_Insert_n@?$vector@VCPoint@@V?$allocator@VCPoint@@@std@@@std@@IAEXViterator@12@IABVCPoint@@@Z ; std::vector<CPoint,std::allocator<CPoint> >::_Insert_n

; 623  : 		return (begin() + _Off);

  00035	8b 4f 04	 mov	 ecx, DWORD PTR [edi+4]
  00038	8b 44 24 0c	 mov	 eax, DWORD PTR ___$ReturnUdt$[esp+4]
  0003c	8d 14 f1	 lea	 edx, DWORD PTR [ecx+esi*8]
  0003f	5f		 pop	 edi
  00040	89 10		 mov	 DWORD PTR [eax], edx
  00042	5e		 pop	 esi

; 624  : 		}

  00043	c2 0c 00	 ret	 12			; 0000000cH
?insert@?$vector@VCPoint@@V?$allocator@VCPoint@@@std@@@std@@QAE?AViterator@12@V312@ABVCPoint@@@Z ENDP ; std::vector<CPoint,std::allocator<CPoint> >::insert
_TEXT	ENDS
PUBLIC	?destroy@?$allocator@U_Node@?$_Tree_nod@V?$_Tmap_traits@EV?$vector@VCPoint@@V?$allocator@VCPoint@@@std@@@std@@U?$less@E@2@V?$allocator@U?$pair@$$CBEV?$vector@VCPoint@@V?$allocator@VCPoint@@@std@@@std@@@std@@@2@$0A@@std@@@std@@@std@@QAEXPAU_Node@?$_Tree_nod@V?$_Tmap_traits@EV?$vector@VCPoint@@V?$allocator@VCPoint@@@std@@@std@@U?$less@E@2@V?$allocator@U?$pair@$$CBEV?$vector@VCPoint@@V?$allocator@VCPoint@@@std@@@std@@@std@@@2@$0A@@std@@@2@@Z ; std::allocator<std::_Tree_nod<std::_Tmap_traits<unsigned char,std::vector<CPoint,std::allocator<CPoint> >,std::less<unsigned char>,std::allocator<std::pair<unsigned char const ,std::vector<CPoint,std::allocator<CPoint> > > >,0> >::_Node>::destroy
; Function compile flags: /Ogty
; File c:\program files\microsoft visual studio .net 2003\vc7\include\xmemory
;	COMDAT ?destroy@?$allocator@U_Node@?$_Tree_nod@V?$_Tmap_traits@EV?$vector@VCPoint@@V?$allocator@VCPoint@@@std@@@std@@U?$less@E@2@V?$allocator@U?$pair@$$CBEV?$vector@VCPoint@@V?$allocator@VCPoint@@@std@@@std@@@std@@@2@$0A@@std@@@std@@@std@@QAEXPAU_Node@?$_Tree_nod@V?$_Tmap_traits@EV?$vector@VCPoint@@V?$allocator@VCPoint@@@std@@@std@@U?$less@E@2@V?$allocator@U?$pair@$$CBEV?$vector@VCPoint@@V?$allocator@VCPoint@@@std@@@std@@@std@@@2@$0A@@std@@@2@@Z
_TEXT	SEGMENT
__Ptr$ = 8						; size = 4
?destroy@?$allocator@U_Node@?$_Tree_nod@V?$_Tmap_traits@EV?$vector@VCPoint@@V?$allocator@VCPoint@@@std@@@std@@U?$less@E@2@V?$allocator@U?$pair@$$CBEV?$vector@VCPoint@@V?$allocator@VCPoint@@@std@@@std@@@std@@@2@$0A@@std@@@std@@@std@@QAEXPAU_Node@?$_Tree_nod@V?$_Tmap_traits@EV?$vector@VCPoint@@V?$allocator@VCPoint@@@std@@@std@@U?$less@E@2@V?$allocator@U?$pair@$$CBEV?$vector@VCPoint@@V?$allocator@VCPoint@@@std@@@std@@@std@@@2@$0A@@std@@@2@@Z PROC NEAR ; std::allocator<std::_Tree_nod<std::_Tmap_traits<unsigned char,std::vector<CPoint,std::allocator<CPoint> >,std::less<unsigned char>,std::allocator<std::pair<unsigned char const ,std::vector<CPoint,std::allocator<CPoint> > > >,0> >::_Node>::destroy, COMDAT
; _this$ = ecx

; 152  : 		_Destroy(_Ptr);

  00000	8b 4c 24 04	 mov	 ecx, DWORD PTR __Ptr$[esp-4]
  00004	e8 00 00 00 00	 call	 ??1_Node@?$_Tree_nod@V?$_Tmap_traits@EV?$vector@VCPoint@@V?$allocator@VCPoint@@@std@@@std@@U?$less@E@2@V?$allocator@U?$pair@$$CBEV?$vector@VCPoint@@V?$allocator@VCPoint@@@std@@@std@@@std@@@2@$0A@@std@@@std@@QAE@XZ

; 153  : 		}

  00009	c2 04 00	 ret	 4
?destroy@?$allocator@U_Node@?$_Tree_nod@V?$_Tmap_traits@EV?$vector@VCPoint@@V?$allocator@VCPoint@@@std@@@std@@U?$less@E@2@V?$allocator@U?$pair@$$CBEV?$vector@VCPoint@@V?$allocator@VCPoint@@@std@@@std@@@std@@@2@$0A@@std@@@std@@@std@@QAEXPAU_Node@?$_Tree_nod@V?$_Tmap_traits@EV?$vector@VCPoint@@V?$allocator@VCPoint@@@std@@@std@@U?$less@E@2@V?$allocator@U?$pair@$$CBEV?$vector@VCPoint@@V?$allocator@VCPoint@@@std@@@std@@@std@@@2@$0A@@std@@@2@@Z ENDP ; std::allocator<std::_Tree_nod<std::_Tmap_traits<unsigned char,std::vector<CPoint,std::allocator<CPoint> >,std::less<unsigned char>,std::allocator<std::pair<unsigned char const ,std::vector<CPoint,std::allocator<CPoint> > > >,0> >::_Node>::destroy
_TEXT	ENDS
PUBLIC	__TI3?AVout_of_range@std@@
PUBLIC	__CTA3?AVout_of_range@std@@
PUBLIC	??_R0?AVout_of_range@std@@@8			; std::out_of_range `RTTI Type Descriptor'
PUBLIC	__CT??_R0?AVout_of_range@std@@@8??0out_of_range@std@@QAE@ABV01@@Z40
PUBLIC	??_C@_0BM@PAPJHAGI@invalid?5map?1set?$DMT?$DO?5iterator?$AA@ ; `string'
PUBLIC	?erase@?$_Tree@V?$_Tmap_traits@EV?$vector@VCPoint@@V?$allocator@VCPoint@@@std@@@std@@U?$less@E@2@V?$allocator@U?$pair@$$CBEV?$vector@VCPoint@@V?$allocator@VCPoint@@@std@@@std@@@std@@@2@$0A@@std@@@std@@QAE?AViterator@12@V312@@Z ; std::_Tree<std::_Tmap_traits<unsigned char,std::vector<CPoint,std::allocator<CPoint> >,std::less<unsigned char>,std::allocator<std::pair<unsigned char const ,std::vector<CPoint,std::allocator<CPoint> > > >,0> >::erase
PUBLIC	??0out_of_range@std@@QAE@ABV01@@Z		; std::out_of_range::out_of_range
;	COMDAT xdata$x
xdata$x	SEGMENT
$T239434 DD	0ffffffffH
	DD	FLAT:$L238855
$T239426 DD	019930520H
	DD	01H
	DD	FLAT:$T239434
	DD	2 DUP(00H)
	DD	2 DUP(00H)
xdata$x	ENDS
;	COMDAT ??_C@_0BM@PAPJHAGI@invalid?5map?1set?$DMT?$DO?5iterator?$AA@
CONST	SEGMENT
??_C@_0BM@PAPJHAGI@invalid?5map?1set?$DMT?$DO?5iterator?$AA@ DB 'invalid '
	DB	'map/set<T> iterator', 00H			; `string'
CONST	ENDS
;	COMDAT __TI3?AVout_of_range@std@@
xdata$x	SEGMENT
__TI3?AVout_of_range@std@@ DD 00H
	DD	FLAT:??1out_of_range@std@@UAE@XZ
	DD	00H
	DD	FLAT:__CTA3?AVout_of_range@std@@
xdata$x	ENDS
;	COMDAT __CTA3?AVout_of_range@std@@
xdata$x	SEGMENT
__CTA3?AVout_of_range@std@@ DD 03H
	DD	FLAT:__CT??_R0?AVout_of_range@std@@@8??0out_of_range@std@@QAE@ABV01@@Z40
	DD	FLAT:__CT??_R0?AVlogic_error@std@@@8??0logic_error@std@@QAE@ABV01@@Z40
	DD	FLAT:__CT??_R0?AVexception@@@8??0exception@@QAE@ABV0@@Z12
xdata$x	ENDS
;	COMDAT __CT??_R0?AVout_of_range@std@@@8??0out_of_range@std@@QAE@ABV01@@Z40
xdata$x	SEGMENT
__CT??_R0?AVout_of_range@std@@@8??0out_of_range@std@@QAE@ABV01@@Z40 DD 00H
	DD	FLAT:??_R0?AVout_of_range@std@@@8
	DD	00H
	DD	0ffffffffH
	ORG $+4
	DD	028H
	DD	FLAT:??0out_of_range@std@@QAE@ABV01@@Z
xdata$x	ENDS
;	COMDAT ??_R0?AVout_of_range@std@@@8
_DATA	SEGMENT
??_R0?AVout_of_range@std@@@8 DD FLAT:??_7type_info@@6B@	; std::out_of_range `RTTI Type Descriptor'
	DD	00H
	DB	'.?AVout_of_range@std@@', 00H
; Function compile flags: /Ogty
; File c:\program files\microsoft visual studio .net 2003\vc7\include\xtree
_DATA	ENDS
;	COMDAT ?erase@?$_Tree@V?$_Tmap_traits@EV?$vector@VCPoint@@V?$allocator@VCPoint@@@std@@@std@@U?$less@E@2@V?$allocator@U?$pair@$$CBEV?$vector@VCPoint@@V?$allocator@VCPoint@@@std@@@std@@@std@@@2@$0A@@std@@@std@@QAE?AViterator@12@V312@@Z
_TEXT	SEGMENT
_this$ = -84						; size = 4
$T238850 = -80						; size = 28
$T238849 = -52						; size = 40
__$EHRec$ = -12						; size = 12
___$ReturnUdt$ = 8					; size = 4
__Where$ = 12						; size = 4
?erase@?$_Tree@V?$_Tmap_traits@EV?$vector@VCPoint@@V?$allocator@VCPoint@@@std@@@std@@U?$less@E@2@V?$allocator@U?$pair@$$CBEV?$vector@VCPoint@@V?$allocator@VCPoint@@@std@@@std@@@std@@@2@$0A@@std@@@std@@QAE?AViterator@12@V312@@Z PROC NEAR ; std::_Tree<std::_Tmap_traits<unsigned char,std::vector<CPoint,std::allocator<CPoint> >,std::less<unsigned char>,std::allocator<std::pair<unsigned char const ,std::vector<CPoint,std::allocator<CPoint> > > >,0> >::erase, COMDAT
; _this$ = ecx

; 590  : 		{	// erase element at _Where

  00000	6a ff		 push	 -1
  00002	68 00 00 00 00	 push	 __ehhandler$?erase@?$_Tree@V?$_Tmap_traits@EV?$vector@VCPoint@@V?$allocator@VCPoint@@@std@@@std@@U?$less@E@2@V?$allocator@U?$pair@$$CBEV?$vector@VCPoint@@V?$allocator@VCPoint@@@std@@@std@@@std@@@2@$0A@@std@@@std@@QAE?AViterator@12@V312@@Z
  00007	64 a1 00 00 00
	00		 mov	 eax, DWORD PTR fs:__except_list
  0000d	50		 push	 eax
  0000e	64 89 25 00 00
	00 00		 mov	 DWORD PTR fs:__except_list, esp
  00015	83 ec 48	 sub	 esp, 72			; 00000048H

; 591  : 		if (_Isnil(_Where._Mynode()))

  00018	8b 44 24 5c	 mov	 eax, DWORD PTR __Where$[esp+80]
  0001c	53		 push	 ebx
  0001d	8b d9		 mov	 ebx, ecx
  0001f	8a 48 21	 mov	 cl, BYTE PTR [eax+33]
  00022	84 c9		 test	 cl, cl
  00024	56		 push	 esi
  00025	89 5c 24 08	 mov	 DWORD PTR _this$[esp+92], ebx
  00029	74 4c		 je	 SHORT $L231693

; 592  : 			_THROW(out_of_range, "invalid map/set<T> iterator");

  0002b	6a 1b		 push	 27			; 0000001bH
  0002d	33 f6		 xor	 esi, esi
  0002f	68 00 00 00 00	 push	 OFFSET FLAT:??_C@_0BM@PAPJHAGI@invalid?5map?1set?$DMT?$DO?5iterator?$AA@
  00034	8d 4c 24 14	 lea	 ecx, DWORD PTR $T238850[esp+100]
  00038	c7 44 24 2c 0f
	00 00 00	 mov	 DWORD PTR $T238850[esp+124], 15 ; 0000000fH
  00040	89 74 24 28	 mov	 DWORD PTR $T238850[esp+120], esi
  00044	c6 44 24 18 00	 mov	 BYTE PTR $T238850[esp+104], 0
  00049	e8 00 00 00 00	 call	 ?assign@?$basic_string@DU?$char_traits@D@std@@V?$allocator@D@2@@std@@QAEAAV12@PBDI@Z ; std::basic_string<char,std::char_traits<char>,std::allocator<char> >::assign
  0004e	8d 44 24 0c	 lea	 eax, DWORD PTR $T238850[esp+92]
  00052	50		 push	 eax
  00053	8d 4c 24 2c	 lea	 ecx, DWORD PTR $T238849[esp+96]
  00057	89 74 24 5c	 mov	 DWORD PTR __$EHRec$[esp+104], esi
  0005b	e8 00 00 00 00	 call	 ??0logic_error@std@@QAE@ABV?$basic_string@DU?$char_traits@D@std@@V?$allocator@D@2@@1@@Z ; std::logic_error::logic_error
  00060	68 00 00 00 00	 push	 OFFSET FLAT:__TI3?AVout_of_range@std@@
  00065	8d 4c 24 2c	 lea	 ecx, DWORD PTR $T238849[esp+96]
  00069	51		 push	 ecx
  0006a	c7 44 24 30 00
	00 00 00	 mov	 DWORD PTR $T238849[esp+100], OFFSET FLAT:??_7out_of_range@std@@6B@
  00072	e8 00 00 00 00	 call	 __CxxThrowException@8
$L239435:
$L231693:
  00077	55		 push	 ebp
  00078	57		 push	 edi

; 593  : 		_Nodeptr _Erasednode = _Where._Mynode();	// node to erase
; 594  : 		++_Where;	// save successor iterator for return

  00079	8d 4c 24 6c	 lea	 ecx, DWORD PTR __Where$[esp+96]
  0007d	8b e8		 mov	 ebp, eax
  0007f	e8 00 00 00 00	 call	 ?_Inc@const_iterator@?$_Tree@V?$_Tmap_traits@EV?$vector@VCPoint@@V?$allocator@VCPoint@@@std@@@std@@U?$less@E@2@V?$allocator@U?$pair@$$CBEV?$vector@VCPoint@@V?$allocator@VCPoint@@@std@@@std@@@std@@@2@$0A@@std@@@std@@QAEXXZ ; std::_Tree<std::_Tmap_traits<unsigned char,std::vector<CPoint,std::allocator<CPoint> >,std::less<unsigned char>,std::allocator<std::pair<unsigned char const ,std::vector<CPoint,std::allocator<CPoint> > > >,0> >::const_iterator::_Inc

; 595  : 
; 596  : 		_Nodeptr _Fixnode;	// the node to recolor as needed
; 597  : 		_Nodeptr _Fixnodeparent;	// parent of _Fixnode (which may be nil)
; 598  : 		_Nodeptr _Pnode = _Erasednode;
; 599  : 
; 600  : 		if (_Isnil(_Left(_Pnode)))

  00084	8b 45 00	 mov	 eax, DWORD PTR [ebp]
  00087	8a 48 21	 mov	 cl, BYTE PTR [eax+33]
  0008a	84 c9		 test	 cl, cl
  0008c	74 05		 je	 SHORT $L231701

; 601  : 			_Fixnode = _Right(_Pnode);	// must stitch up right subtree

  0008e	8b 7d 08	 mov	 edi, DWORD PTR [ebp+8]

; 602  : 		else if (_Isnil(_Right(_Pnode)))

  00091	eb 19		 jmp	 SHORT $L239429
$L231701:
  00093	8b 55 08	 mov	 edx, DWORD PTR [ebp+8]
  00096	8a 4a 21	 mov	 cl, BYTE PTR [edx+33]
  00099	84 c9		 test	 cl, cl
  0009b	74 04		 je	 SHORT $L231703

; 603  : 			_Fixnode = _Left(_Pnode);	// must stitch up left subtree

  0009d	8b f8		 mov	 edi, eax

; 604  : 		else

  0009f	eb 0b		 jmp	 SHORT $L239429
$L231703:

; 605  : 			{	// two subtrees, must lift successor node to replace erased
; 606  : 			_Pnode = _Where._Mynode();	// _Pnode is successor node
; 607  : 			_Fixnode = _Right(_Pnode);	// _Fixnode is its only subtree

  000a1	8b 4c 24 6c	 mov	 ecx, DWORD PTR __Where$[esp+96]

; 608  : 			}
; 609  : 
; 610  : 		if (_Pnode == _Erasednode)

  000a5	3b cd		 cmp	 ecx, ebp
  000a7	8b 79 08	 mov	 edi, DWORD PTR [ecx+8]
  000aa	75 6a		 jne	 SHORT $L231705
$L239429:

; 611  : 			{	// at most one subtree, relink it
; 612  : 			_Fixnodeparent = _Parent(_Erasednode);
; 613  : 			if (!_Isnil(_Fixnode))

  000ac	8a 47 21	 mov	 al, BYTE PTR [edi+33]
  000af	84 c0		 test	 al, al
  000b1	8b 75 04	 mov	 esi, DWORD PTR [ebp+4]
  000b4	75 03		 jne	 SHORT $L231706

; 614  : 				_Parent(_Fixnode) = _Fixnodeparent;	// link up

  000b6	89 77 04	 mov	 DWORD PTR [edi+4], esi
$L231706:

; 615  : 
; 616  : 			if (_Root() == _Erasednode)

  000b9	8b 43 04	 mov	 eax, DWORD PTR [ebx+4]
  000bc	39 68 04	 cmp	 DWORD PTR [eax+4], ebp
  000bf	75 05		 jne	 SHORT $L231707

; 617  : 				_Root() = _Fixnode;	// link down from root

  000c1	89 78 04	 mov	 DWORD PTR [eax+4], edi

; 618  : 			else if (_Left(_Fixnodeparent) == _Erasednode)

  000c4	eb 0b		 jmp	 SHORT $L231710
$L231707:
  000c6	39 2e		 cmp	 DWORD PTR [esi], ebp
  000c8	75 04		 jne	 SHORT $L231709

; 619  : 				_Left(_Fixnodeparent) = _Fixnode;	// link down to left

  000ca	89 3e		 mov	 DWORD PTR [esi], edi

; 620  : 			else

  000cc	eb 03		 jmp	 SHORT $L231710
$L231709:

; 621  : 				_Right(_Fixnodeparent) = _Fixnode;	// link down to right

  000ce	89 7e 08	 mov	 DWORD PTR [esi+8], edi
$L231710:

; 622  : 
; 623  : 			if (_Lmost() == _Erasednode)

  000d1	8b 5b 04	 mov	 ebx, DWORD PTR [ebx+4]
  000d4	39 2b		 cmp	 DWORD PTR [ebx], ebp
  000d6	75 16		 jne	 SHORT $L231711

; 624  : 				_Lmost() = _Isnil(_Fixnode)
; 625  : 					? _Fixnodeparent	// smallest is parent of erased node
; 626  : 					: _Min(_Fixnode);	// smallest in relinked subtree

  000d8	8a 47 21	 mov	 al, BYTE PTR [edi+33]
  000db	84 c0		 test	 al, al
  000dd	74 04		 je	 SHORT $L238851
  000df	8b c6		 mov	 eax, esi
  000e1	eb 09		 jmp	 SHORT $L238852
$L238851:
  000e3	57		 push	 edi
  000e4	e8 00 00 00 00	 call	 ?_Min@?$_Tree@V?$_Tmap_traits@EV?$vector@VCPoint@@V?$allocator@VCPoint@@@std@@@std@@U?$less@E@2@V?$allocator@U?$pair@$$CBEV?$vector@VCPoint@@V?$allocator@VCPoint@@@std@@@std@@@std@@@2@$0A@@std@@@std@@KAPAU_Node@?$_Tree_nod@V?$_Tmap_traits@EV?$vector@VCPoint@@V?$allocator@VCPoint@@@std@@@std@@U?$less@E@2@V?$allocator@U?$pair@$$CBEV?$vector@VCPoint@@V?$allocator@VCPoint@@@std@@@std@@@std@@@2@$0A@@std@@@2@PAU342@@Z ; std::_Tree<std::_Tmap_traits<unsigned char,std::vector<CPoint,std::allocator<CPoint> >,std::less<unsigned char>,std::allocator<std::pair<unsigned char const ,std::vector<CPoint,std::allocator<CPoint> > > >,0> >::_Min
  000e9	83 c4 04	 add	 esp, 4
$L238852:
  000ec	89 03		 mov	 DWORD PTR [ebx], eax
$L231711:

; 627  : 
; 628  : 			if (_Rmost() == _Erasednode)

  000ee	8b 44 24 10	 mov	 eax, DWORD PTR _this$[esp+100]
  000f2	8b 58 04	 mov	 ebx, DWORD PTR [eax+4]
  000f5	39 6b 08	 cmp	 DWORD PTR [ebx+8], ebp
  000f8	75 75		 jne	 SHORT $L239170

; 629  : 				_Rmost() = _Isnil(_Fixnode)
; 630  : 					? _Fixnodeparent	// largest is parent of erased node
; 631  : 					: _Max(_Fixnode);	// largest in relinked subtree

  000fa	8a 47 21	 mov	 al, BYTE PTR [edi+33]
  000fd	84 c0		 test	 al, al
  000ff	74 07		 je	 SHORT $L238853
  00101	8b c6		 mov	 eax, esi
  00103	89 43 08	 mov	 DWORD PTR [ebx+8], eax

; 632  : 			}
; 633  : 		else

  00106	eb 67		 jmp	 SHORT $L239170
$L238853:

; 629  : 				_Rmost() = _Isnil(_Fixnode)
; 630  : 					? _Fixnodeparent	// largest is parent of erased node
; 631  : 					: _Max(_Fixnode);	// largest in relinked subtree

  00108	57		 push	 edi
  00109	e8 00 00 00 00	 call	 ?_Max@?$_Tree@V?$_Tmap_traits@EV?$vector@VCPoint@@V?$allocator@VCPoint@@@std@@@std@@U?$less@E@2@V?$allocator@U?$pair@$$CBEV?$vector@VCPoint@@V?$allocator@VCPoint@@@std@@@std@@@std@@@2@$0A@@std@@@std@@KAPAU_Node@?$_Tree_nod@V?$_Tmap_traits@EV?$vector@VCPoint@@V?$allocator@VCPoint@@@std@@@std@@U?$less@E@2@V?$allocator@U?$pair@$$CBEV?$vector@VCPoint@@V?$allocator@VCPoint@@@std@@@std@@@std@@@2@$0A@@std@@@2@PAU342@@Z ; std::_Tree<std::_Tmap_traits<unsigned char,std::vector<CPoint,std::allocator<CPoint> >,std::less<unsigned char>,std::allocator<std::pair<unsigned char const ,std::vector<CPoint,std::allocator<CPoint> > > >,0> >::_Max
  0010e	83 c4 04	 add	 esp, 4
  00111	89 43 08	 mov	 DWORD PTR [ebx+8], eax

; 632  : 			}
; 633  : 		else

  00114	eb 59		 jmp	 SHORT $L239170
$L231705:

; 634  : 			{	// erased has two subtrees, _Pnode is successor to erased
; 635  : 			_Parent(_Left(_Erasednode)) = _Pnode;	// link left up

  00116	89 48 04	 mov	 DWORD PTR [eax+4], ecx

; 636  : 			_Left(_Pnode) = _Left(_Erasednode);	// link successor down

  00119	8b 55 00	 mov	 edx, DWORD PTR [ebp]
  0011c	89 11		 mov	 DWORD PTR [ecx], edx

; 637  : 
; 638  : 			if (_Pnode == _Right(_Erasednode))

  0011e	3b 4d 08	 cmp	 ecx, DWORD PTR [ebp+8]
  00121	75 04		 jne	 SHORT $L231714

; 639  : 				_Fixnodeparent = _Pnode;	// successor is next to erased

  00123	8b f1		 mov	 esi, ecx

; 640  : 			else

  00125	eb 1b		 jmp	 SHORT $L231715
$L231714:

; 641  : 				{	// successor further down, link in place of erased
; 642  : 				_Fixnodeparent = _Parent(_Pnode);	// parent is successor's
; 643  : 				if (!_Isnil(_Fixnode))

  00127	8a 47 21	 mov	 al, BYTE PTR [edi+33]
  0012a	84 c0		 test	 al, al
  0012c	8b 71 04	 mov	 esi, DWORD PTR [ecx+4]
  0012f	75 03		 jne	 SHORT $L231716

; 644  : 					_Parent(_Fixnode) = _Fixnodeparent;	// link fix up

  00131	89 77 04	 mov	 DWORD PTR [edi+4], esi
$L231716:

; 645  : 				_Left(_Fixnodeparent) = _Fixnode;	// link fix down

  00134	89 3e		 mov	 DWORD PTR [esi], edi

; 646  : 				_Right(_Pnode) = _Right(_Erasednode);	// link successor down

  00136	8b 45 08	 mov	 eax, DWORD PTR [ebp+8]
  00139	89 41 08	 mov	 DWORD PTR [ecx+8], eax

; 647  : 				_Parent(_Right(_Erasednode)) = _Pnode;	// link right up

  0013c	8b 55 08	 mov	 edx, DWORD PTR [ebp+8]
  0013f	89 4a 04	 mov	 DWORD PTR [edx+4], ecx
$L231715:

; 648  : 				}
; 649  : 
; 650  : 			if (_Root() == _Erasednode)

  00142	8b 43 04	 mov	 eax, DWORD PTR [ebx+4]
  00145	39 68 04	 cmp	 DWORD PTR [eax+4], ebp
  00148	75 05		 jne	 SHORT $L231717

; 651  : 				_Root() = _Pnode;	// link down from root

  0014a	89 48 04	 mov	 DWORD PTR [eax+4], ecx

; 652  : 			else if (_Left(_Parent(_Erasednode)) == _Erasednode)

  0014d	eb 0e		 jmp	 SHORT $L231720
$L231717:
  0014f	8b 45 04	 mov	 eax, DWORD PTR [ebp+4]
  00152	39 28		 cmp	 DWORD PTR [eax], ebp
  00154	75 04		 jne	 SHORT $L231719

; 653  : 				_Left(_Parent(_Erasednode)) = _Pnode;	// link down to left

  00156	89 08		 mov	 DWORD PTR [eax], ecx

; 654  : 			else

  00158	eb 03		 jmp	 SHORT $L231720
$L231719:

; 655  : 				_Right(_Parent(_Erasednode)) = _Pnode;	// link down to right

  0015a	89 48 08	 mov	 DWORD PTR [eax+8], ecx
$L231720:

; 656  : 
; 657  : 			_Parent(_Pnode) = _Parent(_Erasednode);	// link successor up

  0015d	8b 45 04	 mov	 eax, DWORD PTR [ebp+4]
  00160	89 41 04	 mov	 DWORD PTR [ecx+4], eax

; 658  : 			std::swap(_Color(_Pnode), _Color(_Erasednode));	// recolor it

  00163	8a 55 20	 mov	 dl, BYTE PTR [ebp+32]
  00166	8a 41 20	 mov	 al, BYTE PTR [ecx+32]
  00169	88 51 20	 mov	 BYTE PTR [ecx+32], dl
  0016c	88 45 20	 mov	 BYTE PTR [ebp+32], al
$L239170:

; 659  : 			}
; 660  : 
; 661  : 		if (_Color(_Erasednode) == _Black)

  0016f	8a 45 20	 mov	 al, BYTE PTR [ebp+32]
  00172	b3 01		 mov	 bl, 1
  00174	3a c3		 cmp	 al, bl
  00176	0f 85 09 01 00
	00		 jne	 $L231721

; 662  : 			{	// erasing black link, must recolor/rebalance tree
; 663  : 			for (; _Fixnode != _Root() && _Color(_Fixnode) == _Black;
; 664  : 				_Fixnodeparent = _Parent(_Fixnode))

  0017c	8b 4c 24 10	 mov	 ecx, DWORD PTR _this$[esp+100]
  00180	8b 41 04	 mov	 eax, DWORD PTR [ecx+4]
  00183	3b 78 04	 cmp	 edi, DWORD PTR [eax+4]
  00186	0f 84 f6 00 00
	00		 je	 $L231724
  0018c	8d 64 24 00	 npad	 4
$L231722:
  00190	38 5f 20	 cmp	 BYTE PTR [edi+32], bl
  00193	0f 85 e9 00 00
	00		 jne	 $L231724

; 665  : 				if (_Fixnode == _Left(_Fixnodeparent))

  00199	8b 06		 mov	 eax, DWORD PTR [esi]
  0019b	3b f8		 cmp	 edi, eax
  0019d	75 69		 jne	 SHORT $L231725

; 666  : 					{	// fixup left subtree
; 667  : 					_Pnode = _Right(_Fixnodeparent);

  0019f	8b 46 08	 mov	 eax, DWORD PTR [esi+8]

; 668  : 					if (_Color(_Pnode) == _Red)

  001a2	8a 50 20	 mov	 dl, BYTE PTR [eax+32]
  001a5	84 d2		 test	 dl, dl
  001a7	75 14		 jne	 SHORT $L231726

; 669  : 						{	// rotate red up from right subtree
; 670  : 						_Color(_Pnode) = _Black;

  001a9	88 58 20	 mov	 BYTE PTR [eax+32], bl

; 671  : 						_Color(_Fixnodeparent) = _Red;
; 672  : 						_Lrotate(_Fixnodeparent);

  001ac	56		 push	 esi
  001ad	c6 46 20 00	 mov	 BYTE PTR [esi+32], 0
  001b1	e8 00 00 00 00	 call	 ?_Lrotate@?$_Tree@V?$_Tmap_traits@EV?$vector@VCPoint@@V?$allocator@VCPoint@@@std@@@std@@U?$less@E@2@V?$allocator@U?$pair@$$CBEV?$vector@VCPoint@@V?$allocator@VCPoint@@@std@@@std@@@std@@@2@$0A@@std@@@std@@IAEXPAU_Node@?$_Tree_nod@V?$_Tmap_traits@EV?$vector@VCPoint@@V?$allocator@VCPoint@@@std@@@std@@U?$less@E@2@V?$allocator@U?$pair@$$CBEV?$vector@VCPoint@@V?$allocator@VCPoint@@@std@@@std@@@std@@@2@$0A@@std@@@2@@Z ; std::_Tree<std::_Tmap_traits<unsigned char,std::vector<CPoint,std::allocator<CPoint> >,std::less<unsigned char>,std::allocator<std::pair<unsigned char const ,std::vector<CPoint,std::allocator<CPoint> > > >,0> >::_Lrotate

; 673  : 						_Pnode = _Right(_Fixnodeparent);

  001b6	8b 46 08	 mov	 eax, DWORD PTR [esi+8]
  001b9	8b 4c 24 10	 mov	 ecx, DWORD PTR _this$[esp+100]
$L231726:

; 674  : 						}
; 675  : 
; 676  : 					if (_Isnil(_Pnode))

  001bd	8a 50 21	 mov	 dl, BYTE PTR [eax+33]
  001c0	84 d2		 test	 dl, dl

; 677  : 						_Fixnode = _Fixnodeparent;	// shouldn't happen
; 678  : 					else if (_Color(_Left(_Pnode)) == _Black

  001c2	75 78		 jne	 SHORT $L239432

; 679  : 						&& _Color(_Right(_Pnode)) == _Black)

  001c4	8b 10		 mov	 edx, DWORD PTR [eax]
  001c6	38 5a 20	 cmp	 BYTE PTR [edx+32], bl
  001c9	75 08		 jne	 SHORT $L231729
  001cb	8b 50 08	 mov	 edx, DWORD PTR [eax+8]
  001ce	38 5a 20	 cmp	 BYTE PTR [edx+32], bl
  001d1	74 65		 je	 SHORT $L239433
$L231729:

; 680  : 						{	// redden right subtree with black children
; 681  : 						_Color(_Pnode) = _Red;
; 682  : 						_Fixnode = _Fixnodeparent;
; 683  : 						}
; 684  : 					else
; 685  : 						{	// must rearrange right subtree
; 686  : 						if (_Color(_Right(_Pnode)) == _Black)

  001d3	8b 50 08	 mov	 edx, DWORD PTR [eax+8]
  001d6	38 5a 20	 cmp	 BYTE PTR [edx+32], bl
  001d9	75 16		 jne	 SHORT $L231731

; 687  : 							{	// rotate red up from left sub-subtree
; 688  : 							_Color(_Left(_Pnode)) = _Black;

  001db	8b 10		 mov	 edx, DWORD PTR [eax]
  001dd	88 5a 20	 mov	 BYTE PTR [edx+32], bl

; 689  : 							_Color(_Pnode) = _Red;
; 690  : 							_Rrotate(_Pnode);

  001e0	50		 push	 eax
  001e1	c6 40 20 00	 mov	 BYTE PTR [eax+32], 0
  001e5	e8 00 00 00 00	 call	 ?_Rrotate@?$_Tree@V?$_Tmap_traits@EV?$vector@VCPoint@@V?$allocator@VCPoint@@@std@@@std@@U?$less@E@2@V?$allocator@U?$pair@$$CBEV?$vector@VCPoint@@V?$allocator@VCPoint@@@std@@@std@@@std@@@2@$0A@@std@@@std@@IAEXPAU_Node@?$_Tree_nod@V?$_Tmap_traits@EV?$vector@VCPoint@@V?$allocator@VCPoint@@@std@@@std@@U?$less@E@2@V?$allocator@U?$pair@$$CBEV?$vector@VCPoint@@V?$allocator@VCPoint@@@std@@@std@@@std@@@2@$0A@@std@@@2@@Z ; std::_Tree<std::_Tmap_traits<unsigned char,std::vector<CPoint,std::allocator<CPoint> >,std::less<unsigned char>,std::allocator<std::pair<unsigned char const ,std::vector<CPoint,std::allocator<CPoint> > > >,0> >::_Rrotate

; 691  : 							_Pnode = _Right(_Fixnodeparent);

  001ea	8b 46 08	 mov	 eax, DWORD PTR [esi+8]
  001ed	8b 4c 24 10	 mov	 ecx, DWORD PTR _this$[esp+100]
$L231731:

; 692  : 							}
; 693  : 
; 694  : 						_Color(_Pnode) = _Color(_Fixnodeparent);

  001f1	8a 56 20	 mov	 dl, BYTE PTR [esi+32]
  001f4	88 50 20	 mov	 BYTE PTR [eax+32], dl

; 695  : 						_Color(_Fixnodeparent) = _Black;

  001f7	88 5e 20	 mov	 BYTE PTR [esi+32], bl

; 696  : 						_Color(_Right(_Pnode)) = _Black;

  001fa	8b 40 08	 mov	 eax, DWORD PTR [eax+8]

; 697  : 						_Lrotate(_Fixnodeparent);

  001fd	56		 push	 esi
  001fe	88 58 20	 mov	 BYTE PTR [eax+32], bl
  00201	e8 00 00 00 00	 call	 ?_Lrotate@?$_Tree@V?$_Tmap_traits@EV?$vector@VCPoint@@V?$allocator@VCPoint@@@std@@@std@@U?$less@E@2@V?$allocator@U?$pair@$$CBEV?$vector@VCPoint@@V?$allocator@VCPoint@@@std@@@std@@@std@@@2@$0A@@std@@@std@@IAEXPAU_Node@?$_Tree_nod@V?$_Tmap_traits@EV?$vector@VCPoint@@V?$allocator@VCPoint@@@std@@@std@@U?$less@E@2@V?$allocator@U?$pair@$$CBEV?$vector@VCPoint@@V?$allocator@VCPoint@@@std@@@std@@@std@@@2@$0A@@std@@@2@@Z ; std::_Tree<std::_Tmap_traits<unsigned char,std::vector<CPoint,std::allocator<CPoint> >,std::less<unsigned char>,std::allocator<std::pair<unsigned char const ,std::vector<CPoint,std::allocator<CPoint> > > >,0> >::_Lrotate

; 698  : 						break;	// tree now recolored/rebalanced

  00206	eb 7a		 jmp	 SHORT $L231724
$L231725:

; 699  : 						}
; 700  : 					}
; 701  : 				else
; 702  : 					{	// fixup right subtree
; 703  : 					_Pnode = _Left(_Fixnodeparent);
; 704  : 					if (_Color(_Pnode) == _Red)

  00208	8a 50 20	 mov	 dl, BYTE PTR [eax+32]
  0020b	84 d2		 test	 dl, dl
  0020d	75 13		 jne	 SHORT $L231733

; 705  : 						{	// rotate red up from left subtree
; 706  : 						_Color(_Pnode) = _Black;

  0020f	88 58 20	 mov	 BYTE PTR [eax+32], bl

; 707  : 						_Color(_Fixnodeparent) = _Red;
; 708  : 						_Rrotate(_Fixnodeparent);

  00212	56		 push	 esi
  00213	c6 46 20 00	 mov	 BYTE PTR [esi+32], 0
  00217	e8 00 00 00 00	 call	 ?_Rrotate@?$_Tree@V?$_Tmap_traits@EV?$vector@VCPoint@@V?$allocator@VCPoint@@@std@@@std@@U?$less@E@2@V?$allocator@U?$pair@$$CBEV?$vector@VCPoint@@V?$allocator@VCPoint@@@std@@@std@@@std@@@2@$0A@@std@@@std@@IAEXPAU_Node@?$_Tree_nod@V?$_Tmap_traits@EV?$vector@VCPoint@@V?$allocator@VCPoint@@@std@@@std@@U?$less@E@2@V?$allocator@U?$pair@$$CBEV?$vector@VCPoint@@V?$allocator@VCPoint@@@std@@@std@@@std@@@2@$0A@@std@@@2@@Z ; std::_Tree<std::_Tmap_traits<unsigned char,std::vector<CPoint,std::allocator<CPoint> >,std::less<unsigned char>,std::allocator<std::pair<unsigned char const ,std::vector<CPoint,std::allocator<CPoint> > > >,0> >::_Rrotate

; 709  : 						_Pnode = _Left(_Fixnodeparent);

  0021c	8b 06		 mov	 eax, DWORD PTR [esi]
  0021e	8b 4c 24 10	 mov	 ecx, DWORD PTR _this$[esp+100]
$L231733:

; 710  : 						}
; 711  : 					if (_Isnil(_Pnode))

  00222	8a 50 21	 mov	 dl, BYTE PTR [eax+33]
  00225	84 d2		 test	 dl, dl

; 712  : 						_Fixnode = _Fixnodeparent;	// shouldn't happen
; 713  : 					else if (_Color(_Right(_Pnode)) == _Black

  00227	75 13		 jne	 SHORT $L239432

; 714  : 						&& _Color(_Left(_Pnode)) == _Black)

  00229	8b 50 08	 mov	 edx, DWORD PTR [eax+8]
  0022c	38 5a 20	 cmp	 BYTE PTR [edx+32], bl
  0022f	75 20		 jne	 SHORT $L231736
  00231	8b 10		 mov	 edx, DWORD PTR [eax]
  00233	38 5a 20	 cmp	 BYTE PTR [edx+32], bl
  00236	75 19		 jne	 SHORT $L231736
$L239433:

; 715  : 						{	// redden left subtree with black children
; 716  : 						_Color(_Pnode) = _Red;

  00238	c6 40 20 00	 mov	 BYTE PTR [eax+32], 0
$L239432:

; 662  : 			{	// erasing black link, must recolor/rebalance tree
; 663  : 			for (; _Fixnode != _Root() && _Color(_Fixnode) == _Black;
; 664  : 				_Fixnodeparent = _Parent(_Fixnode))

  0023c	8b 41 04	 mov	 eax, DWORD PTR [ecx+4]
  0023f	8b 50 04	 mov	 edx, DWORD PTR [eax+4]

; 717  : 						_Fixnode = _Fixnodeparent;

  00242	8b fe		 mov	 edi, esi
  00244	3b fa		 cmp	 edi, edx
  00246	8b 76 04	 mov	 esi, DWORD PTR [esi+4]
  00249	0f 85 41 ff ff
	ff		 jne	 $L231722

; 662  : 			{	// erasing black link, must recolor/rebalance tree
; 663  : 			for (; _Fixnode != _Root() && _Color(_Fixnode) == _Black;
; 664  : 				_Fixnodeparent = _Parent(_Fixnode))

  0024f	eb 31		 jmp	 SHORT $L231724
$L231736:

; 718  : 						}
; 719  : 					else
; 720  : 						{	// must rearrange left subtree
; 721  : 						if (_Color(_Left(_Pnode)) == _Black)

  00251	8b 10		 mov	 edx, DWORD PTR [eax]
  00253	38 5a 20	 cmp	 BYTE PTR [edx+32], bl
  00256	75 16		 jne	 SHORT $L231738

; 722  : 							{	// rotate red up from right sub-subtree
; 723  : 							_Color(_Right(_Pnode)) = _Black;

  00258	8b 50 08	 mov	 edx, DWORD PTR [eax+8]
  0025b	88 5a 20	 mov	 BYTE PTR [edx+32], bl

; 724  : 							_Color(_Pnode) = _Red;
; 725  : 							_Lrotate(_Pnode);

  0025e	50		 push	 eax
  0025f	c6 40 20 00	 mov	 BYTE PTR [eax+32], 0
  00263	e8 00 00 00 00	 call	 ?_Lrotate@?$_Tree@V?$_Tmap_traits@EV?$vector@VCPoint@@V?$allocator@VCPoint@@@std@@@std@@U?$less@E@2@V?$allocator@U?$pair@$$CBEV?$vector@VCPoint@@V?$allocator@VCPoint@@@std@@@std@@@std@@@2@$0A@@std@@@std@@IAEXPAU_Node@?$_Tree_nod@V?$_Tmap_traits@EV?$vector@VCPoint@@V?$allocator@VCPoint@@@std@@@std@@U?$less@E@2@V?$allocator@U?$pair@$$CBEV?$vector@VCPoint@@V?$allocator@VCPoint@@@std@@@std@@@std@@@2@$0A@@std@@@2@@Z ; std::_Tree<std::_Tmap_traits<unsigned char,std::vector<CPoint,std::allocator<CPoint> >,std::less<unsigned char>,std::allocator<std::pair<unsigned char const ,std::vector<CPoint,std::allocator<CPoint> > > >,0> >::_Lrotate

; 726  : 							_Pnode = _Left(_Fixnodeparent);

  00268	8b 06		 mov	 eax, DWORD PTR [esi]
  0026a	8b 4c 24 10	 mov	 ecx, DWORD PTR _this$[esp+100]
$L231738:

; 727  : 							}
; 728  : 
; 729  : 						_Color(_Pnode) = _Color(_Fixnodeparent);

  0026e	8a 56 20	 mov	 dl, BYTE PTR [esi+32]
  00271	88 50 20	 mov	 BYTE PTR [eax+32], dl

; 730  : 						_Color(_Fixnodeparent) = _Black;

  00274	88 5e 20	 mov	 BYTE PTR [esi+32], bl

; 731  : 						_Color(_Left(_Pnode)) = _Black;

  00277	8b 00		 mov	 eax, DWORD PTR [eax]

; 732  : 						_Rrotate(_Fixnodeparent);

  00279	56		 push	 esi
  0027a	88 58 20	 mov	 BYTE PTR [eax+32], bl
  0027d	e8 00 00 00 00	 call	 ?_Rrotate@?$_Tree@V?$_Tmap_traits@EV?$vector@VCPoint@@V?$allocator@VCPoint@@@std@@@std@@U?$less@E@2@V?$allocator@U?$pair@$$CBEV?$vector@VCPoint@@V?$allocator@VCPoint@@@std@@@std@@@std@@@2@$0A@@std@@@std@@IAEXPAU_Node@?$_Tree_nod@V?$_Tmap_traits@EV?$vector@VCPoint@@V?$allocator@VCPoint@@@std@@@std@@U?$less@E@2@V?$allocator@U?$pair@$$CBEV?$vector@VCPoint@@V?$allocator@VCPoint@@@std@@@std@@@std@@@2@$0A@@std@@@2@@Z ; std::_Tree<std::_Tmap_traits<unsigned char,std::vector<CPoint,std::allocator<CPoint> >,std::less<unsigned char>,std::allocator<std::pair<unsigned char const ,std::vector<CPoint,std::allocator<CPoint> > > >,0> >::_Rrotate
$L231724:

; 733  : 						break;	// tree now recolored/rebalanced
; 734  : 						}
; 735  : 					}
; 736  : 
; 737  : 			_Color(_Fixnode) = _Black;	// ensure stopping node is black

  00282	88 5f 20	 mov	 BYTE PTR [edi+32], bl
$L231721:

; 738  : 			}
; 739  : 
; 740  : 		this->_Alnod.destroy(_Erasednode);	// destroy, free erased node

  00285	8b 45 14	 mov	 eax, DWORD PTR [ebp+20]
  00288	33 f6		 xor	 esi, esi
  0028a	3b c6		 cmp	 eax, esi
  0028c	74 09		 je	 SHORT $L239416
  0028e	50		 push	 eax
  0028f	e8 00 00 00 00	 call	 ??3@YAXPAX@Z		; operator delete
  00294	83 c4 04	 add	 esp, 4
$L239416:

; 741  : 		this->_Alnod.deallocate(_Erasednode, 1);

  00297	55		 push	 ebp
  00298	89 75 14	 mov	 DWORD PTR [ebp+20], esi
  0029b	89 75 18	 mov	 DWORD PTR [ebp+24], esi
  0029e	89 75 1c	 mov	 DWORD PTR [ebp+28], esi
  002a1	e8 00 00 00 00	 call	 ??3@YAXPAX@Z		; operator delete

; 742  : 
; 743  : 		if (0 < _Mysize)

  002a6	8b 4c 24 14	 mov	 ecx, DWORD PTR _this$[esp+104]
  002aa	8b 41 08	 mov	 eax, DWORD PTR [ecx+8]
  002ad	83 c4 04	 add	 esp, 4
  002b0	3b c6		 cmp	 eax, esi
  002b2	5f		 pop	 edi
  002b3	5d		 pop	 ebp
  002b4	76 04		 jbe	 SHORT $L231739

; 744  : 			--_Mysize;

  002b6	48		 dec	 eax
  002b7	89 41 08	 mov	 DWORD PTR [ecx+8], eax
$L231739:

; 745  : 
; 746  : 		return (_Where);	// return successor iterator

  002ba	8b 4c 24 64	 mov	 ecx, DWORD PTR __Where$[esp+88]
  002be	8b 44 24 60	 mov	 eax, DWORD PTR ___$ReturnUdt$[esp+88]
  002c2	89 08		 mov	 DWORD PTR [eax], ecx

; 747  : 		}

  002c4	8b 4c 24 50	 mov	 ecx, DWORD PTR __$EHRec$[esp+92]
  002c8	5e		 pop	 esi
  002c9	5b		 pop	 ebx
  002ca	64 89 0d 00 00
	00 00		 mov	 DWORD PTR fs:__except_list, ecx
  002d1	83 c4 54	 add	 esp, 84			; 00000054H
  002d4	c2 08 00	 ret	 8
$L239431:
_TEXT	ENDS
;	COMDAT text$x
text$x	SEGMENT
$L238855:
  00000	8d 4d b0	 lea	 ecx, DWORD PTR $T238850[ebp]
  00003	e9 00 00 00 00	 jmp	 ??1?$basic_string@DU?$char_traits@D@std@@V?$allocator@D@2@@std@@QAE@XZ ; std::basic_string<char,std::char_traits<char>,std::allocator<char> >::~basic_string<char,std::char_traits<char>,std::allocator<char> >
__ehhandler$?erase@?$_Tree@V?$_Tmap_traits@EV?$vector@VCPoint@@V?$allocator@VCPoint@@@std@@@std@@U?$less@E@2@V?$allocator@U?$pair@$$CBEV?$vector@VCPoint@@V?$allocator@VCPoint@@@std@@@std@@@std@@@2@$0A@@std@@@std@@QAE?AViterator@12@V312@@Z:
  00008	b8 00 00 00 00	 mov	 eax, OFFSET FLAT:$T239426
  0000d	e9 00 00 00 00	 jmp	 ___CxxFrameHandler
text$x	ENDS
?erase@?$_Tree@V?$_Tmap_traits@EV?$vector@VCPoint@@V?$allocator@VCPoint@@@std@@@std@@U?$less@E@2@V?$allocator@U?$pair@$$CBEV?$vector@VCPoint@@V?$allocator@VCPoint@@@std@@@std@@@std@@@2@$0A@@std@@@std@@QAE?AViterator@12@V312@@Z ENDP ; std::_Tree<std::_Tmap_traits<unsigned char,std::vector<CPoint,std::allocator<CPoint> >,std::less<unsigned char>,std::allocator<std::pair<unsigned char const ,std::vector<CPoint,std::allocator<CPoint> > > >,0> >::erase
; Function compile flags: /Ogty
;	COMDAT ??0out_of_range@std@@QAE@ABV01@@Z
_TEXT	SEGMENT
___that$ = 8						; size = 4
??0out_of_range@std@@QAE@ABV01@@Z PROC NEAR		; std::out_of_range::out_of_range, COMDAT
; _this$ = ecx
  00000	8b 44 24 04	 mov	 eax, DWORD PTR ___that$[esp-4]
  00004	56		 push	 esi
  00005	50		 push	 eax
  00006	8b f1		 mov	 esi, ecx
  00008	e8 00 00 00 00	 call	 ??0logic_error@std@@QAE@ABV01@@Z
  0000d	c7 06 00 00 00
	00		 mov	 DWORD PTR [esi], OFFSET FLAT:??_7out_of_range@std@@6B@
  00013	8b c6		 mov	 eax, esi
  00015	5e		 pop	 esi
  00016	c2 04 00	 ret	 4
??0out_of_range@std@@QAE@ABV01@@Z ENDP			; std::out_of_range::out_of_range
_TEXT	ENDS
PUBLIC	??0?$pair@$$CBEV?$vector@VCPoint@@V?$allocator@VCPoint@@@std@@@std@@@std@@QAE@ABU01@@Z ; std::pair<unsigned char const ,std::vector<CPoint,std::allocator<CPoint> > >::pair<unsigned char const ,std::vector<CPoint,std::allocator<CPoint> > >
; Function compile flags: /Ogty
;	COMDAT ??0?$pair@$$CBEV?$vector@VCPoint@@V?$allocator@VCPoint@@@std@@@std@@@std@@QAE@ABU01@@Z
_TEXT	SEGMENT
___that$ = 8						; size = 4
??0?$pair@$$CBEV?$vector@VCPoint@@V?$allocator@VCPoint@@@std@@@std@@@std@@QAE@ABU01@@Z PROC NEAR ; std::pair<unsigned char const ,std::vector<CPoint,std::allocator<CPoint> > >::pair<unsigned char const ,std::vector<CPoint,std::allocator<CPoint> > >, COMDAT
; _this$ = ecx
  00000	8b 44 24 04	 mov	 eax, DWORD PTR ___that$[esp-4]
  00004	56		 push	 esi
  00005	8b f1		 mov	 esi, ecx
  00007	8a 08		 mov	 cl, BYTE PTR [eax]
  00009	83 c0 04	 add	 eax, 4
  0000c	88 0e		 mov	 BYTE PTR [esi], cl
  0000e	50		 push	 eax
  0000f	8d 4e 04	 lea	 ecx, DWORD PTR [esi+4]
  00012	e8 00 00 00 00	 call	 ??0?$vector@VCPoint@@V?$allocator@VCPoint@@@std@@@std@@QAE@ABV01@@Z ; std::vector<CPoint,std::allocator<CPoint> >::vector<CPoint,std::allocator<CPoint> >
  00017	8b c6		 mov	 eax, esi
  00019	5e		 pop	 esi
  0001a	c2 04 00	 ret	 4
??0?$pair@$$CBEV?$vector@VCPoint@@V?$allocator@VCPoint@@@std@@@std@@@std@@QAE@ABU01@@Z ENDP ; std::pair<unsigned char const ,std::vector<CPoint,std::allocator<CPoint> > >::pair<unsigned char const ,std::vector<CPoint,std::allocator<CPoint> > >
_TEXT	ENDS
PUBLIC	??$?0HV?$vector@VCPoint@@V?$allocator@VCPoint@@@std@@@std@@@?$pair@$$CBEV?$vector@VCPoint@@V?$allocator@VCPoint@@@std@@@std@@@std@@QAE@ABU?$pair@HV?$vector@VCPoint@@V?$allocator@VCPoint@@@std@@@std@@@1@@Z ; std::pair<unsigned char const ,std::vector<CPoint,std::allocator<CPoint> > >::pair<unsigned char const ,std::vector<CPoint,std::allocator<CPoint> > ><int,std::vector<CPoint,std::allocator<CPoint> > >
; Function compile flags: /Ogty
; File c:\program files\microsoft visual studio .net 2003\vc7\include\utility
;	COMDAT ??$?0HV?$vector@VCPoint@@V?$allocator@VCPoint@@@std@@@std@@@?$pair@$$CBEV?$vector@VCPoint@@V?$allocator@VCPoint@@@std@@@std@@@std@@QAE@ABU?$pair@HV?$vector@VCPoint@@V?$allocator@VCPoint@@@std@@@std@@@1@@Z
_TEXT	SEGMENT
__Right$ = 8						; size = 4
??$?0HV?$vector@VCPoint@@V?$allocator@VCPoint@@@std@@@std@@@?$pair@$$CBEV?$vector@VCPoint@@V?$allocator@VCPoint@@@std@@@std@@@std@@QAE@ABU?$pair@HV?$vector@VCPoint@@V?$allocator@VCPoint@@@std@@@std@@@1@@Z PROC NEAR ; std::pair<unsigned char const ,std::vector<CPoint,std::allocator<CPoint> > >::pair<unsigned char const ,std::vector<CPoint,std::allocator<CPoint> > ><int,std::vector<CPoint,std::allocator<CPoint> > >, COMDAT
; _this$ = ecx

; 41   : 		{	// construct from compatible pair

  00000	8b 44 24 04	 mov	 eax, DWORD PTR __Right$[esp-4]
  00004	56		 push	 esi
  00005	8b f1		 mov	 esi, ecx
  00007	8a 08		 mov	 cl, BYTE PTR [eax]
  00009	83 c0 04	 add	 eax, 4
  0000c	88 0e		 mov	 BYTE PTR [esi], cl
  0000e	50		 push	 eax
  0000f	8d 4e 04	 lea	 ecx, DWORD PTR [esi+4]
  00012	e8 00 00 00 00	 call	 ??0?$vector@VCPoint@@V?$allocator@VCPoint@@@std@@@std@@QAE@ABV01@@Z ; std::vector<CPoint,std::allocator<CPoint> >::vector<CPoint,std::allocator<CPoint> >

; 42   : 		}

  00017	8b c6		 mov	 eax, esi
  00019	5e		 pop	 esi
  0001a	c2 04 00	 ret	 4
??$?0HV?$vector@VCPoint@@V?$allocator@VCPoint@@@std@@@std@@@?$pair@$$CBEV?$vector@VCPoint@@V?$allocator@VCPoint@@@std@@@std@@@std@@QAE@ABU?$pair@HV?$vector@VCPoint@@V?$allocator@VCPoint@@@std@@@std@@@1@@Z ENDP ; std::pair<unsigned char const ,std::vector<CPoint,std::allocator<CPoint> > >::pair<unsigned char const ,std::vector<CPoint,std::allocator<CPoint> > ><int,std::vector<CPoint,std::allocator<CPoint> > >
_TEXT	ENDS
PUBLIC	??0?$pair@HV?$vector@VCPoint@@V?$allocator@VCPoint@@@std@@@std@@@std@@QAE@ABHABV?$vector@VCPoint@@V?$allocator@VCPoint@@@std@@@1@@Z ; std::pair<int,std::vector<CPoint,std::allocator<CPoint> > >::pair<int,std::vector<CPoint,std::allocator<CPoint> > >
; Function compile flags: /Ogty
;	COMDAT ??0?$pair@HV?$vector@VCPoint@@V?$allocator@VCPoint@@@std@@@std@@@std@@QAE@ABHABV?$vector@VCPoint@@V?$allocator@VCPoint@@@std@@@1@@Z
_TEXT	SEGMENT
__Val1$ = 8						; size = 4
__Val2$ = 12						; size = 4
??0?$pair@HV?$vector@VCPoint@@V?$allocator@VCPoint@@@std@@@std@@@std@@QAE@ABHABV?$vector@VCPoint@@V?$allocator@VCPoint@@@std@@@1@@Z PROC NEAR ; std::pair<int,std::vector<CPoint,std::allocator<CPoint> > >::pair<int,std::vector<CPoint,std::allocator<CPoint> > >, COMDAT
; _this$ = ecx

; 34   : 		{	// construct from specified values

  00000	8b 44 24 04	 mov	 eax, DWORD PTR __Val1$[esp-4]
  00004	8b 54 24 08	 mov	 edx, DWORD PTR __Val2$[esp-4]
  00008	56		 push	 esi
  00009	8b f1		 mov	 esi, ecx
  0000b	8b 08		 mov	 ecx, DWORD PTR [eax]
  0000d	89 0e		 mov	 DWORD PTR [esi], ecx
  0000f	52		 push	 edx
  00010	8d 4e 04	 lea	 ecx, DWORD PTR [esi+4]
  00013	e8 00 00 00 00	 call	 ??0?$vector@VCPoint@@V?$allocator@VCPoint@@@std@@@std@@QAE@ABV01@@Z ; std::vector<CPoint,std::allocator<CPoint> >::vector<CPoint,std::allocator<CPoint> >

; 35   : 		}

  00018	8b c6		 mov	 eax, esi
  0001a	5e		 pop	 esi
  0001b	c2 08 00	 ret	 8
??0?$pair@HV?$vector@VCPoint@@V?$allocator@VCPoint@@@std@@@std@@@std@@QAE@ABHABV?$vector@VCPoint@@V?$allocator@VCPoint@@@std@@@1@@Z ENDP ; std::pair<int,std::vector<CPoint,std::allocator<CPoint> > >::pair<int,std::vector<CPoint,std::allocator<CPoint> > >
_TEXT	ENDS
PUBLIC	?GetContinent@CContinent@@QAEEABUD3DXVECTOR3@@@Z ; CContinent::GetContinent
EXTRN	__ftol2:NEAR
;	COMDAT xdata$x
; File c:\program files\microsoft visual studio .net 2003\vc7\include\xmemory
xdata$x	SEGMENT
$T239704 DD	0ffffffffH
	DD	FLAT:$L239461
$T239699 DD	019930520H
	DD	01H
	DD	FLAT:$T239704
	DD	2 DUP(00H)
	DD	2 DUP(00H)
; Function compile flags: /Ogty
; File c:\documents and settings\test\mes documents\source\virtuos_v17\build\program\_common\continent.cpp
xdata$x	ENDS
;	COMDAT ?GetContinent@CContinent@@QAEEABUD3DXVECTOR3@@@Z
_TEXT	SEGMENT
$T239458 = -32						; size = 4
_vecPoint$ = -28					; size = 16
__$EHRec$ = -12						; size = 12
_iter$230786 = 8					; size = 4
_vPos$ = 8						; size = 4
?GetContinent@CContinent@@QAEEABUD3DXVECTOR3@@@Z PROC NEAR ; CContinent::GetContinent, COMDAT
; _this$ = ecx

; 179  : {

  00000	6a ff		 push	 -1
  00002	68 00 00 00 00	 push	 __ehhandler$?GetContinent@CContinent@@QAEEABUD3DXVECTOR3@@@Z
  00007	64 a1 00 00 00
	00		 mov	 eax, DWORD PTR fs:__except_list
  0000d	50		 push	 eax
  0000e	64 89 25 00 00
	00 00		 mov	 DWORD PTR fs:__except_list, esp
  00015	83 ec 14	 sub	 esp, 20			; 00000014H
  00018	53		 push	 ebx
  00019	55		 push	 ebp

; 180  : 	CPoint  cpoint;
; 181  : 	vector<CPoint>	vecPoint;

  0001a	33 c0		 xor	 eax, eax
  0001c	56		 push	 esi
  0001d	57		 push	 edi
  0001e	8b f9		 mov	 edi, ecx
  00020	89 44 24 18	 mov	 DWORD PTR _vecPoint$[esp+52], eax
  00024	89 44 24 1c	 mov	 DWORD PTR _vecPoint$[esp+56], eax
  00028	89 44 24 20	 mov	 DWORD PTR _vecPoint$[esp+60], eax

; 182  : 
; 183  : 	cpoint.x    = (long)( vPos.x );

  0002c	8b 74 24 34	 mov	 esi, DWORD PTR _vPos$[esp+44]
  00030	d9 06		 fld	 DWORD PTR [esi]
  00032	89 44 24 2c	 mov	 DWORD PTR __$EHRec$[esp+56], eax
  00036	e8 00 00 00 00	 call	 __ftol2

; 184  : 	cpoint.y    = (long)( vPos.z );

  0003b	d9 46 08	 fld	 DWORD PTR [esi+8]
  0003e	8b d8		 mov	 ebx, eax
  00040	e8 00 00 00 00	 call	 __ftol2
  00045	8b e8		 mov	 ebp, eax

; 185  : 
; 186  : 	for( map< BYTE, vector<CPoint> >::iterator iter = m_MapCont.begin(); iter != m_MapCont.end(); ++iter )

  00047	8b 47 08	 mov	 eax, DWORD PTR [edi+8]
  0004a	8b 30		 mov	 esi, DWORD PTR [eax]
  0004c	3b f0		 cmp	 esi, eax
  0004e	89 74 24 34	 mov	 DWORD PTR _iter$230786[esp+44], esi
  00052	74 50		 je	 SHORT $L239695
$L239584:

; 187  : 	{
; 188  : 		vecPoint  = iter->second;

  00054	8d 46 10	 lea	 eax, DWORD PTR [esi+16]
  00057	50		 push	 eax
  00058	8d 4c 24 18	 lea	 ecx, DWORD PTR _vecPoint$[esp+52]
  0005c	e8 00 00 00 00	 call	 ??4?$vector@VCPoint@@V?$allocator@VCPoint@@@std@@@std@@QAEAAV01@ABV01@@Z ; std::vector<CPoint,std::allocator<CPoint> >::operator=

; 189  : 
; 190  : 		if( Point_In_Poly( vecPoint, cpoint ) )

  00061	55		 push	 ebp
  00062	53		 push	 ebx
  00063	83 ec 10	 sub	 esp, 16			; 00000010H
  00066	8d 54 24 2c	 lea	 edx, DWORD PTR _vecPoint$[esp+72]
  0006a	8b cc		 mov	 ecx, esp
  0006c	89 64 24 28	 mov	 DWORD PTR $T239458[esp+72], esp
  00070	52		 push	 edx
  00071	e8 00 00 00 00	 call	 ??0?$vector@VCPoint@@V?$allocator@VCPoint@@@std@@@std@@QAE@ABV01@@Z ; std::vector<CPoint,std::allocator<CPoint> >::vector<CPoint,std::allocator<CPoint> >
  00076	8b cf		 mov	 ecx, edi
  00078	e8 00 00 00 00	 call	 ?Point_In_Poly@CContinent@@AAEHV?$vector@VCPoint@@V?$allocator@VCPoint@@@std@@@std@@VCPoint@@@Z ; CContinent::Point_In_Poly
  0007d	85 c0		 test	 eax, eax
  0007f	75 3a		 jne	 SHORT $L239701
  00081	8d 4c 24 34	 lea	 ecx, DWORD PTR _iter$230786[esp+44]
  00085	e8 00 00 00 00	 call	 ?_Inc@const_iterator@?$_Tree@V?$_Tmap_traits@EV?$vector@VCPoint@@V?$allocator@VCPoint@@@std@@@std@@U?$less@E@2@V?$allocator@U?$pair@$$CBEV?$vector@VCPoint@@V?$allocator@VCPoint@@@std@@@std@@@std@@@2@$0A@@std@@@std@@QAEXXZ ; std::_Tree<std::_Tmap_traits<unsigned char,std::vector<CPoint,std::allocator<CPoint> >,std::less<unsigned char>,std::allocator<std::pair<unsigned char const ,std::vector<CPoint,std::allocator<CPoint> > > >,0> >::const_iterator::_Inc
  0008a	8b 74 24 34	 mov	 esi, DWORD PTR _iter$230786[esp+44]
  0008e	3b 77 08	 cmp	 esi, DWORD PTR [edi+8]
  00091	75 c1		 jne	 SHORT $L239584

; 192  : 	}
; 193  : 
; 194  : 	return CONT_NODATA;

  00093	8b 44 24 18	 mov	 eax, DWORD PTR _vecPoint$[esp+52]
  00097	85 c0		 test	 eax, eax
  00099	74 09		 je	 SHORT $L239695
  0009b	50		 push	 eax
  0009c	e8 00 00 00 00	 call	 ??3@YAXPAX@Z		; operator delete
  000a1	83 c4 04	 add	 esp, 4
$L239695:
  000a4	32 c0		 xor	 al, al

; 195  : }

  000a6	8b 4c 24 24	 mov	 ecx, DWORD PTR __$EHRec$[esp+48]
  000aa	64 89 0d 00 00
	00 00		 mov	 DWORD PTR fs:__except_list, ecx
  000b1	5f		 pop	 edi
  000b2	5e		 pop	 esi
  000b3	5d		 pop	 ebp
  000b4	5b		 pop	 ebx
  000b5	83 c4 20	 add	 esp, 32			; 00000020H
  000b8	c2 04 00	 ret	 4
$L239701:

; 191  : 			return iter->first;

  000bb	8b 44 24 18	 mov	 eax, DWORD PTR _vecPoint$[esp+52]
  000bf	85 c0		 test	 eax, eax
  000c1	8a 5e 0c	 mov	 bl, BYTE PTR [esi+12]
  000c4	74 09		 je	 SHORT $L239676
  000c6	50		 push	 eax
  000c7	e8 00 00 00 00	 call	 ??3@YAXPAX@Z		; operator delete
  000cc	83 c4 04	 add	 esp, 4
$L239676:

; 195  : }

  000cf	8b 4c 24 24	 mov	 ecx, DWORD PTR __$EHRec$[esp+48]
  000d3	5f		 pop	 edi
  000d4	5e		 pop	 esi
  000d5	5d		 pop	 ebp
  000d6	8a c3		 mov	 al, bl
  000d8	64 89 0d 00 00
	00 00		 mov	 DWORD PTR fs:__except_list, ecx
  000df	5b		 pop	 ebx
  000e0	83 c4 20	 add	 esp, 32			; 00000020H
  000e3	c2 04 00	 ret	 4
_TEXT	ENDS
;	COMDAT text$x
text$x	SEGMENT
$L239461:
  00000	8d 4d e4	 lea	 ecx, DWORD PTR _vecPoint$[ebp]
  00003	e9 00 00 00 00	 jmp	 ??1?$vector@VCPoint@@V?$allocator@VCPoint@@@std@@@std@@QAE@XZ ; std::vector<CPoint,std::allocator<CPoint> >::~vector<CPoint,std::allocator<CPoint> >
__ehhandler$?GetContinent@CContinent@@QAEEABUD3DXVECTOR3@@@Z:
  00008	b8 00 00 00 00	 mov	 eax, OFFSET FLAT:$T239699
  0000d	e9 00 00 00 00	 jmp	 ___CxxFrameHandler
text$x	ENDS
?GetContinent@CContinent@@QAEEABUD3DXVECTOR3@@@Z ENDP	; CContinent::GetContinent
PUBLIC	?GetTown@CContinent@@QAEEABUD3DXVECTOR3@@@Z	; CContinent::GetTown
;	COMDAT xdata$x
; File c:\program files\microsoft visual studio .net 2003\vc7\include\xmemory
xdata$x	SEGMENT
$T239956 DD	0ffffffffH
	DD	FLAT:$L239714
$T239952 DD	019930520H
	DD	01H
	DD	FLAT:$T239956
	DD	2 DUP(00H)
	DD	2 DUP(00H)
; Function compile flags: /Ogty
; File c:\documents and settings\test\mes documents\source\virtuos_v17\build\program\_common\continent.cpp
xdata$x	ENDS
;	COMDAT ?GetTown@CContinent@@QAEEABUD3DXVECTOR3@@@Z
_TEXT	SEGMENT
$T239711 = -32						; size = 4
_vecPoint$ = -28					; size = 16
__$EHRec$ = -12						; size = 12
_iter$230811 = 8					; size = 4
_vPos$ = 8						; size = 4
?GetTown@CContinent@@QAEEABUD3DXVECTOR3@@@Z PROC NEAR	; CContinent::GetTown, COMDAT
; _this$ = ecx

; 198  : {

  00000	6a ff		 push	 -1
  00002	68 00 00 00 00	 push	 __ehhandler$?GetTown@CContinent@@QAEEABUD3DXVECTOR3@@@Z
  00007	64 a1 00 00 00
	00		 mov	 eax, DWORD PTR fs:__except_list
  0000d	50		 push	 eax
  0000e	64 89 25 00 00
	00 00		 mov	 DWORD PTR fs:__except_list, esp
  00015	83 ec 14	 sub	 esp, 20			; 00000014H
  00018	53		 push	 ebx
  00019	55		 push	 ebp

; 199  : 	CPoint  cpoint;
; 200  : 	vector<CPoint>	vecPoint;

  0001a	33 c0		 xor	 eax, eax
  0001c	56		 push	 esi
  0001d	57		 push	 edi
  0001e	8b f9		 mov	 edi, ecx
  00020	89 44 24 18	 mov	 DWORD PTR _vecPoint$[esp+52], eax
  00024	89 44 24 1c	 mov	 DWORD PTR _vecPoint$[esp+56], eax
  00028	89 44 24 20	 mov	 DWORD PTR _vecPoint$[esp+60], eax

; 201  : 
; 202  : 	cpoint.x    = (long)( vPos.x );

  0002c	8b 74 24 34	 mov	 esi, DWORD PTR _vPos$[esp+44]
  00030	d9 06		 fld	 DWORD PTR [esi]
  00032	89 44 24 2c	 mov	 DWORD PTR __$EHRec$[esp+56], eax
  00036	e8 00 00 00 00	 call	 __ftol2

; 203  : 	cpoint.y    = (long)( vPos.z );

  0003b	d9 46 08	 fld	 DWORD PTR [esi+8]
  0003e	8b d8		 mov	 ebx, eax
  00040	e8 00 00 00 00	 call	 __ftol2
  00045	8b e8		 mov	 ebp, eax

; 204  : 
; 205  : 	for( map< BYTE, vector<CPoint> >::iterator iter = m_MapContTown.begin(); iter != m_MapContTown.end(); ++iter )

  00047	8b 47 14	 mov	 eax, DWORD PTR [edi+20]
  0004a	8b 30		 mov	 esi, DWORD PTR [eax]
  0004c	3b f0		 cmp	 esi, eax
  0004e	89 74 24 34	 mov	 DWORD PTR _iter$230811[esp+44], esi
  00052	74 50		 je	 SHORT $L239948
$L239840:

; 206  : 	{
; 207  : 		vecPoint  = iter->second;

  00054	8d 46 10	 lea	 eax, DWORD PTR [esi+16]
  00057	50		 push	 eax
  00058	8d 4c 24 18	 lea	 ecx, DWORD PTR _vecPoint$[esp+52]
  0005c	e8 00 00 00 00	 call	 ??4?$vector@VCPoint@@V?$allocator@VCPoint@@@std@@@std@@QAEAAV01@ABV01@@Z ; std::vector<CPoint,std::allocator<CPoint> >::operator=

; 208  : 
; 209  : 		if( Point_In_Poly( vecPoint, cpoint ) )

  00061	55		 push	 ebp
  00062	53		 push	 ebx
  00063	83 ec 10	 sub	 esp, 16			; 00000010H
  00066	8d 54 24 2c	 lea	 edx, DWORD PTR _vecPoint$[esp+72]
  0006a	8b cc		 mov	 ecx, esp
  0006c	89 64 24 28	 mov	 DWORD PTR $T239711[esp+72], esp
  00070	52		 push	 edx
  00071	e8 00 00 00 00	 call	 ??0?$vector@VCPoint@@V?$allocator@VCPoint@@@std@@@std@@QAE@ABV01@@Z ; std::vector<CPoint,std::allocator<CPoint> >::vector<CPoint,std::allocator<CPoint> >
  00076	8b cf		 mov	 ecx, edi
  00078	e8 00 00 00 00	 call	 ?Point_In_Poly@CContinent@@AAEHV?$vector@VCPoint@@V?$allocator@VCPoint@@@std@@@std@@VCPoint@@@Z ; CContinent::Point_In_Poly
  0007d	85 c0		 test	 eax, eax
  0007f	75 3a		 jne	 SHORT $L239954
  00081	8d 4c 24 34	 lea	 ecx, DWORD PTR _iter$230811[esp+44]
  00085	e8 00 00 00 00	 call	 ?_Inc@const_iterator@?$_Tree@V?$_Tmap_traits@EV?$vector@VCPoint@@V?$allocator@VCPoint@@@std@@@std@@U?$less@E@2@V?$allocator@U?$pair@$$CBEV?$vector@VCPoint@@V?$allocator@VCPoint@@@std@@@std@@@std@@@2@$0A@@std@@@std@@QAEXXZ ; std::_Tree<std::_Tmap_traits<unsigned char,std::vector<CPoint,std::allocator<CPoint> >,std::less<unsigned char>,std::allocator<std::pair<unsigned char const ,std::vector<CPoint,std::allocator<CPoint> > > >,0> >::const_iterator::_Inc
  0008a	8b 74 24 34	 mov	 esi, DWORD PTR _iter$230811[esp+44]
  0008e	3b 77 14	 cmp	 esi, DWORD PTR [edi+20]
  00091	75 c1		 jne	 SHORT $L239840

; 211  : 	}
; 212  : 
; 213  : 	return CONT_NODATA;

  00093	8b 44 24 18	 mov	 eax, DWORD PTR _vecPoint$[esp+52]
  00097	85 c0		 test	 eax, eax
  00099	74 09		 je	 SHORT $L239948
  0009b	50		 push	 eax
  0009c	e8 00 00 00 00	 call	 ??3@YAXPAX@Z		; operator delete
  000a1	83 c4 04	 add	 esp, 4
$L239948:
  000a4	32 c0		 xor	 al, al

; 214  : }

  000a6	8b 4c 24 24	 mov	 ecx, DWORD PTR __$EHRec$[esp+48]
  000aa	64 89 0d 00 00
	00 00		 mov	 DWORD PTR fs:__except_list, ecx
  000b1	5f		 pop	 edi
  000b2	5e		 pop	 esi
  000b3	5d		 pop	 ebp
  000b4	5b		 pop	 ebx
  000b5	83 c4 20	 add	 esp, 32			; 00000020H
  000b8	c2 04 00	 ret	 4
$L239954:

; 210  : 			return iter->first;

  000bb	8b 44 24 18	 mov	 eax, DWORD PTR _vecPoint$[esp+52]
  000bf	85 c0		 test	 eax, eax
  000c1	8a 5e 0c	 mov	 bl, BYTE PTR [esi+12]
  000c4	74 09		 je	 SHORT $L239929
  000c6	50		 push	 eax
  000c7	e8 00 00 00 00	 call	 ??3@YAXPAX@Z		; operator delete
  000cc	83 c4 04	 add	 esp, 4
$L239929:

; 214  : }

  000cf	8b 4c 24 24	 mov	 ecx, DWORD PTR __$EHRec$[esp+48]
  000d3	5f		 pop	 edi
  000d4	5e		 pop	 esi
  000d5	5d		 pop	 ebp
  000d6	8a c3		 mov	 al, bl
  000d8	64 89 0d 00 00
	00 00		 mov	 DWORD PTR fs:__except_list, ecx
  000df	5b		 pop	 ebx
  000e0	83 c4 20	 add	 esp, 32			; 00000020H
  000e3	c2 04 00	 ret	 4
_TEXT	ENDS
;	COMDAT text$x
text$x	SEGMENT
$L239714:
  00000	8d 4d e4	 lea	 ecx, DWORD PTR _vecPoint$[ebp]
  00003	e9 00 00 00 00	 jmp	 ??1?$vector@VCPoint@@V?$allocator@VCPoint@@@std@@@std@@QAE@XZ ; std::vector<CPoint,std::allocator<CPoint> >::~vector<CPoint,std::allocator<CPoint> >
__ehhandler$?GetTown@CContinent@@QAEEABUD3DXVECTOR3@@@Z:
  00008	b8 00 00 00 00	 mov	 eax, OFFSET FLAT:$T239952
  0000d	e9 00 00 00 00	 jmp	 ___CxxFrameHandler
text$x	ENDS
?GetTown@CContinent@@QAEEABUD3DXVECTOR3@@@Z ENDP	; CContinent::GetTown
PUBLIC	?push_back@?$vector@VCPoint@@V?$allocator@VCPoint@@@std@@@std@@QAEXABVCPoint@@@Z ; std::vector<CPoint,std::allocator<CPoint> >::push_back
; Function compile flags: /Ogty
; File c:\program files\microsoft visual studio .net 2003\vc7\include\vector
;	COMDAT ?push_back@?$vector@VCPoint@@V?$allocator@VCPoint@@@std@@@std@@QAEXABVCPoint@@@Z
_TEXT	SEGMENT
__Cat$239997 = 8					; size = 1
__Val$ = 8						; size = 4
?push_back@?$vector@VCPoint@@V?$allocator@VCPoint@@@std@@@std@@QAEXABVCPoint@@@Z PROC NEAR ; std::vector<CPoint,std::allocator<CPoint> >::push_back, COMDAT
; _this$ = ecx

; 579  : 		{	// insert element at end

  00000	56		 push	 esi
  00001	8b f1		 mov	 esi, ecx

; 580  : 		if (size() < capacity())

  00003	8b 56 04	 mov	 edx, DWORD PTR [esi+4]
  00006	85 d2		 test	 edx, edx
  00008	75 04		 jne	 SHORT $L239968
  0000a	33 c9		 xor	 ecx, ecx
  0000c	eb 08		 jmp	 SHORT $L239969
$L239968:
  0000e	8b 4e 08	 mov	 ecx, DWORD PTR [esi+8]
  00011	2b ca		 sub	 ecx, edx
  00013	c1 f9 03	 sar	 ecx, 3
$L239969:
  00016	85 d2		 test	 edx, edx
  00018	74 31		 je	 SHORT $L231223
  0001a	8b 46 0c	 mov	 eax, DWORD PTR [esi+12]
  0001d	2b c2		 sub	 eax, edx
  0001f	c1 f8 03	 sar	 eax, 3
  00022	3b c8		 cmp	 ecx, eax
  00024	73 25		 jae	 SHORT $L231223

; 581  : 			_Mylast = _Ufill(_Mylast, 1, _Val);

  00026	8b 44 24 08	 mov	 eax, DWORD PTR __Cat$239997[esp]
  0002a	8b 4c 24 08	 mov	 ecx, DWORD PTR __Val$[esp]
  0002e	57		 push	 edi
  0002f	8b 7e 08	 mov	 edi, DWORD PTR [esi+8]
  00032	50		 push	 eax
  00033	56		 push	 esi
  00034	51		 push	 ecx
  00035	6a 01		 push	 1
  00037	57		 push	 edi
  00038	e8 00 00 00 00	 call	 ??$_Uninit_fill_n@PAVCPoint@@IV1@V?$allocator@VCPoint@@@std@@@std@@YAXPAVCPoint@@IABV1@AAV?$allocator@VCPoint@@@0@U_Nonscalar_ptr_iterator_tag@0@@Z ; std::_Uninit_fill_n<CPoint *,unsigned int,CPoint,std::allocator<CPoint> >
  0003d	83 c4 14	 add	 esp, 20			; 00000014H
  00040	83 c7 08	 add	 edi, 8
  00043	89 7e 08	 mov	 DWORD PTR [esi+8], edi
  00046	5f		 pop	 edi
  00047	5e		 pop	 esi

; 584  : 		}

  00048	c2 04 00	 ret	 4
$L231223:

; 582  : 		else
; 583  : 			insert(end(), _Val);

  0004b	8b 54 24 08	 mov	 edx, DWORD PTR __Val$[esp]
  0004f	8b 46 08	 mov	 eax, DWORD PTR [esi+8]
  00052	52		 push	 edx
  00053	6a 01		 push	 1
  00055	50		 push	 eax
  00056	8b ce		 mov	 ecx, esi
  00058	e8 00 00 00 00	 call	 ?_Insert_n@?$vector@VCPoint@@V?$allocator@VCPoint@@@std@@@std@@IAEXViterator@12@IABVCPoint@@@Z ; std::vector<CPoint,std::allocator<CPoint> >::_Insert_n
  0005d	5e		 pop	 esi

; 584  : 		}

  0005e	c2 04 00	 ret	 4
?push_back@?$vector@VCPoint@@V?$allocator@VCPoint@@@std@@@std@@QAEXABVCPoint@@@Z ENDP ; std::vector<CPoint,std::allocator<CPoint> >::push_back
_TEXT	ENDS
PUBLIC	?_Erase@?$_Tree@V?$_Tmap_traits@EV?$vector@VCPoint@@V?$allocator@VCPoint@@@std@@@std@@U?$less@E@2@V?$allocator@U?$pair@$$CBEV?$vector@VCPoint@@V?$allocator@VCPoint@@@std@@@std@@@std@@@2@$0A@@std@@@std@@IAEXPAU_Node@?$_Tree_nod@V?$_Tmap_traits@EV?$vector@VCPoint@@V?$allocator@VCPoint@@@std@@@std@@U?$less@E@2@V?$allocator@U?$pair@$$CBEV?$vector@VCPoint@@V?$allocator@VCPoint@@@std@@@std@@@std@@@2@$0A@@std@@@2@@Z ; std::_Tree<std::_Tmap_traits<unsigned char,std::vector<CPoint,std::allocator<CPoint> >,std::less<unsigned char>,std::allocator<std::pair<unsigned char const ,std::vector<CPoint,std::allocator<CPoint> > > >,0> >::_Erase
; Function compile flags: /Ogty
; File c:\program files\microsoft visual studio .net 2003\vc7\include\xtree
;	COMDAT ?_Erase@?$_Tree@V?$_Tmap_traits@EV?$vector@VCPoint@@V?$allocator@VCPoint@@@std@@@std@@U?$less@E@2@V?$allocator@U?$pair@$$CBEV?$vector@VCPoint@@V?$allocator@VCPoint@@@std@@@std@@@std@@@2@$0A@@std@@@std@@IAEXPAU_Node@?$_Tree_nod@V?$_Tmap_traits@EV?$vector@VCPoint@@V?$allocator@VCPoint@@@std@@@std@@U?$less@E@2@V?$allocator@U?$pair@$$CBEV?$vector@VCPoint@@V?$allocator@VCPoint@@@std@@@std@@@std@@@2@$0A@@std@@@2@@Z
_TEXT	SEGMENT
__Rootnode$ = 8						; size = 4
?_Erase@?$_Tree@V?$_Tmap_traits@EV?$vector@VCPoint@@V?$allocator@VCPoint@@@std@@@std@@U?$less@E@2@V?$allocator@U?$pair@$$CBEV?$vector@VCPoint@@V?$allocator@VCPoint@@@std@@@std@@@std@@@2@$0A@@std@@@std@@IAEXPAU_Node@?$_Tree_nod@V?$_Tmap_traits@EV?$vector@VCPoint@@V?$allocator@VCPoint@@@std@@@std@@U?$less@E@2@V?$allocator@U?$pair@$$CBEV?$vector@VCPoint@@V?$allocator@VCPoint@@@std@@@std@@@std@@@2@$0A@@std@@@2@@Z PROC NEAR ; std::_Tree<std::_Tmap_traits<unsigned char,std::vector<CPoint,std::allocator<CPoint> >,std::less<unsigned char>,std::allocator<std::pair<unsigned char const ,std::vector<CPoint,std::allocator<CPoint> > > >,0> >::_Erase, COMDAT
; _this$ = ecx

; 890  : 		{	// free entire subtree, recursively

  00000	53		 push	 ebx
  00001	56		 push	 esi
  00002	57		 push	 edi

; 891  : 		for (_Nodeptr _Pnode = _Rootnode; !_Isnil(_Pnode); _Rootnode = _Pnode)

  00003	8b 7c 24 10	 mov	 edi, DWORD PTR __Rootnode$[esp+8]
  00007	8a 47 21	 mov	 al, BYTE PTR [edi+33]
  0000a	84 c0		 test	 al, al
  0000c	8b d9		 mov	 ebx, ecx
  0000e	8b f7		 mov	 esi, edi
  00010	75 26		 jne	 SHORT $L231344
$L231342:

; 892  : 			{	// free subtrees, then node
; 893  : 			_Erase(_Right(_Pnode));

  00012	8b 46 08	 mov	 eax, DWORD PTR [esi+8]
  00015	50		 push	 eax
  00016	8b cb		 mov	 ecx, ebx
  00018	e8 00 00 00 00	 call	 ?_Erase@?$_Tree@V?$_Tmap_traits@EV?$vector@VCPoint@@V?$allocator@VCPoint@@@std@@@std@@U?$less@E@2@V?$allocator@U?$pair@$$CBEV?$vector@VCPoint@@V?$allocator@VCPoint@@@std@@@std@@@std@@@2@$0A@@std@@@std@@IAEXPAU_Node@?$_Tree_nod@V?$_Tmap_traits@EV?$vector@VCPoint@@V?$allocator@VCPoint@@@std@@@std@@U?$less@E@2@V?$allocator@U?$pair@$$CBEV?$vector@VCPoint@@V?$allocator@VCPoint@@@std@@@std@@@std@@@2@$0A@@std@@@2@@Z ; std::_Tree<std::_Tmap_traits<unsigned char,std::vector<CPoint,std::allocator<CPoint> >,std::less<unsigned char>,std::allocator<std::pair<unsigned char const ,std::vector<CPoint,std::allocator<CPoint> > > >,0> >::_Erase

; 894  : 			_Pnode = _Left(_Pnode);

  0001d	8b 36		 mov	 esi, DWORD PTR [esi]

; 895  : 			this->_Alnod.destroy(_Rootnode);	// destroy, free erased node

  0001f	8b cf		 mov	 ecx, edi
  00021	e8 00 00 00 00	 call	 ??1_Node@?$_Tree_nod@V?$_Tmap_traits@EV?$vector@VCPoint@@V?$allocator@VCPoint@@@std@@@std@@U?$less@E@2@V?$allocator@U?$pair@$$CBEV?$vector@VCPoint@@V?$allocator@VCPoint@@@std@@@std@@@std@@@2@$0A@@std@@@std@@QAE@XZ

; 896  : 			this->_Alnod.deallocate(_Rootnode, 1);

  00026	57		 push	 edi
  00027	e8 00 00 00 00	 call	 ??3@YAXPAX@Z		; operator delete
  0002c	8a 46 21	 mov	 al, BYTE PTR [esi+33]
  0002f	83 c4 04	 add	 esp, 4
  00032	84 c0		 test	 al, al
  00034	8b fe		 mov	 edi, esi
  00036	74 da		 je	 SHORT $L231342
$L231344:
  00038	5f		 pop	 edi
  00039	5e		 pop	 esi
  0003a	5b		 pop	 ebx

; 897  : 			}
; 898  : 		}

  0003b	c2 04 00	 ret	 4
?_Erase@?$_Tree@V?$_Tmap_traits@EV?$vector@VCPoint@@V?$allocator@VCPoint@@@std@@@std@@U?$less@E@2@V?$allocator@U?$pair@$$CBEV?$vector@VCPoint@@V?$allocator@VCPoint@@@std@@@std@@@std@@@2@$0A@@std@@@std@@IAEXPAU_Node@?$_Tree_nod@V?$_Tmap_traits@EV?$vector@VCPoint@@V?$allocator@VCPoint@@@std@@@std@@U?$less@E@2@V?$allocator@U?$pair@$$CBEV?$vector@VCPoint@@V?$allocator@VCPoint@@@std@@@std@@@std@@@2@$0A@@std@@@2@@Z ENDP ; std::_Tree<std::_Tmap_traits<unsigned char,std::vector<CPoint,std::allocator<CPoint> >,std::less<unsigned char>,std::allocator<std::pair<unsigned char const ,std::vector<CPoint,std::allocator<CPoint> > > >,0> >::_Erase
_TEXT	ENDS
PUBLIC	??0_Node@?$_Tree_nod@V?$_Tmap_traits@EV?$vector@VCPoint@@V?$allocator@VCPoint@@@std@@@std@@U?$less@E@2@V?$allocator@U?$pair@$$CBEV?$vector@VCPoint@@V?$allocator@VCPoint@@@std@@@std@@@std@@@2@$0A@@std@@@std@@QAE@PAU012@00ABU?$pair@$$CBEV?$vector@VCPoint@@V?$allocator@VCPoint@@@std@@@std@@@2@D@Z ; std::_Tree_nod<std::_Tmap_traits<unsigned char,std::vector<CPoint,std::allocator<CPoint> >,std::less<unsigned char>,std::allocator<std::pair<unsigned char const ,std::vector<CPoint,std::allocator<CPoint> > > >,0> >::_Node::_Node
; Function compile flags: /Ogty
;	COMDAT ??0_Node@?$_Tree_nod@V?$_Tmap_traits@EV?$vector@VCPoint@@V?$allocator@VCPoint@@@std@@@std@@U?$less@E@2@V?$allocator@U?$pair@$$CBEV?$vector@VCPoint@@V?$allocator@VCPoint@@@std@@@std@@@std@@@2@$0A@@std@@@std@@QAE@PAU012@00ABU?$pair@$$CBEV?$vector@VCPoint@@V?$allocator@VCPoint@@@std@@@std@@@2@D@Z
_TEXT	SEGMENT
__Larg$ = 8						; size = 4
__Parg$ = 12						; size = 4
__Rarg$ = 16						; size = 4
__Val$ = 20						; size = 4
__Carg$ = 24						; size = 1
??0_Node@?$_Tree_nod@V?$_Tmap_traits@EV?$vector@VCPoint@@V?$allocator@VCPoint@@@std@@@std@@U?$less@E@2@V?$allocator@U?$pair@$$CBEV?$vector@VCPoint@@V?$allocator@VCPoint@@@std@@@std@@@std@@@2@$0A@@std@@@std@@QAE@PAU012@00ABU?$pair@$$CBEV?$vector@VCPoint@@V?$allocator@VCPoint@@@std@@@std@@@2@D@Z PROC NEAR ; std::_Tree_nod<std::_Tmap_traits<unsigned char,std::vector<CPoint,std::allocator<CPoint> >,std::less<unsigned char>,std::allocator<std::pair<unsigned char const ,std::vector<CPoint,std::allocator<CPoint> > > >,0> >::_Node::_Node, COMDAT
; _this$ = ecx

; 40   : 			{	// construct a node with value

  00000	8b 44 24 04	 mov	 eax, DWORD PTR __Larg$[esp-4]
  00004	8b 54 24 0c	 mov	 edx, DWORD PTR __Rarg$[esp-4]
  00008	56		 push	 esi
  00009	8b f1		 mov	 esi, ecx
  0000b	8b 4c 24 0c	 mov	 ecx, DWORD PTR __Parg$[esp]
  0000f	89 06		 mov	 DWORD PTR [esi], eax
  00011	8b 44 24 14	 mov	 eax, DWORD PTR __Val$[esp]
  00015	89 4e 04	 mov	 DWORD PTR [esi+4], ecx
  00018	89 56 08	 mov	 DWORD PTR [esi+8], edx
  0001b	8a 08		 mov	 cl, BYTE PTR [eax]
  0001d	83 c0 04	 add	 eax, 4
  00020	88 4e 0c	 mov	 BYTE PTR [esi+12], cl
  00023	50		 push	 eax
  00024	8d 4e 10	 lea	 ecx, DWORD PTR [esi+16]
  00027	e8 00 00 00 00	 call	 ??0?$vector@VCPoint@@V?$allocator@VCPoint@@@std@@@std@@QAE@ABV01@@Z ; std::vector<CPoint,std::allocator<CPoint> >::vector<CPoint,std::allocator<CPoint> >
  0002c	8a 54 24 18	 mov	 dl, BYTE PTR __Carg$[esp]
  00030	88 56 20	 mov	 BYTE PTR [esi+32], dl
  00033	c6 46 21 00	 mov	 BYTE PTR [esi+33], 0

; 41   : 			}

  00037	8b c6		 mov	 eax, esi
  00039	5e		 pop	 esi
  0003a	c2 14 00	 ret	 20			; 00000014H
??0_Node@?$_Tree_nod@V?$_Tmap_traits@EV?$vector@VCPoint@@V?$allocator@VCPoint@@@std@@@std@@U?$less@E@2@V?$allocator@U?$pair@$$CBEV?$vector@VCPoint@@V?$allocator@VCPoint@@@std@@@std@@@std@@@2@$0A@@std@@@std@@QAE@PAU012@00ABU?$pair@$$CBEV?$vector@VCPoint@@V?$allocator@VCPoint@@@std@@@std@@@2@D@Z ENDP ; std::_Tree_nod<std::_Tmap_traits<unsigned char,std::vector<CPoint,std::allocator<CPoint> >,std::less<unsigned char>,std::allocator<std::pair<unsigned char const ,std::vector<CPoint,std::allocator<CPoint> > > >,0> >::_Node::_Node
_TEXT	ENDS
PUBLIC	??$make_pair@HV?$vector@VCPoint@@V?$allocator@VCPoint@@@std@@@std@@@std@@YA?AU?$pair@HV?$vector@VCPoint@@V?$allocator@VCPoint@@@std@@@std@@@0@HV?$vector@VCPoint@@V?$allocator@VCPoint@@@std@@@0@@Z ; std::make_pair<int,std::vector<CPoint,std::allocator<CPoint> > >
;	COMDAT xdata$x
; File c:\program files\microsoft visual studio .net 2003\vc7\include\xmemory
xdata$x	SEGMENT
$T240192 DD	0ffffffffH
	DD	FLAT:$L240161
$T240189 DD	019930520H
	DD	01H
	DD	FLAT:$T240192
	DD	2 DUP(00H)
	DD	2 DUP(00H)
; Function compile flags: /Ogty
; File c:\program files\microsoft visual studio .net 2003\vc7\include\utility
xdata$x	ENDS
;	COMDAT ??$make_pair@HV?$vector@VCPoint@@V?$allocator@VCPoint@@@std@@@std@@@std@@YA?AU?$pair@HV?$vector@VCPoint@@V?$allocator@VCPoint@@@std@@@std@@@0@HV?$vector@VCPoint@@V?$allocator@VCPoint@@@std@@@0@@Z
_TEXT	SEGMENT
$T240163 = -16						; size = 4
__$EHRec$ = -12						; size = 12
___$ReturnUdt$ = 8					; size = 4
__Val1$ = 12						; size = 4
__Val2$ = 16						; size = 16
??$make_pair@HV?$vector@VCPoint@@V?$allocator@VCPoint@@@std@@@std@@@std@@YA?AU?$pair@HV?$vector@VCPoint@@V?$allocator@VCPoint@@@std@@@std@@@0@HV?$vector@VCPoint@@V?$allocator@VCPoint@@@std@@@0@@Z PROC NEAR ; std::make_pair<int,std::vector<CPoint,std::allocator<CPoint> > >, COMDAT

; 107  : 	{	// return pair composed from arguments

  00000	6a ff		 push	 -1
  00002	68 00 00 00 00	 push	 __ehhandler$??$make_pair@HV?$vector@VCPoint@@V?$allocator@VCPoint@@@std@@@std@@@std@@YA?AU?$pair@HV?$vector@VCPoint@@V?$allocator@VCPoint@@@std@@@std@@@0@HV?$vector@VCPoint@@V?$allocator@VCPoint@@@std@@@0@@Z
  00007	64 a1 00 00 00
	00		 mov	 eax, DWORD PTR fs:__except_list
  0000d	50		 push	 eax
  0000e	64 89 25 00 00
	00 00		 mov	 DWORD PTR fs:__except_list, esp
  00015	51		 push	 ecx
  00016	56		 push	 esi
  00017	c7 44 24 04 00
	00 00 00	 mov	 DWORD PTR $T240163[esp+20], 0

; 108  : 	return (pair<_Ty1, _Ty2>(_Val1, _Val2));

  0001f	8b 74 24 18	 mov	 esi, DWORD PTR ___$ReturnUdt$[esp+16]
  00023	8b 44 24 1c	 mov	 eax, DWORD PTR __Val1$[esp+16]
  00027	8d 4c 24 20	 lea	 ecx, DWORD PTR __Val2$[esp+16]
  0002b	51		 push	 ecx
  0002c	8d 4e 04	 lea	 ecx, DWORD PTR [esi+4]
  0002f	c7 44 24 14 00
	00 00 00	 mov	 DWORD PTR __$EHRec$[esp+32], 0
  00037	89 06		 mov	 DWORD PTR [esi], eax
  00039	e8 00 00 00 00	 call	 ??0?$vector@VCPoint@@V?$allocator@VCPoint@@@std@@@std@@QAE@ABV01@@Z ; std::vector<CPoint,std::allocator<CPoint> >::vector<CPoint,std::allocator<CPoint> >
  0003e	8b 44 24 24	 mov	 eax, DWORD PTR __Val2$[esp+20]
  00042	85 c0		 test	 eax, eax
  00044	74 09		 je	 SHORT $L240190
  00046	50		 push	 eax
  00047	e8 00 00 00 00	 call	 ??3@YAXPAX@Z		; operator delete
  0004c	83 c4 04	 add	 esp, 4
$L240190:

; 109  : 	}

  0004f	8b 4c 24 08	 mov	 ecx, DWORD PTR __$EHRec$[esp+20]
  00053	8b c6		 mov	 eax, esi
  00055	5e		 pop	 esi
  00056	64 89 0d 00 00
	00 00		 mov	 DWORD PTR fs:__except_list, ecx
  0005d	83 c4 10	 add	 esp, 16			; 00000010H
  00060	c3		 ret	 0
_TEXT	ENDS
;	COMDAT text$x
text$x	SEGMENT
$L240161:
  00000	8d 4d 0c	 lea	 ecx, DWORD PTR __Val2$[ebp-4]
  00003	e9 00 00 00 00	 jmp	 ??1?$vector@VCPoint@@V?$allocator@VCPoint@@@std@@@std@@QAE@XZ ; std::vector<CPoint,std::allocator<CPoint> >::~vector<CPoint,std::allocator<CPoint> >
__ehhandler$??$make_pair@HV?$vector@VCPoint@@V?$allocator@VCPoint@@@std@@@std@@@std@@YA?AU?$pair@HV?$vector@VCPoint@@V?$allocator@VCPoint@@@std@@@std@@@0@HV?$vector@VCPoint@@V?$allocator@VCPoint@@@std@@@0@@Z:
  00008	b8 00 00 00 00	 mov	 eax, OFFSET FLAT:$T240189
  0000d	e9 00 00 00 00	 jmp	 ___CxxFrameHandler
text$x	ENDS
??$make_pair@HV?$vector@VCPoint@@V?$allocator@VCPoint@@@std@@@std@@@std@@YA?AU?$pair@HV?$vector@VCPoint@@V?$allocator@VCPoint@@@std@@@std@@@0@HV?$vector@VCPoint@@V?$allocator@VCPoint@@@std@@@0@@Z ENDP ; std::make_pair<int,std::vector<CPoint,std::allocator<CPoint> > >
PUBLIC	?GetContinent@CContinent@@QAEEPAVCMover@@@Z	; CContinent::GetContinent
; Function compile flags: /Ogty
; File c:\documents and settings\test\mes documents\source\virtuos_v17\build\program\_common\continent.cpp
;	COMDAT ?GetContinent@CContinent@@QAEEPAVCMover@@@Z
_TEXT	SEGMENT
$T240198 = -12						; size = 12
_pMover$ = 8						; size = 4
?GetContinent@CContinent@@QAEEPAVCMover@@@Z PROC NEAR	; CContinent::GetContinent, COMDAT
; _this$ = ecx

; 145  : 	if( !CContinent::IsValidObj( pMover ) )

  00000	8b 54 24 04	 mov	 edx, DWORD PTR _pMover$[esp-4]
  00004	83 ec 0c	 sub	 esp, 12			; 0000000cH
  00007	85 d2		 test	 edx, edx
  00009	74 60		 je	 SHORT $L230756
  0000b	f6 42 04 01	 test	 BYTE PTR [edx+4], 1
  0000f	75 5a		 jne	 SHORT $L230756
  00011	8b 82 6c 01 00
	00		 mov	 eax, DWORD PTR [edx+364]
  00017	85 c0		 test	 eax, eax

; 146  : 		return CONT_NODATA;

  00019	74 50		 je	 SHORT $L230756

; 147  : 
; 148  : 	switch( pMover->GetWorld()->m_dwWorldID )

  0001b	8b 00		 mov	 eax, DWORD PTR [eax]
  0001d	48		 dec	 eax
  0001e	3d e7 00 00 00	 cmp	 eax, 231		; 000000e7H
  00023	77 46		 ja	 SHORT $L230756
  00025	0f b6 80 00 00
	00 00		 movzx	 eax, BYTE PTR $L240239[eax]
  0002c	ff 24 85 00 00
	00 00		 jmp	 DWORD PTR $L240240[eax*4]
$L230759:

; 149  : 	{
; 150  : 		case WI_WORLD_MADRIGAL:
; 151  : 			return GetContinent( pMover->GetPos() );

  00033	81 c2 60 01 00
	00		 add	 edx, 352		; 00000160H
  00039	8b 02		 mov	 eax, DWORD PTR [edx]
  0003b	89 04 24	 mov	 DWORD PTR $T240198[esp+12], eax
  0003e	8b 42 04	 mov	 eax, DWORD PTR [edx+4]
  00041	8b 52 08	 mov	 edx, DWORD PTR [edx+8]
  00044	89 44 24 04	 mov	 DWORD PTR $T240198[esp+16], eax
  00048	8d 04 24	 lea	 eax, DWORD PTR $T240198[esp+12]
  0004b	50		 push	 eax
  0004c	89 54 24 0c	 mov	 DWORD PTR $T240198[esp+24], edx
  00050	e8 00 00 00 00	 call	 ?GetContinent@CContinent@@QAEEABUD3DXVECTOR3@@@Z ; CContinent::GetContinent

; 160  : }

  00055	83 c4 0c	 add	 esp, 12			; 0000000cH
  00058	c2 04 00	 ret	 4
$L230761:

; 152  : 		case WI_WORLD_ARENA:
; 153  : 		case WI_WORLD_ARENA_1:
; 154  : 			return CONT_DARKON12;

  0005b	b0 f1		 mov	 al, 241			; 000000f1H

; 160  : }

  0005d	83 c4 0c	 add	 esp, 12			; 0000000cH
  00060	c2 04 00	 ret	 4
$L230762:

; 155  : 		case WI_WORLD_GUILDWAR :
; 156  : 			return CONT_FLARIS;

  00063	b0 01		 mov	 al, 1

; 160  : }

  00065	83 c4 0c	 add	 esp, 12			; 0000000cH
  00068	c2 04 00	 ret	 4
$L230756:

; 157  : 	}
; 158  : 
; 159  : 	return CONT_NODATA;

  0006b	32 c0		 xor	 al, al

; 160  : }

  0006d	83 c4 0c	 add	 esp, 12			; 0000000cH
  00070	c2 04 00	 ret	 4
  00073	90		 npad	 1
$L240240:
  00074	00 00 00 00	 DD	 $L230759
  00078	00 00 00 00	 DD	 $L230762
  0007c	00 00 00 00	 DD	 $L230761
  00080	00 00 00 00	 DD	 $L230756
$L240239:
  00084	00		 DB	 0
  00085	03		 DB	 3
  00086	03		 DB	 3
  00087	03		 DB	 3
  00088	03		 DB	 3
  00089	03		 DB	 3
  0008a	03		 DB	 3
  0008b	03		 DB	 3
  0008c	03		 DB	 3
  0008d	03		 DB	 3
  0008e	03		 DB	 3
  0008f	03		 DB	 3
  00090	03		 DB	 3
  00091	03		 DB	 3
  00092	03		 DB	 3
  00093	03		 DB	 3
  00094	03		 DB	 3
  00095	03		 DB	 3
  00096	03		 DB	 3
  00097	03		 DB	 3
  00098	03		 DB	 3
  00099	03		 DB	 3
  0009a	03		 DB	 3
  0009b	03		 DB	 3
  0009c	03		 DB	 3
  0009d	03		 DB	 3
  0009e	03		 DB	 3
  0009f	03		 DB	 3
  000a0	03		 DB	 3
  000a1	03		 DB	 3
  000a2	03		 DB	 3
  000a3	03		 DB	 3
  000a4	03		 DB	 3
  000a5	03		 DB	 3
  000a6	03		 DB	 3
  000a7	03		 DB	 3
  000a8	03		 DB	 3
  000a9	03		 DB	 3
  000aa	03		 DB	 3
  000ab	03		 DB	 3
  000ac	03		 DB	 3
  000ad	03		 DB	 3
  000ae	03		 DB	 3
  000af	03		 DB	 3
  000b0	03		 DB	 3
  000b1	03		 DB	 3
  000b2	03		 DB	 3
  000b3	03		 DB	 3
  000b4	03		 DB	 3
  000b5	03		 DB	 3
  000b6	03		 DB	 3
  000b7	03		 DB	 3
  000b8	03		 DB	 3
  000b9	03		 DB	 3
  000ba	03		 DB	 3
  000bb	03		 DB	 3
  000bc	03		 DB	 3
  000bd	03		 DB	 3
  000be	03		 DB	 3
  000bf	03		 DB	 3
  000c0	03		 DB	 3
  000c1	03		 DB	 3
  000c2	03		 DB	 3
  000c3	03		 DB	 3
  000c4	03		 DB	 3
  000c5	03		 DB	 3
  000c6	03		 DB	 3
  000c7	03		 DB	 3
  000c8	03		 DB	 3
  000c9	03		 DB	 3
  000ca	03		 DB	 3
  000cb	03		 DB	 3
  000cc	03		 DB	 3
  000cd	03		 DB	 3
  000ce	03		 DB	 3
  000cf	03		 DB	 3
  000d0	03		 DB	 3
  000d1	03		 DB	 3
  000d2	03		 DB	 3
  000d3	03		 DB	 3
  000d4	03		 DB	 3
  000d5	03		 DB	 3
  000d6	03		 DB	 3
  000d7	03		 DB	 3
  000d8	03		 DB	 3
  000d9	03		 DB	 3
  000da	03		 DB	 3
  000db	03		 DB	 3
  000dc	03		 DB	 3
  000dd	03		 DB	 3
  000de	03		 DB	 3
  000df	03		 DB	 3
  000e0	03		 DB	 3
  000e1	03		 DB	 3
  000e2	03		 DB	 3
  000e3	03		 DB	 3
  000e4	03		 DB	 3
  000e5	03		 DB	 3
  000e6	03		 DB	 3
  000e7	03		 DB	 3
  000e8	03		 DB	 3
  000e9	03		 DB	 3
  000ea	03		 DB	 3
  000eb	03		 DB	 3
  000ec	03		 DB	 3
  000ed	03		 DB	 3
  000ee	03		 DB	 3
  000ef	03		 DB	 3
  000f0	03		 DB	 3
  000f1	03		 DB	 3
  000f2	03		 DB	 3
  000f3	03		 DB	 3
  000f4	03		 DB	 3
  000f5	03		 DB	 3
  000f6	03		 DB	 3
  000f7	03		 DB	 3
  000f8	03		 DB	 3
  000f9	03		 DB	 3
  000fa	03		 DB	 3
  000fb	03		 DB	 3
  000fc	03		 DB	 3
  000fd	03		 DB	 3
  000fe	03		 DB	 3
  000ff	03		 DB	 3
  00100	03		 DB	 3
  00101	03		 DB	 3
  00102	03		 DB	 3
  00103	03		 DB	 3
  00104	03		 DB	 3
  00105	03		 DB	 3
  00106	03		 DB	 3
  00107	03		 DB	 3
  00108	03		 DB	 3
  00109	03		 DB	 3
  0010a	03		 DB	 3
  0010b	03		 DB	 3
  0010c	03		 DB	 3
  0010d	03		 DB	 3
  0010e	03		 DB	 3
  0010f	03		 DB	 3
  00110	03		 DB	 3
  00111	03		 DB	 3
  00112	03		 DB	 3
  00113	03		 DB	 3
  00114	03		 DB	 3
  00115	03		 DB	 3
  00116	03		 DB	 3
  00117	03		 DB	 3
  00118	03		 DB	 3
  00119	03		 DB	 3
  0011a	03		 DB	 3
  0011b	03		 DB	 3
  0011c	03		 DB	 3
  0011d	03		 DB	 3
  0011e	03		 DB	 3
  0011f	03		 DB	 3
  00120	03		 DB	 3
  00121	03		 DB	 3
  00122	03		 DB	 3
  00123	03		 DB	 3
  00124	03		 DB	 3
  00125	03		 DB	 3
  00126	03		 DB	 3
  00127	03		 DB	 3
  00128	03		 DB	 3
  00129	03		 DB	 3
  0012a	03		 DB	 3
  0012b	03		 DB	 3
  0012c	03		 DB	 3
  0012d	03		 DB	 3
  0012e	03		 DB	 3
  0012f	03		 DB	 3
  00130	03		 DB	 3
  00131	03		 DB	 3
  00132	03		 DB	 3
  00133	03		 DB	 3
  00134	03		 DB	 3
  00135	03		 DB	 3
  00136	03		 DB	 3
  00137	03		 DB	 3
  00138	03		 DB	 3
  00139	03		 DB	 3
  0013a	03		 DB	 3
  0013b	03		 DB	 3
  0013c	03		 DB	 3
  0013d	03		 DB	 3
  0013e	03		 DB	 3
  0013f	03		 DB	 3
  00140	03		 DB	 3
  00141	03		 DB	 3
  00142	03		 DB	 3
  00143	03		 DB	 3
  00144	03		 DB	 3
  00145	03		 DB	 3
  00146	03		 DB	 3
  00147	03		 DB	 3
  00148	03		 DB	 3
  00149	03		 DB	 3
  0014a	03		 DB	 3
  0014b	03		 DB	 3
  0014c	03		 DB	 3
  0014d	01		 DB	 1
  0014e	03		 DB	 3
  0014f	03		 DB	 3
  00150	03		 DB	 3
  00151	03		 DB	 3
  00152	03		 DB	 3
  00153	02		 DB	 2
  00154	03		 DB	 3
  00155	03		 DB	 3
  00156	03		 DB	 3
  00157	03		 DB	 3
  00158	03		 DB	 3
  00159	03		 DB	 3
  0015a	03		 DB	 3
  0015b	03		 DB	 3
  0015c	03		 DB	 3
  0015d	03		 DB	 3
  0015e	03		 DB	 3
  0015f	03		 DB	 3
  00160	03		 DB	 3
  00161	03		 DB	 3
  00162	03		 DB	 3
  00163	03		 DB	 3
  00164	03		 DB	 3
  00165	03		 DB	 3
  00166	03		 DB	 3
  00167	03		 DB	 3
  00168	03		 DB	 3
  00169	03		 DB	 3
  0016a	03		 DB	 3
  0016b	02		 DB	 2
?GetContinent@CContinent@@QAEEPAVCMover@@@Z ENDP	; CContinent::GetContinent
_TEXT	ENDS
PUBLIC	?GetArea@CContinent@@QAEEPAVCMover@@@Z		; CContinent::GetArea
; Function compile flags: /Ogty
;	COMDAT ?GetArea@CContinent@@QAEEPAVCMover@@@Z
_TEXT	SEGMENT
_pMover$ = 8						; size = 4
?GetArea@CContinent@@QAEEPAVCMover@@@Z PROC NEAR	; CContinent::GetArea, COMDAT
; _this$ = ecx

; 164  : 	if( !CContinent::IsValidObj( pMover ) )

  00000	8b 44 24 04	 mov	 eax, DWORD PTR _pMover$[esp-4]
  00004	85 c0		 test	 eax, eax
  00006	74 1a		 je	 SHORT $L240265
  00008	f6 40 04 01	 test	 BYTE PTR [eax+4], 1
  0000c	75 14		 jne	 SHORT $L240265
  0000e	8b 90 6c 01 00
	00		 mov	 edx, DWORD PTR [eax+364]
  00014	85 d2		 test	 edx, edx

; 165  : 		return CONT_NODATA;

  00016	74 0a		 je	 SHORT $L240265

; 166  : 
; 167  : 
; 168  : 	return GetArea( GetContinent(pMover) );	

  00018	50		 push	 eax
  00019	e8 00 00 00 00	 call	 ?GetContinent@CContinent@@QAEEPAVCMover@@@Z ; CContinent::GetContinent
  0001e	84 c0		 test	 al, al
  00020	75 05		 jne	 SHORT $L240277

; 164  : 	if( !CContinent::IsValidObj( pMover ) )

$L240265:

; 166  : 
; 167  : 
; 168  : 	return GetArea( GetContinent(pMover) );	

  00022	32 c0		 xor	 al, al

; 169  : }

  00024	c2 04 00	 ret	 4

; 166  : 
; 167  : 
; 168  : 	return GetArea( GetContinent(pMover) );	

$L240277:
  00027	3c 0f		 cmp	 al, 15			; 0000000fH
  00029	77 05		 ja	 SHORT $L240279
  0002b	b0 0f		 mov	 al, 15			; 0000000fH

; 169  : }

  0002d	c2 04 00	 ret	 4

; 166  : 
; 167  : 
; 168  : 	return GetArea( GetContinent(pMover) );	

$L240279:
  00030	3c f0		 cmp	 al, 240			; 000000f0H
  00032	0f 92 c0	 setb	 al
  00035	fe c8		 dec	 al
  00037	25 f0 00 00 00	 and	 eax, 240		; 000000f0H

; 169  : }

  0003c	c2 04 00	 ret	 4
?GetArea@CContinent@@QAEEPAVCMover@@@Z ENDP		; CContinent::GetArea
_TEXT	ENDS
PUBLIC	?clear@?$_Tree@V?$_Tmap_traits@EV?$vector@VCPoint@@V?$allocator@VCPoint@@@std@@@std@@U?$less@E@2@V?$allocator@U?$pair@$$CBEV?$vector@VCPoint@@V?$allocator@VCPoint@@@std@@@std@@@std@@@2@$0A@@std@@@std@@QAEXXZ ; std::_Tree<std::_Tmap_traits<unsigned char,std::vector<CPoint,std::allocator<CPoint> >,std::less<unsigned char>,std::allocator<std::pair<unsigned char const ,std::vector<CPoint,std::allocator<CPoint> > > >,0> >::clear
; Function compile flags: /Ogty
; File c:\program files\microsoft visual studio .net 2003\vc7\include\xtree
;	COMDAT ?clear@?$_Tree@V?$_Tmap_traits@EV?$vector@VCPoint@@V?$allocator@VCPoint@@@std@@@std@@U?$less@E@2@V?$allocator@U?$pair@$$CBEV?$vector@VCPoint@@V?$allocator@VCPoint@@@std@@@std@@@std@@@2@$0A@@std@@@std@@QAEXXZ
_TEXT	SEGMENT
?clear@?$_Tree@V?$_Tmap_traits@EV?$vector@VCPoint@@V?$allocator@VCPoint@@@std@@@std@@U?$less@E@2@V?$allocator@U?$pair@$$CBEV?$vector@VCPoint@@V?$allocator@VCPoint@@@std@@@std@@@std@@@2@$0A@@std@@@std@@QAEXXZ PROC NEAR ; std::_Tree<std::_Tmap_traits<unsigned char,std::vector<CPoint,std::allocator<CPoint> >,std::less<unsigned char>,std::allocator<std::pair<unsigned char const ,std::vector<CPoint,std::allocator<CPoint> > > >,0> >::clear, COMDAT
; _this$ = ecx

; 780  : 		{	// erase all

  00000	56		 push	 esi
  00001	8b f1		 mov	 esi, ecx

; 781  : 		_Erase(_Root());

  00003	8b 46 04	 mov	 eax, DWORD PTR [esi+4]
  00006	8b 48 04	 mov	 ecx, DWORD PTR [eax+4]
  00009	51		 push	 ecx
  0000a	8b ce		 mov	 ecx, esi
  0000c	e8 00 00 00 00	 call	 ?_Erase@?$_Tree@V?$_Tmap_traits@EV?$vector@VCPoint@@V?$allocator@VCPoint@@@std@@@std@@U?$less@E@2@V?$allocator@U?$pair@$$CBEV?$vector@VCPoint@@V?$allocator@VCPoint@@@std@@@std@@@std@@@2@$0A@@std@@@std@@IAEXPAU_Node@?$_Tree_nod@V?$_Tmap_traits@EV?$vector@VCPoint@@V?$allocator@VCPoint@@@std@@@std@@U?$less@E@2@V?$allocator@U?$pair@$$CBEV?$vector@VCPoint@@V?$allocator@VCPoint@@@std@@@std@@@std@@@2@$0A@@std@@@2@@Z ; std::_Tree<std::_Tmap_traits<unsigned char,std::vector<CPoint,std::allocator<CPoint> >,std::less<unsigned char>,std::allocator<std::pair<unsigned char const ,std::vector<CPoint,std::allocator<CPoint> > > >,0> >::_Erase

; 782  : 		_Root() = _Myhead, _Mysize = 0;

  00011	8b 46 04	 mov	 eax, DWORD PTR [esi+4]
  00014	89 40 04	 mov	 DWORD PTR [eax+4], eax

; 783  : 		_Lmost() = _Myhead, _Rmost() = _Myhead;

  00017	8b 46 04	 mov	 eax, DWORD PTR [esi+4]
  0001a	c7 46 08 00 00
	00 00		 mov	 DWORD PTR [esi+8], 0
  00021	89 00		 mov	 DWORD PTR [eax], eax
  00023	8b 76 04	 mov	 esi, DWORD PTR [esi+4]
  00026	89 76 08	 mov	 DWORD PTR [esi+8], esi
  00029	5e		 pop	 esi

; 784  : 		}

  0002a	c3		 ret	 0
?clear@?$_Tree@V?$_Tmap_traits@EV?$vector@VCPoint@@V?$allocator@VCPoint@@@std@@@std@@U?$less@E@2@V?$allocator@U?$pair@$$CBEV?$vector@VCPoint@@V?$allocator@VCPoint@@@std@@@std@@@std@@@2@$0A@@std@@@std@@QAEXXZ ENDP ; std::_Tree<std::_Tmap_traits<unsigned char,std::vector<CPoint,std::allocator<CPoint> >,std::less<unsigned char>,std::allocator<std::pair<unsigned char const ,std::vector<CPoint,std::allocator<CPoint> > > >,0> >::clear
_TEXT	ENDS
PUBLIC	?erase@?$_Tree@V?$_Tmap_traits@EV?$vector@VCPoint@@V?$allocator@VCPoint@@@std@@@std@@U?$less@E@2@V?$allocator@U?$pair@$$CBEV?$vector@VCPoint@@V?$allocator@VCPoint@@@std@@@std@@@std@@@2@$0A@@std@@@std@@QAE?AViterator@12@V312@0@Z ; std::_Tree<std::_Tmap_traits<unsigned char,std::vector<CPoint,std::allocator<CPoint> >,std::less<unsigned char>,std::allocator<std::pair<unsigned char const ,std::vector<CPoint,std::allocator<CPoint> > > >,0> >::erase
; Function compile flags: /Ogty
;	COMDAT ?erase@?$_Tree@V?$_Tmap_traits@EV?$vector@VCPoint@@V?$allocator@VCPoint@@@std@@@std@@U?$less@E@2@V?$allocator@U?$pair@$$CBEV?$vector@VCPoint@@V?$allocator@VCPoint@@@std@@@std@@@std@@@2@$0A@@std@@@std@@QAE?AViterator@12@V312@0@Z
_TEXT	SEGMENT
___$ReturnUdt$ = 8					; size = 4
$T240329 = 12						; size = 4
__First$ = 12						; size = 4
__Last$ = 16						; size = 4
?erase@?$_Tree@V?$_Tmap_traits@EV?$vector@VCPoint@@V?$allocator@VCPoint@@@std@@@std@@U?$less@E@2@V?$allocator@U?$pair@$$CBEV?$vector@VCPoint@@V?$allocator@VCPoint@@@std@@@std@@@std@@@2@$0A@@std@@@std@@QAE?AViterator@12@V312@0@Z PROC NEAR ; std::_Tree<std::_Tmap_traits<unsigned char,std::vector<CPoint,std::allocator<CPoint> >,std::less<unsigned char>,std::allocator<std::pair<unsigned char const ,std::vector<CPoint,std::allocator<CPoint> > > >,0> >::erase, COMDAT
; _this$ = ecx

; 750  : 		{	// erase [_First, _Last)

  00000	53		 push	 ebx

; 751  : 		if (_First == begin() && _Last == end())

  00001	8b 5c 24 10	 mov	 ebx, DWORD PTR __Last$[esp]
  00005	56		 push	 esi
  00006	8b 74 24 10	 mov	 esi, DWORD PTR __First$[esp+4]
  0000a	57		 push	 edi
  0000b	8b f9		 mov	 edi, ecx
  0000d	8b 47 04	 mov	 eax, DWORD PTR [edi+4]
  00010	3b 30		 cmp	 esi, DWORD PTR [eax]
  00012	75 38		 jne	 SHORT $L240661
  00014	3b d8		 cmp	 ebx, eax
  00016	75 34		 jne	 SHORT $L240661

; 752  : 			{	// erase all
; 753  : 			clear();

  00018	8b 40 04	 mov	 eax, DWORD PTR [eax+4]
  0001b	50		 push	 eax
  0001c	8b cf		 mov	 ecx, edi
  0001e	e8 00 00 00 00	 call	 ?_Erase@?$_Tree@V?$_Tmap_traits@EV?$vector@VCPoint@@V?$allocator@VCPoint@@@std@@@std@@U?$less@E@2@V?$allocator@U?$pair@$$CBEV?$vector@VCPoint@@V?$allocator@VCPoint@@@std@@@std@@@std@@@2@$0A@@std@@@std@@IAEXPAU_Node@?$_Tree_nod@V?$_Tmap_traits@EV?$vector@VCPoint@@V?$allocator@VCPoint@@@std@@@std@@U?$less@E@2@V?$allocator@U?$pair@$$CBEV?$vector@VCPoint@@V?$allocator@VCPoint@@@std@@@std@@@std@@@2@$0A@@std@@@2@@Z ; std::_Tree<std::_Tmap_traits<unsigned char,std::vector<CPoint,std::allocator<CPoint> >,std::less<unsigned char>,std::allocator<std::pair<unsigned char const ,std::vector<CPoint,std::allocator<CPoint> > > >,0> >::_Erase
  00023	8b 47 04	 mov	 eax, DWORD PTR [edi+4]
  00026	89 40 04	 mov	 DWORD PTR [eax+4], eax
  00029	8b 47 04	 mov	 eax, DWORD PTR [edi+4]
  0002c	c7 47 08 00 00
	00 00		 mov	 DWORD PTR [edi+8], 0
  00033	89 00		 mov	 DWORD PTR [eax], eax
  00035	8b 47 04	 mov	 eax, DWORD PTR [edi+4]
  00038	89 40 08	 mov	 DWORD PTR [eax+8], eax

; 754  : 			return (begin());

  0003b	8b 4f 04	 mov	 ecx, DWORD PTR [edi+4]
  0003e	8b 11		 mov	 edx, DWORD PTR [ecx]
  00040	8b 44 24 10	 mov	 eax, DWORD PTR ___$ReturnUdt$[esp+8]
  00044	5f		 pop	 edi
  00045	5e		 pop	 esi
  00046	89 10		 mov	 DWORD PTR [eax], edx
  00048	5b		 pop	 ebx

; 761  : 			}
; 762  : 		}

  00049	c2 0c 00	 ret	 12			; 0000000cH
$L240661:

; 755  : 			}
; 756  : 		else
; 757  : 			{	// partial erase, one at a time
; 758  : 			while (_First != _Last)

  0004c	3b f3		 cmp	 esi, ebx
  0004e	74 5b		 je	 SHORT $L231550
$L231549:

; 759  : 				erase(_First++);

  00050	8a 46 21	 mov	 al, BYTE PTR [esi+33]
  00053	84 c0		 test	 al, al
  00055	8b ce		 mov	 ecx, esi
  00057	75 41		 jne	 SHORT $L240632
  00059	8b 46 08	 mov	 eax, DWORD PTR [esi+8]
  0005c	8a 50 21	 mov	 dl, BYTE PTR [eax+33]
  0005f	84 d2		 test	 dl, dl
  00061	75 1a		 jne	 SHORT $L240663
  00063	8b f0		 mov	 esi, eax
  00065	8b 06		 mov	 eax, DWORD PTR [esi]
  00067	8a 50 21	 mov	 dl, BYTE PTR [eax+33]
  0006a	84 d2		 test	 dl, dl
  0006c	75 2c		 jne	 SHORT $L240632
  0006e	8b ff		 npad	 2
$L240646:
  00070	8b f0		 mov	 esi, eax
  00072	8b 06		 mov	 eax, DWORD PTR [esi]
  00074	8a 50 21	 mov	 dl, BYTE PTR [eax+33]
  00077	84 d2		 test	 dl, dl
  00079	74 f5		 je	 SHORT $L240646
  0007b	eb 1d		 jmp	 SHORT $L240632
$L240663:
  0007d	8b 46 04	 mov	 eax, DWORD PTR [esi+4]
  00080	8a 50 21	 mov	 dl, BYTE PTR [eax+33]
  00083	84 d2		 test	 dl, dl
  00085	75 11		 jne	 SHORT $L240635
$L240634:
  00087	3b 70 08	 cmp	 esi, DWORD PTR [eax+8]
  0008a	75 0c		 jne	 SHORT $L240635
  0008c	8b f0		 mov	 esi, eax
  0008e	8b 40 04	 mov	 eax, DWORD PTR [eax+4]
  00091	8a 50 21	 mov	 dl, BYTE PTR [eax+33]
  00094	84 d2		 test	 dl, dl
  00096	74 ef		 je	 SHORT $L240634
$L240635:
  00098	8b f0		 mov	 esi, eax
$L240632:
  0009a	51		 push	 ecx
  0009b	8d 44 24 18	 lea	 eax, DWORD PTR $T240329[esp+12]
  0009f	50		 push	 eax
  000a0	8b cf		 mov	 ecx, edi
  000a2	e8 00 00 00 00	 call	 ?erase@?$_Tree@V?$_Tmap_traits@EV?$vector@VCPoint@@V?$allocator@VCPoint@@@std@@@std@@U?$less@E@2@V?$allocator@U?$pair@$$CBEV?$vector@VCPoint@@V?$allocator@VCPoint@@@std@@@std@@@std@@@2@$0A@@std@@@std@@QAE?AViterator@12@V312@@Z ; std::_Tree<std::_Tmap_traits<unsigned char,std::vector<CPoint,std::allocator<CPoint> >,std::less<unsigned char>,std::allocator<std::pair<unsigned char const ,std::vector<CPoint,std::allocator<CPoint> > > >,0> >::erase
  000a7	3b f3		 cmp	 esi, ebx
  000a9	75 a5		 jne	 SHORT $L231549
$L231550:

; 760  : 			return (_First);

  000ab	8b 44 24 10	 mov	 eax, DWORD PTR ___$ReturnUdt$[esp+8]
  000af	5f		 pop	 edi
  000b0	89 30		 mov	 DWORD PTR [eax], esi
  000b2	5e		 pop	 esi
  000b3	5b		 pop	 ebx

; 761  : 			}
; 762  : 		}

  000b4	c2 0c 00	 ret	 12			; 0000000cH
?erase@?$_Tree@V?$_Tmap_traits@EV?$vector@VCPoint@@V?$allocator@VCPoint@@@std@@@std@@U?$less@E@2@V?$allocator@U?$pair@$$CBEV?$vector@VCPoint@@V?$allocator@VCPoint@@@std@@@std@@@std@@@2@$0A@@std@@@std@@QAE?AViterator@12@V312@0@Z ENDP ; std::_Tree<std::_Tmap_traits<unsigned char,std::vector<CPoint,std::allocator<CPoint> >,std::less<unsigned char>,std::allocator<std::pair<unsigned char const ,std::vector<CPoint,std::allocator<CPoint> > > >,0> >::erase
_TEXT	ENDS
PUBLIC	?_Buynode@?$_Tree@V?$_Tmap_traits@EV?$vector@VCPoint@@V?$allocator@VCPoint@@@std@@@std@@U?$less@E@2@V?$allocator@U?$pair@$$CBEV?$vector@VCPoint@@V?$allocator@VCPoint@@@std@@@std@@@std@@@2@$0A@@std@@@std@@IAEPAU_Node@?$_Tree_nod@V?$_Tmap_traits@EV?$vector@VCPoint@@V?$allocator@VCPoint@@@std@@@std@@U?$less@E@2@V?$allocator@U?$pair@$$CBEV?$vector@VCPoint@@V?$allocator@VCPoint@@@std@@@std@@@std@@@2@$0A@@std@@@2@PAU342@00ABU?$pair@$$CBEV?$vector@VCPoint@@V?$allocator@VCPoint@@@std@@@std@@@2@D@Z ; std::_Tree<std::_Tmap_traits<unsigned char,std::vector<CPoint,std::allocator<CPoint> >,std::less<unsigned char>,std::allocator<std::pair<unsigned char const ,std::vector<CPoint,std::allocator<CPoint> > > >,0> >::_Buynode
;	COMDAT xdata$x
; File c:\program files\microsoft visual studio .net 2003\vc7\include\xmemory
xdata$x	SEGMENT
$T240706 DD	0ffffffffH
	DD	00H
	DD	00H
	DD	FLAT:$L240676
	DD	0ffffffffH
	DD	00H
$T240708 DD	00H
	DD	00H
	DD	00H
	DD	FLAT:$L240675
$T240707 DD	00H
	DD	01H
	DD	02H
	DD	01H
	DD	FLAT:$T240708
$T240703 DD	019930520H
	DD	03H
	DD	FLAT:$T240706
	DD	01H
	DD	FLAT:$T240707
	DD	2 DUP(00H)
; Function compile flags: /Ogty
; File c:\program files\microsoft visual studio .net 2003\vc7\include\xtree
xdata$x	ENDS
;	COMDAT ?_Buynode@?$_Tree@V?$_Tmap_traits@EV?$vector@VCPoint@@V?$allocator@VCPoint@@@std@@@std@@U?$less@E@2@V?$allocator@U?$pair@$$CBEV?$vector@VCPoint@@V?$allocator@VCPoint@@@std@@@std@@@std@@@2@$0A@@std@@@std@@IAEPAU_Node@?$_Tree_nod@V?$_Tmap_traits@EV?$vector@VCPoint@@V?$allocator@VCPoint@@@std@@@std@@U?$less@E@2@V?$allocator@U?$pair@$$CBEV?$vector@VCPoint@@V?$allocator@VCPoint@@@std@@@std@@@std@@@2@$0A@@std@@@2@PAU342@00ABU?$pair@$$CBEV?$vector@VCPoint@@V?$allocator@VCPoint@@@std@@@std@@@2@D@Z
_TEXT	SEGMENT
$T240671 = -24						; size = 4
__Wherenode$ = -20					; size = 4
__$EHRec$ = -16						; size = 16
__Larg$ = 8						; size = 4
__Parg$ = 12						; size = 4
__Rarg$ = 16						; size = 4
__Val$ = 20						; size = 4
__Carg$ = 24						; size = 1
?_Buynode@?$_Tree@V?$_Tmap_traits@EV?$vector@VCPoint@@V?$allocator@VCPoint@@@std@@@std@@U?$less@E@2@V?$allocator@U?$pair@$$CBEV?$vector@VCPoint@@V?$allocator@VCPoint@@@std@@@std@@@std@@@2@$0A@@std@@@std@@IAEPAU_Node@?$_Tree_nod@V?$_Tmap_traits@EV?$vector@VCPoint@@V?$allocator@VCPoint@@@std@@@std@@U?$less@E@2@V?$allocator@U?$pair@$$CBEV?$vector@VCPoint@@V?$allocator@VCPoint@@@std@@@std@@@std@@@2@$0A@@std@@@2@PAU342@00ABU?$pair@$$CBEV?$vector@VCPoint@@V?$allocator@VCPoint@@@std@@@std@@@2@D@Z PROC NEAR ; std::_Tree<std::_Tmap_traits<unsigned char,std::vector<CPoint,std::allocator<CPoint> >,std::less<unsigned char>,std::allocator<std::pair<unsigned char const ,std::vector<CPoint,std::allocator<CPoint> > > >,0> >::_Buynode, COMDAT
; _this$ = ecx

; 1130 : 		{	// allocate a node with pointers, value, and color

  00000	55		 push	 ebp
  00001	8b ec		 mov	 ebp, esp
  00003	6a ff		 push	 -1
  00005	68 00 00 00 00	 push	 __ehhandler$?_Buynode@?$_Tree@V?$_Tmap_traits@EV?$vector@VCPoint@@V?$allocator@VCPoint@@@std@@@std@@U?$less@E@2@V?$allocator@U?$pair@$$CBEV?$vector@VCPoint@@V?$allocator@VCPoint@@@std@@@std@@@std@@@2@$0A@@std@@@std@@IAEPAU_Node@?$_Tree_nod@V?$_Tmap_traits@EV?$vector@VCPoint@@V?$allocator@VCPoint@@@std@@@std@@U?$less@E@2@V?$allocator@U?$pair@$$CBEV?$vector@VCPoint@@V?$allocator@VCPoint@@@std@@@std@@@std@@@2@$0A@@std@@@2@PAU342@00ABU?$pair@$$CBEV?$vector@VCPoint@@V?$allocator@VCPoint@@@std@@@std@@@2@D@Z
  0000a	64 a1 00 00 00
	00		 mov	 eax, DWORD PTR fs:__except_list
  00010	50		 push	 eax
  00011	64 89 25 00 00
	00 00		 mov	 DWORD PTR fs:__except_list, esp
  00018	83 ec 0c	 sub	 esp, 12			; 0000000cH
  0001b	53		 push	 ebx
  0001c	56		 push	 esi
  0001d	57		 push	 edi
  0001e	89 65 f0	 mov	 DWORD PTR __$EHRec$[ebp], esp

; 1131 : 		_Nodeptr _Wherenode = this->_Alnod.allocate(1);

  00021	6a 24		 push	 36			; 00000024H
  00023	e8 00 00 00 00	 call	 ??2@YAPAXI@Z		; operator new
  00028	8b f0		 mov	 esi, eax
  0002a	83 c4 04	 add	 esp, 4
  0002d	89 75 ec	 mov	 DWORD PTR __Wherenode$[ebp], esi

; 1132 : 		_TRY_BEGIN

  00030	c7 45 fc 00 00
	00 00		 mov	 DWORD PTR __$EHRec$[ebp+12], 0

; 1133 : 		new (_Wherenode) _Node(_Larg, _Parg, _Rarg, _Val, _Carg);

  00037	89 75 e8	 mov	 DWORD PTR $T240671[ebp], esi
  0003a	85 f6		 test	 esi, esi
  0003c	c6 45 fc 01	 mov	 BYTE PTR __$EHRec$[ebp+12], 1
  00040	74 2f		 je	 SHORT $L240672
  00042	8b 45 08	 mov	 eax, DWORD PTR __Larg$[ebp]
  00045	8b 4d 0c	 mov	 ecx, DWORD PTR __Parg$[ebp]
  00048	8b 55 10	 mov	 edx, DWORD PTR __Rarg$[ebp]
  0004b	89 06		 mov	 DWORD PTR [esi], eax
  0004d	8b 45 14	 mov	 eax, DWORD PTR __Val$[ebp]
  00050	89 4e 04	 mov	 DWORD PTR [esi+4], ecx
  00053	89 56 08	 mov	 DWORD PTR [esi+8], edx
  00056	8a 08		 mov	 cl, BYTE PTR [eax]
  00058	83 c0 04	 add	 eax, 4
  0005b	88 4e 0c	 mov	 BYTE PTR [esi+12], cl
  0005e	50		 push	 eax
  0005f	8d 4e 10	 lea	 ecx, DWORD PTR [esi+16]
  00062	e8 00 00 00 00	 call	 ??0?$vector@VCPoint@@V?$allocator@VCPoint@@@std@@@std@@QAE@ABV01@@Z ; std::vector<CPoint,std::allocator<CPoint> >::vector<CPoint,std::allocator<CPoint> >
  00067	8a 55 18	 mov	 dl, BYTE PTR __Carg$[ebp]
  0006a	88 56 20	 mov	 BYTE PTR [esi+32], dl
  0006d	c6 46 21 00	 mov	 BYTE PTR [esi+33], 0
$L240672:

; 1137 : 		_CATCH_END
; 1138 : 		return (_Wherenode);
; 1139 : 		}

  00071	8b 4d f4	 mov	 ecx, DWORD PTR __$EHRec$[ebp+4]
  00074	5f		 pop	 edi
  00075	8b c6		 mov	 eax, esi
  00077	5e		 pop	 esi
  00078	64 89 0d 00 00
	00 00		 mov	 DWORD PTR fs:__except_list, ecx
  0007f	5b		 pop	 ebx
  00080	8b e5		 mov	 esp, ebp
  00082	5d		 pop	 ebp
  00083	c2 14 00	 ret	 20			; 00000014H
$L240675:

; 1134 : 		_CATCH_ALL
; 1135 : 		this->_Alnod.deallocate(_Wherenode, 1);

  00086	8b 45 ec	 mov	 eax, DWORD PTR __Wherenode$[ebp]
  00089	50		 push	 eax
  0008a	e8 00 00 00 00	 call	 ??3@YAXPAX@Z		; operator delete
  0008f	83 c4 04	 add	 esp, 4

; 1136 : 		_RERAISE;

  00092	6a 00		 push	 0
  00094	6a 00		 push	 0
  00096	e8 00 00 00 00	 call	 __CxxThrowException@8
$L240709:
$L240705:
  0009b	cc		 int	 3
_TEXT	ENDS
;	COMDAT text$x
text$x	SEGMENT
$L240676:
  00000	8b 45 ec	 mov	 eax, DWORD PTR __Wherenode$[ebp]
  00003	50		 push	 eax
  00004	8b 4d e8	 mov	 ecx, DWORD PTR $T240671[ebp]
  00007	51		 push	 ecx
  00008	e8 00 00 00 00	 call	 ??3@YAXPAX0@Z		; operator delete
  0000d	83 c4 08	 add	 esp, 8
  00010	c3		 ret	 0
__ehhandler$?_Buynode@?$_Tree@V?$_Tmap_traits@EV?$vector@VCPoint@@V?$allocator@VCPoint@@@std@@@std@@U?$less@E@2@V?$allocator@U?$pair@$$CBEV?$vector@VCPoint@@V?$allocator@VCPoint@@@std@@@std@@@std@@@2@$0A@@std@@@std@@IAEPAU_Node@?$_Tree_nod@V?$_Tmap_traits@EV?$vector@VCPoint@@V?$allocator@VCPoint@@@std@@@std@@U?$less@E@2@V?$allocator@U?$pair@$$CBEV?$vector@VCPoint@@V?$allocator@VCPoint@@@std@@@std@@@std@@@2@$0A@@std@@@2@PAU342@00ABU?$pair@$$CBEV?$vector@VCPoint@@V?$allocator@VCPoint@@@std@@@std@@@2@D@Z:
  00011	b8 00 00 00 00	 mov	 eax, OFFSET FLAT:$T240703
  00016	e9 00 00 00 00	 jmp	 ___CxxFrameHandler
text$x	ENDS
?_Buynode@?$_Tree@V?$_Tmap_traits@EV?$vector@VCPoint@@V?$allocator@VCPoint@@@std@@@std@@U?$less@E@2@V?$allocator@U?$pair@$$CBEV?$vector@VCPoint@@V?$allocator@VCPoint@@@std@@@std@@@std@@@2@$0A@@std@@@std@@IAEPAU_Node@?$_Tree_nod@V?$_Tmap_traits@EV?$vector@VCPoint@@V?$allocator@VCPoint@@@std@@@std@@U?$less@E@2@V?$allocator@U?$pair@$$CBEV?$vector@VCPoint@@V?$allocator@VCPoint@@@std@@@std@@@std@@@2@$0A@@std@@@2@PAU342@00ABU?$pair@$$CBEV?$vector@VCPoint@@V?$allocator@VCPoint@@@std@@@std@@@2@D@Z ENDP ; std::_Tree<std::_Tmap_traits<unsigned char,std::vector<CPoint,std::allocator<CPoint> >,std::less<unsigned char>,std::allocator<std::pair<unsigned char const ,std::vector<CPoint,std::allocator<CPoint> > > >,0> >::_Buynode
PUBLIC	??_C@_0BE@JONHPENG@map?1set?$DMT?$DO?5too?5long?$AA@ ; `string'
PUBLIC	?_Insert@?$_Tree@V?$_Tmap_traits@EV?$vector@VCPoint@@V?$allocator@VCPoint@@@std@@@std@@U?$less@E@2@V?$allocator@U?$pair@$$CBEV?$vector@VCPoint@@V?$allocator@VCPoint@@@std@@@std@@@std@@@2@$0A@@std@@@std@@IAE?AViterator@12@_NPAU_Node@?$_Tree_nod@V?$_Tmap_traits@EV?$vector@VCPoint@@V?$allocator@VCPoint@@@std@@@std@@U?$less@E@2@V?$allocator@U?$pair@$$CBEV?$vector@VCPoint@@V?$allocator@VCPoint@@@std@@@std@@@std@@@2@$0A@@std@@@2@ABU?$pair@$$CBEV?$vector@VCPoint@@V?$allocator@VCPoint@@@std@@@std@@@2@@Z ; std::_Tree<std::_Tmap_traits<unsigned char,std::vector<CPoint,std::allocator<CPoint> >,std::less<unsigned char>,std::allocator<std::pair<unsigned char const ,std::vector<CPoint,std::allocator<CPoint> > > >,0> >::_Insert
;	COMDAT xdata$x
xdata$x	SEGMENT
$T241086 DD	0ffffffffH
	DD	FLAT:$L240716
$T241081 DD	019930520H
	DD	01H
	DD	FLAT:$T241086
	DD	2 DUP(00H)
	DD	2 DUP(00H)
xdata$x	ENDS
;	COMDAT ??_C@_0BE@JONHPENG@map?1set?$DMT?$DO?5too?5long?$AA@
CONST	SEGMENT
??_C@_0BE@JONHPENG@map?1set?$DMT?$DO?5too?5long?$AA@ DB 'map/set<T> too l'
	DB	'ong', 00H					; `string'
; Function compile flags: /Ogty
CONST	ENDS
;	COMDAT ?_Insert@?$_Tree@V?$_Tmap_traits@EV?$vector@VCPoint@@V?$allocator@VCPoint@@@std@@@std@@U?$less@E@2@V?$allocator@U?$pair@$$CBEV?$vector@VCPoint@@V?$allocator@VCPoint@@@std@@@std@@@std@@@2@$0A@@std@@@std@@IAE?AViterator@12@_NPAU_Node@?$_Tree_nod@V?$_Tmap_traits@EV?$vector@VCPoint@@V?$allocator@VCPoint@@@std@@@std@@U?$less@E@2@V?$allocator@U?$pair@$$CBEV?$vector@VCPoint@@V?$allocator@VCPoint@@@std@@@std@@@std@@@2@$0A@@std@@@2@ABU?$pair@$$CBEV?$vector@VCPoint@@V?$allocator@VCPoint@@@std@@@std@@@2@@Z
_TEXT	SEGMENT
$T240715 = -80						; size = 28
$T240714 = -52						; size = 40
__$EHRec$ = -12						; size = 12
___$ReturnUdt$ = 8					; size = 4
__Addleft$ = 12						; size = 1
__Wherenode$ = 16					; size = 4
__Newnode$ = 20						; size = 4
__Val$ = 20						; size = 4
?_Insert@?$_Tree@V?$_Tmap_traits@EV?$vector@VCPoint@@V?$allocator@VCPoint@@@std@@@std@@U?$less@E@2@V?$allocator@U?$pair@$$CBEV?$vector@VCPoint@@V?$allocator@VCPoint@@@std@@@std@@@std@@@2@$0A@@std@@@std@@IAE?AViterator@12@_NPAU_Node@?$_Tree_nod@V?$_Tmap_traits@EV?$vector@VCPoint@@V?$allocator@VCPoint@@@std@@@std@@U?$less@E@2@V?$allocator@U?$pair@$$CBEV?$vector@VCPoint@@V?$allocator@VCPoint@@@std@@@std@@@std@@@2@$0A@@std@@@2@ABU?$pair@$$CBEV?$vector@VCPoint@@V?$allocator@VCPoint@@@std@@@std@@@2@@Z PROC NEAR ; std::_Tree<std::_Tmap_traits<unsigned char,std::vector<CPoint,std::allocator<CPoint> >,std::less<unsigned char>,std::allocator<std::pair<unsigned char const ,std::vector<CPoint,std::allocator<CPoint> > > >,0> >::_Insert, COMDAT
; _this$ = ecx

; 911  : 		{	// add node with value next to _Wherenode, to left if _Addnode

  00000	64 a1 00 00 00
	00		 mov	 eax, DWORD PTR fs:__except_list
  00006	6a ff		 push	 -1
  00008	68 00 00 00 00	 push	 __ehhandler$?_Insert@?$_Tree@V?$_Tmap_traits@EV?$vector@VCPoint@@V?$allocator@VCPoint@@@std@@@std@@U?$less@E@2@V?$allocator@U?$pair@$$CBEV?$vector@VCPoint@@V?$allocator@VCPoint@@@std@@@std@@@std@@@2@$0A@@std@@@std@@IAE?AViterator@12@_NPAU_Node@?$_Tree_nod@V?$_Tmap_traits@EV?$vector@VCPoint@@V?$allocator@VCPoint@@@std@@@std@@U?$less@E@2@V?$allocator@U?$pair@$$CBEV?$vector@VCPoint@@V?$allocator@VCPoint@@@std@@@std@@@std@@@2@$0A@@std@@@2@ABU?$pair@$$CBEV?$vector@VCPoint@@V?$allocator@VCPoint@@@std@@@std@@@2@@Z
  0000d	50		 push	 eax
  0000e	64 89 25 00 00
	00 00		 mov	 DWORD PTR fs:__except_list, esp
  00015	83 ec 44	 sub	 esp, 68			; 00000044H
  00018	56		 push	 esi
  00019	57		 push	 edi
  0001a	8b f9		 mov	 edi, ecx

; 912  : 		if (max_size() - 1 <= _Mysize)

  0001c	81 7f 08 cb cc
	cc 0c		 cmp	 DWORD PTR [edi+8], 214748363 ; 0ccccccbH
  00023	72 4c		 jb	 SHORT $L231348

; 913  : 			_THROW(length_error, "map/set<T> too long");

  00025	6a 13		 push	 19			; 00000013H
  00027	33 f6		 xor	 esi, esi
  00029	68 00 00 00 00	 push	 OFFSET FLAT:??_C@_0BE@JONHPENG@map?1set?$DMT?$DO?5too?5long?$AA@
  0002e	8d 4c 24 10	 lea	 ecx, DWORD PTR $T240715[esp+96]
  00032	c7 44 24 28 0f
	00 00 00	 mov	 DWORD PTR $T240715[esp+120], 15 ; 0000000fH
  0003a	89 74 24 24	 mov	 DWORD PTR $T240715[esp+116], esi
  0003e	c6 44 24 14 00	 mov	 BYTE PTR $T240715[esp+100], 0
  00043	e8 00 00 00 00	 call	 ?assign@?$basic_string@DU?$char_traits@D@std@@V?$allocator@D@2@@std@@QAEAAV12@PBDI@Z ; std::basic_string<char,std::char_traits<char>,std::allocator<char> >::assign
  00048	8d 44 24 08	 lea	 eax, DWORD PTR $T240715[esp+88]
  0004c	50		 push	 eax
  0004d	8d 4c 24 28	 lea	 ecx, DWORD PTR $T240714[esp+92]
  00051	89 74 24 58	 mov	 DWORD PTR __$EHRec$[esp+100], esi
  00055	e8 00 00 00 00	 call	 ??0logic_error@std@@QAE@ABV?$basic_string@DU?$char_traits@D@std@@V?$allocator@D@2@@1@@Z ; std::logic_error::logic_error
  0005a	68 00 00 00 00	 push	 OFFSET FLAT:__TI3?AVlength_error@std@@
  0005f	8d 4c 24 28	 lea	 ecx, DWORD PTR $T240714[esp+92]
  00063	51		 push	 ecx
  00064	c7 44 24 2c 00
	00 00 00	 mov	 DWORD PTR $T240714[esp+96], OFFSET FLAT:??_7length_error@std@@6B@
  0006c	e8 00 00 00 00	 call	 __CxxThrowException@8
$L241087:
$L231348:

; 914  : 		_Nodeptr _Newnode = _Buynode(_Myhead, _Wherenode, _Myhead,
; 915  : 			_Val, _Red);

  00071	8b 54 24 68	 mov	 edx, DWORD PTR __Val$[esp+84]
  00075	8b 47 04	 mov	 eax, DWORD PTR [edi+4]
  00078	8b 74 24 64	 mov	 esi, DWORD PTR __Wherenode$[esp+84]
  0007c	53		 push	 ebx
  0007d	6a 00		 push	 0
  0007f	52		 push	 edx
  00080	50		 push	 eax
  00081	56		 push	 esi
  00082	50		 push	 eax
  00083	8b cf		 mov	 ecx, edi
  00085	e8 00 00 00 00	 call	 ?_Buynode@?$_Tree@V?$_Tmap_traits@EV?$vector@VCPoint@@V?$allocator@VCPoint@@@std@@@std@@U?$less@E@2@V?$allocator@U?$pair@$$CBEV?$vector@VCPoint@@V?$allocator@VCPoint@@@std@@@std@@@std@@@2@$0A@@std@@@std@@IAEPAU_Node@?$_Tree_nod@V?$_Tmap_traits@EV?$vector@VCPoint@@V?$allocator@VCPoint@@@std@@@std@@U?$less@E@2@V?$allocator@U?$pair@$$CBEV?$vector@VCPoint@@V?$allocator@VCPoint@@@std@@@std@@@std@@@2@$0A@@std@@@2@PAU342@00ABU?$pair@$$CBEV?$vector@VCPoint@@V?$allocator@VCPoint@@@std@@@std@@@2@D@Z ; std::_Tree<std::_Tmap_traits<unsigned char,std::vector<CPoint,std::allocator<CPoint> >,std::less<unsigned char>,std::allocator<std::pair<unsigned char const ,std::vector<CPoint,std::allocator<CPoint> > > >,0> >::_Buynode

; 916  : 
; 917  : 		++_Mysize;

  0008a	8b 5f 08	 mov	 ebx, DWORD PTR [edi+8]
  0008d	8b c8		 mov	 ecx, eax

; 918  : 		if (_Wherenode == _Myhead)

  0008f	8b 47 04	 mov	 eax, DWORD PTR [edi+4]
  00092	43		 inc	 ebx
  00093	3b f0		 cmp	 esi, eax
  00095	89 4c 24 6c	 mov	 DWORD PTR __Newnode$[esp+88], ecx
  00099	89 5f 08	 mov	 DWORD PTR [edi+8], ebx
  0009c	75 10		 jne	 SHORT $L231353

; 919  : 			{	// first node in tree, just set head values
; 920  : 			_Root() = _Newnode;

  0009e	89 48 04	 mov	 DWORD PTR [eax+4], ecx

; 921  : 			_Lmost() = _Newnode, _Rmost() = _Newnode;

  000a1	8b 47 04	 mov	 eax, DWORD PTR [edi+4]
  000a4	89 08		 mov	 DWORD PTR [eax], ecx
  000a6	8b 57 04	 mov	 edx, DWORD PTR [edi+4]
  000a9	89 4a 08	 mov	 DWORD PTR [edx+8], ecx

; 922  : 			}
; 923  : 		else if (_Addleft)

  000ac	eb 23		 jmp	 SHORT $L231358
$L231353:
  000ae	8a 44 24 64	 mov	 al, BYTE PTR __Addleft$[esp+88]
  000b2	84 c0		 test	 al, al
  000b4	74 0d		 je	 SHORT $L231355

; 924  : 			{	// add to left of _Wherenode
; 925  : 			_Left(_Wherenode) = _Newnode;

  000b6	89 0e		 mov	 DWORD PTR [esi], ecx

; 926  : 			if (_Wherenode == _Lmost())

  000b8	8b 47 04	 mov	 eax, DWORD PTR [edi+4]
  000bb	3b 30		 cmp	 esi, DWORD PTR [eax]
  000bd	75 12		 jne	 SHORT $L231358

; 927  : 				_Lmost() = _Newnode;

  000bf	89 08		 mov	 DWORD PTR [eax], ecx

; 928  : 			}
; 929  : 		else

  000c1	eb 0e		 jmp	 SHORT $L231358
$L231355:

; 930  : 			{	// add to right of _Wherenode
; 931  : 			_Right(_Wherenode) = _Newnode;

  000c3	89 4e 08	 mov	 DWORD PTR [esi+8], ecx

; 932  : 			if (_Wherenode == _Rmost())

  000c6	8b 47 04	 mov	 eax, DWORD PTR [edi+4]
  000c9	3b 70 08	 cmp	 esi, DWORD PTR [eax+8]
  000cc	75 03		 jne	 SHORT $L231358

; 933  : 				_Rmost() = _Newnode;

  000ce	89 48 08	 mov	 DWORD PTR [eax+8], ecx
$L231358:

; 934  : 			}
; 935  : 
; 936  : 		for (_Nodeptr _Pnode = _Newnode; _Color(_Parent(_Pnode)) == _Red; )

  000d1	8b 51 04	 mov	 edx, DWORD PTR [ecx+4]
  000d4	80 7a 20 00	 cmp	 BYTE PTR [edx+32], 0
  000d8	8d 41 04	 lea	 eax, DWORD PTR [ecx+4]
  000db	8b f1		 mov	 esi, ecx
  000dd	b3 01		 mov	 bl, 1
  000df	0f 85 a5 00 00
	00		 jne	 $L231362
  000e5	55		 push	 ebp
$L231361:

; 937  : 			if (_Parent(_Pnode) == _Left(_Parent(_Parent(_Pnode))))

  000e6	8b 08		 mov	 ecx, DWORD PTR [eax]
  000e8	8b 69 04	 mov	 ebp, DWORD PTR [ecx+4]
  000eb	8b 55 00	 mov	 edx, DWORD PTR [ebp]
  000ee	3b ca		 cmp	 ecx, edx
  000f0	75 50		 jne	 SHORT $L231363

; 938  : 				{	// fixup red-red in left subtree
; 939  : 				_Wherenode = _Right(_Parent(_Parent(_Pnode)));

  000f2	8b 55 08	 mov	 edx, DWORD PTR [ebp+8]

; 940  : 				if (_Color(_Wherenode) == _Red)

  000f5	80 7a 20 00	 cmp	 BYTE PTR [edx+32], 0
  000f9	75 18		 jne	 SHORT $L231364
$L241085:

; 941  : 					{	// parent has two red children, blacken both
; 942  : 					_Color(_Parent(_Pnode)) = _Black;

  000fb	8b 08		 mov	 ecx, DWORD PTR [eax]
  000fd	88 59 20	 mov	 BYTE PTR [ecx+32], bl

; 943  : 					_Color(_Wherenode) = _Black;

  00100	88 5a 20	 mov	 BYTE PTR [edx+32], bl

; 944  : 					_Color(_Parent(_Parent(_Pnode))) = _Red;

  00103	8b 10		 mov	 edx, DWORD PTR [eax]
  00105	8b 4a 04	 mov	 ecx, DWORD PTR [edx+4]
  00108	c6 41 20 00	 mov	 BYTE PTR [ecx+32], 0

; 945  : 					_Pnode = _Parent(_Parent(_Pnode));

  0010c	8b 10		 mov	 edx, DWORD PTR [eax]
  0010e	8b 72 04	 mov	 esi, DWORD PTR [edx+4]

; 946  : 					}
; 947  : 				else

  00111	eb 61		 jmp	 SHORT $L231369
$L231364:

; 948  : 					{	// parent has red and black children
; 949  : 					if (_Pnode == _Right(_Parent(_Pnode)))

  00113	3b 71 08	 cmp	 esi, DWORD PTR [ecx+8]
  00116	75 0a		 jne	 SHORT $L231366

; 950  : 						{	// rotate right child to left
; 951  : 						_Pnode = _Parent(_Pnode);

  00118	8b f1		 mov	 esi, ecx

; 952  : 						_Lrotate(_Pnode);

  0011a	56		 push	 esi
  0011b	8b cf		 mov	 ecx, edi
  0011d	e8 00 00 00 00	 call	 ?_Lrotate@?$_Tree@V?$_Tmap_traits@EV?$vector@VCPoint@@V?$allocator@VCPoint@@@std@@@std@@U?$less@E@2@V?$allocator@U?$pair@$$CBEV?$vector@VCPoint@@V?$allocator@VCPoint@@@std@@@std@@@std@@@2@$0A@@std@@@std@@IAEXPAU_Node@?$_Tree_nod@V?$_Tmap_traits@EV?$vector@VCPoint@@V?$allocator@VCPoint@@@std@@@std@@U?$less@E@2@V?$allocator@U?$pair@$$CBEV?$vector@VCPoint@@V?$allocator@VCPoint@@@std@@@std@@@std@@@2@$0A@@std@@@2@@Z ; std::_Tree<std::_Tmap_traits<unsigned char,std::vector<CPoint,std::allocator<CPoint> >,std::less<unsigned char>,std::allocator<std::pair<unsigned char const ,std::vector<CPoint,std::allocator<CPoint> > > >,0> >::_Lrotate
$L231366:

; 953  : 						}
; 954  : 					_Color(_Parent(_Pnode)) = _Black;	// propagate red up

  00122	8b 46 04	 mov	 eax, DWORD PTR [esi+4]
  00125	88 58 20	 mov	 BYTE PTR [eax+32], bl

; 955  : 					_Color(_Parent(_Parent(_Pnode))) = _Red;

  00128	8b 4e 04	 mov	 ecx, DWORD PTR [esi+4]
  0012b	8b 51 04	 mov	 edx, DWORD PTR [ecx+4]
  0012e	c6 42 20 00	 mov	 BYTE PTR [edx+32], 0

; 956  : 					_Rrotate(_Parent(_Parent(_Pnode)));

  00132	8b 46 04	 mov	 eax, DWORD PTR [esi+4]
  00135	8b 48 04	 mov	 ecx, DWORD PTR [eax+4]
  00138	51		 push	 ecx
  00139	8b cf		 mov	 ecx, edi
  0013b	e8 00 00 00 00	 call	 ?_Rrotate@?$_Tree@V?$_Tmap_traits@EV?$vector@VCPoint@@V?$allocator@VCPoint@@@std@@@std@@U?$less@E@2@V?$allocator@U?$pair@$$CBEV?$vector@VCPoint@@V?$allocator@VCPoint@@@std@@@std@@@std@@@2@$0A@@std@@@std@@IAEXPAU_Node@?$_Tree_nod@V?$_Tmap_traits@EV?$vector@VCPoint@@V?$allocator@VCPoint@@@std@@@std@@U?$less@E@2@V?$allocator@U?$pair@$$CBEV?$vector@VCPoint@@V?$allocator@VCPoint@@@std@@@std@@@std@@@2@$0A@@std@@@2@@Z ; std::_Tree<std::_Tmap_traits<unsigned char,std::vector<CPoint,std::allocator<CPoint> >,std::less<unsigned char>,std::allocator<std::pair<unsigned char const ,std::vector<CPoint,std::allocator<CPoint> > > >,0> >::_Rrotate

; 957  : 					}
; 958  : 				}
; 959  : 			else

  00140	eb 32		 jmp	 SHORT $L231369
$L231363:

; 960  : 				{	// fixup red-red in right subtree
; 961  : 				_Wherenode = _Left(_Parent(_Parent(_Pnode)));
; 962  : 				if (_Color(_Wherenode) == _Red)

  00142	80 7a 20 00	 cmp	 BYTE PTR [edx+32], 0

; 963  : 					{	// parent has two red children, blacken both
; 964  : 					_Color(_Parent(_Pnode)) = _Black;
; 965  : 					_Color(_Wherenode) = _Black;
; 966  : 					_Color(_Parent(_Parent(_Pnode))) = _Red;
; 967  : 					_Pnode = _Parent(_Parent(_Pnode));
; 968  : 					}
; 969  : 				else

  00146	74 b3		 je	 SHORT $L241085

; 970  : 					{	// parent has red and black children
; 971  : 					if (_Pnode == _Left(_Parent(_Pnode)))

  00148	3b 31		 cmp	 esi, DWORD PTR [ecx]
  0014a	75 0a		 jne	 SHORT $L231370

; 972  : 						{	// rotate left child to right
; 973  : 						_Pnode = _Parent(_Pnode);

  0014c	8b f1		 mov	 esi, ecx

; 974  : 						_Rrotate(_Pnode);

  0014e	56		 push	 esi
  0014f	8b cf		 mov	 ecx, edi
  00151	e8 00 00 00 00	 call	 ?_Rrotate@?$_Tree@V?$_Tmap_traits@EV?$vector@VCPoint@@V?$allocator@VCPoint@@@std@@@std@@U?$less@E@2@V?$allocator@U?$pair@$$CBEV?$vector@VCPoint@@V?$allocator@VCPoint@@@std@@@std@@@std@@@2@$0A@@std@@@std@@IAEXPAU_Node@?$_Tree_nod@V?$_Tmap_traits@EV?$vector@VCPoint@@V?$allocator@VCPoint@@@std@@@std@@U?$less@E@2@V?$allocator@U?$pair@$$CBEV?$vector@VCPoint@@V?$allocator@VCPoint@@@std@@@std@@@std@@@2@$0A@@std@@@2@@Z ; std::_Tree<std::_Tmap_traits<unsigned char,std::vector<CPoint,std::allocator<CPoint> >,std::less<unsigned char>,std::allocator<std::pair<unsigned char const ,std::vector<CPoint,std::allocator<CPoint> > > >,0> >::_Rrotate
$L231370:

; 975  : 						}
; 976  : 					_Color(_Parent(_Pnode)) = _Black;	// propagate red up

  00156	8b 46 04	 mov	 eax, DWORD PTR [esi+4]
  00159	88 58 20	 mov	 BYTE PTR [eax+32], bl

; 977  : 					_Color(_Parent(_Parent(_Pnode))) = _Red;

  0015c	8b 4e 04	 mov	 ecx, DWORD PTR [esi+4]
  0015f	8b 51 04	 mov	 edx, DWORD PTR [ecx+4]
  00162	c6 42 20 00	 mov	 BYTE PTR [edx+32], 0

; 978  : 					_Lrotate(_Parent(_Parent(_Pnode)));

  00166	8b 46 04	 mov	 eax, DWORD PTR [esi+4]
  00169	8b 48 04	 mov	 ecx, DWORD PTR [eax+4]
  0016c	51		 push	 ecx
  0016d	8b cf		 mov	 ecx, edi
  0016f	e8 00 00 00 00	 call	 ?_Lrotate@?$_Tree@V?$_Tmap_traits@EV?$vector@VCPoint@@V?$allocator@VCPoint@@@std@@@std@@U?$less@E@2@V?$allocator@U?$pair@$$CBEV?$vector@VCPoint@@V?$allocator@VCPoint@@@std@@@std@@@std@@@2@$0A@@std@@@std@@IAEXPAU_Node@?$_Tree_nod@V?$_Tmap_traits@EV?$vector@VCPoint@@V?$allocator@VCPoint@@@std@@@std@@U?$less@E@2@V?$allocator@U?$pair@$$CBEV?$vector@VCPoint@@V?$allocator@VCPoint@@@std@@@std@@@std@@@2@$0A@@std@@@2@@Z ; std::_Tree<std::_Tmap_traits<unsigned char,std::vector<CPoint,std::allocator<CPoint> >,std::less<unsigned char>,std::allocator<std::pair<unsigned char const ,std::vector<CPoint,std::allocator<CPoint> > > >,0> >::_Lrotate
$L231369:
  00174	8b 56 04	 mov	 edx, DWORD PTR [esi+4]
  00177	8a 4a 20	 mov	 cl, BYTE PTR [edx+32]
  0017a	84 c9		 test	 cl, cl
  0017c	8d 46 04	 lea	 eax, DWORD PTR [esi+4]
  0017f	0f 84 61 ff ff
	ff		 je	 $L231361
  00185	8b 4c 24 70	 mov	 ecx, DWORD PTR __Newnode$[esp+92]
  00189	5d		 pop	 ebp
$L231362:

; 979  : 					}
; 980  : 				}
; 981  : 
; 982  : 		_Color(_Root()) = _Black;	// root is always black

  0018a	8b 47 04	 mov	 eax, DWORD PTR [edi+4]
  0018d	8b 50 04	 mov	 edx, DWORD PTR [eax+4]

; 983  : 		return (_TREE_ITERATOR(_Newnode));

  00190	8b 44 24 60	 mov	 eax, DWORD PTR ___$ReturnUdt$[esp+88]
  00194	88 5a 20	 mov	 BYTE PTR [edx+32], bl
  00197	5b		 pop	 ebx
  00198	89 08		 mov	 DWORD PTR [eax], ecx

; 984  : 		}

  0019a	8b 4c 24 4c	 mov	 ecx, DWORD PTR __$EHRec$[esp+88]
  0019e	5f		 pop	 edi
  0019f	5e		 pop	 esi
  001a0	64 89 0d 00 00
	00 00		 mov	 DWORD PTR fs:__except_list, ecx
  001a7	83 c4 50	 add	 esp, 80			; 00000050H
  001aa	c2 10 00	 ret	 16			; 00000010H
$L241084:
_TEXT	ENDS
;	COMDAT text$x
text$x	SEGMENT
$L240716:
  00000	8d 4d b0	 lea	 ecx, DWORD PTR $T240715[ebp]
  00003	e9 00 00 00 00	 jmp	 ??1?$basic_string@DU?$char_traits@D@std@@V?$allocator@D@2@@std@@QAE@XZ ; std::basic_string<char,std::char_traits<char>,std::allocator<char> >::~basic_string<char,std::char_traits<char>,std::allocator<char> >
__ehhandler$?_Insert@?$_Tree@V?$_Tmap_traits@EV?$vector@VCPoint@@V?$allocator@VCPoint@@@std@@@std@@U?$less@E@2@V?$allocator@U?$pair@$$CBEV?$vector@VCPoint@@V?$allocator@VCPoint@@@std@@@std@@@std@@@2@$0A@@std@@@std@@IAE?AViterator@12@_NPAU_Node@?$_Tree_nod@V?$_Tmap_traits@EV?$vector@VCPoint@@V?$allocator@VCPoint@@@std@@@std@@U?$less@E@2@V?$allocator@U?$pair@$$CBEV?$vector@VCPoint@@V?$allocator@VCPoint@@@std@@@std@@@std@@@2@$0A@@std@@@2@ABU?$pair@$$CBEV?$vector@VCPoint@@V?$allocator@VCPoint@@@std@@@std@@@2@@Z:
  00008	b8 00 00 00 00	 mov	 eax, OFFSET FLAT:$T241081
  0000d	e9 00 00 00 00	 jmp	 ___CxxFrameHandler
text$x	ENDS
?_Insert@?$_Tree@V?$_Tmap_traits@EV?$vector@VCPoint@@V?$allocator@VCPoint@@@std@@@std@@U?$less@E@2@V?$allocator@U?$pair@$$CBEV?$vector@VCPoint@@V?$allocator@VCPoint@@@std@@@std@@@std@@@2@$0A@@std@@@std@@IAE?AViterator@12@_NPAU_Node@?$_Tree_nod@V?$_Tmap_traits@EV?$vector@VCPoint@@V?$allocator@VCPoint@@@std@@@std@@U?$less@E@2@V?$allocator@U?$pair@$$CBEV?$vector@VCPoint@@V?$allocator@VCPoint@@@std@@@std@@@std@@@2@$0A@@std@@@2@ABU?$pair@$$CBEV?$vector@VCPoint@@V?$allocator@VCPoint@@@std@@@std@@@2@@Z ENDP ; std::_Tree<std::_Tmap_traits<unsigned char,std::vector<CPoint,std::allocator<CPoint> >,std::less<unsigned char>,std::allocator<std::pair<unsigned char const ,std::vector<CPoint,std::allocator<CPoint> > > >,0> >::_Insert
PUBLIC	?_Tidy@?$_Tree@V?$_Tmap_traits@EV?$vector@VCPoint@@V?$allocator@VCPoint@@@std@@@std@@U?$less@E@2@V?$allocator@U?$pair@$$CBEV?$vector@VCPoint@@V?$allocator@VCPoint@@@std@@@std@@@std@@@2@$0A@@std@@@std@@IAEXXZ ; std::_Tree<std::_Tmap_traits<unsigned char,std::vector<CPoint,std::allocator<CPoint> >,std::less<unsigned char>,std::allocator<std::pair<unsigned char const ,std::vector<CPoint,std::allocator<CPoint> > > >,0> >::_Tidy
; Function compile flags: /Ogty
;	COMDAT ?_Tidy@?$_Tree@V?$_Tmap_traits@EV?$vector@VCPoint@@V?$allocator@VCPoint@@@std@@@std@@U?$less@E@2@V?$allocator@U?$pair@$$CBEV?$vector@VCPoint@@V?$allocator@VCPoint@@@std@@@std@@@std@@@2@$0A@@std@@@std@@IAEXXZ
_TEXT	SEGMENT
$T241095 = -4						; size = 4
?_Tidy@?$_Tree@V?$_Tmap_traits@EV?$vector@VCPoint@@V?$allocator@VCPoint@@@std@@@std@@U?$less@E@2@V?$allocator@U?$pair@$$CBEV?$vector@VCPoint@@V?$allocator@VCPoint@@@std@@@std@@@std@@@2@$0A@@std@@@std@@IAEXXZ PROC NEAR ; std::_Tree<std::_Tmap_traits<unsigned char,std::vector<CPoint,std::allocator<CPoint> >,std::less<unsigned char>,std::allocator<std::pair<unsigned char const ,std::vector<CPoint,std::allocator<CPoint> > > >,0> >::_Tidy, COMDAT
; _this$ = ecx

; 1142 : 		{	// free all storage

  00000	51		 push	 ecx
  00001	56		 push	 esi
  00002	8b f1		 mov	 esi, ecx

; 1143 : 		erase(begin(), end());

  00004	8b 46 04	 mov	 eax, DWORD PTR [esi+4]
  00007	8b 08		 mov	 ecx, DWORD PTR [eax]
  00009	50		 push	 eax
  0000a	51		 push	 ecx
  0000b	8d 44 24 0c	 lea	 eax, DWORD PTR $T241095[esp+16]
  0000f	50		 push	 eax
  00010	8b ce		 mov	 ecx, esi
  00012	e8 00 00 00 00	 call	 ?erase@?$_Tree@V?$_Tmap_traits@EV?$vector@VCPoint@@V?$allocator@VCPoint@@@std@@@std@@U?$less@E@2@V?$allocator@U?$pair@$$CBEV?$vector@VCPoint@@V?$allocator@VCPoint@@@std@@@std@@@std@@@2@$0A@@std@@@std@@QAE?AViterator@12@V312@0@Z ; std::_Tree<std::_Tmap_traits<unsigned char,std::vector<CPoint,std::allocator<CPoint> >,std::less<unsigned char>,std::allocator<std::pair<unsigned char const ,std::vector<CPoint,std::allocator<CPoint> > > >,0> >::erase

; 1144 : 		this->_Alptr.destroy(&_Left(_Myhead));
; 1145 : 		this->_Alptr.destroy(&_Parent(_Myhead));
; 1146 : 		this->_Alptr.destroy(&_Right(_Myhead));
; 1147 : 		this->_Alnod.deallocate(_Myhead, 1);

  00017	8b 4e 04	 mov	 ecx, DWORD PTR [esi+4]
  0001a	51		 push	 ecx
  0001b	e8 00 00 00 00	 call	 ??3@YAXPAX@Z		; operator delete
  00020	83 c4 04	 add	 esp, 4

; 1148 : 		_Myhead = 0, _Mysize = 0;

  00023	33 c0		 xor	 eax, eax
  00025	89 46 04	 mov	 DWORD PTR [esi+4], eax
  00028	89 46 08	 mov	 DWORD PTR [esi+8], eax
  0002b	5e		 pop	 esi

; 1149 : 		}

  0002c	59		 pop	 ecx
  0002d	c3		 ret	 0
?_Tidy@?$_Tree@V?$_Tmap_traits@EV?$vector@VCPoint@@V?$allocator@VCPoint@@@std@@@std@@U?$less@E@2@V?$allocator@U?$pair@$$CBEV?$vector@VCPoint@@V?$allocator@VCPoint@@@std@@@std@@@std@@@2@$0A@@std@@@std@@IAEXXZ ENDP ; std::_Tree<std::_Tmap_traits<unsigned char,std::vector<CPoint,std::allocator<CPoint> >,std::less<unsigned char>,std::allocator<std::pair<unsigned char const ,std::vector<CPoint,std::allocator<CPoint> > > >,0> >::_Tidy
_TEXT	ENDS
PUBLIC	??1?$_Tree@V?$_Tmap_traits@EV?$vector@VCPoint@@V?$allocator@VCPoint@@@std@@@std@@U?$less@E@2@V?$allocator@U?$pair@$$CBEV?$vector@VCPoint@@V?$allocator@VCPoint@@@std@@@std@@@std@@@2@$0A@@std@@@std@@QAE@XZ ; std::_Tree<std::_Tmap_traits<unsigned char,std::vector<CPoint,std::allocator<CPoint> >,std::less<unsigned char>,std::allocator<std::pair<unsigned char const ,std::vector<CPoint,std::allocator<CPoint> > > >,0> >::~_Tree<std::_Tmap_traits<unsigned char,std::vector<CPoint,std::allocator<CPoint> >,std::less<unsigned char>,std::allocator<std::pair<unsigned char const ,std::vector<CPoint,std::allocator<CPoint> > > >,0> >
; Function compile flags: /Ogty
;	COMDAT ??1?$_Tree@V?$_Tmap_traits@EV?$vector@VCPoint@@V?$allocator@VCPoint@@@std@@@std@@U?$less@E@2@V?$allocator@U?$pair@$$CBEV?$vector@VCPoint@@V?$allocator@VCPoint@@@std@@@std@@@std@@@2@$0A@@std@@@std@@QAE@XZ
_TEXT	SEGMENT
$T241224 = -4						; size = 4
??1?$_Tree@V?$_Tmap_traits@EV?$vector@VCPoint@@V?$allocator@VCPoint@@@std@@@std@@U?$less@E@2@V?$allocator@U?$pair@$$CBEV?$vector@VCPoint@@V?$allocator@VCPoint@@@std@@@std@@@std@@@2@$0A@@std@@@std@@QAE@XZ PROC NEAR ; std::_Tree<std::_Tmap_traits<unsigned char,std::vector<CPoint,std::allocator<CPoint> >,std::less<unsigned char>,std::allocator<std::pair<unsigned char const ,std::vector<CPoint,std::allocator<CPoint> > > >,0> >::~_Tree<std::_Tmap_traits<unsigned char,std::vector<CPoint,std::allocator<CPoint> >,std::less<unsigned char>,std::allocator<std::pair<unsigned char const ,std::vector<CPoint,std::allocator<CPoint> > > >,0> >, COMDAT
; _this$ = ecx

; 391  : 		{	// destroy tree

  00000	51		 push	 ecx
  00001	56		 push	 esi
  00002	8b f1		 mov	 esi, ecx

; 392  : 		_Tidy();

  00004	8b 46 04	 mov	 eax, DWORD PTR [esi+4]
  00007	8b 08		 mov	 ecx, DWORD PTR [eax]
  00009	50		 push	 eax
  0000a	51		 push	 ecx
  0000b	8d 44 24 0c	 lea	 eax, DWORD PTR $T241224[esp+16]
  0000f	50		 push	 eax
  00010	8b ce		 mov	 ecx, esi
  00012	e8 00 00 00 00	 call	 ?erase@?$_Tree@V?$_Tmap_traits@EV?$vector@VCPoint@@V?$allocator@VCPoint@@@std@@@std@@U?$less@E@2@V?$allocator@U?$pair@$$CBEV?$vector@VCPoint@@V?$allocator@VCPoint@@@std@@@std@@@std@@@2@$0A@@std@@@std@@QAE?AViterator@12@V312@0@Z ; std::_Tree<std::_Tmap_traits<unsigned char,std::vector<CPoint,std::allocator<CPoint> >,std::less<unsigned char>,std::allocator<std::pair<unsigned char const ,std::vector<CPoint,std::allocator<CPoint> > > >,0> >::erase
  00017	8b 4e 04	 mov	 ecx, DWORD PTR [esi+4]
  0001a	51		 push	 ecx
  0001b	e8 00 00 00 00	 call	 ??3@YAXPAX@Z		; operator delete
  00020	83 c4 04	 add	 esp, 4
  00023	33 c0		 xor	 eax, eax
  00025	89 46 04	 mov	 DWORD PTR [esi+4], eax
  00028	89 46 08	 mov	 DWORD PTR [esi+8], eax
  0002b	5e		 pop	 esi

; 393  : 		}

  0002c	59		 pop	 ecx
  0002d	c3		 ret	 0
??1?$_Tree@V?$_Tmap_traits@EV?$vector@VCPoint@@V?$allocator@VCPoint@@@std@@@std@@U?$less@E@2@V?$allocator@U?$pair@$$CBEV?$vector@VCPoint@@V?$allocator@VCPoint@@@std@@@std@@@std@@@2@$0A@@std@@@std@@QAE@XZ ENDP ; std::_Tree<std::_Tmap_traits<unsigned char,std::vector<CPoint,std::allocator<CPoint> >,std::less<unsigned char>,std::allocator<std::pair<unsigned char const ,std::vector<CPoint,std::allocator<CPoint> > > >,0> >::~_Tree<std::_Tmap_traits<unsigned char,std::vector<CPoint,std::allocator<CPoint> >,std::less<unsigned char>,std::allocator<std::pair<unsigned char const ,std::vector<CPoint,std::allocator<CPoint> > > >,0> >
_TEXT	ENDS
PUBLIC	?insert@?$_Tree@V?$_Tmap_traits@EV?$vector@VCPoint@@V?$allocator@VCPoint@@@std@@@std@@U?$less@E@2@V?$allocator@U?$pair@$$CBEV?$vector@VCPoint@@V?$allocator@VCPoint@@@std@@@std@@@std@@@2@$0A@@std@@@std@@QAE?AU?$pair@Viterator@?$_Tree@V?$_Tmap_traits@EV?$vector@VCPoint@@V?$allocator@VCPoint@@@std@@@std@@U?$less@E@2@V?$allocator@U?$pair@$$CBEV?$vector@VCPoint@@V?$allocator@VCPoint@@@std@@@std@@@std@@@2@$0A@@std@@@std@@_N@2@ABU?$pair@$$CBEV?$vector@VCPoint@@V?$allocator@VCPoint@@@std@@@std@@@2@@Z ; std::_Tree<std::_Tmap_traits<unsigned char,std::vector<CPoint,std::allocator<CPoint> >,std::less<unsigned char>,std::allocator<std::pair<unsigned char const ,std::vector<CPoint,std::allocator<CPoint> > > >,0> >::insert
; Function compile flags: /Ogty
;	COMDAT ?insert@?$_Tree@V?$_Tmap_traits@EV?$vector@VCPoint@@V?$allocator@VCPoint@@@std@@@std@@U?$less@E@2@V?$allocator@U?$pair@$$CBEV?$vector@VCPoint@@V?$allocator@VCPoint@@@std@@@std@@@std@@@2@$0A@@std@@@std@@QAE?AU?$pair@Viterator@?$_Tree@V?$_Tmap_traits@EV?$vector@VCPoint@@V?$allocator@VCPoint@@@std@@@std@@U?$less@E@2@V?$allocator@U?$pair@$$CBEV?$vector@VCPoint@@V?$allocator@VCPoint@@@std@@@std@@@std@@@2@$0A@@std@@@std@@_N@2@ABU?$pair@$$CBEV?$vector@VCPoint@@V?$allocator@VCPoint@@@std@@@std@@@2@@Z
_TEXT	SEGMENT
__Addleft$ = -4						; size = 1
___$ReturnUdt$ = 8					; size = 4
$T241261 = 12						; size = 4
$T241259 = 12						; size = 4
__Where$231031 = 12					; size = 4
__Val$ = 12						; size = 4
?insert@?$_Tree@V?$_Tmap_traits@EV?$vector@VCPoint@@V?$allocator@VCPoint@@@std@@@std@@U?$less@E@2@V?$allocator@U?$pair@$$CBEV?$vector@VCPoint@@V?$allocator@VCPoint@@@std@@@std@@@std@@@2@$0A@@std@@@std@@QAE?AU?$pair@Viterator@?$_Tree@V?$_Tmap_traits@EV?$vector@VCPoint@@V?$allocator@VCPoint@@@std@@@std@@U?$less@E@2@V?$allocator@U?$pair@$$CBEV?$vector@VCPoint@@V?$allocator@VCPoint@@@std@@@std@@@std@@@2@$0A@@std@@@std@@_N@2@ABU?$pair@$$CBEV?$vector@VCPoint@@V?$allocator@VCPoint@@@std@@@std@@@2@@Z PROC NEAR ; std::_Tree<std::_Tmap_traits<unsigned char,std::vector<CPoint,std::allocator<CPoint> >,std::less<unsigned char>,std::allocator<std::pair<unsigned char const ,std::vector<CPoint,std::allocator<CPoint> > > >,0> >::insert, COMDAT
; _this$ = ecx

; 477  : 		{	// try to insert node with value _Val

  00000	51		 push	 ecx
  00001	55		 push	 ebp

; 478  : 		_Nodeptr _Trynode = _Root();
; 479  : 		_Nodeptr _Wherenode = _Myhead;
; 480  : 		bool _Addleft = true;	// add to left of head if tree empty
; 481  : 		while (!_Isnil(_Trynode))

  00002	8b 6c 24 10	 mov	 ebp, DWORD PTR __Val$[esp+4]
  00006	56		 push	 esi
  00007	57		 push	 edi
  00008	8b f9		 mov	 edi, ecx
  0000a	8b 77 04	 mov	 esi, DWORD PTR [edi+4]
  0000d	8b 46 04	 mov	 eax, DWORD PTR [esi+4]
  00010	8a 50 21	 mov	 dl, BYTE PTR [eax+33]
  00013	84 d2		 test	 dl, dl
  00015	b1 01		 mov	 cl, 1
  00017	88 4c 24 0c	 mov	 BYTE PTR __Addleft$[esp+16], cl
  0001b	75 20		 jne	 SHORT $L231020
  0001d	8a 55 00	 mov	 dl, BYTE PTR [ebp]
$L231019:

; 482  : 			{	// look for leaf to insert before (_Addleft) or after
; 483  : 			_Wherenode = _Trynode;
; 484  : 			_Addleft = this->comp(this->_Kfn(_Val), _Key(_Trynode));

  00020	3a 50 0c	 cmp	 dl, BYTE PTR [eax+12]
  00023	0f 92 c1	 setb	 cl

; 485  : 			_Trynode = _Addleft ? _Left(_Trynode) : _Right(_Trynode);

  00026	84 c9		 test	 cl, cl
  00028	8b f0		 mov	 esi, eax
  0002a	88 4c 24 0c	 mov	 BYTE PTR __Addleft$[esp+16], cl
  0002e	74 04		 je	 SHORT $L241253
  00030	8b 00		 mov	 eax, DWORD PTR [eax]
  00032	eb 03		 jmp	 SHORT $L241254
$L241253:
  00034	8b 40 08	 mov	 eax, DWORD PTR [eax+8]
$L241254:

; 478  : 		_Nodeptr _Trynode = _Root();
; 479  : 		_Nodeptr _Wherenode = _Myhead;
; 480  : 		bool _Addleft = true;	// add to left of head if tree empty
; 481  : 		while (!_Isnil(_Trynode))

  00037	80 78 21 00	 cmp	 BYTE PTR [eax+33], 0
  0003b	74 e3		 je	 SHORT $L231019
$L231020:

; 486  : 			}
; 487  : 
; 488  : 		if (this->_Multi)
; 489  : 			return (_Pairib(_Insert(_Addleft, _Wherenode, _Val), true));
; 490  : 		else
; 491  : 			{	// insert only if unique
; 492  : 			iterator _Where = _TREE_ITERATOR(_Wherenode);
; 493  : 			if (!_Addleft)

  0003d	84 c9		 test	 cl, cl
  0003f	8b d6		 mov	 edx, esi
  00041	89 54 24 18	 mov	 DWORD PTR __Where$231031[esp+12], edx
  00045	74 33		 je	 SHORT $L241353

; 494  : 				;	// need to test if insert after is okay
; 495  : 			else if (_Where == begin())

  00047	8b 47 04	 mov	 eax, DWORD PTR [edi+4]
  0004a	3b 30		 cmp	 esi, DWORD PTR [eax]

; 496  : 				return (_Pairib(_Insert(true, _Wherenode, _Val), true));

  0004c	8d 4c 24 18	 lea	 ecx, DWORD PTR $T241259[esp+12]
  00050	75 1f		 jne	 SHORT $L231036
  00052	55		 push	 ebp
  00053	56		 push	 esi
  00054	6a 01		 push	 1
  00056	51		 push	 ecx
  00057	8b cf		 mov	 ecx, edi
  00059	e8 00 00 00 00	 call	 ?_Insert@?$_Tree@V?$_Tmap_traits@EV?$vector@VCPoint@@V?$allocator@VCPoint@@@std@@@std@@U?$less@E@2@V?$allocator@U?$pair@$$CBEV?$vector@VCPoint@@V?$allocator@VCPoint@@@std@@@std@@@std@@@2@$0A@@std@@@std@@IAE?AViterator@12@_NPAU_Node@?$_Tree_nod@V?$_Tmap_traits@EV?$vector@VCPoint@@V?$allocator@VCPoint@@@std@@@std@@U?$less@E@2@V?$allocator@U?$pair@$$CBEV?$vector@VCPoint@@V?$allocator@VCPoint@@@std@@@std@@@std@@@2@$0A@@std@@@2@ABU?$pair@$$CBEV?$vector@VCPoint@@V?$allocator@VCPoint@@@std@@@std@@@2@@Z ; std::_Tree<std::_Tmap_traits<unsigned char,std::vector<CPoint,std::allocator<CPoint> >,std::less<unsigned char>,std::allocator<std::pair<unsigned char const ,std::vector<CPoint,std::allocator<CPoint> > > >,0> >::_Insert
  0005e	8b 10		 mov	 edx, DWORD PTR [eax]
  00060	8b 44 24 14	 mov	 eax, DWORD PTR ___$ReturnUdt$[esp+12]
  00064	5f		 pop	 edi
  00065	5e		 pop	 esi
  00066	c6 40 04 01	 mov	 BYTE PTR [eax+4], 1

; 502  : 			else
; 503  : 				return (_Pairib(_Where, false));

  0006a	89 10		 mov	 DWORD PTR [eax], edx
  0006c	5d		 pop	 ebp

; 504  : 			}
; 505  : 		}

  0006d	59		 pop	 ecx
  0006e	c2 08 00	 ret	 8
$L231036:

; 497  : 			else
; 498  : 				--_Where;	// need to test if insert before is okay

  00071	e8 00 00 00 00	 call	 ?_Dec@const_iterator@?$_Tree@V?$_Tmap_traits@EV?$vector@VCPoint@@V?$allocator@VCPoint@@@std@@@std@@U?$less@E@2@V?$allocator@U?$pair@$$CBEV?$vector@VCPoint@@V?$allocator@VCPoint@@@std@@@std@@@std@@@2@$0A@@std@@@std@@QAEXXZ ; std::_Tree<std::_Tmap_traits<unsigned char,std::vector<CPoint,std::allocator<CPoint> >,std::less<unsigned char>,std::allocator<std::pair<unsigned char const ,std::vector<CPoint,std::allocator<CPoint> > > >,0> >::const_iterator::_Dec
  00076	8b 54 24 18	 mov	 edx, DWORD PTR __Where$231031[esp+12]
$L241353:

; 499  : 
; 500  : 			if (this->comp(_Key(_Where._Mynode()), this->_Kfn(_Val)))

  0007a	8a 42 0c	 mov	 al, BYTE PTR [edx+12]
  0007d	3a 45 00	 cmp	 al, BYTE PTR [ebp]
  00080	73 26		 jae	 SHORT $L231041

; 501  : 				return (_Pairib(_Insert(_Addleft, _Wherenode, _Val), true));

  00082	8b 4c 24 0c	 mov	 ecx, DWORD PTR __Addleft$[esp+16]
  00086	55		 push	 ebp
  00087	56		 push	 esi
  00088	51		 push	 ecx
  00089	8d 54 24 24	 lea	 edx, DWORD PTR $T241261[esp+24]
  0008d	52		 push	 edx
  0008e	8b cf		 mov	 ecx, edi
  00090	e8 00 00 00 00	 call	 ?_Insert@?$_Tree@V?$_Tmap_traits@EV?$vector@VCPoint@@V?$allocator@VCPoint@@@std@@@std@@U?$less@E@2@V?$allocator@U?$pair@$$CBEV?$vector@VCPoint@@V?$allocator@VCPoint@@@std@@@std@@@std@@@2@$0A@@std@@@std@@IAE?AViterator@12@_NPAU_Node@?$_Tree_nod@V?$_Tmap_traits@EV?$vector@VCPoint@@V?$allocator@VCPoint@@@std@@@std@@U?$less@E@2@V?$allocator@U?$pair@$$CBEV?$vector@VCPoint@@V?$allocator@VCPoint@@@std@@@std@@@std@@@2@$0A@@std@@@2@ABU?$pair@$$CBEV?$vector@VCPoint@@V?$allocator@VCPoint@@@std@@@std@@@2@@Z ; std::_Tree<std::_Tmap_traits<unsigned char,std::vector<CPoint,std::allocator<CPoint> >,std::less<unsigned char>,std::allocator<std::pair<unsigned char const ,std::vector<CPoint,std::allocator<CPoint> > > >,0> >::_Insert
  00095	8b 08		 mov	 ecx, DWORD PTR [eax]
  00097	8b 44 24 14	 mov	 eax, DWORD PTR ___$ReturnUdt$[esp+12]
  0009b	5f		 pop	 edi
  0009c	5e		 pop	 esi
  0009d	89 08		 mov	 DWORD PTR [eax], ecx
  0009f	c6 40 04 01	 mov	 BYTE PTR [eax+4], 1
  000a3	5d		 pop	 ebp

; 504  : 			}
; 505  : 		}

  000a4	59		 pop	 ecx
  000a5	c2 08 00	 ret	 8
$L231041:

; 502  : 			else
; 503  : 				return (_Pairib(_Where, false));

  000a8	8b 44 24 14	 mov	 eax, DWORD PTR ___$ReturnUdt$[esp+12]
  000ac	5f		 pop	 edi
  000ad	5e		 pop	 esi
  000ae	c6 40 04 00	 mov	 BYTE PTR [eax+4], 0
  000b2	89 10		 mov	 DWORD PTR [eax], edx
  000b4	5d		 pop	 ebp

; 504  : 			}
; 505  : 		}

  000b5	59		 pop	 ecx
  000b6	c2 08 00	 ret	 8
?insert@?$_Tree@V?$_Tmap_traits@EV?$vector@VCPoint@@V?$allocator@VCPoint@@@std@@@std@@U?$less@E@2@V?$allocator@U?$pair@$$CBEV?$vector@VCPoint@@V?$allocator@VCPoint@@@std@@@std@@@std@@@2@$0A@@std@@@std@@QAE?AU?$pair@Viterator@?$_Tree@V?$_Tmap_traits@EV?$vector@VCPoint@@V?$allocator@VCPoint@@@std@@@std@@U?$less@E@2@V?$allocator@U?$pair@$$CBEV?$vector@VCPoint@@V?$allocator@VCPoint@@@std@@@std@@@std@@@2@$0A@@std@@@std@@_N@2@ABU?$pair@$$CBEV?$vector@VCPoint@@V?$allocator@VCPoint@@@std@@@std@@@2@@Z ENDP ; std::_Tree<std::_Tmap_traits<unsigned char,std::vector<CPoint,std::allocator<CPoint> >,std::less<unsigned char>,std::allocator<std::pair<unsigned char const ,std::vector<CPoint,std::allocator<CPoint> > > >,0> >::insert
_TEXT	ENDS
PUBLIC	??1?$map@EV?$vector@VCPoint@@V?$allocator@VCPoint@@@std@@@std@@U?$less@E@2@V?$allocator@U?$pair@$$CBEV?$vector@VCPoint@@V?$allocator@VCPoint@@@std@@@std@@@std@@@2@@std@@QAE@XZ ; std::map<unsigned char,std::vector<CPoint,std::allocator<CPoint> >,std::less<unsigned char>,std::allocator<std::pair<unsigned char const ,std::vector<CPoint,std::allocator<CPoint> > > > >::~map<unsigned char,std::vector<CPoint,std::allocator<CPoint> >,std::less<unsigned char>,std::allocator<std::pair<unsigned char const ,std::vector<CPoint,std::allocator<CPoint> > > > >
; Function compile flags: /Ogty
;	COMDAT ??1?$map@EV?$vector@VCPoint@@V?$allocator@VCPoint@@@std@@@std@@U?$less@E@2@V?$allocator@U?$pair@$$CBEV?$vector@VCPoint@@V?$allocator@VCPoint@@@std@@@std@@@std@@@2@@std@@QAE@XZ
_TEXT	SEGMENT
$T241489 = -4						; size = 4
??1?$map@EV?$vector@VCPoint@@V?$allocator@VCPoint@@@std@@@std@@U?$less@E@2@V?$allocator@U?$pair@$$CBEV?$vector@VCPoint@@V?$allocator@VCPoint@@@std@@@std@@@std@@@2@@std@@QAE@XZ PROC NEAR ; std::map<unsigned char,std::vector<CPoint,std::allocator<CPoint> >,std::less<unsigned char>,std::allocator<std::pair<unsigned char const ,std::vector<CPoint,std::allocator<CPoint> > > > >::~map<unsigned char,std::vector<CPoint,std::allocator<CPoint> >,std::less<unsigned char>,std::allocator<std::pair<unsigned char const ,std::vector<CPoint,std::allocator<CPoint> > > > >, COMDAT
; _this$ = ecx
  00000	51		 push	 ecx
  00001	56		 push	 esi
  00002	8b f1		 mov	 esi, ecx
  00004	8b 46 04	 mov	 eax, DWORD PTR [esi+4]
  00007	8b 08		 mov	 ecx, DWORD PTR [eax]
  00009	50		 push	 eax
  0000a	51		 push	 ecx
  0000b	8d 44 24 0c	 lea	 eax, DWORD PTR $T241489[esp+16]
  0000f	50		 push	 eax
  00010	8b ce		 mov	 ecx, esi
  00012	e8 00 00 00 00	 call	 ?erase@?$_Tree@V?$_Tmap_traits@EV?$vector@VCPoint@@V?$allocator@VCPoint@@@std@@@std@@U?$less@E@2@V?$allocator@U?$pair@$$CBEV?$vector@VCPoint@@V?$allocator@VCPoint@@@std@@@std@@@std@@@2@$0A@@std@@@std@@QAE?AViterator@12@V312@0@Z ; std::_Tree<std::_Tmap_traits<unsigned char,std::vector<CPoint,std::allocator<CPoint> >,std::less<unsigned char>,std::allocator<std::pair<unsigned char const ,std::vector<CPoint,std::allocator<CPoint> > > >,0> >::erase
  00017	8b 4e 04	 mov	 ecx, DWORD PTR [esi+4]
  0001a	51		 push	 ecx
  0001b	e8 00 00 00 00	 call	 ??3@YAXPAX@Z		; operator delete
  00020	83 c4 04	 add	 esp, 4
  00023	33 c0		 xor	 eax, eax
  00025	89 46 04	 mov	 DWORD PTR [esi+4], eax
  00028	89 46 08	 mov	 DWORD PTR [esi+8], eax
  0002b	5e		 pop	 esi
  0002c	59		 pop	 ecx
  0002d	c3		 ret	 0
??1?$map@EV?$vector@VCPoint@@V?$allocator@VCPoint@@@std@@@std@@U?$less@E@2@V?$allocator@U?$pair@$$CBEV?$vector@VCPoint@@V?$allocator@VCPoint@@@std@@@std@@@std@@@2@@std@@QAE@XZ ENDP ; std::map<unsigned char,std::vector<CPoint,std::allocator<CPoint> >,std::less<unsigned char>,std::allocator<std::pair<unsigned char const ,std::vector<CPoint,std::allocator<CPoint> > > > >::~map<unsigned char,std::vector<CPoint,std::allocator<CPoint> >,std::less<unsigned char>,std::allocator<std::pair<unsigned char const ,std::vector<CPoint,std::allocator<CPoint> > > > >
_TEXT	ENDS
PUBLIC	??1CContinent@@UAE@XZ				; CContinent::~CContinent
PUBLIC	??_7CContinent@@6B@				; CContinent::`vftable'
PUBLIC	??_GCContinent@@UAEPAXI@Z			; CContinent::`scalar deleting destructor'
EXTRN	??_ECContinent@@UAEPAXI@Z:NEAR			; CContinent::`vector deleting destructor'
;	COMDAT xdata$x
; File c:\program files\microsoft visual studio .net 2003\vc7\include\xmemory
xdata$x	SEGMENT
$T241843 DD	0ffffffffH
	DD	FLAT:$L241518
$T241841 DD	019930520H
	DD	01H
	DD	FLAT:$T241843
	DD	2 DUP(00H)
	DD	2 DUP(00H)
xdata$x	ENDS
;	COMDAT ??_7CContinent@@6B@
CONST	SEGMENT
??_7CContinent@@6B@ DD FLAT:??_ECContinent@@UAEPAXI@Z	; CContinent::`vftable'
; Function compile flags: /Ogty
; File c:\documents and settings\test\mes documents\source\virtuos_v17\build\program\_common\continent.cpp
CONST	ENDS
;	COMDAT ??1CContinent@@UAE@XZ
_TEXT	SEGMENT
_this$ = -20						; size = 4
$T241811 = -16						; size = 4
$T241653 = -16						; size = 4
__$EHRec$ = -12						; size = 12
??1CContinent@@UAE@XZ PROC NEAR				; CContinent::~CContinent, COMDAT
; _this$ = ecx

; 17   : {

  00000	6a ff		 push	 -1
  00002	68 00 00 00 00	 push	 __ehhandler$??1CContinent@@UAE@XZ
  00007	64 a1 00 00 00
	00		 mov	 eax, DWORD PTR fs:__except_list
  0000d	50		 push	 eax
  0000e	64 89 25 00 00
	00 00		 mov	 DWORD PTR fs:__except_list, esp
  00015	83 ec 08	 sub	 esp, 8
  00018	53		 push	 ebx
  00019	56		 push	 esi
  0001a	57		 push	 edi
  0001b	8b f9		 mov	 edi, ecx
  0001d	89 7c 24 0c	 mov	 DWORD PTR _this$[esp+32], edi
  00021	c7 07 00 00 00
	00		 mov	 DWORD PTR [edi], OFFSET FLAT:??_7CContinent@@6B@

; 18   : 
; 19   : }

  00027	8b 47 14	 mov	 eax, DWORD PTR [edi+20]
  0002a	8b 08		 mov	 ecx, DWORD PTR [eax]
  0002c	8d 77 10	 lea	 esi, DWORD PTR [edi+16]
  0002f	50		 push	 eax
  00030	51		 push	 ecx
  00031	8d 44 24 18	 lea	 eax, DWORD PTR $T241653[esp+40]
  00035	33 db		 xor	 ebx, ebx
  00037	50		 push	 eax
  00038	8b ce		 mov	 ecx, esi
  0003a	89 5c 24 28	 mov	 DWORD PTR __$EHRec$[esp+52], ebx
  0003e	e8 00 00 00 00	 call	 ?erase@?$_Tree@V?$_Tmap_traits@EV?$vector@VCPoint@@V?$allocator@VCPoint@@@std@@@std@@U?$less@E@2@V?$allocator@U?$pair@$$CBEV?$vector@VCPoint@@V?$allocator@VCPoint@@@std@@@std@@@std@@@2@$0A@@std@@@std@@QAE?AViterator@12@V312@0@Z ; std::_Tree<std::_Tmap_traits<unsigned char,std::vector<CPoint,std::allocator<CPoint> >,std::less<unsigned char>,std::allocator<std::pair<unsigned char const ,std::vector<CPoint,std::allocator<CPoint> > > >,0> >::erase
  00043	8b 46 04	 mov	 eax, DWORD PTR [esi+4]
  00046	50		 push	 eax
  00047	e8 00 00 00 00	 call	 ??3@YAXPAX@Z		; operator delete
  0004c	89 5e 04	 mov	 DWORD PTR [esi+4], ebx
  0004f	89 5e 08	 mov	 DWORD PTR [esi+8], ebx
  00052	8b 47 08	 mov	 eax, DWORD PTR [edi+8]
  00055	8b 08		 mov	 ecx, DWORD PTR [eax]
  00057	83 c4 04	 add	 esp, 4
  0005a	8d 77 04	 lea	 esi, DWORD PTR [edi+4]
  0005d	50		 push	 eax
  0005e	51		 push	 ecx
  0005f	8d 4c 24 18	 lea	 ecx, DWORD PTR $T241811[esp+40]
  00063	51		 push	 ecx
  00064	8b ce		 mov	 ecx, esi
  00066	c7 44 24 28 ff
	ff ff ff	 mov	 DWORD PTR __$EHRec$[esp+52], -1
  0006e	e8 00 00 00 00	 call	 ?erase@?$_Tree@V?$_Tmap_traits@EV?$vector@VCPoint@@V?$allocator@VCPoint@@@std@@@std@@U?$less@E@2@V?$allocator@U?$pair@$$CBEV?$vector@VCPoint@@V?$allocator@VCPoint@@@std@@@std@@@std@@@2@$0A@@std@@@std@@QAE?AViterator@12@V312@0@Z ; std::_Tree<std::_Tmap_traits<unsigned char,std::vector<CPoint,std::allocator<CPoint> >,std::less<unsigned char>,std::allocator<std::pair<unsigned char const ,std::vector<CPoint,std::allocator<CPoint> > > >,0> >::erase
  00073	8b 56 04	 mov	 edx, DWORD PTR [esi+4]
  00076	52		 push	 edx
  00077	e8 00 00 00 00	 call	 ??3@YAXPAX@Z		; operator delete
  0007c	8b 4c 24 18	 mov	 ecx, DWORD PTR __$EHRec$[esp+36]
  00080	83 c4 04	 add	 esp, 4
  00083	89 5e 04	 mov	 DWORD PTR [esi+4], ebx
  00086	89 5e 08	 mov	 DWORD PTR [esi+8], ebx
  00089	5f		 pop	 edi
  0008a	5e		 pop	 esi
  0008b	5b		 pop	 ebx
  0008c	64 89 0d 00 00
	00 00		 mov	 DWORD PTR fs:__except_list, ecx
  00093	83 c4 14	 add	 esp, 20			; 00000014H
  00096	c3		 ret	 0
_TEXT	ENDS
;	COMDAT text$x
text$x	SEGMENT
$L241518:
  00000	8b 4d ec	 mov	 ecx, DWORD PTR _this$[ebp]
  00003	83 c1 04	 add	 ecx, 4
  00006	e9 00 00 00 00	 jmp	 ??1?$map@EV?$vector@VCPoint@@V?$allocator@VCPoint@@@std@@@std@@U?$less@E@2@V?$allocator@U?$pair@$$CBEV?$vector@VCPoint@@V?$allocator@VCPoint@@@std@@@std@@@std@@@2@@std@@QAE@XZ
__ehhandler$??1CContinent@@UAE@XZ:
  0000b	b8 00 00 00 00	 mov	 eax, OFFSET FLAT:$T241841
  00010	e9 00 00 00 00	 jmp	 ___CxxFrameHandler
text$x	ENDS
??1CContinent@@UAE@XZ ENDP				; CContinent::~CContinent
PUBLIC	??_C@_0L@KFPAPNMN@WdMadrigal?$AA@		; `string'
PUBLIC	??_C@_06NGHBMAIH@World?2?$AA@			; `string'
PUBLIC	??_C@_08HEFLNCGE@?4wld?4cnt?$AA@		; `string'
PUBLIC	??_C@_01KICIPPFI@?2?$AA@			; `string'
PUBLIC	??_C@_09DLHPOJLJ@Continent?$AA@			; `string'
PUBLIC	??_C@_05ILMMJGEC@BEGIN?$AA@			; `string'
PUBLIC	??_C@_03JMGAKCCH@END?$AA@			; `string'
PUBLIC	??_C@_04PDHHGLID@C_id?$AA@			; `string'
PUBLIC	??_C@_06HPIMPLPK@VERTEX?$AA@			; `string'
PUBLIC	??_C@_04DADAHDDM@TOWN?$AA@			; `string'
PUBLIC	??_C@_0O@EGCOAAKO@C_useRealData?$AA@		; `string'
PUBLIC	?Init@CContinent@@AAEXXZ			; CContinent::Init
EXTRN	?GetNumber@CScanner@@QAEHH@Z:NEAR		; CScanner::GetNumber
EXTRN	?GetFloat@CScanner@@QAEMH@Z:NEAR		; CScanner::GetFloat
EXTRN	??0CScript@@QAE@H@Z:NEAR			; CScript::CScript
EXTRN	??1CScript@@UAE@XZ:NEAR				; CScript::~CScript
EXTRN	?Load@CScript@@QAEHPBDHH@Z:NEAR			; CScript::Load
EXTRN	?GetToken@CScript@@UAEHH@Z:NEAR			; CScript::GetToken
EXTRN	?MakePath@@YA?AV?$CStringT@DV?$StrTraitMFC@DV?$ChTraitsCRT@D@ATL@@@@@ATL@@PBD0@Z:NEAR ; MakePath
;	COMDAT xdata$x
; File c:\program files\microsoft visual studio .net 2003\vc7\include\xmemory
xdata$x	SEGMENT
$T242739 DD	0ffffffffH
	DD	FLAT:$L241866
	DD	00H
	DD	FLAT:$L241867
	DD	01H
	DD	FLAT:$L241868
	DD	02H
	DD	FLAT:$L241869
	DD	03H
	DD	FLAT:$L241870
	DD	04H
	DD	FLAT:$L241871
	DD	05H
	DD	FLAT:$L241872
	DD	06H
	DD	FLAT:$L241873
	DD	01H
	DD	FLAT:$L241873
	DD	08H
	DD	FLAT:$L241868
	DD	09H
	DD	FLAT:$L241869
	DD	0aH
	DD	FLAT:$L241870
	DD	0bH
	DD	FLAT:$L241871
	DD	08H
	DD	FLAT:$L241874
	DD	0dH
	DD	FLAT:$L241876
	DD	0eH
	DD	FLAT:$L241877
	DD	0dH
	DD	FLAT:$L241879
	DD	010H
	DD	FLAT:$L241880
$T242734 DD	019930520H
	DD	012H
	DD	FLAT:$T242739
	DD	2 DUP(00H)
	DD	2 DUP(00H)
xdata$x	ENDS
;	COMDAT ??_C@_0L@KFPAPNMN@WdMadrigal?$AA@
CONST	SEGMENT
??_C@_0L@KFPAPNMN@WdMadrigal?$AA@ DB 'WdMadrigal', 00H	; `string'
CONST	ENDS
;	COMDAT ??_C@_06NGHBMAIH@World?2?$AA@
CONST	SEGMENT
??_C@_06NGHBMAIH@World?2?$AA@ DB 'World\', 00H		; `string'
CONST	ENDS
;	COMDAT ??_C@_08HEFLNCGE@?4wld?4cnt?$AA@
CONST	SEGMENT
??_C@_08HEFLNCGE@?4wld?4cnt?$AA@ DB '.wld.cnt', 00H	; `string'
CONST	ENDS
;	COMDAT ??_C@_01KICIPPFI@?2?$AA@
CONST	SEGMENT
??_C@_01KICIPPFI@?2?$AA@ DB '\', 00H			; `string'
CONST	ENDS
;	COMDAT ??_C@_09DLHPOJLJ@Continent?$AA@
CONST	SEGMENT
??_C@_09DLHPOJLJ@Continent?$AA@ DB 'Continent', 00H	; `string'
CONST	ENDS
;	COMDAT ??_C@_05ILMMJGEC@BEGIN?$AA@
CONST	SEGMENT
??_C@_05ILMMJGEC@BEGIN?$AA@ DB 'BEGIN', 00H		; `string'
CONST	ENDS
;	COMDAT ??_C@_03JMGAKCCH@END?$AA@
CONST	SEGMENT
??_C@_03JMGAKCCH@END?$AA@ DB 'END', 00H			; `string'
CONST	ENDS
;	COMDAT ??_C@_04PDHHGLID@C_id?$AA@
CONST	SEGMENT
??_C@_04PDHHGLID@C_id?$AA@ DB 'C_id', 00H		; `string'
CONST	ENDS
;	COMDAT ??_C@_06HPIMPLPK@VERTEX?$AA@
CONST	SEGMENT
??_C@_06HPIMPLPK@VERTEX?$AA@ DB 'VERTEX', 00H		; `string'
CONST	ENDS
;	COMDAT ??_C@_04DADAHDDM@TOWN?$AA@
CONST	SEGMENT
??_C@_04DADAHDDM@TOWN?$AA@ DB 'TOWN', 00H		; `string'
CONST	ENDS
;	COMDAT ??_C@_0O@EGCOAAKO@C_useRealData?$AA@
CONST	SEGMENT
??_C@_0O@EGCOAAKO@C_useRealData?$AA@ DB 'C_useRealData', 00H ; `string'
; Function compile flags: /Ogty
; File c:\documents and settings\test\mes documents\source\virtuos_v17\build\program\_common\continent.cpp
CONST	ENDS
;	COMDAT ?Init@CContinent@@AAEXXZ
_TEXT	SEGMENT
_x$230704 = -3720					; size = 4
$T241857 = -3720					; size = 4
_bTown$ = -3716						; size = 4
_strDir$ = -3712					; size = 4
_vecMap$ = -3708					; size = 16
_strFullFileName$ = -3692				; size = 4
$T241851 = -3688					; size = 4
$T242732 = -3684					; size = 4
$T241854 = -3680					; size = 4
$T241853 = -3676					; size = 4
$T241850 = -3672					; size = 4
$T241852 = -3668					; size = 4
$T241865 = -3664					; size = 8
$T241861 = -3656					; size = 20
$T241856 = -3636					; size = 20
$T241863 = -3616					; size = 20
$T241858 = -3596					; size = 20
$T241864 = -3576					; size = 8
$T241859 = -3568					; size = 8
_script$ = -3560					; size = 3536
__$ArrayPad$ = -20					; size = 4
__$EHRec$ = -12						; size = 12
__$ReturnAddr$ = 4					; size = 4
?Init@CContinent@@AAEXXZ PROC NEAR			; CContinent::Init, COMDAT
; _this$ = ecx

; 28   : {

  00000	55		 push	 ebp
  00001	8b ec		 mov	 ebp, esp
  00003	83 e4 f8	 and	 esp, -8			; fffffff8H
  00006	6a ff		 push	 -1
  00008	68 00 00 00 00	 push	 __ehhandler$?Init@CContinent@@AAEXXZ
  0000d	64 a1 00 00 00
	00		 mov	 eax, DWORD PTR fs:__except_list
  00013	50		 push	 eax
  00014	64 89 25 00 00
	00 00		 mov	 DWORD PTR fs:__except_list, esp
  0001b	81 ec 80 0e 00
	00		 sub	 esp, 3712		; 00000e80H
  00021	a1 00 00 00 00	 mov	 eax, DWORD PTR ___security_cookie
  00026	53		 push	 ebx
  00027	56		 push	 esi
  00028	33 c5		 xor	 eax, ebp

; 29   : 	m_MapCont.clear();

  0002a	8d 71 04	 lea	 esi, DWORD PTR [ecx+4]
  0002d	89 84 24 80 0e
	00 00		 mov	 DWORD PTR __$ArrayPad$[esp+3732], eax
  00034	8b 46 04	 mov	 eax, DWORD PTR [esi+4]
  00037	89 4c 24 30	 mov	 DWORD PTR $T242732[esp+3732], ecx
  0003b	8b 48 04	 mov	 ecx, DWORD PTR [eax+4]
  0003e	57		 push	 edi
  0003f	51		 push	 ecx
  00040	8b ce		 mov	 ecx, esi
  00042	e8 00 00 00 00	 call	 ?_Erase@?$_Tree@V?$_Tmap_traits@EV?$vector@VCPoint@@V?$allocator@VCPoint@@@std@@@std@@U?$less@E@2@V?$allocator@U?$pair@$$CBEV?$vector@VCPoint@@V?$allocator@VCPoint@@@std@@@std@@@std@@@2@$0A@@std@@@std@@IAEXPAU_Node@?$_Tree_nod@V?$_Tmap_traits@EV?$vector@VCPoint@@V?$allocator@VCPoint@@@std@@@std@@U?$less@E@2@V?$allocator@U?$pair@$$CBEV?$vector@VCPoint@@V?$allocator@VCPoint@@@std@@@std@@@std@@@2@$0A@@std@@@2@@Z ; std::_Tree<std::_Tmap_traits<unsigned char,std::vector<CPoint,std::allocator<CPoint> >,std::less<unsigned char>,std::allocator<std::pair<unsigned char const ,std::vector<CPoint,std::allocator<CPoint> > > >,0> >::_Erase
  00047	8b 46 04	 mov	 eax, DWORD PTR [esi+4]
  0004a	89 40 04	 mov	 DWORD PTR [eax+4], eax
  0004d	8b 46 04	 mov	 eax, DWORD PTR [esi+4]
  00050	33 c9		 xor	 ecx, ecx
  00052	89 4e 08	 mov	 DWORD PTR [esi+8], ecx
  00055	89 00		 mov	 DWORD PTR [eax], eax
  00057	8b 46 04	 mov	 eax, DWORD PTR [esi+4]
  0005a	89 40 08	 mov	 DWORD PTR [eax+8], eax

; 30   : 	vector<CPoint> vecMap;

  0005d	89 4c 24 20	 mov	 DWORD PTR _vecMap$[esp+3740], ecx
  00061	89 4c 24 24	 mov	 DWORD PTR _vecMap$[esp+3744], ecx
  00065	89 4c 24 28	 mov	 DWORD PTR _vecMap$[esp+3748], ecx

; 31   : 
; 32   : 	//      ()    .
; 33   : 	const char* szWorldName = "WdMadrigal";				
; 34   : 	CString strDir = MakePath( DIR_WORLD, szWorldName );

  00069	68 00 00 00 00	 push	 OFFSET FLAT:??_C@_0L@KFPAPNMN@WdMadrigal?$AA@
  0006e	8d 54 24 1c	 lea	 edx, DWORD PTR _strDir$[esp+3740]
  00072	68 00 00 00 00	 push	 OFFSET FLAT:??_C@_06NGHBMAIH@World?2?$AA@
  00077	52		 push	 edx
  00078	89 8c 24 a0 0e
	00 00		 mov	 DWORD PTR __$EHRec$[esp+3756], ecx
  0007f	e8 00 00 00 00	 call	 ?MakePath@@YA?AV?$CStringT@DV?$StrTraitMFC@DV?$ChTraitsCRT@D@ATL@@@@@ATL@@PBD0@Z ; MakePath
  00084	83 c4 0c	 add	 esp, 12			; 0000000cH

; 35   : 	CString strFullFileName = strDir + CString( "\\" ) + CString(szWorldName) + CString(".wld.cnt");

  00087	68 00 00 00 00	 push	 OFFSET FLAT:??_C@_08HEFLNCGE@?4wld?4cnt?$AA@
  0008c	8d 4c 24 44	 lea	 ecx, DWORD PTR $T241850[esp+3740]
  00090	c6 84 24 98 0e
	00 00 01	 mov	 BYTE PTR __$EHRec$[esp+3748], 1
  00098	e8 00 00 00 00	 call	 ??0?$CStringT@DV?$StrTraitMFC@DV?$ChTraitsCRT@D@ATL@@@@@ATL@@QAE@PBD@Z ; ATL::CStringT<char,StrTraitMFC<char,ATL::ChTraitsCRT<char> > >::CStringT<char,StrTraitMFC<char,ATL::ChTraitsCRT<char> > >
  0009d	8b f8		 mov	 edi, eax
  0009f	68 00 00 00 00	 push	 OFFSET FLAT:??_C@_0L@KFPAPNMN@WdMadrigal?$AA@
  000a4	8d 4c 24 34	 lea	 ecx, DWORD PTR $T241851[esp+3740]
  000a8	c6 84 24 98 0e
	00 00 02	 mov	 BYTE PTR __$EHRec$[esp+3748], 2
  000b0	e8 00 00 00 00	 call	 ??0?$CStringT@DV?$StrTraitMFC@DV?$ChTraitsCRT@D@ATL@@@@@ATL@@QAE@PBD@Z ; ATL::CStringT<char,StrTraitMFC<char,ATL::ChTraitsCRT<char> > >::CStringT<char,StrTraitMFC<char,ATL::ChTraitsCRT<char> > >
  000b5	8b d8		 mov	 ebx, eax
  000b7	68 00 00 00 00	 push	 OFFSET FLAT:??_C@_01KICIPPFI@?2?$AA@
  000bc	8d 4c 24 48	 lea	 ecx, DWORD PTR $T241852[esp+3740]
  000c0	c6 84 24 98 0e
	00 00 03	 mov	 BYTE PTR __$EHRec$[esp+3748], 3
  000c8	e8 00 00 00 00	 call	 ??0?$CStringT@DV?$StrTraitMFC@DV?$ChTraitsCRT@D@ATL@@@@@ATL@@QAE@PBD@Z ; ATL::CStringT<char,StrTraitMFC<char,ATL::ChTraitsCRT<char> > >::CStringT<char,StrTraitMFC<char,ATL::ChTraitsCRT<char> > >
  000cd	50		 push	 eax
  000ce	8d 44 24 1c	 lea	 eax, DWORD PTR _strDir$[esp+3740]
  000d2	50		 push	 eax
  000d3	8d 4c 24 44	 lea	 ecx, DWORD PTR $T241853[esp+3744]
  000d7	51		 push	 ecx
  000d8	c6 84 24 a0 0e
	00 00 04	 mov	 BYTE PTR __$EHRec$[esp+3756], 4
  000e0	e8 00 00 00 00	 call	 ??HATL@@YA?AV?$CStringT@DV?$StrTraitMFC@DV?$ChTraitsCRT@D@ATL@@@@@0@ABV10@0@Z ; ATL::operator+
  000e5	53		 push	 ebx
  000e6	50		 push	 eax
  000e7	8d 54 24 4c	 lea	 edx, DWORD PTR $T241854[esp+3756]
  000eb	52		 push	 edx
  000ec	c6 84 24 ac 0e
	00 00 05	 mov	 BYTE PTR __$EHRec$[esp+3768], 5
  000f4	e8 00 00 00 00	 call	 ??HATL@@YA?AV?$CStringT@DV?$StrTraitMFC@DV?$ChTraitsCRT@D@ATL@@@@@0@ABV10@0@Z ; ATL::operator+
  000f9	57		 push	 edi
  000fa	50		 push	 eax
  000fb	8d 44 24 4c	 lea	 eax, DWORD PTR _strFullFileName$[esp+3768]
  000ff	50		 push	 eax
  00100	c6 84 24 b8 0e
	00 00 06	 mov	 BYTE PTR __$EHRec$[esp+3780], 6
  00108	e8 00 00 00 00	 call	 ??HATL@@YA?AV?$CStringT@DV?$StrTraitMFC@DV?$ChTraitsCRT@D@ATL@@@@@0@ABV10@0@Z ; ATL::operator+
  0010d	83 c4 24	 add	 esp, 36			; 00000024H
  00110	8b 44 24 38	 mov	 eax, DWORD PTR $T241854[esp+3736]
  00114	c6 84 24 94 0e
	00 00 0c	 mov	 BYTE PTR __$EHRec$[esp+3744], 12 ; 0000000cH
  0011c	83 c0 f0	 add	 eax, -16		; fffffff0H
  0011f	8d 48 0c	 lea	 ecx, DWORD PTR [eax+12]
  00122	83 ca ff	 or	 edx, -1
  00125	f0 0f c1 11	 lock	  xadd	 DWORD PTR [ecx], edx
  00129	4a		 dec	 edx
  0012a	85 d2		 test	 edx, edx
  0012c	7f 08		 jg	 SHORT $L242042
  0012e	8b 08		 mov	 ecx, DWORD PTR [eax]
  00130	8b 11		 mov	 edx, DWORD PTR [ecx]
  00132	50		 push	 eax
  00133	ff 52 04	 call	 DWORD PTR [edx+4]
$L242042:
  00136	8b 44 24 3c	 mov	 eax, DWORD PTR $T241853[esp+3736]
  0013a	83 c0 f0	 add	 eax, -16		; fffffff0H
  0013d	c6 84 24 94 0e
	00 00 0b	 mov	 BYTE PTR __$EHRec$[esp+3744], 11 ; 0000000bH
  00145	8d 48 0c	 lea	 ecx, DWORD PTR [eax+12]
  00148	83 ca ff	 or	 edx, -1
  0014b	f0 0f c1 11	 lock	  xadd	 DWORD PTR [ecx], edx
  0014f	4a		 dec	 edx
  00150	85 d2		 test	 edx, edx
  00152	7f 08		 jg	 SHORT $L242069
  00154	8b 08		 mov	 ecx, DWORD PTR [eax]
  00156	8b 11		 mov	 edx, DWORD PTR [ecx]
  00158	50		 push	 eax
  00159	ff 52 04	 call	 DWORD PTR [edx+4]
$L242069:
  0015c	8b 44 24 44	 mov	 eax, DWORD PTR $T241852[esp+3736]
  00160	83 c0 f0	 add	 eax, -16		; fffffff0H
  00163	c6 84 24 94 0e
	00 00 0a	 mov	 BYTE PTR __$EHRec$[esp+3744], 10 ; 0000000aH
  0016b	8d 48 0c	 lea	 ecx, DWORD PTR [eax+12]
  0016e	83 ca ff	 or	 edx, -1
  00171	f0 0f c1 11	 lock	  xadd	 DWORD PTR [ecx], edx
  00175	4a		 dec	 edx
  00176	85 d2		 test	 edx, edx
  00178	7f 08		 jg	 SHORT $L242096
  0017a	8b 08		 mov	 ecx, DWORD PTR [eax]
  0017c	8b 11		 mov	 edx, DWORD PTR [ecx]
  0017e	50		 push	 eax
  0017f	ff 52 04	 call	 DWORD PTR [edx+4]
$L242096:
  00182	8b 44 24 30	 mov	 eax, DWORD PTR $T241851[esp+3736]
  00186	83 c0 f0	 add	 eax, -16		; fffffff0H
  00189	c6 84 24 94 0e
	00 00 09	 mov	 BYTE PTR __$EHRec$[esp+3744], 9
  00191	8d 48 0c	 lea	 ecx, DWORD PTR [eax+12]
  00194	83 ca ff	 or	 edx, -1
  00197	f0 0f c1 11	 lock	  xadd	 DWORD PTR [ecx], edx
  0019b	4a		 dec	 edx
  0019c	85 d2		 test	 edx, edx
  0019e	7f 08		 jg	 SHORT $L242123
  001a0	8b 08		 mov	 ecx, DWORD PTR [eax]
  001a2	8b 11		 mov	 edx, DWORD PTR [ecx]
  001a4	50		 push	 eax
  001a5	ff 52 04	 call	 DWORD PTR [edx+4]
$L242123:
  001a8	8b 44 24 40	 mov	 eax, DWORD PTR $T241850[esp+3736]
  001ac	83 c0 f0	 add	 eax, -16		; fffffff0H
  001af	c6 84 24 94 0e
	00 00 08	 mov	 BYTE PTR __$EHRec$[esp+3744], 8
  001b7	8d 48 0c	 lea	 ecx, DWORD PTR [eax+12]
  001ba	83 ca ff	 or	 edx, -1
  001bd	f0 0f c1 11	 lock	  xadd	 DWORD PTR [ecx], edx
  001c1	4a		 dec	 edx
  001c2	85 d2		 test	 edx, edx
  001c4	7f 08		 jg	 SHORT $L242151
  001c6	8b 08		 mov	 ecx, DWORD PTR [eax]
  001c8	8b 11		 mov	 edx, DWORD PTR [ecx]
  001ca	50		 push	 eax
  001cb	ff 52 04	 call	 DWORD PTR [edx+4]
$L242151:

; 36   : 
; 37   : 	CScript script;

  001ce	33 ff		 xor	 edi, edi
  001d0	57		 push	 edi
  001d1	8d 8c 24 b4 00
	00 00		 lea	 ecx, DWORD PTR _script$[esp+3740]
  001d8	e8 00 00 00 00	 call	 ??0CScript@@QAE@H@Z	; CScript::CScript

; 38   : 	if( script.Load( strFullFileName ) == FALSE )

  001dd	8b 5c 24 2c	 mov	 ebx, DWORD PTR _strFullFileName$[esp+3736]
  001e1	57		 push	 edi
  001e2	6a 01		 push	 1
  001e4	53		 push	 ebx
  001e5	8d 8c 24 bc 00
	00 00		 lea	 ecx, DWORD PTR _script$[esp+3748]
  001ec	c6 84 24 a0 0e
	00 00 0d	 mov	 BYTE PTR __$EHRec$[esp+3756], 13 ; 0000000dH
  001f4	e8 00 00 00 00	 call	 ?Load@CScript@@QAEHPBDHH@Z ; CScript::Load
  001f9	85 c0		 test	 eax, eax
  001fb	75 65		 jne	 SHORT $L230477

; 39   : 		return;

  001fd	8d 8c 24 b0 00
	00 00		 lea	 ecx, DWORD PTR _script$[esp+3736]
  00204	c6 84 24 94 0e
	00 00 08	 mov	 BYTE PTR __$EHRec$[esp+3744], 8
  0020c	e8 00 00 00 00	 call	 ??1CScript@@UAE@XZ	; CScript::~CScript
  00211	8d 43 f0	 lea	 eax, DWORD PTR [ebx-16]
  00214	c6 84 24 94 0e
	00 00 01	 mov	 BYTE PTR __$EHRec$[esp+3744], 1
  0021c	8d 48 0c	 lea	 ecx, DWORD PTR [eax+12]
  0021f	83 ca ff	 or	 edx, -1
  00222	f0 0f c1 11	 lock	  xadd	 DWORD PTR [ecx], edx
  00226	4a		 dec	 edx
  00227	85 d2		 test	 edx, edx
  00229	7f 08		 jg	 SHORT $L242181
  0022b	8b 08		 mov	 ecx, DWORD PTR [eax]
  0022d	8b 11		 mov	 edx, DWORD PTR [ecx]
  0022f	50		 push	 eax
  00230	ff 52 04	 call	 DWORD PTR [edx+4]
$L242181:
  00233	8b 44 24 18	 mov	 eax, DWORD PTR _strDir$[esp+3736]
  00237	83 c0 f0	 add	 eax, -16		; fffffff0H
  0023a	c6 84 24 94 0e
	00 00 00	 mov	 BYTE PTR __$EHRec$[esp+3744], 0
  00242	8d 48 0c	 lea	 ecx, DWORD PTR [eax+12]
  00245	83 ca ff	 or	 edx, -1
  00248	f0 0f c1 11	 lock	  xadd	 DWORD PTR [ecx], edx
  0024c	4a		 dec	 edx
  0024d	85 d2		 test	 edx, edx
  0024f	0f 8f d0 03 00
	00		 jg	 $L242729
  00255	8b 08		 mov	 ecx, DWORD PTR [eax]
  00257	8b 11		 mov	 edx, DWORD PTR [ecx]
  00259	50		 push	 eax
  0025a	ff 52 04	 call	 DWORD PTR [edx+4]
  0025d	e9 c3 03 00 00	 jmp	 $L242729
$L230477:

; 40   : 
; 41   : 	int id = 0;

  00262	33 db		 xor	 ebx, ebx

; 42   : 	BOOL bTown = FALSE;

  00264	89 7c 24 14	 mov	 DWORD PTR _bTown$[esp+3736], edi
  00268	eb 06 8d 9b 00
	00 00 00	 npad	 8
$L230480:

; 43   : 
; 44   : 	do{
; 45   : 		script.GetToken( );

  00270	57		 push	 edi
  00271	8d 8c 24 b4 00
	00 00		 lea	 ecx, DWORD PTR _script$[esp+3740]
  00278	e8 00 00 00 00	 call	 ?GetToken@CScript@@UAEHH@Z ; CScript::GetToken

; 46   : 
; 47   : 		if( script.Token == _T( "Continent" ) )

  0027d	8b 84 24 d0 00
	00 00		 mov	 eax, DWORD PTR _script$[esp+3768]
  00284	68 00 00 00 00	 push	 OFFSET FLAT:??_C@_09DLHPOJLJ@Continent?$AA@
  00289	50		 push	 eax
  0028a	e8 00 00 00 00	 call	 __mbscmp
  0028f	83 c4 08	 add	 esp, 8
  00292	85 c0		 test	 eax, eax
  00294	0f 85 f0 01 00
	00		 jne	 $L230483

; 48   : 		{
; 49   : 			script.GetToken();

  0029a	57		 push	 edi
  0029b	8d 8c 24 b4 00
	00 00		 lea	 ecx, DWORD PTR _script$[esp+3740]
  002a2	e8 00 00 00 00	 call	 ?GetToken@CScript@@UAEHH@Z ; CScript::GetToken

; 50   : 			if( script.Token == _T( "BEGIN" ) )

  002a7	8b 8c 24 d0 00
	00 00		 mov	 ecx, DWORD PTR _script$[esp+3768]
  002ae	68 00 00 00 00	 push	 OFFSET FLAT:??_C@_05ILMMJGEC@BEGIN?$AA@
  002b3	51		 push	 ecx
  002b4	e8 00 00 00 00	 call	 __mbscmp
  002b9	83 c4 08	 add	 esp, 8
  002bc	85 c0		 test	 eax, eax
  002be	75 22		 jne	 SHORT $L230485

; 51   : 			{
; 52   : 				vecMap.clear( );

  002c0	8b 44 24 20	 mov	 eax, DWORD PTR _vecMap$[esp+3740]
  002c4	3b c7		 cmp	 eax, edi
  002c6	74 09		 je	 SHORT $L242292
  002c8	50		 push	 eax
  002c9	e8 00 00 00 00	 call	 ??3@YAXPAX@Z		; operator delete
  002ce	83 c4 04	 add	 esp, 4
$L242292:
  002d1	89 7c 24 20	 mov	 DWORD PTR _vecMap$[esp+3740], edi
  002d5	89 7c 24 24	 mov	 DWORD PTR _vecMap$[esp+3744], edi
  002d9	89 7c 24 28	 mov	 DWORD PTR _vecMap$[esp+3748], edi

; 53   : 			}
; 54   : 			else if( script.Token == _T( "END" ) )

  002dd	e9 c4 02 00 00	 jmp	 $L230720
$L230485:
  002e2	8b 94 24 d0 00
	00 00		 mov	 edx, DWORD PTR _script$[esp+3768]
  002e9	68 00 00 00 00	 push	 OFFSET FLAT:??_C@_03JMGAKCCH@END?$AA@
  002ee	52		 push	 edx
  002ef	e8 00 00 00 00	 call	 __mbscmp
  002f4	83 c4 08	 add	 esp, 8
  002f7	85 c0		 test	 eax, eax
  002f9	0f 85 a7 02 00
	00		 jne	 $L230720

; 55   : 			{
; 56   : 				if( !vecMap.empty() )

  002ff	8b 4c 24 20	 mov	 ecx, DWORD PTR _vecMap$[esp+3740]
  00303	3b cf		 cmp	 ecx, edi
  00305	74 17		 je	 SHORT $L230490
  00307	8b 44 24 24	 mov	 eax, DWORD PTR _vecMap$[esp+3744]
  0030b	2b c1		 sub	 eax, ecx
  0030d	c1 f8 03	 sar	 eax, 3
  00310	3b c7		 cmp	 eax, edi
  00312	74 0a		 je	 SHORT $L230490

; 57   : 					vecMap.push_back( vecMap[ 0 ] );

  00314	51		 push	 ecx
  00315	8d 4c 24 20	 lea	 ecx, DWORD PTR _vecMap$[esp+3740]
  00319	e8 00 00 00 00	 call	 ?push_back@?$vector@VCPoint@@V?$allocator@VCPoint@@@std@@@std@@QAEXABVCPoint@@@Z ; std::vector<CPoint,std::allocator<CPoint> >::push_back
$L230490:

; 58   : 
; 59   : 				pair< map< BYTE, vector<CPoint> >::iterator, BOOL > rst;
; 60   : 
; 61   : 				if( bTown )

  0031e	8b 44 24 14	 mov	 eax, DWORD PTR _bTown$[esp+3736]

; 62   : 					rst = m_MapContTown.insert( make_pair( id, vecMap ) );

  00322	83 ec 10	 sub	 esp, 16			; 00000010H
  00325	3b c7		 cmp	 eax, edi
  00327	89 64 24 20	 mov	 DWORD PTR $T241857[esp+3752], esp
  0032b	8b cc		 mov	 ecx, esp
  0032d	0f 84 ae 00 00
	00		 je	 $L230598
  00333	8d 44 24 2c	 lea	 eax, DWORD PTR _vecMap$[esp+3752]
  00337	50		 push	 eax
  00338	e8 00 00 00 00	 call	 ??0?$vector@VCPoint@@V?$allocator@VCPoint@@@std@@@std@@QAE@ABV01@@Z ; std::vector<CPoint,std::allocator<CPoint> >::vector<CPoint,std::allocator<CPoint> >
  0033d	8d 8c 24 9c 00
	00 00		 lea	 ecx, DWORD PTR $T241858[esp+3752]
  00344	53		 push	 ebx
  00345	51		 push	 ecx
  00346	e8 00 00 00 00	 call	 ??$make_pair@HV?$vector@VCPoint@@V?$allocator@VCPoint@@@std@@@std@@@std@@YA?AU?$pair@HV?$vector@VCPoint@@V?$allocator@VCPoint@@@std@@@std@@@0@HV?$vector@VCPoint@@V?$allocator@VCPoint@@@std@@@0@@Z ; std::make_pair<int,std::vector<CPoint,std::allocator<CPoint> > >
  0034b	83 c4 18	 add	 esp, 24			; 00000018H
  0034e	8a 10		 mov	 dl, BYTE PTR [eax]
  00350	83 c0 04	 add	 eax, 4
  00353	50		 push	 eax
  00354	8d 4c 24 6c	 lea	 ecx, DWORD PTR $T241856[esp+3744]
  00358	c6 84 24 98 0e
	00 00 0e	 mov	 BYTE PTR __$EHRec$[esp+3748], 14 ; 0000000eH
  00360	88 54 24 68	 mov	 BYTE PTR $T241856[esp+3740], dl
  00364	e8 00 00 00 00	 call	 ??0?$vector@VCPoint@@V?$allocator@VCPoint@@@std@@@std@@QAE@ABV01@@Z ; std::vector<CPoint,std::allocator<CPoint> >::vector<CPoint,std::allocator<CPoint> >
  00369	8d 44 24 64	 lea	 eax, DWORD PTR $T241856[esp+3736]
  0036d	50		 push	 eax
  0036e	8d 8c 24 ac 00
	00 00		 lea	 ecx, DWORD PTR $T241859[esp+3740]
  00375	51		 push	 ecx
  00376	8b 4c 24 3c	 mov	 ecx, DWORD PTR $T242732[esp+3744]
  0037a	83 c1 10	 add	 ecx, 16			; 00000010H
  0037d	c6 84 24 9c 0e
	00 00 0f	 mov	 BYTE PTR __$EHRec$[esp+3752], 15 ; 0000000fH
  00385	e8 00 00 00 00	 call	 ?insert@?$_Tree@V?$_Tmap_traits@EV?$vector@VCPoint@@V?$allocator@VCPoint@@@std@@@std@@U?$less@E@2@V?$allocator@U?$pair@$$CBEV?$vector@VCPoint@@V?$allocator@VCPoint@@@std@@@std@@@std@@@2@$0A@@std@@@std@@QAE?AU?$pair@Viterator@?$_Tree@V?$_Tmap_traits@EV?$vector@VCPoint@@V?$allocator@VCPoint@@@std@@@std@@U?$less@E@2@V?$allocator@U?$pair@$$CBEV?$vector@VCPoint@@V?$allocator@VCPoint@@@std@@@std@@@std@@@2@$0A@@std@@@std@@_N@2@ABU?$pair@$$CBEV?$vector@VCPoint@@V?$allocator@VCPoint@@@std@@@std@@@2@@Z ; std::_Tree<std::_Tmap_traits<unsigned char,std::vector<CPoint,std::allocator<CPoint> >,std::less<unsigned char>,std::allocator<std::pair<unsigned char const ,std::vector<CPoint,std::allocator<CPoint> > > >,0> >::insert
  0038a	8b 44 24 6c	 mov	 eax, DWORD PTR $T241856[esp+3744]
  0038e	3b c7		 cmp	 eax, edi
  00390	74 09		 je	 SHORT $L242440
  00392	50		 push	 eax
  00393	e8 00 00 00 00	 call	 ??3@YAXPAX@Z		; operator delete
  00398	83 c4 04	 add	 esp, 4
$L242440:
  0039b	8b 84 24 94 00
	00 00		 mov	 eax, DWORD PTR $T241858[esp+3744]
  003a2	3b c7		 cmp	 eax, edi
  003a4	89 7c 24 6c	 mov	 DWORD PTR $T241856[esp+3744], edi
  003a8	89 7c 24 70	 mov	 DWORD PTR $T241856[esp+3748], edi
  003ac	89 7c 24 74	 mov	 DWORD PTR $T241856[esp+3752], edi
  003b0	c6 84 24 94 0e
	00 00 0d	 mov	 BYTE PTR __$EHRec$[esp+3744], 13 ; 0000000dH
  003b8	74 09		 je	 SHORT $L242470
  003ba	50		 push	 eax
  003bb	e8 00 00 00 00	 call	 ??3@YAXPAX@Z		; operator delete
  003c0	83 c4 04	 add	 esp, 4
$L242470:
  003c3	89 bc 24 94 00
	00 00		 mov	 DWORD PTR $T241858[esp+3744], edi
  003ca	89 bc 24 98 00
	00 00		 mov	 DWORD PTR $T241858[esp+3748], edi
  003d1	89 bc 24 9c 00
	00 00		 mov	 DWORD PTR $T241858[esp+3752], edi

; 65   : 				
; 66   : 				bTown = FALSE;		//reset town

  003d8	89 7c 24 14	 mov	 DWORD PTR _bTown$[esp+3736], edi

; 67   : 
; 68   : 				assert( rst.second );
; 69   : 			}
; 70   : 		}
; 71   : 		else

  003dc	e9 c5 01 00 00	 jmp	 $L230720
$L230598:

; 63   : 				else					
; 64   : 					rst = m_MapCont.insert( make_pair( id, vecMap ) );

  003e1	8d 54 24 2c	 lea	 edx, DWORD PTR _vecMap$[esp+3752]
  003e5	52		 push	 edx
  003e6	e8 00 00 00 00	 call	 ??0?$vector@VCPoint@@V?$allocator@VCPoint@@@std@@@std@@QAE@ABV01@@Z ; std::vector<CPoint,std::allocator<CPoint> >::vector<CPoint,std::allocator<CPoint> >
  003eb	8d 84 24 88 00
	00 00		 lea	 eax, DWORD PTR $T241863[esp+3752]
  003f2	53		 push	 ebx
  003f3	50		 push	 eax
  003f4	e8 00 00 00 00	 call	 ??$make_pair@HV?$vector@VCPoint@@V?$allocator@VCPoint@@@std@@@std@@@std@@YA?AU?$pair@HV?$vector@VCPoint@@V?$allocator@VCPoint@@@std@@@std@@@0@HV?$vector@VCPoint@@V?$allocator@VCPoint@@@std@@@0@@Z ; std::make_pair<int,std::vector<CPoint,std::allocator<CPoint> > >
  003f9	83 c4 18	 add	 esp, 24			; 00000018H
  003fc	8a 08		 mov	 cl, BYTE PTR [eax]
  003fe	83 c0 04	 add	 eax, 4
  00401	88 4c 24 50	 mov	 BYTE PTR $T241861[esp+3736], cl
  00405	50		 push	 eax
  00406	8d 4c 24 58	 lea	 ecx, DWORD PTR $T241861[esp+3744]
  0040a	c6 84 24 98 0e
	00 00 10	 mov	 BYTE PTR __$EHRec$[esp+3748], 16 ; 00000010H
  00412	e8 00 00 00 00	 call	 ??0?$vector@VCPoint@@V?$allocator@VCPoint@@@std@@@std@@QAE@ABV01@@Z ; std::vector<CPoint,std::allocator<CPoint> >::vector<CPoint,std::allocator<CPoint> >
  00417	8d 54 24 50	 lea	 edx, DWORD PTR $T241861[esp+3736]
  0041b	52		 push	 edx
  0041c	8d 84 24 a4 00
	00 00		 lea	 eax, DWORD PTR $T241864[esp+3740]
  00423	50		 push	 eax
  00424	8b ce		 mov	 ecx, esi
  00426	c6 84 24 9c 0e
	00 00 11	 mov	 BYTE PTR __$EHRec$[esp+3752], 17 ; 00000011H
  0042e	e8 00 00 00 00	 call	 ?insert@?$_Tree@V?$_Tmap_traits@EV?$vector@VCPoint@@V?$allocator@VCPoint@@@std@@@std@@U?$less@E@2@V?$allocator@U?$pair@$$CBEV?$vector@VCPoint@@V?$allocator@VCPoint@@@std@@@std@@@std@@@2@$0A@@std@@@std@@QAE?AU?$pair@Viterator@?$_Tree@V?$_Tmap_traits@EV?$vector@VCPoint@@V?$allocator@VCPoint@@@std@@@std@@U?$less@E@2@V?$allocator@U?$pair@$$CBEV?$vector@VCPoint@@V?$allocator@VCPoint@@@std@@@std@@@std@@@2@$0A@@std@@@std@@_N@2@ABU?$pair@$$CBEV?$vector@VCPoint@@V?$allocator@VCPoint@@@std@@@std@@@2@@Z ; std::_Tree<std::_Tmap_traits<unsigned char,std::vector<CPoint,std::allocator<CPoint> >,std::less<unsigned char>,std::allocator<std::pair<unsigned char const ,std::vector<CPoint,std::allocator<CPoint> > > >,0> >::insert
  00433	8b 44 24 58	 mov	 eax, DWORD PTR $T241861[esp+3744]
  00437	3b c7		 cmp	 eax, edi
  00439	74 09		 je	 SHORT $L242509
  0043b	50		 push	 eax
  0043c	e8 00 00 00 00	 call	 ??3@YAXPAX@Z		; operator delete
  00441	83 c4 04	 add	 esp, 4
$L242509:
  00444	8b 84 24 80 00
	00 00		 mov	 eax, DWORD PTR $T241863[esp+3744]
  0044b	3b c7		 cmp	 eax, edi
  0044d	89 7c 24 58	 mov	 DWORD PTR $T241861[esp+3744], edi
  00451	89 7c 24 5c	 mov	 DWORD PTR $T241861[esp+3748], edi
  00455	89 7c 24 60	 mov	 DWORD PTR $T241861[esp+3752], edi
  00459	c6 84 24 94 0e
	00 00 0d	 mov	 BYTE PTR __$EHRec$[esp+3744], 13 ; 0000000dH
  00461	74 09		 je	 SHORT $L242539
  00463	50		 push	 eax
  00464	e8 00 00 00 00	 call	 ??3@YAXPAX@Z		; operator delete
  00469	83 c4 04	 add	 esp, 4
$L242539:
  0046c	89 bc 24 80 00
	00 00		 mov	 DWORD PTR $T241863[esp+3744], edi
  00473	89 bc 24 84 00
	00 00		 mov	 DWORD PTR $T241863[esp+3748], edi
  0047a	89 bc 24 88 00
	00 00		 mov	 DWORD PTR $T241863[esp+3752], edi

; 65   : 				
; 66   : 				bTown = FALSE;		//reset town

  00481	89 7c 24 14	 mov	 DWORD PTR _bTown$[esp+3736], edi

; 67   : 
; 68   : 				assert( rst.second );
; 69   : 			}
; 70   : 		}
; 71   : 		else

  00485	e9 1c 01 00 00	 jmp	 $L230720
$L230483:

; 72   : 		if( script.Token == _T( "C_id" ) )

  0048a	8b 8c 24 d0 00
	00 00		 mov	 ecx, DWORD PTR _script$[esp+3768]
  00491	68 00 00 00 00	 push	 OFFSET FLAT:??_C@_04PDHHGLID@C_id?$AA@
  00496	51		 push	 ecx
  00497	e8 00 00 00 00	 call	 __mbscmp
  0049c	83 c4 08	 add	 esp, 8
  0049f	85 c0		 test	 eax, eax
  004a1	75 14		 jne	 SHORT $L230699

; 73   : 		{
; 74   : 			id = script.GetNumber( );

  004a3	57		 push	 edi
  004a4	8d 8c 24 b4 00
	00 00		 lea	 ecx, DWORD PTR _script$[esp+3740]
  004ab	e8 00 00 00 00	 call	 ?GetNumber@CScanner@@QAEHH@Z ; CScanner::GetNumber
  004b0	8b d8		 mov	 ebx, eax

; 75   : 		}
; 76   : 		else

  004b2	e9 ef 00 00 00	 jmp	 $L230720
$L230699:

; 77   : 		if( script.Token == _T( "VERTEX" ) )

  004b7	8b 94 24 d0 00
	00 00		 mov	 edx, DWORD PTR _script$[esp+3768]
  004be	68 00 00 00 00	 push	 OFFSET FLAT:??_C@_06HPIMPLPK@VERTEX?$AA@
  004c3	52		 push	 edx
  004c4	e8 00 00 00 00	 call	 __mbscmp
  004c9	83 c4 08	 add	 esp, 8
  004cc	85 c0		 test	 eax, eax
  004ce	75 56		 jne	 SHORT $L230702

; 78   : 		{
; 79   : 			float x = script.GetFloat();

  004d0	57		 push	 edi
  004d1	8d 8c 24 b4 00
	00 00		 lea	 ecx, DWORD PTR _script$[esp+3740]
  004d8	e8 00 00 00 00	 call	 ?GetFloat@CScanner@@QAEMH@Z ; CScanner::GetFloat
  004dd	d9 5c 24 10	 fstp	 DWORD PTR _x$230704[esp+3736]

; 80   : 			float y = script.GetFloat();

  004e1	57		 push	 edi
  004e2	8d 8c 24 b4 00
	00 00		 lea	 ecx, DWORD PTR _script$[esp+3740]
  004e9	e8 00 00 00 00	 call	 ?GetFloat@CScanner@@QAEMH@Z ; CScanner::GetFloat
  004ee	dd d8		 fstp	 ST(0)

; 81   : 			float z = script.GetFloat();

  004f0	57		 push	 edi
  004f1	8d 8c 24 b4 00
	00 00		 lea	 ecx, DWORD PTR _script$[esp+3740]
  004f8	e8 00 00 00 00	 call	 ?GetFloat@CScanner@@QAEMH@Z ; CScanner::GetFloat

; 82   : 			vecMap.push_back( CPoint( (int)( x ), (int)( z ) ) );

  004fd	d9 44 24 10	 fld	 DWORD PTR _x$230704[esp+3736]
  00501	e8 00 00 00 00	 call	 __ftol2
  00506	89 44 24 48	 mov	 DWORD PTR $T241865[esp+3736], eax
  0050a	e8 00 00 00 00	 call	 __ftol2
  0050f	89 44 24 4c	 mov	 DWORD PTR $T241865[esp+3740], eax
  00513	8d 44 24 48	 lea	 eax, DWORD PTR $T241865[esp+3736]
  00517	50		 push	 eax
  00518	8d 4c 24 20	 lea	 ecx, DWORD PTR _vecMap$[esp+3740]
  0051c	e8 00 00 00 00	 call	 ?push_back@?$vector@VCPoint@@V?$allocator@VCPoint@@@std@@@std@@QAEXABVCPoint@@@Z ; std::vector<CPoint,std::allocator<CPoint> >::push_back

; 83   : 		}	
; 84   : 		else

  00521	e9 80 00 00 00	 jmp	 $L230720
$L230702:

; 85   : 		if( script.Token == _T( "TOWN" ) )

  00526	8b 8c 24 d0 00
	00 00		 mov	 ecx, DWORD PTR _script$[esp+3768]
  0052d	68 00 00 00 00	 push	 OFFSET FLAT:??_C@_04DADAHDDM@TOWN?$AA@
  00532	51		 push	 ecx
  00533	e8 00 00 00 00	 call	 __mbscmp
  00538	83 c4 08	 add	 esp, 8
  0053b	85 c0		 test	 eax, eax
  0053d	75 13		 jne	 SHORT $L230711

; 86   : 		{
; 87   : 			bTown = script.GetNumber();

  0053f	57		 push	 edi
  00540	8d 8c 24 b4 00
	00 00		 lea	 ecx, DWORD PTR _script$[esp+3740]
  00547	e8 00 00 00 00	 call	 ?GetNumber@CScanner@@QAEHH@Z ; CScanner::GetNumber
  0054c	89 44 24 14	 mov	 DWORD PTR _bTown$[esp+3736], eax

; 88   : 		}
; 89   : 		else 

  00550	eb 54		 jmp	 SHORT $L230720
$L230711:

; 90   : 		if( script.Token == _T( "C_useRealData" ) )

  00552	8b 94 24 d0 00
	00 00		 mov	 edx, DWORD PTR _script$[esp+3768]
  00559	68 00 00 00 00	 push	 OFFSET FLAT:??_C@_0O@EGCOAAKO@C_useRealData?$AA@
  0055e	52		 push	 edx
  0055f	e8 00 00 00 00	 call	 __mbscmp
  00564	83 c4 08	 add	 esp, 8
  00567	85 c0		 test	 eax, eax
  00569	75 3b		 jne	 SHORT $L230720

; 91   : 		{
; 92   : 			BOOL bReal = script.GetNumber( );

  0056b	57		 push	 edi
  0056c	8d 8c 24 b4 00
	00 00		 lea	 ecx, DWORD PTR _script$[esp+3740]
  00573	e8 00 00 00 00	 call	 ?GetNumber@CScanner@@QAEHH@Z ; CScanner::GetNumber

; 93   : 			if( !bReal )

  00578	3b c7		 cmp	 eax, edi
  0057a	75 2a		 jne	 SHORT $L230720
  0057c	8d 64 24 00	 npad	 4
$L230718:

; 94   : 			{
; 95   : 				//   .      .
; 96   : 				do{
; 97   : 					script.GetToken( );

  00580	57		 push	 edi
  00581	8d 8c 24 b4 00
	00 00		 lea	 ecx, DWORD PTR _script$[esp+3740]
  00588	e8 00 00 00 00	 call	 ?GetToken@CScript@@UAEHH@Z ; CScript::GetToken

; 98   : 				}while( script.Token != "END" );		// pass 

  0058d	8b 84 24 d0 00
	00 00		 mov	 eax, DWORD PTR _script$[esp+3768]
  00594	68 00 00 00 00	 push	 OFFSET FLAT:??_C@_03JMGAKCCH@END?$AA@
  00599	50		 push	 eax
  0059a	e8 00 00 00 00	 call	 __mbscmp
  0059f	83 c4 08	 add	 esp, 8
  005a2	85 c0		 test	 eax, eax
  005a4	75 da		 jne	 SHORT $L230718
$L230720:

; 99   : 			}
; 100  : 		} 
; 101  : 	}
; 102  : 	while( script.tok != FINISHED );

  005a6	83 bc 24 dc 08
	00 00 15	 cmp	 DWORD PTR _script$[esp+5828], 21 ; 00000015H
  005ae	0f 85 bc fc ff
	ff		 jne	 $L230480

; 103  : }

  005b4	8d 8c 24 b0 00
	00 00		 lea	 ecx, DWORD PTR _script$[esp+3736]
  005bb	c6 84 24 94 0e
	00 00 08	 mov	 BYTE PTR __$EHRec$[esp+3744], 8
  005c3	e8 00 00 00 00	 call	 ??1CScript@@UAE@XZ	; CScript::~CScript
  005c8	8b 44 24 2c	 mov	 eax, DWORD PTR _strFullFileName$[esp+3736]
  005cc	83 c0 f0	 add	 eax, -16		; fffffff0H
  005cf	c6 84 24 94 0e
	00 00 01	 mov	 BYTE PTR __$EHRec$[esp+3744], 1
  005d7	8d 48 0c	 lea	 ecx, DWORD PTR [eax+12]
  005da	83 ca ff	 or	 edx, -1
  005dd	f0 0f c1 11	 lock	  xadd	 DWORD PTR [ecx], edx
  005e1	4a		 dec	 edx
  005e2	85 d2		 test	 edx, edx
  005e4	7f 08		 jg	 SHORT $L242684
  005e6	8b 08		 mov	 ecx, DWORD PTR [eax]
  005e8	8b 11		 mov	 edx, DWORD PTR [ecx]
  005ea	50		 push	 eax
  005eb	ff 52 04	 call	 DWORD PTR [edx+4]
$L242684:
  005ee	8b 44 24 18	 mov	 eax, DWORD PTR _strDir$[esp+3736]
  005f2	83 c0 f0	 add	 eax, -16		; fffffff0H
  005f5	c6 84 24 94 0e
	00 00 00	 mov	 BYTE PTR __$EHRec$[esp+3744], 0
  005fd	8d 48 0c	 lea	 ecx, DWORD PTR [eax+12]
  00600	83 ca ff	 or	 edx, -1
  00603	f0 0f c1 11	 lock	  xadd	 DWORD PTR [ecx], edx
  00607	4a		 dec	 edx
  00608	85 d2		 test	 edx, edx
  0060a	7f 08		 jg	 SHORT $L242707
  0060c	8b 08		 mov	 ecx, DWORD PTR [eax]
  0060e	8b 11		 mov	 edx, DWORD PTR [ecx]
  00610	50		 push	 eax
  00611	ff 52 04	 call	 DWORD PTR [edx+4]
$L242707:
  00614	8b 44 24 20	 mov	 eax, DWORD PTR _vecMap$[esp+3740]
  00618	3b c7		 cmp	 eax, edi
  0061a	74 09		 je	 SHORT $L242729
  0061c	50		 push	 eax
  0061d	e8 00 00 00 00	 call	 ??3@YAXPAX@Z		; operator delete
  00622	83 c4 04	 add	 esp, 4
$L242729:
  00625	8b 8c 24 8c 0e
	00 00		 mov	 ecx, DWORD PTR __$EHRec$[esp+3736]
  0062c	64 89 0d 00 00
	00 00		 mov	 DWORD PTR fs:__except_list, ecx
  00633	8b 8c 24 84 0e
	00 00		 mov	 ecx, DWORD PTR __$ArrayPad$[esp+3736]
  0063a	5f		 pop	 edi
  0063b	5e		 pop	 esi
  0063c	33 cd		 xor	 ecx, ebp
  0063e	5b		 pop	 ebx
  0063f	e8 00 00 00 00	 call	 @__security_check_cookie@4
  00644	8b e5		 mov	 esp, ebp
  00646	5d		 pop	 ebp
  00647	c3		 ret	 0
_TEXT	ENDS
;	COMDAT text$x
text$x	SEGMENT
$L241866:
  00000	8d 8d 84 f1 ff
	ff		 lea	 ecx, DWORD PTR _vecMap$[ebp]
  00006	e9 00 00 00 00	 jmp	 ??1?$vector@VCPoint@@V?$allocator@VCPoint@@@std@@@std@@QAE@XZ ; std::vector<CPoint,std::allocator<CPoint> >::~vector<CPoint,std::allocator<CPoint> >
$L241867:
  0000b	8d 8d 80 f1 ff
	ff		 lea	 ecx, DWORD PTR _strDir$[ebp]
  00011	e9 00 00 00 00	 jmp	 ??1?$CStringT@DV?$StrTraitMFC@DV?$ChTraitsCRT@D@ATL@@@@@ATL@@QAE@XZ ; ATL::CStringT<char,StrTraitMFC<char,ATL::ChTraitsCRT<char> > >::~CStringT<char,StrTraitMFC<char,ATL::ChTraitsCRT<char> > >
$L241868:
  00016	8d 8d a8 f1 ff
	ff		 lea	 ecx, DWORD PTR $T241850[ebp]
  0001c	e9 00 00 00 00	 jmp	 ??1?$CStringT@DV?$StrTraitMFC@DV?$ChTraitsCRT@D@ATL@@@@@ATL@@QAE@XZ ; ATL::CStringT<char,StrTraitMFC<char,ATL::ChTraitsCRT<char> > >::~CStringT<char,StrTraitMFC<char,ATL::ChTraitsCRT<char> > >
$L241869:
  00021	8d 8d 98 f1 ff
	ff		 lea	 ecx, DWORD PTR $T241851[ebp]
  00027	e9 00 00 00 00	 jmp	 ??1?$CStringT@DV?$StrTraitMFC@DV?$ChTraitsCRT@D@ATL@@@@@ATL@@QAE@XZ ; ATL::CStringT<char,StrTraitMFC<char,ATL::ChTraitsCRT<char> > >::~CStringT<char,StrTraitMFC<char,ATL::ChTraitsCRT<char> > >
$L241870:
  0002c	8d 8d ac f1 ff
	ff		 lea	 ecx, DWORD PTR $T241852[ebp]
  00032	e9 00 00 00 00	 jmp	 ??1?$CStringT@DV?$StrTraitMFC@DV?$ChTraitsCRT@D@ATL@@@@@ATL@@QAE@XZ ; ATL::CStringT<char,StrTraitMFC<char,ATL::ChTraitsCRT<char> > >::~CStringT<char,StrTraitMFC<char,ATL::ChTraitsCRT<char> > >
$L241871:
  00037	8d 8d a4 f1 ff
	ff		 lea	 ecx, DWORD PTR $T241853[ebp]
  0003d	e9 00 00 00 00	 jmp	 ??1?$CStringT@DV?$StrTraitMFC@DV?$ChTraitsCRT@D@ATL@@@@@ATL@@QAE@XZ ; ATL::CStringT<char,StrTraitMFC<char,ATL::ChTraitsCRT<char> > >::~CStringT<char,StrTraitMFC<char,ATL::ChTraitsCRT<char> > >
$L241872:
  00042	8d 8d a0 f1 ff
	ff		 lea	 ecx, DWORD PTR $T241854[ebp]
  00048	e9 00 00 00 00	 jmp	 ??1?$CStringT@DV?$StrTraitMFC@DV?$ChTraitsCRT@D@ATL@@@@@ATL@@QAE@XZ ; ATL::CStringT<char,StrTraitMFC<char,ATL::ChTraitsCRT<char> > >::~CStringT<char,StrTraitMFC<char,ATL::ChTraitsCRT<char> > >
$L241873:
  0004d	8d 8d 94 f1 ff
	ff		 lea	 ecx, DWORD PTR _strFullFileName$[ebp]
  00053	e9 00 00 00 00	 jmp	 ??1?$CStringT@DV?$StrTraitMFC@DV?$ChTraitsCRT@D@ATL@@@@@ATL@@QAE@XZ ; ATL::CStringT<char,StrTraitMFC<char,ATL::ChTraitsCRT<char> > >::~CStringT<char,StrTraitMFC<char,ATL::ChTraitsCRT<char> > >
$L241874:
  00058	8d 8d 18 f2 ff
	ff		 lea	 ecx, DWORD PTR _script$[ebp]
  0005e	e9 00 00 00 00	 jmp	 ??1CScript@@UAE@XZ	; CScript::~CScript
$L241876:
  00063	8d 8d f4 f1 ff
	ff		 lea	 ecx, DWORD PTR $T241858[ebp]
  00069	e9 00 00 00 00	 jmp	 ??1?$pair@HV?$vector@VCPoint@@V?$allocator@VCPoint@@@std@@@std@@@std@@QAE@XZ
$L241877:
  0006e	8d 8d cc f1 ff
	ff		 lea	 ecx, DWORD PTR $T241856[ebp]
  00074	e9 00 00 00 00	 jmp	 ??1?$pair@$$CBEV?$vector@VCPoint@@V?$allocator@VCPoint@@@std@@@std@@@std@@QAE@XZ
$L241879:
  00079	8d 8d e0 f1 ff
	ff		 lea	 ecx, DWORD PTR $T241863[ebp]
  0007f	e9 00 00 00 00	 jmp	 ??1?$pair@HV?$vector@VCPoint@@V?$allocator@VCPoint@@@std@@@std@@@std@@QAE@XZ
$L241880:
  00084	8d 8d b8 f1 ff
	ff		 lea	 ecx, DWORD PTR $T241861[ebp]
  0008a	e9 00 00 00 00	 jmp	 ??1?$pair@$$CBEV?$vector@VCPoint@@V?$allocator@VCPoint@@@std@@@std@@@std@@QAE@XZ
__ehhandler$?Init@CContinent@@AAEXXZ:
  0008f	b8 00 00 00 00	 mov	 eax, OFFSET FLAT:$T242734
  00094	e9 00 00 00 00	 jmp	 ___CxxFrameHandler
text$x	ENDS
?Init@CContinent@@AAEXXZ ENDP				; CContinent::Init
PUBLIC	??0?$map@EV?$vector@VCPoint@@V?$allocator@VCPoint@@@std@@@std@@U?$less@E@2@V?$allocator@U?$pair@$$CBEV?$vector@VCPoint@@V?$allocator@VCPoint@@@std@@@std@@@std@@@2@@std@@QAE@XZ ; std::map<unsigned char,std::vector<CPoint,std::allocator<CPoint> >,std::less<unsigned char>,std::allocator<std::pair<unsigned char const ,std::vector<CPoint,std::allocator<CPoint> > > > >::map<unsigned char,std::vector<CPoint,std::allocator<CPoint> >,std::less<unsigned char>,std::allocator<std::pair<unsigned char const ,std::vector<CPoint,std::allocator<CPoint> > > > >
; Function compile flags: /Ogty
; File c:\program files\microsoft visual studio .net 2003\vc7\include\map
;	COMDAT ??0?$map@EV?$vector@VCPoint@@V?$allocator@VCPoint@@@std@@@std@@U?$less@E@2@V?$allocator@U?$pair@$$CBEV?$vector@VCPoint@@V?$allocator@VCPoint@@@std@@@std@@@std@@@2@@std@@QAE@XZ
_TEXT	SEGMENT
??0?$map@EV?$vector@VCPoint@@V?$allocator@VCPoint@@@std@@@std@@U?$less@E@2@V?$allocator@U?$pair@$$CBEV?$vector@VCPoint@@V?$allocator@VCPoint@@@std@@@std@@@std@@@2@@std@@QAE@XZ PROC NEAR ; std::map<unsigned char,std::vector<CPoint,std::allocator<CPoint> >,std::less<unsigned char>,std::allocator<std::pair<unsigned char const ,std::vector<CPoint,std::allocator<CPoint> > > > >::map<unsigned char,std::vector<CPoint,std::allocator<CPoint> >,std::less<unsigned char>,std::allocator<std::pair<unsigned char const ,std::vector<CPoint,std::allocator<CPoint> > > > >, COMDAT
; _this$ = ecx

; 102  : 		{	// construct empty map from defaults

  00000	56		 push	 esi
  00001	8b f1		 mov	 esi, ecx
  00003	e8 00 00 00 00	 call	 ?_Buynode@?$_Tree@V?$_Tmap_traits@EV?$vector@VCPoint@@V?$allocator@VCPoint@@@std@@@std@@U?$less@E@2@V?$allocator@U?$pair@$$CBEV?$vector@VCPoint@@V?$allocator@VCPoint@@@std@@@std@@@std@@@2@$0A@@std@@@std@@IAEPAU_Node@?$_Tree_nod@V?$_Tmap_traits@EV?$vector@VCPoint@@V?$allocator@VCPoint@@@std@@@std@@U?$less@E@2@V?$allocator@U?$pair@$$CBEV?$vector@VCPoint@@V?$allocator@VCPoint@@@std@@@std@@@std@@@2@$0A@@std@@@2@XZ ; std::_Tree<std::_Tmap_traits<unsigned char,std::vector<CPoint,std::allocator<CPoint> >,std::less<unsigned char>,std::allocator<std::pair<unsigned char const ,std::vector<CPoint,std::allocator<CPoint> > > >,0> >::_Buynode
  00008	89 46 04	 mov	 DWORD PTR [esi+4], eax
  0000b	c6 40 21 01	 mov	 BYTE PTR [eax+33], 1
  0000f	8b 46 04	 mov	 eax, DWORD PTR [esi+4]
  00012	89 40 04	 mov	 DWORD PTR [eax+4], eax
  00015	8b 46 04	 mov	 eax, DWORD PTR [esi+4]
  00018	89 00		 mov	 DWORD PTR [eax], eax
  0001a	8b 46 04	 mov	 eax, DWORD PTR [esi+4]
  0001d	89 40 08	 mov	 DWORD PTR [eax+8], eax
  00020	c7 46 08 00 00
	00 00		 mov	 DWORD PTR [esi+8], 0

; 103  : 		}

  00027	8b c6		 mov	 eax, esi
  00029	5e		 pop	 esi
  0002a	c3		 ret	 0
??0?$map@EV?$vector@VCPoint@@V?$allocator@VCPoint@@@std@@@std@@U?$less@E@2@V?$allocator@U?$pair@$$CBEV?$vector@VCPoint@@V?$allocator@VCPoint@@@std@@@std@@@std@@@2@@std@@QAE@XZ ENDP ; std::map<unsigned char,std::vector<CPoint,std::allocator<CPoint> >,std::less<unsigned char>,std::allocator<std::pair<unsigned char const ,std::vector<CPoint,std::allocator<CPoint> > > > >::map<unsigned char,std::vector<CPoint,std::allocator<CPoint> >,std::less<unsigned char>,std::allocator<std::pair<unsigned char const ,std::vector<CPoint,std::allocator<CPoint> > > > >
_TEXT	ENDS
PUBLIC	??0CContinent@@QAE@XZ				; CContinent::CContinent
;	COMDAT xdata$x
; File c:\program files\microsoft visual studio .net 2003\vc7\include\xtree
xdata$x	SEGMENT
$T243345 DD	0ffffffffH
	DD	FLAT:$L242912
	DD	00H
	DD	FLAT:$L242913
$T243343 DD	019930520H
	DD	02H
	DD	FLAT:$T243345
	DD	2 DUP(00H)
	DD	2 DUP(00H)
; Function compile flags: /Ogty
; File c:\documents and settings\test\mes documents\source\virtuos_v17\build\program\_common\continent.cpp
xdata$x	ENDS
;	COMDAT ??0CContinent@@QAE@XZ
_TEXT	SEGMENT
_this$ = -16						; size = 4
__$EHRec$ = -12						; size = 12
??0CContinent@@QAE@XZ PROC NEAR				; CContinent::CContinent, COMDAT
; _this$ = ecx

; 12   : {

  00000	6a ff		 push	 -1
  00002	68 00 00 00 00	 push	 __ehhandler$??0CContinent@@QAE@XZ
  00007	64 a1 00 00 00
	00		 mov	 eax, DWORD PTR fs:__except_list
  0000d	50		 push	 eax
  0000e	64 89 25 00 00
	00 00		 mov	 DWORD PTR fs:__except_list, esp
  00015	51		 push	 ecx
  00016	56		 push	 esi
  00017	57		 push	 edi
  00018	8b f9		 mov	 edi, ecx
  0001a	8d 77 04	 lea	 esi, DWORD PTR [edi+4]
  0001d	8b ce		 mov	 ecx, esi
  0001f	89 7c 24 08	 mov	 DWORD PTR _this$[esp+24], edi
  00023	c7 07 00 00 00
	00		 mov	 DWORD PTR [edi], OFFSET FLAT:??_7CContinent@@6B@
  00029	e8 00 00 00 00	 call	 ?_Buynode@?$_Tree@V?$_Tmap_traits@EV?$vector@VCPoint@@V?$allocator@VCPoint@@@std@@@std@@U?$less@E@2@V?$allocator@U?$pair@$$CBEV?$vector@VCPoint@@V?$allocator@VCPoint@@@std@@@std@@@std@@@2@$0A@@std@@@std@@IAEPAU_Node@?$_Tree_nod@V?$_Tmap_traits@EV?$vector@VCPoint@@V?$allocator@VCPoint@@@std@@@std@@U?$less@E@2@V?$allocator@U?$pair@$$CBEV?$vector@VCPoint@@V?$allocator@VCPoint@@@std@@@std@@@std@@@2@$0A@@std@@@2@XZ ; std::_Tree<std::_Tmap_traits<unsigned char,std::vector<CPoint,std::allocator<CPoint> >,std::less<unsigned char>,std::allocator<std::pair<unsigned char const ,std::vector<CPoint,std::allocator<CPoint> > > >,0> >::_Buynode
  0002e	89 46 04	 mov	 DWORD PTR [esi+4], eax
  00031	c6 40 21 01	 mov	 BYTE PTR [eax+33], 1
  00035	8b 46 04	 mov	 eax, DWORD PTR [esi+4]
  00038	89 40 04	 mov	 DWORD PTR [eax+4], eax
  0003b	8b 46 04	 mov	 eax, DWORD PTR [esi+4]
  0003e	89 00		 mov	 DWORD PTR [eax], eax
  00040	8b 46 04	 mov	 eax, DWORD PTR [esi+4]
  00043	89 40 08	 mov	 DWORD PTR [eax+8], eax
  00046	c7 46 08 00 00
	00 00		 mov	 DWORD PTR [esi+8], 0
  0004d	8d 77 10	 lea	 esi, DWORD PTR [edi+16]
  00050	8b ce		 mov	 ecx, esi
  00052	c7 44 24 14 00
	00 00 00	 mov	 DWORD PTR __$EHRec$[esp+32], 0
  0005a	e8 00 00 00 00	 call	 ?_Buynode@?$_Tree@V?$_Tmap_traits@EV?$vector@VCPoint@@V?$allocator@VCPoint@@@std@@@std@@U?$less@E@2@V?$allocator@U?$pair@$$CBEV?$vector@VCPoint@@V?$allocator@VCPoint@@@std@@@std@@@std@@@2@$0A@@std@@@std@@IAEPAU_Node@?$_Tree_nod@V?$_Tmap_traits@EV?$vector@VCPoint@@V?$allocator@VCPoint@@@std@@@std@@U?$less@E@2@V?$allocator@U?$pair@$$CBEV?$vector@VCPoint@@V?$allocator@VCPoint@@@std@@@std@@@std@@@2@$0A@@std@@@2@XZ ; std::_Tree<std::_Tmap_traits<unsigned char,std::vector<CPoint,std::allocator<CPoint> >,std::less<unsigned char>,std::allocator<std::pair<unsigned char const ,std::vector<CPoint,std::allocator<CPoint> > > >,0> >::_Buynode
  0005f	89 46 04	 mov	 DWORD PTR [esi+4], eax
  00062	c6 40 21 01	 mov	 BYTE PTR [eax+33], 1
  00066	8b 46 04	 mov	 eax, DWORD PTR [esi+4]
  00069	89 40 04	 mov	 DWORD PTR [eax+4], eax
  0006c	8b 46 04	 mov	 eax, DWORD PTR [esi+4]
  0006f	89 00		 mov	 DWORD PTR [eax], eax
  00071	8b 46 04	 mov	 eax, DWORD PTR [esi+4]
  00074	89 40 08	 mov	 DWORD PTR [eax+8], eax
  00077	c7 46 08 00 00
	00 00		 mov	 DWORD PTR [esi+8], 0

; 13   : 	Init();

  0007e	8b cf		 mov	 ecx, edi
  00080	c6 44 24 14 01	 mov	 BYTE PTR __$EHRec$[esp+32], 1
  00085	e8 00 00 00 00	 call	 ?Init@CContinent@@AAEXXZ ; CContinent::Init

; 14   : }

  0008a	8b 4c 24 0c	 mov	 ecx, DWORD PTR __$EHRec$[esp+24]
  0008e	8b c7		 mov	 eax, edi
  00090	5f		 pop	 edi
  00091	5e		 pop	 esi
  00092	64 89 0d 00 00
	00 00		 mov	 DWORD PTR fs:__except_list, ecx
  00099	83 c4 10	 add	 esp, 16			; 00000010H
  0009c	c3		 ret	 0
_TEXT	ENDS
;	COMDAT text$x
text$x	SEGMENT
$L242912:
  00000	8b 4d f0	 mov	 ecx, DWORD PTR _this$[ebp]
  00003	83 c1 04	 add	 ecx, 4
  00006	e9 00 00 00 00	 jmp	 ??1?$map@EV?$vector@VCPoint@@V?$allocator@VCPoint@@@std@@@std@@U?$less@E@2@V?$allocator@U?$pair@$$CBEV?$vector@VCPoint@@V?$allocator@VCPoint@@@std@@@std@@@std@@@2@@std@@QAE@XZ
$L242913:
  0000b	8b 4d f0	 mov	 ecx, DWORD PTR _this$[ebp]
  0000e	83 c1 10	 add	 ecx, 16			; 00000010H
  00011	e9 00 00 00 00	 jmp	 ??1?$map@EV?$vector@VCPoint@@V?$allocator@VCPoint@@@std@@@std@@U?$less@E@2@V?$allocator@U?$pair@$$CBEV?$vector@VCPoint@@V?$allocator@VCPoint@@@std@@@std@@@std@@@2@@std@@QAE@XZ
__ehhandler$??0CContinent@@QAE@XZ:
  00016	b8 00 00 00 00	 mov	 eax, OFFSET FLAT:$T243343
  0001b	e9 00 00 00 00	 jmp	 ___CxxFrameHandler
text$x	ENDS
??0CContinent@@QAE@XZ ENDP				; CContinent::CContinent
; Function compile flags: /Ogty
;	COMDAT ??_GCContinent@@UAEPAXI@Z
_TEXT	SEGMENT
___flags$ = 8						; size = 4
??_GCContinent@@UAEPAXI@Z PROC NEAR			; CContinent::`scalar deleting destructor', COMDAT
; _this$ = ecx
  00000	56		 push	 esi
  00001	8b f1		 mov	 esi, ecx
  00003	e8 00 00 00 00	 call	 ??1CContinent@@UAE@XZ	; CContinent::~CContinent
  00008	f6 44 24 08 01	 test	 BYTE PTR ___flags$[esp], 1
  0000d	74 09		 je	 SHORT $L243351
  0000f	56		 push	 esi
  00010	e8 00 00 00 00	 call	 ??3@YAXPAX@Z		; operator delete
  00015	83 c4 04	 add	 esp, 4
$L243351:
  00018	8b c6		 mov	 eax, esi
  0001a	5e		 pop	 esi
  0001b	c2 04 00	 ret	 4
??_GCContinent@@UAEPAXI@Z ENDP				; CContinent::`scalar deleting destructor'
_TEXT	ENDS
PUBLIC	?GetInstance@CContinent@@SAPAV1@XZ		; CContinent::GetInstance
EXTRN	_atexit:NEAR
;	COMDAT ?sContinent@?1??GetInstance@CContinent@@SAPAV2@XZ@4V2@A
_BSS	SEGMENT
?sContinent@?1??GetInstance@CContinent@@SAPAV2@XZ@4V2@A DB 01cH DUP (?) ; `CContinent::GetInstance'::`2'::sContinent
_BSS	ENDS
;	COMDAT ?$S1@?1??GetInstance@CContinent@@SAPAV2@XZ@4IA
_BSS	SEGMENT
?$S1@?1??GetInstance@CContinent@@SAPAV2@XZ@4IA DD 01H DUP (?) ; `CContinent::GetInstance'::`2'::$S1
_BSS	ENDS
;	COMDAT xdata$x
xdata$x	SEGMENT
$T243360 DD	0ffffffffH
	DD	FLAT:$L243355
$T243357 DD	019930520H
	DD	01H
	DD	FLAT:$T243360
	DD	2 DUP(00H)
	DD	2 DUP(00H)
; Function compile flags: /Ogty
xdata$x	ENDS
;	COMDAT ?GetInstance@CContinent@@SAPAV1@XZ
_TEXT	SEGMENT
__$EHRec$ = -12						; size = 12
?GetInstance@CContinent@@SAPAV1@XZ PROC NEAR		; CContinent::GetInstance, COMDAT

; 22   : {

  00000	64 a1 00 00 00
	00		 mov	 eax, DWORD PTR fs:__except_list

; 23   : 	static CContinent sContinent;

  00006	8a 0d 00 00 00
	00		 mov	 cl, BYTE PTR ?$S1@?1??GetInstance@CContinent@@SAPAV2@XZ@4IA
  0000c	6a ff		 push	 -1
  0000e	68 00 00 00 00	 push	 __ehhandler$?GetInstance@CContinent@@SAPAV1@XZ
  00013	50		 push	 eax
  00014	b8 01 00 00 00	 mov	 eax, 1
  00019	84 c8		 test	 cl, al
  0001b	64 89 25 00 00
	00 00		 mov	 DWORD PTR fs:__except_list, esp
  00022	75 25		 jne	 SHORT $L243358
  00024	09 05 00 00 00
	00		 or	 DWORD PTR ?$S1@?1??GetInstance@CContinent@@SAPAV2@XZ@4IA, eax
  0002a	b9 00 00 00 00	 mov	 ecx, OFFSET FLAT:?sContinent@?1??GetInstance@CContinent@@SAPAV2@XZ@4V2@A
  0002f	c7 44 24 08 00
	00 00 00	 mov	 DWORD PTR __$EHRec$[esp+20], 0
  00037	e8 00 00 00 00	 call	 ??0CContinent@@QAE@XZ	; CContinent::CContinent
  0003c	68 00 00 00 00	 push	 OFFSET FLAT:_$E2
  00041	e8 00 00 00 00	 call	 _atexit
  00046	83 c4 04	 add	 esp, 4
$L243358:

; 24   : 	return &sContinent;	
; 25   : }

  00049	8b 0c 24	 mov	 ecx, DWORD PTR __$EHRec$[esp+12]
  0004c	b8 00 00 00 00	 mov	 eax, OFFSET FLAT:?sContinent@?1??GetInstance@CContinent@@SAPAV2@XZ@4V2@A
  00051	64 89 0d 00 00
	00 00		 mov	 DWORD PTR fs:__except_list, ecx
  00058	83 c4 0c	 add	 esp, 12			; 0000000cH
  0005b	c3		 ret	 0
_TEXT	ENDS
;	COMDAT text$x
text$x	SEGMENT
$L243355:
  00000	a1 00 00 00 00	 mov	 eax, DWORD PTR ?$S1@?1??GetInstance@CContinent@@SAPAV2@XZ@4IA
  00005	83 e0 fe	 and	 eax, -2			; fffffffeH
  00008	a3 00 00 00 00	 mov	 DWORD PTR ?$S1@?1??GetInstance@CContinent@@SAPAV2@XZ@4IA, eax
  0000d	c3		 ret	 0
__ehhandler$?GetInstance@CContinent@@SAPAV1@XZ:
  0000e	b8 00 00 00 00	 mov	 eax, OFFSET FLAT:$T243357
  00013	e9 00 00 00 00	 jmp	 ___CxxFrameHandler
text$x	ENDS
?GetInstance@CContinent@@SAPAV1@XZ ENDP			; CContinent::GetInstance
; Function compile flags: /Ogty
;	COMDAT _$E2
text$yd	SEGMENT
_$E2	PROC NEAR					; COMDAT
  00000	b9 00 00 00 00	 mov	 ecx, OFFSET FLAT:?sContinent@?1??GetInstance@CContinent@@SAPAV2@XZ@4V2@A
  00005	e9 00 00 00 00	 jmp	 ??1CContinent@@UAE@XZ	; CContinent::~CContinent
_$E2	ENDP
text$yd	ENDS
END
