; Listing generated by Microsoft (R) Optimizing Compiler Version 13.10.6030 

	TITLE	.\couplehelper.cpp
	.386P
include listing.inc
if @Version gt 510
.model FLAT
else
_TEXT	SEGMENT PARA USE32 PUBLIC 'CODE'
_TEXT	ENDS
_DATA	SEGMENT DWORD USE32 PUBLIC 'DATA'
_DATA	ENDS
CONST	SEGMENT DWORD USE32 PUBLIC 'CONST'
CONST	ENDS
_BSS	SEGMENT DWORD USE32 PUBLIC 'BSS'
_BSS	ENDS
$$SYMBOLS	SEGMENT BYTE USE32 'DEBSYM'
$$SYMBOLS	ENDS
$$TYPES	SEGMENT BYTE USE32 'DEBTYP'
$$TYPES	ENDS
_TLS	SEGMENT DWORD USE32 PUBLIC 'TLS'
_TLS	ENDS
;	COMDAT ??_C@_0BC@MOGJFHKK@tr1?3?3bad_weak_ptr?$AA@
CONST	SEGMENT DWORD USE32 PUBLIC 'CONST'
CONST	ENDS
;	COMDAT ??_C@_0BP@GPFHEIL@S?3?5CCoupleHelper?4OnPropose?3?5?$CFs?$AA@
CONST	SEGMENT DWORD USE32 PUBLIC 'CONST'
CONST	ENDS
;	COMDAT ??_C@_02DKCKIIND@?$CFs?$AA@
CONST	SEGMENT DWORD USE32 PUBLIC 'CONST'
CONST	ENDS
;	COMDAT ??_C@_0DB@LJFAIJCA@S?3?5CCoupleHelper?4OnProposeResult@
CONST	SEGMENT DWORD USE32 PUBLIC 'CONST'
CONST	ENDS
;	COMDAT ??_C@_0BK@HCCAGLJM@S?3?5CCoupleHelper?4OnRefuse?$AA@
CONST	SEGMENT DWORD USE32 PUBLIC 'CONST'
CONST	ENDS
;	COMDAT ??_C@_0BK@BFPGCGKN@S?3?5CCoupleHelper?4OnCouple?$AA@
CONST	SEGMENT DWORD USE32 PUBLIC 'CONST'
CONST	ENDS
;	COMDAT ??_C@_0CM@GDLPIJML@S?3?5CCoupleHelper?4OnCoupleResult?3@
CONST	SEGMENT DWORD USE32 PUBLIC 'CONST'
CONST	ENDS
;	COMDAT ??_C@_0BM@JJPLMFOM@S?3?5CCoupleHelper?4OnDecouple?$AA@
CONST	SEGMENT DWORD USE32 PUBLIC 'CONST'
CONST	ENDS
;	COMDAT ??_C@_0CK@FFJBDECI@S?3?5CCoupleHelper?4OnDecoupleResul@
CONST	SEGMENT DWORD USE32 PUBLIC 'CONST'
CONST	ENDS
text$yd	SEGMENT PARA USE32 PUBLIC 'CODE'
text$yd	ENDS
xdata$x	SEGMENT DWORD USE32 PUBLIC 'CONST'
xdata$x	ENDS
text$AFX_COL1	SEGMENT PARA USE32 PUBLIC ''
text$AFX_COL1	ENDS
;	COMDAT ??1ITestCase@@UAE@XZ
_TEXT	SEGMENT PARA USE32 PUBLIC 'CODE'
_TEXT	ENDS
;	COMDAT ??_GITestCase@@UAEPAXI@Z
_TEXT	SEGMENT PARA USE32 PUBLIC 'CODE'
_TEXT	ENDS
;	COMDAT ??_GCTestCaseMgr@@UAEPAXI@Z
_TEXT	SEGMENT PARA USE32 PUBLIC 'CODE'
_TEXT	ENDS
;	COMDAT ??1CCoupleTestCase@@UAE@XZ
_TEXT	SEGMENT PARA USE32 PUBLIC 'CODE'
_TEXT	ENDS
;	COMDAT ??_GCCoupleTestCase@@UAEPAXI@Z
_TEXT	SEGMENT PARA USE32 PUBLIC 'CODE'
_TEXT	ENDS
;	COMDAT ??1CCouple@@UAE@XZ
_TEXT	SEGMENT PARA USE32 PUBLIC 'CODE'
_TEXT	ENDS
;	COMDAT ?GetFirst@CCouple@@QAEKXZ
_TEXT	SEGMENT PARA USE32 PUBLIC 'CODE'
_TEXT	ENDS
;	COMDAT ?GetSecond@CCouple@@QAEKXZ
_TEXT	SEGMENT PARA USE32 PUBLIC 'CODE'
_TEXT	ENDS
;	COMDAT ??_GCCouple@@UAEPAXI@Z
_TEXT	SEGMENT PARA USE32 PUBLIC 'CODE'
_TEXT	ENDS
;	COMDAT ?GetCouple@CCoupleHelper@@QAEPAVCCouple@@K@Z
_TEXT	SEGMENT PARA USE32 PUBLIC 'CODE'
_TEXT	ENDS
;	COMDAT ?SelectMemberClear@__GuildCombatMember@CGuildCombat@@QAEXXZ
_TEXT	SEGMENT PARA USE32 PUBLIC 'CODE'
_TEXT	ENDS
;	COMDAT ??0__MINIGAME_PACKET@@QAE@GHHH@Z
_TEXT	SEGMENT PARA USE32 PUBLIC 'CODE'
_TEXT	ENDS
;	COMDAT ?Serialize@__MINIGAME_PACKET@@UAEXAAVCAr@@@Z
_TEXT	SEGMENT PARA USE32 PUBLIC 'CODE'
_TEXT	ENDS
;	COMDAT ?Serialize@__MINIGAME_EXT_PACKET@@UAEXAAVCAr@@@Z
_TEXT	SEGMENT PARA USE32 PUBLIC 'CODE'
_TEXT	ENDS
;	COMDAT ??0MINIGMAME_PRIZE_LIST@CRainbowRaceMng@@QAE@KHK@Z
_TEXT	SEGMENT PARA USE32 PUBLIC 'CODE'
_TEXT	ENDS
;	COMDAT ?RemovePlayerId2CampusId@CCampusMng@@QAEXK@Z
_TEXT	SEGMENT PARA USE32 PUBLIC 'CODE'
_TEXT	ENDS
;	COMDAT ?SetProposer@CUser@@QAEXK@Z
_TEXT	SEGMENT PARA USE32 PUBLIC 'CODE'
_TEXT	ENDS
;	COMDAT ?GetProposer@CUser@@QAEKXZ
_TEXT	SEGMENT PARA USE32 PUBLIC 'CODE'
_TEXT	ENDS
;	COMDAT ?GetPacketSize@CBuffer2@@UAEKPAE@Z
_TEXT	SEGMENT PARA USE32 PUBLIC 'CODE'
_TEXT	ENDS
;	COMDAT ?SetHeader@CBuffer2@@UAEXK@Z
_TEXT	SEGMENT PARA USE32 PUBLIC 'CODE'
_TEXT	ENDS
;	COMDAT ??_GCBuffer2@@UAEPAXI@Z
_TEXT	SEGMENT PARA USE32 PUBLIC 'CODE'
_TEXT	ENDS
;	COMDAT ??1CBuffer2@@UAE@XZ
_TEXT	SEGMENT PARA USE32 PUBLIC 'CODE'
_TEXT	ENDS
;	COMDAT ?IsEmpty@CBufferQueue@@QAEHXZ
_TEXT	SEGMENT PARA USE32 PUBLIC 'CODE'
_TEXT	ENDS
;	COMDAT ??1CMapChild@@UAE@XZ
_TEXT	SEGMENT PARA USE32 PUBLIC 'CODE'
_TEXT	ENDS
;	COMDAT ??_GCMapChild@@UAEPAXI@Z
_TEXT	SEGMENT PARA USE32 PUBLIC 'CODE'
_TEXT	ENDS
;	COMDAT ??1?$map@KPAVCClientSock@@U?$less@K@std@@V?$allocator@U?$pair@$$CBKPAVCClientSock@@@std@@@3@@std@@QAE@XZ
_TEXT	SEGMENT PARA USE32 PUBLIC 'CODE'
_TEXT	ENDS
;	COMDAT ??1CMapChildE@@UAE@XZ
_TEXT	SEGMENT PARA USE32 PUBLIC 'CODE'
_TEXT	ENDS
;	COMDAT ??_GCMapChildE@@UAEPAXI@Z
_TEXT	SEGMENT PARA USE32 PUBLIC 'CODE'
_TEXT	ENDS
;	COMDAT ??1?$map@KPAVCClientSockE@@U?$less@K@std@@V?$allocator@U?$pair@$$CBKPAVCClientSockE@@@std@@@3@@std@@QAE@XZ
_TEXT	SEGMENT PARA USE32 PUBLIC 'CODE'
_TEXT	ENDS
;	COMDAT ?GetRecvHandle@CDPSock@@QAEPAXXZ
_TEXT	SEGMENT PARA USE32 PUBLIC 'CODE'
_TEXT	ENDS
;	COMDAT ?what@bad_weak_ptr@boost@@UBEPBDXZ
_TEXT	SEGMENT PARA USE32 PUBLIC 'CODE'
_TEXT	ENDS
;	COMDAT ??1sp_counted_base@detail@boost@@UAE@XZ
_TEXT	SEGMENT PARA USE32 PUBLIC 'CODE'
_TEXT	ENDS
;	COMDAT ?destroy@sp_counted_base@detail@boost@@UAEXXZ
_TEXT	SEGMENT PARA USE32 PUBLIC 'CODE'
_TEXT	ENDS
;	COMDAT ?add_ref_copy@sp_counted_base@detail@boost@@QAEXXZ
_TEXT	SEGMENT PARA USE32 PUBLIC 'CODE'
_TEXT	ENDS
;	COMDAT ?add_ref_lock@sp_counted_base@detail@boost@@QAE_NXZ
_TEXT	SEGMENT PARA USE32 PUBLIC 'CODE'
_TEXT	ENDS
;	COMDAT ?release@sp_counted_base@detail@boost@@QAEXXZ
_TEXT	SEGMENT PARA USE32 PUBLIC 'CODE'
_TEXT	ENDS
;	COMDAT ?weak_add_ref@sp_counted_base@detail@boost@@QAEXXZ
_TEXT	SEGMENT PARA USE32 PUBLIC 'CODE'
_TEXT	ENDS
;	COMDAT ?weak_release@sp_counted_base@detail@boost@@QAEXXZ
_TEXT	SEGMENT PARA USE32 PUBLIC 'CODE'
_TEXT	ENDS
;	COMDAT ?use_count@sp_counted_base@detail@boost@@QBEJXZ
_TEXT	SEGMENT PARA USE32 PUBLIC 'CODE'
_TEXT	ENDS
;	COMDAT ??_Gsp_counted_base@detail@boost@@UAEPAXI@Z
_TEXT	SEGMENT PARA USE32 PUBLIC 'CODE'
_TEXT	ENDS
;	COMDAT ?use_count@shared_count@detail@boost@@QBEJXZ
_TEXT	SEGMENT PARA USE32 PUBLIC 'CODE'
_TEXT	ENDS
;	COMDAT ??0bad_weak_ptr@boost@@QAE@XZ
_TEXT	SEGMENT PARA USE32 PUBLIC 'CODE'
_TEXT	ENDS
;	COMDAT ??1bad_weak_ptr@boost@@UAE@XZ
_TEXT	SEGMENT PARA USE32 PUBLIC 'CODE'
_TEXT	ENDS
;	COMDAT ??_Gbad_weak_ptr@boost@@UAEPAXI@Z
_TEXT	SEGMENT PARA USE32 PUBLIC 'CODE'
_TEXT	ENDS
;	COMDAT ?GetCooltime@CLordSkillComponent@@QAEHXZ
_TEXT	SEGMENT PARA USE32 PUBLIC 'CODE'
_TEXT	ENDS
;	COMDAT ?SetTick@CLordSkillComponent@@QAEXH@Z
_TEXT	SEGMENT PARA USE32 PUBLIC 'CODE'
_TEXT	ENDS
;	COMDAT ??1CLordSkillComponentExecutable@@UAE@XZ
_TEXT	SEGMENT PARA USE32 PUBLIC 'CODE'
_TEXT	ENDS
;	COMDAT ?Use@CLordSkillComponentExecutable@@IAEXXZ
_TEXT	SEGMENT PARA USE32 PUBLIC 'CODE'
_TEXT	ENDS
;	COMDAT ?Execute@CLordSkillComponentExecutable@@UAEXKKPAX@Z
_TEXT	SEGMENT PARA USE32 PUBLIC 'CODE'
_TEXT	ENDS
;	COMDAT ??_GCLordSkillComponentExecutable@@UAEPAXI@Z
_TEXT	SEGMENT PARA USE32 PUBLIC 'CODE'
_TEXT	ENDS
;	COMDAT ?GetDeposit@CCandidate@@QBE_JXZ
_TEXT	SEGMENT PARA USE32 PUBLIC 'CODE'
_TEXT	ENDS
;	COMDAT ?GetVote@CCandidate@@QAEHXZ
_TEXT	SEGMENT PARA USE32 PUBLIC 'CODE'
_TEXT	ENDS
;	COMDAT ?GetCreate@CCandidate@@QAEJXZ
_TEXT	SEGMENT PARA USE32 PUBLIC 'CODE'
_TEXT	ENDS
;	COMDAT ?Init@HonorData@@QAEXXZ
_TEXT	SEGMENT PARA USE32 PUBLIC 'CODE'
_TEXT	ENDS
;	COMDAT ??0CCoupleHelper@@AAE@XZ
_TEXT	SEGMENT PARA USE32 PUBLIC 'CODE'
_TEXT	ENDS
;	COMDAT ??_GCCoupleHelper@@UAEPAXI@Z
_TEXT	SEGMENT PARA USE32 PUBLIC 'CODE'
_TEXT	ENDS
;	COMDAT ??1CCoupleHelper@@UAE@XZ
_TEXT	SEGMENT PARA USE32 PUBLIC 'CODE'
_TEXT	ENDS
;	COMDAT ?Clear@CCoupleHelper@@QAEXXZ
_TEXT	SEGMENT PARA USE32 PUBLIC 'CODE'
_TEXT	ENDS
;	COMDAT ?Instance@CCoupleHelper@@SAPAV1@XZ
_TEXT	SEGMENT PARA USE32 PUBLIC 'CODE'
_TEXT	ENDS
;	COMDAT _$E2
text$yd	SEGMENT PARA USE32 PUBLIC 'CODE'
text$yd	ENDS
;	COMDAT ?Initialize@CCoupleHelper@@QAEHPAVCDPDatabaseClient@@PAVCDPSrvr@@@Z
_TEXT	SEGMENT PARA USE32 PUBLIC 'CODE'
_TEXT	ENDS
;	COMDAT ?OnPropose@CCoupleHelper@@QAEXPAVCUser@@PBD@Z
_TEXT	SEGMENT PARA USE32 PUBLIC 'CODE'
_TEXT	ENDS
;	COMDAT ?PlayProposeAnimation@CCoupleHelper@@AAEXPAVCUser@@0@Z
_TEXT	SEGMENT PARA USE32 PUBLIC 'CODE'
_TEXT	ENDS
;	COMDAT ?OnProposeResult@CCoupleHelper@@QAEXAAVCAr@@@Z
_TEXT	SEGMENT PARA USE32 PUBLIC 'CODE'
_TEXT	ENDS
;	COMDAT ?OnRefuse@CCoupleHelper@@QAEXPAVCUser@@@Z
_TEXT	SEGMENT PARA USE32 PUBLIC 'CODE'
_TEXT	ENDS
;	COMDAT ?OnCouple@CCoupleHelper@@QAEXPAVCUser@@@Z
_TEXT	SEGMENT PARA USE32 PUBLIC 'CODE'
_TEXT	ENDS
;	COMDAT ?OnCoupleResult@CCoupleHelper@@QAEXAAVCAr@@@Z
_TEXT	SEGMENT PARA USE32 PUBLIC 'CODE'
_TEXT	ENDS
;	COMDAT ?OnDecouple@CCoupleHelper@@QAEXPAVCUser@@@Z
_TEXT	SEGMENT PARA USE32 PUBLIC 'CODE'
_TEXT	ENDS
;	COMDAT ?OnDecoupleResult@CCoupleHelper@@QAEXAAVCAr@@@Z
_TEXT	SEGMENT PARA USE32 PUBLIC 'CODE'
_TEXT	ENDS
;	COMDAT ?OnAddCoupleExperience@CCoupleHelper@@QAEXAAVCAr@@@Z
_TEXT	SEGMENT PARA USE32 PUBLIC 'CODE'
_TEXT	ENDS
;	COMDAT ?OnUpdatePlayerData@CCoupleHelper@@QAEXKPAU_PlayerData@@@Z
_TEXT	SEGMENT PARA USE32 PUBLIC 'CODE'
_TEXT	ENDS
;	COMDAT ?compare@?$basic_string@DU?$char_traits@D@std@@V?$allocator@D@2@@std@@QBEHABV12@@Z
_TEXT	SEGMENT PARA USE32 PUBLIC 'CODE'
_TEXT	ENDS
;	COMDAT ?IsFull@?$CStack@K@@QAEHXZ
_TEXT	SEGMENT PARA USE32 PUBLIC 'CODE'
_TEXT	ENDS
;	COMDAT ??A?$map@KPAVCCtrl@@U?$less@K@std@@V?$allocator@U?$pair@$$CBKPAVCCtrl@@@std@@@3@@std@@QAEAAPAVCCtrl@@ABK@Z
_TEXT	SEGMENT PARA USE32 PUBLIC 'CODE'
_TEXT	ENDS
;	COMDAT ??0?$pair@KPAVCCtrl@@@std@@QAE@ABKABQAVCCtrl@@@Z
_TEXT	SEGMENT PARA USE32 PUBLIC 'CODE'
_TEXT	ENDS
;	COMDAT ?GetMax@?$CItemContainer@VCItemElem@@@@QAEHXZ
_TEXT	SEGMENT PARA USE32 PUBLIC 'CODE'
_TEXT	ENDS
;	COMDAT ??0?$deque@PAUtagACTMSG@@V?$allocator@PAUtagACTMSG@@@std@@@std@@QAE@XZ
_TEXT	SEGMENT PARA USE32 PUBLIC 'CODE'
_TEXT	ENDS
;	COMDAT ??1?$deque@PAUtagACTMSG@@V?$allocator@PAUtagACTMSG@@@std@@@std@@QAE@XZ
_TEXT	SEGMENT PARA USE32 PUBLIC 'CODE'
_TEXT	ENDS
;	COMDAT ?begin@?$deque@PAUtagACTMSG@@V?$allocator@PAUtagACTMSG@@@std@@@std@@QAE?AViterator@12@XZ
_TEXT	SEGMENT PARA USE32 PUBLIC 'CODE'
_TEXT	ENDS
;	COMDAT ?end@?$deque@PAUtagACTMSG@@V?$allocator@PAUtagACTMSG@@@std@@@std@@QAE?AViterator@12@XZ
_TEXT	SEGMENT PARA USE32 PUBLIC 'CODE'
_TEXT	ENDS
;	COMDAT ?empty@?$deque@PAUtagACTMSG@@V?$allocator@PAUtagACTMSG@@@std@@@std@@QBE_NXZ
_TEXT	SEGMENT PARA USE32 PUBLIC 'CODE'
_TEXT	ENDS
;	COMDAT ?clear@?$deque@PAUtagACTMSG@@V?$allocator@PAUtagACTMSG@@@std@@@std@@QAEXXZ
_TEXT	SEGMENT PARA USE32 PUBLIC 'CODE'
_TEXT	ENDS
;	COMDAT ??0?$deque@PAUtagMAGICATKMSG@@V?$allocator@PAUtagMAGICATKMSG@@@std@@@std@@QAE@XZ
_TEXT	SEGMENT PARA USE32 PUBLIC 'CODE'
_TEXT	ENDS
;	COMDAT ??1?$deque@PAUtagMAGICATKMSG@@V?$allocator@PAUtagMAGICATKMSG@@@std@@@std@@QAE@XZ
_TEXT	SEGMENT PARA USE32 PUBLIC 'CODE'
_TEXT	ENDS
;	COMDAT ?begin@?$deque@PAUtagMAGICATKMSG@@V?$allocator@PAUtagMAGICATKMSG@@@std@@@std@@QAE?AViterator@12@XZ
_TEXT	SEGMENT PARA USE32 PUBLIC 'CODE'
_TEXT	ENDS
;	COMDAT ?end@?$deque@PAUtagMAGICATKMSG@@V?$allocator@PAUtagMAGICATKMSG@@@std@@@std@@QAE?AViterator@12@XZ
_TEXT	SEGMENT PARA USE32 PUBLIC 'CODE'
_TEXT	ENDS
;	COMDAT ?empty@?$deque@PAUtagMAGICATKMSG@@V?$allocator@PAUtagMAGICATKMSG@@@std@@@std@@QBE_NXZ
_TEXT	SEGMENT PARA USE32 PUBLIC 'CODE'
_TEXT	ENDS
;	COMDAT ?clear@?$deque@PAUtagMAGICATKMSG@@V?$allocator@PAUtagMAGICATKMSG@@@std@@@std@@QAEXXZ
_TEXT	SEGMENT PARA USE32 PUBLIC 'CODE'
_TEXT	ENDS
;	COMDAT ??Diterator@?$deque@PAUtagACTMSG@@V?$allocator@PAUtagACTMSG@@@std@@@std@@QBEAAPAUtagACTMSG@@XZ
_TEXT	SEGMENT PARA USE32 PUBLIC 'CODE'
_TEXT	ENDS
;	COMDAT ??Eiterator@?$deque@PAUtagACTMSG@@V?$allocator@PAUtagACTMSG@@@std@@@std@@QAEAAV012@XZ
_TEXT	SEGMENT PARA USE32 PUBLIC 'CODE'
_TEXT	ENDS
;	COMDAT ??9const_iterator@?$deque@PAUtagACTMSG@@V?$allocator@PAUtagACTMSG@@@std@@@std@@QBE_NABV012@@Z
_TEXT	SEGMENT PARA USE32 PUBLIC 'CODE'
_TEXT	ENDS
;	COMDAT ??Diterator@?$deque@PAUtagMAGICATKMSG@@V?$allocator@PAUtagMAGICATKMSG@@@std@@@std@@QBEAAPAUtagMAGICATKMSG@@XZ
_TEXT	SEGMENT PARA USE32 PUBLIC 'CODE'
_TEXT	ENDS
;	COMDAT ??Eiterator@?$deque@PAUtagMAGICATKMSG@@V?$allocator@PAUtagMAGICATKMSG@@@std@@@std@@QAEAAV012@XZ
_TEXT	SEGMENT PARA USE32 PUBLIC 'CODE'
_TEXT	ENDS
;	COMDAT ??9const_iterator@?$deque@PAUtagMAGICATKMSG@@V?$allocator@PAUtagMAGICATKMSG@@@std@@@std@@QBE_NABV012@@Z
_TEXT	SEGMENT PARA USE32 PUBLIC 'CODE'
_TEXT	ENDS
;	COMDAT ??0?$vector@PAVITestCase@@V?$allocator@PAVITestCase@@@std@@@std@@QAE@XZ
_TEXT	SEGMENT PARA USE32 PUBLIC 'CODE'
_TEXT	ENDS
;	COMDAT ??1?$vector@PAVITestCase@@V?$allocator@PAVITestCase@@@std@@@std@@QAE@XZ
_TEXT	SEGMENT PARA USE32 PUBLIC 'CODE'
_TEXT	ENDS
;	COMDAT ?size@?$vector@PAVCCouple@@V?$allocator@PAVCCouple@@@std@@@std@@QBEIXZ
_TEXT	SEGMENT PARA USE32 PUBLIC 'CODE'
_TEXT	ENDS
;	COMDAT ?size@?$_Tree@V?$_Tmap_traits@KPAU_PlayerData@@U?$less@K@std@@V?$allocator@U?$pair@$$CBKPAU_PlayerData@@@std@@@3@$0A@@std@@@std@@QBEIXZ
_TEXT	SEGMENT PARA USE32 PUBLIC 'CODE'
_TEXT	ENDS
;	COMDAT ?erase@?$_Tree@V?$_Tmap_traits@KU_Friend@@U?$less@K@std@@V?$allocator@U?$pair@$$CBKU_Friend@@@std@@@3@$0A@@std@@@std@@QAEIABK@Z
_TEXT	SEGMENT PARA USE32 PUBLIC 'CODE'
_TEXT	ENDS
;	COMDAT ?size@?$_Tree@V?$_Tmap_traits@KPAVCGuildMember@@U?$less@K@std@@V?$allocator@U?$pair@$$CBKPAVCGuildMember@@@std@@@3@$0A@@std@@@std@@QBEIXZ
_TEXT	SEGMENT PARA USE32 PUBLIC 'CODE'
_TEXT	ENDS
;	COMDAT ?size@?$_Tree@V?$_Tmap_traits@KPAVCGuild@@U?$less@K@std@@V?$allocator@U?$pair@$$CBKPAVCGuild@@@std@@@3@$0A@@std@@@std@@QBEIXZ
_TEXT	SEGMENT PARA USE32 PUBLIC 'CODE'
_TEXT	ENDS
;	COMDAT ?size@?$vector@PAU__JOINPLAYER@CGuildCombat@@V?$allocator@PAU__JOINPLAYER@CGuildCombat@@@std@@@std@@QBEIXZ
_TEXT	SEGMENT PARA USE32 PUBLIC 'CODE'
_TEXT	ENDS
;	COMDAT ??A?$vector@PAU__JOINPLAYER@CGuildCombat@@V?$allocator@PAU__JOINPLAYER@CGuildCombat@@@std@@@std@@QAEAAPAU__JOINPLAYER@CGuildCombat@@I@Z
_TEXT	SEGMENT PARA USE32 PUBLIC 'CODE'
_TEXT	ENDS
;	COMDAT ?clear@?$vector@PAU__JOINPLAYER@CGuildCombat@@V?$allocator@PAU__JOINPLAYER@CGuildCombat@@@std@@@std@@QAEXXZ
_TEXT	SEGMENT PARA USE32 PUBLIC 'CODE'
_TEXT	ENDS
;	COMDAT ?clear@?$list@PAU__JOINPLAYER@CGuildCombat@@V?$allocator@PAU__JOINPLAYER@CGuildCombat@@@std@@@std@@QAEXXZ
_TEXT	SEGMENT PARA USE32 PUBLIC 'CODE'
_TEXT	ENDS
;	COMDAT ??0?$vector@U__SECRETROOM_MONSTER@@V?$allocator@U__SECRETROOM_MONSTER@@@std@@@std@@QAE@XZ
_TEXT	SEGMENT PARA USE32 PUBLIC 'CODE'
_TEXT	ENDS
;	COMDAT ??1?$vector@U__SECRETROOM_MONSTER@@V?$allocator@U__SECRETROOM_MONSTER@@@std@@@std@@QAE@XZ
_TEXT	SEGMENT PARA USE32 PUBLIC 'CODE'
_TEXT	ENDS
;	COMDAT ??0?$vector@V?$basic_string@DU?$char_traits@D@std@@V?$allocator@D@2@@std@@V?$allocator@V?$basic_string@DU?$char_traits@D@std@@V?$allocator@D@2@@std@@@2@@std@@QAE@XZ
_TEXT	SEGMENT PARA USE32 PUBLIC 'CODE'
_TEXT	ENDS
;	COMDAT ??1?$vector@V?$basic_string@DU?$char_traits@D@std@@V?$allocator@D@2@@std@@V?$allocator@V?$basic_string@DU?$char_traits@D@std@@V?$allocator@D@2@@std@@@2@@std@@QAE@XZ
_TEXT	SEGMENT PARA USE32 PUBLIC 'CODE'
_TEXT	ENDS
;	COMDAT ?size@?$vector@V?$basic_string@DU?$char_traits@D@std@@V?$allocator@D@2@@std@@V?$allocator@V?$basic_string@DU?$char_traits@D@std@@V?$allocator@D@2@@std@@@2@@std@@QBEIXZ
_TEXT	SEGMENT PARA USE32 PUBLIC 'CODE'
_TEXT	ENDS
;	COMDAT ??A?$vector@V?$basic_string@DU?$char_traits@D@std@@V?$allocator@D@2@@std@@V?$allocator@V?$basic_string@DU?$char_traits@D@std@@V?$allocator@D@2@@std@@@2@@std@@QAEAAV?$basic_string@DU?$char_traits@D@std@@V?$allocator@D@2@@1@I@Z
_TEXT	SEGMENT PARA USE32 PUBLIC 'CODE'
_TEXT	ENDS
;	COMDAT ?push_back@?$vector@V?$basic_string@DU?$char_traits@D@std@@V?$allocator@D@2@@std@@V?$allocator@V?$basic_string@DU?$char_traits@D@std@@V?$allocator@D@2@@std@@@2@@std@@QAEXABV?$basic_string@DU?$char_traits@D@std@@V?$allocator@D@2@@2@@Z
_TEXT	SEGMENT PARA USE32 PUBLIC 'CODE'
_TEXT	ENDS
;	COMDAT ?clear@?$vector@V?$basic_string@DU?$char_traits@D@std@@V?$allocator@D@2@@std@@V?$allocator@V?$basic_string@DU?$char_traits@D@std@@V?$allocator@D@2@@std@@@2@@std@@QAEXXZ
_TEXT	SEGMENT PARA USE32 PUBLIC 'CODE'
_TEXT	ENDS
;	COMDAT ?push_back@?$vector@UMINIGMAME_PRIZE_LIST@CRainbowRaceMng@@V?$allocator@UMINIGMAME_PRIZE_LIST@CRainbowRaceMng@@@std@@@std@@QAEXABUMINIGMAME_PRIZE_LIST@CRainbowRaceMng@@@Z
_TEXT	SEGMENT PARA USE32 PUBLIC 'CODE'
_TEXT	ENDS
;	COMDAT ?size@?$_Tree@V?$_Tmap_traits@KPAVCRainbowRace@@U?$less@K@std@@V?$allocator@U?$pair@$$CBKPAVCRainbowRace@@@std@@@3@$0A@@std@@@std@@QBEIXZ
_TEXT	SEGMENT PARA USE32 PUBLIC 'CODE'
_TEXT	ENDS
;	COMDAT ?size@?$vector@PAVCMiniGameBase@@V?$allocator@PAVCMiniGameBase@@@std@@@std@@QBEIXZ
_TEXT	SEGMENT PARA USE32 PUBLIC 'CODE'
_TEXT	ENDS
;	COMDAT ??A?$vector@PAVCMiniGameBase@@V?$allocator@PAVCMiniGameBase@@@std@@@std@@QAEAAPAVCMiniGameBase@@I@Z
_TEXT	SEGMENT PARA USE32 PUBLIC 'CODE'
_TEXT	ENDS
;	COMDAT ??0?$vector@MV?$allocator@M@std@@@std@@QAE@XZ
_TEXT	SEGMENT PARA USE32 PUBLIC 'CODE'
_TEXT	ENDS
;	COMDAT ??1?$vector@MV?$allocator@M@std@@@std@@QAE@XZ
_TEXT	SEGMENT PARA USE32 PUBLIC 'CODE'
_TEXT	ENDS
;	COMDAT ?size@?$vector@UGuildHouse_Furniture_Info@CGuildHouseBase@@V?$allocator@UGuildHouse_Furniture_Info@CGuildHouseBase@@@std@@@std@@QBEIXZ
_TEXT	SEGMENT PARA USE32 PUBLIC 'CODE'
_TEXT	ENDS
;	COMDAT ??A?$vector@UGuildHouse_Furniture_Info@CGuildHouseBase@@V?$allocator@UGuildHouse_Furniture_Info@CGuildHouseBase@@@std@@@std@@QAEAAUGuildHouse_Furniture_Info@CGuildHouseBase@@I@Z
_TEXT	SEGMENT PARA USE32 PUBLIC 'CODE'
_TEXT	ENDS
;	COMDAT ?empty@?$_Tree@V?$_Tmap_traits@KPAVCGuildHouseBase@@U?$less@K@std@@V?$allocator@U?$pair@$$CBKPAVCGuildHouseBase@@@std@@@3@$0A@@std@@@std@@QBE_NXZ
_TEXT	SEGMENT PARA USE32 PUBLIC 'CODE'
_TEXT	ENDS
;	COMDAT ?insert@?$_Tree@V?$_Tmap_traits@KPAVCGuildHouseBase@@U?$less@K@std@@V?$allocator@U?$pair@$$CBKPAVCGuildHouseBase@@@std@@@3@$0A@@std@@@std@@QAE?AU?$pair@Viterator@?$_Tree@V?$_Tmap_traits@KPAVCGuildHouseBase@@U?$less@K@std@@V?$allocator@U?$pair@$$CBKPAVCGuildHouseBase@@@std@@@3@$0A@@std@@@std@@_N@2@ABU?$pair@$$CBKPAVCGuildHouseBase@@@2@@Z
_TEXT	SEGMENT PARA USE32 PUBLIC 'CODE'
_TEXT	ENDS
;	COMDAT ?size@?$_Tree@V?$_Tmap_traits@KPAVCCampusMember@@U?$less@K@std@@V?$allocator@U?$pair@$$CBKPAVCCampusMember@@@std@@@3@$0A@@std@@@std@@QBEIXZ
_TEXT	SEGMENT PARA USE32 PUBLIC 'CODE'
_TEXT	ENDS
;	COMDAT ?empty@?$_Tree@V?$_Tmap_traits@KPAVCCampus@@U?$less@K@std@@V?$allocator@U?$pair@$$CBKPAVCCampus@@@std@@@3@$0A@@std@@@std@@QBE_NXZ
_TEXT	SEGMENT PARA USE32 PUBLIC 'CODE'
_TEXT	ENDS
;	COMDAT ?erase@?$_Tree@V?$_Tmap_traits@KKU?$less@K@std@@V?$allocator@U?$pair@$$CBKK@std@@@2@$0A@@std@@@std@@QAEIABK@Z
_TEXT	SEGMENT PARA USE32 PUBLIC 'CODE'
_TEXT	ENDS
;	COMDAT ??0?$map@KPAVCClientSock@@U?$less@K@std@@V?$allocator@U?$pair@$$CBKPAVCClientSock@@@std@@@3@@std@@QAE@XZ
_TEXT	SEGMENT PARA USE32 PUBLIC 'CODE'
_TEXT	ENDS
;	COMDAT ??1?$_Tree@V?$_Tmap_traits@KPAVCClientSock@@U?$less@K@std@@V?$allocator@U?$pair@$$CBKPAVCClientSock@@@std@@@3@$0A@@std@@@std@@QAE@XZ
_TEXT	SEGMENT PARA USE32 PUBLIC 'CODE'
_TEXT	ENDS
;	COMDAT ?end@?$_Tree@V?$_Tmap_traits@KPAVCClientSock@@U?$less@K@std@@V?$allocator@U?$pair@$$CBKPAVCClientSock@@@std@@@3@$0A@@std@@@std@@QAE?AViterator@12@XZ
_TEXT	SEGMENT PARA USE32 PUBLIC 'CODE'
_TEXT	ENDS
;	COMDAT ?find@?$_Tree@V?$_Tmap_traits@KPAVCClientSock@@U?$less@K@std@@V?$allocator@U?$pair@$$CBKPAVCClientSock@@@std@@@3@$0A@@std@@@std@@QAE?AViterator@12@ABK@Z
_TEXT	SEGMENT PARA USE32 PUBLIC 'CODE'
_TEXT	ENDS
;	COMDAT ??Citerator@?$_Tree@V?$_Tmap_traits@KPAVCClientSock@@U?$less@K@std@@V?$allocator@U?$pair@$$CBKPAVCClientSock@@@std@@@3@$0A@@std@@@std@@QBEPAU?$pair@$$CBKPAVCClientSock@@@2@XZ
_TEXT	SEGMENT PARA USE32 PUBLIC 'CODE'
_TEXT	ENDS
;	COMDAT ??9const_iterator@?$_Tree@V?$_Tmap_traits@KPAVCClientSock@@U?$less@K@std@@V?$allocator@U?$pair@$$CBKPAVCClientSock@@@std@@@3@$0A@@std@@@std@@QBE_NABV012@@Z
_TEXT	SEGMENT PARA USE32 PUBLIC 'CODE'
_TEXT	ENDS
;	COMDAT ??0?$map@KPAVCClientSockE@@U?$less@K@std@@V?$allocator@U?$pair@$$CBKPAVCClientSockE@@@std@@@3@@std@@QAE@XZ
_TEXT	SEGMENT PARA USE32 PUBLIC 'CODE'
_TEXT	ENDS
;	COMDAT ??1?$_Tree@V?$_Tmap_traits@KPAVCClientSockE@@U?$less@K@std@@V?$allocator@U?$pair@$$CBKPAVCClientSockE@@@std@@@3@$0A@@std@@@std@@QAE@XZ
_TEXT	SEGMENT PARA USE32 PUBLIC 'CODE'
_TEXT	ENDS
;	COMDAT ?end@?$_Tree@V?$_Tmap_traits@KPAVCClientSockE@@U?$less@K@std@@V?$allocator@U?$pair@$$CBKPAVCClientSockE@@@std@@@3@$0A@@std@@@std@@QAE?AViterator@12@XZ
_TEXT	SEGMENT PARA USE32 PUBLIC 'CODE'
_TEXT	ENDS
;	COMDAT ?find@?$_Tree@V?$_Tmap_traits@KPAVCClientSockE@@U?$less@K@std@@V?$allocator@U?$pair@$$CBKPAVCClientSockE@@@std@@@3@$0A@@std@@@std@@QAE?AViterator@12@ABK@Z
_TEXT	SEGMENT PARA USE32 PUBLIC 'CODE'
_TEXT	ENDS
;	COMDAT ??Citerator@?$_Tree@V?$_Tmap_traits@KPAVCClientSockE@@U?$less@K@std@@V?$allocator@U?$pair@$$CBKPAVCClientSockE@@@std@@@3@$0A@@std@@@std@@QBEPAU?$pair@$$CBKPAVCClientSockE@@@2@XZ
_TEXT	SEGMENT PARA USE32 PUBLIC 'CODE'
_TEXT	ENDS
;	COMDAT ??9const_iterator@?$_Tree@V?$_Tmap_traits@KPAVCClientSockE@@U?$less@K@std@@V?$allocator@U?$pair@$$CBKPAVCClientSockE@@@std@@@3@$0A@@std@@@std@@QBE_NABV012@@Z
_TEXT	SEGMENT PARA USE32 PUBLIC 'CODE'
_TEXT	ENDS
;	COMDAT ?end@?$_Tree@V?$_Tmap_traits@KP8CDPDatabaseClient@@AEXAAVCAr@@KK@ZU?$less@K@std@@V?$allocator@U?$pair@$$CBKP8CDPDatabaseClient@@AEXAAVCAr@@KK@Z@std@@@4@$0A@@std@@@std@@QAE?AViterator@12@XZ
_TEXT	SEGMENT PARA USE32 PUBLIC 'CODE'
_TEXT	ENDS
;	COMDAT ?find@?$_Tree@V?$_Tmap_traits@KP8CDPDatabaseClient@@AEXAAVCAr@@KK@ZU?$less@K@std@@V?$allocator@U?$pair@$$CBKP8CDPDatabaseClient@@AEXAAVCAr@@KK@Z@std@@@4@$0A@@std@@@std@@QAE?AViterator@12@ABK@Z
_TEXT	SEGMENT PARA USE32 PUBLIC 'CODE'
_TEXT	ENDS
;	COMDAT ??Citerator@?$_Tree@V?$_Tmap_traits@KP8CDPDatabaseClient@@AEXAAVCAr@@KK@ZU?$less@K@std@@V?$allocator@U?$pair@$$CBKP8CDPDatabaseClient@@AEXAAVCAr@@KK@Z@std@@@4@$0A@@std@@@std@@QBEPAU?$pair@$$CBKP8CDPDatabaseClient@@AEXAAVCAr@@KK@Z@2@XZ
_TEXT	SEGMENT PARA USE32 PUBLIC 'CODE'
_TEXT	ENDS
;	COMDAT ??9const_iterator@?$_Tree@V?$_Tmap_traits@KP8CDPDatabaseClient@@AEXAAVCAr@@KK@ZU?$less@K@std@@V?$allocator@U?$pair@$$CBKP8CDPDatabaseClient@@AEXAAVCAr@@KK@Z@std@@@4@$0A@@std@@@std@@QBE_NABV012@@Z
_TEXT	SEGMENT PARA USE32 PUBLIC 'CODE'
_TEXT	ENDS
;	COMDAT ?end@?$_Tree@V?$_Tmap_traits@KP8CDPSrvr@@AEXAAVCAr@@KKPAEK@ZU?$less@K@std@@V?$allocator@U?$pair@$$CBKP8CDPSrvr@@AEXAAVCAr@@KKPAEK@Z@std@@@4@$0A@@std@@@std@@QAE?AViterator@12@XZ
_TEXT	SEGMENT PARA USE32 PUBLIC 'CODE'
_TEXT	ENDS
;	COMDAT ?find@?$_Tree@V?$_Tmap_traits@KP8CDPSrvr@@AEXAAVCAr@@KKPAEK@ZU?$less@K@std@@V?$allocator@U?$pair@$$CBKP8CDPSrvr@@AEXAAVCAr@@KKPAEK@Z@std@@@4@$0A@@std@@@std@@QAE?AViterator@12@ABK@Z
_TEXT	SEGMENT PARA USE32 PUBLIC 'CODE'
_TEXT	ENDS
;	COMDAT ??Citerator@?$_Tree@V?$_Tmap_traits@KP8CDPSrvr@@AEXAAVCAr@@KKPAEK@ZU?$less@K@std@@V?$allocator@U?$pair@$$CBKP8CDPSrvr@@AEXAAVCAr@@KKPAEK@Z@std@@@4@$0A@@std@@@std@@QBEPAU?$pair@$$CBKP8CDPSrvr@@AEXAAVCAr@@KKPAEK@Z@2@XZ
_TEXT	SEGMENT PARA USE32 PUBLIC 'CODE'
_TEXT	ENDS
;	COMDAT ??9const_iterator@?$_Tree@V?$_Tmap_traits@KP8CDPSrvr@@AEXAAVCAr@@KKPAEK@ZU?$less@K@std@@V?$allocator@U?$pair@$$CBKP8CDPSrvr@@AEXAAVCAr@@KKPAEK@Z@std@@@4@$0A@@std@@@std@@QBE_NABV012@@Z
_TEXT	SEGMENT PARA USE32 PUBLIC 'CODE'
_TEXT	ENDS
;	COMDAT ??R?$less@PAVsp_counted_base@detail@boost@@@std@@QBE_NABQAVsp_counted_base@detail@boost@@0@Z
_TEXT	SEGMENT PARA USE32 PUBLIC 'CODE'
_TEXT	ENDS
;	COMDAT ?size@?$vector@PAVCLordSkillComponentExecutable@@V?$allocator@PAVCLordSkillComponentExecutable@@@std@@@std@@QBEIXZ
_TEXT	SEGMENT PARA USE32 PUBLIC 'CODE'
_TEXT	ENDS
;	COMDAT ?size@?$vector@V?$shared_ptr@VCCandidate@@@boost@@V?$allocator@V?$shared_ptr@VCCandidate@@@boost@@@std@@@std@@QBEIXZ
_TEXT	SEGMENT PARA USE32 PUBLIC 'CODE'
_TEXT	ENDS
;	COMDAT ??C?$shared_ptr@VCCandidate@@@boost@@QBEPAVCCandidate@@XZ
_TEXT	SEGMENT PARA USE32 PUBLIC 'CODE'
_TEXT	ENDS
;	COMDAT ?size@?$vector@PAVCLEComponent@@V?$allocator@PAVCLEComponent@@@std@@@std@@QBEIXZ
_TEXT	SEGMENT PARA USE32 PUBLIC 'CODE'
_TEXT	ENDS
;	COMDAT ?size@?$vector@U?$pair@M_J@std@@V?$allocator@U?$pair@M_J@std@@@2@@std@@QBEIXZ
_TEXT	SEGMENT PARA USE32 PUBLIC 'CODE'
_TEXT	ENDS
;	COMDAT ?compare@?$basic_string@DU?$char_traits@D@std@@V?$allocator@D@2@@std@@QBEHIIPBDI@Z
_TEXT	SEGMENT PARA USE32 PUBLIC 'CODE'
_TEXT	ENDS
;	COMDAT ??0?$allocator@V?$basic_string@DU?$char_traits@D@std@@V?$allocator@D@2@@std@@@std@@QAE@XZ
_TEXT	SEGMENT PARA USE32 PUBLIC 'CODE'
_TEXT	ENDS
;	COMDAT ?insert@?$_Tree@V?$_Tmap_traits@KPAVCCtrl@@U?$less@K@std@@V?$allocator@U?$pair@$$CBKPAVCCtrl@@@std@@@3@$0A@@std@@@std@@QAE?AViterator@12@V312@ABU?$pair@$$CBKPAVCCtrl@@@2@@Z
_TEXT	SEGMENT PARA USE32 PUBLIC 'CODE'
_TEXT	ENDS
;	COMDAT ??0?$pair@$$CBKPAVCCtrl@@@std@@QAE@ABKABQAVCCtrl@@@Z
_TEXT	SEGMENT PARA USE32 PUBLIC 'CODE'
_TEXT	ENDS
;	COMDAT ?_Tidy@?$deque@PAUtagACTMSG@@V?$allocator@PAUtagACTMSG@@@std@@@std@@IAEXXZ
_TEXT	SEGMENT PARA USE32 PUBLIC 'CODE'
_TEXT	ENDS
;	COMDAT ??0?$_Deque_val@PAUtagACTMSG@@V?$allocator@PAUtagACTMSG@@@std@@@std@@IAE@V?$allocator@PAUtagACTMSG@@@1@@Z
_TEXT	SEGMENT PARA USE32 PUBLIC 'CODE'
_TEXT	ENDS
;	COMDAT ??0?$allocator@PAUtagACTMSG@@@std@@QAE@XZ
_TEXT	SEGMENT PARA USE32 PUBLIC 'CODE'
_TEXT	ENDS
;	COMDAT ?_Tidy@?$deque@PAUtagMAGICATKMSG@@V?$allocator@PAUtagMAGICATKMSG@@@std@@@std@@IAEXXZ
_TEXT	SEGMENT PARA USE32 PUBLIC 'CODE'
_TEXT	ENDS
;	COMDAT ??0?$_Deque_val@PAUtagMAGICATKMSG@@V?$allocator@PAUtagMAGICATKMSG@@@std@@@std@@IAE@V?$allocator@PAUtagMAGICATKMSG@@@1@@Z
_TEXT	SEGMENT PARA USE32 PUBLIC 'CODE'
_TEXT	ENDS
;	COMDAT ??0?$allocator@PAUtagMAGICATKMSG@@@std@@QAE@XZ
_TEXT	SEGMENT PARA USE32 PUBLIC 'CODE'
_TEXT	ENDS
;	COMDAT ??0iterator@?$deque@PAUtagACTMSG@@V?$allocator@PAUtagACTMSG@@@std@@@std@@QAE@IPBV12@@Z
_TEXT	SEGMENT PARA USE32 PUBLIC 'CODE'
_TEXT	ENDS
;	COMDAT ??Dconst_iterator@?$deque@PAUtagACTMSG@@V?$allocator@PAUtagACTMSG@@@std@@@std@@QBEABQAUtagACTMSG@@XZ
_TEXT	SEGMENT PARA USE32 PUBLIC 'CODE'
_TEXT	ENDS
;	COMDAT ??8const_iterator@?$deque@PAUtagACTMSG@@V?$allocator@PAUtagACTMSG@@@std@@@std@@QBE_NABV012@@Z
_TEXT	SEGMENT PARA USE32 PUBLIC 'CODE'
_TEXT	ENDS
;	COMDAT ??0iterator@?$deque@PAUtagMAGICATKMSG@@V?$allocator@PAUtagMAGICATKMSG@@@std@@@std@@QAE@IPBV12@@Z
_TEXT	SEGMENT PARA USE32 PUBLIC 'CODE'
_TEXT	ENDS
;	COMDAT ??Dconst_iterator@?$deque@PAUtagMAGICATKMSG@@V?$allocator@PAUtagMAGICATKMSG@@@std@@@std@@QBEABQAUtagMAGICATKMSG@@XZ
_TEXT	SEGMENT PARA USE32 PUBLIC 'CODE'
_TEXT	ENDS
;	COMDAT ??8const_iterator@?$deque@PAUtagMAGICATKMSG@@V?$allocator@PAUtagMAGICATKMSG@@@std@@@std@@QBE_NABV012@@Z
_TEXT	SEGMENT PARA USE32 PUBLIC 'CODE'
_TEXT	ENDS
;	COMDAT ?_Buy@?$vector@PAVITestCase@@V?$allocator@PAVITestCase@@@std@@@std@@IAE_NI@Z
_TEXT	SEGMENT PARA USE32 PUBLIC 'CODE'
_TEXT	ENDS
;	COMDAT ?_Tidy@?$vector@PAVITestCase@@V?$allocator@PAVITestCase@@@std@@@std@@IAEXXZ
_TEXT	SEGMENT PARA USE32 PUBLIC 'CODE'
_TEXT	ENDS
;	COMDAT ??0?$_Vector_val@PAVITestCase@@V?$allocator@PAVITestCase@@@std@@@std@@IAE@V?$allocator@PAVITestCase@@@1@@Z
_TEXT	SEGMENT PARA USE32 PUBLIC 'CODE'
_TEXT	ENDS
;	COMDAT ??0?$allocator@PAVITestCase@@@std@@QAE@XZ
_TEXT	SEGMENT PARA USE32 PUBLIC 'CODE'
_TEXT	ENDS
;	COMDAT ?erase@?$_Tree@V?$_Tmap_traits@KU_Friend@@U?$less@K@std@@V?$allocator@U?$pair@$$CBKU_Friend@@@std@@@3@$0A@@std@@@std@@QAE?AViterator@12@V312@0@Z
_TEXT	SEGMENT PARA USE32 PUBLIC 'CODE'
_TEXT	ENDS
;	COMDAT ?equal_range@?$_Tree@V?$_Tmap_traits@KU_Friend@@U?$less@K@std@@V?$allocator@U?$pair@$$CBKU_Friend@@@std@@@3@$0A@@std@@@std@@QAE?AU?$pair@Viterator@?$_Tree@V?$_Tmap_traits@KU_Friend@@U?$less@K@std@@V?$allocator@U?$pair@$$CBKU_Friend@@@std@@@3@$0A@@std@@@std@@V123@@2@ABK@Z
_TEXT	SEGMENT PARA USE32 PUBLIC 'CODE'
_TEXT	ENDS
;	COMDAT ?begin@?$vector@PAU__JOINPLAYER@CGuildCombat@@V?$allocator@PAU__JOINPLAYER@CGuildCombat@@@std@@@std@@QAE?AViterator@12@XZ
_TEXT	SEGMENT PARA USE32 PUBLIC 'CODE'
_TEXT	ENDS
;	COMDAT ?_Tidy@?$vector@PAU__JOINPLAYER@CGuildCombat@@V?$allocator@PAU__JOINPLAYER@CGuildCombat@@@std@@@std@@IAEXXZ
_TEXT	SEGMENT PARA USE32 PUBLIC 'CODE'
_TEXT	ENDS
;	COMDAT ?_Nextnode@?$list@PAU__JOINPLAYER@CGuildCombat@@V?$allocator@PAU__JOINPLAYER@CGuildCombat@@@std@@@std@@KAAAPAU_Node@?$_List_nod@PAU__JOINPLAYER@CGuildCombat@@V?$allocator@PAU__JOINPLAYER@CGuildCombat@@@std@@@2@PAU342@@Z
_TEXT	SEGMENT PARA USE32 PUBLIC 'CODE'
_TEXT	ENDS
;	COMDAT ?_Prevnode@?$list@PAU__JOINPLAYER@CGuildCombat@@V?$allocator@PAU__JOINPLAYER@CGuildCombat@@@std@@@std@@KAAAPAU_Node@?$_List_nod@PAU__JOINPLAYER@CGuildCombat@@V?$allocator@PAU__JOINPLAYER@CGuildCombat@@@std@@@2@PAU342@@Z
_TEXT	SEGMENT PARA USE32 PUBLIC 'CODE'
_TEXT	ENDS
;	COMDAT ?deallocate@?$allocator@U_Node@?$_List_nod@PAU__JOINPLAYER@CGuildCombat@@V?$allocator@PAU__JOINPLAYER@CGuildCombat@@@std@@@std@@@std@@QAEXPAU_Node@?$_List_nod@PAU__JOINPLAYER@CGuildCombat@@V?$allocator@PAU__JOINPLAYER@CGuildCombat@@@std@@@2@I@Z
_TEXT	SEGMENT PARA USE32 PUBLIC 'CODE'
_TEXT	ENDS
;	COMDAT ?destroy@?$allocator@U_Node@?$_List_nod@PAU__JOINPLAYER@CGuildCombat@@V?$allocator@PAU__JOINPLAYER@CGuildCombat@@@std@@@std@@@std@@QAEXPAU_Node@?$_List_nod@PAU__JOINPLAYER@CGuildCombat@@V?$allocator@PAU__JOINPLAYER@CGuildCombat@@@std@@@2@@Z
_TEXT	SEGMENT PARA USE32 PUBLIC 'CODE'
_TEXT	ENDS
;	COMDAT ?_Buy@?$vector@U__SECRETROOM_MONSTER@@V?$allocator@U__SECRETROOM_MONSTER@@@std@@@std@@IAE_NI@Z
_TEXT	SEGMENT PARA USE32 PUBLIC 'CODE'
_TEXT	ENDS
;	COMDAT ?_Tidy@?$vector@U__SECRETROOM_MONSTER@@V?$allocator@U__SECRETROOM_MONSTER@@@std@@@std@@IAEXXZ
_TEXT	SEGMENT PARA USE32 PUBLIC 'CODE'
_TEXT	ENDS
;	COMDAT ??0?$_Vector_val@U__SECRETROOM_MONSTER@@V?$allocator@U__SECRETROOM_MONSTER@@@std@@@std@@IAE@V?$allocator@U__SECRETROOM_MONSTER@@@1@@Z
_TEXT	SEGMENT PARA USE32 PUBLIC 'CODE'
_TEXT	ENDS
;	COMDAT ??0?$allocator@U__SECRETROOM_MONSTER@@@std@@QAE@XZ
_TEXT	SEGMENT PARA USE32 PUBLIC 'CODE'
_TEXT	ENDS
;	COMDAT ?capacity@?$vector@V?$basic_string@DU?$char_traits@D@std@@V?$allocator@D@2@@std@@V?$allocator@V?$basic_string@DU?$char_traits@D@std@@V?$allocator@D@2@@std@@@2@@std@@QBEIXZ
_TEXT	SEGMENT PARA USE32 PUBLIC 'CODE'
_TEXT	ENDS
;	COMDAT ?begin@?$vector@V?$basic_string@DU?$char_traits@D@std@@V?$allocator@D@2@@std@@V?$allocator@V?$basic_string@DU?$char_traits@D@std@@V?$allocator@D@2@@std@@@2@@std@@QAE?AViterator@12@XZ
_TEXT	SEGMENT PARA USE32 PUBLIC 'CODE'
_TEXT	ENDS
;	COMDAT ?end@?$vector@V?$basic_string@DU?$char_traits@D@std@@V?$allocator@D@2@@std@@V?$allocator@V?$basic_string@DU?$char_traits@D@std@@V?$allocator@D@2@@std@@@2@@std@@QAE?AViterator@12@XZ
_TEXT	SEGMENT PARA USE32 PUBLIC 'CODE'
_TEXT	ENDS
;	COMDAT ?insert@?$vector@V?$basic_string@DU?$char_traits@D@std@@V?$allocator@D@2@@std@@V?$allocator@V?$basic_string@DU?$char_traits@D@std@@V?$allocator@D@2@@std@@@2@@std@@QAE?AViterator@12@V312@ABV?$basic_string@DU?$char_traits@D@std@@V?$allocator@D@2@@2@@Z
_TEXT	SEGMENT PARA USE32 PUBLIC 'CODE'
_TEXT	ENDS
;	COMDAT ?_Buy@?$vector@V?$basic_string@DU?$char_traits@D@std@@V?$allocator@D@2@@std@@V?$allocator@V?$basic_string@DU?$char_traits@D@std@@V?$allocator@D@2@@std@@@2@@std@@IAE_NI@Z
_TEXT	SEGMENT PARA USE32 PUBLIC 'CODE'
_TEXT	ENDS
;	COMDAT ?_Tidy@?$vector@V?$basic_string@DU?$char_traits@D@std@@V?$allocator@D@2@@std@@V?$allocator@V?$basic_string@DU?$char_traits@D@std@@V?$allocator@D@2@@std@@@2@@std@@IAEXXZ
_TEXT	SEGMENT PARA USE32 PUBLIC 'CODE'
_TEXT	ENDS
;	COMDAT ?_Ufill@?$vector@V?$basic_string@DU?$char_traits@D@std@@V?$allocator@D@2@@std@@V?$allocator@V?$basic_string@DU?$char_traits@D@std@@V?$allocator@D@2@@std@@@2@@std@@IAEPAV?$basic_string@DU?$char_traits@D@std@@V?$allocator@D@2@@2@PAV32@IABV32@@Z
_TEXT	SEGMENT PARA USE32 PUBLIC 'CODE'
_TEXT	ENDS
;	COMDAT ??0?$_Vector_val@V?$basic_string@DU?$char_traits@D@std@@V?$allocator@D@2@@std@@V?$allocator@V?$basic_string@DU?$char_traits@D@std@@V?$allocator@D@2@@std@@@2@@std@@IAE@V?$allocator@V?$basic_string@DU?$char_traits@D@std@@V?$allocator@D@2@@std@@@1@@Z
_TEXT	SEGMENT PARA USE32 PUBLIC 'CODE'
_TEXT	ENDS
;	COMDAT ?capacity@?$vector@UMINIGMAME_PRIZE_LIST@CRainbowRaceMng@@V?$allocator@UMINIGMAME_PRIZE_LIST@CRainbowRaceMng@@@std@@@std@@QBEIXZ
_TEXT	SEGMENT PARA USE32 PUBLIC 'CODE'
_TEXT	ENDS
;	COMDAT ?end@?$vector@UMINIGMAME_PRIZE_LIST@CRainbowRaceMng@@V?$allocator@UMINIGMAME_PRIZE_LIST@CRainbowRaceMng@@@std@@@std@@QAE?AViterator@12@XZ
_TEXT	SEGMENT PARA USE32 PUBLIC 'CODE'
_TEXT	ENDS
;	COMDAT ?size@?$vector@UMINIGMAME_PRIZE_LIST@CRainbowRaceMng@@V?$allocator@UMINIGMAME_PRIZE_LIST@CRainbowRaceMng@@@std@@@std@@QBEIXZ
_TEXT	SEGMENT PARA USE32 PUBLIC 'CODE'
_TEXT	ENDS
;	COMDAT ?insert@?$vector@UMINIGMAME_PRIZE_LIST@CRainbowRaceMng@@V?$allocator@UMINIGMAME_PRIZE_LIST@CRainbowRaceMng@@@std@@@std@@QAE?AViterator@12@V312@ABUMINIGMAME_PRIZE_LIST@CRainbowRaceMng@@@Z
_TEXT	SEGMENT PARA USE32 PUBLIC 'CODE'
_TEXT	ENDS
;	COMDAT ?_Ufill@?$vector@UMINIGMAME_PRIZE_LIST@CRainbowRaceMng@@V?$allocator@UMINIGMAME_PRIZE_LIST@CRainbowRaceMng@@@std@@@std@@IAEPAUMINIGMAME_PRIZE_LIST@CRainbowRaceMng@@PAU34@IABU34@@Z
_TEXT	SEGMENT PARA USE32 PUBLIC 'CODE'
_TEXT	ENDS
;	COMDAT ?begin@?$vector@PAVCMiniGameBase@@V?$allocator@PAVCMiniGameBase@@@std@@@std@@QAE?AViterator@12@XZ
_TEXT	SEGMENT PARA USE32 PUBLIC 'CODE'
_TEXT	ENDS
;	COMDAT ?_Buy@?$vector@MV?$allocator@M@std@@@std@@IAE_NI@Z
_TEXT	SEGMENT PARA USE32 PUBLIC 'CODE'
_TEXT	ENDS
;	COMDAT ?_Tidy@?$vector@MV?$allocator@M@std@@@std@@IAEXXZ
_TEXT	SEGMENT PARA USE32 PUBLIC 'CODE'
_TEXT	ENDS
;	COMDAT ??0?$_Vector_val@MV?$allocator@M@std@@@std@@IAE@V?$allocator@M@1@@Z
_TEXT	SEGMENT PARA USE32 PUBLIC 'CODE'
_TEXT	ENDS
;	COMDAT ??0?$allocator@M@std@@QAE@XZ
_TEXT	SEGMENT PARA USE32 PUBLIC 'CODE'
_TEXT	ENDS
;	COMDAT ?begin@?$vector@UGuildHouse_Furniture_Info@CGuildHouseBase@@V?$allocator@UGuildHouse_Furniture_Info@CGuildHouseBase@@@std@@@std@@QAE?AViterator@12@XZ
_TEXT	SEGMENT PARA USE32 PUBLIC 'CODE'
_TEXT	ENDS
;	COMDAT ?_Isnil@?$_Tree@V?$_Tmap_traits@KPAVCGuildHouseBase@@U?$less@K@std@@V?$allocator@U?$pair@$$CBKPAVCGuildHouseBase@@@std@@@3@$0A@@std@@@std@@KAAADPAU_Node@?$_Tree_nod@V?$_Tmap_traits@KPAVCGuildHouseBase@@U?$less@K@std@@V?$allocator@U?$pair@$$CBKPAVCGuildHouseBase@@@std@@@3@$0A@@std@@@2@@Z
_TEXT	SEGMENT PARA USE32 PUBLIC 'CODE'
_TEXT	ENDS
;	COMDAT ?_Key@?$_Tree@V?$_Tmap_traits@KPAVCGuildHouseBase@@U?$less@K@std@@V?$allocator@U?$pair@$$CBKPAVCGuildHouseBase@@@std@@@3@$0A@@std@@@std@@KAABKPAU_Node@?$_Tree_nod@V?$_Tmap_traits@KPAVCGuildHouseBase@@U?$less@K@std@@V?$allocator@U?$pair@$$CBKPAVCGuildHouseBase@@@std@@@3@$0A@@std@@@2@@Z
_TEXT	SEGMENT PARA USE32 PUBLIC 'CODE'
_TEXT	ENDS
;	COMDAT ?_Left@?$_Tree@V?$_Tmap_traits@KPAVCGuildHouseBase@@U?$less@K@std@@V?$allocator@U?$pair@$$CBKPAVCGuildHouseBase@@@std@@@3@$0A@@std@@@std@@KAAAPAU_Node@?$_Tree_nod@V?$_Tmap_traits@KPAVCGuildHouseBase@@U?$less@K@std@@V?$allocator@U?$pair@$$CBKPAVCGuildHouseBase@@@std@@@3@$0A@@std@@@2@PAU342@@Z
_TEXT	SEGMENT PARA USE32 PUBLIC 'CODE'
_TEXT	ENDS
;	COMDAT ?_Right@?$_Tree@V?$_Tmap_traits@KPAVCGuildHouseBase@@U?$less@K@std@@V?$allocator@U?$pair@$$CBKPAVCGuildHouseBase@@@std@@@3@$0A@@std@@@std@@KAAAPAU_Node@?$_Tree_nod@V?$_Tmap_traits@KPAVCGuildHouseBase@@U?$less@K@std@@V?$allocator@U?$pair@$$CBKPAVCGuildHouseBase@@@std@@@3@$0A@@std@@@2@PAU342@@Z
_TEXT	SEGMENT PARA USE32 PUBLIC 'CODE'
_TEXT	ENDS
;	COMDAT ?begin@?$_Tree@V?$_Tmap_traits@KPAVCGuildHouseBase@@U?$less@K@std@@V?$allocator@U?$pair@$$CBKPAVCGuildHouseBase@@@std@@@3@$0A@@std@@@std@@QAE?AViterator@12@XZ
_TEXT	SEGMENT PARA USE32 PUBLIC 'CODE'
_TEXT	ENDS
;	COMDAT ?size@?$_Tree@V?$_Tmap_traits@KPAVCGuildHouseBase@@U?$less@K@std@@V?$allocator@U?$pair@$$CBKPAVCGuildHouseBase@@@std@@@3@$0A@@std@@@std@@QBEIXZ
_TEXT	SEGMENT PARA USE32 PUBLIC 'CODE'
_TEXT	ENDS
;	COMDAT ?_Insert@?$_Tree@V?$_Tmap_traits@KPAVCGuildHouseBase@@U?$less@K@std@@V?$allocator@U?$pair@$$CBKPAVCGuildHouseBase@@@std@@@3@$0A@@std@@@std@@IAE?AViterator@12@_NPAU_Node@?$_Tree_nod@V?$_Tmap_traits@KPAVCGuildHouseBase@@U?$less@K@std@@V?$allocator@U?$pair@$$CBKPAVCGuildHouseBase@@@std@@@3@$0A@@std@@@2@ABU?$pair@$$CBKPAVCGuildHouseBase@@@2@@Z
_TEXT	SEGMENT PARA USE32 PUBLIC 'CODE'
_TEXT	ENDS
;	COMDAT ?_Root@?$_Tree@V?$_Tmap_traits@KPAVCGuildHouseBase@@U?$less@K@std@@V?$allocator@U?$pair@$$CBKPAVCGuildHouseBase@@@std@@@3@$0A@@std@@@std@@IAEAAPAU_Node@?$_Tree_nod@V?$_Tmap_traits@KPAVCGuildHouseBase@@U?$less@K@std@@V?$allocator@U?$pair@$$CBKPAVCGuildHouseBase@@@std@@@3@$0A@@std@@@2@XZ
_TEXT	SEGMENT PARA USE32 PUBLIC 'CODE'
_TEXT	ENDS
;	COMDAT ?_Kfn@?$_Tmap_traits@KPAVCGuildHouseBase@@U?$less@K@std@@V?$allocator@U?$pair@$$CBKPAVCGuildHouseBase@@@std@@@3@$0A@@std@@SAABKABU?$pair@$$CBKPAVCGuildHouseBase@@@2@@Z
_TEXT	SEGMENT PARA USE32 PUBLIC 'CODE'
_TEXT	ENDS
;	COMDAT ??0?$pair@Viterator@?$_Tree@V?$_Tmap_traits@KPAVCGuildHouseBase@@U?$less@K@std@@V?$allocator@U?$pair@$$CBKPAVCGuildHouseBase@@@std@@@3@$0A@@std@@@std@@_N@std@@QAE@ABViterator@?$_Tree@V?$_Tmap_traits@KPAVCGuildHouseBase@@U?$less@K@std@@V?$allocator@U?$pair@$$CBKPAVCGuildHouseBase@@@std@@@3@$0A@@std@@@1@AB_N@Z
_TEXT	SEGMENT PARA USE32 PUBLIC 'CODE'
_TEXT	ENDS
;	COMDAT ??0iterator@?$_Tree@V?$_Tmap_traits@KPAVCGuildHouseBase@@U?$less@K@std@@V?$allocator@U?$pair@$$CBKPAVCGuildHouseBase@@@std@@@3@$0A@@std@@@std@@QAE@PAU_Node@?$_Tree_nod@V?$_Tmap_traits@KPAVCGuildHouseBase@@U?$less@K@std@@V?$allocator@U?$pair@$$CBKPAVCGuildHouseBase@@@std@@@3@$0A@@std@@@2@@Z
_TEXT	SEGMENT PARA USE32 PUBLIC 'CODE'
_TEXT	ENDS
;	COMDAT ??Fiterator@?$_Tree@V?$_Tmap_traits@KPAVCGuildHouseBase@@U?$less@K@std@@V?$allocator@U?$pair@$$CBKPAVCGuildHouseBase@@@std@@@3@$0A@@std@@@std@@QAEAAV012@XZ
_TEXT	SEGMENT PARA USE32 PUBLIC 'CODE'
_TEXT	ENDS
;	COMDAT ??8const_iterator@?$_Tree@V?$_Tmap_traits@KPAVCGuildHouseBase@@U?$less@K@std@@V?$allocator@U?$pair@$$CBKPAVCGuildHouseBase@@@std@@@3@$0A@@std@@@std@@QBE_NABV012@@Z
_TEXT	SEGMENT PARA USE32 PUBLIC 'CODE'
_TEXT	ENDS
;	COMDAT ?_Mynode@const_iterator@?$_Tree@V?$_Tmap_traits@KPAVCGuildHouseBase@@U?$less@K@std@@V?$allocator@U?$pair@$$CBKPAVCGuildHouseBase@@@std@@@3@$0A@@std@@@std@@QBEPAU_Node@?$_Tree_nod@V?$_Tmap_traits@KPAVCGuildHouseBase@@U?$less@K@std@@V?$allocator@U?$pair@$$CBKPAVCGuildHouseBase@@@std@@@3@$0A@@std@@@3@XZ
_TEXT	SEGMENT PARA USE32 PUBLIC 'CODE'
_TEXT	ENDS
;	COMDAT ?size@?$_Tree@V?$_Tmap_traits@KPAVCCampus@@U?$less@K@std@@V?$allocator@U?$pair@$$CBKPAVCCampus@@@std@@@3@$0A@@std@@@std@@QBEIXZ
_TEXT	SEGMENT PARA USE32 PUBLIC 'CODE'
_TEXT	ENDS
;	COMDAT ?erase@?$_Tree@V?$_Tmap_traits@KKU?$less@K@std@@V?$allocator@U?$pair@$$CBKK@std@@@2@$0A@@std@@@std@@QAE?AViterator@12@V312@0@Z
_TEXT	SEGMENT PARA USE32 PUBLIC 'CODE'
_TEXT	ENDS
;	COMDAT ?equal_range@?$_Tree@V?$_Tmap_traits@KKU?$less@K@std@@V?$allocator@U?$pair@$$CBKK@std@@@2@$0A@@std@@@std@@QAE?AU?$pair@Viterator@?$_Tree@V?$_Tmap_traits@KKU?$less@K@std@@V?$allocator@U?$pair@$$CBKK@std@@@2@$0A@@std@@@std@@V123@@2@ABK@Z
_TEXT	SEGMENT PARA USE32 PUBLIC 'CODE'
_TEXT	ENDS
;	COMDAT ?_Key@?$_Tree@V?$_Tmap_traits@KPAVCClientSock@@U?$less@K@std@@V?$allocator@U?$pair@$$CBKPAVCClientSock@@@std@@@3@$0A@@std@@@std@@KAABKPAU_Node@?$_Tree_nod@V?$_Tmap_traits@KPAVCClientSock@@U?$less@K@std@@V?$allocator@U?$pair@$$CBKPAVCClientSock@@@std@@@3@$0A@@std@@@2@@Z
_TEXT	SEGMENT PARA USE32 PUBLIC 'CODE'
_TEXT	ENDS
;	COMDAT ??0?$_Tree@V?$_Tmap_traits@KPAVCClientSock@@U?$less@K@std@@V?$allocator@U?$pair@$$CBKPAVCClientSock@@@std@@@3@$0A@@std@@@std@@QAE@ABU?$less@K@1@ABV?$allocator@U?$pair@$$CBKPAVCClientSock@@@std@@@1@@Z
_TEXT	SEGMENT PARA USE32 PUBLIC 'CODE'
_TEXT	ENDS
;	COMDAT ?lower_bound@?$_Tree@V?$_Tmap_traits@KPAVCClientSock@@U?$less@K@std@@V?$allocator@U?$pair@$$CBKPAVCClientSock@@@std@@@3@$0A@@std@@@std@@QAE?AViterator@12@ABK@Z
_TEXT	SEGMENT PARA USE32 PUBLIC 'CODE'
_TEXT	ENDS
;	COMDAT ?_Tidy@?$_Tree@V?$_Tmap_traits@KPAVCClientSock@@U?$less@K@std@@V?$allocator@U?$pair@$$CBKPAVCClientSock@@@std@@@3@$0A@@std@@@std@@IAEXXZ
_TEXT	SEGMENT PARA USE32 PUBLIC 'CODE'
_TEXT	ENDS
;	COMDAT ??0?$allocator@U?$pair@$$CBKPAVCClientSock@@@std@@@std@@QAE@XZ
_TEXT	SEGMENT PARA USE32 PUBLIC 'CODE'
_TEXT	ENDS
;	COMDAT ??0iterator@?$_Tree@V?$_Tmap_traits@KPAVCClientSock@@U?$less@K@std@@V?$allocator@U?$pair@$$CBKPAVCClientSock@@@std@@@3@$0A@@std@@@std@@QAE@PAU_Node@?$_Tree_nod@V?$_Tmap_traits@KPAVCClientSock@@U?$less@K@std@@V?$allocator@U?$pair@$$CBKPAVCClientSock@@@std@@@3@$0A@@std@@@2@@Z
_TEXT	SEGMENT PARA USE32 PUBLIC 'CODE'
_TEXT	ENDS
;	COMDAT ??Diterator@?$_Tree@V?$_Tmap_traits@KPAVCClientSock@@U?$less@K@std@@V?$allocator@U?$pair@$$CBKPAVCClientSock@@@std@@@3@$0A@@std@@@std@@QBEAAU?$pair@$$CBKPAVCClientSock@@@2@XZ
_TEXT	SEGMENT PARA USE32 PUBLIC 'CODE'
_TEXT	ENDS
;	COMDAT ??8const_iterator@?$_Tree@V?$_Tmap_traits@KPAVCClientSock@@U?$less@K@std@@V?$allocator@U?$pair@$$CBKPAVCClientSock@@@std@@@3@$0A@@std@@@std@@QBE_NABV012@@Z
_TEXT	SEGMENT PARA USE32 PUBLIC 'CODE'
_TEXT	ENDS
;	COMDAT ?_Mynode@const_iterator@?$_Tree@V?$_Tmap_traits@KPAVCClientSock@@U?$less@K@std@@V?$allocator@U?$pair@$$CBKPAVCClientSock@@@std@@@3@$0A@@std@@@std@@QBEPAU_Node@?$_Tree_nod@V?$_Tmap_traits@KPAVCClientSock@@U?$less@K@std@@V?$allocator@U?$pair@$$CBKPAVCClientSock@@@std@@@3@$0A@@std@@@3@XZ
_TEXT	SEGMENT PARA USE32 PUBLIC 'CODE'
_TEXT	ENDS
;	COMDAT ?_Key@?$_Tree@V?$_Tmap_traits@KPAVCClientSockE@@U?$less@K@std@@V?$allocator@U?$pair@$$CBKPAVCClientSockE@@@std@@@3@$0A@@std@@@std@@KAABKPAU_Node@?$_Tree_nod@V?$_Tmap_traits@KPAVCClientSockE@@U?$less@K@std@@V?$allocator@U?$pair@$$CBKPAVCClientSockE@@@std@@@3@$0A@@std@@@2@@Z
_TEXT	SEGMENT PARA USE32 PUBLIC 'CODE'
_TEXT	ENDS
;	COMDAT ??0?$_Tree@V?$_Tmap_traits@KPAVCClientSockE@@U?$less@K@std@@V?$allocator@U?$pair@$$CBKPAVCClientSockE@@@std@@@3@$0A@@std@@@std@@QAE@ABU?$less@K@1@ABV?$allocator@U?$pair@$$CBKPAVCClientSockE@@@std@@@1@@Z
_TEXT	SEGMENT PARA USE32 PUBLIC 'CODE'
_TEXT	ENDS
;	COMDAT ?lower_bound@?$_Tree@V?$_Tmap_traits@KPAVCClientSockE@@U?$less@K@std@@V?$allocator@U?$pair@$$CBKPAVCClientSockE@@@std@@@3@$0A@@std@@@std@@QAE?AViterator@12@ABK@Z
_TEXT	SEGMENT PARA USE32 PUBLIC 'CODE'
_TEXT	ENDS
;	COMDAT ?_Tidy@?$_Tree@V?$_Tmap_traits@KPAVCClientSockE@@U?$less@K@std@@V?$allocator@U?$pair@$$CBKPAVCClientSockE@@@std@@@3@$0A@@std@@@std@@IAEXXZ
_TEXT	SEGMENT PARA USE32 PUBLIC 'CODE'
_TEXT	ENDS
;	COMDAT ??0?$allocator@U?$pair@$$CBKPAVCClientSockE@@@std@@@std@@QAE@XZ
_TEXT	SEGMENT PARA USE32 PUBLIC 'CODE'
_TEXT	ENDS
;	COMDAT ??0iterator@?$_Tree@V?$_Tmap_traits@KPAVCClientSockE@@U?$less@K@std@@V?$allocator@U?$pair@$$CBKPAVCClientSockE@@@std@@@3@$0A@@std@@@std@@QAE@PAU_Node@?$_Tree_nod@V?$_Tmap_traits@KPAVCClientSockE@@U?$less@K@std@@V?$allocator@U?$pair@$$CBKPAVCClientSockE@@@std@@@3@$0A@@std@@@2@@Z
_TEXT	SEGMENT PARA USE32 PUBLIC 'CODE'
_TEXT	ENDS
;	COMDAT ??Diterator@?$_Tree@V?$_Tmap_traits@KPAVCClientSockE@@U?$less@K@std@@V?$allocator@U?$pair@$$CBKPAVCClientSockE@@@std@@@3@$0A@@std@@@std@@QBEAAU?$pair@$$CBKPAVCClientSockE@@@2@XZ
_TEXT	SEGMENT PARA USE32 PUBLIC 'CODE'
_TEXT	ENDS
;	COMDAT ??8const_iterator@?$_Tree@V?$_Tmap_traits@KPAVCClientSockE@@U?$less@K@std@@V?$allocator@U?$pair@$$CBKPAVCClientSockE@@@std@@@3@$0A@@std@@@std@@QBE_NABV012@@Z
_TEXT	SEGMENT PARA USE32 PUBLIC 'CODE'
_TEXT	ENDS
;	COMDAT ?_Mynode@const_iterator@?$_Tree@V?$_Tmap_traits@KPAVCClientSockE@@U?$less@K@std@@V?$allocator@U?$pair@$$CBKPAVCClientSockE@@@std@@@3@$0A@@std@@@std@@QBEPAU_Node@?$_Tree_nod@V?$_Tmap_traits@KPAVCClientSockE@@U?$less@K@std@@V?$allocator@U?$pair@$$CBKPAVCClientSockE@@@std@@@3@$0A@@std@@@3@XZ
_TEXT	SEGMENT PARA USE32 PUBLIC 'CODE'
_TEXT	ENDS
;	COMDAT ?_Key@?$_Tree@V?$_Tmap_traits@KP8CDPDatabaseClient@@AEXAAVCAr@@KK@ZU?$less@K@std@@V?$allocator@U?$pair@$$CBKP8CDPDatabaseClient@@AEXAAVCAr@@KK@Z@std@@@4@$0A@@std@@@std@@KAABKPAU_Node@?$_Tree_nod@V?$_Tmap_traits@KP8CDPDatabaseClient@@AEXAAVCAr@@KK@ZU?$less@K@std@@V?$allocator@U?$pair@$$CBKP8CDPDatabaseClient@@AEXAAVCAr@@KK@Z@std@@@4@$0A@@std@@@2@@Z
_TEXT	SEGMENT PARA USE32 PUBLIC 'CODE'
_TEXT	ENDS
;	COMDAT ?lower_bound@?$_Tree@V?$_Tmap_traits@KP8CDPDatabaseClient@@AEXAAVCAr@@KK@ZU?$less@K@std@@V?$allocator@U?$pair@$$CBKP8CDPDatabaseClient@@AEXAAVCAr@@KK@Z@std@@@4@$0A@@std@@@std@@QAE?AViterator@12@ABK@Z
_TEXT	SEGMENT PARA USE32 PUBLIC 'CODE'
_TEXT	ENDS
;	COMDAT ??0iterator@?$_Tree@V?$_Tmap_traits@KP8CDPDatabaseClient@@AEXAAVCAr@@KK@ZU?$less@K@std@@V?$allocator@U?$pair@$$CBKP8CDPDatabaseClient@@AEXAAVCAr@@KK@Z@std@@@4@$0A@@std@@@std@@QAE@PAU_Node@?$_Tree_nod@V?$_Tmap_traits@KP8CDPDatabaseClient@@AEXAAVCAr@@KK@ZU?$less@K@std@@V?$allocator@U?$pair@$$CBKP8CDPDatabaseClient@@AEXAAVCAr@@KK@Z@std@@@4@$0A@@std@@@2@@Z
_TEXT	SEGMENT PARA USE32 PUBLIC 'CODE'
_TEXT	ENDS
;	COMDAT ??Diterator@?$_Tree@V?$_Tmap_traits@KP8CDPDatabaseClient@@AEXAAVCAr@@KK@ZU?$less@K@std@@V?$allocator@U?$pair@$$CBKP8CDPDatabaseClient@@AEXAAVCAr@@KK@Z@std@@@4@$0A@@std@@@std@@QBEAAU?$pair@$$CBKP8CDPDatabaseClient@@AEXAAVCAr@@KK@Z@2@XZ
_TEXT	SEGMENT PARA USE32 PUBLIC 'CODE'
_TEXT	ENDS
;	COMDAT ??8const_iterator@?$_Tree@V?$_Tmap_traits@KP8CDPDatabaseClient@@AEXAAVCAr@@KK@ZU?$less@K@std@@V?$allocator@U?$pair@$$CBKP8CDPDatabaseClient@@AEXAAVCAr@@KK@Z@std@@@4@$0A@@std@@@std@@QBE_NABV012@@Z
_TEXT	SEGMENT PARA USE32 PUBLIC 'CODE'
_TEXT	ENDS
;	COMDAT ?_Mynode@const_iterator@?$_Tree@V?$_Tmap_traits@KP8CDPDatabaseClient@@AEXAAVCAr@@KK@ZU?$less@K@std@@V?$allocator@U?$pair@$$CBKP8CDPDatabaseClient@@AEXAAVCAr@@KK@Z@std@@@4@$0A@@std@@@std@@QBEPAU_Node@?$_Tree_nod@V?$_Tmap_traits@KP8CDPDatabaseClient@@AEXAAVCAr@@KK@ZU?$less@K@std@@V?$allocator@U?$pair@$$CBKP8CDPDatabaseClient@@AEXAAVCAr@@KK@Z@std@@@4@$0A@@std@@@3@XZ
_TEXT	SEGMENT PARA USE32 PUBLIC 'CODE'
_TEXT	ENDS
;	COMDAT ?_Key@?$_Tree@V?$_Tmap_traits@KP8CDPSrvr@@AEXAAVCAr@@KKPAEK@ZU?$less@K@std@@V?$allocator@U?$pair@$$CBKP8CDPSrvr@@AEXAAVCAr@@KKPAEK@Z@std@@@4@$0A@@std@@@std@@KAABKPAU_Node@?$_Tree_nod@V?$_Tmap_traits@KP8CDPSrvr@@AEXAAVCAr@@KKPAEK@ZU?$less@K@std@@V?$allocator@U?$pair@$$CBKP8CDPSrvr@@AEXAAVCAr@@KKPAEK@Z@std@@@4@$0A@@std@@@2@@Z
_TEXT	SEGMENT PARA USE32 PUBLIC 'CODE'
_TEXT	ENDS
;	COMDAT ?lower_bound@?$_Tree@V?$_Tmap_traits@KP8CDPSrvr@@AEXAAVCAr@@KKPAEK@ZU?$less@K@std@@V?$allocator@U?$pair@$$CBKP8CDPSrvr@@AEXAAVCAr@@KKPAEK@Z@std@@@4@$0A@@std@@@std@@QAE?AViterator@12@ABK@Z
_TEXT	SEGMENT PARA USE32 PUBLIC 'CODE'
_TEXT	ENDS
;	COMDAT ??0iterator@?$_Tree@V?$_Tmap_traits@KP8CDPSrvr@@AEXAAVCAr@@KKPAEK@ZU?$less@K@std@@V?$allocator@U?$pair@$$CBKP8CDPSrvr@@AEXAAVCAr@@KKPAEK@Z@std@@@4@$0A@@std@@@std@@QAE@PAU_Node@?$_Tree_nod@V?$_Tmap_traits@KP8CDPSrvr@@AEXAAVCAr@@KKPAEK@ZU?$less@K@std@@V?$allocator@U?$pair@$$CBKP8CDPSrvr@@AEXAAVCAr@@KKPAEK@Z@std@@@4@$0A@@std@@@2@@Z
_TEXT	SEGMENT PARA USE32 PUBLIC 'CODE'
_TEXT	ENDS
;	COMDAT ??Diterator@?$_Tree@V?$_Tmap_traits@KP8CDPSrvr@@AEXAAVCAr@@KKPAEK@ZU?$less@K@std@@V?$allocator@U?$pair@$$CBKP8CDPSrvr@@AEXAAVCAr@@KKPAEK@Z@std@@@4@$0A@@std@@@std@@QBEAAU?$pair@$$CBKP8CDPSrvr@@AEXAAVCAr@@KKPAEK@Z@2@XZ
_TEXT	SEGMENT PARA USE32 PUBLIC 'CODE'
_TEXT	ENDS
;	COMDAT ??8const_iterator@?$_Tree@V?$_Tmap_traits@KP8CDPSrvr@@AEXAAVCAr@@KKPAEK@ZU?$less@K@std@@V?$allocator@U?$pair@$$CBKP8CDPSrvr@@AEXAAVCAr@@KKPAEK@Z@std@@@4@$0A@@std@@@std@@QBE_NABV012@@Z
_TEXT	SEGMENT PARA USE32 PUBLIC 'CODE'
_TEXT	ENDS
;	COMDAT ?_Mynode@const_iterator@?$_Tree@V?$_Tmap_traits@KP8CDPSrvr@@AEXAAVCAr@@KKPAEK@ZU?$less@K@std@@V?$allocator@U?$pair@$$CBKP8CDPSrvr@@AEXAAVCAr@@KKPAEK@Z@std@@@4@$0A@@std@@@std@@QBEPAU_Node@?$_Tree_nod@V?$_Tmap_traits@KP8CDPSrvr@@AEXAAVCAr@@KKPAEK@ZU?$less@K@std@@V?$allocator@U?$pair@$$CBKP8CDPSrvr@@AEXAAVCAr@@KKPAEK@Z@std@@@4@$0A@@std@@@3@XZ
_TEXT	SEGMENT PARA USE32 PUBLIC 'CODE'
_TEXT	ENDS
;	COMDAT ??Diterator@?$vector@PAU__JOINPLAYER@CGuildCombat@@V?$allocator@PAU__JOINPLAYER@CGuildCombat@@@std@@@std@@QBEAAPAU__JOINPLAYER@CGuildCombat@@XZ
_TEXT	SEGMENT PARA USE32 PUBLIC 'CODE'
_TEXT	ENDS
;	COMDAT ??Hiterator@?$vector@PAU__JOINPLAYER@CGuildCombat@@V?$allocator@PAU__JOINPLAYER@CGuildCombat@@@std@@@std@@QBE?AV012@H@Z
_TEXT	SEGMENT PARA USE32 PUBLIC 'CODE'
_TEXT	ENDS
;	COMDAT ??Diterator@?$vector@V?$basic_string@DU?$char_traits@D@std@@V?$allocator@D@2@@std@@V?$allocator@V?$basic_string@DU?$char_traits@D@std@@V?$allocator@D@2@@std@@@2@@std@@QBEAAV?$basic_string@DU?$char_traits@D@std@@V?$allocator@D@2@@2@XZ
_TEXT	SEGMENT PARA USE32 PUBLIC 'CODE'
_TEXT	ENDS
;	COMDAT ??Hiterator@?$vector@V?$basic_string@DU?$char_traits@D@std@@V?$allocator@D@2@@std@@V?$allocator@V?$basic_string@DU?$char_traits@D@std@@V?$allocator@D@2@@std@@@2@@std@@QBE?AV012@H@Z
_TEXT	SEGMENT PARA USE32 PUBLIC 'CODE'
_TEXT	ENDS
;	COMDAT ??Diterator@?$vector@PAVCMiniGameBase@@V?$allocator@PAVCMiniGameBase@@@std@@@std@@QBEAAPAVCMiniGameBase@@XZ
_TEXT	SEGMENT PARA USE32 PUBLIC 'CODE'
_TEXT	ENDS
;	COMDAT ??Hiterator@?$vector@PAVCMiniGameBase@@V?$allocator@PAVCMiniGameBase@@@std@@@std@@QBE?AV012@H@Z
_TEXT	SEGMENT PARA USE32 PUBLIC 'CODE'
_TEXT	ENDS
;	COMDAT ??Diterator@?$vector@UGuildHouse_Furniture_Info@CGuildHouseBase@@V?$allocator@UGuildHouse_Furniture_Info@CGuildHouseBase@@@std@@@std@@QBEAAUGuildHouse_Furniture_Info@CGuildHouseBase@@XZ
_TEXT	SEGMENT PARA USE32 PUBLIC 'CODE'
_TEXT	ENDS
;	COMDAT ??Hiterator@?$vector@UGuildHouse_Furniture_Info@CGuildHouseBase@@V?$allocator@UGuildHouse_Furniture_Info@CGuildHouseBase@@@std@@@std@@QBE?AV012@H@Z
_TEXT	SEGMENT PARA USE32 PUBLIC 'CODE'
_TEXT	ENDS
;	COMDAT ??0?$allocator@V?$basic_string@DU?$char_traits@D@std@@V?$allocator@D@2@@std@@@std@@QAE@ABV01@@Z
_TEXT	SEGMENT PARA USE32 PUBLIC 'CODE'
_TEXT	ENDS
;	COMDAT ?deallocate@?$allocator@V?$basic_string@DU?$char_traits@D@std@@V?$allocator@D@2@@std@@@std@@QAEXPAV?$basic_string@DU?$char_traits@D@std@@V?$allocator@D@2@@2@I@Z
_TEXT	SEGMENT PARA USE32 PUBLIC 'CODE'
_TEXT	ENDS
;	COMDAT ?allocate@?$allocator@V?$basic_string@DU?$char_traits@D@std@@V?$allocator@D@2@@std@@@std@@QAEPAV?$basic_string@DU?$char_traits@D@std@@V?$allocator@D@2@@2@I@Z
_TEXT	SEGMENT PARA USE32 PUBLIC 'CODE'
_TEXT	ENDS
;	COMDAT ?size@?$_Tree@V?$_Tmap_traits@KPAVCCtrl@@U?$less@K@std@@V?$allocator@U?$pair@$$CBKPAVCCtrl@@@std@@@3@$0A@@std@@@std@@QBEIXZ
_TEXT	SEGMENT PARA USE32 PUBLIC 'CODE'
_TEXT	ENDS
;	COMDAT ??0iterator@?$_Tree@V?$_Tmap_traits@KPAVCCtrl@@U?$less@K@std@@V?$allocator@U?$pair@$$CBKPAVCCtrl@@@std@@@3@$0A@@std@@@std@@QAE@XZ
_TEXT	SEGMENT PARA USE32 PUBLIC 'CODE'
_TEXT	ENDS
;	COMDAT ?pop_back@?$deque@PAUtagACTMSG@@V?$allocator@PAUtagACTMSG@@@std@@@std@@QAEXXZ
_TEXT	SEGMENT PARA USE32 PUBLIC 'CODE'
_TEXT	ENDS
;	COMDAT ??0?$_Deque_map@PAUtagACTMSG@@V?$allocator@PAUtagACTMSG@@@std@@@std@@IAE@V?$allocator@PAUtagACTMSG@@@1@@Z
_TEXT	SEGMENT PARA USE32 PUBLIC 'CODE'
_TEXT	ENDS
;	COMDAT ??0?$allocator@PAUtagACTMSG@@@std@@QAE@ABV01@@Z
_TEXT	SEGMENT PARA USE32 PUBLIC 'CODE'
_TEXT	ENDS
;	COMDAT ?deallocate@?$allocator@PAUtagACTMSG@@@std@@QAEXPAPAUtagACTMSG@@I@Z
_TEXT	SEGMENT PARA USE32 PUBLIC 'CODE'
_TEXT	ENDS
;	COMDAT ?deallocate@?$allocator@PAPAUtagACTMSG@@@std@@QAEXPAPAPAUtagACTMSG@@I@Z
_TEXT	SEGMENT PARA USE32 PUBLIC 'CODE'
_TEXT	ENDS
;	COMDAT ?destroy@?$allocator@PAPAUtagACTMSG@@@std@@QAEXPAPAPAUtagACTMSG@@@Z
_TEXT	SEGMENT PARA USE32 PUBLIC 'CODE'
_TEXT	ENDS
;	COMDAT ?pop_back@?$deque@PAUtagMAGICATKMSG@@V?$allocator@PAUtagMAGICATKMSG@@@std@@@std@@QAEXXZ
_TEXT	SEGMENT PARA USE32 PUBLIC 'CODE'
_TEXT	ENDS
;	COMDAT ??0?$_Deque_map@PAUtagMAGICATKMSG@@V?$allocator@PAUtagMAGICATKMSG@@@std@@@std@@IAE@V?$allocator@PAUtagMAGICATKMSG@@@1@@Z
_TEXT	SEGMENT PARA USE32 PUBLIC 'CODE'
_TEXT	ENDS
;	COMDAT ??0?$allocator@PAUtagMAGICATKMSG@@@std@@QAE@ABV01@@Z
_TEXT	SEGMENT PARA USE32 PUBLIC 'CODE'
_TEXT	ENDS
;	COMDAT ?deallocate@?$allocator@PAUtagMAGICATKMSG@@@std@@QAEXPAPAUtagMAGICATKMSG@@I@Z
_TEXT	SEGMENT PARA USE32 PUBLIC 'CODE'
_TEXT	ENDS
;	COMDAT ?deallocate@?$allocator@PAPAUtagMAGICATKMSG@@@std@@QAEXPAPAPAUtagMAGICATKMSG@@I@Z
_TEXT	SEGMENT PARA USE32 PUBLIC 'CODE'
_TEXT	ENDS
;	COMDAT ?destroy@?$allocator@PAPAUtagMAGICATKMSG@@@std@@QAEXPAPAPAUtagMAGICATKMSG@@@Z
_TEXT	SEGMENT PARA USE32 PUBLIC 'CODE'
_TEXT	ENDS
;	COMDAT ??0const_iterator@?$deque@PAUtagACTMSG@@V?$allocator@PAUtagACTMSG@@@std@@@std@@QAE@IPBV12@@Z
_TEXT	SEGMENT PARA USE32 PUBLIC 'CODE'
_TEXT	ENDS
;	COMDAT ??0const_iterator@?$deque@PAUtagMAGICATKMSG@@V?$allocator@PAUtagMAGICATKMSG@@@std@@@std@@QAE@IPBV12@@Z
_TEXT	SEGMENT PARA USE32 PUBLIC 'CODE'
_TEXT	ENDS
;	COMDAT ?max_size@?$vector@PAVITestCase@@V?$allocator@PAVITestCase@@@std@@@std@@QBEIXZ
_TEXT	SEGMENT PARA USE32 PUBLIC 'CODE'
_TEXT	ENDS
;	COMDAT ?_Destroy@?$vector@PAVITestCase@@V?$allocator@PAVITestCase@@@std@@@std@@IAEXPAPAVITestCase@@0@Z
_TEXT	SEGMENT PARA USE32 PUBLIC 'CODE'
_TEXT	ENDS
;	COMDAT ?_Xlen@?$vector@PAVITestCase@@V?$allocator@PAVITestCase@@@std@@@std@@IBEXXZ
_TEXT	SEGMENT PARA USE32 PUBLIC 'CODE'
_TEXT	ENDS
;	COMDAT ??0?$allocator@PAVITestCase@@@std@@QAE@ABV01@@Z
_TEXT	SEGMENT PARA USE32 PUBLIC 'CODE'
_TEXT	ENDS
;	COMDAT ?deallocate@?$allocator@PAVITestCase@@@std@@QAEXPAPAVITestCase@@I@Z
_TEXT	SEGMENT PARA USE32 PUBLIC 'CODE'
_TEXT	ENDS
;	COMDAT ?allocate@?$allocator@PAVITestCase@@@std@@QAEPAPAVITestCase@@I@Z
_TEXT	SEGMENT PARA USE32 PUBLIC 'CODE'
_TEXT	ENDS
;	COMDAT ?begin@?$_Tree@V?$_Tmap_traits@KU_Friend@@U?$less@K@std@@V?$allocator@U?$pair@$$CBKU_Friend@@@std@@@3@$0A@@std@@@std@@QAE?AViterator@12@XZ
_TEXT	SEGMENT PARA USE32 PUBLIC 'CODE'
_TEXT	ENDS
;	COMDAT ?end@?$_Tree@V?$_Tmap_traits@KU_Friend@@U?$less@K@std@@V?$allocator@U?$pair@$$CBKU_Friend@@@std@@@3@$0A@@std@@@std@@QAE?AViterator@12@XZ
_TEXT	SEGMENT PARA USE32 PUBLIC 'CODE'
_TEXT	ENDS
;	COMDAT ?erase@?$_Tree@V?$_Tmap_traits@KU_Friend@@U?$less@K@std@@V?$allocator@U?$pair@$$CBKU_Friend@@@std@@@3@$0A@@std@@@std@@QAE?AViterator@12@V312@@Z
_TEXT	SEGMENT PARA USE32 PUBLIC 'CODE'
_TEXT	ENDS
;	COMDAT ?clear@?$_Tree@V?$_Tmap_traits@KU_Friend@@U?$less@K@std@@V?$allocator@U?$pair@$$CBKU_Friend@@@std@@@3@$0A@@std@@@std@@QAEXXZ
_TEXT	SEGMENT PARA USE32 PUBLIC 'CODE'
_TEXT	ENDS
;	COMDAT ?lower_bound@?$_Tree@V?$_Tmap_traits@KU_Friend@@U?$less@K@std@@V?$allocator@U?$pair@$$CBKU_Friend@@@std@@@3@$0A@@std@@@std@@QAE?AViterator@12@ABK@Z
_TEXT	SEGMENT PARA USE32 PUBLIC 'CODE'
_TEXT	ENDS
;	COMDAT ?upper_bound@?$_Tree@V?$_Tmap_traits@KU_Friend@@U?$less@K@std@@V?$allocator@U?$pair@$$CBKU_Friend@@@std@@@3@$0A@@std@@@std@@QAE?AViterator@12@ABK@Z
_TEXT	SEGMENT PARA USE32 PUBLIC 'CODE'
_TEXT	ENDS
;	COMDAT ??Eiterator@?$_Tree@V?$_Tmap_traits@KU_Friend@@U?$less@K@std@@V?$allocator@U?$pair@$$CBKU_Friend@@@std@@@3@$0A@@std@@@std@@QAE?AV012@H@Z
_TEXT	SEGMENT PARA USE32 PUBLIC 'CODE'
_TEXT	ENDS
;	COMDAT ??8const_iterator@?$_Tree@V?$_Tmap_traits@KU_Friend@@U?$less@K@std@@V?$allocator@U?$pair@$$CBKU_Friend@@@std@@@3@$0A@@std@@@std@@QBE_NABV012@@Z
_TEXT	SEGMENT PARA USE32 PUBLIC 'CODE'
_TEXT	ENDS
;	COMDAT ??9const_iterator@?$_Tree@V?$_Tmap_traits@KU_Friend@@U?$less@K@std@@V?$allocator@U?$pair@$$CBKU_Friend@@@std@@@3@$0A@@std@@@std@@QBE_NABV012@@Z
_TEXT	SEGMENT PARA USE32 PUBLIC 'CODE'
_TEXT	ENDS
;	COMDAT ?_Destroy@?$vector@PAU__JOINPLAYER@CGuildCombat@@V?$allocator@PAU__JOINPLAYER@CGuildCombat@@@std@@@std@@IAEXPAPAU__JOINPLAYER@CGuildCombat@@0@Z
_TEXT	SEGMENT PARA USE32 PUBLIC 'CODE'
_TEXT	ENDS
;	COMDAT ?deallocate@?$allocator@PAU__JOINPLAYER@CGuildCombat@@@std@@QAEXPAPAU__JOINPLAYER@CGuildCombat@@I@Z
_TEXT	SEGMENT PARA USE32 PUBLIC 'CODE'
_TEXT	ENDS
;	COMDAT ?max_size@?$vector@U__SECRETROOM_MONSTER@@V?$allocator@U__SECRETROOM_MONSTER@@@std@@@std@@QBEIXZ
_TEXT	SEGMENT PARA USE32 PUBLIC 'CODE'
_TEXT	ENDS
;	COMDAT ?_Destroy@?$vector@U__SECRETROOM_MONSTER@@V?$allocator@U__SECRETROOM_MONSTER@@@std@@@std@@IAEXPAU__SECRETROOM_MONSTER@@0@Z
_TEXT	SEGMENT PARA USE32 PUBLIC 'CODE'
_TEXT	ENDS
;	COMDAT ?_Xlen@?$vector@U__SECRETROOM_MONSTER@@V?$allocator@U__SECRETROOM_MONSTER@@@std@@@std@@IBEXXZ
_TEXT	SEGMENT PARA USE32 PUBLIC 'CODE'
_TEXT	ENDS
;	COMDAT ??0?$allocator@U__SECRETROOM_MONSTER@@@std@@QAE@ABV01@@Z
_TEXT	SEGMENT PARA USE32 PUBLIC 'CODE'
_TEXT	ENDS
;	COMDAT ?deallocate@?$allocator@U__SECRETROOM_MONSTER@@@std@@QAEXPAU__SECRETROOM_MONSTER@@I@Z
_TEXT	SEGMENT PARA USE32 PUBLIC 'CODE'
_TEXT	ENDS
;	COMDAT ?allocate@?$allocator@U__SECRETROOM_MONSTER@@@std@@QAEPAU__SECRETROOM_MONSTER@@I@Z
_TEXT	SEGMENT PARA USE32 PUBLIC 'CODE'
_TEXT	ENDS
;	COMDAT ?max_size@?$vector@V?$basic_string@DU?$char_traits@D@std@@V?$allocator@D@2@@std@@V?$allocator@V?$basic_string@DU?$char_traits@D@std@@V?$allocator@D@2@@std@@@2@@std@@QBEIXZ
_TEXT	SEGMENT PARA USE32 PUBLIC 'CODE'
_TEXT	ENDS
;	COMDAT ?_Destroy@?$vector@V?$basic_string@DU?$char_traits@D@std@@V?$allocator@D@2@@std@@V?$allocator@V?$basic_string@DU?$char_traits@D@std@@V?$allocator@D@2@@std@@@2@@std@@IAEXPAV?$basic_string@DU?$char_traits@D@std@@V?$allocator@D@2@@2@0@Z
_TEXT	SEGMENT PARA USE32 PUBLIC 'CODE'
_TEXT	ENDS
;	COMDAT ?_Insert_n@?$vector@V?$basic_string@DU?$char_traits@D@std@@V?$allocator@D@2@@std@@V?$allocator@V?$basic_string@DU?$char_traits@D@std@@V?$allocator@D@2@@std@@@2@@std@@IAEXViterator@12@IABV?$basic_string@DU?$char_traits@D@std@@V?$allocator@D@2@@2@@Z
_TEXT	SEGMENT PARA USE32 PUBLIC 'CODE'
_TEXT	ENDS
;	COMDAT ?_Xlen@?$vector@V?$basic_string@DU?$char_traits@D@std@@V?$allocator@D@2@@std@@V?$allocator@V?$basic_string@DU?$char_traits@D@std@@V?$allocator@D@2@@std@@@2@@std@@IBEXXZ
_TEXT	SEGMENT PARA USE32 PUBLIC 'CODE'
_TEXT	ENDS
;	COMDAT ?begin@?$vector@UMINIGMAME_PRIZE_LIST@CRainbowRaceMng@@V?$allocator@UMINIGMAME_PRIZE_LIST@CRainbowRaceMng@@@std@@@std@@QAE?AViterator@12@XZ
_TEXT	SEGMENT PARA USE32 PUBLIC 'CODE'
_TEXT	ENDS
;	COMDAT ?_Insert_n@?$vector@UMINIGMAME_PRIZE_LIST@CRainbowRaceMng@@V?$allocator@UMINIGMAME_PRIZE_LIST@CRainbowRaceMng@@@std@@@std@@IAEXViterator@12@IABUMINIGMAME_PRIZE_LIST@CRainbowRaceMng@@@Z
_TEXT	SEGMENT PARA USE32 PUBLIC 'CODE'
_TEXT	ENDS
;	COMDAT ?max_size@?$vector@MV?$allocator@M@std@@@std@@QBEIXZ
_TEXT	SEGMENT PARA USE32 PUBLIC 'CODE'
_TEXT	ENDS
;	COMDAT ?_Destroy@?$vector@MV?$allocator@M@std@@@std@@IAEXPAM0@Z
_TEXT	SEGMENT PARA USE32 PUBLIC 'CODE'
_TEXT	ENDS
;	COMDAT ?_Xlen@?$vector@MV?$allocator@M@std@@@std@@IBEXXZ
_TEXT	SEGMENT PARA USE32 PUBLIC 'CODE'
_TEXT	ENDS
;	COMDAT ??0?$allocator@M@std@@QAE@ABV01@@Z
_TEXT	SEGMENT PARA USE32 PUBLIC 'CODE'
_TEXT	ENDS
;	COMDAT ?deallocate@?$allocator@M@std@@QAEXPAMI@Z
_TEXT	SEGMENT PARA USE32 PUBLIC 'CODE'
_TEXT	ENDS
;	COMDAT ?allocate@?$allocator@M@std@@QAEPAMI@Z
_TEXT	SEGMENT PARA USE32 PUBLIC 'CODE'
_TEXT	ENDS
;	COMDAT ?_Color@?$_Tree@V?$_Tmap_traits@KPAVCGuildHouseBase@@U?$less@K@std@@V?$allocator@U?$pair@$$CBKPAVCGuildHouseBase@@@std@@@3@$0A@@std@@@std@@KAAADPAU_Node@?$_Tree_nod@V?$_Tmap_traits@KPAVCGuildHouseBase@@U?$less@K@std@@V?$allocator@U?$pair@$$CBKPAVCGuildHouseBase@@@std@@@3@$0A@@std@@@2@@Z
_TEXT	SEGMENT PARA USE32 PUBLIC 'CODE'
_TEXT	ENDS
;	COMDAT ?_Parent@?$_Tree@V?$_Tmap_traits@KPAVCGuildHouseBase@@U?$less@K@std@@V?$allocator@U?$pair@$$CBKPAVCGuildHouseBase@@@std@@@3@$0A@@std@@@std@@KAAAPAU_Node@?$_Tree_nod@V?$_Tmap_traits@KPAVCGuildHouseBase@@U?$less@K@std@@V?$allocator@U?$pair@$$CBKPAVCGuildHouseBase@@@std@@@3@$0A@@std@@@2@PAU342@@Z
_TEXT	SEGMENT PARA USE32 PUBLIC 'CODE'
_TEXT	ENDS
;	COMDAT ?_Myval@?$_Tree@V?$_Tmap_traits@KPAVCGuildHouseBase@@U?$less@K@std@@V?$allocator@U?$pair@$$CBKPAVCGuildHouseBase@@@std@@@3@$0A@@std@@@std@@KAAAU?$pair@$$CBKPAVCGuildHouseBase@@@2@PAU_Node@?$_Tree_nod@V?$_Tmap_traits@KPAVCGuildHouseBase@@U?$less@K@std@@V?$allocator@U?$pair@$$CBKPAVCGuildHouseBase@@@std@@@3@$0A@@std@@@2@@Z
_TEXT	SEGMENT PARA USE32 PUBLIC 'CODE'
_TEXT	ENDS
;	COMDAT ?max_size@?$_Tree@V?$_Tmap_traits@KPAVCGuildHouseBase@@U?$less@K@std@@V?$allocator@U?$pair@$$CBKPAVCGuildHouseBase@@@std@@@3@$0A@@std@@@std@@QBEIXZ
_TEXT	SEGMENT PARA USE32 PUBLIC 'CODE'
_TEXT	ENDS
;	COMDAT ?_Lmost@?$_Tree@V?$_Tmap_traits@KPAVCGuildHouseBase@@U?$less@K@std@@V?$allocator@U?$pair@$$CBKPAVCGuildHouseBase@@@std@@@3@$0A@@std@@@std@@IAEAAPAU_Node@?$_Tree_nod@V?$_Tmap_traits@KPAVCGuildHouseBase@@U?$less@K@std@@V?$allocator@U?$pair@$$CBKPAVCGuildHouseBase@@@std@@@3@$0A@@std@@@2@XZ
_TEXT	SEGMENT PARA USE32 PUBLIC 'CODE'
_TEXT	ENDS
;	COMDAT ?_Lrotate@?$_Tree@V?$_Tmap_traits@KPAVCGuildHouseBase@@U?$less@K@std@@V?$allocator@U?$pair@$$CBKPAVCGuildHouseBase@@@std@@@3@$0A@@std@@@std@@IAEXPAU_Node@?$_Tree_nod@V?$_Tmap_traits@KPAVCGuildHouseBase@@U?$less@K@std@@V?$allocator@U?$pair@$$CBKPAVCGuildHouseBase@@@std@@@3@$0A@@std@@@2@@Z
_TEXT	SEGMENT PARA USE32 PUBLIC 'CODE'
_TEXT	ENDS
;	COMDAT ?_Rmost@?$_Tree@V?$_Tmap_traits@KPAVCGuildHouseBase@@U?$less@K@std@@V?$allocator@U?$pair@$$CBKPAVCGuildHouseBase@@@std@@@3@$0A@@std@@@std@@IAEAAPAU_Node@?$_Tree_nod@V?$_Tmap_traits@KPAVCGuildHouseBase@@U?$less@K@std@@V?$allocator@U?$pair@$$CBKPAVCGuildHouseBase@@@std@@@3@$0A@@std@@@2@XZ
_TEXT	SEGMENT PARA USE32 PUBLIC 'CODE'
_TEXT	ENDS
;	COMDAT ?_Rrotate@?$_Tree@V?$_Tmap_traits@KPAVCGuildHouseBase@@U?$less@K@std@@V?$allocator@U?$pair@$$CBKPAVCGuildHouseBase@@@std@@@3@$0A@@std@@@std@@IAEXPAU_Node@?$_Tree_nod@V?$_Tmap_traits@KPAVCGuildHouseBase@@U?$less@K@std@@V?$allocator@U?$pair@$$CBKPAVCGuildHouseBase@@@std@@@3@$0A@@std@@@2@@Z
_TEXT	SEGMENT PARA USE32 PUBLIC 'CODE'
_TEXT	ENDS
;	COMDAT ?_Buynode@?$_Tree@V?$_Tmap_traits@KPAVCGuildHouseBase@@U?$less@K@std@@V?$allocator@U?$pair@$$CBKPAVCGuildHouseBase@@@std@@@3@$0A@@std@@@std@@IAEPAU_Node@?$_Tree_nod@V?$_Tmap_traits@KPAVCGuildHouseBase@@U?$less@K@std@@V?$allocator@U?$pair@$$CBKPAVCGuildHouseBase@@@std@@@3@$0A@@std@@@2@PAU342@00ABU?$pair@$$CBKPAVCGuildHouseBase@@@2@D@Z
_TEXT	SEGMENT PARA USE32 PUBLIC 'CODE'
_TEXT	ENDS
;	COMDAT ??0const_iterator@?$_Tree@V?$_Tmap_traits@KPAVCGuildHouseBase@@U?$less@K@std@@V?$allocator@U?$pair@$$CBKPAVCGuildHouseBase@@@std@@@3@$0A@@std@@@std@@QAE@PAU_Node@?$_Tree_nod@V?$_Tmap_traits@KPAVCGuildHouseBase@@U?$less@K@std@@V?$allocator@U?$pair@$$CBKPAVCGuildHouseBase@@@std@@@3@$0A@@std@@@2@@Z
_TEXT	SEGMENT PARA USE32 PUBLIC 'CODE'
_TEXT	ENDS
;	COMDAT ??Fconst_iterator@?$_Tree@V?$_Tmap_traits@KPAVCGuildHouseBase@@U?$less@K@std@@V?$allocator@U?$pair@$$CBKPAVCGuildHouseBase@@@std@@@3@$0A@@std@@@std@@QAEAAV012@XZ
_TEXT	SEGMENT PARA USE32 PUBLIC 'CODE'
_TEXT	ENDS
;	COMDAT ?begin@?$_Tree@V?$_Tmap_traits@KKU?$less@K@std@@V?$allocator@U?$pair@$$CBKK@std@@@2@$0A@@std@@@std@@QAE?AViterator@12@XZ
_TEXT	SEGMENT PARA USE32 PUBLIC 'CODE'
_TEXT	ENDS
;	COMDAT ?end@?$_Tree@V?$_Tmap_traits@KKU?$less@K@std@@V?$allocator@U?$pair@$$CBKK@std@@@2@$0A@@std@@@std@@QAE?AViterator@12@XZ
_TEXT	SEGMENT PARA USE32 PUBLIC 'CODE'
_TEXT	ENDS
;	COMDAT ?erase@?$_Tree@V?$_Tmap_traits@KKU?$less@K@std@@V?$allocator@U?$pair@$$CBKK@std@@@2@$0A@@std@@@std@@QAE?AViterator@12@V312@@Z
_TEXT	SEGMENT PARA USE32 PUBLIC 'CODE'
_TEXT	ENDS
;	COMDAT ?clear@?$_Tree@V?$_Tmap_traits@KKU?$less@K@std@@V?$allocator@U?$pair@$$CBKK@std@@@2@$0A@@std@@@std@@QAEXXZ
_TEXT	SEGMENT PARA USE32 PUBLIC 'CODE'
_TEXT	ENDS
;	COMDAT ?lower_bound@?$_Tree@V?$_Tmap_traits@KKU?$less@K@std@@V?$allocator@U?$pair@$$CBKK@std@@@2@$0A@@std@@@std@@QAE?AViterator@12@ABK@Z
_TEXT	SEGMENT PARA USE32 PUBLIC 'CODE'
_TEXT	ENDS
;	COMDAT ?upper_bound@?$_Tree@V?$_Tmap_traits@KKU?$less@K@std@@V?$allocator@U?$pair@$$CBKK@std@@@2@$0A@@std@@@std@@QAE?AViterator@12@ABK@Z
_TEXT	SEGMENT PARA USE32 PUBLIC 'CODE'
_TEXT	ENDS
;	COMDAT ??Eiterator@?$_Tree@V?$_Tmap_traits@KKU?$less@K@std@@V?$allocator@U?$pair@$$CBKK@std@@@2@$0A@@std@@@std@@QAE?AV012@H@Z
_TEXT	SEGMENT PARA USE32 PUBLIC 'CODE'
_TEXT	ENDS
;	COMDAT ??8const_iterator@?$_Tree@V?$_Tmap_traits@KKU?$less@K@std@@V?$allocator@U?$pair@$$CBKK@std@@@2@$0A@@std@@@std@@QBE_NABV012@@Z
_TEXT	SEGMENT PARA USE32 PUBLIC 'CODE'
_TEXT	ENDS
;	COMDAT ??9const_iterator@?$_Tree@V?$_Tmap_traits@KKU?$less@K@std@@V?$allocator@U?$pair@$$CBKK@std@@@2@$0A@@std@@@std@@QBE_NABV012@@Z
_TEXT	SEGMENT PARA USE32 PUBLIC 'CODE'
_TEXT	ENDS
;	COMDAT ?_Left@?$_Tree@V?$_Tmap_traits@KPAVCClientSock@@U?$less@K@std@@V?$allocator@U?$pair@$$CBKPAVCClientSock@@@std@@@3@$0A@@std@@@std@@KAAAPAU_Node@?$_Tree_nod@V?$_Tmap_traits@KPAVCClientSock@@U?$less@K@std@@V?$allocator@U?$pair@$$CBKPAVCClientSock@@@std@@@3@$0A@@std@@@2@PAU342@@Z
_TEXT	SEGMENT PARA USE32 PUBLIC 'CODE'
_TEXT	ENDS
;	COMDAT ?_Parent@?$_Tree@V?$_Tmap_traits@KPAVCClientSock@@U?$less@K@std@@V?$allocator@U?$pair@$$CBKPAVCClientSock@@@std@@@3@$0A@@std@@@std@@KAAAPAU_Node@?$_Tree_nod@V?$_Tmap_traits@KPAVCClientSock@@U?$less@K@std@@V?$allocator@U?$pair@$$CBKPAVCClientSock@@@std@@@3@$0A@@std@@@2@PAU342@@Z
_TEXT	SEGMENT PARA USE32 PUBLIC 'CODE'
_TEXT	ENDS
;	COMDAT ?_Right@?$_Tree@V?$_Tmap_traits@KPAVCClientSock@@U?$less@K@std@@V?$allocator@U?$pair@$$CBKPAVCClientSock@@@std@@@3@$0A@@std@@@std@@KAAAPAU_Node@?$_Tree_nod@V?$_Tmap_traits@KPAVCClientSock@@U?$less@K@std@@V?$allocator@U?$pair@$$CBKPAVCClientSock@@@std@@@3@$0A@@std@@@2@PAU342@@Z
_TEXT	SEGMENT PARA USE32 PUBLIC 'CODE'
_TEXT	ENDS
;	COMDAT ?_Myval@?$_Tree@V?$_Tmap_traits@KPAVCClientSock@@U?$less@K@std@@V?$allocator@U?$pair@$$CBKPAVCClientSock@@@std@@@3@$0A@@std@@@std@@KAAAU?$pair@$$CBKPAVCClientSock@@@2@PAU_Node@?$_Tree_nod@V?$_Tmap_traits@KPAVCClientSock@@U?$less@K@std@@V?$allocator@U?$pair@$$CBKPAVCClientSock@@@std@@@3@$0A@@std@@@2@@Z
_TEXT	SEGMENT PARA USE32 PUBLIC 'CODE'
_TEXT	ENDS
;	COMDAT ?begin@?$_Tree@V?$_Tmap_traits@KPAVCClientSock@@U?$less@K@std@@V?$allocator@U?$pair@$$CBKPAVCClientSock@@@std@@@3@$0A@@std@@@std@@QAE?AViterator@12@XZ
_TEXT	SEGMENT PARA USE32 PUBLIC 'CODE'
_TEXT	ENDS
;	COMDAT ?erase@?$_Tree@V?$_Tmap_traits@KPAVCClientSock@@U?$less@K@std@@V?$allocator@U?$pair@$$CBKPAVCClientSock@@@std@@@3@$0A@@std@@@std@@QAE?AViterator@12@V312@0@Z
_TEXT	SEGMENT PARA USE32 PUBLIC 'CODE'
_TEXT	ENDS
;	COMDAT ?_Init@?$_Tree@V?$_Tmap_traits@KPAVCClientSock@@U?$less@K@std@@V?$allocator@U?$pair@$$CBKPAVCClientSock@@@std@@@3@$0A@@std@@@std@@IAEXXZ
_TEXT	SEGMENT PARA USE32 PUBLIC 'CODE'
_TEXT	ENDS
;	COMDAT ?_Lbound@?$_Tree@V?$_Tmap_traits@KPAVCClientSock@@U?$less@K@std@@V?$allocator@U?$pair@$$CBKPAVCClientSock@@@std@@@3@$0A@@std@@@std@@IBEPAU_Node@?$_Tree_nod@V?$_Tmap_traits@KPAVCClientSock@@U?$less@K@std@@V?$allocator@U?$pair@$$CBKPAVCClientSock@@@std@@@3@$0A@@std@@@2@ABK@Z
_TEXT	SEGMENT PARA USE32 PUBLIC 'CODE'
_TEXT	ENDS
;	COMDAT ??0?$_Tree_val@V?$_Tmap_traits@KPAVCClientSock@@U?$less@K@std@@V?$allocator@U?$pair@$$CBKPAVCClientSock@@@std@@@3@$0A@@std@@@std@@IAE@ABU?$less@K@1@V?$allocator@U?$pair@$$CBKPAVCClientSock@@@std@@@1@@Z
_TEXT	SEGMENT PARA USE32 PUBLIC 'CODE'
_TEXT	ENDS
;	COMDAT ?_Kfn@?$_Tmap_traits@KPAVCClientSock@@U?$less@K@std@@V?$allocator@U?$pair@$$CBKPAVCClientSock@@@std@@@3@$0A@@std@@SAABKABU?$pair@$$CBKPAVCClientSock@@@2@@Z
_TEXT	SEGMENT PARA USE32 PUBLIC 'CODE'
_TEXT	ENDS
;	COMDAT ??0?$allocator@U?$pair@$$CBKPAVCClientSock@@@std@@@std@@QAE@ABV01@@Z
_TEXT	SEGMENT PARA USE32 PUBLIC 'CODE'
_TEXT	ENDS
;	COMDAT ?deallocate@?$allocator@U_Node@?$_Tree_nod@V?$_Tmap_traits@KPAVCClientSock@@U?$less@K@std@@V?$allocator@U?$pair@$$CBKPAVCClientSock@@@std@@@3@$0A@@std@@@std@@@std@@QAEXPAU_Node@?$_Tree_nod@V?$_Tmap_traits@KPAVCClientSock@@U?$less@K@std@@V?$allocator@U?$pair@$$CBKPAVCClientSock@@@std@@@3@$0A@@std@@@2@I@Z
_TEXT	SEGMENT PARA USE32 PUBLIC 'CODE'
_TEXT	ENDS
;	COMDAT ?destroy@?$allocator@PAU_Node@?$_Tree_nod@V?$_Tmap_traits@KPAVCClientSock@@U?$less@K@std@@V?$allocator@U?$pair@$$CBKPAVCClientSock@@@std@@@3@$0A@@std@@@std@@@std@@QAEXPAPAU_Node@?$_Tree_nod@V?$_Tmap_traits@KPAVCClientSock@@U?$less@K@std@@V?$allocator@U?$pair@$$CBKPAVCClientSock@@@std@@@3@$0A@@std@@@2@@Z
_TEXT	SEGMENT PARA USE32 PUBLIC 'CODE'
_TEXT	ENDS
;	COMDAT ??0const_iterator@?$_Tree@V?$_Tmap_traits@KPAVCClientSock@@U?$less@K@std@@V?$allocator@U?$pair@$$CBKPAVCClientSock@@@std@@@3@$0A@@std@@@std@@QAE@PAU_Node@?$_Tree_nod@V?$_Tmap_traits@KPAVCClientSock@@U?$less@K@std@@V?$allocator@U?$pair@$$CBKPAVCClientSock@@@std@@@3@$0A@@std@@@2@@Z
_TEXT	SEGMENT PARA USE32 PUBLIC 'CODE'
_TEXT	ENDS
;	COMDAT ??Dconst_iterator@?$_Tree@V?$_Tmap_traits@KPAVCClientSock@@U?$less@K@std@@V?$allocator@U?$pair@$$CBKPAVCClientSock@@@std@@@3@$0A@@std@@@std@@QBEABU?$pair@$$CBKPAVCClientSock@@@2@XZ
_TEXT	SEGMENT PARA USE32 PUBLIC 'CODE'
_TEXT	ENDS
;	COMDAT ?_Left@?$_Tree@V?$_Tmap_traits@KPAVCClientSockE@@U?$less@K@std@@V?$allocator@U?$pair@$$CBKPAVCClientSockE@@@std@@@3@$0A@@std@@@std@@KAAAPAU_Node@?$_Tree_nod@V?$_Tmap_traits@KPAVCClientSockE@@U?$less@K@std@@V?$allocator@U?$pair@$$CBKPAVCClientSockE@@@std@@@3@$0A@@std@@@2@PAU342@@Z
_TEXT	SEGMENT PARA USE32 PUBLIC 'CODE'
_TEXT	ENDS
;	COMDAT ?_Parent@?$_Tree@V?$_Tmap_traits@KPAVCClientSockE@@U?$less@K@std@@V?$allocator@U?$pair@$$CBKPAVCClientSockE@@@std@@@3@$0A@@std@@@std@@KAAAPAU_Node@?$_Tree_nod@V?$_Tmap_traits@KPAVCClientSockE@@U?$less@K@std@@V?$allocator@U?$pair@$$CBKPAVCClientSockE@@@std@@@3@$0A@@std@@@2@PAU342@@Z
_TEXT	SEGMENT PARA USE32 PUBLIC 'CODE'
_TEXT	ENDS
;	COMDAT ?_Right@?$_Tree@V?$_Tmap_traits@KPAVCClientSockE@@U?$less@K@std@@V?$allocator@U?$pair@$$CBKPAVCClientSockE@@@std@@@3@$0A@@std@@@std@@KAAAPAU_Node@?$_Tree_nod@V?$_Tmap_traits@KPAVCClientSockE@@U?$less@K@std@@V?$allocator@U?$pair@$$CBKPAVCClientSockE@@@std@@@3@$0A@@std@@@2@PAU342@@Z
_TEXT	SEGMENT PARA USE32 PUBLIC 'CODE'
_TEXT	ENDS
;	COMDAT ?_Myval@?$_Tree@V?$_Tmap_traits@KPAVCClientSockE@@U?$less@K@std@@V?$allocator@U?$pair@$$CBKPAVCClientSockE@@@std@@@3@$0A@@std@@@std@@KAAAU?$pair@$$CBKPAVCClientSockE@@@2@PAU_Node@?$_Tree_nod@V?$_Tmap_traits@KPAVCClientSockE@@U?$less@K@std@@V?$allocator@U?$pair@$$CBKPAVCClientSockE@@@std@@@3@$0A@@std@@@2@@Z
_TEXT	SEGMENT PARA USE32 PUBLIC 'CODE'
_TEXT	ENDS
;	COMDAT ?begin@?$_Tree@V?$_Tmap_traits@KPAVCClientSockE@@U?$less@K@std@@V?$allocator@U?$pair@$$CBKPAVCClientSockE@@@std@@@3@$0A@@std@@@std@@QAE?AViterator@12@XZ
_TEXT	SEGMENT PARA USE32 PUBLIC 'CODE'
_TEXT	ENDS
;	COMDAT ?erase@?$_Tree@V?$_Tmap_traits@KPAVCClientSockE@@U?$less@K@std@@V?$allocator@U?$pair@$$CBKPAVCClientSockE@@@std@@@3@$0A@@std@@@std@@QAE?AViterator@12@V312@0@Z
_TEXT	SEGMENT PARA USE32 PUBLIC 'CODE'
_TEXT	ENDS
;	COMDAT ?_Init@?$_Tree@V?$_Tmap_traits@KPAVCClientSockE@@U?$less@K@std@@V?$allocator@U?$pair@$$CBKPAVCClientSockE@@@std@@@3@$0A@@std@@@std@@IAEXXZ
_TEXT	SEGMENT PARA USE32 PUBLIC 'CODE'
_TEXT	ENDS
;	COMDAT ?_Lbound@?$_Tree@V?$_Tmap_traits@KPAVCClientSockE@@U?$less@K@std@@V?$allocator@U?$pair@$$CBKPAVCClientSockE@@@std@@@3@$0A@@std@@@std@@IBEPAU_Node@?$_Tree_nod@V?$_Tmap_traits@KPAVCClientSockE@@U?$less@K@std@@V?$allocator@U?$pair@$$CBKPAVCClientSockE@@@std@@@3@$0A@@std@@@2@ABK@Z
_TEXT	SEGMENT PARA USE32 PUBLIC 'CODE'
_TEXT	ENDS
;	COMDAT ??0?$_Tree_val@V?$_Tmap_traits@KPAVCClientSockE@@U?$less@K@std@@V?$allocator@U?$pair@$$CBKPAVCClientSockE@@@std@@@3@$0A@@std@@@std@@IAE@ABU?$less@K@1@V?$allocator@U?$pair@$$CBKPAVCClientSockE@@@std@@@1@@Z
_TEXT	SEGMENT PARA USE32 PUBLIC 'CODE'
_TEXT	ENDS
;	COMDAT ?_Kfn@?$_Tmap_traits@KPAVCClientSockE@@U?$less@K@std@@V?$allocator@U?$pair@$$CBKPAVCClientSockE@@@std@@@3@$0A@@std@@SAABKABU?$pair@$$CBKPAVCClientSockE@@@2@@Z
_TEXT	SEGMENT PARA USE32 PUBLIC 'CODE'
_TEXT	ENDS
;	COMDAT ??0?$allocator@U?$pair@$$CBKPAVCClientSockE@@@std@@@std@@QAE@ABV01@@Z
_TEXT	SEGMENT PARA USE32 PUBLIC 'CODE'
_TEXT	ENDS
;	COMDAT ?deallocate@?$allocator@U_Node@?$_Tree_nod@V?$_Tmap_traits@KPAVCClientSockE@@U?$less@K@std@@V?$allocator@U?$pair@$$CBKPAVCClientSockE@@@std@@@3@$0A@@std@@@std@@@std@@QAEXPAU_Node@?$_Tree_nod@V?$_Tmap_traits@KPAVCClientSockE@@U?$less@K@std@@V?$allocator@U?$pair@$$CBKPAVCClientSockE@@@std@@@3@$0A@@std@@@2@I@Z
_TEXT	SEGMENT PARA USE32 PUBLIC 'CODE'
_TEXT	ENDS
;	COMDAT ?destroy@?$allocator@PAU_Node@?$_Tree_nod@V?$_Tmap_traits@KPAVCClientSockE@@U?$less@K@std@@V?$allocator@U?$pair@$$CBKPAVCClientSockE@@@std@@@3@$0A@@std@@@std@@@std@@QAEXPAPAU_Node@?$_Tree_nod@V?$_Tmap_traits@KPAVCClientSockE@@U?$less@K@std@@V?$allocator@U?$pair@$$CBKPAVCClientSockE@@@std@@@3@$0A@@std@@@2@@Z
_TEXT	SEGMENT PARA USE32 PUBLIC 'CODE'
_TEXT	ENDS
;	COMDAT ??0const_iterator@?$_Tree@V?$_Tmap_traits@KPAVCClientSockE@@U?$less@K@std@@V?$allocator@U?$pair@$$CBKPAVCClientSockE@@@std@@@3@$0A@@std@@@std@@QAE@PAU_Node@?$_Tree_nod@V?$_Tmap_traits@KPAVCClientSockE@@U?$less@K@std@@V?$allocator@U?$pair@$$CBKPAVCClientSockE@@@std@@@3@$0A@@std@@@2@@Z
_TEXT	SEGMENT PARA USE32 PUBLIC 'CODE'
_TEXT	ENDS
;	COMDAT ??Dconst_iterator@?$_Tree@V?$_Tmap_traits@KPAVCClientSockE@@U?$less@K@std@@V?$allocator@U?$pair@$$CBKPAVCClientSockE@@@std@@@3@$0A@@std@@@std@@QBEABU?$pair@$$CBKPAVCClientSockE@@@2@XZ
_TEXT	SEGMENT PARA USE32 PUBLIC 'CODE'
_TEXT	ENDS
;	COMDAT ?_Myval@?$_Tree@V?$_Tmap_traits@KP8CDPDatabaseClient@@AEXAAVCAr@@KK@ZU?$less@K@std@@V?$allocator@U?$pair@$$CBKP8CDPDatabaseClient@@AEXAAVCAr@@KK@Z@std@@@4@$0A@@std@@@std@@KAAAU?$pair@$$CBKP8CDPDatabaseClient@@AEXAAVCAr@@KK@Z@2@PAU_Node@?$_Tree_nod@V?$_Tmap_traits@KP8CDPDatabaseClient@@AEXAAVCAr@@KK@ZU?$less@K@std@@V?$allocator@U?$pair@$$CBKP8CDPDatabaseClient@@AEXAAVCAr@@KK@Z@std@@@4@$0A@@std@@@2@@Z
_TEXT	SEGMENT PARA USE32 PUBLIC 'CODE'
_TEXT	ENDS
;	COMDAT ?_Lbound@?$_Tree@V?$_Tmap_traits@KP8CDPDatabaseClient@@AEXAAVCAr@@KK@ZU?$less@K@std@@V?$allocator@U?$pair@$$CBKP8CDPDatabaseClient@@AEXAAVCAr@@KK@Z@std@@@4@$0A@@std@@@std@@IBEPAU_Node@?$_Tree_nod@V?$_Tmap_traits@KP8CDPDatabaseClient@@AEXAAVCAr@@KK@ZU?$less@K@std@@V?$allocator@U?$pair@$$CBKP8CDPDatabaseClient@@AEXAAVCAr@@KK@Z@std@@@4@$0A@@std@@@2@ABK@Z
_TEXT	SEGMENT PARA USE32 PUBLIC 'CODE'
_TEXT	ENDS
;	COMDAT ?_Kfn@?$_Tmap_traits@KP8CDPDatabaseClient@@AEXAAVCAr@@KK@ZU?$less@K@std@@V?$allocator@U?$pair@$$CBKP8CDPDatabaseClient@@AEXAAVCAr@@KK@Z@std@@@4@$0A@@std@@SAABKABU?$pair@$$CBKP8CDPDatabaseClient@@AEXAAVCAr@@KK@Z@2@@Z
_TEXT	SEGMENT PARA USE32 PUBLIC 'CODE'
_TEXT	ENDS
;	COMDAT ??0const_iterator@?$_Tree@V?$_Tmap_traits@KP8CDPDatabaseClient@@AEXAAVCAr@@KK@ZU?$less@K@std@@V?$allocator@U?$pair@$$CBKP8CDPDatabaseClient@@AEXAAVCAr@@KK@Z@std@@@4@$0A@@std@@@std@@QAE@PAU_Node@?$_Tree_nod@V?$_Tmap_traits@KP8CDPDatabaseClient@@AEXAAVCAr@@KK@ZU?$less@K@std@@V?$allocator@U?$pair@$$CBKP8CDPDatabaseClient@@AEXAAVCAr@@KK@Z@std@@@4@$0A@@std@@@2@@Z
_TEXT	SEGMENT PARA USE32 PUBLIC 'CODE'
_TEXT	ENDS
;	COMDAT ??Dconst_iterator@?$_Tree@V?$_Tmap_traits@KP8CDPDatabaseClient@@AEXAAVCAr@@KK@ZU?$less@K@std@@V?$allocator@U?$pair@$$CBKP8CDPDatabaseClient@@AEXAAVCAr@@KK@Z@std@@@4@$0A@@std@@@std@@QBEABU?$pair@$$CBKP8CDPDatabaseClient@@AEXAAVCAr@@KK@Z@2@XZ
_TEXT	SEGMENT PARA USE32 PUBLIC 'CODE'
_TEXT	ENDS
;	COMDAT ?_Myval@?$_Tree@V?$_Tmap_traits@KP8CDPSrvr@@AEXAAVCAr@@KKPAEK@ZU?$less@K@std@@V?$allocator@U?$pair@$$CBKP8CDPSrvr@@AEXAAVCAr@@KKPAEK@Z@std@@@4@$0A@@std@@@std@@KAAAU?$pair@$$CBKP8CDPSrvr@@AEXAAVCAr@@KKPAEK@Z@2@PAU_Node@?$_Tree_nod@V?$_Tmap_traits@KP8CDPSrvr@@AEXAAVCAr@@KKPAEK@ZU?$less@K@std@@V?$allocator@U?$pair@$$CBKP8CDPSrvr@@AEXAAVCAr@@KKPAEK@Z@std@@@4@$0A@@std@@@2@@Z
_TEXT	SEGMENT PARA USE32 PUBLIC 'CODE'
_TEXT	ENDS
;	COMDAT ?_Lbound@?$_Tree@V?$_Tmap_traits@KP8CDPSrvr@@AEXAAVCAr@@KKPAEK@ZU?$less@K@std@@V?$allocator@U?$pair@$$CBKP8CDPSrvr@@AEXAAVCAr@@KKPAEK@Z@std@@@4@$0A@@std@@@std@@IBEPAU_Node@?$_Tree_nod@V?$_Tmap_traits@KP8CDPSrvr@@AEXAAVCAr@@KKPAEK@ZU?$less@K@std@@V?$allocator@U?$pair@$$CBKP8CDPSrvr@@AEXAAVCAr@@KKPAEK@Z@std@@@4@$0A@@std@@@2@ABK@Z
_TEXT	SEGMENT PARA USE32 PUBLIC 'CODE'
_TEXT	ENDS
;	COMDAT ?_Kfn@?$_Tmap_traits@KP8CDPSrvr@@AEXAAVCAr@@KKPAEK@ZU?$less@K@std@@V?$allocator@U?$pair@$$CBKP8CDPSrvr@@AEXAAVCAr@@KKPAEK@Z@std@@@4@$0A@@std@@SAABKABU?$pair@$$CBKP8CDPSrvr@@AEXAAVCAr@@KKPAEK@Z@2@@Z
_TEXT	SEGMENT PARA USE32 PUBLIC 'CODE'
_TEXT	ENDS
;	COMDAT ??0const_iterator@?$_Tree@V?$_Tmap_traits@KP8CDPSrvr@@AEXAAVCAr@@KKPAEK@ZU?$less@K@std@@V?$allocator@U?$pair@$$CBKP8CDPSrvr@@AEXAAVCAr@@KKPAEK@Z@std@@@4@$0A@@std@@@std@@QAE@PAU_Node@?$_Tree_nod@V?$_Tmap_traits@KP8CDPSrvr@@AEXAAVCAr@@KKPAEK@ZU?$less@K@std@@V?$allocator@U?$pair@$$CBKP8CDPSrvr@@AEXAAVCAr@@KKPAEK@Z@std@@@4@$0A@@std@@@2@@Z
_TEXT	SEGMENT PARA USE32 PUBLIC 'CODE'
_TEXT	ENDS
;	COMDAT ??Dconst_iterator@?$_Tree@V?$_Tmap_traits@KP8CDPSrvr@@AEXAAVCAr@@KKPAEK@ZU?$less@K@std@@V?$allocator@U?$pair@$$CBKP8CDPSrvr@@AEXAAVCAr@@KKPAEK@Z@std@@@4@$0A@@std@@@std@@QBEABU?$pair@$$CBKP8CDPSrvr@@AEXAAVCAr@@KKPAEK@Z@2@XZ
_TEXT	SEGMENT PARA USE32 PUBLIC 'CODE'
_TEXT	ENDS
;	COMDAT ??0?$pair@Viterator@?$_Tree@V?$_Tmap_traits@KU_Friend@@U?$less@K@std@@V?$allocator@U?$pair@$$CBKU_Friend@@@std@@@3@$0A@@std@@@std@@V123@@std@@QAE@ABViterator@?$_Tree@V?$_Tmap_traits@KU_Friend@@U?$less@K@std@@V?$allocator@U?$pair@$$CBKU_Friend@@@std@@@3@$0A@@std@@@1@0@Z
_TEXT	SEGMENT PARA USE32 PUBLIC 'CODE'
_TEXT	ENDS
;	COMDAT ??0iterator@?$vector@PAU__JOINPLAYER@CGuildCombat@@V?$allocator@PAU__JOINPLAYER@CGuildCombat@@@std@@@std@@QAE@PAPAU__JOINPLAYER@CGuildCombat@@@Z
_TEXT	SEGMENT PARA USE32 PUBLIC 'CODE'
_TEXT	ENDS
;	COMDAT ??Yiterator@?$vector@PAU__JOINPLAYER@CGuildCombat@@V?$allocator@PAU__JOINPLAYER@CGuildCombat@@@std@@@std@@QAEAAV012@H@Z
_TEXT	SEGMENT PARA USE32 PUBLIC 'CODE'
_TEXT	ENDS
;	COMDAT ??Dconst_iterator@?$vector@PAU__JOINPLAYER@CGuildCombat@@V?$allocator@PAU__JOINPLAYER@CGuildCombat@@@std@@@std@@QBEABQAU__JOINPLAYER@CGuildCombat@@XZ
_TEXT	SEGMENT PARA USE32 PUBLIC 'CODE'
_TEXT	ENDS
;	COMDAT ??0iterator@?$vector@V?$basic_string@DU?$char_traits@D@std@@V?$allocator@D@2@@std@@V?$allocator@V?$basic_string@DU?$char_traits@D@std@@V?$allocator@D@2@@std@@@2@@std@@QAE@PAV?$basic_string@DU?$char_traits@D@std@@V?$allocator@D@2@@2@@Z
_TEXT	SEGMENT PARA USE32 PUBLIC 'CODE'
_TEXT	ENDS
;	COMDAT ??Yiterator@?$vector@V?$basic_string@DU?$char_traits@D@std@@V?$allocator@D@2@@std@@V?$allocator@V?$basic_string@DU?$char_traits@D@std@@V?$allocator@D@2@@std@@@2@@std@@QAEAAV012@H@Z
_TEXT	SEGMENT PARA USE32 PUBLIC 'CODE'
_TEXT	ENDS
;	COMDAT ??Giterator@?$vector@V?$basic_string@DU?$char_traits@D@std@@V?$allocator@D@2@@std@@V?$allocator@V?$basic_string@DU?$char_traits@D@std@@V?$allocator@D@2@@std@@@2@@std@@QBEHABVconst_iterator@12@@Z
_TEXT	SEGMENT PARA USE32 PUBLIC 'CODE'
_TEXT	ENDS
;	COMDAT ??Dconst_iterator@?$vector@V?$basic_string@DU?$char_traits@D@std@@V?$allocator@D@2@@std@@V?$allocator@V?$basic_string@DU?$char_traits@D@std@@V?$allocator@D@2@@std@@@2@@std@@QBEABV?$basic_string@DU?$char_traits@D@std@@V?$allocator@D@2@@2@XZ
_TEXT	SEGMENT PARA USE32 PUBLIC 'CODE'
_TEXT	ENDS
;	COMDAT ??0iterator@?$vector@UMINIGMAME_PRIZE_LIST@CRainbowRaceMng@@V?$allocator@UMINIGMAME_PRIZE_LIST@CRainbowRaceMng@@@std@@@std@@QAE@PAUMINIGMAME_PRIZE_LIST@CRainbowRaceMng@@@Z
_TEXT	SEGMENT PARA USE32 PUBLIC 'CODE'
_TEXT	ENDS
;	COMDAT ??Hiterator@?$vector@UMINIGMAME_PRIZE_LIST@CRainbowRaceMng@@V?$allocator@UMINIGMAME_PRIZE_LIST@CRainbowRaceMng@@@std@@@std@@QBE?AV012@H@Z
_TEXT	SEGMENT PARA USE32 PUBLIC 'CODE'
_TEXT	ENDS
;	COMDAT ??Giterator@?$vector@UMINIGMAME_PRIZE_LIST@CRainbowRaceMng@@V?$allocator@UMINIGMAME_PRIZE_LIST@CRainbowRaceMng@@@std@@@std@@QBEHABVconst_iterator@12@@Z
_TEXT	SEGMENT PARA USE32 PUBLIC 'CODE'
_TEXT	ENDS
;	COMDAT ??0iterator@?$vector@PAVCMiniGameBase@@V?$allocator@PAVCMiniGameBase@@@std@@@std@@QAE@PAPAVCMiniGameBase@@@Z
_TEXT	SEGMENT PARA USE32 PUBLIC 'CODE'
_TEXT	ENDS
;	COMDAT ??Yiterator@?$vector@PAVCMiniGameBase@@V?$allocator@PAVCMiniGameBase@@@std@@@std@@QAEAAV012@H@Z
_TEXT	SEGMENT PARA USE32 PUBLIC 'CODE'
_TEXT	ENDS
;	COMDAT ??Dconst_iterator@?$vector@PAVCMiniGameBase@@V?$allocator@PAVCMiniGameBase@@@std@@@std@@QBEABQAVCMiniGameBase@@XZ
_TEXT	SEGMENT PARA USE32 PUBLIC 'CODE'
_TEXT	ENDS
;	COMDAT ??0iterator@?$vector@UGuildHouse_Furniture_Info@CGuildHouseBase@@V?$allocator@UGuildHouse_Furniture_Info@CGuildHouseBase@@@std@@@std@@QAE@PAUGuildHouse_Furniture_Info@CGuildHouseBase@@@Z
_TEXT	SEGMENT PARA USE32 PUBLIC 'CODE'
_TEXT	ENDS
;	COMDAT ??Yiterator@?$vector@UGuildHouse_Furniture_Info@CGuildHouseBase@@V?$allocator@UGuildHouse_Furniture_Info@CGuildHouseBase@@@std@@@std@@QAEAAV012@H@Z
_TEXT	SEGMENT PARA USE32 PUBLIC 'CODE'
_TEXT	ENDS
;	COMDAT ??Dconst_iterator@?$vector@UGuildHouse_Furniture_Info@CGuildHouseBase@@V?$allocator@UGuildHouse_Furniture_Info@CGuildHouseBase@@@std@@@std@@QBEABUGuildHouse_Furniture_Info@CGuildHouseBase@@XZ
_TEXT	SEGMENT PARA USE32 PUBLIC 'CODE'
_TEXT	ENDS
;	COMDAT ??0?$pair@Viterator@?$_Tree@V?$_Tmap_traits@KKU?$less@K@std@@V?$allocator@U?$pair@$$CBKK@std@@@2@$0A@@std@@@std@@V123@@std@@QAE@ABViterator@?$_Tree@V?$_Tmap_traits@KKU?$less@K@std@@V?$allocator@U?$pair@$$CBKK@std@@@2@$0A@@std@@@1@0@Z
_TEXT	SEGMENT PARA USE32 PUBLIC 'CODE'
_TEXT	ENDS
;	COMDAT ?max_size@?$allocator@V?$basic_string@DU?$char_traits@D@std@@V?$allocator@D@2@@std@@@std@@QBEIXZ
_TEXT	SEGMENT PARA USE32 PUBLIC 'CODE'
_TEXT	ENDS
;	COMDAT ??0const_iterator@?$_Tree@V?$_Tmap_traits@KPAVCCtrl@@U?$less@K@std@@V?$allocator@U?$pair@$$CBKPAVCCtrl@@@std@@@3@$0A@@std@@@std@@QAE@XZ
_TEXT	SEGMENT PARA USE32 PUBLIC 'CODE'
_TEXT	ENDS
;	COMDAT ?destroy@?$allocator@PAUtagACTMSG@@@std@@QAEXPAPAUtagACTMSG@@@Z
_TEXT	SEGMENT PARA USE32 PUBLIC 'CODE'
_TEXT	ENDS
;	COMDAT ?destroy@?$allocator@PAUtagMAGICATKMSG@@@std@@QAEXPAPAUtagMAGICATKMSG@@@Z
_TEXT	SEGMENT PARA USE32 PUBLIC 'CODE'
_TEXT	ENDS
;	COMDAT ?max_size@?$allocator@PAVITestCase@@@std@@QBEIXZ
_TEXT	SEGMENT PARA USE32 PUBLIC 'CODE'
_TEXT	ENDS
;	COMDAT ?_Color@?$_Tree@V?$_Tmap_traits@KU_Friend@@U?$less@K@std@@V?$allocator@U?$pair@$$CBKU_Friend@@@std@@@3@$0A@@std@@@std@@KAAADPAU_Node@?$_Tree_nod@V?$_Tmap_traits@KU_Friend@@U?$less@K@std@@V?$allocator@U?$pair@$$CBKU_Friend@@@std@@@3@$0A@@std@@@2@@Z
_TEXT	SEGMENT PARA USE32 PUBLIC 'CODE'
_TEXT	ENDS
;	COMDAT ?_Isnil@?$_Tree@V?$_Tmap_traits@KU_Friend@@U?$less@K@std@@V?$allocator@U?$pair@$$CBKU_Friend@@@std@@@3@$0A@@std@@@std@@KAAADPAU_Node@?$_Tree_nod@V?$_Tmap_traits@KU_Friend@@U?$less@K@std@@V?$allocator@U?$pair@$$CBKU_Friend@@@std@@@3@$0A@@std@@@2@@Z
_TEXT	SEGMENT PARA USE32 PUBLIC 'CODE'
_TEXT	ENDS
;	COMDAT ?_Left@?$_Tree@V?$_Tmap_traits@KU_Friend@@U?$less@K@std@@V?$allocator@U?$pair@$$CBKU_Friend@@@std@@@3@$0A@@std@@@std@@KAAAPAU_Node@?$_Tree_nod@V?$_Tmap_traits@KU_Friend@@U?$less@K@std@@V?$allocator@U?$pair@$$CBKU_Friend@@@std@@@3@$0A@@std@@@2@PAU342@@Z
_TEXT	SEGMENT PARA USE32 PUBLIC 'CODE'
_TEXT	ENDS
;	COMDAT ?_Parent@?$_Tree@V?$_Tmap_traits@KU_Friend@@U?$less@K@std@@V?$allocator@U?$pair@$$CBKU_Friend@@@std@@@3@$0A@@std@@@std@@KAAAPAU_Node@?$_Tree_nod@V?$_Tmap_traits@KU_Friend@@U?$less@K@std@@V?$allocator@U?$pair@$$CBKU_Friend@@@std@@@3@$0A@@std@@@2@PAU342@@Z
_TEXT	SEGMENT PARA USE32 PUBLIC 'CODE'
_TEXT	ENDS
;	COMDAT ?_Right@?$_Tree@V?$_Tmap_traits@KU_Friend@@U?$less@K@std@@V?$allocator@U?$pair@$$CBKU_Friend@@@std@@@3@$0A@@std@@@std@@KAAAPAU_Node@?$_Tree_nod@V?$_Tmap_traits@KU_Friend@@U?$less@K@std@@V?$allocator@U?$pair@$$CBKU_Friend@@@std@@@3@$0A@@std@@@2@PAU342@@Z
_TEXT	SEGMENT PARA USE32 PUBLIC 'CODE'
_TEXT	ENDS
;	COMDAT ?_Erase@?$_Tree@V?$_Tmap_traits@KU_Friend@@U?$less@K@std@@V?$allocator@U?$pair@$$CBKU_Friend@@@std@@@3@$0A@@std@@@std@@IAEXPAU_Node@?$_Tree_nod@V?$_Tmap_traits@KU_Friend@@U?$less@K@std@@V?$allocator@U?$pair@$$CBKU_Friend@@@std@@@3@$0A@@std@@@2@@Z
_TEXT	SEGMENT PARA USE32 PUBLIC 'CODE'
_TEXT	ENDS
;	COMDAT ?_Lbound@?$_Tree@V?$_Tmap_traits@KU_Friend@@U?$less@K@std@@V?$allocator@U?$pair@$$CBKU_Friend@@@std@@@3@$0A@@std@@@std@@IBEPAU_Node@?$_Tree_nod@V?$_Tmap_traits@KU_Friend@@U?$less@K@std@@V?$allocator@U?$pair@$$CBKU_Friend@@@std@@@3@$0A@@std@@@2@ABK@Z
_TEXT	SEGMENT PARA USE32 PUBLIC 'CODE'
_TEXT	ENDS
;	COMDAT ?_Lmost@?$_Tree@V?$_Tmap_traits@KU_Friend@@U?$less@K@std@@V?$allocator@U?$pair@$$CBKU_Friend@@@std@@@3@$0A@@std@@@std@@IAEAAPAU_Node@?$_Tree_nod@V?$_Tmap_traits@KU_Friend@@U?$less@K@std@@V?$allocator@U?$pair@$$CBKU_Friend@@@std@@@3@$0A@@std@@@2@XZ
_TEXT	SEGMENT PARA USE32 PUBLIC 'CODE'
_TEXT	ENDS
;	COMDAT ?_Lrotate@?$_Tree@V?$_Tmap_traits@KU_Friend@@U?$less@K@std@@V?$allocator@U?$pair@$$CBKU_Friend@@@std@@@3@$0A@@std@@@std@@IAEXPAU_Node@?$_Tree_nod@V?$_Tmap_traits@KU_Friend@@U?$less@K@std@@V?$allocator@U?$pair@$$CBKU_Friend@@@std@@@3@$0A@@std@@@2@@Z
_TEXT	SEGMENT PARA USE32 PUBLIC 'CODE'
_TEXT	ENDS
;	COMDAT ?_Max@?$_Tree@V?$_Tmap_traits@KU_Friend@@U?$less@K@std@@V?$allocator@U?$pair@$$CBKU_Friend@@@std@@@3@$0A@@std@@@std@@KAPAU_Node@?$_Tree_nod@V?$_Tmap_traits@KU_Friend@@U?$less@K@std@@V?$allocator@U?$pair@$$CBKU_Friend@@@std@@@3@$0A@@std@@@2@PAU342@@Z
_TEXT	SEGMENT PARA USE32 PUBLIC 'CODE'
_TEXT	ENDS
;	COMDAT ?_Min@?$_Tree@V?$_Tmap_traits@KU_Friend@@U?$less@K@std@@V?$allocator@U?$pair@$$CBKU_Friend@@@std@@@3@$0A@@std@@@std@@KAPAU_Node@?$_Tree_nod@V?$_Tmap_traits@KU_Friend@@U?$less@K@std@@V?$allocator@U?$pair@$$CBKU_Friend@@@std@@@3@$0A@@std@@@2@PAU342@@Z
_TEXT	SEGMENT PARA USE32 PUBLIC 'CODE'
_TEXT	ENDS
;	COMDAT ?_Rmost@?$_Tree@V?$_Tmap_traits@KU_Friend@@U?$less@K@std@@V?$allocator@U?$pair@$$CBKU_Friend@@@std@@@3@$0A@@std@@@std@@IAEAAPAU_Node@?$_Tree_nod@V?$_Tmap_traits@KU_Friend@@U?$less@K@std@@V?$allocator@U?$pair@$$CBKU_Friend@@@std@@@3@$0A@@std@@@2@XZ
_TEXT	SEGMENT PARA USE32 PUBLIC 'CODE'
_TEXT	ENDS
;	COMDAT ?_Root@?$_Tree@V?$_Tmap_traits@KU_Friend@@U?$less@K@std@@V?$allocator@U?$pair@$$CBKU_Friend@@@std@@@3@$0A@@std@@@std@@IAEAAPAU_Node@?$_Tree_nod@V?$_Tmap_traits@KU_Friend@@U?$less@K@std@@V?$allocator@U?$pair@$$CBKU_Friend@@@std@@@3@$0A@@std@@@2@XZ
_TEXT	SEGMENT PARA USE32 PUBLIC 'CODE'
_TEXT	ENDS
;	COMDAT ?_Rrotate@?$_Tree@V?$_Tmap_traits@KU_Friend@@U?$less@K@std@@V?$allocator@U?$pair@$$CBKU_Friend@@@std@@@3@$0A@@std@@@std@@IAEXPAU_Node@?$_Tree_nod@V?$_Tmap_traits@KU_Friend@@U?$less@K@std@@V?$allocator@U?$pair@$$CBKU_Friend@@@std@@@3@$0A@@std@@@2@@Z
_TEXT	SEGMENT PARA USE32 PUBLIC 'CODE'
_TEXT	ENDS
;	COMDAT ?_Ubound@?$_Tree@V?$_Tmap_traits@KU_Friend@@U?$less@K@std@@V?$allocator@U?$pair@$$CBKU_Friend@@@std@@@3@$0A@@std@@@std@@IBEPAU_Node@?$_Tree_nod@V?$_Tmap_traits@KU_Friend@@U?$less@K@std@@V?$allocator@U?$pair@$$CBKU_Friend@@@std@@@3@$0A@@std@@@2@ABK@Z
_TEXT	SEGMENT PARA USE32 PUBLIC 'CODE'
_TEXT	ENDS
;	COMDAT ?deallocate@?$allocator@U_Node@?$_Tree_nod@V?$_Tmap_traits@KU_Friend@@U?$less@K@std@@V?$allocator@U?$pair@$$CBKU_Friend@@@std@@@3@$0A@@std@@@std@@@std@@QAEXPAU_Node@?$_Tree_nod@V?$_Tmap_traits@KU_Friend@@U?$less@K@std@@V?$allocator@U?$pair@$$CBKU_Friend@@@std@@@3@$0A@@std@@@2@I@Z
_TEXT	SEGMENT PARA USE32 PUBLIC 'CODE'
_TEXT	ENDS
;	COMDAT ?destroy@?$allocator@U_Node@?$_Tree_nod@V?$_Tmap_traits@KU_Friend@@U?$less@K@std@@V?$allocator@U?$pair@$$CBKU_Friend@@@std@@@3@$0A@@std@@@std@@@std@@QAEXPAU_Node@?$_Tree_nod@V?$_Tmap_traits@KU_Friend@@U?$less@K@std@@V?$allocator@U?$pair@$$CBKU_Friend@@@std@@@3@$0A@@std@@@2@@Z
_TEXT	SEGMENT PARA USE32 PUBLIC 'CODE'
_TEXT	ENDS
;	COMDAT ??0iterator@?$_Tree@V?$_Tmap_traits@KU_Friend@@U?$less@K@std@@V?$allocator@U?$pair@$$CBKU_Friend@@@std@@@3@$0A@@std@@@std@@QAE@PAU_Node@?$_Tree_nod@V?$_Tmap_traits@KU_Friend@@U?$less@K@std@@V?$allocator@U?$pair@$$CBKU_Friend@@@std@@@3@$0A@@std@@@2@@Z
_TEXT	SEGMENT PARA USE32 PUBLIC 'CODE'
_TEXT	ENDS
;	COMDAT ??Eiterator@?$_Tree@V?$_Tmap_traits@KU_Friend@@U?$less@K@std@@V?$allocator@U?$pair@$$CBKU_Friend@@@std@@@3@$0A@@std@@@std@@QAEAAV012@XZ
_TEXT	SEGMENT PARA USE32 PUBLIC 'CODE'
_TEXT	ENDS
;	COMDAT ?_Mynode@const_iterator@?$_Tree@V?$_Tmap_traits@KU_Friend@@U?$less@K@std@@V?$allocator@U?$pair@$$CBKU_Friend@@@std@@@3@$0A@@std@@@std@@QBEPAU_Node@?$_Tree_nod@V?$_Tmap_traits@KU_Friend@@U?$less@K@std@@V?$allocator@U?$pair@$$CBKU_Friend@@@std@@@3@$0A@@std@@@3@XZ
_TEXT	SEGMENT PARA USE32 PUBLIC 'CODE'
_TEXT	ENDS
;	COMDAT ?max_size@?$allocator@U__SECRETROOM_MONSTER@@@std@@QBEIXZ
_TEXT	SEGMENT PARA USE32 PUBLIC 'CODE'
_TEXT	ENDS
;	COMDAT ?max_size@?$vector@UMINIGMAME_PRIZE_LIST@CRainbowRaceMng@@V?$allocator@UMINIGMAME_PRIZE_LIST@CRainbowRaceMng@@@std@@@std@@QBEIXZ
_TEXT	SEGMENT PARA USE32 PUBLIC 'CODE'
_TEXT	ENDS
;	COMDAT ?_Destroy@?$vector@UMINIGMAME_PRIZE_LIST@CRainbowRaceMng@@V?$allocator@UMINIGMAME_PRIZE_LIST@CRainbowRaceMng@@@std@@@std@@IAEXPAUMINIGMAME_PRIZE_LIST@CRainbowRaceMng@@0@Z
_TEXT	SEGMENT PARA USE32 PUBLIC 'CODE'
_TEXT	ENDS
;	COMDAT ?_Xlen@?$vector@UMINIGMAME_PRIZE_LIST@CRainbowRaceMng@@V?$allocator@UMINIGMAME_PRIZE_LIST@CRainbowRaceMng@@@std@@@std@@IBEXXZ
_TEXT	SEGMENT PARA USE32 PUBLIC 'CODE'
_TEXT	ENDS
;	COMDAT ?deallocate@?$allocator@UMINIGMAME_PRIZE_LIST@CRainbowRaceMng@@@std@@QAEXPAUMINIGMAME_PRIZE_LIST@CRainbowRaceMng@@I@Z
_TEXT	SEGMENT PARA USE32 PUBLIC 'CODE'
_TEXT	ENDS
;	COMDAT ?allocate@?$allocator@UMINIGMAME_PRIZE_LIST@CRainbowRaceMng@@@std@@QAEPAUMINIGMAME_PRIZE_LIST@CRainbowRaceMng@@I@Z
_TEXT	SEGMENT PARA USE32 PUBLIC 'CODE'
_TEXT	ENDS
;	COMDAT ?max_size@?$allocator@M@std@@QBEIXZ
_TEXT	SEGMENT PARA USE32 PUBLIC 'CODE'
_TEXT	ENDS
;	COMDAT ?max_size@?$allocator@U?$pair@$$CBKPAVCGuildHouseBase@@@std@@@std@@QBEIXZ
_TEXT	SEGMENT PARA USE32 PUBLIC 'CODE'
_TEXT	ENDS
;	COMDAT ?deallocate@?$allocator@U_Node@?$_Tree_nod@V?$_Tmap_traits@KPAVCGuildHouseBase@@U?$less@K@std@@V?$allocator@U?$pair@$$CBKPAVCGuildHouseBase@@@std@@@3@$0A@@std@@@std@@@std@@QAEXPAU_Node@?$_Tree_nod@V?$_Tmap_traits@KPAVCGuildHouseBase@@U?$less@K@std@@V?$allocator@U?$pair@$$CBKPAVCGuildHouseBase@@@std@@@3@$0A@@std@@@2@I@Z
_TEXT	SEGMENT PARA USE32 PUBLIC 'CODE'
_TEXT	ENDS
;	COMDAT ?allocate@?$allocator@U_Node@?$_Tree_nod@V?$_Tmap_traits@KPAVCGuildHouseBase@@U?$less@K@std@@V?$allocator@U?$pair@$$CBKPAVCGuildHouseBase@@@std@@@3@$0A@@std@@@std@@@std@@QAEPAU_Node@?$_Tree_nod@V?$_Tmap_traits@KPAVCGuildHouseBase@@U?$less@K@std@@V?$allocator@U?$pair@$$CBKPAVCGuildHouseBase@@@std@@@3@$0A@@std@@@2@I@Z
_TEXT	SEGMENT PARA USE32 PUBLIC 'CODE'
_TEXT	ENDS
;	COMDAT ?_Dec@const_iterator@?$_Tree@V?$_Tmap_traits@KPAVCGuildHouseBase@@U?$less@K@std@@V?$allocator@U?$pair@$$CBKPAVCGuildHouseBase@@@std@@@3@$0A@@std@@@std@@QAEXXZ
_TEXT	SEGMENT PARA USE32 PUBLIC 'CODE'
_TEXT	ENDS
;	COMDAT ?_Color@?$_Tree@V?$_Tmap_traits@KKU?$less@K@std@@V?$allocator@U?$pair@$$CBKK@std@@@2@$0A@@std@@@std@@KAAADPAU_Node@?$_Tree_nod@V?$_Tmap_traits@KKU?$less@K@std@@V?$allocator@U?$pair@$$CBKK@std@@@2@$0A@@std@@@2@@Z
_TEXT	SEGMENT PARA USE32 PUBLIC 'CODE'
_TEXT	ENDS
;	COMDAT ?_Isnil@?$_Tree@V?$_Tmap_traits@KKU?$less@K@std@@V?$allocator@U?$pair@$$CBKK@std@@@2@$0A@@std@@@std@@KAAADPAU_Node@?$_Tree_nod@V?$_Tmap_traits@KKU?$less@K@std@@V?$allocator@U?$pair@$$CBKK@std@@@2@$0A@@std@@@2@@Z
_TEXT	SEGMENT PARA USE32 PUBLIC 'CODE'
_TEXT	ENDS
;	COMDAT ?_Left@?$_Tree@V?$_Tmap_traits@KKU?$less@K@std@@V?$allocator@U?$pair@$$CBKK@std@@@2@$0A@@std@@@std@@KAAAPAU_Node@?$_Tree_nod@V?$_Tmap_traits@KKU?$less@K@std@@V?$allocator@U?$pair@$$CBKK@std@@@2@$0A@@std@@@2@PAU342@@Z
_TEXT	SEGMENT PARA USE32 PUBLIC 'CODE'
_TEXT	ENDS
;	COMDAT ?_Parent@?$_Tree@V?$_Tmap_traits@KKU?$less@K@std@@V?$allocator@U?$pair@$$CBKK@std@@@2@$0A@@std@@@std@@KAAAPAU_Node@?$_Tree_nod@V?$_Tmap_traits@KKU?$less@K@std@@V?$allocator@U?$pair@$$CBKK@std@@@2@$0A@@std@@@2@PAU342@@Z
_TEXT	SEGMENT PARA USE32 PUBLIC 'CODE'
_TEXT	ENDS
;	COMDAT ?_Right@?$_Tree@V?$_Tmap_traits@KKU?$less@K@std@@V?$allocator@U?$pair@$$CBKK@std@@@2@$0A@@std@@@std@@KAAAPAU_Node@?$_Tree_nod@V?$_Tmap_traits@KKU?$less@K@std@@V?$allocator@U?$pair@$$CBKK@std@@@2@$0A@@std@@@2@PAU342@@Z
_TEXT	SEGMENT PARA USE32 PUBLIC 'CODE'
_TEXT	ENDS
;	COMDAT ?_Erase@?$_Tree@V?$_Tmap_traits@KKU?$less@K@std@@V?$allocator@U?$pair@$$CBKK@std@@@2@$0A@@std@@@std@@IAEXPAU_Node@?$_Tree_nod@V?$_Tmap_traits@KKU?$less@K@std@@V?$allocator@U?$pair@$$CBKK@std@@@2@$0A@@std@@@2@@Z
_TEXT	SEGMENT PARA USE32 PUBLIC 'CODE'
_TEXT	ENDS
;	COMDAT ?_Lbound@?$_Tree@V?$_Tmap_traits@KKU?$less@K@std@@V?$allocator@U?$pair@$$CBKK@std@@@2@$0A@@std@@@std@@IBEPAU_Node@?$_Tree_nod@V?$_Tmap_traits@KKU?$less@K@std@@V?$allocator@U?$pair@$$CBKK@std@@@2@$0A@@std@@@2@ABK@Z
_TEXT	SEGMENT PARA USE32 PUBLIC 'CODE'
_TEXT	ENDS
;	COMDAT ?_Lmost@?$_Tree@V?$_Tmap_traits@KKU?$less@K@std@@V?$allocator@U?$pair@$$CBKK@std@@@2@$0A@@std@@@std@@IAEAAPAU_Node@?$_Tree_nod@V?$_Tmap_traits@KKU?$less@K@std@@V?$allocator@U?$pair@$$CBKK@std@@@2@$0A@@std@@@2@XZ
_TEXT	SEGMENT PARA USE32 PUBLIC 'CODE'
_TEXT	ENDS
;	COMDAT ?_Lrotate@?$_Tree@V?$_Tmap_traits@KKU?$less@K@std@@V?$allocator@U?$pair@$$CBKK@std@@@2@$0A@@std@@@std@@IAEXPAU_Node@?$_Tree_nod@V?$_Tmap_traits@KKU?$less@K@std@@V?$allocator@U?$pair@$$CBKK@std@@@2@$0A@@std@@@2@@Z
_TEXT	SEGMENT PARA USE32 PUBLIC 'CODE'
_TEXT	ENDS
;	COMDAT ?_Max@?$_Tree@V?$_Tmap_traits@KKU?$less@K@std@@V?$allocator@U?$pair@$$CBKK@std@@@2@$0A@@std@@@std@@KAPAU_Node@?$_Tree_nod@V?$_Tmap_traits@KKU?$less@K@std@@V?$allocator@U?$pair@$$CBKK@std@@@2@$0A@@std@@@2@PAU342@@Z
_TEXT	SEGMENT PARA USE32 PUBLIC 'CODE'
_TEXT	ENDS
;	COMDAT ?_Min@?$_Tree@V?$_Tmap_traits@KKU?$less@K@std@@V?$allocator@U?$pair@$$CBKK@std@@@2@$0A@@std@@@std@@KAPAU_Node@?$_Tree_nod@V?$_Tmap_traits@KKU?$less@K@std@@V?$allocator@U?$pair@$$CBKK@std@@@2@$0A@@std@@@2@PAU342@@Z
_TEXT	SEGMENT PARA USE32 PUBLIC 'CODE'
_TEXT	ENDS
;	COMDAT ?_Rmost@?$_Tree@V?$_Tmap_traits@KKU?$less@K@std@@V?$allocator@U?$pair@$$CBKK@std@@@2@$0A@@std@@@std@@IAEAAPAU_Node@?$_Tree_nod@V?$_Tmap_traits@KKU?$less@K@std@@V?$allocator@U?$pair@$$CBKK@std@@@2@$0A@@std@@@2@XZ
_TEXT	SEGMENT PARA USE32 PUBLIC 'CODE'
_TEXT	ENDS
;	COMDAT ?_Root@?$_Tree@V?$_Tmap_traits@KKU?$less@K@std@@V?$allocator@U?$pair@$$CBKK@std@@@2@$0A@@std@@@std@@IAEAAPAU_Node@?$_Tree_nod@V?$_Tmap_traits@KKU?$less@K@std@@V?$allocator@U?$pair@$$CBKK@std@@@2@$0A@@std@@@2@XZ
_TEXT	SEGMENT PARA USE32 PUBLIC 'CODE'
_TEXT	ENDS
;	COMDAT ?_Rrotate@?$_Tree@V?$_Tmap_traits@KKU?$less@K@std@@V?$allocator@U?$pair@$$CBKK@std@@@2@$0A@@std@@@std@@IAEXPAU_Node@?$_Tree_nod@V?$_Tmap_traits@KKU?$less@K@std@@V?$allocator@U?$pair@$$CBKK@std@@@2@$0A@@std@@@2@@Z
_TEXT	SEGMENT PARA USE32 PUBLIC 'CODE'
_TEXT	ENDS
;	COMDAT ?_Ubound@?$_Tree@V?$_Tmap_traits@KKU?$less@K@std@@V?$allocator@U?$pair@$$CBKK@std@@@2@$0A@@std@@@std@@IBEPAU_Node@?$_Tree_nod@V?$_Tmap_traits@KKU?$less@K@std@@V?$allocator@U?$pair@$$CBKK@std@@@2@$0A@@std@@@2@ABK@Z
_TEXT	SEGMENT PARA USE32 PUBLIC 'CODE'
_TEXT	ENDS
;	COMDAT ?deallocate@?$allocator@U_Node@?$_Tree_nod@V?$_Tmap_traits@KKU?$less@K@std@@V?$allocator@U?$pair@$$CBKK@std@@@2@$0A@@std@@@std@@@std@@QAEXPAU_Node@?$_Tree_nod@V?$_Tmap_traits@KKU?$less@K@std@@V?$allocator@U?$pair@$$CBKK@std@@@2@$0A@@std@@@2@I@Z
_TEXT	SEGMENT PARA USE32 PUBLIC 'CODE'
_TEXT	ENDS
;	COMDAT ?destroy@?$allocator@U_Node@?$_Tree_nod@V?$_Tmap_traits@KKU?$less@K@std@@V?$allocator@U?$pair@$$CBKK@std@@@2@$0A@@std@@@std@@@std@@QAEXPAU_Node@?$_Tree_nod@V?$_Tmap_traits@KKU?$less@K@std@@V?$allocator@U?$pair@$$CBKK@std@@@2@$0A@@std@@@2@@Z
_TEXT	SEGMENT PARA USE32 PUBLIC 'CODE'
_TEXT	ENDS
;	COMDAT ??0iterator@?$_Tree@V?$_Tmap_traits@KKU?$less@K@std@@V?$allocator@U?$pair@$$CBKK@std@@@2@$0A@@std@@@std@@QAE@PAU_Node@?$_Tree_nod@V?$_Tmap_traits@KKU?$less@K@std@@V?$allocator@U?$pair@$$CBKK@std@@@2@$0A@@std@@@2@@Z
_TEXT	SEGMENT PARA USE32 PUBLIC 'CODE'
_TEXT	ENDS
;	COMDAT ??Eiterator@?$_Tree@V?$_Tmap_traits@KKU?$less@K@std@@V?$allocator@U?$pair@$$CBKK@std@@@2@$0A@@std@@@std@@QAEAAV012@XZ
_TEXT	SEGMENT PARA USE32 PUBLIC 'CODE'
_TEXT	ENDS
;	COMDAT ?_Mynode@const_iterator@?$_Tree@V?$_Tmap_traits@KKU?$less@K@std@@V?$allocator@U?$pair@$$CBKK@std@@@2@$0A@@std@@@std@@QBEPAU_Node@?$_Tree_nod@V?$_Tmap_traits@KKU?$less@K@std@@V?$allocator@U?$pair@$$CBKK@std@@@2@$0A@@std@@@3@XZ
_TEXT	SEGMENT PARA USE32 PUBLIC 'CODE'
_TEXT	ENDS
;	COMDAT ?_Isnil@?$_Tree@V?$_Tmap_traits@KPAVCClientSock@@U?$less@K@std@@V?$allocator@U?$pair@$$CBKPAVCClientSock@@@std@@@3@$0A@@std@@@std@@KAAADPAU_Node@?$_Tree_nod@V?$_Tmap_traits@KPAVCClientSock@@U?$less@K@std@@V?$allocator@U?$pair@$$CBKPAVCClientSock@@@std@@@3@$0A@@std@@@2@@Z
_TEXT	SEGMENT PARA USE32 PUBLIC 'CODE'
_TEXT	ENDS
;	COMDAT ?erase@?$_Tree@V?$_Tmap_traits@KPAVCClientSock@@U?$less@K@std@@V?$allocator@U?$pair@$$CBKPAVCClientSock@@@std@@@3@$0A@@std@@@std@@QAE?AViterator@12@V312@@Z
_TEXT	SEGMENT PARA USE32 PUBLIC 'CODE'
_TEXT	ENDS
;	COMDAT ?clear@?$_Tree@V?$_Tmap_traits@KPAVCClientSock@@U?$less@K@std@@V?$allocator@U?$pair@$$CBKPAVCClientSock@@@std@@@3@$0A@@std@@@std@@QAEXXZ
_TEXT	SEGMENT PARA USE32 PUBLIC 'CODE'
_TEXT	ENDS
;	COMDAT ?_Lmost@?$_Tree@V?$_Tmap_traits@KPAVCClientSock@@U?$less@K@std@@V?$allocator@U?$pair@$$CBKPAVCClientSock@@@std@@@3@$0A@@std@@@std@@IAEAAPAU_Node@?$_Tree_nod@V?$_Tmap_traits@KPAVCClientSock@@U?$less@K@std@@V?$allocator@U?$pair@$$CBKPAVCClientSock@@@std@@@3@$0A@@std@@@2@XZ
_TEXT	SEGMENT PARA USE32 PUBLIC 'CODE'
_TEXT	ENDS
;	COMDAT ?_Rmost@?$_Tree@V?$_Tmap_traits@KPAVCClientSock@@U?$less@K@std@@V?$allocator@U?$pair@$$CBKPAVCClientSock@@@std@@@3@$0A@@std@@@std@@IAEAAPAU_Node@?$_Tree_nod@V?$_Tmap_traits@KPAVCClientSock@@U?$less@K@std@@V?$allocator@U?$pair@$$CBKPAVCClientSock@@@std@@@3@$0A@@std@@@2@XZ
_TEXT	SEGMENT PARA USE32 PUBLIC 'CODE'
_TEXT	ENDS
;	COMDAT ?_Root@?$_Tree@V?$_Tmap_traits@KPAVCClientSock@@U?$less@K@std@@V?$allocator@U?$pair@$$CBKPAVCClientSock@@@std@@@3@$0A@@std@@@std@@IAEAAPAU_Node@?$_Tree_nod@V?$_Tmap_traits@KPAVCClientSock@@U?$less@K@std@@V?$allocator@U?$pair@$$CBKPAVCClientSock@@@std@@@3@$0A@@std@@@2@XZ
_TEXT	SEGMENT PARA USE32 PUBLIC 'CODE'
_TEXT	ENDS
;	COMDAT ?_Root@?$_Tree@V?$_Tmap_traits@KPAVCClientSock@@U?$less@K@std@@V?$allocator@U?$pair@$$CBKPAVCClientSock@@@std@@@3@$0A@@std@@@std@@IBEAAPAU_Node@?$_Tree_nod@V?$_Tmap_traits@KPAVCClientSock@@U?$less@K@std@@V?$allocator@U?$pair@$$CBKPAVCClientSock@@@std@@@3@$0A@@std@@@2@XZ
_TEXT	SEGMENT PARA USE32 PUBLIC 'CODE'
_TEXT	ENDS
;	COMDAT ?_Buynode@?$_Tree@V?$_Tmap_traits@KPAVCClientSock@@U?$less@K@std@@V?$allocator@U?$pair@$$CBKPAVCClientSock@@@std@@@3@$0A@@std@@@std@@IAEPAU_Node@?$_Tree_nod@V?$_Tmap_traits@KPAVCClientSock@@U?$less@K@std@@V?$allocator@U?$pair@$$CBKPAVCClientSock@@@std@@@3@$0A@@std@@@2@XZ
_TEXT	SEGMENT PARA USE32 PUBLIC 'CODE'
_TEXT	ENDS
;	COMDAT ??0?$_Tree_ptr@V?$_Tmap_traits@KPAVCClientSock@@U?$less@K@std@@V?$allocator@U?$pair@$$CBKPAVCClientSock@@@std@@@3@$0A@@std@@@std@@IAE@ABU?$less@K@1@V?$allocator@U?$pair@$$CBKPAVCClientSock@@@std@@@1@@Z
_TEXT	SEGMENT PARA USE32 PUBLIC 'CODE'
_TEXT	ENDS
;	COMDAT ??Eiterator@?$_Tree@V?$_Tmap_traits@KPAVCClientSock@@U?$less@K@std@@V?$allocator@U?$pair@$$CBKPAVCClientSock@@@std@@@3@$0A@@std@@@std@@QAE?AV012@H@Z
_TEXT	SEGMENT PARA USE32 PUBLIC 'CODE'
_TEXT	ENDS
;	COMDAT ?_Isnil@?$_Tree@V?$_Tmap_traits@KPAVCClientSockE@@U?$less@K@std@@V?$allocator@U?$pair@$$CBKPAVCClientSockE@@@std@@@3@$0A@@std@@@std@@KAAADPAU_Node@?$_Tree_nod@V?$_Tmap_traits@KPAVCClientSockE@@U?$less@K@std@@V?$allocator@U?$pair@$$CBKPAVCClientSockE@@@std@@@3@$0A@@std@@@2@@Z
_TEXT	SEGMENT PARA USE32 PUBLIC 'CODE'
_TEXT	ENDS
;	COMDAT ?erase@?$_Tree@V?$_Tmap_traits@KPAVCClientSockE@@U?$less@K@std@@V?$allocator@U?$pair@$$CBKPAVCClientSockE@@@std@@@3@$0A@@std@@@std@@QAE?AViterator@12@V312@@Z
_TEXT	SEGMENT PARA USE32 PUBLIC 'CODE'
_TEXT	ENDS
;	COMDAT ?clear@?$_Tree@V?$_Tmap_traits@KPAVCClientSockE@@U?$less@K@std@@V?$allocator@U?$pair@$$CBKPAVCClientSockE@@@std@@@3@$0A@@std@@@std@@QAEXXZ
_TEXT	SEGMENT PARA USE32 PUBLIC 'CODE'
_TEXT	ENDS
;	COMDAT ?_Lmost@?$_Tree@V?$_Tmap_traits@KPAVCClientSockE@@U?$less@K@std@@V?$allocator@U?$pair@$$CBKPAVCClientSockE@@@std@@@3@$0A@@std@@@std@@IAEAAPAU_Node@?$_Tree_nod@V?$_Tmap_traits@KPAVCClientSockE@@U?$less@K@std@@V?$allocator@U?$pair@$$CBKPAVCClientSockE@@@std@@@3@$0A@@std@@@2@XZ
_TEXT	SEGMENT PARA USE32 PUBLIC 'CODE'
_TEXT	ENDS
;	COMDAT ?_Rmost@?$_Tree@V?$_Tmap_traits@KPAVCClientSockE@@U?$less@K@std@@V?$allocator@U?$pair@$$CBKPAVCClientSockE@@@std@@@3@$0A@@std@@@std@@IAEAAPAU_Node@?$_Tree_nod@V?$_Tmap_traits@KPAVCClientSockE@@U?$less@K@std@@V?$allocator@U?$pair@$$CBKPAVCClientSockE@@@std@@@3@$0A@@std@@@2@XZ
_TEXT	SEGMENT PARA USE32 PUBLIC 'CODE'
_TEXT	ENDS
;	COMDAT ?_Root@?$_Tree@V?$_Tmap_traits@KPAVCClientSockE@@U?$less@K@std@@V?$allocator@U?$pair@$$CBKPAVCClientSockE@@@std@@@3@$0A@@std@@@std@@IAEAAPAU_Node@?$_Tree_nod@V?$_Tmap_traits@KPAVCClientSockE@@U?$less@K@std@@V?$allocator@U?$pair@$$CBKPAVCClientSockE@@@std@@@3@$0A@@std@@@2@XZ
_TEXT	SEGMENT PARA USE32 PUBLIC 'CODE'
_TEXT	ENDS
;	COMDAT ?_Root@?$_Tree@V?$_Tmap_traits@KPAVCClientSockE@@U?$less@K@std@@V?$allocator@U?$pair@$$CBKPAVCClientSockE@@@std@@@3@$0A@@std@@@std@@IBEAAPAU_Node@?$_Tree_nod@V?$_Tmap_traits@KPAVCClientSockE@@U?$less@K@std@@V?$allocator@U?$pair@$$CBKPAVCClientSockE@@@std@@@3@$0A@@std@@@2@XZ
_TEXT	SEGMENT PARA USE32 PUBLIC 'CODE'
_TEXT	ENDS
;	COMDAT ?_Buynode@?$_Tree@V?$_Tmap_traits@KPAVCClientSockE@@U?$less@K@std@@V?$allocator@U?$pair@$$CBKPAVCClientSockE@@@std@@@3@$0A@@std@@@std@@IAEPAU_Node@?$_Tree_nod@V?$_Tmap_traits@KPAVCClientSockE@@U?$less@K@std@@V?$allocator@U?$pair@$$CBKPAVCClientSockE@@@std@@@3@$0A@@std@@@2@XZ
_TEXT	SEGMENT PARA USE32 PUBLIC 'CODE'
_TEXT	ENDS
;	COMDAT ??0?$_Tree_ptr@V?$_Tmap_traits@KPAVCClientSockE@@U?$less@K@std@@V?$allocator@U?$pair@$$CBKPAVCClientSockE@@@std@@@3@$0A@@std@@@std@@IAE@ABU?$less@K@1@V?$allocator@U?$pair@$$CBKPAVCClientSockE@@@std@@@1@@Z
_TEXT	SEGMENT PARA USE32 PUBLIC 'CODE'
_TEXT	ENDS
;	COMDAT ??Eiterator@?$_Tree@V?$_Tmap_traits@KPAVCClientSockE@@U?$less@K@std@@V?$allocator@U?$pair@$$CBKPAVCClientSockE@@@std@@@3@$0A@@std@@@std@@QAE?AV012@H@Z
_TEXT	SEGMENT PARA USE32 PUBLIC 'CODE'
_TEXT	ENDS
;	COMDAT ?_Isnil@?$_Tree@V?$_Tmap_traits@KP8CDPDatabaseClient@@AEXAAVCAr@@KK@ZU?$less@K@std@@V?$allocator@U?$pair@$$CBKP8CDPDatabaseClient@@AEXAAVCAr@@KK@Z@std@@@4@$0A@@std@@@std@@KAAADPAU_Node@?$_Tree_nod@V?$_Tmap_traits@KP8CDPDatabaseClient@@AEXAAVCAr@@KK@ZU?$less@K@std@@V?$allocator@U?$pair@$$CBKP8CDPDatabaseClient@@AEXAAVCAr@@KK@Z@std@@@4@$0A@@std@@@2@@Z
_TEXT	SEGMENT PARA USE32 PUBLIC 'CODE'
_TEXT	ENDS
;	COMDAT ?_Left@?$_Tree@V?$_Tmap_traits@KP8CDPDatabaseClient@@AEXAAVCAr@@KK@ZU?$less@K@std@@V?$allocator@U?$pair@$$CBKP8CDPDatabaseClient@@AEXAAVCAr@@KK@Z@std@@@4@$0A@@std@@@std@@KAAAPAU_Node@?$_Tree_nod@V?$_Tmap_traits@KP8CDPDatabaseClient@@AEXAAVCAr@@KK@ZU?$less@K@std@@V?$allocator@U?$pair@$$CBKP8CDPDatabaseClient@@AEXAAVCAr@@KK@Z@std@@@4@$0A@@std@@@2@PAU342@@Z
_TEXT	SEGMENT PARA USE32 PUBLIC 'CODE'
_TEXT	ENDS
;	COMDAT ?_Right@?$_Tree@V?$_Tmap_traits@KP8CDPDatabaseClient@@AEXAAVCAr@@KK@ZU?$less@K@std@@V?$allocator@U?$pair@$$CBKP8CDPDatabaseClient@@AEXAAVCAr@@KK@Z@std@@@4@$0A@@std@@@std@@KAAAPAU_Node@?$_Tree_nod@V?$_Tmap_traits@KP8CDPDatabaseClient@@AEXAAVCAr@@KK@ZU?$less@K@std@@V?$allocator@U?$pair@$$CBKP8CDPDatabaseClient@@AEXAAVCAr@@KK@Z@std@@@4@$0A@@std@@@2@PAU342@@Z
_TEXT	SEGMENT PARA USE32 PUBLIC 'CODE'
_TEXT	ENDS
;	COMDAT ?_Root@?$_Tree@V?$_Tmap_traits@KP8CDPDatabaseClient@@AEXAAVCAr@@KK@ZU?$less@K@std@@V?$allocator@U?$pair@$$CBKP8CDPDatabaseClient@@AEXAAVCAr@@KK@Z@std@@@4@$0A@@std@@@std@@IBEAAPAU_Node@?$_Tree_nod@V?$_Tmap_traits@KP8CDPDatabaseClient@@AEXAAVCAr@@KK@ZU?$less@K@std@@V?$allocator@U?$pair@$$CBKP8CDPDatabaseClient@@AEXAAVCAr@@KK@Z@std@@@4@$0A@@std@@@2@XZ
_TEXT	SEGMENT PARA USE32 PUBLIC 'CODE'
_TEXT	ENDS
;	COMDAT ?_Isnil@?$_Tree@V?$_Tmap_traits@KP8CDPSrvr@@AEXAAVCAr@@KKPAEK@ZU?$less@K@std@@V?$allocator@U?$pair@$$CBKP8CDPSrvr@@AEXAAVCAr@@KKPAEK@Z@std@@@4@$0A@@std@@@std@@KAAADPAU_Node@?$_Tree_nod@V?$_Tmap_traits@KP8CDPSrvr@@AEXAAVCAr@@KKPAEK@ZU?$less@K@std@@V?$allocator@U?$pair@$$CBKP8CDPSrvr@@AEXAAVCAr@@KKPAEK@Z@std@@@4@$0A@@std@@@2@@Z
_TEXT	SEGMENT PARA USE32 PUBLIC 'CODE'
_TEXT	ENDS
;	COMDAT ?_Left@?$_Tree@V?$_Tmap_traits@KP8CDPSrvr@@AEXAAVCAr@@KKPAEK@ZU?$less@K@std@@V?$allocator@U?$pair@$$CBKP8CDPSrvr@@AEXAAVCAr@@KKPAEK@Z@std@@@4@$0A@@std@@@std@@KAAAPAU_Node@?$_Tree_nod@V?$_Tmap_traits@KP8CDPSrvr@@AEXAAVCAr@@KKPAEK@ZU?$less@K@std@@V?$allocator@U?$pair@$$CBKP8CDPSrvr@@AEXAAVCAr@@KKPAEK@Z@std@@@4@$0A@@std@@@2@PAU342@@Z
_TEXT	SEGMENT PARA USE32 PUBLIC 'CODE'
_TEXT	ENDS
;	COMDAT ?_Right@?$_Tree@V?$_Tmap_traits@KP8CDPSrvr@@AEXAAVCAr@@KKPAEK@ZU?$less@K@std@@V?$allocator@U?$pair@$$CBKP8CDPSrvr@@AEXAAVCAr@@KKPAEK@Z@std@@@4@$0A@@std@@@std@@KAAAPAU_Node@?$_Tree_nod@V?$_Tmap_traits@KP8CDPSrvr@@AEXAAVCAr@@KKPAEK@ZU?$less@K@std@@V?$allocator@U?$pair@$$CBKP8CDPSrvr@@AEXAAVCAr@@KKPAEK@Z@std@@@4@$0A@@std@@@2@PAU342@@Z
_TEXT	SEGMENT PARA USE32 PUBLIC 'CODE'
_TEXT	ENDS
;	COMDAT ?_Root@?$_Tree@V?$_Tmap_traits@KP8CDPSrvr@@AEXAAVCAr@@KKPAEK@ZU?$less@K@std@@V?$allocator@U?$pair@$$CBKP8CDPSrvr@@AEXAAVCAr@@KKPAEK@Z@std@@@4@$0A@@std@@@std@@IBEAAPAU_Node@?$_Tree_nod@V?$_Tmap_traits@KP8CDPSrvr@@AEXAAVCAr@@KKPAEK@ZU?$less@K@std@@V?$allocator@U?$pair@$$CBKP8CDPSrvr@@AEXAAVCAr@@KKPAEK@Z@std@@@4@$0A@@std@@@2@XZ
_TEXT	SEGMENT PARA USE32 PUBLIC 'CODE'
_TEXT	ENDS
;	COMDAT ??0const_iterator@?$vector@PAU__JOINPLAYER@CGuildCombat@@V?$allocator@PAU__JOINPLAYER@CGuildCombat@@@std@@@std@@QAE@PAPAU__JOINPLAYER@CGuildCombat@@@Z
_TEXT	SEGMENT PARA USE32 PUBLIC 'CODE'
_TEXT	ENDS
;	COMDAT ??0const_iterator@?$vector@V?$basic_string@DU?$char_traits@D@std@@V?$allocator@D@2@@std@@V?$allocator@V?$basic_string@DU?$char_traits@D@std@@V?$allocator@D@2@@std@@@2@@std@@QAE@PAV?$basic_string@DU?$char_traits@D@std@@V?$allocator@D@2@@2@@Z
_TEXT	SEGMENT PARA USE32 PUBLIC 'CODE'
_TEXT	ENDS
;	COMDAT ??Gconst_iterator@?$vector@V?$basic_string@DU?$char_traits@D@std@@V?$allocator@D@2@@std@@V?$allocator@V?$basic_string@DU?$char_traits@D@std@@V?$allocator@D@2@@std@@@2@@std@@QBEHABV012@@Z
_TEXT	SEGMENT PARA USE32 PUBLIC 'CODE'
_TEXT	ENDS
;	COMDAT ??Yiterator@?$vector@UMINIGMAME_PRIZE_LIST@CRainbowRaceMng@@V?$allocator@UMINIGMAME_PRIZE_LIST@CRainbowRaceMng@@@std@@@std@@QAEAAV012@H@Z
_TEXT	SEGMENT PARA USE32 PUBLIC 'CODE'
_TEXT	ENDS
;	COMDAT ??0const_iterator@?$vector@UMINIGMAME_PRIZE_LIST@CRainbowRaceMng@@V?$allocator@UMINIGMAME_PRIZE_LIST@CRainbowRaceMng@@@std@@@std@@QAE@PAUMINIGMAME_PRIZE_LIST@CRainbowRaceMng@@@Z
_TEXT	SEGMENT PARA USE32 PUBLIC 'CODE'
_TEXT	ENDS
;	COMDAT ??Gconst_iterator@?$vector@UMINIGMAME_PRIZE_LIST@CRainbowRaceMng@@V?$allocator@UMINIGMAME_PRIZE_LIST@CRainbowRaceMng@@@std@@@std@@QBEHABV012@@Z
_TEXT	SEGMENT PARA USE32 PUBLIC 'CODE'
_TEXT	ENDS
;	COMDAT ??0const_iterator@?$vector@PAVCMiniGameBase@@V?$allocator@PAVCMiniGameBase@@@std@@@std@@QAE@PAPAVCMiniGameBase@@@Z
_TEXT	SEGMENT PARA USE32 PUBLIC 'CODE'
_TEXT	ENDS
;	COMDAT ??0const_iterator@?$vector@UGuildHouse_Furniture_Info@CGuildHouseBase@@V?$allocator@UGuildHouse_Furniture_Info@CGuildHouseBase@@@std@@@std@@QAE@PAUGuildHouse_Furniture_Info@CGuildHouseBase@@@Z
_TEXT	SEGMENT PARA USE32 PUBLIC 'CODE'
_TEXT	ENDS
;	COMDAT ??0_Node@?$_Tree_nod@V?$_Tmap_traits@KPAVCGuildHouseBase@@U?$less@K@std@@V?$allocator@U?$pair@$$CBKPAVCGuildHouseBase@@@std@@@3@$0A@@std@@@std@@QAE@PAU012@00ABU?$pair@$$CBKPAVCGuildHouseBase@@@2@D@Z
_TEXT	SEGMENT PARA USE32 PUBLIC 'CODE'
_TEXT	ENDS
;	COMDAT ?_Key@?$_Tree@V?$_Tmap_traits@KU_Friend@@U?$less@K@std@@V?$allocator@U?$pair@$$CBKU_Friend@@@std@@@3@$0A@@std@@@std@@KAABKPAU_Node@?$_Tree_nod@V?$_Tmap_traits@KU_Friend@@U?$less@K@std@@V?$allocator@U?$pair@$$CBKU_Friend@@@std@@@3@$0A@@std@@@2@@Z
_TEXT	SEGMENT PARA USE32 PUBLIC 'CODE'
_TEXT	ENDS
;	COMDAT ?_Root@?$_Tree@V?$_Tmap_traits@KU_Friend@@U?$less@K@std@@V?$allocator@U?$pair@$$CBKU_Friend@@@std@@@3@$0A@@std@@@std@@IBEAAPAU_Node@?$_Tree_nod@V?$_Tmap_traits@KU_Friend@@U?$less@K@std@@V?$allocator@U?$pair@$$CBKU_Friend@@@std@@@3@$0A@@std@@@2@XZ
_TEXT	SEGMENT PARA USE32 PUBLIC 'CODE'
_TEXT	ENDS
;	COMDAT ??0const_iterator@?$_Tree@V?$_Tmap_traits@KU_Friend@@U?$less@K@std@@V?$allocator@U?$pair@$$CBKU_Friend@@@std@@@3@$0A@@std@@@std@@QAE@PAU_Node@?$_Tree_nod@V?$_Tmap_traits@KU_Friend@@U?$less@K@std@@V?$allocator@U?$pair@$$CBKU_Friend@@@std@@@3@$0A@@std@@@2@@Z
_TEXT	SEGMENT PARA USE32 PUBLIC 'CODE'
_TEXT	ENDS
;	COMDAT ??Econst_iterator@?$_Tree@V?$_Tmap_traits@KU_Friend@@U?$less@K@std@@V?$allocator@U?$pair@$$CBKU_Friend@@@std@@@3@$0A@@std@@@std@@QAEAAV012@XZ
_TEXT	SEGMENT PARA USE32 PUBLIC 'CODE'
_TEXT	ENDS
;	COMDAT ?max_size@?$allocator@UMINIGMAME_PRIZE_LIST@CRainbowRaceMng@@@std@@QBEIXZ
_TEXT	SEGMENT PARA USE32 PUBLIC 'CODE'
_TEXT	ENDS
;	COMDAT ?_Max@?$_Tree@V?$_Tmap_traits@KPAVCGuildHouseBase@@U?$less@K@std@@V?$allocator@U?$pair@$$CBKPAVCGuildHouseBase@@@std@@@3@$0A@@std@@@std@@KAPAU_Node@?$_Tree_nod@V?$_Tmap_traits@KPAVCGuildHouseBase@@U?$less@K@std@@V?$allocator@U?$pair@$$CBKPAVCGuildHouseBase@@@std@@@3@$0A@@std@@@2@PAU342@@Z
_TEXT	SEGMENT PARA USE32 PUBLIC 'CODE'
_TEXT	ENDS
;	COMDAT ?_Key@?$_Tree@V?$_Tmap_traits@KKU?$less@K@std@@V?$allocator@U?$pair@$$CBKK@std@@@2@$0A@@std@@@std@@KAABKPAU_Node@?$_Tree_nod@V?$_Tmap_traits@KKU?$less@K@std@@V?$allocator@U?$pair@$$CBKK@std@@@2@$0A@@std@@@2@@Z
_TEXT	SEGMENT PARA USE32 PUBLIC 'CODE'
_TEXT	ENDS
;	COMDAT ?_Root@?$_Tree@V?$_Tmap_traits@KKU?$less@K@std@@V?$allocator@U?$pair@$$CBKK@std@@@2@$0A@@std@@@std@@IBEAAPAU_Node@?$_Tree_nod@V?$_Tmap_traits@KKU?$less@K@std@@V?$allocator@U?$pair@$$CBKK@std@@@2@$0A@@std@@@2@XZ
_TEXT	SEGMENT PARA USE32 PUBLIC 'CODE'
_TEXT	ENDS
;	COMDAT ??0const_iterator@?$_Tree@V?$_Tmap_traits@KKU?$less@K@std@@V?$allocator@U?$pair@$$CBKK@std@@@2@$0A@@std@@@std@@QAE@PAU_Node@?$_Tree_nod@V?$_Tmap_traits@KKU?$less@K@std@@V?$allocator@U?$pair@$$CBKK@std@@@2@$0A@@std@@@2@@Z
_TEXT	SEGMENT PARA USE32 PUBLIC 'CODE'
_TEXT	ENDS
;	COMDAT ??Econst_iterator@?$_Tree@V?$_Tmap_traits@KKU?$less@K@std@@V?$allocator@U?$pair@$$CBKK@std@@@2@$0A@@std@@@std@@QAEAAV012@XZ
_TEXT	SEGMENT PARA USE32 PUBLIC 'CODE'
_TEXT	ENDS
;	COMDAT ?_Color@?$_Tree@V?$_Tmap_traits@KPAVCClientSock@@U?$less@K@std@@V?$allocator@U?$pair@$$CBKPAVCClientSock@@@std@@@3@$0A@@std@@@std@@KAAADPAU_Node@?$_Tree_nod@V?$_Tmap_traits@KPAVCClientSock@@U?$less@K@std@@V?$allocator@U?$pair@$$CBKPAVCClientSock@@@std@@@3@$0A@@std@@@2@@Z
_TEXT	SEGMENT PARA USE32 PUBLIC 'CODE'
_TEXT	ENDS
;	COMDAT ?_Erase@?$_Tree@V?$_Tmap_traits@KPAVCClientSock@@U?$less@K@std@@V?$allocator@U?$pair@$$CBKPAVCClientSock@@@std@@@3@$0A@@std@@@std@@IAEXPAU_Node@?$_Tree_nod@V?$_Tmap_traits@KPAVCClientSock@@U?$less@K@std@@V?$allocator@U?$pair@$$CBKPAVCClientSock@@@std@@@3@$0A@@std@@@2@@Z
_TEXT	SEGMENT PARA USE32 PUBLIC 'CODE'
_TEXT	ENDS
;	COMDAT ?_Lrotate@?$_Tree@V?$_Tmap_traits@KPAVCClientSock@@U?$less@K@std@@V?$allocator@U?$pair@$$CBKPAVCClientSock@@@std@@@3@$0A@@std@@@std@@IAEXPAU_Node@?$_Tree_nod@V?$_Tmap_traits@KPAVCClientSock@@U?$less@K@std@@V?$allocator@U?$pair@$$CBKPAVCClientSock@@@std@@@3@$0A@@std@@@2@@Z
_TEXT	SEGMENT PARA USE32 PUBLIC 'CODE'
_TEXT	ENDS
;	COMDAT ?_Max@?$_Tree@V?$_Tmap_traits@KPAVCClientSock@@U?$less@K@std@@V?$allocator@U?$pair@$$CBKPAVCClientSock@@@std@@@3@$0A@@std@@@std@@KAPAU_Node@?$_Tree_nod@V?$_Tmap_traits@KPAVCClientSock@@U?$less@K@std@@V?$allocator@U?$pair@$$CBKPAVCClientSock@@@std@@@3@$0A@@std@@@2@PAU342@@Z
_TEXT	SEGMENT PARA USE32 PUBLIC 'CODE'
_TEXT	ENDS
;	COMDAT ?_Min@?$_Tree@V?$_Tmap_traits@KPAVCClientSock@@U?$less@K@std@@V?$allocator@U?$pair@$$CBKPAVCClientSock@@@std@@@3@$0A@@std@@@std@@KAPAU_Node@?$_Tree_nod@V?$_Tmap_traits@KPAVCClientSock@@U?$less@K@std@@V?$allocator@U?$pair@$$CBKPAVCClientSock@@@std@@@3@$0A@@std@@@2@PAU342@@Z
_TEXT	SEGMENT PARA USE32 PUBLIC 'CODE'
_TEXT	ENDS
;	COMDAT ?_Rrotate@?$_Tree@V?$_Tmap_traits@KPAVCClientSock@@U?$less@K@std@@V?$allocator@U?$pair@$$CBKPAVCClientSock@@@std@@@3@$0A@@std@@@std@@IAEXPAU_Node@?$_Tree_nod@V?$_Tmap_traits@KPAVCClientSock@@U?$less@K@std@@V?$allocator@U?$pair@$$CBKPAVCClientSock@@@std@@@3@$0A@@std@@@2@@Z
_TEXT	SEGMENT PARA USE32 PUBLIC 'CODE'
_TEXT	ENDS
;	COMDAT ??0?$_Tree_nod@V?$_Tmap_traits@KPAVCClientSock@@U?$less@K@std@@V?$allocator@U?$pair@$$CBKPAVCClientSock@@@std@@@3@$0A@@std@@@std@@IAE@ABU?$less@K@1@V?$allocator@U?$pair@$$CBKPAVCClientSock@@@std@@@1@@Z
_TEXT	SEGMENT PARA USE32 PUBLIC 'CODE'
_TEXT	ENDS
;	COMDAT ?allocate@?$allocator@U_Node@?$_Tree_nod@V?$_Tmap_traits@KPAVCClientSock@@U?$less@K@std@@V?$allocator@U?$pair@$$CBKPAVCClientSock@@@std@@@3@$0A@@std@@@std@@@std@@QAEPAU_Node@?$_Tree_nod@V?$_Tmap_traits@KPAVCClientSock@@U?$less@K@std@@V?$allocator@U?$pair@$$CBKPAVCClientSock@@@std@@@3@$0A@@std@@@2@I@Z
_TEXT	SEGMENT PARA USE32 PUBLIC 'CODE'
_TEXT	ENDS
;	COMDAT ?destroy@?$allocator@U_Node@?$_Tree_nod@V?$_Tmap_traits@KPAVCClientSock@@U?$less@K@std@@V?$allocator@U?$pair@$$CBKPAVCClientSock@@@std@@@3@$0A@@std@@@std@@@std@@QAEXPAU_Node@?$_Tree_nod@V?$_Tmap_traits@KPAVCClientSock@@U?$less@K@std@@V?$allocator@U?$pair@$$CBKPAVCClientSock@@@std@@@3@$0A@@std@@@2@@Z
_TEXT	SEGMENT PARA USE32 PUBLIC 'CODE'
_TEXT	ENDS
;	COMDAT ?construct@?$allocator@PAU_Node@?$_Tree_nod@V?$_Tmap_traits@KPAVCClientSock@@U?$less@K@std@@V?$allocator@U?$pair@$$CBKPAVCClientSock@@@std@@@3@$0A@@std@@@std@@@std@@QAEXPAPAU_Node@?$_Tree_nod@V?$_Tmap_traits@KPAVCClientSock@@U?$less@K@std@@V?$allocator@U?$pair@$$CBKPAVCClientSock@@@std@@@3@$0A@@std@@@2@ABQAU342@@Z
_TEXT	SEGMENT PARA USE32 PUBLIC 'CODE'
_TEXT	ENDS
;	COMDAT ??Eiterator@?$_Tree@V?$_Tmap_traits@KPAVCClientSock@@U?$less@K@std@@V?$allocator@U?$pair@$$CBKPAVCClientSock@@@std@@@3@$0A@@std@@@std@@QAEAAV012@XZ
_TEXT	SEGMENT PARA USE32 PUBLIC 'CODE'
_TEXT	ENDS
;	COMDAT ?_Color@?$_Tree@V?$_Tmap_traits@KPAVCClientSockE@@U?$less@K@std@@V?$allocator@U?$pair@$$CBKPAVCClientSockE@@@std@@@3@$0A@@std@@@std@@KAAADPAU_Node@?$_Tree_nod@V?$_Tmap_traits@KPAVCClientSockE@@U?$less@K@std@@V?$allocator@U?$pair@$$CBKPAVCClientSockE@@@std@@@3@$0A@@std@@@2@@Z
_TEXT	SEGMENT PARA USE32 PUBLIC 'CODE'
_TEXT	ENDS
;	COMDAT ?_Erase@?$_Tree@V?$_Tmap_traits@KPAVCClientSockE@@U?$less@K@std@@V?$allocator@U?$pair@$$CBKPAVCClientSockE@@@std@@@3@$0A@@std@@@std@@IAEXPAU_Node@?$_Tree_nod@V?$_Tmap_traits@KPAVCClientSockE@@U?$less@K@std@@V?$allocator@U?$pair@$$CBKPAVCClientSockE@@@std@@@3@$0A@@std@@@2@@Z
_TEXT	SEGMENT PARA USE32 PUBLIC 'CODE'
_TEXT	ENDS
;	COMDAT ?_Lrotate@?$_Tree@V?$_Tmap_traits@KPAVCClientSockE@@U?$less@K@std@@V?$allocator@U?$pair@$$CBKPAVCClientSockE@@@std@@@3@$0A@@std@@@std@@IAEXPAU_Node@?$_Tree_nod@V?$_Tmap_traits@KPAVCClientSockE@@U?$less@K@std@@V?$allocator@U?$pair@$$CBKPAVCClientSockE@@@std@@@3@$0A@@std@@@2@@Z
_TEXT	SEGMENT PARA USE32 PUBLIC 'CODE'
_TEXT	ENDS
;	COMDAT ?_Max@?$_Tree@V?$_Tmap_traits@KPAVCClientSockE@@U?$less@K@std@@V?$allocator@U?$pair@$$CBKPAVCClientSockE@@@std@@@3@$0A@@std@@@std@@KAPAU_Node@?$_Tree_nod@V?$_Tmap_traits@KPAVCClientSockE@@U?$less@K@std@@V?$allocator@U?$pair@$$CBKPAVCClientSockE@@@std@@@3@$0A@@std@@@2@PAU342@@Z
_TEXT	SEGMENT PARA USE32 PUBLIC 'CODE'
_TEXT	ENDS
;	COMDAT ?_Min@?$_Tree@V?$_Tmap_traits@KPAVCClientSockE@@U?$less@K@std@@V?$allocator@U?$pair@$$CBKPAVCClientSockE@@@std@@@3@$0A@@std@@@std@@KAPAU_Node@?$_Tree_nod@V?$_Tmap_traits@KPAVCClientSockE@@U?$less@K@std@@V?$allocator@U?$pair@$$CBKPAVCClientSockE@@@std@@@3@$0A@@std@@@2@PAU342@@Z
_TEXT	SEGMENT PARA USE32 PUBLIC 'CODE'
_TEXT	ENDS
;	COMDAT ?_Rrotate@?$_Tree@V?$_Tmap_traits@KPAVCClientSockE@@U?$less@K@std@@V?$allocator@U?$pair@$$CBKPAVCClientSockE@@@std@@@3@$0A@@std@@@std@@IAEXPAU_Node@?$_Tree_nod@V?$_Tmap_traits@KPAVCClientSockE@@U?$less@K@std@@V?$allocator@U?$pair@$$CBKPAVCClientSockE@@@std@@@3@$0A@@std@@@2@@Z
_TEXT	SEGMENT PARA USE32 PUBLIC 'CODE'
_TEXT	ENDS
;	COMDAT ??0?$_Tree_nod@V?$_Tmap_traits@KPAVCClientSockE@@U?$less@K@std@@V?$allocator@U?$pair@$$CBKPAVCClientSockE@@@std@@@3@$0A@@std@@@std@@IAE@ABU?$less@K@1@V?$allocator@U?$pair@$$CBKPAVCClientSockE@@@std@@@1@@Z
_TEXT	SEGMENT PARA USE32 PUBLIC 'CODE'
_TEXT	ENDS
;	COMDAT ?allocate@?$allocator@U_Node@?$_Tree_nod@V?$_Tmap_traits@KPAVCClientSockE@@U?$less@K@std@@V?$allocator@U?$pair@$$CBKPAVCClientSockE@@@std@@@3@$0A@@std@@@std@@@std@@QAEPAU_Node@?$_Tree_nod@V?$_Tmap_traits@KPAVCClientSockE@@U?$less@K@std@@V?$allocator@U?$pair@$$CBKPAVCClientSockE@@@std@@@3@$0A@@std@@@2@I@Z
_TEXT	SEGMENT PARA USE32 PUBLIC 'CODE'
_TEXT	ENDS
;	COMDAT ?destroy@?$allocator@U_Node@?$_Tree_nod@V?$_Tmap_traits@KPAVCClientSockE@@U?$less@K@std@@V?$allocator@U?$pair@$$CBKPAVCClientSockE@@@std@@@3@$0A@@std@@@std@@@std@@QAEXPAU_Node@?$_Tree_nod@V?$_Tmap_traits@KPAVCClientSockE@@U?$less@K@std@@V?$allocator@U?$pair@$$CBKPAVCClientSockE@@@std@@@3@$0A@@std@@@2@@Z
_TEXT	SEGMENT PARA USE32 PUBLIC 'CODE'
_TEXT	ENDS
;	COMDAT ?construct@?$allocator@PAU_Node@?$_Tree_nod@V?$_Tmap_traits@KPAVCClientSockE@@U?$less@K@std@@V?$allocator@U?$pair@$$CBKPAVCClientSockE@@@std@@@3@$0A@@std@@@std@@@std@@QAEXPAPAU_Node@?$_Tree_nod@V?$_Tmap_traits@KPAVCClientSockE@@U?$less@K@std@@V?$allocator@U?$pair@$$CBKPAVCClientSockE@@@std@@@3@$0A@@std@@@2@ABQAU342@@Z
_TEXT	SEGMENT PARA USE32 PUBLIC 'CODE'
_TEXT	ENDS
;	COMDAT ??Eiterator@?$_Tree@V?$_Tmap_traits@KPAVCClientSockE@@U?$less@K@std@@V?$allocator@U?$pair@$$CBKPAVCClientSockE@@@std@@@3@$0A@@std@@@std@@QAEAAV012@XZ
_TEXT	SEGMENT PARA USE32 PUBLIC 'CODE'
_TEXT	ENDS
;	COMDAT ?_Parent@?$_Tree@V?$_Tmap_traits@KP8CDPDatabaseClient@@AEXAAVCAr@@KK@ZU?$less@K@std@@V?$allocator@U?$pair@$$CBKP8CDPDatabaseClient@@AEXAAVCAr@@KK@Z@std@@@4@$0A@@std@@@std@@KAAAPAU_Node@?$_Tree_nod@V?$_Tmap_traits@KP8CDPDatabaseClient@@AEXAAVCAr@@KK@ZU?$less@K@std@@V?$allocator@U?$pair@$$CBKP8CDPDatabaseClient@@AEXAAVCAr@@KK@Z@std@@@4@$0A@@std@@@2@PAU342@@Z
_TEXT	SEGMENT PARA USE32 PUBLIC 'CODE'
_TEXT	ENDS
;	COMDAT ?_Parent@?$_Tree@V?$_Tmap_traits@KP8CDPSrvr@@AEXAAVCAr@@KKPAEK@ZU?$less@K@std@@V?$allocator@U?$pair@$$CBKP8CDPSrvr@@AEXAAVCAr@@KKPAEK@Z@std@@@4@$0A@@std@@@std@@KAAAPAU_Node@?$_Tree_nod@V?$_Tmap_traits@KP8CDPSrvr@@AEXAAVCAr@@KKPAEK@ZU?$less@K@std@@V?$allocator@U?$pair@$$CBKP8CDPSrvr@@AEXAAVCAr@@KKPAEK@Z@std@@@4@$0A@@std@@@2@PAU342@@Z
_TEXT	SEGMENT PARA USE32 PUBLIC 'CODE'
_TEXT	ENDS
;	COMDAT ?_Myval@?$_Tree@V?$_Tmap_traits@KU_Friend@@U?$less@K@std@@V?$allocator@U?$pair@$$CBKU_Friend@@@std@@@3@$0A@@std@@@std@@KAAAU?$pair@$$CBKU_Friend@@@2@PAU_Node@?$_Tree_nod@V?$_Tmap_traits@KU_Friend@@U?$less@K@std@@V?$allocator@U?$pair@$$CBKU_Friend@@@std@@@3@$0A@@std@@@2@@Z
_TEXT	SEGMENT PARA USE32 PUBLIC 'CODE'
_TEXT	ENDS
;	COMDAT ?_Kfn@?$_Tmap_traits@KU_Friend@@U?$less@K@std@@V?$allocator@U?$pair@$$CBKU_Friend@@@std@@@3@$0A@@std@@SAABKABU?$pair@$$CBKU_Friend@@@2@@Z
_TEXT	SEGMENT PARA USE32 PUBLIC 'CODE'
_TEXT	ENDS
;	COMDAT ?_Inc@const_iterator@?$_Tree@V?$_Tmap_traits@KU_Friend@@U?$less@K@std@@V?$allocator@U?$pair@$$CBKU_Friend@@@std@@@3@$0A@@std@@@std@@QAEXXZ
_TEXT	SEGMENT PARA USE32 PUBLIC 'CODE'
_TEXT	ENDS
;	COMDAT ?_Myval@?$_Tree@V?$_Tmap_traits@KKU?$less@K@std@@V?$allocator@U?$pair@$$CBKK@std@@@2@$0A@@std@@@std@@KAAAU?$pair@$$CBKK@2@PAU_Node@?$_Tree_nod@V?$_Tmap_traits@KKU?$less@K@std@@V?$allocator@U?$pair@$$CBKK@std@@@2@$0A@@std@@@2@@Z
_TEXT	SEGMENT PARA USE32 PUBLIC 'CODE'
_TEXT	ENDS
;	COMDAT ?_Kfn@?$_Tmap_traits@KKU?$less@K@std@@V?$allocator@U?$pair@$$CBKK@std@@@2@$0A@@std@@SAABKABU?$pair@$$CBKK@2@@Z
_TEXT	SEGMENT PARA USE32 PUBLIC 'CODE'
_TEXT	ENDS
;	COMDAT ?_Inc@const_iterator@?$_Tree@V?$_Tmap_traits@KKU?$less@K@std@@V?$allocator@U?$pair@$$CBKK@std@@@2@$0A@@std@@@std@@QAEXXZ
_TEXT	SEGMENT PARA USE32 PUBLIC 'CODE'
_TEXT	ENDS
;	COMDAT ??0?$_Tmap_traits@KPAVCClientSock@@U?$less@K@std@@V?$allocator@U?$pair@$$CBKPAVCClientSock@@@std@@@3@$0A@@std@@QAE@U?$less@K@1@@Z
_TEXT	SEGMENT PARA USE32 PUBLIC 'CODE'
_TEXT	ENDS
;	COMDAT ??Econst_iterator@?$_Tree@V?$_Tmap_traits@KPAVCClientSock@@U?$less@K@std@@V?$allocator@U?$pair@$$CBKPAVCClientSock@@@std@@@3@$0A@@std@@@std@@QAEAAV012@XZ
_TEXT	SEGMENT PARA USE32 PUBLIC 'CODE'
_TEXT	ENDS
;	COMDAT ??0?$_Tmap_traits@KPAVCClientSockE@@U?$less@K@std@@V?$allocator@U?$pair@$$CBKPAVCClientSockE@@@std@@@3@$0A@@std@@QAE@U?$less@K@1@@Z
_TEXT	SEGMENT PARA USE32 PUBLIC 'CODE'
_TEXT	ENDS
;	COMDAT ??Econst_iterator@?$_Tree@V?$_Tmap_traits@KPAVCClientSockE@@U?$less@K@std@@V?$allocator@U?$pair@$$CBKPAVCClientSockE@@@std@@@3@$0A@@std@@@std@@QAEAAV012@XZ
_TEXT	SEGMENT PARA USE32 PUBLIC 'CODE'
_TEXT	ENDS
;	COMDAT ?_Inc@const_iterator@?$_Tree@V?$_Tmap_traits@KPAVCClientSock@@U?$less@K@std@@V?$allocator@U?$pair@$$CBKPAVCClientSock@@@std@@@3@$0A@@std@@@std@@QAEXXZ
_TEXT	SEGMENT PARA USE32 PUBLIC 'CODE'
_TEXT	ENDS
;	COMDAT ?_Inc@const_iterator@?$_Tree@V?$_Tmap_traits@KPAVCClientSockE@@U?$less@K@std@@V?$allocator@U?$pair@$$CBKPAVCClientSockE@@@std@@@3@$0A@@std@@@std@@QAEXXZ
_TEXT	SEGMENT PARA USE32 PUBLIC 'CODE'
_TEXT	ENDS
;	COMDAT ??$_Iter_cat@Vconst_iterator@?$vector@EV?$allocator@E@std@@@std@@@std@@YA?AUrandom_access_iterator_tag@0@ABVconst_iterator@?$vector@EV?$allocator@E@std@@@0@@Z
_TEXT	SEGMENT PARA USE32 PUBLIC 'CODE'
_TEXT	ENDS
;	COMDAT ??$_Assign@Vconst_iterator@?$vector@EV?$allocator@E@std@@@std@@@?$vector@EV?$allocator@E@std@@@std@@QAEXVconst_iterator@01@0Uinput_iterator_tag@1@@Z
_TEXT	SEGMENT PARA USE32 PUBLIC 'CODE'
_TEXT	ENDS
;	COMDAT ??$_Iter_cat@Viterator@?$_Tree@V?$_Tmap_traits@KPAVCUser@@U?$less@K@std@@V?$allocator@U?$pair@$$CBKPAVCUser@@@std@@@3@$0A@@std@@@std@@@std@@YA?AUbidirectional_iterator_tag@0@ABViterator@?$_Tree@V?$_Tmap_traits@KPAVCUser@@U?$less@K@std@@V?$allocator@U?$pair@$$CBKPAVCUser@@@std@@@3@$0A@@std@@@0@@Z
_TEXT	SEGMENT PARA USE32 PUBLIC 'CODE'
_TEXT	ENDS
;	COMDAT ??$_Distance2@Viterator@?$_Tree@V?$_Tmap_traits@KPAVCUser@@U?$less@K@std@@V?$allocator@U?$pair@$$CBKPAVCUser@@@std@@@3@$0A@@std@@@std@@I@std@@YAXViterator@?$_Tree@V?$_Tmap_traits@KPAVCUser@@U?$less@K@std@@V?$allocator@U?$pair@$$CBKPAVCUser@@@std@@@3@$0A@@std@@@0@0AAIUbidirectional_iterator_tag@0@@Z
_TEXT	SEGMENT PARA USE32 PUBLIC 'CODE'
_TEXT	ENDS
;	COMDAT ??$_Iter_cat@Viterator@?$_Tree@V?$_Tmap_traits@KPAVCCtrl@@U?$less@K@std@@V?$allocator@U?$pair@$$CBKPAVCCtrl@@@std@@@3@$0A@@std@@@std@@@std@@YA?AUbidirectional_iterator_tag@0@ABViterator@?$_Tree@V?$_Tmap_traits@KPAVCCtrl@@U?$less@K@std@@V?$allocator@U?$pair@$$CBKPAVCCtrl@@@std@@@3@$0A@@std@@@0@@Z
_TEXT	SEGMENT PARA USE32 PUBLIC 'CODE'
_TEXT	ENDS
;	COMDAT ??$_Distance2@Viterator@?$_Tree@V?$_Tmap_traits@KPAVCCtrl@@U?$less@K@std@@V?$allocator@U?$pair@$$CBKPAVCCtrl@@@std@@@3@$0A@@std@@@std@@I@std@@YAXViterator@?$_Tree@V?$_Tmap_traits@KPAVCCtrl@@U?$less@K@std@@V?$allocator@U?$pair@$$CBKPAVCCtrl@@@std@@@3@$0A@@std@@@0@0AAIUbidirectional_iterator_tag@0@@Z
_TEXT	SEGMENT PARA USE32 PUBLIC 'CODE'
_TEXT	ENDS
;	COMDAT ??$_Uninitialized_copy@Vconst_iterator@?$vector@EV?$allocator@E@std@@@std@@PAEV?$allocator@E@3@@std@@YAPAEVconst_iterator@?$vector@EV?$allocator@E@std@@@0@0PAEAAV?$allocator@E@0@@Z
_TEXT	SEGMENT PARA USE32 PUBLIC 'CODE'
_TEXT	ENDS
;	COMDAT ??$_Iter_cat@Viterator@?$_Tree@V?$_Tmap_traits@KEU?$less@K@std@@V?$allocator@U?$pair@$$CBKE@std@@@2@$0A@@std@@@std@@@std@@YA?AUbidirectional_iterator_tag@0@ABViterator@?$_Tree@V?$_Tmap_traits@KEU?$less@K@std@@V?$allocator@U?$pair@$$CBKE@std@@@2@$0A@@std@@@0@@Z
_TEXT	SEGMENT PARA USE32 PUBLIC 'CODE'
_TEXT	ENDS
;	COMDAT ??$_Distance2@Viterator@?$_Tree@V?$_Tmap_traits@KEU?$less@K@std@@V?$allocator@U?$pair@$$CBKE@std@@@2@$0A@@std@@@std@@I@std@@YAXViterator@?$_Tree@V?$_Tmap_traits@KEU?$less@K@std@@V?$allocator@U?$pair@$$CBKE@std@@@2@$0A@@std@@@0@0AAIUbidirectional_iterator_tag@0@@Z
_TEXT	SEGMENT PARA USE32 PUBLIC 'CODE'
_TEXT	ENDS
;	COMDAT ??$_Ptr_cat@PAU__SPAWNREGION@CEventLua@@PAU12@@std@@YA?AU_Nonscalar_ptr_iterator_tag@0@AAPAU__SPAWNREGION@CEventLua@@0@Z
_TEXT	SEGMENT PARA USE32 PUBLIC 'CODE'
_TEXT	ENDS
;	COMDAT ??$_Uninit_fill_n@PAU__SPAWNREGION@CEventLua@@IU12@V?$allocator@U__SPAWNREGION@CEventLua@@@std@@@std@@YAXPAU__SPAWNREGION@CEventLua@@IABU12@AAV?$allocator@U__SPAWNREGION@CEventLua@@@0@U_Nonscalar_ptr_iterator_tag@0@@Z
_TEXT	SEGMENT PARA USE32 PUBLIC 'CODE'
_TEXT	ENDS
;	COMDAT ??$_Copy_opt@PAJPAJ@std@@YAPAJPAJ00U_Scalar_ptr_iterator_tag@0@@Z
_TEXT	SEGMENT PARA USE32 PUBLIC 'CODE'
_TEXT	ENDS
;	COMDAT ??$_Uninitialized_copy@PAJPAJV?$allocator@J@std@@@std@@YAPAJPAJ00AAV?$allocator@J@0@@Z
_TEXT	SEGMENT PARA USE32 PUBLIC 'CODE'
_TEXT	ENDS
;	COMDAT ??$_Copy_backward_opt@PAJPAJ@std@@YAPAJPAJ00U_Scalar_ptr_iterator_tag@0@@Z
_TEXT	SEGMENT PARA USE32 PUBLIC 'CODE'
_TEXT	ENDS
;	COMDAT ??$_Ptr_cat@PAUtagDROPITEM@@PAU1@@std@@YA?AU_Nonscalar_ptr_iterator_tag@0@AAPAUtagDROPITEM@@0@Z
_TEXT	SEGMENT PARA USE32 PUBLIC 'CODE'
_TEXT	ENDS
;	COMDAT ??$_Destroy_range@UtagDROPITEM@@V?$allocator@UtagDROPITEM@@@std@@@std@@YAXPAUtagDROPITEM@@0AAV?$allocator@UtagDROPITEM@@@0@U_Nonscalar_ptr_iterator_tag@0@@Z
_TEXT	SEGMENT PARA USE32 PUBLIC 'CODE'
_TEXT	ENDS
;	COMDAT ??$_Ptr_cat@PAUWORMON@@PAU1@@std@@YA?AU_Nonscalar_ptr_iterator_tag@0@AAPAUWORMON@@0@Z
_TEXT	SEGMENT PARA USE32 PUBLIC 'CODE'
_TEXT	ENDS
;	COMDAT ??$_Destroy_range@UWORMON@@V?$allocator@UWORMON@@@std@@@std@@YAXPAUWORMON@@0AAV?$allocator@UWORMON@@@0@U_Nonscalar_ptr_iterator_tag@0@@Z
_TEXT	SEGMENT PARA USE32 PUBLIC 'CODE'
_TEXT	ENDS
;	COMDAT ??$_Ptr_cat@PAU__ITEMGAME@CMiniGame@@PAU12@@std@@YA?AU_Nonscalar_ptr_iterator_tag@0@AAPAU__ITEMGAME@CMiniGame@@0@Z
_TEXT	SEGMENT PARA USE32 PUBLIC 'CODE'
_TEXT	ENDS
;	COMDAT ??$_Destroy_range@U__ITEMGAME@CMiniGame@@V?$allocator@U__ITEMGAME@CMiniGame@@@std@@@std@@YAXPAU__ITEMGAME@CMiniGame@@0AAV?$allocator@U__ITEMGAME@CMiniGame@@@0@U_Nonscalar_ptr_iterator_tag@0@@Z
_TEXT	SEGMENT PARA USE32 PUBLIC 'CODE'
_TEXT	ENDS
;	COMDAT ??$_Destroy_range@KV?$allocator@K@std@@@std@@YAXPAK0AAV?$allocator@K@0@U_Scalar_ptr_iterator_tag@0@@Z
_TEXT	SEGMENT PARA USE32 PUBLIC 'CODE'
_TEXT	ENDS
;	COMDAT ??$_Destroy_range@HV?$allocator@H@std@@@std@@YAXPAH0AAV?$allocator@H@0@U_Scalar_ptr_iterator_tag@0@@Z
_TEXT	SEGMENT PARA USE32 PUBLIC 'CODE'
_TEXT	ENDS
;	COMDAT ??$_Ptr_cat@PAU__ITEM@CExchange@@PAU12@@std@@YA?AU_Nonscalar_ptr_iterator_tag@0@AAPAU__ITEM@CExchange@@0@Z
_TEXT	SEGMENT PARA USE32 PUBLIC 'CODE'
_TEXT	ENDS
;	COMDAT ??$_Destroy_range@U__ITEM@CExchange@@V?$allocator@U__ITEM@CExchange@@@std@@@std@@YAXPAU__ITEM@CExchange@@0AAV?$allocator@U__ITEM@CExchange@@@0@U_Nonscalar_ptr_iterator_tag@0@@Z
_TEXT	SEGMENT PARA USE32 PUBLIC 'CODE'
_TEXT	ENDS
;	COMDAT ??$_Ptr_cat@PAU__POINT@CExchange@@PAU12@@std@@YA?AU_Nonscalar_ptr_iterator_tag@0@AAPAU__POINT@CExchange@@0@Z
_TEXT	SEGMENT PARA USE32 PUBLIC 'CODE'
_TEXT	ENDS
;	COMDAT ??$_Destroy_range@U__POINT@CExchange@@V?$allocator@U__POINT@CExchange@@@std@@@std@@YAXPAU__POINT@CExchange@@0AAV?$allocator@U__POINT@CExchange@@@0@U_Nonscalar_ptr_iterator_tag@0@@Z
_TEXT	SEGMENT PARA USE32 PUBLIC 'CODE'
_TEXT	ENDS
;	COMDAT ??$_Destroy_range@EV?$allocator@E@std@@@std@@YAXPAE0AAV?$allocator@E@0@U_Scalar_ptr_iterator_tag@0@@Z
_TEXT	SEGMENT PARA USE32 PUBLIC 'CODE'
_TEXT	ENDS
;	COMDAT ??$_Uninitialized_copy@PAU__SPAWNREGION@CEventLua@@PAU12@V?$allocator@U__SPAWNREGION@CEventLua@@@std@@@std@@YAPAU__SPAWNREGION@CEventLua@@PAU12@00AAV?$allocator@U__SPAWNREGION@CEventLua@@@0@@Z
_TEXT	SEGMENT PARA USE32 PUBLIC 'CODE'
_TEXT	ENDS
;	COMDAT ??$_Copy_backward_opt@PAU__SPAWNREGION@CEventLua@@PAU12@@std@@YAPAU__SPAWNREGION@CEventLua@@PAU12@00U_Nonscalar_ptr_iterator_tag@0@@Z
_TEXT	SEGMENT PARA USE32 PUBLIC 'CODE'
_TEXT	ENDS
;	COMDAT ??$_Ptr_cat@PAUD3DXVECTOR3@@PAU1@@std@@YA?AU_Nonscalar_ptr_iterator_tag@0@AAPAUD3DXVECTOR3@@0@Z
_TEXT	SEGMENT PARA USE32 PUBLIC 'CODE'
_TEXT	ENDS
;	COMDAT ??$_Destroy_range@UD3DXVECTOR3@@V?$allocator@UD3DXVECTOR3@@@std@@@std@@YAXPAUD3DXVECTOR3@@0AAV?$allocator@UD3DXVECTOR3@@@0@U_Nonscalar_ptr_iterator_tag@0@@Z
_TEXT	SEGMENT PARA USE32 PUBLIC 'CODE'
_TEXT	ENDS
;	COMDAT ??$_Ptr_cat@PAU_GIFTBOX@@PAU1@@std@@YA?AU_Nonscalar_ptr_iterator_tag@0@AAPAU_GIFTBOX@@0@Z
_TEXT	SEGMENT PARA USE32 PUBLIC 'CODE'
_TEXT	ENDS
;	COMDAT ??$_Destroy_range@U_GIFTBOX@@V?$allocator@U_GIFTBOX@@@std@@@std@@YAXPAU_GIFTBOX@@0AAV?$allocator@U_GIFTBOX@@@0@U_Nonscalar_ptr_iterator_tag@0@@Z
_TEXT	SEGMENT PARA USE32 PUBLIC 'CODE'
_TEXT	ENDS
;	COMDAT ??$_Destroy_range@JV?$allocator@J@std@@@std@@YAXPAJ0AAV?$allocator@J@0@U_Scalar_ptr_iterator_tag@0@@Z
_TEXT	SEGMENT PARA USE32 PUBLIC 'CODE'
_TEXT	ENDS
;	COMDAT ??$_Uninit_fill_n@JIJ@std@@YAXPAJIABJAAV?$allocator@J@0@U_Scalar_ptr_iterator_tag@0@@Z
_TEXT	SEGMENT PARA USE32 PUBLIC 'CODE'
_TEXT	ENDS
;	COMDAT ??$_Destroy_range@U__SPAWNREGION@CEventLua@@V?$allocator@U__SPAWNREGION@CEventLua@@@std@@@std@@YAXPAU__SPAWNREGION@CEventLua@@0AAV?$allocator@U__SPAWNREGION@CEventLua@@@0@U_Nonscalar_ptr_iterator_tag@0@@Z
_TEXT	SEGMENT PARA USE32 PUBLIC 'CODE'
_TEXT	ENDS
;	COMDAT ??$make_pair@KPAVCGuildHouseBase@@@std@@YA?AU?$pair@KPAVCGuildHouseBase@@@0@KPAVCGuildHouseBase@@@Z
_TEXT	SEGMENT PARA USE32 PUBLIC 'CODE'
_TEXT	ENDS
;	COMDAT ??$?0KPAVCGuildHouseBase@@@?$pair@$$CBKPAVCGuildHouseBase@@@std@@QAE@ABU?$pair@KPAVCGuildHouseBase@@@1@@Z
_TEXT	SEGMENT PARA USE32 PUBLIC 'CODE'
_TEXT	ENDS
;	COMDAT ??$throw_exception@Vbad_weak_ptr@boost@@@boost@@YAXABVbad_weak_ptr@0@@Z
_TEXT	SEGMENT PARA USE32 PUBLIC 'CODE'
_TEXT	ENDS
;	COMDAT ??$_Distance@Viterator@?$_Tree@V?$_Tmap_traits@KU_Friend@@U?$less@K@std@@V?$allocator@U?$pair@$$CBKU_Friend@@@std@@@3@$0A@@std@@@std@@I@std@@YAXViterator@?$_Tree@V?$_Tmap_traits@KU_Friend@@U?$less@K@std@@V?$allocator@U?$pair@$$CBKU_Friend@@@std@@@3@$0A@@std@@@0@0AAI@Z
_TEXT	SEGMENT PARA USE32 PUBLIC 'CODE'
_TEXT	ENDS
;	COMDAT ??$_Distance@Viterator@?$_Tree@V?$_Tmap_traits@KKU?$less@K@std@@V?$allocator@U?$pair@$$CBKK@std@@@2@$0A@@std@@@std@@I@std@@YAXViterator@?$_Tree@V?$_Tmap_traits@KKU?$less@K@std@@V?$allocator@U?$pair@$$CBKK@std@@@2@$0A@@std@@@0@0AAI@Z
_TEXT	SEGMENT PARA USE32 PUBLIC 'CODE'
_TEXT	ENDS
;	COMDAT ??$_Destroy@U_Node@?$_List_nod@PAU__JOINPLAYER@CGuildCombat@@V?$allocator@PAU__JOINPLAYER@CGuildCombat@@@std@@@std@@@std@@YAXPAU_Node@?$_List_nod@PAU__JOINPLAYER@CGuildCombat@@V?$allocator@PAU__JOINPLAYER@CGuildCombat@@@std@@@0@@Z
_TEXT	SEGMENT PARA USE32 PUBLIC 'CODE'
_TEXT	ENDS
;	COMDAT ??$_Uninitialized_fill_n@PAV?$basic_string@DU?$char_traits@D@std@@V?$allocator@D@2@@std@@IV12@V?$allocator@V?$basic_string@DU?$char_traits@D@std@@V?$allocator@D@2@@std@@@2@@std@@YAXPAV?$basic_string@DU?$char_traits@D@std@@V?$allocator@D@2@@0@IABV10@AAV?$allocator@V?$basic_string@DU?$char_traits@D@std@@V?$allocator@D@2@@std@@@0@@Z
_TEXT	SEGMENT PARA USE32 PUBLIC 'CODE'
_TEXT	ENDS
;	COMDAT ??$_Uninitialized_fill_n@PAUMINIGMAME_PRIZE_LIST@CRainbowRaceMng@@IU12@V?$allocator@UMINIGMAME_PRIZE_LIST@CRainbowRaceMng@@@std@@@std@@YAXPAUMINIGMAME_PRIZE_LIST@CRainbowRaceMng@@IABU12@AAV?$allocator@UMINIGMAME_PRIZE_LIST@CRainbowRaceMng@@@0@@Z
_TEXT	SEGMENT PARA USE32 PUBLIC 'CODE'
_TEXT	ENDS
;	COMDAT ??$_Allocate@V?$basic_string@DU?$char_traits@D@std@@V?$allocator@D@2@@std@@@std@@YAPAV?$basic_string@DU?$char_traits@D@std@@V?$allocator@D@2@@0@IPAV10@@Z
_TEXT	SEGMENT PARA USE32 PUBLIC 'CODE'
_TEXT	ENDS
;	COMDAT ??$?0PAUtagACTMSG@@@?$allocator@PAPAUtagACTMSG@@@std@@QAE@ABV?$allocator@PAUtagACTMSG@@@1@@Z
_TEXT	SEGMENT PARA USE32 PUBLIC 'CODE'
_TEXT	ENDS
;	COMDAT ??$_Destroy@PAPAUtagACTMSG@@@std@@YAXPAPAPAUtagACTMSG@@@Z
_TEXT	SEGMENT PARA USE32 PUBLIC 'CODE'
_TEXT	ENDS
;	COMDAT ??$?0PAUtagMAGICATKMSG@@@?$allocator@PAPAUtagMAGICATKMSG@@@std@@QAE@ABV?$allocator@PAUtagMAGICATKMSG@@@1@@Z
_TEXT	SEGMENT PARA USE32 PUBLIC 'CODE'
_TEXT	ENDS
;	COMDAT ??$_Destroy@PAPAUtagMAGICATKMSG@@@std@@YAXPAPAPAUtagMAGICATKMSG@@@Z
_TEXT	SEGMENT PARA USE32 PUBLIC 'CODE'
_TEXT	ENDS
;	COMDAT ??$_Destroy_range@PAVITestCase@@V?$allocator@PAVITestCase@@@std@@@std@@YAXPAPAVITestCase@@0AAV?$allocator@PAVITestCase@@@0@@Z
_TEXT	SEGMENT PARA USE32 PUBLIC 'CODE'
_TEXT	ENDS
;	COMDAT ??$_Allocate@PAVITestCase@@@std@@YAPAPAVITestCase@@IPAPAV1@@Z
_TEXT	SEGMENT PARA USE32 PUBLIC 'CODE'
_TEXT	ENDS
;	COMDAT ??$_Destroy_range@PAU__JOINPLAYER@CGuildCombat@@V?$allocator@PAU__JOINPLAYER@CGuildCombat@@@std@@@std@@YAXPAPAU__JOINPLAYER@CGuildCombat@@0AAV?$allocator@PAU__JOINPLAYER@CGuildCombat@@@0@@Z
_TEXT	SEGMENT PARA USE32 PUBLIC 'CODE'
_TEXT	ENDS
;	COMDAT ??$_Destroy_range@U__SECRETROOM_MONSTER@@V?$allocator@U__SECRETROOM_MONSTER@@@std@@@std@@YAXPAU__SECRETROOM_MONSTER@@0AAV?$allocator@U__SECRETROOM_MONSTER@@@0@@Z
_TEXT	SEGMENT PARA USE32 PUBLIC 'CODE'
_TEXT	ENDS
;	COMDAT ??$_Allocate@U__SECRETROOM_MONSTER@@@std@@YAPAU__SECRETROOM_MONSTER@@IPAU1@@Z
_TEXT	SEGMENT PARA USE32 PUBLIC 'CODE'
_TEXT	ENDS
;	COMDAT ??$_Destroy_range@V?$basic_string@DU?$char_traits@D@std@@V?$allocator@D@2@@std@@V?$allocator@V?$basic_string@DU?$char_traits@D@std@@V?$allocator@D@2@@std@@@2@@std@@YAXPAV?$basic_string@DU?$char_traits@D@std@@V?$allocator@D@2@@0@0AAV?$allocator@V?$basic_string@DU?$char_traits@D@std@@V?$allocator@D@2@@std@@@0@@Z
_TEXT	SEGMENT PARA USE32 PUBLIC 'CODE'
_TEXT	ENDS
;	COMDAT ??$_Ucopy@PAV?$basic_string@DU?$char_traits@D@std@@V?$allocator@D@2@@std@@@?$vector@V?$basic_string@DU?$char_traits@D@std@@V?$allocator@D@2@@std@@V?$allocator@V?$basic_string@DU?$char_traits@D@std@@V?$allocator@D@2@@std@@@2@@std@@IAEPAV?$basic_string@DU?$char_traits@D@std@@V?$allocator@D@2@@1@PAV21@00@Z
_TEXT	SEGMENT PARA USE32 PUBLIC 'CODE'
_TEXT	ENDS
;	COMDAT ??$fill@PAV?$basic_string@DU?$char_traits@D@std@@V?$allocator@D@2@@std@@V12@@std@@YAXPAV?$basic_string@DU?$char_traits@D@std@@V?$allocator@D@2@@0@0ABV10@@Z
_TEXT	SEGMENT PARA USE32 PUBLIC 'CODE'
_TEXT	ENDS
;	COMDAT ??$copy_backward@PAV?$basic_string@DU?$char_traits@D@std@@V?$allocator@D@2@@std@@PAV12@@std@@YAPAV?$basic_string@DU?$char_traits@D@std@@V?$allocator@D@2@@0@PAV10@00@Z
_TEXT	SEGMENT PARA USE32 PUBLIC 'CODE'
_TEXT	ENDS
;	COMDAT ??$_Ucopy@PAUMINIGMAME_PRIZE_LIST@CRainbowRaceMng@@@?$vector@UMINIGMAME_PRIZE_LIST@CRainbowRaceMng@@V?$allocator@UMINIGMAME_PRIZE_LIST@CRainbowRaceMng@@@std@@@std@@IAEPAUMINIGMAME_PRIZE_LIST@CRainbowRaceMng@@PAU23@00@Z
_TEXT	SEGMENT PARA USE32 PUBLIC 'CODE'
_TEXT	ENDS
;	COMDAT ??$fill@PAUMINIGMAME_PRIZE_LIST@CRainbowRaceMng@@U12@@std@@YAXPAUMINIGMAME_PRIZE_LIST@CRainbowRaceMng@@0ABU12@@Z
_TEXT	SEGMENT PARA USE32 PUBLIC 'CODE'
_TEXT	ENDS
;	COMDAT ??$copy_backward@PAUMINIGMAME_PRIZE_LIST@CRainbowRaceMng@@PAU12@@std@@YAPAUMINIGMAME_PRIZE_LIST@CRainbowRaceMng@@PAU12@00@Z
_TEXT	SEGMENT PARA USE32 PUBLIC 'CODE'
_TEXT	ENDS
;	COMDAT ??$_Destroy_range@MV?$allocator@M@std@@@std@@YAXPAM0AAV?$allocator@M@0@@Z
_TEXT	SEGMENT PARA USE32 PUBLIC 'CODE'
_TEXT	ENDS
;	COMDAT ??$_Allocate@M@std@@YAPAMIPAM@Z
_TEXT	SEGMENT PARA USE32 PUBLIC 'CODE'
_TEXT	ENDS
;	COMDAT ??$_Destroy@PAU_Node@?$_Tree_nod@V?$_Tmap_traits@KPAVCClientSock@@U?$less@K@std@@V?$allocator@U?$pair@$$CBKPAVCClientSock@@@std@@@3@$0A@@std@@@std@@@std@@YAXPAPAU_Node@?$_Tree_nod@V?$_Tmap_traits@KPAVCClientSock@@U?$less@K@std@@V?$allocator@U?$pair@$$CBKPAVCClientSock@@@std@@@3@$0A@@std@@@0@@Z
_TEXT	SEGMENT PARA USE32 PUBLIC 'CODE'
_TEXT	ENDS
;	COMDAT ??$_Destroy@PAU_Node@?$_Tree_nod@V?$_Tmap_traits@KPAVCClientSockE@@U?$less@K@std@@V?$allocator@U?$pair@$$CBKPAVCClientSockE@@@std@@@3@$0A@@std@@@std@@@std@@YAXPAPAU_Node@?$_Tree_nod@V?$_Tmap_traits@KPAVCClientSockE@@U?$less@K@std@@V?$allocator@U?$pair@$$CBKPAVCClientSockE@@@std@@@3@$0A@@std@@@0@@Z
_TEXT	SEGMENT PARA USE32 PUBLIC 'CODE'
_TEXT	ENDS
;	COMDAT ??$_Destroy@PAUtagACTMSG@@@std@@YAXPAPAUtagACTMSG@@@Z
_TEXT	SEGMENT PARA USE32 PUBLIC 'CODE'
_TEXT	ENDS
;	COMDAT ??$_Destroy@PAUtagMAGICATKMSG@@@std@@YAXPAPAUtagMAGICATKMSG@@@Z
_TEXT	SEGMENT PARA USE32 PUBLIC 'CODE'
_TEXT	ENDS
;	COMDAT ??$_Destroy@U_Node@?$_Tree_nod@V?$_Tmap_traits@KU_Friend@@U?$less@K@std@@V?$allocator@U?$pair@$$CBKU_Friend@@@std@@@3@$0A@@std@@@std@@@std@@YAXPAU_Node@?$_Tree_nod@V?$_Tmap_traits@KU_Friend@@U?$less@K@std@@V?$allocator@U?$pair@$$CBKU_Friend@@@std@@@3@$0A@@std@@@0@@Z
_TEXT	SEGMENT PARA USE32 PUBLIC 'CODE'
_TEXT	ENDS
;	COMDAT ??$_Destroy_range@UMINIGMAME_PRIZE_LIST@CRainbowRaceMng@@V?$allocator@UMINIGMAME_PRIZE_LIST@CRainbowRaceMng@@@std@@@std@@YAXPAUMINIGMAME_PRIZE_LIST@CRainbowRaceMng@@0AAV?$allocator@UMINIGMAME_PRIZE_LIST@CRainbowRaceMng@@@0@@Z
_TEXT	SEGMENT PARA USE32 PUBLIC 'CODE'
_TEXT	ENDS
;	COMDAT ??$_Allocate@UMINIGMAME_PRIZE_LIST@CRainbowRaceMng@@@std@@YAPAUMINIGMAME_PRIZE_LIST@CRainbowRaceMng@@IPAU12@@Z
_TEXT	SEGMENT PARA USE32 PUBLIC 'CODE'
_TEXT	ENDS
;	COMDAT ??$_Allocate@U_Node@?$_Tree_nod@V?$_Tmap_traits@KPAVCGuildHouseBase@@U?$less@K@std@@V?$allocator@U?$pair@$$CBKPAVCGuildHouseBase@@@std@@@3@$0A@@std@@@std@@@std@@YAPAU_Node@?$_Tree_nod@V?$_Tmap_traits@KPAVCGuildHouseBase@@U?$less@K@std@@V?$allocator@U?$pair@$$CBKPAVCGuildHouseBase@@@std@@@3@$0A@@std@@@0@IPAU120@@Z
_TEXT	SEGMENT PARA USE32 PUBLIC 'CODE'
_TEXT	ENDS
;	COMDAT ??$_Destroy@U_Node@?$_Tree_nod@V?$_Tmap_traits@KKU?$less@K@std@@V?$allocator@U?$pair@$$CBKK@std@@@2@$0A@@std@@@std@@@std@@YAXPAU_Node@?$_Tree_nod@V?$_Tmap_traits@KKU?$less@K@std@@V?$allocator@U?$pair@$$CBKK@std@@@2@$0A@@std@@@0@@Z
_TEXT	SEGMENT PARA USE32 PUBLIC 'CODE'
_TEXT	ENDS
;	COMDAT ??$?0U?$pair@$$CBKPAVCClientSock@@@std@@@?$allocator@PAU_Node@?$_Tree_nod@V?$_Tmap_traits@KPAVCClientSock@@U?$less@K@std@@V?$allocator@U?$pair@$$CBKPAVCClientSock@@@std@@@3@$0A@@std@@@std@@@std@@QAE@ABV?$allocator@U?$pair@$$CBKPAVCClientSock@@@std@@@1@@Z
_TEXT	SEGMENT PARA USE32 PUBLIC 'CODE'
_TEXT	ENDS
;	COMDAT ??$?0U?$pair@$$CBKPAVCClientSockE@@@std@@@?$allocator@PAU_Node@?$_Tree_nod@V?$_Tmap_traits@KPAVCClientSockE@@U?$less@K@std@@V?$allocator@U?$pair@$$CBKPAVCClientSockE@@@std@@@3@$0A@@std@@@std@@@std@@QAE@ABV?$allocator@U?$pair@$$CBKPAVCClientSockE@@@std@@@1@@Z
_TEXT	SEGMENT PARA USE32 PUBLIC 'CODE'
_TEXT	ENDS
;	COMDAT ??$?0U?$pair@$$CBKPAVCClientSock@@@std@@@?$allocator@U_Node@?$_Tree_nod@V?$_Tmap_traits@KPAVCClientSock@@U?$less@K@std@@V?$allocator@U?$pair@$$CBKPAVCClientSock@@@std@@@3@$0A@@std@@@std@@@std@@QAE@ABV?$allocator@U?$pair@$$CBKPAVCClientSock@@@std@@@1@@Z
_TEXT	SEGMENT PARA USE32 PUBLIC 'CODE'
_TEXT	ENDS
;	COMDAT ??$_Allocate@U_Node@?$_Tree_nod@V?$_Tmap_traits@KPAVCClientSock@@U?$less@K@std@@V?$allocator@U?$pair@$$CBKPAVCClientSock@@@std@@@3@$0A@@std@@@std@@@std@@YAPAU_Node@?$_Tree_nod@V?$_Tmap_traits@KPAVCClientSock@@U?$less@K@std@@V?$allocator@U?$pair@$$CBKPAVCClientSock@@@std@@@3@$0A@@std@@@0@IPAU120@@Z
_TEXT	SEGMENT PARA USE32 PUBLIC 'CODE'
_TEXT	ENDS
;	COMDAT ??$_Destroy@U_Node@?$_Tree_nod@V?$_Tmap_traits@KPAVCClientSock@@U?$less@K@std@@V?$allocator@U?$pair@$$CBKPAVCClientSock@@@std@@@3@$0A@@std@@@std@@@std@@YAXPAU_Node@?$_Tree_nod@V?$_Tmap_traits@KPAVCClientSock@@U?$less@K@std@@V?$allocator@U?$pair@$$CBKPAVCClientSock@@@std@@@3@$0A@@std@@@0@@Z
_TEXT	SEGMENT PARA USE32 PUBLIC 'CODE'
_TEXT	ENDS
;	COMDAT ??$_Construct@PAU_Node@?$_Tree_nod@V?$_Tmap_traits@KPAVCClientSock@@U?$less@K@std@@V?$allocator@U?$pair@$$CBKPAVCClientSock@@@std@@@3@$0A@@std@@@std@@PAU123@@std@@YAXPAPAU_Node@?$_Tree_nod@V?$_Tmap_traits@KPAVCClientSock@@U?$less@K@std@@V?$allocator@U?$pair@$$CBKPAVCClientSock@@@std@@@3@$0A@@std@@@0@ABQAU120@@Z
_TEXT	SEGMENT PARA USE32 PUBLIC 'CODE'
_TEXT	ENDS
;	COMDAT ??$?0U?$pair@$$CBKPAVCClientSockE@@@std@@@?$allocator@U_Node@?$_Tree_nod@V?$_Tmap_traits@KPAVCClientSockE@@U?$less@K@std@@V?$allocator@U?$pair@$$CBKPAVCClientSockE@@@std@@@3@$0A@@std@@@std@@@std@@QAE@ABV?$allocator@U?$pair@$$CBKPAVCClientSockE@@@std@@@1@@Z
_TEXT	SEGMENT PARA USE32 PUBLIC 'CODE'
_TEXT	ENDS
;	COMDAT ??$_Allocate@U_Node@?$_Tree_nod@V?$_Tmap_traits@KPAVCClientSockE@@U?$less@K@std@@V?$allocator@U?$pair@$$CBKPAVCClientSockE@@@std@@@3@$0A@@std@@@std@@@std@@YAPAU_Node@?$_Tree_nod@V?$_Tmap_traits@KPAVCClientSockE@@U?$less@K@std@@V?$allocator@U?$pair@$$CBKPAVCClientSockE@@@std@@@3@$0A@@std@@@0@IPAU120@@Z
_TEXT	SEGMENT PARA USE32 PUBLIC 'CODE'
_TEXT	ENDS
;	COMDAT ??$_Destroy@U_Node@?$_Tree_nod@V?$_Tmap_traits@KPAVCClientSockE@@U?$less@K@std@@V?$allocator@U?$pair@$$CBKPAVCClientSockE@@@std@@@3@$0A@@std@@@std@@@std@@YAXPAU_Node@?$_Tree_nod@V?$_Tmap_traits@KPAVCClientSockE@@U?$less@K@std@@V?$allocator@U?$pair@$$CBKPAVCClientSockE@@@std@@@3@$0A@@std@@@0@@Z
_TEXT	SEGMENT PARA USE32 PUBLIC 'CODE'
_TEXT	ENDS
;	COMDAT ??$_Construct@PAU_Node@?$_Tree_nod@V?$_Tmap_traits@KPAVCClientSockE@@U?$less@K@std@@V?$allocator@U?$pair@$$CBKPAVCClientSockE@@@std@@@3@$0A@@std@@@std@@PAU123@@std@@YAXPAPAU_Node@?$_Tree_nod@V?$_Tmap_traits@KPAVCClientSockE@@U?$less@K@std@@V?$allocator@U?$pair@$$CBKPAVCClientSockE@@@std@@@3@$0A@@std@@@0@ABQAU120@@Z
_TEXT	SEGMENT PARA USE32 PUBLIC 'CODE'
_TEXT	ENDS
;	COMDAT ??0bad_weak_ptr@boost@@QAE@ABV01@@Z
_TEXT	SEGMENT PARA USE32 PUBLIC 'CODE'
_TEXT	ENDS
;	COMDAT ?destroy@?$allocator@UtagDROPITEM@@@std@@QAEXPAUtagDROPITEM@@@Z
_TEXT	SEGMENT PARA USE32 PUBLIC 'CODE'
_TEXT	ENDS
;	COMDAT ?destroy@?$allocator@UWORMON@@@std@@QAEXPAUWORMON@@@Z
_TEXT	SEGMENT PARA USE32 PUBLIC 'CODE'
_TEXT	ENDS
;	COMDAT ?destroy@?$allocator@U__ITEMGAME@CMiniGame@@@std@@QAEXPAU__ITEMGAME@CMiniGame@@@Z
_TEXT	SEGMENT PARA USE32 PUBLIC 'CODE'
_TEXT	ENDS
;	COMDAT ?destroy@?$allocator@U__ITEM@CExchange@@@std@@QAEXPAU__ITEM@CExchange@@@Z
_TEXT	SEGMENT PARA USE32 PUBLIC 'CODE'
_TEXT	ENDS
;	COMDAT ?destroy@?$allocator@U__POINT@CExchange@@@std@@QAEXPAU__POINT@CExchange@@@Z
_TEXT	SEGMENT PARA USE32 PUBLIC 'CODE'
_TEXT	ENDS
;	COMDAT ?begin@?$vector@EV?$allocator@E@std@@@std@@QAE?AViterator@12@XZ
_TEXT	SEGMENT PARA USE32 PUBLIC 'CODE'
_TEXT	ENDS
;	COMDAT ?end@?$vector@EV?$allocator@E@std@@@std@@QAE?AViterator@12@XZ
_TEXT	SEGMENT PARA USE32 PUBLIC 'CODE'
_TEXT	ENDS
;	COMDAT ?erase@?$vector@EV?$allocator@E@std@@@std@@QAE?AViterator@12@V312@0@Z
_TEXT	SEGMENT PARA USE32 PUBLIC 'CODE'
_TEXT	ENDS
;	COMDAT ?construct@?$allocator@U__SPAWNREGION@CEventLua@@@std@@QAEXPAU__SPAWNREGION@CEventLua@@ABU34@@Z
_TEXT	SEGMENT PARA USE32 PUBLIC 'CODE'
_TEXT	ENDS
;	COMDAT ?destroy@?$allocator@U__SPAWNREGION@CEventLua@@@std@@QAEXPAU__SPAWNREGION@CEventLua@@@Z
_TEXT	SEGMENT PARA USE32 PUBLIC 'CODE'
_TEXT	ENDS
;	COMDAT ?destroy@?$allocator@UD3DXVECTOR3@@@std@@QAEXPAUD3DXVECTOR3@@@Z
_TEXT	SEGMENT PARA USE32 PUBLIC 'CODE'
_TEXT	ENDS
;	COMDAT ?destroy@?$allocator@U_GIFTBOX@@@std@@QAEXPAU_GIFTBOX@@@Z
_TEXT	SEGMENT PARA USE32 PUBLIC 'CODE'
_TEXT	ENDS
;	COMDAT ??0?$pair@KPAVCGuildHouseBase@@@std@@QAE@ABKABQAVCGuildHouseBase@@@Z
_TEXT	SEGMENT PARA USE32 PUBLIC 'CODE'
_TEXT	ENDS
;	COMDAT ??9const_iterator@?$vector@EV?$allocator@E@std@@@std@@QBE_NABV012@@Z
_TEXT	SEGMENT PARA USE32 PUBLIC 'CODE'
_TEXT	ENDS
;	COMDAT ??0iterator@?$vector@EV?$allocator@E@std@@@std@@QAE@PAE@Z
_TEXT	SEGMENT PARA USE32 PUBLIC 'CODE'
_TEXT	ENDS
;	COMDAT ??8const_iterator@?$vector@EV?$allocator@E@std@@@std@@QBE_NABV012@@Z
_TEXT	SEGMENT PARA USE32 PUBLIC 'CODE'
_TEXT	ENDS
;	COMDAT ??$insert@Vconst_iterator@?$vector@EV?$allocator@E@std@@@std@@@?$vector@EV?$allocator@E@std@@@std@@QAEXViterator@01@Vconst_iterator@01@1@Z
_TEXT	SEGMENT PARA USE32 PUBLIC 'CODE'
_TEXT	ENDS
;	COMDAT ??$_Ptr_cat@Vconst_iterator@?$vector@EV?$allocator@E@std@@@std@@PAE@std@@YA?AU_Nonscalar_ptr_iterator_tag@0@AAVconst_iterator@?$vector@EV?$allocator@E@std@@@0@AAPAE@Z
_TEXT	SEGMENT PARA USE32 PUBLIC 'CODE'
_TEXT	ENDS
;	COMDAT ??$_Uninit_copy@Vconst_iterator@?$vector@EV?$allocator@E@std@@@std@@PAEV?$allocator@E@3@@std@@YAPAEVconst_iterator@?$vector@EV?$allocator@E@std@@@0@0PAEAAV?$allocator@E@0@U_Nonscalar_ptr_iterator_tag@0@@Z
_TEXT	SEGMENT PARA USE32 PUBLIC 'CODE'
_TEXT	ENDS
;	COMDAT ??$_Uninit_copy@JJ@std@@YAPAJPAJ00AAV?$allocator@J@0@U_Scalar_ptr_iterator_tag@0@@Z
_TEXT	SEGMENT PARA USE32 PUBLIC 'CODE'
_TEXT	ENDS
;	COMDAT ??$_Uninit_copy@PAU__SPAWNREGION@CEventLua@@PAU12@V?$allocator@U__SPAWNREGION@CEventLua@@@std@@@std@@YAPAU__SPAWNREGION@CEventLua@@PAU12@00AAV?$allocator@U__SPAWNREGION@CEventLua@@@0@U_Nonscalar_ptr_iterator_tag@0@@Z
_TEXT	SEGMENT PARA USE32 PUBLIC 'CODE'
_TEXT	ENDS
;	COMDAT ??$fill_n@PAJIJ@std@@YAXPAJIABJ@Z
_TEXT	SEGMENT PARA USE32 PUBLIC 'CODE'
_TEXT	ENDS
;	COMDAT ??$_Iter_cat@Viterator@?$_Tree@V?$_Tmap_traits@KU_Friend@@U?$less@K@std@@V?$allocator@U?$pair@$$CBKU_Friend@@@std@@@3@$0A@@std@@@std@@@std@@YA?AUbidirectional_iterator_tag@0@ABViterator@?$_Tree@V?$_Tmap_traits@KU_Friend@@U?$less@K@std@@V?$allocator@U?$pair@$$CBKU_Friend@@@std@@@3@$0A@@std@@@0@@Z
_TEXT	SEGMENT PARA USE32 PUBLIC 'CODE'
_TEXT	ENDS
;	COMDAT ??$_Distance2@Viterator@?$_Tree@V?$_Tmap_traits@KU_Friend@@U?$less@K@std@@V?$allocator@U?$pair@$$CBKU_Friend@@@std@@@3@$0A@@std@@@std@@I@std@@YAXViterator@?$_Tree@V?$_Tmap_traits@KU_Friend@@U?$less@K@std@@V?$allocator@U?$pair@$$CBKU_Friend@@@std@@@3@$0A@@std@@@0@0AAIUbidirectional_iterator_tag@0@@Z
_TEXT	SEGMENT PARA USE32 PUBLIC 'CODE'
_TEXT	ENDS
;	COMDAT ??$_Iter_cat@Viterator@?$_Tree@V?$_Tmap_traits@KKU?$less@K@std@@V?$allocator@U?$pair@$$CBKK@std@@@2@$0A@@std@@@std@@@std@@YA?AUbidirectional_iterator_tag@0@ABViterator@?$_Tree@V?$_Tmap_traits@KKU?$less@K@std@@V?$allocator@U?$pair@$$CBKK@std@@@2@$0A@@std@@@0@@Z
_TEXT	SEGMENT PARA USE32 PUBLIC 'CODE'
_TEXT	ENDS
;	COMDAT ??$_Distance2@Viterator@?$_Tree@V?$_Tmap_traits@KKU?$less@K@std@@V?$allocator@U?$pair@$$CBKK@std@@@2@$0A@@std@@@std@@I@std@@YAXViterator@?$_Tree@V?$_Tmap_traits@KKU?$less@K@std@@V?$allocator@U?$pair@$$CBKK@std@@@2@$0A@@std@@@0@0AAIUbidirectional_iterator_tag@0@@Z
_TEXT	SEGMENT PARA USE32 PUBLIC 'CODE'
_TEXT	ENDS
;	COMDAT ??$_Ptr_cat@PAV?$basic_string@DU?$char_traits@D@std@@V?$allocator@D@2@@std@@PAV12@@std@@YA?AU_Nonscalar_ptr_iterator_tag@0@AAPAV?$basic_string@DU?$char_traits@D@std@@V?$allocator@D@2@@0@0@Z
_TEXT	SEGMENT PARA USE32 PUBLIC 'CODE'
_TEXT	ENDS
;	COMDAT ??$_Uninit_fill_n@PAV?$basic_string@DU?$char_traits@D@std@@V?$allocator@D@2@@std@@IV12@V?$allocator@V?$basic_string@DU?$char_traits@D@std@@V?$allocator@D@2@@std@@@2@@std@@YAXPAV?$basic_string@DU?$char_traits@D@std@@V?$allocator@D@2@@0@IABV10@AAV?$allocator@V?$basic_string@DU?$char_traits@D@std@@V?$allocator@D@2@@std@@@0@U_Nonscalar_ptr_iterator_tag@0@@Z
_TEXT	SEGMENT PARA USE32 PUBLIC 'CODE'
_TEXT	ENDS
;	COMDAT ??$_Ptr_cat@PAUMINIGMAME_PRIZE_LIST@CRainbowRaceMng@@PAU12@@std@@YA?AU_Nonscalar_ptr_iterator_tag@0@AAPAUMINIGMAME_PRIZE_LIST@CRainbowRaceMng@@0@Z
_TEXT	SEGMENT PARA USE32 PUBLIC 'CODE'
_TEXT	ENDS
;	COMDAT ??$_Uninit_fill_n@PAUMINIGMAME_PRIZE_LIST@CRainbowRaceMng@@IU12@V?$allocator@UMINIGMAME_PRIZE_LIST@CRainbowRaceMng@@@std@@@std@@YAXPAUMINIGMAME_PRIZE_LIST@CRainbowRaceMng@@IABU12@AAV?$allocator@UMINIGMAME_PRIZE_LIST@CRainbowRaceMng@@@0@U_Nonscalar_ptr_iterator_tag@0@@Z
_TEXT	SEGMENT PARA USE32 PUBLIC 'CODE'
_TEXT	ENDS
;	COMDAT ??$_Ptr_cat@VITestCase@@@std@@YA?AU_Scalar_ptr_iterator_tag@0@PAPAVITestCase@@0@Z
_TEXT	SEGMENT PARA USE32 PUBLIC 'CODE'
_TEXT	ENDS
;	COMDAT ??$_Destroy_range@PAVITestCase@@V?$allocator@PAVITestCase@@@std@@@std@@YAXPAPAVITestCase@@0AAV?$allocator@PAVITestCase@@@0@U_Scalar_ptr_iterator_tag@0@@Z
_TEXT	SEGMENT PARA USE32 PUBLIC 'CODE'
_TEXT	ENDS
;	COMDAT ??$_Ptr_cat@U__JOINPLAYER@CGuildCombat@@@std@@YA?AU_Scalar_ptr_iterator_tag@0@PAPAU__JOINPLAYER@CGuildCombat@@0@Z
_TEXT	SEGMENT PARA USE32 PUBLIC 'CODE'
_TEXT	ENDS
;	COMDAT ??$_Destroy_range@PAU__JOINPLAYER@CGuildCombat@@V?$allocator@PAU__JOINPLAYER@CGuildCombat@@@std@@@std@@YAXPAPAU__JOINPLAYER@CGuildCombat@@0AAV?$allocator@PAU__JOINPLAYER@CGuildCombat@@@0@U_Scalar_ptr_iterator_tag@0@@Z
_TEXT	SEGMENT PARA USE32 PUBLIC 'CODE'
_TEXT	ENDS
;	COMDAT ??$_Ptr_cat@PAU__SECRETROOM_MONSTER@@PAU1@@std@@YA?AU_Nonscalar_ptr_iterator_tag@0@AAPAU__SECRETROOM_MONSTER@@0@Z
_TEXT	SEGMENT PARA USE32 PUBLIC 'CODE'
_TEXT	ENDS
;	COMDAT ??$_Destroy_range@U__SECRETROOM_MONSTER@@V?$allocator@U__SECRETROOM_MONSTER@@@std@@@std@@YAXPAU__SECRETROOM_MONSTER@@0AAV?$allocator@U__SECRETROOM_MONSTER@@@0@U_Nonscalar_ptr_iterator_tag@0@@Z
_TEXT	SEGMENT PARA USE32 PUBLIC 'CODE'
_TEXT	ENDS
;	COMDAT ??$_Destroy_range@V?$basic_string@DU?$char_traits@D@std@@V?$allocator@D@2@@std@@V?$allocator@V?$basic_string@DU?$char_traits@D@std@@V?$allocator@D@2@@std@@@2@@std@@YAXPAV?$basic_string@DU?$char_traits@D@std@@V?$allocator@D@2@@0@0AAV?$allocator@V?$basic_string@DU?$char_traits@D@std@@V?$allocator@D@2@@std@@@0@U_Nonscalar_ptr_iterator_tag@0@@Z
_TEXT	SEGMENT PARA USE32 PUBLIC 'CODE'
_TEXT	ENDS
;	COMDAT ??$_Uninitialized_copy@PAV?$basic_string@DU?$char_traits@D@std@@V?$allocator@D@2@@std@@PAV12@V?$allocator@V?$basic_string@DU?$char_traits@D@std@@V?$allocator@D@2@@std@@@2@@std@@YAPAV?$basic_string@DU?$char_traits@D@std@@V?$allocator@D@2@@0@PAV10@00AAV?$allocator@V?$basic_string@DU?$char_traits@D@std@@V?$allocator@D@2@@std@@@0@@Z
_TEXT	SEGMENT PARA USE32 PUBLIC 'CODE'
_TEXT	ENDS
;	COMDAT ??$_Copy_backward_opt@PAV?$basic_string@DU?$char_traits@D@std@@V?$allocator@D@2@@std@@PAV12@@std@@YAPAV?$basic_string@DU?$char_traits@D@std@@V?$allocator@D@2@@0@PAV10@00U_Nonscalar_ptr_iterator_tag@0@@Z
_TEXT	SEGMENT PARA USE32 PUBLIC 'CODE'
_TEXT	ENDS
;	COMDAT ??$_Uninitialized_copy@PAUMINIGMAME_PRIZE_LIST@CRainbowRaceMng@@PAU12@V?$allocator@UMINIGMAME_PRIZE_LIST@CRainbowRaceMng@@@std@@@std@@YAPAUMINIGMAME_PRIZE_LIST@CRainbowRaceMng@@PAU12@00AAV?$allocator@UMINIGMAME_PRIZE_LIST@CRainbowRaceMng@@@0@@Z
_TEXT	SEGMENT PARA USE32 PUBLIC 'CODE'
_TEXT	ENDS
;	COMDAT ??$_Copy_backward_opt@PAUMINIGMAME_PRIZE_LIST@CRainbowRaceMng@@PAU12@@std@@YAPAUMINIGMAME_PRIZE_LIST@CRainbowRaceMng@@PAU12@00U_Nonscalar_ptr_iterator_tag@0@@Z
_TEXT	SEGMENT PARA USE32 PUBLIC 'CODE'
_TEXT	ENDS
;	COMDAT ??$_Destroy_range@MV?$allocator@M@std@@@std@@YAXPAM0AAV?$allocator@M@0@U_Scalar_ptr_iterator_tag@0@@Z
_TEXT	SEGMENT PARA USE32 PUBLIC 'CODE'
_TEXT	ENDS
;	COMDAT ??$_Destroy_range@UMINIGMAME_PRIZE_LIST@CRainbowRaceMng@@V?$allocator@UMINIGMAME_PRIZE_LIST@CRainbowRaceMng@@@std@@@std@@YAXPAUMINIGMAME_PRIZE_LIST@CRainbowRaceMng@@0AAV?$allocator@UMINIGMAME_PRIZE_LIST@CRainbowRaceMng@@@0@U_Nonscalar_ptr_iterator_tag@0@@Z
_TEXT	SEGMENT PARA USE32 PUBLIC 'CODE'
_TEXT	ENDS
;	COMDAT ??$_Destroy@UtagDROPITEM@@@std@@YAXPAUtagDROPITEM@@@Z
_TEXT	SEGMENT PARA USE32 PUBLIC 'CODE'
_TEXT	ENDS
;	COMDAT ??$_Destroy@UWORMON@@@std@@YAXPAUWORMON@@@Z
_TEXT	SEGMENT PARA USE32 PUBLIC 'CODE'
_TEXT	ENDS
;	COMDAT ??$_Destroy@U__ITEMGAME@CMiniGame@@@std@@YAXPAU__ITEMGAME@CMiniGame@@@Z
_TEXT	SEGMENT PARA USE32 PUBLIC 'CODE'
_TEXT	ENDS
;	COMDAT ??$_Destroy@U__ITEM@CExchange@@@std@@YAXPAU__ITEM@CExchange@@@Z
_TEXT	SEGMENT PARA USE32 PUBLIC 'CODE'
_TEXT	ENDS
;	COMDAT ??$_Destroy@U__POINT@CExchange@@@std@@YAXPAU__POINT@CExchange@@@Z
_TEXT	SEGMENT PARA USE32 PUBLIC 'CODE'
_TEXT	ENDS
;	COMDAT ??$copy@PAEPAE@std@@YAPAEPAE00@Z
_TEXT	SEGMENT PARA USE32 PUBLIC 'CODE'
_TEXT	ENDS
;	COMDAT ??$_Construct@U__SPAWNREGION@CEventLua@@U12@@std@@YAXPAU__SPAWNREGION@CEventLua@@ABU12@@Z
_TEXT	SEGMENT PARA USE32 PUBLIC 'CODE'
_TEXT	ENDS
;	COMDAT ??$_Destroy@U__SPAWNREGION@CEventLua@@@std@@YAXPAU__SPAWNREGION@CEventLua@@@Z
_TEXT	SEGMENT PARA USE32 PUBLIC 'CODE'
_TEXT	ENDS
;	COMDAT ??$_Destroy@UD3DXVECTOR3@@@std@@YAXPAUD3DXVECTOR3@@@Z
_TEXT	SEGMENT PARA USE32 PUBLIC 'CODE'
_TEXT	ENDS
;	COMDAT ??$_Destroy@U_GIFTBOX@@@std@@YAXPAU_GIFTBOX@@@Z
_TEXT	SEGMENT PARA USE32 PUBLIC 'CODE'
_TEXT	ENDS
;	COMDAT ?construct@?$allocator@V?$basic_string@DU?$char_traits@D@std@@V?$allocator@D@2@@std@@@std@@QAEXPAV?$basic_string@DU?$char_traits@D@std@@V?$allocator@D@2@@2@ABV32@@Z
_TEXT	SEGMENT PARA USE32 PUBLIC 'CODE'
_TEXT	ENDS
;	COMDAT ?destroy@?$allocator@V?$basic_string@DU?$char_traits@D@std@@V?$allocator@D@2@@std@@@std@@QAEXPAV?$basic_string@DU?$char_traits@D@std@@V?$allocator@D@2@@2@@Z
_TEXT	SEGMENT PARA USE32 PUBLIC 'CODE'
_TEXT	ENDS
;	COMDAT ?construct@?$allocator@E@std@@QAEXPAEABE@Z
_TEXT	SEGMENT PARA USE32 PUBLIC 'CODE'
_TEXT	ENDS
;	COMDAT ?destroy@?$allocator@E@std@@QAEXPAE@Z
_TEXT	SEGMENT PARA USE32 PUBLIC 'CODE'
_TEXT	ENDS
;	COMDAT ??Dconst_iterator@?$vector@EV?$allocator@E@std@@@std@@QBEABEXZ
_TEXT	SEGMENT PARA USE32 PUBLIC 'CODE'
_TEXT	ENDS
;	COMDAT ??Econst_iterator@?$vector@EV?$allocator@E@std@@@std@@QAEAAV012@XZ
_TEXT	SEGMENT PARA USE32 PUBLIC 'CODE'
_TEXT	ENDS
;	COMDAT ?destroy@?$allocator@U__SECRETROOM_MONSTER@@@std@@QAEXPAU__SECRETROOM_MONSTER@@@Z
_TEXT	SEGMENT PARA USE32 PUBLIC 'CODE'
_TEXT	ENDS
;	COMDAT ?construct@?$allocator@UMINIGMAME_PRIZE_LIST@CRainbowRaceMng@@@std@@QAEXPAUMINIGMAME_PRIZE_LIST@CRainbowRaceMng@@ABU34@@Z
_TEXT	SEGMENT PARA USE32 PUBLIC 'CODE'
_TEXT	ENDS
;	COMDAT ?destroy@?$allocator@UMINIGMAME_PRIZE_LIST@CRainbowRaceMng@@@std@@QAEXPAUMINIGMAME_PRIZE_LIST@CRainbowRaceMng@@@Z
_TEXT	SEGMENT PARA USE32 PUBLIC 'CODE'
_TEXT	ENDS
;	COMDAT ??$_Insert@Vconst_iterator@?$vector@EV?$allocator@E@std@@@std@@@?$vector@EV?$allocator@E@std@@@std@@QAEXViterator@01@Vconst_iterator@01@1Uforward_iterator_tag@1@@Z
_TEXT	SEGMENT PARA USE32 PUBLIC 'CODE'
_TEXT	ENDS
;	COMDAT ??$_Uninit_copy@PAV?$basic_string@DU?$char_traits@D@std@@V?$allocator@D@2@@std@@PAV12@V?$allocator@V?$basic_string@DU?$char_traits@D@std@@V?$allocator@D@2@@std@@@2@@std@@YAPAV?$basic_string@DU?$char_traits@D@std@@V?$allocator@D@2@@0@PAV10@00AAV?$allocator@V?$basic_string@DU?$char_traits@D@std@@V?$allocator@D@2@@std@@@0@U_Nonscalar_ptr_iterator_tag@0@@Z
_TEXT	SEGMENT PARA USE32 PUBLIC 'CODE'
_TEXT	ENDS
;	COMDAT ??$_Uninit_copy@PAUMINIGMAME_PRIZE_LIST@CRainbowRaceMng@@PAU12@V?$allocator@UMINIGMAME_PRIZE_LIST@CRainbowRaceMng@@@std@@@std@@YAPAUMINIGMAME_PRIZE_LIST@CRainbowRaceMng@@PAU12@00AAV?$allocator@UMINIGMAME_PRIZE_LIST@CRainbowRaceMng@@@0@U_Nonscalar_ptr_iterator_tag@0@@Z
_TEXT	SEGMENT PARA USE32 PUBLIC 'CODE'
_TEXT	ENDS
;	COMDAT ??$_Copy_opt@PAEPAE@std@@YAPAEPAE00U_Scalar_ptr_iterator_tag@0@@Z
_TEXT	SEGMENT PARA USE32 PUBLIC 'CODE'
_TEXT	ENDS
;	COMDAT ??$_Construct@V?$basic_string@DU?$char_traits@D@std@@V?$allocator@D@2@@std@@V12@@std@@YAXPAV?$basic_string@DU?$char_traits@D@std@@V?$allocator@D@2@@0@ABV10@@Z
_TEXT	SEGMENT PARA USE32 PUBLIC 'CODE'
_TEXT	ENDS
;	COMDAT ??$_Destroy@V?$basic_string@DU?$char_traits@D@std@@V?$allocator@D@2@@std@@@std@@YAXPAV?$basic_string@DU?$char_traits@D@std@@V?$allocator@D@2@@0@@Z
_TEXT	SEGMENT PARA USE32 PUBLIC 'CODE'
_TEXT	ENDS
;	COMDAT ??$_Construct@EE@std@@YAXPAEABE@Z
_TEXT	SEGMENT PARA USE32 PUBLIC 'CODE'
_TEXT	ENDS
;	COMDAT ??$_Destroy@E@std@@YAXPAE@Z
_TEXT	SEGMENT PARA USE32 PUBLIC 'CODE'
_TEXT	ENDS
;	COMDAT ??$_Destroy@U__SECRETROOM_MONSTER@@@std@@YAXPAU__SECRETROOM_MONSTER@@@Z
_TEXT	SEGMENT PARA USE32 PUBLIC 'CODE'
_TEXT	ENDS
;	COMDAT ??$_Construct@UMINIGMAME_PRIZE_LIST@CRainbowRaceMng@@U12@@std@@YAXPAUMINIGMAME_PRIZE_LIST@CRainbowRaceMng@@ABU12@@Z
_TEXT	SEGMENT PARA USE32 PUBLIC 'CODE'
_TEXT	ENDS
;	COMDAT ??$_Destroy@UMINIGMAME_PRIZE_LIST@CRainbowRaceMng@@@std@@YAXPAUMINIGMAME_PRIZE_LIST@CRainbowRaceMng@@@Z
_TEXT	SEGMENT PARA USE32 PUBLIC 'CODE'
_TEXT	ENDS
;	COMDAT ??_G?$basic_string@DU?$char_traits@D@std@@V?$allocator@D@2@@std@@QAEPAXI@Z
_TEXT	SEGMENT PARA USE32 PUBLIC 'CODE'
_TEXT	ENDS
;	COMDAT ?capacity@?$vector@EV?$allocator@E@std@@@std@@QBEIXZ
_TEXT	SEGMENT PARA USE32 PUBLIC 'CODE'
_TEXT	ENDS
;	COMDAT ??Giterator@?$vector@EV?$allocator@E@std@@@std@@QBEHABVconst_iterator@12@@Z
_TEXT	SEGMENT PARA USE32 PUBLIC 'CODE'
_TEXT	ENDS
;	COMDAT ??Gconst_iterator@?$vector@EV?$allocator@E@std@@@std@@QBEHABV012@@Z
_TEXT	SEGMENT PARA USE32 PUBLIC 'CODE'
_TEXT	ENDS
;	COMDAT ??$_Distance@Vconst_iterator@?$vector@EV?$allocator@E@std@@@std@@I@std@@YAXVconst_iterator@?$vector@EV?$allocator@E@std@@@0@0AAI@Z
_TEXT	SEGMENT PARA USE32 PUBLIC 'CODE'
_TEXT	ENDS
;	COMDAT ??$_Ucopy@PAE@?$vector@EV?$allocator@E@std@@@std@@IAEPAEPAE00@Z
_TEXT	SEGMENT PARA USE32 PUBLIC 'CODE'
_TEXT	ENDS
;	COMDAT ??$advance@Vconst_iterator@?$vector@EV?$allocator@E@std@@@std@@H@std@@YAXAAVconst_iterator@?$vector@EV?$allocator@E@std@@@0@H@Z
_TEXT	SEGMENT PARA USE32 PUBLIC 'CODE'
_TEXT	ENDS
;	COMDAT ??$copy@Vconst_iterator@?$vector@EV?$allocator@E@std@@@std@@PAE@std@@YAPAEVconst_iterator@?$vector@EV?$allocator@E@std@@@0@0PAE@Z
_TEXT	SEGMENT PARA USE32 PUBLIC 'CODE'
_TEXT	ENDS
;	COMDAT ??$copy_backward@PAEPAE@std@@YAPAEPAE00@Z
_TEXT	SEGMENT PARA USE32 PUBLIC 'CODE'
_TEXT	ENDS
;	COMDAT ??$_Distance2@Vconst_iterator@?$vector@EV?$allocator@E@std@@@std@@I@std@@YAXVconst_iterator@?$vector@EV?$allocator@E@std@@@0@0AAIUrandom_access_iterator_tag@0@@Z
_TEXT	SEGMENT PARA USE32 PUBLIC 'CODE'
_TEXT	ENDS
;	COMDAT ??$_Uninitialized_copy@PAEPAEV?$allocator@E@std@@@std@@YAPAEPAE00AAV?$allocator@E@0@@Z
_TEXT	SEGMENT PARA USE32 PUBLIC 'CODE'
_TEXT	ENDS
;	COMDAT ??$_Advance@Vconst_iterator@?$vector@EV?$allocator@E@std@@@std@@H@std@@YAXAAVconst_iterator@?$vector@EV?$allocator@E@std@@@0@HUrandom_access_iterator_tag@0@@Z
_TEXT	SEGMENT PARA USE32 PUBLIC 'CODE'
_TEXT	ENDS
;	COMDAT ??$_Copy_opt@Vconst_iterator@?$vector@EV?$allocator@E@std@@@std@@PAE@std@@YAPAEVconst_iterator@?$vector@EV?$allocator@E@std@@@0@0PAEU_Nonscalar_ptr_iterator_tag@0@@Z
_TEXT	SEGMENT PARA USE32 PUBLIC 'CODE'
_TEXT	ENDS
;	COMDAT ??$_Copy_backward_opt@PAEPAE@std@@YAPAEPAE00U_Scalar_ptr_iterator_tag@0@@Z
_TEXT	SEGMENT PARA USE32 PUBLIC 'CODE'
_TEXT	ENDS
;	COMDAT ??Yconst_iterator@?$vector@EV?$allocator@E@std@@@std@@QAEAAV012@H@Z
_TEXT	SEGMENT PARA USE32 PUBLIC 'CODE'
_TEXT	ENDS
;	COMDAT ??$_Uninit_copy@EE@std@@YAPAEPAE00AAV?$allocator@E@0@U_Scalar_ptr_iterator_tag@0@@Z
_TEXT	SEGMENT PARA USE32 PUBLIC 'CODE'
_TEXT	ENDS
;	COMDAT ?deallocate@?$allocator@E@std@@QAEXPAEI@Z
_TEXT	SEGMENT PARA USE32 PUBLIC 'CODE'
_TEXT	ENDS
;	COMDAT ??$_Ucopy@Vconst_iterator@?$vector@EV?$allocator@E@std@@@std@@@?$vector@EV?$allocator@E@std@@@std@@IAEPAEVconst_iterator@01@0PAE@Z
_TEXT	SEGMENT PARA USE32 PUBLIC 'CODE'
_TEXT	ENDS
;	COMDAT ?allocate@?$allocator@E@std@@QAEPAEI@Z
_TEXT	SEGMENT PARA USE32 PUBLIC 'CODE'
_TEXT	ENDS
;	COMDAT ??$_Allocate@E@std@@YAPAEIPAE@Z
_TEXT	SEGMENT PARA USE32 PUBLIC 'CODE'
_TEXT	ENDS
;	COMDAT ?_Xlen@?$vector@EV?$allocator@E@std@@@std@@IBEXXZ
_TEXT	SEGMENT PARA USE32 PUBLIC 'CODE'
_TEXT	ENDS
;	COMDAT ?size@?$vector@EV?$allocator@E@std@@@std@@QBEIXZ
_TEXT	SEGMENT PARA USE32 PUBLIC 'CODE'
_TEXT	ENDS
;	COMDAT ?max_size@?$vector@EV?$allocator@E@std@@@std@@QBEIXZ
_TEXT	SEGMENT PARA USE32 PUBLIC 'CODE'
_TEXT	ENDS
;	COMDAT ?max_size@?$allocator@E@std@@QBEIXZ
_TEXT	SEGMENT PARA USE32 PUBLIC 'CODE'
_TEXT	ENDS
;	COMDAT ?_Ptr_cat@std@@YA?AU_Scalar_ptr_iterator_tag@1@PAE0@Z
_TEXT	SEGMENT PARA USE32 PUBLIC 'CODE'
_TEXT	ENDS
;	COMDAT ??0const_iterator@?$vector@EV?$allocator@E@std@@@std@@QAE@PAE@Z
_TEXT	SEGMENT PARA USE32 PUBLIC 'CODE'
_TEXT	ENDS
;	COMDAT ?_Destroy@?$vector@EV?$allocator@E@std@@@std@@IAEXPAE0@Z
_TEXT	SEGMENT PARA USE32 PUBLIC 'CODE'
_TEXT	ENDS
;	COMDAT ??$_Destroy_range@EV?$allocator@E@std@@@std@@YAXPAE0AAV?$allocator@E@0@@Z
_TEXT	SEGMENT PARA USE32 PUBLIC 'CODE'
_TEXT	ENDS
;	COMDAT ?_Ptr_cat@std@@YA?AU_Scalar_ptr_iterator_tag@1@PAM0@Z
_TEXT	SEGMENT PARA USE32 PUBLIC 'CODE'
_TEXT	ENDS
;	COMDAT ??4?$basic_string@DU?$char_traits@D@std@@V?$allocator@D@2@@std@@QAEAAV01@ABV01@@Z
_TEXT	SEGMENT PARA USE32 PUBLIC 'CODE'
_TEXT	ENDS
;	COMDAT ?assign@?$basic_string@DU?$char_traits@D@std@@V?$allocator@D@2@@std@@QAEAAV12@ABV12@@Z
_TEXT	SEGMENT PARA USE32 PUBLIC 'CODE'
_TEXT	ENDS
;	COMDAT ?assign@?$basic_string@DU?$char_traits@D@std@@V?$allocator@D@2@@std@@QAEAAV12@ABV12@II@Z
_TEXT	SEGMENT PARA USE32 PUBLIC 'CODE'
_TEXT	ENDS
;	COMDAT ?erase@?$basic_string@DU?$char_traits@D@std@@V?$allocator@D@2@@std@@QAEAAV12@II@Z
_TEXT	SEGMENT PARA USE32 PUBLIC 'CODE'
_TEXT	ENDS
;	COMDAT ?move@?$char_traits@D@std@@SAPADPADPBDI@Z
_TEXT	SEGMENT PARA USE32 PUBLIC 'CODE'
_TEXT	ENDS
;	COMDAT ?_Grow@?$basic_string@DU?$char_traits@D@std@@V?$allocator@D@2@@std@@IAE_NI_N@Z
_TEXT	SEGMENT PARA USE32 PUBLIC 'CODE'
_TEXT	ENDS
;	COMDAT ?max_size@?$basic_string@DU?$char_traits@D@std@@V?$allocator@D@2@@std@@QBEIXZ
_TEXT	SEGMENT PARA USE32 PUBLIC 'CODE'
_TEXT	ENDS
;	COMDAT ?max_size@?$allocator@D@std@@QBEIXZ
_TEXT	SEGMENT PARA USE32 PUBLIC 'CODE'
_TEXT	ENDS
;	COMDAT ?_Copy@?$basic_string@DU?$char_traits@D@std@@V?$allocator@D@2@@std@@IAEXII@Z
_TEXT	SEGMENT PARA USE32 PUBLIC 'CODE'
_TEXT	ENDS
;	COMDAT ?allocate@?$allocator@D@std@@QAEPADI@Z
_TEXT	SEGMENT PARA USE32 PUBLIC 'CODE'
_TEXT	ENDS
;	COMDAT ??$_Allocate@D@std@@YAPADIPAD@Z
_TEXT	SEGMENT PARA USE32 PUBLIC 'CODE'
_TEXT	ENDS
;	COMDAT ?_Tidy@?$basic_string@DU?$char_traits@D@std@@V?$allocator@D@2@@std@@IAEX_NI@Z
_TEXT	SEGMENT PARA USE32 PUBLIC 'CODE'
_TEXT	ENDS
;	COMDAT ?deallocate@?$allocator@D@std@@QAEXPADI@Z
_TEXT	SEGMENT PARA USE32 PUBLIC 'CODE'
_TEXT	ENDS
;	COMDAT ?copy@?$char_traits@D@std@@SAPADPADPBDI@Z
_TEXT	SEGMENT PARA USE32 PUBLIC 'CODE'
_TEXT	ENDS
;	COMDAT ?_Myptr@?$basic_string@DU?$char_traits@D@std@@V?$allocator@D@2@@std@@QAEPADXZ
_TEXT	SEGMENT PARA USE32 PUBLIC 'CODE'
_TEXT	ENDS
;	COMDAT ?_Eos@?$basic_string@DU?$char_traits@D@std@@V?$allocator@D@2@@std@@IAEXI@Z
_TEXT	SEGMENT PARA USE32 PUBLIC 'CODE'
_TEXT	ENDS
;	COMDAT ?assign@?$char_traits@D@std@@SAXAADABD@Z
_TEXT	SEGMENT PARA USE32 PUBLIC 'CODE'
_TEXT	ENDS
;	COMDAT ?npos@?$basic_string@DU?$char_traits@D@std@@V?$allocator@D@2@@std@@2IB
CONST	SEGMENT DWORD USE32 PUBLIC 'CONST'
CONST	ENDS
;	COMDAT __CTA2?AVbad_weak_ptr@boost@@
xdata$x	SEGMENT DWORD USE32 PUBLIC 'CONST'
xdata$x	ENDS
;	COMDAT __CT??_R0?AVexception@@@8??0exception@@QAE@ABV0@@Z12
xdata$x	SEGMENT DWORD USE32 PUBLIC 'CONST'
xdata$x	ENDS
;	COMDAT ??_R0?AVexception@@@8
_DATA	SEGMENT DWORD USE32 PUBLIC 'DATA'
_DATA	ENDS
;	COMDAT __CT??_R0?AVbad_weak_ptr@boost@@@8??0bad_weak_ptr@boost@@QAE@ABV01@@Z12
xdata$x	SEGMENT DWORD USE32 PUBLIC 'CONST'
xdata$x	ENDS
;	COMDAT ??_R0?AVbad_weak_ptr@boost@@@8
_DATA	SEGMENT DWORD USE32 PUBLIC 'DATA'
_DATA	ENDS
;	COMDAT __TI2?AVbad_weak_ptr@boost@@
xdata$x	SEGMENT DWORD USE32 PUBLIC 'CONST'
xdata$x	ENDS
;	COMDAT ?_Ptr_cat@std@@YA?AU_Scalar_ptr_iterator_tag@1@PAJ0@Z
_TEXT	SEGMENT PARA USE32 PUBLIC 'CODE'
_TEXT	ENDS
;	COMDAT ??9const_iterator@?$_Tree@V?$_Tmap_traits@KEU?$less@K@std@@V?$allocator@U?$pair@$$CBKE@std@@@2@$0A@@std@@@std@@QBE_NABV012@@Z
_TEXT	SEGMENT PARA USE32 PUBLIC 'CODE'
_TEXT	ENDS
;	COMDAT ??8const_iterator@?$_Tree@V?$_Tmap_traits@KEU?$less@K@std@@V?$allocator@U?$pair@$$CBKE@std@@@2@$0A@@std@@@std@@QBE_NABV012@@Z
_TEXT	SEGMENT PARA USE32 PUBLIC 'CODE'
_TEXT	ENDS
;	COMDAT ??Eiterator@?$_Tree@V?$_Tmap_traits@KEU?$less@K@std@@V?$allocator@U?$pair@$$CBKE@std@@@2@$0A@@std@@@std@@QAEAAV012@XZ
_TEXT	SEGMENT PARA USE32 PUBLIC 'CODE'
_TEXT	ENDS
;	COMDAT ??Econst_iterator@?$_Tree@V?$_Tmap_traits@KEU?$less@K@std@@V?$allocator@U?$pair@$$CBKE@std@@@2@$0A@@std@@@std@@QAEAAV012@XZ
_TEXT	SEGMENT PARA USE32 PUBLIC 'CODE'
_TEXT	ENDS
;	COMDAT ?_Inc@const_iterator@?$_Tree@V?$_Tmap_traits@KEU?$less@K@std@@V?$allocator@U?$pair@$$CBKE@std@@@2@$0A@@std@@@std@@QAEXXZ
_TEXT	SEGMENT PARA USE32 PUBLIC 'CODE'
_TEXT	ENDS
;	COMDAT ?_Min@?$_Tree@V?$_Tmap_traits@KEU?$less@K@std@@V?$allocator@U?$pair@$$CBKE@std@@@2@$0A@@std@@@std@@KAPAU_Node@?$_Tree_nod@V?$_Tmap_traits@KEU?$less@K@std@@V?$allocator@U?$pair@$$CBKE@std@@@2@$0A@@std@@@2@PAU342@@Z
_TEXT	SEGMENT PARA USE32 PUBLIC 'CODE'
_TEXT	ENDS
;	COMDAT ?_Left@?$_Tree@V?$_Tmap_traits@KEU?$less@K@std@@V?$allocator@U?$pair@$$CBKE@std@@@2@$0A@@std@@@std@@KAAAPAU_Node@?$_Tree_nod@V?$_Tmap_traits@KEU?$less@K@std@@V?$allocator@U?$pair@$$CBKE@std@@@2@$0A@@std@@@2@PAU342@@Z
_TEXT	SEGMENT PARA USE32 PUBLIC 'CODE'
_TEXT	ENDS
;	COMDAT ?_Isnil@?$_Tree@V?$_Tmap_traits@KEU?$less@K@std@@V?$allocator@U?$pair@$$CBKE@std@@@2@$0A@@std@@@std@@KAAADPAU_Node@?$_Tree_nod@V?$_Tmap_traits@KEU?$less@K@std@@V?$allocator@U?$pair@$$CBKE@std@@@2@$0A@@std@@@2@@Z
_TEXT	SEGMENT PARA USE32 PUBLIC 'CODE'
_TEXT	ENDS
;	COMDAT ?_Parent@?$_Tree@V?$_Tmap_traits@KEU?$less@K@std@@V?$allocator@U?$pair@$$CBKE@std@@@2@$0A@@std@@@std@@KAAAPAU_Node@?$_Tree_nod@V?$_Tmap_traits@KEU?$less@K@std@@V?$allocator@U?$pair@$$CBKE@std@@@2@$0A@@std@@@2@PAU342@@Z
_TEXT	SEGMENT PARA USE32 PUBLIC 'CODE'
_TEXT	ENDS
;	COMDAT ?_Right@?$_Tree@V?$_Tmap_traits@KEU?$less@K@std@@V?$allocator@U?$pair@$$CBKE@std@@@2@$0A@@std@@@std@@KAAAPAU_Node@?$_Tree_nod@V?$_Tmap_traits@KEU?$less@K@std@@V?$allocator@U?$pair@$$CBKE@std@@@2@$0A@@std@@@2@PAU342@@Z
_TEXT	SEGMENT PARA USE32 PUBLIC 'CODE'
_TEXT	ENDS
;	COMDAT ??9const_iterator@?$_Tree@V?$_Tmap_traits@KPAVCCtrl@@U?$less@K@std@@V?$allocator@U?$pair@$$CBKPAVCCtrl@@@std@@@3@$0A@@std@@@std@@QBE_NABV012@@Z
_TEXT	SEGMENT PARA USE32 PUBLIC 'CODE'
_TEXT	ENDS
;	COMDAT ??9const_iterator@?$_Tree@V?$_Tmap_traits@KPAVCUser@@U?$less@K@std@@V?$allocator@U?$pair@$$CBKPAVCUser@@@std@@@3@$0A@@std@@@std@@QBE_NABV012@@Z
_TEXT	SEGMENT PARA USE32 PUBLIC 'CODE'
_TEXT	ENDS
;	COMDAT ??8const_iterator@?$_Tree@V?$_Tmap_traits@KPAVCUser@@U?$less@K@std@@V?$allocator@U?$pair@$$CBKPAVCUser@@@std@@@3@$0A@@std@@@std@@QBE_NABV012@@Z
_TEXT	SEGMENT PARA USE32 PUBLIC 'CODE'
_TEXT	ENDS
;	COMDAT ??Eiterator@?$_Tree@V?$_Tmap_traits@KPAVCUser@@U?$less@K@std@@V?$allocator@U?$pair@$$CBKPAVCUser@@@std@@@3@$0A@@std@@@std@@QAEAAV012@XZ
_TEXT	SEGMENT PARA USE32 PUBLIC 'CODE'
_TEXT	ENDS
;	COMDAT ??Econst_iterator@?$_Tree@V?$_Tmap_traits@KPAVCUser@@U?$less@K@std@@V?$allocator@U?$pair@$$CBKPAVCUser@@@std@@@3@$0A@@std@@@std@@QAEAAV012@XZ
_TEXT	SEGMENT PARA USE32 PUBLIC 'CODE'
_TEXT	ENDS
;	COMDAT ?_Inc@const_iterator@?$_Tree@V?$_Tmap_traits@KPAVCUser@@U?$less@K@std@@V?$allocator@U?$pair@$$CBKPAVCUser@@@std@@@3@$0A@@std@@@std@@QAEXXZ
_TEXT	SEGMENT PARA USE32 PUBLIC 'CODE'
_TEXT	ENDS
;	COMDAT ?_Min@?$_Tree@V?$_Tmap_traits@KPAVCUser@@U?$less@K@std@@V?$allocator@U?$pair@$$CBKPAVCUser@@@std@@@3@$0A@@std@@@std@@KAPAU_Node@?$_Tree_nod@V?$_Tmap_traits@KPAVCUser@@U?$less@K@std@@V?$allocator@U?$pair@$$CBKPAVCUser@@@std@@@3@$0A@@std@@@2@PAU342@@Z
_TEXT	SEGMENT PARA USE32 PUBLIC 'CODE'
_TEXT	ENDS
;	COMDAT ?_Left@?$_Tree@V?$_Tmap_traits@KPAVCUser@@U?$less@K@std@@V?$allocator@U?$pair@$$CBKPAVCUser@@@std@@@3@$0A@@std@@@std@@KAAAPAU_Node@?$_Tree_nod@V?$_Tmap_traits@KPAVCUser@@U?$less@K@std@@V?$allocator@U?$pair@$$CBKPAVCUser@@@std@@@3@$0A@@std@@@2@PAU342@@Z
_TEXT	SEGMENT PARA USE32 PUBLIC 'CODE'
_TEXT	ENDS
;	COMDAT ?_Isnil@?$_Tree@V?$_Tmap_traits@KPAVCUser@@U?$less@K@std@@V?$allocator@U?$pair@$$CBKPAVCUser@@@std@@@3@$0A@@std@@@std@@KAAADPAU_Node@?$_Tree_nod@V?$_Tmap_traits@KPAVCUser@@U?$less@K@std@@V?$allocator@U?$pair@$$CBKPAVCUser@@@std@@@3@$0A@@std@@@2@@Z
_TEXT	SEGMENT PARA USE32 PUBLIC 'CODE'
_TEXT	ENDS
;	COMDAT ?_Parent@?$_Tree@V?$_Tmap_traits@KPAVCUser@@U?$less@K@std@@V?$allocator@U?$pair@$$CBKPAVCUser@@@std@@@3@$0A@@std@@@std@@KAAAPAU_Node@?$_Tree_nod@V?$_Tmap_traits@KPAVCUser@@U?$less@K@std@@V?$allocator@U?$pair@$$CBKPAVCUser@@@std@@@3@$0A@@std@@@2@PAU342@@Z
_TEXT	SEGMENT PARA USE32 PUBLIC 'CODE'
_TEXT	ENDS
;	COMDAT ?_Right@?$_Tree@V?$_Tmap_traits@KPAVCUser@@U?$less@K@std@@V?$allocator@U?$pair@$$CBKPAVCUser@@@std@@@3@$0A@@std@@@std@@KAAAPAU_Node@?$_Tree_nod@V?$_Tmap_traits@KPAVCUser@@U?$less@K@std@@V?$allocator@U?$pair@$$CBKPAVCUser@@@std@@@3@$0A@@std@@@2@PAU342@@Z
_TEXT	SEGMENT PARA USE32 PUBLIC 'CODE'
_TEXT	ENDS
;	COMDAT ?_Psave@?$_Facetptr@V?$ctype@G@std@@@std@@2PBVfacet@locale@2@B
_DATA	SEGMENT DWORD USE32 PUBLIC 'DATA'
_DATA	ENDS
;	COMDAT ?_Psave@?$_Facetptr@V?$ctype@D@std@@@std@@2PBVfacet@locale@2@B
_DATA	SEGMENT DWORD USE32 PUBLIC 'DATA'
_DATA	ENDS
;	COMDAT ??3@YAXPAX0@Z
_TEXT	SEGMENT PARA USE32 PUBLIC 'CODE'
_TEXT	ENDS
;	COMDAT ??2@YAPAXIPAX@Z
_TEXT	SEGMENT PARA USE32 PUBLIC 'CODE'
_TEXT	ENDS
;	COMDAT ??0?$basic_string@DU?$char_traits@D@std@@V?$allocator@D@2@@std@@QAE@ABV01@@Z
_TEXT	SEGMENT PARA USE32 PUBLIC 'CODE'
_TEXT	ENDS
;	COMDAT ??0?$_String_val@DV?$allocator@D@std@@@std@@IAE@V?$allocator@D@1@@Z
_TEXT	SEGMENT PARA USE32 PUBLIC 'CODE'
_TEXT	ENDS
;	COMDAT ??0?$allocator@D@std@@QAE@ABV01@@Z
_TEXT	SEGMENT PARA USE32 PUBLIC 'CODE'
_TEXT	ENDS
;	COMDAT ??$swap@D@std@@YAXAAD0@Z
_TEXT	SEGMENT PARA USE32 PUBLIC 'CODE'
_TEXT	ENDS
;	COMDAT __TI3?AVout_of_range@std@@
xdata$x	SEGMENT DWORD USE32 PUBLIC 'CONST'
xdata$x	ENDS
;	COMDAT ??1out_of_range@std@@UAE@XZ
_TEXT	SEGMENT PARA USE32 PUBLIC 'CODE'
_TEXT	ENDS
;	COMDAT ??_7out_of_range@std@@6B@
CONST	SEGMENT DWORD USE32 PUBLIC 'CONST'
CONST	ENDS
;	COMDAT ??_Gout_of_range@std@@UAEPAXI@Z
_TEXT	SEGMENT PARA USE32 PUBLIC 'CODE'
_TEXT	ENDS
;	COMDAT ?what@logic_error@std@@UBEPBDXZ
_TEXT	SEGMENT PARA USE32 PUBLIC 'CODE'
_TEXT	ENDS
;	COMDAT ??1logic_error@std@@UAE@XZ
_TEXT	SEGMENT PARA USE32 PUBLIC 'CODE'
_TEXT	ENDS
;	COMDAT ??_7logic_error@std@@6B@
CONST	SEGMENT DWORD USE32 PUBLIC 'CONST'
CONST	ENDS
;	COMDAT ??_Glogic_error@std@@UAEPAXI@Z
_TEXT	SEGMENT PARA USE32 PUBLIC 'CODE'
_TEXT	ENDS
;	COMDAT __CTA3?AVout_of_range@std@@
xdata$x	SEGMENT DWORD USE32 PUBLIC 'CONST'
xdata$x	ENDS
;	COMDAT __CT??_R0?AVout_of_range@std@@@8??0out_of_range@std@@QAE@ABV01@@Z40
xdata$x	SEGMENT DWORD USE32 PUBLIC 'CONST'
xdata$x	ENDS
;	COMDAT ??_R0?AVout_of_range@std@@@8
_DATA	SEGMENT DWORD USE32 PUBLIC 'DATA'
_DATA	ENDS
;	COMDAT ??0out_of_range@std@@QAE@ABV01@@Z
_TEXT	SEGMENT PARA USE32 PUBLIC 'CODE'
_TEXT	ENDS
;	COMDAT ??0logic_error@std@@QAE@ABV01@@Z
_TEXT	SEGMENT PARA USE32 PUBLIC 'CODE'
_TEXT	ENDS
;	COMDAT __CT??_R0?AVlogic_error@std@@@8??0logic_error@std@@QAE@ABV01@@Z40
xdata$x	SEGMENT DWORD USE32 PUBLIC 'CONST'
xdata$x	ENDS
;	COMDAT ??_R0?AVlogic_error@std@@@8
_DATA	SEGMENT DWORD USE32 PUBLIC 'DATA'
_DATA	ENDS
;	COMDAT ??_C@_0BM@PAPJHAGI@invalid?5map?1set?$DMT?$DO?5iterator?$AA@
CONST	SEGMENT DWORD USE32 PUBLIC 'CONST'
CONST	ENDS
;	COMDAT ??0out_of_range@std@@QAE@ABV?$basic_string@DU?$char_traits@D@std@@V?$allocator@D@2@@1@@Z
_TEXT	SEGMENT PARA USE32 PUBLIC 'CODE'
_TEXT	ENDS
;	COMDAT ??0logic_error@std@@QAE@ABV?$basic_string@DU?$char_traits@D@std@@V?$allocator@D@2@@1@@Z
_TEXT	SEGMENT PARA USE32 PUBLIC 'CODE'
_TEXT	ENDS
;	COMDAT ??_C@_0BD@OLBABOEK@vector?$DMT?$DO?5too?5long?$AA@
CONST	SEGMENT DWORD USE32 PUBLIC 'CONST'
CONST	ENDS
;	COMDAT __TI3?AVlength_error@std@@
xdata$x	SEGMENT DWORD USE32 PUBLIC 'CONST'
xdata$x	ENDS
;	COMDAT ??1length_error@std@@UAE@XZ
_TEXT	SEGMENT PARA USE32 PUBLIC 'CODE'
_TEXT	ENDS
;	COMDAT ??_7length_error@std@@6B@
CONST	SEGMENT DWORD USE32 PUBLIC 'CONST'
CONST	ENDS
;	COMDAT ??_Glength_error@std@@UAEPAXI@Z
_TEXT	SEGMENT PARA USE32 PUBLIC 'CODE'
_TEXT	ENDS
;	COMDAT __CTA3?AVlength_error@std@@
xdata$x	SEGMENT DWORD USE32 PUBLIC 'CONST'
xdata$x	ENDS
;	COMDAT __CT??_R0?AVlength_error@std@@@8??0length_error@std@@QAE@ABV01@@Z40
xdata$x	SEGMENT DWORD USE32 PUBLIC 'CONST'
xdata$x	ENDS
;	COMDAT ??_R0?AVlength_error@std@@@8
_DATA	SEGMENT DWORD USE32 PUBLIC 'DATA'
_DATA	ENDS
;	COMDAT ??0length_error@std@@QAE@ABV01@@Z
_TEXT	SEGMENT PARA USE32 PUBLIC 'CODE'
_TEXT	ENDS
;	COMDAT ??_C@_0BE@JONHPENG@map?1set?$DMT?$DO?5too?5long?$AA@
CONST	SEGMENT DWORD USE32 PUBLIC 'CONST'
CONST	ENDS
;	COMDAT ??0length_error@std@@QAE@ABV?$basic_string@DU?$char_traits@D@std@@V?$allocator@D@2@@1@@Z
_TEXT	SEGMENT PARA USE32 PUBLIC 'CODE'
_TEXT	ENDS
;	COMDAT ?insert@?$_Tree@V?$_Tmap_traits@KPAVCCtrl@@U?$less@K@std@@V?$allocator@U?$pair@$$CBKPAVCCtrl@@@std@@@3@$0A@@std@@@std@@QAE?AU?$pair@Viterator@?$_Tree@V?$_Tmap_traits@KPAVCCtrl@@U?$less@K@std@@V?$allocator@U?$pair@$$CBKPAVCCtrl@@@std@@@3@$0A@@std@@@std@@_N@2@ABU?$pair@$$CBKPAVCCtrl@@@2@@Z
_TEXT	SEGMENT PARA USE32 PUBLIC 'CODE'
_TEXT	ENDS
;	COMDAT ?_Root@?$_Tree@V?$_Tmap_traits@KPAVCCtrl@@U?$less@K@std@@V?$allocator@U?$pair@$$CBKPAVCCtrl@@@std@@@3@$0A@@std@@@std@@IAEAAPAU_Node@?$_Tree_nod@V?$_Tmap_traits@KPAVCCtrl@@U?$less@K@std@@V?$allocator@U?$pair@$$CBKPAVCCtrl@@@std@@@3@$0A@@std@@@2@XZ
_TEXT	SEGMENT PARA USE32 PUBLIC 'CODE'
_TEXT	ENDS
;	COMDAT ?_Parent@?$_Tree@V?$_Tmap_traits@KPAVCCtrl@@U?$less@K@std@@V?$allocator@U?$pair@$$CBKPAVCCtrl@@@std@@@3@$0A@@std@@@std@@KAAAPAU_Node@?$_Tree_nod@V?$_Tmap_traits@KPAVCCtrl@@U?$less@K@std@@V?$allocator@U?$pair@$$CBKPAVCCtrl@@@std@@@3@$0A@@std@@@2@PAU342@@Z
_TEXT	SEGMENT PARA USE32 PUBLIC 'CODE'
_TEXT	ENDS
;	COMDAT ?_Left@?$_Tree@V?$_Tmap_traits@KPAVCCtrl@@U?$less@K@std@@V?$allocator@U?$pair@$$CBKPAVCCtrl@@@std@@@3@$0A@@std@@@std@@KAAAPAU_Node@?$_Tree_nod@V?$_Tmap_traits@KPAVCCtrl@@U?$less@K@std@@V?$allocator@U?$pair@$$CBKPAVCCtrl@@@std@@@3@$0A@@std@@@2@PAU342@@Z
_TEXT	SEGMENT PARA USE32 PUBLIC 'CODE'
_TEXT	ENDS
;	COMDAT ??0iterator@?$_Tree@V?$_Tmap_traits@KPAVCCtrl@@U?$less@K@std@@V?$allocator@U?$pair@$$CBKPAVCCtrl@@@std@@@3@$0A@@std@@@std@@QAE@PAU_Node@?$_Tree_nod@V?$_Tmap_traits@KPAVCCtrl@@U?$less@K@std@@V?$allocator@U?$pair@$$CBKPAVCCtrl@@@std@@@3@$0A@@std@@@2@@Z
_TEXT	SEGMENT PARA USE32 PUBLIC 'CODE'
_TEXT	ENDS
;	COMDAT ??0const_iterator@?$_Tree@V?$_Tmap_traits@KPAVCCtrl@@U?$less@K@std@@V?$allocator@U?$pair@$$CBKPAVCCtrl@@@std@@@3@$0A@@std@@@std@@QAE@PAU_Node@?$_Tree_nod@V?$_Tmap_traits@KPAVCCtrl@@U?$less@K@std@@V?$allocator@U?$pair@$$CBKPAVCCtrl@@@std@@@3@$0A@@std@@@2@@Z
_TEXT	SEGMENT PARA USE32 PUBLIC 'CODE'
_TEXT	ENDS
;	COMDAT ??0?$pair@Viterator@?$_Tree@V?$_Tmap_traits@KPAVCCtrl@@U?$less@K@std@@V?$allocator@U?$pair@$$CBKPAVCCtrl@@@std@@@3@$0A@@std@@@std@@_N@std@@QAE@ABViterator@?$_Tree@V?$_Tmap_traits@KPAVCCtrl@@U?$less@K@std@@V?$allocator@U?$pair@$$CBKPAVCCtrl@@@std@@@3@$0A@@std@@@1@AB_N@Z
_TEXT	SEGMENT PARA USE32 PUBLIC 'CODE'
_TEXT	ENDS
;	COMDAT ??Eiterator@?$_Tree@V?$_Tmap_traits@KPAVCCtrl@@U?$less@K@std@@V?$allocator@U?$pair@$$CBKPAVCCtrl@@@std@@@3@$0A@@std@@@std@@QAEAAV012@XZ
_TEXT	SEGMENT PARA USE32 PUBLIC 'CODE'
_TEXT	ENDS
;	COMDAT ??Econst_iterator@?$_Tree@V?$_Tmap_traits@KPAVCCtrl@@U?$less@K@std@@V?$allocator@U?$pair@$$CBKPAVCCtrl@@@std@@@3@$0A@@std@@@std@@QAEAAV012@XZ
_TEXT	SEGMENT PARA USE32 PUBLIC 'CODE'
_TEXT	ENDS
;	COMDAT ?_Inc@const_iterator@?$_Tree@V?$_Tmap_traits@KPAVCCtrl@@U?$less@K@std@@V?$allocator@U?$pair@$$CBKPAVCCtrl@@@std@@@3@$0A@@std@@@std@@QAEXXZ
_TEXT	SEGMENT PARA USE32 PUBLIC 'CODE'
_TEXT	ENDS
;	COMDAT ?_Min@?$_Tree@V?$_Tmap_traits@KPAVCCtrl@@U?$less@K@std@@V?$allocator@U?$pair@$$CBKPAVCCtrl@@@std@@@3@$0A@@std@@@std@@KAPAU_Node@?$_Tree_nod@V?$_Tmap_traits@KPAVCCtrl@@U?$less@K@std@@V?$allocator@U?$pair@$$CBKPAVCCtrl@@@std@@@3@$0A@@std@@@2@PAU342@@Z
_TEXT	SEGMENT PARA USE32 PUBLIC 'CODE'
_TEXT	ENDS
;	COMDAT ?_Right@?$_Tree@V?$_Tmap_traits@KPAVCCtrl@@U?$less@K@std@@V?$allocator@U?$pair@$$CBKPAVCCtrl@@@std@@@3@$0A@@std@@@std@@KAAAPAU_Node@?$_Tree_nod@V?$_Tmap_traits@KPAVCCtrl@@U?$less@K@std@@V?$allocator@U?$pair@$$CBKPAVCCtrl@@@std@@@3@$0A@@std@@@2@PAU342@@Z
_TEXT	SEGMENT PARA USE32 PUBLIC 'CODE'
_TEXT	ENDS
;	COMDAT ?_Isnil@?$_Tree@V?$_Tmap_traits@KPAVCCtrl@@U?$less@K@std@@V?$allocator@U?$pair@$$CBKPAVCCtrl@@@std@@@3@$0A@@std@@@std@@KAAADPAU_Node@?$_Tree_nod@V?$_Tmap_traits@KPAVCCtrl@@U?$less@K@std@@V?$allocator@U?$pair@$$CBKPAVCCtrl@@@std@@@3@$0A@@std@@@2@@Z
_TEXT	SEGMENT PARA USE32 PUBLIC 'CODE'
_TEXT	ENDS
;	COMDAT ??Fiterator@?$_Tree@V?$_Tmap_traits@KPAVCCtrl@@U?$less@K@std@@V?$allocator@U?$pair@$$CBKPAVCCtrl@@@std@@@3@$0A@@std@@@std@@QAEAAV012@XZ
_TEXT	SEGMENT PARA USE32 PUBLIC 'CODE'
_TEXT	ENDS
;	COMDAT ??Fconst_iterator@?$_Tree@V?$_Tmap_traits@KPAVCCtrl@@U?$less@K@std@@V?$allocator@U?$pair@$$CBKPAVCCtrl@@@std@@@3@$0A@@std@@@std@@QAEAAV012@XZ
_TEXT	SEGMENT PARA USE32 PUBLIC 'CODE'
_TEXT	ENDS
;	COMDAT ?_Dec@const_iterator@?$_Tree@V?$_Tmap_traits@KPAVCCtrl@@U?$less@K@std@@V?$allocator@U?$pair@$$CBKPAVCCtrl@@@std@@@3@$0A@@std@@@std@@QAEXXZ
_TEXT	SEGMENT PARA USE32 PUBLIC 'CODE'
_TEXT	ENDS
;	COMDAT ?_Max@?$_Tree@V?$_Tmap_traits@KPAVCCtrl@@U?$less@K@std@@V?$allocator@U?$pair@$$CBKPAVCCtrl@@@std@@@3@$0A@@std@@@std@@KAPAU_Node@?$_Tree_nod@V?$_Tmap_traits@KPAVCCtrl@@U?$less@K@std@@V?$allocator@U?$pair@$$CBKPAVCCtrl@@@std@@@3@$0A@@std@@@2@PAU342@@Z
_TEXT	SEGMENT PARA USE32 PUBLIC 'CODE'
_TEXT	ENDS
;	COMDAT ?_Rmost@?$_Tree@V?$_Tmap_traits@KPAVCCtrl@@U?$less@K@std@@V?$allocator@U?$pair@$$CBKPAVCCtrl@@@std@@@3@$0A@@std@@@std@@IAEAAPAU_Node@?$_Tree_nod@V?$_Tmap_traits@KPAVCCtrl@@U?$less@K@std@@V?$allocator@U?$pair@$$CBKPAVCCtrl@@@std@@@3@$0A@@std@@@2@XZ
_TEXT	SEGMENT PARA USE32 PUBLIC 'CODE'
_TEXT	ENDS
;	COMDAT ?_Kfn@?$_Tmap_traits@KPAVCCtrl@@U?$less@K@std@@V?$allocator@U?$pair@$$CBKPAVCCtrl@@@std@@@3@$0A@@std@@SAABKABU?$pair@$$CBKPAVCCtrl@@@2@@Z
_TEXT	SEGMENT PARA USE32 PUBLIC 'CODE'
_TEXT	ENDS
;	COMDAT ?begin@?$_Tree@V?$_Tmap_traits@KPAVCCtrl@@U?$less@K@std@@V?$allocator@U?$pair@$$CBKPAVCCtrl@@@std@@@3@$0A@@std@@@std@@QAE?AViterator@12@XZ
_TEXT	SEGMENT PARA USE32 PUBLIC 'CODE'
_TEXT	ENDS
;	COMDAT ?_Lmost@?$_Tree@V?$_Tmap_traits@KPAVCCtrl@@U?$less@K@std@@V?$allocator@U?$pair@$$CBKPAVCCtrl@@@std@@@3@$0A@@std@@@std@@IAEAAPAU_Node@?$_Tree_nod@V?$_Tmap_traits@KPAVCCtrl@@U?$less@K@std@@V?$allocator@U?$pair@$$CBKPAVCCtrl@@@std@@@3@$0A@@std@@@2@XZ
_TEXT	SEGMENT PARA USE32 PUBLIC 'CODE'
_TEXT	ENDS
;	COMDAT ?_Insert@?$_Tree@V?$_Tmap_traits@KPAVCCtrl@@U?$less@K@std@@V?$allocator@U?$pair@$$CBKPAVCCtrl@@@std@@@3@$0A@@std@@@std@@IAE?AViterator@12@_NPAU_Node@?$_Tree_nod@V?$_Tmap_traits@KPAVCCtrl@@U?$less@K@std@@V?$allocator@U?$pair@$$CBKPAVCCtrl@@@std@@@3@$0A@@std@@@2@ABU?$pair@$$CBKPAVCCtrl@@@2@@Z
_TEXT	SEGMENT PARA USE32 PUBLIC 'CODE'
_TEXT	ENDS
;	COMDAT ?max_size@?$_Tree@V?$_Tmap_traits@KPAVCCtrl@@U?$less@K@std@@V?$allocator@U?$pair@$$CBKPAVCCtrl@@@std@@@3@$0A@@std@@@std@@QBEIXZ
_TEXT	SEGMENT PARA USE32 PUBLIC 'CODE'
_TEXT	ENDS
;	COMDAT ?max_size@?$allocator@U?$pair@$$CBKPAVCCtrl@@@std@@@std@@QBEIXZ
_TEXT	SEGMENT PARA USE32 PUBLIC 'CODE'
_TEXT	ENDS
;	COMDAT ?_Buynode@?$_Tree@V?$_Tmap_traits@KPAVCCtrl@@U?$less@K@std@@V?$allocator@U?$pair@$$CBKPAVCCtrl@@@std@@@3@$0A@@std@@@std@@IAEPAU_Node@?$_Tree_nod@V?$_Tmap_traits@KPAVCCtrl@@U?$less@K@std@@V?$allocator@U?$pair@$$CBKPAVCCtrl@@@std@@@3@$0A@@std@@@2@PAU342@00ABU?$pair@$$CBKPAVCCtrl@@@2@D@Z
_TEXT	SEGMENT PARA USE32 PUBLIC 'CODE'
_TEXT	ENDS
;	COMDAT ?allocate@?$allocator@U_Node@?$_Tree_nod@V?$_Tmap_traits@KPAVCCtrl@@U?$less@K@std@@V?$allocator@U?$pair@$$CBKPAVCCtrl@@@std@@@3@$0A@@std@@@std@@@std@@QAEPAU_Node@?$_Tree_nod@V?$_Tmap_traits@KPAVCCtrl@@U?$less@K@std@@V?$allocator@U?$pair@$$CBKPAVCCtrl@@@std@@@3@$0A@@std@@@2@I@Z
_TEXT	SEGMENT PARA USE32 PUBLIC 'CODE'
_TEXT	ENDS
;	COMDAT ??$_Allocate@U_Node@?$_Tree_nod@V?$_Tmap_traits@KPAVCCtrl@@U?$less@K@std@@V?$allocator@U?$pair@$$CBKPAVCCtrl@@@std@@@3@$0A@@std@@@std@@@std@@YAPAU_Node@?$_Tree_nod@V?$_Tmap_traits@KPAVCCtrl@@U?$less@K@std@@V?$allocator@U?$pair@$$CBKPAVCCtrl@@@std@@@3@$0A@@std@@@0@IPAU120@@Z
_TEXT	SEGMENT PARA USE32 PUBLIC 'CODE'
_TEXT	ENDS
;	COMDAT ??0_Node@?$_Tree_nod@V?$_Tmap_traits@KPAVCCtrl@@U?$less@K@std@@V?$allocator@U?$pair@$$CBKPAVCCtrl@@@std@@@3@$0A@@std@@@std@@QAE@PAU012@00ABU?$pair@$$CBKPAVCCtrl@@@2@D@Z
_TEXT	SEGMENT PARA USE32 PUBLIC 'CODE'
_TEXT	ENDS
;	COMDAT ?deallocate@?$allocator@U_Node@?$_Tree_nod@V?$_Tmap_traits@KPAVCCtrl@@U?$less@K@std@@V?$allocator@U?$pair@$$CBKPAVCCtrl@@@std@@@3@$0A@@std@@@std@@@std@@QAEXPAU_Node@?$_Tree_nod@V?$_Tmap_traits@KPAVCCtrl@@U?$less@K@std@@V?$allocator@U?$pair@$$CBKPAVCCtrl@@@std@@@3@$0A@@std@@@2@I@Z
_TEXT	SEGMENT PARA USE32 PUBLIC 'CODE'
_TEXT	ENDS
;	COMDAT ?_Rrotate@?$_Tree@V?$_Tmap_traits@KPAVCCtrl@@U?$less@K@std@@V?$allocator@U?$pair@$$CBKPAVCCtrl@@@std@@@3@$0A@@std@@@std@@IAEXPAU_Node@?$_Tree_nod@V?$_Tmap_traits@KPAVCCtrl@@U?$less@K@std@@V?$allocator@U?$pair@$$CBKPAVCCtrl@@@std@@@3@$0A@@std@@@2@@Z
_TEXT	SEGMENT PARA USE32 PUBLIC 'CODE'
_TEXT	ENDS
;	COMDAT ?_Lrotate@?$_Tree@V?$_Tmap_traits@KPAVCCtrl@@U?$less@K@std@@V?$allocator@U?$pair@$$CBKPAVCCtrl@@@std@@@3@$0A@@std@@@std@@IAEXPAU_Node@?$_Tree_nod@V?$_Tmap_traits@KPAVCCtrl@@U?$less@K@std@@V?$allocator@U?$pair@$$CBKPAVCCtrl@@@std@@@3@$0A@@std@@@2@@Z
_TEXT	SEGMENT PARA USE32 PUBLIC 'CODE'
_TEXT	ENDS
;	COMDAT ?_Color@?$_Tree@V?$_Tmap_traits@KPAVCCtrl@@U?$less@K@std@@V?$allocator@U?$pair@$$CBKPAVCCtrl@@@std@@@3@$0A@@std@@@std@@KAAADPAU_Node@?$_Tree_nod@V?$_Tmap_traits@KPAVCCtrl@@U?$less@K@std@@V?$allocator@U?$pair@$$CBKPAVCCtrl@@@std@@@3@$0A@@std@@@2@@Z
_TEXT	SEGMENT PARA USE32 PUBLIC 'CODE'
_TEXT	ENDS
;	COMDAT ?compare@?$char_traits@D@std@@SAHPBD0I@Z
_TEXT	SEGMENT PARA USE32 PUBLIC 'CODE'
_TEXT	ENDS
;	COMDAT ??Diterator@?$_Tree@V?$_Tmap_traits@KPAVCCtrl@@U?$less@K@std@@V?$allocator@U?$pair@$$CBKPAVCCtrl@@@std@@@3@$0A@@std@@@std@@QBEAAU?$pair@$$CBKPAVCCtrl@@@2@XZ
_TEXT	SEGMENT PARA USE32 PUBLIC 'CODE'
_TEXT	ENDS
;	COMDAT ??Dconst_iterator@?$_Tree@V?$_Tmap_traits@KPAVCCtrl@@U?$less@K@std@@V?$allocator@U?$pair@$$CBKPAVCCtrl@@@std@@@3@$0A@@std@@@std@@QBEABU?$pair@$$CBKPAVCCtrl@@@2@XZ
_TEXT	SEGMENT PARA USE32 PUBLIC 'CODE'
_TEXT	ENDS
;	COMDAT ?_Myval@?$_Tree@V?$_Tmap_traits@KPAVCCtrl@@U?$less@K@std@@V?$allocator@U?$pair@$$CBKPAVCCtrl@@@std@@@3@$0A@@std@@@std@@KAAAU?$pair@$$CBKPAVCCtrl@@@2@PAU_Node@?$_Tree_nod@V?$_Tmap_traits@KPAVCCtrl@@U?$less@K@std@@V?$allocator@U?$pair@$$CBKPAVCCtrl@@@std@@@3@$0A@@std@@@2@@Z
_TEXT	SEGMENT PARA USE32 PUBLIC 'CODE'
_TEXT	ENDS
;	COMDAT ?_Mynode@const_iterator@?$_Tree@V?$_Tmap_traits@KPAVCCtrl@@U?$less@K@std@@V?$allocator@U?$pair@$$CBKPAVCCtrl@@@std@@@3@$0A@@std@@@std@@QBEPAU_Node@?$_Tree_nod@V?$_Tmap_traits@KPAVCCtrl@@U?$less@K@std@@V?$allocator@U?$pair@$$CBKPAVCCtrl@@@std@@@3@$0A@@std@@@3@XZ
_TEXT	SEGMENT PARA USE32 PUBLIC 'CODE'
_TEXT	ENDS
;	COMDAT ?_Key@?$_Tree@V?$_Tmap_traits@KPAVCCtrl@@U?$less@K@std@@V?$allocator@U?$pair@$$CBKPAVCCtrl@@@std@@@3@$0A@@std@@@std@@KAABKPAU_Node@?$_Tree_nod@V?$_Tmap_traits@KPAVCCtrl@@U?$less@K@std@@V?$allocator@U?$pair@$$CBKPAVCCtrl@@@std@@@3@$0A@@std@@@2@@Z
_TEXT	SEGMENT PARA USE32 PUBLIC 'CODE'
_TEXT	ENDS
;	COMDAT ??R?$less@K@std@@QBE_NABK0@Z
_TEXT	SEGMENT PARA USE32 PUBLIC 'CODE'
_TEXT	ENDS
;	COMDAT ?end@?$_Tree@V?$_Tmap_traits@KPAVCCtrl@@U?$less@K@std@@V?$allocator@U?$pair@$$CBKPAVCCtrl@@@std@@@3@$0A@@std@@@std@@QAE?AViterator@12@XZ
_TEXT	SEGMENT PARA USE32 PUBLIC 'CODE'
_TEXT	ENDS
;	COMDAT ??8const_iterator@?$_Tree@V?$_Tmap_traits@KPAVCCtrl@@U?$less@K@std@@V?$allocator@U?$pair@$$CBKPAVCCtrl@@@std@@@3@$0A@@std@@@std@@QBE_NABV012@@Z
_TEXT	SEGMENT PARA USE32 PUBLIC 'CODE'
_TEXT	ENDS
;	COMDAT ?lower_bound@?$_Tree@V?$_Tmap_traits@KPAVCCtrl@@U?$less@K@std@@V?$allocator@U?$pair@$$CBKPAVCCtrl@@@std@@@3@$0A@@std@@@std@@QAE?AViterator@12@ABK@Z
_TEXT	SEGMENT PARA USE32 PUBLIC 'CODE'
_TEXT	ENDS
;	COMDAT ?_Lbound@?$_Tree@V?$_Tmap_traits@KPAVCCtrl@@U?$less@K@std@@V?$allocator@U?$pair@$$CBKPAVCCtrl@@@std@@@3@$0A@@std@@@std@@IBEPAU_Node@?$_Tree_nod@V?$_Tmap_traits@KPAVCCtrl@@U?$less@K@std@@V?$allocator@U?$pair@$$CBKPAVCCtrl@@@std@@@3@$0A@@std@@@2@ABK@Z
_TEXT	SEGMENT PARA USE32 PUBLIC 'CODE'
_TEXT	ENDS
;	COMDAT ?_Root@?$_Tree@V?$_Tmap_traits@KPAVCCtrl@@U?$less@K@std@@V?$allocator@U?$pair@$$CBKPAVCCtrl@@@std@@@3@$0A@@std@@@std@@IBEAAPAU_Node@?$_Tree_nod@V?$_Tmap_traits@KPAVCCtrl@@U?$less@K@std@@V?$allocator@U?$pair@$$CBKPAVCCtrl@@@std@@@3@$0A@@std@@@2@XZ
_TEXT	SEGMENT PARA USE32 PUBLIC 'CODE'
_TEXT	ENDS
;	COMDAT ?_Myptr@?$basic_string@DU?$char_traits@D@std@@V?$allocator@D@2@@std@@QBEPBDXZ
_TEXT	SEGMENT PARA USE32 PUBLIC 'CODE'
_TEXT	ENDS
;	COMDAT ?size@?$basic_string@DU?$char_traits@D@std@@V?$allocator@D@2@@std@@QBEIXZ
_TEXT	SEGMENT PARA USE32 PUBLIC 'CODE'
_TEXT	ENDS
;	COMDAT ?GetHonorTitle@CMover@@QAEHH@Z
_TEXT	SEGMENT PARA USE32 PUBLIC 'CODE'
_TEXT	ENDS
;	COMDAT ?GetText@CProject@@QAEPBDK@Z
_TEXT	SEGMENT PARA USE32 PUBLIC 'CODE'
_TEXT	ENDS
;	COMDAT ?LOG_RANGE@@YAXPBDHHH@Z
_TEXT	SEGMENT PARA USE32 PUBLIC 'CODE'
_TEXT	ENDS
;	COMDAT ??_C@_0BM@HMFGHCP@?$CFs?5min?3?$CFd?0?5max?3?$CFd?0?5index?3?$CFd?$AA@
CONST	SEGMENT DWORD USE32 PUBLIC 'CONST'
CONST	ENDS
;	COMDAT ?GetSize@?$CFixedArray@UtagColorText@@@@QAEHXZ
_TEXT	SEGMENT PARA USE32 PUBLIC 'CODE'
_TEXT	ENDS
;	COMDAT ??_C@_0BE@OHDBLHOM@GetText?5range_error?$AA@
CONST	SEGMENT DWORD USE32 PUBLIC 'CONST'
CONST	ENDS
;	COMDAT ??_C@_05KKCIMGE@error?$AA@
CONST	SEGMENT DWORD USE32 PUBLIC 'CONST'
CONST	ENDS
;	COMDAT ?GetAt@?$CFixedArray@UtagColorText@@@@QAEPAUtagColorText@@K@Z
_TEXT	SEGMENT PARA USE32 PUBLIC 'CODE'
_TEXT	ENDS
;	COMDAT ?GetDays@CTimeSpan@ATL@@QBE_JXZ
_TEXT	SEGMENT PARA USE32 PUBLIC 'CODE'
_TEXT	ENDS
;	COMDAT ?GetHours@CTimeSpan@ATL@@QBEJXZ
_TEXT	SEGMENT PARA USE32 PUBLIC 'CODE'
_TEXT	ENDS
;	COMDAT ?GetTotalHours@CTimeSpan@ATL@@QBE_JXZ
_TEXT	SEGMENT PARA USE32 PUBLIC 'CODE'
_TEXT	ENDS
;	COMDAT ?GetMinutes@CTimeSpan@ATL@@QBEJXZ
_TEXT	SEGMENT PARA USE32 PUBLIC 'CODE'
_TEXT	ENDS
;	COMDAT ?GetTotalMinutes@CTimeSpan@ATL@@QBE_JXZ
_TEXT	SEGMENT PARA USE32 PUBLIC 'CODE'
_TEXT	ENDS
;	COMDAT ??0CTimeSpan@ATL@@QAE@_J@Z
_TEXT	SEGMENT PARA USE32 PUBLIC 'CODE'
_TEXT	ENDS
;	COMDAT ??_C@_00CNPNBAHC@?$AA@
CONST	SEGMENT DWORD USE32 PUBLIC 'CONST'
CONST	ENDS
;	COMDAT ?GetAngle@CObj@@QAEMXZ
_TEXT	SEGMENT PARA USE32 PUBLIC 'CODE'
_TEXT	ENDS
;	COMDAT ?GetState@CAction@@QAEKXZ
_TEXT	SEGMENT PARA USE32 PUBLIC 'CODE'
_TEXT	ENDS
;	COMDAT ?GetStateFlag@CAction@@QAEKXZ
_TEXT	SEGMENT PARA USE32 PUBLIC 'CODE'
_TEXT	ENDS
;	COMDAT ?GetTickCount@CTickCount@@QAE_JXZ
_TEXT	SEGMENT PARA USE32 PUBLIC 'CODE'
_TEXT	ENDS
;	COMDAT ?SendActMsg@CMover@@QAEHW4OBJMSG@@HHHH@Z
_TEXT	SEGMENT PARA USE32 PUBLIC 'CODE'
_TEXT	ENDS
;	COMDAT ?GetPos@CObj@@QAE?AUD3DXVECTOR3@@XZ
_TEXT	SEGMENT PARA USE32 PUBLIC 'CODE'
_TEXT	ENDS
;	COMDAT ?GetDegree@@YAMABUD3DXVECTOR3@@0@Z
_TEXT	SEGMENT PARA USE32 PUBLIC 'CODE'
_TEXT	ENDS
;	COMDAT ?VelocityToVec@@YA?AUD3DXVECTOR3@@MM@Z
_TEXT	SEGMENT PARA USE32 PUBLIC 'CODE'
_TEXT	ENDS
;	COMDAT _sinf
_TEXT	SEGMENT PARA USE32 PUBLIC 'CODE'
_TEXT	ENDS
;	COMDAT _cosf
_TEXT	SEGMENT PARA USE32 PUBLIC 'CODE'
_TEXT	ENDS
;	COMDAT ??GD3DXVECTOR3@@QBE?AU0@ABU0@@Z
_TEXT	SEGMENT PARA USE32 PUBLIC 'CODE'
_TEXT	ENDS
;	COMDAT ?D3DXVec3Dot@@YAMPBUD3DXVECTOR3@@0@Z
_TEXT	SEGMENT PARA USE32 PUBLIC 'CODE'
_TEXT	ENDS
;	COMDAT _acosf
_TEXT	SEGMENT PARA USE32 PUBLIC 'CODE'
_TEXT	ENDS
;	COMDAT ?GetSex@CMover@@QAEEXZ
_TEXT	SEGMENT PARA USE32 PUBLIC 'CODE'
_TEXT	ENDS
;	COMDAT ?IsValidObj@@YAHPAVCObj@@@Z
_TEXT	SEGMENT PARA USE32 PUBLIC 'CODE'
_TEXT	ENDS
;	COMDAT ?IsDelete@CObj@@QAEHXZ
_TEXT	SEGMENT PARA USE32 PUBLIC 'CODE'
_TEXT	ENDS
;	COMDAT ?GetUserByID@CProject@@QAEPAVCMover@@K@Z
_TEXT	SEGMENT PARA USE32 PUBLIC 'CODE'
_TEXT	ENDS
;	COMDAT ?find@?$_Tree@V?$_Tmap_traits@KPAVCMover@@U?$less@K@std@@V?$allocator@U?$pair@$$CBKPAVCMover@@@std@@@3@$0A@@std@@@std@@QAE?AViterator@12@ABK@Z
_TEXT	SEGMENT PARA USE32 PUBLIC 'CODE'
_TEXT	ENDS
;	COMDAT ?lower_bound@?$_Tree@V?$_Tmap_traits@KPAVCMover@@U?$less@K@std@@V?$allocator@U?$pair@$$CBKPAVCMover@@@std@@@3@$0A@@std@@@std@@QAE?AViterator@12@ABK@Z
_TEXT	SEGMENT PARA USE32 PUBLIC 'CODE'
_TEXT	ENDS
;	COMDAT ??0iterator@?$_Tree@V?$_Tmap_traits@KPAVCMover@@U?$less@K@std@@V?$allocator@U?$pair@$$CBKPAVCMover@@@std@@@3@$0A@@std@@@std@@QAE@PAU_Node@?$_Tree_nod@V?$_Tmap_traits@KPAVCMover@@U?$less@K@std@@V?$allocator@U?$pair@$$CBKPAVCMover@@@std@@@3@$0A@@std@@@2@@Z
_TEXT	SEGMENT PARA USE32 PUBLIC 'CODE'
_TEXT	ENDS
;	COMDAT ??0const_iterator@?$_Tree@V?$_Tmap_traits@KPAVCMover@@U?$less@K@std@@V?$allocator@U?$pair@$$CBKPAVCMover@@@std@@@3@$0A@@std@@@std@@QAE@PAU_Node@?$_Tree_nod@V?$_Tmap_traits@KPAVCMover@@U?$less@K@std@@V?$allocator@U?$pair@$$CBKPAVCMover@@@std@@@3@$0A@@std@@@2@@Z
_TEXT	SEGMENT PARA USE32 PUBLIC 'CODE'
_TEXT	ENDS
;	COMDAT ?_Lbound@?$_Tree@V?$_Tmap_traits@KPAVCMover@@U?$less@K@std@@V?$allocator@U?$pair@$$CBKPAVCMover@@@std@@@3@$0A@@std@@@std@@IBEPAU_Node@?$_Tree_nod@V?$_Tmap_traits@KPAVCMover@@U?$less@K@std@@V?$allocator@U?$pair@$$CBKPAVCMover@@@std@@@3@$0A@@std@@@2@ABK@Z
_TEXT	SEGMENT PARA USE32 PUBLIC 'CODE'
_TEXT	ENDS
;	COMDAT ?_Root@?$_Tree@V?$_Tmap_traits@KPAVCMover@@U?$less@K@std@@V?$allocator@U?$pair@$$CBKPAVCMover@@@std@@@3@$0A@@std@@@std@@IBEAAPAU_Node@?$_Tree_nod@V?$_Tmap_traits@KPAVCMover@@U?$less@K@std@@V?$allocator@U?$pair@$$CBKPAVCMover@@@std@@@3@$0A@@std@@@2@XZ
_TEXT	SEGMENT PARA USE32 PUBLIC 'CODE'
_TEXT	ENDS
;	COMDAT ?_Parent@?$_Tree@V?$_Tmap_traits@KPAVCMover@@U?$less@K@std@@V?$allocator@U?$pair@$$CBKPAVCMover@@@std@@@3@$0A@@std@@@std@@KAAAPAU_Node@?$_Tree_nod@V?$_Tmap_traits@KPAVCMover@@U?$less@K@std@@V?$allocator@U?$pair@$$CBKPAVCMover@@@std@@@3@$0A@@std@@@2@PAU342@@Z
_TEXT	SEGMENT PARA USE32 PUBLIC 'CODE'
_TEXT	ENDS
;	COMDAT ?_Isnil@?$_Tree@V?$_Tmap_traits@KPAVCMover@@U?$less@K@std@@V?$allocator@U?$pair@$$CBKPAVCMover@@@std@@@3@$0A@@std@@@std@@KAAADPAU_Node@?$_Tree_nod@V?$_Tmap_traits@KPAVCMover@@U?$less@K@std@@V?$allocator@U?$pair@$$CBKPAVCMover@@@std@@@3@$0A@@std@@@2@@Z
_TEXT	SEGMENT PARA USE32 PUBLIC 'CODE'
_TEXT	ENDS
;	COMDAT ?_Right@?$_Tree@V?$_Tmap_traits@KPAVCMover@@U?$less@K@std@@V?$allocator@U?$pair@$$CBKPAVCMover@@@std@@@3@$0A@@std@@@std@@KAAAPAU_Node@?$_Tree_nod@V?$_Tmap_traits@KPAVCMover@@U?$less@K@std@@V?$allocator@U?$pair@$$CBKPAVCMover@@@std@@@3@$0A@@std@@@2@PAU342@@Z
_TEXT	SEGMENT PARA USE32 PUBLIC 'CODE'
_TEXT	ENDS
;	COMDAT ?_Left@?$_Tree@V?$_Tmap_traits@KPAVCMover@@U?$less@K@std@@V?$allocator@U?$pair@$$CBKPAVCMover@@@std@@@3@$0A@@std@@@std@@KAAAPAU_Node@?$_Tree_nod@V?$_Tmap_traits@KPAVCMover@@U?$less@K@std@@V?$allocator@U?$pair@$$CBKPAVCMover@@@std@@@3@$0A@@std@@@2@PAU342@@Z
_TEXT	SEGMENT PARA USE32 PUBLIC 'CODE'
_TEXT	ENDS
;	COMDAT ??8const_iterator@?$_Tree@V?$_Tmap_traits@KPAVCMover@@U?$less@K@std@@V?$allocator@U?$pair@$$CBKPAVCMover@@@std@@@3@$0A@@std@@@std@@QBE_NABV012@@Z
_TEXT	SEGMENT PARA USE32 PUBLIC 'CODE'
_TEXT	ENDS
;	COMDAT ?_Key@?$_Tree@V?$_Tmap_traits@KPAVCMover@@U?$less@K@std@@V?$allocator@U?$pair@$$CBKPAVCMover@@@std@@@3@$0A@@std@@@std@@KAABKPAU_Node@?$_Tree_nod@V?$_Tmap_traits@KPAVCMover@@U?$less@K@std@@V?$allocator@U?$pair@$$CBKPAVCMover@@@std@@@3@$0A@@std@@@2@@Z
_TEXT	SEGMENT PARA USE32 PUBLIC 'CODE'
_TEXT	ENDS
;	COMDAT ?_Kfn@?$_Tmap_traits@KPAVCMover@@U?$less@K@std@@V?$allocator@U?$pair@$$CBKPAVCMover@@@std@@@3@$0A@@std@@SAABKABU?$pair@$$CBKPAVCMover@@@2@@Z
_TEXT	SEGMENT PARA USE32 PUBLIC 'CODE'
_TEXT	ENDS
;	COMDAT ?_Myval@?$_Tree@V?$_Tmap_traits@KPAVCMover@@U?$less@K@std@@V?$allocator@U?$pair@$$CBKPAVCMover@@@std@@@3@$0A@@std@@@std@@KAAAU?$pair@$$CBKPAVCMover@@@2@PAU_Node@?$_Tree_nod@V?$_Tmap_traits@KPAVCMover@@U?$less@K@std@@V?$allocator@U?$pair@$$CBKPAVCMover@@@std@@@3@$0A@@std@@@2@@Z
_TEXT	SEGMENT PARA USE32 PUBLIC 'CODE'
_TEXT	ENDS
;	COMDAT ?_Mynode@const_iterator@?$_Tree@V?$_Tmap_traits@KPAVCMover@@U?$less@K@std@@V?$allocator@U?$pair@$$CBKPAVCMover@@@std@@@3@$0A@@std@@@std@@QBEPAU_Node@?$_Tree_nod@V?$_Tmap_traits@KPAVCMover@@U?$less@K@std@@V?$allocator@U?$pair@$$CBKPAVCMover@@@std@@@3@$0A@@std@@@3@XZ
_TEXT	SEGMENT PARA USE32 PUBLIC 'CODE'
_TEXT	ENDS
;	COMDAT ??9const_iterator@?$_Tree@V?$_Tmap_traits@KPAVCMover@@U?$less@K@std@@V?$allocator@U?$pair@$$CBKPAVCMover@@@std@@@3@$0A@@std@@@std@@QBE_NABV012@@Z
_TEXT	SEGMENT PARA USE32 PUBLIC 'CODE'
_TEXT	ENDS
;	COMDAT ?end@?$_Tree@V?$_Tmap_traits@KPAVCMover@@U?$less@K@std@@V?$allocator@U?$pair@$$CBKPAVCMover@@@std@@@3@$0A@@std@@@std@@QAE?AViterator@12@XZ
_TEXT	SEGMENT PARA USE32 PUBLIC 'CODE'
_TEXT	ENDS
;	COMDAT ??Citerator@?$_Tree@V?$_Tmap_traits@KPAVCMover@@U?$less@K@std@@V?$allocator@U?$pair@$$CBKPAVCMover@@@std@@@3@$0A@@std@@@std@@QBEPAU?$pair@$$CBKPAVCMover@@@2@XZ
_TEXT	SEGMENT PARA USE32 PUBLIC 'CODE'
_TEXT	ENDS
;	COMDAT ??Diterator@?$_Tree@V?$_Tmap_traits@KPAVCMover@@U?$less@K@std@@V?$allocator@U?$pair@$$CBKPAVCMover@@@std@@@3@$0A@@std@@@std@@QBEAAU?$pair@$$CBKPAVCMover@@@2@XZ
_TEXT	SEGMENT PARA USE32 PUBLIC 'CODE'
_TEXT	ENDS
;	COMDAT ??Dconst_iterator@?$_Tree@V?$_Tmap_traits@KPAVCMover@@U?$less@K@std@@V?$allocator@U?$pair@$$CBKPAVCMover@@@std@@@3@$0A@@std@@@std@@QBEABU?$pair@$$CBKPAVCMover@@@2@XZ
_TEXT	SEGMENT PARA USE32 PUBLIC 'CODE'
_TEXT	ENDS
;	COMDAT ?sCoupleHelper@?1??Instance@CCoupleHelper@@SAPAV2@XZ@4V2@A
_BSS	SEGMENT DWORD USE32 PUBLIC 'BSS'
_BSS	ENDS
;	COMDAT ?$S1@?1??Instance@CCoupleHelper@@SAPAV2@XZ@4IA
_BSS	SEGMENT DWORD USE32 PUBLIC 'BSS'
_BSS	ENDS
;	COMDAT ??_7CCoupleHelper@@6B@
CONST	SEGMENT DWORD USE32 PUBLIC 'CONST'
CONST	ENDS
;	COMDAT ?Empty@?$CSimpleStringT@D$0A@@ATL@@QAEXXZ
_TEXT	SEGMENT PARA USE32 PUBLIC 'CODE'
_TEXT	ENDS
;	COMDAT ?GetData@?$CSimpleStringT@D$0A@@ATL@@ABEPAUCStringData@2@XZ
_TEXT	SEGMENT PARA USE32 PUBLIC 'CODE'
_TEXT	ENDS
;	COMDAT ?IsLocked@CStringData@ATL@@QBE_NXZ
_TEXT	SEGMENT PARA USE32 PUBLIC 'CODE'
_TEXT	ENDS
;	COMDAT ?SetLength@?$CSimpleStringT@D$0A@@ATL@@AAEXH@Z
_TEXT	SEGMENT PARA USE32 PUBLIC 'CODE'
_TEXT	ENDS
;	COMDAT ?AtlThrow@ATL@@YGXJ@Z
_TEXT	SEGMENT PARA USE32 PUBLIC 'CODE'
_TEXT	ENDS
;	COMDAT ?Release@CStringData@ATL@@QAEXXZ
_TEXT	SEGMENT PARA USE32 PUBLIC 'CODE'
_TEXT	ENDS
;	COMDAT ?Attach@?$CSimpleStringT@D$0A@@ATL@@AAEXPAUCStringData@2@@Z
_TEXT	SEGMENT PARA USE32 PUBLIC 'CODE'
_TEXT	ENDS
;	COMDAT ?data@CStringData@ATL@@QAEPAXXZ
_TEXT	SEGMENT PARA USE32 PUBLIC 'CODE'
_TEXT	ENDS
;	COMDAT ??1?$CStringT@DV?$StrTraitMFC@DV?$ChTraitsCRT@D@ATL@@@@@ATL@@QAE@XZ
_TEXT	SEGMENT PARA USE32 PUBLIC 'CODE'
_TEXT	ENDS
;	COMDAT ??1?$CSimpleStringT@D$0A@@ATL@@QAE@XZ
_TEXT	SEGMENT PARA USE32 PUBLIC 'CODE'
_TEXT	ENDS
;	COMDAT ??0?$CStringT@DV?$StrTraitMFC@DV?$ChTraitsCRT@D@ATL@@@@@ATL@@QAE@XZ
_TEXT	SEGMENT PARA USE32 PUBLIC 'CODE'
_TEXT	ENDS
;	COMDAT ??0?$CSimpleStringT@D$0A@@ATL@@QAE@PAUIAtlStringMgr@1@@Z
_TEXT	SEGMENT PARA USE32 PUBLIC 'CODE'
_TEXT	ENDS
;	COMDAT ?GetDefaultManager@?$StrTraitMFC@DV?$ChTraitsCRT@D@ATL@@@@SAPAUIAtlStringMgr@ATL@@XZ
_TEXT	SEGMENT PARA USE32 PUBLIC 'CODE'
_TEXT	ENDS
;	COMDAT ??0?$vector@HV?$allocator@H@std@@@std@@QAE@XZ
_TEXT	SEGMENT PARA USE32 PUBLIC 'CODE'
_TEXT	ENDS
;	COMDAT ??0?$_Vector_val@HV?$allocator@H@std@@@std@@IAE@V?$allocator@H@1@@Z
_TEXT	SEGMENT PARA USE32 PUBLIC 'CODE'
_TEXT	ENDS
;	COMDAT ??0?$allocator@H@std@@QAE@ABV01@@Z
_TEXT	SEGMENT PARA USE32 PUBLIC 'CODE'
_TEXT	ENDS
;	COMDAT ??0?$allocator@H@std@@QAE@XZ
_TEXT	SEGMENT PARA USE32 PUBLIC 'CODE'
_TEXT	ENDS
;	COMDAT ?_Buy@?$vector@HV?$allocator@H@std@@@std@@IAE_NI@Z
_TEXT	SEGMENT PARA USE32 PUBLIC 'CODE'
_TEXT	ENDS
;	COMDAT ?max_size@?$vector@HV?$allocator@H@std@@@std@@QBEIXZ
_TEXT	SEGMENT PARA USE32 PUBLIC 'CODE'
_TEXT	ENDS
;	COMDAT ?max_size@?$allocator@H@std@@QBEIXZ
_TEXT	SEGMENT PARA USE32 PUBLIC 'CODE'
_TEXT	ENDS
;	COMDAT ?_Xlen@?$vector@HV?$allocator@H@std@@@std@@IBEXXZ
_TEXT	SEGMENT PARA USE32 PUBLIC 'CODE'
_TEXT	ENDS
;	COMDAT ?allocate@?$allocator@H@std@@QAEPAHI@Z
_TEXT	SEGMENT PARA USE32 PUBLIC 'CODE'
_TEXT	ENDS
;	COMDAT ??$_Allocate@H@std@@YAPAHIPAH@Z
_TEXT	SEGMENT PARA USE32 PUBLIC 'CODE'
_TEXT	ENDS
;	COMDAT ??1?$vector@HV?$allocator@H@std@@@std@@QAE@XZ
_TEXT	SEGMENT PARA USE32 PUBLIC 'CODE'
_TEXT	ENDS
;	COMDAT ?_Tidy@?$vector@HV?$allocator@H@std@@@std@@IAEXXZ
_TEXT	SEGMENT PARA USE32 PUBLIC 'CODE'
_TEXT	ENDS
;	COMDAT ?_Destroy@?$vector@HV?$allocator@H@std@@@std@@IAEXPAH0@Z
_TEXT	SEGMENT PARA USE32 PUBLIC 'CODE'
_TEXT	ENDS
;	COMDAT ??$_Destroy_range@HV?$allocator@H@std@@@std@@YAXPAH0AAV?$allocator@H@0@@Z
_TEXT	SEGMENT PARA USE32 PUBLIC 'CODE'
_TEXT	ENDS
;	COMDAT ?_Ptr_cat@std@@YA?AU_Scalar_ptr_iterator_tag@1@PAH0@Z
_TEXT	SEGMENT PARA USE32 PUBLIC 'CODE'
_TEXT	ENDS
;	COMDAT ?deallocate@?$allocator@H@std@@QAEXPAHI@Z
_TEXT	SEGMENT PARA USE32 PUBLIC 'CODE'
_TEXT	ENDS
;	COMDAT ??_7CLordSkillComponentExecutable@@6B@
CONST	SEGMENT DWORD USE32 PUBLIC 'CONST'
CONST	ENDS
;	COMDAT ??_7bad_weak_ptr@boost@@6B@
CONST	SEGMENT DWORD USE32 PUBLIC 'CONST'
CONST	ENDS
;	COMDAT ??_7sp_counted_base@detail@boost@@6B@
CONST	SEGMENT DWORD USE32 PUBLIC 'CONST'
CONST	ENDS
;	COMDAT ??_7CMapChildE@@6B@
CONST	SEGMENT DWORD USE32 PUBLIC 'CONST'
CONST	ENDS
;	COMDAT ?Leave@CMclCritSec@@QAEXXZ
_TEXT	SEGMENT PARA USE32 PUBLIC 'CODE'
_TEXT	ENDS
;	COMDAT ?Enter@CMclCritSec@@QAEXXZ
_TEXT	SEGMENT PARA USE32 PUBLIC 'CODE'
_TEXT	ENDS
;	COMDAT ??1CMclCritSec@@UAE@XZ
_TEXT	SEGMENT PARA USE32 PUBLIC 'CODE'
_TEXT	ENDS
;	COMDAT ??_7CMclCritSec@@6B@
CONST	SEGMENT DWORD USE32 PUBLIC 'CONST'
CONST	ENDS
;	COMDAT ??_GCMclCritSec@@UAEPAXI@Z
_TEXT	SEGMENT PARA USE32 PUBLIC 'CODE'
_TEXT	ENDS
;	COMDAT ??0CMclCritSec@@QAE@XZ
_TEXT	SEGMENT PARA USE32 PUBLIC 'CODE'
_TEXT	ENDS
;	COMDAT ??_7CMapChild@@6B@
CONST	SEGMENT DWORD USE32 PUBLIC 'CONST'
CONST	ENDS
;	COMDAT ??1CMclAutoLock@@QAE@XZ
_TEXT	SEGMENT PARA USE32 PUBLIC 'CODE'
_TEXT	ENDS
;	COMDAT ??0CMclAutoLock@@QAE@AAVCMclCritSec@@@Z
_TEXT	SEGMENT PARA USE32 PUBLIC 'CODE'
_TEXT	ENDS
;	COMDAT ??_7CBuffer2@@6B@
CONST	SEGMENT DWORD USE32 PUBLIC 'CONST'
CONST	ENDS
;	COMDAT ?erase@?$_Tree@V?$_Tmap_traits@KPAVCCtrl@@U?$less@K@std@@V?$allocator@U?$pair@$$CBKPAVCCtrl@@@std@@@3@$0A@@std@@@std@@QAEIABK@Z
_TEXT	SEGMENT PARA USE32 PUBLIC 'CODE'
_TEXT	ENDS
;	COMDAT ?equal_range@?$_Tree@V?$_Tmap_traits@KPAVCCtrl@@U?$less@K@std@@V?$allocator@U?$pair@$$CBKPAVCCtrl@@@std@@@3@$0A@@std@@@std@@QAE?AU?$pair@Viterator@?$_Tree@V?$_Tmap_traits@KPAVCCtrl@@U?$less@K@std@@V?$allocator@U?$pair@$$CBKPAVCCtrl@@@std@@@3@$0A@@std@@@std@@V123@@2@ABK@Z
_TEXT	SEGMENT PARA USE32 PUBLIC 'CODE'
_TEXT	ENDS
;	COMDAT ??0?$pair@Viterator@?$_Tree@V?$_Tmap_traits@KPAVCCtrl@@U?$less@K@std@@V?$allocator@U?$pair@$$CBKPAVCCtrl@@@std@@@3@$0A@@std@@@std@@V123@@std@@QAE@ABViterator@?$_Tree@V?$_Tmap_traits@KPAVCCtrl@@U?$less@K@std@@V?$allocator@U?$pair@$$CBKPAVCCtrl@@@std@@@3@$0A@@std@@@1@0@Z
_TEXT	SEGMENT PARA USE32 PUBLIC 'CODE'
_TEXT	ENDS
;	COMDAT ?upper_bound@?$_Tree@V?$_Tmap_traits@KPAVCCtrl@@U?$less@K@std@@V?$allocator@U?$pair@$$CBKPAVCCtrl@@@std@@@3@$0A@@std@@@std@@QAE?AViterator@12@ABK@Z
_TEXT	SEGMENT PARA USE32 PUBLIC 'CODE'
_TEXT	ENDS
;	COMDAT ?_Ubound@?$_Tree@V?$_Tmap_traits@KPAVCCtrl@@U?$less@K@std@@V?$allocator@U?$pair@$$CBKPAVCCtrl@@@std@@@3@$0A@@std@@@std@@IBEPAU_Node@?$_Tree_nod@V?$_Tmap_traits@KPAVCCtrl@@U?$less@K@std@@V?$allocator@U?$pair@$$CBKPAVCCtrl@@@std@@@3@$0A@@std@@@2@ABK@Z
_TEXT	SEGMENT PARA USE32 PUBLIC 'CODE'
_TEXT	ENDS
;	COMDAT ??$_Distance@Viterator@?$_Tree@V?$_Tmap_traits@KPAVCCtrl@@U?$less@K@std@@V?$allocator@U?$pair@$$CBKPAVCCtrl@@@std@@@3@$0A@@std@@@std@@I@std@@YAXViterator@?$_Tree@V?$_Tmap_traits@KPAVCCtrl@@U?$less@K@std@@V?$allocator@U?$pair@$$CBKPAVCCtrl@@@std@@@3@$0A@@std@@@0@0AAI@Z
_TEXT	SEGMENT PARA USE32 PUBLIC 'CODE'
_TEXT	ENDS
;	COMDAT ?erase@?$_Tree@V?$_Tmap_traits@KPAVCCtrl@@U?$less@K@std@@V?$allocator@U?$pair@$$CBKPAVCCtrl@@@std@@@3@$0A@@std@@@std@@QAE?AViterator@12@V312@0@Z
_TEXT	SEGMENT PARA USE32 PUBLIC 'CODE'
_TEXT	ENDS
;	COMDAT ?clear@?$_Tree@V?$_Tmap_traits@KPAVCCtrl@@U?$less@K@std@@V?$allocator@U?$pair@$$CBKPAVCCtrl@@@std@@@3@$0A@@std@@@std@@QAEXXZ
_TEXT	SEGMENT PARA USE32 PUBLIC 'CODE'
_TEXT	ENDS
;	COMDAT ?_Erase@?$_Tree@V?$_Tmap_traits@KPAVCCtrl@@U?$less@K@std@@V?$allocator@U?$pair@$$CBKPAVCCtrl@@@std@@@3@$0A@@std@@@std@@IAEXPAU_Node@?$_Tree_nod@V?$_Tmap_traits@KPAVCCtrl@@U?$less@K@std@@V?$allocator@U?$pair@$$CBKPAVCCtrl@@@std@@@3@$0A@@std@@@2@@Z
_TEXT	SEGMENT PARA USE32 PUBLIC 'CODE'
_TEXT	ENDS
;	COMDAT ?destroy@?$allocator@U_Node@?$_Tree_nod@V?$_Tmap_traits@KPAVCCtrl@@U?$less@K@std@@V?$allocator@U?$pair@$$CBKPAVCCtrl@@@std@@@3@$0A@@std@@@std@@@std@@QAEXPAU_Node@?$_Tree_nod@V?$_Tmap_traits@KPAVCCtrl@@U?$less@K@std@@V?$allocator@U?$pair@$$CBKPAVCCtrl@@@std@@@3@$0A@@std@@@2@@Z
_TEXT	SEGMENT PARA USE32 PUBLIC 'CODE'
_TEXT	ENDS
;	COMDAT ??$_Destroy@U_Node@?$_Tree_nod@V?$_Tmap_traits@KPAVCCtrl@@U?$less@K@std@@V?$allocator@U?$pair@$$CBKPAVCCtrl@@@std@@@3@$0A@@std@@@std@@@std@@YAXPAU_Node@?$_Tree_nod@V?$_Tmap_traits@KPAVCCtrl@@U?$less@K@std@@V?$allocator@U?$pair@$$CBKPAVCCtrl@@@std@@@3@$0A@@std@@@0@@Z
_TEXT	SEGMENT PARA USE32 PUBLIC 'CODE'
_TEXT	ENDS
;	COMDAT ?erase@?$_Tree@V?$_Tmap_traits@KPAVCCtrl@@U?$less@K@std@@V?$allocator@U?$pair@$$CBKPAVCCtrl@@@std@@@3@$0A@@std@@@std@@QAE?AViterator@12@V312@@Z
_TEXT	SEGMENT PARA USE32 PUBLIC 'CODE'
_TEXT	ENDS
;	COMDAT ??Eiterator@?$_Tree@V?$_Tmap_traits@KPAVCCtrl@@U?$less@K@std@@V?$allocator@U?$pair@$$CBKPAVCCtrl@@@std@@@3@$0A@@std@@@std@@QAE?AV012@H@Z
_TEXT	SEGMENT PARA USE32 PUBLIC 'CODE'
_TEXT	ENDS
;	COMDAT ??5@YAAAVCAr@@AAV0@AAUD3DXVECTOR3@@@Z
_TEXT	SEGMENT PARA USE32 PUBLIC 'CODE'
_TEXT	ENDS
;	COMDAT ??5CAr@@QAEAAV0@AAM@Z
_TEXT	SEGMENT PARA USE32 PUBLIC 'CODE'
_TEXT	ENDS
;	COMDAT ??5CAr@@QAEAAV0@AAJ@Z
_TEXT	SEGMENT PARA USE32 PUBLIC 'CODE'
_TEXT	ENDS
;	COMDAT ?time_null@@YAJXZ
_TEXT	SEGMENT PARA USE32 PUBLIC 'CODE'
_TEXT	ENDS
;	COMDAT ??6CAr@@QAEAAV0@J@Z
_TEXT	SEGMENT PARA USE32 PUBLIC 'CODE'
_TEXT	ENDS
;	COMDAT ??6@YAAAVCAr@@AAV0@UD3DXVECTOR3@@@Z
_TEXT	SEGMENT PARA USE32 PUBLIC 'CODE'
_TEXT	ENDS
;	COMDAT ??6CAr@@QAEAAV0@M@Z
_TEXT	SEGMENT PARA USE32 PUBLIC 'CODE'
_TEXT	ENDS
;	COMDAT ??1?$basic_string@DU?$char_traits@D@std@@V?$allocator@D@2@@std@@QAE@XZ
_TEXT	SEGMENT PARA USE32 PUBLIC 'CODE'
_TEXT	ENDS
;	COMDAT ??0?$basic_string@DU?$char_traits@D@std@@V?$allocator@D@2@@std@@QAE@PBD@Z
_TEXT	SEGMENT PARA USE32 PUBLIC 'CODE'
_TEXT	ENDS
;	COMDAT ??0?$allocator@D@std@@QAE@XZ
_TEXT	SEGMENT PARA USE32 PUBLIC 'CODE'
_TEXT	ENDS
;	COMDAT ?assign@?$basic_string@DU?$char_traits@D@std@@V?$allocator@D@2@@std@@QAEAAV12@PBD@Z
_TEXT	SEGMENT PARA USE32 PUBLIC 'CODE'
_TEXT	ENDS
;	COMDAT ?assign@?$basic_string@DU?$char_traits@D@std@@V?$allocator@D@2@@std@@QAEAAV12@PBDI@Z
_TEXT	SEGMENT PARA USE32 PUBLIC 'CODE'
_TEXT	ENDS
;	COMDAT ?_Inside@?$basic_string@DU?$char_traits@D@std@@V?$allocator@D@2@@std@@IAE_NPBD@Z
_TEXT	SEGMENT PARA USE32 PUBLIC 'CODE'
_TEXT	ENDS
;	COMDAT ?length@?$char_traits@D@std@@SAIPBD@Z
_TEXT	SEGMENT PARA USE32 PUBLIC 'CODE'
_TEXT	ENDS
;	COMDAT ?c_str@?$basic_string@DU?$char_traits@D@std@@V?$allocator@D@2@@std@@QBEPBDXZ
_TEXT	SEGMENT PARA USE32 PUBLIC 'CODE'
_TEXT	ENDS
;	COMDAT ??6CAr@@QAEAAV0@I@Z
_TEXT	SEGMENT PARA USE32 PUBLIC 'CODE'
_TEXT	ENDS
;	COMDAT ??_7__MINIGAME_EXT_PACKET@@6B@
CONST	SEGMENT DWORD USE32 PUBLIC 'CONST'
CONST	ENDS
;	COMDAT ??5CAr@@QAEAAV0@AAG@Z
_TEXT	SEGMENT PARA USE32 PUBLIC 'CODE'
_TEXT	ENDS
;	COMDAT ??5CAr@@QAEAAV0@AAH@Z
_TEXT	SEGMENT PARA USE32 PUBLIC 'CODE'
_TEXT	ENDS
;	COMDAT ??6CAr@@QAEAAV0@G@Z
_TEXT	SEGMENT PARA USE32 PUBLIC 'CODE'
_TEXT	ENDS
;	COMDAT ??6CAr@@QAEAAV0@H@Z
_TEXT	SEGMENT PARA USE32 PUBLIC 'CODE'
_TEXT	ENDS
;	COMDAT ??_7__MINIGAME_PACKET@@6B@
CONST	SEGMENT DWORD USE32 PUBLIC 'CONST'
CONST	ENDS
;	COMDAT ??1?$vector@KV?$allocator@K@std@@@std@@QAE@XZ
_TEXT	SEGMENT PARA USE32 PUBLIC 'CODE'
_TEXT	ENDS
;	COMDAT ?_Tidy@?$vector@KV?$allocator@K@std@@@std@@IAEXXZ
_TEXT	SEGMENT PARA USE32 PUBLIC 'CODE'
_TEXT	ENDS
;	COMDAT ?_Destroy@?$vector@KV?$allocator@K@std@@@std@@IAEXPAK0@Z
_TEXT	SEGMENT PARA USE32 PUBLIC 'CODE'
_TEXT	ENDS
;	COMDAT ??$_Destroy_range@KV?$allocator@K@std@@@std@@YAXPAK0AAV?$allocator@K@0@@Z
_TEXT	SEGMENT PARA USE32 PUBLIC 'CODE'
_TEXT	ENDS
;	COMDAT ?_Ptr_cat@std@@YA?AU_Scalar_ptr_iterator_tag@1@PAK0@Z
_TEXT	SEGMENT PARA USE32 PUBLIC 'CODE'
_TEXT	ENDS
;	COMDAT ?deallocate@?$allocator@K@std@@QAEXPAKI@Z
_TEXT	SEGMENT PARA USE32 PUBLIC 'CODE'
_TEXT	ENDS
;	COMDAT ??0?$vector@KV?$allocator@K@std@@@std@@QAE@XZ
_TEXT	SEGMENT PARA USE32 PUBLIC 'CODE'
_TEXT	ENDS
;	COMDAT ??0?$_Vector_val@KV?$allocator@K@std@@@std@@IAE@V?$allocator@K@1@@Z
_TEXT	SEGMENT PARA USE32 PUBLIC 'CODE'
_TEXT	ENDS
;	COMDAT ??0?$allocator@K@std@@QAE@ABV01@@Z
_TEXT	SEGMENT PARA USE32 PUBLIC 'CODE'
_TEXT	ENDS
;	COMDAT ??0?$allocator@K@std@@QAE@XZ
_TEXT	SEGMENT PARA USE32 PUBLIC 'CODE'
_TEXT	ENDS
;	COMDAT ?_Buy@?$vector@KV?$allocator@K@std@@@std@@IAE_NI@Z
_TEXT	SEGMENT PARA USE32 PUBLIC 'CODE'
_TEXT	ENDS
;	COMDAT ?max_size@?$vector@KV?$allocator@K@std@@@std@@QBEIXZ
_TEXT	SEGMENT PARA USE32 PUBLIC 'CODE'
_TEXT	ENDS
;	COMDAT ?max_size@?$allocator@K@std@@QBEIXZ
_TEXT	SEGMENT PARA USE32 PUBLIC 'CODE'
_TEXT	ENDS
;	COMDAT ?_Xlen@?$vector@KV?$allocator@K@std@@@std@@IBEXXZ
_TEXT	SEGMENT PARA USE32 PUBLIC 'CODE'
_TEXT	ENDS
;	COMDAT ?allocate@?$allocator@K@std@@QAEPAKI@Z
_TEXT	SEGMENT PARA USE32 PUBLIC 'CODE'
_TEXT	ENDS
;	COMDAT ??$_Allocate@K@std@@YAPAKIPAK@Z
_TEXT	SEGMENT PARA USE32 PUBLIC 'CODE'
_TEXT	ENDS
;	COMDAT ??5CAr@@QAEAAV0@AAK@Z
_TEXT	SEGMENT PARA USE32 PUBLIC 'CODE'
_TEXT	ENDS
;	COMDAT ??6CAr@@QAEAAV0@K@Z
_TEXT	SEGMENT PARA USE32 PUBLIC 'CODE'
_TEXT	ENDS
;	COMDAT ?IsStoring@CAr@@QBEHXZ
_TEXT	SEGMENT PARA USE32 PUBLIC 'CODE'
_TEXT	ENDS
;	COMDAT ??0D3DXVECTOR3@@QAE@MMM@Z
_TEXT	SEGMENT PARA USE32 PUBLIC 'CODE'
_TEXT	ENDS
;	COMDAT ?GetTickCount@CTime@ATL@@SG?AV12@XZ
_TEXT	SEGMENT PARA USE32 PUBLIC 'CODE'
_TEXT	ENDS
;	COMDAT ??0CTime@ATL@@QAE@_J@Z
_TEXT	SEGMENT PARA USE32 PUBLIC 'CODE'
_TEXT	ENDS
;	COMDAT ??0D3DXVECTOR3@@QAE@XZ
_TEXT	SEGMENT PARA USE32 PUBLIC 'CODE'
_TEXT	ENDS
;	COMDAT ??0CTime@ATL@@QAE@XZ
_TEXT	SEGMENT PARA USE32 PUBLIC 'CODE'
_TEXT	ENDS
;	COMDAT ??_7CCouple@@6B@
CONST	SEGMENT DWORD USE32 PUBLIC 'CONST'
CONST	ENDS
;	COMDAT ??_7CCoupleTestCase@@6B@
CONST	SEGMENT DWORD USE32 PUBLIC 'CONST'
CONST	ENDS
;	COMDAT ??_7CTestCaseMgr@@6B@
CONST	SEGMENT DWORD USE32 PUBLIC 'CONST'
CONST	ENDS
;	COMDAT ??_7ITestCase@@6B@
CONST	SEGMENT DWORD USE32 PUBLIC 'CONST'
CONST	ENDS
sxdata	SEGMENT DWORD USE32 'SXDATA'
sxdata	ENDS
FLAT	GROUP _DATA, CONST, _BSS
	ASSUME	CS: FLAT, DS: FLAT, SS: FLAT
endif

INCLUDELIB LIBCMT
INCLUDELIB OLDNAMES

PUBLIC	?GetFirst@CCouple@@QAEKXZ			; CCouple::GetFirst
; Function compile flags: /Ogty
; File c:\documents and settings\test\mes documents\source\virtuos_v17\build\program\_common\couple.h
;	COMDAT ?GetFirst@CCouple@@QAEKXZ
_TEXT	SEGMENT
?GetFirst@CCouple@@QAEKXZ PROC NEAR			; CCouple::GetFirst, COMDAT
; _this$ = ecx

; 28   : 	u_long	GetFirst()	{	return m_idFirst;	}

  00000	8b 41 0c	 mov	 eax, DWORD PTR [ecx+12]
  00003	c3		 ret	 0
?GetFirst@CCouple@@QAEKXZ ENDP				; CCouple::GetFirst
_TEXT	ENDS
PUBLIC	?GetSecond@CCouple@@QAEKXZ			; CCouple::GetSecond
; Function compile flags: /Ogty
;	COMDAT ?GetSecond@CCouple@@QAEKXZ
_TEXT	SEGMENT
?GetSecond@CCouple@@QAEKXZ PROC NEAR			; CCouple::GetSecond, COMDAT
; _this$ = ecx

; 29   : 	u_long	GetSecond()		{	return m_idSecond;	}

  00000	8b 41 10	 mov	 eax, DWORD PTR [ecx+16]
  00003	c3		 ret	 0
?GetSecond@CCouple@@QAEKXZ ENDP				; CCouple::GetSecond
_TEXT	ENDS
PUBLIC	?GetCouple@CCoupleHelper@@QAEPAVCCouple@@K@Z	; CCoupleHelper::GetCouple
EXTRN	?GetCouple@CCoupleMgr@@QAEPAVCCouple@@K@Z:NEAR	; CCoupleMgr::GetCouple
; Function compile flags: /Ogty
; File c:\documents and settings\test\mes documents\source\virtuos_v17\build\program\worldserver\couplehelper.h
;	COMDAT ?GetCouple@CCoupleHelper@@QAEPAVCCouple@@K@Z
_TEXT	SEGMENT
_idPlayer$ = 8						; size = 4
?GetCouple@CCoupleHelper@@QAEPAVCCouple@@K@Z PROC NEAR	; CCoupleHelper::GetCouple, COMDAT
; _this$ = ecx

; 28   : 	CCouple* GetCouple( u_long idPlayer )	{	ASSERT( m_pMgr );	return m_pMgr->GetCouple( idPlayer );	}

  00000	8b 49 04	 mov	 ecx, DWORD PTR [ecx+4]
  00003	e9 00 00 00 00	 jmp	 ?GetCouple@CCoupleMgr@@QAEPAVCCouple@@K@Z ; CCoupleMgr::GetCouple
?GetCouple@CCoupleHelper@@QAEPAVCCouple@@K@Z ENDP	; CCoupleHelper::GetCouple
_TEXT	ENDS
PUBLIC	?SetProposer@CUser@@QAEXK@Z			; CUser::SetProposer
; Function compile flags: /Ogty
; File c:\documents and settings\test\mes documents\source\virtuos_v17\build\program\worldserver\user.h
;	COMDAT ?SetProposer@CUser@@QAEXK@Z
_TEXT	SEGMENT
_idProposer$ = 8					; size = 4
?SetProposer@CUser@@QAEXK@Z PROC NEAR			; CUser::SetProposer, COMDAT
; _this$ = ecx

; 688  : 	void	SetProposer( u_long idProposer )	{	m_idProposer	= idProposer;	}

  00000	8b 44 24 04	 mov	 eax, DWORD PTR _idProposer$[esp-4]
  00004	89 81 b8 96 00
	00		 mov	 DWORD PTR [ecx+38584], eax
  0000a	c2 04 00	 ret	 4
?SetProposer@CUser@@QAEXK@Z ENDP			; CUser::SetProposer
_TEXT	ENDS
PUBLIC	?GetProposer@CUser@@QAEKXZ			; CUser::GetProposer
; Function compile flags: /Ogty
;	COMDAT ?GetProposer@CUser@@QAEKXZ
_TEXT	SEGMENT
?GetProposer@CUser@@QAEKXZ PROC NEAR			; CUser::GetProposer, COMDAT
; _this$ = ecx

; 689  : 	u_long	GetProposer()	{	return m_idProposer;	}

  00000	8b 81 b8 96 00
	00		 mov	 eax, DWORD PTR [ecx+38584]
  00006	c3		 ret	 0
?GetProposer@CUser@@QAEKXZ ENDP				; CUser::GetProposer
_TEXT	ENDS
PUBLIC	??0CTimeSpan@ATL@@QAE@_J@Z			; ATL::CTimeSpan::CTimeSpan
; Function compile flags: /Ogty
; File c:\program files\microsoft visual studio .net 2003\vc7\atlmfc\include\atltime.inl
;	COMDAT ??0CTimeSpan@ATL@@QAE@_J@Z
_TEXT	SEGMENT
_time$ = 8						; size = 8
??0CTimeSpan@ATL@@QAE@_J@Z PROC NEAR			; ATL::CTimeSpan::CTimeSpan, COMDAT
; _this$ = ecx

; 33   : {

  00000	8b 54 24 08	 mov	 edx, DWORD PTR _time$[esp]
  00004	8b c1		 mov	 eax, ecx
  00006	8b 4c 24 04	 mov	 ecx, DWORD PTR _time$[esp-4]
  0000a	89 08		 mov	 DWORD PTR [eax], ecx
  0000c	89 50 04	 mov	 DWORD PTR [eax+4], edx

; 34   : }

  0000f	c2 08 00	 ret	 8
??0CTimeSpan@ATL@@QAE@_J@Z ENDP				; ATL::CTimeSpan::CTimeSpan
_TEXT	ENDS
PUBLIC	?GetDays@CTimeSpan@ATL@@QBE_JXZ			; ATL::CTimeSpan::GetDays
EXTRN	__alldiv:NEAR
; Function compile flags: /Ogty
;	COMDAT ?GetDays@CTimeSpan@ATL@@QBE_JXZ
_TEXT	SEGMENT
?GetDays@CTimeSpan@ATL@@QBE_JXZ PROC NEAR		; ATL::CTimeSpan::GetDays, COMDAT
; _this$ = ecx

; 43   : 	return( m_timeSpan/(24*3600) );

  00000	8b 41 04	 mov	 eax, DWORD PTR [ecx+4]
  00003	8b 09		 mov	 ecx, DWORD PTR [ecx]
  00005	6a 00		 push	 0
  00007	68 80 51 01 00	 push	 86400			; 00015180H
  0000c	50		 push	 eax
  0000d	51		 push	 ecx
  0000e	e8 00 00 00 00	 call	 __alldiv

; 44   : }

  00013	c3		 ret	 0
?GetDays@CTimeSpan@ATL@@QBE_JXZ ENDP			; ATL::CTimeSpan::GetDays
_TEXT	ENDS
PUBLIC	?GetTotalHours@CTimeSpan@ATL@@QBE_JXZ		; ATL::CTimeSpan::GetTotalHours
; Function compile flags: /Ogty
;	COMDAT ?GetTotalHours@CTimeSpan@ATL@@QBE_JXZ
_TEXT	SEGMENT
?GetTotalHours@CTimeSpan@ATL@@QBE_JXZ PROC NEAR		; ATL::CTimeSpan::GetTotalHours, COMDAT
; _this$ = ecx

; 48   : 	return( m_timeSpan/3600 );

  00000	8b 41 04	 mov	 eax, DWORD PTR [ecx+4]
  00003	8b 09		 mov	 ecx, DWORD PTR [ecx]
  00005	6a 00		 push	 0
  00007	68 10 0e 00 00	 push	 3600			; 00000e10H
  0000c	50		 push	 eax
  0000d	51		 push	 ecx
  0000e	e8 00 00 00 00	 call	 __alldiv

; 49   : }

  00013	c3		 ret	 0
?GetTotalHours@CTimeSpan@ATL@@QBE_JXZ ENDP		; ATL::CTimeSpan::GetTotalHours
_TEXT	ENDS
PUBLIC	?GetHours@CTimeSpan@ATL@@QBEJXZ			; ATL::CTimeSpan::GetHours
; Function compile flags: /Ogty
;	COMDAT ?GetHours@CTimeSpan@ATL@@QBEJXZ
_TEXT	SEGMENT
?GetHours@CTimeSpan@ATL@@QBEJXZ PROC NEAR		; ATL::CTimeSpan::GetHours, COMDAT
; _this$ = ecx

; 52   : {

  00000	53		 push	 ebx
  00001	56		 push	 esi

; 53   : 	return( LONG( GetTotalHours()-(GetDays()*24) ) );

  00002	8b 31		 mov	 esi, DWORD PTR [ecx]
  00004	57		 push	 edi
  00005	8b 79 04	 mov	 edi, DWORD PTR [ecx+4]
  00008	6a 00		 push	 0
  0000a	68 80 51 01 00	 push	 86400			; 00015180H
  0000f	57		 push	 edi
  00010	56		 push	 esi
  00011	e8 00 00 00 00	 call	 __alldiv
  00016	6a 00		 push	 0
  00018	68 10 0e 00 00	 push	 3600			; 00000e10H
  0001d	8d 04 40	 lea	 eax, DWORD PTR [eax+eax*2]
  00020	57		 push	 edi
  00021	c1 e0 03	 shl	 eax, 3
  00024	56		 push	 esi
  00025	8b d8		 mov	 ebx, eax
  00027	e8 00 00 00 00	 call	 __alldiv
  0002c	5f		 pop	 edi
  0002d	5e		 pop	 esi
  0002e	2b c3		 sub	 eax, ebx
  00030	5b		 pop	 ebx

; 54   : }

  00031	c3		 ret	 0
?GetHours@CTimeSpan@ATL@@QBEJXZ ENDP			; ATL::CTimeSpan::GetHours
_TEXT	ENDS
PUBLIC	?GetTotalMinutes@CTimeSpan@ATL@@QBE_JXZ		; ATL::CTimeSpan::GetTotalMinutes
; Function compile flags: /Ogty
;	COMDAT ?GetTotalMinutes@CTimeSpan@ATL@@QBE_JXZ
_TEXT	SEGMENT
?GetTotalMinutes@CTimeSpan@ATL@@QBE_JXZ PROC NEAR	; ATL::CTimeSpan::GetTotalMinutes, COMDAT
; _this$ = ecx

; 58   : 	return( m_timeSpan/60 );

  00000	8b 41 04	 mov	 eax, DWORD PTR [ecx+4]
  00003	8b 09		 mov	 ecx, DWORD PTR [ecx]
  00005	6a 00		 push	 0
  00007	6a 3c		 push	 60			; 0000003cH
  00009	50		 push	 eax
  0000a	51		 push	 ecx
  0000b	e8 00 00 00 00	 call	 __alldiv

; 59   : }

  00010	c3		 ret	 0
?GetTotalMinutes@CTimeSpan@ATL@@QBE_JXZ ENDP		; ATL::CTimeSpan::GetTotalMinutes
_TEXT	ENDS
PUBLIC	?GetMinutes@CTimeSpan@ATL@@QBEJXZ		; ATL::CTimeSpan::GetMinutes
; Function compile flags: /Ogty
;	COMDAT ?GetMinutes@CTimeSpan@ATL@@QBEJXZ
_TEXT	SEGMENT
?GetMinutes@CTimeSpan@ATL@@QBEJXZ PROC NEAR		; ATL::CTimeSpan::GetMinutes, COMDAT
; _this$ = ecx

; 62   : {

  00000	53		 push	 ebx
  00001	56		 push	 esi

; 63   : 	return( LONG( GetTotalMinutes()-(GetTotalHours()*60) ) );

  00002	8b 31		 mov	 esi, DWORD PTR [ecx]
  00004	57		 push	 edi
  00005	8b 79 04	 mov	 edi, DWORD PTR [ecx+4]
  00008	6a 00		 push	 0
  0000a	68 10 0e 00 00	 push	 3600			; 00000e10H
  0000f	57		 push	 edi
  00010	56		 push	 esi
  00011	e8 00 00 00 00	 call	 __alldiv
  00016	6a 00		 push	 0
  00018	6a 3c		 push	 60			; 0000003cH
  0001a	57		 push	 edi
  0001b	8b d8		 mov	 ebx, eax
  0001d	56		 push	 esi
  0001e	6b db 3c	 imul	 ebx, 60			; 0000003cH
  00021	e8 00 00 00 00	 call	 __alldiv
  00026	5f		 pop	 edi
  00027	5e		 pop	 esi
  00028	2b c3		 sub	 eax, ebx
  0002a	5b		 pop	 ebx

; 64   : }

  0002b	c3		 ret	 0
?GetMinutes@CTimeSpan@ATL@@QBEJXZ ENDP			; ATL::CTimeSpan::GetMinutes
_TEXT	ENDS
PUBLIC	??0CCoupleHelper@@AAE@XZ			; CCoupleHelper::CCoupleHelper
PUBLIC	??_7CCoupleHelper@@6B@				; CCoupleHelper::`vftable'
PUBLIC	??_GCCoupleHelper@@UAEPAXI@Z			; CCoupleHelper::`scalar deleting destructor'
EXTRN	??_ECCoupleHelper@@UAEPAXI@Z:NEAR		; CCoupleHelper::`vector deleting destructor'
;	COMDAT ??_7CCoupleHelper@@6B@
; File c:\documents and settings\test\mes documents\source\virtuos_v17\build\program\worldserver\couplehelper.cpp
CONST	SEGMENT
??_7CCoupleHelper@@6B@ DD FLAT:??_ECCoupleHelper@@UAEPAXI@Z ; CCoupleHelper::`vftable'
; Function compile flags: /Ogty
CONST	ENDS
;	COMDAT ??0CCoupleHelper@@AAE@XZ
_TEXT	SEGMENT
??0CCoupleHelper@@AAE@XZ PROC NEAR			; CCoupleHelper::CCoupleHelper, COMDAT
; _this$ = ecx

; 20   : {

  00000	8b c1		 mov	 eax, ecx
  00002	c7 00 00 00 00
	00		 mov	 DWORD PTR [eax], OFFSET FLAT:??_7CCoupleHelper@@6B@

; 21   : }

  00008	c3		 ret	 0
??0CCoupleHelper@@AAE@XZ ENDP				; CCoupleHelper::CCoupleHelper
_TEXT	ENDS
PUBLIC	?Clear@CCoupleHelper@@QAEXXZ			; CCoupleHelper::Clear
; Function compile flags: /Ogty
;	COMDAT ?Clear@CCoupleHelper@@QAEXXZ
_TEXT	SEGMENT
?Clear@CCoupleHelper@@QAEXXZ PROC NEAR			; CCoupleHelper::Clear, COMDAT
; _this$ = ecx

; 29   : {

  00000	56		 push	 esi
  00001	8b f1		 mov	 esi, ecx

; 30   : 	SAFE_DELETE( m_pMgr );

  00003	8b 4e 04	 mov	 ecx, DWORD PTR [esi+4]
  00006	85 c9		 test	 ecx, ecx
  00008	74 0d		 je	 SHORT $L266544
  0000a	8b 01		 mov	 eax, DWORD PTR [ecx]
  0000c	6a 01		 push	 1
  0000e	ff 10		 call	 DWORD PTR [eax]
  00010	c7 46 04 00 00
	00 00		 mov	 DWORD PTR [esi+4], 0
$L266544:
  00017	5e		 pop	 esi

; 31   : }

  00018	c3		 ret	 0
?Clear@CCoupleHelper@@QAEXXZ ENDP			; CCoupleHelper::Clear
_TEXT	ENDS
PUBLIC	?Initialize@CCoupleHelper@@QAEHPAVCDPDatabaseClient@@PAVCDPSrvr@@@Z ; CCoupleHelper::Initialize
EXTRN	??2@YAPAXI@Z:NEAR				; operator new
EXTRN	??3@YAXPAX@Z:NEAR				; operator delete
EXTRN	??0CCoupleMgr@@QAE@XZ:NEAR			; CCoupleMgr::CCoupleMgr
EXTRN	?Instance@CCoupleProperty@@SAPAV1@XZ:NEAR	; CCoupleProperty::Instance
EXTRN	?Initialize@CCoupleProperty@@QAEHXZ:NEAR	; CCoupleProperty::Initialize
EXTRN	__except_list:DWORD
EXTRN	___CxxFrameHandler:NEAR
;	COMDAT xdata$x
xdata$x	SEGMENT
$T272272 DD	0ffffffffH
	DD	FLAT:$L272265
$T272269 DD	019930520H
	DD	01H
	DD	FLAT:$T272272
	DD	2 DUP(00H)
	DD	2 DUP(00H)
; Function compile flags: /Ogty
xdata$x	ENDS
;	COMDAT ?Initialize@CCoupleHelper@@QAEHPAVCDPDatabaseClient@@PAVCDPSrvr@@@Z
_TEXT	SEGMENT
$T272262 = -16						; size = 4
__$EHRec$ = -12						; size = 12
_pdpClient$ = 8						; size = 4
_pdpServer$ = 12					; size = 4
?Initialize@CCoupleHelper@@QAEHPAVCDPDatabaseClient@@PAVCDPSrvr@@@Z PROC NEAR ; CCoupleHelper::Initialize, COMDAT
; _this$ = ecx

; 40   : {

  00000	6a ff		 push	 -1
  00002	68 00 00 00 00	 push	 __ehhandler$?Initialize@CCoupleHelper@@QAEHPAVCDPDatabaseClient@@PAVCDPSrvr@@@Z
  00007	64 a1 00 00 00
	00		 mov	 eax, DWORD PTR fs:__except_list
  0000d	50		 push	 eax
  0000e	64 89 25 00 00
	00 00		 mov	 DWORD PTR fs:__except_list, esp
  00015	51		 push	 ecx
  00016	56		 push	 esi

; 41   : 	m_pMgr	= new CCoupleMgr;

  00017	6a 20		 push	 32			; 00000020H
  00019	8b f1		 mov	 esi, ecx
  0001b	e8 00 00 00 00	 call	 ??2@YAPAXI@Z		; operator new
  00020	83 c4 04	 add	 esp, 4
  00023	89 44 24 04	 mov	 DWORD PTR $T272262[esp+20], eax
  00027	85 c0		 test	 eax, eax
  00029	c7 44 24 10 00
	00 00 00	 mov	 DWORD PTR __$EHRec$[esp+28], 0
  00031	74 09		 je	 SHORT $L272263
  00033	8b c8		 mov	 ecx, eax
  00035	e8 00 00 00 00	 call	 ??0CCoupleMgr@@QAE@XZ	; CCoupleMgr::CCoupleMgr
  0003a	eb 02		 jmp	 SHORT $L272264
$L272263:
  0003c	33 c0		 xor	 eax, eax
$L272264:

; 42   : 	m_pdpClient	= pdpClient;
; 43   : 	m_pdpServer	= pdpServer;

  0003e	8b 4c 24 1c	 mov	 ecx, DWORD PTR _pdpServer$[esp+16]
  00042	89 46 04	 mov	 DWORD PTR [esi+4], eax
  00045	8b 44 24 18	 mov	 eax, DWORD PTR _pdpClient$[esp+16]
  00049	c7 44 24 10 ff
	ff ff ff	 mov	 DWORD PTR __$EHRec$[esp+28], -1
  00051	89 46 08	 mov	 DWORD PTR [esi+8], eax
  00054	89 4e 0c	 mov	 DWORD PTR [esi+12], ecx

; 44   : 	return CCoupleProperty::Instance()->Initialize();

  00057	e8 00 00 00 00	 call	 ?Instance@CCoupleProperty@@SAPAV1@XZ ; CCoupleProperty::Instance
  0005c	8b c8		 mov	 ecx, eax
  0005e	e8 00 00 00 00	 call	 ?Initialize@CCoupleProperty@@QAEHXZ ; CCoupleProperty::Initialize

; 45   : }

  00063	8b 4c 24 08	 mov	 ecx, DWORD PTR __$EHRec$[esp+20]
  00067	5e		 pop	 esi
  00068	64 89 0d 00 00
	00 00		 mov	 DWORD PTR fs:__except_list, ecx
  0006f	83 c4 10	 add	 esp, 16			; 00000010H
  00072	c2 08 00	 ret	 8
_TEXT	ENDS
;	COMDAT text$x
text$x	SEGMENT
$L272265:
  00000	8b 45 f0	 mov	 eax, DWORD PTR $T272262[ebp]
  00003	50		 push	 eax
  00004	e8 00 00 00 00	 call	 ??3@YAXPAX@Z		; operator delete
  00009	59		 pop	 ecx
  0000a	c3		 ret	 0
__ehhandler$?Initialize@CCoupleHelper@@QAEHPAVCDPDatabaseClient@@PAVCDPSrvr@@@Z:
  0000b	b8 00 00 00 00	 mov	 eax, OFFSET FLAT:$T272269
  00010	e9 00 00 00 00	 jmp	 ___CxxFrameHandler
text$x	ENDS
?Initialize@CCoupleHelper@@QAEHPAVCDPDatabaseClient@@PAVCDPSrvr@@@Z ENDP ; CCoupleHelper::Initialize
PUBLIC	??_C@_0BK@BFPGCGKN@S?3?5CCoupleHelper?4OnCouple?$AA@ ; `string'
PUBLIC	?OnCouple@CCoupleHelper@@QAEXPAVCUser@@@Z	; CCoupleHelper::OnCouple
EXTRN	?SendCouple@CDPDatabaseClient@@QAEXKK@Z:NEAR	; CDPDatabaseClient::SendCouple
EXTRN	?OutputDebugStringA@election@@YAXPBDZZ:NEAR	; election::OutputDebugStringA
EXTRN	?AddDefinedText@CUser@@QAEXH@Z:NEAR		; CUser::AddDefinedText
;	COMDAT ??_C@_0BK@BFPGCGKN@S?3?5CCoupleHelper?4OnCouple?$AA@
; File c:\documents and settings\test\mes documents\source\virtuos_v17\build\program\worldserver\user.h
CONST	SEGMENT
??_C@_0BK@BFPGCGKN@S?3?5CCoupleHelper?4OnCouple?$AA@ DB 'S: CCoupleHelper'
	DB	'.OnCouple', 00H				; `string'
; Function compile flags: /Ogty
; File c:\documents and settings\test\mes documents\source\virtuos_v17\build\program\worldserver\couplehelper.cpp
CONST	ENDS
;	COMDAT ?OnCouple@CCoupleHelper@@QAEXPAVCUser@@@Z
_TEXT	SEGMENT
_pUser$ = 8						; size = 4
?OnCouple@CCoupleHelper@@QAEXPAVCUser@@@Z PROC NEAR	; CCoupleHelper::OnCouple, COMDAT
; _this$ = ecx

; 148  : {

  00000	56		 push	 esi

; 149  : 	election::OutputDebugString( "S: CCoupleHelper.OnCouple" );

  00001	68 00 00 00 00	 push	 OFFSET FLAT:??_C@_0BK@BFPGCGKN@S?3?5CCoupleHelper?4OnCouple?$AA@
  00006	8b f1		 mov	 esi, ecx
  00008	e8 00 00 00 00	 call	 ?OutputDebugStringA@election@@YAXPBDZZ ; election::OutputDebugStringA

; 150  : 	if( pUser->GetProposer() == 0 )

  0000d	8b 4c 24 0c	 mov	 ecx, DWORD PTR _pUser$[esp+4]
  00011	8b 81 b8 96 00
	00		 mov	 eax, DWORD PTR [ecx+38584]
  00017	83 c4 04	 add	 esp, 4
  0001a	85 c0		 test	 eax, eax
  0001c	75 0e		 jne	 SHORT $L266633
  0001e	5e		 pop	 esi

; 151  : 	{
; 152  : 		pUser->AddDefinedText( TID_GAME_COUPLE_E02 );	//    .

  0001f	c7 44 24 04 cb
	0f 00 00	 mov	 DWORD PTR _pUser$[esp-4], 4043 ; 00000fcbH
  00027	e9 00 00 00 00	 jmp	 ?AddDefinedText@CUser@@QAEXH@Z ; CUser::AddDefinedText
$L266633:

; 153  : 		return;
; 154  : 	}
; 155  : 	m_pdpClient->SendCouple( pUser->GetProposer(), pUser->m_idPlayer );

  0002c	8b 89 38 02 00
	00		 mov	 ecx, DWORD PTR [ecx+568]
  00032	51		 push	 ecx
  00033	8b 4e 08	 mov	 ecx, DWORD PTR [esi+8]
  00036	50		 push	 eax
  00037	e8 00 00 00 00	 call	 ?SendCouple@CDPDatabaseClient@@QAEXKK@Z ; CDPDatabaseClient::SendCouple
  0003c	5e		 pop	 esi

; 156  : }

  0003d	c2 04 00	 ret	 4
?OnCouple@CCoupleHelper@@QAEXPAVCUser@@@Z ENDP		; CCoupleHelper::OnCouple
_TEXT	ENDS
PUBLIC	??_C@_0BM@JJPLMFOM@S?3?5CCoupleHelper?4OnDecouple?$AA@ ; `string'
PUBLIC	?OnDecouple@CCoupleHelper@@QAEXPAVCUser@@@Z	; CCoupleHelper::OnDecouple
EXTRN	?SendDecouple@CDPDatabaseClient@@QAEXK@Z:NEAR	; CDPDatabaseClient::SendDecouple
;	COMDAT ??_C@_0BM@JJPLMFOM@S?3?5CCoupleHelper?4OnDecouple?$AA@
CONST	SEGMENT
??_C@_0BM@JJPLMFOM@S?3?5CCoupleHelper?4OnDecouple?$AA@ DB 'S: CCoupleHelp'
	DB	'er.OnDecouple', 00H				; `string'
; Function compile flags: /Ogty
CONST	ENDS
;	COMDAT ?OnDecouple@CCoupleHelper@@QAEXPAVCUser@@@Z
_TEXT	SEGMENT
_pUser$ = 8						; size = 4
?OnDecouple@CCoupleHelper@@QAEXPAVCUser@@@Z PROC NEAR	; CCoupleHelper::OnDecouple, COMDAT
; _this$ = ecx

; 196  : {

  00000	56		 push	 esi
  00001	57		 push	 edi

; 197  : 	election::OutputDebugString( "S: CCoupleHelper.OnDecouple" );

  00002	68 00 00 00 00	 push	 OFFSET FLAT:??_C@_0BM@JJPLMFOM@S?3?5CCoupleHelper?4OnDecouple?$AA@
  00007	8b f1		 mov	 esi, ecx
  00009	e8 00 00 00 00	 call	 ?OutputDebugStringA@election@@YAXPBDZZ ; election::OutputDebugStringA

; 198  : 	CCouple* pCouple	= m_pMgr->GetCouple( pUser->m_idPlayer );

  0000e	8b 7c 24 10	 mov	 edi, DWORD PTR _pUser$[esp+8]
  00012	8b 87 38 02 00
	00		 mov	 eax, DWORD PTR [edi+568]
  00018	8b 4e 04	 mov	 ecx, DWORD PTR [esi+4]
  0001b	83 c4 04	 add	 esp, 4
  0001e	50		 push	 eax
  0001f	e8 00 00 00 00	 call	 ?GetCouple@CCoupleMgr@@QAEPAVCCouple@@K@Z ; CCoupleMgr::GetCouple

; 199  : 	if( !pCouple )

  00024	85 c0		 test	 eax, eax
  00026	75 11		 jne	 SHORT $L266661

; 200  : 	{
; 201  : 		pUser->AddDefinedText( TID_GAME_COUPLE_E05 );	//  .

  00028	68 ce 0f 00 00	 push	 4046			; 00000fceH
  0002d	8b cf		 mov	 ecx, edi
  0002f	e8 00 00 00 00	 call	 ?AddDefinedText@CUser@@QAEXH@Z ; CUser::AddDefinedText
  00034	5f		 pop	 edi
  00035	5e		 pop	 esi

; 205  : }

  00036	c2 04 00	 ret	 4
$L266661:

; 202  : 		return;
; 203  : 	}
; 204  : 	m_pdpClient->SendDecouple( pUser->m_idPlayer );

  00039	8b 8f 38 02 00
	00		 mov	 ecx, DWORD PTR [edi+568]
  0003f	51		 push	 ecx
  00040	8b 4e 08	 mov	 ecx, DWORD PTR [esi+8]
  00043	e8 00 00 00 00	 call	 ?SendDecouple@CDPDatabaseClient@@QAEXK@Z ; CDPDatabaseClient::SendDecouple
  00048	5f		 pop	 edi
  00049	5e		 pop	 esi

; 205  : }

  0004a	c2 04 00	 ret	 4
?OnDecouple@CCoupleHelper@@QAEXPAVCUser@@@Z ENDP	; CCoupleHelper::OnDecouple
_TEXT	ENDS
PUBLIC	_acosf
EXTRN	__CIacos:NEAR
EXTRN	__fltused:NEAR
; Function compile flags: /Ogty
; File c:\program files\microsoft visual studio .net 2003\vc7\include\math.h
;	COMDAT _acosf
_TEXT	SEGMENT
__X$ = 8						; size = 4
_acosf	PROC NEAR					; COMDAT

; 434  :         {return ((float)acos((double)_X)); }

  00000	d9 44 24 04	 fld	 DWORD PTR __X$[esp-4]
  00004	e8 00 00 00 00	 call	 __CIacos
  00009	c3		 ret	 0
_acosf	ENDP
_TEXT	ENDS
PUBLIC	_cosf
; Function compile flags: /Ogty
;	COMDAT _cosf
_TEXT	SEGMENT
__X$ = 8						; size = 4
_cosf	PROC NEAR					; COMDAT

; 444  :         {return ((float)cos((double)_X)); }

  00000	d9 44 24 04	 fld	 DWORD PTR __X$[esp-4]
  00004	d9 ff		 fcos
  00006	c3		 ret	 0
_cosf	ENDP
_TEXT	ENDS
PUBLIC	_sinf
; Function compile flags: /Ogty
;	COMDAT _sinf
_TEXT	SEGMENT
__X$ = 8						; size = 4
_sinf	PROC NEAR					; COMDAT

; 466  :         {return ((float)sin((double)_X)); }

  00000	d9 44 24 04	 fld	 DWORD PTR __X$[esp-4]
  00004	d9 fe		 fsin
  00006	c3		 ret	 0
_sinf	ENDP
_TEXT	ENDS
PUBLIC	??0D3DXVECTOR3@@QAE@MMM@Z			; D3DXVECTOR3::D3DXVECTOR3
; Function compile flags: /Ogty
; File c:\documents and settings\test\mes documents\source\virtuos_v17\build\program\dx_sdk\d3dx9math.inl
;	COMDAT ??0D3DXVECTOR3@@QAE@MMM@Z
_TEXT	SEGMENT
_fx$ = 8						; size = 4
_fy$ = 12						; size = 4
_fz$ = 16						; size = 4
??0D3DXVECTOR3@@QAE@MMM@Z PROC NEAR			; D3DXVECTOR3::D3DXVECTOR3, COMDAT
; _this$ = ecx

; 300  :     x = fx;
; 301  :     y = fy;

  00000	8b 54 24 08	 mov	 edx, DWORD PTR _fy$[esp-4]
  00004	8b c1		 mov	 eax, ecx
  00006	8b 4c 24 04	 mov	 ecx, DWORD PTR _fx$[esp-4]
  0000a	89 08		 mov	 DWORD PTR [eax], ecx

; 302  :     z = fz;

  0000c	8b 4c 24 0c	 mov	 ecx, DWORD PTR _fz$[esp-4]
  00010	89 50 04	 mov	 DWORD PTR [eax+4], edx
  00013	89 48 08	 mov	 DWORD PTR [eax+8], ecx

; 303  : }

  00016	c2 0c 00	 ret	 12			; 0000000cH
??0D3DXVECTOR3@@QAE@MMM@Z ENDP				; D3DXVECTOR3::D3DXVECTOR3
_TEXT	ENDS
PUBLIC	??GD3DXVECTOR3@@QBE?AU0@ABU0@@Z			; D3DXVECTOR3::operator-
; Function compile flags: /Ogty
;	COMDAT ??GD3DXVECTOR3@@QBE?AU0@ABU0@@Z
_TEXT	SEGMENT
___$ReturnUdt$ = 8					; size = 4
_v$ = 12						; size = 4
??GD3DXVECTOR3@@QBE?AU0@ABU0@@Z PROC NEAR		; D3DXVECTOR3::operator-, COMDAT
; _this$ = ecx

; 383  :     return D3DXVECTOR3(x - v.x, y - v.y, z - v.z);

  00000	d9 41 08	 fld	 DWORD PTR [ecx+8]
  00003	8b 44 24 08	 mov	 eax, DWORD PTR _v$[esp-4]
  00007	d8 60 08	 fsub	 DWORD PTR [eax+8]
  0000a	d9 41 04	 fld	 DWORD PTR [ecx+4]
  0000d	d8 60 04	 fsub	 DWORD PTR [eax+4]
  00010	d9 01		 fld	 DWORD PTR [ecx]
  00012	d8 20		 fsub	 DWORD PTR [eax]
  00014	8b 44 24 04	 mov	 eax, DWORD PTR ___$ReturnUdt$[esp-4]
  00018	d9 18		 fstp	 DWORD PTR [eax]
  0001a	d9 58 04	 fstp	 DWORD PTR [eax+4]
  0001d	d9 58 08	 fstp	 DWORD PTR [eax+8]

; 384  : }

  00020	c2 08 00	 ret	 8
??GD3DXVECTOR3@@QBE?AU0@ABU0@@Z ENDP			; D3DXVECTOR3::operator-
_TEXT	ENDS
PUBLIC	?D3DXVec3Dot@@YAMPBUD3DXVECTOR3@@0@Z		; D3DXVec3Dot
; Function compile flags: /Ogty
;	COMDAT ?D3DXVec3Dot@@YAMPBUD3DXVECTOR3@@0@Z
_TEXT	SEGMENT
_pV1$ = 8						; size = 4
_pV2$ = 12						; size = 4
?D3DXVec3Dot@@YAMPBUD3DXVECTOR3@@0@Z PROC NEAR		; D3DXVec3Dot, COMDAT

; 1704 : #ifdef D3DX_DEBUG
; 1705 :     if(!pV1 || !pV2)
; 1706 :         return 0.0f;
; 1707 : #endif
; 1708 : 
; 1709 :     return pV1->x * pV2->x + pV1->y * pV2->y + pV1->z * pV2->z;

  00000	8b 44 24 04	 mov	 eax, DWORD PTR _pV1$[esp-4]
  00004	8b 4c 24 08	 mov	 ecx, DWORD PTR _pV2$[esp-4]
  00008	d9 40 08	 fld	 DWORD PTR [eax+8]
  0000b	d8 49 08	 fmul	 DWORD PTR [ecx+8]
  0000e	d9 40 04	 fld	 DWORD PTR [eax+4]
  00011	d8 49 04	 fmul	 DWORD PTR [ecx+4]
  00014	de c1		 faddp	 ST(1), ST(0)
  00016	d9 00		 fld	 DWORD PTR [eax]
  00018	d8 09		 fmul	 DWORD PTR [ecx]
  0001a	de c1		 faddp	 ST(1), ST(0)

; 1710 : }

  0001c	c3		 ret	 0
?D3DXVec3Dot@@YAMPBUD3DXVECTOR3@@0@Z ENDP		; D3DXVec3Dot
_TEXT	ENDS
PUBLIC	?IsDelete@CObj@@QAEHXZ				; CObj::IsDelete
; Function compile flags: /Ogty
; File c:\documents and settings\test\mes documents\source\virtuos_v17\build\program\_common\obj.h
;	COMDAT ?IsDelete@CObj@@QAEHXZ
_TEXT	SEGMENT
?IsDelete@CObj@@QAEHXZ PROC NEAR			; CObj::IsDelete, COMDAT
; _this$ = ecx

; 180  : 	BOOL			IsDelete()	{ return (m_dwFlags & OBJ_FLAG_DELETE);  }

  00000	8b 41 04	 mov	 eax, DWORD PTR [ecx+4]
  00003	83 e0 01	 and	 eax, 1
  00006	c3		 ret	 0
?IsDelete@CObj@@QAEHXZ ENDP				; CObj::IsDelete
_TEXT	ENDS
PUBLIC	?GetPos@CObj@@QAE?AUD3DXVECTOR3@@XZ		; CObj::GetPos
; Function compile flags: /Ogty
;	COMDAT ?GetPos@CObj@@QAE?AUD3DXVECTOR3@@XZ
_TEXT	SEGMENT
___$ReturnUdt$ = 8					; size = 4
?GetPos@CObj@@QAE?AUD3DXVECTOR3@@XZ PROC NEAR		; CObj::GetPos, COMDAT
; _this$ = ecx

; 215  : 	D3DXVECTOR3		GetPos()	{ return m_vPos; }

  00000	8b 44 24 04	 mov	 eax, DWORD PTR ___$ReturnUdt$[esp-4]
  00004	81 c1 60 01 00
	00		 add	 ecx, 352		; 00000160H
  0000a	56		 push	 esi
  0000b	8b 31		 mov	 esi, DWORD PTR [ecx]
  0000d	8b d0		 mov	 edx, eax
  0000f	89 32		 mov	 DWORD PTR [edx], esi
  00011	8b 71 04	 mov	 esi, DWORD PTR [ecx+4]
  00014	89 72 04	 mov	 DWORD PTR [edx+4], esi
  00017	8b 49 08	 mov	 ecx, DWORD PTR [ecx+8]
  0001a	89 4a 08	 mov	 DWORD PTR [edx+8], ecx
  0001d	5e		 pop	 esi
  0001e	c2 04 00	 ret	 4
?GetPos@CObj@@QAE?AUD3DXVECTOR3@@XZ ENDP		; CObj::GetPos
_TEXT	ENDS
PUBLIC	?GetAngle@CObj@@QAEMXZ				; CObj::GetAngle
; Function compile flags: /Ogty
;	COMDAT ?GetAngle@CObj@@QAEMXZ
_TEXT	SEGMENT
?GetAngle@CObj@@QAEMXZ PROC NEAR			; CObj::GetAngle, COMDAT
; _this$ = ecx

; 217  : 	FLOAT			GetAngle()	{ return m_fAngle; }

  00000	d9 41 18	 fld	 DWORD PTR [ecx+24]
  00003	c3		 ret	 0
?GetAngle@CObj@@QAEMXZ ENDP				; CObj::GetAngle
_TEXT	ENDS
PUBLIC	?VelocityToVec@@YA?AUD3DXVECTOR3@@MM@Z		; VelocityToVec
PUBLIC	__real@3c8efa35
;	COMDAT __real@3c8efa35
; File c:\documents and settings\test\mes documents\source\virtuos_v17\build\program\dx_sdk\d3dx9math.inl
CONST	SEGMENT
__real@3c8efa35 DD 03c8efa35r			; 0.0174533
; Function compile flags: /Ogty
; File c:\documents and settings\test\mes documents\source\virtuos_v17\build\program\_common\obj.h
CONST	ENDS
;	COMDAT ?VelocityToVec@@YA?AUD3DXVECTOR3@@MM@Z
_TEXT	SEGMENT
___$ReturnUdt$ = 8					; size = 4
_fAngle$ = 12						; size = 4
_fVelocity$ = 16					; size = 4
?VelocityToVec@@YA?AUD3DXVECTOR3@@MM@Z PROC NEAR	; VelocityToVec, COMDAT

; 280  : 	FLOAT fTheta = D3DXToRadian( fAngle );

  00000	d9 44 24 08	 fld	 DWORD PTR _fAngle$[esp-4]

; 281  : 	FLOAT fx = sinf( fTheta ) * fVelocity;
; 282  : 	FLOAT fz = -cosf( fTheta ) * fVelocity;
; 283  : 	return D3DXVECTOR3( fx, 0.0f, fz );

  00004	8b 44 24 04	 mov	 eax, DWORD PTR ___$ReturnUdt$[esp-4]
  00008	d8 0d 00 00 00
	00		 fmul	 DWORD PTR __real@3c8efa35
  0000e	c7 40 04 00 00
	00 00		 mov	 DWORD PTR [eax+4], 0
  00015	d9 c0		 fld	 ST(0)
  00017	d9 fe		 fsin
  00019	d8 4c 24 0c	 fmul	 DWORD PTR _fVelocity$[esp-4]
  0001d	d9 18		 fstp	 DWORD PTR [eax]
  0001f	d9 ff		 fcos
  00021	d8 4c 24 0c	 fmul	 DWORD PTR _fVelocity$[esp-4]
  00025	d9 e0		 fchs
  00027	d9 58 08	 fstp	 DWORD PTR [eax+8]

; 284  : }

  0002a	c3		 ret	 0
?VelocityToVec@@YA?AUD3DXVECTOR3@@MM@Z ENDP		; VelocityToVec
_TEXT	ENDS
PUBLIC	__real@42652ee0
PUBLIC	__real@43b40000
PUBLIC	?GetDegree@@YAMABUD3DXVECTOR3@@0@Z		; GetDegree
PUBLIC	__real@0000000000000000
PUBLIC	__real@00000000
EXTRN	_D3DXVec3Normalize@8:NEAR
;	COMDAT __real@0000000000000000
; File c:\program files\microsoft visual studio .net 2003\vc7\include\math.h
CONST	SEGMENT
__real@0000000000000000 DQ 00000000000000000r	; 0
CONST	ENDS
;	COMDAT __real@42652ee0
CONST	SEGMENT
__real@42652ee0 DD 042652ee0r			; 57.2958
CONST	ENDS
;	COMDAT __real@00000000
CONST	SEGMENT
__real@00000000 DD 000000000r			; 0
CONST	ENDS
;	COMDAT __real@43b40000
CONST	SEGMENT
__real@43b40000 DD 043b40000r			; 360
; Function compile flags: /Ogty
; File c:\documents and settings\test\mes documents\source\virtuos_v17\build\program\_common\obj.h
CONST	ENDS
;	COMDAT ?GetDegree@@YAMABUD3DXVECTOR3@@0@Z
_TEXT	SEGMENT
_vDir2$ = -24						; size = 12
_vDir1$ = -12						; size = 12
_vDestPos$ = 8						; size = 4
_vSrcPos$ = 12						; size = 4
?GetDegree@@YAMABUD3DXVECTOR3@@0@Z PROC NEAR		; GetDegree, COMDAT

; 289  : {

  00000	83 ec 18	 sub	 esp, 24			; 00000018H

; 290  : 	D3DXVECTOR3 vDir1 = VelocityToVec( 0.0f, 1.0f );

  00003	dd 05 00 00 00
	00		 fld	 QWORD PTR __real@0000000000000000

; 291  : 	D3DXVECTOR3 vDir2 = vDestPos - vSrcPos;

  00009	8b 44 24 1c	 mov	 eax, DWORD PTR _vDestPos$[esp+20]
  0000d	d9 fe		 fsin
  0000f	8b 4c 24 20	 mov	 ecx, DWORD PTR _vSrcPos$[esp+20]
  00013	c7 44 24 10 00
	00 00 00	 mov	 DWORD PTR _vDir1$[esp+28], 0

; 292  : 	vDir2.y = 0.0f;

  0001b	c7 44 24 04 00
	00 00 00	 mov	 DWORD PTR _vDir2$[esp+28], 0
  00023	d9 5c 24 0c	 fstp	 DWORD PTR _vDir1$[esp+24]
  00027	dd 05 00 00 00
	00		 fld	 QWORD PTR __real@0000000000000000
  0002d	d9 ff		 fcos
  0002f	d9 e0		 fchs
  00031	d9 5c 24 14	 fstp	 DWORD PTR _vDir1$[esp+32]
  00035	d9 00		 fld	 DWORD PTR [eax]
  00037	d8 21		 fsub	 DWORD PTR [ecx]
  00039	d9 1c 24	 fstp	 DWORD PTR _vDir2$[esp+24]
  0003c	d9 40 08	 fld	 DWORD PTR [eax+8]

; 293  : 
; 294  : 	D3DXVec3Normalize( &vDir1, &vDir1 );

  0003f	8d 44 24 0c	 lea	 eax, DWORD PTR _vDir1$[esp+24]
  00043	d8 61 08	 fsub	 DWORD PTR [ecx+8]
  00046	50		 push	 eax
  00047	8b c8		 mov	 ecx, eax
  00049	51		 push	 ecx
  0004a	d9 5c 24 10	 fstp	 DWORD PTR _vDir2$[esp+40]
  0004e	e8 00 00 00 00	 call	 _D3DXVec3Normalize@8

; 295  : 	D3DXVec3Normalize( &vDir2, &vDir2 );

  00053	8d 14 24	 lea	 edx, DWORD PTR _vDir2$[esp+24]
  00056	52		 push	 edx
  00057	8b c2		 mov	 eax, edx
  00059	50		 push	 eax
  0005a	e8 00 00 00 00	 call	 _D3DXVec3Normalize@8

; 296  : 	FLOAT fDot = D3DXVec3Dot( &vDir1, &vDir2 );

  0005f	d9 44 24 08	 fld	 DWORD PTR _vDir2$[esp+32]
  00063	d8 4c 24 14	 fmul	 DWORD PTR _vDir1$[esp+32]
  00067	d9 44 24 0c	 fld	 DWORD PTR _vDir1$[esp+24]
  0006b	d8 0c 24	 fmul	 DWORD PTR _vDir2$[esp+24]

; 301  : 	else
; 302  : 		fDegree = fDegree;
; 303  : 	return fDegree;

  0006e	de c1		 faddp	 ST(1), ST(0)
  00070	d9 44 24 10	 fld	 DWORD PTR _vDir1$[esp+28]
  00074	d8 4c 24 04	 fmul	 DWORD PTR _vDir2$[esp+28]
  00078	de c1		 faddp	 ST(1), ST(0)
  0007a	e8 00 00 00 00	 call	 __CIacos
  0007f	d8 0d 00 00 00
	00		 fmul	 DWORD PTR __real@42652ee0
  00085	d9 04 24	 fld	 DWORD PTR _vDir2$[esp+24]
  00088	d8 1d 00 00 00
	00		 fcomp	 DWORD PTR __real@00000000
  0008e	df e0		 fnstsw	 ax
  00090	f6 c4 05	 test	 ah, 5
  00093	7a 06		 jp	 SHORT $L176563

; 297  : 	FLOAT fRadian = acosf( fDot );
; 298  : 	FLOAT fDegree = D3DXToDegree( fRadian );
; 299  : 	if( vDir2.x < 0.0f )
; 300  : 		fDegree = 360.0f - fDegree;

  00095	d8 2d 00 00 00
	00		 fsubr	 DWORD PTR __real@43b40000
$L176563:

; 304  : }

  0009b	83 c4 18	 add	 esp, 24			; 00000018H
  0009e	c3		 ret	 0
?GetDegree@@YAMABUD3DXVECTOR3@@0@Z ENDP			; GetDegree
_TEXT	ENDS
PUBLIC	?IsValidObj@@YAHPAVCObj@@@Z			; IsValidObj
; Function compile flags: /Ogty
;	COMDAT ?IsValidObj@@YAHPAVCObj@@@Z
_TEXT	SEGMENT
_pObj$ = 8						; size = 4
?IsValidObj@@YAHPAVCObj@@@Z PROC NEAR			; IsValidObj, COMDAT

; 327  : 	return pObj && ( pObj->IsDelete() == FALSE ); 

  00000	8b 44 24 04	 mov	 eax, DWORD PTR _pObj$[esp-4]
  00004	85 c0		 test	 eax, eax
  00006	74 0c		 je	 SHORT $L272393
  00008	f6 40 04 01	 test	 BYTE PTR [eax+4], 1
  0000c	75 06		 jne	 SHORT $L272393
  0000e	b8 01 00 00 00	 mov	 eax, 1

; 328  : }

  00013	c3		 ret	 0
$L272393:

; 327  : 	return pObj && ( pObj->IsDelete() == FALSE ); 

  00014	33 c0		 xor	 eax, eax

; 328  : }

  00016	c3		 ret	 0
?IsValidObj@@YAHPAVCObj@@@Z ENDP			; IsValidObj
_TEXT	ENDS
PUBLIC	?LOG_RANGE@@YAXPBDHHH@Z				; LOG_RANGE
PUBLIC	??_C@_0BM@HMFGHCP@?$CFs?5min?3?$CFd?0?5max?3?$CFd?0?5index?3?$CFd?$AA@ ; `string'
EXTRN	?Error@@YAPBDPBDZZ:NEAR				; Error
;	COMDAT ??_C@_0BM@HMFGHCP@?$CFs?5min?3?$CFd?0?5max?3?$CFd?0?5index?3?$CFd?$AA@
; File c:\documents and settings\test\mes documents\source\virtuos_v17\build\program\_common\project.h
CONST	SEGMENT
??_C@_0BM@HMFGHCP@?$CFs?5min?3?$CFd?0?5max?3?$CFd?0?5index?3?$CFd?$AA@ DB '%'
	DB	's min:%d, max:%d, index:%d', 00H		; `string'
; Function compile flags: /Ogty
CONST	ENDS
;	COMDAT ?LOG_RANGE@@YAXPBDHHH@Z
_TEXT	SEGMENT
_szMsg$ = 8						; size = 4
_nMin$ = 12						; size = 4
_nMax$ = 16						; size = 4
_nIndex$ = 20						; size = 4
?LOG_RANGE@@YAXPBDHHH@Z PROC NEAR			; LOG_RANGE, COMDAT

; 559  : 	LPCTSTR szErr = Error( _T( "%s min:%d, max:%d, index:%d" ), szMsg, nMin, nMax, nIndex ); 

  00000	8b 44 24 10	 mov	 eax, DWORD PTR _nIndex$[esp-4]
  00004	8b 4c 24 0c	 mov	 ecx, DWORD PTR _nMax$[esp-4]
  00008	8b 54 24 08	 mov	 edx, DWORD PTR _nMin$[esp-4]
  0000c	50		 push	 eax
  0000d	8b 44 24 08	 mov	 eax, DWORD PTR _szMsg$[esp]
  00011	51		 push	 ecx
  00012	52		 push	 edx
  00013	50		 push	 eax
  00014	68 00 00 00 00	 push	 OFFSET FLAT:??_C@_0BM@HMFGHCP@?$CFs?5min?3?$CFd?0?5max?3?$CFd?0?5index?3?$CFd?$AA@
  00019	e8 00 00 00 00	 call	 ?Error@@YAPBDPBDZZ	; Error
  0001e	83 c4 14	 add	 esp, 20			; 00000014H

; 560  : 	ADDERRORMSG( szErr ); 
; 561  : }

  00021	c3		 ret	 0
?LOG_RANGE@@YAXPBDHHH@Z ENDP				; LOG_RANGE
_TEXT	ENDS
PUBLIC	??5CAr@@QAEAAV0@AAK@Z				; CAr::operator>>
; Function compile flags: /Ogty
; File c:\documents and settings\test\mes documents\source\virtuos_v17\build\program\_network\misc\include\ar.h
;	COMDAT ??5CAr@@QAEAAV0@AAK@Z
_TEXT	SEGMENT
_dw$ = 8						; size = 4
??5CAr@@QAEAAV0@AAK@Z PROC NEAR				; CAr::operator>>, COMDAT
; _this$ = ecx

; 146  : 	{	CAR_SAFE_READ( DWORD, dw );	}

  00000	8b c1		 mov	 eax, ecx
  00002	8b 48 08	 mov	 ecx, DWORD PTR [eax+8]
  00005	56		 push	 esi
  00006	8b 70 0c	 mov	 esi, DWORD PTR [eax+12]
  00009	8d 51 04	 lea	 edx, DWORD PTR [ecx+4]
  0000c	3b d6		 cmp	 edx, esi
  0000e	5e		 pop	 esi
  0000f	77 0f		 ja	 SHORT $L205468
  00011	8b 09		 mov	 ecx, DWORD PTR [ecx]
  00013	8b 54 24 04	 mov	 edx, DWORD PTR _dw$[esp-4]
  00017	89 0a		 mov	 DWORD PTR [edx], ecx
  00019	83 40 08 04	 add	 DWORD PTR [eax+8], 4
  0001d	c2 04 00	 ret	 4
$L205468:
  00020	8b 4c 24 04	 mov	 ecx, DWORD PTR _dw$[esp-4]
  00024	c7 01 00 00 00
	00		 mov	 DWORD PTR [ecx], 0
  0002a	8b 50 0c	 mov	 edx, DWORD PTR [eax+12]
  0002d	89 50 08	 mov	 DWORD PTR [eax+8], edx
  00030	c2 04 00	 ret	 4
??5CAr@@QAEAAV0@AAK@Z ENDP				; CAr::operator>>
_TEXT	ENDS
PUBLIC	??5CAr@@QAEAAV0@AAJ@Z				; CAr::operator>>
; Function compile flags: /Ogty
;	COMDAT ??5CAr@@QAEAAV0@AAJ@Z
_TEXT	SEGMENT
_l$ = 8							; size = 4
??5CAr@@QAEAAV0@AAJ@Z PROC NEAR				; CAr::operator>>, COMDAT
; _this$ = ecx

; 152  : 	{	CAR_SAFE_READ( LONG, l );	}

  00000	8b c1		 mov	 eax, ecx
  00002	8b 48 08	 mov	 ecx, DWORD PTR [eax+8]
  00005	56		 push	 esi
  00006	8b 70 0c	 mov	 esi, DWORD PTR [eax+12]
  00009	8d 51 04	 lea	 edx, DWORD PTR [ecx+4]
  0000c	3b d6		 cmp	 edx, esi
  0000e	5e		 pop	 esi
  0000f	77 0f		 ja	 SHORT $L205498
  00011	8b 09		 mov	 ecx, DWORD PTR [ecx]
  00013	8b 54 24 04	 mov	 edx, DWORD PTR _l$[esp-4]
  00017	89 0a		 mov	 DWORD PTR [edx], ecx
  00019	83 40 08 04	 add	 DWORD PTR [eax+8], 4
  0001d	c2 04 00	 ret	 4
$L205498:
  00020	8b 4c 24 04	 mov	 ecx, DWORD PTR _l$[esp-4]
  00024	c7 01 00 00 00
	00		 mov	 DWORD PTR [ecx], 0
  0002a	8b 50 0c	 mov	 edx, DWORD PTR [eax+12]
  0002d	89 50 08	 mov	 DWORD PTR [eax+8], edx
  00030	c2 04 00	 ret	 4
??5CAr@@QAEAAV0@AAJ@Z ENDP				; CAr::operator>>
_TEXT	ENDS
PUBLIC	?GetStateFlag@CAction@@QAEKXZ			; CAction::GetStateFlag
; Function compile flags: /Ogty
; File c:\documents and settings\test\mes documents\source\virtuos_v17\build\program\_aiinterface\action.h
;	COMDAT ?GetStateFlag@CAction@@QAEKXZ
_TEXT	SEGMENT
?GetStateFlag@CAction@@QAEKXZ PROC NEAR			; CAction::GetStateFlag, COMDAT
; _this$ = ecx

; 288  : 	DWORD			GetStateFlag() { return m_dwStateFlag; }

  00000	8b 41 08	 mov	 eax, DWORD PTR [ecx+8]
  00003	c3		 ret	 0
?GetStateFlag@CAction@@QAEKXZ ENDP			; CAction::GetStateFlag
_TEXT	ENDS
PUBLIC	?GetState@CAction@@QAEKXZ			; CAction::GetState
; Function compile flags: /Ogty
;	COMDAT ?GetState@CAction@@QAEKXZ
_TEXT	SEGMENT
?GetState@CAction@@QAEKXZ PROC NEAR			; CAction::GetState, COMDAT
; _this$ = ecx

; 291  : 	DWORD			GetState() { return m_dwState; }

  00000	8b 41 04	 mov	 eax, DWORD PTR [ecx+4]
  00003	c3		 ret	 0
?GetState@CAction@@QAEKXZ ENDP				; CAction::GetState
_TEXT	ENDS
PUBLIC	?GetHonorTitle@CMover@@QAEHH@Z			; CMover::GetHonorTitle
; Function compile flags: /Ogty
; File c:\documents and settings\test\mes documents\source\virtuos_v17\build\program\_common\mover.h
;	COMDAT ?GetHonorTitle@CMover@@QAEHH@Z
_TEXT	SEGMENT
_nIdx$ = 8						; size = 4
?GetHonorTitle@CMover@@QAEHH@Z PROC NEAR		; CMover::GetHonorTitle, COMDAT
; _this$ = ecx

; 693  : 	int				GetHonorTitle(int nIdx)	{	return m_aHonorTitle[nIdx];	}

  00000	8b 44 24 04	 mov	 eax, DWORD PTR _nIdx$[esp-4]
  00004	8b 84 81 0c 09
	00 00		 mov	 eax, DWORD PTR [ecx+eax*4+2316]
  0000b	c2 04 00	 ret	 4
?GetHonorTitle@CMover@@QAEHH@Z ENDP			; CMover::GetHonorTitle
_TEXT	ENDS
PUBLIC	?GetSex@CMover@@QAEEXZ				; CMover::GetSex
; Function compile flags: /Ogty
;	COMDAT ?GetSex@CMover@@QAEEXZ
_TEXT	SEGMENT
?GetSex@CMover@@QAEEXZ PROC NEAR			; CMover::GetSex, COMDAT
; _this$ = ecx

; 1144 : 	BYTE			GetSex() { return m_bySex; }

  00000	8a 81 20 06 00
	00		 mov	 al, BYTE PTR [ecx+1568]
  00006	c3		 ret	 0
?GetSex@CMover@@QAEEXZ ENDP				; CMover::GetSex
_TEXT	ENDS
PUBLIC	?SendActMsg@CMover@@QAEHW4OBJMSG@@HHHH@Z	; CMover::SendActMsg
; Function compile flags: /Ogty
;	COMDAT ?SendActMsg@CMover@@QAEHW4OBJMSG@@HHHH@Z
_TEXT	SEGMENT
_dwMsg$ = 8						; size = 4
_nParam1$ = 12						; size = 4
_nParam2$ = 16						; size = 4
_nParam3$ = 20						; size = 4
_nParam4$ = 24						; size = 4
?SendActMsg@CMover@@QAEHW4OBJMSG@@HHHH@Z PROC NEAR	; CMover::SendActMsg, COMDAT
; _this$ = ecx

; 1820 : 	if( m_pActMover )	

  00000	8b 81 3c 02 00
	00		 mov	 eax, DWORD PTR [ecx+572]
  00006	85 c0		 test	 eax, eax
  00008	74 25		 je	 SHORT $L212505

; 1821 : 		return m_pActMover->SendActMsg( dwMsg, nParam1, nParam2, nParam3, nParam4 );	

  0000a	8b 54 24 14	 mov	 edx, DWORD PTR _nParam4$[esp-4]
  0000e	6a 00		 push	 0
  00010	52		 push	 edx
  00011	8b 54 24 18	 mov	 edx, DWORD PTR _nParam3$[esp+4]
  00015	52		 push	 edx
  00016	8b 54 24 18	 mov	 edx, DWORD PTR _nParam2$[esp+8]
  0001a	52		 push	 edx
  0001b	8b 54 24 18	 mov	 edx, DWORD PTR _nParam1$[esp+12]
  0001f	52		 push	 edx
  00020	8b 54 24 18	 mov	 edx, DWORD PTR _dwMsg$[esp+16]
  00024	8b c8		 mov	 ecx, eax
  00026	8b 01		 mov	 eax, DWORD PTR [ecx]
  00028	52		 push	 edx
  00029	ff 50 04	 call	 DWORD PTR [eax+4]

; 1824 : }

  0002c	c2 14 00	 ret	 20			; 00000014H
$L212505:

; 1822 : 	else
; 1823 : 		return 0;

  0002f	33 c0		 xor	 eax, eax

; 1824 : }

  00031	c2 14 00	 ret	 20			; 00000014H
?SendActMsg@CMover@@QAEHW4OBJMSG@@HHHH@Z ENDP		; CMover::SendActMsg
_TEXT	ENDS
PUBLIC	?GetTickCount@CTickCount@@QAE_JXZ		; CTickCount::GetTickCount
EXTRN	__imp__timeGetTime@0:NEAR
; Function compile flags: /Ogty
; File c:\documents and settings\test\mes documents\source\virtuos_v17\build\program\_network\misc\include\tickcount.h
;	COMDAT ?GetTickCount@CTickCount@@QAE_JXZ
_TEXT	SEGMENT
?GetTickCount@CTickCount@@QAE_JXZ PROC NEAR		; CTickCount::GetTickCount, COMDAT
; _this$ = ecx

; 51   : {

  00000	56		 push	 esi
  00001	8b f1		 mov	 esi, ecx

; 52   : 	m_dwOffset	= timeGetTime();

  00003	ff 15 00 00 00
	00		 call	 DWORD PTR __imp__timeGetTime@0

; 53   : 	return( m_nStart + ( m_dwOffset - m_dwBase ) * 10000 );

  00009	8b 56 08	 mov	 edx, DWORD PTR [esi+8]
  0000c	8b 0e		 mov	 ecx, DWORD PTR [esi]
  0000e	89 46 0c	 mov	 DWORD PTR [esi+12], eax
  00011	2b c2		 sub	 eax, edx
  00013	69 c0 10 27 00
	00		 imul	 eax, 10000		; 00002710H
  00019	33 d2		 xor	 edx, edx
  0001b	03 c1		 add	 eax, ecx
  0001d	13 56 04	 adc	 edx, DWORD PTR [esi+4]
  00020	5e		 pop	 esi

; 54   : }

  00021	c3		 ret	 0
?GetTickCount@CTickCount@@QAE_JXZ ENDP			; CTickCount::GetTickCount
_TEXT	ENDS
PUBLIC	?GetSize@?$CFixedArray@UtagColorText@@@@QAEHXZ	; CFixedArray<tagColorText>::GetSize
; Function compile flags: /Ogty
; File c:\documents and settings\test\mes documents\source\virtuos_v17\build\program\_common\data.h
;	COMDAT ?GetSize@?$CFixedArray@UtagColorText@@@@QAEHXZ
_TEXT	SEGMENT
?GetSize@?$CFixedArray@UtagColorText@@@@QAEHXZ PROC NEAR ; CFixedArray<tagColorText>::GetSize, COMDAT
; _this$ = ecx

; 221  : 	int  GetSize() { return m_nMaxIndex; }

  00000	8b 41 18	 mov	 eax, DWORD PTR [ecx+24]
  00003	c3		 ret	 0
?GetSize@?$CFixedArray@UtagColorText@@@@QAEHXZ ENDP	; CFixedArray<tagColorText>::GetSize
_TEXT	ENDS
PUBLIC	??R?$less@K@std@@QBE_NABK0@Z			; std::less<unsigned long>::operator()
; Function compile flags: /Ogty
; File c:\program files\microsoft visual studio .net 2003\vc7\include\functional
;	COMDAT ??R?$less@K@std@@QBE_NABK0@Z
_TEXT	SEGMENT
__Left$ = 8						; size = 4
__Right$ = 12						; size = 4
??R?$less@K@std@@QBE_NABK0@Z PROC NEAR			; std::less<unsigned long>::operator(), COMDAT
; _this$ = ecx

; 139  : 		return (_Left < _Right);

  00000	8b 44 24 04	 mov	 eax, DWORD PTR __Left$[esp-4]
  00004	8b 08		 mov	 ecx, DWORD PTR [eax]
  00006	8b 54 24 08	 mov	 edx, DWORD PTR __Right$[esp-4]
  0000a	3b 0a		 cmp	 ecx, DWORD PTR [edx]
  0000c	1b c0		 sbb	 eax, eax
  0000e	f7 d8		 neg	 eax

; 140  : 		}

  00010	c2 08 00	 ret	 8
??R?$less@K@std@@QBE_NABK0@Z ENDP			; std::less<unsigned long>::operator()
_TEXT	ENDS
PUBLIC	??8const_iterator@?$_Tree@V?$_Tmap_traits@KPAVCMover@@U?$less@K@std@@V?$allocator@U?$pair@$$CBKPAVCMover@@@std@@@3@$0A@@std@@@std@@QBE_NABV012@@Z ; std::_Tree<std::_Tmap_traits<unsigned long,CMover *,std::less<unsigned long>,std::allocator<std::pair<unsigned long const ,CMover *> >,0> >::const_iterator::operator==
; Function compile flags: /Ogty
; File c:\program files\microsoft visual studio .net 2003\vc7\include\xtree
;	COMDAT ??8const_iterator@?$_Tree@V?$_Tmap_traits@KPAVCMover@@U?$less@K@std@@V?$allocator@U?$pair@$$CBKPAVCMover@@@std@@@3@$0A@@std@@@std@@QBE_NABV012@@Z
_TEXT	SEGMENT
__Right$ = 8						; size = 4
??8const_iterator@?$_Tree@V?$_Tmap_traits@KPAVCMover@@U?$less@K@std@@V?$allocator@U?$pair@$$CBKPAVCMover@@@std@@@3@$0A@@std@@@std@@QBE_NABV012@@Z PROC NEAR ; std::_Tree<std::_Tmap_traits<unsigned long,CMover *,std::less<unsigned long>,std::allocator<std::pair<unsigned long const ,CMover *> >,0> >::const_iterator::operator==, COMDAT
; _this$ = ecx

; 241  : 			return (_Ptr == _Right._Ptr);

  00000	8b 01		 mov	 eax, DWORD PTR [ecx]
  00002	8b 4c 24 04	 mov	 ecx, DWORD PTR __Right$[esp-4]
  00006	2b 01		 sub	 eax, DWORD PTR [ecx]
  00008	f7 d8		 neg	 eax
  0000a	1b c0		 sbb	 eax, eax
  0000c	40		 inc	 eax

; 242  : 			}

  0000d	c2 04 00	 ret	 4
??8const_iterator@?$_Tree@V?$_Tmap_traits@KPAVCMover@@U?$less@K@std@@V?$allocator@U?$pair@$$CBKPAVCMover@@@std@@@3@$0A@@std@@@std@@QBE_NABV012@@Z ENDP ; std::_Tree<std::_Tmap_traits<unsigned long,CMover *,std::less<unsigned long>,std::allocator<std::pair<unsigned long const ,CMover *> >,0> >::const_iterator::operator==
_TEXT	ENDS
PUBLIC	?_Mynode@const_iterator@?$_Tree@V?$_Tmap_traits@KPAVCMover@@U?$less@K@std@@V?$allocator@U?$pair@$$CBKPAVCMover@@@std@@@3@$0A@@std@@@std@@QBEPAU_Node@?$_Tree_nod@V?$_Tmap_traits@KPAVCMover@@U?$less@K@std@@V?$allocator@U?$pair@$$CBKPAVCMover@@@std@@@3@$0A@@std@@@3@XZ ; std::_Tree<std::_Tmap_traits<unsigned long,CMover *,std::less<unsigned long>,std::allocator<std::pair<unsigned long const ,CMover *> >,0> >::const_iterator::_Mynode
; Function compile flags: /Ogty
;	COMDAT ?_Mynode@const_iterator@?$_Tree@V?$_Tmap_traits@KPAVCMover@@U?$less@K@std@@V?$allocator@U?$pair@$$CBKPAVCMover@@@std@@@3@$0A@@std@@@std@@QBEPAU_Node@?$_Tree_nod@V?$_Tmap_traits@KPAVCMover@@U?$less@K@std@@V?$allocator@U?$pair@$$CBKPAVCMover@@@std@@@3@$0A@@std@@@3@XZ
_TEXT	SEGMENT
?_Mynode@const_iterator@?$_Tree@V?$_Tmap_traits@KPAVCMover@@U?$less@K@std@@V?$allocator@U?$pair@$$CBKPAVCMover@@@std@@@3@$0A@@std@@@std@@QBEPAU_Node@?$_Tree_nod@V?$_Tmap_traits@KPAVCMover@@U?$less@K@std@@V?$allocator@U?$pair@$$CBKPAVCMover@@@std@@@3@$0A@@std@@@3@XZ PROC NEAR ; std::_Tree<std::_Tmap_traits<unsigned long,CMover *,std::less<unsigned long>,std::allocator<std::pair<unsigned long const ,CMover *> >,0> >::const_iterator::_Mynode, COMDAT
; _this$ = ecx

; 284  : 			return (_Ptr);

  00000	8b 01		 mov	 eax, DWORD PTR [ecx]

; 285  : 			}

  00002	c3		 ret	 0
?_Mynode@const_iterator@?$_Tree@V?$_Tmap_traits@KPAVCMover@@U?$less@K@std@@V?$allocator@U?$pair@$$CBKPAVCMover@@@std@@@3@$0A@@std@@@std@@QBEPAU_Node@?$_Tree_nod@V?$_Tmap_traits@KPAVCMover@@U?$less@K@std@@V?$allocator@U?$pair@$$CBKPAVCMover@@@std@@@3@$0A@@std@@@3@XZ ENDP ; std::_Tree<std::_Tmap_traits<unsigned long,CMover *,std::less<unsigned long>,std::allocator<std::pair<unsigned long const ,CMover *> >,0> >::const_iterator::_Mynode
_TEXT	ENDS
PUBLIC	?_Myval@?$_Tree@V?$_Tmap_traits@KPAVCMover@@U?$less@K@std@@V?$allocator@U?$pair@$$CBKPAVCMover@@@std@@@3@$0A@@std@@@std@@KAAAU?$pair@$$CBKPAVCMover@@@2@PAU_Node@?$_Tree_nod@V?$_Tmap_traits@KPAVCMover@@U?$less@K@std@@V?$allocator@U?$pair@$$CBKPAVCMover@@@std@@@3@$0A@@std@@@2@@Z ; std::_Tree<std::_Tmap_traits<unsigned long,CMover *,std::less<unsigned long>,std::allocator<std::pair<unsigned long const ,CMover *> >,0> >::_Myval
; Function compile flags: /Ogty
;	COMDAT ?_Myval@?$_Tree@V?$_Tmap_traits@KPAVCMover@@U?$less@K@std@@V?$allocator@U?$pair@$$CBKPAVCMover@@@std@@@3@$0A@@std@@@std@@KAAAU?$pair@$$CBKPAVCMover@@@2@PAU_Node@?$_Tree_nod@V?$_Tmap_traits@KPAVCMover@@U?$less@K@std@@V?$allocator@U?$pair@$$CBKPAVCMover@@@std@@@3@$0A@@std@@@2@@Z
_TEXT	SEGMENT
__Pnode$ = 8						; size = 4
?_Myval@?$_Tree@V?$_Tmap_traits@KPAVCMover@@U?$less@K@std@@V?$allocator@U?$pair@$$CBKPAVCMover@@@std@@@3@$0A@@std@@@std@@KAAAU?$pair@$$CBKPAVCMover@@@2@PAU_Node@?$_Tree_nod@V?$_Tmap_traits@KPAVCMover@@U?$less@K@std@@V?$allocator@U?$pair@$$CBKPAVCMover@@@std@@@3@$0A@@std@@@2@@Z PROC NEAR ; std::_Tree<std::_Tmap_traits<unsigned long,CMover *,std::less<unsigned long>,std::allocator<std::pair<unsigned long const ,CMover *> >,0> >::_Myval, COMDAT

; 162  : 		return ((_Vref)(*_Pnode)._Myval);

  00000	8b 44 24 04	 mov	 eax, DWORD PTR __Pnode$[esp-4]
  00004	83 c0 0c	 add	 eax, 12			; 0000000cH

; 163  : 		}

  00007	c3		 ret	 0
?_Myval@?$_Tree@V?$_Tmap_traits@KPAVCMover@@U?$less@K@std@@V?$allocator@U?$pair@$$CBKPAVCMover@@@std@@@3@$0A@@std@@@std@@KAAAU?$pair@$$CBKPAVCMover@@@2@PAU_Node@?$_Tree_nod@V?$_Tmap_traits@KPAVCMover@@U?$less@K@std@@V?$allocator@U?$pair@$$CBKPAVCMover@@@std@@@3@$0A@@std@@@2@@Z ENDP ; std::_Tree<std::_Tmap_traits<unsigned long,CMover *,std::less<unsigned long>,std::allocator<std::pair<unsigned long const ,CMover *> >,0> >::_Myval
_TEXT	ENDS
PUBLIC	?_Kfn@?$_Tmap_traits@KPAVCMover@@U?$less@K@std@@V?$allocator@U?$pair@$$CBKPAVCMover@@@std@@@3@$0A@@std@@SAABKABU?$pair@$$CBKPAVCMover@@@2@@Z ; std::_Tmap_traits<unsigned long,CMover *,std::less<unsigned long>,std::allocator<std::pair<unsigned long const ,CMover *> >,0>::_Kfn
; Function compile flags: /Ogty
; File c:\program files\microsoft visual studio .net 2003\vc7\include\map
;	COMDAT ?_Kfn@?$_Tmap_traits@KPAVCMover@@U?$less@K@std@@V?$allocator@U?$pair@$$CBKPAVCMover@@@std@@@3@$0A@@std@@SAABKABU?$pair@$$CBKPAVCMover@@@2@@Z
_TEXT	SEGMENT
__Val$ = 8						; size = 4
?_Kfn@?$_Tmap_traits@KPAVCMover@@U?$less@K@std@@V?$allocator@U?$pair@$$CBKPAVCMover@@@std@@@3@$0A@@std@@SAABKABU?$pair@$$CBKPAVCMover@@@2@@Z PROC NEAR ; std::_Tmap_traits<unsigned long,CMover *,std::less<unsigned long>,std::allocator<std::pair<unsigned long const ,CMover *> >,0>::_Kfn, COMDAT

; 64   : 		return (_Val.first);

  00000	8b 44 24 04	 mov	 eax, DWORD PTR __Val$[esp-4]

; 65   : 		}

  00004	c3		 ret	 0
?_Kfn@?$_Tmap_traits@KPAVCMover@@U?$less@K@std@@V?$allocator@U?$pair@$$CBKPAVCMover@@@std@@@3@$0A@@std@@SAABKABU?$pair@$$CBKPAVCMover@@@2@@Z ENDP ; std::_Tmap_traits<unsigned long,CMover *,std::less<unsigned long>,std::allocator<std::pair<unsigned long const ,CMover *> >,0>::_Kfn
_TEXT	ENDS
PUBLIC	??0const_iterator@?$_Tree@V?$_Tmap_traits@KPAVCMover@@U?$less@K@std@@V?$allocator@U?$pair@$$CBKPAVCMover@@@std@@@3@$0A@@std@@@std@@QAE@PAU_Node@?$_Tree_nod@V?$_Tmap_traits@KPAVCMover@@U?$less@K@std@@V?$allocator@U?$pair@$$CBKPAVCMover@@@std@@@3@$0A@@std@@@2@@Z ; std::_Tree<std::_Tmap_traits<unsigned long,CMover *,std::less<unsigned long>,std::allocator<std::pair<unsigned long const ,CMover *> >,0> >::const_iterator::const_iterator
; Function compile flags: /Ogty
; File c:\program files\microsoft visual studio .net 2003\vc7\include\xtree
;	COMDAT ??0const_iterator@?$_Tree@V?$_Tmap_traits@KPAVCMover@@U?$less@K@std@@V?$allocator@U?$pair@$$CBKPAVCMover@@@std@@@3@$0A@@std@@@std@@QAE@PAU_Node@?$_Tree_nod@V?$_Tmap_traits@KPAVCMover@@U?$less@K@std@@V?$allocator@U?$pair@$$CBKPAVCMover@@@std@@@3@$0A@@std@@@2@@Z
_TEXT	SEGMENT
__Pnode$ = 8						; size = 4
??0const_iterator@?$_Tree@V?$_Tmap_traits@KPAVCMover@@U?$less@K@std@@V?$allocator@U?$pair@$$CBKPAVCMover@@@std@@@3@$0A@@std@@@std@@QAE@PAU_Node@?$_Tree_nod@V?$_Tmap_traits@KPAVCMover@@U?$less@K@std@@V?$allocator@U?$pair@$$CBKPAVCMover@@@std@@@3@$0A@@std@@@2@@Z PROC NEAR ; std::_Tree<std::_Tmap_traits<unsigned long,CMover *,std::less<unsigned long>,std::allocator<std::pair<unsigned long const ,CMover *> >,0> >::const_iterator::const_iterator, COMDAT
; _this$ = ecx

; 200  : 			{	// construct with node pointer _Pnode

  00000	8b c1		 mov	 eax, ecx
  00002	8b 4c 24 04	 mov	 ecx, DWORD PTR __Pnode$[esp-4]
  00006	89 08		 mov	 DWORD PTR [eax], ecx

; 201  : 			}

  00008	c2 04 00	 ret	 4
??0const_iterator@?$_Tree@V?$_Tmap_traits@KPAVCMover@@U?$less@K@std@@V?$allocator@U?$pair@$$CBKPAVCMover@@@std@@@3@$0A@@std@@@std@@QAE@PAU_Node@?$_Tree_nod@V?$_Tmap_traits@KPAVCMover@@U?$less@K@std@@V?$allocator@U?$pair@$$CBKPAVCMover@@@std@@@3@$0A@@std@@@2@@Z ENDP ; std::_Tree<std::_Tmap_traits<unsigned long,CMover *,std::less<unsigned long>,std::allocator<std::pair<unsigned long const ,CMover *> >,0> >::const_iterator::const_iterator
_TEXT	ENDS
PUBLIC	??Dconst_iterator@?$_Tree@V?$_Tmap_traits@KPAVCMover@@U?$less@K@std@@V?$allocator@U?$pair@$$CBKPAVCMover@@@std@@@3@$0A@@std@@@std@@QBEABU?$pair@$$CBKPAVCMover@@@2@XZ ; std::_Tree<std::_Tmap_traits<unsigned long,CMover *,std::less<unsigned long>,std::allocator<std::pair<unsigned long const ,CMover *> >,0> >::const_iterator::operator*
; Function compile flags: /Ogty
;	COMDAT ??Dconst_iterator@?$_Tree@V?$_Tmap_traits@KPAVCMover@@U?$less@K@std@@V?$allocator@U?$pair@$$CBKPAVCMover@@@std@@@3@$0A@@std@@@std@@QBEABU?$pair@$$CBKPAVCMover@@@2@XZ
_TEXT	SEGMENT
??Dconst_iterator@?$_Tree@V?$_Tmap_traits@KPAVCMover@@U?$less@K@std@@V?$allocator@U?$pair@$$CBKPAVCMover@@@std@@@3@$0A@@std@@@std@@QBEABU?$pair@$$CBKPAVCMover@@@2@XZ PROC NEAR ; std::_Tree<std::_Tmap_traits<unsigned long,CMover *,std::less<unsigned long>,std::allocator<std::pair<unsigned long const ,CMover *> >,0> >::const_iterator::operator*, COMDAT
; _this$ = ecx

; 205  : 			return (_Myval(_Ptr));

  00000	8b 01		 mov	 eax, DWORD PTR [ecx]
  00002	83 c0 0c	 add	 eax, 12			; 0000000cH

; 206  : 			}

  00005	c3		 ret	 0
??Dconst_iterator@?$_Tree@V?$_Tmap_traits@KPAVCMover@@U?$less@K@std@@V?$allocator@U?$pair@$$CBKPAVCMover@@@std@@@3@$0A@@std@@@std@@QBEABU?$pair@$$CBKPAVCMover@@@2@XZ ENDP ; std::_Tree<std::_Tmap_traits<unsigned long,CMover *,std::less<unsigned long>,std::allocator<std::pair<unsigned long const ,CMover *> >,0> >::const_iterator::operator*
_TEXT	ENDS
PUBLIC	?_Isnil@?$_Tree@V?$_Tmap_traits@KPAVCMover@@U?$less@K@std@@V?$allocator@U?$pair@$$CBKPAVCMover@@@std@@@3@$0A@@std@@@std@@KAAADPAU_Node@?$_Tree_nod@V?$_Tmap_traits@KPAVCMover@@U?$less@K@std@@V?$allocator@U?$pair@$$CBKPAVCMover@@@std@@@3@$0A@@std@@@2@@Z ; std::_Tree<std::_Tmap_traits<unsigned long,CMover *,std::less<unsigned long>,std::allocator<std::pair<unsigned long const ,CMover *> >,0> >::_Isnil
; Function compile flags: /Ogty
;	COMDAT ?_Isnil@?$_Tree@V?$_Tmap_traits@KPAVCMover@@U?$less@K@std@@V?$allocator@U?$pair@$$CBKPAVCMover@@@std@@@3@$0A@@std@@@std@@KAAADPAU_Node@?$_Tree_nod@V?$_Tmap_traits@KPAVCMover@@U?$less@K@std@@V?$allocator@U?$pair@$$CBKPAVCMover@@@std@@@3@$0A@@std@@@2@@Z
_TEXT	SEGMENT
__Pnode$ = 8						; size = 4
?_Isnil@?$_Tree@V?$_Tmap_traits@KPAVCMover@@U?$less@K@std@@V?$allocator@U?$pair@$$CBKPAVCMover@@@std@@@3@$0A@@std@@@std@@KAAADPAU_Node@?$_Tree_nod@V?$_Tmap_traits@KPAVCMover@@U?$less@K@std@@V?$allocator@U?$pair@$$CBKPAVCMover@@@std@@@3@$0A@@std@@@2@@Z PROC NEAR ; std::_Tree<std::_Tmap_traits<unsigned long,CMover *,std::less<unsigned long>,std::allocator<std::pair<unsigned long const ,CMover *> >,0> >::_Isnil, COMDAT

; 137  : 		return ((_Charref)(*_Pnode)._Isnil);

  00000	8b 44 24 04	 mov	 eax, DWORD PTR __Pnode$[esp-4]
  00004	83 c0 15	 add	 eax, 21			; 00000015H

; 138  : 		}

  00007	c3		 ret	 0
?_Isnil@?$_Tree@V?$_Tmap_traits@KPAVCMover@@U?$less@K@std@@V?$allocator@U?$pair@$$CBKPAVCMover@@@std@@@3@$0A@@std@@@std@@KAAADPAU_Node@?$_Tree_nod@V?$_Tmap_traits@KPAVCMover@@U?$less@K@std@@V?$allocator@U?$pair@$$CBKPAVCMover@@@std@@@3@$0A@@std@@@2@@Z ENDP ; std::_Tree<std::_Tmap_traits<unsigned long,CMover *,std::less<unsigned long>,std::allocator<std::pair<unsigned long const ,CMover *> >,0> >::_Isnil
_TEXT	ENDS
PUBLIC	?_Left@?$_Tree@V?$_Tmap_traits@KPAVCMover@@U?$less@K@std@@V?$allocator@U?$pair@$$CBKPAVCMover@@@std@@@3@$0A@@std@@@std@@KAAAPAU_Node@?$_Tree_nod@V?$_Tmap_traits@KPAVCMover@@U?$less@K@std@@V?$allocator@U?$pair@$$CBKPAVCMover@@@std@@@3@$0A@@std@@@2@PAU342@@Z ; std::_Tree<std::_Tmap_traits<unsigned long,CMover *,std::less<unsigned long>,std::allocator<std::pair<unsigned long const ,CMover *> >,0> >::_Left
; Function compile flags: /Ogty
;	COMDAT ?_Left@?$_Tree@V?$_Tmap_traits@KPAVCMover@@U?$less@K@std@@V?$allocator@U?$pair@$$CBKPAVCMover@@@std@@@3@$0A@@std@@@std@@KAAAPAU_Node@?$_Tree_nod@V?$_Tmap_traits@KPAVCMover@@U?$less@K@std@@V?$allocator@U?$pair@$$CBKPAVCMover@@@std@@@3@$0A@@std@@@2@PAU342@@Z
_TEXT	SEGMENT
__Pnode$ = 8						; size = 4
?_Left@?$_Tree@V?$_Tmap_traits@KPAVCMover@@U?$less@K@std@@V?$allocator@U?$pair@$$CBKPAVCMover@@@std@@@3@$0A@@std@@@std@@KAAAPAU_Node@?$_Tree_nod@V?$_Tmap_traits@KPAVCMover@@U?$less@K@std@@V?$allocator@U?$pair@$$CBKPAVCMover@@@std@@@3@$0A@@std@@@2@PAU342@@Z PROC NEAR ; std::_Tree<std::_Tmap_traits<unsigned long,CMover *,std::less<unsigned long>,std::allocator<std::pair<unsigned long const ,CMover *> >,0> >::_Left, COMDAT

; 147  : 		return ((_Nodepref)(*_Pnode)._Left);

  00000	8b 44 24 04	 mov	 eax, DWORD PTR __Pnode$[esp-4]

; 148  : 		}

  00004	c3		 ret	 0
?_Left@?$_Tree@V?$_Tmap_traits@KPAVCMover@@U?$less@K@std@@V?$allocator@U?$pair@$$CBKPAVCMover@@@std@@@3@$0A@@std@@@std@@KAAAPAU_Node@?$_Tree_nod@V?$_Tmap_traits@KPAVCMover@@U?$less@K@std@@V?$allocator@U?$pair@$$CBKPAVCMover@@@std@@@3@$0A@@std@@@2@PAU342@@Z ENDP ; std::_Tree<std::_Tmap_traits<unsigned long,CMover *,std::less<unsigned long>,std::allocator<std::pair<unsigned long const ,CMover *> >,0> >::_Left
_TEXT	ENDS
PUBLIC	?_Right@?$_Tree@V?$_Tmap_traits@KPAVCMover@@U?$less@K@std@@V?$allocator@U?$pair@$$CBKPAVCMover@@@std@@@3@$0A@@std@@@std@@KAAAPAU_Node@?$_Tree_nod@V?$_Tmap_traits@KPAVCMover@@U?$less@K@std@@V?$allocator@U?$pair@$$CBKPAVCMover@@@std@@@3@$0A@@std@@@2@PAU342@@Z ; std::_Tree<std::_Tmap_traits<unsigned long,CMover *,std::less<unsigned long>,std::allocator<std::pair<unsigned long const ,CMover *> >,0> >::_Right
; Function compile flags: /Ogty
;	COMDAT ?_Right@?$_Tree@V?$_Tmap_traits@KPAVCMover@@U?$less@K@std@@V?$allocator@U?$pair@$$CBKPAVCMover@@@std@@@3@$0A@@std@@@std@@KAAAPAU_Node@?$_Tree_nod@V?$_Tmap_traits@KPAVCMover@@U?$less@K@std@@V?$allocator@U?$pair@$$CBKPAVCMover@@@std@@@3@$0A@@std@@@2@PAU342@@Z
_TEXT	SEGMENT
__Pnode$ = 8						; size = 4
?_Right@?$_Tree@V?$_Tmap_traits@KPAVCMover@@U?$less@K@std@@V?$allocator@U?$pair@$$CBKPAVCMover@@@std@@@3@$0A@@std@@@std@@KAAAPAU_Node@?$_Tree_nod@V?$_Tmap_traits@KPAVCMover@@U?$less@K@std@@V?$allocator@U?$pair@$$CBKPAVCMover@@@std@@@3@$0A@@std@@@2@PAU342@@Z PROC NEAR ; std::_Tree<std::_Tmap_traits<unsigned long,CMover *,std::less<unsigned long>,std::allocator<std::pair<unsigned long const ,CMover *> >,0> >::_Right, COMDAT

; 157  : 		return ((_Nodepref)(*_Pnode)._Right);

  00000	8b 44 24 04	 mov	 eax, DWORD PTR __Pnode$[esp-4]
  00004	83 c0 08	 add	 eax, 8

; 158  : 		}

  00007	c3		 ret	 0
?_Right@?$_Tree@V?$_Tmap_traits@KPAVCMover@@U?$less@K@std@@V?$allocator@U?$pair@$$CBKPAVCMover@@@std@@@3@$0A@@std@@@std@@KAAAPAU_Node@?$_Tree_nod@V?$_Tmap_traits@KPAVCMover@@U?$less@K@std@@V?$allocator@U?$pair@$$CBKPAVCMover@@@std@@@3@$0A@@std@@@2@PAU342@@Z ENDP ; std::_Tree<std::_Tmap_traits<unsigned long,CMover *,std::less<unsigned long>,std::allocator<std::pair<unsigned long const ,CMover *> >,0> >::_Right
_TEXT	ENDS
PUBLIC	?_Parent@?$_Tree@V?$_Tmap_traits@KPAVCMover@@U?$less@K@std@@V?$allocator@U?$pair@$$CBKPAVCMover@@@std@@@3@$0A@@std@@@std@@KAAAPAU_Node@?$_Tree_nod@V?$_Tmap_traits@KPAVCMover@@U?$less@K@std@@V?$allocator@U?$pair@$$CBKPAVCMover@@@std@@@3@$0A@@std@@@2@PAU342@@Z ; std::_Tree<std::_Tmap_traits<unsigned long,CMover *,std::less<unsigned long>,std::allocator<std::pair<unsigned long const ,CMover *> >,0> >::_Parent
; Function compile flags: /Ogty
;	COMDAT ?_Parent@?$_Tree@V?$_Tmap_traits@KPAVCMover@@U?$less@K@std@@V?$allocator@U?$pair@$$CBKPAVCMover@@@std@@@3@$0A@@std@@@std@@KAAAPAU_Node@?$_Tree_nod@V?$_Tmap_traits@KPAVCMover@@U?$less@K@std@@V?$allocator@U?$pair@$$CBKPAVCMover@@@std@@@3@$0A@@std@@@2@PAU342@@Z
_TEXT	SEGMENT
__Pnode$ = 8						; size = 4
?_Parent@?$_Tree@V?$_Tmap_traits@KPAVCMover@@U?$less@K@std@@V?$allocator@U?$pair@$$CBKPAVCMover@@@std@@@3@$0A@@std@@@std@@KAAAPAU_Node@?$_Tree_nod@V?$_Tmap_traits@KPAVCMover@@U?$less@K@std@@V?$allocator@U?$pair@$$CBKPAVCMover@@@std@@@3@$0A@@std@@@2@PAU342@@Z PROC NEAR ; std::_Tree<std::_Tmap_traits<unsigned long,CMover *,std::less<unsigned long>,std::allocator<std::pair<unsigned long const ,CMover *> >,0> >::_Parent, COMDAT

; 152  : 		return ((_Nodepref)(*_Pnode)._Parent);

  00000	8b 44 24 04	 mov	 eax, DWORD PTR __Pnode$[esp-4]
  00004	83 c0 04	 add	 eax, 4

; 153  : 		}

  00007	c3		 ret	 0
?_Parent@?$_Tree@V?$_Tmap_traits@KPAVCMover@@U?$less@K@std@@V?$allocator@U?$pair@$$CBKPAVCMover@@@std@@@3@$0A@@std@@@std@@KAAAPAU_Node@?$_Tree_nod@V?$_Tmap_traits@KPAVCMover@@U?$less@K@std@@V?$allocator@U?$pair@$$CBKPAVCMover@@@std@@@3@$0A@@std@@@2@PAU342@@Z ENDP ; std::_Tree<std::_Tmap_traits<unsigned long,CMover *,std::less<unsigned long>,std::allocator<std::pair<unsigned long const ,CMover *> >,0> >::_Parent
_TEXT	ENDS
PUBLIC	?GetAt@?$CFixedArray@UtagColorText@@@@QAEPAUtagColorText@@K@Z ; CFixedArray<tagColorText>::GetAt
; Function compile flags: /Ogty
; File c:\documents and settings\test\mes documents\source\virtuos_v17\build\program\_common\data.h
;	COMDAT ?GetAt@?$CFixedArray@UtagColorText@@@@QAEPAUtagColorText@@K@Z
_TEXT	SEGMENT
_dwIndex$ = 8						; size = 4
?GetAt@?$CFixedArray@UtagColorText@@@@QAEPAUtagColorText@@K@Z PROC NEAR ; CFixedArray<tagColorText>::GetAt, COMDAT
; _this$ = ecx

; 270  : 	if( dwIndex >= (DWORD)m_nMaxIndex )

  00000	8b 44 24 04	 mov	 eax, DWORD PTR _dwIndex$[esp-4]
  00004	3b 41 18	 cmp	 eax, DWORD PTR [ecx+24]
  00007	72 05		 jb	 SHORT $L224363

; 271  : 		return NULL;

  00009	33 c0		 xor	 eax, eax

; 273  : }

  0000b	c2 04 00	 ret	 4
$L224363:

; 272  : 	return (T*) m_apOffset[ dwIndex ];

  0000e	8b 49 08	 mov	 ecx, DWORD PTR [ecx+8]
  00011	8b 04 81	 mov	 eax, DWORD PTR [ecx+eax*4]

; 273  : }

  00014	c2 04 00	 ret	 4
?GetAt@?$CFixedArray@UtagColorText@@@@QAEPAUtagColorText@@K@Z ENDP ; CFixedArray<tagColorText>::GetAt
_TEXT	ENDS
PUBLIC	??1CCoupleHelper@@UAE@XZ			; CCoupleHelper::~CCoupleHelper
; Function compile flags: /Ogty
; File c:\documents and settings\test\mes documents\source\virtuos_v17\build\program\worldserver\couplehelper.cpp
;	COMDAT ??1CCoupleHelper@@UAE@XZ
_TEXT	SEGMENT
??1CCoupleHelper@@UAE@XZ PROC NEAR			; CCoupleHelper::~CCoupleHelper, COMDAT
; _this$ = ecx

; 24   : {

  00000	56		 push	 esi
  00001	8b f1		 mov	 esi, ecx

; 25   : 	Clear();

  00003	8b 4e 04	 mov	 ecx, DWORD PTR [esi+4]
  00006	85 c9		 test	 ecx, ecx
  00008	c7 06 00 00 00
	00		 mov	 DWORD PTR [esi], OFFSET FLAT:??_7CCoupleHelper@@6B@
  0000e	74 0d		 je	 SHORT $L272481
  00010	8b 01		 mov	 eax, DWORD PTR [ecx]
  00012	6a 01		 push	 1
  00014	ff 10		 call	 DWORD PTR [eax]
  00016	c7 46 04 00 00
	00 00		 mov	 DWORD PTR [esi+4], 0
$L272481:
  0001d	5e		 pop	 esi

; 26   : }

  0001e	c3		 ret	 0
??1CCoupleHelper@@UAE@XZ ENDP				; CCoupleHelper::~CCoupleHelper
_TEXT	ENDS
PUBLIC	?PlayProposeAnimation@CCoupleHelper@@AAEXPAVCUser@@0@Z ; CCoupleHelper::PlayProposeAnimation
EXTRN	?SetAngle@CObj@@QAEXM@Z:NEAR			; CObj::SetAngle
EXTRN	?AddCreateSfxObj@CUserMng@@QAEXPAVCCtrl@@KMMMH@Z:NEAR ; CUserMng::AddCreateSfxObj
EXTRN	?AddMoverBehavior@CUserMng@@QAEXPAVCMover@@AAUD3DXVECTOR3@@1MKKKHHK_JH@Z:NEAR ; CUserMng::AddMoverBehavior
EXTRN	?g_UserMng@@3VCUserMng@@A:BYTE			; g_UserMng
EXTRN	?g_TickCount@@3VCTickCount@@A:BYTE		; g_TickCount
; Function compile flags: /Ogty
;	COMDAT ?PlayProposeAnimation@CCoupleHelper@@AAEXPAVCUser@@0@Z
_TEXT	SEGMENT
$T272485 = -24						; size = 12
$T272487 = -12						; size = 12
$T272486 = -12						; size = 12
_fAngle$ = 8						; size = 4
_pProposer$ = 8						; size = 4
_pTarget$ = 12						; size = 4
?PlayProposeAnimation@CCoupleHelper@@AAEXPAVCUser@@0@Z PROC NEAR ; CCoupleHelper::PlayProposeAnimation, COMDAT
; _this$ = ecx

; 76   : {

  00000	83 ec 18	 sub	 esp, 24			; 00000018H
  00003	53		 push	 ebx

; 77   : 	ASSERT( pProposer );
; 78   : 	ASSERT( pTarget );
; 79   : 	FLOAT fAngle	= GetDegree( pTarget->GetPos(), pProposer->GetPos());

  00004	8b 5c 24 24	 mov	 ebx, DWORD PTR _pTarget$[esp+24]
  00008	55		 push	 ebp
  00009	56		 push	 esi
  0000a	8b 74 24 28	 mov	 esi, DWORD PTR _pProposer$[esp+32]
  0000e	57		 push	 edi
  0000f	8d be 60 01 00
	00		 lea	 edi, DWORD PTR [esi+352]
  00015	8b c7		 mov	 eax, edi
  00017	8b 08		 mov	 ecx, DWORD PTR [eax]
  00019	8b 50 04	 mov	 edx, DWORD PTR [eax+4]
  0001c	8b 40 08	 mov	 eax, DWORD PTR [eax+8]
  0001f	89 4c 24 10	 mov	 DWORD PTR $T272485[esp+40], ecx
  00023	89 54 24 14	 mov	 DWORD PTR $T272485[esp+44], edx
  00027	8d 8b 60 01 00
	00		 lea	 ecx, DWORD PTR [ebx+352]
  0002d	8b 11		 mov	 edx, DWORD PTR [ecx]
  0002f	89 44 24 18	 mov	 DWORD PTR $T272485[esp+48], eax
  00033	8b 41 04	 mov	 eax, DWORD PTR [ecx+4]
  00036	8b 49 08	 mov	 ecx, DWORD PTR [ecx+8]
  00039	89 54 24 1c	 mov	 DWORD PTR $T272486[esp+40], edx
  0003d	8d 54 24 10	 lea	 edx, DWORD PTR $T272485[esp+40]
  00041	89 44 24 20	 mov	 DWORD PTR $T272486[esp+44], eax
  00045	52		 push	 edx
  00046	8d 44 24 20	 lea	 eax, DWORD PTR $T272486[esp+44]
  0004a	50		 push	 eax
  0004b	89 4c 24 2c	 mov	 DWORD PTR $T272486[esp+56], ecx
  0004f	e8 00 00 00 00	 call	 ?GetDegree@@YAMABUD3DXVECTOR3@@0@Z ; GetDegree
  00054	d9 5c 24 34	 fstp	 DWORD PTR _fAngle$[esp+44]

; 80   : 	pProposer->SetAngle( fAngle );

  00058	8b 4c 24 34	 mov	 ecx, DWORD PTR _fAngle$[esp+44]
  0005c	83 c4 08	 add	 esp, 8
  0005f	51		 push	 ecx
  00060	8b ce		 mov	 ecx, esi
  00062	e8 00 00 00 00	 call	 ?SetAngle@CObj@@QAEXM@Z	; CObj::SetAngle

; 81   : 	pProposer->SendActMsg( OBJMSG_MOTION, MTI_KNEEDOWN, ANILOOP_1PLAY );

  00067	8b 86 3c 02 00
	00		 mov	 eax, DWORD PTR [esi+572]
  0006d	85 c0		 test	 eax, eax
  0006f	74 16		 je	 SHORT $L272497
  00071	6a 00		 push	 0
  00073	6a 00		 push	 0
  00075	6a 00		 push	 0
  00077	6a 01		 push	 1
  00079	8b c8		 mov	 ecx, eax
  0007b	8b 11		 mov	 edx, DWORD PTR [ecx]
  0007d	68 88 00 00 00	 push	 136			; 00000088H
  00082	6a 2e		 push	 46			; 0000002eH
  00084	ff 52 04	 call	 DWORD PTR [edx+4]
$L272497:

; 82   : 	g_UserMng.AddCreateSfxObj( pProposer, XI_CHEERSENDEFFECT );

  00087	6a 00		 push	 0
  00089	6a 00		 push	 0
  0008b	6a 00		 push	 0
  0008d	6a 00		 push	 0
  0008f	68 b5 06 00 00	 push	 1717			; 000006b5H
  00094	56		 push	 esi
  00095	b9 00 00 00 00	 mov	 ecx, OFFSET FLAT:?g_UserMng@@3VCUserMng@@A
  0009a	e8 00 00 00 00	 call	 ?AddCreateSfxObj@CUserMng@@QAEXPAVCCtrl@@KMMMH@Z ; CUserMng::AddCreateSfxObj

; 83   : 	g_UserMng.AddCreateSfxObj( pTarget, XI_CHEERRECEIVEEFFECT );

  0009f	6a 00		 push	 0
  000a1	6a 00		 push	 0
  000a3	6a 00		 push	 0
  000a5	6a 00		 push	 0
  000a7	68 b6 06 00 00	 push	 1718			; 000006b6H
  000ac	53		 push	 ebx
  000ad	b9 00 00 00 00	 mov	 ecx, OFFSET FLAT:?g_UserMng@@3VCUserMng@@A
  000b2	e8 00 00 00 00	 call	 ?AddCreateSfxObj@CUserMng@@QAEXPAVCCtrl@@KMMMH@Z ; CUserMng::AddCreateSfxObj

; 84   : 	g_UserMng.AddMoverBehavior( pProposer, pProposer->GetPos(), pProposer->m_pActMover->m_vDelta,
; 85   : 		pProposer->GetAngle(), pProposer->m_pActMover->GetState(), pProposer->m_pActMover->GetStateFlag(), 
; 86   : 		pProposer->m_dwMotion, pProposer->m_pActMover->m_nMotionEx, pProposer->m_pModel->m_nLoop, pProposer->m_dwMotionOption, g_TickCount.GetTickCount(), TRUE );

  000b7	ff 15 00 00 00
	00		 call	 DWORD PTR __imp__timeGetTime@0
  000bd	a3 0c 00 00 00	 mov	 DWORD PTR ?g_TickCount@@3VCTickCount@@A+12, eax
  000c2	8b 17		 mov	 edx, DWORD PTR [edi]
  000c4	8b 8e 3c 02 00
	00		 mov	 ecx, DWORD PTR [esi+572]
  000ca	8b 59 08	 mov	 ebx, DWORD PTR [ecx+8]
  000cd	8b 49 04	 mov	 ecx, DWORD PTR [ecx+4]
  000d0	8b 2d 00 00 00
	00		 mov	 ebp, DWORD PTR ?g_TickCount@@3VCTickCount@@A
  000d6	89 54 24 1c	 mov	 DWORD PTR $T272487[esp+40], edx
  000da	8b 57 04	 mov	 edx, DWORD PTR [edi+4]
  000dd	89 54 24 20	 mov	 DWORD PTR $T272487[esp+44], edx
  000e1	8b 57 08	 mov	 edx, DWORD PTR [edi+8]
  000e4	2b 05 08 00 00
	00		 sub	 eax, DWORD PTR ?g_TickCount@@3VCTickCount@@A+8
  000ea	69 c0 10 27 00
	00		 imul	 eax, 10000		; 00002710H
  000f0	6a 01		 push	 1
  000f2	33 ff		 xor	 edi, edi
  000f4	03 c5		 add	 eax, ebp
  000f6	13 3d 04 00 00
	00		 adc	 edi, DWORD PTR ?g_TickCount@@3VCTickCount@@A+4
  000fc	57		 push	 edi
  000fd	50		 push	 eax
  000fe	8b 86 e0 02 00
	00		 mov	 eax, DWORD PTR [esi+736]
  00104	50		 push	 eax
  00105	8b 86 78 01 00
	00		 mov	 eax, DWORD PTR [esi+376]
  0010b	89 54 24 34	 mov	 DWORD PTR $T272487[esp+64], edx
  0010f	8b 80 b4 00 00
	00		 mov	 eax, DWORD PTR [eax+180]
  00115	8b 96 3c 02 00
	00		 mov	 edx, DWORD PTR [esi+572]
  0011b	50		 push	 eax
  0011c	8b 82 8c 00 00
	00		 mov	 eax, DWORD PTR [edx+140]
  00122	50		 push	 eax
  00123	8b 86 dc 02 00
	00		 mov	 eax, DWORD PTR [esi+732]
  00129	50		 push	 eax
  0012a	53		 push	 ebx
  0012b	51		 push	 ecx
  0012c	8b 4e 18	 mov	 ecx, DWORD PTR [esi+24]
  0012f	51		 push	 ecx
  00130	83 c2 50	 add	 edx, 80			; 00000050H
  00133	52		 push	 edx
  00134	8d 54 24 48	 lea	 edx, DWORD PTR $T272487[esp+84]
  00138	52		 push	 edx
  00139	56		 push	 esi
  0013a	b9 00 00 00 00	 mov	 ecx, OFFSET FLAT:?g_UserMng@@3VCUserMng@@A
  0013f	e8 00 00 00 00	 call	 ?AddMoverBehavior@CUserMng@@QAEXPAVCMover@@AAUD3DXVECTOR3@@1MKKKHHK_JH@Z ; CUserMng::AddMoverBehavior
  00144	5f		 pop	 edi
  00145	5e		 pop	 esi
  00146	5d		 pop	 ebp
  00147	5b		 pop	 ebx

; 87   : }

  00148	83 c4 18	 add	 esp, 24			; 00000018H
  0014b	c2 08 00	 ret	 8
?PlayProposeAnimation@CCoupleHelper@@AAEXPAVCUser@@0@Z ENDP ; CCoupleHelper::PlayProposeAnimation
_TEXT	ENDS
PUBLIC	?OnUpdatePlayerData@CCoupleHelper@@QAEXKPAU_PlayerData@@@Z ; CCoupleHelper::OnUpdatePlayerData
EXTRN	?GetUserByPlayerID@CUserMng@@QAEPAVCUser@@K@Z:NEAR ; CUserMng::GetUserByPlayerID
EXTRN	?GetPartner@CCouple@@QAEKK@Z:NEAR		; CCouple::GetPartner
EXTRN	?AddQueryPlayerData@CUser@@QAEXKPAU_PlayerData@@@Z:NEAR ; CUser::AddQueryPlayerData
; Function compile flags: /Ogty
;	COMDAT ?OnUpdatePlayerData@CCoupleHelper@@QAEXKPAU_PlayerData@@@Z
_TEXT	SEGMENT
_idPlayer$ = 8						; size = 4
_pPlayerData$ = 12					; size = 4
?OnUpdatePlayerData@CCoupleHelper@@QAEXKPAU_PlayerData@@@Z PROC NEAR ; CCoupleHelper::OnUpdatePlayerData, COMDAT
; _this$ = ecx

; 299  : 	CCouple* pCouple	= GetCouple( idPlayer );

  00000	8b 49 04	 mov	 ecx, DWORD PTR [ecx+4]
  00003	56		 push	 esi
  00004	8b 74 24 08	 mov	 esi, DWORD PTR _idPlayer$[esp]
  00008	56		 push	 esi
  00009	e8 00 00 00 00	 call	 ?GetCouple@CCoupleMgr@@QAEPAVCCouple@@K@Z ; CCoupleMgr::GetCouple

; 300  : 	if( pCouple )

  0000e	85 c0		 test	 eax, eax
  00010	74 2a		 je	 SHORT $L266717

; 301  : 	{
; 302  : 		u_long idPartner	= pCouple->GetPartner( idPlayer );

  00012	56		 push	 esi
  00013	8b c8		 mov	 ecx, eax
  00015	e8 00 00 00 00	 call	 ?GetPartner@CCouple@@QAEKK@Z ; CCouple::GetPartner

; 303  : 		CUser* pPartner		= g_UserMng.GetUserByPlayerID( idPartner );

  0001a	50		 push	 eax
  0001b	b9 00 00 00 00	 mov	 ecx, OFFSET FLAT:?g_UserMng@@3VCUserMng@@A
  00020	e8 00 00 00 00	 call	 ?GetUserByPlayerID@CUserMng@@QAEPAVCUser@@K@Z ; CUserMng::GetUserByPlayerID

; 304  : 		if( IsValidObj( pPartner ) )

  00025	85 c0		 test	 eax, eax
  00027	74 13		 je	 SHORT $L266717
  00029	f6 40 04 01	 test	 BYTE PTR [eax+4], 1
  0002d	75 0d		 jne	 SHORT $L266717

; 305  : 			pPartner->AddQueryPlayerData( idPlayer, pPlayerData );

  0002f	8b 4c 24 0c	 mov	 ecx, DWORD PTR _pPlayerData$[esp]
  00033	51		 push	 ecx
  00034	56		 push	 esi
  00035	8b c8		 mov	 ecx, eax
  00037	e8 00 00 00 00	 call	 ?AddQueryPlayerData@CUser@@QAEXKPAU_PlayerData@@@Z ; CUser::AddQueryPlayerData
$L266717:
  0003c	5e		 pop	 esi

; 306  : 	}
; 307  : }

  0003d	c2 08 00	 ret	 8
?OnUpdatePlayerData@CCoupleHelper@@QAEXKPAU_PlayerData@@@Z ENDP ; CCoupleHelper::OnUpdatePlayerData
_TEXT	ENDS
PUBLIC	??_C@_0BE@OHDBLHOM@GetText?5range_error?$AA@	; `string'
PUBLIC	??_C@_05KKCIMGE@error?$AA@			; `string'
PUBLIC	?GetText@CProject@@QAEPBDK@Z			; CProject::GetText
PUBLIC	??_C@_00CNPNBAHC@?$AA@				; `string'
;	COMDAT ??_C@_00CNPNBAHC@?$AA@
; File c:\documents and settings\test\mes documents\source\virtuos_v17\build\program\_common\data.h
CONST	SEGMENT
??_C@_00CNPNBAHC@?$AA@ DB 00H				; `string'
CONST	ENDS
;	COMDAT ??_C@_0BE@OHDBLHOM@GetText?5range_error?$AA@
CONST	SEGMENT
??_C@_0BE@OHDBLHOM@GetText?5range_error?$AA@ DB 'GetText range_error', 00H ; `string'
CONST	ENDS
;	COMDAT ??_C@_05KKCIMGE@error?$AA@
CONST	SEGMENT
??_C@_05KKCIMGE@error?$AA@ DB 'error', 00H		; `string'
; Function compile flags: /Ogty
; File c:\documents and settings\test\mes documents\source\virtuos_v17\build\program\_common\project.h
CONST	ENDS
;	COMDAT ?GetText@CProject@@QAEPBDK@Z
_TEXT	SEGMENT
_dwIndex$ = 8						; size = 4
?GetText@CProject@@QAEPBDK@Z PROC NEAR			; CProject::GetText, COMDAT
; _this$ = ecx

; 1402 : 	VERIFY_RANGE( (int)( dwIndex ), 0, m_colorText.GetSize(), "GetText range_error", "error" );

  00000	8b 44 24 04	 mov	 eax, DWORD PTR _dwIndex$[esp-4]
  00004	85 c0		 test	 eax, eax
  00006	7c 41		 jl	 SHORT $L197970
  00008	8b 91 c8 02 00
	00		 mov	 edx, DWORD PTR [ecx+712]
  0000e	3b c2		 cmp	 eax, edx
  00010	7d 37		 jge	 SHORT $L197970

; 1403 : 	if( m_colorText.GetAt( dwIndex ) == NULL )

  00012	3b c2		 cmp	 eax, edx
  00014	73 0c		 jae	 SHORT $L272564
  00016	8b 91 b8 02 00
	00		 mov	 edx, DWORD PTR [ecx+696]
  0001c	83 3c 82 00	 cmp	 DWORD PTR [edx+eax*4], 0
  00020	75 08		 jne	 SHORT $L197974
$L272564:

; 1404 : 		return "";

  00022	b8 00 00 00 00	 mov	 eax, OFFSET FLAT:??_C@_00CNPNBAHC@?$AA@

; 1406 : }

  00027	c2 04 00	 ret	 4
$L197974:

; 1405 : 	return m_colorText.GetAt( dwIndex )->lpszData; 

  0002a	3b 81 c8 02 00
	00		 cmp	 eax, DWORD PTR [ecx+712]
  00030	72 08		 jb	 SHORT $L272560
  00032	33 c0		 xor	 eax, eax
  00034	8b 40 04	 mov	 eax, DWORD PTR [eax+4]

; 1406 : }

  00037	c2 04 00	 ret	 4

; 1405 : 	return m_colorText.GetAt( dwIndex )->lpszData; 

$L272560:
  0003a	8b 89 b8 02 00
	00		 mov	 ecx, DWORD PTR [ecx+696]
  00040	8b 04 81	 mov	 eax, DWORD PTR [ecx+eax*4]
  00043	8b 40 04	 mov	 eax, DWORD PTR [eax+4]

; 1406 : }

  00046	c2 04 00	 ret	 4
$L197970:

; 1402 : 	VERIFY_RANGE( (int)( dwIndex ), 0, m_colorText.GetSize(), "GetText range_error", "error" );

  00049	8b 91 c8 02 00
	00		 mov	 edx, DWORD PTR [ecx+712]
  0004f	50		 push	 eax
  00050	52		 push	 edx
  00051	6a 00		 push	 0
  00053	68 00 00 00 00	 push	 OFFSET FLAT:??_C@_0BE@OHDBLHOM@GetText?5range_error?$AA@
  00058	68 00 00 00 00	 push	 OFFSET FLAT:??_C@_0BM@HMFGHCP@?$CFs?5min?3?$CFd?0?5max?3?$CFd?0?5index?3?$CFd?$AA@
  0005d	e8 00 00 00 00	 call	 ?Error@@YAPBDPBDZZ	; Error
  00062	83 c4 14	 add	 esp, 20			; 00000014H
  00065	b8 00 00 00 00	 mov	 eax, OFFSET FLAT:??_C@_05KKCIMGE@error?$AA@

; 1406 : }

  0006a	c2 04 00	 ret	 4
?GetText@CProject@@QAEPBDK@Z ENDP			; CProject::GetText
_TEXT	ENDS
PUBLIC	??5CAr@@QAEAAV0@AAH@Z				; CAr::operator>>
; Function compile flags: /Ogty
; File c:\documents and settings\test\mes documents\source\virtuos_v17\build\program\_network\misc\include\ar.h
;	COMDAT ??5CAr@@QAEAAV0@AAH@Z
_TEXT	SEGMENT
_i$ = 8							; size = 4
??5CAr@@QAEAAV0@AAH@Z PROC NEAR				; CAr::operator>>, COMDAT
; _this$ = ecx

; 126  : 	{ return CAr::operator>>((LONG&)i); }

  00000	8b c1		 mov	 eax, ecx
  00002	8b 48 08	 mov	 ecx, DWORD PTR [eax+8]
  00005	56		 push	 esi
  00006	8b 70 0c	 mov	 esi, DWORD PTR [eax+12]
  00009	8d 51 04	 lea	 edx, DWORD PTR [ecx+4]
  0000c	3b d6		 cmp	 edx, esi
  0000e	5e		 pop	 esi
  0000f	77 0f		 ja	 SHORT $L272571
  00011	8b 09		 mov	 ecx, DWORD PTR [ecx]
  00013	8b 54 24 04	 mov	 edx, DWORD PTR _i$[esp-4]
  00017	89 0a		 mov	 DWORD PTR [edx], ecx
  00019	83 40 08 04	 add	 DWORD PTR [eax+8], 4
  0001d	c2 04 00	 ret	 4
$L272571:
  00020	8b 4c 24 04	 mov	 ecx, DWORD PTR _i$[esp-4]
  00024	c7 01 00 00 00
	00		 mov	 DWORD PTR [ecx], 0
  0002a	8b 50 0c	 mov	 edx, DWORD PTR [eax+12]
  0002d	89 50 08	 mov	 DWORD PTR [eax+8], edx
  00030	c2 04 00	 ret	 4
??5CAr@@QAEAAV0@AAH@Z ENDP				; CAr::operator>>
_TEXT	ENDS
PUBLIC	??9const_iterator@?$_Tree@V?$_Tmap_traits@KPAVCMover@@U?$less@K@std@@V?$allocator@U?$pair@$$CBKPAVCMover@@@std@@@3@$0A@@std@@@std@@QBE_NABV012@@Z ; std::_Tree<std::_Tmap_traits<unsigned long,CMover *,std::less<unsigned long>,std::allocator<std::pair<unsigned long const ,CMover *> >,0> >::const_iterator::operator!=
; Function compile flags: /Ogty
; File c:\program files\microsoft visual studio .net 2003\vc7\include\xtree
;	COMDAT ??9const_iterator@?$_Tree@V?$_Tmap_traits@KPAVCMover@@U?$less@K@std@@V?$allocator@U?$pair@$$CBKPAVCMover@@@std@@@3@$0A@@std@@@std@@QBE_NABV012@@Z
_TEXT	SEGMENT
__Right$ = 8						; size = 4
??9const_iterator@?$_Tree@V?$_Tmap_traits@KPAVCMover@@U?$less@K@std@@V?$allocator@U?$pair@$$CBKPAVCMover@@@std@@@3@$0A@@std@@@std@@QBE_NABV012@@Z PROC NEAR ; std::_Tree<std::_Tmap_traits<unsigned long,CMover *,std::less<unsigned long>,std::allocator<std::pair<unsigned long const ,CMover *> >,0> >::const_iterator::operator!=, COMDAT
; _this$ = ecx

; 246  : 			return (!(*this == _Right));

  00000	8b 01		 mov	 eax, DWORD PTR [ecx]
  00002	8b 54 24 04	 mov	 edx, DWORD PTR __Right$[esp-4]
  00006	56		 push	 esi
  00007	8b 32		 mov	 esi, DWORD PTR [edx]
  00009	33 c9		 xor	 ecx, ecx
  0000b	3b c6		 cmp	 eax, esi
  0000d	0f 95 c1	 setne	 cl
  00010	8a c1		 mov	 al, cl
  00012	5e		 pop	 esi

; 247  : 			}

  00013	c2 04 00	 ret	 4
??9const_iterator@?$_Tree@V?$_Tmap_traits@KPAVCMover@@U?$less@K@std@@V?$allocator@U?$pair@$$CBKPAVCMover@@@std@@@3@$0A@@std@@@std@@QBE_NABV012@@Z ENDP ; std::_Tree<std::_Tmap_traits<unsigned long,CMover *,std::less<unsigned long>,std::allocator<std::pair<unsigned long const ,CMover *> >,0> >::const_iterator::operator!=
_TEXT	ENDS
PUBLIC	?_Key@?$_Tree@V?$_Tmap_traits@KPAVCMover@@U?$less@K@std@@V?$allocator@U?$pair@$$CBKPAVCMover@@@std@@@3@$0A@@std@@@std@@KAABKPAU_Node@?$_Tree_nod@V?$_Tmap_traits@KPAVCMover@@U?$less@K@std@@V?$allocator@U?$pair@$$CBKPAVCMover@@@std@@@3@$0A@@std@@@2@@Z ; std::_Tree<std::_Tmap_traits<unsigned long,CMover *,std::less<unsigned long>,std::allocator<std::pair<unsigned long const ,CMover *> >,0> >::_Key
; Function compile flags: /Ogty
;	COMDAT ?_Key@?$_Tree@V?$_Tmap_traits@KPAVCMover@@U?$less@K@std@@V?$allocator@U?$pair@$$CBKPAVCMover@@@std@@@3@$0A@@std@@@std@@KAABKPAU_Node@?$_Tree_nod@V?$_Tmap_traits@KPAVCMover@@U?$less@K@std@@V?$allocator@U?$pair@$$CBKPAVCMover@@@std@@@3@$0A@@std@@@2@@Z
_TEXT	SEGMENT
__Pnode$ = 8						; size = 4
?_Key@?$_Tree@V?$_Tmap_traits@KPAVCMover@@U?$less@K@std@@V?$allocator@U?$pair@$$CBKPAVCMover@@@std@@@3@$0A@@std@@@std@@KAABKPAU_Node@?$_Tree_nod@V?$_Tmap_traits@KPAVCMover@@U?$less@K@std@@V?$allocator@U?$pair@$$CBKPAVCMover@@@std@@@3@$0A@@std@@@2@@Z PROC NEAR ; std::_Tree<std::_Tmap_traits<unsigned long,CMover *,std::less<unsigned long>,std::allocator<std::pair<unsigned long const ,CMover *> >,0> >::_Key, COMDAT

; 142  : 		return (_Mybase::_Kfn(_Myval(_Pnode)));

  00000	8b 44 24 04	 mov	 eax, DWORD PTR __Pnode$[esp-4]
  00004	83 c0 0c	 add	 eax, 12			; 0000000cH

; 143  : 		}

  00007	c3		 ret	 0
?_Key@?$_Tree@V?$_Tmap_traits@KPAVCMover@@U?$less@K@std@@V?$allocator@U?$pair@$$CBKPAVCMover@@@std@@@3@$0A@@std@@@std@@KAABKPAU_Node@?$_Tree_nod@V?$_Tmap_traits@KPAVCMover@@U?$less@K@std@@V?$allocator@U?$pair@$$CBKPAVCMover@@@std@@@3@$0A@@std@@@2@@Z ENDP ; std::_Tree<std::_Tmap_traits<unsigned long,CMover *,std::less<unsigned long>,std::allocator<std::pair<unsigned long const ,CMover *> >,0> >::_Key
_TEXT	ENDS
PUBLIC	??0iterator@?$_Tree@V?$_Tmap_traits@KPAVCMover@@U?$less@K@std@@V?$allocator@U?$pair@$$CBKPAVCMover@@@std@@@3@$0A@@std@@@std@@QAE@PAU_Node@?$_Tree_nod@V?$_Tmap_traits@KPAVCMover@@U?$less@K@std@@V?$allocator@U?$pair@$$CBKPAVCMover@@@std@@@3@$0A@@std@@@2@@Z ; std::_Tree<std::_Tmap_traits<unsigned long,CMover *,std::less<unsigned long>,std::allocator<std::pair<unsigned long const ,CMover *> >,0> >::iterator::iterator
; Function compile flags: /Ogty
;	COMDAT ??0iterator@?$_Tree@V?$_Tmap_traits@KPAVCMover@@U?$less@K@std@@V?$allocator@U?$pair@$$CBKPAVCMover@@@std@@@3@$0A@@std@@@std@@QAE@PAU_Node@?$_Tree_nod@V?$_Tmap_traits@KPAVCMover@@U?$less@K@std@@V?$allocator@U?$pair@$$CBKPAVCMover@@@std@@@3@$0A@@std@@@2@@Z
_TEXT	SEGMENT
__Pnode$ = 8						; size = 4
??0iterator@?$_Tree@V?$_Tmap_traits@KPAVCMover@@U?$less@K@std@@V?$allocator@U?$pair@$$CBKPAVCMover@@@std@@@3@$0A@@std@@@std@@QAE@PAU_Node@?$_Tree_nod@V?$_Tmap_traits@KPAVCMover@@U?$less@K@std@@V?$allocator@U?$pair@$$CBKPAVCMover@@@std@@@3@$0A@@std@@@2@@Z PROC NEAR ; std::_Tree<std::_Tmap_traits<unsigned long,CMover *,std::less<unsigned long>,std::allocator<std::pair<unsigned long const ,CMover *> >,0> >::iterator::iterator, COMDAT
; _this$ = ecx

; 312  : 			{	// construct with node pointer _Pnode

  00000	8b c1		 mov	 eax, ecx
  00002	8b 4c 24 04	 mov	 ecx, DWORD PTR __Pnode$[esp-4]
  00006	89 08		 mov	 DWORD PTR [eax], ecx

; 313  : 			}

  00008	c2 04 00	 ret	 4
??0iterator@?$_Tree@V?$_Tmap_traits@KPAVCMover@@U?$less@K@std@@V?$allocator@U?$pair@$$CBKPAVCMover@@@std@@@3@$0A@@std@@@std@@QAE@PAU_Node@?$_Tree_nod@V?$_Tmap_traits@KPAVCMover@@U?$less@K@std@@V?$allocator@U?$pair@$$CBKPAVCMover@@@std@@@3@$0A@@std@@@2@@Z ENDP ; std::_Tree<std::_Tmap_traits<unsigned long,CMover *,std::less<unsigned long>,std::allocator<std::pair<unsigned long const ,CMover *> >,0> >::iterator::iterator
_TEXT	ENDS
PUBLIC	??Diterator@?$_Tree@V?$_Tmap_traits@KPAVCMover@@U?$less@K@std@@V?$allocator@U?$pair@$$CBKPAVCMover@@@std@@@3@$0A@@std@@@std@@QBEAAU?$pair@$$CBKPAVCMover@@@2@XZ ; std::_Tree<std::_Tmap_traits<unsigned long,CMover *,std::less<unsigned long>,std::allocator<std::pair<unsigned long const ,CMover *> >,0> >::iterator::operator*
; Function compile flags: /Ogty
;	COMDAT ??Diterator@?$_Tree@V?$_Tmap_traits@KPAVCMover@@U?$less@K@std@@V?$allocator@U?$pair@$$CBKPAVCMover@@@std@@@3@$0A@@std@@@std@@QBEAAU?$pair@$$CBKPAVCMover@@@2@XZ
_TEXT	SEGMENT
??Diterator@?$_Tree@V?$_Tmap_traits@KPAVCMover@@U?$less@K@std@@V?$allocator@U?$pair@$$CBKPAVCMover@@@std@@@3@$0A@@std@@@std@@QBEAAU?$pair@$$CBKPAVCMover@@@2@XZ PROC NEAR ; std::_Tree<std::_Tmap_traits<unsigned long,CMover *,std::less<unsigned long>,std::allocator<std::pair<unsigned long const ,CMover *> >,0> >::iterator::operator*, COMDAT
; _this$ = ecx

; 317  : 			return ((reference)**(const_iterator *)this);

  00000	8b 01		 mov	 eax, DWORD PTR [ecx]
  00002	83 c0 0c	 add	 eax, 12			; 0000000cH

; 318  : 			}

  00005	c3		 ret	 0
??Diterator@?$_Tree@V?$_Tmap_traits@KPAVCMover@@U?$less@K@std@@V?$allocator@U?$pair@$$CBKPAVCMover@@@std@@@3@$0A@@std@@@std@@QBEAAU?$pair@$$CBKPAVCMover@@@2@XZ ENDP ; std::_Tree<std::_Tmap_traits<unsigned long,CMover *,std::less<unsigned long>,std::allocator<std::pair<unsigned long const ,CMover *> >,0> >::iterator::operator*
_TEXT	ENDS
PUBLIC	?_Root@?$_Tree@V?$_Tmap_traits@KPAVCMover@@U?$less@K@std@@V?$allocator@U?$pair@$$CBKPAVCMover@@@std@@@3@$0A@@std@@@std@@IBEAAPAU_Node@?$_Tree_nod@V?$_Tmap_traits@KPAVCMover@@U?$less@K@std@@V?$allocator@U?$pair@$$CBKPAVCMover@@@std@@@3@$0A@@std@@@2@XZ ; std::_Tree<std::_Tmap_traits<unsigned long,CMover *,std::less<unsigned long>,std::allocator<std::pair<unsigned long const ,CMover *> >,0> >::_Root
; Function compile flags: /Ogty
;	COMDAT ?_Root@?$_Tree@V?$_Tmap_traits@KPAVCMover@@U?$less@K@std@@V?$allocator@U?$pair@$$CBKPAVCMover@@@std@@@3@$0A@@std@@@std@@IBEAAPAU_Node@?$_Tree_nod@V?$_Tmap_traits@KPAVCMover@@U?$less@K@std@@V?$allocator@U?$pair@$$CBKPAVCMover@@@std@@@3@$0A@@std@@@2@XZ
_TEXT	SEGMENT
?_Root@?$_Tree@V?$_Tmap_traits@KPAVCMover@@U?$less@K@std@@V?$allocator@U?$pair@$$CBKPAVCMover@@@std@@@3@$0A@@std@@@std@@IBEAAPAU_Node@?$_Tree_nod@V?$_Tmap_traits@KPAVCMover@@U?$less@K@std@@V?$allocator@U?$pair@$$CBKPAVCMover@@@std@@@3@$0A@@std@@@2@XZ PROC NEAR ; std::_Tree<std::_Tmap_traits<unsigned long,CMover *,std::less<unsigned long>,std::allocator<std::pair<unsigned long const ,CMover *> >,0> >::_Root, COMDAT
; _this$ = ecx

; 1064 : 		return (_Parent(_Myhead));

  00000	8b 41 04	 mov	 eax, DWORD PTR [ecx+4]
  00003	83 c0 04	 add	 eax, 4

; 1065 : 		}

  00006	c3		 ret	 0
?_Root@?$_Tree@V?$_Tmap_traits@KPAVCMover@@U?$less@K@std@@V?$allocator@U?$pair@$$CBKPAVCMover@@@std@@@3@$0A@@std@@@std@@IBEAAPAU_Node@?$_Tree_nod@V?$_Tmap_traits@KPAVCMover@@U?$less@K@std@@V?$allocator@U?$pair@$$CBKPAVCMover@@@std@@@3@$0A@@std@@@2@XZ ENDP ; std::_Tree<std::_Tmap_traits<unsigned long,CMover *,std::less<unsigned long>,std::allocator<std::pair<unsigned long const ,CMover *> >,0> >::_Root
; Function compile flags: /Ogty
_TEXT	ENDS
;	COMDAT ??_GCCoupleHelper@@UAEPAXI@Z
_TEXT	SEGMENT
___flags$ = 8						; size = 4
??_GCCoupleHelper@@UAEPAXI@Z PROC NEAR			; CCoupleHelper::`scalar deleting destructor', COMDAT
; _this$ = ecx
  00000	56		 push	 esi
  00001	8b f1		 mov	 esi, ecx
  00003	8b 4e 04	 mov	 ecx, DWORD PTR [esi+4]
  00006	85 c9		 test	 ecx, ecx
  00008	c7 06 00 00 00
	00		 mov	 DWORD PTR [esi], OFFSET FLAT:??_7CCoupleHelper@@6B@
  0000e	74 0d		 je	 SHORT $L272634
  00010	8b 01		 mov	 eax, DWORD PTR [ecx]
  00012	6a 01		 push	 1
  00014	ff 10		 call	 DWORD PTR [eax]
  00016	c7 46 04 00 00
	00 00		 mov	 DWORD PTR [esi+4], 0
$L272634:
  0001d	f6 44 24 08 01	 test	 BYTE PTR ___flags$[esp], 1
  00022	74 09		 je	 SHORT $L272636
  00024	56		 push	 esi
  00025	e8 00 00 00 00	 call	 ??3@YAXPAX@Z		; operator delete
  0002a	83 c4 04	 add	 esp, 4
$L272636:
  0002d	8b c6		 mov	 eax, esi
  0002f	5e		 pop	 esi
  00030	c2 04 00	 ret	 4
??_GCCoupleHelper@@UAEPAXI@Z ENDP			; CCoupleHelper::`scalar deleting destructor'
_TEXT	ENDS
PUBLIC	?Instance@CCoupleHelper@@SAPAV1@XZ		; CCoupleHelper::Instance
EXTRN	_atexit:NEAR
;	COMDAT ?sCoupleHelper@?1??Instance@CCoupleHelper@@SAPAV2@XZ@4V2@A
; File c:\documents and settings\test\mes documents\source\virtuos_v17\build\program\worldserver\couplehelper.cpp
_BSS	SEGMENT
?sCoupleHelper@?1??Instance@CCoupleHelper@@SAPAV2@XZ@4V2@A DB 010H DUP (?) ; `CCoupleHelper::Instance'::`2'::sCoupleHelper
_BSS	ENDS
;	COMDAT ?$S1@?1??Instance@CCoupleHelper@@SAPAV2@XZ@4IA
_BSS	SEGMENT
?$S1@?1??Instance@CCoupleHelper@@SAPAV2@XZ@4IA DD 01H DUP (?) ; `CCoupleHelper::Instance'::`2'::$S1
; Function compile flags: /Ogty
_BSS	ENDS
;	COMDAT ?Instance@CCoupleHelper@@SAPAV1@XZ
_TEXT	SEGMENT
?Instance@CCoupleHelper@@SAPAV1@XZ PROC NEAR		; CCoupleHelper::Instance, COMDAT

; 35   : 	static CCoupleHelper sCoupleHelper;

  00000	8a 0d 00 00 00
	00		 mov	 cl, BYTE PTR ?$S1@?1??Instance@CCoupleHelper@@SAPAV2@XZ@4IA
  00006	b8 01 00 00 00	 mov	 eax, 1
  0000b	84 c8		 test	 cl, al
  0000d	75 25		 jne	 SHORT $L272644
  0000f	8b 15 00 00 00
	00		 mov	 edx, DWORD PTR ?$S1@?1??Instance@CCoupleHelper@@SAPAV2@XZ@4IA
  00015	0b d0		 or	 edx, eax
  00017	68 00 00 00 00	 push	 OFFSET FLAT:_$E2
  0001c	89 15 00 00 00
	00		 mov	 DWORD PTR ?$S1@?1??Instance@CCoupleHelper@@SAPAV2@XZ@4IA, edx
  00022	c7 05 00 00 00
	00 00 00 00 00	 mov	 DWORD PTR ?sCoupleHelper@?1??Instance@CCoupleHelper@@SAPAV2@XZ@4V2@A, OFFSET FLAT:??_7CCoupleHelper@@6B@
  0002c	e8 00 00 00 00	 call	 _atexit
  00031	83 c4 04	 add	 esp, 4
$L272644:

; 36   : 	return &sCoupleHelper;

  00034	b8 00 00 00 00	 mov	 eax, OFFSET FLAT:?sCoupleHelper@?1??Instance@CCoupleHelper@@SAPAV2@XZ@4V2@A

; 37   : }

  00039	c3		 ret	 0
?Instance@CCoupleHelper@@SAPAV1@XZ ENDP			; CCoupleHelper::Instance
_TEXT	ENDS
PUBLIC	?end@?$_Tree@V?$_Tmap_traits@KPAVCMover@@U?$less@K@std@@V?$allocator@U?$pair@$$CBKPAVCMover@@@std@@@3@$0A@@std@@@std@@QAE?AViterator@12@XZ ; std::_Tree<std::_Tmap_traits<unsigned long,CMover *,std::less<unsigned long>,std::allocator<std::pair<unsigned long const ,CMover *> >,0> >::end
; Function compile flags: /Ogty
; File c:\program files\microsoft visual studio .net 2003\vc7\include\xtree
;	COMDAT ?end@?$_Tree@V?$_Tmap_traits@KPAVCMover@@U?$less@K@std@@V?$allocator@U?$pair@$$CBKPAVCMover@@@std@@@3@$0A@@std@@@std@@QAE?AViterator@12@XZ
_TEXT	SEGMENT
___$ReturnUdt$ = 8					; size = 4
?end@?$_Tree@V?$_Tmap_traits@KPAVCMover@@U?$less@K@std@@V?$allocator@U?$pair@$$CBKPAVCMover@@@std@@@3@$0A@@std@@@std@@QAE?AViterator@12@XZ PROC NEAR ; std::_Tree<std::_Tmap_traits<unsigned long,CMover *,std::less<unsigned long>,std::allocator<std::pair<unsigned long const ,CMover *> >,0> >::end, COMDAT
; _this$ = ecx

; 418  : 		return (_TREE_ITERATOR(_Myhead));

  00000	8b 49 04	 mov	 ecx, DWORD PTR [ecx+4]
  00003	8b 44 24 04	 mov	 eax, DWORD PTR ___$ReturnUdt$[esp-4]
  00007	89 08		 mov	 DWORD PTR [eax], ecx

; 419  : 		}

  00009	c2 04 00	 ret	 4
?end@?$_Tree@V?$_Tmap_traits@KPAVCMover@@U?$less@K@std@@V?$allocator@U?$pair@$$CBKPAVCMover@@@std@@@3@$0A@@std@@@std@@QAE?AViterator@12@XZ ENDP ; std::_Tree<std::_Tmap_traits<unsigned long,CMover *,std::less<unsigned long>,std::allocator<std::pair<unsigned long const ,CMover *> >,0> >::end
_TEXT	ENDS
PUBLIC	??Citerator@?$_Tree@V?$_Tmap_traits@KPAVCMover@@U?$less@K@std@@V?$allocator@U?$pair@$$CBKPAVCMover@@@std@@@3@$0A@@std@@@std@@QBEPAU?$pair@$$CBKPAVCMover@@@2@XZ ; std::_Tree<std::_Tmap_traits<unsigned long,CMover *,std::less<unsigned long>,std::allocator<std::pair<unsigned long const ,CMover *> >,0> >::iterator::operator->
; Function compile flags: /Ogty
;	COMDAT ??Citerator@?$_Tree@V?$_Tmap_traits@KPAVCMover@@U?$less@K@std@@V?$allocator@U?$pair@$$CBKPAVCMover@@@std@@@3@$0A@@std@@@std@@QBEPAU?$pair@$$CBKPAVCMover@@@2@XZ
_TEXT	SEGMENT
??Citerator@?$_Tree@V?$_Tmap_traits@KPAVCMover@@U?$less@K@std@@V?$allocator@U?$pair@$$CBKPAVCMover@@@std@@@3@$0A@@std@@@std@@QBEPAU?$pair@$$CBKPAVCMover@@@2@XZ PROC NEAR ; std::_Tree<std::_Tmap_traits<unsigned long,CMover *,std::less<unsigned long>,std::allocator<std::pair<unsigned long const ,CMover *> >,0> >::iterator::operator->, COMDAT
; _this$ = ecx

; 322  : 			return (&**this);

  00000	8b 01		 mov	 eax, DWORD PTR [ecx]
  00002	83 c0 0c	 add	 eax, 12			; 0000000cH

; 323  : 			}

  00005	c3		 ret	 0
??Citerator@?$_Tree@V?$_Tmap_traits@KPAVCMover@@U?$less@K@std@@V?$allocator@U?$pair@$$CBKPAVCMover@@@std@@@3@$0A@@std@@@std@@QBEPAU?$pair@$$CBKPAVCMover@@@2@XZ ENDP ; std::_Tree<std::_Tmap_traits<unsigned long,CMover *,std::less<unsigned long>,std::allocator<std::pair<unsigned long const ,CMover *> >,0> >::iterator::operator->
_TEXT	ENDS
PUBLIC	?_Lbound@?$_Tree@V?$_Tmap_traits@KPAVCMover@@U?$less@K@std@@V?$allocator@U?$pair@$$CBKPAVCMover@@@std@@@3@$0A@@std@@@std@@IBEPAU_Node@?$_Tree_nod@V?$_Tmap_traits@KPAVCMover@@U?$less@K@std@@V?$allocator@U?$pair@$$CBKPAVCMover@@@std@@@3@$0A@@std@@@2@ABK@Z ; std::_Tree<std::_Tmap_traits<unsigned long,CMover *,std::less<unsigned long>,std::allocator<std::pair<unsigned long const ,CMover *> >,0> >::_Lbound
; Function compile flags: /Ogty
;	COMDAT ?_Lbound@?$_Tree@V?$_Tmap_traits@KPAVCMover@@U?$less@K@std@@V?$allocator@U?$pair@$$CBKPAVCMover@@@std@@@3@$0A@@std@@@std@@IBEPAU_Node@?$_Tree_nod@V?$_Tmap_traits@KPAVCMover@@U?$less@K@std@@V?$allocator@U?$pair@$$CBKPAVCMover@@@std@@@3@$0A@@std@@@2@ABK@Z
_TEXT	SEGMENT
__Keyval$ = 8						; size = 4
?_Lbound@?$_Tree@V?$_Tmap_traits@KPAVCMover@@U?$less@K@std@@V?$allocator@U?$pair@$$CBKPAVCMover@@@std@@@3@$0A@@std@@@std@@IBEPAU_Node@?$_Tree_nod@V?$_Tmap_traits@KPAVCMover@@U?$less@K@std@@V?$allocator@U?$pair@$$CBKPAVCMover@@@std@@@3@$0A@@std@@@2@ABK@Z PROC NEAR ; std::_Tree<std::_Tmap_traits<unsigned long,CMover *,std::less<unsigned long>,std::allocator<std::pair<unsigned long const ,CMover *> >,0> >::_Lbound, COMDAT
; _this$ = ecx

; 988  : 		_Nodeptr _Pnode = _Root();

  00000	8b 41 04	 mov	 eax, DWORD PTR [ecx+4]
  00003	8b 48 04	 mov	 ecx, DWORD PTR [eax+4]

; 989  : 		_Nodeptr _Wherenode = _Myhead;	// end() if search fails
; 990  : 
; 991  : 		while (!_Isnil(_Pnode))

  00006	8a 51 15	 mov	 dl, BYTE PTR [ecx+21]
  00009	84 d2		 test	 dl, dl
  0000b	75 1d		 jne	 SHORT $L222610
  0000d	8b 54 24 04	 mov	 edx, DWORD PTR __Keyval$[esp-4]
  00011	8b 12		 mov	 edx, DWORD PTR [edx]
  00013	53		 push	 ebx
$L222609:

; 992  : 			if (this->comp(_Key(_Pnode), _Keyval))

  00014	39 51 0c	 cmp	 DWORD PTR [ecx+12], edx
  00017	73 05		 jae	 SHORT $L222611

; 993  : 				_Pnode = _Right(_Pnode);	// descend right subtree

  00019	8b 49 08	 mov	 ecx, DWORD PTR [ecx+8]

; 994  : 			else

  0001c	eb 04		 jmp	 SHORT $L222612
$L222611:

; 995  : 				{	// _Pnode not less than _Keyval, remember it
; 996  : 				_Wherenode = _Pnode;

  0001e	8b c1		 mov	 eax, ecx

; 997  : 				_Pnode = _Left(_Pnode);	// descend left subtree

  00020	8b 09		 mov	 ecx, DWORD PTR [ecx]
$L222612:
  00022	8a 59 15	 mov	 bl, BYTE PTR [ecx+21]
  00025	84 db		 test	 bl, bl
  00027	74 eb		 je	 SHORT $L222609
  00029	5b		 pop	 ebx
$L222610:

; 998  : 				}
; 999  : 
; 1000 : 		return (_Wherenode);	// return best remembered candidate
; 1001 : 		}

  0002a	c2 04 00	 ret	 4
?_Lbound@?$_Tree@V?$_Tmap_traits@KPAVCMover@@U?$less@K@std@@V?$allocator@U?$pair@$$CBKPAVCMover@@@std@@@3@$0A@@std@@@std@@IBEPAU_Node@?$_Tree_nod@V?$_Tmap_traits@KPAVCMover@@U?$less@K@std@@V?$allocator@U?$pair@$$CBKPAVCMover@@@std@@@3@$0A@@std@@@2@ABK@Z ENDP ; std::_Tree<std::_Tmap_traits<unsigned long,CMover *,std::less<unsigned long>,std::allocator<std::pair<unsigned long const ,CMover *> >,0> >::_Lbound
_TEXT	ENDS
PUBLIC	?lower_bound@?$_Tree@V?$_Tmap_traits@KPAVCMover@@U?$less@K@std@@V?$allocator@U?$pair@$$CBKPAVCMover@@@std@@@3@$0A@@std@@@std@@QAE?AViterator@12@ABK@Z ; std::_Tree<std::_Tmap_traits<unsigned long,CMover *,std::less<unsigned long>,std::allocator<std::pair<unsigned long const ,CMover *> >,0> >::lower_bound
; Function compile flags: /Ogty
;	COMDAT ?lower_bound@?$_Tree@V?$_Tmap_traits@KPAVCMover@@U?$less@K@std@@V?$allocator@U?$pair@$$CBKPAVCMover@@@std@@@3@$0A@@std@@@std@@QAE?AViterator@12@ABK@Z
_TEXT	SEGMENT
___$ReturnUdt$ = 8					; size = 4
__Keyval$ = 12						; size = 4
?lower_bound@?$_Tree@V?$_Tmap_traits@KPAVCMover@@U?$less@K@std@@V?$allocator@U?$pair@$$CBKPAVCMover@@@std@@@3@$0A@@std@@@std@@QAE?AViterator@12@ABK@Z PROC NEAR ; std::_Tree<std::_Tmap_traits<unsigned long,CMover *,std::less<unsigned long>,std::allocator<std::pair<unsigned long const ,CMover *> >,0> >::lower_bound, COMDAT
; _this$ = ecx

; 810  : 		return (_TREE_ITERATOR(_Lbound(_Keyval)));

  00000	8b 49 04	 mov	 ecx, DWORD PTR [ecx+4]
  00003	8b 41 04	 mov	 eax, DWORD PTR [ecx+4]
  00006	8a 50 15	 mov	 dl, BYTE PTR [eax+21]
  00009	84 d2		 test	 dl, dl
  0000b	75 1d		 jne	 SHORT $L272785
  0000d	8b 54 24 08	 mov	 edx, DWORD PTR __Keyval$[esp-4]
  00011	8b 12		 mov	 edx, DWORD PTR [edx]
  00013	53		 push	 ebx
$L272772:
  00014	39 50 0c	 cmp	 DWORD PTR [eax+12], edx
  00017	73 05		 jae	 SHORT $L272774
  00019	8b 40 08	 mov	 eax, DWORD PTR [eax+8]
  0001c	eb 04		 jmp	 SHORT $L272775
$L272774:
  0001e	8b c8		 mov	 ecx, eax
  00020	8b 00		 mov	 eax, DWORD PTR [eax]
$L272775:
  00022	8a 58 15	 mov	 bl, BYTE PTR [eax+21]
  00025	84 db		 test	 bl, bl
  00027	74 eb		 je	 SHORT $L272772
  00029	5b		 pop	 ebx
$L272785:
  0002a	8b 44 24 04	 mov	 eax, DWORD PTR ___$ReturnUdt$[esp-4]
  0002e	89 08		 mov	 DWORD PTR [eax], ecx

; 811  : 		}

  00030	c2 08 00	 ret	 8
?lower_bound@?$_Tree@V?$_Tmap_traits@KPAVCMover@@U?$less@K@std@@V?$allocator@U?$pair@$$CBKPAVCMover@@@std@@@3@$0A@@std@@@std@@QAE?AViterator@12@ABK@Z ENDP ; std::_Tree<std::_Tmap_traits<unsigned long,CMover *,std::less<unsigned long>,std::allocator<std::pair<unsigned long const ,CMover *> >,0> >::lower_bound
_TEXT	ENDS
PUBLIC	?find@?$_Tree@V?$_Tmap_traits@KPAVCMover@@U?$less@K@std@@V?$allocator@U?$pair@$$CBKPAVCMover@@@std@@@3@$0A@@std@@@std@@QAE?AViterator@12@ABK@Z ; std::_Tree<std::_Tmap_traits<unsigned long,CMover *,std::less<unsigned long>,std::allocator<std::pair<unsigned long const ,CMover *> >,0> >::find
; Function compile flags: /Ogty
;	COMDAT ?find@?$_Tree@V?$_Tmap_traits@KPAVCMover@@U?$less@K@std@@V?$allocator@U?$pair@$$CBKPAVCMover@@@std@@@3@$0A@@std@@@std@@QAE?AViterator@12@ABK@Z
_TEXT	SEGMENT
$T272792 = -4						; size = 4
___$ReturnUdt$ = 8					; size = 4
__Where$ = 12						; size = 4
__Keyval$ = 12						; size = 4
?find@?$_Tree@V?$_Tmap_traits@KPAVCMover@@U?$less@K@std@@V?$allocator@U?$pair@$$CBKPAVCMover@@@std@@@3@$0A@@std@@@std@@QAE?AViterator@12@ABK@Z PROC NEAR ; std::_Tree<std::_Tmap_traits<unsigned long,CMover *,std::less<unsigned long>,std::allocator<std::pair<unsigned long const ,CMover *> >,0> >::find, COMDAT
; _this$ = ecx

; 787  : 		{	// find an element in mutable sequence that matches _Keyval

  00000	51		 push	 ecx

; 788  : 		iterator _Where = lower_bound(_Keyval);

  00001	8b 51 04	 mov	 edx, DWORD PTR [ecx+4]
  00004	8b 42 04	 mov	 eax, DWORD PTR [edx+4]
  00007	53		 push	 ebx
  00008	8a 58 15	 mov	 bl, BYTE PTR [eax+21]
  0000b	84 db		 test	 bl, bl
  0000d	56		 push	 esi
  0000e	57		 push	 edi
  0000f	8b 7c 24 18	 mov	 edi, DWORD PTR __Keyval$[esp+12]
  00013	75 17		 jne	 SHORT $L272868
  00015	8b 37		 mov	 esi, DWORD PTR [edi]
$L272867:
  00017	39 70 0c	 cmp	 DWORD PTR [eax+12], esi
  0001a	73 05		 jae	 SHORT $L272869
  0001c	8b 40 08	 mov	 eax, DWORD PTR [eax+8]
  0001f	eb 04		 jmp	 SHORT $L272870
$L272869:
  00021	8b d0		 mov	 edx, eax
  00023	8b 00		 mov	 eax, DWORD PTR [eax]
$L272870:
  00025	8a 58 15	 mov	 bl, BYTE PTR [eax+21]
  00028	84 db		 test	 bl, bl
  0002a	74 eb		 je	 SHORT $L272867
$L272868:

; 789  : 		return (_Where == end() || this->comp(_Keyval, _Key(_Where._Mynode()))
; 790  : 			? end() : _Where);

  0002c	8b 41 04	 mov	 eax, DWORD PTR [ecx+4]
  0002f	3b d0		 cmp	 edx, eax
  00031	89 54 24 18	 mov	 DWORD PTR __Where$[esp+12], edx
  00035	74 1a		 je	 SHORT $L272791
  00037	8b 0f		 mov	 ecx, DWORD PTR [edi]
  00039	3b 4a 0c	 cmp	 ecx, DWORD PTR [edx+12]
  0003c	72 13		 jb	 SHORT $L272791
  0003e	8d 44 24 18	 lea	 eax, DWORD PTR __Where$[esp+12]
  00042	8b 10		 mov	 edx, DWORD PTR [eax]
  00044	8b 44 24 14	 mov	 eax, DWORD PTR ___$ReturnUdt$[esp+12]
  00048	5f		 pop	 edi
  00049	5e		 pop	 esi
  0004a	89 10		 mov	 DWORD PTR [eax], edx
  0004c	5b		 pop	 ebx

; 791  : 		}

  0004d	59		 pop	 ecx
  0004e	c2 08 00	 ret	 8
$L272791:

; 789  : 		return (_Where == end() || this->comp(_Keyval, _Key(_Where._Mynode()))
; 790  : 			? end() : _Where);

  00051	89 44 24 0c	 mov	 DWORD PTR $T272792[esp+16], eax
  00055	8d 44 24 0c	 lea	 eax, DWORD PTR $T272792[esp+16]
  00059	8b 10		 mov	 edx, DWORD PTR [eax]
  0005b	8b 44 24 14	 mov	 eax, DWORD PTR ___$ReturnUdt$[esp+12]
  0005f	5f		 pop	 edi
  00060	5e		 pop	 esi
  00061	89 10		 mov	 DWORD PTR [eax], edx
  00063	5b		 pop	 ebx

; 791  : 		}

  00064	59		 pop	 ecx
  00065	c2 08 00	 ret	 8
?find@?$_Tree@V?$_Tmap_traits@KPAVCMover@@U?$less@K@std@@V?$allocator@U?$pair@$$CBKPAVCMover@@@std@@@3@$0A@@std@@@std@@QAE?AViterator@12@ABK@Z ENDP ; std::_Tree<std::_Tmap_traits<unsigned long,CMover *,std::less<unsigned long>,std::allocator<std::pair<unsigned long const ,CMover *> >,0> >::find
_TEXT	ENDS
PUBLIC	?GetUserByID@CProject@@QAEPAVCMover@@K@Z	; CProject::GetUserByID
; Function compile flags: /Ogty
; File c:\documents and settings\test\mes documents\source\virtuos_v17\build\program\_common\project.h
;	COMDAT ?GetUserByID@CProject@@QAEPAVCMover@@K@Z
_TEXT	SEGMENT
_i$ = -4						; size = 4
_idPlayer$ = 8						; size = 4
?GetUserByID@CProject@@QAEPAVCMover@@K@Z PROC NEAR	; CProject::GetUserByID, COMDAT
; _this$ = ecx

; 1409 : {

  00000	51		 push	 ecx
  00001	56		 push	 esi
  00002	8b f1		 mov	 esi, ecx

; 1410 : 	map<u_long, CMover*>::iterator i = m_idPlayerToUserPtr.find( idPlayer );

  00004	8d 44 24 0c	 lea	 eax, DWORD PTR _idPlayer$[esp+4]
  00008	50		 push	 eax
  00009	8d 4c 24 08	 lea	 ecx, DWORD PTR _i$[esp+12]
  0000d	51		 push	 ecx
  0000e	8d 4e 38	 lea	 ecx, DWORD PTR [esi+56]
  00011	e8 00 00 00 00	 call	 ?find@?$_Tree@V?$_Tmap_traits@KPAVCMover@@U?$less@K@std@@V?$allocator@U?$pair@$$CBKPAVCMover@@@std@@@3@$0A@@std@@@std@@QAE?AViterator@12@ABK@Z ; std::_Tree<std::_Tmap_traits<unsigned long,CMover *,std::less<unsigned long>,std::allocator<std::pair<unsigned long const ,CMover *> >,0> >::find

; 1411 : 	if( i != m_idPlayerToUserPtr.end() )

  00016	8b 4e 3c	 mov	 ecx, DWORD PTR [esi+60]
  00019	8b 44 24 04	 mov	 eax, DWORD PTR _i$[esp+8]
  0001d	3b c1		 cmp	 eax, ecx
  0001f	5e		 pop	 esi
  00020	74 07		 je	 SHORT $L198064

; 1412 : 		return i->second;

  00022	8b 40 10	 mov	 eax, DWORD PTR [eax+16]

; 1414 : }

  00025	59		 pop	 ecx
  00026	c2 04 00	 ret	 4
$L198064:

; 1413 : 	return NULL;

  00029	33 c0		 xor	 eax, eax

; 1414 : }

  0002b	59		 pop	 ecx
  0002c	c2 04 00	 ret	 4
?GetUserByID@CProject@@QAEPAVCMover@@K@Z ENDP		; CProject::GetUserByID
_TEXT	ENDS
PUBLIC	??_C@_0BP@GPFHEIL@S?3?5CCoupleHelper?4OnPropose?3?5?$CFs?$AA@ ; `string'
PUBLIC	??_C@_02DKCKIIND@?$CFs?$AA@			; `string'
PUBLIC	?OnPropose@CCoupleHelper@@QAEXPAVCUser@@PBD@Z	; CCoupleHelper::OnPropose
EXTRN	?SendPropose@CDPDatabaseClient@@QAEXKK@Z:NEAR	; CDPDatabaseClient::SendPropose
EXTRN	?GetInstance@CPlayerDataCenter@@SAPAV1@XZ:NEAR	; CPlayerDataCenter::GetInstance
EXTRN	?GetPlayerId@CPlayerDataCenter@@QAEKPAD@Z:NEAR	; CPlayerDataCenter::GetPlayerId
EXTRN	?prj@@3VCProject@@A:BYTE			; prj
EXTRN	?AddDefinedText@CUser@@QAAXHPBDZZ:NEAR		; CUser::AddDefinedText
;	COMDAT ??_C@_0BP@GPFHEIL@S?3?5CCoupleHelper?4OnPropose?3?5?$CFs?$AA@
; File c:\documents and settings\test\mes documents\source\virtuos_v17\build\program\_common\mover.h
CONST	SEGMENT
??_C@_0BP@GPFHEIL@S?3?5CCoupleHelper?4OnPropose?3?5?$CFs?$AA@ DB 'S: CCou'
	DB	'pleHelper.OnPropose: %s', 00H		; `string'
CONST	ENDS
;	COMDAT ??_C@_02DKCKIIND@?$CFs?$AA@
CONST	SEGMENT
??_C@_02DKCKIIND@?$CFs?$AA@ DB '%s', 00H		; `string'
; Function compile flags: /Ogty
; File c:\documents and settings\test\mes documents\source\virtuos_v17\build\program\worldserver\couplehelper.cpp
CONST	ENDS
;	COMDAT ?OnPropose@CCoupleHelper@@QAEXPAVCUser@@PBD@Z
_TEXT	SEGMENT
_i$273056 = -4						; size = 4
_pUser$ = 8						; size = 4
$T273078 = 12						; size = 4
_szPlayer$ = 12						; size = 4
?OnPropose@CCoupleHelper@@QAEXPAVCUser@@PBD@Z PROC NEAR	; CCoupleHelper::OnPropose, COMDAT
; _this$ = ecx

; 48   : {

  00000	51		 push	 ecx
  00001	56		 push	 esi

; 49   : 	election::OutputDebugString( "S: CCoupleHelper.OnPropose: %s", szPlayer );

  00002	8b 74 24 10	 mov	 esi, DWORD PTR _szPlayer$[esp+4]
  00006	57		 push	 edi
  00007	56		 push	 esi
  00008	68 00 00 00 00	 push	 OFFSET FLAT:??_C@_0BP@GPFHEIL@S?3?5CCoupleHelper?4OnPropose?3?5?$CFs?$AA@
  0000d	8b f9		 mov	 edi, ecx
  0000f	e8 00 00 00 00	 call	 ?OutputDebugStringA@election@@YAXPBDZZ ; election::OutputDebugStringA
  00014	83 c4 08	 add	 esp, 8

; 50   : 	u_long idPlayer	= CPlayerDataCenter::GetInstance()->GetPlayerId( const_cast<char*>( szPlayer )  );

  00017	56		 push	 esi
  00018	e8 00 00 00 00	 call	 ?GetInstance@CPlayerDataCenter@@SAPAV1@XZ ; CPlayerDataCenter::GetInstance
  0001d	8b c8		 mov	 ecx, eax
  0001f	e8 00 00 00 00	 call	 ?GetPlayerId@CPlayerDataCenter@@QAEKPAD@Z ; CPlayerDataCenter::GetPlayerId

; 51   : 	if( idPlayer == 0 )

  00024	85 c0		 test	 eax, eax
  00026	75 1e		 jne	 SHORT $L266575

; 52   : 	{
; 53   : 		pUser->AddDefinedText( TID_GAME_COUPLE_E00, "%s", szPlayer );	//%s   .

  00028	8b 44 24 10	 mov	 eax, DWORD PTR _pUser$[esp+8]
  0002c	56		 push	 esi
  0002d	68 00 00 00 00	 push	 OFFSET FLAT:??_C@_02DKCKIIND@?$CFs?$AA@
  00032	68 c9 0f 00 00	 push	 4041			; 00000fc9H
  00037	50		 push	 eax
  00038	e8 00 00 00 00	 call	 ?AddDefinedText@CUser@@QAAXHPBDZZ ; CUser::AddDefinedText
  0003d	83 c4 10	 add	 esp, 16			; 00000010H
  00040	5f		 pop	 edi
  00041	5e		 pop	 esi

; 73   : }

  00042	59		 pop	 ecx
  00043	c2 08 00	 ret	 8
$L266575:

; 54   : 		return;
; 55   : 	}
; 56   : 	CUser* pTarget	= static_cast<CUser*>( prj.GetUserByID( idPlayer ) );

  00046	8d 4c 24 14	 lea	 ecx, DWORD PTR $T273078[esp+8]
  0004a	51		 push	 ecx
  0004b	8d 54 24 0c	 lea	 edx, DWORD PTR _i$273056[esp+16]
  0004f	52		 push	 edx
  00050	b9 38 00 00 00	 mov	 ecx, OFFSET FLAT:?prj@@3VCProject@@A+56
  00055	89 44 24 1c	 mov	 DWORD PTR $T273078[esp+16], eax
  00059	e8 00 00 00 00	 call	 ?find@?$_Tree@V?$_Tmap_traits@KPAVCMover@@U?$less@K@std@@V?$allocator@U?$pair@$$CBKPAVCMover@@@std@@@3@$0A@@std@@@std@@QAE?AViterator@12@ABK@Z ; std::_Tree<std::_Tmap_traits<unsigned long,CMover *,std::less<unsigned long>,std::allocator<std::pair<unsigned long const ,CMover *> >,0> >::find
  0005e	8b 44 24 08	 mov	 eax, DWORD PTR _i$273056[esp+12]
  00062	3b 05 3c 00 00
	00		 cmp	 eax, DWORD PTR ?prj@@3VCProject@@A+60
  00068	74 0d		 je	 SHORT $L273087
  0006a	8b 40 10	 mov	 eax, DWORD PTR [eax+16]

; 57   : 	if( !IsValidObj( pTarget ) )

  0006d	85 c0		 test	 eax, eax
  0006f	74 06		 je	 SHORT $L273087
  00071	f6 40 04 01	 test	 BYTE PTR [eax+4], 1
  00075	74 14		 je	 SHORT $L266579
$L273087:

; 58   : 	{
; 59   : 		pUser->AddDefinedText( TID_GAME_COUPLE_E00 );	//%s   .

  00077	8b 4c 24 10	 mov	 ecx, DWORD PTR _pUser$[esp+8]
  0007b	68 c9 0f 00 00	 push	 4041			; 00000fc9H
  00080	e8 00 00 00 00	 call	 ?AddDefinedText@CUser@@QAEXH@Z ; CUser::AddDefinedText
  00085	5f		 pop	 edi
  00086	5e		 pop	 esi

; 73   : }

  00087	59		 pop	 ecx
  00088	c2 08 00	 ret	 8
$L266579:

; 60   : 		return;
; 61   : 	}
; 62   : 	if( pUser == pTarget )

  0008b	8b 4c 24 10	 mov	 ecx, DWORD PTR _pUser$[esp+8]
  0008f	3b c8		 cmp	 ecx, eax

; 63   : 	{
; 64   : 		pUser->AddDefinedText( TID_GAME_COUPLE_E01 );	//   .     .
; 65   : 		return;

  00091	74 0e		 je	 SHORT $L273100

; 66   : 	}
; 67   : 	if( pUser->GetSex() == pTarget->GetSex() )

  00093	8a 91 20 06 00
	00		 mov	 dl, BYTE PTR [ecx+1568]
  00099	3a 90 20 06 00
	00		 cmp	 dl, BYTE PTR [eax+1568]
  0009f	75 10		 jne	 SHORT $L266581
$L273100:

; 68   : 	{
; 69   : 		pUser->AddDefinedText( TID_GAME_COUPLE_E01 );	//   .     .

  000a1	68 ca 0f 00 00	 push	 4042			; 00000fcaH
  000a6	e8 00 00 00 00	 call	 ?AddDefinedText@CUser@@QAEXH@Z ; CUser::AddDefinedText
  000ab	5f		 pop	 edi
  000ac	5e		 pop	 esi

; 73   : }

  000ad	59		 pop	 ecx
  000ae	c2 08 00	 ret	 8
$L266581:

; 70   : 		return;
; 71   : 	}
; 72   : 	m_pdpClient->SendPropose( pUser->m_idPlayer, pTarget->m_idPlayer );

  000b1	8b 80 38 02 00
	00		 mov	 eax, DWORD PTR [eax+568]
  000b7	8b 89 38 02 00
	00		 mov	 ecx, DWORD PTR [ecx+568]
  000bd	50		 push	 eax
  000be	51		 push	 ecx
  000bf	8b 4f 08	 mov	 ecx, DWORD PTR [edi+8]
  000c2	e8 00 00 00 00	 call	 ?SendPropose@CDPDatabaseClient@@QAEXKK@Z ; CDPDatabaseClient::SendPropose
  000c7	5f		 pop	 edi
  000c8	5e		 pop	 esi

; 73   : }

  000c9	59		 pop	 ecx
  000ca	c2 08 00	 ret	 8
?OnPropose@CCoupleHelper@@QAEXPAVCUser@@PBD@Z ENDP	; CCoupleHelper::OnPropose
_TEXT	ENDS
PUBLIC	??_C@_0DB@LJFAIJCA@S?3?5CCoupleHelper?4OnProposeResult@ ; `string'
PUBLIC	?OnProposeResult@CCoupleHelper@@QAEXAAVCAr@@@Z	; CCoupleHelper::OnProposeResult
EXTRN	?GetPlayerString@CPlayerDataCenter@@QAEPBDK@Z:NEAR ; CPlayerDataCenter::GetPlayerString
EXTRN	?AddProposeResult@CUser@@QAEXKPBD@Z:NEAR	; CUser::AddProposeResult
EXTRN	_sprintf:NEAR
EXTRN	?GetName@CMover@@QAEPBDH@Z:NEAR			; CMover::GetName
EXTRN	?AddText@CUser@@QAEXPBD@Z:NEAR			; CUser::AddText
EXTRN	___security_cookie:DWORD
EXTRN	@__security_check_cookie@4:NEAR
;	COMDAT ??_C@_0DB@LJFAIJCA@S?3?5CCoupleHelper?4OnProposeResult@
; File c:\documents and settings\test\mes documents\source\virtuos_v17\build\program\_common\data.h
CONST	SEGMENT
??_C@_0DB@LJFAIJCA@S?3?5CCoupleHelper?4OnProposeResult@ DB 'S: CCoupleHel'
	DB	'per.OnProposeResult: %d, %d, %d, %d', 00H	; `string'
; Function compile flags: /Ogty
; File c:\documents and settings\test\mes documents\source\virtuos_v17\build\program\worldserver\couplehelper.cpp
CONST	ENDS
;	COMDAT ?OnProposeResult@CCoupleHelper@@QAEXAAVCAr@@@Z
_TEXT	SEGMENT
$T273291 = -232						; size = 4
_i$273183 = -232					; size = 4
_pProposer$ = -232					; size = 4
_idTarget$ = -228					; size = 4
_i$273269 = -224					; size = 4
$T273205 = -224						; size = 4
_idProposer$ = -220					; size = 4
$T273391 = -216						; size = 4
$T273342 = -216						; size = 8
_ts$266613 = -216					; size = 8
_szText$266614 = -208					; size = 200
__$ArrayPad$ = -4					; size = 4
__$ReturnAddr$ = 4					; size = 4
_ar$ = 8						; size = 4
?OnProposeResult@CCoupleHelper@@QAEXAAVCAr@@@Z PROC NEAR ; CCoupleHelper::OnProposeResult, COMDAT
; _this$ = ecx

; 90   : {

  00000	55		 push	 ebp
  00001	8b ec		 mov	 ebp, esp
  00003	83 e4 f8	 and	 esp, -8			; fffffff8H
  00006	81 ec ec 00 00
	00		 sub	 esp, 236		; 000000ecH
  0000c	a1 00 00 00 00	 mov	 eax, DWORD PTR ___security_cookie
  00011	33 c5		 xor	 eax, ebp
  00013	89 84 24 e8 00
	00 00		 mov	 DWORD PTR __$ArrayPad$[esp+236], eax
  0001a	8b 45 08	 mov	 eax, DWORD PTR _ar$[ebp]

; 91   : 	u_long idProposer, idTarget;
; 92   : 	int nResult;
; 93   : 	time_t t;
; 94   : 	ar >> idProposer >> idTarget >> nResult >> t;

  0001d	8b 50 08	 mov	 edx, DWORD PTR [eax+8]
  00020	53		 push	 ebx
  00021	56		 push	 esi
  00022	89 4c 24 1c	 mov	 DWORD PTR $T273391[esp+244], ecx
  00026	8b 48 0c	 mov	 ecx, DWORD PTR [eax+12]
  00029	8d 72 04	 lea	 esi, DWORD PTR [edx+4]
  0002c	3b f1		 cmp	 esi, ecx
  0002e	57		 push	 edi
  0002f	77 0b		 ja	 SHORT $L273107
  00031	8b 12		 mov	 edx, DWORD PTR [edx]
  00033	89 54 24 1c	 mov	 DWORD PTR _idProposer$[esp+248], edx
  00037	89 70 08	 mov	 DWORD PTR [eax+8], esi
  0003a	eb 0b		 jmp	 SHORT $L273108
$L273107:
  0003c	c7 44 24 1c 00
	00 00 00	 mov	 DWORD PTR _idProposer$[esp+248], 0
  00044	89 48 08	 mov	 DWORD PTR [eax+8], ecx
$L273108:
  00047	8b 50 08	 mov	 edx, DWORD PTR [eax+8]
  0004a	8d 72 04	 lea	 esi, DWORD PTR [edx+4]
  0004d	3b f1		 cmp	 esi, ecx
  0004f	77 0b		 ja	 SHORT $L273112
  00051	8b 12		 mov	 edx, DWORD PTR [edx]
  00053	89 54 24 14	 mov	 DWORD PTR _idTarget$[esp+248], edx
  00057	89 70 08	 mov	 DWORD PTR [eax+8], esi
  0005a	eb 0b		 jmp	 SHORT $L273113
$L273112:
  0005c	c7 44 24 14 00
	00 00 00	 mov	 DWORD PTR _idTarget$[esp+248], 0
  00064	89 48 08	 mov	 DWORD PTR [eax+8], ecx
$L273113:
  00067	8b 50 08	 mov	 edx, DWORD PTR [eax+8]
  0006a	8d 72 04	 lea	 esi, DWORD PTR [edx+4]
  0006d	3b f1		 cmp	 esi, ecx
  0006f	77 07		 ja	 SHORT $L273124
  00071	8b 1a		 mov	 ebx, DWORD PTR [edx]
  00073	89 70 08	 mov	 DWORD PTR [eax+8], esi
  00076	eb 05		 jmp	 SHORT $L273125
$L273124:
  00078	33 db		 xor	 ebx, ebx
  0007a	89 48 08	 mov	 DWORD PTR [eax+8], ecx
$L273125:
  0007d	8b 50 08	 mov	 edx, DWORD PTR [eax+8]
  00080	8d 7a 04	 lea	 edi, DWORD PTR [edx+4]
  00083	3b f9		 cmp	 edi, ecx
  00085	77 07		 ja	 SHORT $L273129
  00087	8b 32		 mov	 esi, DWORD PTR [edx]
  00089	89 78 08	 mov	 DWORD PTR [eax+8], edi
  0008c	eb 05		 jmp	 SHORT $L273130
$L273129:
  0008e	33 f6		 xor	 esi, esi
  00090	89 48 08	 mov	 DWORD PTR [eax+8], ecx
$L273130:

; 95   : 	election::OutputDebugString( "S: CCoupleHelper.OnProposeResult: %d, %d, %d, %d", idProposer, idTarget, nResult, t );

  00093	8b 44 24 14	 mov	 eax, DWORD PTR _idTarget$[esp+248]
  00097	8b 7c 24 1c	 mov	 edi, DWORD PTR _idProposer$[esp+248]
  0009b	56		 push	 esi
  0009c	53		 push	 ebx
  0009d	50		 push	 eax
  0009e	57		 push	 edi
  0009f	68 00 00 00 00	 push	 OFFSET FLAT:??_C@_0DB@LJFAIJCA@S?3?5CCoupleHelper?4OnProposeResult@
  000a4	e8 00 00 00 00	 call	 ?OutputDebugStringA@election@@YAXPBDZZ ; election::OutputDebugStringA
  000a9	83 c4 14	 add	 esp, 20			; 00000014H

; 96   : 
; 97   : 	CUser* pProposer	= static_cast<CUser*>( prj.GetUserByID( idProposer ) );

  000ac	8d 4c 24 18	 lea	 ecx, DWORD PTR $T273205[esp+248]
  000b0	51		 push	 ecx
  000b1	8d 54 24 14	 lea	 edx, DWORD PTR _i$273183[esp+252]
  000b5	52		 push	 edx
  000b6	b9 38 00 00 00	 mov	 ecx, OFFSET FLAT:?prj@@3VCProject@@A+56
  000bb	89 7c 24 20	 mov	 DWORD PTR $T273205[esp+256], edi
  000bf	e8 00 00 00 00	 call	 ?find@?$_Tree@V?$_Tmap_traits@KPAVCMover@@U?$less@K@std@@V?$allocator@U?$pair@$$CBKPAVCMover@@@std@@@3@$0A@@std@@@std@@QAE?AViterator@12@ABK@Z ; std::_Tree<std::_Tmap_traits<unsigned long,CMover *,std::less<unsigned long>,std::allocator<std::pair<unsigned long const ,CMover *> >,0> >::find
  000c4	8b 44 24 10	 mov	 eax, DWORD PTR _i$273183[esp+248]
  000c8	3b 05 3c 00 00
	00		 cmp	 eax, DWORD PTR ?prj@@3VCProject@@A+60
  000ce	0f 84 cb 01 00
	00		 je	 $L266616
  000d4	8b 78 10	 mov	 edi, DWORD PTR [eax+16]

; 98   : 	if( !IsValidObj( pProposer ) )

  000d7	85 ff		 test	 edi, edi
  000d9	89 7c 24 10	 mov	 DWORD PTR _pProposer$[esp+248], edi
  000dd	0f 84 bc 01 00
	00		 je	 $L266616
  000e3	f6 47 04 01	 test	 BYTE PTR [edi+4], 1
  000e7	0f 85 b2 01 00
	00		 jne	 $L266616

; 99   : 		return;
; 100  : 
; 101  : 	if( nResult == 0 )

  000ed	85 db		 test	 ebx, ebx
  000ef	0f 85 a1 00 00
	00		 jne	 $L266605

; 102  : 	{
; 103  : 		CUser* pTarget	= static_cast<CUser*>( prj.GetUserByID( idTarget ) );

  000f5	8b 44 24 14	 mov	 eax, DWORD PTR _idTarget$[esp+248]
  000f9	8d 4c 24 10	 lea	 ecx, DWORD PTR $T273291[esp+248]
  000fd	51		 push	 ecx
  000fe	8d 54 24 1c	 lea	 edx, DWORD PTR _i$273269[esp+252]
  00102	52		 push	 edx
  00103	b9 38 00 00 00	 mov	 ecx, OFFSET FLAT:?prj@@3VCProject@@A+56
  00108	89 44 24 18	 mov	 DWORD PTR $T273291[esp+256], eax
  0010c	e8 00 00 00 00	 call	 ?find@?$_Tree@V?$_Tmap_traits@KPAVCMover@@U?$less@K@std@@V?$allocator@U?$pair@$$CBKPAVCMover@@@std@@@3@$0A@@std@@@std@@QAE?AViterator@12@ABK@Z ; std::_Tree<std::_Tmap_traits<unsigned long,CMover *,std::less<unsigned long>,std::allocator<std::pair<unsigned long const ,CMover *> >,0> >::find
  00111	8b 44 24 18	 mov	 eax, DWORD PTR _i$273269[esp+248]
  00115	3b 05 3c 00 00
	00		 cmp	 eax, DWORD PTR ?prj@@3VCProject@@A+60
  0011b	74 34		 je	 SHORT $L266608
  0011d	8b 70 10	 mov	 esi, DWORD PTR [eax+16]

; 104  : 		if( IsValidObj( pTarget ) )

  00120	85 f6		 test	 esi, esi
  00122	74 2d		 je	 SHORT $L266608
  00124	f6 46 04 01	 test	 BYTE PTR [esi+4], 1
  00128	75 27		 jne	 SHORT $L266608

; 105  : 		{
; 106  : 			pTarget->SetProposer( idProposer );

  0012a	8b 5c 24 1c	 mov	 ebx, DWORD PTR _idProposer$[esp+248]

; 107  : 			pTarget->AddProposeResult( idProposer, pProposer->GetName() );

  0012e	6a 00		 push	 0
  00130	8b cf		 mov	 ecx, edi
  00132	89 9e b8 96 00
	00		 mov	 DWORD PTR [esi+38584], ebx
  00138	e8 00 00 00 00	 call	 ?GetName@CMover@@QAEPBDH@Z ; CMover::GetName
  0013d	50		 push	 eax
  0013e	53		 push	 ebx
  0013f	8b ce		 mov	 ecx, esi
  00141	e8 00 00 00 00	 call	 ?AddProposeResult@CUser@@QAEXKPBD@Z ; CUser::AddProposeResult

; 108  : 			PlayProposeAnimation( pProposer, pTarget );

  00146	8b 4c 24 20	 mov	 ecx, DWORD PTR $T273391[esp+248]
  0014a	56		 push	 esi
  0014b	57		 push	 edi
  0014c	e8 00 00 00 00	 call	 ?PlayProposeAnimation@CCoupleHelper@@AAEXPAVCUser@@0@Z ; CCoupleHelper::PlayProposeAnimation
$L266608:

; 109  : 		}
; 110  : 		const char* pszTarget	= CPlayerDataCenter::GetInstance()->GetPlayerString( idTarget );	

  00151	8b 44 24 14	 mov	 eax, DWORD PTR _idTarget$[esp+248]
  00155	50		 push	 eax
  00156	e8 00 00 00 00	 call	 ?GetInstance@CPlayerDataCenter@@SAPAV1@XZ ; CPlayerDataCenter::GetInstance
  0015b	8b c8		 mov	 ecx, eax
  0015d	e8 00 00 00 00	 call	 ?GetPlayerString@CPlayerDataCenter@@QAEPBDK@Z ; CPlayerDataCenter::GetPlayerString

; 111  : 		if( !pszTarget )

  00162	85 c0		 test	 eax, eax
  00164	75 05		 jne	 SHORT $L266610

; 112  : 			pszTarget	= "";

  00166	b8 00 00 00 00	 mov	 eax, OFFSET FLAT:??_C@_00CNPNBAHC@?$AA@
$L266610:

; 113  : 		pProposer->AddDefinedText( TID_GAME_COUPLE_S01, "%s", pszTarget );	// %s  .

  0016b	50		 push	 eax
  0016c	68 00 00 00 00	 push	 OFFSET FLAT:??_C@_02DKCKIIND@?$CFs?$AA@
  00171	68 d0 0f 00 00	 push	 4048			; 00000fd0H
  00176	57		 push	 edi
  00177	e8 00 00 00 00	 call	 ?AddDefinedText@CUser@@QAAXHPBDZZ ; CUser::AddDefinedText
  0017c	83 c4 10	 add	 esp, 16			; 00000010H

; 127  : 	}
; 128  : }

  0017f	5f		 pop	 edi
  00180	5e		 pop	 esi
  00181	5b		 pop	 ebx
  00182	8b 8c 24 e8 00
	00 00		 mov	 ecx, DWORD PTR __$ArrayPad$[esp+236]
  00189	33 cd		 xor	 ecx, ebp
  0018b	e8 00 00 00 00	 call	 @__security_check_cookie@4
  00190	8b e5		 mov	 esp, ebp
  00192	5d		 pop	 ebp
  00193	c2 04 00	 ret	 4
$L266605:

; 114  : 	}
; 115  : 	else
; 116  : 	{
; 117  : 		if( t > 0 )

  00196	85 f6		 test	 esi, esi
  00198	0f 8e f9 00 00
	00		 jle	 $L266612

; 118  : 		{
; 119  : 			CTimeSpan ts( t );

  0019e	8b c6		 mov	 eax, esi
  001a0	99		 cdq
  001a1	8b d8		 mov	 ebx, eax

; 120  : 			char szText[200]	= { 0,};

  001a3	33 c0		 xor	 eax, eax
  001a5	c6 44 24 28 00	 mov	 BYTE PTR _szText$266614[esp+248], 0
  001aa	b9 31 00 00 00	 mov	 ecx, 49			; 00000031H
  001af	8d 7c 24 29	 lea	 edi, DWORD PTR _szText$266614[esp+249]
  001b3	f3 ab		 rep stosd

; 121  : 			//  %d %d %d   .
; 122  : 			sprintf( szText, prj.GetText( TID_GAME_COUPLE_M00 ), static_cast<int>( ts.GetDays() ), ts.GetHours(), ts.GetMinutes() );

  001b5	6a 00		 push	 0
  001b7	68 10 0e 00 00	 push	 3600			; 00000e10H
  001bc	66 ab		 stosw
  001be	52		 push	 edx
  001bf	53		 push	 ebx
  001c0	89 54 24 34	 mov	 DWORD PTR _ts$266613[esp+268], edx
  001c4	aa		 stosb
  001c5	e8 00 00 00 00	 call	 __alldiv
  001ca	8b 4c 24 24	 mov	 ecx, DWORD PTR _ts$266613[esp+252]
  001ce	6a 00		 push	 0
  001d0	6a 3c		 push	 60			; 0000003cH
  001d2	51		 push	 ecx
  001d3	53		 push	 ebx
  001d4	8b f0		 mov	 esi, eax
  001d6	e8 00 00 00 00	 call	 __alldiv
  001db	8b d6		 mov	 edx, esi
  001dd	6b d2 3c	 imul	 edx, 60			; 0000003cH
  001e0	6a 00		 push	 0
  001e2	8b f8		 mov	 edi, eax
  001e4	8b 44 24 28	 mov	 eax, DWORD PTR _ts$266613[esp+256]
  001e8	68 80 51 01 00	 push	 86400			; 00015180H
  001ed	50		 push	 eax
  001ee	53		 push	 ebx
  001ef	2b fa		 sub	 edi, edx
  001f1	e8 00 00 00 00	 call	 __alldiv
  001f6	8d 0c 40	 lea	 ecx, DWORD PTR [eax+eax*2]
  001f9	c1 e1 03	 shl	 ecx, 3
  001fc	8b d8		 mov	 ebx, eax
  001fe	a1 c8 02 00 00	 mov	 eax, DWORD PTR ?prj@@3VCProject@@A+712
  00203	2b f1		 sub	 esi, ecx
  00205	3d d7 0f 00 00	 cmp	 eax, 4055		; 00000fd7H
  0020a	89 54 24 24	 mov	 DWORD PTR $T273342[esp+252], edx
  0020e	7e 32		 jle	 SHORT $L273373
  00210	76 10		 jbe	 SHORT $L273395
  00212	8b 0d b8 02 00
	00		 mov	 ecx, DWORD PTR ?prj@@3VCProject@@A+696
  00218	8b 91 5c 3f 00
	00		 mov	 edx, DWORD PTR [ecx+16220]
  0021e	85 d2		 test	 edx, edx
  00220	75 07		 jne	 SHORT $L273374
$L273395:
  00222	b8 00 00 00 00	 mov	 eax, OFFSET FLAT:??_C@_00CNPNBAHC@?$AA@
  00227	eb 38		 jmp	 SHORT $L273368
$L273374:
  00229	3d d7 0f 00 00	 cmp	 eax, 4055		; 00000fd7H
  0022e	77 07		 ja	 SHORT $L273387
  00230	33 c0		 xor	 eax, eax
  00232	8b 40 04	 mov	 eax, DWORD PTR [eax+4]
  00235	eb 2a		 jmp	 SHORT $L273368
$L273387:
  00237	8b 81 5c 3f 00
	00		 mov	 eax, DWORD PTR [ecx+16220]
  0023d	8b 40 04	 mov	 eax, DWORD PTR [eax+4]
  00240	eb 1f		 jmp	 SHORT $L273368
$L273373:
  00242	68 d7 0f 00 00	 push	 4055			; 00000fd7H
  00247	50		 push	 eax
  00248	6a 00		 push	 0
  0024a	68 00 00 00 00	 push	 OFFSET FLAT:??_C@_0BE@OHDBLHOM@GetText?5range_error?$AA@
  0024f	68 00 00 00 00	 push	 OFFSET FLAT:??_C@_0BM@HMFGHCP@?$CFs?5min?3?$CFd?0?5max?3?$CFd?0?5index?3?$CFd?$AA@
  00254	e8 00 00 00 00	 call	 ?Error@@YAPBDPBDZZ	; Error
  00259	83 c4 14	 add	 esp, 20			; 00000014H
  0025c	b8 00 00 00 00	 mov	 eax, OFFSET FLAT:??_C@_05KKCIMGE@error?$AA@
$L273368:
  00261	57		 push	 edi
  00262	56		 push	 esi
  00263	53		 push	 ebx
  00264	50		 push	 eax
  00265	8d 54 24 38	 lea	 edx, DWORD PTR _szText$266614[esp+264]
  00269	52		 push	 edx
  0026a	e8 00 00 00 00	 call	 _sprintf

; 123  : 			pProposer->AddText( szText );

  0026f	8b 4c 24 24	 mov	 ecx, DWORD PTR _pProposer$[esp+268]
  00273	83 c4 14	 add	 esp, 20			; 00000014H
  00276	8d 44 24 28	 lea	 eax, DWORD PTR _szText$266614[esp+248]
  0027a	50		 push	 eax
  0027b	e8 00 00 00 00	 call	 ?AddText@CUser@@QAEXPBD@Z ; CUser::AddText

; 127  : 	}
; 128  : }

  00280	5f		 pop	 edi
  00281	5e		 pop	 esi
  00282	5b		 pop	 ebx
  00283	8b 8c 24 e8 00
	00 00		 mov	 ecx, DWORD PTR __$ArrayPad$[esp+236]
  0028a	33 cd		 xor	 ecx, ebp
  0028c	e8 00 00 00 00	 call	 @__security_check_cookie@4
  00291	8b e5		 mov	 esp, ebp
  00293	5d		 pop	 ebp
  00294	c2 04 00	 ret	 4
$L266612:

; 124  : 		}
; 125  : 		else
; 126  : 			pProposer->AddDefinedText( nResult );

  00297	53		 push	 ebx
  00298	8b cf		 mov	 ecx, edi
  0029a	e8 00 00 00 00	 call	 ?AddDefinedText@CUser@@QAEXH@Z ; CUser::AddDefinedText
$L266616:

; 127  : 	}
; 128  : }

  0029f	8b 8c 24 f4 00
	00 00		 mov	 ecx, DWORD PTR __$ArrayPad$[esp+248]
  002a6	5f		 pop	 edi
  002a7	5e		 pop	 esi
  002a8	33 cd		 xor	 ecx, ebp
  002aa	5b		 pop	 ebx
  002ab	e8 00 00 00 00	 call	 @__security_check_cookie@4
  002b0	8b e5		 mov	 esp, ebp
  002b2	5d		 pop	 ebp
  002b3	c2 04 00	 ret	 4
?OnProposeResult@CCoupleHelper@@QAEXAAVCAr@@@Z ENDP	; CCoupleHelper::OnProposeResult
_TEXT	ENDS
PUBLIC	??_C@_0BK@HCCAGLJM@S?3?5CCoupleHelper?4OnRefuse?$AA@ ; `string'
PUBLIC	?OnRefuse@CCoupleHelper@@QAEXPAVCUser@@@Z	; CCoupleHelper::OnRefuse
;	COMDAT ??_C@_0BK@HCCAGLJM@S?3?5CCoupleHelper?4OnRefuse?$AA@
; File c:\documents and settings\test\mes documents\source\virtuos_v17\build\program\worldserver\user.h
CONST	SEGMENT
??_C@_0BK@HCCAGLJM@S?3?5CCoupleHelper?4OnRefuse?$AA@ DB 'S: CCoupleHelper'
	DB	'.OnRefuse', 00H				; `string'
; Function compile flags: /Ogty
; File c:\documents and settings\test\mes documents\source\virtuos_v17\build\program\worldserver\couplehelper.cpp
CONST	ENDS
;	COMDAT ?OnRefuse@CCoupleHelper@@QAEXPAVCUser@@@Z
_TEXT	SEGMENT
_i$273481 = -4						; size = 4
$T273483 = 8						; size = 4
_pUser$ = 8						; size = 4
?OnRefuse@CCoupleHelper@@QAEXPAVCUser@@@Z PROC NEAR	; CCoupleHelper::OnRefuse, COMDAT
; _this$ = ecx

; 131  : {

  00000	51		 push	 ecx
  00001	56		 push	 esi

; 132  : 	election::OutputDebugString( "S: CCoupleHelper.OnRefuse" );

  00002	68 00 00 00 00	 push	 OFFSET FLAT:??_C@_0BK@HCCAGLJM@S?3?5CCoupleHelper?4OnRefuse?$AA@
  00007	e8 00 00 00 00	 call	 ?OutputDebugStringA@election@@YAXPBDZZ ; election::OutputDebugStringA

; 133  : 	if( pUser->GetProposer() == 0 )

  0000c	8b 74 24 10	 mov	 esi, DWORD PTR _pUser$[esp+8]
  00010	8b 86 b8 96 00
	00		 mov	 eax, DWORD PTR [esi+38584]
  00016	83 c4 04	 add	 esp, 4
  00019	85 c0		 test	 eax, eax
  0001b	75 11		 jne	 SHORT $L266622

; 134  : 	{
; 135  : 		pUser->AddDefinedText( TID_GAME_COUPLE_E02 );	//    .

  0001d	68 cb 0f 00 00	 push	 4043			; 00000fcbH
  00022	8b ce		 mov	 ecx, esi
  00024	e8 00 00 00 00	 call	 ?AddDefinedText@CUser@@QAEXH@Z ; CUser::AddDefinedText
  00029	5e		 pop	 esi

; 145  : }

  0002a	59		 pop	 ecx
  0002b	c2 04 00	 ret	 4
$L266622:

; 136  : 		return;
; 137  : 	}
; 138  : 	CUser* pProposer	= static_cast<CUser*>( prj.GetUserByID( pUser->GetProposer() ) );

  0002e	89 44 24 0c	 mov	 DWORD PTR $T273483[esp+4], eax
  00032	8d 44 24 0c	 lea	 eax, DWORD PTR $T273483[esp+4]
  00036	50		 push	 eax
  00037	8d 4c 24 08	 lea	 ecx, DWORD PTR _i$273481[esp+12]
  0003b	51		 push	 ecx
  0003c	b9 38 00 00 00	 mov	 ecx, OFFSET FLAT:?prj@@3VCProject@@A+56
  00041	e8 00 00 00 00	 call	 ?find@?$_Tree@V?$_Tmap_traits@KPAVCMover@@U?$less@K@std@@V?$allocator@U?$pair@$$CBKPAVCMover@@@std@@@3@$0A@@std@@@std@@QAE?AViterator@12@ABK@Z ; std::_Tree<std::_Tmap_traits<unsigned long,CMover *,std::less<unsigned long>,std::allocator<std::pair<unsigned long const ,CMover *> >,0> >::find
  00046	8b 44 24 04	 mov	 eax, DWORD PTR _i$273481[esp+8]
  0004a	3b 05 3c 00 00
	00		 cmp	 eax, DWORD PTR ?prj@@3VCProject@@A+60
  00050	74 17		 je	 SHORT $L266625
  00052	8b 48 10	 mov	 ecx, DWORD PTR [eax+16]

; 139  : 	if( IsValidObj( pProposer ) )

  00055	85 c9		 test	 ecx, ecx
  00057	74 10		 je	 SHORT $L266625
  00059	f6 41 04 01	 test	 BYTE PTR [ecx+4], 1
  0005d	75 0a		 jne	 SHORT $L266625

; 140  : 		pProposer->AddDefinedText( TID_GAME_COUPLE_E03 );	//    . 

  0005f	68 cc 0f 00 00	 push	 4044			; 00000fccH
  00064	e8 00 00 00 00	 call	 ?AddDefinedText@CUser@@QAEXH@Z ; CUser::AddDefinedText
$L266625:

; 141  : 	const char* pszProposer	= CPlayerDataCenter::GetInstance()->GetPlayerString( pUser->GetProposer() );

  00069	8b 86 b8 96 00
	00		 mov	 eax, DWORD PTR [esi+38584]
  0006f	50		 push	 eax
  00070	e8 00 00 00 00	 call	 ?GetInstance@CPlayerDataCenter@@SAPAV1@XZ ; CPlayerDataCenter::GetInstance
  00075	8b c8		 mov	 ecx, eax
  00077	e8 00 00 00 00	 call	 ?GetPlayerString@CPlayerDataCenter@@QAEPBDK@Z ; CPlayerDataCenter::GetPlayerString

; 142  : 	if( pszProposer )

  0007c	85 c0		 test	 eax, eax
  0007e	74 14		 je	 SHORT $L266627

; 143  : 		pUser->AddDefinedText( TID_GAME_COUPLE_E04, "%s", pszProposer );	// %s   .

  00080	50		 push	 eax
  00081	68 00 00 00 00	 push	 OFFSET FLAT:??_C@_02DKCKIIND@?$CFs?$AA@
  00086	68 cd 0f 00 00	 push	 4045			; 00000fcdH
  0008b	56		 push	 esi
  0008c	e8 00 00 00 00	 call	 ?AddDefinedText@CUser@@QAAXHPBDZZ ; CUser::AddDefinedText
  00091	83 c4 10	 add	 esp, 16			; 00000010H
$L266627:

; 144  : 	pUser->SetProposer( 0 );

  00094	c7 86 b8 96 00
	00 00 00 00 00	 mov	 DWORD PTR [esi+38584], 0
  0009e	5e		 pop	 esi

; 145  : }

  0009f	59		 pop	 ecx
  000a0	c2 04 00	 ret	 4
?OnRefuse@CCoupleHelper@@QAEXPAVCUser@@@Z ENDP		; CCoupleHelper::OnRefuse
_TEXT	ENDS
PUBLIC	??_C@_0CM@GDLPIJML@S?3?5CCoupleHelper?4OnCoupleResult?3@ ; `string'
PUBLIC	?OnCoupleResult@CCoupleHelper@@QAEXAAVCAr@@@Z	; CCoupleHelper::OnCoupleResult
EXTRN	?AddCoupleResult@CUser@@QAEXKPBD@Z:NEAR		; CUser::AddCoupleResult
EXTRN	?Couple@CCoupleMgr@@QAEXKK@Z:NEAR		; CCoupleMgr::Couple
EXTRN	?SetHonorAdd@CMover@@QAEXHHH@Z:NEAR		; CMover::SetHonorAdd
;	COMDAT ??_C@_0CM@GDLPIJML@S?3?5CCoupleHelper?4OnCoupleResult?3@
; File c:\documents and settings\test\mes documents\source\virtuos_v17\build\program\_common\obj.h
CONST	SEGMENT
??_C@_0CM@GDLPIJML@S?3?5CCoupleHelper?4OnCoupleResult?3@ DB 'S: CCoupleHe'
	DB	'lper.OnCoupleResult: %d, %d, %d', 00H	; `string'
; Function compile flags: /Ogty
; File c:\documents and settings\test\mes documents\source\virtuos_v17\build\program\worldserver\couplehelper.cpp
CONST	ENDS
;	COMDAT ?OnCoupleResult@CCoupleHelper@@QAEXAAVCAr@@@Z
_TEXT	SEGMENT
_nResult$ = -16						; size = 4
_i$273674 = -12						; size = 4
$T273602 = -12						; size = 4
$T273676 = -8						; size = 4
_i$273600 = -8						; size = 4
_this$ = -4						; size = 4
_idProposer$ = 8					; size = 4
_ar$ = 8						; size = 4
?OnCoupleResult@CCoupleHelper@@QAEXAAVCAr@@@Z PROC NEAR	; CCoupleHelper::OnCoupleResult, COMDAT
; _this$ = ecx

; 159  : {

  00000	83 ec 10	 sub	 esp, 16			; 00000010H

; 160  : 	u_long idProposer, idTarget;
; 161  : 	int nResult;
; 162  : 	ar >> idProposer >> idTarget >> nResult;

  00003	8b 44 24 14	 mov	 eax, DWORD PTR _ar$[esp+12]
  00007	8b 50 08	 mov	 edx, DWORD PTR [eax+8]
  0000a	53		 push	 ebx
  0000b	55		 push	 ebp
  0000c	56		 push	 esi
  0000d	89 4c 24 18	 mov	 DWORD PTR _this$[esp+28], ecx
  00011	8b 48 0c	 mov	 ecx, DWORD PTR [eax+12]
  00014	8d 72 04	 lea	 esi, DWORD PTR [edx+4]
  00017	3b f1		 cmp	 esi, ecx
  00019	57		 push	 edi
  0001a	77 0b		 ja	 SHORT $L273510
  0001c	8b 1a		 mov	 ebx, DWORD PTR [edx]
  0001e	89 5c 24 24	 mov	 DWORD PTR _idProposer$[esp+28], ebx
  00022	89 70 08	 mov	 DWORD PTR [eax+8], esi
  00025	eb 0f		 jmp	 SHORT $L273511
$L273510:
  00027	c7 44 24 24 00
	00 00 00	 mov	 DWORD PTR _idProposer$[esp+28], 0
  0002f	8b 5c 24 24	 mov	 ebx, DWORD PTR _idProposer$[esp+28]
  00033	89 48 08	 mov	 DWORD PTR [eax+8], ecx
$L273511:
  00036	8b 50 08	 mov	 edx, DWORD PTR [eax+8]
  00039	8d 7a 04	 lea	 edi, DWORD PTR [edx+4]
  0003c	3b f9		 cmp	 edi, ecx
  0003e	77 07		 ja	 SHORT $L273515
  00040	8b 32		 mov	 esi, DWORD PTR [edx]
  00042	89 78 08	 mov	 DWORD PTR [eax+8], edi
  00045	eb 05		 jmp	 SHORT $L273516
$L273515:
  00047	33 f6		 xor	 esi, esi
  00049	89 48 08	 mov	 DWORD PTR [eax+8], ecx
$L273516:
  0004c	8b 50 08	 mov	 edx, DWORD PTR [eax+8]
  0004f	8d 7a 04	 lea	 edi, DWORD PTR [edx+4]
  00052	3b f9		 cmp	 edi, ecx
  00054	77 0b		 ja	 SHORT $L273526
  00056	8b 0a		 mov	 ecx, DWORD PTR [edx]
  00058	89 4c 24 10	 mov	 DWORD PTR _nResult$[esp+32], ecx
  0005c	89 78 08	 mov	 DWORD PTR [eax+8], edi
  0005f	eb 0b		 jmp	 SHORT $L273527
$L273526:
  00061	c7 44 24 10 00
	00 00 00	 mov	 DWORD PTR _nResult$[esp+32], 0
  00069	89 48 08	 mov	 DWORD PTR [eax+8], ecx
$L273527:

; 163  : 	election::OutputDebugString( "S: CCoupleHelper.OnCoupleResult: %d, %d, %d", idProposer, idTarget, nResult );

  0006c	8b 54 24 10	 mov	 edx, DWORD PTR _nResult$[esp+32]
  00070	52		 push	 edx
  00071	56		 push	 esi
  00072	53		 push	 ebx
  00073	68 00 00 00 00	 push	 OFFSET FLAT:??_C@_0CM@GDLPIJML@S?3?5CCoupleHelper?4OnCoupleResult?3@
  00078	e8 00 00 00 00	 call	 ?OutputDebugStringA@election@@YAXPBDZZ ; election::OutputDebugStringA
  0007d	83 c4 10	 add	 esp, 16			; 00000010H

; 164  : 	CUser* pProposer	= static_cast<CUser*>( prj.GetUserByID( idProposer ) );

  00080	8d 44 24 14	 lea	 eax, DWORD PTR $T273602[esp+32]
  00084	50		 push	 eax
  00085	8d 4c 24 1c	 lea	 ecx, DWORD PTR _i$273600[esp+36]
  00089	51		 push	 ecx
  0008a	b9 38 00 00 00	 mov	 ecx, OFFSET FLAT:?prj@@3VCProject@@A+56
  0008f	89 5c 24 1c	 mov	 DWORD PTR $T273602[esp+40], ebx
  00093	e8 00 00 00 00	 call	 ?find@?$_Tree@V?$_Tmap_traits@KPAVCMover@@U?$less@K@std@@V?$allocator@U?$pair@$$CBKPAVCMover@@@std@@@3@$0A@@std@@@std@@QAE?AViterator@12@ABK@Z ; std::_Tree<std::_Tmap_traits<unsigned long,CMover *,std::less<unsigned long>,std::allocator<std::pair<unsigned long const ,CMover *> >,0> >::find
  00098	8b 44 24 18	 mov	 eax, DWORD PTR _i$273600[esp+32]
  0009c	8b 3d 3c 00 00
	00		 mov	 edi, DWORD PTR ?prj@@3VCProject@@A+60
  000a2	3b c7		 cmp	 eax, edi
  000a4	74 05		 je	 SHORT $L273601
  000a6	8b 68 10	 mov	 ebp, DWORD PTR [eax+16]
  000a9	eb 02		 jmp	 SHORT $L273599
$L273601:
  000ab	33 ed		 xor	 ebp, ebp
$L273599:

; 165  : 	CUser* pTarget	= static_cast<CUser*>( prj.GetUserByID( idTarget ) );

  000ad	8d 54 24 18	 lea	 edx, DWORD PTR $T273676[esp+32]
  000b1	52		 push	 edx
  000b2	8d 44 24 18	 lea	 eax, DWORD PTR _i$273674[esp+36]
  000b6	50		 push	 eax
  000b7	b9 38 00 00 00	 mov	 ecx, OFFSET FLAT:?prj@@3VCProject@@A+56
  000bc	89 74 24 20	 mov	 DWORD PTR $T273676[esp+40], esi
  000c0	e8 00 00 00 00	 call	 ?find@?$_Tree@V?$_Tmap_traits@KPAVCMover@@U?$less@K@std@@V?$allocator@U?$pair@$$CBKPAVCMover@@@std@@@3@$0A@@std@@@std@@QAE?AViterator@12@ABK@Z ; std::_Tree<std::_Tmap_traits<unsigned long,CMover *,std::less<unsigned long>,std::allocator<std::pair<unsigned long const ,CMover *> >,0> >::find
  000c5	8b 44 24 14	 mov	 eax, DWORD PTR _i$273674[esp+32]
  000c9	3b c7		 cmp	 eax, edi
  000cb	74 05		 je	 SHORT $L273675
  000cd	8b 58 10	 mov	 ebx, DWORD PTR [eax+16]
  000d0	eb 02		 jmp	 SHORT $L273673
$L273675:
  000d2	33 db		 xor	 ebx, ebx
$L273673:

; 166  : 	if( nResult == 0 )

  000d4	8b 44 24 10	 mov	 eax, DWORD PTR _nResult$[esp+32]
  000d8	85 c0		 test	 eax, eax
  000da	0f 85 8e 00 00
	00		 jne	 $L266646

; 167  : 	{
; 168  : 		m_pMgr->Couple( idProposer, idTarget );

  000e0	8b 7c 24 24	 mov	 edi, DWORD PTR _idProposer$[esp+28]
  000e4	8b 4c 24 1c	 mov	 ecx, DWORD PTR _this$[esp+32]
  000e8	8b 49 04	 mov	 ecx, DWORD PTR [ecx+4]
  000eb	56		 push	 esi
  000ec	57		 push	 edi
  000ed	e8 00 00 00 00	 call	 ?Couple@CCoupleMgr@@QAEXKK@Z ; CCoupleMgr::Couple

; 169  : 		const char* pszProposer	= CPlayerDataCenter::GetInstance()->GetPlayerString( idProposer );

  000f2	57		 push	 edi
  000f3	e8 00 00 00 00	 call	 ?GetInstance@CPlayerDataCenter@@SAPAV1@XZ ; CPlayerDataCenter::GetInstance
  000f8	8b c8		 mov	 ecx, eax
  000fa	e8 00 00 00 00	 call	 ?GetPlayerString@CPlayerDataCenter@@QAEPBDK@Z ; CPlayerDataCenter::GetPlayerString

; 170  : 		const char* pszTarget	= CPlayerDataCenter::GetInstance()->GetPlayerString( idTarget );

  000ff	56		 push	 esi
  00100	8b f8		 mov	 edi, eax
  00102	e8 00 00 00 00	 call	 ?GetInstance@CPlayerDataCenter@@SAPAV1@XZ ; CPlayerDataCenter::GetInstance
  00107	8b c8		 mov	 ecx, eax
  00109	e8 00 00 00 00	 call	 ?GetPlayerString@CPlayerDataCenter@@QAEPBDK@Z ; CPlayerDataCenter::GetPlayerString

; 171  : 		if( !pszProposer )	pszProposer	= "";

  0010e	85 ff		 test	 edi, edi
  00110	75 05		 jne	 SHORT $L266649
  00112	bf 00 00 00 00	 mov	 edi, OFFSET FLAT:??_C@_00CNPNBAHC@?$AA@
$L266649:

; 172  : 		if( !pszTarget )	pszTarget	= "";

  00117	85 c0		 test	 eax, eax
  00119	75 05		 jne	 SHORT $L266650
  0011b	b8 00 00 00 00	 mov	 eax, OFFSET FLAT:??_C@_00CNPNBAHC@?$AA@
$L266650:

; 173  : 		if( IsValidObj( pProposer ) )

  00120	85 ed		 test	 ebp, ebp
  00122	74 1c		 je	 SHORT $L273716
  00124	f6 45 04 01	 test	 BYTE PTR [ebp+4], 1
  00128	75 16		 jne	 SHORT $L273716

; 174  : 		{
; 175  : 			pProposer->AddCoupleResult( idTarget, pszTarget );

  0012a	50		 push	 eax
  0012b	56		 push	 esi
  0012c	8b cd		 mov	 ecx, ebp
  0012e	e8 00 00 00 00	 call	 ?AddCoupleResult@CUser@@QAEXKPBD@Z ; CUser::AddCoupleResult

; 176  : #if __VER >= 13 // __HONORABLE_TITLE			// 
; 177  : 			pProposer->SetHonorAdd(	HS_COUPLE_COUNT,HI_COUNT_CHECK );

  00133	6a 00		 push	 0
  00135	6a 02		 push	 2
  00137	6a 3e		 push	 62			; 0000003eH
  00139	8b cd		 mov	 ecx, ebp
  0013b	e8 00 00 00 00	 call	 ?SetHonorAdd@CMover@@QAEXHHH@Z ; CMover::SetHonorAdd
$L273716:

; 178  : #endif	// __HONORABLE_TITLE
; 179  : 		}
; 180  : 		if( IsValidObj( pTarget ) )

  00140	85 db		 test	 ebx, ebx
  00142	74 3c		 je	 SHORT $L266654
  00144	f6 43 04 01	 test	 BYTE PTR [ebx+4], 1
  00148	75 36		 jne	 SHORT $L266654

; 181  : 		{
; 182  : 			pTarget->AddCoupleResult( idProposer, pszProposer );

  0014a	8b 54 24 24	 mov	 edx, DWORD PTR _idProposer$[esp+28]
  0014e	57		 push	 edi
  0014f	52		 push	 edx
  00150	8b cb		 mov	 ecx, ebx
  00152	e8 00 00 00 00	 call	 ?AddCoupleResult@CUser@@QAEXKPBD@Z ; CUser::AddCoupleResult

; 183  : #if __VER >= 13 // __HONORABLE_TITLE			// 
; 184  : 			pTarget->SetHonorAdd(HS_COUPLE_COUNT,HI_COUNT_CHECK );

  00157	6a 00		 push	 0
  00159	6a 02		 push	 2
  0015b	6a 3e		 push	 62			; 0000003eH
  0015d	8b cb		 mov	 ecx, ebx
  0015f	e8 00 00 00 00	 call	 ?SetHonorAdd@CMover@@QAEXHHH@Z ; CMover::SetHonorAdd
  00164	5f		 pop	 edi
  00165	5e		 pop	 esi
  00166	5d		 pop	 ebp
  00167	5b		 pop	 ebx

; 192  : 	}
; 193  : }

  00168	83 c4 10	 add	 esp, 16			; 00000010H
  0016b	c2 04 00	 ret	 4
$L266646:

; 185  : #endif	// __HONORABLE_TITLE			// 
; 186  : 		}
; 187  : 	}
; 188  : 	else
; 189  : 	{
; 190  : 		if( IsValidObj( pTarget ) )

  0016e	85 db		 test	 ebx, ebx
  00170	74 0e		 je	 SHORT $L266654
  00172	f6 43 04 01	 test	 BYTE PTR [ebx+4], 1
  00176	75 08		 jne	 SHORT $L266654

; 191  : 			pTarget->AddDefinedText( nResult );

  00178	50		 push	 eax
  00179	8b cb		 mov	 ecx, ebx
  0017b	e8 00 00 00 00	 call	 ?AddDefinedText@CUser@@QAEXH@Z ; CUser::AddDefinedText
$L266654:
  00180	5f		 pop	 edi
  00181	5e		 pop	 esi
  00182	5d		 pop	 ebp
  00183	5b		 pop	 ebx

; 192  : 	}
; 193  : }

  00184	83 c4 10	 add	 esp, 16			; 00000010H
  00187	c2 04 00	 ret	 4
?OnCoupleResult@CCoupleHelper@@QAEXAAVCAr@@@Z ENDP	; CCoupleHelper::OnCoupleResult
_TEXT	ENDS
PUBLIC	??_C@_0CK@FFJBDECI@S?3?5CCoupleHelper?4OnDecoupleResul@ ; `string'
PUBLIC	?OnDecoupleResult@CCoupleHelper@@QAEXAAVCAr@@@Z	; CCoupleHelper::OnDecoupleResult
EXTRN	?AddHonorListAck@CUser@@QAEXXZ:NEAR		; CUser::AddHonorListAck
EXTRN	?AddDecoupleResult@CUser@@QAEXXZ:NEAR		; CUser::AddDecoupleResult
EXTRN	?Instance@CTitleManager@@SAPAV1@XZ:NEAR		; CTitleManager::Instance
EXTRN	?GetNeedCount@CTitleManager@@QAEHHH@Z:NEAR	; CTitleManager::GetNeedCount
EXTRN	?GetIdx@CTitleManager@@QAEHHH@Z:NEAR		; CTitleManager::GetIdx
EXTRN	?Decouple@CCoupleMgr@@QAEHK@Z:NEAR		; CCoupleMgr::Decouple
EXTRN	?SetHonorCount@CMover@@QAEXHH@Z:NEAR		; CMover::SetHonorCount
;	COMDAT ??_C@_0CK@FFJBDECI@S?3?5CCoupleHelper?4OnDecoupleResul@
; File c:\documents and settings\test\mes documents\source\virtuos_v17\build\program\_common\obj.h
CONST	SEGMENT
??_C@_0CK@FFJBDECI@S?3?5CCoupleHelper?4OnDecoupleResul@ DB 'S: CCoupleHel'
	DB	'per.OnDecoupleResult: %d, %d', 00H		; `string'
; Function compile flags: /Ogty
; File c:\documents and settings\test\mes documents\source\virtuos_v17\build\program\worldserver\couplehelper.cpp
CONST	ENDS
;	COMDAT ?OnDecoupleResult@CCoupleHelper@@QAEXAAVCAr@@@Z
_TEXT	SEGMENT
_i$273874 = -4						; size = 4
_i$273808 = -4						; size = 4
$T273884 = 8						; size = 4
$T273810 = 8						; size = 4
_ar$ = 8						; size = 4
?OnDecoupleResult@CCoupleHelper@@QAEXAAVCAr@@@Z PROC NEAR ; CCoupleHelper::OnDecoupleResult, COMDAT
; _this$ = ecx

; 208  : {

  00000	51		 push	 ecx

; 209  : 	u_long idPlayer;
; 210  : 	int nResult;
; 211  : 	ar >> idPlayer >> nResult;

  00001	8b 44 24 08	 mov	 eax, DWORD PTR _ar$[esp]
  00005	8b 50 08	 mov	 edx, DWORD PTR [eax+8]
  00008	53		 push	 ebx
  00009	55		 push	 ebp
  0000a	56		 push	 esi
  0000b	8b d9		 mov	 ebx, ecx
  0000d	8b 48 0c	 mov	 ecx, DWORD PTR [eax+12]
  00010	8d 72 04	 lea	 esi, DWORD PTR [edx+4]
  00013	3b f1		 cmp	 esi, ecx
  00015	57		 push	 edi
  00016	77 07		 ja	 SHORT $L273723
  00018	8b 3a		 mov	 edi, DWORD PTR [edx]
  0001a	89 70 08	 mov	 DWORD PTR [eax+8], esi
  0001d	eb 05		 jmp	 SHORT $L273724
$L273723:
  0001f	33 ff		 xor	 edi, edi
  00021	89 48 08	 mov	 DWORD PTR [eax+8], ecx
$L273724:
  00024	8b 50 08	 mov	 edx, DWORD PTR [eax+8]
  00027	8d 72 04	 lea	 esi, DWORD PTR [edx+4]
  0002a	3b f1		 cmp	 esi, ecx
  0002c	77 07		 ja	 SHORT $L273734
  0002e	8b 2a		 mov	 ebp, DWORD PTR [edx]
  00030	89 70 08	 mov	 DWORD PTR [eax+8], esi
  00033	eb 05		 jmp	 SHORT $L273735
$L273734:
  00035	33 ed		 xor	 ebp, ebp
  00037	89 48 08	 mov	 DWORD PTR [eax+8], ecx
$L273735:

; 212  : 	election::OutputDebugString( "S: CCoupleHelper.OnDecoupleResult: %d, %d", idPlayer, nResult );

  0003a	55		 push	 ebp
  0003b	57		 push	 edi
  0003c	68 00 00 00 00	 push	 OFFSET FLAT:??_C@_0CK@FFJBDECI@S?3?5CCoupleHelper?4OnDecoupleResul@
  00041	e8 00 00 00 00	 call	 ?OutputDebugStringA@election@@YAXPBDZZ ; election::OutputDebugStringA
  00046	83 c4 0c	 add	 esp, 12			; 0000000cH

; 213  : 	CUser* pUser	= static_cast<CUser*>( prj.GetUserByID( idPlayer ) );

  00049	8d 44 24 18	 lea	 eax, DWORD PTR $T273810[esp+16]
  0004d	50		 push	 eax
  0004e	8d 4c 24 14	 lea	 ecx, DWORD PTR _i$273808[esp+24]
  00052	51		 push	 ecx
  00053	b9 38 00 00 00	 mov	 ecx, OFFSET FLAT:?prj@@3VCProject@@A+56
  00058	89 7c 24 20	 mov	 DWORD PTR $T273810[esp+24], edi
  0005c	e8 00 00 00 00	 call	 ?find@?$_Tree@V?$_Tmap_traits@KPAVCMover@@U?$less@K@std@@V?$allocator@U?$pair@$$CBKPAVCMover@@@std@@@3@$0A@@std@@@std@@QAE?AViterator@12@ABK@Z ; std::_Tree<std::_Tmap_traits<unsigned long,CMover *,std::less<unsigned long>,std::allocator<std::pair<unsigned long const ,CMover *> >,0> >::find
  00061	8b 44 24 10	 mov	 eax, DWORD PTR _i$273808[esp+20]
  00065	3b 05 3c 00 00
	00		 cmp	 eax, DWORD PTR ?prj@@3VCProject@@A+60
  0006b	74 05		 je	 SHORT $L273809
  0006d	8b 70 10	 mov	 esi, DWORD PTR [eax+16]
  00070	eb 02		 jmp	 SHORT $L273795
$L273809:
  00072	33 f6		 xor	 esi, esi
$L273795:

; 214  : 	if( nResult == 0 )

  00074	85 ed		 test	 ebp, ebp
  00076	0f 85 f7 00 00
	00		 jne	 $L266671

; 215  : 	{
; 216  : 		CCouple* pCouple	= m_pMgr->GetCouple( idPlayer );

  0007c	8b 4b 04	 mov	 ecx, DWORD PTR [ebx+4]
  0007f	57		 push	 edi
  00080	e8 00 00 00 00	 call	 ?GetCouple@CCoupleMgr@@QAEPAVCCouple@@K@Z ; CCoupleMgr::GetCouple

; 217  : 		ASSERT( pCouple );
; 218  : 		if( !pCouple )

  00085	85 c0		 test	 eax, eax
  00087	0f 84 f8 00 00
	00		 je	 $L266690

; 219  : 			return;
; 220  : 		CUser* pPartner	= static_cast<CUser*>( prj.GetUserByID( pCouple->GetPartner( idPlayer ) ) );

  0008d	57		 push	 edi
  0008e	8b c8		 mov	 ecx, eax
  00090	e8 00 00 00 00	 call	 ?GetPartner@CCouple@@QAEKK@Z ; CCouple::GetPartner
  00095	8d 54 24 18	 lea	 edx, DWORD PTR $T273884[esp+16]
  00099	89 44 24 18	 mov	 DWORD PTR $T273884[esp+16], eax
  0009d	52		 push	 edx
  0009e	8d 44 24 14	 lea	 eax, DWORD PTR _i$273874[esp+24]
  000a2	50		 push	 eax
  000a3	b9 38 00 00 00	 mov	 ecx, OFFSET FLAT:?prj@@3VCProject@@A+56
  000a8	e8 00 00 00 00	 call	 ?find@?$_Tree@V?$_Tmap_traits@KPAVCMover@@U?$less@K@std@@V?$allocator@U?$pair@$$CBKPAVCMover@@@std@@@3@$0A@@std@@@std@@QAE?AViterator@12@ABK@Z ; std::_Tree<std::_Tmap_traits<unsigned long,CMover *,std::less<unsigned long>,std::allocator<std::pair<unsigned long const ,CMover *> >,0> >::find
  000ad	8b 44 24 10	 mov	 eax, DWORD PTR _i$273874[esp+20]
  000b1	3b 05 3c 00 00
	00		 cmp	 eax, DWORD PTR ?prj@@3VCProject@@A+60
  000b7	74 05		 je	 SHORT $L273875
  000b9	8b 68 10	 mov	 ebp, DWORD PTR [eax+16]
  000bc	eb 02		 jmp	 SHORT $L273861
$L273875:
  000be	33 ed		 xor	 ebp, ebp
$L273861:

; 221  : 		m_pMgr->Decouple( idPlayer );

  000c0	8b 4b 04	 mov	 ecx, DWORD PTR [ebx+4]
  000c3	57		 push	 edi
  000c4	e8 00 00 00 00	 call	 ?Decouple@CCoupleMgr@@QAEHK@Z ; CCoupleMgr::Decouple

; 222  : 		if( IsValidObj( pUser ) )

  000c9	85 f6		 test	 esi, esi
  000cb	b3 01		 mov	 bl, 1
  000cd	74 4c		 je	 SHORT $L273930
  000cf	84 5e 04	 test	 BYTE PTR [esi+4], bl
  000d2	75 47		 jne	 SHORT $L273930

; 223  : 		{
; 224  : 			pUser->AddDecoupleResult();

  000d4	8b ce		 mov	 ecx, esi
  000d6	e8 00 00 00 00	 call	 ?AddDecoupleResult@CUser@@QAEXXZ ; CUser::AddDecoupleResult

; 225  : #if __VER >= 13 // __HONORABLE_TITLE			// 
; 226  : 			int nIdx = CTitleManager::Instance()->GetIdx(HS_COUPLE_LV,HI_COUNT_CHECK);

  000db	6a 02		 push	 2
  000dd	6a 3f		 push	 63			; 0000003fH
  000df	e8 00 00 00 00	 call	 ?Instance@CTitleManager@@SAPAV1@XZ ; CTitleManager::Instance
  000e4	8b c8		 mov	 ecx, eax
  000e6	e8 00 00 00 00	 call	 ?GetIdx@CTitleManager@@QAEHHH@Z ; CTitleManager::GetIdx

; 227  : 			if( nIdx >= 0)

  000eb	85 c0		 test	 eax, eax
  000ed	7c 2c		 jl	 SHORT $L273930

; 228  : 			{	
; 229  : 				int nPrevLvl = pUser->GetHonorTitle(nIdx);

  000ef	8b bc 86 0c 09
	00 00		 mov	 edi, DWORD PTR [esi+eax*4+2316]

; 230  : 				pUser->SetHonorCount(nIdx,0);

  000f6	6a 00		 push	 0
  000f8	50		 push	 eax
  000f9	8b ce		 mov	 ecx, esi
  000fb	e8 00 00 00 00	 call	 ?SetHonorCount@CMover@@QAEXHH@Z ; CMover::SetHonorCount

; 231  : 				int nNeedCount = CTitleManager::Instance()->GetNeedCount(HS_COUPLE_LV,HI_COUNT_CHECK);

  00100	6a 02		 push	 2
  00102	6a 3f		 push	 63			; 0000003fH
  00104	e8 00 00 00 00	 call	 ?Instance@CTitleManager@@SAPAV1@XZ ; CTitleManager::Instance
  00109	8b c8		 mov	 ecx, eax
  0010b	e8 00 00 00 00	 call	 ?GetNeedCount@CTitleManager@@QAEHHH@Z ; CTitleManager::GetNeedCount

; 232  : 				if( nNeedCount >= nPrevLvl )

  00110	3b c7		 cmp	 eax, edi
  00112	7c 07		 jl	 SHORT $L273930

; 233  : 					pUser->AddHonorListAck();

  00114	8b ce		 mov	 ecx, esi
  00116	e8 00 00 00 00	 call	 ?AddHonorListAck@CUser@@QAEXXZ ; CUser::AddHonorListAck
$L273930:

; 234  : 			}
; 235  : #endif	// __HONORABLE_TITLE			// 
; 236  : 		}
; 237  : 		if( IsValidObj( pPartner ) )

  0011b	85 ed		 test	 ebp, ebp
  0011d	74 66		 je	 SHORT $L266690
  0011f	84 5d 04	 test	 BYTE PTR [ebp+4], bl
  00122	75 61		 jne	 SHORT $L266690

; 238  : 		{
; 239  : 			pPartner->AddDecoupleResult();

  00124	8b cd		 mov	 ecx, ebp
  00126	e8 00 00 00 00	 call	 ?AddDecoupleResult@CUser@@QAEXXZ ; CUser::AddDecoupleResult

; 240  : #if __VER >= 13 // __HONORABLE_TITLE			// 
; 241  : 			int nIdx = CTitleManager::Instance()->GetIdx(HS_COUPLE_LV,HI_COUNT_CHECK);

  0012b	6a 02		 push	 2
  0012d	6a 3f		 push	 63			; 0000003fH
  0012f	e8 00 00 00 00	 call	 ?Instance@CTitleManager@@SAPAV1@XZ ; CTitleManager::Instance
  00134	8b c8		 mov	 ecx, eax
  00136	e8 00 00 00 00	 call	 ?GetIdx@CTitleManager@@QAEHHH@Z ; CTitleManager::GetIdx

; 242  : 			if( nIdx >= 0)

  0013b	85 c0		 test	 eax, eax
  0013d	7c 46		 jl	 SHORT $L266690

; 243  : 			{	
; 244  : 				int nPrevLvl = pPartner->GetHonorTitle(nIdx);

  0013f	8b b4 85 0c 09
	00 00		 mov	 esi, DWORD PTR [ebp+eax*4+2316]

; 245  : 				pPartner->SetHonorCount(nIdx,0);

  00146	6a 00		 push	 0
  00148	50		 push	 eax
  00149	8b cd		 mov	 ecx, ebp
  0014b	e8 00 00 00 00	 call	 ?SetHonorCount@CMover@@QAEXHH@Z ; CMover::SetHonorCount

; 246  : 				int nNeedCount = CTitleManager::Instance()->GetNeedCount(HS_COUPLE_LV,HI_COUNT_CHECK);

  00150	6a 02		 push	 2
  00152	6a 3f		 push	 63			; 0000003fH
  00154	e8 00 00 00 00	 call	 ?Instance@CTitleManager@@SAPAV1@XZ ; CTitleManager::Instance
  00159	8b c8		 mov	 ecx, eax
  0015b	e8 00 00 00 00	 call	 ?GetNeedCount@CTitleManager@@QAEHHH@Z ; CTitleManager::GetNeedCount

; 247  : 				if( nNeedCount >= nPrevLvl )

  00160	3b c6		 cmp	 eax, esi
  00162	7c 21		 jl	 SHORT $L266690

; 248  : 					pPartner->AddHonorListAck();

  00164	8b cd		 mov	 ecx, ebp
  00166	e8 00 00 00 00	 call	 ?AddHonorListAck@CUser@@QAEXXZ ; CUser::AddHonorListAck
  0016b	5f		 pop	 edi
  0016c	5e		 pop	 esi
  0016d	5d		 pop	 ebp
  0016e	5b		 pop	 ebx

; 257  : 	}
; 258  : }

  0016f	59		 pop	 ecx
  00170	c2 04 00	 ret	 4
$L266671:

; 249  : 			}
; 250  : #endif	// __HONORABLE_TITLE			// 
; 251  : 		}
; 252  : 	}
; 253  : 	else
; 254  : 	{
; 255  : 		if( IsValidObj( pUser ) )

  00173	85 f6		 test	 esi, esi
  00175	74 0e		 je	 SHORT $L266690
  00177	f6 46 04 01	 test	 BYTE PTR [esi+4], 1
  0017b	75 08		 jne	 SHORT $L266690

; 256  : 			pUser->AddDefinedText( nResult );

  0017d	55		 push	 ebp
  0017e	8b ce		 mov	 ecx, esi
  00180	e8 00 00 00 00	 call	 ?AddDefinedText@CUser@@QAEXH@Z ; CUser::AddDefinedText
$L266690:
  00185	5f		 pop	 edi
  00186	5e		 pop	 esi
  00187	5d		 pop	 ebp
  00188	5b		 pop	 ebx

; 257  : 	}
; 258  : }

  00189	59		 pop	 ecx
  0018a	c2 04 00	 ret	 4
?OnDecoupleResult@CCoupleHelper@@QAEXAAVCAr@@@Z ENDP	; CCoupleHelper::OnDecoupleResult
_TEXT	ENDS
PUBLIC	?OnAddCoupleExperience@CCoupleHelper@@QAEXAAVCAr@@@Z ; CCoupleHelper::OnAddCoupleExperience
EXTRN	?AddAddCoupleExperience@CUser@@QAEXH@Z:NEAR	; CUser::AddAddCoupleExperience
EXTRN	?RemoveIk3Buffs@CMover@@QAEXK@Z:NEAR		; CMover::RemoveIk3Buffs
EXTRN	?AddExperience@CCouple@@QAEHH@Z:NEAR		; CCouple::AddExperience
EXTRN	?GetLevel@CCouple@@QAEHH@Z:NEAR			; CCouple::GetLevel
; Function compile flags: /Ogty
;	COMDAT ?OnAddCoupleExperience@CCoupleHelper@@QAEXAAVCAr@@@Z
_TEXT	SEGMENT
_i$274089 = -8						; size = 4
$T274033 = -8						; size = 4
$T274111 = -4						; size = 4
_i$274011 = -4						; size = 4
_nPreCouplelvl$266699 = 8				; size = 4
_ar$ = 8						; size = 4
?OnAddCoupleExperience@CCoupleHelper@@QAEXAAVCAr@@@Z PROC NEAR ; CCoupleHelper::OnAddCoupleExperience, COMDAT
; _this$ = ecx

; 263  : 	u_long idPlayer;
; 264  : 	int nExperience;
; 265  : 	ar >> idPlayer >> nExperience;

  00000	8b 44 24 04	 mov	 eax, DWORD PTR _ar$[esp-4]
  00004	8b 50 0c	 mov	 edx, DWORD PTR [eax+12]
  00007	83 ec 08	 sub	 esp, 8
  0000a	53		 push	 ebx
  0000b	55		 push	 ebp
  0000c	56		 push	 esi
  0000d	8b 70 08	 mov	 esi, DWORD PTR [eax+8]
  00010	57		 push	 edi
  00011	8d 7e 04	 lea	 edi, DWORD PTR [esi+4]
  00014	3b fa		 cmp	 edi, edx
  00016	77 07		 ja	 SHORT $L273938
  00018	8b 36		 mov	 esi, DWORD PTR [esi]
  0001a	89 78 08	 mov	 DWORD PTR [eax+8], edi
  0001d	eb 05		 jmp	 SHORT $L273939
$L273938:
  0001f	33 f6		 xor	 esi, esi
  00021	89 50 08	 mov	 DWORD PTR [eax+8], edx
$L273939:
  00024	8b 78 08	 mov	 edi, DWORD PTR [eax+8]
  00027	8d 6f 04	 lea	 ebp, DWORD PTR [edi+4]
  0002a	3b ea		 cmp	 ebp, edx
  0002c	77 07		 ja	 SHORT $L273949
  0002e	8b 1f		 mov	 ebx, DWORD PTR [edi]
  00030	89 68 08	 mov	 DWORD PTR [eax+8], ebp
  00033	eb 05		 jmp	 SHORT $L273950
$L273949:
  00035	33 db		 xor	 ebx, ebx
  00037	89 50 08	 mov	 DWORD PTR [eax+8], edx
$L273950:

; 266  : 	CCouple* pCouple	= GetCouple( idPlayer );

  0003a	8b 49 04	 mov	 ecx, DWORD PTR [ecx+4]
  0003d	56		 push	 esi
  0003e	e8 00 00 00 00	 call	 ?GetCouple@CCoupleMgr@@QAEPAVCCouple@@K@Z ; CCoupleMgr::GetCouple
  00043	8b f0		 mov	 esi, eax

; 267  : 	if( pCouple )

  00045	85 f6		 test	 esi, esi
  00047	0f 84 f3 00 00
	00		 je	 $L266707

; 268  : 	{
; 269  : #if __VER >= 13 // __HONORABLE_TITLE			// 
; 270  : 		int nPreCouplelvl =	pCouple->GetLevel();

  0004d	6a 00		 push	 0
  0004f	8b ce		 mov	 ecx, esi
  00051	e8 00 00 00 00	 call	 ?GetLevel@CCouple@@QAEHH@Z ; CCouple::GetLevel

; 271  : #endif	// __HONORABLE_TITLE			// 
; 272  : 		pCouple->AddExperience( nExperience );

  00056	53		 push	 ebx
  00057	8b ce		 mov	 ecx, esi
  00059	89 44 24 20	 mov	 DWORD PTR _nPreCouplelvl$266699[esp+24], eax
  0005d	e8 00 00 00 00	 call	 ?AddExperience@CCouple@@QAEHH@Z ; CCouple::AddExperience

; 273  : 		CUser* pFirst	= static_cast<CUser*>( prj.GetUserByID( pCouple->GetFirst() ) );

  00062	8b 46 0c	 mov	 eax, DWORD PTR [esi+12]
  00065	8d 4c 24 10	 lea	 ecx, DWORD PTR $T274033[esp+24]
  00069	51		 push	 ecx
  0006a	8d 54 24 18	 lea	 edx, DWORD PTR _i$274011[esp+28]
  0006e	52		 push	 edx
  0006f	b9 38 00 00 00	 mov	 ecx, OFFSET FLAT:?prj@@3VCProject@@A+56
  00074	89 44 24 18	 mov	 DWORD PTR $T274033[esp+32], eax
  00078	e8 00 00 00 00	 call	 ?find@?$_Tree@V?$_Tmap_traits@KPAVCMover@@U?$less@K@std@@V?$allocator@U?$pair@$$CBKPAVCMover@@@std@@@3@$0A@@std@@@std@@QAE?AViterator@12@ABK@Z ; std::_Tree<std::_Tmap_traits<unsigned long,CMover *,std::less<unsigned long>,std::allocator<std::pair<unsigned long const ,CMover *> >,0> >::find
  0007d	8b 44 24 14	 mov	 eax, DWORD PTR _i$274011[esp+24]
  00081	8b 2d 3c 00 00
	00		 mov	 ebp, DWORD PTR ?prj@@3VCProject@@A+60
  00087	3b c5		 cmp	 eax, ebp
  00089	74 05		 je	 SHORT $L274012
  0008b	8b 78 10	 mov	 edi, DWORD PTR [eax+16]
  0008e	eb 02		 jmp	 SHORT $L274010
$L274012:
  00090	33 ff		 xor	 edi, edi
$L274010:

; 274  : 		CUser* pSecond	= static_cast<CUser*>( prj.GetUserByID( pCouple->GetSecond() ) );

  00092	8b 46 10	 mov	 eax, DWORD PTR [esi+16]
  00095	8d 4c 24 14	 lea	 ecx, DWORD PTR $T274111[esp+24]
  00099	51		 push	 ecx
  0009a	8d 54 24 14	 lea	 edx, DWORD PTR _i$274089[esp+28]
  0009e	52		 push	 edx
  0009f	b9 38 00 00 00	 mov	 ecx, OFFSET FLAT:?prj@@3VCProject@@A+56
  000a4	89 44 24 1c	 mov	 DWORD PTR $T274111[esp+32], eax
  000a8	e8 00 00 00 00	 call	 ?find@?$_Tree@V?$_Tmap_traits@KPAVCMover@@U?$less@K@std@@V?$allocator@U?$pair@$$CBKPAVCMover@@@std@@@3@$0A@@std@@@std@@QAE?AViterator@12@ABK@Z ; std::_Tree<std::_Tmap_traits<unsigned long,CMover *,std::less<unsigned long>,std::allocator<std::pair<unsigned long const ,CMover *> >,0> >::find
  000ad	8b 44 24 10	 mov	 eax, DWORD PTR _i$274089[esp+24]
  000b1	3b c5		 cmp	 eax, ebp
  000b3	74 05		 je	 SHORT $L274090
  000b5	8b 68 10	 mov	 ebp, DWORD PTR [eax+16]
  000b8	eb 02		 jmp	 SHORT $L274088
$L274090:
  000ba	33 ed		 xor	 ebp, ebp
$L274088:

; 275  : 		if( IsValidObj( pFirst ) )

  000bc	85 ff		 test	 edi, edi
  000be	74 3e		 je	 SHORT $L274138
  000c0	f6 47 04 01	 test	 BYTE PTR [edi+4], 1
  000c4	75 38		 jne	 SHORT $L274138

; 276  : 		{
; 277  : 			pFirst->RemoveIk3Buffs( IK3_COUPLE_BUFF );

  000c6	68 85 00 00 00	 push	 133			; 00000085H
  000cb	8b cf		 mov	 ecx, edi
  000cd	e8 00 00 00 00	 call	 ?RemoveIk3Buffs@CMover@@QAEXK@Z ; CMover::RemoveIk3Buffs

; 278  : 			pFirst->AddAddCoupleExperience( nExperience );

  000d2	53		 push	 ebx
  000d3	8b cf		 mov	 ecx, edi
  000d5	e8 00 00 00 00	 call	 ?AddAddCoupleExperience@CUser@@QAEXH@Z ; CUser::AddAddCoupleExperience

; 279  : #if __VER >= 13 // __HONORABLE_TITLE			// 
; 280  : 			if(nPreCouplelvl < pCouple->GetLevel())

  000da	6a 00		 push	 0
  000dc	8b ce		 mov	 ecx, esi
  000de	e8 00 00 00 00	 call	 ?GetLevel@CCouple@@QAEHH@Z ; CCouple::GetLevel
  000e3	39 44 24 1c	 cmp	 DWORD PTR _nPreCouplelvl$266699[esp+20], eax
  000e7	7d 15		 jge	 SHORT $L274138

; 281  : 				pFirst->SetHonorAdd(HS_COUPLE_LV,HI_COUNT_CHECK,pCouple->GetLevel());

  000e9	6a 00		 push	 0
  000eb	8b ce		 mov	 ecx, esi
  000ed	e8 00 00 00 00	 call	 ?GetLevel@CCouple@@QAEHH@Z ; CCouple::GetLevel
  000f2	50		 push	 eax
  000f3	6a 02		 push	 2
  000f5	6a 3f		 push	 63			; 0000003fH
  000f7	8b cf		 mov	 ecx, edi
  000f9	e8 00 00 00 00	 call	 ?SetHonorAdd@CMover@@QAEXHHH@Z ; CMover::SetHonorAdd
$L274138:

; 282  : #endif	// __HONORABLE_TITLE			// 
; 283  : 		}
; 284  : 		if( IsValidObj( pSecond ) )

  000fe	85 ed		 test	 ebp, ebp
  00100	74 3e		 je	 SHORT $L266707
  00102	f6 45 04 01	 test	 BYTE PTR [ebp+4], 1
  00106	75 38		 jne	 SHORT $L266707

; 285  : 		{
; 286  : 			pSecond->RemoveIk3Buffs( IK3_COUPLE_BUFF );

  00108	68 85 00 00 00	 push	 133			; 00000085H
  0010d	8b cd		 mov	 ecx, ebp
  0010f	e8 00 00 00 00	 call	 ?RemoveIk3Buffs@CMover@@QAEXK@Z ; CMover::RemoveIk3Buffs

; 287  : 			pSecond->AddAddCoupleExperience( nExperience );

  00114	53		 push	 ebx
  00115	8b cd		 mov	 ecx, ebp
  00117	e8 00 00 00 00	 call	 ?AddAddCoupleExperience@CUser@@QAEXH@Z ; CUser::AddAddCoupleExperience

; 288  : #if __VER >= 13 // __HONORABLE_TITLE			// 
; 289  : 			if(nPreCouplelvl < pCouple->GetLevel())

  0011c	6a 00		 push	 0
  0011e	8b ce		 mov	 ecx, esi
  00120	e8 00 00 00 00	 call	 ?GetLevel@CCouple@@QAEHH@Z ; CCouple::GetLevel
  00125	39 44 24 1c	 cmp	 DWORD PTR _nPreCouplelvl$266699[esp+20], eax
  00129	7d 15		 jge	 SHORT $L266707

; 290  : 				pSecond->SetHonorAdd(HS_COUPLE_LV,HI_COUNT_CHECK,pCouple->GetLevel());

  0012b	6a 00		 push	 0
  0012d	8b ce		 mov	 ecx, esi
  0012f	e8 00 00 00 00	 call	 ?GetLevel@CCouple@@QAEHH@Z ; CCouple::GetLevel
  00134	50		 push	 eax
  00135	6a 02		 push	 2
  00137	6a 3f		 push	 63			; 0000003fH
  00139	8b cd		 mov	 ecx, ebp
  0013b	e8 00 00 00 00	 call	 ?SetHonorAdd@CMover@@QAEXHHH@Z ; CMover::SetHonorAdd
$L266707:
  00140	5f		 pop	 edi
  00141	5e		 pop	 esi
  00142	5d		 pop	 ebp
  00143	5b		 pop	 ebx

; 291  : #endif	// __HONORABLE_TITLE			// 
; 292  : 		}
; 293  : 	}
; 294  : }

  00144	83 c4 08	 add	 esp, 8
  00147	c2 04 00	 ret	 4
?OnAddCoupleExperience@CCoupleHelper@@QAEXAAVCAr@@@Z ENDP ; CCoupleHelper::OnAddCoupleExperience
; Function compile flags: /Ogty
_TEXT	ENDS
;	COMDAT _$E2
text$yd	SEGMENT
_$E2	PROC NEAR					; COMDAT
  00000	8b 0d 04 00 00
	00		 mov	 ecx, DWORD PTR ?sCoupleHelper@?1??Instance@CCoupleHelper@@SAPAV2@XZ@4V2@A+4
  00006	85 c9		 test	 ecx, ecx
  00008	c7 05 00 00 00
	00 00 00 00 00	 mov	 DWORD PTR ?sCoupleHelper@?1??Instance@CCoupleHelper@@SAPAV2@XZ@4V2@A, OFFSET FLAT:??_7CCoupleHelper@@6B@
  00012	74 10		 je	 SHORT $L274158
  00014	8b 01		 mov	 eax, DWORD PTR [ecx]
  00016	6a 01		 push	 1
  00018	ff 10		 call	 DWORD PTR [eax]
  0001a	c7 05 04 00 00
	00 00 00 00 00	 mov	 DWORD PTR ?sCoupleHelper@?1??Instance@CCoupleHelper@@SAPAV2@XZ@4V2@A+4, 0
$L274158:
  00024	c3		 ret	 0
_$E2	ENDP
text$yd	ENDS
END
