; Listing generated by Microsoft (R) Optimizing Compiler Version 13.10.6030 

	TITLE	\Documents and Settings\test\Mes documents\Source\Virtuos_v17\Build\Program\_Common\CreateObj.cpp
	.386P
include listing.inc
if @Version gt 510
.model FLAT
else
_TEXT	SEGMENT PARA USE32 PUBLIC 'CODE'
_TEXT	ENDS
_DATA	SEGMENT DWORD USE32 PUBLIC 'DATA'
_DATA	ENDS
CONST	SEGMENT DWORD USE32 PUBLIC 'CONST'
CONST	ENDS
_BSS	SEGMENT DWORD USE32 PUBLIC 'BSS'
_BSS	ENDS
$$SYMBOLS	SEGMENT BYTE USE32 'DEBSYM'
$$SYMBOLS	ENDS
$$TYPES	SEGMENT BYTE USE32 'DEBTYP'
$$TYPES	ENDS
_TLS	SEGMENT DWORD USE32 PUBLIC 'TLS'
_TLS	ENDS
;	COMDAT ??_C@_0CM@LGAFIKMJ@CreateObj?5?3?5type?$DN?$CFd?0?5index?$DN?$CFd?0?5b@
CONST	SEGMENT DWORD USE32 PUBLIC 'CONST'
CONST	ENDS
xdata$x	SEGMENT DWORD USE32 PUBLIC 'CONST'
xdata$x	ENDS
text$AFX_COL1	SEGMENT PARA USE32 PUBLIC ''
text$AFX_COL1	ENDS
;	COMDAT ?CreateMover@@YAPAVCMover@@PAVCWorld@@KABUD3DXVECTOR3@@H@Z
_TEXT	SEGMENT PARA USE32 PUBLIC 'CODE'
_TEXT	ENDS
;	COMDAT ?CreateObj@@YAPAVCObj@@PAUIDirect3DDevice9@@KKH@Z
_TEXT	SEGMENT PARA USE32 PUBLIC 'CODE'
_TEXT	ENDS
;	COMDAT ?ReadObj@@YAPAVCObj@@PAVCFileIO@@@Z
_TEXT	SEGMENT PARA USE32 PUBLIC 'CODE'
_TEXT	ENDS
;	COMDAT ?CheckVersion@@YAHPAU_iobuf@@PBD1@Z
_TEXT	SEGMENT PARA USE32 PUBLIC 'CODE'
_TEXT	ENDS
;	COMDAT ?WriteVersion@@YAHPAU_iobuf@@PBD1@Z
_TEXT	SEGMENT PARA USE32 PUBLIC 'CODE'
_TEXT	ENDS
;	COMDAT ?CheckVersion@@YAHPAU_iobuf@@K@Z
_TEXT	SEGMENT PARA USE32 PUBLIC 'CODE'
_TEXT	ENDS
;	COMDAT ?WriteVersion@@YAHPAU_iobuf@@K@Z
_TEXT	SEGMENT PARA USE32 PUBLIC 'CODE'
_TEXT	ENDS
;	COMDAT ?compare@?$basic_string@DU?$char_traits@D@std@@V?$allocator@D@2@@std@@QBEHABV12@@Z
_TEXT	SEGMENT PARA USE32 PUBLIC 'CODE'
_TEXT	ENDS
;	COMDAT ?IsFull@?$CStack@K@@QAEHXZ
_TEXT	SEGMENT PARA USE32 PUBLIC 'CODE'
_TEXT	ENDS
;	COMDAT ??0?$pair@KPAVCCtrl@@@std@@QAE@ABKABQAVCCtrl@@@Z
_TEXT	SEGMENT PARA USE32 PUBLIC 'CODE'
_TEXT	ENDS
;	COMDAT ?GetMax@?$CItemContainer@VCItemElem@@@@QAEHXZ
_TEXT	SEGMENT PARA USE32 PUBLIC 'CODE'
_TEXT	ENDS
;	COMDAT ??0?$deque@PAUtagACTMSG@@V?$allocator@PAUtagACTMSG@@@std@@@std@@QAE@XZ
_TEXT	SEGMENT PARA USE32 PUBLIC 'CODE'
_TEXT	ENDS
;	COMDAT ??1?$deque@PAUtagACTMSG@@V?$allocator@PAUtagACTMSG@@@std@@@std@@QAE@XZ
_TEXT	SEGMENT PARA USE32 PUBLIC 'CODE'
_TEXT	ENDS
;	COMDAT ?begin@?$deque@PAUtagACTMSG@@V?$allocator@PAUtagACTMSG@@@std@@@std@@QAE?AViterator@12@XZ
_TEXT	SEGMENT PARA USE32 PUBLIC 'CODE'
_TEXT	ENDS
;	COMDAT ?end@?$deque@PAUtagACTMSG@@V?$allocator@PAUtagACTMSG@@@std@@@std@@QAE?AViterator@12@XZ
_TEXT	SEGMENT PARA USE32 PUBLIC 'CODE'
_TEXT	ENDS
;	COMDAT ?empty@?$deque@PAUtagACTMSG@@V?$allocator@PAUtagACTMSG@@@std@@@std@@QBE_NXZ
_TEXT	SEGMENT PARA USE32 PUBLIC 'CODE'
_TEXT	ENDS
;	COMDAT ?clear@?$deque@PAUtagACTMSG@@V?$allocator@PAUtagACTMSG@@@std@@@std@@QAEXXZ
_TEXT	SEGMENT PARA USE32 PUBLIC 'CODE'
_TEXT	ENDS
;	COMDAT ??0?$deque@PAUtagMAGICATKMSG@@V?$allocator@PAUtagMAGICATKMSG@@@std@@@std@@QAE@XZ
_TEXT	SEGMENT PARA USE32 PUBLIC 'CODE'
_TEXT	ENDS
;	COMDAT ??1?$deque@PAUtagMAGICATKMSG@@V?$allocator@PAUtagMAGICATKMSG@@@std@@@std@@QAE@XZ
_TEXT	SEGMENT PARA USE32 PUBLIC 'CODE'
_TEXT	ENDS
;	COMDAT ?begin@?$deque@PAUtagMAGICATKMSG@@V?$allocator@PAUtagMAGICATKMSG@@@std@@@std@@QAE?AViterator@12@XZ
_TEXT	SEGMENT PARA USE32 PUBLIC 'CODE'
_TEXT	ENDS
;	COMDAT ?end@?$deque@PAUtagMAGICATKMSG@@V?$allocator@PAUtagMAGICATKMSG@@@std@@@std@@QAE?AViterator@12@XZ
_TEXT	SEGMENT PARA USE32 PUBLIC 'CODE'
_TEXT	ENDS
;	COMDAT ?empty@?$deque@PAUtagMAGICATKMSG@@V?$allocator@PAUtagMAGICATKMSG@@@std@@@std@@QBE_NXZ
_TEXT	SEGMENT PARA USE32 PUBLIC 'CODE'
_TEXT	ENDS
;	COMDAT ?clear@?$deque@PAUtagMAGICATKMSG@@V?$allocator@PAUtagMAGICATKMSG@@@std@@@std@@QAEXXZ
_TEXT	SEGMENT PARA USE32 PUBLIC 'CODE'
_TEXT	ENDS
;	COMDAT ??Diterator@?$deque@PAUtagACTMSG@@V?$allocator@PAUtagACTMSG@@@std@@@std@@QBEAAPAUtagACTMSG@@XZ
_TEXT	SEGMENT PARA USE32 PUBLIC 'CODE'
_TEXT	ENDS
;	COMDAT ??Eiterator@?$deque@PAUtagACTMSG@@V?$allocator@PAUtagACTMSG@@@std@@@std@@QAEAAV012@XZ
_TEXT	SEGMENT PARA USE32 PUBLIC 'CODE'
_TEXT	ENDS
;	COMDAT ??9const_iterator@?$deque@PAUtagACTMSG@@V?$allocator@PAUtagACTMSG@@@std@@@std@@QBE_NABV012@@Z
_TEXT	SEGMENT PARA USE32 PUBLIC 'CODE'
_TEXT	ENDS
;	COMDAT ??Diterator@?$deque@PAUtagMAGICATKMSG@@V?$allocator@PAUtagMAGICATKMSG@@@std@@@std@@QBEAAPAUtagMAGICATKMSG@@XZ
_TEXT	SEGMENT PARA USE32 PUBLIC 'CODE'
_TEXT	ENDS
;	COMDAT ??Eiterator@?$deque@PAUtagMAGICATKMSG@@V?$allocator@PAUtagMAGICATKMSG@@@std@@@std@@QAEAAV012@XZ
_TEXT	SEGMENT PARA USE32 PUBLIC 'CODE'
_TEXT	ENDS
;	COMDAT ??9const_iterator@?$deque@PAUtagMAGICATKMSG@@V?$allocator@PAUtagMAGICATKMSG@@@std@@@std@@QBE_NABV012@@Z
_TEXT	SEGMENT PARA USE32 PUBLIC 'CODE'
_TEXT	ENDS
;	COMDAT ?compare@?$basic_string@DU?$char_traits@D@std@@V?$allocator@D@2@@std@@QBEHIIPBDI@Z
_TEXT	SEGMENT PARA USE32 PUBLIC 'CODE'
_TEXT	ENDS
;	COMDAT ?_Tidy@?$deque@PAUtagACTMSG@@V?$allocator@PAUtagACTMSG@@@std@@@std@@IAEXXZ
_TEXT	SEGMENT PARA USE32 PUBLIC 'CODE'
_TEXT	ENDS
;	COMDAT ??0?$_Deque_val@PAUtagACTMSG@@V?$allocator@PAUtagACTMSG@@@std@@@std@@IAE@V?$allocator@PAUtagACTMSG@@@1@@Z
_TEXT	SEGMENT PARA USE32 PUBLIC 'CODE'
_TEXT	ENDS
;	COMDAT ??0?$allocator@PAUtagACTMSG@@@std@@QAE@XZ
_TEXT	SEGMENT PARA USE32 PUBLIC 'CODE'
_TEXT	ENDS
;	COMDAT ?_Tidy@?$deque@PAUtagMAGICATKMSG@@V?$allocator@PAUtagMAGICATKMSG@@@std@@@std@@IAEXXZ
_TEXT	SEGMENT PARA USE32 PUBLIC 'CODE'
_TEXT	ENDS
;	COMDAT ??0?$_Deque_val@PAUtagMAGICATKMSG@@V?$allocator@PAUtagMAGICATKMSG@@@std@@@std@@IAE@V?$allocator@PAUtagMAGICATKMSG@@@1@@Z
_TEXT	SEGMENT PARA USE32 PUBLIC 'CODE'
_TEXT	ENDS
;	COMDAT ??0?$allocator@PAUtagMAGICATKMSG@@@std@@QAE@XZ
_TEXT	SEGMENT PARA USE32 PUBLIC 'CODE'
_TEXT	ENDS
;	COMDAT ??0iterator@?$deque@PAUtagACTMSG@@V?$allocator@PAUtagACTMSG@@@std@@@std@@QAE@IPBV12@@Z
_TEXT	SEGMENT PARA USE32 PUBLIC 'CODE'
_TEXT	ENDS
;	COMDAT ??Dconst_iterator@?$deque@PAUtagACTMSG@@V?$allocator@PAUtagACTMSG@@@std@@@std@@QBEABQAUtagACTMSG@@XZ
_TEXT	SEGMENT PARA USE32 PUBLIC 'CODE'
_TEXT	ENDS
;	COMDAT ??8const_iterator@?$deque@PAUtagACTMSG@@V?$allocator@PAUtagACTMSG@@@std@@@std@@QBE_NABV012@@Z
_TEXT	SEGMENT PARA USE32 PUBLIC 'CODE'
_TEXT	ENDS
;	COMDAT ??0iterator@?$deque@PAUtagMAGICATKMSG@@V?$allocator@PAUtagMAGICATKMSG@@@std@@@std@@QAE@IPBV12@@Z
_TEXT	SEGMENT PARA USE32 PUBLIC 'CODE'
_TEXT	ENDS
;	COMDAT ??Dconst_iterator@?$deque@PAUtagMAGICATKMSG@@V?$allocator@PAUtagMAGICATKMSG@@@std@@@std@@QBEABQAUtagMAGICATKMSG@@XZ
_TEXT	SEGMENT PARA USE32 PUBLIC 'CODE'
_TEXT	ENDS
;	COMDAT ??8const_iterator@?$deque@PAUtagMAGICATKMSG@@V?$allocator@PAUtagMAGICATKMSG@@@std@@@std@@QBE_NABV012@@Z
_TEXT	SEGMENT PARA USE32 PUBLIC 'CODE'
_TEXT	ENDS
;	COMDAT ?pop_back@?$deque@PAUtagACTMSG@@V?$allocator@PAUtagACTMSG@@@std@@@std@@QAEXXZ
_TEXT	SEGMENT PARA USE32 PUBLIC 'CODE'
_TEXT	ENDS
;	COMDAT ??0?$_Deque_map@PAUtagACTMSG@@V?$allocator@PAUtagACTMSG@@@std@@@std@@IAE@V?$allocator@PAUtagACTMSG@@@1@@Z
_TEXT	SEGMENT PARA USE32 PUBLIC 'CODE'
_TEXT	ENDS
;	COMDAT ??0?$allocator@PAUtagACTMSG@@@std@@QAE@ABV01@@Z
_TEXT	SEGMENT PARA USE32 PUBLIC 'CODE'
_TEXT	ENDS
;	COMDAT ?deallocate@?$allocator@PAUtagACTMSG@@@std@@QAEXPAPAUtagACTMSG@@I@Z
_TEXT	SEGMENT PARA USE32 PUBLIC 'CODE'
_TEXT	ENDS
;	COMDAT ?deallocate@?$allocator@PAPAUtagACTMSG@@@std@@QAEXPAPAPAUtagACTMSG@@I@Z
_TEXT	SEGMENT PARA USE32 PUBLIC 'CODE'
_TEXT	ENDS
;	COMDAT ?destroy@?$allocator@PAPAUtagACTMSG@@@std@@QAEXPAPAPAUtagACTMSG@@@Z
_TEXT	SEGMENT PARA USE32 PUBLIC 'CODE'
_TEXT	ENDS
;	COMDAT ?pop_back@?$deque@PAUtagMAGICATKMSG@@V?$allocator@PAUtagMAGICATKMSG@@@std@@@std@@QAEXXZ
_TEXT	SEGMENT PARA USE32 PUBLIC 'CODE'
_TEXT	ENDS
;	COMDAT ??0?$_Deque_map@PAUtagMAGICATKMSG@@V?$allocator@PAUtagMAGICATKMSG@@@std@@@std@@IAE@V?$allocator@PAUtagMAGICATKMSG@@@1@@Z
_TEXT	SEGMENT PARA USE32 PUBLIC 'CODE'
_TEXT	ENDS
;	COMDAT ??0?$allocator@PAUtagMAGICATKMSG@@@std@@QAE@ABV01@@Z
_TEXT	SEGMENT PARA USE32 PUBLIC 'CODE'
_TEXT	ENDS
;	COMDAT ?deallocate@?$allocator@PAUtagMAGICATKMSG@@@std@@QAEXPAPAUtagMAGICATKMSG@@I@Z
_TEXT	SEGMENT PARA USE32 PUBLIC 'CODE'
_TEXT	ENDS
;	COMDAT ?deallocate@?$allocator@PAPAUtagMAGICATKMSG@@@std@@QAEXPAPAPAUtagMAGICATKMSG@@I@Z
_TEXT	SEGMENT PARA USE32 PUBLIC 'CODE'
_TEXT	ENDS
;	COMDAT ?destroy@?$allocator@PAPAUtagMAGICATKMSG@@@std@@QAEXPAPAPAUtagMAGICATKMSG@@@Z
_TEXT	SEGMENT PARA USE32 PUBLIC 'CODE'
_TEXT	ENDS
;	COMDAT ??0const_iterator@?$deque@PAUtagACTMSG@@V?$allocator@PAUtagACTMSG@@@std@@@std@@QAE@IPBV12@@Z
_TEXT	SEGMENT PARA USE32 PUBLIC 'CODE'
_TEXT	ENDS
;	COMDAT ??0const_iterator@?$deque@PAUtagMAGICATKMSG@@V?$allocator@PAUtagMAGICATKMSG@@@std@@@std@@QAE@IPBV12@@Z
_TEXT	SEGMENT PARA USE32 PUBLIC 'CODE'
_TEXT	ENDS
;	COMDAT ?destroy@?$allocator@PAUtagACTMSG@@@std@@QAEXPAPAUtagACTMSG@@@Z
_TEXT	SEGMENT PARA USE32 PUBLIC 'CODE'
_TEXT	ENDS
;	COMDAT ?destroy@?$allocator@PAUtagMAGICATKMSG@@@std@@QAEXPAPAUtagMAGICATKMSG@@@Z
_TEXT	SEGMENT PARA USE32 PUBLIC 'CODE'
_TEXT	ENDS
;	COMDAT ??$_Iter_cat@Vconst_iterator@?$vector@EV?$allocator@E@std@@@std@@@std@@YA?AUrandom_access_iterator_tag@0@ABVconst_iterator@?$vector@EV?$allocator@E@std@@@0@@Z
_TEXT	SEGMENT PARA USE32 PUBLIC 'CODE'
_TEXT	ENDS
;	COMDAT ??$_Assign@Vconst_iterator@?$vector@EV?$allocator@E@std@@@std@@@?$vector@EV?$allocator@E@std@@@std@@QAEXVconst_iterator@01@0Uinput_iterator_tag@1@@Z
_TEXT	SEGMENT PARA USE32 PUBLIC 'CODE'
_TEXT	ENDS
;	COMDAT ??$_Iter_cat@Viterator@?$_Tree@V?$_Tmap_traits@KPAVCUser@@U?$less@K@std@@V?$allocator@U?$pair@$$CBKPAVCUser@@@std@@@3@$0A@@std@@@std@@@std@@YA?AUbidirectional_iterator_tag@0@ABViterator@?$_Tree@V?$_Tmap_traits@KPAVCUser@@U?$less@K@std@@V?$allocator@U?$pair@$$CBKPAVCUser@@@std@@@3@$0A@@std@@@0@@Z
_TEXT	SEGMENT PARA USE32 PUBLIC 'CODE'
_TEXT	ENDS
;	COMDAT ??$_Distance2@Viterator@?$_Tree@V?$_Tmap_traits@KPAVCUser@@U?$less@K@std@@V?$allocator@U?$pair@$$CBKPAVCUser@@@std@@@3@$0A@@std@@@std@@I@std@@YAXViterator@?$_Tree@V?$_Tmap_traits@KPAVCUser@@U?$less@K@std@@V?$allocator@U?$pair@$$CBKPAVCUser@@@std@@@3@$0A@@std@@@0@0AAIUbidirectional_iterator_tag@0@@Z
_TEXT	SEGMENT PARA USE32 PUBLIC 'CODE'
_TEXT	ENDS
;	COMDAT ??$_Iter_cat@Viterator@?$_Tree@V?$_Tmap_traits@KPAVCCtrl@@U?$less@K@std@@V?$allocator@U?$pair@$$CBKPAVCCtrl@@@std@@@3@$0A@@std@@@std@@@std@@YA?AUbidirectional_iterator_tag@0@ABViterator@?$_Tree@V?$_Tmap_traits@KPAVCCtrl@@U?$less@K@std@@V?$allocator@U?$pair@$$CBKPAVCCtrl@@@std@@@3@$0A@@std@@@0@@Z
_TEXT	SEGMENT PARA USE32 PUBLIC 'CODE'
_TEXT	ENDS
;	COMDAT ??$_Distance2@Viterator@?$_Tree@V?$_Tmap_traits@KPAVCCtrl@@U?$less@K@std@@V?$allocator@U?$pair@$$CBKPAVCCtrl@@@std@@@3@$0A@@std@@@std@@I@std@@YAXViterator@?$_Tree@V?$_Tmap_traits@KPAVCCtrl@@U?$less@K@std@@V?$allocator@U?$pair@$$CBKPAVCCtrl@@@std@@@3@$0A@@std@@@0@0AAIUbidirectional_iterator_tag@0@@Z
_TEXT	SEGMENT PARA USE32 PUBLIC 'CODE'
_TEXT	ENDS
;	COMDAT ??$_Uninitialized_copy@Vconst_iterator@?$vector@EV?$allocator@E@std@@@std@@PAEV?$allocator@E@3@@std@@YAPAEVconst_iterator@?$vector@EV?$allocator@E@std@@@0@0PAEAAV?$allocator@E@0@@Z
_TEXT	SEGMENT PARA USE32 PUBLIC 'CODE'
_TEXT	ENDS
;	COMDAT ??$_Iter_cat@Viterator@?$_Tree@V?$_Tmap_traits@KEU?$less@K@std@@V?$allocator@U?$pair@$$CBKE@std@@@2@$0A@@std@@@std@@@std@@YA?AUbidirectional_iterator_tag@0@ABViterator@?$_Tree@V?$_Tmap_traits@KEU?$less@K@std@@V?$allocator@U?$pair@$$CBKE@std@@@2@$0A@@std@@@0@@Z
_TEXT	SEGMENT PARA USE32 PUBLIC 'CODE'
_TEXT	ENDS
;	COMDAT ??$_Distance2@Viterator@?$_Tree@V?$_Tmap_traits@KEU?$less@K@std@@V?$allocator@U?$pair@$$CBKE@std@@@2@$0A@@std@@@std@@I@std@@YAXViterator@?$_Tree@V?$_Tmap_traits@KEU?$less@K@std@@V?$allocator@U?$pair@$$CBKE@std@@@2@$0A@@std@@@0@0AAIUbidirectional_iterator_tag@0@@Z
_TEXT	SEGMENT PARA USE32 PUBLIC 'CODE'
_TEXT	ENDS
;	COMDAT ??$_Ptr_cat@PAU__SPAWNREGION@CEventLua@@PAU12@@std@@YA?AU_Nonscalar_ptr_iterator_tag@0@AAPAU__SPAWNREGION@CEventLua@@0@Z
_TEXT	SEGMENT PARA USE32 PUBLIC 'CODE'
_TEXT	ENDS
;	COMDAT ??$_Uninit_fill_n@PAU__SPAWNREGION@CEventLua@@IU12@V?$allocator@U__SPAWNREGION@CEventLua@@@std@@@std@@YAXPAU__SPAWNREGION@CEventLua@@IABU12@AAV?$allocator@U__SPAWNREGION@CEventLua@@@0@U_Nonscalar_ptr_iterator_tag@0@@Z
_TEXT	SEGMENT PARA USE32 PUBLIC 'CODE'
_TEXT	ENDS
;	COMDAT ??$_Copy_opt@PAJPAJ@std@@YAPAJPAJ00U_Scalar_ptr_iterator_tag@0@@Z
_TEXT	SEGMENT PARA USE32 PUBLIC 'CODE'
_TEXT	ENDS
;	COMDAT ??$_Uninitialized_copy@PAJPAJV?$allocator@J@std@@@std@@YAPAJPAJ00AAV?$allocator@J@0@@Z
_TEXT	SEGMENT PARA USE32 PUBLIC 'CODE'
_TEXT	ENDS
;	COMDAT ??$_Copy_backward_opt@PAJPAJ@std@@YAPAJPAJ00U_Scalar_ptr_iterator_tag@0@@Z
_TEXT	SEGMENT PARA USE32 PUBLIC 'CODE'
_TEXT	ENDS
;	COMDAT ??$_Ptr_cat@PAUtagDROPITEM@@PAU1@@std@@YA?AU_Nonscalar_ptr_iterator_tag@0@AAPAUtagDROPITEM@@0@Z
_TEXT	SEGMENT PARA USE32 PUBLIC 'CODE'
_TEXT	ENDS
;	COMDAT ??$_Destroy_range@UtagDROPITEM@@V?$allocator@UtagDROPITEM@@@std@@@std@@YAXPAUtagDROPITEM@@0AAV?$allocator@UtagDROPITEM@@@0@U_Nonscalar_ptr_iterator_tag@0@@Z
_TEXT	SEGMENT PARA USE32 PUBLIC 'CODE'
_TEXT	ENDS
;	COMDAT ??$_Ptr_cat@PAUWORMON@@PAU1@@std@@YA?AU_Nonscalar_ptr_iterator_tag@0@AAPAUWORMON@@0@Z
_TEXT	SEGMENT PARA USE32 PUBLIC 'CODE'
_TEXT	ENDS
;	COMDAT ??$_Destroy_range@UWORMON@@V?$allocator@UWORMON@@@std@@@std@@YAXPAUWORMON@@0AAV?$allocator@UWORMON@@@0@U_Nonscalar_ptr_iterator_tag@0@@Z
_TEXT	SEGMENT PARA USE32 PUBLIC 'CODE'
_TEXT	ENDS
;	COMDAT ??$_Ptr_cat@PAU__ITEMGAME@CMiniGame@@PAU12@@std@@YA?AU_Nonscalar_ptr_iterator_tag@0@AAPAU__ITEMGAME@CMiniGame@@0@Z
_TEXT	SEGMENT PARA USE32 PUBLIC 'CODE'
_TEXT	ENDS
;	COMDAT ??$_Destroy_range@U__ITEMGAME@CMiniGame@@V?$allocator@U__ITEMGAME@CMiniGame@@@std@@@std@@YAXPAU__ITEMGAME@CMiniGame@@0AAV?$allocator@U__ITEMGAME@CMiniGame@@@0@U_Nonscalar_ptr_iterator_tag@0@@Z
_TEXT	SEGMENT PARA USE32 PUBLIC 'CODE'
_TEXT	ENDS
;	COMDAT ??$_Destroy_range@KV?$allocator@K@std@@@std@@YAXPAK0AAV?$allocator@K@0@U_Scalar_ptr_iterator_tag@0@@Z
_TEXT	SEGMENT PARA USE32 PUBLIC 'CODE'
_TEXT	ENDS
;	COMDAT ??$_Destroy_range@HV?$allocator@H@std@@@std@@YAXPAH0AAV?$allocator@H@0@U_Scalar_ptr_iterator_tag@0@@Z
_TEXT	SEGMENT PARA USE32 PUBLIC 'CODE'
_TEXT	ENDS
;	COMDAT ??$_Ptr_cat@PAU__ITEM@CExchange@@PAU12@@std@@YA?AU_Nonscalar_ptr_iterator_tag@0@AAPAU__ITEM@CExchange@@0@Z
_TEXT	SEGMENT PARA USE32 PUBLIC 'CODE'
_TEXT	ENDS
;	COMDAT ??$_Destroy_range@U__ITEM@CExchange@@V?$allocator@U__ITEM@CExchange@@@std@@@std@@YAXPAU__ITEM@CExchange@@0AAV?$allocator@U__ITEM@CExchange@@@0@U_Nonscalar_ptr_iterator_tag@0@@Z
_TEXT	SEGMENT PARA USE32 PUBLIC 'CODE'
_TEXT	ENDS
;	COMDAT ??$_Ptr_cat@PAU__POINT@CExchange@@PAU12@@std@@YA?AU_Nonscalar_ptr_iterator_tag@0@AAPAU__POINT@CExchange@@0@Z
_TEXT	SEGMENT PARA USE32 PUBLIC 'CODE'
_TEXT	ENDS
;	COMDAT ??$_Destroy_range@U__POINT@CExchange@@V?$allocator@U__POINT@CExchange@@@std@@@std@@YAXPAU__POINT@CExchange@@0AAV?$allocator@U__POINT@CExchange@@@0@U_Nonscalar_ptr_iterator_tag@0@@Z
_TEXT	SEGMENT PARA USE32 PUBLIC 'CODE'
_TEXT	ENDS
;	COMDAT ??$_Destroy_range@EV?$allocator@E@std@@@std@@YAXPAE0AAV?$allocator@E@0@U_Scalar_ptr_iterator_tag@0@@Z
_TEXT	SEGMENT PARA USE32 PUBLIC 'CODE'
_TEXT	ENDS
;	COMDAT ??$_Uninitialized_copy@PAU__SPAWNREGION@CEventLua@@PAU12@V?$allocator@U__SPAWNREGION@CEventLua@@@std@@@std@@YAPAU__SPAWNREGION@CEventLua@@PAU12@00AAV?$allocator@U__SPAWNREGION@CEventLua@@@0@@Z
_TEXT	SEGMENT PARA USE32 PUBLIC 'CODE'
_TEXT	ENDS
;	COMDAT ??$_Copy_backward_opt@PAU__SPAWNREGION@CEventLua@@PAU12@@std@@YAPAU__SPAWNREGION@CEventLua@@PAU12@00U_Nonscalar_ptr_iterator_tag@0@@Z
_TEXT	SEGMENT PARA USE32 PUBLIC 'CODE'
_TEXT	ENDS
;	COMDAT ??$_Ptr_cat@PAUD3DXVECTOR3@@PAU1@@std@@YA?AU_Nonscalar_ptr_iterator_tag@0@AAPAUD3DXVECTOR3@@0@Z
_TEXT	SEGMENT PARA USE32 PUBLIC 'CODE'
_TEXT	ENDS
;	COMDAT ??$_Destroy_range@UD3DXVECTOR3@@V?$allocator@UD3DXVECTOR3@@@std@@@std@@YAXPAUD3DXVECTOR3@@0AAV?$allocator@UD3DXVECTOR3@@@0@U_Nonscalar_ptr_iterator_tag@0@@Z
_TEXT	SEGMENT PARA USE32 PUBLIC 'CODE'
_TEXT	ENDS
;	COMDAT ??$_Ptr_cat@PAU_GIFTBOX@@PAU1@@std@@YA?AU_Nonscalar_ptr_iterator_tag@0@AAPAU_GIFTBOX@@0@Z
_TEXT	SEGMENT PARA USE32 PUBLIC 'CODE'
_TEXT	ENDS
;	COMDAT ??$_Destroy_range@U_GIFTBOX@@V?$allocator@U_GIFTBOX@@@std@@@std@@YAXPAU_GIFTBOX@@0AAV?$allocator@U_GIFTBOX@@@0@U_Nonscalar_ptr_iterator_tag@0@@Z
_TEXT	SEGMENT PARA USE32 PUBLIC 'CODE'
_TEXT	ENDS
;	COMDAT ??$_Destroy_range@JV?$allocator@J@std@@@std@@YAXPAJ0AAV?$allocator@J@0@U_Scalar_ptr_iterator_tag@0@@Z
_TEXT	SEGMENT PARA USE32 PUBLIC 'CODE'
_TEXT	ENDS
;	COMDAT ??$_Uninit_fill_n@JIJ@std@@YAXPAJIABJAAV?$allocator@J@0@U_Scalar_ptr_iterator_tag@0@@Z
_TEXT	SEGMENT PARA USE32 PUBLIC 'CODE'
_TEXT	ENDS
;	COMDAT ??$_Destroy_range@U__SPAWNREGION@CEventLua@@V?$allocator@U__SPAWNREGION@CEventLua@@@std@@@std@@YAXPAU__SPAWNREGION@CEventLua@@0AAV?$allocator@U__SPAWNREGION@CEventLua@@@0@U_Nonscalar_ptr_iterator_tag@0@@Z
_TEXT	SEGMENT PARA USE32 PUBLIC 'CODE'
_TEXT	ENDS
;	COMDAT ??$?0PAUtagACTMSG@@@?$allocator@PAPAUtagACTMSG@@@std@@QAE@ABV?$allocator@PAUtagACTMSG@@@1@@Z
_TEXT	SEGMENT PARA USE32 PUBLIC 'CODE'
_TEXT	ENDS
;	COMDAT ??$_Destroy@PAPAUtagACTMSG@@@std@@YAXPAPAPAUtagACTMSG@@@Z
_TEXT	SEGMENT PARA USE32 PUBLIC 'CODE'
_TEXT	ENDS
;	COMDAT ??$?0PAUtagMAGICATKMSG@@@?$allocator@PAPAUtagMAGICATKMSG@@@std@@QAE@ABV?$allocator@PAUtagMAGICATKMSG@@@1@@Z
_TEXT	SEGMENT PARA USE32 PUBLIC 'CODE'
_TEXT	ENDS
;	COMDAT ??$_Destroy@PAPAUtagMAGICATKMSG@@@std@@YAXPAPAPAUtagMAGICATKMSG@@@Z
_TEXT	SEGMENT PARA USE32 PUBLIC 'CODE'
_TEXT	ENDS
;	COMDAT ??$_Destroy@PAUtagACTMSG@@@std@@YAXPAPAUtagACTMSG@@@Z
_TEXT	SEGMENT PARA USE32 PUBLIC 'CODE'
_TEXT	ENDS
;	COMDAT ??$_Destroy@PAUtagMAGICATKMSG@@@std@@YAXPAPAUtagMAGICATKMSG@@@Z
_TEXT	SEGMENT PARA USE32 PUBLIC 'CODE'
_TEXT	ENDS
;	COMDAT ?destroy@?$allocator@UtagDROPITEM@@@std@@QAEXPAUtagDROPITEM@@@Z
_TEXT	SEGMENT PARA USE32 PUBLIC 'CODE'
_TEXT	ENDS
;	COMDAT ?destroy@?$allocator@UWORMON@@@std@@QAEXPAUWORMON@@@Z
_TEXT	SEGMENT PARA USE32 PUBLIC 'CODE'
_TEXT	ENDS
;	COMDAT ?destroy@?$allocator@U__ITEMGAME@CMiniGame@@@std@@QAEXPAU__ITEMGAME@CMiniGame@@@Z
_TEXT	SEGMENT PARA USE32 PUBLIC 'CODE'
_TEXT	ENDS
;	COMDAT ?destroy@?$allocator@U__ITEM@CExchange@@@std@@QAEXPAU__ITEM@CExchange@@@Z
_TEXT	SEGMENT PARA USE32 PUBLIC 'CODE'
_TEXT	ENDS
;	COMDAT ?destroy@?$allocator@U__POINT@CExchange@@@std@@QAEXPAU__POINT@CExchange@@@Z
_TEXT	SEGMENT PARA USE32 PUBLIC 'CODE'
_TEXT	ENDS
;	COMDAT ?begin@?$vector@EV?$allocator@E@std@@@std@@QAE?AViterator@12@XZ
_TEXT	SEGMENT PARA USE32 PUBLIC 'CODE'
_TEXT	ENDS
;	COMDAT ?end@?$vector@EV?$allocator@E@std@@@std@@QAE?AViterator@12@XZ
_TEXT	SEGMENT PARA USE32 PUBLIC 'CODE'
_TEXT	ENDS
;	COMDAT ?erase@?$vector@EV?$allocator@E@std@@@std@@QAE?AViterator@12@V312@0@Z
_TEXT	SEGMENT PARA USE32 PUBLIC 'CODE'
_TEXT	ENDS
;	COMDAT ?construct@?$allocator@U__SPAWNREGION@CEventLua@@@std@@QAEXPAU__SPAWNREGION@CEventLua@@ABU34@@Z
_TEXT	SEGMENT PARA USE32 PUBLIC 'CODE'
_TEXT	ENDS
;	COMDAT ?destroy@?$allocator@U__SPAWNREGION@CEventLua@@@std@@QAEXPAU__SPAWNREGION@CEventLua@@@Z
_TEXT	SEGMENT PARA USE32 PUBLIC 'CODE'
_TEXT	ENDS
;	COMDAT ?destroy@?$allocator@UD3DXVECTOR3@@@std@@QAEXPAUD3DXVECTOR3@@@Z
_TEXT	SEGMENT PARA USE32 PUBLIC 'CODE'
_TEXT	ENDS
;	COMDAT ?destroy@?$allocator@U_GIFTBOX@@@std@@QAEXPAU_GIFTBOX@@@Z
_TEXT	SEGMENT PARA USE32 PUBLIC 'CODE'
_TEXT	ENDS
;	COMDAT ??9const_iterator@?$vector@EV?$allocator@E@std@@@std@@QBE_NABV012@@Z
_TEXT	SEGMENT PARA USE32 PUBLIC 'CODE'
_TEXT	ENDS
;	COMDAT ??0iterator@?$vector@EV?$allocator@E@std@@@std@@QAE@PAE@Z
_TEXT	SEGMENT PARA USE32 PUBLIC 'CODE'
_TEXT	ENDS
;	COMDAT ??8const_iterator@?$vector@EV?$allocator@E@std@@@std@@QBE_NABV012@@Z
_TEXT	SEGMENT PARA USE32 PUBLIC 'CODE'
_TEXT	ENDS
;	COMDAT ??$insert@Vconst_iterator@?$vector@EV?$allocator@E@std@@@std@@@?$vector@EV?$allocator@E@std@@@std@@QAEXViterator@01@Vconst_iterator@01@1@Z
_TEXT	SEGMENT PARA USE32 PUBLIC 'CODE'
_TEXT	ENDS
;	COMDAT ??$_Ptr_cat@Vconst_iterator@?$vector@EV?$allocator@E@std@@@std@@PAE@std@@YA?AU_Nonscalar_ptr_iterator_tag@0@AAVconst_iterator@?$vector@EV?$allocator@E@std@@@0@AAPAE@Z
_TEXT	SEGMENT PARA USE32 PUBLIC 'CODE'
_TEXT	ENDS
;	COMDAT ??$_Uninit_copy@Vconst_iterator@?$vector@EV?$allocator@E@std@@@std@@PAEV?$allocator@E@3@@std@@YAPAEVconst_iterator@?$vector@EV?$allocator@E@std@@@0@0PAEAAV?$allocator@E@0@U_Nonscalar_ptr_iterator_tag@0@@Z
_TEXT	SEGMENT PARA USE32 PUBLIC 'CODE'
_TEXT	ENDS
;	COMDAT ??$_Uninit_copy@JJ@std@@YAPAJPAJ00AAV?$allocator@J@0@U_Scalar_ptr_iterator_tag@0@@Z
_TEXT	SEGMENT PARA USE32 PUBLIC 'CODE'
_TEXT	ENDS
;	COMDAT ??$_Uninit_copy@PAU__SPAWNREGION@CEventLua@@PAU12@V?$allocator@U__SPAWNREGION@CEventLua@@@std@@@std@@YAPAU__SPAWNREGION@CEventLua@@PAU12@00AAV?$allocator@U__SPAWNREGION@CEventLua@@@0@U_Nonscalar_ptr_iterator_tag@0@@Z
_TEXT	SEGMENT PARA USE32 PUBLIC 'CODE'
_TEXT	ENDS
;	COMDAT ??$fill_n@PAJIJ@std@@YAXPAJIABJ@Z
_TEXT	SEGMENT PARA USE32 PUBLIC 'CODE'
_TEXT	ENDS
;	COMDAT ??$_Destroy@UtagDROPITEM@@@std@@YAXPAUtagDROPITEM@@@Z
_TEXT	SEGMENT PARA USE32 PUBLIC 'CODE'
_TEXT	ENDS
;	COMDAT ??$_Destroy@UWORMON@@@std@@YAXPAUWORMON@@@Z
_TEXT	SEGMENT PARA USE32 PUBLIC 'CODE'
_TEXT	ENDS
;	COMDAT ??$_Destroy@U__ITEMGAME@CMiniGame@@@std@@YAXPAU__ITEMGAME@CMiniGame@@@Z
_TEXT	SEGMENT PARA USE32 PUBLIC 'CODE'
_TEXT	ENDS
;	COMDAT ??$_Destroy@U__ITEM@CExchange@@@std@@YAXPAU__ITEM@CExchange@@@Z
_TEXT	SEGMENT PARA USE32 PUBLIC 'CODE'
_TEXT	ENDS
;	COMDAT ??$_Destroy@U__POINT@CExchange@@@std@@YAXPAU__POINT@CExchange@@@Z
_TEXT	SEGMENT PARA USE32 PUBLIC 'CODE'
_TEXT	ENDS
;	COMDAT ??$copy@PAEPAE@std@@YAPAEPAE00@Z
_TEXT	SEGMENT PARA USE32 PUBLIC 'CODE'
_TEXT	ENDS
;	COMDAT ??$_Construct@U__SPAWNREGION@CEventLua@@U12@@std@@YAXPAU__SPAWNREGION@CEventLua@@ABU12@@Z
_TEXT	SEGMENT PARA USE32 PUBLIC 'CODE'
_TEXT	ENDS
;	COMDAT ??$_Destroy@U__SPAWNREGION@CEventLua@@@std@@YAXPAU__SPAWNREGION@CEventLua@@@Z
_TEXT	SEGMENT PARA USE32 PUBLIC 'CODE'
_TEXT	ENDS
;	COMDAT ??$_Destroy@UD3DXVECTOR3@@@std@@YAXPAUD3DXVECTOR3@@@Z
_TEXT	SEGMENT PARA USE32 PUBLIC 'CODE'
_TEXT	ENDS
;	COMDAT ??$_Destroy@U_GIFTBOX@@@std@@YAXPAU_GIFTBOX@@@Z
_TEXT	SEGMENT PARA USE32 PUBLIC 'CODE'
_TEXT	ENDS
;	COMDAT ?construct@?$allocator@E@std@@QAEXPAEABE@Z
_TEXT	SEGMENT PARA USE32 PUBLIC 'CODE'
_TEXT	ENDS
;	COMDAT ?destroy@?$allocator@E@std@@QAEXPAE@Z
_TEXT	SEGMENT PARA USE32 PUBLIC 'CODE'
_TEXT	ENDS
;	COMDAT ??Dconst_iterator@?$vector@EV?$allocator@E@std@@@std@@QBEABEXZ
_TEXT	SEGMENT PARA USE32 PUBLIC 'CODE'
_TEXT	ENDS
;	COMDAT ??Econst_iterator@?$vector@EV?$allocator@E@std@@@std@@QAEAAV012@XZ
_TEXT	SEGMENT PARA USE32 PUBLIC 'CODE'
_TEXT	ENDS
;	COMDAT ??$_Insert@Vconst_iterator@?$vector@EV?$allocator@E@std@@@std@@@?$vector@EV?$allocator@E@std@@@std@@QAEXViterator@01@Vconst_iterator@01@1Uforward_iterator_tag@1@@Z
_TEXT	SEGMENT PARA USE32 PUBLIC 'CODE'
_TEXT	ENDS
;	COMDAT ??$_Copy_opt@PAEPAE@std@@YAPAEPAE00U_Scalar_ptr_iterator_tag@0@@Z
_TEXT	SEGMENT PARA USE32 PUBLIC 'CODE'
_TEXT	ENDS
;	COMDAT ??$_Construct@EE@std@@YAXPAEABE@Z
_TEXT	SEGMENT PARA USE32 PUBLIC 'CODE'
_TEXT	ENDS
;	COMDAT ??$_Destroy@E@std@@YAXPAE@Z
_TEXT	SEGMENT PARA USE32 PUBLIC 'CODE'
_TEXT	ENDS
;	COMDAT ?capacity@?$vector@EV?$allocator@E@std@@@std@@QBEIXZ
_TEXT	SEGMENT PARA USE32 PUBLIC 'CODE'
_TEXT	ENDS
;	COMDAT ??Giterator@?$vector@EV?$allocator@E@std@@@std@@QBEHABVconst_iterator@12@@Z
_TEXT	SEGMENT PARA USE32 PUBLIC 'CODE'
_TEXT	ENDS
;	COMDAT ??Gconst_iterator@?$vector@EV?$allocator@E@std@@@std@@QBEHABV012@@Z
_TEXT	SEGMENT PARA USE32 PUBLIC 'CODE'
_TEXT	ENDS
;	COMDAT ??$_Distance@Vconst_iterator@?$vector@EV?$allocator@E@std@@@std@@I@std@@YAXVconst_iterator@?$vector@EV?$allocator@E@std@@@0@0AAI@Z
_TEXT	SEGMENT PARA USE32 PUBLIC 'CODE'
_TEXT	ENDS
;	COMDAT ??$_Ucopy@PAE@?$vector@EV?$allocator@E@std@@@std@@IAEPAEPAE00@Z
_TEXT	SEGMENT PARA USE32 PUBLIC 'CODE'
_TEXT	ENDS
;	COMDAT ??$advance@Vconst_iterator@?$vector@EV?$allocator@E@std@@@std@@H@std@@YAXAAVconst_iterator@?$vector@EV?$allocator@E@std@@@0@H@Z
_TEXT	SEGMENT PARA USE32 PUBLIC 'CODE'
_TEXT	ENDS
;	COMDAT ??$copy@Vconst_iterator@?$vector@EV?$allocator@E@std@@@std@@PAE@std@@YAPAEVconst_iterator@?$vector@EV?$allocator@E@std@@@0@0PAE@Z
_TEXT	SEGMENT PARA USE32 PUBLIC 'CODE'
_TEXT	ENDS
;	COMDAT ??$copy_backward@PAEPAE@std@@YAPAEPAE00@Z
_TEXT	SEGMENT PARA USE32 PUBLIC 'CODE'
_TEXT	ENDS
;	COMDAT ??$_Distance2@Vconst_iterator@?$vector@EV?$allocator@E@std@@@std@@I@std@@YAXVconst_iterator@?$vector@EV?$allocator@E@std@@@0@0AAIUrandom_access_iterator_tag@0@@Z
_TEXT	SEGMENT PARA USE32 PUBLIC 'CODE'
_TEXT	ENDS
;	COMDAT ??$_Uninitialized_copy@PAEPAEV?$allocator@E@std@@@std@@YAPAEPAE00AAV?$allocator@E@0@@Z
_TEXT	SEGMENT PARA USE32 PUBLIC 'CODE'
_TEXT	ENDS
;	COMDAT ??$_Advance@Vconst_iterator@?$vector@EV?$allocator@E@std@@@std@@H@std@@YAXAAVconst_iterator@?$vector@EV?$allocator@E@std@@@0@HUrandom_access_iterator_tag@0@@Z
_TEXT	SEGMENT PARA USE32 PUBLIC 'CODE'
_TEXT	ENDS
;	COMDAT ??$_Copy_opt@Vconst_iterator@?$vector@EV?$allocator@E@std@@@std@@PAE@std@@YAPAEVconst_iterator@?$vector@EV?$allocator@E@std@@@0@0PAEU_Nonscalar_ptr_iterator_tag@0@@Z
_TEXT	SEGMENT PARA USE32 PUBLIC 'CODE'
_TEXT	ENDS
;	COMDAT ??$_Copy_backward_opt@PAEPAE@std@@YAPAEPAE00U_Scalar_ptr_iterator_tag@0@@Z
_TEXT	SEGMENT PARA USE32 PUBLIC 'CODE'
_TEXT	ENDS
;	COMDAT ??Yconst_iterator@?$vector@EV?$allocator@E@std@@@std@@QAEAAV012@H@Z
_TEXT	SEGMENT PARA USE32 PUBLIC 'CODE'
_TEXT	ENDS
;	COMDAT ??$_Uninit_copy@EE@std@@YAPAEPAE00AAV?$allocator@E@0@U_Scalar_ptr_iterator_tag@0@@Z
_TEXT	SEGMENT PARA USE32 PUBLIC 'CODE'
_TEXT	ENDS
;	COMDAT ?deallocate@?$allocator@E@std@@QAEXPAEI@Z
_TEXT	SEGMENT PARA USE32 PUBLIC 'CODE'
_TEXT	ENDS
;	COMDAT ??$_Ucopy@Vconst_iterator@?$vector@EV?$allocator@E@std@@@std@@@?$vector@EV?$allocator@E@std@@@std@@IAEPAEVconst_iterator@01@0PAE@Z
_TEXT	SEGMENT PARA USE32 PUBLIC 'CODE'
_TEXT	ENDS
;	COMDAT ?allocate@?$allocator@E@std@@QAEPAEI@Z
_TEXT	SEGMENT PARA USE32 PUBLIC 'CODE'
_TEXT	ENDS
;	COMDAT ??$_Allocate@E@std@@YAPAEIPAE@Z
_TEXT	SEGMENT PARA USE32 PUBLIC 'CODE'
_TEXT	ENDS
;	COMDAT ?_Xlen@?$vector@EV?$allocator@E@std@@@std@@IBEXXZ
_TEXT	SEGMENT PARA USE32 PUBLIC 'CODE'
_TEXT	ENDS
;	COMDAT ??0length_error@std@@QAE@ABV?$basic_string@DU?$char_traits@D@std@@V?$allocator@D@2@@1@@Z
_TEXT	SEGMENT PARA USE32 PUBLIC 'CODE'
_TEXT	ENDS
;	COMDAT ??0logic_error@std@@QAE@ABV?$basic_string@DU?$char_traits@D@std@@V?$allocator@D@2@@1@@Z
_TEXT	SEGMENT PARA USE32 PUBLIC 'CODE'
_TEXT	ENDS
;	COMDAT ??_7logic_error@std@@6B@
CONST	SEGMENT DWORD USE32 PUBLIC 'CONST'
CONST	ENDS
;	COMDAT ??_Glogic_error@std@@UAEPAXI@Z
_TEXT	SEGMENT PARA USE32 PUBLIC 'CODE'
_TEXT	ENDS
;	COMDAT ?what@logic_error@std@@UBEPBDXZ
_TEXT	SEGMENT PARA USE32 PUBLIC 'CODE'
_TEXT	ENDS
;	COMDAT ?c_str@?$basic_string@DU?$char_traits@D@std@@V?$allocator@D@2@@std@@QBEPBDXZ
_TEXT	SEGMENT PARA USE32 PUBLIC 'CODE'
_TEXT	ENDS
;	COMDAT ??0?$basic_string@DU?$char_traits@D@std@@V?$allocator@D@2@@std@@QAE@ABV01@@Z
_TEXT	SEGMENT PARA USE32 PUBLIC 'CODE'
_TEXT	ENDS
;	COMDAT ??0?$_String_val@DV?$allocator@D@std@@@std@@IAE@V?$allocator@D@1@@Z
_TEXT	SEGMENT PARA USE32 PUBLIC 'CODE'
_TEXT	ENDS
;	COMDAT ??0?$allocator@D@std@@QAE@ABV01@@Z
_TEXT	SEGMENT PARA USE32 PUBLIC 'CODE'
_TEXT	ENDS
;	COMDAT ?_Tidy@?$basic_string@DU?$char_traits@D@std@@V?$allocator@D@2@@std@@IAEX_NI@Z
_TEXT	SEGMENT PARA USE32 PUBLIC 'CODE'
_TEXT	ENDS
;	COMDAT ?copy@?$char_traits@D@std@@SAPADPADPBDI@Z
_TEXT	SEGMENT PARA USE32 PUBLIC 'CODE'
_TEXT	ENDS
;	COMDAT ?deallocate@?$allocator@D@std@@QAEXPADI@Z
_TEXT	SEGMENT PARA USE32 PUBLIC 'CODE'
_TEXT	ENDS
;	COMDAT ?_Eos@?$basic_string@DU?$char_traits@D@std@@V?$allocator@D@2@@std@@IAEXI@Z
_TEXT	SEGMENT PARA USE32 PUBLIC 'CODE'
_TEXT	ENDS
;	COMDAT ?assign@?$char_traits@D@std@@SAXAADABD@Z
_TEXT	SEGMENT PARA USE32 PUBLIC 'CODE'
_TEXT	ENDS
;	COMDAT ?_Myptr@?$basic_string@DU?$char_traits@D@std@@V?$allocator@D@2@@std@@QAEPADXZ
_TEXT	SEGMENT PARA USE32 PUBLIC 'CODE'
_TEXT	ENDS
;	COMDAT ?assign@?$basic_string@DU?$char_traits@D@std@@V?$allocator@D@2@@std@@QAEAAV12@ABV12@II@Z
_TEXT	SEGMENT PARA USE32 PUBLIC 'CODE'
_TEXT	ENDS
;	COMDAT ?erase@?$basic_string@DU?$char_traits@D@std@@V?$allocator@D@2@@std@@QAEAAV12@II@Z
_TEXT	SEGMENT PARA USE32 PUBLIC 'CODE'
_TEXT	ENDS
;	COMDAT ?move@?$char_traits@D@std@@SAPADPADPBDI@Z
_TEXT	SEGMENT PARA USE32 PUBLIC 'CODE'
_TEXT	ENDS
;	COMDAT ?_Grow@?$basic_string@DU?$char_traits@D@std@@V?$allocator@D@2@@std@@IAE_NI_N@Z
_TEXT	SEGMENT PARA USE32 PUBLIC 'CODE'
_TEXT	ENDS
;	COMDAT ?max_size@?$basic_string@DU?$char_traits@D@std@@V?$allocator@D@2@@std@@QBEIXZ
_TEXT	SEGMENT PARA USE32 PUBLIC 'CODE'
_TEXT	ENDS
;	COMDAT ?max_size@?$allocator@D@std@@QBEIXZ
_TEXT	SEGMENT PARA USE32 PUBLIC 'CODE'
_TEXT	ENDS
;	COMDAT ?_Copy@?$basic_string@DU?$char_traits@D@std@@V?$allocator@D@2@@std@@IAEXII@Z
_TEXT	SEGMENT PARA USE32 PUBLIC 'CODE'
_TEXT	ENDS
;	COMDAT ?allocate@?$allocator@D@std@@QAEPADI@Z
_TEXT	SEGMENT PARA USE32 PUBLIC 'CODE'
_TEXT	ENDS
;	COMDAT ??$_Allocate@D@std@@YAPADIPAD@Z
_TEXT	SEGMENT PARA USE32 PUBLIC 'CODE'
_TEXT	ENDS
;	COMDAT ?npos@?$basic_string@DU?$char_traits@D@std@@V?$allocator@D@2@@std@@2IB
CONST	SEGMENT DWORD USE32 PUBLIC 'CONST'
CONST	ENDS
;	COMDAT ??1logic_error@std@@UAE@XZ
_TEXT	SEGMENT PARA USE32 PUBLIC 'CODE'
_TEXT	ENDS
;	COMDAT ??_7length_error@std@@6B@
CONST	SEGMENT DWORD USE32 PUBLIC 'CONST'
CONST	ENDS
;	COMDAT ??_Glength_error@std@@UAEPAXI@Z
_TEXT	SEGMENT PARA USE32 PUBLIC 'CODE'
_TEXT	ENDS
;	COMDAT ??1length_error@std@@UAE@XZ
_TEXT	SEGMENT PARA USE32 PUBLIC 'CODE'
_TEXT	ENDS
;	COMDAT ??0?$basic_string@DU?$char_traits@D@std@@V?$allocator@D@2@@std@@QAE@PBD@Z
_TEXT	SEGMENT PARA USE32 PUBLIC 'CODE'
_TEXT	ENDS
;	COMDAT ??0?$allocator@D@std@@QAE@XZ
_TEXT	SEGMENT PARA USE32 PUBLIC 'CODE'
_TEXT	ENDS
;	COMDAT ?assign@?$basic_string@DU?$char_traits@D@std@@V?$allocator@D@2@@std@@QAEAAV12@PBD@Z
_TEXT	SEGMENT PARA USE32 PUBLIC 'CODE'
_TEXT	ENDS
;	COMDAT ?assign@?$basic_string@DU?$char_traits@D@std@@V?$allocator@D@2@@std@@QAEAAV12@PBDI@Z
_TEXT	SEGMENT PARA USE32 PUBLIC 'CODE'
_TEXT	ENDS
;	COMDAT ?_Inside@?$basic_string@DU?$char_traits@D@std@@V?$allocator@D@2@@std@@IAE_NPBD@Z
_TEXT	SEGMENT PARA USE32 PUBLIC 'CODE'
_TEXT	ENDS
;	COMDAT ?length@?$char_traits@D@std@@SAIPBD@Z
_TEXT	SEGMENT PARA USE32 PUBLIC 'CODE'
_TEXT	ENDS
;	COMDAT ??_C@_0BD@OLBABOEK@vector?$DMT?$DO?5too?5long?$AA@
CONST	SEGMENT DWORD USE32 PUBLIC 'CONST'
CONST	ENDS
;	COMDAT ??1?$basic_string@DU?$char_traits@D@std@@V?$allocator@D@2@@std@@QAE@XZ
_TEXT	SEGMENT PARA USE32 PUBLIC 'CODE'
_TEXT	ENDS
;	COMDAT __TI3?AVlength_error@std@@
xdata$x	SEGMENT DWORD USE32 PUBLIC 'CONST'
xdata$x	ENDS
;	COMDAT __CTA3?AVlength_error@std@@
xdata$x	SEGMENT DWORD USE32 PUBLIC 'CONST'
xdata$x	ENDS
;	COMDAT __CT??_R0?AVlength_error@std@@@8??0length_error@std@@QAE@ABV01@@Z40
xdata$x	SEGMENT DWORD USE32 PUBLIC 'CONST'
xdata$x	ENDS
;	COMDAT ??_R0?AVlength_error@std@@@8
_DATA	SEGMENT DWORD USE32 PUBLIC 'DATA'
_DATA	ENDS
;	COMDAT ??0length_error@std@@QAE@ABV01@@Z
_TEXT	SEGMENT PARA USE32 PUBLIC 'CODE'
_TEXT	ENDS
;	COMDAT ??0logic_error@std@@QAE@ABV01@@Z
_TEXT	SEGMENT PARA USE32 PUBLIC 'CODE'
_TEXT	ENDS
;	COMDAT __CT??_R0?AVlogic_error@std@@@8??0logic_error@std@@QAE@ABV01@@Z40
xdata$x	SEGMENT DWORD USE32 PUBLIC 'CONST'
xdata$x	ENDS
;	COMDAT ??_R0?AVlogic_error@std@@@8
_DATA	SEGMENT DWORD USE32 PUBLIC 'DATA'
_DATA	ENDS
;	COMDAT __CT??_R0?AVexception@@@8??0exception@@QAE@ABV0@@Z12
xdata$x	SEGMENT DWORD USE32 PUBLIC 'CONST'
xdata$x	ENDS
;	COMDAT ??_R0?AVexception@@@8
_DATA	SEGMENT DWORD USE32 PUBLIC 'DATA'
_DATA	ENDS
;	COMDAT ?size@?$vector@EV?$allocator@E@std@@@std@@QBEIXZ
_TEXT	SEGMENT PARA USE32 PUBLIC 'CODE'
_TEXT	ENDS
;	COMDAT ?max_size@?$vector@EV?$allocator@E@std@@@std@@QBEIXZ
_TEXT	SEGMENT PARA USE32 PUBLIC 'CODE'
_TEXT	ENDS
;	COMDAT ?max_size@?$allocator@E@std@@QBEIXZ
_TEXT	SEGMENT PARA USE32 PUBLIC 'CODE'
_TEXT	ENDS
;	COMDAT ??2@YAPAXIPAX@Z
_TEXT	SEGMENT PARA USE32 PUBLIC 'CODE'
_TEXT	ENDS
;	COMDAT ?_Ptr_cat@std@@YA?AU_Scalar_ptr_iterator_tag@1@PAE0@Z
_TEXT	SEGMENT PARA USE32 PUBLIC 'CODE'
_TEXT	ENDS
;	COMDAT ??0const_iterator@?$vector@EV?$allocator@E@std@@@std@@QAE@PAE@Z
_TEXT	SEGMENT PARA USE32 PUBLIC 'CODE'
_TEXT	ENDS
;	COMDAT ?_Destroy@?$vector@EV?$allocator@E@std@@@std@@IAEXPAE0@Z
_TEXT	SEGMENT PARA USE32 PUBLIC 'CODE'
_TEXT	ENDS
;	COMDAT ??$_Destroy_range@EV?$allocator@E@std@@@std@@YAXPAE0AAV?$allocator@E@0@@Z
_TEXT	SEGMENT PARA USE32 PUBLIC 'CODE'
_TEXT	ENDS
;	COMDAT ?_Ptr_cat@std@@YA?AU_Scalar_ptr_iterator_tag@1@PAJ0@Z
_TEXT	SEGMENT PARA USE32 PUBLIC 'CODE'
_TEXT	ENDS
;	COMDAT ??9const_iterator@?$_Tree@V?$_Tmap_traits@KEU?$less@K@std@@V?$allocator@U?$pair@$$CBKE@std@@@2@$0A@@std@@@std@@QBE_NABV012@@Z
_TEXT	SEGMENT PARA USE32 PUBLIC 'CODE'
_TEXT	ENDS
;	COMDAT ??8const_iterator@?$_Tree@V?$_Tmap_traits@KEU?$less@K@std@@V?$allocator@U?$pair@$$CBKE@std@@@2@$0A@@std@@@std@@QBE_NABV012@@Z
_TEXT	SEGMENT PARA USE32 PUBLIC 'CODE'
_TEXT	ENDS
;	COMDAT ??Eiterator@?$_Tree@V?$_Tmap_traits@KEU?$less@K@std@@V?$allocator@U?$pair@$$CBKE@std@@@2@$0A@@std@@@std@@QAEAAV012@XZ
_TEXT	SEGMENT PARA USE32 PUBLIC 'CODE'
_TEXT	ENDS
;	COMDAT ??Econst_iterator@?$_Tree@V?$_Tmap_traits@KEU?$less@K@std@@V?$allocator@U?$pair@$$CBKE@std@@@2@$0A@@std@@@std@@QAEAAV012@XZ
_TEXT	SEGMENT PARA USE32 PUBLIC 'CODE'
_TEXT	ENDS
;	COMDAT ?_Inc@const_iterator@?$_Tree@V?$_Tmap_traits@KEU?$less@K@std@@V?$allocator@U?$pair@$$CBKE@std@@@2@$0A@@std@@@std@@QAEXXZ
_TEXT	SEGMENT PARA USE32 PUBLIC 'CODE'
_TEXT	ENDS
;	COMDAT ?_Min@?$_Tree@V?$_Tmap_traits@KEU?$less@K@std@@V?$allocator@U?$pair@$$CBKE@std@@@2@$0A@@std@@@std@@KAPAU_Node@?$_Tree_nod@V?$_Tmap_traits@KEU?$less@K@std@@V?$allocator@U?$pair@$$CBKE@std@@@2@$0A@@std@@@2@PAU342@@Z
_TEXT	SEGMENT PARA USE32 PUBLIC 'CODE'
_TEXT	ENDS
;	COMDAT ?_Left@?$_Tree@V?$_Tmap_traits@KEU?$less@K@std@@V?$allocator@U?$pair@$$CBKE@std@@@2@$0A@@std@@@std@@KAAAPAU_Node@?$_Tree_nod@V?$_Tmap_traits@KEU?$less@K@std@@V?$allocator@U?$pair@$$CBKE@std@@@2@$0A@@std@@@2@PAU342@@Z
_TEXT	SEGMENT PARA USE32 PUBLIC 'CODE'
_TEXT	ENDS
;	COMDAT ?_Isnil@?$_Tree@V?$_Tmap_traits@KEU?$less@K@std@@V?$allocator@U?$pair@$$CBKE@std@@@2@$0A@@std@@@std@@KAAADPAU_Node@?$_Tree_nod@V?$_Tmap_traits@KEU?$less@K@std@@V?$allocator@U?$pair@$$CBKE@std@@@2@$0A@@std@@@2@@Z
_TEXT	SEGMENT PARA USE32 PUBLIC 'CODE'
_TEXT	ENDS
;	COMDAT ?_Parent@?$_Tree@V?$_Tmap_traits@KEU?$less@K@std@@V?$allocator@U?$pair@$$CBKE@std@@@2@$0A@@std@@@std@@KAAAPAU_Node@?$_Tree_nod@V?$_Tmap_traits@KEU?$less@K@std@@V?$allocator@U?$pair@$$CBKE@std@@@2@$0A@@std@@@2@PAU342@@Z
_TEXT	SEGMENT PARA USE32 PUBLIC 'CODE'
_TEXT	ENDS
;	COMDAT ?_Right@?$_Tree@V?$_Tmap_traits@KEU?$less@K@std@@V?$allocator@U?$pair@$$CBKE@std@@@2@$0A@@std@@@std@@KAAAPAU_Node@?$_Tree_nod@V?$_Tmap_traits@KEU?$less@K@std@@V?$allocator@U?$pair@$$CBKE@std@@@2@$0A@@std@@@2@PAU342@@Z
_TEXT	SEGMENT PARA USE32 PUBLIC 'CODE'
_TEXT	ENDS
;	COMDAT ??9const_iterator@?$_Tree@V?$_Tmap_traits@KPAVCCtrl@@U?$less@K@std@@V?$allocator@U?$pair@$$CBKPAVCCtrl@@@std@@@3@$0A@@std@@@std@@QBE_NABV012@@Z
_TEXT	SEGMENT PARA USE32 PUBLIC 'CODE'
_TEXT	ENDS
;	COMDAT ??8const_iterator@?$_Tree@V?$_Tmap_traits@KPAVCCtrl@@U?$less@K@std@@V?$allocator@U?$pair@$$CBKPAVCCtrl@@@std@@@3@$0A@@std@@@std@@QBE_NABV012@@Z
_TEXT	SEGMENT PARA USE32 PUBLIC 'CODE'
_TEXT	ENDS
;	COMDAT ??Eiterator@?$_Tree@V?$_Tmap_traits@KPAVCCtrl@@U?$less@K@std@@V?$allocator@U?$pair@$$CBKPAVCCtrl@@@std@@@3@$0A@@std@@@std@@QAEAAV012@XZ
_TEXT	SEGMENT PARA USE32 PUBLIC 'CODE'
_TEXT	ENDS
;	COMDAT ??Econst_iterator@?$_Tree@V?$_Tmap_traits@KPAVCCtrl@@U?$less@K@std@@V?$allocator@U?$pair@$$CBKPAVCCtrl@@@std@@@3@$0A@@std@@@std@@QAEAAV012@XZ
_TEXT	SEGMENT PARA USE32 PUBLIC 'CODE'
_TEXT	ENDS
;	COMDAT ?_Inc@const_iterator@?$_Tree@V?$_Tmap_traits@KPAVCCtrl@@U?$less@K@std@@V?$allocator@U?$pair@$$CBKPAVCCtrl@@@std@@@3@$0A@@std@@@std@@QAEXXZ
_TEXT	SEGMENT PARA USE32 PUBLIC 'CODE'
_TEXT	ENDS
;	COMDAT ?_Min@?$_Tree@V?$_Tmap_traits@KPAVCCtrl@@U?$less@K@std@@V?$allocator@U?$pair@$$CBKPAVCCtrl@@@std@@@3@$0A@@std@@@std@@KAPAU_Node@?$_Tree_nod@V?$_Tmap_traits@KPAVCCtrl@@U?$less@K@std@@V?$allocator@U?$pair@$$CBKPAVCCtrl@@@std@@@3@$0A@@std@@@2@PAU342@@Z
_TEXT	SEGMENT PARA USE32 PUBLIC 'CODE'
_TEXT	ENDS
;	COMDAT ?_Left@?$_Tree@V?$_Tmap_traits@KPAVCCtrl@@U?$less@K@std@@V?$allocator@U?$pair@$$CBKPAVCCtrl@@@std@@@3@$0A@@std@@@std@@KAAAPAU_Node@?$_Tree_nod@V?$_Tmap_traits@KPAVCCtrl@@U?$less@K@std@@V?$allocator@U?$pair@$$CBKPAVCCtrl@@@std@@@3@$0A@@std@@@2@PAU342@@Z
_TEXT	SEGMENT PARA USE32 PUBLIC 'CODE'
_TEXT	ENDS
;	COMDAT ?_Isnil@?$_Tree@V?$_Tmap_traits@KPAVCCtrl@@U?$less@K@std@@V?$allocator@U?$pair@$$CBKPAVCCtrl@@@std@@@3@$0A@@std@@@std@@KAAADPAU_Node@?$_Tree_nod@V?$_Tmap_traits@KPAVCCtrl@@U?$less@K@std@@V?$allocator@U?$pair@$$CBKPAVCCtrl@@@std@@@3@$0A@@std@@@2@@Z
_TEXT	SEGMENT PARA USE32 PUBLIC 'CODE'
_TEXT	ENDS
;	COMDAT ?_Parent@?$_Tree@V?$_Tmap_traits@KPAVCCtrl@@U?$less@K@std@@V?$allocator@U?$pair@$$CBKPAVCCtrl@@@std@@@3@$0A@@std@@@std@@KAAAPAU_Node@?$_Tree_nod@V?$_Tmap_traits@KPAVCCtrl@@U?$less@K@std@@V?$allocator@U?$pair@$$CBKPAVCCtrl@@@std@@@3@$0A@@std@@@2@PAU342@@Z
_TEXT	SEGMENT PARA USE32 PUBLIC 'CODE'
_TEXT	ENDS
;	COMDAT ?_Right@?$_Tree@V?$_Tmap_traits@KPAVCCtrl@@U?$less@K@std@@V?$allocator@U?$pair@$$CBKPAVCCtrl@@@std@@@3@$0A@@std@@@std@@KAAAPAU_Node@?$_Tree_nod@V?$_Tmap_traits@KPAVCCtrl@@U?$less@K@std@@V?$allocator@U?$pair@$$CBKPAVCCtrl@@@std@@@3@$0A@@std@@@2@PAU342@@Z
_TEXT	SEGMENT PARA USE32 PUBLIC 'CODE'
_TEXT	ENDS
;	COMDAT ??9const_iterator@?$_Tree@V?$_Tmap_traits@KPAVCUser@@U?$less@K@std@@V?$allocator@U?$pair@$$CBKPAVCUser@@@std@@@3@$0A@@std@@@std@@QBE_NABV012@@Z
_TEXT	SEGMENT PARA USE32 PUBLIC 'CODE'
_TEXT	ENDS
;	COMDAT ??8const_iterator@?$_Tree@V?$_Tmap_traits@KPAVCUser@@U?$less@K@std@@V?$allocator@U?$pair@$$CBKPAVCUser@@@std@@@3@$0A@@std@@@std@@QBE_NABV012@@Z
_TEXT	SEGMENT PARA USE32 PUBLIC 'CODE'
_TEXT	ENDS
;	COMDAT ??Eiterator@?$_Tree@V?$_Tmap_traits@KPAVCUser@@U?$less@K@std@@V?$allocator@U?$pair@$$CBKPAVCUser@@@std@@@3@$0A@@std@@@std@@QAEAAV012@XZ
_TEXT	SEGMENT PARA USE32 PUBLIC 'CODE'
_TEXT	ENDS
;	COMDAT ??Econst_iterator@?$_Tree@V?$_Tmap_traits@KPAVCUser@@U?$less@K@std@@V?$allocator@U?$pair@$$CBKPAVCUser@@@std@@@3@$0A@@std@@@std@@QAEAAV012@XZ
_TEXT	SEGMENT PARA USE32 PUBLIC 'CODE'
_TEXT	ENDS
;	COMDAT ?_Inc@const_iterator@?$_Tree@V?$_Tmap_traits@KPAVCUser@@U?$less@K@std@@V?$allocator@U?$pair@$$CBKPAVCUser@@@std@@@3@$0A@@std@@@std@@QAEXXZ
_TEXT	SEGMENT PARA USE32 PUBLIC 'CODE'
_TEXT	ENDS
;	COMDAT ?_Min@?$_Tree@V?$_Tmap_traits@KPAVCUser@@U?$less@K@std@@V?$allocator@U?$pair@$$CBKPAVCUser@@@std@@@3@$0A@@std@@@std@@KAPAU_Node@?$_Tree_nod@V?$_Tmap_traits@KPAVCUser@@U?$less@K@std@@V?$allocator@U?$pair@$$CBKPAVCUser@@@std@@@3@$0A@@std@@@2@PAU342@@Z
_TEXT	SEGMENT PARA USE32 PUBLIC 'CODE'
_TEXT	ENDS
;	COMDAT ?_Left@?$_Tree@V?$_Tmap_traits@KPAVCUser@@U?$less@K@std@@V?$allocator@U?$pair@$$CBKPAVCUser@@@std@@@3@$0A@@std@@@std@@KAAAPAU_Node@?$_Tree_nod@V?$_Tmap_traits@KPAVCUser@@U?$less@K@std@@V?$allocator@U?$pair@$$CBKPAVCUser@@@std@@@3@$0A@@std@@@2@PAU342@@Z
_TEXT	SEGMENT PARA USE32 PUBLIC 'CODE'
_TEXT	ENDS
;	COMDAT ?_Isnil@?$_Tree@V?$_Tmap_traits@KPAVCUser@@U?$less@K@std@@V?$allocator@U?$pair@$$CBKPAVCUser@@@std@@@3@$0A@@std@@@std@@KAAADPAU_Node@?$_Tree_nod@V?$_Tmap_traits@KPAVCUser@@U?$less@K@std@@V?$allocator@U?$pair@$$CBKPAVCUser@@@std@@@3@$0A@@std@@@2@@Z
_TEXT	SEGMENT PARA USE32 PUBLIC 'CODE'
_TEXT	ENDS
;	COMDAT ?_Parent@?$_Tree@V?$_Tmap_traits@KPAVCUser@@U?$less@K@std@@V?$allocator@U?$pair@$$CBKPAVCUser@@@std@@@3@$0A@@std@@@std@@KAAAPAU_Node@?$_Tree_nod@V?$_Tmap_traits@KPAVCUser@@U?$less@K@std@@V?$allocator@U?$pair@$$CBKPAVCUser@@@std@@@3@$0A@@std@@@2@PAU342@@Z
_TEXT	SEGMENT PARA USE32 PUBLIC 'CODE'
_TEXT	ENDS
;	COMDAT ?_Right@?$_Tree@V?$_Tmap_traits@KPAVCUser@@U?$less@K@std@@V?$allocator@U?$pair@$$CBKPAVCUser@@@std@@@3@$0A@@std@@@std@@KAAAPAU_Node@?$_Tree_nod@V?$_Tmap_traits@KPAVCUser@@U?$less@K@std@@V?$allocator@U?$pair@$$CBKPAVCUser@@@std@@@3@$0A@@std@@@2@PAU342@@Z
_TEXT	SEGMENT PARA USE32 PUBLIC 'CODE'
_TEXT	ENDS
;	COMDAT ?_Psave@?$_Facetptr@V?$ctype@G@std@@@std@@2PBVfacet@locale@2@B
_DATA	SEGMENT DWORD USE32 PUBLIC 'DATA'
_DATA	ENDS
;	COMDAT ?_Psave@?$_Facetptr@V?$ctype@D@std@@@std@@2PBVfacet@locale@2@B
_DATA	SEGMENT DWORD USE32 PUBLIC 'DATA'
_DATA	ENDS
;	COMDAT ?compare@?$char_traits@D@std@@SAHPBD0I@Z
_TEXT	SEGMENT PARA USE32 PUBLIC 'CODE'
_TEXT	ENDS
;	COMDAT ?_Myptr@?$basic_string@DU?$char_traits@D@std@@V?$allocator@D@2@@std@@QBEPBDXZ
_TEXT	SEGMENT PARA USE32 PUBLIC 'CODE'
_TEXT	ENDS
;	COMDAT ?size@?$basic_string@DU?$char_traits@D@std@@V?$allocator@D@2@@std@@QBEIXZ
_TEXT	SEGMENT PARA USE32 PUBLIC 'CODE'
_TEXT	ENDS
;	COMDAT ?GetPropA@CMover@@QAEPAUMoverProp@@XZ
_TEXT	SEGMENT PARA USE32 PUBLIC 'CODE'
_TEXT	ENDS
;	COMDAT ?GetMoverProp@CProject@@QAEPAUMoverProp@@H@Z
_TEXT	SEGMENT PARA USE32 PUBLIC 'CODE'
_TEXT	ENDS
;	COMDAT ?LOG_RANGE@@YAXPBDHHH@Z
_TEXT	SEGMENT PARA USE32 PUBLIC 'CODE'
_TEXT	ENDS
;	COMDAT ??_C@_0BM@HMFGHCP@?$CFs?5min?3?$CFd?0?5max?3?$CFd?0?5index?3?$CFd?$AA@
CONST	SEGMENT DWORD USE32 PUBLIC 'CONST'
CONST	ENDS
;	COMDAT ??_C@_0BJ@GKPOBPPI@GetMoverProp?5range_error?$AA@
CONST	SEGMENT DWORD USE32 PUBLIC 'CONST'
CONST	ENDS
;	COMDAT ?GetType@CObj@@QAEKXZ
_TEXT	SEGMENT PARA USE32 PUBLIC 'CODE'
_TEXT	ENDS
sxdata	SEGMENT DWORD USE32 'SXDATA'
sxdata	ENDS
FLAT	GROUP _DATA, CONST, _BSS
	ASSUME	CS: FLAT, DS: FLAT, SS: FLAT
endif

INCLUDELIB LIBCMT
INCLUDELIB OLDNAMES

PUBLIC	?ReadObj@@YAPAVCObj@@PAVCFileIO@@@Z		; ReadObj
EXTRN	?InitNPCProperty@CMover@@QAEXXZ:NEAR		; CMover::InitNPCProperty
EXTRN	??2@YAPAXI@Z:NEAR				; operator new
EXTRN	??3@YAXPAX@Z:NEAR				; operator delete
EXTRN	??0CObj@@QAE@XZ:NEAR				; CObj::CObj
EXTRN	??0CMover@@QAE@XZ:NEAR				; CMover::CMover
EXTRN	??0CShip@@QAE@XZ:NEAR				; CShip::CShip
EXTRN	??0CItem@@QAE@XZ:NEAR				; CItem::CItem
EXTRN	__except_list:DWORD
EXTRN	___CxxFrameHandler:NEAR
EXTRN	??0CCommonCtrl@@QAE@XZ:NEAR			; CCommonCtrl::CCommonCtrl
;	COMDAT xdata$x
; File c:\documents and settings\test\mes documents\source\virtuos_v17\build\program\_common\createobj.cpp
xdata$x	SEGMENT
$T232148 DD	0ffffffffH
	DD	FLAT:$L232134
	DD	0ffffffffH
	DD	FLAT:$L232135
	DD	0ffffffffH
	DD	FLAT:$L232136
	DD	0ffffffffH
	DD	FLAT:$L232137
	DD	0ffffffffH
	DD	FLAT:$L232138
$T232142 DD	019930520H
	DD	05H
	DD	FLAT:$T232148
	DD	2 DUP(00H)
	DD	2 DUP(00H)
; Function compile flags: /Ogty
xdata$x	ENDS
;	COMDAT ?ReadObj@@YAPAVCObj@@PAVCFileIO@@@Z
_TEXT	SEGMENT
$T232131 = -16						; size = 4
$T232127 = -16						; size = 4
$T232123 = -16						; size = 4
$T232119 = -16						; size = 4
$T232115 = -16						; size = 4
__$EHRec$ = -12						; size = 12
_dwObjType$ = 8						; size = 4
_pFile$ = 8						; size = 4
?ReadObj@@YAPAVCObj@@PAVCFileIO@@@Z PROC NEAR		; ReadObj, COMDAT

; 698  : {

  00000	6a ff		 push	 -1
  00002	68 00 00 00 00	 push	 __ehhandler$?ReadObj@@YAPAVCObj@@PAVCFileIO@@@Z
  00007	64 a1 00 00 00
	00		 mov	 eax, DWORD PTR fs:__except_list
  0000d	50		 push	 eax
  0000e	64 89 25 00 00
	00 00		 mov	 DWORD PTR fs:__except_list, esp
  00015	51		 push	 ecx
  00016	56		 push	 esi
  00017	57		 push	 edi

; 699  : 	DWORD dwObjType;
; 700  : 	pFile->Read( &dwObjType, sizeof( DWORD ), 1 );

  00018	8b 7c 24 1c	 mov	 edi, DWORD PTR _pFile$[esp+20]
  0001c	8b 07		 mov	 eax, DWORD PTR [edi]
  0001e	6a 01		 push	 1
  00020	6a 04		 push	 4
  00022	8d 4c 24 24	 lea	 ecx, DWORD PTR _dwObjType$[esp+28]
  00026	51		 push	 ecx
  00027	8b cf		 mov	 ecx, edi
  00029	ff 50 2c	 call	 DWORD PTR [eax+44]

; 701  : 
; 702  : 	CObj* pObj = NULL;
; 703  : 	switch( dwObjType )

  0002c	8b 44 24 1c	 mov	 eax, DWORD PTR _dwObjType$[esp+20]
  00030	83 f8 07	 cmp	 eax, 7
  00033	0f 87 13 01 00
	00		 ja	 $L230896
  00039	ff 24 85 00 00
	00 00		 jmp	 DWORD PTR $L232147[eax*4]
$L230869:

; 704  : 	{
; 705  : 		case OT_OBJ  : pObj = new CObj; break;

  00040	68 bc 01 00 00	 push	 444			; 000001bcH
  00045	e8 00 00 00 00	 call	 ??2@YAPAXI@Z		; operator new
  0004a	83 c4 04	 add	 esp, 4
  0004d	89 44 24 08	 mov	 DWORD PTR $T232115[esp+24], eax
  00051	85 c0		 test	 eax, eax
  00053	c7 44 24 14 00
	00 00 00	 mov	 DWORD PTR __$EHRec$[esp+32], 0
  0005b	0f 84 c0 00 00
	00		 je	 $L232132
  00061	8b c8		 mov	 ecx, eax
  00063	e8 00 00 00 00	 call	 ??0CObj@@QAE@XZ		; CObj::CObj
  00068	e9 b6 00 00 00	 jmp	 $L232133
$L230874:

; 706  : 		case OT_CTRL : pObj = new CCommonCtrl; break;

  0006d	68 48 04 00 00	 push	 1096			; 00000448H
  00072	e8 00 00 00 00	 call	 ??2@YAPAXI@Z		; operator new
  00077	83 c4 04	 add	 esp, 4
  0007a	89 44 24 08	 mov	 DWORD PTR $T232119[esp+24], eax
  0007e	85 c0		 test	 eax, eax
  00080	c7 44 24 14 01
	00 00 00	 mov	 DWORD PTR __$EHRec$[esp+32], 1
  00088	0f 84 93 00 00
	00		 je	 $L232132
  0008e	8b c8		 mov	 ecx, eax
  00090	e8 00 00 00 00	 call	 ??0CCommonCtrl@@QAE@XZ	; CCommonCtrl::CCommonCtrl
  00095	e9 89 00 00 00	 jmp	 $L232133
$L230880:

; 707  : 		case OT_SFX  : 
; 708  : 			#ifdef __CLIENT
; 709  : 				pObj = new CSfx; 
; 710  : 			#endif
; 711  : 			break;  
; 712  : 		case OT_ITEM : pObj = new CItem; break;

  0009a	68 4c 02 00 00	 push	 588			; 0000024cH
  0009f	e8 00 00 00 00	 call	 ??2@YAPAXI@Z		; operator new
  000a4	83 c4 04	 add	 esp, 4
  000a7	89 44 24 08	 mov	 DWORD PTR $T232123[esp+24], eax
  000ab	85 c0		 test	 eax, eax
  000ad	c7 44 24 14 02
	00 00 00	 mov	 DWORD PTR __$EHRec$[esp+32], 2
  000b5	74 6a		 je	 SHORT $L232132
  000b7	8b c8		 mov	 ecx, eax
  000b9	e8 00 00 00 00	 call	 ??0CItem@@QAE@XZ	; CItem::CItem
  000be	eb 63		 jmp	 SHORT $L232133
$L230885:

; 713  : 		case OT_MOVER:				// 파일에서 읽어들이는 것은 모두 NPC
; 714  : 			pObj = new CMover; 

  000c0	68 d8 16 00 00	 push	 5848			; 000016d8H
  000c5	e8 00 00 00 00	 call	 ??2@YAPAXI@Z		; operator new
  000ca	83 c4 04	 add	 esp, 4
  000cd	89 44 24 08	 mov	 DWORD PTR $T232127[esp+24], eax
  000d1	85 c0		 test	 eax, eax
  000d3	c7 44 24 14 03
	00 00 00	 mov	 DWORD PTR __$EHRec$[esp+32], 3
  000db	74 09		 je	 SHORT $L232128
  000dd	8b c8		 mov	 ecx, eax
  000df	e8 00 00 00 00	 call	 ??0CMover@@QAE@XZ	; CMover::CMover
  000e4	eb 02		 jmp	 SHORT $L232129
$L232128:
  000e6	33 c0		 xor	 eax, eax
$L232129:

; 715  : 			((CMover *)pObj)->InitNPCProperty();

  000e8	8b c8		 mov	 ecx, eax
  000ea	c7 44 24 14 ff
	ff ff ff	 mov	 DWORD PTR __$EHRec$[esp+32], -1
  000f2	8b f0		 mov	 esi, eax
  000f4	e8 00 00 00 00	 call	 ?InitNPCProperty@CMover@@QAEXXZ ; CMover::InitNPCProperty

; 716  : 			break;

  000f9	eb 32		 jmp	 SHORT $L230866
$L230891:

; 717  : 		case OT_SHIP:	pObj = new CShip;	break;

  000fb	68 ac 04 00 00	 push	 1196			; 000004acH
  00100	e8 00 00 00 00	 call	 ??2@YAPAXI@Z		; operator new
  00105	83 c4 04	 add	 esp, 4
  00108	89 44 24 08	 mov	 DWORD PTR $T232131[esp+24], eax
  0010c	85 c0		 test	 eax, eax
  0010e	c7 44 24 14 04
	00 00 00	 mov	 DWORD PTR __$EHRec$[esp+32], 4
  00116	74 09		 je	 SHORT $L232132
  00118	8b c8		 mov	 ecx, eax
  0011a	e8 00 00 00 00	 call	 ??0CShip@@QAE@XZ	; CShip::CShip
  0011f	eb 02		 jmp	 SHORT $L232133
$L232132:
  00121	33 c0		 xor	 eax, eax
$L232133:
  00123	c7 44 24 14 ff
	ff ff ff	 mov	 DWORD PTR __$EHRec$[esp+32], -1
  0012b	8b f0		 mov	 esi, eax
$L230866:

; 718  : 	}
; 719  : 
; 720  : 	if( pObj ) 

  0012d	85 f6		 test	 esi, esi
  0012f	74 1b		 je	 SHORT $L230896

; 721  : 	{
; 722  : 		pObj->Read( pFile );

  00131	8b 16		 mov	 edx, DWORD PTR [esi]
  00133	57		 push	 edi
  00134	8b ce		 mov	 ecx, esi
  00136	ff 52 1c	 call	 DWORD PTR [edx+28]
  00139	5f		 pop	 edi

; 723  : 		return pObj;

  0013a	8b c6		 mov	 eax, esi
  0013c	5e		 pop	 esi

; 724  : 	}
; 725  : 	return NULL;
; 726  : }

  0013d	8b 4c 24 04	 mov	 ecx, DWORD PTR __$EHRec$[esp+16]
  00141	64 89 0d 00 00
	00 00		 mov	 DWORD PTR fs:__except_list, ecx
  00148	83 c4 10	 add	 esp, 16			; 00000010H
  0014b	c3		 ret	 0
$L230896:
  0014c	8b 4c 24 0c	 mov	 ecx, DWORD PTR __$EHRec$[esp+24]
  00150	5f		 pop	 edi
  00151	33 c0		 xor	 eax, eax
  00153	5e		 pop	 esi
  00154	64 89 0d 00 00
	00 00		 mov	 DWORD PTR fs:__except_list, ecx
  0015b	83 c4 10	 add	 esp, 16			; 00000010H
  0015e	c3		 ret	 0
  0015f	90		 npad	 1
$L232147:
  00160	00 00 00 00	 DD	 $L230869
  00164	00 00 00 00	 DD	 $L230896
  00168	00 00 00 00	 DD	 $L230874
  0016c	00 00 00 00	 DD	 $L230896
  00170	00 00 00 00	 DD	 $L230880
  00174	00 00 00 00	 DD	 $L230885
  00178	00 00 00 00	 DD	 $L230896
  0017c	00 00 00 00	 DD	 $L230891
_TEXT	ENDS
;	COMDAT text$x
text$x	SEGMENT
$L232134:
  00000	8b 45 f0	 mov	 eax, DWORD PTR $T232115[ebp]
  00003	50		 push	 eax
  00004	e8 00 00 00 00	 call	 ??3@YAXPAX@Z		; operator delete
  00009	59		 pop	 ecx
  0000a	c3		 ret	 0
$L232135:
  0000b	8b 45 f0	 mov	 eax, DWORD PTR $T232119[ebp]
  0000e	50		 push	 eax
  0000f	e8 00 00 00 00	 call	 ??3@YAXPAX@Z		; operator delete
  00014	59		 pop	 ecx
  00015	c3		 ret	 0
$L232136:
  00016	8b 45 f0	 mov	 eax, DWORD PTR $T232123[ebp]
  00019	50		 push	 eax
  0001a	e8 00 00 00 00	 call	 ??3@YAXPAX@Z		; operator delete
  0001f	59		 pop	 ecx
  00020	c3		 ret	 0
$L232137:
  00021	8b 45 f0	 mov	 eax, DWORD PTR $T232127[ebp]
  00024	50		 push	 eax
  00025	e8 00 00 00 00	 call	 ??3@YAXPAX@Z		; operator delete
  0002a	59		 pop	 ecx
  0002b	c3		 ret	 0
$L232138:
  0002c	8b 45 f0	 mov	 eax, DWORD PTR $T232131[ebp]
  0002f	50		 push	 eax
  00030	e8 00 00 00 00	 call	 ??3@YAXPAX@Z		; operator delete
  00035	59		 pop	 ecx
  00036	c3		 ret	 0
__ehhandler$?ReadObj@@YAPAVCObj@@PAVCFileIO@@@Z:
  00037	b8 00 00 00 00	 mov	 eax, OFFSET FLAT:$T232142
  0003c	e9 00 00 00 00	 jmp	 ___CxxFrameHandler
text$x	ENDS
?ReadObj@@YAPAVCObj@@PAVCFileIO@@@Z ENDP		; ReadObj
PUBLIC	?CheckVersion@@YAHPAU_iobuf@@PBD1@Z		; CheckVersion
EXTRN	_fread:NEAR
EXTRN	___security_cookie:DWORD
EXTRN	@__security_check_cookie@4:NEAR
; Function compile flags: /Ogty
;	COMDAT ?CheckVersion@@YAHPAU_iobuf@@PBD1@Z
_TEXT	SEGMENT
_szName$ = -68						; size = 32
_szVersion$ = -36					; size = 32
__$ArrayPad$ = -4					; size = 4
__$ReturnAddr$ = 4					; size = 4
_fp$ = 8						; size = 4
_lpszName$ = 12						; size = 4
_lpszVersion$ = 16					; size = 4
?CheckVersion@@YAHPAU_iobuf@@PBD1@Z PROC NEAR		; CheckVersion, COMDAT

; 728  : {

  00000	83 ec 44	 sub	 esp, 68			; 00000044H
  00003	a1 00 00 00 00	 mov	 eax, DWORD PTR ___security_cookie
  00008	33 c4		 xor	 eax, esp
  0000a	53		 push	 ebx
  0000b	56		 push	 esi
  0000c	8b 74 24 50	 mov	 esi, DWORD PTR _fp$[esp+72]

; 729  : 	CHAR szName[32];
; 730  : 	CHAR szVersion[32];
; 731  : 
; 732  : 	fread( szName, sizeof( szName ), 1, fp );

  00010	56		 push	 esi
  00011	6a 01		 push	 1
  00013	89 44 24 50	 mov	 DWORD PTR __$ArrayPad$[esp+84], eax
  00017	8d 44 24 10	 lea	 eax, DWORD PTR _szName$[esp+84]
  0001b	6a 20		 push	 32			; 00000020H
  0001d	50		 push	 eax
  0001e	e8 00 00 00 00	 call	 _fread

; 733  : 	fread( szVersion, sizeof( szVersion ), 1, fp );

  00023	56		 push	 esi
  00024	6a 01		 push	 1
  00026	8d 4c 24 40	 lea	 ecx, DWORD PTR _szVersion$[esp+100]
  0002a	6a 20		 push	 32			; 00000020H
  0002c	51		 push	 ecx
  0002d	e8 00 00 00 00	 call	 _fread

; 734  : 
; 735  : 	if( !strcmp( szName, lpszName ) && !strcmp( szVersion, lpszVersion) )

  00032	8b 74 24 74	 mov	 esi, DWORD PTR _lpszName$[esp+104]
  00036	83 c4 20	 add	 esp, 32			; 00000020H
  00039	8d 44 24 08	 lea	 eax, DWORD PTR _szName$[esp+76]
  0003d	8d 49 00	 npad	 3
$L232157:
  00040	8a 10		 mov	 dl, BYTE PTR [eax]
  00042	8a 1e		 mov	 bl, BYTE PTR [esi]
  00044	8a ca		 mov	 cl, dl
  00046	3a d3		 cmp	 dl, bl
  00048	75 1e		 jne	 SHORT $L232158
  0004a	84 c9		 test	 cl, cl
  0004c	74 16		 je	 SHORT $L232159
  0004e	8a 50 01	 mov	 dl, BYTE PTR [eax+1]
  00051	8a 5e 01	 mov	 bl, BYTE PTR [esi+1]
  00054	8a ca		 mov	 cl, dl
  00056	3a d3		 cmp	 dl, bl
  00058	75 0e		 jne	 SHORT $L232158
  0005a	83 c0 02	 add	 eax, 2
  0005d	83 c6 02	 add	 esi, 2
  00060	84 c9		 test	 cl, cl
  00062	75 dc		 jne	 SHORT $L232157
$L232159:
  00064	33 c0		 xor	 eax, eax
  00066	eb 05		 jmp	 SHORT $L232160
$L232158:
  00068	1b c0		 sbb	 eax, eax
  0006a	83 d8 ff	 sbb	 eax, -1
$L232160:
  0006d	85 c0		 test	 eax, eax
  0006f	75 56		 jne	 SHORT $L230904
  00071	8b 74 24 58	 mov	 esi, DWORD PTR _lpszVersion$[esp+72]
  00075	8d 44 24 28	 lea	 eax, DWORD PTR _szVersion$[esp+76]
  00079	8d a4 24 00 00
	00 00		 npad	 7
$L232161:
  00080	8a 10		 mov	 dl, BYTE PTR [eax]
  00082	8a 1e		 mov	 bl, BYTE PTR [esi]
  00084	8a ca		 mov	 cl, dl
  00086	3a d3		 cmp	 dl, bl
  00088	75 1e		 jne	 SHORT $L232162
  0008a	84 c9		 test	 cl, cl
  0008c	74 16		 je	 SHORT $L232163
  0008e	8a 50 01	 mov	 dl, BYTE PTR [eax+1]
  00091	8a 5e 01	 mov	 bl, BYTE PTR [esi+1]
  00094	8a ca		 mov	 cl, dl
  00096	3a d3		 cmp	 dl, bl
  00098	75 0e		 jne	 SHORT $L232162
  0009a	83 c0 02	 add	 eax, 2
  0009d	83 c6 02	 add	 esi, 2
  000a0	84 c9		 test	 cl, cl
  000a2	75 dc		 jne	 SHORT $L232161
$L232163:
  000a4	33 c0		 xor	 eax, eax
  000a6	eb 05		 jmp	 SHORT $L232164
$L232162:
  000a8	1b c0		 sbb	 eax, eax
  000aa	83 d8 ff	 sbb	 eax, -1
$L232164:
  000ad	85 c0		 test	 eax, eax
  000af	75 16		 jne	 SHORT $L230904
  000b1	5e		 pop	 esi

; 736  : 		return TRUE;

  000b2	b8 01 00 00 00	 mov	 eax, 1
  000b7	5b		 pop	 ebx

; 737  : 
; 738  : 	return FALSE;
; 739  : }

  000b8	8b 4c 24 40	 mov	 ecx, DWORD PTR __$ArrayPad$[esp+68]
  000bc	33 cc		 xor	 ecx, esp
  000be	e8 00 00 00 00	 call	 @__security_check_cookie@4
  000c3	83 c4 44	 add	 esp, 68			; 00000044H
  000c6	c3		 ret	 0
$L230904:
  000c7	8b 4c 24 48	 mov	 ecx, DWORD PTR __$ArrayPad$[esp+76]
  000cb	5e		 pop	 esi
  000cc	5b		 pop	 ebx
  000cd	33 cc		 xor	 ecx, esp
  000cf	33 c0		 xor	 eax, eax
  000d1	e8 00 00 00 00	 call	 @__security_check_cookie@4
  000d6	83 c4 44	 add	 esp, 68			; 00000044H
  000d9	c3		 ret	 0
?CheckVersion@@YAHPAU_iobuf@@PBD1@Z ENDP		; CheckVersion
_TEXT	ENDS
PUBLIC	?WriteVersion@@YAHPAU_iobuf@@PBD1@Z		; WriteVersion
EXTRN	_fwrite:NEAR
; Function compile flags: /Ogty
;	COMDAT ?WriteVersion@@YAHPAU_iobuf@@PBD1@Z
_TEXT	SEGMENT
_fp$ = 8						; size = 4
_lpszName$ = 12						; size = 4
_lpszVersion$ = 16					; size = 4
?WriteVersion@@YAHPAU_iobuf@@PBD1@Z PROC NEAR		; WriteVersion, COMDAT

; 741  : {

  00000	53		 push	 ebx

; 742  : 	if( strlen( lpszName ) >= 32 ||  strlen( lpszVersion ) >= 32 )

  00001	8b 5c 24 0c	 mov	 ebx, DWORD PTR _lpszName$[esp]
  00005	8b c3		 mov	 eax, ebx
  00007	57		 push	 edi
  00008	8d 50 01	 lea	 edx, DWORD PTR [eax+1]
  0000b	eb 03 8d 49 00	 npad	 5
$L232171:
  00010	8a 08		 mov	 cl, BYTE PTR [eax]
  00012	40		 inc	 eax
  00013	84 c9		 test	 cl, cl
  00015	75 f9		 jne	 SHORT $L232171
  00017	2b c2		 sub	 eax, edx
  00019	83 f8 20	 cmp	 eax, 32			; 00000020H
  0001c	73 3e		 jae	 SHORT $L230911
  0001e	8b 7c 24 14	 mov	 edi, DWORD PTR _lpszVersion$[esp+4]
  00022	8b c7		 mov	 eax, edi
  00024	8d 50 01	 lea	 edx, DWORD PTR [eax+1]
$L232172:
  00027	8a 08		 mov	 cl, BYTE PTR [eax]
  00029	40		 inc	 eax
  0002a	84 c9		 test	 cl, cl
  0002c	75 f9		 jne	 SHORT $L232172
  0002e	2b c2		 sub	 eax, edx
  00030	83 f8 20	 cmp	 eax, 32			; 00000020H
  00033	73 27		 jae	 SHORT $L230911
  00035	56		 push	 esi

; 744  : 	fwrite( lpszName, sizeof( 32 ), 1, fp );

  00036	8b 74 24 10	 mov	 esi, DWORD PTR _fp$[esp+8]
  0003a	56		 push	 esi
  0003b	6a 01		 push	 1
  0003d	6a 04		 push	 4
  0003f	53		 push	 ebx
  00040	e8 00 00 00 00	 call	 _fwrite

; 745  : 	fwrite( lpszVersion, sizeof( 32 ), 1, fp );

  00045	56		 push	 esi
  00046	6a 01		 push	 1
  00048	6a 04		 push	 4
  0004a	57		 push	 edi
  0004b	e8 00 00 00 00	 call	 _fwrite
  00050	83 c4 20	 add	 esp, 32			; 00000020H
  00053	5e		 pop	 esi
  00054	5f		 pop	 edi

; 746  : 	return TRUE;

  00055	b8 01 00 00 00	 mov	 eax, 1
  0005a	5b		 pop	 ebx

; 747  : }

  0005b	c3		 ret	 0
$L230911:
  0005c	5f		 pop	 edi

; 743  : 		return FALSE;

  0005d	33 c0		 xor	 eax, eax
  0005f	5b		 pop	 ebx

; 747  : }

  00060	c3		 ret	 0
?WriteVersion@@YAHPAU_iobuf@@PBD1@Z ENDP		; WriteVersion
_TEXT	ENDS
PUBLIC	?CheckVersion@@YAHPAU_iobuf@@K@Z		; CheckVersion
; Function compile flags: /Ogty
;	COMDAT ?CheckVersion@@YAHPAU_iobuf@@K@Z
_TEXT	SEGMENT
_dwVer$ = -4						; size = 4
_fp$ = 8						; size = 4
_dwVersion$ = 12					; size = 4
?CheckVersion@@YAHPAU_iobuf@@K@Z PROC NEAR		; CheckVersion, COMDAT

; 749  : {

  00000	51		 push	 ecx

; 750  : 	DWORD dwVer;
; 751  : 	fread( &dwVer, sizeof( DWORD ), 1, fp );

  00001	8b 44 24 08	 mov	 eax, DWORD PTR _fp$[esp]
  00005	50		 push	 eax
  00006	6a 01		 push	 1
  00008	8d 4c 24 08	 lea	 ecx, DWORD PTR _dwVer$[esp+12]
  0000c	6a 04		 push	 4
  0000e	51		 push	 ecx
  0000f	e8 00 00 00 00	 call	 _fread

; 752  : 
; 753  : 	if( dwVer == dwVersion )

  00014	8b 54 24 10	 mov	 edx, DWORD PTR _dwVer$[esp+20]
  00018	8b 4c 24 1c	 mov	 ecx, DWORD PTR _dwVersion$[esp+16]
  0001c	33 c0		 xor	 eax, eax
  0001e	3b d1		 cmp	 edx, ecx
  00020	0f 94 c0	 sete	 al

; 754  : 		return TRUE;
; 755  : 
; 756  : 	return FALSE;
; 757  : }

  00023	83 c4 14	 add	 esp, 20			; 00000014H
  00026	c3		 ret	 0
?CheckVersion@@YAHPAU_iobuf@@K@Z ENDP			; CheckVersion
_TEXT	ENDS
PUBLIC	?WriteVersion@@YAHPAU_iobuf@@K@Z		; WriteVersion
; Function compile flags: /Ogty
;	COMDAT ?WriteVersion@@YAHPAU_iobuf@@K@Z
_TEXT	SEGMENT
_fp$ = 8						; size = 4
_dwVersion$ = 12					; size = 4
?WriteVersion@@YAHPAU_iobuf@@K@Z PROC NEAR		; WriteVersion, COMDAT

; 760  : 	fwrite( &dwVersion, sizeof( DWORD ), 1, fp );

  00000	8b 44 24 04	 mov	 eax, DWORD PTR _fp$[esp-4]
  00004	50		 push	 eax
  00005	6a 01		 push	 1
  00007	8d 4c 24 10	 lea	 ecx, DWORD PTR _dwVersion$[esp+4]
  0000b	6a 04		 push	 4
  0000d	51		 push	 ecx
  0000e	e8 00 00 00 00	 call	 _fwrite
  00013	83 c4 10	 add	 esp, 16			; 00000010H

; 761  : 	return TRUE;

  00016	b8 01 00 00 00	 mov	 eax, 1

; 762  : }

  0001b	c3		 ret	 0
?WriteVersion@@YAHPAU_iobuf@@K@Z ENDP			; WriteVersion
_TEXT	ENDS
PUBLIC	?GetType@CObj@@QAEKXZ				; CObj::GetType
; Function compile flags: /Ogty
; File c:\documents and settings\test\mes documents\source\virtuos_v17\build\program\_common\obj.h
;	COMDAT ?GetType@CObj@@QAEKXZ
_TEXT	SEGMENT
?GetType@CObj@@QAEKXZ PROC NEAR				; CObj::GetType, COMDAT
; _this$ = ecx

; 206  : 	DWORD			GetType() { return m_dwType; }

  00000	8b 81 70 01 00
	00		 mov	 eax, DWORD PTR [ecx+368]
  00006	c3		 ret	 0
?GetType@CObj@@QAEKXZ ENDP				; CObj::GetType
_TEXT	ENDS
PUBLIC	?LOG_RANGE@@YAXPBDHHH@Z				; LOG_RANGE
PUBLIC	??_C@_0BM@HMFGHCP@?$CFs?5min?3?$CFd?0?5max?3?$CFd?0?5index?3?$CFd?$AA@ ; `string'
EXTRN	?Error@@YAPBDPBDZZ:NEAR				; Error
;	COMDAT ??_C@_0BM@HMFGHCP@?$CFs?5min?3?$CFd?0?5max?3?$CFd?0?5index?3?$CFd?$AA@
; File c:\documents and settings\test\mes documents\source\virtuos_v17\build\program\_common\project.h
CONST	SEGMENT
??_C@_0BM@HMFGHCP@?$CFs?5min?3?$CFd?0?5max?3?$CFd?0?5index?3?$CFd?$AA@ DB '%'
	DB	's min:%d, max:%d, index:%d', 00H		; `string'
; Function compile flags: /Ogty
CONST	ENDS
;	COMDAT ?LOG_RANGE@@YAXPBDHHH@Z
_TEXT	SEGMENT
_szMsg$ = 8						; size = 4
_nMin$ = 12						; size = 4
_nMax$ = 16						; size = 4
_nIndex$ = 20						; size = 4
?LOG_RANGE@@YAXPBDHHH@Z PROC NEAR			; LOG_RANGE, COMDAT

; 559  : 	LPCTSTR szErr = Error( _T( "%s min:%d, max:%d, index:%d" ), szMsg, nMin, nMax, nIndex ); 

  00000	8b 44 24 10	 mov	 eax, DWORD PTR _nIndex$[esp-4]
  00004	8b 4c 24 0c	 mov	 ecx, DWORD PTR _nMax$[esp-4]
  00008	8b 54 24 08	 mov	 edx, DWORD PTR _nMin$[esp-4]
  0000c	50		 push	 eax
  0000d	8b 44 24 08	 mov	 eax, DWORD PTR _szMsg$[esp]
  00011	51		 push	 ecx
  00012	52		 push	 edx
  00013	50		 push	 eax
  00014	68 00 00 00 00	 push	 OFFSET FLAT:??_C@_0BM@HMFGHCP@?$CFs?5min?3?$CFd?0?5max?3?$CFd?0?5index?3?$CFd?$AA@
  00019	e8 00 00 00 00	 call	 ?Error@@YAPBDPBDZZ	; Error
  0001e	83 c4 14	 add	 esp, 20			; 00000014H

; 560  : 	ADDERRORMSG( szErr ); 
; 561  : }

  00021	c3		 ret	 0
?LOG_RANGE@@YAXPBDHHH@Z ENDP				; LOG_RANGE
_TEXT	ENDS
PUBLIC	??_C@_0BJ@GKPOBPPI@GetMoverProp?5range_error?$AA@ ; `string'
PUBLIC	?GetMoverProp@CProject@@QAEPAUMoverProp@@H@Z	; CProject::GetMoverProp
;	COMDAT ??_C@_0BJ@GKPOBPPI@GetMoverProp?5range_error?$AA@
CONST	SEGMENT
??_C@_0BJ@GKPOBPPI@GetMoverProp?5range_error?$AA@ DB 'GetMoverProp range_'
	DB	'error', 00H					; `string'
; Function compile flags: /Ogty
CONST	ENDS
;	COMDAT ?GetMoverProp@CProject@@QAEPAUMoverProp@@H@Z
_TEXT	SEGMENT
_nIndex$ = 8						; size = 4
?GetMoverProp@CProject@@QAEPAUMoverProp@@H@Z PROC NEAR	; CProject::GetMoverProp, COMDAT
; _this$ = ecx

; 1381 : 	VERIFY_RANGE( nIndex, 0, m_nMoverPropSize, "GetMoverProp range_error", NULL );

  00000	8b 44 24 04	 mov	 eax, DWORD PTR _nIndex$[esp-4]
  00004	85 c0		 test	 eax, eax
  00006	7c 19		 jl	 SHORT $L197938
  00008	3b 81 d0 01 00
	00		 cmp	 eax, DWORD PTR [ecx+464]
  0000e	7d 11		 jge	 SHORT $L197938

; 1382 : 	return m_pPropMover + nIndex;

  00010	8b 91 d4 01 00
	00		 mov	 edx, DWORD PTR [ecx+468]
  00016	69 c0 d8 06 00
	00		 imul	 eax, 1752		; 000006d8H
  0001c	03 c2		 add	 eax, edx

; 1383 : }

  0001e	c2 04 00	 ret	 4
$L197938:

; 1381 : 	VERIFY_RANGE( nIndex, 0, m_nMoverPropSize, "GetMoverProp range_error", NULL );

  00021	50		 push	 eax
  00022	8b 81 d0 01 00
	00		 mov	 eax, DWORD PTR [ecx+464]
  00028	50		 push	 eax
  00029	6a 00		 push	 0
  0002b	68 00 00 00 00	 push	 OFFSET FLAT:??_C@_0BJ@GKPOBPPI@GetMoverProp?5range_error?$AA@
  00030	68 00 00 00 00	 push	 OFFSET FLAT:??_C@_0BM@HMFGHCP@?$CFs?5min?3?$CFd?0?5max?3?$CFd?0?5index?3?$CFd?$AA@
  00035	e8 00 00 00 00	 call	 ?Error@@YAPBDPBDZZ	; Error
  0003a	83 c4 14	 add	 esp, 20			; 00000014H
  0003d	33 c0		 xor	 eax, eax

; 1383 : }

  0003f	c2 04 00	 ret	 4
?GetMoverProp@CProject@@QAEPAUMoverProp@@H@Z ENDP	; CProject::GetMoverProp
_TEXT	ENDS
PUBLIC	?GetPropA@CMover@@QAEPAUMoverProp@@XZ		; CMover::GetPropA
EXTRN	?prj@@3VCProject@@A:BYTE			; prj
; Function compile flags: /Ogty
; File c:\documents and settings\test\mes documents\source\virtuos_v17\build\program\_common\mover.h
;	COMDAT ?GetPropA@CMover@@QAEPAUMoverProp@@XZ
_TEXT	SEGMENT
?GetPropA@CMover@@QAEPAUMoverProp@@XZ PROC NEAR		; CMover::GetPropA, COMDAT
; _this$ = ecx

; 1046 : 	MoverProp*		GetProp() { return prj.GetMoverProp( m_dwIndex ); }	// 객체의 프로퍼티 얻기 	

  00000	8b 81 74 01 00
	00		 mov	 eax, DWORD PTR [ecx+372]
  00006	85 c0		 test	 eax, eax
  00008	8b 0d d0 01 00
	00		 mov	 ecx, DWORD PTR ?prj@@3VCProject@@A+464
  0000e	7c 13		 jl	 SHORT $L232207
  00010	3b c1		 cmp	 eax, ecx
  00012	7d 0f		 jge	 SHORT $L232207
  00014	8b 0d d4 01 00
	00		 mov	 ecx, DWORD PTR ?prj@@3VCProject@@A+468
  0001a	69 c0 d8 06 00
	00		 imul	 eax, 1752		; 000006d8H
  00020	03 c1		 add	 eax, ecx
  00022	c3		 ret	 0
$L232207:
  00023	50		 push	 eax
  00024	51		 push	 ecx
  00025	6a 00		 push	 0
  00027	68 00 00 00 00	 push	 OFFSET FLAT:??_C@_0BJ@GKPOBPPI@GetMoverProp?5range_error?$AA@
  0002c	68 00 00 00 00	 push	 OFFSET FLAT:??_C@_0BM@HMFGHCP@?$CFs?5min?3?$CFd?0?5max?3?$CFd?0?5index?3?$CFd?$AA@
  00031	e8 00 00 00 00	 call	 ?Error@@YAPBDPBDZZ	; Error
  00036	83 c4 14	 add	 esp, 20			; 00000014H
  00039	33 c0		 xor	 eax, eax
  0003b	c3		 ret	 0
?GetPropA@CMover@@QAEPAUMoverProp@@XZ ENDP		; CMover::GetPropA
_TEXT	ENDS
PUBLIC	??_C@_0CM@LGAFIKMJ@CreateObj?5?3?5type?$DN?$CFd?0?5index?$DN?$CFd?0?5b@ ; `string'
PUBLIC	?CreateObj@@YAPAVCObj@@PAUIDirect3DDevice9@@KKH@Z ; CreateObj
PUBLIC	__real@3f000000
EXTRN	??0CShipLoop@@QAE@XZ:NEAR			; CShipLoop::CShipLoop
EXTRN	__fltused:NEAR
;	COMDAT xdata$x
; File c:\documents and settings\test\mes documents\source\virtuos_v17\build\program\_common\obj.h
xdata$x	SEGMENT
$T232262 DD	0ffffffffH
	DD	FLAT:$L232245
	DD	0ffffffffH
	DD	FLAT:$L232246
	DD	0ffffffffH
	DD	FLAT:$L232247
	DD	0ffffffffH
	DD	FLAT:$L232248
	DD	0ffffffffH
	DD	FLAT:$L232249
	DD	0ffffffffH
	DD	FLAT:$L232250
$T232256 DD	019930520H
	DD	06H
	DD	FLAT:$T232262
	DD	2 DUP(00H)
	DD	2 DUP(00H)
xdata$x	ENDS
;	COMDAT __real@3f000000
CONST	SEGMENT
__real@3f000000 DD 03f000000r			; 0.5
CONST	ENDS
;	COMDAT ??_C@_0CM@LGAFIKMJ@CreateObj?5?3?5type?$DN?$CFd?0?5index?$DN?$CFd?0?5b@
CONST	SEGMENT
??_C@_0CM@LGAFIKMJ@CreateObj?5?3?5type?$DN?$CFd?0?5index?$DN?$CFd?0?5b@ DB 'C'
	DB	'reateObj : type=%d, index=%d, bInitProp=%d', 00H ; `string'
; Function compile flags: /Ogty
; File c:\documents and settings\test\mes documents\source\virtuos_v17\build\program\_common\createobj.cpp
CONST	ENDS
;	COMDAT ?CreateObj@@YAPAVCObj@@PAUIDirect3DDevice9@@KKH@Z
_TEXT	SEGMENT
__$EHRec$ = -12						; size = 12
_pd3dDevice$ = 8					; size = 4
$T232238 = 12						; size = 4
$T232234 = 12						; size = 4
$T232230 = 12						; size = 4
$T232226 = 12						; size = 4
$T232222 = 12						; size = 4
$T232218 = 12						; size = 4
_dwObjType$ = 12					; size = 4
_dwObjIndex$ = 16					; size = 4
_bInitProp$ = 20					; size = 4
?CreateObj@@YAPAVCObj@@PAUIDirect3DDevice9@@KKH@Z PROC NEAR ; CreateObj, COMDAT

; 634  : {

  00000	64 a1 00 00 00
	00		 mov	 eax, DWORD PTR fs:__except_list
  00006	6a ff		 push	 -1
  00008	68 00 00 00 00	 push	 __ehhandler$?CreateObj@@YAPAVCObj@@PAUIDirect3DDevice9@@KKH@Z
  0000d	50		 push	 eax
  0000e	64 89 25 00 00
	00 00		 mov	 DWORD PTR fs:__except_list, esp
  00015	53		 push	 ebx

; 635  : 	CObj* pObj = NULL;
; 636  : 	switch( dwObjType )

  00016	8b 5c 24 18	 mov	 ebx, DWORD PTR _dwObjType$[esp+12]
  0001a	55		 push	 ebp
  0001b	8b 6c 24 20	 mov	 ebp, DWORD PTR _dwObjIndex$[esp+16]
  0001f	56		 push	 esi
  00020	33 f6		 xor	 esi, esi
  00022	83 fb 07	 cmp	 ebx, 7
  00025	57		 push	 edi
  00026	0f 87 f5 00 00
	00		 ja	 $L230832
  0002c	ff 24 9d 00 00
	00 00		 jmp	 DWORD PTR $L232260[ebx*4]
$L230809:

; 637  : 	{
; 638  : 		case OT_OBJ  : pObj = new CObj;			break;

  00033	68 bc 01 00 00	 push	 444			; 000001bcH
  00038	e8 00 00 00 00	 call	 ??2@YAPAXI@Z		; operator new
  0003d	83 c4 04	 add	 esp, 4
  00040	89 44 24 24	 mov	 DWORD PTR $T232218[esp+24], eax
  00044	3b c6		 cmp	 eax, esi
  00046	89 74 24 18	 mov	 DWORD PTR __$EHRec$[esp+36], esi
  0004a	0f 84 c5 00 00
	00		 je	 $L232235
  00050	8b c8		 mov	 ecx, eax
  00052	e8 00 00 00 00	 call	 ??0CObj@@QAE@XZ		; CObj::CObj
  00057	e9 bb 00 00 00	 jmp	 $L232236
$L230814:

; 639  : 		case OT_CTRL : pObj = new CCommonCtrl;	break;

  0005c	68 48 04 00 00	 push	 1096			; 00000448H
  00061	e8 00 00 00 00	 call	 ??2@YAPAXI@Z		; operator new
  00066	83 c4 04	 add	 esp, 4
  00069	89 44 24 24	 mov	 DWORD PTR $T232222[esp+24], eax
  0006d	3b c6		 cmp	 eax, esi
  0006f	c7 44 24 18 01
	00 00 00	 mov	 DWORD PTR __$EHRec$[esp+36], 1
  00077	0f 84 98 00 00
	00		 je	 $L232235
  0007d	8b c8		 mov	 ecx, eax
  0007f	e8 00 00 00 00	 call	 ??0CCommonCtrl@@QAE@XZ	; CCommonCtrl::CCommonCtrl
  00084	e9 8e 00 00 00	 jmp	 $L232236
$L230820:

; 640  : 		case OT_SFX  : 
; 641  : 			#ifdef __CLIENT
; 642  : 				pObj = new CSfx; 
; 643  : 			#else
; 644  : 				return NULL;
; 645  : 			#endif
; 646  : 			break;  
; 647  : 		case OT_ITEM : pObj = new CItem;		break;

  00089	68 4c 02 00 00	 push	 588			; 0000024cH
  0008e	e8 00 00 00 00	 call	 ??2@YAPAXI@Z		; operator new
  00093	83 c4 04	 add	 esp, 4
  00096	89 44 24 24	 mov	 DWORD PTR $T232226[esp+24], eax
  0009a	3b c6		 cmp	 eax, esi
  0009c	c7 44 24 18 02
	00 00 00	 mov	 DWORD PTR __$EHRec$[esp+36], 2
  000a4	74 6f		 je	 SHORT $L232235
  000a6	8b c8		 mov	 ecx, eax
  000a8	e8 00 00 00 00	 call	 ??0CItem@@QAE@XZ	; CItem::CItem
  000ad	eb 68		 jmp	 SHORT $L232236
$L230825:

; 648  : 		case OT_MOVER: pObj = new CMover;		break;

  000af	68 d8 16 00 00	 push	 5848			; 000016d8H
  000b4	e8 00 00 00 00	 call	 ??2@YAPAXI@Z		; operator new
  000b9	83 c4 04	 add	 esp, 4
  000bc	89 44 24 24	 mov	 DWORD PTR $T232230[esp+24], eax
  000c0	3b c6		 cmp	 eax, esi
  000c2	c7 44 24 18 03
	00 00 00	 mov	 DWORD PTR __$EHRec$[esp+36], 3
  000ca	74 49		 je	 SHORT $L232235
  000cc	8b c8		 mov	 ecx, eax
  000ce	e8 00 00 00 00	 call	 ??0CMover@@QAE@XZ	; CMover::CMover
  000d3	eb 42		 jmp	 SHORT $L232236
$L230830:

; 653  : 			default:	pObj = new CShip;		break;

  000d5	68 ac 04 00 00	 push	 1196			; 000004acH
  000da	e8 00 00 00 00	 call	 ??2@YAPAXI@Z		; operator new
  000df	83 c4 04	 add	 esp, 4
  000e2	83 fd 04	 cmp	 ebp, 4
  000e5	89 44 24 24	 mov	 DWORD PTR $T232238[esp+24], eax
  000e9	74 15		 je	 SHORT $L230835
  000eb	3b c6		 cmp	 eax, esi
  000ed	c7 44 24 18 05
	00 00 00	 mov	 DWORD PTR __$EHRec$[esp+36], 5
  000f5	74 1e		 je	 SHORT $L232235
  000f7	8b c8		 mov	 ecx, eax
  000f9	e8 00 00 00 00	 call	 ??0CShip@@QAE@XZ	; CShip::CShip
  000fe	eb 17		 jmp	 SHORT $L232236
$L230835:

; 649  : 		case OT_SHIP:	
; 650  : 			switch( dwObjIndex )
; 651  : 			{
; 652  : 			case 4:		pObj = new CShipLoop;	break;

  00100	3b c6		 cmp	 eax, esi
  00102	c7 44 24 18 04
	00 00 00	 mov	 DWORD PTR __$EHRec$[esp+36], 4
  0010a	74 09		 je	 SHORT $L232235
  0010c	8b c8		 mov	 ecx, eax
  0010e	e8 00 00 00 00	 call	 ??0CShipLoop@@QAE@XZ	; CShipLoop::CShipLoop
  00113	eb 02		 jmp	 SHORT $L232236
$L232235:
  00115	33 c0		 xor	 eax, eax
$L232236:
  00117	c7 44 24 18 ff
	ff ff ff	 mov	 DWORD PTR __$EHRec$[esp+36], -1
  0011f	8b f0		 mov	 esi, eax
$L230832:

; 654  : 			}
; 655  : 			break;
; 656  : 	}
; 657  : 	pObj->m_dwType = dwObjType;
; 658  : 
; 659  : 	if( pObj && pObj->GetType() == OT_SFX )

  00121	83 fb 03	 cmp	 ebx, 3
  00124	89 9e 70 01 00
	00		 mov	 DWORD PTR [esi+368], ebx

; 660  : 	{
; 661  : 		#ifdef __CLIENT
; 662  : 			((CSfx*)pObj)->SetSfx( pd3dDevice, dwObjIndex, D3DXVECTOR3( 0.0f, 0.0f, 0.0f ), NULL_ID, D3DXVECTOR3( 0.0f, 0.0f, 0.0f ), NULL_ID ); 
; 663  : 		#endif
; 664  : 		return pObj;

  0012a	74 74		 je	 SHORT $L230852

; 665  : 	}
; 666  : 	else if( pObj->SetIndex( pd3dDevice, dwObjIndex, bInitProp ) == TRUE )

  0012c	8b 7c 24 2c	 mov	 edi, DWORD PTR _bInitProp$[esp+24]
  00130	8b 4c 24 20	 mov	 ecx, DWORD PTR _pd3dDevice$[esp+24]
  00134	8b 06		 mov	 eax, DWORD PTR [esi]
  00136	57		 push	 edi
  00137	55		 push	 ebp
  00138	51		 push	 ecx
  00139	8b ce		 mov	 ecx, esi
  0013b	ff 50 2c	 call	 DWORD PTR [eax+44]
  0013e	83 f8 01	 cmp	 eax, 1
  00141	75 72		 jne	 SHORT $L230847

; 667  : 	{
; 668  : 		pObj->SetMotion( MTI_STAND );

  00143	8b 16		 mov	 edx, DWORD PTR [esi]
  00145	6a 00		 push	 0
  00147	6a 04		 push	 4
  00149	6a 00		 push	 0
  0014b	8b ce		 mov	 ecx, esi
  0014d	ff 52 04	 call	 DWORD PTR [edx+4]

; 669  : 		// 스피드를 설정하려면 현재로선 이수밖에....좆치안타.
; 670  : 		if( dwObjType == OT_MOVER )

  00150	83 fb 05	 cmp	 ebx, 5
  00153	75 4b		 jne	 SHORT $L230852

; 671  : 		{
; 672  : 			CMover *pMover = (CMover *)pObj;
; 673  : 			pMover->m_pActMover->m_fSpeed = pMover->GetProp()->fSpeed;

  00155	8b ce		 mov	 ecx, esi
  00157	e8 00 00 00 00	 call	 ?GetPropA@CMover@@QAEPAUMoverProp@@XZ ; CMover::GetPropA
  0015c	8b 8e 3c 02 00
	00		 mov	 ecx, DWORD PTR [esi+572]
  00162	8b 90 08 01 00
	00		 mov	 edx, DWORD PTR [eax+264]
  00168	89 51 48	 mov	 DWORD PTR [ecx+72], edx

; 674  : #if __VER >= 9	//__AI_0509
; 675  : 			MoverProp* pProp	= pMover->GetProp();

  0016b	8b ce		 mov	 ecx, esi
  0016d	e8 00 00 00 00	 call	 ?GetPropA@CMover@@QAEPAUMoverProp@@XZ ; CMover::GetPropA

; 676  : 			if( pProp->dwAI == AII_MONSTER
; 677  : #ifdef __AI_AGGRO
; 678  : 				|| pProp->dwAI == AII_AGGRO_NORMAL || pProp->dwAI == AII_PARTY_AGGRO_LEADER 
; 679  : 				|| pProp->dwAI == AII_PARTY_AGGRO_SUB || pProp->dwAI == AII_ARENA_REAPER )

  00172	8b 40 48	 mov	 eax, DWORD PTR [eax+72]
  00175	83 f8 02	 cmp	 eax, 2
  00178	74 14		 je	 SHORT $L230853
  0017a	83 f8 0b	 cmp	 eax, 11			; 0000000bH
  0017d	74 0f		 je	 SHORT $L230853
  0017f	83 f8 0c	 cmp	 eax, 12			; 0000000cH
  00182	74 0a		 je	 SHORT $L230853
  00184	83 f8 0d	 cmp	 eax, 13			; 0000000dH
  00187	74 05		 je	 SHORT $L230853
  00189	83 f8 0e	 cmp	 eax, 14			; 0000000eH
  0018c	75 12		 jne	 SHORT $L230852
$L230853:

; 680  : #endif//__AI_AGGRO
; 681  : 			{
; 682  : 				pMover->m_pActMover->m_fSpeed	/= 2.0F;

  0018e	8b 86 3c 02 00
	00		 mov	 eax, DWORD PTR [esi+572]
  00194	d9 40 48	 fld	 DWORD PTR [eax+72]
  00197	d8 0d 00 00 00
	00		 fmul	 DWORD PTR __real@3f000000
  0019d	d9 58 48	 fstp	 DWORD PTR [eax+72]
$L230852:

; 683  : //				if( pProp->dwClass == RANK_SUPER )
; 684  : //					pMover->m_pActMover->m_fSpeed	*= 1.5F;
; 685  : 			}
; 686  : #endif	// __AI_0509
; 687  : 		}
; 688  : 		return pObj;

  001a0	8b c6		 mov	 eax, esi

; 693  : 	return NULL;
; 694  : }

  001a2	8b 4c 24 10	 mov	 ecx, DWORD PTR __$EHRec$[esp+28]
  001a6	64 89 0d 00 00
	00 00		 mov	 DWORD PTR fs:__except_list, ecx
  001ad	5f		 pop	 edi
  001ae	5e		 pop	 esi
  001af	5d		 pop	 ebp
  001b0	5b		 pop	 ebx
  001b1	83 c4 0c	 add	 esp, 12			; 0000000cH
  001b4	c3		 ret	 0
$L230847:

; 689  : 	}
; 690  : 
; 691  : 	Error( "CreateObj : type=%d, index=%d, bInitProp=%d", dwObjType, dwObjIndex, bInitProp );

  001b5	57		 push	 edi
  001b6	55		 push	 ebp
  001b7	53		 push	 ebx
  001b8	68 00 00 00 00	 push	 OFFSET FLAT:??_C@_0CM@LGAFIKMJ@CreateObj?5?3?5type?$DN?$CFd?0?5index?$DN?$CFd?0?5b@
  001bd	e8 00 00 00 00	 call	 ?Error@@YAPBDPBDZZ	; Error

; 692  : 	SAFE_DELETE( pObj );

  001c2	8b 06		 mov	 eax, DWORD PTR [esi]
  001c4	83 c4 10	 add	 esp, 16			; 00000010H
  001c7	6a 01		 push	 1
  001c9	8b ce		 mov	 ecx, esi
  001cb	ff 10		 call	 DWORD PTR [eax]
$L230819:

; 693  : 	return NULL;
; 694  : }

  001cd	8b 4c 24 10	 mov	 ecx, DWORD PTR __$EHRec$[esp+28]
  001d1	5f		 pop	 edi
  001d2	5e		 pop	 esi
  001d3	5d		 pop	 ebp
  001d4	33 c0		 xor	 eax, eax
  001d6	64 89 0d 00 00
	00 00		 mov	 DWORD PTR fs:__except_list, ecx
  001dd	5b		 pop	 ebx
  001de	83 c4 0c	 add	 esp, 12			; 0000000cH
  001e1	c3		 ret	 0
  001e2	8b ff		 npad	 2
$L232260:
  001e4	00 00 00 00	 DD	 $L230809
  001e8	00 00 00 00	 DD	 $L230832
  001ec	00 00 00 00	 DD	 $L230814
  001f0	00 00 00 00	 DD	 $L230819
  001f4	00 00 00 00	 DD	 $L230820
  001f8	00 00 00 00	 DD	 $L230825
  001fc	00 00 00 00	 DD	 $L230832
  00200	00 00 00 00	 DD	 $L230830
_TEXT	ENDS
;	COMDAT text$x
text$x	SEGMENT
$L232245:
  00000	8b 45 08	 mov	 eax, DWORD PTR $T232218[ebp-4]
  00003	50		 push	 eax
  00004	e8 00 00 00 00	 call	 ??3@YAXPAX@Z		; operator delete
  00009	59		 pop	 ecx
  0000a	c3		 ret	 0
$L232246:
  0000b	8b 45 08	 mov	 eax, DWORD PTR $T232222[ebp-4]
  0000e	50		 push	 eax
  0000f	e8 00 00 00 00	 call	 ??3@YAXPAX@Z		; operator delete
  00014	59		 pop	 ecx
  00015	c3		 ret	 0
$L232247:
  00016	8b 45 08	 mov	 eax, DWORD PTR $T232226[ebp-4]
  00019	50		 push	 eax
  0001a	e8 00 00 00 00	 call	 ??3@YAXPAX@Z		; operator delete
  0001f	59		 pop	 ecx
  00020	c3		 ret	 0
$L232248:
  00021	8b 45 08	 mov	 eax, DWORD PTR $T232230[ebp-4]
  00024	50		 push	 eax
  00025	e8 00 00 00 00	 call	 ??3@YAXPAX@Z		; operator delete
  0002a	59		 pop	 ecx
  0002b	c3		 ret	 0
$L232250:
  0002c	8b 45 08	 mov	 eax, DWORD PTR $T232238[ebp-4]
  0002f	50		 push	 eax
  00030	e8 00 00 00 00	 call	 ??3@YAXPAX@Z		; operator delete
  00035	59		 pop	 ecx
  00036	c3		 ret	 0
$L232249:
  00037	8b 45 08	 mov	 eax, DWORD PTR $T232234[ebp-4]
  0003a	50		 push	 eax
  0003b	e8 00 00 00 00	 call	 ??3@YAXPAX@Z		; operator delete
  00040	59		 pop	 ecx
  00041	c3		 ret	 0
__ehhandler$?CreateObj@@YAPAVCObj@@PAUIDirect3DDevice9@@KKH@Z:
  00042	b8 00 00 00 00	 mov	 eax, OFFSET FLAT:$T232256
  00047	e9 00 00 00 00	 jmp	 ___CxxFrameHandler
text$x	ENDS
?CreateObj@@YAPAVCObj@@PAUIDirect3DDevice9@@KKH@Z ENDP	; CreateObj
PUBLIC	?CreateMover@@YAPAVCMover@@PAVCWorld@@KABUD3DXVECTOR3@@H@Z ; CreateMover
EXTRN	?AddObj@CWorld@@QAEHPAVCObj@@HH@Z:NEAR		; CWorld::AddObj
EXTRN	?UpdateLocalMatrix@CObj@@QAEXXZ:NEAR		; CObj::UpdateLocalMatrix
EXTRN	?SetPos@CObj@@QAEXABUD3DXVECTOR3@@@Z:NEAR	; CObj::SetPos
; Function compile flags: /Ogty
;	COMDAT ?CreateMover@@YAPAVCMover@@PAVCWorld@@KABUD3DXVECTOR3@@H@Z
_TEXT	SEGMENT
_pWorld$ = 8						; size = 4
_dwID$ = 12						; size = 4
_vPos$ = 16						; size = 4
_nLayer$ = 20						; size = 4
?CreateMover@@YAPAVCMover@@PAVCWorld@@KABUD3DXVECTOR3@@H@Z PROC NEAR ; CreateMover, COMDAT

; 618  : 	CMover *pMover;
; 619  : 
; 620  : 	pMover = (CMover *)CreateObj( D3DDEVICE, OT_MOVER, dwID );

  00000	8b 44 24 08	 mov	 eax, DWORD PTR _dwID$[esp-4]
  00004	56		 push	 esi
  00005	6a 01		 push	 1
  00007	50		 push	 eax
  00008	6a 05		 push	 5
  0000a	6a 00		 push	 0
  0000c	e8 00 00 00 00	 call	 ?CreateObj@@YAPAVCObj@@PAUIDirect3DDevice9@@KKH@Z ; CreateObj
  00011	8b f0		 mov	 esi, eax
  00013	83 c4 10	 add	 esp, 16			; 00000010H

; 621  : 	if( pMover == NULL )	

  00016	85 f6		 test	 esi, esi
  00018	75 02		 jne	 SHORT $L230797
  0001a	5e		 pop	 esi

; 631  : }

  0001b	c3		 ret	 0
$L230797:

; 622  : 		return NULL;
; 623  : 	pMover->SetPos( vPos );

  0001c	8b 4c 24 10	 mov	 ecx, DWORD PTR _vPos$[esp]
  00020	51		 push	 ecx
  00021	8b ce		 mov	 ecx, esi
  00023	e8 00 00 00 00	 call	 ?SetPos@CObj@@QAEXABUD3DXVECTOR3@@@Z ; CObj::SetPos

; 624  : 	pMover->InitMotion( MTI_STAND );

  00028	8b 16		 mov	 edx, DWORD PTR [esi]
  0002a	6a 00		 push	 0
  0002c	8b ce		 mov	 ecx, esi
  0002e	ff 52 08	 call	 DWORD PTR [edx+8]

; 625  : 	pMover->UpdateLocalMatrix();

  00031	8b ce		 mov	 ecx, esi
  00033	e8 00 00 00 00	 call	 ?UpdateLocalMatrix@CObj@@QAEXXZ ; CObj::UpdateLocalMatrix

; 626  : 	
; 627  : 	pMover->AddItToGlobalId();

  00038	8b 06		 mov	 eax, DWORD PTR [esi]
  0003a	8b ce		 mov	 ecx, esi
  0003c	ff 50 3c	 call	 DWORD PTR [eax+60]

; 628  : 	pWorld->ADDOBJ( pMover, FALSE, nLayer );

  0003f	8b 4c 24 14	 mov	 ecx, DWORD PTR _nLayer$[esp]
  00043	51		 push	 ecx
  00044	8b 4c 24 0c	 mov	 ecx, DWORD PTR _pWorld$[esp+4]
  00048	6a 00		 push	 0
  0004a	56		 push	 esi
  0004b	e8 00 00 00 00	 call	 ?AddObj@CWorld@@QAEHPAVCObj@@HH@Z ; CWorld::AddObj

; 629  : 
; 630  : 	return pMover;

  00050	8b c6		 mov	 eax, esi
  00052	5e		 pop	 esi

; 631  : }

  00053	c3		 ret	 0
?CreateMover@@YAPAVCMover@@PAVCWorld@@KABUD3DXVECTOR3@@H@Z ENDP ; CreateMover
_TEXT	ENDS
END
