; Listing generated by Microsoft (R) Optimizing Compiler Version 13.10.6030 

	TITLE	\Documents and Settings\test\Mes documents\Source\Virtuos_v17\Build\Program\_Network\Net\Src\dpmng.cpp
	.386P
include listing.inc
if @Version gt 510
.model FLAT
else
_TEXT	SEGMENT PARA USE32 PUBLIC 'CODE'
_TEXT	ENDS
_DATA	SEGMENT DWORD USE32 PUBLIC 'DATA'
_DATA	ENDS
CONST	SEGMENT DWORD USE32 PUBLIC 'CONST'
CONST	ENDS
_BSS	SEGMENT DWORD USE32 PUBLIC 'BSS'
_BSS	ENDS
$$SYMBOLS	SEGMENT BYTE USE32 'DEBSYM'
$$SYMBOLS	ENDS
$$TYPES	SEGMENT BYTE USE32 'DEBTYP'
$$TYPES	ENDS
_TLS	SEGMENT DWORD USE32 PUBLIC 'TLS'
_TLS	ENDS
;	COMDAT ??_C@_0GH@KPIEFKLO@?2Documents?5and?5Settings?2test?2Mes@
CONST	SEGMENT DWORD USE32 PUBLIC 'CONST'
CONST	ENDS
;	COMDAT ??_C@_05DIALNFFA@?$CFs?5?$CFd?$AA@
CONST	SEGMENT DWORD USE32 PUBLIC 'CONST'
CONST	ENDS
;	COMDAT ??_C@_0BK@EPHKKBKJ@CDPMng?3?3ReceiveMessage?5?$CFd?$AA@
CONST	SEGMENT DWORD USE32 PUBLIC 'CONST'
CONST	ENDS
xdata$x	SEGMENT DWORD USE32 PUBLIC 'CONST'
xdata$x	ENDS
text$AFX_COL1	SEGMENT PARA USE32 PUBLIC ''
text$AFX_COL1	ENDS
;	COMDAT ?GetHeaderLength@CBuffer@@QAEKXZ
_TEXT	SEGMENT PARA USE32 PUBLIC 'CODE'
_TEXT	ENDS
;	COMDAT ?GetPacketSize@CBuffer2@@UAEKPAE@Z
_TEXT	SEGMENT PARA USE32 PUBLIC 'CODE'
_TEXT	ENDS
;	COMDAT ?SetHeader@CBuffer2@@UAEXK@Z
_TEXT	SEGMENT PARA USE32 PUBLIC 'CODE'
_TEXT	ENDS
;	COMDAT ??_GCBuffer2@@UAEPAXI@Z
_TEXT	SEGMENT PARA USE32 PUBLIC 'CODE'
_TEXT	ENDS
;	COMDAT ??1CBuffer2@@UAE@XZ
_TEXT	SEGMENT PARA USE32 PUBLIC 'CODE'
_TEXT	ENDS
;	COMDAT ?IsEmpty@CBufferQueue@@QAEHXZ
_TEXT	SEGMENT PARA USE32 PUBLIC 'CODE'
_TEXT	ENDS
;	COMDAT ??1CMapChild@@UAE@XZ
_TEXT	SEGMENT PARA USE32 PUBLIC 'CODE'
_TEXT	ENDS
;	COMDAT ??_GCMapChild@@UAEPAXI@Z
_TEXT	SEGMENT PARA USE32 PUBLIC 'CODE'
_TEXT	ENDS
;	COMDAT ??1?$map@KPAVCClientSock@@U?$less@K@std@@V?$allocator@U?$pair@$$CBKPAVCClientSock@@@std@@@3@@std@@QAE@XZ
_TEXT	SEGMENT PARA USE32 PUBLIC 'CODE'
_TEXT	ENDS
;	COMDAT ??1CMapChildE@@UAE@XZ
_TEXT	SEGMENT PARA USE32 PUBLIC 'CODE'
_TEXT	ENDS
;	COMDAT ??_GCMapChildE@@UAEPAXI@Z
_TEXT	SEGMENT PARA USE32 PUBLIC 'CODE'
_TEXT	ENDS
;	COMDAT ??1?$map@KPAVCClientSockE@@U?$less@K@std@@V?$allocator@U?$pair@$$CBKPAVCClientSockE@@@std@@@3@@std@@QAE@XZ
_TEXT	SEGMENT PARA USE32 PUBLIC 'CODE'
_TEXT	ENDS
;	COMDAT ?GetRecvHandle@CDPSock@@QAEPAXXZ
_TEXT	SEGMENT PARA USE32 PUBLIC 'CODE'
_TEXT	ENDS
;	COMDAT ?GetHostAddr@CDPSock@@QAEJPAXPAK@Z
_TEXT	SEGMENT PARA USE32 PUBLIC 'CODE'
_TEXT	ENDS
;	COMDAT ?GetPlayerAddr@CDPSock@@QAEJKPAXPAK@Z
_TEXT	SEGMENT PARA USE32 PUBLIC 'CODE'
_TEXT	ENDS
;	COMDAT ?GetPlayerAddr@CDPSock@@QAEKK@Z
_TEXT	SEGMENT PARA USE32 PUBLIC 'CODE'
_TEXT	ENDS
;	COMDAT ?GetRecvHandle@CDPMng@@QAEPAXXZ
_TEXT	SEGMENT PARA USE32 PUBLIC 'CODE'
_TEXT	ENDS
;	COMDAT ?GetCloseHandle@CDPMng@@QAEPAXXZ
_TEXT	SEGMENT PARA USE32 PUBLIC 'CODE'
_TEXT	ENDS
;	COMDAT ??0CDPMng@@QAE@XZ
_TEXT	SEGMENT PARA USE32 PUBLIC 'CODE'
_TEXT	ENDS
;	COMDAT ??_GCDPMng@@UAEPAXI@Z
_TEXT	SEGMENT PARA USE32 PUBLIC 'CODE'
_TEXT	ENDS
;	COMDAT ??1CDPMng@@UAE@XZ
_TEXT	SEGMENT PARA USE32 PUBLIC 'CODE'
_TEXT	ENDS
;	COMDAT ?CreateDPObject@CDPMng@@QAEHH@Z
_TEXT	SEGMENT PARA USE32 PUBLIC 'CODE'
_TEXT	ENDS
;	COMDAT ?DeleteDPObject@CDPMng@@QAEHXZ
_TEXT	SEGMENT PARA USE32 PUBLIC 'CODE'
_TEXT	ENDS
;	COMDAT ?InitConnection@CDPMng@@QAEHPAXG@Z
_TEXT	SEGMENT PARA USE32 PUBLIC 'CODE'
_TEXT	ENDS
;	COMDAT ?CreateSession@CDPMng@@QAEHPBDW4BUFFER_TYPE@@@Z
_TEXT	SEGMENT PARA USE32 PUBLIC 'CODE'
_TEXT	ENDS
;	COMDAT ?JoinSession@CDPMng@@QAEHPBDW4BUFFER_TYPE@@@Z
_TEXT	SEGMENT PARA USE32 PUBLIC 'CODE'
_TEXT	ENDS
;	COMDAT ?GetHostAddr@CDPMng@@QAEXPAD@Z
_TEXT	SEGMENT PARA USE32 PUBLIC 'CODE'
_TEXT	ENDS
;	COMDAT ?GetPlayerAddr@CDPMng@@QAEXKPAD@Z
_TEXT	SEGMENT PARA USE32 PUBLIC 'CODE'
_TEXT	ENDS
;	COMDAT ?GetPlayerAddr@CDPMng@@QAEKK@Z
_TEXT	SEGMENT PARA USE32 PUBLIC 'CODE'
_TEXT	ENDS
;	COMDAT ?ReceiveMessage@CDPMng@@QAEHXZ
_TEXT	SEGMENT PARA USE32 PUBLIC 'CODE'
_TEXT	ENDS
;	COMDAT ?DestroyPlayer@CDPMng@@QAEHK@Z
_TEXT	SEGMENT PARA USE32 PUBLIC 'CODE'
_TEXT	ENDS
;	COMDAT ?ReceiveThread@@YGIPAX@Z
_TEXT	SEGMENT PARA USE32 PUBLIC 'CODE'
_TEXT	ENDS
;	COMDAT ?InitializeNetLib@@YAHXZ
_TEXT	SEGMENT PARA USE32 PUBLIC 'CODE'
_TEXT	ENDS
;	COMDAT ?UninitializeNetLib@@YAXXZ
_TEXT	SEGMENT PARA USE32 PUBLIC 'CODE'
_TEXT	ENDS
;	COMDAT ?TestNetLib@@YAXPBDG@Z
_TEXT	SEGMENT PARA USE32 PUBLIC 'CODE'
_TEXT	ENDS
;	COMDAT ?compare@?$basic_string@DU?$char_traits@D@std@@V?$allocator@D@2@@std@@QBEHABV12@@Z
_TEXT	SEGMENT PARA USE32 PUBLIC 'CODE'
_TEXT	ENDS
;	COMDAT ?IsFull@?$CStack@K@@QAEHXZ
_TEXT	SEGMENT PARA USE32 PUBLIC 'CODE'
_TEXT	ENDS
;	COMDAT ??0?$pair@KPAVCCtrl@@@std@@QAE@ABKABQAVCCtrl@@@Z
_TEXT	SEGMENT PARA USE32 PUBLIC 'CODE'
_TEXT	ENDS
;	COMDAT ?GetMax@?$CItemContainer@VCItemElem@@@@QAEHXZ
_TEXT	SEGMENT PARA USE32 PUBLIC 'CODE'
_TEXT	ENDS
;	COMDAT ??0?$deque@PAUtagACTMSG@@V?$allocator@PAUtagACTMSG@@@std@@@std@@QAE@XZ
_TEXT	SEGMENT PARA USE32 PUBLIC 'CODE'
_TEXT	ENDS
;	COMDAT ??1?$deque@PAUtagACTMSG@@V?$allocator@PAUtagACTMSG@@@std@@@std@@QAE@XZ
_TEXT	SEGMENT PARA USE32 PUBLIC 'CODE'
_TEXT	ENDS
;	COMDAT ?begin@?$deque@PAUtagACTMSG@@V?$allocator@PAUtagACTMSG@@@std@@@std@@QAE?AViterator@12@XZ
_TEXT	SEGMENT PARA USE32 PUBLIC 'CODE'
_TEXT	ENDS
;	COMDAT ?end@?$deque@PAUtagACTMSG@@V?$allocator@PAUtagACTMSG@@@std@@@std@@QAE?AViterator@12@XZ
_TEXT	SEGMENT PARA USE32 PUBLIC 'CODE'
_TEXT	ENDS
;	COMDAT ?empty@?$deque@PAUtagACTMSG@@V?$allocator@PAUtagACTMSG@@@std@@@std@@QBE_NXZ
_TEXT	SEGMENT PARA USE32 PUBLIC 'CODE'
_TEXT	ENDS
;	COMDAT ?clear@?$deque@PAUtagACTMSG@@V?$allocator@PAUtagACTMSG@@@std@@@std@@QAEXXZ
_TEXT	SEGMENT PARA USE32 PUBLIC 'CODE'
_TEXT	ENDS
;	COMDAT ??0?$deque@PAUtagMAGICATKMSG@@V?$allocator@PAUtagMAGICATKMSG@@@std@@@std@@QAE@XZ
_TEXT	SEGMENT PARA USE32 PUBLIC 'CODE'
_TEXT	ENDS
;	COMDAT ??1?$deque@PAUtagMAGICATKMSG@@V?$allocator@PAUtagMAGICATKMSG@@@std@@@std@@QAE@XZ
_TEXT	SEGMENT PARA USE32 PUBLIC 'CODE'
_TEXT	ENDS
;	COMDAT ?begin@?$deque@PAUtagMAGICATKMSG@@V?$allocator@PAUtagMAGICATKMSG@@@std@@@std@@QAE?AViterator@12@XZ
_TEXT	SEGMENT PARA USE32 PUBLIC 'CODE'
_TEXT	ENDS
;	COMDAT ?end@?$deque@PAUtagMAGICATKMSG@@V?$allocator@PAUtagMAGICATKMSG@@@std@@@std@@QAE?AViterator@12@XZ
_TEXT	SEGMENT PARA USE32 PUBLIC 'CODE'
_TEXT	ENDS
;	COMDAT ?empty@?$deque@PAUtagMAGICATKMSG@@V?$allocator@PAUtagMAGICATKMSG@@@std@@@std@@QBE_NXZ
_TEXT	SEGMENT PARA USE32 PUBLIC 'CODE'
_TEXT	ENDS
;	COMDAT ?clear@?$deque@PAUtagMAGICATKMSG@@V?$allocator@PAUtagMAGICATKMSG@@@std@@@std@@QAEXXZ
_TEXT	SEGMENT PARA USE32 PUBLIC 'CODE'
_TEXT	ENDS
;	COMDAT ??Diterator@?$deque@PAUtagACTMSG@@V?$allocator@PAUtagACTMSG@@@std@@@std@@QBEAAPAUtagACTMSG@@XZ
_TEXT	SEGMENT PARA USE32 PUBLIC 'CODE'
_TEXT	ENDS
;	COMDAT ??Eiterator@?$deque@PAUtagACTMSG@@V?$allocator@PAUtagACTMSG@@@std@@@std@@QAEAAV012@XZ
_TEXT	SEGMENT PARA USE32 PUBLIC 'CODE'
_TEXT	ENDS
;	COMDAT ??9const_iterator@?$deque@PAUtagACTMSG@@V?$allocator@PAUtagACTMSG@@@std@@@std@@QBE_NABV012@@Z
_TEXT	SEGMENT PARA USE32 PUBLIC 'CODE'
_TEXT	ENDS
;	COMDAT ??Diterator@?$deque@PAUtagMAGICATKMSG@@V?$allocator@PAUtagMAGICATKMSG@@@std@@@std@@QBEAAPAUtagMAGICATKMSG@@XZ
_TEXT	SEGMENT PARA USE32 PUBLIC 'CODE'
_TEXT	ENDS
;	COMDAT ??Eiterator@?$deque@PAUtagMAGICATKMSG@@V?$allocator@PAUtagMAGICATKMSG@@@std@@@std@@QAEAAV012@XZ
_TEXT	SEGMENT PARA USE32 PUBLIC 'CODE'
_TEXT	ENDS
;	COMDAT ??9const_iterator@?$deque@PAUtagMAGICATKMSG@@V?$allocator@PAUtagMAGICATKMSG@@@std@@@std@@QBE_NABV012@@Z
_TEXT	SEGMENT PARA USE32 PUBLIC 'CODE'
_TEXT	ENDS
;	COMDAT ??0?$map@KPAVCClientSock@@U?$less@K@std@@V?$allocator@U?$pair@$$CBKPAVCClientSock@@@std@@@3@@std@@QAE@XZ
_TEXT	SEGMENT PARA USE32 PUBLIC 'CODE'
_TEXT	ENDS
;	COMDAT ??1?$_Tree@V?$_Tmap_traits@KPAVCClientSock@@U?$less@K@std@@V?$allocator@U?$pair@$$CBKPAVCClientSock@@@std@@@3@$0A@@std@@@std@@QAE@XZ
_TEXT	SEGMENT PARA USE32 PUBLIC 'CODE'
_TEXT	ENDS
;	COMDAT ?end@?$_Tree@V?$_Tmap_traits@KPAVCClientSock@@U?$less@K@std@@V?$allocator@U?$pair@$$CBKPAVCClientSock@@@std@@@3@$0A@@std@@@std@@QAE?AViterator@12@XZ
_TEXT	SEGMENT PARA USE32 PUBLIC 'CODE'
_TEXT	ENDS
;	COMDAT ?find@?$_Tree@V?$_Tmap_traits@KPAVCClientSock@@U?$less@K@std@@V?$allocator@U?$pair@$$CBKPAVCClientSock@@@std@@@3@$0A@@std@@@std@@QAE?AViterator@12@ABK@Z
_TEXT	SEGMENT PARA USE32 PUBLIC 'CODE'
_TEXT	ENDS
;	COMDAT ??Citerator@?$_Tree@V?$_Tmap_traits@KPAVCClientSock@@U?$less@K@std@@V?$allocator@U?$pair@$$CBKPAVCClientSock@@@std@@@3@$0A@@std@@@std@@QBEPAU?$pair@$$CBKPAVCClientSock@@@2@XZ
_TEXT	SEGMENT PARA USE32 PUBLIC 'CODE'
_TEXT	ENDS
;	COMDAT ??9const_iterator@?$_Tree@V?$_Tmap_traits@KPAVCClientSock@@U?$less@K@std@@V?$allocator@U?$pair@$$CBKPAVCClientSock@@@std@@@3@$0A@@std@@@std@@QBE_NABV012@@Z
_TEXT	SEGMENT PARA USE32 PUBLIC 'CODE'
_TEXT	ENDS
;	COMDAT ??0?$map@KPAVCClientSockE@@U?$less@K@std@@V?$allocator@U?$pair@$$CBKPAVCClientSockE@@@std@@@3@@std@@QAE@XZ
_TEXT	SEGMENT PARA USE32 PUBLIC 'CODE'
_TEXT	ENDS
;	COMDAT ??1?$_Tree@V?$_Tmap_traits@KPAVCClientSockE@@U?$less@K@std@@V?$allocator@U?$pair@$$CBKPAVCClientSockE@@@std@@@3@$0A@@std@@@std@@QAE@XZ
_TEXT	SEGMENT PARA USE32 PUBLIC 'CODE'
_TEXT	ENDS
;	COMDAT ?end@?$_Tree@V?$_Tmap_traits@KPAVCClientSockE@@U?$less@K@std@@V?$allocator@U?$pair@$$CBKPAVCClientSockE@@@std@@@3@$0A@@std@@@std@@QAE?AViterator@12@XZ
_TEXT	SEGMENT PARA USE32 PUBLIC 'CODE'
_TEXT	ENDS
;	COMDAT ?find@?$_Tree@V?$_Tmap_traits@KPAVCClientSockE@@U?$less@K@std@@V?$allocator@U?$pair@$$CBKPAVCClientSockE@@@std@@@3@$0A@@std@@@std@@QAE?AViterator@12@ABK@Z
_TEXT	SEGMENT PARA USE32 PUBLIC 'CODE'
_TEXT	ENDS
;	COMDAT ??Citerator@?$_Tree@V?$_Tmap_traits@KPAVCClientSockE@@U?$less@K@std@@V?$allocator@U?$pair@$$CBKPAVCClientSockE@@@std@@@3@$0A@@std@@@std@@QBEPAU?$pair@$$CBKPAVCClientSockE@@@2@XZ
_TEXT	SEGMENT PARA USE32 PUBLIC 'CODE'
_TEXT	ENDS
;	COMDAT ??9const_iterator@?$_Tree@V?$_Tmap_traits@KPAVCClientSockE@@U?$less@K@std@@V?$allocator@U?$pair@$$CBKPAVCClientSockE@@@std@@@3@$0A@@std@@@std@@QBE_NABV012@@Z
_TEXT	SEGMENT PARA USE32 PUBLIC 'CODE'
_TEXT	ENDS
;	COMDAT ?compare@?$basic_string@DU?$char_traits@D@std@@V?$allocator@D@2@@std@@QBEHIIPBDI@Z
_TEXT	SEGMENT PARA USE32 PUBLIC 'CODE'
_TEXT	ENDS
;	COMDAT ?_Tidy@?$deque@PAUtagACTMSG@@V?$allocator@PAUtagACTMSG@@@std@@@std@@IAEXXZ
_TEXT	SEGMENT PARA USE32 PUBLIC 'CODE'
_TEXT	ENDS
;	COMDAT ??0?$_Deque_val@PAUtagACTMSG@@V?$allocator@PAUtagACTMSG@@@std@@@std@@IAE@V?$allocator@PAUtagACTMSG@@@1@@Z
_TEXT	SEGMENT PARA USE32 PUBLIC 'CODE'
_TEXT	ENDS
;	COMDAT ??0?$allocator@PAUtagACTMSG@@@std@@QAE@XZ
_TEXT	SEGMENT PARA USE32 PUBLIC 'CODE'
_TEXT	ENDS
;	COMDAT ?_Tidy@?$deque@PAUtagMAGICATKMSG@@V?$allocator@PAUtagMAGICATKMSG@@@std@@@std@@IAEXXZ
_TEXT	SEGMENT PARA USE32 PUBLIC 'CODE'
_TEXT	ENDS
;	COMDAT ??0?$_Deque_val@PAUtagMAGICATKMSG@@V?$allocator@PAUtagMAGICATKMSG@@@std@@@std@@IAE@V?$allocator@PAUtagMAGICATKMSG@@@1@@Z
_TEXT	SEGMENT PARA USE32 PUBLIC 'CODE'
_TEXT	ENDS
;	COMDAT ??0?$allocator@PAUtagMAGICATKMSG@@@std@@QAE@XZ
_TEXT	SEGMENT PARA USE32 PUBLIC 'CODE'
_TEXT	ENDS
;	COMDAT ??0iterator@?$deque@PAUtagACTMSG@@V?$allocator@PAUtagACTMSG@@@std@@@std@@QAE@IPBV12@@Z
_TEXT	SEGMENT PARA USE32 PUBLIC 'CODE'
_TEXT	ENDS
;	COMDAT ??Dconst_iterator@?$deque@PAUtagACTMSG@@V?$allocator@PAUtagACTMSG@@@std@@@std@@QBEABQAUtagACTMSG@@XZ
_TEXT	SEGMENT PARA USE32 PUBLIC 'CODE'
_TEXT	ENDS
;	COMDAT ??8const_iterator@?$deque@PAUtagACTMSG@@V?$allocator@PAUtagACTMSG@@@std@@@std@@QBE_NABV012@@Z
_TEXT	SEGMENT PARA USE32 PUBLIC 'CODE'
_TEXT	ENDS
;	COMDAT ??0iterator@?$deque@PAUtagMAGICATKMSG@@V?$allocator@PAUtagMAGICATKMSG@@@std@@@std@@QAE@IPBV12@@Z
_TEXT	SEGMENT PARA USE32 PUBLIC 'CODE'
_TEXT	ENDS
;	COMDAT ??Dconst_iterator@?$deque@PAUtagMAGICATKMSG@@V?$allocator@PAUtagMAGICATKMSG@@@std@@@std@@QBEABQAUtagMAGICATKMSG@@XZ
_TEXT	SEGMENT PARA USE32 PUBLIC 'CODE'
_TEXT	ENDS
;	COMDAT ??8const_iterator@?$deque@PAUtagMAGICATKMSG@@V?$allocator@PAUtagMAGICATKMSG@@@std@@@std@@QBE_NABV012@@Z
_TEXT	SEGMENT PARA USE32 PUBLIC 'CODE'
_TEXT	ENDS
;	COMDAT ?_Key@?$_Tree@V?$_Tmap_traits@KPAVCClientSock@@U?$less@K@std@@V?$allocator@U?$pair@$$CBKPAVCClientSock@@@std@@@3@$0A@@std@@@std@@KAABKPAU_Node@?$_Tree_nod@V?$_Tmap_traits@KPAVCClientSock@@U?$less@K@std@@V?$allocator@U?$pair@$$CBKPAVCClientSock@@@std@@@3@$0A@@std@@@2@@Z
_TEXT	SEGMENT PARA USE32 PUBLIC 'CODE'
_TEXT	ENDS
;	COMDAT ??0?$_Tree@V?$_Tmap_traits@KPAVCClientSock@@U?$less@K@std@@V?$allocator@U?$pair@$$CBKPAVCClientSock@@@std@@@3@$0A@@std@@@std@@QAE@ABU?$less@K@1@ABV?$allocator@U?$pair@$$CBKPAVCClientSock@@@std@@@1@@Z
_TEXT	SEGMENT PARA USE32 PUBLIC 'CODE'
_TEXT	ENDS
;	COMDAT ?lower_bound@?$_Tree@V?$_Tmap_traits@KPAVCClientSock@@U?$less@K@std@@V?$allocator@U?$pair@$$CBKPAVCClientSock@@@std@@@3@$0A@@std@@@std@@QAE?AViterator@12@ABK@Z
_TEXT	SEGMENT PARA USE32 PUBLIC 'CODE'
_TEXT	ENDS
;	COMDAT ?_Tidy@?$_Tree@V?$_Tmap_traits@KPAVCClientSock@@U?$less@K@std@@V?$allocator@U?$pair@$$CBKPAVCClientSock@@@std@@@3@$0A@@std@@@std@@IAEXXZ
_TEXT	SEGMENT PARA USE32 PUBLIC 'CODE'
_TEXT	ENDS
;	COMDAT ??0?$allocator@U?$pair@$$CBKPAVCClientSock@@@std@@@std@@QAE@XZ
_TEXT	SEGMENT PARA USE32 PUBLIC 'CODE'
_TEXT	ENDS
;	COMDAT ??0iterator@?$_Tree@V?$_Tmap_traits@KPAVCClientSock@@U?$less@K@std@@V?$allocator@U?$pair@$$CBKPAVCClientSock@@@std@@@3@$0A@@std@@@std@@QAE@PAU_Node@?$_Tree_nod@V?$_Tmap_traits@KPAVCClientSock@@U?$less@K@std@@V?$allocator@U?$pair@$$CBKPAVCClientSock@@@std@@@3@$0A@@std@@@2@@Z
_TEXT	SEGMENT PARA USE32 PUBLIC 'CODE'
_TEXT	ENDS
;	COMDAT ??Diterator@?$_Tree@V?$_Tmap_traits@KPAVCClientSock@@U?$less@K@std@@V?$allocator@U?$pair@$$CBKPAVCClientSock@@@std@@@3@$0A@@std@@@std@@QBEAAU?$pair@$$CBKPAVCClientSock@@@2@XZ
_TEXT	SEGMENT PARA USE32 PUBLIC 'CODE'
_TEXT	ENDS
;	COMDAT ??8const_iterator@?$_Tree@V?$_Tmap_traits@KPAVCClientSock@@U?$less@K@std@@V?$allocator@U?$pair@$$CBKPAVCClientSock@@@std@@@3@$0A@@std@@@std@@QBE_NABV012@@Z
_TEXT	SEGMENT PARA USE32 PUBLIC 'CODE'
_TEXT	ENDS
;	COMDAT ?_Mynode@const_iterator@?$_Tree@V?$_Tmap_traits@KPAVCClientSock@@U?$less@K@std@@V?$allocator@U?$pair@$$CBKPAVCClientSock@@@std@@@3@$0A@@std@@@std@@QBEPAU_Node@?$_Tree_nod@V?$_Tmap_traits@KPAVCClientSock@@U?$less@K@std@@V?$allocator@U?$pair@$$CBKPAVCClientSock@@@std@@@3@$0A@@std@@@3@XZ
_TEXT	SEGMENT PARA USE32 PUBLIC 'CODE'
_TEXT	ENDS
;	COMDAT ?_Key@?$_Tree@V?$_Tmap_traits@KPAVCClientSockE@@U?$less@K@std@@V?$allocator@U?$pair@$$CBKPAVCClientSockE@@@std@@@3@$0A@@std@@@std@@KAABKPAU_Node@?$_Tree_nod@V?$_Tmap_traits@KPAVCClientSockE@@U?$less@K@std@@V?$allocator@U?$pair@$$CBKPAVCClientSockE@@@std@@@3@$0A@@std@@@2@@Z
_TEXT	SEGMENT PARA USE32 PUBLIC 'CODE'
_TEXT	ENDS
;	COMDAT ??0?$_Tree@V?$_Tmap_traits@KPAVCClientSockE@@U?$less@K@std@@V?$allocator@U?$pair@$$CBKPAVCClientSockE@@@std@@@3@$0A@@std@@@std@@QAE@ABU?$less@K@1@ABV?$allocator@U?$pair@$$CBKPAVCClientSockE@@@std@@@1@@Z
_TEXT	SEGMENT PARA USE32 PUBLIC 'CODE'
_TEXT	ENDS
;	COMDAT ?lower_bound@?$_Tree@V?$_Tmap_traits@KPAVCClientSockE@@U?$less@K@std@@V?$allocator@U?$pair@$$CBKPAVCClientSockE@@@std@@@3@$0A@@std@@@std@@QAE?AViterator@12@ABK@Z
_TEXT	SEGMENT PARA USE32 PUBLIC 'CODE'
_TEXT	ENDS
;	COMDAT ?_Tidy@?$_Tree@V?$_Tmap_traits@KPAVCClientSockE@@U?$less@K@std@@V?$allocator@U?$pair@$$CBKPAVCClientSockE@@@std@@@3@$0A@@std@@@std@@IAEXXZ
_TEXT	SEGMENT PARA USE32 PUBLIC 'CODE'
_TEXT	ENDS
;	COMDAT ??0?$allocator@U?$pair@$$CBKPAVCClientSockE@@@std@@@std@@QAE@XZ
_TEXT	SEGMENT PARA USE32 PUBLIC 'CODE'
_TEXT	ENDS
;	COMDAT ??0iterator@?$_Tree@V?$_Tmap_traits@KPAVCClientSockE@@U?$less@K@std@@V?$allocator@U?$pair@$$CBKPAVCClientSockE@@@std@@@3@$0A@@std@@@std@@QAE@PAU_Node@?$_Tree_nod@V?$_Tmap_traits@KPAVCClientSockE@@U?$less@K@std@@V?$allocator@U?$pair@$$CBKPAVCClientSockE@@@std@@@3@$0A@@std@@@2@@Z
_TEXT	SEGMENT PARA USE32 PUBLIC 'CODE'
_TEXT	ENDS
;	COMDAT ??Diterator@?$_Tree@V?$_Tmap_traits@KPAVCClientSockE@@U?$less@K@std@@V?$allocator@U?$pair@$$CBKPAVCClientSockE@@@std@@@3@$0A@@std@@@std@@QBEAAU?$pair@$$CBKPAVCClientSockE@@@2@XZ
_TEXT	SEGMENT PARA USE32 PUBLIC 'CODE'
_TEXT	ENDS
;	COMDAT ??8const_iterator@?$_Tree@V?$_Tmap_traits@KPAVCClientSockE@@U?$less@K@std@@V?$allocator@U?$pair@$$CBKPAVCClientSockE@@@std@@@3@$0A@@std@@@std@@QBE_NABV012@@Z
_TEXT	SEGMENT PARA USE32 PUBLIC 'CODE'
_TEXT	ENDS
;	COMDAT ?_Mynode@const_iterator@?$_Tree@V?$_Tmap_traits@KPAVCClientSockE@@U?$less@K@std@@V?$allocator@U?$pair@$$CBKPAVCClientSockE@@@std@@@3@$0A@@std@@@std@@QBEPAU_Node@?$_Tree_nod@V?$_Tmap_traits@KPAVCClientSockE@@U?$less@K@std@@V?$allocator@U?$pair@$$CBKPAVCClientSockE@@@std@@@3@$0A@@std@@@3@XZ
_TEXT	SEGMENT PARA USE32 PUBLIC 'CODE'
_TEXT	ENDS
;	COMDAT ?pop_back@?$deque@PAUtagACTMSG@@V?$allocator@PAUtagACTMSG@@@std@@@std@@QAEXXZ
_TEXT	SEGMENT PARA USE32 PUBLIC 'CODE'
_TEXT	ENDS
;	COMDAT ??0?$_Deque_map@PAUtagACTMSG@@V?$allocator@PAUtagACTMSG@@@std@@@std@@IAE@V?$allocator@PAUtagACTMSG@@@1@@Z
_TEXT	SEGMENT PARA USE32 PUBLIC 'CODE'
_TEXT	ENDS
;	COMDAT ??0?$allocator@PAUtagACTMSG@@@std@@QAE@ABV01@@Z
_TEXT	SEGMENT PARA USE32 PUBLIC 'CODE'
_TEXT	ENDS
;	COMDAT ?deallocate@?$allocator@PAUtagACTMSG@@@std@@QAEXPAPAUtagACTMSG@@I@Z
_TEXT	SEGMENT PARA USE32 PUBLIC 'CODE'
_TEXT	ENDS
;	COMDAT ?deallocate@?$allocator@PAPAUtagACTMSG@@@std@@QAEXPAPAPAUtagACTMSG@@I@Z
_TEXT	SEGMENT PARA USE32 PUBLIC 'CODE'
_TEXT	ENDS
;	COMDAT ?destroy@?$allocator@PAPAUtagACTMSG@@@std@@QAEXPAPAPAUtagACTMSG@@@Z
_TEXT	SEGMENT PARA USE32 PUBLIC 'CODE'
_TEXT	ENDS
;	COMDAT ?pop_back@?$deque@PAUtagMAGICATKMSG@@V?$allocator@PAUtagMAGICATKMSG@@@std@@@std@@QAEXXZ
_TEXT	SEGMENT PARA USE32 PUBLIC 'CODE'
_TEXT	ENDS
;	COMDAT ??0?$_Deque_map@PAUtagMAGICATKMSG@@V?$allocator@PAUtagMAGICATKMSG@@@std@@@std@@IAE@V?$allocator@PAUtagMAGICATKMSG@@@1@@Z
_TEXT	SEGMENT PARA USE32 PUBLIC 'CODE'
_TEXT	ENDS
;	COMDAT ??0?$allocator@PAUtagMAGICATKMSG@@@std@@QAE@ABV01@@Z
_TEXT	SEGMENT PARA USE32 PUBLIC 'CODE'
_TEXT	ENDS
;	COMDAT ?deallocate@?$allocator@PAUtagMAGICATKMSG@@@std@@QAEXPAPAUtagMAGICATKMSG@@I@Z
_TEXT	SEGMENT PARA USE32 PUBLIC 'CODE'
_TEXT	ENDS
;	COMDAT ?deallocate@?$allocator@PAPAUtagMAGICATKMSG@@@std@@QAEXPAPAPAUtagMAGICATKMSG@@I@Z
_TEXT	SEGMENT PARA USE32 PUBLIC 'CODE'
_TEXT	ENDS
;	COMDAT ?destroy@?$allocator@PAPAUtagMAGICATKMSG@@@std@@QAEXPAPAPAUtagMAGICATKMSG@@@Z
_TEXT	SEGMENT PARA USE32 PUBLIC 'CODE'
_TEXT	ENDS
;	COMDAT ??0const_iterator@?$deque@PAUtagACTMSG@@V?$allocator@PAUtagACTMSG@@@std@@@std@@QAE@IPBV12@@Z
_TEXT	SEGMENT PARA USE32 PUBLIC 'CODE'
_TEXT	ENDS
;	COMDAT ??0const_iterator@?$deque@PAUtagMAGICATKMSG@@V?$allocator@PAUtagMAGICATKMSG@@@std@@@std@@QAE@IPBV12@@Z
_TEXT	SEGMENT PARA USE32 PUBLIC 'CODE'
_TEXT	ENDS
;	COMDAT ?_Left@?$_Tree@V?$_Tmap_traits@KPAVCClientSock@@U?$less@K@std@@V?$allocator@U?$pair@$$CBKPAVCClientSock@@@std@@@3@$0A@@std@@@std@@KAAAPAU_Node@?$_Tree_nod@V?$_Tmap_traits@KPAVCClientSock@@U?$less@K@std@@V?$allocator@U?$pair@$$CBKPAVCClientSock@@@std@@@3@$0A@@std@@@2@PAU342@@Z
_TEXT	SEGMENT PARA USE32 PUBLIC 'CODE'
_TEXT	ENDS
;	COMDAT ?_Parent@?$_Tree@V?$_Tmap_traits@KPAVCClientSock@@U?$less@K@std@@V?$allocator@U?$pair@$$CBKPAVCClientSock@@@std@@@3@$0A@@std@@@std@@KAAAPAU_Node@?$_Tree_nod@V?$_Tmap_traits@KPAVCClientSock@@U?$less@K@std@@V?$allocator@U?$pair@$$CBKPAVCClientSock@@@std@@@3@$0A@@std@@@2@PAU342@@Z
_TEXT	SEGMENT PARA USE32 PUBLIC 'CODE'
_TEXT	ENDS
;	COMDAT ?_Right@?$_Tree@V?$_Tmap_traits@KPAVCClientSock@@U?$less@K@std@@V?$allocator@U?$pair@$$CBKPAVCClientSock@@@std@@@3@$0A@@std@@@std@@KAAAPAU_Node@?$_Tree_nod@V?$_Tmap_traits@KPAVCClientSock@@U?$less@K@std@@V?$allocator@U?$pair@$$CBKPAVCClientSock@@@std@@@3@$0A@@std@@@2@PAU342@@Z
_TEXT	SEGMENT PARA USE32 PUBLIC 'CODE'
_TEXT	ENDS
;	COMDAT ?_Myval@?$_Tree@V?$_Tmap_traits@KPAVCClientSock@@U?$less@K@std@@V?$allocator@U?$pair@$$CBKPAVCClientSock@@@std@@@3@$0A@@std@@@std@@KAAAU?$pair@$$CBKPAVCClientSock@@@2@PAU_Node@?$_Tree_nod@V?$_Tmap_traits@KPAVCClientSock@@U?$less@K@std@@V?$allocator@U?$pair@$$CBKPAVCClientSock@@@std@@@3@$0A@@std@@@2@@Z
_TEXT	SEGMENT PARA USE32 PUBLIC 'CODE'
_TEXT	ENDS
;	COMDAT ?begin@?$_Tree@V?$_Tmap_traits@KPAVCClientSock@@U?$less@K@std@@V?$allocator@U?$pair@$$CBKPAVCClientSock@@@std@@@3@$0A@@std@@@std@@QAE?AViterator@12@XZ
_TEXT	SEGMENT PARA USE32 PUBLIC 'CODE'
_TEXT	ENDS
;	COMDAT ?erase@?$_Tree@V?$_Tmap_traits@KPAVCClientSock@@U?$less@K@std@@V?$allocator@U?$pair@$$CBKPAVCClientSock@@@std@@@3@$0A@@std@@@std@@QAE?AViterator@12@V312@0@Z
_TEXT	SEGMENT PARA USE32 PUBLIC 'CODE'
_TEXT	ENDS
;	COMDAT ?_Init@?$_Tree@V?$_Tmap_traits@KPAVCClientSock@@U?$less@K@std@@V?$allocator@U?$pair@$$CBKPAVCClientSock@@@std@@@3@$0A@@std@@@std@@IAEXXZ
_TEXT	SEGMENT PARA USE32 PUBLIC 'CODE'
_TEXT	ENDS
;	COMDAT ?_Lbound@?$_Tree@V?$_Tmap_traits@KPAVCClientSock@@U?$less@K@std@@V?$allocator@U?$pair@$$CBKPAVCClientSock@@@std@@@3@$0A@@std@@@std@@IBEPAU_Node@?$_Tree_nod@V?$_Tmap_traits@KPAVCClientSock@@U?$less@K@std@@V?$allocator@U?$pair@$$CBKPAVCClientSock@@@std@@@3@$0A@@std@@@2@ABK@Z
_TEXT	SEGMENT PARA USE32 PUBLIC 'CODE'
_TEXT	ENDS
;	COMDAT ??0?$_Tree_val@V?$_Tmap_traits@KPAVCClientSock@@U?$less@K@std@@V?$allocator@U?$pair@$$CBKPAVCClientSock@@@std@@@3@$0A@@std@@@std@@IAE@ABU?$less@K@1@V?$allocator@U?$pair@$$CBKPAVCClientSock@@@std@@@1@@Z
_TEXT	SEGMENT PARA USE32 PUBLIC 'CODE'
_TEXT	ENDS
;	COMDAT ?_Kfn@?$_Tmap_traits@KPAVCClientSock@@U?$less@K@std@@V?$allocator@U?$pair@$$CBKPAVCClientSock@@@std@@@3@$0A@@std@@SAABKABU?$pair@$$CBKPAVCClientSock@@@2@@Z
_TEXT	SEGMENT PARA USE32 PUBLIC 'CODE'
_TEXT	ENDS
;	COMDAT ??0?$allocator@U?$pair@$$CBKPAVCClientSock@@@std@@@std@@QAE@ABV01@@Z
_TEXT	SEGMENT PARA USE32 PUBLIC 'CODE'
_TEXT	ENDS
;	COMDAT ?deallocate@?$allocator@U_Node@?$_Tree_nod@V?$_Tmap_traits@KPAVCClientSock@@U?$less@K@std@@V?$allocator@U?$pair@$$CBKPAVCClientSock@@@std@@@3@$0A@@std@@@std@@@std@@QAEXPAU_Node@?$_Tree_nod@V?$_Tmap_traits@KPAVCClientSock@@U?$less@K@std@@V?$allocator@U?$pair@$$CBKPAVCClientSock@@@std@@@3@$0A@@std@@@2@I@Z
_TEXT	SEGMENT PARA USE32 PUBLIC 'CODE'
_TEXT	ENDS
;	COMDAT ?destroy@?$allocator@PAU_Node@?$_Tree_nod@V?$_Tmap_traits@KPAVCClientSock@@U?$less@K@std@@V?$allocator@U?$pair@$$CBKPAVCClientSock@@@std@@@3@$0A@@std@@@std@@@std@@QAEXPAPAU_Node@?$_Tree_nod@V?$_Tmap_traits@KPAVCClientSock@@U?$less@K@std@@V?$allocator@U?$pair@$$CBKPAVCClientSock@@@std@@@3@$0A@@std@@@2@@Z
_TEXT	SEGMENT PARA USE32 PUBLIC 'CODE'
_TEXT	ENDS
;	COMDAT ??0const_iterator@?$_Tree@V?$_Tmap_traits@KPAVCClientSock@@U?$less@K@std@@V?$allocator@U?$pair@$$CBKPAVCClientSock@@@std@@@3@$0A@@std@@@std@@QAE@PAU_Node@?$_Tree_nod@V?$_Tmap_traits@KPAVCClientSock@@U?$less@K@std@@V?$allocator@U?$pair@$$CBKPAVCClientSock@@@std@@@3@$0A@@std@@@2@@Z
_TEXT	SEGMENT PARA USE32 PUBLIC 'CODE'
_TEXT	ENDS
;	COMDAT ??Dconst_iterator@?$_Tree@V?$_Tmap_traits@KPAVCClientSock@@U?$less@K@std@@V?$allocator@U?$pair@$$CBKPAVCClientSock@@@std@@@3@$0A@@std@@@std@@QBEABU?$pair@$$CBKPAVCClientSock@@@2@XZ
_TEXT	SEGMENT PARA USE32 PUBLIC 'CODE'
_TEXT	ENDS
;	COMDAT ?_Left@?$_Tree@V?$_Tmap_traits@KPAVCClientSockE@@U?$less@K@std@@V?$allocator@U?$pair@$$CBKPAVCClientSockE@@@std@@@3@$0A@@std@@@std@@KAAAPAU_Node@?$_Tree_nod@V?$_Tmap_traits@KPAVCClientSockE@@U?$less@K@std@@V?$allocator@U?$pair@$$CBKPAVCClientSockE@@@std@@@3@$0A@@std@@@2@PAU342@@Z
_TEXT	SEGMENT PARA USE32 PUBLIC 'CODE'
_TEXT	ENDS
;	COMDAT ?_Parent@?$_Tree@V?$_Tmap_traits@KPAVCClientSockE@@U?$less@K@std@@V?$allocator@U?$pair@$$CBKPAVCClientSockE@@@std@@@3@$0A@@std@@@std@@KAAAPAU_Node@?$_Tree_nod@V?$_Tmap_traits@KPAVCClientSockE@@U?$less@K@std@@V?$allocator@U?$pair@$$CBKPAVCClientSockE@@@std@@@3@$0A@@std@@@2@PAU342@@Z
_TEXT	SEGMENT PARA USE32 PUBLIC 'CODE'
_TEXT	ENDS
;	COMDAT ?_Right@?$_Tree@V?$_Tmap_traits@KPAVCClientSockE@@U?$less@K@std@@V?$allocator@U?$pair@$$CBKPAVCClientSockE@@@std@@@3@$0A@@std@@@std@@KAAAPAU_Node@?$_Tree_nod@V?$_Tmap_traits@KPAVCClientSockE@@U?$less@K@std@@V?$allocator@U?$pair@$$CBKPAVCClientSockE@@@std@@@3@$0A@@std@@@2@PAU342@@Z
_TEXT	SEGMENT PARA USE32 PUBLIC 'CODE'
_TEXT	ENDS
;	COMDAT ?_Myval@?$_Tree@V?$_Tmap_traits@KPAVCClientSockE@@U?$less@K@std@@V?$allocator@U?$pair@$$CBKPAVCClientSockE@@@std@@@3@$0A@@std@@@std@@KAAAU?$pair@$$CBKPAVCClientSockE@@@2@PAU_Node@?$_Tree_nod@V?$_Tmap_traits@KPAVCClientSockE@@U?$less@K@std@@V?$allocator@U?$pair@$$CBKPAVCClientSockE@@@std@@@3@$0A@@std@@@2@@Z
_TEXT	SEGMENT PARA USE32 PUBLIC 'CODE'
_TEXT	ENDS
;	COMDAT ?begin@?$_Tree@V?$_Tmap_traits@KPAVCClientSockE@@U?$less@K@std@@V?$allocator@U?$pair@$$CBKPAVCClientSockE@@@std@@@3@$0A@@std@@@std@@QAE?AViterator@12@XZ
_TEXT	SEGMENT PARA USE32 PUBLIC 'CODE'
_TEXT	ENDS
;	COMDAT ?erase@?$_Tree@V?$_Tmap_traits@KPAVCClientSockE@@U?$less@K@std@@V?$allocator@U?$pair@$$CBKPAVCClientSockE@@@std@@@3@$0A@@std@@@std@@QAE?AViterator@12@V312@0@Z
_TEXT	SEGMENT PARA USE32 PUBLIC 'CODE'
_TEXT	ENDS
;	COMDAT ?_Init@?$_Tree@V?$_Tmap_traits@KPAVCClientSockE@@U?$less@K@std@@V?$allocator@U?$pair@$$CBKPAVCClientSockE@@@std@@@3@$0A@@std@@@std@@IAEXXZ
_TEXT	SEGMENT PARA USE32 PUBLIC 'CODE'
_TEXT	ENDS
;	COMDAT ?_Lbound@?$_Tree@V?$_Tmap_traits@KPAVCClientSockE@@U?$less@K@std@@V?$allocator@U?$pair@$$CBKPAVCClientSockE@@@std@@@3@$0A@@std@@@std@@IBEPAU_Node@?$_Tree_nod@V?$_Tmap_traits@KPAVCClientSockE@@U?$less@K@std@@V?$allocator@U?$pair@$$CBKPAVCClientSockE@@@std@@@3@$0A@@std@@@2@ABK@Z
_TEXT	SEGMENT PARA USE32 PUBLIC 'CODE'
_TEXT	ENDS
;	COMDAT ??0?$_Tree_val@V?$_Tmap_traits@KPAVCClientSockE@@U?$less@K@std@@V?$allocator@U?$pair@$$CBKPAVCClientSockE@@@std@@@3@$0A@@std@@@std@@IAE@ABU?$less@K@1@V?$allocator@U?$pair@$$CBKPAVCClientSockE@@@std@@@1@@Z
_TEXT	SEGMENT PARA USE32 PUBLIC 'CODE'
_TEXT	ENDS
;	COMDAT ?_Kfn@?$_Tmap_traits@KPAVCClientSockE@@U?$less@K@std@@V?$allocator@U?$pair@$$CBKPAVCClientSockE@@@std@@@3@$0A@@std@@SAABKABU?$pair@$$CBKPAVCClientSockE@@@2@@Z
_TEXT	SEGMENT PARA USE32 PUBLIC 'CODE'
_TEXT	ENDS
;	COMDAT ??0?$allocator@U?$pair@$$CBKPAVCClientSockE@@@std@@@std@@QAE@ABV01@@Z
_TEXT	SEGMENT PARA USE32 PUBLIC 'CODE'
_TEXT	ENDS
;	COMDAT ?deallocate@?$allocator@U_Node@?$_Tree_nod@V?$_Tmap_traits@KPAVCClientSockE@@U?$less@K@std@@V?$allocator@U?$pair@$$CBKPAVCClientSockE@@@std@@@3@$0A@@std@@@std@@@std@@QAEXPAU_Node@?$_Tree_nod@V?$_Tmap_traits@KPAVCClientSockE@@U?$less@K@std@@V?$allocator@U?$pair@$$CBKPAVCClientSockE@@@std@@@3@$0A@@std@@@2@I@Z
_TEXT	SEGMENT PARA USE32 PUBLIC 'CODE'
_TEXT	ENDS
;	COMDAT ?destroy@?$allocator@PAU_Node@?$_Tree_nod@V?$_Tmap_traits@KPAVCClientSockE@@U?$less@K@std@@V?$allocator@U?$pair@$$CBKPAVCClientSockE@@@std@@@3@$0A@@std@@@std@@@std@@QAEXPAPAU_Node@?$_Tree_nod@V?$_Tmap_traits@KPAVCClientSockE@@U?$less@K@std@@V?$allocator@U?$pair@$$CBKPAVCClientSockE@@@std@@@3@$0A@@std@@@2@@Z
_TEXT	SEGMENT PARA USE32 PUBLIC 'CODE'
_TEXT	ENDS
;	COMDAT ??0const_iterator@?$_Tree@V?$_Tmap_traits@KPAVCClientSockE@@U?$less@K@std@@V?$allocator@U?$pair@$$CBKPAVCClientSockE@@@std@@@3@$0A@@std@@@std@@QAE@PAU_Node@?$_Tree_nod@V?$_Tmap_traits@KPAVCClientSockE@@U?$less@K@std@@V?$allocator@U?$pair@$$CBKPAVCClientSockE@@@std@@@3@$0A@@std@@@2@@Z
_TEXT	SEGMENT PARA USE32 PUBLIC 'CODE'
_TEXT	ENDS
;	COMDAT ??Dconst_iterator@?$_Tree@V?$_Tmap_traits@KPAVCClientSockE@@U?$less@K@std@@V?$allocator@U?$pair@$$CBKPAVCClientSockE@@@std@@@3@$0A@@std@@@std@@QBEABU?$pair@$$CBKPAVCClientSockE@@@2@XZ
_TEXT	SEGMENT PARA USE32 PUBLIC 'CODE'
_TEXT	ENDS
;	COMDAT ?destroy@?$allocator@PAUtagACTMSG@@@std@@QAEXPAPAUtagACTMSG@@@Z
_TEXT	SEGMENT PARA USE32 PUBLIC 'CODE'
_TEXT	ENDS
;	COMDAT ?destroy@?$allocator@PAUtagMAGICATKMSG@@@std@@QAEXPAPAUtagMAGICATKMSG@@@Z
_TEXT	SEGMENT PARA USE32 PUBLIC 'CODE'
_TEXT	ENDS
;	COMDAT ?_Isnil@?$_Tree@V?$_Tmap_traits@KPAVCClientSock@@U?$less@K@std@@V?$allocator@U?$pair@$$CBKPAVCClientSock@@@std@@@3@$0A@@std@@@std@@KAAADPAU_Node@?$_Tree_nod@V?$_Tmap_traits@KPAVCClientSock@@U?$less@K@std@@V?$allocator@U?$pair@$$CBKPAVCClientSock@@@std@@@3@$0A@@std@@@2@@Z
_TEXT	SEGMENT PARA USE32 PUBLIC 'CODE'
_TEXT	ENDS
;	COMDAT ?erase@?$_Tree@V?$_Tmap_traits@KPAVCClientSock@@U?$less@K@std@@V?$allocator@U?$pair@$$CBKPAVCClientSock@@@std@@@3@$0A@@std@@@std@@QAE?AViterator@12@V312@@Z
_TEXT	SEGMENT PARA USE32 PUBLIC 'CODE'
_TEXT	ENDS
;	COMDAT ?clear@?$_Tree@V?$_Tmap_traits@KPAVCClientSock@@U?$less@K@std@@V?$allocator@U?$pair@$$CBKPAVCClientSock@@@std@@@3@$0A@@std@@@std@@QAEXXZ
_TEXT	SEGMENT PARA USE32 PUBLIC 'CODE'
_TEXT	ENDS
;	COMDAT ?_Lmost@?$_Tree@V?$_Tmap_traits@KPAVCClientSock@@U?$less@K@std@@V?$allocator@U?$pair@$$CBKPAVCClientSock@@@std@@@3@$0A@@std@@@std@@IAEAAPAU_Node@?$_Tree_nod@V?$_Tmap_traits@KPAVCClientSock@@U?$less@K@std@@V?$allocator@U?$pair@$$CBKPAVCClientSock@@@std@@@3@$0A@@std@@@2@XZ
_TEXT	SEGMENT PARA USE32 PUBLIC 'CODE'
_TEXT	ENDS
;	COMDAT ?_Rmost@?$_Tree@V?$_Tmap_traits@KPAVCClientSock@@U?$less@K@std@@V?$allocator@U?$pair@$$CBKPAVCClientSock@@@std@@@3@$0A@@std@@@std@@IAEAAPAU_Node@?$_Tree_nod@V?$_Tmap_traits@KPAVCClientSock@@U?$less@K@std@@V?$allocator@U?$pair@$$CBKPAVCClientSock@@@std@@@3@$0A@@std@@@2@XZ
_TEXT	SEGMENT PARA USE32 PUBLIC 'CODE'
_TEXT	ENDS
;	COMDAT ?_Root@?$_Tree@V?$_Tmap_traits@KPAVCClientSock@@U?$less@K@std@@V?$allocator@U?$pair@$$CBKPAVCClientSock@@@std@@@3@$0A@@std@@@std@@IAEAAPAU_Node@?$_Tree_nod@V?$_Tmap_traits@KPAVCClientSock@@U?$less@K@std@@V?$allocator@U?$pair@$$CBKPAVCClientSock@@@std@@@3@$0A@@std@@@2@XZ
_TEXT	SEGMENT PARA USE32 PUBLIC 'CODE'
_TEXT	ENDS
;	COMDAT ?_Root@?$_Tree@V?$_Tmap_traits@KPAVCClientSock@@U?$less@K@std@@V?$allocator@U?$pair@$$CBKPAVCClientSock@@@std@@@3@$0A@@std@@@std@@IBEAAPAU_Node@?$_Tree_nod@V?$_Tmap_traits@KPAVCClientSock@@U?$less@K@std@@V?$allocator@U?$pair@$$CBKPAVCClientSock@@@std@@@3@$0A@@std@@@2@XZ
_TEXT	SEGMENT PARA USE32 PUBLIC 'CODE'
_TEXT	ENDS
;	COMDAT ?_Buynode@?$_Tree@V?$_Tmap_traits@KPAVCClientSock@@U?$less@K@std@@V?$allocator@U?$pair@$$CBKPAVCClientSock@@@std@@@3@$0A@@std@@@std@@IAEPAU_Node@?$_Tree_nod@V?$_Tmap_traits@KPAVCClientSock@@U?$less@K@std@@V?$allocator@U?$pair@$$CBKPAVCClientSock@@@std@@@3@$0A@@std@@@2@XZ
_TEXT	SEGMENT PARA USE32 PUBLIC 'CODE'
_TEXT	ENDS
;	COMDAT ??0?$_Tree_ptr@V?$_Tmap_traits@KPAVCClientSock@@U?$less@K@std@@V?$allocator@U?$pair@$$CBKPAVCClientSock@@@std@@@3@$0A@@std@@@std@@IAE@ABU?$less@K@1@V?$allocator@U?$pair@$$CBKPAVCClientSock@@@std@@@1@@Z
_TEXT	SEGMENT PARA USE32 PUBLIC 'CODE'
_TEXT	ENDS
;	COMDAT ??Eiterator@?$_Tree@V?$_Tmap_traits@KPAVCClientSock@@U?$less@K@std@@V?$allocator@U?$pair@$$CBKPAVCClientSock@@@std@@@3@$0A@@std@@@std@@QAE?AV012@H@Z
_TEXT	SEGMENT PARA USE32 PUBLIC 'CODE'
_TEXT	ENDS
;	COMDAT ?_Isnil@?$_Tree@V?$_Tmap_traits@KPAVCClientSockE@@U?$less@K@std@@V?$allocator@U?$pair@$$CBKPAVCClientSockE@@@std@@@3@$0A@@std@@@std@@KAAADPAU_Node@?$_Tree_nod@V?$_Tmap_traits@KPAVCClientSockE@@U?$less@K@std@@V?$allocator@U?$pair@$$CBKPAVCClientSockE@@@std@@@3@$0A@@std@@@2@@Z
_TEXT	SEGMENT PARA USE32 PUBLIC 'CODE'
_TEXT	ENDS
;	COMDAT ?erase@?$_Tree@V?$_Tmap_traits@KPAVCClientSockE@@U?$less@K@std@@V?$allocator@U?$pair@$$CBKPAVCClientSockE@@@std@@@3@$0A@@std@@@std@@QAE?AViterator@12@V312@@Z
_TEXT	SEGMENT PARA USE32 PUBLIC 'CODE'
_TEXT	ENDS
;	COMDAT ?clear@?$_Tree@V?$_Tmap_traits@KPAVCClientSockE@@U?$less@K@std@@V?$allocator@U?$pair@$$CBKPAVCClientSockE@@@std@@@3@$0A@@std@@@std@@QAEXXZ
_TEXT	SEGMENT PARA USE32 PUBLIC 'CODE'
_TEXT	ENDS
;	COMDAT ?_Lmost@?$_Tree@V?$_Tmap_traits@KPAVCClientSockE@@U?$less@K@std@@V?$allocator@U?$pair@$$CBKPAVCClientSockE@@@std@@@3@$0A@@std@@@std@@IAEAAPAU_Node@?$_Tree_nod@V?$_Tmap_traits@KPAVCClientSockE@@U?$less@K@std@@V?$allocator@U?$pair@$$CBKPAVCClientSockE@@@std@@@3@$0A@@std@@@2@XZ
_TEXT	SEGMENT PARA USE32 PUBLIC 'CODE'
_TEXT	ENDS
;	COMDAT ?_Rmost@?$_Tree@V?$_Tmap_traits@KPAVCClientSockE@@U?$less@K@std@@V?$allocator@U?$pair@$$CBKPAVCClientSockE@@@std@@@3@$0A@@std@@@std@@IAEAAPAU_Node@?$_Tree_nod@V?$_Tmap_traits@KPAVCClientSockE@@U?$less@K@std@@V?$allocator@U?$pair@$$CBKPAVCClientSockE@@@std@@@3@$0A@@std@@@2@XZ
_TEXT	SEGMENT PARA USE32 PUBLIC 'CODE'
_TEXT	ENDS
;	COMDAT ?_Root@?$_Tree@V?$_Tmap_traits@KPAVCClientSockE@@U?$less@K@std@@V?$allocator@U?$pair@$$CBKPAVCClientSockE@@@std@@@3@$0A@@std@@@std@@IAEAAPAU_Node@?$_Tree_nod@V?$_Tmap_traits@KPAVCClientSockE@@U?$less@K@std@@V?$allocator@U?$pair@$$CBKPAVCClientSockE@@@std@@@3@$0A@@std@@@2@XZ
_TEXT	SEGMENT PARA USE32 PUBLIC 'CODE'
_TEXT	ENDS
;	COMDAT ?_Root@?$_Tree@V?$_Tmap_traits@KPAVCClientSockE@@U?$less@K@std@@V?$allocator@U?$pair@$$CBKPAVCClientSockE@@@std@@@3@$0A@@std@@@std@@IBEAAPAU_Node@?$_Tree_nod@V?$_Tmap_traits@KPAVCClientSockE@@U?$less@K@std@@V?$allocator@U?$pair@$$CBKPAVCClientSockE@@@std@@@3@$0A@@std@@@2@XZ
_TEXT	SEGMENT PARA USE32 PUBLIC 'CODE'
_TEXT	ENDS
;	COMDAT ?_Buynode@?$_Tree@V?$_Tmap_traits@KPAVCClientSockE@@U?$less@K@std@@V?$allocator@U?$pair@$$CBKPAVCClientSockE@@@std@@@3@$0A@@std@@@std@@IAEPAU_Node@?$_Tree_nod@V?$_Tmap_traits@KPAVCClientSockE@@U?$less@K@std@@V?$allocator@U?$pair@$$CBKPAVCClientSockE@@@std@@@3@$0A@@std@@@2@XZ
_TEXT	SEGMENT PARA USE32 PUBLIC 'CODE'
_TEXT	ENDS
;	COMDAT ??0?$_Tree_ptr@V?$_Tmap_traits@KPAVCClientSockE@@U?$less@K@std@@V?$allocator@U?$pair@$$CBKPAVCClientSockE@@@std@@@3@$0A@@std@@@std@@IAE@ABU?$less@K@1@V?$allocator@U?$pair@$$CBKPAVCClientSockE@@@std@@@1@@Z
_TEXT	SEGMENT PARA USE32 PUBLIC 'CODE'
_TEXT	ENDS
;	COMDAT ??Eiterator@?$_Tree@V?$_Tmap_traits@KPAVCClientSockE@@U?$less@K@std@@V?$allocator@U?$pair@$$CBKPAVCClientSockE@@@std@@@3@$0A@@std@@@std@@QAE?AV012@H@Z
_TEXT	SEGMENT PARA USE32 PUBLIC 'CODE'
_TEXT	ENDS
;	COMDAT ?_Color@?$_Tree@V?$_Tmap_traits@KPAVCClientSock@@U?$less@K@std@@V?$allocator@U?$pair@$$CBKPAVCClientSock@@@std@@@3@$0A@@std@@@std@@KAAADPAU_Node@?$_Tree_nod@V?$_Tmap_traits@KPAVCClientSock@@U?$less@K@std@@V?$allocator@U?$pair@$$CBKPAVCClientSock@@@std@@@3@$0A@@std@@@2@@Z
_TEXT	SEGMENT PARA USE32 PUBLIC 'CODE'
_TEXT	ENDS
;	COMDAT ?_Erase@?$_Tree@V?$_Tmap_traits@KPAVCClientSock@@U?$less@K@std@@V?$allocator@U?$pair@$$CBKPAVCClientSock@@@std@@@3@$0A@@std@@@std@@IAEXPAU_Node@?$_Tree_nod@V?$_Tmap_traits@KPAVCClientSock@@U?$less@K@std@@V?$allocator@U?$pair@$$CBKPAVCClientSock@@@std@@@3@$0A@@std@@@2@@Z
_TEXT	SEGMENT PARA USE32 PUBLIC 'CODE'
_TEXT	ENDS
;	COMDAT ?_Lrotate@?$_Tree@V?$_Tmap_traits@KPAVCClientSock@@U?$less@K@std@@V?$allocator@U?$pair@$$CBKPAVCClientSock@@@std@@@3@$0A@@std@@@std@@IAEXPAU_Node@?$_Tree_nod@V?$_Tmap_traits@KPAVCClientSock@@U?$less@K@std@@V?$allocator@U?$pair@$$CBKPAVCClientSock@@@std@@@3@$0A@@std@@@2@@Z
_TEXT	SEGMENT PARA USE32 PUBLIC 'CODE'
_TEXT	ENDS
;	COMDAT ?_Max@?$_Tree@V?$_Tmap_traits@KPAVCClientSock@@U?$less@K@std@@V?$allocator@U?$pair@$$CBKPAVCClientSock@@@std@@@3@$0A@@std@@@std@@KAPAU_Node@?$_Tree_nod@V?$_Tmap_traits@KPAVCClientSock@@U?$less@K@std@@V?$allocator@U?$pair@$$CBKPAVCClientSock@@@std@@@3@$0A@@std@@@2@PAU342@@Z
_TEXT	SEGMENT PARA USE32 PUBLIC 'CODE'
_TEXT	ENDS
;	COMDAT ?_Min@?$_Tree@V?$_Tmap_traits@KPAVCClientSock@@U?$less@K@std@@V?$allocator@U?$pair@$$CBKPAVCClientSock@@@std@@@3@$0A@@std@@@std@@KAPAU_Node@?$_Tree_nod@V?$_Tmap_traits@KPAVCClientSock@@U?$less@K@std@@V?$allocator@U?$pair@$$CBKPAVCClientSock@@@std@@@3@$0A@@std@@@2@PAU342@@Z
_TEXT	SEGMENT PARA USE32 PUBLIC 'CODE'
_TEXT	ENDS
;	COMDAT ?_Rrotate@?$_Tree@V?$_Tmap_traits@KPAVCClientSock@@U?$less@K@std@@V?$allocator@U?$pair@$$CBKPAVCClientSock@@@std@@@3@$0A@@std@@@std@@IAEXPAU_Node@?$_Tree_nod@V?$_Tmap_traits@KPAVCClientSock@@U?$less@K@std@@V?$allocator@U?$pair@$$CBKPAVCClientSock@@@std@@@3@$0A@@std@@@2@@Z
_TEXT	SEGMENT PARA USE32 PUBLIC 'CODE'
_TEXT	ENDS
;	COMDAT ??0?$_Tree_nod@V?$_Tmap_traits@KPAVCClientSock@@U?$less@K@std@@V?$allocator@U?$pair@$$CBKPAVCClientSock@@@std@@@3@$0A@@std@@@std@@IAE@ABU?$less@K@1@V?$allocator@U?$pair@$$CBKPAVCClientSock@@@std@@@1@@Z
_TEXT	SEGMENT PARA USE32 PUBLIC 'CODE'
_TEXT	ENDS
;	COMDAT ?allocate@?$allocator@U_Node@?$_Tree_nod@V?$_Tmap_traits@KPAVCClientSock@@U?$less@K@std@@V?$allocator@U?$pair@$$CBKPAVCClientSock@@@std@@@3@$0A@@std@@@std@@@std@@QAEPAU_Node@?$_Tree_nod@V?$_Tmap_traits@KPAVCClientSock@@U?$less@K@std@@V?$allocator@U?$pair@$$CBKPAVCClientSock@@@std@@@3@$0A@@std@@@2@I@Z
_TEXT	SEGMENT PARA USE32 PUBLIC 'CODE'
_TEXT	ENDS
;	COMDAT ?destroy@?$allocator@U_Node@?$_Tree_nod@V?$_Tmap_traits@KPAVCClientSock@@U?$less@K@std@@V?$allocator@U?$pair@$$CBKPAVCClientSock@@@std@@@3@$0A@@std@@@std@@@std@@QAEXPAU_Node@?$_Tree_nod@V?$_Tmap_traits@KPAVCClientSock@@U?$less@K@std@@V?$allocator@U?$pair@$$CBKPAVCClientSock@@@std@@@3@$0A@@std@@@2@@Z
_TEXT	SEGMENT PARA USE32 PUBLIC 'CODE'
_TEXT	ENDS
;	COMDAT ?construct@?$allocator@PAU_Node@?$_Tree_nod@V?$_Tmap_traits@KPAVCClientSock@@U?$less@K@std@@V?$allocator@U?$pair@$$CBKPAVCClientSock@@@std@@@3@$0A@@std@@@std@@@std@@QAEXPAPAU_Node@?$_Tree_nod@V?$_Tmap_traits@KPAVCClientSock@@U?$less@K@std@@V?$allocator@U?$pair@$$CBKPAVCClientSock@@@std@@@3@$0A@@std@@@2@ABQAU342@@Z
_TEXT	SEGMENT PARA USE32 PUBLIC 'CODE'
_TEXT	ENDS
;	COMDAT ??Eiterator@?$_Tree@V?$_Tmap_traits@KPAVCClientSock@@U?$less@K@std@@V?$allocator@U?$pair@$$CBKPAVCClientSock@@@std@@@3@$0A@@std@@@std@@QAEAAV012@XZ
_TEXT	SEGMENT PARA USE32 PUBLIC 'CODE'
_TEXT	ENDS
;	COMDAT ?_Color@?$_Tree@V?$_Tmap_traits@KPAVCClientSockE@@U?$less@K@std@@V?$allocator@U?$pair@$$CBKPAVCClientSockE@@@std@@@3@$0A@@std@@@std@@KAAADPAU_Node@?$_Tree_nod@V?$_Tmap_traits@KPAVCClientSockE@@U?$less@K@std@@V?$allocator@U?$pair@$$CBKPAVCClientSockE@@@std@@@3@$0A@@std@@@2@@Z
_TEXT	SEGMENT PARA USE32 PUBLIC 'CODE'
_TEXT	ENDS
;	COMDAT ?_Erase@?$_Tree@V?$_Tmap_traits@KPAVCClientSockE@@U?$less@K@std@@V?$allocator@U?$pair@$$CBKPAVCClientSockE@@@std@@@3@$0A@@std@@@std@@IAEXPAU_Node@?$_Tree_nod@V?$_Tmap_traits@KPAVCClientSockE@@U?$less@K@std@@V?$allocator@U?$pair@$$CBKPAVCClientSockE@@@std@@@3@$0A@@std@@@2@@Z
_TEXT	SEGMENT PARA USE32 PUBLIC 'CODE'
_TEXT	ENDS
;	COMDAT ?_Lrotate@?$_Tree@V?$_Tmap_traits@KPAVCClientSockE@@U?$less@K@std@@V?$allocator@U?$pair@$$CBKPAVCClientSockE@@@std@@@3@$0A@@std@@@std@@IAEXPAU_Node@?$_Tree_nod@V?$_Tmap_traits@KPAVCClientSockE@@U?$less@K@std@@V?$allocator@U?$pair@$$CBKPAVCClientSockE@@@std@@@3@$0A@@std@@@2@@Z
_TEXT	SEGMENT PARA USE32 PUBLIC 'CODE'
_TEXT	ENDS
;	COMDAT ?_Max@?$_Tree@V?$_Tmap_traits@KPAVCClientSockE@@U?$less@K@std@@V?$allocator@U?$pair@$$CBKPAVCClientSockE@@@std@@@3@$0A@@std@@@std@@KAPAU_Node@?$_Tree_nod@V?$_Tmap_traits@KPAVCClientSockE@@U?$less@K@std@@V?$allocator@U?$pair@$$CBKPAVCClientSockE@@@std@@@3@$0A@@std@@@2@PAU342@@Z
_TEXT	SEGMENT PARA USE32 PUBLIC 'CODE'
_TEXT	ENDS
;	COMDAT ?_Min@?$_Tree@V?$_Tmap_traits@KPAVCClientSockE@@U?$less@K@std@@V?$allocator@U?$pair@$$CBKPAVCClientSockE@@@std@@@3@$0A@@std@@@std@@KAPAU_Node@?$_Tree_nod@V?$_Tmap_traits@KPAVCClientSockE@@U?$less@K@std@@V?$allocator@U?$pair@$$CBKPAVCClientSockE@@@std@@@3@$0A@@std@@@2@PAU342@@Z
_TEXT	SEGMENT PARA USE32 PUBLIC 'CODE'
_TEXT	ENDS
;	COMDAT ?_Rrotate@?$_Tree@V?$_Tmap_traits@KPAVCClientSockE@@U?$less@K@std@@V?$allocator@U?$pair@$$CBKPAVCClientSockE@@@std@@@3@$0A@@std@@@std@@IAEXPAU_Node@?$_Tree_nod@V?$_Tmap_traits@KPAVCClientSockE@@U?$less@K@std@@V?$allocator@U?$pair@$$CBKPAVCClientSockE@@@std@@@3@$0A@@std@@@2@@Z
_TEXT	SEGMENT PARA USE32 PUBLIC 'CODE'
_TEXT	ENDS
;	COMDAT ??0?$_Tree_nod@V?$_Tmap_traits@KPAVCClientSockE@@U?$less@K@std@@V?$allocator@U?$pair@$$CBKPAVCClientSockE@@@std@@@3@$0A@@std@@@std@@IAE@ABU?$less@K@1@V?$allocator@U?$pair@$$CBKPAVCClientSockE@@@std@@@1@@Z
_TEXT	SEGMENT PARA USE32 PUBLIC 'CODE'
_TEXT	ENDS
;	COMDAT ?allocate@?$allocator@U_Node@?$_Tree_nod@V?$_Tmap_traits@KPAVCClientSockE@@U?$less@K@std@@V?$allocator@U?$pair@$$CBKPAVCClientSockE@@@std@@@3@$0A@@std@@@std@@@std@@QAEPAU_Node@?$_Tree_nod@V?$_Tmap_traits@KPAVCClientSockE@@U?$less@K@std@@V?$allocator@U?$pair@$$CBKPAVCClientSockE@@@std@@@3@$0A@@std@@@2@I@Z
_TEXT	SEGMENT PARA USE32 PUBLIC 'CODE'
_TEXT	ENDS
;	COMDAT ?destroy@?$allocator@U_Node@?$_Tree_nod@V?$_Tmap_traits@KPAVCClientSockE@@U?$less@K@std@@V?$allocator@U?$pair@$$CBKPAVCClientSockE@@@std@@@3@$0A@@std@@@std@@@std@@QAEXPAU_Node@?$_Tree_nod@V?$_Tmap_traits@KPAVCClientSockE@@U?$less@K@std@@V?$allocator@U?$pair@$$CBKPAVCClientSockE@@@std@@@3@$0A@@std@@@2@@Z
_TEXT	SEGMENT PARA USE32 PUBLIC 'CODE'
_TEXT	ENDS
;	COMDAT ?construct@?$allocator@PAU_Node@?$_Tree_nod@V?$_Tmap_traits@KPAVCClientSockE@@U?$less@K@std@@V?$allocator@U?$pair@$$CBKPAVCClientSockE@@@std@@@3@$0A@@std@@@std@@@std@@QAEXPAPAU_Node@?$_Tree_nod@V?$_Tmap_traits@KPAVCClientSockE@@U?$less@K@std@@V?$allocator@U?$pair@$$CBKPAVCClientSockE@@@std@@@3@$0A@@std@@@2@ABQAU342@@Z
_TEXT	SEGMENT PARA USE32 PUBLIC 'CODE'
_TEXT	ENDS
;	COMDAT ??Eiterator@?$_Tree@V?$_Tmap_traits@KPAVCClientSockE@@U?$less@K@std@@V?$allocator@U?$pair@$$CBKPAVCClientSockE@@@std@@@3@$0A@@std@@@std@@QAEAAV012@XZ
_TEXT	SEGMENT PARA USE32 PUBLIC 'CODE'
_TEXT	ENDS
;	COMDAT ??0?$_Tmap_traits@KPAVCClientSock@@U?$less@K@std@@V?$allocator@U?$pair@$$CBKPAVCClientSock@@@std@@@3@$0A@@std@@QAE@U?$less@K@1@@Z
_TEXT	SEGMENT PARA USE32 PUBLIC 'CODE'
_TEXT	ENDS
;	COMDAT ??Econst_iterator@?$_Tree@V?$_Tmap_traits@KPAVCClientSock@@U?$less@K@std@@V?$allocator@U?$pair@$$CBKPAVCClientSock@@@std@@@3@$0A@@std@@@std@@QAEAAV012@XZ
_TEXT	SEGMENT PARA USE32 PUBLIC 'CODE'
_TEXT	ENDS
;	COMDAT ??0?$_Tmap_traits@KPAVCClientSockE@@U?$less@K@std@@V?$allocator@U?$pair@$$CBKPAVCClientSockE@@@std@@@3@$0A@@std@@QAE@U?$less@K@1@@Z
_TEXT	SEGMENT PARA USE32 PUBLIC 'CODE'
_TEXT	ENDS
;	COMDAT ??Econst_iterator@?$_Tree@V?$_Tmap_traits@KPAVCClientSockE@@U?$less@K@std@@V?$allocator@U?$pair@$$CBKPAVCClientSockE@@@std@@@3@$0A@@std@@@std@@QAEAAV012@XZ
_TEXT	SEGMENT PARA USE32 PUBLIC 'CODE'
_TEXT	ENDS
;	COMDAT ?_Inc@const_iterator@?$_Tree@V?$_Tmap_traits@KPAVCClientSock@@U?$less@K@std@@V?$allocator@U?$pair@$$CBKPAVCClientSock@@@std@@@3@$0A@@std@@@std@@QAEXXZ
_TEXT	SEGMENT PARA USE32 PUBLIC 'CODE'
_TEXT	ENDS
;	COMDAT ?_Inc@const_iterator@?$_Tree@V?$_Tmap_traits@KPAVCClientSockE@@U?$less@K@std@@V?$allocator@U?$pair@$$CBKPAVCClientSockE@@@std@@@3@$0A@@std@@@std@@QAEXXZ
_TEXT	SEGMENT PARA USE32 PUBLIC 'CODE'
_TEXT	ENDS
;	COMDAT ??$_Iter_cat@Vconst_iterator@?$vector@EV?$allocator@E@std@@@std@@@std@@YA?AUrandom_access_iterator_tag@0@ABVconst_iterator@?$vector@EV?$allocator@E@std@@@0@@Z
_TEXT	SEGMENT PARA USE32 PUBLIC 'CODE'
_TEXT	ENDS
;	COMDAT ??$_Assign@Vconst_iterator@?$vector@EV?$allocator@E@std@@@std@@@?$vector@EV?$allocator@E@std@@@std@@QAEXVconst_iterator@01@0Uinput_iterator_tag@1@@Z
_TEXT	SEGMENT PARA USE32 PUBLIC 'CODE'
_TEXT	ENDS
;	COMDAT ??$_Iter_cat@Viterator@?$_Tree@V?$_Tmap_traits@KPAVCUser@@U?$less@K@std@@V?$allocator@U?$pair@$$CBKPAVCUser@@@std@@@3@$0A@@std@@@std@@@std@@YA?AUbidirectional_iterator_tag@0@ABViterator@?$_Tree@V?$_Tmap_traits@KPAVCUser@@U?$less@K@std@@V?$allocator@U?$pair@$$CBKPAVCUser@@@std@@@3@$0A@@std@@@0@@Z
_TEXT	SEGMENT PARA USE32 PUBLIC 'CODE'
_TEXT	ENDS
;	COMDAT ??$_Distance2@Viterator@?$_Tree@V?$_Tmap_traits@KPAVCUser@@U?$less@K@std@@V?$allocator@U?$pair@$$CBKPAVCUser@@@std@@@3@$0A@@std@@@std@@I@std@@YAXViterator@?$_Tree@V?$_Tmap_traits@KPAVCUser@@U?$less@K@std@@V?$allocator@U?$pair@$$CBKPAVCUser@@@std@@@3@$0A@@std@@@0@0AAIUbidirectional_iterator_tag@0@@Z
_TEXT	SEGMENT PARA USE32 PUBLIC 'CODE'
_TEXT	ENDS
;	COMDAT ??$_Iter_cat@Viterator@?$_Tree@V?$_Tmap_traits@KPAVCCtrl@@U?$less@K@std@@V?$allocator@U?$pair@$$CBKPAVCCtrl@@@std@@@3@$0A@@std@@@std@@@std@@YA?AUbidirectional_iterator_tag@0@ABViterator@?$_Tree@V?$_Tmap_traits@KPAVCCtrl@@U?$less@K@std@@V?$allocator@U?$pair@$$CBKPAVCCtrl@@@std@@@3@$0A@@std@@@0@@Z
_TEXT	SEGMENT PARA USE32 PUBLIC 'CODE'
_TEXT	ENDS
;	COMDAT ??$_Distance2@Viterator@?$_Tree@V?$_Tmap_traits@KPAVCCtrl@@U?$less@K@std@@V?$allocator@U?$pair@$$CBKPAVCCtrl@@@std@@@3@$0A@@std@@@std@@I@std@@YAXViterator@?$_Tree@V?$_Tmap_traits@KPAVCCtrl@@U?$less@K@std@@V?$allocator@U?$pair@$$CBKPAVCCtrl@@@std@@@3@$0A@@std@@@0@0AAIUbidirectional_iterator_tag@0@@Z
_TEXT	SEGMENT PARA USE32 PUBLIC 'CODE'
_TEXT	ENDS
;	COMDAT ??$_Uninitialized_copy@Vconst_iterator@?$vector@EV?$allocator@E@std@@@std@@PAEV?$allocator@E@3@@std@@YAPAEVconst_iterator@?$vector@EV?$allocator@E@std@@@0@0PAEAAV?$allocator@E@0@@Z
_TEXT	SEGMENT PARA USE32 PUBLIC 'CODE'
_TEXT	ENDS
;	COMDAT ??$_Iter_cat@Viterator@?$_Tree@V?$_Tmap_traits@KEU?$less@K@std@@V?$allocator@U?$pair@$$CBKE@std@@@2@$0A@@std@@@std@@@std@@YA?AUbidirectional_iterator_tag@0@ABViterator@?$_Tree@V?$_Tmap_traits@KEU?$less@K@std@@V?$allocator@U?$pair@$$CBKE@std@@@2@$0A@@std@@@0@@Z
_TEXT	SEGMENT PARA USE32 PUBLIC 'CODE'
_TEXT	ENDS
;	COMDAT ??$_Distance2@Viterator@?$_Tree@V?$_Tmap_traits@KEU?$less@K@std@@V?$allocator@U?$pair@$$CBKE@std@@@2@$0A@@std@@@std@@I@std@@YAXViterator@?$_Tree@V?$_Tmap_traits@KEU?$less@K@std@@V?$allocator@U?$pair@$$CBKE@std@@@2@$0A@@std@@@0@0AAIUbidirectional_iterator_tag@0@@Z
_TEXT	SEGMENT PARA USE32 PUBLIC 'CODE'
_TEXT	ENDS
;	COMDAT ??$_Ptr_cat@PAU__SPAWNREGION@CEventLua@@PAU12@@std@@YA?AU_Nonscalar_ptr_iterator_tag@0@AAPAU__SPAWNREGION@CEventLua@@0@Z
_TEXT	SEGMENT PARA USE32 PUBLIC 'CODE'
_TEXT	ENDS
;	COMDAT ??$_Uninit_fill_n@PAU__SPAWNREGION@CEventLua@@IU12@V?$allocator@U__SPAWNREGION@CEventLua@@@std@@@std@@YAXPAU__SPAWNREGION@CEventLua@@IABU12@AAV?$allocator@U__SPAWNREGION@CEventLua@@@0@U_Nonscalar_ptr_iterator_tag@0@@Z
_TEXT	SEGMENT PARA USE32 PUBLIC 'CODE'
_TEXT	ENDS
;	COMDAT ??$_Copy_opt@PAJPAJ@std@@YAPAJPAJ00U_Scalar_ptr_iterator_tag@0@@Z
_TEXT	SEGMENT PARA USE32 PUBLIC 'CODE'
_TEXT	ENDS
;	COMDAT ??$_Uninitialized_copy@PAJPAJV?$allocator@J@std@@@std@@YAPAJPAJ00AAV?$allocator@J@0@@Z
_TEXT	SEGMENT PARA USE32 PUBLIC 'CODE'
_TEXT	ENDS
;	COMDAT ??$_Copy_backward_opt@PAJPAJ@std@@YAPAJPAJ00U_Scalar_ptr_iterator_tag@0@@Z
_TEXT	SEGMENT PARA USE32 PUBLIC 'CODE'
_TEXT	ENDS
;	COMDAT ??$_Ptr_cat@PAUtagDROPITEM@@PAU1@@std@@YA?AU_Nonscalar_ptr_iterator_tag@0@AAPAUtagDROPITEM@@0@Z
_TEXT	SEGMENT PARA USE32 PUBLIC 'CODE'
_TEXT	ENDS
;	COMDAT ??$_Destroy_range@UtagDROPITEM@@V?$allocator@UtagDROPITEM@@@std@@@std@@YAXPAUtagDROPITEM@@0AAV?$allocator@UtagDROPITEM@@@0@U_Nonscalar_ptr_iterator_tag@0@@Z
_TEXT	SEGMENT PARA USE32 PUBLIC 'CODE'
_TEXT	ENDS
;	COMDAT ??$_Ptr_cat@PAUWORMON@@PAU1@@std@@YA?AU_Nonscalar_ptr_iterator_tag@0@AAPAUWORMON@@0@Z
_TEXT	SEGMENT PARA USE32 PUBLIC 'CODE'
_TEXT	ENDS
;	COMDAT ??$_Destroy_range@UWORMON@@V?$allocator@UWORMON@@@std@@@std@@YAXPAUWORMON@@0AAV?$allocator@UWORMON@@@0@U_Nonscalar_ptr_iterator_tag@0@@Z
_TEXT	SEGMENT PARA USE32 PUBLIC 'CODE'
_TEXT	ENDS
;	COMDAT ??$_Ptr_cat@PAU__ITEMGAME@CMiniGame@@PAU12@@std@@YA?AU_Nonscalar_ptr_iterator_tag@0@AAPAU__ITEMGAME@CMiniGame@@0@Z
_TEXT	SEGMENT PARA USE32 PUBLIC 'CODE'
_TEXT	ENDS
;	COMDAT ??$_Destroy_range@U__ITEMGAME@CMiniGame@@V?$allocator@U__ITEMGAME@CMiniGame@@@std@@@std@@YAXPAU__ITEMGAME@CMiniGame@@0AAV?$allocator@U__ITEMGAME@CMiniGame@@@0@U_Nonscalar_ptr_iterator_tag@0@@Z
_TEXT	SEGMENT PARA USE32 PUBLIC 'CODE'
_TEXT	ENDS
;	COMDAT ??$_Destroy_range@KV?$allocator@K@std@@@std@@YAXPAK0AAV?$allocator@K@0@U_Scalar_ptr_iterator_tag@0@@Z
_TEXT	SEGMENT PARA USE32 PUBLIC 'CODE'
_TEXT	ENDS
;	COMDAT ??$_Destroy_range@HV?$allocator@H@std@@@std@@YAXPAH0AAV?$allocator@H@0@U_Scalar_ptr_iterator_tag@0@@Z
_TEXT	SEGMENT PARA USE32 PUBLIC 'CODE'
_TEXT	ENDS
;	COMDAT ??$_Ptr_cat@PAU__ITEM@CExchange@@PAU12@@std@@YA?AU_Nonscalar_ptr_iterator_tag@0@AAPAU__ITEM@CExchange@@0@Z
_TEXT	SEGMENT PARA USE32 PUBLIC 'CODE'
_TEXT	ENDS
;	COMDAT ??$_Destroy_range@U__ITEM@CExchange@@V?$allocator@U__ITEM@CExchange@@@std@@@std@@YAXPAU__ITEM@CExchange@@0AAV?$allocator@U__ITEM@CExchange@@@0@U_Nonscalar_ptr_iterator_tag@0@@Z
_TEXT	SEGMENT PARA USE32 PUBLIC 'CODE'
_TEXT	ENDS
;	COMDAT ??$_Ptr_cat@PAU__POINT@CExchange@@PAU12@@std@@YA?AU_Nonscalar_ptr_iterator_tag@0@AAPAU__POINT@CExchange@@0@Z
_TEXT	SEGMENT PARA USE32 PUBLIC 'CODE'
_TEXT	ENDS
;	COMDAT ??$_Destroy_range@U__POINT@CExchange@@V?$allocator@U__POINT@CExchange@@@std@@@std@@YAXPAU__POINT@CExchange@@0AAV?$allocator@U__POINT@CExchange@@@0@U_Nonscalar_ptr_iterator_tag@0@@Z
_TEXT	SEGMENT PARA USE32 PUBLIC 'CODE'
_TEXT	ENDS
;	COMDAT ??$_Destroy_range@EV?$allocator@E@std@@@std@@YAXPAE0AAV?$allocator@E@0@U_Scalar_ptr_iterator_tag@0@@Z
_TEXT	SEGMENT PARA USE32 PUBLIC 'CODE'
_TEXT	ENDS
;	COMDAT ??$_Uninitialized_copy@PAU__SPAWNREGION@CEventLua@@PAU12@V?$allocator@U__SPAWNREGION@CEventLua@@@std@@@std@@YAPAU__SPAWNREGION@CEventLua@@PAU12@00AAV?$allocator@U__SPAWNREGION@CEventLua@@@0@@Z
_TEXT	SEGMENT PARA USE32 PUBLIC 'CODE'
_TEXT	ENDS
;	COMDAT ??$_Copy_backward_opt@PAU__SPAWNREGION@CEventLua@@PAU12@@std@@YAPAU__SPAWNREGION@CEventLua@@PAU12@00U_Nonscalar_ptr_iterator_tag@0@@Z
_TEXT	SEGMENT PARA USE32 PUBLIC 'CODE'
_TEXT	ENDS
;	COMDAT ??$_Ptr_cat@PAUD3DXVECTOR3@@PAU1@@std@@YA?AU_Nonscalar_ptr_iterator_tag@0@AAPAUD3DXVECTOR3@@0@Z
_TEXT	SEGMENT PARA USE32 PUBLIC 'CODE'
_TEXT	ENDS
;	COMDAT ??$_Destroy_range@UD3DXVECTOR3@@V?$allocator@UD3DXVECTOR3@@@std@@@std@@YAXPAUD3DXVECTOR3@@0AAV?$allocator@UD3DXVECTOR3@@@0@U_Nonscalar_ptr_iterator_tag@0@@Z
_TEXT	SEGMENT PARA USE32 PUBLIC 'CODE'
_TEXT	ENDS
;	COMDAT ??$_Ptr_cat@PAU_GIFTBOX@@PAU1@@std@@YA?AU_Nonscalar_ptr_iterator_tag@0@AAPAU_GIFTBOX@@0@Z
_TEXT	SEGMENT PARA USE32 PUBLIC 'CODE'
_TEXT	ENDS
;	COMDAT ??$_Destroy_range@U_GIFTBOX@@V?$allocator@U_GIFTBOX@@@std@@@std@@YAXPAU_GIFTBOX@@0AAV?$allocator@U_GIFTBOX@@@0@U_Nonscalar_ptr_iterator_tag@0@@Z
_TEXT	SEGMENT PARA USE32 PUBLIC 'CODE'
_TEXT	ENDS
;	COMDAT ??$_Destroy_range@JV?$allocator@J@std@@@std@@YAXPAJ0AAV?$allocator@J@0@U_Scalar_ptr_iterator_tag@0@@Z
_TEXT	SEGMENT PARA USE32 PUBLIC 'CODE'
_TEXT	ENDS
;	COMDAT ??$_Uninit_fill_n@JIJ@std@@YAXPAJIABJAAV?$allocator@J@0@U_Scalar_ptr_iterator_tag@0@@Z
_TEXT	SEGMENT PARA USE32 PUBLIC 'CODE'
_TEXT	ENDS
;	COMDAT ??$_Destroy_range@U__SPAWNREGION@CEventLua@@V?$allocator@U__SPAWNREGION@CEventLua@@@std@@@std@@YAXPAU__SPAWNREGION@CEventLua@@0AAV?$allocator@U__SPAWNREGION@CEventLua@@@0@U_Nonscalar_ptr_iterator_tag@0@@Z
_TEXT	SEGMENT PARA USE32 PUBLIC 'CODE'
_TEXT	ENDS
;	COMDAT ??$?0PAUtagACTMSG@@@?$allocator@PAPAUtagACTMSG@@@std@@QAE@ABV?$allocator@PAUtagACTMSG@@@1@@Z
_TEXT	SEGMENT PARA USE32 PUBLIC 'CODE'
_TEXT	ENDS
;	COMDAT ??$_Destroy@PAPAUtagACTMSG@@@std@@YAXPAPAPAUtagACTMSG@@@Z
_TEXT	SEGMENT PARA USE32 PUBLIC 'CODE'
_TEXT	ENDS
;	COMDAT ??$?0PAUtagMAGICATKMSG@@@?$allocator@PAPAUtagMAGICATKMSG@@@std@@QAE@ABV?$allocator@PAUtagMAGICATKMSG@@@1@@Z
_TEXT	SEGMENT PARA USE32 PUBLIC 'CODE'
_TEXT	ENDS
;	COMDAT ??$_Destroy@PAPAUtagMAGICATKMSG@@@std@@YAXPAPAPAUtagMAGICATKMSG@@@Z
_TEXT	SEGMENT PARA USE32 PUBLIC 'CODE'
_TEXT	ENDS
;	COMDAT ??$_Destroy@PAU_Node@?$_Tree_nod@V?$_Tmap_traits@KPAVCClientSock@@U?$less@K@std@@V?$allocator@U?$pair@$$CBKPAVCClientSock@@@std@@@3@$0A@@std@@@std@@@std@@YAXPAPAU_Node@?$_Tree_nod@V?$_Tmap_traits@KPAVCClientSock@@U?$less@K@std@@V?$allocator@U?$pair@$$CBKPAVCClientSock@@@std@@@3@$0A@@std@@@0@@Z
_TEXT	SEGMENT PARA USE32 PUBLIC 'CODE'
_TEXT	ENDS
;	COMDAT ??$_Destroy@PAU_Node@?$_Tree_nod@V?$_Tmap_traits@KPAVCClientSockE@@U?$less@K@std@@V?$allocator@U?$pair@$$CBKPAVCClientSockE@@@std@@@3@$0A@@std@@@std@@@std@@YAXPAPAU_Node@?$_Tree_nod@V?$_Tmap_traits@KPAVCClientSockE@@U?$less@K@std@@V?$allocator@U?$pair@$$CBKPAVCClientSockE@@@std@@@3@$0A@@std@@@0@@Z
_TEXT	SEGMENT PARA USE32 PUBLIC 'CODE'
_TEXT	ENDS
;	COMDAT ??$_Destroy@PAUtagACTMSG@@@std@@YAXPAPAUtagACTMSG@@@Z
_TEXT	SEGMENT PARA USE32 PUBLIC 'CODE'
_TEXT	ENDS
;	COMDAT ??$_Destroy@PAUtagMAGICATKMSG@@@std@@YAXPAPAUtagMAGICATKMSG@@@Z
_TEXT	SEGMENT PARA USE32 PUBLIC 'CODE'
_TEXT	ENDS
;	COMDAT ??$?0U?$pair@$$CBKPAVCClientSock@@@std@@@?$allocator@PAU_Node@?$_Tree_nod@V?$_Tmap_traits@KPAVCClientSock@@U?$less@K@std@@V?$allocator@U?$pair@$$CBKPAVCClientSock@@@std@@@3@$0A@@std@@@std@@@std@@QAE@ABV?$allocator@U?$pair@$$CBKPAVCClientSock@@@std@@@1@@Z
_TEXT	SEGMENT PARA USE32 PUBLIC 'CODE'
_TEXT	ENDS
;	COMDAT ??$?0U?$pair@$$CBKPAVCClientSockE@@@std@@@?$allocator@PAU_Node@?$_Tree_nod@V?$_Tmap_traits@KPAVCClientSockE@@U?$less@K@std@@V?$allocator@U?$pair@$$CBKPAVCClientSockE@@@std@@@3@$0A@@std@@@std@@@std@@QAE@ABV?$allocator@U?$pair@$$CBKPAVCClientSockE@@@std@@@1@@Z
_TEXT	SEGMENT PARA USE32 PUBLIC 'CODE'
_TEXT	ENDS
;	COMDAT ??$?0U?$pair@$$CBKPAVCClientSock@@@std@@@?$allocator@U_Node@?$_Tree_nod@V?$_Tmap_traits@KPAVCClientSock@@U?$less@K@std@@V?$allocator@U?$pair@$$CBKPAVCClientSock@@@std@@@3@$0A@@std@@@std@@@std@@QAE@ABV?$allocator@U?$pair@$$CBKPAVCClientSock@@@std@@@1@@Z
_TEXT	SEGMENT PARA USE32 PUBLIC 'CODE'
_TEXT	ENDS
;	COMDAT ??$_Allocate@U_Node@?$_Tree_nod@V?$_Tmap_traits@KPAVCClientSock@@U?$less@K@std@@V?$allocator@U?$pair@$$CBKPAVCClientSock@@@std@@@3@$0A@@std@@@std@@@std@@YAPAU_Node@?$_Tree_nod@V?$_Tmap_traits@KPAVCClientSock@@U?$less@K@std@@V?$allocator@U?$pair@$$CBKPAVCClientSock@@@std@@@3@$0A@@std@@@0@IPAU120@@Z
_TEXT	SEGMENT PARA USE32 PUBLIC 'CODE'
_TEXT	ENDS
;	COMDAT ??$_Destroy@U_Node@?$_Tree_nod@V?$_Tmap_traits@KPAVCClientSock@@U?$less@K@std@@V?$allocator@U?$pair@$$CBKPAVCClientSock@@@std@@@3@$0A@@std@@@std@@@std@@YAXPAU_Node@?$_Tree_nod@V?$_Tmap_traits@KPAVCClientSock@@U?$less@K@std@@V?$allocator@U?$pair@$$CBKPAVCClientSock@@@std@@@3@$0A@@std@@@0@@Z
_TEXT	SEGMENT PARA USE32 PUBLIC 'CODE'
_TEXT	ENDS
;	COMDAT ??$_Construct@PAU_Node@?$_Tree_nod@V?$_Tmap_traits@KPAVCClientSock@@U?$less@K@std@@V?$allocator@U?$pair@$$CBKPAVCClientSock@@@std@@@3@$0A@@std@@@std@@PAU123@@std@@YAXPAPAU_Node@?$_Tree_nod@V?$_Tmap_traits@KPAVCClientSock@@U?$less@K@std@@V?$allocator@U?$pair@$$CBKPAVCClientSock@@@std@@@3@$0A@@std@@@0@ABQAU120@@Z
_TEXT	SEGMENT PARA USE32 PUBLIC 'CODE'
_TEXT	ENDS
;	COMDAT ??$?0U?$pair@$$CBKPAVCClientSockE@@@std@@@?$allocator@U_Node@?$_Tree_nod@V?$_Tmap_traits@KPAVCClientSockE@@U?$less@K@std@@V?$allocator@U?$pair@$$CBKPAVCClientSockE@@@std@@@3@$0A@@std@@@std@@@std@@QAE@ABV?$allocator@U?$pair@$$CBKPAVCClientSockE@@@std@@@1@@Z
_TEXT	SEGMENT PARA USE32 PUBLIC 'CODE'
_TEXT	ENDS
;	COMDAT ??$_Allocate@U_Node@?$_Tree_nod@V?$_Tmap_traits@KPAVCClientSockE@@U?$less@K@std@@V?$allocator@U?$pair@$$CBKPAVCClientSockE@@@std@@@3@$0A@@std@@@std@@@std@@YAPAU_Node@?$_Tree_nod@V?$_Tmap_traits@KPAVCClientSockE@@U?$less@K@std@@V?$allocator@U?$pair@$$CBKPAVCClientSockE@@@std@@@3@$0A@@std@@@0@IPAU120@@Z
_TEXT	SEGMENT PARA USE32 PUBLIC 'CODE'
_TEXT	ENDS
;	COMDAT ??$_Destroy@U_Node@?$_Tree_nod@V?$_Tmap_traits@KPAVCClientSockE@@U?$less@K@std@@V?$allocator@U?$pair@$$CBKPAVCClientSockE@@@std@@@3@$0A@@std@@@std@@@std@@YAXPAU_Node@?$_Tree_nod@V?$_Tmap_traits@KPAVCClientSockE@@U?$less@K@std@@V?$allocator@U?$pair@$$CBKPAVCClientSockE@@@std@@@3@$0A@@std@@@0@@Z
_TEXT	SEGMENT PARA USE32 PUBLIC 'CODE'
_TEXT	ENDS
;	COMDAT ??$_Construct@PAU_Node@?$_Tree_nod@V?$_Tmap_traits@KPAVCClientSockE@@U?$less@K@std@@V?$allocator@U?$pair@$$CBKPAVCClientSockE@@@std@@@3@$0A@@std@@@std@@PAU123@@std@@YAXPAPAU_Node@?$_Tree_nod@V?$_Tmap_traits@KPAVCClientSockE@@U?$less@K@std@@V?$allocator@U?$pair@$$CBKPAVCClientSockE@@@std@@@3@$0A@@std@@@0@ABQAU120@@Z
_TEXT	SEGMENT PARA USE32 PUBLIC 'CODE'
_TEXT	ENDS
;	COMDAT ?destroy@?$allocator@UtagDROPITEM@@@std@@QAEXPAUtagDROPITEM@@@Z
_TEXT	SEGMENT PARA USE32 PUBLIC 'CODE'
_TEXT	ENDS
;	COMDAT ?destroy@?$allocator@UWORMON@@@std@@QAEXPAUWORMON@@@Z
_TEXT	SEGMENT PARA USE32 PUBLIC 'CODE'
_TEXT	ENDS
;	COMDAT ?destroy@?$allocator@U__ITEMGAME@CMiniGame@@@std@@QAEXPAU__ITEMGAME@CMiniGame@@@Z
_TEXT	SEGMENT PARA USE32 PUBLIC 'CODE'
_TEXT	ENDS
;	COMDAT ?destroy@?$allocator@U__ITEM@CExchange@@@std@@QAEXPAU__ITEM@CExchange@@@Z
_TEXT	SEGMENT PARA USE32 PUBLIC 'CODE'
_TEXT	ENDS
;	COMDAT ?destroy@?$allocator@U__POINT@CExchange@@@std@@QAEXPAU__POINT@CExchange@@@Z
_TEXT	SEGMENT PARA USE32 PUBLIC 'CODE'
_TEXT	ENDS
;	COMDAT ?begin@?$vector@EV?$allocator@E@std@@@std@@QAE?AViterator@12@XZ
_TEXT	SEGMENT PARA USE32 PUBLIC 'CODE'
_TEXT	ENDS
;	COMDAT ?end@?$vector@EV?$allocator@E@std@@@std@@QAE?AViterator@12@XZ
_TEXT	SEGMENT PARA USE32 PUBLIC 'CODE'
_TEXT	ENDS
;	COMDAT ?erase@?$vector@EV?$allocator@E@std@@@std@@QAE?AViterator@12@V312@0@Z
_TEXT	SEGMENT PARA USE32 PUBLIC 'CODE'
_TEXT	ENDS
;	COMDAT ?construct@?$allocator@U__SPAWNREGION@CEventLua@@@std@@QAEXPAU__SPAWNREGION@CEventLua@@ABU34@@Z
_TEXT	SEGMENT PARA USE32 PUBLIC 'CODE'
_TEXT	ENDS
;	COMDAT ?destroy@?$allocator@U__SPAWNREGION@CEventLua@@@std@@QAEXPAU__SPAWNREGION@CEventLua@@@Z
_TEXT	SEGMENT PARA USE32 PUBLIC 'CODE'
_TEXT	ENDS
;	COMDAT ?destroy@?$allocator@UD3DXVECTOR3@@@std@@QAEXPAUD3DXVECTOR3@@@Z
_TEXT	SEGMENT PARA USE32 PUBLIC 'CODE'
_TEXT	ENDS
;	COMDAT ?destroy@?$allocator@U_GIFTBOX@@@std@@QAEXPAU_GIFTBOX@@@Z
_TEXT	SEGMENT PARA USE32 PUBLIC 'CODE'
_TEXT	ENDS
;	COMDAT ??9const_iterator@?$vector@EV?$allocator@E@std@@@std@@QBE_NABV012@@Z
_TEXT	SEGMENT PARA USE32 PUBLIC 'CODE'
_TEXT	ENDS
;	COMDAT ??0iterator@?$vector@EV?$allocator@E@std@@@std@@QAE@PAE@Z
_TEXT	SEGMENT PARA USE32 PUBLIC 'CODE'
_TEXT	ENDS
;	COMDAT ??8const_iterator@?$vector@EV?$allocator@E@std@@@std@@QBE_NABV012@@Z
_TEXT	SEGMENT PARA USE32 PUBLIC 'CODE'
_TEXT	ENDS
;	COMDAT ??$insert@Vconst_iterator@?$vector@EV?$allocator@E@std@@@std@@@?$vector@EV?$allocator@E@std@@@std@@QAEXViterator@01@Vconst_iterator@01@1@Z
_TEXT	SEGMENT PARA USE32 PUBLIC 'CODE'
_TEXT	ENDS
;	COMDAT ??$_Ptr_cat@Vconst_iterator@?$vector@EV?$allocator@E@std@@@std@@PAE@std@@YA?AU_Nonscalar_ptr_iterator_tag@0@AAVconst_iterator@?$vector@EV?$allocator@E@std@@@0@AAPAE@Z
_TEXT	SEGMENT PARA USE32 PUBLIC 'CODE'
_TEXT	ENDS
;	COMDAT ??$_Uninit_copy@Vconst_iterator@?$vector@EV?$allocator@E@std@@@std@@PAEV?$allocator@E@3@@std@@YAPAEVconst_iterator@?$vector@EV?$allocator@E@std@@@0@0PAEAAV?$allocator@E@0@U_Nonscalar_ptr_iterator_tag@0@@Z
_TEXT	SEGMENT PARA USE32 PUBLIC 'CODE'
_TEXT	ENDS
;	COMDAT ??$_Uninit_copy@JJ@std@@YAPAJPAJ00AAV?$allocator@J@0@U_Scalar_ptr_iterator_tag@0@@Z
_TEXT	SEGMENT PARA USE32 PUBLIC 'CODE'
_TEXT	ENDS
;	COMDAT ??$_Uninit_copy@PAU__SPAWNREGION@CEventLua@@PAU12@V?$allocator@U__SPAWNREGION@CEventLua@@@std@@@std@@YAPAU__SPAWNREGION@CEventLua@@PAU12@00AAV?$allocator@U__SPAWNREGION@CEventLua@@@0@U_Nonscalar_ptr_iterator_tag@0@@Z
_TEXT	SEGMENT PARA USE32 PUBLIC 'CODE'
_TEXT	ENDS
;	COMDAT ??$fill_n@PAJIJ@std@@YAXPAJIABJ@Z
_TEXT	SEGMENT PARA USE32 PUBLIC 'CODE'
_TEXT	ENDS
;	COMDAT ??$_Destroy@UtagDROPITEM@@@std@@YAXPAUtagDROPITEM@@@Z
_TEXT	SEGMENT PARA USE32 PUBLIC 'CODE'
_TEXT	ENDS
;	COMDAT ??$_Destroy@UWORMON@@@std@@YAXPAUWORMON@@@Z
_TEXT	SEGMENT PARA USE32 PUBLIC 'CODE'
_TEXT	ENDS
;	COMDAT ??$_Destroy@U__ITEMGAME@CMiniGame@@@std@@YAXPAU__ITEMGAME@CMiniGame@@@Z
_TEXT	SEGMENT PARA USE32 PUBLIC 'CODE'
_TEXT	ENDS
;	COMDAT ??$_Destroy@U__ITEM@CExchange@@@std@@YAXPAU__ITEM@CExchange@@@Z
_TEXT	SEGMENT PARA USE32 PUBLIC 'CODE'
_TEXT	ENDS
;	COMDAT ??$_Destroy@U__POINT@CExchange@@@std@@YAXPAU__POINT@CExchange@@@Z
_TEXT	SEGMENT PARA USE32 PUBLIC 'CODE'
_TEXT	ENDS
;	COMDAT ??$copy@PAEPAE@std@@YAPAEPAE00@Z
_TEXT	SEGMENT PARA USE32 PUBLIC 'CODE'
_TEXT	ENDS
;	COMDAT ??$_Construct@U__SPAWNREGION@CEventLua@@U12@@std@@YAXPAU__SPAWNREGION@CEventLua@@ABU12@@Z
_TEXT	SEGMENT PARA USE32 PUBLIC 'CODE'
_TEXT	ENDS
;	COMDAT ??$_Destroy@U__SPAWNREGION@CEventLua@@@std@@YAXPAU__SPAWNREGION@CEventLua@@@Z
_TEXT	SEGMENT PARA USE32 PUBLIC 'CODE'
_TEXT	ENDS
;	COMDAT ??$_Destroy@UD3DXVECTOR3@@@std@@YAXPAUD3DXVECTOR3@@@Z
_TEXT	SEGMENT PARA USE32 PUBLIC 'CODE'
_TEXT	ENDS
;	COMDAT ??$_Destroy@U_GIFTBOX@@@std@@YAXPAU_GIFTBOX@@@Z
_TEXT	SEGMENT PARA USE32 PUBLIC 'CODE'
_TEXT	ENDS
;	COMDAT ?construct@?$allocator@E@std@@QAEXPAEABE@Z
_TEXT	SEGMENT PARA USE32 PUBLIC 'CODE'
_TEXT	ENDS
;	COMDAT ?destroy@?$allocator@E@std@@QAEXPAE@Z
_TEXT	SEGMENT PARA USE32 PUBLIC 'CODE'
_TEXT	ENDS
;	COMDAT ??Dconst_iterator@?$vector@EV?$allocator@E@std@@@std@@QBEABEXZ
_TEXT	SEGMENT PARA USE32 PUBLIC 'CODE'
_TEXT	ENDS
;	COMDAT ??Econst_iterator@?$vector@EV?$allocator@E@std@@@std@@QAEAAV012@XZ
_TEXT	SEGMENT PARA USE32 PUBLIC 'CODE'
_TEXT	ENDS
;	COMDAT ??$_Insert@Vconst_iterator@?$vector@EV?$allocator@E@std@@@std@@@?$vector@EV?$allocator@E@std@@@std@@QAEXViterator@01@Vconst_iterator@01@1Uforward_iterator_tag@1@@Z
_TEXT	SEGMENT PARA USE32 PUBLIC 'CODE'
_TEXT	ENDS
;	COMDAT ??$_Copy_opt@PAEPAE@std@@YAPAEPAE00U_Scalar_ptr_iterator_tag@0@@Z
_TEXT	SEGMENT PARA USE32 PUBLIC 'CODE'
_TEXT	ENDS
;	COMDAT ??$_Construct@EE@std@@YAXPAEABE@Z
_TEXT	SEGMENT PARA USE32 PUBLIC 'CODE'
_TEXT	ENDS
;	COMDAT ??$_Destroy@E@std@@YAXPAE@Z
_TEXT	SEGMENT PARA USE32 PUBLIC 'CODE'
_TEXT	ENDS
;	COMDAT ?capacity@?$vector@EV?$allocator@E@std@@@std@@QBEIXZ
_TEXT	SEGMENT PARA USE32 PUBLIC 'CODE'
_TEXT	ENDS
;	COMDAT ??Giterator@?$vector@EV?$allocator@E@std@@@std@@QBEHABVconst_iterator@12@@Z
_TEXT	SEGMENT PARA USE32 PUBLIC 'CODE'
_TEXT	ENDS
;	COMDAT ??Gconst_iterator@?$vector@EV?$allocator@E@std@@@std@@QBEHABV012@@Z
_TEXT	SEGMENT PARA USE32 PUBLIC 'CODE'
_TEXT	ENDS
;	COMDAT ??$_Distance@Vconst_iterator@?$vector@EV?$allocator@E@std@@@std@@I@std@@YAXVconst_iterator@?$vector@EV?$allocator@E@std@@@0@0AAI@Z
_TEXT	SEGMENT PARA USE32 PUBLIC 'CODE'
_TEXT	ENDS
;	COMDAT ??$_Ucopy@PAE@?$vector@EV?$allocator@E@std@@@std@@IAEPAEPAE00@Z
_TEXT	SEGMENT PARA USE32 PUBLIC 'CODE'
_TEXT	ENDS
;	COMDAT ??$advance@Vconst_iterator@?$vector@EV?$allocator@E@std@@@std@@H@std@@YAXAAVconst_iterator@?$vector@EV?$allocator@E@std@@@0@H@Z
_TEXT	SEGMENT PARA USE32 PUBLIC 'CODE'
_TEXT	ENDS
;	COMDAT ??$copy@Vconst_iterator@?$vector@EV?$allocator@E@std@@@std@@PAE@std@@YAPAEVconst_iterator@?$vector@EV?$allocator@E@std@@@0@0PAE@Z
_TEXT	SEGMENT PARA USE32 PUBLIC 'CODE'
_TEXT	ENDS
;	COMDAT ??$copy_backward@PAEPAE@std@@YAPAEPAE00@Z
_TEXT	SEGMENT PARA USE32 PUBLIC 'CODE'
_TEXT	ENDS
;	COMDAT ??$_Distance2@Vconst_iterator@?$vector@EV?$allocator@E@std@@@std@@I@std@@YAXVconst_iterator@?$vector@EV?$allocator@E@std@@@0@0AAIUrandom_access_iterator_tag@0@@Z
_TEXT	SEGMENT PARA USE32 PUBLIC 'CODE'
_TEXT	ENDS
;	COMDAT ??$_Uninitialized_copy@PAEPAEV?$allocator@E@std@@@std@@YAPAEPAE00AAV?$allocator@E@0@@Z
_TEXT	SEGMENT PARA USE32 PUBLIC 'CODE'
_TEXT	ENDS
;	COMDAT ??$_Advance@Vconst_iterator@?$vector@EV?$allocator@E@std@@@std@@H@std@@YAXAAVconst_iterator@?$vector@EV?$allocator@E@std@@@0@HUrandom_access_iterator_tag@0@@Z
_TEXT	SEGMENT PARA USE32 PUBLIC 'CODE'
_TEXT	ENDS
;	COMDAT ??$_Copy_opt@Vconst_iterator@?$vector@EV?$allocator@E@std@@@std@@PAE@std@@YAPAEVconst_iterator@?$vector@EV?$allocator@E@std@@@0@0PAEU_Nonscalar_ptr_iterator_tag@0@@Z
_TEXT	SEGMENT PARA USE32 PUBLIC 'CODE'
_TEXT	ENDS
;	COMDAT ??$_Copy_backward_opt@PAEPAE@std@@YAPAEPAE00U_Scalar_ptr_iterator_tag@0@@Z
_TEXT	SEGMENT PARA USE32 PUBLIC 'CODE'
_TEXT	ENDS
;	COMDAT ??Yconst_iterator@?$vector@EV?$allocator@E@std@@@std@@QAEAAV012@H@Z
_TEXT	SEGMENT PARA USE32 PUBLIC 'CODE'
_TEXT	ENDS
;	COMDAT ??$_Uninit_copy@EE@std@@YAPAEPAE00AAV?$allocator@E@0@U_Scalar_ptr_iterator_tag@0@@Z
_TEXT	SEGMENT PARA USE32 PUBLIC 'CODE'
_TEXT	ENDS
;	COMDAT ?deallocate@?$allocator@E@std@@QAEXPAEI@Z
_TEXT	SEGMENT PARA USE32 PUBLIC 'CODE'
_TEXT	ENDS
;	COMDAT ??$_Ucopy@Vconst_iterator@?$vector@EV?$allocator@E@std@@@std@@@?$vector@EV?$allocator@E@std@@@std@@IAEPAEVconst_iterator@01@0PAE@Z
_TEXT	SEGMENT PARA USE32 PUBLIC 'CODE'
_TEXT	ENDS
;	COMDAT ?allocate@?$allocator@E@std@@QAEPAEI@Z
_TEXT	SEGMENT PARA USE32 PUBLIC 'CODE'
_TEXT	ENDS
;	COMDAT ??$_Allocate@E@std@@YAPAEIPAE@Z
_TEXT	SEGMENT PARA USE32 PUBLIC 'CODE'
_TEXT	ENDS
;	COMDAT ?_Xlen@?$vector@EV?$allocator@E@std@@@std@@IBEXXZ
_TEXT	SEGMENT PARA USE32 PUBLIC 'CODE'
_TEXT	ENDS
;	COMDAT ??0length_error@std@@QAE@ABV?$basic_string@DU?$char_traits@D@std@@V?$allocator@D@2@@1@@Z
_TEXT	SEGMENT PARA USE32 PUBLIC 'CODE'
_TEXT	ENDS
;	COMDAT ??0logic_error@std@@QAE@ABV?$basic_string@DU?$char_traits@D@std@@V?$allocator@D@2@@1@@Z
_TEXT	SEGMENT PARA USE32 PUBLIC 'CODE'
_TEXT	ENDS
;	COMDAT ??_7logic_error@std@@6B@
CONST	SEGMENT DWORD USE32 PUBLIC 'CONST'
CONST	ENDS
;	COMDAT ??_Glogic_error@std@@UAEPAXI@Z
_TEXT	SEGMENT PARA USE32 PUBLIC 'CODE'
_TEXT	ENDS
;	COMDAT ?what@logic_error@std@@UBEPBDXZ
_TEXT	SEGMENT PARA USE32 PUBLIC 'CODE'
_TEXT	ENDS
;	COMDAT ?c_str@?$basic_string@DU?$char_traits@D@std@@V?$allocator@D@2@@std@@QBEPBDXZ
_TEXT	SEGMENT PARA USE32 PUBLIC 'CODE'
_TEXT	ENDS
;	COMDAT ??0?$basic_string@DU?$char_traits@D@std@@V?$allocator@D@2@@std@@QAE@ABV01@@Z
_TEXT	SEGMENT PARA USE32 PUBLIC 'CODE'
_TEXT	ENDS
;	COMDAT ??0?$_String_val@DV?$allocator@D@std@@@std@@IAE@V?$allocator@D@1@@Z
_TEXT	SEGMENT PARA USE32 PUBLIC 'CODE'
_TEXT	ENDS
;	COMDAT ??0?$allocator@D@std@@QAE@ABV01@@Z
_TEXT	SEGMENT PARA USE32 PUBLIC 'CODE'
_TEXT	ENDS
;	COMDAT ?_Tidy@?$basic_string@DU?$char_traits@D@std@@V?$allocator@D@2@@std@@IAEX_NI@Z
_TEXT	SEGMENT PARA USE32 PUBLIC 'CODE'
_TEXT	ENDS
;	COMDAT ?copy@?$char_traits@D@std@@SAPADPADPBDI@Z
_TEXT	SEGMENT PARA USE32 PUBLIC 'CODE'
_TEXT	ENDS
;	COMDAT ?deallocate@?$allocator@D@std@@QAEXPADI@Z
_TEXT	SEGMENT PARA USE32 PUBLIC 'CODE'
_TEXT	ENDS
;	COMDAT ?_Eos@?$basic_string@DU?$char_traits@D@std@@V?$allocator@D@2@@std@@IAEXI@Z
_TEXT	SEGMENT PARA USE32 PUBLIC 'CODE'
_TEXT	ENDS
;	COMDAT ?assign@?$char_traits@D@std@@SAXAADABD@Z
_TEXT	SEGMENT PARA USE32 PUBLIC 'CODE'
_TEXT	ENDS
;	COMDAT ?_Myptr@?$basic_string@DU?$char_traits@D@std@@V?$allocator@D@2@@std@@QAEPADXZ
_TEXT	SEGMENT PARA USE32 PUBLIC 'CODE'
_TEXT	ENDS
;	COMDAT ?assign@?$basic_string@DU?$char_traits@D@std@@V?$allocator@D@2@@std@@QAEAAV12@ABV12@II@Z
_TEXT	SEGMENT PARA USE32 PUBLIC 'CODE'
_TEXT	ENDS
;	COMDAT ?erase@?$basic_string@DU?$char_traits@D@std@@V?$allocator@D@2@@std@@QAEAAV12@II@Z
_TEXT	SEGMENT PARA USE32 PUBLIC 'CODE'
_TEXT	ENDS
;	COMDAT ?move@?$char_traits@D@std@@SAPADPADPBDI@Z
_TEXT	SEGMENT PARA USE32 PUBLIC 'CODE'
_TEXT	ENDS
;	COMDAT ?_Grow@?$basic_string@DU?$char_traits@D@std@@V?$allocator@D@2@@std@@IAE_NI_N@Z
_TEXT	SEGMENT PARA USE32 PUBLIC 'CODE'
_TEXT	ENDS
;	COMDAT ?max_size@?$basic_string@DU?$char_traits@D@std@@V?$allocator@D@2@@std@@QBEIXZ
_TEXT	SEGMENT PARA USE32 PUBLIC 'CODE'
_TEXT	ENDS
;	COMDAT ?max_size@?$allocator@D@std@@QBEIXZ
_TEXT	SEGMENT PARA USE32 PUBLIC 'CODE'
_TEXT	ENDS
;	COMDAT ?_Copy@?$basic_string@DU?$char_traits@D@std@@V?$allocator@D@2@@std@@IAEXII@Z
_TEXT	SEGMENT PARA USE32 PUBLIC 'CODE'
_TEXT	ENDS
;	COMDAT ?allocate@?$allocator@D@std@@QAEPADI@Z
_TEXT	SEGMENT PARA USE32 PUBLIC 'CODE'
_TEXT	ENDS
;	COMDAT ??$_Allocate@D@std@@YAPADIPAD@Z
_TEXT	SEGMENT PARA USE32 PUBLIC 'CODE'
_TEXT	ENDS
;	COMDAT ?npos@?$basic_string@DU?$char_traits@D@std@@V?$allocator@D@2@@std@@2IB
CONST	SEGMENT DWORD USE32 PUBLIC 'CONST'
CONST	ENDS
;	COMDAT ??1logic_error@std@@UAE@XZ
_TEXT	SEGMENT PARA USE32 PUBLIC 'CODE'
_TEXT	ENDS
;	COMDAT ??_7length_error@std@@6B@
CONST	SEGMENT DWORD USE32 PUBLIC 'CONST'
CONST	ENDS
;	COMDAT ??_Glength_error@std@@UAEPAXI@Z
_TEXT	SEGMENT PARA USE32 PUBLIC 'CODE'
_TEXT	ENDS
;	COMDAT ??1length_error@std@@UAE@XZ
_TEXT	SEGMENT PARA USE32 PUBLIC 'CODE'
_TEXT	ENDS
;	COMDAT ??_C@_0BD@OLBABOEK@vector?$DMT?$DO?5too?5long?$AA@
CONST	SEGMENT DWORD USE32 PUBLIC 'CONST'
CONST	ENDS
;	COMDAT __TI3?AVlength_error@std@@
xdata$x	SEGMENT DWORD USE32 PUBLIC 'CONST'
xdata$x	ENDS
;	COMDAT __CTA3?AVlength_error@std@@
xdata$x	SEGMENT DWORD USE32 PUBLIC 'CONST'
xdata$x	ENDS
;	COMDAT __CT??_R0?AVlength_error@std@@@8??0length_error@std@@QAE@ABV01@@Z40
xdata$x	SEGMENT DWORD USE32 PUBLIC 'CONST'
xdata$x	ENDS
;	COMDAT ??_R0?AVlength_error@std@@@8
_DATA	SEGMENT DWORD USE32 PUBLIC 'DATA'
_DATA	ENDS
;	COMDAT ??0length_error@std@@QAE@ABV01@@Z
_TEXT	SEGMENT PARA USE32 PUBLIC 'CODE'
_TEXT	ENDS
;	COMDAT ??0logic_error@std@@QAE@ABV01@@Z
_TEXT	SEGMENT PARA USE32 PUBLIC 'CODE'
_TEXT	ENDS
;	COMDAT __CT??_R0?AVlogic_error@std@@@8??0logic_error@std@@QAE@ABV01@@Z40
xdata$x	SEGMENT DWORD USE32 PUBLIC 'CONST'
xdata$x	ENDS
;	COMDAT ??_R0?AVlogic_error@std@@@8
_DATA	SEGMENT DWORD USE32 PUBLIC 'DATA'
_DATA	ENDS
;	COMDAT __CT??_R0?AVexception@@@8??0exception@@QAE@ABV0@@Z12
xdata$x	SEGMENT DWORD USE32 PUBLIC 'CONST'
xdata$x	ENDS
;	COMDAT ??_R0?AVexception@@@8
_DATA	SEGMENT DWORD USE32 PUBLIC 'DATA'
_DATA	ENDS
;	COMDAT ?size@?$vector@EV?$allocator@E@std@@@std@@QBEIXZ
_TEXT	SEGMENT PARA USE32 PUBLIC 'CODE'
_TEXT	ENDS
;	COMDAT ?max_size@?$vector@EV?$allocator@E@std@@@std@@QBEIXZ
_TEXT	SEGMENT PARA USE32 PUBLIC 'CODE'
_TEXT	ENDS
;	COMDAT ?max_size@?$allocator@E@std@@QBEIXZ
_TEXT	SEGMENT PARA USE32 PUBLIC 'CODE'
_TEXT	ENDS
;	COMDAT ?_Ptr_cat@std@@YA?AU_Scalar_ptr_iterator_tag@1@PAE0@Z
_TEXT	SEGMENT PARA USE32 PUBLIC 'CODE'
_TEXT	ENDS
;	COMDAT ??0const_iterator@?$vector@EV?$allocator@E@std@@@std@@QAE@PAE@Z
_TEXT	SEGMENT PARA USE32 PUBLIC 'CODE'
_TEXT	ENDS
;	COMDAT ?_Destroy@?$vector@EV?$allocator@E@std@@@std@@IAEXPAE0@Z
_TEXT	SEGMENT PARA USE32 PUBLIC 'CODE'
_TEXT	ENDS
;	COMDAT ??$_Destroy_range@EV?$allocator@E@std@@@std@@YAXPAE0AAV?$allocator@E@0@@Z
_TEXT	SEGMENT PARA USE32 PUBLIC 'CODE'
_TEXT	ENDS
;	COMDAT ??2@YAPAXIPAX@Z
_TEXT	SEGMENT PARA USE32 PUBLIC 'CODE'
_TEXT	ENDS
;	COMDAT ?_Ptr_cat@std@@YA?AU_Scalar_ptr_iterator_tag@1@PAJ0@Z
_TEXT	SEGMENT PARA USE32 PUBLIC 'CODE'
_TEXT	ENDS
;	COMDAT ??9const_iterator@?$_Tree@V?$_Tmap_traits@KEU?$less@K@std@@V?$allocator@U?$pair@$$CBKE@std@@@2@$0A@@std@@@std@@QBE_NABV012@@Z
_TEXT	SEGMENT PARA USE32 PUBLIC 'CODE'
_TEXT	ENDS
;	COMDAT ??8const_iterator@?$_Tree@V?$_Tmap_traits@KEU?$less@K@std@@V?$allocator@U?$pair@$$CBKE@std@@@2@$0A@@std@@@std@@QBE_NABV012@@Z
_TEXT	SEGMENT PARA USE32 PUBLIC 'CODE'
_TEXT	ENDS
;	COMDAT ??Eiterator@?$_Tree@V?$_Tmap_traits@KEU?$less@K@std@@V?$allocator@U?$pair@$$CBKE@std@@@2@$0A@@std@@@std@@QAEAAV012@XZ
_TEXT	SEGMENT PARA USE32 PUBLIC 'CODE'
_TEXT	ENDS
;	COMDAT ??Econst_iterator@?$_Tree@V?$_Tmap_traits@KEU?$less@K@std@@V?$allocator@U?$pair@$$CBKE@std@@@2@$0A@@std@@@std@@QAEAAV012@XZ
_TEXT	SEGMENT PARA USE32 PUBLIC 'CODE'
_TEXT	ENDS
;	COMDAT ?_Inc@const_iterator@?$_Tree@V?$_Tmap_traits@KEU?$less@K@std@@V?$allocator@U?$pair@$$CBKE@std@@@2@$0A@@std@@@std@@QAEXXZ
_TEXT	SEGMENT PARA USE32 PUBLIC 'CODE'
_TEXT	ENDS
;	COMDAT ?_Min@?$_Tree@V?$_Tmap_traits@KEU?$less@K@std@@V?$allocator@U?$pair@$$CBKE@std@@@2@$0A@@std@@@std@@KAPAU_Node@?$_Tree_nod@V?$_Tmap_traits@KEU?$less@K@std@@V?$allocator@U?$pair@$$CBKE@std@@@2@$0A@@std@@@2@PAU342@@Z
_TEXT	SEGMENT PARA USE32 PUBLIC 'CODE'
_TEXT	ENDS
;	COMDAT ?_Left@?$_Tree@V?$_Tmap_traits@KEU?$less@K@std@@V?$allocator@U?$pair@$$CBKE@std@@@2@$0A@@std@@@std@@KAAAPAU_Node@?$_Tree_nod@V?$_Tmap_traits@KEU?$less@K@std@@V?$allocator@U?$pair@$$CBKE@std@@@2@$0A@@std@@@2@PAU342@@Z
_TEXT	SEGMENT PARA USE32 PUBLIC 'CODE'
_TEXT	ENDS
;	COMDAT ?_Isnil@?$_Tree@V?$_Tmap_traits@KEU?$less@K@std@@V?$allocator@U?$pair@$$CBKE@std@@@2@$0A@@std@@@std@@KAAADPAU_Node@?$_Tree_nod@V?$_Tmap_traits@KEU?$less@K@std@@V?$allocator@U?$pair@$$CBKE@std@@@2@$0A@@std@@@2@@Z
_TEXT	SEGMENT PARA USE32 PUBLIC 'CODE'
_TEXT	ENDS
;	COMDAT ?_Parent@?$_Tree@V?$_Tmap_traits@KEU?$less@K@std@@V?$allocator@U?$pair@$$CBKE@std@@@2@$0A@@std@@@std@@KAAAPAU_Node@?$_Tree_nod@V?$_Tmap_traits@KEU?$less@K@std@@V?$allocator@U?$pair@$$CBKE@std@@@2@$0A@@std@@@2@PAU342@@Z
_TEXT	SEGMENT PARA USE32 PUBLIC 'CODE'
_TEXT	ENDS
;	COMDAT ?_Right@?$_Tree@V?$_Tmap_traits@KEU?$less@K@std@@V?$allocator@U?$pair@$$CBKE@std@@@2@$0A@@std@@@std@@KAAAPAU_Node@?$_Tree_nod@V?$_Tmap_traits@KEU?$less@K@std@@V?$allocator@U?$pair@$$CBKE@std@@@2@$0A@@std@@@2@PAU342@@Z
_TEXT	SEGMENT PARA USE32 PUBLIC 'CODE'
_TEXT	ENDS
;	COMDAT ??9const_iterator@?$_Tree@V?$_Tmap_traits@KPAVCCtrl@@U?$less@K@std@@V?$allocator@U?$pair@$$CBKPAVCCtrl@@@std@@@3@$0A@@std@@@std@@QBE_NABV012@@Z
_TEXT	SEGMENT PARA USE32 PUBLIC 'CODE'
_TEXT	ENDS
;	COMDAT ??8const_iterator@?$_Tree@V?$_Tmap_traits@KPAVCCtrl@@U?$less@K@std@@V?$allocator@U?$pair@$$CBKPAVCCtrl@@@std@@@3@$0A@@std@@@std@@QBE_NABV012@@Z
_TEXT	SEGMENT PARA USE32 PUBLIC 'CODE'
_TEXT	ENDS
;	COMDAT ??Eiterator@?$_Tree@V?$_Tmap_traits@KPAVCCtrl@@U?$less@K@std@@V?$allocator@U?$pair@$$CBKPAVCCtrl@@@std@@@3@$0A@@std@@@std@@QAEAAV012@XZ
_TEXT	SEGMENT PARA USE32 PUBLIC 'CODE'
_TEXT	ENDS
;	COMDAT ??Econst_iterator@?$_Tree@V?$_Tmap_traits@KPAVCCtrl@@U?$less@K@std@@V?$allocator@U?$pair@$$CBKPAVCCtrl@@@std@@@3@$0A@@std@@@std@@QAEAAV012@XZ
_TEXT	SEGMENT PARA USE32 PUBLIC 'CODE'
_TEXT	ENDS
;	COMDAT ?_Inc@const_iterator@?$_Tree@V?$_Tmap_traits@KPAVCCtrl@@U?$less@K@std@@V?$allocator@U?$pair@$$CBKPAVCCtrl@@@std@@@3@$0A@@std@@@std@@QAEXXZ
_TEXT	SEGMENT PARA USE32 PUBLIC 'CODE'
_TEXT	ENDS
;	COMDAT ?_Min@?$_Tree@V?$_Tmap_traits@KPAVCCtrl@@U?$less@K@std@@V?$allocator@U?$pair@$$CBKPAVCCtrl@@@std@@@3@$0A@@std@@@std@@KAPAU_Node@?$_Tree_nod@V?$_Tmap_traits@KPAVCCtrl@@U?$less@K@std@@V?$allocator@U?$pair@$$CBKPAVCCtrl@@@std@@@3@$0A@@std@@@2@PAU342@@Z
_TEXT	SEGMENT PARA USE32 PUBLIC 'CODE'
_TEXT	ENDS
;	COMDAT ?_Left@?$_Tree@V?$_Tmap_traits@KPAVCCtrl@@U?$less@K@std@@V?$allocator@U?$pair@$$CBKPAVCCtrl@@@std@@@3@$0A@@std@@@std@@KAAAPAU_Node@?$_Tree_nod@V?$_Tmap_traits@KPAVCCtrl@@U?$less@K@std@@V?$allocator@U?$pair@$$CBKPAVCCtrl@@@std@@@3@$0A@@std@@@2@PAU342@@Z
_TEXT	SEGMENT PARA USE32 PUBLIC 'CODE'
_TEXT	ENDS
;	COMDAT ?_Isnil@?$_Tree@V?$_Tmap_traits@KPAVCCtrl@@U?$less@K@std@@V?$allocator@U?$pair@$$CBKPAVCCtrl@@@std@@@3@$0A@@std@@@std@@KAAADPAU_Node@?$_Tree_nod@V?$_Tmap_traits@KPAVCCtrl@@U?$less@K@std@@V?$allocator@U?$pair@$$CBKPAVCCtrl@@@std@@@3@$0A@@std@@@2@@Z
_TEXT	SEGMENT PARA USE32 PUBLIC 'CODE'
_TEXT	ENDS
;	COMDAT ?_Parent@?$_Tree@V?$_Tmap_traits@KPAVCCtrl@@U?$less@K@std@@V?$allocator@U?$pair@$$CBKPAVCCtrl@@@std@@@3@$0A@@std@@@std@@KAAAPAU_Node@?$_Tree_nod@V?$_Tmap_traits@KPAVCCtrl@@U?$less@K@std@@V?$allocator@U?$pair@$$CBKPAVCCtrl@@@std@@@3@$0A@@std@@@2@PAU342@@Z
_TEXT	SEGMENT PARA USE32 PUBLIC 'CODE'
_TEXT	ENDS
;	COMDAT ?_Right@?$_Tree@V?$_Tmap_traits@KPAVCCtrl@@U?$less@K@std@@V?$allocator@U?$pair@$$CBKPAVCCtrl@@@std@@@3@$0A@@std@@@std@@KAAAPAU_Node@?$_Tree_nod@V?$_Tmap_traits@KPAVCCtrl@@U?$less@K@std@@V?$allocator@U?$pair@$$CBKPAVCCtrl@@@std@@@3@$0A@@std@@@2@PAU342@@Z
_TEXT	SEGMENT PARA USE32 PUBLIC 'CODE'
_TEXT	ENDS
;	COMDAT ??9const_iterator@?$_Tree@V?$_Tmap_traits@KPAVCUser@@U?$less@K@std@@V?$allocator@U?$pair@$$CBKPAVCUser@@@std@@@3@$0A@@std@@@std@@QBE_NABV012@@Z
_TEXT	SEGMENT PARA USE32 PUBLIC 'CODE'
_TEXT	ENDS
;	COMDAT ??8const_iterator@?$_Tree@V?$_Tmap_traits@KPAVCUser@@U?$less@K@std@@V?$allocator@U?$pair@$$CBKPAVCUser@@@std@@@3@$0A@@std@@@std@@QBE_NABV012@@Z
_TEXT	SEGMENT PARA USE32 PUBLIC 'CODE'
_TEXT	ENDS
;	COMDAT ??Eiterator@?$_Tree@V?$_Tmap_traits@KPAVCUser@@U?$less@K@std@@V?$allocator@U?$pair@$$CBKPAVCUser@@@std@@@3@$0A@@std@@@std@@QAEAAV012@XZ
_TEXT	SEGMENT PARA USE32 PUBLIC 'CODE'
_TEXT	ENDS
;	COMDAT ??Econst_iterator@?$_Tree@V?$_Tmap_traits@KPAVCUser@@U?$less@K@std@@V?$allocator@U?$pair@$$CBKPAVCUser@@@std@@@3@$0A@@std@@@std@@QAEAAV012@XZ
_TEXT	SEGMENT PARA USE32 PUBLIC 'CODE'
_TEXT	ENDS
;	COMDAT ?_Inc@const_iterator@?$_Tree@V?$_Tmap_traits@KPAVCUser@@U?$less@K@std@@V?$allocator@U?$pair@$$CBKPAVCUser@@@std@@@3@$0A@@std@@@std@@QAEXXZ
_TEXT	SEGMENT PARA USE32 PUBLIC 'CODE'
_TEXT	ENDS
;	COMDAT ?_Min@?$_Tree@V?$_Tmap_traits@KPAVCUser@@U?$less@K@std@@V?$allocator@U?$pair@$$CBKPAVCUser@@@std@@@3@$0A@@std@@@std@@KAPAU_Node@?$_Tree_nod@V?$_Tmap_traits@KPAVCUser@@U?$less@K@std@@V?$allocator@U?$pair@$$CBKPAVCUser@@@std@@@3@$0A@@std@@@2@PAU342@@Z
_TEXT	SEGMENT PARA USE32 PUBLIC 'CODE'
_TEXT	ENDS
;	COMDAT ?_Left@?$_Tree@V?$_Tmap_traits@KPAVCUser@@U?$less@K@std@@V?$allocator@U?$pair@$$CBKPAVCUser@@@std@@@3@$0A@@std@@@std@@KAAAPAU_Node@?$_Tree_nod@V?$_Tmap_traits@KPAVCUser@@U?$less@K@std@@V?$allocator@U?$pair@$$CBKPAVCUser@@@std@@@3@$0A@@std@@@2@PAU342@@Z
_TEXT	SEGMENT PARA USE32 PUBLIC 'CODE'
_TEXT	ENDS
;	COMDAT ?_Isnil@?$_Tree@V?$_Tmap_traits@KPAVCUser@@U?$less@K@std@@V?$allocator@U?$pair@$$CBKPAVCUser@@@std@@@3@$0A@@std@@@std@@KAAADPAU_Node@?$_Tree_nod@V?$_Tmap_traits@KPAVCUser@@U?$less@K@std@@V?$allocator@U?$pair@$$CBKPAVCUser@@@std@@@3@$0A@@std@@@2@@Z
_TEXT	SEGMENT PARA USE32 PUBLIC 'CODE'
_TEXT	ENDS
;	COMDAT ?_Parent@?$_Tree@V?$_Tmap_traits@KPAVCUser@@U?$less@K@std@@V?$allocator@U?$pair@$$CBKPAVCUser@@@std@@@3@$0A@@std@@@std@@KAAAPAU_Node@?$_Tree_nod@V?$_Tmap_traits@KPAVCUser@@U?$less@K@std@@V?$allocator@U?$pair@$$CBKPAVCUser@@@std@@@3@$0A@@std@@@2@PAU342@@Z
_TEXT	SEGMENT PARA USE32 PUBLIC 'CODE'
_TEXT	ENDS
;	COMDAT ?_Right@?$_Tree@V?$_Tmap_traits@KPAVCUser@@U?$less@K@std@@V?$allocator@U?$pair@$$CBKPAVCUser@@@std@@@3@$0A@@std@@@std@@KAAAPAU_Node@?$_Tree_nod@V?$_Tmap_traits@KPAVCUser@@U?$less@K@std@@V?$allocator@U?$pair@$$CBKPAVCUser@@@std@@@3@$0A@@std@@@2@PAU342@@Z
_TEXT	SEGMENT PARA USE32 PUBLIC 'CODE'
_TEXT	ENDS
;	COMDAT ?_Psave@?$_Facetptr@V?$ctype@G@std@@@std@@2PBVfacet@locale@2@B
_DATA	SEGMENT DWORD USE32 PUBLIC 'DATA'
_DATA	ENDS
;	COMDAT ?_Psave@?$_Facetptr@V?$ctype@D@std@@@std@@2PBVfacet@locale@2@B
_DATA	SEGMENT DWORD USE32 PUBLIC 'DATA'
_DATA	ENDS
;	COMDAT ??$swap@D@std@@YAXAAD0@Z
_TEXT	SEGMENT PARA USE32 PUBLIC 'CODE'
_TEXT	ENDS
;	COMDAT __TI3?AVout_of_range@std@@
xdata$x	SEGMENT DWORD USE32 PUBLIC 'CONST'
xdata$x	ENDS
;	COMDAT ??1out_of_range@std@@UAE@XZ
_TEXT	SEGMENT PARA USE32 PUBLIC 'CODE'
_TEXT	ENDS
;	COMDAT ??_7out_of_range@std@@6B@
CONST	SEGMENT DWORD USE32 PUBLIC 'CONST'
CONST	ENDS
;	COMDAT ??_Gout_of_range@std@@UAEPAXI@Z
_TEXT	SEGMENT PARA USE32 PUBLIC 'CODE'
_TEXT	ENDS
;	COMDAT __CTA3?AVout_of_range@std@@
xdata$x	SEGMENT DWORD USE32 PUBLIC 'CONST'
xdata$x	ENDS
;	COMDAT __CT??_R0?AVout_of_range@std@@@8??0out_of_range@std@@QAE@ABV01@@Z40
xdata$x	SEGMENT DWORD USE32 PUBLIC 'CONST'
xdata$x	ENDS
;	COMDAT ??_R0?AVout_of_range@std@@@8
_DATA	SEGMENT DWORD USE32 PUBLIC 'DATA'
_DATA	ENDS
;	COMDAT ??0out_of_range@std@@QAE@ABV01@@Z
_TEXT	SEGMENT PARA USE32 PUBLIC 'CODE'
_TEXT	ENDS
;	COMDAT ??1?$basic_string@DU?$char_traits@D@std@@V?$allocator@D@2@@std@@QAE@XZ
_TEXT	SEGMENT PARA USE32 PUBLIC 'CODE'
_TEXT	ENDS
;	COMDAT ??_C@_0BM@PAPJHAGI@invalid?5map?1set?$DMT?$DO?5iterator?$AA@
CONST	SEGMENT DWORD USE32 PUBLIC 'CONST'
CONST	ENDS
;	COMDAT ??0?$basic_string@DU?$char_traits@D@std@@V?$allocator@D@2@@std@@QAE@PBD@Z
_TEXT	SEGMENT PARA USE32 PUBLIC 'CODE'
_TEXT	ENDS
;	COMDAT ??0?$allocator@D@std@@QAE@XZ
_TEXT	SEGMENT PARA USE32 PUBLIC 'CODE'
_TEXT	ENDS
;	COMDAT ?assign@?$basic_string@DU?$char_traits@D@std@@V?$allocator@D@2@@std@@QAEAAV12@PBD@Z
_TEXT	SEGMENT PARA USE32 PUBLIC 'CODE'
_TEXT	ENDS
;	COMDAT ?assign@?$basic_string@DU?$char_traits@D@std@@V?$allocator@D@2@@std@@QAEAAV12@PBDI@Z
_TEXT	SEGMENT PARA USE32 PUBLIC 'CODE'
_TEXT	ENDS
;	COMDAT ?_Inside@?$basic_string@DU?$char_traits@D@std@@V?$allocator@D@2@@std@@IAE_NPBD@Z
_TEXT	SEGMENT PARA USE32 PUBLIC 'CODE'
_TEXT	ENDS
;	COMDAT ?length@?$char_traits@D@std@@SAIPBD@Z
_TEXT	SEGMENT PARA USE32 PUBLIC 'CODE'
_TEXT	ENDS
;	COMDAT ??0out_of_range@std@@QAE@ABV?$basic_string@DU?$char_traits@D@std@@V?$allocator@D@2@@1@@Z
_TEXT	SEGMENT PARA USE32 PUBLIC 'CODE'
_TEXT	ENDS
;	COMDAT ?compare@?$char_traits@D@std@@SAHPBD0I@Z
_TEXT	SEGMENT PARA USE32 PUBLIC 'CODE'
_TEXT	ENDS
;	COMDAT ??R?$less@K@std@@QBE_NABK0@Z
_TEXT	SEGMENT PARA USE32 PUBLIC 'CODE'
_TEXT	ENDS
;	COMDAT ?_Myptr@?$basic_string@DU?$char_traits@D@std@@V?$allocator@D@2@@std@@QBEPBDXZ
_TEXT	SEGMENT PARA USE32 PUBLIC 'CODE'
_TEXT	ENDS
;	COMDAT ?size@?$basic_string@DU?$char_traits@D@std@@V?$allocator@D@2@@std@@QBEIXZ
_TEXT	SEGMENT PARA USE32 PUBLIC 'CODE'
_TEXT	ENDS
;	COMDAT ?chWindows9x@@YAHXZ
_TEXT	SEGMENT PARA USE32 PUBLIC 'CODE'
_TEXT	ENDS
;	COMDAT ??_7CDPMng@@6B@
CONST	SEGMENT DWORD USE32 PUBLIC 'CONST'
CONST	ENDS
;	COMDAT ??_7CMapChildE@@6B@
CONST	SEGMENT DWORD USE32 PUBLIC 'CONST'
CONST	ENDS
;	COMDAT ?Leave@CMclCritSec@@QAEXXZ
_TEXT	SEGMENT PARA USE32 PUBLIC 'CODE'
_TEXT	ENDS
;	COMDAT ?Enter@CMclCritSec@@QAEXXZ
_TEXT	SEGMENT PARA USE32 PUBLIC 'CODE'
_TEXT	ENDS
;	COMDAT ??1CMclCritSec@@UAE@XZ
_TEXT	SEGMENT PARA USE32 PUBLIC 'CODE'
_TEXT	ENDS
;	COMDAT ??_7CMclCritSec@@6B@
CONST	SEGMENT DWORD USE32 PUBLIC 'CONST'
CONST	ENDS
;	COMDAT ??_GCMclCritSec@@UAEPAXI@Z
_TEXT	SEGMENT PARA USE32 PUBLIC 'CODE'
_TEXT	ENDS
;	COMDAT ??0CMclCritSec@@QAE@XZ
_TEXT	SEGMENT PARA USE32 PUBLIC 'CODE'
_TEXT	ENDS
;	COMDAT ??_7CMapChild@@6B@
CONST	SEGMENT DWORD USE32 PUBLIC 'CONST'
CONST	ENDS
;	COMDAT ??1CMclAutoLock@@QAE@XZ
_TEXT	SEGMENT PARA USE32 PUBLIC 'CODE'
_TEXT	ENDS
;	COMDAT ??0CMclAutoLock@@QAE@AAVCMclCritSec@@@Z
_TEXT	SEGMENT PARA USE32 PUBLIC 'CODE'
_TEXT	ENDS
;	COMDAT ??_7CBuffer2@@6B@
CONST	SEGMENT DWORD USE32 PUBLIC 'CONST'
CONST	ENDS
sxdata	SEGMENT DWORD USE32 'SXDATA'
sxdata	ENDS
FLAT	GROUP _DATA, CONST, _BSS
	ASSUME	CS: FLAT, DS: FLAT, SS: FLAT
endif

INCLUDELIB LIBCMT
INCLUDELIB OLDNAMES

PUBLIC	?GetHeaderLength@CBuffer@@QAEKXZ		; CBuffer::GetHeaderLength
; Function compile flags: /Ogty
; File c:\documents and settings\test\mes documents\source\virtuos_v17\build\program\_network\net\include\buffer.h
;	COMDAT ?GetHeaderLength@CBuffer@@QAEKXZ
_TEXT	SEGMENT
?GetHeaderLength@CBuffer@@QAEKXZ PROC NEAR		; CBuffer::GetHeaderLength, COMDAT
; _this$ = ecx

; 66   : 		return m_dwHeaderSize;

  00000	8b 81 24 20 00
	00		 mov	 eax, DWORD PTR [ecx+8228]

; 67   : 	}

  00006	c3		 ret	 0
?GetHeaderLength@CBuffer@@QAEKXZ ENDP			; CBuffer::GetHeaderLength
_TEXT	ENDS
PUBLIC	?GetRecvHandle@CDPSock@@QAEPAXXZ		; CDPSock::GetRecvHandle
; Function compile flags: /Ogty
; File c:\documents and settings\test\mes documents\source\virtuos_v17\build\program\_network\net\include\dpsock.h
;	COMDAT ?GetRecvHandle@CDPSock@@QAEPAXXZ
_TEXT	SEGMENT
?GetRecvHandle@CDPSock@@QAEPAXXZ PROC NEAR		; CDPSock::GetRecvHandle, COMDAT
; _this$ = ecx

; 100  : 	{	return m_hRecv;	}

  00000	8b 41 60	 mov	 eax, DWORD PTR [ecx+96]
  00003	c3		 ret	 0
?GetRecvHandle@CDPSock@@QAEPAXXZ ENDP			; CDPSock::GetRecvHandle
_TEXT	ENDS
PUBLIC	?GetHostAddr@CDPSock@@QAEJPAXPAK@Z		; CDPSock::GetHostAddr
; Function compile flags: /Ogty
;	COMDAT ?GetHostAddr@CDPSock@@QAEJPAXPAK@Z
_TEXT	SEGMENT
_lpAddr$ = 8						; size = 4
_lpdwSize$ = 12						; size = 4
?GetHostAddr@CDPSock@@QAEJPAXPAK@Z PROC NEAR		; CDPSock::GetHostAddr, COMDAT
; _this$ = ecx

; 109  : 	{	return( m_pSock ? m_pSock->GetHostAddr( lpAddr, lpdwSize ):	DPERR_NOSESSIONS );	}

  00000	8b 41 04	 mov	 eax, DWORD PTR [ecx+4]
  00003	85 c0		 test	 eax, eax
  00005	74 07		 je	 SHORT $L231400
  00007	8b c8		 mov	 ecx, eax
  00009	8b 01		 mov	 eax, DWORD PTR [ecx]
  0000b	ff 60 10	 jmp	 DWORD PTR [eax+16]
$L231400:
  0000e	b8 dc 00 77 88	 mov	 eax, -2005466916	; 887700dcH
  00013	c2 08 00	 ret	 8
?GetHostAddr@CDPSock@@QAEJPAXPAK@Z ENDP			; CDPSock::GetHostAddr
_TEXT	ENDS
PUBLIC	?GetPlayerAddr@CDPSock@@QAEJKPAXPAK@Z		; CDPSock::GetPlayerAddr
; Function compile flags: /Ogty
;	COMDAT ?GetPlayerAddr@CDPSock@@QAEJKPAXPAK@Z
_TEXT	SEGMENT
_dpid$ = 8						; size = 4
_lpAddr$ = 12						; size = 4
_lpdwSize$ = 16						; size = 4
?GetPlayerAddr@CDPSock@@QAEJKPAXPAK@Z PROC NEAR		; CDPSock::GetPlayerAddr, COMDAT
; _this$ = ecx

; 111  : 	{	return m_pSock->GetPeerAddr( dpid, lpAddr, lpdwSize );	}

  00000	8b 49 04	 mov	 ecx, DWORD PTR [ecx+4]
  00003	8b 01		 mov	 eax, DWORD PTR [ecx]
  00005	ff 60 18	 jmp	 DWORD PTR [eax+24]
?GetPlayerAddr@CDPSock@@QAEJKPAXPAK@Z ENDP		; CDPSock::GetPlayerAddr
_TEXT	ENDS
PUBLIC	?GetPlayerAddr@CDPSock@@QAEKK@Z			; CDPSock::GetPlayerAddr
; Function compile flags: /Ogty
;	COMDAT ?GetPlayerAddr@CDPSock@@QAEKK@Z
_TEXT	SEGMENT
_dpid$ = 8						; size = 4
?GetPlayerAddr@CDPSock@@QAEKK@Z PROC NEAR		; CDPSock::GetPlayerAddr, COMDAT
; _this$ = ecx

; 113  : 	{	return m_pSock->GetPeerAddr( dpid );	}

  00000	8b 49 04	 mov	 ecx, DWORD PTR [ecx+4]
  00003	8b 01		 mov	 eax, DWORD PTR [ecx]
  00005	ff 60 14	 jmp	 DWORD PTR [eax+20]
?GetPlayerAddr@CDPSock@@QAEKK@Z ENDP			; CDPSock::GetPlayerAddr
_TEXT	ENDS
PUBLIC	?GetRecvHandle@CDPMng@@QAEPAXXZ			; CDPMng::GetRecvHandle
; Function compile flags: /Ogty
; File c:\documents and settings\test\mes documents\source\virtuos_v17\build\program\_network\net\include\dpmng.h
;	COMDAT ?GetRecvHandle@CDPMng@@QAEPAXXZ
_TEXT	SEGMENT
?GetRecvHandle@CDPMng@@QAEPAXXZ PROC NEAR		; CDPMng::GetRecvHandle, COMDAT
; _this$ = ecx

; 133  : 	return	m_pDPSock->GetRecvHandle();	

  00000	8b 41 04	 mov	 eax, DWORD PTR [ecx+4]
  00003	8b 40 60	 mov	 eax, DWORD PTR [eax+96]

; 134  : }

  00006	c3		 ret	 0
?GetRecvHandle@CDPMng@@QAEPAXXZ ENDP			; CDPMng::GetRecvHandle
_TEXT	ENDS
PUBLIC	?GetCloseHandle@CDPMng@@QAEPAXXZ		; CDPMng::GetCloseHandle
; Function compile flags: /Ogty
;	COMDAT ?GetCloseHandle@CDPMng@@QAEPAXXZ
_TEXT	SEGMENT
?GetCloseHandle@CDPMng@@QAEPAXXZ PROC NEAR		; CDPMng::GetCloseHandle, COMDAT
; _this$ = ecx

; 138  : 	return m_hClose;	

  00000	8b 41 0c	 mov	 eax, DWORD PTR [ecx+12]

; 139  : }

  00003	c3		 ret	 0
?GetCloseHandle@CDPMng@@QAEPAXXZ ENDP			; CDPMng::GetCloseHandle
_TEXT	ENDS
PUBLIC	??0CDPMng@@QAE@XZ				; CDPMng::CDPMng
PUBLIC	??_7CDPMng@@6B@					; CDPMng::`vftable'
PUBLIC	??_GCDPMng@@UAEPAXI@Z				; CDPMng::`scalar deleting destructor'
EXTRN	__purecall:NEAR
EXTRN	??_ECDPMng@@UAEPAXI@Z:NEAR			; CDPMng::`vector deleting destructor'
;	COMDAT ??_7CDPMng@@6B@
; File c:\documents and settings\test\mes documents\source\virtuos_v17\build\program\_network\net\src\dpmng.cpp
CONST	SEGMENT
??_7CDPMng@@6B@ DD FLAT:??_ECDPMng@@UAEPAXI@Z		; CDPMng::`vftable'
	DD	FLAT:__purecall
	DD	FLAT:__purecall
; Function compile flags: /Ogty
CONST	ENDS
;	COMDAT ??0CDPMng@@QAE@XZ
_TEXT	SEGMENT
??0CDPMng@@QAE@XZ PROC NEAR				; CDPMng::CDPMng, COMDAT
; _this$ = ecx

; 28   : {

  00000	8b c1		 mov	 eax, ecx

; 29   : 	m_pDPSock	= NULL;

  00002	33 c9		 xor	 ecx, ecx
  00004	c7 00 00 00 00
	00		 mov	 DWORD PTR [eax], OFFSET FLAT:??_7CDPMng@@6B@
  0000a	89 48 04	 mov	 DWORD PTR [eax+4], ecx

; 30   : 	m_hRecvThread	= m_hClose	= (HANDLE)NULL;

  0000d	89 48 0c	 mov	 DWORD PTR [eax+12], ecx
  00010	89 48 08	 mov	 DWORD PTR [eax+8], ecx

; 31   : }

  00013	c3		 ret	 0
??0CDPMng@@QAE@XZ ENDP					; CDPMng::CDPMng
_TEXT	ENDS
PUBLIC	??1CDPMng@@UAE@XZ				; CDPMng::~CDPMng
; Function compile flags: /Ogty
;	COMDAT ??1CDPMng@@UAE@XZ
_TEXT	SEGMENT
??1CDPMng@@UAE@XZ PROC NEAR				; CDPMng::~CDPMng, COMDAT
; _this$ = ecx

; 34   : {

  00000	c7 01 00 00 00
	00		 mov	 DWORD PTR [ecx], OFFSET FLAT:??_7CDPMng@@6B@

; 35   : 
; 36   : }

  00006	c3		 ret	 0
??1CDPMng@@UAE@XZ ENDP					; CDPMng::~CDPMng
_TEXT	ENDS
PUBLIC	?DeleteDPObject@CDPMng@@QAEHXZ			; CDPMng::DeleteDPObject
EXTRN	__imp__CloseHandle@4:NEAR
EXTRN	?Close@CDPSock@@QAEHXZ:NEAR			; CDPSock::Close
EXTRN	__imp__SetEvent@4:NEAR
EXTRN	__imp__WaitForSingleObject@8:NEAR
; Function compile flags: /Ogty
;	COMDAT ?DeleteDPObject@CDPMng@@QAEHXZ
_TEXT	SEGMENT
?DeleteDPObject@CDPMng@@QAEHXZ PROC NEAR		; CDPMng::DeleteDPObject, COMDAT
; _this$ = ecx

; 64   : {

  00000	56		 push	 esi
  00001	8b f1		 mov	 esi, ecx

; 65   : 	// Wake up receive thread and wait for it to quit
; 66   : 	CLOSE_THREAD( m_hRecvThread, m_hClose );

  00003	8b 46 08	 mov	 eax, DWORD PTR [esi+8]
  00006	85 c0		 test	 eax, eax
  00008	74 38		 je	 SHORT $L229314
  0000a	8b 46 0c	 mov	 eax, DWORD PTR [esi+12]
  0000d	57		 push	 edi
  0000e	50		 push	 eax
  0000f	ff 15 00 00 00
	00		 call	 DWORD PTR __imp__SetEvent@4
  00015	8b 4e 08	 mov	 ecx, DWORD PTR [esi+8]
  00018	6a ff		 push	 -1
  0001a	51		 push	 ecx
  0001b	ff 15 00 00 00
	00		 call	 DWORD PTR __imp__WaitForSingleObject@8
  00021	8b 56 08	 mov	 edx, DWORD PTR [esi+8]
  00024	8b 3d 00 00 00
	00		 mov	 edi, DWORD PTR __imp__CloseHandle@4
  0002a	52		 push	 edx
  0002b	ff d7		 call	 edi
  0002d	8b 46 0c	 mov	 eax, DWORD PTR [esi+12]
  00030	50		 push	 eax
  00031	ff d7		 call	 edi
  00033	c7 46 0c 00 00
	00 00		 mov	 DWORD PTR [esi+12], 0
  0003a	c7 46 08 00 00
	00 00		 mov	 DWORD PTR [esi+8], 0
  00041	5f		 pop	 edi
$L229314:

; 67   : 	if( m_pDPSock ) {

  00042	8b 4e 04	 mov	 ecx, DWORD PTR [esi+4]
  00045	85 c9		 test	 ecx, ecx
  00047	74 19		 je	 SHORT $L231434

; 68   : 		m_pDPSock->Close();

  00049	e8 00 00 00 00	 call	 ?Close@CDPSock@@QAEHXZ	; CDPSock::Close

; 69   : 		SAFE_DELETE( m_pDPSock );

  0004e	8b 4e 04	 mov	 ecx, DWORD PTR [esi+4]
  00051	85 c9		 test	 ecx, ecx
  00053	74 0d		 je	 SHORT $L231434
  00055	8b 11		 mov	 edx, DWORD PTR [ecx]
  00057	6a 01		 push	 1
  00059	ff 12		 call	 DWORD PTR [edx]
  0005b	c7 46 04 00 00
	00 00		 mov	 DWORD PTR [esi+4], 0
$L231434:

; 70   : 	}
; 71   : 	return TRUE;

  00062	b8 01 00 00 00	 mov	 eax, 1
  00067	5e		 pop	 esi

; 72   : }

  00068	c3		 ret	 0
?DeleteDPObject@CDPMng@@QAEHXZ ENDP			; CDPMng::DeleteDPObject
_TEXT	ENDS
PUBLIC	?InitConnection@CDPMng@@QAEHPAXG@Z		; CDPMng::InitConnection
EXTRN	?InitializeConnection@CDPSock@@QAEHPAXK@Z:NEAR	; CDPSock::InitializeConnection
; Function compile flags: /Ogty
;	COMDAT ?InitConnection@CDPMng@@QAEHPAXG@Z
_TEXT	SEGMENT
_lpConnection$ = 8					; size = 4
_uPort$ = 12						; size = 2
?InitConnection@CDPMng@@QAEHPAXG@Z PROC NEAR		; CDPMng::InitConnection, COMDAT
; _this$ = ecx

; 76   : 	return	m_pDPSock->InitializeConnection( lpConnection, (DWORD)uPort );

  00000	0f b7 44 24 08	 movzx	 eax, WORD PTR _uPort$[esp-4]
  00005	89 44 24 08	 mov	 WORD PTR _uPort$[esp-4], eax
  00009	8b 49 04	 mov	 ecx, DWORD PTR [ecx+4]
  0000c	e9 00 00 00 00	 jmp	 ?InitializeConnection@CDPSock@@QAEHPAXK@Z ; CDPSock::InitializeConnection
?InitConnection@CDPMng@@QAEHPAXG@Z ENDP			; CDPMng::InitConnection
_TEXT	ENDS
PUBLIC	?GetHostAddr@CDPMng@@QAEXPAD@Z			; CDPMng::GetHostAddr
; Function compile flags: /Ogty
;	COMDAT ?GetHostAddr@CDPMng@@QAEXPAD@Z
_TEXT	SEGMENT
_uBufSize$229344 = -4					; size = 4
_lpAddr$ = 8						; size = 4
?GetHostAddr@CDPMng@@QAEXPAD@Z PROC NEAR		; CDPMng::GetHostAddr, COMDAT
; _this$ = ecx

; 114  : {

  00000	51		 push	 ecx

; 115  : 	if( m_pDPSock )

  00001	8b 41 04	 mov	 eax, DWORD PTR [ecx+4]
  00004	85 c0		 test	 eax, eax
  00006	74 20		 je	 SHORT $L231446

; 116  : 	{
; 117  : 		u_long uBufSize		= sizeof(lpAddr);

  00008	c7 04 24 04 00
	00 00		 mov	 DWORD PTR _uBufSize$229344[esp+4], 4

; 118  : 		m_pDPSock->GetHostAddr( (LPVOID)lpAddr, (LPDWORD)&uBufSize );

  0000f	8b 48 04	 mov	 ecx, DWORD PTR [eax+4]
  00012	85 c9		 test	 ecx, ecx
  00014	74 12		 je	 SHORT $L231446
  00016	8b c1		 mov	 eax, ecx
  00018	8b 10		 mov	 edx, DWORD PTR [eax]
  0001a	8d 0c 24	 lea	 ecx, DWORD PTR _uBufSize$229344[esp+4]
  0001d	51		 push	 ecx
  0001e	8b 4c 24 0c	 mov	 ecx, DWORD PTR _lpAddr$[esp+4]
  00022	51		 push	 ecx
  00023	8b c8		 mov	 ecx, eax
  00025	ff 52 10	 call	 DWORD PTR [edx+16]
$L231446:

; 119  : 	}
; 120  : }

  00028	59		 pop	 ecx
  00029	c2 04 00	 ret	 4
?GetHostAddr@CDPMng@@QAEXPAD@Z ENDP			; CDPMng::GetHostAddr
_TEXT	ENDS
PUBLIC	?GetPlayerAddr@CDPMng@@QAEXKPAD@Z		; CDPMng::GetPlayerAddr
; Function compile flags: /Ogty
;	COMDAT ?GetPlayerAddr@CDPMng@@QAEXKPAD@Z
_TEXT	SEGMENT
_uBufSize$229353 = -4					; size = 4
_dpid$ = 8						; size = 4
_lpAddr$ = 12						; size = 4
?GetPlayerAddr@CDPMng@@QAEXKPAD@Z PROC NEAR		; CDPMng::GetPlayerAddr, COMDAT
; _this$ = ecx

; 123  : {

  00000	51		 push	 ecx

; 124  : 	if( m_pDPSock )

  00001	8b 41 04	 mov	 eax, DWORD PTR [ecx+4]
  00004	85 c0		 test	 eax, eax
  00006	74 1e		 je	 SHORT $L231455

; 125  : 	{
; 126  : 		u_long uBufSize		= sizeof(lpAddr);
; 127  : 		m_pDPSock->GetPlayerAddr( dpid, (LPVOID)lpAddr, (LPDWORD)&uBufSize );

  00008	8d 14 24	 lea	 edx, DWORD PTR _uBufSize$229353[esp+4]
  0000b	52		 push	 edx
  0000c	8b 54 24 10	 mov	 edx, DWORD PTR _lpAddr$[esp+4]
  00010	c7 44 24 04 04
	00 00 00	 mov	 DWORD PTR _uBufSize$229353[esp+8], 4
  00018	8b 48 04	 mov	 ecx, DWORD PTR [eax+4]
  0001b	8b 01		 mov	 eax, DWORD PTR [ecx]
  0001d	52		 push	 edx
  0001e	8b 54 24 10	 mov	 edx, DWORD PTR _dpid$[esp+8]
  00022	52		 push	 edx
  00023	ff 50 18	 call	 DWORD PTR [eax+24]
$L231455:

; 128  : 	}
; 129  : }

  00026	59		 pop	 ecx
  00027	c2 08 00	 ret	 8
?GetPlayerAddr@CDPMng@@QAEXKPAD@Z ENDP			; CDPMng::GetPlayerAddr
_TEXT	ENDS
PUBLIC	?GetPlayerAddr@CDPMng@@QAEKK@Z			; CDPMng::GetPlayerAddr
; Function compile flags: /Ogty
;	COMDAT ?GetPlayerAddr@CDPMng@@QAEKK@Z
_TEXT	SEGMENT
_dpid$ = 8						; size = 4
?GetPlayerAddr@CDPMng@@QAEKK@Z PROC NEAR		; CDPMng::GetPlayerAddr, COMDAT
; _this$ = ecx

; 133  : 	if( m_pDPSock )

  00000	8b 41 04	 mov	 eax, DWORD PTR [ecx+4]
  00003	85 c0		 test	 eax, eax
  00005	74 08		 je	 SHORT $L229360

; 134  : 	{
; 135  : 		return m_pDPSock->GetPlayerAddr( dpid );

  00007	8b 48 04	 mov	 ecx, DWORD PTR [eax+4]
  0000a	8b 01		 mov	 eax, DWORD PTR [ecx]
  0000c	ff 60 14	 jmp	 DWORD PTR [eax+20]
$L229360:

; 136  : 	}
; 137  : 	return 0;

  0000f	33 c0		 xor	 eax, eax

; 138  : }

  00011	c2 04 00	 ret	 4
?GetPlayerAddr@CDPMng@@QAEKK@Z ENDP			; CDPMng::GetPlayerAddr
_TEXT	ENDS
PUBLIC	??_C@_0BK@EPHKKBKJ@CDPMng?3?3ReceiveMessage?5?$CFd?$AA@ ; `string'
PUBLIC	?ReceiveMessage@CDPMng@@QAEHXZ			; CDPMng::ReceiveMessage
PUBLIC	??_C@_0GH@KPIEFKLO@?2Documents?5and?5Settings?2test?2Mes@ ; `string'
PUBLIC	??_C@_05DIALNFFA@?$CFs?5?$CFd?$AA@		; `string'
EXTRN	?Error@@YAPBDPBDZZ:NEAR				; Error
EXTRN	?Receive@CDPSock@@QAEPAVCBuffer@@XZ:NEAR	; CDPSock::Receive
;	COMDAT ??_C@_0GH@KPIEFKLO@?2Documents?5and?5Settings?2test?2Mes@
; File c:\documents and settings\test\mes documents\source\virtuos_v17\build\program\_network\net\include\buffer.h
CONST	SEGMENT
??_C@_0GH@KPIEFKLO@?2Documents?5and?5Settings?2test?2Mes@ DB '\Documents '
	DB	'and Settings\test\Mes documents\Source\Virtuos_v17\Build\Prog'
	DB	'ram\_Network\Net\Src\dpmng.cpp', 00H	; `string'
CONST	ENDS
;	COMDAT ??_C@_05DIALNFFA@?$CFs?5?$CFd?$AA@
CONST	SEGMENT
??_C@_05DIALNFFA@?$CFs?5?$CFd?$AA@ DB '%s %d', 00H	; `string'
CONST	ENDS
;	COMDAT ??_C@_0BK@EPHKKBKJ@CDPMng?3?3ReceiveMessage?5?$CFd?$AA@
CONST	SEGMENT
??_C@_0BK@EPHKKBKJ@CDPMng?3?3ReceiveMessage?5?$CFd?$AA@ DB 'CDPMng::Recei'
	DB	'veMessage %d', 00H				; `string'
; Function compile flags: /Ogty
; File c:\documents and settings\test\mes documents\source\virtuos_v17\build\program\_network\net\src\dpmng.cpp
CONST	ENDS
;	COMDAT ?ReceiveMessage@CDPMng@@QAEHXZ
_TEXT	SEGMENT
___loop2$229377 = -8					; size = 4
___loop$ = -4						; size = 4
?ReceiveMessage@CDPMng@@QAEHXZ PROC NEAR		; CDPMng::ReceiveMessage, COMDAT
; _this$ = ecx

; 141  : {

  00000	83 ec 08	 sub	 esp, 8
  00003	55		 push	 ebp
  00004	8b e9		 mov	 ebp, ecx

; 142  : 	if( !m_pDPSock )

  00006	8b 45 04	 mov	 eax, DWORD PTR [ebp+4]
  00009	85 c0		 test	 eax, eax
  0000b	75 07		 jne	 SHORT $L229365

; 143  : 		return FALSE;

  0000d	33 c0		 xor	 eax, eax
  0000f	5d		 pop	 ebp

; 198  : }

  00010	83 c4 08	 add	 esp, 8
  00013	c3		 ret	 0
$L229365:
  00014	53		 push	 ebx
  00015	56		 push	 esi
  00016	57		 push	 edi

; 144  : 
; 145  : 	CBuffer* pBuffer;
; 146  : 	LPBYTE ptr;
; 147  : 	u_long uDataSize;
; 148  : 
; 149  : 	INIT_LOOP;

  00017	33 ff		 xor	 edi, edi
  00019	8d a4 24 00 00
	00 00		 npad	 7
$L229371:

; 150  : 	while( 1 )	
; 151  : 	{
; 152  : 		VERIFY_LOOP( __FILE__, __LINE__ );

  00020	47		 inc	 edi
  00021	81 ff e8 03 00
	00		 cmp	 edi, 1000		; 000003e8H
  00027	89 7c 24 14	 mov	 DWORD PTR ___loop$[esp+24], edi
  0002b	75 17		 jne	 SHORT $L229373
  0002d	68 98 00 00 00	 push	 152			; 00000098H
  00032	68 00 00 00 00	 push	 OFFSET FLAT:??_C@_0GH@KPIEFKLO@?2Documents?5and?5Settings?2test?2Mes@
  00037	68 00 00 00 00	 push	 OFFSET FLAT:??_C@_05DIALNFFA@?$CFs?5?$CFd?$AA@
  0003c	e8 00 00 00 00	 call	 ?Error@@YAPBDPBDZZ	; Error
  00041	83 c4 0c	 add	 esp, 12			; 0000000cH
$L229373:

; 153  : 
; 154  : #ifdef __CRASH_0404
; 155  : 		CCrashStatus::GetInstance()->SetLastPacket( this, 0xAAAAAAAA );
; 156  : #endif	// __CRASH_0404
; 157  : 
; 158  : 		pBuffer = m_pDPSock->Receive();     

  00044	8b 4d 04	 mov	 ecx, DWORD PTR [ebp+4]
  00047	e8 00 00 00 00	 call	 ?Receive@CDPSock@@QAEPAVCBuffer@@XZ ; CDPSock::Receive
  0004c	8b f0		 mov	 esi, eax

; 159  : 		if( pBuffer == NULL )	

  0004e	85 f6		 test	 esi, esi
  00050	0f 84 a1 00 00
	00		 je	 $L231486

; 160  : 			break;
; 161  : 
; 162  : #ifdef __CRASH_0404
; 163  : 		CCrashStatus::GetInstance()->SetLastPacket( this, 0xBBBBBBBB );
; 164  : #endif	// __CRASH_0404
; 165  : 
; 166  : 		ptr	= pBuffer->m_lpBufStart;
; 167  : 		int	__loop2 = 0;		// __VERIFY_LOOP041010
; 168  : 		while( pBuffer->cb-- > 0 )

  00056	8b 4e 08	 mov	 ecx, DWORD PTR [esi+8]
  00059	8b 9e 0c 20 00
	00		 mov	 ebx, DWORD PTR [esi+8204]
  0005f	33 c0		 xor	 eax, eax
  00061	85 c9		 test	 ecx, ecx
  00063	0f 86 7e 00 00
	00		 jbe	 $L231487
  00069	eb 05		 jmp	 SHORT $L229379
$L231489:
  0006b	8b 44 24 10	 mov	 eax, DWORD PTR ___loop2$229377[esp+24]
  0006f	90		 npad	 1
$L229379:
  00070	8b 7e 08	 mov	 edi, DWORD PTR [esi+8]
  00073	4f		 dec	 edi

; 169  : 		{
; 170  : #ifdef __VERIFY_LOOP041010
; 171  : 			if( __loop2++ == 1000 )	{ Error( "CDPMng::ReceiveMessage %d", __loop2 ); }

  00074	8b c8		 mov	 ecx, eax
  00076	40		 inc	 eax
  00077	81 f9 e8 03 00
	00		 cmp	 ecx, 1000		; 000003e8H
  0007d	89 7e 08	 mov	 DWORD PTR [esi+8], edi
  00080	89 44 24 10	 mov	 DWORD PTR ___loop2$229377[esp+24], eax
  00084	75 12		 jne	 SHORT $L229381
  00086	68 e9 03 00 00	 push	 1001			; 000003e9H
  0008b	68 00 00 00 00	 push	 OFFSET FLAT:??_C@_0BK@EPHKKBKJ@CDPMng?3?3ReceiveMessage?5?$CFd?$AA@
  00090	e8 00 00 00 00	 call	 ?Error@@YAPBDPBDZZ	; Error
  00095	83 c4 08	 add	 esp, 8
$L229381:

; 172  : #endif // __VERIFY_LOOP041010
; 173  : 
; 174  : #ifdef __CRC
; 175  : 			uDataSize	= *(UNALIGNED LPDWORD)( ptr + m_pDPSock->m_dwDataSizeOffset );
; 176  : 			if( pBuffer->dpid ==DPID_SYSMSG )
; 177  : 				SysMessageHandler( (LPDPMSG_GENERIC)&ptr[m_pDPSock->m_dwReadHeaderSize], uDataSize, pBuffer->dpid );
; 178  : 			else
; 179  : 				UserMessageHandler( (LPDPMSG_GENERIC)&ptr[m_pDPSock->m_dwReadHeaderSize], uDataSize, pBuffer->dpid );
; 180  : 			ptr	+=	m_pDPSock->m_dwReadHeaderSize + uDataSize;
; 181  : #else	// __CRC			
; 182  : 			uDataSize = pBuffer->GetPacketSize( ptr );

  00098	8b 16		 mov	 edx, DWORD PTR [esi]
  0009a	53		 push	 ebx
  0009b	8b ce		 mov	 ecx, esi
  0009d	ff 52 04	 call	 DWORD PTR [edx+4]
  000a0	8b f8		 mov	 edi, eax

; 183  : 			if( pBuffer->dpid == DPID_SYSMSG )

  000a2	8b 46 04	 mov	 eax, DWORD PTR [esi+4]
  000a5	85 c0		 test	 eax, eax
  000a7	75 16		 jne	 SHORT $L229383

; 184  : 				SysMessageHandler( (LPDPMSG_GENERIC)( ptr + pBuffer->GetHeaderLength() ), uDataSize, pBuffer->dpid );

  000a9	8b 8e 24 20 00
	00		 mov	 ecx, DWORD PTR [esi+8228]
  000af	8b 45 00	 mov	 eax, DWORD PTR [ebp]
  000b2	6a 00		 push	 0
  000b4	03 cb		 add	 ecx, ebx
  000b6	57		 push	 edi
  000b7	51		 push	 ecx
  000b8	8b cd		 mov	 ecx, ebp
  000ba	ff 50 04	 call	 DWORD PTR [eax+4]

; 185  : 			else

  000bd	eb 13		 jmp	 SHORT $L229385
$L229383:

; 186  : 				UserMessageHandler( (LPDPMSG_GENERIC)( ptr + pBuffer->GetHeaderLength() ), uDataSize, pBuffer->dpid );

  000bf	8b 55 00	 mov	 edx, DWORD PTR [ebp]
  000c2	50		 push	 eax
  000c3	8b 86 24 20 00
	00		 mov	 eax, DWORD PTR [esi+8228]
  000c9	57		 push	 edi
  000ca	03 c3		 add	 eax, ebx
  000cc	50		 push	 eax
  000cd	8b cd		 mov	 ecx, ebp
  000cf	ff 52 08	 call	 DWORD PTR [edx+8]
$L229385:

; 187  : 			ptr += ( uDataSize + pBuffer->GetHeaderLength() );

  000d2	8b 8e 24 20 00
	00		 mov	 ecx, DWORD PTR [esi+8228]
  000d8	8b 46 08	 mov	 eax, DWORD PTR [esi+8]
  000db	03 cf		 add	 ecx, edi
  000dd	03 d9		 add	 ebx, ecx
  000df	85 c0		 test	 eax, eax
  000e1	77 88		 ja	 SHORT $L231489

; 160  : 			break;
; 161  : 
; 162  : #ifdef __CRASH_0404
; 163  : 		CCrashStatus::GetInstance()->SetLastPacket( this, 0xBBBBBBBB );
; 164  : #endif	// __CRASH_0404
; 165  : 
; 166  : 		ptr	= pBuffer->m_lpBufStart;
; 167  : 		int	__loop2 = 0;		// __VERIFY_LOOP041010
; 168  : 		while( pBuffer->cb-- > 0 )

  000e3	8b 7c 24 14	 mov	 edi, DWORD PTR ___loop$[esp+24]
$L231487:
  000e7	ff 4e 08	 dec	 DWORD PTR [esi+8]

; 188  : #endif
; 189  : 		}
; 190  : 		SAFE_DELETE( pBuffer );

  000ea	8b 16		 mov	 edx, DWORD PTR [esi]
  000ec	6a 01		 push	 1
  000ee	8b ce		 mov	 ecx, esi
  000f0	ff 12		 call	 DWORD PTR [edx]

; 191  : 	}

  000f2	e9 29 ff ff ff	 jmp	 $L229371
$L231486:
  000f7	5f		 pop	 edi
  000f8	5e		 pop	 esi
  000f9	5b		 pop	 ebx

; 192  : 
; 193  : #ifdef __CRASH_0404
; 194  : 	CCrashStatus::GetInstance()->SetLastPacket( this, 0xFFFFFFFF );
; 195  : #endif	// __CRASH_0404
; 196  : 
; 197  : 	return TRUE;

  000fa	b8 01 00 00 00	 mov	 eax, 1
  000ff	5d		 pop	 ebp

; 198  : }

  00100	83 c4 08	 add	 esp, 8
  00103	c3		 ret	 0
?ReceiveMessage@CDPMng@@QAEHXZ ENDP			; CDPMng::ReceiveMessage
_TEXT	ENDS
PUBLIC	?DestroyPlayer@CDPMng@@QAEHK@Z			; CDPMng::DestroyPlayer
EXTRN	?Shutdown@CDPSock@@QAEHK@Z:NEAR			; CDPSock::Shutdown
; Function compile flags: /Ogty
;	COMDAT ?DestroyPlayer@CDPMng@@QAEHK@Z
_TEXT	SEGMENT
_dpid$ = 8						; size = 4
?DestroyPlayer@CDPMng@@QAEHK@Z PROC NEAR		; CDPMng::DestroyPlayer, COMDAT
; _this$ = ecx

; 202  : 	if( m_pDPSock )

  00000	8b 49 04	 mov	 ecx, DWORD PTR [ecx+4]
  00003	85 c9		 test	 ecx, ecx
  00005	74 05		 je	 SHORT $L229395

; 203  : 	{
; 204  : 		return m_pDPSock->Shutdown( dpid );

  00007	e9 00 00 00 00	 jmp	 ?Shutdown@CDPSock@@QAEHK@Z ; CDPSock::Shutdown
$L229395:

; 205  : 	}
; 206  : 	return FALSE;

  0000c	33 c0		 xor	 eax, eax

; 207  : }

  0000e	c2 04 00	 ret	 4
?DestroyPlayer@CDPMng@@QAEHK@Z ENDP			; CDPMng::DestroyPlayer
_TEXT	ENDS
PUBLIC	?ReceiveThread@@YGIPAX@Z			; ReceiveThread
EXTRN	__imp__WaitForMultipleObjects@16:NEAR
; Function compile flags: /Ogty
;	COMDAT ?ReceiveThread@@YGIPAX@Z
_TEXT	SEGMENT
_lpHandle$ = -8						; size = 8
_lpvThreadParameter$ = 8				; size = 4
?ReceiveThread@@YGIPAX@Z PROC NEAR			; ReceiveThread, COMDAT

; 219  : {

  00000	83 ec 08	 sub	 esp, 8
  00003	56		 push	 esi

; 220  : 	CDPMng* pThis	= (CDPMng*)lpvThreadParameter;
; 221  : 	HANDLE lpHandle[2];
; 222  : 	lpHandle[0]		= pThis->GetCloseHandle();

  00004	8b 74 24 10	 mov	 esi, DWORD PTR _lpvThreadParameter$[esp+8]
  00008	8b 46 0c	 mov	 eax, DWORD PTR [esi+12]

; 223  : 	lpHandle[1]		= pThis->GetRecvHandle();

  0000b	8b 4e 04	 mov	 ecx, DWORD PTR [esi+4]
  0000e	57		 push	 edi

; 224  : 	// loop waiting for player events. If the kill event is signaled, the thread will exit
; 225  : 
; 226  : 	while( WaitForMultipleObjects( 2, lpHandle, FALSE, INFINITE ) != WAIT_OBJECT_0 )

  0000f	8b 3d 00 00 00
	00		 mov	 edi, DWORD PTR __imp__WaitForMultipleObjects@16
  00015	6a ff		 push	 -1
  00017	89 44 24 0c	 mov	 DWORD PTR _lpHandle$[esp+20], eax
  0001b	8b 51 60	 mov	 edx, DWORD PTR [ecx+96]
  0001e	6a 00		 push	 0
  00020	8d 44 24 10	 lea	 eax, DWORD PTR _lpHandle$[esp+24]
  00024	50		 push	 eax
  00025	6a 02		 push	 2
  00027	89 54 24 1c	 mov	 DWORD PTR _lpHandle$[esp+36], edx
  0002b	ff d7		 call	 edi
  0002d	85 c0		 test	 eax, eax
  0002f	74 18		 je	 SHORT $L231511
$L229403:

; 227  : 	{
; 228  : 		// receive any messages in the queue
; 229  : 		pThis->ReceiveMessage();

  00031	8b ce		 mov	 ecx, esi
  00033	e8 00 00 00 00	 call	 ?ReceiveMessage@CDPMng@@QAEHXZ ; CDPMng::ReceiveMessage
  00038	6a ff		 push	 -1
  0003a	6a 00		 push	 0
  0003c	8d 4c 24 10	 lea	 ecx, DWORD PTR _lpHandle$[esp+24]
  00040	51		 push	 ecx
  00041	6a 02		 push	 2
  00043	ff d7		 call	 edi
  00045	85 c0		 test	 eax, eax
  00047	75 e8		 jne	 SHORT $L229403
$L231511:
  00049	5f		 pop	 edi

; 230  : 	}
; 231  : 	return( 0 );

  0004a	33 c0		 xor	 eax, eax
  0004c	5e		 pop	 esi

; 232  : }

  0004d	83 c4 08	 add	 esp, 8
  00050	c2 04 00	 ret	 4
?ReceiveThread@@YGIPAX@Z ENDP				; ReceiveThread
_TEXT	ENDS
PUBLIC	?InitializeNetLib@@YAHXZ			; InitializeNetLib
EXTRN	___security_cookie:DWORD
EXTRN	@__security_check_cookie@4:NEAR
EXTRN	__imp__WSAStartup@8:NEAR
; Function compile flags: /Ogty
;	COMDAT ?InitializeNetLib@@YAHXZ
_TEXT	SEGMENT
_wsaData$ = -404					; size = 400
__$ArrayPad$ = -4					; size = 4
__$ReturnAddr$ = 4					; size = 4
?InitializeNetLib@@YAHXZ PROC NEAR			; InitializeNetLib, COMDAT

; 235  : {

  00000	81 ec 94 01 00
	00		 sub	 esp, 404		; 00000194H
  00006	a1 00 00 00 00	 mov	 eax, DWORD PTR ___security_cookie
  0000b	33 c4		 xor	 eax, esp
  0000d	89 84 24 90 01
	00 00		 mov	 DWORD PTR __$ArrayPad$[esp+404], eax

; 236  : 	LOAD_WS2_32_DLL;

  00014	8d 04 24	 lea	 eax, DWORD PTR _wsaData$[esp+404]
  00017	50		 push	 eax
  00018	68 02 02 00 00	 push	 514			; 00000202H
  0001d	ff 15 00 00 00
	00		 call	 DWORD PTR __imp__WSAStartup@8
  00023	33 c9		 xor	 ecx, ecx
  00025	83 f8 ff	 cmp	 eax, -1
  00028	0f 95 c1	 setne	 cl
  0002b	8b c1		 mov	 eax, ecx

; 237  : 	return TRUE;
; 238  : }

  0002d	8b 8c 24 90 01
	00 00		 mov	 ecx, DWORD PTR __$ArrayPad$[esp+404]
  00034	33 cc		 xor	 ecx, esp
  00036	e8 00 00 00 00	 call	 @__security_check_cookie@4
  0003b	81 c4 94 01 00
	00		 add	 esp, 404		; 00000194H
  00041	c3		 ret	 0
?InitializeNetLib@@YAHXZ ENDP				; InitializeNetLib
_TEXT	ENDS
PUBLIC	?UninitializeNetLib@@YAXXZ			; UninitializeNetLib
EXTRN	__imp__WSACleanup@0:NEAR
EXTRN	?m_pHeapMng@CAr@@2PAVCHeapMng@@A:DWORD		; CAr::m_pHeapMng
EXTRN	?m_pHeapMng@CBuffer@@2PAVCHeapMng@@A:DWORD	; CBuffer::m_pHeapMng
; Function compile flags: /Ogty
;	COMDAT ?UninitializeNetLib@@YAXXZ
_TEXT	SEGMENT
?UninitializeNetLib@@YAXXZ PROC NEAR			; UninitializeNetLib, COMDAT

; 242  : 	SAFE_DELETE( CAr::m_pHeapMng );

  00000	8b 0d 00 00 00
	00		 mov	 ecx, DWORD PTR ?m_pHeapMng@CAr@@2PAVCHeapMng@@A ; CAr::m_pHeapMng
  00006	85 c9		 test	 ecx, ecx
  00008	74 10		 je	 SHORT $L229413
  0000a	8b 01		 mov	 eax, DWORD PTR [ecx]
  0000c	6a 01		 push	 1
  0000e	ff 10		 call	 DWORD PTR [eax]
  00010	c7 05 00 00 00
	00 00 00 00 00	 mov	 DWORD PTR ?m_pHeapMng@CAr@@2PAVCHeapMng@@A, 0 ; CAr::m_pHeapMng
$L229413:

; 243  : #ifndef __VM_0820
; 244  : #ifndef __MEM_TRACE
; 245  : 	SAFE_DELETE( CClientSock::m_pPool );
; 246  : 	SAFE_DELETE( CClientSockE::m_pPool );
; 247  : 	SAFE_DELETE( CBuffer::m_pPool );
; 248  : 	SAFE_DELETE( CBuffer2::m_pPool2 );	
; 249  : #endif	// __MEM_TRACE
; 250  : #endif	// __VM_0820
; 251  : 	SAFE_DELETE( CBuffer::m_pHeapMng );

  0001a	8b 0d 00 00 00
	00		 mov	 ecx, DWORD PTR ?m_pHeapMng@CBuffer@@2PAVCHeapMng@@A ; CBuffer::m_pHeapMng
  00020	85 c9		 test	 ecx, ecx
  00022	74 10		 je	 SHORT $L229417
  00024	8b 11		 mov	 edx, DWORD PTR [ecx]
  00026	6a 01		 push	 1
  00028	ff 12		 call	 DWORD PTR [edx]
  0002a	c7 05 00 00 00
	00 00 00 00 00	 mov	 DWORD PTR ?m_pHeapMng@CBuffer@@2PAVCHeapMng@@A, 0 ; CBuffer::m_pHeapMng
$L229417:

; 252  : 
; 253  : 	UNLOAD_WS2_32_DLL;

  00034	ff 25 00 00 00
	00		 jmp	 DWORD PTR __imp__WSACleanup@0
?UninitializeNetLib@@YAXXZ ENDP				; UninitializeNetLib
_TEXT	ENDS
PUBLIC	?TestNetLib@@YAXPBDG@Z				; TestNetLib
EXTRN	__imp__closesocket@4:NEAR
EXTRN	__imp__connect@12:NEAR
EXTRN	__imp__htons@4:NEAR
EXTRN	__imp__inet_addr@4:NEAR
EXTRN	__imp__socket@12:NEAR
EXTRN	__imp__gethostbyname@4:NEAR
; Function compile flags: /Ogty
;	COMDAT ?TestNetLib@@YAXPBDG@Z
_TEXT	SEGMENT
_server$ = -20						; size = 16
__$ArrayPad$ = -4					; size = 4
__$ReturnAddr$ = 4					; size = 4
_lpAddr$ = 8						; size = 4
_uPort$ = 12						; size = 2
?TestNetLib@@YAXPBDG@Z PROC NEAR			; TestNetLib, COMDAT

; 257  : {

  00000	83 ec 14	 sub	 esp, 20			; 00000014H
  00003	a1 00 00 00 00	 mov	 eax, DWORD PTR ___security_cookie
  00008	33 c4		 xor	 eax, esp
  0000a	53		 push	 ebx
  0000b	56		 push	 esi
  0000c	8b 74 24 20	 mov	 esi, DWORD PTR _lpAddr$[esp+24]

; 258  : 	struct sockaddr_in server;
; 259  : 	struct hostent* host	= NULL;
; 260  : 	SOCKET s	= socket( AF_INET, SOCK_STREAM, IPPROTO_TCP );

  00010	6a 06		 push	 6
  00012	6a 01		 push	 1
  00014	6a 02		 push	 2
  00016	89 44 24 24	 mov	 DWORD PTR __$ArrayPad$[esp+40], eax
  0001a	ff 15 00 00 00
	00		 call	 DWORD PTR __imp__socket@12
  00020	8b d8		 mov	 ebx, eax

; 261  : 	if( s == INVALID_SOCKET )

  00022	83 fb ff	 cmp	 ebx, -1
  00025	74 64		 je	 SHORT $L229424

; 262  : 		return;
; 263  : 	server.sin_family	= AF_INET;
; 264  : 	server.sin_port		= htons( uPort );

  00027	8b 44 24 24	 mov	 eax, DWORD PTR _uPort$[esp+24]
  0002b	50		 push	 eax
  0002c	66 c7 44 24 0c
	02 00		 mov	 WORD PTR _server$[esp+32], 2
  00033	ff 15 00 00 00
	00		 call	 DWORD PTR __imp__htons@4

; 265  : 	server.sin_addr.s_addr	= inet_addr( lpAddr );

  00039	56		 push	 esi
  0003a	66 89 44 24 0e	 mov	 WORD PTR _server$[esp+34], ax
  0003f	ff 15 00 00 00
	00		 call	 DWORD PTR __imp__inet_addr@4

; 266  : 	if( server.sin_addr.s_addr == INADDR_NONE )

  00045	83 f8 ff	 cmp	 eax, -1
  00048	89 44 24 0c	 mov	 DWORD PTR _server$[esp+32], eax
  0004c	75 28		 jne	 SHORT $L229430

; 267  : 	{
; 268  : 		host	= gethostbyname( lpAddr );

  0004e	56		 push	 esi
  0004f	ff 15 00 00 00
	00		 call	 DWORD PTR __imp__gethostbyname@4

; 269  : 		if( host == NULL )

  00055	85 c0		 test	 eax, eax
  00057	74 32		 je	 SHORT $L229424

; 270  : 			return;
; 271  : 		CopyMemory( &server.sin_addr, host->h_addr_list[0],
; 272  : 			host->h_length );

  00059	0f bf 48 0a	 movsx	 ecx, WORD PTR [eax+10]
  0005d	8b 50 0c	 mov	 edx, DWORD PTR [eax+12]
  00060	8b 32		 mov	 esi, DWORD PTR [edx]
  00062	8b c1		 mov	 eax, ecx
  00064	57		 push	 edi
  00065	c1 e9 02	 shr	 ecx, 2
  00068	8d 7c 24 10	 lea	 edi, DWORD PTR _server$[esp+36]
  0006c	f3 a5		 rep movsd
  0006e	8b c8		 mov	 ecx, eax
  00070	83 e1 03	 and	 ecx, 3
  00073	f3 a4		 rep movsb
  00075	5f		 pop	 edi
$L229430:

; 273  : 	}
; 274  : 	connect( s, (struct sockaddr *)&server, sizeof(server) );

  00076	6a 10		 push	 16			; 00000010H
  00078	8d 4c 24 0c	 lea	 ecx, DWORD PTR _server$[esp+32]
  0007c	51		 push	 ecx
  0007d	53		 push	 ebx
  0007e	ff 15 00 00 00
	00		 call	 DWORD PTR __imp__connect@12

; 275  : 	closesocket( s );

  00084	53		 push	 ebx
  00085	ff 15 00 00 00
	00		 call	 DWORD PTR __imp__closesocket@4
$L229424:

; 276  : }

  0008b	8b 4c 24 18	 mov	 ecx, DWORD PTR __$ArrayPad$[esp+28]
  0008f	5e		 pop	 esi
  00090	5b		 pop	 ebx
  00091	33 cc		 xor	 ecx, esp
  00093	e8 00 00 00 00	 call	 @__security_check_cookie@4
  00098	83 c4 14	 add	 esp, 20			; 00000014H
  0009b	c3		 ret	 0
?TestNetLib@@YAXPBDG@Z ENDP				; TestNetLib
_TEXT	ENDS
PUBLIC	?chWindows9x@@YAHXZ				; chWindows9x
EXTRN	__imp__GetVersionExA@4:NEAR
; Function compile flags: /Ogty
; File c:\documents and settings\test\mes documents\source\virtuos_v17\build\program\_network\cmnhdr.h
;	COMDAT ?chWindows9x@@YAHXZ
_TEXT	SEGMENT
_vi$ = -160						; size = 148
__$ArrayPad$ = -4					; size = 4
__$ReturnAddr$ = 4					; size = 4
?chWindows9x@@YAHXZ PROC NEAR				; chWindows9x, COMDAT

; 234  : {

  00000	55		 push	 ebp
  00001	8b ec		 mov	 ebp, esp
  00003	83 e4 f8	 and	 esp, -8			; fffffff8H
  00006	81 ec a4 00 00
	00		 sub	 esp, 164		; 000000a4H
  0000c	a1 00 00 00 00	 mov	 eax, DWORD PTR ___security_cookie
  00011	33 c5		 xor	 eax, ebp
  00013	89 84 24 a0 00
	00 00		 mov	 DWORD PTR __$ArrayPad$[esp+164], eax
  0001a	57		 push	 edi

; 235  : 	OSVERSIONINFO vi	= { sizeof(vi) };

  0001b	33 c0		 xor	 eax, eax
  0001d	c7 44 24 08 94
	00 00 00	 mov	 DWORD PTR _vi$[esp+168], 148 ; 00000094H
  00025	b9 24 00 00 00	 mov	 ecx, 36			; 00000024H
  0002a	8d 7c 24 0c	 lea	 edi, DWORD PTR _vi$[esp+172]
  0002e	f3 ab		 rep stosd

; 236  : 	GetVersionEx( &vi );

  00030	8d 44 24 08	 lea	 eax, DWORD PTR _vi$[esp+168]
  00034	50		 push	 eax
  00035	ff 15 00 00 00
	00		 call	 DWORD PTR __imp__GetVersionExA@4

; 237  : 	return( vi.dwPlatformId != VER_PLATFORM_WIN32_NT );

  0003b	8b 4c 24 18	 mov	 ecx, DWORD PTR _vi$[esp+184]
  0003f	33 c0		 xor	 eax, eax
  00041	83 f9 02	 cmp	 ecx, 2

; 238  : }

  00044	8b 8c 24 a4 00
	00 00		 mov	 ecx, DWORD PTR __$ArrayPad$[esp+168]
  0004b	0f 95 c0	 setne	 al
  0004e	33 cd		 xor	 ecx, ebp
  00050	5f		 pop	 edi
  00051	e8 00 00 00 00	 call	 @__security_check_cookie@4
  00056	8b e5		 mov	 esp, ebp
  00058	5d		 pop	 ebp
  00059	c3		 ret	 0
?chWindows9x@@YAHXZ ENDP				; chWindows9x
_TEXT	ENDS
EXTRN	??3@YAXPAX@Z:NEAR				; operator delete
; Function compile flags: /Ogty
;	COMDAT ??_GCDPMng@@UAEPAXI@Z
_TEXT	SEGMENT
___flags$ = 8						; size = 4
??_GCDPMng@@UAEPAXI@Z PROC NEAR				; CDPMng::`scalar deleting destructor', COMDAT
; _this$ = ecx
  00000	f6 44 24 04 01	 test	 BYTE PTR ___flags$[esp-4], 1
  00005	56		 push	 esi
  00006	8b f1		 mov	 esi, ecx
  00008	c7 06 00 00 00
	00		 mov	 DWORD PTR [esi], OFFSET FLAT:??_7CDPMng@@6B@
  0000e	74 09		 je	 SHORT $L231546
  00010	56		 push	 esi
  00011	e8 00 00 00 00	 call	 ??3@YAXPAX@Z		; operator delete
  00016	83 c4 04	 add	 esp, 4
$L231546:
  00019	8b c6		 mov	 eax, esi
  0001b	5e		 pop	 esi
  0001c	c2 04 00	 ret	 4
??_GCDPMng@@UAEPAXI@Z ENDP				; CDPMng::`scalar deleting destructor'
_TEXT	ENDS
PUBLIC	?CreateDPObject@CDPMng@@QAEHH@Z			; CDPMng::CreateDPObject
EXTRN	??2@YAPAXI@Z:NEAR				; operator new
EXTRN	__except_list:DWORD
EXTRN	__beginthreadex:NEAR
EXTRN	___CxxFrameHandler:NEAR
EXTRN	??0CDPSock@@QAE@XZ:NEAR				; CDPSock::CDPSock
EXTRN	__imp__CreateEventA@16:NEAR
EXTRN	__imp__SetThreadPriority@8:NEAR
;	COMDAT xdata$x
; File c:\documents and settings\test\mes documents\source\virtuos_v17\build\program\_network\net\src\dpmng.cpp
xdata$x	SEGMENT
$T231563 DD	0ffffffffH
	DD	FLAT:$L231554
$T231558 DD	019930520H
	DD	01H
	DD	FLAT:$T231563
	DD	2 DUP(00H)
	DD	2 DUP(00H)
; Function compile flags: /Ogty
xdata$x	ENDS
;	COMDAT ?CreateDPObject@CDPMng@@QAEHH@Z
_TEXT	SEGMENT
$T231551 = -16						; size = 4
__$EHRec$ = -12						; size = 12
_dwThreadId$229301 = 8					; size = 4
_bSingleThreaded$ = 8					; size = 4
?CreateDPObject@CDPMng@@QAEHH@Z PROC NEAR		; CDPMng::CreateDPObject, COMDAT
; _this$ = ecx

; 39   : {

  00000	6a ff		 push	 -1
  00002	68 00 00 00 00	 push	 __ehhandler$?CreateDPObject@CDPMng@@QAEHH@Z
  00007	64 a1 00 00 00
	00		 mov	 eax, DWORD PTR fs:__except_list
  0000d	50		 push	 eax
  0000e	64 89 25 00 00
	00 00		 mov	 DWORD PTR fs:__except_list, esp
  00015	51		 push	 ecx
  00016	56		 push	 esi
  00017	8b f1		 mov	 esi, ecx

; 40   : 	DeleteDPObject();

  00019	e8 00 00 00 00	 call	 ?DeleteDPObject@CDPMng@@QAEHXZ ; CDPMng::DeleteDPObject

; 41   : 	if( !m_pDPSock )

  0001e	8b 46 04	 mov	 eax, DWORD PTR [esi+4]
  00021	85 c0		 test	 eax, eax
  00023	75 2b		 jne	 SHORT $L229292

; 42   : 		m_pDPSock	= new CDPSock;

  00025	68 9c 00 00 00	 push	 156			; 0000009cH
  0002a	e8 00 00 00 00	 call	 ??2@YAPAXI@Z		; operator new
  0002f	83 c4 04	 add	 esp, 4
  00032	89 44 24 04	 mov	 DWORD PTR $T231551[esp+20], eax
  00036	85 c0		 test	 eax, eax
  00038	c7 44 24 10 00
	00 00 00	 mov	 DWORD PTR __$EHRec$[esp+28], 0
  00040	74 09		 je	 SHORT $L231552
  00042	8b c8		 mov	 ecx, eax
  00044	e8 00 00 00 00	 call	 ??0CDPSock@@QAE@XZ	; CDPSock::CDPSock
  00049	eb 02		 jmp	 SHORT $L231553
$L231552:
  0004b	33 c0		 xor	 eax, eax
$L231553:
  0004d	89 46 04	 mov	 DWORD PTR [esi+4], eax
$L229292:

; 43   : 	if( !bSingleThreaded )

  00050	8b 44 24 18	 mov	 eax, DWORD PTR _bSingleThreaded$[esp+16]
  00054	85 c0		 test	 eax, eax
  00056	75 44		 jne	 SHORT $L231560

; 44   : 	{
; 45   : 		// Create event used to signal that the receive thread should exit
; 46   : 		if( !m_hClose )

  00058	8b 46 0c	 mov	 eax, DWORD PTR [esi+12]
  0005b	85 c0		 test	 eax, eax
  0005d	75 11		 jne	 SHORT $L229298

; 47   : 		{
; 48   : 			m_hClose	= CreateEvent( NULL, FALSE, FALSE, NULL );

  0005f	6a 00		 push	 0
  00061	6a 00		 push	 0
  00063	6a 00		 push	 0
  00065	6a 00		 push	 0
  00067	ff 15 00 00 00
	00		 call	 DWORD PTR __imp__CreateEventA@16
  0006d	89 46 0c	 mov	 DWORD PTR [esi+12], eax
$L229298:

; 49   : 			ASSERT( m_hClose );			
; 50   : 		}
; 51   : 		// Create thread to receive player messages
; 52   : 		if( !m_hRecvThread )

  00070	8b 46 08	 mov	 eax, DWORD PTR [esi+8]
  00073	85 c0		 test	 eax, eax
  00075	75 25		 jne	 SHORT $L231560

; 53   : 		{
; 54   : 			DWORD dwThreadId;
; 55   : 			m_hRecvThread	= chBEGINTHREADEX( NULL, 0, ReceiveThread, this, 0, &dwThreadId );

  00077	8d 44 24 18	 lea	 eax, DWORD PTR _dwThreadId$229301[esp+16]
  0007b	50		 push	 eax
  0007c	6a 00		 push	 0
  0007e	56		 push	 esi
  0007f	68 00 00 00 00	 push	 OFFSET FLAT:?ReceiveThread@@YGIPAX@Z ; ReceiveThread
  00084	6a 00		 push	 0
  00086	6a 00		 push	 0
  00088	e8 00 00 00 00	 call	 __beginthreadex
  0008d	83 c4 18	 add	 esp, 24			; 00000018H

; 56   : 			ASSERT( m_hRecvThread );
; 57   : 			SetThreadPriority( m_hRecvThread, THREAD_PRIORITY_ABOVE_NORMAL );

  00090	6a 01		 push	 1
  00092	50		 push	 eax
  00093	89 46 08	 mov	 DWORD PTR [esi+8], eax
  00096	ff 15 00 00 00
	00		 call	 DWORD PTR __imp__SetThreadPriority@8
$L231560:

; 58   : 		}
; 59   : 	}
; 60   : 	return TRUE;
; 61   : }

  0009c	8b 4c 24 08	 mov	 ecx, DWORD PTR __$EHRec$[esp+20]
  000a0	b8 01 00 00 00	 mov	 eax, 1
  000a5	5e		 pop	 esi
  000a6	64 89 0d 00 00
	00 00		 mov	 DWORD PTR fs:__except_list, ecx
  000ad	83 c4 10	 add	 esp, 16			; 00000010H
  000b0	c2 04 00	 ret	 4
_TEXT	ENDS
;	COMDAT text$x
text$x	SEGMENT
$L231554:
  00000	8b 45 f0	 mov	 eax, DWORD PTR $T231551[ebp]
  00003	50		 push	 eax
  00004	e8 00 00 00 00	 call	 ??3@YAXPAX@Z		; operator delete
  00009	59		 pop	 ecx
  0000a	c3		 ret	 0
__ehhandler$?CreateDPObject@CDPMng@@QAEHH@Z:
  0000b	b8 00 00 00 00	 mov	 eax, OFFSET FLAT:$T231558
  00010	e9 00 00 00 00	 jmp	 ___CxxFrameHandler
text$x	ENDS
?CreateDPObject@CDPMng@@QAEHH@Z ENDP			; CDPMng::CreateDPObject
PUBLIC	?CreateSession@CDPMng@@QAEHPBDW4BUFFER_TYPE@@@Z	; CDPMng::CreateSession
EXTRN	?CreateServer@CDPSock@@QAEHW4BUFFER_TYPE@@@Z:NEAR ; CDPSock::CreateServer
EXTRN	?CreateServerE@CDPSock@@QAEHW4BUFFER_TYPE@@@Z:NEAR ; CDPSock::CreateServerE
; Function compile flags: /Ogty
;	COMDAT ?CreateSession@CDPMng@@QAEHPBDW4BUFFER_TYPE@@@Z
_TEXT	SEGMENT
_lpSession$ = 8						; size = 4
_nBufferType$ = 12					; size = 4
?CreateSession@CDPMng@@QAEHPBDW4BUFFER_TYPE@@@Z PROC NEAR ; CDPMng::CreateSession, COMDAT
; _this$ = ecx

; 85   : {

  00000	56		 push	 esi
  00001	8b f1		 mov	 esi, ecx

; 86   : 	if( ( chWindows9x()? m_pDPSock->CreateServerE( nBufferType ): m_pDPSock->CreateServer( nBufferType ) ) )

  00003	e8 00 00 00 00	 call	 ?chWindows9x@@YAHXZ	; chWindows9x
  00008	85 c0		 test	 eax, eax
  0000a	74 1a		 je	 SHORT $L231570
  0000c	8b 44 24 0c	 mov	 eax, DWORD PTR _nBufferType$[esp]
  00010	8b 4e 04	 mov	 ecx, DWORD PTR [esi+4]
  00013	50		 push	 eax
  00014	e8 00 00 00 00	 call	 ?CreateServerE@CDPSock@@QAEHW4BUFFER_TYPE@@@Z ; CDPSock::CreateServerE
  00019	33 d2		 xor	 edx, edx
  0001b	85 c0		 test	 eax, eax
  0001d	0f 95 c2	 setne	 dl
  00020	5e		 pop	 esi
  00021	8b c2		 mov	 eax, edx

; 87   : #endif	// __CRC
; 88   : 	{
; 89   : 		TRACE( "%s server launched.\n", lpSession );
; 90   : 		return TRUE;
; 91   : 	}
; 92   : 	TRACE( "%s server launching failed.\n", lpSession );
; 93   : 	return FALSE;
; 94   : }

  00023	c2 08 00	 ret	 8
$L231570:

; 86   : 	if( ( chWindows9x()? m_pDPSock->CreateServerE( nBufferType ): m_pDPSock->CreateServer( nBufferType ) ) )

  00026	8b 4c 24 0c	 mov	 ecx, DWORD PTR _nBufferType$[esp]
  0002a	51		 push	 ecx
  0002b	8b 4e 04	 mov	 ecx, DWORD PTR [esi+4]
  0002e	e8 00 00 00 00	 call	 ?CreateServer@CDPSock@@QAEHW4BUFFER_TYPE@@@Z ; CDPSock::CreateServer
  00033	33 d2		 xor	 edx, edx
  00035	85 c0		 test	 eax, eax
  00037	0f 95 c2	 setne	 dl
  0003a	5e		 pop	 esi
  0003b	8b c2		 mov	 eax, edx

; 87   : #endif	// __CRC
; 88   : 	{
; 89   : 		TRACE( "%s server launched.\n", lpSession );
; 90   : 		return TRUE;
; 91   : 	}
; 92   : 	TRACE( "%s server launching failed.\n", lpSession );
; 93   : 	return FALSE;
; 94   : }

  0003d	c2 08 00	 ret	 8
?CreateSession@CDPMng@@QAEHPBDW4BUFFER_TYPE@@@Z ENDP	; CDPMng::CreateSession
_TEXT	ENDS
PUBLIC	?JoinSession@CDPMng@@QAEHPBDW4BUFFER_TYPE@@@Z	; CDPMng::JoinSession
EXTRN	?JoinToServer@CDPSock@@QAEHW4BUFFER_TYPE@@@Z:NEAR ; CDPSock::JoinToServer
EXTRN	?JoinToServerE@CDPSock@@QAEHW4BUFFER_TYPE@@@Z:NEAR ; CDPSock::JoinToServerE
; Function compile flags: /Ogty
;	COMDAT ?JoinSession@CDPMng@@QAEHPBDW4BUFFER_TYPE@@@Z
_TEXT	SEGMENT
_lpSession$ = 8						; size = 4
_nBufferType$ = 12					; size = 4
?JoinSession@CDPMng@@QAEHPBDW4BUFFER_TYPE@@@Z PROC NEAR	; CDPMng::JoinSession, COMDAT
; _this$ = ecx

; 102  : {

  00000	56		 push	 esi
  00001	8b f1		 mov	 esi, ecx

; 103  : 	if( ( chWindows9x()? m_pDPSock->JoinToServerE( nBufferType ): m_pDPSock->JoinToServer( nBufferType ) ) )

  00003	e8 00 00 00 00	 call	 ?chWindows9x@@YAHXZ	; chWindows9x
  00008	85 c0		 test	 eax, eax
  0000a	74 1a		 je	 SHORT $L231575
  0000c	8b 44 24 0c	 mov	 eax, DWORD PTR _nBufferType$[esp]
  00010	8b 4e 04	 mov	 ecx, DWORD PTR [esi+4]
  00013	50		 push	 eax
  00014	e8 00 00 00 00	 call	 ?JoinToServerE@CDPSock@@QAEHW4BUFFER_TYPE@@@Z ; CDPSock::JoinToServerE
  00019	33 d2		 xor	 edx, edx
  0001b	85 c0		 test	 eax, eax
  0001d	0f 95 c2	 setne	 dl
  00020	5e		 pop	 esi
  00021	8b c2		 mov	 eax, edx

; 104  : #endif	// __CRC
; 105  : 	{
; 106  : 		TRACE( "%s server connected.\n", lpSession );
; 107  : 		return TRUE;
; 108  : 	}
; 109  : 	TRACE( "%s server connection failed.\n", lpSession );
; 110  : 	return FALSE;
; 111  : }

  00023	c2 08 00	 ret	 8
$L231575:

; 103  : 	if( ( chWindows9x()? m_pDPSock->JoinToServerE( nBufferType ): m_pDPSock->JoinToServer( nBufferType ) ) )

  00026	8b 4c 24 0c	 mov	 ecx, DWORD PTR _nBufferType$[esp]
  0002a	51		 push	 ecx
  0002b	8b 4e 04	 mov	 ecx, DWORD PTR [esi+4]
  0002e	e8 00 00 00 00	 call	 ?JoinToServer@CDPSock@@QAEHW4BUFFER_TYPE@@@Z ; CDPSock::JoinToServer
  00033	33 d2		 xor	 edx, edx
  00035	85 c0		 test	 eax, eax
  00037	0f 95 c2	 setne	 dl
  0003a	5e		 pop	 esi
  0003b	8b c2		 mov	 eax, edx

; 104  : #endif	// __CRC
; 105  : 	{
; 106  : 		TRACE( "%s server connected.\n", lpSession );
; 107  : 		return TRUE;
; 108  : 	}
; 109  : 	TRACE( "%s server connection failed.\n", lpSession );
; 110  : 	return FALSE;
; 111  : }

  0003d	c2 08 00	 ret	 8
?JoinSession@CDPMng@@QAEHPBDW4BUFFER_TYPE@@@Z ENDP	; CDPMng::JoinSession
_TEXT	ENDS
END
