; Listing generated by Microsoft (R) Optimizing Compiler Version 13.10.6030 

	TITLE	\Documents and Settings\test\Mes documents\Source\Virtuos_v17\Build\Program\_Network\Net\Src\dpsock.cpp
	.386P
include listing.inc
if @Version gt 510
.model FLAT
else
_TEXT	SEGMENT PARA USE32 PUBLIC 'CODE'
_TEXT	ENDS
_DATA	SEGMENT DWORD USE32 PUBLIC 'DATA'
_DATA	ENDS
CONST	SEGMENT DWORD USE32 PUBLIC 'CONST'
CONST	ENDS
_BSS	SEGMENT DWORD USE32 PUBLIC 'BSS'
_BSS	ENDS
$$SYMBOLS	SEGMENT BYTE USE32 'DEBSYM'
$$SYMBOLS	ENDS
$$TYPES	SEGMENT BYTE USE32 'DEBTYP'
$$TYPES	ENDS
_TLS	SEGMENT DWORD USE32 PUBLIC 'TLS'
_TLS	ENDS
;	COMDAT ??_C@_0GI@OCPECBBP@?2Documents?5and?5Settings?2test?2Mes@
CONST	SEGMENT DWORD USE32 PUBLIC 'CONST'
CONST	ENDS
;	COMDAT ??_C@_05DIALNFFA@?$CFs?5?$CFd?$AA@
CONST	SEGMENT DWORD USE32 PUBLIC 'CONST'
CONST	ENDS
;	COMDAT ??_C@_0BB@MOGOBHAF@list?$DMT?$DO?5too?5long?$AA@
CONST	SEGMENT DWORD USE32 PUBLIC 'CONST'
CONST	ENDS
xdata$x	SEGMENT DWORD USE32 PUBLIC 'CONST'
xdata$x	ENDS
text$AFX_COL1	SEGMENT PARA USE32 PUBLIC ''
text$AFX_COL1	ENDS
;	COMDAT ?GetHandle@CSock@@QAEIXZ
_TEXT	SEGMENT PARA USE32 PUBLIC 'CODE'
_TEXT	ENDS
;	COMDAT ?SetID@CSock@@QAEXK@Z
_TEXT	SEGMENT PARA USE32 PUBLIC 'CODE'
_TEXT	ENDS
;	COMDAT ?GetID@CSock@@QAEKXZ
_TEXT	SEGMENT PARA USE32 PUBLIC 'CODE'
_TEXT	ENDS
;	COMDAT ?SetPeerID@CSock@@QAEXK@Z
_TEXT	SEGMENT PARA USE32 PUBLIC 'CODE'
_TEXT	ENDS
;	COMDAT ?GetPacketSize@CBuffer2@@UAEKPAE@Z
_TEXT	SEGMENT PARA USE32 PUBLIC 'CODE'
_TEXT	ENDS
;	COMDAT ?SetHeader@CBuffer2@@UAEXK@Z
_TEXT	SEGMENT PARA USE32 PUBLIC 'CODE'
_TEXT	ENDS
;	COMDAT ??_GCBuffer2@@UAEPAXI@Z
_TEXT	SEGMENT PARA USE32 PUBLIC 'CODE'
_TEXT	ENDS
;	COMDAT ??1CBuffer2@@UAE@XZ
_TEXT	SEGMENT PARA USE32 PUBLIC 'CODE'
_TEXT	ENDS
;	COMDAT ?GetHead@CBufferQueue@@QAEPAVCBuffer@@XZ
_TEXT	SEGMENT PARA USE32 PUBLIC 'CODE'
_TEXT	ENDS
;	COMDAT ?IsEmpty@CBufferQueue@@QAEHXZ
_TEXT	SEGMENT PARA USE32 PUBLIC 'CODE'
_TEXT	ENDS
;	COMDAT ?AddTail@CBufferQueue@@QAEXPAVCBuffer@@@Z
_TEXT	SEGMENT PARA USE32 PUBLIC 'CODE'
_TEXT	ENDS
;	COMDAT ?RemoveHead@CBufferQueue@@QAEXXZ
_TEXT	SEGMENT PARA USE32 PUBLIC 'CODE'
_TEXT	ENDS
;	COMDAT ??1CMapChild@@UAE@XZ
_TEXT	SEGMENT PARA USE32 PUBLIC 'CODE'
_TEXT	ENDS
;	COMDAT ??_GCMapChild@@UAEPAXI@Z
_TEXT	SEGMENT PARA USE32 PUBLIC 'CODE'
_TEXT	ENDS
;	COMDAT ??1?$map@KPAVCClientSock@@U?$less@K@std@@V?$allocator@U?$pair@$$CBKPAVCClientSock@@@std@@@3@@std@@QAE@XZ
_TEXT	SEGMENT PARA USE32 PUBLIC 'CODE'
_TEXT	ENDS
;	COMDAT ?GetRecvEvent@CClientSockE@@QAEPAXXZ
_TEXT	SEGMENT PARA USE32 PUBLIC 'CODE'
_TEXT	ENDS
;	COMDAT ?GetSendEvent@CClientSockE@@QAEPAXXZ
_TEXT	SEGMENT PARA USE32 PUBLIC 'CODE'
_TEXT	ENDS
;	COMDAT ??1CMapChildE@@UAE@XZ
_TEXT	SEGMENT PARA USE32 PUBLIC 'CODE'
_TEXT	ENDS
;	COMDAT ??_GCMapChildE@@UAEPAXI@Z
_TEXT	SEGMENT PARA USE32 PUBLIC 'CODE'
_TEXT	ENDS
;	COMDAT ??1?$map@KPAVCClientSockE@@U?$less@K@std@@V?$allocator@U?$pair@$$CBKPAVCClientSockE@@@std@@@3@@std@@QAE@XZ
_TEXT	SEGMENT PARA USE32 PUBLIC 'CODE'
_TEXT	ENDS
;	COMDAT ?GetServerSock@CDPSock@@QAEPAVCSock@@XZ
_TEXT	SEGMENT PARA USE32 PUBLIC 'CODE'
_TEXT	ENDS
;	COMDAT ?GetCompletionPort@CDPSock@@QAEPAXH@Z
_TEXT	SEGMENT PARA USE32 PUBLIC 'CODE'
_TEXT	ENDS
;	COMDAT ?GetCloseHandle@CDPSock@@QAEPAXXZ
_TEXT	SEGMENT PARA USE32 PUBLIC 'CODE'
_TEXT	ENDS
;	COMDAT ?GetRecvHandle@CDPSock@@QAEPAXXZ
_TEXT	SEGMENT PARA USE32 PUBLIC 'CODE'
_TEXT	ENDS
;	COMDAT ?GetIoWorkerCount@CDPSock@@QAEHXZ
_TEXT	SEGMENT PARA USE32 PUBLIC 'CODE'
_TEXT	ENDS
;	COMDAT ?GetSockThreaded@CDPSock@@QAEPAVCSock@@XZ
_TEXT	SEGMENT PARA USE32 PUBLIC 'CODE'
_TEXT	ENDS
;	COMDAT ?Get@CDPSock@@QAEPAVCClientSock@@I@Z
_TEXT	SEGMENT PARA USE32 PUBLIC 'CODE'
_TEXT	ENDS
;	COMDAT ??0CDPSock@@QAE@XZ
_TEXT	SEGMENT PARA USE32 PUBLIC 'CODE'
_TEXT	ENDS
;	COMDAT ??_GCDPSock@@UAEPAXI@Z
_TEXT	SEGMENT PARA USE32 PUBLIC 'CODE'
_TEXT	ENDS
;	COMDAT ??1CDPSock@@UAE@XZ
_TEXT	SEGMENT PARA USE32 PUBLIC 'CODE'
_TEXT	ENDS
;	COMDAT ?Close@CDPSock@@QAEHXZ
_TEXT	SEGMENT PARA USE32 PUBLIC 'CODE'
_TEXT	ENDS
;	COMDAT ?InitializeConnection@CDPSock@@QAEHPAXK@Z
_TEXT	SEGMENT PARA USE32 PUBLIC 'CODE'
_TEXT	ENDS
;	COMDAT ?CreateIoWorker@CDPSock@@AAEHK@Z
_TEXT	SEGMENT PARA USE32 PUBLIC 'CODE'
_TEXT	ENDS
;	COMDAT ?CloseIoWorker@CDPSock@@AAEHXZ
_TEXT	SEGMENT PARA USE32 PUBLIC 'CODE'
_TEXT	ENDS
;	COMDAT ?CreateEventWorker@CDPSock@@QAEHPAVCSock@@@Z
_TEXT	SEGMENT PARA USE32 PUBLIC 'CODE'
_TEXT	ENDS
;	COMDAT ?RemoveThread@CDPSock@@QAEXPAX@Z
_TEXT	SEGMENT PARA USE32 PUBLIC 'CODE'
_TEXT	ENDS
;	COMDAT ?CreateServer@CDPSock@@QAEHW4BUFFER_TYPE@@@Z
_TEXT	SEGMENT PARA USE32 PUBLIC 'CODE'
_TEXT	ENDS
;	COMDAT ?CreateServerE@CDPSock@@QAEHW4BUFFER_TYPE@@@Z
_TEXT	SEGMENT PARA USE32 PUBLIC 'CODE'
_TEXT	ENDS
;	COMDAT ?JoinToServer@CDPSock@@QAEHW4BUFFER_TYPE@@@Z
_TEXT	SEGMENT PARA USE32 PUBLIC 'CODE'
_TEXT	ENDS
;	COMDAT ?JoinToServerE@CDPSock@@QAEHW4BUFFER_TYPE@@@Z
_TEXT	SEGMENT PARA USE32 PUBLIC 'CODE'
_TEXT	ENDS
;	COMDAT ?Send@CDPSock@@QAEHPADKK@Z
_TEXT	SEGMENT PARA USE32 PUBLIC 'CODE'
_TEXT	ENDS
;	COMDAT ?Receive@CDPSock@@QAEPAVCBuffer@@XZ
_TEXT	SEGMENT PARA USE32 PUBLIC 'CODE'
_TEXT	ENDS
;	COMDAT ?CloseConnection@CDPSock@@QAEXK@Z
_TEXT	SEGMENT PARA USE32 PUBLIC 'CODE'
_TEXT	ENDS
;	COMDAT ?Shutdown@CDPSock@@QAEHK@Z
_TEXT	SEGMENT PARA USE32 PUBLIC 'CODE'
_TEXT	ENDS
;	COMDAT ?AddCreatePlayerOrGroupMsg@CDPSock@@QAEXKPAVCBuffer@@@Z
_TEXT	SEGMENT PARA USE32 PUBLIC 'CODE'
_TEXT	ENDS
;	COMDAT ?AddDestroyPlayerOrGroupMsg@CDPSock@@QAEXKPAVCBuffer@@@Z
_TEXT	SEGMENT PARA USE32 PUBLIC 'CODE'
_TEXT	ENDS
;	COMDAT ?IoWorkerThread@@YGIPAX@Z
_TEXT	SEGMENT PARA USE32 PUBLIC 'CODE'
_TEXT	ENDS
;	COMDAT ?EventWorkerThread@@YGIPAX@Z
_TEXT	SEGMENT PARA USE32 PUBLIC 'CODE'
_TEXT	ENDS
;	COMDAT ?compare@?$basic_string@DU?$char_traits@D@std@@V?$allocator@D@2@@std@@QBEHABV12@@Z
_TEXT	SEGMENT PARA USE32 PUBLIC 'CODE'
_TEXT	ENDS
;	COMDAT ?IsFull@?$CStack@K@@QAEHXZ
_TEXT	SEGMENT PARA USE32 PUBLIC 'CODE'
_TEXT	ENDS
;	COMDAT ??0?$pair@KPAVCCtrl@@@std@@QAE@ABKABQAVCCtrl@@@Z
_TEXT	SEGMENT PARA USE32 PUBLIC 'CODE'
_TEXT	ENDS
;	COMDAT ??0?$list@PAXV?$allocator@PAX@std@@@std@@QAE@XZ
_TEXT	SEGMENT PARA USE32 PUBLIC 'CODE'
_TEXT	ENDS
;	COMDAT ??1?$list@PAXV?$allocator@PAX@std@@@std@@QAE@XZ
_TEXT	SEGMENT PARA USE32 PUBLIC 'CODE'
_TEXT	ENDS
;	COMDAT ?begin@?$list@PAXV?$allocator@PAX@std@@@std@@QAE?AViterator@12@XZ
_TEXT	SEGMENT PARA USE32 PUBLIC 'CODE'
_TEXT	ENDS
;	COMDAT ?end@?$list@PAXV?$allocator@PAX@std@@@std@@QAE?AViterator@12@XZ
_TEXT	SEGMENT PARA USE32 PUBLIC 'CODE'
_TEXT	ENDS
;	COMDAT ?size@?$list@PAXV?$allocator@PAX@std@@@std@@QBEIXZ
_TEXT	SEGMENT PARA USE32 PUBLIC 'CODE'
_TEXT	ENDS
;	COMDAT ?front@?$list@PAXV?$allocator@PAX@std@@@std@@QAEAAPAXXZ
_TEXT	SEGMENT PARA USE32 PUBLIC 'CODE'
_TEXT	ENDS
;	COMDAT ?pop_front@?$list@PAXV?$allocator@PAX@std@@@std@@QAEXXZ
_TEXT	SEGMENT PARA USE32 PUBLIC 'CODE'
_TEXT	ENDS
;	COMDAT ?push_back@?$list@PAXV?$allocator@PAX@std@@@std@@QAEXABQAX@Z
_TEXT	SEGMENT PARA USE32 PUBLIC 'CODE'
_TEXT	ENDS
;	COMDAT ?erase@?$list@PAXV?$allocator@PAX@std@@@std@@QAE?AViterator@12@V312@@Z
_TEXT	SEGMENT PARA USE32 PUBLIC 'CODE'
_TEXT	ENDS
;	COMDAT ?GetMax@?$CItemContainer@VCItemElem@@@@QAEHXZ
_TEXT	SEGMENT PARA USE32 PUBLIC 'CODE'
_TEXT	ENDS
;	COMDAT ??0?$deque@PAUtagACTMSG@@V?$allocator@PAUtagACTMSG@@@std@@@std@@QAE@XZ
_TEXT	SEGMENT PARA USE32 PUBLIC 'CODE'
_TEXT	ENDS
;	COMDAT ??1?$deque@PAUtagACTMSG@@V?$allocator@PAUtagACTMSG@@@std@@@std@@QAE@XZ
_TEXT	SEGMENT PARA USE32 PUBLIC 'CODE'
_TEXT	ENDS
;	COMDAT ?begin@?$deque@PAUtagACTMSG@@V?$allocator@PAUtagACTMSG@@@std@@@std@@QAE?AViterator@12@XZ
_TEXT	SEGMENT PARA USE32 PUBLIC 'CODE'
_TEXT	ENDS
;	COMDAT ?end@?$deque@PAUtagACTMSG@@V?$allocator@PAUtagACTMSG@@@std@@@std@@QAE?AViterator@12@XZ
_TEXT	SEGMENT PARA USE32 PUBLIC 'CODE'
_TEXT	ENDS
;	COMDAT ?empty@?$deque@PAUtagACTMSG@@V?$allocator@PAUtagACTMSG@@@std@@@std@@QBE_NXZ
_TEXT	SEGMENT PARA USE32 PUBLIC 'CODE'
_TEXT	ENDS
;	COMDAT ?clear@?$deque@PAUtagACTMSG@@V?$allocator@PAUtagACTMSG@@@std@@@std@@QAEXXZ
_TEXT	SEGMENT PARA USE32 PUBLIC 'CODE'
_TEXT	ENDS
;	COMDAT ??0?$deque@PAUtagMAGICATKMSG@@V?$allocator@PAUtagMAGICATKMSG@@@std@@@std@@QAE@XZ
_TEXT	SEGMENT PARA USE32 PUBLIC 'CODE'
_TEXT	ENDS
;	COMDAT ??1?$deque@PAUtagMAGICATKMSG@@V?$allocator@PAUtagMAGICATKMSG@@@std@@@std@@QAE@XZ
_TEXT	SEGMENT PARA USE32 PUBLIC 'CODE'
_TEXT	ENDS
;	COMDAT ?begin@?$deque@PAUtagMAGICATKMSG@@V?$allocator@PAUtagMAGICATKMSG@@@std@@@std@@QAE?AViterator@12@XZ
_TEXT	SEGMENT PARA USE32 PUBLIC 'CODE'
_TEXT	ENDS
;	COMDAT ?end@?$deque@PAUtagMAGICATKMSG@@V?$allocator@PAUtagMAGICATKMSG@@@std@@@std@@QAE?AViterator@12@XZ
_TEXT	SEGMENT PARA USE32 PUBLIC 'CODE'
_TEXT	ENDS
;	COMDAT ?empty@?$deque@PAUtagMAGICATKMSG@@V?$allocator@PAUtagMAGICATKMSG@@@std@@@std@@QBE_NXZ
_TEXT	SEGMENT PARA USE32 PUBLIC 'CODE'
_TEXT	ENDS
;	COMDAT ?clear@?$deque@PAUtagMAGICATKMSG@@V?$allocator@PAUtagMAGICATKMSG@@@std@@@std@@QAEXXZ
_TEXT	SEGMENT PARA USE32 PUBLIC 'CODE'
_TEXT	ENDS
;	COMDAT ??Diterator@?$deque@PAUtagACTMSG@@V?$allocator@PAUtagACTMSG@@@std@@@std@@QBEAAPAUtagACTMSG@@XZ
_TEXT	SEGMENT PARA USE32 PUBLIC 'CODE'
_TEXT	ENDS
;	COMDAT ??Eiterator@?$deque@PAUtagACTMSG@@V?$allocator@PAUtagACTMSG@@@std@@@std@@QAEAAV012@XZ
_TEXT	SEGMENT PARA USE32 PUBLIC 'CODE'
_TEXT	ENDS
;	COMDAT ??9const_iterator@?$deque@PAUtagACTMSG@@V?$allocator@PAUtagACTMSG@@@std@@@std@@QBE_NABV012@@Z
_TEXT	SEGMENT PARA USE32 PUBLIC 'CODE'
_TEXT	ENDS
;	COMDAT ??Diterator@?$deque@PAUtagMAGICATKMSG@@V?$allocator@PAUtagMAGICATKMSG@@@std@@@std@@QBEAAPAUtagMAGICATKMSG@@XZ
_TEXT	SEGMENT PARA USE32 PUBLIC 'CODE'
_TEXT	ENDS
;	COMDAT ??Eiterator@?$deque@PAUtagMAGICATKMSG@@V?$allocator@PAUtagMAGICATKMSG@@@std@@@std@@QAEAAV012@XZ
_TEXT	SEGMENT PARA USE32 PUBLIC 'CODE'
_TEXT	ENDS
;	COMDAT ??9const_iterator@?$deque@PAUtagMAGICATKMSG@@V?$allocator@PAUtagMAGICATKMSG@@@std@@@std@@QBE_NABV012@@Z
_TEXT	SEGMENT PARA USE32 PUBLIC 'CODE'
_TEXT	ENDS
;	COMDAT ??0?$map@KPAVCClientSock@@U?$less@K@std@@V?$allocator@U?$pair@$$CBKPAVCClientSock@@@std@@@3@@std@@QAE@XZ
_TEXT	SEGMENT PARA USE32 PUBLIC 'CODE'
_TEXT	ENDS
;	COMDAT ??1?$_Tree@V?$_Tmap_traits@KPAVCClientSock@@U?$less@K@std@@V?$allocator@U?$pair@$$CBKPAVCClientSock@@@std@@@3@$0A@@std@@@std@@QAE@XZ
_TEXT	SEGMENT PARA USE32 PUBLIC 'CODE'
_TEXT	ENDS
;	COMDAT ?end@?$_Tree@V?$_Tmap_traits@KPAVCClientSock@@U?$less@K@std@@V?$allocator@U?$pair@$$CBKPAVCClientSock@@@std@@@3@$0A@@std@@@std@@QAE?AViterator@12@XZ
_TEXT	SEGMENT PARA USE32 PUBLIC 'CODE'
_TEXT	ENDS
;	COMDAT ?find@?$_Tree@V?$_Tmap_traits@KPAVCClientSock@@U?$less@K@std@@V?$allocator@U?$pair@$$CBKPAVCClientSock@@@std@@@3@$0A@@std@@@std@@QAE?AViterator@12@ABK@Z
_TEXT	SEGMENT PARA USE32 PUBLIC 'CODE'
_TEXT	ENDS
;	COMDAT ??Citerator@?$_Tree@V?$_Tmap_traits@KPAVCClientSock@@U?$less@K@std@@V?$allocator@U?$pair@$$CBKPAVCClientSock@@@std@@@3@$0A@@std@@@std@@QBEPAU?$pair@$$CBKPAVCClientSock@@@2@XZ
_TEXT	SEGMENT PARA USE32 PUBLIC 'CODE'
_TEXT	ENDS
;	COMDAT ??9const_iterator@?$_Tree@V?$_Tmap_traits@KPAVCClientSock@@U?$less@K@std@@V?$allocator@U?$pair@$$CBKPAVCClientSock@@@std@@@3@$0A@@std@@@std@@QBE_NABV012@@Z
_TEXT	SEGMENT PARA USE32 PUBLIC 'CODE'
_TEXT	ENDS
;	COMDAT ??0?$map@KPAVCClientSockE@@U?$less@K@std@@V?$allocator@U?$pair@$$CBKPAVCClientSockE@@@std@@@3@@std@@QAE@XZ
_TEXT	SEGMENT PARA USE32 PUBLIC 'CODE'
_TEXT	ENDS
;	COMDAT ??1?$_Tree@V?$_Tmap_traits@KPAVCClientSockE@@U?$less@K@std@@V?$allocator@U?$pair@$$CBKPAVCClientSockE@@@std@@@3@$0A@@std@@@std@@QAE@XZ
_TEXT	SEGMENT PARA USE32 PUBLIC 'CODE'
_TEXT	ENDS
;	COMDAT ?end@?$_Tree@V?$_Tmap_traits@KPAVCClientSockE@@U?$less@K@std@@V?$allocator@U?$pair@$$CBKPAVCClientSockE@@@std@@@3@$0A@@std@@@std@@QAE?AViterator@12@XZ
_TEXT	SEGMENT PARA USE32 PUBLIC 'CODE'
_TEXT	ENDS
;	COMDAT ?find@?$_Tree@V?$_Tmap_traits@KPAVCClientSockE@@U?$less@K@std@@V?$allocator@U?$pair@$$CBKPAVCClientSockE@@@std@@@3@$0A@@std@@@std@@QAE?AViterator@12@ABK@Z
_TEXT	SEGMENT PARA USE32 PUBLIC 'CODE'
_TEXT	ENDS
;	COMDAT ??Citerator@?$_Tree@V?$_Tmap_traits@KPAVCClientSockE@@U?$less@K@std@@V?$allocator@U?$pair@$$CBKPAVCClientSockE@@@std@@@3@$0A@@std@@@std@@QBEPAU?$pair@$$CBKPAVCClientSockE@@@2@XZ
_TEXT	SEGMENT PARA USE32 PUBLIC 'CODE'
_TEXT	ENDS
;	COMDAT ??9const_iterator@?$_Tree@V?$_Tmap_traits@KPAVCClientSockE@@U?$less@K@std@@V?$allocator@U?$pair@$$CBKPAVCClientSockE@@@std@@@3@$0A@@std@@@std@@QBE_NABV012@@Z
_TEXT	SEGMENT PARA USE32 PUBLIC 'CODE'
_TEXT	ENDS
;	COMDAT ??Diterator@?$list@PAXV?$allocator@PAX@std@@@std@@QBEAAPAXXZ
_TEXT	SEGMENT PARA USE32 PUBLIC 'CODE'
_TEXT	ENDS
;	COMDAT ??Eiterator@?$list@PAXV?$allocator@PAX@std@@@std@@QAEAAV012@XZ
_TEXT	SEGMENT PARA USE32 PUBLIC 'CODE'
_TEXT	ENDS
;	COMDAT ??9const_iterator@?$list@PAXV?$allocator@PAX@std@@@std@@QBE_NABV012@@Z
_TEXT	SEGMENT PARA USE32 PUBLIC 'CODE'
_TEXT	ENDS
;	COMDAT ?compare@?$basic_string@DU?$char_traits@D@std@@V?$allocator@D@2@@std@@QBEHIIPBDI@Z
_TEXT	SEGMENT PARA USE32 PUBLIC 'CODE'
_TEXT	ENDS
;	COMDAT ??0?$allocator@PAX@std@@QAE@XZ
_TEXT	SEGMENT PARA USE32 PUBLIC 'CODE'
_TEXT	ENDS
;	COMDAT ?_Nextnode@?$list@PAXV?$allocator@PAX@std@@@std@@KAAAPAU_Node@?$_List_nod@PAXV?$allocator@PAX@std@@@2@PAU342@@Z
_TEXT	SEGMENT PARA USE32 PUBLIC 'CODE'
_TEXT	ENDS
;	COMDAT ?_Prevnode@?$list@PAXV?$allocator@PAX@std@@@std@@KAAAPAU_Node@?$_List_nod@PAXV?$allocator@PAX@std@@@2@PAU342@@Z
_TEXT	SEGMENT PARA USE32 PUBLIC 'CODE'
_TEXT	ENDS
;	COMDAT ?_Insert@?$list@PAXV?$allocator@PAX@std@@@std@@QAEXViterator@12@ABQAX@Z
_TEXT	SEGMENT PARA USE32 PUBLIC 'CODE'
_TEXT	ENDS
;	COMDAT ?_Buynode@?$list@PAXV?$allocator@PAX@std@@@std@@IAEPAU_Node@?$_List_nod@PAXV?$allocator@PAX@std@@@2@XZ
_TEXT	SEGMENT PARA USE32 PUBLIC 'CODE'
_TEXT	ENDS
;	COMDAT ?_Tidy@?$list@PAXV?$allocator@PAX@std@@@std@@IAEXXZ
_TEXT	SEGMENT PARA USE32 PUBLIC 'CODE'
_TEXT	ENDS
;	COMDAT ??0?$_List_val@PAXV?$allocator@PAX@std@@@std@@IAE@V?$allocator@PAX@1@@Z
_TEXT	SEGMENT PARA USE32 PUBLIC 'CODE'
_TEXT	ENDS
;	COMDAT ?deallocate@?$allocator@U_Node@?$_List_nod@PAXV?$allocator@PAX@std@@@std@@@std@@QAEXPAU_Node@?$_List_nod@PAXV?$allocator@PAX@std@@@2@I@Z
_TEXT	SEGMENT PARA USE32 PUBLIC 'CODE'
_TEXT	ENDS
;	COMDAT ?destroy@?$allocator@U_Node@?$_List_nod@PAXV?$allocator@PAX@std@@@std@@@std@@QAEXPAU_Node@?$_List_nod@PAXV?$allocator@PAX@std@@@2@@Z
_TEXT	SEGMENT PARA USE32 PUBLIC 'CODE'
_TEXT	ENDS
;	COMDAT ?_Tidy@?$deque@PAUtagACTMSG@@V?$allocator@PAUtagACTMSG@@@std@@@std@@IAEXXZ
_TEXT	SEGMENT PARA USE32 PUBLIC 'CODE'
_TEXT	ENDS
;	COMDAT ??0?$_Deque_val@PAUtagACTMSG@@V?$allocator@PAUtagACTMSG@@@std@@@std@@IAE@V?$allocator@PAUtagACTMSG@@@1@@Z
_TEXT	SEGMENT PARA USE32 PUBLIC 'CODE'
_TEXT	ENDS
;	COMDAT ??0?$allocator@PAUtagACTMSG@@@std@@QAE@XZ
_TEXT	SEGMENT PARA USE32 PUBLIC 'CODE'
_TEXT	ENDS
;	COMDAT ?_Tidy@?$deque@PAUtagMAGICATKMSG@@V?$allocator@PAUtagMAGICATKMSG@@@std@@@std@@IAEXXZ
_TEXT	SEGMENT PARA USE32 PUBLIC 'CODE'
_TEXT	ENDS
;	COMDAT ??0?$_Deque_val@PAUtagMAGICATKMSG@@V?$allocator@PAUtagMAGICATKMSG@@@std@@@std@@IAE@V?$allocator@PAUtagMAGICATKMSG@@@1@@Z
_TEXT	SEGMENT PARA USE32 PUBLIC 'CODE'
_TEXT	ENDS
;	COMDAT ??0?$allocator@PAUtagMAGICATKMSG@@@std@@QAE@XZ
_TEXT	SEGMENT PARA USE32 PUBLIC 'CODE'
_TEXT	ENDS
;	COMDAT ??0iterator@?$deque@PAUtagACTMSG@@V?$allocator@PAUtagACTMSG@@@std@@@std@@QAE@IPBV12@@Z
_TEXT	SEGMENT PARA USE32 PUBLIC 'CODE'
_TEXT	ENDS
;	COMDAT ??Dconst_iterator@?$deque@PAUtagACTMSG@@V?$allocator@PAUtagACTMSG@@@std@@@std@@QBEABQAUtagACTMSG@@XZ
_TEXT	SEGMENT PARA USE32 PUBLIC 'CODE'
_TEXT	ENDS
;	COMDAT ??8const_iterator@?$deque@PAUtagACTMSG@@V?$allocator@PAUtagACTMSG@@@std@@@std@@QBE_NABV012@@Z
_TEXT	SEGMENT PARA USE32 PUBLIC 'CODE'
_TEXT	ENDS
;	COMDAT ??0iterator@?$deque@PAUtagMAGICATKMSG@@V?$allocator@PAUtagMAGICATKMSG@@@std@@@std@@QAE@IPBV12@@Z
_TEXT	SEGMENT PARA USE32 PUBLIC 'CODE'
_TEXT	ENDS
;	COMDAT ??Dconst_iterator@?$deque@PAUtagMAGICATKMSG@@V?$allocator@PAUtagMAGICATKMSG@@@std@@@std@@QBEABQAUtagMAGICATKMSG@@XZ
_TEXT	SEGMENT PARA USE32 PUBLIC 'CODE'
_TEXT	ENDS
;	COMDAT ??8const_iterator@?$deque@PAUtagMAGICATKMSG@@V?$allocator@PAUtagMAGICATKMSG@@@std@@@std@@QBE_NABV012@@Z
_TEXT	SEGMENT PARA USE32 PUBLIC 'CODE'
_TEXT	ENDS
;	COMDAT ?_Key@?$_Tree@V?$_Tmap_traits@KPAVCClientSock@@U?$less@K@std@@V?$allocator@U?$pair@$$CBKPAVCClientSock@@@std@@@3@$0A@@std@@@std@@KAABKPAU_Node@?$_Tree_nod@V?$_Tmap_traits@KPAVCClientSock@@U?$less@K@std@@V?$allocator@U?$pair@$$CBKPAVCClientSock@@@std@@@3@$0A@@std@@@2@@Z
_TEXT	SEGMENT PARA USE32 PUBLIC 'CODE'
_TEXT	ENDS
;	COMDAT ??0?$_Tree@V?$_Tmap_traits@KPAVCClientSock@@U?$less@K@std@@V?$allocator@U?$pair@$$CBKPAVCClientSock@@@std@@@3@$0A@@std@@@std@@QAE@ABU?$less@K@1@ABV?$allocator@U?$pair@$$CBKPAVCClientSock@@@std@@@1@@Z
_TEXT	SEGMENT PARA USE32 PUBLIC 'CODE'
_TEXT	ENDS
;	COMDAT ?lower_bound@?$_Tree@V?$_Tmap_traits@KPAVCClientSock@@U?$less@K@std@@V?$allocator@U?$pair@$$CBKPAVCClientSock@@@std@@@3@$0A@@std@@@std@@QAE?AViterator@12@ABK@Z
_TEXT	SEGMENT PARA USE32 PUBLIC 'CODE'
_TEXT	ENDS
;	COMDAT ?_Tidy@?$_Tree@V?$_Tmap_traits@KPAVCClientSock@@U?$less@K@std@@V?$allocator@U?$pair@$$CBKPAVCClientSock@@@std@@@3@$0A@@std@@@std@@IAEXXZ
_TEXT	SEGMENT PARA USE32 PUBLIC 'CODE'
_TEXT	ENDS
;	COMDAT ??0?$allocator@U?$pair@$$CBKPAVCClientSock@@@std@@@std@@QAE@XZ
_TEXT	SEGMENT PARA USE32 PUBLIC 'CODE'
_TEXT	ENDS
;	COMDAT ??0iterator@?$_Tree@V?$_Tmap_traits@KPAVCClientSock@@U?$less@K@std@@V?$allocator@U?$pair@$$CBKPAVCClientSock@@@std@@@3@$0A@@std@@@std@@QAE@PAU_Node@?$_Tree_nod@V?$_Tmap_traits@KPAVCClientSock@@U?$less@K@std@@V?$allocator@U?$pair@$$CBKPAVCClientSock@@@std@@@3@$0A@@std@@@2@@Z
_TEXT	SEGMENT PARA USE32 PUBLIC 'CODE'
_TEXT	ENDS
;	COMDAT ??Diterator@?$_Tree@V?$_Tmap_traits@KPAVCClientSock@@U?$less@K@std@@V?$allocator@U?$pair@$$CBKPAVCClientSock@@@std@@@3@$0A@@std@@@std@@QBEAAU?$pair@$$CBKPAVCClientSock@@@2@XZ
_TEXT	SEGMENT PARA USE32 PUBLIC 'CODE'
_TEXT	ENDS
;	COMDAT ??8const_iterator@?$_Tree@V?$_Tmap_traits@KPAVCClientSock@@U?$less@K@std@@V?$allocator@U?$pair@$$CBKPAVCClientSock@@@std@@@3@$0A@@std@@@std@@QBE_NABV012@@Z
_TEXT	SEGMENT PARA USE32 PUBLIC 'CODE'
_TEXT	ENDS
;	COMDAT ?_Mynode@const_iterator@?$_Tree@V?$_Tmap_traits@KPAVCClientSock@@U?$less@K@std@@V?$allocator@U?$pair@$$CBKPAVCClientSock@@@std@@@3@$0A@@std@@@std@@QBEPAU_Node@?$_Tree_nod@V?$_Tmap_traits@KPAVCClientSock@@U?$less@K@std@@V?$allocator@U?$pair@$$CBKPAVCClientSock@@@std@@@3@$0A@@std@@@3@XZ
_TEXT	SEGMENT PARA USE32 PUBLIC 'CODE'
_TEXT	ENDS
;	COMDAT ?_Key@?$_Tree@V?$_Tmap_traits@KPAVCClientSockE@@U?$less@K@std@@V?$allocator@U?$pair@$$CBKPAVCClientSockE@@@std@@@3@$0A@@std@@@std@@KAABKPAU_Node@?$_Tree_nod@V?$_Tmap_traits@KPAVCClientSockE@@U?$less@K@std@@V?$allocator@U?$pair@$$CBKPAVCClientSockE@@@std@@@3@$0A@@std@@@2@@Z
_TEXT	SEGMENT PARA USE32 PUBLIC 'CODE'
_TEXT	ENDS
;	COMDAT ??0?$_Tree@V?$_Tmap_traits@KPAVCClientSockE@@U?$less@K@std@@V?$allocator@U?$pair@$$CBKPAVCClientSockE@@@std@@@3@$0A@@std@@@std@@QAE@ABU?$less@K@1@ABV?$allocator@U?$pair@$$CBKPAVCClientSockE@@@std@@@1@@Z
_TEXT	SEGMENT PARA USE32 PUBLIC 'CODE'
_TEXT	ENDS
;	COMDAT ?lower_bound@?$_Tree@V?$_Tmap_traits@KPAVCClientSockE@@U?$less@K@std@@V?$allocator@U?$pair@$$CBKPAVCClientSockE@@@std@@@3@$0A@@std@@@std@@QAE?AViterator@12@ABK@Z
_TEXT	SEGMENT PARA USE32 PUBLIC 'CODE'
_TEXT	ENDS
;	COMDAT ?_Tidy@?$_Tree@V?$_Tmap_traits@KPAVCClientSockE@@U?$less@K@std@@V?$allocator@U?$pair@$$CBKPAVCClientSockE@@@std@@@3@$0A@@std@@@std@@IAEXXZ
_TEXT	SEGMENT PARA USE32 PUBLIC 'CODE'
_TEXT	ENDS
;	COMDAT ??0?$allocator@U?$pair@$$CBKPAVCClientSockE@@@std@@@std@@QAE@XZ
_TEXT	SEGMENT PARA USE32 PUBLIC 'CODE'
_TEXT	ENDS
;	COMDAT ??0iterator@?$_Tree@V?$_Tmap_traits@KPAVCClientSockE@@U?$less@K@std@@V?$allocator@U?$pair@$$CBKPAVCClientSockE@@@std@@@3@$0A@@std@@@std@@QAE@PAU_Node@?$_Tree_nod@V?$_Tmap_traits@KPAVCClientSockE@@U?$less@K@std@@V?$allocator@U?$pair@$$CBKPAVCClientSockE@@@std@@@3@$0A@@std@@@2@@Z
_TEXT	SEGMENT PARA USE32 PUBLIC 'CODE'
_TEXT	ENDS
;	COMDAT ??Diterator@?$_Tree@V?$_Tmap_traits@KPAVCClientSockE@@U?$less@K@std@@V?$allocator@U?$pair@$$CBKPAVCClientSockE@@@std@@@3@$0A@@std@@@std@@QBEAAU?$pair@$$CBKPAVCClientSockE@@@2@XZ
_TEXT	SEGMENT PARA USE32 PUBLIC 'CODE'
_TEXT	ENDS
;	COMDAT ??8const_iterator@?$_Tree@V?$_Tmap_traits@KPAVCClientSockE@@U?$less@K@std@@V?$allocator@U?$pair@$$CBKPAVCClientSockE@@@std@@@3@$0A@@std@@@std@@QBE_NABV012@@Z
_TEXT	SEGMENT PARA USE32 PUBLIC 'CODE'
_TEXT	ENDS
;	COMDAT ?_Mynode@const_iterator@?$_Tree@V?$_Tmap_traits@KPAVCClientSockE@@U?$less@K@std@@V?$allocator@U?$pair@$$CBKPAVCClientSockE@@@std@@@3@$0A@@std@@@std@@QBEPAU_Node@?$_Tree_nod@V?$_Tmap_traits@KPAVCClientSockE@@U?$less@K@std@@V?$allocator@U?$pair@$$CBKPAVCClientSockE@@@std@@@3@$0A@@std@@@3@XZ
_TEXT	SEGMENT PARA USE32 PUBLIC 'CODE'
_TEXT	ENDS
;	COMDAT ??0iterator@?$list@PAXV?$allocator@PAX@std@@@std@@QAE@PAU_Node@?$_List_nod@PAXV?$allocator@PAX@std@@@2@@Z
_TEXT	SEGMENT PARA USE32 PUBLIC 'CODE'
_TEXT	ENDS
;	COMDAT ??Eiterator@?$list@PAXV?$allocator@PAX@std@@@std@@QAE?AV012@H@Z
_TEXT	SEGMENT PARA USE32 PUBLIC 'CODE'
_TEXT	ENDS
;	COMDAT ??Dconst_iterator@?$list@PAXV?$allocator@PAX@std@@@std@@QBEABQAXXZ
_TEXT	SEGMENT PARA USE32 PUBLIC 'CODE'
_TEXT	ENDS
;	COMDAT ??Econst_iterator@?$list@PAXV?$allocator@PAX@std@@@std@@QAEAAV012@XZ
_TEXT	SEGMENT PARA USE32 PUBLIC 'CODE'
_TEXT	ENDS
;	COMDAT ??8const_iterator@?$list@PAXV?$allocator@PAX@std@@@std@@QBE_NABV012@@Z
_TEXT	SEGMENT PARA USE32 PUBLIC 'CODE'
_TEXT	ENDS
;	COMDAT ?_Mynode@const_iterator@?$list@PAXV?$allocator@PAX@std@@@std@@QBEPAU_Node@?$_List_nod@PAXV?$allocator@PAX@std@@@3@XZ
_TEXT	SEGMENT PARA USE32 PUBLIC 'CODE'
_TEXT	ENDS
;	COMDAT ??0?$allocator@PAX@std@@QAE@ABV01@@Z
_TEXT	SEGMENT PARA USE32 PUBLIC 'CODE'
_TEXT	ENDS
;	COMDAT ?_Myval@?$list@PAXV?$allocator@PAX@std@@@std@@KAAAPAXPAU_Node@?$_List_nod@PAXV?$allocator@PAX@std@@@2@@Z
_TEXT	SEGMENT PARA USE32 PUBLIC 'CODE'
_TEXT	ENDS
;	COMDAT ?clear@?$list@PAXV?$allocator@PAX@std@@@std@@QAEXXZ
_TEXT	SEGMENT PARA USE32 PUBLIC 'CODE'
_TEXT	ENDS
;	COMDAT ?_Buynode@?$list@PAXV?$allocator@PAX@std@@@std@@IAEPAU_Node@?$_List_nod@PAXV?$allocator@PAX@std@@@2@PAU342@0ABQAX@Z
_TEXT	SEGMENT PARA USE32 PUBLIC 'CODE'
_TEXT	ENDS
;	COMDAT ?_Incsize@?$list@PAXV?$allocator@PAX@std@@@std@@IAEXI@Z
_TEXT	SEGMENT PARA USE32 PUBLIC 'CODE'
_TEXT	ENDS
;	COMDAT ??0?$_List_ptr@PAXV?$allocator@PAX@std@@@std@@IAE@V?$allocator@PAX@1@@Z
_TEXT	SEGMENT PARA USE32 PUBLIC 'CODE'
_TEXT	ENDS
;	COMDAT ?allocate@?$allocator@U_Node@?$_List_nod@PAXV?$allocator@PAX@std@@@std@@@std@@QAEPAU_Node@?$_List_nod@PAXV?$allocator@PAX@std@@@2@I@Z
_TEXT	SEGMENT PARA USE32 PUBLIC 'CODE'
_TEXT	ENDS
;	COMDAT ?construct@?$allocator@PAU_Node@?$_List_nod@PAXV?$allocator@PAX@std@@@std@@@std@@QAEXPAPAU_Node@?$_List_nod@PAXV?$allocator@PAX@std@@@2@ABQAU342@@Z
_TEXT	SEGMENT PARA USE32 PUBLIC 'CODE'
_TEXT	ENDS
;	COMDAT ?destroy@?$allocator@PAU_Node@?$_List_nod@PAXV?$allocator@PAX@std@@@std@@@std@@QAEXPAPAU_Node@?$_List_nod@PAXV?$allocator@PAX@std@@@2@@Z
_TEXT	SEGMENT PARA USE32 PUBLIC 'CODE'
_TEXT	ENDS
;	COMDAT ?pop_back@?$deque@PAUtagACTMSG@@V?$allocator@PAUtagACTMSG@@@std@@@std@@QAEXXZ
_TEXT	SEGMENT PARA USE32 PUBLIC 'CODE'
_TEXT	ENDS
;	COMDAT ??0?$_Deque_map@PAUtagACTMSG@@V?$allocator@PAUtagACTMSG@@@std@@@std@@IAE@V?$allocator@PAUtagACTMSG@@@1@@Z
_TEXT	SEGMENT PARA USE32 PUBLIC 'CODE'
_TEXT	ENDS
;	COMDAT ??0?$allocator@PAUtagACTMSG@@@std@@QAE@ABV01@@Z
_TEXT	SEGMENT PARA USE32 PUBLIC 'CODE'
_TEXT	ENDS
;	COMDAT ?deallocate@?$allocator@PAUtagACTMSG@@@std@@QAEXPAPAUtagACTMSG@@I@Z
_TEXT	SEGMENT PARA USE32 PUBLIC 'CODE'
_TEXT	ENDS
;	COMDAT ?deallocate@?$allocator@PAPAUtagACTMSG@@@std@@QAEXPAPAPAUtagACTMSG@@I@Z
_TEXT	SEGMENT PARA USE32 PUBLIC 'CODE'
_TEXT	ENDS
;	COMDAT ?destroy@?$allocator@PAPAUtagACTMSG@@@std@@QAEXPAPAPAUtagACTMSG@@@Z
_TEXT	SEGMENT PARA USE32 PUBLIC 'CODE'
_TEXT	ENDS
;	COMDAT ?pop_back@?$deque@PAUtagMAGICATKMSG@@V?$allocator@PAUtagMAGICATKMSG@@@std@@@std@@QAEXXZ
_TEXT	SEGMENT PARA USE32 PUBLIC 'CODE'
_TEXT	ENDS
;	COMDAT ??0?$_Deque_map@PAUtagMAGICATKMSG@@V?$allocator@PAUtagMAGICATKMSG@@@std@@@std@@IAE@V?$allocator@PAUtagMAGICATKMSG@@@1@@Z
_TEXT	SEGMENT PARA USE32 PUBLIC 'CODE'
_TEXT	ENDS
;	COMDAT ??0?$allocator@PAUtagMAGICATKMSG@@@std@@QAE@ABV01@@Z
_TEXT	SEGMENT PARA USE32 PUBLIC 'CODE'
_TEXT	ENDS
;	COMDAT ?deallocate@?$allocator@PAUtagMAGICATKMSG@@@std@@QAEXPAPAUtagMAGICATKMSG@@I@Z
_TEXT	SEGMENT PARA USE32 PUBLIC 'CODE'
_TEXT	ENDS
;	COMDAT ?deallocate@?$allocator@PAPAUtagMAGICATKMSG@@@std@@QAEXPAPAPAUtagMAGICATKMSG@@I@Z
_TEXT	SEGMENT PARA USE32 PUBLIC 'CODE'
_TEXT	ENDS
;	COMDAT ?destroy@?$allocator@PAPAUtagMAGICATKMSG@@@std@@QAEXPAPAPAUtagMAGICATKMSG@@@Z
_TEXT	SEGMENT PARA USE32 PUBLIC 'CODE'
_TEXT	ENDS
;	COMDAT ??0const_iterator@?$deque@PAUtagACTMSG@@V?$allocator@PAUtagACTMSG@@@std@@@std@@QAE@IPBV12@@Z
_TEXT	SEGMENT PARA USE32 PUBLIC 'CODE'
_TEXT	ENDS
;	COMDAT ??0const_iterator@?$deque@PAUtagMAGICATKMSG@@V?$allocator@PAUtagMAGICATKMSG@@@std@@@std@@QAE@IPBV12@@Z
_TEXT	SEGMENT PARA USE32 PUBLIC 'CODE'
_TEXT	ENDS
;	COMDAT ?_Left@?$_Tree@V?$_Tmap_traits@KPAVCClientSock@@U?$less@K@std@@V?$allocator@U?$pair@$$CBKPAVCClientSock@@@std@@@3@$0A@@std@@@std@@KAAAPAU_Node@?$_Tree_nod@V?$_Tmap_traits@KPAVCClientSock@@U?$less@K@std@@V?$allocator@U?$pair@$$CBKPAVCClientSock@@@std@@@3@$0A@@std@@@2@PAU342@@Z
_TEXT	SEGMENT PARA USE32 PUBLIC 'CODE'
_TEXT	ENDS
;	COMDAT ?_Parent@?$_Tree@V?$_Tmap_traits@KPAVCClientSock@@U?$less@K@std@@V?$allocator@U?$pair@$$CBKPAVCClientSock@@@std@@@3@$0A@@std@@@std@@KAAAPAU_Node@?$_Tree_nod@V?$_Tmap_traits@KPAVCClientSock@@U?$less@K@std@@V?$allocator@U?$pair@$$CBKPAVCClientSock@@@std@@@3@$0A@@std@@@2@PAU342@@Z
_TEXT	SEGMENT PARA USE32 PUBLIC 'CODE'
_TEXT	ENDS
;	COMDAT ?_Right@?$_Tree@V?$_Tmap_traits@KPAVCClientSock@@U?$less@K@std@@V?$allocator@U?$pair@$$CBKPAVCClientSock@@@std@@@3@$0A@@std@@@std@@KAAAPAU_Node@?$_Tree_nod@V?$_Tmap_traits@KPAVCClientSock@@U?$less@K@std@@V?$allocator@U?$pair@$$CBKPAVCClientSock@@@std@@@3@$0A@@std@@@2@PAU342@@Z
_TEXT	SEGMENT PARA USE32 PUBLIC 'CODE'
_TEXT	ENDS
;	COMDAT ?_Myval@?$_Tree@V?$_Tmap_traits@KPAVCClientSock@@U?$less@K@std@@V?$allocator@U?$pair@$$CBKPAVCClientSock@@@std@@@3@$0A@@std@@@std@@KAAAU?$pair@$$CBKPAVCClientSock@@@2@PAU_Node@?$_Tree_nod@V?$_Tmap_traits@KPAVCClientSock@@U?$less@K@std@@V?$allocator@U?$pair@$$CBKPAVCClientSock@@@std@@@3@$0A@@std@@@2@@Z
_TEXT	SEGMENT PARA USE32 PUBLIC 'CODE'
_TEXT	ENDS
;	COMDAT ?begin@?$_Tree@V?$_Tmap_traits@KPAVCClientSock@@U?$less@K@std@@V?$allocator@U?$pair@$$CBKPAVCClientSock@@@std@@@3@$0A@@std@@@std@@QAE?AViterator@12@XZ
_TEXT	SEGMENT PARA USE32 PUBLIC 'CODE'
_TEXT	ENDS
;	COMDAT ?erase@?$_Tree@V?$_Tmap_traits@KPAVCClientSock@@U?$less@K@std@@V?$allocator@U?$pair@$$CBKPAVCClientSock@@@std@@@3@$0A@@std@@@std@@QAE?AViterator@12@V312@0@Z
_TEXT	SEGMENT PARA USE32 PUBLIC 'CODE'
_TEXT	ENDS
;	COMDAT ?_Init@?$_Tree@V?$_Tmap_traits@KPAVCClientSock@@U?$less@K@std@@V?$allocator@U?$pair@$$CBKPAVCClientSock@@@std@@@3@$0A@@std@@@std@@IAEXXZ
_TEXT	SEGMENT PARA USE32 PUBLIC 'CODE'
_TEXT	ENDS
;	COMDAT ?_Lbound@?$_Tree@V?$_Tmap_traits@KPAVCClientSock@@U?$less@K@std@@V?$allocator@U?$pair@$$CBKPAVCClientSock@@@std@@@3@$0A@@std@@@std@@IBEPAU_Node@?$_Tree_nod@V?$_Tmap_traits@KPAVCClientSock@@U?$less@K@std@@V?$allocator@U?$pair@$$CBKPAVCClientSock@@@std@@@3@$0A@@std@@@2@ABK@Z
_TEXT	SEGMENT PARA USE32 PUBLIC 'CODE'
_TEXT	ENDS
;	COMDAT ??0?$_Tree_val@V?$_Tmap_traits@KPAVCClientSock@@U?$less@K@std@@V?$allocator@U?$pair@$$CBKPAVCClientSock@@@std@@@3@$0A@@std@@@std@@IAE@ABU?$less@K@1@V?$allocator@U?$pair@$$CBKPAVCClientSock@@@std@@@1@@Z
_TEXT	SEGMENT PARA USE32 PUBLIC 'CODE'
_TEXT	ENDS
;	COMDAT ?_Kfn@?$_Tmap_traits@KPAVCClientSock@@U?$less@K@std@@V?$allocator@U?$pair@$$CBKPAVCClientSock@@@std@@@3@$0A@@std@@SAABKABU?$pair@$$CBKPAVCClientSock@@@2@@Z
_TEXT	SEGMENT PARA USE32 PUBLIC 'CODE'
_TEXT	ENDS
;	COMDAT ??0?$allocator@U?$pair@$$CBKPAVCClientSock@@@std@@@std@@QAE@ABV01@@Z
_TEXT	SEGMENT PARA USE32 PUBLIC 'CODE'
_TEXT	ENDS
;	COMDAT ?deallocate@?$allocator@U_Node@?$_Tree_nod@V?$_Tmap_traits@KPAVCClientSock@@U?$less@K@std@@V?$allocator@U?$pair@$$CBKPAVCClientSock@@@std@@@3@$0A@@std@@@std@@@std@@QAEXPAU_Node@?$_Tree_nod@V?$_Tmap_traits@KPAVCClientSock@@U?$less@K@std@@V?$allocator@U?$pair@$$CBKPAVCClientSock@@@std@@@3@$0A@@std@@@2@I@Z
_TEXT	SEGMENT PARA USE32 PUBLIC 'CODE'
_TEXT	ENDS
;	COMDAT ?destroy@?$allocator@PAU_Node@?$_Tree_nod@V?$_Tmap_traits@KPAVCClientSock@@U?$less@K@std@@V?$allocator@U?$pair@$$CBKPAVCClientSock@@@std@@@3@$0A@@std@@@std@@@std@@QAEXPAPAU_Node@?$_Tree_nod@V?$_Tmap_traits@KPAVCClientSock@@U?$less@K@std@@V?$allocator@U?$pair@$$CBKPAVCClientSock@@@std@@@3@$0A@@std@@@2@@Z
_TEXT	SEGMENT PARA USE32 PUBLIC 'CODE'
_TEXT	ENDS
;	COMDAT ??0const_iterator@?$_Tree@V?$_Tmap_traits@KPAVCClientSock@@U?$less@K@std@@V?$allocator@U?$pair@$$CBKPAVCClientSock@@@std@@@3@$0A@@std@@@std@@QAE@PAU_Node@?$_Tree_nod@V?$_Tmap_traits@KPAVCClientSock@@U?$less@K@std@@V?$allocator@U?$pair@$$CBKPAVCClientSock@@@std@@@3@$0A@@std@@@2@@Z
_TEXT	SEGMENT PARA USE32 PUBLIC 'CODE'
_TEXT	ENDS
;	COMDAT ??Dconst_iterator@?$_Tree@V?$_Tmap_traits@KPAVCClientSock@@U?$less@K@std@@V?$allocator@U?$pair@$$CBKPAVCClientSock@@@std@@@3@$0A@@std@@@std@@QBEABU?$pair@$$CBKPAVCClientSock@@@2@XZ
_TEXT	SEGMENT PARA USE32 PUBLIC 'CODE'
_TEXT	ENDS
;	COMDAT ?_Left@?$_Tree@V?$_Tmap_traits@KPAVCClientSockE@@U?$less@K@std@@V?$allocator@U?$pair@$$CBKPAVCClientSockE@@@std@@@3@$0A@@std@@@std@@KAAAPAU_Node@?$_Tree_nod@V?$_Tmap_traits@KPAVCClientSockE@@U?$less@K@std@@V?$allocator@U?$pair@$$CBKPAVCClientSockE@@@std@@@3@$0A@@std@@@2@PAU342@@Z
_TEXT	SEGMENT PARA USE32 PUBLIC 'CODE'
_TEXT	ENDS
;	COMDAT ?_Parent@?$_Tree@V?$_Tmap_traits@KPAVCClientSockE@@U?$less@K@std@@V?$allocator@U?$pair@$$CBKPAVCClientSockE@@@std@@@3@$0A@@std@@@std@@KAAAPAU_Node@?$_Tree_nod@V?$_Tmap_traits@KPAVCClientSockE@@U?$less@K@std@@V?$allocator@U?$pair@$$CBKPAVCClientSockE@@@std@@@3@$0A@@std@@@2@PAU342@@Z
_TEXT	SEGMENT PARA USE32 PUBLIC 'CODE'
_TEXT	ENDS
;	COMDAT ?_Right@?$_Tree@V?$_Tmap_traits@KPAVCClientSockE@@U?$less@K@std@@V?$allocator@U?$pair@$$CBKPAVCClientSockE@@@std@@@3@$0A@@std@@@std@@KAAAPAU_Node@?$_Tree_nod@V?$_Tmap_traits@KPAVCClientSockE@@U?$less@K@std@@V?$allocator@U?$pair@$$CBKPAVCClientSockE@@@std@@@3@$0A@@std@@@2@PAU342@@Z
_TEXT	SEGMENT PARA USE32 PUBLIC 'CODE'
_TEXT	ENDS
;	COMDAT ?_Myval@?$_Tree@V?$_Tmap_traits@KPAVCClientSockE@@U?$less@K@std@@V?$allocator@U?$pair@$$CBKPAVCClientSockE@@@std@@@3@$0A@@std@@@std@@KAAAU?$pair@$$CBKPAVCClientSockE@@@2@PAU_Node@?$_Tree_nod@V?$_Tmap_traits@KPAVCClientSockE@@U?$less@K@std@@V?$allocator@U?$pair@$$CBKPAVCClientSockE@@@std@@@3@$0A@@std@@@2@@Z
_TEXT	SEGMENT PARA USE32 PUBLIC 'CODE'
_TEXT	ENDS
;	COMDAT ?begin@?$_Tree@V?$_Tmap_traits@KPAVCClientSockE@@U?$less@K@std@@V?$allocator@U?$pair@$$CBKPAVCClientSockE@@@std@@@3@$0A@@std@@@std@@QAE?AViterator@12@XZ
_TEXT	SEGMENT PARA USE32 PUBLIC 'CODE'
_TEXT	ENDS
;	COMDAT ?erase@?$_Tree@V?$_Tmap_traits@KPAVCClientSockE@@U?$less@K@std@@V?$allocator@U?$pair@$$CBKPAVCClientSockE@@@std@@@3@$0A@@std@@@std@@QAE?AViterator@12@V312@0@Z
_TEXT	SEGMENT PARA USE32 PUBLIC 'CODE'
_TEXT	ENDS
;	COMDAT ?_Init@?$_Tree@V?$_Tmap_traits@KPAVCClientSockE@@U?$less@K@std@@V?$allocator@U?$pair@$$CBKPAVCClientSockE@@@std@@@3@$0A@@std@@@std@@IAEXXZ
_TEXT	SEGMENT PARA USE32 PUBLIC 'CODE'
_TEXT	ENDS
;	COMDAT ?_Lbound@?$_Tree@V?$_Tmap_traits@KPAVCClientSockE@@U?$less@K@std@@V?$allocator@U?$pair@$$CBKPAVCClientSockE@@@std@@@3@$0A@@std@@@std@@IBEPAU_Node@?$_Tree_nod@V?$_Tmap_traits@KPAVCClientSockE@@U?$less@K@std@@V?$allocator@U?$pair@$$CBKPAVCClientSockE@@@std@@@3@$0A@@std@@@2@ABK@Z
_TEXT	SEGMENT PARA USE32 PUBLIC 'CODE'
_TEXT	ENDS
;	COMDAT ??0?$_Tree_val@V?$_Tmap_traits@KPAVCClientSockE@@U?$less@K@std@@V?$allocator@U?$pair@$$CBKPAVCClientSockE@@@std@@@3@$0A@@std@@@std@@IAE@ABU?$less@K@1@V?$allocator@U?$pair@$$CBKPAVCClientSockE@@@std@@@1@@Z
_TEXT	SEGMENT PARA USE32 PUBLIC 'CODE'
_TEXT	ENDS
;	COMDAT ?_Kfn@?$_Tmap_traits@KPAVCClientSockE@@U?$less@K@std@@V?$allocator@U?$pair@$$CBKPAVCClientSockE@@@std@@@3@$0A@@std@@SAABKABU?$pair@$$CBKPAVCClientSockE@@@2@@Z
_TEXT	SEGMENT PARA USE32 PUBLIC 'CODE'
_TEXT	ENDS
;	COMDAT ??0?$allocator@U?$pair@$$CBKPAVCClientSockE@@@std@@@std@@QAE@ABV01@@Z
_TEXT	SEGMENT PARA USE32 PUBLIC 'CODE'
_TEXT	ENDS
;	COMDAT ?deallocate@?$allocator@U_Node@?$_Tree_nod@V?$_Tmap_traits@KPAVCClientSockE@@U?$less@K@std@@V?$allocator@U?$pair@$$CBKPAVCClientSockE@@@std@@@3@$0A@@std@@@std@@@std@@QAEXPAU_Node@?$_Tree_nod@V?$_Tmap_traits@KPAVCClientSockE@@U?$less@K@std@@V?$allocator@U?$pair@$$CBKPAVCClientSockE@@@std@@@3@$0A@@std@@@2@I@Z
_TEXT	SEGMENT PARA USE32 PUBLIC 'CODE'
_TEXT	ENDS
;	COMDAT ?destroy@?$allocator@PAU_Node@?$_Tree_nod@V?$_Tmap_traits@KPAVCClientSockE@@U?$less@K@std@@V?$allocator@U?$pair@$$CBKPAVCClientSockE@@@std@@@3@$0A@@std@@@std@@@std@@QAEXPAPAU_Node@?$_Tree_nod@V?$_Tmap_traits@KPAVCClientSockE@@U?$less@K@std@@V?$allocator@U?$pair@$$CBKPAVCClientSockE@@@std@@@3@$0A@@std@@@2@@Z
_TEXT	SEGMENT PARA USE32 PUBLIC 'CODE'
_TEXT	ENDS
;	COMDAT ??0const_iterator@?$_Tree@V?$_Tmap_traits@KPAVCClientSockE@@U?$less@K@std@@V?$allocator@U?$pair@$$CBKPAVCClientSockE@@@std@@@3@$0A@@std@@@std@@QAE@PAU_Node@?$_Tree_nod@V?$_Tmap_traits@KPAVCClientSockE@@U?$less@K@std@@V?$allocator@U?$pair@$$CBKPAVCClientSockE@@@std@@@3@$0A@@std@@@2@@Z
_TEXT	SEGMENT PARA USE32 PUBLIC 'CODE'
_TEXT	ENDS
;	COMDAT ??Dconst_iterator@?$_Tree@V?$_Tmap_traits@KPAVCClientSockE@@U?$less@K@std@@V?$allocator@U?$pair@$$CBKPAVCClientSockE@@@std@@@3@$0A@@std@@@std@@QBEABU?$pair@$$CBKPAVCClientSockE@@@2@XZ
_TEXT	SEGMENT PARA USE32 PUBLIC 'CODE'
_TEXT	ENDS
;	COMDAT ??0const_iterator@?$list@PAXV?$allocator@PAX@std@@@std@@QAE@PAU_Node@?$_List_nod@PAXV?$allocator@PAX@std@@@2@@Z
_TEXT	SEGMENT PARA USE32 PUBLIC 'CODE'
_TEXT	ENDS
;	COMDAT ?max_size@?$list@PAXV?$allocator@PAX@std@@@std@@QBEIXZ
_TEXT	SEGMENT PARA USE32 PUBLIC 'CODE'
_TEXT	ENDS
;	COMDAT ??0?$_List_nod@PAXV?$allocator@PAX@std@@@std@@IAE@V?$allocator@PAX@1@@Z
_TEXT	SEGMENT PARA USE32 PUBLIC 'CODE'
_TEXT	ENDS
;	COMDAT ?destroy@?$allocator@PAUtagACTMSG@@@std@@QAEXPAPAUtagACTMSG@@@Z
_TEXT	SEGMENT PARA USE32 PUBLIC 'CODE'
_TEXT	ENDS
;	COMDAT ?destroy@?$allocator@PAUtagMAGICATKMSG@@@std@@QAEXPAPAUtagMAGICATKMSG@@@Z
_TEXT	SEGMENT PARA USE32 PUBLIC 'CODE'
_TEXT	ENDS
;	COMDAT ?_Isnil@?$_Tree@V?$_Tmap_traits@KPAVCClientSock@@U?$less@K@std@@V?$allocator@U?$pair@$$CBKPAVCClientSock@@@std@@@3@$0A@@std@@@std@@KAAADPAU_Node@?$_Tree_nod@V?$_Tmap_traits@KPAVCClientSock@@U?$less@K@std@@V?$allocator@U?$pair@$$CBKPAVCClientSock@@@std@@@3@$0A@@std@@@2@@Z
_TEXT	SEGMENT PARA USE32 PUBLIC 'CODE'
_TEXT	ENDS
;	COMDAT ?erase@?$_Tree@V?$_Tmap_traits@KPAVCClientSock@@U?$less@K@std@@V?$allocator@U?$pair@$$CBKPAVCClientSock@@@std@@@3@$0A@@std@@@std@@QAE?AViterator@12@V312@@Z
_TEXT	SEGMENT PARA USE32 PUBLIC 'CODE'
_TEXT	ENDS
;	COMDAT ?clear@?$_Tree@V?$_Tmap_traits@KPAVCClientSock@@U?$less@K@std@@V?$allocator@U?$pair@$$CBKPAVCClientSock@@@std@@@3@$0A@@std@@@std@@QAEXXZ
_TEXT	SEGMENT PARA USE32 PUBLIC 'CODE'
_TEXT	ENDS
;	COMDAT ?_Lmost@?$_Tree@V?$_Tmap_traits@KPAVCClientSock@@U?$less@K@std@@V?$allocator@U?$pair@$$CBKPAVCClientSock@@@std@@@3@$0A@@std@@@std@@IAEAAPAU_Node@?$_Tree_nod@V?$_Tmap_traits@KPAVCClientSock@@U?$less@K@std@@V?$allocator@U?$pair@$$CBKPAVCClientSock@@@std@@@3@$0A@@std@@@2@XZ
_TEXT	SEGMENT PARA USE32 PUBLIC 'CODE'
_TEXT	ENDS
;	COMDAT ?_Rmost@?$_Tree@V?$_Tmap_traits@KPAVCClientSock@@U?$less@K@std@@V?$allocator@U?$pair@$$CBKPAVCClientSock@@@std@@@3@$0A@@std@@@std@@IAEAAPAU_Node@?$_Tree_nod@V?$_Tmap_traits@KPAVCClientSock@@U?$less@K@std@@V?$allocator@U?$pair@$$CBKPAVCClientSock@@@std@@@3@$0A@@std@@@2@XZ
_TEXT	SEGMENT PARA USE32 PUBLIC 'CODE'
_TEXT	ENDS
;	COMDAT ?_Root@?$_Tree@V?$_Tmap_traits@KPAVCClientSock@@U?$less@K@std@@V?$allocator@U?$pair@$$CBKPAVCClientSock@@@std@@@3@$0A@@std@@@std@@IAEAAPAU_Node@?$_Tree_nod@V?$_Tmap_traits@KPAVCClientSock@@U?$less@K@std@@V?$allocator@U?$pair@$$CBKPAVCClientSock@@@std@@@3@$0A@@std@@@2@XZ
_TEXT	SEGMENT PARA USE32 PUBLIC 'CODE'
_TEXT	ENDS
;	COMDAT ?_Root@?$_Tree@V?$_Tmap_traits@KPAVCClientSock@@U?$less@K@std@@V?$allocator@U?$pair@$$CBKPAVCClientSock@@@std@@@3@$0A@@std@@@std@@IBEAAPAU_Node@?$_Tree_nod@V?$_Tmap_traits@KPAVCClientSock@@U?$less@K@std@@V?$allocator@U?$pair@$$CBKPAVCClientSock@@@std@@@3@$0A@@std@@@2@XZ
_TEXT	SEGMENT PARA USE32 PUBLIC 'CODE'
_TEXT	ENDS
;	COMDAT ?_Buynode@?$_Tree@V?$_Tmap_traits@KPAVCClientSock@@U?$less@K@std@@V?$allocator@U?$pair@$$CBKPAVCClientSock@@@std@@@3@$0A@@std@@@std@@IAEPAU_Node@?$_Tree_nod@V?$_Tmap_traits@KPAVCClientSock@@U?$less@K@std@@V?$allocator@U?$pair@$$CBKPAVCClientSock@@@std@@@3@$0A@@std@@@2@XZ
_TEXT	SEGMENT PARA USE32 PUBLIC 'CODE'
_TEXT	ENDS
;	COMDAT ??0?$_Tree_ptr@V?$_Tmap_traits@KPAVCClientSock@@U?$less@K@std@@V?$allocator@U?$pair@$$CBKPAVCClientSock@@@std@@@3@$0A@@std@@@std@@IAE@ABU?$less@K@1@V?$allocator@U?$pair@$$CBKPAVCClientSock@@@std@@@1@@Z
_TEXT	SEGMENT PARA USE32 PUBLIC 'CODE'
_TEXT	ENDS
;	COMDAT ??Eiterator@?$_Tree@V?$_Tmap_traits@KPAVCClientSock@@U?$less@K@std@@V?$allocator@U?$pair@$$CBKPAVCClientSock@@@std@@@3@$0A@@std@@@std@@QAE?AV012@H@Z
_TEXT	SEGMENT PARA USE32 PUBLIC 'CODE'
_TEXT	ENDS
;	COMDAT ?_Isnil@?$_Tree@V?$_Tmap_traits@KPAVCClientSockE@@U?$less@K@std@@V?$allocator@U?$pair@$$CBKPAVCClientSockE@@@std@@@3@$0A@@std@@@std@@KAAADPAU_Node@?$_Tree_nod@V?$_Tmap_traits@KPAVCClientSockE@@U?$less@K@std@@V?$allocator@U?$pair@$$CBKPAVCClientSockE@@@std@@@3@$0A@@std@@@2@@Z
_TEXT	SEGMENT PARA USE32 PUBLIC 'CODE'
_TEXT	ENDS
;	COMDAT ?erase@?$_Tree@V?$_Tmap_traits@KPAVCClientSockE@@U?$less@K@std@@V?$allocator@U?$pair@$$CBKPAVCClientSockE@@@std@@@3@$0A@@std@@@std@@QAE?AViterator@12@V312@@Z
_TEXT	SEGMENT PARA USE32 PUBLIC 'CODE'
_TEXT	ENDS
;	COMDAT ?clear@?$_Tree@V?$_Tmap_traits@KPAVCClientSockE@@U?$less@K@std@@V?$allocator@U?$pair@$$CBKPAVCClientSockE@@@std@@@3@$0A@@std@@@std@@QAEXXZ
_TEXT	SEGMENT PARA USE32 PUBLIC 'CODE'
_TEXT	ENDS
;	COMDAT ?_Lmost@?$_Tree@V?$_Tmap_traits@KPAVCClientSockE@@U?$less@K@std@@V?$allocator@U?$pair@$$CBKPAVCClientSockE@@@std@@@3@$0A@@std@@@std@@IAEAAPAU_Node@?$_Tree_nod@V?$_Tmap_traits@KPAVCClientSockE@@U?$less@K@std@@V?$allocator@U?$pair@$$CBKPAVCClientSockE@@@std@@@3@$0A@@std@@@2@XZ
_TEXT	SEGMENT PARA USE32 PUBLIC 'CODE'
_TEXT	ENDS
;	COMDAT ?_Rmost@?$_Tree@V?$_Tmap_traits@KPAVCClientSockE@@U?$less@K@std@@V?$allocator@U?$pair@$$CBKPAVCClientSockE@@@std@@@3@$0A@@std@@@std@@IAEAAPAU_Node@?$_Tree_nod@V?$_Tmap_traits@KPAVCClientSockE@@U?$less@K@std@@V?$allocator@U?$pair@$$CBKPAVCClientSockE@@@std@@@3@$0A@@std@@@2@XZ
_TEXT	SEGMENT PARA USE32 PUBLIC 'CODE'
_TEXT	ENDS
;	COMDAT ?_Root@?$_Tree@V?$_Tmap_traits@KPAVCClientSockE@@U?$less@K@std@@V?$allocator@U?$pair@$$CBKPAVCClientSockE@@@std@@@3@$0A@@std@@@std@@IAEAAPAU_Node@?$_Tree_nod@V?$_Tmap_traits@KPAVCClientSockE@@U?$less@K@std@@V?$allocator@U?$pair@$$CBKPAVCClientSockE@@@std@@@3@$0A@@std@@@2@XZ
_TEXT	SEGMENT PARA USE32 PUBLIC 'CODE'
_TEXT	ENDS
;	COMDAT ?_Root@?$_Tree@V?$_Tmap_traits@KPAVCClientSockE@@U?$less@K@std@@V?$allocator@U?$pair@$$CBKPAVCClientSockE@@@std@@@3@$0A@@std@@@std@@IBEAAPAU_Node@?$_Tree_nod@V?$_Tmap_traits@KPAVCClientSockE@@U?$less@K@std@@V?$allocator@U?$pair@$$CBKPAVCClientSockE@@@std@@@3@$0A@@std@@@2@XZ
_TEXT	SEGMENT PARA USE32 PUBLIC 'CODE'
_TEXT	ENDS
;	COMDAT ?_Buynode@?$_Tree@V?$_Tmap_traits@KPAVCClientSockE@@U?$less@K@std@@V?$allocator@U?$pair@$$CBKPAVCClientSockE@@@std@@@3@$0A@@std@@@std@@IAEPAU_Node@?$_Tree_nod@V?$_Tmap_traits@KPAVCClientSockE@@U?$less@K@std@@V?$allocator@U?$pair@$$CBKPAVCClientSockE@@@std@@@3@$0A@@std@@@2@XZ
_TEXT	SEGMENT PARA USE32 PUBLIC 'CODE'
_TEXT	ENDS
;	COMDAT ??0?$_Tree_ptr@V?$_Tmap_traits@KPAVCClientSockE@@U?$less@K@std@@V?$allocator@U?$pair@$$CBKPAVCClientSockE@@@std@@@3@$0A@@std@@@std@@IAE@ABU?$less@K@1@V?$allocator@U?$pair@$$CBKPAVCClientSockE@@@std@@@1@@Z
_TEXT	SEGMENT PARA USE32 PUBLIC 'CODE'
_TEXT	ENDS
;	COMDAT ??Eiterator@?$_Tree@V?$_Tmap_traits@KPAVCClientSockE@@U?$less@K@std@@V?$allocator@U?$pair@$$CBKPAVCClientSockE@@@std@@@3@$0A@@std@@@std@@QAE?AV012@H@Z
_TEXT	SEGMENT PARA USE32 PUBLIC 'CODE'
_TEXT	ENDS
;	COMDAT ??0_Node@?$_List_nod@PAXV?$allocator@PAX@std@@@std@@QAE@PAU012@0ABQAX@Z
_TEXT	SEGMENT PARA USE32 PUBLIC 'CODE'
_TEXT	ENDS
;	COMDAT ?max_size@?$allocator@PAX@std@@QBEIXZ
_TEXT	SEGMENT PARA USE32 PUBLIC 'CODE'
_TEXT	ENDS
;	COMDAT ?_Color@?$_Tree@V?$_Tmap_traits@KPAVCClientSock@@U?$less@K@std@@V?$allocator@U?$pair@$$CBKPAVCClientSock@@@std@@@3@$0A@@std@@@std@@KAAADPAU_Node@?$_Tree_nod@V?$_Tmap_traits@KPAVCClientSock@@U?$less@K@std@@V?$allocator@U?$pair@$$CBKPAVCClientSock@@@std@@@3@$0A@@std@@@2@@Z
_TEXT	SEGMENT PARA USE32 PUBLIC 'CODE'
_TEXT	ENDS
;	COMDAT ?_Erase@?$_Tree@V?$_Tmap_traits@KPAVCClientSock@@U?$less@K@std@@V?$allocator@U?$pair@$$CBKPAVCClientSock@@@std@@@3@$0A@@std@@@std@@IAEXPAU_Node@?$_Tree_nod@V?$_Tmap_traits@KPAVCClientSock@@U?$less@K@std@@V?$allocator@U?$pair@$$CBKPAVCClientSock@@@std@@@3@$0A@@std@@@2@@Z
_TEXT	SEGMENT PARA USE32 PUBLIC 'CODE'
_TEXT	ENDS
;	COMDAT ?_Lrotate@?$_Tree@V?$_Tmap_traits@KPAVCClientSock@@U?$less@K@std@@V?$allocator@U?$pair@$$CBKPAVCClientSock@@@std@@@3@$0A@@std@@@std@@IAEXPAU_Node@?$_Tree_nod@V?$_Tmap_traits@KPAVCClientSock@@U?$less@K@std@@V?$allocator@U?$pair@$$CBKPAVCClientSock@@@std@@@3@$0A@@std@@@2@@Z
_TEXT	SEGMENT PARA USE32 PUBLIC 'CODE'
_TEXT	ENDS
;	COMDAT ?_Max@?$_Tree@V?$_Tmap_traits@KPAVCClientSock@@U?$less@K@std@@V?$allocator@U?$pair@$$CBKPAVCClientSock@@@std@@@3@$0A@@std@@@std@@KAPAU_Node@?$_Tree_nod@V?$_Tmap_traits@KPAVCClientSock@@U?$less@K@std@@V?$allocator@U?$pair@$$CBKPAVCClientSock@@@std@@@3@$0A@@std@@@2@PAU342@@Z
_TEXT	SEGMENT PARA USE32 PUBLIC 'CODE'
_TEXT	ENDS
;	COMDAT ?_Min@?$_Tree@V?$_Tmap_traits@KPAVCClientSock@@U?$less@K@std@@V?$allocator@U?$pair@$$CBKPAVCClientSock@@@std@@@3@$0A@@std@@@std@@KAPAU_Node@?$_Tree_nod@V?$_Tmap_traits@KPAVCClientSock@@U?$less@K@std@@V?$allocator@U?$pair@$$CBKPAVCClientSock@@@std@@@3@$0A@@std@@@2@PAU342@@Z
_TEXT	SEGMENT PARA USE32 PUBLIC 'CODE'
_TEXT	ENDS
;	COMDAT ?_Rrotate@?$_Tree@V?$_Tmap_traits@KPAVCClientSock@@U?$less@K@std@@V?$allocator@U?$pair@$$CBKPAVCClientSock@@@std@@@3@$0A@@std@@@std@@IAEXPAU_Node@?$_Tree_nod@V?$_Tmap_traits@KPAVCClientSock@@U?$less@K@std@@V?$allocator@U?$pair@$$CBKPAVCClientSock@@@std@@@3@$0A@@std@@@2@@Z
_TEXT	SEGMENT PARA USE32 PUBLIC 'CODE'
_TEXT	ENDS
;	COMDAT ??0?$_Tree_nod@V?$_Tmap_traits@KPAVCClientSock@@U?$less@K@std@@V?$allocator@U?$pair@$$CBKPAVCClientSock@@@std@@@3@$0A@@std@@@std@@IAE@ABU?$less@K@1@V?$allocator@U?$pair@$$CBKPAVCClientSock@@@std@@@1@@Z
_TEXT	SEGMENT PARA USE32 PUBLIC 'CODE'
_TEXT	ENDS
;	COMDAT ?allocate@?$allocator@U_Node@?$_Tree_nod@V?$_Tmap_traits@KPAVCClientSock@@U?$less@K@std@@V?$allocator@U?$pair@$$CBKPAVCClientSock@@@std@@@3@$0A@@std@@@std@@@std@@QAEPAU_Node@?$_Tree_nod@V?$_Tmap_traits@KPAVCClientSock@@U?$less@K@std@@V?$allocator@U?$pair@$$CBKPAVCClientSock@@@std@@@3@$0A@@std@@@2@I@Z
_TEXT	SEGMENT PARA USE32 PUBLIC 'CODE'
_TEXT	ENDS
;	COMDAT ?destroy@?$allocator@U_Node@?$_Tree_nod@V?$_Tmap_traits@KPAVCClientSock@@U?$less@K@std@@V?$allocator@U?$pair@$$CBKPAVCClientSock@@@std@@@3@$0A@@std@@@std@@@std@@QAEXPAU_Node@?$_Tree_nod@V?$_Tmap_traits@KPAVCClientSock@@U?$less@K@std@@V?$allocator@U?$pair@$$CBKPAVCClientSock@@@std@@@3@$0A@@std@@@2@@Z
_TEXT	SEGMENT PARA USE32 PUBLIC 'CODE'
_TEXT	ENDS
;	COMDAT ?construct@?$allocator@PAU_Node@?$_Tree_nod@V?$_Tmap_traits@KPAVCClientSock@@U?$less@K@std@@V?$allocator@U?$pair@$$CBKPAVCClientSock@@@std@@@3@$0A@@std@@@std@@@std@@QAEXPAPAU_Node@?$_Tree_nod@V?$_Tmap_traits@KPAVCClientSock@@U?$less@K@std@@V?$allocator@U?$pair@$$CBKPAVCClientSock@@@std@@@3@$0A@@std@@@2@ABQAU342@@Z
_TEXT	SEGMENT PARA USE32 PUBLIC 'CODE'
_TEXT	ENDS
;	COMDAT ??Eiterator@?$_Tree@V?$_Tmap_traits@KPAVCClientSock@@U?$less@K@std@@V?$allocator@U?$pair@$$CBKPAVCClientSock@@@std@@@3@$0A@@std@@@std@@QAEAAV012@XZ
_TEXT	SEGMENT PARA USE32 PUBLIC 'CODE'
_TEXT	ENDS
;	COMDAT ?_Color@?$_Tree@V?$_Tmap_traits@KPAVCClientSockE@@U?$less@K@std@@V?$allocator@U?$pair@$$CBKPAVCClientSockE@@@std@@@3@$0A@@std@@@std@@KAAADPAU_Node@?$_Tree_nod@V?$_Tmap_traits@KPAVCClientSockE@@U?$less@K@std@@V?$allocator@U?$pair@$$CBKPAVCClientSockE@@@std@@@3@$0A@@std@@@2@@Z
_TEXT	SEGMENT PARA USE32 PUBLIC 'CODE'
_TEXT	ENDS
;	COMDAT ?_Erase@?$_Tree@V?$_Tmap_traits@KPAVCClientSockE@@U?$less@K@std@@V?$allocator@U?$pair@$$CBKPAVCClientSockE@@@std@@@3@$0A@@std@@@std@@IAEXPAU_Node@?$_Tree_nod@V?$_Tmap_traits@KPAVCClientSockE@@U?$less@K@std@@V?$allocator@U?$pair@$$CBKPAVCClientSockE@@@std@@@3@$0A@@std@@@2@@Z
_TEXT	SEGMENT PARA USE32 PUBLIC 'CODE'
_TEXT	ENDS
;	COMDAT ?_Lrotate@?$_Tree@V?$_Tmap_traits@KPAVCClientSockE@@U?$less@K@std@@V?$allocator@U?$pair@$$CBKPAVCClientSockE@@@std@@@3@$0A@@std@@@std@@IAEXPAU_Node@?$_Tree_nod@V?$_Tmap_traits@KPAVCClientSockE@@U?$less@K@std@@V?$allocator@U?$pair@$$CBKPAVCClientSockE@@@std@@@3@$0A@@std@@@2@@Z
_TEXT	SEGMENT PARA USE32 PUBLIC 'CODE'
_TEXT	ENDS
;	COMDAT ?_Max@?$_Tree@V?$_Tmap_traits@KPAVCClientSockE@@U?$less@K@std@@V?$allocator@U?$pair@$$CBKPAVCClientSockE@@@std@@@3@$0A@@std@@@std@@KAPAU_Node@?$_Tree_nod@V?$_Tmap_traits@KPAVCClientSockE@@U?$less@K@std@@V?$allocator@U?$pair@$$CBKPAVCClientSockE@@@std@@@3@$0A@@std@@@2@PAU342@@Z
_TEXT	SEGMENT PARA USE32 PUBLIC 'CODE'
_TEXT	ENDS
;	COMDAT ?_Min@?$_Tree@V?$_Tmap_traits@KPAVCClientSockE@@U?$less@K@std@@V?$allocator@U?$pair@$$CBKPAVCClientSockE@@@std@@@3@$0A@@std@@@std@@KAPAU_Node@?$_Tree_nod@V?$_Tmap_traits@KPAVCClientSockE@@U?$less@K@std@@V?$allocator@U?$pair@$$CBKPAVCClientSockE@@@std@@@3@$0A@@std@@@2@PAU342@@Z
_TEXT	SEGMENT PARA USE32 PUBLIC 'CODE'
_TEXT	ENDS
;	COMDAT ?_Rrotate@?$_Tree@V?$_Tmap_traits@KPAVCClientSockE@@U?$less@K@std@@V?$allocator@U?$pair@$$CBKPAVCClientSockE@@@std@@@3@$0A@@std@@@std@@IAEXPAU_Node@?$_Tree_nod@V?$_Tmap_traits@KPAVCClientSockE@@U?$less@K@std@@V?$allocator@U?$pair@$$CBKPAVCClientSockE@@@std@@@3@$0A@@std@@@2@@Z
_TEXT	SEGMENT PARA USE32 PUBLIC 'CODE'
_TEXT	ENDS
;	COMDAT ??0?$_Tree_nod@V?$_Tmap_traits@KPAVCClientSockE@@U?$less@K@std@@V?$allocator@U?$pair@$$CBKPAVCClientSockE@@@std@@@3@$0A@@std@@@std@@IAE@ABU?$less@K@1@V?$allocator@U?$pair@$$CBKPAVCClientSockE@@@std@@@1@@Z
_TEXT	SEGMENT PARA USE32 PUBLIC 'CODE'
_TEXT	ENDS
;	COMDAT ?allocate@?$allocator@U_Node@?$_Tree_nod@V?$_Tmap_traits@KPAVCClientSockE@@U?$less@K@std@@V?$allocator@U?$pair@$$CBKPAVCClientSockE@@@std@@@3@$0A@@std@@@std@@@std@@QAEPAU_Node@?$_Tree_nod@V?$_Tmap_traits@KPAVCClientSockE@@U?$less@K@std@@V?$allocator@U?$pair@$$CBKPAVCClientSockE@@@std@@@3@$0A@@std@@@2@I@Z
_TEXT	SEGMENT PARA USE32 PUBLIC 'CODE'
_TEXT	ENDS
;	COMDAT ?destroy@?$allocator@U_Node@?$_Tree_nod@V?$_Tmap_traits@KPAVCClientSockE@@U?$less@K@std@@V?$allocator@U?$pair@$$CBKPAVCClientSockE@@@std@@@3@$0A@@std@@@std@@@std@@QAEXPAU_Node@?$_Tree_nod@V?$_Tmap_traits@KPAVCClientSockE@@U?$less@K@std@@V?$allocator@U?$pair@$$CBKPAVCClientSockE@@@std@@@3@$0A@@std@@@2@@Z
_TEXT	SEGMENT PARA USE32 PUBLIC 'CODE'
_TEXT	ENDS
;	COMDAT ?construct@?$allocator@PAU_Node@?$_Tree_nod@V?$_Tmap_traits@KPAVCClientSockE@@U?$less@K@std@@V?$allocator@U?$pair@$$CBKPAVCClientSockE@@@std@@@3@$0A@@std@@@std@@@std@@QAEXPAPAU_Node@?$_Tree_nod@V?$_Tmap_traits@KPAVCClientSockE@@U?$less@K@std@@V?$allocator@U?$pair@$$CBKPAVCClientSockE@@@std@@@3@$0A@@std@@@2@ABQAU342@@Z
_TEXT	SEGMENT PARA USE32 PUBLIC 'CODE'
_TEXT	ENDS
;	COMDAT ??Eiterator@?$_Tree@V?$_Tmap_traits@KPAVCClientSockE@@U?$less@K@std@@V?$allocator@U?$pair@$$CBKPAVCClientSockE@@@std@@@3@$0A@@std@@@std@@QAEAAV012@XZ
_TEXT	SEGMENT PARA USE32 PUBLIC 'CODE'
_TEXT	ENDS
;	COMDAT ??0?$_Tmap_traits@KPAVCClientSock@@U?$less@K@std@@V?$allocator@U?$pair@$$CBKPAVCClientSock@@@std@@@3@$0A@@std@@QAE@U?$less@K@1@@Z
_TEXT	SEGMENT PARA USE32 PUBLIC 'CODE'
_TEXT	ENDS
;	COMDAT ??Econst_iterator@?$_Tree@V?$_Tmap_traits@KPAVCClientSock@@U?$less@K@std@@V?$allocator@U?$pair@$$CBKPAVCClientSock@@@std@@@3@$0A@@std@@@std@@QAEAAV012@XZ
_TEXT	SEGMENT PARA USE32 PUBLIC 'CODE'
_TEXT	ENDS
;	COMDAT ??0?$_Tmap_traits@KPAVCClientSockE@@U?$less@K@std@@V?$allocator@U?$pair@$$CBKPAVCClientSockE@@@std@@@3@$0A@@std@@QAE@U?$less@K@1@@Z
_TEXT	SEGMENT PARA USE32 PUBLIC 'CODE'
_TEXT	ENDS
;	COMDAT ??Econst_iterator@?$_Tree@V?$_Tmap_traits@KPAVCClientSockE@@U?$less@K@std@@V?$allocator@U?$pair@$$CBKPAVCClientSockE@@@std@@@3@$0A@@std@@@std@@QAEAAV012@XZ
_TEXT	SEGMENT PARA USE32 PUBLIC 'CODE'
_TEXT	ENDS
;	COMDAT ?_Inc@const_iterator@?$_Tree@V?$_Tmap_traits@KPAVCClientSock@@U?$less@K@std@@V?$allocator@U?$pair@$$CBKPAVCClientSock@@@std@@@3@$0A@@std@@@std@@QAEXXZ
_TEXT	SEGMENT PARA USE32 PUBLIC 'CODE'
_TEXT	ENDS
;	COMDAT ?_Inc@const_iterator@?$_Tree@V?$_Tmap_traits@KPAVCClientSockE@@U?$less@K@std@@V?$allocator@U?$pair@$$CBKPAVCClientSockE@@@std@@@3@$0A@@std@@@std@@QAEXXZ
_TEXT	SEGMENT PARA USE32 PUBLIC 'CODE'
_TEXT	ENDS
;	COMDAT ??$_Iter_cat@Vconst_iterator@?$vector@EV?$allocator@E@std@@@std@@@std@@YA?AUrandom_access_iterator_tag@0@ABVconst_iterator@?$vector@EV?$allocator@E@std@@@0@@Z
_TEXT	SEGMENT PARA USE32 PUBLIC 'CODE'
_TEXT	ENDS
;	COMDAT ??$_Assign@Vconst_iterator@?$vector@EV?$allocator@E@std@@@std@@@?$vector@EV?$allocator@E@std@@@std@@QAEXVconst_iterator@01@0Uinput_iterator_tag@1@@Z
_TEXT	SEGMENT PARA USE32 PUBLIC 'CODE'
_TEXT	ENDS
;	COMDAT ??$_Iter_cat@Viterator@?$_Tree@V?$_Tmap_traits@KPAVCUser@@U?$less@K@std@@V?$allocator@U?$pair@$$CBKPAVCUser@@@std@@@3@$0A@@std@@@std@@@std@@YA?AUbidirectional_iterator_tag@0@ABViterator@?$_Tree@V?$_Tmap_traits@KPAVCUser@@U?$less@K@std@@V?$allocator@U?$pair@$$CBKPAVCUser@@@std@@@3@$0A@@std@@@0@@Z
_TEXT	SEGMENT PARA USE32 PUBLIC 'CODE'
_TEXT	ENDS
;	COMDAT ??$_Distance2@Viterator@?$_Tree@V?$_Tmap_traits@KPAVCUser@@U?$less@K@std@@V?$allocator@U?$pair@$$CBKPAVCUser@@@std@@@3@$0A@@std@@@std@@I@std@@YAXViterator@?$_Tree@V?$_Tmap_traits@KPAVCUser@@U?$less@K@std@@V?$allocator@U?$pair@$$CBKPAVCUser@@@std@@@3@$0A@@std@@@0@0AAIUbidirectional_iterator_tag@0@@Z
_TEXT	SEGMENT PARA USE32 PUBLIC 'CODE'
_TEXT	ENDS
;	COMDAT ??$_Iter_cat@Viterator@?$_Tree@V?$_Tmap_traits@KPAVCCtrl@@U?$less@K@std@@V?$allocator@U?$pair@$$CBKPAVCCtrl@@@std@@@3@$0A@@std@@@std@@@std@@YA?AUbidirectional_iterator_tag@0@ABViterator@?$_Tree@V?$_Tmap_traits@KPAVCCtrl@@U?$less@K@std@@V?$allocator@U?$pair@$$CBKPAVCCtrl@@@std@@@3@$0A@@std@@@0@@Z
_TEXT	SEGMENT PARA USE32 PUBLIC 'CODE'
_TEXT	ENDS
;	COMDAT ??$_Distance2@Viterator@?$_Tree@V?$_Tmap_traits@KPAVCCtrl@@U?$less@K@std@@V?$allocator@U?$pair@$$CBKPAVCCtrl@@@std@@@3@$0A@@std@@@std@@I@std@@YAXViterator@?$_Tree@V?$_Tmap_traits@KPAVCCtrl@@U?$less@K@std@@V?$allocator@U?$pair@$$CBKPAVCCtrl@@@std@@@3@$0A@@std@@@0@0AAIUbidirectional_iterator_tag@0@@Z
_TEXT	SEGMENT PARA USE32 PUBLIC 'CODE'
_TEXT	ENDS
;	COMDAT ??$_Uninitialized_copy@Vconst_iterator@?$vector@EV?$allocator@E@std@@@std@@PAEV?$allocator@E@3@@std@@YAPAEVconst_iterator@?$vector@EV?$allocator@E@std@@@0@0PAEAAV?$allocator@E@0@@Z
_TEXT	SEGMENT PARA USE32 PUBLIC 'CODE'
_TEXT	ENDS
;	COMDAT ??$_Iter_cat@Viterator@?$_Tree@V?$_Tmap_traits@KEU?$less@K@std@@V?$allocator@U?$pair@$$CBKE@std@@@2@$0A@@std@@@std@@@std@@YA?AUbidirectional_iterator_tag@0@ABViterator@?$_Tree@V?$_Tmap_traits@KEU?$less@K@std@@V?$allocator@U?$pair@$$CBKE@std@@@2@$0A@@std@@@0@@Z
_TEXT	SEGMENT PARA USE32 PUBLIC 'CODE'
_TEXT	ENDS
;	COMDAT ??$_Distance2@Viterator@?$_Tree@V?$_Tmap_traits@KEU?$less@K@std@@V?$allocator@U?$pair@$$CBKE@std@@@2@$0A@@std@@@std@@I@std@@YAXViterator@?$_Tree@V?$_Tmap_traits@KEU?$less@K@std@@V?$allocator@U?$pair@$$CBKE@std@@@2@$0A@@std@@@0@0AAIUbidirectional_iterator_tag@0@@Z
_TEXT	SEGMENT PARA USE32 PUBLIC 'CODE'
_TEXT	ENDS
;	COMDAT ??$_Ptr_cat@PAU__SPAWNREGION@CEventLua@@PAU12@@std@@YA?AU_Nonscalar_ptr_iterator_tag@0@AAPAU__SPAWNREGION@CEventLua@@0@Z
_TEXT	SEGMENT PARA USE32 PUBLIC 'CODE'
_TEXT	ENDS
;	COMDAT ??$_Uninit_fill_n@PAU__SPAWNREGION@CEventLua@@IU12@V?$allocator@U__SPAWNREGION@CEventLua@@@std@@@std@@YAXPAU__SPAWNREGION@CEventLua@@IABU12@AAV?$allocator@U__SPAWNREGION@CEventLua@@@0@U_Nonscalar_ptr_iterator_tag@0@@Z
_TEXT	SEGMENT PARA USE32 PUBLIC 'CODE'
_TEXT	ENDS
;	COMDAT ??$_Copy_opt@PAJPAJ@std@@YAPAJPAJ00U_Scalar_ptr_iterator_tag@0@@Z
_TEXT	SEGMENT PARA USE32 PUBLIC 'CODE'
_TEXT	ENDS
;	COMDAT ??$_Uninitialized_copy@PAJPAJV?$allocator@J@std@@@std@@YAPAJPAJ00AAV?$allocator@J@0@@Z
_TEXT	SEGMENT PARA USE32 PUBLIC 'CODE'
_TEXT	ENDS
;	COMDAT ??$_Copy_backward_opt@PAJPAJ@std@@YAPAJPAJ00U_Scalar_ptr_iterator_tag@0@@Z
_TEXT	SEGMENT PARA USE32 PUBLIC 'CODE'
_TEXT	ENDS
;	COMDAT ??$_Ptr_cat@PAUtagDROPITEM@@PAU1@@std@@YA?AU_Nonscalar_ptr_iterator_tag@0@AAPAUtagDROPITEM@@0@Z
_TEXT	SEGMENT PARA USE32 PUBLIC 'CODE'
_TEXT	ENDS
;	COMDAT ??$_Destroy_range@UtagDROPITEM@@V?$allocator@UtagDROPITEM@@@std@@@std@@YAXPAUtagDROPITEM@@0AAV?$allocator@UtagDROPITEM@@@0@U_Nonscalar_ptr_iterator_tag@0@@Z
_TEXT	SEGMENT PARA USE32 PUBLIC 'CODE'
_TEXT	ENDS
;	COMDAT ??$_Ptr_cat@PAUWORMON@@PAU1@@std@@YA?AU_Nonscalar_ptr_iterator_tag@0@AAPAUWORMON@@0@Z
_TEXT	SEGMENT PARA USE32 PUBLIC 'CODE'
_TEXT	ENDS
;	COMDAT ??$_Destroy_range@UWORMON@@V?$allocator@UWORMON@@@std@@@std@@YAXPAUWORMON@@0AAV?$allocator@UWORMON@@@0@U_Nonscalar_ptr_iterator_tag@0@@Z
_TEXT	SEGMENT PARA USE32 PUBLIC 'CODE'
_TEXT	ENDS
;	COMDAT ??$_Ptr_cat@PAU__ITEMGAME@CMiniGame@@PAU12@@std@@YA?AU_Nonscalar_ptr_iterator_tag@0@AAPAU__ITEMGAME@CMiniGame@@0@Z
_TEXT	SEGMENT PARA USE32 PUBLIC 'CODE'
_TEXT	ENDS
;	COMDAT ??$_Destroy_range@U__ITEMGAME@CMiniGame@@V?$allocator@U__ITEMGAME@CMiniGame@@@std@@@std@@YAXPAU__ITEMGAME@CMiniGame@@0AAV?$allocator@U__ITEMGAME@CMiniGame@@@0@U_Nonscalar_ptr_iterator_tag@0@@Z
_TEXT	SEGMENT PARA USE32 PUBLIC 'CODE'
_TEXT	ENDS
;	COMDAT ??$_Destroy_range@KV?$allocator@K@std@@@std@@YAXPAK0AAV?$allocator@K@0@U_Scalar_ptr_iterator_tag@0@@Z
_TEXT	SEGMENT PARA USE32 PUBLIC 'CODE'
_TEXT	ENDS
;	COMDAT ??$_Destroy_range@HV?$allocator@H@std@@@std@@YAXPAH0AAV?$allocator@H@0@U_Scalar_ptr_iterator_tag@0@@Z
_TEXT	SEGMENT PARA USE32 PUBLIC 'CODE'
_TEXT	ENDS
;	COMDAT ??$_Ptr_cat@PAU__ITEM@CExchange@@PAU12@@std@@YA?AU_Nonscalar_ptr_iterator_tag@0@AAPAU__ITEM@CExchange@@0@Z
_TEXT	SEGMENT PARA USE32 PUBLIC 'CODE'
_TEXT	ENDS
;	COMDAT ??$_Destroy_range@U__ITEM@CExchange@@V?$allocator@U__ITEM@CExchange@@@std@@@std@@YAXPAU__ITEM@CExchange@@0AAV?$allocator@U__ITEM@CExchange@@@0@U_Nonscalar_ptr_iterator_tag@0@@Z
_TEXT	SEGMENT PARA USE32 PUBLIC 'CODE'
_TEXT	ENDS
;	COMDAT ??$_Ptr_cat@PAU__POINT@CExchange@@PAU12@@std@@YA?AU_Nonscalar_ptr_iterator_tag@0@AAPAU__POINT@CExchange@@0@Z
_TEXT	SEGMENT PARA USE32 PUBLIC 'CODE'
_TEXT	ENDS
;	COMDAT ??$_Destroy_range@U__POINT@CExchange@@V?$allocator@U__POINT@CExchange@@@std@@@std@@YAXPAU__POINT@CExchange@@0AAV?$allocator@U__POINT@CExchange@@@0@U_Nonscalar_ptr_iterator_tag@0@@Z
_TEXT	SEGMENT PARA USE32 PUBLIC 'CODE'
_TEXT	ENDS
;	COMDAT ??$_Destroy_range@EV?$allocator@E@std@@@std@@YAXPAE0AAV?$allocator@E@0@U_Scalar_ptr_iterator_tag@0@@Z
_TEXT	SEGMENT PARA USE32 PUBLIC 'CODE'
_TEXT	ENDS
;	COMDAT ??$_Uninitialized_copy@PAU__SPAWNREGION@CEventLua@@PAU12@V?$allocator@U__SPAWNREGION@CEventLua@@@std@@@std@@YAPAU__SPAWNREGION@CEventLua@@PAU12@00AAV?$allocator@U__SPAWNREGION@CEventLua@@@0@@Z
_TEXT	SEGMENT PARA USE32 PUBLIC 'CODE'
_TEXT	ENDS
;	COMDAT ??$_Copy_backward_opt@PAU__SPAWNREGION@CEventLua@@PAU12@@std@@YAPAU__SPAWNREGION@CEventLua@@PAU12@00U_Nonscalar_ptr_iterator_tag@0@@Z
_TEXT	SEGMENT PARA USE32 PUBLIC 'CODE'
_TEXT	ENDS
;	COMDAT ??$_Ptr_cat@PAUD3DXVECTOR3@@PAU1@@std@@YA?AU_Nonscalar_ptr_iterator_tag@0@AAPAUD3DXVECTOR3@@0@Z
_TEXT	SEGMENT PARA USE32 PUBLIC 'CODE'
_TEXT	ENDS
;	COMDAT ??$_Destroy_range@UD3DXVECTOR3@@V?$allocator@UD3DXVECTOR3@@@std@@@std@@YAXPAUD3DXVECTOR3@@0AAV?$allocator@UD3DXVECTOR3@@@0@U_Nonscalar_ptr_iterator_tag@0@@Z
_TEXT	SEGMENT PARA USE32 PUBLIC 'CODE'
_TEXT	ENDS
;	COMDAT ??$_Ptr_cat@PAU_GIFTBOX@@PAU1@@std@@YA?AU_Nonscalar_ptr_iterator_tag@0@AAPAU_GIFTBOX@@0@Z
_TEXT	SEGMENT PARA USE32 PUBLIC 'CODE'
_TEXT	ENDS
;	COMDAT ??$_Destroy_range@U_GIFTBOX@@V?$allocator@U_GIFTBOX@@@std@@@std@@YAXPAU_GIFTBOX@@0AAV?$allocator@U_GIFTBOX@@@0@U_Nonscalar_ptr_iterator_tag@0@@Z
_TEXT	SEGMENT PARA USE32 PUBLIC 'CODE'
_TEXT	ENDS
;	COMDAT ??$_Destroy_range@JV?$allocator@J@std@@@std@@YAXPAJ0AAV?$allocator@J@0@U_Scalar_ptr_iterator_tag@0@@Z
_TEXT	SEGMENT PARA USE32 PUBLIC 'CODE'
_TEXT	ENDS
;	COMDAT ??$_Uninit_fill_n@JIJ@std@@YAXPAJIABJAAV?$allocator@J@0@U_Scalar_ptr_iterator_tag@0@@Z
_TEXT	SEGMENT PARA USE32 PUBLIC 'CODE'
_TEXT	ENDS
;	COMDAT ??$_Destroy_range@U__SPAWNREGION@CEventLua@@V?$allocator@U__SPAWNREGION@CEventLua@@@std@@@std@@YAXPAU__SPAWNREGION@CEventLua@@0AAV?$allocator@U__SPAWNREGION@CEventLua@@@0@U_Nonscalar_ptr_iterator_tag@0@@Z
_TEXT	SEGMENT PARA USE32 PUBLIC 'CODE'
_TEXT	ENDS
;	COMDAT ??$_Destroy@U_Node@?$_List_nod@PAXV?$allocator@PAX@std@@@std@@@std@@YAXPAU_Node@?$_List_nod@PAXV?$allocator@PAX@std@@@0@@Z
_TEXT	SEGMENT PARA USE32 PUBLIC 'CODE'
_TEXT	ENDS
;	COMDAT ??$?0PAX@?$allocator@PAU_Node@?$_List_nod@PAXV?$allocator@PAX@std@@@std@@@std@@QAE@ABV?$allocator@PAX@1@@Z
_TEXT	SEGMENT PARA USE32 PUBLIC 'CODE'
_TEXT	ENDS
;	COMDAT ??$_Allocate@U_Node@?$_List_nod@PAXV?$allocator@PAX@std@@@std@@@std@@YAPAU_Node@?$_List_nod@PAXV?$allocator@PAX@std@@@0@IPAU120@@Z
_TEXT	SEGMENT PARA USE32 PUBLIC 'CODE'
_TEXT	ENDS
;	COMDAT ??$_Construct@PAU_Node@?$_List_nod@PAXV?$allocator@PAX@std@@@std@@PAU123@@std@@YAXPAPAU_Node@?$_List_nod@PAXV?$allocator@PAX@std@@@0@ABQAU120@@Z
_TEXT	SEGMENT PARA USE32 PUBLIC 'CODE'
_TEXT	ENDS
;	COMDAT ??$_Destroy@PAU_Node@?$_List_nod@PAXV?$allocator@PAX@std@@@std@@@std@@YAXPAPAU_Node@?$_List_nod@PAXV?$allocator@PAX@std@@@0@@Z
_TEXT	SEGMENT PARA USE32 PUBLIC 'CODE'
_TEXT	ENDS
;	COMDAT ??$?0PAUtagACTMSG@@@?$allocator@PAPAUtagACTMSG@@@std@@QAE@ABV?$allocator@PAUtagACTMSG@@@1@@Z
_TEXT	SEGMENT PARA USE32 PUBLIC 'CODE'
_TEXT	ENDS
;	COMDAT ??$_Destroy@PAPAUtagACTMSG@@@std@@YAXPAPAPAUtagACTMSG@@@Z
_TEXT	SEGMENT PARA USE32 PUBLIC 'CODE'
_TEXT	ENDS
;	COMDAT ??$?0PAUtagMAGICATKMSG@@@?$allocator@PAPAUtagMAGICATKMSG@@@std@@QAE@ABV?$allocator@PAUtagMAGICATKMSG@@@1@@Z
_TEXT	SEGMENT PARA USE32 PUBLIC 'CODE'
_TEXT	ENDS
;	COMDAT ??$_Destroy@PAPAUtagMAGICATKMSG@@@std@@YAXPAPAPAUtagMAGICATKMSG@@@Z
_TEXT	SEGMENT PARA USE32 PUBLIC 'CODE'
_TEXT	ENDS
;	COMDAT ??$_Destroy@PAU_Node@?$_Tree_nod@V?$_Tmap_traits@KPAVCClientSock@@U?$less@K@std@@V?$allocator@U?$pair@$$CBKPAVCClientSock@@@std@@@3@$0A@@std@@@std@@@std@@YAXPAPAU_Node@?$_Tree_nod@V?$_Tmap_traits@KPAVCClientSock@@U?$less@K@std@@V?$allocator@U?$pair@$$CBKPAVCClientSock@@@std@@@3@$0A@@std@@@0@@Z
_TEXT	SEGMENT PARA USE32 PUBLIC 'CODE'
_TEXT	ENDS
;	COMDAT ??$_Destroy@PAU_Node@?$_Tree_nod@V?$_Tmap_traits@KPAVCClientSockE@@U?$less@K@std@@V?$allocator@U?$pair@$$CBKPAVCClientSockE@@@std@@@3@$0A@@std@@@std@@@std@@YAXPAPAU_Node@?$_Tree_nod@V?$_Tmap_traits@KPAVCClientSockE@@U?$less@K@std@@V?$allocator@U?$pair@$$CBKPAVCClientSockE@@@std@@@3@$0A@@std@@@0@@Z
_TEXT	SEGMENT PARA USE32 PUBLIC 'CODE'
_TEXT	ENDS
;	COMDAT ??$?0PAX@?$allocator@U_Node@?$_List_nod@PAXV?$allocator@PAX@std@@@std@@@std@@QAE@ABV?$allocator@PAX@1@@Z
_TEXT	SEGMENT PARA USE32 PUBLIC 'CODE'
_TEXT	ENDS
;	COMDAT ??$_Destroy@PAUtagACTMSG@@@std@@YAXPAPAUtagACTMSG@@@Z
_TEXT	SEGMENT PARA USE32 PUBLIC 'CODE'
_TEXT	ENDS
;	COMDAT ??$_Destroy@PAUtagMAGICATKMSG@@@std@@YAXPAPAUtagMAGICATKMSG@@@Z
_TEXT	SEGMENT PARA USE32 PUBLIC 'CODE'
_TEXT	ENDS
;	COMDAT ??$?0U?$pair@$$CBKPAVCClientSock@@@std@@@?$allocator@PAU_Node@?$_Tree_nod@V?$_Tmap_traits@KPAVCClientSock@@U?$less@K@std@@V?$allocator@U?$pair@$$CBKPAVCClientSock@@@std@@@3@$0A@@std@@@std@@@std@@QAE@ABV?$allocator@U?$pair@$$CBKPAVCClientSock@@@std@@@1@@Z
_TEXT	SEGMENT PARA USE32 PUBLIC 'CODE'
_TEXT	ENDS
;	COMDAT ??$?0U?$pair@$$CBKPAVCClientSockE@@@std@@@?$allocator@PAU_Node@?$_Tree_nod@V?$_Tmap_traits@KPAVCClientSockE@@U?$less@K@std@@V?$allocator@U?$pair@$$CBKPAVCClientSockE@@@std@@@3@$0A@@std@@@std@@@std@@QAE@ABV?$allocator@U?$pair@$$CBKPAVCClientSockE@@@std@@@1@@Z
_TEXT	SEGMENT PARA USE32 PUBLIC 'CODE'
_TEXT	ENDS
;	COMDAT ??$?0U?$pair@$$CBKPAVCClientSock@@@std@@@?$allocator@U_Node@?$_Tree_nod@V?$_Tmap_traits@KPAVCClientSock@@U?$less@K@std@@V?$allocator@U?$pair@$$CBKPAVCClientSock@@@std@@@3@$0A@@std@@@std@@@std@@QAE@ABV?$allocator@U?$pair@$$CBKPAVCClientSock@@@std@@@1@@Z
_TEXT	SEGMENT PARA USE32 PUBLIC 'CODE'
_TEXT	ENDS
;	COMDAT ??$_Allocate@U_Node@?$_Tree_nod@V?$_Tmap_traits@KPAVCClientSock@@U?$less@K@std@@V?$allocator@U?$pair@$$CBKPAVCClientSock@@@std@@@3@$0A@@std@@@std@@@std@@YAPAU_Node@?$_Tree_nod@V?$_Tmap_traits@KPAVCClientSock@@U?$less@K@std@@V?$allocator@U?$pair@$$CBKPAVCClientSock@@@std@@@3@$0A@@std@@@0@IPAU120@@Z
_TEXT	SEGMENT PARA USE32 PUBLIC 'CODE'
_TEXT	ENDS
;	COMDAT ??$_Destroy@U_Node@?$_Tree_nod@V?$_Tmap_traits@KPAVCClientSock@@U?$less@K@std@@V?$allocator@U?$pair@$$CBKPAVCClientSock@@@std@@@3@$0A@@std@@@std@@@std@@YAXPAU_Node@?$_Tree_nod@V?$_Tmap_traits@KPAVCClientSock@@U?$less@K@std@@V?$allocator@U?$pair@$$CBKPAVCClientSock@@@std@@@3@$0A@@std@@@0@@Z
_TEXT	SEGMENT PARA USE32 PUBLIC 'CODE'
_TEXT	ENDS
;	COMDAT ??$_Construct@PAU_Node@?$_Tree_nod@V?$_Tmap_traits@KPAVCClientSock@@U?$less@K@std@@V?$allocator@U?$pair@$$CBKPAVCClientSock@@@std@@@3@$0A@@std@@@std@@PAU123@@std@@YAXPAPAU_Node@?$_Tree_nod@V?$_Tmap_traits@KPAVCClientSock@@U?$less@K@std@@V?$allocator@U?$pair@$$CBKPAVCClientSock@@@std@@@3@$0A@@std@@@0@ABQAU120@@Z
_TEXT	SEGMENT PARA USE32 PUBLIC 'CODE'
_TEXT	ENDS
;	COMDAT ??$?0U?$pair@$$CBKPAVCClientSockE@@@std@@@?$allocator@U_Node@?$_Tree_nod@V?$_Tmap_traits@KPAVCClientSockE@@U?$less@K@std@@V?$allocator@U?$pair@$$CBKPAVCClientSockE@@@std@@@3@$0A@@std@@@std@@@std@@QAE@ABV?$allocator@U?$pair@$$CBKPAVCClientSockE@@@std@@@1@@Z
_TEXT	SEGMENT PARA USE32 PUBLIC 'CODE'
_TEXT	ENDS
;	COMDAT ??$_Allocate@U_Node@?$_Tree_nod@V?$_Tmap_traits@KPAVCClientSockE@@U?$less@K@std@@V?$allocator@U?$pair@$$CBKPAVCClientSockE@@@std@@@3@$0A@@std@@@std@@@std@@YAPAU_Node@?$_Tree_nod@V?$_Tmap_traits@KPAVCClientSockE@@U?$less@K@std@@V?$allocator@U?$pair@$$CBKPAVCClientSockE@@@std@@@3@$0A@@std@@@0@IPAU120@@Z
_TEXT	SEGMENT PARA USE32 PUBLIC 'CODE'
_TEXT	ENDS
;	COMDAT ??$_Destroy@U_Node@?$_Tree_nod@V?$_Tmap_traits@KPAVCClientSockE@@U?$less@K@std@@V?$allocator@U?$pair@$$CBKPAVCClientSockE@@@std@@@3@$0A@@std@@@std@@@std@@YAXPAU_Node@?$_Tree_nod@V?$_Tmap_traits@KPAVCClientSockE@@U?$less@K@std@@V?$allocator@U?$pair@$$CBKPAVCClientSockE@@@std@@@3@$0A@@std@@@0@@Z
_TEXT	SEGMENT PARA USE32 PUBLIC 'CODE'
_TEXT	ENDS
;	COMDAT ??$_Construct@PAU_Node@?$_Tree_nod@V?$_Tmap_traits@KPAVCClientSockE@@U?$less@K@std@@V?$allocator@U?$pair@$$CBKPAVCClientSockE@@@std@@@3@$0A@@std@@@std@@PAU123@@std@@YAXPAPAU_Node@?$_Tree_nod@V?$_Tmap_traits@KPAVCClientSockE@@U?$less@K@std@@V?$allocator@U?$pair@$$CBKPAVCClientSockE@@@std@@@3@$0A@@std@@@0@ABQAU120@@Z
_TEXT	SEGMENT PARA USE32 PUBLIC 'CODE'
_TEXT	ENDS
;	COMDAT ?destroy@?$allocator@UtagDROPITEM@@@std@@QAEXPAUtagDROPITEM@@@Z
_TEXT	SEGMENT PARA USE32 PUBLIC 'CODE'
_TEXT	ENDS
;	COMDAT ?destroy@?$allocator@UWORMON@@@std@@QAEXPAUWORMON@@@Z
_TEXT	SEGMENT PARA USE32 PUBLIC 'CODE'
_TEXT	ENDS
;	COMDAT ?destroy@?$allocator@U__ITEMGAME@CMiniGame@@@std@@QAEXPAU__ITEMGAME@CMiniGame@@@Z
_TEXT	SEGMENT PARA USE32 PUBLIC 'CODE'
_TEXT	ENDS
;	COMDAT ?destroy@?$allocator@U__ITEM@CExchange@@@std@@QAEXPAU__ITEM@CExchange@@@Z
_TEXT	SEGMENT PARA USE32 PUBLIC 'CODE'
_TEXT	ENDS
;	COMDAT ?destroy@?$allocator@U__POINT@CExchange@@@std@@QAEXPAU__POINT@CExchange@@@Z
_TEXT	SEGMENT PARA USE32 PUBLIC 'CODE'
_TEXT	ENDS
;	COMDAT ?begin@?$vector@EV?$allocator@E@std@@@std@@QAE?AViterator@12@XZ
_TEXT	SEGMENT PARA USE32 PUBLIC 'CODE'
_TEXT	ENDS
;	COMDAT ?end@?$vector@EV?$allocator@E@std@@@std@@QAE?AViterator@12@XZ
_TEXT	SEGMENT PARA USE32 PUBLIC 'CODE'
_TEXT	ENDS
;	COMDAT ?erase@?$vector@EV?$allocator@E@std@@@std@@QAE?AViterator@12@V312@0@Z
_TEXT	SEGMENT PARA USE32 PUBLIC 'CODE'
_TEXT	ENDS
;	COMDAT ?construct@?$allocator@U__SPAWNREGION@CEventLua@@@std@@QAEXPAU__SPAWNREGION@CEventLua@@ABU34@@Z
_TEXT	SEGMENT PARA USE32 PUBLIC 'CODE'
_TEXT	ENDS
;	COMDAT ?destroy@?$allocator@U__SPAWNREGION@CEventLua@@@std@@QAEXPAU__SPAWNREGION@CEventLua@@@Z
_TEXT	SEGMENT PARA USE32 PUBLIC 'CODE'
_TEXT	ENDS
;	COMDAT ?destroy@?$allocator@UD3DXVECTOR3@@@std@@QAEXPAUD3DXVECTOR3@@@Z
_TEXT	SEGMENT PARA USE32 PUBLIC 'CODE'
_TEXT	ENDS
;	COMDAT ?destroy@?$allocator@U_GIFTBOX@@@std@@QAEXPAU_GIFTBOX@@@Z
_TEXT	SEGMENT PARA USE32 PUBLIC 'CODE'
_TEXT	ENDS
;	COMDAT ??9const_iterator@?$vector@EV?$allocator@E@std@@@std@@QBE_NABV012@@Z
_TEXT	SEGMENT PARA USE32 PUBLIC 'CODE'
_TEXT	ENDS
;	COMDAT ??0iterator@?$vector@EV?$allocator@E@std@@@std@@QAE@PAE@Z
_TEXT	SEGMENT PARA USE32 PUBLIC 'CODE'
_TEXT	ENDS
;	COMDAT ??8const_iterator@?$vector@EV?$allocator@E@std@@@std@@QBE_NABV012@@Z
_TEXT	SEGMENT PARA USE32 PUBLIC 'CODE'
_TEXT	ENDS
;	COMDAT ??$insert@Vconst_iterator@?$vector@EV?$allocator@E@std@@@std@@@?$vector@EV?$allocator@E@std@@@std@@QAEXViterator@01@Vconst_iterator@01@1@Z
_TEXT	SEGMENT PARA USE32 PUBLIC 'CODE'
_TEXT	ENDS
;	COMDAT ??$_Ptr_cat@Vconst_iterator@?$vector@EV?$allocator@E@std@@@std@@PAE@std@@YA?AU_Nonscalar_ptr_iterator_tag@0@AAVconst_iterator@?$vector@EV?$allocator@E@std@@@0@AAPAE@Z
_TEXT	SEGMENT PARA USE32 PUBLIC 'CODE'
_TEXT	ENDS
;	COMDAT ??$_Uninit_copy@Vconst_iterator@?$vector@EV?$allocator@E@std@@@std@@PAEV?$allocator@E@3@@std@@YAPAEVconst_iterator@?$vector@EV?$allocator@E@std@@@0@0PAEAAV?$allocator@E@0@U_Nonscalar_ptr_iterator_tag@0@@Z
_TEXT	SEGMENT PARA USE32 PUBLIC 'CODE'
_TEXT	ENDS
;	COMDAT ??$_Uninit_copy@JJ@std@@YAPAJPAJ00AAV?$allocator@J@0@U_Scalar_ptr_iterator_tag@0@@Z
_TEXT	SEGMENT PARA USE32 PUBLIC 'CODE'
_TEXT	ENDS
;	COMDAT ??$_Uninit_copy@PAU__SPAWNREGION@CEventLua@@PAU12@V?$allocator@U__SPAWNREGION@CEventLua@@@std@@@std@@YAPAU__SPAWNREGION@CEventLua@@PAU12@00AAV?$allocator@U__SPAWNREGION@CEventLua@@@0@U_Nonscalar_ptr_iterator_tag@0@@Z
_TEXT	SEGMENT PARA USE32 PUBLIC 'CODE'
_TEXT	ENDS
;	COMDAT ??$fill_n@PAJIJ@std@@YAXPAJIABJ@Z
_TEXT	SEGMENT PARA USE32 PUBLIC 'CODE'
_TEXT	ENDS
;	COMDAT ??$_Destroy@UtagDROPITEM@@@std@@YAXPAUtagDROPITEM@@@Z
_TEXT	SEGMENT PARA USE32 PUBLIC 'CODE'
_TEXT	ENDS
;	COMDAT ??$_Destroy@UWORMON@@@std@@YAXPAUWORMON@@@Z
_TEXT	SEGMENT PARA USE32 PUBLIC 'CODE'
_TEXT	ENDS
;	COMDAT ??$_Destroy@U__ITEMGAME@CMiniGame@@@std@@YAXPAU__ITEMGAME@CMiniGame@@@Z
_TEXT	SEGMENT PARA USE32 PUBLIC 'CODE'
_TEXT	ENDS
;	COMDAT ??$_Destroy@U__ITEM@CExchange@@@std@@YAXPAU__ITEM@CExchange@@@Z
_TEXT	SEGMENT PARA USE32 PUBLIC 'CODE'
_TEXT	ENDS
;	COMDAT ??$_Destroy@U__POINT@CExchange@@@std@@YAXPAU__POINT@CExchange@@@Z
_TEXT	SEGMENT PARA USE32 PUBLIC 'CODE'
_TEXT	ENDS
;	COMDAT ??$copy@PAEPAE@std@@YAPAEPAE00@Z
_TEXT	SEGMENT PARA USE32 PUBLIC 'CODE'
_TEXT	ENDS
;	COMDAT ??$_Construct@U__SPAWNREGION@CEventLua@@U12@@std@@YAXPAU__SPAWNREGION@CEventLua@@ABU12@@Z
_TEXT	SEGMENT PARA USE32 PUBLIC 'CODE'
_TEXT	ENDS
;	COMDAT ??$_Destroy@U__SPAWNREGION@CEventLua@@@std@@YAXPAU__SPAWNREGION@CEventLua@@@Z
_TEXT	SEGMENT PARA USE32 PUBLIC 'CODE'
_TEXT	ENDS
;	COMDAT ??$_Destroy@UD3DXVECTOR3@@@std@@YAXPAUD3DXVECTOR3@@@Z
_TEXT	SEGMENT PARA USE32 PUBLIC 'CODE'
_TEXT	ENDS
;	COMDAT ??$_Destroy@U_GIFTBOX@@@std@@YAXPAU_GIFTBOX@@@Z
_TEXT	SEGMENT PARA USE32 PUBLIC 'CODE'
_TEXT	ENDS
;	COMDAT ?construct@?$allocator@E@std@@QAEXPAEABE@Z
_TEXT	SEGMENT PARA USE32 PUBLIC 'CODE'
_TEXT	ENDS
;	COMDAT ?destroy@?$allocator@E@std@@QAEXPAE@Z
_TEXT	SEGMENT PARA USE32 PUBLIC 'CODE'
_TEXT	ENDS
;	COMDAT ??Dconst_iterator@?$vector@EV?$allocator@E@std@@@std@@QBEABEXZ
_TEXT	SEGMENT PARA USE32 PUBLIC 'CODE'
_TEXT	ENDS
;	COMDAT ??Econst_iterator@?$vector@EV?$allocator@E@std@@@std@@QAEAAV012@XZ
_TEXT	SEGMENT PARA USE32 PUBLIC 'CODE'
_TEXT	ENDS
;	COMDAT ??$_Insert@Vconst_iterator@?$vector@EV?$allocator@E@std@@@std@@@?$vector@EV?$allocator@E@std@@@std@@QAEXViterator@01@Vconst_iterator@01@1Uforward_iterator_tag@1@@Z
_TEXT	SEGMENT PARA USE32 PUBLIC 'CODE'
_TEXT	ENDS
;	COMDAT ??$_Copy_opt@PAEPAE@std@@YAPAEPAE00U_Scalar_ptr_iterator_tag@0@@Z
_TEXT	SEGMENT PARA USE32 PUBLIC 'CODE'
_TEXT	ENDS
;	COMDAT ??$_Construct@EE@std@@YAXPAEABE@Z
_TEXT	SEGMENT PARA USE32 PUBLIC 'CODE'
_TEXT	ENDS
;	COMDAT ??$_Destroy@E@std@@YAXPAE@Z
_TEXT	SEGMENT PARA USE32 PUBLIC 'CODE'
_TEXT	ENDS
;	COMDAT ?capacity@?$vector@EV?$allocator@E@std@@@std@@QBEIXZ
_TEXT	SEGMENT PARA USE32 PUBLIC 'CODE'
_TEXT	ENDS
;	COMDAT ??Giterator@?$vector@EV?$allocator@E@std@@@std@@QBEHABVconst_iterator@12@@Z
_TEXT	SEGMENT PARA USE32 PUBLIC 'CODE'
_TEXT	ENDS
;	COMDAT ??Gconst_iterator@?$vector@EV?$allocator@E@std@@@std@@QBEHABV012@@Z
_TEXT	SEGMENT PARA USE32 PUBLIC 'CODE'
_TEXT	ENDS
;	COMDAT ??$_Distance@Vconst_iterator@?$vector@EV?$allocator@E@std@@@std@@I@std@@YAXVconst_iterator@?$vector@EV?$allocator@E@std@@@0@0AAI@Z
_TEXT	SEGMENT PARA USE32 PUBLIC 'CODE'
_TEXT	ENDS
;	COMDAT ??$_Ucopy@PAE@?$vector@EV?$allocator@E@std@@@std@@IAEPAEPAE00@Z
_TEXT	SEGMENT PARA USE32 PUBLIC 'CODE'
_TEXT	ENDS
;	COMDAT ??$advance@Vconst_iterator@?$vector@EV?$allocator@E@std@@@std@@H@std@@YAXAAVconst_iterator@?$vector@EV?$allocator@E@std@@@0@H@Z
_TEXT	SEGMENT PARA USE32 PUBLIC 'CODE'
_TEXT	ENDS
;	COMDAT ??$copy@Vconst_iterator@?$vector@EV?$allocator@E@std@@@std@@PAE@std@@YAPAEVconst_iterator@?$vector@EV?$allocator@E@std@@@0@0PAE@Z
_TEXT	SEGMENT PARA USE32 PUBLIC 'CODE'
_TEXT	ENDS
;	COMDAT ??$copy_backward@PAEPAE@std@@YAPAEPAE00@Z
_TEXT	SEGMENT PARA USE32 PUBLIC 'CODE'
_TEXT	ENDS
;	COMDAT ??$_Distance2@Vconst_iterator@?$vector@EV?$allocator@E@std@@@std@@I@std@@YAXVconst_iterator@?$vector@EV?$allocator@E@std@@@0@0AAIUrandom_access_iterator_tag@0@@Z
_TEXT	SEGMENT PARA USE32 PUBLIC 'CODE'
_TEXT	ENDS
;	COMDAT ??$_Uninitialized_copy@PAEPAEV?$allocator@E@std@@@std@@YAPAEPAE00AAV?$allocator@E@0@@Z
_TEXT	SEGMENT PARA USE32 PUBLIC 'CODE'
_TEXT	ENDS
;	COMDAT ??$_Advance@Vconst_iterator@?$vector@EV?$allocator@E@std@@@std@@H@std@@YAXAAVconst_iterator@?$vector@EV?$allocator@E@std@@@0@HUrandom_access_iterator_tag@0@@Z
_TEXT	SEGMENT PARA USE32 PUBLIC 'CODE'
_TEXT	ENDS
;	COMDAT ??$_Copy_opt@Vconst_iterator@?$vector@EV?$allocator@E@std@@@std@@PAE@std@@YAPAEVconst_iterator@?$vector@EV?$allocator@E@std@@@0@0PAEU_Nonscalar_ptr_iterator_tag@0@@Z
_TEXT	SEGMENT PARA USE32 PUBLIC 'CODE'
_TEXT	ENDS
;	COMDAT ??$_Copy_backward_opt@PAEPAE@std@@YAPAEPAE00U_Scalar_ptr_iterator_tag@0@@Z
_TEXT	SEGMENT PARA USE32 PUBLIC 'CODE'
_TEXT	ENDS
;	COMDAT ??Yconst_iterator@?$vector@EV?$allocator@E@std@@@std@@QAEAAV012@H@Z
_TEXT	SEGMENT PARA USE32 PUBLIC 'CODE'
_TEXT	ENDS
;	COMDAT ??$_Uninit_copy@EE@std@@YAPAEPAE00AAV?$allocator@E@0@U_Scalar_ptr_iterator_tag@0@@Z
_TEXT	SEGMENT PARA USE32 PUBLIC 'CODE'
_TEXT	ENDS
;	COMDAT ?deallocate@?$allocator@E@std@@QAEXPAEI@Z
_TEXT	SEGMENT PARA USE32 PUBLIC 'CODE'
_TEXT	ENDS
;	COMDAT ??$_Ucopy@Vconst_iterator@?$vector@EV?$allocator@E@std@@@std@@@?$vector@EV?$allocator@E@std@@@std@@IAEPAEVconst_iterator@01@0PAE@Z
_TEXT	SEGMENT PARA USE32 PUBLIC 'CODE'
_TEXT	ENDS
;	COMDAT ?allocate@?$allocator@E@std@@QAEPAEI@Z
_TEXT	SEGMENT PARA USE32 PUBLIC 'CODE'
_TEXT	ENDS
;	COMDAT ??$_Allocate@E@std@@YAPAEIPAE@Z
_TEXT	SEGMENT PARA USE32 PUBLIC 'CODE'
_TEXT	ENDS
;	COMDAT ?_Xlen@?$vector@EV?$allocator@E@std@@@std@@IBEXXZ
_TEXT	SEGMENT PARA USE32 PUBLIC 'CODE'
_TEXT	ENDS
;	COMDAT ??_C@_0BD@OLBABOEK@vector?$DMT?$DO?5too?5long?$AA@
CONST	SEGMENT DWORD USE32 PUBLIC 'CONST'
CONST	ENDS
;	COMDAT ?size@?$vector@EV?$allocator@E@std@@@std@@QBEIXZ
_TEXT	SEGMENT PARA USE32 PUBLIC 'CODE'
_TEXT	ENDS
;	COMDAT ?max_size@?$vector@EV?$allocator@E@std@@@std@@QBEIXZ
_TEXT	SEGMENT PARA USE32 PUBLIC 'CODE'
_TEXT	ENDS
;	COMDAT ?max_size@?$allocator@E@std@@QBEIXZ
_TEXT	SEGMENT PARA USE32 PUBLIC 'CODE'
_TEXT	ENDS
;	COMDAT ?_Ptr_cat@std@@YA?AU_Scalar_ptr_iterator_tag@1@PAE0@Z
_TEXT	SEGMENT PARA USE32 PUBLIC 'CODE'
_TEXT	ENDS
;	COMDAT ??0const_iterator@?$vector@EV?$allocator@E@std@@@std@@QAE@PAE@Z
_TEXT	SEGMENT PARA USE32 PUBLIC 'CODE'
_TEXT	ENDS
;	COMDAT ?_Destroy@?$vector@EV?$allocator@E@std@@@std@@IAEXPAE0@Z
_TEXT	SEGMENT PARA USE32 PUBLIC 'CODE'
_TEXT	ENDS
;	COMDAT ??$_Destroy_range@EV?$allocator@E@std@@@std@@YAXPAE0AAV?$allocator@E@0@@Z
_TEXT	SEGMENT PARA USE32 PUBLIC 'CODE'
_TEXT	ENDS
;	COMDAT ?_Ptr_cat@std@@YA?AU_Scalar_ptr_iterator_tag@1@PAJ0@Z
_TEXT	SEGMENT PARA USE32 PUBLIC 'CODE'
_TEXT	ENDS
;	COMDAT ??9const_iterator@?$_Tree@V?$_Tmap_traits@KEU?$less@K@std@@V?$allocator@U?$pair@$$CBKE@std@@@2@$0A@@std@@@std@@QBE_NABV012@@Z
_TEXT	SEGMENT PARA USE32 PUBLIC 'CODE'
_TEXT	ENDS
;	COMDAT ??8const_iterator@?$_Tree@V?$_Tmap_traits@KEU?$less@K@std@@V?$allocator@U?$pair@$$CBKE@std@@@2@$0A@@std@@@std@@QBE_NABV012@@Z
_TEXT	SEGMENT PARA USE32 PUBLIC 'CODE'
_TEXT	ENDS
;	COMDAT ??Eiterator@?$_Tree@V?$_Tmap_traits@KEU?$less@K@std@@V?$allocator@U?$pair@$$CBKE@std@@@2@$0A@@std@@@std@@QAEAAV012@XZ
_TEXT	SEGMENT PARA USE32 PUBLIC 'CODE'
_TEXT	ENDS
;	COMDAT ??Econst_iterator@?$_Tree@V?$_Tmap_traits@KEU?$less@K@std@@V?$allocator@U?$pair@$$CBKE@std@@@2@$0A@@std@@@std@@QAEAAV012@XZ
_TEXT	SEGMENT PARA USE32 PUBLIC 'CODE'
_TEXT	ENDS
;	COMDAT ?_Inc@const_iterator@?$_Tree@V?$_Tmap_traits@KEU?$less@K@std@@V?$allocator@U?$pair@$$CBKE@std@@@2@$0A@@std@@@std@@QAEXXZ
_TEXT	SEGMENT PARA USE32 PUBLIC 'CODE'
_TEXT	ENDS
;	COMDAT ?_Min@?$_Tree@V?$_Tmap_traits@KEU?$less@K@std@@V?$allocator@U?$pair@$$CBKE@std@@@2@$0A@@std@@@std@@KAPAU_Node@?$_Tree_nod@V?$_Tmap_traits@KEU?$less@K@std@@V?$allocator@U?$pair@$$CBKE@std@@@2@$0A@@std@@@2@PAU342@@Z
_TEXT	SEGMENT PARA USE32 PUBLIC 'CODE'
_TEXT	ENDS
;	COMDAT ?_Left@?$_Tree@V?$_Tmap_traits@KEU?$less@K@std@@V?$allocator@U?$pair@$$CBKE@std@@@2@$0A@@std@@@std@@KAAAPAU_Node@?$_Tree_nod@V?$_Tmap_traits@KEU?$less@K@std@@V?$allocator@U?$pair@$$CBKE@std@@@2@$0A@@std@@@2@PAU342@@Z
_TEXT	SEGMENT PARA USE32 PUBLIC 'CODE'
_TEXT	ENDS
;	COMDAT ?_Isnil@?$_Tree@V?$_Tmap_traits@KEU?$less@K@std@@V?$allocator@U?$pair@$$CBKE@std@@@2@$0A@@std@@@std@@KAAADPAU_Node@?$_Tree_nod@V?$_Tmap_traits@KEU?$less@K@std@@V?$allocator@U?$pair@$$CBKE@std@@@2@$0A@@std@@@2@@Z
_TEXT	SEGMENT PARA USE32 PUBLIC 'CODE'
_TEXT	ENDS
;	COMDAT ?_Parent@?$_Tree@V?$_Tmap_traits@KEU?$less@K@std@@V?$allocator@U?$pair@$$CBKE@std@@@2@$0A@@std@@@std@@KAAAPAU_Node@?$_Tree_nod@V?$_Tmap_traits@KEU?$less@K@std@@V?$allocator@U?$pair@$$CBKE@std@@@2@$0A@@std@@@2@PAU342@@Z
_TEXT	SEGMENT PARA USE32 PUBLIC 'CODE'
_TEXT	ENDS
;	COMDAT ?_Right@?$_Tree@V?$_Tmap_traits@KEU?$less@K@std@@V?$allocator@U?$pair@$$CBKE@std@@@2@$0A@@std@@@std@@KAAAPAU_Node@?$_Tree_nod@V?$_Tmap_traits@KEU?$less@K@std@@V?$allocator@U?$pair@$$CBKE@std@@@2@$0A@@std@@@2@PAU342@@Z
_TEXT	SEGMENT PARA USE32 PUBLIC 'CODE'
_TEXT	ENDS
;	COMDAT ??9const_iterator@?$_Tree@V?$_Tmap_traits@KPAVCCtrl@@U?$less@K@std@@V?$allocator@U?$pair@$$CBKPAVCCtrl@@@std@@@3@$0A@@std@@@std@@QBE_NABV012@@Z
_TEXT	SEGMENT PARA USE32 PUBLIC 'CODE'
_TEXT	ENDS
;	COMDAT ??8const_iterator@?$_Tree@V?$_Tmap_traits@KPAVCCtrl@@U?$less@K@std@@V?$allocator@U?$pair@$$CBKPAVCCtrl@@@std@@@3@$0A@@std@@@std@@QBE_NABV012@@Z
_TEXT	SEGMENT PARA USE32 PUBLIC 'CODE'
_TEXT	ENDS
;	COMDAT ??Eiterator@?$_Tree@V?$_Tmap_traits@KPAVCCtrl@@U?$less@K@std@@V?$allocator@U?$pair@$$CBKPAVCCtrl@@@std@@@3@$0A@@std@@@std@@QAEAAV012@XZ
_TEXT	SEGMENT PARA USE32 PUBLIC 'CODE'
_TEXT	ENDS
;	COMDAT ??Econst_iterator@?$_Tree@V?$_Tmap_traits@KPAVCCtrl@@U?$less@K@std@@V?$allocator@U?$pair@$$CBKPAVCCtrl@@@std@@@3@$0A@@std@@@std@@QAEAAV012@XZ
_TEXT	SEGMENT PARA USE32 PUBLIC 'CODE'
_TEXT	ENDS
;	COMDAT ?_Inc@const_iterator@?$_Tree@V?$_Tmap_traits@KPAVCCtrl@@U?$less@K@std@@V?$allocator@U?$pair@$$CBKPAVCCtrl@@@std@@@3@$0A@@std@@@std@@QAEXXZ
_TEXT	SEGMENT PARA USE32 PUBLIC 'CODE'
_TEXT	ENDS
;	COMDAT ?_Min@?$_Tree@V?$_Tmap_traits@KPAVCCtrl@@U?$less@K@std@@V?$allocator@U?$pair@$$CBKPAVCCtrl@@@std@@@3@$0A@@std@@@std@@KAPAU_Node@?$_Tree_nod@V?$_Tmap_traits@KPAVCCtrl@@U?$less@K@std@@V?$allocator@U?$pair@$$CBKPAVCCtrl@@@std@@@3@$0A@@std@@@2@PAU342@@Z
_TEXT	SEGMENT PARA USE32 PUBLIC 'CODE'
_TEXT	ENDS
;	COMDAT ?_Left@?$_Tree@V?$_Tmap_traits@KPAVCCtrl@@U?$less@K@std@@V?$allocator@U?$pair@$$CBKPAVCCtrl@@@std@@@3@$0A@@std@@@std@@KAAAPAU_Node@?$_Tree_nod@V?$_Tmap_traits@KPAVCCtrl@@U?$less@K@std@@V?$allocator@U?$pair@$$CBKPAVCCtrl@@@std@@@3@$0A@@std@@@2@PAU342@@Z
_TEXT	SEGMENT PARA USE32 PUBLIC 'CODE'
_TEXT	ENDS
;	COMDAT ?_Isnil@?$_Tree@V?$_Tmap_traits@KPAVCCtrl@@U?$less@K@std@@V?$allocator@U?$pair@$$CBKPAVCCtrl@@@std@@@3@$0A@@std@@@std@@KAAADPAU_Node@?$_Tree_nod@V?$_Tmap_traits@KPAVCCtrl@@U?$less@K@std@@V?$allocator@U?$pair@$$CBKPAVCCtrl@@@std@@@3@$0A@@std@@@2@@Z
_TEXT	SEGMENT PARA USE32 PUBLIC 'CODE'
_TEXT	ENDS
;	COMDAT ?_Parent@?$_Tree@V?$_Tmap_traits@KPAVCCtrl@@U?$less@K@std@@V?$allocator@U?$pair@$$CBKPAVCCtrl@@@std@@@3@$0A@@std@@@std@@KAAAPAU_Node@?$_Tree_nod@V?$_Tmap_traits@KPAVCCtrl@@U?$less@K@std@@V?$allocator@U?$pair@$$CBKPAVCCtrl@@@std@@@3@$0A@@std@@@2@PAU342@@Z
_TEXT	SEGMENT PARA USE32 PUBLIC 'CODE'
_TEXT	ENDS
;	COMDAT ?_Right@?$_Tree@V?$_Tmap_traits@KPAVCCtrl@@U?$less@K@std@@V?$allocator@U?$pair@$$CBKPAVCCtrl@@@std@@@3@$0A@@std@@@std@@KAAAPAU_Node@?$_Tree_nod@V?$_Tmap_traits@KPAVCCtrl@@U?$less@K@std@@V?$allocator@U?$pair@$$CBKPAVCCtrl@@@std@@@3@$0A@@std@@@2@PAU342@@Z
_TEXT	SEGMENT PARA USE32 PUBLIC 'CODE'
_TEXT	ENDS
;	COMDAT ??9const_iterator@?$_Tree@V?$_Tmap_traits@KPAVCUser@@U?$less@K@std@@V?$allocator@U?$pair@$$CBKPAVCUser@@@std@@@3@$0A@@std@@@std@@QBE_NABV012@@Z
_TEXT	SEGMENT PARA USE32 PUBLIC 'CODE'
_TEXT	ENDS
;	COMDAT ??8const_iterator@?$_Tree@V?$_Tmap_traits@KPAVCUser@@U?$less@K@std@@V?$allocator@U?$pair@$$CBKPAVCUser@@@std@@@3@$0A@@std@@@std@@QBE_NABV012@@Z
_TEXT	SEGMENT PARA USE32 PUBLIC 'CODE'
_TEXT	ENDS
;	COMDAT ??Eiterator@?$_Tree@V?$_Tmap_traits@KPAVCUser@@U?$less@K@std@@V?$allocator@U?$pair@$$CBKPAVCUser@@@std@@@3@$0A@@std@@@std@@QAEAAV012@XZ
_TEXT	SEGMENT PARA USE32 PUBLIC 'CODE'
_TEXT	ENDS
;	COMDAT ??Econst_iterator@?$_Tree@V?$_Tmap_traits@KPAVCUser@@U?$less@K@std@@V?$allocator@U?$pair@$$CBKPAVCUser@@@std@@@3@$0A@@std@@@std@@QAEAAV012@XZ
_TEXT	SEGMENT PARA USE32 PUBLIC 'CODE'
_TEXT	ENDS
;	COMDAT ?_Inc@const_iterator@?$_Tree@V?$_Tmap_traits@KPAVCUser@@U?$less@K@std@@V?$allocator@U?$pair@$$CBKPAVCUser@@@std@@@3@$0A@@std@@@std@@QAEXXZ
_TEXT	SEGMENT PARA USE32 PUBLIC 'CODE'
_TEXT	ENDS
;	COMDAT ?_Min@?$_Tree@V?$_Tmap_traits@KPAVCUser@@U?$less@K@std@@V?$allocator@U?$pair@$$CBKPAVCUser@@@std@@@3@$0A@@std@@@std@@KAPAU_Node@?$_Tree_nod@V?$_Tmap_traits@KPAVCUser@@U?$less@K@std@@V?$allocator@U?$pair@$$CBKPAVCUser@@@std@@@3@$0A@@std@@@2@PAU342@@Z
_TEXT	SEGMENT PARA USE32 PUBLIC 'CODE'
_TEXT	ENDS
;	COMDAT ?_Left@?$_Tree@V?$_Tmap_traits@KPAVCUser@@U?$less@K@std@@V?$allocator@U?$pair@$$CBKPAVCUser@@@std@@@3@$0A@@std@@@std@@KAAAPAU_Node@?$_Tree_nod@V?$_Tmap_traits@KPAVCUser@@U?$less@K@std@@V?$allocator@U?$pair@$$CBKPAVCUser@@@std@@@3@$0A@@std@@@2@PAU342@@Z
_TEXT	SEGMENT PARA USE32 PUBLIC 'CODE'
_TEXT	ENDS
;	COMDAT ?_Isnil@?$_Tree@V?$_Tmap_traits@KPAVCUser@@U?$less@K@std@@V?$allocator@U?$pair@$$CBKPAVCUser@@@std@@@3@$0A@@std@@@std@@KAAADPAU_Node@?$_Tree_nod@V?$_Tmap_traits@KPAVCUser@@U?$less@K@std@@V?$allocator@U?$pair@$$CBKPAVCUser@@@std@@@3@$0A@@std@@@2@@Z
_TEXT	SEGMENT PARA USE32 PUBLIC 'CODE'
_TEXT	ENDS
;	COMDAT ?_Parent@?$_Tree@V?$_Tmap_traits@KPAVCUser@@U?$less@K@std@@V?$allocator@U?$pair@$$CBKPAVCUser@@@std@@@3@$0A@@std@@@std@@KAAAPAU_Node@?$_Tree_nod@V?$_Tmap_traits@KPAVCUser@@U?$less@K@std@@V?$allocator@U?$pair@$$CBKPAVCUser@@@std@@@3@$0A@@std@@@2@PAU342@@Z
_TEXT	SEGMENT PARA USE32 PUBLIC 'CODE'
_TEXT	ENDS
;	COMDAT ?_Right@?$_Tree@V?$_Tmap_traits@KPAVCUser@@U?$less@K@std@@V?$allocator@U?$pair@$$CBKPAVCUser@@@std@@@3@$0A@@std@@@std@@KAAAPAU_Node@?$_Tree_nod@V?$_Tmap_traits@KPAVCUser@@U?$less@K@std@@V?$allocator@U?$pair@$$CBKPAVCUser@@@std@@@3@$0A@@std@@@2@PAU342@@Z
_TEXT	SEGMENT PARA USE32 PUBLIC 'CODE'
_TEXT	ENDS
;	COMDAT ?_Psave@?$_Facetptr@V?$ctype@G@std@@@std@@2PBVfacet@locale@2@B
_DATA	SEGMENT DWORD USE32 PUBLIC 'DATA'
_DATA	ENDS
;	COMDAT ?_Psave@?$_Facetptr@V?$ctype@D@std@@@std@@2PBVfacet@locale@2@B
_DATA	SEGMENT DWORD USE32 PUBLIC 'DATA'
_DATA	ENDS
;	COMDAT ??$swap@D@std@@YAXAAD0@Z
_TEXT	SEGMENT PARA USE32 PUBLIC 'CODE'
_TEXT	ENDS
;	COMDAT __TI3?AVout_of_range@std@@
xdata$x	SEGMENT DWORD USE32 PUBLIC 'CONST'
xdata$x	ENDS
;	COMDAT ??1out_of_range@std@@UAE@XZ
_TEXT	SEGMENT PARA USE32 PUBLIC 'CODE'
_TEXT	ENDS
;	COMDAT ??_7out_of_range@std@@6B@
CONST	SEGMENT DWORD USE32 PUBLIC 'CONST'
CONST	ENDS
;	COMDAT ??_Gout_of_range@std@@UAEPAXI@Z
_TEXT	SEGMENT PARA USE32 PUBLIC 'CODE'
_TEXT	ENDS
;	COMDAT ?what@logic_error@std@@UBEPBDXZ
_TEXT	SEGMENT PARA USE32 PUBLIC 'CODE'
_TEXT	ENDS
;	COMDAT ?c_str@?$basic_string@DU?$char_traits@D@std@@V?$allocator@D@2@@std@@QBEPBDXZ
_TEXT	SEGMENT PARA USE32 PUBLIC 'CODE'
_TEXT	ENDS
;	COMDAT ??1logic_error@std@@UAE@XZ
_TEXT	SEGMENT PARA USE32 PUBLIC 'CODE'
_TEXT	ENDS
;	COMDAT ??_7logic_error@std@@6B@
CONST	SEGMENT DWORD USE32 PUBLIC 'CONST'
CONST	ENDS
;	COMDAT ??_Glogic_error@std@@UAEPAXI@Z
_TEXT	SEGMENT PARA USE32 PUBLIC 'CODE'
_TEXT	ENDS
;	COMDAT __CTA3?AVout_of_range@std@@
xdata$x	SEGMENT DWORD USE32 PUBLIC 'CONST'
xdata$x	ENDS
;	COMDAT __CT??_R0?AVout_of_range@std@@@8??0out_of_range@std@@QAE@ABV01@@Z40
xdata$x	SEGMENT DWORD USE32 PUBLIC 'CONST'
xdata$x	ENDS
;	COMDAT ??_R0?AVout_of_range@std@@@8
_DATA	SEGMENT DWORD USE32 PUBLIC 'DATA'
_DATA	ENDS
;	COMDAT ??0out_of_range@std@@QAE@ABV01@@Z
_TEXT	SEGMENT PARA USE32 PUBLIC 'CODE'
_TEXT	ENDS
;	COMDAT ??0logic_error@std@@QAE@ABV01@@Z
_TEXT	SEGMENT PARA USE32 PUBLIC 'CODE'
_TEXT	ENDS
;	COMDAT ??0?$basic_string@DU?$char_traits@D@std@@V?$allocator@D@2@@std@@QAE@ABV01@@Z
_TEXT	SEGMENT PARA USE32 PUBLIC 'CODE'
_TEXT	ENDS
;	COMDAT ??0?$_String_val@DV?$allocator@D@std@@@std@@IAE@V?$allocator@D@1@@Z
_TEXT	SEGMENT PARA USE32 PUBLIC 'CODE'
_TEXT	ENDS
;	COMDAT ??0?$allocator@D@std@@QAE@ABV01@@Z
_TEXT	SEGMENT PARA USE32 PUBLIC 'CODE'
_TEXT	ENDS
;	COMDAT ?_Tidy@?$basic_string@DU?$char_traits@D@std@@V?$allocator@D@2@@std@@IAEX_NI@Z
_TEXT	SEGMENT PARA USE32 PUBLIC 'CODE'
_TEXT	ENDS
;	COMDAT ?copy@?$char_traits@D@std@@SAPADPADPBDI@Z
_TEXT	SEGMENT PARA USE32 PUBLIC 'CODE'
_TEXT	ENDS
;	COMDAT ?deallocate@?$allocator@D@std@@QAEXPADI@Z
_TEXT	SEGMENT PARA USE32 PUBLIC 'CODE'
_TEXT	ENDS
;	COMDAT ?_Eos@?$basic_string@DU?$char_traits@D@std@@V?$allocator@D@2@@std@@IAEXI@Z
_TEXT	SEGMENT PARA USE32 PUBLIC 'CODE'
_TEXT	ENDS
;	COMDAT ?assign@?$char_traits@D@std@@SAXAADABD@Z
_TEXT	SEGMENT PARA USE32 PUBLIC 'CODE'
_TEXT	ENDS
;	COMDAT ?_Myptr@?$basic_string@DU?$char_traits@D@std@@V?$allocator@D@2@@std@@QAEPADXZ
_TEXT	SEGMENT PARA USE32 PUBLIC 'CODE'
_TEXT	ENDS
;	COMDAT ?assign@?$basic_string@DU?$char_traits@D@std@@V?$allocator@D@2@@std@@QAEAAV12@ABV12@II@Z
_TEXT	SEGMENT PARA USE32 PUBLIC 'CODE'
_TEXT	ENDS
;	COMDAT ?erase@?$basic_string@DU?$char_traits@D@std@@V?$allocator@D@2@@std@@QAEAAV12@II@Z
_TEXT	SEGMENT PARA USE32 PUBLIC 'CODE'
_TEXT	ENDS
;	COMDAT ?move@?$char_traits@D@std@@SAPADPADPBDI@Z
_TEXT	SEGMENT PARA USE32 PUBLIC 'CODE'
_TEXT	ENDS
;	COMDAT ?_Grow@?$basic_string@DU?$char_traits@D@std@@V?$allocator@D@2@@std@@IAE_NI_N@Z
_TEXT	SEGMENT PARA USE32 PUBLIC 'CODE'
_TEXT	ENDS
;	COMDAT ?max_size@?$basic_string@DU?$char_traits@D@std@@V?$allocator@D@2@@std@@QBEIXZ
_TEXT	SEGMENT PARA USE32 PUBLIC 'CODE'
_TEXT	ENDS
;	COMDAT ?max_size@?$allocator@D@std@@QBEIXZ
_TEXT	SEGMENT PARA USE32 PUBLIC 'CODE'
_TEXT	ENDS
;	COMDAT ?_Copy@?$basic_string@DU?$char_traits@D@std@@V?$allocator@D@2@@std@@IAEXII@Z
_TEXT	SEGMENT PARA USE32 PUBLIC 'CODE'
_TEXT	ENDS
;	COMDAT ?allocate@?$allocator@D@std@@QAEPADI@Z
_TEXT	SEGMENT PARA USE32 PUBLIC 'CODE'
_TEXT	ENDS
;	COMDAT ??$_Allocate@D@std@@YAPADIPAD@Z
_TEXT	SEGMENT PARA USE32 PUBLIC 'CODE'
_TEXT	ENDS
;	COMDAT ?npos@?$basic_string@DU?$char_traits@D@std@@V?$allocator@D@2@@std@@2IB
CONST	SEGMENT DWORD USE32 PUBLIC 'CONST'
CONST	ENDS
;	COMDAT __CT??_R0?AVlogic_error@std@@@8??0logic_error@std@@QAE@ABV01@@Z40
xdata$x	SEGMENT DWORD USE32 PUBLIC 'CONST'
xdata$x	ENDS
;	COMDAT ??_R0?AVlogic_error@std@@@8
_DATA	SEGMENT DWORD USE32 PUBLIC 'DATA'
_DATA	ENDS
;	COMDAT __CT??_R0?AVexception@@@8??0exception@@QAE@ABV0@@Z12
xdata$x	SEGMENT DWORD USE32 PUBLIC 'CONST'
xdata$x	ENDS
;	COMDAT ??_R0?AVexception@@@8
_DATA	SEGMENT DWORD USE32 PUBLIC 'DATA'
_DATA	ENDS
;	COMDAT ??_C@_0BM@PAPJHAGI@invalid?5map?1set?$DMT?$DO?5iterator?$AA@
CONST	SEGMENT DWORD USE32 PUBLIC 'CONST'
CONST	ENDS
;	COMDAT ??0out_of_range@std@@QAE@ABV?$basic_string@DU?$char_traits@D@std@@V?$allocator@D@2@@1@@Z
_TEXT	SEGMENT PARA USE32 PUBLIC 'CODE'
_TEXT	ENDS
;	COMDAT ??0logic_error@std@@QAE@ABV?$basic_string@DU?$char_traits@D@std@@V?$allocator@D@2@@1@@Z
_TEXT	SEGMENT PARA USE32 PUBLIC 'CODE'
_TEXT	ENDS
;	COMDAT __TI3?AVlength_error@std@@
xdata$x	SEGMENT DWORD USE32 PUBLIC 'CONST'
xdata$x	ENDS
;	COMDAT ??1length_error@std@@UAE@XZ
_TEXT	SEGMENT PARA USE32 PUBLIC 'CODE'
_TEXT	ENDS
;	COMDAT ??_7length_error@std@@6B@
CONST	SEGMENT DWORD USE32 PUBLIC 'CONST'
CONST	ENDS
;	COMDAT ??_Glength_error@std@@UAEPAXI@Z
_TEXT	SEGMENT PARA USE32 PUBLIC 'CODE'
_TEXT	ENDS
;	COMDAT __CTA3?AVlength_error@std@@
xdata$x	SEGMENT DWORD USE32 PUBLIC 'CONST'
xdata$x	ENDS
;	COMDAT __CT??_R0?AVlength_error@std@@@8??0length_error@std@@QAE@ABV01@@Z40
xdata$x	SEGMENT DWORD USE32 PUBLIC 'CONST'
xdata$x	ENDS
;	COMDAT ??_R0?AVlength_error@std@@@8
_DATA	SEGMENT DWORD USE32 PUBLIC 'DATA'
_DATA	ENDS
;	COMDAT ??0length_error@std@@QAE@ABV01@@Z
_TEXT	SEGMENT PARA USE32 PUBLIC 'CODE'
_TEXT	ENDS
;	COMDAT ??1?$basic_string@DU?$char_traits@D@std@@V?$allocator@D@2@@std@@QAE@XZ
_TEXT	SEGMENT PARA USE32 PUBLIC 'CODE'
_TEXT	ENDS
;	COMDAT ??0?$basic_string@DU?$char_traits@D@std@@V?$allocator@D@2@@std@@QAE@PBD@Z
_TEXT	SEGMENT PARA USE32 PUBLIC 'CODE'
_TEXT	ENDS
;	COMDAT ??0?$allocator@D@std@@QAE@XZ
_TEXT	SEGMENT PARA USE32 PUBLIC 'CODE'
_TEXT	ENDS
;	COMDAT ?assign@?$basic_string@DU?$char_traits@D@std@@V?$allocator@D@2@@std@@QAEAAV12@PBD@Z
_TEXT	SEGMENT PARA USE32 PUBLIC 'CODE'
_TEXT	ENDS
;	COMDAT ?assign@?$basic_string@DU?$char_traits@D@std@@V?$allocator@D@2@@std@@QAEAAV12@PBDI@Z
_TEXT	SEGMENT PARA USE32 PUBLIC 'CODE'
_TEXT	ENDS
;	COMDAT ?_Inside@?$basic_string@DU?$char_traits@D@std@@V?$allocator@D@2@@std@@IAE_NPBD@Z
_TEXT	SEGMENT PARA USE32 PUBLIC 'CODE'
_TEXT	ENDS
;	COMDAT ?length@?$char_traits@D@std@@SAIPBD@Z
_TEXT	SEGMENT PARA USE32 PUBLIC 'CODE'
_TEXT	ENDS
;	COMDAT ??0length_error@std@@QAE@ABV?$basic_string@DU?$char_traits@D@std@@V?$allocator@D@2@@1@@Z
_TEXT	SEGMENT PARA USE32 PUBLIC 'CODE'
_TEXT	ENDS
;	COMDAT ??3@YAXPAX0@Z
_TEXT	SEGMENT PARA USE32 PUBLIC 'CODE'
_TEXT	ENDS
;	COMDAT ??2@YAPAXIPAX@Z
_TEXT	SEGMENT PARA USE32 PUBLIC 'CODE'
_TEXT	ENDS
;	COMDAT ?compare@?$char_traits@D@std@@SAHPBD0I@Z
_TEXT	SEGMENT PARA USE32 PUBLIC 'CODE'
_TEXT	ENDS
;	COMDAT ??R?$less@K@std@@QBE_NABK0@Z
_TEXT	SEGMENT PARA USE32 PUBLIC 'CODE'
_TEXT	ENDS
;	COMDAT ?_Myptr@?$basic_string@DU?$char_traits@D@std@@V?$allocator@D@2@@std@@QBEPBDXZ
_TEXT	SEGMENT PARA USE32 PUBLIC 'CODE'
_TEXT	ENDS
;	COMDAT ?size@?$basic_string@DU?$char_traits@D@std@@V?$allocator@D@2@@std@@QBEIXZ
_TEXT	SEGMENT PARA USE32 PUBLIC 'CODE'
_TEXT	ENDS
;	COMDAT ??0CSystemInfo@@QAE@XZ
_TEXT	SEGMENT PARA USE32 PUBLIC 'CODE'
_TEXT	ENDS
;	COMDAT ?chWindows9x@@YAHXZ
_TEXT	SEGMENT PARA USE32 PUBLIC 'CODE'
_TEXT	ENDS
;	COMDAT ??_7CDPSock@@6B@
CONST	SEGMENT DWORD USE32 PUBLIC 'CONST'
CONST	ENDS
;	COMDAT ??_7CMapChildE@@6B@
CONST	SEGMENT DWORD USE32 PUBLIC 'CONST'
CONST	ENDS
;	COMDAT ?Leave@CMclCritSec@@QAEXXZ
_TEXT	SEGMENT PARA USE32 PUBLIC 'CODE'
_TEXT	ENDS
;	COMDAT ?Enter@CMclCritSec@@QAEXXZ
_TEXT	SEGMENT PARA USE32 PUBLIC 'CODE'
_TEXT	ENDS
;	COMDAT ??1CMclCritSec@@UAE@XZ
_TEXT	SEGMENT PARA USE32 PUBLIC 'CODE'
_TEXT	ENDS
;	COMDAT ??_7CMclCritSec@@6B@
CONST	SEGMENT DWORD USE32 PUBLIC 'CONST'
CONST	ENDS
;	COMDAT ??_GCMclCritSec@@UAEPAXI@Z
_TEXT	SEGMENT PARA USE32 PUBLIC 'CODE'
_TEXT	ENDS
;	COMDAT ??0CMclCritSec@@QAE@XZ
_TEXT	SEGMENT PARA USE32 PUBLIC 'CODE'
_TEXT	ENDS
;	COMDAT ??_7CMapChild@@6B@
CONST	SEGMENT DWORD USE32 PUBLIC 'CONST'
CONST	ENDS
;	COMDAT ??1CMclAutoLock@@QAE@XZ
_TEXT	SEGMENT PARA USE32 PUBLIC 'CODE'
_TEXT	ENDS
;	COMDAT ??0CMclAutoLock@@QAE@AAVCMclCritSec@@@Z
_TEXT	SEGMENT PARA USE32 PUBLIC 'CODE'
_TEXT	ENDS
;	COMDAT ??_7CBuffer2@@6B@
CONST	SEGMENT DWORD USE32 PUBLIC 'CONST'
CONST	ENDS
sxdata	SEGMENT DWORD USE32 'SXDATA'
sxdata	ENDS
FLAT	GROUP _DATA, CONST, _BSS
	ASSUME	CS: FLAT, DS: FLAT, SS: FLAT
endif

INCLUDELIB LIBCMT
INCLUDELIB OLDNAMES

PUBLIC	?GetHandle@CSock@@QAEIXZ			; CSock::GetHandle
; Function compile flags: /Ogty
; File c:\documents and settings\test\mes documents\source\virtuos_v17\build\program\_network\net\include\sock.h
;	COMDAT ?GetHandle@CSock@@QAEIXZ
_TEXT	SEGMENT
?GetHandle@CSock@@QAEIXZ PROC NEAR			; CSock::GetHandle, COMDAT
; _this$ = ecx

; 50   : inline SOCKET CSock::GetHandle( void )	{	return m_hSocket;	}

  00000	8b 41 04	 mov	 eax, DWORD PTR [ecx+4]
  00003	c3		 ret	 0
?GetHandle@CSock@@QAEIXZ ENDP				; CSock::GetHandle
_TEXT	ENDS
PUBLIC	?SetID@CSock@@QAEXK@Z				; CSock::SetID
; Function compile flags: /Ogty
;	COMDAT ?SetID@CSock@@QAEXK@Z
_TEXT	SEGMENT
_dpid$ = 8						; size = 4
?SetID@CSock@@QAEXK@Z PROC NEAR				; CSock::SetID, COMDAT
; _this$ = ecx

; 53   : inline void	CSock::SetID( DPID dpid )	{	m_dpid	= dpid;	}

  00000	8b 44 24 04	 mov	 eax, DWORD PTR _dpid$[esp-4]
  00004	89 41 08	 mov	 DWORD PTR [ecx+8], eax
  00007	c2 04 00	 ret	 4
?SetID@CSock@@QAEXK@Z ENDP				; CSock::SetID
_TEXT	ENDS
PUBLIC	?GetID@CSock@@QAEKXZ				; CSock::GetID
; Function compile flags: /Ogty
;	COMDAT ?GetID@CSock@@QAEKXZ
_TEXT	SEGMENT
?GetID@CSock@@QAEKXZ PROC NEAR				; CSock::GetID, COMDAT
; _this$ = ecx

; 54   : inline DPID CSock::GetID( void )	{	return m_dpid;	}

  00000	8b 41 08	 mov	 eax, DWORD PTR [ecx+8]
  00003	c3		 ret	 0
?GetID@CSock@@QAEKXZ ENDP				; CSock::GetID
_TEXT	ENDS
PUBLIC	?SetPeerID@CSock@@QAEXK@Z			; CSock::SetPeerID
; Function compile flags: /Ogty
;	COMDAT ?SetPeerID@CSock@@QAEXK@Z
_TEXT	SEGMENT
_dpid$ = 8						; size = 4
?SetPeerID@CSock@@QAEXK@Z PROC NEAR			; CSock::SetPeerID, COMDAT
; _this$ = ecx

; 55   : inline void CSock::SetPeerID( DPID dpid )	{	m_dpidpeer	= dpid;	}

  00000	8b 44 24 04	 mov	 eax, DWORD PTR _dpid$[esp-4]
  00004	89 41 0c	 mov	 DWORD PTR [ecx+12], eax
  00007	c2 04 00	 ret	 4
?SetPeerID@CSock@@QAEXK@Z ENDP				; CSock::SetPeerID
_TEXT	ENDS
PUBLIC	??2@YAPAXIPAX@Z					; operator new
; Function compile flags: /Ogty
; File c:\program files\microsoft visual studio .net 2003\vc7\include\new.h
;	COMDAT ??2@YAPAXIPAX@Z
_TEXT	SEGMENT
___formal$ = 8						; size = 4
__P$ = 12						; size = 4
??2@YAPAXIPAX@Z PROC NEAR				; operator new, COMDAT

; 109  :         {return (_P); }

  00000	8b 44 24 08	 mov	 eax, DWORD PTR __P$[esp-4]
  00004	c3		 ret	 0
??2@YAPAXIPAX@Z ENDP					; operator new
_TEXT	ENDS
PUBLIC	??3@YAXPAX0@Z					; operator delete
; Function compile flags: /Ogty
;	COMDAT ??3@YAXPAX0@Z
_TEXT	SEGMENT
___formal$ = 8						; size = 4
___formal$ = 12						; size = 4
??3@YAXPAX0@Z PROC NEAR					; operator delete, COMDAT

; 112  :         {return; }

  00000	c3		 ret	 0
??3@YAXPAX0@Z ENDP					; operator delete
_TEXT	ENDS
PUBLIC	?GetHead@CBufferQueue@@QAEPAVCBuffer@@XZ	; CBufferQueue::GetHead
; Function compile flags: /Ogty
; File c:\documents and settings\test\mes documents\source\virtuos_v17\build\program\_network\net\include\buffer.h
;	COMDAT ?GetHead@CBufferQueue@@QAEPAVCBuffer@@XZ
_TEXT	SEGMENT
?GetHead@CBufferQueue@@QAEPAVCBuffer@@XZ PROC NEAR	; CBufferQueue::GetHead, COMDAT
; _this$ = ecx

; 216  : 	{	return m_pHead;	}

  00000	8b 41 04	 mov	 eax, DWORD PTR [ecx+4]
  00003	c3		 ret	 0
?GetHead@CBufferQueue@@QAEPAVCBuffer@@XZ ENDP		; CBufferQueue::GetHead
_TEXT	ENDS
PUBLIC	?IsEmpty@CBufferQueue@@QAEHXZ			; CBufferQueue::IsEmpty
; Function compile flags: /Ogty
;	COMDAT ?IsEmpty@CBufferQueue@@QAEHXZ
_TEXT	SEGMENT
?IsEmpty@CBufferQueue@@QAEHXZ PROC NEAR			; CBufferQueue::IsEmpty, COMDAT
; _this$ = ecx

; 222  : 	{	return( m_uCount == 0 );	}

  00000	8b 51 0c	 mov	 edx, DWORD PTR [ecx+12]
  00003	33 c0		 xor	 eax, eax
  00005	85 d2		 test	 edx, edx
  00007	0f 94 c0	 sete	 al
  0000a	c3		 ret	 0
?IsEmpty@CBufferQueue@@QAEHXZ ENDP			; CBufferQueue::IsEmpty
_TEXT	ENDS
PUBLIC	?RemoveHead@CBufferQueue@@QAEXXZ		; CBufferQueue::RemoveHead
; Function compile flags: /Ogty
;	COMDAT ?RemoveHead@CBufferQueue@@QAEXXZ
_TEXT	SEGMENT
?RemoveHead@CBufferQueue@@QAEXXZ PROC NEAR		; CBufferQueue::RemoveHead, COMDAT
; _this$ = ecx

; 238  : //	CMclAutoLock	Lock( m_cs );
; 239  : //	Remove it from active list
; 240  : 	if( !IsEmpty() )

  00000	8b 41 0c	 mov	 eax, DWORD PTR [ecx+12]
  00003	33 d2		 xor	 edx, edx
  00005	3b c2		 cmp	 eax, edx
  00007	74 27		 je	 SHORT $L231882

; 241  : 	{
; 242  : 		if( m_pTail == m_pHead )

  00009	8b 41 04	 mov	 eax, DWORD PTR [ecx+4]
  0000c	39 41 08	 cmp	 DWORD PTR [ecx+8], eax
  0000f	75 03		 jne	 SHORT $L227470

; 243  : 			m_pTail	= NULL;

  00011	89 51 08	 mov	 DWORD PTR [ecx+8], edx
$L227470:

; 244  : 		if( m_pHead->pNext )

  00014	8b 80 1c 20 00
	00		 mov	 eax, DWORD PTR [eax+8220]
  0001a	3b c2		 cmp	 eax, edx
  0001c	74 06		 je	 SHORT $L227471

; 245  : 			m_pHead->pNext->pPrevious	= NULL;

  0001e	89 90 20 20 00
	00		 mov	 DWORD PTR [eax+8224], edx
$L227471:

; 246  : 		m_pHead		= m_pHead->pNext;

  00024	8b 41 04	 mov	 eax, DWORD PTR [ecx+4]
  00027	8b 90 1c 20 00
	00		 mov	 edx, DWORD PTR [eax+8220]
  0002d	89 51 04	 mov	 DWORD PTR [ecx+4], edx
$L231882:

; 247  : 	}
; 248  : 	m_uCount--;

  00030	ff 49 0c	 dec	 DWORD PTR [ecx+12]

; 249  : }

  00033	c3		 ret	 0
?RemoveHead@CBufferQueue@@QAEXXZ ENDP			; CBufferQueue::RemoveHead
_TEXT	ENDS
PUBLIC	?GetRecvEvent@CClientSockE@@QAEPAXXZ		; CClientSockE::GetRecvEvent
; Function compile flags: /Ogty
; File c:\documents and settings\test\mes documents\source\virtuos_v17\build\program\_network\net\include\clientsocke.h
;	COMDAT ?GetRecvEvent@CClientSockE@@QAEPAXXZ
_TEXT	SEGMENT
?GetRecvEvent@CClientSockE@@QAEPAXXZ PROC NEAR		; CClientSockE::GetRecvEvent, COMDAT
; _this$ = ecx

; 91   : 	{	return m_hRecv;	}

  00000	8b 41 3c	 mov	 eax, DWORD PTR [ecx+60]
  00003	c3		 ret	 0
?GetRecvEvent@CClientSockE@@QAEPAXXZ ENDP		; CClientSockE::GetRecvEvent
_TEXT	ENDS
PUBLIC	?GetSendEvent@CClientSockE@@QAEPAXXZ		; CClientSockE::GetSendEvent
; Function compile flags: /Ogty
;	COMDAT ?GetSendEvent@CClientSockE@@QAEPAXXZ
_TEXT	SEGMENT
?GetSendEvent@CClientSockE@@QAEPAXXZ PROC NEAR		; CClientSockE::GetSendEvent, COMDAT
; _this$ = ecx

; 93   : 	{	return m_hSend;	}

  00000	8b 41 40	 mov	 eax, DWORD PTR [ecx+64]
  00003	c3		 ret	 0
?GetSendEvent@CClientSockE@@QAEPAXXZ ENDP		; CClientSockE::GetSendEvent
_TEXT	ENDS
PUBLIC	?GetServerSock@CDPSock@@QAEPAVCSock@@XZ		; CDPSock::GetServerSock
; Function compile flags: /Ogty
; File c:\documents and settings\test\mes documents\source\virtuos_v17\build\program\_network\net\include\dpsock.h
;	COMDAT ?GetServerSock@CDPSock@@QAEPAVCSock@@XZ
_TEXT	SEGMENT
?GetServerSock@CDPSock@@QAEPAVCSock@@XZ PROC NEAR	; CDPSock::GetServerSock, COMDAT
; _this$ = ecx

; 92   : 	CSock*	GetServerSock( void )		{	return	( m_fServer? m_pSock: NULL );	}

  00000	8b 81 94 00 00
	00		 mov	 eax, DWORD PTR [ecx+148]
  00006	85 c0		 test	 eax, eax
  00008	74 04		 je	 SHORT $L231892
  0000a	8b 41 04	 mov	 eax, DWORD PTR [ecx+4]
  0000d	c3		 ret	 0
$L231892:
  0000e	33 c0		 xor	 eax, eax
  00010	c3		 ret	 0
?GetServerSock@CDPSock@@QAEPAVCSock@@XZ ENDP		; CDPSock::GetServerSock
_TEXT	ENDS
PUBLIC	?GetCompletionPort@CDPSock@@QAEPAXH@Z		; CDPSock::GetCompletionPort
; Function compile flags: /Ogty
;	COMDAT ?GetCompletionPort@CDPSock@@QAEPAXH@Z
_TEXT	SEGMENT
_iIoWorker$ = 8						; size = 4
?GetCompletionPort@CDPSock@@QAEPAXH@Z PROC NEAR		; CDPSock::GetCompletionPort, COMDAT
; _this$ = ecx

; 96   : 	{	return m_phCompletionPort[iIoWorker];	}

  00000	8b 41 58	 mov	 eax, DWORD PTR [ecx+88]
  00003	8b 4c 24 04	 mov	 ecx, DWORD PTR _iIoWorker$[esp-4]
  00007	8b 04 88	 mov	 eax, DWORD PTR [eax+ecx*4]
  0000a	c2 04 00	 ret	 4
?GetCompletionPort@CDPSock@@QAEPAXH@Z ENDP		; CDPSock::GetCompletionPort
_TEXT	ENDS
PUBLIC	?GetCloseHandle@CDPSock@@QAEPAXXZ		; CDPSock::GetCloseHandle
; Function compile flags: /Ogty
;	COMDAT ?GetCloseHandle@CDPSock@@QAEPAXXZ
_TEXT	SEGMENT
?GetCloseHandle@CDPSock@@QAEPAXXZ PROC NEAR		; CDPSock::GetCloseHandle, COMDAT
; _this$ = ecx

; 98   : 	{	return m_hClose;	}

  00000	8b 41 5c	 mov	 eax, DWORD PTR [ecx+92]
  00003	c3		 ret	 0
?GetCloseHandle@CDPSock@@QAEPAXXZ ENDP			; CDPSock::GetCloseHandle
_TEXT	ENDS
PUBLIC	?GetRecvHandle@CDPSock@@QAEPAXXZ		; CDPSock::GetRecvHandle
; Function compile flags: /Ogty
;	COMDAT ?GetRecvHandle@CDPSock@@QAEPAXXZ
_TEXT	SEGMENT
?GetRecvHandle@CDPSock@@QAEPAXXZ PROC NEAR		; CDPSock::GetRecvHandle, COMDAT
; _this$ = ecx

; 100  : 	{	return m_hRecv;	}

  00000	8b 41 60	 mov	 eax, DWORD PTR [ecx+96]
  00003	c3		 ret	 0
?GetRecvHandle@CDPSock@@QAEPAXXZ ENDP			; CDPSock::GetRecvHandle
_TEXT	ENDS
PUBLIC	?GetIoWorkerCount@CDPSock@@QAEHXZ		; CDPSock::GetIoWorkerCount
; Function compile flags: /Ogty
;	COMDAT ?GetIoWorkerCount@CDPSock@@QAEHXZ
_TEXT	SEGMENT
?GetIoWorkerCount@CDPSock@@QAEHXZ PROC NEAR		; CDPSock::GetIoWorkerCount, COMDAT
; _this$ = ecx

; 102  : 	{	return (int)m_uIoWorker;	}

  00000	8b 41 2c	 mov	 eax, DWORD PTR [ecx+44]
  00003	c3		 ret	 0
?GetIoWorkerCount@CDPSock@@QAEHXZ ENDP			; CDPSock::GetIoWorkerCount
_TEXT	ENDS
PUBLIC	?GetSockThreaded@CDPSock@@QAEPAVCSock@@XZ	; CDPSock::GetSockThreaded
; Function compile flags: /Ogty
;	COMDAT ?GetSockThreaded@CDPSock@@QAEPAVCSock@@XZ
_TEXT	SEGMENT
?GetSockThreaded@CDPSock@@QAEPAVCSock@@XZ PROC NEAR	; CDPSock::GetSockThreaded, COMDAT
; _this$ = ecx

; 104  : 	{	return m_pSockThreaded;	}

  00000	8b 41 64	 mov	 eax, DWORD PTR [ecx+100]
  00003	c3		 ret	 0
?GetSockThreaded@CDPSock@@QAEPAVCSock@@XZ ENDP		; CDPSock::GetSockThreaded
_TEXT	ENDS
PUBLIC	?Get@CDPSock@@QAEPAVCClientSock@@I@Z		; CDPSock::Get
; Function compile flags: /Ogty
;	COMDAT ?Get@CDPSock@@QAEPAVCClientSock@@I@Z
_TEXT	SEGMENT
_hSocket$ = 8						; size = 4
?Get@CDPSock@@QAEPAVCClientSock@@I@Z PROC NEAR		; CDPSock::Get, COMDAT
; _this$ = ecx

; 106  : 	{	return ( m_pSock? (CClientSock*)m_pSock->Get( hSocket ): NULL );	}

  00000	8b 41 04	 mov	 eax, DWORD PTR [ecx+4]
  00003	85 c0		 test	 eax, eax
  00005	74 07		 je	 SHORT $L231912
  00007	8b c8		 mov	 ecx, eax
  00009	8b 01		 mov	 eax, DWORD PTR [ecx]
  0000b	ff 60 2c	 jmp	 DWORD PTR [eax+44]
$L231912:
  0000e	33 c0		 xor	 eax, eax
  00010	c2 04 00	 ret	 4
?Get@CDPSock@@QAEPAVCClientSock@@I@Z ENDP		; CDPSock::Get
_TEXT	ENDS
PUBLIC	?InitializeConnection@CDPSock@@QAEHPAXK@Z	; CDPSock::InitializeConnection
; Function compile flags: /Ogty
; File c:\documents and settings\test\mes documents\source\virtuos_v17\build\program\_network\net\src\dpsock.cpp
;	COMDAT ?InitializeConnection@CDPSock@@QAEHPAXK@Z
_TEXT	SEGMENT
_lpConnection$ = 8					; size = 4
_dwFlags$ = 12						; size = 4
?InitializeConnection@CDPSock@@QAEHPAXK@Z PROC NEAR	; CDPSock::InitializeConnection, COMDAT
; _this$ = ecx

; 70   : 	if( lpConnection )

  00000	8b 44 24 04	 mov	 eax, DWORD PTR _lpConnection$[esp-4]
  00004	85 c0		 test	 eax, eax
  00006	74 24		 je	 SHORT $L231919
  00008	56		 push	 esi

; 71   : 		strcpy( m_lpAddr, (char*)lpConnection );

  00009	8d 71 0a	 lea	 esi, DWORD PTR [ecx+10]
  0000c	2b f0		 sub	 esi, eax
  0000e	8b ff		 npad	 2
$L231917:
  00010	8a 10		 mov	 dl, BYTE PTR [eax]
  00012	88 14 06	 mov	 BYTE PTR [esi+eax], dl
  00015	40		 inc	 eax
  00016	84 d2		 test	 dl, dl
  00018	75 f6		 jne	 SHORT $L231917

; 72   : 	m_uPort		= (u_short)dwFlags;

  0001a	66 8b 44 24 0c	 mov	 ax, WORD PTR _dwFlags$[esp]
  0001f	66 89 41 08	 mov	 WORD PTR [ecx+8], ax
  00023	5e		 pop	 esi

; 73   : 	return TRUE;

  00024	b8 01 00 00 00	 mov	 eax, 1

; 74   : }

  00029	c2 08 00	 ret	 8
$L231919:

; 72   : 	m_uPort		= (u_short)dwFlags;

  0002c	66 8b 54 24 08	 mov	 dx, WORD PTR _dwFlags$[esp-4]
  00031	66 89 51 08	 mov	 WORD PTR [ecx+8], dx

; 73   : 	return TRUE;

  00035	b8 01 00 00 00	 mov	 eax, 1

; 74   : }

  0003a	c2 08 00	 ret	 8
?InitializeConnection@CDPSock@@QAEHPAXK@Z ENDP		; CDPSock::InitializeConnection
_TEXT	ENDS
PUBLIC	?Send@CDPSock@@QAEHPADKK@Z			; CDPSock::Send
; Function compile flags: /Ogty
;	COMDAT ?Send@CDPSock@@QAEHPADKK@Z
_TEXT	SEGMENT
_lpData$ = 8						; size = 4
_dwDataSize$ = 12					; size = 4
_dpidTo$ = 16						; size = 4
?Send@CDPSock@@QAEHPADKK@Z PROC NEAR			; CDPSock::Send, COMDAT
; _this$ = ecx

; 429  : 	if( m_pSock )

  00000	8b 41 04	 mov	 eax, DWORD PTR [ecx+4]
  00003	85 c0		 test	 eax, eax
  00005	74 1e		 je	 SHORT $L229473

; 430  : 	{
; 431  : 		m_pSock->Send( lpData, dwDataSize, dpidTo );

  00007	8b 54 24 0c	 mov	 edx, DWORD PTR _dpidTo$[esp-4]
  0000b	52		 push	 edx
  0000c	8b 54 24 0c	 mov	 edx, DWORD PTR _dwDataSize$[esp]
  00010	52		 push	 edx
  00011	8b 54 24 0c	 mov	 edx, DWORD PTR _lpData$[esp+4]
  00015	8b c8		 mov	 ecx, eax
  00017	8b 01		 mov	 eax, DWORD PTR [ecx]
  00019	52		 push	 edx
  0001a	ff 50 28	 call	 DWORD PTR [eax+40]

; 432  : 		return TRUE;

  0001d	b8 01 00 00 00	 mov	 eax, 1

; 435  : }

  00022	c2 0c 00	 ret	 12			; 0000000cH
$L229473:

; 433  : 	}
; 434  : 	return FALSE;

  00025	33 c0		 xor	 eax, eax

; 435  : }

  00027	c2 0c 00	 ret	 12			; 0000000cH
?Send@CDPSock@@QAEHPADKK@Z ENDP				; CDPSock::Send
_TEXT	ENDS
PUBLIC	?Shutdown@CDPSock@@QAEHK@Z			; CDPSock::Shutdown
; Function compile flags: /Ogty
;	COMDAT ?Shutdown@CDPSock@@QAEHK@Z
_TEXT	SEGMENT
_dpid$ = 8						; size = 4
?Shutdown@CDPSock@@QAEHK@Z PROC NEAR			; CDPSock::Shutdown, COMDAT
; _this$ = ecx

; 467  : 	return ( m_pSock? m_pSock->Shutdown( dpid ): FALSE );

  00000	8b 41 04	 mov	 eax, DWORD PTR [ecx+4]
  00003	85 c0		 test	 eax, eax
  00005	74 07		 je	 SHORT $L231927
  00007	8b c8		 mov	 ecx, eax
  00009	8b 01		 mov	 eax, DWORD PTR [ecx]
  0000b	ff 60 24	 jmp	 DWORD PTR [eax+36]
$L231927:
  0000e	33 c0		 xor	 eax, eax

; 468  : }

  00010	c2 04 00	 ret	 4
?Shutdown@CDPSock@@QAEHK@Z ENDP				; CDPSock::Shutdown
_TEXT	ENDS
PUBLIC	?size@?$list@PAXV?$allocator@PAX@std@@@std@@QBEIXZ ; std::list<void *,std::allocator<void *> >::size
; Function compile flags: /Ogty
; File c:\program files\microsoft visual studio .net 2003\vc7\include\list
;	COMDAT ?size@?$list@PAXV?$allocator@PAX@std@@@std@@QBEIXZ
_TEXT	SEGMENT
?size@?$list@PAXV?$allocator@PAX@std@@@std@@QBEIXZ PROC NEAR ; std::list<void *,std::allocator<void *> >::size, COMDAT
; _this$ = ecx

; 431  : 		return (_Mysize);

  00000	8b 41 08	 mov	 eax, DWORD PTR [ecx+8]

; 432  : 		}

  00003	c3		 ret	 0
?size@?$list@PAXV?$allocator@PAX@std@@@std@@QBEIXZ ENDP	; std::list<void *,std::allocator<void *> >::size
_TEXT	ENDS
PUBLIC	??0?$allocator@PAX@std@@QAE@XZ			; std::allocator<void *>::allocator<void *>
; Function compile flags: /Ogty
; File c:\program files\microsoft visual studio .net 2003\vc7\include\xmemory
;	COMDAT ??0?$allocator@PAX@std@@QAE@XZ
_TEXT	SEGMENT
??0?$allocator@PAX@std@@QAE@XZ PROC NEAR		; std::allocator<void *>::allocator<void *>, COMDAT
; _this$ = ecx

; 111  : 	allocator()

  00000	8b c1		 mov	 eax, ecx

; 112  : 		{	// construct default allocator (do nothing)
; 113  : 		}

  00002	c3		 ret	 0
??0?$allocator@PAX@std@@QAE@XZ ENDP			; std::allocator<void *>::allocator<void *>
_TEXT	ENDS
PUBLIC	?_Nextnode@?$list@PAXV?$allocator@PAX@std@@@std@@KAAAPAU_Node@?$_List_nod@PAXV?$allocator@PAX@std@@@2@PAU342@@Z ; std::list<void *,std::allocator<void *> >::_Nextnode
; Function compile flags: /Ogty
; File c:\program files\microsoft visual studio .net 2003\vc7\include\list
;	COMDAT ?_Nextnode@?$list@PAXV?$allocator@PAX@std@@@std@@KAAAPAU_Node@?$_List_nod@PAXV?$allocator@PAX@std@@@2@PAU342@@Z
_TEXT	SEGMENT
__Pnode$ = 8						; size = 4
?_Nextnode@?$list@PAXV?$allocator@PAX@std@@@std@@KAAAPAU_Node@?$_List_nod@PAXV?$allocator@PAX@std@@@2@PAU342@@Z PROC NEAR ; std::list<void *,std::allocator<void *> >::_Nextnode, COMDAT

; 108  : 		return ((_Nodepref)(*_Pnode)._Next);

  00000	8b 44 24 04	 mov	 eax, DWORD PTR __Pnode$[esp-4]

; 109  : 		}

  00004	c3		 ret	 0
?_Nextnode@?$list@PAXV?$allocator@PAX@std@@@std@@KAAAPAU_Node@?$_List_nod@PAXV?$allocator@PAX@std@@@2@PAU342@@Z ENDP ; std::list<void *,std::allocator<void *> >::_Nextnode
_TEXT	ENDS
PUBLIC	?_Prevnode@?$list@PAXV?$allocator@PAX@std@@@std@@KAAAPAU_Node@?$_List_nod@PAXV?$allocator@PAX@std@@@2@PAU342@@Z ; std::list<void *,std::allocator<void *> >::_Prevnode
; Function compile flags: /Ogty
;	COMDAT ?_Prevnode@?$list@PAXV?$allocator@PAX@std@@@std@@KAAAPAU_Node@?$_List_nod@PAXV?$allocator@PAX@std@@@2@PAU342@@Z
_TEXT	SEGMENT
__Pnode$ = 8						; size = 4
?_Prevnode@?$list@PAXV?$allocator@PAX@std@@@std@@KAAAPAU_Node@?$_List_nod@PAXV?$allocator@PAX@std@@@2@PAU342@@Z PROC NEAR ; std::list<void *,std::allocator<void *> >::_Prevnode, COMDAT

; 113  : 		return ((_Nodepref)(*_Pnode)._Prev);

  00000	8b 44 24 04	 mov	 eax, DWORD PTR __Pnode$[esp-4]
  00004	83 c0 04	 add	 eax, 4

; 114  : 		}

  00007	c3		 ret	 0
?_Prevnode@?$list@PAXV?$allocator@PAX@std@@@std@@KAAAPAU_Node@?$_List_nod@PAXV?$allocator@PAX@std@@@2@PAU342@@Z ENDP ; std::list<void *,std::allocator<void *> >::_Prevnode
_TEXT	ENDS
PUBLIC	?deallocate@?$allocator@U_Node@?$_List_nod@PAXV?$allocator@PAX@std@@@std@@@std@@QAEXPAU_Node@?$_List_nod@PAXV?$allocator@PAX@std@@@2@I@Z ; std::allocator<std::_List_nod<void *,std::allocator<void *> >::_Node>::deallocate
EXTRN	??3@YAXPAX@Z:NEAR				; operator delete
; Function compile flags: /Ogty
; File c:\program files\microsoft visual studio .net 2003\vc7\include\xmemory
;	COMDAT ?deallocate@?$allocator@U_Node@?$_List_nod@PAXV?$allocator@PAX@std@@@std@@@std@@QAEXPAU_Node@?$_List_nod@PAXV?$allocator@PAX@std@@@2@I@Z
_TEXT	SEGMENT
__Ptr$ = 8						; size = 4
___formal$ = 12						; size = 4
?deallocate@?$allocator@U_Node@?$_List_nod@PAXV?$allocator@PAX@std@@@std@@@std@@QAEXPAU_Node@?$_List_nod@PAXV?$allocator@PAX@std@@@2@I@Z PROC NEAR ; std::allocator<std::_List_nod<void *,std::allocator<void *> >::_Node>::deallocate, COMDAT
; _this$ = ecx

; 132  : 		operator delete(_Ptr);

  00000	8b 44 24 04	 mov	 eax, DWORD PTR __Ptr$[esp-4]
  00004	50		 push	 eax
  00005	e8 00 00 00 00	 call	 ??3@YAXPAX@Z		; operator delete
  0000a	59		 pop	 ecx

; 133  : 		}

  0000b	c2 08 00	 ret	 8
?deallocate@?$allocator@U_Node@?$_List_nod@PAXV?$allocator@PAX@std@@@std@@@std@@QAEXPAU_Node@?$_List_nod@PAXV?$allocator@PAX@std@@@2@I@Z ENDP ; std::allocator<std::_List_nod<void *,std::allocator<void *> >::_Node>::deallocate
_TEXT	ENDS
PUBLIC	??Econst_iterator@?$list@PAXV?$allocator@PAX@std@@@std@@QAEAAV012@XZ ; std::list<void *,std::allocator<void *> >::const_iterator::operator++
; Function compile flags: /Ogty
; File c:\program files\microsoft visual studio .net 2003\vc7\include\list
;	COMDAT ??Econst_iterator@?$list@PAXV?$allocator@PAX@std@@@std@@QAEAAV012@XZ
_TEXT	SEGMENT
??Econst_iterator@?$list@PAXV?$allocator@PAX@std@@@std@@QAEAAV012@XZ PROC NEAR ; std::list<void *,std::allocator<void *> >::const_iterator::operator++, COMDAT
; _this$ = ecx

; 170  : 			{	// preincrement

  00000	8b c1		 mov	 eax, ecx

; 171  : 			_Ptr = _Nextnode(_Ptr);

  00002	8b 08		 mov	 ecx, DWORD PTR [eax]
  00004	8b 11		 mov	 edx, DWORD PTR [ecx]
  00006	89 10		 mov	 DWORD PTR [eax], edx

; 172  : 			return (*this);
; 173  : 			}

  00008	c3		 ret	 0
??Econst_iterator@?$list@PAXV?$allocator@PAX@std@@@std@@QAEAAV012@XZ ENDP ; std::list<void *,std::allocator<void *> >::const_iterator::operator++
_TEXT	ENDS
PUBLIC	??8const_iterator@?$list@PAXV?$allocator@PAX@std@@@std@@QBE_NABV012@@Z ; std::list<void *,std::allocator<void *> >::const_iterator::operator==
; Function compile flags: /Ogty
;	COMDAT ??8const_iterator@?$list@PAXV?$allocator@PAX@std@@@std@@QBE_NABV012@@Z
_TEXT	SEGMENT
__Right$ = 8						; size = 4
??8const_iterator@?$list@PAXV?$allocator@PAX@std@@@std@@QBE_NABV012@@Z PROC NEAR ; std::list<void *,std::allocator<void *> >::const_iterator::operator==, COMDAT
; _this$ = ecx

; 197  : 			return (_Ptr == _Right._Ptr);

  00000	8b 01		 mov	 eax, DWORD PTR [ecx]
  00002	8b 4c 24 04	 mov	 ecx, DWORD PTR __Right$[esp-4]
  00006	2b 01		 sub	 eax, DWORD PTR [ecx]
  00008	f7 d8		 neg	 eax
  0000a	1b c0		 sbb	 eax, eax
  0000c	40		 inc	 eax

; 198  : 			}

  0000d	c2 04 00	 ret	 4
??8const_iterator@?$list@PAXV?$allocator@PAX@std@@@std@@QBE_NABV012@@Z ENDP ; std::list<void *,std::allocator<void *> >::const_iterator::operator==
_TEXT	ENDS
PUBLIC	?_Mynode@const_iterator@?$list@PAXV?$allocator@PAX@std@@@std@@QBEPAU_Node@?$_List_nod@PAXV?$allocator@PAX@std@@@3@XZ ; std::list<void *,std::allocator<void *> >::const_iterator::_Mynode
; Function compile flags: /Ogty
;	COMDAT ?_Mynode@const_iterator@?$list@PAXV?$allocator@PAX@std@@@std@@QBEPAU_Node@?$_List_nod@PAXV?$allocator@PAX@std@@@3@XZ
_TEXT	SEGMENT
?_Mynode@const_iterator@?$list@PAXV?$allocator@PAX@std@@@std@@QBEPAU_Node@?$_List_nod@PAXV?$allocator@PAX@std@@@3@XZ PROC NEAR ; std::list<void *,std::allocator<void *> >::const_iterator::_Mynode, COMDAT
; _this$ = ecx

; 207  : 			return (_Ptr);

  00000	8b 01		 mov	 eax, DWORD PTR [ecx]

; 208  : 			}

  00002	c3		 ret	 0
?_Mynode@const_iterator@?$list@PAXV?$allocator@PAX@std@@@std@@QBEPAU_Node@?$_List_nod@PAXV?$allocator@PAX@std@@@3@XZ ENDP ; std::list<void *,std::allocator<void *> >::const_iterator::_Mynode
_TEXT	ENDS
PUBLIC	??0?$allocator@PAX@std@@QAE@ABV01@@Z		; std::allocator<void *>::allocator<void *>
; Function compile flags: /Ogty
; File c:\program files\microsoft visual studio .net 2003\vc7\include\xmemory
;	COMDAT ??0?$allocator@PAX@std@@QAE@ABV01@@Z
_TEXT	SEGMENT
___formal$ = 8						; size = 4
??0?$allocator@PAX@std@@QAE@ABV01@@Z PROC NEAR		; std::allocator<void *>::allocator<void *>, COMDAT
; _this$ = ecx

; 115  : 	allocator(const allocator<_Ty>&)

  00000	8b c1		 mov	 eax, ecx

; 116  : 		{	// construct by copying (do nothing)
; 117  : 		}

  00002	c2 04 00	 ret	 4
??0?$allocator@PAX@std@@QAE@ABV01@@Z ENDP		; std::allocator<void *>::allocator<void *>
_TEXT	ENDS
PUBLIC	?_Myval@?$list@PAXV?$allocator@PAX@std@@@std@@KAAAPAXPAU_Node@?$_List_nod@PAXV?$allocator@PAX@std@@@2@@Z ; std::list<void *,std::allocator<void *> >::_Myval
; Function compile flags: /Ogty
; File c:\program files\microsoft visual studio .net 2003\vc7\include\list
;	COMDAT ?_Myval@?$list@PAXV?$allocator@PAX@std@@@std@@KAAAPAXPAU_Node@?$_List_nod@PAXV?$allocator@PAX@std@@@2@@Z
_TEXT	SEGMENT
__Pnode$ = 8						; size = 4
?_Myval@?$list@PAXV?$allocator@PAX@std@@@std@@KAAAPAXPAU_Node@?$_List_nod@PAXV?$allocator@PAX@std@@@2@@Z PROC NEAR ; std::list<void *,std::allocator<void *> >::_Myval, COMDAT

; 118  : 		return ((_Vref)(*_Pnode)._Myval);

  00000	8b 44 24 04	 mov	 eax, DWORD PTR __Pnode$[esp-4]
  00004	83 c0 08	 add	 eax, 8

; 119  : 		}

  00007	c3		 ret	 0
?_Myval@?$list@PAXV?$allocator@PAX@std@@@std@@KAAAPAXPAU_Node@?$_List_nod@PAXV?$allocator@PAX@std@@@2@@Z ENDP ; std::list<void *,std::allocator<void *> >::_Myval
_TEXT	ENDS
PUBLIC	??0const_iterator@?$list@PAXV?$allocator@PAX@std@@@std@@QAE@PAU_Node@?$_List_nod@PAXV?$allocator@PAX@std@@@2@@Z ; std::list<void *,std::allocator<void *> >::const_iterator::const_iterator
; Function compile flags: /Ogty
;	COMDAT ??0const_iterator@?$list@PAXV?$allocator@PAX@std@@@std@@QAE@PAU_Node@?$_List_nod@PAXV?$allocator@PAX@std@@@2@@Z
_TEXT	SEGMENT
__Pnode$ = 8						; size = 4
??0const_iterator@?$list@PAXV?$allocator@PAX@std@@@std@@QAE@PAU_Node@?$_List_nod@PAXV?$allocator@PAX@std@@@2@@Z PROC NEAR ; std::list<void *,std::allocator<void *> >::const_iterator::const_iterator, COMDAT
; _this$ = ecx

; 156  : 			{	// construct with node pointer _Pnode

  00000	8b c1		 mov	 eax, ecx
  00002	8b 4c 24 04	 mov	 ecx, DWORD PTR __Pnode$[esp-4]
  00006	89 08		 mov	 DWORD PTR [eax], ecx

; 157  : 			}

  00008	c2 04 00	 ret	 4
??0const_iterator@?$list@PAXV?$allocator@PAX@std@@@std@@QAE@PAU_Node@?$_List_nod@PAXV?$allocator@PAX@std@@@2@@Z ENDP ; std::list<void *,std::allocator<void *> >::const_iterator::const_iterator
_TEXT	ENDS
PUBLIC	??0_Node@?$_List_nod@PAXV?$allocator@PAX@std@@@std@@QAE@PAU012@0ABQAX@Z ; std::_List_nod<void *,std::allocator<void *> >::_Node::_Node
; Function compile flags: /Ogty
;	COMDAT ??0_Node@?$_List_nod@PAXV?$allocator@PAX@std@@@std@@QAE@PAU012@0ABQAX@Z
_TEXT	SEGMENT
__Nextarg$ = 8						; size = 4
__Prevarg$ = 12						; size = 4
__Myvalarg$ = 16					; size = 4
??0_Node@?$_List_nod@PAXV?$allocator@PAX@std@@@std@@QAE@PAU012@0ABQAX@Z PROC NEAR ; std::_List_nod<void *,std::allocator<void *> >::_Node::_Node, COMDAT
; _this$ = ecx

; 34   : 			{	// construct a node with value

  00000	8b 54 24 08	 mov	 edx, DWORD PTR __Prevarg$[esp-4]
  00004	8b c1		 mov	 eax, ecx
  00006	8b 4c 24 04	 mov	 ecx, DWORD PTR __Nextarg$[esp-4]
  0000a	89 08		 mov	 DWORD PTR [eax], ecx
  0000c	8b 4c 24 0c	 mov	 ecx, DWORD PTR __Myvalarg$[esp-4]
  00010	89 50 04	 mov	 DWORD PTR [eax+4], edx
  00013	8b 11		 mov	 edx, DWORD PTR [ecx]
  00015	89 50 08	 mov	 DWORD PTR [eax+8], edx

; 35   : 			}

  00018	c2 0c 00	 ret	 12			; 0000000cH
??0_Node@?$_List_nod@PAXV?$allocator@PAX@std@@@std@@QAE@PAU012@0ABQAX@Z ENDP ; std::_List_nod<void *,std::allocator<void *> >::_Node::_Node
_TEXT	ENDS
PUBLIC	?max_size@?$allocator@PAX@std@@QBEIXZ		; std::allocator<void *>::max_size
; Function compile flags: /Ogty
; File c:\program files\microsoft visual studio .net 2003\vc7\include\xmemory
;	COMDAT ?max_size@?$allocator@PAX@std@@QBEIXZ
_TEXT	SEGMENT
?max_size@?$allocator@PAX@std@@QBEIXZ PROC NEAR		; std::allocator<void *>::max_size, COMDAT
; _this$ = ecx

; 157  : 		_SIZT _Count = (_SIZT)(-1) / sizeof (_Ty);
; 158  : 		return (0 < _Count ? _Count : 1);

  00000	b8 ff ff ff 3f	 mov	 eax, 1073741823		; 3fffffffH

; 159  : 		}

  00005	c3		 ret	 0
?max_size@?$allocator@PAX@std@@QBEIXZ ENDP		; std::allocator<void *>::max_size
_TEXT	ENDS
PUBLIC	??$_Destroy@U_Node@?$_List_nod@PAXV?$allocator@PAX@std@@@std@@@std@@YAXPAU_Node@?$_List_nod@PAXV?$allocator@PAX@std@@@0@@Z ; std::_Destroy<std::_List_nod<void *,std::allocator<void *> >::_Node>
; Function compile flags: /Ogty
;	COMDAT ??$_Destroy@U_Node@?$_List_nod@PAXV?$allocator@PAX@std@@@std@@@std@@YAXPAU_Node@?$_List_nod@PAXV?$allocator@PAX@std@@@0@@Z
_TEXT	SEGMENT
__Ptr$ = 8						; size = 4
??$_Destroy@U_Node@?$_List_nod@PAXV?$allocator@PAX@std@@@std@@@std@@YAXPAU_Node@?$_List_nod@PAXV?$allocator@PAX@std@@@0@@Z PROC NEAR ; std::_Destroy<std::_List_nod<void *,std::allocator<void *> >::_Node>, COMDAT

; 49   : 	_DESTRUCTOR(_Ty, _Ptr);
; 50   : 	}

  00000	c3		 ret	 0
??$_Destroy@U_Node@?$_List_nod@PAXV?$allocator@PAX@std@@@std@@@std@@YAXPAU_Node@?$_List_nod@PAXV?$allocator@PAX@std@@@0@@Z ENDP ; std::_Destroy<std::_List_nod<void *,std::allocator<void *> >::_Node>
_TEXT	ENDS
PUBLIC	??$?0PAX@?$allocator@PAU_Node@?$_List_nod@PAXV?$allocator@PAX@std@@@std@@@std@@QAE@ABV?$allocator@PAX@1@@Z ; std::allocator<std::_List_nod<void *,std::allocator<void *> >::_Node *>::allocator<std::_List_nod<void *,std::allocator<void *> >::_Node *><void *>
; Function compile flags: /Ogty
;	COMDAT ??$?0PAX@?$allocator@PAU_Node@?$_List_nod@PAXV?$allocator@PAX@std@@@std@@@std@@QAE@ABV?$allocator@PAX@1@@Z
_TEXT	SEGMENT
___formal$ = 8						; size = 4
??$?0PAX@?$allocator@PAU_Node@?$_List_nod@PAXV?$allocator@PAX@std@@@std@@@std@@QAE@ABV?$allocator@PAX@1@@Z PROC NEAR ; std::allocator<std::_List_nod<void *,std::allocator<void *> >::_Node *>::allocator<std::_List_nod<void *,std::allocator<void *> >::_Node *><void *>, COMDAT
; _this$ = ecx

; 120  : 		allocator(const allocator<_Other>&)

  00000	8b c1		 mov	 eax, ecx

; 121  : 		{	// construct from a related allocator (do nothing)
; 122  : 		}

  00002	c2 04 00	 ret	 4
??$?0PAX@?$allocator@PAU_Node@?$_List_nod@PAXV?$allocator@PAX@std@@@std@@@std@@QAE@ABV?$allocator@PAX@1@@Z ENDP ; std::allocator<std::_List_nod<void *,std::allocator<void *> >::_Node *>::allocator<std::_List_nod<void *,std::allocator<void *> >::_Node *><void *>
_TEXT	ENDS
PUBLIC	??$_Allocate@U_Node@?$_List_nod@PAXV?$allocator@PAX@std@@@std@@@std@@YAPAU_Node@?$_List_nod@PAXV?$allocator@PAX@std@@@0@IPAU120@@Z ; std::_Allocate<std::_List_nod<void *,std::allocator<void *> >::_Node>
EXTRN	??2@YAPAXI@Z:NEAR				; operator new
; Function compile flags: /Ogty
;	COMDAT ??$_Allocate@U_Node@?$_List_nod@PAXV?$allocator@PAX@std@@@std@@@std@@YAPAU_Node@?$_List_nod@PAXV?$allocator@PAX@std@@@0@IPAU120@@Z
_TEXT	SEGMENT
__Count$ = 8						; size = 4
___formal$ = 12						; size = 4
??$_Allocate@U_Node@?$_List_nod@PAXV?$allocator@PAX@std@@@std@@@std@@YAPAU_Node@?$_List_nod@PAXV?$allocator@PAX@std@@@0@IPAU120@@Z PROC NEAR ; std::_Allocate<std::_List_nod<void *,std::allocator<void *> >::_Node>, COMDAT

; 34   : 	return ((_Ty _FARQ *)operator new(_Count * sizeof (_Ty)));

  00000	8b 44 24 04	 mov	 eax, DWORD PTR __Count$[esp-4]
  00004	8d 04 40	 lea	 eax, DWORD PTR [eax+eax*2]
  00007	c1 e0 02	 shl	 eax, 2
  0000a	50		 push	 eax
  0000b	e8 00 00 00 00	 call	 ??2@YAPAXI@Z		; operator new
  00010	83 c4 04	 add	 esp, 4

; 35   : 	}

  00013	c3		 ret	 0
??$_Allocate@U_Node@?$_List_nod@PAXV?$allocator@PAX@std@@@std@@@std@@YAPAU_Node@?$_List_nod@PAXV?$allocator@PAX@std@@@0@IPAU120@@Z ENDP ; std::_Allocate<std::_List_nod<void *,std::allocator<void *> >::_Node>
_TEXT	ENDS
PUBLIC	??$_Construct@PAU_Node@?$_List_nod@PAXV?$allocator@PAX@std@@@std@@PAU123@@std@@YAXPAPAU_Node@?$_List_nod@PAXV?$allocator@PAX@std@@@0@ABQAU120@@Z ; std::_Construct<std::_List_nod<void *,std::allocator<void *> >::_Node *,std::_List_nod<void *,std::allocator<void *> >::_Node *>
; Function compile flags: /Ogty
;	COMDAT ??$_Construct@PAU_Node@?$_List_nod@PAXV?$allocator@PAX@std@@@std@@PAU123@@std@@YAXPAPAU_Node@?$_List_nod@PAXV?$allocator@PAX@std@@@0@ABQAU120@@Z
_TEXT	SEGMENT
__Ptr$ = 8						; size = 4
__Val$ = 12						; size = 4
??$_Construct@PAU_Node@?$_List_nod@PAXV?$allocator@PAX@std@@@std@@PAU123@@std@@YAXPAPAU_Node@?$_List_nod@PAXV?$allocator@PAX@std@@@0@ABQAU120@@Z PROC NEAR ; std::_Construct<std::_List_nod<void *,std::allocator<void *> >::_Node *,std::_List_nod<void *,std::allocator<void *> >::_Node *>, COMDAT

; 42   : 	new ((void _FARQ *)_Ptr) _T1(_Val);

  00000	8b 44 24 04	 mov	 eax, DWORD PTR __Ptr$[esp-4]
  00004	85 c0		 test	 eax, eax
  00006	74 08		 je	 SHORT $L231987
  00008	8b 4c 24 08	 mov	 ecx, DWORD PTR __Val$[esp-4]
  0000c	8b 11		 mov	 edx, DWORD PTR [ecx]
  0000e	89 10		 mov	 DWORD PTR [eax], edx
$L231987:

; 43   : 	}

  00010	c3		 ret	 0
??$_Construct@PAU_Node@?$_List_nod@PAXV?$allocator@PAX@std@@@std@@PAU123@@std@@YAXPAPAU_Node@?$_List_nod@PAXV?$allocator@PAX@std@@@0@ABQAU120@@Z ENDP ; std::_Construct<std::_List_nod<void *,std::allocator<void *> >::_Node *,std::_List_nod<void *,std::allocator<void *> >::_Node *>
_TEXT	ENDS
PUBLIC	??$_Destroy@PAU_Node@?$_List_nod@PAXV?$allocator@PAX@std@@@std@@@std@@YAXPAPAU_Node@?$_List_nod@PAXV?$allocator@PAX@std@@@0@@Z ; std::_Destroy<std::_List_nod<void *,std::allocator<void *> >::_Node *>
; Function compile flags: /Ogty
;	COMDAT ??$_Destroy@PAU_Node@?$_List_nod@PAXV?$allocator@PAX@std@@@std@@@std@@YAXPAPAU_Node@?$_List_nod@PAXV?$allocator@PAX@std@@@0@@Z
_TEXT	SEGMENT
__Ptr$ = 8						; size = 4
??$_Destroy@PAU_Node@?$_List_nod@PAXV?$allocator@PAX@std@@@std@@@std@@YAXPAPAU_Node@?$_List_nod@PAXV?$allocator@PAX@std@@@0@@Z PROC NEAR ; std::_Destroy<std::_List_nod<void *,std::allocator<void *> >::_Node *>, COMDAT

; 49   : 	_DESTRUCTOR(_Ty, _Ptr);
; 50   : 	}

  00000	c3		 ret	 0
??$_Destroy@PAU_Node@?$_List_nod@PAXV?$allocator@PAX@std@@@std@@@std@@YAXPAPAU_Node@?$_List_nod@PAXV?$allocator@PAX@std@@@0@@Z ENDP ; std::_Destroy<std::_List_nod<void *,std::allocator<void *> >::_Node *>
_TEXT	ENDS
PUBLIC	??$?0PAX@?$allocator@U_Node@?$_List_nod@PAXV?$allocator@PAX@std@@@std@@@std@@QAE@ABV?$allocator@PAX@1@@Z ; std::allocator<std::_List_nod<void *,std::allocator<void *> >::_Node>::allocator<std::_List_nod<void *,std::allocator<void *> >::_Node><void *>
; Function compile flags: /Ogty
;	COMDAT ??$?0PAX@?$allocator@U_Node@?$_List_nod@PAXV?$allocator@PAX@std@@@std@@@std@@QAE@ABV?$allocator@PAX@1@@Z
_TEXT	SEGMENT
___formal$ = 8						; size = 4
??$?0PAX@?$allocator@U_Node@?$_List_nod@PAXV?$allocator@PAX@std@@@std@@@std@@QAE@ABV?$allocator@PAX@1@@Z PROC NEAR ; std::allocator<std::_List_nod<void *,std::allocator<void *> >::_Node>::allocator<std::_List_nod<void *,std::allocator<void *> >::_Node><void *>, COMDAT
; _this$ = ecx

; 120  : 		allocator(const allocator<_Other>&)

  00000	8b c1		 mov	 eax, ecx

; 121  : 		{	// construct from a related allocator (do nothing)
; 122  : 		}

  00002	c2 04 00	 ret	 4
??$?0PAX@?$allocator@U_Node@?$_List_nod@PAXV?$allocator@PAX@std@@@std@@@std@@QAE@ABV?$allocator@PAX@1@@Z ENDP ; std::allocator<std::_List_nod<void *,std::allocator<void *> >::_Node>::allocator<std::_List_nod<void *,std::allocator<void *> >::_Node><void *>
_TEXT	ENDS
PUBLIC	?assign@?$char_traits@D@std@@SAXAADABD@Z	; std::char_traits<char>::assign
; Function compile flags: /Ogty
; File c:\program files\microsoft visual studio .net 2003\vc7\include\iosfwd
;	COMDAT ?assign@?$char_traits@D@std@@SAXAADABD@Z
_TEXT	SEGMENT
__Left$ = 8						; size = 4
__Right$ = 12						; size = 4
?assign@?$char_traits@D@std@@SAXAADABD@Z PROC NEAR	; std::char_traits<char>::assign, COMDAT

; 331  : 		_Left = _Right;

  00000	8b 44 24 08	 mov	 eax, DWORD PTR __Right$[esp-4]
  00004	8a 08		 mov	 cl, BYTE PTR [eax]
  00006	8b 54 24 04	 mov	 edx, DWORD PTR __Left$[esp-4]
  0000a	88 0a		 mov	 BYTE PTR [edx], cl

; 332  : 		}

  0000c	c3		 ret	 0
?assign@?$char_traits@D@std@@SAXAADABD@Z ENDP		; std::char_traits<char>::assign
_TEXT	ENDS
PUBLIC	?length@?$char_traits@D@std@@SAIPBD@Z		; std::char_traits<char>::length
; Function compile flags: /Ogty
;	COMDAT ?length@?$char_traits@D@std@@SAIPBD@Z
_TEXT	SEGMENT
__First$ = 8						; size = 4
?length@?$char_traits@D@std@@SAIPBD@Z PROC NEAR		; std::char_traits<char>::length, COMDAT

; 352  : 		return (::strlen(_First));

  00000	8b 44 24 04	 mov	 eax, DWORD PTR __First$[esp-4]
  00004	8d 50 01	 lea	 edx, DWORD PTR [eax+1]
$L232004:
  00007	8a 08		 mov	 cl, BYTE PTR [eax]
  00009	40		 inc	 eax
  0000a	84 c9		 test	 cl, cl
  0000c	75 f9		 jne	 SHORT $L232004
  0000e	2b c2		 sub	 eax, edx

; 353  : 		}

  00010	c3		 ret	 0
?length@?$char_traits@D@std@@SAIPBD@Z ENDP		; std::char_traits<char>::length
_TEXT	ENDS
PUBLIC	?copy@?$char_traits@D@std@@SAPADPADPBDI@Z	; std::char_traits<char>::copy
; Function compile flags: /Ogty
;	COMDAT ?copy@?$char_traits@D@std@@SAPADPADPBDI@Z
_TEXT	SEGMENT
__First1$ = 8						; size = 4
__First2$ = 12						; size = 4
__Count$ = 16						; size = 4
?copy@?$char_traits@D@std@@SAPADPADPBDI@Z PROC NEAR	; std::char_traits<char>::copy, COMDAT

; 358  : 		return ((_Elem *)::memcpy(_First1, _First2, _Count));

  00000	8b 4c 24 0c	 mov	 ecx, DWORD PTR __Count$[esp-4]
  00004	56		 push	 esi
  00005	8b 74 24 0c	 mov	 esi, DWORD PTR __First2$[esp]
  00009	57		 push	 edi
  0000a	8b 7c 24 0c	 mov	 edi, DWORD PTR __First1$[esp+4]
  0000e	8b c1		 mov	 eax, ecx
  00010	8b d7		 mov	 edx, edi
  00012	c1 e9 02	 shr	 ecx, 2
  00015	f3 a5		 rep movsd
  00017	8b c8		 mov	 ecx, eax
  00019	83 e1 03	 and	 ecx, 3
  0001c	f3 a4		 rep movsb
  0001e	5f		 pop	 edi
  0001f	8b c2		 mov	 eax, edx
  00021	5e		 pop	 esi

; 359  : 		}

  00022	c3		 ret	 0
?copy@?$char_traits@D@std@@SAPADPADPBDI@Z ENDP		; std::char_traits<char>::copy
_TEXT	ENDS
PUBLIC	?move@?$char_traits@D@std@@SAPADPADPBDI@Z	; std::char_traits<char>::move
EXTRN	_memmove:NEAR
; Function compile flags: /Ogty
;	COMDAT ?move@?$char_traits@D@std@@SAPADPADPBDI@Z
_TEXT	SEGMENT
__First1$ = 8						; size = 4
__First2$ = 12						; size = 4
__Count$ = 16						; size = 4
?move@?$char_traits@D@std@@SAPADPADPBDI@Z PROC NEAR	; std::char_traits<char>::move, COMDAT

; 370  : 		return ((_Elem *)::memmove(_First1, _First2, _Count));

  00000	e9 00 00 00 00	 jmp	 _memmove
?move@?$char_traits@D@std@@SAPADPADPBDI@Z ENDP		; std::char_traits<char>::move
_TEXT	ENDS
PUBLIC	??0CMclCritSec@@QAE@XZ				; CMclCritSec::CMclCritSec
PUBLIC	??_7CMclCritSec@@6B@				; CMclCritSec::`vftable'
PUBLIC	??_GCMclCritSec@@UAEPAXI@Z			; CMclCritSec::`scalar deleting destructor'
EXTRN	??_ECMclCritSec@@UAEPAXI@Z:NEAR			; CMclCritSec::`vector deleting destructor'
EXTRN	__imp__InitializeCriticalSection@4:NEAR
;	COMDAT ??_7CMclCritSec@@6B@
; File c:\documents and settings\test\mes documents\source\virtuos_v17\build\program\_network\mcl\include\cmclcritsec.h
CONST	SEGMENT
??_7CMclCritSec@@6B@ DD FLAT:??_ECMclCritSec@@UAEPAXI@Z	; CMclCritSec::`vftable'
; Function compile flags: /Ogty
CONST	ENDS
;	COMDAT ??0CMclCritSec@@QAE@XZ
_TEXT	SEGMENT
??0CMclCritSec@@QAE@XZ PROC NEAR			; CMclCritSec::CMclCritSec, COMDAT
; _this$ = ecx

; 19   :     CMclCritSec(void)

  00000	56		 push	 esi
  00001	8b f1		 mov	 esi, ecx

; 20   :     {
; 21   : 		::InitializeCriticalSection( &m_CritSec );

  00003	8d 46 04	 lea	 eax, DWORD PTR [esi+4]
  00006	50		 push	 eax
  00007	c7 06 00 00 00
	00		 mov	 DWORD PTR [esi], OFFSET FLAT:??_7CMclCritSec@@6B@
  0000d	ff 15 00 00 00
	00		 call	 DWORD PTR __imp__InitializeCriticalSection@4

; 22   : 	}

  00013	8b c6		 mov	 eax, esi
  00015	5e		 pop	 esi
  00016	c3		 ret	 0
??0CMclCritSec@@QAE@XZ ENDP				; CMclCritSec::CMclCritSec
_TEXT	ENDS
PUBLIC	??1CMclCritSec@@UAE@XZ				; CMclCritSec::~CMclCritSec
EXTRN	__imp__DeleteCriticalSection@4:NEAR
; Function compile flags: /Ogty
;	COMDAT ??1CMclCritSec@@UAE@XZ
_TEXT	SEGMENT
??1CMclCritSec@@UAE@XZ PROC NEAR			; CMclCritSec::~CMclCritSec, COMDAT
; _this$ = ecx

; 26   : 	{

  00000	c7 01 00 00 00
	00		 mov	 DWORD PTR [ecx], OFFSET FLAT:??_7CMclCritSec@@6B@

; 27   : 		::DeleteCriticalSection( &m_CritSec );

  00006	83 c1 04	 add	 ecx, 4
  00009	51		 push	 ecx
  0000a	ff 15 00 00 00
	00		 call	 DWORD PTR __imp__DeleteCriticalSection@4

; 28   : 	}

  00010	c3		 ret	 0
??1CMclCritSec@@UAE@XZ ENDP				; CMclCritSec::~CMclCritSec
_TEXT	ENDS
PUBLIC	?Enter@CMclCritSec@@QAEXXZ			; CMclCritSec::Enter
EXTRN	__imp__EnterCriticalSection@4:NEAR
; Function compile flags: /Ogty
;	COMDAT ?Enter@CMclCritSec@@QAEXXZ
_TEXT	SEGMENT
?Enter@CMclCritSec@@QAEXXZ PROC NEAR			; CMclCritSec::Enter, COMDAT
; _this$ = ecx

; 33   : 		::EnterCriticalSection( &m_CritSec );

  00000	83 c1 04	 add	 ecx, 4
  00003	51		 push	 ecx
  00004	ff 15 00 00 00
	00		 call	 DWORD PTR __imp__EnterCriticalSection@4

; 34   : 	}

  0000a	c3		 ret	 0
?Enter@CMclCritSec@@QAEXXZ ENDP				; CMclCritSec::Enter
_TEXT	ENDS
PUBLIC	?Leave@CMclCritSec@@QAEXXZ			; CMclCritSec::Leave
EXTRN	__imp__LeaveCriticalSection@4:NEAR
; Function compile flags: /Ogty
;	COMDAT ?Leave@CMclCritSec@@QAEXXZ
_TEXT	SEGMENT
?Leave@CMclCritSec@@QAEXXZ PROC NEAR			; CMclCritSec::Leave, COMDAT
; _this$ = ecx

; 39   : 		::LeaveCriticalSection( &m_CritSec );

  00000	83 c1 04	 add	 ecx, 4
  00003	51		 push	 ecx
  00004	ff 15 00 00 00
	00		 call	 DWORD PTR __imp__LeaveCriticalSection@4

; 40   : 	}

  0000a	c3		 ret	 0
?Leave@CMclCritSec@@QAEXXZ ENDP				; CMclCritSec::Leave
; Function compile flags: /Ogty
_TEXT	ENDS
;	COMDAT ??_GCMclCritSec@@UAEPAXI@Z
_TEXT	SEGMENT
___flags$ = 8						; size = 4
??_GCMclCritSec@@UAEPAXI@Z PROC NEAR			; CMclCritSec::`scalar deleting destructor', COMDAT
; _this$ = ecx
  00000	56		 push	 esi
  00001	8b f1		 mov	 esi, ecx
  00003	8d 46 04	 lea	 eax, DWORD PTR [esi+4]
  00006	50		 push	 eax
  00007	c7 06 00 00 00
	00		 mov	 DWORD PTR [esi], OFFSET FLAT:??_7CMclCritSec@@6B@
  0000d	ff 15 00 00 00
	00		 call	 DWORD PTR __imp__DeleteCriticalSection@4
  00013	f6 44 24 08 01	 test	 BYTE PTR ___flags$[esp], 1
  00018	74 09		 je	 SHORT $L232030
  0001a	56		 push	 esi
  0001b	e8 00 00 00 00	 call	 ??3@YAXPAX@Z		; operator delete
  00020	83 c4 04	 add	 esp, 4
$L232030:
  00023	8b c6		 mov	 eax, esi
  00025	5e		 pop	 esi
  00026	c2 04 00	 ret	 4
??_GCMclCritSec@@UAEPAXI@Z ENDP				; CMclCritSec::`scalar deleting destructor'
_TEXT	ENDS
PUBLIC	??0CMclAutoLock@@QAE@AAVCMclCritSec@@@Z		; CMclAutoLock::CMclAutoLock
; Function compile flags: /Ogty
; File c:\documents and settings\test\mes documents\source\virtuos_v17\build\program\_network\mcl\include\cmclautolock.h
;	COMDAT ??0CMclAutoLock@@QAE@AAVCMclCritSec@@@Z
_TEXT	SEGMENT
_rCMclCritSec$ = 8					; size = 4
??0CMclAutoLock@@QAE@AAVCMclCritSec@@@Z PROC NEAR	; CMclAutoLock::CMclAutoLock, COMDAT
; _this$ = ecx

; 20   : 	{
; 21   : 		m_pcCritSec = &rCMclCritSec;

  00000	8b 44 24 04	 mov	 eax, DWORD PTR _rCMclCritSec$[esp-4]
  00004	56		 push	 esi
  00005	8b f1		 mov	 esi, ecx
  00007	89 06		 mov	 DWORD PTR [esi], eax

; 22   : 		m_pcCritSec->Enter();

  00009	83 c0 04	 add	 eax, 4
  0000c	50		 push	 eax
  0000d	ff 15 00 00 00
	00		 call	 DWORD PTR __imp__EnterCriticalSection@4

; 23   : 	}

  00013	8b c6		 mov	 eax, esi
  00015	5e		 pop	 esi
  00016	c2 04 00	 ret	 4
??0CMclAutoLock@@QAE@AAVCMclCritSec@@@Z ENDP		; CMclAutoLock::CMclAutoLock
_TEXT	ENDS
PUBLIC	??1CMclAutoLock@@QAE@XZ				; CMclAutoLock::~CMclAutoLock
; Function compile flags: /Ogty
;	COMDAT ??1CMclAutoLock@@QAE@XZ
_TEXT	SEGMENT
??1CMclAutoLock@@QAE@XZ PROC NEAR			; CMclAutoLock::~CMclAutoLock, COMDAT
; _this$ = ecx

; 28   : 		m_pcCritSec->Leave();

  00000	8b 01		 mov	 eax, DWORD PTR [ecx]
  00002	83 c0 04	 add	 eax, 4
  00005	50		 push	 eax
  00006	ff 15 00 00 00
	00		 call	 DWORD PTR __imp__LeaveCriticalSection@4

; 29   : 	}

  0000c	c3		 ret	 0
??1CMclAutoLock@@QAE@XZ ENDP				; CMclAutoLock::~CMclAutoLock
_TEXT	ENDS
PUBLIC	?chWindows9x@@YAHXZ				; chWindows9x
EXTRN	___security_cookie:DWORD
EXTRN	@__security_check_cookie@4:NEAR
EXTRN	__imp__GetVersionExA@4:NEAR
; Function compile flags: /Ogty
; File c:\documents and settings\test\mes documents\source\virtuos_v17\build\program\_network\cmnhdr.h
;	COMDAT ?chWindows9x@@YAHXZ
_TEXT	SEGMENT
_vi$ = -160						; size = 148
__$ArrayPad$ = -4					; size = 4
__$ReturnAddr$ = 4					; size = 4
?chWindows9x@@YAHXZ PROC NEAR				; chWindows9x, COMDAT

; 234  : {

  00000	55		 push	 ebp
  00001	8b ec		 mov	 ebp, esp
  00003	83 e4 f8	 and	 esp, -8			; fffffff8H
  00006	81 ec a4 00 00
	00		 sub	 esp, 164		; 000000a4H
  0000c	a1 00 00 00 00	 mov	 eax, DWORD PTR ___security_cookie
  00011	33 c5		 xor	 eax, ebp
  00013	89 84 24 a0 00
	00 00		 mov	 DWORD PTR __$ArrayPad$[esp+164], eax
  0001a	57		 push	 edi

; 235  : 	OSVERSIONINFO vi	= { sizeof(vi) };

  0001b	33 c0		 xor	 eax, eax
  0001d	c7 44 24 08 94
	00 00 00	 mov	 DWORD PTR _vi$[esp+168], 148 ; 00000094H
  00025	b9 24 00 00 00	 mov	 ecx, 36			; 00000024H
  0002a	8d 7c 24 0c	 lea	 edi, DWORD PTR _vi$[esp+172]
  0002e	f3 ab		 rep stosd

; 236  : 	GetVersionEx( &vi );

  00030	8d 44 24 08	 lea	 eax, DWORD PTR _vi$[esp+168]
  00034	50		 push	 eax
  00035	ff 15 00 00 00
	00		 call	 DWORD PTR __imp__GetVersionExA@4

; 237  : 	return( vi.dwPlatformId != VER_PLATFORM_WIN32_NT );

  0003b	8b 4c 24 18	 mov	 ecx, DWORD PTR _vi$[esp+184]
  0003f	33 c0		 xor	 eax, eax
  00041	83 f9 02	 cmp	 ecx, 2

; 238  : }

  00044	8b 8c 24 a4 00
	00 00		 mov	 ecx, DWORD PTR __$ArrayPad$[esp+168]
  0004b	0f 95 c0	 setne	 al
  0004e	33 cd		 xor	 ecx, ebp
  00050	5f		 pop	 edi
  00051	e8 00 00 00 00	 call	 @__security_check_cookie@4
  00056	8b e5		 mov	 esp, ebp
  00058	5d		 pop	 ebp
  00059	c3		 ret	 0
?chWindows9x@@YAHXZ ENDP				; chWindows9x
_TEXT	ENDS
PUBLIC	??0CSystemInfo@@QAE@XZ				; CSystemInfo::CSystemInfo
EXTRN	__imp__GetSystemInfo@4:NEAR
; Function compile flags: /Ogty
;	COMDAT ??0CSystemInfo@@QAE@XZ
_TEXT	SEGMENT
??0CSystemInfo@@QAE@XZ PROC NEAR			; CSystemInfo::CSystemInfo, COMDAT
; _this$ = ecx

; 248  : 	CSystemInfo()	{	GetSystemInfo( this );	}

  00000	56		 push	 esi
  00001	8b f1		 mov	 esi, ecx
  00003	56		 push	 esi
  00004	ff 15 00 00 00
	00		 call	 DWORD PTR __imp__GetSystemInfo@4
  0000a	8b c6		 mov	 eax, esi
  0000c	5e		 pop	 esi
  0000d	c3		 ret	 0
??0CSystemInfo@@QAE@XZ ENDP				; CSystemInfo::CSystemInfo
_TEXT	ENDS
PUBLIC	?size@?$basic_string@DU?$char_traits@D@std@@V?$allocator@D@2@@std@@QBEIXZ ; std::basic_string<char,std::char_traits<char>,std::allocator<char> >::size
; Function compile flags: /Ogty
; File c:\program files\microsoft visual studio .net 2003\vc7\include\xstring
;	COMDAT ?size@?$basic_string@DU?$char_traits@D@std@@V?$allocator@D@2@@std@@QBEIXZ
_TEXT	SEGMENT
?size@?$basic_string@DU?$char_traits@D@std@@V?$allocator@D@2@@std@@QBEIXZ PROC NEAR ; std::basic_string<char,std::char_traits<char>,std::allocator<char> >::size, COMDAT
; _this$ = ecx

; 1109 : 		return (_Mysize);

  00000	8b 41 14	 mov	 eax, DWORD PTR [ecx+20]

; 1110 : 		}

  00003	c3		 ret	 0
?size@?$basic_string@DU?$char_traits@D@std@@V?$allocator@D@2@@std@@QBEIXZ ENDP ; std::basic_string<char,std::char_traits<char>,std::allocator<char> >::size
_TEXT	ENDS
PUBLIC	?_Myptr@?$basic_string@DU?$char_traits@D@std@@V?$allocator@D@2@@std@@QBEPBDXZ ; std::basic_string<char,std::char_traits<char>,std::allocator<char> >::_Myptr
; Function compile flags: /Ogty
;	COMDAT ?_Myptr@?$basic_string@DU?$char_traits@D@std@@V?$allocator@D@2@@std@@QBEPBDXZ
_TEXT	SEGMENT
?_Myptr@?$basic_string@DU?$char_traits@D@std@@V?$allocator@D@2@@std@@QBEPBDXZ PROC NEAR ; std::basic_string<char,std::char_traits<char>,std::allocator<char> >::_Myptr, COMDAT
; _this$ = ecx

; 1537 : 		return (_BUF_SIZE <= _Myres ? _Bx._Ptr : _Bx._Buf);

  00000	83 79 18 10	 cmp	 DWORD PTR [ecx+24], 16	; 00000010H
  00004	72 04		 jb	 SHORT $L232060
  00006	8b 41 04	 mov	 eax, DWORD PTR [ecx+4]

; 1538 : 		}

  00009	c3		 ret	 0
$L232060:

; 1537 : 		return (_BUF_SIZE <= _Myres ? _Bx._Ptr : _Bx._Buf);

  0000a	8d 41 04	 lea	 eax, DWORD PTR [ecx+4]

; 1538 : 		}

  0000d	c3		 ret	 0
?_Myptr@?$basic_string@DU?$char_traits@D@std@@V?$allocator@D@2@@std@@QBEPBDXZ ENDP ; std::basic_string<char,std::char_traits<char>,std::allocator<char> >::_Myptr
_TEXT	ENDS
PUBLIC	??0?$allocator@D@std@@QAE@XZ			; std::allocator<char>::allocator<char>
; Function compile flags: /Ogty
; File c:\program files\microsoft visual studio .net 2003\vc7\include\xmemory
;	COMDAT ??0?$allocator@D@std@@QAE@XZ
_TEXT	SEGMENT
??0?$allocator@D@std@@QAE@XZ PROC NEAR			; std::allocator<char>::allocator<char>, COMDAT
; _this$ = ecx

; 111  : 	allocator()

  00000	8b c1		 mov	 eax, ecx

; 112  : 		{	// construct default allocator (do nothing)
; 113  : 		}

  00002	c3		 ret	 0
??0?$allocator@D@std@@QAE@XZ ENDP			; std::allocator<char>::allocator<char>
_TEXT	ENDS
PUBLIC	??0?$allocator@D@std@@QAE@ABV01@@Z		; std::allocator<char>::allocator<char>
; Function compile flags: /Ogty
;	COMDAT ??0?$allocator@D@std@@QAE@ABV01@@Z
_TEXT	SEGMENT
___formal$ = 8						; size = 4
??0?$allocator@D@std@@QAE@ABV01@@Z PROC NEAR		; std::allocator<char>::allocator<char>, COMDAT
; _this$ = ecx

; 115  : 	allocator(const allocator<_Ty>&)

  00000	8b c1		 mov	 eax, ecx

; 116  : 		{	// construct by copying (do nothing)
; 117  : 		}

  00002	c2 04 00	 ret	 4
??0?$allocator@D@std@@QAE@ABV01@@Z ENDP			; std::allocator<char>::allocator<char>
_TEXT	ENDS
PUBLIC	?_Myptr@?$basic_string@DU?$char_traits@D@std@@V?$allocator@D@2@@std@@QAEPADXZ ; std::basic_string<char,std::char_traits<char>,std::allocator<char> >::_Myptr
; Function compile flags: /Ogty
; File c:\program files\microsoft visual studio .net 2003\vc7\include\xstring
;	COMDAT ?_Myptr@?$basic_string@DU?$char_traits@D@std@@V?$allocator@D@2@@std@@QAEPADXZ
_TEXT	SEGMENT
?_Myptr@?$basic_string@DU?$char_traits@D@std@@V?$allocator@D@2@@std@@QAEPADXZ PROC NEAR ; std::basic_string<char,std::char_traits<char>,std::allocator<char> >::_Myptr, COMDAT
; _this$ = ecx

; 1532 : 		return (_BUF_SIZE <= _Myres ? _Bx._Ptr : _Bx._Buf);

  00000	83 79 18 10	 cmp	 DWORD PTR [ecx+24], 16	; 00000010H
  00004	72 04		 jb	 SHORT $L232071
  00006	8b 41 04	 mov	 eax, DWORD PTR [ecx+4]

; 1533 : 		}

  00009	c3		 ret	 0
$L232071:

; 1532 : 		return (_BUF_SIZE <= _Myres ? _Bx._Ptr : _Bx._Buf);

  0000a	8d 41 04	 lea	 eax, DWORD PTR [ecx+4]

; 1533 : 		}

  0000d	c3		 ret	 0
?_Myptr@?$basic_string@DU?$char_traits@D@std@@V?$allocator@D@2@@std@@QAEPADXZ ENDP ; std::basic_string<char,std::char_traits<char>,std::allocator<char> >::_Myptr
_TEXT	ENDS
PUBLIC	?deallocate@?$allocator@D@std@@QAEXPADI@Z	; std::allocator<char>::deallocate
; Function compile flags: /Ogty
; File c:\program files\microsoft visual studio .net 2003\vc7\include\xmemory
;	COMDAT ?deallocate@?$allocator@D@std@@QAEXPADI@Z
_TEXT	SEGMENT
__Ptr$ = 8						; size = 4
___formal$ = 12						; size = 4
?deallocate@?$allocator@D@std@@QAEXPADI@Z PROC NEAR	; std::allocator<char>::deallocate, COMDAT
; _this$ = ecx

; 132  : 		operator delete(_Ptr);

  00000	8b 44 24 04	 mov	 eax, DWORD PTR __Ptr$[esp-4]
  00004	50		 push	 eax
  00005	e8 00 00 00 00	 call	 ??3@YAXPAX@Z		; operator delete
  0000a	59		 pop	 ecx

; 133  : 		}

  0000b	c2 08 00	 ret	 8
?deallocate@?$allocator@D@std@@QAEXPADI@Z ENDP		; std::allocator<char>::deallocate
_TEXT	ENDS
PUBLIC	?_Inside@?$basic_string@DU?$char_traits@D@std@@V?$allocator@D@2@@std@@IAE_NPBD@Z ; std::basic_string<char,std::char_traits<char>,std::allocator<char> >::_Inside
; Function compile flags: /Ogty
; File c:\program files\microsoft visual studio .net 2003\vc7\include\xstring
;	COMDAT ?_Inside@?$basic_string@DU?$char_traits@D@std@@V?$allocator@D@2@@std@@IAE_NPBD@Z
_TEXT	SEGMENT
__Ptr$ = 8						; size = 4
?_Inside@?$basic_string@DU?$char_traits@D@std@@V?$allocator@D@2@@std@@IAE_NPBD@Z PROC NEAR ; std::basic_string<char,std::char_traits<char>,std::allocator<char> >::_Inside, COMDAT
; _this$ = ecx

; 1494 : 		{	// test if _Ptr points inside string

  00000	56		 push	 esi

; 1495 : 		if (_Ptr < _Myptr() || _Myptr() + _Mysize <= _Ptr)

  00001	8b 71 18	 mov	 esi, DWORD PTR [ecx+24]
  00004	83 fe 10	 cmp	 esi, 16			; 00000010H
  00007	57		 push	 edi
  00008	8d 41 04	 lea	 eax, DWORD PTR [ecx+4]
  0000b	72 04		 jb	 SHORT $L232084
  0000d	8b 10		 mov	 edx, DWORD PTR [eax]
  0000f	eb 02		 jmp	 SHORT $L232085
$L232084:
  00011	8b d0		 mov	 edx, eax
$L232085:
  00013	8b 7c 24 0c	 mov	 edi, DWORD PTR __Ptr$[esp+4]
  00017	3b fa		 cmp	 edi, edx
  00019	72 17		 jb	 SHORT $L222788
  0001b	83 fe 10	 cmp	 esi, 16			; 00000010H
  0001e	72 02		 jb	 SHORT $L232092
  00020	8b 00		 mov	 eax, DWORD PTR [eax]
$L232092:
  00022	8b 49 14	 mov	 ecx, DWORD PTR [ecx+20]
  00025	03 c8		 add	 ecx, eax
  00027	3b cf		 cmp	 ecx, edi
  00029	76 07		 jbe	 SHORT $L222788
  0002b	5f		 pop	 edi

; 1497 : 		else
; 1498 : 			return (true);

  0002c	b0 01		 mov	 al, 1
  0002e	5e		 pop	 esi

; 1499 : 		}

  0002f	c2 04 00	 ret	 4
$L222788:
  00032	5f		 pop	 edi

; 1496 : 			return (false);	// don't ask

  00033	32 c0		 xor	 al, al
  00035	5e		 pop	 esi

; 1499 : 		}

  00036	c2 04 00	 ret	 4
?_Inside@?$basic_string@DU?$char_traits@D@std@@V?$allocator@D@2@@std@@IAE_NPBD@Z ENDP ; std::basic_string<char,std::char_traits<char>,std::allocator<char> >::_Inside
_TEXT	ENDS
PUBLIC	?max_size@?$allocator@D@std@@QBEIXZ		; std::allocator<char>::max_size
; Function compile flags: /Ogty
; File c:\program files\microsoft visual studio .net 2003\vc7\include\xmemory
;	COMDAT ?max_size@?$allocator@D@std@@QBEIXZ
_TEXT	SEGMENT
?max_size@?$allocator@D@std@@QBEIXZ PROC NEAR		; std::allocator<char>::max_size, COMDAT
; _this$ = ecx

; 157  : 		_SIZT _Count = (_SIZT)(-1) / sizeof (_Ty);
; 158  : 		return (0 < _Count ? _Count : 1);

  00000	83 c8 ff	 or	 eax, -1

; 159  : 		}

  00003	c3		 ret	 0
?max_size@?$allocator@D@std@@QBEIXZ ENDP		; std::allocator<char>::max_size
_TEXT	ENDS
PUBLIC	??$_Allocate@D@std@@YAPADIPAD@Z			; std::_Allocate<char>
; Function compile flags: /Ogty
;	COMDAT ??$_Allocate@D@std@@YAPADIPAD@Z
_TEXT	SEGMENT
__Count$ = 8						; size = 4
___formal$ = 12						; size = 4
??$_Allocate@D@std@@YAPADIPAD@Z PROC NEAR		; std::_Allocate<char>, COMDAT

; 34   : 	return ((_Ty _FARQ *)operator new(_Count * sizeof (_Ty)));

  00000	8b 44 24 04	 mov	 eax, DWORD PTR __Count$[esp-4]
  00004	50		 push	 eax
  00005	e8 00 00 00 00	 call	 ??2@YAPAXI@Z		; operator new
  0000a	83 c4 04	 add	 esp, 4

; 35   : 	}

  0000d	c3		 ret	 0
??$_Allocate@D@std@@YAPADIPAD@Z ENDP			; std::_Allocate<char>
_TEXT	ENDS
PUBLIC	?AddTail@CBufferQueue@@QAEXPAVCBuffer@@@Z	; CBufferQueue::AddTail
; Function compile flags: /Ogty
; File c:\documents and settings\test\mes documents\source\virtuos_v17\build\program\_network\net\include\buffer.h
;	COMDAT ?AddTail@CBufferQueue@@QAEXPAVCBuffer@@@Z
_TEXT	SEGMENT
_pBuffer$ = 8						; size = 4
?AddTail@CBufferQueue@@QAEXPAVCBuffer@@@Z PROC NEAR	; CBufferQueue::AddTail, COMDAT
; _this$ = ecx

; 224  : {	

  00000	56		 push	 esi
  00001	57		 push	 edi
  00002	8b f1		 mov	 esi, ecx

; 225  : 	CMclAutoLock	Lock( m_cs );

  00004	8d 7e 14	 lea	 edi, DWORD PTR [esi+20]
  00007	57		 push	 edi
  00008	ff 15 00 00 00
	00		 call	 DWORD PTR __imp__EnterCriticalSection@4

; 226  : //	Add it to the active list	
; 227  : 	if( !m_pHead )

  0000e	8b 46 04	 mov	 eax, DWORD PTR [esi+4]
  00011	85 c0		 test	 eax, eax
  00013	8b 44 24 0c	 mov	 eax, DWORD PTR _pBuffer$[esp+4]
  00017	75 03		 jne	 SHORT $L227463

; 228  : 		m_pHead		= pBuffer;

  00019	89 46 04	 mov	 DWORD PTR [esi+4], eax
$L227463:

; 229  : 	if( m_pTail )

  0001c	8b 4e 08	 mov	 ecx, DWORD PTR [esi+8]
  0001f	85 c9		 test	 ecx, ecx
  00021	74 06		 je	 SHORT $L227464

; 230  : 		m_pTail->pNext	= pBuffer;

  00023	89 81 1c 20 00
	00		 mov	 DWORD PTR [ecx+8220], eax
$L227464:

; 231  : 	pBuffer->pPrevious	= m_pTail;

  00029	8b 4e 08	 mov	 ecx, DWORD PTR [esi+8]
  0002c	89 88 20 20 00
	00		 mov	 DWORD PTR [eax+8224], ecx

; 232  : 	pBuffer->pNext	= NULL;

  00032	c7 80 1c 20 00
	00 00 00 00 00	 mov	 DWORD PTR [eax+8220], 0

; 233  : 	m_pTail		= pBuffer;
; 234  : 	m_uCount++;

  0003c	8b 4e 0c	 mov	 ecx, DWORD PTR [esi+12]
  0003f	41		 inc	 ecx

; 235  : }

  00040	57		 push	 edi
  00041	89 46 08	 mov	 DWORD PTR [esi+8], eax
  00044	89 4e 0c	 mov	 DWORD PTR [esi+12], ecx
  00047	ff 15 00 00 00
	00		 call	 DWORD PTR __imp__LeaveCriticalSection@4
  0004d	5f		 pop	 edi
  0004e	5e		 pop	 esi
  0004f	c2 04 00	 ret	 4
?AddTail@CBufferQueue@@QAEXPAVCBuffer@@@Z ENDP		; CBufferQueue::AddTail
_TEXT	ENDS
PUBLIC	?Receive@CDPSock@@QAEPAVCBuffer@@XZ		; CDPSock::Receive
; Function compile flags: /Ogty
; File c:\documents and settings\test\mes documents\source\virtuos_v17\build\program\_network\net\src\dpsock.cpp
;	COMDAT ?Receive@CDPSock@@QAEPAVCBuffer@@XZ
_TEXT	SEGMENT
?Receive@CDPSock@@QAEPAVCBuffer@@XZ PROC NEAR		; CDPSock::Receive, COMDAT
; _this$ = ecx

; 438  : {

  00000	53		 push	 ebx
  00001	56		 push	 esi
  00002	57		 push	 edi
  00003	8b f1		 mov	 esi, ecx

; 439  : 	CMclAutoLock	Lock( m_lspRecvBuffer.m_cs );

  00005	8d 7e 7c	 lea	 edi, DWORD PTR [esi+124]
  00008	57		 push	 edi
  00009	ff 15 00 00 00
	00		 call	 DWORD PTR __imp__EnterCriticalSection@4

; 440  : 
; 441  : 	CBuffer* pBuffer = m_lspRecvBuffer.GetHead();

  0000f	8b 5e 6c	 mov	 ebx, DWORD PTR [esi+108]

; 442  : 	if( pBuffer )

  00012	33 c9		 xor	 ecx, ecx
  00014	3b d9		 cmp	 ebx, ecx
  00016	74 41		 je	 SHORT $L229479

; 443  : 	{
; 444  : 		m_lspRecvBuffer.RemoveHead();

  00018	39 4e 74	 cmp	 DWORD PTR [esi+116], ecx
  0001b	74 28		 je	 SHORT $L232146
  0001d	8b 56 70	 mov	 edx, DWORD PTR [esi+112]
  00020	8b c3		 mov	 eax, ebx
  00022	3b d0		 cmp	 edx, eax
  00024	75 03		 jne	 SHORT $L232147
  00026	89 4e 70	 mov	 DWORD PTR [esi+112], ecx
$L232147:
  00029	8b 80 1c 20 00
	00		 mov	 eax, DWORD PTR [eax+8220]
  0002f	3b c1		 cmp	 eax, ecx
  00031	74 06		 je	 SHORT $L232148
  00033	89 88 20 20 00
	00		 mov	 DWORD PTR [eax+8224], ecx
$L232148:
  00039	8b 46 6c	 mov	 eax, DWORD PTR [esi+108]
  0003c	8b 88 1c 20 00
	00		 mov	 ecx, DWORD PTR [eax+8220]
  00042	89 4e 6c	 mov	 DWORD PTR [esi+108], ecx
$L232146:
  00045	8b 4e 74	 mov	 ecx, DWORD PTR [esi+116]
  00048	49		 dec	 ecx

; 445  : 		return pBuffer;

  00049	57		 push	 edi
  0004a	89 4e 74	 mov	 DWORD PTR [esi+116], ecx
  0004d	ff 15 00 00 00
	00		 call	 DWORD PTR __imp__LeaveCriticalSection@4
  00053	5f		 pop	 edi
  00054	5e		 pop	 esi
  00055	8b c3		 mov	 eax, ebx
  00057	5b		 pop	 ebx

; 449  : }

  00058	c3		 ret	 0
$L229479:

; 446  : 	}
; 447  : 	else
; 448  : 		return NULL;

  00059	57		 push	 edi
  0005a	ff 15 00 00 00
	00		 call	 DWORD PTR __imp__LeaveCriticalSection@4
  00060	5f		 pop	 edi
  00061	5e		 pop	 esi
  00062	33 c0		 xor	 eax, eax
  00064	5b		 pop	 ebx

; 449  : }

  00065	c3		 ret	 0
?Receive@CDPSock@@QAEPAVCBuffer@@XZ ENDP		; CDPSock::Receive
_TEXT	ENDS
PUBLIC	?AddCreatePlayerOrGroupMsg@CDPSock@@QAEXKPAVCBuffer@@@Z ; CDPSock::AddCreatePlayerOrGroupMsg
EXTRN	__imp__SetEvent@4:NEAR
; Function compile flags: /Ogty
;	COMDAT ?AddCreatePlayerOrGroupMsg@CDPSock@@QAEXKPAVCBuffer@@@Z
_TEXT	SEGMENT
_createPlayer$ = -48					; size = 48
_dpid$ = 8						; size = 4
_pBuffer$ = 12						; size = 4
?AddCreatePlayerOrGroupMsg@CDPSock@@QAEXKPAVCBuffer@@@Z PROC NEAR ; CDPSock::AddCreatePlayerOrGroupMsg, COMDAT
; _this$ = ecx

; 485  : {

  00000	83 ec 30	 sub	 esp, 48			; 00000030H
  00003	53		 push	 ebx

; 486  : 	DPMSG_CREATEPLAYERORGROUP createPlayer;
; 487  : 	
; 488  : 	ZeroMemory( (void*)&createPlayer, sizeof(DPMSG_CREATEPLAYERORGROUP) );
; 489  : 	createPlayer.dwType	= DPSYS_CREATEPLAYERORGROUP;	
; 490  : 	createPlayer.dwPlayerType	= DPPLAYERTYPE_PLAYER;	
; 491  : 	createPlayer.dpId	= dpid;	
; 492  : 	createPlayer.dpIdParent	= DPID_SERVERPLAYER;
; 493  : 	
; 494  : 	pBuffer->dpid	= DPID_SYSMSG;

  00004	8b 5c 24 3c	 mov	 ebx, DWORD PTR _pBuffer$[esp+48]

; 495  : 	pBuffer->cb++;
; 496  : 
; 497  : #ifdef __CRC
; 498  : 	*pBuffer->m_pTail	= SYSHEADERMARK;	
; 499  : 	pBuffer->m_pTail++;
; 500  : 
; 501  : #ifdef __PACKET_REPLAY_R
; 502  : 	if( m_dwDataSizeOffset != sizeof(char) )
; 503  : 		pBuffer->m_pTail	+= sizeof(int) + sizeof(DWORD);	// + 4 + 4
; 504  : #else	// __PACKET_REPLAY_R
; 505  : 	if( m_dwDataSizeOffset != sizeof(char) )
; 506  : 		pBuffer->m_pTail	+= sizeof(DWORD);	// + 4
; 507  : #endif	// __PACKET_REPLAY_R
; 508  : 
; 509  : 	*(UNALIGNED DWORD*)pBuffer->m_pTail	= sizeof(DPMSG_CREATEPLAYERORGROUP);
; 510  : 	pBuffer->m_pTail	+= sizeof(DWORD);
; 511  : 
; 512  : 	if( m_dwDataSizeOffset != sizeof(char) )
; 513  : 		pBuffer->m_pTail	+= sizeof(DWORD);	// + 4
; 514  : #else	
; 515  : 	pBuffer->SetHeader( sizeof(DPMSG_CREATEPLAYERORGROUP) );

  00008	8b 13		 mov	 edx, DWORD PTR [ebx]
  0000a	55		 push	 ebp
  0000b	56		 push	 esi
  0000c	8b e9		 mov	 ebp, ecx
  0000e	57		 push	 edi
  0000f	33 c0		 xor	 eax, eax
  00011	b9 0c 00 00 00	 mov	 ecx, 12			; 0000000cH
  00016	8d 7c 24 10	 lea	 edi, DWORD PTR _createPlayer$[esp+64]
  0001a	f3 ab		 rep stosd
  0001c	8b 4c 24 44	 mov	 ecx, DWORD PTR _dpid$[esp+60]
  00020	b8 01 00 00 00	 mov	 eax, 1
  00025	89 44 24 14	 mov	 DWORD PTR _createPlayer$[esp+68], eax
  00029	89 44 24 38	 mov	 DWORD PTR _createPlayer$[esp+104], eax
  0002d	8b 43 08	 mov	 eax, DWORD PTR [ebx+8]
  00030	89 4c 24 18	 mov	 DWORD PTR _createPlayer$[esp+72], ecx
  00034	40		 inc	 eax
  00035	6a 30		 push	 48			; 00000030H
  00037	8b cb		 mov	 ecx, ebx
  00039	c7 44 24 14 03
	00 00 00	 mov	 DWORD PTR _createPlayer$[esp+68], 3
  00041	c7 43 04 00 00
	00 00		 mov	 DWORD PTR [ebx+4], 0
  00048	89 43 08	 mov	 DWORD PTR [ebx+8], eax
  0004b	ff 52 08	 call	 DWORD PTR [edx+8]

; 516  : #endif	// __CRC
; 517  : 
; 518  : 	memcpy( pBuffer->m_pTail, (LPBYTE)&createPlayer, sizeof(DPMSG_CREATEPLAYERORGROUP) );

  0004e	8b bb 18 20 00
	00		 mov	 edi, DWORD PTR [ebx+8216]
  00054	b9 0c 00 00 00	 mov	 ecx, 12			; 0000000cH
  00059	8d 74 24 10	 lea	 esi, DWORD PTR _createPlayer$[esp+64]
  0005d	f3 a5		 rep movsd

; 519  : 	pBuffer->m_pTail	+= sizeof(DPMSG_CREATEPLAYERORGROUP);	

  0005f	8b b3 18 20 00
	00		 mov	 esi, DWORD PTR [ebx+8216]
  00065	83 c6 30	 add	 esi, 48			; 00000030H

; 520  : 	m_lspRecvBuffer.AddTail( pBuffer );

  00068	53		 push	 ebx
  00069	8d 4d 68	 lea	 ecx, DWORD PTR [ebp+104]
  0006c	89 b3 18 20 00
	00		 mov	 DWORD PTR [ebx+8216], esi
  00072	e8 00 00 00 00	 call	 ?AddTail@CBufferQueue@@QAEXPAVCBuffer@@@Z ; CBufferQueue::AddTail

; 521  : 
; 522  : 	SetEvent( m_hRecv );

  00077	8b 45 60	 mov	 eax, DWORD PTR [ebp+96]
  0007a	50		 push	 eax
  0007b	ff 15 00 00 00
	00		 call	 DWORD PTR __imp__SetEvent@4
  00081	5f		 pop	 edi
  00082	5e		 pop	 esi
  00083	5d		 pop	 ebp
  00084	5b		 pop	 ebx

; 523  : }

  00085	83 c4 30	 add	 esp, 48			; 00000030H
  00088	c2 08 00	 ret	 8
?AddCreatePlayerOrGroupMsg@CDPSock@@QAEXKPAVCBuffer@@@Z ENDP ; CDPSock::AddCreatePlayerOrGroupMsg
_TEXT	ENDS
PUBLIC	?AddDestroyPlayerOrGroupMsg@CDPSock@@QAEXKPAVCBuffer@@@Z ; CDPSock::AddDestroyPlayerOrGroupMsg
; Function compile flags: /Ogty
;	COMDAT ?AddDestroyPlayerOrGroupMsg@CDPSock@@QAEXKPAVCBuffer@@@Z
_TEXT	SEGMENT
_destroyPlayer$ = -52					; size = 52
_dpid$ = 8						; size = 4
_pBuffer$ = 12						; size = 4
?AddDestroyPlayerOrGroupMsg@CDPSock@@QAEXKPAVCBuffer@@@Z PROC NEAR ; CDPSock::AddDestroyPlayerOrGroupMsg, COMDAT
; _this$ = ecx

; 526  : {

  00000	83 ec 34	 sub	 esp, 52			; 00000034H
  00003	53		 push	 ebx

; 527  : 	DPMSG_DESTROYPLAYERORGROUP destroyPlayer;
; 528  : 
; 529  : 	ZeroMemory( (void*)&destroyPlayer, sizeof(DPMSG_DESTROYPLAYERORGROUP) );
; 530  : 	destroyPlayer.dwType	= DPSYS_DESTROYPLAYERORGROUP;
; 531  : 	destroyPlayer.dwPlayerType	= DPPLAYERTYPE_PLAYER;	
; 532  : 	destroyPlayer.dpId	= dpid;		
; 533  : 	destroyPlayer.dpIdParent	= DPID_SERVERPLAYER;	
; 534  : #ifdef __INFO_SOCKLIB0516
; 535  : 	destroyPlayer.dwFlags = GetDebugInfo( dpid );
; 536  : #endif
; 537  : 	pBuffer->dpid	= DPID_SYSMSG;

  00004	8b 5c 24 40	 mov	 ebx, DWORD PTR _pBuffer$[esp+52]

; 538  : 	pBuffer->cb++;
; 539  : 
; 540  : #ifdef __CRC
; 541  : 	*pBuffer->m_pTail	= SYSHEADERMARK;	
; 542  : 	pBuffer->m_pTail++;
; 543  : 
; 544  : #ifdef __PACKET_REPLAY_R
; 545  : 	if( m_dwDataSizeOffset != sizeof(char) )
; 546  : 		pBuffer->m_pTail	+= sizeof(int) + sizeof(DWORD);	// + 4
; 547  : #else	// __PACKET_REPLAY_R
; 548  : 	if( m_dwDataSizeOffset != sizeof(char) )
; 549  : 		pBuffer->m_pTail	+= sizeof(DWORD);	// + 4
; 550  : #endif	// __PACKET_REPLAY_R
; 551  : 
; 552  : 	*(UNALIGNED DWORD*)pBuffer->m_pTail	= sizeof(DPMSG_DESTROYPLAYERORGROUP);
; 553  : 	pBuffer->m_pTail	+= sizeof(DWORD);
; 554  : 
; 555  : 	if( m_dwDataSizeOffset != sizeof(char) )
; 556  : 		pBuffer->m_pTail	+= sizeof(DWORD);	// + 4
; 557  : #else
; 558  : 	pBuffer->SetHeader( sizeof(DPMSG_DESTROYPLAYERORGROUP) );

  00008	8b 13		 mov	 edx, DWORD PTR [ebx]
  0000a	55		 push	 ebp
  0000b	56		 push	 esi
  0000c	8b e9		 mov	 ebp, ecx
  0000e	57		 push	 edi
  0000f	33 c0		 xor	 eax, eax
  00011	b9 0d 00 00 00	 mov	 ecx, 13			; 0000000dH
  00016	8d 7c 24 10	 lea	 edi, DWORD PTR _destroyPlayer$[esp+68]
  0001a	f3 ab		 rep stosd
  0001c	8b 4c 24 48	 mov	 ecx, DWORD PTR _dpid$[esp+64]
  00020	b8 01 00 00 00	 mov	 eax, 1
  00025	89 44 24 14	 mov	 DWORD PTR _destroyPlayer$[esp+72], eax
  00029	89 44 24 3c	 mov	 DWORD PTR _destroyPlayer$[esp+112], eax
  0002d	8b 43 08	 mov	 eax, DWORD PTR [ebx+8]
  00030	89 4c 24 18	 mov	 DWORD PTR _destroyPlayer$[esp+76], ecx
  00034	40		 inc	 eax
  00035	6a 34		 push	 52			; 00000034H
  00037	8b cb		 mov	 ecx, ebx
  00039	c7 44 24 14 05
	00 00 00	 mov	 DWORD PTR _destroyPlayer$[esp+72], 5
  00041	c7 43 04 00 00
	00 00		 mov	 DWORD PTR [ebx+4], 0
  00048	89 43 08	 mov	 DWORD PTR [ebx+8], eax
  0004b	ff 52 08	 call	 DWORD PTR [edx+8]

; 559  : #endif	// __CRC
; 560  : 
; 561  : 	memcpy( pBuffer->m_pTail, (LPBYTE)&destroyPlayer, sizeof(DPMSG_DESTROYPLAYERORGROUP) );

  0004e	8b bb 18 20 00
	00		 mov	 edi, DWORD PTR [ebx+8216]
  00054	b9 0d 00 00 00	 mov	 ecx, 13			; 0000000dH
  00059	8d 74 24 10	 lea	 esi, DWORD PTR _destroyPlayer$[esp+68]
  0005d	f3 a5		 rep movsd

; 562  : 	pBuffer->m_pTail	+= sizeof(DPMSG_DESTROYPLAYERORGROUP);	

  0005f	8b b3 18 20 00
	00		 mov	 esi, DWORD PTR [ebx+8216]
  00065	83 c6 34	 add	 esi, 52			; 00000034H

; 563  : 	m_lspRecvBuffer.AddTail( pBuffer );

  00068	53		 push	 ebx
  00069	8d 4d 68	 lea	 ecx, DWORD PTR [ebp+104]
  0006c	89 b3 18 20 00
	00		 mov	 DWORD PTR [ebx+8216], esi
  00072	e8 00 00 00 00	 call	 ?AddTail@CBufferQueue@@QAEXPAVCBuffer@@@Z ; CBufferQueue::AddTail

; 564  : 
; 565  : 	SetEvent( m_hRecv );

  00077	8b 45 60	 mov	 eax, DWORD PTR [ebp+96]
  0007a	50		 push	 eax
  0007b	ff 15 00 00 00
	00		 call	 DWORD PTR __imp__SetEvent@4
  00081	5f		 pop	 edi
  00082	5e		 pop	 esi
  00083	5d		 pop	 ebp
  00084	5b		 pop	 ebx

; 566  : }

  00085	83 c4 34	 add	 esp, 52			; 00000034H
  00088	c2 08 00	 ret	 8
?AddDestroyPlayerOrGroupMsg@CDPSock@@QAEXKPAVCBuffer@@@Z ENDP ; CDPSock::AddDestroyPlayerOrGroupMsg
_TEXT	ENDS
PUBLIC	??Eiterator@?$list@PAXV?$allocator@PAX@std@@@std@@QAEAAV012@XZ ; std::list<void *,std::allocator<void *> >::iterator::operator++
; Function compile flags: /Ogty
; File c:\program files\microsoft visual studio .net 2003\vc7\include\list
;	COMDAT ??Eiterator@?$list@PAXV?$allocator@PAX@std@@@std@@QAEAAV012@XZ
_TEXT	SEGMENT
??Eiterator@?$list@PAXV?$allocator@PAX@std@@@std@@QAEAAV012@XZ PROC NEAR ; std::list<void *,std::allocator<void *> >::iterator::operator++, COMDAT
; _this$ = ecx

; 249  : 			{	// preincrement

  00000	8b c1		 mov	 eax, ecx

; 250  : 			++(*(const_iterator *)this);

  00002	8b 08		 mov	 ecx, DWORD PTR [eax]
  00004	8b 11		 mov	 edx, DWORD PTR [ecx]
  00006	89 10		 mov	 DWORD PTR [eax], edx

; 251  : 			return (*this);
; 252  : 			}

  00008	c3		 ret	 0
??Eiterator@?$list@PAXV?$allocator@PAX@std@@@std@@QAEAAV012@XZ ENDP ; std::list<void *,std::allocator<void *> >::iterator::operator++
_TEXT	ENDS
PUBLIC	??9const_iterator@?$list@PAXV?$allocator@PAX@std@@@std@@QBE_NABV012@@Z ; std::list<void *,std::allocator<void *> >::const_iterator::operator!=
; Function compile flags: /Ogty
;	COMDAT ??9const_iterator@?$list@PAXV?$allocator@PAX@std@@@std@@QBE_NABV012@@Z
_TEXT	SEGMENT
__Right$ = 8						; size = 4
??9const_iterator@?$list@PAXV?$allocator@PAX@std@@@std@@QBE_NABV012@@Z PROC NEAR ; std::list<void *,std::allocator<void *> >::const_iterator::operator!=, COMDAT
; _this$ = ecx

; 202  : 			return (!(*this == _Right));

  00000	8b 01		 mov	 eax, DWORD PTR [ecx]
  00002	8b 54 24 04	 mov	 edx, DWORD PTR __Right$[esp-4]
  00006	56		 push	 esi
  00007	8b 32		 mov	 esi, DWORD PTR [edx]
  00009	33 c9		 xor	 ecx, ecx
  0000b	3b c6		 cmp	 eax, esi
  0000d	0f 95 c1	 setne	 cl
  00010	8a c1		 mov	 al, cl
  00012	5e		 pop	 esi

; 203  : 			}

  00013	c2 04 00	 ret	 4
??9const_iterator@?$list@PAXV?$allocator@PAX@std@@@std@@QBE_NABV012@@Z ENDP ; std::list<void *,std::allocator<void *> >::const_iterator::operator!=
_TEXT	ENDS
PUBLIC	?destroy@?$allocator@U_Node@?$_List_nod@PAXV?$allocator@PAX@std@@@std@@@std@@QAEXPAU_Node@?$_List_nod@PAXV?$allocator@PAX@std@@@2@@Z ; std::allocator<std::_List_nod<void *,std::allocator<void *> >::_Node>::destroy
; Function compile flags: /Ogty
; File c:\program files\microsoft visual studio .net 2003\vc7\include\xmemory
;	COMDAT ?destroy@?$allocator@U_Node@?$_List_nod@PAXV?$allocator@PAX@std@@@std@@@std@@QAEXPAU_Node@?$_List_nod@PAXV?$allocator@PAX@std@@@2@@Z
_TEXT	SEGMENT
__Ptr$ = 8						; size = 4
?destroy@?$allocator@U_Node@?$_List_nod@PAXV?$allocator@PAX@std@@@std@@@std@@QAEXPAU_Node@?$_List_nod@PAXV?$allocator@PAX@std@@@2@@Z PROC NEAR ; std::allocator<std::_List_nod<void *,std::allocator<void *> >::_Node>::destroy, COMDAT
; _this$ = ecx

; 152  : 		_Destroy(_Ptr);
; 153  : 		}

  00000	c2 04 00	 ret	 4
?destroy@?$allocator@U_Node@?$_List_nod@PAXV?$allocator@PAX@std@@@std@@@std@@QAEXPAU_Node@?$_List_nod@PAXV?$allocator@PAX@std@@@2@@Z ENDP ; std::allocator<std::_List_nod<void *,std::allocator<void *> >::_Node>::destroy
_TEXT	ENDS
PUBLIC	??0iterator@?$list@PAXV?$allocator@PAX@std@@@std@@QAE@PAU_Node@?$_List_nod@PAXV?$allocator@PAX@std@@@2@@Z ; std::list<void *,std::allocator<void *> >::iterator::iterator
; Function compile flags: /Ogty
; File c:\program files\microsoft visual studio .net 2003\vc7\include\list
;	COMDAT ??0iterator@?$list@PAXV?$allocator@PAX@std@@@std@@QAE@PAU_Node@?$_List_nod@PAXV?$allocator@PAX@std@@@2@@Z
_TEXT	SEGMENT
__Pnode$ = 8						; size = 4
??0iterator@?$list@PAXV?$allocator@PAX@std@@@std@@QAE@PAU_Node@?$_List_nod@PAXV?$allocator@PAX@std@@@2@@Z PROC NEAR ; std::list<void *,std::allocator<void *> >::iterator::iterator, COMDAT
; _this$ = ecx

; 235  : 			{	// construct with node pointer _Pnode

  00000	8b c1		 mov	 eax, ecx
  00002	8b 4c 24 04	 mov	 ecx, DWORD PTR __Pnode$[esp-4]
  00006	89 08		 mov	 DWORD PTR [eax], ecx

; 236  : 			}

  00008	c2 04 00	 ret	 4
??0iterator@?$list@PAXV?$allocator@PAX@std@@@std@@QAE@PAU_Node@?$_List_nod@PAXV?$allocator@PAX@std@@@2@@Z ENDP ; std::list<void *,std::allocator<void *> >::iterator::iterator
_TEXT	ENDS
PUBLIC	??Eiterator@?$list@PAXV?$allocator@PAX@std@@@std@@QAE?AV012@H@Z ; std::list<void *,std::allocator<void *> >::iterator::operator++
; Function compile flags: /Ogty
;	COMDAT ??Eiterator@?$list@PAXV?$allocator@PAX@std@@@std@@QAE?AV012@H@Z
_TEXT	SEGMENT
___$ReturnUdt$ = 8					; size = 4
___formal$ = 12						; size = 4
??Eiterator@?$list@PAXV?$allocator@PAX@std@@@std@@QAE?AV012@H@Z PROC NEAR ; std::list<void *,std::allocator<void *> >::iterator::operator++, COMDAT
; _this$ = ecx

; 256  : 			iterator _Tmp = *this;

  00000	8b 11		 mov	 edx, DWORD PTR [ecx]

; 257  : 			++*this;

  00002	8b 02		 mov	 eax, DWORD PTR [edx]
  00004	89 01		 mov	 DWORD PTR [ecx], eax

; 258  : 			return (_Tmp);

  00006	8b 44 24 04	 mov	 eax, DWORD PTR ___$ReturnUdt$[esp-4]
  0000a	89 10		 mov	 DWORD PTR [eax], edx

; 259  : 			}

  0000c	c2 08 00	 ret	 8
??Eiterator@?$list@PAXV?$allocator@PAX@std@@@std@@QAE?AV012@H@Z ENDP ; std::list<void *,std::allocator<void *> >::iterator::operator++
_TEXT	ENDS
PUBLIC	??Dconst_iterator@?$list@PAXV?$allocator@PAX@std@@@std@@QBEABQAXXZ ; std::list<void *,std::allocator<void *> >::const_iterator::operator*
; Function compile flags: /Ogty
;	COMDAT ??Dconst_iterator@?$list@PAXV?$allocator@PAX@std@@@std@@QBEABQAXXZ
_TEXT	SEGMENT
??Dconst_iterator@?$list@PAXV?$allocator@PAX@std@@@std@@QBEABQAXXZ PROC NEAR ; std::list<void *,std::allocator<void *> >::const_iterator::operator*, COMDAT
; _this$ = ecx

; 161  : 			return (_Myval(_Ptr));

  00000	8b 01		 mov	 eax, DWORD PTR [ecx]
  00002	83 c0 08	 add	 eax, 8

; 162  : 			}

  00005	c3		 ret	 0
??Dconst_iterator@?$list@PAXV?$allocator@PAX@std@@@std@@QBEABQAXXZ ENDP ; std::list<void *,std::allocator<void *> >::const_iterator::operator*
_TEXT	ENDS
PUBLIC	?clear@?$list@PAXV?$allocator@PAX@std@@@std@@QAEXXZ ; std::list<void *,std::allocator<void *> >::clear
; Function compile flags: /Ogty
;	COMDAT ?clear@?$list@PAXV?$allocator@PAX@std@@@std@@QAEXXZ
_TEXT	SEGMENT
?clear@?$list@PAXV?$allocator@PAX@std@@@std@@QAEXXZ PROC NEAR ; std::list<void *,std::allocator<void *> >::clear, COMDAT
; _this$ = ecx

; 610  : 		{	// erase all

  00000	56		 push	 esi
  00001	8b f1		 mov	 esi, ecx

; 611  : 		_Nodeptr _Pnext;
; 612  : 		_Nodeptr _Pnode = _Nextnode(_Myhead);

  00003	8b 4e 04	 mov	 ecx, DWORD PTR [esi+4]
  00006	8b 01		 mov	 eax, DWORD PTR [ecx]

; 613  : 		_Nextnode(_Myhead) = _Myhead;

  00008	89 09		 mov	 DWORD PTR [ecx], ecx

; 614  : 		_Prevnode(_Myhead) = _Myhead;

  0000a	8b 4e 04	 mov	 ecx, DWORD PTR [esi+4]
  0000d	89 49 04	 mov	 DWORD PTR [ecx+4], ecx

; 615  : 		_Mysize = 0;
; 616  : 
; 617  : 		for (; _Pnode != _Myhead; _Pnode = _Pnext)

  00010	3b 46 04	 cmp	 eax, DWORD PTR [esi+4]
  00013	c7 46 08 00 00
	00 00		 mov	 DWORD PTR [esi+8], 0
  0001a	74 19		 je	 SHORT $L229974
  0001c	57		 push	 edi
  0001d	8d 49 00	 npad	 3
$L229972:

; 618  : 			{	// delete an element
; 619  : 			_Pnext = _Nextnode(_Pnode);

  00020	8b 38		 mov	 edi, DWORD PTR [eax]

; 620  : 			this->_Alnod.destroy(_Pnode);
; 621  : 			this->_Alnod.deallocate(_Pnode, 1);

  00022	50		 push	 eax
  00023	e8 00 00 00 00	 call	 ??3@YAXPAX@Z		; operator delete
  00028	8b 4e 04	 mov	 ecx, DWORD PTR [esi+4]
  0002b	83 c4 04	 add	 esp, 4
  0002e	3b f9		 cmp	 edi, ecx
  00030	8b c7		 mov	 eax, edi
  00032	75 ec		 jne	 SHORT $L229972
  00034	5f		 pop	 edi
$L229974:
  00035	5e		 pop	 esi

; 622  : 			}
; 623  : 		}

  00036	c3		 ret	 0
?clear@?$list@PAXV?$allocator@PAX@std@@@std@@QAEXXZ ENDP ; std::list<void *,std::allocator<void *> >::clear
_TEXT	ENDS
PUBLIC	?allocate@?$allocator@U_Node@?$_List_nod@PAXV?$allocator@PAX@std@@@std@@@std@@QAEPAU_Node@?$_List_nod@PAXV?$allocator@PAX@std@@@2@I@Z ; std::allocator<std::_List_nod<void *,std::allocator<void *> >::_Node>::allocate
; Function compile flags: /Ogty
; File c:\program files\microsoft visual studio .net 2003\vc7\include\xmemory
;	COMDAT ?allocate@?$allocator@U_Node@?$_List_nod@PAXV?$allocator@PAX@std@@@std@@@std@@QAEPAU_Node@?$_List_nod@PAXV?$allocator@PAX@std@@@2@I@Z
_TEXT	SEGMENT
__Count$ = 8						; size = 4
?allocate@?$allocator@U_Node@?$_List_nod@PAXV?$allocator@PAX@std@@@std@@@std@@QAEPAU_Node@?$_List_nod@PAXV?$allocator@PAX@std@@@2@I@Z PROC NEAR ; std::allocator<std::_List_nod<void *,std::allocator<void *> >::_Node>::allocate, COMDAT
; _this$ = ecx

; 137  : 		return (_Allocate(_Count, (pointer)0));

  00000	8b 44 24 04	 mov	 eax, DWORD PTR __Count$[esp-4]
  00004	8d 04 40	 lea	 eax, DWORD PTR [eax+eax*2]
  00007	c1 e0 02	 shl	 eax, 2
  0000a	50		 push	 eax
  0000b	e8 00 00 00 00	 call	 ??2@YAPAXI@Z		; operator new
  00010	83 c4 04	 add	 esp, 4

; 138  : 		}

  00013	c2 04 00	 ret	 4
?allocate@?$allocator@U_Node@?$_List_nod@PAXV?$allocator@PAX@std@@@std@@@std@@QAEPAU_Node@?$_List_nod@PAXV?$allocator@PAX@std@@@2@I@Z ENDP ; std::allocator<std::_List_nod<void *,std::allocator<void *> >::_Node>::allocate
_TEXT	ENDS
PUBLIC	?construct@?$allocator@PAU_Node@?$_List_nod@PAXV?$allocator@PAX@std@@@std@@@std@@QAEXPAPAU_Node@?$_List_nod@PAXV?$allocator@PAX@std@@@2@ABQAU342@@Z ; std::allocator<std::_List_nod<void *,std::allocator<void *> >::_Node *>::construct
; Function compile flags: /Ogty
;	COMDAT ?construct@?$allocator@PAU_Node@?$_List_nod@PAXV?$allocator@PAX@std@@@std@@@std@@QAEXPAPAU_Node@?$_List_nod@PAXV?$allocator@PAX@std@@@2@ABQAU342@@Z
_TEXT	SEGMENT
__Ptr$ = 8						; size = 4
__Val$ = 12						; size = 4
?construct@?$allocator@PAU_Node@?$_List_nod@PAXV?$allocator@PAX@std@@@std@@@std@@QAEXPAPAU_Node@?$_List_nod@PAXV?$allocator@PAX@std@@@2@ABQAU342@@Z PROC NEAR ; std::allocator<std::_List_nod<void *,std::allocator<void *> >::_Node *>::construct, COMDAT
; _this$ = ecx

; 147  : 		_Construct(_Ptr, _Val);

  00000	8b 44 24 04	 mov	 eax, DWORD PTR __Ptr$[esp-4]
  00004	85 c0		 test	 eax, eax
  00006	74 08		 je	 SHORT $L232282
  00008	8b 4c 24 08	 mov	 ecx, DWORD PTR __Val$[esp-4]
  0000c	8b 11		 mov	 edx, DWORD PTR [ecx]
  0000e	89 10		 mov	 DWORD PTR [eax], edx
$L232282:

; 148  : 		}

  00010	c2 08 00	 ret	 8
?construct@?$allocator@PAU_Node@?$_List_nod@PAXV?$allocator@PAX@std@@@std@@@std@@QAEXPAPAU_Node@?$_List_nod@PAXV?$allocator@PAX@std@@@2@ABQAU342@@Z ENDP ; std::allocator<std::_List_nod<void *,std::allocator<void *> >::_Node *>::construct
_TEXT	ENDS
PUBLIC	?destroy@?$allocator@PAU_Node@?$_List_nod@PAXV?$allocator@PAX@std@@@std@@@std@@QAEXPAPAU_Node@?$_List_nod@PAXV?$allocator@PAX@std@@@2@@Z ; std::allocator<std::_List_nod<void *,std::allocator<void *> >::_Node *>::destroy
; Function compile flags: /Ogty
;	COMDAT ?destroy@?$allocator@PAU_Node@?$_List_nod@PAXV?$allocator@PAX@std@@@std@@@std@@QAEXPAPAU_Node@?$_List_nod@PAXV?$allocator@PAX@std@@@2@@Z
_TEXT	SEGMENT
__Ptr$ = 8						; size = 4
?destroy@?$allocator@PAU_Node@?$_List_nod@PAXV?$allocator@PAX@std@@@std@@@std@@QAEXPAPAU_Node@?$_List_nod@PAXV?$allocator@PAX@std@@@2@@Z PROC NEAR ; std::allocator<std::_List_nod<void *,std::allocator<void *> >::_Node *>::destroy, COMDAT
; _this$ = ecx

; 152  : 		_Destroy(_Ptr);
; 153  : 		}

  00000	c2 04 00	 ret	 4
?destroy@?$allocator@PAU_Node@?$_List_nod@PAXV?$allocator@PAX@std@@@std@@@std@@QAEXPAPAU_Node@?$_List_nod@PAXV?$allocator@PAX@std@@@2@@Z ENDP ; std::allocator<std::_List_nod<void *,std::allocator<void *> >::_Node *>::destroy
_TEXT	ENDS
PUBLIC	?max_size@?$list@PAXV?$allocator@PAX@std@@@std@@QBEIXZ ; std::list<void *,std::allocator<void *> >::max_size
; Function compile flags: /Ogty
; File c:\program files\microsoft visual studio .net 2003\vc7\include\list
;	COMDAT ?max_size@?$list@PAXV?$allocator@PAX@std@@@std@@QBEIXZ
_TEXT	SEGMENT
?max_size@?$list@PAXV?$allocator@PAX@std@@@std@@QBEIXZ PROC NEAR ; std::list<void *,std::allocator<void *> >::max_size, COMDAT
; _this$ = ecx

; 436  : 		return (this->_Alval.max_size());

  00000	b8 ff ff ff 3f	 mov	 eax, 1073741823		; 3fffffffH

; 437  : 		}

  00005	c3		 ret	 0
?max_size@?$list@PAXV?$allocator@PAX@std@@@std@@QBEIXZ ENDP ; std::list<void *,std::allocator<void *> >::max_size
_TEXT	ENDS
PUBLIC	??0?$_List_nod@PAXV?$allocator@PAX@std@@@std@@IAE@V?$allocator@PAX@1@@Z ; std::_List_nod<void *,std::allocator<void *> >::_List_nod<void *,std::allocator<void *> >
; Function compile flags: /Ogty
;	COMDAT ??0?$_List_nod@PAXV?$allocator@PAX@std@@@std@@IAE@V?$allocator@PAX@1@@Z
_TEXT	SEGMENT
__Al$ = 8						; size = 1
??0?$_List_nod@PAXV?$allocator@PAX@std@@@std@@IAE@V?$allocator@PAX@1@@Z PROC NEAR ; std::_List_nod<void *,std::allocator<void *> >::_List_nod<void *,std::allocator<void *> >, COMDAT
; _this$ = ecx

; 44   : 		{	// construct allocator from _Al

  00000	8b c1		 mov	 eax, ecx

; 45   : 		}

  00002	c2 04 00	 ret	 4
??0?$_List_nod@PAXV?$allocator@PAX@std@@@std@@IAE@V?$allocator@PAX@1@@Z ENDP ; std::_List_nod<void *,std::allocator<void *> >::_List_nod<void *,std::allocator<void *> >
_TEXT	ENDS
PUBLIC	??0?$_String_val@DV?$allocator@D@std@@@std@@IAE@V?$allocator@D@1@@Z ; std::_String_val<char,std::allocator<char> >::_String_val<char,std::allocator<char> >
; Function compile flags: /Ogty
; File c:\program files\microsoft visual studio .net 2003\vc7\include\xstring
;	COMDAT ??0?$_String_val@DV?$allocator@D@std@@@std@@IAE@V?$allocator@D@1@@Z
_TEXT	SEGMENT
__Al$ = 8						; size = 1
??0?$_String_val@DV?$allocator@D@std@@@std@@IAE@V?$allocator@D@1@@Z PROC NEAR ; std::_String_val<char,std::allocator<char> >::_String_val<char,std::allocator<char> >, COMDAT
; _this$ = ecx

; 34   : 		{	// construct allocator from _Al

  00000	8b c1		 mov	 eax, ecx

; 35   : 		}

  00002	c2 04 00	 ret	 4
??0?$_String_val@DV?$allocator@D@std@@@std@@IAE@V?$allocator@D@1@@Z ENDP ; std::_String_val<char,std::allocator<char> >::_String_val<char,std::allocator<char> >
_TEXT	ENDS
PUBLIC	?_Eos@?$basic_string@DU?$char_traits@D@std@@V?$allocator@D@2@@std@@IAEXI@Z ; std::basic_string<char,std::char_traits<char>,std::allocator<char> >::_Eos
; Function compile flags: /Ogty
;	COMDAT ?_Eos@?$basic_string@DU?$char_traits@D@std@@V?$allocator@D@2@@std@@IAEXI@Z
_TEXT	SEGMENT
__Newsize$ = 8						; size = 4
?_Eos@?$basic_string@DU?$char_traits@D@std@@V?$allocator@D@2@@std@@IAEXI@Z PROC NEAR ; std::basic_string<char,std::char_traits<char>,std::allocator<char> >::_Eos, COMDAT
; _this$ = ecx

; 1475 : 		_Traits::assign(_Myptr()[_Mysize = _Newsize], _Elem());

  00000	83 79 18 10	 cmp	 DWORD PTR [ecx+24], 16	; 00000010H
  00004	8b 44 24 04	 mov	 eax, DWORD PTR __Newsize$[esp-4]
  00008	89 41 14	 mov	 DWORD PTR [ecx+20], eax
  0000b	72 0a		 jb	 SHORT $L232324
  0000d	8b 49 04	 mov	 ecx, DWORD PTR [ecx+4]
  00010	c6 04 01 00	 mov	 BYTE PTR [ecx+eax], 0

; 1476 : 		}

  00014	c2 04 00	 ret	 4

; 1475 : 		_Traits::assign(_Myptr()[_Mysize = _Newsize], _Elem());

$L232324:
  00017	c6 44 01 04 00	 mov	 BYTE PTR [ecx+eax+4], 0

; 1476 : 		}

  0001c	c2 04 00	 ret	 4
?_Eos@?$basic_string@DU?$char_traits@D@std@@V?$allocator@D@2@@std@@IAEXI@Z ENDP ; std::basic_string<char,std::char_traits<char>,std::allocator<char> >::_Eos
_TEXT	ENDS
PUBLIC	?max_size@?$basic_string@DU?$char_traits@D@std@@V?$allocator@D@2@@std@@QBEIXZ ; std::basic_string<char,std::char_traits<char>,std::allocator<char> >::max_size
; Function compile flags: /Ogty
;	COMDAT ?max_size@?$basic_string@DU?$char_traits@D@std@@V?$allocator@D@2@@std@@QBEIXZ
_TEXT	SEGMENT
?max_size@?$basic_string@DU?$char_traits@D@std@@V?$allocator@D@2@@std@@QBEIXZ PROC NEAR ; std::basic_string<char,std::char_traits<char>,std::allocator<char> >::max_size, COMDAT
; _this$ = ecx

; 1114 : 		size_type _Num = _Mybase::_Alval.max_size();
; 1115 : 		return (_Num <= 1 ? 1 : _Num - 1);

  00000	b8 fe ff ff ff	 mov	 eax, -2			; fffffffeH

; 1116 : 		}

  00005	c3		 ret	 0
?max_size@?$basic_string@DU?$char_traits@D@std@@V?$allocator@D@2@@std@@QBEIXZ ENDP ; std::basic_string<char,std::char_traits<char>,std::allocator<char> >::max_size
_TEXT	ENDS
PUBLIC	?allocate@?$allocator@D@std@@QAEPADI@Z		; std::allocator<char>::allocate
; Function compile flags: /Ogty
; File c:\program files\microsoft visual studio .net 2003\vc7\include\xmemory
;	COMDAT ?allocate@?$allocator@D@std@@QAEPADI@Z
_TEXT	SEGMENT
__Count$ = 8						; size = 4
?allocate@?$allocator@D@std@@QAEPADI@Z PROC NEAR	; std::allocator<char>::allocate, COMDAT
; _this$ = ecx

; 137  : 		return (_Allocate(_Count, (pointer)0));

  00000	8b 44 24 04	 mov	 eax, DWORD PTR __Count$[esp-4]
  00004	50		 push	 eax
  00005	e8 00 00 00 00	 call	 ??2@YAPAXI@Z		; operator new
  0000a	83 c4 04	 add	 esp, 4

; 138  : 		}

  0000d	c2 04 00	 ret	 4
?allocate@?$allocator@D@std@@QAEPADI@Z ENDP		; std::allocator<char>::allocate
_TEXT	ENDS
PUBLIC	?CloseConnection@CDPSock@@QAEXK@Z		; CDPSock::CloseConnection
EXTRN	?CreateBuffer@CBufferFactory@@QAEPAVCBuffer@@W4BUFFER_TYPE@@K@Z:NEAR ; CBufferFactory::CreateBuffer
EXTRN	?GetInstance@CBufferFactory@@SAAAV1@XZ:NEAR	; CBufferFactory::GetInstance
; Function compile flags: /Ogty
; File c:\documents and settings\test\mes documents\source\virtuos_v17\build\program\_network\net\src\dpsock.cpp
;	COMDAT ?CloseConnection@CDPSock@@QAEXK@Z
_TEXT	SEGMENT
_dpid$ = 8						; size = 4
?CloseConnection@CDPSock@@QAEXK@Z PROC NEAR		; CDPSock::CloseConnection, COMDAT
; _this$ = ecx

; 452  : {

  00000	56		 push	 esi
  00001	8b f1		 mov	 esi, ecx

; 453  : 	if( m_pSock )

  00003	8b 4e 04	 mov	 ecx, DWORD PTR [esi+4]
  00006	85 c9		 test	 ecx, ecx
  00008	74 4a		 je	 SHORT $L229491

; 454  : 	{
; 455  : 		if( m_pSock->CloseConnection( dpid ) )

  0000a	8b 01		 mov	 eax, DWORD PTR [ecx]
  0000c	57		 push	 edi
  0000d	8b 7c 24 0c	 mov	 edi, DWORD PTR _dpid$[esp+4]
  00011	57		 push	 edi
  00012	ff 50 20	 call	 DWORD PTR [eax+32]
  00015	85 c0		 test	 eax, eax
  00017	74 1c		 je	 SHORT $L229488

; 456  : 		{
; 457  : 			CBuffer* pBuffer = CBufferFactory::GetInstance().CreateBuffer( BUFFER_TYPE_5BYTE );

  00019	68 00 20 00 00	 push	 8192			; 00002000H
  0001e	6a 00		 push	 0
  00020	e8 00 00 00 00	 call	 ?GetInstance@CBufferFactory@@SAAAV1@XZ ; CBufferFactory::GetInstance
  00025	8b c8		 mov	 ecx, eax
  00027	e8 00 00 00 00	 call	 ?CreateBuffer@CBufferFactory@@QAEPAVCBuffer@@W4BUFFER_TYPE@@K@Z ; CBufferFactory::CreateBuffer

; 458  : 			AddDestroyPlayerOrGroupMsg( dpid, pBuffer );

  0002c	50		 push	 eax
  0002d	57		 push	 edi
  0002e	8b ce		 mov	 ecx, esi
  00030	e8 00 00 00 00	 call	 ?AddDestroyPlayerOrGroupMsg@CDPSock@@QAEXKPAVCBuffer@@@Z ; CDPSock::AddDestroyPlayerOrGroupMsg
$L229488:

; 459  : 		}
; 460  : 		if( !m_fServer )

  00035	8b 86 94 00 00
	00		 mov	 eax, DWORD PTR [esi+148]
  0003b	85 c0		 test	 eax, eax
  0003d	5f		 pop	 edi
  0003e	75 14		 jne	 SHORT $L229491

; 461  : 			SAFE_DELETE( m_pSock );

  00040	8b 4e 04	 mov	 ecx, DWORD PTR [esi+4]
  00043	85 c9		 test	 ecx, ecx
  00045	74 0d		 je	 SHORT $L229491
  00047	8b 11		 mov	 edx, DWORD PTR [ecx]
  00049	6a 01		 push	 1
  0004b	ff 12		 call	 DWORD PTR [edx]
  0004d	c7 46 04 00 00
	00 00		 mov	 DWORD PTR [esi+4], 0
$L229491:
  00054	5e		 pop	 esi

; 462  : 	}
; 463  : }

  00055	c2 04 00	 ret	 4
?CloseConnection@CDPSock@@QAEXK@Z ENDP			; CDPSock::CloseConnection
_TEXT	ENDS
PUBLIC	?IoWorkerThread@@YGIPAX@Z			; IoWorkerThread
EXTRN	?CreateBuffer@CClientSock@@QAEPAVCBuffer@@XZ:NEAR ; CClientSock::CreateBuffer
EXTRN	?Recv@CClientSock@@QAEHXZ:NEAR			; CClientSock::Recv
EXTRN	?SendRemnant@CClientSock@@QAEHK@Z:NEAR		; CClientSock::SendRemnant
EXTRN	?Fetch@CClientSock@@QAEPAVCBuffer@@K@Z:NEAR	; CClientSock::Fetch
EXTRN	__imp__WSAGetLastError@0:NEAR
EXTRN	__imp__InterlockedIncrement@4:NEAR
EXTRN	__imp__InterlockedDecrement@4:NEAR
EXTRN	?AllocAndAssoc@CServerSock@@QAEHIK@Z:NEAR	; CServerSock::AllocAndAssoc
EXTRN	__imp__GetLastError@0:NEAR
EXTRN	__imp__GetQueuedCompletionStatus@20:NEAR
; Function compile flags: /Ogty
;	COMDAT ?IoWorkerThread@@YGIPAX@Z
_TEXT	SEGMENT
_dwBytes$ = -16						; size = 4
_lpov$ = -12						; size = 4
_lIoWorker$ = -8					; size = 4
tv450 = -4						; size = 4
_hSocket$ = 8						; size = 4
_lpvThreadParameter$ = 8				; size = 4
?IoWorkerThread@@YGIPAX@Z PROC NEAR			; IoWorkerThread, COMDAT

; 580  : {

  00000	83 ec 10	 sub	 esp, 16			; 00000010H
  00003	53		 push	 ebx

; 581  : 	CDPSock* pDPSock	= (CDPSock*)lpvThreadParameter;
; 582  : 	SOCKET hSocket;
; 583  : 	DWORD dwBytes;
; 584  : 	CClientSock* pClientSock;
; 585  : 	LPOVERLAPPED lpov;
; 586  : 	BOOL fOk;
; 587  : 	long lIoWorker	= InterlockedIncrement( &pDPSock->m_lActiveIoWorker );

  00004	8b 5c 24 18	 mov	 ebx, DWORD PTR _lpvThreadParameter$[esp+16]
  00008	56		 push	 esi
  00009	57		 push	 edi
  0000a	8d b3 98 00 00
	00		 lea	 esi, DWORD PTR [ebx+152]
  00010	56		 push	 esi
  00011	89 74 24 1c	 mov	 DWORD PTR tv450[esp+32], esi
  00015	ff 15 00 00 00
	00		 call	 DWORD PTR __imp__InterlockedIncrement@4

; 588  : 	while( 1 )
; 589  : 	{
; 590  : 		fOk		= GetQueuedCompletionStatus( pDPSock->GetCompletionPort( lIoWorker - 1 ), &dwBytes, (LPDWORD)&hSocket, &lpov, INFINITE );

  0001b	8b 4b 58	 mov	 ecx, DWORD PTR [ebx+88]
  0001e	6a ff		 push	 -1
  00020	89 44 24 18	 mov	 DWORD PTR _lIoWorker$[esp+32], eax
  00024	8b 44 81 fc	 mov	 eax, DWORD PTR [ecx+eax*4-4]
  00028	8d 54 24 14	 lea	 edx, DWORD PTR _lpov$[esp+32]
  0002c	52		 push	 edx
  0002d	8d 4c 24 28	 lea	 ecx, DWORD PTR _hSocket$[esp+32]
  00031	51		 push	 ecx
  00032	8d 54 24 18	 lea	 edx, DWORD PTR _dwBytes$[esp+40]
  00036	52		 push	 edx
  00037	50		 push	 eax
  00038	ff 15 00 00 00
	00		 call	 DWORD PTR __imp__GetQueuedCompletionStatus@20
  0003e	8b f8		 mov	 edi, eax

; 591  : 		if( dwBytes == CLOSEIOWORKERMSG )

  00040	8b 44 24 0c	 mov	 eax, DWORD PTR _dwBytes$[esp+28]
  00044	83 f8 fe	 cmp	 eax, -2			; fffffffeH
  00047	0f 84 f9 01 00
	00		 je	 $L232429
  0004d	55		 push	 ebp
  0004e	8b 2d 00 00 00
	00		 mov	 ebp, DWORD PTR __imp__LeaveCriticalSection@4
$L229535:

; 592  : 		{
; 593  : 			InterlockedDecrement( &pDPSock->m_lActiveIoWorker );
; 594  : 			return( 0 );
; 595  : 		}
; 596  : 
; 597  : 		if( dwBytes == NEWSOCKETMSG )

  00054	83 f8 fd	 cmp	 eax, -3			; fffffffdH
  00057	75 75		 jne	 SHORT $L229541

; 598  : 		{
; 599  : 			DWORD dwAddr	= (DWORD)lpov;
; 600  : 			CServerSock* pServerSock	= (CServerSock*)pDPSock->GetServerSock();

  00059	8b 83 94 00 00
	00		 mov	 eax, DWORD PTR [ebx+148]
  0005f	85 c0		 test	 eax, eax
  00061	74 16		 je	 SHORT $L229546
  00063	8b 4b 04	 mov	 ecx, DWORD PTR [ebx+4]

; 601  : 			if( pServerSock )

  00066	85 c9		 test	 ecx, ecx
  00068	74 0f		 je	 SHORT $L229546

; 602  : 				pServerSock->AllocAndAssoc( hSocket, dwAddr );

  0006a	8b 44 24 14	 mov	 eax, DWORD PTR _lpov$[esp+32]
  0006e	8b 54 24 24	 mov	 edx, DWORD PTR _hSocket$[esp+28]
  00072	50		 push	 eax
  00073	52		 push	 edx
  00074	e8 00 00 00 00	 call	 ?AllocAndAssoc@CServerSock@@QAEHIK@Z ; CServerSock::AllocAndAssoc
$L229546:

; 603  : 			pClientSock		= pDPSock->Get( hSocket );

  00079	8b 43 04	 mov	 eax, DWORD PTR [ebx+4]
  0007c	85 c0		 test	 eax, eax
  0007e	74 10		 je	 SHORT $L232378
  00080	8b 54 24 24	 mov	 edx, DWORD PTR _hSocket$[esp+28]
  00084	8b c8		 mov	 ecx, eax
  00086	8b 01		 mov	 eax, DWORD PTR [ecx]
  00088	52		 push	 edx
  00089	ff 50 2c	 call	 DWORD PTR [eax+44]
  0008c	8b f0		 mov	 esi, eax
  0008e	eb 02		 jmp	 SHORT $L232379
$L232378:
  00090	33 f6		 xor	 esi, esi
$L232379:

; 604  : #ifdef __VERIFYNETLIB
; 605  : 			if( pClientSock == NULL )
; 606  : 			{
; 607  : 				WriteError( "NEWSOCKETMSG" );
; 608  : 				continue;
; 609  : 			}
; 610  : #endif	// __VERIFYNETLIB
; 611  : 			CBuffer* pBuffer = pClientSock->CreateBuffer();

  00092	8b ce		 mov	 ecx, esi
  00094	e8 00 00 00 00	 call	 ?CreateBuffer@CClientSock@@QAEPAVCBuffer@@XZ ; CClientSock::CreateBuffer

; 612  : 			pDPSock->AddCreatePlayerOrGroupMsg( hSocket, pBuffer );

  00099	50		 push	 eax
  0009a	8b 44 24 28	 mov	 eax, DWORD PTR _hSocket$[esp+32]
  0009e	50		 push	 eax
  0009f	8b cb		 mov	 ecx, ebx
  000a1	e8 00 00 00 00	 call	 ?AddCreatePlayerOrGroupMsg@CDPSock@@QAEXKPAVCBuffer@@@Z ; CDPSock::AddCreatePlayerOrGroupMsg

; 613  : 
; 614  : 			pClientSock->m_AccessLock.Enter();	// lock

  000a6	8d 7e 44	 lea	 edi, DWORD PTR [esi+68]
  000a9	57		 push	 edi
  000aa	ff 15 00 00 00
	00		 call	 DWORD PTR __imp__EnterCriticalSection@4

; 615  : 			pClientSock->m_nReference++;

  000b0	8b 56 5c	 mov	 edx, DWORD PTR [esi+92]
  000b3	42		 inc	 edx

; 616  : 			if( pClientSock->Recv() != 0 )

  000b4	8b ce		 mov	 ecx, esi
  000b6	89 56 5c	 mov	 DWORD PTR [esi+92], edx
  000b9	e8 00 00 00 00	 call	 ?Recv@CClientSock@@QAEHXZ ; CClientSock::Recv
  000be	85 c0		 test	 eax, eax

; 617  : 			{
; 618  : 				pClientSock->m_bDoNotWrite	= TRUE;
; 619  : 				int nReference	= --pClientSock->m_nReference;
; 620  : //				TRACE( "I/o error %d // REF:%d\n", WSAGetLastError(), lRef );
; 621  : #ifdef __INFO_SOCKLIB0516
; 622  : 				pClientSock->m_dwDbgInfo	= WSAGetLastError(); // * 1000 + 1 * 100 + nReference * 10;
; 623  : #endif	// __INFO_SOCKLIB0516
; 624  : 				pClientSock->m_AccessLock.Leave();	// unlock

  000c0	57		 push	 edi

; 625  : 				if( nReference == 0 )
; 626  : 					pDPSock->CloseConnection( hSocket );
; 627  : 			}
; 628  : 			else

  000c1	0f 85 f8 00 00
	00		 jne	 $L232432
$L229548:

; 629  : 			{
; 630  : 				pClientSock->m_AccessLock.Leave();	// unlock

  000c7	ff d5		 call	 ebp

; 631  : 			}
; 632  : 			continue;

  000c9	e9 41 01 00 00	 jmp	 $L232430
$L229541:

; 633  : 		}
; 634  : #ifdef __PROTOCOL0910
; 635  : 		else if( dwBytes == NEWSOCKETMSG2 )
; 636  : 		{
; 637  : 			DWORD dwAddr	= (DWORD)lpov;
; 638  : 			CServerSock* pServerSock	= (CServerSock*)pDPSock->GetServerSock();
; 639  : 			if( pServerSock )
; 640  : 				pServerSock->AllocAndAssoc( hSocket, dwAddr );
; 641  : 			pClientSock		= pDPSock->Get( hSocket );
; 642  : #ifdef __VERIFYNETLIB
; 643  : 			if( pClientSock == NULL )
; 644  : 			{
; 645  : 				WriteError( "NEWSOCKETMSG2" );
; 646  : 				continue;
; 647  : 			}
; 648  : #endif	// __VERIFYNETLIB
; 649  : 			CBuffer* pBuffer = pClientSock->CreateBuffer();
; 650  : 			pDPSock->AddCreatePlayerOrGroupMsg( hSocket, pBuffer );
; 651  : 
; 652  : 			pClientSock->m_AccessLock.Enter();	// lock
; 653  : 			pClientSock->m_nReference++;
; 654  : 			if( pClientSock->Recv() != 0 )
; 655  : 			{
; 656  : 				pClientSock->m_bDoNotWrite	= TRUE;
; 657  : 				int nReference	= --pClientSock->m_nReference;
; 658  : //				TRACE( "I/o error %d // REF:%d\n", WSAGetLastError(), lRef );
; 659  : #ifdef __INFO_SOCKLIB0516
; 660  : 				pClientSock->m_dwDbgInfo	= WSAGetLastError(); // * 1000 + 2 * 100 + nReference * 10;
; 661  : #endif	// __INFO_SOCKLIB0516
; 662  : 				pClientSock->m_AccessLock.Leave();	// unlock
; 663  : 				if( nReference == 0 )
; 664  : 					pDPSock->CloseConnection( hSocket );
; 665  : 			}
; 666  : 			else
; 667  : 			{
; 668  : 				pClientSock->m_AccessLock.Leave();	// unlock
; 669  : 				pClientSock->SendProtocolId();
; 670  : 			}
; 671  : 			continue;
; 672  : 		}
; 673  : 		else if( dwBytes == INVALIDSOCKMSG )
; 674  : 		{
; 675  : 			pDPSock->CloseConnection( hSocket );
; 676  : 			continue;
; 677  : 		}
; 678  : #endif	// __PROTOCOL0910
; 679  : 
; 680  : //		TRACE( "GetQueuedCompletionStatus - fOK:%d, dwBytes:%d\n", fOk, dwBytes );
; 681  : 		
; 682  : 		if( !( pClientSock = pDPSock->Get( hSocket ) ) )

  000ce	8b 43 04	 mov	 eax, DWORD PTR [ebx+4]
  000d1	85 c0		 test	 eax, eax
  000d3	0f 84 36 01 00
	00		 je	 $L232430
  000d9	8b c8		 mov	 ecx, eax
  000db	8b 44 24 24	 mov	 eax, DWORD PTR _hSocket$[esp+28]
  000df	8b 11		 mov	 edx, DWORD PTR [ecx]
  000e1	50		 push	 eax
  000e2	ff 52 2c	 call	 DWORD PTR [edx+44]
  000e5	8b f0		 mov	 esi, eax
  000e7	85 f6		 test	 esi, esi
  000e9	0f 84 20 01 00
	00		 je	 $L232430

; 683  : 			continue;
; 684  : 
; 685  : 		if( !fOk || dwBytes == 0 )	// When Connection Closed by peer gracefully or becoz of error

  000ef	85 ff		 test	 edi, edi
  000f1	0f 84 e5 00 00
	00		 je	 $L229554
  000f7	8b 44 24 10	 mov	 eax, DWORD PTR _dwBytes$[esp+32]
  000fb	85 c0		 test	 eax, eax
  000fd	0f 84 d9 00 00
	00		 je	 $L229554

; 709  : 						break;
; 710  : 					}
; 711  : 			}
; 712  : 			continue;
; 713  : 		}
; 714  : 
; 715  : 		if( &pClientSock->m_ovRecv == lpov )	// receive i/o completed

  00103	8b 4c 24 14	 mov	 ecx, DWORD PTR _lpov$[esp+32]
  00107	8d 56 14	 lea	 edx, DWORD PTR [esi+20]
  0010a	3b d1		 cmp	 edx, ecx
  0010c	0f 85 87 00 00
	00		 jne	 $L229563

; 716  : 		{
; 717  : #ifdef __TRAFIC_1218
; 718  : /*
; 719  : 			if( pClientSock->IsCrcRead() )	// public
; 720  : 				pClientSock->AddTraficLog( dwBytes, CClientSock::read );
; 721  : */
; 722  : #endif	// __TRAFIC_1218
; 723  : 			CBuffer* pBuffer	= pClientSock->Fetch( dwBytes );

  00112	50		 push	 eax
  00113	8b ce		 mov	 ecx, esi
  00115	e8 00 00 00 00	 call	 ?Fetch@CClientSock@@QAEPAVCBuffer@@K@Z ; CClientSock::Fetch

; 724  : 			if( pBuffer )

  0011a	85 c0		 test	 eax, eax
  0011c	74 69		 je	 SHORT $L229565

; 725  : 			{
; 726  : 				if( pBuffer->cb > 0 ) {

  0011e	8b 48 08	 mov	 ecx, DWORD PTR [eax+8]
  00121	85 c9		 test	 ecx, ecx
  00123	76 58		 jbe	 SHORT $L229566

; 727  : #ifdef __PROTOCOL0910
; 728  : 					if( pClientSock->IsCrcWrite()
; 729  : 						&& pClientSock->m_dwProtocolId == 0 )
; 730  : 					{
; 731  : 						LPBYTE ptr	= pBuffer->m_lpBufStart;
; 732  : 						if( *(UNALIGNED LPDWORD)( ptr + pDPSock->m_dwDataSizeOffset ) == 8 )
; 733  : 						{
; 734  : 							if( *(UNALIGNED LPDWORD)( &ptr[pDPSock->m_dwReadHeaderSize] )
; 735  : 								== 0x00000000 )
; 736  : 								pDPSock->SetProtocolId( *(UNALIGNED LPDWORD)( &ptr[pDPSock->m_dwReadHeaderSize + 4] ) );
; 737  : 						}
; 738  : 					}
; 739  : #endif	// __PROTOCOL0910
; 740  : 					pBuffer->dpid	= hSocket;

  00125	8b 4c 24 24	 mov	 ecx, DWORD PTR _hSocket$[esp+28]
  00129	89 48 04	 mov	 DWORD PTR [eax+4], ecx

; 741  : 					pDPSock->m_lspRecvBuffer.AddTail( pBuffer );

  0012c	50		 push	 eax
  0012d	8d 4b 68	 lea	 ecx, DWORD PTR [ebx+104]
  00130	e8 00 00 00 00	 call	 ?AddTail@CBufferQueue@@QAEXPAVCBuffer@@@Z ; CBufferQueue::AddTail

; 742  : 					SetEvent( pDPSock->GetRecvHandle() );

  00135	8b 53 60	 mov	 edx, DWORD PTR [ebx+96]
  00138	52		 push	 edx
  00139	ff 15 00 00 00
	00		 call	 DWORD PTR __imp__SetEvent@4
$L229573:

; 753  : 			}
; 754  : 
; 755  : 
; 756  : 			if( pClientSock->Recv() != 0 )	// i/o error

  0013f	8b ce		 mov	 ecx, esi
  00141	e8 00 00 00 00	 call	 ?Recv@CClientSock@@QAEHXZ ; CClientSock::Recv
  00146	85 c0		 test	 eax, eax
  00148	0f 84 c1 00 00
	00		 je	 $L232430

; 757  : 			{
; 758  : 				pClientSock->m_AccessLock.Enter();

  0014e	8d 7e 44	 lea	 edi, DWORD PTR [esi+68]
  00151	57		 push	 edi
  00152	ff 15 00 00 00
	00		 call	 DWORD PTR __imp__EnterCriticalSection@4

; 759  : 				pClientSock->m_bDoNotWrite	= TRUE;
; 760  : 				int nReference	= --pClientSock->m_nReference;

  00158	8b 56 5c	 mov	 edx, DWORD PTR [esi+92]
  0015b	4a		 dec	 edx
  0015c	c7 46 3c 01 00
	00 00		 mov	 DWORD PTR [esi+60], 1
  00163	89 56 5c	 mov	 DWORD PTR [esi+92], edx

; 761  : //				TRACE( "I/o error %d, %d // REF:%d\n", pClientSock->GetHandle(), WSAGetLastError(), lRef );
; 762  : #ifdef __INFO_SOCKLIB0516
; 763  : 				pClientSock->m_dwDbgInfo	= WSAGetLastError(); // * 1000 + 4 * 100 + nReference * 10;
; 764  : #endif	// __INFO_SOCKLIB0516
; 765  : 				pClientSock->m_AccessLock.Leave();

  00166	57		 push	 edi
  00167	8b f2		 mov	 esi, edx
  00169	ff d5		 call	 ebp

; 766  : 				if( nReference == 0 )

  0016b	85 f6		 test	 esi, esi
  0016d	0f 85 9c 00 00
	00		 jne	 $L232430

; 767  : 					pDPSock->CloseConnection( hSocket );

  00173	8b 4c 24 24	 mov	 ecx, DWORD PTR _hSocket$[esp+28]
  00177	51		 push	 ecx

; 768  : 			}
; 769  : 		}
; 770  : 		else if( &pClientSock->m_ovSend == lpov )	// send i/o completed

  00178	e9 8b 00 00 00	 jmp	 $L232431
$L229566:

; 743  : 				}
; 744  : 				else {
; 745  : 					SAFE_DELETE( pBuffer );

  0017d	8b 10		 mov	 edx, DWORD PTR [eax]
  0017f	6a 01		 push	 1
  00181	8b c8		 mov	 ecx, eax
  00183	ff 12		 call	 DWORD PTR [edx]

; 746  : 				}
; 747  : 			}
; 748  : 			else if( WSAGetLastError()

  00185	eb b8		 jmp	 SHORT $L229573
$L229565:

; 749  : 				==  ERROR_BAD_NET_NAME )

  00187	ff 15 00 00 00
	00		 call	 DWORD PTR __imp__WSAGetLastError@0
  0018d	83 f8 43	 cmp	 eax, 67			; 00000043H
  00190	75 ad		 jne	 SHORT $L229573

; 750  : 			{
; 751  : 				pDPSock->CloseConnection( hSocket );

  00192	8b 44 24 24	 mov	 eax, DWORD PTR _hSocket$[esp+28]
  00196	50		 push	 eax

; 752  : 				continue;

  00197	eb 6f		 jmp	 SHORT $L232431
$L229563:

; 768  : 			}
; 769  : 		}
; 770  : 		else if( &pClientSock->m_ovSend == lpov )	// send i/o completed

  00199	8d 56 28	 lea	 edx, DWORD PTR [esi+40]
  0019c	3b d1		 cmp	 edx, ecx
  0019e	75 6f		 jne	 SHORT $L232430

; 771  : 		{
; 772  : #ifdef __TRAFIC_1218
; 773  : /*
; 774  : 			if( pClientSock->IsCrcRead() )	// public
; 775  : 				pClientSock->AddTraficLog( dwBytes, CClientSock::write );
; 776  : */
; 777  : #endif	// __TRAFIC_1218
; 778  : 			pClientSock->m_AccessLock.Enter();	// lock

  001a0	8d 7e 44	 lea	 edi, DWORD PTR [esi+68]
  001a3	57		 push	 edi
  001a4	ff 15 00 00 00
	00		 call	 DWORD PTR __imp__EnterCriticalSection@4

; 779  : 			if( pClientSock->SendRemnant( dwBytes ) != 0 )

  001aa	8b 44 24 10	 mov	 eax, DWORD PTR _dwBytes$[esp+32]
  001ae	50		 push	 eax
  001af	8b ce		 mov	 ecx, esi
  001b1	e8 00 00 00 00	 call	 ?SendRemnant@CClientSock@@QAEHK@Z ; CClientSock::SendRemnant
  001b6	85 c0		 test	 eax, eax

; 783  : #ifdef __INFO_SOCKLIB0516
; 784  : 				pClientSock->m_dwDbgInfo	= WSAGetLastError(); // * 1000 + 5 * 100 + nReference * 10;
; 785  : #endif	// __INFO_SOCKLIB0516
; 786  : 				pClientSock->m_AccessLock.Leave();	// unlock

  001b8	57		 push	 edi
  001b9	0f 84 08 ff ff
	ff		 je	 $L229548
$L232432:

; 780  : 			{
; 781  : 				pClientSock->m_bDoNotWrite	= TRUE;

  001bf	c7 46 3c 01 00
	00 00		 mov	 DWORD PTR [esi+60], 1

; 782  : 				int nReference	= --pClientSock->m_nReference;

  001c6	8b 56 5c	 mov	 edx, DWORD PTR [esi+92]
  001c9	4a		 dec	 edx
  001ca	89 56 5c	 mov	 DWORD PTR [esi+92], edx
  001cd	8b f2		 mov	 esi, edx

; 783  : #ifdef __INFO_SOCKLIB0516
; 784  : 				pClientSock->m_dwDbgInfo	= WSAGetLastError(); // * 1000 + 5 * 100 + nReference * 10;
; 785  : #endif	// __INFO_SOCKLIB0516
; 786  : 				pClientSock->m_AccessLock.Leave();	// unlock

  001cf	ff d5		 call	 ebp

; 787  : 				if( nReference == 0 )

  001d1	85 f6		 test	 esi, esi
  001d3	75 3a		 jne	 SHORT $L232430

; 788  : 					pDPSock->CloseConnection( hSocket );

  001d5	8b 4c 24 24	 mov	 ecx, DWORD PTR _hSocket$[esp+28]
  001d9	51		 push	 ecx

; 789  : 			}
; 790  : 			else

  001da	eb 2c		 jmp	 SHORT $L232431
$L229554:

; 686  : 		{
; 687  : 
; 688  : 			int err		=  GetLastError();

  001dc	ff 15 00 00 00
	00		 call	 DWORD PTR __imp__GetLastError@0

; 689  : 			//TRACE( "GetLastError():%d\n", err );
; 690  : 
; 691  : 			switch( err )
; 692  : 			{
; 693  : 				case ERROR_NETNAME_DELETED:		//64
; 694  : 				case ERROR_OPERATION_ABORTED:
; 695  : 				case 0:
; 696  : 				case WSAENOTSOCK:	//10038
; 697  : 				default:
; 698  : 					{
; 699  : //						if( FALSE == fOk && NULL == lpov )	{}
; 700  : 						pClientSock->m_AccessLock.Enter();

  001e2	8d 7e 44	 lea	 edi, DWORD PTR [esi+68]
  001e5	57		 push	 edi
  001e6	ff 15 00 00 00
	00		 call	 DWORD PTR __imp__EnterCriticalSection@4

; 701  : 						pClientSock->m_bDoNotWrite	= TRUE;
; 702  : 						int nReference	= --pClientSock->m_nReference;

  001ec	8b 56 5c	 mov	 edx, DWORD PTR [esi+92]
  001ef	4a		 dec	 edx
  001f0	c7 46 3c 01 00
	00 00		 mov	 DWORD PTR [esi+60], 1
  001f7	89 56 5c	 mov	 DWORD PTR [esi+92], edx

; 703  : #ifdef __INFO_SOCKLIB0516
; 704  : 						pClientSock->m_dwDbgInfo	= err; // * 1000 + 3 * 100 + nReference * 10;
; 705  : #endif	// __INFO_SOCKLIB0516
; 706  : 						pClientSock->m_AccessLock.Leave();

  001fa	57		 push	 edi
  001fb	8b f2		 mov	 esi, edx
  001fd	ff d5		 call	 ebp

; 707  : 						if( nReference == 0 )

  001ff	85 f6		 test	 esi, esi
  00201	75 0c		 jne	 SHORT $L232430

; 708  : 							pDPSock->CloseConnection( hSocket );

  00203	8b 54 24 24	 mov	 edx, DWORD PTR _hSocket$[esp+28]
  00207	52		 push	 edx
$L232431:
  00208	8b cb		 mov	 ecx, ebx
  0020a	e8 00 00 00 00	 call	 ?CloseConnection@CDPSock@@QAEXK@Z ; CDPSock::CloseConnection
$L232430:
  0020f	8b 43 58	 mov	 eax, DWORD PTR [ebx+88]
  00212	8b 4c 24 18	 mov	 ecx, DWORD PTR _lIoWorker$[esp+32]
  00216	8b 44 88 fc	 mov	 eax, DWORD PTR [eax+ecx*4-4]
  0021a	6a ff		 push	 -1
  0021c	8d 54 24 18	 lea	 edx, DWORD PTR _lpov$[esp+36]
  00220	52		 push	 edx
  00221	8d 4c 24 2c	 lea	 ecx, DWORD PTR _hSocket$[esp+36]
  00225	51		 push	 ecx
  00226	8d 54 24 1c	 lea	 edx, DWORD PTR _dwBytes$[esp+44]
  0022a	52		 push	 edx
  0022b	50		 push	 eax
  0022c	ff 15 00 00 00
	00		 call	 DWORD PTR __imp__GetQueuedCompletionStatus@20
  00232	8b f8		 mov	 edi, eax
  00234	8b 44 24 10	 mov	 eax, DWORD PTR _dwBytes$[esp+32]
  00238	83 f8 fe	 cmp	 eax, -2			; fffffffeH
  0023b	0f 85 13 fe ff
	ff		 jne	 $L229535
  00241	8b 74 24 1c	 mov	 esi, DWORD PTR tv450[esp+32]
  00245	5d		 pop	 ebp
$L232429:
  00246	56		 push	 esi
  00247	ff 15 00 00 00
	00		 call	 DWORD PTR __imp__InterlockedDecrement@4
  0024d	5f		 pop	 edi
  0024e	5e		 pop	 esi
  0024f	33 c0		 xor	 eax, eax
  00251	5b		 pop	 ebx

; 791  : 			{
; 792  : 				pClientSock->m_AccessLock.Leave();	// unlock
; 793  : 			}
; 794  : 		}
; 795  : //		Sleep( 0 );
; 796  : 	}
; 797  : 	return( 0 );
; 798  : }

  00252	83 c4 10	 add	 esp, 16			; 00000010H
  00255	c2 04 00	 ret	 4
?IoWorkerThread@@YGIPAX@Z ENDP				; IoWorkerThread
_TEXT	ENDS
PUBLIC	?begin@?$list@PAXV?$allocator@PAX@std@@@std@@QAE?AViterator@12@XZ ; std::list<void *,std::allocator<void *> >::begin
; Function compile flags: /Ogty
; File c:\program files\microsoft visual studio .net 2003\vc7\include\list
;	COMDAT ?begin@?$list@PAXV?$allocator@PAX@std@@@std@@QAE?AViterator@12@XZ
_TEXT	SEGMENT
___$ReturnUdt$ = 8					; size = 4
?begin@?$list@PAXV?$allocator@PAX@std@@@std@@QAE?AViterator@12@XZ PROC NEAR ; std::list<void *,std::allocator<void *> >::begin, COMDAT
; _this$ = ecx

; 377  : 		return (iterator(_Nextnode(_Myhead)));

  00000	8b 41 04	 mov	 eax, DWORD PTR [ecx+4]
  00003	8b 08		 mov	 ecx, DWORD PTR [eax]
  00005	8b 44 24 04	 mov	 eax, DWORD PTR ___$ReturnUdt$[esp-4]
  00009	89 08		 mov	 DWORD PTR [eax], ecx

; 378  : 		}

  0000b	c2 04 00	 ret	 4
?begin@?$list@PAXV?$allocator@PAX@std@@@std@@QAE?AViterator@12@XZ ENDP ; std::list<void *,std::allocator<void *> >::begin
_TEXT	ENDS
PUBLIC	?end@?$list@PAXV?$allocator@PAX@std@@@std@@QAE?AViterator@12@XZ ; std::list<void *,std::allocator<void *> >::end
; Function compile flags: /Ogty
;	COMDAT ?end@?$list@PAXV?$allocator@PAX@std@@@std@@QAE?AViterator@12@XZ
_TEXT	SEGMENT
___$ReturnUdt$ = 8					; size = 4
?end@?$list@PAXV?$allocator@PAX@std@@@std@@QAE?AViterator@12@XZ PROC NEAR ; std::list<void *,std::allocator<void *> >::end, COMDAT
; _this$ = ecx

; 387  : 		return (iterator(_Myhead));

  00000	8b 49 04	 mov	 ecx, DWORD PTR [ecx+4]
  00003	8b 44 24 04	 mov	 eax, DWORD PTR ___$ReturnUdt$[esp-4]
  00007	89 08		 mov	 DWORD PTR [eax], ecx

; 388  : 		}

  00009	c2 04 00	 ret	 4
?end@?$list@PAXV?$allocator@PAX@std@@@std@@QAE?AViterator@12@XZ ENDP ; std::list<void *,std::allocator<void *> >::end
_TEXT	ENDS
PUBLIC	?erase@?$list@PAXV?$allocator@PAX@std@@@std@@QAE?AViterator@12@V312@@Z ; std::list<void *,std::allocator<void *> >::erase
; Function compile flags: /Ogty
;	COMDAT ?erase@?$list@PAXV?$allocator@PAX@std@@@std@@QAE?AViterator@12@V312@@Z
_TEXT	SEGMENT
___$ReturnUdt$ = 8					; size = 4
__Where$ = 12						; size = 4
?erase@?$list@PAXV?$allocator@PAX@std@@@std@@QAE?AViterator@12@V312@@Z PROC NEAR ; std::list<void *,std::allocator<void *> >::erase, COMDAT
; _this$ = ecx

; 587  : 		_Nodeptr _Pnode = (_Where++)._Mynode();

  00000	8b 44 24 08	 mov	 eax, DWORD PTR __Where$[esp-4]
  00004	56		 push	 esi
  00005	8b f1		 mov	 esi, ecx

; 588  : 		if (_Pnode != _Myhead)

  00007	3b 46 04	 cmp	 eax, DWORD PTR [esi+4]
  0000a	57		 push	 edi
  0000b	8b 38		 mov	 edi, DWORD PTR [eax]
  0000d	74 1f		 je	 SHORT $L232515

; 589  : 			{	// not list head, safe to erase
; 590  : 			_Nextnode(_Prevnode(_Pnode)) = _Nextnode(_Pnode);

  0000f	8b 48 04	 mov	 ecx, DWORD PTR [eax+4]
  00012	8b 10		 mov	 edx, DWORD PTR [eax]
  00014	89 11		 mov	 DWORD PTR [ecx], edx

; 591  : 			_Prevnode(_Nextnode(_Pnode)) = _Prevnode(_Pnode);

  00016	8b 08		 mov	 ecx, DWORD PTR [eax]
  00018	8b 50 04	 mov	 edx, DWORD PTR [eax+4]

; 592  : 			this->_Alnod.destroy(_Pnode);
; 593  : 			this->_Alnod.deallocate(_Pnode, 1);

  0001b	50		 push	 eax
  0001c	89 51 04	 mov	 DWORD PTR [ecx+4], edx
  0001f	e8 00 00 00 00	 call	 ??3@YAXPAX@Z		; operator delete

; 594  : 			--_Mysize;

  00024	8b 46 08	 mov	 eax, DWORD PTR [esi+8]
  00027	83 c4 04	 add	 esp, 4
  0002a	48		 dec	 eax
  0002b	89 46 08	 mov	 DWORD PTR [esi+8], eax
$L232515:

; 595  : 			}
; 596  : 		return (_Where);

  0002e	8b 44 24 0c	 mov	 eax, DWORD PTR ___$ReturnUdt$[esp+4]
  00032	89 38		 mov	 DWORD PTR [eax], edi
  00034	5f		 pop	 edi
  00035	5e		 pop	 esi

; 597  : 		}

  00036	c2 08 00	 ret	 8
?erase@?$list@PAXV?$allocator@PAX@std@@@std@@QAE?AViterator@12@V312@@Z ENDP ; std::list<void *,std::allocator<void *> >::erase
_TEXT	ENDS
PUBLIC	??Diterator@?$list@PAXV?$allocator@PAX@std@@@std@@QBEAAPAXXZ ; std::list<void *,std::allocator<void *> >::iterator::operator*
; Function compile flags: /Ogty
;	COMDAT ??Diterator@?$list@PAXV?$allocator@PAX@std@@@std@@QBEAAPAXXZ
_TEXT	SEGMENT
??Diterator@?$list@PAXV?$allocator@PAX@std@@@std@@QBEAAPAXXZ PROC NEAR ; std::list<void *,std::allocator<void *> >::iterator::operator*, COMDAT
; _this$ = ecx

; 240  : 			return ((reference)**(const_iterator *)this);

  00000	8b 01		 mov	 eax, DWORD PTR [ecx]
  00002	83 c0 08	 add	 eax, 8

; 241  : 			}

  00005	c3		 ret	 0
??Diterator@?$list@PAXV?$allocator@PAX@std@@@std@@QBEAAPAXXZ ENDP ; std::list<void *,std::allocator<void *> >::iterator::operator*
_TEXT	ENDS
PUBLIC	?_Buynode@?$list@PAXV?$allocator@PAX@std@@@std@@IAEPAU_Node@?$_List_nod@PAXV?$allocator@PAX@std@@@2@XZ ; std::list<void *,std::allocator<void *> >::_Buynode
EXTRN	__CxxThrowException@8:NEAR
; Function compile flags: /Ogty
;	COMDAT ?_Buynode@?$list@PAXV?$allocator@PAX@std@@@std@@IAEPAU_Node@?$_List_nod@PAXV?$allocator@PAX@std@@@2@XZ
_TEXT	SEGMENT
?_Buynode@?$list@PAXV?$allocator@PAX@std@@@std@@IAEPAU_Node@?$_List_nod@PAXV?$allocator@PAX@std@@@2@XZ PROC NEAR ; std::list<void *,std::allocator<void *> >::_Buynode, COMDAT
; _this$ = ecx

; 899  : 		_Nodeptr _Pnode = this->_Alnod.allocate(1);

  00000	6a 0c		 push	 12			; 0000000cH
  00002	e8 00 00 00 00	 call	 ??2@YAPAXI@Z		; operator new
  00007	83 c4 04	 add	 esp, 4

; 900  : 		int _Linkcnt = 0;
; 901  : 
; 902  : 		_TRY_BEGIN
; 903  : 		this->_Alptr.construct(&_Nextnode(_Pnode), _Pnode);

  0000a	85 c0		 test	 eax, eax
  0000c	74 02		 je	 SHORT $L232562
  0000e	89 00		 mov	 DWORD PTR [eax], eax
$L232562:

; 904  : 		++_Linkcnt;
; 905  : 		this->_Alptr.construct(&_Prevnode(_Pnode), _Pnode);

  00010	8d 48 04	 lea	 ecx, DWORD PTR [eax+4]
  00013	85 c9		 test	 ecx, ecx
  00015	74 02		 je	 SHORT $L232590
  00017	89 01		 mov	 DWORD PTR [ecx], eax
$L232590:

; 906  : 		_CATCH_ALL
; 907  : 		if (0 < _Linkcnt)
; 908  : 			this->_Alptr.destroy(&_Nextnode(_Pnode));
; 909  : 		this->_Alnod.deallocate(_Pnode, 1);
; 910  : 		_RERAISE;
; 911  : 		_CATCH_END
; 912  : 		return (_Pnode);
; 913  : 		}

  00019	c3		 ret	 0
?_Buynode@?$list@PAXV?$allocator@PAX@std@@@std@@IAEPAU_Node@?$_List_nod@PAXV?$allocator@PAX@std@@@2@XZ ENDP ; std::list<void *,std::allocator<void *> >::_Buynode
_TEXT	ENDS
PUBLIC	?_Tidy@?$list@PAXV?$allocator@PAX@std@@@std@@IAEXXZ ; std::list<void *,std::allocator<void *> >::_Tidy
; Function compile flags: /Ogty
;	COMDAT ?_Tidy@?$list@PAXV?$allocator@PAX@std@@@std@@IAEXXZ
_TEXT	SEGMENT
?_Tidy@?$list@PAXV?$allocator@PAX@std@@@std@@IAEXXZ PROC NEAR ; std::list<void *,std::allocator<void *> >::_Tidy, COMDAT
; _this$ = ecx

; 929  : 		{	// free all storage

  00000	56		 push	 esi
  00001	8b f1		 mov	 esi, ecx

; 930  : 		clear();

  00003	e8 00 00 00 00	 call	 ?clear@?$list@PAXV?$allocator@PAX@std@@@std@@QAEXXZ ; std::list<void *,std::allocator<void *> >::clear

; 931  : 		this->_Alptr.destroy(&_Nextnode(_Myhead));
; 932  : 		this->_Alptr.destroy(&_Prevnode(_Myhead));
; 933  : 		this->_Alnod.deallocate(_Myhead, 1);

  00008	8b 46 04	 mov	 eax, DWORD PTR [esi+4]
  0000b	50		 push	 eax
  0000c	e8 00 00 00 00	 call	 ??3@YAXPAX@Z		; operator delete
  00011	83 c4 04	 add	 esp, 4

; 934  : 		_Myhead = 0;

  00014	c7 46 04 00 00
	00 00		 mov	 DWORD PTR [esi+4], 0
  0001b	5e		 pop	 esi

; 935  : 		}

  0001c	c3		 ret	 0
?_Tidy@?$list@PAXV?$allocator@PAX@std@@@std@@IAEXXZ ENDP ; std::list<void *,std::allocator<void *> >::_Tidy
_TEXT	ENDS
PUBLIC	?_Buynode@?$list@PAXV?$allocator@PAX@std@@@std@@IAEPAU_Node@?$_List_nod@PAXV?$allocator@PAX@std@@@2@PAU342@0ABQAX@Z ; std::list<void *,std::allocator<void *> >::_Buynode
; Function compile flags: /Ogty
;	COMDAT ?_Buynode@?$list@PAXV?$allocator@PAX@std@@@std@@IAEPAU_Node@?$_List_nod@PAXV?$allocator@PAX@std@@@2@PAU342@0ABQAX@Z
_TEXT	SEGMENT
__Next$ = 8						; size = 4
__Prev$ = 12						; size = 4
__Val$ = 16						; size = 4
?_Buynode@?$list@PAXV?$allocator@PAX@std@@@std@@IAEPAU_Node@?$_List_nod@PAXV?$allocator@PAX@std@@@2@PAU342@0ABQAX@Z PROC NEAR ; std::list<void *,std::allocator<void *> >::_Buynode, COMDAT
; _this$ = ecx

; 918  : 		_Nodeptr _Pnode = this->_Alnod.allocate(1);

  00000	6a 0c		 push	 12			; 0000000cH
  00002	e8 00 00 00 00	 call	 ??2@YAPAXI@Z		; operator new
  00007	83 c4 04	 add	 esp, 4

; 919  : 		_TRY_BEGIN
; 920  : 		new ((void *)_Pnode) _Node(_Next, _Prev, _Val);

  0000a	85 c0		 test	 eax, eax
  0000c	74 16		 je	 SHORT $L232628
  0000e	8b 4c 24 04	 mov	 ecx, DWORD PTR __Next$[esp-4]
  00012	8b 54 24 08	 mov	 edx, DWORD PTR __Prev$[esp-4]
  00016	89 08		 mov	 DWORD PTR [eax], ecx
  00018	8b 4c 24 0c	 mov	 ecx, DWORD PTR __Val$[esp-4]
  0001c	89 50 04	 mov	 DWORD PTR [eax+4], edx
  0001f	8b 11		 mov	 edx, DWORD PTR [ecx]
  00021	89 50 08	 mov	 DWORD PTR [eax+8], edx
$L232628:

; 921  : 		_CATCH_ALL
; 922  : 		this->_Alnod.deallocate(_Pnode, 1);
; 923  : 		_RERAISE;
; 924  : 		_CATCH_END
; 925  : 		return (_Pnode);
; 926  : 		}

  00024	c2 0c 00	 ret	 12			; 0000000cH
?_Buynode@?$list@PAXV?$allocator@PAX@std@@@std@@IAEPAU_Node@?$_List_nod@PAXV?$allocator@PAX@std@@@2@PAU342@0ABQAX@Z ENDP ; std::list<void *,std::allocator<void *> >::_Buynode
_TEXT	ENDS
PUBLIC	??0?$_List_ptr@PAXV?$allocator@PAX@std@@@std@@IAE@V?$allocator@PAX@1@@Z ; std::_List_ptr<void *,std::allocator<void *> >::_List_ptr<void *,std::allocator<void *> >
; Function compile flags: /Ogty
;	COMDAT ??0?$_List_ptr@PAXV?$allocator@PAX@std@@@std@@IAE@V?$allocator@PAX@1@@Z
_TEXT	SEGMENT
__Al$ = 8						; size = 1
??0?$_List_ptr@PAXV?$allocator@PAX@std@@@std@@IAE@V?$allocator@PAX@1@@Z PROC NEAR ; std::_List_ptr<void *,std::allocator<void *> >::_List_ptr<void *,std::allocator<void *> >, COMDAT
; _this$ = ecx

; 64   : 		{	// construct base, and allocator from _Al

  00000	8b c1		 mov	 eax, ecx

; 65   : 		}

  00002	c2 04 00	 ret	 4
??0?$_List_ptr@PAXV?$allocator@PAX@std@@@std@@IAE@V?$allocator@PAX@1@@Z ENDP ; std::_List_ptr<void *,std::allocator<void *> >::_List_ptr<void *,std::allocator<void *> >
_TEXT	ENDS
PUBLIC	?_Tidy@?$basic_string@DU?$char_traits@D@std@@V?$allocator@D@2@@std@@IAEX_NI@Z ; std::basic_string<char,std::char_traits<char>,std::allocator<char> >::_Tidy
; Function compile flags: /Ogty
; File c:\program files\microsoft visual studio .net 2003\vc7\include\xstring
;	COMDAT ?_Tidy@?$basic_string@DU?$char_traits@D@std@@V?$allocator@D@2@@std@@IAEX_NI@Z
_TEXT	SEGMENT
__Built$ = 8						; size = 1
__Newsize$ = 12						; size = 4
?_Tidy@?$basic_string@DU?$char_traits@D@std@@V?$allocator@D@2@@std@@IAEX_NI@Z PROC NEAR ; std::basic_string<char,std::char_traits<char>,std::allocator<char> >::_Tidy, COMDAT
; _this$ = ecx

; 1510 : 		if (!_Built)

  00000	8a 44 24 04	 mov	 al, BYTE PTR __Built$[esp-4]
  00004	84 c0		 test	 al, al
  00006	53		 push	 ebx
  00007	55		 push	 ebp
  00008	8b 6c 24 10	 mov	 ebp, DWORD PTR __Newsize$[esp+4]
  0000c	8b d9		 mov	 ebx, ecx
  0000e	74 2f		 je	 SHORT $L232680

; 1511 : 			;
; 1512 : 		else if (_BUF_SIZE <= _Myres)

  00010	83 7b 18 10	 cmp	 DWORD PTR [ebx+24], 16	; 00000010H
  00014	72 29		 jb	 SHORT $L232680

; 1513 : 			{	// copy any leftovers to small buffer and deallocate
; 1514 : 			_Elem *_Ptr = _Bx._Ptr;
; 1515 : 			if (0 < _Newsize)

  00016	85 ed		 test	 ebp, ebp
  00018	8b 43 04	 mov	 eax, DWORD PTR [ebx+4]
  0001b	57		 push	 edi
  0001c	8d 7b 04	 lea	 edi, DWORD PTR [ebx+4]
  0001f	76 14		 jbe	 SHORT $L232677
  00021	56		 push	 esi

; 1516 : 				_Traits::copy(_Bx._Buf, _Ptr, _Newsize);

  00022	8b cd		 mov	 ecx, ebp
  00024	8b d1		 mov	 edx, ecx
  00026	c1 e9 02	 shr	 ecx, 2
  00029	8b f0		 mov	 esi, eax
  0002b	f3 a5		 rep movsd
  0002d	8b ca		 mov	 ecx, edx
  0002f	83 e1 03	 and	 ecx, 3
  00032	f3 a4		 rep movsb
  00034	5e		 pop	 esi
$L232677:

; 1517 : 			_Mybase::_Alval.deallocate(_Ptr, _Myres + 1);

  00035	50		 push	 eax
  00036	e8 00 00 00 00	 call	 ??3@YAXPAX@Z		; operator delete
  0003b	83 c4 04	 add	 esp, 4
  0003e	5f		 pop	 edi
$L232680:

; 1518 : 			}
; 1519 : 		_Myres = _BUF_SIZE - 1;
; 1520 : 		_Eos(_Newsize);

  0003f	89 6b 14	 mov	 DWORD PTR [ebx+20], ebp
  00042	c7 43 18 0f 00
	00 00		 mov	 DWORD PTR [ebx+24], 15	; 0000000fH
  00049	c6 44 2b 04 00	 mov	 BYTE PTR [ebx+ebp+4], 0
  0004e	5d		 pop	 ebp
  0004f	5b		 pop	 ebx

; 1521 : 		}

  00050	c2 08 00	 ret	 8
?_Tidy@?$basic_string@DU?$char_traits@D@std@@V?$allocator@D@2@@std@@IAEX_NI@Z ENDP ; std::basic_string<char,std::char_traits<char>,std::allocator<char> >::_Tidy
_TEXT	ENDS
PUBLIC	?erase@?$basic_string@DU?$char_traits@D@std@@V?$allocator@D@2@@std@@QAEAAV12@II@Z ; std::basic_string<char,std::char_traits<char>,std::allocator<char> >::erase
EXTRN	?_Xran@_String_base@std@@QBEXXZ:NEAR		; std::_String_base::_Xran
; Function compile flags: /Ogty
;	COMDAT ?erase@?$basic_string@DU?$char_traits@D@std@@V?$allocator@D@2@@std@@QAEAAV12@II@Z
_TEXT	SEGMENT
__Off$ = 8						; size = 4
__Count$ = 12						; size = 4
?erase@?$basic_string@DU?$char_traits@D@std@@V?$allocator@D@2@@std@@QAEAAV12@II@Z PROC NEAR ; std::basic_string<char,std::char_traits<char>,std::allocator<char> >::erase, COMDAT
; _this$ = ecx

; 792  : 		{	// erase elements [_Off, _Off + _Count)

  00000	55		 push	 ebp

; 793  : 		if (_Mysize < _Off)

  00001	8b 6c 24 08	 mov	 ebp, DWORD PTR __Off$[esp]
  00005	56		 push	 esi
  00006	8b f1		 mov	 esi, ecx
  00008	39 6e 14	 cmp	 DWORD PTR [esi+20], ebp
  0000b	57		 push	 edi
  0000c	73 05		 jae	 SHORT $L221371

; 794  : 			_String_base::_Xran();	// _Off off end

  0000e	e8 00 00 00 00	 call	 ?_Xran@_String_base@std@@QBEXXZ ; std::_String_base::_Xran
$L221371:

; 795  : 		if (_Mysize - _Off < _Count)

  00013	8b 46 14	 mov	 eax, DWORD PTR [esi+20]
  00016	8b 7c 24 14	 mov	 edi, DWORD PTR __Count$[esp+8]
  0001a	2b c5		 sub	 eax, ebp
  0001c	3b c7		 cmp	 eax, edi
  0001e	73 02		 jae	 SHORT $L221372

; 796  : 			_Count = _Mysize - _Off;	// trim _Count

  00020	8b f8		 mov	 edi, eax
$L221372:

; 797  : 		if (0 < _Count)

  00022	85 ff		 test	 edi, edi
  00024	76 47		 jbe	 SHORT $L232746

; 798  : 			{	// move elements down
; 799  : 			_Traits::move(_Myptr() + _Off, _Myptr() + _Off + _Count,
; 800  : 				_Mysize - _Off - _Count);

  00026	8b 4e 18	 mov	 ecx, DWORD PTR [esi+24]
  00029	83 f9 10	 cmp	 ecx, 16			; 00000010H
  0002c	53		 push	 ebx
  0002d	8d 5e 04	 lea	 ebx, DWORD PTR [esi+4]
  00030	72 04		 jb	 SHORT $L232712
  00032	8b 13		 mov	 edx, DWORD PTR [ebx]
  00034	eb 02		 jmp	 SHORT $L232713
$L232712:
  00036	8b d3		 mov	 edx, ebx
$L232713:
  00038	83 f9 10	 cmp	 ecx, 16			; 00000010H
  0003b	72 04		 jb	 SHORT $L232719
  0003d	8b 0b		 mov	 ecx, DWORD PTR [ebx]
  0003f	eb 02		 jmp	 SHORT $L232720
$L232719:
  00041	8b cb		 mov	 ecx, ebx
$L232720:
  00043	2b c7		 sub	 eax, edi

; 803  : 			}
; 804  : 		return (*this);

  00045	03 d5		 add	 edx, ebp
  00047	50		 push	 eax
  00048	03 d7		 add	 edx, edi
  0004a	52		 push	 edx
  0004b	03 cd		 add	 ecx, ebp
  0004d	51		 push	 ecx
  0004e	e8 00 00 00 00	 call	 _memmove
  00053	8b 46 14	 mov	 eax, DWORD PTR [esi+20]
  00056	8b 4e 18	 mov	 ecx, DWORD PTR [esi+24]
  00059	2b c7		 sub	 eax, edi
  0005b	83 c4 0c	 add	 esp, 12			; 0000000cH
  0005e	83 f9 10	 cmp	 ecx, 16			; 00000010H
  00061	89 46 14	 mov	 DWORD PTR [esi+20], eax
  00064	72 02		 jb	 SHORT $L232743

; 801  : 			size_type _Newsize = _Mysize - _Count;
; 802  : 			_Eos(_Newsize);

  00066	8b 1b		 mov	 ebx, DWORD PTR [ebx]
$L232743:
  00068	c6 04 03 00	 mov	 BYTE PTR [ebx+eax], 0
  0006c	5b		 pop	 ebx
$L232746:
  0006d	5f		 pop	 edi

; 803  : 			}
; 804  : 		return (*this);

  0006e	8b c6		 mov	 eax, esi
  00070	5e		 pop	 esi
  00071	5d		 pop	 ebp

; 805  : 		}

  00072	c2 08 00	 ret	 8
?erase@?$basic_string@DU?$char_traits@D@std@@V?$allocator@D@2@@std@@QAEAAV12@II@Z ENDP ; std::basic_string<char,std::char_traits<char>,std::allocator<char> >::erase
_TEXT	ENDS
PUBLIC	?_Copy@?$basic_string@DU?$char_traits@D@std@@V?$allocator@D@2@@std@@IAEXII@Z ; std::basic_string<char,std::char_traits<char>,std::allocator<char> >::_Copy
EXTRN	__except_list:DWORD
EXTRN	___CxxFrameHandler:NEAR
;	COMDAT xdata$x
; File c:\program files\microsoft visual studio .net 2003\vc7\include\iosfwd
xdata$x	SEGMENT
$T232951 DD	0ffffffffH
	DD	00H
	DD	0ffffffffH
	DD	00H
	DD	01H
	DD	00H
	DD	01H
	DD	00H
$T232953 DD	00H
	DD	00H
	DD	00H
	DD	FLAT:$L232753
$T232954 DD	00H
	DD	00H
	DD	00H
	DD	FLAT:$L232751
$T232952 DD	02H
	DD	02H
	DD	03H
	DD	01H
	DD	FLAT:$T232953
	DD	00H
	DD	00H
	DD	03H
	DD	01H
	DD	FLAT:$T232954
$T232945 DD	019930520H
	DD	04H
	DD	FLAT:$T232951
	DD	02H
	DD	FLAT:$T232952
	DD	2 DUP(00H)
; Function compile flags: /Ogty
; File c:\program files\microsoft visual studio .net 2003\vc7\include\xstring
xdata$x	ENDS
;	COMDAT ?_Copy@?$basic_string@DU?$char_traits@D@std@@V?$allocator@D@2@@std@@IAEXII@Z
_TEXT	SEGMENT
__Newres$ = -24						; size = 4
_this$ = -20						; size = 4
__$EHRec$ = -16						; size = 16
__Ptr$ = 8						; size = 4
__Newsize$ = 8						; size = 4
__Oldlen$ = 12						; size = 4
?_Copy@?$basic_string@DU?$char_traits@D@std@@V?$allocator@D@2@@std@@IAEXII@Z PROC NEAR ; std::basic_string<char,std::char_traits<char>,std::allocator<char> >::_Copy, COMDAT
; _this$ = ecx

; 1444 : 		{	// copy _Oldlen elements to newly allocated buffer

  00000	55		 push	 ebp
  00001	8b ec		 mov	 ebp, esp
  00003	6a ff		 push	 -1
  00005	68 00 00 00 00	 push	 __ehhandler$?_Copy@?$basic_string@DU?$char_traits@D@std@@V?$allocator@D@2@@std@@IAEXII@Z
  0000a	64 a1 00 00 00
	00		 mov	 eax, DWORD PTR fs:__except_list
  00010	50		 push	 eax
  00011	64 89 25 00 00
	00 00		 mov	 DWORD PTR fs:__except_list, esp
  00018	83 ec 0c	 sub	 esp, 12			; 0000000cH

; 1445 : 		size_type _Newres = _Newsize | _ALLOC_MASK;

  0001b	8b 45 08	 mov	 eax, DWORD PTR __Newsize$[ebp]
  0001e	53		 push	 ebx
  0001f	56		 push	 esi
  00020	8b d8		 mov	 ebx, eax
  00022	83 cb 0f	 or	 ebx, 15			; 0000000fH

; 1446 : 		if (max_size() < _Newres)

  00025	83 fb fe	 cmp	 ebx, -2			; fffffffeH
  00028	57		 push	 edi
  00029	8b f1		 mov	 esi, ecx
  0002b	89 65 f0	 mov	 DWORD PTR __$EHRec$[ebp], esp
  0002e	89 75 ec	 mov	 DWORD PTR _this$[ebp], esi
  00031	76 04		 jbe	 SHORT $L222778

; 1447 : 			_Newres = _Newsize;	// undo roundup if too big

  00033	8b d8		 mov	 ebx, eax

; 1448 : 		else if (_Newres / 3 < _Myres / 2

  00035	eb 22		 jmp	 SHORT $L222780
$L222778:

; 1449 : 			&& _Myres <= max_size() - _Myres / 2)

  00037	8b 7e 18	 mov	 edi, DWORD PTR [esi+24]
  0003a	b8 ab aa aa aa	 mov	 eax, -1431655765	; aaaaaaabH
  0003f	f7 e3		 mul	 ebx
  00041	8b cf		 mov	 ecx, edi
  00043	d1 e9		 shr	 ecx, 1
  00045	d1 ea		 shr	 edx, 1
  00047	3b d1		 cmp	 edx, ecx
  00049	73 0e		 jae	 SHORT $L222780
  0004b	b8 fe ff ff ff	 mov	 eax, -2			; fffffffeH
  00050	2b c1		 sub	 eax, ecx
  00052	3b f8		 cmp	 edi, eax
  00054	77 03		 ja	 SHORT $L222780

; 1450 : 			_Newres = _Myres + _Myres / 2;	// grow exponentially if possible

  00056	8d 1c 39	 lea	 ebx, DWORD PTR [ecx+edi]
$L222780:

; 1451 : 		_Elem *_Ptr;
; 1452 : 
; 1453 : 		_TRY_BEGIN
; 1454 : 			_Ptr = _Mybase::_Alval.allocate(_Newres + 1);

  00059	8d 4b 01	 lea	 ecx, DWORD PTR [ebx+1]
  0005c	51		 push	 ecx
  0005d	c7 45 fc 00 00
	00 00		 mov	 DWORD PTR __$EHRec$[ebp+12], 0
  00064	e8 00 00 00 00	 call	 ??2@YAPAXI@Z		; operator new
  00069	8b d0		 mov	 edx, eax
  0006b	83 c4 04	 add	 esp, 4
  0006e	89 55 08	 mov	 DWORD PTR __Ptr$[ebp], edx
  00071	eb 29		 jmp	 SHORT $L222782
$L232751:

; 1455 : 		_CATCH_ALL
; 1456 : 			_Newres = _Newsize;	// allocation failed, undo roundup and retry

  00073	8b 45 08	 mov	 eax, DWORD PTR __Newsize$[ebp]
  00076	89 45 e8	 mov	 DWORD PTR __Newres$[ebp], eax

; 1457 : 			_TRY_BEGIN
; 1458 : 				_Ptr = _Mybase::_Alval.allocate(_Newres + 1);

  00079	40		 inc	 eax
  0007a	89 65 f0	 mov	 DWORD PTR __$EHRec$[ebp], esp
  0007d	50		 push	 eax
  0007e	c6 45 fc 02	 mov	 BYTE PTR __$EHRec$[ebp+12], 2
  00082	e8 00 00 00 00	 call	 ??2@YAPAXI@Z		; operator new
  00087	89 45 08	 mov	 DWORD PTR __Ptr$[ebp], eax
  0008a	83 c4 04	 add	 esp, 4

; 1462 : 			_CATCH_END
; 1463 : 		_CATCH_END

  0008d	b8 00 00 00 00	 mov	 eax, $L232946
  00092	c3		 ret	 0
$L232946:
  00093	8b 5d e8	 mov	 ebx, DWORD PTR __Newres$[ebp]
  00096	8b 75 ec	 mov	 esi, DWORD PTR _this$[ebp]
  00099	8b 55 08	 mov	 edx, DWORD PTR __Ptr$[ebp]
$L222782:

; 1464 : 
; 1465 : 		if (0 < _Oldlen)

  0009c	8b 4d 0c	 mov	 ecx, DWORD PTR __Oldlen$[ebp]
  0009f	85 c9		 test	 ecx, ecx
  000a1	76 24		 jbe	 SHORT $L232870

; 1466 : 			_Traits::copy(_Ptr, _Myptr(), _Oldlen);	// copy existing elements

  000a3	83 7e 18 10	 cmp	 DWORD PTR [esi+24], 16	; 00000010H
  000a7	72 05		 jb	 SHORT $L232867
  000a9	8b 76 04	 mov	 esi, DWORD PTR [esi+4]
  000ac	eb 03		 jmp	 SHORT $L232868
$L232867:
  000ae	83 c6 04	 add	 esi, 4
$L232868:
  000b1	8b c1		 mov	 eax, ecx
  000b3	c1 e9 02	 shr	 ecx, 2
  000b6	8b fa		 mov	 edi, edx
  000b8	f3 a5		 rep movsd
  000ba	8b c8		 mov	 ecx, eax
  000bc	83 e1 03	 and	 ecx, 3
  000bf	f3 a4		 rep movsb
  000c1	8b 75 ec	 mov	 esi, DWORD PTR _this$[ebp]
  000c4	8b 4d 0c	 mov	 ecx, DWORD PTR __Oldlen$[ebp]
$L232870:

; 1467 : 		_Tidy(true);

  000c7	83 7e 18 10	 cmp	 DWORD PTR [esi+24], 16	; 00000010H
  000cb	72 12		 jb	 SHORT $L232906
  000cd	8b 4e 04	 mov	 ecx, DWORD PTR [esi+4]
  000d0	51		 push	 ecx
  000d1	e8 00 00 00 00	 call	 ??3@YAXPAX@Z		; operator delete
  000d6	8b 55 08	 mov	 edx, DWORD PTR __Ptr$[ebp]
  000d9	8b 4d 0c	 mov	 ecx, DWORD PTR __Oldlen$[ebp]
  000dc	83 c4 04	 add	 esp, 4
$L232906:

; 1468 : 		_Bx._Ptr = _Ptr;
; 1469 : 		_Myres = _Newres;
; 1470 : 		_Eos(_Oldlen);

  000df	83 fb 10	 cmp	 ebx, 16			; 00000010H
  000e2	8d 46 04	 lea	 eax, DWORD PTR [esi+4]
  000e5	c6 00 00	 mov	 BYTE PTR [eax], 0
  000e8	89 10		 mov	 DWORD PTR [eax], edx
  000ea	89 5e 18	 mov	 DWORD PTR [esi+24], ebx
  000ed	89 4e 14	 mov	 DWORD PTR [esi+20], ecx
  000f0	72 02		 jb	 SHORT $L232941
  000f2	8b c2		 mov	 eax, edx
$L232941:

; 1471 : 		}

  000f4	5f		 pop	 edi
  000f5	c6 04 08 00	 mov	 BYTE PTR [eax+ecx], 0
  000f9	8b 4d f4	 mov	 ecx, DWORD PTR __$EHRec$[ebp+4]
  000fc	5e		 pop	 esi
  000fd	64 89 0d 00 00
	00 00		 mov	 DWORD PTR fs:__except_list, ecx
  00104	5b		 pop	 ebx
  00105	8b e5		 mov	 esp, ebp
  00107	5d		 pop	 ebp
  00108	c2 08 00	 ret	 8
$L232753:

; 1459 : 			_CATCH_ALL
; 1460 : 			_Tidy(true);	// failed again, discard storage and reraise

  0010b	8b 75 ec	 mov	 esi, DWORD PTR _this$[ebp]
  0010e	83 7e 18 10	 cmp	 DWORD PTR [esi+24], 16	; 00000010H
  00112	72 0c		 jb	 SHORT $L232845
  00114	8b 56 04	 mov	 edx, DWORD PTR [esi+4]
  00117	52		 push	 edx
  00118	e8 00 00 00 00	 call	 ??3@YAXPAX@Z		; operator delete
  0011d	83 c4 04	 add	 esp, 4
$L232845:

; 1461 : 			_RERAISE;

  00120	6a 00		 push	 0
  00122	c7 46 18 0f 00
	00 00		 mov	 DWORD PTR [esi+24], 15	; 0000000fH
  00129	c7 46 14 00 00
	00 00		 mov	 DWORD PTR [esi+20], 0
  00130	6a 00		 push	 0
  00132	c6 46 04 00	 mov	 BYTE PTR [esi+4], 0
  00136	e8 00 00 00 00	 call	 __CxxThrowException@8
$L232956:
$L232950:
  0013b	cc		 int	 3
_TEXT	ENDS
;	COMDAT text$x
text$x	SEGMENT
__ehhandler$?_Copy@?$basic_string@DU?$char_traits@D@std@@V?$allocator@D@2@@std@@IAEXII@Z:
  00000	b8 00 00 00 00	 mov	 eax, OFFSET FLAT:$T232945
  00005	e9 00 00 00 00	 jmp	 ___CxxFrameHandler
text$x	ENDS
?_Copy@?$basic_string@DU?$char_traits@D@std@@V?$allocator@D@2@@std@@IAEXII@Z ENDP ; std::basic_string<char,std::char_traits<char>,std::allocator<char> >::_Copy
PUBLIC	?RemoveThread@CDPSock@@QAEXPAX@Z		; CDPSock::RemoveThread
PUBLIC	??_C@_0GI@OCPECBBP@?2Documents?5and?5Settings?2test?2Mes@ ; `string'
PUBLIC	??_C@_05DIALNFFA@?$CFs?5?$CFd?$AA@		; `string'
EXTRN	?Error@@YAPBDPBDZZ:NEAR				; Error
;	COMDAT ??_C@_0GI@OCPECBBP@?2Documents?5and?5Settings?2test?2Mes@
; File c:\documents and settings\test\mes documents\source\virtuos_v17\build\program\_network\mcl\include\cmclcritsec.h
CONST	SEGMENT
??_C@_0GI@OCPECBBP@?2Documents?5and?5Settings?2test?2Mes@ DB '\Documents '
	DB	'and Settings\test\Mes documents\Source\Virtuos_v17\Build\Prog'
	DB	'ram\_Network\Net\Src\dpsock.cpp', 00H	; `string'
CONST	ENDS
;	COMDAT ??_C@_05DIALNFFA@?$CFs?5?$CFd?$AA@
CONST	SEGMENT
??_C@_05DIALNFFA@?$CFs?5?$CFd?$AA@ DB '%s %d', 00H	; `string'
; Function compile flags: /Ogty
; File c:\documents and settings\test\mes documents\source\virtuos_v17\build\program\_network\net\src\dpsock.cpp
CONST	ENDS
;	COMDAT ?RemoveThread@CDPSock@@QAEXPAX@Z
_TEXT	SEGMENT
tv192 = -4						; size = 4
_hThread$ = 8						; size = 4
?RemoveThread@CDPSock@@QAEXPAX@Z PROC NEAR		; CDPSock::RemoveThread, COMDAT
; _this$ = ecx

; 164  : {

  00000	51		 push	 ecx
  00001	57		 push	 edi
  00002	8b f9		 mov	 edi, ecx

; 165  : 	HANDLE h;
; 166  : 	m_locklistthread.Enter();

  00004	8d 47 40	 lea	 eax, DWORD PTR [edi+64]
  00007	50		 push	 eax
  00008	89 44 24 08	 mov	 DWORD PTR tv192[esp+12], eax
  0000c	ff 15 00 00 00
	00		 call	 DWORD PTR __imp__EnterCriticalSection@4

; 167  : 
; 168  : 	if( m_listthread.size() > 0 )

  00012	8b 47 38	 mov	 eax, DWORD PTR [edi+56]
  00015	85 c0		 test	 eax, eax
  00017	76 70		 jbe	 SHORT $L229375

; 169  : 	{
; 170  : 		INIT_LOOP;
; 171  : 		for( list<HANDLE>::iterator i = m_listthread.begin(); i != m_listthread.end(); ++i )

  00019	8b 47 34	 mov	 eax, DWORD PTR [edi+52]
  0001c	53		 push	 ebx
  0001d	56		 push	 esi
  0001e	8b 30		 mov	 esi, DWORD PTR [eax]
  00020	33 db		 xor	 ebx, ebx
  00022	3b f0		 cmp	 esi, eax
  00024	74 61		 je	 SHORT $L233135
  00026	55		 push	 ebp
  00027	8b 6c 24 18	 mov	 ebp, DWORD PTR _hThread$[esp+16]
  0002b	eb 03 8d 49 00	 npad	 5
$L233001:

; 172  : 		{
; 173  : 			VERIFY_LOOP( __FILE__, __LINE__ );

  00030	43		 inc	 ebx
  00031	81 fb e8 03 00
	00		 cmp	 ebx, 1000		; 000003e8H
  00037	75 17		 jne	 SHORT $L229376
  00039	68 ad 00 00 00	 push	 173			; 000000adH
  0003e	68 00 00 00 00	 push	 OFFSET FLAT:??_C@_0GI@OCPECBBP@?2Documents?5and?5Settings?2test?2Mes@
  00043	68 00 00 00 00	 push	 OFFSET FLAT:??_C@_05DIALNFFA@?$CFs?5?$CFd?$AA@
  00048	e8 00 00 00 00	 call	 ?Error@@YAPBDPBDZZ	; Error
  0004d	83 c4 0c	 add	 esp, 12			; 0000000cH
$L229376:

; 174  : 			h	= *i;
; 175  : 			if( h == hThread )

  00050	39 6e 08	 cmp	 DWORD PTR [esi+8], ebp
  00053	8b 47 34	 mov	 eax, DWORD PTR [edi+52]
  00056	74 08		 je	 SHORT $L233134
  00058	8b 36		 mov	 esi, DWORD PTR [esi]
  0005a	3b f0		 cmp	 esi, eax
  0005c	75 d2		 jne	 SHORT $L233001
  0005e	eb 26		 jmp	 SHORT $L233137
$L233134:

; 176  : 			{
; 177  : 				m_listthread.erase( i );

  00060	3b f0		 cmp	 esi, eax
  00062	74 1f		 je	 SHORT $L233100
  00064	8b 46 04	 mov	 eax, DWORD PTR [esi+4]
  00067	8b 0e		 mov	 ecx, DWORD PTR [esi]
  00069	89 08		 mov	 DWORD PTR [eax], ecx
  0006b	8b 16		 mov	 edx, DWORD PTR [esi]
  0006d	8b 46 04	 mov	 eax, DWORD PTR [esi+4]
  00070	56		 push	 esi
  00071	89 42 04	 mov	 DWORD PTR [edx+4], eax
  00074	e8 00 00 00 00	 call	 ??3@YAXPAX@Z		; operator delete
  00079	8b 47 38	 mov	 eax, DWORD PTR [edi+56]
  0007c	83 c4 04	 add	 esp, 4
  0007f	48		 dec	 eax
  00080	89 47 38	 mov	 DWORD PTR [edi+56], eax
$L233100:

; 178  : 				m_uIoWorker--;

  00083	ff 4f 2c	 dec	 DWORD PTR [edi+44]
$L233137:
  00086	5d		 pop	 ebp
$L233135:
  00087	5e		 pop	 esi
  00088	5b		 pop	 ebx
$L229375:

; 179  : 				break;
; 180  : 			}
; 181  : 		}
; 182  : 	}
; 183  : 	m_locklistthread.Leave();

  00089	8b 4c 24 04	 mov	 ecx, DWORD PTR tv192[esp+8]
  0008d	5f		 pop	 edi

; 184  : }

  0008e	83 c4 04	 add	 esp, 4

; 179  : 				break;
; 180  : 			}
; 181  : 		}
; 182  : 	}
; 183  : 	m_locklistthread.Leave();

  00091	89 4c 24 04	 mov	 DWORD PTR _hThread$[esp-4], ecx
  00095	ff 25 00 00 00
	00		 jmp	 DWORD PTR __imp__LeaveCriticalSection@4
?RemoveThread@CDPSock@@QAEXPAX@Z ENDP			; CDPSock::RemoveThread
_TEXT	ENDS
PUBLIC	?EventWorkerThread@@YGIPAX@Z			; EventWorkerThread
EXTRN	__imp__WSAResetEvent@4:NEAR
EXTRN	__imp__WSAWaitForMultipleEvents@20:NEAR
EXTRN	__imp__GetOverlappedResult@16:NEAR
EXTRN	?Recv@CClientSockE@@QAEHXZ:NEAR			; CClientSockE::Recv
EXTRN	?SendRemnant@CClientSockE@@QAEHK@Z:NEAR		; CClientSockE::SendRemnant
EXTRN	?Fetch@CClientSockE@@QAEPAVCBuffer@@K@Z:NEAR	; CClientSockE::Fetch
; Function compile flags: /Ogty
;	COMDAT ?EventWorkerThread@@YGIPAX@Z
_TEXT	SEGMENT
_aEvent$ = -16						; size = 16
_dwBytes$ = 8						; size = 4
_lpvThreadParameter$ = 8				; size = 4
?EventWorkerThread@@YGIPAX@Z PROC NEAR			; EventWorkerThread, COMDAT

; 802  : {

  00000	83 ec 10	 sub	 esp, 16			; 00000010H
  00003	53		 push	 ebx
  00004	55		 push	 ebp

; 803  : 	CDPSock* pDPSock	= (CDPSock*)lpvThreadParameter;
; 804  : 	CClientSockE* pClientSock	= (CClientSockE*)pDPSock->GetSockThreaded();

  00005	8b 6c 24 1c	 mov	 ebp, DWORD PTR _lpvThreadParameter$[esp+20]

; 805  : 	SOCKET hSocket	= pClientSock->GetHandle();
; 806  : 
; 807  : 	WSAEVENT aEvent[4];
; 808  : 	aEvent[0]	= pClientSock->GetRecvEvent();
; 809  : 	aEvent[1]	= pClientSock->GetSendEvent();
; 810  : 	aEvent[2]	= pDPSock->GetCloseHandle();

  00009	8b 55 5c	 mov	 edx, DWORD PTR [ebp+92]
  0000c	56		 push	 esi
  0000d	8b 75 64	 mov	 esi, DWORD PTR [ebp+100]
  00010	8b 46 3c	 mov	 eax, DWORD PTR [esi+60]
  00013	8b 5e 04	 mov	 ebx, DWORD PTR [esi+4]
  00016	89 44 24 0c	 mov	 DWORD PTR _aEvent$[esp+28], eax
  0001a	8b 4e 40	 mov	 ecx, DWORD PTR [esi+64]

; 811  : 	aEvent[3]	= NULL;

  0001d	33 c0		 xor	 eax, eax
  0001f	57		 push	 edi
  00020	89 4c 24 14	 mov	 DWORD PTR _aEvent$[esp+36], ecx
  00024	89 54 24 18	 mov	 DWORD PTR _aEvent$[esp+40], edx
  00028	89 44 24 1c	 mov	 DWORD PTR _aEvent$[esp+44], eax

; 812  : 
; 813  : 	DWORD dwBytes	= 0, dw;

  0002c	89 44 24 24	 mov	 DWORD PTR _dwBytes$[esp+28], eax
$L229596:

; 814  : 	BOOL fOk;
; 815  : 
; 816  : 	while( 1 )
; 817  : 	{
; 818  : 		dw	= WSAWaitForMultipleEvents( 3, aEvent, FALSE, INFINITE, FALSE );

  00030	6a 00		 push	 0
  00032	6a ff		 push	 -1
  00034	6a 00		 push	 0
  00036	8d 44 24 1c	 lea	 eax, DWORD PTR _aEvent$[esp+44]
  0003a	50		 push	 eax
  0003b	6a 03		 push	 3
  0003d	ff 15 00 00 00
	00		 call	 DWORD PTR __imp__WSAWaitForMultipleEvents@20

; 819  : 		switch( dw )

  00043	83 f8 02	 cmp	 eax, 2
  00046	77 e8		 ja	 SHORT $L229596
  00048	0f 84 30 01 00
	00		 je	 $L229603
  0004e	83 e8 00	 sub	 eax, 0
  00051	74 61		 je	 SHORT $L229607
  00053	48		 dec	 eax
  00054	75 da		 jne	 SHORT $L229596

; 894  : 				}
; 895  : 			case WSA_WAIT_EVENT_0+1:	
; 896  : 				{
; 897  : 					fOk		= GetOverlappedResult( (HANDLE)hSocket, &pClientSock->m_ovSend, &dwBytes, TRUE );

  00056	6a 01		 push	 1
  00058	8d 4c 24 28	 lea	 ecx, DWORD PTR _dwBytes$[esp+32]
  0005c	51		 push	 ecx
  0005d	8d 56 28	 lea	 edx, DWORD PTR [esi+40]
  00060	52		 push	 edx
  00061	53		 push	 ebx
  00062	ff 15 00 00 00
	00		 call	 DWORD PTR __imp__GetOverlappedResult@16
  00068	8b f8		 mov	 edi, eax

; 898  : 					WSAResetEvent( aEvent[1] );

  0006a	8b 44 24 14	 mov	 eax, DWORD PTR _aEvent$[esp+36]
  0006e	50		 push	 eax
  0006f	ff 15 00 00 00
	00		 call	 DWORD PTR __imp__WSAResetEvent@4

; 899  : 					if( !fOk || dwBytes == 0 )	// When Connection Closed by peer gracefully or because of error

  00075	85 ff		 test	 edi, edi
  00077	0f 84 ba 00 00
	00		 je	 $L229632
  0007d	8b 44 24 24	 mov	 eax, DWORD PTR _dwBytes$[esp+28]
  00081	85 c0		 test	 eax, eax
  00083	0f 84 ae 00 00
	00		 je	 $L229632

; 914  : 										pDPSock->CloseConnection( hSocket );
; 915  : 										return 0;
; 916  : //									}
; 917  : 									break;
; 918  : 								}
; 919  : 						}
; 920  : 					}
; 921  : 				
; 922  : 					if( pClientSock->SendRemnant( dwBytes ) != 0 )

  00089	50		 push	 eax
  0008a	8b ce		 mov	 ecx, esi
  0008c	e8 00 00 00 00	 call	 ?SendRemnant@CClientSockE@@QAEHK@Z ; CClientSockE::SendRemnant
$L233178:

; 880  : 					{
; 881  : 						pDPSock->CloseConnection( hSocket );
; 882  : 						return 0;
; 883  : 					}
; 884  : 
; 885  : 					if( pClientSock->Recv() != 0 )	// i/o error

  00091	85 c0		 test	 eax, eax
  00093	74 9b		 je	 SHORT $L229596

; 886  : 					{
; 887  : //						if( pClientSock->m_l == 0 ) {
; 888  : 							pDPSock->RemoveThread( pClientSock->m_hWorker );

  00095	8b 46 44	 mov	 eax, DWORD PTR [esi+68]
  00098	50		 push	 eax
  00099	8b cd		 mov	 ecx, ebp
  0009b	e8 00 00 00 00	 call	 ?RemoveThread@CDPSock@@QAEXPAX@Z ; CDPSock::RemoveThread
  000a0	8b cd		 mov	 ecx, ebp
  000a2	53		 push	 ebx
  000a3	e8 00 00 00 00	 call	 ?CloseConnection@CDPSock@@QAEXK@Z ; CDPSock::CloseConnection
  000a8	5f		 pop	 edi
  000a9	5e		 pop	 esi
  000aa	5d		 pop	 ebp
  000ab	33 c0		 xor	 eax, eax
  000ad	5b		 pop	 ebx

; 923  : 					{
; 924  : //						if( pClientSock->m_l == 0 ) {
; 925  : 							pDPSock->RemoveThread( pClientSock->m_hWorker );
; 926  : 							pDPSock->CloseConnection( hSocket );
; 927  : 							return 0;
; 928  : //						}
; 929  : 					}
; 930  : 					break;
; 931  : 				}
; 932  : 		}
; 933  : 	}
; 934  : 	return 0;
; 935  : }

  000ae	83 c4 10	 add	 esp, 16			; 00000010H
  000b1	c2 04 00	 ret	 4
$L229607:

; 820  : 		{
; 821  : 			case WSA_WAIT_EVENT_0+2:
; 822  : 				return 0;
; 823  : 			case WSA_WAIT_FAILED:
; 824  : 				TRACE( "WSA_WAIT_FAILED with error %d\n", WSAGetLastError() );
; 825  : 				continue;
; 826  : 				break;
; 827  : 			case WSA_WAIT_EVENT_0:
; 828  : 				{
; 829  : 					fOk		= GetOverlappedResult( (HANDLE)hSocket, &pClientSock->m_ovRecv, &dwBytes, TRUE );

  000b4	6a 01		 push	 1
  000b6	8d 4c 24 28	 lea	 ecx, DWORD PTR _dwBytes$[esp+32]
  000ba	51		 push	 ecx
  000bb	8d 56 14	 lea	 edx, DWORD PTR [esi+20]
  000be	52		 push	 edx
  000bf	53		 push	 ebx
  000c0	ff 15 00 00 00
	00		 call	 DWORD PTR __imp__GetOverlappedResult@16

; 830  : 					if( !fOk || dwBytes == 0 )	// When Connection Closed by peer gracefully or because of error

  000c6	85 c0		 test	 eax, eax
  000c8	0f 84 98 00 00
	00		 je	 $L229610
  000ce	8b 44 24 24	 mov	 eax, DWORD PTR _dwBytes$[esp+28]
  000d2	85 c0		 test	 eax, eax
  000d4	0f 84 8c 00 00
	00		 je	 $L229610

; 846  : 										return 0;
; 847  : //									}
; 848  : 									break;
; 849  : 								}
; 850  : 						}
; 851  : 					}
; 852  : 
; 853  : 					CBuffer* pBuffer	= pClientSock->Fetch( dwBytes );

  000da	50		 push	 eax
  000db	8b ce		 mov	 ecx, esi
  000dd	e8 00 00 00 00	 call	 ?Fetch@CClientSockE@@QAEPAVCBuffer@@K@Z ; CClientSockE::Fetch

; 854  : 					if( pBuffer )

  000e2	85 c0		 test	 eax, eax
  000e4	74 3a		 je	 SHORT $L229618

; 855  : 					{
; 856  : 						if( pBuffer->cb > 0 ) {

  000e6	8b 48 08	 mov	 ecx, DWORD PTR [eax+8]
  000e9	85 c9		 test	 ecx, ecx
  000eb	76 1f		 jbe	 SHORT $L229619

; 857  : #ifdef __PROTOCOL0910
; 858  : 							if( pClientSock->IsCrcWrite()
; 859  : 								&& pClientSock->m_dwProtocolId == 0 )
; 860  : 							{
; 861  : 								LPBYTE ptr	= pBuffer->m_lpBufStart;
; 862  : 								if( *(UNALIGNED LPDWORD)( ptr + pDPSock->m_dwDataSizeOffset ) == 8 )
; 863  : 								{
; 864  : 									if( *(UNALIGNED LPDWORD)( &ptr[pDPSock->m_dwReadHeaderSize] )
; 865  : 										== 0x00000000 )
; 866  : 										pDPSock->SetProtocolId( *(UNALIGNED LPDWORD)( &ptr[pDPSock->m_dwReadHeaderSize + 4] ) );
; 867  : 								}
; 868  : 							}
; 869  : #endif	// __PROTOCOL0910
; 870  : 							pBuffer->dpid	= hSocket;
; 871  : 							pDPSock->m_lspRecvBuffer.AddTail( pBuffer );

  000ed	50		 push	 eax
  000ee	8d 4d 68	 lea	 ecx, DWORD PTR [ebp+104]
  000f1	89 58 04	 mov	 DWORD PTR [eax+4], ebx
  000f4	e8 00 00 00 00	 call	 ?AddTail@CBufferQueue@@QAEXPAVCBuffer@@@Z ; CBufferQueue::AddTail

; 872  : 							SetEvent( pDPSock->GetRecvHandle() );

  000f9	8b 45 60	 mov	 eax, DWORD PTR [ebp+96]
  000fc	50		 push	 eax
  000fd	ff 15 00 00 00
	00		 call	 DWORD PTR __imp__SetEvent@4

; 880  : 					{
; 881  : 						pDPSock->CloseConnection( hSocket );
; 882  : 						return 0;
; 883  : 					}
; 884  : 
; 885  : 					if( pClientSock->Recv() != 0 )	// i/o error

  00103	8b ce		 mov	 ecx, esi
  00105	e8 00 00 00 00	 call	 ?Recv@CClientSockE@@QAEHXZ ; CClientSockE::Recv

; 889  : 							pDPSock->CloseConnection( hSocket );
; 890  : 							return 0;
; 891  : //						}
; 892  : 					}
; 893  : 					break;

  0010a	eb 85		 jmp	 SHORT $L233178
$L229619:

; 873  : 						}
; 874  : 						else {
; 875  : 							SAFE_DELETE( pBuffer );

  0010c	8b 10		 mov	 edx, DWORD PTR [eax]
  0010e	6a 01		 push	 1
  00110	8b c8		 mov	 ecx, eax
  00112	ff 12		 call	 DWORD PTR [edx]

; 880  : 					{
; 881  : 						pDPSock->CloseConnection( hSocket );
; 882  : 						return 0;
; 883  : 					}
; 884  : 
; 885  : 					if( pClientSock->Recv() != 0 )	// i/o error

  00114	8b ce		 mov	 ecx, esi
  00116	e8 00 00 00 00	 call	 ?Recv@CClientSockE@@QAEHXZ ; CClientSockE::Recv

; 889  : 							pDPSock->CloseConnection( hSocket );
; 890  : 							return 0;
; 891  : //						}
; 892  : 					}
; 893  : 					break;

  0011b	e9 71 ff ff ff	 jmp	 $L233178
$L229618:

; 876  : 						}
; 877  : 					}
; 878  : 					else if( WSAGetLastError()
; 879  : 						==  ERROR_BAD_NET_NAME )

  00120	ff 15 00 00 00
	00		 call	 DWORD PTR __imp__WSAGetLastError@0
  00126	83 f8 43	 cmp	 eax, 67			; 00000043H
  00129	74 4b		 je	 SHORT $L233177

; 880  : 					{
; 881  : 						pDPSock->CloseConnection( hSocket );
; 882  : 						return 0;
; 883  : 					}
; 884  : 
; 885  : 					if( pClientSock->Recv() != 0 )	// i/o error

  0012b	8b ce		 mov	 ecx, esi
  0012d	e8 00 00 00 00	 call	 ?Recv@CClientSockE@@QAEHXZ ; CClientSockE::Recv

; 889  : 							pDPSock->CloseConnection( hSocket );
; 890  : 							return 0;
; 891  : //						}
; 892  : 					}
; 893  : 					break;

  00132	e9 5a ff ff ff	 jmp	 $L233178
$L229632:

; 900  : 					{
; 901  : 						int err		= WSAGetLastError();

  00137	ff 15 00 00 00
	00		 call	 DWORD PTR __imp__WSAGetLastError@0

; 902  : 						switch( err )
; 903  : 						{
; 904  : 							case ERROR_NETNAME_DELETED:
; 905  : 							case ERROR_OPERATION_ABORTED:
; 906  : 							case 0:
; 907  : 							case WSAENOTSOCK:
; 908  : 							default:
; 909  : 								{
; 910  : 									TRACE( "Close socket %d, %x //REF:%d\n", hSocket, pClientSock, pClientSock->m_l-1 );
; 911  : 									InterlockedDecrement( &pClientSock->m_l );

  0013d	8d 4e 48	 lea	 ecx, DWORD PTR [esi+72]
  00140	51		 push	 ecx
  00141	ff 15 00 00 00
	00		 call	 DWORD PTR __imp__InterlockedDecrement@4

; 912  : //									if( pClientSock->m_l == 0 ) {
; 913  : 										pDPSock->RemoveThread( pClientSock->m_hWorker );

  00147	8b 56 44	 mov	 edx, DWORD PTR [esi+68]
  0014a	52		 push	 edx
  0014b	8b cd		 mov	 ecx, ebp
  0014d	e8 00 00 00 00	 call	 ?RemoveThread@CDPSock@@QAEXPAX@Z ; CDPSock::RemoveThread
  00152	8b cd		 mov	 ecx, ebp
  00154	53		 push	 ebx
  00155	e8 00 00 00 00	 call	 ?CloseConnection@CDPSock@@QAEXK@Z ; CDPSock::CloseConnection
  0015a	5f		 pop	 edi
  0015b	5e		 pop	 esi
  0015c	5d		 pop	 ebp
  0015d	33 c0		 xor	 eax, eax
  0015f	5b		 pop	 ebx

; 923  : 					{
; 924  : //						if( pClientSock->m_l == 0 ) {
; 925  : 							pDPSock->RemoveThread( pClientSock->m_hWorker );
; 926  : 							pDPSock->CloseConnection( hSocket );
; 927  : 							return 0;
; 928  : //						}
; 929  : 					}
; 930  : 					break;
; 931  : 				}
; 932  : 		}
; 933  : 	}
; 934  : 	return 0;
; 935  : }

  00160	83 c4 10	 add	 esp, 16			; 00000010H
  00163	c2 04 00	 ret	 4
$L229610:

; 831  : 					{
; 832  : 						int err		= WSAGetLastError();

  00166	ff 15 00 00 00
	00		 call	 DWORD PTR __imp__WSAGetLastError@0

; 833  : 						switch( err )
; 834  : 						{
; 835  : 							case ERROR_NETNAME_DELETED:
; 836  : 							case ERROR_OPERATION_ABORTED:
; 837  : 							case 0:
; 838  : 							case WSAENOTSOCK:
; 839  : 							default:
; 840  : 								{
; 841  : 									TRACE( "Close socket %d, %x //REF:%d\n", hSocket, pClientSock, pClientSock->m_l-1 );
; 842  : 									InterlockedDecrement( &pClientSock->m_l );

  0016c	83 c6 48	 add	 esi, 72			; 00000048H
  0016f	56		 push	 esi
  00170	ff 15 00 00 00
	00		 call	 DWORD PTR __imp__InterlockedDecrement@4
$L233177:

; 843  : //									if( pClientSock->m_l == 0 ) {
; 844  : //										pDPSock->RemoveThread( pClientSock->m_hWorker );
; 845  : 										pDPSock->CloseConnection( hSocket );

  00176	8b cd		 mov	 ecx, ebp
  00178	53		 push	 ebx
  00179	e8 00 00 00 00	 call	 ?CloseConnection@CDPSock@@QAEXK@Z ; CDPSock::CloseConnection
$L229603:
  0017e	5f		 pop	 edi
  0017f	5e		 pop	 esi
  00180	5d		 pop	 ebp
  00181	33 c0		 xor	 eax, eax
  00183	5b		 pop	 ebx

; 923  : 					{
; 924  : //						if( pClientSock->m_l == 0 ) {
; 925  : 							pDPSock->RemoveThread( pClientSock->m_hWorker );
; 926  : 							pDPSock->CloseConnection( hSocket );
; 927  : 							return 0;
; 928  : //						}
; 929  : 					}
; 930  : 					break;
; 931  : 				}
; 932  : 		}
; 933  : 	}
; 934  : 	return 0;
; 935  : }

  00184	83 c4 10	 add	 esp, 16			; 00000010H
  00187	c2 04 00	 ret	 4
?EventWorkerThread@@YGIPAX@Z ENDP			; EventWorkerThread
_TEXT	ENDS
PUBLIC	??1?$list@PAXV?$allocator@PAX@std@@@std@@QAE@XZ	; std::list<void *,std::allocator<void *> >::~list<void *,std::allocator<void *> >
; Function compile flags: /Ogty
; File c:\program files\microsoft visual studio .net 2003\vc7\include\list
;	COMDAT ??1?$list@PAXV?$allocator@PAX@std@@@std@@QAE@XZ
_TEXT	SEGMENT
??1?$list@PAXV?$allocator@PAX@std@@@std@@QAE@XZ PROC NEAR ; std::list<void *,std::allocator<void *> >::~list<void *,std::allocator<void *> >, COMDAT
; _this$ = ecx

; 364  : 		{	// destroy the object

  00000	56		 push	 esi
  00001	8b f1		 mov	 esi, ecx

; 365  : 		_Tidy();

  00003	e8 00 00 00 00	 call	 ?clear@?$list@PAXV?$allocator@PAX@std@@@std@@QAEXXZ ; std::list<void *,std::allocator<void *> >::clear
  00008	8b 46 04	 mov	 eax, DWORD PTR [esi+4]
  0000b	50		 push	 eax
  0000c	e8 00 00 00 00	 call	 ??3@YAXPAX@Z		; operator delete
  00011	83 c4 04	 add	 esp, 4
  00014	c7 46 04 00 00
	00 00		 mov	 DWORD PTR [esi+4], 0
  0001b	5e		 pop	 esi

; 366  : 		}

  0001c	c3		 ret	 0
??1?$list@PAXV?$allocator@PAX@std@@@std@@QAE@XZ ENDP	; std::list<void *,std::allocator<void *> >::~list<void *,std::allocator<void *> >
_TEXT	ENDS
PUBLIC	?front@?$list@PAXV?$allocator@PAX@std@@@std@@QAEAAPAXXZ ; std::list<void *,std::allocator<void *> >::front
; Function compile flags: /Ogty
;	COMDAT ?front@?$list@PAXV?$allocator@PAX@std@@@std@@QAEAAPAXXZ
_TEXT	SEGMENT
?front@?$list@PAXV?$allocator@PAX@std@@@std@@QAEAAPAXXZ PROC NEAR ; std::list<void *,std::allocator<void *> >::front, COMDAT
; _this$ = ecx

; 451  : 		return (*begin());

  00000	8b 41 04	 mov	 eax, DWORD PTR [ecx+4]
  00003	8b 00		 mov	 eax, DWORD PTR [eax]
  00005	83 c0 08	 add	 eax, 8

; 452  : 		}

  00008	c3		 ret	 0
?front@?$list@PAXV?$allocator@PAX@std@@@std@@QAEAAPAXXZ ENDP ; std::list<void *,std::allocator<void *> >::front
_TEXT	ENDS
PUBLIC	?pop_front@?$list@PAXV?$allocator@PAX@std@@@std@@QAEXXZ ; std::list<void *,std::allocator<void *> >::pop_front
; Function compile flags: /Ogty
;	COMDAT ?pop_front@?$list@PAXV?$allocator@PAX@std@@@std@@QAEXXZ
_TEXT	SEGMENT
?pop_front@?$list@PAXV?$allocator@PAX@std@@@std@@QAEXXZ PROC NEAR ; std::list<void *,std::allocator<void *> >::pop_front, COMDAT
; _this$ = ecx

; 475  : 		{	// erase element at beginning

  00000	56		 push	 esi
  00001	8b f1		 mov	 esi, ecx

; 476  : 		erase(begin());

  00003	8b 4e 04	 mov	 ecx, DWORD PTR [esi+4]
  00006	8b 01		 mov	 eax, DWORD PTR [ecx]
  00008	3b c1		 cmp	 eax, ecx
  0000a	74 1f		 je	 SHORT $L233324
  0000c	8b 48 04	 mov	 ecx, DWORD PTR [eax+4]
  0000f	8b 10		 mov	 edx, DWORD PTR [eax]
  00011	89 11		 mov	 DWORD PTR [ecx], edx
  00013	8b 08		 mov	 ecx, DWORD PTR [eax]
  00015	8b 50 04	 mov	 edx, DWORD PTR [eax+4]
  00018	50		 push	 eax
  00019	89 51 04	 mov	 DWORD PTR [ecx+4], edx
  0001c	e8 00 00 00 00	 call	 ??3@YAXPAX@Z		; operator delete
  00021	8b 46 08	 mov	 eax, DWORD PTR [esi+8]
  00024	83 c4 04	 add	 esp, 4
  00027	48		 dec	 eax
  00028	89 46 08	 mov	 DWORD PTR [esi+8], eax
$L233324:
  0002b	5e		 pop	 esi

; 477  : 		}

  0002c	c3		 ret	 0
?pop_front@?$list@PAXV?$allocator@PAX@std@@@std@@QAEXXZ ENDP ; std::list<void *,std::allocator<void *> >::pop_front
_TEXT	ENDS
PUBLIC	??0?$_List_val@PAXV?$allocator@PAX@std@@@std@@IAE@V?$allocator@PAX@1@@Z ; std::_List_val<void *,std::allocator<void *> >::_List_val<void *,std::allocator<void *> >
; Function compile flags: /Ogty
;	COMDAT ??0?$_List_val@PAXV?$allocator@PAX@std@@@std@@IAE@V?$allocator@PAX@1@@Z
_TEXT	SEGMENT
__Al$ = 8						; size = 1
??0?$_List_val@PAXV?$allocator@PAX@std@@@std@@IAE@V?$allocator@PAX@1@@Z PROC NEAR ; std::_List_val<void *,std::allocator<void *> >::_List_val<void *,std::allocator<void *> >, COMDAT
; _this$ = ecx

; 82   : 		{	// construct base, and allocator from _Al

  00000	8b c1		 mov	 eax, ecx

; 83   : 		}

  00002	c2 04 00	 ret	 4
??0?$_List_val@PAXV?$allocator@PAX@std@@@std@@IAE@V?$allocator@PAX@1@@Z ENDP ; std::_List_val<void *,std::allocator<void *> >::_List_val<void *,std::allocator<void *> >
_TEXT	ENDS
PUBLIC	??1?$basic_string@DU?$char_traits@D@std@@V?$allocator@D@2@@std@@QAE@XZ ; std::basic_string<char,std::char_traits<char>,std::allocator<char> >::~basic_string<char,std::char_traits<char>,std::allocator<char> >
; Function compile flags: /Ogty
; File c:\program files\microsoft visual studio .net 2003\vc7\include\xstring
;	COMDAT ??1?$basic_string@DU?$char_traits@D@std@@V?$allocator@D@2@@std@@QAE@XZ
_TEXT	SEGMENT
??1?$basic_string@DU?$char_traits@D@std@@V?$allocator@D@2@@std@@QAE@XZ PROC NEAR ; std::basic_string<char,std::char_traits<char>,std::allocator<char> >::~basic_string<char,std::char_traits<char>,std::allocator<char> >, COMDAT
; _this$ = ecx

; 456  : 		{	// destroy the string

  00000	56		 push	 esi
  00001	8b f1		 mov	 esi, ecx

; 457  : 		_Tidy(true);

  00003	83 7e 18 10	 cmp	 DWORD PTR [esi+24], 16	; 00000010H
  00007	72 0c		 jb	 SHORT $L233430
  00009	8b 46 04	 mov	 eax, DWORD PTR [esi+4]
  0000c	50		 push	 eax
  0000d	e8 00 00 00 00	 call	 ??3@YAXPAX@Z		; operator delete
  00012	83 c4 04	 add	 esp, 4
$L233430:
  00015	33 c0		 xor	 eax, eax
  00017	c7 46 18 0f 00
	00 00		 mov	 DWORD PTR [esi+24], 15	; 0000000fH
  0001e	89 46 14	 mov	 DWORD PTR [esi+20], eax
  00021	88 46 04	 mov	 BYTE PTR [esi+4], al
  00024	5e		 pop	 esi

; 458  : 		}

  00025	c3		 ret	 0
??1?$basic_string@DU?$char_traits@D@std@@V?$allocator@D@2@@std@@QAE@XZ ENDP ; std::basic_string<char,std::char_traits<char>,std::allocator<char> >::~basic_string<char,std::char_traits<char>,std::allocator<char> >
_TEXT	ENDS
PUBLIC	?_Grow@?$basic_string@DU?$char_traits@D@std@@V?$allocator@D@2@@std@@IAE_NI_N@Z ; std::basic_string<char,std::char_traits<char>,std::allocator<char> >::_Grow
EXTRN	?_Xlen@_String_base@std@@QBEXXZ:NEAR		; std::_String_base::_Xlen
; Function compile flags: /Ogty
;	COMDAT ?_Grow@?$basic_string@DU?$char_traits@D@std@@V?$allocator@D@2@@std@@IAE_NI_N@Z
_TEXT	SEGMENT
__Newsize$ = 8						; size = 4
__Trim$ = 12						; size = 1
?_Grow@?$basic_string@DU?$char_traits@D@std@@V?$allocator@D@2@@std@@IAE_NI_N@Z PROC NEAR ; std::basic_string<char,std::char_traits<char>,std::allocator<char> >::_Grow, COMDAT
; _this$ = ecx

; 1480 : 		{	// ensure buffer is big enough, trim to size if _Trim is true

  00000	55		 push	 ebp
  00001	56		 push	 esi

; 1481 : 		if (max_size() < _Newsize)

  00002	8b 74 24 0c	 mov	 esi, DWORD PTR __Newsize$[esp+4]
  00006	83 fe fe	 cmp	 esi, -2			; fffffffeH
  00009	8b e9		 mov	 ebp, ecx
  0000b	76 05		 jbe	 SHORT $L221380

; 1482 : 			_String_base::_Xlen();	// result too long

  0000d	e8 00 00 00 00	 call	 ?_Xlen@_String_base@std@@QBEXXZ ; std::_String_base::_Xlen
$L221380:

; 1483 : 		if (_Myres < _Newsize)

  00012	8b 45 18	 mov	 eax, DWORD PTR [ebp+24]
  00015	3b c6		 cmp	 eax, esi
  00017	73 19		 jae	 SHORT $L221381

; 1484 : 			_Copy(_Newsize, _Mysize);	// reallocate to grow

  00019	8b 45 14	 mov	 eax, DWORD PTR [ebp+20]
  0001c	50		 push	 eax
  0001d	56		 push	 esi
  0001e	8b cd		 mov	 ecx, ebp
  00020	e8 00 00 00 00	 call	 ?_Copy@?$basic_string@DU?$char_traits@D@std@@V?$allocator@D@2@@std@@IAEXII@Z ; std::basic_string<char,std::char_traits<char>,std::allocator<char> >::_Copy

; 1490 : 		return (0 < _Newsize);	// return true only if more work to do

  00025	33 c0		 xor	 eax, eax
  00027	3b c6		 cmp	 eax, esi
  00029	1b c0		 sbb	 eax, eax
  0002b	5e		 pop	 esi
  0002c	f7 d8		 neg	 eax
  0002e	5d		 pop	 ebp

; 1491 : 		}

  0002f	c2 08 00	 ret	 8
$L221381:

; 1485 : 		else if (_Trim && _Newsize < _BUF_SIZE)

  00032	8a 4c 24 10	 mov	 cl, BYTE PTR __Trim$[esp+4]
  00036	84 c9		 test	 cl, cl
  00038	74 5c		 je	 SHORT $L221383
  0003a	83 fe 10	 cmp	 esi, 16			; 00000010H
  0003d	73 57		 jae	 SHORT $L221383
  0003f	53		 push	 ebx

; 1486 : 			_Tidy(true,	// copy and deallocate if trimming to small string
; 1487 : 				_Newsize < _Mysize ? _Newsize : _Mysize);

  00040	8b 5d 14	 mov	 ebx, DWORD PTR [ebp+20]
  00043	3b f3		 cmp	 esi, ebx
  00045	73 02		 jae	 SHORT $L233451
  00047	8b de		 mov	 ebx, esi
$L233451:
  00049	83 f8 10	 cmp	 eax, 16			; 00000010H
  0004c	72 2b		 jb	 SHORT $L233506
  0004e	85 db		 test	 ebx, ebx
  00050	8b 45 04	 mov	 eax, DWORD PTR [ebp+4]
  00053	57		 push	 edi
  00054	8d 7d 04	 lea	 edi, DWORD PTR [ebp+4]
  00057	76 16		 jbe	 SHORT $L233504
  00059	8b cb		 mov	 ecx, ebx
  0005b	8b d1		 mov	 edx, ecx
  0005d	c1 e9 02	 shr	 ecx, 2
  00060	8b f0		 mov	 esi, eax
  00062	f3 a5		 rep movsd
  00064	8b ca		 mov	 ecx, edx
  00066	83 e1 03	 and	 ecx, 3
  00069	f3 a4		 rep movsb
  0006b	8b 74 24 14	 mov	 esi, DWORD PTR __Newsize$[esp+12]
$L233504:
  0006f	50		 push	 eax
  00070	e8 00 00 00 00	 call	 ??3@YAXPAX@Z		; operator delete
  00075	83 c4 04	 add	 esp, 4
  00078	5f		 pop	 edi
$L233506:
  00079	89 5d 14	 mov	 DWORD PTR [ebp+20], ebx

; 1490 : 		return (0 < _Newsize);	// return true only if more work to do

  0007c	33 c0		 xor	 eax, eax
  0007e	c7 45 18 0f 00
	00 00		 mov	 DWORD PTR [ebp+24], 15	; 0000000fH
  00085	c6 44 2b 04 00	 mov	 BYTE PTR [ebx+ebp+4], 0
  0008a	3b c6		 cmp	 eax, esi
  0008c	5b		 pop	 ebx
  0008d	1b c0		 sbb	 eax, eax
  0008f	5e		 pop	 esi
  00090	f7 d8		 neg	 eax
  00092	5d		 pop	 ebp

; 1491 : 		}

  00093	c2 08 00	 ret	 8
$L221383:

; 1488 : 		else if (_Newsize == 0)

  00096	85 f6		 test	 esi, esi
  00098	75 23		 jne	 SHORT $L233541

; 1489 : 			_Eos(0);	// new size is zero, just null terminate

  0009a	83 f8 10	 cmp	 eax, 16			; 00000010H
  0009d	89 75 14	 mov	 DWORD PTR [ebp+20], esi
  000a0	72 14		 jb	 SHORT $L233538
  000a2	8b 6d 04	 mov	 ebp, DWORD PTR [ebp+4]

; 1490 : 		return (0 < _Newsize);	// return true only if more work to do

  000a5	33 c0		 xor	 eax, eax
  000a7	3b c6		 cmp	 eax, esi
  000a9	1b c0		 sbb	 eax, eax
  000ab	5e		 pop	 esi
  000ac	c6 45 00 00	 mov	 BYTE PTR [ebp], 0
  000b0	f7 d8		 neg	 eax
  000b2	5d		 pop	 ebp

; 1491 : 		}

  000b3	c2 08 00	 ret	 8

; 1489 : 			_Eos(0);	// new size is zero, just null terminate

$L233538:
  000b6	83 c5 04	 add	 ebp, 4
  000b9	c6 45 00 00	 mov	 BYTE PTR [ebp], 0
$L233541:

; 1490 : 		return (0 < _Newsize);	// return true only if more work to do

  000bd	33 c0		 xor	 eax, eax
  000bf	3b c6		 cmp	 eax, esi
  000c1	1b c0		 sbb	 eax, eax
  000c3	5e		 pop	 esi
  000c4	f7 d8		 neg	 eax
  000c6	5d		 pop	 ebp

; 1491 : 		}

  000c7	c2 08 00	 ret	 8
?_Grow@?$basic_string@DU?$char_traits@D@std@@V?$allocator@D@2@@std@@IAE_NI_N@Z ENDP ; std::basic_string<char,std::char_traits<char>,std::allocator<char> >::_Grow
_TEXT	ENDS
PUBLIC	?CloseIoWorker@CDPSock@@AAEHXZ			; CDPSock::CloseIoWorker
EXTRN	__imp__CloseHandle@4:NEAR
EXTRN	??_U@YAPAXI@Z:NEAR				; operator new[]
EXTRN	??_V@YAXPAX@Z:NEAR				; operator delete[]
EXTRN	__imp__WSASetEvent@4:NEAR
EXTRN	__imp__PostQueuedCompletionStatus@16:NEAR
EXTRN	__imp__WaitForMultipleObjects@16:NEAR
; Function compile flags: /Ogty
; File c:\documents and settings\test\mes documents\source\virtuos_v17\build\program\_network\net\src\dpsock.cpp
;	COMDAT ?CloseIoWorker@CDPSock@@AAEHXZ
_TEXT	SEGMENT
_i$229241 = -176					; size = 4
_lphThread$ = -172					; size = 4
___loop$229240 = -168					; size = 4
tv288 = -164						; size = 4
_vi$233775 = -160					; size = 148
_vi$233769 = -160					; size = 148
__$ArrayPad$ = -4					; size = 4
__$ReturnAddr$ = 4					; size = 4
?CloseIoWorker@CDPSock@@AAEHXZ PROC NEAR		; CDPSock::CloseIoWorker, COMDAT
; _this$ = ecx

; 102  : {

  00000	55		 push	 ebp
  00001	8b ec		 mov	 ebp, esp
  00003	83 e4 f8	 and	 esp, -8			; fffffff8H
  00006	81 ec b4 00 00
	00		 sub	 esp, 180		; 000000b4H
  0000c	a1 00 00 00 00	 mov	 eax, DWORD PTR ___security_cookie
  00011	53		 push	 ebx
  00012	56		 push	 esi
  00013	33 c5		 xor	 eax, ebp
  00015	8b f1		 mov	 esi, ecx
  00017	89 84 24 b8 00
	00 00		 mov	 DWORD PTR __$ArrayPad$[esp+188], eax

; 103  : 	u_long cbThread;
; 104  : 	LPHANDLE lphThread;
; 105  : 	
; 106  : 	m_locklistthread.Enter();

  0001e	8d 46 40	 lea	 eax, DWORD PTR [esi+64]
  00021	57		 push	 edi
  00022	50		 push	 eax
  00023	89 44 24 20	 mov	 DWORD PTR tv288[esp+196], eax
  00027	ff 15 00 00 00
	00		 call	 DWORD PTR __imp__EnterCriticalSection@4

; 107  : 	cbThread	= m_listthread.size();

  0002d	8b 5e 38	 mov	 ebx, DWORD PTR [esi+56]

; 108  : 	if( cbThread > 0 )

  00030	85 db		 test	 ebx, ebx
  00032	0f 86 3d 01 00
	00		 jbe	 $L229254

; 109  : 	{
; 110  : 		lphThread	= new HANDLE[cbThread];

  00038	8d 04 9d 00 00
	00 00		 lea	 eax, DWORD PTR [ebx*4]
  0003f	50		 push	 eax
  00040	e8 00 00 00 00	 call	 ??_U@YAPAXI@Z		; operator new[]
  00045	89 44 24 18	 mov	 DWORD PTR _lphThread$[esp+196], eax

; 111  : 
; 112  : 		INIT_LOOP;

  00049	33 c0		 xor	 eax, eax
  0004b	83 c4 04	 add	 esp, 4

; 113  : 		for( DWORD i = 0; i < cbThread; i++ )

  0004e	85 db		 test	 ebx, ebx
  00050	89 44 24 10	 mov	 DWORD PTR _i$229241[esp+192], eax
  00054	0f 86 b0 00 00
	00		 jbe	 $L229244
  0005a	eb 04		 jmp	 SHORT $L229242
$L233786:
  0005c	8b 44 24 18	 mov	 eax, DWORD PTR ___loop$229240[esp+192]
$L229242:

; 114  : 		{
; 115  : 			VERIFY_LOOP( __FILE__, __LINE__ );

  00060	40		 inc	 eax
  00061	3d e8 03 00 00	 cmp	 eax, 1000		; 000003e8H
  00066	89 44 24 18	 mov	 DWORD PTR ___loop$229240[esp+192], eax
  0006a	75 14		 jne	 SHORT $L229245
  0006c	6a 73		 push	 115			; 00000073H
  0006e	68 00 00 00 00	 push	 OFFSET FLAT:??_C@_0GI@OCPECBBP@?2Documents?5and?5Settings?2test?2Mes@
  00073	68 00 00 00 00	 push	 OFFSET FLAT:??_C@_05DIALNFFA@?$CFs?5?$CFd?$AA@
  00078	e8 00 00 00 00	 call	 ?Error@@YAPBDPBDZZ	; Error
  0007d	83 c4 0c	 add	 esp, 12			; 0000000cH
$L229245:

; 116  : 
; 117  : 			lphThread[i]	= m_listthread.front();

  00080	8b 4e 34	 mov	 ecx, DWORD PTR [esi+52]
  00083	8b 11		 mov	 edx, DWORD PTR [ecx]
  00085	8b 42 08	 mov	 eax, DWORD PTR [edx+8]
  00088	8b 4c 24 14	 mov	 ecx, DWORD PTR _lphThread$[esp+192]
  0008c	8b 54 24 10	 mov	 edx, DWORD PTR _i$229241[esp+192]
  00090	89 04 91	 mov	 DWORD PTR [ecx+edx*4], eax

; 118  : 			m_listthread.pop_front();

  00093	8b 4e 34	 mov	 ecx, DWORD PTR [esi+52]
  00096	8b 01		 mov	 eax, DWORD PTR [ecx]
  00098	3b c1		 cmp	 eax, ecx
  0009a	74 1f		 je	 SHORT $L233761
  0009c	8b 48 04	 mov	 ecx, DWORD PTR [eax+4]
  0009f	8b 10		 mov	 edx, DWORD PTR [eax]
  000a1	89 11		 mov	 DWORD PTR [ecx], edx
  000a3	8b 08		 mov	 ecx, DWORD PTR [eax]
  000a5	8b 50 04	 mov	 edx, DWORD PTR [eax+4]
  000a8	50		 push	 eax
  000a9	89 51 04	 mov	 DWORD PTR [ecx+4], edx
  000ac	e8 00 00 00 00	 call	 ??3@YAXPAX@Z		; operator delete
  000b1	8b 46 38	 mov	 eax, DWORD PTR [esi+56]
  000b4	83 c4 04	 add	 esp, 4
  000b7	48		 dec	 eax
  000b8	89 46 38	 mov	 DWORD PTR [esi+56], eax
$L233761:

; 119  : 			if( !chWindows9x() )

  000bb	33 c0		 xor	 eax, eax
  000bd	c7 44 24 20 94
	00 00 00	 mov	 DWORD PTR _vi$233769[esp+192], 148 ; 00000094H
  000c5	b9 24 00 00 00	 mov	 ecx, 36			; 00000024H
  000ca	8d 7c 24 24	 lea	 edi, DWORD PTR _vi$233769[esp+196]
  000ce	f3 ab		 rep stosd
  000d0	8d 44 24 20	 lea	 eax, DWORD PTR _vi$233769[esp+192]
  000d4	50		 push	 eax
  000d5	ff 15 00 00 00
	00		 call	 DWORD PTR __imp__GetVersionExA@4
  000db	83 7c 24 30 02	 cmp	 DWORD PTR _vi$233769[esp+208], 2
  000e0	75 17		 jne	 SHORT $L229243

; 120  : 			{
; 121  : 				PostQueuedCompletionStatus( m_phCompletionPort[i], CLOSEIOWORKERMSG, TRUE, NULL );

  000e2	8b 4e 58	 mov	 ecx, DWORD PTR [esi+88]
  000e5	8b 54 24 10	 mov	 edx, DWORD PTR _i$229241[esp+192]
  000e9	8b 04 91	 mov	 eax, DWORD PTR [ecx+edx*4]
  000ec	6a 00		 push	 0
  000ee	6a 01		 push	 1
  000f0	6a fe		 push	 -2			; fffffffeH
  000f2	50		 push	 eax
  000f3	ff 15 00 00 00
	00		 call	 DWORD PTR __imp__PostQueuedCompletionStatus@16
$L229243:
  000f9	8b 44 24 10	 mov	 eax, DWORD PTR _i$229241[esp+192]
  000fd	40		 inc	 eax
  000fe	3b c3		 cmp	 eax, ebx
  00100	89 44 24 10	 mov	 DWORD PTR _i$229241[esp+192], eax
  00104	0f 82 52 ff ff
	ff		 jb	 $L233786
$L229244:

; 122  : 			}
; 123  : 		}
; 124  : 		if( chWindows9x() )

  0010a	33 c0		 xor	 eax, eax
  0010c	c7 44 24 20 94
	00 00 00	 mov	 DWORD PTR _vi$233775[esp+192], 148 ; 00000094H
  00114	b9 24 00 00 00	 mov	 ecx, 36			; 00000024H
  00119	8d 7c 24 24	 lea	 edi, DWORD PTR _vi$233775[esp+196]
  0011d	f3 ab		 rep stosd
  0011f	8d 4c 24 20	 lea	 ecx, DWORD PTR _vi$233775[esp+192]
  00123	51		 push	 ecx
  00124	ff 15 00 00 00
	00		 call	 DWORD PTR __imp__GetVersionExA@4
  0012a	83 7c 24 30 02	 cmp	 DWORD PTR _vi$233775[esp+208], 2
  0012f	74 0a		 je	 SHORT $L229248

; 125  : 			WSASetEvent( m_hClose );

  00131	8b 56 5c	 mov	 edx, DWORD PTR [esi+92]
  00134	52		 push	 edx
  00135	ff 15 00 00 00
	00		 call	 DWORD PTR __imp__WSASetEvent@4
$L229248:

; 126  : 		WaitForMultipleObjects( cbThread, lphThread, TRUE, INFINITE );

  0013b	8b 44 24 14	 mov	 eax, DWORD PTR _lphThread$[esp+192]
  0013f	6a ff		 push	 -1
  00141	6a 01		 push	 1
  00143	50		 push	 eax
  00144	53		 push	 ebx
  00145	ff 15 00 00 00
	00		 call	 DWORD PTR __imp__WaitForMultipleObjects@16

; 127  : 
; 128  : 		for( DWORD i = 0; i < cbThread; i++ ) {

  0014b	33 ff		 xor	 edi, edi
  0014d	85 db		 test	 ebx, ebx
  0014f	76 13		 jbe	 SHORT $L229252
$L229250:

; 129  : 			CloseHandle( (HANDLE)lphThread[i] );

  00151	8b 4c 24 14	 mov	 ecx, DWORD PTR _lphThread$[esp+192]
  00155	8b 14 b9	 mov	 edx, DWORD PTR [ecx+edi*4]
  00158	52		 push	 edx
  00159	ff 15 00 00 00
	00		 call	 DWORD PTR __imp__CloseHandle@4
  0015f	47		 inc	 edi
  00160	3b fb		 cmp	 edi, ebx
  00162	72 ed		 jb	 SHORT $L229250
$L229252:

; 130  : 		}
; 131  : 		SAFE_DELETE_ARRAY( lphThread );

  00164	8b 44 24 14	 mov	 eax, DWORD PTR _lphThread$[esp+192]
  00168	85 c0		 test	 eax, eax
  0016a	74 09		 je	 SHORT $L229254
  0016c	50		 push	 eax
  0016d	e8 00 00 00 00	 call	 ??_V@YAXPAX@Z		; operator delete[]
  00172	83 c4 04	 add	 esp, 4
$L229254:

; 132  : 	}
; 133  : 	if( m_phCompletionPort )

  00175	8b 46 58	 mov	 eax, DWORD PTR [esi+88]
  00178	85 c0		 test	 eax, eax
  0017a	74 43		 je	 SHORT $L229264

; 134  : 	{
; 135  : 		for( DWORD iIoWorker = 0; iIoWorker < m_uIoWorker; iIoWorker++ )

  0017c	8b 46 2c	 mov	 eax, DWORD PTR [esi+44]
  0017f	33 ff		 xor	 edi, edi
  00181	85 c0		 test	 eax, eax
  00183	76 23		 jbe	 SHORT $L229261
$L229259:

; 136  : 			CLOSE_HANDLE( m_phCompletionPort[iIoWorker] );

  00185	8b 46 58	 mov	 eax, DWORD PTR [esi+88]
  00188	8b 04 b8	 mov	 eax, DWORD PTR [eax+edi*4]
  0018b	85 c0		 test	 eax, eax
  0018d	74 11		 je	 SHORT $L229260
  0018f	50		 push	 eax
  00190	ff 15 00 00 00
	00		 call	 DWORD PTR __imp__CloseHandle@4
  00196	8b 4e 58	 mov	 ecx, DWORD PTR [esi+88]
  00199	c7 04 b9 00 00
	00 00		 mov	 DWORD PTR [ecx+edi*4], 0
$L229260:
  001a0	8b 46 2c	 mov	 eax, DWORD PTR [esi+44]
  001a3	47		 inc	 edi
  001a4	3b f8		 cmp	 edi, eax
  001a6	72 dd		 jb	 SHORT $L229259
$L229261:

; 137  : 		SAFE_DELETE_ARRAY( m_phCompletionPort );

  001a8	8b 46 58	 mov	 eax, DWORD PTR [esi+88]
  001ab	85 c0		 test	 eax, eax
  001ad	74 10		 je	 SHORT $L229264
  001af	50		 push	 eax
  001b0	e8 00 00 00 00	 call	 ??_V@YAXPAX@Z		; operator delete[]
  001b5	83 c4 04	 add	 esp, 4
  001b8	c7 46 58 00 00
	00 00		 mov	 DWORD PTR [esi+88], 0
$L229264:

; 138  : 	}
; 139  : 	m_uIoWorker	= 0;
; 140  : 	m_locklistthread.Leave();

  001bf	8b 54 24 1c	 mov	 edx, DWORD PTR tv288[esp+192]
  001c3	52		 push	 edx
  001c4	c7 46 2c 00 00
	00 00		 mov	 DWORD PTR [esi+44], 0
  001cb	ff 15 00 00 00
	00		 call	 DWORD PTR __imp__LeaveCriticalSection@4

; 141  : 	return TRUE;
; 142  : }

  001d1	8b 8c 24 bc 00
	00 00		 mov	 ecx, DWORD PTR __$ArrayPad$[esp+192]
  001d8	5f		 pop	 edi
  001d9	5e		 pop	 esi
  001da	33 cd		 xor	 ecx, ebp
  001dc	b8 01 00 00 00	 mov	 eax, 1
  001e1	5b		 pop	 ebx
  001e2	e8 00 00 00 00	 call	 @__security_check_cookie@4
  001e7	8b e5		 mov	 esp, ebp
  001e9	5d		 pop	 ebp
  001ea	c3		 ret	 0
?CloseIoWorker@CDPSock@@AAEHXZ ENDP			; CDPSock::CloseIoWorker
_TEXT	ENDS
PUBLIC	??0?$list@PAXV?$allocator@PAX@std@@@std@@QAE@XZ	; std::list<void *,std::allocator<void *> >::list<void *,std::allocator<void *> >
; Function compile flags: /Ogty
; File c:\program files\microsoft visual studio .net 2003\vc7\include\list
;	COMDAT ??0?$list@PAXV?$allocator@PAX@std@@@std@@QAE@XZ
_TEXT	SEGMENT
??0?$list@PAXV?$allocator@PAX@std@@@std@@QAE@XZ PROC NEAR ; std::list<void *,std::allocator<void *> >::list<void *,std::allocator<void *> >, COMDAT
; _this$ = ecx

; 280  : 		{	// construct empty list

  00000	56		 push	 esi
  00001	8b f1		 mov	 esi, ecx
  00003	e8 00 00 00 00	 call	 ?_Buynode@?$list@PAXV?$allocator@PAX@std@@@std@@IAEPAU_Node@?$_List_nod@PAXV?$allocator@PAX@std@@@2@XZ ; std::list<void *,std::allocator<void *> >::_Buynode
  00008	89 46 04	 mov	 DWORD PTR [esi+4], eax
  0000b	c7 46 08 00 00
	00 00		 mov	 DWORD PTR [esi+8], 0

; 281  : 		}

  00012	8b c6		 mov	 eax, esi
  00014	5e		 pop	 esi
  00015	c3		 ret	 0
??0?$list@PAXV?$allocator@PAX@std@@@std@@QAE@XZ ENDP	; std::list<void *,std::allocator<void *> >::list<void *,std::allocator<void *> >
_TEXT	ENDS
PUBLIC	??1logic_error@std@@UAE@XZ			; std::logic_error::~logic_error
PUBLIC	?what@logic_error@std@@UBEPBDXZ			; std::logic_error::what
PUBLIC	??_7logic_error@std@@6B@			; std::logic_error::`vftable'
PUBLIC	??_Glogic_error@std@@UAEPAXI@Z			; std::logic_error::`scalar deleting destructor'
EXTRN	??1exception@@UAE@XZ:NEAR			; exception::~exception
EXTRN	??_Elogic_error@std@@UAEPAXI@Z:NEAR		; std::logic_error::`vector deleting destructor'
;	COMDAT ??_7logic_error@std@@6B@
; File c:\program files\microsoft visual studio .net 2003\vc7\include\iosfwd
CONST	SEGMENT
??_7logic_error@std@@6B@ DD FLAT:??_Elogic_error@std@@UAEPAXI@Z ; std::logic_error::`vftable'
	DD	FLAT:?what@logic_error@std@@UBEPBDXZ
; Function compile flags: /Ogty
; File c:\program files\microsoft visual studio .net 2003\vc7\include\stdexcept
CONST	ENDS
;	COMDAT ??1logic_error@std@@UAE@XZ
_TEXT	SEGMENT
??1logic_error@std@@UAE@XZ PROC NEAR			; std::logic_error::~logic_error, COMDAT
; _this$ = ecx

; 23   : 		{}	// destroy the object

  00000	56		 push	 esi
  00001	8b f1		 mov	 esi, ecx
  00003	c7 06 00 00 00
	00		 mov	 DWORD PTR [esi], OFFSET FLAT:??_7logic_error@std@@6B@
  00009	83 7e 24 10	 cmp	 DWORD PTR [esi+36], 16	; 00000010H
  0000d	72 0c		 jb	 SHORT $L233916
  0000f	8b 46 10	 mov	 eax, DWORD PTR [esi+16]
  00012	50		 push	 eax
  00013	e8 00 00 00 00	 call	 ??3@YAXPAX@Z		; operator delete
  00018	83 c4 04	 add	 esp, 4
$L233916:
  0001b	33 c0		 xor	 eax, eax
  0001d	c7 46 24 0f 00
	00 00		 mov	 DWORD PTR [esi+36], 15	; 0000000fH
  00024	89 46 20	 mov	 DWORD PTR [esi+32], eax
  00027	88 46 10	 mov	 BYTE PTR [esi+16], al
  0002a	8b ce		 mov	 ecx, esi
  0002c	5e		 pop	 esi
  0002d	e9 00 00 00 00	 jmp	 ??1exception@@UAE@XZ	; exception::~exception
??1logic_error@std@@UAE@XZ ENDP				; std::logic_error::~logic_error
; Function compile flags: /Ogty
_TEXT	ENDS
;	COMDAT ?what@logic_error@std@@UBEPBDXZ
_TEXT	SEGMENT
?what@logic_error@std@@UBEPBDXZ PROC NEAR		; std::logic_error::what, COMDAT
; _this$ = ecx

; 27   : 		return (_Str.c_str());

  00000	83 79 24 10	 cmp	 DWORD PTR [ecx+36], 16	; 00000010H
  00004	72 04		 jb	 SHORT $L233949
  00006	8b 41 10	 mov	 eax, DWORD PTR [ecx+16]

; 28   : 		}

  00009	c3		 ret	 0

; 27   : 		return (_Str.c_str());

$L233949:
  0000a	8d 41 10	 lea	 eax, DWORD PTR [ecx+16]

; 28   : 		}

  0000d	c3		 ret	 0
?what@logic_error@std@@UBEPBDXZ ENDP			; std::logic_error::what
; Function compile flags: /Ogty
_TEXT	ENDS
;	COMDAT ??_Glogic_error@std@@UAEPAXI@Z
_TEXT	SEGMENT
___flags$ = 8						; size = 4
??_Glogic_error@std@@UAEPAXI@Z PROC NEAR		; std::logic_error::`scalar deleting destructor', COMDAT
; _this$ = ecx
  00000	56		 push	 esi
  00001	8b f1		 mov	 esi, ecx
  00003	e8 00 00 00 00	 call	 ??1logic_error@std@@UAE@XZ ; std::logic_error::~logic_error
  00008	f6 44 24 08 01	 test	 BYTE PTR ___flags$[esp], 1
  0000d	74 09		 je	 SHORT $L233957
  0000f	56		 push	 esi
  00010	e8 00 00 00 00	 call	 ??3@YAXPAX@Z		; operator delete
  00015	83 c4 04	 add	 esp, 4
$L233957:
  00018	8b c6		 mov	 eax, esi
  0001a	5e		 pop	 esi
  0001b	c2 04 00	 ret	 4
??_Glogic_error@std@@UAEPAXI@Z ENDP			; std::logic_error::`scalar deleting destructor'
_TEXT	ENDS
PUBLIC	?assign@?$basic_string@DU?$char_traits@D@std@@V?$allocator@D@2@@std@@QAEAAV12@ABV12@II@Z ; std::basic_string<char,std::char_traits<char>,std::allocator<char> >::assign
; Function compile flags: /Ogty
; File c:\program files\microsoft visual studio .net 2003\vc7\include\xstring
;	COMDAT ?assign@?$basic_string@DU?$char_traits@D@std@@V?$allocator@D@2@@std@@QAEAAV12@ABV12@II@Z
_TEXT	SEGMENT
__Right$ = 8						; size = 4
__Roff$ = 12						; size = 4
__Count$ = 16						; size = 4
?assign@?$basic_string@DU?$char_traits@D@std@@V?$allocator@D@2@@std@@QAEAAV12@ABV12@II@Z PROC NEAR ; std::basic_string<char,std::char_traits<char>,std::allocator<char> >::assign, COMDAT
; _this$ = ecx

; 590  : 		{	// assign _Right [_Roff, _Roff + _Count)

  00000	53		 push	 ebx
  00001	55		 push	 ebp
  00002	56		 push	 esi

; 591  : 		if (_Right.size() < _Roff)

  00003	8b 74 24 14	 mov	 esi, DWORD PTR __Roff$[esp+8]
  00007	57		 push	 edi
  00008	8b 7c 24 14	 mov	 edi, DWORD PTR __Right$[esp+12]
  0000c	39 77 14	 cmp	 DWORD PTR [edi+20], esi
  0000f	8b d9		 mov	 ebx, ecx
  00011	73 05		 jae	 SHORT $L220001

; 592  : 			_String_base::_Xran();	// _Roff off end

  00013	e8 00 00 00 00	 call	 ?_Xran@_String_base@std@@QBEXXZ ; std::_String_base::_Xran
$L220001:

; 593  : 		size_type _Num = _Right.size() - _Roff;

  00018	8b 6f 14	 mov	 ebp, DWORD PTR [edi+20]

; 594  : 		if (_Count < _Num)

  0001b	8b 44 24 1c	 mov	 eax, DWORD PTR __Count$[esp+12]
  0001f	2b ee		 sub	 ebp, esi
  00021	3b c5		 cmp	 eax, ebp
  00023	73 02		 jae	 SHORT $L220003

; 595  : 			_Num = _Count;	// trim _Num to size

  00025	8b e8		 mov	 ebp, eax
$L220003:

; 596  : 
; 597  : 		if (this == &_Right)

  00027	3b df		 cmp	 ebx, edi
  00029	75 1f		 jne	 SHORT $L220004

; 598  : 			erase((size_type)(_Roff + _Num)), erase(0, _Roff);	// substring

  0002b	6a ff		 push	 -1
  0002d	03 ee		 add	 ebp, esi
  0002f	55		 push	 ebp
  00030	8b cb		 mov	 ecx, ebx
  00032	e8 00 00 00 00	 call	 ?erase@?$basic_string@DU?$char_traits@D@std@@V?$allocator@D@2@@std@@QAEAAV12@II@Z ; std::basic_string<char,std::char_traits<char>,std::allocator<char> >::erase
  00037	56		 push	 esi
  00038	6a 00		 push	 0
  0003a	8b cb		 mov	 ecx, ebx
  0003c	e8 00 00 00 00	 call	 ?erase@?$basic_string@DU?$char_traits@D@std@@V?$allocator@D@2@@std@@QAEAAV12@II@Z ; std::basic_string<char,std::char_traits<char>,std::allocator<char> >::erase
  00041	5f		 pop	 edi
  00042	5e		 pop	 esi
  00043	5d		 pop	 ebp

; 603  : 			}
; 604  : 		return (*this);

  00044	8b c3		 mov	 eax, ebx
  00046	5b		 pop	 ebx

; 605  : 		}

  00047	c2 0c 00	 ret	 12			; 0000000cH
$L220004:

; 599  : 		else if (_Grow(_Num))

  0004a	83 fd fe	 cmp	 ebp, -2			; fffffffeH
  0004d	76 07		 jbe	 SHORT $L234066
  0004f	8b cb		 mov	 ecx, ebx
  00051	e8 00 00 00 00	 call	 ?_Xlen@_String_base@std@@QBEXXZ ; std::_String_base::_Xlen
$L234066:
  00056	8b 43 18	 mov	 eax, DWORD PTR [ebx+24]
  00059	3b c5		 cmp	 eax, ebp
  0005b	73 21		 jae	 SHORT $L234067
  0005d	8b 43 14	 mov	 eax, DWORD PTR [ebx+20]
  00060	50		 push	 eax
  00061	55		 push	 ebp
  00062	8b cb		 mov	 ecx, ebx
  00064	e8 00 00 00 00	 call	 ?_Copy@?$basic_string@DU?$char_traits@D@std@@V?$allocator@D@2@@std@@IAEXII@Z ; std::basic_string<char,std::char_traits<char>,std::allocator<char> >::_Copy
  00069	85 ed		 test	 ebp, ebp
$L234154:
  0006b	76 6d		 jbe	 SHORT $L234153

; 600  : 			{	// make room and assign new stuff
; 601  : 			_Traits::copy(_Myptr(), _Right._Myptr() + _Roff, _Num);

  0006d	8b 4f 18	 mov	 ecx, DWORD PTR [edi+24]
  00070	b8 10 00 00 00	 mov	 eax, 16			; 00000010H
  00075	3b c8		 cmp	 ecx, eax
  00077	72 2f		 jb	 SHORT $L234118
  00079	8b 57 04	 mov	 edx, DWORD PTR [edi+4]
  0007c	eb 2d		 jmp	 SHORT $L234119

; 599  : 		else if (_Grow(_Num))

$L234067:
  0007e	85 ed		 test	 ebp, ebp
  00080	75 e9		 jne	 SHORT $L234154
  00082	83 f8 10	 cmp	 eax, 16			; 00000010H
  00085	89 6b 14	 mov	 DWORD PTR [ebx+20], ebp
  00088	72 0f		 jb	 SHORT $L234110
  0008a	8b 43 04	 mov	 eax, DWORD PTR [ebx+4]
  0008d	5f		 pop	 edi
  0008e	5e		 pop	 esi
  0008f	c6 00 00	 mov	 BYTE PTR [eax], 0
  00092	5d		 pop	 ebp

; 603  : 			}
; 604  : 		return (*this);

  00093	8b c3		 mov	 eax, ebx
  00095	5b		 pop	 ebx

; 605  : 		}

  00096	c2 0c 00	 ret	 12			; 0000000cH

; 599  : 		else if (_Grow(_Num))

$L234110:
  00099	5f		 pop	 edi
  0009a	8d 43 04	 lea	 eax, DWORD PTR [ebx+4]
  0009d	5e		 pop	 esi
  0009e	c6 00 00	 mov	 BYTE PTR [eax], 0
  000a1	5d		 pop	 ebp

; 603  : 			}
; 604  : 		return (*this);

  000a2	8b c3		 mov	 eax, ebx
  000a4	5b		 pop	 ebx

; 605  : 		}

  000a5	c2 0c 00	 ret	 12			; 0000000cH

; 600  : 			{	// make room and assign new stuff
; 601  : 			_Traits::copy(_Myptr(), _Right._Myptr() + _Roff, _Num);

$L234118:
  000a8	8d 57 04	 lea	 edx, DWORD PTR [edi+4]
$L234119:
  000ab	39 43 18	 cmp	 DWORD PTR [ebx+24], eax
  000ae	8d 43 04	 lea	 eax, DWORD PTR [ebx+4]
  000b1	72 04		 jb	 SHORT $L234126
  000b3	8b 38		 mov	 edi, DWORD PTR [eax]
  000b5	eb 02		 jmp	 SHORT $L234127
$L234126:
  000b7	8b f8		 mov	 edi, eax
$L234127:
  000b9	03 f2		 add	 esi, edx
  000bb	8b cd		 mov	 ecx, ebp
  000bd	8b d1		 mov	 edx, ecx
  000bf	c1 e9 02	 shr	 ecx, 2
  000c2	f3 a5		 rep movsd
  000c4	8b ca		 mov	 ecx, edx
  000c6	83 e1 03	 and	 ecx, 3
  000c9	f3 a4		 rep movsb

; 602  : 			_Eos(_Num);

  000cb	83 7b 18 10	 cmp	 DWORD PTR [ebx+24], 16	; 00000010H
  000cf	89 6b 14	 mov	 DWORD PTR [ebx+20], ebp
  000d2	72 02		 jb	 SHORT $L234150
  000d4	8b 00		 mov	 eax, DWORD PTR [eax]
$L234150:
  000d6	c6 04 28 00	 mov	 BYTE PTR [eax+ebp], 0
$L234153:
  000da	5f		 pop	 edi
  000db	5e		 pop	 esi
  000dc	5d		 pop	 ebp

; 603  : 			}
; 604  : 		return (*this);

  000dd	8b c3		 mov	 eax, ebx
  000df	5b		 pop	 ebx

; 605  : 		}

  000e0	c2 0c 00	 ret	 12			; 0000000cH
?assign@?$basic_string@DU?$char_traits@D@std@@V?$allocator@D@2@@std@@QAEAAV12@ABV12@II@Z ENDP ; std::basic_string<char,std::char_traits<char>,std::allocator<char> >::assign
_TEXT	ENDS
PUBLIC	?assign@?$basic_string@DU?$char_traits@D@std@@V?$allocator@D@2@@std@@QAEAAV12@PBDI@Z ; std::basic_string<char,std::char_traits<char>,std::allocator<char> >::assign
; Function compile flags: /Ogty
;	COMDAT ?assign@?$basic_string@DU?$char_traits@D@std@@V?$allocator@D@2@@std@@QAEAAV12@PBDI@Z
_TEXT	SEGMENT
__Ptr$ = 8						; size = 4
__Num$ = 12						; size = 4
?assign@?$basic_string@DU?$char_traits@D@std@@V?$allocator@D@2@@std@@QAEAAV12@PBDI@Z PROC NEAR ; std::basic_string<char,std::char_traits<char>,std::allocator<char> >::assign, COMDAT
; _this$ = ecx

; 608  : 		{	// assign [_Ptr, _Ptr + _Num)

  00000	53		 push	 ebx
  00001	8b d9		 mov	 ebx, ecx

; 609  : 		if (_Inside(_Ptr))

  00003	8b 53 18	 mov	 edx, DWORD PTR [ebx+24]
  00006	83 fa 10	 cmp	 edx, 16			; 00000010H
  00009	56		 push	 esi
  0000a	57		 push	 edi
  0000b	72 05		 jb	 SHORT $L234180
  0000d	8b 43 04	 mov	 eax, DWORD PTR [ebx+4]
  00010	eb 03		 jmp	 SHORT $L234181
$L234180:
  00012	8d 43 04	 lea	 eax, DWORD PTR [ebx+4]
$L234181:
  00015	8b 74 24 10	 mov	 esi, DWORD PTR __Ptr$[esp+8]
  00019	3b f0		 cmp	 esi, eax
  0001b	72 34		 jb	 SHORT $L221367
  0001d	83 fa 10	 cmp	 edx, 16			; 00000010H
  00020	8d 43 04	 lea	 eax, DWORD PTR [ebx+4]
  00023	72 04		 jb	 SHORT $L234184
  00025	8b 08		 mov	 ecx, DWORD PTR [eax]
  00027	eb 02		 jmp	 SHORT $L234185
$L234184:
  00029	8b c8		 mov	 ecx, eax
$L234185:
  0002b	8b 7b 14	 mov	 edi, DWORD PTR [ebx+20]
  0002e	03 f9		 add	 edi, ecx
  00030	3b fe		 cmp	 edi, esi
  00032	76 1d		 jbe	 SHORT $L221367

; 610  : 			return (assign(*this, _Ptr - _Myptr(), _Num));	// substring

  00034	83 fa 10	 cmp	 edx, 16			; 00000010H
  00037	72 02		 jb	 SHORT $L234193
  00039	8b 00		 mov	 eax, DWORD PTR [eax]
$L234193:
  0003b	8b 4c 24 14	 mov	 ecx, DWORD PTR __Num$[esp+8]
  0003f	51		 push	 ecx
  00040	2b f0		 sub	 esi, eax
  00042	56		 push	 esi
  00043	53		 push	 ebx
  00044	8b cb		 mov	 ecx, ebx
  00046	e8 00 00 00 00	 call	 ?assign@?$basic_string@DU?$char_traits@D@std@@V?$allocator@D@2@@std@@QAEAAV12@ABV12@II@Z ; std::basic_string<char,std::char_traits<char>,std::allocator<char> >::assign
  0004b	5f		 pop	 edi
  0004c	5e		 pop	 esi
  0004d	5b		 pop	 ebx

; 618  : 		}

  0004e	c2 08 00	 ret	 8
$L221367:
  00051	55		 push	 ebp

; 611  : 
; 612  : 		if (_Grow(_Num))

  00052	8b 6c 24 18	 mov	 ebp, DWORD PTR __Num$[esp+12]
  00056	83 fd fe	 cmp	 ebp, -2			; fffffffeH
  00059	76 07		 jbe	 SHORT $L234291
  0005b	8b cb		 mov	 ecx, ebx
  0005d	e8 00 00 00 00	 call	 ?_Xlen@_String_base@std@@QBEXXZ ; std::_String_base::_Xlen
$L234291:
  00062	8b 43 18	 mov	 eax, DWORD PTR [ebx+24]
  00065	3b c5		 cmp	 eax, ebp
  00067	73 1b		 jae	 SHORT $L234292
  00069	8b 53 14	 mov	 edx, DWORD PTR [ebx+20]
  0006c	52		 push	 edx
  0006d	55		 push	 ebp
  0006e	8b cb		 mov	 ecx, ebx
  00070	e8 00 00 00 00	 call	 ?_Copy@?$basic_string@DU?$char_traits@D@std@@V?$allocator@D@2@@std@@IAEXII@Z ; std::basic_string<char,std::char_traits<char>,std::allocator<char> >::_Copy
  00075	85 ed		 test	 ebp, ebp
$L234372:
  00077	76 68		 jbe	 SHORT $L234369

; 613  : 			{	// make room and assign new stuff
; 614  : 			_Traits::copy(_Myptr(), _Ptr, _Num);

  00079	83 7b 18 10	 cmp	 DWORD PTR [ebx+24], 16	; 00000010H
  0007d	72 2f		 jb	 SHORT $L234344
  0007f	8b 7b 04	 mov	 edi, DWORD PTR [ebx+4]
  00082	eb 2d		 jmp	 SHORT $L234345

; 611  : 
; 612  : 		if (_Grow(_Num))

$L234292:
  00084	85 ed		 test	 ebp, ebp
  00086	75 ef		 jne	 SHORT $L234372
  00088	83 f8 10	 cmp	 eax, 16			; 00000010H
  0008b	89 6b 14	 mov	 DWORD PTR [ebx+20], ebp
  0008e	72 0f		 jb	 SHORT $L234335
  00090	8b 43 04	 mov	 eax, DWORD PTR [ebx+4]
  00093	5d		 pop	 ebp
  00094	5f		 pop	 edi
  00095	c6 00 00	 mov	 BYTE PTR [eax], 0
  00098	5e		 pop	 esi

; 616  : 			}
; 617  : 		return (*this);

  00099	8b c3		 mov	 eax, ebx
  0009b	5b		 pop	 ebx

; 618  : 		}

  0009c	c2 08 00	 ret	 8

; 611  : 
; 612  : 		if (_Grow(_Num))

$L234335:
  0009f	5d		 pop	 ebp
  000a0	8d 43 04	 lea	 eax, DWORD PTR [ebx+4]
  000a3	5f		 pop	 edi
  000a4	c6 00 00	 mov	 BYTE PTR [eax], 0
  000a7	5e		 pop	 esi

; 616  : 			}
; 617  : 		return (*this);

  000a8	8b c3		 mov	 eax, ebx
  000aa	5b		 pop	 ebx

; 618  : 		}

  000ab	c2 08 00	 ret	 8

; 613  : 			{	// make room and assign new stuff
; 614  : 			_Traits::copy(_Myptr(), _Ptr, _Num);

$L234344:
  000ae	8d 7b 04	 lea	 edi, DWORD PTR [ebx+4]
$L234345:
  000b1	8b cd		 mov	 ecx, ebp
  000b3	8b c1		 mov	 eax, ecx
  000b5	c1 e9 02	 shr	 ecx, 2
  000b8	f3 a5		 rep movsd
  000ba	8b c8		 mov	 ecx, eax
  000bc	83 e1 03	 and	 ecx, 3
  000bf	f3 a4		 rep movsb

; 615  : 			_Eos(_Num);

  000c1	83 7b 18 10	 cmp	 DWORD PTR [ebx+24], 16	; 00000010H
  000c5	89 6b 14	 mov	 DWORD PTR [ebx+20], ebp
  000c8	72 10		 jb	 SHORT $L234367
  000ca	8b 43 04	 mov	 eax, DWORD PTR [ebx+4]
  000cd	c6 04 28 00	 mov	 BYTE PTR [eax+ebp], 0
  000d1	5d		 pop	 ebp
  000d2	5f		 pop	 edi
  000d3	5e		 pop	 esi

; 616  : 			}
; 617  : 		return (*this);

  000d4	8b c3		 mov	 eax, ebx
  000d6	5b		 pop	 ebx

; 618  : 		}

  000d7	c2 08 00	 ret	 8

; 615  : 			_Eos(_Num);

$L234367:
  000da	8d 43 04	 lea	 eax, DWORD PTR [ebx+4]
  000dd	c6 04 28 00	 mov	 BYTE PTR [eax+ebp], 0
$L234369:
  000e1	5d		 pop	 ebp
  000e2	5f		 pop	 edi
  000e3	5e		 pop	 esi

; 616  : 			}
; 617  : 		return (*this);

  000e4	8b c3		 mov	 eax, ebx
  000e6	5b		 pop	 ebx

; 618  : 		}

  000e7	c2 08 00	 ret	 8
?assign@?$basic_string@DU?$char_traits@D@std@@V?$allocator@D@2@@std@@QAEAAV12@PBDI@Z ENDP ; std::basic_string<char,std::char_traits<char>,std::allocator<char> >::assign
_TEXT	ENDS
PUBLIC	??0CDPSock@@QAE@XZ				; CDPSock::CDPSock
PUBLIC	??_7CDPSock@@6B@				; CDPSock::`vftable'
PUBLIC	??_GCDPSock@@UAEPAXI@Z				; CDPSock::`scalar deleting destructor'
EXTRN	??0CBufferQueue@@QAE@XZ:NEAR			; CBufferQueue::CBufferQueue
EXTRN	__imp__WSACreateEvent@0:NEAR
EXTRN	??_ECDPSock@@UAEPAXI@Z:NEAR			; CDPSock::`vector deleting destructor'
EXTRN	__imp__CreateEventA@16:NEAR
;	COMDAT xdata$x
; File c:\documents and settings\test\mes documents\source\virtuos_v17\build\program\_network\mcl\include\cmclcritsec.h
xdata$x	SEGMENT
$T234474 DD	0ffffffffH
	DD	FLAT:$L234376
	DD	00H
	DD	FLAT:$L234377
$T234472 DD	019930520H
	DD	02H
	DD	FLAT:$T234474
	DD	2 DUP(00H)
	DD	2 DUP(00H)
xdata$x	ENDS
;	COMDAT ??_7CDPSock@@6B@
CONST	SEGMENT
??_7CDPSock@@6B@ DD FLAT:??_ECDPSock@@UAEPAXI@Z		; CDPSock::`vftable'
; Function compile flags: /Ogty
; File c:\documents and settings\test\mes documents\source\virtuos_v17\build\program\_network\net\src\dpsock.cpp
CONST	ENDS
;	COMDAT ??0CDPSock@@QAE@XZ
_TEXT	SEGMENT
_this$ = -16						; size = 4
__$EHRec$ = -12						; size = 12
??0CDPSock@@QAE@XZ PROC NEAR				; CDPSock::CDPSock, COMDAT
; _this$ = ecx

; 25   : {

  00000	6a ff		 push	 -1
  00002	68 00 00 00 00	 push	 __ehhandler$??0CDPSock@@QAE@XZ
  00007	64 a1 00 00 00
	00		 mov	 eax, DWORD PTR fs:__except_list
  0000d	50		 push	 eax
  0000e	64 89 25 00 00
	00 00		 mov	 DWORD PTR fs:__except_list, esp
  00015	51		 push	 ecx
  00016	53		 push	 ebx
  00017	56		 push	 esi
  00018	8b f1		 mov	 esi, ecx
  0001a	57		 push	 edi
  0001b	8d 7e 30	 lea	 edi, DWORD PTR [esi+48]
  0001e	8b cf		 mov	 ecx, edi
  00020	89 74 24 0c	 mov	 DWORD PTR _this$[esp+28], esi
  00024	c7 06 00 00 00
	00		 mov	 DWORD PTR [esi], OFFSET FLAT:??_7CDPSock@@6B@
  0002a	e8 00 00 00 00	 call	 ?_Buynode@?$list@PAXV?$allocator@PAX@std@@@std@@IAEPAU_Node@?$_List_nod@PAXV?$allocator@PAX@std@@@2@XZ ; std::list<void *,std::allocator<void *> >::_Buynode
  0002f	33 db		 xor	 ebx, ebx
  00031	89 47 04	 mov	 DWORD PTR [edi+4], eax
  00034	89 5f 08	 mov	 DWORD PTR [edi+8], ebx
  00037	8d 46 40	 lea	 eax, DWORD PTR [esi+64]
  0003a	50		 push	 eax
  0003b	89 5c 24 1c	 mov	 DWORD PTR __$EHRec$[esp+40], ebx
  0003f	c7 46 3c 00 00
	00 00		 mov	 DWORD PTR [esi+60], OFFSET FLAT:??_7CMclCritSec@@6B@
  00046	ff 15 00 00 00
	00		 call	 DWORD PTR __imp__InitializeCriticalSection@4
  0004c	8d 4e 68	 lea	 ecx, DWORD PTR [esi+104]
  0004f	c6 44 24 18 01	 mov	 BYTE PTR __$EHRec$[esp+36], 1
  00054	e8 00 00 00 00	 call	 ??0CBufferQueue@@QAE@XZ	; CBufferQueue::CBufferQueue

; 26   : 	m_fServer	= FALSE;
; 27   : 	m_pSock		= NULL;
; 28   : 	m_phCompletionPort	= NULL;
; 29   : 	m_lActiveIoWorker	= 0;
; 30   : 	m_hRecv		= CreateEvent( NULL, FALSE, FALSE, NULL );

  00059	53		 push	 ebx
  0005a	53		 push	 ebx
  0005b	53		 push	 ebx
  0005c	53		 push	 ebx
  0005d	89 9e 94 00 00
	00		 mov	 DWORD PTR [esi+148], ebx
  00063	89 5e 04	 mov	 DWORD PTR [esi+4], ebx
  00066	89 5e 58	 mov	 DWORD PTR [esi+88], ebx
  00069	89 9e 98 00 00
	00		 mov	 DWORD PTR [esi+152], ebx
  0006f	ff 15 00 00 00
	00		 call	 DWORD PTR __imp__CreateEventA@16
  00075	89 46 60	 mov	 DWORD PTR [esi+96], eax

; 31   : 	ASSERT( m_hRecv );
; 32   : 	m_hClose	= WSACreateEvent();

  00078	ff 15 00 00 00
	00		 call	 DWORD PTR __imp__WSACreateEvent@0
  0007e	89 46 5c	 mov	 DWORD PTR [esi+92], eax

; 33   : 	ASSERT( m_hClose );
; 34   : 	m_uIoWorker		= 0;

  00081	89 5e 2c	 mov	 DWORD PTR [esi+44], ebx

; 35   : 	memset( m_lpAddr, 0, sizeof(char)*16 );

  00084	33 c9		 xor	 ecx, ecx
  00086	8d 56 0a	 lea	 edx, DWORD PTR [esi+10]
  00089	89 0a		 mov	 DWORD PTR [edx], ecx
  0008b	89 4a 04	 mov	 DWORD PTR [edx+4], ecx
  0008e	89 4a 08	 mov	 DWORD PTR [edx+8], ecx
  00091	89 4a 0c	 mov	 DWORD PTR [edx+12], ecx

; 36   : 	m_pSockThreaded		= NULL;
; 37   : #ifdef __CRC
; 38   : 	m_dwReadHeaderSize	= 0;
; 39   : 	m_dwDataSizeOffset	= 0;
; 40   : #endif	// __CRC
; 41   : #ifdef __PROTOCOL0910
; 42   : 	m_hProtocolId	= (HANDLE)0;
; 43   : #endif	// __PROTOCOL0910
; 44   : }

  00094	8b 4c 24 10	 mov	 ecx, DWORD PTR __$EHRec$[esp+28]
  00098	89 5e 64	 mov	 DWORD PTR [esi+100], ebx
  0009b	5f		 pop	 edi
  0009c	8b c6		 mov	 eax, esi
  0009e	5e		 pop	 esi
  0009f	5b		 pop	 ebx
  000a0	64 89 0d 00 00
	00 00		 mov	 DWORD PTR fs:__except_list, ecx
  000a7	83 c4 10	 add	 esp, 16			; 00000010H
  000aa	c3		 ret	 0
_TEXT	ENDS
;	COMDAT text$x
text$x	SEGMENT
$L234376:
  00000	8b 4d f0	 mov	 ecx, DWORD PTR _this$[ebp]
  00003	83 c1 30	 add	 ecx, 48			; 00000030H
  00006	e9 00 00 00 00	 jmp	 ??1?$list@PAXV?$allocator@PAX@std@@@std@@QAE@XZ ; std::list<void *,std::allocator<void *> >::~list<void *,std::allocator<void *> >
$L234377:
  0000b	8b 4d f0	 mov	 ecx, DWORD PTR _this$[ebp]
  0000e	83 c1 3c	 add	 ecx, 60			; 0000003cH
  00011	e9 00 00 00 00	 jmp	 ??1CMclCritSec@@UAE@XZ	; CMclCritSec::~CMclCritSec
__ehhandler$??0CDPSock@@QAE@XZ:
  00016	b8 00 00 00 00	 mov	 eax, OFFSET FLAT:$T234472
  0001b	e9 00 00 00 00	 jmp	 ___CxxFrameHandler
text$x	ENDS
??0CDPSock@@QAE@XZ ENDP					; CDPSock::CDPSock
PUBLIC	?Close@CDPSock@@QAEHXZ				; CDPSock::Close
EXTRN	?Clear@CBufferQueue@@QAEXH@Z:NEAR		; CBufferQueue::Clear
; Function compile flags: /Ogty
;	COMDAT ?Close@CDPSock@@QAEHXZ
_TEXT	SEGMENT
?Close@CDPSock@@QAEHXZ PROC NEAR			; CDPSock::Close, COMDAT
; _this$ = ecx

; 54   : {

  00000	56		 push	 esi
  00001	8b f1		 mov	 esi, ecx

; 55   : 	CloseIoWorker();

  00003	e8 00 00 00 00	 call	 ?CloseIoWorker@CDPSock@@AAEHXZ ; CDPSock::CloseIoWorker

; 56   : #ifdef __PROTOCOL0910
; 57   : 	CLOSE_HANDLE( m_hProtocolId );
; 58   : #endif	// __PROTOCOL0910
; 59   : 	if( m_pSock )

  00008	8b 4e 04	 mov	 ecx, DWORD PTR [esi+4]
  0000b	85 c9		 test	 ecx, ecx
  0000d	74 19		 je	 SHORT $L229187

; 60   : 	{
; 61   : 		m_pSock->Close();

  0000f	8b 01		 mov	 eax, DWORD PTR [ecx]
  00011	ff 50 1c	 call	 DWORD PTR [eax+28]

; 62   : 		SAFE_DELETE( m_pSock );

  00014	8b 4e 04	 mov	 ecx, DWORD PTR [esi+4]
  00017	85 c9		 test	 ecx, ecx
  00019	74 0d		 je	 SHORT $L229187
  0001b	8b 11		 mov	 edx, DWORD PTR [ecx]
  0001d	6a 01		 push	 1
  0001f	ff 12		 call	 DWORD PTR [edx]
  00021	c7 46 04 00 00
	00 00		 mov	 DWORD PTR [esi+4], 0
$L229187:

; 63   : 	}
; 64   : 	m_lspRecvBuffer.Clear( TRUE);	// delete memory

  00028	6a 01		 push	 1
  0002a	8d 4e 68	 lea	 ecx, DWORD PTR [esi+104]
  0002d	e8 00 00 00 00	 call	 ?Clear@CBufferQueue@@QAEXH@Z ; CBufferQueue::Clear

; 65   : 	return TRUE;

  00032	b8 01 00 00 00	 mov	 eax, 1
  00037	5e		 pop	 esi

; 66   : }

  00038	c3		 ret	 0
?Close@CDPSock@@QAEHXZ ENDP				; CDPSock::Close
_TEXT	ENDS
PUBLIC	?CreateServerE@CDPSock@@QAEHW4BUFFER_TYPE@@@Z	; CDPSock::CreateServerE
EXTRN	??0CServerSockE@@QAE@W4BUFFER_TYPE@@@Z:NEAR	; CServerSockE::CServerSockE
EXTRN	?Listen@CServerSockE@@QAEHXZ:NEAR		; CServerSockE::Listen
EXTRN	?StartServer@CServerSockE@@QAEHPAVCDPSock@@@Z:NEAR ; CServerSockE::StartServer
;	COMDAT xdata$x
; File c:\documents and settings\test\mes documents\source\virtuos_v17\build\program\_network\net\include\sock.h
xdata$x	SEGMENT
$T234519 DD	0ffffffffH
	DD	FLAT:$L234499
$T234517 DD	019930520H
	DD	01H
	DD	FLAT:$T234519
	DD	2 DUP(00H)
	DD	2 DUP(00H)
; Function compile flags: /Ogty
; File c:\documents and settings\test\mes documents\source\virtuos_v17\build\program\_network\net\src\dpsock.cpp
xdata$x	ENDS
;	COMDAT ?CreateServerE@CDPSock@@QAEHW4BUFFER_TYPE@@@Z
_TEXT	SEGMENT
$T234488 = -16						; size = 4
__$EHRec$ = -12						; size = 12
_nBufferType$ = 8					; size = 4
?CreateServerE@CDPSock@@QAEHW4BUFFER_TYPE@@@Z PROC NEAR	; CDPSock::CreateServerE, COMDAT
; _this$ = ecx

; 241  : {

  00000	6a ff		 push	 -1
  00002	68 00 00 00 00	 push	 __ehhandler$?CreateServerE@CDPSock@@QAEHW4BUFFER_TYPE@@@Z
  00007	64 a1 00 00 00
	00		 mov	 eax, DWORD PTR fs:__except_list
  0000d	50		 push	 eax
  0000e	64 89 25 00 00
	00 00		 mov	 DWORD PTR fs:__except_list, esp
  00015	51		 push	 ecx
  00016	56		 push	 esi
  00017	57		 push	 edi
  00018	8b f1		 mov	 esi, ecx

; 242  : 	Close();

  0001a	e8 00 00 00 00	 call	 ?CloseIoWorker@CDPSock@@AAEHXZ ; CDPSock::CloseIoWorker
  0001f	8b 4e 04	 mov	 ecx, DWORD PTR [esi+4]
  00022	33 ff		 xor	 edi, edi
  00024	3b cf		 cmp	 ecx, edi
  00026	74 15		 je	 SHORT $L234512
  00028	8b 01		 mov	 eax, DWORD PTR [ecx]
  0002a	ff 50 1c	 call	 DWORD PTR [eax+28]
  0002d	8b 4e 04	 mov	 ecx, DWORD PTR [esi+4]
  00030	3b cf		 cmp	 ecx, edi
  00032	74 09		 je	 SHORT $L234512
  00034	8b 11		 mov	 edx, DWORD PTR [ecx]
  00036	6a 01		 push	 1
  00038	ff 12		 call	 DWORD PTR [edx]
  0003a	89 7e 04	 mov	 DWORD PTR [esi+4], edi
$L234512:
  0003d	6a 01		 push	 1
  0003f	8d 4e 68	 lea	 ecx, DWORD PTR [esi+104]
  00042	e8 00 00 00 00	 call	 ?Clear@CBufferQueue@@QAEXH@Z ; CBufferQueue::Clear

; 243  : 
; 244  : #ifdef __CRC
; 245  : 	if( CSock::crcRead & dwcrc )
; 246  : 	{
; 247  : 		m_dwReadHeaderSize	= HEADERSIZE13;
; 248  : 		m_dwDataSizeOffset	= sizeof(char) + sizeof(DWORD);	
; 249  : 	}
; 250  : 	else
; 251  : 	{
; 252  : 		m_dwReadHeaderSize	= HEADERSIZE5;
; 253  : 		m_dwDataSizeOffset	= sizeof(char);
; 254  : 	}
; 255  : 
; 256  : 	CServerSockE* pSock		= new CServerSockE( dwcrc );
; 257  : #else	// __CRC
; 258  : 	CServerSockE* pSock		= new CServerSockE( nBufferType );

  00047	6a 50		 push	 80			; 00000050H
  00049	e8 00 00 00 00	 call	 ??2@YAPAXI@Z		; operator new
  0004e	83 c4 04	 add	 esp, 4
  00051	89 44 24 08	 mov	 DWORD PTR $T234488[esp+24], eax
  00055	3b c7		 cmp	 eax, edi
  00057	89 7c 24 14	 mov	 DWORD PTR __$EHRec$[esp+32], edi
  0005b	74 0e		 je	 SHORT $L234490
  0005d	8b 4c 24 1c	 mov	 ecx, DWORD PTR _nBufferType$[esp+20]
  00061	51		 push	 ecx
  00062	8b c8		 mov	 ecx, eax
  00064	e8 00 00 00 00	 call	 ??0CServerSockE@@QAE@W4BUFFER_TYPE@@@Z ; CServerSockE::CServerSockE
  00069	8b f8		 mov	 edi, eax
$L234490:

; 259  : #endif	// __CRC
; 260  : 	if( !pSock->Create( m_uPort ) )

  0006b	8b 17		 mov	 edx, DWORD PTR [edi]
  0006d	33 c0		 xor	 eax, eax
  0006f	66 8b 46 08	 mov	 ax, WORD PTR [esi+8]
  00073	6a 01		 push	 1
  00075	8b cf		 mov	 ecx, edi
  00077	c7 44 24 18 ff
	ff ff ff	 mov	 DWORD PTR __$EHRec$[esp+36], -1
  0007f	50		 push	 eax
  00080	ff 52 04	 call	 DWORD PTR [edx+4]
  00083	85 c0		 test	 eax, eax

; 261  : 	{
; 262  : 		SAFE_DELETE( pSock );

  00085	8b cf		 mov	 ecx, edi
  00087	75 1b		 jne	 SHORT $L229408
  00089	8b 17		 mov	 edx, DWORD PTR [edi]
  0008b	6a 01		 push	 1
  0008d	ff 12		 call	 DWORD PTR [edx]
  0008f	5f		 pop	 edi

; 263  : 		return FALSE;

  00090	33 c0		 xor	 eax, eax
  00092	5e		 pop	 esi

; 270  : 	}
; 271  : 	pSock->SetID( DPID_SERVERPLAYER );
; 272  : 	m_pSock		= pSock;
; 273  : 	m_fServer	= TRUE;
; 274  : 
; 275  : 	return TRUE;
; 276  : }

  00093	8b 4c 24 04	 mov	 ecx, DWORD PTR __$EHRec$[esp+16]
  00097	64 89 0d 00 00
	00 00		 mov	 DWORD PTR fs:__except_list, ecx
  0009e	83 c4 10	 add	 esp, 16			; 00000010H
  000a1	c2 04 00	 ret	 4
$L229408:

; 264  : 	}
; 265  : 	pSock->StartServer( this );

  000a4	56		 push	 esi
  000a5	e8 00 00 00 00	 call	 ?StartServer@CServerSockE@@QAEHPAVCDPSock@@@Z ; CServerSockE::StartServer

; 266  : 	if( !pSock->Listen() )

  000aa	8b cf		 mov	 ecx, edi
  000ac	e8 00 00 00 00	 call	 ?Listen@CServerSockE@@QAEHXZ ; CServerSockE::Listen
  000b1	85 c0		 test	 eax, eax
  000b3	75 1d		 jne	 SHORT $L229413

; 267  : 	{
; 268  : 		SAFE_DELETE( pSock );

  000b5	8b 07		 mov	 eax, DWORD PTR [edi]
  000b7	6a 01		 push	 1
  000b9	8b cf		 mov	 ecx, edi
  000bb	ff 10		 call	 DWORD PTR [eax]
  000bd	5f		 pop	 edi

; 269  : 		return FALSE;

  000be	33 c0		 xor	 eax, eax
  000c0	5e		 pop	 esi

; 270  : 	}
; 271  : 	pSock->SetID( DPID_SERVERPLAYER );
; 272  : 	m_pSock		= pSock;
; 273  : 	m_fServer	= TRUE;
; 274  : 
; 275  : 	return TRUE;
; 276  : }

  000c1	8b 4c 24 04	 mov	 ecx, DWORD PTR __$EHRec$[esp+16]
  000c5	64 89 0d 00 00
	00 00		 mov	 DWORD PTR fs:__except_list, ecx
  000cc	83 c4 10	 add	 esp, 16			; 00000010H
  000cf	c2 04 00	 ret	 4
$L229413:
  000d2	8b 4c 24 0c	 mov	 ecx, DWORD PTR __$EHRec$[esp+24]
  000d6	c7 47 08 01 00
	00 00		 mov	 DWORD PTR [edi+8], 1
  000dd	89 7e 04	 mov	 DWORD PTR [esi+4], edi
  000e0	c7 86 94 00 00
	00 01 00 00 00	 mov	 DWORD PTR [esi+148], 1
  000ea	5f		 pop	 edi
  000eb	b8 01 00 00 00	 mov	 eax, 1
  000f0	5e		 pop	 esi
  000f1	64 89 0d 00 00
	00 00		 mov	 DWORD PTR fs:__except_list, ecx
  000f8	83 c4 10	 add	 esp, 16			; 00000010H
  000fb	c2 04 00	 ret	 4
_TEXT	ENDS
;	COMDAT text$x
text$x	SEGMENT
$L234499:
  00000	8b 45 f0	 mov	 eax, DWORD PTR $T234488[ebp]
  00003	50		 push	 eax
  00004	e8 00 00 00 00	 call	 ??3@YAXPAX@Z		; operator delete
  00009	59		 pop	 ecx
  0000a	c3		 ret	 0
__ehhandler$?CreateServerE@CDPSock@@QAEHW4BUFFER_TYPE@@@Z:
  0000b	b8 00 00 00 00	 mov	 eax, OFFSET FLAT:$T234517
  00010	e9 00 00 00 00	 jmp	 ___CxxFrameHandler
text$x	ENDS
?CreateServerE@CDPSock@@QAEHW4BUFFER_TYPE@@@Z ENDP	; CDPSock::CreateServerE
PUBLIC	??0?$basic_string@DU?$char_traits@D@std@@V?$allocator@D@2@@std@@QAE@ABV01@@Z ; std::basic_string<char,std::char_traits<char>,std::allocator<char> >::basic_string<char,std::char_traits<char>,std::allocator<char> >
; Function compile flags: /Ogty
; File c:\program files\microsoft visual studio .net 2003\vc7\include\xstring
;	COMDAT ??0?$basic_string@DU?$char_traits@D@std@@V?$allocator@D@2@@std@@QAE@ABV01@@Z
_TEXT	SEGMENT
__Right$ = 8						; size = 4
??0?$basic_string@DU?$char_traits@D@std@@V?$allocator@D@2@@std@@QAE@ABV01@@Z PROC NEAR ; std::basic_string<char,std::char_traits<char>,std::allocator<char> >::basic_string<char,std::char_traits<char>,std::allocator<char> >, COMDAT
; _this$ = ecx

; 323  : 		{	// construct by copying _Right

  00000	56		 push	 esi

; 324  : 		_Tidy();

  00001	33 c0		 xor	 eax, eax
  00003	8b f1		 mov	 esi, ecx

; 325  : 		assign(_Right, 0, npos);

  00005	6a ff		 push	 -1
  00007	89 46 14	 mov	 DWORD PTR [esi+20], eax
  0000a	c7 46 18 0f 00
	00 00		 mov	 DWORD PTR [esi+24], 15	; 0000000fH
  00011	50		 push	 eax
  00012	88 46 04	 mov	 BYTE PTR [esi+4], al
  00015	8b 44 24 10	 mov	 eax, DWORD PTR __Right$[esp+8]
  00019	50		 push	 eax
  0001a	e8 00 00 00 00	 call	 ?assign@?$basic_string@DU?$char_traits@D@std@@V?$allocator@D@2@@std@@QAEAAV12@ABV12@II@Z ; std::basic_string<char,std::char_traits<char>,std::allocator<char> >::assign

; 326  : 		}

  0001f	8b c6		 mov	 eax, esi
  00021	5e		 pop	 esi
  00022	c2 04 00	 ret	 4
??0?$basic_string@DU?$char_traits@D@std@@V?$allocator@D@2@@std@@QAE@ABV01@@Z ENDP ; std::basic_string<char,std::char_traits<char>,std::allocator<char> >::basic_string<char,std::char_traits<char>,std::allocator<char> >
_TEXT	ENDS
PUBLIC	?assign@?$basic_string@DU?$char_traits@D@std@@V?$allocator@D@2@@std@@QAEAAV12@PBD@Z ; std::basic_string<char,std::char_traits<char>,std::allocator<char> >::assign
; Function compile flags: /Ogty
;	COMDAT ?assign@?$basic_string@DU?$char_traits@D@std@@V?$allocator@D@2@@std@@QAEAAV12@PBD@Z
_TEXT	SEGMENT
__Ptr$ = 8						; size = 4
?assign@?$basic_string@DU?$char_traits@D@std@@V?$allocator@D@2@@std@@QAEAAV12@PBD@Z PROC NEAR ; std::basic_string<char,std::char_traits<char>,std::allocator<char> >::assign, COMDAT
; _this$ = ecx

; 621  : 		{	// assign [_Ptr, <null>)

  00000	56		 push	 esi

; 622  : 		return (assign(_Ptr, _Traits::length(_Ptr)));

  00001	8b 74 24 08	 mov	 esi, DWORD PTR __Ptr$[esp]
  00005	8b c6		 mov	 eax, esi
  00007	57		 push	 edi
  00008	8d 78 01	 lea	 edi, DWORD PTR [eax+1]
  0000b	eb 03 8d 49 00	 npad	 5
$L234595:
  00010	8a 10		 mov	 dl, BYTE PTR [eax]
  00012	40		 inc	 eax
  00013	84 d2		 test	 dl, dl
  00015	75 f9		 jne	 SHORT $L234595
  00017	2b c7		 sub	 eax, edi
  00019	50		 push	 eax
  0001a	56		 push	 esi
  0001b	e8 00 00 00 00	 call	 ?assign@?$basic_string@DU?$char_traits@D@std@@V?$allocator@D@2@@std@@QAEAAV12@PBDI@Z ; std::basic_string<char,std::char_traits<char>,std::allocator<char> >::assign
  00020	5f		 pop	 edi
  00021	5e		 pop	 esi

; 623  : 		}

  00022	c2 04 00	 ret	 4
?assign@?$basic_string@DU?$char_traits@D@std@@V?$allocator@D@2@@std@@QAEAAV12@PBD@Z ENDP ; std::basic_string<char,std::char_traits<char>,std::allocator<char> >::assign
_TEXT	ENDS
PUBLIC	??1CDPSock@@UAE@XZ				; CDPSock::~CDPSock
EXTRN	??1CBufferQueue@@UAE@XZ:NEAR			; CBufferQueue::~CBufferQueue
EXTRN	__imp__WSACloseEvent@4:NEAR
;	COMDAT xdata$x
; File c:\program files\microsoft visual studio .net 2003\vc7\include\xmemory
xdata$x	SEGMENT
$T234655 DD	0ffffffffH
	DD	FLAT:$L234599
	DD	00H
	DD	FLAT:$L234600
	DD	01H
	DD	FLAT:$L234601
$T234652 DD	019930520H
	DD	03H
	DD	FLAT:$T234655
	DD	2 DUP(00H)
	DD	2 DUP(00H)
; Function compile flags: /Ogty
; File c:\documents and settings\test\mes documents\source\virtuos_v17\build\program\_network\net\src\dpsock.cpp
xdata$x	ENDS
;	COMDAT ??1CDPSock@@UAE@XZ
_TEXT	SEGMENT
_this$ = -16						; size = 4
__$EHRec$ = -12						; size = 12
??1CDPSock@@UAE@XZ PROC NEAR				; CDPSock::~CDPSock, COMDAT
; _this$ = ecx

; 47   : {

  00000	6a ff		 push	 -1
  00002	68 00 00 00 00	 push	 __ehhandler$??1CDPSock@@UAE@XZ
  00007	64 a1 00 00 00
	00		 mov	 eax, DWORD PTR fs:__except_list
  0000d	50		 push	 eax
  0000e	64 89 25 00 00
	00 00		 mov	 DWORD PTR fs:__except_list, esp
  00015	51		 push	 ecx
  00016	53		 push	 ebx
  00017	56		 push	 esi
  00018	8b f1		 mov	 esi, ecx
  0001a	57		 push	 edi
  0001b	89 74 24 0c	 mov	 DWORD PTR _this$[esp+28], esi
  0001f	c7 06 00 00 00
	00		 mov	 DWORD PTR [esi], OFFSET FLAT:??_7CDPSock@@6B@

; 48   : 	CLOSE_HANDLE( m_hRecv );

  00025	8b 46 60	 mov	 eax, DWORD PTR [esi+96]
  00028	33 db		 xor	 ebx, ebx
  0002a	3b c3		 cmp	 eax, ebx
  0002c	c7 44 24 18 02
	00 00 00	 mov	 DWORD PTR __$EHRec$[esp+36], 2
  00034	74 0a		 je	 SHORT $L229177
  00036	50		 push	 eax
  00037	ff 15 00 00 00
	00		 call	 DWORD PTR __imp__CloseHandle@4
  0003d	89 5e 60	 mov	 DWORD PTR [esi+96], ebx
$L229177:

; 49   : 	CLOSE_WSAEVENT( m_hClose );

  00040	8b 46 5c	 mov	 eax, DWORD PTR [esi+92]
  00043	3b c3		 cmp	 eax, ebx
  00045	74 0a		 je	 SHORT $L229180
  00047	50		 push	 eax
  00048	ff 15 00 00 00
	00		 call	 DWORD PTR __imp__WSACloseEvent@4
  0004e	89 5e 5c	 mov	 DWORD PTR [esi+92], ebx
$L229180:

; 50   : 	Close();

  00051	8b ce		 mov	 ecx, esi
  00053	e8 00 00 00 00	 call	 ?CloseIoWorker@CDPSock@@AAEHXZ ; CDPSock::CloseIoWorker
  00058	8b 4e 04	 mov	 ecx, DWORD PTR [esi+4]
  0005b	3b cb		 cmp	 ecx, ebx
  0005d	74 15		 je	 SHORT $L234653
  0005f	8b 01		 mov	 eax, DWORD PTR [ecx]
  00061	ff 50 1c	 call	 DWORD PTR [eax+28]
  00064	8b 4e 04	 mov	 ecx, DWORD PTR [esi+4]
  00067	3b cb		 cmp	 ecx, ebx
  00069	74 09		 je	 SHORT $L234653
  0006b	8b 11		 mov	 edx, DWORD PTR [ecx]
  0006d	6a 01		 push	 1
  0006f	ff 12		 call	 DWORD PTR [edx]
  00071	89 5e 04	 mov	 DWORD PTR [esi+4], ebx
$L234653:
  00074	8d 7e 68	 lea	 edi, DWORD PTR [esi+104]
  00077	6a 01		 push	 1
  00079	8b cf		 mov	 ecx, edi
  0007b	e8 00 00 00 00	 call	 ?Clear@CBufferQueue@@QAEXH@Z ; CBufferQueue::Clear

; 51   : }

  00080	8b cf		 mov	 ecx, edi
  00082	c6 44 24 18 01	 mov	 BYTE PTR __$EHRec$[esp+36], 1
  00087	e8 00 00 00 00	 call	 ??1CBufferQueue@@UAE@XZ	; CBufferQueue::~CBufferQueue
  0008c	8d 46 40	 lea	 eax, DWORD PTR [esi+64]
  0008f	50		 push	 eax
  00090	c7 46 3c 00 00
	00 00		 mov	 DWORD PTR [esi+60], OFFSET FLAT:??_7CMclCritSec@@6B@
  00097	ff 15 00 00 00
	00		 call	 DWORD PTR __imp__DeleteCriticalSection@4
  0009d	83 c6 30	 add	 esi, 48			; 00000030H
  000a0	8b ce		 mov	 ecx, esi
  000a2	e8 00 00 00 00	 call	 ?clear@?$list@PAXV?$allocator@PAX@std@@@std@@QAEXXZ ; std::list<void *,std::allocator<void *> >::clear
  000a7	8b 4e 04	 mov	 ecx, DWORD PTR [esi+4]
  000aa	51		 push	 ecx
  000ab	e8 00 00 00 00	 call	 ??3@YAXPAX@Z		; operator delete
  000b0	8b 4c 24 14	 mov	 ecx, DWORD PTR __$EHRec$[esp+32]
  000b4	83 c4 04	 add	 esp, 4
  000b7	89 5e 04	 mov	 DWORD PTR [esi+4], ebx
  000ba	5f		 pop	 edi
  000bb	5e		 pop	 esi
  000bc	5b		 pop	 ebx
  000bd	64 89 0d 00 00
	00 00		 mov	 DWORD PTR fs:__except_list, ecx
  000c4	83 c4 10	 add	 esp, 16			; 00000010H
  000c7	c3		 ret	 0
_TEXT	ENDS
;	COMDAT text$x
text$x	SEGMENT
$L234599:
  00000	8b 4d f0	 mov	 ecx, DWORD PTR _this$[ebp]
  00003	83 c1 30	 add	 ecx, 48			; 00000030H
  00006	e9 00 00 00 00	 jmp	 ??1?$list@PAXV?$allocator@PAX@std@@@std@@QAE@XZ ; std::list<void *,std::allocator<void *> >::~list<void *,std::allocator<void *> >
$L234600:
  0000b	8b 4d f0	 mov	 ecx, DWORD PTR _this$[ebp]
  0000e	83 c1 3c	 add	 ecx, 60			; 0000003cH
  00011	e9 00 00 00 00	 jmp	 ??1CMclCritSec@@UAE@XZ	; CMclCritSec::~CMclCritSec
$L234601:
  00016	8b 4d f0	 mov	 ecx, DWORD PTR _this$[ebp]
  00019	83 c1 68	 add	 ecx, 104		; 00000068H
  0001c	e9 00 00 00 00	 jmp	 ??1CBufferQueue@@UAE@XZ	; CBufferQueue::~CBufferQueue
__ehhandler$??1CDPSock@@UAE@XZ:
  00021	b8 00 00 00 00	 mov	 eax, OFFSET FLAT:$T234652
  00026	e9 00 00 00 00	 jmp	 ___CxxFrameHandler
text$x	ENDS
??1CDPSock@@UAE@XZ ENDP					; CDPSock::~CDPSock
PUBLIC	??0logic_error@std@@QAE@ABV?$basic_string@DU?$char_traits@D@std@@V?$allocator@D@2@@1@@Z ; std::logic_error::logic_error
EXTRN	??0exception@@QAE@XZ:NEAR			; exception::exception
;	COMDAT xdata$x
; File c:\program files\microsoft visual studio .net 2003\vc7\include\iosfwd
xdata$x	SEGMENT
$T234761 DD	0ffffffffH
	DD	FLAT:$L234661
$T234759 DD	019930520H
	DD	01H
	DD	FLAT:$T234761
	DD	2 DUP(00H)
	DD	2 DUP(00H)
; Function compile flags: /Ogty
; File c:\program files\microsoft visual studio .net 2003\vc7\include\stdexcept
xdata$x	ENDS
;	COMDAT ??0logic_error@std@@QAE@ABV?$basic_string@DU?$char_traits@D@std@@V?$allocator@D@2@@1@@Z
_TEXT	SEGMENT
_this$ = -16						; size = 4
__$EHRec$ = -12						; size = 12
__Message$ = 8						; size = 4
??0logic_error@std@@QAE@ABV?$basic_string@DU?$char_traits@D@std@@V?$allocator@D@2@@1@@Z PROC NEAR ; std::logic_error::logic_error, COMDAT
; _this$ = ecx

; 19   : 		{	// construct from message string

  00000	6a ff		 push	 -1
  00002	68 00 00 00 00	 push	 __ehhandler$??0logic_error@std@@QAE@ABV?$basic_string@DU?$char_traits@D@std@@V?$allocator@D@2@@1@@Z
  00007	64 a1 00 00 00
	00		 mov	 eax, DWORD PTR fs:__except_list
  0000d	50		 push	 eax
  0000e	64 89 25 00 00
	00 00		 mov	 DWORD PTR fs:__except_list, esp
  00015	51		 push	 ecx
  00016	56		 push	 esi
  00017	8b f1		 mov	 esi, ecx
  00019	89 74 24 04	 mov	 DWORD PTR _this$[esp+20], esi
  0001d	e8 00 00 00 00	 call	 ??0exception@@QAE@XZ	; exception::exception
  00022	33 c0		 xor	 eax, eax
  00024	8d 4e 0c	 lea	 ecx, DWORD PTR [esi+12]
  00027	c7 06 00 00 00
	00		 mov	 DWORD PTR [esi], OFFSET FLAT:??_7logic_error@std@@6B@
  0002d	6a ff		 push	 -1
  0002f	89 41 14	 mov	 DWORD PTR [ecx+20], eax
  00032	c7 41 18 0f 00
	00 00		 mov	 DWORD PTR [ecx+24], 15	; 0000000fH
  00039	50		 push	 eax
  0003a	89 44 24 18	 mov	 DWORD PTR __$EHRec$[esp+36], eax
  0003e	88 41 04	 mov	 BYTE PTR [ecx+4], al
  00041	8b 44 24 20	 mov	 eax, DWORD PTR __Message$[esp+24]
  00045	50		 push	 eax
  00046	e8 00 00 00 00	 call	 ?assign@?$basic_string@DU?$char_traits@D@std@@V?$allocator@D@2@@std@@QAEAAV12@ABV12@II@Z ; std::basic_string<char,std::char_traits<char>,std::allocator<char> >::assign

; 20   : 		}

  0004b	8b 4c 24 08	 mov	 ecx, DWORD PTR __$EHRec$[esp+20]
  0004f	8b c6		 mov	 eax, esi
  00051	5e		 pop	 esi
  00052	64 89 0d 00 00
	00 00		 mov	 DWORD PTR fs:__except_list, ecx
  00059	83 c4 10	 add	 esp, 16			; 00000010H
  0005c	c2 04 00	 ret	 4
_TEXT	ENDS
;	COMDAT text$x
text$x	SEGMENT
$L234661:
  00000	8b 4d f0	 mov	 ecx, DWORD PTR _this$[ebp]
  00003	e9 00 00 00 00	 jmp	 ??1exception@@UAE@XZ	; exception::~exception
__ehhandler$??0logic_error@std@@QAE@ABV?$basic_string@DU?$char_traits@D@std@@V?$allocator@D@2@@1@@Z:
  00008	b8 00 00 00 00	 mov	 eax, OFFSET FLAT:$T234759
  0000d	e9 00 00 00 00	 jmp	 ___CxxFrameHandler
text$x	ENDS
??0logic_error@std@@QAE@ABV?$basic_string@DU?$char_traits@D@std@@V?$allocator@D@2@@1@@Z ENDP ; std::logic_error::logic_error
PUBLIC	??0length_error@std@@QAE@ABV?$basic_string@DU?$char_traits@D@std@@V?$allocator@D@2@@1@@Z ; std::length_error::length_error
PUBLIC	??_7length_error@std@@6B@			; std::length_error::`vftable'
PUBLIC	??_Glength_error@std@@UAEPAXI@Z			; std::length_error::`scalar deleting destructor'
EXTRN	??_Elength_error@std@@UAEPAXI@Z:NEAR		; std::length_error::`vector deleting destructor'
;	COMDAT ??_7length_error@std@@6B@
CONST	SEGMENT
??_7length_error@std@@6B@ DD FLAT:??_Elength_error@std@@UAEPAXI@Z ; std::length_error::`vftable'
	DD	FLAT:?what@logic_error@std@@UBEPBDXZ
; Function compile flags: /Ogty
CONST	ENDS
;	COMDAT ??0length_error@std@@QAE@ABV?$basic_string@DU?$char_traits@D@std@@V?$allocator@D@2@@1@@Z
_TEXT	SEGMENT
__Message$ = 8						; size = 4
??0length_error@std@@QAE@ABV?$basic_string@DU?$char_traits@D@std@@V?$allocator@D@2@@1@@Z PROC NEAR ; std::length_error::length_error, COMDAT
; _this$ = ecx

; 95   : 		{	// construct from message string

  00000	8b 44 24 04	 mov	 eax, DWORD PTR __Message$[esp-4]
  00004	56		 push	 esi
  00005	50		 push	 eax
  00006	8b f1		 mov	 esi, ecx
  00008	e8 00 00 00 00	 call	 ??0logic_error@std@@QAE@ABV?$basic_string@DU?$char_traits@D@std@@V?$allocator@D@2@@1@@Z ; std::logic_error::logic_error
  0000d	c7 06 00 00 00
	00		 mov	 DWORD PTR [esi], OFFSET FLAT:??_7length_error@std@@6B@

; 96   : 		}

  00013	8b c6		 mov	 eax, esi
  00015	5e		 pop	 esi
  00016	c2 04 00	 ret	 4
??0length_error@std@@QAE@ABV?$basic_string@DU?$char_traits@D@std@@V?$allocator@D@2@@1@@Z ENDP ; std::length_error::length_error
_TEXT	ENDS
PUBLIC	??1length_error@std@@UAE@XZ			; std::length_error::~length_error
; Function compile flags: /Ogty
;	COMDAT ??_Glength_error@std@@UAEPAXI@Z
_TEXT	SEGMENT
___flags$ = 8						; size = 4
??_Glength_error@std@@UAEPAXI@Z PROC NEAR		; std::length_error::`scalar deleting destructor', COMDAT
; _this$ = ecx
  00000	56		 push	 esi
  00001	8b f1		 mov	 esi, ecx
  00003	e8 00 00 00 00	 call	 ??1length_error@std@@UAE@XZ ; std::length_error::~length_error
  00008	f6 44 24 08 01	 test	 BYTE PTR ___flags$[esp], 1
  0000d	74 09		 je	 SHORT $L234771
  0000f	56		 push	 esi
  00010	e8 00 00 00 00	 call	 ??3@YAXPAX@Z		; operator delete
  00015	83 c4 04	 add	 esp, 4
$L234771:
  00018	8b c6		 mov	 eax, esi
  0001a	5e		 pop	 esi
  0001b	c2 04 00	 ret	 4
??_Glength_error@std@@UAEPAXI@Z ENDP			; std::length_error::`scalar deleting destructor'
; Function compile flags: /Ogty
_TEXT	ENDS
;	COMDAT ??1length_error@std@@UAE@XZ
_TEXT	SEGMENT
??1length_error@std@@UAE@XZ PROC NEAR			; std::length_error::~length_error, COMDAT
; _this$ = ecx

; 99   : 		{}	// destroy the object

  00000	56		 push	 esi
  00001	8b f1		 mov	 esi, ecx
  00003	c7 06 00 00 00
	00		 mov	 DWORD PTR [esi], OFFSET FLAT:??_7logic_error@std@@6B@
  00009	83 7e 24 10	 cmp	 DWORD PTR [esi+36], 16	; 00000010H
  0000d	72 0c		 jb	 SHORT $L234858
  0000f	8b 46 10	 mov	 eax, DWORD PTR [esi+16]
  00012	50		 push	 eax
  00013	e8 00 00 00 00	 call	 ??3@YAXPAX@Z		; operator delete
  00018	83 c4 04	 add	 esp, 4
$L234858:
  0001b	33 c0		 xor	 eax, eax
  0001d	c7 46 24 0f 00
	00 00		 mov	 DWORD PTR [esi+36], 15	; 0000000fH
  00024	89 46 20	 mov	 DWORD PTR [esi+32], eax
  00027	88 46 10	 mov	 BYTE PTR [esi+16], al
  0002a	8b ce		 mov	 ecx, esi
  0002c	5e		 pop	 esi
  0002d	e9 00 00 00 00	 jmp	 ??1exception@@UAE@XZ	; exception::~exception
??1length_error@std@@UAE@XZ ENDP			; std::length_error::~length_error
_TEXT	ENDS
PUBLIC	??0?$basic_string@DU?$char_traits@D@std@@V?$allocator@D@2@@std@@QAE@PBD@Z ; std::basic_string<char,std::char_traits<char>,std::allocator<char> >::basic_string<char,std::char_traits<char>,std::allocator<char> >
; Function compile flags: /Ogty
; File c:\program files\microsoft visual studio .net 2003\vc7\include\xstring
;	COMDAT ??0?$basic_string@DU?$char_traits@D@std@@V?$allocator@D@2@@std@@QAE@PBD@Z
_TEXT	SEGMENT
__Ptr$ = 8						; size = 4
??0?$basic_string@DU?$char_traits@D@std@@V?$allocator@D@2@@std@@QAE@PBD@Z PROC NEAR ; std::basic_string<char,std::char_traits<char>,std::allocator<char> >::basic_string<char,std::char_traits<char>,std::allocator<char> >, COMDAT
; _this$ = ecx

; 361  : 		_Tidy();
; 362  : 		assign(_Ptr);

  00000	8b 54 24 04	 mov	 edx, DWORD PTR __Ptr$[esp-4]
  00004	56		 push	 esi
  00005	8b f1		 mov	 esi, ecx
  00007	8b c2		 mov	 eax, edx
  00009	57		 push	 edi
  0000a	c7 46 18 0f 00
	00 00		 mov	 DWORD PTR [esi+24], 15	; 0000000fH
  00011	c7 46 14 00 00
	00 00		 mov	 DWORD PTR [esi+20], 0
  00018	c6 46 04 00	 mov	 BYTE PTR [esi+4], 0
  0001c	8d 78 01	 lea	 edi, DWORD PTR [eax+1]
  0001f	90		 npad	 1
$L234953:
  00020	8a 08		 mov	 cl, BYTE PTR [eax]
  00022	40		 inc	 eax
  00023	84 c9		 test	 cl, cl
  00025	75 f9		 jne	 SHORT $L234953
  00027	2b c7		 sub	 eax, edi
  00029	50		 push	 eax
  0002a	52		 push	 edx
  0002b	8b ce		 mov	 ecx, esi
  0002d	e8 00 00 00 00	 call	 ?assign@?$basic_string@DU?$char_traits@D@std@@V?$allocator@D@2@@std@@QAEAAV12@PBDI@Z ; std::basic_string<char,std::char_traits<char>,std::allocator<char> >::assign
  00032	5f		 pop	 edi

; 363  : 		}

  00033	8b c6		 mov	 eax, esi
  00035	5e		 pop	 esi
  00036	c2 04 00	 ret	 4
??0?$basic_string@DU?$char_traits@D@std@@V?$allocator@D@2@@std@@QAE@PBD@Z ENDP ; std::basic_string<char,std::char_traits<char>,std::allocator<char> >::basic_string<char,std::char_traits<char>,std::allocator<char> >
; Function compile flags: /Ogty
_TEXT	ENDS
;	COMDAT ??_GCDPSock@@UAEPAXI@Z
_TEXT	SEGMENT
___flags$ = 8						; size = 4
??_GCDPSock@@UAEPAXI@Z PROC NEAR			; CDPSock::`scalar deleting destructor', COMDAT
; _this$ = ecx
  00000	56		 push	 esi
  00001	8b f1		 mov	 esi, ecx
  00003	e8 00 00 00 00	 call	 ??1CDPSock@@UAE@XZ	; CDPSock::~CDPSock
  00008	f6 44 24 08 01	 test	 BYTE PTR ___flags$[esp], 1
  0000d	74 09		 je	 SHORT $L234957
  0000f	56		 push	 esi
  00010	e8 00 00 00 00	 call	 ??3@YAXPAX@Z		; operator delete
  00015	83 c4 04	 add	 esp, 4
$L234957:
  00018	8b c6		 mov	 eax, esi
  0001a	5e		 pop	 esi
  0001b	c2 04 00	 ret	 4
??_GCDPSock@@UAEPAXI@Z ENDP				; CDPSock::`scalar deleting destructor'
_TEXT	ENDS
PUBLIC	__TI3?AVlength_error@std@@
PUBLIC	__CTA3?AVlength_error@std@@
PUBLIC	??_R0?AVlength_error@std@@@8			; std::length_error `RTTI Type Descriptor'
PUBLIC	__CT??_R0?AVlength_error@std@@@8??0length_error@std@@QAE@ABV01@@Z40
PUBLIC	??_R0?AVlogic_error@std@@@8			; std::logic_error `RTTI Type Descriptor'
PUBLIC	__CT??_R0?AVlogic_error@std@@@8??0logic_error@std@@QAE@ABV01@@Z40
PUBLIC	??_R0?AVexception@@@8				; exception `RTTI Type Descriptor'
PUBLIC	__CT??_R0?AVexception@@@8??0exception@@QAE@ABV0@@Z12
PUBLIC	?_Incsize@?$list@PAXV?$allocator@PAX@std@@@std@@IAEXI@Z ; std::list<void *,std::allocator<void *> >::_Incsize
PUBLIC	??_C@_0BB@MOGOBHAF@list?$DMT?$DO?5too?5long?$AA@ ; `string'
PUBLIC	??0logic_error@std@@QAE@ABV01@@Z		; std::logic_error::logic_error
PUBLIC	??0length_error@std@@QAE@ABV01@@Z		; std::length_error::length_error
EXTRN	??0exception@@QAE@ABV0@@Z:NEAR			; exception::exception
EXTRN	??_7type_info@@6B@:DWORD			; type_info::`vftable'
;	COMDAT xdata$x
; File c:\program files\microsoft visual studio .net 2003\vc7\include\stdexcept
xdata$x	SEGMENT
$T235094 DD	0ffffffffH
	DD	FLAT:$L234963
$T235091 DD	019930520H
	DD	01H
	DD	FLAT:$T235094
	DD	2 DUP(00H)
	DD	2 DUP(00H)
xdata$x	ENDS
;	COMDAT ??_C@_0BB@MOGOBHAF@list?$DMT?$DO?5too?5long?$AA@
CONST	SEGMENT
??_C@_0BB@MOGOBHAF@list?$DMT?$DO?5too?5long?$AA@ DB 'list<T> too long', 00H ; `string'
CONST	ENDS
;	COMDAT __TI3?AVlength_error@std@@
xdata$x	SEGMENT
__TI3?AVlength_error@std@@ DD 00H
	DD	FLAT:??1length_error@std@@UAE@XZ
	DD	00H
	DD	FLAT:__CTA3?AVlength_error@std@@
xdata$x	ENDS
;	COMDAT __CTA3?AVlength_error@std@@
xdata$x	SEGMENT
__CTA3?AVlength_error@std@@ DD 03H
	DD	FLAT:__CT??_R0?AVlength_error@std@@@8??0length_error@std@@QAE@ABV01@@Z40
	DD	FLAT:__CT??_R0?AVlogic_error@std@@@8??0logic_error@std@@QAE@ABV01@@Z40
	DD	FLAT:__CT??_R0?AVexception@@@8??0exception@@QAE@ABV0@@Z12
xdata$x	ENDS
;	COMDAT __CT??_R0?AVlength_error@std@@@8??0length_error@std@@QAE@ABV01@@Z40
xdata$x	SEGMENT
__CT??_R0?AVlength_error@std@@@8??0length_error@std@@QAE@ABV01@@Z40 DD 00H
	DD	FLAT:??_R0?AVlength_error@std@@@8
	DD	00H
	DD	0ffffffffH
	ORG $+4
	DD	028H
	DD	FLAT:??0length_error@std@@QAE@ABV01@@Z
xdata$x	ENDS
;	COMDAT ??_R0?AVlength_error@std@@@8
_DATA	SEGMENT
??_R0?AVlength_error@std@@@8 DD FLAT:??_7type_info@@6B@	; std::length_error `RTTI Type Descriptor'
	DD	00H
	DB	'.?AVlength_error@std@@', 00H
_DATA	ENDS
;	COMDAT __CT??_R0?AVlogic_error@std@@@8??0logic_error@std@@QAE@ABV01@@Z40
xdata$x	SEGMENT
__CT??_R0?AVlogic_error@std@@@8??0logic_error@std@@QAE@ABV01@@Z40 DD 00H
	DD	FLAT:??_R0?AVlogic_error@std@@@8
	DD	00H
	DD	0ffffffffH
	ORG $+4
	DD	028H
	DD	FLAT:??0logic_error@std@@QAE@ABV01@@Z
xdata$x	ENDS
;	COMDAT ??_R0?AVlogic_error@std@@@8
_DATA	SEGMENT
??_R0?AVlogic_error@std@@@8 DD FLAT:??_7type_info@@6B@	; std::logic_error `RTTI Type Descriptor'
	DD	00H
	DB	'.?AVlogic_error@std@@', 00H
_DATA	ENDS
;	COMDAT __CT??_R0?AVexception@@@8??0exception@@QAE@ABV0@@Z12
xdata$x	SEGMENT
__CT??_R0?AVexception@@@8??0exception@@QAE@ABV0@@Z12 DD 00H
	DD	FLAT:??_R0?AVexception@@@8
	DD	00H
	DD	0ffffffffH
	ORG $+4
	DD	0cH
	DD	FLAT:??0exception@@QAE@ABV0@@Z
xdata$x	ENDS
;	COMDAT ??_R0?AVexception@@@8
_DATA	SEGMENT
??_R0?AVexception@@@8 DD FLAT:??_7type_info@@6B@	; exception `RTTI Type Descriptor'
	DD	00H
	DB	'.?AVexception@@', 00H
; Function compile flags: /Ogty
; File c:\program files\microsoft visual studio .net 2003\vc7\include\list
_DATA	ENDS
;	COMDAT ?_Incsize@?$list@PAXV?$allocator@PAX@std@@@std@@IAEXI@Z
_TEXT	SEGMENT
$T234962 = -80						; size = 28
$T234961 = -52						; size = 40
__$EHRec$ = -12						; size = 12
__Count$ = 8						; size = 4
?_Incsize@?$list@PAXV?$allocator@PAX@std@@@std@@IAEXI@Z PROC NEAR ; std::list<void *,std::allocator<void *> >::_Incsize, COMDAT
; _this$ = ecx

; 956  : 		{	// alter element count, with checking

  00000	64 a1 00 00 00
	00		 mov	 eax, DWORD PTR fs:__except_list

; 957  : 		if (max_size() - _Mysize < _Count)

  00006	8b 54 24 04	 mov	 edx, DWORD PTR __Count$[esp-4]
  0000a	6a ff		 push	 -1
  0000c	68 00 00 00 00	 push	 __ehhandler$?_Incsize@?$list@PAXV?$allocator@PAX@std@@@std@@IAEXI@Z
  00011	50		 push	 eax
  00012	64 89 25 00 00
	00 00		 mov	 DWORD PTR fs:__except_list, esp
  00019	8b 41 08	 mov	 eax, DWORD PTR [ecx+8]
  0001c	83 ec 44	 sub	 esp, 68			; 00000044H
  0001f	56		 push	 esi
  00020	be ff ff ff 3f	 mov	 esi, 1073741823		; 3fffffffH
  00025	2b f0		 sub	 esi, eax
  00027	3b f2		 cmp	 esi, edx
  00029	5e		 pop	 esi
  0002a	73 51		 jae	 SHORT $L229987

; 958  : 			_THROW(length_error, "list<T> too long");

  0002c	6a 10		 push	 16			; 00000010H
  0002e	68 00 00 00 00	 push	 OFFSET FLAT:??_C@_0BB@MOGOBHAF@list?$DMT?$DO?5too?5long?$AA@
  00033	8d 4c 24 08	 lea	 ecx, DWORD PTR $T234962[esp+88]
  00037	c7 44 24 20 0f
	00 00 00	 mov	 DWORD PTR $T234962[esp+112], 15 ; 0000000fH
  0003f	c7 44 24 1c 00
	00 00 00	 mov	 DWORD PTR $T234962[esp+108], 0
  00047	c6 44 24 0c 00	 mov	 BYTE PTR $T234962[esp+92], 0
  0004c	e8 00 00 00 00	 call	 ?assign@?$basic_string@DU?$char_traits@D@std@@V?$allocator@D@2@@std@@QAEAAV12@PBDI@Z ; std::basic_string<char,std::char_traits<char>,std::allocator<char> >::assign
  00051	8d 04 24	 lea	 eax, DWORD PTR $T234962[esp+80]
  00054	50		 push	 eax
  00055	8d 4c 24 20	 lea	 ecx, DWORD PTR $T234961[esp+84]
  00059	c7 44 24 50 00
	00 00 00	 mov	 DWORD PTR __$EHRec$[esp+92], 0
  00061	e8 00 00 00 00	 call	 ??0logic_error@std@@QAE@ABV?$basic_string@DU?$char_traits@D@std@@V?$allocator@D@2@@1@@Z ; std::logic_error::logic_error
  00066	68 00 00 00 00	 push	 OFFSET FLAT:__TI3?AVlength_error@std@@
  0006b	8d 4c 24 20	 lea	 ecx, DWORD PTR $T234961[esp+84]
  0006f	51		 push	 ecx
  00070	c7 44 24 24 00
	00 00 00	 mov	 DWORD PTR $T234961[esp+88], OFFSET FLAT:??_7length_error@std@@6B@
  00078	e8 00 00 00 00	 call	 __CxxThrowException@8
$L235095:
$L229987:

; 959  : 		_Mysize += _Count;

  0007d	03 c2		 add	 eax, edx
  0007f	89 41 08	 mov	 DWORD PTR [ecx+8], eax

; 960  : 		}

  00082	8b 4c 24 44	 mov	 ecx, DWORD PTR __$EHRec$[esp+80]
  00086	64 89 0d 00 00
	00 00		 mov	 DWORD PTR fs:__except_list, ecx
  0008d	83 c4 50	 add	 esp, 80			; 00000050H
  00090	c2 04 00	 ret	 4
$L235093:
_TEXT	ENDS
;	COMDAT text$x
text$x	SEGMENT
$L234963:
  00000	8d 4d b0	 lea	 ecx, DWORD PTR $T234962[ebp]
  00003	e9 00 00 00 00	 jmp	 ??1?$basic_string@DU?$char_traits@D@std@@V?$allocator@D@2@@std@@QAE@XZ ; std::basic_string<char,std::char_traits<char>,std::allocator<char> >::~basic_string<char,std::char_traits<char>,std::allocator<char> >
__ehhandler$?_Incsize@?$list@PAXV?$allocator@PAX@std@@@std@@IAEXI@Z:
  00008	b8 00 00 00 00	 mov	 eax, OFFSET FLAT:$T235091
  0000d	e9 00 00 00 00	 jmp	 ___CxxFrameHandler
text$x	ENDS
?_Incsize@?$list@PAXV?$allocator@PAX@std@@@std@@IAEXI@Z ENDP ; std::list<void *,std::allocator<void *> >::_Incsize
;	COMDAT xdata$x
xdata$x	SEGMENT
$T235201 DD	0ffffffffH
	DD	FLAT:$L235101
$T235199 DD	019930520H
	DD	01H
	DD	FLAT:$T235201
	DD	2 DUP(00H)
	DD	2 DUP(00H)
; Function compile flags: /Ogty
xdata$x	ENDS
;	COMDAT ??0logic_error@std@@QAE@ABV01@@Z
_TEXT	SEGMENT
_this$ = -16						; size = 4
__$EHRec$ = -12						; size = 12
___that$ = 8						; size = 4
??0logic_error@std@@QAE@ABV01@@Z PROC NEAR		; std::logic_error::logic_error, COMDAT
; _this$ = ecx
  00000	6a ff		 push	 -1
  00002	68 00 00 00 00	 push	 __ehhandler$??0logic_error@std@@QAE@ABV01@@Z
  00007	64 a1 00 00 00
	00		 mov	 eax, DWORD PTR fs:__except_list
  0000d	50		 push	 eax
  0000e	64 89 25 00 00
	00 00		 mov	 DWORD PTR fs:__except_list, esp
  00015	51		 push	 ecx
  00016	56		 push	 esi
  00017	57		 push	 edi
  00018	8b 7c 24 1c	 mov	 edi, DWORD PTR ___that$[esp+20]
  0001c	8b f1		 mov	 esi, ecx
  0001e	57		 push	 edi
  0001f	89 74 24 0c	 mov	 DWORD PTR _this$[esp+28], esi
  00023	e8 00 00 00 00	 call	 ??0exception@@QAE@ABV0@@Z ; exception::exception
  00028	33 c0		 xor	 eax, eax
  0002a	6a ff		 push	 -1
  0002c	8d 4e 0c	 lea	 ecx, DWORD PTR [esi+12]
  0002f	c7 06 00 00 00
	00		 mov	 DWORD PTR [esi], OFFSET FLAT:??_7logic_error@std@@6B@
  00035	50		 push	 eax
  00036	83 c7 0c	 add	 edi, 12			; 0000000cH
  00039	c7 41 18 0f 00
	00 00		 mov	 DWORD PTR [ecx+24], 15	; 0000000fH
  00040	89 41 14	 mov	 DWORD PTR [ecx+20], eax
  00043	57		 push	 edi
  00044	89 44 24 20	 mov	 DWORD PTR __$EHRec$[esp+44], eax
  00048	88 41 04	 mov	 BYTE PTR [ecx+4], al
  0004b	e8 00 00 00 00	 call	 ?assign@?$basic_string@DU?$char_traits@D@std@@V?$allocator@D@2@@std@@QAEAAV12@ABV12@II@Z ; std::basic_string<char,std::char_traits<char>,std::allocator<char> >::assign
  00050	8b 4c 24 0c	 mov	 ecx, DWORD PTR __$EHRec$[esp+24]
  00054	5f		 pop	 edi
  00055	8b c6		 mov	 eax, esi
  00057	5e		 pop	 esi
  00058	64 89 0d 00 00
	00 00		 mov	 DWORD PTR fs:__except_list, ecx
  0005f	83 c4 10	 add	 esp, 16			; 00000010H
  00062	c2 04 00	 ret	 4
_TEXT	ENDS
;	COMDAT text$x
text$x	SEGMENT
$L235101:
  00000	8b 4d f0	 mov	 ecx, DWORD PTR _this$[ebp]
  00003	e9 00 00 00 00	 jmp	 ??1exception@@UAE@XZ	; exception::~exception
__ehhandler$??0logic_error@std@@QAE@ABV01@@Z:
  00008	b8 00 00 00 00	 mov	 eax, OFFSET FLAT:$T235199
  0000d	e9 00 00 00 00	 jmp	 ___CxxFrameHandler
text$x	ENDS
??0logic_error@std@@QAE@ABV01@@Z ENDP			; std::logic_error::logic_error
; Function compile flags: /Ogty
;	COMDAT ??0length_error@std@@QAE@ABV01@@Z
_TEXT	SEGMENT
___that$ = 8						; size = 4
??0length_error@std@@QAE@ABV01@@Z PROC NEAR		; std::length_error::length_error, COMDAT
; _this$ = ecx
  00000	8b 44 24 04	 mov	 eax, DWORD PTR ___that$[esp-4]
  00004	56		 push	 esi
  00005	50		 push	 eax
  00006	8b f1		 mov	 esi, ecx
  00008	e8 00 00 00 00	 call	 ??0logic_error@std@@QAE@ABV01@@Z
  0000d	c7 06 00 00 00
	00		 mov	 DWORD PTR [esi], OFFSET FLAT:??_7length_error@std@@6B@
  00013	8b c6		 mov	 eax, esi
  00015	5e		 pop	 esi
  00016	c2 04 00	 ret	 4
??0length_error@std@@QAE@ABV01@@Z ENDP			; std::length_error::length_error
_TEXT	ENDS
PUBLIC	?_Insert@?$list@PAXV?$allocator@PAX@std@@@std@@QAEXViterator@12@ABQAX@Z ; std::list<void *,std::allocator<void *> >::_Insert
; Function compile flags: /Ogty
;	COMDAT ?_Insert@?$list@PAXV?$allocator@PAX@std@@@std@@QAEXViterator@12@ABQAX@Z
_TEXT	SEGMENT
__Where$ = 8						; size = 4
__Val$ = 12						; size = 4
?_Insert@?$list@PAXV?$allocator@PAX@std@@@std@@QAEXViterator@12@ABQAX@Z PROC NEAR ; std::list<void *,std::allocator<void *> >::_Insert, COMDAT
; _this$ = ecx

; 522  : 		_Nodeptr _Pnode = _Where._Mynode();
; 523  : 		_Nodeptr _Newnode = _Buynode(_Pnode, _Prevnode(_Pnode), _Val);

  00000	8b 44 24 08	 mov	 eax, DWORD PTR __Val$[esp-4]
  00004	53		 push	 ebx
  00005	8b 5c 24 08	 mov	 ebx, DWORD PTR __Where$[esp]
  00009	56		 push	 esi
  0000a	57		 push	 edi
  0000b	8b f9		 mov	 edi, ecx
  0000d	8b 4b 04	 mov	 ecx, DWORD PTR [ebx+4]
  00010	50		 push	 eax
  00011	51		 push	 ecx
  00012	53		 push	 ebx
  00013	8b cf		 mov	 ecx, edi
  00015	e8 00 00 00 00	 call	 ?_Buynode@?$list@PAXV?$allocator@PAX@std@@@std@@IAEPAU_Node@?$_List_nod@PAXV?$allocator@PAX@std@@@2@PAU342@0ABQAX@Z ; std::list<void *,std::allocator<void *> >::_Buynode

; 524  : 		_Incsize(1);

  0001a	6a 01		 push	 1
  0001c	8b cf		 mov	 ecx, edi
  0001e	8b f0		 mov	 esi, eax
  00020	e8 00 00 00 00	 call	 ?_Incsize@?$list@PAXV?$allocator@PAX@std@@@std@@IAEXI@Z ; std::list<void *,std::allocator<void *> >::_Incsize

; 525  : 		_Prevnode(_Pnode) = _Newnode;

  00025	89 73 04	 mov	 DWORD PTR [ebx+4], esi

; 526  : 		_Nextnode(_Prevnode(_Newnode)) = _Newnode;

  00028	8b 56 04	 mov	 edx, DWORD PTR [esi+4]
  0002b	5f		 pop	 edi
  0002c	89 32		 mov	 DWORD PTR [edx], esi
  0002e	5e		 pop	 esi
  0002f	5b		 pop	 ebx

; 527  : 		}

  00030	c2 08 00	 ret	 8
?_Insert@?$list@PAXV?$allocator@PAX@std@@@std@@QAEXViterator@12@ABQAX@Z ENDP ; std::list<void *,std::allocator<void *> >::_Insert
_TEXT	ENDS
PUBLIC	?push_back@?$list@PAXV?$allocator@PAX@std@@@std@@QAEXABQAX@Z ; std::list<void *,std::allocator<void *> >::push_back
; Function compile flags: /Ogty
;	COMDAT ?push_back@?$list@PAXV?$allocator@PAX@std@@@std@@QAEXABQAX@Z
_TEXT	SEGMENT
__Val$ = 8						; size = 4
?push_back@?$list@PAXV?$allocator@PAX@std@@@std@@QAEXABQAX@Z PROC NEAR ; std::list<void *,std::allocator<void *> >::push_back, COMDAT
; _this$ = ecx

; 481  : 		_Insert(end(), _Val);

  00000	8b 44 24 04	 mov	 eax, DWORD PTR __Val$[esp-4]
  00004	53		 push	 ebx
  00005	56		 push	 esi
  00006	57		 push	 edi
  00007	8b f1		 mov	 esi, ecx
  00009	8b 7e 04	 mov	 edi, DWORD PTR [esi+4]
  0000c	8b 4f 04	 mov	 ecx, DWORD PTR [edi+4]
  0000f	50		 push	 eax
  00010	51		 push	 ecx
  00011	57		 push	 edi
  00012	8b ce		 mov	 ecx, esi
  00014	e8 00 00 00 00	 call	 ?_Buynode@?$list@PAXV?$allocator@PAX@std@@@std@@IAEPAU_Node@?$_List_nod@PAXV?$allocator@PAX@std@@@2@PAU342@0ABQAX@Z ; std::list<void *,std::allocator<void *> >::_Buynode
  00019	6a 01		 push	 1
  0001b	8b ce		 mov	 ecx, esi
  0001d	8b d8		 mov	 ebx, eax
  0001f	e8 00 00 00 00	 call	 ?_Incsize@?$list@PAXV?$allocator@PAX@std@@@std@@IAEXI@Z ; std::list<void *,std::allocator<void *> >::_Incsize
  00024	89 5f 04	 mov	 DWORD PTR [edi+4], ebx
  00027	8b 53 04	 mov	 edx, DWORD PTR [ebx+4]
  0002a	5f		 pop	 edi
  0002b	5e		 pop	 esi
  0002c	89 1a		 mov	 DWORD PTR [edx], ebx
  0002e	5b		 pop	 ebx

; 482  : 		}

  0002f	c2 04 00	 ret	 4
?push_back@?$list@PAXV?$allocator@PAX@std@@@std@@QAEXABQAX@Z ENDP ; std::list<void *,std::allocator<void *> >::push_back
_TEXT	ENDS
PUBLIC	?CreateIoWorker@CDPSock@@AAEHK@Z		; CDPSock::CreateIoWorker
EXTRN	__beginthreadex:NEAR
EXTRN	__imp__SetThreadPriority@8:NEAR
EXTRN	__imp__CreateIoCompletionPort@16:NEAR
; Function compile flags: /Ogty
; File c:\documents and settings\test\mes documents\source\virtuos_v17\build\program\_network\net\src\dpsock.cpp
;	COMDAT ?CreateIoWorker@CDPSock@@AAEHK@Z
_TEXT	SEGMENT
___loop$ = -12						; size = 4
_hThread$ = -8						; size = 4
_dwThreadId$ = -4					; size = 4
_i$229216 = 8						; size = 4
_uIoWorker$ = 8						; size = 4
?CreateIoWorker@CDPSock@@AAEHK@Z PROC NEAR		; CDPSock::CreateIoWorker, COMDAT
; _this$ = ecx

; 77   : {

  00000	83 ec 0c	 sub	 esp, 12			; 0000000cH
  00003	53		 push	 ebx
  00004	55		 push	 ebp
  00005	56		 push	 esi
  00006	57		 push	 edi

; 78   : 	HANDLE hThread;
; 79   : 	
; 80   : 	m_uIoWorker	= uIoWorker;

  00007	8b 7c 24 20	 mov	 edi, DWORD PTR _uIoWorker$[esp+24]

; 81   : 	m_phCompletionPort	= new HANDLE[uIoWorker];

  0000b	8d 04 bd 00 00
	00 00		 lea	 eax, DWORD PTR [edi*4]
  00012	8b d9		 mov	 ebx, ecx
  00014	50		 push	 eax
  00015	89 7b 2c	 mov	 DWORD PTR [ebx+44], edi
  00018	e8 00 00 00 00	 call	 ??_U@YAPAXI@Z		; operator new[]
  0001d	83 c4 04	 add	 esp, 4

; 82   : 	for( DWORD iIoWorker = 0; iIoWorker < uIoWorker; iIoWorker++ )

  00020	33 f6		 xor	 esi, esi
  00022	85 ff		 test	 edi, edi
  00024	89 43 58	 mov	 DWORD PTR [ebx+88], eax
  00027	76 25		 jbe	 SHORT $L229209
  00029	8b 2d 00 00 00
	00		 mov	 ebp, DWORD PTR __imp__CreateIoCompletionPort@16
  0002f	90		 npad	 1
$L235363:

; 83   : 	{
; 84   : 		if( ( m_phCompletionPort[iIoWorker] = CreateIoCompletionPort( INVALID_HANDLE_VALUE, NULL, 0, 0 ) ) == (HANDLE)NULL )

  00030	6a 00		 push	 0
  00032	6a 00		 push	 0
  00034	6a 00		 push	 0
  00036	6a ff		 push	 -1
  00038	ff d5		 call	 ebp
  0003a	8b 4b 58	 mov	 ecx, DWORD PTR [ebx+88]
  0003d	89 04 b1	 mov	 DWORD PTR [ecx+esi*4], eax
  00040	8b 53 58	 mov	 edx, DWORD PTR [ebx+88]
  00043	83 3c b2 00	 cmp	 DWORD PTR [edx+esi*4], 0
  00047	74 1b		 je	 SHORT $L235359
  00049	46		 inc	 esi
  0004a	3b f7		 cmp	 esi, edi
  0004c	72 e2		 jb	 SHORT $L235363
$L229209:

; 86   : 	}
; 87   : 
; 88   : 	DWORD dwThreadId;
; 89   : 	INIT_LOOP;
; 90   : 	for( DWORD i = 0; i < m_uIoWorker; i++ )

  0004e	8b 4b 2c	 mov	 ecx, DWORD PTR [ebx+44]
  00051	33 c0		 xor	 eax, eax
  00053	3b c8		 cmp	 ecx, eax
  00055	89 44 24 20	 mov	 DWORD PTR _i$229216[esp+24], eax
  00059	0f 86 96 00 00
	00		 jbe	 $L229219
  0005f	8d 6b 30	 lea	 ebp, DWORD PTR [ebx+48]
  00062	eb 10		 jmp	 SHORT $L229217
$L235359:
  00064	5f		 pop	 edi
  00065	5e		 pop	 esi
  00066	5d		 pop	 ebp

; 85   : 			return FALSE;

  00067	33 c0		 xor	 eax, eax
  00069	5b		 pop	 ebx

; 99   : }

  0006a	83 c4 0c	 add	 esp, 12			; 0000000cH
  0006d	c2 04 00	 ret	 4
$L235362:

; 86   : 	}
; 87   : 
; 88   : 	DWORD dwThreadId;
; 89   : 	INIT_LOOP;
; 90   : 	for( DWORD i = 0; i < m_uIoWorker; i++ )

  00070	8b 44 24 10	 mov	 eax, DWORD PTR ___loop$[esp+28]
$L229217:

; 91   : 	{
; 92   : 		VERIFY_LOOP( __FILE__, __LINE__ );

  00074	40		 inc	 eax
  00075	3d e8 03 00 00	 cmp	 eax, 1000		; 000003e8H
  0007a	89 44 24 10	 mov	 DWORD PTR ___loop$[esp+28], eax
  0007e	75 14		 jne	 SHORT $L229220
  00080	6a 5c		 push	 92			; 0000005cH
  00082	68 00 00 00 00	 push	 OFFSET FLAT:??_C@_0GI@OCPECBBP@?2Documents?5and?5Settings?2test?2Mes@
  00087	68 00 00 00 00	 push	 OFFSET FLAT:??_C@_05DIALNFFA@?$CFs?5?$CFd?$AA@
  0008c	e8 00 00 00 00	 call	 ?Error@@YAPBDPBDZZ	; Error
  00091	83 c4 0c	 add	 esp, 12			; 0000000cH
$L229220:

; 93   : 		hThread		= chBEGINTHREADEX( NULL, 0, IoWorkerThread, this, 0, &dwThreadId );

  00094	8d 44 24 18	 lea	 eax, DWORD PTR _dwThreadId$[esp+28]
  00098	50		 push	 eax
  00099	6a 00		 push	 0
  0009b	53		 push	 ebx
  0009c	68 00 00 00 00	 push	 OFFSET FLAT:?IoWorkerThread@@YGIPAX@Z ; IoWorkerThread
  000a1	6a 00		 push	 0
  000a3	6a 00		 push	 0
  000a5	e8 00 00 00 00	 call	 __beginthreadex
  000aa	83 c4 18	 add	 esp, 24			; 00000018H

; 94   : 		ASSERT( hThread );
; 95   : 		SetThreadPriority( hThread, THREAD_PRIORITY_ABOVE_NORMAL );

  000ad	6a 01		 push	 1
  000af	50		 push	 eax
  000b0	89 44 24 1c	 mov	 DWORD PTR _hThread$[esp+36], eax
  000b4	ff 15 00 00 00
	00		 call	 DWORD PTR __imp__SetThreadPriority@8

; 96   : 		m_listthread.push_back( hThread );

  000ba	8b 75 04	 mov	 esi, DWORD PTR [ebp+4]
  000bd	8b 56 04	 mov	 edx, DWORD PTR [esi+4]
  000c0	8d 4c 24 14	 lea	 ecx, DWORD PTR _hThread$[esp+28]
  000c4	51		 push	 ecx
  000c5	52		 push	 edx
  000c6	56		 push	 esi
  000c7	8b cd		 mov	 ecx, ebp
  000c9	e8 00 00 00 00	 call	 ?_Buynode@?$list@PAXV?$allocator@PAX@std@@@std@@IAEPAU_Node@?$_List_nod@PAXV?$allocator@PAX@std@@@2@PAU342@0ABQAX@Z ; std::list<void *,std::allocator<void *> >::_Buynode
  000ce	6a 01		 push	 1
  000d0	8b cd		 mov	 ecx, ebp
  000d2	8b f8		 mov	 edi, eax
  000d4	e8 00 00 00 00	 call	 ?_Incsize@?$list@PAXV?$allocator@PAX@std@@@std@@IAEXI@Z ; std::list<void *,std::allocator<void *> >::_Incsize
  000d9	89 7e 04	 mov	 DWORD PTR [esi+4], edi
  000dc	8b 47 04	 mov	 eax, DWORD PTR [edi+4]
  000df	89 38		 mov	 DWORD PTR [eax], edi
  000e1	8b 44 24 20	 mov	 eax, DWORD PTR _i$229216[esp+24]
  000e5	8b 4b 2c	 mov	 ecx, DWORD PTR [ebx+44]
  000e8	40		 inc	 eax
  000e9	3b c1		 cmp	 eax, ecx
  000eb	89 44 24 20	 mov	 DWORD PTR _i$229216[esp+24], eax
  000ef	0f 82 7b ff ff
	ff		 jb	 $L235362
$L229219:
  000f5	5f		 pop	 edi
  000f6	5e		 pop	 esi
  000f7	5d		 pop	 ebp

; 97   : 	}
; 98   : 	return TRUE;

  000f8	b8 01 00 00 00	 mov	 eax, 1
  000fd	5b		 pop	 ebx

; 99   : }

  000fe	83 c4 0c	 add	 esp, 12			; 0000000cH
  00101	c2 04 00	 ret	 4
?CreateIoWorker@CDPSock@@AAEHK@Z ENDP			; CDPSock::CreateIoWorker
_TEXT	ENDS
PUBLIC	?CreateEventWorker@CDPSock@@QAEHPAVCSock@@@Z	; CDPSock::CreateEventWorker
EXTRN	?CreateBuffer@CClientSockE@@QAEPAVCBuffer@@XZ:NEAR ; CClientSockE::CreateBuffer
; Function compile flags: /Ogty
;	COMDAT ?CreateEventWorker@CDPSock@@QAEHPAVCSock@@@Z
_TEXT	SEGMENT
_dwThreadId$ = -4					; size = 4
_hThread$ = 8						; size = 4
_pSock$ = 8						; size = 4
?CreateEventWorker@CDPSock@@QAEHPAVCSock@@@Z PROC NEAR	; CDPSock::CreateEventWorker, COMDAT
; _this$ = ecx

; 145  : {

  00000	51		 push	 ecx
  00001	53		 push	 ebx
  00002	55		 push	 ebp
  00003	56		 push	 esi
  00004	8b f1		 mov	 esi, ecx

; 146  : 	HANDLE hThread;
; 147  : 	m_uIoWorker++;

  00006	8b 46 2c	 mov	 eax, DWORD PTR [esi+44]
  00009	57		 push	 edi

; 148  : 	m_pSockThreaded	= pSock;

  0000a	8b 7c 24 18	 mov	 edi, DWORD PTR _pSock$[esp+16]
  0000e	40		 inc	 eax

; 149  : 	CBuffer* pBuffer = ( (CClientSockE*)pSock )->CreateBuffer();

  0000f	8b cf		 mov	 ecx, edi
  00011	89 46 2c	 mov	 DWORD PTR [esi+44], eax
  00014	89 7e 64	 mov	 DWORD PTR [esi+100], edi
  00017	e8 00 00 00 00	 call	 ?CreateBuffer@CClientSockE@@QAEPAVCBuffer@@XZ ; CClientSockE::CreateBuffer

; 150  : 	AddCreatePlayerOrGroupMsg( (DPID)pSock->GetHandle(), pBuffer );

  0001c	50		 push	 eax
  0001d	8b 47 04	 mov	 eax, DWORD PTR [edi+4]
  00020	50		 push	 eax
  00021	8b ce		 mov	 ecx, esi
  00023	e8 00 00 00 00	 call	 ?AddCreatePlayerOrGroupMsg@CDPSock@@QAEXKPAVCBuffer@@@Z ; CDPSock::AddCreatePlayerOrGroupMsg

; 151  : //	hThread		= (HANDLE)_beginthread( EventWorkerThread, 0, this );
; 152  : 	DWORD dwThreadId;
; 153  : 	hThread		= chBEGINTHREADEX( NULL, 0, EventWorkerThread, this, 0, &dwThreadId );

  00028	8d 4c 24 10	 lea	 ecx, DWORD PTR _dwThreadId$[esp+20]
  0002c	51		 push	 ecx
  0002d	6a 00		 push	 0
  0002f	56		 push	 esi
  00030	68 00 00 00 00	 push	 OFFSET FLAT:?EventWorkerThread@@YGIPAX@Z ; EventWorkerThread
  00035	6a 00		 push	 0
  00037	6a 00		 push	 0
  00039	e8 00 00 00 00	 call	 __beginthreadex
  0003e	83 c4 18	 add	 esp, 24			; 00000018H
  00041	8b d8		 mov	 ebx, eax

; 154  : 	ASSERT( hThread );
; 155  : 	SetThreadPriority( hThread, THREAD_PRIORITY_NORMAL );

  00043	6a 00		 push	 0
  00045	53		 push	 ebx
  00046	89 5c 24 20	 mov	 DWORD PTR _hThread$[esp+24], ebx
  0004a	ff 15 00 00 00
	00		 call	 DWORD PTR __imp__SetThreadPriority@8

; 156  : 	( (CClientSockE*)pSock )->m_hWorker	= hThread;
; 157  : 	m_locklistthread.Enter();

  00050	8d 6e 40	 lea	 ebp, DWORD PTR [esi+64]
  00053	55		 push	 ebp
  00054	89 5f 44	 mov	 DWORD PTR [edi+68], ebx
  00057	ff 15 00 00 00
	00		 call	 DWORD PTR __imp__EnterCriticalSection@4

; 158  : 	m_listthread.push_back( hThread );

  0005d	8b 7e 34	 mov	 edi, DWORD PTR [esi+52]
  00060	8b 47 04	 mov	 eax, DWORD PTR [edi+4]
  00063	83 c6 30	 add	 esi, 48			; 00000030H
  00066	8d 54 24 18	 lea	 edx, DWORD PTR _hThread$[esp+16]
  0006a	52		 push	 edx
  0006b	50		 push	 eax
  0006c	57		 push	 edi
  0006d	8b ce		 mov	 ecx, esi
  0006f	e8 00 00 00 00	 call	 ?_Buynode@?$list@PAXV?$allocator@PAX@std@@@std@@IAEPAU_Node@?$_List_nod@PAXV?$allocator@PAX@std@@@2@PAU342@0ABQAX@Z ; std::list<void *,std::allocator<void *> >::_Buynode
  00074	6a 01		 push	 1
  00076	8b ce		 mov	 ecx, esi
  00078	8b d8		 mov	 ebx, eax
  0007a	e8 00 00 00 00	 call	 ?_Incsize@?$list@PAXV?$allocator@PAX@std@@@std@@IAEXI@Z ; std::list<void *,std::allocator<void *> >::_Incsize
  0007f	89 5f 04	 mov	 DWORD PTR [edi+4], ebx
  00082	8b 4b 04	 mov	 ecx, DWORD PTR [ebx+4]

; 159  : 	m_locklistthread.Leave();

  00085	55		 push	 ebp
  00086	89 19		 mov	 DWORD PTR [ecx], ebx
  00088	ff 15 00 00 00
	00		 call	 DWORD PTR __imp__LeaveCriticalSection@4
  0008e	5f		 pop	 edi
  0008f	5e		 pop	 esi
  00090	5d		 pop	 ebp

; 160  : 	return TRUE;

  00091	b8 01 00 00 00	 mov	 eax, 1
  00096	5b		 pop	 ebx

; 161  : }

  00097	59		 pop	 ecx
  00098	c2 04 00	 ret	 4
?CreateEventWorker@CDPSock@@QAEHPAVCSock@@@Z ENDP	; CDPSock::CreateEventWorker
_TEXT	ENDS
PUBLIC	?CreateServer@CDPSock@@QAEHW4BUFFER_TYPE@@@Z	; CDPSock::CreateServer
EXTRN	??0CServerSock@@QAE@W4BUFFER_TYPE@@@Z:NEAR	; CServerSock::CServerSock
EXTRN	?Listen@CServerSock@@QAEHXZ:NEAR		; CServerSock::Listen
EXTRN	?StartServer@CServerSock@@QAEHPAPAXK@Z:NEAR	; CServerSock::StartServer
;	COMDAT xdata$x
; File c:\documents and settings\test\mes documents\source\virtuos_v17\build\program\_network\net\include\sock.h
xdata$x	SEGMENT
$T235490 DD	0ffffffffH
	DD	FLAT:$L235466
$T235487 DD	019930520H
	DD	01H
	DD	FLAT:$T235490
	DD	2 DUP(00H)
	DD	2 DUP(00H)
; Function compile flags: /Ogty
; File c:\documents and settings\test\mes documents\source\virtuos_v17\build\program\_network\net\src\dpsock.cpp
xdata$x	ENDS
;	COMDAT ?CreateServer@CDPSock@@QAEHW4BUFFER_TYPE@@@Z
_TEXT	SEGMENT
$T235455 = -52						; size = 4
_si$ = -48						; size = 36
__$EHRec$ = -12						; size = 12
_nBufferType$ = 8					; size = 4
?CreateServer@CDPSock@@QAEHW4BUFFER_TYPE@@@Z PROC NEAR	; CDPSock::CreateServer, COMDAT
; _this$ = ecx

; 191  : {

  00000	64 a1 00 00 00
	00		 mov	 eax, DWORD PTR fs:__except_list
  00006	6a ff		 push	 -1
  00008	68 00 00 00 00	 push	 __ehhandler$?CreateServer@CDPSock@@QAEHW4BUFFER_TYPE@@@Z
  0000d	50		 push	 eax
  0000e	64 89 25 00 00
	00 00		 mov	 DWORD PTR fs:__except_list, esp
  00015	83 ec 28	 sub	 esp, 40			; 00000028H
  00018	56		 push	 esi
  00019	57		 push	 edi
  0001a	8b f1		 mov	 esi, ecx

; 192  : 	Close();

  0001c	e8 00 00 00 00	 call	 ?CloseIoWorker@CDPSock@@AAEHXZ ; CDPSock::CloseIoWorker
  00021	8b 4e 04	 mov	 ecx, DWORD PTR [esi+4]
  00024	33 ff		 xor	 edi, edi
  00026	3b cf		 cmp	 ecx, edi
  00028	74 15		 je	 SHORT $L235474
  0002a	8b 01		 mov	 eax, DWORD PTR [ecx]
  0002c	ff 50 1c	 call	 DWORD PTR [eax+28]
  0002f	8b 4e 04	 mov	 ecx, DWORD PTR [esi+4]
  00032	3b cf		 cmp	 ecx, edi
  00034	74 09		 je	 SHORT $L235474
  00036	8b 11		 mov	 edx, DWORD PTR [ecx]
  00038	6a 01		 push	 1
  0003a	ff 12		 call	 DWORD PTR [edx]
  0003c	89 7e 04	 mov	 DWORD PTR [esi+4], edi
$L235474:
  0003f	6a 01		 push	 1
  00041	8d 4e 68	 lea	 ecx, DWORD PTR [esi+104]
  00044	e8 00 00 00 00	 call	 ?Clear@CBufferQueue@@QAEXH@Z ; CBufferQueue::Clear

; 193  : 
; 194  : #ifdef __CRC
; 195  : 	if( CSock::crcRead & dwcrc )
; 196  : 	{
; 197  : 		m_dwReadHeaderSize	= HEADERSIZE13;
; 198  : #ifdef __PACKET_REPLAY_R
; 199  : 		m_dwDataSizeOffset	= sizeof(char) + sizeof(int) + sizeof(DWORD);
; 200  : #else	// __PACKET_REPLAY_R
; 201  : 		m_dwDataSizeOffset	= sizeof(char) + sizeof(DWORD);
; 202  : #endif	// __PACKET_REPLAY_R
; 203  : 	}
; 204  : 	else
; 205  : 	{
; 206  : 		m_dwReadHeaderSize	= HEADERSIZE5;
; 207  : 		m_dwDataSizeOffset	= sizeof(char);
; 208  : 	}
; 209  : 
; 210  : 	CServerSock* pSock	= new CServerSock( dwcrc );
; 211  : #else	//__CRC
; 212  : 	CServerSock* pSock	= new CServerSock( nBufferType );

  00049	6a 54		 push	 84			; 00000054H
  0004b	e8 00 00 00 00	 call	 ??2@YAPAXI@Z		; operator new
  00050	83 c4 04	 add	 esp, 4
  00053	89 44 24 08	 mov	 DWORD PTR $T235455[esp+60], eax
  00057	3b c7		 cmp	 eax, edi
  00059	89 7c 24 38	 mov	 DWORD PTR __$EHRec$[esp+68], edi
  0005d	74 0e		 je	 SHORT $L235457
  0005f	8b 4c 24 40	 mov	 ecx, DWORD PTR _nBufferType$[esp+56]
  00063	51		 push	 ecx
  00064	8b c8		 mov	 ecx, eax
  00066	e8 00 00 00 00	 call	 ??0CServerSock@@QAE@W4BUFFER_TYPE@@@Z ; CServerSock::CServerSock
  0006b	8b f8		 mov	 edi, eax
$L235457:

; 213  : #endif	// __CRC
; 214  : 	if( !pSock->Create( m_uPort ) )

  0006d	8b 17		 mov	 edx, DWORD PTR [edi]
  0006f	33 c0		 xor	 eax, eax
  00071	66 8b 46 08	 mov	 ax, WORD PTR [esi+8]
  00075	6a 01		 push	 1
  00077	8b cf		 mov	 ecx, edi
  00079	c7 44 24 3c ff
	ff ff ff	 mov	 DWORD PTR __$EHRec$[esp+72], -1
  00081	50		 push	 eax
  00082	ff 52 04	 call	 DWORD PTR [edx+4]
  00085	85 c0		 test	 eax, eax

; 215  : 	{
; 216  : 		SAFE_DELETE( pSock );
; 217  : 		return FALSE;

  00087	74 34		 je	 SHORT $L235489

; 218  : 	}
; 219  : 	CSystemInfo si;

  00089	8d 44 24 0c	 lea	 eax, DWORD PTR _si$[esp+60]
  0008d	50		 push	 eax
  0008e	ff 15 00 00 00
	00		 call	 DWORD PTR __imp__GetSystemInfo@4

; 220  : 
; 221  : 	CreateIoWorker( si.dwNumberOfProcessors*2 );

  00094	8b 4c 24 20	 mov	 ecx, DWORD PTR _si$[esp+80]
  00098	8d 14 09	 lea	 edx, DWORD PTR [ecx+ecx]
  0009b	52		 push	 edx
  0009c	8b ce		 mov	 ecx, esi
  0009e	e8 00 00 00 00	 call	 ?CreateIoWorker@CDPSock@@AAEHK@Z ; CDPSock::CreateIoWorker

; 222  : 
; 223  : 	pSock->StartServer( m_phCompletionPort, m_uIoWorker );

  000a3	8b 46 2c	 mov	 eax, DWORD PTR [esi+44]
  000a6	8b 4e 58	 mov	 ecx, DWORD PTR [esi+88]
  000a9	50		 push	 eax
  000aa	51		 push	 ecx
  000ab	8b cf		 mov	 ecx, edi
  000ad	e8 00 00 00 00	 call	 ?StartServer@CServerSock@@QAEHPAPAXK@Z ; CServerSock::StartServer

; 224  : 
; 225  : 	if( !pSock->Listen() )

  000b2	8b cf		 mov	 ecx, edi
  000b4	e8 00 00 00 00	 call	 ?Listen@CServerSock@@QAEHXZ ; CServerSock::Listen
  000b9	85 c0		 test	 eax, eax
  000bb	75 1d		 jne	 SHORT $L229394
$L235489:

; 226  : 	{
; 227  : 		SAFE_DELETE( pSock );

  000bd	8b 17		 mov	 edx, DWORD PTR [edi]
  000bf	6a 01		 push	 1
  000c1	8b cf		 mov	 ecx, edi
  000c3	ff 12		 call	 DWORD PTR [edx]
  000c5	5f		 pop	 edi

; 228  : 		return FALSE;

  000c6	33 c0		 xor	 eax, eax
  000c8	5e		 pop	 esi

; 229  : 	}
; 230  : 	pSock->SetID( DPID_SERVERPLAYER );
; 231  : 	m_pSock		= pSock;
; 232  : 	m_fServer	= TRUE;
; 233  : 	return TRUE;
; 234  : }

  000c9	8b 4c 24 28	 mov	 ecx, DWORD PTR __$EHRec$[esp+52]
  000cd	64 89 0d 00 00
	00 00		 mov	 DWORD PTR fs:__except_list, ecx
  000d4	83 c4 34	 add	 esp, 52			; 00000034H
  000d7	c2 04 00	 ret	 4
$L229394:
  000da	8b 4c 24 30	 mov	 ecx, DWORD PTR __$EHRec$[esp+60]
  000de	c7 47 08 01 00
	00 00		 mov	 DWORD PTR [edi+8], 1
  000e5	89 7e 04	 mov	 DWORD PTR [esi+4], edi
  000e8	c7 86 94 00 00
	00 01 00 00 00	 mov	 DWORD PTR [esi+148], 1
  000f2	5f		 pop	 edi
  000f3	b8 01 00 00 00	 mov	 eax, 1
  000f8	5e		 pop	 esi
  000f9	64 89 0d 00 00
	00 00		 mov	 DWORD PTR fs:__except_list, ecx
  00100	83 c4 34	 add	 esp, 52			; 00000034H
  00103	c2 04 00	 ret	 4
_TEXT	ENDS
;	COMDAT text$x
text$x	SEGMENT
$L235466:
  00000	8b 45 cc	 mov	 eax, DWORD PTR $T235455[ebp]
  00003	50		 push	 eax
  00004	e8 00 00 00 00	 call	 ??3@YAXPAX@Z		; operator delete
  00009	59		 pop	 ecx
  0000a	c3		 ret	 0
__ehhandler$?CreateServer@CDPSock@@QAEHW4BUFFER_TYPE@@@Z:
  0000b	b8 00 00 00 00	 mov	 eax, OFFSET FLAT:$T235487
  00010	e9 00 00 00 00	 jmp	 ___CxxFrameHandler
text$x	ENDS
?CreateServer@CDPSock@@QAEHW4BUFFER_TYPE@@@Z ENDP	; CDPSock::CreateServer
PUBLIC	?JoinToServer@CDPSock@@QAEHW4BUFFER_TYPE@@@Z	; CDPSock::JoinToServer
EXTRN	??0CClientSock@@QAE@W4BUFFER_TYPE@@@Z:NEAR	; CClientSock::CClientSock
EXTRN	?Connect@CClientSock@@QAEHPADG@Z:NEAR		; CClientSock::Connect
EXTRN	__imp__setsockopt@20:NEAR
;	COMDAT xdata$x
; File c:\documents and settings\test\mes documents\source\virtuos_v17\build\program\_network\net\include\sock.h
xdata$x	SEGMENT
$T235566 DD	0ffffffffH
	DD	FLAT:$L235508
$T235561 DD	019930520H
	DD	01H
	DD	FLAT:$T235566
	DD	2 DUP(00H)
	DD	2 DUP(00H)
; Function compile flags: /Ogty
; File c:\documents and settings\test\mes documents\source\virtuos_v17\build\program\_network\net\src\dpsock.cpp
xdata$x	ENDS
;	COMDAT ?JoinToServer@CDPSock@@QAEHW4BUFFER_TYPE@@@Z
_TEXT	SEGMENT
_zero$ = -20						; size = 4
$T235497 = -16						; size = 4
__$EHRec$ = -12						; size = 12
_nBufferType$ = 8					; size = 4
?JoinToServer@CDPSock@@QAEHW4BUFFER_TYPE@@@Z PROC NEAR	; CDPSock::JoinToServer, COMDAT
; _this$ = ecx

; 283  : {

  00000	64 a1 00 00 00
	00		 mov	 eax, DWORD PTR fs:__except_list
  00006	6a ff		 push	 -1
  00008	68 00 00 00 00	 push	 __ehhandler$?JoinToServer@CDPSock@@QAEHW4BUFFER_TYPE@@@Z
  0000d	50		 push	 eax
  0000e	64 89 25 00 00
	00 00		 mov	 DWORD PTR fs:__except_list, esp
  00015	83 ec 08	 sub	 esp, 8
  00018	55		 push	 ebp
  00019	56		 push	 esi
  0001a	57		 push	 edi
  0001b	8b f9		 mov	 edi, ecx

; 284  : 	Close();

  0001d	e8 00 00 00 00	 call	 ?CloseIoWorker@CDPSock@@AAEHXZ ; CDPSock::CloseIoWorker
  00022	8b 4f 04	 mov	 ecx, DWORD PTR [edi+4]
  00025	33 ed		 xor	 ebp, ebp
  00027	3b cd		 cmp	 ecx, ebp
  00029	74 15		 je	 SHORT $L235562
  0002b	8b 01		 mov	 eax, DWORD PTR [ecx]
  0002d	ff 50 1c	 call	 DWORD PTR [eax+28]
  00030	8b 4f 04	 mov	 ecx, DWORD PTR [edi+4]
  00033	3b cd		 cmp	 ecx, ebp
  00035	74 09		 je	 SHORT $L235562
  00037	8b 11		 mov	 edx, DWORD PTR [ecx]
  00039	6a 01		 push	 1
  0003b	ff 12		 call	 DWORD PTR [edx]
  0003d	89 6f 04	 mov	 DWORD PTR [edi+4], ebp
$L235562:
  00040	6a 01		 push	 1
  00042	8d 4f 68	 lea	 ecx, DWORD PTR [edi+104]
  00045	e8 00 00 00 00	 call	 ?Clear@CBufferQueue@@QAEXH@Z ; CBufferQueue::Clear

; 285  : 
; 286  : 	CClientSock* pSock;
; 287  : #ifdef __CRC
; 288  : 	if( CSock::crcRead & dwcrc )
; 289  : 	{
; 290  : 		m_dwReadHeaderSize	= HEADERSIZE13;
; 291  : 		m_dwDataSizeOffset	= sizeof(char) + sizeof(DWORD);
; 292  : 	}
; 293  : 	else
; 294  : 	{
; 295  : 		m_dwReadHeaderSize	= HEADERSIZE5;
; 296  : 		m_dwDataSizeOffset	= sizeof(char);
; 297  : 	}
; 298  : 
; 299  : 	pSock	= new CClientSock( dwcrc );
; 300  : #else	// __CRC
; 301  : 	pSock	= new CClientSock( nBufferType );

  0004a	68 94 04 00 00	 push	 1172			; 00000494H
  0004f	e8 00 00 00 00	 call	 ??2@YAPAXI@Z		; operator new
  00054	83 c4 04	 add	 esp, 4
  00057	89 44 24 10	 mov	 DWORD PTR $T235497[esp+32], eax
  0005b	3b c5		 cmp	 eax, ebp
  0005d	89 6c 24 1c	 mov	 DWORD PTR __$EHRec$[esp+40], ebp
  00061	74 10		 je	 SHORT $L235498
  00063	8b 4c 24 24	 mov	 ecx, DWORD PTR _nBufferType$[esp+28]
  00067	51		 push	 ecx
  00068	8b c8		 mov	 ecx, eax
  0006a	e8 00 00 00 00	 call	 ??0CClientSock@@QAE@W4BUFFER_TYPE@@@Z ; CClientSock::CClientSock
  0006f	8b f0		 mov	 esi, eax
  00071	eb 02		 jmp	 SHORT $L235499
$L235498:
  00073	33 f6		 xor	 esi, esi
$L235499:

; 302  : #endif	// __CRC
; 303  : 	if( !pSock->Create() )

  00075	8b 16		 mov	 edx, DWORD PTR [esi]
  00077	6a 01		 push	 1
  00079	55		 push	 ebp
  0007a	8b ce		 mov	 ecx, esi
  0007c	c7 44 24 24 ff
	ff ff ff	 mov	 DWORD PTR __$EHRec$[esp+48], -1
  00084	ff 52 04	 call	 DWORD PTR [edx+4]
  00087	85 c0		 test	 eax, eax
  00089	75 1e		 jne	 SHORT $L229427

; 304  : 	{
; 305  : 		SAFE_DELETE( pSock );

  0008b	8b 06		 mov	 eax, DWORD PTR [esi]
  0008d	6a 01		 push	 1
  0008f	8b ce		 mov	 ecx, esi
  00091	ff 10		 call	 DWORD PTR [eax]
$L235565:
  00093	5f		 pop	 edi
  00094	5e		 pop	 esi

; 306  : 		return FALSE;

  00095	33 c0		 xor	 eax, eax
  00097	5d		 pop	 ebp

; 335  : 
; 336  : #ifdef __PROTOCOL0910
; 337  : 	if( CSock::crcWrite & dwcrc )
; 338  : 	{
; 339  : 		if( WaitForSingleObject( m_hProtocolId, uWaitingTime ) == WAIT_TIMEOUT )
; 340  : 		{
; 341  : 			TRACE( "WAIT_TIMEOUT\n" );
; 342  : 			PostQueuedCompletionStatus( m_phCompletionPort[iIoWorker], (DWORD)-4, (DWORD)pSock->GetHandle(), NULL );
; 343  : 			return FALSE;
; 344  : 		}
; 345  : 	}
; 346  : #endif	// __PROTOCOL0910
; 347  : 
; 348  : 	return TRUE;
; 349  : }

  00098	8b 4c 24 08	 mov	 ecx, DWORD PTR __$EHRec$[esp+20]
  0009c	64 89 0d 00 00
	00 00		 mov	 DWORD PTR fs:__except_list, ecx
  000a3	83 c4 14	 add	 esp, 20			; 00000014H
  000a6	c2 04 00	 ret	 4
$L229427:

; 307  : 	}
; 308  : 	m_fServer	= FALSE;	

  000a9	89 af 94 00 00
	00		 mov	 DWORD PTR [edi+148], ebp

; 309  : 	m_pSock		= pSock;

  000af	89 77 04	 mov	 DWORD PTR [edi+4], esi

; 310  : 	pSock->SetID( pSock->GetHandle() );

  000b2	8b 4e 04	 mov	 ecx, DWORD PTR [esi+4]
  000b5	89 4e 08	 mov	 DWORD PTR [esi+8], ecx

; 311  : 	pSock->SetPeerID( DPID_SERVERPLAYER );
; 312  : 
; 313  : 	if( !pSock->Connect( m_lpAddr, m_uPort ) )

  000b8	33 d2		 xor	 edx, edx
  000ba	c7 46 0c 01 00
	00 00		 mov	 DWORD PTR [esi+12], 1
  000c1	66 8b 57 08	 mov	 dx, WORD PTR [edi+8]
  000c5	8d 47 0a	 lea	 eax, DWORD PTR [edi+10]
  000c8	8b ce		 mov	 ecx, esi
  000ca	52		 push	 edx
  000cb	50		 push	 eax
  000cc	e8 00 00 00 00	 call	 ?Connect@CClientSock@@QAEHPADG@Z ; CClientSock::Connect
  000d1	85 c0		 test	 eax, eax

; 314  : 		return FALSE;

  000d3	74 be		 je	 SHORT $L235565
  000d5	53		 push	 ebx

; 315  : 
; 316  : 	CreateIoWorker( (u_long)0x01 );

  000d6	6a 01		 push	 1
  000d8	8b cf		 mov	 ecx, edi
  000da	e8 00 00 00 00	 call	 ?CreateIoWorker@CDPSock@@AAEHK@Z ; CDPSock::CreateIoWorker

; 317  : 
; 318  : 	int iIoWorker	= ( pSock->GetHandle() / 4 ) % GetIoWorkerCount();

  000df	8b 4e 04	 mov	 ecx, DWORD PTR [esi+4]
  000e2	8b c1		 mov	 eax, ecx
  000e4	c1 e8 02	 shr	 eax, 2
  000e7	33 d2		 xor	 edx, edx
  000e9	f7 77 2c	 div	 DWORD PTR [edi+44]

; 319  : 	if( !CreateIoCompletionPort( (HANDLE)pSock->GetHandle(), m_phCompletionPort[iIoWorker], (DWORD)( pSock->GetHandle() ),  0 ) )

  000ec	55		 push	 ebp
  000ed	51		 push	 ecx
  000ee	8b da		 mov	 ebx, edx
  000f0	8b 57 58	 mov	 edx, DWORD PTR [edi+88]
  000f3	8b 04 9a	 mov	 eax, DWORD PTR [edx+ebx*4]
  000f6	50		 push	 eax
  000f7	51		 push	 ecx
  000f8	ff 15 00 00 00
	00		 call	 DWORD PTR __imp__CreateIoCompletionPort@16
  000fe	85 c0		 test	 eax, eax
  00100	75 1f		 jne	 SHORT $L229437

; 320  : 	{
; 321  : 		TRACE( "Can't create completion port with error %d\n", WSAGetLastError() );
; 322  : 		SAFE_DELETE( pSock );

  00102	8b 16		 mov	 edx, DWORD PTR [esi]
  00104	6a 01		 push	 1
  00106	8b ce		 mov	 ecx, esi
  00108	ff 12		 call	 DWORD PTR [edx]
  0010a	5b		 pop	 ebx
  0010b	5f		 pop	 edi
  0010c	5e		 pop	 esi

; 323  : 		return FALSE;

  0010d	33 c0		 xor	 eax, eax
  0010f	5d		 pop	 ebp

; 335  : 
; 336  : #ifdef __PROTOCOL0910
; 337  : 	if( CSock::crcWrite & dwcrc )
; 338  : 	{
; 339  : 		if( WaitForSingleObject( m_hProtocolId, uWaitingTime ) == WAIT_TIMEOUT )
; 340  : 		{
; 341  : 			TRACE( "WAIT_TIMEOUT\n" );
; 342  : 			PostQueuedCompletionStatus( m_phCompletionPort[iIoWorker], (DWORD)-4, (DWORD)pSock->GetHandle(), NULL );
; 343  : 			return FALSE;
; 344  : 		}
; 345  : 	}
; 346  : #endif	// __PROTOCOL0910
; 347  : 
; 348  : 	return TRUE;
; 349  : }

  00110	8b 4c 24 08	 mov	 ecx, DWORD PTR __$EHRec$[esp+20]
  00114	64 89 0d 00 00
	00 00		 mov	 DWORD PTR fs:__except_list, ecx
  0011b	83 c4 14	 add	 esp, 20			; 00000014H
  0011e	c2 04 00	 ret	 4
$L229437:

; 324  : 	}
; 325  : 
; 326  : #ifdef __PROTOCOL0910
; 327  : 	m_hProtocolId	= CreateEvent( NULL, FALSE, FALSE, NULL );
; 328  : #endif	// __PROTOCOL0910
; 329  : 
; 330  : 	int zero	= 0;
; 331  : 	setsockopt( pSock->GetHandle(), SOL_SOCKET, SO_SNDBUF, (char *)&zero, sizeof(zero) );

  00121	6a 04		 push	 4
  00123	8d 44 24 14	 lea	 eax, DWORD PTR _zero$[esp+40]
  00127	50		 push	 eax
  00128	68 01 10 00 00	 push	 4097			; 00001001H
  0012d	89 6c 24 1c	 mov	 DWORD PTR _zero$[esp+48], ebp
  00131	8b 4e 04	 mov	 ecx, DWORD PTR [esi+4]
  00134	8b 2d 00 00 00
	00		 mov	 ebp, DWORD PTR __imp__setsockopt@20
  0013a	68 ff ff 00 00	 push	 65535			; 0000ffffH
  0013f	51		 push	 ecx
  00140	ff d5		 call	 ebp

; 332  : 	setsockopt( pSock->GetHandle(), SOL_SOCKET, SO_RCVBUF, (char *)&zero, sizeof(zero) );

  00142	8b 46 04	 mov	 eax, DWORD PTR [esi+4]
  00145	6a 04		 push	 4
  00147	8d 54 24 14	 lea	 edx, DWORD PTR _zero$[esp+40]
  0014b	52		 push	 edx
  0014c	68 02 10 00 00	 push	 4098			; 00001002H
  00151	68 ff ff 00 00	 push	 65535			; 0000ffffH
  00156	50		 push	 eax
  00157	ff d5		 call	 ebp

; 333  : 
; 334  : 	PostQueuedCompletionStatus( m_phCompletionPort[iIoWorker], NEWSOCKETMSG, (DWORD)pSock->GetHandle(), NULL );

  00159	8b 4e 04	 mov	 ecx, DWORD PTR [esi+4]
  0015c	8b 57 58	 mov	 edx, DWORD PTR [edi+88]
  0015f	8b 04 9a	 mov	 eax, DWORD PTR [edx+ebx*4]
  00162	6a 00		 push	 0
  00164	51		 push	 ecx
  00165	6a fd		 push	 -3			; fffffffdH
  00167	50		 push	 eax
  00168	ff 15 00 00 00
	00		 call	 DWORD PTR __imp__PostQueuedCompletionStatus@16

; 335  : 
; 336  : #ifdef __PROTOCOL0910
; 337  : 	if( CSock::crcWrite & dwcrc )
; 338  : 	{
; 339  : 		if( WaitForSingleObject( m_hProtocolId, uWaitingTime ) == WAIT_TIMEOUT )
; 340  : 		{
; 341  : 			TRACE( "WAIT_TIMEOUT\n" );
; 342  : 			PostQueuedCompletionStatus( m_phCompletionPort[iIoWorker], (DWORD)-4, (DWORD)pSock->GetHandle(), NULL );
; 343  : 			return FALSE;
; 344  : 		}
; 345  : 	}
; 346  : #endif	// __PROTOCOL0910
; 347  : 
; 348  : 	return TRUE;
; 349  : }

  0016e	8b 4c 24 18	 mov	 ecx, DWORD PTR __$EHRec$[esp+36]
  00172	5b		 pop	 ebx
  00173	5f		 pop	 edi
  00174	5e		 pop	 esi
  00175	b8 01 00 00 00	 mov	 eax, 1
  0017a	5d		 pop	 ebp
  0017b	64 89 0d 00 00
	00 00		 mov	 DWORD PTR fs:__except_list, ecx
  00182	83 c4 14	 add	 esp, 20			; 00000014H
  00185	c2 04 00	 ret	 4
_TEXT	ENDS
;	COMDAT text$x
text$x	SEGMENT
$L235508:
  00000	8b 45 f0	 mov	 eax, DWORD PTR $T235497[ebp]
  00003	50		 push	 eax
  00004	e8 00 00 00 00	 call	 ??3@YAXPAX@Z		; operator delete
  00009	59		 pop	 ecx
  0000a	c3		 ret	 0
__ehhandler$?JoinToServer@CDPSock@@QAEHW4BUFFER_TYPE@@@Z:
  0000b	b8 00 00 00 00	 mov	 eax, OFFSET FLAT:$T235561
  00010	e9 00 00 00 00	 jmp	 ___CxxFrameHandler
text$x	ENDS
?JoinToServer@CDPSock@@QAEHW4BUFFER_TYPE@@@Z ENDP	; CDPSock::JoinToServer
PUBLIC	?JoinToServerE@CDPSock@@QAEHW4BUFFER_TYPE@@@Z	; CDPSock::JoinToServerE
EXTRN	??0CClientSockE@@QAE@W4BUFFER_TYPE@@@Z:NEAR	; CClientSockE::CClientSockE
EXTRN	?Connect@CClientSockE@@QAEHPADG@Z:NEAR		; CClientSockE::Connect
;	COMDAT xdata$x
; File c:\documents and settings\test\mes documents\source\virtuos_v17\build\program\_network\net\include\sock.h
xdata$x	SEGMENT
$T235620 DD	0ffffffffH
	DD	FLAT:$L235580
$T235617 DD	019930520H
	DD	01H
	DD	FLAT:$T235620
	DD	2 DUP(00H)
	DD	2 DUP(00H)
; Function compile flags: /Ogty
; File c:\documents and settings\test\mes documents\source\virtuos_v17\build\program\_network\net\src\dpsock.cpp
xdata$x	ENDS
;	COMDAT ?JoinToServerE@CDPSock@@QAEHW4BUFFER_TYPE@@@Z
_TEXT	SEGMENT
_zero$ = -20						; size = 4
$T235573 = -16						; size = 4
__$EHRec$ = -12						; size = 12
_nBufferType$ = 8					; size = 4
?JoinToServerE@CDPSock@@QAEHW4BUFFER_TYPE@@@Z PROC NEAR	; CDPSock::JoinToServerE, COMDAT
; _this$ = ecx

; 356  : {

  00000	64 a1 00 00 00
	00		 mov	 eax, DWORD PTR fs:__except_list
  00006	6a ff		 push	 -1
  00008	68 00 00 00 00	 push	 __ehhandler$?JoinToServerE@CDPSock@@QAEHW4BUFFER_TYPE@@@Z
  0000d	50		 push	 eax
  0000e	64 89 25 00 00
	00 00		 mov	 DWORD PTR fs:__except_list, esp
  00015	83 ec 08	 sub	 esp, 8
  00018	53		 push	 ebx
  00019	56		 push	 esi
  0001a	57		 push	 edi
  0001b	8b f9		 mov	 edi, ecx

; 357  : 	Close();

  0001d	e8 00 00 00 00	 call	 ?CloseIoWorker@CDPSock@@AAEHXZ ; CDPSock::CloseIoWorker
  00022	8b 4f 04	 mov	 ecx, DWORD PTR [edi+4]
  00025	33 db		 xor	 ebx, ebx
  00027	3b cb		 cmp	 ecx, ebx
  00029	74 15		 je	 SHORT $L235593
  0002b	8b 01		 mov	 eax, DWORD PTR [ecx]
  0002d	ff 50 1c	 call	 DWORD PTR [eax+28]
  00030	8b 4f 04	 mov	 ecx, DWORD PTR [edi+4]
  00033	3b cb		 cmp	 ecx, ebx
  00035	74 09		 je	 SHORT $L235593
  00037	8b 11		 mov	 edx, DWORD PTR [ecx]
  00039	6a 01		 push	 1
  0003b	ff 12		 call	 DWORD PTR [edx]
  0003d	89 5f 04	 mov	 DWORD PTR [edi+4], ebx
$L235593:
  00040	6a 01		 push	 1
  00042	8d 4f 68	 lea	 ecx, DWORD PTR [edi+104]
  00045	e8 00 00 00 00	 call	 ?Clear@CBufferQueue@@QAEXH@Z ; CBufferQueue::Clear

; 358  : 
; 359  : #ifdef __CRC
; 360  : 	if( CSock::crcRead & dwcrc )
; 361  : 	{
; 362  : 		m_dwReadHeaderSize	= HEADERSIZE13;
; 363  : 		m_dwDataSizeOffset	= sizeof(char) + sizeof(DWORD);
; 364  : 	}
; 365  : 	else
; 366  : 	{
; 367  : 		m_dwReadHeaderSize	= HEADERSIZE5;
; 368  : 		m_dwDataSizeOffset	= sizeof(char);
; 369  : 	}
; 370  : 
; 371  : 	CClientSockE* pSock	= new CClientSockE( dwcrc );
; 372  : #else	// __CRC
; 373  : 	CClientSockE* pSock	= new CClientSockE( nBufferType );

  0004a	68 7c 04 00 00	 push	 1148			; 0000047cH
  0004f	e8 00 00 00 00	 call	 ??2@YAPAXI@Z		; operator new
  00054	83 c4 04	 add	 esp, 4
  00057	89 44 24 10	 mov	 DWORD PTR $T235573[esp+32], eax
  0005b	3b c3		 cmp	 eax, ebx
  0005d	89 5c 24 1c	 mov	 DWORD PTR __$EHRec$[esp+40], ebx
  00061	74 10		 je	 SHORT $L235574
  00063	8b 4c 24 24	 mov	 ecx, DWORD PTR _nBufferType$[esp+28]
  00067	51		 push	 ecx
  00068	8b c8		 mov	 ecx, eax
  0006a	e8 00 00 00 00	 call	 ??0CClientSockE@@QAE@W4BUFFER_TYPE@@@Z ; CClientSockE::CClientSockE
  0006f	8b f0		 mov	 esi, eax
  00071	eb 02		 jmp	 SHORT $L235575
$L235574:
  00073	33 f6		 xor	 esi, esi
$L235575:

; 374  : #endif	// __CRC
; 375  : 	if( !pSock->Create() )

  00075	8b 16		 mov	 edx, DWORD PTR [esi]
  00077	6a 01		 push	 1
  00079	53		 push	 ebx
  0007a	8b ce		 mov	 ecx, esi
  0007c	c7 44 24 24 ff
	ff ff ff	 mov	 DWORD PTR __$EHRec$[esp+48], -1
  00084	ff 52 04	 call	 DWORD PTR [edx+4]
  00087	85 c0		 test	 eax, eax
  00089	75 1e		 jne	 SHORT $L229456

; 376  : 	{
; 377  : 		SAFE_DELETE( pSock );

  0008b	8b 06		 mov	 eax, DWORD PTR [esi]
  0008d	6a 01		 push	 1
  0008f	8b ce		 mov	 ecx, esi
  00091	ff 10		 call	 DWORD PTR [eax]
  00093	5f		 pop	 edi
  00094	5e		 pop	 esi

; 378  : 		return FALSE;

  00095	33 c0		 xor	 eax, eax
  00097	5b		 pop	 ebx

; 407  : //		}
; 408  : 	}
; 409  : 
; 410  : 
; 411  : #ifdef __PROTOCOL0910
; 412  : 	if( CSock::crcWrite & dwcrc )
; 413  : 	{
; 414  : 		if( WaitForSingleObject( m_hProtocolId, uWaitingTime ) == WAIT_TIMEOUT )
; 415  : 		{
; 416  : 			TRACE( "WAIT_TIMEOUT\n" );
; 417  : 			RemoveThread( pSock->m_hWorker );
; 418  : 			CloseConnection( pSock->GetID() );
; 419  : 			return FALSE;
; 420  : 		}
; 421  : 	}
; 422  : #endif	// __PROTOCOL0910
; 423  : 
; 424  : 	return TRUE;
; 425  : }

  00098	8b 4c 24 08	 mov	 ecx, DWORD PTR __$EHRec$[esp+20]
  0009c	64 89 0d 00 00
	00 00		 mov	 DWORD PTR fs:__except_list, ecx
  000a3	83 c4 14	 add	 esp, 20			; 00000014H
  000a6	c2 04 00	 ret	 4
$L229456:

; 379  : 	}
; 380  : 	m_fServer	= FALSE;	

  000a9	89 9f 94 00 00
	00		 mov	 DWORD PTR [edi+148], ebx

; 381  : 	m_pSock		= pSock;

  000af	89 77 04	 mov	 DWORD PTR [edi+4], esi

; 382  : 	pSock->SetID( pSock->GetHandle() );

  000b2	8b 4e 04	 mov	 ecx, DWORD PTR [esi+4]
  000b5	89 4e 08	 mov	 DWORD PTR [esi+8], ecx

; 383  : 	pSock->SetPeerID( DPID_SERVERPLAYER );
; 384  : 
; 385  : 
; 386  : 	if( !pSock->Connect( m_lpAddr, m_uPort ) )

  000b8	33 d2		 xor	 edx, edx
  000ba	c7 46 0c 01 00
	00 00		 mov	 DWORD PTR [esi+12], 1
  000c1	66 8b 57 08	 mov	 dx, WORD PTR [edi+8]
  000c5	8d 47 0a	 lea	 eax, DWORD PTR [edi+10]
  000c8	8b ce		 mov	 ecx, esi
  000ca	52		 push	 edx
  000cb	50		 push	 eax
  000cc	e8 00 00 00 00	 call	 ?Connect@CClientSockE@@QAEHPADG@Z ; CClientSockE::Connect
  000d1	85 c0		 test	 eax, eax

; 387  : 		return FALSE;

  000d3	74 6b		 je	 SHORT $L235619

; 388  : 
; 389  : 	CreateEventWorker( (CClientSockE*)pSock );

  000d5	56		 push	 esi
  000d6	8b cf		 mov	 ecx, edi
  000d8	e8 00 00 00 00	 call	 ?CreateEventWorker@CDPSock@@QAEHPAVCSock@@@Z ; CDPSock::CreateEventWorker

; 390  : 
; 391  : #ifdef __PROTOCOL0910
; 392  : 	m_hProtocolId	= CreateEvent( NULL, FALSE, FALSE, NULL );
; 393  : #endif	// __PROTOCOL0910
; 394  : 
; 395  : 	int zero	= 0;
; 396  : 	setsockopt( pSock->GetHandle(), SOL_SOCKET, SO_SNDBUF, (char*)&zero, sizeof(zero) );

  000dd	6a 04		 push	 4
  000df	8d 4c 24 10	 lea	 ecx, DWORD PTR _zero$[esp+36]
  000e3	51		 push	 ecx
  000e4	68 01 10 00 00	 push	 4097			; 00001001H
  000e9	89 5c 24 18	 mov	 DWORD PTR _zero$[esp+44], ebx
  000ed	8b 56 04	 mov	 edx, DWORD PTR [esi+4]
  000f0	8b 1d 00 00 00
	00		 mov	 ebx, DWORD PTR __imp__setsockopt@20
  000f6	68 ff ff 00 00	 push	 65535			; 0000ffffH
  000fb	52		 push	 edx
  000fc	ff d3		 call	 ebx

; 397  : 	setsockopt( pSock->GetHandle(), SOL_SOCKET, SO_RCVBUF, (char*)&zero, sizeof(zero) );

  000fe	8b 4e 04	 mov	 ecx, DWORD PTR [esi+4]
  00101	6a 04		 push	 4
  00103	8d 44 24 10	 lea	 eax, DWORD PTR _zero$[esp+36]
  00107	50		 push	 eax
  00108	68 02 10 00 00	 push	 4098			; 00001002H
  0010d	68 ff ff 00 00	 push	 65535			; 0000ffffH
  00112	51		 push	 ecx
  00113	ff d3		 call	 ebx

; 398  : 	
; 399  : 	InterlockedIncrement( &pSock->m_l );

  00115	8d 56 48	 lea	 edx, DWORD PTR [esi+72]
  00118	52		 push	 edx
  00119	ff 15 00 00 00
	00		 call	 DWORD PTR __imp__InterlockedIncrement@4

; 400  : 	if( pSock->Recv() != 0 )

  0011f	8b ce		 mov	 ecx, esi
  00121	e8 00 00 00 00	 call	 ?Recv@CClientSockE@@QAEHXZ ; CClientSockE::Recv
  00126	85 c0		 test	 eax, eax
  00128	74 2c		 je	 SHORT $L229466

; 401  : 	{
; 402  : 		TRACE( "I/0 error %d\n", WSAGetLastError() );
; 403  : //		if( pSock->m_l == 0 ) {
; 404  : 			RemoveThread( pSock->m_hWorker );

  0012a	8b 46 44	 mov	 eax, DWORD PTR [esi+68]
  0012d	50		 push	 eax
  0012e	8b cf		 mov	 ecx, edi
  00130	e8 00 00 00 00	 call	 ?RemoveThread@CDPSock@@QAEXPAX@Z ; CDPSock::RemoveThread

; 405  : 			CloseConnection( pSock->GetID() );

  00135	8b 4e 08	 mov	 ecx, DWORD PTR [esi+8]
  00138	51		 push	 ecx
  00139	8b cf		 mov	 ecx, edi
  0013b	e8 00 00 00 00	 call	 ?CloseConnection@CDPSock@@QAEXK@Z ; CDPSock::CloseConnection
$L235619:
  00140	5f		 pop	 edi
  00141	5e		 pop	 esi

; 406  : 			return FALSE;

  00142	33 c0		 xor	 eax, eax
  00144	5b		 pop	 ebx

; 407  : //		}
; 408  : 	}
; 409  : 
; 410  : 
; 411  : #ifdef __PROTOCOL0910
; 412  : 	if( CSock::crcWrite & dwcrc )
; 413  : 	{
; 414  : 		if( WaitForSingleObject( m_hProtocolId, uWaitingTime ) == WAIT_TIMEOUT )
; 415  : 		{
; 416  : 			TRACE( "WAIT_TIMEOUT\n" );
; 417  : 			RemoveThread( pSock->m_hWorker );
; 418  : 			CloseConnection( pSock->GetID() );
; 419  : 			return FALSE;
; 420  : 		}
; 421  : 	}
; 422  : #endif	// __PROTOCOL0910
; 423  : 
; 424  : 	return TRUE;
; 425  : }

  00145	8b 4c 24 08	 mov	 ecx, DWORD PTR __$EHRec$[esp+20]
  00149	64 89 0d 00 00
	00 00		 mov	 DWORD PTR fs:__except_list, ecx
  00150	83 c4 14	 add	 esp, 20			; 00000014H
  00153	c2 04 00	 ret	 4
$L229466:
  00156	8b 4c 24 14	 mov	 ecx, DWORD PTR __$EHRec$[esp+32]
  0015a	5f		 pop	 edi
  0015b	5e		 pop	 esi
  0015c	b8 01 00 00 00	 mov	 eax, 1
  00161	5b		 pop	 ebx
  00162	64 89 0d 00 00
	00 00		 mov	 DWORD PTR fs:__except_list, ecx
  00169	83 c4 14	 add	 esp, 20			; 00000014H
  0016c	c2 04 00	 ret	 4
_TEXT	ENDS
;	COMDAT text$x
text$x	SEGMENT
$L235580:
  00000	8b 45 f0	 mov	 eax, DWORD PTR $T235573[ebp]
  00003	50		 push	 eax
  00004	e8 00 00 00 00	 call	 ??3@YAXPAX@Z		; operator delete
  00009	59		 pop	 ecx
  0000a	c3		 ret	 0
__ehhandler$?JoinToServerE@CDPSock@@QAEHW4BUFFER_TYPE@@@Z:
  0000b	b8 00 00 00 00	 mov	 eax, OFFSET FLAT:$T235617
  00010	e9 00 00 00 00	 jmp	 ___CxxFrameHandler
text$x	ENDS
?JoinToServerE@CDPSock@@QAEHW4BUFFER_TYPE@@@Z ENDP	; CDPSock::JoinToServerE
END
