; Listing generated by Microsoft (R) Optimizing Compiler Version 13.10.6030 

	TITLE	\Documents and Settings\test\Mes documents\Source\Virtuos_v17\Build\Program\_Common\Item.cpp
	.386P
include listing.inc
if @Version gt 510
.model FLAT
else
_TEXT	SEGMENT PARA USE32 PUBLIC 'CODE'
_TEXT	ENDS
_DATA	SEGMENT DWORD USE32 PUBLIC 'DATA'
_DATA	ENDS
CONST	SEGMENT DWORD USE32 PUBLIC 'CONST'
CONST	ENDS
_BSS	SEGMENT DWORD USE32 PUBLIC 'BSS'
_BSS	ENDS
$$SYMBOLS	SEGMENT BYTE USE32 'DEBSYM'
$$SYMBOLS	ENDS
$$TYPES	SEGMENT BYTE USE32 'DEBTYP'
$$TYPES	ENDS
_TLS	SEGMENT DWORD USE32 PUBLIC 'TLS'
_TLS	ENDS
;	COMDAT ??_C@_0DD@LBMHJLIP@bySelectFlag?5is?5invalid?5value?4?5b@
CONST	SEGMENT DWORD USE32 PUBLIC 'CONST'
CONST	ENDS
xdata$x	SEGMENT DWORD USE32 PUBLIC 'CONST'
xdata$x	ENDS
text$AFX_COL1	SEGMENT PARA USE32 PUBLIC ''
text$AFX_COL1	ENDS
;	COMDAT ??1CSerialNumber@@UAE@XZ
_TEXT	SEGMENT PARA USE32 PUBLIC 'CODE'
_TEXT	ENDS
;	COMDAT ??_GCSerialNumber@@UAEPAXI@Z
_TEXT	SEGMENT PARA USE32 PUBLIC 'CODE'
_TEXT	ENDS
;	COMDAT ?IsUsableItem@@YAHPAVCItemBase@@@Z
_TEXT	SEGMENT PARA USE32 PUBLIC 'CODE'
_TEXT	ENDS
;	COMDAT ?IsUsingItem@@YAHPAVCItemBase@@@Z
_TEXT	SEGMENT PARA USE32 PUBLIC 'CODE'
_TEXT	ENDS
;	COMDAT ??0CItemBase@@QAE@XZ
_TEXT	SEGMENT PARA USE32 PUBLIC 'CODE'
_TEXT	ENDS
;	COMDAT ?Empty@CItemBase@@UAEXXZ
_TEXT	SEGMENT PARA USE32 PUBLIC 'CODE'
_TEXT	ENDS
;	COMDAT ?GetPropA@CItemBase@@QAEPAUItemProp@@XZ
_TEXT	SEGMENT PARA USE32 PUBLIC 'CODE'
_TEXT	ENDS
;	COMDAT ??4CItemBase@@UAEAAV0@AAV0@@Z
_TEXT	SEGMENT PARA USE32 PUBLIC 'CODE'
_TEXT	ENDS
;	COMDAT ?SetTexture@CItemBase@@QAEXXZ
_TEXT	SEGMENT PARA USE32 PUBLIC 'CODE'
_TEXT	ENDS
;	COMDAT ?GetCost@CItemBase@@QAEHXZ
_TEXT	SEGMENT PARA USE32 PUBLIC 'CODE'
_TEXT	ENDS
;	COMDAT ?GetChipCost@CItemBase@@QAEKXZ
_TEXT	SEGMENT PARA USE32 PUBLIC 'CODE'
_TEXT	ENDS
;	COMDAT ?IsQuest@CItemBase@@QAEHXZ
_TEXT	SEGMENT PARA USE32 PUBLIC 'CODE'
_TEXT	ENDS
;	COMDAT ??0CItemElem@@QAE@XZ
_TEXT	SEGMENT PARA USE32 PUBLIC 'CODE'
_TEXT	ENDS
;	COMDAT ??_GCItemElem@@UAEPAXI@Z
_TEXT	SEGMENT PARA USE32 PUBLIC 'CODE'
_TEXT	ENDS
;	COMDAT ??1CItemElem@@UAE@XZ
_TEXT	SEGMENT PARA USE32 PUBLIC 'CODE'
_TEXT	ENDS
;	COMDAT ?Empty@CItemElem@@UAEXXZ
_TEXT	SEGMENT PARA USE32 PUBLIC 'CODE'
_TEXT	ENDS
;	COMDAT ?GetGold@CItemElem@@QAEHXZ
_TEXT	SEGMENT PARA USE32 PUBLIC 'CODE'
_TEXT	ENDS
;	COMDAT ?UseItem@CItemElem@@QAEXXZ
_TEXT	SEGMENT PARA USE32 PUBLIC 'CODE'
_TEXT	ENDS
;	COMDAT ??4CItemElem@@UAEAAV0@AAV0@@Z
_TEXT	SEGMENT PARA USE32 PUBLIC 'CODE'
_TEXT	ENDS
;	COMDAT ?IsCharged@CItemElem@@QAEHXZ
_TEXT	SEGMENT PARA USE32 PUBLIC 'CODE'
_TEXT	ENDS
;	COMDAT ?GetPiercingAvail@CItemElem@@QAEXPAU_PIERCINGAVAIL@@@Z
_TEXT	SEGMENT PARA USE32 PUBLIC 'CODE'
_TEXT	ENDS
;	COMDAT ?IsDiceRefineryAble@CItemElem@@SAHPAUItemProp@@@Z
_TEXT	SEGMENT PARA USE32 PUBLIC 'CODE'
_TEXT	ENDS
;	COMDAT ?IsEleRefineryAble@CItemElem@@SAHPAUItemProp@@@Z
_TEXT	SEGMENT PARA USE32 PUBLIC 'CODE'
_TEXT	ENDS
;	COMDAT ?IsElementalCard@CItemElem@@SAHK@Z
_TEXT	SEGMENT PARA USE32 PUBLIC 'CODE'
_TEXT	ENDS
;	COMDAT ?IsBinds@CItemElem@@QAEHXZ
_TEXT	SEGMENT PARA USE32 PUBLIC 'CODE'
_TEXT	ENDS
;	COMDAT ?IsUndestructable@CItemElem@@QAEHXZ
_TEXT	SEGMENT PARA USE32 PUBLIC 'CODE'
_TEXT	ENDS
;	COMDAT ?IsLogable@CItemElem@@QAEHXZ
_TEXT	SEGMENT PARA USE32 PUBLIC 'CODE'
_TEXT	ENDS
;	COMDAT ??0CItem@@QAE@XZ
_TEXT	SEGMENT PARA USE32 PUBLIC 'CODE'
_TEXT	ENDS
;	COMDAT ??_GCItem@@UAEPAXI@Z
_TEXT	SEGMENT PARA USE32 PUBLIC 'CODE'
_TEXT	ENDS
;	COMDAT ?SetOwner@CItem@@QAEXK@Z
_TEXT	SEGMENT PARA USE32 PUBLIC 'CODE'
_TEXT	ENDS
;	COMDAT ??1CItem@@UAE@XZ
_TEXT	SEGMENT PARA USE32 PUBLIC 'CODE'
_TEXT	ENDS
;	COMDAT ?Read@CItem@@UAEHPAVCFileIO@@@Z
_TEXT	SEGMENT PARA USE32 PUBLIC 'CODE'
_TEXT	ENDS
;	COMDAT ?Process@CItem@@UAEXXZ
_TEXT	SEGMENT PARA USE32 PUBLIC 'CODE'
_TEXT	ENDS
;	COMDAT ?Render@CItem@@UAEXPAUIDirect3DDevice9@@@Z
_TEXT	SEGMENT PARA USE32 PUBLIC 'CODE'
_TEXT	ENDS
;	COMDAT ?RenderName@CItem@@UAEXPAUIDirect3DDevice9@@PAVCD3DFont@@K@Z
_TEXT	SEGMENT PARA USE32 PUBLIC 'CODE'
_TEXT	ENDS
;	COMDAT ?SetSerialNumber@CItemBase@@QAEXXZ
_TEXT	SEGMENT PARA USE32 PUBLIC 'CODE'
_TEXT	ENDS
;	COMDAT ?GetName@CItemElem@@QAE?AV?$CStringT@DV?$StrTraitMFC@DV?$ChTraitsCRT@D@ATL@@@@@ATL@@XZ
_TEXT	SEGMENT PARA USE32 PUBLIC 'CODE'
_TEXT	ENDS
;	COMDAT ?GetLevelDown@CItemElem@@QAEHXZ
_TEXT	SEGMENT PARA USE32 PUBLIC 'CODE'
_TEXT	ENDS
;	COMDAT ?SetLevelDown@CItemElem@@QAEXH@Z
_TEXT	SEGMENT PARA USE32 PUBLIC 'CODE'
_TEXT	ENDS
;	COMDAT ?GetLimitLevel@CItemElem@@QAEKXZ
_TEXT	SEGMENT PARA USE32 PUBLIC 'CODE'
_TEXT	ENDS
;	COMDAT ?IsLimitLevel@CItemElem@@QAEHPAVCMover@@@Z
_TEXT	SEGMENT PARA USE32 PUBLIC 'CODE'
_TEXT	ENDS
;	COMDAT ?IsPierceAble@CItemElem@@QAEHKH@Z
_TEXT	SEGMENT PARA USE32 PUBLIC 'CODE'
_TEXT	ENDS
;	COMDAT ?IsActiveTicket@CItemElem@@QAEHK@Z
_TEXT	SEGMENT PARA USE32 PUBLIC 'CODE'
_TEXT	ENDS
;	COMDAT ?IsNeedTarget@@YAHPAUItemProp@@@Z
_TEXT	SEGMENT PARA USE32 PUBLIC 'CODE'
_TEXT	ENDS
;	COMDAT ?IsEgg@CItemElem@@QAEHXZ
_TEXT	SEGMENT PARA USE32 PUBLIC 'CODE'
_TEXT	ENDS
;	COMDAT ?SetSwapVisItem@CItemElem@@QAEXHH@Z
_TEXT	SEGMENT PARA USE32 PUBLIC 'CODE'
_TEXT	ENDS
;	COMDAT ?GetVisPetSfxId@CItemElem@@QAEKXZ
_TEXT	SEGMENT PARA USE32 PUBLIC 'CODE'
_TEXT	ENDS
;	COMDAT ?GetNewRandomOption@CItemElem@@QAE_JXZ
_TEXT	SEGMENT PARA USE32 PUBLIC 'CODE'
_TEXT	ENDS
;	COMDAT ?GetNewRandomOptionPtr@CItemElem@@QAEPA_JXZ
_TEXT	SEGMENT PARA USE32 PUBLIC 'CODE'
_TEXT	ENDS
;	COMDAT ?ResetNewRandomOption@CItemElem@@QAEXXZ
_TEXT	SEGMENT PARA USE32 PUBLIC 'CODE'
_TEXT	ENDS
;	COMDAT ?SelectNewRandomOption@CItemElem@@QAEXXZ
_TEXT	SEGMENT PARA USE32 PUBLIC 'CODE'
_TEXT	ENDS
;	COMDAT ?SelectRandomOption@CItemElem@@QAE_NE@Z
_TEXT	SEGMENT PARA USE32 PUBLIC 'CODE'
_TEXT	ENDS
;	COMDAT ?Format@?$CStringT@DV?$StrTraitMFC@DV?$ChTraitsCRT@D@ATL@@@@@ATL@@QAAXPBDZZ
_TEXT	SEGMENT PARA USE32 PUBLIC 'CODE'
_TEXT	ENDS
;	COMDAT ?compare@?$basic_string@DU?$char_traits@D@std@@V?$allocator@D@2@@std@@QBEHABV12@@Z
_TEXT	SEGMENT PARA USE32 PUBLIC 'CODE'
_TEXT	ENDS
;	COMDAT ?IsFull@?$CStack@K@@QAEHXZ
_TEXT	SEGMENT PARA USE32 PUBLIC 'CODE'
_TEXT	ENDS
;	COMDAT ??0?$pair@KPAVCCtrl@@@std@@QAE@ABKABQAVCCtrl@@@Z
_TEXT	SEGMENT PARA USE32 PUBLIC 'CODE'
_TEXT	ENDS
;	COMDAT ?GetMax@?$CItemContainer@VCItemElem@@@@QAEHXZ
_TEXT	SEGMENT PARA USE32 PUBLIC 'CODE'
_TEXT	ENDS
;	COMDAT ??0?$deque@PAUtagACTMSG@@V?$allocator@PAUtagACTMSG@@@std@@@std@@QAE@XZ
_TEXT	SEGMENT PARA USE32 PUBLIC 'CODE'
_TEXT	ENDS
;	COMDAT ??1?$deque@PAUtagACTMSG@@V?$allocator@PAUtagACTMSG@@@std@@@std@@QAE@XZ
_TEXT	SEGMENT PARA USE32 PUBLIC 'CODE'
_TEXT	ENDS
;	COMDAT ?begin@?$deque@PAUtagACTMSG@@V?$allocator@PAUtagACTMSG@@@std@@@std@@QAE?AViterator@12@XZ
_TEXT	SEGMENT PARA USE32 PUBLIC 'CODE'
_TEXT	ENDS
;	COMDAT ?end@?$deque@PAUtagACTMSG@@V?$allocator@PAUtagACTMSG@@@std@@@std@@QAE?AViterator@12@XZ
_TEXT	SEGMENT PARA USE32 PUBLIC 'CODE'
_TEXT	ENDS
;	COMDAT ?empty@?$deque@PAUtagACTMSG@@V?$allocator@PAUtagACTMSG@@@std@@@std@@QBE_NXZ
_TEXT	SEGMENT PARA USE32 PUBLIC 'CODE'
_TEXT	ENDS
;	COMDAT ?clear@?$deque@PAUtagACTMSG@@V?$allocator@PAUtagACTMSG@@@std@@@std@@QAEXXZ
_TEXT	SEGMENT PARA USE32 PUBLIC 'CODE'
_TEXT	ENDS
;	COMDAT ??0?$deque@PAUtagMAGICATKMSG@@V?$allocator@PAUtagMAGICATKMSG@@@std@@@std@@QAE@XZ
_TEXT	SEGMENT PARA USE32 PUBLIC 'CODE'
_TEXT	ENDS
;	COMDAT ??1?$deque@PAUtagMAGICATKMSG@@V?$allocator@PAUtagMAGICATKMSG@@@std@@@std@@QAE@XZ
_TEXT	SEGMENT PARA USE32 PUBLIC 'CODE'
_TEXT	ENDS
;	COMDAT ?begin@?$deque@PAUtagMAGICATKMSG@@V?$allocator@PAUtagMAGICATKMSG@@@std@@@std@@QAE?AViterator@12@XZ
_TEXT	SEGMENT PARA USE32 PUBLIC 'CODE'
_TEXT	ENDS
;	COMDAT ?end@?$deque@PAUtagMAGICATKMSG@@V?$allocator@PAUtagMAGICATKMSG@@@std@@@std@@QAE?AViterator@12@XZ
_TEXT	SEGMENT PARA USE32 PUBLIC 'CODE'
_TEXT	ENDS
;	COMDAT ?empty@?$deque@PAUtagMAGICATKMSG@@V?$allocator@PAUtagMAGICATKMSG@@@std@@@std@@QBE_NXZ
_TEXT	SEGMENT PARA USE32 PUBLIC 'CODE'
_TEXT	ENDS
;	COMDAT ?clear@?$deque@PAUtagMAGICATKMSG@@V?$allocator@PAUtagMAGICATKMSG@@@std@@@std@@QAEXXZ
_TEXT	SEGMENT PARA USE32 PUBLIC 'CODE'
_TEXT	ENDS
;	COMDAT ??Diterator@?$deque@PAUtagACTMSG@@V?$allocator@PAUtagACTMSG@@@std@@@std@@QBEAAPAUtagACTMSG@@XZ
_TEXT	SEGMENT PARA USE32 PUBLIC 'CODE'
_TEXT	ENDS
;	COMDAT ??Eiterator@?$deque@PAUtagACTMSG@@V?$allocator@PAUtagACTMSG@@@std@@@std@@QAEAAV012@XZ
_TEXT	SEGMENT PARA USE32 PUBLIC 'CODE'
_TEXT	ENDS
;	COMDAT ??9const_iterator@?$deque@PAUtagACTMSG@@V?$allocator@PAUtagACTMSG@@@std@@@std@@QBE_NABV012@@Z
_TEXT	SEGMENT PARA USE32 PUBLIC 'CODE'
_TEXT	ENDS
;	COMDAT ??Diterator@?$deque@PAUtagMAGICATKMSG@@V?$allocator@PAUtagMAGICATKMSG@@@std@@@std@@QBEAAPAUtagMAGICATKMSG@@XZ
_TEXT	SEGMENT PARA USE32 PUBLIC 'CODE'
_TEXT	ENDS
;	COMDAT ??Eiterator@?$deque@PAUtagMAGICATKMSG@@V?$allocator@PAUtagMAGICATKMSG@@@std@@@std@@QAEAAV012@XZ
_TEXT	SEGMENT PARA USE32 PUBLIC 'CODE'
_TEXT	ENDS
;	COMDAT ??9const_iterator@?$deque@PAUtagMAGICATKMSG@@V?$allocator@PAUtagMAGICATKMSG@@@std@@@std@@QBE_NABV012@@Z
_TEXT	SEGMENT PARA USE32 PUBLIC 'CODE'
_TEXT	ENDS
;	COMDAT ??0?$vector@U_AdjData@@V?$allocator@U_AdjData@@@std@@@std@@QAE@XZ
_TEXT	SEGMENT PARA USE32 PUBLIC 'CODE'
_TEXT	ENDS
;	COMDAT ??1?$vector@U_AdjData@@V?$allocator@U_AdjData@@@std@@@std@@QAE@XZ
_TEXT	SEGMENT PARA USE32 PUBLIC 'CODE'
_TEXT	ENDS
;	COMDAT ?begin@?$vector@U_AdjData@@V?$allocator@U_AdjData@@@std@@@std@@QAE?AViterator@12@XZ
_TEXT	SEGMENT PARA USE32 PUBLIC 'CODE'
_TEXT	ENDS
;	COMDAT ?end@?$vector@U_AdjData@@V?$allocator@U_AdjData@@@std@@@std@@QAE?AViterator@12@XZ
_TEXT	SEGMENT PARA USE32 PUBLIC 'CODE'
_TEXT	ENDS
;	COMDAT ?FormatV@?$CStringT@DV?$StrTraitMFC@DV?$ChTraitsCRT@D@ATL@@@@@ATL@@QAEXPBDPAD@Z
_TEXT	SEGMENT PARA USE32 PUBLIC 'CODE'
_TEXT	ENDS
;	COMDAT ?compare@?$basic_string@DU?$char_traits@D@std@@V?$allocator@D@2@@std@@QBEHIIPBDI@Z
_TEXT	SEGMENT PARA USE32 PUBLIC 'CODE'
_TEXT	ENDS
;	COMDAT ?_Tidy@?$deque@PAUtagACTMSG@@V?$allocator@PAUtagACTMSG@@@std@@@std@@IAEXXZ
_TEXT	SEGMENT PARA USE32 PUBLIC 'CODE'
_TEXT	ENDS
;	COMDAT ??0?$_Deque_val@PAUtagACTMSG@@V?$allocator@PAUtagACTMSG@@@std@@@std@@IAE@V?$allocator@PAUtagACTMSG@@@1@@Z
_TEXT	SEGMENT PARA USE32 PUBLIC 'CODE'
_TEXT	ENDS
;	COMDAT ??0?$allocator@PAUtagACTMSG@@@std@@QAE@XZ
_TEXT	SEGMENT PARA USE32 PUBLIC 'CODE'
_TEXT	ENDS
;	COMDAT ?_Tidy@?$deque@PAUtagMAGICATKMSG@@V?$allocator@PAUtagMAGICATKMSG@@@std@@@std@@IAEXXZ
_TEXT	SEGMENT PARA USE32 PUBLIC 'CODE'
_TEXT	ENDS
;	COMDAT ??0?$_Deque_val@PAUtagMAGICATKMSG@@V?$allocator@PAUtagMAGICATKMSG@@@std@@@std@@IAE@V?$allocator@PAUtagMAGICATKMSG@@@1@@Z
_TEXT	SEGMENT PARA USE32 PUBLIC 'CODE'
_TEXT	ENDS
;	COMDAT ??0?$allocator@PAUtagMAGICATKMSG@@@std@@QAE@XZ
_TEXT	SEGMENT PARA USE32 PUBLIC 'CODE'
_TEXT	ENDS
;	COMDAT ??0iterator@?$deque@PAUtagACTMSG@@V?$allocator@PAUtagACTMSG@@@std@@@std@@QAE@IPBV12@@Z
_TEXT	SEGMENT PARA USE32 PUBLIC 'CODE'
_TEXT	ENDS
;	COMDAT ??Dconst_iterator@?$deque@PAUtagACTMSG@@V?$allocator@PAUtagACTMSG@@@std@@@std@@QBEABQAUtagACTMSG@@XZ
_TEXT	SEGMENT PARA USE32 PUBLIC 'CODE'
_TEXT	ENDS
;	COMDAT ??8const_iterator@?$deque@PAUtagACTMSG@@V?$allocator@PAUtagACTMSG@@@std@@@std@@QBE_NABV012@@Z
_TEXT	SEGMENT PARA USE32 PUBLIC 'CODE'
_TEXT	ENDS
;	COMDAT ??0iterator@?$deque@PAUtagMAGICATKMSG@@V?$allocator@PAUtagMAGICATKMSG@@@std@@@std@@QAE@IPBV12@@Z
_TEXT	SEGMENT PARA USE32 PUBLIC 'CODE'
_TEXT	ENDS
;	COMDAT ??Dconst_iterator@?$deque@PAUtagMAGICATKMSG@@V?$allocator@PAUtagMAGICATKMSG@@@std@@@std@@QBEABQAUtagMAGICATKMSG@@XZ
_TEXT	SEGMENT PARA USE32 PUBLIC 'CODE'
_TEXT	ENDS
;	COMDAT ??8const_iterator@?$deque@PAUtagMAGICATKMSG@@V?$allocator@PAUtagMAGICATKMSG@@@std@@@std@@QBE_NABV012@@Z
_TEXT	SEGMENT PARA USE32 PUBLIC 'CODE'
_TEXT	ENDS
;	COMDAT ?_Buy@?$vector@U_AdjData@@V?$allocator@U_AdjData@@@std@@@std@@IAE_NI@Z
_TEXT	SEGMENT PARA USE32 PUBLIC 'CODE'
_TEXT	ENDS
;	COMDAT ?_Tidy@?$vector@U_AdjData@@V?$allocator@U_AdjData@@@std@@@std@@IAEXXZ
_TEXT	SEGMENT PARA USE32 PUBLIC 'CODE'
_TEXT	ENDS
;	COMDAT ??0?$_Vector_val@U_AdjData@@V?$allocator@U_AdjData@@@std@@@std@@IAE@V?$allocator@U_AdjData@@@1@@Z
_TEXT	SEGMENT PARA USE32 PUBLIC 'CODE'
_TEXT	ENDS
;	COMDAT ??0?$allocator@U_AdjData@@@std@@QAE@XZ
_TEXT	SEGMENT PARA USE32 PUBLIC 'CODE'
_TEXT	ENDS
;	COMDAT ??0iterator@?$vector@U_AdjData@@V?$allocator@U_AdjData@@@std@@@std@@QAE@PAU_AdjData@@@Z
_TEXT	SEGMENT PARA USE32 PUBLIC 'CODE'
_TEXT	ENDS
;	COMDAT ?pop_back@?$deque@PAUtagACTMSG@@V?$allocator@PAUtagACTMSG@@@std@@@std@@QAEXXZ
_TEXT	SEGMENT PARA USE32 PUBLIC 'CODE'
_TEXT	ENDS
;	COMDAT ??0?$_Deque_map@PAUtagACTMSG@@V?$allocator@PAUtagACTMSG@@@std@@@std@@IAE@V?$allocator@PAUtagACTMSG@@@1@@Z
_TEXT	SEGMENT PARA USE32 PUBLIC 'CODE'
_TEXT	ENDS
;	COMDAT ??0?$allocator@PAUtagACTMSG@@@std@@QAE@ABV01@@Z
_TEXT	SEGMENT PARA USE32 PUBLIC 'CODE'
_TEXT	ENDS
;	COMDAT ?deallocate@?$allocator@PAUtagACTMSG@@@std@@QAEXPAPAUtagACTMSG@@I@Z
_TEXT	SEGMENT PARA USE32 PUBLIC 'CODE'
_TEXT	ENDS
;	COMDAT ?deallocate@?$allocator@PAPAUtagACTMSG@@@std@@QAEXPAPAPAUtagACTMSG@@I@Z
_TEXT	SEGMENT PARA USE32 PUBLIC 'CODE'
_TEXT	ENDS
;	COMDAT ?destroy@?$allocator@PAPAUtagACTMSG@@@std@@QAEXPAPAPAUtagACTMSG@@@Z
_TEXT	SEGMENT PARA USE32 PUBLIC 'CODE'
_TEXT	ENDS
;	COMDAT ?pop_back@?$deque@PAUtagMAGICATKMSG@@V?$allocator@PAUtagMAGICATKMSG@@@std@@@std@@QAEXXZ
_TEXT	SEGMENT PARA USE32 PUBLIC 'CODE'
_TEXT	ENDS
;	COMDAT ??0?$_Deque_map@PAUtagMAGICATKMSG@@V?$allocator@PAUtagMAGICATKMSG@@@std@@@std@@IAE@V?$allocator@PAUtagMAGICATKMSG@@@1@@Z
_TEXT	SEGMENT PARA USE32 PUBLIC 'CODE'
_TEXT	ENDS
;	COMDAT ??0?$allocator@PAUtagMAGICATKMSG@@@std@@QAE@ABV01@@Z
_TEXT	SEGMENT PARA USE32 PUBLIC 'CODE'
_TEXT	ENDS
;	COMDAT ?deallocate@?$allocator@PAUtagMAGICATKMSG@@@std@@QAEXPAPAUtagMAGICATKMSG@@I@Z
_TEXT	SEGMENT PARA USE32 PUBLIC 'CODE'
_TEXT	ENDS
;	COMDAT ?deallocate@?$allocator@PAPAUtagMAGICATKMSG@@@std@@QAEXPAPAPAUtagMAGICATKMSG@@I@Z
_TEXT	SEGMENT PARA USE32 PUBLIC 'CODE'
_TEXT	ENDS
;	COMDAT ?destroy@?$allocator@PAPAUtagMAGICATKMSG@@@std@@QAEXPAPAPAUtagMAGICATKMSG@@@Z
_TEXT	SEGMENT PARA USE32 PUBLIC 'CODE'
_TEXT	ENDS
;	COMDAT ??0const_iterator@?$deque@PAUtagACTMSG@@V?$allocator@PAUtagACTMSG@@@std@@@std@@QAE@IPBV12@@Z
_TEXT	SEGMENT PARA USE32 PUBLIC 'CODE'
_TEXT	ENDS
;	COMDAT ??0const_iterator@?$deque@PAUtagMAGICATKMSG@@V?$allocator@PAUtagMAGICATKMSG@@@std@@@std@@QAE@IPBV12@@Z
_TEXT	SEGMENT PARA USE32 PUBLIC 'CODE'
_TEXT	ENDS
;	COMDAT ?max_size@?$vector@U_AdjData@@V?$allocator@U_AdjData@@@std@@@std@@QBEIXZ
_TEXT	SEGMENT PARA USE32 PUBLIC 'CODE'
_TEXT	ENDS
;	COMDAT ?_Destroy@?$vector@U_AdjData@@V?$allocator@U_AdjData@@@std@@@std@@IAEXPAU_AdjData@@0@Z
_TEXT	SEGMENT PARA USE32 PUBLIC 'CODE'
_TEXT	ENDS
;	COMDAT ?_Xlen@?$vector@U_AdjData@@V?$allocator@U_AdjData@@@std@@@std@@IBEXXZ
_TEXT	SEGMENT PARA USE32 PUBLIC 'CODE'
_TEXT	ENDS
;	COMDAT ??0?$allocator@U_AdjData@@@std@@QAE@ABV01@@Z
_TEXT	SEGMENT PARA USE32 PUBLIC 'CODE'
_TEXT	ENDS
;	COMDAT ?deallocate@?$allocator@U_AdjData@@@std@@QAEXPAU_AdjData@@I@Z
_TEXT	SEGMENT PARA USE32 PUBLIC 'CODE'
_TEXT	ENDS
;	COMDAT ?allocate@?$allocator@U_AdjData@@@std@@QAEPAU_AdjData@@I@Z
_TEXT	SEGMENT PARA USE32 PUBLIC 'CODE'
_TEXT	ENDS
;	COMDAT ??0const_iterator@?$vector@U_AdjData@@V?$allocator@U_AdjData@@@std@@@std@@QAE@PAU_AdjData@@@Z
_TEXT	SEGMENT PARA USE32 PUBLIC 'CODE'
_TEXT	ENDS
;	COMDAT ?destroy@?$allocator@PAUtagACTMSG@@@std@@QAEXPAPAUtagACTMSG@@@Z
_TEXT	SEGMENT PARA USE32 PUBLIC 'CODE'
_TEXT	ENDS
;	COMDAT ?destroy@?$allocator@PAUtagMAGICATKMSG@@@std@@QAEXPAPAUtagMAGICATKMSG@@@Z
_TEXT	SEGMENT PARA USE32 PUBLIC 'CODE'
_TEXT	ENDS
;	COMDAT ?max_size@?$allocator@U_AdjData@@@std@@QBEIXZ
_TEXT	SEGMENT PARA USE32 PUBLIC 'CODE'
_TEXT	ENDS
;	COMDAT ??$_Iter_cat@Vconst_iterator@?$vector@EV?$allocator@E@std@@@std@@@std@@YA?AUrandom_access_iterator_tag@0@ABVconst_iterator@?$vector@EV?$allocator@E@std@@@0@@Z
_TEXT	SEGMENT PARA USE32 PUBLIC 'CODE'
_TEXT	ENDS
;	COMDAT ??$_Assign@Vconst_iterator@?$vector@EV?$allocator@E@std@@@std@@@?$vector@EV?$allocator@E@std@@@std@@QAEXVconst_iterator@01@0Uinput_iterator_tag@1@@Z
_TEXT	SEGMENT PARA USE32 PUBLIC 'CODE'
_TEXT	ENDS
;	COMDAT ??$_Iter_cat@Viterator@?$_Tree@V?$_Tmap_traits@KPAVCUser@@U?$less@K@std@@V?$allocator@U?$pair@$$CBKPAVCUser@@@std@@@3@$0A@@std@@@std@@@std@@YA?AUbidirectional_iterator_tag@0@ABViterator@?$_Tree@V?$_Tmap_traits@KPAVCUser@@U?$less@K@std@@V?$allocator@U?$pair@$$CBKPAVCUser@@@std@@@3@$0A@@std@@@0@@Z
_TEXT	SEGMENT PARA USE32 PUBLIC 'CODE'
_TEXT	ENDS
;	COMDAT ??$_Distance2@Viterator@?$_Tree@V?$_Tmap_traits@KPAVCUser@@U?$less@K@std@@V?$allocator@U?$pair@$$CBKPAVCUser@@@std@@@3@$0A@@std@@@std@@I@std@@YAXViterator@?$_Tree@V?$_Tmap_traits@KPAVCUser@@U?$less@K@std@@V?$allocator@U?$pair@$$CBKPAVCUser@@@std@@@3@$0A@@std@@@0@0AAIUbidirectional_iterator_tag@0@@Z
_TEXT	SEGMENT PARA USE32 PUBLIC 'CODE'
_TEXT	ENDS
;	COMDAT ??$_Iter_cat@Viterator@?$_Tree@V?$_Tmap_traits@KPAVCCtrl@@U?$less@K@std@@V?$allocator@U?$pair@$$CBKPAVCCtrl@@@std@@@3@$0A@@std@@@std@@@std@@YA?AUbidirectional_iterator_tag@0@ABViterator@?$_Tree@V?$_Tmap_traits@KPAVCCtrl@@U?$less@K@std@@V?$allocator@U?$pair@$$CBKPAVCCtrl@@@std@@@3@$0A@@std@@@0@@Z
_TEXT	SEGMENT PARA USE32 PUBLIC 'CODE'
_TEXT	ENDS
;	COMDAT ??$_Distance2@Viterator@?$_Tree@V?$_Tmap_traits@KPAVCCtrl@@U?$less@K@std@@V?$allocator@U?$pair@$$CBKPAVCCtrl@@@std@@@3@$0A@@std@@@std@@I@std@@YAXViterator@?$_Tree@V?$_Tmap_traits@KPAVCCtrl@@U?$less@K@std@@V?$allocator@U?$pair@$$CBKPAVCCtrl@@@std@@@3@$0A@@std@@@0@0AAIUbidirectional_iterator_tag@0@@Z
_TEXT	SEGMENT PARA USE32 PUBLIC 'CODE'
_TEXT	ENDS
;	COMDAT ??$_Uninitialized_copy@Vconst_iterator@?$vector@EV?$allocator@E@std@@@std@@PAEV?$allocator@E@3@@std@@YAPAEVconst_iterator@?$vector@EV?$allocator@E@std@@@0@0PAEAAV?$allocator@E@0@@Z
_TEXT	SEGMENT PARA USE32 PUBLIC 'CODE'
_TEXT	ENDS
;	COMDAT ??$_Iter_cat@Viterator@?$_Tree@V?$_Tmap_traits@KEU?$less@K@std@@V?$allocator@U?$pair@$$CBKE@std@@@2@$0A@@std@@@std@@@std@@YA?AUbidirectional_iterator_tag@0@ABViterator@?$_Tree@V?$_Tmap_traits@KEU?$less@K@std@@V?$allocator@U?$pair@$$CBKE@std@@@2@$0A@@std@@@0@@Z
_TEXT	SEGMENT PARA USE32 PUBLIC 'CODE'
_TEXT	ENDS
;	COMDAT ??$_Distance2@Viterator@?$_Tree@V?$_Tmap_traits@KEU?$less@K@std@@V?$allocator@U?$pair@$$CBKE@std@@@2@$0A@@std@@@std@@I@std@@YAXViterator@?$_Tree@V?$_Tmap_traits@KEU?$less@K@std@@V?$allocator@U?$pair@$$CBKE@std@@@2@$0A@@std@@@0@0AAIUbidirectional_iterator_tag@0@@Z
_TEXT	SEGMENT PARA USE32 PUBLIC 'CODE'
_TEXT	ENDS
;	COMDAT ??$_Ptr_cat@PAU__SPAWNREGION@CEventLua@@PAU12@@std@@YA?AU_Nonscalar_ptr_iterator_tag@0@AAPAU__SPAWNREGION@CEventLua@@0@Z
_TEXT	SEGMENT PARA USE32 PUBLIC 'CODE'
_TEXT	ENDS
;	COMDAT ??$_Uninit_fill_n@PAU__SPAWNREGION@CEventLua@@IU12@V?$allocator@U__SPAWNREGION@CEventLua@@@std@@@std@@YAXPAU__SPAWNREGION@CEventLua@@IABU12@AAV?$allocator@U__SPAWNREGION@CEventLua@@@0@U_Nonscalar_ptr_iterator_tag@0@@Z
_TEXT	SEGMENT PARA USE32 PUBLIC 'CODE'
_TEXT	ENDS
;	COMDAT ??$_Copy_opt@PAJPAJ@std@@YAPAJPAJ00U_Scalar_ptr_iterator_tag@0@@Z
_TEXT	SEGMENT PARA USE32 PUBLIC 'CODE'
_TEXT	ENDS
;	COMDAT ??$_Uninitialized_copy@PAJPAJV?$allocator@J@std@@@std@@YAPAJPAJ00AAV?$allocator@J@0@@Z
_TEXT	SEGMENT PARA USE32 PUBLIC 'CODE'
_TEXT	ENDS
;	COMDAT ??$_Copy_backward_opt@PAJPAJ@std@@YAPAJPAJ00U_Scalar_ptr_iterator_tag@0@@Z
_TEXT	SEGMENT PARA USE32 PUBLIC 'CODE'
_TEXT	ENDS
;	COMDAT ??$_Ptr_cat@PAUtagDROPITEM@@PAU1@@std@@YA?AU_Nonscalar_ptr_iterator_tag@0@AAPAUtagDROPITEM@@0@Z
_TEXT	SEGMENT PARA USE32 PUBLIC 'CODE'
_TEXT	ENDS
;	COMDAT ??$_Destroy_range@UtagDROPITEM@@V?$allocator@UtagDROPITEM@@@std@@@std@@YAXPAUtagDROPITEM@@0AAV?$allocator@UtagDROPITEM@@@0@U_Nonscalar_ptr_iterator_tag@0@@Z
_TEXT	SEGMENT PARA USE32 PUBLIC 'CODE'
_TEXT	ENDS
;	COMDAT ??$_Ptr_cat@PAUWORMON@@PAU1@@std@@YA?AU_Nonscalar_ptr_iterator_tag@0@AAPAUWORMON@@0@Z
_TEXT	SEGMENT PARA USE32 PUBLIC 'CODE'
_TEXT	ENDS
;	COMDAT ??$_Destroy_range@UWORMON@@V?$allocator@UWORMON@@@std@@@std@@YAXPAUWORMON@@0AAV?$allocator@UWORMON@@@0@U_Nonscalar_ptr_iterator_tag@0@@Z
_TEXT	SEGMENT PARA USE32 PUBLIC 'CODE'
_TEXT	ENDS
;	COMDAT ??$_Ptr_cat@PAU__ITEMGAME@CMiniGame@@PAU12@@std@@YA?AU_Nonscalar_ptr_iterator_tag@0@AAPAU__ITEMGAME@CMiniGame@@0@Z
_TEXT	SEGMENT PARA USE32 PUBLIC 'CODE'
_TEXT	ENDS
;	COMDAT ??$_Destroy_range@U__ITEMGAME@CMiniGame@@V?$allocator@U__ITEMGAME@CMiniGame@@@std@@@std@@YAXPAU__ITEMGAME@CMiniGame@@0AAV?$allocator@U__ITEMGAME@CMiniGame@@@0@U_Nonscalar_ptr_iterator_tag@0@@Z
_TEXT	SEGMENT PARA USE32 PUBLIC 'CODE'
_TEXT	ENDS
;	COMDAT ??$_Destroy_range@KV?$allocator@K@std@@@std@@YAXPAK0AAV?$allocator@K@0@U_Scalar_ptr_iterator_tag@0@@Z
_TEXT	SEGMENT PARA USE32 PUBLIC 'CODE'
_TEXT	ENDS
;	COMDAT ??$_Destroy_range@HV?$allocator@H@std@@@std@@YAXPAH0AAV?$allocator@H@0@U_Scalar_ptr_iterator_tag@0@@Z
_TEXT	SEGMENT PARA USE32 PUBLIC 'CODE'
_TEXT	ENDS
;	COMDAT ??$_Ptr_cat@PAU__ITEM@CExchange@@PAU12@@std@@YA?AU_Nonscalar_ptr_iterator_tag@0@AAPAU__ITEM@CExchange@@0@Z
_TEXT	SEGMENT PARA USE32 PUBLIC 'CODE'
_TEXT	ENDS
;	COMDAT ??$_Destroy_range@U__ITEM@CExchange@@V?$allocator@U__ITEM@CExchange@@@std@@@std@@YAXPAU__ITEM@CExchange@@0AAV?$allocator@U__ITEM@CExchange@@@0@U_Nonscalar_ptr_iterator_tag@0@@Z
_TEXT	SEGMENT PARA USE32 PUBLIC 'CODE'
_TEXT	ENDS
;	COMDAT ??$_Ptr_cat@PAU__POINT@CExchange@@PAU12@@std@@YA?AU_Nonscalar_ptr_iterator_tag@0@AAPAU__POINT@CExchange@@0@Z
_TEXT	SEGMENT PARA USE32 PUBLIC 'CODE'
_TEXT	ENDS
;	COMDAT ??$_Destroy_range@U__POINT@CExchange@@V?$allocator@U__POINT@CExchange@@@std@@@std@@YAXPAU__POINT@CExchange@@0AAV?$allocator@U__POINT@CExchange@@@0@U_Nonscalar_ptr_iterator_tag@0@@Z
_TEXT	SEGMENT PARA USE32 PUBLIC 'CODE'
_TEXT	ENDS
;	COMDAT ??$_Destroy_range@EV?$allocator@E@std@@@std@@YAXPAE0AAV?$allocator@E@0@U_Scalar_ptr_iterator_tag@0@@Z
_TEXT	SEGMENT PARA USE32 PUBLIC 'CODE'
_TEXT	ENDS
;	COMDAT ??$_Uninitialized_copy@PAU__SPAWNREGION@CEventLua@@PAU12@V?$allocator@U__SPAWNREGION@CEventLua@@@std@@@std@@YAPAU__SPAWNREGION@CEventLua@@PAU12@00AAV?$allocator@U__SPAWNREGION@CEventLua@@@0@@Z
_TEXT	SEGMENT PARA USE32 PUBLIC 'CODE'
_TEXT	ENDS
;	COMDAT ??$_Copy_backward_opt@PAU__SPAWNREGION@CEventLua@@PAU12@@std@@YAPAU__SPAWNREGION@CEventLua@@PAU12@00U_Nonscalar_ptr_iterator_tag@0@@Z
_TEXT	SEGMENT PARA USE32 PUBLIC 'CODE'
_TEXT	ENDS
;	COMDAT ??$_Ptr_cat@PAUD3DXVECTOR3@@PAU1@@std@@YA?AU_Nonscalar_ptr_iterator_tag@0@AAPAUD3DXVECTOR3@@0@Z
_TEXT	SEGMENT PARA USE32 PUBLIC 'CODE'
_TEXT	ENDS
;	COMDAT ??$_Destroy_range@UD3DXVECTOR3@@V?$allocator@UD3DXVECTOR3@@@std@@@std@@YAXPAUD3DXVECTOR3@@0AAV?$allocator@UD3DXVECTOR3@@@0@U_Nonscalar_ptr_iterator_tag@0@@Z
_TEXT	SEGMENT PARA USE32 PUBLIC 'CODE'
_TEXT	ENDS
;	COMDAT ??$_Ptr_cat@PAU_GIFTBOX@@PAU1@@std@@YA?AU_Nonscalar_ptr_iterator_tag@0@AAPAU_GIFTBOX@@0@Z
_TEXT	SEGMENT PARA USE32 PUBLIC 'CODE'
_TEXT	ENDS
;	COMDAT ??$_Destroy_range@U_GIFTBOX@@V?$allocator@U_GIFTBOX@@@std@@@std@@YAXPAU_GIFTBOX@@0AAV?$allocator@U_GIFTBOX@@@0@U_Nonscalar_ptr_iterator_tag@0@@Z
_TEXT	SEGMENT PARA USE32 PUBLIC 'CODE'
_TEXT	ENDS
;	COMDAT ??$_Destroy_range@JV?$allocator@J@std@@@std@@YAXPAJ0AAV?$allocator@J@0@U_Scalar_ptr_iterator_tag@0@@Z
_TEXT	SEGMENT PARA USE32 PUBLIC 'CODE'
_TEXT	ENDS
;	COMDAT ??$_Uninit_fill_n@JIJ@std@@YAXPAJIABJAAV?$allocator@J@0@U_Scalar_ptr_iterator_tag@0@@Z
_TEXT	SEGMENT PARA USE32 PUBLIC 'CODE'
_TEXT	ENDS
;	COMDAT ??$_Destroy_range@U__SPAWNREGION@CEventLua@@V?$allocator@U__SPAWNREGION@CEventLua@@@std@@@std@@YAXPAU__SPAWNREGION@CEventLua@@0AAV?$allocator@U__SPAWNREGION@CEventLua@@@0@U_Nonscalar_ptr_iterator_tag@0@@Z
_TEXT	SEGMENT PARA USE32 PUBLIC 'CODE'
_TEXT	ENDS
;	COMDAT ??$assign@Viterator@?$vector@U_AdjData@@V?$allocator@U_AdjData@@@std@@@std@@@?$vector@U_AdjData@@V?$allocator@U_AdjData@@@std@@@std@@QAEXViterator@01@0@Z
_TEXT	SEGMENT PARA USE32 PUBLIC 'CODE'
_TEXT	ENDS
;	COMDAT ??$?0PAUtagACTMSG@@@?$allocator@PAPAUtagACTMSG@@@std@@QAE@ABV?$allocator@PAUtagACTMSG@@@1@@Z
_TEXT	SEGMENT PARA USE32 PUBLIC 'CODE'
_TEXT	ENDS
;	COMDAT ??$_Destroy@PAPAUtagACTMSG@@@std@@YAXPAPAPAUtagACTMSG@@@Z
_TEXT	SEGMENT PARA USE32 PUBLIC 'CODE'
_TEXT	ENDS
;	COMDAT ??$?0PAUtagMAGICATKMSG@@@?$allocator@PAPAUtagMAGICATKMSG@@@std@@QAE@ABV?$allocator@PAUtagMAGICATKMSG@@@1@@Z
_TEXT	SEGMENT PARA USE32 PUBLIC 'CODE'
_TEXT	ENDS
;	COMDAT ??$_Destroy@PAPAUtagMAGICATKMSG@@@std@@YAXPAPAPAUtagMAGICATKMSG@@@Z
_TEXT	SEGMENT PARA USE32 PUBLIC 'CODE'
_TEXT	ENDS
;	COMDAT ??$_Destroy_range@U_AdjData@@V?$allocator@U_AdjData@@@std@@@std@@YAXPAU_AdjData@@0AAV?$allocator@U_AdjData@@@0@@Z
_TEXT	SEGMENT PARA USE32 PUBLIC 'CODE'
_TEXT	ENDS
;	COMDAT ??$_Allocate@U_AdjData@@@std@@YAPAU_AdjData@@IPAU1@@Z
_TEXT	SEGMENT PARA USE32 PUBLIC 'CODE'
_TEXT	ENDS
;	COMDAT ??$_Destroy@PAUtagACTMSG@@@std@@YAXPAPAUtagACTMSG@@@Z
_TEXT	SEGMENT PARA USE32 PUBLIC 'CODE'
_TEXT	ENDS
;	COMDAT ??$_Destroy@PAUtagMAGICATKMSG@@@std@@YAXPAPAUtagMAGICATKMSG@@@Z
_TEXT	SEGMENT PARA USE32 PUBLIC 'CODE'
_TEXT	ENDS
;	COMDAT ?destroy@?$allocator@UtagDROPITEM@@@std@@QAEXPAUtagDROPITEM@@@Z
_TEXT	SEGMENT PARA USE32 PUBLIC 'CODE'
_TEXT	ENDS
;	COMDAT ?destroy@?$allocator@UWORMON@@@std@@QAEXPAUWORMON@@@Z
_TEXT	SEGMENT PARA USE32 PUBLIC 'CODE'
_TEXT	ENDS
;	COMDAT ?destroy@?$allocator@U__ITEMGAME@CMiniGame@@@std@@QAEXPAU__ITEMGAME@CMiniGame@@@Z
_TEXT	SEGMENT PARA USE32 PUBLIC 'CODE'
_TEXT	ENDS
;	COMDAT ?destroy@?$allocator@U__ITEM@CExchange@@@std@@QAEXPAU__ITEM@CExchange@@@Z
_TEXT	SEGMENT PARA USE32 PUBLIC 'CODE'
_TEXT	ENDS
;	COMDAT ?destroy@?$allocator@U__POINT@CExchange@@@std@@QAEXPAU__POINT@CExchange@@@Z
_TEXT	SEGMENT PARA USE32 PUBLIC 'CODE'
_TEXT	ENDS
;	COMDAT ?begin@?$vector@EV?$allocator@E@std@@@std@@QAE?AViterator@12@XZ
_TEXT	SEGMENT PARA USE32 PUBLIC 'CODE'
_TEXT	ENDS
;	COMDAT ?end@?$vector@EV?$allocator@E@std@@@std@@QAE?AViterator@12@XZ
_TEXT	SEGMENT PARA USE32 PUBLIC 'CODE'
_TEXT	ENDS
;	COMDAT ?erase@?$vector@EV?$allocator@E@std@@@std@@QAE?AViterator@12@V312@0@Z
_TEXT	SEGMENT PARA USE32 PUBLIC 'CODE'
_TEXT	ENDS
;	COMDAT ?construct@?$allocator@U__SPAWNREGION@CEventLua@@@std@@QAEXPAU__SPAWNREGION@CEventLua@@ABU34@@Z
_TEXT	SEGMENT PARA USE32 PUBLIC 'CODE'
_TEXT	ENDS
;	COMDAT ?destroy@?$allocator@U__SPAWNREGION@CEventLua@@@std@@QAEXPAU__SPAWNREGION@CEventLua@@@Z
_TEXT	SEGMENT PARA USE32 PUBLIC 'CODE'
_TEXT	ENDS
;	COMDAT ?destroy@?$allocator@UD3DXVECTOR3@@@std@@QAEXPAUD3DXVECTOR3@@@Z
_TEXT	SEGMENT PARA USE32 PUBLIC 'CODE'
_TEXT	ENDS
;	COMDAT ?destroy@?$allocator@U_GIFTBOX@@@std@@QAEXPAU_GIFTBOX@@@Z
_TEXT	SEGMENT PARA USE32 PUBLIC 'CODE'
_TEXT	ENDS
;	COMDAT ??9const_iterator@?$vector@EV?$allocator@E@std@@@std@@QBE_NABV012@@Z
_TEXT	SEGMENT PARA USE32 PUBLIC 'CODE'
_TEXT	ENDS
;	COMDAT ??0iterator@?$vector@EV?$allocator@E@std@@@std@@QAE@PAE@Z
_TEXT	SEGMENT PARA USE32 PUBLIC 'CODE'
_TEXT	ENDS
;	COMDAT ??8const_iterator@?$vector@EV?$allocator@E@std@@@std@@QBE_NABV012@@Z
_TEXT	SEGMENT PARA USE32 PUBLIC 'CODE'
_TEXT	ENDS
;	COMDAT ??$insert@Vconst_iterator@?$vector@EV?$allocator@E@std@@@std@@@?$vector@EV?$allocator@E@std@@@std@@QAEXViterator@01@Vconst_iterator@01@1@Z
_TEXT	SEGMENT PARA USE32 PUBLIC 'CODE'
_TEXT	ENDS
;	COMDAT ??$_Ptr_cat@Vconst_iterator@?$vector@EV?$allocator@E@std@@@std@@PAE@std@@YA?AU_Nonscalar_ptr_iterator_tag@0@AAVconst_iterator@?$vector@EV?$allocator@E@std@@@0@AAPAE@Z
_TEXT	SEGMENT PARA USE32 PUBLIC 'CODE'
_TEXT	ENDS
;	COMDAT ??$_Uninit_copy@Vconst_iterator@?$vector@EV?$allocator@E@std@@@std@@PAEV?$allocator@E@3@@std@@YAPAEVconst_iterator@?$vector@EV?$allocator@E@std@@@0@0PAEAAV?$allocator@E@0@U_Nonscalar_ptr_iterator_tag@0@@Z
_TEXT	SEGMENT PARA USE32 PUBLIC 'CODE'
_TEXT	ENDS
;	COMDAT ??$_Uninit_copy@JJ@std@@YAPAJPAJ00AAV?$allocator@J@0@U_Scalar_ptr_iterator_tag@0@@Z
_TEXT	SEGMENT PARA USE32 PUBLIC 'CODE'
_TEXT	ENDS
;	COMDAT ??$_Uninit_copy@PAU__SPAWNREGION@CEventLua@@PAU12@V?$allocator@U__SPAWNREGION@CEventLua@@@std@@@std@@YAPAU__SPAWNREGION@CEventLua@@PAU12@00AAV?$allocator@U__SPAWNREGION@CEventLua@@@0@U_Nonscalar_ptr_iterator_tag@0@@Z
_TEXT	SEGMENT PARA USE32 PUBLIC 'CODE'
_TEXT	ENDS
;	COMDAT ??$fill_n@PAJIJ@std@@YAXPAJIABJ@Z
_TEXT	SEGMENT PARA USE32 PUBLIC 'CODE'
_TEXT	ENDS
;	COMDAT ??$_Iter_cat@Viterator@?$vector@U_AdjData@@V?$allocator@U_AdjData@@@std@@@std@@@std@@YA?AUrandom_access_iterator_tag@0@ABViterator@?$vector@U_AdjData@@V?$allocator@U_AdjData@@@std@@@0@@Z
_TEXT	SEGMENT PARA USE32 PUBLIC 'CODE'
_TEXT	ENDS
;	COMDAT ??$_Assign@Viterator@?$vector@U_AdjData@@V?$allocator@U_AdjData@@@std@@@std@@@?$vector@U_AdjData@@V?$allocator@U_AdjData@@@std@@@std@@QAEXViterator@01@0Uinput_iterator_tag@1@@Z
_TEXT	SEGMENT PARA USE32 PUBLIC 'CODE'
_TEXT	ENDS
;	COMDAT ??$_Ptr_cat@PAU_AdjData@@PAU1@@std@@YA?AU_Nonscalar_ptr_iterator_tag@0@AAPAU_AdjData@@0@Z
_TEXT	SEGMENT PARA USE32 PUBLIC 'CODE'
_TEXT	ENDS
;	COMDAT ??$_Destroy_range@U_AdjData@@V?$allocator@U_AdjData@@@std@@@std@@YAXPAU_AdjData@@0AAV?$allocator@U_AdjData@@@0@U_Nonscalar_ptr_iterator_tag@0@@Z
_TEXT	SEGMENT PARA USE32 PUBLIC 'CODE'
_TEXT	ENDS
;	COMDAT ??$_Destroy@UtagDROPITEM@@@std@@YAXPAUtagDROPITEM@@@Z
_TEXT	SEGMENT PARA USE32 PUBLIC 'CODE'
_TEXT	ENDS
;	COMDAT ??$_Destroy@UWORMON@@@std@@YAXPAUWORMON@@@Z
_TEXT	SEGMENT PARA USE32 PUBLIC 'CODE'
_TEXT	ENDS
;	COMDAT ??$_Destroy@U__ITEMGAME@CMiniGame@@@std@@YAXPAU__ITEMGAME@CMiniGame@@@Z
_TEXT	SEGMENT PARA USE32 PUBLIC 'CODE'
_TEXT	ENDS
;	COMDAT ??$_Destroy@U__ITEM@CExchange@@@std@@YAXPAU__ITEM@CExchange@@@Z
_TEXT	SEGMENT PARA USE32 PUBLIC 'CODE'
_TEXT	ENDS
;	COMDAT ??$_Destroy@U__POINT@CExchange@@@std@@YAXPAU__POINT@CExchange@@@Z
_TEXT	SEGMENT PARA USE32 PUBLIC 'CODE'
_TEXT	ENDS
;	COMDAT ??$copy@PAEPAE@std@@YAPAEPAE00@Z
_TEXT	SEGMENT PARA USE32 PUBLIC 'CODE'
_TEXT	ENDS
;	COMDAT ??$_Construct@U__SPAWNREGION@CEventLua@@U12@@std@@YAXPAU__SPAWNREGION@CEventLua@@ABU12@@Z
_TEXT	SEGMENT PARA USE32 PUBLIC 'CODE'
_TEXT	ENDS
;	COMDAT ??$_Destroy@U__SPAWNREGION@CEventLua@@@std@@YAXPAU__SPAWNREGION@CEventLua@@@Z
_TEXT	SEGMENT PARA USE32 PUBLIC 'CODE'
_TEXT	ENDS
;	COMDAT ??$_Destroy@UD3DXVECTOR3@@@std@@YAXPAUD3DXVECTOR3@@@Z
_TEXT	SEGMENT PARA USE32 PUBLIC 'CODE'
_TEXT	ENDS
;	COMDAT ??$_Destroy@U_GIFTBOX@@@std@@YAXPAU_GIFTBOX@@@Z
_TEXT	SEGMENT PARA USE32 PUBLIC 'CODE'
_TEXT	ENDS
;	COMDAT ?construct@?$allocator@E@std@@QAEXPAEABE@Z
_TEXT	SEGMENT PARA USE32 PUBLIC 'CODE'
_TEXT	ENDS
;	COMDAT ?destroy@?$allocator@E@std@@QAEXPAE@Z
_TEXT	SEGMENT PARA USE32 PUBLIC 'CODE'
_TEXT	ENDS
;	COMDAT ??Dconst_iterator@?$vector@EV?$allocator@E@std@@@std@@QBEABEXZ
_TEXT	SEGMENT PARA USE32 PUBLIC 'CODE'
_TEXT	ENDS
;	COMDAT ??Econst_iterator@?$vector@EV?$allocator@E@std@@@std@@QAEAAV012@XZ
_TEXT	SEGMENT PARA USE32 PUBLIC 'CODE'
_TEXT	ENDS
;	COMDAT ?erase@?$vector@U_AdjData@@V?$allocator@U_AdjData@@@std@@@std@@QAE?AViterator@12@V312@0@Z
_TEXT	SEGMENT PARA USE32 PUBLIC 'CODE'
_TEXT	ENDS
;	COMDAT ?destroy@?$allocator@U_AdjData@@@std@@QAEXPAU_AdjData@@@Z
_TEXT	SEGMENT PARA USE32 PUBLIC 'CODE'
_TEXT	ENDS
;	COMDAT ??9const_iterator@?$vector@U_AdjData@@V?$allocator@U_AdjData@@@std@@@std@@QBE_NABV012@@Z
_TEXT	SEGMENT PARA USE32 PUBLIC 'CODE'
_TEXT	ENDS
;	COMDAT ??8const_iterator@?$vector@U_AdjData@@V?$allocator@U_AdjData@@@std@@@std@@QBE_NABV012@@Z
_TEXT	SEGMENT PARA USE32 PUBLIC 'CODE'
_TEXT	ENDS
;	COMDAT ??$_Insert@Vconst_iterator@?$vector@EV?$allocator@E@std@@@std@@@?$vector@EV?$allocator@E@std@@@std@@QAEXViterator@01@Vconst_iterator@01@1Uforward_iterator_tag@1@@Z
_TEXT	SEGMENT PARA USE32 PUBLIC 'CODE'
_TEXT	ENDS
;	COMDAT ??$insert@Viterator@?$vector@U_AdjData@@V?$allocator@U_AdjData@@@std@@@std@@@?$vector@U_AdjData@@V?$allocator@U_AdjData@@@std@@@std@@QAEXViterator@01@00@Z
_TEXT	SEGMENT PARA USE32 PUBLIC 'CODE'
_TEXT	ENDS
;	COMDAT ??$_Copy_opt@PAEPAE@std@@YAPAEPAE00U_Scalar_ptr_iterator_tag@0@@Z
_TEXT	SEGMENT PARA USE32 PUBLIC 'CODE'
_TEXT	ENDS
;	COMDAT ??$_Construct@EE@std@@YAXPAEABE@Z
_TEXT	SEGMENT PARA USE32 PUBLIC 'CODE'
_TEXT	ENDS
;	COMDAT ??$_Destroy@E@std@@YAXPAE@Z
_TEXT	SEGMENT PARA USE32 PUBLIC 'CODE'
_TEXT	ENDS
;	COMDAT ??$copy@PAU_AdjData@@PAU1@@std@@YAPAU_AdjData@@PAU1@00@Z
_TEXT	SEGMENT PARA USE32 PUBLIC 'CODE'
_TEXT	ENDS
;	COMDAT ??$_Destroy@U_AdjData@@@std@@YAXPAU_AdjData@@@Z
_TEXT	SEGMENT PARA USE32 PUBLIC 'CODE'
_TEXT	ENDS
;	COMDAT ?capacity@?$vector@EV?$allocator@E@std@@@std@@QBEIXZ
_TEXT	SEGMENT PARA USE32 PUBLIC 'CODE'
_TEXT	ENDS
;	COMDAT ??Giterator@?$vector@EV?$allocator@E@std@@@std@@QBEHABVconst_iterator@12@@Z
_TEXT	SEGMENT PARA USE32 PUBLIC 'CODE'
_TEXT	ENDS
;	COMDAT ??Gconst_iterator@?$vector@EV?$allocator@E@std@@@std@@QBEHABV012@@Z
_TEXT	SEGMENT PARA USE32 PUBLIC 'CODE'
_TEXT	ENDS
;	COMDAT ??$_Distance@Vconst_iterator@?$vector@EV?$allocator@E@std@@@std@@I@std@@YAXVconst_iterator@?$vector@EV?$allocator@E@std@@@0@0AAI@Z
_TEXT	SEGMENT PARA USE32 PUBLIC 'CODE'
_TEXT	ENDS
;	COMDAT ??$_Ucopy@PAE@?$vector@EV?$allocator@E@std@@@std@@IAEPAEPAE00@Z
_TEXT	SEGMENT PARA USE32 PUBLIC 'CODE'
_TEXT	ENDS
;	COMDAT ??$advance@Vconst_iterator@?$vector@EV?$allocator@E@std@@@std@@H@std@@YAXAAVconst_iterator@?$vector@EV?$allocator@E@std@@@0@H@Z
_TEXT	SEGMENT PARA USE32 PUBLIC 'CODE'
_TEXT	ENDS
;	COMDAT ??$copy@Vconst_iterator@?$vector@EV?$allocator@E@std@@@std@@PAE@std@@YAPAEVconst_iterator@?$vector@EV?$allocator@E@std@@@0@0PAE@Z
_TEXT	SEGMENT PARA USE32 PUBLIC 'CODE'
_TEXT	ENDS
;	COMDAT ??$copy_backward@PAEPAE@std@@YAPAEPAE00@Z
_TEXT	SEGMENT PARA USE32 PUBLIC 'CODE'
_TEXT	ENDS
;	COMDAT ??$_Insert@Viterator@?$vector@U_AdjData@@V?$allocator@U_AdjData@@@std@@@std@@@?$vector@U_AdjData@@V?$allocator@U_AdjData@@@std@@@std@@QAEXViterator@01@00Uforward_iterator_tag@1@@Z
_TEXT	SEGMENT PARA USE32 PUBLIC 'CODE'
_TEXT	ENDS
;	COMDAT ??$_Copy_opt@PAU_AdjData@@PAU1@@std@@YAPAU_AdjData@@PAU1@00U_Nonscalar_ptr_iterator_tag@0@@Z
_TEXT	SEGMENT PARA USE32 PUBLIC 'CODE'
_TEXT	ENDS
;	COMDAT ?capacity@?$vector@U_AdjData@@V?$allocator@U_AdjData@@@std@@@std@@QBEIXZ
_TEXT	SEGMENT PARA USE32 PUBLIC 'CODE'
_TEXT	ENDS
;	COMDAT ?size@?$vector@U_AdjData@@V?$allocator@U_AdjData@@@std@@@std@@QBEIXZ
_TEXT	SEGMENT PARA USE32 PUBLIC 'CODE'
_TEXT	ENDS
;	COMDAT ??Giterator@?$vector@U_AdjData@@V?$allocator@U_AdjData@@@std@@@std@@QBEHABVconst_iterator@12@@Z
_TEXT	SEGMENT PARA USE32 PUBLIC 'CODE'
_TEXT	ENDS
;	COMDAT ??Gconst_iterator@?$vector@U_AdjData@@V?$allocator@U_AdjData@@@std@@@std@@QBEHABV012@@Z
_TEXT	SEGMENT PARA USE32 PUBLIC 'CODE'
_TEXT	ENDS
;	COMDAT ??$_Distance2@Vconst_iterator@?$vector@EV?$allocator@E@std@@@std@@I@std@@YAXVconst_iterator@?$vector@EV?$allocator@E@std@@@0@0AAIUrandom_access_iterator_tag@0@@Z
_TEXT	SEGMENT PARA USE32 PUBLIC 'CODE'
_TEXT	ENDS
;	COMDAT ??$_Uninitialized_copy@PAEPAEV?$allocator@E@std@@@std@@YAPAEPAE00AAV?$allocator@E@0@@Z
_TEXT	SEGMENT PARA USE32 PUBLIC 'CODE'
_TEXT	ENDS
;	COMDAT ??$_Advance@Vconst_iterator@?$vector@EV?$allocator@E@std@@@std@@H@std@@YAXAAVconst_iterator@?$vector@EV?$allocator@E@std@@@0@HUrandom_access_iterator_tag@0@@Z
_TEXT	SEGMENT PARA USE32 PUBLIC 'CODE'
_TEXT	ENDS
;	COMDAT ??$_Copy_opt@Vconst_iterator@?$vector@EV?$allocator@E@std@@@std@@PAE@std@@YAPAEVconst_iterator@?$vector@EV?$allocator@E@std@@@0@0PAEU_Nonscalar_ptr_iterator_tag@0@@Z
_TEXT	SEGMENT PARA USE32 PUBLIC 'CODE'
_TEXT	ENDS
;	COMDAT ??$_Copy_backward_opt@PAEPAE@std@@YAPAEPAE00U_Scalar_ptr_iterator_tag@0@@Z
_TEXT	SEGMENT PARA USE32 PUBLIC 'CODE'
_TEXT	ENDS
;	COMDAT ??$_Distance@Viterator@?$vector@U_AdjData@@V?$allocator@U_AdjData@@@std@@@std@@I@std@@YAXViterator@?$vector@U_AdjData@@V?$allocator@U_AdjData@@@std@@@0@0AAI@Z
_TEXT	SEGMENT PARA USE32 PUBLIC 'CODE'
_TEXT	ENDS
;	COMDAT ??$_Ucopy@PAU_AdjData@@@?$vector@U_AdjData@@V?$allocator@U_AdjData@@@std@@@std@@IAEPAU_AdjData@@PAU2@00@Z
_TEXT	SEGMENT PARA USE32 PUBLIC 'CODE'
_TEXT	ENDS
;	COMDAT ??$_Ucopy@Viterator@?$vector@U_AdjData@@V?$allocator@U_AdjData@@@std@@@std@@@?$vector@U_AdjData@@V?$allocator@U_AdjData@@@std@@@std@@IAEPAU_AdjData@@Viterator@01@0PAU2@@Z
_TEXT	SEGMENT PARA USE32 PUBLIC 'CODE'
_TEXT	ENDS
;	COMDAT ??$advance@Viterator@?$vector@U_AdjData@@V?$allocator@U_AdjData@@@std@@@std@@H@std@@YAXAAViterator@?$vector@U_AdjData@@V?$allocator@U_AdjData@@@std@@@0@H@Z
_TEXT	SEGMENT PARA USE32 PUBLIC 'CODE'
_TEXT	ENDS
;	COMDAT ??$copy@Viterator@?$vector@U_AdjData@@V?$allocator@U_AdjData@@@std@@@std@@PAU_AdjData@@@std@@YAPAU_AdjData@@Viterator@?$vector@U_AdjData@@V?$allocator@U_AdjData@@@std@@@0@0PAU1@@Z
_TEXT	SEGMENT PARA USE32 PUBLIC 'CODE'
_TEXT	ENDS
;	COMDAT ??$copy_backward@PAU_AdjData@@PAU1@@std@@YAPAU_AdjData@@PAU1@00@Z
_TEXT	SEGMENT PARA USE32 PUBLIC 'CODE'
_TEXT	ENDS
;	COMDAT ??Yconst_iterator@?$vector@EV?$allocator@E@std@@@std@@QAEAAV012@H@Z
_TEXT	SEGMENT PARA USE32 PUBLIC 'CODE'
_TEXT	ENDS
;	COMDAT ??$_Uninit_copy@EE@std@@YAPAEPAE00AAV?$allocator@E@0@U_Scalar_ptr_iterator_tag@0@@Z
_TEXT	SEGMENT PARA USE32 PUBLIC 'CODE'
_TEXT	ENDS
;	COMDAT ??$_Distance2@Viterator@?$vector@U_AdjData@@V?$allocator@U_AdjData@@@std@@@std@@I@std@@YAXViterator@?$vector@U_AdjData@@V?$allocator@U_AdjData@@@std@@@0@0AAIUrandom_access_iterator_tag@0@@Z
_TEXT	SEGMENT PARA USE32 PUBLIC 'CODE'
_TEXT	ENDS
;	COMDAT ??$_Uninitialized_copy@PAU_AdjData@@PAU1@V?$allocator@U_AdjData@@@std@@@std@@YAPAU_AdjData@@PAU1@00AAV?$allocator@U_AdjData@@@0@@Z
_TEXT	SEGMENT PARA USE32 PUBLIC 'CODE'
_TEXT	ENDS
;	COMDAT ??$_Uninitialized_copy@Viterator@?$vector@U_AdjData@@V?$allocator@U_AdjData@@@std@@@std@@PAU_AdjData@@V?$allocator@U_AdjData@@@3@@std@@YAPAU_AdjData@@Viterator@?$vector@U_AdjData@@V?$allocator@U_AdjData@@@std@@@0@0PAU1@AAV?$allocator@U_AdjData@@@0@@Z
_TEXT	SEGMENT PARA USE32 PUBLIC 'CODE'
_TEXT	ENDS
;	COMDAT ??$_Advance@Viterator@?$vector@U_AdjData@@V?$allocator@U_AdjData@@@std@@@std@@H@std@@YAXAAViterator@?$vector@U_AdjData@@V?$allocator@U_AdjData@@@std@@@0@HUrandom_access_iterator_tag@0@@Z
_TEXT	SEGMENT PARA USE32 PUBLIC 'CODE'
_TEXT	ENDS
;	COMDAT ??$_Ptr_cat@Viterator@?$vector@U_AdjData@@V?$allocator@U_AdjData@@@std@@@std@@PAU_AdjData@@@std@@YA?AU_Nonscalar_ptr_iterator_tag@0@AAViterator@?$vector@U_AdjData@@V?$allocator@U_AdjData@@@std@@@0@AAPAU_AdjData@@@Z
_TEXT	SEGMENT PARA USE32 PUBLIC 'CODE'
_TEXT	ENDS
;	COMDAT ??$_Copy_opt@Viterator@?$vector@U_AdjData@@V?$allocator@U_AdjData@@@std@@@std@@PAU_AdjData@@@std@@YAPAU_AdjData@@Viterator@?$vector@U_AdjData@@V?$allocator@U_AdjData@@@std@@@0@0PAU1@U_Nonscalar_ptr_iterator_tag@0@@Z
_TEXT	SEGMENT PARA USE32 PUBLIC 'CODE'
_TEXT	ENDS
;	COMDAT ??$_Copy_backward_opt@PAU_AdjData@@PAU1@@std@@YAPAU_AdjData@@PAU1@00U_Nonscalar_ptr_iterator_tag@0@@Z
_TEXT	SEGMENT PARA USE32 PUBLIC 'CODE'
_TEXT	ENDS
;	COMDAT ??Diterator@?$vector@U_AdjData@@V?$allocator@U_AdjData@@@std@@@std@@QBEAAU_AdjData@@XZ
_TEXT	SEGMENT PARA USE32 PUBLIC 'CODE'
_TEXT	ENDS
;	COMDAT ??Eiterator@?$vector@U_AdjData@@V?$allocator@U_AdjData@@@std@@@std@@QAEAAV012@XZ
_TEXT	SEGMENT PARA USE32 PUBLIC 'CODE'
_TEXT	ENDS
;	COMDAT ??Yiterator@?$vector@U_AdjData@@V?$allocator@U_AdjData@@@std@@@std@@QAEAAV012@H@Z
_TEXT	SEGMENT PARA USE32 PUBLIC 'CODE'
_TEXT	ENDS
;	COMDAT ??Dconst_iterator@?$vector@U_AdjData@@V?$allocator@U_AdjData@@@std@@@std@@QBEABU_AdjData@@XZ
_TEXT	SEGMENT PARA USE32 PUBLIC 'CODE'
_TEXT	ENDS
;	COMDAT ??$_Uninit_copy@PAU_AdjData@@PAU1@V?$allocator@U_AdjData@@@std@@@std@@YAPAU_AdjData@@PAU1@00AAV?$allocator@U_AdjData@@@0@U_Nonscalar_ptr_iterator_tag@0@@Z
_TEXT	SEGMENT PARA USE32 PUBLIC 'CODE'
_TEXT	ENDS
;	COMDAT ??$_Uninit_copy@Viterator@?$vector@U_AdjData@@V?$allocator@U_AdjData@@@std@@@std@@PAU_AdjData@@V?$allocator@U_AdjData@@@3@@std@@YAPAU_AdjData@@Viterator@?$vector@U_AdjData@@V?$allocator@U_AdjData@@@std@@@0@0PAU1@AAV?$allocator@U_AdjData@@@0@U_Nonscalar_ptr_iterator_tag@0@@Z
_TEXT	SEGMENT PARA USE32 PUBLIC 'CODE'
_TEXT	ENDS
;	COMDAT ?construct@?$allocator@U_AdjData@@@std@@QAEXPAU_AdjData@@ABU3@@Z
_TEXT	SEGMENT PARA USE32 PUBLIC 'CODE'
_TEXT	ENDS
;	COMDAT ??$_Construct@U_AdjData@@U1@@std@@YAXPAU_AdjData@@ABU1@@Z
_TEXT	SEGMENT PARA USE32 PUBLIC 'CODE'
_TEXT	ENDS
;	COMDAT ?SendDamageForce@CCtrl@@UAEHKKHH@Z
_TEXT	SEGMENT PARA USE32 PUBLIC 'CODE'
_TEXT	ENDS
;	COMDAT ?SendDamage@CCtrl@@UAEHKKHH@Z
_TEXT	SEGMENT PARA USE32 PUBLIC 'CODE'
_TEXT	ENDS
;	COMDAT ?SetIndex@CObj@@UAEHPAUIDirect3DDevice9@@KH@Z
_TEXT	SEGMENT PARA USE32 PUBLIC 'CODE'
_TEXT	ENDS
;	COMDAT ?GetName@CObj@@UAEPBDXZ
_TEXT	SEGMENT PARA USE32 PUBLIC 'CODE'
_TEXT	ENDS
;	COMDAT ??_C@_05CJBACGMB@hello?$AA@
CONST	SEGMENT DWORD USE32 PUBLIC 'CONST'
CONST	ENDS
;	COMDAT ?InitMotion@CObj@@UAEHK@Z
_TEXT	SEGMENT PARA USE32 PUBLIC 'CODE'
_TEXT	ENDS
;	COMDAT ?SetMotion@CObj@@UAEHKHK@Z
_TEXT	SEGMENT PARA USE32 PUBLIC 'CODE'
_TEXT	ENDS
;	COMDAT ?deallocate@?$allocator@E@std@@QAEXPAEI@Z
_TEXT	SEGMENT PARA USE32 PUBLIC 'CODE'
_TEXT	ENDS
;	COMDAT ??$_Ucopy@Vconst_iterator@?$vector@EV?$allocator@E@std@@@std@@@?$vector@EV?$allocator@E@std@@@std@@IAEPAEVconst_iterator@01@0PAE@Z
_TEXT	SEGMENT PARA USE32 PUBLIC 'CODE'
_TEXT	ENDS
;	COMDAT ?allocate@?$allocator@E@std@@QAEPAEI@Z
_TEXT	SEGMENT PARA USE32 PUBLIC 'CODE'
_TEXT	ENDS
;	COMDAT ??$_Allocate@E@std@@YAPAEIPAE@Z
_TEXT	SEGMENT PARA USE32 PUBLIC 'CODE'
_TEXT	ENDS
;	COMDAT ?_Xlen@?$vector@EV?$allocator@E@std@@@std@@IBEXXZ
_TEXT	SEGMENT PARA USE32 PUBLIC 'CODE'
_TEXT	ENDS
;	COMDAT ?size@?$vector@EV?$allocator@E@std@@@std@@QBEIXZ
_TEXT	SEGMENT PARA USE32 PUBLIC 'CODE'
_TEXT	ENDS
;	COMDAT ?max_size@?$vector@EV?$allocator@E@std@@@std@@QBEIXZ
_TEXT	SEGMENT PARA USE32 PUBLIC 'CODE'
_TEXT	ENDS
;	COMDAT ?max_size@?$allocator@E@std@@QBEIXZ
_TEXT	SEGMENT PARA USE32 PUBLIC 'CODE'
_TEXT	ENDS
;	COMDAT ??2@YAPAXIPAX@Z
_TEXT	SEGMENT PARA USE32 PUBLIC 'CODE'
_TEXT	ENDS
;	COMDAT ?_Ptr_cat@std@@YA?AU_Scalar_ptr_iterator_tag@1@PAE0@Z
_TEXT	SEGMENT PARA USE32 PUBLIC 'CODE'
_TEXT	ENDS
;	COMDAT ??0const_iterator@?$vector@EV?$allocator@E@std@@@std@@QAE@PAE@Z
_TEXT	SEGMENT PARA USE32 PUBLIC 'CODE'
_TEXT	ENDS
;	COMDAT ?_Destroy@?$vector@EV?$allocator@E@std@@@std@@IAEXPAE0@Z
_TEXT	SEGMENT PARA USE32 PUBLIC 'CODE'
_TEXT	ENDS
;	COMDAT ??$_Destroy_range@EV?$allocator@E@std@@@std@@YAXPAE0AAV?$allocator@E@0@@Z
_TEXT	SEGMENT PARA USE32 PUBLIC 'CODE'
_TEXT	ENDS
;	COMDAT ?_Ptr_cat@std@@YA?AU_Scalar_ptr_iterator_tag@1@PAJ0@Z
_TEXT	SEGMENT PARA USE32 PUBLIC 'CODE'
_TEXT	ENDS
;	COMDAT ??9const_iterator@?$_Tree@V?$_Tmap_traits@KEU?$less@K@std@@V?$allocator@U?$pair@$$CBKE@std@@@2@$0A@@std@@@std@@QBE_NABV012@@Z
_TEXT	SEGMENT PARA USE32 PUBLIC 'CODE'
_TEXT	ENDS
;	COMDAT ??8const_iterator@?$_Tree@V?$_Tmap_traits@KEU?$less@K@std@@V?$allocator@U?$pair@$$CBKE@std@@@2@$0A@@std@@@std@@QBE_NABV012@@Z
_TEXT	SEGMENT PARA USE32 PUBLIC 'CODE'
_TEXT	ENDS
;	COMDAT ??Eiterator@?$_Tree@V?$_Tmap_traits@KEU?$less@K@std@@V?$allocator@U?$pair@$$CBKE@std@@@2@$0A@@std@@@std@@QAEAAV012@XZ
_TEXT	SEGMENT PARA USE32 PUBLIC 'CODE'
_TEXT	ENDS
;	COMDAT ??Econst_iterator@?$_Tree@V?$_Tmap_traits@KEU?$less@K@std@@V?$allocator@U?$pair@$$CBKE@std@@@2@$0A@@std@@@std@@QAEAAV012@XZ
_TEXT	SEGMENT PARA USE32 PUBLIC 'CODE'
_TEXT	ENDS
;	COMDAT ?_Inc@const_iterator@?$_Tree@V?$_Tmap_traits@KEU?$less@K@std@@V?$allocator@U?$pair@$$CBKE@std@@@2@$0A@@std@@@std@@QAEXXZ
_TEXT	SEGMENT PARA USE32 PUBLIC 'CODE'
_TEXT	ENDS
;	COMDAT ?_Min@?$_Tree@V?$_Tmap_traits@KEU?$less@K@std@@V?$allocator@U?$pair@$$CBKE@std@@@2@$0A@@std@@@std@@KAPAU_Node@?$_Tree_nod@V?$_Tmap_traits@KEU?$less@K@std@@V?$allocator@U?$pair@$$CBKE@std@@@2@$0A@@std@@@2@PAU342@@Z
_TEXT	SEGMENT PARA USE32 PUBLIC 'CODE'
_TEXT	ENDS
;	COMDAT ?_Left@?$_Tree@V?$_Tmap_traits@KEU?$less@K@std@@V?$allocator@U?$pair@$$CBKE@std@@@2@$0A@@std@@@std@@KAAAPAU_Node@?$_Tree_nod@V?$_Tmap_traits@KEU?$less@K@std@@V?$allocator@U?$pair@$$CBKE@std@@@2@$0A@@std@@@2@PAU342@@Z
_TEXT	SEGMENT PARA USE32 PUBLIC 'CODE'
_TEXT	ENDS
;	COMDAT ?_Isnil@?$_Tree@V?$_Tmap_traits@KEU?$less@K@std@@V?$allocator@U?$pair@$$CBKE@std@@@2@$0A@@std@@@std@@KAAADPAU_Node@?$_Tree_nod@V?$_Tmap_traits@KEU?$less@K@std@@V?$allocator@U?$pair@$$CBKE@std@@@2@$0A@@std@@@2@@Z
_TEXT	SEGMENT PARA USE32 PUBLIC 'CODE'
_TEXT	ENDS
;	COMDAT ?_Parent@?$_Tree@V?$_Tmap_traits@KEU?$less@K@std@@V?$allocator@U?$pair@$$CBKE@std@@@2@$0A@@std@@@std@@KAAAPAU_Node@?$_Tree_nod@V?$_Tmap_traits@KEU?$less@K@std@@V?$allocator@U?$pair@$$CBKE@std@@@2@$0A@@std@@@2@PAU342@@Z
_TEXT	SEGMENT PARA USE32 PUBLIC 'CODE'
_TEXT	ENDS
;	COMDAT ?_Right@?$_Tree@V?$_Tmap_traits@KEU?$less@K@std@@V?$allocator@U?$pair@$$CBKE@std@@@2@$0A@@std@@@std@@KAAAPAU_Node@?$_Tree_nod@V?$_Tmap_traits@KEU?$less@K@std@@V?$allocator@U?$pair@$$CBKE@std@@@2@$0A@@std@@@2@PAU342@@Z
_TEXT	SEGMENT PARA USE32 PUBLIC 'CODE'
_TEXT	ENDS
;	COMDAT ??9const_iterator@?$_Tree@V?$_Tmap_traits@KPAVCCtrl@@U?$less@K@std@@V?$allocator@U?$pair@$$CBKPAVCCtrl@@@std@@@3@$0A@@std@@@std@@QBE_NABV012@@Z
_TEXT	SEGMENT PARA USE32 PUBLIC 'CODE'
_TEXT	ENDS
;	COMDAT ??8const_iterator@?$_Tree@V?$_Tmap_traits@KPAVCCtrl@@U?$less@K@std@@V?$allocator@U?$pair@$$CBKPAVCCtrl@@@std@@@3@$0A@@std@@@std@@QBE_NABV012@@Z
_TEXT	SEGMENT PARA USE32 PUBLIC 'CODE'
_TEXT	ENDS
;	COMDAT ??Eiterator@?$_Tree@V?$_Tmap_traits@KPAVCCtrl@@U?$less@K@std@@V?$allocator@U?$pair@$$CBKPAVCCtrl@@@std@@@3@$0A@@std@@@std@@QAEAAV012@XZ
_TEXT	SEGMENT PARA USE32 PUBLIC 'CODE'
_TEXT	ENDS
;	COMDAT ??Econst_iterator@?$_Tree@V?$_Tmap_traits@KPAVCCtrl@@U?$less@K@std@@V?$allocator@U?$pair@$$CBKPAVCCtrl@@@std@@@3@$0A@@std@@@std@@QAEAAV012@XZ
_TEXT	SEGMENT PARA USE32 PUBLIC 'CODE'
_TEXT	ENDS
;	COMDAT ?_Inc@const_iterator@?$_Tree@V?$_Tmap_traits@KPAVCCtrl@@U?$less@K@std@@V?$allocator@U?$pair@$$CBKPAVCCtrl@@@std@@@3@$0A@@std@@@std@@QAEXXZ
_TEXT	SEGMENT PARA USE32 PUBLIC 'CODE'
_TEXT	ENDS
;	COMDAT ?_Min@?$_Tree@V?$_Tmap_traits@KPAVCCtrl@@U?$less@K@std@@V?$allocator@U?$pair@$$CBKPAVCCtrl@@@std@@@3@$0A@@std@@@std@@KAPAU_Node@?$_Tree_nod@V?$_Tmap_traits@KPAVCCtrl@@U?$less@K@std@@V?$allocator@U?$pair@$$CBKPAVCCtrl@@@std@@@3@$0A@@std@@@2@PAU342@@Z
_TEXT	SEGMENT PARA USE32 PUBLIC 'CODE'
_TEXT	ENDS
;	COMDAT ?_Left@?$_Tree@V?$_Tmap_traits@KPAVCCtrl@@U?$less@K@std@@V?$allocator@U?$pair@$$CBKPAVCCtrl@@@std@@@3@$0A@@std@@@std@@KAAAPAU_Node@?$_Tree_nod@V?$_Tmap_traits@KPAVCCtrl@@U?$less@K@std@@V?$allocator@U?$pair@$$CBKPAVCCtrl@@@std@@@3@$0A@@std@@@2@PAU342@@Z
_TEXT	SEGMENT PARA USE32 PUBLIC 'CODE'
_TEXT	ENDS
;	COMDAT ?_Isnil@?$_Tree@V?$_Tmap_traits@KPAVCCtrl@@U?$less@K@std@@V?$allocator@U?$pair@$$CBKPAVCCtrl@@@std@@@3@$0A@@std@@@std@@KAAADPAU_Node@?$_Tree_nod@V?$_Tmap_traits@KPAVCCtrl@@U?$less@K@std@@V?$allocator@U?$pair@$$CBKPAVCCtrl@@@std@@@3@$0A@@std@@@2@@Z
_TEXT	SEGMENT PARA USE32 PUBLIC 'CODE'
_TEXT	ENDS
;	COMDAT ?_Parent@?$_Tree@V?$_Tmap_traits@KPAVCCtrl@@U?$less@K@std@@V?$allocator@U?$pair@$$CBKPAVCCtrl@@@std@@@3@$0A@@std@@@std@@KAAAPAU_Node@?$_Tree_nod@V?$_Tmap_traits@KPAVCCtrl@@U?$less@K@std@@V?$allocator@U?$pair@$$CBKPAVCCtrl@@@std@@@3@$0A@@std@@@2@PAU342@@Z
_TEXT	SEGMENT PARA USE32 PUBLIC 'CODE'
_TEXT	ENDS
;	COMDAT ?_Right@?$_Tree@V?$_Tmap_traits@KPAVCCtrl@@U?$less@K@std@@V?$allocator@U?$pair@$$CBKPAVCCtrl@@@std@@@3@$0A@@std@@@std@@KAAAPAU_Node@?$_Tree_nod@V?$_Tmap_traits@KPAVCCtrl@@U?$less@K@std@@V?$allocator@U?$pair@$$CBKPAVCCtrl@@@std@@@3@$0A@@std@@@2@PAU342@@Z
_TEXT	SEGMENT PARA USE32 PUBLIC 'CODE'
_TEXT	ENDS
;	COMDAT ??9const_iterator@?$_Tree@V?$_Tmap_traits@KPAVCUser@@U?$less@K@std@@V?$allocator@U?$pair@$$CBKPAVCUser@@@std@@@3@$0A@@std@@@std@@QBE_NABV012@@Z
_TEXT	SEGMENT PARA USE32 PUBLIC 'CODE'
_TEXT	ENDS
;	COMDAT ??8const_iterator@?$_Tree@V?$_Tmap_traits@KPAVCUser@@U?$less@K@std@@V?$allocator@U?$pair@$$CBKPAVCUser@@@std@@@3@$0A@@std@@@std@@QBE_NABV012@@Z
_TEXT	SEGMENT PARA USE32 PUBLIC 'CODE'
_TEXT	ENDS
;	COMDAT ??Eiterator@?$_Tree@V?$_Tmap_traits@KPAVCUser@@U?$less@K@std@@V?$allocator@U?$pair@$$CBKPAVCUser@@@std@@@3@$0A@@std@@@std@@QAEAAV012@XZ
_TEXT	SEGMENT PARA USE32 PUBLIC 'CODE'
_TEXT	ENDS
;	COMDAT ??Econst_iterator@?$_Tree@V?$_Tmap_traits@KPAVCUser@@U?$less@K@std@@V?$allocator@U?$pair@$$CBKPAVCUser@@@std@@@3@$0A@@std@@@std@@QAEAAV012@XZ
_TEXT	SEGMENT PARA USE32 PUBLIC 'CODE'
_TEXT	ENDS
;	COMDAT ?_Inc@const_iterator@?$_Tree@V?$_Tmap_traits@KPAVCUser@@U?$less@K@std@@V?$allocator@U?$pair@$$CBKPAVCUser@@@std@@@3@$0A@@std@@@std@@QAEXXZ
_TEXT	SEGMENT PARA USE32 PUBLIC 'CODE'
_TEXT	ENDS
;	COMDAT ?_Min@?$_Tree@V?$_Tmap_traits@KPAVCUser@@U?$less@K@std@@V?$allocator@U?$pair@$$CBKPAVCUser@@@std@@@3@$0A@@std@@@std@@KAPAU_Node@?$_Tree_nod@V?$_Tmap_traits@KPAVCUser@@U?$less@K@std@@V?$allocator@U?$pair@$$CBKPAVCUser@@@std@@@3@$0A@@std@@@2@PAU342@@Z
_TEXT	SEGMENT PARA USE32 PUBLIC 'CODE'
_TEXT	ENDS
;	COMDAT ?_Left@?$_Tree@V?$_Tmap_traits@KPAVCUser@@U?$less@K@std@@V?$allocator@U?$pair@$$CBKPAVCUser@@@std@@@3@$0A@@std@@@std@@KAAAPAU_Node@?$_Tree_nod@V?$_Tmap_traits@KPAVCUser@@U?$less@K@std@@V?$allocator@U?$pair@$$CBKPAVCUser@@@std@@@3@$0A@@std@@@2@PAU342@@Z
_TEXT	SEGMENT PARA USE32 PUBLIC 'CODE'
_TEXT	ENDS
;	COMDAT ?_Isnil@?$_Tree@V?$_Tmap_traits@KPAVCUser@@U?$less@K@std@@V?$allocator@U?$pair@$$CBKPAVCUser@@@std@@@3@$0A@@std@@@std@@KAAADPAU_Node@?$_Tree_nod@V?$_Tmap_traits@KPAVCUser@@U?$less@K@std@@V?$allocator@U?$pair@$$CBKPAVCUser@@@std@@@3@$0A@@std@@@2@@Z
_TEXT	SEGMENT PARA USE32 PUBLIC 'CODE'
_TEXT	ENDS
;	COMDAT ?_Parent@?$_Tree@V?$_Tmap_traits@KPAVCUser@@U?$less@K@std@@V?$allocator@U?$pair@$$CBKPAVCUser@@@std@@@3@$0A@@std@@@std@@KAAAPAU_Node@?$_Tree_nod@V?$_Tmap_traits@KPAVCUser@@U?$less@K@std@@V?$allocator@U?$pair@$$CBKPAVCUser@@@std@@@3@$0A@@std@@@2@PAU342@@Z
_TEXT	SEGMENT PARA USE32 PUBLIC 'CODE'
_TEXT	ENDS
;	COMDAT ?_Right@?$_Tree@V?$_Tmap_traits@KPAVCUser@@U?$less@K@std@@V?$allocator@U?$pair@$$CBKPAVCUser@@@std@@@3@$0A@@std@@@std@@KAAAPAU_Node@?$_Tree_nod@V?$_Tmap_traits@KPAVCUser@@U?$less@K@std@@V?$allocator@U?$pair@$$CBKPAVCUser@@@std@@@3@$0A@@std@@@2@PAU342@@Z
_TEXT	SEGMENT PARA USE32 PUBLIC 'CODE'
_TEXT	ENDS
;	COMDAT ?_Psave@?$_Facetptr@V?$ctype@G@std@@@std@@2PBVfacet@locale@2@B
_DATA	SEGMENT DWORD USE32 PUBLIC 'DATA'
_DATA	ENDS
;	COMDAT ?_Psave@?$_Facetptr@V?$ctype@D@std@@@std@@2PBVfacet@locale@2@B
_DATA	SEGMENT DWORD USE32 PUBLIC 'DATA'
_DATA	ENDS
;	COMDAT __TI3?AVlength_error@std@@
xdata$x	SEGMENT DWORD USE32 PUBLIC 'CONST'
xdata$x	ENDS
;	COMDAT ??1length_error@std@@UAE@XZ
_TEXT	SEGMENT PARA USE32 PUBLIC 'CODE'
_TEXT	ENDS
;	COMDAT ??_7length_error@std@@6B@
CONST	SEGMENT DWORD USE32 PUBLIC 'CONST'
CONST	ENDS
;	COMDAT ??_Glength_error@std@@UAEPAXI@Z
_TEXT	SEGMENT PARA USE32 PUBLIC 'CODE'
_TEXT	ENDS
;	COMDAT ?what@logic_error@std@@UBEPBDXZ
_TEXT	SEGMENT PARA USE32 PUBLIC 'CODE'
_TEXT	ENDS
;	COMDAT ?c_str@?$basic_string@DU?$char_traits@D@std@@V?$allocator@D@2@@std@@QBEPBDXZ
_TEXT	SEGMENT PARA USE32 PUBLIC 'CODE'
_TEXT	ENDS
;	COMDAT ??1logic_error@std@@UAE@XZ
_TEXT	SEGMENT PARA USE32 PUBLIC 'CODE'
_TEXT	ENDS
;	COMDAT ??_7logic_error@std@@6B@
CONST	SEGMENT DWORD USE32 PUBLIC 'CONST'
CONST	ENDS
;	COMDAT ??_Glogic_error@std@@UAEPAXI@Z
_TEXT	SEGMENT PARA USE32 PUBLIC 'CODE'
_TEXT	ENDS
;	COMDAT __CTA3?AVlength_error@std@@
xdata$x	SEGMENT DWORD USE32 PUBLIC 'CONST'
xdata$x	ENDS
;	COMDAT __CT??_R0?AVlength_error@std@@@8??0length_error@std@@QAE@ABV01@@Z40
xdata$x	SEGMENT DWORD USE32 PUBLIC 'CONST'
xdata$x	ENDS
;	COMDAT ??_R0?AVlength_error@std@@@8
_DATA	SEGMENT DWORD USE32 PUBLIC 'DATA'
_DATA	ENDS
;	COMDAT ??0length_error@std@@QAE@ABV01@@Z
_TEXT	SEGMENT PARA USE32 PUBLIC 'CODE'
_TEXT	ENDS
;	COMDAT ??0logic_error@std@@QAE@ABV01@@Z
_TEXT	SEGMENT PARA USE32 PUBLIC 'CODE'
_TEXT	ENDS
;	COMDAT ??0?$basic_string@DU?$char_traits@D@std@@V?$allocator@D@2@@std@@QAE@ABV01@@Z
_TEXT	SEGMENT PARA USE32 PUBLIC 'CODE'
_TEXT	ENDS
;	COMDAT ??0?$_String_val@DV?$allocator@D@std@@@std@@IAE@V?$allocator@D@1@@Z
_TEXT	SEGMENT PARA USE32 PUBLIC 'CODE'
_TEXT	ENDS
;	COMDAT ??0?$allocator@D@std@@QAE@ABV01@@Z
_TEXT	SEGMENT PARA USE32 PUBLIC 'CODE'
_TEXT	ENDS
;	COMDAT ?_Tidy@?$basic_string@DU?$char_traits@D@std@@V?$allocator@D@2@@std@@IAEX_NI@Z
_TEXT	SEGMENT PARA USE32 PUBLIC 'CODE'
_TEXT	ENDS
;	COMDAT ?copy@?$char_traits@D@std@@SAPADPADPBDI@Z
_TEXT	SEGMENT PARA USE32 PUBLIC 'CODE'
_TEXT	ENDS
;	COMDAT ?deallocate@?$allocator@D@std@@QAEXPADI@Z
_TEXT	SEGMENT PARA USE32 PUBLIC 'CODE'
_TEXT	ENDS
;	COMDAT ?_Eos@?$basic_string@DU?$char_traits@D@std@@V?$allocator@D@2@@std@@IAEXI@Z
_TEXT	SEGMENT PARA USE32 PUBLIC 'CODE'
_TEXT	ENDS
;	COMDAT ?assign@?$char_traits@D@std@@SAXAADABD@Z
_TEXT	SEGMENT PARA USE32 PUBLIC 'CODE'
_TEXT	ENDS
;	COMDAT ?_Myptr@?$basic_string@DU?$char_traits@D@std@@V?$allocator@D@2@@std@@QAEPADXZ
_TEXT	SEGMENT PARA USE32 PUBLIC 'CODE'
_TEXT	ENDS
;	COMDAT ?assign@?$basic_string@DU?$char_traits@D@std@@V?$allocator@D@2@@std@@QAEAAV12@ABV12@II@Z
_TEXT	SEGMENT PARA USE32 PUBLIC 'CODE'
_TEXT	ENDS
;	COMDAT ?erase@?$basic_string@DU?$char_traits@D@std@@V?$allocator@D@2@@std@@QAEAAV12@II@Z
_TEXT	SEGMENT PARA USE32 PUBLIC 'CODE'
_TEXT	ENDS
;	COMDAT ?move@?$char_traits@D@std@@SAPADPADPBDI@Z
_TEXT	SEGMENT PARA USE32 PUBLIC 'CODE'
_TEXT	ENDS
;	COMDAT ?_Grow@?$basic_string@DU?$char_traits@D@std@@V?$allocator@D@2@@std@@IAE_NI_N@Z
_TEXT	SEGMENT PARA USE32 PUBLIC 'CODE'
_TEXT	ENDS
;	COMDAT ?max_size@?$basic_string@DU?$char_traits@D@std@@V?$allocator@D@2@@std@@QBEIXZ
_TEXT	SEGMENT PARA USE32 PUBLIC 'CODE'
_TEXT	ENDS
;	COMDAT ?max_size@?$allocator@D@std@@QBEIXZ
_TEXT	SEGMENT PARA USE32 PUBLIC 'CODE'
_TEXT	ENDS
;	COMDAT ?_Copy@?$basic_string@DU?$char_traits@D@std@@V?$allocator@D@2@@std@@IAEXII@Z
_TEXT	SEGMENT PARA USE32 PUBLIC 'CODE'
_TEXT	ENDS
;	COMDAT ?allocate@?$allocator@D@std@@QAEPADI@Z
_TEXT	SEGMENT PARA USE32 PUBLIC 'CODE'
_TEXT	ENDS
;	COMDAT ??$_Allocate@D@std@@YAPADIPAD@Z
_TEXT	SEGMENT PARA USE32 PUBLIC 'CODE'
_TEXT	ENDS
;	COMDAT ?npos@?$basic_string@DU?$char_traits@D@std@@V?$allocator@D@2@@std@@2IB
CONST	SEGMENT DWORD USE32 PUBLIC 'CONST'
CONST	ENDS
;	COMDAT __CT??_R0?AVlogic_error@std@@@8??0logic_error@std@@QAE@ABV01@@Z40
xdata$x	SEGMENT DWORD USE32 PUBLIC 'CONST'
xdata$x	ENDS
;	COMDAT ??_R0?AVlogic_error@std@@@8
_DATA	SEGMENT DWORD USE32 PUBLIC 'DATA'
_DATA	ENDS
;	COMDAT __CT??_R0?AVexception@@@8??0exception@@QAE@ABV0@@Z12
xdata$x	SEGMENT DWORD USE32 PUBLIC 'CONST'
xdata$x	ENDS
;	COMDAT ??_R0?AVexception@@@8
_DATA	SEGMENT DWORD USE32 PUBLIC 'DATA'
_DATA	ENDS
;	COMDAT ??1?$basic_string@DU?$char_traits@D@std@@V?$allocator@D@2@@std@@QAE@XZ
_TEXT	SEGMENT PARA USE32 PUBLIC 'CODE'
_TEXT	ENDS
;	COMDAT ??_C@_0BD@OLBABOEK@vector?$DMT?$DO?5too?5long?$AA@
CONST	SEGMENT DWORD USE32 PUBLIC 'CONST'
CONST	ENDS
;	COMDAT ??0?$basic_string@DU?$char_traits@D@std@@V?$allocator@D@2@@std@@QAE@PBD@Z
_TEXT	SEGMENT PARA USE32 PUBLIC 'CODE'
_TEXT	ENDS
;	COMDAT ??0?$allocator@D@std@@QAE@XZ
_TEXT	SEGMENT PARA USE32 PUBLIC 'CODE'
_TEXT	ENDS
;	COMDAT ?assign@?$basic_string@DU?$char_traits@D@std@@V?$allocator@D@2@@std@@QAEAAV12@PBD@Z
_TEXT	SEGMENT PARA USE32 PUBLIC 'CODE'
_TEXT	ENDS
;	COMDAT ?assign@?$basic_string@DU?$char_traits@D@std@@V?$allocator@D@2@@std@@QAEAAV12@PBDI@Z
_TEXT	SEGMENT PARA USE32 PUBLIC 'CODE'
_TEXT	ENDS
;	COMDAT ?_Inside@?$basic_string@DU?$char_traits@D@std@@V?$allocator@D@2@@std@@IAE_NPBD@Z
_TEXT	SEGMENT PARA USE32 PUBLIC 'CODE'
_TEXT	ENDS
;	COMDAT ?length@?$char_traits@D@std@@SAIPBD@Z
_TEXT	SEGMENT PARA USE32 PUBLIC 'CODE'
_TEXT	ENDS
;	COMDAT ??0length_error@std@@QAE@ABV?$basic_string@DU?$char_traits@D@std@@V?$allocator@D@2@@1@@Z
_TEXT	SEGMENT PARA USE32 PUBLIC 'CODE'
_TEXT	ENDS
;	COMDAT ??0logic_error@std@@QAE@ABV?$basic_string@DU?$char_traits@D@std@@V?$allocator@D@2@@1@@Z
_TEXT	SEGMENT PARA USE32 PUBLIC 'CODE'
_TEXT	ENDS
;	COMDAT ?compare@?$char_traits@D@std@@SAHPBD0I@Z
_TEXT	SEGMENT PARA USE32 PUBLIC 'CODE'
_TEXT	ENDS
;	COMDAT ?ReleaseBufferSetLength@?$CSimpleStringT@D$0A@@ATL@@QAEXH@Z
_TEXT	SEGMENT PARA USE32 PUBLIC 'CODE'
_TEXT	ENDS
;	COMDAT ?SetLength@?$CSimpleStringT@D$0A@@ATL@@AAEXH@Z
_TEXT	SEGMENT PARA USE32 PUBLIC 'CODE'
_TEXT	ENDS
;	COMDAT ?GetData@?$CSimpleStringT@D$0A@@ATL@@ABEPAUCStringData@2@XZ
_TEXT	SEGMENT PARA USE32 PUBLIC 'CODE'
_TEXT	ENDS
;	COMDAT ?Format@?$ChTraitsCRT@D@ATL@@SAHPADPBD0@Z
_TEXT	SEGMENT PARA USE32 PUBLIC 'CODE'
_TEXT	ENDS
;	COMDAT ?GetBuffer@?$CSimpleStringT@D$0A@@ATL@@QAEPADH@Z
_TEXT	SEGMENT PARA USE32 PUBLIC 'CODE'
_TEXT	ENDS
;	COMDAT ?PrepareWrite@?$CSimpleStringT@D$0A@@ATL@@AAEPADH@Z
_TEXT	SEGMENT PARA USE32 PUBLIC 'CODE'
_TEXT	ENDS
;	COMDAT ?PrepareWrite2@?$CSimpleStringT@D$0A@@ATL@@AAEXH@Z
_TEXT	SEGMENT PARA USE32 PUBLIC 'CODE'
_TEXT	ENDS
;	COMDAT ?IsShared@CStringData@ATL@@QBE_NXZ
_TEXT	SEGMENT PARA USE32 PUBLIC 'CODE'
_TEXT	ENDS
;	COMDAT ?Fork@?$CSimpleStringT@D$0A@@ATL@@AAEXH@Z
_TEXT	SEGMENT PARA USE32 PUBLIC 'CODE'
_TEXT	ENDS
;	COMDAT ?ThrowMemoryException@?$CSimpleStringT@D$0A@@ATL@@KAXXZ
_TEXT	SEGMENT PARA USE32 PUBLIC 'CODE'
_TEXT	ENDS
;	COMDAT ?CopyChars@?$CSimpleStringT@D$0A@@ATL@@SAXPADPBDH@Z
_TEXT	SEGMENT PARA USE32 PUBLIC 'CODE'
_TEXT	ENDS
;	COMDAT ?data@CStringData@ATL@@QAEPAXXZ
_TEXT	SEGMENT PARA USE32 PUBLIC 'CODE'
_TEXT	ENDS
;	COMDAT ?Release@CStringData@ATL@@QAEXXZ
_TEXT	SEGMENT PARA USE32 PUBLIC 'CODE'
_TEXT	ENDS
;	COMDAT ?Attach@?$CSimpleStringT@D$0A@@ATL@@AAEXPAUCStringData@2@@Z
_TEXT	SEGMENT PARA USE32 PUBLIC 'CODE'
_TEXT	ENDS
;	COMDAT ?Reallocate@?$CSimpleStringT@D$0A@@ATL@@AAEXH@Z
_TEXT	SEGMENT PARA USE32 PUBLIC 'CODE'
_TEXT	ENDS
;	COMDAT ?GetFormattedLength@?$ChTraitsCRT@D@ATL@@SAHPBDPAD@Z
_TEXT	SEGMENT PARA USE32 PUBLIC 'CODE'
_TEXT	ENDS
;	COMDAT ?AtlThrow@ATL@@YGXJ@Z
_TEXT	SEGMENT PARA USE32 PUBLIC 'CODE'
_TEXT	ENDS
;	COMDAT ?_Myptr@?$basic_string@DU?$char_traits@D@std@@V?$allocator@D@2@@std@@QBEPBDXZ
_TEXT	SEGMENT PARA USE32 PUBLIC 'CODE'
_TEXT	ENDS
;	COMDAT ?size@?$basic_string@DU?$char_traits@D@std@@V?$allocator@D@2@@std@@QBEIXZ
_TEXT	SEGMENT PARA USE32 PUBLIC 'CODE'
_TEXT	ENDS
;	COMDAT ?SetVisKeepTime@CItemElem@@QAEXHJ@Z
_TEXT	SEGMENT PARA USE32 PUBLIC 'CODE'
_TEXT	ENDS
;	COMDAT ?SetPiercingItem@CItemElem@@QAEXHK@Z
_TEXT	SEGMENT PARA USE32 PUBLIC 'CODE'
_TEXT	ENDS
;	COMDAT ?GetVisKeepTime@CItemElem@@QAEJH@Z
_TEXT	SEGMENT PARA USE32 PUBLIC 'CODE'
_TEXT	ENDS
;	COMDAT ?GetLevel@CPet@@QAEEXZ
_TEXT	SEGMENT PARA USE32 PUBLIC 'CODE'
_TEXT	ENDS
;	COMDAT ?IsPet@CItemElem@@QAEHXZ
_TEXT	SEGMENT PARA USE32 PUBLIC 'CODE'
_TEXT	ENDS
;	COMDAT ?IsVisPet@CItemElem@@QAEHXZ
_TEXT	SEGMENT PARA USE32 PUBLIC 'CODE'
_TEXT	ENDS
;	COMDAT ?IsVisPet@ItemProp@@QAEHXZ
_TEXT	SEGMENT PARA USE32 PUBLIC 'CODE'
_TEXT	ENDS
;	COMDAT ?IsTransformVisPet@CItemElem@@QAEHXZ
_TEXT	SEGMENT PARA USE32 PUBLIC 'CODE'
_TEXT	ENDS
;	COMDAT ?GetLevel@CMover@@QAEHXZ
_TEXT	SEGMENT PARA USE32 PUBLIC 'CODE'
_TEXT	ENDS
;	COMDAT ?GetJobType@CMover@@QAEKH@Z
_TEXT	SEGMENT PARA USE32 PUBLIC 'CODE'
_TEXT	ENDS
;	COMDAT ??0?$CStringT@DV?$StrTraitMFC@DV?$ChTraitsCRT@D@ATL@@@@@ATL@@QAE@ABV01@@Z
_TEXT	SEGMENT PARA USE32 PUBLIC 'CODE'
_TEXT	ENDS
;	COMDAT ??0?$CSimpleStringT@D$0A@@ATL@@QAE@ABV01@@Z
_TEXT	SEGMENT PARA USE32 PUBLIC 'CODE'
_TEXT	ENDS
;	COMDAT ?CloneData@?$CSimpleStringT@D$0A@@ATL@@CAPAUCStringData@2@PAU32@@Z
_TEXT	SEGMENT PARA USE32 PUBLIC 'CODE'
_TEXT	ENDS
;	COMDAT ?IsLocked@CStringData@ATL@@QBE_NXZ
_TEXT	SEGMENT PARA USE32 PUBLIC 'CODE'
_TEXT	ENDS
;	COMDAT ?AddRef@CStringData@ATL@@QAEXXZ
_TEXT	SEGMENT PARA USE32 PUBLIC 'CODE'
_TEXT	ENDS
;	COMDAT ??1?$CSimpleStringT@D$0A@@ATL@@QAE@XZ
_TEXT	SEGMENT PARA USE32 PUBLIC 'CODE'
_TEXT	ENDS
;	COMDAT ?GetText@CProject@@QAEPBDK@Z
_TEXT	SEGMENT PARA USE32 PUBLIC 'CODE'
_TEXT	ENDS
;	COMDAT ?LOG_RANGE@@YAXPBDHHH@Z
_TEXT	SEGMENT PARA USE32 PUBLIC 'CODE'
_TEXT	ENDS
;	COMDAT ??_C@_0BM@HMFGHCP@?$CFs?5min?3?$CFd?0?5max?3?$CFd?0?5index?3?$CFd?$AA@
CONST	SEGMENT DWORD USE32 PUBLIC 'CONST'
CONST	ENDS
;	COMDAT ?GetSize@?$CFixedArray@UtagColorText@@@@QAEHXZ
_TEXT	SEGMENT PARA USE32 PUBLIC 'CODE'
_TEXT	ENDS
;	COMDAT ??_C@_0BE@OHDBLHOM@GetText?5range_error?$AA@
CONST	SEGMENT DWORD USE32 PUBLIC 'CONST'
CONST	ENDS
;	COMDAT ??_C@_05KKCIMGE@error?$AA@
CONST	SEGMENT DWORD USE32 PUBLIC 'CONST'
CONST	ENDS
;	COMDAT ??_C@_00CNPNBAHC@?$AA@
CONST	SEGMENT DWORD USE32 PUBLIC 'CONST'
CONST	ENDS
;	COMDAT ?GetAt@?$CFixedArray@UtagColorText@@@@QAEPAUtagColorText@@K@Z
_TEXT	SEGMENT PARA USE32 PUBLIC 'CODE'
_TEXT	ENDS
;	COMDAT ?GetName@CPet@@QAEPBDXZ
_TEXT	SEGMENT PARA USE32 PUBLIC 'CODE'
_TEXT	ENDS
;	COMDAT ?HasName@CPet@@QAEHXZ
_TEXT	SEGMENT PARA USE32 PUBLIC 'CODE'
_TEXT	ENDS
;	COMDAT ?GetMoverProp@CProject@@QAEPAUMoverProp@@H@Z
_TEXT	SEGMENT PARA USE32 PUBLIC 'CODE'
_TEXT	ENDS
;	COMDAT ??_C@_0BJ@GKPOBPPI@GetMoverProp?5range_error?$AA@
CONST	SEGMENT DWORD USE32 PUBLIC 'CONST'
CONST	ENDS
;	COMDAT ??1?$CStringT@DV?$StrTraitMFC@DV?$ChTraitsCRT@D@ATL@@@@@ATL@@QAE@XZ
_TEXT	SEGMENT PARA USE32 PUBLIC 'CODE'
_TEXT	ENDS
;	COMDAT ??0?$CStringT@DV?$StrTraitMFC@DV?$ChTraitsCRT@D@ATL@@@@@ATL@@QAE@PBD@Z
_TEXT	SEGMENT PARA USE32 PUBLIC 'CODE'
_TEXT	ENDS
;	COMDAT ??0?$CSimpleStringT@D$0A@@ATL@@QAE@PAUIAtlStringMgr@1@@Z
_TEXT	SEGMENT PARA USE32 PUBLIC 'CODE'
_TEXT	ENDS
;	COMDAT ?GetDefaultManager@?$StrTraitMFC@DV?$ChTraitsCRT@D@ATL@@@@SAPAUIAtlStringMgr@ATL@@XZ
_TEXT	SEGMENT PARA USE32 PUBLIC 'CODE'
_TEXT	ENDS
;	COMDAT ?CheckImplicitLoad@?$CStringT@DV?$StrTraitMFC@DV?$ChTraitsCRT@D@ATL@@@@@ATL@@AAE_NPBX@Z
_TEXT	SEGMENT PARA USE32 PUBLIC 'CODE'
_TEXT	ENDS
;	COMDAT ?LoadStringA@?$CStringT@DV?$StrTraitMFC@DV?$ChTraitsCRT@D@ATL@@@@@ATL@@QAEHI@Z
_TEXT	SEGMENT PARA USE32 PUBLIC 'CODE'
_TEXT	ENDS
;	COMDAT ?FindStringResourceInstance@?$StrTraitMFC@DV?$ChTraitsCRT@D@ATL@@@@SAPAUHINSTANCE__@@I@Z
_TEXT	SEGMENT PARA USE32 PUBLIC 'CODE'
_TEXT	ENDS
;	COMDAT ?LoadStringA@?$CStringT@DV?$StrTraitMFC@DV?$ChTraitsCRT@D@ATL@@@@@ATL@@QAEHPAUHINSTANCE__@@I@Z
_TEXT	SEGMENT PARA USE32 PUBLIC 'CODE'
_TEXT	ENDS
;	COMDAT ?AtlGetStringResourceImage@ATL@@YAPBUATLSTRINGRESOURCEIMAGE@1@PAUHINSTANCE__@@I@Z
_TEXT	SEGMENT PARA USE32 PUBLIC 'CODE'
_TEXT	ENDS
;	COMDAT ?_AtlGetStringResourceImage@ATL@@YAPBUATLSTRINGRESOURCEIMAGE@1@PAUHINSTANCE__@@PAUHRSRC__@@I@Z
_TEXT	SEGMENT PARA USE32 PUBLIC 'CODE'
_TEXT	ENDS
;	COMDAT ?GetBaseTypeLength@?$ChTraitsCRT@D@ATL@@SAHPBGH@Z
_TEXT	SEGMENT PARA USE32 PUBLIC 'CODE'
_TEXT	ENDS
;	COMDAT ?_AtlGetConversionACP@ATL@@YGIXZ
_TEXT	SEGMENT PARA USE32 PUBLIC 'CODE'
_TEXT	ENDS
;	COMDAT ?g_pfnGetThreadACP@ATL@@3P6GIXZA
_DATA	SEGMENT DWORD USE32 PUBLIC 'DATA'
_DATA	ENDS
;	COMDAT ?_AtlGetThreadACPThunk@ATL@@YGIXZ
_TEXT	SEGMENT PARA USE32 PUBLIC 'CODE'
_TEXT	ENDS
;	COMDAT ?_AtlGetThreadACPReal@ATL@@YGIXZ
_TEXT	SEGMENT PARA USE32 PUBLIC 'CODE'
_TEXT	ENDS
;	COMDAT ?_AtlGetThreadACPFake@ATL@@YGIXZ
_TEXT	SEGMENT PARA USE32 PUBLIC 'CODE'
_TEXT	ENDS
;	COMDAT ?InterlockedExchangePointer@@YGPAXPAPAXPAX@Z
_TEXT	SEGMENT PARA USE32 PUBLIC 'CODE'
_TEXT	ENDS
;	COMDAT ?ConvertToBaseType@?$ChTraitsCRT@D@ATL@@SAXPADHPBGH@Z
_TEXT	SEGMENT PARA USE32 PUBLIC 'CODE'
_TEXT	ENDS
;	COMDAT ??4?$CStringT@DV?$StrTraitMFC@DV?$ChTraitsCRT@D@ATL@@@@@ATL@@QAEAAV01@PBD@Z
_TEXT	SEGMENT PARA USE32 PUBLIC 'CODE'
_TEXT	ENDS
;	COMDAT ??4?$CSimpleStringT@D$0A@@ATL@@QAEAAV01@PBD@Z
_TEXT	SEGMENT PARA USE32 PUBLIC 'CODE'
_TEXT	ENDS
;	COMDAT ?SetString@?$CSimpleStringT@D$0A@@ATL@@QAEXPBD@Z
_TEXT	SEGMENT PARA USE32 PUBLIC 'CODE'
_TEXT	ENDS
;	COMDAT ?SetString@?$CSimpleStringT@D$0A@@ATL@@QAEXPBDH@Z
_TEXT	SEGMENT PARA USE32 PUBLIC 'CODE'
_TEXT	ENDS
;	COMDAT ?Empty@?$CSimpleStringT@D$0A@@ATL@@QAEXXZ
_TEXT	SEGMENT PARA USE32 PUBLIC 'CODE'
_TEXT	ENDS
;	COMDAT ?GetLength@?$CSimpleStringT@D$0A@@ATL@@QBEHXZ
_TEXT	SEGMENT PARA USE32 PUBLIC 'CODE'
_TEXT	ENDS
;	COMDAT ?GetString@?$CSimpleStringT@D$0A@@ATL@@QBEPBDXZ
_TEXT	SEGMENT PARA USE32 PUBLIC 'CODE'
_TEXT	ENDS
;	COMDAT ?CopyCharsOverlapped@?$CSimpleStringT@D$0A@@ATL@@SAXPADPBDH@Z
_TEXT	SEGMENT PARA USE32 PUBLIC 'CODE'
_TEXT	ENDS
;	COMDAT ?StringLength@?$CSimpleStringT@D$0A@@ATL@@SAHPBD@Z
_TEXT	SEGMENT PARA USE32 PUBLIC 'CODE'
_TEXT	ENDS
;	COMDAT ?GetRespawn@CCtrl@@QAEJXZ
_TEXT	SEGMENT PARA USE32 PUBLIC 'CODE'
_TEXT	ENDS
;	COMDAT ?GetLayer@CObj@@QAEHXZ
_TEXT	SEGMENT PARA USE32 PUBLIC 'CODE'
_TEXT	ENDS
;	COMDAT ?GetWorld@CObj@@QAEPAVCWorld@@XZ
_TEXT	SEGMENT PARA USE32 PUBLIC 'CODE'
_TEXT	ENDS
;	COMDAT ??_7CItem@@6B@
CONST	SEGMENT DWORD USE32 PUBLIC 'CONST'
CONST	ENDS
;	COMDAT ?IsFlag@CItemElem@@QAEHE@Z
_TEXT	SEGMENT PARA USE32 PUBLIC 'CODE'
_TEXT	ENDS
;	COMDAT ?IsBaruna@ItemProp@@QAEHXZ
_TEXT	SEGMENT PARA USE32 PUBLIC 'CODE'
_TEXT	ENDS
;	COMDAT ?GetPiercingItem@CItemElem@@QAEKH@Z
_TEXT	SEGMENT PARA USE32 PUBLIC 'CODE'
_TEXT	ENDS
;	COMDAT ?GetPiercingSize@CItemElem@@QAEHXZ
_TEXT	SEGMENT PARA USE32 PUBLIC 'CODE'
_TEXT	ENDS
;	COMDAT ?GetRandomOptItemId@CItemElem@@QAE_JXZ
_TEXT	SEGMENT PARA USE32 PUBLIC 'CODE'
_TEXT	ENDS
;	COMDAT ?GetTexture@CItemBase@@QAEPAVCTexture@@XZ
_TEXT	SEGMENT PARA USE32 PUBLIC 'CODE'
_TEXT	ENDS
;	COMDAT ?GetPropA@CItemElem@@QAEPAUItemProp@@XZ
_TEXT	SEGMENT PARA USE32 PUBLIC 'CODE'
_TEXT	ENDS
;	COMDAT ??_7CItemElem@@6B@
CONST	SEGMENT DWORD USE32 PUBLIC 'CONST'
CONST	ENDS
;	COMDAT ??1CItemBase@@UAE@XZ
_TEXT	SEGMENT PARA USE32 PUBLIC 'CODE'
_TEXT	ENDS
;	COMDAT ?GetAbilityOption@CItemElem@@QAEHXZ
_TEXT	SEGMENT PARA USE32 PUBLIC 'CODE'
_TEXT	ENDS
;	COMDAT ?GetItemProp@CProject@@QAEPAUItemProp@@H@Z
_TEXT	SEGMENT PARA USE32 PUBLIC 'CODE'
_TEXT	ENDS
;	COMDAT ?GetSize@?$CFixedArray@UItemProp@@@@QAEHXZ
_TEXT	SEGMENT PARA USE32 PUBLIC 'CODE'
_TEXT	ENDS
;	COMDAT ??_C@_0BI@BEIFNGEL@GetItemProp?5range_error?$AA@
CONST	SEGMENT DWORD USE32 PUBLIC 'CONST'
CONST	ENDS
;	COMDAT ?LOG_CALLSTACK@@YAXXZ
_TEXT	SEGMENT PARA USE32 PUBLIC 'CODE'
_TEXT	ENDS
;	COMDAT ?GetAt@?$CFixedArray@UItemProp@@@@QAEPAUItemProp@@K@Z
_TEXT	SEGMENT PARA USE32 PUBLIC 'CODE'
_TEXT	ENDS
;	COMDAT ?SetTexture@CItemBase@@QAEXPAVCTexture@@@Z
_TEXT	SEGMENT PARA USE32 PUBLIC 'CODE'
_TEXT	ENDS
;	COMDAT ??_7CItemBase@@6B@
CONST	SEGMENT DWORD USE32 PUBLIC 'CONST'
CONST	ENDS
;	COMDAT ??_GCItemBase@@UAEPAXI@Z
_TEXT	SEGMENT PARA USE32 PUBLIC 'CODE'
_TEXT	ENDS
;	COMDAT ?GetExtra@CItemBase@@QAEHXZ
_TEXT	SEGMENT PARA USE32 PUBLIC 'CODE'
_TEXT	ENDS
;	COMDAT ??_7CSerialNumber@@6B@
CONST	SEGMENT DWORD USE32 PUBLIC 'CONST'
CONST	ENDS
sxdata	SEGMENT DWORD USE32 'SXDATA'
sxdata	ENDS
FLAT	GROUP _DATA, CONST, _BSS
	ASSUME	CS: FLAT, DS: FLAT, SS: FLAT
endif

INCLUDELIB LIBCMT
INCLUDELIB OLDNAMES

PUBLIC	?g_pfnGetThreadACP@ATL@@3P6GIXZA		; ATL::g_pfnGetThreadACP
PUBLIC	?_AtlGetThreadACPThunk@ATL@@YGIXZ		; ATL::_AtlGetThreadACPThunk
;	COMDAT ?g_pfnGetThreadACP@ATL@@3P6GIXZA
_DATA	SEGMENT
?g_pfnGetThreadACP@ATL@@3P6GIXZA DD FLAT:?_AtlGetThreadACPThunk@ATL@@YGIXZ ; ATL::g_pfnGetThreadACP
_DATA	ENDS
PUBLIC	??4CItemBase@@UAEAAV0@AAV0@@Z			; CItemBase::operator=
; Function compile flags: /Ogty
; File c:\documents and settings\test\mes documents\source\virtuos_v17\build\program\_common\item.cpp
;	COMDAT ??4CItemBase@@UAEAAV0@AAV0@@Z
_TEXT	SEGMENT
_ib$ = 8						; size = 4
??4CItemBase@@UAEAAV0@AAV0@@Z PROC NEAR			; CItemBase::operator=, COMDAT
; _this$ = ecx

; 68   : {

  00000	8b c1		 mov	 eax, ecx

; 69   : 	_tcscpy( m_szItemText, ib.m_szItemText );

  00002	8b 4c 24 04	 mov	 ecx, DWORD PTR _ib$[esp-4]
  00006	53		 push	 ebx
  00007	56		 push	 esi
  00008	8d 51 14	 lea	 edx, DWORD PTR [ecx+20]
  0000b	8d 70 14	 lea	 esi, DWORD PTR [eax+20]
  0000e	2b f2		 sub	 esi, edx
$L236752:
  00010	8a 1a		 mov	 bl, BYTE PTR [edx]
  00012	88 1c 16	 mov	 BYTE PTR [esi+edx], bl
  00015	42		 inc	 edx
  00016	84 db		 test	 bl, bl
  00018	75 f6		 jne	 SHORT $L236752

; 70   : 	m_dwItemId	      = ib.m_dwItemId  ;

  0001a	8b 51 0c	 mov	 edx, DWORD PTR [ecx+12]
  0001d	89 50 0c	 mov	 DWORD PTR [eax+12], edx

; 71   : 	m_liSerialNumber	= ib.m_liSerialNumber;

  00020	8b 49 38	 mov	 ecx, DWORD PTR [ecx+56]
  00023	5e		 pop	 esi
  00024	89 48 38	 mov	 DWORD PTR [eax+56], ecx
  00027	5b		 pop	 ebx

; 72   : 
; 73   : #ifdef __CLIENT
; 74   : 	m_pTexture        = ib.m_pTexture;
; 75   : #endif
; 76   : 
; 77   : 	return *this;
; 78   : }

  00028	c2 04 00	 ret	 4
??4CItemBase@@UAEAAV0@AAV0@@Z ENDP			; CItemBase::operator=
_TEXT	ENDS
PUBLIC	?SetTexture@CItemBase@@QAEXXZ			; CItemBase::SetTexture
; Function compile flags: /Ogty
;	COMDAT ?SetTexture@CItemBase@@QAEXXZ
_TEXT	SEGMENT
?SetTexture@CItemBase@@QAEXXZ PROC NEAR			; CItemBase::SetTexture, COMDAT
; _this$ = ecx

; 82   : #ifdef __CLIENT
; 83   : 	ItemProp* pProp =GetProp();
; 84   : 	if (!pProp)
; 85   : 	{
; 86   : 		LPCTSTR szErr = Error("CItemBase::SetTexture GetProp() NULL Return %d", m_dwItemId);
; 87   : 		ADDERRORMSG( szErr );
; 88   : 	}
; 89   : 
; 90   : #if __VER >= 9	// __PET_0410
; 91   : 	CString strIcon	= pProp->szIcon;
; 92   : 	if( pProp->dwItemKind3 == IK3_EGG )
; 93   : 	{
; 94   : 		BYTE nLevel	= 0;
; 95   : 		if( ( (CItemElem*)this )->m_pPet )
; 96   : 			nLevel	= ( (CItemElem*)this )->m_pPet->GetLevel();
; 97   : 		switch( nLevel )
; 98   : 		{
; 99   : 			case PL_D:
; 100  : 			case PL_C:
; 101  : 				strIcon.Replace( ".", "_00." );
; 102  : 				break;
; 103  : 			case PL_B:
; 104  : 			case PL_A:
; 105  : 				strIcon.Replace( ".", "_01." );
; 106  : 				break;
; 107  : 			case PL_S:
; 108  : 				strIcon.Replace( ".", "_02." );
; 109  : 				break;
; 110  : 		}
; 111  : 	}
; 112  : 	m_pTexture = CWndBase::m_textureMng.AddTexture( g_Neuz.m_pd3dDevice, MakePath( DIR_ITEM, strIcon ), 0xffff00ff );
; 113  : #else	// __PET_0410
; 114  : 	m_pTexture = CWndBase::m_textureMng.AddTexture( g_Neuz.m_pd3dDevice, MakePath( DIR_ITEM, GetProp()->szIcon), 0xffff00ff );
; 115  : #endif	// __PET_0410
; 116  : #endif
; 117  : }

  00000	c3		 ret	 0
?SetTexture@CItemBase@@QAEXXZ ENDP			; CItemBase::SetTexture
_TEXT	ENDS
PUBLIC	?GetGold@CItemElem@@QAEHXZ			; CItemElem::GetGold
; Function compile flags: /Ogty
;	COMDAT ?GetGold@CItemElem@@QAEHXZ
_TEXT	SEGMENT
?GetGold@CItemElem@@QAEHXZ PROC NEAR			; CItemElem::GetGold, COMDAT
; _this$ = ecx

; 268  : 	ASSERT( GetProp()->dwItemKind1 == IK1_GOLD );
; 269  : 	return m_nHitPoint;		// int        

  00000	8b 41 7c	 mov	 eax, DWORD PTR [ecx+124]

; 270  : }

  00003	c3		 ret	 0
?GetGold@CItemElem@@QAEHXZ ENDP				; CItemElem::GetGold
_TEXT	ENDS
PUBLIC	?IsCharged@CItemElem@@QAEHXZ			; CItemElem::IsCharged
; Function compile flags: /Ogty
;	COMDAT ?IsCharged@CItemElem@@QAEHXZ
_TEXT	SEGMENT
?IsCharged@CItemElem@@QAEHXZ PROC NEAR			; CItemElem::IsCharged, COMDAT
; _this$ = ecx

; 325  : 	if( m_bCharged == 1 || m_nResistSMItemId != 0 )

  00000	8b 91 ac 00 00
	00		 mov	 edx, DWORD PTR [ecx+172]
  00006	b8 01 00 00 00	 mov	 eax, 1
  0000b	3b d0		 cmp	 edx, eax
  0000d	74 0c		 je	 SHORT $L234499
  0000f	8b 91 90 00 00
	00		 mov	 edx, DWORD PTR [ecx+144]
  00015	85 d2		 test	 edx, edx
  00017	75 02		 jne	 SHORT $L234499

; 326  : 		return TRUE;
; 327  : 
; 328  : 	return FALSE;

  00019	33 c0		 xor	 eax, eax
$L234499:

; 329  : }

  0001b	c3		 ret	 0
?IsCharged@CItemElem@@QAEHXZ ENDP			; CItemElem::IsCharged
_TEXT	ENDS
PUBLIC	?IsElementalCard@CItemElem@@SAHK@Z		; CItemElem::IsElementalCard
; Function compile flags: /Ogty
;	COMDAT ?IsElementalCard@CItemElem@@SAHK@Z
_TEXT	SEGMENT
_dwItemID$ = 8						; size = 4
?IsElementalCard@CItemElem@@SAHK@Z PROC NEAR		; CItemElem::IsElementalCard, COMDAT

; 400  : 	switch( dwItemID )

  00000	8b 44 24 04	 mov	 eax, DWORD PTR _dwItemID$[esp-4]
  00004	05 7a f3 ff ff	 add	 eax, -3206		; fffff37aH
  00009	83 f8 14	 cmp	 eax, 20			; 00000014H
  0000c	77 14		 ja	 SHORT $L234545
  0000e	0f b6 80 00 00
	00 00		 movzx	 eax, BYTE PTR $L236768[eax]
  00015	ff 24 85 00 00
	00 00		 jmp	 DWORD PTR $L236769[eax*4]
$L234544:

; 401  : 	{
; 402  : 	case II_GEN_MAT_ELE_FLAME: case II_GEN_MAT_ELE_RIVER: case II_GEN_MAT_ELE_GENERATOR: case II_GEN_MAT_ELE_DESERT: case II_GEN_MAT_ELE_CYCLON:
; 403  : 		return TRUE;

  0001c	b8 01 00 00 00	 mov	 eax, 1

; 406  : 	}
; 407  : }

  00021	c3		 ret	 0
$L234545:

; 404  : 	default:
; 405  : 		return FALSE;

  00022	33 c0		 xor	 eax, eax

; 406  : 	}
; 407  : }

  00024	c3		 ret	 0
  00025	8d 49 00	 npad	 3
$L236769:
  00028	00 00 00 00	 DD	 $L234544
  0002c	00 00 00 00	 DD	 $L234545
$L236768:
  00030	00		 DB	 0
  00031	01		 DB	 1
  00032	01		 DB	 1
  00033	01		 DB	 1
  00034	01		 DB	 1
  00035	00		 DB	 0
  00036	01		 DB	 1
  00037	01		 DB	 1
  00038	01		 DB	 1
  00039	01		 DB	 1
  0003a	00		 DB	 0
  0003b	01		 DB	 1
  0003c	01		 DB	 1
  0003d	01		 DB	 1
  0003e	01		 DB	 1
  0003f	00		 DB	 0
  00040	01		 DB	 1
  00041	01		 DB	 1
  00042	01		 DB	 1
  00043	01		 DB	 1
  00044	00		 DB	 0
?IsElementalCard@CItemElem@@SAHK@Z ENDP			; CItemElem::IsElementalCard
_TEXT	ENDS
PUBLIC	?SendDamage@CCtrl@@UAEHKKHH@Z			; CCtrl::SendDamage
PUBLIC	?SendDamageForce@CCtrl@@UAEHKKHH@Z		; CCtrl::SendDamageForce
PUBLIC	?SetMotion@CObj@@UAEHKHK@Z			; CObj::SetMotion
PUBLIC	?InitMotion@CObj@@UAEHK@Z			; CObj::InitMotion
PUBLIC	?GetName@CObj@@UAEPBDXZ				; CObj::GetName
PUBLIC	?SetIndex@CObj@@UAEHPAUIDirect3DDevice9@@KH@Z	; CObj::SetIndex
PUBLIC	??0CItem@@QAE@XZ				; CItem::CItem
PUBLIC	?Process@CItem@@UAEXXZ				; CItem::Process
PUBLIC	?Render@CItem@@UAEXPAUIDirect3DDevice9@@@Z	; CItem::Render
PUBLIC	?RenderName@CItem@@UAEXPAUIDirect3DDevice9@@PAVCD3DFont@@K@Z ; CItem::RenderName
PUBLIC	?Read@CItem@@UAEHPAVCFileIO@@@Z			; CItem::Read
PUBLIC	??_7CItem@@6B@					; CItem::`vftable'
PUBLIC	??_GCItem@@UAEPAXI@Z				; CItem::`scalar deleting destructor'
EXTRN	?GetSkillProp@CCtrl@@UAEHPAPAUItemProp@@PAPAUAddSkillProp@@HKPBD@Z:NEAR ; CCtrl::GetSkillProp
EXTRN	?AddItToGlobalId@CCtrl@@UAEXXZ:NEAR		; CCtrl::AddItToGlobalId
EXTRN	?RemoveItFromGlobalId@CCtrl@@UAEXXZ:NEAR	; CCtrl::RemoveItFromGlobalId
EXTRN	?LoadModel@CObj@@UAEPAVCModel@@PAUIDirect3DDevice9@@KK@Z:NEAR ; CObj::LoadModel
EXTRN	?InitProp@CObj@@UAEXH@Z:NEAR			; CObj::InitProp
EXTRN	?Serialize@CItem@@UAEXAAVCAr@@@Z:NEAR		; CItem::Serialize
EXTRN	??_ECItem@@UAEPAXI@Z:NEAR			; CItem::`vector deleting destructor'
EXTRN	??0CCtrl@@QAE@XZ:NEAR				; CCtrl::CCtrl
EXTRN	__imp__timeGetTime@0:NEAR
;	COMDAT ??_7CItem@@6B@
CONST	SEGMENT
??_7CItem@@6B@ DD FLAT:??_ECItem@@UAEPAXI@Z		; CItem::`vftable'
	DD	FLAT:?SetMotion@CObj@@UAEHKHK@Z
	DD	FLAT:?InitMotion@CObj@@UAEHK@Z
	DD	FLAT:?LoadModel@CObj@@UAEPAVCModel@@PAUIDirect3DDevice9@@KK@Z
	DD	FLAT:?InitProp@CObj@@UAEXH@Z
	DD	FLAT:?GetName@CObj@@UAEPBDXZ
	DD	FLAT:?Process@CItem@@UAEXXZ
	DD	FLAT:?Read@CItem@@UAEHPAVCFileIO@@@Z
	DD	FLAT:?Serialize@CItem@@UAEXAAVCAr@@@Z
	DD	FLAT:?Render@CItem@@UAEXPAUIDirect3DDevice9@@@Z
	DD	FLAT:?RenderName@CItem@@UAEXPAUIDirect3DDevice9@@PAVCD3DFont@@K@Z
	DD	FLAT:?SetIndex@CObj@@UAEHPAUIDirect3DDevice9@@KH@Z
	DD	FLAT:?GetSkillProp@CCtrl@@UAEHPAPAUItemProp@@PAPAUAddSkillProp@@HKPBD@Z
	DD	FLAT:?SendDamage@CCtrl@@UAEHKKHH@Z
	DD	FLAT:?SendDamageForce@CCtrl@@UAEHKKHH@Z
	DD	FLAT:?AddItToGlobalId@CCtrl@@UAEXXZ
	DD	FLAT:?RemoveItFromGlobalId@CCtrl@@UAEXXZ
; Function compile flags: /Ogty
CONST	ENDS
;	COMDAT ??0CItem@@QAE@XZ
_TEXT	SEGMENT
??0CItem@@QAE@XZ PROC NEAR				; CItem::CItem, COMDAT
; _this$ = ecx

; 470  : {

  00000	56		 push	 esi
  00001	8b f1		 mov	 esi, ecx
  00003	e8 00 00 00 00	 call	 ??0CCtrl@@QAE@XZ	; CCtrl::CCtrl

; 471  : 	m_dwType = OT_ITEM;
; 472  : 	m_pItemBase = NULL;

  00008	33 c0		 xor	 eax, eax
  0000a	c7 06 00 00 00
	00		 mov	 DWORD PTR [esi], OFFSET FLAT:??_7CItem@@6B@
  00010	c7 86 70 01 00
	00 04 00 00 00	 mov	 DWORD PTR [esi+368], 4
  0001a	89 86 34 02 00
	00		 mov	 DWORD PTR [esi+564], eax

; 473  : 	m_idHolder	= 0;

  00020	89 86 38 02 00
	00		 mov	 DWORD PTR [esi+568], eax

; 474  : 	m_idOwn = NULL_ID;

  00026	c7 86 3c 02 00
	00 ff ff ff ff	 mov	 DWORD PTR [esi+572], -1

; 475  : 	m_dwDropTime = 0;

  00030	89 86 40 02 00
	00		 mov	 DWORD PTR [esi+576], eax

; 476  : 	m_bDropMob = 0;

  00036	89 86 44 02 00
	00		 mov	 DWORD PTR [esi+580], eax

; 477  : 	m_dwDropTime = timeGetTime();

  0003c	ff 15 00 00 00
	00		 call	 DWORD PTR __imp__timeGetTime@0
  00042	89 86 40 02 00
	00		 mov	 DWORD PTR [esi+576], eax

; 478  : #ifdef __CLIENT
; 479  : 	m_fGroundY = 0;
; 480  : 	m_vDelta.x = m_vDelta.y = m_vDelta.z = 0;
; 481  : #endif //__CLIENT
; 482  : #ifdef __EVENT_MONSTER
; 483  : 	m_IdEventMonster = NULL_ID;

  00048	c7 86 48 02 00
	00 ff ff ff ff	 mov	 DWORD PTR [esi+584], -1

; 484  : #endif // __EVENT_MONSTER
; 485  : }

  00052	8b c6		 mov	 eax, esi
  00054	5e		 pop	 esi
  00055	c3		 ret	 0
??0CItem@@QAE@XZ ENDP					; CItem::CItem
_TEXT	ENDS
PUBLIC	?SetOwner@CItem@@QAEXK@Z			; CItem::SetOwner
; Function compile flags: /Ogty
;	COMDAT ?SetOwner@CItem@@QAEXK@Z
_TEXT	SEGMENT
_id$ = 8						; size = 4
?SetOwner@CItem@@QAEXK@Z PROC NEAR			; CItem::SetOwner, COMDAT
; _this$ = ecx

; 489  : 	m_idOwn = id;	//    pAttacker() .

  00000	8b 44 24 04	 mov	 eax, DWORD PTR _id$[esp-4]
  00004	56		 push	 esi
  00005	8b f1		 mov	 esi, ecx
  00007	89 86 3c 02 00
	00		 mov	 DWORD PTR [esi+572], eax

; 490  : 	m_dwDropTime = ::timeGetTime();	//    .

  0000d	ff 15 00 00 00
	00		 call	 DWORD PTR __imp__timeGetTime@0
  00013	89 86 40 02 00
	00		 mov	 DWORD PTR [esi+576], eax

; 491  : 	m_bDropMob = TRUE;		//      .

  00019	c7 86 44 02 00
	00 01 00 00 00	 mov	 DWORD PTR [esi+580], 1
  00023	5e		 pop	 esi

; 492  : }

  00024	c2 04 00	 ret	 4
?SetOwner@CItem@@QAEXK@Z ENDP				; CItem::SetOwner
_TEXT	ENDS
EXTRN	?Read@CObj@@UAEHPAVCFileIO@@@Z:NEAR		; CObj::Read
; Function compile flags: /Ogty
;	COMDAT ?Read@CItem@@UAEHPAVCFileIO@@@Z
_TEXT	SEGMENT
_pFile$ = 8						; size = 4
?Read@CItem@@UAEHPAVCFileIO@@@Z PROC NEAR		; CItem::Read, COMDAT
; _this$ = ecx

; 512  : 	CObj::Read( pFile );

  00000	8b 44 24 04	 mov	 eax, DWORD PTR _pFile$[esp-4]
  00004	50		 push	 eax
  00005	e8 00 00 00 00	 call	 ?Read@CObj@@UAEHPAVCFileIO@@@Z ; CObj::Read

; 513  : 	return TRUE;

  0000a	b8 01 00 00 00	 mov	 eax, 1

; 514  : }

  0000f	c2 04 00	 ret	 4
?Read@CItem@@UAEHPAVCFileIO@@@Z ENDP			; CItem::Read
_TEXT	ENDS
EXTRN	?g_tmCurrent@@3KA:DWORD				; g_tmCurrent
EXTRN	?Process@CCtrl@@UAEXXZ:NEAR			; CCtrl::Process
EXTRN	?Delete@CObj@@QAEXXZ:NEAR			; CObj::Delete
EXTRN	?GetState@CFlyffEvent@@QAEEH@Z:NEAR		; CFlyffEvent::GetState
EXTRN	?g_eLocal@@3VCFlyffEvent@@A:BYTE		; g_eLocal
; Function compile flags: /Ogty
;	COMDAT ?Process@CItem@@UAEXXZ
_TEXT	SEGMENT
?Process@CItem@@UAEXXZ PROC NEAR			; CItem::Process, COMDAT
; _this$ = ecx

; 526  : {

  00000	56		 push	 esi
  00001	8b f1		 mov	 esi, ecx

; 527  : 	CCtrl::Process();

  00003	e8 00 00 00 00	 call	 ?Process@CCtrl@@UAEXXZ	; CCtrl::Process

; 528  : #ifdef __CLIENT
; 529  : 	AddAngle( 0.5f );
; 530  : 	D3DXVECTOR3 vPos = GetPos();
; 531  : 
; 532  : 	//---      . 
; 533  : 	if( m_fGroundY )	//  0   .
; 534  : 	{
; 535  : 		if( vPos.y > m_fGroundY )		//  ?
; 536  : 		{
; 537  : 			m_vDelta.y -= 0.0075f;		//    .
; 538  : 		} 
; 539  : 		else
; 540  : 		{
; 541  : 			vPos.y = m_fGroundY;		//      .
; 542  : 			m_vDelta.x = m_vDelta.y = m_vDelta.z = 0;	//  .     .
; 543  : 			SetPos( vPos );				//   .
; 544  : 		}
; 545  : 
; 546  : 		//    .
; 547  : 		if( m_vDelta.x == 0 && m_vDelta.y == 0 && m_vDelta.z == 0 )
; 548  : 		{
; 549  : 			//     .
; 550  : 		} 
; 551  : 		else
; 552  : 		{
; 553  : 			m_vDelta.x = m_vDelta.z = 0;		//   .
; 554  : 			vPos += m_vDelta;			//   .
; 555  : 			SetPos( vPos );
; 556  : 		}
; 557  : 	}
; 558  : #endif // __CLIENT
; 559  : 
; 560  : #ifdef __WORLDSERVER
; 561  : 	if( g_eLocal.GetState( EVE_SCHOOL ) )

  00008	6a 04		 push	 4
  0000a	b9 00 00 00 00	 mov	 ecx, OFFSET FLAT:?g_eLocal@@3VCFlyffEvent@@A
  0000f	e8 00 00 00 00	 call	 ?GetState@CFlyffEvent@@QAEEH@Z ; CFlyffEvent::GetState
  00014	84 c0		 test	 al, al
  00016	75 1a		 jne	 SHORT $L234599

; 562  : 		return;
; 563  : 	if( (int)g_tmCurrent - (int)m_dwDropTime > MIN( 3 ) )

  00018	a1 00 00 00 00	 mov	 eax, DWORD PTR ?g_tmCurrent@@3KA ; g_tmCurrent
  0001d	2b 86 40 02 00
	00		 sub	 eax, DWORD PTR [esi+576]
  00023	3d 20 bf 02 00	 cmp	 eax, 180000		; 0002bf20H
  00028	7e 08		 jle	 SHORT $L234599

; 564  : 		Delete();

  0002a	8b ce		 mov	 ecx, esi
  0002c	5e		 pop	 esi
  0002d	e9 00 00 00 00	 jmp	 ?Delete@CObj@@QAEXXZ	; CObj::Delete
$L234599:
  00032	5e		 pop	 esi

; 565  : #endif	// __WORLDSERVER
; 566  : }

  00033	c3		 ret	 0
?Process@CItem@@UAEXXZ ENDP				; CItem::Process
; Function compile flags: /Ogty
_TEXT	ENDS
;	COMDAT ?Render@CItem@@UAEXPAUIDirect3DDevice9@@@Z
_TEXT	SEGMENT
_pd3dDevice$ = 8					; size = 4
?Render@CItem@@UAEXPAUIDirect3DDevice9@@@Z PROC NEAR	; CItem::Render, COMDAT
; _this$ = ecx

; 570  : #ifndef __WORLDSERVER
; 571  : 	ItemProp *pItemProp = GetProp();
; 572  : 	if( pItemProp && pItemProp->nReflect > 0 )
; 573  : 	{
; 574  : 		// !!! : m_pModel CModelObject  .    .
; 575  : 		((CModelObject*)m_pModel)->SetEffect( 0, XE_REFLECT );	
; 576  : 	}
; 577  : 
; 578  : 	CObj::Render( pd3dDevice );
; 579  : 	if( xRandom( 50 ) == 1 )
; 580  : 		CreateSfx( pd3dDevice, XI_GEN_ITEM_SHINE01, GetPos() );
; 581  : #endif
; 582  : }

  00000	c2 04 00	 ret	 4
?Render@CItem@@UAEXPAUIDirect3DDevice9@@@Z ENDP		; CItem::Render
; Function compile flags: /Ogty
_TEXT	ENDS
;	COMDAT ?RenderName@CItem@@UAEXPAUIDirect3DDevice9@@PAVCD3DFont@@K@Z
_TEXT	SEGMENT
_pd3dDevice$ = 8					; size = 4
_pFont$ = 12						; size = 4
_dwColor$ = 16						; size = 4
?RenderName@CItem@@UAEXPAUIDirect3DDevice9@@PAVCD3DFont@@K@Z PROC NEAR ; CItem::RenderName, COMDAT
; _this$ = ecx

; 586  : #ifndef __WORLDSERVER
; 587  : 	//      .
; 588  : 	D3DXVECTOR3 vOut, vPos = GetPos(), vPosHeight;
; 589  :     D3DVIEWPORT9 vp;
; 590  : 	const BOUND_BOX* pBB = m_pModel->GetBBVector();
; 591  :     pd3dDevice->GetViewport( &vp );
; 592  : 	D3DXMATRIX matTrans;
; 593  : 	D3DXMATRIX matWorld;
; 594  : 	D3DXMatrixIdentity(&matWorld);
; 595  : 	D3DXMatrixTranslation( &matTrans, vPos.x, vPos.y, vPos.z );
; 596  : 	D3DXMatrixMultiply( &matWorld, &matWorld, &m_matScale );
; 597  : 	D3DXMatrixMultiply( &matWorld, &matWorld, &m_matRotation );
; 598  : 	D3DXMatrixMultiply( &matWorld, &matWorld, &matTrans );
; 599  : 	
; 600  : 	vPosHeight = pBB->m_vPos[0];
; 601  : 	vPosHeight.x = 0;
; 602  : 	vPosHeight.z = 0;
; 603  : 	
; 604  : 	D3DXVec3Project( &vOut, &vPosHeight, &vp, &GetWorld()->m_matProj,
; 605  : 		&GetWorld()->m_pCamera->m_matView, &matWorld);
; 606  : 	vOut.x -= pFont->GetTextExtent( m_pItemBase->GetProp()->szName ).cx / 2;
; 607  : 	pFont->DrawText( vOut.x + 1, vOut.y + 1, 0xffffffff, m_pItemBase->GetProp()->szName	);//ADEILSON 0xff000000
; 608  : 	pFont->DrawText( vOut.x, vOut.y, dwColor, m_pItemBase->GetProp()->szName );
; 609  : 	return;
; 610  : #endif	// __WORLDSERVER
; 611  : }

  00000	c2 0c 00	 ret	 12			; 0000000cH
?RenderName@CItem@@UAEXPAUIDirect3DDevice9@@PAVCD3DFont@@K@Z ENDP ; CItem::RenderName
_TEXT	ENDS
PUBLIC	?SetSerialNumber@CItemBase@@QAEXXZ		; CItemBase::SetSerialNumber
EXTRN	?Get@CSerialNumber@@QAEKXZ:NEAR			; CSerialNumber::Get
EXTRN	?GetInstance@CSerialNumber@@SAPAV1@XZ:NEAR	; CSerialNumber::GetInstance
; Function compile flags: /Ogty
;	COMDAT ?SetSerialNumber@CItemBase@@QAEXXZ
_TEXT	SEGMENT
?SetSerialNumber@CItemBase@@QAEXXZ PROC NEAR		; CItemBase::SetSerialNumber, COMDAT
; _this$ = ecx

; 614  : {

  00000	56		 push	 esi
  00001	8b f1		 mov	 esi, ecx

; 615  : 	m_liSerialNumber	= CSerialNumber::GetInstance()->Get();

  00003	e8 00 00 00 00	 call	 ?GetInstance@CSerialNumber@@SAPAV1@XZ ; CSerialNumber::GetInstance
  00008	8b c8		 mov	 ecx, eax
  0000a	e8 00 00 00 00	 call	 ?Get@CSerialNumber@@QAEKXZ ; CSerialNumber::Get
  0000f	89 46 38	 mov	 DWORD PTR [esi+56], eax
  00012	5e		 pop	 esi

; 616  : }

  00013	c3		 ret	 0
?SetSerialNumber@CItemBase@@QAEXXZ ENDP			; CItemBase::SetSerialNumber
_TEXT	ENDS
PUBLIC	?GetLevelDown@CItemElem@@QAEHXZ			; CItemElem::GetLevelDown
; Function compile flags: /Ogty
;	COMDAT ?GetLevelDown@CItemElem@@QAEHXZ
_TEXT	SEGMENT
tv130 = -8						; size = 8
?GetLevelDown@CItemElem@@QAEHXZ PROC NEAR		; CItemElem::GetLevelDown, COMDAT
; _this$ = ecx

; 656  : {

  00000	83 ec 08	 sub	 esp, 8

; 657  : 	if( m_iRandomOptItemId & 0x8000000000000000 )

  00003	8b 81 98 00 00
	00		 mov	 eax, DWORD PTR [ecx+152]
  00009	89 04 24	 mov	 DWORD PTR tv130[esp+8], eax
  0000c	8b 81 9c 00 00
	00		 mov	 eax, DWORD PTR [ecx+156]
  00012	8b d0		 mov	 edx, eax
  00014	81 e2 00 00 00
	80		 and	 edx, -2147483648	; 80000000H
  0001a	33 c9		 xor	 ecx, ecx
  0001c	0b ca		 or	 ecx, edx
  0001e	74 09		 je	 SHORT $L234638

; 658  : 		return -10;

  00020	b8 f6 ff ff ff	 mov	 eax, -10		; fffffff6H

; 662  : }

  00025	83 c4 08	 add	 esp, 8
  00028	c3		 ret	 0
$L234638:

; 659  : 	else if( m_iRandomOptItemId & 0x4000000000000000 )

  00029	25 00 00 00 40	 and	 eax, 1073741824		; 40000000H
  0002e	33 c9		 xor	 ecx, ecx
  00030	0b c8		 or	 ecx, eax
  00032	74 09		 je	 SHORT $L234640

; 660  : 		return -5;

  00034	b8 fb ff ff ff	 mov	 eax, -5			; fffffffbH

; 662  : }

  00039	83 c4 08	 add	 esp, 8
  0003c	c3		 ret	 0
$L234640:

; 661  : 	return 0;

  0003d	33 c0		 xor	 eax, eax

; 662  : }

  0003f	83 c4 08	 add	 esp, 8
  00042	c3		 ret	 0
?GetLevelDown@CItemElem@@QAEHXZ ENDP			; CItemElem::GetLevelDown
_TEXT	ENDS
PUBLIC	?SetLevelDown@CItemElem@@QAEXH@Z		; CItemElem::SetLevelDown
; Function compile flags: /Ogty
;	COMDAT ?SetLevelDown@CItemElem@@QAEXH@Z
_TEXT	SEGMENT
_i$ = 8							; size = 4
?SetLevelDown@CItemElem@@QAEXH@Z PROC NEAR		; CItemElem::SetLevelDown, COMDAT
; _this$ = ecx

; 666  : 	//	0x8000000000000000
; 667  : 	//	0x4000000000000000
; 668  : 	m_iRandomOptItemId	&= ~0xC000000000000000;

  00000	8b 81 98 00 00
	00		 mov	 eax, DWORD PTR [ecx+152]
  00006	89 81 98 00 00
	00		 mov	 DWORD PTR [ecx+152], eax
  0000c	81 a1 9c 00 00
	00 ff ff ff 3f	 and	 DWORD PTR [ecx+156], 1073741823 ; 3fffffffH

; 669  : 	if( i == e5LevelDown )

  00016	8b 44 24 04	 mov	 eax, DWORD PTR _i$[esp-4]
  0001a	83 f8 01	 cmp	 eax, 1
  0001d	75 20		 jne	 SHORT $L234645

; 670  : 		m_iRandomOptItemId	|= 0x4000000000000000;

  0001f	8b 81 9c 00 00
	00		 mov	 eax, DWORD PTR [ecx+156]
  00025	8b 91 98 00 00
	00		 mov	 edx, DWORD PTR [ecx+152]
  0002b	0d 00 00 00 40	 or	 eax, 1073741824		; 40000000H
  00030	89 91 98 00 00
	00		 mov	 DWORD PTR [ecx+152], edx

; 672  : 		m_iRandomOptItemId	|= 0x8000000000000000;

  00036	89 81 9c 00 00
	00		 mov	 DWORD PTR [ecx+156], eax

; 673  : }

  0003c	c2 04 00	 ret	 4
$L234645:

; 671  : 	else if( i == e10LevelDown )

  0003f	83 f8 02	 cmp	 eax, 2
  00042	75 16		 jne	 SHORT $L234647

; 672  : 		m_iRandomOptItemId	|= 0x8000000000000000;

  00044	8b 81 98 00 00
	00		 mov	 eax, DWORD PTR [ecx+152]
  0004a	89 81 98 00 00
	00		 mov	 DWORD PTR [ecx+152], eax
  00050	81 89 9c 00 00
	00 00 00 00 80	 or	 DWORD PTR [ecx+156], -2147483648 ; 80000000H
$L234647:

; 673  : }

  0005a	c2 04 00	 ret	 4
?SetLevelDown@CItemElem@@QAEXH@Z ENDP			; CItemElem::SetLevelDown
_TEXT	ENDS
PUBLIC	?InterlockedExchangePointer@@YGPAXPAPAXPAX@Z	; InterlockedExchangePointer
EXTRN	__imp__InterlockedExchange@8:NEAR
; Function compile flags: /Ogty
; File c:\program files\microsoft visual studio .net 2003\vc7\atlmfc\include\atlconv.h
;	COMDAT ?InterlockedExchangePointer@@YGPAXPAPAXPAX@Z
_TEXT	SEGMENT
_pp$ = 8						; size = 4
_pNew$ = 12						; size = 4
?InterlockedExchangePointer@@YGPAXPAPAXPAX@Z PROC NEAR	; InterlockedExchangePointer, COMDAT

; 92   : 	return( reinterpret_cast<void*>(static_cast<LONG_PTR>(::InterlockedExchange(reinterpret_cast<LONG*>(pp), static_cast<LONG>(reinterpret_cast<LONG_PTR>(pNew))))) );

  00000	ff 25 00 00 00
	00		 jmp	 DWORD PTR __imp__InterlockedExchange@8
?InterlockedExchangePointer@@YGPAXPAPAXPAX@Z ENDP	; InterlockedExchangePointer
_TEXT	ENDS
PUBLIC	?_AtlGetThreadACPFake@ATL@@YGIXZ		; ATL::_AtlGetThreadACPFake
EXTRN	__imp__GetThreadLocale@0:NEAR
EXTRN	___security_cookie:DWORD
EXTRN	@__security_check_cookie@4:NEAR
EXTRN	__imp__GetACP@0:NEAR
EXTRN	__imp__GetLocaleInfoA@16:NEAR
; Function compile flags: /Ogty
;	COMDAT ?_AtlGetThreadACPFake@ATL@@YGIXZ
_TEXT	SEGMENT
_szACP$ = -12						; size = 7
__$ArrayPad$ = -4					; size = 4
__$ReturnAddr$ = 4					; size = 4
?_AtlGetThreadACPFake@ATL@@YGIXZ PROC NEAR		; ATL::_AtlGetThreadACPFake, COMDAT

; 101  : {

  00000	83 ec 0c	 sub	 esp, 12			; 0000000cH
  00003	a1 00 00 00 00	 mov	 eax, DWORD PTR ___security_cookie
  00008	33 c4		 xor	 eax, esp
  0000a	56		 push	 esi
  0000b	89 44 24 0c	 mov	 DWORD PTR __$ArrayPad$[esp+16], eax

; 102  : 	UINT nACP = 0;

  0000f	33 f6		 xor	 esi, esi

; 103  : 
; 104  : 	LCID lcidThread = ::GetThreadLocale();

  00011	ff 15 00 00 00
	00		 call	 DWORD PTR __imp__GetThreadLocale@0

; 105  : 
; 106  : 	char szACP[7];
; 107  : 	// GetLocaleInfoA will fail for a Unicode-only LCID, but those are only supported on 
; 108  : 	// Windows 2000.  Since Windows 2000 supports CP_THREAD_ACP, this code path is never
; 109  : 	// executed on Windows 2000.
; 110  : 	if (::GetLocaleInfoA(lcidThread, LOCALE_IDEFAULTANSICODEPAGE, szACP, 7) != 0)

  00017	6a 07		 push	 7
  00019	8d 4c 24 08	 lea	 ecx, DWORD PTR _szACP$[esp+20]
  0001d	51		 push	 ecx
  0001e	68 04 10 00 00	 push	 4100			; 00001004H
  00023	50		 push	 eax
  00024	ff 15 00 00 00
	00		 call	 DWORD PTR __imp__GetLocaleInfoA@16
  0002a	85 c0		 test	 eax, eax
  0002c	74 27		 je	 SHORT $L236810

; 111  : 	{
; 112  : 		char* pch = szACP;
; 113  : 		while (*pch != '\0')

  0002e	8a 44 24 04	 mov	 al, BYTE PTR _szACP$[esp+16]
  00032	84 c0		 test	 al, al
  00034	8d 4c 24 04	 lea	 ecx, DWORD PTR _szACP$[esp+16]
  00038	74 1b		 je	 SHORT $L236810
  0003a	8d 9b 00 00 00
	00		 npad	 6
$L38556:

; 114  : 		{
; 115  : 			nACP *= 10;
; 116  : 			nACP += *pch++ - '0';

  00040	0f be c0	 movsx	 eax, al
  00043	8d 14 b6	 lea	 edx, DWORD PTR [esi+esi*4]
  00046	41		 inc	 ecx
  00047	8d 74 50 d0	 lea	 esi, DWORD PTR [eax+edx*2-48]
  0004b	8a 01		 mov	 al, BYTE PTR [ecx]
  0004d	84 c0		 test	 al, al
  0004f	75 ef		 jne	 SHORT $L38556

; 117  : 		}
; 118  : 	}
; 119  : 	// Use the Default ANSI Code Page if we were unable to get the thread ACP or if one does not exist.
; 120  : 	if (nACP == 0)

  00051	85 f6		 test	 esi, esi
  00053	75 16		 jne	 SHORT $L236811
$L236810:

; 121  : 		nACP = ::GetACP();

  00055	ff 15 00 00 00
	00		 call	 DWORD PTR __imp__GetACP@0
  0005b	5e		 pop	 esi

; 122  : 
; 123  : 	return nACP;
; 124  : }

  0005c	8b 4c 24 08	 mov	 ecx, DWORD PTR __$ArrayPad$[esp+12]
  00060	33 cc		 xor	 ecx, esp
  00062	e8 00 00 00 00	 call	 @__security_check_cookie@4
  00067	83 c4 0c	 add	 esp, 12			; 0000000cH
  0006a	c3		 ret	 0
$L236811:
  0006b	8b 4c 24 0c	 mov	 ecx, DWORD PTR __$ArrayPad$[esp+16]
  0006f	8b c6		 mov	 eax, esi
  00071	5e		 pop	 esi
  00072	33 cc		 xor	 ecx, esp
  00074	e8 00 00 00 00	 call	 @__security_check_cookie@4
  00079	83 c4 0c	 add	 esp, 12			; 0000000cH
  0007c	c3		 ret	 0
?_AtlGetThreadACPFake@ATL@@YGIXZ ENDP			; ATL::_AtlGetThreadACPFake
_TEXT	ENDS
PUBLIC	?_AtlGetThreadACPReal@ATL@@YGIXZ		; ATL::_AtlGetThreadACPReal
; Function compile flags: /Ogty
;	COMDAT ?_AtlGetThreadACPReal@ATL@@YGIXZ
_TEXT	SEGMENT
?_AtlGetThreadACPReal@ATL@@YGIXZ PROC NEAR		; ATL::_AtlGetThreadACPReal, COMDAT

; 128  : 	return( CP_THREAD_ACP );

  00000	b8 03 00 00 00	 mov	 eax, 3

; 129  : }

  00005	c3		 ret	 0
?_AtlGetThreadACPReal@ATL@@YGIXZ ENDP			; ATL::_AtlGetThreadACPReal
_TEXT	ENDS
EXTRN	__imp__GetVersionExA@4:NEAR
; Function compile flags: /Ogty
;	COMDAT ?_AtlGetThreadACPThunk@ATL@@YGIXZ
_TEXT	SEGMENT
_ver$ = -152						; size = 148
__$ArrayPad$ = -4					; size = 4
__$ReturnAddr$ = 4					; size = 4
?_AtlGetThreadACPThunk@ATL@@YGIXZ PROC NEAR		; ATL::_AtlGetThreadACPThunk, COMDAT

; 134  : {

  00000	81 ec 98 00 00
	00		 sub	 esp, 152		; 00000098H
  00006	a1 00 00 00 00	 mov	 eax, DWORD PTR ___security_cookie
  0000b	33 c4		 xor	 eax, esp
  0000d	89 84 24 94 00
	00 00		 mov	 DWORD PTR __$ArrayPad$[esp+152], eax

; 135  : 	OSVERSIONINFO ver;
; 136  : 	ATLGETTHREADACP pfnGetThreadACP;
; 137  : 
; 138  : 	ver.dwOSVersionInfoSize = sizeof( ver );
; 139  : 	::GetVersionEx( &ver );

  00014	8d 04 24	 lea	 eax, DWORD PTR _ver$[esp+152]
  00017	50		 push	 eax
  00018	c7 44 24 04 94
	00 00 00	 mov	 DWORD PTR _ver$[esp+156], 148 ; 00000094H
  00020	ff 15 00 00 00
	00		 call	 DWORD PTR __imp__GetVersionExA@4

; 140  : 	if( (ver.dwPlatformId == VER_PLATFORM_WIN32_NT) && (ver.dwMajorVersion >= 5) )

  00026	83 7c 24 10 02	 cmp	 DWORD PTR _ver$[esp+168], 2
  0002b	75 0c		 jne	 SHORT $L38566
  0002d	83 7c 24 04 05	 cmp	 DWORD PTR _ver$[esp+156], 5

; 141  : 	{
; 142  : 		// On Win2K, CP_THREAD_ACP is supported
; 143  : 		pfnGetThreadACP = _AtlGetThreadACPReal;

  00032	b8 00 00 00 00	 mov	 eax, OFFSET FLAT:?_AtlGetThreadACPReal@ATL@@YGIXZ ; ATL::_AtlGetThreadACPReal
  00037	73 05		 jae	 SHORT $L38567
$L38566:

; 144  : 	}
; 145  : 	else
; 146  : 	{
; 147  : 		pfnGetThreadACP = _AtlGetThreadACPFake;

  00039	b8 00 00 00 00	 mov	 eax, OFFSET FLAT:?_AtlGetThreadACPFake@ATL@@YGIXZ ; ATL::_AtlGetThreadACPFake
$L38567:

; 148  : 	}
; 149  : 	InterlockedExchangePointer( reinterpret_cast< void** >(&g_pfnGetThreadACP), pfnGetThreadACP );

  0003e	50		 push	 eax
  0003f	68 00 00 00 00	 push	 OFFSET FLAT:?g_pfnGetThreadACP@ATL@@3P6GIXZA ; ATL::g_pfnGetThreadACP
  00044	ff 15 00 00 00
	00		 call	 DWORD PTR __imp__InterlockedExchange@8

; 150  : 
; 151  : 	return( g_pfnGetThreadACP() );

  0004a	ff 15 00 00 00
	00		 call	 DWORD PTR ?g_pfnGetThreadACP@ATL@@3P6GIXZA ; ATL::g_pfnGetThreadACP

; 152  : }

  00050	8b 8c 24 94 00
	00 00		 mov	 ecx, DWORD PTR __$ArrayPad$[esp+152]
  00057	33 cc		 xor	 ecx, esp
  00059	e8 00 00 00 00	 call	 @__security_check_cookie@4
  0005e	81 c4 98 00 00
	00		 add	 esp, 152		; 00000098H
  00064	c3		 ret	 0
?_AtlGetThreadACPThunk@ATL@@YGIXZ ENDP			; ATL::_AtlGetThreadACPThunk
_TEXT	ENDS
PUBLIC	?_AtlGetConversionACP@ATL@@YGIXZ		; ATL::_AtlGetConversionACP
; Function compile flags: /Ogty
;	COMDAT ?_AtlGetConversionACP@ATL@@YGIXZ
_TEXT	SEGMENT
?_AtlGetConversionACP@ATL@@YGIXZ PROC NEAR		; ATL::_AtlGetConversionACP, COMDAT

; 158  : 	return( g_pfnGetThreadACP() );

  00000	ff 25 00 00 00
	00		 jmp	 DWORD PTR ?g_pfnGetThreadACP@ATL@@3P6GIXZA ; ATL::g_pfnGetThreadACP
?_AtlGetConversionACP@ATL@@YGIXZ ENDP			; ATL::_AtlGetConversionACP
_TEXT	ENDS
PUBLIC	?IsNeedTarget@@YAHPAUItemProp@@@Z		; IsNeedTarget
; Function compile flags: /Ogty
; File c:\documents and settings\test\mes documents\source\virtuos_v17\build\program\_common\item.cpp
;	COMDAT ?IsNeedTarget@@YAHPAUItemProp@@@Z
_TEXT	SEGMENT
_pProp$ = 8						; size = 4
?IsNeedTarget@@YAHPAUItemProp@@@Z PROC NEAR		; IsNeedTarget, COMDAT

; 775  : 	//         ?
; 776  : #if __VER >= 12 // __PET_0519
; 777  : 	//       
; 778  : 	return( pProp->dwExeTarget == EXT_ITEM );

  00000	8b 4c 24 04	 mov	 ecx, DWORD PTR _pProp$[esp-4]
  00004	8b 91 f4 01 00
	00		 mov	 edx, DWORD PTR [ecx+500]
  0000a	33 c0		 xor	 eax, eax
  0000c	83 fa 15	 cmp	 edx, 21			; 00000015H
  0000f	0f 94 c0	 sete	 al

; 779  : #else	// __PET_0519
; 780  : 	switch( pProp->dwID )
; 781  : 	{
; 782  : 		case II_SYS_SYS_SCR_AWAKE:
; 783  : 		case II_SYS_SYS_SCR_BLESSEDNESS:
; 784  : 		case II_SYS_SYS_SCR_BLESSEDNESS02:
; 785  : 		case II_SYS_SYS_SCR_LEVELDOWN01:
; 786  : 		case II_SYS_SYS_SCR_LEVELDOWN02:
; 787  : 		case II_SYS_SYS_SCR_AWAKECANCEL:
; 788  : 		case II_SYS_SYS_SCR_AWAKECANCEL02:
; 789  : 		case II_SYS_SYS_QUE_PETRESURRECTION02_S:
; 790  : 		case II_SYS_SYS_QUE_PETRESURRECTION02_A:
; 791  : 		case II_SYS_SYS_QUE_PETRESURRECTION02_B:
; 792  : //		case II_SYS_SYS_SCR_PETAWAKE:
; 793  : //		case II_SYS_SYS_SCR_PETAWAKECANCEL:
; 794  : 			return TRUE;
; 795  : 		default:
; 796  : 			return FALSE;
; 797  : 	}
; 798  : #endif	// __PET_0519
; 799  : }

  00012	c3		 ret	 0
?IsNeedTarget@@YAHPAUItemProp@@@Z ENDP			; IsNeedTarget
_TEXT	ENDS
PUBLIC	?GetNewRandomOption@CItemElem@@QAE_JXZ		; CItemElem::GetNewRandomOption
; Function compile flags: /Ogty
;	COMDAT ?GetNewRandomOption@CItemElem@@QAE_JXZ
_TEXT	SEGMENT
?GetNewRandomOption@CItemElem@@QAE_JXZ PROC NEAR	; CItemElem::GetNewRandomOption, COMDAT
; _this$ = ecx

; 853  : 	return m_n64NewRandomOption;

  00000	8b 81 a0 00 00
	00		 mov	 eax, DWORD PTR [ecx+160]
  00006	8b 91 a4 00 00
	00		 mov	 edx, DWORD PTR [ecx+164]

; 854  : }

  0000c	c3		 ret	 0
?GetNewRandomOption@CItemElem@@QAE_JXZ ENDP		; CItemElem::GetNewRandomOption
_TEXT	ENDS
PUBLIC	?GetNewRandomOptionPtr@CItemElem@@QAEPA_JXZ	; CItemElem::GetNewRandomOptionPtr
; Function compile flags: /Ogty
;	COMDAT ?GetNewRandomOptionPtr@CItemElem@@QAEPA_JXZ
_TEXT	SEGMENT
?GetNewRandomOptionPtr@CItemElem@@QAEPA_JXZ PROC NEAR	; CItemElem::GetNewRandomOptionPtr, COMDAT
; _this$ = ecx

; 858  : 	return &m_n64NewRandomOption;

  00000	8d 81 a0 00 00
	00		 lea	 eax, DWORD PTR [ecx+160]

; 859  : }

  00006	c3		 ret	 0
?GetNewRandomOptionPtr@CItemElem@@QAEPA_JXZ ENDP	; CItemElem::GetNewRandomOptionPtr
_TEXT	ENDS
PUBLIC	?ResetNewRandomOption@CItemElem@@QAEXXZ		; CItemElem::ResetNewRandomOption
; Function compile flags: /Ogty
;	COMDAT ?ResetNewRandomOption@CItemElem@@QAEXXZ
_TEXT	SEGMENT
?ResetNewRandomOption@CItemElem@@QAEXXZ PROC NEAR	; CItemElem::ResetNewRandomOption, COMDAT
; _this$ = ecx

; 863  : 	m_n64NewRandomOption = 0;

  00000	33 c0		 xor	 eax, eax
  00002	89 81 a0 00 00
	00		 mov	 DWORD PTR [ecx+160], eax
  00008	89 81 a4 00 00
	00		 mov	 DWORD PTR [ecx+164], eax

; 864  : 
; 865  : 	return;
; 866  : }

  0000e	c3		 ret	 0
?ResetNewRandomOption@CItemElem@@QAEXXZ ENDP		; CItemElem::ResetNewRandomOption
_TEXT	ENDS
PUBLIC	?SelectNewRandomOption@CItemElem@@QAEXXZ	; CItemElem::SelectNewRandomOption
; Function compile flags: /Ogty
;	COMDAT ?SelectNewRandomOption@CItemElem@@QAEXXZ
_TEXT	SEGMENT
?SelectNewRandomOption@CItemElem@@QAEXXZ PROC NEAR	; CItemElem::SelectNewRandomOption, COMDAT
; _this$ = ecx

; 870  : 	m_iRandomOptItemId	= (( m_iRandomOptItemId & 0xC0000000000000FF ) | m_n64NewRandomOption );

  00000	8b 81 98 00 00
	00		 mov	 eax, DWORD PTR [ecx+152]
  00006	8b 91 9c 00 00
	00		 mov	 edx, DWORD PTR [ecx+156]
  0000c	56		 push	 esi
  0000d	8b b1 a0 00 00
	00		 mov	 esi, DWORD PTR [ecx+160]
  00013	25 ff 00 00 00	 and	 eax, 255		; 000000ffH
  00018	0b c6		 or	 eax, esi
  0001a	8b b1 a4 00 00
	00		 mov	 esi, DWORD PTR [ecx+164]
  00020	81 e2 00 00 00
	c0		 and	 edx, -1073741824	; c0000000H
  00026	0b d6		 or	 edx, esi
  00028	89 81 98 00 00
	00		 mov	 DWORD PTR [ecx+152], eax
  0002e	89 91 9c 00 00
	00		 mov	 DWORD PTR [ecx+156], edx
  00034	5e		 pop	 esi

; 871  : 
; 872  : 	return;
; 873  : }

  00035	c3		 ret	 0
?SelectNewRandomOption@CItemElem@@QAEXXZ ENDP		; CItemElem::SelectNewRandomOption
_TEXT	ENDS
PUBLIC	??_C@_0DD@LBMHJLIP@bySelectFlag?5is?5invalid?5value?4?5b@ ; `string'
PUBLIC	?SelectRandomOption@CItemElem@@QAE_NE@Z		; CItemElem::SelectRandomOption
EXTRN	?WriteLog@@YAXPBDZZ:NEAR			; WriteLog
;	COMDAT ??_C@_0DD@LBMHJLIP@bySelectFlag?5is?5invalid?5value?4?5b@
CONST	SEGMENT
??_C@_0DD@LBMHJLIP@bySelectFlag?5is?5invalid?5value?4?5b@ DB 'bySelectFla'
	DB	'g is invalid value. bySelectFlag : [%d]', 00H ; `string'
; Function compile flags: /Ogty
CONST	ENDS
;	COMDAT ?SelectRandomOption@CItemElem@@QAE_NE@Z
_TEXT	SEGMENT
_bySelectFlag$ = 8					; size = 1
?SelectRandomOption@CItemElem@@QAE_NE@Z PROC NEAR	; CItemElem::SelectRandomOption, COMDAT
; _this$ = ecx

; 877  : 	bool	bRetValue	= true;
; 878  : 
; 879  : 	if( bySelectFlag == _AWAKE_OLD_VALUE )

  00000	8a 54 24 04	 mov	 dl, BYTE PTR _bySelectFlag$[esp-4]
  00004	b0 01		 mov	 al, 1
  00006	3a d0		 cmp	 dl, al
  00008	75 11		 jne	 SHORT $L234750

; 880  : 	{
; 881  : 		ResetNewRandomOption();

  0000a	33 d2		 xor	 edx, edx
  0000c	89 91 a0 00 00
	00		 mov	 DWORD PTR [ecx+160], edx
  00012	89 91 a4 00 00
	00		 mov	 DWORD PTR [ecx+164], edx

; 893  : 	}
; 894  : 
; 895  : 	return	bRetValue;
; 896  : }

  00018	c2 04 00	 ret	 4
$L234750:

; 882  : 	}
; 883  : 	else if( bySelectFlag == _AWAKE_NEW_VALUE )

  0001b	80 fa 02	 cmp	 dl, 2
  0001e	75 49		 jne	 SHORT $L234752

; 884  : 	{
; 885  : 		SelectNewRandomOption();

  00020	8b 91 98 00 00
	00		 mov	 edx, DWORD PTR [ecx+152]
  00026	56		 push	 esi
  00027	8b b1 9c 00 00
	00		 mov	 esi, DWORD PTR [ecx+156]
  0002d	57		 push	 edi
  0002e	8b b9 a0 00 00
	00		 mov	 edi, DWORD PTR [ecx+160]
  00034	81 e2 ff 00 00
	00		 and	 edx, 255		; 000000ffH
  0003a	0b d7		 or	 edx, edi
  0003c	8b b9 a4 00 00
	00		 mov	 edi, DWORD PTR [ecx+164]
  00042	81 e6 00 00 00
	c0		 and	 esi, -1073741824	; c0000000H
  00048	0b f7		 or	 esi, edi
  0004a	89 91 98 00 00
	00		 mov	 DWORD PTR [ecx+152], edx

; 886  : 		ResetNewRandomOption();

  00050	33 d2		 xor	 edx, edx
  00052	5f		 pop	 edi
  00053	89 b1 9c 00 00
	00		 mov	 DWORD PTR [ecx+156], esi
  00059	89 91 a0 00 00
	00		 mov	 DWORD PTR [ecx+160], edx
  0005f	89 91 a4 00 00
	00		 mov	 DWORD PTR [ecx+164], edx
  00065	5e		 pop	 esi

; 893  : 	}
; 894  : 
; 895  : 	return	bRetValue;
; 896  : }

  00066	c2 04 00	 ret	 4
$L234752:

; 887  : 	}
; 888  : 	else
; 889  : 	{
; 890  : 		WriteLog( "bySelectFlag is invalid value. bySelectFlag : [%d]", (int)( bySelectFlag ) );

  00069	0f b6 c2	 movzx	 eax, dl
  0006c	50		 push	 eax
  0006d	68 00 00 00 00	 push	 OFFSET FLAT:??_C@_0DD@LBMHJLIP@bySelectFlag?5is?5invalid?5value?4?5b@
  00072	e8 00 00 00 00	 call	 ?WriteLog@@YAXPBDZZ	; WriteLog
  00077	83 c4 08	 add	 esp, 8

; 891  : 
; 892  : 		bRetValue	= false;

  0007a	32 c0		 xor	 al, al

; 893  : 	}
; 894  : 
; 895  : 	return	bRetValue;
; 896  : }

  0007c	c2 04 00	 ret	 4
?SelectRandomOption@CItemElem@@QAE_NE@Z ENDP		; CItemElem::SelectRandomOption
_TEXT	ENDS
PUBLIC	?AtlThrow@ATL@@YGXJ@Z				; ATL::AtlThrow
EXTRN	?AfxThrowMemoryException@@YGXXZ:NEAR		; AfxThrowMemoryException
EXTRN	?AfxThrowOleException@@YGXJ@Z:NEAR		; AfxThrowOleException
; Function compile flags: /Ogty
; File c:\program files\microsoft visual studio .net 2003\vc7\atlmfc\include\atlexcept.h
;	COMDAT ?AtlThrow@ATL@@YGXJ@Z
_TEXT	SEGMENT
_hr$ = 8						; size = 4
?AtlThrow@ATL@@YGXJ@Z PROC NEAR				; ATL::AtlThrow, COMDAT

; 62   : 	ATLTRACE(atlTraceException, 0, _T("AtlThrow: hr = 0x%x\n"), hr );
; 63   : #ifdef _AFX
; 64   : 	if( hr == E_OUTOFMEMORY )

  00000	8b 44 24 04	 mov	 eax, DWORD PTR _hr$[esp-4]
  00004	3d 0e 00 07 80	 cmp	 eax, -2147024882	; 8007000eH
  00009	75 05		 jne	 SHORT $L39168

; 65   : 	{
; 66   : 		AfxThrowMemoryException();

  0000b	e8 00 00 00 00	 call	 ?AfxThrowMemoryException@@YGXXZ ; AfxThrowMemoryException
$L236861:
$L39168:

; 67   : 	}
; 68   : 	else
; 69   : 	{
; 70   : 		AfxThrowOleException( hr );

  00010	50		 push	 eax
  00011	e8 00 00 00 00	 call	 ?AfxThrowOleException@@YGXJ@Z ; AfxThrowOleException
$L236862:
$L236860:
  00016	cc		 int	 3
?AtlThrow@ATL@@YGXJ@Z ENDP				; ATL::AtlThrow
_TEXT	ENDS
PUBLIC	?_AtlGetStringResourceImage@ATL@@YAPBUATLSTRINGRESOURCEIMAGE@1@PAUHINSTANCE__@@PAUHRSRC__@@I@Z ; ATL::_AtlGetStringResourceImage
EXTRN	__imp__LoadResource@8:NEAR
EXTRN	__imp__SizeofResource@8:NEAR
EXTRN	__imp__LockResource@4:NEAR
; Function compile flags: /Ogty
; File c:\program files\microsoft visual studio .net 2003\vc7\atlmfc\include\atlcore.h
;	COMDAT ?_AtlGetStringResourceImage@ATL@@YAPBUATLSTRINGRESOURCEIMAGE@1@PAUHINSTANCE__@@PAUHRSRC__@@I@Z
_TEXT	SEGMENT
_hInstance$ = 8						; size = 4
_hResource$ = 12					; size = 4
_id$ = 16						; size = 4
?_AtlGetStringResourceImage@ATL@@YAPBUATLSTRINGRESOURCEIMAGE@1@PAUHINSTANCE__@@PAUHRSRC__@@I@Z PROC NEAR ; ATL::_AtlGetStringResourceImage, COMDAT

; 239  : {

  00000	53		 push	 ebx

; 240  : 	const ATLSTRINGRESOURCEIMAGE* pImage;
; 241  : 	const ATLSTRINGRESOURCEIMAGE* pImageEnd;
; 242  : 	ULONG nResourceSize;
; 243  : 	HGLOBAL hGlobal;
; 244  : 	UINT iIndex;
; 245  : 
; 246  : 	hGlobal = ::LoadResource( hInstance, hResource );

  00001	8b 5c 24 08	 mov	 ebx, DWORD PTR _hInstance$[esp]
  00005	57		 push	 edi
  00006	8b 7c 24 10	 mov	 edi, DWORD PTR _hResource$[esp+4]
  0000a	57		 push	 edi
  0000b	53		 push	 ebx
  0000c	ff 15 00 00 00
	00		 call	 DWORD PTR __imp__LoadResource@8

; 247  : 	if( hGlobal == NULL )

  00012	85 c0		 test	 eax, eax
  00014	75 03		 jne	 SHORT $L39522
  00016	5f		 pop	 edi
  00017	5b		 pop	 ebx

; 272  : 	{
; 273  : 		return( NULL );
; 274  : 	}
; 275  : 
; 276  : 	return( pImage );
; 277  : }

  00018	c3		 ret	 0
$L39522:
  00019	56		 push	 esi

; 248  : 	{
; 249  : 		return( NULL );
; 250  : 	}
; 251  : 
; 252  : 	pImage = (const ATLSTRINGRESOURCEIMAGE*)::LockResource( hGlobal );

  0001a	50		 push	 eax
  0001b	ff 15 00 00 00
	00		 call	 DWORD PTR __imp__LockResource@4
  00021	8b f0		 mov	 esi, eax

; 253  : 	if( pImage == NULL )

  00023	85 f6		 test	 esi, esi
  00025	75 06		 jne	 SHORT $L39524
$L236868:
  00027	5e		 pop	 esi
  00028	5f		 pop	 edi

; 254  : 	{
; 255  : 		return( NULL );

  00029	33 c0		 xor	 eax, eax
  0002b	5b		 pop	 ebx

; 272  : 	{
; 273  : 		return( NULL );
; 274  : 	}
; 275  : 
; 276  : 	return( pImage );
; 277  : }

  0002c	c3		 ret	 0
$L39524:

; 256  : 	}
; 257  : 
; 258  : 	nResourceSize = ::SizeofResource( hInstance, hResource );

  0002d	57		 push	 edi
  0002e	53		 push	 ebx
  0002f	ff 15 00 00 00
	00		 call	 DWORD PTR __imp__SizeofResource@8

; 259  : 	pImageEnd = (const ATLSTRINGRESOURCEIMAGE*)(LPBYTE( pImage )+nResourceSize);
; 260  : 	iIndex = id&0x000f;

  00035	8b 4c 24 18	 mov	 ecx, DWORD PTR _id$[esp+8]
  00039	03 c6		 add	 eax, esi
  0003b	83 e1 0f	 and	 ecx, 15			; 0000000fH

; 261  : 
; 262  : 	while( (iIndex > 0) && (pImage < pImageEnd) )

  0003e	76 0e		 jbe	 SHORT $L39528
$L39527:
  00040	3b f0		 cmp	 esi, eax
  00042	73 e3		 jae	 SHORT $L236868

; 263  : 	{
; 264  : 		pImage = (const ATLSTRINGRESOURCEIMAGE*)(LPBYTE( pImage )+(sizeof( ATLSTRINGRESOURCEIMAGE )+(pImage->nLength*sizeof( WCHAR ))));
; 265  : 		iIndex--;

  00044	49		 dec	 ecx
  00045	0f b7 16	 movzx	 edx, WORD PTR [esi]
  00048	8d 74 56 02	 lea	 esi, DWORD PTR [esi+edx*2+2]
  0004c	75 f2		 jne	 SHORT $L39527
$L39528:

; 266  : 	}
; 267  : 	if( pImage >= pImageEnd )

  0004e	3b f0		 cmp	 esi, eax

; 268  : 	{
; 269  : 		return( NULL );

  00050	73 d5		 jae	 SHORT $L236868

; 270  : 	}
; 271  : 	if( pImage->nLength == 0 )

  00052	66 8b 06	 mov	 ax, WORD PTR [esi]
  00055	66 f7 d8	 neg	 ax
  00058	1b c0		 sbb	 eax, eax
  0005a	23 c6		 and	 eax, esi
  0005c	5e		 pop	 esi
  0005d	5f		 pop	 edi
  0005e	5b		 pop	 ebx

; 272  : 	{
; 273  : 		return( NULL );
; 274  : 	}
; 275  : 
; 276  : 	return( pImage );
; 277  : }

  0005f	c3		 ret	 0
?_AtlGetStringResourceImage@ATL@@YAPBUATLSTRINGRESOURCEIMAGE@1@PAUHINSTANCE__@@PAUHRSRC__@@I@Z ENDP ; ATL::_AtlGetStringResourceImage
_TEXT	ENDS
PUBLIC	?AtlGetStringResourceImage@ATL@@YAPBUATLSTRINGRESOURCEIMAGE@1@PAUHINSTANCE__@@I@Z ; ATL::AtlGetStringResourceImage
EXTRN	__imp__FindResourceA@12:NEAR
; Function compile flags: /Ogty
;	COMDAT ?AtlGetStringResourceImage@ATL@@YAPBUATLSTRINGRESOURCEIMAGE@1@PAUHINSTANCE__@@I@Z
_TEXT	SEGMENT
_hInstance$ = 8						; size = 4
_id$ = 12						; size = 4
?AtlGetStringResourceImage@ATL@@YAPBUATLSTRINGRESOURCEIMAGE@1@PAUHINSTANCE__@@I@Z PROC NEAR ; ATL::AtlGetStringResourceImage, COMDAT

; 280  : {

  00000	56		 push	 esi

; 281  : 	HRSRC hResource;
; 282  : 
; 283  : 	hResource = ::FindResource( hInstance, MAKEINTRESOURCE( ((id>>4)+1) ), RT_STRING );

  00001	8b 74 24 0c	 mov	 esi, DWORD PTR _id$[esp]
  00005	8b c6		 mov	 eax, esi
  00007	c1 e8 04	 shr	 eax, 4
  0000a	57		 push	 edi
  0000b	8b 7c 24 0c	 mov	 edi, DWORD PTR _hInstance$[esp+4]
  0000f	40		 inc	 eax
  00010	0f b7 c8	 movzx	 ecx, ax
  00013	6a 06		 push	 6
  00015	51		 push	 ecx
  00016	57		 push	 edi
  00017	ff 15 00 00 00
	00		 call	 DWORD PTR __imp__FindResourceA@12

; 284  : 	if( hResource == NULL )

  0001d	85 c0		 test	 eax, eax
  0001f	75 03		 jne	 SHORT $L39545
  00021	5f		 pop	 edi
  00022	5e		 pop	 esi

; 290  : }

  00023	c3		 ret	 0
$L39545:

; 285  : 	{
; 286  : 		return( NULL );
; 287  : 	}
; 288  : 
; 289  : 	return _AtlGetStringResourceImage( hInstance, hResource, id );

  00024	56		 push	 esi
  00025	50		 push	 eax
  00026	57		 push	 edi
  00027	e8 00 00 00 00	 call	 ?_AtlGetStringResourceImage@ATL@@YAPBUATLSTRINGRESOURCEIMAGE@1@PAUHINSTANCE__@@PAUHRSRC__@@I@Z ; ATL::_AtlGetStringResourceImage
  0002c	83 c4 0c	 add	 esp, 12			; 0000000cH
  0002f	5f		 pop	 edi
  00030	5e		 pop	 esi

; 290  : }

  00031	c3		 ret	 0
?AtlGetStringResourceImage@ATL@@YAPBUATLSTRINGRESOURCEIMAGE@1@PAUHINSTANCE__@@I@Z ENDP ; ATL::AtlGetStringResourceImage
_TEXT	ENDS
PUBLIC	?data@CStringData@ATL@@QAEPAXXZ			; ATL::CStringData::data
; Function compile flags: /Ogty
; File c:\program files\microsoft visual studio .net 2003\vc7\atlmfc\include\atlsimpstr.h
;	COMDAT ?data@CStringData@ATL@@QAEPAXXZ
_TEXT	SEGMENT
?data@CStringData@ATL@@QAEPAXXZ PROC NEAR		; ATL::CStringData::data, COMDAT
; _this$ = ecx

; 66   : 		return (this+1);

  00000	8d 41 10	 lea	 eax, DWORD PTR [ecx+16]

; 67   : 	}

  00003	c3		 ret	 0
?data@CStringData@ATL@@QAEPAXXZ ENDP			; ATL::CStringData::data
_TEXT	ENDS
PUBLIC	?AddRef@CStringData@ATL@@QAEXXZ			; ATL::CStringData::AddRef
; Function compile flags: /Ogty
;	COMDAT ?AddRef@CStringData@ATL@@QAEXXZ
_TEXT	SEGMENT
?AddRef@CStringData@ATL@@QAEXXZ PROC NEAR		; ATL::CStringData::AddRef, COMDAT
; _this$ = ecx

; 71   : 		ATLASSERT(nRefs > 0);
; 72   : 		_InterlockedIncrement(&nRefs);

  00000	83 c1 0c	 add	 ecx, 12			; 0000000cH
  00003	b8 01 00 00 00	 mov	 eax, 1
  00008	f0 0f c1 01	 lock	  xadd	 DWORD PTR [ecx], eax

; 73   : 	}

  0000c	c3		 ret	 0
?AddRef@CStringData@ATL@@QAEXXZ ENDP			; ATL::CStringData::AddRef
_TEXT	ENDS
PUBLIC	?IsLocked@CStringData@ATL@@QBE_NXZ		; ATL::CStringData::IsLocked
; Function compile flags: /Ogty
;	COMDAT ?IsLocked@CStringData@ATL@@QBE_NXZ
_TEXT	SEGMENT
?IsLocked@CStringData@ATL@@QBE_NXZ PROC NEAR		; ATL::CStringData::IsLocked, COMDAT
; _this$ = ecx

; 76   : 		return nRefs < 0;

  00000	8b 51 0c	 mov	 edx, DWORD PTR [ecx+12]
  00003	33 c0		 xor	 eax, eax
  00005	85 d2		 test	 edx, edx
  00007	0f 9c c0	 setl	 al

; 77   : 	}

  0000a	c3		 ret	 0
?IsLocked@CStringData@ATL@@QBE_NXZ ENDP			; ATL::CStringData::IsLocked
_TEXT	ENDS
PUBLIC	?IsShared@CStringData@ATL@@QBE_NXZ		; ATL::CStringData::IsShared
; Function compile flags: /Ogty
;	COMDAT ?IsShared@CStringData@ATL@@QBE_NXZ
_TEXT	SEGMENT
?IsShared@CStringData@ATL@@QBE_NXZ PROC NEAR		; ATL::CStringData::IsShared, COMDAT
; _this$ = ecx

; 80   : 		return( nRefs > 1 ); 

  00000	8b 51 0c	 mov	 edx, DWORD PTR [ecx+12]
  00003	33 c0		 xor	 eax, eax
  00005	83 fa 01	 cmp	 edx, 1
  00008	0f 9f c0	 setg	 al

; 81   : 	}

  0000b	c3		 ret	 0
?IsShared@CStringData@ATL@@QBE_NXZ ENDP			; ATL::CStringData::IsShared
_TEXT	ENDS
PUBLIC	?Release@CStringData@ATL@@QAEXXZ		; ATL::CStringData::Release
; Function compile flags: /Ogty
;	COMDAT ?Release@CStringData@ATL@@QAEXXZ
_TEXT	SEGMENT
?Release@CStringData@ATL@@QAEXXZ PROC NEAR		; ATL::CStringData::Release, COMDAT
; _this$ = ecx

; 93   : 		ATLASSERT( nRefs != 0 );
; 94   : 
; 95   : 		if( _InterlockedDecrement( &nRefs ) <= 0 )

  00000	8d 41 0c	 lea	 eax, DWORD PTR [ecx+12]
  00003	83 ca ff	 or	 edx, -1
  00006	f0 0f c1 10	 lock	  xadd	 DWORD PTR [eax], edx
  0000a	4a		 dec	 edx
  0000b	85 d2		 test	 edx, edx
  0000d	7f 0a		 jg	 SHORT $L39885

; 96   : 		{
; 97   : 			pStringMgr->Free( this );

  0000f	8b 01		 mov	 eax, DWORD PTR [ecx]
  00011	8b 10		 mov	 edx, DWORD PTR [eax]
  00013	51		 push	 ecx
  00014	8b c8		 mov	 ecx, eax
  00016	ff 52 04	 call	 DWORD PTR [edx+4]
$L39885:

; 98   : 		}
; 99   : 	}

  00019	c3		 ret	 0
?Release@CStringData@ATL@@QAEXXZ ENDP			; ATL::CStringData::Release
; Function compile flags: /Ogty
; File c:\documents and settings\test\mes documents\source\virtuos_v17\build\program\_common\obj.h
_TEXT	ENDS
;	COMDAT ?SetMotion@CObj@@UAEHKHK@Z
_TEXT	SEGMENT
_dwMotion$ = 8						; size = 4
_nLoop$ = 12						; size = 4
_dwOption$ = 16						; size = 4
?SetMotion@CObj@@UAEHKHK@Z PROC NEAR			; CObj::SetMotion, COMDAT
; _this$ = ecx

; 162  : 	virtual	BOOL	SetMotion(DWORD dwMotion, int nLoop = ANILOOP_LOOP, DWORD dwOption = 0 ) { return FALSE; }

  00000	33 c0		 xor	 eax, eax
  00002	c2 0c 00	 ret	 12			; 0000000cH
?SetMotion@CObj@@UAEHKHK@Z ENDP				; CObj::SetMotion
; Function compile flags: /Ogty
_TEXT	ENDS
;	COMDAT ?InitMotion@CObj@@UAEHK@Z
_TEXT	SEGMENT
_dwMotion$ = 8						; size = 4
?InitMotion@CObj@@UAEHK@Z PROC NEAR			; CObj::InitMotion, COMDAT
; _this$ = ecx

; 163  : 	virtual	BOOL	InitMotion(DWORD dwMotion) { return FALSE; }

  00000	33 c0		 xor	 eax, eax
  00002	c2 04 00	 ret	 4
?InitMotion@CObj@@UAEHK@Z ENDP				; CObj::InitMotion
_TEXT	ENDS
PUBLIC	??_C@_05CJBACGMB@hello?$AA@			; `string'
;	COMDAT ??_C@_05CJBACGMB@hello?$AA@
CONST	SEGMENT
??_C@_05CJBACGMB@hello?$AA@ DB 'hello', 00H		; `string'
; Function compile flags: /Ogty
CONST	ENDS
;	COMDAT ?GetName@CObj@@UAEPBDXZ
_TEXT	SEGMENT
?GetName@CObj@@UAEPBDXZ PROC NEAR			; CObj::GetName, COMDAT
; _this$ = ecx

; 166  : 	virtual	LPCTSTR GetName() { return _T( "hello" ); }

  00000	b8 00 00 00 00	 mov	 eax, OFFSET FLAT:??_C@_05CJBACGMB@hello?$AA@
  00005	c3		 ret	 0
?GetName@CObj@@UAEPBDXZ ENDP				; CObj::GetName
_TEXT	ENDS
EXTRN	?SetTypeIndex@CObj@@QAEHPAUIDirect3DDevice9@@KKH@Z:NEAR ; CObj::SetTypeIndex
; Function compile flags: /Ogty
;	COMDAT ?SetIndex@CObj@@UAEHPAUIDirect3DDevice9@@KH@Z
_TEXT	SEGMENT
_pd3dDevice$ = 8					; size = 4
_dwIndex$ = 12						; size = 4
_bInitProp$ = 16					; size = 4
?SetIndex@CObj@@UAEHPAUIDirect3DDevice9@@KH@Z PROC NEAR	; CObj::SetIndex, COMDAT
; _this$ = ecx

; 172  : 	virtual	BOOL	SetIndex( LPDIRECT3DDEVICE9 pd3dDevice, DWORD dwIndex, BOOL bInitProp = FALSE ) { return SetTypeIndex( pd3dDevice, m_dwType, dwIndex, bInitProp ); }

  00000	8b 44 24 0c	 mov	 eax, DWORD PTR _bInitProp$[esp-4]
  00004	8b 54 24 08	 mov	 edx, DWORD PTR _dwIndex$[esp-4]
  00008	50		 push	 eax
  00009	8b 81 70 01 00
	00		 mov	 eax, DWORD PTR [ecx+368]
  0000f	52		 push	 edx
  00010	8b 54 24 0c	 mov	 edx, DWORD PTR _pd3dDevice$[esp+4]
  00014	50		 push	 eax
  00015	52		 push	 edx
  00016	e8 00 00 00 00	 call	 ?SetTypeIndex@CObj@@QAEHPAUIDirect3DDevice9@@KKH@Z ; CObj::SetTypeIndex
  0001b	c2 0c 00	 ret	 12			; 0000000cH
?SetIndex@CObj@@UAEHPAUIDirect3DDevice9@@KH@Z ENDP	; CObj::SetIndex
_TEXT	ENDS
PUBLIC	?GetWorld@CObj@@QAEPAVCWorld@@XZ		; CObj::GetWorld
; Function compile flags: /Ogty
;	COMDAT ?GetWorld@CObj@@QAEPAVCWorld@@XZ
_TEXT	SEGMENT
?GetWorld@CObj@@QAEPAVCWorld@@XZ PROC NEAR		; CObj::GetWorld, COMDAT
; _this$ = ecx

; 221  : 	CWorld*			GetWorld()	{ return m_pWorld; }

  00000	8b 81 6c 01 00
	00		 mov	 eax, DWORD PTR [ecx+364]
  00006	c3		 ret	 0
?GetWorld@CObj@@QAEPAVCWorld@@XZ ENDP			; CObj::GetWorld
_TEXT	ENDS
PUBLIC	?GetLayer@CObj@@QAEHXZ				; CObj::GetLayer
; Function compile flags: /Ogty
;	COMDAT ?GetLayer@CObj@@QAEHXZ
_TEXT	SEGMENT
?GetLayer@CObj@@QAEHXZ PROC NEAR			; CObj::GetLayer, COMDAT
; _this$ = ecx

; 247  : 	int		GetLayer()	{	return m_nLayer;	}

  00000	8b 81 b8 01 00
	00		 mov	 eax, DWORD PTR [ecx+440]
  00006	c3		 ret	 0
?GetLayer@CObj@@QAEHXZ ENDP				; CObj::GetLayer
_TEXT	ENDS
PUBLIC	?IsBaruna@ItemProp@@QAEHXZ			; ItemProp::IsBaruna
; Function compile flags: /Ogty
; File c:\documents and settings\test\mes documents\source\virtuos_v17\build\program\_common\projectcmn.h
;	COMDAT ?IsBaruna@ItemProp@@QAEHXZ
_TEXT	SEGMENT
?IsBaruna@ItemProp@@QAEHXZ PROC NEAR			; ItemProp::IsBaruna, COMDAT
; _this$ = ecx

; 469  : 		return( dwReferStat1 >= BARUNA_D && dwReferStat1 <= BARUNA_S );

  00000	8b 81 00 02 00
	00		 mov	 eax, DWORD PTR [ecx+512]
  00006	83 f8 04	 cmp	 eax, 4
  00009	72 0b		 jb	 SHORT $L236909
  0000b	83 f8 08	 cmp	 eax, 8
  0000e	77 06		 ja	 SHORT $L236909
  00010	b8 01 00 00 00	 mov	 eax, 1

; 470  : 	}

  00015	c3		 ret	 0
$L236909:

; 469  : 		return( dwReferStat1 >= BARUNA_D && dwReferStat1 <= BARUNA_S );

  00016	33 c0		 xor	 eax, eax

; 470  : 	}

  00018	c3		 ret	 0
?IsBaruna@ItemProp@@QAEHXZ ENDP				; ItemProp::IsBaruna
_TEXT	ENDS
PUBLIC	?IsVisPet@ItemProp@@QAEHXZ			; ItemProp::IsVisPet
; Function compile flags: /Ogty
;	COMDAT ?IsVisPet@ItemProp@@QAEHXZ
_TEXT	SEGMENT
?IsVisPet@ItemProp@@QAEHXZ PROC NEAR			; ItemProp::IsVisPet, COMDAT
; _this$ = ecx

; 509  : 	BOOL	IsVisPet()	{ return (dwItemKind3 == IK3_PET) && (dwReferStat1 == PET_VIS); }

  00000	83 79 78 64	 cmp	 DWORD PTR [ecx+120], 100 ; 00000064H
  00004	75 0f		 jne	 SHORT $L236914
  00006	8b 91 00 02 00
	00		 mov	 edx, DWORD PTR [ecx+512]
  0000c	b8 01 00 00 00	 mov	 eax, 1
  00011	3b d0		 cmp	 edx, eax
  00013	74 02		 je	 SHORT $L236915
$L236914:
  00015	33 c0		 xor	 eax, eax
$L236915:
  00017	c3		 ret	 0
?IsVisPet@ItemProp@@QAEHXZ ENDP				; ItemProp::IsVisPet
; Function compile flags: /Ogty
; File c:\documents and settings\test\mes documents\source\virtuos_v17\build\program\_common\ctrl.h
_TEXT	ENDS
;	COMDAT ?SendDamage@CCtrl@@UAEHKKHH@Z
_TEXT	SEGMENT
_dwAtkFlag$ = 8						; size = 4
_idAttacker$ = 12					; size = 4
_nParam$ = 16						; size = 4
_bTarget$ = 20						; size = 4
?SendDamage@CCtrl@@UAEHKKHH@Z PROC NEAR			; CCtrl::SendDamage, COMDAT
; _this$ = ecx

; 48   : 	virtual int		SendDamage( DWORD dwAtkFlag, OBJID idAttacker, int nParam = 0, BOOL bTarget = TRUE ) { return 0; }

  00000	33 c0		 xor	 eax, eax
  00002	c2 10 00	 ret	 16			; 00000010H
?SendDamage@CCtrl@@UAEHKKHH@Z ENDP			; CCtrl::SendDamage
; Function compile flags: /Ogty
_TEXT	ENDS
;	COMDAT ?SendDamageForce@CCtrl@@UAEHKKHH@Z
_TEXT	SEGMENT
_dwAtkFlags$ = 8					; size = 4
_idSender$ = 12						; size = 4
_nParam$ = 16						; size = 4
_bTarget$ = 20						; size = 4
?SendDamageForce@CCtrl@@UAEHKKHH@Z PROC NEAR		; CCtrl::SendDamageForce, COMDAT
; _this$ = ecx

; 49   : 	virtual int		SendDamageForce( DWORD dwAtkFlags, OBJID idSender, int nParam = 0, BOOL bTarget = TRUE ) { return 0; }	// 

  00000	33 c0		 xor	 eax, eax
  00002	c2 10 00	 ret	 16			; 00000010H
?SendDamageForce@CCtrl@@UAEHKKHH@Z ENDP			; CCtrl::SendDamageForce
_TEXT	ENDS
PUBLIC	?GetRespawn@CCtrl@@QAEJXZ			; CCtrl::GetRespawn
; Function compile flags: /Ogty
;	COMDAT ?GetRespawn@CCtrl@@QAEJXZ
_TEXT	SEGMENT
?GetRespawn@CCtrl@@QAEJXZ PROC NEAR			; CCtrl::GetRespawn, COMDAT
; _this$ = ecx

; 92   : 	LONG			GetRespawn()			{ return m_lRespawn; }

  00000	8b 81 04 02 00
	00		 mov	 eax, DWORD PTR [ecx+516]
  00006	c3		 ret	 0
?GetRespawn@CCtrl@@QAEJXZ ENDP				; CCtrl::GetRespawn
_TEXT	ENDS
PUBLIC	?LOG_RANGE@@YAXPBDHHH@Z				; LOG_RANGE
PUBLIC	??_C@_0BM@HMFGHCP@?$CFs?5min?3?$CFd?0?5max?3?$CFd?0?5index?3?$CFd?$AA@ ; `string'
EXTRN	?Error@@YAPBDPBDZZ:NEAR				; Error
;	COMDAT ??_C@_0BM@HMFGHCP@?$CFs?5min?3?$CFd?0?5max?3?$CFd?0?5index?3?$CFd?$AA@
; File c:\documents and settings\test\mes documents\source\virtuos_v17\build\program\_common\project.h
CONST	SEGMENT
??_C@_0BM@HMFGHCP@?$CFs?5min?3?$CFd?0?5max?3?$CFd?0?5index?3?$CFd?$AA@ DB '%'
	DB	's min:%d, max:%d, index:%d', 00H		; `string'
; Function compile flags: /Ogty
CONST	ENDS
;	COMDAT ?LOG_RANGE@@YAXPBDHHH@Z
_TEXT	SEGMENT
_szMsg$ = 8						; size = 4
_nMin$ = 12						; size = 4
_nMax$ = 16						; size = 4
_nIndex$ = 20						; size = 4
?LOG_RANGE@@YAXPBDHHH@Z PROC NEAR			; LOG_RANGE, COMDAT

; 559  : 	LPCTSTR szErr = Error( _T( "%s min:%d, max:%d, index:%d" ), szMsg, nMin, nMax, nIndex ); 

  00000	8b 44 24 10	 mov	 eax, DWORD PTR _nIndex$[esp-4]
  00004	8b 4c 24 0c	 mov	 ecx, DWORD PTR _nMax$[esp-4]
  00008	8b 54 24 08	 mov	 edx, DWORD PTR _nMin$[esp-4]
  0000c	50		 push	 eax
  0000d	8b 44 24 08	 mov	 eax, DWORD PTR _szMsg$[esp]
  00011	51		 push	 ecx
  00012	52		 push	 edx
  00013	50		 push	 eax
  00014	68 00 00 00 00	 push	 OFFSET FLAT:??_C@_0BM@HMFGHCP@?$CFs?5min?3?$CFd?0?5max?3?$CFd?0?5index?3?$CFd?$AA@
  00019	e8 00 00 00 00	 call	 ?Error@@YAPBDPBDZZ	; Error
  0001e	83 c4 14	 add	 esp, 20			; 00000014H

; 560  : 	ADDERRORMSG( szErr ); 
; 561  : }

  00021	c3		 ret	 0
?LOG_RANGE@@YAXPBDHHH@Z ENDP				; LOG_RANGE
_TEXT	ENDS
PUBLIC	?LOG_CALLSTACK@@YAXXZ				; LOG_CALLSTACK
; Function compile flags: /Ogty
;	COMDAT ?LOG_CALLSTACK@@YAXXZ
_TEXT	SEGMENT
?LOG_CALLSTACK@@YAXXZ PROC NEAR				; LOG_CALLSTACK, COMDAT

; 565  : #ifdef _DEBUG
; 566  : 	__asm int 3
; 567  : #endif
; 568  : 
; 569  : #if defined(__INTERNALSERVER)
; 570  : 	int *p = NULL;		//    
; 571  : 	*p = 1;
; 572  : #endif
; 573  : }

  00000	c3		 ret	 0
?LOG_CALLSTACK@@YAXXZ ENDP				; LOG_CALLSTACK
_TEXT	ENDS
PUBLIC	??_C@_0BJ@GKPOBPPI@GetMoverProp?5range_error?$AA@ ; `string'
PUBLIC	?GetMoverProp@CProject@@QAEPAUMoverProp@@H@Z	; CProject::GetMoverProp
;	COMDAT ??_C@_0BJ@GKPOBPPI@GetMoverProp?5range_error?$AA@
CONST	SEGMENT
??_C@_0BJ@GKPOBPPI@GetMoverProp?5range_error?$AA@ DB 'GetMoverProp range_'
	DB	'error', 00H					; `string'
; Function compile flags: /Ogty
CONST	ENDS
;	COMDAT ?GetMoverProp@CProject@@QAEPAUMoverProp@@H@Z
_TEXT	SEGMENT
_nIndex$ = 8						; size = 4
?GetMoverProp@CProject@@QAEPAUMoverProp@@H@Z PROC NEAR	; CProject::GetMoverProp, COMDAT
; _this$ = ecx

; 1381 : 	VERIFY_RANGE( nIndex, 0, m_nMoverPropSize, "GetMoverProp range_error", NULL );

  00000	8b 44 24 04	 mov	 eax, DWORD PTR _nIndex$[esp-4]
  00004	85 c0		 test	 eax, eax
  00006	7c 19		 jl	 SHORT $L197938
  00008	3b 81 d0 01 00
	00		 cmp	 eax, DWORD PTR [ecx+464]
  0000e	7d 11		 jge	 SHORT $L197938

; 1382 : 	return m_pPropMover + nIndex;

  00010	8b 91 d4 01 00
	00		 mov	 edx, DWORD PTR [ecx+468]
  00016	69 c0 d8 06 00
	00		 imul	 eax, 1752		; 000006d8H
  0001c	03 c2		 add	 eax, edx

; 1383 : }

  0001e	c2 04 00	 ret	 4
$L197938:

; 1381 : 	VERIFY_RANGE( nIndex, 0, m_nMoverPropSize, "GetMoverProp range_error", NULL );

  00021	50		 push	 eax
  00022	8b 81 d0 01 00
	00		 mov	 eax, DWORD PTR [ecx+464]
  00028	50		 push	 eax
  00029	6a 00		 push	 0
  0002b	68 00 00 00 00	 push	 OFFSET FLAT:??_C@_0BJ@GKPOBPPI@GetMoverProp?5range_error?$AA@
  00030	68 00 00 00 00	 push	 OFFSET FLAT:??_C@_0BM@HMFGHCP@?$CFs?5min?3?$CFd?0?5max?3?$CFd?0?5index?3?$CFd?$AA@
  00035	e8 00 00 00 00	 call	 ?Error@@YAPBDPBDZZ	; Error
  0003a	83 c4 14	 add	 esp, 20			; 00000014H
  0003d	33 c0		 xor	 eax, eax

; 1383 : }

  0003f	c2 04 00	 ret	 4
?GetMoverProp@CProject@@QAEPAUMoverProp@@H@Z ENDP	; CProject::GetMoverProp
_TEXT	ENDS
PUBLIC	?GetLevel@CPet@@QAEEXZ				; CPet::GetLevel
; Function compile flags: /Ogty
; File c:\documents and settings\test\mes documents\source\virtuos_v17\build\program\_common\pet.h
;	COMDAT ?GetLevel@CPet@@QAEEXZ
_TEXT	SEGMENT
?GetLevel@CPet@@QAEEXZ PROC NEAR			; CPet::GetLevel, COMDAT
; _this$ = ecx

; 134  : 	BYTE	GetLevel( void )	{	return m_nLevel;	}

  00000	8a 41 05	 mov	 al, BYTE PTR [ecx+5]
  00003	c3		 ret	 0
?GetLevel@CPet@@QAEEXZ ENDP				; CPet::GetLevel
_TEXT	ENDS
PUBLIC	?GetName@CPet@@QAEPBDXZ				; CPet::GetName
; Function compile flags: /Ogty
;	COMDAT ?GetName@CPet@@QAEPBDXZ
_TEXT	SEGMENT
?GetName@CPet@@QAEPBDXZ PROC NEAR			; CPet::GetName, COMDAT
; _this$ = ecx

; 149  : 	const char*	GetName()	{	return m_szName;	}

  00000	8d 41 16	 lea	 eax, DWORD PTR [ecx+22]
  00003	c3		 ret	 0
?GetName@CPet@@QAEPBDXZ ENDP				; CPet::GetName
_TEXT	ENDS
PUBLIC	?HasName@CPet@@QAEHXZ				; CPet::HasName
; Function compile flags: /Ogty
;	COMDAT ?HasName@CPet@@QAEHXZ
_TEXT	SEGMENT
?HasName@CPet@@QAEHXZ PROC NEAR				; CPet::HasName, COMDAT
; _this$ = ecx

; 150  : 	BOOL	HasName()	{	return strlen( m_szName ) > 0;	}

  00000	8d 41 16	 lea	 eax, DWORD PTR [ecx+22]
  00003	8d 50 01	 lea	 edx, DWORD PTR [eax+1]
$L236948:
  00006	8a 08		 mov	 cl, BYTE PTR [eax]
  00008	40		 inc	 eax
  00009	84 c9		 test	 cl, cl
  0000b	75 f9		 jne	 SHORT $L236948
  0000d	2b c2		 sub	 eax, edx
  0000f	33 c9		 xor	 ecx, ecx
  00011	3b c8		 cmp	 ecx, eax
  00013	1b c0		 sbb	 eax, eax
  00015	f7 d8		 neg	 eax
  00017	c3		 ret	 0
?HasName@CPet@@QAEHXZ ENDP				; CPet::HasName
_TEXT	ENDS
PUBLIC	??1CItemBase@@UAE@XZ				; CItemBase::~CItemBase
PUBLIC	?Empty@CItemBase@@UAEXXZ			; CItemBase::Empty
PUBLIC	??_7CItemBase@@6B@				; CItemBase::`vftable'
PUBLIC	??_GCItemBase@@UAEPAXI@Z			; CItemBase::`scalar deleting destructor'
EXTRN	?Serialize@CItemBase@@UAEXAAVCAr@@@Z:NEAR	; CItemBase::Serialize
EXTRN	??_ECItemBase@@UAEPAXI@Z:NEAR			; CItemBase::`vector deleting destructor'
;	COMDAT ??_7CItemBase@@6B@
; File c:\documents and settings\test\mes documents\source\virtuos_v17\build\program\_common\item.h
CONST	SEGMENT
??_7CItemBase@@6B@ DD FLAT:??_ECItemBase@@UAEPAXI@Z	; CItemBase::`vftable'
	DD	FLAT:??4CItemBase@@UAEAAV0@AAV0@@Z
	DD	FLAT:?Serialize@CItemBase@@UAEXAAVCAr@@@Z
	DD	FLAT:?Empty@CItemBase@@UAEXXZ
; Function compile flags: /Ogty
CONST	ENDS
;	COMDAT ??1CItemBase@@UAE@XZ
_TEXT	SEGMENT
??1CItemBase@@UAE@XZ PROC NEAR				; CItemBase::~CItemBase, COMDAT
; _this$ = ecx

; 45   : 	virtual ~CItemBase()	{}

  00000	c7 01 00 00 00
	00		 mov	 DWORD PTR [ecx], OFFSET FLAT:??_7CItemBase@@6B@
  00006	c3		 ret	 0
??1CItemBase@@UAE@XZ ENDP				; CItemBase::~CItemBase
_TEXT	ENDS
EXTRN	??3@YAXPAX@Z:NEAR				; operator delete
; Function compile flags: /Ogty
;	COMDAT ??_GCItemBase@@UAEPAXI@Z
_TEXT	SEGMENT
___flags$ = 8						; size = 4
??_GCItemBase@@UAEPAXI@Z PROC NEAR			; CItemBase::`scalar deleting destructor', COMDAT
; _this$ = ecx
  00000	f6 44 24 04 01	 test	 BYTE PTR ___flags$[esp-4], 1
  00005	56		 push	 esi
  00006	8b f1		 mov	 esi, ecx
  00008	c7 06 00 00 00
	00		 mov	 DWORD PTR [esi], OFFSET FLAT:??_7CItemBase@@6B@
  0000e	74 09		 je	 SHORT $L236958
  00010	56		 push	 esi
  00011	e8 00 00 00 00	 call	 ??3@YAXPAX@Z		; operator delete
  00016	83 c4 04	 add	 esp, 4
$L236958:
  00019	8b c6		 mov	 eax, esi
  0001b	5e		 pop	 esi
  0001c	c2 04 00	 ret	 4
??_GCItemBase@@UAEPAXI@Z ENDP				; CItemBase::`scalar deleting destructor'
_TEXT	ENDS
PUBLIC	?GetExtra@CItemBase@@QAEHXZ			; CItemBase::GetExtra
; Function compile flags: /Ogty
;	COMDAT ?GetExtra@CItemBase@@QAEHXZ
_TEXT	SEGMENT
?GetExtra@CItemBase@@QAEHXZ PROC NEAR			; CItemBase::GetExtra, COMDAT
; _this$ = ecx

; 75   : 	return m_nExtra;

  00000	8b 41 10	 mov	 eax, DWORD PTR [ecx+16]

; 76   : }

  00003	c3		 ret	 0
?GetExtra@CItemBase@@QAEHXZ ENDP			; CItemBase::GetExtra
_TEXT	ENDS
PUBLIC	?SetTexture@CItemBase@@QAEXPAVCTexture@@@Z	; CItemBase::SetTexture
; Function compile flags: /Ogty
;	COMDAT ?SetTexture@CItemBase@@QAEXPAVCTexture@@@Z
_TEXT	SEGMENT
_pTexture$ = 8						; size = 4
?SetTexture@CItemBase@@QAEXPAVCTexture@@@Z PROC NEAR	; CItemBase::SetTexture, COMDAT
; _this$ = ecx

; 81   : #ifdef __CLIENT
; 82   : 	m_pTexture = pTexture;
; 83   : #endif
; 84   : }

  00000	c2 04 00	 ret	 4
?SetTexture@CItemBase@@QAEXPAVCTexture@@@Z ENDP		; CItemBase::SetTexture
_TEXT	ENDS
PUBLIC	?GetTexture@CItemBase@@QAEPAVCTexture@@XZ	; CItemBase::GetTexture
; Function compile flags: /Ogty
;	COMDAT ?GetTexture@CItemBase@@QAEPAVCTexture@@XZ
_TEXT	SEGMENT
?GetTexture@CItemBase@@QAEPAVCTexture@@XZ PROC NEAR	; CItemBase::GetTexture, COMDAT
; _this$ = ecx

; 88   : #ifdef __CLIENT
; 89   : 	return m_pTexture;
; 90   : #else
; 91   : 	return NULL;

  00000	33 c0		 xor	 eax, eax

; 92   : #endif
; 93   : }

  00002	c3		 ret	 0
?GetTexture@CItemBase@@QAEPAVCTexture@@XZ ENDP		; CItemBase::GetTexture
_TEXT	ENDS
PUBLIC	?GetPiercingSize@CItemElem@@QAEHXZ		; CItemElem::GetPiercingSize
EXTRN	?GetPiercingSize@CPiercing@@QAEHXZ:NEAR		; CPiercing::GetPiercingSize
; Function compile flags: /Ogty
;	COMDAT ?GetPiercingSize@CItemElem@@QAEHXZ
_TEXT	SEGMENT
?GetPiercingSize@CItemElem@@QAEHXZ PROC NEAR		; CItemElem::GetPiercingSize, COMDAT
; _this$ = ecx

; 101  : 	int		GetPiercingSize()	{	return m_piercing.GetPiercingSize();		}

  00000	83 c1 3c	 add	 ecx, 60			; 0000003cH
  00003	e9 00 00 00 00	 jmp	 ?GetPiercingSize@CPiercing@@QAEHXZ ; CPiercing::GetPiercingSize
?GetPiercingSize@CItemElem@@QAEHXZ ENDP			; CItemElem::GetPiercingSize
_TEXT	ENDS
PUBLIC	?SetPiercingItem@CItemElem@@QAEXHK@Z		; CItemElem::SetPiercingItem
EXTRN	?SetPiercingItem@CPiercing@@QAEXHK@Z:NEAR	; CPiercing::SetPiercingItem
; Function compile flags: /Ogty
;	COMDAT ?SetPiercingItem@CItemElem@@QAEXHK@Z
_TEXT	SEGMENT
_nth$ = 8						; size = 4
_dwItem$ = 12						; size = 4
?SetPiercingItem@CItemElem@@QAEXHK@Z PROC NEAR		; CItemElem::SetPiercingItem, COMDAT
; _this$ = ecx

; 103  : 	void	SetPiercingItem( int nth, DWORD dwItem )	{	m_piercing.SetPiercingItem( nth, dwItem );	}

  00000	83 c1 3c	 add	 ecx, 60			; 0000003cH
  00003	e9 00 00 00 00	 jmp	 ?SetPiercingItem@CPiercing@@QAEXHK@Z ; CPiercing::SetPiercingItem
?SetPiercingItem@CItemElem@@QAEXHK@Z ENDP		; CItemElem::SetPiercingItem
_TEXT	ENDS
PUBLIC	?GetPiercingItem@CItemElem@@QAEKH@Z		; CItemElem::GetPiercingItem
EXTRN	?GetPiercingItem@CPiercing@@QAEKH@Z:NEAR	; CPiercing::GetPiercingItem
; Function compile flags: /Ogty
;	COMDAT ?GetPiercingItem@CItemElem@@QAEKH@Z
_TEXT	SEGMENT
_nth$ = 8						; size = 4
?GetPiercingItem@CItemElem@@QAEKH@Z PROC NEAR		; CItemElem::GetPiercingItem, COMDAT
; _this$ = ecx

; 104  : 	DWORD	GetPiercingItem( int nth )	{	return m_piercing.GetPiercingItem( nth );	}

  00000	83 c1 3c	 add	 ecx, 60			; 0000003cH
  00003	e9 00 00 00 00	 jmp	 ?GetPiercingItem@CPiercing@@QAEKH@Z ; CPiercing::GetPiercingItem
?GetPiercingItem@CItemElem@@QAEKH@Z ENDP		; CItemElem::GetPiercingItem
_TEXT	ENDS
PUBLIC	?GetRandomOptItemId@CItemElem@@QAE_JXZ		; CItemElem::GetRandomOptItemId
; Function compile flags: /Ogty
;	COMDAT ?GetRandomOptItemId@CItemElem@@QAE_JXZ
_TEXT	SEGMENT
?GetRandomOptItemId@CItemElem@@QAE_JXZ PROC NEAR	; CItemElem::GetRandomOptItemId, COMDAT
; _this$ = ecx

; 167  : 	__int64		GetRandomOptItemId( void )	{	return m_iRandomOptItemId;	}

  00000	8b 81 98 00 00
	00		 mov	 eax, DWORD PTR [ecx+152]
  00006	8b 91 9c 00 00
	00		 mov	 edx, DWORD PTR [ecx+156]
  0000c	c3		 ret	 0
?GetRandomOptItemId@CItemElem@@QAE_JXZ ENDP		; CItemElem::GetRandomOptItemId
_TEXT	ENDS
PUBLIC	?GetAbilityOption@CItemElem@@QAEHXZ		; CItemElem::GetAbilityOption
; Function compile flags: /Ogty
;	COMDAT ?GetAbilityOption@CItemElem@@QAEHXZ
_TEXT	SEGMENT
?GetAbilityOption@CItemElem@@QAEHXZ PROC NEAR		; CItemElem::GetAbilityOption, COMDAT
; _this$ = ecx

; 231  : 	int			GetAbilityOption() { return m_nAbilityOption; }

  00000	8b 41 70	 mov	 eax, DWORD PTR [ecx+112]
  00003	c3		 ret	 0
?GetAbilityOption@CItemElem@@QAEHXZ ENDP		; CItemElem::GetAbilityOption
_TEXT	ENDS
PUBLIC	?IsFlag@CItemElem@@QAEHE@Z			; CItemElem::IsFlag
; Function compile flags: /Ogty
;	COMDAT ?IsFlag@CItemElem@@QAEHE@Z
_TEXT	SEGMENT
_byFlag$ = 8						; size = 1
?IsFlag@CItemElem@@QAEHE@Z PROC NEAR			; CItemElem::IsFlag, COMDAT
; _this$ = ecx

; 256  : 	BOOL	IsFlag( BYTE byFlag )	{	return ( m_byFlag & byFlag ) ? TRUE: FALSE;		}

  00000	8a 81 82 00 00
	00		 mov	 al, BYTE PTR [ecx+130]
  00006	22 44 24 04	 and	 al, BYTE PTR _byFlag$[esp-4]
  0000a	f6 d8		 neg	 al
  0000c	1b c0		 sbb	 eax, eax
  0000e	f7 d8		 neg	 eax
  00010	c2 04 00	 ret	 4
?IsFlag@CItemElem@@QAEHE@Z ENDP				; CItemElem::IsFlag
_TEXT	ENDS
PUBLIC	?SetVisKeepTime@CItemElem@@QAEXHJ@Z		; CItemElem::SetVisKeepTime
EXTRN	?SetVisKeepTime@CPiercing@@QAEXHJ@Z:NEAR	; CPiercing::SetVisKeepTime
; Function compile flags: /Ogty
;	COMDAT ?SetVisKeepTime@CItemElem@@QAEXHJ@Z
_TEXT	SEGMENT
_nth$ = 8						; size = 4
_tmKeep$ = 12						; size = 4
?SetVisKeepTime@CItemElem@@QAEXHJ@Z PROC NEAR		; CItemElem::SetVisKeepTime, COMDAT
; _this$ = ecx

; 277  : 	void	SetVisKeepTime( int nth, time_t tmKeep )	{ m_piercing.SetVisKeepTime( nth, tmKeep ); }

  00000	83 c1 3c	 add	 ecx, 60			; 0000003cH
  00003	e9 00 00 00 00	 jmp	 ?SetVisKeepTime@CPiercing@@QAEXHJ@Z ; CPiercing::SetVisKeepTime
?SetVisKeepTime@CItemElem@@QAEXHJ@Z ENDP		; CItemElem::SetVisKeepTime
_TEXT	ENDS
PUBLIC	?GetVisKeepTime@CItemElem@@QAEJH@Z		; CItemElem::GetVisKeepTime
EXTRN	?GetVisKeepTime@CPiercing@@QAEJH@Z:NEAR		; CPiercing::GetVisKeepTime
; Function compile flags: /Ogty
;	COMDAT ?GetVisKeepTime@CItemElem@@QAEJH@Z
_TEXT	SEGMENT
_nth$ = 8						; size = 4
?GetVisKeepTime@CItemElem@@QAEJH@Z PROC NEAR		; CItemElem::GetVisKeepTime, COMDAT
; _this$ = ecx

; 278  : 	time_t	GetVisKeepTime( int nth )					{ return m_piercing.GetVisKeepTime( nth ); }

  00000	83 c1 3c	 add	 ecx, 60			; 0000003cH
  00003	e9 00 00 00 00	 jmp	 ?GetVisKeepTime@CPiercing@@QAEJH@Z ; CPiercing::GetVisKeepTime
?GetVisKeepTime@CItemElem@@QAEJH@Z ENDP			; CItemElem::GetVisKeepTime
_TEXT	ENDS
PUBLIC	?GetLevel@CMover@@QAEHXZ			; CMover::GetLevel
; Function compile flags: /Ogty
; File c:\documents and settings\test\mes documents\source\virtuos_v17\build\program\_common\mover.h
;	COMDAT ?GetLevel@CMover@@QAEHXZ
_TEXT	SEGMENT
?GetLevel@CMover@@QAEHXZ PROC NEAR			; CMover::GetLevel, COMDAT
; _this$ = ecx

; 1159 : 	int				GetLevel() { return m_nLevel; }

  00000	8b 81 e0 05 00
	00		 mov	 eax, DWORD PTR [ecx+1504]
  00006	c3		 ret	 0
?GetLevel@CMover@@QAEHXZ ENDP				; CMover::GetLevel
_TEXT	ENDS
PUBLIC	?GetJobType@CMover@@QAEKH@Z			; CMover::GetJobType
EXTRN	?prj@@3VCProject@@A:BYTE			; prj
; Function compile flags: /Ogty
;	COMDAT ?GetJobType@CMover@@QAEKH@Z
_TEXT	SEGMENT
_nJob$ = 8						; size = 4
?GetJobType@CMover@@QAEKH@Z PROC NEAR			; CMover::GetJobType, COMDAT
; _this$ = ecx

; 1522 : 	DWORD			GetJobType( int nJob = NULL_ID )	{	if( nJob == NULL_ID ) nJob = m_nJob;	return prj.m_aJob[ nJob ].dwJobType;	}	//  

  00000	8b 44 24 04	 mov	 eax, DWORD PTR _nJob$[esp-4]
  00004	83 f8 ff	 cmp	 eax, -1
  00007	75 06		 jne	 SHORT $L212463
  00009	8b 81 44 06 00
	00		 mov	 eax, DWORD PTR [ecx+1604]
$L212463:
  0000f	8d 04 c0	 lea	 eax, DWORD PTR [eax+eax*8]
  00012	8b 04 c5 e0 27
	00 00		 mov	 eax, DWORD PTR ?prj@@3VCProject@@A[eax*8+10208]
  00019	c2 04 00	 ret	 4
?GetJobType@CMover@@QAEKH@Z ENDP			; CMover::GetJobType
_TEXT	ENDS
PUBLIC	?GetSize@?$CFixedArray@UItemProp@@@@QAEHXZ	; CFixedArray<ItemProp>::GetSize
; Function compile flags: /Ogty
; File c:\documents and settings\test\mes documents\source\virtuos_v17\build\program\_common\data.h
;	COMDAT ?GetSize@?$CFixedArray@UItemProp@@@@QAEHXZ
_TEXT	SEGMENT
?GetSize@?$CFixedArray@UItemProp@@@@QAEHXZ PROC NEAR	; CFixedArray<ItemProp>::GetSize, COMDAT
; _this$ = ecx

; 221  : 	int  GetSize() { return m_nMaxIndex; }

  00000	8b 41 18	 mov	 eax, DWORD PTR [ecx+24]
  00003	c3		 ret	 0
?GetSize@?$CFixedArray@UItemProp@@@@QAEHXZ ENDP		; CFixedArray<ItemProp>::GetSize
_TEXT	ENDS
PUBLIC	?GetSize@?$CFixedArray@UtagColorText@@@@QAEHXZ	; CFixedArray<tagColorText>::GetSize
; Function compile flags: /Ogty
;	COMDAT ?GetSize@?$CFixedArray@UtagColorText@@@@QAEHXZ
_TEXT	SEGMENT
?GetSize@?$CFixedArray@UtagColorText@@@@QAEHXZ PROC NEAR ; CFixedArray<tagColorText>::GetSize, COMDAT
; _this$ = ecx

; 221  : 	int  GetSize() { return m_nMaxIndex; }

  00000	8b 41 18	 mov	 eax, DWORD PTR [ecx+24]
  00003	c3		 ret	 0
?GetSize@?$CFixedArray@UtagColorText@@@@QAEHXZ ENDP	; CFixedArray<tagColorText>::GetSize
_TEXT	ENDS
PUBLIC	?GetString@?$CSimpleStringT@D$0A@@ATL@@QBEPBDXZ	; ATL::CSimpleStringT<char,0>::GetString
; Function compile flags: /Ogty
; File c:\program files\microsoft visual studio .net 2003\vc7\atlmfc\include\atlsimpstr.h
;	COMDAT ?GetString@?$CSimpleStringT@D$0A@@ATL@@QBEPBDXZ
_TEXT	SEGMENT
?GetString@?$CSimpleStringT@D$0A@@ATL@@QBEPBDXZ PROC NEAR ; ATL::CSimpleStringT<char,0>::GetString, COMDAT
; _this$ = ecx

; 510  : 		return( m_pszData );

  00000	8b 01		 mov	 eax, DWORD PTR [ecx]

; 511  : 	}

  00002	c3		 ret	 0
?GetString@?$CSimpleStringT@D$0A@@ATL@@QBEPBDXZ ENDP	; ATL::CSimpleStringT<char,0>::GetString
_TEXT	ENDS
PUBLIC	?StringLength@?$CSimpleStringT@D$0A@@ATL@@SAHPBD@Z ; ATL::CSimpleStringT<char,0>::StringLength
; Function compile flags: /Ogty
;	COMDAT ?StringLength@?$CSimpleStringT@D$0A@@ATL@@SAHPBD@Z
_TEXT	SEGMENT
_psz$ = 8						; size = 4
?StringLength@?$CSimpleStringT@D$0A@@ATL@@SAHPBD@Z PROC NEAR ; ATL::CSimpleStringT<char,0>::StringLength, COMDAT

; 678  : 		if( psz == NULL )

  00000	8b 44 24 04	 mov	 eax, DWORD PTR _psz$[esp-4]
  00004	85 c0		 test	 eax, eax
  00006	75 01		 jne	 SHORT $L219971

; 683  : 	}

  00008	c3		 ret	 0
$L219971:

; 679  : 		{
; 680  : 			return( 0 );
; 681  : 		}
; 682  : 		return( int( strlen( psz ) ) );

  00009	8d 50 01	 lea	 edx, DWORD PTR [eax+1]
  0000c	8d 64 24 00	 npad	 4
$L237013:
  00010	8a 08		 mov	 cl, BYTE PTR [eax]
  00012	40		 inc	 eax
  00013	84 c9		 test	 cl, cl
  00015	75 f9		 jne	 SHORT $L237013
  00017	2b c2		 sub	 eax, edx

; 683  : 	}

  00019	c3		 ret	 0
?StringLength@?$CSimpleStringT@D$0A@@ATL@@SAHPBD@Z ENDP	; ATL::CSimpleStringT<char,0>::StringLength
_TEXT	ENDS
PUBLIC	?GetData@?$CSimpleStringT@D$0A@@ATL@@ABEPAUCStringData@2@XZ ; ATL::CSimpleStringT<char,0>::GetData
; Function compile flags: /Ogty
;	COMDAT ?GetData@?$CSimpleStringT@D$0A@@ATL@@ABEPAUCStringData@2@XZ
_TEXT	SEGMENT
?GetData@?$CSimpleStringT@D$0A@@ATL@@ABEPAUCStringData@2@XZ PROC NEAR ; ATL::CSimpleStringT<char,0>::GetData, COMDAT
; _this$ = ecx

; 731  : 		return( reinterpret_cast< CStringData* >( m_pszData )-1 );

  00000	8b 01		 mov	 eax, DWORD PTR [ecx]
  00002	83 e8 10	 sub	 eax, 16			; 00000010H

; 732  : 	}

  00005	c3		 ret	 0
?GetData@?$CSimpleStringT@D$0A@@ATL@@ABEPAUCStringData@2@XZ ENDP ; ATL::CSimpleStringT<char,0>::GetData
_TEXT	ENDS
PUBLIC	?SetLength@?$CSimpleStringT@D$0A@@ATL@@AAEXH@Z	; ATL::CSimpleStringT<char,0>::SetLength
; Function compile flags: /Ogty
;	COMDAT ?SetLength@?$CSimpleStringT@D$0A@@ATL@@AAEXH@Z
_TEXT	SEGMENT
_nLength$ = 8						; size = 4
?SetLength@?$CSimpleStringT@D$0A@@ATL@@AAEXH@Z PROC NEAR ; ATL::CSimpleStringT<char,0>::SetLength, COMDAT
; _this$ = ecx

; 790  : 		ATLASSERT( nLength >= 0 );
; 791  : 		ATLASSERT( nLength <= GetData()->nAllocLength );
; 792  : 
; 793  : 		if( nLength < 0 || nLength > GetData()->nAllocLength)

  00000	8b 44 24 04	 mov	 eax, DWORD PTR _nLength$[esp-4]
  00004	85 c0		 test	 eax, eax
  00006	7c 13		 jl	 SHORT $L219986
  00008	8b 11		 mov	 edx, DWORD PTR [ecx]
  0000a	3b 42 f8	 cmp	 eax, DWORD PTR [edx-8]
  0000d	7f 0c		 jg	 SHORT $L219986

; 794  : 			AtlThrow(E_INVALIDARG);
; 795  : 			
; 796  : 		GetData()->nDataLength = nLength;

  0000f	89 42 f4	 mov	 DWORD PTR [edx-12], eax

; 797  : 		m_pszData[nLength] = 0;

  00012	8b 09		 mov	 ecx, DWORD PTR [ecx]
  00014	c6 04 08 00	 mov	 BYTE PTR [eax+ecx], 0

; 798  : 	}

  00018	c2 04 00	 ret	 4
$L219986:
  0001b	68 57 00 07 80	 push	 -2147024809		; 80070057H
  00020	e8 00 00 00 00	 call	 ?AtlThrow@ATL@@YGXJ@Z	; ATL::AtlThrow
$L237027:
$L237026:
  00025	cc		 int	 3
?SetLength@?$CSimpleStringT@D$0A@@ATL@@AAEXH@Z ENDP	; ATL::CSimpleStringT<char,0>::SetLength
_TEXT	ENDS
PUBLIC	?FindStringResourceInstance@?$StrTraitMFC@DV?$ChTraitsCRT@D@ATL@@@@SAPAUHINSTANCE__@@I@Z ; StrTraitMFC<char,ATL::ChTraitsCRT<char> >::FindStringResourceInstance
EXTRN	?AfxFindStringResourceHandle@@YGPAUHINSTANCE__@@I@Z:NEAR ; AfxFindStringResourceHandle
; Function compile flags: /Ogty
; File c:\program files\microsoft visual studio .net 2003\vc7\atlmfc\include\afxstr.h
;	COMDAT ?FindStringResourceInstance@?$StrTraitMFC@DV?$ChTraitsCRT@D@ATL@@@@SAPAUHINSTANCE__@@I@Z
_TEXT	SEGMENT
_nID$ = 8						; size = 4
?FindStringResourceInstance@?$StrTraitMFC@DV?$ChTraitsCRT@D@ATL@@@@SAPAUHINSTANCE__@@I@Z PROC NEAR ; StrTraitMFC<char,ATL::ChTraitsCRT<char> >::FindStringResourceInstance, COMDAT

; 45   : 		return( AfxFindStringResourceHandle( nID ) );

  00000	8b 44 24 04	 mov	 eax, DWORD PTR _nID$[esp-4]
  00004	50		 push	 eax
  00005	e8 00 00 00 00	 call	 ?AfxFindStringResourceHandle@@YGPAUHINSTANCE__@@I@Z ; AfxFindStringResourceHandle

; 46   : 	}

  0000a	c3		 ret	 0
?FindStringResourceInstance@?$StrTraitMFC@DV?$ChTraitsCRT@D@ATL@@@@SAPAUHINSTANCE__@@I@Z ENDP ; StrTraitMFC<char,ATL::ChTraitsCRT<char> >::FindStringResourceInstance
_TEXT	ENDS
PUBLIC	?GetDefaultManager@?$StrTraitMFC@DV?$ChTraitsCRT@D@ATL@@@@SAPAUIAtlStringMgr@ATL@@XZ ; StrTraitMFC<char,ATL::ChTraitsCRT<char> >::GetDefaultManager
EXTRN	?AfxGetStringManager@@YGPAUIAtlStringMgr@ATL@@XZ:NEAR ; AfxGetStringManager
; Function compile flags: /Ogty
;	COMDAT ?GetDefaultManager@?$StrTraitMFC@DV?$ChTraitsCRT@D@ATL@@@@SAPAUIAtlStringMgr@ATL@@XZ
_TEXT	SEGMENT
?GetDefaultManager@?$StrTraitMFC@DV?$ChTraitsCRT@D@ATL@@@@SAPAUIAtlStringMgr@ATL@@XZ PROC NEAR ; StrTraitMFC<char,ATL::ChTraitsCRT<char> >::GetDefaultManager, COMDAT

; 50   : 		return( AfxGetStringManager() );

  00000	e9 00 00 00 00	 jmp	 ?AfxGetStringManager@@YGPAUIAtlStringMgr@ATL@@XZ ; AfxGetStringManager
?GetDefaultManager@?$StrTraitMFC@DV?$ChTraitsCRT@D@ATL@@@@SAPAUIAtlStringMgr@ATL@@XZ ENDP ; StrTraitMFC<char,ATL::ChTraitsCRT<char> >::GetDefaultManager
_TEXT	ENDS
PUBLIC	?Attach@?$CSimpleStringT@D$0A@@ATL@@AAEXPAUCStringData@2@@Z ; ATL::CSimpleStringT<char,0>::Attach
; Function compile flags: /Ogty
; File c:\program files\microsoft visual studio .net 2003\vc7\atlmfc\include\atlsimpstr.h
;	COMDAT ?Attach@?$CSimpleStringT@D$0A@@ATL@@AAEXPAUCStringData@2@@Z
_TEXT	SEGMENT
_pData$ = 8						; size = 4
?Attach@?$CSimpleStringT@D$0A@@ATL@@AAEXPAUCStringData@2@@Z PROC NEAR ; ATL::CSimpleStringT<char,0>::Attach, COMDAT
; _this$ = ecx

; 712  : 		m_pszData = static_cast< PXSTR >( pData->data() );

  00000	8b 44 24 04	 mov	 eax, DWORD PTR _pData$[esp-4]
  00004	83 c0 10	 add	 eax, 16			; 00000010H
  00007	89 01		 mov	 DWORD PTR [ecx], eax

; 713  : 	}

  00009	c2 04 00	 ret	 4
?Attach@?$CSimpleStringT@D$0A@@ATL@@AAEXPAUCStringData@2@@Z ENDP ; ATL::CSimpleStringT<char,0>::Attach
_TEXT	ENDS
PUBLIC	?GetFormattedLength@?$ChTraitsCRT@D@ATL@@SAHPBDPAD@Z ; ATL::ChTraitsCRT<char>::GetFormattedLength
EXTRN	__vscprintf:NEAR
; Function compile flags: /Ogty
; File c:\program files\microsoft visual studio .net 2003\vc7\atlmfc\include\cstringt.h
;	COMDAT ?GetFormattedLength@?$ChTraitsCRT@D@ATL@@SAHPBDPAD@Z
_TEXT	SEGMENT
_pszFormat$ = 8						; size = 4
_args$ = 12						; size = 4
?GetFormattedLength@?$ChTraitsCRT@D@ATL@@SAHPBDPAD@Z PROC NEAR ; ATL::ChTraitsCRT<char>::GetFormattedLength, COMDAT

; 408  : 		return _vscprintf( pszFormat, args );

  00000	e9 00 00 00 00	 jmp	 __vscprintf
?GetFormattedLength@?$ChTraitsCRT@D@ATL@@SAHPBDPAD@Z ENDP ; ATL::ChTraitsCRT<char>::GetFormattedLength
_TEXT	ENDS
PUBLIC	?Format@?$ChTraitsCRT@D@ATL@@SAHPADPBD0@Z	; ATL::ChTraitsCRT<char>::Format
EXTRN	_vsprintf:NEAR
; Function compile flags: /Ogty
;	COMDAT ?Format@?$ChTraitsCRT@D@ATL@@SAHPADPBD0@Z
_TEXT	SEGMENT
_pszBuffer$ = 8						; size = 4
_pszFormat$ = 12					; size = 4
_args$ = 16						; size = 4
?Format@?$ChTraitsCRT@D@ATL@@SAHPADPBD0@Z PROC NEAR	; ATL::ChTraitsCRT<char>::Format, COMDAT

; 413  : 		return vsprintf( pszBuffer, pszFormat, args );

  00000	e9 00 00 00 00	 jmp	 _vsprintf
?Format@?$ChTraitsCRT@D@ATL@@SAHPADPBD0@Z ENDP		; ATL::ChTraitsCRT<char>::Format
_TEXT	ENDS
PUBLIC	?GetBaseTypeLength@?$ChTraitsCRT@D@ATL@@SAHPBGH@Z ; ATL::ChTraitsCRT<char>::GetBaseTypeLength
EXTRN	__imp__WideCharToMultiByte@32:NEAR
; Function compile flags: /Ogty
;	COMDAT ?GetBaseTypeLength@?$ChTraitsCRT@D@ATL@@SAHPBGH@Z
_TEXT	SEGMENT
_pszSource$ = 8						; size = 4
_nLength$ = 12						; size = 4
?GetBaseTypeLength@?$ChTraitsCRT@D@ATL@@SAHPBGH@Z PROC NEAR ; ATL::ChTraitsCRT<char>::GetBaseTypeLength, COMDAT

; 437  : 		// Returns required buffer length in XCHARs
; 438  : 		return ::WideCharToMultiByte( _AtlGetConversionACP(), 0, pszSource, nLength, NULL, 0, NULL, NULL );

  00000	ff 15 00 00 00
	00		 call	 DWORD PTR ?g_pfnGetThreadACP@ATL@@3P6GIXZA ; ATL::g_pfnGetThreadACP
  00006	8b 4c 24 08	 mov	 ecx, DWORD PTR _nLength$[esp-4]
  0000a	8b 54 24 04	 mov	 edx, DWORD PTR _pszSource$[esp-4]
  0000e	6a 00		 push	 0
  00010	6a 00		 push	 0
  00012	6a 00		 push	 0
  00014	6a 00		 push	 0
  00016	51		 push	 ecx
  00017	52		 push	 edx
  00018	6a 00		 push	 0
  0001a	50		 push	 eax
  0001b	ff 15 00 00 00
	00		 call	 DWORD PTR __imp__WideCharToMultiByte@32

; 439  : 	}

  00021	c3		 ret	 0
?GetBaseTypeLength@?$ChTraitsCRT@D@ATL@@SAHPBGH@Z ENDP	; ATL::ChTraitsCRT<char>::GetBaseTypeLength
_TEXT	ENDS
PUBLIC	?ConvertToBaseType@?$ChTraitsCRT@D@ATL@@SAXPADHPBGH@Z ; ATL::ChTraitsCRT<char>::ConvertToBaseType
; Function compile flags: /Ogty
;	COMDAT ?ConvertToBaseType@?$ChTraitsCRT@D@ATL@@SAXPADHPBGH@Z
_TEXT	SEGMENT
_pszDest$ = 8						; size = 4
_nDestLength$ = 12					; size = 4
_pszSrc$ = 16						; size = 4
_nSrcLength$ = 20					; size = 4
?ConvertToBaseType@?$ChTraitsCRT@D@ATL@@SAXPADHPBGH@Z PROC NEAR ; ATL::ChTraitsCRT<char>::ConvertToBaseType, COMDAT

; 452  : 		// nLen is in XCHARs
; 453  : 		::WideCharToMultiByte( _AtlGetConversionACP(), 0, pszSrc, nSrcLength, pszDest, nDestLength, NULL, NULL );

  00000	8b 44 24 08	 mov	 eax, DWORD PTR _nDestLength$[esp-4]
  00004	8b 4c 24 04	 mov	 ecx, DWORD PTR _pszDest$[esp-4]
  00008	8b 54 24 10	 mov	 edx, DWORD PTR _nSrcLength$[esp-4]
  0000c	6a 00		 push	 0
  0000e	6a 00		 push	 0
  00010	50		 push	 eax
  00011	8b 44 24 18	 mov	 eax, DWORD PTR _pszSrc$[esp+8]
  00015	51		 push	 ecx
  00016	52		 push	 edx
  00017	50		 push	 eax
  00018	6a 00		 push	 0
  0001a	ff 15 00 00 00
	00		 call	 DWORD PTR ?g_pfnGetThreadACP@ATL@@3P6GIXZA ; ATL::g_pfnGetThreadACP
  00020	50		 push	 eax
  00021	ff 15 00 00 00
	00		 call	 DWORD PTR __imp__WideCharToMultiByte@32

; 454  : 	}

  00027	c3		 ret	 0
?ConvertToBaseType@?$ChTraitsCRT@D@ATL@@SAXPADHPBGH@Z ENDP ; ATL::ChTraitsCRT<char>::ConvertToBaseType
_TEXT	ENDS
PUBLIC	?CopyChars@?$CSimpleStringT@D$0A@@ATL@@SAXPADPBDH@Z ; ATL::CSimpleStringT<char,0>::CopyChars
; Function compile flags: /Ogty
; File c:\program files\microsoft visual studio .net 2003\vc7\atlmfc\include\atlsimpstr.h
;	COMDAT ?CopyChars@?$CSimpleStringT@D$0A@@ATL@@SAXPADPBDH@Z
_TEXT	SEGMENT
_pchDest$ = 8						; size = 4
_pchSrc$ = 12						; size = 4
_nChars$ = 16						; size = 4
?CopyChars@?$CSimpleStringT@D$0A@@ATL@@SAXPADPBDH@Z PROC NEAR ; ATL::CSimpleStringT<char,0>::CopyChars, COMDAT

; 653  : 		memcpy( pchDest, pchSrc, nChars*sizeof( XCHAR ) );

  00000	8b 4c 24 0c	 mov	 ecx, DWORD PTR _nChars$[esp-4]
  00004	56		 push	 esi
  00005	8b 74 24 0c	 mov	 esi, DWORD PTR _pchSrc$[esp]
  00009	8b c1		 mov	 eax, ecx
  0000b	57		 push	 edi
  0000c	8b 7c 24 0c	 mov	 edi, DWORD PTR _pchDest$[esp+4]
  00010	c1 e9 02	 shr	 ecx, 2
  00013	f3 a5		 rep movsd
  00015	8b c8		 mov	 ecx, eax
  00017	83 e1 03	 and	 ecx, 3
  0001a	f3 a4		 rep movsb
  0001c	5f		 pop	 edi
  0001d	5e		 pop	 esi

; 654  : 	}

  0001e	c3		 ret	 0
?CopyChars@?$CSimpleStringT@D$0A@@ATL@@SAXPADPBDH@Z ENDP ; ATL::CSimpleStringT<char,0>::CopyChars
_TEXT	ENDS
PUBLIC	?CopyCharsOverlapped@?$CSimpleStringT@D$0A@@ATL@@SAXPADPBDH@Z ; ATL::CSimpleStringT<char,0>::CopyCharsOverlapped
EXTRN	_memmove:NEAR
; Function compile flags: /Ogty
;	COMDAT ?CopyCharsOverlapped@?$CSimpleStringT@D$0A@@ATL@@SAXPADPBDH@Z
_TEXT	SEGMENT
_pchDest$ = 8						; size = 4
_pchSrc$ = 12						; size = 4
_nChars$ = 16						; size = 4
?CopyCharsOverlapped@?$CSimpleStringT@D$0A@@ATL@@SAXPADPBDH@Z PROC NEAR ; ATL::CSimpleStringT<char,0>::CopyCharsOverlapped, COMDAT

; 657  : 		memmove( pchDest, pchSrc, nChars*sizeof( XCHAR ) );

  00000	e9 00 00 00 00	 jmp	 _memmove
?CopyCharsOverlapped@?$CSimpleStringT@D$0A@@ATL@@SAXPADPBDH@Z ENDP ; ATL::CSimpleStringT<char,0>::CopyCharsOverlapped
_TEXT	ENDS
PUBLIC	?ThrowMemoryException@?$CSimpleStringT@D$0A@@ATL@@KAXXZ ; ATL::CSimpleStringT<char,0>::ThrowMemoryException
; Function compile flags: /Ogty
;	COMDAT ?ThrowMemoryException@?$CSimpleStringT@D$0A@@ATL@@KAXXZ
_TEXT	SEGMENT
?ThrowMemoryException@?$CSimpleStringT@D$0A@@ATL@@KAXXZ PROC NEAR ; ATL::CSimpleStringT<char,0>::ThrowMemoryException, COMDAT

; 705  : 		AtlThrow( E_OUTOFMEMORY );

  00000	68 0e 00 07 80	 push	 -2147024882		; 8007000eH
  00005	e8 00 00 00 00	 call	 ?AtlThrow@ATL@@YGXJ@Z	; ATL::AtlThrow
$L237072:
$L237071:
  0000a	cc		 int	 3
?ThrowMemoryException@?$CSimpleStringT@D$0A@@ATL@@KAXXZ ENDP ; ATL::CSimpleStringT<char,0>::ThrowMemoryException
_TEXT	ENDS
PUBLIC	?Fork@?$CSimpleStringT@D$0A@@ATL@@AAEXH@Z	; ATL::CSimpleStringT<char,0>::Fork
; Function compile flags: /Ogty
;	COMDAT ?Fork@?$CSimpleStringT@D$0A@@ATL@@AAEXH@Z
_TEXT	SEGMENT
_this$ = -4						; size = 4
tv181 = 8						; size = 4
_nLength$ = 8						; size = 4
?Fork@?$CSimpleStringT@D$0A@@ATL@@AAEXH@Z PROC NEAR	; ATL::CSimpleStringT<char,0>::Fork, COMDAT
; _this$ = ecx

; 715  : 	{

  00000	51		 push	 ecx
  00001	53		 push	 ebx

; 716  : 		CStringData* pOldData = GetData();

  00002	8b 19		 mov	 ebx, DWORD PTR [ecx]
  00004	83 eb 10	 sub	 ebx, 16			; 00000010H
  00007	55		 push	 ebp

; 717  : 		int nOldLength = pOldData->nDataLength;

  00008	8b 6b 04	 mov	 ebp, DWORD PTR [ebx+4]
  0000b	89 4c 24 08	 mov	 DWORD PTR _this$[esp+12], ecx

; 718  : 		CStringData* pNewData = pOldData->pStringMgr->Clone()->Allocate( nLength, sizeof( XCHAR ) );

  0000f	8b 0b		 mov	 ecx, DWORD PTR [ebx]
  00011	8b 01		 mov	 eax, DWORD PTR [ecx]
  00013	56		 push	 esi
  00014	ff 50 10	 call	 DWORD PTR [eax+16]
  00017	8b 74 24 14	 mov	 esi, DWORD PTR _nLength$[esp+12]
  0001b	8b 10		 mov	 edx, DWORD PTR [eax]
  0001d	6a 01		 push	 1
  0001f	56		 push	 esi
  00020	8b c8		 mov	 ecx, eax
  00022	ff 12		 call	 DWORD PTR [edx]

; 719  : 		if( pNewData == NULL )

  00024	85 c0		 test	 eax, eax
  00026	75 05		 jne	 SHORT $L222762

; 720  : 		{
; 721  : 			ThrowMemoryException();

  00028	e8 00 00 00 00	 call	 ?ThrowMemoryException@?$CSimpleStringT@D$0A@@ATL@@KAXXZ ; ATL::CSimpleStringT<char,0>::ThrowMemoryException
$L237103:
$L222762:

; 722  : 		}
; 723  : 		int nCharsToCopy = ((nOldLength < nLength) ? nOldLength : nLength)+1;  // Copy '\0'

  0002d	3b ee		 cmp	 ebp, esi
  0002f	7d 02		 jge	 SHORT $L237077
  00031	8b f5		 mov	 esi, ebp
$L237077:
  00033	8d 4e 01	 lea	 ecx, DWORD PTR [esi+1]

; 724  : 		CopyChars( PXSTR( pNewData->data() ), PCXSTR( pOldData->data() ), nCharsToCopy );

  00036	8b d1		 mov	 edx, ecx
  00038	57		 push	 edi
  00039	c1 e9 02	 shr	 ecx, 2
  0003c	8d 78 10	 lea	 edi, DWORD PTR [eax+16]
  0003f	89 7c 24 18	 mov	 DWORD PTR tv181[esp+16], edi
  00043	8d 73 10	 lea	 esi, DWORD PTR [ebx+16]
  00046	f3 a5		 rep movsd
  00048	8b ca		 mov	 ecx, edx
  0004a	83 e1 03	 and	 ecx, 3
  0004d	f3 a4		 rep movsb

; 725  : 		pNewData->nDataLength = nOldLength;

  0004f	89 68 04	 mov	 DWORD PTR [eax+4], ebp

; 726  : 		pOldData->Release();

  00052	8d 43 0c	 lea	 eax, DWORD PTR [ebx+12]
  00055	83 c9 ff	 or	 ecx, -1
  00058	f0 0f c1 08	 lock	  xadd	 DWORD PTR [eax], ecx
  0005c	49		 dec	 ecx
  0005d	85 c9		 test	 ecx, ecx
  0005f	5f		 pop	 edi
  00060	7f 08		 jg	 SHORT $L237093
  00062	8b 0b		 mov	 ecx, DWORD PTR [ebx]
  00064	8b 11		 mov	 edx, DWORD PTR [ecx]
  00066	53		 push	 ebx
  00067	ff 52 04	 call	 DWORD PTR [edx+4]
$L237093:

; 727  : 		Attach( pNewData );

  0006a	8b 44 24 14	 mov	 eax, DWORD PTR tv181[esp+12]
  0006e	8b 4c 24 0c	 mov	 ecx, DWORD PTR _this$[esp+16]
  00072	5e		 pop	 esi
  00073	5d		 pop	 ebp
  00074	89 01		 mov	 DWORD PTR [ecx], eax
  00076	5b		 pop	 ebx

; 728  : 	}

  00077	59		 pop	 ecx
  00078	c2 04 00	 ret	 4
$L237102:
?Fork@?$CSimpleStringT@D$0A@@ATL@@AAEXH@Z ENDP		; ATL::CSimpleStringT<char,0>::Fork
_TEXT	ENDS
PUBLIC	?Reallocate@?$CSimpleStringT@D$0A@@ATL@@AAEXH@Z	; ATL::CSimpleStringT<char,0>::Reallocate
; Function compile flags: /Ogty
;	COMDAT ?Reallocate@?$CSimpleStringT@D$0A@@ATL@@AAEXH@Z
_TEXT	SEGMENT
_nLength$ = 8						; size = 4
?Reallocate@?$CSimpleStringT@D$0A@@ATL@@AAEXH@Z PROC NEAR ; ATL::CSimpleStringT<char,0>::Reallocate, COMDAT
; _this$ = ecx

; 776  : 	{

  00000	56		 push	 esi
  00001	57		 push	 edi

; 777  : 		CStringData* pOldData = GetData();
; 778  : 		ATLASSERT( pOldData->nAllocLength < nLength );
; 779  : 		IAtlStringMgr* pStringMgr = pOldData->pStringMgr;
; 780  : 		CStringData* pNewData = pStringMgr->Reallocate( pOldData, nLength, sizeof( XCHAR ) );

  00002	8b 7c 24 0c	 mov	 edi, DWORD PTR _nLength$[esp+4]
  00006	8b f1		 mov	 esi, ecx
  00008	8b 06		 mov	 eax, DWORD PTR [esi]
  0000a	8b 48 f0	 mov	 ecx, DWORD PTR [eax-16]
  0000d	8b 11		 mov	 edx, DWORD PTR [ecx]
  0000f	83 e8 10	 sub	 eax, 16			; 00000010H
  00012	6a 01		 push	 1
  00014	57		 push	 edi
  00015	50		 push	 eax
  00016	ff 52 08	 call	 DWORD PTR [edx+8]

; 781  : 		if( pNewData == NULL )

  00019	85 c0		 test	 eax, eax
  0001b	75 05		 jne	 SHORT $L222771

; 782  : 		{
; 783  : 			ThrowMemoryException();

  0001d	e8 00 00 00 00	 call	 ?ThrowMemoryException@?$CSimpleStringT@D$0A@@ATL@@KAXXZ ; ATL::CSimpleStringT<char,0>::ThrowMemoryException
$L237119:
$L222771:

; 784  : 		}
; 785  : 		Attach( pNewData );

  00022	83 c0 10	 add	 eax, 16			; 00000010H
  00025	5f		 pop	 edi
  00026	89 06		 mov	 DWORD PTR [esi], eax
  00028	5e		 pop	 esi

; 786  : 	}

  00029	c2 04 00	 ret	 4
$L237118:
?Reallocate@?$CSimpleStringT@D$0A@@ATL@@AAEXH@Z ENDP	; ATL::CSimpleStringT<char,0>::Reallocate
_TEXT	ENDS
PUBLIC	?GetAt@?$CFixedArray@UItemProp@@@@QAEPAUItemProp@@K@Z ; CFixedArray<ItemProp>::GetAt
; Function compile flags: /Ogty
; File c:\documents and settings\test\mes documents\source\virtuos_v17\build\program\_common\data.h
;	COMDAT ?GetAt@?$CFixedArray@UItemProp@@@@QAEPAUItemProp@@K@Z
_TEXT	SEGMENT
_dwIndex$ = 8						; size = 4
?GetAt@?$CFixedArray@UItemProp@@@@QAEPAUItemProp@@K@Z PROC NEAR ; CFixedArray<ItemProp>::GetAt, COMDAT
; _this$ = ecx

; 270  : 	if( dwIndex >= (DWORD)m_nMaxIndex )

  00000	8b 44 24 04	 mov	 eax, DWORD PTR _dwIndex$[esp-4]
  00004	3b 41 18	 cmp	 eax, DWORD PTR [ecx+24]
  00007	72 05		 jb	 SHORT $L224299

; 271  : 		return NULL;

  00009	33 c0		 xor	 eax, eax

; 273  : }

  0000b	c2 04 00	 ret	 4
$L224299:

; 272  : 	return (T*) m_apOffset[ dwIndex ];

  0000e	8b 49 08	 mov	 ecx, DWORD PTR [ecx+8]
  00011	8b 04 81	 mov	 eax, DWORD PTR [ecx+eax*4]

; 273  : }

  00014	c2 04 00	 ret	 4
?GetAt@?$CFixedArray@UItemProp@@@@QAEPAUItemProp@@K@Z ENDP ; CFixedArray<ItemProp>::GetAt
_TEXT	ENDS
PUBLIC	?GetAt@?$CFixedArray@UtagColorText@@@@QAEPAUtagColorText@@K@Z ; CFixedArray<tagColorText>::GetAt
; Function compile flags: /Ogty
;	COMDAT ?GetAt@?$CFixedArray@UtagColorText@@@@QAEPAUtagColorText@@K@Z
_TEXT	SEGMENT
_dwIndex$ = 8						; size = 4
?GetAt@?$CFixedArray@UtagColorText@@@@QAEPAUtagColorText@@K@Z PROC NEAR ; CFixedArray<tagColorText>::GetAt, COMDAT
; _this$ = ecx

; 270  : 	if( dwIndex >= (DWORD)m_nMaxIndex )

  00000	8b 44 24 04	 mov	 eax, DWORD PTR _dwIndex$[esp-4]
  00004	3b 41 18	 cmp	 eax, DWORD PTR [ecx+24]
  00007	72 05		 jb	 SHORT $L224363

; 271  : 		return NULL;

  00009	33 c0		 xor	 eax, eax

; 273  : }

  0000b	c2 04 00	 ret	 4
$L224363:

; 272  : 	return (T*) m_apOffset[ dwIndex ];

  0000e	8b 49 08	 mov	 ecx, DWORD PTR [ecx+8]
  00011	8b 04 81	 mov	 eax, DWORD PTR [ecx+eax*4]

; 273  : }

  00014	c2 04 00	 ret	 4
?GetAt@?$CFixedArray@UtagColorText@@@@QAEPAUtagColorText@@K@Z ENDP ; CFixedArray<tagColorText>::GetAt
_TEXT	ENDS
PUBLIC	?IsUsableItem@@YAHPAVCItemBase@@@Z		; IsUsableItem
; Function compile flags: /Ogty
; File c:\documents and settings\test\mes documents\source\virtuos_v17\build\program\_common\item.cpp
;	COMDAT ?IsUsableItem@@YAHPAVCItemBase@@@Z
_TEXT	SEGMENT
_pItem$ = 8						; size = 4
?IsUsableItem@@YAHPAVCItemBase@@@Z PROC NEAR		; IsUsableItem, COMDAT

; 19   : 	if( pItem == NULL )

  00000	8b 44 24 04	 mov	 eax, DWORD PTR _pItem$[esp-4]
  00004	85 c0		 test	 eax, eax
  00006	75 01		 jne	 SHORT $L234402

; 23   : 		return TRUE;
; 24   : 	else
; 25   : 		return FALSE;	//        .
; 26   : }

  00008	c3		 ret	 0
$L234402:

; 20   : 		return FALSE;
; 21   : 	
; 22   : 	if( pItem->GetExtra() == 0 )

  00009	8b 50 10	 mov	 edx, DWORD PTR [eax+16]
  0000c	33 c9		 xor	 ecx, ecx
  0000e	85 d2		 test	 edx, edx
  00010	0f 94 c1	 sete	 cl
  00013	8b c1		 mov	 eax, ecx

; 23   : 		return TRUE;
; 24   : 	else
; 25   : 		return FALSE;	//        .
; 26   : }

  00015	c3		 ret	 0
?IsUsableItem@@YAHPAVCItemBase@@@Z ENDP			; IsUsableItem
_TEXT	ENDS
PUBLIC	?IsUsingItem@@YAHPAVCItemBase@@@Z		; IsUsingItem
; Function compile flags: /Ogty
;	COMDAT ?IsUsingItem@@YAHPAVCItemBase@@@Z
_TEXT	SEGMENT
_pItem$ = 8						; size = 4
?IsUsingItem@@YAHPAVCItemBase@@@Z PROC NEAR		; IsUsingItem, COMDAT

; 30   : 	if( pItem == NULL )

  00000	8b 44 24 04	 mov	 eax, DWORD PTR _pItem$[esp-4]
  00004	85 c0		 test	 eax, eax
  00006	75 01		 jne	 SHORT $L234408

; 34   : 		return TRUE;
; 35   : 	else
; 36   : 		return FALSE;	//        .
; 37   : }

  00008	c3		 ret	 0
$L234408:

; 31   : 		return FALSE;
; 32   : 	
; 33   : 	if( pItem->GetExtra() != 0 )

  00009	8b 50 10	 mov	 edx, DWORD PTR [eax+16]
  0000c	33 c9		 xor	 ecx, ecx
  0000e	85 d2		 test	 edx, edx
  00010	0f 95 c1	 setne	 cl
  00013	8b c1		 mov	 eax, ecx

; 34   : 		return TRUE;
; 35   : 	else
; 36   : 		return FALSE;	//        .
; 37   : }

  00015	c3		 ret	 0
?IsUsingItem@@YAHPAVCItemBase@@@Z ENDP			; IsUsingItem
_TEXT	ENDS
PUBLIC	??0CItemBase@@QAE@XZ				; CItemBase::CItemBase
; Function compile flags: /Ogty
;	COMDAT ??0CItemBase@@QAE@XZ
_TEXT	SEGMENT
??0CItemBase@@QAE@XZ PROC NEAR				; CItemBase::CItemBase, COMDAT
; _this$ = ecx

; 42   : { 

  00000	8b c1		 mov	 eax, ecx

; 43   : 	m_szItemText[0]  = '\0';

  00002	33 c9		 xor	 ecx, ecx

; 44   : 	m_dwItemId	     = 0;
; 45   : 	m_dwObjId	     = NULL_ID;

  00004	83 ca ff	 or	 edx, -1
  00007	c7 00 00 00 00
	00		 mov	 DWORD PTR [eax], OFFSET FLAT:??_7CItemBase@@6B@
  0000d	88 48 14	 mov	 BYTE PTR [eax+20], cl
  00010	89 48 0c	 mov	 DWORD PTR [eax+12], ecx
  00013	89 50 04	 mov	 DWORD PTR [eax+4], edx

; 46   : 	m_dwObjIndex	 = NULL_ID;

  00016	89 50 08	 mov	 DWORD PTR [eax+8], edx

; 47   : 	m_nExtra	     = 0;

  00019	89 48 10	 mov	 DWORD PTR [eax+16], ecx

; 48   : 	m_nCost		     = 0;

  0001c	89 48 34	 mov	 DWORD PTR [eax+52], ecx

; 49   : 	m_liSerialNumber	= 0;

  0001f	89 48 38	 mov	 DWORD PTR [eax+56], ecx

; 50   : 
; 51   : 	SetTexture( NULL );	
; 52   : }

  00022	c3		 ret	 0
??0CItemBase@@QAE@XZ ENDP				; CItemBase::CItemBase
; Function compile flags: /Ogty
_TEXT	ENDS
;	COMDAT ?Empty@CItemBase@@UAEXXZ
_TEXT	SEGMENT
?Empty@CItemBase@@UAEXXZ PROC NEAR			; CItemBase::Empty, COMDAT
; _this$ = ecx

; 56   : 	m_szItemText[0] = '\0';

  00000	33 c0		 xor	 eax, eax
  00002	88 41 14	 mov	 BYTE PTR [ecx+20], al

; 57   : 	m_dwItemId = 0;

  00005	89 41 0c	 mov	 DWORD PTR [ecx+12], eax

; 58   : 	m_nExtra   = 0;

  00008	89 41 10	 mov	 DWORD PTR [ecx+16], eax

; 59   : 	SetTexture( NULL );
; 60   : }

  0000b	c3		 ret	 0
?Empty@CItemBase@@UAEXXZ ENDP				; CItemBase::Empty
_TEXT	ENDS
PUBLIC	??0CItemElem@@QAE@XZ				; CItemElem::CItemElem
PUBLIC	?Empty@CItemElem@@UAEXXZ			; CItemElem::Empty
PUBLIC	??4CItemElem@@UAEAAV0@AAV0@@Z			; CItemElem::operator=
PUBLIC	??_7CItemElem@@6B@				; CItemElem::`vftable'
PUBLIC	??_GCItemElem@@UAEPAXI@Z			; CItemElem::`scalar deleting destructor'
EXTRN	??0CPiercing@@QAE@XZ:NEAR			; CPiercing::CPiercing
EXTRN	__except_list:DWORD
EXTRN	___CxxFrameHandler:NEAR
EXTRN	?Serialize@CItemElem@@UAEXAAVCAr@@@Z:NEAR	; CItemElem::Serialize
EXTRN	??_ECItemElem@@UAEPAXI@Z:NEAR			; CItemElem::`vector deleting destructor'
;	COMDAT xdata$x
; File c:\documents and settings\test\mes documents\source\virtuos_v17\build\program\_common\item.h
xdata$x	SEGMENT
$T237171 DD	0ffffffffH
	DD	FLAT:$L237155
$T237168 DD	019930520H
	DD	01H
	DD	FLAT:$T237171
	DD	2 DUP(00H)
	DD	2 DUP(00H)
xdata$x	ENDS
;	COMDAT ??_7CItemElem@@6B@
CONST	SEGMENT
??_7CItemElem@@6B@ DD FLAT:??_ECItemElem@@UAEPAXI@Z	; CItemElem::`vftable'
	DD	FLAT:??4CItemBase@@UAEAAV0@AAV0@@Z
	DD	FLAT:?Serialize@CItemElem@@UAEXAAVCAr@@@Z
	DD	FLAT:?Empty@CItemElem@@UAEXXZ
	DD	FLAT:??4CItemElem@@UAEAAV0@AAV0@@Z
; Function compile flags: /Ogty
; File c:\documents and settings\test\mes documents\source\virtuos_v17\build\program\_common\item.cpp
CONST	ENDS
;	COMDAT ??0CItemElem@@QAE@XZ
_TEXT	SEGMENT
_this$ = -16						; size = 4
__$EHRec$ = -12						; size = 12
??0CItemElem@@QAE@XZ PROC NEAR				; CItemElem::CItemElem, COMDAT
; _this$ = ecx

; 190  : {

  00000	6a ff		 push	 -1
  00002	68 00 00 00 00	 push	 __ehhandler$??0CItemElem@@QAE@XZ
  00007	64 a1 00 00 00
	00		 mov	 eax, DWORD PTR fs:__except_list
  0000d	50		 push	 eax
  0000e	64 89 25 00 00
	00 00		 mov	 DWORD PTR fs:__except_list, esp
  00015	51		 push	 ecx
  00016	53		 push	 ebx
  00017	33 db		 xor	 ebx, ebx
  00019	56		 push	 esi
  0001a	8b f1		 mov	 esi, ecx
  0001c	89 74 24 08	 mov	 DWORD PTR _this$[esp+24], esi
  00020	88 5e 14	 mov	 BYTE PTR [esi+20], bl
  00023	89 5e 0c	 mov	 DWORD PTR [esi+12], ebx
  00026	c7 46 04 ff ff
	ff ff		 mov	 DWORD PTR [esi+4], -1
  0002d	c7 46 08 ff ff
	ff ff		 mov	 DWORD PTR [esi+8], -1
  00034	89 5e 10	 mov	 DWORD PTR [esi+16], ebx
  00037	89 5e 34	 mov	 DWORD PTR [esi+52], ebx
  0003a	89 5e 38	 mov	 DWORD PTR [esi+56], ebx
  0003d	8d 4e 3c	 lea	 ecx, DWORD PTR [esi+60]
  00040	89 5c 24 14	 mov	 DWORD PTR __$EHRec$[esp+32], ebx
  00044	c7 06 00 00 00
	00		 mov	 DWORD PTR [esi], OFFSET FLAT:??_7CItemElem@@6B@
  0004a	e8 00 00 00 00	 call	 ??0CPiercing@@QAE@XZ	; CPiercing::CPiercing

; 191  : 	m_idGuild = 0;
; 192  : 	m_nItemNum = 1;
; 193  : 	m_nAbilityOption = 0;
; 194  : 	m_nRepairNumber	= 0;
; 195  : 	m_nHitPoint		= -1;
; 196  : 	m_nRepair	= 0;
; 197  : 	m_byFlag	= 0;
; 198  : #ifdef __CLIENT
; 199  : 	m_bRepair	= FALSE;
; 200  : #endif	// __CLIENT
; 201  : 
; 202  :     m_bItemResist = SAI79::NO_PROP;
; 203  : 	m_nResistAbilityOption = 0;	
; 204  : 	m_nResistSMItemId = 0;
; 205  : 
; 206  : #ifdef __WORLDSERVER
; 207  : 	m_bQuery	= FALSE;
; 208  : #endif	// __WORLDSERVER
; 209  : 
; 210  : //	memset( &m_piercingInfo, 0, sizeof(m_piercingInfo) );
; 211  : 	m_bCharged	= FALSE;
; 212  : 	m_dwKeepTime	= 0;
; 213  : #if __VER >= 11 // __SYS_IDENTIFY
; 214  : 	m_iRandomOptItemId	= 0;
; 215  : #else	// __SYS_IDENTIFY
; 216  : 	m_nRandomOptItemId	= 0;
; 217  : #endif	// __SYS_IDENTIFY
; 218  : 
; 219  : 
; 220  : 	//	mulcom	BEGIN100405	  
; 221  : 	m_n64NewRandomOption	= 0;
; 222  : 	//	mulcom	END100405	  
; 223  : 
; 224  : 
; 225  : /*
; 226  : #ifdef __XPET2
; 227  : 	m_nMaxLevel = 0;	
; 228  : 	m_nLevel = 0;		
; 229  : 	m_dwHungry = 0;		
; 230  : 	m_dwFeeling = 0;	
; 231  : #endif // xPet2
; 232  : */
; 233  : 	/*
; 234  : #ifdef __GIFTBOX0213
; 235  : #ifdef __WORLDSERVER
; 236  : 	m_nQueryGiftbox	= 0;
; 237  : #endif	// __WORLDSERVER
; 238  : #endif	// __GIFTBOX0213
; 239  : 	*/
; 240  : #if __VER >= 9	// __PET_0410
; 241  : 	m_pPet	= NULL;
; 242  : #endif	// __PET_0410
; 243  : #if __VER >= 15 // __PETVIS
; 244  : 	m_bTranformVisPet = FALSE;
; 245  : #endif // __PETVIS
; 246  : 
; 247  : }

  0004f	8b 4c 24 0c	 mov	 ecx, DWORD PTR __$EHRec$[esp+24]
  00053	89 9e 84 00 00
	00		 mov	 DWORD PTR [esi+132], ebx
  00059	89 5e 70	 mov	 DWORD PTR [esi+112], ebx
  0005c	88 5e 78	 mov	 BYTE PTR [esi+120], bl
  0005f	89 5e 74	 mov	 DWORD PTR [esi+116], ebx
  00062	88 9e 82 00 00
	00		 mov	 BYTE PTR [esi+130], bl
  00068	88 9e 88 00 00
	00		 mov	 BYTE PTR [esi+136], bl
  0006e	89 9e 8c 00 00
	00		 mov	 DWORD PTR [esi+140], ebx
  00074	89 9e 90 00 00
	00		 mov	 DWORD PTR [esi+144], ebx
  0007a	89 9e 94 00 00
	00		 mov	 DWORD PTR [esi+148], ebx
  00080	89 9e ac 00 00
	00		 mov	 DWORD PTR [esi+172], ebx
  00086	89 9e b0 00 00
	00		 mov	 DWORD PTR [esi+176], ebx
  0008c	89 9e 98 00 00
	00		 mov	 DWORD PTR [esi+152], ebx
  00092	89 9e 9c 00 00
	00		 mov	 DWORD PTR [esi+156], ebx
  00098	89 9e a0 00 00
	00		 mov	 DWORD PTR [esi+160], ebx
  0009e	89 9e a4 00 00
	00		 mov	 DWORD PTR [esi+164], ebx
  000a4	89 9e a8 00 00
	00		 mov	 DWORD PTR [esi+168], ebx
  000aa	89 9e b4 00 00
	00		 mov	 DWORD PTR [esi+180], ebx
  000b0	66 c7 86 80 00
	00 00 01 00	 mov	 WORD PTR [esi+128], 1
  000b9	c7 46 7c ff ff
	ff ff		 mov	 DWORD PTR [esi+124], -1
  000c0	8b c6		 mov	 eax, esi
  000c2	5e		 pop	 esi
  000c3	5b		 pop	 ebx
  000c4	64 89 0d 00 00
	00 00		 mov	 DWORD PTR fs:__except_list, ecx
  000cb	83 c4 10	 add	 esp, 16			; 00000010H
  000ce	c3		 ret	 0
_TEXT	ENDS
;	COMDAT text$x
text$x	SEGMENT
$L237155:
  00000	8b 4d f0	 mov	 ecx, DWORD PTR _this$[ebp]
  00003	e9 00 00 00 00	 jmp	 ??1CItemBase@@UAE@XZ	; CItemBase::~CItemBase
__ehhandler$??0CItemElem@@QAE@XZ:
  00008	b8 00 00 00 00	 mov	 eax, OFFSET FLAT:$T237168
  0000d	e9 00 00 00 00	 jmp	 ___CxxFrameHandler
text$x	ENDS
??0CItemElem@@QAE@XZ ENDP				; CItemElem::CItemElem
PUBLIC	??1CItemElem@@UAE@XZ				; CItemElem::~CItemElem
EXTRN	??1CPiercing@@UAE@XZ:NEAR			; CPiercing::~CPiercing
;	COMDAT xdata$x
; File c:\documents and settings\test\mes documents\source\virtuos_v17\build\program\_common\item.h
xdata$x	SEGMENT
$T237190 DD	0ffffffffH
	DD	FLAT:$L237182
	DD	00H
	DD	FLAT:$L237183
$T237188 DD	019930520H
	DD	02H
	DD	FLAT:$T237190
	DD	2 DUP(00H)
	DD	2 DUP(00H)
; Function compile flags: /Ogty
; File c:\documents and settings\test\mes documents\source\virtuos_v17\build\program\_common\item.cpp
xdata$x	ENDS
;	COMDAT ??1CItemElem@@UAE@XZ
_TEXT	SEGMENT
_this$ = -16						; size = 4
__$EHRec$ = -12						; size = 12
??1CItemElem@@UAE@XZ PROC NEAR				; CItemElem::~CItemElem, COMDAT
; _this$ = ecx

; 250  : {

  00000	6a ff		 push	 -1
  00002	68 00 00 00 00	 push	 __ehhandler$??1CItemElem@@UAE@XZ
  00007	64 a1 00 00 00
	00		 mov	 eax, DWORD PTR fs:__except_list
  0000d	50		 push	 eax
  0000e	64 89 25 00 00
	00 00		 mov	 DWORD PTR fs:__except_list, esp
  00015	51		 push	 ecx
  00016	56		 push	 esi
  00017	8b f1		 mov	 esi, ecx
  00019	89 74 24 04	 mov	 DWORD PTR _this$[esp+20], esi
  0001d	c7 06 00 00 00
	00		 mov	 DWORD PTR [esi], OFFSET FLAT:??_7CItemElem@@6B@

; 251  : #if __VER >= 9	// __PET_0410
; 252  : 	SAFE_DELETE( m_pPet );

  00023	8b 8e a8 00 00
	00		 mov	 ecx, DWORD PTR [esi+168]
  00029	85 c9		 test	 ecx, ecx
  0002b	c7 44 24 10 01
	00 00 00	 mov	 DWORD PTR __$EHRec$[esp+28], 1
  00033	74 10		 je	 SHORT $L234464
  00035	8b 01		 mov	 eax, DWORD PTR [ecx]
  00037	6a 01		 push	 1
  00039	ff 10		 call	 DWORD PTR [eax]
  0003b	c7 86 a8 00 00
	00 00 00 00 00	 mov	 DWORD PTR [esi+168], 0
$L234464:

; 253  : #endif	// __PET_0410
; 254  : }

  00045	8d 4e 3c	 lea	 ecx, DWORD PTR [esi+60]
  00048	c6 44 24 10 00	 mov	 BYTE PTR __$EHRec$[esp+28], 0
  0004d	e8 00 00 00 00	 call	 ??1CPiercing@@UAE@XZ	; CPiercing::~CPiercing
  00052	8b 4c 24 08	 mov	 ecx, DWORD PTR __$EHRec$[esp+20]
  00056	c7 06 00 00 00
	00		 mov	 DWORD PTR [esi], OFFSET FLAT:??_7CItemBase@@6B@
  0005c	5e		 pop	 esi
  0005d	64 89 0d 00 00
	00 00		 mov	 DWORD PTR fs:__except_list, ecx
  00064	83 c4 10	 add	 esp, 16			; 00000010H
  00067	c3		 ret	 0
_TEXT	ENDS
;	COMDAT text$x
text$x	SEGMENT
$L237182:
  00000	8b 4d f0	 mov	 ecx, DWORD PTR _this$[ebp]
  00003	e9 00 00 00 00	 jmp	 ??1CItemBase@@UAE@XZ	; CItemBase::~CItemBase
$L237183:
  00008	8b 4d f0	 mov	 ecx, DWORD PTR _this$[ebp]
  0000b	83 c1 3c	 add	 ecx, 60			; 0000003cH
  0000e	e9 00 00 00 00	 jmp	 ??1CPiercing@@UAE@XZ	; CPiercing::~CPiercing
__ehhandler$??1CItemElem@@UAE@XZ:
  00013	b8 00 00 00 00	 mov	 eax, OFFSET FLAT:$T237188
  00018	e9 00 00 00 00	 jmp	 ___CxxFrameHandler
text$x	ENDS
??1CItemElem@@UAE@XZ ENDP				; CItemElem::~CItemElem
EXTRN	?Clear@CPiercing@@QAEXXZ:NEAR			; CPiercing::Clear
; Function compile flags: /Ogty
;	COMDAT ?Empty@CItemElem@@UAEXXZ
_TEXT	SEGMENT
?Empty@CItemElem@@UAEXXZ PROC NEAR			; CItemElem::Empty, COMDAT
; _this$ = ecx

; 257  : {

  00000	53		 push	 ebx
  00001	56		 push	 esi
  00002	8b f1		 mov	 esi, ecx

; 258  : 	CItemBase::Empty();
; 259  : #if __VER >= 9
; 260  : 	SAFE_DELETE( m_pPet );

  00004	8b 8e a8 00 00
	00		 mov	 ecx, DWORD PTR [esi+168]
  0000a	33 db		 xor	 ebx, ebx
  0000c	3b cb		 cmp	 ecx, ebx
  0000e	88 5e 14	 mov	 BYTE PTR [esi+20], bl
  00011	89 5e 0c	 mov	 DWORD PTR [esi+12], ebx
  00014	89 5e 10	 mov	 DWORD PTR [esi+16], ebx
  00017	74 0c		 je	 SHORT $L234472
  00019	8b 01		 mov	 eax, DWORD PTR [ecx]
  0001b	6a 01		 push	 1
  0001d	ff 10		 call	 DWORD PTR [eax]
  0001f	89 9e a8 00 00
	00		 mov	 DWORD PTR [esi+168], ebx
$L234472:

; 261  : #endif	// __PET_0410
; 262  : 	m_piercing.Clear();

  00025	8d 4e 3c	 lea	 ecx, DWORD PTR [esi+60]
  00028	5e		 pop	 esi
  00029	5b		 pop	 ebx
  0002a	e9 00 00 00 00	 jmp	 ?Clear@CPiercing@@QAEXXZ ; CPiercing::Clear
?Empty@CItemElem@@UAEXXZ ENDP				; CItemElem::Empty
_TEXT	ENDS
EXTRN	??2@YAPAXI@Z:NEAR				; operator new
EXTRN	??4CPiercing@@QAEAAV0@ABV0@@Z:NEAR		; CPiercing::operator=
EXTRN	??0CPet@@QAE@XZ:NEAR				; CPet::CPet
EXTRN	??4CPet@@QAEAAV0@AAV0@@Z:NEAR			; CPet::operator=
;	COMDAT xdata$x
xdata$x	SEGMENT
$T237244 DD	0ffffffffH
	DD	FLAT:$L237220
$T237241 DD	019930520H
	DD	01H
	DD	FLAT:$T237244
	DD	2 DUP(00H)
	DD	2 DUP(00H)
; Function compile flags: /Ogty
xdata$x	ENDS
;	COMDAT ??4CItemElem@@UAEAAV0@AAV0@@Z
_TEXT	SEGMENT
__$EHRec$ = -12						; size = 12
$T237217 = 8						; size = 4
_ie$ = 8						; size = 4
??4CItemElem@@UAEAAV0@AAV0@@Z PROC NEAR			; CItemElem::operator=, COMDAT
; _this$ = ecx

; 279  : {

  00000	64 a1 00 00 00
	00		 mov	 eax, DWORD PTR fs:__except_list
  00006	6a ff		 push	 -1
  00008	68 00 00 00 00	 push	 __ehhandler$??4CItemElem@@UAEAAV0@AAV0@@Z
  0000d	50		 push	 eax
  0000e	64 89 25 00 00
	00 00		 mov	 DWORD PTR fs:__except_list, esp
  00015	56		 push	 esi
  00016	57		 push	 edi

; 280  : 	CItemBase::operator =( ie );

  00017	8b 7c 24 18	 mov	 edi, DWORD PTR _ie$[esp+16]
  0001b	8d 47 14	 lea	 eax, DWORD PTR [edi+20]
  0001e	8b f1		 mov	 esi, ecx
  00020	2b c8		 sub	 ecx, eax
  00022	8d 51 14	 lea	 edx, DWORD PTR [ecx+20]
$L237224:
  00025	8a 08		 mov	 cl, BYTE PTR [eax]
  00027	88 0c 02	 mov	 BYTE PTR [edx+eax], cl
  0002a	40		 inc	 eax
  0002b	84 c9		 test	 cl, cl
  0002d	75 f6		 jne	 SHORT $L237224
  0002f	8b 57 0c	 mov	 edx, DWORD PTR [edi+12]
  00032	89 56 0c	 mov	 DWORD PTR [esi+12], edx
  00035	8b 47 38	 mov	 eax, DWORD PTR [edi+56]
  00038	89 46 38	 mov	 DWORD PTR [esi+56], eax

; 281  : 
; 282  : 	SetTexture( ie.GetTexture() );
; 283  : 
; 284  : 	m_nItemNum             = ie.m_nItemNum;

  0003b	66 8b 8f 80 00
	00 00		 mov	 cx, WORD PTR [edi+128]
  00042	66 89 8e 80 00
	00 00		 mov	 WORD PTR [esi+128], cx

; 285  : 	m_nRepairNumber        = ie.m_nRepairNumber;

  00049	8a 57 78	 mov	 dl, BYTE PTR [edi+120]
  0004c	88 56 78	 mov	 BYTE PTR [esi+120], dl

; 286  : 	m_nHitPoint            = ie.m_nHitPoint;

  0004f	8b 47 7c	 mov	 eax, DWORD PTR [edi+124]
  00052	89 46 7c	 mov	 DWORD PTR [esi+124], eax

; 287  : 	m_nRepair				= ie.m_nRepair;

  00055	8b 4f 74	 mov	 ecx, DWORD PTR [edi+116]
  00058	89 4e 74	 mov	 DWORD PTR [esi+116], ecx

; 288  : 	m_byFlag               = ie.m_byFlag;

  0005b	8a 97 82 00 00
	00		 mov	 dl, BYTE PTR [edi+130]
  00061	88 96 82 00 00
	00		 mov	 BYTE PTR [esi+130], dl

; 289  : 	m_nAbilityOption       = ie.m_nAbilityOption;

  00067	8b 47 70	 mov	 eax, DWORD PTR [edi+112]
  0006a	89 46 70	 mov	 DWORD PTR [esi+112], eax

; 290  : 	m_idGuild              = ie.m_idGuild;

  0006d	8b 8f 84 00 00
	00		 mov	 ecx, DWORD PTR [edi+132]
  00073	89 8e 84 00 00
	00		 mov	 DWORD PTR [esi+132], ecx

; 291  : 	m_bItemResist          = ie.m_bItemResist;

  00079	8a 97 88 00 00
	00		 mov	 dl, BYTE PTR [edi+136]
  0007f	88 96 88 00 00
	00		 mov	 BYTE PTR [esi+136], dl

; 292  : 	m_nResistAbilityOption = ie.m_nResistAbilityOption;

  00085	8b 87 8c 00 00
	00		 mov	 eax, DWORD PTR [edi+140]
  0008b	89 86 8c 00 00
	00		 mov	 DWORD PTR [esi+140], eax

; 293  : 	m_nResistSMItemId      = ie.m_nResistSMItemId;

  00091	8b 8f 90 00 00
	00		 mov	 ecx, DWORD PTR [edi+144]
  00097	89 8e 90 00 00
	00		 mov	 DWORD PTR [esi+144], ecx

; 294  : 	m_dwKeepTime           = ie.m_dwKeepTime;

  0009d	8b 97 b0 00 00
	00		 mov	 edx, DWORD PTR [edi+176]

; 295  : 	m_piercing	= ie.m_piercing;

  000a3	8d 47 3c	 lea	 eax, DWORD PTR [edi+60]
  000a6	50		 push	 eax
  000a7	8d 4e 3c	 lea	 ecx, DWORD PTR [esi+60]
  000aa	89 96 b0 00 00
	00		 mov	 DWORD PTR [esi+176], edx
  000b0	e8 00 00 00 00	 call	 ??4CPiercing@@QAEAAV0@ABV0@@Z ; CPiercing::operator=

; 296  : 	m_bCharged	           = ie.m_bCharged;

  000b5	8b 8f ac 00 00
	00		 mov	 ecx, DWORD PTR [edi+172]
  000bb	89 8e ac 00 00
	00		 mov	 DWORD PTR [esi+172], ecx

; 297  : #if __VER >= 11 // __SYS_IDENTIFY
; 298  : 	m_iRandomOptItemId     = ie.GetRandomOptItemId();

  000c1	8b 87 98 00 00
	00		 mov	 eax, DWORD PTR [edi+152]
  000c7	8b 8f 9c 00 00
	00		 mov	 ecx, DWORD PTR [edi+156]
  000cd	89 8e 9c 00 00
	00		 mov	 DWORD PTR [esi+156], ecx
  000d3	89 86 98 00 00
	00		 mov	 DWORD PTR [esi+152], eax

; 299  : #else	// __SYS_IDENTIFY
; 300  : 	m_nRandomOptItemId     = ie.m_nRandomOptItemId;
; 301  : #endif	// __SYS_IDENTIFY
; 302  : 
; 303  : 	//	mulcom	BEGIN100405	  
; 304  : 	m_n64NewRandomOption	= ie.GetNewRandomOption();

  000d9	8b 8f a4 00 00
	00		 mov	 ecx, DWORD PTR [edi+164]
  000df	8b 87 a0 00 00
	00		 mov	 eax, DWORD PTR [edi+160]
  000e5	89 8e a4 00 00
	00		 mov	 DWORD PTR [esi+164], ecx

; 305  : 	//	mulcom	END100405	  
; 306  : 
; 307  : #if __VER >= 9	// __PET_0410
; 308  : 	SAFE_DELETE( m_pPet );

  000eb	8b 8e a8 00 00
	00		 mov	 ecx, DWORD PTR [esi+168]
  000f1	85 c9		 test	 ecx, ecx
  000f3	89 86 a0 00 00
	00		 mov	 DWORD PTR [esi+160], eax
  000f9	74 10		 je	 SHORT $L234488
  000fb	8b 11		 mov	 edx, DWORD PTR [ecx]
  000fd	6a 01		 push	 1
  000ff	ff 12		 call	 DWORD PTR [edx]
  00101	c7 86 a8 00 00
	00 00 00 00 00	 mov	 DWORD PTR [esi+168], 0
$L234488:

; 309  : 	if( ie.m_pPet )

  0010b	8b 87 a8 00 00
	00		 mov	 eax, DWORD PTR [edi+168]
  00111	85 c0		 test	 eax, eax
  00113	74 41		 je	 SHORT $L234492

; 310  : 	{
; 311  : 		m_pPet	= new CPet;

  00115	6a 28		 push	 40			; 00000028H
  00117	e8 00 00 00 00	 call	 ??2@YAPAXI@Z		; operator new
  0011c	83 c4 04	 add	 esp, 4
  0011f	89 44 24 18	 mov	 DWORD PTR $T237217[esp+16], eax
  00123	85 c0		 test	 eax, eax
  00125	c7 44 24 10 00
	00 00 00	 mov	 DWORD PTR __$EHRec$[esp+28], 0
  0012d	74 09		 je	 SHORT $L237218
  0012f	8b c8		 mov	 ecx, eax
  00131	e8 00 00 00 00	 call	 ??0CPet@@QAE@XZ		; CPet::CPet
  00136	eb 02		 jmp	 SHORT $L237219
$L237218:
  00138	33 c0		 xor	 eax, eax
$L237219:
  0013a	89 86 a8 00 00
	00		 mov	 DWORD PTR [esi+168], eax

; 312  : 		*m_pPet	= *ie.m_pPet;

  00140	8b 8f a8 00 00
	00		 mov	 ecx, DWORD PTR [edi+168]
  00146	51		 push	 ecx
  00147	8b c8		 mov	 ecx, eax
  00149	c7 44 24 14 ff
	ff ff ff	 mov	 DWORD PTR __$EHRec$[esp+32], -1
  00151	e8 00 00 00 00	 call	 ??4CPet@@QAEAAV0@AAV0@@Z ; CPet::operator=
$L234492:

; 313  : 	}
; 314  : #endif	// __PET_0410
; 315  : #if __VER >= 15 // __PETVIS
; 316  : 	m_bTranformVisPet		= ie.m_bTranformVisPet;

  00156	8b 97 b4 00 00
	00		 mov	 edx, DWORD PTR [edi+180]

; 317  : #endif // __PETVIS
; 318  : 
; 319  : 	return *this;
; 320  : }

  0015c	8b 4c 24 08	 mov	 ecx, DWORD PTR __$EHRec$[esp+20]
  00160	89 96 b4 00 00
	00		 mov	 DWORD PTR [esi+180], edx
  00166	5f		 pop	 edi
  00167	8b c6		 mov	 eax, esi
  00169	64 89 0d 00 00
	00 00		 mov	 DWORD PTR fs:__except_list, ecx
  00170	5e		 pop	 esi
  00171	83 c4 0c	 add	 esp, 12			; 0000000cH
  00174	c2 04 00	 ret	 4
_TEXT	ENDS
;	COMDAT text$x
text$x	SEGMENT
$L237220:
  00000	8b 45 04	 mov	 eax, DWORD PTR $T237217[ebp-4]
  00003	50		 push	 eax
  00004	e8 00 00 00 00	 call	 ??3@YAXPAX@Z		; operator delete
  00009	59		 pop	 ecx
  0000a	c3		 ret	 0
__ehhandler$??4CItemElem@@UAEAAV0@AAV0@@Z:
  0000b	b8 00 00 00 00	 mov	 eax, OFFSET FLAT:$T237241
  00010	e9 00 00 00 00	 jmp	 ___CxxFrameHandler
text$x	ENDS
??4CItemElem@@UAEAAV0@AAV0@@Z ENDP			; CItemElem::operator=
PUBLIC	?GetPiercingAvail@CItemElem@@QAEXPAU_PIERCINGAVAIL@@@Z ; CItemElem::GetPiercingAvail
EXTRN	?GetPiercingAvail@CPiercingAvail@@QAEPAU_PIERCINGAVAIL@@K@Z:NEAR ; CPiercingAvail::GetPiercingAvail
EXTRN	?GetInstance@CPiercingAvail@@SAPAV1@XZ:NEAR	; CPiercingAvail::GetInstance
; Function compile flags: /Ogty
;	COMDAT ?GetPiercingAvail@CItemElem@@QAEXPAU_PIERCINGAVAIL@@@Z
_TEXT	SEGMENT
_i$234506 = -8						; size = 4
tv192 = -4						; size = 4
_j$234512 = 8						; size = 4
_pPiercingAvail$ = 8					; size = 4
?GetPiercingAvail@CItemElem@@QAEXPAU_PIERCINGAVAIL@@@Z PROC NEAR ; CItemElem::GetPiercingAvail, COMDAT
; _this$ = ecx

; 332  : {

  00000	83 ec 08	 sub	 esp, 8
  00003	53		 push	 ebx

; 333  : 	for( int i = 0; i < GetPiercingSize(); i++ )

  00004	8d 59 3c	 lea	 ebx, DWORD PTR [ecx+60]
  00007	57		 push	 edi
  00008	33 ff		 xor	 edi, edi
  0000a	8b cb		 mov	 ecx, ebx
  0000c	89 7c 24 08	 mov	 DWORD PTR _i$234506[esp+16], edi
  00010	89 5c 24 0c	 mov	 DWORD PTR tv192[esp+16], ebx
  00014	e8 00 00 00 00	 call	 ?GetPiercingSize@CPiercing@@QAEHXZ ; CPiercing::GetPiercingSize
  00019	85 c0		 test	 eax, eax
  0001b	0f 8e 9e 00 00
	00		 jle	 $L234509
  00021	55		 push	 ebp
  00022	56		 push	 esi
  00023	8b 74 24 1c	 mov	 esi, DWORD PTR _pPiercingAvail$[esp+20]
$L234507:

; 334  : 	{
; 335  : 		PPIERCINGAVAIL ptr	= CPiercingAvail::GetInstance()->GetPiercingAvail( GetPiercingItem( i ) );

  00027	57		 push	 edi
  00028	8b cb		 mov	 ecx, ebx
  0002a	e8 00 00 00 00	 call	 ?GetPiercingItem@CPiercing@@QAEKH@Z ; CPiercing::GetPiercingItem
  0002f	50		 push	 eax
  00030	e8 00 00 00 00	 call	 ?GetInstance@CPiercingAvail@@SAPAV1@XZ ; CPiercingAvail::GetInstance
  00035	8b c8		 mov	 ecx, eax
  00037	e8 00 00 00 00	 call	 ?GetPiercingAvail@CPiercingAvail@@QAEPAU_PIERCINGAVAIL@@K@Z ; CPiercingAvail::GetPiercingAvail
  0003c	8b e8		 mov	 ebp, eax

; 336  : 		if( ptr )

  0003e	85 ed		 test	 ebp, ebp
  00040	74 67		 je	 SHORT $L234508

; 337  : 		{
; 338  : 			for( int j = 0; j < ptr->nSize; j++ )

  00042	8b 45 04	 mov	 eax, DWORD PTR [ebp+4]
  00045	85 c0		 test	 eax, eax
  00047	c7 44 24 1c 00
	00 00 00	 mov	 DWORD PTR _j$234512[esp+20], 0
  0004f	7e 58		 jle	 SHORT $L234508
  00051	8d 7d 08	 lea	 edi, DWORD PTR [ebp+8]
$L237265:

; 339  : 			{
; 340  : 				int nFind	= -1;
; 341  : 				for( int k = 0; k < pPiercingAvail->nSize; k++ )

  00054	8b 5e 04	 mov	 ebx, DWORD PTR [esi+4]
  00057	33 c9		 xor	 ecx, ecx
  00059	85 db		 test	 ebx, ebx
  0005b	7e 18		 jle	 SHORT $L237264
  0005d	8b 07		 mov	 eax, DWORD PTR [edi]
  0005f	8d 56 08	 lea	 edx, DWORD PTR [esi+8]
$L234518:

; 342  : 				{
; 343  : 					if(  pPiercingAvail->anDstParam[k] == ptr->anDstParam[j] )

  00062	39 02		 cmp	 DWORD PTR [edx], eax
  00064	74 0b		 je	 SHORT $L237260
  00066	41		 inc	 ecx
  00067	83 c2 04	 add	 edx, 4
  0006a	3b 4e 04	 cmp	 ecx, DWORD PTR [esi+4]
  0006d	7c f3		 jl	 SHORT $L234518
  0006f	eb 04		 jmp	 SHORT $L237264
$L237260:

; 344  : 					{
; 345  : 						nFind	= k;
; 346  : 						break;
; 347  : 					}
; 348  : 				}
; 349  : 				if( nFind < 0 )

  00071	85 c9		 test	 ecx, ecx
  00073	7d 06		 jge	 SHORT $L237266
$L237264:

; 350  : 					nFind	= pPiercingAvail->nSize++;

  00075	8b cb		 mov	 ecx, ebx
  00077	43		 inc	 ebx
  00078	89 5e 04	 mov	 DWORD PTR [esi+4], ebx
$L237266:

; 351  : 				pPiercingAvail->anDstParam[nFind]		= ptr->anDstParam[j];

  0007b	8b 07		 mov	 eax, DWORD PTR [edi]
  0007d	89 44 8e 08	 mov	 DWORD PTR [esi+ecx*4+8], eax

; 352  : 				pPiercingAvail->anAdjParam[nFind]		+= ptr->anAdjParam[j];

  00081	8b 97 80 00 00
	00		 mov	 edx, DWORD PTR [edi+128]
  00087	01 94 8e 88 00
	00 00		 add	 DWORD PTR [esi+ecx*4+136], edx
  0008e	8b 44 24 1c	 mov	 eax, DWORD PTR _j$234512[esp+20]
  00092	8b 4d 04	 mov	 ecx, DWORD PTR [ebp+4]
  00095	40		 inc	 eax
  00096	83 c7 04	 add	 edi, 4
  00099	3b c1		 cmp	 eax, ecx
  0009b	89 44 24 1c	 mov	 DWORD PTR _j$234512[esp+20], eax
  0009f	7c b3		 jl	 SHORT $L237265
  000a1	8b 7c 24 10	 mov	 edi, DWORD PTR _i$234506[esp+24]
  000a5	8b 5c 24 14	 mov	 ebx, DWORD PTR tv192[esp+24]
$L234508:
  000a9	47		 inc	 edi
  000aa	8b cb		 mov	 ecx, ebx
  000ac	89 7c 24 10	 mov	 DWORD PTR _i$234506[esp+24], edi
  000b0	e8 00 00 00 00	 call	 ?GetPiercingSize@CPiercing@@QAEHXZ ; CPiercing::GetPiercingSize
  000b5	3b f8		 cmp	 edi, eax
  000b7	0f 8c 6a ff ff
	ff		 jl	 $L234507
  000bd	5e		 pop	 esi
  000be	5d		 pop	 ebp
$L234509:
  000bf	5f		 pop	 edi
  000c0	5b		 pop	 ebx

; 353  : 			}
; 354  : 		}
; 355  : 	}
; 356  : }

  000c1	83 c4 08	 add	 esp, 8
  000c4	c2 04 00	 ret	 4
?GetPiercingAvail@CItemElem@@QAEXPAU_PIERCINGAVAIL@@@Z ENDP ; CItemElem::GetPiercingAvail
_TEXT	ENDS
PUBLIC	?IsDiceRefineryAble@CItemElem@@SAHPAUItemProp@@@Z ; CItemElem::IsDiceRefineryAble
; Function compile flags: /Ogty
;	COMDAT ?IsDiceRefineryAble@CItemElem@@SAHPAUItemProp@@@Z
_TEXT	SEGMENT
_pProp$ = 8						; size = 4
?IsDiceRefineryAble@CItemElem@@SAHPAUItemProp@@@Z PROC NEAR ; CItemElem::IsDiceRefineryAble, COMDAT

; 361  : 	if( !pProp )

  00000	8b 4c 24 04	 mov	 ecx, DWORD PTR _pProp$[esp-4]
  00004	85 c9		 test	 ecx, ecx

; 362  : 		return FALSE;

  00006	74 27		 je	 SHORT $L237278

; 363  : 
; 364  : #ifdef __NEW_ITEM_VARUNA
; 365  : 	if( pProp->IsBaruna() )

  00008	8b 81 00 02 00
	00		 mov	 eax, DWORD PTR [ecx+512]
  0000e	83 f8 04	 cmp	 eax, 4
  00011	72 05		 jb	 SHORT $L234527
  00013	83 f8 08	 cmp	 eax, 8

; 366  : 		return FALSE;

  00016	76 17		 jbe	 SHORT $L237278
$L234527:

; 367  : #endif // __NEW_ITEM_VARUNA
; 368  : 
; 369  : 	if( pProp->dwItemKind2 == IK2_ARMOR ||
; 370  : 		pProp->dwItemKind2 == IK2_WEAPON_MAGIC ||
; 371  : 		pProp->dwItemKind2 == IK2_WEAPON_DIRECT ||
; 372  : 		pProp->dwItemKind2 == IK2_ARMORETC )

  00018	8b 41 74	 mov	 eax, DWORD PTR [ecx+116]
  0001b	83 f8 07	 cmp	 eax, 7
  0001e	74 12		 je	 SHORT $L234529
  00020	83 f8 03	 cmp	 eax, 3
  00023	74 0d		 je	 SHORT $L234529
  00025	83 f8 02	 cmp	 eax, 2
  00028	74 08		 je	 SHORT $L234529
  0002a	83 f8 08	 cmp	 eax, 8
  0002d	74 03		 je	 SHORT $L234529
$L237278:

; 374  : 					
; 375  : 	return FALSE;

  0002f	33 c0		 xor	 eax, eax

; 376  : }

  00031	c3		 ret	 0
$L234529:

; 373  : 		return TRUE;

  00032	b8 01 00 00 00	 mov	 eax, 1

; 376  : }

  00037	c3		 ret	 0
?IsDiceRefineryAble@CItemElem@@SAHPAUItemProp@@@Z ENDP	; CItemElem::IsDiceRefineryAble
_TEXT	ENDS
PUBLIC	?IsEleRefineryAble@CItemElem@@SAHPAUItemProp@@@Z ; CItemElem::IsEleRefineryAble
; Function compile flags: /Ogty
;	COMDAT ?IsEleRefineryAble@CItemElem@@SAHPAUItemProp@@@Z
_TEXT	SEGMENT
_pProp$ = 8						; size = 4
?IsEleRefineryAble@CItemElem@@SAHPAUItemProp@@@Z PROC NEAR ; CItemElem::IsEleRefineryAble, COMDAT

; 381  : 	if( !pProp )

  00000	8b 44 24 04	 mov	 eax, DWORD PTR _pProp$[esp-4]
  00004	85 c0		 test	 eax, eax

; 382  : 		return FALSE;

  00006	74 23		 je	 SHORT $L237290

; 383  : 
; 384  : #ifdef __NEW_ITEM_VARUNA
; 385  : 	if( pProp->IsBaruna() )

  00008	8b 88 00 02 00
	00		 mov	 ecx, DWORD PTR [eax+512]
  0000e	83 f9 04	 cmp	 ecx, 4
  00011	72 05		 jb	 SHORT $L234534
  00013	83 f9 08	 cmp	 ecx, 8

; 386  : 		return FALSE;

  00016	76 13		 jbe	 SHORT $L237290
$L234534:

; 387  : #endif // __NEW_ITEM_VARUNA
; 388  : 
; 389  : 	if( pProp->dwItemKind3 == IK3_SUIT ||
; 390  : 		pProp->dwItemKind2 == IK2_WEAPON_MAGIC ||
; 391  : 		pProp->dwItemKind2 == IK2_WEAPON_DIRECT )

  00018	83 78 78 12	 cmp	 DWORD PTR [eax+120], 18	; 00000012H
  0001c	74 10		 je	 SHORT $L234536
  0001e	8b 40 74	 mov	 eax, DWORD PTR [eax+116]
  00021	83 f8 03	 cmp	 eax, 3
  00024	74 08		 je	 SHORT $L234536
  00026	83 f8 02	 cmp	 eax, 2
  00029	74 03		 je	 SHORT $L234536
$L237290:

; 393  : 	
; 394  : 	return FALSE;

  0002b	33 c0		 xor	 eax, eax

; 395  : }

  0002d	c3		 ret	 0
$L234536:

; 392  : 		return TRUE;

  0002e	b8 01 00 00 00	 mov	 eax, 1

; 395  : }

  00033	c3		 ret	 0
?IsEleRefineryAble@CItemElem@@SAHPAUItemProp@@@Z ENDP	; CItemElem::IsEleRefineryAble
_TEXT	ENDS
PUBLIC	??1CItem@@UAE@XZ				; CItem::~CItem
EXTRN	?Increment@CLayerdRespawner@@QAEXHHHH@Z:NEAR	; CLayerdRespawner::Increment
EXTRN	??1CCtrl@@UAE@XZ:NEAR				; CCtrl::~CCtrl
;	COMDAT xdata$x
; File c:\documents and settings\test\mes documents\source\virtuos_v17\build\program\_common\obj.h
xdata$x	SEGMENT
$T237318 DD	0ffffffffH
	DD	FLAT:$L237298
$T237316 DD	019930520H
	DD	01H
	DD	FLAT:$T237318
	DD	2 DUP(00H)
	DD	2 DUP(00H)
; Function compile flags: /Ogty
; File c:\documents and settings\test\mes documents\source\virtuos_v17\build\program\_common\item.cpp
xdata$x	ENDS
;	COMDAT ??1CItem@@UAE@XZ
_TEXT	SEGMENT
_this$ = -16						; size = 4
__$EHRec$ = -12						; size = 12
??1CItem@@UAE@XZ PROC NEAR				; CItem::~CItem, COMDAT
; _this$ = ecx

; 496  : {

  00000	6a ff		 push	 -1
  00002	68 00 00 00 00	 push	 __ehhandler$??1CItem@@UAE@XZ
  00007	64 a1 00 00 00
	00		 mov	 eax, DWORD PTR fs:__except_list
  0000d	50		 push	 eax
  0000e	64 89 25 00 00
	00 00		 mov	 DWORD PTR fs:__except_list, esp
  00015	51		 push	 ecx
  00016	56		 push	 esi
  00017	8b f1		 mov	 esi, ecx
  00019	89 74 24 04	 mov	 DWORD PTR _this$[esp+20], esi
  0001d	c7 06 00 00 00
	00		 mov	 DWORD PTR [esi], OFFSET FLAT:??_7CItem@@6B@

; 497  : 	SAFE_DELETE( m_pItemBase );

  00023	8b 8e 34 02 00
	00		 mov	 ecx, DWORD PTR [esi+564]
  00029	85 c9		 test	 ecx, ecx
  0002b	c7 44 24 10 00
	00 00 00	 mov	 DWORD PTR __$EHRec$[esp+28], 0
  00033	74 10		 je	 SHORT $L234583
  00035	8b 01		 mov	 eax, DWORD PTR [ecx]
  00037	6a 01		 push	 1
  00039	ff 10		 call	 DWORD PTR [eax]
  0003b	c7 86 34 02 00
	00 00 00 00 00	 mov	 DWORD PTR [esi+564], 0
$L234583:

; 498  : 	if( GetWorld() )

  00045	8b 86 6c 01 00
	00		 mov	 eax, DWORD PTR [esi+364]
  0004b	85 c0		 test	 eax, eax
  0004d	74 22		 je	 SHORT $L234587

; 499  : 	{
; 500  : 		#if !defined(__CLIENT)
; 501  : 		#ifdef __LAYER_1021
; 502  : 			GetWorld()->m_respawner.Increment( GetRespawn(), m_nRespawnType, FALSE, GetLayer() );

  0004f	8b 8e b8 01 00
	00		 mov	 ecx, DWORD PTR [esi+440]
  00055	8b 96 04 02 00
	00		 mov	 edx, DWORD PTR [esi+516]
  0005b	51		 push	 ecx
  0005c	8b 8e 08 02 00
	00		 mov	 ecx, DWORD PTR [esi+520]
  00062	6a 00		 push	 0
  00064	51		 push	 ecx
  00065	52		 push	 edx
  00066	8d 88 c0 30 08
	00		 lea	 ecx, DWORD PTR [eax+536768]
  0006c	e8 00 00 00 00	 call	 ?Increment@CLayerdRespawner@@QAEXHHHH@Z ; CLayerdRespawner::Increment
$L234587:

; 503  : 		#else	// __LAYER_1021
; 504  : 			GetWorld()->m_respawner.Increment( GetRespawn(), m_nRespawnType, FALSE );
; 505  : 		#endif	// __LAYER_1021
; 506  : 		#endif
; 507  : 	}
; 508  : }

  00071	8b ce		 mov	 ecx, esi
  00073	c7 44 24 10 ff
	ff ff ff	 mov	 DWORD PTR __$EHRec$[esp+28], -1
  0007b	e8 00 00 00 00	 call	 ??1CCtrl@@UAE@XZ	; CCtrl::~CCtrl
  00080	8b 4c 24 08	 mov	 ecx, DWORD PTR __$EHRec$[esp+20]
  00084	5e		 pop	 esi
  00085	64 89 0d 00 00
	00 00		 mov	 DWORD PTR fs:__except_list, ecx
  0008c	83 c4 10	 add	 esp, 16			; 00000010H
  0008f	c3		 ret	 0
_TEXT	ENDS
;	COMDAT text$x
text$x	SEGMENT
$L237298:
  00000	8b 4d f0	 mov	 ecx, DWORD PTR _this$[ebp]
  00003	e9 00 00 00 00	 jmp	 ??1CCtrl@@UAE@XZ	; CCtrl::~CCtrl
__ehhandler$??1CItem@@UAE@XZ:
  00008	b8 00 00 00 00	 mov	 eax, OFFSET FLAT:$T237316
  0000d	e9 00 00 00 00	 jmp	 ___CxxFrameHandler
text$x	ENDS
??1CItem@@UAE@XZ ENDP					; CItem::~CItem
PUBLIC	?SetSwapVisItem@CItemElem@@QAEXHH@Z		; CItemElem::SetSwapVisItem
; Function compile flags: /Ogty
;	COMDAT ?SetSwapVisItem@CItemElem@@QAEXHH@Z
_TEXT	SEGMENT
_tmTemp$ = 8						; size = 4
_nPos1$ = 8						; size = 4
_nPos2$ = 12						; size = 4
?SetSwapVisItem@CItemElem@@QAEXHH@Z PROC NEAR		; CItemElem::SetSwapVisItem, COMDAT
; _this$ = ecx

; 811  : {

  00000	56		 push	 esi

; 812  : 	int nSize = GetPiercingSize();

  00001	8d 71 3c	 lea	 esi, DWORD PTR [ecx+60]
  00004	57		 push	 edi
  00005	8b ce		 mov	 ecx, esi
  00007	e8 00 00 00 00	 call	 ?GetPiercingSize@CPiercing@@QAEHXZ ; CPiercing::GetPiercingSize

; 813  : 	if( nPos1 >= nSize || nPos2 >= nSize )

  0000c	8b 7c 24 0c	 mov	 edi, DWORD PTR _nPos1$[esp+4]
  00010	3b f8		 cmp	 edi, eax
  00012	7d 5a		 jge	 SHORT $L234712
  00014	53		 push	 ebx
  00015	8b 5c 24 14	 mov	 ebx, DWORD PTR _nPos2$[esp+8]
  00019	3b d8		 cmp	 ebx, eax
  0001b	7d 50		 jge	 SHORT $L237353
  0001d	55		 push	 ebp

; 814  : 		return;
; 815  : 
; 816  : 	DWORD dwTempId = GetPiercingItem( nPos1 );

  0001e	57		 push	 edi
  0001f	8b ce		 mov	 ecx, esi
  00021	e8 00 00 00 00	 call	 ?GetPiercingItem@CPiercing@@QAEKH@Z ; CPiercing::GetPiercingItem

; 817  : 	time_t tmTemp = GetVisKeepTime( nPos1 );

  00026	57		 push	 edi
  00027	8b ce		 mov	 ecx, esi
  00029	8b e8		 mov	 ebp, eax
  0002b	e8 00 00 00 00	 call	 ?GetVisKeepTime@CPiercing@@QAEJH@Z ; CPiercing::GetVisKeepTime

; 818  : 
; 819  : 	SetPiercingItem( nPos1, GetPiercingItem( nPos2 ) );

  00030	53		 push	 ebx
  00031	8b ce		 mov	 ecx, esi
  00033	89 44 24 18	 mov	 DWORD PTR _tmTemp$[esp+16], eax
  00037	e8 00 00 00 00	 call	 ?GetPiercingItem@CPiercing@@QAEKH@Z ; CPiercing::GetPiercingItem
  0003c	50		 push	 eax
  0003d	57		 push	 edi
  0003e	8b ce		 mov	 ecx, esi
  00040	e8 00 00 00 00	 call	 ?SetPiercingItem@CPiercing@@QAEXHK@Z ; CPiercing::SetPiercingItem

; 820  : 	SetVisKeepTime( nPos1, GetVisKeepTime( nPos2 ) );

  00045	53		 push	 ebx
  00046	8b ce		 mov	 ecx, esi
  00048	e8 00 00 00 00	 call	 ?GetVisKeepTime@CPiercing@@QAEJH@Z ; CPiercing::GetVisKeepTime
  0004d	50		 push	 eax
  0004e	57		 push	 edi
  0004f	8b ce		 mov	 ecx, esi
  00051	e8 00 00 00 00	 call	 ?SetVisKeepTime@CPiercing@@QAEXHJ@Z ; CPiercing::SetVisKeepTime

; 821  : 	SetPiercingItem( nPos2, dwTempId );

  00056	55		 push	 ebp
  00057	53		 push	 ebx
  00058	8b ce		 mov	 ecx, esi
  0005a	e8 00 00 00 00	 call	 ?SetPiercingItem@CPiercing@@QAEXHK@Z ; CPiercing::SetPiercingItem

; 822  : 	SetVisKeepTime( nPos2, tmTemp );

  0005f	8b 44 24 14	 mov	 eax, DWORD PTR _tmTemp$[esp+12]
  00063	50		 push	 eax
  00064	53		 push	 ebx
  00065	8b ce		 mov	 ecx, esi
  00067	e8 00 00 00 00	 call	 ?SetVisKeepTime@CPiercing@@QAEXHJ@Z ; CPiercing::SetVisKeepTime
  0006c	5d		 pop	 ebp
$L237353:
  0006d	5b		 pop	 ebx
$L234712:
  0006e	5f		 pop	 edi
  0006f	5e		 pop	 esi

; 823  : }

  00070	c2 08 00	 ret	 8
?SetSwapVisItem@CItemElem@@QAEXHH@Z ENDP		; CItemElem::SetSwapVisItem
_TEXT	ENDS
PUBLIC	??_C@_0BI@BEIFNGEL@GetItemProp?5range_error?$AA@ ; `string'
PUBLIC	?GetItemProp@CProject@@QAEPAUItemProp@@H@Z	; CProject::GetItemProp
;	COMDAT ??_C@_0BI@BEIFNGEL@GetItemProp?5range_error?$AA@
; File c:\documents and settings\test\mes documents\source\virtuos_v17\build\program\_common\data.h
CONST	SEGMENT
??_C@_0BI@BEIFNGEL@GetItemProp?5range_error?$AA@ DB 'GetItemProp range_er'
	DB	'ror', 00H					; `string'
; Function compile flags: /Ogty
; File c:\documents and settings\test\mes documents\source\virtuos_v17\build\program\_common\project.h
CONST	ENDS
;	COMDAT ?GetItemProp@CProject@@QAEPAUItemProp@@H@Z
_TEXT	SEGMENT
_nIndex$ = 8						; size = 4
?GetItemProp@CProject@@QAEPAUItemProp@@H@Z PROC NEAR	; CProject::GetItemProp, COMDAT
; _this$ = ecx

; 1364 : 	VERIFY_RANGE_ASSERT( nIndex, 0, m_aPropItem.GetSize(), "GetItemProp range_error", NULL );

  00000	8b 44 24 04	 mov	 eax, DWORD PTR _nIndex$[esp-4]
  00004	85 c0		 test	 eax, eax
  00006	7c 1a		 jl	 SHORT $L197914
  00008	8b 91 5c 02 00
	00		 mov	 edx, DWORD PTR [ecx+604]
  0000e	3b c2		 cmp	 eax, edx
  00010	7d 10		 jge	 SHORT $L197914

; 1365 : 	return m_aPropItem.GetAt( nIndex ); 

  00012	3b c2		 cmp	 eax, edx
  00014	73 28		 jae	 SHORT $L237378
  00016	8b 89 4c 02 00
	00		 mov	 ecx, DWORD PTR [ecx+588]
  0001c	8b 04 81	 mov	 eax, DWORD PTR [ecx+eax*4]

; 1366 : }

  0001f	c2 04 00	 ret	 4
$L197914:

; 1364 : 	VERIFY_RANGE_ASSERT( nIndex, 0, m_aPropItem.GetSize(), "GetItemProp range_error", NULL );

  00022	8b 91 5c 02 00
	00		 mov	 edx, DWORD PTR [ecx+604]
  00028	50		 push	 eax
  00029	52		 push	 edx
  0002a	6a 00		 push	 0
  0002c	68 00 00 00 00	 push	 OFFSET FLAT:??_C@_0BI@BEIFNGEL@GetItemProp?5range_error?$AA@
  00031	68 00 00 00 00	 push	 OFFSET FLAT:??_C@_0BM@HMFGHCP@?$CFs?5min?3?$CFd?0?5max?3?$CFd?0?5index?3?$CFd?$AA@
  00036	e8 00 00 00 00	 call	 ?Error@@YAPBDPBDZZ	; Error
  0003b	83 c4 14	 add	 esp, 20			; 00000014H
$L237378:
  0003e	33 c0		 xor	 eax, eax

; 1366 : }

  00040	c2 04 00	 ret	 4
?GetItemProp@CProject@@QAEPAUItemProp@@H@Z ENDP		; CProject::GetItemProp
_TEXT	ENDS
PUBLIC	??_C@_0BE@OHDBLHOM@GetText?5range_error?$AA@	; `string'
PUBLIC	??_C@_05KKCIMGE@error?$AA@			; `string'
PUBLIC	?GetText@CProject@@QAEPBDK@Z			; CProject::GetText
PUBLIC	??_C@_00CNPNBAHC@?$AA@				; `string'
;	COMDAT ??_C@_00CNPNBAHC@?$AA@
; File c:\documents and settings\test\mes documents\source\virtuos_v17\build\program\_common\data.h
CONST	SEGMENT
??_C@_00CNPNBAHC@?$AA@ DB 00H				; `string'
CONST	ENDS
;	COMDAT ??_C@_0BE@OHDBLHOM@GetText?5range_error?$AA@
CONST	SEGMENT
??_C@_0BE@OHDBLHOM@GetText?5range_error?$AA@ DB 'GetText range_error', 00H ; `string'
CONST	ENDS
;	COMDAT ??_C@_05KKCIMGE@error?$AA@
CONST	SEGMENT
??_C@_05KKCIMGE@error?$AA@ DB 'error', 00H		; `string'
; Function compile flags: /Ogty
; File c:\documents and settings\test\mes documents\source\virtuos_v17\build\program\_common\project.h
CONST	ENDS
;	COMDAT ?GetText@CProject@@QAEPBDK@Z
_TEXT	SEGMENT
_dwIndex$ = 8						; size = 4
?GetText@CProject@@QAEPBDK@Z PROC NEAR			; CProject::GetText, COMDAT
; _this$ = ecx

; 1402 : 	VERIFY_RANGE( (int)( dwIndex ), 0, m_colorText.GetSize(), "GetText range_error", "error" );

  00000	8b 44 24 04	 mov	 eax, DWORD PTR _dwIndex$[esp-4]
  00004	85 c0		 test	 eax, eax
  00006	7c 41		 jl	 SHORT $L197970
  00008	8b 91 c8 02 00
	00		 mov	 edx, DWORD PTR [ecx+712]
  0000e	3b c2		 cmp	 eax, edx
  00010	7d 37		 jge	 SHORT $L197970

; 1403 : 	if( m_colorText.GetAt( dwIndex ) == NULL )

  00012	3b c2		 cmp	 eax, edx
  00014	73 0c		 jae	 SHORT $L237406
  00016	8b 91 b8 02 00
	00		 mov	 edx, DWORD PTR [ecx+696]
  0001c	83 3c 82 00	 cmp	 DWORD PTR [edx+eax*4], 0
  00020	75 08		 jne	 SHORT $L197974
$L237406:

; 1404 : 		return "";

  00022	b8 00 00 00 00	 mov	 eax, OFFSET FLAT:??_C@_00CNPNBAHC@?$AA@

; 1406 : }

  00027	c2 04 00	 ret	 4
$L197974:

; 1405 : 	return m_colorText.GetAt( dwIndex )->lpszData; 

  0002a	3b 81 c8 02 00
	00		 cmp	 eax, DWORD PTR [ecx+712]
  00030	72 08		 jb	 SHORT $L237402
  00032	33 c0		 xor	 eax, eax
  00034	8b 40 04	 mov	 eax, DWORD PTR [eax+4]

; 1406 : }

  00037	c2 04 00	 ret	 4

; 1405 : 	return m_colorText.GetAt( dwIndex )->lpszData; 

$L237402:
  0003a	8b 89 b8 02 00
	00		 mov	 ecx, DWORD PTR [ecx+696]
  00040	8b 04 81	 mov	 eax, DWORD PTR [ecx+eax*4]
  00043	8b 40 04	 mov	 eax, DWORD PTR [eax+4]

; 1406 : }

  00046	c2 04 00	 ret	 4
$L197970:

; 1402 : 	VERIFY_RANGE( (int)( dwIndex ), 0, m_colorText.GetSize(), "GetText range_error", "error" );

  00049	8b 91 c8 02 00
	00		 mov	 edx, DWORD PTR [ecx+712]
  0004f	50		 push	 eax
  00050	52		 push	 edx
  00051	6a 00		 push	 0
  00053	68 00 00 00 00	 push	 OFFSET FLAT:??_C@_0BE@OHDBLHOM@GetText?5range_error?$AA@
  00058	68 00 00 00 00	 push	 OFFSET FLAT:??_C@_0BM@HMFGHCP@?$CFs?5min?3?$CFd?0?5max?3?$CFd?0?5index?3?$CFd?$AA@
  0005d	e8 00 00 00 00	 call	 ?Error@@YAPBDPBDZZ	; Error
  00062	83 c4 14	 add	 esp, 20			; 00000014H
  00065	b8 00 00 00 00	 mov	 eax, OFFSET FLAT:??_C@_05KKCIMGE@error?$AA@

; 1406 : }

  0006a	c2 04 00	 ret	 4
?GetText@CProject@@QAEPBDK@Z ENDP			; CProject::GetText
_TEXT	ENDS
PUBLIC	?GetPropA@CItemElem@@QAEPAUItemProp@@XZ		; CItemElem::GetPropA
; Function compile flags: /Ogty
; File c:\documents and settings\test\mes documents\source\virtuos_v17\build\program\_common\item.h
;	COMDAT ?GetPropA@CItemElem@@QAEPAUItemProp@@XZ
_TEXT	SEGMENT
?GetPropA@CItemElem@@QAEPAUItemProp@@XZ PROC NEAR	; CItemElem::GetPropA, COMDAT
; _this$ = ecx

; 229  : 	ItemProp*	GetProp()	{	return prj.GetItemProp( m_dwItemId );	}

  00000	8b 41 0c	 mov	 eax, DWORD PTR [ecx+12]
  00003	85 c0		 test	 eax, eax
  00005	8b 0d 5c 02 00
	00		 mov	 ecx, DWORD PTR ?prj@@3VCProject@@A+604
  0000b	7c 10		 jl	 SHORT $L237437
  0000d	3b c1		 cmp	 eax, ecx
  0000f	7d 0c		 jge	 SHORT $L237437
  00011	73 20		 jae	 SHORT $L237453
  00013	8b 0d 4c 02 00
	00		 mov	 ecx, DWORD PTR ?prj@@3VCProject@@A+588
  00019	8b 04 81	 mov	 eax, DWORD PTR [ecx+eax*4]
  0001c	c3		 ret	 0
$L237437:
  0001d	50		 push	 eax
  0001e	51		 push	 ecx
  0001f	6a 00		 push	 0
  00021	68 00 00 00 00	 push	 OFFSET FLAT:??_C@_0BI@BEIFNGEL@GetItemProp?5range_error?$AA@
  00026	68 00 00 00 00	 push	 OFFSET FLAT:??_C@_0BM@HMFGHCP@?$CFs?5min?3?$CFd?0?5max?3?$CFd?0?5index?3?$CFd?$AA@
  0002b	e8 00 00 00 00	 call	 ?Error@@YAPBDPBDZZ	; Error
  00030	83 c4 14	 add	 esp, 20			; 00000014H
$L237453:
  00033	33 c0		 xor	 eax, eax
  00035	c3		 ret	 0
?GetPropA@CItemElem@@QAEPAUItemProp@@XZ ENDP		; CItemElem::GetPropA
_TEXT	ENDS
PUBLIC	?IsTransformVisPet@CItemElem@@QAEHXZ		; CItemElem::IsTransformVisPet
; Function compile flags: /Ogty
;	COMDAT ?IsTransformVisPet@CItemElem@@QAEHXZ
_TEXT	SEGMENT
?IsTransformVisPet@CItemElem@@QAEHXZ PROC NEAR		; CItemElem::IsTransformVisPet, COMDAT
; _this$ = ecx

; 280  : 	BOOL	IsTransformVisPet() { return GetProp() && GetProp()->dwItemKind3 == IK3_PET && m_bTranformVisPet; }

  00000	56		 push	 esi
  00001	57		 push	 edi
  00002	8b f9		 mov	 edi, ecx
  00004	8b 47 0c	 mov	 eax, DWORD PTR [edi+12]
  00007	85 c0		 test	 eax, eax
  00009	8b 0d 5c 02 00
	00		 mov	 ecx, DWORD PTR ?prj@@3VCProject@@A+604
  0000f	7c 21		 jl	 SHORT $L237510
  00011	3b c1		 cmp	 eax, ecx
  00013	7d 1d		 jge	 SHORT $L237510
  00015	73 31		 jae	 SHORT $L237457
  00017	8b 35 4c 02 00
	00		 mov	 esi, DWORD PTR ?prj@@3VCProject@@A+588
  0001d	8b 14 86	 mov	 edx, DWORD PTR [esi+eax*4]
  00020	85 d2		 test	 edx, edx
  00022	74 24		 je	 SHORT $L237457
  00024	85 c0		 test	 eax, eax
  00026	7c 25		 jl	 SHORT $L237575
  00028	3b c1		 cmp	 eax, ecx
  0002a	7d 21		 jge	 SHORT $L237575
  0002c	73 35		 jae	 SHORT $L237589
  0002e	8b c2		 mov	 eax, edx
  00030	eb 33		 jmp	 SHORT $L237570
$L237510:
  00032	50		 push	 eax
  00033	51		 push	 ecx
  00034	6a 00		 push	 0
  00036	68 00 00 00 00	 push	 OFFSET FLAT:??_C@_0BI@BEIFNGEL@GetItemProp?5range_error?$AA@
  0003b	68 00 00 00 00	 push	 OFFSET FLAT:??_C@_0BM@HMFGHCP@?$CFs?5min?3?$CFd?0?5max?3?$CFd?0?5index?3?$CFd?$AA@
  00040	e8 00 00 00 00	 call	 ?Error@@YAPBDPBDZZ	; Error
  00045	83 c4 14	 add	 esp, 20			; 00000014H
$L237457:
  00048	5f		 pop	 edi
  00049	33 c0		 xor	 eax, eax
  0004b	5e		 pop	 esi
  0004c	c3		 ret	 0
$L237575:
  0004d	50		 push	 eax
  0004e	51		 push	 ecx
  0004f	6a 00		 push	 0
  00051	68 00 00 00 00	 push	 OFFSET FLAT:??_C@_0BI@BEIFNGEL@GetItemProp?5range_error?$AA@
  00056	68 00 00 00 00	 push	 OFFSET FLAT:??_C@_0BM@HMFGHCP@?$CFs?5min?3?$CFd?0?5max?3?$CFd?0?5index?3?$CFd?$AA@
  0005b	e8 00 00 00 00	 call	 ?Error@@YAPBDPBDZZ	; Error
  00060	83 c4 14	 add	 esp, 20			; 00000014H
$L237589:
  00063	33 c0		 xor	 eax, eax
$L237570:
  00065	83 78 78 64	 cmp	 DWORD PTR [eax+120], 100 ; 00000064H
  00069	75 dd		 jne	 SHORT $L237457
  0006b	8b 87 b4 00 00
	00		 mov	 eax, DWORD PTR [edi+180]
  00071	85 c0		 test	 eax, eax
  00073	74 d3		 je	 SHORT $L237457
  00075	5f		 pop	 edi
  00076	b8 01 00 00 00	 mov	 eax, 1
  0007b	5e		 pop	 esi
  0007c	c3		 ret	 0
?IsTransformVisPet@CItemElem@@QAEHXZ ENDP		; CItemElem::IsTransformVisPet
_TEXT	ENDS
PUBLIC	?GetLength@?$CSimpleStringT@D$0A@@ATL@@QBEHXZ	; ATL::CSimpleStringT<char,0>::GetLength
; Function compile flags: /Ogty
; File c:\program files\microsoft visual studio .net 2003\vc7\atlmfc\include\atlsimpstr.h
;	COMDAT ?GetLength@?$CSimpleStringT@D$0A@@ATL@@QBEHXZ
_TEXT	SEGMENT
?GetLength@?$CSimpleStringT@D$0A@@ATL@@QBEHXZ PROC NEAR	; ATL::CSimpleStringT<char,0>::GetLength, COMDAT
; _this$ = ecx

; 501  : 		return( GetData()->nDataLength );

  00000	8b 01		 mov	 eax, DWORD PTR [ecx]
  00002	8b 40 f4	 mov	 eax, DWORD PTR [eax-12]

; 502  : 	}

  00005	c3		 ret	 0
?GetLength@?$CSimpleStringT@D$0A@@ATL@@QBEHXZ ENDP	; ATL::CSimpleStringT<char,0>::GetLength
_TEXT	ENDS
PUBLIC	??0?$CSimpleStringT@D$0A@@ATL@@QAE@PAUIAtlStringMgr@1@@Z ; ATL::CSimpleStringT<char,0>::CSimpleStringT<char,0>
; Function compile flags: /Ogty
;	COMDAT ??0?$CSimpleStringT@D$0A@@ATL@@QAE@PAUIAtlStringMgr@1@@Z
_TEXT	SEGMENT
_pStringMgr$ = 8					; size = 4
??0?$CSimpleStringT@D$0A@@ATL@@QAE@PAUIAtlStringMgr@1@@Z PROC NEAR ; ATL::CSimpleStringT<char,0>::CSimpleStringT<char,0>, COMDAT
; _this$ = ecx

; 210  : 	explicit CSimpleStringT( IAtlStringMgr* pStringMgr ) throw()

  00000	56		 push	 esi
  00001	8b f1		 mov	 esi, ecx

; 211  : 	{
; 212  : 		ATLASSERT( pStringMgr != NULL );
; 213  : 		CStringData* pData = pStringMgr->GetNilString();

  00003	8b 4c 24 08	 mov	 ecx, DWORD PTR _pStringMgr$[esp]
  00007	8b 01		 mov	 eax, DWORD PTR [ecx]
  00009	ff 50 0c	 call	 DWORD PTR [eax+12]

; 214  : 		Attach( pData );

  0000c	83 c0 10	 add	 eax, 16			; 00000010H
  0000f	89 06		 mov	 DWORD PTR [esi], eax

; 215  : 	}

  00011	8b c6		 mov	 eax, esi
  00013	5e		 pop	 esi
  00014	c2 04 00	 ret	 4
??0?$CSimpleStringT@D$0A@@ATL@@QAE@PAUIAtlStringMgr@1@@Z ENDP ; ATL::CSimpleStringT<char,0>::CSimpleStringT<char,0>
_TEXT	ENDS
PUBLIC	??1?$CSimpleStringT@D$0A@@ATL@@QAE@XZ		; ATL::CSimpleStringT<char,0>::~CSimpleStringT<char,0>
; Function compile flags: /Ogty
;	COMDAT ??1?$CSimpleStringT@D$0A@@ATL@@QAE@XZ
_TEXT	SEGMENT
??1?$CSimpleStringT@D$0A@@ATL@@QAE@XZ PROC NEAR		; ATL::CSimpleStringT<char,0>::~CSimpleStringT<char,0>, COMDAT
; _this$ = ecx

; 263  : 		CStringData* pData = GetData();

  00000	8b 01		 mov	 eax, DWORD PTR [ecx]
  00002	83 e8 10	 sub	 eax, 16			; 00000010H

; 264  : 		pData->Release();

  00005	8d 48 0c	 lea	 ecx, DWORD PTR [eax+12]
  00008	83 ca ff	 or	 edx, -1
  0000b	f0 0f c1 11	 lock	  xadd	 DWORD PTR [ecx], edx
  0000f	4a		 dec	 edx
  00010	85 d2		 test	 edx, edx
  00012	7f 08		 jg	 SHORT $L237616
  00014	8b 08		 mov	 ecx, DWORD PTR [eax]
  00016	8b 11		 mov	 edx, DWORD PTR [ecx]
  00018	50		 push	 eax
  00019	ff 52 04	 call	 DWORD PTR [edx+4]
$L237616:

; 265  : 	}

  0001c	c3		 ret	 0
??1?$CSimpleStringT@D$0A@@ATL@@QAE@XZ ENDP		; ATL::CSimpleStringT<char,0>::~CSimpleStringT<char,0>
_TEXT	ENDS
PUBLIC	?ReleaseBufferSetLength@?$CSimpleStringT@D$0A@@ATL@@QAEXH@Z ; ATL::CSimpleStringT<char,0>::ReleaseBufferSetLength
; Function compile flags: /Ogty
;	COMDAT ?ReleaseBufferSetLength@?$CSimpleStringT@D$0A@@ATL@@QAEXH@Z
_TEXT	SEGMENT
_nNewLength$ = 8					; size = 4
?ReleaseBufferSetLength@?$CSimpleStringT@D$0A@@ATL@@QAEXH@Z PROC NEAR ; ATL::CSimpleStringT<char,0>::ReleaseBufferSetLength, COMDAT
; _this$ = ecx

; 547  : 		ATLASSERT( nNewLength >= 0 );
; 548  : 		SetLength( nNewLength );

  00000	8b 44 24 04	 mov	 eax, DWORD PTR _nNewLength$[esp-4]
  00004	85 c0		 test	 eax, eax
  00006	7c 13		 jl	 SHORT $L237634
  00008	8b 11		 mov	 edx, DWORD PTR [ecx]
  0000a	3b 42 f8	 cmp	 eax, DWORD PTR [edx-8]
  0000d	7f 0c		 jg	 SHORT $L237634
  0000f	89 42 f4	 mov	 DWORD PTR [edx-12], eax
  00012	8b 09		 mov	 ecx, DWORD PTR [ecx]
  00014	c6 04 08 00	 mov	 BYTE PTR [eax+ecx], 0

; 549  : 	}

  00018	c2 04 00	 ret	 4
$L237634:
  0001b	68 57 00 07 80	 push	 -2147024809		; 80070057H
  00020	e8 00 00 00 00	 call	 ?AtlThrow@ATL@@YGXJ@Z	; ATL::AtlThrow
$L237637:
$L237636:
  00025	cc		 int	 3
?ReleaseBufferSetLength@?$CSimpleStringT@D$0A@@ATL@@QAEXH@Z ENDP ; ATL::CSimpleStringT<char,0>::ReleaseBufferSetLength
_TEXT	ENDS
PUBLIC	?Empty@?$CSimpleStringT@D$0A@@ATL@@QAEXXZ	; ATL::CSimpleStringT<char,0>::Empty
; Function compile flags: /Ogty
;	COMDAT ?Empty@?$CSimpleStringT@D$0A@@ATL@@QAEXXZ
_TEXT	SEGMENT
?Empty@?$CSimpleStringT@D$0A@@ATL@@QAEXXZ PROC NEAR	; ATL::CSimpleStringT<char,0>::Empty, COMDAT
; _this$ = ecx

; 421  : 	{

  00000	56		 push	 esi
  00001	8b f1		 mov	 esi, ecx

; 422  : 		CStringData* pOldData = GetData();

  00003	8b 0e		 mov	 ecx, DWORD PTR [esi]

; 423  : 		IAtlStringMgr* pStringMgr = pOldData->pStringMgr;
; 424  : 		if( pOldData->nDataLength == 0 )

  00005	8b 51 f4	 mov	 edx, DWORD PTR [ecx-12]
  00008	85 d2		 test	 edx, edx
  0000a	8d 41 f0	 lea	 eax, DWORD PTR [ecx-16]
  0000d	57		 push	 edi
  0000e	8b 38		 mov	 edi, DWORD PTR [eax]
  00010	74 4c		 je	 SHORT $L237674
  00012	53		 push	 ebx

; 425  : 		{
; 426  : 			return;
; 427  : 		}
; 428  : 
; 429  : 		if( pOldData->IsLocked() )

  00013	8b 58 0c	 mov	 ebx, DWORD PTR [eax+12]
  00016	8d 50 0c	 lea	 edx, DWORD PTR [eax+12]
  00019	85 db		 test	 ebx, ebx
  0001b	5b		 pop	 ebx
  0001c	7d 20		 jge	 SHORT $L221323

; 430  : 		{
; 431  : 			// Don't reallocate a locked buffer that's shrinking
; 432  : 			SetLength( 0 );

  0001e	8b 41 f8	 mov	 eax, DWORD PTR [ecx-8]
  00021	85 c0		 test	 eax, eax
  00023	7d 0a		 jge	 SHORT $L237660
  00025	68 57 00 07 80	 push	 -2147024809		; 80070057H
  0002a	e8 00 00 00 00	 call	 ?AtlThrow@ATL@@YGXJ@Z	; ATL::AtlThrow
$L237676:
$L237660:
  0002f	c7 41 f4 00 00
	00 00		 mov	 DWORD PTR [ecx-12], 0
  00036	8b 06		 mov	 eax, DWORD PTR [esi]
  00038	5f		 pop	 edi
  00039	c6 00 00	 mov	 BYTE PTR [eax], 0
  0003c	5e		 pop	 esi

; 439  : 		}
; 440  : 	}

  0003d	c3		 ret	 0
$L221323:

; 433  : 		}
; 434  : 		else
; 435  : 		{
; 436  : 			pOldData->Release();

  0003e	83 c9 ff	 or	 ecx, -1
  00041	f0 0f c1 0a	 lock	  xadd	 DWORD PTR [edx], ecx
  00045	49		 dec	 ecx
  00046	85 c9		 test	 ecx, ecx
  00048	7f 08		 jg	 SHORT $L237666
  0004a	8b 08		 mov	 ecx, DWORD PTR [eax]
  0004c	8b 11		 mov	 edx, DWORD PTR [ecx]
  0004e	50		 push	 eax
  0004f	ff 52 04	 call	 DWORD PTR [edx+4]
$L237666:

; 437  : 			CStringData* pNewData = pStringMgr->GetNilString();

  00052	8b 07		 mov	 eax, DWORD PTR [edi]
  00054	8b cf		 mov	 ecx, edi
  00056	ff 50 0c	 call	 DWORD PTR [eax+12]

; 438  : 			Attach( pNewData );

  00059	83 c0 10	 add	 eax, 16			; 00000010H
  0005c	89 06		 mov	 DWORD PTR [esi], eax
$L237674:
  0005e	5f		 pop	 edi
  0005f	5e		 pop	 esi

; 439  : 		}
; 440  : 	}

  00060	c3		 ret	 0
$L237675:
?Empty@?$CSimpleStringT@D$0A@@ATL@@QAEXXZ ENDP		; ATL::CSimpleStringT<char,0>::Empty
_TEXT	ENDS
PUBLIC	?PrepareWrite2@?$CSimpleStringT@D$0A@@ATL@@AAEXH@Z ; ATL::CSimpleStringT<char,0>::PrepareWrite2
; Function compile flags: /Ogty
;	COMDAT ?PrepareWrite2@?$CSimpleStringT@D$0A@@ATL@@AAEXH@Z
_TEXT	SEGMENT
_nLength$ = 8						; size = 4
?PrepareWrite2@?$CSimpleStringT@D$0A@@ATL@@AAEXH@Z PROC NEAR ; ATL::CSimpleStringT<char,0>::PrepareWrite2, COMDAT
; _this$ = ecx

; 747  : 		CStringData* pOldData = GetData();

  00000	8b 01		 mov	 eax, DWORD PTR [ecx]

; 748  : 		if( pOldData->nDataLength > nLength )

  00002	8b 54 24 04	 mov	 edx, DWORD PTR _nLength$[esp-4]
  00006	83 e8 10	 sub	 eax, 16			; 00000010H
  00009	56		 push	 esi
  0000a	8b 70 04	 mov	 esi, DWORD PTR [eax+4]
  0000d	3b f2		 cmp	 esi, edx
  0000f	7e 02		 jle	 SHORT $L221345

; 749  : 		{
; 750  : 			nLength = pOldData->nDataLength;

  00011	8b d6		 mov	 edx, esi
$L221345:

; 751  : 		}
; 752  : 		if( pOldData->IsShared() )

  00013	83 78 0c 01	 cmp	 DWORD PTR [eax+12], 1
  00017	5e		 pop	 esi
  00018	7e 09		 jle	 SHORT $L221346

; 753  : 		{
; 754  : 			Fork( nLength );

  0001a	89 54 24 04	 mov	 DWORD PTR _nLength$[esp-4], edx
  0001e	e9 00 00 00 00	 jmp	 ?Fork@?$CSimpleStringT@D$0A@@ATL@@AAEXH@Z ; ATL::CSimpleStringT<char,0>::Fork
$L221346:

; 755  : 		}
; 756  : 		else if( pOldData->nAllocLength < nLength )

  00023	8b 40 08	 mov	 eax, DWORD PTR [eax+8]
  00026	3b c2		 cmp	 eax, edx
  00028	7d 1f		 jge	 SHORT $L221348

; 757  : 		{
; 758  : 			// Grow exponentially, until we hit 1K.
; 759  : 			int nNewLength = pOldData->nAllocLength;
; 760  : 			if( nNewLength > 1024 )

  0002a	3d 00 04 00 00	 cmp	 eax, 1024		; 00000400H
  0002f	7e 07		 jle	 SHORT $L221350

; 761  : 			{
; 762  : 				nNewLength += 1024;

  00031	05 00 04 00 00	 add	 eax, 1024		; 00000400H

; 763  : 			}
; 764  : 			else

  00036	eb 02		 jmp	 SHORT $L221351
$L221350:

; 765  : 			{
; 766  : 				nNewLength *= 2;

  00038	03 c0		 add	 eax, eax
$L221351:

; 767  : 			}
; 768  : 			if( nNewLength < nLength )

  0003a	3b c2		 cmp	 eax, edx
  0003c	7d 02		 jge	 SHORT $L221352

; 769  : 			{
; 770  : 				nNewLength = nLength;

  0003e	8b c2		 mov	 eax, edx
$L221352:

; 771  : 			}
; 772  : 			Reallocate( nNewLength );

  00040	89 44 24 04	 mov	 DWORD PTR _nLength$[esp-4], eax
  00044	e9 00 00 00 00	 jmp	 ?Reallocate@?$CSimpleStringT@D$0A@@ATL@@AAEXH@Z ; ATL::CSimpleStringT<char,0>::Reallocate
$L221348:

; 773  : 		}
; 774  : 	}

  00049	c2 04 00	 ret	 4
?PrepareWrite2@?$CSimpleStringT@D$0A@@ATL@@AAEXH@Z ENDP	; ATL::CSimpleStringT<char,0>::PrepareWrite2
_TEXT	ENDS
PUBLIC	?CloneData@?$CSimpleStringT@D$0A@@ATL@@CAPAUCStringData@2@PAU32@@Z ; ATL::CSimpleStringT<char,0>::CloneData
; Function compile flags: /Ogty
;	COMDAT ?CloneData@?$CSimpleStringT@D$0A@@ATL@@CAPAUCStringData@2@PAU32@@Z
_TEXT	SEGMENT
_pData$ = 8						; size = 4
?CloneData@?$CSimpleStringT@D$0A@@ATL@@CAPAUCStringData@2@PAU32@@Z PROC NEAR ; ATL::CSimpleStringT<char,0>::CloneData, COMDAT

; 801  : 	{

  00000	56		 push	 esi

; 802  : 		CStringData* pNewData = NULL;
; 803  : 
; 804  : 		IAtlStringMgr* pNewStringMgr = pData->pStringMgr->Clone();

  00001	8b 74 24 08	 mov	 esi, DWORD PTR _pData$[esp]
  00005	8b 0e		 mov	 ecx, DWORD PTR [esi]
  00007	8b 01		 mov	 eax, DWORD PTR [ecx]
  00009	ff 50 10	 call	 DWORD PTR [eax+16]

; 805  : 		if( !pData->IsLocked() && (pNewStringMgr == pData->pStringMgr) )

  0000c	8b 56 0c	 mov	 edx, DWORD PTR [esi+12]
  0000f	85 d2		 test	 edx, edx
  00011	8d 4e 0c	 lea	 ecx, DWORD PTR [esi+12]
  00014	7c 11		 jl	 SHORT $L221356
  00016	3b 06		 cmp	 eax, DWORD PTR [esi]
  00018	75 0d		 jne	 SHORT $L221356

; 806  : 		{
; 807  : 			pNewData = pData;

  0001a	8b c6		 mov	 eax, esi

; 808  : 			pNewData->AddRef();

  0001c	ba 01 00 00 00	 mov	 edx, 1
  00021	f0 0f c1 11	 lock	  xadd	 DWORD PTR [ecx], edx
  00025	5e		 pop	 esi

; 819  : 		}
; 820  : 
; 821  : 		return( pNewData );
; 822  : 	}

  00026	c3		 ret	 0
$L221356:

; 809  : 		}
; 810  : 		else
; 811  : 		{
; 812  : 			pNewData = pNewStringMgr->Allocate( pData->nDataLength, sizeof( XCHAR ) );

  00027	8b 4e 04	 mov	 ecx, DWORD PTR [esi+4]
  0002a	8b 10		 mov	 edx, DWORD PTR [eax]
  0002c	6a 01		 push	 1
  0002e	51		 push	 ecx
  0002f	8b c8		 mov	 ecx, eax
  00031	ff 12		 call	 DWORD PTR [edx]

; 813  : 			if( pNewData == NULL )

  00033	85 c0		 test	 eax, eax
  00035	75 05		 jne	 SHORT $L221359

; 814  : 			{
; 815  : 				ThrowMemoryException();

  00037	e9 00 00 00 00	 jmp	 ?ThrowMemoryException@?$CSimpleStringT@D$0A@@ATL@@KAXXZ ; ATL::CSimpleStringT<char,0>::ThrowMemoryException
$L221359:

; 816  : 			}
; 817  : 			pNewData->nDataLength = pData->nDataLength;

  0003c	8b 56 04	 mov	 edx, DWORD PTR [esi+4]
  0003f	89 50 04	 mov	 DWORD PTR [eax+4], edx

; 818  : 			CopyChars( PXSTR( pNewData->data() ), PCXSTR( pData->data() ), pData->nDataLength+1 );  // Copy '\0'

  00042	8b 4e 04	 mov	 ecx, DWORD PTR [esi+4]
  00045	41		 inc	 ecx
  00046	8b d1		 mov	 edx, ecx
  00048	57		 push	 edi
  00049	c1 e9 02	 shr	 ecx, 2
  0004c	83 c6 10	 add	 esi, 16			; 00000010H
  0004f	8d 78 10	 lea	 edi, DWORD PTR [eax+16]
  00052	f3 a5		 rep movsd
  00054	8b ca		 mov	 ecx, edx
  00056	83 e1 03	 and	 ecx, 3
  00059	f3 a4		 rep movsb
  0005b	5f		 pop	 edi
  0005c	5e		 pop	 esi

; 819  : 		}
; 820  : 
; 821  : 		return( pNewData );
; 822  : 	}

  0005d	c3		 ret	 0
?CloneData@?$CSimpleStringT@D$0A@@ATL@@CAPAUCStringData@2@PAU32@@Z ENDP ; ATL::CSimpleStringT<char,0>::CloneData
_TEXT	ENDS
PUBLIC	?GetPropA@CItemBase@@QAEPAUItemProp@@XZ		; CItemBase::GetPropA
; Function compile flags: /Ogty
; File c:\documents and settings\test\mes documents\source\virtuos_v17\build\program\_common\item.cpp
;	COMDAT ?GetPropA@CItemBase@@QAEPAUItemProp@@XZ
_TEXT	SEGMENT
?GetPropA@CItemBase@@QAEPAUItemProp@@XZ PROC NEAR	; CItemBase::GetPropA, COMDAT
; _this$ = ecx

; 64   : 	return	prj.GetItemProp( m_dwItemId );	

  00000	8b 41 0c	 mov	 eax, DWORD PTR [ecx+12]
  00003	85 c0		 test	 eax, eax
  00005	8b 0d 5c 02 00
	00		 mov	 ecx, DWORD PTR ?prj@@3VCProject@@A+604
  0000b	7c 10		 jl	 SHORT $L237749
  0000d	3b c1		 cmp	 eax, ecx
  0000f	7d 0c		 jge	 SHORT $L237749
  00011	73 20		 jae	 SHORT $L237752
  00013	8b 0d 4c 02 00
	00		 mov	 ecx, DWORD PTR ?prj@@3VCProject@@A+588
  00019	8b 04 81	 mov	 eax, DWORD PTR [ecx+eax*4]

; 65   : }

  0001c	c3		 ret	 0

; 64   : 	return	prj.GetItemProp( m_dwItemId );	

$L237749:
  0001d	50		 push	 eax
  0001e	51		 push	 ecx
  0001f	6a 00		 push	 0
  00021	68 00 00 00 00	 push	 OFFSET FLAT:??_C@_0BI@BEIFNGEL@GetItemProp?5range_error?$AA@
  00026	68 00 00 00 00	 push	 OFFSET FLAT:??_C@_0BM@HMFGHCP@?$CFs?5min?3?$CFd?0?5max?3?$CFd?0?5index?3?$CFd?$AA@
  0002b	e8 00 00 00 00	 call	 ?Error@@YAPBDPBDZZ	; Error
  00030	83 c4 14	 add	 esp, 20			; 00000014H
$L237752:
  00033	33 c0		 xor	 eax, eax

; 65   : }

  00035	c3		 ret	 0
?GetPropA@CItemBase@@QAEPAUItemProp@@XZ ENDP		; CItemBase::GetPropA
_TEXT	ENDS
PUBLIC	__real@3d638e39
PUBLIC	__real@3dcccccd
PUBLIC	__real@3f800000
PUBLIC	__real@4f800000
PUBLIC	?GetCost@CItemBase@@QAEHXZ			; CItemBase::GetCost
EXTRN	__ftol2:NEAR
EXTRN	__fltused:NEAR
;	COMDAT __real@3d638e39
; File c:\documents and settings\test\mes documents\source\virtuos_v17\build\program\_common\item.h
CONST	SEGMENT
__real@3d638e39 DD 03d638e39r			; 0.0555556
CONST	ENDS
;	COMDAT __real@3dcccccd
CONST	SEGMENT
__real@3dcccccd DD 03dcccccdr			; 0.1
CONST	ENDS
;	COMDAT __real@3f800000
CONST	SEGMENT
__real@3f800000 DD 03f800000r			; 1
CONST	ENDS
;	COMDAT __real@4f800000
CONST	SEGMENT
__real@4f800000 DD 04f800000r			; 4.29497e+009
; Function compile flags: /Ogty
; File c:\documents and settings\test\mes documents\source\virtuos_v17\build\program\_common\item.cpp
CONST	ENDS
;	COMDAT ?GetCost@CItemBase@@QAEHXZ
_TEXT	SEGMENT
tv276 = -4						; size = 4
tv274 = -4						; size = 4
?GetCost@CItemBase@@QAEHXZ PROC NEAR			; CItemBase::GetCost, COMDAT
; _this$ = ecx

; 124  : {

  00000	51		 push	 ecx

; 125  : 	ItemProp *pProp = GetProp();

  00001	8b 41 0c	 mov	 eax, DWORD PTR [ecx+12]
  00004	85 c0		 test	 eax, eax
  00006	8b 15 5c 02 00
	00		 mov	 edx, DWORD PTR ?prj@@3VCProject@@A+604
  0000c	7c 27		 jl	 SHORT $L237819
  0000e	3b c2		 cmp	 eax, edx
  00010	7d 23		 jge	 SHORT $L237819
  00012	72 16		 jb	 SHORT $L237812
  00014	33 c0		 xor	 eax, eax
$L237814:

; 126  : 	if( pProp == NULL )		

  00016	85 c0		 test	 eax, eax

; 127  : 		return -1;

  00018	74 0b		 je	 SHORT $L237833

; 128  : 	if( pProp->dwCost == 0xFFFFFFFF )	

  0001a	8b 90 8c 00 00
	00		 mov	 edx, DWORD PTR [eax+140]
  00020	83 fa ff	 cmp	 edx, -1
  00023	75 2b		 jne	 SHORT $L234433
$L237833:

; 129  : 		return -1;

  00025	83 c8 ff	 or	 eax, -1

; 142  : 	}
; 143  : 	
; 144  : 	return nCost;
; 145  : }

  00028	59		 pop	 ecx
  00029	c3		 ret	 0

; 125  : 	ItemProp *pProp = GetProp();

$L237812:
  0002a	8b 15 4c 02 00
	00		 mov	 edx, DWORD PTR ?prj@@3VCProject@@A+588
  00030	8b 04 82	 mov	 eax, DWORD PTR [edx+eax*4]
  00033	eb e1		 jmp	 SHORT $L237814
$L237819:
  00035	50		 push	 eax
  00036	52		 push	 edx
  00037	6a 00		 push	 0
  00039	68 00 00 00 00	 push	 OFFSET FLAT:??_C@_0BI@BEIFNGEL@GetItemProp?5range_error?$AA@
  0003e	68 00 00 00 00	 push	 OFFSET FLAT:??_C@_0BM@HMFGHCP@?$CFs?5min?3?$CFd?0?5max?3?$CFd?0?5index?3?$CFd?$AA@
  00043	e8 00 00 00 00	 call	 ?Error@@YAPBDPBDZZ	; Error
  00048	83 c4 14	 add	 esp, 20			; 00000014H

; 129  : 		return -1;

  0004b	83 c8 ff	 or	 eax, -1

; 142  : 	}
; 143  : 	
; 144  : 	return nCost;
; 145  : }

  0004e	59		 pop	 ecx
  0004f	c3		 ret	 0
$L234433:
  00050	56		 push	 esi

; 130  : 		
; 131  : 	CItemElem *pItemElem = (CItemElem *)this;
; 132  : 
; 133  : 	int nCost;
; 134  : 	if( pItemElem->GetAbilityOption() )

  00051	8b 71 70	 mov	 esi, DWORD PTR [ecx+112]
  00054	85 f6		 test	 esi, esi
  00056	5e		 pop	 esi
  00057	74 40		 je	 SHORT $L234437

; 135  : 	{		
; 136  : 		//INT((+*(0.1+(*)/18))
; 137  : 		nCost = (int)( pProp->dwCost + pProp->dwCost * ( 0.1f + ( pItemElem->GetAbilityOption() * pItemElem->GetAbilityOption() ) / 18.0f ) );

  00059	8b 49 70	 mov	 ecx, DWORD PTR [ecx+112]
  0005c	8b 80 8c 00 00
	00		 mov	 eax, DWORD PTR [eax+140]
  00062	8b d1		 mov	 edx, ecx
  00064	0f af d1	 imul	 edx, ecx
  00067	85 c0		 test	 eax, eax
  00069	89 14 24	 mov	 DWORD PTR tv276[esp+4], edx
  0006c	db 04 24	 fild	 DWORD PTR tv276[esp+4]
  0006f	89 04 24	 mov	 DWORD PTR tv274[esp+4], eax
  00072	d8 0d 00 00 00
	00		 fmul	 DWORD PTR __real@3d638e39
  00078	d8 05 00 00 00
	00		 fadd	 DWORD PTR __real@3dcccccd
  0007e	d8 05 00 00 00
	00		 fadd	 DWORD PTR __real@3f800000
  00084	db 04 24	 fild	 DWORD PTR tv274[esp+4]
  00087	7d 06		 jge	 SHORT $L237842
  00089	d8 05 00 00 00
	00		 fadd	 DWORD PTR __real@4f800000
$L237842:
  0008f	de c9		 fmulp	 ST(1), ST(0)

; 142  : 	}
; 143  : 	
; 144  : 	return nCost;
; 145  : }

  00091	83 c4 04	 add	 esp, 4

; 135  : 	{		
; 136  : 		//INT((+*(0.1+(*)/18))
; 137  : 		nCost = (int)( pProp->dwCost + pProp->dwCost * ( 0.1f + ( pItemElem->GetAbilityOption() * pItemElem->GetAbilityOption() ) / 18.0f ) );

  00094	e9 00 00 00 00	 jmp	 __ftol2
$L234437:

; 138  : 	}
; 139  : 	else
; 140  : 	{
; 141  : 		nCost = (int)pProp->dwCost;

  00099	8b c2		 mov	 eax, edx

; 142  : 	}
; 143  : 	
; 144  : 	return nCost;
; 145  : }

  0009b	59		 pop	 ecx
  0009c	c3		 ret	 0
?GetCost@CItemBase@@QAEHXZ ENDP				; CItemBase::GetCost
_TEXT	ENDS
PUBLIC	?GetChipCost@CItemBase@@QAEKXZ			; CItemBase::GetChipCost
; Function compile flags: /Ogty
;	COMDAT ?GetChipCost@CItemBase@@QAEKXZ
_TEXT	SEGMENT
?GetChipCost@CItemBase@@QAEKXZ PROC NEAR		; CItemBase::GetChipCost, COMDAT
; _this$ = ecx

; 150  : 	ItemProp *pProp = GetProp();

  00000	8b 41 0c	 mov	 eax, DWORD PTR [ecx+12]
  00003	85 c0		 test	 eax, eax
  00005	8b 0d 5c 02 00
	00		 mov	 ecx, DWORD PTR ?prj@@3VCProject@@A+604
  0000b	7c 26		 jl	 SHORT $L237900
  0000d	3b c1		 cmp	 eax, ecx
  0000f	7d 22		 jge	 SHORT $L237900
  00011	72 15		 jb	 SHORT $L237911
  00013	33 c0		 xor	 eax, eax
$L237894:

; 151  : 	if( pProp == NULL )		

  00015	85 c0		 test	 eax, eax

; 152  : 		return -1;

  00017	74 0b		 je	 SHORT $L237914

; 153  : 	if( pProp->dwReferValue1 == 0xFFFFFFFF )	

  00019	8b 80 10 02 00
	00		 mov	 eax, DWORD PTR [eax+528]
  0001f	83 f8 ff	 cmp	 eax, -1
  00022	75 03		 jne	 SHORT $L234443
$L237914:

; 154  : 		return -1;

  00024	83 c8 ff	 or	 eax, -1
$L234443:

; 155  : 
; 156  : 	return pProp->dwReferValue1;
; 157  : }

  00027	c3		 ret	 0

; 150  : 	ItemProp *pProp = GetProp();

$L237911:
  00028	8b 0d 4c 02 00
	00		 mov	 ecx, DWORD PTR ?prj@@3VCProject@@A+588
  0002e	8b 04 81	 mov	 eax, DWORD PTR [ecx+eax*4]
  00031	eb e2		 jmp	 SHORT $L237894
$L237900:
  00033	50		 push	 eax
  00034	51		 push	 ecx
  00035	6a 00		 push	 0
  00037	68 00 00 00 00	 push	 OFFSET FLAT:??_C@_0BI@BEIFNGEL@GetItemProp?5range_error?$AA@
  0003c	68 00 00 00 00	 push	 OFFSET FLAT:??_C@_0BM@HMFGHCP@?$CFs?5min?3?$CFd?0?5max?3?$CFd?0?5index?3?$CFd?$AA@
  00041	e8 00 00 00 00	 call	 ?Error@@YAPBDPBDZZ	; Error
  00046	83 c4 14	 add	 esp, 20			; 00000014H

; 154  : 		return -1;

  00049	83 c8 ff	 or	 eax, -1

; 155  : 
; 156  : 	return pProp->dwReferValue1;
; 157  : }

  0004c	c3		 ret	 0
?GetChipCost@CItemBase@@QAEKXZ ENDP			; CItemBase::GetChipCost
_TEXT	ENDS
PUBLIC	?IsQuest@CItemBase@@QAEHXZ			; CItemBase::IsQuest
EXTRN	?GetLanguage@@YAHXZ:NEAR			; GetLanguage
; Function compile flags: /Ogty
;	COMDAT ?IsQuest@CItemBase@@QAEHXZ
_TEXT	SEGMENT
?IsQuest@CItemBase@@QAEHXZ PROC NEAR			; CItemBase::IsQuest, COMDAT
; _this$ = ecx

; 163  : 	ItemProp* p = GetProp();

  00000	8b 41 0c	 mov	 eax, DWORD PTR [ecx+12]
  00003	85 c0		 test	 eax, eax
  00005	8b 0d 5c 02 00
	00		 mov	 ecx, DWORD PTR ?prj@@3VCProject@@A+604
  0000b	56		 push	 esi
  0000c	7c 19		 jl	 SHORT $L237968
  0000e	3b c1		 cmp	 eax, ecx
  00010	7d 15		 jge	 SHORT $L237968
  00012	72 06		 jb	 SHORT $L237980
  00014	33 c0		 xor	 eax, eax
  00016	8b f0		 mov	 esi, eax
  00018	eb 25		 jmp	 SHORT $L237963
$L237980:
  0001a	8b 0d 4c 02 00
	00		 mov	 ecx, DWORD PTR ?prj@@3VCProject@@A+588
  00020	8b 04 81	 mov	 eax, DWORD PTR [ecx+eax*4]
  00023	8b f0		 mov	 esi, eax
  00025	eb 18		 jmp	 SHORT $L237963
$L237968:
  00027	50		 push	 eax
  00028	51		 push	 ecx
  00029	6a 00		 push	 0
  0002b	68 00 00 00 00	 push	 OFFSET FLAT:??_C@_0BI@BEIFNGEL@GetItemProp?5range_error?$AA@
  00030	68 00 00 00 00	 push	 OFFSET FLAT:??_C@_0BM@HMFGHCP@?$CFs?5min?3?$CFd?0?5max?3?$CFd?0?5index?3?$CFd?$AA@
  00035	e8 00 00 00 00	 call	 ?Error@@YAPBDPBDZZ	; Error
  0003a	83 c4 14	 add	 esp, 20			; 00000014H
  0003d	33 f6		 xor	 esi, esi
$L237963:

; 164  : 	if( p->dwItemKind3 == IK3_QUEST )

  0003f	83 7e 78 2b	 cmp	 DWORD PTR [esi+120], 43	; 0000002bH
  00043	75 19		 jne	 SHORT $L234451

; 165  : 	{
; 166  : 		if( ::GetLanguage() == LANG_JAP )

  00045	e8 00 00 00 00	 call	 ?GetLanguage@@YAHXZ	; GetLanguage
  0004a	83 f8 02	 cmp	 eax, 2
  0004d	75 08		 jne	 SHORT $L234453

; 167  : 		{
; 168  : 			if( p->dwID == II_SYS_SYS_QUE_REDSOCKS )	//  

  0004f	81 3e 5d 18 00
	00		 cmp	 DWORD PTR [esi], 6237	; 0000185dH

; 169  : 				return FALSE;

  00055	74 07		 je	 SHORT $L234451
$L234453:

; 170  : 		}
; 171  : 
; 172  : 		return TRUE;

  00057	b8 01 00 00 00	 mov	 eax, 1
  0005c	5e		 pop	 esi

; 176  : }

  0005d	c3		 ret	 0
$L234451:

; 173  : 	}
; 174  : 
; 175  : 	return FALSE;

  0005e	33 c0		 xor	 eax, eax
  00060	5e		 pop	 esi

; 176  : }

  00061	c3		 ret	 0
?IsQuest@CItemBase@@QAEHXZ ENDP				; CItemBase::IsQuest
; Function compile flags: /Ogty
_TEXT	ENDS
;	COMDAT ??_GCItemElem@@UAEPAXI@Z
_TEXT	SEGMENT
___flags$ = 8						; size = 4
??_GCItemElem@@UAEPAXI@Z PROC NEAR			; CItemElem::`scalar deleting destructor', COMDAT
; _this$ = ecx
  00000	56		 push	 esi
  00001	8b f1		 mov	 esi, ecx
  00003	e8 00 00 00 00	 call	 ??1CItemElem@@UAE@XZ	; CItemElem::~CItemElem
  00008	f6 44 24 08 01	 test	 BYTE PTR ___flags$[esp], 1
  0000d	74 09		 je	 SHORT $L237986
  0000f	56		 push	 esi
  00010	e8 00 00 00 00	 call	 ??3@YAXPAX@Z		; operator delete
  00015	83 c4 04	 add	 esp, 4
$L237986:
  00018	8b c6		 mov	 eax, esi
  0001a	5e		 pop	 esi
  0001b	c2 04 00	 ret	 4
??_GCItemElem@@UAEPAXI@Z ENDP				; CItemElem::`scalar deleting destructor'
_TEXT	ENDS
PUBLIC	?UseItem@CItemElem@@QAEXXZ			; CItemElem::UseItem
; Function compile flags: /Ogty
;	COMDAT ?UseItem@CItemElem@@QAEXXZ
_TEXT	SEGMENT
?UseItem@CItemElem@@QAEXXZ PROC NEAR			; CItemElem::UseItem, COMDAT
; _this$ = ecx

; 273  : {

  00000	56		 push	 esi
  00001	8b f1		 mov	 esi, ecx

; 274  : 	if( GetProp()->bPermanence != TRUE )

  00003	8b 46 0c	 mov	 eax, DWORD PTR [esi+12]
  00006	85 c0		 test	 eax, eax
  00008	8b 0d 5c 02 00
	00		 mov	 ecx, DWORD PTR ?prj@@3VCProject@@A+604
  0000e	7c 11		 jl	 SHORT $L238040
  00010	3b c1		 cmp	 eax, ecx
  00012	7d 0d		 jge	 SHORT $L238040
  00014	73 21		 jae	 SHORT $L238055
  00016	8b 0d 4c 02 00
	00		 mov	 ecx, DWORD PTR ?prj@@3VCProject@@A+588
  0001c	8b 04 81	 mov	 eax, DWORD PTR [ecx+eax*4]
  0001f	eb 18		 jmp	 SHORT $L238035
$L238040:
  00021	50		 push	 eax
  00022	51		 push	 ecx
  00023	6a 00		 push	 0
  00025	68 00 00 00 00	 push	 OFFSET FLAT:??_C@_0BI@BEIFNGEL@GetItemProp?5range_error?$AA@
  0002a	68 00 00 00 00	 push	 OFFSET FLAT:??_C@_0BM@HMFGHCP@?$CFs?5min?3?$CFd?0?5max?3?$CFd?0?5index?3?$CFd?$AA@
  0002f	e8 00 00 00 00	 call	 ?Error@@YAPBDPBDZZ	; Error
  00034	83 c4 14	 add	 esp, 20			; 00000014H
$L238055:
  00037	33 c0		 xor	 eax, eax
$L238035:
  00039	83 b8 80 00 00
	00 01		 cmp	 DWORD PTR [eax+128], 1
  00040	74 07		 je	 SHORT $L234483

; 275  : 		m_nItemNum--;

  00042	66 ff 8e 80 00
	00 00		 dec	 WORD PTR [esi+128]
$L234483:
  00049	5e		 pop	 esi

; 276  : }

  0004a	c3		 ret	 0
?UseItem@CItemElem@@QAEXXZ ENDP				; CItemElem::UseItem
_TEXT	ENDS
PUBLIC	?IsBinds@CItemElem@@QAEHXZ			; CItemElem::IsBinds
EXTRN	?GetInstance@CRandomOptionProperty@@SAPAV1@XZ:NEAR ; CRandomOptionProperty::GetInstance
EXTRN	?GetRandomOptionSize@CRandomOptionProperty@@QAEH_J@Z:NEAR ; CRandomOptionProperty::GetRandomOptionSize
EXTRN	?GetRandomOptionKind@CRandomOptionProperty@@QAEHPAVCItemElem@@@Z:NEAR ; CRandomOptionProperty::GetRandomOptionKind
; Function compile flags: /Ogty
;	COMDAT ?IsBinds@CItemElem@@QAEHXZ
_TEXT	SEGMENT
?IsBinds@CItemElem@@QAEHXZ PROC NEAR			; CItemElem::IsBinds, COMDAT
; _this$ = ecx

; 411  : {

  00000	56		 push	 esi
  00001	8b f1		 mov	 esi, ecx

; 412  : 	ItemProp* pProperty = GetProp();

  00003	8b 46 0c	 mov	 eax, DWORD PTR [esi+12]
  00006	85 c0		 test	 eax, eax
  00008	8b 0d 5c 02 00
	00		 mov	 ecx, DWORD PTR ?prj@@3VCProject@@A+604
  0000e	7c 11		 jl	 SHORT $L238109
  00010	3b c1		 cmp	 eax, ecx
  00012	7d 0d		 jge	 SHORT $L238109
  00014	73 21		 jae	 SHORT $L238132
  00016	8b 0d 4c 02 00
	00		 mov	 ecx, DWORD PTR ?prj@@3VCProject@@A+588
  0001c	8b 04 81	 mov	 eax, DWORD PTR [ecx+eax*4]
  0001f	eb 18		 jmp	 SHORT $L238104
$L238109:
  00021	50		 push	 eax
  00022	51		 push	 ecx
  00023	6a 00		 push	 0
  00025	68 00 00 00 00	 push	 OFFSET FLAT:??_C@_0BI@BEIFNGEL@GetItemProp?5range_error?$AA@
  0002a	68 00 00 00 00	 push	 OFFSET FLAT:??_C@_0BM@HMFGHCP@?$CFs?5min?3?$CFd?0?5max?3?$CFd?0?5index?3?$CFd?$AA@
  0002f	e8 00 00 00 00	 call	 ?Error@@YAPBDPBDZZ	; Error
  00034	83 c4 14	 add	 esp, 20			; 00000014H
$L238132:
  00037	33 c0		 xor	 eax, eax
$L238104:

; 413  : 	if( m_dwKeepTime && pProperty->dwItemKind2 != IK2_WARP )

  00039	8b 8e b0 00 00
	00		 mov	 ecx, DWORD PTR [esi+176]
  0003f	85 c9		 test	 ecx, ecx
  00041	74 0d		 je	 SHORT $L234551
  00043	83 78 74 1e	 cmp	 DWORD PTR [eax+116], 30	; 0000001eH
  00047	74 07		 je	 SHORT $L234551
$L238131:

; 414  : 		return TRUE;

  00049	b8 01 00 00 00	 mov	 eax, 1
  0004e	5e		 pop	 esi

; 427  : 		return TRUE;
; 428  : #endif	// __SYS_IDENTIFY
; 429  : 
; 430  : 	return FALSE;
; 431  : }

  0004f	c3		 ret	 0
$L234551:

; 415  : 
; 416  : 	if( (pProperty->dwFlag & IP_FLAG_BINDS) == IP_FLAG_BINDS )

  00050	f6 80 a4 00 00
	00 01		 test	 BYTE PTR [eax+164], 1

; 417  : 		return TRUE;

  00057	75 f0		 jne	 SHORT $L238131

; 418  : 
; 419  : 	if( IsFlag( CItemElem::binds ) )

  00059	f6 86 82 00 00
	00 02		 test	 BYTE PTR [esi+130], 2

; 420  : 		return TRUE;

  00060	75 e7		 jne	 SHORT $L238131

; 421  : 
; 422  : #if __VER >= 11 // __SYS_IDENTIFY
; 423  : 	if( g_xRandomOptionProperty->GetRandomOptionSize( GetRandomOptItemId() ) > 0
; 424  : 		&& ( g_xRandomOptionProperty->GetRandomOptionKind( this ) == CRandomOptionProperty::eBlessing || g_xRandomOptionProperty->GetRandomOptionKind( this ) == CRandomOptionProperty::eEatPet ) )

  00062	8b 8e 9c 00 00
	00		 mov	 ecx, DWORD PTR [esi+156]
  00068	8b 86 98 00 00
	00		 mov	 eax, DWORD PTR [esi+152]
  0006e	51		 push	 ecx
  0006f	50		 push	 eax
  00070	e8 00 00 00 00	 call	 ?GetInstance@CRandomOptionProperty@@SAPAV1@XZ ; CRandomOptionProperty::GetInstance
  00075	8b c8		 mov	 ecx, eax
  00077	e8 00 00 00 00	 call	 ?GetRandomOptionSize@CRandomOptionProperty@@QAEH_J@Z ; CRandomOptionProperty::GetRandomOptionSize
  0007c	85 c0		 test	 eax, eax
  0007e	7e 24		 jle	 SHORT $L234554
  00080	56		 push	 esi
  00081	e8 00 00 00 00	 call	 ?GetInstance@CRandomOptionProperty@@SAPAV1@XZ ; CRandomOptionProperty::GetInstance
  00086	8b c8		 mov	 ecx, eax
  00088	e8 00 00 00 00	 call	 ?GetRandomOptionKind@CRandomOptionProperty@@QAEHPAVCItemElem@@@Z ; CRandomOptionProperty::GetRandomOptionKind
  0008d	83 f8 01	 cmp	 eax, 1
  00090	74 b7		 je	 SHORT $L238131
  00092	56		 push	 esi
  00093	e8 00 00 00 00	 call	 ?GetInstance@CRandomOptionProperty@@SAPAV1@XZ ; CRandomOptionProperty::GetInstance
  00098	8b c8		 mov	 ecx, eax
  0009a	e8 00 00 00 00	 call	 ?GetRandomOptionKind@CRandomOptionProperty@@QAEHPAVCItemElem@@@Z ; CRandomOptionProperty::GetRandomOptionKind
  0009f	83 f8 03	 cmp	 eax, 3

; 425  : 		return TRUE;

  000a2	74 a5		 je	 SHORT $L238131
$L234554:

; 426  : 	if( GetLevelDown() < 0 )

  000a4	8b ce		 mov	 ecx, esi
  000a6	e8 00 00 00 00	 call	 ?GetLevelDown@CItemElem@@QAEHXZ ; CItemElem::GetLevelDown
  000ab	33 d2		 xor	 edx, edx
  000ad	85 c0		 test	 eax, eax
  000af	0f 9c c2	 setl	 dl
  000b2	5e		 pop	 esi
  000b3	8b c2		 mov	 eax, edx

; 427  : 		return TRUE;
; 428  : #endif	// __SYS_IDENTIFY
; 429  : 
; 430  : 	return FALSE;
; 431  : }

  000b5	c3		 ret	 0
?IsBinds@CItemElem@@QAEHXZ ENDP				; CItemElem::IsBinds
_TEXT	ENDS
PUBLIC	?IsUndestructable@CItemElem@@QAEHXZ		; CItemElem::IsUndestructable
; Function compile flags: /Ogty
;	COMDAT ?IsUndestructable@CItemElem@@QAEHXZ
_TEXT	SEGMENT
?IsUndestructable@CItemElem@@QAEHXZ PROC NEAR		; CItemElem::IsUndestructable, COMDAT
; _this$ = ecx

; 435  : 	ItemProp* pProperty = GetProp();

  00000	8b 41 0c	 mov	 eax, DWORD PTR [ecx+12]
  00003	85 c0		 test	 eax, eax
  00005	8b 0d 5c 02 00
	00		 mov	 ecx, DWORD PTR ?prj@@3VCProject@@A+604
  0000b	7c 1f		 jl	 SHORT $L238186
  0000d	3b c1		 cmp	 eax, ecx
  0000f	7d 1b		 jge	 SHORT $L238186
  00011	73 2f		 jae	 SHORT $L238201
  00013	8b 0d 4c 02 00
	00		 mov	 ecx, DWORD PTR ?prj@@3VCProject@@A+588
  00019	8b 04 81	 mov	 eax, DWORD PTR [ecx+eax*4]

; 436  : 	if( (pProperty->dwFlag & IP_FLAG_UNDESTRUCTABLE ) == IP_FLAG_UNDESTRUCTABLE )

  0001c	8a 80 a4 00 00
	00		 mov	 al, BYTE PTR [eax+164]
  00022	24 02		 and	 al, 2
  00024	2c 02		 sub	 al, 2
  00026	f6 d8		 neg	 al
  00028	1b c0		 sbb	 eax, eax
  0002a	40		 inc	 eax

; 437  : 		return TRUE;
; 438  : 	return FALSE;
; 439  : }

  0002b	c3		 ret	 0

; 435  : 	ItemProp* pProperty = GetProp();

$L238186:
  0002c	50		 push	 eax
  0002d	51		 push	 ecx
  0002e	6a 00		 push	 0
  00030	68 00 00 00 00	 push	 OFFSET FLAT:??_C@_0BI@BEIFNGEL@GetItemProp?5range_error?$AA@
  00035	68 00 00 00 00	 push	 OFFSET FLAT:??_C@_0BM@HMFGHCP@?$CFs?5min?3?$CFd?0?5max?3?$CFd?0?5index?3?$CFd?$AA@
  0003a	e8 00 00 00 00	 call	 ?Error@@YAPBDPBDZZ	; Error
  0003f	83 c4 14	 add	 esp, 20			; 00000014H
$L238201:
  00042	33 c0		 xor	 eax, eax

; 436  : 	if( (pProperty->dwFlag & IP_FLAG_UNDESTRUCTABLE ) == IP_FLAG_UNDESTRUCTABLE )

  00044	8a 80 a4 00 00
	00		 mov	 al, BYTE PTR [eax+164]
  0004a	24 02		 and	 al, 2
  0004c	2c 02		 sub	 al, 2
  0004e	f6 d8		 neg	 al
  00050	1b c0		 sbb	 eax, eax
  00052	40		 inc	 eax

; 437  : 		return TRUE;
; 438  : 	return FALSE;
; 439  : }

  00053	c3		 ret	 0
?IsUndestructable@CItemElem@@QAEHXZ ENDP		; CItemElem::IsUndestructable
_TEXT	ENDS
PUBLIC	?IsLogable@CItemElem@@QAEHXZ			; CItemElem::IsLogable
; Function compile flags: /Ogty
;	COMDAT ?IsLogable@CItemElem@@QAEHXZ
_TEXT	SEGMENT
?IsLogable@CItemElem@@QAEHXZ PROC NEAR			; CItemElem::IsLogable, COMDAT
; _this$ = ecx

; 442  : {

  00000	56		 push	 esi
  00001	8b f1		 mov	 esi, ecx

; 443  : 	if( GetProp()->nLog != -1 || GetRandomOptItemId() != 0 )

  00003	8b 46 0c	 mov	 eax, DWORD PTR [esi+12]
  00006	85 c0		 test	 eax, eax
  00008	8b 0d 5c 02 00
	00		 mov	 ecx, DWORD PTR ?prj@@3VCProject@@A+604
  0000e	7c 11		 jl	 SHORT $L238255
  00010	3b c1		 cmp	 eax, ecx
  00012	7d 0d		 jge	 SHORT $L238255
  00014	73 21		 jae	 SHORT $L238274
  00016	8b 0d 4c 02 00
	00		 mov	 ecx, DWORD PTR ?prj@@3VCProject@@A+588
  0001c	8b 04 81	 mov	 eax, DWORD PTR [ecx+eax*4]
  0001f	eb 18		 jmp	 SHORT $L238250
$L238255:
  00021	50		 push	 eax
  00022	51		 push	 ecx
  00023	6a 00		 push	 0
  00025	68 00 00 00 00	 push	 OFFSET FLAT:??_C@_0BI@BEIFNGEL@GetItemProp?5range_error?$AA@
  0002a	68 00 00 00 00	 push	 OFFSET FLAT:??_C@_0BM@HMFGHCP@?$CFs?5min?3?$CFd?0?5max?3?$CFd?0?5index?3?$CFd?$AA@
  0002f	e8 00 00 00 00	 call	 ?Error@@YAPBDPBDZZ	; Error
  00034	83 c4 14	 add	 esp, 20			; 00000014H
$L238274:
  00037	33 c0		 xor	 eax, eax
$L238250:
  00039	83 b8 94 00 00
	00 ff		 cmp	 DWORD PTR [eax+148], -1
  00040	75 12		 jne	 SHORT $L234568
  00042	8b 96 98 00 00
	00		 mov	 edx, DWORD PTR [esi+152]
  00048	0b 96 9c 00 00
	00		 or	 edx, DWORD PTR [esi+156]
  0004e	75 04		 jne	 SHORT $L234568

; 445  : 	return FALSE;

  00050	33 c0		 xor	 eax, eax
  00052	5e		 pop	 esi

; 446  : }

  00053	c3		 ret	 0
$L234568:

; 444  : 		return TRUE;

  00054	b8 01 00 00 00	 mov	 eax, 1
  00059	5e		 pop	 esi

; 446  : }

  0005a	c3		 ret	 0
?IsLogable@CItemElem@@QAEHXZ ENDP			; CItemElem::IsLogable
; Function compile flags: /Ogty
_TEXT	ENDS
;	COMDAT ??_GCItem@@UAEPAXI@Z
_TEXT	SEGMENT
___flags$ = 8						; size = 4
??_GCItem@@UAEPAXI@Z PROC NEAR				; CItem::`scalar deleting destructor', COMDAT
; _this$ = ecx
  00000	56		 push	 esi
  00001	8b f1		 mov	 esi, ecx
  00003	e8 00 00 00 00	 call	 ??1CItem@@UAE@XZ	; CItem::~CItem
  00008	f6 44 24 08 01	 test	 BYTE PTR ___flags$[esp], 1
  0000d	74 09		 je	 SHORT $L238278
  0000f	56		 push	 esi
  00010	e8 00 00 00 00	 call	 ??3@YAXPAX@Z		; operator delete
  00015	83 c4 04	 add	 esp, 4
$L238278:
  00018	8b c6		 mov	 eax, esi
  0001a	5e		 pop	 esi
  0001b	c2 04 00	 ret	 4
??_GCItem@@UAEPAXI@Z ENDP				; CItem::`scalar deleting destructor'
_TEXT	ENDS
PUBLIC	?GetLimitLevel@CItemElem@@QAEKXZ		; CItemElem::GetLimitLevel
; Function compile flags: /Ogty
;	COMDAT ?GetLimitLevel@CItemElem@@QAEKXZ
_TEXT	SEGMENT
tv227 = -8						; size = 8
?GetLimitLevel@CItemElem@@QAEKXZ PROC NEAR		; CItemElem::GetLimitLevel, COMDAT
; _this$ = ecx

; 676  : {

  00000	83 ec 08	 sub	 esp, 8
  00003	56		 push	 esi
  00004	8b f1		 mov	 esi, ecx

; 677  : 	if( GetProp()->dwLimitLevel1 == 0xFFFFFFFF ) 

  00006	8b 46 0c	 mov	 eax, DWORD PTR [esi+12]
  00009	85 c0		 test	 eax, eax
  0000b	8b 0d 5c 02 00
	00		 mov	 ecx, DWORD PTR ?prj@@3VCProject@@A+604
  00011	7c 11		 jl	 SHORT $L238332
  00013	3b c1		 cmp	 eax, ecx
  00015	7d 0d		 jge	 SHORT $L238332
  00017	73 27		 jae	 SHORT $L238419
  00019	8b 15 4c 02 00
	00		 mov	 edx, DWORD PTR ?prj@@3VCProject@@A+588
  0001f	8b 04 82	 mov	 eax, DWORD PTR [edx+eax*4]
  00022	eb 1e		 jmp	 SHORT $L238327
$L238332:
  00024	50		 push	 eax
  00025	51		 push	 ecx
  00026	6a 00		 push	 0
  00028	68 00 00 00 00	 push	 OFFSET FLAT:??_C@_0BI@BEIFNGEL@GetItemProp?5range_error?$AA@
  0002d	68 00 00 00 00	 push	 OFFSET FLAT:??_C@_0BM@HMFGHCP@?$CFs?5min?3?$CFd?0?5max?3?$CFd?0?5index?3?$CFd?$AA@
  00032	e8 00 00 00 00	 call	 ?Error@@YAPBDPBDZZ	; Error
  00037	8b 0d 5c 02 00
	00		 mov	 ecx, DWORD PTR ?prj@@3VCProject@@A+604
  0003d	83 c4 14	 add	 esp, 20			; 00000014H
$L238419:
  00040	33 c0		 xor	 eax, eax
$L238327:
  00042	83 b8 60 02 00
	00 ff		 cmp	 DWORD PTR [eax+608], -1
  00049	75 08		 jne	 SHORT $L234652

; 678  : 		return 0xFFFFFFFF;

  0004b	83 c8 ff	 or	 eax, -1
  0004e	5e		 pop	 esi

; 682  : 
; 683  : 	return (DWORD)nLimitLevel;
; 684  : }

  0004f	83 c4 08	 add	 esp, 8
  00052	c3		 ret	 0
$L234652:

; 679  : 	int nLimitLevel	= static_cast<int>( GetProp()->dwLimitLevel1 ) + GetLevelDown();

  00053	8b 46 0c	 mov	 eax, DWORD PTR [esi+12]
  00056	85 c0		 test	 eax, eax
  00058	57		 push	 edi
  00059	7c 19		 jl	 SHORT $L238398
  0005b	3b c1		 cmp	 eax, ecx
  0005d	7d 15		 jge	 SHORT $L238398
  0005f	72 06		 jb	 SHORT $L238410
  00061	33 c0		 xor	 eax, eax
  00063	8b f8		 mov	 edi, eax
  00065	eb 25		 jmp	 SHORT $L238393
$L238410:
  00067	8b 0d 4c 02 00
	00		 mov	 ecx, DWORD PTR ?prj@@3VCProject@@A+588
  0006d	8b 04 81	 mov	 eax, DWORD PTR [ecx+eax*4]
  00070	8b f8		 mov	 edi, eax
  00072	eb 18		 jmp	 SHORT $L238393
$L238398:
  00074	50		 push	 eax
  00075	51		 push	 ecx
  00076	6a 00		 push	 0
  00078	68 00 00 00 00	 push	 OFFSET FLAT:??_C@_0BI@BEIFNGEL@GetItemProp?5range_error?$AA@
  0007d	68 00 00 00 00	 push	 OFFSET FLAT:??_C@_0BM@HMFGHCP@?$CFs?5min?3?$CFd?0?5max?3?$CFd?0?5index?3?$CFd?$AA@
  00082	e8 00 00 00 00	 call	 ?Error@@YAPBDPBDZZ	; Error
  00087	83 c4 14	 add	 esp, 20			; 00000014H
  0008a	33 ff		 xor	 edi, edi
$L238393:
  0008c	8b 96 98 00 00
	00		 mov	 edx, DWORD PTR [esi+152]
  00092	8b 86 9c 00 00
	00		 mov	 eax, DWORD PTR [esi+156]
  00098	89 54 24 08	 mov	 DWORD PTR tv227[esp+16], edx
  0009c	8b d0		 mov	 edx, eax
  0009e	81 e2 00 00 00
	80		 and	 edx, -2147483648	; 80000000H
  000a4	33 c9		 xor	 ecx, ecx
  000a6	0b ca		 or	 ecx, edx
  000a8	74 07		 je	 SHORT $L238414
  000aa	b9 f6 ff ff ff	 mov	 ecx, -10		; fffffff6H
  000af	eb 14		 jmp	 SHORT $L238413
$L238414:
  000b1	25 00 00 00 40	 and	 eax, 1073741824		; 40000000H
  000b6	33 c9		 xor	 ecx, ecx
  000b8	0b c8		 or	 ecx, eax
  000ba	74 07		 je	 SHORT $L238416
  000bc	b9 fb ff ff ff	 mov	 ecx, -5			; fffffffbH
  000c1	eb 02		 jmp	 SHORT $L238413
$L238416:
  000c3	33 c9		 xor	 ecx, ecx
$L238413:
  000c5	8b 87 60 02 00
	00		 mov	 eax, DWORD PTR [edi+608]
  000cb	03 c1		 add	 eax, ecx
  000cd	5f		 pop	 edi

; 680  : 	if( nLimitLevel < 0 )

  000ce	79 02		 jns	 SHORT $L234651

; 681  : 		nLimitLevel		= 0;

  000d0	33 c0		 xor	 eax, eax
$L234651:
  000d2	5e		 pop	 esi

; 682  : 
; 683  : 	return (DWORD)nLimitLevel;
; 684  : }

  000d3	83 c4 08	 add	 esp, 8
  000d6	c3		 ret	 0
?GetLimitLevel@CItemElem@@QAEKXZ ENDP			; CItemElem::GetLimitLevel
_TEXT	ENDS
PUBLIC	?IsLimitLevel@CItemElem@@QAEHPAVCMover@@@Z	; CItemElem::IsLimitLevel
; Function compile flags: /Ogty
;	COMDAT ?IsLimitLevel@CItemElem@@QAEHPAVCMover@@@Z
_TEXT	SEGMENT
_pMover$ = 8						; size = 4
?IsLimitLevel@CItemElem@@QAEHPAVCMover@@@Z PROC NEAR	; CItemElem::IsLimitLevel, COMDAT
; _this$ = ecx

; 689  : {

  00000	53		 push	 ebx

; 690  : 	if( pMover->GetJobType() >= JTYPE_MASTER && pMover->GetJobType() > pMover->GetJobType( GetProp()->dwItemJob ) )

  00001	8b 5c 24 08	 mov	 ebx, DWORD PTR _pMover$[esp]
  00005	8b 83 44 06 00
	00		 mov	 eax, DWORD PTR [ebx+1604]
  0000b	56		 push	 esi
  0000c	57		 push	 edi
  0000d	8b f9		 mov	 edi, ecx
  0000f	8d 0c c0	 lea	 ecx, DWORD PTR [eax+eax*8]
  00012	83 3c cd e0 27
	00 00 05	 cmp	 DWORD PTR ?prj@@3VCProject@@A[ecx*8+10208], 5
  0001a	72 62		 jb	 SHORT $L234661
  0001c	8b 0d 5c 02 00
	00		 mov	 ecx, DWORD PTR ?prj@@3VCProject@@A+604
  00022	8d 14 c0	 lea	 edx, DWORD PTR [eax+eax*8]
  00025	8b 47 0c	 mov	 eax, DWORD PTR [edi+12]
  00028	85 c0		 test	 eax, eax
  0002a	8b 34 d5 e0 27
	00 00		 mov	 esi, DWORD PTR ?prj@@3VCProject@@A[edx*8+10208]
  00031	7c 11		 jl	 SHORT $L238486
  00033	3b c1		 cmp	 eax, ecx
  00035	7d 0d		 jge	 SHORT $L238486
  00037	73 21		 jae	 SHORT $L238510
  00039	8b 0d 4c 02 00
	00		 mov	 ecx, DWORD PTR ?prj@@3VCProject@@A+588
  0003f	8b 04 81	 mov	 eax, DWORD PTR [ecx+eax*4]
  00042	eb 18		 jmp	 SHORT $L238481
$L238486:
  00044	50		 push	 eax
  00045	51		 push	 ecx
  00046	6a 00		 push	 0
  00048	68 00 00 00 00	 push	 OFFSET FLAT:??_C@_0BI@BEIFNGEL@GetItemProp?5range_error?$AA@
  0004d	68 00 00 00 00	 push	 OFFSET FLAT:??_C@_0BM@HMFGHCP@?$CFs?5min?3?$CFd?0?5max?3?$CFd?0?5index?3?$CFd?$AA@
  00052	e8 00 00 00 00	 call	 ?Error@@YAPBDPBDZZ	; Error
  00057	83 c4 14	 add	 esp, 20			; 00000014H
$L238510:
  0005a	33 c0		 xor	 eax, eax
$L238481:
  0005c	8b 40 7c	 mov	 eax, DWORD PTR [eax+124]
  0005f	83 f8 ff	 cmp	 eax, -1
  00062	75 06		 jne	 SHORT $L238502
  00064	8b 83 44 06 00
	00		 mov	 eax, DWORD PTR [ebx+1604]
$L238502:
  0006a	8d 14 c0	 lea	 edx, DWORD PTR [eax+eax*8]
  0006d	3b 34 d5 e0 27
	00 00		 cmp	 esi, DWORD PTR ?prj@@3VCProject@@A[edx*8+10208]
  00074	76 08		 jbe	 SHORT $L234661
  00076	5f		 pop	 edi
  00077	5e		 pop	 esi

; 691  : 		return FALSE;

  00078	33 c0		 xor	 eax, eax
  0007a	5b		 pop	 ebx

; 694  : 		return FALSE;
; 695  : 
; 696  : 	return TRUE;
; 697  : }

  0007b	c2 04 00	 ret	 4
$L234661:

; 692  : 
; 693  : 	if( (DWORD)( pMover->GetLevel() ) >= GetLimitLevel() )

  0007e	8b b3 e0 05 00
	00		 mov	 esi, DWORD PTR [ebx+1504]
  00084	8b cf		 mov	 ecx, edi
  00086	e8 00 00 00 00	 call	 ?GetLimitLevel@CItemElem@@QAEKXZ ; CItemElem::GetLimitLevel
  0008b	3b f0		 cmp	 esi, eax
  0008d	5f		 pop	 edi
  0008e	1b c0		 sbb	 eax, eax
  00090	5e		 pop	 esi
  00091	f7 d8		 neg	 eax
  00093	5b		 pop	 ebx

; 694  : 		return FALSE;
; 695  : 
; 696  : 	return TRUE;
; 697  : }

  00094	c2 04 00	 ret	 4
?IsLimitLevel@CItemElem@@QAEHPAVCMover@@@Z ENDP		; CItemElem::IsLimitLevel
_TEXT	ENDS
PUBLIC	?IsActiveTicket@CItemElem@@QAEHK@Z		; CItemElem::IsActiveTicket
EXTRN	?GetInstance@CTicketProperty@@SAPAV1@XZ:NEAR	; CTicketProperty::GetInstance
EXTRN	?GetTicketProp@CTicketProperty@@QAEPAU_TicketProp@@K@Z:NEAR ; CTicketProperty::GetTicketProp
; Function compile flags: /Ogty
;	COMDAT ?IsActiveTicket@CItemElem@@QAEHK@Z
_TEXT	SEGMENT
_dwItemId$ = 8						; size = 4
?IsActiveTicket@CItemElem@@QAEHK@Z PROC NEAR		; CItemElem::IsActiveTicket, COMDAT
; _this$ = ecx

; 763  : {

  00000	56		 push	 esi
  00001	8b f1		 mov	 esi, ecx

; 764  : 	if( !IsFlag( expired ) && GetProp()->dwItemKind3 == IK3_TICKET && m_dwKeepTime > 0 )

  00003	f6 86 82 00 00
	00 01		 test	 BYTE PTR [esi+130], 1
  0000a	75 78		 jne	 SHORT $L234695
  0000c	8b 46 0c	 mov	 eax, DWORD PTR [esi+12]
  0000f	85 c0		 test	 eax, eax
  00011	8b 0d 5c 02 00
	00		 mov	 ecx, DWORD PTR ?prj@@3VCProject@@A+604
  00017	7c 11		 jl	 SHORT $L238568
  00019	3b c1		 cmp	 eax, ecx
  0001b	7d 0d		 jge	 SHORT $L238568
  0001d	73 21		 jae	 SHORT $L238582
  0001f	8b 0d 4c 02 00
	00		 mov	 ecx, DWORD PTR ?prj@@3VCProject@@A+588
  00025	8b 04 81	 mov	 eax, DWORD PTR [ecx+eax*4]
  00028	eb 18		 jmp	 SHORT $L238563
$L238568:
  0002a	50		 push	 eax
  0002b	51		 push	 ecx
  0002c	6a 00		 push	 0
  0002e	68 00 00 00 00	 push	 OFFSET FLAT:??_C@_0BI@BEIFNGEL@GetItemProp?5range_error?$AA@
  00033	68 00 00 00 00	 push	 OFFSET FLAT:??_C@_0BM@HMFGHCP@?$CFs?5min?3?$CFd?0?5max?3?$CFd?0?5index?3?$CFd?$AA@
  00038	e8 00 00 00 00	 call	 ?Error@@YAPBDPBDZZ	; Error
  0003d	83 c4 14	 add	 esp, 20			; 00000014H
$L238582:
  00040	33 c0		 xor	 eax, eax
$L238563:
  00042	83 78 78 7a	 cmp	 DWORD PTR [eax+120], 122 ; 0000007aH
  00046	75 3c		 jne	 SHORT $L234695
  00048	8b 86 b0 00 00
	00		 mov	 eax, DWORD PTR [esi+176]
  0004e	85 c0		 test	 eax, eax
  00050	76 32		 jbe	 SHORT $L234695

; 765  : 	{
; 766  : 		TicketProp*	pProp1	= CTicketProperty::GetInstance()->GetTicketProp( m_dwItemId );

  00052	8b 56 0c	 mov	 edx, DWORD PTR [esi+12]
  00055	52		 push	 edx
  00056	e8 00 00 00 00	 call	 ?GetInstance@CTicketProperty@@SAPAV1@XZ ; CTicketProperty::GetInstance
  0005b	8b c8		 mov	 ecx, eax
  0005d	e8 00 00 00 00	 call	 ?GetTicketProp@CTicketProperty@@QAEPAU_TicketProp@@K@Z ; CTicketProperty::GetTicketProp
  00062	8b f0		 mov	 esi, eax

; 767  : 		TicketProp*	pProp2	= CTicketProperty::GetInstance()->GetTicketProp( dwItemId );

  00064	8b 44 24 08	 mov	 eax, DWORD PTR _dwItemId$[esp]
  00068	50		 push	 eax
  00069	e8 00 00 00 00	 call	 ?GetInstance@CTicketProperty@@SAPAV1@XZ ; CTicketProperty::GetInstance
  0006e	8b c8		 mov	 ecx, eax
  00070	e8 00 00 00 00	 call	 ?GetTicketProp@CTicketProperty@@QAEPAU_TicketProp@@K@Z ; CTicketProperty::GetTicketProp
  00075	8b c8		 mov	 ecx, eax

; 768  : 		return ( pProp1->dwWorldId == pProp2->dwWorldId );

  00077	8b 06		 mov	 eax, DWORD PTR [esi]
  00079	2b 01		 sub	 eax, DWORD PTR [ecx]
  0007b	f7 d8		 neg	 eax
  0007d	1b c0		 sbb	 eax, eax
  0007f	40		 inc	 eax
  00080	5e		 pop	 esi

; 771  : }

  00081	c2 04 00	 ret	 4
$L234695:

; 769  : 	}
; 770  : 	return FALSE;

  00084	33 c0		 xor	 eax, eax
  00086	5e		 pop	 esi

; 771  : }

  00087	c2 04 00	 ret	 4
?IsActiveTicket@CItemElem@@QAEHK@Z ENDP			; CItemElem::IsActiveTicket
_TEXT	ENDS
PUBLIC	?GetVisPetSfxId@CItemElem@@QAEKXZ		; CItemElem::GetVisPetSfxId
; Function compile flags: /Ogty
;	COMDAT ?GetVisPetSfxId@CItemElem@@QAEKXZ
_TEXT	SEGMENT
?GetVisPetSfxId@CItemElem@@QAEKXZ PROC NEAR		; CItemElem::GetVisPetSfxId, COMDAT
; _this$ = ecx

; 826  : {

  00000	53		 push	 ebx
  00001	56		 push	 esi

; 827  : 	int nLevel = 0;
; 828  : 	for( int i=0; i<GetPiercingSize(); i++ )

  00002	8d 71 3c	 lea	 esi, DWORD PTR [ecx+60]
  00005	57		 push	 edi
  00006	8b ce		 mov	 ecx, esi
  00008	33 db		 xor	 ebx, ebx
  0000a	33 ff		 xor	 edi, edi
  0000c	e8 00 00 00 00	 call	 ?GetPiercingSize@CPiercing@@QAEHXZ ; CPiercing::GetPiercingSize
  00011	85 c0		 test	 eax, eax
  00013	7e 3d		 jle	 SHORT $L234722
$L234720:

; 829  : 	{
; 830  : 		ItemProp* pProp = prj.GetItemProp( GetPiercingItem( i ) );

  00015	57		 push	 edi
  00016	8b ce		 mov	 ecx, esi
  00018	e8 00 00 00 00	 call	 ?GetPiercingItem@CPiercing@@QAEKH@Z ; CPiercing::GetPiercingItem
  0001d	85 c0		 test	 eax, eax
  0001f	8b 0d 5c 02 00
	00		 mov	 ecx, DWORD PTR ?prj@@3VCProject@@A+604
  00025	7c 3d		 jl	 SHORT $L238633
  00027	3b c1		 cmp	 eax, ecx
  00029	7d 39		 jge	 SHORT $L238633
  0002b	73 19		 jae	 SHORT $L234721
  0002d	8b 0d 4c 02 00
	00		 mov	 ecx, DWORD PTR ?prj@@3VCProject@@A+588
  00033	8b 04 81	 mov	 eax, DWORD PTR [ecx+eax*4]

; 831  : 		if( pProp && pProp->dwAbilityMax > (DWORD)( nLevel ) )

  00036	85 c0		 test	 eax, eax
  00038	74 0c		 je	 SHORT $L234721
  0003a	8b 80 e8 00 00
	00		 mov	 eax, DWORD PTR [eax+232]
  00040	3b c3		 cmp	 eax, ebx
  00042	76 02		 jbe	 SHORT $L234721

; 832  : 			nLevel = pProp->dwAbilityMax;

  00044	8b d8		 mov	 ebx, eax
$L234721:

; 827  : 	int nLevel = 0;
; 828  : 	for( int i=0; i<GetPiercingSize(); i++ )

  00046	8b ce		 mov	 ecx, esi
  00048	47		 inc	 edi
  00049	e8 00 00 00 00	 call	 ?GetPiercingSize@CPiercing@@QAEHXZ ; CPiercing::GetPiercingSize
  0004e	3b f8		 cmp	 edi, eax
  00050	7c c3		 jl	 SHORT $L234720
$L234722:
  00052	5f		 pop	 edi

; 833  : 	}
; 834  : 
; 835  : 	switch( nLevel )

  00053	8b c3		 mov	 eax, ebx
  00055	48		 dec	 eax
  00056	5e		 pop	 esi
  00057	5b		 pop	 ebx
  00058	74 2e		 je	 SHORT $L234730
  0005a	48		 dec	 eax
  0005b	74 25		 je	 SHORT $L234731
  0005d	48		 dec	 eax
  0005e	74 1c		 je	 SHORT $L234732

; 840  : 	}
; 841  : 
; 842  : 	return NULL_ID;

  00060	83 c8 ff	 or	 eax, -1

; 843  : }

  00063	c3		 ret	 0

; 829  : 	{
; 830  : 		ItemProp* pProp = prj.GetItemProp( GetPiercingItem( i ) );

$L238633:
  00064	50		 push	 eax
  00065	51		 push	 ecx
  00066	6a 00		 push	 0
  00068	68 00 00 00 00	 push	 OFFSET FLAT:??_C@_0BI@BEIFNGEL@GetItemProp?5range_error?$AA@
  0006d	68 00 00 00 00	 push	 OFFSET FLAT:??_C@_0BM@HMFGHCP@?$CFs?5min?3?$CFd?0?5max?3?$CFd?0?5index?3?$CFd?$AA@
  00072	e8 00 00 00 00	 call	 ?Error@@YAPBDPBDZZ	; Error
  00077	83 c4 14	 add	 esp, 20			; 00000014H

; 831  : 		if( pProp && pProp->dwAbilityMax > (DWORD)( nLevel ) )

  0007a	eb ca		 jmp	 SHORT $L234721
$L234732:

; 839  : 		case 3: return XI_BUFFPET_GRADE3;

  0007c	b8 7c 07 00 00	 mov	 eax, 1916		; 0000077cH

; 843  : }

  00081	c3		 ret	 0
$L234731:

; 838  : 		case 2: return XI_BUFFPET_GRADE2;

  00082	b8 7b 07 00 00	 mov	 eax, 1915		; 0000077bH

; 843  : }

  00087	c3		 ret	 0
$L234730:

; 836  : 	{
; 837  : 		case 1:	return XI_BUFFPET_GRADE1;

  00088	b8 7a 07 00 00	 mov	 eax, 1914		; 0000077aH

; 843  : }

  0008d	c3		 ret	 0
?GetVisPetSfxId@CItemElem@@QAEKXZ ENDP			; CItemElem::GetVisPetSfxId
_TEXT	ENDS
PUBLIC	?IsPet@CItemElem@@QAEHXZ			; CItemElem::IsPet
; Function compile flags: /Ogty
; File c:\documents and settings\test\mes documents\source\virtuos_v17\build\program\_common\item.h
;	COMDAT ?IsPet@CItemElem@@QAEHXZ
_TEXT	SEGMENT
?IsPet@CItemElem@@QAEHXZ PROC NEAR			; CItemElem::IsPet, COMDAT
; _this$ = ecx

; 215  : 	BOOL	IsPet( void )	{	return GetProp()->dwItemKind3 == IK3_EGG;	}

  00000	8b 41 0c	 mov	 eax, DWORD PTR [ecx+12]
  00003	85 c0		 test	 eax, eax
  00005	8b 0d 5c 02 00
	00		 mov	 ecx, DWORD PTR ?prj@@3VCProject@@A+604
  0000b	7c 1d		 jl	 SHORT $L238702
  0000d	3b c1		 cmp	 eax, ecx
  0000f	7d 19		 jge	 SHORT $L238702
  00011	73 2d		 jae	 SHORT $L238704
  00013	8b 0d 4c 02 00
	00		 mov	 ecx, DWORD PTR ?prj@@3VCProject@@A+588
  00019	8b 04 81	 mov	 eax, DWORD PTR [ecx+eax*4]
  0001c	8b 48 78	 mov	 ecx, DWORD PTR [eax+120]
  0001f	33 d2		 xor	 edx, edx
  00021	83 f9 78	 cmp	 ecx, 120		; 00000078H
  00024	0f 94 c2	 sete	 dl
  00027	8b c2		 mov	 eax, edx
  00029	c3		 ret	 0
$L238702:
  0002a	50		 push	 eax
  0002b	51		 push	 ecx
  0002c	6a 00		 push	 0
  0002e	68 00 00 00 00	 push	 OFFSET FLAT:??_C@_0BI@BEIFNGEL@GetItemProp?5range_error?$AA@
  00033	68 00 00 00 00	 push	 OFFSET FLAT:??_C@_0BM@HMFGHCP@?$CFs?5min?3?$CFd?0?5max?3?$CFd?0?5index?3?$CFd?$AA@
  00038	e8 00 00 00 00	 call	 ?Error@@YAPBDPBDZZ	; Error
  0003d	83 c4 14	 add	 esp, 20			; 00000014H
$L238704:
  00040	33 c0		 xor	 eax, eax
  00042	8b 48 78	 mov	 ecx, DWORD PTR [eax+120]
  00045	33 d2		 xor	 edx, edx
  00047	83 f9 78	 cmp	 ecx, 120		; 00000078H
  0004a	0f 94 c2	 sete	 dl
  0004d	8b c2		 mov	 eax, edx
  0004f	c3		 ret	 0
?IsPet@CItemElem@@QAEHXZ ENDP				; CItemElem::IsPet
_TEXT	ENDS
PUBLIC	?IsVisPet@CItemElem@@QAEHXZ			; CItemElem::IsVisPet
; Function compile flags: /Ogty
;	COMDAT ?IsVisPet@CItemElem@@QAEHXZ
_TEXT	SEGMENT
?IsVisPet@CItemElem@@QAEHXZ PROC NEAR			; CItemElem::IsVisPet, COMDAT
; _this$ = ecx

; 274  : 	BOOL	IsVisPet()	{ return ( GetProp() && GetProp()->IsVisPet() ) || IsTransformVisPet() ; }

  00000	56		 push	 esi
  00001	57		 push	 edi
  00002	8b f9		 mov	 edi, ecx
  00004	8b 47 0c	 mov	 eax, DWORD PTR [edi+12]
  00007	85 c0		 test	 eax, eax
  00009	8b 0d 5c 02 00
	00		 mov	 ecx, DWORD PTR ?prj@@3VCProject@@A+604
  0000f	7c 21		 jl	 SHORT $L238774
  00011	3b c1		 cmp	 eax, ecx
  00013	7d 1d		 jge	 SHORT $L238774
  00015	73 5a		 jae	 SHORT $L238845
  00017	8b 35 4c 02 00
	00		 mov	 esi, DWORD PTR ?prj@@3VCProject@@A+588
  0001d	8b 14 86	 mov	 edx, DWORD PTR [esi+eax*4]
  00020	85 d2		 test	 edx, edx
  00022	74 4d		 je	 SHORT $L238845
  00024	85 c0		 test	 eax, eax
  00026	7c 22		 jl	 SHORT $L238839
  00028	3b c1		 cmp	 eax, ecx
  0002a	7d 1e		 jge	 SHORT $L238839
  0002c	73 32		 jae	 SHORT $L238848
  0002e	8b c2		 mov	 eax, edx
  00030	eb 30		 jmp	 SHORT $L238834
$L238774:
  00032	50		 push	 eax
  00033	51		 push	 ecx
  00034	6a 00		 push	 0
  00036	68 00 00 00 00	 push	 OFFSET FLAT:??_C@_0BI@BEIFNGEL@GetItemProp?5range_error?$AA@
  0003b	68 00 00 00 00	 push	 OFFSET FLAT:??_C@_0BM@HMFGHCP@?$CFs?5min?3?$CFd?0?5max?3?$CFd?0?5index?3?$CFd?$AA@
  00040	e8 00 00 00 00	 call	 ?Error@@YAPBDPBDZZ	; Error
  00045	83 c4 14	 add	 esp, 20			; 00000014H
  00048	eb 27		 jmp	 SHORT $L238845
$L238839:
  0004a	50		 push	 eax
  0004b	51		 push	 ecx
  0004c	6a 00		 push	 0
  0004e	68 00 00 00 00	 push	 OFFSET FLAT:??_C@_0BI@BEIFNGEL@GetItemProp?5range_error?$AA@
  00053	68 00 00 00 00	 push	 OFFSET FLAT:??_C@_0BM@HMFGHCP@?$CFs?5min?3?$CFd?0?5max?3?$CFd?0?5index?3?$CFd?$AA@
  00058	e8 00 00 00 00	 call	 ?Error@@YAPBDPBDZZ	; Error
  0005d	83 c4 14	 add	 esp, 20			; 00000014H
$L238848:
  00060	33 c0		 xor	 eax, eax
$L238834:
  00062	83 78 78 64	 cmp	 DWORD PTR [eax+120], 100 ; 00000064H
  00066	75 09		 jne	 SHORT $L238845
  00068	83 b8 00 02 00
	00 01		 cmp	 DWORD PTR [eax+512], 1
  0006f	74 0e		 je	 SHORT $L238709
$L238845:
  00071	8b cf		 mov	 ecx, edi
  00073	e8 00 00 00 00	 call	 ?IsTransformVisPet@CItemElem@@QAEHXZ ; CItemElem::IsTransformVisPet
  00078	85 c0		 test	 eax, eax
  0007a	75 03		 jne	 SHORT $L238709
  0007c	5f		 pop	 edi
  0007d	5e		 pop	 esi
  0007e	c3		 ret	 0
$L238709:
  0007f	5f		 pop	 edi
  00080	b8 01 00 00 00	 mov	 eax, 1
  00085	5e		 pop	 esi
  00086	c3		 ret	 0
?IsVisPet@CItemElem@@QAEHXZ ENDP			; CItemElem::IsVisPet
_TEXT	ENDS
PUBLIC	??1?$CStringT@DV?$StrTraitMFC@DV?$ChTraitsCRT@D@ATL@@@@@ATL@@QAE@XZ ; ATL::CStringT<char,StrTraitMFC<char,ATL::ChTraitsCRT<char> > >::~CStringT<char,StrTraitMFC<char,ATL::ChTraitsCRT<char> > >
; Function compile flags: /Ogty
; File c:\program files\microsoft visual studio .net 2003\vc7\atlmfc\include\cstringt.h
;	COMDAT ??1?$CStringT@DV?$StrTraitMFC@DV?$ChTraitsCRT@D@ATL@@@@@ATL@@QAE@XZ
_TEXT	SEGMENT
??1?$CStringT@DV?$StrTraitMFC@DV?$ChTraitsCRT@D@ATL@@@@@ATL@@QAE@XZ PROC NEAR ; ATL::CStringT<char,StrTraitMFC<char,ATL::ChTraitsCRT<char> > >::~CStringT<char,StrTraitMFC<char,ATL::ChTraitsCRT<char> > >, COMDAT
; _this$ = ecx

; 963  : 	}

  00000	8b 01		 mov	 eax, DWORD PTR [ecx]
  00002	83 e8 10	 sub	 eax, 16			; 00000010H
  00005	8d 48 0c	 lea	 ecx, DWORD PTR [eax+12]
  00008	83 ca ff	 or	 edx, -1
  0000b	f0 0f c1 11	 lock	  xadd	 DWORD PTR [ecx], edx
  0000f	4a		 dec	 edx
  00010	85 d2		 test	 edx, edx
  00012	7f 08		 jg	 SHORT $L238865
  00014	8b 08		 mov	 ecx, DWORD PTR [eax]
  00016	8b 11		 mov	 edx, DWORD PTR [ecx]
  00018	50		 push	 eax
  00019	ff 52 04	 call	 DWORD PTR [edx+4]
$L238865:
  0001c	c3		 ret	 0
??1?$CStringT@DV?$StrTraitMFC@DV?$ChTraitsCRT@D@ATL@@@@@ATL@@QAE@XZ ENDP ; ATL::CStringT<char,StrTraitMFC<char,ATL::ChTraitsCRT<char> > >::~CStringT<char,StrTraitMFC<char,ATL::ChTraitsCRT<char> > >
_TEXT	ENDS
PUBLIC	??0?$CSimpleStringT@D$0A@@ATL@@QAE@ABV01@@Z	; ATL::CSimpleStringT<char,0>::CSimpleStringT<char,0>
; Function compile flags: /Ogty
; File c:\program files\microsoft visual studio .net 2003\vc7\atlmfc\include\atlsimpstr.h
;	COMDAT ??0?$CSimpleStringT@D$0A@@ATL@@QAE@ABV01@@Z
_TEXT	SEGMENT
_strSrc$ = 8						; size = 4
??0?$CSimpleStringT@D$0A@@ATL@@QAE@ABV01@@Z PROC NEAR	; ATL::CSimpleStringT<char,0>::CSimpleStringT<char,0>, COMDAT
; _this$ = ecx

; 218  : 	{
; 219  : 		CStringData* pSrcData = strSrc.GetData();

  00000	8b 44 24 04	 mov	 eax, DWORD PTR _strSrc$[esp-4]
  00004	8b 00		 mov	 eax, DWORD PTR [eax]
  00006	56		 push	 esi
  00007	83 e8 10	 sub	 eax, 16			; 00000010H

; 220  : 		CStringData* pNewData = CloneData( pSrcData );

  0000a	50		 push	 eax
  0000b	8b f1		 mov	 esi, ecx
  0000d	e8 00 00 00 00	 call	 ?CloneData@?$CSimpleStringT@D$0A@@ATL@@CAPAUCStringData@2@PAU32@@Z ; ATL::CSimpleStringT<char,0>::CloneData

; 221  : 		Attach( pNewData );

  00012	83 c0 10	 add	 eax, 16			; 00000010H
  00015	89 06		 mov	 DWORD PTR [esi], eax
  00017	83 c4 04	 add	 esp, 4

; 222  : 	}

  0001a	8b c6		 mov	 eax, esi
  0001c	5e		 pop	 esi
  0001d	c2 04 00	 ret	 4
??0?$CSimpleStringT@D$0A@@ATL@@QAE@ABV01@@Z ENDP	; ATL::CSimpleStringT<char,0>::CSimpleStringT<char,0>
_TEXT	ENDS
