; Listing generated by Microsoft (R) Optimizing Compiler Version 13.10.6030 

	TITLE	\Documents and Settings\test\Mes documents\Source\Virtuos_v17\Build\Program\_Common\LuaBase.cpp
	.386P
include listing.inc
if @Version gt 510
.model FLAT
else
_TEXT	SEGMENT PARA USE32 PUBLIC 'CODE'
_TEXT	ENDS
_DATA	SEGMENT DWORD USE32 PUBLIC 'DATA'
_DATA	ENDS
CONST	SEGMENT DWORD USE32 PUBLIC 'CONST'
CONST	ENDS
_BSS	SEGMENT DWORD USE32 PUBLIC 'BSS'
_BSS	ENDS
$$SYMBOLS	SEGMENT BYTE USE32 'DEBSYM'
$$SYMBOLS	ENDS
$$TYPES	SEGMENT BYTE USE32 'DEBTYP'
$$TYPES	ENDS
_TLS	SEGMENT DWORD USE32 PUBLIC 'TLS'
_TLS	ENDS
;	COMDAT ??_C@_05EHILDPJH@TRACE?$AA@
CONST	SEGMENT DWORD USE32 PUBLIC 'CONST'
CONST	ENDS
;	COMDAT ??_C@_05MBDEGLCK@ERROR?$AA@
CONST	SEGMENT DWORD USE32 PUBLIC 'CONST'
CONST	ENDS
;	COMDAT ??_C@_08HKLBHHKO@LUA?5?9?5?$CFs?$AA@
CONST	SEGMENT DWORD USE32 PUBLIC 'CONST'
CONST	ENDS
xdata$x	SEGMENT DWORD USE32 PUBLIC 'CONST'
xdata$x	ENDS
text$AFX_COL1	SEGMENT PARA USE32 PUBLIC ''
text$AFX_COL1	ENDS
;	COMDAT ??0CLuaBase@@QAE@XZ
_TEXT	SEGMENT PARA USE32 PUBLIC 'CODE'
_TEXT	ENDS
;	COMDAT ??_GCLuaBase@@UAEPAXI@Z
_TEXT	SEGMENT PARA USE32 PUBLIC 'CODE'
_TEXT	ENDS
;	COMDAT ??1CLuaBase@@UAE@XZ
_TEXT	SEGMENT PARA USE32 PUBLIC 'CODE'
_TEXT	ENDS
;	COMDAT ?_TRACE@CLuaBase@@SAHPAUlua_State@@@Z
_TEXT	SEGMENT PARA USE32 PUBLIC 'CODE'
_TEXT	ENDS
;	COMDAT ?_ERROR@CLuaBase@@SAHPAUlua_State@@@Z
_TEXT	SEGMENT PARA USE32 PUBLIC 'CODE'
_TEXT	ENDS
;	COMDAT ?RegisterFunction@CLuaBase@@QAEXPADP6AHPAUlua_State@@@Z@Z
_TEXT	SEGMENT PARA USE32 PUBLIC 'CODE'
_TEXT	ENDS
;	COMDAT ?RunScript@CLuaBase@@QAEHPBD@Z
_TEXT	SEGMENT PARA USE32 PUBLIC 'CODE'
_TEXT	ENDS
;	COMDAT ?GetLuaFunction@CLuaBase@@QAEHPAD@Z
_TEXT	SEGMENT PARA USE32 PUBLIC 'CODE'
_TEXT	ENDS
;	COMDAT ?CallLuaFunction@CLuaBase@@QAEXHH@Z
_TEXT	SEGMENT PARA USE32 PUBLIC 'CODE'
_TEXT	ENDS
;	COMDAT ?GetGlobalNumber@CLuaBase@@QAENPAD@Z
_TEXT	SEGMENT PARA USE32 PUBLIC 'CODE'
_TEXT	ENDS
;	COMDAT ?GetGlobalString@CLuaBase@@QAEPBDPAD@Z
_TEXT	SEGMENT PARA USE32 PUBLIC 'CODE'
_TEXT	ENDS
;	COMDAT ?GetGlobalBool@CLuaBase@@QAEHPAD@Z
_TEXT	SEGMENT PARA USE32 PUBLIC 'CODE'
_TEXT	ENDS
;	COMDAT ?Pop@CLuaBase@@QAEXH@Z
_TEXT	SEGMENT PARA USE32 PUBLIC 'CODE'
_TEXT	ENDS
;	COMDAT ?GetFieldToNumber@CLuaBase@@QAENHPAD@Z
_TEXT	SEGMENT PARA USE32 PUBLIC 'CODE'
_TEXT	ENDS
;	COMDAT ?GetFieldToString@CLuaBase@@QAEPBDHPAD@Z
_TEXT	SEGMENT PARA USE32 PUBLIC 'CODE'
_TEXT	ENDS
;	COMDAT ?GetFieldToBool@CLuaBase@@QAEHHPAD@Z
_TEXT	SEGMENT PARA USE32 PUBLIC 'CODE'
_TEXT	ENDS
;	COMDAT ?compare@?$basic_string@DU?$char_traits@D@std@@V?$allocator@D@2@@std@@QBEHABV12@@Z
_TEXT	SEGMENT PARA USE32 PUBLIC 'CODE'
_TEXT	ENDS
;	COMDAT ?IsFull@?$CStack@K@@QAEHXZ
_TEXT	SEGMENT PARA USE32 PUBLIC 'CODE'
_TEXT	ENDS
;	COMDAT ??0?$pair@KPAVCCtrl@@@std@@QAE@ABKABQAVCCtrl@@@Z
_TEXT	SEGMENT PARA USE32 PUBLIC 'CODE'
_TEXT	ENDS
;	COMDAT ?GetMax@?$CItemContainer@VCItemElem@@@@QAEHXZ
_TEXT	SEGMENT PARA USE32 PUBLIC 'CODE'
_TEXT	ENDS
;	COMDAT ??0?$deque@PAUtagACTMSG@@V?$allocator@PAUtagACTMSG@@@std@@@std@@QAE@XZ
_TEXT	SEGMENT PARA USE32 PUBLIC 'CODE'
_TEXT	ENDS
;	COMDAT ??1?$deque@PAUtagACTMSG@@V?$allocator@PAUtagACTMSG@@@std@@@std@@QAE@XZ
_TEXT	SEGMENT PARA USE32 PUBLIC 'CODE'
_TEXT	ENDS
;	COMDAT ?begin@?$deque@PAUtagACTMSG@@V?$allocator@PAUtagACTMSG@@@std@@@std@@QAE?AViterator@12@XZ
_TEXT	SEGMENT PARA USE32 PUBLIC 'CODE'
_TEXT	ENDS
;	COMDAT ?end@?$deque@PAUtagACTMSG@@V?$allocator@PAUtagACTMSG@@@std@@@std@@QAE?AViterator@12@XZ
_TEXT	SEGMENT PARA USE32 PUBLIC 'CODE'
_TEXT	ENDS
;	COMDAT ?empty@?$deque@PAUtagACTMSG@@V?$allocator@PAUtagACTMSG@@@std@@@std@@QBE_NXZ
_TEXT	SEGMENT PARA USE32 PUBLIC 'CODE'
_TEXT	ENDS
;	COMDAT ?clear@?$deque@PAUtagACTMSG@@V?$allocator@PAUtagACTMSG@@@std@@@std@@QAEXXZ
_TEXT	SEGMENT PARA USE32 PUBLIC 'CODE'
_TEXT	ENDS
;	COMDAT ??0?$deque@PAUtagMAGICATKMSG@@V?$allocator@PAUtagMAGICATKMSG@@@std@@@std@@QAE@XZ
_TEXT	SEGMENT PARA USE32 PUBLIC 'CODE'
_TEXT	ENDS
;	COMDAT ??1?$deque@PAUtagMAGICATKMSG@@V?$allocator@PAUtagMAGICATKMSG@@@std@@@std@@QAE@XZ
_TEXT	SEGMENT PARA USE32 PUBLIC 'CODE'
_TEXT	ENDS
;	COMDAT ?begin@?$deque@PAUtagMAGICATKMSG@@V?$allocator@PAUtagMAGICATKMSG@@@std@@@std@@QAE?AViterator@12@XZ
_TEXT	SEGMENT PARA USE32 PUBLIC 'CODE'
_TEXT	ENDS
;	COMDAT ?end@?$deque@PAUtagMAGICATKMSG@@V?$allocator@PAUtagMAGICATKMSG@@@std@@@std@@QAE?AViterator@12@XZ
_TEXT	SEGMENT PARA USE32 PUBLIC 'CODE'
_TEXT	ENDS
;	COMDAT ?empty@?$deque@PAUtagMAGICATKMSG@@V?$allocator@PAUtagMAGICATKMSG@@@std@@@std@@QBE_NXZ
_TEXT	SEGMENT PARA USE32 PUBLIC 'CODE'
_TEXT	ENDS
;	COMDAT ?clear@?$deque@PAUtagMAGICATKMSG@@V?$allocator@PAUtagMAGICATKMSG@@@std@@@std@@QAEXXZ
_TEXT	SEGMENT PARA USE32 PUBLIC 'CODE'
_TEXT	ENDS
;	COMDAT ??Diterator@?$deque@PAUtagACTMSG@@V?$allocator@PAUtagACTMSG@@@std@@@std@@QBEAAPAUtagACTMSG@@XZ
_TEXT	SEGMENT PARA USE32 PUBLIC 'CODE'
_TEXT	ENDS
;	COMDAT ??Eiterator@?$deque@PAUtagACTMSG@@V?$allocator@PAUtagACTMSG@@@std@@@std@@QAEAAV012@XZ
_TEXT	SEGMENT PARA USE32 PUBLIC 'CODE'
_TEXT	ENDS
;	COMDAT ??9const_iterator@?$deque@PAUtagACTMSG@@V?$allocator@PAUtagACTMSG@@@std@@@std@@QBE_NABV012@@Z
_TEXT	SEGMENT PARA USE32 PUBLIC 'CODE'
_TEXT	ENDS
;	COMDAT ??Diterator@?$deque@PAUtagMAGICATKMSG@@V?$allocator@PAUtagMAGICATKMSG@@@std@@@std@@QBEAAPAUtagMAGICATKMSG@@XZ
_TEXT	SEGMENT PARA USE32 PUBLIC 'CODE'
_TEXT	ENDS
;	COMDAT ??Eiterator@?$deque@PAUtagMAGICATKMSG@@V?$allocator@PAUtagMAGICATKMSG@@@std@@@std@@QAEAAV012@XZ
_TEXT	SEGMENT PARA USE32 PUBLIC 'CODE'
_TEXT	ENDS
;	COMDAT ??9const_iterator@?$deque@PAUtagMAGICATKMSG@@V?$allocator@PAUtagMAGICATKMSG@@@std@@@std@@QBE_NABV012@@Z
_TEXT	SEGMENT PARA USE32 PUBLIC 'CODE'
_TEXT	ENDS
;	COMDAT ?compare@?$basic_string@DU?$char_traits@D@std@@V?$allocator@D@2@@std@@QBEHIIPBDI@Z
_TEXT	SEGMENT PARA USE32 PUBLIC 'CODE'
_TEXT	ENDS
;	COMDAT ?_Tidy@?$deque@PAUtagACTMSG@@V?$allocator@PAUtagACTMSG@@@std@@@std@@IAEXXZ
_TEXT	SEGMENT PARA USE32 PUBLIC 'CODE'
_TEXT	ENDS
;	COMDAT ??0?$_Deque_val@PAUtagACTMSG@@V?$allocator@PAUtagACTMSG@@@std@@@std@@IAE@V?$allocator@PAUtagACTMSG@@@1@@Z
_TEXT	SEGMENT PARA USE32 PUBLIC 'CODE'
_TEXT	ENDS
;	COMDAT ??0?$allocator@PAUtagACTMSG@@@std@@QAE@XZ
_TEXT	SEGMENT PARA USE32 PUBLIC 'CODE'
_TEXT	ENDS
;	COMDAT ?_Tidy@?$deque@PAUtagMAGICATKMSG@@V?$allocator@PAUtagMAGICATKMSG@@@std@@@std@@IAEXXZ
_TEXT	SEGMENT PARA USE32 PUBLIC 'CODE'
_TEXT	ENDS
;	COMDAT ??0?$_Deque_val@PAUtagMAGICATKMSG@@V?$allocator@PAUtagMAGICATKMSG@@@std@@@std@@IAE@V?$allocator@PAUtagMAGICATKMSG@@@1@@Z
_TEXT	SEGMENT PARA USE32 PUBLIC 'CODE'
_TEXT	ENDS
;	COMDAT ??0?$allocator@PAUtagMAGICATKMSG@@@std@@QAE@XZ
_TEXT	SEGMENT PARA USE32 PUBLIC 'CODE'
_TEXT	ENDS
;	COMDAT ??0iterator@?$deque@PAUtagACTMSG@@V?$allocator@PAUtagACTMSG@@@std@@@std@@QAE@IPBV12@@Z
_TEXT	SEGMENT PARA USE32 PUBLIC 'CODE'
_TEXT	ENDS
;	COMDAT ??Dconst_iterator@?$deque@PAUtagACTMSG@@V?$allocator@PAUtagACTMSG@@@std@@@std@@QBEABQAUtagACTMSG@@XZ
_TEXT	SEGMENT PARA USE32 PUBLIC 'CODE'
_TEXT	ENDS
;	COMDAT ??8const_iterator@?$deque@PAUtagACTMSG@@V?$allocator@PAUtagACTMSG@@@std@@@std@@QBE_NABV012@@Z
_TEXT	SEGMENT PARA USE32 PUBLIC 'CODE'
_TEXT	ENDS
;	COMDAT ??0iterator@?$deque@PAUtagMAGICATKMSG@@V?$allocator@PAUtagMAGICATKMSG@@@std@@@std@@QAE@IPBV12@@Z
_TEXT	SEGMENT PARA USE32 PUBLIC 'CODE'
_TEXT	ENDS
;	COMDAT ??Dconst_iterator@?$deque@PAUtagMAGICATKMSG@@V?$allocator@PAUtagMAGICATKMSG@@@std@@@std@@QBEABQAUtagMAGICATKMSG@@XZ
_TEXT	SEGMENT PARA USE32 PUBLIC 'CODE'
_TEXT	ENDS
;	COMDAT ??8const_iterator@?$deque@PAUtagMAGICATKMSG@@V?$allocator@PAUtagMAGICATKMSG@@@std@@@std@@QBE_NABV012@@Z
_TEXT	SEGMENT PARA USE32 PUBLIC 'CODE'
_TEXT	ENDS
;	COMDAT ?pop_back@?$deque@PAUtagACTMSG@@V?$allocator@PAUtagACTMSG@@@std@@@std@@QAEXXZ
_TEXT	SEGMENT PARA USE32 PUBLIC 'CODE'
_TEXT	ENDS
;	COMDAT ??0?$_Deque_map@PAUtagACTMSG@@V?$allocator@PAUtagACTMSG@@@std@@@std@@IAE@V?$allocator@PAUtagACTMSG@@@1@@Z
_TEXT	SEGMENT PARA USE32 PUBLIC 'CODE'
_TEXT	ENDS
;	COMDAT ??0?$allocator@PAUtagACTMSG@@@std@@QAE@ABV01@@Z
_TEXT	SEGMENT PARA USE32 PUBLIC 'CODE'
_TEXT	ENDS
;	COMDAT ?deallocate@?$allocator@PAUtagACTMSG@@@std@@QAEXPAPAUtagACTMSG@@I@Z
_TEXT	SEGMENT PARA USE32 PUBLIC 'CODE'
_TEXT	ENDS
;	COMDAT ?deallocate@?$allocator@PAPAUtagACTMSG@@@std@@QAEXPAPAPAUtagACTMSG@@I@Z
_TEXT	SEGMENT PARA USE32 PUBLIC 'CODE'
_TEXT	ENDS
;	COMDAT ?destroy@?$allocator@PAPAUtagACTMSG@@@std@@QAEXPAPAPAUtagACTMSG@@@Z
_TEXT	SEGMENT PARA USE32 PUBLIC 'CODE'
_TEXT	ENDS
;	COMDAT ?pop_back@?$deque@PAUtagMAGICATKMSG@@V?$allocator@PAUtagMAGICATKMSG@@@std@@@std@@QAEXXZ
_TEXT	SEGMENT PARA USE32 PUBLIC 'CODE'
_TEXT	ENDS
;	COMDAT ??0?$_Deque_map@PAUtagMAGICATKMSG@@V?$allocator@PAUtagMAGICATKMSG@@@std@@@std@@IAE@V?$allocator@PAUtagMAGICATKMSG@@@1@@Z
_TEXT	SEGMENT PARA USE32 PUBLIC 'CODE'
_TEXT	ENDS
;	COMDAT ??0?$allocator@PAUtagMAGICATKMSG@@@std@@QAE@ABV01@@Z
_TEXT	SEGMENT PARA USE32 PUBLIC 'CODE'
_TEXT	ENDS
;	COMDAT ?deallocate@?$allocator@PAUtagMAGICATKMSG@@@std@@QAEXPAPAUtagMAGICATKMSG@@I@Z
_TEXT	SEGMENT PARA USE32 PUBLIC 'CODE'
_TEXT	ENDS
;	COMDAT ?deallocate@?$allocator@PAPAUtagMAGICATKMSG@@@std@@QAEXPAPAPAUtagMAGICATKMSG@@I@Z
_TEXT	SEGMENT PARA USE32 PUBLIC 'CODE'
_TEXT	ENDS
;	COMDAT ?destroy@?$allocator@PAPAUtagMAGICATKMSG@@@std@@QAEXPAPAPAUtagMAGICATKMSG@@@Z
_TEXT	SEGMENT PARA USE32 PUBLIC 'CODE'
_TEXT	ENDS
;	COMDAT ??0const_iterator@?$deque@PAUtagACTMSG@@V?$allocator@PAUtagACTMSG@@@std@@@std@@QAE@IPBV12@@Z
_TEXT	SEGMENT PARA USE32 PUBLIC 'CODE'
_TEXT	ENDS
;	COMDAT ??0const_iterator@?$deque@PAUtagMAGICATKMSG@@V?$allocator@PAUtagMAGICATKMSG@@@std@@@std@@QAE@IPBV12@@Z
_TEXT	SEGMENT PARA USE32 PUBLIC 'CODE'
_TEXT	ENDS
;	COMDAT ?destroy@?$allocator@PAUtagACTMSG@@@std@@QAEXPAPAUtagACTMSG@@@Z
_TEXT	SEGMENT PARA USE32 PUBLIC 'CODE'
_TEXT	ENDS
;	COMDAT ?destroy@?$allocator@PAUtagMAGICATKMSG@@@std@@QAEXPAPAUtagMAGICATKMSG@@@Z
_TEXT	SEGMENT PARA USE32 PUBLIC 'CODE'
_TEXT	ENDS
;	COMDAT ??$_Iter_cat@Vconst_iterator@?$vector@EV?$allocator@E@std@@@std@@@std@@YA?AUrandom_access_iterator_tag@0@ABVconst_iterator@?$vector@EV?$allocator@E@std@@@0@@Z
_TEXT	SEGMENT PARA USE32 PUBLIC 'CODE'
_TEXT	ENDS
;	COMDAT ??$_Assign@Vconst_iterator@?$vector@EV?$allocator@E@std@@@std@@@?$vector@EV?$allocator@E@std@@@std@@QAEXVconst_iterator@01@0Uinput_iterator_tag@1@@Z
_TEXT	SEGMENT PARA USE32 PUBLIC 'CODE'
_TEXT	ENDS
;	COMDAT ??$_Iter_cat@Viterator@?$_Tree@V?$_Tmap_traits@KPAVCUser@@U?$less@K@std@@V?$allocator@U?$pair@$$CBKPAVCUser@@@std@@@3@$0A@@std@@@std@@@std@@YA?AUbidirectional_iterator_tag@0@ABViterator@?$_Tree@V?$_Tmap_traits@KPAVCUser@@U?$less@K@std@@V?$allocator@U?$pair@$$CBKPAVCUser@@@std@@@3@$0A@@std@@@0@@Z
_TEXT	SEGMENT PARA USE32 PUBLIC 'CODE'
_TEXT	ENDS
;	COMDAT ??$_Distance2@Viterator@?$_Tree@V?$_Tmap_traits@KPAVCUser@@U?$less@K@std@@V?$allocator@U?$pair@$$CBKPAVCUser@@@std@@@3@$0A@@std@@@std@@I@std@@YAXViterator@?$_Tree@V?$_Tmap_traits@KPAVCUser@@U?$less@K@std@@V?$allocator@U?$pair@$$CBKPAVCUser@@@std@@@3@$0A@@std@@@0@0AAIUbidirectional_iterator_tag@0@@Z
_TEXT	SEGMENT PARA USE32 PUBLIC 'CODE'
_TEXT	ENDS
;	COMDAT ??$_Iter_cat@Viterator@?$_Tree@V?$_Tmap_traits@KPAVCCtrl@@U?$less@K@std@@V?$allocator@U?$pair@$$CBKPAVCCtrl@@@std@@@3@$0A@@std@@@std@@@std@@YA?AUbidirectional_iterator_tag@0@ABViterator@?$_Tree@V?$_Tmap_traits@KPAVCCtrl@@U?$less@K@std@@V?$allocator@U?$pair@$$CBKPAVCCtrl@@@std@@@3@$0A@@std@@@0@@Z
_TEXT	SEGMENT PARA USE32 PUBLIC 'CODE'
_TEXT	ENDS
;	COMDAT ??$_Distance2@Viterator@?$_Tree@V?$_Tmap_traits@KPAVCCtrl@@U?$less@K@std@@V?$allocator@U?$pair@$$CBKPAVCCtrl@@@std@@@3@$0A@@std@@@std@@I@std@@YAXViterator@?$_Tree@V?$_Tmap_traits@KPAVCCtrl@@U?$less@K@std@@V?$allocator@U?$pair@$$CBKPAVCCtrl@@@std@@@3@$0A@@std@@@0@0AAIUbidirectional_iterator_tag@0@@Z
_TEXT	SEGMENT PARA USE32 PUBLIC 'CODE'
_TEXT	ENDS
;	COMDAT ??$_Uninitialized_copy@Vconst_iterator@?$vector@EV?$allocator@E@std@@@std@@PAEV?$allocator@E@3@@std@@YAPAEVconst_iterator@?$vector@EV?$allocator@E@std@@@0@0PAEAAV?$allocator@E@0@@Z
_TEXT	SEGMENT PARA USE32 PUBLIC 'CODE'
_TEXT	ENDS
;	COMDAT ??$_Iter_cat@Viterator@?$_Tree@V?$_Tmap_traits@KEU?$less@K@std@@V?$allocator@U?$pair@$$CBKE@std@@@2@$0A@@std@@@std@@@std@@YA?AUbidirectional_iterator_tag@0@ABViterator@?$_Tree@V?$_Tmap_traits@KEU?$less@K@std@@V?$allocator@U?$pair@$$CBKE@std@@@2@$0A@@std@@@0@@Z
_TEXT	SEGMENT PARA USE32 PUBLIC 'CODE'
_TEXT	ENDS
;	COMDAT ??$_Distance2@Viterator@?$_Tree@V?$_Tmap_traits@KEU?$less@K@std@@V?$allocator@U?$pair@$$CBKE@std@@@2@$0A@@std@@@std@@I@std@@YAXViterator@?$_Tree@V?$_Tmap_traits@KEU?$less@K@std@@V?$allocator@U?$pair@$$CBKE@std@@@2@$0A@@std@@@0@0AAIUbidirectional_iterator_tag@0@@Z
_TEXT	SEGMENT PARA USE32 PUBLIC 'CODE'
_TEXT	ENDS
;	COMDAT ??$_Ptr_cat@PAU__SPAWNREGION@CEventLua@@PAU12@@std@@YA?AU_Nonscalar_ptr_iterator_tag@0@AAPAU__SPAWNREGION@CEventLua@@0@Z
_TEXT	SEGMENT PARA USE32 PUBLIC 'CODE'
_TEXT	ENDS
;	COMDAT ??$_Uninit_fill_n@PAU__SPAWNREGION@CEventLua@@IU12@V?$allocator@U__SPAWNREGION@CEventLua@@@std@@@std@@YAXPAU__SPAWNREGION@CEventLua@@IABU12@AAV?$allocator@U__SPAWNREGION@CEventLua@@@0@U_Nonscalar_ptr_iterator_tag@0@@Z
_TEXT	SEGMENT PARA USE32 PUBLIC 'CODE'
_TEXT	ENDS
;	COMDAT ??$_Copy_opt@PAJPAJ@std@@YAPAJPAJ00U_Scalar_ptr_iterator_tag@0@@Z
_TEXT	SEGMENT PARA USE32 PUBLIC 'CODE'
_TEXT	ENDS
;	COMDAT ??$_Uninitialized_copy@PAJPAJV?$allocator@J@std@@@std@@YAPAJPAJ00AAV?$allocator@J@0@@Z
_TEXT	SEGMENT PARA USE32 PUBLIC 'CODE'
_TEXT	ENDS
;	COMDAT ??$_Copy_backward_opt@PAJPAJ@std@@YAPAJPAJ00U_Scalar_ptr_iterator_tag@0@@Z
_TEXT	SEGMENT PARA USE32 PUBLIC 'CODE'
_TEXT	ENDS
;	COMDAT ??$_Ptr_cat@PAUtagDROPITEM@@PAU1@@std@@YA?AU_Nonscalar_ptr_iterator_tag@0@AAPAUtagDROPITEM@@0@Z
_TEXT	SEGMENT PARA USE32 PUBLIC 'CODE'
_TEXT	ENDS
;	COMDAT ??$_Destroy_range@UtagDROPITEM@@V?$allocator@UtagDROPITEM@@@std@@@std@@YAXPAUtagDROPITEM@@0AAV?$allocator@UtagDROPITEM@@@0@U_Nonscalar_ptr_iterator_tag@0@@Z
_TEXT	SEGMENT PARA USE32 PUBLIC 'CODE'
_TEXT	ENDS
;	COMDAT ??$_Ptr_cat@PAUWORMON@@PAU1@@std@@YA?AU_Nonscalar_ptr_iterator_tag@0@AAPAUWORMON@@0@Z
_TEXT	SEGMENT PARA USE32 PUBLIC 'CODE'
_TEXT	ENDS
;	COMDAT ??$_Destroy_range@UWORMON@@V?$allocator@UWORMON@@@std@@@std@@YAXPAUWORMON@@0AAV?$allocator@UWORMON@@@0@U_Nonscalar_ptr_iterator_tag@0@@Z
_TEXT	SEGMENT PARA USE32 PUBLIC 'CODE'
_TEXT	ENDS
;	COMDAT ??$_Ptr_cat@PAU__ITEMGAME@CMiniGame@@PAU12@@std@@YA?AU_Nonscalar_ptr_iterator_tag@0@AAPAU__ITEMGAME@CMiniGame@@0@Z
_TEXT	SEGMENT PARA USE32 PUBLIC 'CODE'
_TEXT	ENDS
;	COMDAT ??$_Destroy_range@U__ITEMGAME@CMiniGame@@V?$allocator@U__ITEMGAME@CMiniGame@@@std@@@std@@YAXPAU__ITEMGAME@CMiniGame@@0AAV?$allocator@U__ITEMGAME@CMiniGame@@@0@U_Nonscalar_ptr_iterator_tag@0@@Z
_TEXT	SEGMENT PARA USE32 PUBLIC 'CODE'
_TEXT	ENDS
;	COMDAT ??$_Destroy_range@KV?$allocator@K@std@@@std@@YAXPAK0AAV?$allocator@K@0@U_Scalar_ptr_iterator_tag@0@@Z
_TEXT	SEGMENT PARA USE32 PUBLIC 'CODE'
_TEXT	ENDS
;	COMDAT ??$_Destroy_range@HV?$allocator@H@std@@@std@@YAXPAH0AAV?$allocator@H@0@U_Scalar_ptr_iterator_tag@0@@Z
_TEXT	SEGMENT PARA USE32 PUBLIC 'CODE'
_TEXT	ENDS
;	COMDAT ??$_Ptr_cat@PAU__ITEM@CExchange@@PAU12@@std@@YA?AU_Nonscalar_ptr_iterator_tag@0@AAPAU__ITEM@CExchange@@0@Z
_TEXT	SEGMENT PARA USE32 PUBLIC 'CODE'
_TEXT	ENDS
;	COMDAT ??$_Destroy_range@U__ITEM@CExchange@@V?$allocator@U__ITEM@CExchange@@@std@@@std@@YAXPAU__ITEM@CExchange@@0AAV?$allocator@U__ITEM@CExchange@@@0@U_Nonscalar_ptr_iterator_tag@0@@Z
_TEXT	SEGMENT PARA USE32 PUBLIC 'CODE'
_TEXT	ENDS
;	COMDAT ??$_Ptr_cat@PAU__POINT@CExchange@@PAU12@@std@@YA?AU_Nonscalar_ptr_iterator_tag@0@AAPAU__POINT@CExchange@@0@Z
_TEXT	SEGMENT PARA USE32 PUBLIC 'CODE'
_TEXT	ENDS
;	COMDAT ??$_Destroy_range@U__POINT@CExchange@@V?$allocator@U__POINT@CExchange@@@std@@@std@@YAXPAU__POINT@CExchange@@0AAV?$allocator@U__POINT@CExchange@@@0@U_Nonscalar_ptr_iterator_tag@0@@Z
_TEXT	SEGMENT PARA USE32 PUBLIC 'CODE'
_TEXT	ENDS
;	COMDAT ??$_Destroy_range@EV?$allocator@E@std@@@std@@YAXPAE0AAV?$allocator@E@0@U_Scalar_ptr_iterator_tag@0@@Z
_TEXT	SEGMENT PARA USE32 PUBLIC 'CODE'
_TEXT	ENDS
;	COMDAT ??$_Uninitialized_copy@PAU__SPAWNREGION@CEventLua@@PAU12@V?$allocator@U__SPAWNREGION@CEventLua@@@std@@@std@@YAPAU__SPAWNREGION@CEventLua@@PAU12@00AAV?$allocator@U__SPAWNREGION@CEventLua@@@0@@Z
_TEXT	SEGMENT PARA USE32 PUBLIC 'CODE'
_TEXT	ENDS
;	COMDAT ??$_Copy_backward_opt@PAU__SPAWNREGION@CEventLua@@PAU12@@std@@YAPAU__SPAWNREGION@CEventLua@@PAU12@00U_Nonscalar_ptr_iterator_tag@0@@Z
_TEXT	SEGMENT PARA USE32 PUBLIC 'CODE'
_TEXT	ENDS
;	COMDAT ??$_Ptr_cat@PAUD3DXVECTOR3@@PAU1@@std@@YA?AU_Nonscalar_ptr_iterator_tag@0@AAPAUD3DXVECTOR3@@0@Z
_TEXT	SEGMENT PARA USE32 PUBLIC 'CODE'
_TEXT	ENDS
;	COMDAT ??$_Destroy_range@UD3DXVECTOR3@@V?$allocator@UD3DXVECTOR3@@@std@@@std@@YAXPAUD3DXVECTOR3@@0AAV?$allocator@UD3DXVECTOR3@@@0@U_Nonscalar_ptr_iterator_tag@0@@Z
_TEXT	SEGMENT PARA USE32 PUBLIC 'CODE'
_TEXT	ENDS
;	COMDAT ??$_Ptr_cat@PAU_GIFTBOX@@PAU1@@std@@YA?AU_Nonscalar_ptr_iterator_tag@0@AAPAU_GIFTBOX@@0@Z
_TEXT	SEGMENT PARA USE32 PUBLIC 'CODE'
_TEXT	ENDS
;	COMDAT ??$_Destroy_range@U_GIFTBOX@@V?$allocator@U_GIFTBOX@@@std@@@std@@YAXPAU_GIFTBOX@@0AAV?$allocator@U_GIFTBOX@@@0@U_Nonscalar_ptr_iterator_tag@0@@Z
_TEXT	SEGMENT PARA USE32 PUBLIC 'CODE'
_TEXT	ENDS
;	COMDAT ??$_Destroy_range@JV?$allocator@J@std@@@std@@YAXPAJ0AAV?$allocator@J@0@U_Scalar_ptr_iterator_tag@0@@Z
_TEXT	SEGMENT PARA USE32 PUBLIC 'CODE'
_TEXT	ENDS
;	COMDAT ??$_Uninit_fill_n@JIJ@std@@YAXPAJIABJAAV?$allocator@J@0@U_Scalar_ptr_iterator_tag@0@@Z
_TEXT	SEGMENT PARA USE32 PUBLIC 'CODE'
_TEXT	ENDS
;	COMDAT ??$_Destroy_range@U__SPAWNREGION@CEventLua@@V?$allocator@U__SPAWNREGION@CEventLua@@@std@@@std@@YAXPAU__SPAWNREGION@CEventLua@@0AAV?$allocator@U__SPAWNREGION@CEventLua@@@0@U_Nonscalar_ptr_iterator_tag@0@@Z
_TEXT	SEGMENT PARA USE32 PUBLIC 'CODE'
_TEXT	ENDS
;	COMDAT ??$?0PAUtagACTMSG@@@?$allocator@PAPAUtagACTMSG@@@std@@QAE@ABV?$allocator@PAUtagACTMSG@@@1@@Z
_TEXT	SEGMENT PARA USE32 PUBLIC 'CODE'
_TEXT	ENDS
;	COMDAT ??$_Destroy@PAPAUtagACTMSG@@@std@@YAXPAPAPAUtagACTMSG@@@Z
_TEXT	SEGMENT PARA USE32 PUBLIC 'CODE'
_TEXT	ENDS
;	COMDAT ??$?0PAUtagMAGICATKMSG@@@?$allocator@PAPAUtagMAGICATKMSG@@@std@@QAE@ABV?$allocator@PAUtagMAGICATKMSG@@@1@@Z
_TEXT	SEGMENT PARA USE32 PUBLIC 'CODE'
_TEXT	ENDS
;	COMDAT ??$_Destroy@PAPAUtagMAGICATKMSG@@@std@@YAXPAPAPAUtagMAGICATKMSG@@@Z
_TEXT	SEGMENT PARA USE32 PUBLIC 'CODE'
_TEXT	ENDS
;	COMDAT ??$_Destroy@PAUtagACTMSG@@@std@@YAXPAPAUtagACTMSG@@@Z
_TEXT	SEGMENT PARA USE32 PUBLIC 'CODE'
_TEXT	ENDS
;	COMDAT ??$_Destroy@PAUtagMAGICATKMSG@@@std@@YAXPAPAUtagMAGICATKMSG@@@Z
_TEXT	SEGMENT PARA USE32 PUBLIC 'CODE'
_TEXT	ENDS
;	COMDAT ?destroy@?$allocator@UtagDROPITEM@@@std@@QAEXPAUtagDROPITEM@@@Z
_TEXT	SEGMENT PARA USE32 PUBLIC 'CODE'
_TEXT	ENDS
;	COMDAT ?destroy@?$allocator@UWORMON@@@std@@QAEXPAUWORMON@@@Z
_TEXT	SEGMENT PARA USE32 PUBLIC 'CODE'
_TEXT	ENDS
;	COMDAT ?destroy@?$allocator@U__ITEMGAME@CMiniGame@@@std@@QAEXPAU__ITEMGAME@CMiniGame@@@Z
_TEXT	SEGMENT PARA USE32 PUBLIC 'CODE'
_TEXT	ENDS
;	COMDAT ?destroy@?$allocator@U__ITEM@CExchange@@@std@@QAEXPAU__ITEM@CExchange@@@Z
_TEXT	SEGMENT PARA USE32 PUBLIC 'CODE'
_TEXT	ENDS
;	COMDAT ?destroy@?$allocator@U__POINT@CExchange@@@std@@QAEXPAU__POINT@CExchange@@@Z
_TEXT	SEGMENT PARA USE32 PUBLIC 'CODE'
_TEXT	ENDS
;	COMDAT ?begin@?$vector@EV?$allocator@E@std@@@std@@QAE?AViterator@12@XZ
_TEXT	SEGMENT PARA USE32 PUBLIC 'CODE'
_TEXT	ENDS
;	COMDAT ?end@?$vector@EV?$allocator@E@std@@@std@@QAE?AViterator@12@XZ
_TEXT	SEGMENT PARA USE32 PUBLIC 'CODE'
_TEXT	ENDS
;	COMDAT ?erase@?$vector@EV?$allocator@E@std@@@std@@QAE?AViterator@12@V312@0@Z
_TEXT	SEGMENT PARA USE32 PUBLIC 'CODE'
_TEXT	ENDS
;	COMDAT ?construct@?$allocator@U__SPAWNREGION@CEventLua@@@std@@QAEXPAU__SPAWNREGION@CEventLua@@ABU34@@Z
_TEXT	SEGMENT PARA USE32 PUBLIC 'CODE'
_TEXT	ENDS
;	COMDAT ?destroy@?$allocator@U__SPAWNREGION@CEventLua@@@std@@QAEXPAU__SPAWNREGION@CEventLua@@@Z
_TEXT	SEGMENT PARA USE32 PUBLIC 'CODE'
_TEXT	ENDS
;	COMDAT ?destroy@?$allocator@UD3DXVECTOR3@@@std@@QAEXPAUD3DXVECTOR3@@@Z
_TEXT	SEGMENT PARA USE32 PUBLIC 'CODE'
_TEXT	ENDS
;	COMDAT ?destroy@?$allocator@U_GIFTBOX@@@std@@QAEXPAU_GIFTBOX@@@Z
_TEXT	SEGMENT PARA USE32 PUBLIC 'CODE'
_TEXT	ENDS
;	COMDAT ??9const_iterator@?$vector@EV?$allocator@E@std@@@std@@QBE_NABV012@@Z
_TEXT	SEGMENT PARA USE32 PUBLIC 'CODE'
_TEXT	ENDS
;	COMDAT ??0iterator@?$vector@EV?$allocator@E@std@@@std@@QAE@PAE@Z
_TEXT	SEGMENT PARA USE32 PUBLIC 'CODE'
_TEXT	ENDS
;	COMDAT ??8const_iterator@?$vector@EV?$allocator@E@std@@@std@@QBE_NABV012@@Z
_TEXT	SEGMENT PARA USE32 PUBLIC 'CODE'
_TEXT	ENDS
;	COMDAT ??$insert@Vconst_iterator@?$vector@EV?$allocator@E@std@@@std@@@?$vector@EV?$allocator@E@std@@@std@@QAEXViterator@01@Vconst_iterator@01@1@Z
_TEXT	SEGMENT PARA USE32 PUBLIC 'CODE'
_TEXT	ENDS
;	COMDAT ??$_Ptr_cat@Vconst_iterator@?$vector@EV?$allocator@E@std@@@std@@PAE@std@@YA?AU_Nonscalar_ptr_iterator_tag@0@AAVconst_iterator@?$vector@EV?$allocator@E@std@@@0@AAPAE@Z
_TEXT	SEGMENT PARA USE32 PUBLIC 'CODE'
_TEXT	ENDS
;	COMDAT ??$_Uninit_copy@Vconst_iterator@?$vector@EV?$allocator@E@std@@@std@@PAEV?$allocator@E@3@@std@@YAPAEVconst_iterator@?$vector@EV?$allocator@E@std@@@0@0PAEAAV?$allocator@E@0@U_Nonscalar_ptr_iterator_tag@0@@Z
_TEXT	SEGMENT PARA USE32 PUBLIC 'CODE'
_TEXT	ENDS
;	COMDAT ??$_Uninit_copy@JJ@std@@YAPAJPAJ00AAV?$allocator@J@0@U_Scalar_ptr_iterator_tag@0@@Z
_TEXT	SEGMENT PARA USE32 PUBLIC 'CODE'
_TEXT	ENDS
;	COMDAT ??$_Uninit_copy@PAU__SPAWNREGION@CEventLua@@PAU12@V?$allocator@U__SPAWNREGION@CEventLua@@@std@@@std@@YAPAU__SPAWNREGION@CEventLua@@PAU12@00AAV?$allocator@U__SPAWNREGION@CEventLua@@@0@U_Nonscalar_ptr_iterator_tag@0@@Z
_TEXT	SEGMENT PARA USE32 PUBLIC 'CODE'
_TEXT	ENDS
;	COMDAT ??$fill_n@PAJIJ@std@@YAXPAJIABJ@Z
_TEXT	SEGMENT PARA USE32 PUBLIC 'CODE'
_TEXT	ENDS
;	COMDAT ??$_Destroy@UtagDROPITEM@@@std@@YAXPAUtagDROPITEM@@@Z
_TEXT	SEGMENT PARA USE32 PUBLIC 'CODE'
_TEXT	ENDS
;	COMDAT ??$_Destroy@UWORMON@@@std@@YAXPAUWORMON@@@Z
_TEXT	SEGMENT PARA USE32 PUBLIC 'CODE'
_TEXT	ENDS
;	COMDAT ??$_Destroy@U__ITEMGAME@CMiniGame@@@std@@YAXPAU__ITEMGAME@CMiniGame@@@Z
_TEXT	SEGMENT PARA USE32 PUBLIC 'CODE'
_TEXT	ENDS
;	COMDAT ??$_Destroy@U__ITEM@CExchange@@@std@@YAXPAU__ITEM@CExchange@@@Z
_TEXT	SEGMENT PARA USE32 PUBLIC 'CODE'
_TEXT	ENDS
;	COMDAT ??$_Destroy@U__POINT@CExchange@@@std@@YAXPAU__POINT@CExchange@@@Z
_TEXT	SEGMENT PARA USE32 PUBLIC 'CODE'
_TEXT	ENDS
;	COMDAT ??$copy@PAEPAE@std@@YAPAEPAE00@Z
_TEXT	SEGMENT PARA USE32 PUBLIC 'CODE'
_TEXT	ENDS
;	COMDAT ??$_Construct@U__SPAWNREGION@CEventLua@@U12@@std@@YAXPAU__SPAWNREGION@CEventLua@@ABU12@@Z
_TEXT	SEGMENT PARA USE32 PUBLIC 'CODE'
_TEXT	ENDS
;	COMDAT ??$_Destroy@U__SPAWNREGION@CEventLua@@@std@@YAXPAU__SPAWNREGION@CEventLua@@@Z
_TEXT	SEGMENT PARA USE32 PUBLIC 'CODE'
_TEXT	ENDS
;	COMDAT ??$_Destroy@UD3DXVECTOR3@@@std@@YAXPAUD3DXVECTOR3@@@Z
_TEXT	SEGMENT PARA USE32 PUBLIC 'CODE'
_TEXT	ENDS
;	COMDAT ??$_Destroy@U_GIFTBOX@@@std@@YAXPAU_GIFTBOX@@@Z
_TEXT	SEGMENT PARA USE32 PUBLIC 'CODE'
_TEXT	ENDS
;	COMDAT ?construct@?$allocator@E@std@@QAEXPAEABE@Z
_TEXT	SEGMENT PARA USE32 PUBLIC 'CODE'
_TEXT	ENDS
;	COMDAT ?destroy@?$allocator@E@std@@QAEXPAE@Z
_TEXT	SEGMENT PARA USE32 PUBLIC 'CODE'
_TEXT	ENDS
;	COMDAT ??Dconst_iterator@?$vector@EV?$allocator@E@std@@@std@@QBEABEXZ
_TEXT	SEGMENT PARA USE32 PUBLIC 'CODE'
_TEXT	ENDS
;	COMDAT ??Econst_iterator@?$vector@EV?$allocator@E@std@@@std@@QAEAAV012@XZ
_TEXT	SEGMENT PARA USE32 PUBLIC 'CODE'
_TEXT	ENDS
;	COMDAT ??$_Insert@Vconst_iterator@?$vector@EV?$allocator@E@std@@@std@@@?$vector@EV?$allocator@E@std@@@std@@QAEXViterator@01@Vconst_iterator@01@1Uforward_iterator_tag@1@@Z
_TEXT	SEGMENT PARA USE32 PUBLIC 'CODE'
_TEXT	ENDS
;	COMDAT ??$_Copy_opt@PAEPAE@std@@YAPAEPAE00U_Scalar_ptr_iterator_tag@0@@Z
_TEXT	SEGMENT PARA USE32 PUBLIC 'CODE'
_TEXT	ENDS
;	COMDAT ??$_Construct@EE@std@@YAXPAEABE@Z
_TEXT	SEGMENT PARA USE32 PUBLIC 'CODE'
_TEXT	ENDS
;	COMDAT ??$_Destroy@E@std@@YAXPAE@Z
_TEXT	SEGMENT PARA USE32 PUBLIC 'CODE'
_TEXT	ENDS
;	COMDAT ?capacity@?$vector@EV?$allocator@E@std@@@std@@QBEIXZ
_TEXT	SEGMENT PARA USE32 PUBLIC 'CODE'
_TEXT	ENDS
;	COMDAT ??Giterator@?$vector@EV?$allocator@E@std@@@std@@QBEHABVconst_iterator@12@@Z
_TEXT	SEGMENT PARA USE32 PUBLIC 'CODE'
_TEXT	ENDS
;	COMDAT ??Gconst_iterator@?$vector@EV?$allocator@E@std@@@std@@QBEHABV012@@Z
_TEXT	SEGMENT PARA USE32 PUBLIC 'CODE'
_TEXT	ENDS
;	COMDAT ??$_Distance@Vconst_iterator@?$vector@EV?$allocator@E@std@@@std@@I@std@@YAXVconst_iterator@?$vector@EV?$allocator@E@std@@@0@0AAI@Z
_TEXT	SEGMENT PARA USE32 PUBLIC 'CODE'
_TEXT	ENDS
;	COMDAT ??$_Ucopy@PAE@?$vector@EV?$allocator@E@std@@@std@@IAEPAEPAE00@Z
_TEXT	SEGMENT PARA USE32 PUBLIC 'CODE'
_TEXT	ENDS
;	COMDAT ??$advance@Vconst_iterator@?$vector@EV?$allocator@E@std@@@std@@H@std@@YAXAAVconst_iterator@?$vector@EV?$allocator@E@std@@@0@H@Z
_TEXT	SEGMENT PARA USE32 PUBLIC 'CODE'
_TEXT	ENDS
;	COMDAT ??$copy@Vconst_iterator@?$vector@EV?$allocator@E@std@@@std@@PAE@std@@YAPAEVconst_iterator@?$vector@EV?$allocator@E@std@@@0@0PAE@Z
_TEXT	SEGMENT PARA USE32 PUBLIC 'CODE'
_TEXT	ENDS
;	COMDAT ??$copy_backward@PAEPAE@std@@YAPAEPAE00@Z
_TEXT	SEGMENT PARA USE32 PUBLIC 'CODE'
_TEXT	ENDS
;	COMDAT ??$_Distance2@Vconst_iterator@?$vector@EV?$allocator@E@std@@@std@@I@std@@YAXVconst_iterator@?$vector@EV?$allocator@E@std@@@0@0AAIUrandom_access_iterator_tag@0@@Z
_TEXT	SEGMENT PARA USE32 PUBLIC 'CODE'
_TEXT	ENDS
;	COMDAT ??$_Uninitialized_copy@PAEPAEV?$allocator@E@std@@@std@@YAPAEPAE00AAV?$allocator@E@0@@Z
_TEXT	SEGMENT PARA USE32 PUBLIC 'CODE'
_TEXT	ENDS
;	COMDAT ??$_Advance@Vconst_iterator@?$vector@EV?$allocator@E@std@@@std@@H@std@@YAXAAVconst_iterator@?$vector@EV?$allocator@E@std@@@0@HUrandom_access_iterator_tag@0@@Z
_TEXT	SEGMENT PARA USE32 PUBLIC 'CODE'
_TEXT	ENDS
;	COMDAT ??$_Copy_opt@Vconst_iterator@?$vector@EV?$allocator@E@std@@@std@@PAE@std@@YAPAEVconst_iterator@?$vector@EV?$allocator@E@std@@@0@0PAEU_Nonscalar_ptr_iterator_tag@0@@Z
_TEXT	SEGMENT PARA USE32 PUBLIC 'CODE'
_TEXT	ENDS
;	COMDAT ??$_Copy_backward_opt@PAEPAE@std@@YAPAEPAE00U_Scalar_ptr_iterator_tag@0@@Z
_TEXT	SEGMENT PARA USE32 PUBLIC 'CODE'
_TEXT	ENDS
;	COMDAT ??Yconst_iterator@?$vector@EV?$allocator@E@std@@@std@@QAEAAV012@H@Z
_TEXT	SEGMENT PARA USE32 PUBLIC 'CODE'
_TEXT	ENDS
;	COMDAT ??$_Uninit_copy@EE@std@@YAPAEPAE00AAV?$allocator@E@0@U_Scalar_ptr_iterator_tag@0@@Z
_TEXT	SEGMENT PARA USE32 PUBLIC 'CODE'
_TEXT	ENDS
;	COMDAT ?deallocate@?$allocator@E@std@@QAEXPAEI@Z
_TEXT	SEGMENT PARA USE32 PUBLIC 'CODE'
_TEXT	ENDS
;	COMDAT ??$_Ucopy@Vconst_iterator@?$vector@EV?$allocator@E@std@@@std@@@?$vector@EV?$allocator@E@std@@@std@@IAEPAEVconst_iterator@01@0PAE@Z
_TEXT	SEGMENT PARA USE32 PUBLIC 'CODE'
_TEXT	ENDS
;	COMDAT ?allocate@?$allocator@E@std@@QAEPAEI@Z
_TEXT	SEGMENT PARA USE32 PUBLIC 'CODE'
_TEXT	ENDS
;	COMDAT ??$_Allocate@E@std@@YAPAEIPAE@Z
_TEXT	SEGMENT PARA USE32 PUBLIC 'CODE'
_TEXT	ENDS
;	COMDAT ?_Xlen@?$vector@EV?$allocator@E@std@@@std@@IBEXXZ
_TEXT	SEGMENT PARA USE32 PUBLIC 'CODE'
_TEXT	ENDS
;	COMDAT ??0length_error@std@@QAE@ABV?$basic_string@DU?$char_traits@D@std@@V?$allocator@D@2@@1@@Z
_TEXT	SEGMENT PARA USE32 PUBLIC 'CODE'
_TEXT	ENDS
;	COMDAT ??0logic_error@std@@QAE@ABV?$basic_string@DU?$char_traits@D@std@@V?$allocator@D@2@@1@@Z
_TEXT	SEGMENT PARA USE32 PUBLIC 'CODE'
_TEXT	ENDS
;	COMDAT ??_7logic_error@std@@6B@
CONST	SEGMENT DWORD USE32 PUBLIC 'CONST'
CONST	ENDS
;	COMDAT ??_Glogic_error@std@@UAEPAXI@Z
_TEXT	SEGMENT PARA USE32 PUBLIC 'CODE'
_TEXT	ENDS
;	COMDAT ?what@logic_error@std@@UBEPBDXZ
_TEXT	SEGMENT PARA USE32 PUBLIC 'CODE'
_TEXT	ENDS
;	COMDAT ?c_str@?$basic_string@DU?$char_traits@D@std@@V?$allocator@D@2@@std@@QBEPBDXZ
_TEXT	SEGMENT PARA USE32 PUBLIC 'CODE'
_TEXT	ENDS
;	COMDAT ??0?$basic_string@DU?$char_traits@D@std@@V?$allocator@D@2@@std@@QAE@ABV01@@Z
_TEXT	SEGMENT PARA USE32 PUBLIC 'CODE'
_TEXT	ENDS
;	COMDAT ??0?$_String_val@DV?$allocator@D@std@@@std@@IAE@V?$allocator@D@1@@Z
_TEXT	SEGMENT PARA USE32 PUBLIC 'CODE'
_TEXT	ENDS
;	COMDAT ??0?$allocator@D@std@@QAE@ABV01@@Z
_TEXT	SEGMENT PARA USE32 PUBLIC 'CODE'
_TEXT	ENDS
;	COMDAT ?_Tidy@?$basic_string@DU?$char_traits@D@std@@V?$allocator@D@2@@std@@IAEX_NI@Z
_TEXT	SEGMENT PARA USE32 PUBLIC 'CODE'
_TEXT	ENDS
;	COMDAT ?copy@?$char_traits@D@std@@SAPADPADPBDI@Z
_TEXT	SEGMENT PARA USE32 PUBLIC 'CODE'
_TEXT	ENDS
;	COMDAT ?deallocate@?$allocator@D@std@@QAEXPADI@Z
_TEXT	SEGMENT PARA USE32 PUBLIC 'CODE'
_TEXT	ENDS
;	COMDAT ?_Eos@?$basic_string@DU?$char_traits@D@std@@V?$allocator@D@2@@std@@IAEXI@Z
_TEXT	SEGMENT PARA USE32 PUBLIC 'CODE'
_TEXT	ENDS
;	COMDAT ?assign@?$char_traits@D@std@@SAXAADABD@Z
_TEXT	SEGMENT PARA USE32 PUBLIC 'CODE'
_TEXT	ENDS
;	COMDAT ?_Myptr@?$basic_string@DU?$char_traits@D@std@@V?$allocator@D@2@@std@@QAEPADXZ
_TEXT	SEGMENT PARA USE32 PUBLIC 'CODE'
_TEXT	ENDS
;	COMDAT ?assign@?$basic_string@DU?$char_traits@D@std@@V?$allocator@D@2@@std@@QAEAAV12@ABV12@II@Z
_TEXT	SEGMENT PARA USE32 PUBLIC 'CODE'
_TEXT	ENDS
;	COMDAT ?erase@?$basic_string@DU?$char_traits@D@std@@V?$allocator@D@2@@std@@QAEAAV12@II@Z
_TEXT	SEGMENT PARA USE32 PUBLIC 'CODE'
_TEXT	ENDS
;	COMDAT ?move@?$char_traits@D@std@@SAPADPADPBDI@Z
_TEXT	SEGMENT PARA USE32 PUBLIC 'CODE'
_TEXT	ENDS
;	COMDAT ?_Grow@?$basic_string@DU?$char_traits@D@std@@V?$allocator@D@2@@std@@IAE_NI_N@Z
_TEXT	SEGMENT PARA USE32 PUBLIC 'CODE'
_TEXT	ENDS
;	COMDAT ?max_size@?$basic_string@DU?$char_traits@D@std@@V?$allocator@D@2@@std@@QBEIXZ
_TEXT	SEGMENT PARA USE32 PUBLIC 'CODE'
_TEXT	ENDS
;	COMDAT ?max_size@?$allocator@D@std@@QBEIXZ
_TEXT	SEGMENT PARA USE32 PUBLIC 'CODE'
_TEXT	ENDS
;	COMDAT ?_Copy@?$basic_string@DU?$char_traits@D@std@@V?$allocator@D@2@@std@@IAEXII@Z
_TEXT	SEGMENT PARA USE32 PUBLIC 'CODE'
_TEXT	ENDS
;	COMDAT ?allocate@?$allocator@D@std@@QAEPADI@Z
_TEXT	SEGMENT PARA USE32 PUBLIC 'CODE'
_TEXT	ENDS
;	COMDAT ??$_Allocate@D@std@@YAPADIPAD@Z
_TEXT	SEGMENT PARA USE32 PUBLIC 'CODE'
_TEXT	ENDS
;	COMDAT ?npos@?$basic_string@DU?$char_traits@D@std@@V?$allocator@D@2@@std@@2IB
CONST	SEGMENT DWORD USE32 PUBLIC 'CONST'
CONST	ENDS
;	COMDAT ??1logic_error@std@@UAE@XZ
_TEXT	SEGMENT PARA USE32 PUBLIC 'CODE'
_TEXT	ENDS
;	COMDAT ??_7length_error@std@@6B@
CONST	SEGMENT DWORD USE32 PUBLIC 'CONST'
CONST	ENDS
;	COMDAT ??_Glength_error@std@@UAEPAXI@Z
_TEXT	SEGMENT PARA USE32 PUBLIC 'CODE'
_TEXT	ENDS
;	COMDAT ??1length_error@std@@UAE@XZ
_TEXT	SEGMENT PARA USE32 PUBLIC 'CODE'
_TEXT	ENDS
;	COMDAT ??0?$basic_string@DU?$char_traits@D@std@@V?$allocator@D@2@@std@@QAE@PBD@Z
_TEXT	SEGMENT PARA USE32 PUBLIC 'CODE'
_TEXT	ENDS
;	COMDAT ??0?$allocator@D@std@@QAE@XZ
_TEXT	SEGMENT PARA USE32 PUBLIC 'CODE'
_TEXT	ENDS
;	COMDAT ?assign@?$basic_string@DU?$char_traits@D@std@@V?$allocator@D@2@@std@@QAEAAV12@PBD@Z
_TEXT	SEGMENT PARA USE32 PUBLIC 'CODE'
_TEXT	ENDS
;	COMDAT ?assign@?$basic_string@DU?$char_traits@D@std@@V?$allocator@D@2@@std@@QAEAAV12@PBDI@Z
_TEXT	SEGMENT PARA USE32 PUBLIC 'CODE'
_TEXT	ENDS
;	COMDAT ?_Inside@?$basic_string@DU?$char_traits@D@std@@V?$allocator@D@2@@std@@IAE_NPBD@Z
_TEXT	SEGMENT PARA USE32 PUBLIC 'CODE'
_TEXT	ENDS
;	COMDAT ?length@?$char_traits@D@std@@SAIPBD@Z
_TEXT	SEGMENT PARA USE32 PUBLIC 'CODE'
_TEXT	ENDS
;	COMDAT ??_C@_0BD@OLBABOEK@vector?$DMT?$DO?5too?5long?$AA@
CONST	SEGMENT DWORD USE32 PUBLIC 'CONST'
CONST	ENDS
;	COMDAT ??1?$basic_string@DU?$char_traits@D@std@@V?$allocator@D@2@@std@@QAE@XZ
_TEXT	SEGMENT PARA USE32 PUBLIC 'CODE'
_TEXT	ENDS
;	COMDAT __TI3?AVlength_error@std@@
xdata$x	SEGMENT DWORD USE32 PUBLIC 'CONST'
xdata$x	ENDS
;	COMDAT __CTA3?AVlength_error@std@@
xdata$x	SEGMENT DWORD USE32 PUBLIC 'CONST'
xdata$x	ENDS
;	COMDAT __CT??_R0?AVlength_error@std@@@8??0length_error@std@@QAE@ABV01@@Z40
xdata$x	SEGMENT DWORD USE32 PUBLIC 'CONST'
xdata$x	ENDS
;	COMDAT ??_R0?AVlength_error@std@@@8
_DATA	SEGMENT DWORD USE32 PUBLIC 'DATA'
_DATA	ENDS
;	COMDAT ??0length_error@std@@QAE@ABV01@@Z
_TEXT	SEGMENT PARA USE32 PUBLIC 'CODE'
_TEXT	ENDS
;	COMDAT ??0logic_error@std@@QAE@ABV01@@Z
_TEXT	SEGMENT PARA USE32 PUBLIC 'CODE'
_TEXT	ENDS
;	COMDAT __CT??_R0?AVlogic_error@std@@@8??0logic_error@std@@QAE@ABV01@@Z40
xdata$x	SEGMENT DWORD USE32 PUBLIC 'CONST'
xdata$x	ENDS
;	COMDAT ??_R0?AVlogic_error@std@@@8
_DATA	SEGMENT DWORD USE32 PUBLIC 'DATA'
_DATA	ENDS
;	COMDAT __CT??_R0?AVexception@@@8??0exception@@QAE@ABV0@@Z12
xdata$x	SEGMENT DWORD USE32 PUBLIC 'CONST'
xdata$x	ENDS
;	COMDAT ??_R0?AVexception@@@8
_DATA	SEGMENT DWORD USE32 PUBLIC 'DATA'
_DATA	ENDS
;	COMDAT ?size@?$vector@EV?$allocator@E@std@@@std@@QBEIXZ
_TEXT	SEGMENT PARA USE32 PUBLIC 'CODE'
_TEXT	ENDS
;	COMDAT ?max_size@?$vector@EV?$allocator@E@std@@@std@@QBEIXZ
_TEXT	SEGMENT PARA USE32 PUBLIC 'CODE'
_TEXT	ENDS
;	COMDAT ?max_size@?$allocator@E@std@@QBEIXZ
_TEXT	SEGMENT PARA USE32 PUBLIC 'CODE'
_TEXT	ENDS
;	COMDAT ??2@YAPAXIPAX@Z
_TEXT	SEGMENT PARA USE32 PUBLIC 'CODE'
_TEXT	ENDS
;	COMDAT ?_Ptr_cat@std@@YA?AU_Scalar_ptr_iterator_tag@1@PAE0@Z
_TEXT	SEGMENT PARA USE32 PUBLIC 'CODE'
_TEXT	ENDS
;	COMDAT ??0const_iterator@?$vector@EV?$allocator@E@std@@@std@@QAE@PAE@Z
_TEXT	SEGMENT PARA USE32 PUBLIC 'CODE'
_TEXT	ENDS
;	COMDAT ?_Destroy@?$vector@EV?$allocator@E@std@@@std@@IAEXPAE0@Z
_TEXT	SEGMENT PARA USE32 PUBLIC 'CODE'
_TEXT	ENDS
;	COMDAT ??$_Destroy_range@EV?$allocator@E@std@@@std@@YAXPAE0AAV?$allocator@E@0@@Z
_TEXT	SEGMENT PARA USE32 PUBLIC 'CODE'
_TEXT	ENDS
;	COMDAT ?_Ptr_cat@std@@YA?AU_Scalar_ptr_iterator_tag@1@PAJ0@Z
_TEXT	SEGMENT PARA USE32 PUBLIC 'CODE'
_TEXT	ENDS
;	COMDAT ??9const_iterator@?$_Tree@V?$_Tmap_traits@KEU?$less@K@std@@V?$allocator@U?$pair@$$CBKE@std@@@2@$0A@@std@@@std@@QBE_NABV012@@Z
_TEXT	SEGMENT PARA USE32 PUBLIC 'CODE'
_TEXT	ENDS
;	COMDAT ??8const_iterator@?$_Tree@V?$_Tmap_traits@KEU?$less@K@std@@V?$allocator@U?$pair@$$CBKE@std@@@2@$0A@@std@@@std@@QBE_NABV012@@Z
_TEXT	SEGMENT PARA USE32 PUBLIC 'CODE'
_TEXT	ENDS
;	COMDAT ??Eiterator@?$_Tree@V?$_Tmap_traits@KEU?$less@K@std@@V?$allocator@U?$pair@$$CBKE@std@@@2@$0A@@std@@@std@@QAEAAV012@XZ
_TEXT	SEGMENT PARA USE32 PUBLIC 'CODE'
_TEXT	ENDS
;	COMDAT ??Econst_iterator@?$_Tree@V?$_Tmap_traits@KEU?$less@K@std@@V?$allocator@U?$pair@$$CBKE@std@@@2@$0A@@std@@@std@@QAEAAV012@XZ
_TEXT	SEGMENT PARA USE32 PUBLIC 'CODE'
_TEXT	ENDS
;	COMDAT ?_Inc@const_iterator@?$_Tree@V?$_Tmap_traits@KEU?$less@K@std@@V?$allocator@U?$pair@$$CBKE@std@@@2@$0A@@std@@@std@@QAEXXZ
_TEXT	SEGMENT PARA USE32 PUBLIC 'CODE'
_TEXT	ENDS
;	COMDAT ?_Min@?$_Tree@V?$_Tmap_traits@KEU?$less@K@std@@V?$allocator@U?$pair@$$CBKE@std@@@2@$0A@@std@@@std@@KAPAU_Node@?$_Tree_nod@V?$_Tmap_traits@KEU?$less@K@std@@V?$allocator@U?$pair@$$CBKE@std@@@2@$0A@@std@@@2@PAU342@@Z
_TEXT	SEGMENT PARA USE32 PUBLIC 'CODE'
_TEXT	ENDS
;	COMDAT ?_Left@?$_Tree@V?$_Tmap_traits@KEU?$less@K@std@@V?$allocator@U?$pair@$$CBKE@std@@@2@$0A@@std@@@std@@KAAAPAU_Node@?$_Tree_nod@V?$_Tmap_traits@KEU?$less@K@std@@V?$allocator@U?$pair@$$CBKE@std@@@2@$0A@@std@@@2@PAU342@@Z
_TEXT	SEGMENT PARA USE32 PUBLIC 'CODE'
_TEXT	ENDS
;	COMDAT ?_Isnil@?$_Tree@V?$_Tmap_traits@KEU?$less@K@std@@V?$allocator@U?$pair@$$CBKE@std@@@2@$0A@@std@@@std@@KAAADPAU_Node@?$_Tree_nod@V?$_Tmap_traits@KEU?$less@K@std@@V?$allocator@U?$pair@$$CBKE@std@@@2@$0A@@std@@@2@@Z
_TEXT	SEGMENT PARA USE32 PUBLIC 'CODE'
_TEXT	ENDS
;	COMDAT ?_Parent@?$_Tree@V?$_Tmap_traits@KEU?$less@K@std@@V?$allocator@U?$pair@$$CBKE@std@@@2@$0A@@std@@@std@@KAAAPAU_Node@?$_Tree_nod@V?$_Tmap_traits@KEU?$less@K@std@@V?$allocator@U?$pair@$$CBKE@std@@@2@$0A@@std@@@2@PAU342@@Z
_TEXT	SEGMENT PARA USE32 PUBLIC 'CODE'
_TEXT	ENDS
;	COMDAT ?_Right@?$_Tree@V?$_Tmap_traits@KEU?$less@K@std@@V?$allocator@U?$pair@$$CBKE@std@@@2@$0A@@std@@@std@@KAAAPAU_Node@?$_Tree_nod@V?$_Tmap_traits@KEU?$less@K@std@@V?$allocator@U?$pair@$$CBKE@std@@@2@$0A@@std@@@2@PAU342@@Z
_TEXT	SEGMENT PARA USE32 PUBLIC 'CODE'
_TEXT	ENDS
;	COMDAT ??9const_iterator@?$_Tree@V?$_Tmap_traits@KPAVCCtrl@@U?$less@K@std@@V?$allocator@U?$pair@$$CBKPAVCCtrl@@@std@@@3@$0A@@std@@@std@@QBE_NABV012@@Z
_TEXT	SEGMENT PARA USE32 PUBLIC 'CODE'
_TEXT	ENDS
;	COMDAT ??8const_iterator@?$_Tree@V?$_Tmap_traits@KPAVCCtrl@@U?$less@K@std@@V?$allocator@U?$pair@$$CBKPAVCCtrl@@@std@@@3@$0A@@std@@@std@@QBE_NABV012@@Z
_TEXT	SEGMENT PARA USE32 PUBLIC 'CODE'
_TEXT	ENDS
;	COMDAT ??Eiterator@?$_Tree@V?$_Tmap_traits@KPAVCCtrl@@U?$less@K@std@@V?$allocator@U?$pair@$$CBKPAVCCtrl@@@std@@@3@$0A@@std@@@std@@QAEAAV012@XZ
_TEXT	SEGMENT PARA USE32 PUBLIC 'CODE'
_TEXT	ENDS
;	COMDAT ??Econst_iterator@?$_Tree@V?$_Tmap_traits@KPAVCCtrl@@U?$less@K@std@@V?$allocator@U?$pair@$$CBKPAVCCtrl@@@std@@@3@$0A@@std@@@std@@QAEAAV012@XZ
_TEXT	SEGMENT PARA USE32 PUBLIC 'CODE'
_TEXT	ENDS
;	COMDAT ?_Inc@const_iterator@?$_Tree@V?$_Tmap_traits@KPAVCCtrl@@U?$less@K@std@@V?$allocator@U?$pair@$$CBKPAVCCtrl@@@std@@@3@$0A@@std@@@std@@QAEXXZ
_TEXT	SEGMENT PARA USE32 PUBLIC 'CODE'
_TEXT	ENDS
;	COMDAT ?_Min@?$_Tree@V?$_Tmap_traits@KPAVCCtrl@@U?$less@K@std@@V?$allocator@U?$pair@$$CBKPAVCCtrl@@@std@@@3@$0A@@std@@@std@@KAPAU_Node@?$_Tree_nod@V?$_Tmap_traits@KPAVCCtrl@@U?$less@K@std@@V?$allocator@U?$pair@$$CBKPAVCCtrl@@@std@@@3@$0A@@std@@@2@PAU342@@Z
_TEXT	SEGMENT PARA USE32 PUBLIC 'CODE'
_TEXT	ENDS
;	COMDAT ?_Left@?$_Tree@V?$_Tmap_traits@KPAVCCtrl@@U?$less@K@std@@V?$allocator@U?$pair@$$CBKPAVCCtrl@@@std@@@3@$0A@@std@@@std@@KAAAPAU_Node@?$_Tree_nod@V?$_Tmap_traits@KPAVCCtrl@@U?$less@K@std@@V?$allocator@U?$pair@$$CBKPAVCCtrl@@@std@@@3@$0A@@std@@@2@PAU342@@Z
_TEXT	SEGMENT PARA USE32 PUBLIC 'CODE'
_TEXT	ENDS
;	COMDAT ?_Isnil@?$_Tree@V?$_Tmap_traits@KPAVCCtrl@@U?$less@K@std@@V?$allocator@U?$pair@$$CBKPAVCCtrl@@@std@@@3@$0A@@std@@@std@@KAAADPAU_Node@?$_Tree_nod@V?$_Tmap_traits@KPAVCCtrl@@U?$less@K@std@@V?$allocator@U?$pair@$$CBKPAVCCtrl@@@std@@@3@$0A@@std@@@2@@Z
_TEXT	SEGMENT PARA USE32 PUBLIC 'CODE'
_TEXT	ENDS
;	COMDAT ?_Parent@?$_Tree@V?$_Tmap_traits@KPAVCCtrl@@U?$less@K@std@@V?$allocator@U?$pair@$$CBKPAVCCtrl@@@std@@@3@$0A@@std@@@std@@KAAAPAU_Node@?$_Tree_nod@V?$_Tmap_traits@KPAVCCtrl@@U?$less@K@std@@V?$allocator@U?$pair@$$CBKPAVCCtrl@@@std@@@3@$0A@@std@@@2@PAU342@@Z
_TEXT	SEGMENT PARA USE32 PUBLIC 'CODE'
_TEXT	ENDS
;	COMDAT ?_Right@?$_Tree@V?$_Tmap_traits@KPAVCCtrl@@U?$less@K@std@@V?$allocator@U?$pair@$$CBKPAVCCtrl@@@std@@@3@$0A@@std@@@std@@KAAAPAU_Node@?$_Tree_nod@V?$_Tmap_traits@KPAVCCtrl@@U?$less@K@std@@V?$allocator@U?$pair@$$CBKPAVCCtrl@@@std@@@3@$0A@@std@@@2@PAU342@@Z
_TEXT	SEGMENT PARA USE32 PUBLIC 'CODE'
_TEXT	ENDS
;	COMDAT ??9const_iterator@?$_Tree@V?$_Tmap_traits@KPAVCUser@@U?$less@K@std@@V?$allocator@U?$pair@$$CBKPAVCUser@@@std@@@3@$0A@@std@@@std@@QBE_NABV012@@Z
_TEXT	SEGMENT PARA USE32 PUBLIC 'CODE'
_TEXT	ENDS
;	COMDAT ??8const_iterator@?$_Tree@V?$_Tmap_traits@KPAVCUser@@U?$less@K@std@@V?$allocator@U?$pair@$$CBKPAVCUser@@@std@@@3@$0A@@std@@@std@@QBE_NABV012@@Z
_TEXT	SEGMENT PARA USE32 PUBLIC 'CODE'
_TEXT	ENDS
;	COMDAT ??Eiterator@?$_Tree@V?$_Tmap_traits@KPAVCUser@@U?$less@K@std@@V?$allocator@U?$pair@$$CBKPAVCUser@@@std@@@3@$0A@@std@@@std@@QAEAAV012@XZ
_TEXT	SEGMENT PARA USE32 PUBLIC 'CODE'
_TEXT	ENDS
;	COMDAT ??Econst_iterator@?$_Tree@V?$_Tmap_traits@KPAVCUser@@U?$less@K@std@@V?$allocator@U?$pair@$$CBKPAVCUser@@@std@@@3@$0A@@std@@@std@@QAEAAV012@XZ
_TEXT	SEGMENT PARA USE32 PUBLIC 'CODE'
_TEXT	ENDS
;	COMDAT ?_Inc@const_iterator@?$_Tree@V?$_Tmap_traits@KPAVCUser@@U?$less@K@std@@V?$allocator@U?$pair@$$CBKPAVCUser@@@std@@@3@$0A@@std@@@std@@QAEXXZ
_TEXT	SEGMENT PARA USE32 PUBLIC 'CODE'
_TEXT	ENDS
;	COMDAT ?_Min@?$_Tree@V?$_Tmap_traits@KPAVCUser@@U?$less@K@std@@V?$allocator@U?$pair@$$CBKPAVCUser@@@std@@@3@$0A@@std@@@std@@KAPAU_Node@?$_Tree_nod@V?$_Tmap_traits@KPAVCUser@@U?$less@K@std@@V?$allocator@U?$pair@$$CBKPAVCUser@@@std@@@3@$0A@@std@@@2@PAU342@@Z
_TEXT	SEGMENT PARA USE32 PUBLIC 'CODE'
_TEXT	ENDS
;	COMDAT ?_Left@?$_Tree@V?$_Tmap_traits@KPAVCUser@@U?$less@K@std@@V?$allocator@U?$pair@$$CBKPAVCUser@@@std@@@3@$0A@@std@@@std@@KAAAPAU_Node@?$_Tree_nod@V?$_Tmap_traits@KPAVCUser@@U?$less@K@std@@V?$allocator@U?$pair@$$CBKPAVCUser@@@std@@@3@$0A@@std@@@2@PAU342@@Z
_TEXT	SEGMENT PARA USE32 PUBLIC 'CODE'
_TEXT	ENDS
;	COMDAT ?_Isnil@?$_Tree@V?$_Tmap_traits@KPAVCUser@@U?$less@K@std@@V?$allocator@U?$pair@$$CBKPAVCUser@@@std@@@3@$0A@@std@@@std@@KAAADPAU_Node@?$_Tree_nod@V?$_Tmap_traits@KPAVCUser@@U?$less@K@std@@V?$allocator@U?$pair@$$CBKPAVCUser@@@std@@@3@$0A@@std@@@2@@Z
_TEXT	SEGMENT PARA USE32 PUBLIC 'CODE'
_TEXT	ENDS
;	COMDAT ?_Parent@?$_Tree@V?$_Tmap_traits@KPAVCUser@@U?$less@K@std@@V?$allocator@U?$pair@$$CBKPAVCUser@@@std@@@3@$0A@@std@@@std@@KAAAPAU_Node@?$_Tree_nod@V?$_Tmap_traits@KPAVCUser@@U?$less@K@std@@V?$allocator@U?$pair@$$CBKPAVCUser@@@std@@@3@$0A@@std@@@2@PAU342@@Z
_TEXT	SEGMENT PARA USE32 PUBLIC 'CODE'
_TEXT	ENDS
;	COMDAT ?_Right@?$_Tree@V?$_Tmap_traits@KPAVCUser@@U?$less@K@std@@V?$allocator@U?$pair@$$CBKPAVCUser@@@std@@@3@$0A@@std@@@std@@KAAAPAU_Node@?$_Tree_nod@V?$_Tmap_traits@KPAVCUser@@U?$less@K@std@@V?$allocator@U?$pair@$$CBKPAVCUser@@@std@@@3@$0A@@std@@@2@PAU342@@Z
_TEXT	SEGMENT PARA USE32 PUBLIC 'CODE'
_TEXT	ENDS
;	COMDAT ?_Psave@?$_Facetptr@V?$ctype@G@std@@@std@@2PBVfacet@locale@2@B
_DATA	SEGMENT DWORD USE32 PUBLIC 'DATA'
_DATA	ENDS
;	COMDAT ?_Psave@?$_Facetptr@V?$ctype@D@std@@@std@@2PBVfacet@locale@2@B
_DATA	SEGMENT DWORD USE32 PUBLIC 'DATA'
_DATA	ENDS
;	COMDAT ?compare@?$char_traits@D@std@@SAHPBD0I@Z
_TEXT	SEGMENT PARA USE32 PUBLIC 'CODE'
_TEXT	ENDS
;	COMDAT ?_Myptr@?$basic_string@DU?$char_traits@D@std@@V?$allocator@D@2@@std@@QBEPBDXZ
_TEXT	SEGMENT PARA USE32 PUBLIC 'CODE'
_TEXT	ENDS
;	COMDAT ?size@?$basic_string@DU?$char_traits@D@std@@V?$allocator@D@2@@std@@QBEIXZ
_TEXT	SEGMENT PARA USE32 PUBLIC 'CODE'
_TEXT	ENDS
;	COMDAT ?ToBool@CLuaBase@@QAEHH@Z
_TEXT	SEGMENT PARA USE32 PUBLIC 'CODE'
_TEXT	ENDS
;	COMDAT ?ToNumber@CLuaBase@@QAENH@Z
_TEXT	SEGMENT PARA USE32 PUBLIC 'CODE'
_TEXT	ENDS
;	COMDAT ?ToString@CLuaBase@@QAEPBDH@Z
_TEXT	SEGMENT PARA USE32 PUBLIC 'CODE'
_TEXT	ENDS
;	COMDAT ??_7CLuaBase@@6B@
CONST	SEGMENT DWORD USE32 PUBLIC 'CONST'
CONST	ENDS
sxdata	SEGMENT DWORD USE32 'SXDATA'
sxdata	ENDS
FLAT	GROUP _DATA, CONST, _BSS
	ASSUME	CS: FLAT, DS: FLAT, SS: FLAT
endif

INCLUDELIB LIBCMT
INCLUDELIB OLDNAMES

PUBLIC	??1CLuaBase@@UAE@XZ				; CLuaBase::~CLuaBase
PUBLIC	??_7CLuaBase@@6B@				; CLuaBase::`vftable'
PUBLIC	??_GCLuaBase@@UAEPAXI@Z				; CLuaBase::`scalar deleting destructor'
EXTRN	??_ECLuaBase@@UAEPAXI@Z:NEAR			; CLuaBase::`vector deleting destructor'
EXTRN	_lua_close:NEAR
;	COMDAT ??_7CLuaBase@@6B@
; File c:\documents and settings\test\mes documents\source\virtuos_v17\build\program\_common\luabase.cpp
CONST	SEGMENT
??_7CLuaBase@@6B@ DD FLAT:??_ECLuaBase@@UAEPAXI@Z	; CLuaBase::`vftable'
; Function compile flags: /Ogty
CONST	ENDS
;	COMDAT ??1CLuaBase@@UAE@XZ
_TEXT	SEGMENT
??1CLuaBase@@UAE@XZ PROC NEAR				; CLuaBase::~CLuaBase, COMDAT
; _this$ = ecx

; 22   : {

  00000	c7 01 00 00 00
	00		 mov	 DWORD PTR [ecx], OFFSET FLAT:??_7CLuaBase@@6B@

; 23   : 	if( m_pLuaState )

  00006	8b 49 04	 mov	 ecx, DWORD PTR [ecx+4]
  00009	85 c9		 test	 ecx, ecx
  0000b	74 07		 je	 SHORT $L225607

; 24   : 		lua_close( m_pLuaState );

  0000d	51		 push	 ecx
  0000e	e8 00 00 00 00	 call	 _lua_close
  00013	59		 pop	 ecx
$L225607:

; 25   : }

  00014	c3		 ret	 0
??1CLuaBase@@UAE@XZ ENDP				; CLuaBase::~CLuaBase
_TEXT	ENDS
PUBLIC	?_TRACE@CLuaBase@@SAHPAUlua_State@@@Z		; CLuaBase::_TRACE
; Function compile flags: /Ogty
;	COMDAT ?_TRACE@CLuaBase@@SAHPAUlua_State@@@Z
_TEXT	SEGMENT
_pLuaState$ = 8						; size = 4
?_TRACE@CLuaBase@@SAHPAUlua_State@@@Z PROC NEAR		; CLuaBase::_TRACE, COMDAT

; 29   : 	TRACE( "LUA - %s\n", lua_tostring(pLuaState, -1) );
; 30   : 
; 31   : 	return 0;

  00000	33 c0		 xor	 eax, eax

; 32   : }

  00002	c3		 ret	 0
?_TRACE@CLuaBase@@SAHPAUlua_State@@@Z ENDP		; CLuaBase::_TRACE
_TEXT	ENDS
PUBLIC	?_ERROR@CLuaBase@@SAHPAUlua_State@@@Z		; CLuaBase::_ERROR
PUBLIC	??_C@_08HKLBHHKO@LUA?5?9?5?$CFs?$AA@		; `string'
EXTRN	?Error@@YAPBDPBDZZ:NEAR				; Error
EXTRN	_lua_tolstring:NEAR
;	COMDAT ??_C@_08HKLBHHKO@LUA?5?9?5?$CFs?$AA@
CONST	SEGMENT
??_C@_08HKLBHHKO@LUA?5?9?5?$CFs?$AA@ DB 'LUA - %s', 00H	; `string'
; Function compile flags: /Ogty
CONST	ENDS
;	COMDAT ?_ERROR@CLuaBase@@SAHPAUlua_State@@@Z
_TEXT	SEGMENT
_pLuaState$ = 8						; size = 4
?_ERROR@CLuaBase@@SAHPAUlua_State@@@Z PROC NEAR		; CLuaBase::_ERROR, COMDAT

; 36   : 	Error( "LUA - %s", lua_tostring(pLuaState, -1) );

  00000	8b 44 24 04	 mov	 eax, DWORD PTR _pLuaState$[esp-4]
  00004	6a 00		 push	 0
  00006	6a ff		 push	 -1
  00008	50		 push	 eax
  00009	e8 00 00 00 00	 call	 _lua_tolstring
  0000e	50		 push	 eax
  0000f	68 00 00 00 00	 push	 OFFSET FLAT:??_C@_08HKLBHHKO@LUA?5?9?5?$CFs?$AA@
  00014	e8 00 00 00 00	 call	 ?Error@@YAPBDPBDZZ	; Error
  00019	83 c4 14	 add	 esp, 20			; 00000014H

; 37   : 
; 38   : 	return 0;

  0001c	33 c0		 xor	 eax, eax

; 39   : }

  0001e	c3		 ret	 0
?_ERROR@CLuaBase@@SAHPAUlua_State@@@Z ENDP		; CLuaBase::_ERROR
_TEXT	ENDS
PUBLIC	?RegisterFunction@CLuaBase@@QAEXPADP6AHPAUlua_State@@@Z@Z ; CLuaBase::RegisterFunction
EXTRN	_lua_pushcclosure:NEAR
EXTRN	_lua_setfield:NEAR
; Function compile flags: /Ogty
;	COMDAT ?RegisterFunction@CLuaBase@@QAEXPADP6AHPAUlua_State@@@Z@Z
_TEXT	SEGMENT
_szFromLuaFunc$ = 8					; size = 4
_ToCFunc$ = 12						; size = 4
?RegisterFunction@CLuaBase@@QAEXPADP6AHPAUlua_State@@@Z@Z PROC NEAR ; CLuaBase::RegisterFunction, COMDAT
; _this$ = ecx

; 43   : 	lua_register( m_pLuaState, szFromLuaFunc, ToCFunc );

  00000	8b 44 24 08	 mov	 eax, DWORD PTR _ToCFunc$[esp-4]
  00004	56		 push	 esi
  00005	8b f1		 mov	 esi, ecx
  00007	8b 4e 04	 mov	 ecx, DWORD PTR [esi+4]
  0000a	6a 00		 push	 0
  0000c	50		 push	 eax
  0000d	51		 push	 ecx
  0000e	e8 00 00 00 00	 call	 _lua_pushcclosure
  00013	8b 54 24 14	 mov	 edx, DWORD PTR _szFromLuaFunc$[esp+12]
  00017	8b 46 04	 mov	 eax, DWORD PTR [esi+4]
  0001a	52		 push	 edx
  0001b	68 ee d8 ff ff	 push	 -10002			; ffffd8eeH
  00020	50		 push	 eax
  00021	e8 00 00 00 00	 call	 _lua_setfield
  00026	83 c4 18	 add	 esp, 24			; 00000018H
  00029	5e		 pop	 esi

; 44   : }

  0002a	c2 08 00	 ret	 8
?RegisterFunction@CLuaBase@@QAEXPADP6AHPAUlua_State@@@Z@Z ENDP ; CLuaBase::RegisterFunction
_TEXT	ENDS
PUBLIC	?GetLuaFunction@CLuaBase@@QAEHPAD@Z		; CLuaBase::GetLuaFunction
EXTRN	_lua_type:NEAR
EXTRN	_lua_getfield:NEAR
; Function compile flags: /Ogty
;	COMDAT ?GetLuaFunction@CLuaBase@@QAEHPAD@Z
_TEXT	SEGMENT
_szFunc$ = 8						; size = 4
?GetLuaFunction@CLuaBase@@QAEHPAD@Z PROC NEAR		; CLuaBase::GetLuaFunction, COMDAT
; _this$ = ecx

; 57   : 	lua_getglobal( m_pLuaState, szFunc );

  00000	8b 44 24 04	 mov	 eax, DWORD PTR _szFunc$[esp-4]
  00004	56		 push	 esi
  00005	50		 push	 eax
  00006	8b f1		 mov	 esi, ecx
  00008	8b 4e 04	 mov	 ecx, DWORD PTR [esi+4]
  0000b	68 ee d8 ff ff	 push	 -10002			; ffffd8eeH
  00010	51		 push	 ecx
  00011	e8 00 00 00 00	 call	 _lua_getfield

; 58   : 	if( lua_isfunction(m_pLuaState, -1) )

  00016	8b 56 04	 mov	 edx, DWORD PTR [esi+4]
  00019	6a ff		 push	 -1
  0001b	52		 push	 edx
  0001c	e8 00 00 00 00	 call	 _lua_type
  00021	83 e8 06	 sub	 eax, 6
  00024	83 c4 14	 add	 esp, 20			; 00000014H
  00027	f7 d8		 neg	 eax
  00029	1b c0		 sbb	 eax, eax
  0002b	40		 inc	 eax
  0002c	5e		 pop	 esi

; 59   : 		return true;
; 60   : 	else
; 61   : 		return false;
; 62   : }

  0002d	c2 04 00	 ret	 4
?GetLuaFunction@CLuaBase@@QAEHPAD@Z ENDP		; CLuaBase::GetLuaFunction
_TEXT	ENDS
PUBLIC	?Pop@CLuaBase@@QAEXH@Z				; CLuaBase::Pop
EXTRN	_lua_settop:NEAR
; Function compile flags: /Ogty
;	COMDAT ?Pop@CLuaBase@@QAEXH@Z
_TEXT	SEGMENT
_nPop$ = 8						; size = 4
?Pop@CLuaBase@@QAEXH@Z PROC NEAR			; CLuaBase::Pop, COMDAT
; _this$ = ecx

; 110  : 	if( nPop == 0 )

  00000	8b 44 24 04	 mov	 eax, DWORD PTR _nPop$[esp-4]
  00004	85 c0		 test	 eax, eax
  00006	75 10		 jne	 SHORT $L225661

; 111  : 		lua_settop( m_pLuaState, 0 );

  00008	50		 push	 eax

; 112  : 	else
; 113  : 		lua_pop( m_pLuaState, nPop );

  00009	8b 41 04	 mov	 eax, DWORD PTR [ecx+4]
  0000c	50		 push	 eax
  0000d	e8 00 00 00 00	 call	 _lua_settop
  00012	83 c4 08	 add	 esp, 8

; 114  : }

  00015	c2 04 00	 ret	 4
$L225661:

; 112  : 	else
; 113  : 		lua_pop( m_pLuaState, nPop );

  00018	83 ca ff	 or	 edx, -1
  0001b	2b d0		 sub	 edx, eax
  0001d	8b 41 04	 mov	 eax, DWORD PTR [ecx+4]
  00020	52		 push	 edx
  00021	50		 push	 eax
  00022	e8 00 00 00 00	 call	 _lua_settop
  00027	83 c4 08	 add	 esp, 8

; 114  : }

  0002a	c2 04 00	 ret	 4
?Pop@CLuaBase@@QAEXH@Z ENDP				; CLuaBase::Pop
_TEXT	ENDS
PUBLIC	?ToNumber@CLuaBase@@QAENH@Z			; CLuaBase::ToNumber
EXTRN	__fltused:NEAR
EXTRN	_lua_tonumber:NEAR
; Function compile flags: /Ogty
; File c:\documents and settings\test\mes documents\source\virtuos_v17\build\program\_common\luabase.h
;	COMDAT ?ToNumber@CLuaBase@@QAENH@Z
_TEXT	SEGMENT
_nStackPos$ = 8						; size = 4
?ToNumber@CLuaBase@@QAENH@Z PROC NEAR			; CLuaBase::ToNumber, COMDAT
; _this$ = ecx

; 43   : 	double		ToNumber( int nStackPos )					{  return lua_tonumber( m_pLuaState, nStackPos );  }

  00000	8b 44 24 04	 mov	 eax, DWORD PTR _nStackPos$[esp-4]
  00004	8b 49 04	 mov	 ecx, DWORD PTR [ecx+4]
  00007	50		 push	 eax
  00008	51		 push	 ecx
  00009	e8 00 00 00 00	 call	 _lua_tonumber
  0000e	83 c4 08	 add	 esp, 8
  00011	c2 04 00	 ret	 4
?ToNumber@CLuaBase@@QAENH@Z ENDP			; CLuaBase::ToNumber
_TEXT	ENDS
PUBLIC	?ToString@CLuaBase@@QAEPBDH@Z			; CLuaBase::ToString
; Function compile flags: /Ogty
;	COMDAT ?ToString@CLuaBase@@QAEPBDH@Z
_TEXT	SEGMENT
_nStackPos$ = 8						; size = 4
?ToString@CLuaBase@@QAEPBDH@Z PROC NEAR			; CLuaBase::ToString, COMDAT
; _this$ = ecx

; 44   : 	const char*	ToString( int nStackPos )					{  return lua_tostring( m_pLuaState, nStackPos );  }

  00000	8b 44 24 04	 mov	 eax, DWORD PTR _nStackPos$[esp-4]
  00004	8b 49 04	 mov	 ecx, DWORD PTR [ecx+4]
  00007	6a 00		 push	 0
  00009	50		 push	 eax
  0000a	51		 push	 ecx
  0000b	e8 00 00 00 00	 call	 _lua_tolstring
  00010	83 c4 0c	 add	 esp, 12			; 0000000cH
  00013	c2 04 00	 ret	 4
?ToString@CLuaBase@@QAEPBDH@Z ENDP			; CLuaBase::ToString
_TEXT	ENDS
PUBLIC	?ToBool@CLuaBase@@QAEHH@Z			; CLuaBase::ToBool
EXTRN	_lua_toboolean:NEAR
; Function compile flags: /Ogty
;	COMDAT ?ToBool@CLuaBase@@QAEHH@Z
_TEXT	SEGMENT
_nStackPos$ = 8						; size = 4
?ToBool@CLuaBase@@QAEHH@Z PROC NEAR			; CLuaBase::ToBool, COMDAT
; _this$ = ecx

; 45   : 	BOOL		ToBool( int nStackPos )						{  return static_cast<BOOL>( lua_toboolean( m_pLuaState, nStackPos ) );  }

  00000	8b 44 24 04	 mov	 eax, DWORD PTR _nStackPos$[esp-4]
  00004	8b 49 04	 mov	 ecx, DWORD PTR [ecx+4]
  00007	50		 push	 eax
  00008	51		 push	 ecx
  00009	e8 00 00 00 00	 call	 _lua_toboolean
  0000e	83 c4 08	 add	 esp, 8
  00011	c2 04 00	 ret	 4
?ToBool@CLuaBase@@QAEHH@Z ENDP				; CLuaBase::ToBool
_TEXT	ENDS
PUBLIC	??0CLuaBase@@QAE@XZ				; CLuaBase::CLuaBase
PUBLIC	??_C@_05EHILDPJH@TRACE?$AA@			; `string'
PUBLIC	??_C@_05MBDEGLCK@ERROR?$AA@			; `string'
EXTRN	_luaL_openlibs:NEAR
EXTRN	_luaL_newstate:NEAR
;	COMDAT ??_C@_05EHILDPJH@TRACE?$AA@
; File c:\documents and settings\test\mes documents\source\virtuos_v17\build\program\_common\luabase.cpp
CONST	SEGMENT
??_C@_05EHILDPJH@TRACE?$AA@ DB 'TRACE', 00H		; `string'
CONST	ENDS
;	COMDAT ??_C@_05MBDEGLCK@ERROR?$AA@
CONST	SEGMENT
??_C@_05MBDEGLCK@ERROR?$AA@ DB 'ERROR', 00H		; `string'
; Function compile flags: /Ogty
CONST	ENDS
;	COMDAT ??0CLuaBase@@QAE@XZ
_TEXT	SEGMENT
??0CLuaBase@@QAE@XZ PROC NEAR				; CLuaBase::CLuaBase, COMDAT
; _this$ = ecx

; 13   : {

  00000	56		 push	 esi
  00001	8b f1		 mov	 esi, ecx
  00003	c7 06 00 00 00
	00		 mov	 DWORD PTR [esi], OFFSET FLAT:??_7CLuaBase@@6B@

; 14   : 	m_pLuaState = NULL;

  00009	c7 46 04 00 00
	00 00		 mov	 DWORD PTR [esi+4], 0

; 15   : 	m_pLuaState = lua_open();

  00010	e8 00 00 00 00	 call	 _luaL_newstate

; 16   : 	luaL_openlibs( m_pLuaState );

  00015	50		 push	 eax
  00016	89 46 04	 mov	 DWORD PTR [esi+4], eax
  00019	e8 00 00 00 00	 call	 _luaL_openlibs

; 17   : 	RegisterFunction( "TRACE", _TRACE );

  0001e	8b 46 04	 mov	 eax, DWORD PTR [esi+4]
  00021	6a 00		 push	 0
  00023	68 00 00 00 00	 push	 OFFSET FLAT:?_TRACE@CLuaBase@@SAHPAUlua_State@@@Z ; CLuaBase::_TRACE
  00028	50		 push	 eax
  00029	e8 00 00 00 00	 call	 _lua_pushcclosure
  0002e	8b 4e 04	 mov	 ecx, DWORD PTR [esi+4]
  00031	68 00 00 00 00	 push	 OFFSET FLAT:??_C@_05EHILDPJH@TRACE?$AA@
  00036	68 ee d8 ff ff	 push	 -10002			; ffffd8eeH
  0003b	51		 push	 ecx
  0003c	e8 00 00 00 00	 call	 _lua_setfield

; 18   : 	RegisterFunction( "ERROR", _ERROR );

  00041	8b 56 04	 mov	 edx, DWORD PTR [esi+4]
  00044	6a 00		 push	 0
  00046	68 00 00 00 00	 push	 OFFSET FLAT:?_ERROR@CLuaBase@@SAHPAUlua_State@@@Z ; CLuaBase::_ERROR
  0004b	52		 push	 edx
  0004c	e8 00 00 00 00	 call	 _lua_pushcclosure
  00051	8b 46 04	 mov	 eax, DWORD PTR [esi+4]
  00054	68 00 00 00 00	 push	 OFFSET FLAT:??_C@_05MBDEGLCK@ERROR?$AA@
  00059	68 ee d8 ff ff	 push	 -10002			; ffffd8eeH
  0005e	50		 push	 eax
  0005f	e8 00 00 00 00	 call	 _lua_setfield
  00064	83 c4 34	 add	 esp, 52			; 00000034H

; 19   : }

  00067	8b c6		 mov	 eax, esi
  00069	5e		 pop	 esi
  0006a	c3		 ret	 0
??0CLuaBase@@QAE@XZ ENDP				; CLuaBase::CLuaBase
_TEXT	ENDS
EXTRN	??3@YAXPAX@Z:NEAR				; operator delete
; Function compile flags: /Ogty
;	COMDAT ??_GCLuaBase@@UAEPAXI@Z
_TEXT	SEGMENT
___flags$ = 8						; size = 4
??_GCLuaBase@@UAEPAXI@Z PROC NEAR			; CLuaBase::`scalar deleting destructor', COMDAT
; _this$ = ecx
  00000	56		 push	 esi
  00001	8b f1		 mov	 esi, ecx
  00003	8b 46 04	 mov	 eax, DWORD PTR [esi+4]
  00006	85 c0		 test	 eax, eax
  00008	c7 06 00 00 00
	00		 mov	 DWORD PTR [esi], OFFSET FLAT:??_7CLuaBase@@6B@
  0000e	74 09		 je	 SHORT $L226926
  00010	50		 push	 eax
  00011	e8 00 00 00 00	 call	 _lua_close
  00016	83 c4 04	 add	 esp, 4
$L226926:
  00019	f6 44 24 08 01	 test	 BYTE PTR ___flags$[esp], 1
  0001e	74 09		 je	 SHORT $L226928
  00020	56		 push	 esi
  00021	e8 00 00 00 00	 call	 ??3@YAXPAX@Z		; operator delete
  00026	83 c4 04	 add	 esp, 4
$L226928:
  00029	8b c6		 mov	 eax, esi
  0002b	5e		 pop	 esi
  0002c	c2 04 00	 ret	 4
??_GCLuaBase@@UAEPAXI@Z ENDP				; CLuaBase::`scalar deleting destructor'
_TEXT	ENDS
PUBLIC	?RunScript@CLuaBase@@QAEHPBD@Z			; CLuaBase::RunScript
EXTRN	_luaL_loadfile:NEAR
EXTRN	_lua_pcall:NEAR
; Function compile flags: /Ogty
;	COMDAT ?RunScript@CLuaBase@@QAEHPBD@Z
_TEXT	SEGMENT
_szFileName$ = 8					; size = 4
?RunScript@CLuaBase@@QAEHPBD@Z PROC NEAR		; CLuaBase::RunScript, COMDAT
; _this$ = ecx

; 48   : 	int nReturn = luaL_dofile( m_pLuaState, szFileName );

  00000	8b 44 24 04	 mov	 eax, DWORD PTR _szFileName$[esp-4]
  00004	56		 push	 esi
  00005	8b f1		 mov	 esi, ecx
  00007	8b 4e 04	 mov	 ecx, DWORD PTR [esi+4]
  0000a	50		 push	 eax
  0000b	51		 push	 ecx
  0000c	e8 00 00 00 00	 call	 _luaL_loadfile
  00011	83 c4 08	 add	 esp, 8
  00014	85 c0		 test	 eax, eax
  00016	75 18		 jne	 SHORT $L226932
  00018	8b 56 04	 mov	 edx, DWORD PTR [esi+4]
  0001b	50		 push	 eax
  0001c	6a ff		 push	 -1
  0001e	50		 push	 eax
  0001f	52		 push	 edx
  00020	e8 00 00 00 00	 call	 _lua_pcall
  00025	83 c4 10	 add	 esp, 16			; 00000010H
  00028	85 c0		 test	 eax, eax
  0002a	75 04		 jne	 SHORT $L226932
  0002c	5e		 pop	 esi

; 53   : }

  0002d	c2 04 00	 ret	 4
$L226932:

; 49   : 	if( nReturn != 0 )
; 50   : 		Error( ToString( -1 ) );

  00030	8b 46 04	 mov	 eax, DWORD PTR [esi+4]
  00033	57		 push	 edi
  00034	6a 00		 push	 0
  00036	6a ff		 push	 -1
  00038	50		 push	 eax
  00039	bf 01 00 00 00	 mov	 edi, 1
  0003e	e8 00 00 00 00	 call	 _lua_tolstring
  00043	50		 push	 eax
  00044	e8 00 00 00 00	 call	 ?Error@@YAPBDPBDZZ	; Error
  00049	83 c4 10	 add	 esp, 16			; 00000010H

; 51   : 	
; 52   : 	return nReturn;

  0004c	8b c7		 mov	 eax, edi
  0004e	5f		 pop	 edi
  0004f	5e		 pop	 esi

; 53   : }

  00050	c2 04 00	 ret	 4
?RunScript@CLuaBase@@QAEHPBD@Z ENDP			; CLuaBase::RunScript
_TEXT	ENDS
PUBLIC	?CallLuaFunction@CLuaBase@@QAEXHH@Z		; CLuaBase::CallLuaFunction
EXTRN	_exit:NEAR
; Function compile flags: /Ogty
;	COMDAT ?CallLuaFunction@CLuaBase@@QAEXHH@Z
_TEXT	SEGMENT
_nElem$ = 8						; size = 4
_nReturn$ = 12						; size = 4
?CallLuaFunction@CLuaBase@@QAEXHH@Z PROC NEAR		; CLuaBase::CallLuaFunction, COMDAT
; _this$ = ecx

; 66   : 	if( lua_pcall( m_pLuaState, nElem, nReturn, 0 ) != 0 )

  00000	8b 44 24 08	 mov	 eax, DWORD PTR _nReturn$[esp-4]
  00004	56		 push	 esi
  00005	6a 00		 push	 0
  00007	8b f1		 mov	 esi, ecx
  00009	8b 4c 24 0c	 mov	 ecx, DWORD PTR _nElem$[esp+4]
  0000d	8b 56 04	 mov	 edx, DWORD PTR [esi+4]
  00010	50		 push	 eax
  00011	51		 push	 ecx
  00012	52		 push	 edx
  00013	e8 00 00 00 00	 call	 _lua_pcall
  00018	83 c4 10	 add	 esp, 16			; 00000010H
  0001b	85 c0		 test	 eax, eax
  0001d	74 1d		 je	 SHORT $L225637

; 67   : 	{
; 68   : 		Error( ToString( -1 ) );

  0001f	8b 46 04	 mov	 eax, DWORD PTR [esi+4]
  00022	6a 00		 push	 0
  00024	6a ff		 push	 -1
  00026	50		 push	 eax
  00027	e8 00 00 00 00	 call	 _lua_tolstring
  0002c	50		 push	 eax
  0002d	e8 00 00 00 00	 call	 ?Error@@YAPBDPBDZZ	; Error
  00032	83 c4 10	 add	 esp, 16			; 00000010H

; 69   : 		exit( 0 );

  00035	6a 00		 push	 0
  00037	e8 00 00 00 00	 call	 _exit
$L226945:
$L225637:
  0003c	5e		 pop	 esi

; 70   : 	}
; 71   : }

  0003d	c2 08 00	 ret	 8
$L226944:
?CallLuaFunction@CLuaBase@@QAEXHH@Z ENDP		; CLuaBase::CallLuaFunction
_TEXT	ENDS
PUBLIC	?GetGlobalNumber@CLuaBase@@QAENPAD@Z		; CLuaBase::GetGlobalNumber
PUBLIC	__real@0000000000000000
EXTRN	_lua_isnumber:NEAR
;	COMDAT __real@0000000000000000
CONST	SEGMENT
__real@0000000000000000 DQ 00000000000000000r	; 0
; Function compile flags: /Ogty
CONST	ENDS
;	COMDAT ?GetGlobalNumber@CLuaBase@@QAENPAD@Z
_TEXT	SEGMENT
_fValue$ = -8						; size = 8
_szName$ = 8						; size = 4
?GetGlobalNumber@CLuaBase@@QAENPAD@Z PROC NEAR		; CLuaBase::GetGlobalNumber, COMDAT
; _this$ = ecx

; 74   : {

  00000	83 ec 08	 sub	 esp, 8

; 75   : 	double fValue = 0;
; 76   : 	lua_getglobal( m_pLuaState, szName );

  00003	8b 44 24 0c	 mov	 eax, DWORD PTR _szName$[esp+4]
  00007	dd 05 00 00 00
	00		 fld	 QWORD PTR __real@0000000000000000
  0000d	56		 push	 esi
  0000e	dd 5c 24 04	 fstp	 QWORD PTR _fValue$[esp+12]
  00012	50		 push	 eax
  00013	8b f1		 mov	 esi, ecx
  00015	8b 4e 04	 mov	 ecx, DWORD PTR [esi+4]
  00018	68 ee d8 ff ff	 push	 -10002			; ffffd8eeH
  0001d	51		 push	 ecx
  0001e	e8 00 00 00 00	 call	 _lua_getfield

; 77   : 	if( lua_isnumber( m_pLuaState, -1 ) )

  00023	8b 56 04	 mov	 edx, DWORD PTR [esi+4]
  00026	6a ff		 push	 -1
  00028	52		 push	 edx
  00029	e8 00 00 00 00	 call	 _lua_isnumber
  0002e	83 c4 14	 add	 esp, 20			; 00000014H
  00031	85 c0		 test	 eax, eax
  00033	74 12		 je	 SHORT $L225643

; 78   : 		fValue = ToNumber( -1 );

  00035	8b 46 04	 mov	 eax, DWORD PTR [esi+4]
  00038	6a ff		 push	 -1
  0003a	50		 push	 eax
  0003b	e8 00 00 00 00	 call	 _lua_tonumber
  00040	dd 5c 24 0c	 fstp	 QWORD PTR _fValue$[esp+20]
  00044	83 c4 08	 add	 esp, 8
$L225643:

; 79   : 	Pop(1);

  00047	8b 4e 04	 mov	 ecx, DWORD PTR [esi+4]
  0004a	6a fe		 push	 -2			; fffffffeH
  0004c	51		 push	 ecx
  0004d	e8 00 00 00 00	 call	 _lua_settop

; 80   : 
; 81   : 	return fValue;

  00052	dd 44 24 0c	 fld	 QWORD PTR _fValue$[esp+20]
  00056	83 c4 08	 add	 esp, 8
  00059	5e		 pop	 esi

; 82   : }

  0005a	83 c4 08	 add	 esp, 8
  0005d	c2 04 00	 ret	 4
?GetGlobalNumber@CLuaBase@@QAENPAD@Z ENDP		; CLuaBase::GetGlobalNumber
_TEXT	ENDS
PUBLIC	?GetGlobalString@CLuaBase@@QAEPBDPAD@Z		; CLuaBase::GetGlobalString
EXTRN	_lua_isstring:NEAR
; Function compile flags: /Ogty
;	COMDAT ?GetGlobalString@CLuaBase@@QAEPBDPAD@Z
_TEXT	SEGMENT
_szName$ = 8						; size = 4
?GetGlobalString@CLuaBase@@QAEPBDPAD@Z PROC NEAR	; CLuaBase::GetGlobalString, COMDAT
; _this$ = ecx

; 86   : 	char* szValue = NULL;
; 87   : 	lua_getglobal( m_pLuaState, szName );

  00000	8b 44 24 04	 mov	 eax, DWORD PTR _szName$[esp-4]
  00004	56		 push	 esi
  00005	57		 push	 edi
  00006	50		 push	 eax
  00007	8b f1		 mov	 esi, ecx
  00009	8b 4e 04	 mov	 ecx, DWORD PTR [esi+4]
  0000c	68 ee d8 ff ff	 push	 -10002			; ffffd8eeH
  00011	51		 push	 ecx
  00012	33 ff		 xor	 edi, edi
  00014	e8 00 00 00 00	 call	 _lua_getfield

; 88   : 	if( lua_isstring( m_pLuaState, -1 ) )

  00019	8b 56 04	 mov	 edx, DWORD PTR [esi+4]
  0001c	6a ff		 push	 -1
  0001e	52		 push	 edx
  0001f	e8 00 00 00 00	 call	 _lua_isstring
  00024	83 c4 14	 add	 esp, 20			; 00000014H
  00027	85 c0		 test	 eax, eax
  00029	74 11		 je	 SHORT $L225649

; 89   : 		szValue = (char*)ToString( -1 );

  0002b	8b 46 04	 mov	 eax, DWORD PTR [esi+4]
  0002e	57		 push	 edi
  0002f	6a ff		 push	 -1
  00031	50		 push	 eax
  00032	e8 00 00 00 00	 call	 _lua_tolstring
  00037	83 c4 0c	 add	 esp, 12			; 0000000cH
  0003a	8b f8		 mov	 edi, eax
$L225649:

; 90   : 
; 91   : 	Pop( 1 );

  0003c	8b 4e 04	 mov	 ecx, DWORD PTR [esi+4]
  0003f	6a fe		 push	 -2			; fffffffeH
  00041	51		 push	 ecx
  00042	e8 00 00 00 00	 call	 _lua_settop
  00047	83 c4 08	 add	 esp, 8

; 92   : 
; 93   : 	return szValue;

  0004a	8b c7		 mov	 eax, edi
  0004c	5f		 pop	 edi
  0004d	5e		 pop	 esi

; 94   : }

  0004e	c2 04 00	 ret	 4
?GetGlobalString@CLuaBase@@QAEPBDPAD@Z ENDP		; CLuaBase::GetGlobalString
_TEXT	ENDS
PUBLIC	?GetGlobalBool@CLuaBase@@QAEHPAD@Z		; CLuaBase::GetGlobalBool
; Function compile flags: /Ogty
;	COMDAT ?GetGlobalBool@CLuaBase@@QAEHPAD@Z
_TEXT	SEGMENT
_szName$ = 8						; size = 4
?GetGlobalBool@CLuaBase@@QAEHPAD@Z PROC NEAR		; CLuaBase::GetGlobalBool, COMDAT
; _this$ = ecx

; 98   : 	BOOL bValue = FALSE;
; 99   : 	lua_getglobal( m_pLuaState, szName );

  00000	8b 44 24 04	 mov	 eax, DWORD PTR _szName$[esp-4]
  00004	56		 push	 esi
  00005	57		 push	 edi
  00006	50		 push	 eax
  00007	8b f1		 mov	 esi, ecx
  00009	8b 4e 04	 mov	 ecx, DWORD PTR [esi+4]
  0000c	68 ee d8 ff ff	 push	 -10002			; ffffd8eeH
  00011	51		 push	 ecx
  00012	33 ff		 xor	 edi, edi
  00014	e8 00 00 00 00	 call	 _lua_getfield

; 100  : 	if( lua_isboolean( m_pLuaState, -1 ) )

  00019	8b 56 04	 mov	 edx, DWORD PTR [esi+4]
  0001c	6a ff		 push	 -1
  0001e	52		 push	 edx
  0001f	e8 00 00 00 00	 call	 _lua_type
  00024	83 c4 14	 add	 esp, 20			; 00000014H
  00027	83 f8 01	 cmp	 eax, 1
  0002a	75 10		 jne	 SHORT $L225656

; 101  : 		bValue = ToBool( -1 );

  0002c	8b 46 04	 mov	 eax, DWORD PTR [esi+4]
  0002f	6a ff		 push	 -1
  00031	50		 push	 eax
  00032	e8 00 00 00 00	 call	 _lua_toboolean
  00037	83 c4 08	 add	 esp, 8
  0003a	8b f8		 mov	 edi, eax
$L225656:

; 102  : 
; 103  : 	Pop( 1 );

  0003c	8b 4e 04	 mov	 ecx, DWORD PTR [esi+4]
  0003f	6a fe		 push	 -2			; fffffffeH
  00041	51		 push	 ecx
  00042	e8 00 00 00 00	 call	 _lua_settop
  00047	83 c4 08	 add	 esp, 8

; 104  : 
; 105  : 	return bValue;

  0004a	8b c7		 mov	 eax, edi
  0004c	5f		 pop	 edi
  0004d	5e		 pop	 esi

; 106  : }

  0004e	c2 04 00	 ret	 4
?GetGlobalBool@CLuaBase@@QAEHPAD@Z ENDP			; CLuaBase::GetGlobalBool
_TEXT	ENDS
PUBLIC	?GetFieldToNumber@CLuaBase@@QAENHPAD@Z		; CLuaBase::GetFieldToNumber
; Function compile flags: /Ogty
;	COMDAT ?GetFieldToNumber@CLuaBase@@QAENHPAD@Z
_TEXT	SEGMENT
_fValue$ = -8						; size = 8
_nStackPos$ = 8						; size = 4
_szName$ = 12						; size = 4
?GetFieldToNumber@CLuaBase@@QAENHPAD@Z PROC NEAR	; CLuaBase::GetFieldToNumber, COMDAT
; _this$ = ecx

; 117  : {

  00000	83 ec 08	 sub	 esp, 8

; 118  : 	double fValue = 0;
; 119  : 	lua_getfield( m_pLuaState, nStackPos, szName );

  00003	8b 44 24 10	 mov	 eax, DWORD PTR _szName$[esp+4]
  00007	dd 05 00 00 00
	00		 fld	 QWORD PTR __real@0000000000000000
  0000d	56		 push	 esi
  0000e	dd 5c 24 04	 fstp	 QWORD PTR _fValue$[esp+12]
  00012	8b f1		 mov	 esi, ecx
  00014	8b 4c 24 10	 mov	 ecx, DWORD PTR _nStackPos$[esp+8]
  00018	8b 56 04	 mov	 edx, DWORD PTR [esi+4]
  0001b	50		 push	 eax
  0001c	51		 push	 ecx
  0001d	52		 push	 edx
  0001e	e8 00 00 00 00	 call	 _lua_getfield

; 120  : 	if( lua_isnumber( m_pLuaState, -1 ) )

  00023	8b 46 04	 mov	 eax, DWORD PTR [esi+4]
  00026	6a ff		 push	 -1
  00028	50		 push	 eax
  00029	e8 00 00 00 00	 call	 _lua_isnumber
  0002e	83 c4 14	 add	 esp, 20			; 00000014H
  00031	85 c0		 test	 eax, eax
  00033	74 12		 je	 SHORT $L225669

; 121  : 		fValue = ToNumber( -1 );

  00035	8b 4e 04	 mov	 ecx, DWORD PTR [esi+4]
  00038	6a ff		 push	 -1
  0003a	51		 push	 ecx
  0003b	e8 00 00 00 00	 call	 _lua_tonumber
  00040	dd 5c 24 0c	 fstp	 QWORD PTR _fValue$[esp+20]
  00044	83 c4 08	 add	 esp, 8
$L225669:

; 122  : 	Pop( 1 );

  00047	8b 56 04	 mov	 edx, DWORD PTR [esi+4]
  0004a	6a fe		 push	 -2			; fffffffeH
  0004c	52		 push	 edx
  0004d	e8 00 00 00 00	 call	 _lua_settop

; 123  : 
; 124  : 	return fValue;

  00052	dd 44 24 0c	 fld	 QWORD PTR _fValue$[esp+20]
  00056	83 c4 08	 add	 esp, 8
  00059	5e		 pop	 esi

; 125  : }

  0005a	83 c4 08	 add	 esp, 8
  0005d	c2 08 00	 ret	 8
?GetFieldToNumber@CLuaBase@@QAENHPAD@Z ENDP		; CLuaBase::GetFieldToNumber
_TEXT	ENDS
PUBLIC	?GetFieldToString@CLuaBase@@QAEPBDHPAD@Z	; CLuaBase::GetFieldToString
; Function compile flags: /Ogty
;	COMDAT ?GetFieldToString@CLuaBase@@QAEPBDHPAD@Z
_TEXT	SEGMENT
_nStackPos$ = 8						; size = 4
_szName$ = 12						; size = 4
?GetFieldToString@CLuaBase@@QAEPBDHPAD@Z PROC NEAR	; CLuaBase::GetFieldToString, COMDAT
; _this$ = ecx

; 129  : 	char* szValue = NULL;
; 130  : 	lua_getfield( m_pLuaState, nStackPos, szName );

  00000	8b 44 24 08	 mov	 eax, DWORD PTR _szName$[esp-4]
  00004	56		 push	 esi
  00005	57		 push	 edi
  00006	8b f1		 mov	 esi, ecx
  00008	8b 4c 24 0c	 mov	 ecx, DWORD PTR _nStackPos$[esp+4]
  0000c	8b 56 04	 mov	 edx, DWORD PTR [esi+4]
  0000f	50		 push	 eax
  00010	51		 push	 ecx
  00011	52		 push	 edx
  00012	33 ff		 xor	 edi, edi
  00014	e8 00 00 00 00	 call	 _lua_getfield

; 131  : 	if( lua_isstring( m_pLuaState, -1 ) )

  00019	8b 46 04	 mov	 eax, DWORD PTR [esi+4]
  0001c	6a ff		 push	 -1
  0001e	50		 push	 eax
  0001f	e8 00 00 00 00	 call	 _lua_isstring
  00024	83 c4 14	 add	 esp, 20			; 00000014H
  00027	85 c0		 test	 eax, eax
  00029	74 11		 je	 SHORT $L225676

; 132  : 		szValue = (char*)ToString( -1 );

  0002b	8b 4e 04	 mov	 ecx, DWORD PTR [esi+4]
  0002e	57		 push	 edi
  0002f	6a ff		 push	 -1
  00031	51		 push	 ecx
  00032	e8 00 00 00 00	 call	 _lua_tolstring
  00037	83 c4 0c	 add	 esp, 12			; 0000000cH
  0003a	8b f8		 mov	 edi, eax
$L225676:

; 133  : 	Pop( 1 );

  0003c	8b 56 04	 mov	 edx, DWORD PTR [esi+4]
  0003f	6a fe		 push	 -2			; fffffffeH
  00041	52		 push	 edx
  00042	e8 00 00 00 00	 call	 _lua_settop
  00047	83 c4 08	 add	 esp, 8

; 134  : 	
; 135  : 	return szValue;

  0004a	8b c7		 mov	 eax, edi
  0004c	5f		 pop	 edi
  0004d	5e		 pop	 esi

; 136  : }

  0004e	c2 08 00	 ret	 8
?GetFieldToString@CLuaBase@@QAEPBDHPAD@Z ENDP		; CLuaBase::GetFieldToString
_TEXT	ENDS
PUBLIC	?GetFieldToBool@CLuaBase@@QAEHHPAD@Z		; CLuaBase::GetFieldToBool
; Function compile flags: /Ogty
;	COMDAT ?GetFieldToBool@CLuaBase@@QAEHHPAD@Z
_TEXT	SEGMENT
_nStackPos$ = 8						; size = 4
_szName$ = 12						; size = 4
?GetFieldToBool@CLuaBase@@QAEHHPAD@Z PROC NEAR		; CLuaBase::GetFieldToBool, COMDAT
; _this$ = ecx

; 140  : 	int bValue = 0;
; 141  : 	lua_getfield( m_pLuaState, nStackPos, szName );

  00000	8b 44 24 08	 mov	 eax, DWORD PTR _szName$[esp-4]
  00004	56		 push	 esi
  00005	57		 push	 edi
  00006	8b f1		 mov	 esi, ecx
  00008	8b 4c 24 0c	 mov	 ecx, DWORD PTR _nStackPos$[esp+4]
  0000c	8b 56 04	 mov	 edx, DWORD PTR [esi+4]
  0000f	50		 push	 eax
  00010	51		 push	 ecx
  00011	52		 push	 edx
  00012	33 ff		 xor	 edi, edi
  00014	e8 00 00 00 00	 call	 _lua_getfield

; 142  : 	if( lua_isboolean( m_pLuaState, -1 ) )

  00019	8b 46 04	 mov	 eax, DWORD PTR [esi+4]
  0001c	6a ff		 push	 -1
  0001e	50		 push	 eax
  0001f	e8 00 00 00 00	 call	 _lua_type
  00024	83 c4 14	 add	 esp, 20			; 00000014H
  00027	83 f8 01	 cmp	 eax, 1
  0002a	75 10		 jne	 SHORT $L225684

; 143  : 		bValue = ToBool( -1 );

  0002c	8b 4e 04	 mov	 ecx, DWORD PTR [esi+4]
  0002f	6a ff		 push	 -1
  00031	51		 push	 ecx
  00032	e8 00 00 00 00	 call	 _lua_toboolean
  00037	83 c4 08	 add	 esp, 8
  0003a	8b f8		 mov	 edi, eax
$L225684:

; 144  : 	Pop( 1 );

  0003c	8b 56 04	 mov	 edx, DWORD PTR [esi+4]
  0003f	6a fe		 push	 -2			; fffffffeH
  00041	52		 push	 edx
  00042	e8 00 00 00 00	 call	 _lua_settop
  00047	83 c4 08	 add	 esp, 8

; 145  : 	
; 146  : 	return (bValue == 0 ? FALSE : TRUE );

  0004a	33 c0		 xor	 eax, eax
  0004c	85 ff		 test	 edi, edi
  0004e	5f		 pop	 edi
  0004f	0f 95 c0	 setne	 al
  00052	5e		 pop	 esi

; 147  : }

  00053	c2 08 00	 ret	 8
?GetFieldToBool@CLuaBase@@QAEHHPAD@Z ENDP		; CLuaBase::GetFieldToBool
_TEXT	ENDS
END
