; Listing generated by Microsoft (R) Optimizing Compiler Version 13.10.6030 

	TITLE	.\MiniGameTyping.cpp
	.386P
include listing.inc
if @Version gt 510
.model FLAT
else
_TEXT	SEGMENT PARA USE32 PUBLIC 'CODE'
_TEXT	ENDS
_DATA	SEGMENT DWORD USE32 PUBLIC 'DATA'
_DATA	ENDS
CONST	SEGMENT DWORD USE32 PUBLIC 'CONST'
CONST	ENDS
_BSS	SEGMENT DWORD USE32 PUBLIC 'BSS'
_BSS	ENDS
$$SYMBOLS	SEGMENT BYTE USE32 'DEBSYM'
$$SYMBOLS	ENDS
$$TYPES	SEGMENT BYTE USE32 'DEBTYP'
$$TYPES	ENDS
_TLS	SEGMENT DWORD USE32 PUBLIC 'TLS'
_TLS	ENDS
xdata$x	SEGMENT DWORD USE32 PUBLIC 'CONST'
xdata$x	ENDS
text$AFX_COL1	SEGMENT PARA USE32 PUBLIC ''
text$AFX_COL1	ENDS
;	COMDAT ??0__MINIGAME_PACKET@@QAE@GHHH@Z
_TEXT	SEGMENT PARA USE32 PUBLIC 'CODE'
_TEXT	ENDS
;	COMDAT ?Serialize@__MINIGAME_PACKET@@UAEXAAVCAr@@@Z
_TEXT	SEGMENT PARA USE32 PUBLIC 'CODE'
_TEXT	ENDS
;	COMDAT ??0__MINIGAME_EXT_PACKET@@QAE@GHHH@Z
_TEXT	SEGMENT PARA USE32 PUBLIC 'CODE'
_TEXT	ENDS
;	COMDAT ?Serialize@__MINIGAME_EXT_PACKET@@UAEXAAVCAr@@@Z
_TEXT	SEGMENT PARA USE32 PUBLIC 'CODE'
_TEXT	ENDS
;	COMDAT ??0CMiniGameTyping@@QAE@XZ
_TEXT	SEGMENT PARA USE32 PUBLIC 'CODE'
_TEXT	ENDS
;	COMDAT ??_GCMiniGameTyping@@UAEPAXI@Z
_TEXT	SEGMENT PARA USE32 PUBLIC 'CODE'
_TEXT	ENDS
;	COMDAT ??0CMiniGameTyping@@QAE@PAVCMiniGameBase@@@Z
_TEXT	SEGMENT PARA USE32 PUBLIC 'CODE'
_TEXT	ENDS
;	COMDAT ??1CMiniGameTyping@@UAE@XZ
_TEXT	SEGMENT PARA USE32 PUBLIC 'CODE'
_TEXT	ENDS
;	COMDAT ?Excute@CMiniGameTyping@@UAEHPAVCUser@@PAU__MINIGAME_PACKET@@@Z
_TEXT	SEGMENT PARA USE32 PUBLIC 'CODE'
_TEXT	ENDS
;	COMDAT ??1__MINIGAME_EXT_PACKET@@QAE@XZ
_TEXT	SEGMENT PARA USE32 PUBLIC 'CODE'
_TEXT	ENDS
;	COMDAT ??0__MINIGAME_EXT_PACKET@@QAE@ABU0@@Z
_TEXT	SEGMENT PARA USE32 PUBLIC 'CODE'
_TEXT	ENDS
;	COMDAT ??0__MINIGAME_PACKET@@QAE@ABU0@@Z
_TEXT	SEGMENT PARA USE32 PUBLIC 'CODE'
_TEXT	ENDS
;	COMDAT ?MakeQuestion@CMiniGameTyping@@AAEXXZ
_TEXT	SEGMENT PARA USE32 PUBLIC 'CODE'
_TEXT	ENDS
;	COMDAT ??Y?$basic_string@DU?$char_traits@D@std@@V?$allocator@D@2@@std@@QAEAAV01@D@Z
_TEXT	SEGMENT PARA USE32 PUBLIC 'CODE'
_TEXT	ENDS
;	COMDAT ?compare@?$basic_string@DU?$char_traits@D@std@@V?$allocator@D@2@@std@@QBEHABV12@@Z
_TEXT	SEGMENT PARA USE32 PUBLIC 'CODE'
_TEXT	ENDS
;	COMDAT ?IsFull@?$CStack@K@@QAEHXZ
_TEXT	SEGMENT PARA USE32 PUBLIC 'CODE'
_TEXT	ENDS
;	COMDAT ??0?$pair@KPAVCCtrl@@@std@@QAE@ABKABQAVCCtrl@@@Z
_TEXT	SEGMENT PARA USE32 PUBLIC 'CODE'
_TEXT	ENDS
;	COMDAT ?GetMax@?$CItemContainer@VCItemElem@@@@QAEHXZ
_TEXT	SEGMENT PARA USE32 PUBLIC 'CODE'
_TEXT	ENDS
;	COMDAT ??0?$deque@PAUtagACTMSG@@V?$allocator@PAUtagACTMSG@@@std@@@std@@QAE@XZ
_TEXT	SEGMENT PARA USE32 PUBLIC 'CODE'
_TEXT	ENDS
;	COMDAT ??1?$deque@PAUtagACTMSG@@V?$allocator@PAUtagACTMSG@@@std@@@std@@QAE@XZ
_TEXT	SEGMENT PARA USE32 PUBLIC 'CODE'
_TEXT	ENDS
;	COMDAT ?begin@?$deque@PAUtagACTMSG@@V?$allocator@PAUtagACTMSG@@@std@@@std@@QAE?AViterator@12@XZ
_TEXT	SEGMENT PARA USE32 PUBLIC 'CODE'
_TEXT	ENDS
;	COMDAT ?end@?$deque@PAUtagACTMSG@@V?$allocator@PAUtagACTMSG@@@std@@@std@@QAE?AViterator@12@XZ
_TEXT	SEGMENT PARA USE32 PUBLIC 'CODE'
_TEXT	ENDS
;	COMDAT ?empty@?$deque@PAUtagACTMSG@@V?$allocator@PAUtagACTMSG@@@std@@@std@@QBE_NXZ
_TEXT	SEGMENT PARA USE32 PUBLIC 'CODE'
_TEXT	ENDS
;	COMDAT ?clear@?$deque@PAUtagACTMSG@@V?$allocator@PAUtagACTMSG@@@std@@@std@@QAEXXZ
_TEXT	SEGMENT PARA USE32 PUBLIC 'CODE'
_TEXT	ENDS
;	COMDAT ??0?$deque@PAUtagMAGICATKMSG@@V?$allocator@PAUtagMAGICATKMSG@@@std@@@std@@QAE@XZ
_TEXT	SEGMENT PARA USE32 PUBLIC 'CODE'
_TEXT	ENDS
;	COMDAT ??1?$deque@PAUtagMAGICATKMSG@@V?$allocator@PAUtagMAGICATKMSG@@@std@@@std@@QAE@XZ
_TEXT	SEGMENT PARA USE32 PUBLIC 'CODE'
_TEXT	ENDS
;	COMDAT ?begin@?$deque@PAUtagMAGICATKMSG@@V?$allocator@PAUtagMAGICATKMSG@@@std@@@std@@QAE?AViterator@12@XZ
_TEXT	SEGMENT PARA USE32 PUBLIC 'CODE'
_TEXT	ENDS
;	COMDAT ?end@?$deque@PAUtagMAGICATKMSG@@V?$allocator@PAUtagMAGICATKMSG@@@std@@@std@@QAE?AViterator@12@XZ
_TEXT	SEGMENT PARA USE32 PUBLIC 'CODE'
_TEXT	ENDS
;	COMDAT ?empty@?$deque@PAUtagMAGICATKMSG@@V?$allocator@PAUtagMAGICATKMSG@@@std@@@std@@QBE_NXZ
_TEXT	SEGMENT PARA USE32 PUBLIC 'CODE'
_TEXT	ENDS
;	COMDAT ?clear@?$deque@PAUtagMAGICATKMSG@@V?$allocator@PAUtagMAGICATKMSG@@@std@@@std@@QAEXXZ
_TEXT	SEGMENT PARA USE32 PUBLIC 'CODE'
_TEXT	ENDS
;	COMDAT ??Diterator@?$deque@PAUtagACTMSG@@V?$allocator@PAUtagACTMSG@@@std@@@std@@QBEAAPAUtagACTMSG@@XZ
_TEXT	SEGMENT PARA USE32 PUBLIC 'CODE'
_TEXT	ENDS
;	COMDAT ??Eiterator@?$deque@PAUtagACTMSG@@V?$allocator@PAUtagACTMSG@@@std@@@std@@QAEAAV012@XZ
_TEXT	SEGMENT PARA USE32 PUBLIC 'CODE'
_TEXT	ENDS
;	COMDAT ??9const_iterator@?$deque@PAUtagACTMSG@@V?$allocator@PAUtagACTMSG@@@std@@@std@@QBE_NABV012@@Z
_TEXT	SEGMENT PARA USE32 PUBLIC 'CODE'
_TEXT	ENDS
;	COMDAT ??Diterator@?$deque@PAUtagMAGICATKMSG@@V?$allocator@PAUtagMAGICATKMSG@@@std@@@std@@QBEAAPAUtagMAGICATKMSG@@XZ
_TEXT	SEGMENT PARA USE32 PUBLIC 'CODE'
_TEXT	ENDS
;	COMDAT ??Eiterator@?$deque@PAUtagMAGICATKMSG@@V?$allocator@PAUtagMAGICATKMSG@@@std@@@std@@QAEAAV012@XZ
_TEXT	SEGMENT PARA USE32 PUBLIC 'CODE'
_TEXT	ENDS
;	COMDAT ??9const_iterator@?$deque@PAUtagMAGICATKMSG@@V?$allocator@PAUtagMAGICATKMSG@@@std@@@std@@QBE_NABV012@@Z
_TEXT	SEGMENT PARA USE32 PUBLIC 'CODE'
_TEXT	ENDS
;	COMDAT ??0?$vector@V?$basic_string@DU?$char_traits@D@std@@V?$allocator@D@2@@std@@V?$allocator@V?$basic_string@DU?$char_traits@D@std@@V?$allocator@D@2@@std@@@2@@std@@QAE@XZ
_TEXT	SEGMENT PARA USE32 PUBLIC 'CODE'
_TEXT	ENDS
;	COMDAT ??0?$vector@V?$basic_string@DU?$char_traits@D@std@@V?$allocator@D@2@@std@@V?$allocator@V?$basic_string@DU?$char_traits@D@std@@V?$allocator@D@2@@std@@@2@@std@@QAE@ABV01@@Z
_TEXT	SEGMENT PARA USE32 PUBLIC 'CODE'
_TEXT	ENDS
;	COMDAT ??1?$vector@V?$basic_string@DU?$char_traits@D@std@@V?$allocator@D@2@@std@@V?$allocator@V?$basic_string@DU?$char_traits@D@std@@V?$allocator@D@2@@std@@@2@@std@@QAE@XZ
_TEXT	SEGMENT PARA USE32 PUBLIC 'CODE'
_TEXT	ENDS
;	COMDAT ?begin@?$vector@V?$basic_string@DU?$char_traits@D@std@@V?$allocator@D@2@@std@@V?$allocator@V?$basic_string@DU?$char_traits@D@std@@V?$allocator@D@2@@std@@@2@@std@@QAE?AViterator@12@XZ
_TEXT	SEGMENT PARA USE32 PUBLIC 'CODE'
_TEXT	ENDS
;	COMDAT ?end@?$vector@V?$basic_string@DU?$char_traits@D@std@@V?$allocator@D@2@@std@@V?$allocator@V?$basic_string@DU?$char_traits@D@std@@V?$allocator@D@2@@std@@@2@@std@@QAE?AViterator@12@XZ
_TEXT	SEGMENT PARA USE32 PUBLIC 'CODE'
_TEXT	ENDS
;	COMDAT ?size@?$vector@V?$basic_string@DU?$char_traits@D@std@@V?$allocator@D@2@@std@@V?$allocator@V?$basic_string@DU?$char_traits@D@std@@V?$allocator@D@2@@std@@@2@@std@@QBEIXZ
_TEXT	SEGMENT PARA USE32 PUBLIC 'CODE'
_TEXT	ENDS
;	COMDAT ??A?$vector@V?$basic_string@DU?$char_traits@D@std@@V?$allocator@D@2@@std@@V?$allocator@V?$basic_string@DU?$char_traits@D@std@@V?$allocator@D@2@@std@@@2@@std@@QAEAAV?$basic_string@DU?$char_traits@D@std@@V?$allocator@D@2@@1@I@Z
_TEXT	SEGMENT PARA USE32 PUBLIC 'CODE'
_TEXT	ENDS
;	COMDAT ?push_back@?$vector@V?$basic_string@DU?$char_traits@D@std@@V?$allocator@D@2@@std@@V?$allocator@V?$basic_string@DU?$char_traits@D@std@@V?$allocator@D@2@@std@@@2@@std@@QAEXABV?$basic_string@DU?$char_traits@D@std@@V?$allocator@D@2@@2@@Z
_TEXT	SEGMENT PARA USE32 PUBLIC 'CODE'
_TEXT	ENDS
;	COMDAT ?clear@?$vector@V?$basic_string@DU?$char_traits@D@std@@V?$allocator@D@2@@std@@V?$allocator@V?$basic_string@DU?$char_traits@D@std@@V?$allocator@D@2@@std@@@2@@std@@QAEXXZ
_TEXT	SEGMENT PARA USE32 PUBLIC 'CODE'
_TEXT	ENDS
;	COMDAT ?append@?$basic_string@DU?$char_traits@D@std@@V?$allocator@D@2@@std@@QAEAAV12@ID@Z
_TEXT	SEGMENT PARA USE32 PUBLIC 'CODE'
_TEXT	ENDS
;	COMDAT ?compare@?$basic_string@DU?$char_traits@D@std@@V?$allocator@D@2@@std@@QBEHIIPBDI@Z
_TEXT	SEGMENT PARA USE32 PUBLIC 'CODE'
_TEXT	ENDS
;	COMDAT ??0?$allocator@V?$basic_string@DU?$char_traits@D@std@@V?$allocator@D@2@@std@@@std@@QAE@XZ
_TEXT	SEGMENT PARA USE32 PUBLIC 'CODE'
_TEXT	ENDS
;	COMDAT ??0?$allocator@V?$basic_string@DU?$char_traits@D@std@@V?$allocator@D@2@@std@@@std@@QAE@ABV01@@Z
_TEXT	SEGMENT PARA USE32 PUBLIC 'CODE'
_TEXT	ENDS
;	COMDAT ?_Tidy@?$deque@PAUtagACTMSG@@V?$allocator@PAUtagACTMSG@@@std@@@std@@IAEXXZ
_TEXT	SEGMENT PARA USE32 PUBLIC 'CODE'
_TEXT	ENDS
;	COMDAT ??0?$_Deque_val@PAUtagACTMSG@@V?$allocator@PAUtagACTMSG@@@std@@@std@@IAE@V?$allocator@PAUtagACTMSG@@@1@@Z
_TEXT	SEGMENT PARA USE32 PUBLIC 'CODE'
_TEXT	ENDS
;	COMDAT ??0?$allocator@PAUtagACTMSG@@@std@@QAE@XZ
_TEXT	SEGMENT PARA USE32 PUBLIC 'CODE'
_TEXT	ENDS
;	COMDAT ?_Tidy@?$deque@PAUtagMAGICATKMSG@@V?$allocator@PAUtagMAGICATKMSG@@@std@@@std@@IAEXXZ
_TEXT	SEGMENT PARA USE32 PUBLIC 'CODE'
_TEXT	ENDS
;	COMDAT ??0?$_Deque_val@PAUtagMAGICATKMSG@@V?$allocator@PAUtagMAGICATKMSG@@@std@@@std@@IAE@V?$allocator@PAUtagMAGICATKMSG@@@1@@Z
_TEXT	SEGMENT PARA USE32 PUBLIC 'CODE'
_TEXT	ENDS
;	COMDAT ??0?$allocator@PAUtagMAGICATKMSG@@@std@@QAE@XZ
_TEXT	SEGMENT PARA USE32 PUBLIC 'CODE'
_TEXT	ENDS
;	COMDAT ??0iterator@?$deque@PAUtagACTMSG@@V?$allocator@PAUtagACTMSG@@@std@@@std@@QAE@IPBV12@@Z
_TEXT	SEGMENT PARA USE32 PUBLIC 'CODE'
_TEXT	ENDS
;	COMDAT ??Dconst_iterator@?$deque@PAUtagACTMSG@@V?$allocator@PAUtagACTMSG@@@std@@@std@@QBEABQAUtagACTMSG@@XZ
_TEXT	SEGMENT PARA USE32 PUBLIC 'CODE'
_TEXT	ENDS
;	COMDAT ??8const_iterator@?$deque@PAUtagACTMSG@@V?$allocator@PAUtagACTMSG@@@std@@@std@@QBE_NABV012@@Z
_TEXT	SEGMENT PARA USE32 PUBLIC 'CODE'
_TEXT	ENDS
;	COMDAT ??0iterator@?$deque@PAUtagMAGICATKMSG@@V?$allocator@PAUtagMAGICATKMSG@@@std@@@std@@QAE@IPBV12@@Z
_TEXT	SEGMENT PARA USE32 PUBLIC 'CODE'
_TEXT	ENDS
;	COMDAT ??Dconst_iterator@?$deque@PAUtagMAGICATKMSG@@V?$allocator@PAUtagMAGICATKMSG@@@std@@@std@@QBEABQAUtagMAGICATKMSG@@XZ
_TEXT	SEGMENT PARA USE32 PUBLIC 'CODE'
_TEXT	ENDS
;	COMDAT ??8const_iterator@?$deque@PAUtagMAGICATKMSG@@V?$allocator@PAUtagMAGICATKMSG@@@std@@@std@@QBE_NABV012@@Z
_TEXT	SEGMENT PARA USE32 PUBLIC 'CODE'
_TEXT	ENDS
;	COMDAT ?capacity@?$vector@V?$basic_string@DU?$char_traits@D@std@@V?$allocator@D@2@@std@@V?$allocator@V?$basic_string@DU?$char_traits@D@std@@V?$allocator@D@2@@std@@@2@@std@@QBEIXZ
_TEXT	SEGMENT PARA USE32 PUBLIC 'CODE'
_TEXT	ENDS
;	COMDAT ?begin@?$vector@V?$basic_string@DU?$char_traits@D@std@@V?$allocator@D@2@@std@@V?$allocator@V?$basic_string@DU?$char_traits@D@std@@V?$allocator@D@2@@std@@@2@@std@@QBE?AVconst_iterator@12@XZ
_TEXT	SEGMENT PARA USE32 PUBLIC 'CODE'
_TEXT	ENDS
;	COMDAT ?end@?$vector@V?$basic_string@DU?$char_traits@D@std@@V?$allocator@D@2@@std@@V?$allocator@V?$basic_string@DU?$char_traits@D@std@@V?$allocator@D@2@@std@@@2@@std@@QBE?AVconst_iterator@12@XZ
_TEXT	SEGMENT PARA USE32 PUBLIC 'CODE'
_TEXT	ENDS
;	COMDAT ?insert@?$vector@V?$basic_string@DU?$char_traits@D@std@@V?$allocator@D@2@@std@@V?$allocator@V?$basic_string@DU?$char_traits@D@std@@V?$allocator@D@2@@std@@@2@@std@@QAE?AViterator@12@V312@ABV?$basic_string@DU?$char_traits@D@std@@V?$allocator@D@2@@2@@Z
_TEXT	SEGMENT PARA USE32 PUBLIC 'CODE'
_TEXT	ENDS
;	COMDAT ?_Buy@?$vector@V?$basic_string@DU?$char_traits@D@std@@V?$allocator@D@2@@std@@V?$allocator@V?$basic_string@DU?$char_traits@D@std@@V?$allocator@D@2@@std@@@2@@std@@IAE_NI@Z
_TEXT	SEGMENT PARA USE32 PUBLIC 'CODE'
_TEXT	ENDS
;	COMDAT ?_Tidy@?$vector@V?$basic_string@DU?$char_traits@D@std@@V?$allocator@D@2@@std@@V?$allocator@V?$basic_string@DU?$char_traits@D@std@@V?$allocator@D@2@@std@@@2@@std@@IAEXXZ
_TEXT	SEGMENT PARA USE32 PUBLIC 'CODE'
_TEXT	ENDS
;	COMDAT ?_Ufill@?$vector@V?$basic_string@DU?$char_traits@D@std@@V?$allocator@D@2@@std@@V?$allocator@V?$basic_string@DU?$char_traits@D@std@@V?$allocator@D@2@@std@@@2@@std@@IAEPAV?$basic_string@DU?$char_traits@D@std@@V?$allocator@D@2@@2@PAV32@IABV32@@Z
_TEXT	SEGMENT PARA USE32 PUBLIC 'CODE'
_TEXT	ENDS
;	COMDAT ??0?$_Vector_val@V?$basic_string@DU?$char_traits@D@std@@V?$allocator@D@2@@std@@V?$allocator@V?$basic_string@DU?$char_traits@D@std@@V?$allocator@D@2@@std@@@2@@std@@IAE@V?$allocator@V?$basic_string@DU?$char_traits@D@std@@V?$allocator@D@2@@std@@@1@@Z
_TEXT	SEGMENT PARA USE32 PUBLIC 'CODE'
_TEXT	ENDS
;	COMDAT ??0iterator@?$vector@V?$basic_string@DU?$char_traits@D@std@@V?$allocator@D@2@@std@@V?$allocator@V?$basic_string@DU?$char_traits@D@std@@V?$allocator@D@2@@std@@@2@@std@@QAE@PAV?$basic_string@DU?$char_traits@D@std@@V?$allocator@D@2@@2@@Z
_TEXT	SEGMENT PARA USE32 PUBLIC 'CODE'
_TEXT	ENDS
;	COMDAT ??Diterator@?$vector@V?$basic_string@DU?$char_traits@D@std@@V?$allocator@D@2@@std@@V?$allocator@V?$basic_string@DU?$char_traits@D@std@@V?$allocator@D@2@@std@@@2@@std@@QBEAAV?$basic_string@DU?$char_traits@D@std@@V?$allocator@D@2@@2@XZ
_TEXT	SEGMENT PARA USE32 PUBLIC 'CODE'
_TEXT	ENDS
;	COMDAT ??Hiterator@?$vector@V?$basic_string@DU?$char_traits@D@std@@V?$allocator@D@2@@std@@V?$allocator@V?$basic_string@DU?$char_traits@D@std@@V?$allocator@D@2@@std@@@2@@std@@QBE?AV012@H@Z
_TEXT	SEGMENT PARA USE32 PUBLIC 'CODE'
_TEXT	ENDS
;	COMDAT ?deallocate@?$allocator@V?$basic_string@DU?$char_traits@D@std@@V?$allocator@D@2@@std@@@std@@QAEXPAV?$basic_string@DU?$char_traits@D@std@@V?$allocator@D@2@@2@I@Z
_TEXT	SEGMENT PARA USE32 PUBLIC 'CODE'
_TEXT	ENDS
;	COMDAT ?allocate@?$allocator@V?$basic_string@DU?$char_traits@D@std@@V?$allocator@D@2@@std@@@std@@QAEPAV?$basic_string@DU?$char_traits@D@std@@V?$allocator@D@2@@2@I@Z
_TEXT	SEGMENT PARA USE32 PUBLIC 'CODE'
_TEXT	ENDS
;	COMDAT ?pop_back@?$deque@PAUtagACTMSG@@V?$allocator@PAUtagACTMSG@@@std@@@std@@QAEXXZ
_TEXT	SEGMENT PARA USE32 PUBLIC 'CODE'
_TEXT	ENDS
;	COMDAT ??0?$_Deque_map@PAUtagACTMSG@@V?$allocator@PAUtagACTMSG@@@std@@@std@@IAE@V?$allocator@PAUtagACTMSG@@@1@@Z
_TEXT	SEGMENT PARA USE32 PUBLIC 'CODE'
_TEXT	ENDS
;	COMDAT ??0?$allocator@PAUtagACTMSG@@@std@@QAE@ABV01@@Z
_TEXT	SEGMENT PARA USE32 PUBLIC 'CODE'
_TEXT	ENDS
;	COMDAT ?deallocate@?$allocator@PAUtagACTMSG@@@std@@QAEXPAPAUtagACTMSG@@I@Z
_TEXT	SEGMENT PARA USE32 PUBLIC 'CODE'
_TEXT	ENDS
;	COMDAT ?deallocate@?$allocator@PAPAUtagACTMSG@@@std@@QAEXPAPAPAUtagACTMSG@@I@Z
_TEXT	SEGMENT PARA USE32 PUBLIC 'CODE'
_TEXT	ENDS
;	COMDAT ?destroy@?$allocator@PAPAUtagACTMSG@@@std@@QAEXPAPAPAUtagACTMSG@@@Z
_TEXT	SEGMENT PARA USE32 PUBLIC 'CODE'
_TEXT	ENDS
;	COMDAT ?pop_back@?$deque@PAUtagMAGICATKMSG@@V?$allocator@PAUtagMAGICATKMSG@@@std@@@std@@QAEXXZ
_TEXT	SEGMENT PARA USE32 PUBLIC 'CODE'
_TEXT	ENDS
;	COMDAT ??0?$_Deque_map@PAUtagMAGICATKMSG@@V?$allocator@PAUtagMAGICATKMSG@@@std@@@std@@IAE@V?$allocator@PAUtagMAGICATKMSG@@@1@@Z
_TEXT	SEGMENT PARA USE32 PUBLIC 'CODE'
_TEXT	ENDS
;	COMDAT ??0?$allocator@PAUtagMAGICATKMSG@@@std@@QAE@ABV01@@Z
_TEXT	SEGMENT PARA USE32 PUBLIC 'CODE'
_TEXT	ENDS
;	COMDAT ?deallocate@?$allocator@PAUtagMAGICATKMSG@@@std@@QAEXPAPAUtagMAGICATKMSG@@I@Z
_TEXT	SEGMENT PARA USE32 PUBLIC 'CODE'
_TEXT	ENDS
;	COMDAT ?deallocate@?$allocator@PAPAUtagMAGICATKMSG@@@std@@QAEXPAPAPAUtagMAGICATKMSG@@I@Z
_TEXT	SEGMENT PARA USE32 PUBLIC 'CODE'
_TEXT	ENDS
;	COMDAT ?destroy@?$allocator@PAPAUtagMAGICATKMSG@@@std@@QAEXPAPAPAUtagMAGICATKMSG@@@Z
_TEXT	SEGMENT PARA USE32 PUBLIC 'CODE'
_TEXT	ENDS
;	COMDAT ??0const_iterator@?$deque@PAUtagACTMSG@@V?$allocator@PAUtagACTMSG@@@std@@@std@@QAE@IPBV12@@Z
_TEXT	SEGMENT PARA USE32 PUBLIC 'CODE'
_TEXT	ENDS
;	COMDAT ??0const_iterator@?$deque@PAUtagMAGICATKMSG@@V?$allocator@PAUtagMAGICATKMSG@@@std@@@std@@QAE@IPBV12@@Z
_TEXT	SEGMENT PARA USE32 PUBLIC 'CODE'
_TEXT	ENDS
;	COMDAT ?max_size@?$vector@V?$basic_string@DU?$char_traits@D@std@@V?$allocator@D@2@@std@@V?$allocator@V?$basic_string@DU?$char_traits@D@std@@V?$allocator@D@2@@std@@@2@@std@@QBEIXZ
_TEXT	SEGMENT PARA USE32 PUBLIC 'CODE'
_TEXT	ENDS
;	COMDAT ?_Destroy@?$vector@V?$basic_string@DU?$char_traits@D@std@@V?$allocator@D@2@@std@@V?$allocator@V?$basic_string@DU?$char_traits@D@std@@V?$allocator@D@2@@std@@@2@@std@@IAEXPAV?$basic_string@DU?$char_traits@D@std@@V?$allocator@D@2@@2@0@Z
_TEXT	SEGMENT PARA USE32 PUBLIC 'CODE'
_TEXT	ENDS
;	COMDAT ?_Insert_n@?$vector@V?$basic_string@DU?$char_traits@D@std@@V?$allocator@D@2@@std@@V?$allocator@V?$basic_string@DU?$char_traits@D@std@@V?$allocator@D@2@@std@@@2@@std@@IAEXViterator@12@IABV?$basic_string@DU?$char_traits@D@std@@V?$allocator@D@2@@2@@Z
_TEXT	SEGMENT PARA USE32 PUBLIC 'CODE'
_TEXT	ENDS
;	COMDAT ?_Xlen@?$vector@V?$basic_string@DU?$char_traits@D@std@@V?$allocator@D@2@@std@@V?$allocator@V?$basic_string@DU?$char_traits@D@std@@V?$allocator@D@2@@std@@@2@@std@@IBEXXZ
_TEXT	SEGMENT PARA USE32 PUBLIC 'CODE'
_TEXT	ENDS
;	COMDAT ??Yiterator@?$vector@V?$basic_string@DU?$char_traits@D@std@@V?$allocator@D@2@@std@@V?$allocator@V?$basic_string@DU?$char_traits@D@std@@V?$allocator@D@2@@std@@@2@@std@@QAEAAV012@H@Z
_TEXT	SEGMENT PARA USE32 PUBLIC 'CODE'
_TEXT	ENDS
;	COMDAT ??Giterator@?$vector@V?$basic_string@DU?$char_traits@D@std@@V?$allocator@D@2@@std@@V?$allocator@V?$basic_string@DU?$char_traits@D@std@@V?$allocator@D@2@@std@@@2@@std@@QBEHABVconst_iterator@12@@Z
_TEXT	SEGMENT PARA USE32 PUBLIC 'CODE'
_TEXT	ENDS
;	COMDAT ??0const_iterator@?$vector@V?$basic_string@DU?$char_traits@D@std@@V?$allocator@D@2@@std@@V?$allocator@V?$basic_string@DU?$char_traits@D@std@@V?$allocator@D@2@@std@@@2@@std@@QAE@PAV?$basic_string@DU?$char_traits@D@std@@V?$allocator@D@2@@2@@Z
_TEXT	SEGMENT PARA USE32 PUBLIC 'CODE'
_TEXT	ENDS
;	COMDAT ??Dconst_iterator@?$vector@V?$basic_string@DU?$char_traits@D@std@@V?$allocator@D@2@@std@@V?$allocator@V?$basic_string@DU?$char_traits@D@std@@V?$allocator@D@2@@std@@@2@@std@@QBEABV?$basic_string@DU?$char_traits@D@std@@V?$allocator@D@2@@2@XZ
_TEXT	SEGMENT PARA USE32 PUBLIC 'CODE'
_TEXT	ENDS
;	COMDAT ?max_size@?$allocator@V?$basic_string@DU?$char_traits@D@std@@V?$allocator@D@2@@std@@@std@@QBEIXZ
_TEXT	SEGMENT PARA USE32 PUBLIC 'CODE'
_TEXT	ENDS
;	COMDAT ?destroy@?$allocator@PAUtagACTMSG@@@std@@QAEXPAPAUtagACTMSG@@@Z
_TEXT	SEGMENT PARA USE32 PUBLIC 'CODE'
_TEXT	ENDS
;	COMDAT ?destroy@?$allocator@PAUtagMAGICATKMSG@@@std@@QAEXPAPAUtagMAGICATKMSG@@@Z
_TEXT	SEGMENT PARA USE32 PUBLIC 'CODE'
_TEXT	ENDS
;	COMDAT ??Gconst_iterator@?$vector@V?$basic_string@DU?$char_traits@D@std@@V?$allocator@D@2@@std@@V?$allocator@V?$basic_string@DU?$char_traits@D@std@@V?$allocator@D@2@@std@@@2@@std@@QBEHABV012@@Z
_TEXT	SEGMENT PARA USE32 PUBLIC 'CODE'
_TEXT	ENDS
;	COMDAT ??$_Iter_cat@Vconst_iterator@?$vector@EV?$allocator@E@std@@@std@@@std@@YA?AUrandom_access_iterator_tag@0@ABVconst_iterator@?$vector@EV?$allocator@E@std@@@0@@Z
_TEXT	SEGMENT PARA USE32 PUBLIC 'CODE'
_TEXT	ENDS
;	COMDAT ??$_Assign@Vconst_iterator@?$vector@EV?$allocator@E@std@@@std@@@?$vector@EV?$allocator@E@std@@@std@@QAEXVconst_iterator@01@0Uinput_iterator_tag@1@@Z
_TEXT	SEGMENT PARA USE32 PUBLIC 'CODE'
_TEXT	ENDS
;	COMDAT ??$_Iter_cat@Viterator@?$_Tree@V?$_Tmap_traits@KPAVCUser@@U?$less@K@std@@V?$allocator@U?$pair@$$CBKPAVCUser@@@std@@@3@$0A@@std@@@std@@@std@@YA?AUbidirectional_iterator_tag@0@ABViterator@?$_Tree@V?$_Tmap_traits@KPAVCUser@@U?$less@K@std@@V?$allocator@U?$pair@$$CBKPAVCUser@@@std@@@3@$0A@@std@@@0@@Z
_TEXT	SEGMENT PARA USE32 PUBLIC 'CODE'
_TEXT	ENDS
;	COMDAT ??$_Distance2@Viterator@?$_Tree@V?$_Tmap_traits@KPAVCUser@@U?$less@K@std@@V?$allocator@U?$pair@$$CBKPAVCUser@@@std@@@3@$0A@@std@@@std@@I@std@@YAXViterator@?$_Tree@V?$_Tmap_traits@KPAVCUser@@U?$less@K@std@@V?$allocator@U?$pair@$$CBKPAVCUser@@@std@@@3@$0A@@std@@@0@0AAIUbidirectional_iterator_tag@0@@Z
_TEXT	SEGMENT PARA USE32 PUBLIC 'CODE'
_TEXT	ENDS
;	COMDAT ??$_Iter_cat@Viterator@?$_Tree@V?$_Tmap_traits@KPAVCCtrl@@U?$less@K@std@@V?$allocator@U?$pair@$$CBKPAVCCtrl@@@std@@@3@$0A@@std@@@std@@@std@@YA?AUbidirectional_iterator_tag@0@ABViterator@?$_Tree@V?$_Tmap_traits@KPAVCCtrl@@U?$less@K@std@@V?$allocator@U?$pair@$$CBKPAVCCtrl@@@std@@@3@$0A@@std@@@0@@Z
_TEXT	SEGMENT PARA USE32 PUBLIC 'CODE'
_TEXT	ENDS
;	COMDAT ??$_Distance2@Viterator@?$_Tree@V?$_Tmap_traits@KPAVCCtrl@@U?$less@K@std@@V?$allocator@U?$pair@$$CBKPAVCCtrl@@@std@@@3@$0A@@std@@@std@@I@std@@YAXViterator@?$_Tree@V?$_Tmap_traits@KPAVCCtrl@@U?$less@K@std@@V?$allocator@U?$pair@$$CBKPAVCCtrl@@@std@@@3@$0A@@std@@@0@0AAIUbidirectional_iterator_tag@0@@Z
_TEXT	SEGMENT PARA USE32 PUBLIC 'CODE'
_TEXT	ENDS
;	COMDAT ??$_Uninitialized_copy@Vconst_iterator@?$vector@EV?$allocator@E@std@@@std@@PAEV?$allocator@E@3@@std@@YAPAEVconst_iterator@?$vector@EV?$allocator@E@std@@@0@0PAEAAV?$allocator@E@0@@Z
_TEXT	SEGMENT PARA USE32 PUBLIC 'CODE'
_TEXT	ENDS
;	COMDAT ??$_Iter_cat@Viterator@?$_Tree@V?$_Tmap_traits@KEU?$less@K@std@@V?$allocator@U?$pair@$$CBKE@std@@@2@$0A@@std@@@std@@@std@@YA?AUbidirectional_iterator_tag@0@ABViterator@?$_Tree@V?$_Tmap_traits@KEU?$less@K@std@@V?$allocator@U?$pair@$$CBKE@std@@@2@$0A@@std@@@0@@Z
_TEXT	SEGMENT PARA USE32 PUBLIC 'CODE'
_TEXT	ENDS
;	COMDAT ??$_Distance2@Viterator@?$_Tree@V?$_Tmap_traits@KEU?$less@K@std@@V?$allocator@U?$pair@$$CBKE@std@@@2@$0A@@std@@@std@@I@std@@YAXViterator@?$_Tree@V?$_Tmap_traits@KEU?$less@K@std@@V?$allocator@U?$pair@$$CBKE@std@@@2@$0A@@std@@@0@0AAIUbidirectional_iterator_tag@0@@Z
_TEXT	SEGMENT PARA USE32 PUBLIC 'CODE'
_TEXT	ENDS
;	COMDAT ??$_Ptr_cat@PAU__SPAWNREGION@CEventLua@@PAU12@@std@@YA?AU_Nonscalar_ptr_iterator_tag@0@AAPAU__SPAWNREGION@CEventLua@@0@Z
_TEXT	SEGMENT PARA USE32 PUBLIC 'CODE'
_TEXT	ENDS
;	COMDAT ??$_Uninit_fill_n@PAU__SPAWNREGION@CEventLua@@IU12@V?$allocator@U__SPAWNREGION@CEventLua@@@std@@@std@@YAXPAU__SPAWNREGION@CEventLua@@IABU12@AAV?$allocator@U__SPAWNREGION@CEventLua@@@0@U_Nonscalar_ptr_iterator_tag@0@@Z
_TEXT	SEGMENT PARA USE32 PUBLIC 'CODE'
_TEXT	ENDS
;	COMDAT ??$_Copy_opt@PAJPAJ@std@@YAPAJPAJ00U_Scalar_ptr_iterator_tag@0@@Z
_TEXT	SEGMENT PARA USE32 PUBLIC 'CODE'
_TEXT	ENDS
;	COMDAT ??$_Uninitialized_copy@PAJPAJV?$allocator@J@std@@@std@@YAPAJPAJ00AAV?$allocator@J@0@@Z
_TEXT	SEGMENT PARA USE32 PUBLIC 'CODE'
_TEXT	ENDS
;	COMDAT ??$_Copy_backward_opt@PAJPAJ@std@@YAPAJPAJ00U_Scalar_ptr_iterator_tag@0@@Z
_TEXT	SEGMENT PARA USE32 PUBLIC 'CODE'
_TEXT	ENDS
;	COMDAT ??$_Ptr_cat@PAUtagDROPITEM@@PAU1@@std@@YA?AU_Nonscalar_ptr_iterator_tag@0@AAPAUtagDROPITEM@@0@Z
_TEXT	SEGMENT PARA USE32 PUBLIC 'CODE'
_TEXT	ENDS
;	COMDAT ??$_Destroy_range@UtagDROPITEM@@V?$allocator@UtagDROPITEM@@@std@@@std@@YAXPAUtagDROPITEM@@0AAV?$allocator@UtagDROPITEM@@@0@U_Nonscalar_ptr_iterator_tag@0@@Z
_TEXT	SEGMENT PARA USE32 PUBLIC 'CODE'
_TEXT	ENDS
;	COMDAT ??$_Ptr_cat@PAUWORMON@@PAU1@@std@@YA?AU_Nonscalar_ptr_iterator_tag@0@AAPAUWORMON@@0@Z
_TEXT	SEGMENT PARA USE32 PUBLIC 'CODE'
_TEXT	ENDS
;	COMDAT ??$_Destroy_range@UWORMON@@V?$allocator@UWORMON@@@std@@@std@@YAXPAUWORMON@@0AAV?$allocator@UWORMON@@@0@U_Nonscalar_ptr_iterator_tag@0@@Z
_TEXT	SEGMENT PARA USE32 PUBLIC 'CODE'
_TEXT	ENDS
;	COMDAT ??$_Ptr_cat@PAU__ITEMGAME@CMiniGame@@PAU12@@std@@YA?AU_Nonscalar_ptr_iterator_tag@0@AAPAU__ITEMGAME@CMiniGame@@0@Z
_TEXT	SEGMENT PARA USE32 PUBLIC 'CODE'
_TEXT	ENDS
;	COMDAT ??$_Destroy_range@U__ITEMGAME@CMiniGame@@V?$allocator@U__ITEMGAME@CMiniGame@@@std@@@std@@YAXPAU__ITEMGAME@CMiniGame@@0AAV?$allocator@U__ITEMGAME@CMiniGame@@@0@U_Nonscalar_ptr_iterator_tag@0@@Z
_TEXT	SEGMENT PARA USE32 PUBLIC 'CODE'
_TEXT	ENDS
;	COMDAT ??$_Destroy_range@KV?$allocator@K@std@@@std@@YAXPAK0AAV?$allocator@K@0@U_Scalar_ptr_iterator_tag@0@@Z
_TEXT	SEGMENT PARA USE32 PUBLIC 'CODE'
_TEXT	ENDS
;	COMDAT ??$_Destroy_range@HV?$allocator@H@std@@@std@@YAXPAH0AAV?$allocator@H@0@U_Scalar_ptr_iterator_tag@0@@Z
_TEXT	SEGMENT PARA USE32 PUBLIC 'CODE'
_TEXT	ENDS
;	COMDAT ??$_Ptr_cat@PAU__ITEM@CExchange@@PAU12@@std@@YA?AU_Nonscalar_ptr_iterator_tag@0@AAPAU__ITEM@CExchange@@0@Z
_TEXT	SEGMENT PARA USE32 PUBLIC 'CODE'
_TEXT	ENDS
;	COMDAT ??$_Destroy_range@U__ITEM@CExchange@@V?$allocator@U__ITEM@CExchange@@@std@@@std@@YAXPAU__ITEM@CExchange@@0AAV?$allocator@U__ITEM@CExchange@@@0@U_Nonscalar_ptr_iterator_tag@0@@Z
_TEXT	SEGMENT PARA USE32 PUBLIC 'CODE'
_TEXT	ENDS
;	COMDAT ??$_Ptr_cat@PAU__POINT@CExchange@@PAU12@@std@@YA?AU_Nonscalar_ptr_iterator_tag@0@AAPAU__POINT@CExchange@@0@Z
_TEXT	SEGMENT PARA USE32 PUBLIC 'CODE'
_TEXT	ENDS
;	COMDAT ??$_Destroy_range@U__POINT@CExchange@@V?$allocator@U__POINT@CExchange@@@std@@@std@@YAXPAU__POINT@CExchange@@0AAV?$allocator@U__POINT@CExchange@@@0@U_Nonscalar_ptr_iterator_tag@0@@Z
_TEXT	SEGMENT PARA USE32 PUBLIC 'CODE'
_TEXT	ENDS
;	COMDAT ??$_Destroy_range@EV?$allocator@E@std@@@std@@YAXPAE0AAV?$allocator@E@0@U_Scalar_ptr_iterator_tag@0@@Z
_TEXT	SEGMENT PARA USE32 PUBLIC 'CODE'
_TEXT	ENDS
;	COMDAT ??$_Uninitialized_copy@PAU__SPAWNREGION@CEventLua@@PAU12@V?$allocator@U__SPAWNREGION@CEventLua@@@std@@@std@@YAPAU__SPAWNREGION@CEventLua@@PAU12@00AAV?$allocator@U__SPAWNREGION@CEventLua@@@0@@Z
_TEXT	SEGMENT PARA USE32 PUBLIC 'CODE'
_TEXT	ENDS
;	COMDAT ??$_Copy_backward_opt@PAU__SPAWNREGION@CEventLua@@PAU12@@std@@YAPAU__SPAWNREGION@CEventLua@@PAU12@00U_Nonscalar_ptr_iterator_tag@0@@Z
_TEXT	SEGMENT PARA USE32 PUBLIC 'CODE'
_TEXT	ENDS
;	COMDAT ??$_Ptr_cat@PAUD3DXVECTOR3@@PAU1@@std@@YA?AU_Nonscalar_ptr_iterator_tag@0@AAPAUD3DXVECTOR3@@0@Z
_TEXT	SEGMENT PARA USE32 PUBLIC 'CODE'
_TEXT	ENDS
;	COMDAT ??$_Destroy_range@UD3DXVECTOR3@@V?$allocator@UD3DXVECTOR3@@@std@@@std@@YAXPAUD3DXVECTOR3@@0AAV?$allocator@UD3DXVECTOR3@@@0@U_Nonscalar_ptr_iterator_tag@0@@Z
_TEXT	SEGMENT PARA USE32 PUBLIC 'CODE'
_TEXT	ENDS
;	COMDAT ??$_Ptr_cat@PAU_GIFTBOX@@PAU1@@std@@YA?AU_Nonscalar_ptr_iterator_tag@0@AAPAU_GIFTBOX@@0@Z
_TEXT	SEGMENT PARA USE32 PUBLIC 'CODE'
_TEXT	ENDS
;	COMDAT ??$_Destroy_range@U_GIFTBOX@@V?$allocator@U_GIFTBOX@@@std@@@std@@YAXPAU_GIFTBOX@@0AAV?$allocator@U_GIFTBOX@@@0@U_Nonscalar_ptr_iterator_tag@0@@Z
_TEXT	SEGMENT PARA USE32 PUBLIC 'CODE'
_TEXT	ENDS
;	COMDAT ??$_Destroy_range@JV?$allocator@J@std@@@std@@YAXPAJ0AAV?$allocator@J@0@U_Scalar_ptr_iterator_tag@0@@Z
_TEXT	SEGMENT PARA USE32 PUBLIC 'CODE'
_TEXT	ENDS
;	COMDAT ??$_Uninit_fill_n@JIJ@std@@YAXPAJIABJAAV?$allocator@J@0@U_Scalar_ptr_iterator_tag@0@@Z
_TEXT	SEGMENT PARA USE32 PUBLIC 'CODE'
_TEXT	ENDS
;	COMDAT ??$_Destroy_range@U__SPAWNREGION@CEventLua@@V?$allocator@U__SPAWNREGION@CEventLua@@@std@@@std@@YAXPAU__SPAWNREGION@CEventLua@@0AAV?$allocator@U__SPAWNREGION@CEventLua@@@0@U_Nonscalar_ptr_iterator_tag@0@@Z
_TEXT	SEGMENT PARA USE32 PUBLIC 'CODE'
_TEXT	ENDS
;	COMDAT ??$assign@Viterator@?$vector@V?$basic_string@DU?$char_traits@D@std@@V?$allocator@D@2@@std@@V?$allocator@V?$basic_string@DU?$char_traits@D@std@@V?$allocator@D@2@@std@@@2@@std@@@?$vector@V?$basic_string@DU?$char_traits@D@std@@V?$allocator@D@2@@std@@V?$allocator@V?$basic_string@DU?$char_traits@D@std@@V?$allocator@D@2@@std@@@2@@std@@QAEXViterator@01@0@Z
_TEXT	SEGMENT PARA USE32 PUBLIC 'CODE'
_TEXT	ENDS
;	COMDAT ??$?9DU?$char_traits@D@std@@V?$allocator@D@1@@std@@YA_NABV?$basic_string@DU?$char_traits@D@std@@V?$allocator@D@2@@0@0@Z
_TEXT	SEGMENT PARA USE32 PUBLIC 'CODE'
_TEXT	ENDS
;	COMDAT ??$_Ucopy@Vconst_iterator@?$vector@V?$basic_string@DU?$char_traits@D@std@@V?$allocator@D@2@@std@@V?$allocator@V?$basic_string@DU?$char_traits@D@std@@V?$allocator@D@2@@std@@@2@@std@@@?$vector@V?$basic_string@DU?$char_traits@D@std@@V?$allocator@D@2@@std@@V?$allocator@V?$basic_string@DU?$char_traits@D@std@@V?$allocator@D@2@@std@@@2@@std@@IAEPAV?$basic_string@DU?$char_traits@D@std@@V?$allocator@D@2@@1@Vconst_iterator@01@0PAV21@@Z
_TEXT	SEGMENT PARA USE32 PUBLIC 'CODE'
_TEXT	ENDS
;	COMDAT ??$_Uninitialized_fill_n@PAV?$basic_string@DU?$char_traits@D@std@@V?$allocator@D@2@@std@@IV12@V?$allocator@V?$basic_string@DU?$char_traits@D@std@@V?$allocator@D@2@@std@@@2@@std@@YAXPAV?$basic_string@DU?$char_traits@D@std@@V?$allocator@D@2@@0@IABV10@AAV?$allocator@V?$basic_string@DU?$char_traits@D@std@@V?$allocator@D@2@@std@@@0@@Z
_TEXT	SEGMENT PARA USE32 PUBLIC 'CODE'
_TEXT	ENDS
;	COMDAT ??$_Allocate@V?$basic_string@DU?$char_traits@D@std@@V?$allocator@D@2@@std@@@std@@YAPAV?$basic_string@DU?$char_traits@D@std@@V?$allocator@D@2@@0@IPAV10@@Z
_TEXT	SEGMENT PARA USE32 PUBLIC 'CODE'
_TEXT	ENDS
;	COMDAT ??$?0PAUtagACTMSG@@@?$allocator@PAPAUtagACTMSG@@@std@@QAE@ABV?$allocator@PAUtagACTMSG@@@1@@Z
_TEXT	SEGMENT PARA USE32 PUBLIC 'CODE'
_TEXT	ENDS
;	COMDAT ??$_Destroy@PAPAUtagACTMSG@@@std@@YAXPAPAPAUtagACTMSG@@@Z
_TEXT	SEGMENT PARA USE32 PUBLIC 'CODE'
_TEXT	ENDS
;	COMDAT ??$?0PAUtagMAGICATKMSG@@@?$allocator@PAPAUtagMAGICATKMSG@@@std@@QAE@ABV?$allocator@PAUtagMAGICATKMSG@@@1@@Z
_TEXT	SEGMENT PARA USE32 PUBLIC 'CODE'
_TEXT	ENDS
;	COMDAT ??$_Destroy@PAPAUtagMAGICATKMSG@@@std@@YAXPAPAPAUtagMAGICATKMSG@@@Z
_TEXT	SEGMENT PARA USE32 PUBLIC 'CODE'
_TEXT	ENDS
;	COMDAT ??$_Destroy_range@V?$basic_string@DU?$char_traits@D@std@@V?$allocator@D@2@@std@@V?$allocator@V?$basic_string@DU?$char_traits@D@std@@V?$allocator@D@2@@std@@@2@@std@@YAXPAV?$basic_string@DU?$char_traits@D@std@@V?$allocator@D@2@@0@0AAV?$allocator@V?$basic_string@DU?$char_traits@D@std@@V?$allocator@D@2@@std@@@0@@Z
_TEXT	SEGMENT PARA USE32 PUBLIC 'CODE'
_TEXT	ENDS
;	COMDAT ??$_Ucopy@PAV?$basic_string@DU?$char_traits@D@std@@V?$allocator@D@2@@std@@@?$vector@V?$basic_string@DU?$char_traits@D@std@@V?$allocator@D@2@@std@@V?$allocator@V?$basic_string@DU?$char_traits@D@std@@V?$allocator@D@2@@std@@@2@@std@@IAEPAV?$basic_string@DU?$char_traits@D@std@@V?$allocator@D@2@@1@PAV21@00@Z
_TEXT	SEGMENT PARA USE32 PUBLIC 'CODE'
_TEXT	ENDS
;	COMDAT ??$fill@PAV?$basic_string@DU?$char_traits@D@std@@V?$allocator@D@2@@std@@V12@@std@@YAXPAV?$basic_string@DU?$char_traits@D@std@@V?$allocator@D@2@@0@0ABV10@@Z
_TEXT	SEGMENT PARA USE32 PUBLIC 'CODE'
_TEXT	ENDS
;	COMDAT ??$copy_backward@PAV?$basic_string@DU?$char_traits@D@std@@V?$allocator@D@2@@std@@PAV12@@std@@YAPAV?$basic_string@DU?$char_traits@D@std@@V?$allocator@D@2@@0@PAV10@00@Z
_TEXT	SEGMENT PARA USE32 PUBLIC 'CODE'
_TEXT	ENDS
;	COMDAT ??$_Destroy@PAUtagACTMSG@@@std@@YAXPAPAUtagACTMSG@@@Z
_TEXT	SEGMENT PARA USE32 PUBLIC 'CODE'
_TEXT	ENDS
;	COMDAT ??$_Destroy@PAUtagMAGICATKMSG@@@std@@YAXPAPAUtagMAGICATKMSG@@@Z
_TEXT	SEGMENT PARA USE32 PUBLIC 'CODE'
_TEXT	ENDS
;	COMDAT ?destroy@?$allocator@UtagDROPITEM@@@std@@QAEXPAUtagDROPITEM@@@Z
_TEXT	SEGMENT PARA USE32 PUBLIC 'CODE'
_TEXT	ENDS
;	COMDAT ?destroy@?$allocator@UWORMON@@@std@@QAEXPAUWORMON@@@Z
_TEXT	SEGMENT PARA USE32 PUBLIC 'CODE'
_TEXT	ENDS
;	COMDAT ?destroy@?$allocator@U__ITEMGAME@CMiniGame@@@std@@QAEXPAU__ITEMGAME@CMiniGame@@@Z
_TEXT	SEGMENT PARA USE32 PUBLIC 'CODE'
_TEXT	ENDS
;	COMDAT ?destroy@?$allocator@U__ITEM@CExchange@@@std@@QAEXPAU__ITEM@CExchange@@@Z
_TEXT	SEGMENT PARA USE32 PUBLIC 'CODE'
_TEXT	ENDS
;	COMDAT ?destroy@?$allocator@U__POINT@CExchange@@@std@@QAEXPAU__POINT@CExchange@@@Z
_TEXT	SEGMENT PARA USE32 PUBLIC 'CODE'
_TEXT	ENDS
;	COMDAT ?begin@?$vector@EV?$allocator@E@std@@@std@@QAE?AViterator@12@XZ
_TEXT	SEGMENT PARA USE32 PUBLIC 'CODE'
_TEXT	ENDS
;	COMDAT ?end@?$vector@EV?$allocator@E@std@@@std@@QAE?AViterator@12@XZ
_TEXT	SEGMENT PARA USE32 PUBLIC 'CODE'
_TEXT	ENDS
;	COMDAT ?erase@?$vector@EV?$allocator@E@std@@@std@@QAE?AViterator@12@V312@0@Z
_TEXT	SEGMENT PARA USE32 PUBLIC 'CODE'
_TEXT	ENDS
;	COMDAT ?construct@?$allocator@U__SPAWNREGION@CEventLua@@@std@@QAEXPAU__SPAWNREGION@CEventLua@@ABU34@@Z
_TEXT	SEGMENT PARA USE32 PUBLIC 'CODE'
_TEXT	ENDS
;	COMDAT ?destroy@?$allocator@U__SPAWNREGION@CEventLua@@@std@@QAEXPAU__SPAWNREGION@CEventLua@@@Z
_TEXT	SEGMENT PARA USE32 PUBLIC 'CODE'
_TEXT	ENDS
;	COMDAT ?destroy@?$allocator@UD3DXVECTOR3@@@std@@QAEXPAUD3DXVECTOR3@@@Z
_TEXT	SEGMENT PARA USE32 PUBLIC 'CODE'
_TEXT	ENDS
;	COMDAT ?destroy@?$allocator@U_GIFTBOX@@@std@@QAEXPAU_GIFTBOX@@@Z
_TEXT	SEGMENT PARA USE32 PUBLIC 'CODE'
_TEXT	ENDS
;	COMDAT ??9const_iterator@?$vector@EV?$allocator@E@std@@@std@@QBE_NABV012@@Z
_TEXT	SEGMENT PARA USE32 PUBLIC 'CODE'
_TEXT	ENDS
;	COMDAT ??0iterator@?$vector@EV?$allocator@E@std@@@std@@QAE@PAE@Z
_TEXT	SEGMENT PARA USE32 PUBLIC 'CODE'
_TEXT	ENDS
;	COMDAT ??8const_iterator@?$vector@EV?$allocator@E@std@@@std@@QBE_NABV012@@Z
_TEXT	SEGMENT PARA USE32 PUBLIC 'CODE'
_TEXT	ENDS
;	COMDAT ??$insert@Vconst_iterator@?$vector@EV?$allocator@E@std@@@std@@@?$vector@EV?$allocator@E@std@@@std@@QAEXViterator@01@Vconst_iterator@01@1@Z
_TEXT	SEGMENT PARA USE32 PUBLIC 'CODE'
_TEXT	ENDS
;	COMDAT ??$_Ptr_cat@Vconst_iterator@?$vector@EV?$allocator@E@std@@@std@@PAE@std@@YA?AU_Nonscalar_ptr_iterator_tag@0@AAVconst_iterator@?$vector@EV?$allocator@E@std@@@0@AAPAE@Z
_TEXT	SEGMENT PARA USE32 PUBLIC 'CODE'
_TEXT	ENDS
;	COMDAT ??$_Uninit_copy@Vconst_iterator@?$vector@EV?$allocator@E@std@@@std@@PAEV?$allocator@E@3@@std@@YAPAEVconst_iterator@?$vector@EV?$allocator@E@std@@@0@0PAEAAV?$allocator@E@0@U_Nonscalar_ptr_iterator_tag@0@@Z
_TEXT	SEGMENT PARA USE32 PUBLIC 'CODE'
_TEXT	ENDS
;	COMDAT ??$_Uninit_copy@JJ@std@@YAPAJPAJ00AAV?$allocator@J@0@U_Scalar_ptr_iterator_tag@0@@Z
_TEXT	SEGMENT PARA USE32 PUBLIC 'CODE'
_TEXT	ENDS
;	COMDAT ??$_Uninit_copy@PAU__SPAWNREGION@CEventLua@@PAU12@V?$allocator@U__SPAWNREGION@CEventLua@@@std@@@std@@YAPAU__SPAWNREGION@CEventLua@@PAU12@00AAV?$allocator@U__SPAWNREGION@CEventLua@@@0@U_Nonscalar_ptr_iterator_tag@0@@Z
_TEXT	SEGMENT PARA USE32 PUBLIC 'CODE'
_TEXT	ENDS
;	COMDAT ??$fill_n@PAJIJ@std@@YAXPAJIABJ@Z
_TEXT	SEGMENT PARA USE32 PUBLIC 'CODE'
_TEXT	ENDS
;	COMDAT ??$_Iter_cat@Viterator@?$vector@V?$basic_string@DU?$char_traits@D@std@@V?$allocator@D@2@@std@@V?$allocator@V?$basic_string@DU?$char_traits@D@std@@V?$allocator@D@2@@std@@@2@@std@@@std@@YA?AUrandom_access_iterator_tag@0@ABViterator@?$vector@V?$basic_string@DU?$char_traits@D@std@@V?$allocator@D@2@@std@@V?$allocator@V?$basic_string@DU?$char_traits@D@std@@V?$allocator@D@2@@std@@@2@@0@@Z
_TEXT	SEGMENT PARA USE32 PUBLIC 'CODE'
_TEXT	ENDS
;	COMDAT ??$_Assign@Viterator@?$vector@V?$basic_string@DU?$char_traits@D@std@@V?$allocator@D@2@@std@@V?$allocator@V?$basic_string@DU?$char_traits@D@std@@V?$allocator@D@2@@std@@@2@@std@@@?$vector@V?$basic_string@DU?$char_traits@D@std@@V?$allocator@D@2@@std@@V?$allocator@V?$basic_string@DU?$char_traits@D@std@@V?$allocator@D@2@@std@@@2@@std@@QAEXViterator@01@0Uinput_iterator_tag@1@@Z
_TEXT	SEGMENT PARA USE32 PUBLIC 'CODE'
_TEXT	ENDS
;	COMDAT ??$?8DU?$char_traits@D@std@@V?$allocator@D@1@@std@@YA_NABV?$basic_string@DU?$char_traits@D@std@@V?$allocator@D@2@@0@0@Z
_TEXT	SEGMENT PARA USE32 PUBLIC 'CODE'
_TEXT	ENDS
;	COMDAT ??$_Uninitialized_copy@Vconst_iterator@?$vector@V?$basic_string@DU?$char_traits@D@std@@V?$allocator@D@2@@std@@V?$allocator@V?$basic_string@DU?$char_traits@D@std@@V?$allocator@D@2@@std@@@2@@std@@PAV?$basic_string@DU?$char_traits@D@std@@V?$allocator@D@2@@3@V?$allocator@V?$basic_string@DU?$char_traits@D@std@@V?$allocator@D@2@@std@@@3@@std@@YAPAV?$basic_string@DU?$char_traits@D@std@@V?$allocator@D@2@@0@Vconst_iterator@?$vector@V?$basic_string@DU?$char_traits@D@std@@V?$allocator@D@2@@std@@V?$allocator@V?$basic_string@DU?$char_traits@D@std@@V?$allocator@D@2@@std@@@2@@0@0PAV10@AAV?$allocator@V?$basic_string@DU?$char_traits@D@std@@V?$allocator@D@2@@std@@@0@@Z
_TEXT	SEGMENT PARA USE32 PUBLIC 'CODE'
_TEXT	ENDS
;	COMDAT ??$_Ptr_cat@PAV?$basic_string@DU?$char_traits@D@std@@V?$allocator@D@2@@std@@PAV12@@std@@YA?AU_Nonscalar_ptr_iterator_tag@0@AAPAV?$basic_string@DU?$char_traits@D@std@@V?$allocator@D@2@@0@0@Z
_TEXT	SEGMENT PARA USE32 PUBLIC 'CODE'
_TEXT	ENDS
;	COMDAT ??$_Uninit_fill_n@PAV?$basic_string@DU?$char_traits@D@std@@V?$allocator@D@2@@std@@IV12@V?$allocator@V?$basic_string@DU?$char_traits@D@std@@V?$allocator@D@2@@std@@@2@@std@@YAXPAV?$basic_string@DU?$char_traits@D@std@@V?$allocator@D@2@@0@IABV10@AAV?$allocator@V?$basic_string@DU?$char_traits@D@std@@V?$allocator@D@2@@std@@@0@U_Nonscalar_ptr_iterator_tag@0@@Z
_TEXT	SEGMENT PARA USE32 PUBLIC 'CODE'
_TEXT	ENDS
;	COMDAT ??$_Destroy_range@V?$basic_string@DU?$char_traits@D@std@@V?$allocator@D@2@@std@@V?$allocator@V?$basic_string@DU?$char_traits@D@std@@V?$allocator@D@2@@std@@@2@@std@@YAXPAV?$basic_string@DU?$char_traits@D@std@@V?$allocator@D@2@@0@0AAV?$allocator@V?$basic_string@DU?$char_traits@D@std@@V?$allocator@D@2@@std@@@0@U_Nonscalar_ptr_iterator_tag@0@@Z
_TEXT	SEGMENT PARA USE32 PUBLIC 'CODE'
_TEXT	ENDS
;	COMDAT ??$_Uninitialized_copy@PAV?$basic_string@DU?$char_traits@D@std@@V?$allocator@D@2@@std@@PAV12@V?$allocator@V?$basic_string@DU?$char_traits@D@std@@V?$allocator@D@2@@std@@@2@@std@@YAPAV?$basic_string@DU?$char_traits@D@std@@V?$allocator@D@2@@0@PAV10@00AAV?$allocator@V?$basic_string@DU?$char_traits@D@std@@V?$allocator@D@2@@std@@@0@@Z
_TEXT	SEGMENT PARA USE32 PUBLIC 'CODE'
_TEXT	ENDS
;	COMDAT ??$_Copy_backward_opt@PAV?$basic_string@DU?$char_traits@D@std@@V?$allocator@D@2@@std@@PAV12@@std@@YAPAV?$basic_string@DU?$char_traits@D@std@@V?$allocator@D@2@@0@PAV10@00U_Nonscalar_ptr_iterator_tag@0@@Z
_TEXT	SEGMENT PARA USE32 PUBLIC 'CODE'
_TEXT	ENDS
;	COMDAT ??$_Destroy@UtagDROPITEM@@@std@@YAXPAUtagDROPITEM@@@Z
_TEXT	SEGMENT PARA USE32 PUBLIC 'CODE'
_TEXT	ENDS
;	COMDAT ??$_Destroy@UWORMON@@@std@@YAXPAUWORMON@@@Z
_TEXT	SEGMENT PARA USE32 PUBLIC 'CODE'
_TEXT	ENDS
;	COMDAT ??$_Destroy@U__ITEMGAME@CMiniGame@@@std@@YAXPAU__ITEMGAME@CMiniGame@@@Z
_TEXT	SEGMENT PARA USE32 PUBLIC 'CODE'
_TEXT	ENDS
;	COMDAT ??$_Destroy@U__ITEM@CExchange@@@std@@YAXPAU__ITEM@CExchange@@@Z
_TEXT	SEGMENT PARA USE32 PUBLIC 'CODE'
_TEXT	ENDS
;	COMDAT ??$_Destroy@U__POINT@CExchange@@@std@@YAXPAU__POINT@CExchange@@@Z
_TEXT	SEGMENT PARA USE32 PUBLIC 'CODE'
_TEXT	ENDS
;	COMDAT ??$copy@PAEPAE@std@@YAPAEPAE00@Z
_TEXT	SEGMENT PARA USE32 PUBLIC 'CODE'
_TEXT	ENDS
;	COMDAT ??$_Construct@U__SPAWNREGION@CEventLua@@U12@@std@@YAXPAU__SPAWNREGION@CEventLua@@ABU12@@Z
_TEXT	SEGMENT PARA USE32 PUBLIC 'CODE'
_TEXT	ENDS
;	COMDAT ??$_Destroy@U__SPAWNREGION@CEventLua@@@std@@YAXPAU__SPAWNREGION@CEventLua@@@Z
_TEXT	SEGMENT PARA USE32 PUBLIC 'CODE'
_TEXT	ENDS
;	COMDAT ??$_Destroy@UD3DXVECTOR3@@@std@@YAXPAUD3DXVECTOR3@@@Z
_TEXT	SEGMENT PARA USE32 PUBLIC 'CODE'
_TEXT	ENDS
;	COMDAT ??$_Destroy@U_GIFTBOX@@@std@@YAXPAU_GIFTBOX@@@Z
_TEXT	SEGMENT PARA USE32 PUBLIC 'CODE'
_TEXT	ENDS
;	COMDAT ?construct@?$allocator@V?$basic_string@DU?$char_traits@D@std@@V?$allocator@D@2@@std@@@std@@QAEXPAV?$basic_string@DU?$char_traits@D@std@@V?$allocator@D@2@@2@ABV32@@Z
_TEXT	SEGMENT PARA USE32 PUBLIC 'CODE'
_TEXT	ENDS
;	COMDAT ?destroy@?$allocator@V?$basic_string@DU?$char_traits@D@std@@V?$allocator@D@2@@std@@@std@@QAEXPAV?$basic_string@DU?$char_traits@D@std@@V?$allocator@D@2@@2@@Z
_TEXT	SEGMENT PARA USE32 PUBLIC 'CODE'
_TEXT	ENDS
;	COMDAT ?construct@?$allocator@E@std@@QAEXPAEABE@Z
_TEXT	SEGMENT PARA USE32 PUBLIC 'CODE'
_TEXT	ENDS
;	COMDAT ?destroy@?$allocator@E@std@@QAEXPAE@Z
_TEXT	SEGMENT PARA USE32 PUBLIC 'CODE'
_TEXT	ENDS
;	COMDAT ??Dconst_iterator@?$vector@EV?$allocator@E@std@@@std@@QBEABEXZ
_TEXT	SEGMENT PARA USE32 PUBLIC 'CODE'
_TEXT	ENDS
;	COMDAT ??Econst_iterator@?$vector@EV?$allocator@E@std@@@std@@QAEAAV012@XZ
_TEXT	SEGMENT PARA USE32 PUBLIC 'CODE'
_TEXT	ENDS
;	COMDAT ?erase@?$vector@V?$basic_string@DU?$char_traits@D@std@@V?$allocator@D@2@@std@@V?$allocator@V?$basic_string@DU?$char_traits@D@std@@V?$allocator@D@2@@std@@@2@@std@@QAE?AViterator@12@V312@0@Z
_TEXT	SEGMENT PARA USE32 PUBLIC 'CODE'
_TEXT	ENDS
;	COMDAT ??9const_iterator@?$vector@V?$basic_string@DU?$char_traits@D@std@@V?$allocator@D@2@@std@@V?$allocator@V?$basic_string@DU?$char_traits@D@std@@V?$allocator@D@2@@std@@@2@@std@@QBE_NABV012@@Z
_TEXT	SEGMENT PARA USE32 PUBLIC 'CODE'
_TEXT	ENDS
;	COMDAT ??8const_iterator@?$vector@V?$basic_string@DU?$char_traits@D@std@@V?$allocator@D@2@@std@@V?$allocator@V?$basic_string@DU?$char_traits@D@std@@V?$allocator@D@2@@std@@@2@@std@@QBE_NABV012@@Z
_TEXT	SEGMENT PARA USE32 PUBLIC 'CODE'
_TEXT	ENDS
;	COMDAT ??$_Insert@Vconst_iterator@?$vector@EV?$allocator@E@std@@@std@@@?$vector@EV?$allocator@E@std@@@std@@QAEXViterator@01@Vconst_iterator@01@1Uforward_iterator_tag@1@@Z
_TEXT	SEGMENT PARA USE32 PUBLIC 'CODE'
_TEXT	ENDS
;	COMDAT ??$insert@Viterator@?$vector@V?$basic_string@DU?$char_traits@D@std@@V?$allocator@D@2@@std@@V?$allocator@V?$basic_string@DU?$char_traits@D@std@@V?$allocator@D@2@@std@@@2@@std@@@?$vector@V?$basic_string@DU?$char_traits@D@std@@V?$allocator@D@2@@std@@V?$allocator@V?$basic_string@DU?$char_traits@D@std@@V?$allocator@D@2@@std@@@2@@std@@QAEXViterator@01@00@Z
_TEXT	SEGMENT PARA USE32 PUBLIC 'CODE'
_TEXT	ENDS
;	COMDAT ??$_Ptr_cat@Vconst_iterator@?$vector@V?$basic_string@DU?$char_traits@D@std@@V?$allocator@D@2@@std@@V?$allocator@V?$basic_string@DU?$char_traits@D@std@@V?$allocator@D@2@@std@@@2@@std@@PAV?$basic_string@DU?$char_traits@D@std@@V?$allocator@D@2@@3@@std@@YA?AU_Nonscalar_ptr_iterator_tag@0@AAVconst_iterator@?$vector@V?$basic_string@DU?$char_traits@D@std@@V?$allocator@D@2@@std@@V?$allocator@V?$basic_string@DU?$char_traits@D@std@@V?$allocator@D@2@@std@@@2@@0@AAPAV?$basic_string@DU?$char_traits@D@std@@V?$allocator@D@2@@0@@Z
_TEXT	SEGMENT PARA USE32 PUBLIC 'CODE'
_TEXT	ENDS
;	COMDAT ??$_Uninit_copy@Vconst_iterator@?$vector@V?$basic_string@DU?$char_traits@D@std@@V?$allocator@D@2@@std@@V?$allocator@V?$basic_string@DU?$char_traits@D@std@@V?$allocator@D@2@@std@@@2@@std@@PAV?$basic_string@DU?$char_traits@D@std@@V?$allocator@D@2@@3@V?$allocator@V?$basic_string@DU?$char_traits@D@std@@V?$allocator@D@2@@std@@@3@@std@@YAPAV?$basic_string@DU?$char_traits@D@std@@V?$allocator@D@2@@0@Vconst_iterator@?$vector@V?$basic_string@DU?$char_traits@D@std@@V?$allocator@D@2@@std@@V?$allocator@V?$basic_string@DU?$char_traits@D@std@@V?$allocator@D@2@@std@@@2@@0@0PAV10@AAV?$allocator@V?$basic_string@DU?$char_traits@D@std@@V?$allocator@D@2@@std@@@0@U_Nonscalar_ptr_iterator_tag@0@@Z
_TEXT	SEGMENT PARA USE32 PUBLIC 'CODE'
_TEXT	ENDS
;	COMDAT ??$_Uninit_copy@PAV?$basic_string@DU?$char_traits@D@std@@V?$allocator@D@2@@std@@PAV12@V?$allocator@V?$basic_string@DU?$char_traits@D@std@@V?$allocator@D@2@@std@@@2@@std@@YAPAV?$basic_string@DU?$char_traits@D@std@@V?$allocator@D@2@@0@PAV10@00AAV?$allocator@V?$basic_string@DU?$char_traits@D@std@@V?$allocator@D@2@@std@@@0@U_Nonscalar_ptr_iterator_tag@0@@Z
_TEXT	SEGMENT PARA USE32 PUBLIC 'CODE'
_TEXT	ENDS
;	COMDAT ??$_Copy_opt@PAEPAE@std@@YAPAEPAE00U_Scalar_ptr_iterator_tag@0@@Z
_TEXT	SEGMENT PARA USE32 PUBLIC 'CODE'
_TEXT	ENDS
;	COMDAT ??$_Construct@V?$basic_string@DU?$char_traits@D@std@@V?$allocator@D@2@@std@@V12@@std@@YAXPAV?$basic_string@DU?$char_traits@D@std@@V?$allocator@D@2@@0@ABV10@@Z
_TEXT	SEGMENT PARA USE32 PUBLIC 'CODE'
_TEXT	ENDS
;	COMDAT ??$_Destroy@V?$basic_string@DU?$char_traits@D@std@@V?$allocator@D@2@@std@@@std@@YAXPAV?$basic_string@DU?$char_traits@D@std@@V?$allocator@D@2@@0@@Z
_TEXT	SEGMENT PARA USE32 PUBLIC 'CODE'
_TEXT	ENDS
;	COMDAT ??$_Construct@EE@std@@YAXPAEABE@Z
_TEXT	SEGMENT PARA USE32 PUBLIC 'CODE'
_TEXT	ENDS
;	COMDAT ??$_Destroy@E@std@@YAXPAE@Z
_TEXT	SEGMENT PARA USE32 PUBLIC 'CODE'
_TEXT	ENDS
;	COMDAT ??$copy@PAV?$basic_string@DU?$char_traits@D@std@@V?$allocator@D@2@@std@@PAV12@@std@@YAPAV?$basic_string@DU?$char_traits@D@std@@V?$allocator@D@2@@0@PAV10@00@Z
_TEXT	SEGMENT PARA USE32 PUBLIC 'CODE'
_TEXT	ENDS
;	COMDAT ??_G?$basic_string@DU?$char_traits@D@std@@V?$allocator@D@2@@std@@QAEPAXI@Z
_TEXT	SEGMENT PARA USE32 PUBLIC 'CODE'
_TEXT	ENDS
;	COMDAT ?capacity@?$vector@EV?$allocator@E@std@@@std@@QBEIXZ
_TEXT	SEGMENT PARA USE32 PUBLIC 'CODE'
_TEXT	ENDS
;	COMDAT ??Econst_iterator@?$vector@V?$basic_string@DU?$char_traits@D@std@@V?$allocator@D@2@@std@@V?$allocator@V?$basic_string@DU?$char_traits@D@std@@V?$allocator@D@2@@std@@@2@@std@@QAEAAV012@XZ
_TEXT	SEGMENT PARA USE32 PUBLIC 'CODE'
_TEXT	ENDS
;	COMDAT ??Giterator@?$vector@EV?$allocator@E@std@@@std@@QBEHABVconst_iterator@12@@Z
_TEXT	SEGMENT PARA USE32 PUBLIC 'CODE'
_TEXT	ENDS
;	COMDAT ??Gconst_iterator@?$vector@EV?$allocator@E@std@@@std@@QBEHABV012@@Z
_TEXT	SEGMENT PARA USE32 PUBLIC 'CODE'
_TEXT	ENDS
;	COMDAT ??$_Distance@Vconst_iterator@?$vector@EV?$allocator@E@std@@@std@@I@std@@YAXVconst_iterator@?$vector@EV?$allocator@E@std@@@0@0AAI@Z
_TEXT	SEGMENT PARA USE32 PUBLIC 'CODE'
_TEXT	ENDS
;	COMDAT ??$_Ucopy@PAE@?$vector@EV?$allocator@E@std@@@std@@IAEPAEPAE00@Z
_TEXT	SEGMENT PARA USE32 PUBLIC 'CODE'
_TEXT	ENDS
;	COMDAT ??$advance@Vconst_iterator@?$vector@EV?$allocator@E@std@@@std@@H@std@@YAXAAVconst_iterator@?$vector@EV?$allocator@E@std@@@0@H@Z
_TEXT	SEGMENT PARA USE32 PUBLIC 'CODE'
_TEXT	ENDS
;	COMDAT ??$copy@Vconst_iterator@?$vector@EV?$allocator@E@std@@@std@@PAE@std@@YAPAEVconst_iterator@?$vector@EV?$allocator@E@std@@@0@0PAE@Z
_TEXT	SEGMENT PARA USE32 PUBLIC 'CODE'
_TEXT	ENDS
;	COMDAT ??$copy_backward@PAEPAE@std@@YAPAEPAE00@Z
_TEXT	SEGMENT PARA USE32 PUBLIC 'CODE'
_TEXT	ENDS
;	COMDAT ??$_Insert@Viterator@?$vector@V?$basic_string@DU?$char_traits@D@std@@V?$allocator@D@2@@std@@V?$allocator@V?$basic_string@DU?$char_traits@D@std@@V?$allocator@D@2@@std@@@2@@std@@@?$vector@V?$basic_string@DU?$char_traits@D@std@@V?$allocator@D@2@@std@@V?$allocator@V?$basic_string@DU?$char_traits@D@std@@V?$allocator@D@2@@std@@@2@@std@@QAEXViterator@01@00Uforward_iterator_tag@1@@Z
_TEXT	SEGMENT PARA USE32 PUBLIC 'CODE'
_TEXT	ENDS
;	COMDAT ??$_Copy_opt@PAV?$basic_string@DU?$char_traits@D@std@@V?$allocator@D@2@@std@@PAV12@@std@@YAPAV?$basic_string@DU?$char_traits@D@std@@V?$allocator@D@2@@0@PAV10@00U_Nonscalar_ptr_iterator_tag@0@@Z
_TEXT	SEGMENT PARA USE32 PUBLIC 'CODE'
_TEXT	ENDS
;	COMDAT ??$_Distance2@Vconst_iterator@?$vector@EV?$allocator@E@std@@@std@@I@std@@YAXVconst_iterator@?$vector@EV?$allocator@E@std@@@0@0AAIUrandom_access_iterator_tag@0@@Z
_TEXT	SEGMENT PARA USE32 PUBLIC 'CODE'
_TEXT	ENDS
;	COMDAT ??$_Uninitialized_copy@PAEPAEV?$allocator@E@std@@@std@@YAPAEPAE00AAV?$allocator@E@0@@Z
_TEXT	SEGMENT PARA USE32 PUBLIC 'CODE'
_TEXT	ENDS
;	COMDAT ??$_Advance@Vconst_iterator@?$vector@EV?$allocator@E@std@@@std@@H@std@@YAXAAVconst_iterator@?$vector@EV?$allocator@E@std@@@0@HUrandom_access_iterator_tag@0@@Z
_TEXT	SEGMENT PARA USE32 PUBLIC 'CODE'
_TEXT	ENDS
;	COMDAT ??$_Copy_opt@Vconst_iterator@?$vector@EV?$allocator@E@std@@@std@@PAE@std@@YAPAEVconst_iterator@?$vector@EV?$allocator@E@std@@@0@0PAEU_Nonscalar_ptr_iterator_tag@0@@Z
_TEXT	SEGMENT PARA USE32 PUBLIC 'CODE'
_TEXT	ENDS
;	COMDAT ??$_Copy_backward_opt@PAEPAE@std@@YAPAEPAE00U_Scalar_ptr_iterator_tag@0@@Z
_TEXT	SEGMENT PARA USE32 PUBLIC 'CODE'
_TEXT	ENDS
;	COMDAT ??$_Distance@Viterator@?$vector@V?$basic_string@DU?$char_traits@D@std@@V?$allocator@D@2@@std@@V?$allocator@V?$basic_string@DU?$char_traits@D@std@@V?$allocator@D@2@@std@@@2@@std@@I@std@@YAXViterator@?$vector@V?$basic_string@DU?$char_traits@D@std@@V?$allocator@D@2@@std@@V?$allocator@V?$basic_string@DU?$char_traits@D@std@@V?$allocator@D@2@@std@@@2@@0@0AAI@Z
_TEXT	SEGMENT PARA USE32 PUBLIC 'CODE'
_TEXT	ENDS
;	COMDAT ??$_Ucopy@Viterator@?$vector@V?$basic_string@DU?$char_traits@D@std@@V?$allocator@D@2@@std@@V?$allocator@V?$basic_string@DU?$char_traits@D@std@@V?$allocator@D@2@@std@@@2@@std@@@?$vector@V?$basic_string@DU?$char_traits@D@std@@V?$allocator@D@2@@std@@V?$allocator@V?$basic_string@DU?$char_traits@D@std@@V?$allocator@D@2@@std@@@2@@std@@IAEPAV?$basic_string@DU?$char_traits@D@std@@V?$allocator@D@2@@1@Viterator@01@0PAV21@@Z
_TEXT	SEGMENT PARA USE32 PUBLIC 'CODE'
_TEXT	ENDS
;	COMDAT ??$advance@Viterator@?$vector@V?$basic_string@DU?$char_traits@D@std@@V?$allocator@D@2@@std@@V?$allocator@V?$basic_string@DU?$char_traits@D@std@@V?$allocator@D@2@@std@@@2@@std@@H@std@@YAXAAViterator@?$vector@V?$basic_string@DU?$char_traits@D@std@@V?$allocator@D@2@@std@@V?$allocator@V?$basic_string@DU?$char_traits@D@std@@V?$allocator@D@2@@std@@@2@@0@H@Z
_TEXT	SEGMENT PARA USE32 PUBLIC 'CODE'
_TEXT	ENDS
;	COMDAT ??$copy@Viterator@?$vector@V?$basic_string@DU?$char_traits@D@std@@V?$allocator@D@2@@std@@V?$allocator@V?$basic_string@DU?$char_traits@D@std@@V?$allocator@D@2@@std@@@2@@std@@PAV?$basic_string@DU?$char_traits@D@std@@V?$allocator@D@2@@3@@std@@YAPAV?$basic_string@DU?$char_traits@D@std@@V?$allocator@D@2@@0@Viterator@?$vector@V?$basic_string@DU?$char_traits@D@std@@V?$allocator@D@2@@std@@V?$allocator@V?$basic_string@DU?$char_traits@D@std@@V?$allocator@D@2@@std@@@2@@0@0PAV10@@Z
_TEXT	SEGMENT PARA USE32 PUBLIC 'CODE'
_TEXT	ENDS
;	COMDAT ??Yconst_iterator@?$vector@EV?$allocator@E@std@@@std@@QAEAAV012@H@Z
_TEXT	SEGMENT PARA USE32 PUBLIC 'CODE'
_TEXT	ENDS
;	COMDAT ??$_Uninit_copy@EE@std@@YAPAEPAE00AAV?$allocator@E@0@U_Scalar_ptr_iterator_tag@0@@Z
_TEXT	SEGMENT PARA USE32 PUBLIC 'CODE'
_TEXT	ENDS
;	COMDAT ??$_Distance2@Viterator@?$vector@V?$basic_string@DU?$char_traits@D@std@@V?$allocator@D@2@@std@@V?$allocator@V?$basic_string@DU?$char_traits@D@std@@V?$allocator@D@2@@std@@@2@@std@@I@std@@YAXViterator@?$vector@V?$basic_string@DU?$char_traits@D@std@@V?$allocator@D@2@@std@@V?$allocator@V?$basic_string@DU?$char_traits@D@std@@V?$allocator@D@2@@std@@@2@@0@0AAIUrandom_access_iterator_tag@0@@Z
_TEXT	SEGMENT PARA USE32 PUBLIC 'CODE'
_TEXT	ENDS
;	COMDAT ??$_Uninitialized_copy@Viterator@?$vector@V?$basic_string@DU?$char_traits@D@std@@V?$allocator@D@2@@std@@V?$allocator@V?$basic_string@DU?$char_traits@D@std@@V?$allocator@D@2@@std@@@2@@std@@PAV?$basic_string@DU?$char_traits@D@std@@V?$allocator@D@2@@3@V?$allocator@V?$basic_string@DU?$char_traits@D@std@@V?$allocator@D@2@@std@@@3@@std@@YAPAV?$basic_string@DU?$char_traits@D@std@@V?$allocator@D@2@@0@Viterator@?$vector@V?$basic_string@DU?$char_traits@D@std@@V?$allocator@D@2@@std@@V?$allocator@V?$basic_string@DU?$char_traits@D@std@@V?$allocator@D@2@@std@@@2@@0@0PAV10@AAV?$allocator@V?$basic_string@DU?$char_traits@D@std@@V?$allocator@D@2@@std@@@0@@Z
_TEXT	SEGMENT PARA USE32 PUBLIC 'CODE'
_TEXT	ENDS
;	COMDAT ??$_Advance@Viterator@?$vector@V?$basic_string@DU?$char_traits@D@std@@V?$allocator@D@2@@std@@V?$allocator@V?$basic_string@DU?$char_traits@D@std@@V?$allocator@D@2@@std@@@2@@std@@H@std@@YAXAAViterator@?$vector@V?$basic_string@DU?$char_traits@D@std@@V?$allocator@D@2@@std@@V?$allocator@V?$basic_string@DU?$char_traits@D@std@@V?$allocator@D@2@@std@@@2@@0@HUrandom_access_iterator_tag@0@@Z
_TEXT	SEGMENT PARA USE32 PUBLIC 'CODE'
_TEXT	ENDS
;	COMDAT ??$_Ptr_cat@Viterator@?$vector@V?$basic_string@DU?$char_traits@D@std@@V?$allocator@D@2@@std@@V?$allocator@V?$basic_string@DU?$char_traits@D@std@@V?$allocator@D@2@@std@@@2@@std@@PAV?$basic_string@DU?$char_traits@D@std@@V?$allocator@D@2@@3@@std@@YA?AU_Nonscalar_ptr_iterator_tag@0@AAViterator@?$vector@V?$basic_string@DU?$char_traits@D@std@@V?$allocator@D@2@@std@@V?$allocator@V?$basic_string@DU?$char_traits@D@std@@V?$allocator@D@2@@std@@@2@@0@AAPAV?$basic_string@DU?$char_traits@D@std@@V?$allocator@D@2@@0@@Z
_TEXT	SEGMENT PARA USE32 PUBLIC 'CODE'
_TEXT	ENDS
;	COMDAT ??$_Copy_opt@Viterator@?$vector@V?$basic_string@DU?$char_traits@D@std@@V?$allocator@D@2@@std@@V?$allocator@V?$basic_string@DU?$char_traits@D@std@@V?$allocator@D@2@@std@@@2@@std@@PAV?$basic_string@DU?$char_traits@D@std@@V?$allocator@D@2@@3@@std@@YAPAV?$basic_string@DU?$char_traits@D@std@@V?$allocator@D@2@@0@Viterator@?$vector@V?$basic_string@DU?$char_traits@D@std@@V?$allocator@D@2@@std@@V?$allocator@V?$basic_string@DU?$char_traits@D@std@@V?$allocator@D@2@@std@@@2@@0@0PAV10@U_Nonscalar_ptr_iterator_tag@0@@Z
_TEXT	SEGMENT PARA USE32 PUBLIC 'CODE'
_TEXT	ENDS
;	COMDAT ??Eiterator@?$vector@V?$basic_string@DU?$char_traits@D@std@@V?$allocator@D@2@@std@@V?$allocator@V?$basic_string@DU?$char_traits@D@std@@V?$allocator@D@2@@std@@@2@@std@@QAEAAV012@XZ
_TEXT	SEGMENT PARA USE32 PUBLIC 'CODE'
_TEXT	ENDS
;	COMDAT ??$_Uninit_copy@Viterator@?$vector@V?$basic_string@DU?$char_traits@D@std@@V?$allocator@D@2@@std@@V?$allocator@V?$basic_string@DU?$char_traits@D@std@@V?$allocator@D@2@@std@@@2@@std@@PAV?$basic_string@DU?$char_traits@D@std@@V?$allocator@D@2@@3@V?$allocator@V?$basic_string@DU?$char_traits@D@std@@V?$allocator@D@2@@std@@@3@@std@@YAPAV?$basic_string@DU?$char_traits@D@std@@V?$allocator@D@2@@0@Viterator@?$vector@V?$basic_string@DU?$char_traits@D@std@@V?$allocator@D@2@@std@@V?$allocator@V?$basic_string@DU?$char_traits@D@std@@V?$allocator@D@2@@std@@@2@@0@0PAV10@AAV?$allocator@V?$basic_string@DU?$char_traits@D@std@@V?$allocator@D@2@@std@@@0@U_Nonscalar_ptr_iterator_tag@0@@Z
_TEXT	SEGMENT PARA USE32 PUBLIC 'CODE'
_TEXT	ENDS
;	COMDAT ??3@YAXPAX0@Z
_TEXT	SEGMENT PARA USE32 PUBLIC 'CODE'
_TEXT	ENDS
;	COMDAT ?deallocate@?$allocator@E@std@@QAEXPAEI@Z
_TEXT	SEGMENT PARA USE32 PUBLIC 'CODE'
_TEXT	ENDS
;	COMDAT ??$_Ucopy@Vconst_iterator@?$vector@EV?$allocator@E@std@@@std@@@?$vector@EV?$allocator@E@std@@@std@@IAEPAEVconst_iterator@01@0PAE@Z
_TEXT	SEGMENT PARA USE32 PUBLIC 'CODE'
_TEXT	ENDS
;	COMDAT ?allocate@?$allocator@E@std@@QAEPAEI@Z
_TEXT	SEGMENT PARA USE32 PUBLIC 'CODE'
_TEXT	ENDS
;	COMDAT ??$_Allocate@E@std@@YAPAEIPAE@Z
_TEXT	SEGMENT PARA USE32 PUBLIC 'CODE'
_TEXT	ENDS
;	COMDAT ?_Xlen@?$vector@EV?$allocator@E@std@@@std@@IBEXXZ
_TEXT	SEGMENT PARA USE32 PUBLIC 'CODE'
_TEXT	ENDS
;	COMDAT ?size@?$vector@EV?$allocator@E@std@@@std@@QBEIXZ
_TEXT	SEGMENT PARA USE32 PUBLIC 'CODE'
_TEXT	ENDS
;	COMDAT ?max_size@?$vector@EV?$allocator@E@std@@@std@@QBEIXZ
_TEXT	SEGMENT PARA USE32 PUBLIC 'CODE'
_TEXT	ENDS
;	COMDAT ?max_size@?$allocator@E@std@@QBEIXZ
_TEXT	SEGMENT PARA USE32 PUBLIC 'CODE'
_TEXT	ENDS
;	COMDAT ??2@YAPAXIPAX@Z
_TEXT	SEGMENT PARA USE32 PUBLIC 'CODE'
_TEXT	ENDS
;	COMDAT ?_Ptr_cat@std@@YA?AU_Scalar_ptr_iterator_tag@1@PAE0@Z
_TEXT	SEGMENT PARA USE32 PUBLIC 'CODE'
_TEXT	ENDS
;	COMDAT ??0const_iterator@?$vector@EV?$allocator@E@std@@@std@@QAE@PAE@Z
_TEXT	SEGMENT PARA USE32 PUBLIC 'CODE'
_TEXT	ENDS
;	COMDAT ?_Destroy@?$vector@EV?$allocator@E@std@@@std@@IAEXPAE0@Z
_TEXT	SEGMENT PARA USE32 PUBLIC 'CODE'
_TEXT	ENDS
;	COMDAT ??$_Destroy_range@EV?$allocator@E@std@@@std@@YAXPAE0AAV?$allocator@E@0@@Z
_TEXT	SEGMENT PARA USE32 PUBLIC 'CODE'
_TEXT	ENDS
;	COMDAT ??4?$basic_string@DU?$char_traits@D@std@@V?$allocator@D@2@@std@@QAEAAV01@ABV01@@Z
_TEXT	SEGMENT PARA USE32 PUBLIC 'CODE'
_TEXT	ENDS
;	COMDAT ?assign@?$basic_string@DU?$char_traits@D@std@@V?$allocator@D@2@@std@@QAEAAV12@ABV12@@Z
_TEXT	SEGMENT PARA USE32 PUBLIC 'CODE'
_TEXT	ENDS
;	COMDAT ?assign@?$basic_string@DU?$char_traits@D@std@@V?$allocator@D@2@@std@@QAEAAV12@ABV12@II@Z
_TEXT	SEGMENT PARA USE32 PUBLIC 'CODE'
_TEXT	ENDS
;	COMDAT ?erase@?$basic_string@DU?$char_traits@D@std@@V?$allocator@D@2@@std@@QAEAAV12@II@Z
_TEXT	SEGMENT PARA USE32 PUBLIC 'CODE'
_TEXT	ENDS
;	COMDAT ?move@?$char_traits@D@std@@SAPADPADPBDI@Z
_TEXT	SEGMENT PARA USE32 PUBLIC 'CODE'
_TEXT	ENDS
;	COMDAT ?copy@?$char_traits@D@std@@SAPADPADPBDI@Z
_TEXT	SEGMENT PARA USE32 PUBLIC 'CODE'
_TEXT	ENDS
;	COMDAT ?npos@?$basic_string@DU?$char_traits@D@std@@V?$allocator@D@2@@std@@2IB
CONST	SEGMENT DWORD USE32 PUBLIC 'CONST'
CONST	ENDS
;	COMDAT ?_Ptr_cat@std@@YA?AU_Scalar_ptr_iterator_tag@1@PAJ0@Z
_TEXT	SEGMENT PARA USE32 PUBLIC 'CODE'
_TEXT	ENDS
;	COMDAT ??9const_iterator@?$_Tree@V?$_Tmap_traits@KEU?$less@K@std@@V?$allocator@U?$pair@$$CBKE@std@@@2@$0A@@std@@@std@@QBE_NABV012@@Z
_TEXT	SEGMENT PARA USE32 PUBLIC 'CODE'
_TEXT	ENDS
;	COMDAT ??8const_iterator@?$_Tree@V?$_Tmap_traits@KEU?$less@K@std@@V?$allocator@U?$pair@$$CBKE@std@@@2@$0A@@std@@@std@@QBE_NABV012@@Z
_TEXT	SEGMENT PARA USE32 PUBLIC 'CODE'
_TEXT	ENDS
;	COMDAT ??Eiterator@?$_Tree@V?$_Tmap_traits@KEU?$less@K@std@@V?$allocator@U?$pair@$$CBKE@std@@@2@$0A@@std@@@std@@QAEAAV012@XZ
_TEXT	SEGMENT PARA USE32 PUBLIC 'CODE'
_TEXT	ENDS
;	COMDAT ??Econst_iterator@?$_Tree@V?$_Tmap_traits@KEU?$less@K@std@@V?$allocator@U?$pair@$$CBKE@std@@@2@$0A@@std@@@std@@QAEAAV012@XZ
_TEXT	SEGMENT PARA USE32 PUBLIC 'CODE'
_TEXT	ENDS
;	COMDAT ?_Inc@const_iterator@?$_Tree@V?$_Tmap_traits@KEU?$less@K@std@@V?$allocator@U?$pair@$$CBKE@std@@@2@$0A@@std@@@std@@QAEXXZ
_TEXT	SEGMENT PARA USE32 PUBLIC 'CODE'
_TEXT	ENDS
;	COMDAT ?_Min@?$_Tree@V?$_Tmap_traits@KEU?$less@K@std@@V?$allocator@U?$pair@$$CBKE@std@@@2@$0A@@std@@@std@@KAPAU_Node@?$_Tree_nod@V?$_Tmap_traits@KEU?$less@K@std@@V?$allocator@U?$pair@$$CBKE@std@@@2@$0A@@std@@@2@PAU342@@Z
_TEXT	SEGMENT PARA USE32 PUBLIC 'CODE'
_TEXT	ENDS
;	COMDAT ?_Left@?$_Tree@V?$_Tmap_traits@KEU?$less@K@std@@V?$allocator@U?$pair@$$CBKE@std@@@2@$0A@@std@@@std@@KAAAPAU_Node@?$_Tree_nod@V?$_Tmap_traits@KEU?$less@K@std@@V?$allocator@U?$pair@$$CBKE@std@@@2@$0A@@std@@@2@PAU342@@Z
_TEXT	SEGMENT PARA USE32 PUBLIC 'CODE'
_TEXT	ENDS
;	COMDAT ?_Isnil@?$_Tree@V?$_Tmap_traits@KEU?$less@K@std@@V?$allocator@U?$pair@$$CBKE@std@@@2@$0A@@std@@@std@@KAAADPAU_Node@?$_Tree_nod@V?$_Tmap_traits@KEU?$less@K@std@@V?$allocator@U?$pair@$$CBKE@std@@@2@$0A@@std@@@2@@Z
_TEXT	SEGMENT PARA USE32 PUBLIC 'CODE'
_TEXT	ENDS
;	COMDAT ?_Parent@?$_Tree@V?$_Tmap_traits@KEU?$less@K@std@@V?$allocator@U?$pair@$$CBKE@std@@@2@$0A@@std@@@std@@KAAAPAU_Node@?$_Tree_nod@V?$_Tmap_traits@KEU?$less@K@std@@V?$allocator@U?$pair@$$CBKE@std@@@2@$0A@@std@@@2@PAU342@@Z
_TEXT	SEGMENT PARA USE32 PUBLIC 'CODE'
_TEXT	ENDS
;	COMDAT ?_Right@?$_Tree@V?$_Tmap_traits@KEU?$less@K@std@@V?$allocator@U?$pair@$$CBKE@std@@@2@$0A@@std@@@std@@KAAAPAU_Node@?$_Tree_nod@V?$_Tmap_traits@KEU?$less@K@std@@V?$allocator@U?$pair@$$CBKE@std@@@2@$0A@@std@@@2@PAU342@@Z
_TEXT	SEGMENT PARA USE32 PUBLIC 'CODE'
_TEXT	ENDS
;	COMDAT ??9const_iterator@?$_Tree@V?$_Tmap_traits@KPAVCCtrl@@U?$less@K@std@@V?$allocator@U?$pair@$$CBKPAVCCtrl@@@std@@@3@$0A@@std@@@std@@QBE_NABV012@@Z
_TEXT	SEGMENT PARA USE32 PUBLIC 'CODE'
_TEXT	ENDS
;	COMDAT ??8const_iterator@?$_Tree@V?$_Tmap_traits@KPAVCCtrl@@U?$less@K@std@@V?$allocator@U?$pair@$$CBKPAVCCtrl@@@std@@@3@$0A@@std@@@std@@QBE_NABV012@@Z
_TEXT	SEGMENT PARA USE32 PUBLIC 'CODE'
_TEXT	ENDS
;	COMDAT ??Eiterator@?$_Tree@V?$_Tmap_traits@KPAVCCtrl@@U?$less@K@std@@V?$allocator@U?$pair@$$CBKPAVCCtrl@@@std@@@3@$0A@@std@@@std@@QAEAAV012@XZ
_TEXT	SEGMENT PARA USE32 PUBLIC 'CODE'
_TEXT	ENDS
;	COMDAT ??Econst_iterator@?$_Tree@V?$_Tmap_traits@KPAVCCtrl@@U?$less@K@std@@V?$allocator@U?$pair@$$CBKPAVCCtrl@@@std@@@3@$0A@@std@@@std@@QAEAAV012@XZ
_TEXT	SEGMENT PARA USE32 PUBLIC 'CODE'
_TEXT	ENDS
;	COMDAT ?_Inc@const_iterator@?$_Tree@V?$_Tmap_traits@KPAVCCtrl@@U?$less@K@std@@V?$allocator@U?$pair@$$CBKPAVCCtrl@@@std@@@3@$0A@@std@@@std@@QAEXXZ
_TEXT	SEGMENT PARA USE32 PUBLIC 'CODE'
_TEXT	ENDS
;	COMDAT ?_Min@?$_Tree@V?$_Tmap_traits@KPAVCCtrl@@U?$less@K@std@@V?$allocator@U?$pair@$$CBKPAVCCtrl@@@std@@@3@$0A@@std@@@std@@KAPAU_Node@?$_Tree_nod@V?$_Tmap_traits@KPAVCCtrl@@U?$less@K@std@@V?$allocator@U?$pair@$$CBKPAVCCtrl@@@std@@@3@$0A@@std@@@2@PAU342@@Z
_TEXT	SEGMENT PARA USE32 PUBLIC 'CODE'
_TEXT	ENDS
;	COMDAT ?_Left@?$_Tree@V?$_Tmap_traits@KPAVCCtrl@@U?$less@K@std@@V?$allocator@U?$pair@$$CBKPAVCCtrl@@@std@@@3@$0A@@std@@@std@@KAAAPAU_Node@?$_Tree_nod@V?$_Tmap_traits@KPAVCCtrl@@U?$less@K@std@@V?$allocator@U?$pair@$$CBKPAVCCtrl@@@std@@@3@$0A@@std@@@2@PAU342@@Z
_TEXT	SEGMENT PARA USE32 PUBLIC 'CODE'
_TEXT	ENDS
;	COMDAT ?_Isnil@?$_Tree@V?$_Tmap_traits@KPAVCCtrl@@U?$less@K@std@@V?$allocator@U?$pair@$$CBKPAVCCtrl@@@std@@@3@$0A@@std@@@std@@KAAADPAU_Node@?$_Tree_nod@V?$_Tmap_traits@KPAVCCtrl@@U?$less@K@std@@V?$allocator@U?$pair@$$CBKPAVCCtrl@@@std@@@3@$0A@@std@@@2@@Z
_TEXT	SEGMENT PARA USE32 PUBLIC 'CODE'
_TEXT	ENDS
;	COMDAT ?_Parent@?$_Tree@V?$_Tmap_traits@KPAVCCtrl@@U?$less@K@std@@V?$allocator@U?$pair@$$CBKPAVCCtrl@@@std@@@3@$0A@@std@@@std@@KAAAPAU_Node@?$_Tree_nod@V?$_Tmap_traits@KPAVCCtrl@@U?$less@K@std@@V?$allocator@U?$pair@$$CBKPAVCCtrl@@@std@@@3@$0A@@std@@@2@PAU342@@Z
_TEXT	SEGMENT PARA USE32 PUBLIC 'CODE'
_TEXT	ENDS
;	COMDAT ?_Right@?$_Tree@V?$_Tmap_traits@KPAVCCtrl@@U?$less@K@std@@V?$allocator@U?$pair@$$CBKPAVCCtrl@@@std@@@3@$0A@@std@@@std@@KAAAPAU_Node@?$_Tree_nod@V?$_Tmap_traits@KPAVCCtrl@@U?$less@K@std@@V?$allocator@U?$pair@$$CBKPAVCCtrl@@@std@@@3@$0A@@std@@@2@PAU342@@Z
_TEXT	SEGMENT PARA USE32 PUBLIC 'CODE'
_TEXT	ENDS
;	COMDAT ??9const_iterator@?$_Tree@V?$_Tmap_traits@KPAVCUser@@U?$less@K@std@@V?$allocator@U?$pair@$$CBKPAVCUser@@@std@@@3@$0A@@std@@@std@@QBE_NABV012@@Z
_TEXT	SEGMENT PARA USE32 PUBLIC 'CODE'
_TEXT	ENDS
;	COMDAT ??8const_iterator@?$_Tree@V?$_Tmap_traits@KPAVCUser@@U?$less@K@std@@V?$allocator@U?$pair@$$CBKPAVCUser@@@std@@@3@$0A@@std@@@std@@QBE_NABV012@@Z
_TEXT	SEGMENT PARA USE32 PUBLIC 'CODE'
_TEXT	ENDS
;	COMDAT ??Eiterator@?$_Tree@V?$_Tmap_traits@KPAVCUser@@U?$less@K@std@@V?$allocator@U?$pair@$$CBKPAVCUser@@@std@@@3@$0A@@std@@@std@@QAEAAV012@XZ
_TEXT	SEGMENT PARA USE32 PUBLIC 'CODE'
_TEXT	ENDS
;	COMDAT ??Econst_iterator@?$_Tree@V?$_Tmap_traits@KPAVCUser@@U?$less@K@std@@V?$allocator@U?$pair@$$CBKPAVCUser@@@std@@@3@$0A@@std@@@std@@QAEAAV012@XZ
_TEXT	SEGMENT PARA USE32 PUBLIC 'CODE'
_TEXT	ENDS
;	COMDAT ?_Inc@const_iterator@?$_Tree@V?$_Tmap_traits@KPAVCUser@@U?$less@K@std@@V?$allocator@U?$pair@$$CBKPAVCUser@@@std@@@3@$0A@@std@@@std@@QAEXXZ
_TEXT	SEGMENT PARA USE32 PUBLIC 'CODE'
_TEXT	ENDS
;	COMDAT ?_Min@?$_Tree@V?$_Tmap_traits@KPAVCUser@@U?$less@K@std@@V?$allocator@U?$pair@$$CBKPAVCUser@@@std@@@3@$0A@@std@@@std@@KAPAU_Node@?$_Tree_nod@V?$_Tmap_traits@KPAVCUser@@U?$less@K@std@@V?$allocator@U?$pair@$$CBKPAVCUser@@@std@@@3@$0A@@std@@@2@PAU342@@Z
_TEXT	SEGMENT PARA USE32 PUBLIC 'CODE'
_TEXT	ENDS
;	COMDAT ?_Left@?$_Tree@V?$_Tmap_traits@KPAVCUser@@U?$less@K@std@@V?$allocator@U?$pair@$$CBKPAVCUser@@@std@@@3@$0A@@std@@@std@@KAAAPAU_Node@?$_Tree_nod@V?$_Tmap_traits@KPAVCUser@@U?$less@K@std@@V?$allocator@U?$pair@$$CBKPAVCUser@@@std@@@3@$0A@@std@@@2@PAU342@@Z
_TEXT	SEGMENT PARA USE32 PUBLIC 'CODE'
_TEXT	ENDS
;	COMDAT ?_Isnil@?$_Tree@V?$_Tmap_traits@KPAVCUser@@U?$less@K@std@@V?$allocator@U?$pair@$$CBKPAVCUser@@@std@@@3@$0A@@std@@@std@@KAAADPAU_Node@?$_Tree_nod@V?$_Tmap_traits@KPAVCUser@@U?$less@K@std@@V?$allocator@U?$pair@$$CBKPAVCUser@@@std@@@3@$0A@@std@@@2@@Z
_TEXT	SEGMENT PARA USE32 PUBLIC 'CODE'
_TEXT	ENDS
;	COMDAT ?_Parent@?$_Tree@V?$_Tmap_traits@KPAVCUser@@U?$less@K@std@@V?$allocator@U?$pair@$$CBKPAVCUser@@@std@@@3@$0A@@std@@@std@@KAAAPAU_Node@?$_Tree_nod@V?$_Tmap_traits@KPAVCUser@@U?$less@K@std@@V?$allocator@U?$pair@$$CBKPAVCUser@@@std@@@3@$0A@@std@@@2@PAU342@@Z
_TEXT	SEGMENT PARA USE32 PUBLIC 'CODE'
_TEXT	ENDS
;	COMDAT ?_Right@?$_Tree@V?$_Tmap_traits@KPAVCUser@@U?$less@K@std@@V?$allocator@U?$pair@$$CBKPAVCUser@@@std@@@3@$0A@@std@@@std@@KAAAPAU_Node@?$_Tree_nod@V?$_Tmap_traits@KPAVCUser@@U?$less@K@std@@V?$allocator@U?$pair@$$CBKPAVCUser@@@std@@@3@$0A@@std@@@2@PAU342@@Z
_TEXT	SEGMENT PARA USE32 PUBLIC 'CODE'
_TEXT	ENDS
;	COMDAT ?_Psave@?$_Facetptr@V?$ctype@G@std@@@std@@2PBVfacet@locale@2@B
_DATA	SEGMENT DWORD USE32 PUBLIC 'DATA'
_DATA	ENDS
;	COMDAT ?_Psave@?$_Facetptr@V?$ctype@D@std@@@std@@2PBVfacet@locale@2@B
_DATA	SEGMENT DWORD USE32 PUBLIC 'DATA'
_DATA	ENDS
;	COMDAT __TI3?AVlength_error@std@@
xdata$x	SEGMENT DWORD USE32 PUBLIC 'CONST'
xdata$x	ENDS
;	COMDAT ??1length_error@std@@UAE@XZ
_TEXT	SEGMENT PARA USE32 PUBLIC 'CODE'
_TEXT	ENDS
;	COMDAT ??_7length_error@std@@6B@
CONST	SEGMENT DWORD USE32 PUBLIC 'CONST'
CONST	ENDS
;	COMDAT ??_Glength_error@std@@UAEPAXI@Z
_TEXT	SEGMENT PARA USE32 PUBLIC 'CODE'
_TEXT	ENDS
;	COMDAT ?what@logic_error@std@@UBEPBDXZ
_TEXT	SEGMENT PARA USE32 PUBLIC 'CODE'
_TEXT	ENDS
;	COMDAT ??1logic_error@std@@UAE@XZ
_TEXT	SEGMENT PARA USE32 PUBLIC 'CODE'
_TEXT	ENDS
;	COMDAT ??_7logic_error@std@@6B@
CONST	SEGMENT DWORD USE32 PUBLIC 'CONST'
CONST	ENDS
;	COMDAT ??_Glogic_error@std@@UAEPAXI@Z
_TEXT	SEGMENT PARA USE32 PUBLIC 'CODE'
_TEXT	ENDS
;	COMDAT __CTA3?AVlength_error@std@@
xdata$x	SEGMENT DWORD USE32 PUBLIC 'CONST'
xdata$x	ENDS
;	COMDAT __CT??_R0?AVlength_error@std@@@8??0length_error@std@@QAE@ABV01@@Z40
xdata$x	SEGMENT DWORD USE32 PUBLIC 'CONST'
xdata$x	ENDS
;	COMDAT ??_R0?AVlength_error@std@@@8
_DATA	SEGMENT DWORD USE32 PUBLIC 'DATA'
_DATA	ENDS
;	COMDAT ??0length_error@std@@QAE@ABV01@@Z
_TEXT	SEGMENT PARA USE32 PUBLIC 'CODE'
_TEXT	ENDS
;	COMDAT ??0logic_error@std@@QAE@ABV01@@Z
_TEXT	SEGMENT PARA USE32 PUBLIC 'CODE'
_TEXT	ENDS
;	COMDAT __CT??_R0?AVlogic_error@std@@@8??0logic_error@std@@QAE@ABV01@@Z40
xdata$x	SEGMENT DWORD USE32 PUBLIC 'CONST'
xdata$x	ENDS
;	COMDAT ??_R0?AVlogic_error@std@@@8
_DATA	SEGMENT DWORD USE32 PUBLIC 'DATA'
_DATA	ENDS
;	COMDAT __CT??_R0?AVexception@@@8??0exception@@QAE@ABV0@@Z12
xdata$x	SEGMENT DWORD USE32 PUBLIC 'CONST'
xdata$x	ENDS
;	COMDAT ??_R0?AVexception@@@8
_DATA	SEGMENT DWORD USE32 PUBLIC 'DATA'
_DATA	ENDS
;	COMDAT ??_C@_0BD@OLBABOEK@vector?$DMT?$DO?5too?5long?$AA@
CONST	SEGMENT DWORD USE32 PUBLIC 'CONST'
CONST	ENDS
;	COMDAT ??0length_error@std@@QAE@ABV?$basic_string@DU?$char_traits@D@std@@V?$allocator@D@2@@1@@Z
_TEXT	SEGMENT PARA USE32 PUBLIC 'CODE'
_TEXT	ENDS
;	COMDAT ??0logic_error@std@@QAE@ABV?$basic_string@DU?$char_traits@D@std@@V?$allocator@D@2@@1@@Z
_TEXT	SEGMENT PARA USE32 PUBLIC 'CODE'
_TEXT	ENDS
;	COMDAT ??0?$basic_string@DU?$char_traits@D@std@@V?$allocator@D@2@@std@@QAE@ABV01@@Z
_TEXT	SEGMENT PARA USE32 PUBLIC 'CODE'
_TEXT	ENDS
;	COMDAT ??0?$_String_val@DV?$allocator@D@std@@@std@@IAE@V?$allocator@D@1@@Z
_TEXT	SEGMENT PARA USE32 PUBLIC 'CODE'
_TEXT	ENDS
;	COMDAT ??0?$allocator@D@std@@QAE@ABV01@@Z
_TEXT	SEGMENT PARA USE32 PUBLIC 'CODE'
_TEXT	ENDS
;	COMDAT ?_Tidy@?$basic_string@DU?$char_traits@D@std@@V?$allocator@D@2@@std@@IAEX_NI@Z
_TEXT	SEGMENT PARA USE32 PUBLIC 'CODE'
_TEXT	ENDS
;	COMDAT ?deallocate@?$allocator@D@std@@QAEXPADI@Z
_TEXT	SEGMENT PARA USE32 PUBLIC 'CODE'
_TEXT	ENDS
;	COMDAT ?compare@?$char_traits@D@std@@SAHPBD0I@Z
_TEXT	SEGMENT PARA USE32 PUBLIC 'CODE'
_TEXT	ENDS
;	COMDAT ?_Eos@?$basic_string@DU?$char_traits@D@std@@V?$allocator@D@2@@std@@IAEXI@Z
_TEXT	SEGMENT PARA USE32 PUBLIC 'CODE'
_TEXT	ENDS
;	COMDAT ?assign@?$char_traits@D@std@@SAXAADABD@Z
_TEXT	SEGMENT PARA USE32 PUBLIC 'CODE'
_TEXT	ENDS
;	COMDAT ?_Myptr@?$basic_string@DU?$char_traits@D@std@@V?$allocator@D@2@@std@@QAEPADXZ
_TEXT	SEGMENT PARA USE32 PUBLIC 'CODE'
_TEXT	ENDS
;	COMDAT ?assign@?$char_traits@D@std@@SAPADPADID@Z
_TEXT	SEGMENT PARA USE32 PUBLIC 'CODE'
_TEXT	ENDS
;	COMDAT ?_Grow@?$basic_string@DU?$char_traits@D@std@@V?$allocator@D@2@@std@@IAE_NI_N@Z
_TEXT	SEGMENT PARA USE32 PUBLIC 'CODE'
_TEXT	ENDS
;	COMDAT ?max_size@?$basic_string@DU?$char_traits@D@std@@V?$allocator@D@2@@std@@QBEIXZ
_TEXT	SEGMENT PARA USE32 PUBLIC 'CODE'
_TEXT	ENDS
;	COMDAT ?max_size@?$allocator@D@std@@QBEIXZ
_TEXT	SEGMENT PARA USE32 PUBLIC 'CODE'
_TEXT	ENDS
;	COMDAT ?_Copy@?$basic_string@DU?$char_traits@D@std@@V?$allocator@D@2@@std@@IAEXII@Z
_TEXT	SEGMENT PARA USE32 PUBLIC 'CODE'
_TEXT	ENDS
;	COMDAT ?allocate@?$allocator@D@std@@QAEPADI@Z
_TEXT	SEGMENT PARA USE32 PUBLIC 'CODE'
_TEXT	ENDS
;	COMDAT ??$_Allocate@D@std@@YAPADIPAD@Z
_TEXT	SEGMENT PARA USE32 PUBLIC 'CODE'
_TEXT	ENDS
;	COMDAT ?_Myptr@?$basic_string@DU?$char_traits@D@std@@V?$allocator@D@2@@std@@QBEPBDXZ
_TEXT	SEGMENT PARA USE32 PUBLIC 'CODE'
_TEXT	ENDS
;	COMDAT ?size@?$basic_string@DU?$char_traits@D@std@@V?$allocator@D@2@@std@@QBEIXZ
_TEXT	SEGMENT PARA USE32 PUBLIC 'CODE'
_TEXT	ENDS
;	COMDAT ?xRandom@@YAKK@Z
_TEXT	SEGMENT PARA USE32 PUBLIC 'CODE'
_TEXT	ENDS
;	COMDAT ?xRand@@YAKXZ
_TEXT	SEGMENT PARA USE32 PUBLIC 'CODE'
_TEXT	ENDS
;	COMDAT ??0?$basic_string@DU?$char_traits@D@std@@V?$allocator@D@2@@std@@QAE@XZ
_TEXT	SEGMENT PARA USE32 PUBLIC 'CODE'
_TEXT	ENDS
;	COMDAT ??0?$allocator@D@std@@QAE@XZ
_TEXT	SEGMENT PARA USE32 PUBLIC 'CODE'
_TEXT	ENDS
;	COMDAT ??_7CMiniGameTyping@@6B@
CONST	SEGMENT DWORD USE32 PUBLIC 'CONST'
CONST	ENDS
;	COMDAT ??1?$basic_string@DU?$char_traits@D@std@@V?$allocator@D@2@@std@@QAE@XZ
_TEXT	SEGMENT PARA USE32 PUBLIC 'CODE'
_TEXT	ENDS
;	COMDAT ??0?$basic_string@DU?$char_traits@D@std@@V?$allocator@D@2@@std@@QAE@PBD@Z
_TEXT	SEGMENT PARA USE32 PUBLIC 'CODE'
_TEXT	ENDS
;	COMDAT ?assign@?$basic_string@DU?$char_traits@D@std@@V?$allocator@D@2@@std@@QAEAAV12@PBD@Z
_TEXT	SEGMENT PARA USE32 PUBLIC 'CODE'
_TEXT	ENDS
;	COMDAT ?assign@?$basic_string@DU?$char_traits@D@std@@V?$allocator@D@2@@std@@QAEAAV12@PBDI@Z
_TEXT	SEGMENT PARA USE32 PUBLIC 'CODE'
_TEXT	ENDS
;	COMDAT ?_Inside@?$basic_string@DU?$char_traits@D@std@@V?$allocator@D@2@@std@@IAE_NPBD@Z
_TEXT	SEGMENT PARA USE32 PUBLIC 'CODE'
_TEXT	ENDS
;	COMDAT ?length@?$char_traits@D@std@@SAIPBD@Z
_TEXT	SEGMENT PARA USE32 PUBLIC 'CODE'
_TEXT	ENDS
;	COMDAT ?c_str@?$basic_string@DU?$char_traits@D@std@@V?$allocator@D@2@@std@@QBEPBDXZ
_TEXT	SEGMENT PARA USE32 PUBLIC 'CODE'
_TEXT	ENDS
;	COMDAT ??6CAr@@QAEAAV0@I@Z
_TEXT	SEGMENT PARA USE32 PUBLIC 'CODE'
_TEXT	ENDS
;	COMDAT ??6CAr@@QAEAAV0@J@Z
_TEXT	SEGMENT PARA USE32 PUBLIC 'CODE'
_TEXT	ENDS
;	COMDAT ??_7__MINIGAME_EXT_PACKET@@6B@
CONST	SEGMENT DWORD USE32 PUBLIC 'CONST'
CONST	ENDS
;	COMDAT ??5CAr@@QAEAAV0@AAG@Z
_TEXT	SEGMENT PARA USE32 PUBLIC 'CODE'
_TEXT	ENDS
;	COMDAT ??5CAr@@QAEAAV0@AAH@Z
_TEXT	SEGMENT PARA USE32 PUBLIC 'CODE'
_TEXT	ENDS
;	COMDAT ??5CAr@@QAEAAV0@AAJ@Z
_TEXT	SEGMENT PARA USE32 PUBLIC 'CODE'
_TEXT	ENDS
;	COMDAT ??6CAr@@QAEAAV0@G@Z
_TEXT	SEGMENT PARA USE32 PUBLIC 'CODE'
_TEXT	ENDS
;	COMDAT ??6CAr@@QAEAAV0@H@Z
_TEXT	SEGMENT PARA USE32 PUBLIC 'CODE'
_TEXT	ENDS
;	COMDAT ?IsStoring@CAr@@QBEHXZ
_TEXT	SEGMENT PARA USE32 PUBLIC 'CODE'
_TEXT	ENDS
;	COMDAT ??_7__MINIGAME_PACKET@@6B@
CONST	SEGMENT DWORD USE32 PUBLIC 'CONST'
CONST	ENDS
sxdata	SEGMENT DWORD USE32 'SXDATA'
sxdata	ENDS
FLAT	GROUP _DATA, CONST, _BSS
	ASSUME	CS: FLAT, DS: FLAT, SS: FLAT
endif

INCLUDELIB LIBCMT
INCLUDELIB OLDNAMES

PUBLIC	??0__MINIGAME_PACKET@@QAE@GHHH@Z		; __MINIGAME_PACKET::__MINIGAME_PACKET
PUBLIC	?Serialize@__MINIGAME_PACKET@@UAEXAAVCAr@@@Z	; __MINIGAME_PACKET::Serialize
PUBLIC	??_7__MINIGAME_PACKET@@6B@			; __MINIGAME_PACKET::`vftable'
;	COMDAT ??_7__MINIGAME_PACKET@@6B@
; File c:\documents and settings\test\mes documents\source\virtuos_v17\build\program\_common\minigamebase.h
CONST	SEGMENT
??_7__MINIGAME_PACKET@@6B@ DD FLAT:?Serialize@__MINIGAME_PACKET@@UAEXAAVCAr@@@Z ; __MINIGAME_PACKET::`vftable'
; Function compile flags: /Ogty
CONST	ENDS
;	COMDAT ??0__MINIGAME_PACKET@@QAE@GHHH@Z
_TEXT	SEGMENT
_wG$ = 8						; size = 2
_nS$ = 12						; size = 4
_nP1$ = 16						; size = 4
_nP2$ = 20						; size = 4
??0__MINIGAME_PACKET@@QAE@GHHH@Z PROC NEAR		; __MINIGAME_PACKET::__MINIGAME_PACKET, COMDAT
; _this$ = ecx

; 13   : 	__MINIGAME_PACKET( WORD wG = 0x0000, int nS = MP_NONE, int nP1 = 0, int nP2 = 0 )

  00000	8b 54 24 08	 mov	 edx, DWORD PTR _nS$[esp-4]
  00004	8b c1		 mov	 eax, ecx
  00006	66 8b 4c 24 04	 mov	 cx, WORD PTR _wG$[esp-4]
  0000b	66 89 48 04	 mov	 WORD PTR [eax+4], cx
  0000f	8b 4c 24 0c	 mov	 ecx, DWORD PTR _nP1$[esp-4]
  00013	89 50 08	 mov	 DWORD PTR [eax+8], edx
  00016	8b 54 24 10	 mov	 edx, DWORD PTR _nP2$[esp-4]
  0001a	c7 00 00 00 00
	00		 mov	 DWORD PTR [eax], OFFSET FLAT:??_7__MINIGAME_PACKET@@6B@
  00020	89 48 0c	 mov	 DWORD PTR [eax+12], ecx
  00023	89 50 10	 mov	 DWORD PTR [eax+16], edx
  00026	c2 10 00	 ret	 16			; 00000010H
??0__MINIGAME_PACKET@@QAE@GHHH@Z ENDP			; __MINIGAME_PACKET::__MINIGAME_PACKET
_TEXT	ENDS
PUBLIC	??2@YAPAXIPAX@Z					; operator new
; Function compile flags: /Ogty
; File c:\program files\microsoft visual studio .net 2003\vc7\include\new.h
;	COMDAT ??2@YAPAXIPAX@Z
_TEXT	SEGMENT
___formal$ = 8						; size = 4
__P$ = 12						; size = 4
??2@YAPAXIPAX@Z PROC NEAR				; operator new, COMDAT

; 109  :         {return (_P); }

  00000	8b 44 24 08	 mov	 eax, DWORD PTR __P$[esp-4]
  00004	c3		 ret	 0
??2@YAPAXIPAX@Z ENDP					; operator new
_TEXT	ENDS
PUBLIC	??3@YAXPAX0@Z					; operator delete
; Function compile flags: /Ogty
;	COMDAT ??3@YAXPAX0@Z
_TEXT	SEGMENT
___formal$ = 8						; size = 4
___formal$ = 12						; size = 4
??3@YAXPAX0@Z PROC NEAR					; operator delete, COMDAT

; 112  :         {return; }

  00000	c3		 ret	 0
??3@YAXPAX0@Z ENDP					; operator delete
_TEXT	ENDS
PUBLIC	??0__MINIGAME_PACKET@@QAE@ABU0@@Z		; __MINIGAME_PACKET::__MINIGAME_PACKET
; Function compile flags: /Ogty
;	COMDAT ??0__MINIGAME_PACKET@@QAE@ABU0@@Z
_TEXT	SEGMENT
___that$ = 8						; size = 4
??0__MINIGAME_PACKET@@QAE@ABU0@@Z PROC NEAR		; __MINIGAME_PACKET::__MINIGAME_PACKET, COMDAT
; _this$ = ecx
  00000	8b c1		 mov	 eax, ecx
  00002	8b 4c 24 04	 mov	 ecx, DWORD PTR ___that$[esp-4]
  00006	c7 00 00 00 00
	00		 mov	 DWORD PTR [eax], OFFSET FLAT:??_7__MINIGAME_PACKET@@6B@
  0000c	66 8b 51 04	 mov	 dx, WORD PTR [ecx+4]
  00010	66 89 50 04	 mov	 WORD PTR [eax+4], dx
  00014	8b 51 08	 mov	 edx, DWORD PTR [ecx+8]
  00017	89 50 08	 mov	 DWORD PTR [eax+8], edx
  0001a	8b 51 0c	 mov	 edx, DWORD PTR [ecx+12]
  0001d	89 50 0c	 mov	 DWORD PTR [eax+12], edx
  00020	8b 49 10	 mov	 ecx, DWORD PTR [ecx+16]
  00023	89 48 10	 mov	 DWORD PTR [eax+16], ecx
  00026	c2 04 00	 ret	 4
??0__MINIGAME_PACKET@@QAE@ABU0@@Z ENDP			; __MINIGAME_PACKET::__MINIGAME_PACKET
_TEXT	ENDS
PUBLIC	?size@?$vector@V?$basic_string@DU?$char_traits@D@std@@V?$allocator@D@2@@std@@V?$allocator@V?$basic_string@DU?$char_traits@D@std@@V?$allocator@D@2@@std@@@2@@std@@QBEIXZ ; std::vector<std::basic_string<char,std::char_traits<char>,std::allocator<char> >,std::allocator<std::basic_string<char,std::char_traits<char>,std::allocator<char> > > >::size
; Function compile flags: /Ogty
; File c:\program files\microsoft visual studio .net 2003\vc7\include\vector
;	COMDAT ?size@?$vector@V?$basic_string@DU?$char_traits@D@std@@V?$allocator@D@2@@std@@V?$allocator@V?$basic_string@DU?$char_traits@D@std@@V?$allocator@D@2@@std@@@2@@std@@QBEIXZ
_TEXT	SEGMENT
?size@?$vector@V?$basic_string@DU?$char_traits@D@std@@V?$allocator@D@2@@std@@V?$allocator@V?$basic_string@DU?$char_traits@D@std@@V?$allocator@D@2@@std@@@2@@std@@QBEIXZ PROC NEAR ; std::vector<std::basic_string<char,std::char_traits<char>,std::allocator<char> >,std::allocator<std::basic_string<char,std::char_traits<char>,std::allocator<char> > > >::size, COMDAT
; _this$ = ecx

; 516  : 		return (_Myfirst == 0 ? 0 : _Mylast - _Myfirst);

  00000	8b 41 04	 mov	 eax, DWORD PTR [ecx+4]
  00003	85 c0		 test	 eax, eax
  00005	75 01		 jne	 SHORT $L228209

; 517  : 		}

  00007	c3		 ret	 0
$L228209:

; 516  : 		return (_Myfirst == 0 ? 0 : _Mylast - _Myfirst);

  00008	8b 49 08	 mov	 ecx, DWORD PTR [ecx+8]
  0000b	2b c8		 sub	 ecx, eax
  0000d	b8 93 24 49 92	 mov	 eax, -1840700269	; 92492493H
  00012	f7 e9		 imul	 ecx
  00014	03 d1		 add	 edx, ecx
  00016	c1 fa 04	 sar	 edx, 4
  00019	8b c2		 mov	 eax, edx
  0001b	c1 e8 1f	 shr	 eax, 31			; 0000001fH
  0001e	03 c2		 add	 eax, edx

; 517  : 		}

  00020	c3		 ret	 0
?size@?$vector@V?$basic_string@DU?$char_traits@D@std@@V?$allocator@D@2@@std@@V?$allocator@V?$basic_string@DU?$char_traits@D@std@@V?$allocator@D@2@@std@@@2@@std@@QBEIXZ ENDP ; std::vector<std::basic_string<char,std::char_traits<char>,std::allocator<char> >,std::allocator<std::basic_string<char,std::char_traits<char>,std::allocator<char> > > >::size
_TEXT	ENDS
PUBLIC	??0?$allocator@V?$basic_string@DU?$char_traits@D@std@@V?$allocator@D@2@@std@@@std@@QAE@XZ ; std::allocator<std::basic_string<char,std::char_traits<char>,std::allocator<char> > >::allocator<std::basic_string<char,std::char_traits<char>,std::allocator<char> > >
; Function compile flags: /Ogty
; File c:\program files\microsoft visual studio .net 2003\vc7\include\xmemory
;	COMDAT ??0?$allocator@V?$basic_string@DU?$char_traits@D@std@@V?$allocator@D@2@@std@@@std@@QAE@XZ
_TEXT	SEGMENT
??0?$allocator@V?$basic_string@DU?$char_traits@D@std@@V?$allocator@D@2@@std@@@std@@QAE@XZ PROC NEAR ; std::allocator<std::basic_string<char,std::char_traits<char>,std::allocator<char> > >::allocator<std::basic_string<char,std::char_traits<char>,std::allocator<char> > >, COMDAT
; _this$ = ecx

; 111  : 	allocator()

  00000	8b c1		 mov	 eax, ecx

; 112  : 		{	// construct default allocator (do nothing)
; 113  : 		}

  00002	c3		 ret	 0
??0?$allocator@V?$basic_string@DU?$char_traits@D@std@@V?$allocator@D@2@@std@@@std@@QAE@XZ ENDP ; std::allocator<std::basic_string<char,std::char_traits<char>,std::allocator<char> > >::allocator<std::basic_string<char,std::char_traits<char>,std::allocator<char> > >
_TEXT	ENDS
PUBLIC	??0?$allocator@V?$basic_string@DU?$char_traits@D@std@@V?$allocator@D@2@@std@@@std@@QAE@ABV01@@Z ; std::allocator<std::basic_string<char,std::char_traits<char>,std::allocator<char> > >::allocator<std::basic_string<char,std::char_traits<char>,std::allocator<char> > >
; Function compile flags: /Ogty
;	COMDAT ??0?$allocator@V?$basic_string@DU?$char_traits@D@std@@V?$allocator@D@2@@std@@@std@@QAE@ABV01@@Z
_TEXT	SEGMENT
___formal$ = 8						; size = 4
??0?$allocator@V?$basic_string@DU?$char_traits@D@std@@V?$allocator@D@2@@std@@@std@@QAE@ABV01@@Z PROC NEAR ; std::allocator<std::basic_string<char,std::char_traits<char>,std::allocator<char> > >::allocator<std::basic_string<char,std::char_traits<char>,std::allocator<char> > >, COMDAT
; _this$ = ecx

; 115  : 	allocator(const allocator<_Ty>&)

  00000	8b c1		 mov	 eax, ecx

; 116  : 		{	// construct by copying (do nothing)
; 117  : 		}

  00002	c2 04 00	 ret	 4
??0?$allocator@V?$basic_string@DU?$char_traits@D@std@@V?$allocator@D@2@@std@@@std@@QAE@ABV01@@Z ENDP ; std::allocator<std::basic_string<char,std::char_traits<char>,std::allocator<char> > >::allocator<std::basic_string<char,std::char_traits<char>,std::allocator<char> > >
_TEXT	ENDS
PUBLIC	?capacity@?$vector@V?$basic_string@DU?$char_traits@D@std@@V?$allocator@D@2@@std@@V?$allocator@V?$basic_string@DU?$char_traits@D@std@@V?$allocator@D@2@@std@@@2@@std@@QBEIXZ ; std::vector<std::basic_string<char,std::char_traits<char>,std::allocator<char> >,std::allocator<std::basic_string<char,std::char_traits<char>,std::allocator<char> > > >::capacity
; Function compile flags: /Ogty
; File c:\program files\microsoft visual studio .net 2003\vc7\include\vector
;	COMDAT ?capacity@?$vector@V?$basic_string@DU?$char_traits@D@std@@V?$allocator@D@2@@std@@V?$allocator@V?$basic_string@DU?$char_traits@D@std@@V?$allocator@D@2@@std@@@2@@std@@QBEIXZ
_TEXT	SEGMENT
?capacity@?$vector@V?$basic_string@DU?$char_traits@D@std@@V?$allocator@D@2@@std@@V?$allocator@V?$basic_string@DU?$char_traits@D@std@@V?$allocator@D@2@@std@@@2@@std@@QBEIXZ PROC NEAR ; std::vector<std::basic_string<char,std::char_traits<char>,std::allocator<char> >,std::allocator<std::basic_string<char,std::char_traits<char>,std::allocator<char> > > >::capacity, COMDAT
; _this$ = ecx

; 458  : 		return (_Myfirst == 0 ? 0 : _Myend - _Myfirst);

  00000	8b 41 04	 mov	 eax, DWORD PTR [ecx+4]
  00003	85 c0		 test	 eax, eax
  00005	75 01		 jne	 SHORT $L228220

; 459  : 		}

  00007	c3		 ret	 0
$L228220:

; 458  : 		return (_Myfirst == 0 ? 0 : _Myend - _Myfirst);

  00008	8b 49 0c	 mov	 ecx, DWORD PTR [ecx+12]
  0000b	2b c8		 sub	 ecx, eax
  0000d	b8 93 24 49 92	 mov	 eax, -1840700269	; 92492493H
  00012	f7 e9		 imul	 ecx
  00014	03 d1		 add	 edx, ecx
  00016	c1 fa 04	 sar	 edx, 4
  00019	8b c2		 mov	 eax, edx
  0001b	c1 e8 1f	 shr	 eax, 31			; 0000001fH
  0001e	03 c2		 add	 eax, edx

; 459  : 		}

  00020	c3		 ret	 0
?capacity@?$vector@V?$basic_string@DU?$char_traits@D@std@@V?$allocator@D@2@@std@@V?$allocator@V?$basic_string@DU?$char_traits@D@std@@V?$allocator@D@2@@std@@@2@@std@@QBEIXZ ENDP ; std::vector<std::basic_string<char,std::char_traits<char>,std::allocator<char> >,std::allocator<std::basic_string<char,std::char_traits<char>,std::allocator<char> > > >::capacity
_TEXT	ENDS
PUBLIC	??0?$_Vector_val@V?$basic_string@DU?$char_traits@D@std@@V?$allocator@D@2@@std@@V?$allocator@V?$basic_string@DU?$char_traits@D@std@@V?$allocator@D@2@@std@@@2@@std@@IAE@V?$allocator@V?$basic_string@DU?$char_traits@D@std@@V?$allocator@D@2@@std@@@1@@Z ; std::_Vector_val<std::basic_string<char,std::char_traits<char>,std::allocator<char> >,std::allocator<std::basic_string<char,std::char_traits<char>,std::allocator<char> > > >::_Vector_val<std::basic_string<char,std::char_traits<char>,std::allocator<char> >,std::allocator<std::basic_string<char,std::char_traits<char>,std::allocator<char> > > >
; Function compile flags: /Ogty
;	COMDAT ??0?$_Vector_val@V?$basic_string@DU?$char_traits@D@std@@V?$allocator@D@2@@std@@V?$allocator@V?$basic_string@DU?$char_traits@D@std@@V?$allocator@D@2@@std@@@2@@std@@IAE@V?$allocator@V?$basic_string@DU?$char_traits@D@std@@V?$allocator@D@2@@std@@@1@@Z
_TEXT	SEGMENT
__Al$ = 8						; size = 1
??0?$_Vector_val@V?$basic_string@DU?$char_traits@D@std@@V?$allocator@D@2@@std@@V?$allocator@V?$basic_string@DU?$char_traits@D@std@@V?$allocator@D@2@@std@@@2@@std@@IAE@V?$allocator@V?$basic_string@DU?$char_traits@D@std@@V?$allocator@D@2@@std@@@1@@Z PROC NEAR ; std::_Vector_val<std::basic_string<char,std::char_traits<char>,std::allocator<char> >,std::allocator<std::basic_string<char,std::char_traits<char>,std::allocator<char> > > >::_Vector_val<std::basic_string<char,std::char_traits<char>,std::allocator<char> >,std::allocator<std::basic_string<char,std::char_traits<char>,std::allocator<char> > > >, COMDAT
; _this$ = ecx

; 21   : 		{	// construct allocator from _Al

  00000	8b c1		 mov	 eax, ecx

; 22   : 		}

  00002	c2 04 00	 ret	 4
??0?$_Vector_val@V?$basic_string@DU?$char_traits@D@std@@V?$allocator@D@2@@std@@V?$allocator@V?$basic_string@DU?$char_traits@D@std@@V?$allocator@D@2@@std@@@2@@std@@IAE@V?$allocator@V?$basic_string@DU?$char_traits@D@std@@V?$allocator@D@2@@std@@@1@@Z ENDP ; std::_Vector_val<std::basic_string<char,std::char_traits<char>,std::allocator<char> >,std::allocator<std::basic_string<char,std::char_traits<char>,std::allocator<char> > > >::_Vector_val<std::basic_string<char,std::char_traits<char>,std::allocator<char> >,std::allocator<std::basic_string<char,std::char_traits<char>,std::allocator<char> > > >
_TEXT	ENDS
PUBLIC	?deallocate@?$allocator@V?$basic_string@DU?$char_traits@D@std@@V?$allocator@D@2@@std@@@std@@QAEXPAV?$basic_string@DU?$char_traits@D@std@@V?$allocator@D@2@@2@I@Z ; std::allocator<std::basic_string<char,std::char_traits<char>,std::allocator<char> > >::deallocate
EXTRN	??3@YAXPAX@Z:NEAR				; operator delete
; Function compile flags: /Ogty
; File c:\program files\microsoft visual studio .net 2003\vc7\include\xmemory
;	COMDAT ?deallocate@?$allocator@V?$basic_string@DU?$char_traits@D@std@@V?$allocator@D@2@@std@@@std@@QAEXPAV?$basic_string@DU?$char_traits@D@std@@V?$allocator@D@2@@2@I@Z
_TEXT	SEGMENT
__Ptr$ = 8						; size = 4
___formal$ = 12						; size = 4
?deallocate@?$allocator@V?$basic_string@DU?$char_traits@D@std@@V?$allocator@D@2@@std@@@std@@QAEXPAV?$basic_string@DU?$char_traits@D@std@@V?$allocator@D@2@@2@I@Z PROC NEAR ; std::allocator<std::basic_string<char,std::char_traits<char>,std::allocator<char> > >::deallocate, COMDAT
; _this$ = ecx

; 132  : 		operator delete(_Ptr);

  00000	8b 44 24 04	 mov	 eax, DWORD PTR __Ptr$[esp-4]
  00004	50		 push	 eax
  00005	e8 00 00 00 00	 call	 ??3@YAXPAX@Z		; operator delete
  0000a	59		 pop	 ecx

; 133  : 		}

  0000b	c2 08 00	 ret	 8
?deallocate@?$allocator@V?$basic_string@DU?$char_traits@D@std@@V?$allocator@D@2@@std@@@std@@QAEXPAV?$basic_string@DU?$char_traits@D@std@@V?$allocator@D@2@@2@I@Z ENDP ; std::allocator<std::basic_string<char,std::char_traits<char>,std::allocator<char> > >::deallocate
_TEXT	ENDS
PUBLIC	??Yiterator@?$vector@V?$basic_string@DU?$char_traits@D@std@@V?$allocator@D@2@@std@@V?$allocator@V?$basic_string@DU?$char_traits@D@std@@V?$allocator@D@2@@std@@@2@@std@@QAEAAV012@H@Z ; std::vector<std::basic_string<char,std::char_traits<char>,std::allocator<char> >,std::allocator<std::basic_string<char,std::char_traits<char>,std::allocator<char> > > >::iterator::operator+=
; Function compile flags: /Ogty
; File c:\program files\microsoft visual studio .net 2003\vc7\include\vector
;	COMDAT ??Yiterator@?$vector@V?$basic_string@DU?$char_traits@D@std@@V?$allocator@D@2@@std@@V?$allocator@V?$basic_string@DU?$char_traits@D@std@@V?$allocator@D@2@@std@@@2@@std@@QAEAAV012@H@Z
_TEXT	SEGMENT
__Off$ = 8						; size = 4
??Yiterator@?$vector@V?$basic_string@DU?$char_traits@D@std@@V?$allocator@D@2@@std@@V?$allocator@V?$basic_string@DU?$char_traits@D@std@@V?$allocator@D@2@@std@@@2@@std@@QAEAAV012@H@Z PROC NEAR ; std::vector<std::basic_string<char,std::char_traits<char>,std::allocator<char> >,std::allocator<std::basic_string<char,std::char_traits<char>,std::allocator<char> > > >::iterator::operator+=, COMDAT
; _this$ = ecx

; 255  : 			{	// increment by integer

  00000	8b c1		 mov	 eax, ecx

; 256  : 			this->_Myptr += _Off;

  00002	8b 4c 24 04	 mov	 ecx, DWORD PTR __Off$[esp-4]
  00006	8b 10		 mov	 edx, DWORD PTR [eax]
  00008	6b c9 1c	 imul	 ecx, 28			; 0000001cH
  0000b	03 d1		 add	 edx, ecx
  0000d	89 10		 mov	 DWORD PTR [eax], edx

; 257  : 			return (*this);
; 258  : 			}

  0000f	c2 04 00	 ret	 4
??Yiterator@?$vector@V?$basic_string@DU?$char_traits@D@std@@V?$allocator@D@2@@std@@V?$allocator@V?$basic_string@DU?$char_traits@D@std@@V?$allocator@D@2@@std@@@2@@std@@QAEAAV012@H@Z ENDP ; std::vector<std::basic_string<char,std::char_traits<char>,std::allocator<char> >,std::allocator<std::basic_string<char,std::char_traits<char>,std::allocator<char> > > >::iterator::operator+=
_TEXT	ENDS
PUBLIC	??0const_iterator@?$vector@V?$basic_string@DU?$char_traits@D@std@@V?$allocator@D@2@@std@@V?$allocator@V?$basic_string@DU?$char_traits@D@std@@V?$allocator@D@2@@std@@@2@@std@@QAE@PAV?$basic_string@DU?$char_traits@D@std@@V?$allocator@D@2@@2@@Z ; std::vector<std::basic_string<char,std::char_traits<char>,std::allocator<char> >,std::allocator<std::basic_string<char,std::char_traits<char>,std::allocator<char> > > >::const_iterator::const_iterator
; Function compile flags: /Ogty
;	COMDAT ??0const_iterator@?$vector@V?$basic_string@DU?$char_traits@D@std@@V?$allocator@D@2@@std@@V?$allocator@V?$basic_string@DU?$char_traits@D@std@@V?$allocator@D@2@@std@@@2@@std@@QAE@PAV?$basic_string@DU?$char_traits@D@std@@V?$allocator@D@2@@2@@Z
_TEXT	SEGMENT
__Ptr$ = 8						; size = 4
??0const_iterator@?$vector@V?$basic_string@DU?$char_traits@D@std@@V?$allocator@D@2@@std@@V?$allocator@V?$basic_string@DU?$char_traits@D@std@@V?$allocator@D@2@@std@@@2@@std@@QAE@PAV?$basic_string@DU?$char_traits@D@std@@V?$allocator@D@2@@2@@Z PROC NEAR ; std::vector<std::basic_string<char,std::char_traits<char>,std::allocator<char> >,std::allocator<std::basic_string<char,std::char_traits<char>,std::allocator<char> > > >::const_iterator::const_iterator, COMDAT
; _this$ = ecx

; 73   : 		const_iterator(_Tptr _Ptr)

  00000	8b c1		 mov	 eax, ecx

; 74   : 			{	// construct with pointer _Ptr
; 75   : 			_Myptr = _Ptr;

  00002	8b 4c 24 04	 mov	 ecx, DWORD PTR __Ptr$[esp-4]
  00006	89 08		 mov	 DWORD PTR [eax], ecx

; 76   : 			}

  00008	c2 04 00	 ret	 4
??0const_iterator@?$vector@V?$basic_string@DU?$char_traits@D@std@@V?$allocator@D@2@@std@@V?$allocator@V?$basic_string@DU?$char_traits@D@std@@V?$allocator@D@2@@std@@@2@@std@@QAE@PAV?$basic_string@DU?$char_traits@D@std@@V?$allocator@D@2@@2@@Z ENDP ; std::vector<std::basic_string<char,std::char_traits<char>,std::allocator<char> >,std::allocator<std::basic_string<char,std::char_traits<char>,std::allocator<char> > > >::const_iterator::const_iterator
_TEXT	ENDS
PUBLIC	??Dconst_iterator@?$vector@V?$basic_string@DU?$char_traits@D@std@@V?$allocator@D@2@@std@@V?$allocator@V?$basic_string@DU?$char_traits@D@std@@V?$allocator@D@2@@std@@@2@@std@@QBEABV?$basic_string@DU?$char_traits@D@std@@V?$allocator@D@2@@2@XZ ; std::vector<std::basic_string<char,std::char_traits<char>,std::allocator<char> >,std::allocator<std::basic_string<char,std::char_traits<char>,std::allocator<char> > > >::const_iterator::operator*
; Function compile flags: /Ogty
;	COMDAT ??Dconst_iterator@?$vector@V?$basic_string@DU?$char_traits@D@std@@V?$allocator@D@2@@std@@V?$allocator@V?$basic_string@DU?$char_traits@D@std@@V?$allocator@D@2@@std@@@2@@std@@QBEABV?$basic_string@DU?$char_traits@D@std@@V?$allocator@D@2@@2@XZ
_TEXT	SEGMENT
??Dconst_iterator@?$vector@V?$basic_string@DU?$char_traits@D@std@@V?$allocator@D@2@@std@@V?$allocator@V?$basic_string@DU?$char_traits@D@std@@V?$allocator@D@2@@std@@@2@@std@@QBEABV?$basic_string@DU?$char_traits@D@std@@V?$allocator@D@2@@2@XZ PROC NEAR ; std::vector<std::basic_string<char,std::char_traits<char>,std::allocator<char> >,std::allocator<std::basic_string<char,std::char_traits<char>,std::allocator<char> > > >::const_iterator::operator*, COMDAT
; _this$ = ecx

; 80   : 
; 81   : 
; 82   : 			return (*_Myptr);

  00000	8b 01		 mov	 eax, DWORD PTR [ecx]

; 83   : 			}

  00002	c3		 ret	 0
??Dconst_iterator@?$vector@V?$basic_string@DU?$char_traits@D@std@@V?$allocator@D@2@@std@@V?$allocator@V?$basic_string@DU?$char_traits@D@std@@V?$allocator@D@2@@std@@@2@@std@@QBEABV?$basic_string@DU?$char_traits@D@std@@V?$allocator@D@2@@2@XZ ENDP ; std::vector<std::basic_string<char,std::char_traits<char>,std::allocator<char> >,std::allocator<std::basic_string<char,std::char_traits<char>,std::allocator<char> > > >::const_iterator::operator*
_TEXT	ENDS
PUBLIC	?max_size@?$allocator@V?$basic_string@DU?$char_traits@D@std@@V?$allocator@D@2@@std@@@std@@QBEIXZ ; std::allocator<std::basic_string<char,std::char_traits<char>,std::allocator<char> > >::max_size
; Function compile flags: /Ogty
; File c:\program files\microsoft visual studio .net 2003\vc7\include\xmemory
;	COMDAT ?max_size@?$allocator@V?$basic_string@DU?$char_traits@D@std@@V?$allocator@D@2@@std@@@std@@QBEIXZ
_TEXT	SEGMENT
?max_size@?$allocator@V?$basic_string@DU?$char_traits@D@std@@V?$allocator@D@2@@std@@@std@@QBEIXZ PROC NEAR ; std::allocator<std::basic_string<char,std::char_traits<char>,std::allocator<char> > >::max_size, COMDAT
; _this$ = ecx

; 157  : 		_SIZT _Count = (_SIZT)(-1) / sizeof (_Ty);
; 158  : 		return (0 < _Count ? _Count : 1);

  00000	b8 49 92 24 09	 mov	 eax, 153391689		; 09249249H

; 159  : 		}

  00005	c3		 ret	 0
?max_size@?$allocator@V?$basic_string@DU?$char_traits@D@std@@V?$allocator@D@2@@std@@@std@@QBEIXZ ENDP ; std::allocator<std::basic_string<char,std::char_traits<char>,std::allocator<char> > >::max_size
_TEXT	ENDS
PUBLIC	??Gconst_iterator@?$vector@V?$basic_string@DU?$char_traits@D@std@@V?$allocator@D@2@@std@@V?$allocator@V?$basic_string@DU?$char_traits@D@std@@V?$allocator@D@2@@std@@@2@@std@@QBEHABV012@@Z ; std::vector<std::basic_string<char,std::char_traits<char>,std::allocator<char> >,std::allocator<std::basic_string<char,std::char_traits<char>,std::allocator<char> > > >::const_iterator::operator-
; Function compile flags: /Ogty
; File c:\program files\microsoft visual studio .net 2003\vc7\include\vector
;	COMDAT ??Gconst_iterator@?$vector@V?$basic_string@DU?$char_traits@D@std@@V?$allocator@D@2@@std@@V?$allocator@V?$basic_string@DU?$char_traits@D@std@@V?$allocator@D@2@@std@@@2@@std@@QBEHABV012@@Z
_TEXT	SEGMENT
__Right$ = 8						; size = 4
??Gconst_iterator@?$vector@V?$basic_string@DU?$char_traits@D@std@@V?$allocator@D@2@@std@@V?$allocator@V?$basic_string@DU?$char_traits@D@std@@V?$allocator@D@2@@std@@@2@@std@@QBEHABV012@@Z PROC NEAR ; std::vector<std::basic_string<char,std::char_traits<char>,std::allocator<char> >,std::allocator<std::basic_string<char,std::char_traits<char>,std::allocator<char> > > >::const_iterator::operator-, COMDAT
; _this$ = ecx

; 141  : 
; 142  : 
; 143  : 			return (_Myptr - _Right._Myptr);

  00000	8b 44 24 04	 mov	 eax, DWORD PTR __Right$[esp-4]
  00004	8b 10		 mov	 edx, DWORD PTR [eax]
  00006	8b 09		 mov	 ecx, DWORD PTR [ecx]
  00008	2b ca		 sub	 ecx, edx
  0000a	b8 93 24 49 92	 mov	 eax, -1840700269	; 92492493H
  0000f	f7 e9		 imul	 ecx
  00011	03 d1		 add	 edx, ecx
  00013	c1 fa 04	 sar	 edx, 4
  00016	8b c2		 mov	 eax, edx
  00018	c1 e8 1f	 shr	 eax, 31			; 0000001fH
  0001b	03 c2		 add	 eax, edx

; 144  : 			}

  0001d	c2 04 00	 ret	 4
??Gconst_iterator@?$vector@V?$basic_string@DU?$char_traits@D@std@@V?$allocator@D@2@@std@@V?$allocator@V?$basic_string@DU?$char_traits@D@std@@V?$allocator@D@2@@std@@@2@@std@@QBEHABV012@@Z ENDP ; std::vector<std::basic_string<char,std::char_traits<char>,std::allocator<char> >,std::allocator<std::basic_string<char,std::char_traits<char>,std::allocator<char> > > >::const_iterator::operator-
_TEXT	ENDS
PUBLIC	??$_Allocate@V?$basic_string@DU?$char_traits@D@std@@V?$allocator@D@2@@std@@@std@@YAPAV?$basic_string@DU?$char_traits@D@std@@V?$allocator@D@2@@0@IPAV10@@Z ; std::_Allocate<std::basic_string<char,std::char_traits<char>,std::allocator<char> > >
EXTRN	??2@YAPAXI@Z:NEAR				; operator new
; Function compile flags: /Ogty
; File c:\program files\microsoft visual studio .net 2003\vc7\include\xmemory
;	COMDAT ??$_Allocate@V?$basic_string@DU?$char_traits@D@std@@V?$allocator@D@2@@std@@@std@@YAPAV?$basic_string@DU?$char_traits@D@std@@V?$allocator@D@2@@0@IPAV10@@Z
_TEXT	SEGMENT
__Count$ = 8						; size = 4
___formal$ = 12						; size = 4
??$_Allocate@V?$basic_string@DU?$char_traits@D@std@@V?$allocator@D@2@@std@@@std@@YAPAV?$basic_string@DU?$char_traits@D@std@@V?$allocator@D@2@@0@IPAV10@@Z PROC NEAR ; std::_Allocate<std::basic_string<char,std::char_traits<char>,std::allocator<char> > >, COMDAT

; 34   : 	return ((_Ty _FARQ *)operator new(_Count * sizeof (_Ty)));

  00000	8b 44 24 04	 mov	 eax, DWORD PTR __Count$[esp-4]
  00004	6b c0 1c	 imul	 eax, 28			; 0000001cH
  00007	50		 push	 eax
  00008	e8 00 00 00 00	 call	 ??2@YAPAXI@Z		; operator new
  0000d	83 c4 04	 add	 esp, 4

; 35   : 	}

  00010	c3		 ret	 0
??$_Allocate@V?$basic_string@DU?$char_traits@D@std@@V?$allocator@D@2@@std@@@std@@YAPAV?$basic_string@DU?$char_traits@D@std@@V?$allocator@D@2@@0@IPAV10@@Z ENDP ; std::_Allocate<std::basic_string<char,std::char_traits<char>,std::allocator<char> > >
_TEXT	ENDS
PUBLIC	??$_Iter_cat@Viterator@?$vector@V?$basic_string@DU?$char_traits@D@std@@V?$allocator@D@2@@std@@V?$allocator@V?$basic_string@DU?$char_traits@D@std@@V?$allocator@D@2@@std@@@2@@std@@@std@@YA?AUrandom_access_iterator_tag@0@ABViterator@?$vector@V?$basic_string@DU?$char_traits@D@std@@V?$allocator@D@2@@std@@V?$allocator@V?$basic_string@DU?$char_traits@D@std@@V?$allocator@D@2@@std@@@2@@0@@Z ; std::_Iter_cat<std::vector<std::basic_string<char,std::char_traits<char>,std::allocator<char> >,std::allocator<std::basic_string<char,std::char_traits<char>,std::allocator<char> > > >::iterator>
; Function compile flags: /Ogty
; File c:\program files\microsoft visual studio .net 2003\vc7\include\xutility
;	COMDAT ??$_Iter_cat@Viterator@?$vector@V?$basic_string@DU?$char_traits@D@std@@V?$allocator@D@2@@std@@V?$allocator@V?$basic_string@DU?$char_traits@D@std@@V?$allocator@D@2@@std@@@2@@std@@@std@@YA?AUrandom_access_iterator_tag@0@ABViterator@?$vector@V?$basic_string@DU?$char_traits@D@std@@V?$allocator@D@2@@std@@V?$allocator@V?$basic_string@DU?$char_traits@D@std@@V?$allocator@D@2@@std@@@2@@0@@Z
_TEXT	SEGMENT
___$ReturnUdt$ = 8					; size = 4
___formal$ = 12						; size = 4
??$_Iter_cat@Viterator@?$vector@V?$basic_string@DU?$char_traits@D@std@@V?$allocator@D@2@@std@@V?$allocator@V?$basic_string@DU?$char_traits@D@std@@V?$allocator@D@2@@std@@@2@@std@@@std@@YA?AUrandom_access_iterator_tag@0@ABViterator@?$vector@V?$basic_string@DU?$char_traits@D@std@@V?$allocator@D@2@@std@@V?$allocator@V?$basic_string@DU?$char_traits@D@std@@V?$allocator@D@2@@std@@@2@@0@@Z PROC NEAR ; std::_Iter_cat<std::vector<std::basic_string<char,std::char_traits<char>,std::allocator<char> >,std::allocator<std::basic_string<char,std::char_traits<char>,std::allocator<char> > > >::iterator>, COMDAT

; 202  : 	typename iterator_traits<_Iter>::iterator_category _Cat;
; 203  : 	return (_Cat);

  00000	8b 44 24 04	 mov	 eax, DWORD PTR ___$ReturnUdt$[esp-4]

; 204  : 	}

  00004	c3		 ret	 0
??$_Iter_cat@Viterator@?$vector@V?$basic_string@DU?$char_traits@D@std@@V?$allocator@D@2@@std@@V?$allocator@V?$basic_string@DU?$char_traits@D@std@@V?$allocator@D@2@@std@@@2@@std@@@std@@YA?AUrandom_access_iterator_tag@0@ABViterator@?$vector@V?$basic_string@DU?$char_traits@D@std@@V?$allocator@D@2@@std@@V?$allocator@V?$basic_string@DU?$char_traits@D@std@@V?$allocator@D@2@@std@@@2@@0@@Z ENDP ; std::_Iter_cat<std::vector<std::basic_string<char,std::char_traits<char>,std::allocator<char> >,std::allocator<std::basic_string<char,std::char_traits<char>,std::allocator<char> > > >::iterator>
_TEXT	ENDS
PUBLIC	??$_Ptr_cat@PAV?$basic_string@DU?$char_traits@D@std@@V?$allocator@D@2@@std@@PAV12@@std@@YA?AU_Nonscalar_ptr_iterator_tag@0@AAPAV?$basic_string@DU?$char_traits@D@std@@V?$allocator@D@2@@0@0@Z ; std::_Ptr_cat<std::basic_string<char,std::char_traits<char>,std::allocator<char> > *,std::basic_string<char,std::char_traits<char>,std::allocator<char> > *>
; Function compile flags: /Ogty
;	COMDAT ??$_Ptr_cat@PAV?$basic_string@DU?$char_traits@D@std@@V?$allocator@D@2@@std@@PAV12@@std@@YA?AU_Nonscalar_ptr_iterator_tag@0@AAPAV?$basic_string@DU?$char_traits@D@std@@V?$allocator@D@2@@0@0@Z
_TEXT	SEGMENT
__Cat$ = -1						; size = 1
___formal$ = 8						; size = 4
___formal$ = 12						; size = 4
??$_Ptr_cat@PAV?$basic_string@DU?$char_traits@D@std@@V?$allocator@D@2@@std@@PAV12@@std@@YA?AU_Nonscalar_ptr_iterator_tag@0@AAPAV?$basic_string@DU?$char_traits@D@std@@V?$allocator@D@2@@0@0@Z PROC NEAR ; std::_Ptr_cat<std::basic_string<char,std::char_traits<char>,std::allocator<char> > *,std::basic_string<char,std::char_traits<char>,std::allocator<char> > *>, COMDAT

; 211  : 	{	// return pointer category from arbitrary arguments

  00000	51		 push	 ecx

; 212  : 	_Nonscalar_ptr_iterator_tag _Cat;
; 213  : 	return (_Cat);

  00001	8a 44 24 03	 mov	 al, BYTE PTR __Cat$[esp+4]

; 214  : 	}

  00005	59		 pop	 ecx
  00006	c3		 ret	 0
??$_Ptr_cat@PAV?$basic_string@DU?$char_traits@D@std@@V?$allocator@D@2@@std@@PAV12@@std@@YA?AU_Nonscalar_ptr_iterator_tag@0@AAPAV?$basic_string@DU?$char_traits@D@std@@V?$allocator@D@2@@0@0@Z ENDP ; std::_Ptr_cat<std::basic_string<char,std::char_traits<char>,std::allocator<char> > *,std::basic_string<char,std::char_traits<char>,std::allocator<char> > *>
_TEXT	ENDS
PUBLIC	??8const_iterator@?$vector@V?$basic_string@DU?$char_traits@D@std@@V?$allocator@D@2@@std@@V?$allocator@V?$basic_string@DU?$char_traits@D@std@@V?$allocator@D@2@@std@@@2@@std@@QBE_NABV012@@Z ; std::vector<std::basic_string<char,std::char_traits<char>,std::allocator<char> >,std::allocator<std::basic_string<char,std::char_traits<char>,std::allocator<char> > > >::const_iterator::operator==
; Function compile flags: /Ogty
; File c:\program files\microsoft visual studio .net 2003\vc7\include\vector
;	COMDAT ??8const_iterator@?$vector@V?$basic_string@DU?$char_traits@D@std@@V?$allocator@D@2@@std@@V?$allocator@V?$basic_string@DU?$char_traits@D@std@@V?$allocator@D@2@@std@@@2@@std@@QBE_NABV012@@Z
_TEXT	SEGMENT
__Right$ = 8						; size = 4
??8const_iterator@?$vector@V?$basic_string@DU?$char_traits@D@std@@V?$allocator@D@2@@std@@V?$allocator@V?$basic_string@DU?$char_traits@D@std@@V?$allocator@D@2@@std@@@2@@std@@QBE_NABV012@@Z PROC NEAR ; std::vector<std::basic_string<char,std::char_traits<char>,std::allocator<char> >,std::allocator<std::basic_string<char,std::char_traits<char>,std::allocator<char> > > >::const_iterator::operator==, COMDAT
; _this$ = ecx

; 153  : 
; 154  : 
; 155  : 			return (_Myptr == _Right._Myptr);

  00000	8b 01		 mov	 eax, DWORD PTR [ecx]
  00002	8b 4c 24 04	 mov	 ecx, DWORD PTR __Right$[esp-4]
  00006	2b 01		 sub	 eax, DWORD PTR [ecx]
  00008	f7 d8		 neg	 eax
  0000a	1b c0		 sbb	 eax, eax
  0000c	40		 inc	 eax

; 156  : 			}

  0000d	c2 04 00	 ret	 4
??8const_iterator@?$vector@V?$basic_string@DU?$char_traits@D@std@@V?$allocator@D@2@@std@@V?$allocator@V?$basic_string@DU?$char_traits@D@std@@V?$allocator@D@2@@std@@@2@@std@@QBE_NABV012@@Z ENDP ; std::vector<std::basic_string<char,std::char_traits<char>,std::allocator<char> >,std::allocator<std::basic_string<char,std::char_traits<char>,std::allocator<char> > > >::const_iterator::operator==
_TEXT	ENDS
PUBLIC	??$_Ptr_cat@Vconst_iterator@?$vector@V?$basic_string@DU?$char_traits@D@std@@V?$allocator@D@2@@std@@V?$allocator@V?$basic_string@DU?$char_traits@D@std@@V?$allocator@D@2@@std@@@2@@std@@PAV?$basic_string@DU?$char_traits@D@std@@V?$allocator@D@2@@3@@std@@YA?AU_Nonscalar_ptr_iterator_tag@0@AAVconst_iterator@?$vector@V?$basic_string@DU?$char_traits@D@std@@V?$allocator@D@2@@std@@V?$allocator@V?$basic_string@DU?$char_traits@D@std@@V?$allocator@D@2@@std@@@2@@0@AAPAV?$basic_string@DU?$char_traits@D@std@@V?$allocator@D@2@@0@@Z ; std::_Ptr_cat<std::vector<std::basic_string<char,std::char_traits<char>,std::allocator<char> >,std::allocator<std::basic_string<char,std::char_traits<char>,std::allocator<char> > > >::const_iterator,std::basic_string<char,std::char_traits<char>,std::allocator<char> > *>
; Function compile flags: /Ogty
; File c:\program files\microsoft visual studio .net 2003\vc7\include\xutility
;	COMDAT ??$_Ptr_cat@Vconst_iterator@?$vector@V?$basic_string@DU?$char_traits@D@std@@V?$allocator@D@2@@std@@V?$allocator@V?$basic_string@DU?$char_traits@D@std@@V?$allocator@D@2@@std@@@2@@std@@PAV?$basic_string@DU?$char_traits@D@std@@V?$allocator@D@2@@3@@std@@YA?AU_Nonscalar_ptr_iterator_tag@0@AAVconst_iterator@?$vector@V?$basic_string@DU?$char_traits@D@std@@V?$allocator@D@2@@std@@V?$allocator@V?$basic_string@DU?$char_traits@D@std@@V?$allocator@D@2@@std@@@2@@0@AAPAV?$basic_string@DU?$char_traits@D@std@@V?$allocator@D@2@@0@@Z
_TEXT	SEGMENT
__Cat$ = -1						; size = 1
___formal$ = 8						; size = 4
___formal$ = 12						; size = 4
??$_Ptr_cat@Vconst_iterator@?$vector@V?$basic_string@DU?$char_traits@D@std@@V?$allocator@D@2@@std@@V?$allocator@V?$basic_string@DU?$char_traits@D@std@@V?$allocator@D@2@@std@@@2@@std@@PAV?$basic_string@DU?$char_traits@D@std@@V?$allocator@D@2@@3@@std@@YA?AU_Nonscalar_ptr_iterator_tag@0@AAVconst_iterator@?$vector@V?$basic_string@DU?$char_traits@D@std@@V?$allocator@D@2@@std@@V?$allocator@V?$basic_string@DU?$char_traits@D@std@@V?$allocator@D@2@@std@@@2@@0@AAPAV?$basic_string@DU?$char_traits@D@std@@V?$allocator@D@2@@0@@Z PROC NEAR ; std::_Ptr_cat<std::vector<std::basic_string<char,std::char_traits<char>,std::allocator<char> >,std::allocator<std::basic_string<char,std::char_traits<char>,std::allocator<char> > > >::const_iterator,std::basic_string<char,std::char_traits<char>,std::allocator<char> > *>, COMDAT

; 211  : 	{	// return pointer category from arbitrary arguments

  00000	51		 push	 ecx

; 212  : 	_Nonscalar_ptr_iterator_tag _Cat;
; 213  : 	return (_Cat);

  00001	8a 44 24 03	 mov	 al, BYTE PTR __Cat$[esp+4]

; 214  : 	}

  00005	59		 pop	 ecx
  00006	c3		 ret	 0
??$_Ptr_cat@Vconst_iterator@?$vector@V?$basic_string@DU?$char_traits@D@std@@V?$allocator@D@2@@std@@V?$allocator@V?$basic_string@DU?$char_traits@D@std@@V?$allocator@D@2@@std@@@2@@std@@PAV?$basic_string@DU?$char_traits@D@std@@V?$allocator@D@2@@3@@std@@YA?AU_Nonscalar_ptr_iterator_tag@0@AAVconst_iterator@?$vector@V?$basic_string@DU?$char_traits@D@std@@V?$allocator@D@2@@std@@V?$allocator@V?$basic_string@DU?$char_traits@D@std@@V?$allocator@D@2@@std@@@2@@0@AAPAV?$basic_string@DU?$char_traits@D@std@@V?$allocator@D@2@@0@@Z ENDP ; std::_Ptr_cat<std::vector<std::basic_string<char,std::char_traits<char>,std::allocator<char> >,std::allocator<std::basic_string<char,std::char_traits<char>,std::allocator<char> > > >::const_iterator,std::basic_string<char,std::char_traits<char>,std::allocator<char> > *>
_TEXT	ENDS
PUBLIC	??Econst_iterator@?$vector@V?$basic_string@DU?$char_traits@D@std@@V?$allocator@D@2@@std@@V?$allocator@V?$basic_string@DU?$char_traits@D@std@@V?$allocator@D@2@@std@@@2@@std@@QAEAAV012@XZ ; std::vector<std::basic_string<char,std::char_traits<char>,std::allocator<char> >,std::allocator<std::basic_string<char,std::char_traits<char>,std::allocator<char> > > >::const_iterator::operator++
; Function compile flags: /Ogty
; File c:\program files\microsoft visual studio .net 2003\vc7\include\vector
;	COMDAT ??Econst_iterator@?$vector@V?$basic_string@DU?$char_traits@D@std@@V?$allocator@D@2@@std@@V?$allocator@V?$basic_string@DU?$char_traits@D@std@@V?$allocator@D@2@@std@@@2@@std@@QAEAAV012@XZ
_TEXT	SEGMENT
??Econst_iterator@?$vector@V?$basic_string@DU?$char_traits@D@std@@V?$allocator@D@2@@std@@V?$allocator@V?$basic_string@DU?$char_traits@D@std@@V?$allocator@D@2@@std@@@2@@std@@QAEAAV012@XZ PROC NEAR ; std::vector<std::basic_string<char,std::char_traits<char>,std::allocator<char> >,std::allocator<std::basic_string<char,std::char_traits<char>,std::allocator<char> > > >::const_iterator::operator++, COMDAT
; _this$ = ecx

; 91   : 			{	// preincrement

  00000	8b c1		 mov	 eax, ecx

; 92   : 			++_Myptr;

  00002	83 00 1c	 add	 DWORD PTR [eax], 28	; 0000001cH

; 93   : 			return (*this);
; 94   : 			}

  00005	c3		 ret	 0
??Econst_iterator@?$vector@V?$basic_string@DU?$char_traits@D@std@@V?$allocator@D@2@@std@@V?$allocator@V?$basic_string@DU?$char_traits@D@std@@V?$allocator@D@2@@std@@@2@@std@@QAEAAV012@XZ ENDP ; std::vector<std::basic_string<char,std::char_traits<char>,std::allocator<char> >,std::allocator<std::basic_string<char,std::char_traits<char>,std::allocator<char> > > >::const_iterator::operator++
_TEXT	ENDS
PUBLIC	??$_Advance@Viterator@?$vector@V?$basic_string@DU?$char_traits@D@std@@V?$allocator@D@2@@std@@V?$allocator@V?$basic_string@DU?$char_traits@D@std@@V?$allocator@D@2@@std@@@2@@std@@H@std@@YAXAAViterator@?$vector@V?$basic_string@DU?$char_traits@D@std@@V?$allocator@D@2@@std@@V?$allocator@V?$basic_string@DU?$char_traits@D@std@@V?$allocator@D@2@@std@@@2@@0@HUrandom_access_iterator_tag@0@@Z ; std::_Advance<std::vector<std::basic_string<char,std::char_traits<char>,std::allocator<char> >,std::allocator<std::basic_string<char,std::char_traits<char>,std::allocator<char> > > >::iterator,int>
; Function compile flags: /Ogty
; File c:\program files\microsoft visual studio .net 2003\vc7\include\iterator
;	COMDAT ??$_Advance@Viterator@?$vector@V?$basic_string@DU?$char_traits@D@std@@V?$allocator@D@2@@std@@V?$allocator@V?$basic_string@DU?$char_traits@D@std@@V?$allocator@D@2@@std@@@2@@std@@H@std@@YAXAAViterator@?$vector@V?$basic_string@DU?$char_traits@D@std@@V?$allocator@D@2@@std@@V?$allocator@V?$basic_string@DU?$char_traits@D@std@@V?$allocator@D@2@@std@@@2@@0@HUrandom_access_iterator_tag@0@@Z
_TEXT	SEGMENT
__Where$ = 8						; size = 4
__Off$ = 12						; size = 4
___formal$ = 16						; size = 1
??$_Advance@Viterator@?$vector@V?$basic_string@DU?$char_traits@D@std@@V?$allocator@D@2@@std@@V?$allocator@V?$basic_string@DU?$char_traits@D@std@@V?$allocator@D@2@@std@@@2@@std@@H@std@@YAXAAViterator@?$vector@V?$basic_string@DU?$char_traits@D@std@@V?$allocator@D@2@@std@@V?$allocator@V?$basic_string@DU?$char_traits@D@std@@V?$allocator@D@2@@std@@@2@@0@HUrandom_access_iterator_tag@0@@Z PROC NEAR ; std::_Advance<std::vector<std::basic_string<char,std::char_traits<char>,std::allocator<char> >,std::allocator<std::basic_string<char,std::char_traits<char>,std::allocator<char> > > >::iterator,int>, COMDAT

; 324  : 	_Where += _Off;

  00000	8b 4c 24 08	 mov	 ecx, DWORD PTR __Off$[esp-4]
  00004	8b 44 24 04	 mov	 eax, DWORD PTR __Where$[esp-4]
  00008	6b c9 1c	 imul	 ecx, 28			; 0000001cH
  0000b	01 08		 add	 DWORD PTR [eax], ecx

; 325  : 	}

  0000d	c3		 ret	 0
??$_Advance@Viterator@?$vector@V?$basic_string@DU?$char_traits@D@std@@V?$allocator@D@2@@std@@V?$allocator@V?$basic_string@DU?$char_traits@D@std@@V?$allocator@D@2@@std@@@2@@std@@H@std@@YAXAAViterator@?$vector@V?$basic_string@DU?$char_traits@D@std@@V?$allocator@D@2@@std@@V?$allocator@V?$basic_string@DU?$char_traits@D@std@@V?$allocator@D@2@@std@@@2@@0@HUrandom_access_iterator_tag@0@@Z ENDP ; std::_Advance<std::vector<std::basic_string<char,std::char_traits<char>,std::allocator<char> >,std::allocator<std::basic_string<char,std::char_traits<char>,std::allocator<char> > > >::iterator,int>
_TEXT	ENDS
PUBLIC	??$_Ptr_cat@Viterator@?$vector@V?$basic_string@DU?$char_traits@D@std@@V?$allocator@D@2@@std@@V?$allocator@V?$basic_string@DU?$char_traits@D@std@@V?$allocator@D@2@@std@@@2@@std@@PAV?$basic_string@DU?$char_traits@D@std@@V?$allocator@D@2@@3@@std@@YA?AU_Nonscalar_ptr_iterator_tag@0@AAViterator@?$vector@V?$basic_string@DU?$char_traits@D@std@@V?$allocator@D@2@@std@@V?$allocator@V?$basic_string@DU?$char_traits@D@std@@V?$allocator@D@2@@std@@@2@@0@AAPAV?$basic_string@DU?$char_traits@D@std@@V?$allocator@D@2@@0@@Z ; std::_Ptr_cat<std::vector<std::basic_string<char,std::char_traits<char>,std::allocator<char> >,std::allocator<std::basic_string<char,std::char_traits<char>,std::allocator<char> > > >::iterator,std::basic_string<char,std::char_traits<char>,std::allocator<char> > *>
; Function compile flags: /Ogty
; File c:\program files\microsoft visual studio .net 2003\vc7\include\xutility
;	COMDAT ??$_Ptr_cat@Viterator@?$vector@V?$basic_string@DU?$char_traits@D@std@@V?$allocator@D@2@@std@@V?$allocator@V?$basic_string@DU?$char_traits@D@std@@V?$allocator@D@2@@std@@@2@@std@@PAV?$basic_string@DU?$char_traits@D@std@@V?$allocator@D@2@@3@@std@@YA?AU_Nonscalar_ptr_iterator_tag@0@AAViterator@?$vector@V?$basic_string@DU?$char_traits@D@std@@V?$allocator@D@2@@std@@V?$allocator@V?$basic_string@DU?$char_traits@D@std@@V?$allocator@D@2@@std@@@2@@0@AAPAV?$basic_string@DU?$char_traits@D@std@@V?$allocator@D@2@@0@@Z
_TEXT	SEGMENT
__Cat$ = -1						; size = 1
___formal$ = 8						; size = 4
___formal$ = 12						; size = 4
??$_Ptr_cat@Viterator@?$vector@V?$basic_string@DU?$char_traits@D@std@@V?$allocator@D@2@@std@@V?$allocator@V?$basic_string@DU?$char_traits@D@std@@V?$allocator@D@2@@std@@@2@@std@@PAV?$basic_string@DU?$char_traits@D@std@@V?$allocator@D@2@@3@@std@@YA?AU_Nonscalar_ptr_iterator_tag@0@AAViterator@?$vector@V?$basic_string@DU?$char_traits@D@std@@V?$allocator@D@2@@std@@V?$allocator@V?$basic_string@DU?$char_traits@D@std@@V?$allocator@D@2@@std@@@2@@0@AAPAV?$basic_string@DU?$char_traits@D@std@@V?$allocator@D@2@@0@@Z PROC NEAR ; std::_Ptr_cat<std::vector<std::basic_string<char,std::char_traits<char>,std::allocator<char> >,std::allocator<std::basic_string<char,std::char_traits<char>,std::allocator<char> > > >::iterator,std::basic_string<char,std::char_traits<char>,std::allocator<char> > *>, COMDAT

; 211  : 	{	// return pointer category from arbitrary arguments

  00000	51		 push	 ecx

; 212  : 	_Nonscalar_ptr_iterator_tag _Cat;
; 213  : 	return (_Cat);

  00001	8a 44 24 03	 mov	 al, BYTE PTR __Cat$[esp+4]

; 214  : 	}

  00005	59		 pop	 ecx
  00006	c3		 ret	 0
??$_Ptr_cat@Viterator@?$vector@V?$basic_string@DU?$char_traits@D@std@@V?$allocator@D@2@@std@@V?$allocator@V?$basic_string@DU?$char_traits@D@std@@V?$allocator@D@2@@std@@@2@@std@@PAV?$basic_string@DU?$char_traits@D@std@@V?$allocator@D@2@@3@@std@@YA?AU_Nonscalar_ptr_iterator_tag@0@AAViterator@?$vector@V?$basic_string@DU?$char_traits@D@std@@V?$allocator@D@2@@std@@V?$allocator@V?$basic_string@DU?$char_traits@D@std@@V?$allocator@D@2@@std@@@2@@0@AAPAV?$basic_string@DU?$char_traits@D@std@@V?$allocator@D@2@@0@@Z ENDP ; std::_Ptr_cat<std::vector<std::basic_string<char,std::char_traits<char>,std::allocator<char> >,std::allocator<std::basic_string<char,std::char_traits<char>,std::allocator<char> > > >::iterator,std::basic_string<char,std::char_traits<char>,std::allocator<char> > *>
_TEXT	ENDS
PUBLIC	??Eiterator@?$vector@V?$basic_string@DU?$char_traits@D@std@@V?$allocator@D@2@@std@@V?$allocator@V?$basic_string@DU?$char_traits@D@std@@V?$allocator@D@2@@std@@@2@@std@@QAEAAV012@XZ ; std::vector<std::basic_string<char,std::char_traits<char>,std::allocator<char> >,std::allocator<std::basic_string<char,std::char_traits<char>,std::allocator<char> > > >::iterator::operator++
; Function compile flags: /Ogty
; File c:\program files\microsoft visual studio .net 2003\vc7\include\vector
;	COMDAT ??Eiterator@?$vector@V?$basic_string@DU?$char_traits@D@std@@V?$allocator@D@2@@std@@V?$allocator@V?$basic_string@DU?$char_traits@D@std@@V?$allocator@D@2@@std@@@2@@std@@QAEAAV012@XZ
_TEXT	SEGMENT
??Eiterator@?$vector@V?$basic_string@DU?$char_traits@D@std@@V?$allocator@D@2@@std@@V?$allocator@V?$basic_string@DU?$char_traits@D@std@@V?$allocator@D@2@@std@@@2@@std@@QAEAAV012@XZ PROC NEAR ; std::vector<std::basic_string<char,std::char_traits<char>,std::allocator<char> >,std::allocator<std::basic_string<char,std::char_traits<char>,std::allocator<char> > > >::iterator::operator++, COMDAT
; _this$ = ecx

; 229  : 			{	// preincrement

  00000	8b c1		 mov	 eax, ecx

; 230  : 			++this->_Myptr;

  00002	83 00 1c	 add	 DWORD PTR [eax], 28	; 0000001cH

; 231  : 			return (*this);
; 232  : 			}

  00005	c3		 ret	 0
??Eiterator@?$vector@V?$basic_string@DU?$char_traits@D@std@@V?$allocator@D@2@@std@@V?$allocator@V?$basic_string@DU?$char_traits@D@std@@V?$allocator@D@2@@std@@@2@@std@@QAEAAV012@XZ ENDP ; std::vector<std::basic_string<char,std::char_traits<char>,std::allocator<char> >,std::allocator<std::basic_string<char,std::char_traits<char>,std::allocator<char> > > >::iterator::operator++
_TEXT	ENDS
PUBLIC	?assign@?$char_traits@D@std@@SAXAADABD@Z	; std::char_traits<char>::assign
; Function compile flags: /Ogty
; File c:\program files\microsoft visual studio .net 2003\vc7\include\iosfwd
;	COMDAT ?assign@?$char_traits@D@std@@SAXAADABD@Z
_TEXT	SEGMENT
__Left$ = 8						; size = 4
__Right$ = 12						; size = 4
?assign@?$char_traits@D@std@@SAXAADABD@Z PROC NEAR	; std::char_traits<char>::assign, COMDAT

; 331  : 		_Left = _Right;

  00000	8b 44 24 08	 mov	 eax, DWORD PTR __Right$[esp-4]
  00004	8a 08		 mov	 cl, BYTE PTR [eax]
  00006	8b 54 24 04	 mov	 edx, DWORD PTR __Left$[esp-4]
  0000a	88 0a		 mov	 BYTE PTR [edx], cl

; 332  : 		}

  0000c	c3		 ret	 0
?assign@?$char_traits@D@std@@SAXAADABD@Z ENDP		; std::char_traits<char>::assign
_TEXT	ENDS
PUBLIC	?compare@?$char_traits@D@std@@SAHPBD0I@Z	; std::char_traits<char>::compare
; Function compile flags: /Ogty
;	COMDAT ?compare@?$char_traits@D@std@@SAHPBD0I@Z
_TEXT	SEGMENT
__First1$ = 8						; size = 4
__First2$ = 12						; size = 4
__Count$ = 16						; size = 4
?compare@?$char_traits@D@std@@SAHPBD0I@Z PROC NEAR	; std::char_traits<char>::compare, COMDAT

; 347  : 		return (::memcmp(_First1, _First2, _Count));

  00000	8b 4c 24 0c	 mov	 ecx, DWORD PTR __Count$[esp-4]
  00004	56		 push	 esi
  00005	8b 74 24 08	 mov	 esi, DWORD PTR __First1$[esp]
  00009	57		 push	 edi
  0000a	8b 7c 24 10	 mov	 edi, DWORD PTR __First2$[esp+4]
  0000e	33 c0		 xor	 eax, eax
  00010	f3 a6		 repe cmpsb
  00012	5f		 pop	 edi
  00013	5e		 pop	 esi
  00014	74 05		 je	 SHORT $L228284
  00016	1b c0		 sbb	 eax, eax
  00018	83 d8 ff	 sbb	 eax, -1
$L228284:

; 348  : 		}

  0001b	c3		 ret	 0
?compare@?$char_traits@D@std@@SAHPBD0I@Z ENDP		; std::char_traits<char>::compare
_TEXT	ENDS
PUBLIC	?length@?$char_traits@D@std@@SAIPBD@Z		; std::char_traits<char>::length
; Function compile flags: /Ogty
;	COMDAT ?length@?$char_traits@D@std@@SAIPBD@Z
_TEXT	SEGMENT
__First$ = 8						; size = 4
?length@?$char_traits@D@std@@SAIPBD@Z PROC NEAR		; std::char_traits<char>::length, COMDAT

; 352  : 		return (::strlen(_First));

  00000	8b 44 24 04	 mov	 eax, DWORD PTR __First$[esp-4]
  00004	8d 50 01	 lea	 edx, DWORD PTR [eax+1]
$L228289:
  00007	8a 08		 mov	 cl, BYTE PTR [eax]
  00009	40		 inc	 eax
  0000a	84 c9		 test	 cl, cl
  0000c	75 f9		 jne	 SHORT $L228289
  0000e	2b c2		 sub	 eax, edx

; 353  : 		}

  00010	c3		 ret	 0
?length@?$char_traits@D@std@@SAIPBD@Z ENDP		; std::char_traits<char>::length
_TEXT	ENDS
PUBLIC	?copy@?$char_traits@D@std@@SAPADPADPBDI@Z	; std::char_traits<char>::copy
; Function compile flags: /Ogty
;	COMDAT ?copy@?$char_traits@D@std@@SAPADPADPBDI@Z
_TEXT	SEGMENT
__First1$ = 8						; size = 4
__First2$ = 12						; size = 4
__Count$ = 16						; size = 4
?copy@?$char_traits@D@std@@SAPADPADPBDI@Z PROC NEAR	; std::char_traits<char>::copy, COMDAT

; 358  : 		return ((_Elem *)::memcpy(_First1, _First2, _Count));

  00000	8b 4c 24 0c	 mov	 ecx, DWORD PTR __Count$[esp-4]
  00004	56		 push	 esi
  00005	8b 74 24 0c	 mov	 esi, DWORD PTR __First2$[esp]
  00009	57		 push	 edi
  0000a	8b 7c 24 0c	 mov	 edi, DWORD PTR __First1$[esp+4]
  0000e	8b c1		 mov	 eax, ecx
  00010	8b d7		 mov	 edx, edi
  00012	c1 e9 02	 shr	 ecx, 2
  00015	f3 a5		 rep movsd
  00017	8b c8		 mov	 ecx, eax
  00019	83 e1 03	 and	 ecx, 3
  0001c	f3 a4		 rep movsb
  0001e	5f		 pop	 edi
  0001f	8b c2		 mov	 eax, edx
  00021	5e		 pop	 esi

; 359  : 		}

  00022	c3		 ret	 0
?copy@?$char_traits@D@std@@SAPADPADPBDI@Z ENDP		; std::char_traits<char>::copy
_TEXT	ENDS
PUBLIC	?move@?$char_traits@D@std@@SAPADPADPBDI@Z	; std::char_traits<char>::move
EXTRN	_memmove:NEAR
; Function compile flags: /Ogty
;	COMDAT ?move@?$char_traits@D@std@@SAPADPADPBDI@Z
_TEXT	SEGMENT
__First1$ = 8						; size = 4
__First2$ = 12						; size = 4
__Count$ = 16						; size = 4
?move@?$char_traits@D@std@@SAPADPADPBDI@Z PROC NEAR	; std::char_traits<char>::move, COMDAT

; 370  : 		return ((_Elem *)::memmove(_First1, _First2, _Count));

  00000	e9 00 00 00 00	 jmp	 _memmove
?move@?$char_traits@D@std@@SAPADPADPBDI@Z ENDP		; std::char_traits<char>::move
_TEXT	ENDS
PUBLIC	?assign@?$char_traits@D@std@@SAPADPADID@Z	; std::char_traits<char>::assign
; Function compile flags: /Ogty
;	COMDAT ?assign@?$char_traits@D@std@@SAPADPADID@Z
_TEXT	SEGMENT
__First$ = 8						; size = 4
__Count$ = 12						; size = 4
__Ch$ = 16						; size = 1
?assign@?$char_traits@D@std@@SAPADPADID@Z PROC NEAR	; std::char_traits<char>::assign, COMDAT

; 375  : 		return ((_Elem *)::memset(_First, _Ch, _Count));

  00000	0f be 44 24 0c	 movsx	 eax, BYTE PTR __Ch$[esp-4]
  00005	8b 4c 24 08	 mov	 ecx, DWORD PTR __Count$[esp-4]
  00009	53		 push	 ebx
  0000a	8a d8		 mov	 bl, al
  0000c	8a fb		 mov	 bh, bl
  0000e	56		 push	 esi
  0000f	57		 push	 edi
  00010	8b 7c 24 10	 mov	 edi, DWORD PTR __First$[esp+8]
  00014	8b d1		 mov	 edx, ecx
  00016	8b f7		 mov	 esi, edi
  00018	c1 e9 02	 shr	 ecx, 2
  0001b	8b c3		 mov	 eax, ebx
  0001d	c1 e0 10	 shl	 eax, 16			; 00000010H
  00020	66 8b c3	 mov	 ax, bx
  00023	f3 ab		 rep stosd
  00025	8b ca		 mov	 ecx, edx
  00027	83 e1 03	 and	 ecx, 3
  0002a	f3 aa		 rep stosb
  0002c	5f		 pop	 edi
  0002d	8b c6		 mov	 eax, esi
  0002f	5e		 pop	 esi
  00030	5b		 pop	 ebx

; 376  : 		}

  00031	c3		 ret	 0
?assign@?$char_traits@D@std@@SAPADPADID@Z ENDP		; std::char_traits<char>::assign
_TEXT	ENDS
PUBLIC	?xRand@@YAKXZ					; xRand
EXTRN	?g_next@@3KA:DWORD				; g_next
; Function compile flags: /Ogty
; File c:\documents and settings\test\mes documents\source\virtuos_v17\build\program\_common\xutil.h
;	COMDAT ?xRand@@YAKXZ
_TEXT	SEGMENT
?xRand@@YAKXZ PROC NEAR					; xRand, COMDAT

; 16   : 	g_next = g_next * 1103515245 + 12345;// + nRandomSeed[ i++ ];

  00000	a1 00 00 00 00	 mov	 eax, DWORD PTR ?g_next@@3KA ; g_next
  00005	69 c0 6d 4e c6
	41		 imul	 eax, 1103515245		; 41c64e6dH
  0000b	05 39 30 00 00	 add	 eax, 12345		; 00003039H
  00010	a3 00 00 00 00	 mov	 DWORD PTR ?g_next@@3KA, eax ; g_next

; 17   : 	return g_next;	//   .
; 18   : }

  00015	c3		 ret	 0
?xRand@@YAKXZ ENDP					; xRand
_TEXT	ENDS
PUBLIC	?xRandom@@YAKK@Z				; xRandom
; Function compile flags: /Ogty
;	COMDAT ?xRandom@@YAKK@Z
_TEXT	SEGMENT
_num$ = 8						; size = 4
?xRandom@@YAKK@Z PROC NEAR				; xRandom, COMDAT

; 22   : 	return  xRand() % num;

  00000	a1 00 00 00 00	 mov	 eax, DWORD PTR ?g_next@@3KA ; g_next
  00005	69 c0 6d 4e c6
	41		 imul	 eax, 1103515245		; 41c64e6dH
  0000b	05 39 30 00 00	 add	 eax, 12345		; 00003039H
  00010	a3 00 00 00 00	 mov	 DWORD PTR ?g_next@@3KA, eax ; g_next
  00015	33 d2		 xor	 edx, edx
  00017	f7 74 24 04	 div	 DWORD PTR _num$[esp-4]
  0001b	8b c2		 mov	 eax, edx

; 23   : }

  0001d	c3		 ret	 0
?xRandom@@YAKK@Z ENDP					; xRandom
_TEXT	ENDS
PUBLIC	?size@?$basic_string@DU?$char_traits@D@std@@V?$allocator@D@2@@std@@QBEIXZ ; std::basic_string<char,std::char_traits<char>,std::allocator<char> >::size
; Function compile flags: /Ogty
; File c:\program files\microsoft visual studio .net 2003\vc7\include\xstring
;	COMDAT ?size@?$basic_string@DU?$char_traits@D@std@@V?$allocator@D@2@@std@@QBEIXZ
_TEXT	SEGMENT
?size@?$basic_string@DU?$char_traits@D@std@@V?$allocator@D@2@@std@@QBEIXZ PROC NEAR ; std::basic_string<char,std::char_traits<char>,std::allocator<char> >::size, COMDAT
; _this$ = ecx

; 1109 : 		return (_Mysize);

  00000	8b 41 14	 mov	 eax, DWORD PTR [ecx+20]

; 1110 : 		}

  00003	c3		 ret	 0
?size@?$basic_string@DU?$char_traits@D@std@@V?$allocator@D@2@@std@@QBEIXZ ENDP ; std::basic_string<char,std::char_traits<char>,std::allocator<char> >::size
_TEXT	ENDS
PUBLIC	?_Myptr@?$basic_string@DU?$char_traits@D@std@@V?$allocator@D@2@@std@@QBEPBDXZ ; std::basic_string<char,std::char_traits<char>,std::allocator<char> >::_Myptr
; Function compile flags: /Ogty
;	COMDAT ?_Myptr@?$basic_string@DU?$char_traits@D@std@@V?$allocator@D@2@@std@@QBEPBDXZ
_TEXT	SEGMENT
?_Myptr@?$basic_string@DU?$char_traits@D@std@@V?$allocator@D@2@@std@@QBEPBDXZ PROC NEAR ; std::basic_string<char,std::char_traits<char>,std::allocator<char> >::_Myptr, COMDAT
; _this$ = ecx

; 1537 : 		return (_BUF_SIZE <= _Myres ? _Bx._Ptr : _Bx._Buf);

  00000	83 79 18 10	 cmp	 DWORD PTR [ecx+24], 16	; 00000010H
  00004	72 04		 jb	 SHORT $L228315
  00006	8b 41 04	 mov	 eax, DWORD PTR [ecx+4]

; 1538 : 		}

  00009	c3		 ret	 0
$L228315:

; 1537 : 		return (_BUF_SIZE <= _Myres ? _Bx._Ptr : _Bx._Buf);

  0000a	8d 41 04	 lea	 eax, DWORD PTR [ecx+4]

; 1538 : 		}

  0000d	c3		 ret	 0
?_Myptr@?$basic_string@DU?$char_traits@D@std@@V?$allocator@D@2@@std@@QBEPBDXZ ENDP ; std::basic_string<char,std::char_traits<char>,std::allocator<char> >::_Myptr
_TEXT	ENDS
PUBLIC	??0?$allocator@D@std@@QAE@XZ			; std::allocator<char>::allocator<char>
; Function compile flags: /Ogty
; File c:\program files\microsoft visual studio .net 2003\vc7\include\xmemory
;	COMDAT ??0?$allocator@D@std@@QAE@XZ
_TEXT	SEGMENT
??0?$allocator@D@std@@QAE@XZ PROC NEAR			; std::allocator<char>::allocator<char>, COMDAT
; _this$ = ecx

; 111  : 	allocator()

  00000	8b c1		 mov	 eax, ecx

; 112  : 		{	// construct default allocator (do nothing)
; 113  : 		}

  00002	c3		 ret	 0
??0?$allocator@D@std@@QAE@XZ ENDP			; std::allocator<char>::allocator<char>
_TEXT	ENDS
PUBLIC	??0?$allocator@D@std@@QAE@ABV01@@Z		; std::allocator<char>::allocator<char>
; Function compile flags: /Ogty
;	COMDAT ??0?$allocator@D@std@@QAE@ABV01@@Z
_TEXT	SEGMENT
___formal$ = 8						; size = 4
??0?$allocator@D@std@@QAE@ABV01@@Z PROC NEAR		; std::allocator<char>::allocator<char>, COMDAT
; _this$ = ecx

; 115  : 	allocator(const allocator<_Ty>&)

  00000	8b c1		 mov	 eax, ecx

; 116  : 		{	// construct by copying (do nothing)
; 117  : 		}

  00002	c2 04 00	 ret	 4
??0?$allocator@D@std@@QAE@ABV01@@Z ENDP			; std::allocator<char>::allocator<char>
_TEXT	ENDS
PUBLIC	?_Myptr@?$basic_string@DU?$char_traits@D@std@@V?$allocator@D@2@@std@@QAEPADXZ ; std::basic_string<char,std::char_traits<char>,std::allocator<char> >::_Myptr
; Function compile flags: /Ogty
; File c:\program files\microsoft visual studio .net 2003\vc7\include\xstring
;	COMDAT ?_Myptr@?$basic_string@DU?$char_traits@D@std@@V?$allocator@D@2@@std@@QAEPADXZ
_TEXT	SEGMENT
?_Myptr@?$basic_string@DU?$char_traits@D@std@@V?$allocator@D@2@@std@@QAEPADXZ PROC NEAR ; std::basic_string<char,std::char_traits<char>,std::allocator<char> >::_Myptr, COMDAT
; _this$ = ecx

; 1532 : 		return (_BUF_SIZE <= _Myres ? _Bx._Ptr : _Bx._Buf);

  00000	83 79 18 10	 cmp	 DWORD PTR [ecx+24], 16	; 00000010H
  00004	72 04		 jb	 SHORT $L228326
  00006	8b 41 04	 mov	 eax, DWORD PTR [ecx+4]

; 1533 : 		}

  00009	c3		 ret	 0
$L228326:

; 1532 : 		return (_BUF_SIZE <= _Myres ? _Bx._Ptr : _Bx._Buf);

  0000a	8d 41 04	 lea	 eax, DWORD PTR [ecx+4]

; 1533 : 		}

  0000d	c3		 ret	 0
?_Myptr@?$basic_string@DU?$char_traits@D@std@@V?$allocator@D@2@@std@@QAEPADXZ ENDP ; std::basic_string<char,std::char_traits<char>,std::allocator<char> >::_Myptr
_TEXT	ENDS
PUBLIC	?deallocate@?$allocator@D@std@@QAEXPADI@Z	; std::allocator<char>::deallocate
; Function compile flags: /Ogty
; File c:\program files\microsoft visual studio .net 2003\vc7\include\xmemory
;	COMDAT ?deallocate@?$allocator@D@std@@QAEXPADI@Z
_TEXT	SEGMENT
__Ptr$ = 8						; size = 4
___formal$ = 12						; size = 4
?deallocate@?$allocator@D@std@@QAEXPADI@Z PROC NEAR	; std::allocator<char>::deallocate, COMDAT
; _this$ = ecx

; 132  : 		operator delete(_Ptr);

  00000	8b 44 24 04	 mov	 eax, DWORD PTR __Ptr$[esp-4]
  00004	50		 push	 eax
  00005	e8 00 00 00 00	 call	 ??3@YAXPAX@Z		; operator delete
  0000a	59		 pop	 ecx

; 133  : 		}

  0000b	c2 08 00	 ret	 8
?deallocate@?$allocator@D@std@@QAEXPADI@Z ENDP		; std::allocator<char>::deallocate
_TEXT	ENDS
PUBLIC	?_Inside@?$basic_string@DU?$char_traits@D@std@@V?$allocator@D@2@@std@@IAE_NPBD@Z ; std::basic_string<char,std::char_traits<char>,std::allocator<char> >::_Inside
; Function compile flags: /Ogty
; File c:\program files\microsoft visual studio .net 2003\vc7\include\xstring
;	COMDAT ?_Inside@?$basic_string@DU?$char_traits@D@std@@V?$allocator@D@2@@std@@IAE_NPBD@Z
_TEXT	SEGMENT
__Ptr$ = 8						; size = 4
?_Inside@?$basic_string@DU?$char_traits@D@std@@V?$allocator@D@2@@std@@IAE_NPBD@Z PROC NEAR ; std::basic_string<char,std::char_traits<char>,std::allocator<char> >::_Inside, COMDAT
; _this$ = ecx

; 1494 : 		{	// test if _Ptr points inside string

  00000	56		 push	 esi

; 1495 : 		if (_Ptr < _Myptr() || _Myptr() + _Mysize <= _Ptr)

  00001	8b 71 18	 mov	 esi, DWORD PTR [ecx+24]
  00004	83 fe 10	 cmp	 esi, 16			; 00000010H
  00007	57		 push	 edi
  00008	8d 41 04	 lea	 eax, DWORD PTR [ecx+4]
  0000b	72 04		 jb	 SHORT $L228339
  0000d	8b 10		 mov	 edx, DWORD PTR [eax]
  0000f	eb 02		 jmp	 SHORT $L228340
$L228339:
  00011	8b d0		 mov	 edx, eax
$L228340:
  00013	8b 7c 24 0c	 mov	 edi, DWORD PTR __Ptr$[esp+4]
  00017	3b fa		 cmp	 edi, edx
  00019	72 17		 jb	 SHORT $L222788
  0001b	83 fe 10	 cmp	 esi, 16			; 00000010H
  0001e	72 02		 jb	 SHORT $L228347
  00020	8b 00		 mov	 eax, DWORD PTR [eax]
$L228347:
  00022	8b 49 14	 mov	 ecx, DWORD PTR [ecx+20]
  00025	03 c8		 add	 ecx, eax
  00027	3b cf		 cmp	 ecx, edi
  00029	76 07		 jbe	 SHORT $L222788
  0002b	5f		 pop	 edi

; 1497 : 		else
; 1498 : 			return (true);

  0002c	b0 01		 mov	 al, 1
  0002e	5e		 pop	 esi

; 1499 : 		}

  0002f	c2 04 00	 ret	 4
$L222788:
  00032	5f		 pop	 edi

; 1496 : 			return (false);	// don't ask

  00033	32 c0		 xor	 al, al
  00035	5e		 pop	 esi

; 1499 : 		}

  00036	c2 04 00	 ret	 4
?_Inside@?$basic_string@DU?$char_traits@D@std@@V?$allocator@D@2@@std@@IAE_NPBD@Z ENDP ; std::basic_string<char,std::char_traits<char>,std::allocator<char> >::_Inside
_TEXT	ENDS
PUBLIC	?max_size@?$allocator@D@std@@QBEIXZ		; std::allocator<char>::max_size
; Function compile flags: /Ogty
; File c:\program files\microsoft visual studio .net 2003\vc7\include\xmemory
;	COMDAT ?max_size@?$allocator@D@std@@QBEIXZ
_TEXT	SEGMENT
?max_size@?$allocator@D@std@@QBEIXZ PROC NEAR		; std::allocator<char>::max_size, COMDAT
; _this$ = ecx

; 157  : 		_SIZT _Count = (_SIZT)(-1) / sizeof (_Ty);
; 158  : 		return (0 < _Count ? _Count : 1);

  00000	83 c8 ff	 or	 eax, -1

; 159  : 		}

  00003	c3		 ret	 0
?max_size@?$allocator@D@std@@QBEIXZ ENDP		; std::allocator<char>::max_size
_TEXT	ENDS
PUBLIC	??$_Allocate@D@std@@YAPADIPAD@Z			; std::_Allocate<char>
; Function compile flags: /Ogty
;	COMDAT ??$_Allocate@D@std@@YAPADIPAD@Z
_TEXT	SEGMENT
__Count$ = 8						; size = 4
___formal$ = 12						; size = 4
??$_Allocate@D@std@@YAPADIPAD@Z PROC NEAR		; std::_Allocate<char>, COMDAT

; 34   : 	return ((_Ty _FARQ *)operator new(_Count * sizeof (_Ty)));

  00000	8b 44 24 04	 mov	 eax, DWORD PTR __Count$[esp-4]
  00004	50		 push	 eax
  00005	e8 00 00 00 00	 call	 ??2@YAPAXI@Z		; operator new
  0000a	83 c4 04	 add	 esp, 4

; 35   : 	}

  0000d	c3		 ret	 0
??$_Allocate@D@std@@YAPADIPAD@Z ENDP			; std::_Allocate<char>
_TEXT	ENDS
PUBLIC	?compare@?$basic_string@DU?$char_traits@D@std@@V?$allocator@D@2@@std@@QBEHIIPBDI@Z ; std::basic_string<char,std::char_traits<char>,std::allocator<char> >::compare
EXTRN	?_Xran@_String_base@std@@QBEXXZ:NEAR		; std::_String_base::_Xran
; Function compile flags: /Ogty
; File c:\program files\microsoft visual studio .net 2003\vc7\include\xstring
;	COMDAT ?compare@?$basic_string@DU?$char_traits@D@std@@V?$allocator@D@2@@std@@QBEHIIPBDI@Z
_TEXT	SEGMENT
__Off$ = 8						; size = 4
__N0$ = 12						; size = 4
__Ptr$ = 16						; size = 4
__Count$ = 20						; size = 4
?compare@?$basic_string@DU?$char_traits@D@std@@V?$allocator@D@2@@std@@QBEHIIPBDI@Z PROC NEAR ; std::basic_string<char,std::char_traits<char>,std::allocator<char> >::compare, COMDAT
; _this$ = ecx

; 1412 : 		{	// compare [_Off, _Off + _N0) with [_Ptr, _Ptr + _Count)

  00000	53		 push	 ebx
  00001	55		 push	 ebp

; 1413 : 		if (_Mysize < _Off)

  00002	8b 6c 24 0c	 mov	 ebp, DWORD PTR __Off$[esp+4]
  00006	56		 push	 esi
  00007	8b f1		 mov	 esi, ecx
  00009	39 6e 14	 cmp	 DWORD PTR [esi+20], ebp
  0000c	73 05		 jae	 SHORT $L226236

; 1414 : 			_String_base::_Xran();	// _Off off end

  0000e	e8 00 00 00 00	 call	 ?_Xran@_String_base@std@@QBEXXZ ; std::_String_base::_Xran
$L226236:

; 1415 : 		if (_Mysize - _Off < _N0)

  00013	8b 46 14	 mov	 eax, DWORD PTR [esi+20]
  00016	8b 54 24 14	 mov	 edx, DWORD PTR __N0$[esp+8]
  0001a	2b c5		 sub	 eax, ebp
  0001c	3b c2		 cmp	 eax, edx
  0001e	73 02		 jae	 SHORT $L226237

; 1416 : 			_N0 = _Mysize - _Off;	// trim _N0 to size

  00020	8b d0		 mov	 edx, eax
$L226237:

; 1417 : 
; 1418 : 		size_type _Ans = _N0 == 0 ? 0
; 1419 : 			: _Traits::compare(_Myptr() + _Off, _Ptr,
; 1420 : 				_N0 < _Count ? _N0 : _Count);

  00022	85 d2		 test	 edx, edx
  00024	8b 5c 24 1c	 mov	 ebx, DWORD PTR __Count$[esp+8]
  00028	74 2e		 je	 SHORT $L228380
  0002a	3b d3		 cmp	 edx, ebx
  0002c	8b ca		 mov	 ecx, edx
  0002e	72 02		 jb	 SHORT $L228360
  00030	8b cb		 mov	 ecx, ebx
$L228360:
  00032	83 7e 18 10	 cmp	 DWORD PTR [esi+24], 16	; 00000010H
  00036	72 05		 jb	 SHORT $L228371
  00038	8b 46 04	 mov	 eax, DWORD PTR [esi+4]
  0003b	eb 03		 jmp	 SHORT $L228372
$L228371:
  0003d	8d 46 04	 lea	 eax, DWORD PTR [esi+4]
$L228372:
  00040	57		 push	 edi
  00041	8b 7c 24 1c	 mov	 edi, DWORD PTR __Ptr$[esp+12]
  00045	8d 34 28	 lea	 esi, DWORD PTR [eax+ebp]
  00048	33 c0		 xor	 eax, eax
  0004a	f3 a6		 repe cmpsb
  0004c	5f		 pop	 edi
  0004d	74 05		 je	 SHORT $L228379
  0004f	1b c0		 sbb	 eax, eax
  00051	83 d8 ff	 sbb	 eax, -1
$L228379:

; 1421 : 		return (_Ans != 0 ? (int)_Ans : _N0 < _Count ? -1
; 1422 : 			: _N0 == _Count ? 0 : +1);

  00054	85 c0		 test	 eax, eax
  00056	75 14		 jne	 SHORT $L228364
$L228380:
  00058	3b d3		 cmp	 edx, ebx
  0005a	73 09		 jae	 SHORT $L228363
  0005c	5e		 pop	 esi
  0005d	5d		 pop	 ebp
  0005e	83 c8 ff	 or	 eax, -1
  00061	5b		 pop	 ebx

; 1423 : 		}

  00062	c2 10 00	 ret	 16			; 00000010H
$L228363:

; 1421 : 		return (_Ans != 0 ? (int)_Ans : _N0 < _Count ? -1
; 1422 : 			: _N0 == _Count ? 0 : +1);

  00065	33 c0		 xor	 eax, eax
  00067	3b d3		 cmp	 edx, ebx
  00069	0f 95 c0	 setne	 al
$L228364:
  0006c	5e		 pop	 esi
  0006d	5d		 pop	 ebp
  0006e	5b		 pop	 ebx

; 1423 : 		}

  0006f	c2 10 00	 ret	 16			; 00000010H
?compare@?$basic_string@DU?$char_traits@D@std@@V?$allocator@D@2@@std@@QBEHIIPBDI@Z ENDP ; std::basic_string<char,std::char_traits<char>,std::allocator<char> >::compare
_TEXT	ENDS
PUBLIC	?begin@?$vector@V?$basic_string@DU?$char_traits@D@std@@V?$allocator@D@2@@std@@V?$allocator@V?$basic_string@DU?$char_traits@D@std@@V?$allocator@D@2@@std@@@2@@std@@QBE?AVconst_iterator@12@XZ ; std::vector<std::basic_string<char,std::char_traits<char>,std::allocator<char> >,std::allocator<std::basic_string<char,std::char_traits<char>,std::allocator<char> > > >::begin
; Function compile flags: /Ogty
; File c:\program files\microsoft visual studio .net 2003\vc7\include\vector
;	COMDAT ?begin@?$vector@V?$basic_string@DU?$char_traits@D@std@@V?$allocator@D@2@@std@@V?$allocator@V?$basic_string@DU?$char_traits@D@std@@V?$allocator@D@2@@std@@@2@@std@@QBE?AVconst_iterator@12@XZ
_TEXT	SEGMENT
___$ReturnUdt$ = 8					; size = 4
?begin@?$vector@V?$basic_string@DU?$char_traits@D@std@@V?$allocator@D@2@@std@@V?$allocator@V?$basic_string@DU?$char_traits@D@std@@V?$allocator@D@2@@std@@@2@@std@@QBE?AVconst_iterator@12@XZ PROC NEAR ; std::vector<std::basic_string<char,std::char_traits<char>,std::allocator<char> >,std::allocator<std::basic_string<char,std::char_traits<char>,std::allocator<char> > > >::begin, COMDAT
; _this$ = ecx

; 468  : 		return (const_iterator(_Myfirst));

  00000	8b 49 04	 mov	 ecx, DWORD PTR [ecx+4]
  00003	8b 44 24 04	 mov	 eax, DWORD PTR ___$ReturnUdt$[esp-4]
  00007	89 08		 mov	 DWORD PTR [eax], ecx

; 469  : 		}

  00009	c2 04 00	 ret	 4
?begin@?$vector@V?$basic_string@DU?$char_traits@D@std@@V?$allocator@D@2@@std@@V?$allocator@V?$basic_string@DU?$char_traits@D@std@@V?$allocator@D@2@@std@@@2@@std@@QBE?AVconst_iterator@12@XZ ENDP ; std::vector<std::basic_string<char,std::char_traits<char>,std::allocator<char> >,std::allocator<std::basic_string<char,std::char_traits<char>,std::allocator<char> > > >::begin
_TEXT	ENDS
PUBLIC	?end@?$vector@V?$basic_string@DU?$char_traits@D@std@@V?$allocator@D@2@@std@@V?$allocator@V?$basic_string@DU?$char_traits@D@std@@V?$allocator@D@2@@std@@@2@@std@@QBE?AVconst_iterator@12@XZ ; std::vector<std::basic_string<char,std::char_traits<char>,std::allocator<char> >,std::allocator<std::basic_string<char,std::char_traits<char>,std::allocator<char> > > >::end
; Function compile flags: /Ogty
;	COMDAT ?end@?$vector@V?$basic_string@DU?$char_traits@D@std@@V?$allocator@D@2@@std@@V?$allocator@V?$basic_string@DU?$char_traits@D@std@@V?$allocator@D@2@@std@@@2@@std@@QBE?AVconst_iterator@12@XZ
_TEXT	SEGMENT
___$ReturnUdt$ = 8					; size = 4
?end@?$vector@V?$basic_string@DU?$char_traits@D@std@@V?$allocator@D@2@@std@@V?$allocator@V?$basic_string@DU?$char_traits@D@std@@V?$allocator@D@2@@std@@@2@@std@@QBE?AVconst_iterator@12@XZ PROC NEAR ; std::vector<std::basic_string<char,std::char_traits<char>,std::allocator<char> >,std::allocator<std::basic_string<char,std::char_traits<char>,std::allocator<char> > > >::end, COMDAT
; _this$ = ecx

; 478  : 		return (const_iterator(_Mylast));

  00000	8b 49 08	 mov	 ecx, DWORD PTR [ecx+8]
  00003	8b 44 24 04	 mov	 eax, DWORD PTR ___$ReturnUdt$[esp-4]
  00007	89 08		 mov	 DWORD PTR [eax], ecx

; 479  : 		}

  00009	c2 04 00	 ret	 4
?end@?$vector@V?$basic_string@DU?$char_traits@D@std@@V?$allocator@D@2@@std@@V?$allocator@V?$basic_string@DU?$char_traits@D@std@@V?$allocator@D@2@@std@@@2@@std@@QBE?AVconst_iterator@12@XZ ENDP ; std::vector<std::basic_string<char,std::char_traits<char>,std::allocator<char> >,std::allocator<std::basic_string<char,std::char_traits<char>,std::allocator<char> > > >::end
_TEXT	ENDS
PUBLIC	??0iterator@?$vector@V?$basic_string@DU?$char_traits@D@std@@V?$allocator@D@2@@std@@V?$allocator@V?$basic_string@DU?$char_traits@D@std@@V?$allocator@D@2@@std@@@2@@std@@QAE@PAV?$basic_string@DU?$char_traits@D@std@@V?$allocator@D@2@@2@@Z ; std::vector<std::basic_string<char,std::char_traits<char>,std::allocator<char> >,std::allocator<std::basic_string<char,std::char_traits<char>,std::allocator<char> > > >::iterator::iterator
; Function compile flags: /Ogty
;	COMDAT ??0iterator@?$vector@V?$basic_string@DU?$char_traits@D@std@@V?$allocator@D@2@@std@@V?$allocator@V?$basic_string@DU?$char_traits@D@std@@V?$allocator@D@2@@std@@@2@@std@@QAE@PAV?$basic_string@DU?$char_traits@D@std@@V?$allocator@D@2@@2@@Z
_TEXT	SEGMENT
__Ptr$ = 8						; size = 4
??0iterator@?$vector@V?$basic_string@DU?$char_traits@D@std@@V?$allocator@D@2@@std@@V?$allocator@V?$basic_string@DU?$char_traits@D@std@@V?$allocator@D@2@@std@@@2@@std@@QAE@PAV?$basic_string@DU?$char_traits@D@std@@V?$allocator@D@2@@2@@Z PROC NEAR ; std::vector<std::basic_string<char,std::char_traits<char>,std::allocator<char> >,std::allocator<std::basic_string<char,std::char_traits<char>,std::allocator<char> > > >::iterator::iterator, COMDAT
; _this$ = ecx

; 215  : 			{	// construct with pointer _Ptr

  00000	8b c1		 mov	 eax, ecx
  00002	8b 4c 24 04	 mov	 ecx, DWORD PTR __Ptr$[esp-4]
  00006	89 08		 mov	 DWORD PTR [eax], ecx

; 216  : 			}

  00008	c2 04 00	 ret	 4
??0iterator@?$vector@V?$basic_string@DU?$char_traits@D@std@@V?$allocator@D@2@@std@@V?$allocator@V?$basic_string@DU?$char_traits@D@std@@V?$allocator@D@2@@std@@@2@@std@@QAE@PAV?$basic_string@DU?$char_traits@D@std@@V?$allocator@D@2@@2@@Z ENDP ; std::vector<std::basic_string<char,std::char_traits<char>,std::allocator<char> >,std::allocator<std::basic_string<char,std::char_traits<char>,std::allocator<char> > > >::iterator::iterator
_TEXT	ENDS
PUBLIC	??Diterator@?$vector@V?$basic_string@DU?$char_traits@D@std@@V?$allocator@D@2@@std@@V?$allocator@V?$basic_string@DU?$char_traits@D@std@@V?$allocator@D@2@@std@@@2@@std@@QBEAAV?$basic_string@DU?$char_traits@D@std@@V?$allocator@D@2@@2@XZ ; std::vector<std::basic_string<char,std::char_traits<char>,std::allocator<char> >,std::allocator<std::basic_string<char,std::char_traits<char>,std::allocator<char> > > >::iterator::operator*
; Function compile flags: /Ogty
;	COMDAT ??Diterator@?$vector@V?$basic_string@DU?$char_traits@D@std@@V?$allocator@D@2@@std@@V?$allocator@V?$basic_string@DU?$char_traits@D@std@@V?$allocator@D@2@@std@@@2@@std@@QBEAAV?$basic_string@DU?$char_traits@D@std@@V?$allocator@D@2@@2@XZ
_TEXT	SEGMENT
??Diterator@?$vector@V?$basic_string@DU?$char_traits@D@std@@V?$allocator@D@2@@std@@V?$allocator@V?$basic_string@DU?$char_traits@D@std@@V?$allocator@D@2@@std@@@2@@std@@QBEAAV?$basic_string@DU?$char_traits@D@std@@V?$allocator@D@2@@2@XZ PROC NEAR ; std::vector<std::basic_string<char,std::char_traits<char>,std::allocator<char> >,std::allocator<std::basic_string<char,std::char_traits<char>,std::allocator<char> > > >::iterator::operator*, COMDAT
; _this$ = ecx

; 220  : 			return ((reference)**(const_iterator *)this);

  00000	8b 01		 mov	 eax, DWORD PTR [ecx]

; 221  : 			}

  00002	c3		 ret	 0
??Diterator@?$vector@V?$basic_string@DU?$char_traits@D@std@@V?$allocator@D@2@@std@@V?$allocator@V?$basic_string@DU?$char_traits@D@std@@V?$allocator@D@2@@std@@@2@@std@@QBEAAV?$basic_string@DU?$char_traits@D@std@@V?$allocator@D@2@@2@XZ ENDP ; std::vector<std::basic_string<char,std::char_traits<char>,std::allocator<char> >,std::allocator<std::basic_string<char,std::char_traits<char>,std::allocator<char> > > >::iterator::operator*
_TEXT	ENDS
PUBLIC	??Hiterator@?$vector@V?$basic_string@DU?$char_traits@D@std@@V?$allocator@D@2@@std@@V?$allocator@V?$basic_string@DU?$char_traits@D@std@@V?$allocator@D@2@@std@@@2@@std@@QBE?AV012@H@Z ; std::vector<std::basic_string<char,std::char_traits<char>,std::allocator<char> >,std::allocator<std::basic_string<char,std::char_traits<char>,std::allocator<char> > > >::iterator::operator+
; Function compile flags: /Ogty
;	COMDAT ??Hiterator@?$vector@V?$basic_string@DU?$char_traits@D@std@@V?$allocator@D@2@@std@@V?$allocator@V?$basic_string@DU?$char_traits@D@std@@V?$allocator@D@2@@std@@@2@@std@@QBE?AV012@H@Z
_TEXT	SEGMENT
___$ReturnUdt$ = 8					; size = 4
__Off$ = 12						; size = 4
??Hiterator@?$vector@V?$basic_string@DU?$char_traits@D@std@@V?$allocator@D@2@@std@@V?$allocator@V?$basic_string@DU?$char_traits@D@std@@V?$allocator@D@2@@std@@@2@@std@@QBE?AV012@H@Z PROC NEAR ; std::vector<std::basic_string<char,std::char_traits<char>,std::allocator<char> >,std::allocator<std::basic_string<char,std::char_traits<char>,std::allocator<char> > > >::iterator::operator+, COMDAT
; _this$ = ecx

; 262  : 			iterator _Tmp = *this;
; 263  : 			return (_Tmp += _Off);

  00000	8b 54 24 08	 mov	 edx, DWORD PTR __Off$[esp-4]
  00004	8b 01		 mov	 eax, DWORD PTR [ecx]
  00006	6b d2 1c	 imul	 edx, 28			; 0000001cH
  00009	03 d0		 add	 edx, eax
  0000b	8b 44 24 04	 mov	 eax, DWORD PTR ___$ReturnUdt$[esp-4]
  0000f	89 10		 mov	 DWORD PTR [eax], edx

; 264  : 			}

  00011	c2 08 00	 ret	 8
??Hiterator@?$vector@V?$basic_string@DU?$char_traits@D@std@@V?$allocator@D@2@@std@@V?$allocator@V?$basic_string@DU?$char_traits@D@std@@V?$allocator@D@2@@std@@@2@@std@@QBE?AV012@H@Z ENDP ; std::vector<std::basic_string<char,std::char_traits<char>,std::allocator<char> >,std::allocator<std::basic_string<char,std::char_traits<char>,std::allocator<char> > > >::iterator::operator+
_TEXT	ENDS
PUBLIC	?allocate@?$allocator@V?$basic_string@DU?$char_traits@D@std@@V?$allocator@D@2@@std@@@std@@QAEPAV?$basic_string@DU?$char_traits@D@std@@V?$allocator@D@2@@2@I@Z ; std::allocator<std::basic_string<char,std::char_traits<char>,std::allocator<char> > >::allocate
; Function compile flags: /Ogty
; File c:\program files\microsoft visual studio .net 2003\vc7\include\xmemory
;	COMDAT ?allocate@?$allocator@V?$basic_string@DU?$char_traits@D@std@@V?$allocator@D@2@@std@@@std@@QAEPAV?$basic_string@DU?$char_traits@D@std@@V?$allocator@D@2@@2@I@Z
_TEXT	SEGMENT
__Count$ = 8						; size = 4
?allocate@?$allocator@V?$basic_string@DU?$char_traits@D@std@@V?$allocator@D@2@@std@@@std@@QAEPAV?$basic_string@DU?$char_traits@D@std@@V?$allocator@D@2@@2@I@Z PROC NEAR ; std::allocator<std::basic_string<char,std::char_traits<char>,std::allocator<char> > >::allocate, COMDAT
; _this$ = ecx

; 137  : 		return (_Allocate(_Count, (pointer)0));

  00000	8b 44 24 04	 mov	 eax, DWORD PTR __Count$[esp-4]
  00004	6b c0 1c	 imul	 eax, 28			; 0000001cH
  00007	50		 push	 eax
  00008	e8 00 00 00 00	 call	 ??2@YAPAXI@Z		; operator new
  0000d	83 c4 04	 add	 esp, 4

; 138  : 		}

  00010	c2 04 00	 ret	 4
?allocate@?$allocator@V?$basic_string@DU?$char_traits@D@std@@V?$allocator@D@2@@std@@@std@@QAEPAV?$basic_string@DU?$char_traits@D@std@@V?$allocator@D@2@@2@I@Z ENDP ; std::allocator<std::basic_string<char,std::char_traits<char>,std::allocator<char> > >::allocate
_TEXT	ENDS
PUBLIC	?max_size@?$vector@V?$basic_string@DU?$char_traits@D@std@@V?$allocator@D@2@@std@@V?$allocator@V?$basic_string@DU?$char_traits@D@std@@V?$allocator@D@2@@std@@@2@@std@@QBEIXZ ; std::vector<std::basic_string<char,std::char_traits<char>,std::allocator<char> >,std::allocator<std::basic_string<char,std::char_traits<char>,std::allocator<char> > > >::max_size
; Function compile flags: /Ogty
; File c:\program files\microsoft visual studio .net 2003\vc7\include\vector
;	COMDAT ?max_size@?$vector@V?$basic_string@DU?$char_traits@D@std@@V?$allocator@D@2@@std@@V?$allocator@V?$basic_string@DU?$char_traits@D@std@@V?$allocator@D@2@@std@@@2@@std@@QBEIXZ
_TEXT	SEGMENT
?max_size@?$vector@V?$basic_string@DU?$char_traits@D@std@@V?$allocator@D@2@@std@@V?$allocator@V?$basic_string@DU?$char_traits@D@std@@V?$allocator@D@2@@std@@@2@@std@@QBEIXZ PROC NEAR ; std::vector<std::basic_string<char,std::char_traits<char>,std::allocator<char> >,std::allocator<std::basic_string<char,std::char_traits<char>,std::allocator<char> > > >::max_size, COMDAT
; _this$ = ecx

; 521  : 		return (this->_Alval.max_size());

  00000	b8 49 92 24 09	 mov	 eax, 153391689		; 09249249H

; 522  : 		}

  00005	c3		 ret	 0
?max_size@?$vector@V?$basic_string@DU?$char_traits@D@std@@V?$allocator@D@2@@std@@V?$allocator@V?$basic_string@DU?$char_traits@D@std@@V?$allocator@D@2@@std@@@2@@std@@QBEIXZ ENDP ; std::vector<std::basic_string<char,std::char_traits<char>,std::allocator<char> >,std::allocator<std::basic_string<char,std::char_traits<char>,std::allocator<char> > > >::max_size
_TEXT	ENDS
PUBLIC	??Giterator@?$vector@V?$basic_string@DU?$char_traits@D@std@@V?$allocator@D@2@@std@@V?$allocator@V?$basic_string@DU?$char_traits@D@std@@V?$allocator@D@2@@std@@@2@@std@@QBEHABVconst_iterator@12@@Z ; std::vector<std::basic_string<char,std::char_traits<char>,std::allocator<char> >,std::allocator<std::basic_string<char,std::char_traits<char>,std::allocator<char> > > >::iterator::operator-
; Function compile flags: /Ogty
;	COMDAT ??Giterator@?$vector@V?$basic_string@DU?$char_traits@D@std@@V?$allocator@D@2@@std@@V?$allocator@V?$basic_string@DU?$char_traits@D@std@@V?$allocator@D@2@@std@@@2@@std@@QBEHABVconst_iterator@12@@Z
_TEXT	SEGMENT
__Right$ = 8						; size = 4
??Giterator@?$vector@V?$basic_string@DU?$char_traits@D@std@@V?$allocator@D@2@@std@@V?$allocator@V?$basic_string@DU?$char_traits@D@std@@V?$allocator@D@2@@std@@@2@@std@@QBEHABVconst_iterator@12@@Z PROC NEAR ; std::vector<std::basic_string<char,std::char_traits<char>,std::allocator<char> >,std::allocator<std::basic_string<char,std::char_traits<char>,std::allocator<char> > > >::iterator::operator-, COMDAT
; _this$ = ecx

; 279  : 			return ((const_iterator)*this - _Right);

  00000	8b 01		 mov	 eax, DWORD PTR [ecx]
  00002	8b 4c 24 04	 mov	 ecx, DWORD PTR __Right$[esp-4]
  00006	2b 01		 sub	 eax, DWORD PTR [ecx]
  00008	8b c8		 mov	 ecx, eax
  0000a	b8 93 24 49 92	 mov	 eax, -1840700269	; 92492493H
  0000f	f7 e9		 imul	 ecx
  00011	03 d1		 add	 edx, ecx
  00013	c1 fa 04	 sar	 edx, 4
  00016	8b c2		 mov	 eax, edx
  00018	c1 e8 1f	 shr	 eax, 31			; 0000001fH
  0001b	03 c2		 add	 eax, edx

; 280  : 			}

  0001d	c2 04 00	 ret	 4
??Giterator@?$vector@V?$basic_string@DU?$char_traits@D@std@@V?$allocator@D@2@@std@@V?$allocator@V?$basic_string@DU?$char_traits@D@std@@V?$allocator@D@2@@std@@@2@@std@@QBEHABVconst_iterator@12@@Z ENDP ; std::vector<std::basic_string<char,std::char_traits<char>,std::allocator<char> >,std::allocator<std::basic_string<char,std::char_traits<char>,std::allocator<char> > > >::iterator::operator-
_TEXT	ENDS
PUBLIC	??9const_iterator@?$vector@V?$basic_string@DU?$char_traits@D@std@@V?$allocator@D@2@@std@@V?$allocator@V?$basic_string@DU?$char_traits@D@std@@V?$allocator@D@2@@std@@@2@@std@@QBE_NABV012@@Z ; std::vector<std::basic_string<char,std::char_traits<char>,std::allocator<char> >,std::allocator<std::basic_string<char,std::char_traits<char>,std::allocator<char> > > >::const_iterator::operator!=
; Function compile flags: /Ogty
;	COMDAT ??9const_iterator@?$vector@V?$basic_string@DU?$char_traits@D@std@@V?$allocator@D@2@@std@@V?$allocator@V?$basic_string@DU?$char_traits@D@std@@V?$allocator@D@2@@std@@@2@@std@@QBE_NABV012@@Z
_TEXT	SEGMENT
__Right$ = 8						; size = 4
??9const_iterator@?$vector@V?$basic_string@DU?$char_traits@D@std@@V?$allocator@D@2@@std@@V?$allocator@V?$basic_string@DU?$char_traits@D@std@@V?$allocator@D@2@@std@@@2@@std@@QBE_NABV012@@Z PROC NEAR ; std::vector<std::basic_string<char,std::char_traits<char>,std::allocator<char> >,std::allocator<std::basic_string<char,std::char_traits<char>,std::allocator<char> > > >::const_iterator::operator!=, COMDAT
; _this$ = ecx

; 160  : 			return (!(*this == _Right));

  00000	8b 01		 mov	 eax, DWORD PTR [ecx]
  00002	8b 54 24 04	 mov	 edx, DWORD PTR __Right$[esp-4]
  00006	56		 push	 esi
  00007	8b 32		 mov	 esi, DWORD PTR [edx]
  00009	33 c9		 xor	 ecx, ecx
  0000b	3b c6		 cmp	 eax, esi
  0000d	0f 95 c1	 setne	 cl
  00010	8a c1		 mov	 al, cl
  00012	5e		 pop	 esi

; 161  : 			}

  00013	c2 04 00	 ret	 4
??9const_iterator@?$vector@V?$basic_string@DU?$char_traits@D@std@@V?$allocator@D@2@@std@@V?$allocator@V?$basic_string@DU?$char_traits@D@std@@V?$allocator@D@2@@std@@@2@@std@@QBE_NABV012@@Z ENDP ; std::vector<std::basic_string<char,std::char_traits<char>,std::allocator<char> >,std::allocator<std::basic_string<char,std::char_traits<char>,std::allocator<char> > > >::const_iterator::operator!=
_TEXT	ENDS
PUBLIC	??$advance@Viterator@?$vector@V?$basic_string@DU?$char_traits@D@std@@V?$allocator@D@2@@std@@V?$allocator@V?$basic_string@DU?$char_traits@D@std@@V?$allocator@D@2@@std@@@2@@std@@H@std@@YAXAAViterator@?$vector@V?$basic_string@DU?$char_traits@D@std@@V?$allocator@D@2@@std@@V?$allocator@V?$basic_string@DU?$char_traits@D@std@@V?$allocator@D@2@@std@@@2@@0@H@Z ; std::advance<std::vector<std::basic_string<char,std::char_traits<char>,std::allocator<char> >,std::allocator<std::basic_string<char,std::char_traits<char>,std::allocator<char> > > >::iterator,int>
; Function compile flags: /Ogty
; File c:\program files\microsoft visual studio .net 2003\vc7\include\iterator
;	COMDAT ??$advance@Viterator@?$vector@V?$basic_string@DU?$char_traits@D@std@@V?$allocator@D@2@@std@@V?$allocator@V?$basic_string@DU?$char_traits@D@std@@V?$allocator@D@2@@std@@@2@@std@@H@std@@YAXAAViterator@?$vector@V?$basic_string@DU?$char_traits@D@std@@V?$allocator@D@2@@std@@V?$allocator@V?$basic_string@DU?$char_traits@D@std@@V?$allocator@D@2@@std@@@2@@0@H@Z
_TEXT	SEGMENT
__Where$ = 8						; size = 4
__Off$ = 12						; size = 4
??$advance@Viterator@?$vector@V?$basic_string@DU?$char_traits@D@std@@V?$allocator@D@2@@std@@V?$allocator@V?$basic_string@DU?$char_traits@D@std@@V?$allocator@D@2@@std@@@2@@std@@H@std@@YAXAAViterator@?$vector@V?$basic_string@DU?$char_traits@D@std@@V?$allocator@D@2@@std@@V?$allocator@V?$basic_string@DU?$char_traits@D@std@@V?$allocator@D@2@@std@@@2@@0@H@Z PROC NEAR ; std::advance<std::vector<std::basic_string<char,std::char_traits<char>,std::allocator<char> >,std::allocator<std::basic_string<char,std::char_traits<char>,std::allocator<char> > > >::iterator,int>, COMDAT

; 295  : 	_Advance(_Where, _Off, _Iter_cat(_Where));

  00000	8b 4c 24 08	 mov	 ecx, DWORD PTR __Off$[esp-4]
  00004	8b 44 24 04	 mov	 eax, DWORD PTR __Where$[esp-4]
  00008	6b c9 1c	 imul	 ecx, 28			; 0000001cH
  0000b	01 08		 add	 DWORD PTR [eax], ecx

; 296  : 	}

  0000d	c3		 ret	 0
??$advance@Viterator@?$vector@V?$basic_string@DU?$char_traits@D@std@@V?$allocator@D@2@@std@@V?$allocator@V?$basic_string@DU?$char_traits@D@std@@V?$allocator@D@2@@std@@@2@@std@@H@std@@YAXAAViterator@?$vector@V?$basic_string@DU?$char_traits@D@std@@V?$allocator@D@2@@std@@V?$allocator@V?$basic_string@DU?$char_traits@D@std@@V?$allocator@D@2@@std@@@2@@0@H@Z ENDP ; std::advance<std::vector<std::basic_string<char,std::char_traits<char>,std::allocator<char> >,std::allocator<std::basic_string<char,std::char_traits<char>,std::allocator<char> > > >::iterator,int>
_TEXT	ENDS
PUBLIC	??$_Distance2@Viterator@?$vector@V?$basic_string@DU?$char_traits@D@std@@V?$allocator@D@2@@std@@V?$allocator@V?$basic_string@DU?$char_traits@D@std@@V?$allocator@D@2@@std@@@2@@std@@I@std@@YAXViterator@?$vector@V?$basic_string@DU?$char_traits@D@std@@V?$allocator@D@2@@std@@V?$allocator@V?$basic_string@DU?$char_traits@D@std@@V?$allocator@D@2@@std@@@2@@0@0AAIUrandom_access_iterator_tag@0@@Z ; std::_Distance2<std::vector<std::basic_string<char,std::char_traits<char>,std::allocator<char> >,std::allocator<std::basic_string<char,std::char_traits<char>,std::allocator<char> > > >::iterator,unsigned int>
; Function compile flags: /Ogty
; File c:\program files\microsoft visual studio .net 2003\vc7\include\xutility
;	COMDAT ??$_Distance2@Viterator@?$vector@V?$basic_string@DU?$char_traits@D@std@@V?$allocator@D@2@@std@@V?$allocator@V?$basic_string@DU?$char_traits@D@std@@V?$allocator@D@2@@std@@@2@@std@@I@std@@YAXViterator@?$vector@V?$basic_string@DU?$char_traits@D@std@@V?$allocator@D@2@@std@@V?$allocator@V?$basic_string@DU?$char_traits@D@std@@V?$allocator@D@2@@std@@@2@@0@0AAIUrandom_access_iterator_tag@0@@Z
_TEXT	SEGMENT
__First$ = 8						; size = 4
__Last$ = 12						; size = 4
__Off$ = 16						; size = 4
___formal$ = 20						; size = 1
??$_Distance2@Viterator@?$vector@V?$basic_string@DU?$char_traits@D@std@@V?$allocator@D@2@@std@@V?$allocator@V?$basic_string@DU?$char_traits@D@std@@V?$allocator@D@2@@std@@@2@@std@@I@std@@YAXViterator@?$vector@V?$basic_string@DU?$char_traits@D@std@@V?$allocator@D@2@@std@@V?$allocator@V?$basic_string@DU?$char_traits@D@std@@V?$allocator@D@2@@std@@@2@@0@0AAIUrandom_access_iterator_tag@0@@Z PROC NEAR ; std::_Distance2<std::vector<std::basic_string<char,std::char_traits<char>,std::allocator<char> >,std::allocator<std::basic_string<char,std::char_traits<char>,std::allocator<char> > > >::iterator,unsigned int>, COMDAT

; 479  : 
; 480  : 
; 481  : 	_Off += _Last - _First;

  00000	8b 54 24 04	 mov	 edx, DWORD PTR __First$[esp-4]
  00004	8b 4c 24 08	 mov	 ecx, DWORD PTR __Last$[esp-4]
  00008	2b ca		 sub	 ecx, edx
  0000a	b8 93 24 49 92	 mov	 eax, -1840700269	; 92492493H
  0000f	f7 e9		 imul	 ecx
  00011	8b 44 24 0c	 mov	 eax, DWORD PTR __Off$[esp-4]
  00015	03 d1		 add	 edx, ecx
  00017	c1 fa 04	 sar	 edx, 4
  0001a	8b ca		 mov	 ecx, edx
  0001c	c1 e9 1f	 shr	 ecx, 31			; 0000001fH
  0001f	03 ca		 add	 ecx, edx
  00021	01 08		 add	 DWORD PTR [eax], ecx

; 482  : 	}

  00023	c3		 ret	 0
??$_Distance2@Viterator@?$vector@V?$basic_string@DU?$char_traits@D@std@@V?$allocator@D@2@@std@@V?$allocator@V?$basic_string@DU?$char_traits@D@std@@V?$allocator@D@2@@std@@@2@@std@@I@std@@YAXViterator@?$vector@V?$basic_string@DU?$char_traits@D@std@@V?$allocator@D@2@@std@@V?$allocator@V?$basic_string@DU?$char_traits@D@std@@V?$allocator@D@2@@std@@@2@@0@0AAIUrandom_access_iterator_tag@0@@Z ENDP ; std::_Distance2<std::vector<std::basic_string<char,std::char_traits<char>,std::allocator<char> >,std::allocator<std::basic_string<char,std::char_traits<char>,std::allocator<char> > > >::iterator,unsigned int>
_TEXT	ENDS
PUBLIC	??0?$_String_val@DV?$allocator@D@std@@@std@@IAE@V?$allocator@D@1@@Z ; std::_String_val<char,std::allocator<char> >::_String_val<char,std::allocator<char> >
; Function compile flags: /Ogty
; File c:\program files\microsoft visual studio .net 2003\vc7\include\xstring
;	COMDAT ??0?$_String_val@DV?$allocator@D@std@@@std@@IAE@V?$allocator@D@1@@Z
_TEXT	SEGMENT
__Al$ = 8						; size = 1
??0?$_String_val@DV?$allocator@D@std@@@std@@IAE@V?$allocator@D@1@@Z PROC NEAR ; std::_String_val<char,std::allocator<char> >::_String_val<char,std::allocator<char> >, COMDAT
; _this$ = ecx

; 34   : 		{	// construct allocator from _Al

  00000	8b c1		 mov	 eax, ecx

; 35   : 		}

  00002	c2 04 00	 ret	 4
??0?$_String_val@DV?$allocator@D@std@@@std@@IAE@V?$allocator@D@1@@Z ENDP ; std::_String_val<char,std::allocator<char> >::_String_val<char,std::allocator<char> >
_TEXT	ENDS
PUBLIC	?_Eos@?$basic_string@DU?$char_traits@D@std@@V?$allocator@D@2@@std@@IAEXI@Z ; std::basic_string<char,std::char_traits<char>,std::allocator<char> >::_Eos
; Function compile flags: /Ogty
;	COMDAT ?_Eos@?$basic_string@DU?$char_traits@D@std@@V?$allocator@D@2@@std@@IAEXI@Z
_TEXT	SEGMENT
__Newsize$ = 8						; size = 4
?_Eos@?$basic_string@DU?$char_traits@D@std@@V?$allocator@D@2@@std@@IAEXI@Z PROC NEAR ; std::basic_string<char,std::char_traits<char>,std::allocator<char> >::_Eos, COMDAT
; _this$ = ecx

; 1475 : 		_Traits::assign(_Myptr()[_Mysize = _Newsize], _Elem());

  00000	83 79 18 10	 cmp	 DWORD PTR [ecx+24], 16	; 00000010H
  00004	8b 44 24 04	 mov	 eax, DWORD PTR __Newsize$[esp-4]
  00008	89 41 14	 mov	 DWORD PTR [ecx+20], eax
  0000b	72 0a		 jb	 SHORT $L228488
  0000d	8b 49 04	 mov	 ecx, DWORD PTR [ecx+4]
  00010	c6 04 01 00	 mov	 BYTE PTR [ecx+eax], 0

; 1476 : 		}

  00014	c2 04 00	 ret	 4

; 1475 : 		_Traits::assign(_Myptr()[_Mysize = _Newsize], _Elem());

$L228488:
  00017	c6 44 01 04 00	 mov	 BYTE PTR [ecx+eax+4], 0

; 1476 : 		}

  0001c	c2 04 00	 ret	 4
?_Eos@?$basic_string@DU?$char_traits@D@std@@V?$allocator@D@2@@std@@IAEXI@Z ENDP ; std::basic_string<char,std::char_traits<char>,std::allocator<char> >::_Eos
_TEXT	ENDS
PUBLIC	?max_size@?$basic_string@DU?$char_traits@D@std@@V?$allocator@D@2@@std@@QBEIXZ ; std::basic_string<char,std::char_traits<char>,std::allocator<char> >::max_size
; Function compile flags: /Ogty
;	COMDAT ?max_size@?$basic_string@DU?$char_traits@D@std@@V?$allocator@D@2@@std@@QBEIXZ
_TEXT	SEGMENT
?max_size@?$basic_string@DU?$char_traits@D@std@@V?$allocator@D@2@@std@@QBEIXZ PROC NEAR ; std::basic_string<char,std::char_traits<char>,std::allocator<char> >::max_size, COMDAT
; _this$ = ecx

; 1114 : 		size_type _Num = _Mybase::_Alval.max_size();
; 1115 : 		return (_Num <= 1 ? 1 : _Num - 1);

  00000	b8 fe ff ff ff	 mov	 eax, -2			; fffffffeH

; 1116 : 		}

  00005	c3		 ret	 0
?max_size@?$basic_string@DU?$char_traits@D@std@@V?$allocator@D@2@@std@@QBEIXZ ENDP ; std::basic_string<char,std::char_traits<char>,std::allocator<char> >::max_size
_TEXT	ENDS
PUBLIC	?allocate@?$allocator@D@std@@QAEPADI@Z		; std::allocator<char>::allocate
; Function compile flags: /Ogty
; File c:\program files\microsoft visual studio .net 2003\vc7\include\xmemory
;	COMDAT ?allocate@?$allocator@D@std@@QAEPADI@Z
_TEXT	SEGMENT
__Count$ = 8						; size = 4
?allocate@?$allocator@D@std@@QAEPADI@Z PROC NEAR	; std::allocator<char>::allocate, COMDAT
; _this$ = ecx

; 137  : 		return (_Allocate(_Count, (pointer)0));

  00000	8b 44 24 04	 mov	 eax, DWORD PTR __Count$[esp-4]
  00004	50		 push	 eax
  00005	e8 00 00 00 00	 call	 ??2@YAPAXI@Z		; operator new
  0000a	83 c4 04	 add	 esp, 4

; 138  : 		}

  0000d	c2 04 00	 ret	 4
?allocate@?$allocator@D@std@@QAEPADI@Z ENDP		; std::allocator<char>::allocate
_TEXT	ENDS
EXTRN	?CheckBuf@CAr@@QAEXI@Z:NEAR			; CAr::CheckBuf
; Function compile flags: /Ogty
; File c:\documents and settings\test\mes documents\source\virtuos_v17\build\program\_common\minigamebase.h
;	COMDAT ?Serialize@__MINIGAME_PACKET@@UAEXAAVCAr@@@Z
_TEXT	SEGMENT
_ar$ = 8						; size = 4
?Serialize@__MINIGAME_PACKET@@UAEXAAVCAr@@@Z PROC NEAR	; __MINIGAME_PACKET::Serialize, COMDAT
; _this$ = ecx

; 16   : 	{

  00000	53		 push	 ebx
  00001	55		 push	 ebp
  00002	56		 push	 esi

; 17   : 		if( ar.IsStoring() )

  00003	8b 74 24 10	 mov	 esi, DWORD PTR _ar$[esp+8]
  00007	33 c0		 xor	 eax, eax
  00009	8a 06		 mov	 al, BYTE PTR [esi]
  0000b	57		 push	 edi
  0000c	8b f9		 mov	 edi, ecx
  0000e	f7 d0		 not	 eax
  00010	a8 01		 test	 al, 1
  00012	74 66		 je	 SHORT $L225629

; 18   : 			ar << wNowGame << nState << nParam1 << nParam2;

  00014	66 8b 5f 04	 mov	 bx, WORD PTR [edi+4]
  00018	6a 02		 push	 2
  0001a	8b ce		 mov	 ecx, esi
  0001c	e8 00 00 00 00	 call	 ?CheckBuf@CAr@@QAEXI@Z	; CAr::CheckBuf
  00021	8b 4e 08	 mov	 ecx, DWORD PTR [esi+8]
  00024	66 89 19	 mov	 WORD PTR [ecx], bx
  00027	8b 5e 08	 mov	 ebx, DWORD PTR [esi+8]
  0002a	83 c3 02	 add	 ebx, 2
  0002d	bd 04 00 00 00	 mov	 ebp, 4
  00032	89 5e 08	 mov	 DWORD PTR [esi+8], ebx
  00035	8b 5f 08	 mov	 ebx, DWORD PTR [edi+8]
  00038	55		 push	 ebp
  00039	8b ce		 mov	 ecx, esi
  0003b	e8 00 00 00 00	 call	 ?CheckBuf@CAr@@QAEXI@Z	; CAr::CheckBuf
  00040	8b 56 08	 mov	 edx, DWORD PTR [esi+8]
  00043	89 1a		 mov	 DWORD PTR [edx], ebx
  00045	01 6e 08	 add	 DWORD PTR [esi+8], ebp
  00048	8b 5f 0c	 mov	 ebx, DWORD PTR [edi+12]
  0004b	55		 push	 ebp
  0004c	8b ce		 mov	 ecx, esi
  0004e	e8 00 00 00 00	 call	 ?CheckBuf@CAr@@QAEXI@Z	; CAr::CheckBuf
  00053	8b 46 08	 mov	 eax, DWORD PTR [esi+8]
  00056	89 18		 mov	 DWORD PTR [eax], ebx
  00058	01 6e 08	 add	 DWORD PTR [esi+8], ebp
  0005b	8b 7f 10	 mov	 edi, DWORD PTR [edi+16]
  0005e	55		 push	 ebp
  0005f	8b ce		 mov	 ecx, esi
  00061	e8 00 00 00 00	 call	 ?CheckBuf@CAr@@QAEXI@Z	; CAr::CheckBuf
  00066	8b 4e 08	 mov	 ecx, DWORD PTR [esi+8]
  00069	89 39		 mov	 DWORD PTR [ecx], edi
  0006b	8b 46 08	 mov	 eax, DWORD PTR [esi+8]
  0006e	03 c5		 add	 eax, ebp
  00070	5f		 pop	 edi
  00071	89 46 08	 mov	 DWORD PTR [esi+8], eax
  00074	5e		 pop	 esi
  00075	5d		 pop	 ebp
  00076	5b		 pop	 ebx

; 21   : 	}

  00077	c2 04 00	 ret	 4
$L225629:

; 19   : 		else
; 20   : 			ar >> wNowGame >> nState >> nParam1 >> nParam2;

  0007a	8b 46 08	 mov	 eax, DWORD PTR [esi+8]
  0007d	8b 5e 0c	 mov	 ebx, DWORD PTR [esi+12]
  00080	8d 50 02	 lea	 edx, DWORD PTR [eax+2]
  00083	33 c9		 xor	 ecx, ecx
  00085	3b d3		 cmp	 edx, ebx
  00087	77 0d		 ja	 SHORT $L228553
  00089	66 8b 00	 mov	 ax, WORD PTR [eax]
  0008c	66 89 47 04	 mov	 WORD PTR [edi+4], ax
  00090	83 46 08 02	 add	 DWORD PTR [esi+8], 2
  00094	eb 0a		 jmp	 SHORT $L228554
$L228553:
  00096	66 89 4f 04	 mov	 WORD PTR [edi+4], cx
  0009a	8b 56 0c	 mov	 edx, DWORD PTR [esi+12]
  0009d	89 56 08	 mov	 DWORD PTR [esi+8], edx
$L228554:
  000a0	8b 46 08	 mov	 eax, DWORD PTR [esi+8]
  000a3	8b 5e 0c	 mov	 ebx, DWORD PTR [esi+12]
  000a6	8d 50 04	 lea	 edx, DWORD PTR [eax+4]
  000a9	3b d3		 cmp	 edx, ebx
  000ab	bd 04 00 00 00	 mov	 ebp, 4
  000b0	77 0a		 ja	 SHORT $L228565
  000b2	8b 00		 mov	 eax, DWORD PTR [eax]
  000b4	89 47 08	 mov	 DWORD PTR [edi+8], eax
  000b7	01 6e 08	 add	 DWORD PTR [esi+8], ebp
  000ba	eb 09		 jmp	 SHORT $L228566
$L228565:
  000bc	89 4f 08	 mov	 DWORD PTR [edi+8], ecx
  000bf	8b 56 0c	 mov	 edx, DWORD PTR [esi+12]
  000c2	89 56 08	 mov	 DWORD PTR [esi+8], edx
$L228566:
  000c5	8b 46 08	 mov	 eax, DWORD PTR [esi+8]
  000c8	8b 5e 0c	 mov	 ebx, DWORD PTR [esi+12]
  000cb	8d 50 04	 lea	 edx, DWORD PTR [eax+4]
  000ce	3b d3		 cmp	 edx, ebx
  000d0	77 0a		 ja	 SHORT $L228578
  000d2	8b 00		 mov	 eax, DWORD PTR [eax]
  000d4	89 47 0c	 mov	 DWORD PTR [edi+12], eax
  000d7	01 6e 08	 add	 DWORD PTR [esi+8], ebp
  000da	eb 09		 jmp	 SHORT $L228579
$L228578:
  000dc	89 4f 0c	 mov	 DWORD PTR [edi+12], ecx
  000df	8b 56 0c	 mov	 edx, DWORD PTR [esi+12]
  000e2	89 56 08	 mov	 DWORD PTR [esi+8], edx
$L228579:
  000e5	8b 46 08	 mov	 eax, DWORD PTR [esi+8]
  000e8	8b 5e 0c	 mov	 ebx, DWORD PTR [esi+12]
  000eb	8d 50 04	 lea	 edx, DWORD PTR [eax+4]
  000ee	3b d3		 cmp	 edx, ebx
  000f0	77 14		 ja	 SHORT $L228591
  000f2	8b 00		 mov	 eax, DWORD PTR [eax]
  000f4	89 47 10	 mov	 DWORD PTR [edi+16], eax
  000f7	8b 46 08	 mov	 eax, DWORD PTR [esi+8]
  000fa	03 c5		 add	 eax, ebp
  000fc	5f		 pop	 edi
  000fd	89 46 08	 mov	 DWORD PTR [esi+8], eax
  00100	5e		 pop	 esi
  00101	5d		 pop	 ebp
  00102	5b		 pop	 ebx

; 21   : 	}

  00103	c2 04 00	 ret	 4

; 19   : 		else
; 20   : 			ar >> wNowGame >> nState >> nParam1 >> nParam2;

$L228591:
  00106	89 4f 10	 mov	 DWORD PTR [edi+16], ecx
  00109	8b 4e 0c	 mov	 ecx, DWORD PTR [esi+12]
  0010c	5f		 pop	 edi
  0010d	89 4e 08	 mov	 DWORD PTR [esi+8], ecx
  00110	5e		 pop	 esi
  00111	5d		 pop	 ebp
  00112	5b		 pop	 ebx

; 21   : 	}

  00113	c2 04 00	 ret	 4
?Serialize@__MINIGAME_PACKET@@UAEXAAVCAr@@@Z ENDP	; __MINIGAME_PACKET::Serialize
_TEXT	ENDS
PUBLIC	?compare@?$basic_string@DU?$char_traits@D@std@@V?$allocator@D@2@@std@@QBEHABV12@@Z ; std::basic_string<char,std::char_traits<char>,std::allocator<char> >::compare
; Function compile flags: /Ogty
; File c:\program files\microsoft visual studio .net 2003\vc7\include\xstring
;	COMDAT ?compare@?$basic_string@DU?$char_traits@D@std@@V?$allocator@D@2@@std@@QBEHABV12@@Z
_TEXT	SEGMENT
__Right$ = 8						; size = 4
?compare@?$basic_string@DU?$char_traits@D@std@@V?$allocator@D@2@@std@@QBEHABV12@@Z PROC NEAR ; std::basic_string<char,std::char_traits<char>,std::allocator<char> >::compare, COMDAT
; _this$ = ecx

; 1380 : 		return (compare(0, _Mysize, _Right._Myptr(), _Right.size()));

  00000	8b 44 24 04	 mov	 eax, DWORD PTR __Right$[esp-4]
  00004	8b 50 14	 mov	 edx, DWORD PTR [eax+20]
  00007	83 78 18 10	 cmp	 DWORD PTR [eax+24], 16	; 00000010H
  0000b	72 13		 jb	 SHORT $L228606
  0000d	8b 40 04	 mov	 eax, DWORD PTR [eax+4]
  00010	52		 push	 edx
  00011	50		 push	 eax
  00012	8b 41 14	 mov	 eax, DWORD PTR [ecx+20]
  00015	50		 push	 eax
  00016	6a 00		 push	 0
  00018	e8 00 00 00 00	 call	 ?compare@?$basic_string@DU?$char_traits@D@std@@V?$allocator@D@2@@std@@QBEHIIPBDI@Z ; std::basic_string<char,std::char_traits<char>,std::allocator<char> >::compare

; 1381 : 		}

  0001d	c2 04 00	 ret	 4

; 1380 : 		return (compare(0, _Mysize, _Right._Myptr(), _Right.size()));

$L228606:
  00020	52		 push	 edx
  00021	83 c0 04	 add	 eax, 4
  00024	50		 push	 eax
  00025	8b 41 14	 mov	 eax, DWORD PTR [ecx+20]
  00028	50		 push	 eax
  00029	6a 00		 push	 0
  0002b	e8 00 00 00 00	 call	 ?compare@?$basic_string@DU?$char_traits@D@std@@V?$allocator@D@2@@std@@QBEHIIPBDI@Z ; std::basic_string<char,std::char_traits<char>,std::allocator<char> >::compare

; 1381 : 		}

  00030	c2 04 00	 ret	 4
?compare@?$basic_string@DU?$char_traits@D@std@@V?$allocator@D@2@@std@@QBEHABV12@@Z ENDP ; std::basic_string<char,std::char_traits<char>,std::allocator<char> >::compare
_TEXT	ENDS
PUBLIC	?begin@?$vector@V?$basic_string@DU?$char_traits@D@std@@V?$allocator@D@2@@std@@V?$allocator@V?$basic_string@DU?$char_traits@D@std@@V?$allocator@D@2@@std@@@2@@std@@QAE?AViterator@12@XZ ; std::vector<std::basic_string<char,std::char_traits<char>,std::allocator<char> >,std::allocator<std::basic_string<char,std::char_traits<char>,std::allocator<char> > > >::begin
; Function compile flags: /Ogty
; File c:\program files\microsoft visual studio .net 2003\vc7\include\vector
;	COMDAT ?begin@?$vector@V?$basic_string@DU?$char_traits@D@std@@V?$allocator@D@2@@std@@V?$allocator@V?$basic_string@DU?$char_traits@D@std@@V?$allocator@D@2@@std@@@2@@std@@QAE?AViterator@12@XZ
_TEXT	SEGMENT
___$ReturnUdt$ = 8					; size = 4
?begin@?$vector@V?$basic_string@DU?$char_traits@D@std@@V?$allocator@D@2@@std@@V?$allocator@V?$basic_string@DU?$char_traits@D@std@@V?$allocator@D@2@@std@@@2@@std@@QAE?AViterator@12@XZ PROC NEAR ; std::vector<std::basic_string<char,std::char_traits<char>,std::allocator<char> >,std::allocator<std::basic_string<char,std::char_traits<char>,std::allocator<char> > > >::begin, COMDAT
; _this$ = ecx

; 463  : 		return (iterator(_Myfirst));

  00000	8b 49 04	 mov	 ecx, DWORD PTR [ecx+4]
  00003	8b 44 24 04	 mov	 eax, DWORD PTR ___$ReturnUdt$[esp-4]
  00007	89 08		 mov	 DWORD PTR [eax], ecx

; 464  : 		}

  00009	c2 04 00	 ret	 4
?begin@?$vector@V?$basic_string@DU?$char_traits@D@std@@V?$allocator@D@2@@std@@V?$allocator@V?$basic_string@DU?$char_traits@D@std@@V?$allocator@D@2@@std@@@2@@std@@QAE?AViterator@12@XZ ENDP ; std::vector<std::basic_string<char,std::char_traits<char>,std::allocator<char> >,std::allocator<std::basic_string<char,std::char_traits<char>,std::allocator<char> > > >::begin
_TEXT	ENDS
PUBLIC	?end@?$vector@V?$basic_string@DU?$char_traits@D@std@@V?$allocator@D@2@@std@@V?$allocator@V?$basic_string@DU?$char_traits@D@std@@V?$allocator@D@2@@std@@@2@@std@@QAE?AViterator@12@XZ ; std::vector<std::basic_string<char,std::char_traits<char>,std::allocator<char> >,std::allocator<std::basic_string<char,std::char_traits<char>,std::allocator<char> > > >::end
; Function compile flags: /Ogty
;	COMDAT ?end@?$vector@V?$basic_string@DU?$char_traits@D@std@@V?$allocator@D@2@@std@@V?$allocator@V?$basic_string@DU?$char_traits@D@std@@V?$allocator@D@2@@std@@@2@@std@@QAE?AViterator@12@XZ
_TEXT	SEGMENT
___$ReturnUdt$ = 8					; size = 4
?end@?$vector@V?$basic_string@DU?$char_traits@D@std@@V?$allocator@D@2@@std@@V?$allocator@V?$basic_string@DU?$char_traits@D@std@@V?$allocator@D@2@@std@@@2@@std@@QAE?AViterator@12@XZ PROC NEAR ; std::vector<std::basic_string<char,std::char_traits<char>,std::allocator<char> >,std::allocator<std::basic_string<char,std::char_traits<char>,std::allocator<char> > > >::end, COMDAT
; _this$ = ecx

; 473  : 		return (iterator(_Mylast));

  00000	8b 49 08	 mov	 ecx, DWORD PTR [ecx+8]
  00003	8b 44 24 04	 mov	 eax, DWORD PTR ___$ReturnUdt$[esp-4]
  00007	89 08		 mov	 DWORD PTR [eax], ecx

; 474  : 		}

  00009	c2 04 00	 ret	 4
?end@?$vector@V?$basic_string@DU?$char_traits@D@std@@V?$allocator@D@2@@std@@V?$allocator@V?$basic_string@DU?$char_traits@D@std@@V?$allocator@D@2@@std@@@2@@std@@QAE?AViterator@12@XZ ENDP ; std::vector<std::basic_string<char,std::char_traits<char>,std::allocator<char> >,std::allocator<std::basic_string<char,std::char_traits<char>,std::allocator<char> > > >::end
_TEXT	ENDS
PUBLIC	??A?$vector@V?$basic_string@DU?$char_traits@D@std@@V?$allocator@D@2@@std@@V?$allocator@V?$basic_string@DU?$char_traits@D@std@@V?$allocator@D@2@@std@@@2@@std@@QAEAAV?$basic_string@DU?$char_traits@D@std@@V?$allocator@D@2@@1@I@Z ; std::vector<std::basic_string<char,std::char_traits<char>,std::allocator<char> >,std::allocator<std::basic_string<char,std::char_traits<char>,std::allocator<char> > > >::operator[]
; Function compile flags: /Ogty
;	COMDAT ??A?$vector@V?$basic_string@DU?$char_traits@D@std@@V?$allocator@D@2@@std@@V?$allocator@V?$basic_string@DU?$char_traits@D@std@@V?$allocator@D@2@@std@@@2@@std@@QAEAAV?$basic_string@DU?$char_traits@D@std@@V?$allocator@D@2@@1@I@Z
_TEXT	SEGMENT
__Pos$ = 8						; size = 4
??A?$vector@V?$basic_string@DU?$char_traits@D@std@@V?$allocator@D@2@@std@@V?$allocator@V?$basic_string@DU?$char_traits@D@std@@V?$allocator@D@2@@std@@@2@@std@@QAEAAV?$basic_string@DU?$char_traits@D@std@@V?$allocator@D@2@@1@I@Z PROC NEAR ; std::vector<std::basic_string<char,std::char_traits<char>,std::allocator<char> >,std::allocator<std::basic_string<char,std::char_traits<char>,std::allocator<char> > > >::operator[], COMDAT
; _this$ = ecx

; 555  : 		return (*(begin() + _Pos));

  00000	8b 44 24 04	 mov	 eax, DWORD PTR __Pos$[esp-4]
  00004	8b 51 04	 mov	 edx, DWORD PTR [ecx+4]
  00007	6b c0 1c	 imul	 eax, 28			; 0000001cH
  0000a	03 c2		 add	 eax, edx

; 556  : 		}

  0000c	c2 04 00	 ret	 4
??A?$vector@V?$basic_string@DU?$char_traits@D@std@@V?$allocator@D@2@@std@@V?$allocator@V?$basic_string@DU?$char_traits@D@std@@V?$allocator@D@2@@std@@@2@@std@@QAEAAV?$basic_string@DU?$char_traits@D@std@@V?$allocator@D@2@@1@I@Z ENDP ; std::vector<std::basic_string<char,std::char_traits<char>,std::allocator<char> >,std::allocator<std::basic_string<char,std::char_traits<char>,std::allocator<char> > > >::operator[]
_TEXT	ENDS
PUBLIC	??$?8DU?$char_traits@D@std@@V?$allocator@D@1@@std@@YA_NABV?$basic_string@DU?$char_traits@D@std@@V?$allocator@D@2@@0@0@Z ; std::operator==<char,std::char_traits<char>,std::allocator<char> >
; Function compile flags: /Ogty
; File c:\documents and settings\test\mes documents\source\virtuos_v17\build\program\dx_sdk\string
;	COMDAT ??$?8DU?$char_traits@D@std@@V?$allocator@D@1@@std@@YA_NABV?$basic_string@DU?$char_traits@D@std@@V?$allocator@D@2@@0@0@Z
_TEXT	SEGMENT
__Left$ = 8						; size = 4
__Right$ = 12						; size = 4
??$?8DU?$char_traits@D@std@@V?$allocator@D@1@@std@@YA_NABV?$basic_string@DU?$char_traits@D@std@@V?$allocator@D@2@@0@0@Z PROC NEAR ; std::operator==<char,std::char_traits<char>,std::allocator<char> >, COMDAT

; 72   : 	return (_Left.compare(_Right) == 0);

  00000	8b 44 24 08	 mov	 eax, DWORD PTR __Right$[esp-4]
  00004	83 78 18 10	 cmp	 DWORD PTR [eax+24], 16	; 00000010H
  00008	8b 48 14	 mov	 ecx, DWORD PTR [eax+20]
  0000b	72 05		 jb	 SHORT $L228690
  0000d	8b 40 04	 mov	 eax, DWORD PTR [eax+4]
  00010	eb 03		 jmp	 SHORT $L228691
$L228690:
  00012	83 c0 04	 add	 eax, 4
$L228691:
  00015	51		 push	 ecx
  00016	8b 4c 24 08	 mov	 ecx, DWORD PTR __Left$[esp]
  0001a	50		 push	 eax
  0001b	8b 41 14	 mov	 eax, DWORD PTR [ecx+20]
  0001e	50		 push	 eax
  0001f	6a 00		 push	 0
  00021	e8 00 00 00 00	 call	 ?compare@?$basic_string@DU?$char_traits@D@std@@V?$allocator@D@2@@std@@QBEHIIPBDI@Z ; std::basic_string<char,std::char_traits<char>,std::allocator<char> >::compare
  00026	f7 d8		 neg	 eax
  00028	1b c0		 sbb	 eax, eax
  0002a	40		 inc	 eax

; 73   : 	}

  0002b	c3		 ret	 0
??$?8DU?$char_traits@D@std@@V?$allocator@D@1@@std@@YA_NABV?$basic_string@DU?$char_traits@D@std@@V?$allocator@D@2@@0@0@Z ENDP ; std::operator==<char,std::char_traits<char>,std::allocator<char> >
_TEXT	ENDS
PUBLIC	??$_Distance@Viterator@?$vector@V?$basic_string@DU?$char_traits@D@std@@V?$allocator@D@2@@std@@V?$allocator@V?$basic_string@DU?$char_traits@D@std@@V?$allocator@D@2@@std@@@2@@std@@I@std@@YAXViterator@?$vector@V?$basic_string@DU?$char_traits@D@std@@V?$allocator@D@2@@std@@V?$allocator@V?$basic_string@DU?$char_traits@D@std@@V?$allocator@D@2@@std@@@2@@0@0AAI@Z ; std::_Distance<std::vector<std::basic_string<char,std::char_traits<char>,std::allocator<char> >,std::allocator<std::basic_string<char,std::char_traits<char>,std::allocator<char> > > >::iterator,unsigned int>
; Function compile flags: /Ogty
; File c:\program files\microsoft visual studio .net 2003\vc7\include\xutility
;	COMDAT ??$_Distance@Viterator@?$vector@V?$basic_string@DU?$char_traits@D@std@@V?$allocator@D@2@@std@@V?$allocator@V?$basic_string@DU?$char_traits@D@std@@V?$allocator@D@2@@std@@@2@@std@@I@std@@YAXViterator@?$vector@V?$basic_string@DU?$char_traits@D@std@@V?$allocator@D@2@@std@@V?$allocator@V?$basic_string@DU?$char_traits@D@std@@V?$allocator@D@2@@std@@@2@@0@0AAI@Z
_TEXT	SEGMENT
__First$ = 8						; size = 4
__Last$ = 12						; size = 4
__Off$ = 16						; size = 4
??$_Distance@Viterator@?$vector@V?$basic_string@DU?$char_traits@D@std@@V?$allocator@D@2@@std@@V?$allocator@V?$basic_string@DU?$char_traits@D@std@@V?$allocator@D@2@@std@@@2@@std@@I@std@@YAXViterator@?$vector@V?$basic_string@DU?$char_traits@D@std@@V?$allocator@D@2@@std@@V?$allocator@V?$basic_string@DU?$char_traits@D@std@@V?$allocator@D@2@@std@@@2@@0@0AAI@Z PROC NEAR ; std::_Distance<std::vector<std::basic_string<char,std::char_traits<char>,std::allocator<char> >,std::allocator<std::basic_string<char,std::char_traits<char>,std::allocator<char> > > >::iterator,unsigned int>, COMDAT

; 498  : 	_Distance2(_First, _Last, _Off, _Iter_cat(_First));

  00000	8b 54 24 04	 mov	 edx, DWORD PTR __First$[esp-4]
  00004	8b 4c 24 08	 mov	 ecx, DWORD PTR __Last$[esp-4]
  00008	2b ca		 sub	 ecx, edx
  0000a	b8 93 24 49 92	 mov	 eax, -1840700269	; 92492493H
  0000f	f7 e9		 imul	 ecx
  00011	8b 44 24 0c	 mov	 eax, DWORD PTR __Off$[esp-4]
  00015	03 d1		 add	 edx, ecx
  00017	c1 fa 04	 sar	 edx, 4
  0001a	8b ca		 mov	 ecx, edx
  0001c	c1 e9 1f	 shr	 ecx, 31			; 0000001fH
  0001f	03 ca		 add	 ecx, edx
  00021	01 08		 add	 DWORD PTR [eax], ecx

; 499  : 	}

  00023	c3		 ret	 0
??$_Distance@Viterator@?$vector@V?$basic_string@DU?$char_traits@D@std@@V?$allocator@D@2@@std@@V?$allocator@V?$basic_string@DU?$char_traits@D@std@@V?$allocator@D@2@@std@@@2@@std@@I@std@@YAXViterator@?$vector@V?$basic_string@DU?$char_traits@D@std@@V?$allocator@D@2@@std@@V?$allocator@V?$basic_string@DU?$char_traits@D@std@@V?$allocator@D@2@@std@@@2@@0@0AAI@Z ENDP ; std::_Distance<std::vector<std::basic_string<char,std::char_traits<char>,std::allocator<char> >,std::allocator<std::basic_string<char,std::char_traits<char>,std::allocator<char> > > >::iterator,unsigned int>
_TEXT	ENDS
PUBLIC	?_Tidy@?$basic_string@DU?$char_traits@D@std@@V?$allocator@D@2@@std@@IAEX_NI@Z ; std::basic_string<char,std::char_traits<char>,std::allocator<char> >::_Tidy
; Function compile flags: /Ogty
; File c:\program files\microsoft visual studio .net 2003\vc7\include\xstring
;	COMDAT ?_Tidy@?$basic_string@DU?$char_traits@D@std@@V?$allocator@D@2@@std@@IAEX_NI@Z
_TEXT	SEGMENT
__Built$ = 8						; size = 1
__Newsize$ = 12						; size = 4
?_Tidy@?$basic_string@DU?$char_traits@D@std@@V?$allocator@D@2@@std@@IAEX_NI@Z PROC NEAR ; std::basic_string<char,std::char_traits<char>,std::allocator<char> >::_Tidy, COMDAT
; _this$ = ecx

; 1510 : 		if (!_Built)

  00000	8a 44 24 04	 mov	 al, BYTE PTR __Built$[esp-4]
  00004	84 c0		 test	 al, al
  00006	53		 push	 ebx
  00007	55		 push	 ebp
  00008	8b 6c 24 10	 mov	 ebp, DWORD PTR __Newsize$[esp+4]
  0000c	8b d9		 mov	 ebx, ecx
  0000e	74 2f		 je	 SHORT $L228730

; 1511 : 			;
; 1512 : 		else if (_BUF_SIZE <= _Myres)

  00010	83 7b 18 10	 cmp	 DWORD PTR [ebx+24], 16	; 00000010H
  00014	72 29		 jb	 SHORT $L228730

; 1513 : 			{	// copy any leftovers to small buffer and deallocate
; 1514 : 			_Elem *_Ptr = _Bx._Ptr;
; 1515 : 			if (0 < _Newsize)

  00016	85 ed		 test	 ebp, ebp
  00018	8b 43 04	 mov	 eax, DWORD PTR [ebx+4]
  0001b	57		 push	 edi
  0001c	8d 7b 04	 lea	 edi, DWORD PTR [ebx+4]
  0001f	76 14		 jbe	 SHORT $L228727
  00021	56		 push	 esi

; 1516 : 				_Traits::copy(_Bx._Buf, _Ptr, _Newsize);

  00022	8b cd		 mov	 ecx, ebp
  00024	8b d1		 mov	 edx, ecx
  00026	c1 e9 02	 shr	 ecx, 2
  00029	8b f0		 mov	 esi, eax
  0002b	f3 a5		 rep movsd
  0002d	8b ca		 mov	 ecx, edx
  0002f	83 e1 03	 and	 ecx, 3
  00032	f3 a4		 rep movsb
  00034	5e		 pop	 esi
$L228727:

; 1517 : 			_Mybase::_Alval.deallocate(_Ptr, _Myres + 1);

  00035	50		 push	 eax
  00036	e8 00 00 00 00	 call	 ??3@YAXPAX@Z		; operator delete
  0003b	83 c4 04	 add	 esp, 4
  0003e	5f		 pop	 edi
$L228730:

; 1518 : 			}
; 1519 : 		_Myres = _BUF_SIZE - 1;
; 1520 : 		_Eos(_Newsize);

  0003f	89 6b 14	 mov	 DWORD PTR [ebx+20], ebp
  00042	c7 43 18 0f 00
	00 00		 mov	 DWORD PTR [ebx+24], 15	; 0000000fH
  00049	c6 44 2b 04 00	 mov	 BYTE PTR [ebx+ebp+4], 0
  0004e	5d		 pop	 ebp
  0004f	5b		 pop	 ebx

; 1521 : 		}

  00050	c2 08 00	 ret	 8
?_Tidy@?$basic_string@DU?$char_traits@D@std@@V?$allocator@D@2@@std@@IAEX_NI@Z ENDP ; std::basic_string<char,std::char_traits<char>,std::allocator<char> >::_Tidy
_TEXT	ENDS
PUBLIC	?erase@?$basic_string@DU?$char_traits@D@std@@V?$allocator@D@2@@std@@QAEAAV12@II@Z ; std::basic_string<char,std::char_traits<char>,std::allocator<char> >::erase
; Function compile flags: /Ogty
;	COMDAT ?erase@?$basic_string@DU?$char_traits@D@std@@V?$allocator@D@2@@std@@QAEAAV12@II@Z
_TEXT	SEGMENT
__Off$ = 8						; size = 4
__Count$ = 12						; size = 4
?erase@?$basic_string@DU?$char_traits@D@std@@V?$allocator@D@2@@std@@QAEAAV12@II@Z PROC NEAR ; std::basic_string<char,std::char_traits<char>,std::allocator<char> >::erase, COMDAT
; _this$ = ecx

; 792  : 		{	// erase elements [_Off, _Off + _Count)

  00000	55		 push	 ebp

; 793  : 		if (_Mysize < _Off)

  00001	8b 6c 24 08	 mov	 ebp, DWORD PTR __Off$[esp]
  00005	56		 push	 esi
  00006	8b f1		 mov	 esi, ecx
  00008	39 6e 14	 cmp	 DWORD PTR [esi+20], ebp
  0000b	57		 push	 edi
  0000c	73 05		 jae	 SHORT $L221371

; 794  : 			_String_base::_Xran();	// _Off off end

  0000e	e8 00 00 00 00	 call	 ?_Xran@_String_base@std@@QBEXXZ ; std::_String_base::_Xran
$L221371:

; 795  : 		if (_Mysize - _Off < _Count)

  00013	8b 46 14	 mov	 eax, DWORD PTR [esi+20]
  00016	8b 7c 24 14	 mov	 edi, DWORD PTR __Count$[esp+8]
  0001a	2b c5		 sub	 eax, ebp
  0001c	3b c7		 cmp	 eax, edi
  0001e	73 02		 jae	 SHORT $L221372

; 796  : 			_Count = _Mysize - _Off;	// trim _Count

  00020	8b f8		 mov	 edi, eax
$L221372:

; 797  : 		if (0 < _Count)

  00022	85 ff		 test	 edi, edi
  00024	76 47		 jbe	 SHORT $L228796

; 798  : 			{	// move elements down
; 799  : 			_Traits::move(_Myptr() + _Off, _Myptr() + _Off + _Count,
; 800  : 				_Mysize - _Off - _Count);

  00026	8b 4e 18	 mov	 ecx, DWORD PTR [esi+24]
  00029	83 f9 10	 cmp	 ecx, 16			; 00000010H
  0002c	53		 push	 ebx
  0002d	8d 5e 04	 lea	 ebx, DWORD PTR [esi+4]
  00030	72 04		 jb	 SHORT $L228762
  00032	8b 13		 mov	 edx, DWORD PTR [ebx]
  00034	eb 02		 jmp	 SHORT $L228763
$L228762:
  00036	8b d3		 mov	 edx, ebx
$L228763:
  00038	83 f9 10	 cmp	 ecx, 16			; 00000010H
  0003b	72 04		 jb	 SHORT $L228769
  0003d	8b 0b		 mov	 ecx, DWORD PTR [ebx]
  0003f	eb 02		 jmp	 SHORT $L228770
$L228769:
  00041	8b cb		 mov	 ecx, ebx
$L228770:
  00043	2b c7		 sub	 eax, edi

; 803  : 			}
; 804  : 		return (*this);

  00045	03 d5		 add	 edx, ebp
  00047	50		 push	 eax
  00048	03 d7		 add	 edx, edi
  0004a	52		 push	 edx
  0004b	03 cd		 add	 ecx, ebp
  0004d	51		 push	 ecx
  0004e	e8 00 00 00 00	 call	 _memmove
  00053	8b 46 14	 mov	 eax, DWORD PTR [esi+20]
  00056	8b 4e 18	 mov	 ecx, DWORD PTR [esi+24]
  00059	2b c7		 sub	 eax, edi
  0005b	83 c4 0c	 add	 esp, 12			; 0000000cH
  0005e	83 f9 10	 cmp	 ecx, 16			; 00000010H
  00061	89 46 14	 mov	 DWORD PTR [esi+20], eax
  00064	72 02		 jb	 SHORT $L228793

; 801  : 			size_type _Newsize = _Mysize - _Count;
; 802  : 			_Eos(_Newsize);

  00066	8b 1b		 mov	 ebx, DWORD PTR [ebx]
$L228793:
  00068	c6 04 03 00	 mov	 BYTE PTR [ebx+eax], 0
  0006c	5b		 pop	 ebx
$L228796:
  0006d	5f		 pop	 edi

; 803  : 			}
; 804  : 		return (*this);

  0006e	8b c6		 mov	 eax, esi
  00070	5e		 pop	 esi
  00071	5d		 pop	 ebp

; 805  : 		}

  00072	c2 08 00	 ret	 8
?erase@?$basic_string@DU?$char_traits@D@std@@V?$allocator@D@2@@std@@QAEAAV12@II@Z ENDP ; std::basic_string<char,std::char_traits<char>,std::allocator<char> >::erase
_TEXT	ENDS
PUBLIC	?_Copy@?$basic_string@DU?$char_traits@D@std@@V?$allocator@D@2@@std@@IAEXII@Z ; std::basic_string<char,std::char_traits<char>,std::allocator<char> >::_Copy
EXTRN	__CxxThrowException@8:NEAR
EXTRN	__except_list:DWORD
EXTRN	___CxxFrameHandler:NEAR
;	COMDAT xdata$x
; File c:\program files\microsoft visual studio .net 2003\vc7\include\iosfwd
xdata$x	SEGMENT
$T229004 DD	0ffffffffH
	DD	00H
	DD	0ffffffffH
	DD	00H
	DD	01H
	DD	00H
	DD	01H
	DD	00H
$T229006 DD	00H
	DD	00H
	DD	00H
	DD	FLAT:$L228804
$T229007 DD	00H
	DD	00H
	DD	00H
	DD	FLAT:$L228802
$T229005 DD	02H
	DD	02H
	DD	03H
	DD	01H
	DD	FLAT:$T229006
	DD	00H
	DD	00H
	DD	03H
	DD	01H
	DD	FLAT:$T229007
$T228998 DD	019930520H
	DD	04H
	DD	FLAT:$T229004
	DD	02H
	DD	FLAT:$T229005
	DD	2 DUP(00H)
; Function compile flags: /Ogty
; File c:\program files\microsoft visual studio .net 2003\vc7\include\xstring
xdata$x	ENDS
;	COMDAT ?_Copy@?$basic_string@DU?$char_traits@D@std@@V?$allocator@D@2@@std@@IAEXII@Z
_TEXT	SEGMENT
__Newres$ = -24						; size = 4
_this$ = -20						; size = 4
__$EHRec$ = -16						; size = 16
__Ptr$ = 8						; size = 4
__Newsize$ = 8						; size = 4
__Oldlen$ = 12						; size = 4
?_Copy@?$basic_string@DU?$char_traits@D@std@@V?$allocator@D@2@@std@@IAEXII@Z PROC NEAR ; std::basic_string<char,std::char_traits<char>,std::allocator<char> >::_Copy, COMDAT
; _this$ = ecx

; 1444 : 		{	// copy _Oldlen elements to newly allocated buffer

  00000	55		 push	 ebp
  00001	8b ec		 mov	 ebp, esp
  00003	6a ff		 push	 -1
  00005	68 00 00 00 00	 push	 __ehhandler$?_Copy@?$basic_string@DU?$char_traits@D@std@@V?$allocator@D@2@@std@@IAEXII@Z
  0000a	64 a1 00 00 00
	00		 mov	 eax, DWORD PTR fs:__except_list
  00010	50		 push	 eax
  00011	64 89 25 00 00
	00 00		 mov	 DWORD PTR fs:__except_list, esp
  00018	83 ec 0c	 sub	 esp, 12			; 0000000cH

; 1445 : 		size_type _Newres = _Newsize | _ALLOC_MASK;

  0001b	8b 45 08	 mov	 eax, DWORD PTR __Newsize$[ebp]
  0001e	53		 push	 ebx
  0001f	56		 push	 esi
  00020	8b d8		 mov	 ebx, eax
  00022	83 cb 0f	 or	 ebx, 15			; 0000000fH

; 1446 : 		if (max_size() < _Newres)

  00025	83 fb fe	 cmp	 ebx, -2			; fffffffeH
  00028	57		 push	 edi
  00029	8b f1		 mov	 esi, ecx
  0002b	89 65 f0	 mov	 DWORD PTR __$EHRec$[ebp], esp
  0002e	89 75 ec	 mov	 DWORD PTR _this$[ebp], esi
  00031	76 04		 jbe	 SHORT $L222778

; 1447 : 			_Newres = _Newsize;	// undo roundup if too big

  00033	8b d8		 mov	 ebx, eax

; 1448 : 		else if (_Newres / 3 < _Myres / 2

  00035	eb 22		 jmp	 SHORT $L222780
$L222778:

; 1449 : 			&& _Myres <= max_size() - _Myres / 2)

  00037	8b 7e 18	 mov	 edi, DWORD PTR [esi+24]
  0003a	b8 ab aa aa aa	 mov	 eax, -1431655765	; aaaaaaabH
  0003f	f7 e3		 mul	 ebx
  00041	8b cf		 mov	 ecx, edi
  00043	d1 e9		 shr	 ecx, 1
  00045	d1 ea		 shr	 edx, 1
  00047	3b d1		 cmp	 edx, ecx
  00049	73 0e		 jae	 SHORT $L222780
  0004b	b8 fe ff ff ff	 mov	 eax, -2			; fffffffeH
  00050	2b c1		 sub	 eax, ecx
  00052	3b f8		 cmp	 edi, eax
  00054	77 03		 ja	 SHORT $L222780

; 1450 : 			_Newres = _Myres + _Myres / 2;	// grow exponentially if possible

  00056	8d 1c 39	 lea	 ebx, DWORD PTR [ecx+edi]
$L222780:

; 1451 : 		_Elem *_Ptr;
; 1452 : 
; 1453 : 		_TRY_BEGIN
; 1454 : 			_Ptr = _Mybase::_Alval.allocate(_Newres + 1);

  00059	8d 4b 01	 lea	 ecx, DWORD PTR [ebx+1]
  0005c	51		 push	 ecx
  0005d	c7 45 fc 00 00
	00 00		 mov	 DWORD PTR __$EHRec$[ebp+12], 0
  00064	e8 00 00 00 00	 call	 ??2@YAPAXI@Z		; operator new
  00069	8b d0		 mov	 edx, eax
  0006b	83 c4 04	 add	 esp, 4
  0006e	89 55 08	 mov	 DWORD PTR __Ptr$[ebp], edx
  00071	eb 29		 jmp	 SHORT $L222782
$L228802:

; 1455 : 		_CATCH_ALL
; 1456 : 			_Newres = _Newsize;	// allocation failed, undo roundup and retry

  00073	8b 45 08	 mov	 eax, DWORD PTR __Newsize$[ebp]
  00076	89 45 e8	 mov	 DWORD PTR __Newres$[ebp], eax

; 1457 : 			_TRY_BEGIN
; 1458 : 				_Ptr = _Mybase::_Alval.allocate(_Newres + 1);

  00079	40		 inc	 eax
  0007a	89 65 f0	 mov	 DWORD PTR __$EHRec$[ebp], esp
  0007d	50		 push	 eax
  0007e	c6 45 fc 02	 mov	 BYTE PTR __$EHRec$[ebp+12], 2
  00082	e8 00 00 00 00	 call	 ??2@YAPAXI@Z		; operator new
  00087	89 45 08	 mov	 DWORD PTR __Ptr$[ebp], eax
  0008a	83 c4 04	 add	 esp, 4

; 1462 : 			_CATCH_END
; 1463 : 		_CATCH_END

  0008d	b8 00 00 00 00	 mov	 eax, $L228999
  00092	c3		 ret	 0
$L228999:
  00093	8b 5d e8	 mov	 ebx, DWORD PTR __Newres$[ebp]
  00096	8b 75 ec	 mov	 esi, DWORD PTR _this$[ebp]
  00099	8b 55 08	 mov	 edx, DWORD PTR __Ptr$[ebp]
$L222782:

; 1464 : 
; 1465 : 		if (0 < _Oldlen)

  0009c	8b 4d 0c	 mov	 ecx, DWORD PTR __Oldlen$[ebp]
  0009f	85 c9		 test	 ecx, ecx
  000a1	76 24		 jbe	 SHORT $L228921

; 1466 : 			_Traits::copy(_Ptr, _Myptr(), _Oldlen);	// copy existing elements

  000a3	83 7e 18 10	 cmp	 DWORD PTR [esi+24], 16	; 00000010H
  000a7	72 05		 jb	 SHORT $L228918
  000a9	8b 76 04	 mov	 esi, DWORD PTR [esi+4]
  000ac	eb 03		 jmp	 SHORT $L228919
$L228918:
  000ae	83 c6 04	 add	 esi, 4
$L228919:
  000b1	8b c1		 mov	 eax, ecx
  000b3	c1 e9 02	 shr	 ecx, 2
  000b6	8b fa		 mov	 edi, edx
  000b8	f3 a5		 rep movsd
  000ba	8b c8		 mov	 ecx, eax
  000bc	83 e1 03	 and	 ecx, 3
  000bf	f3 a4		 rep movsb
  000c1	8b 75 ec	 mov	 esi, DWORD PTR _this$[ebp]
  000c4	8b 4d 0c	 mov	 ecx, DWORD PTR __Oldlen$[ebp]
$L228921:

; 1467 : 		_Tidy(true);

  000c7	83 7e 18 10	 cmp	 DWORD PTR [esi+24], 16	; 00000010H
  000cb	72 12		 jb	 SHORT $L228957
  000cd	8b 4e 04	 mov	 ecx, DWORD PTR [esi+4]
  000d0	51		 push	 ecx
  000d1	e8 00 00 00 00	 call	 ??3@YAXPAX@Z		; operator delete
  000d6	8b 55 08	 mov	 edx, DWORD PTR __Ptr$[ebp]
  000d9	8b 4d 0c	 mov	 ecx, DWORD PTR __Oldlen$[ebp]
  000dc	83 c4 04	 add	 esp, 4
$L228957:

; 1468 : 		_Bx._Ptr = _Ptr;
; 1469 : 		_Myres = _Newres;
; 1470 : 		_Eos(_Oldlen);

  000df	83 fb 10	 cmp	 ebx, 16			; 00000010H
  000e2	8d 46 04	 lea	 eax, DWORD PTR [esi+4]
  000e5	c6 00 00	 mov	 BYTE PTR [eax], 0
  000e8	89 10		 mov	 DWORD PTR [eax], edx
  000ea	89 5e 18	 mov	 DWORD PTR [esi+24], ebx
  000ed	89 4e 14	 mov	 DWORD PTR [esi+20], ecx
  000f0	72 02		 jb	 SHORT $L228992
  000f2	8b c2		 mov	 eax, edx
$L228992:

; 1471 : 		}

  000f4	5f		 pop	 edi
  000f5	c6 04 08 00	 mov	 BYTE PTR [eax+ecx], 0
  000f9	8b 4d f4	 mov	 ecx, DWORD PTR __$EHRec$[ebp+4]
  000fc	5e		 pop	 esi
  000fd	64 89 0d 00 00
	00 00		 mov	 DWORD PTR fs:__except_list, ecx
  00104	5b		 pop	 ebx
  00105	8b e5		 mov	 esp, ebp
  00107	5d		 pop	 ebp
  00108	c2 08 00	 ret	 8
$L228804:

; 1459 : 			_CATCH_ALL
; 1460 : 			_Tidy(true);	// failed again, discard storage and reraise

  0010b	8b 75 ec	 mov	 esi, DWORD PTR _this$[ebp]
  0010e	83 7e 18 10	 cmp	 DWORD PTR [esi+24], 16	; 00000010H
  00112	72 0c		 jb	 SHORT $L228896
  00114	8b 56 04	 mov	 edx, DWORD PTR [esi+4]
  00117	52		 push	 edx
  00118	e8 00 00 00 00	 call	 ??3@YAXPAX@Z		; operator delete
  0011d	83 c4 04	 add	 esp, 4
$L228896:

; 1461 : 			_RERAISE;

  00120	6a 00		 push	 0
  00122	c7 46 18 0f 00
	00 00		 mov	 DWORD PTR [esi+24], 15	; 0000000fH
  00129	c7 46 14 00 00
	00 00		 mov	 DWORD PTR [esi+20], 0
  00130	6a 00		 push	 0
  00132	c6 46 04 00	 mov	 BYTE PTR [esi+4], 0
  00136	e8 00 00 00 00	 call	 __CxxThrowException@8
$L229009:
$L229003:
  0013b	cc		 int	 3
_TEXT	ENDS
;	COMDAT text$x
text$x	SEGMENT
__ehhandler$?_Copy@?$basic_string@DU?$char_traits@D@std@@V?$allocator@D@2@@std@@IAEXII@Z:
  00000	b8 00 00 00 00	 mov	 eax, OFFSET FLAT:$T228998
  00005	e9 00 00 00 00	 jmp	 ___CxxFrameHandler
text$x	ENDS
?_Copy@?$basic_string@DU?$char_traits@D@std@@V?$allocator@D@2@@std@@IAEXII@Z ENDP ; std::basic_string<char,std::char_traits<char>,std::allocator<char> >::_Copy
PUBLIC	??$?9DU?$char_traits@D@std@@V?$allocator@D@1@@std@@YA_NABV?$basic_string@DU?$char_traits@D@std@@V?$allocator@D@2@@0@0@Z ; std::operator!=<char,std::char_traits<char>,std::allocator<char> >
; Function compile flags: /Ogty
; File c:\documents and settings\test\mes documents\source\virtuos_v17\build\program\dx_sdk\string
;	COMDAT ??$?9DU?$char_traits@D@std@@V?$allocator@D@1@@std@@YA_NABV?$basic_string@DU?$char_traits@D@std@@V?$allocator@D@2@@0@0@Z
_TEXT	SEGMENT
__Left$ = 8						; size = 4
__Right$ = 12						; size = 4
??$?9DU?$char_traits@D@std@@V?$allocator@D@1@@std@@YA_NABV?$basic_string@DU?$char_traits@D@std@@V?$allocator@D@2@@0@0@Z PROC NEAR ; std::operator!=<char,std::char_traits<char>,std::allocator<char> >, COMDAT

; 102  : 	return (!(_Left == _Right));

  00000	8b 44 24 08	 mov	 eax, DWORD PTR __Right$[esp-4]
  00004	83 78 18 10	 cmp	 DWORD PTR [eax+24], 16	; 00000010H
  00008	8b 48 14	 mov	 ecx, DWORD PTR [eax+20]
  0000b	72 05		 jb	 SHORT $L229040
  0000d	8b 40 04	 mov	 eax, DWORD PTR [eax+4]
  00010	eb 03		 jmp	 SHORT $L229041
$L229040:
  00012	83 c0 04	 add	 eax, 4
$L229041:
  00015	51		 push	 ecx
  00016	8b 4c 24 08	 mov	 ecx, DWORD PTR __Left$[esp]
  0001a	50		 push	 eax
  0001b	8b 41 14	 mov	 eax, DWORD PTR [ecx+20]
  0001e	50		 push	 eax
  0001f	6a 00		 push	 0
  00021	e8 00 00 00 00	 call	 ?compare@?$basic_string@DU?$char_traits@D@std@@V?$allocator@D@2@@std@@QBEHIIPBDI@Z ; std::basic_string<char,std::char_traits<char>,std::allocator<char> >::compare
  00026	f7 d8		 neg	 eax
  00028	1b c0		 sbb	 eax, eax
  0002a	f7 d8		 neg	 eax

; 103  : 	}

  0002c	c3		 ret	 0
??$?9DU?$char_traits@D@std@@V?$allocator@D@1@@std@@YA_NABV?$basic_string@DU?$char_traits@D@std@@V?$allocator@D@2@@0@0@Z ENDP ; std::operator!=<char,std::char_traits<char>,std::allocator<char> >
_TEXT	ENDS
PUBLIC	??0?$basic_string@DU?$char_traits@D@std@@V?$allocator@D@2@@std@@QAE@XZ ; std::basic_string<char,std::char_traits<char>,std::allocator<char> >::basic_string<char,std::char_traits<char>,std::allocator<char> >
; Function compile flags: /Ogty
; File c:\program files\microsoft visual studio .net 2003\vc7\include\xstring
;	COMDAT ??0?$basic_string@DU?$char_traits@D@std@@V?$allocator@D@2@@std@@QAE@XZ
_TEXT	SEGMENT
??0?$basic_string@DU?$char_traits@D@std@@V?$allocator@D@2@@std@@QAE@XZ PROC NEAR ; std::basic_string<char,std::char_traits<char>,std::allocator<char> >::basic_string<char,std::char_traits<char>,std::allocator<char> >, COMDAT
; _this$ = ecx

; 311  : 		{	// construct empty string

  00000	8b c1		 mov	 eax, ecx

; 312  : 		_Tidy();

  00002	33 c9		 xor	 ecx, ecx
  00004	c7 40 18 0f 00
	00 00		 mov	 DWORD PTR [eax+24], 15	; 0000000fH
  0000b	89 48 14	 mov	 DWORD PTR [eax+20], ecx
  0000e	88 48 04	 mov	 BYTE PTR [eax+4], cl

; 313  : 		}

  00011	c3		 ret	 0
??0?$basic_string@DU?$char_traits@D@std@@V?$allocator@D@2@@std@@QAE@XZ ENDP ; std::basic_string<char,std::char_traits<char>,std::allocator<char> >::basic_string<char,std::char_traits<char>,std::allocator<char> >
_TEXT	ENDS
PUBLIC	??1?$basic_string@DU?$char_traits@D@std@@V?$allocator@D@2@@std@@QAE@XZ ; std::basic_string<char,std::char_traits<char>,std::allocator<char> >::~basic_string<char,std::char_traits<char>,std::allocator<char> >
; Function compile flags: /Ogty
;	COMDAT ??1?$basic_string@DU?$char_traits@D@std@@V?$allocator@D@2@@std@@QAE@XZ
_TEXT	SEGMENT
??1?$basic_string@DU?$char_traits@D@std@@V?$allocator@D@2@@std@@QAE@XZ PROC NEAR ; std::basic_string<char,std::char_traits<char>,std::allocator<char> >::~basic_string<char,std::char_traits<char>,std::allocator<char> >, COMDAT
; _this$ = ecx

; 456  : 		{	// destroy the string

  00000	56		 push	 esi
  00001	8b f1		 mov	 esi, ecx

; 457  : 		_Tidy(true);

  00003	83 7e 18 10	 cmp	 DWORD PTR [esi+24], 16	; 00000010H
  00007	72 0c		 jb	 SHORT $L229148
  00009	8b 46 04	 mov	 eax, DWORD PTR [esi+4]
  0000c	50		 push	 eax
  0000d	e8 00 00 00 00	 call	 ??3@YAXPAX@Z		; operator delete
  00012	83 c4 04	 add	 esp, 4
$L229148:
  00015	33 c0		 xor	 eax, eax
  00017	c7 46 18 0f 00
	00 00		 mov	 DWORD PTR [esi+24], 15	; 0000000fH
  0001e	89 46 14	 mov	 DWORD PTR [esi+20], eax
  00021	88 46 04	 mov	 BYTE PTR [esi+4], al
  00024	5e		 pop	 esi

; 458  : 		}

  00025	c3		 ret	 0
??1?$basic_string@DU?$char_traits@D@std@@V?$allocator@D@2@@std@@QAE@XZ ENDP ; std::basic_string<char,std::char_traits<char>,std::allocator<char> >::~basic_string<char,std::char_traits<char>,std::allocator<char> >
_TEXT	ENDS
PUBLIC	?_Grow@?$basic_string@DU?$char_traits@D@std@@V?$allocator@D@2@@std@@IAE_NI_N@Z ; std::basic_string<char,std::char_traits<char>,std::allocator<char> >::_Grow
EXTRN	?_Xlen@_String_base@std@@QBEXXZ:NEAR		; std::_String_base::_Xlen
; Function compile flags: /Ogty
;	COMDAT ?_Grow@?$basic_string@DU?$char_traits@D@std@@V?$allocator@D@2@@std@@IAE_NI_N@Z
_TEXT	SEGMENT
__Newsize$ = 8						; size = 4
__Trim$ = 12						; size = 1
?_Grow@?$basic_string@DU?$char_traits@D@std@@V?$allocator@D@2@@std@@IAE_NI_N@Z PROC NEAR ; std::basic_string<char,std::char_traits<char>,std::allocator<char> >::_Grow, COMDAT
; _this$ = ecx

; 1480 : 		{	// ensure buffer is big enough, trim to size if _Trim is true

  00000	55		 push	 ebp
  00001	56		 push	 esi

; 1481 : 		if (max_size() < _Newsize)

  00002	8b 74 24 0c	 mov	 esi, DWORD PTR __Newsize$[esp+4]
  00006	83 fe fe	 cmp	 esi, -2			; fffffffeH
  00009	8b e9		 mov	 ebp, ecx
  0000b	76 05		 jbe	 SHORT $L221380

; 1482 : 			_String_base::_Xlen();	// result too long

  0000d	e8 00 00 00 00	 call	 ?_Xlen@_String_base@std@@QBEXXZ ; std::_String_base::_Xlen
$L221380:

; 1483 : 		if (_Myres < _Newsize)

  00012	8b 45 18	 mov	 eax, DWORD PTR [ebp+24]
  00015	3b c6		 cmp	 eax, esi
  00017	73 19		 jae	 SHORT $L221381

; 1484 : 			_Copy(_Newsize, _Mysize);	// reallocate to grow

  00019	8b 45 14	 mov	 eax, DWORD PTR [ebp+20]
  0001c	50		 push	 eax
  0001d	56		 push	 esi
  0001e	8b cd		 mov	 ecx, ebp
  00020	e8 00 00 00 00	 call	 ?_Copy@?$basic_string@DU?$char_traits@D@std@@V?$allocator@D@2@@std@@IAEXII@Z ; std::basic_string<char,std::char_traits<char>,std::allocator<char> >::_Copy

; 1490 : 		return (0 < _Newsize);	// return true only if more work to do

  00025	33 c0		 xor	 eax, eax
  00027	3b c6		 cmp	 eax, esi
  00029	1b c0		 sbb	 eax, eax
  0002b	5e		 pop	 esi
  0002c	f7 d8		 neg	 eax
  0002e	5d		 pop	 ebp

; 1491 : 		}

  0002f	c2 08 00	 ret	 8
$L221381:

; 1485 : 		else if (_Trim && _Newsize < _BUF_SIZE)

  00032	8a 4c 24 10	 mov	 cl, BYTE PTR __Trim$[esp+4]
  00036	84 c9		 test	 cl, cl
  00038	74 5c		 je	 SHORT $L221383
  0003a	83 fe 10	 cmp	 esi, 16			; 00000010H
  0003d	73 57		 jae	 SHORT $L221383
  0003f	53		 push	 ebx

; 1486 : 			_Tidy(true,	// copy and deallocate if trimming to small string
; 1487 : 				_Newsize < _Mysize ? _Newsize : _Mysize);

  00040	8b 5d 14	 mov	 ebx, DWORD PTR [ebp+20]
  00043	3b f3		 cmp	 esi, ebx
  00045	73 02		 jae	 SHORT $L229169
  00047	8b de		 mov	 ebx, esi
$L229169:
  00049	83 f8 10	 cmp	 eax, 16			; 00000010H
  0004c	72 2b		 jb	 SHORT $L229223
  0004e	85 db		 test	 ebx, ebx
  00050	8b 45 04	 mov	 eax, DWORD PTR [ebp+4]
  00053	57		 push	 edi
  00054	8d 7d 04	 lea	 edi, DWORD PTR [ebp+4]
  00057	76 16		 jbe	 SHORT $L229221
  00059	8b cb		 mov	 ecx, ebx
  0005b	8b d1		 mov	 edx, ecx
  0005d	c1 e9 02	 shr	 ecx, 2
  00060	8b f0		 mov	 esi, eax
  00062	f3 a5		 rep movsd
  00064	8b ca		 mov	 ecx, edx
  00066	83 e1 03	 and	 ecx, 3
  00069	f3 a4		 rep movsb
  0006b	8b 74 24 14	 mov	 esi, DWORD PTR __Newsize$[esp+12]
$L229221:
  0006f	50		 push	 eax
  00070	e8 00 00 00 00	 call	 ??3@YAXPAX@Z		; operator delete
  00075	83 c4 04	 add	 esp, 4
  00078	5f		 pop	 edi
$L229223:
  00079	89 5d 14	 mov	 DWORD PTR [ebp+20], ebx

; 1490 : 		return (0 < _Newsize);	// return true only if more work to do

  0007c	33 c0		 xor	 eax, eax
  0007e	c7 45 18 0f 00
	00 00		 mov	 DWORD PTR [ebp+24], 15	; 0000000fH
  00085	c6 44 2b 04 00	 mov	 BYTE PTR [ebx+ebp+4], 0
  0008a	3b c6		 cmp	 eax, esi
  0008c	5b		 pop	 ebx
  0008d	1b c0		 sbb	 eax, eax
  0008f	5e		 pop	 esi
  00090	f7 d8		 neg	 eax
  00092	5d		 pop	 ebp

; 1491 : 		}

  00093	c2 08 00	 ret	 8
$L221383:

; 1488 : 		else if (_Newsize == 0)

  00096	85 f6		 test	 esi, esi
  00098	75 23		 jne	 SHORT $L229260

; 1489 : 			_Eos(0);	// new size is zero, just null terminate

  0009a	83 f8 10	 cmp	 eax, 16			; 00000010H
  0009d	89 75 14	 mov	 DWORD PTR [ebp+20], esi
  000a0	72 14		 jb	 SHORT $L229258
  000a2	8b 6d 04	 mov	 ebp, DWORD PTR [ebp+4]

; 1490 : 		return (0 < _Newsize);	// return true only if more work to do

  000a5	33 c0		 xor	 eax, eax
  000a7	3b c6		 cmp	 eax, esi
  000a9	1b c0		 sbb	 eax, eax
  000ab	5e		 pop	 esi
  000ac	c6 45 00 00	 mov	 BYTE PTR [ebp], 0
  000b0	f7 d8		 neg	 eax
  000b2	5d		 pop	 ebp

; 1491 : 		}

  000b3	c2 08 00	 ret	 8

; 1489 : 			_Eos(0);	// new size is zero, just null terminate

$L229258:
  000b6	83 c5 04	 add	 ebp, 4
  000b9	c6 45 00 00	 mov	 BYTE PTR [ebp], 0
$L229260:

; 1490 : 		return (0 < _Newsize);	// return true only if more work to do

  000bd	33 c0		 xor	 eax, eax
  000bf	3b c6		 cmp	 eax, esi
  000c1	1b c0		 sbb	 eax, eax
  000c3	5e		 pop	 esi
  000c4	f7 d8		 neg	 eax
  000c6	5d		 pop	 ebp

; 1491 : 		}

  000c7	c2 08 00	 ret	 8
?_Grow@?$basic_string@DU?$char_traits@D@std@@V?$allocator@D@2@@std@@IAE_NI_N@Z ENDP ; std::basic_string<char,std::char_traits<char>,std::allocator<char> >::_Grow
_TEXT	ENDS
PUBLIC	?append@?$basic_string@DU?$char_traits@D@std@@V?$allocator@D@2@@std@@QAEAAV12@ID@Z ; std::basic_string<char,std::char_traits<char>,std::allocator<char> >::append
; Function compile flags: /Ogty
;	COMDAT ?append@?$basic_string@DU?$char_traits@D@std@@V?$allocator@D@2@@std@@QAEAAV12@ID@Z
_TEXT	SEGMENT
__Count$ = 8						; size = 4
__Ch$ = 12						; size = 1
?append@?$basic_string@DU?$char_traits@D@std@@V?$allocator@D@2@@std@@QAEAAV12@ID@Z PROC NEAR ; std::basic_string<char,std::char_traits<char>,std::allocator<char> >::append, COMDAT
; _this$ = ecx

; 542  : 		{	// append _Count * _Ch

  00000	56		 push	 esi
  00001	8b f1		 mov	 esi, ecx

; 543  : 		if (npos - _Mysize <= _Count)

  00003	8b 56 14	 mov	 edx, DWORD PTR [esi+20]
  00006	83 c8 ff	 or	 eax, -1
  00009	57		 push	 edi
  0000a	8b 7c 24 0c	 mov	 edi, DWORD PTR __Count$[esp+4]
  0000e	2b c2		 sub	 eax, edx
  00010	3b c7		 cmp	 eax, edi
  00012	77 05		 ja	 SHORT $L226231

; 544  : 			_String_base::_Xlen();	// result too long

  00014	e8 00 00 00 00	 call	 ?_Xlen@_String_base@std@@QBEXXZ ; std::_String_base::_Xlen
$L226231:

; 545  : 
; 546  : 		size_type _Num;
; 547  : 		if (0 < _Count && _Grow(_Num = _Mysize + _Count))

  00019	85 ff		 test	 edi, edi
  0001b	0f 86 a7 00 00
	00		 jbe	 $L229444
  00021	55		 push	 ebp
  00022	8b 6e 14	 mov	 ebp, DWORD PTR [esi+20]
  00025	03 ef		 add	 ebp, edi
  00027	83 fd fe	 cmp	 ebp, -2			; fffffffeH
  0002a	76 07		 jbe	 SHORT $L229363
  0002c	8b ce		 mov	 ecx, esi
  0002e	e8 00 00 00 00	 call	 ?_Xlen@_String_base@std@@QBEXXZ ; std::_String_base::_Xlen
$L229363:
  00033	8b 46 18	 mov	 eax, DWORD PTR [esi+24]
  00036	3b c5		 cmp	 eax, ebp
  00038	73 1b		 jae	 SHORT $L229364
  0003a	8b 4e 14	 mov	 ecx, DWORD PTR [esi+20]
  0003d	51		 push	 ecx
  0003e	55		 push	 ebp
  0003f	8b ce		 mov	 ecx, esi
  00041	e8 00 00 00 00	 call	 ?_Copy@?$basic_string@DU?$char_traits@D@std@@V?$allocator@D@2@@std@@IAEXII@Z ; std::basic_string<char,std::char_traits<char>,std::allocator<char> >::_Copy
  00046	85 ed		 test	 ebp, ebp
$L229446:
  00048	76 7d		 jbe	 SHORT $L229443

; 548  : 			{	// make room and append new stuff using assign
; 549  : 			_Traits::assign(_Myptr() + _Mysize, _Count, _Ch);

  0004a	83 7e 18 10	 cmp	 DWORD PTR [esi+24], 16	; 00000010H
  0004e	72 2d		 jb	 SHORT $L229415
  00050	8b 56 04	 mov	 edx, DWORD PTR [esi+4]
  00053	eb 2b		 jmp	 SHORT $L229416

; 545  : 
; 546  : 		size_type _Num;
; 547  : 		if (0 < _Count && _Grow(_Num = _Mysize + _Count))

$L229364:
  00055	85 ed		 test	 ebp, ebp
  00057	75 ef		 jne	 SHORT $L229446
  00059	83 f8 10	 cmp	 eax, 16			; 00000010H
  0005c	89 6e 14	 mov	 DWORD PTR [esi+20], ebp
  0005f	72 0e		 jb	 SHORT $L229407
  00061	8b 46 04	 mov	 eax, DWORD PTR [esi+4]
  00064	5d		 pop	 ebp
  00065	c6 00 00	 mov	 BYTE PTR [eax], 0
  00068	5f		 pop	 edi

; 551  : 			}
; 552  : 		return (*this);

  00069	8b c6		 mov	 eax, esi
  0006b	5e		 pop	 esi

; 553  : 		}

  0006c	c2 08 00	 ret	 8

; 545  : 
; 546  : 		size_type _Num;
; 547  : 		if (0 < _Count && _Grow(_Num = _Mysize + _Count))

$L229407:
  0006f	8d 46 04	 lea	 eax, DWORD PTR [esi+4]
  00072	5d		 pop	 ebp
  00073	c6 00 00	 mov	 BYTE PTR [eax], 0
  00076	5f		 pop	 edi

; 551  : 			}
; 552  : 		return (*this);

  00077	8b c6		 mov	 eax, esi
  00079	5e		 pop	 esi

; 553  : 		}

  0007a	c2 08 00	 ret	 8

; 548  : 			{	// make room and append new stuff using assign
; 549  : 			_Traits::assign(_Myptr() + _Mysize, _Count, _Ch);

$L229415:
  0007d	8d 56 04	 lea	 edx, DWORD PTR [esi+4]
$L229416:
  00080	0f be 44 24 14	 movsx	 eax, BYTE PTR __Ch$[esp+8]
  00085	53		 push	 ebx
  00086	8a d8		 mov	 bl, al
  00088	8a fb		 mov	 bh, bl
  0008a	8b cf		 mov	 ecx, edi
  0008c	8b 7e 14	 mov	 edi, DWORD PTR [esi+20]
  0008f	03 fa		 add	 edi, edx
  00091	8b d1		 mov	 edx, ecx
  00093	c1 e9 02	 shr	 ecx, 2
  00096	8b c3		 mov	 eax, ebx
  00098	c1 e0 10	 shl	 eax, 16			; 00000010H
  0009b	66 8b c3	 mov	 ax, bx
  0009e	5b		 pop	 ebx
  0009f	f3 ab		 rep stosd
  000a1	8b ca		 mov	 ecx, edx
  000a3	83 e1 03	 and	 ecx, 3
  000a6	f3 aa		 rep stosb

; 550  : 			_Eos(_Num);

  000a8	83 7e 18 10	 cmp	 DWORD PTR [esi+24], 16	; 00000010H
  000ac	89 6e 14	 mov	 DWORD PTR [esi+20], ebp
  000af	72 0f		 jb	 SHORT $L229437
  000b1	8b 46 04	 mov	 eax, DWORD PTR [esi+4]
  000b4	c6 04 28 00	 mov	 BYTE PTR [eax+ebp], 0
  000b8	5d		 pop	 ebp
  000b9	5f		 pop	 edi

; 551  : 			}
; 552  : 		return (*this);

  000ba	8b c6		 mov	 eax, esi
  000bc	5e		 pop	 esi

; 553  : 		}

  000bd	c2 08 00	 ret	 8

; 550  : 			_Eos(_Num);

$L229437:
  000c0	8d 46 04	 lea	 eax, DWORD PTR [esi+4]
  000c3	c6 04 28 00	 mov	 BYTE PTR [eax+ebp], 0
$L229443:
  000c7	5d		 pop	 ebp
$L229444:
  000c8	5f		 pop	 edi

; 551  : 			}
; 552  : 		return (*this);

  000c9	8b c6		 mov	 eax, esi
  000cb	5e		 pop	 esi

; 553  : 		}

  000cc	c2 08 00	 ret	 8
?append@?$basic_string@DU?$char_traits@D@std@@V?$allocator@D@2@@std@@QAEAAV12@ID@Z ENDP ; std::basic_string<char,std::char_traits<char>,std::allocator<char> >::append
_TEXT	ENDS
PUBLIC	??_G?$basic_string@DU?$char_traits@D@std@@V?$allocator@D@2@@std@@QAEPAXI@Z ; std::basic_string<char,std::char_traits<char>,std::allocator<char> >::`scalar deleting destructor'
; Function compile flags: /Ogty
;	COMDAT ??_G?$basic_string@DU?$char_traits@D@std@@V?$allocator@D@2@@std@@QAEPAXI@Z
_TEXT	SEGMENT
___flags$ = 8						; size = 4
??_G?$basic_string@DU?$char_traits@D@std@@V?$allocator@D@2@@std@@QAEPAXI@Z PROC NEAR ; std::basic_string<char,std::char_traits<char>,std::allocator<char> >::`scalar deleting destructor', COMDAT
; _this$ = ecx
  00000	56		 push	 esi
  00001	8b f1		 mov	 esi, ecx
  00003	83 7e 18 10	 cmp	 DWORD PTR [esi+24], 16	; 00000010H
  00007	72 0c		 jb	 SHORT $L229506
  00009	8b 46 04	 mov	 eax, DWORD PTR [esi+4]
  0000c	50		 push	 eax
  0000d	e8 00 00 00 00	 call	 ??3@YAXPAX@Z		; operator delete
  00012	83 c4 04	 add	 esp, 4
$L229506:
  00015	33 c0		 xor	 eax, eax
  00017	89 46 14	 mov	 DWORD PTR [esi+20], eax
  0001a	c7 46 18 0f 00
	00 00		 mov	 DWORD PTR [esi+24], 15	; 0000000fH
  00021	88 46 04	 mov	 BYTE PTR [esi+4], al
  00024	f6 44 24 08 01	 test	 BYTE PTR ___flags$[esp], 1
  00029	74 09		 je	 SHORT $L229523
  0002b	56		 push	 esi
  0002c	e8 00 00 00 00	 call	 ??3@YAXPAX@Z		; operator delete
  00031	83 c4 04	 add	 esp, 4
$L229523:
  00034	8b c6		 mov	 eax, esi
  00036	5e		 pop	 esi
  00037	c2 04 00	 ret	 4
??_G?$basic_string@DU?$char_traits@D@std@@V?$allocator@D@2@@std@@QAEPAXI@Z ENDP ; std::basic_string<char,std::char_traits<char>,std::allocator<char> >::`scalar deleting destructor'
_TEXT	ENDS
PUBLIC	??1logic_error@std@@UAE@XZ			; std::logic_error::~logic_error
PUBLIC	?what@logic_error@std@@UBEPBDXZ			; std::logic_error::what
PUBLIC	??_7logic_error@std@@6B@			; std::logic_error::`vftable'
PUBLIC	??_Glogic_error@std@@UAEPAXI@Z			; std::logic_error::`scalar deleting destructor'
EXTRN	??1exception@@UAE@XZ:NEAR			; exception::~exception
EXTRN	??_Elogic_error@std@@UAEPAXI@Z:NEAR		; std::logic_error::`vector deleting destructor'
;	COMDAT ??_7logic_error@std@@6B@
; File c:\program files\microsoft visual studio .net 2003\vc7\include\iosfwd
CONST	SEGMENT
??_7logic_error@std@@6B@ DD FLAT:??_Elogic_error@std@@UAEPAXI@Z ; std::logic_error::`vftable'
	DD	FLAT:?what@logic_error@std@@UBEPBDXZ
; Function compile flags: /Ogty
; File c:\program files\microsoft visual studio .net 2003\vc7\include\stdexcept
CONST	ENDS
;	COMDAT ??1logic_error@std@@UAE@XZ
_TEXT	SEGMENT
??1logic_error@std@@UAE@XZ PROC NEAR			; std::logic_error::~logic_error, COMDAT
; _this$ = ecx

; 23   : 		{}	// destroy the object

  00000	56		 push	 esi
  00001	8b f1		 mov	 esi, ecx
  00003	c7 06 00 00 00
	00		 mov	 DWORD PTR [esi], OFFSET FLAT:??_7logic_error@std@@6B@
  00009	83 7e 24 10	 cmp	 DWORD PTR [esi+36], 16	; 00000010H
  0000d	72 0c		 jb	 SHORT $L229585
  0000f	8b 46 10	 mov	 eax, DWORD PTR [esi+16]
  00012	50		 push	 eax
  00013	e8 00 00 00 00	 call	 ??3@YAXPAX@Z		; operator delete
  00018	83 c4 04	 add	 esp, 4
$L229585:
  0001b	33 c0		 xor	 eax, eax
  0001d	c7 46 24 0f 00
	00 00		 mov	 DWORD PTR [esi+36], 15	; 0000000fH
  00024	89 46 20	 mov	 DWORD PTR [esi+32], eax
  00027	88 46 10	 mov	 BYTE PTR [esi+16], al
  0002a	8b ce		 mov	 ecx, esi
  0002c	5e		 pop	 esi
  0002d	e9 00 00 00 00	 jmp	 ??1exception@@UAE@XZ	; exception::~exception
??1logic_error@std@@UAE@XZ ENDP				; std::logic_error::~logic_error
; Function compile flags: /Ogty
_TEXT	ENDS
;	COMDAT ?what@logic_error@std@@UBEPBDXZ
_TEXT	SEGMENT
?what@logic_error@std@@UBEPBDXZ PROC NEAR		; std::logic_error::what, COMDAT
; _this$ = ecx

; 27   : 		return (_Str.c_str());

  00000	83 79 24 10	 cmp	 DWORD PTR [ecx+36], 16	; 00000010H
  00004	72 04		 jb	 SHORT $L229617
  00006	8b 41 10	 mov	 eax, DWORD PTR [ecx+16]

; 28   : 		}

  00009	c3		 ret	 0

; 27   : 		return (_Str.c_str());

$L229617:
  0000a	8d 41 10	 lea	 eax, DWORD PTR [ecx+16]

; 28   : 		}

  0000d	c3		 ret	 0
?what@logic_error@std@@UBEPBDXZ ENDP			; std::logic_error::what
; Function compile flags: /Ogty
_TEXT	ENDS
;	COMDAT ??_Glogic_error@std@@UAEPAXI@Z
_TEXT	SEGMENT
___flags$ = 8						; size = 4
??_Glogic_error@std@@UAEPAXI@Z PROC NEAR		; std::logic_error::`scalar deleting destructor', COMDAT
; _this$ = ecx
  00000	56		 push	 esi
  00001	8b f1		 mov	 esi, ecx
  00003	e8 00 00 00 00	 call	 ??1logic_error@std@@UAE@XZ ; std::logic_error::~logic_error
  00008	f6 44 24 08 01	 test	 BYTE PTR ___flags$[esp], 1
  0000d	74 09		 je	 SHORT $L229625
  0000f	56		 push	 esi
  00010	e8 00 00 00 00	 call	 ??3@YAXPAX@Z		; operator delete
  00015	83 c4 04	 add	 esp, 4
$L229625:
  00018	8b c6		 mov	 eax, esi
  0001a	5e		 pop	 esi
  0001b	c2 04 00	 ret	 4
??_Glogic_error@std@@UAEPAXI@Z ENDP			; std::logic_error::`scalar deleting destructor'
_TEXT	ENDS
PUBLIC	?assign@?$basic_string@DU?$char_traits@D@std@@V?$allocator@D@2@@std@@QAEAAV12@ABV12@II@Z ; std::basic_string<char,std::char_traits<char>,std::allocator<char> >::assign
; Function compile flags: /Ogty
; File c:\program files\microsoft visual studio .net 2003\vc7\include\xstring
;	COMDAT ?assign@?$basic_string@DU?$char_traits@D@std@@V?$allocator@D@2@@std@@QAEAAV12@ABV12@II@Z
_TEXT	SEGMENT
__Right$ = 8						; size = 4
__Roff$ = 12						; size = 4
__Count$ = 16						; size = 4
?assign@?$basic_string@DU?$char_traits@D@std@@V?$allocator@D@2@@std@@QAEAAV12@ABV12@II@Z PROC NEAR ; std::basic_string<char,std::char_traits<char>,std::allocator<char> >::assign, COMDAT
; _this$ = ecx

; 590  : 		{	// assign _Right [_Roff, _Roff + _Count)

  00000	53		 push	 ebx
  00001	55		 push	 ebp
  00002	56		 push	 esi

; 591  : 		if (_Right.size() < _Roff)

  00003	8b 74 24 14	 mov	 esi, DWORD PTR __Roff$[esp+8]
  00007	57		 push	 edi
  00008	8b 7c 24 14	 mov	 edi, DWORD PTR __Right$[esp+12]
  0000c	39 77 14	 cmp	 DWORD PTR [edi+20], esi
  0000f	8b d9		 mov	 ebx, ecx
  00011	73 05		 jae	 SHORT $L220001

; 592  : 			_String_base::_Xran();	// _Roff off end

  00013	e8 00 00 00 00	 call	 ?_Xran@_String_base@std@@QBEXXZ ; std::_String_base::_Xran
$L220001:

; 593  : 		size_type _Num = _Right.size() - _Roff;

  00018	8b 6f 14	 mov	 ebp, DWORD PTR [edi+20]

; 594  : 		if (_Count < _Num)

  0001b	8b 44 24 1c	 mov	 eax, DWORD PTR __Count$[esp+12]
  0001f	2b ee		 sub	 ebp, esi
  00021	3b c5		 cmp	 eax, ebp
  00023	73 02		 jae	 SHORT $L220003

; 595  : 			_Num = _Count;	// trim _Num to size

  00025	8b e8		 mov	 ebp, eax
$L220003:

; 596  : 
; 597  : 		if (this == &_Right)

  00027	3b df		 cmp	 ebx, edi
  00029	75 1f		 jne	 SHORT $L220004

; 598  : 			erase((size_type)(_Roff + _Num)), erase(0, _Roff);	// substring

  0002b	6a ff		 push	 -1
  0002d	03 ee		 add	 ebp, esi
  0002f	55		 push	 ebp
  00030	8b cb		 mov	 ecx, ebx
  00032	e8 00 00 00 00	 call	 ?erase@?$basic_string@DU?$char_traits@D@std@@V?$allocator@D@2@@std@@QAEAAV12@II@Z ; std::basic_string<char,std::char_traits<char>,std::allocator<char> >::erase
  00037	56		 push	 esi
  00038	6a 00		 push	 0
  0003a	8b cb		 mov	 ecx, ebx
  0003c	e8 00 00 00 00	 call	 ?erase@?$basic_string@DU?$char_traits@D@std@@V?$allocator@D@2@@std@@QAEAAV12@II@Z ; std::basic_string<char,std::char_traits<char>,std::allocator<char> >::erase
  00041	5f		 pop	 edi
  00042	5e		 pop	 esi
  00043	5d		 pop	 ebp

; 603  : 			}
; 604  : 		return (*this);

  00044	8b c3		 mov	 eax, ebx
  00046	5b		 pop	 ebx

; 605  : 		}

  00047	c2 0c 00	 ret	 12			; 0000000cH
$L220004:

; 599  : 		else if (_Grow(_Num))

  0004a	83 fd fe	 cmp	 ebp, -2			; fffffffeH
  0004d	76 07		 jbe	 SHORT $L229734
  0004f	8b cb		 mov	 ecx, ebx
  00051	e8 00 00 00 00	 call	 ?_Xlen@_String_base@std@@QBEXXZ ; std::_String_base::_Xlen
$L229734:
  00056	8b 43 18	 mov	 eax, DWORD PTR [ebx+24]
  00059	3b c5		 cmp	 eax, ebp
  0005b	73 21		 jae	 SHORT $L229735
  0005d	8b 43 14	 mov	 eax, DWORD PTR [ebx+20]
  00060	50		 push	 eax
  00061	55		 push	 ebp
  00062	8b cb		 mov	 ecx, ebx
  00064	e8 00 00 00 00	 call	 ?_Copy@?$basic_string@DU?$char_traits@D@std@@V?$allocator@D@2@@std@@IAEXII@Z ; std::basic_string<char,std::char_traits<char>,std::allocator<char> >::_Copy
  00069	85 ed		 test	 ebp, ebp
$L229822:
  0006b	76 6d		 jbe	 SHORT $L229821

; 600  : 			{	// make room and assign new stuff
; 601  : 			_Traits::copy(_Myptr(), _Right._Myptr() + _Roff, _Num);

  0006d	8b 4f 18	 mov	 ecx, DWORD PTR [edi+24]
  00070	b8 10 00 00 00	 mov	 eax, 16			; 00000010H
  00075	3b c8		 cmp	 ecx, eax
  00077	72 2f		 jb	 SHORT $L229786
  00079	8b 57 04	 mov	 edx, DWORD PTR [edi+4]
  0007c	eb 2d		 jmp	 SHORT $L229787

; 599  : 		else if (_Grow(_Num))

$L229735:
  0007e	85 ed		 test	 ebp, ebp
  00080	75 e9		 jne	 SHORT $L229822
  00082	83 f8 10	 cmp	 eax, 16			; 00000010H
  00085	89 6b 14	 mov	 DWORD PTR [ebx+20], ebp
  00088	72 0f		 jb	 SHORT $L229778
  0008a	8b 43 04	 mov	 eax, DWORD PTR [ebx+4]
  0008d	5f		 pop	 edi
  0008e	5e		 pop	 esi
  0008f	c6 00 00	 mov	 BYTE PTR [eax], 0
  00092	5d		 pop	 ebp

; 603  : 			}
; 604  : 		return (*this);

  00093	8b c3		 mov	 eax, ebx
  00095	5b		 pop	 ebx

; 605  : 		}

  00096	c2 0c 00	 ret	 12			; 0000000cH

; 599  : 		else if (_Grow(_Num))

$L229778:
  00099	5f		 pop	 edi
  0009a	8d 43 04	 lea	 eax, DWORD PTR [ebx+4]
  0009d	5e		 pop	 esi
  0009e	c6 00 00	 mov	 BYTE PTR [eax], 0
  000a1	5d		 pop	 ebp

; 603  : 			}
; 604  : 		return (*this);

  000a2	8b c3		 mov	 eax, ebx
  000a4	5b		 pop	 ebx

; 605  : 		}

  000a5	c2 0c 00	 ret	 12			; 0000000cH

; 600  : 			{	// make room and assign new stuff
; 601  : 			_Traits::copy(_Myptr(), _Right._Myptr() + _Roff, _Num);

$L229786:
  000a8	8d 57 04	 lea	 edx, DWORD PTR [edi+4]
$L229787:
  000ab	39 43 18	 cmp	 DWORD PTR [ebx+24], eax
  000ae	8d 43 04	 lea	 eax, DWORD PTR [ebx+4]
  000b1	72 04		 jb	 SHORT $L229794
  000b3	8b 38		 mov	 edi, DWORD PTR [eax]
  000b5	eb 02		 jmp	 SHORT $L229795
$L229794:
  000b7	8b f8		 mov	 edi, eax
$L229795:
  000b9	03 f2		 add	 esi, edx
  000bb	8b cd		 mov	 ecx, ebp
  000bd	8b d1		 mov	 edx, ecx
  000bf	c1 e9 02	 shr	 ecx, 2
  000c2	f3 a5		 rep movsd
  000c4	8b ca		 mov	 ecx, edx
  000c6	83 e1 03	 and	 ecx, 3
  000c9	f3 a4		 rep movsb

; 602  : 			_Eos(_Num);

  000cb	83 7b 18 10	 cmp	 DWORD PTR [ebx+24], 16	; 00000010H
  000cf	89 6b 14	 mov	 DWORD PTR [ebx+20], ebp
  000d2	72 02		 jb	 SHORT $L229818
  000d4	8b 00		 mov	 eax, DWORD PTR [eax]
$L229818:
  000d6	c6 04 28 00	 mov	 BYTE PTR [eax+ebp], 0
$L229821:
  000da	5f		 pop	 edi
  000db	5e		 pop	 esi
  000dc	5d		 pop	 ebp

; 603  : 			}
; 604  : 		return (*this);

  000dd	8b c3		 mov	 eax, ebx
  000df	5b		 pop	 ebx

; 605  : 		}

  000e0	c2 0c 00	 ret	 12			; 0000000cH
?assign@?$basic_string@DU?$char_traits@D@std@@V?$allocator@D@2@@std@@QAEAAV12@ABV12@II@Z ENDP ; std::basic_string<char,std::char_traits<char>,std::allocator<char> >::assign
_TEXT	ENDS
PUBLIC	?assign@?$basic_string@DU?$char_traits@D@std@@V?$allocator@D@2@@std@@QAEAAV12@PBDI@Z ; std::basic_string<char,std::char_traits<char>,std::allocator<char> >::assign
; Function compile flags: /Ogty
;	COMDAT ?assign@?$basic_string@DU?$char_traits@D@std@@V?$allocator@D@2@@std@@QAEAAV12@PBDI@Z
_TEXT	SEGMENT
__Ptr$ = 8						; size = 4
__Num$ = 12						; size = 4
?assign@?$basic_string@DU?$char_traits@D@std@@V?$allocator@D@2@@std@@QAEAAV12@PBDI@Z PROC NEAR ; std::basic_string<char,std::char_traits<char>,std::allocator<char> >::assign, COMDAT
; _this$ = ecx

; 608  : 		{	// assign [_Ptr, _Ptr + _Num)

  00000	53		 push	 ebx
  00001	8b d9		 mov	 ebx, ecx

; 609  : 		if (_Inside(_Ptr))

  00003	8b 53 18	 mov	 edx, DWORD PTR [ebx+24]
  00006	83 fa 10	 cmp	 edx, 16			; 00000010H
  00009	56		 push	 esi
  0000a	57		 push	 edi
  0000b	72 05		 jb	 SHORT $L229844
  0000d	8b 43 04	 mov	 eax, DWORD PTR [ebx+4]
  00010	eb 03		 jmp	 SHORT $L229845
$L229844:
  00012	8d 43 04	 lea	 eax, DWORD PTR [ebx+4]
$L229845:
  00015	8b 74 24 10	 mov	 esi, DWORD PTR __Ptr$[esp+8]
  00019	3b f0		 cmp	 esi, eax
  0001b	72 34		 jb	 SHORT $L221367
  0001d	83 fa 10	 cmp	 edx, 16			; 00000010H
  00020	8d 43 04	 lea	 eax, DWORD PTR [ebx+4]
  00023	72 04		 jb	 SHORT $L229848
  00025	8b 08		 mov	 ecx, DWORD PTR [eax]
  00027	eb 02		 jmp	 SHORT $L229849
$L229848:
  00029	8b c8		 mov	 ecx, eax
$L229849:
  0002b	8b 7b 14	 mov	 edi, DWORD PTR [ebx+20]
  0002e	03 f9		 add	 edi, ecx
  00030	3b fe		 cmp	 edi, esi
  00032	76 1d		 jbe	 SHORT $L221367

; 610  : 			return (assign(*this, _Ptr - _Myptr(), _Num));	// substring

  00034	83 fa 10	 cmp	 edx, 16			; 00000010H
  00037	72 02		 jb	 SHORT $L229861
  00039	8b 00		 mov	 eax, DWORD PTR [eax]
$L229861:
  0003b	8b 4c 24 14	 mov	 ecx, DWORD PTR __Num$[esp+8]
  0003f	51		 push	 ecx
  00040	2b f0		 sub	 esi, eax
  00042	56		 push	 esi
  00043	53		 push	 ebx
  00044	8b cb		 mov	 ecx, ebx
  00046	e8 00 00 00 00	 call	 ?assign@?$basic_string@DU?$char_traits@D@std@@V?$allocator@D@2@@std@@QAEAAV12@ABV12@II@Z ; std::basic_string<char,std::char_traits<char>,std::allocator<char> >::assign
  0004b	5f		 pop	 edi
  0004c	5e		 pop	 esi
  0004d	5b		 pop	 ebx

; 618  : 		}

  0004e	c2 08 00	 ret	 8
$L221367:
  00051	55		 push	 ebp

; 611  : 
; 612  : 		if (_Grow(_Num))

  00052	8b 6c 24 18	 mov	 ebp, DWORD PTR __Num$[esp+12]
  00056	83 fd fe	 cmp	 ebp, -2			; fffffffeH
  00059	76 07		 jbe	 SHORT $L229959
  0005b	8b cb		 mov	 ecx, ebx
  0005d	e8 00 00 00 00	 call	 ?_Xlen@_String_base@std@@QBEXXZ ; std::_String_base::_Xlen
$L229959:
  00062	8b 43 18	 mov	 eax, DWORD PTR [ebx+24]
  00065	3b c5		 cmp	 eax, ebp
  00067	73 1b		 jae	 SHORT $L229960
  00069	8b 53 14	 mov	 edx, DWORD PTR [ebx+20]
  0006c	52		 push	 edx
  0006d	55		 push	 ebp
  0006e	8b cb		 mov	 ecx, ebx
  00070	e8 00 00 00 00	 call	 ?_Copy@?$basic_string@DU?$char_traits@D@std@@V?$allocator@D@2@@std@@IAEXII@Z ; std::basic_string<char,std::char_traits<char>,std::allocator<char> >::_Copy
  00075	85 ed		 test	 ebp, ebp
$L230040:
  00077	76 68		 jbe	 SHORT $L230037

; 613  : 			{	// make room and assign new stuff
; 614  : 			_Traits::copy(_Myptr(), _Ptr, _Num);

  00079	83 7b 18 10	 cmp	 DWORD PTR [ebx+24], 16	; 00000010H
  0007d	72 2f		 jb	 SHORT $L230012
  0007f	8b 7b 04	 mov	 edi, DWORD PTR [ebx+4]
  00082	eb 2d		 jmp	 SHORT $L230013

; 611  : 
; 612  : 		if (_Grow(_Num))

$L229960:
  00084	85 ed		 test	 ebp, ebp
  00086	75 ef		 jne	 SHORT $L230040
  00088	83 f8 10	 cmp	 eax, 16			; 00000010H
  0008b	89 6b 14	 mov	 DWORD PTR [ebx+20], ebp
  0008e	72 0f		 jb	 SHORT $L230003
  00090	8b 43 04	 mov	 eax, DWORD PTR [ebx+4]
  00093	5d		 pop	 ebp
  00094	5f		 pop	 edi
  00095	c6 00 00	 mov	 BYTE PTR [eax], 0
  00098	5e		 pop	 esi

; 616  : 			}
; 617  : 		return (*this);

  00099	8b c3		 mov	 eax, ebx
  0009b	5b		 pop	 ebx

; 618  : 		}

  0009c	c2 08 00	 ret	 8

; 611  : 
; 612  : 		if (_Grow(_Num))

$L230003:
  0009f	5d		 pop	 ebp
  000a0	8d 43 04	 lea	 eax, DWORD PTR [ebx+4]
  000a3	5f		 pop	 edi
  000a4	c6 00 00	 mov	 BYTE PTR [eax], 0
  000a7	5e		 pop	 esi

; 616  : 			}
; 617  : 		return (*this);

  000a8	8b c3		 mov	 eax, ebx
  000aa	5b		 pop	 ebx

; 618  : 		}

  000ab	c2 08 00	 ret	 8

; 613  : 			{	// make room and assign new stuff
; 614  : 			_Traits::copy(_Myptr(), _Ptr, _Num);

$L230012:
  000ae	8d 7b 04	 lea	 edi, DWORD PTR [ebx+4]
$L230013:
  000b1	8b cd		 mov	 ecx, ebp
  000b3	8b c1		 mov	 eax, ecx
  000b5	c1 e9 02	 shr	 ecx, 2
  000b8	f3 a5		 rep movsd
  000ba	8b c8		 mov	 ecx, eax
  000bc	83 e1 03	 and	 ecx, 3
  000bf	f3 a4		 rep movsb

; 615  : 			_Eos(_Num);

  000c1	83 7b 18 10	 cmp	 DWORD PTR [ebx+24], 16	; 00000010H
  000c5	89 6b 14	 mov	 DWORD PTR [ebx+20], ebp
  000c8	72 10		 jb	 SHORT $L230035
  000ca	8b 43 04	 mov	 eax, DWORD PTR [ebx+4]
  000cd	c6 04 28 00	 mov	 BYTE PTR [eax+ebp], 0
  000d1	5d		 pop	 ebp
  000d2	5f		 pop	 edi
  000d3	5e		 pop	 esi

; 616  : 			}
; 617  : 		return (*this);

  000d4	8b c3		 mov	 eax, ebx
  000d6	5b		 pop	 ebx

; 618  : 		}

  000d7	c2 08 00	 ret	 8

; 615  : 			_Eos(_Num);

$L230035:
  000da	8d 43 04	 lea	 eax, DWORD PTR [ebx+4]
  000dd	c6 04 28 00	 mov	 BYTE PTR [eax+ebp], 0
$L230037:
  000e1	5d		 pop	 ebp
  000e2	5f		 pop	 edi
  000e3	5e		 pop	 esi

; 616  : 			}
; 617  : 		return (*this);

  000e4	8b c3		 mov	 eax, ebx
  000e6	5b		 pop	 ebx

; 618  : 		}

  000e7	c2 08 00	 ret	 8
?assign@?$basic_string@DU?$char_traits@D@std@@V?$allocator@D@2@@std@@QAEAAV12@PBDI@Z ENDP ; std::basic_string<char,std::char_traits<char>,std::allocator<char> >::assign
_TEXT	ENDS
PUBLIC	??Y?$basic_string@DU?$char_traits@D@std@@V?$allocator@D@2@@std@@QAEAAV01@D@Z ; std::basic_string<char,std::char_traits<char>,std::allocator<char> >::operator+=
; Function compile flags: /Ogty
;	COMDAT ??Y?$basic_string@DU?$char_traits@D@std@@V?$allocator@D@2@@std@@QAEAAV01@D@Z
_TEXT	SEGMENT
__Ch$ = 8						; size = 1
??Y?$basic_string@DU?$char_traits@D@std@@V?$allocator@D@2@@std@@QAEAAV01@D@Z PROC NEAR ; std::basic_string<char,std::char_traits<char>,std::allocator<char> >::operator+=, COMDAT
; _this$ = ecx

; 492  : 		return (append((size_type)1, _Ch));

  00000	8b 44 24 04	 mov	 eax, DWORD PTR __Ch$[esp-4]
  00004	50		 push	 eax
  00005	6a 01		 push	 1
  00007	e8 00 00 00 00	 call	 ?append@?$basic_string@DU?$char_traits@D@std@@V?$allocator@D@2@@std@@QAEAAV12@ID@Z ; std::basic_string<char,std::char_traits<char>,std::allocator<char> >::append

; 493  : 		}

  0000c	c2 04 00	 ret	 4
??Y?$basic_string@DU?$char_traits@D@std@@V?$allocator@D@2@@std@@QAEAAV01@D@Z ENDP ; std::basic_string<char,std::char_traits<char>,std::allocator<char> >::operator+=
_TEXT	ENDS
PUBLIC	??$_Destroy@V?$basic_string@DU?$char_traits@D@std@@V?$allocator@D@2@@std@@@std@@YAXPAV?$basic_string@DU?$char_traits@D@std@@V?$allocator@D@2@@0@@Z ; std::_Destroy<std::basic_string<char,std::char_traits<char>,std::allocator<char> > >
; Function compile flags: /Ogty
; File c:\program files\microsoft visual studio .net 2003\vc7\include\xmemory
;	COMDAT ??$_Destroy@V?$basic_string@DU?$char_traits@D@std@@V?$allocator@D@2@@std@@@std@@YAXPAV?$basic_string@DU?$char_traits@D@std@@V?$allocator@D@2@@0@@Z
_TEXT	SEGMENT
__Ptr$ = 8						; size = 4
??$_Destroy@V?$basic_string@DU?$char_traits@D@std@@V?$allocator@D@2@@std@@@std@@YAXPAV?$basic_string@DU?$char_traits@D@std@@V?$allocator@D@2@@0@@Z PROC NEAR ; std::_Destroy<std::basic_string<char,std::char_traits<char>,std::allocator<char> > >, COMDAT

; 48   : 	{	// destroy object at _Ptr

  00000	56		 push	 esi

; 49   : 	_DESTRUCTOR(_Ty, _Ptr);

  00001	8b 74 24 08	 mov	 esi, DWORD PTR __Ptr$[esp]
  00005	83 7e 18 10	 cmp	 DWORD PTR [esi+24], 16	; 00000010H
  00009	72 0c		 jb	 SHORT $L230129
  0000b	8b 46 04	 mov	 eax, DWORD PTR [esi+4]
  0000e	50		 push	 eax
  0000f	e8 00 00 00 00	 call	 ??3@YAXPAX@Z		; operator delete
  00014	83 c4 04	 add	 esp, 4
$L230129:
  00017	33 c0		 xor	 eax, eax
  00019	c7 46 18 0f 00
	00 00		 mov	 DWORD PTR [esi+24], 15	; 0000000fH
  00020	89 46 14	 mov	 DWORD PTR [esi+20], eax
  00023	88 46 04	 mov	 BYTE PTR [esi+4], al
  00026	5e		 pop	 esi

; 50   : 	}

  00027	c3		 ret	 0
??$_Destroy@V?$basic_string@DU?$char_traits@D@std@@V?$allocator@D@2@@std@@@std@@YAXPAV?$basic_string@DU?$char_traits@D@std@@V?$allocator@D@2@@0@@Z ENDP ; std::_Destroy<std::basic_string<char,std::char_traits<char>,std::allocator<char> > >
_TEXT	ENDS
PUBLIC	??0?$basic_string@DU?$char_traits@D@std@@V?$allocator@D@2@@std@@QAE@ABV01@@Z ; std::basic_string<char,std::char_traits<char>,std::allocator<char> >::basic_string<char,std::char_traits<char>,std::allocator<char> >
; Function compile flags: /Ogty
; File c:\program files\microsoft visual studio .net 2003\vc7\include\xstring
;	COMDAT ??0?$basic_string@DU?$char_traits@D@std@@V?$allocator@D@2@@std@@QAE@ABV01@@Z
_TEXT	SEGMENT
__Right$ = 8						; size = 4
??0?$basic_string@DU?$char_traits@D@std@@V?$allocator@D@2@@std@@QAE@ABV01@@Z PROC NEAR ; std::basic_string<char,std::char_traits<char>,std::allocator<char> >::basic_string<char,std::char_traits<char>,std::allocator<char> >, COMDAT
; _this$ = ecx

; 323  : 		{	// construct by copying _Right

  00000	56		 push	 esi

; 324  : 		_Tidy();

  00001	33 c0		 xor	 eax, eax
  00003	8b f1		 mov	 esi, ecx

; 325  : 		assign(_Right, 0, npos);

  00005	6a ff		 push	 -1
  00007	89 46 14	 mov	 DWORD PTR [esi+20], eax
  0000a	c7 46 18 0f 00
	00 00		 mov	 DWORD PTR [esi+24], 15	; 0000000fH
  00011	50		 push	 eax
  00012	88 46 04	 mov	 BYTE PTR [esi+4], al
  00015	8b 44 24 10	 mov	 eax, DWORD PTR __Right$[esp+8]
  00019	50		 push	 eax
  0001a	e8 00 00 00 00	 call	 ?assign@?$basic_string@DU?$char_traits@D@std@@V?$allocator@D@2@@std@@QAEAAV12@ABV12@II@Z ; std::basic_string<char,std::char_traits<char>,std::allocator<char> >::assign

; 326  : 		}

  0001f	8b c6		 mov	 eax, esi
  00021	5e		 pop	 esi
  00022	c2 04 00	 ret	 4
??0?$basic_string@DU?$char_traits@D@std@@V?$allocator@D@2@@std@@QAE@ABV01@@Z ENDP ; std::basic_string<char,std::char_traits<char>,std::allocator<char> >::basic_string<char,std::char_traits<char>,std::allocator<char> >
_TEXT	ENDS
PUBLIC	?assign@?$basic_string@DU?$char_traits@D@std@@V?$allocator@D@2@@std@@QAEAAV12@ABV12@@Z ; std::basic_string<char,std::char_traits<char>,std::allocator<char> >::assign
; Function compile flags: /Ogty
;	COMDAT ?assign@?$basic_string@DU?$char_traits@D@std@@V?$allocator@D@2@@std@@QAEAAV12@ABV12@@Z
_TEXT	SEGMENT
__Right$ = 8						; size = 4
?assign@?$basic_string@DU?$char_traits@D@std@@V?$allocator@D@2@@std@@QAEAAV12@ABV12@@Z PROC NEAR ; std::basic_string<char,std::char_traits<char>,std::allocator<char> >::assign, COMDAT
; _this$ = ecx

; 585  : 		return (assign(_Right, 0, npos));

  00000	8b 44 24 04	 mov	 eax, DWORD PTR __Right$[esp-4]
  00004	6a ff		 push	 -1
  00006	6a 00		 push	 0
  00008	50		 push	 eax
  00009	e8 00 00 00 00	 call	 ?assign@?$basic_string@DU?$char_traits@D@std@@V?$allocator@D@2@@std@@QAEAAV12@ABV12@II@Z ; std::basic_string<char,std::char_traits<char>,std::allocator<char> >::assign

; 586  : 		}

  0000e	c2 04 00	 ret	 4
?assign@?$basic_string@DU?$char_traits@D@std@@V?$allocator@D@2@@std@@QAEAAV12@ABV12@@Z ENDP ; std::basic_string<char,std::char_traits<char>,std::allocator<char> >::assign
_TEXT	ENDS
PUBLIC	?assign@?$basic_string@DU?$char_traits@D@std@@V?$allocator@D@2@@std@@QAEAAV12@PBD@Z ; std::basic_string<char,std::char_traits<char>,std::allocator<char> >::assign
; Function compile flags: /Ogty
;	COMDAT ?assign@?$basic_string@DU?$char_traits@D@std@@V?$allocator@D@2@@std@@QAEAAV12@PBD@Z
_TEXT	SEGMENT
__Ptr$ = 8						; size = 4
?assign@?$basic_string@DU?$char_traits@D@std@@V?$allocator@D@2@@std@@QAEAAV12@PBD@Z PROC NEAR ; std::basic_string<char,std::char_traits<char>,std::allocator<char> >::assign, COMDAT
; _this$ = ecx

; 621  : 		{	// assign [_Ptr, <null>)

  00000	56		 push	 esi

; 622  : 		return (assign(_Ptr, _Traits::length(_Ptr)));

  00001	8b 74 24 08	 mov	 esi, DWORD PTR __Ptr$[esp]
  00005	8b c6		 mov	 eax, esi
  00007	57		 push	 edi
  00008	8d 78 01	 lea	 edi, DWORD PTR [eax+1]
  0000b	eb 03 8d 49 00	 npad	 5
$L230222:
  00010	8a 10		 mov	 dl, BYTE PTR [eax]
  00012	40		 inc	 eax
  00013	84 d2		 test	 dl, dl
  00015	75 f9		 jne	 SHORT $L230222
  00017	2b c7		 sub	 eax, edi
  00019	50		 push	 eax
  0001a	56		 push	 esi
  0001b	e8 00 00 00 00	 call	 ?assign@?$basic_string@DU?$char_traits@D@std@@V?$allocator@D@2@@std@@QAEAAV12@PBDI@Z ; std::basic_string<char,std::char_traits<char>,std::allocator<char> >::assign
  00020	5f		 pop	 edi
  00021	5e		 pop	 esi

; 623  : 		}

  00022	c2 04 00	 ret	 4
?assign@?$basic_string@DU?$char_traits@D@std@@V?$allocator@D@2@@std@@QAEAAV12@PBD@Z ENDP ; std::basic_string<char,std::char_traits<char>,std::allocator<char> >::assign
_TEXT	ENDS
PUBLIC	?destroy@?$allocator@V?$basic_string@DU?$char_traits@D@std@@V?$allocator@D@2@@std@@@std@@QAEXPAV?$basic_string@DU?$char_traits@D@std@@V?$allocator@D@2@@2@@Z ; std::allocator<std::basic_string<char,std::char_traits<char>,std::allocator<char> > >::destroy
; Function compile flags: /Ogty
; File c:\program files\microsoft visual studio .net 2003\vc7\include\xmemory
;	COMDAT ?destroy@?$allocator@V?$basic_string@DU?$char_traits@D@std@@V?$allocator@D@2@@std@@@std@@QAEXPAV?$basic_string@DU?$char_traits@D@std@@V?$allocator@D@2@@2@@Z
_TEXT	SEGMENT
__Ptr$ = 8						; size = 4
?destroy@?$allocator@V?$basic_string@DU?$char_traits@D@std@@V?$allocator@D@2@@std@@@std@@QAEXPAV?$basic_string@DU?$char_traits@D@std@@V?$allocator@D@2@@2@@Z PROC NEAR ; std::allocator<std::basic_string<char,std::char_traits<char>,std::allocator<char> > >::destroy, COMDAT
; _this$ = ecx

; 151  : 		{	// destroy object at _Ptr

  00000	56		 push	 esi

; 152  : 		_Destroy(_Ptr);

  00001	8b 74 24 08	 mov	 esi, DWORD PTR __Ptr$[esp]
  00005	83 7e 18 10	 cmp	 DWORD PTR [esi+24], 16	; 00000010H
  00009	72 0c		 jb	 SHORT $L230336
  0000b	8b 46 04	 mov	 eax, DWORD PTR [esi+4]
  0000e	50		 push	 eax
  0000f	e8 00 00 00 00	 call	 ??3@YAXPAX@Z		; operator delete
  00014	83 c4 04	 add	 esp, 4
$L230336:
  00017	33 c0		 xor	 eax, eax
  00019	c7 46 18 0f 00
	00 00		 mov	 DWORD PTR [esi+24], 15	; 0000000fH
  00020	89 46 14	 mov	 DWORD PTR [esi+20], eax
  00023	88 46 04	 mov	 BYTE PTR [esi+4], al
  00026	5e		 pop	 esi

; 153  : 		}

  00027	c2 04 00	 ret	 4
?destroy@?$allocator@V?$basic_string@DU?$char_traits@D@std@@V?$allocator@D@2@@std@@@std@@QAEXPAV?$basic_string@DU?$char_traits@D@std@@V?$allocator@D@2@@2@@Z ENDP ; std::allocator<std::basic_string<char,std::char_traits<char>,std::allocator<char> > >::destroy
_TEXT	ENDS
PUBLIC	??$_Construct@V?$basic_string@DU?$char_traits@D@std@@V?$allocator@D@2@@std@@V12@@std@@YAXPAV?$basic_string@DU?$char_traits@D@std@@V?$allocator@D@2@@0@ABV10@@Z ; std::_Construct<std::basic_string<char,std::char_traits<char>,std::allocator<char> >,std::basic_string<char,std::char_traits<char>,std::allocator<char> > >
;	COMDAT xdata$x
; File c:\program files\microsoft visual studio .net 2003\vc7\include\iosfwd
xdata$x	SEGMENT
$T230461 DD	0ffffffffH
	DD	FLAT:$L230360
$T230459 DD	019930520H
	DD	01H
	DD	FLAT:$T230461
	DD	2 DUP(00H)
	DD	2 DUP(00H)
; Function compile flags: /Ogty
; File c:\program files\microsoft visual studio .net 2003\vc7\include\xmemory
xdata$x	ENDS
;	COMDAT ??$_Construct@V?$basic_string@DU?$char_traits@D@std@@V?$allocator@D@2@@std@@V12@@std@@YAXPAV?$basic_string@DU?$char_traits@D@std@@V?$allocator@D@2@@0@ABV10@@Z
_TEXT	SEGMENT
$T230357 = -16						; size = 4
__$EHRec$ = -12						; size = 12
__Ptr$ = 8						; size = 4
__Val$ = 12						; size = 4
??$_Construct@V?$basic_string@DU?$char_traits@D@std@@V?$allocator@D@2@@std@@V12@@std@@YAXPAV?$basic_string@DU?$char_traits@D@std@@V?$allocator@D@2@@0@ABV10@@Z PROC NEAR ; std::_Construct<std::basic_string<char,std::char_traits<char>,std::allocator<char> >,std::basic_string<char,std::char_traits<char>,std::allocator<char> > >, COMDAT

; 41   : 	{	// construct object at _Ptr with value _Val

  00000	6a ff		 push	 -1
  00002	68 00 00 00 00	 push	 __ehhandler$??$_Construct@V?$basic_string@DU?$char_traits@D@std@@V?$allocator@D@2@@std@@V12@@std@@YAXPAV?$basic_string@DU?$char_traits@D@std@@V?$allocator@D@2@@0@ABV10@@Z
  00007	64 a1 00 00 00
	00		 mov	 eax, DWORD PTR fs:__except_list
  0000d	50		 push	 eax
  0000e	64 89 25 00 00
	00 00		 mov	 DWORD PTR fs:__except_list, esp
  00015	51		 push	 ecx

; 42   : 	new ((void _FARQ *)_Ptr) _T1(_Val);

  00016	8b 4c 24 14	 mov	 ecx, DWORD PTR __Ptr$[esp+12]
  0001a	89 0c 24	 mov	 DWORD PTR $T230357[esp+16], ecx
  0001d	33 c0		 xor	 eax, eax
  0001f	3b c8		 cmp	 ecx, eax
  00021	89 44 24 0c	 mov	 DWORD PTR __$EHRec$[esp+24], eax
  00025	74 1a		 je	 SHORT $L230358
  00027	6a ff		 push	 -1
  00029	89 41 14	 mov	 DWORD PTR [ecx+20], eax
  0002c	c7 41 18 0f 00
	00 00		 mov	 DWORD PTR [ecx+24], 15	; 0000000fH
  00033	50		 push	 eax
  00034	88 41 04	 mov	 BYTE PTR [ecx+4], al
  00037	8b 44 24 20	 mov	 eax, DWORD PTR __Val$[esp+20]
  0003b	50		 push	 eax
  0003c	e8 00 00 00 00	 call	 ?assign@?$basic_string@DU?$char_traits@D@std@@V?$allocator@D@2@@std@@QAEAAV12@ABV12@II@Z ; std::basic_string<char,std::char_traits<char>,std::allocator<char> >::assign
$L230358:

; 43   : 	}

  00041	8b 4c 24 04	 mov	 ecx, DWORD PTR __$EHRec$[esp+16]
  00045	64 89 0d 00 00
	00 00		 mov	 DWORD PTR fs:__except_list, ecx
  0004c	83 c4 10	 add	 esp, 16			; 00000010H
  0004f	c3		 ret	 0
_TEXT	ENDS
;	COMDAT text$x
text$x	SEGMENT
$L230360:
  00000	8b 45 04	 mov	 eax, DWORD PTR __Ptr$[ebp-4]
  00003	50		 push	 eax
  00004	8b 4d f0	 mov	 ecx, DWORD PTR $T230357[ebp]
  00007	51		 push	 ecx
  00008	e8 00 00 00 00	 call	 ??3@YAXPAX0@Z		; operator delete
  0000d	83 c4 08	 add	 esp, 8
  00010	c3		 ret	 0
__ehhandler$??$_Construct@V?$basic_string@DU?$char_traits@D@std@@V?$allocator@D@2@@std@@V12@@std@@YAXPAV?$basic_string@DU?$char_traits@D@std@@V?$allocator@D@2@@0@ABV10@@Z:
  00011	b8 00 00 00 00	 mov	 eax, OFFSET FLAT:$T230459
  00016	e9 00 00 00 00	 jmp	 ___CxxFrameHandler
text$x	ENDS
??$_Construct@V?$basic_string@DU?$char_traits@D@std@@V?$allocator@D@2@@std@@V12@@std@@YAXPAV?$basic_string@DU?$char_traits@D@std@@V?$allocator@D@2@@0@ABV10@@Z ENDP ; std::_Construct<std::basic_string<char,std::char_traits<char>,std::allocator<char> >,std::basic_string<char,std::char_traits<char>,std::allocator<char> > >
PUBLIC	??0logic_error@std@@QAE@ABV?$basic_string@DU?$char_traits@D@std@@V?$allocator@D@2@@1@@Z ; std::logic_error::logic_error
EXTRN	??0exception@@QAE@XZ:NEAR			; exception::exception
;	COMDAT xdata$x
; File c:\program files\microsoft visual studio .net 2003\vc7\include\iosfwd
xdata$x	SEGMENT
$T230567 DD	0ffffffffH
	DD	FLAT:$L230467
$T230565 DD	019930520H
	DD	01H
	DD	FLAT:$T230567
	DD	2 DUP(00H)
	DD	2 DUP(00H)
; Function compile flags: /Ogty
; File c:\program files\microsoft visual studio .net 2003\vc7\include\stdexcept
xdata$x	ENDS
;	COMDAT ??0logic_error@std@@QAE@ABV?$basic_string@DU?$char_traits@D@std@@V?$allocator@D@2@@1@@Z
_TEXT	SEGMENT
_this$ = -16						; size = 4
__$EHRec$ = -12						; size = 12
__Message$ = 8						; size = 4
??0logic_error@std@@QAE@ABV?$basic_string@DU?$char_traits@D@std@@V?$allocator@D@2@@1@@Z PROC NEAR ; std::logic_error::logic_error, COMDAT
; _this$ = ecx

; 19   : 		{	// construct from message string

  00000	6a ff		 push	 -1
  00002	68 00 00 00 00	 push	 __ehhandler$??0logic_error@std@@QAE@ABV?$basic_string@DU?$char_traits@D@std@@V?$allocator@D@2@@1@@Z
  00007	64 a1 00 00 00
	00		 mov	 eax, DWORD PTR fs:__except_list
  0000d	50		 push	 eax
  0000e	64 89 25 00 00
	00 00		 mov	 DWORD PTR fs:__except_list, esp
  00015	51		 push	 ecx
  00016	56		 push	 esi
  00017	8b f1		 mov	 esi, ecx
  00019	89 74 24 04	 mov	 DWORD PTR _this$[esp+20], esi
  0001d	e8 00 00 00 00	 call	 ??0exception@@QAE@XZ	; exception::exception
  00022	33 c0		 xor	 eax, eax
  00024	8d 4e 0c	 lea	 ecx, DWORD PTR [esi+12]
  00027	c7 06 00 00 00
	00		 mov	 DWORD PTR [esi], OFFSET FLAT:??_7logic_error@std@@6B@
  0002d	6a ff		 push	 -1
  0002f	89 41 14	 mov	 DWORD PTR [ecx+20], eax
  00032	c7 41 18 0f 00
	00 00		 mov	 DWORD PTR [ecx+24], 15	; 0000000fH
  00039	50		 push	 eax
  0003a	89 44 24 18	 mov	 DWORD PTR __$EHRec$[esp+36], eax
  0003e	88 41 04	 mov	 BYTE PTR [ecx+4], al
  00041	8b 44 24 20	 mov	 eax, DWORD PTR __Message$[esp+24]
  00045	50		 push	 eax
  00046	e8 00 00 00 00	 call	 ?assign@?$basic_string@DU?$char_traits@D@std@@V?$allocator@D@2@@std@@QAEAAV12@ABV12@II@Z ; std::basic_string<char,std::char_traits<char>,std::allocator<char> >::assign

; 20   : 		}

  0004b	8b 4c 24 08	 mov	 ecx, DWORD PTR __$EHRec$[esp+20]
  0004f	8b c6		 mov	 eax, esi
  00051	5e		 pop	 esi
  00052	64 89 0d 00 00
	00 00		 mov	 DWORD PTR fs:__except_list, ecx
  00059	83 c4 10	 add	 esp, 16			; 00000010H
  0005c	c2 04 00	 ret	 4
_TEXT	ENDS
;	COMDAT text$x
text$x	SEGMENT
$L230467:
  00000	8b 4d f0	 mov	 ecx, DWORD PTR _this$[ebp]
  00003	e9 00 00 00 00	 jmp	 ??1exception@@UAE@XZ	; exception::~exception
__ehhandler$??0logic_error@std@@QAE@ABV?$basic_string@DU?$char_traits@D@std@@V?$allocator@D@2@@1@@Z:
  00008	b8 00 00 00 00	 mov	 eax, OFFSET FLAT:$T230565
  0000d	e9 00 00 00 00	 jmp	 ___CxxFrameHandler
text$x	ENDS
??0logic_error@std@@QAE@ABV?$basic_string@DU?$char_traits@D@std@@V?$allocator@D@2@@1@@Z ENDP ; std::logic_error::logic_error
PUBLIC	??0length_error@std@@QAE@ABV?$basic_string@DU?$char_traits@D@std@@V?$allocator@D@2@@1@@Z ; std::length_error::length_error
PUBLIC	??_7length_error@std@@6B@			; std::length_error::`vftable'
PUBLIC	??_Glength_error@std@@UAEPAXI@Z			; std::length_error::`scalar deleting destructor'
EXTRN	??_Elength_error@std@@UAEPAXI@Z:NEAR		; std::length_error::`vector deleting destructor'
;	COMDAT ??_7length_error@std@@6B@
CONST	SEGMENT
??_7length_error@std@@6B@ DD FLAT:??_Elength_error@std@@UAEPAXI@Z ; std::length_error::`vftable'
	DD	FLAT:?what@logic_error@std@@UBEPBDXZ
; Function compile flags: /Ogty
CONST	ENDS
;	COMDAT ??0length_error@std@@QAE@ABV?$basic_string@DU?$char_traits@D@std@@V?$allocator@D@2@@1@@Z
_TEXT	SEGMENT
__Message$ = 8						; size = 4
??0length_error@std@@QAE@ABV?$basic_string@DU?$char_traits@D@std@@V?$allocator@D@2@@1@@Z PROC NEAR ; std::length_error::length_error, COMDAT
; _this$ = ecx

; 95   : 		{	// construct from message string

  00000	8b 44 24 04	 mov	 eax, DWORD PTR __Message$[esp-4]
  00004	56		 push	 esi
  00005	50		 push	 eax
  00006	8b f1		 mov	 esi, ecx
  00008	e8 00 00 00 00	 call	 ??0logic_error@std@@QAE@ABV?$basic_string@DU?$char_traits@D@std@@V?$allocator@D@2@@1@@Z ; std::logic_error::logic_error
  0000d	c7 06 00 00 00
	00		 mov	 DWORD PTR [esi], OFFSET FLAT:??_7length_error@std@@6B@

; 96   : 		}

  00013	8b c6		 mov	 eax, esi
  00015	5e		 pop	 esi
  00016	c2 04 00	 ret	 4
??0length_error@std@@QAE@ABV?$basic_string@DU?$char_traits@D@std@@V?$allocator@D@2@@1@@Z ENDP ; std::length_error::length_error
_TEXT	ENDS
PUBLIC	??1length_error@std@@UAE@XZ			; std::length_error::~length_error
; Function compile flags: /Ogty
;	COMDAT ??_Glength_error@std@@UAEPAXI@Z
_TEXT	SEGMENT
___flags$ = 8						; size = 4
??_Glength_error@std@@UAEPAXI@Z PROC NEAR		; std::length_error::`scalar deleting destructor', COMDAT
; _this$ = ecx
  00000	56		 push	 esi
  00001	8b f1		 mov	 esi, ecx
  00003	e8 00 00 00 00	 call	 ??1length_error@std@@UAE@XZ ; std::length_error::~length_error
  00008	f6 44 24 08 01	 test	 BYTE PTR ___flags$[esp], 1
  0000d	74 09		 je	 SHORT $L230577
  0000f	56		 push	 esi
  00010	e8 00 00 00 00	 call	 ??3@YAXPAX@Z		; operator delete
  00015	83 c4 04	 add	 esp, 4
$L230577:
  00018	8b c6		 mov	 eax, esi
  0001a	5e		 pop	 esi
  0001b	c2 04 00	 ret	 4
??_Glength_error@std@@UAEPAXI@Z ENDP			; std::length_error::`scalar deleting destructor'
; Function compile flags: /Ogty
_TEXT	ENDS
;	COMDAT ??1length_error@std@@UAE@XZ
_TEXT	SEGMENT
??1length_error@std@@UAE@XZ PROC NEAR			; std::length_error::~length_error, COMDAT
; _this$ = ecx

; 99   : 		{}	// destroy the object

  00000	56		 push	 esi
  00001	8b f1		 mov	 esi, ecx
  00003	c7 06 00 00 00
	00		 mov	 DWORD PTR [esi], OFFSET FLAT:??_7logic_error@std@@6B@
  00009	83 7e 24 10	 cmp	 DWORD PTR [esi+36], 16	; 00000010H
  0000d	72 0c		 jb	 SHORT $L230665
  0000f	8b 46 10	 mov	 eax, DWORD PTR [esi+16]
  00012	50		 push	 eax
  00013	e8 00 00 00 00	 call	 ??3@YAXPAX@Z		; operator delete
  00018	83 c4 04	 add	 esp, 4
$L230665:
  0001b	33 c0		 xor	 eax, eax
  0001d	c7 46 24 0f 00
	00 00		 mov	 DWORD PTR [esi+36], 15	; 0000000fH
  00024	89 46 20	 mov	 DWORD PTR [esi+32], eax
  00027	88 46 10	 mov	 BYTE PTR [esi+16], al
  0002a	8b ce		 mov	 ecx, esi
  0002c	5e		 pop	 esi
  0002d	e9 00 00 00 00	 jmp	 ??1exception@@UAE@XZ	; exception::~exception
??1length_error@std@@UAE@XZ ENDP			; std::length_error::~length_error
_TEXT	ENDS
PUBLIC	??0?$basic_string@DU?$char_traits@D@std@@V?$allocator@D@2@@std@@QAE@PBD@Z ; std::basic_string<char,std::char_traits<char>,std::allocator<char> >::basic_string<char,std::char_traits<char>,std::allocator<char> >
; Function compile flags: /Ogty
; File c:\program files\microsoft visual studio .net 2003\vc7\include\xstring
;	COMDAT ??0?$basic_string@DU?$char_traits@D@std@@V?$allocator@D@2@@std@@QAE@PBD@Z
_TEXT	SEGMENT
__Ptr$ = 8						; size = 4
??0?$basic_string@DU?$char_traits@D@std@@V?$allocator@D@2@@std@@QAE@PBD@Z PROC NEAR ; std::basic_string<char,std::char_traits<char>,std::allocator<char> >::basic_string<char,std::char_traits<char>,std::allocator<char> >, COMDAT
; _this$ = ecx

; 361  : 		_Tidy();
; 362  : 		assign(_Ptr);

  00000	8b 54 24 04	 mov	 edx, DWORD PTR __Ptr$[esp-4]
  00004	56		 push	 esi
  00005	8b f1		 mov	 esi, ecx
  00007	8b c2		 mov	 eax, edx
  00009	57		 push	 edi
  0000a	c7 46 18 0f 00
	00 00		 mov	 DWORD PTR [esi+24], 15	; 0000000fH
  00011	c7 46 14 00 00
	00 00		 mov	 DWORD PTR [esi+20], 0
  00018	c6 46 04 00	 mov	 BYTE PTR [esi+4], 0
  0001c	8d 78 01	 lea	 edi, DWORD PTR [eax+1]
  0001f	90		 npad	 1
$L230759:
  00020	8a 08		 mov	 cl, BYTE PTR [eax]
  00022	40		 inc	 eax
  00023	84 c9		 test	 cl, cl
  00025	75 f9		 jne	 SHORT $L230759
  00027	2b c7		 sub	 eax, edi
  00029	50		 push	 eax
  0002a	52		 push	 edx
  0002b	8b ce		 mov	 ecx, esi
  0002d	e8 00 00 00 00	 call	 ?assign@?$basic_string@DU?$char_traits@D@std@@V?$allocator@D@2@@std@@QAEAAV12@PBDI@Z ; std::basic_string<char,std::char_traits<char>,std::allocator<char> >::assign
  00032	5f		 pop	 edi

; 363  : 		}

  00033	8b c6		 mov	 eax, esi
  00035	5e		 pop	 esi
  00036	c2 04 00	 ret	 4
??0?$basic_string@DU?$char_traits@D@std@@V?$allocator@D@2@@std@@QAE@PBD@Z ENDP ; std::basic_string<char,std::char_traits<char>,std::allocator<char> >::basic_string<char,std::char_traits<char>,std::allocator<char> >
_TEXT	ENDS
PUBLIC	??4?$basic_string@DU?$char_traits@D@std@@V?$allocator@D@2@@std@@QAEAAV01@ABV01@@Z ; std::basic_string<char,std::char_traits<char>,std::allocator<char> >::operator=
; Function compile flags: /Ogty
;	COMDAT ??4?$basic_string@DU?$char_traits@D@std@@V?$allocator@D@2@@std@@QAEAAV01@ABV01@@Z
_TEXT	SEGMENT
__Right$ = 8						; size = 4
??4?$basic_string@DU?$char_traits@D@std@@V?$allocator@D@2@@std@@QAEAAV01@ABV01@@Z PROC NEAR ; std::basic_string<char,std::char_traits<char>,std::allocator<char> >::operator=, COMDAT
; _this$ = ecx

; 467  : 		return (assign(_Right));

  00000	8b 44 24 04	 mov	 eax, DWORD PTR __Right$[esp-4]
  00004	6a ff		 push	 -1
  00006	6a 00		 push	 0
  00008	50		 push	 eax
  00009	e8 00 00 00 00	 call	 ?assign@?$basic_string@DU?$char_traits@D@std@@V?$allocator@D@2@@std@@QAEAAV12@ABV12@II@Z ; std::basic_string<char,std::char_traits<char>,std::allocator<char> >::assign

; 468  : 		}

  0000e	c2 04 00	 ret	 4
??4?$basic_string@DU?$char_traits@D@std@@V?$allocator@D@2@@std@@QAEAAV01@ABV01@@Z ENDP ; std::basic_string<char,std::char_traits<char>,std::allocator<char> >::operator=
_TEXT	ENDS
PUBLIC	??_C@_0BD@OLBABOEK@vector?$DMT?$DO?5too?5long?$AA@ ; `string'
PUBLIC	__TI3?AVlength_error@std@@
PUBLIC	__CTA3?AVlength_error@std@@
PUBLIC	??_R0?AVlength_error@std@@@8			; std::length_error `RTTI Type Descriptor'
PUBLIC	__CT??_R0?AVlength_error@std@@@8??0length_error@std@@QAE@ABV01@@Z40
PUBLIC	??_R0?AVlogic_error@std@@@8			; std::logic_error `RTTI Type Descriptor'
PUBLIC	__CT??_R0?AVlogic_error@std@@@8??0logic_error@std@@QAE@ABV01@@Z40
PUBLIC	??_R0?AVexception@@@8				; exception `RTTI Type Descriptor'
PUBLIC	__CT??_R0?AVexception@@@8??0exception@@QAE@ABV0@@Z12
PUBLIC	?_Xlen@?$vector@V?$basic_string@DU?$char_traits@D@std@@V?$allocator@D@2@@std@@V?$allocator@V?$basic_string@DU?$char_traits@D@std@@V?$allocator@D@2@@std@@@2@@std@@IBEXXZ ; std::vector<std::basic_string<char,std::char_traits<char>,std::allocator<char> >,std::allocator<std::basic_string<char,std::char_traits<char>,std::allocator<char> > > >::_Xlen
PUBLIC	??0logic_error@std@@QAE@ABV01@@Z		; std::logic_error::logic_error
PUBLIC	??0length_error@std@@QAE@ABV01@@Z		; std::length_error::length_error
EXTRN	??0exception@@QAE@ABV0@@Z:NEAR			; exception::exception
EXTRN	??_7type_info@@6B@:DWORD			; type_info::`vftable'
;	COMDAT xdata$x
; File c:\program files\microsoft visual studio .net 2003\vc7\include\stdexcept
xdata$x	SEGMENT
$T230886 DD	0ffffffffH
	DD	FLAT:$L230771
$T230883 DD	019930520H
	DD	01H
	DD	FLAT:$T230886
	DD	2 DUP(00H)
	DD	2 DUP(00H)
xdata$x	ENDS
;	COMDAT ??_C@_0BD@OLBABOEK@vector?$DMT?$DO?5too?5long?$AA@
CONST	SEGMENT
??_C@_0BD@OLBABOEK@vector?$DMT?$DO?5too?5long?$AA@ DB 'vector<T> too long'
	DB	00H						; `string'
CONST	ENDS
;	COMDAT __TI3?AVlength_error@std@@
xdata$x	SEGMENT
__TI3?AVlength_error@std@@ DD 00H
	DD	FLAT:??1length_error@std@@UAE@XZ
	DD	00H
	DD	FLAT:__CTA3?AVlength_error@std@@
xdata$x	ENDS
;	COMDAT __CTA3?AVlength_error@std@@
xdata$x	SEGMENT
__CTA3?AVlength_error@std@@ DD 03H
	DD	FLAT:__CT??_R0?AVlength_error@std@@@8??0length_error@std@@QAE@ABV01@@Z40
	DD	FLAT:__CT??_R0?AVlogic_error@std@@@8??0logic_error@std@@QAE@ABV01@@Z40
	DD	FLAT:__CT??_R0?AVexception@@@8??0exception@@QAE@ABV0@@Z12
xdata$x	ENDS
;	COMDAT __CT??_R0?AVlength_error@std@@@8??0length_error@std@@QAE@ABV01@@Z40
xdata$x	SEGMENT
__CT??_R0?AVlength_error@std@@@8??0length_error@std@@QAE@ABV01@@Z40 DD 00H
	DD	FLAT:??_R0?AVlength_error@std@@@8
	DD	00H
	DD	0ffffffffH
	ORG $+4
	DD	028H
	DD	FLAT:??0length_error@std@@QAE@ABV01@@Z
xdata$x	ENDS
;	COMDAT ??_R0?AVlength_error@std@@@8
_DATA	SEGMENT
??_R0?AVlength_error@std@@@8 DD FLAT:??_7type_info@@6B@	; std::length_error `RTTI Type Descriptor'
	DD	00H
	DB	'.?AVlength_error@std@@', 00H
_DATA	ENDS
;	COMDAT __CT??_R0?AVlogic_error@std@@@8??0logic_error@std@@QAE@ABV01@@Z40
xdata$x	SEGMENT
__CT??_R0?AVlogic_error@std@@@8??0logic_error@std@@QAE@ABV01@@Z40 DD 00H
	DD	FLAT:??_R0?AVlogic_error@std@@@8
	DD	00H
	DD	0ffffffffH
	ORG $+4
	DD	028H
	DD	FLAT:??0logic_error@std@@QAE@ABV01@@Z
xdata$x	ENDS
;	COMDAT ??_R0?AVlogic_error@std@@@8
_DATA	SEGMENT
??_R0?AVlogic_error@std@@@8 DD FLAT:??_7type_info@@6B@	; std::logic_error `RTTI Type Descriptor'
	DD	00H
	DB	'.?AVlogic_error@std@@', 00H
_DATA	ENDS
;	COMDAT __CT??_R0?AVexception@@@8??0exception@@QAE@ABV0@@Z12
xdata$x	SEGMENT
__CT??_R0?AVexception@@@8??0exception@@QAE@ABV0@@Z12 DD 00H
	DD	FLAT:??_R0?AVexception@@@8
	DD	00H
	DD	0ffffffffH
	ORG $+4
	DD	0cH
	DD	FLAT:??0exception@@QAE@ABV0@@Z
xdata$x	ENDS
;	COMDAT ??_R0?AVexception@@@8
_DATA	SEGMENT
??_R0?AVexception@@@8 DD FLAT:??_7type_info@@6B@	; exception `RTTI Type Descriptor'
	DD	00H
	DB	'.?AVexception@@', 00H
; Function compile flags: /Ogty
; File c:\program files\microsoft visual studio .net 2003\vc7\include\vector
_DATA	ENDS
;	COMDAT ?_Xlen@?$vector@V?$basic_string@DU?$char_traits@D@std@@V?$allocator@D@2@@std@@V?$allocator@V?$basic_string@DU?$char_traits@D@std@@V?$allocator@D@2@@std@@@2@@std@@IBEXXZ
_TEXT	SEGMENT
$T230770 = -80						; size = 28
$T230769 = -52						; size = 40
__$EHRec$ = -12						; size = 12
?_Xlen@?$vector@V?$basic_string@DU?$char_traits@D@std@@V?$allocator@D@2@@std@@V?$allocator@V?$basic_string@DU?$char_traits@D@std@@V?$allocator@D@2@@std@@@2@@std@@IBEXXZ PROC NEAR ; std::vector<std::basic_string<char,std::char_traits<char>,std::allocator<char> >,std::allocator<std::basic_string<char,std::char_traits<char>,std::allocator<char> > > >::_Xlen, COMDAT
; _this$ = ecx

; 883  : 		{	// report a length_error

  00000	6a ff		 push	 -1
  00002	68 00 00 00 00	 push	 __ehhandler$?_Xlen@?$vector@V?$basic_string@DU?$char_traits@D@std@@V?$allocator@D@2@@std@@V?$allocator@V?$basic_string@DU?$char_traits@D@std@@V?$allocator@D@2@@std@@@2@@std@@IBEXXZ
  00007	64 a1 00 00 00
	00		 mov	 eax, DWORD PTR fs:__except_list
  0000d	50		 push	 eax
  0000e	64 89 25 00 00
	00 00		 mov	 DWORD PTR fs:__except_list, esp
  00015	83 ec 44	 sub	 esp, 68			; 00000044H

; 884  : 		_THROW(length_error, "vector<T> too long");

  00018	6a 12		 push	 18			; 00000012H
  0001a	68 00 00 00 00	 push	 OFFSET FLAT:??_C@_0BD@OLBABOEK@vector?$DMT?$DO?5too?5long?$AA@
  0001f	8d 4c 24 08	 lea	 ecx, DWORD PTR $T230770[esp+88]
  00023	c7 44 24 20 0f
	00 00 00	 mov	 DWORD PTR $T230770[esp+112], 15 ; 0000000fH
  0002b	c7 44 24 1c 00
	00 00 00	 mov	 DWORD PTR $T230770[esp+108], 0
  00033	c6 44 24 0c 00	 mov	 BYTE PTR $T230770[esp+92], 0
  00038	e8 00 00 00 00	 call	 ?assign@?$basic_string@DU?$char_traits@D@std@@V?$allocator@D@2@@std@@QAEAAV12@PBDI@Z ; std::basic_string<char,std::char_traits<char>,std::allocator<char> >::assign
  0003d	8d 04 24	 lea	 eax, DWORD PTR $T230770[esp+80]
  00040	50		 push	 eax
  00041	8d 4c 24 20	 lea	 ecx, DWORD PTR $T230769[esp+84]
  00045	c7 44 24 50 00
	00 00 00	 mov	 DWORD PTR __$EHRec$[esp+92], 0
  0004d	e8 00 00 00 00	 call	 ??0logic_error@std@@QAE@ABV?$basic_string@DU?$char_traits@D@std@@V?$allocator@D@2@@1@@Z ; std::logic_error::logic_error
  00052	68 00 00 00 00	 push	 OFFSET FLAT:__TI3?AVlength_error@std@@
  00057	8d 4c 24 20	 lea	 ecx, DWORD PTR $T230769[esp+84]
  0005b	51		 push	 ecx
  0005c	c7 44 24 24 00
	00 00 00	 mov	 DWORD PTR $T230769[esp+88], OFFSET FLAT:??_7length_error@std@@6B@
  00064	e8 00 00 00 00	 call	 __CxxThrowException@8
$L230887:
$L230885:
  00069	cc		 int	 3
_TEXT	ENDS
;	COMDAT text$x
text$x	SEGMENT
$L230771:
  00000	8d 4d b0	 lea	 ecx, DWORD PTR $T230770[ebp]
  00003	e9 00 00 00 00	 jmp	 ??1?$basic_string@DU?$char_traits@D@std@@V?$allocator@D@2@@std@@QAE@XZ ; std::basic_string<char,std::char_traits<char>,std::allocator<char> >::~basic_string<char,std::char_traits<char>,std::allocator<char> >
__ehhandler$?_Xlen@?$vector@V?$basic_string@DU?$char_traits@D@std@@V?$allocator@D@2@@std@@V?$allocator@V?$basic_string@DU?$char_traits@D@std@@V?$allocator@D@2@@std@@@2@@std@@IBEXXZ:
  00008	b8 00 00 00 00	 mov	 eax, OFFSET FLAT:$T230883
  0000d	e9 00 00 00 00	 jmp	 ___CxxFrameHandler
text$x	ENDS
?_Xlen@?$vector@V?$basic_string@DU?$char_traits@D@std@@V?$allocator@D@2@@std@@V?$allocator@V?$basic_string@DU?$char_traits@D@std@@V?$allocator@D@2@@std@@@2@@std@@IBEXXZ ENDP ; std::vector<std::basic_string<char,std::char_traits<char>,std::allocator<char> >,std::allocator<std::basic_string<char,std::char_traits<char>,std::allocator<char> > > >::_Xlen
;	COMDAT xdata$x
xdata$x	SEGMENT
$T230993 DD	0ffffffffH
	DD	FLAT:$L230893
$T230991 DD	019930520H
	DD	01H
	DD	FLAT:$T230993
	DD	2 DUP(00H)
	DD	2 DUP(00H)
; Function compile flags: /Ogty
xdata$x	ENDS
;	COMDAT ??0logic_error@std@@QAE@ABV01@@Z
_TEXT	SEGMENT
_this$ = -16						; size = 4
__$EHRec$ = -12						; size = 12
___that$ = 8						; size = 4
??0logic_error@std@@QAE@ABV01@@Z PROC NEAR		; std::logic_error::logic_error, COMDAT
; _this$ = ecx
  00000	6a ff		 push	 -1
  00002	68 00 00 00 00	 push	 __ehhandler$??0logic_error@std@@QAE@ABV01@@Z
  00007	64 a1 00 00 00
	00		 mov	 eax, DWORD PTR fs:__except_list
  0000d	50		 push	 eax
  0000e	64 89 25 00 00
	00 00		 mov	 DWORD PTR fs:__except_list, esp
  00015	51		 push	 ecx
  00016	56		 push	 esi
  00017	57		 push	 edi
  00018	8b 7c 24 1c	 mov	 edi, DWORD PTR ___that$[esp+20]
  0001c	8b f1		 mov	 esi, ecx
  0001e	57		 push	 edi
  0001f	89 74 24 0c	 mov	 DWORD PTR _this$[esp+28], esi
  00023	e8 00 00 00 00	 call	 ??0exception@@QAE@ABV0@@Z ; exception::exception
  00028	33 c0		 xor	 eax, eax
  0002a	6a ff		 push	 -1
  0002c	8d 4e 0c	 lea	 ecx, DWORD PTR [esi+12]
  0002f	c7 06 00 00 00
	00		 mov	 DWORD PTR [esi], OFFSET FLAT:??_7logic_error@std@@6B@
  00035	50		 push	 eax
  00036	83 c7 0c	 add	 edi, 12			; 0000000cH
  00039	c7 41 18 0f 00
	00 00		 mov	 DWORD PTR [ecx+24], 15	; 0000000fH
  00040	89 41 14	 mov	 DWORD PTR [ecx+20], eax
  00043	57		 push	 edi
  00044	89 44 24 20	 mov	 DWORD PTR __$EHRec$[esp+44], eax
  00048	88 41 04	 mov	 BYTE PTR [ecx+4], al
  0004b	e8 00 00 00 00	 call	 ?assign@?$basic_string@DU?$char_traits@D@std@@V?$allocator@D@2@@std@@QAEAAV12@ABV12@II@Z ; std::basic_string<char,std::char_traits<char>,std::allocator<char> >::assign
  00050	8b 4c 24 0c	 mov	 ecx, DWORD PTR __$EHRec$[esp+24]
  00054	5f		 pop	 edi
  00055	8b c6		 mov	 eax, esi
  00057	5e		 pop	 esi
  00058	64 89 0d 00 00
	00 00		 mov	 DWORD PTR fs:__except_list, ecx
  0005f	83 c4 10	 add	 esp, 16			; 00000010H
  00062	c2 04 00	 ret	 4
_TEXT	ENDS
;	COMDAT text$x
text$x	SEGMENT
$L230893:
  00000	8b 4d f0	 mov	 ecx, DWORD PTR _this$[ebp]
  00003	e9 00 00 00 00	 jmp	 ??1exception@@UAE@XZ	; exception::~exception
__ehhandler$??0logic_error@std@@QAE@ABV01@@Z:
  00008	b8 00 00 00 00	 mov	 eax, OFFSET FLAT:$T230991
  0000d	e9 00 00 00 00	 jmp	 ___CxxFrameHandler
text$x	ENDS
??0logic_error@std@@QAE@ABV01@@Z ENDP			; std::logic_error::logic_error
; Function compile flags: /Ogty
;	COMDAT ??0length_error@std@@QAE@ABV01@@Z
_TEXT	SEGMENT
___that$ = 8						; size = 4
??0length_error@std@@QAE@ABV01@@Z PROC NEAR		; std::length_error::length_error, COMDAT
; _this$ = ecx
  00000	8b 44 24 04	 mov	 eax, DWORD PTR ___that$[esp-4]
  00004	56		 push	 esi
  00005	50		 push	 eax
  00006	8b f1		 mov	 esi, ecx
  00008	e8 00 00 00 00	 call	 ??0logic_error@std@@QAE@ABV01@@Z
  0000d	c7 06 00 00 00
	00		 mov	 DWORD PTR [esi], OFFSET FLAT:??_7length_error@std@@6B@
  00013	8b c6		 mov	 eax, esi
  00015	5e		 pop	 esi
  00016	c2 04 00	 ret	 4
??0length_error@std@@QAE@ABV01@@Z ENDP			; std::length_error::length_error
_TEXT	ENDS
PUBLIC	??$fill@PAV?$basic_string@DU?$char_traits@D@std@@V?$allocator@D@2@@std@@V12@@std@@YAXPAV?$basic_string@DU?$char_traits@D@std@@V?$allocator@D@2@@0@0ABV10@@Z ; std::fill<std::basic_string<char,std::char_traits<char>,std::allocator<char> > *,std::basic_string<char,std::char_traits<char>,std::allocator<char> > >
; Function compile flags: /Ogty
; File c:\program files\microsoft visual studio .net 2003\vc7\include\xutility
;	COMDAT ??$fill@PAV?$basic_string@DU?$char_traits@D@std@@V?$allocator@D@2@@std@@V12@@std@@YAXPAV?$basic_string@DU?$char_traits@D@std@@V?$allocator@D@2@@0@0ABV10@@Z
_TEXT	SEGMENT
__First$ = 8						; size = 4
__Last$ = 12						; size = 4
__Val$ = 16						; size = 4
??$fill@PAV?$basic_string@DU?$char_traits@D@std@@V?$allocator@D@2@@std@@V12@@std@@YAXPAV?$basic_string@DU?$char_traits@D@std@@V?$allocator@D@2@@0@0ABV10@@Z PROC NEAR ; std::fill<std::basic_string<char,std::char_traits<char>,std::allocator<char> > *,std::basic_string<char,std::char_traits<char>,std::allocator<char> > >, COMDAT

; 1134 : 	{	// copy _Val through [_First, _Last)

  00000	53		 push	 ebx

; 1135 : 	for (; _First != _Last; ++_First)

  00001	8b 5c 24 0c	 mov	 ebx, DWORD PTR __Last$[esp]
  00005	56		 push	 esi
  00006	8b 74 24 0c	 mov	 esi, DWORD PTR __First$[esp+4]
  0000a	3b f3		 cmp	 esi, ebx
  0000c	74 19		 je	 SHORT $L226947
  0000e	57		 push	 edi
  0000f	8b 7c 24 18	 mov	 edi, DWORD PTR __Val$[esp+8]
$L226945:

; 1136 : 		*_First = _Val;

  00013	6a ff		 push	 -1
  00015	6a 00		 push	 0
  00017	57		 push	 edi
  00018	8b ce		 mov	 ecx, esi
  0001a	e8 00 00 00 00	 call	 ?assign@?$basic_string@DU?$char_traits@D@std@@V?$allocator@D@2@@std@@QAEAAV12@ABV12@II@Z ; std::basic_string<char,std::char_traits<char>,std::allocator<char> >::assign
  0001f	83 c6 1c	 add	 esi, 28			; 0000001cH
  00022	3b f3		 cmp	 esi, ebx
  00024	75 ed		 jne	 SHORT $L226945
  00026	5f		 pop	 edi
$L226947:
  00027	5e		 pop	 esi
  00028	5b		 pop	 ebx

; 1137 : 	}

  00029	c3		 ret	 0
??$fill@PAV?$basic_string@DU?$char_traits@D@std@@V?$allocator@D@2@@std@@V12@@std@@YAXPAV?$basic_string@DU?$char_traits@D@std@@V?$allocator@D@2@@0@0ABV10@@Z ENDP ; std::fill<std::basic_string<char,std::char_traits<char>,std::allocator<char> > *,std::basic_string<char,std::char_traits<char>,std::allocator<char> > >
_TEXT	ENDS
PUBLIC	??$_Destroy_range@V?$basic_string@DU?$char_traits@D@std@@V?$allocator@D@2@@std@@V?$allocator@V?$basic_string@DU?$char_traits@D@std@@V?$allocator@D@2@@std@@@2@@std@@YAXPAV?$basic_string@DU?$char_traits@D@std@@V?$allocator@D@2@@0@0AAV?$allocator@V?$basic_string@DU?$char_traits@D@std@@V?$allocator@D@2@@std@@@0@U_Nonscalar_ptr_iterator_tag@0@@Z ; std::_Destroy_range<std::basic_string<char,std::char_traits<char>,std::allocator<char> >,std::allocator<std::basic_string<char,std::char_traits<char>,std::allocator<char> > > >
; Function compile flags: /Ogty
; File c:\program files\microsoft visual studio .net 2003\vc7\include\xmemory
;	COMDAT ??$_Destroy_range@V?$basic_string@DU?$char_traits@D@std@@V?$allocator@D@2@@std@@V?$allocator@V?$basic_string@DU?$char_traits@D@std@@V?$allocator@D@2@@std@@@2@@std@@YAXPAV?$basic_string@DU?$char_traits@D@std@@V?$allocator@D@2@@0@0AAV?$allocator@V?$basic_string@DU?$char_traits@D@std@@V?$allocator@D@2@@std@@@0@U_Nonscalar_ptr_iterator_tag@0@@Z
_TEXT	SEGMENT
__First$ = 8						; size = 4
__Last$ = 12						; size = 4
__Al$ = 16						; size = 4
___formal$ = 20						; size = 1
??$_Destroy_range@V?$basic_string@DU?$char_traits@D@std@@V?$allocator@D@2@@std@@V?$allocator@V?$basic_string@DU?$char_traits@D@std@@V?$allocator@D@2@@std@@@2@@std@@YAXPAV?$basic_string@DU?$char_traits@D@std@@V?$allocator@D@2@@0@0AAV?$allocator@V?$basic_string@DU?$char_traits@D@std@@V?$allocator@D@2@@std@@@0@U_Nonscalar_ptr_iterator_tag@0@@Z PROC NEAR ; std::_Destroy_range<std::basic_string<char,std::char_traits<char>,std::allocator<char> >,std::allocator<std::basic_string<char,std::char_traits<char>,std::allocator<char> > > >, COMDAT

; 224  : 	{	// destroy [_First, _Last), arbitrary type

  00000	56		 push	 esi

; 225  : 	for (; _First != _Last; ++_First)

  00001	8b 74 24 08	 mov	 esi, DWORD PTR __First$[esp]
  00005	57		 push	 edi
  00006	8b 7c 24 10	 mov	 edi, DWORD PTR __Last$[esp+4]
  0000a	3b f7		 cmp	 esi, edi
  0000c	74 2a		 je	 SHORT $L227157
  0000e	53		 push	 ebx
  0000f	33 db		 xor	 ebx, ebx
$L227155:

; 226  : 		_Al.destroy(_First);

  00011	83 7e 18 10	 cmp	 DWORD PTR [esi+24], 16	; 00000010H
  00015	72 0c		 jb	 SHORT $L231155
  00017	8b 46 04	 mov	 eax, DWORD PTR [esi+4]
  0001a	50		 push	 eax
  0001b	e8 00 00 00 00	 call	 ??3@YAXPAX@Z		; operator delete
  00020	83 c4 04	 add	 esp, 4
$L231155:
  00023	c7 46 18 0f 00
	00 00		 mov	 DWORD PTR [esi+24], 15	; 0000000fH
  0002a	89 5e 14	 mov	 DWORD PTR [esi+20], ebx
  0002d	88 5e 04	 mov	 BYTE PTR [esi+4], bl
  00030	83 c6 1c	 add	 esi, 28			; 0000001cH
  00033	3b f7		 cmp	 esi, edi
  00035	75 da		 jne	 SHORT $L227155
  00037	5b		 pop	 ebx
$L227157:
  00038	5f		 pop	 edi
  00039	5e		 pop	 esi

; 227  : 	}

  0003a	c3		 ret	 0
??$_Destroy_range@V?$basic_string@DU?$char_traits@D@std@@V?$allocator@D@2@@std@@V?$allocator@V?$basic_string@DU?$char_traits@D@std@@V?$allocator@D@2@@std@@@2@@std@@YAXPAV?$basic_string@DU?$char_traits@D@std@@V?$allocator@D@2@@0@0AAV?$allocator@V?$basic_string@DU?$char_traits@D@std@@V?$allocator@D@2@@std@@@0@U_Nonscalar_ptr_iterator_tag@0@@Z ENDP ; std::_Destroy_range<std::basic_string<char,std::char_traits<char>,std::allocator<char> >,std::allocator<std::basic_string<char,std::char_traits<char>,std::allocator<char> > > >
_TEXT	ENDS
PUBLIC	??$_Copy_backward_opt@PAV?$basic_string@DU?$char_traits@D@std@@V?$allocator@D@2@@std@@PAV12@@std@@YAPAV?$basic_string@DU?$char_traits@D@std@@V?$allocator@D@2@@0@PAV10@00U_Nonscalar_ptr_iterator_tag@0@@Z ; std::_Copy_backward_opt<std::basic_string<char,std::char_traits<char>,std::allocator<char> > *,std::basic_string<char,std::char_traits<char>,std::allocator<char> > *>
; Function compile flags: /Ogty
; File c:\program files\microsoft visual studio .net 2003\vc7\include\xutility
;	COMDAT ??$_Copy_backward_opt@PAV?$basic_string@DU?$char_traits@D@std@@V?$allocator@D@2@@std@@PAV12@@std@@YAPAV?$basic_string@DU?$char_traits@D@std@@V?$allocator@D@2@@0@PAV10@00U_Nonscalar_ptr_iterator_tag@0@@Z
_TEXT	SEGMENT
__First$ = 8						; size = 4
__Last$ = 12						; size = 4
__Dest$ = 16						; size = 4
___formal$ = 20						; size = 1
??$_Copy_backward_opt@PAV?$basic_string@DU?$char_traits@D@std@@V?$allocator@D@2@@std@@PAV12@@std@@YAPAV?$basic_string@DU?$char_traits@D@std@@V?$allocator@D@2@@0@PAV10@00U_Nonscalar_ptr_iterator_tag@0@@Z PROC NEAR ; std::_Copy_backward_opt<std::basic_string<char,std::char_traits<char>,std::allocator<char> > *,std::basic_string<char,std::char_traits<char>,std::allocator<char> > *>, COMDAT

; 1048 : 	{	// copy [_First, _Last) backwards to [..., _Dest), arbitrary iterators

  00000	53		 push	 ebx

; 1049 : 	while (_First != _Last)

  00001	8b 5c 24 08	 mov	 ebx, DWORD PTR __First$[esp]
  00005	56		 push	 esi
  00006	8b 74 24 10	 mov	 esi, DWORD PTR __Last$[esp+4]
  0000a	3b de		 cmp	 ebx, esi
  0000c	74 21		 je	 SHORT $L231187
  0000e	57		 push	 edi
  0000f	8b 7c 24 18	 mov	 edi, DWORD PTR __Dest$[esp+8]
$L227200:

; 1050 : 		*--_Dest = *--_Last;

  00013	6a ff		 push	 -1
  00015	6a 00		 push	 0
  00017	83 ee 1c	 sub	 esi, 28			; 0000001cH
  0001a	83 ef 1c	 sub	 edi, 28			; 0000001cH
  0001d	56		 push	 esi
  0001e	8b cf		 mov	 ecx, edi
  00020	e8 00 00 00 00	 call	 ?assign@?$basic_string@DU?$char_traits@D@std@@V?$allocator@D@2@@std@@QAEAAV12@ABV12@II@Z ; std::basic_string<char,std::char_traits<char>,std::allocator<char> >::assign
  00025	3b f3		 cmp	 esi, ebx
  00027	75 ea		 jne	 SHORT $L227200

; 1051 : 	return (_Dest);

  00029	8b c7		 mov	 eax, edi
  0002b	5f		 pop	 edi
  0002c	5e		 pop	 esi
  0002d	5b		 pop	 ebx

; 1052 : 	}

  0002e	c3		 ret	 0
$L231187:

; 1051 : 	return (_Dest);

  0002f	8b 44 24 14	 mov	 eax, DWORD PTR __Dest$[esp+4]
  00033	5e		 pop	 esi
  00034	5b		 pop	 ebx

; 1052 : 	}

  00035	c3		 ret	 0
??$_Copy_backward_opt@PAV?$basic_string@DU?$char_traits@D@std@@V?$allocator@D@2@@std@@PAV12@@std@@YAPAV?$basic_string@DU?$char_traits@D@std@@V?$allocator@D@2@@0@PAV10@00U_Nonscalar_ptr_iterator_tag@0@@Z ENDP ; std::_Copy_backward_opt<std::basic_string<char,std::char_traits<char>,std::allocator<char> > *,std::basic_string<char,std::char_traits<char>,std::allocator<char> > *>
_TEXT	ENDS
PUBLIC	?construct@?$allocator@V?$basic_string@DU?$char_traits@D@std@@V?$allocator@D@2@@std@@@std@@QAEXPAV?$basic_string@DU?$char_traits@D@std@@V?$allocator@D@2@@2@ABV32@@Z ; std::allocator<std::basic_string<char,std::char_traits<char>,std::allocator<char> > >::construct
; Function compile flags: /Ogty
; File c:\program files\microsoft visual studio .net 2003\vc7\include\xmemory
;	COMDAT ?construct@?$allocator@V?$basic_string@DU?$char_traits@D@std@@V?$allocator@D@2@@std@@@std@@QAEXPAV?$basic_string@DU?$char_traits@D@std@@V?$allocator@D@2@@2@ABV32@@Z
_TEXT	SEGMENT
__Ptr$ = 8						; size = 4
__Val$ = 12						; size = 4
?construct@?$allocator@V?$basic_string@DU?$char_traits@D@std@@V?$allocator@D@2@@std@@@std@@QAEXPAV?$basic_string@DU?$char_traits@D@std@@V?$allocator@D@2@@2@ABV32@@Z PROC NEAR ; std::allocator<std::basic_string<char,std::char_traits<char>,std::allocator<char> > >::construct, COMDAT
; _this$ = ecx

; 147  : 		_Construct(_Ptr, _Val);

  00000	8b 44 24 08	 mov	 eax, DWORD PTR __Val$[esp-4]
  00004	8b 4c 24 04	 mov	 ecx, DWORD PTR __Ptr$[esp-4]
  00008	50		 push	 eax
  00009	51		 push	 ecx
  0000a	e8 00 00 00 00	 call	 ??$_Construct@V?$basic_string@DU?$char_traits@D@std@@V?$allocator@D@2@@std@@V12@@std@@YAXPAV?$basic_string@DU?$char_traits@D@std@@V?$allocator@D@2@@0@ABV10@@Z ; std::_Construct<std::basic_string<char,std::char_traits<char>,std::allocator<char> >,std::basic_string<char,std::char_traits<char>,std::allocator<char> > >
  0000f	83 c4 08	 add	 esp, 8

; 148  : 		}

  00012	c2 08 00	 ret	 8
?construct@?$allocator@V?$basic_string@DU?$char_traits@D@std@@V?$allocator@D@2@@std@@@std@@QAEXPAV?$basic_string@DU?$char_traits@D@std@@V?$allocator@D@2@@2@ABV32@@Z ENDP ; std::allocator<std::basic_string<char,std::char_traits<char>,std::allocator<char> > >::construct
_TEXT	ENDS
PUBLIC	??$_Uninit_copy@Vconst_iterator@?$vector@V?$basic_string@DU?$char_traits@D@std@@V?$allocator@D@2@@std@@V?$allocator@V?$basic_string@DU?$char_traits@D@std@@V?$allocator@D@2@@std@@@2@@std@@PAV?$basic_string@DU?$char_traits@D@std@@V?$allocator@D@2@@3@V?$allocator@V?$basic_string@DU?$char_traits@D@std@@V?$allocator@D@2@@std@@@3@@std@@YAPAV?$basic_string@DU?$char_traits@D@std@@V?$allocator@D@2@@0@Vconst_iterator@?$vector@V?$basic_string@DU?$char_traits@D@std@@V?$allocator@D@2@@std@@V?$allocator@V?$basic_string@DU?$char_traits@D@std@@V?$allocator@D@2@@std@@@2@@0@0PAV10@AAV?$allocator@V?$basic_string@DU?$char_traits@D@std@@V?$allocator@D@2@@std@@@0@U_Nonscalar_ptr_iterator_tag@0@@Z ; std::_Uninit_copy<std::vector<std::basic_string<char,std::char_traits<char>,std::allocator<char> >,std::allocator<std::basic_string<char,std::char_traits<char>,std::allocator<char> > > >::const_iterator,std::basic_string<char,std::char_traits<char>,std::allocator<char> > *,std::allocator<std::basic_string<char,std::char_traits<char>,std::allocator<char> > > >
;	COMDAT xdata$x
; File c:\program files\microsoft visual studio .net 2003\vc7\include\iosfwd
xdata$x	SEGMENT
$T231398 DD	0ffffffffH
	DD	00H
	DD	00H
	DD	FLAT:$L231216
	DD	0ffffffffH
	DD	00H
$T231400 DD	00H
	DD	00H
	DD	00H
	DD	FLAT:$L231195
$T231399 DD	00H
	DD	01H
	DD	02H
	DD	01H
	DD	FLAT:$T231400
$T231392 DD	019930520H
	DD	03H
	DD	FLAT:$T231398
	DD	01H
	DD	FLAT:$T231399
	DD	2 DUP(00H)
; Function compile flags: /Ogty
; File c:\program files\microsoft visual studio .net 2003\vc7\include\memory
xdata$x	ENDS
;	COMDAT ??$_Uninit_copy@Vconst_iterator@?$vector@V?$basic_string@DU?$char_traits@D@std@@V?$allocator@D@2@@std@@V?$allocator@V?$basic_string@DU?$char_traits@D@std@@V?$allocator@D@2@@std@@@2@@std@@PAV?$basic_string@DU?$char_traits@D@std@@V?$allocator@D@2@@3@V?$allocator@V?$basic_string@DU?$char_traits@D@std@@V?$allocator@D@2@@std@@@3@@std@@YAPAV?$basic_string@DU?$char_traits@D@std@@V?$allocator@D@2@@0@Vconst_iterator@?$vector@V?$basic_string@DU?$char_traits@D@std@@V?$allocator@D@2@@std@@V?$allocator@V?$basic_string@DU?$char_traits@D@std@@V?$allocator@D@2@@std@@@2@@0@0PAV10@AAV?$allocator@V?$basic_string@DU?$char_traits@D@std@@V?$allocator@D@2@@std@@@0@U_Nonscalar_ptr_iterator_tag@0@@Z
_TEXT	SEGMENT
__Next$ = -20						; size = 4
__$EHRec$ = -16						; size = 16
$T231355 = 8						; size = 4
__First$ = 8						; size = 4
__Last$ = 12						; size = 4
__Dest$ = 16						; size = 4
__Al$ = 20						; size = 4
___formal$ = 24						; size = 1
??$_Uninit_copy@Vconst_iterator@?$vector@V?$basic_string@DU?$char_traits@D@std@@V?$allocator@D@2@@std@@V?$allocator@V?$basic_string@DU?$char_traits@D@std@@V?$allocator@D@2@@std@@@2@@std@@PAV?$basic_string@DU?$char_traits@D@std@@V?$allocator@D@2@@3@V?$allocator@V?$basic_string@DU?$char_traits@D@std@@V?$allocator@D@2@@std@@@3@@std@@YAPAV?$basic_string@DU?$char_traits@D@std@@V?$allocator@D@2@@0@Vconst_iterator@?$vector@V?$basic_string@DU?$char_traits@D@std@@V?$allocator@D@2@@std@@V?$allocator@V?$basic_string@DU?$char_traits@D@std@@V?$allocator@D@2@@std@@@2@@0@0PAV10@AAV?$allocator@V?$basic_string@DU?$char_traits@D@std@@V?$allocator@D@2@@std@@@0@U_Nonscalar_ptr_iterator_tag@0@@Z PROC NEAR ; std::_Uninit_copy<std::vector<std::basic_string<char,std::char_traits<char>,std::allocator<char> >,std::allocator<std::basic_string<char,std::char_traits<char>,std::allocator<char> > > >::const_iterator,std::basic_string<char,std::char_traits<char>,std::allocator<char> > *,std::allocator<std::basic_string<char,std::char_traits<char>,std::allocator<char> > > >, COMDAT

; 77   : 	{	// copy [_First, _Last) to raw _Dest, using _Al, arbitrary type

  00000	55		 push	 ebp
  00001	8b ec		 mov	 ebp, esp
  00003	6a ff		 push	 -1
  00005	68 00 00 00 00	 push	 __ehhandler$??$_Uninit_copy@Vconst_iterator@?$vector@V?$basic_string@DU?$char_traits@D@std@@V?$allocator@D@2@@std@@V?$allocator@V?$basic_string@DU?$char_traits@D@std@@V?$allocator@D@2@@std@@@2@@std@@PAV?$basic_string@DU?$char_traits@D@std@@V?$allocator@D@2@@3@V?$allocator@V?$basic_string@DU?$char_traits@D@std@@V?$allocator@D@2@@std@@@3@@std@@YAPAV?$basic_string@DU?$char_traits@D@std@@V?$allocator@D@2@@0@Vconst_iterator@?$vector@V?$basic_string@DU?$char_traits@D@std@@V?$allocator@D@2@@std@@V?$allocator@V?$basic_string@DU?$char_traits@D@std@@V?$allocator@D@2@@std@@@2@@0@0PAV10@AAV?$allocator@V?$basic_string@DU?$char_traits@D@std@@V?$allocator@D@2@@std@@@0@U_Nonscalar_ptr_iterator_tag@0@@Z
  0000a	64 a1 00 00 00
	00		 mov	 eax, DWORD PTR fs:__except_list
  00010	50		 push	 eax
  00011	64 89 25 00 00
	00 00		 mov	 DWORD PTR fs:__except_list, esp
  00018	83 ec 08	 sub	 esp, 8
  0001b	53		 push	 ebx
  0001c	56		 push	 esi

; 78   : 	_FwdIt _Next = _Dest;

  0001d	8b 75 10	 mov	 esi, DWORD PTR __Dest$[ebp]
  00020	57		 push	 edi

; 79   : 
; 80   : 	_TRY_BEGIN

  00021	8b 7d 08	 mov	 edi, DWORD PTR __First$[ebp]
  00024	33 db		 xor	 ebx, ebx
  00026	89 65 f0	 mov	 DWORD PTR __$EHRec$[ebp], esp
  00029	89 75 ec	 mov	 DWORD PTR __Next$[ebp], esi
  0002c	89 5d fc	 mov	 DWORD PTR __$EHRec$[ebp+12], ebx
  0002f	90		 npad	 1

; 81   : 	for (; _First != _Last; ++_Dest, ++_First)

$L231197:
  00030	3b 7d 0c	 cmp	 edi, DWORD PTR __Last$[ebp]
  00033	74 56		 je	 SHORT $L227364

; 82   : 		_Al.construct(_Dest, *_First);

  00035	89 75 08	 mov	 DWORD PTR $T231355[ebp], esi
  00038	3b f3		 cmp	 esi, ebx
  0003a	c6 45 fc 01	 mov	 BYTE PTR __$EHRec$[ebp+12], 1
  0003e	74 18		 je	 SHORT $L231356
  00040	6a ff		 push	 -1
  00042	53		 push	 ebx
  00043	c7 46 18 0f 00
	00 00		 mov	 DWORD PTR [esi+24], 15	; 0000000fH
  0004a	89 5e 14	 mov	 DWORD PTR [esi+20], ebx
  0004d	57		 push	 edi
  0004e	8b ce		 mov	 ecx, esi
  00050	88 5e 04	 mov	 BYTE PTR [esi+4], bl
  00053	e8 00 00 00 00	 call	 ?assign@?$basic_string@DU?$char_traits@D@std@@V?$allocator@D@2@@std@@QAEAAV12@ABV12@II@Z ; std::basic_string<char,std::char_traits<char>,std::allocator<char> >::assign
$L231356:
  00058	83 c6 1c	 add	 esi, 28			; 0000001cH
  0005b	88 5d fc	 mov	 BYTE PTR __$EHRec$[ebp+12], bl
  0005e	89 75 10	 mov	 DWORD PTR __Dest$[ebp], esi
  00061	83 c7 1c	 add	 edi, 28			; 0000001cH
  00064	eb ca		 jmp	 SHORT $L231197
$L231195:

; 83   : 	_CATCH_ALL
; 84   : 	for (; _Next != _Dest; ++_Next)

  00066	8b 75 ec	 mov	 esi, DWORD PTR __Next$[ebp]
  00069	8b 7d 10	 mov	 edi, DWORD PTR __Dest$[ebp]
  0006c	3b f7		 cmp	 esi, edi
  0006e	74 12		 je	 SHORT $L227367
  00070	8b 5d 14	 mov	 ebx, DWORD PTR __Al$[ebp]
$L227365:

; 85   : 		_Al.destroy(_Next);

  00073	56		 push	 esi
  00074	8b cb		 mov	 ecx, ebx
  00076	e8 00 00 00 00	 call	 ?destroy@?$allocator@V?$basic_string@DU?$char_traits@D@std@@V?$allocator@D@2@@std@@@std@@QAEXPAV?$basic_string@DU?$char_traits@D@std@@V?$allocator@D@2@@2@@Z ; std::allocator<std::basic_string<char,std::char_traits<char>,std::allocator<char> > >::destroy
  0007b	83 c6 1c	 add	 esi, 28			; 0000001cH
  0007e	3b f7		 cmp	 esi, edi
  00080	75 f1		 jne	 SHORT $L227365
$L227367:

; 86   : 	_RERAISE;

  00082	33 db		 xor	 ebx, ebx
  00084	53		 push	 ebx
  00085	53		 push	 ebx
  00086	e8 00 00 00 00	 call	 __CxxThrowException@8
$L231401:
$L227364:

; 87   : 	_CATCH_END
; 88   : 	return (_Dest);
; 89   : 	}

  0008b	8b 4d f4	 mov	 ecx, DWORD PTR __$EHRec$[ebp+4]
  0008e	5f		 pop	 edi
  0008f	8b c6		 mov	 eax, esi
  00091	5e		 pop	 esi
  00092	64 89 0d 00 00
	00 00		 mov	 DWORD PTR fs:__except_list, ecx
  00099	5b		 pop	 ebx
  0009a	8b e5		 mov	 esp, ebp
  0009c	5d		 pop	 ebp
  0009d	c3		 ret	 0
$L231397:
_TEXT	ENDS
;	COMDAT text$x
text$x	SEGMENT
$L231216:
  00000	8b 45 10	 mov	 eax, DWORD PTR __Dest$[ebp]
  00003	50		 push	 eax
  00004	8b 4d 08	 mov	 ecx, DWORD PTR $T231355[ebp]
  00007	51		 push	 ecx
  00008	e8 00 00 00 00	 call	 ??3@YAXPAX0@Z		; operator delete
  0000d	83 c4 08	 add	 esp, 8
  00010	c3		 ret	 0
__ehhandler$??$_Uninit_copy@Vconst_iterator@?$vector@V?$basic_string@DU?$char_traits@D@std@@V?$allocator@D@2@@std@@V?$allocator@V?$basic_string@DU?$char_traits@D@std@@V?$allocator@D@2@@std@@@2@@std@@PAV?$basic_string@DU?$char_traits@D@std@@V?$allocator@D@2@@3@V?$allocator@V?$basic_string@DU?$char_traits@D@std@@V?$allocator@D@2@@std@@@3@@std@@YAPAV?$basic_string@DU?$char_traits@D@std@@V?$allocator@D@2@@0@Vconst_iterator@?$vector@V?$basic_string@DU?$char_traits@D@std@@V?$allocator@D@2@@std@@V?$allocator@V?$basic_string@DU?$char_traits@D@std@@V?$allocator@D@2@@std@@@2@@0@0PAV10@AAV?$allocator@V?$basic_string@DU?$char_traits@D@std@@V?$allocator@D@2@@std@@@0@U_Nonscalar_ptr_iterator_tag@0@@Z:
  00011	b8 00 00 00 00	 mov	 eax, OFFSET FLAT:$T231392
  00016	e9 00 00 00 00	 jmp	 ___CxxFrameHandler
text$x	ENDS
??$_Uninit_copy@Vconst_iterator@?$vector@V?$basic_string@DU?$char_traits@D@std@@V?$allocator@D@2@@std@@V?$allocator@V?$basic_string@DU?$char_traits@D@std@@V?$allocator@D@2@@std@@@2@@std@@PAV?$basic_string@DU?$char_traits@D@std@@V?$allocator@D@2@@3@V?$allocator@V?$basic_string@DU?$char_traits@D@std@@V?$allocator@D@2@@std@@@3@@std@@YAPAV?$basic_string@DU?$char_traits@D@std@@V?$allocator@D@2@@0@Vconst_iterator@?$vector@V?$basic_string@DU?$char_traits@D@std@@V?$allocator@D@2@@std@@V?$allocator@V?$basic_string@DU?$char_traits@D@std@@V?$allocator@D@2@@std@@@2@@0@0PAV10@AAV?$allocator@V?$basic_string@DU?$char_traits@D@std@@V?$allocator@D@2@@std@@@0@U_Nonscalar_ptr_iterator_tag@0@@Z ENDP ; std::_Uninit_copy<std::vector<std::basic_string<char,std::char_traits<char>,std::allocator<char> >,std::allocator<std::basic_string<char,std::char_traits<char>,std::allocator<char> > > >::const_iterator,std::basic_string<char,std::char_traits<char>,std::allocator<char> > *,std::allocator<std::basic_string<char,std::char_traits<char>,std::allocator<char> > > >
PUBLIC	??$_Uninit_copy@PAV?$basic_string@DU?$char_traits@D@std@@V?$allocator@D@2@@std@@PAV12@V?$allocator@V?$basic_string@DU?$char_traits@D@std@@V?$allocator@D@2@@std@@@2@@std@@YAPAV?$basic_string@DU?$char_traits@D@std@@V?$allocator@D@2@@0@PAV10@00AAV?$allocator@V?$basic_string@DU?$char_traits@D@std@@V?$allocator@D@2@@std@@@0@U_Nonscalar_ptr_iterator_tag@0@@Z ; std::_Uninit_copy<std::basic_string<char,std::char_traits<char>,std::allocator<char> > *,std::basic_string<char,std::char_traits<char>,std::allocator<char> > *,std::allocator<std::basic_string<char,std::char_traits<char>,std::allocator<char> > > >
;	COMDAT xdata$x
; File c:\program files\microsoft visual studio .net 2003\vc7\include\iosfwd
xdata$x	SEGMENT
$T231595 DD	0ffffffffH
	DD	00H
	DD	00H
	DD	FLAT:$L231414
	DD	0ffffffffH
	DD	00H
$T231597 DD	00H
	DD	00H
	DD	00H
	DD	FLAT:$L231407
$T231596 DD	00H
	DD	01H
	DD	02H
	DD	01H
	DD	FLAT:$T231597
$T231589 DD	019930520H
	DD	03H
	DD	FLAT:$T231595
	DD	01H
	DD	FLAT:$T231596
	DD	2 DUP(00H)
; Function compile flags: /Ogty
; File c:\program files\microsoft visual studio .net 2003\vc7\include\memory
xdata$x	ENDS
;	COMDAT ??$_Uninit_copy@PAV?$basic_string@DU?$char_traits@D@std@@V?$allocator@D@2@@std@@PAV12@V?$allocator@V?$basic_string@DU?$char_traits@D@std@@V?$allocator@D@2@@std@@@2@@std@@YAPAV?$basic_string@DU?$char_traits@D@std@@V?$allocator@D@2@@0@PAV10@00AAV?$allocator@V?$basic_string@DU?$char_traits@D@std@@V?$allocator@D@2@@std@@@0@U_Nonscalar_ptr_iterator_tag@0@@Z
_TEXT	SEGMENT
__Next$ = -20						; size = 4
__$EHRec$ = -16						; size = 16
$T231581 = 8						; size = 4
__First$ = 8						; size = 4
__Last$ = 12						; size = 4
__Dest$ = 16						; size = 4
__Al$ = 20						; size = 4
___formal$ = 24						; size = 1
??$_Uninit_copy@PAV?$basic_string@DU?$char_traits@D@std@@V?$allocator@D@2@@std@@PAV12@V?$allocator@V?$basic_string@DU?$char_traits@D@std@@V?$allocator@D@2@@std@@@2@@std@@YAPAV?$basic_string@DU?$char_traits@D@std@@V?$allocator@D@2@@0@PAV10@00AAV?$allocator@V?$basic_string@DU?$char_traits@D@std@@V?$allocator@D@2@@std@@@0@U_Nonscalar_ptr_iterator_tag@0@@Z PROC NEAR ; std::_Uninit_copy<std::basic_string<char,std::char_traits<char>,std::allocator<char> > *,std::basic_string<char,std::char_traits<char>,std::allocator<char> > *,std::allocator<std::basic_string<char,std::char_traits<char>,std::allocator<char> > > >, COMDAT

; 77   : 	{	// copy [_First, _Last) to raw _Dest, using _Al, arbitrary type

  00000	55		 push	 ebp
  00001	8b ec		 mov	 ebp, esp
  00003	6a ff		 push	 -1
  00005	68 00 00 00 00	 push	 __ehhandler$??$_Uninit_copy@PAV?$basic_string@DU?$char_traits@D@std@@V?$allocator@D@2@@std@@PAV12@V?$allocator@V?$basic_string@DU?$char_traits@D@std@@V?$allocator@D@2@@std@@@2@@std@@YAPAV?$basic_string@DU?$char_traits@D@std@@V?$allocator@D@2@@0@PAV10@00AAV?$allocator@V?$basic_string@DU?$char_traits@D@std@@V?$allocator@D@2@@std@@@0@U_Nonscalar_ptr_iterator_tag@0@@Z
  0000a	64 a1 00 00 00
	00		 mov	 eax, DWORD PTR fs:__except_list
  00010	50		 push	 eax
  00011	64 89 25 00 00
	00 00		 mov	 DWORD PTR fs:__except_list, esp
  00018	83 ec 08	 sub	 esp, 8
  0001b	53		 push	 ebx
  0001c	56		 push	 esi

; 78   : 	_FwdIt _Next = _Dest;

  0001d	8b 75 10	 mov	 esi, DWORD PTR __Dest$[ebp]
  00020	57		 push	 edi

; 79   : 
; 80   : 	_TRY_BEGIN

  00021	8b 7d 08	 mov	 edi, DWORD PTR __First$[ebp]
  00024	33 db		 xor	 ebx, ebx
  00026	89 65 f0	 mov	 DWORD PTR __$EHRec$[ebp], esp
  00029	89 75 ec	 mov	 DWORD PTR __Next$[ebp], esi
  0002c	89 5d fc	 mov	 DWORD PTR __$EHRec$[ebp+12], ebx
  0002f	90		 npad	 1
$L227371:

; 81   : 	for (; _First != _Last; ++_Dest, ++_First)

  00030	3b 7d 0c	 cmp	 edi, DWORD PTR __Last$[ebp]
  00033	74 56		 je	 SHORT $L227373

; 82   : 		_Al.construct(_Dest, *_First);

  00035	89 75 08	 mov	 DWORD PTR $T231581[ebp], esi
  00038	3b f3		 cmp	 esi, ebx
  0003a	c6 45 fc 01	 mov	 BYTE PTR __$EHRec$[ebp+12], 1
  0003e	74 18		 je	 SHORT $L231582
  00040	6a ff		 push	 -1
  00042	53		 push	 ebx
  00043	c7 46 18 0f 00
	00 00		 mov	 DWORD PTR [esi+24], 15	; 0000000fH
  0004a	89 5e 14	 mov	 DWORD PTR [esi+20], ebx
  0004d	57		 push	 edi
  0004e	8b ce		 mov	 ecx, esi
  00050	88 5e 04	 mov	 BYTE PTR [esi+4], bl
  00053	e8 00 00 00 00	 call	 ?assign@?$basic_string@DU?$char_traits@D@std@@V?$allocator@D@2@@std@@QAEAAV12@ABV12@II@Z ; std::basic_string<char,std::char_traits<char>,std::allocator<char> >::assign
$L231582:
  00058	83 c6 1c	 add	 esi, 28			; 0000001cH
  0005b	88 5d fc	 mov	 BYTE PTR __$EHRec$[ebp+12], bl
  0005e	89 75 10	 mov	 DWORD PTR __Dest$[ebp], esi
  00061	83 c7 1c	 add	 edi, 28			; 0000001cH
  00064	eb ca		 jmp	 SHORT $L227371
$L231407:

; 83   : 	_CATCH_ALL
; 84   : 	for (; _Next != _Dest; ++_Next)

  00066	8b 75 ec	 mov	 esi, DWORD PTR __Next$[ebp]
  00069	8b 7d 10	 mov	 edi, DWORD PTR __Dest$[ebp]
  0006c	3b f7		 cmp	 esi, edi
  0006e	74 12		 je	 SHORT $L227376
  00070	8b 5d 14	 mov	 ebx, DWORD PTR __Al$[ebp]
$L227374:

; 85   : 		_Al.destroy(_Next);

  00073	56		 push	 esi
  00074	8b cb		 mov	 ecx, ebx
  00076	e8 00 00 00 00	 call	 ?destroy@?$allocator@V?$basic_string@DU?$char_traits@D@std@@V?$allocator@D@2@@std@@@std@@QAEXPAV?$basic_string@DU?$char_traits@D@std@@V?$allocator@D@2@@2@@Z ; std::allocator<std::basic_string<char,std::char_traits<char>,std::allocator<char> > >::destroy
  0007b	83 c6 1c	 add	 esi, 28			; 0000001cH
  0007e	3b f7		 cmp	 esi, edi
  00080	75 f1		 jne	 SHORT $L227374
$L227376:

; 86   : 	_RERAISE;

  00082	33 db		 xor	 ebx, ebx
  00084	53		 push	 ebx
  00085	53		 push	 ebx
  00086	e8 00 00 00 00	 call	 __CxxThrowException@8
$L231598:
$L227373:

; 87   : 	_CATCH_END
; 88   : 	return (_Dest);
; 89   : 	}

  0008b	8b 4d f4	 mov	 ecx, DWORD PTR __$EHRec$[ebp+4]
  0008e	5f		 pop	 edi
  0008f	8b c6		 mov	 eax, esi
  00091	5e		 pop	 esi
  00092	64 89 0d 00 00
	00 00		 mov	 DWORD PTR fs:__except_list, ecx
  00099	5b		 pop	 ebx
  0009a	8b e5		 mov	 esp, ebp
  0009c	5d		 pop	 ebp
  0009d	c3		 ret	 0
$L231594:
_TEXT	ENDS
;	COMDAT text$x
text$x	SEGMENT
$L231414:
  00000	8b 45 10	 mov	 eax, DWORD PTR __Dest$[ebp]
  00003	50		 push	 eax
  00004	8b 4d 08	 mov	 ecx, DWORD PTR $T231581[ebp]
  00007	51		 push	 ecx
  00008	e8 00 00 00 00	 call	 ??3@YAXPAX0@Z		; operator delete
  0000d	83 c4 08	 add	 esp, 8
  00010	c3		 ret	 0
__ehhandler$??$_Uninit_copy@PAV?$basic_string@DU?$char_traits@D@std@@V?$allocator@D@2@@std@@PAV12@V?$allocator@V?$basic_string@DU?$char_traits@D@std@@V?$allocator@D@2@@std@@@2@@std@@YAPAV?$basic_string@DU?$char_traits@D@std@@V?$allocator@D@2@@0@PAV10@00AAV?$allocator@V?$basic_string@DU?$char_traits@D@std@@V?$allocator@D@2@@std@@@0@U_Nonscalar_ptr_iterator_tag@0@@Z:
  00011	b8 00 00 00 00	 mov	 eax, OFFSET FLAT:$T231589
  00016	e9 00 00 00 00	 jmp	 ___CxxFrameHandler
text$x	ENDS
??$_Uninit_copy@PAV?$basic_string@DU?$char_traits@D@std@@V?$allocator@D@2@@std@@PAV12@V?$allocator@V?$basic_string@DU?$char_traits@D@std@@V?$allocator@D@2@@std@@@2@@std@@YAPAV?$basic_string@DU?$char_traits@D@std@@V?$allocator@D@2@@0@PAV10@00AAV?$allocator@V?$basic_string@DU?$char_traits@D@std@@V?$allocator@D@2@@std@@@0@U_Nonscalar_ptr_iterator_tag@0@@Z ENDP ; std::_Uninit_copy<std::basic_string<char,std::char_traits<char>,std::allocator<char> > *,std::basic_string<char,std::char_traits<char>,std::allocator<char> > *,std::allocator<std::basic_string<char,std::char_traits<char>,std::allocator<char> > > >
PUBLIC	??$_Copy_opt@PAV?$basic_string@DU?$char_traits@D@std@@V?$allocator@D@2@@std@@PAV12@@std@@YAPAV?$basic_string@DU?$char_traits@D@std@@V?$allocator@D@2@@0@PAV10@00U_Nonscalar_ptr_iterator_tag@0@@Z ; std::_Copy_opt<std::basic_string<char,std::char_traits<char>,std::allocator<char> > *,std::basic_string<char,std::char_traits<char>,std::allocator<char> > *>
; Function compile flags: /Ogty
; File c:\program files\microsoft visual studio .net 2003\vc7\include\xutility
;	COMDAT ??$_Copy_opt@PAV?$basic_string@DU?$char_traits@D@std@@V?$allocator@D@2@@std@@PAV12@@std@@YAPAV?$basic_string@DU?$char_traits@D@std@@V?$allocator@D@2@@0@PAV10@00U_Nonscalar_ptr_iterator_tag@0@@Z
_TEXT	SEGMENT
__First$ = 8						; size = 4
__Last$ = 12						; size = 4
__Dest$ = 16						; size = 4
___formal$ = 20						; size = 1
??$_Copy_opt@PAV?$basic_string@DU?$char_traits@D@std@@V?$allocator@D@2@@std@@PAV12@@std@@YAPAV?$basic_string@DU?$char_traits@D@std@@V?$allocator@D@2@@0@PAV10@00U_Nonscalar_ptr_iterator_tag@0@@Z PROC NEAR ; std::_Copy_opt<std::basic_string<char,std::char_traits<char>,std::allocator<char> > *,std::basic_string<char,std::char_traits<char>,std::allocator<char> > *>, COMDAT

; 1020 : 	{	// copy [_First, _Last) to [_Dest, ...), arbitrary iterators

  00000	53		 push	 ebx

; 1021 : 	for (; _First != _Last; ++_Dest, ++_First)

  00001	8b 5c 24 0c	 mov	 ebx, DWORD PTR __Last$[esp]
  00005	56		 push	 esi
  00006	8b 74 24 0c	 mov	 esi, DWORD PTR __First$[esp+4]
  0000a	3b f3		 cmp	 esi, ebx
  0000c	74 21		 je	 SHORT $L231613
  0000e	57		 push	 edi
  0000f	8b 7c 24 18	 mov	 edi, DWORD PTR __Dest$[esp+8]
$L227585:

; 1022 : 		*_Dest = *_First;

  00013	6a ff		 push	 -1
  00015	6a 00		 push	 0
  00017	56		 push	 esi
  00018	8b cf		 mov	 ecx, edi
  0001a	e8 00 00 00 00	 call	 ?assign@?$basic_string@DU?$char_traits@D@std@@V?$allocator@D@2@@std@@QAEAAV12@ABV12@II@Z ; std::basic_string<char,std::char_traits<char>,std::allocator<char> >::assign
  0001f	83 c6 1c	 add	 esi, 28			; 0000001cH
  00022	83 c7 1c	 add	 edi, 28			; 0000001cH
  00025	3b f3		 cmp	 esi, ebx
  00027	75 ea		 jne	 SHORT $L227585

; 1023 : 	return (_Dest);

  00029	8b c7		 mov	 eax, edi
  0002b	5f		 pop	 edi
  0002c	5e		 pop	 esi
  0002d	5b		 pop	 ebx

; 1024 : 	}

  0002e	c3		 ret	 0
$L231613:

; 1023 : 	return (_Dest);

  0002f	8b 44 24 14	 mov	 eax, DWORD PTR __Dest$[esp+4]
  00033	5e		 pop	 esi
  00034	5b		 pop	 ebx

; 1024 : 	}

  00035	c3		 ret	 0
??$_Copy_opt@PAV?$basic_string@DU?$char_traits@D@std@@V?$allocator@D@2@@std@@PAV12@@std@@YAPAV?$basic_string@DU?$char_traits@D@std@@V?$allocator@D@2@@0@PAV10@00U_Nonscalar_ptr_iterator_tag@0@@Z ENDP ; std::_Copy_opt<std::basic_string<char,std::char_traits<char>,std::allocator<char> > *,std::basic_string<char,std::char_traits<char>,std::allocator<char> > *>
_TEXT	ENDS
PUBLIC	??$_Copy_opt@Viterator@?$vector@V?$basic_string@DU?$char_traits@D@std@@V?$allocator@D@2@@std@@V?$allocator@V?$basic_string@DU?$char_traits@D@std@@V?$allocator@D@2@@std@@@2@@std@@PAV?$basic_string@DU?$char_traits@D@std@@V?$allocator@D@2@@3@@std@@YAPAV?$basic_string@DU?$char_traits@D@std@@V?$allocator@D@2@@0@Viterator@?$vector@V?$basic_string@DU?$char_traits@D@std@@V?$allocator@D@2@@std@@V?$allocator@V?$basic_string@DU?$char_traits@D@std@@V?$allocator@D@2@@std@@@2@@0@0PAV10@U_Nonscalar_ptr_iterator_tag@0@@Z ; std::_Copy_opt<std::vector<std::basic_string<char,std::char_traits<char>,std::allocator<char> >,std::allocator<std::basic_string<char,std::char_traits<char>,std::allocator<char> > > >::iterator,std::basic_string<char,std::char_traits<char>,std::allocator<char> > *>
; Function compile flags: /Ogty
;	COMDAT ??$_Copy_opt@Viterator@?$vector@V?$basic_string@DU?$char_traits@D@std@@V?$allocator@D@2@@std@@V?$allocator@V?$basic_string@DU?$char_traits@D@std@@V?$allocator@D@2@@std@@@2@@std@@PAV?$basic_string@DU?$char_traits@D@std@@V?$allocator@D@2@@3@@std@@YAPAV?$basic_string@DU?$char_traits@D@std@@V?$allocator@D@2@@0@Viterator@?$vector@V?$basic_string@DU?$char_traits@D@std@@V?$allocator@D@2@@std@@V?$allocator@V?$basic_string@DU?$char_traits@D@std@@V?$allocator@D@2@@std@@@2@@0@0PAV10@U_Nonscalar_ptr_iterator_tag@0@@Z
_TEXT	SEGMENT
__First$ = 8						; size = 4
__Last$ = 12						; size = 4
__Dest$ = 16						; size = 4
___formal$ = 20						; size = 1
??$_Copy_opt@Viterator@?$vector@V?$basic_string@DU?$char_traits@D@std@@V?$allocator@D@2@@std@@V?$allocator@V?$basic_string@DU?$char_traits@D@std@@V?$allocator@D@2@@std@@@2@@std@@PAV?$basic_string@DU?$char_traits@D@std@@V?$allocator@D@2@@3@@std@@YAPAV?$basic_string@DU?$char_traits@D@std@@V?$allocator@D@2@@0@Viterator@?$vector@V?$basic_string@DU?$char_traits@D@std@@V?$allocator@D@2@@std@@V?$allocator@V?$basic_string@DU?$char_traits@D@std@@V?$allocator@D@2@@std@@@2@@0@0PAV10@U_Nonscalar_ptr_iterator_tag@0@@Z PROC NEAR ; std::_Copy_opt<std::vector<std::basic_string<char,std::char_traits<char>,std::allocator<char> >,std::allocator<std::basic_string<char,std::char_traits<char>,std::allocator<char> > > >::iterator,std::basic_string<char,std::char_traits<char>,std::allocator<char> > *>, COMDAT

; 1020 : 	{	// copy [_First, _Last) to [_Dest, ...), arbitrary iterators

  00000	53		 push	 ebx

; 1021 : 	for (; _First != _Last; ++_Dest, ++_First)

  00001	8b 5c 24 0c	 mov	 ebx, DWORD PTR __Last$[esp]
  00005	56		 push	 esi
  00006	8b 74 24 0c	 mov	 esi, DWORD PTR __First$[esp+4]
  0000a	3b f3		 cmp	 esi, ebx
  0000c	74 21		 je	 SHORT $L231647
  0000e	57		 push	 edi
  0000f	8b 7c 24 18	 mov	 edi, DWORD PTR __Dest$[esp+8]
$L231619:

; 1022 : 		*_Dest = *_First;

  00013	6a ff		 push	 -1
  00015	6a 00		 push	 0
  00017	56		 push	 esi
  00018	8b cf		 mov	 ecx, edi
  0001a	e8 00 00 00 00	 call	 ?assign@?$basic_string@DU?$char_traits@D@std@@V?$allocator@D@2@@std@@QAEAAV12@ABV12@II@Z ; std::basic_string<char,std::char_traits<char>,std::allocator<char> >::assign
  0001f	83 c6 1c	 add	 esi, 28			; 0000001cH
  00022	83 c7 1c	 add	 edi, 28			; 0000001cH
  00025	3b f3		 cmp	 esi, ebx
  00027	75 ea		 jne	 SHORT $L231619

; 1023 : 	return (_Dest);

  00029	8b c7		 mov	 eax, edi
  0002b	5f		 pop	 edi
  0002c	5e		 pop	 esi
  0002d	5b		 pop	 ebx

; 1024 : 	}

  0002e	c3		 ret	 0
$L231647:

; 1023 : 	return (_Dest);

  0002f	8b 44 24 14	 mov	 eax, DWORD PTR __Dest$[esp+4]
  00033	5e		 pop	 esi
  00034	5b		 pop	 ebx

; 1024 : 	}

  00035	c3		 ret	 0
??$_Copy_opt@Viterator@?$vector@V?$basic_string@DU?$char_traits@D@std@@V?$allocator@D@2@@std@@V?$allocator@V?$basic_string@DU?$char_traits@D@std@@V?$allocator@D@2@@std@@@2@@std@@PAV?$basic_string@DU?$char_traits@D@std@@V?$allocator@D@2@@3@@std@@YAPAV?$basic_string@DU?$char_traits@D@std@@V?$allocator@D@2@@0@Viterator@?$vector@V?$basic_string@DU?$char_traits@D@std@@V?$allocator@D@2@@std@@V?$allocator@V?$basic_string@DU?$char_traits@D@std@@V?$allocator@D@2@@std@@@2@@0@0PAV10@U_Nonscalar_ptr_iterator_tag@0@@Z ENDP ; std::_Copy_opt<std::vector<std::basic_string<char,std::char_traits<char>,std::allocator<char> >,std::allocator<std::basic_string<char,std::char_traits<char>,std::allocator<char> > > >::iterator,std::basic_string<char,std::char_traits<char>,std::allocator<char> > *>
_TEXT	ENDS
PUBLIC	??$_Uninit_copy@Viterator@?$vector@V?$basic_string@DU?$char_traits@D@std@@V?$allocator@D@2@@std@@V?$allocator@V?$basic_string@DU?$char_traits@D@std@@V?$allocator@D@2@@std@@@2@@std@@PAV?$basic_string@DU?$char_traits@D@std@@V?$allocator@D@2@@3@V?$allocator@V?$basic_string@DU?$char_traits@D@std@@V?$allocator@D@2@@std@@@3@@std@@YAPAV?$basic_string@DU?$char_traits@D@std@@V?$allocator@D@2@@0@Viterator@?$vector@V?$basic_string@DU?$char_traits@D@std@@V?$allocator@D@2@@std@@V?$allocator@V?$basic_string@DU?$char_traits@D@std@@V?$allocator@D@2@@std@@@2@@0@0PAV10@AAV?$allocator@V?$basic_string@DU?$char_traits@D@std@@V?$allocator@D@2@@std@@@0@U_Nonscalar_ptr_iterator_tag@0@@Z ; std::_Uninit_copy<std::vector<std::basic_string<char,std::char_traits<char>,std::allocator<char> >,std::allocator<std::basic_string<char,std::char_traits<char>,std::allocator<char> > > >::iterator,std::basic_string<char,std::char_traits<char>,std::allocator<char> > *,std::allocator<std::basic_string<char,std::char_traits<char>,std::allocator<char> > > >
;	COMDAT xdata$x
; File c:\program files\microsoft visual studio .net 2003\vc7\include\iosfwd
xdata$x	SEGMENT
$T231860 DD	0ffffffffH
	DD	00H
	DD	00H
	DD	FLAT:$L231678
	DD	0ffffffffH
	DD	00H
$T231862 DD	00H
	DD	00H
	DD	00H
	DD	FLAT:$L231652
$T231861 DD	00H
	DD	01H
	DD	02H
	DD	01H
	DD	FLAT:$T231862
$T231854 DD	019930520H
	DD	03H
	DD	FLAT:$T231860
	DD	01H
	DD	FLAT:$T231861
	DD	2 DUP(00H)
; Function compile flags: /Ogty
; File c:\program files\microsoft visual studio .net 2003\vc7\include\memory
xdata$x	ENDS
;	COMDAT ??$_Uninit_copy@Viterator@?$vector@V?$basic_string@DU?$char_traits@D@std@@V?$allocator@D@2@@std@@V?$allocator@V?$basic_string@DU?$char_traits@D@std@@V?$allocator@D@2@@std@@@2@@std@@PAV?$basic_string@DU?$char_traits@D@std@@V?$allocator@D@2@@3@V?$allocator@V?$basic_string@DU?$char_traits@D@std@@V?$allocator@D@2@@std@@@3@@std@@YAPAV?$basic_string@DU?$char_traits@D@std@@V?$allocator@D@2@@0@Viterator@?$vector@V?$basic_string@DU?$char_traits@D@std@@V?$allocator@D@2@@std@@V?$allocator@V?$basic_string@DU?$char_traits@D@std@@V?$allocator@D@2@@std@@@2@@0@0PAV10@AAV?$allocator@V?$basic_string@DU?$char_traits@D@std@@V?$allocator@D@2@@std@@@0@U_Nonscalar_ptr_iterator_tag@0@@Z
_TEXT	SEGMENT
__Next$ = -20						; size = 4
__$EHRec$ = -16						; size = 16
$T231817 = 8						; size = 4
__First$ = 8						; size = 4
__Last$ = 12						; size = 4
__Dest$ = 16						; size = 4
__Al$ = 20						; size = 4
___formal$ = 24						; size = 1
??$_Uninit_copy@Viterator@?$vector@V?$basic_string@DU?$char_traits@D@std@@V?$allocator@D@2@@std@@V?$allocator@V?$basic_string@DU?$char_traits@D@std@@V?$allocator@D@2@@std@@@2@@std@@PAV?$basic_string@DU?$char_traits@D@std@@V?$allocator@D@2@@3@V?$allocator@V?$basic_string@DU?$char_traits@D@std@@V?$allocator@D@2@@std@@@3@@std@@YAPAV?$basic_string@DU?$char_traits@D@std@@V?$allocator@D@2@@0@Viterator@?$vector@V?$basic_string@DU?$char_traits@D@std@@V?$allocator@D@2@@std@@V?$allocator@V?$basic_string@DU?$char_traits@D@std@@V?$allocator@D@2@@std@@@2@@0@0PAV10@AAV?$allocator@V?$basic_string@DU?$char_traits@D@std@@V?$allocator@D@2@@std@@@0@U_Nonscalar_ptr_iterator_tag@0@@Z PROC NEAR ; std::_Uninit_copy<std::vector<std::basic_string<char,std::char_traits<char>,std::allocator<char> >,std::allocator<std::basic_string<char,std::char_traits<char>,std::allocator<char> > > >::iterator,std::basic_string<char,std::char_traits<char>,std::allocator<char> > *,std::allocator<std::basic_string<char,std::char_traits<char>,std::allocator<char> > > >, COMDAT

; 77   : 	{	// copy [_First, _Last) to raw _Dest, using _Al, arbitrary type

  00000	55		 push	 ebp
  00001	8b ec		 mov	 ebp, esp
  00003	6a ff		 push	 -1
  00005	68 00 00 00 00	 push	 __ehhandler$??$_Uninit_copy@Viterator@?$vector@V?$basic_string@DU?$char_traits@D@std@@V?$allocator@D@2@@std@@V?$allocator@V?$basic_string@DU?$char_traits@D@std@@V?$allocator@D@2@@std@@@2@@std@@PAV?$basic_string@DU?$char_traits@D@std@@V?$allocator@D@2@@3@V?$allocator@V?$basic_string@DU?$char_traits@D@std@@V?$allocator@D@2@@std@@@3@@std@@YAPAV?$basic_string@DU?$char_traits@D@std@@V?$allocator@D@2@@0@Viterator@?$vector@V?$basic_string@DU?$char_traits@D@std@@V?$allocator@D@2@@std@@V?$allocator@V?$basic_string@DU?$char_traits@D@std@@V?$allocator@D@2@@std@@@2@@0@0PAV10@AAV?$allocator@V?$basic_string@DU?$char_traits@D@std@@V?$allocator@D@2@@std@@@0@U_Nonscalar_ptr_iterator_tag@0@@Z
  0000a	64 a1 00 00 00
	00		 mov	 eax, DWORD PTR fs:__except_list
  00010	50		 push	 eax
  00011	64 89 25 00 00
	00 00		 mov	 DWORD PTR fs:__except_list, esp
  00018	83 ec 08	 sub	 esp, 8
  0001b	53		 push	 ebx
  0001c	56		 push	 esi

; 78   : 	_FwdIt _Next = _Dest;

  0001d	8b 75 10	 mov	 esi, DWORD PTR __Dest$[ebp]
  00020	57		 push	 edi

; 79   : 
; 80   : 	_TRY_BEGIN

  00021	8b 7d 08	 mov	 edi, DWORD PTR __First$[ebp]
  00024	33 db		 xor	 ebx, ebx
  00026	89 65 f0	 mov	 DWORD PTR __$EHRec$[ebp], esp
  00029	89 75 ec	 mov	 DWORD PTR __Next$[ebp], esi
  0002c	89 5d fc	 mov	 DWORD PTR __$EHRec$[ebp+12], ebx
  0002f	90		 npad	 1

; 81   : 	for (; _First != _Last; ++_Dest, ++_First)

$L231655:
  00030	3b 7d 0c	 cmp	 edi, DWORD PTR __Last$[ebp]
  00033	74 56		 je	 SHORT $L227830

; 82   : 		_Al.construct(_Dest, *_First);

  00035	89 75 08	 mov	 DWORD PTR $T231817[ebp], esi
  00038	3b f3		 cmp	 esi, ebx
  0003a	c6 45 fc 01	 mov	 BYTE PTR __$EHRec$[ebp+12], 1
  0003e	74 18		 je	 SHORT $L231818
  00040	6a ff		 push	 -1
  00042	53		 push	 ebx
  00043	c7 46 18 0f 00
	00 00		 mov	 DWORD PTR [esi+24], 15	; 0000000fH
  0004a	89 5e 14	 mov	 DWORD PTR [esi+20], ebx
  0004d	57		 push	 edi
  0004e	8b ce		 mov	 ecx, esi
  00050	88 5e 04	 mov	 BYTE PTR [esi+4], bl
  00053	e8 00 00 00 00	 call	 ?assign@?$basic_string@DU?$char_traits@D@std@@V?$allocator@D@2@@std@@QAEAAV12@ABV12@II@Z ; std::basic_string<char,std::char_traits<char>,std::allocator<char> >::assign
$L231818:
  00058	83 c6 1c	 add	 esi, 28			; 0000001cH
  0005b	88 5d fc	 mov	 BYTE PTR __$EHRec$[ebp+12], bl
  0005e	89 75 10	 mov	 DWORD PTR __Dest$[ebp], esi
  00061	83 c7 1c	 add	 edi, 28			; 0000001cH
  00064	eb ca		 jmp	 SHORT $L231655
$L231652:

; 83   : 	_CATCH_ALL
; 84   : 	for (; _Next != _Dest; ++_Next)

  00066	8b 75 ec	 mov	 esi, DWORD PTR __Next$[ebp]
  00069	8b 7d 10	 mov	 edi, DWORD PTR __Dest$[ebp]
  0006c	3b f7		 cmp	 esi, edi
  0006e	74 12		 je	 SHORT $L227833
  00070	8b 5d 14	 mov	 ebx, DWORD PTR __Al$[ebp]
$L227831:

; 85   : 		_Al.destroy(_Next);

  00073	56		 push	 esi
  00074	8b cb		 mov	 ecx, ebx
  00076	e8 00 00 00 00	 call	 ?destroy@?$allocator@V?$basic_string@DU?$char_traits@D@std@@V?$allocator@D@2@@std@@@std@@QAEXPAV?$basic_string@DU?$char_traits@D@std@@V?$allocator@D@2@@2@@Z ; std::allocator<std::basic_string<char,std::char_traits<char>,std::allocator<char> > >::destroy
  0007b	83 c6 1c	 add	 esi, 28			; 0000001cH
  0007e	3b f7		 cmp	 esi, edi
  00080	75 f1		 jne	 SHORT $L227831
$L227833:

; 86   : 	_RERAISE;

  00082	33 db		 xor	 ebx, ebx
  00084	53		 push	 ebx
  00085	53		 push	 ebx
  00086	e8 00 00 00 00	 call	 __CxxThrowException@8
$L231863:
$L227830:

; 87   : 	_CATCH_END
; 88   : 	return (_Dest);
; 89   : 	}

  0008b	8b 4d f4	 mov	 ecx, DWORD PTR __$EHRec$[ebp+4]
  0008e	5f		 pop	 edi
  0008f	8b c6		 mov	 eax, esi
  00091	5e		 pop	 esi
  00092	64 89 0d 00 00
	00 00		 mov	 DWORD PTR fs:__except_list, ecx
  00099	5b		 pop	 ebx
  0009a	8b e5		 mov	 esp, ebp
  0009c	5d		 pop	 ebp
  0009d	c3		 ret	 0
$L231859:
_TEXT	ENDS
;	COMDAT text$x
text$x	SEGMENT
$L231678:
  00000	8b 45 10	 mov	 eax, DWORD PTR __Dest$[ebp]
  00003	50		 push	 eax
  00004	8b 4d 08	 mov	 ecx, DWORD PTR $T231817[ebp]
  00007	51		 push	 ecx
  00008	e8 00 00 00 00	 call	 ??3@YAXPAX0@Z		; operator delete
  0000d	83 c4 08	 add	 esp, 8
  00010	c3		 ret	 0
__ehhandler$??$_Uninit_copy@Viterator@?$vector@V?$basic_string@DU?$char_traits@D@std@@V?$allocator@D@2@@std@@V?$allocator@V?$basic_string@DU?$char_traits@D@std@@V?$allocator@D@2@@std@@@2@@std@@PAV?$basic_string@DU?$char_traits@D@std@@V?$allocator@D@2@@3@V?$allocator@V?$basic_string@DU?$char_traits@D@std@@V?$allocator@D@2@@std@@@3@@std@@YAPAV?$basic_string@DU?$char_traits@D@std@@V?$allocator@D@2@@0@Viterator@?$vector@V?$basic_string@DU?$char_traits@D@std@@V?$allocator@D@2@@std@@V?$allocator@V?$basic_string@DU?$char_traits@D@std@@V?$allocator@D@2@@std@@@2@@0@0PAV10@AAV?$allocator@V?$basic_string@DU?$char_traits@D@std@@V?$allocator@D@2@@std@@@0@U_Nonscalar_ptr_iterator_tag@0@@Z:
  00011	b8 00 00 00 00	 mov	 eax, OFFSET FLAT:$T231854
  00016	e9 00 00 00 00	 jmp	 ___CxxFrameHandler
text$x	ENDS
??$_Uninit_copy@Viterator@?$vector@V?$basic_string@DU?$char_traits@D@std@@V?$allocator@D@2@@std@@V?$allocator@V?$basic_string@DU?$char_traits@D@std@@V?$allocator@D@2@@std@@@2@@std@@PAV?$basic_string@DU?$char_traits@D@std@@V?$allocator@D@2@@3@V?$allocator@V?$basic_string@DU?$char_traits@D@std@@V?$allocator@D@2@@std@@@3@@std@@YAPAV?$basic_string@DU?$char_traits@D@std@@V?$allocator@D@2@@0@Viterator@?$vector@V?$basic_string@DU?$char_traits@D@std@@V?$allocator@D@2@@std@@V?$allocator@V?$basic_string@DU?$char_traits@D@std@@V?$allocator@D@2@@std@@@2@@0@0PAV10@AAV?$allocator@V?$basic_string@DU?$char_traits@D@std@@V?$allocator@D@2@@std@@@0@U_Nonscalar_ptr_iterator_tag@0@@Z ENDP ; std::_Uninit_copy<std::vector<std::basic_string<char,std::char_traits<char>,std::allocator<char> >,std::allocator<std::basic_string<char,std::char_traits<char>,std::allocator<char> > > >::iterator,std::basic_string<char,std::char_traits<char>,std::allocator<char> > *,std::allocator<std::basic_string<char,std::char_traits<char>,std::allocator<char> > > >
PUBLIC	?_Buy@?$vector@V?$basic_string@DU?$char_traits@D@std@@V?$allocator@D@2@@std@@V?$allocator@V?$basic_string@DU?$char_traits@D@std@@V?$allocator@D@2@@std@@@2@@std@@IAE_NI@Z ; std::vector<std::basic_string<char,std::char_traits<char>,std::allocator<char> >,std::allocator<std::basic_string<char,std::char_traits<char>,std::allocator<char> > > >::_Buy
; Function compile flags: /Ogty
; File c:\program files\microsoft visual studio .net 2003\vc7\include\vector
;	COMDAT ?_Buy@?$vector@V?$basic_string@DU?$char_traits@D@std@@V?$allocator@D@2@@std@@V?$allocator@V?$basic_string@DU?$char_traits@D@std@@V?$allocator@D@2@@std@@@2@@std@@IAE_NI@Z
_TEXT	SEGMENT
__Capacity$ = 8						; size = 4
?_Buy@?$vector@V?$basic_string@DU?$char_traits@D@std@@V?$allocator@D@2@@std@@V?$allocator@V?$basic_string@DU?$char_traits@D@std@@V?$allocator@D@2@@std@@@2@@std@@IAE_NI@Z PROC NEAR ; std::vector<std::basic_string<char,std::char_traits<char>,std::allocator<char> >,std::allocator<std::basic_string<char,std::char_traits<char>,std::allocator<char> > > >::_Buy, COMDAT
; _this$ = ecx

; 770  : 		{	// allocate array with _Capacity elements

  00000	56		 push	 esi

; 771  : 		_Myfirst = 0, _Mylast = 0, _Myend = 0;

  00001	33 c0		 xor	 eax, eax
  00003	57		 push	 edi

; 772  : 		if (_Capacity == 0)

  00004	8b 7c 24 0c	 mov	 edi, DWORD PTR __Capacity$[esp+4]
  00008	3b f8		 cmp	 edi, eax
  0000a	8b f1		 mov	 esi, ecx
  0000c	89 46 04	 mov	 DWORD PTR [esi+4], eax
  0000f	89 46 08	 mov	 DWORD PTR [esi+8], eax
  00012	89 46 0c	 mov	 DWORD PTR [esi+12], eax
  00015	75 07		 jne	 SHORT $L226314
  00017	5f		 pop	 edi

; 773  : 			return (false);

  00018	32 c0		 xor	 al, al
  0001a	5e		 pop	 esi

; 783  : 		}

  0001b	c2 04 00	 ret	 4
$L226314:

; 774  : 		else if (max_size() < _Capacity)

  0001e	81 ff 49 92 24
	09		 cmp	 edi, 153391689		; 09249249H
  00024	76 07		 jbe	 SHORT $L226316

; 775  : 			_Xlen();	// result too long

  00026	8b ce		 mov	 ecx, esi
  00028	e8 00 00 00 00	 call	 ?_Xlen@?$vector@V?$basic_string@DU?$char_traits@D@std@@V?$allocator@D@2@@std@@V?$allocator@V?$basic_string@DU?$char_traits@D@std@@V?$allocator@D@2@@std@@@2@@std@@IBEXXZ ; std::vector<std::basic_string<char,std::char_traits<char>,std::allocator<char> >,std::allocator<std::basic_string<char,std::char_traits<char>,std::allocator<char> > > >::_Xlen
$L231893:
$L226316:

; 776  : 		else
; 777  : 			{	// nonempty array, allocate storage
; 778  : 			_Myfirst = this->_Alval.allocate(_Capacity);

  0002d	6b ff 1c	 imul	 edi, 28			; 0000001cH
  00030	57		 push	 edi
  00031	e8 00 00 00 00	 call	 ??2@YAPAXI@Z		; operator new

; 779  : 			_Mylast = _Myfirst;
; 780  : 			_Myend = _Myfirst + _Capacity;

  00036	03 f8		 add	 edi, eax
  00038	83 c4 04	 add	 esp, 4
  0003b	89 7e 0c	 mov	 DWORD PTR [esi+12], edi
  0003e	89 46 04	 mov	 DWORD PTR [esi+4], eax
  00041	89 46 08	 mov	 DWORD PTR [esi+8], eax
  00044	5f		 pop	 edi

; 781  : 			}
; 782  : 		return (true);

  00045	b0 01		 mov	 al, 1
  00047	5e		 pop	 esi

; 783  : 		}

  00048	c2 04 00	 ret	 4
$L231892:
?_Buy@?$vector@V?$basic_string@DU?$char_traits@D@std@@V?$allocator@D@2@@std@@V?$allocator@V?$basic_string@DU?$char_traits@D@std@@V?$allocator@D@2@@std@@@2@@std@@IAE_NI@Z ENDP ; std::vector<std::basic_string<char,std::char_traits<char>,std::allocator<char> >,std::allocator<std::basic_string<char,std::char_traits<char>,std::allocator<char> > > >::_Buy
_TEXT	ENDS
PUBLIC	??$_Destroy_range@V?$basic_string@DU?$char_traits@D@std@@V?$allocator@D@2@@std@@V?$allocator@V?$basic_string@DU?$char_traits@D@std@@V?$allocator@D@2@@std@@@2@@std@@YAXPAV?$basic_string@DU?$char_traits@D@std@@V?$allocator@D@2@@0@0AAV?$allocator@V?$basic_string@DU?$char_traits@D@std@@V?$allocator@D@2@@std@@@0@@Z ; std::_Destroy_range<std::basic_string<char,std::char_traits<char>,std::allocator<char> >,std::allocator<std::basic_string<char,std::char_traits<char>,std::allocator<char> > > >
; Function compile flags: /Ogty
; File c:\program files\microsoft visual studio .net 2003\vc7\include\xmemory
;	COMDAT ??$_Destroy_range@V?$basic_string@DU?$char_traits@D@std@@V?$allocator@D@2@@std@@V?$allocator@V?$basic_string@DU?$char_traits@D@std@@V?$allocator@D@2@@std@@@2@@std@@YAXPAV?$basic_string@DU?$char_traits@D@std@@V?$allocator@D@2@@0@0AAV?$allocator@V?$basic_string@DU?$char_traits@D@std@@V?$allocator@D@2@@std@@@0@@Z
_TEXT	SEGMENT
__Cat$231901 = -4					; size = 1
__First$ = 8						; size = 4
__Last$ = 12						; size = 4
__Al$ = 16						; size = 4
??$_Destroy_range@V?$basic_string@DU?$char_traits@D@std@@V?$allocator@D@2@@std@@V?$allocator@V?$basic_string@DU?$char_traits@D@std@@V?$allocator@D@2@@std@@@2@@std@@YAXPAV?$basic_string@DU?$char_traits@D@std@@V?$allocator@D@2@@0@0AAV?$allocator@V?$basic_string@DU?$char_traits@D@std@@V?$allocator@D@2@@std@@@0@@Z PROC NEAR ; std::_Destroy_range<std::basic_string<char,std::char_traits<char>,std::allocator<char> >,std::allocator<std::basic_string<char,std::char_traits<char>,std::allocator<char> > > >, COMDAT

; 216  : 	{	// destroy [_First, _Last)

  00000	51		 push	 ecx

; 217  : 	_Destroy_range(_First, _Last, _Al, _Ptr_cat(_First, _Last));

  00001	8b 04 24	 mov	 eax, DWORD PTR __Cat$231901[esp+4]
  00004	8b 4c 24 10	 mov	 ecx, DWORD PTR __Al$[esp]
  00008	8b 54 24 0c	 mov	 edx, DWORD PTR __Last$[esp]
  0000c	50		 push	 eax
  0000d	8b 44 24 0c	 mov	 eax, DWORD PTR __First$[esp+4]
  00011	51		 push	 ecx
  00012	52		 push	 edx
  00013	50		 push	 eax
  00014	e8 00 00 00 00	 call	 ??$_Destroy_range@V?$basic_string@DU?$char_traits@D@std@@V?$allocator@D@2@@std@@V?$allocator@V?$basic_string@DU?$char_traits@D@std@@V?$allocator@D@2@@std@@@2@@std@@YAXPAV?$basic_string@DU?$char_traits@D@std@@V?$allocator@D@2@@0@0AAV?$allocator@V?$basic_string@DU?$char_traits@D@std@@V?$allocator@D@2@@std@@@0@U_Nonscalar_ptr_iterator_tag@0@@Z ; std::_Destroy_range<std::basic_string<char,std::char_traits<char>,std::allocator<char> >,std::allocator<std::basic_string<char,std::char_traits<char>,std::allocator<char> > > >

; 218  : 	}

  00019	83 c4 14	 add	 esp, 20			; 00000014H
  0001c	c3		 ret	 0
??$_Destroy_range@V?$basic_string@DU?$char_traits@D@std@@V?$allocator@D@2@@std@@V?$allocator@V?$basic_string@DU?$char_traits@D@std@@V?$allocator@D@2@@std@@@2@@std@@YAXPAV?$basic_string@DU?$char_traits@D@std@@V?$allocator@D@2@@0@0AAV?$allocator@V?$basic_string@DU?$char_traits@D@std@@V?$allocator@D@2@@std@@@0@@Z ENDP ; std::_Destroy_range<std::basic_string<char,std::char_traits<char>,std::allocator<char> >,std::allocator<std::basic_string<char,std::char_traits<char>,std::allocator<char> > > >
_TEXT	ENDS
PUBLIC	??$copy_backward@PAV?$basic_string@DU?$char_traits@D@std@@V?$allocator@D@2@@std@@PAV12@@std@@YAPAV?$basic_string@DU?$char_traits@D@std@@V?$allocator@D@2@@0@PAV10@00@Z ; std::copy_backward<std::basic_string<char,std::char_traits<char>,std::allocator<char> > *,std::basic_string<char,std::char_traits<char>,std::allocator<char> > *>
; Function compile flags: /Ogty
; File c:\program files\microsoft visual studio .net 2003\vc7\include\xutility
;	COMDAT ??$copy_backward@PAV?$basic_string@DU?$char_traits@D@std@@V?$allocator@D@2@@std@@PAV12@@std@@YAPAV?$basic_string@DU?$char_traits@D@std@@V?$allocator@D@2@@0@PAV10@00@Z
_TEXT	SEGMENT
__Cat$231909 = -4					; size = 1
__First$ = 8						; size = 4
__Last$ = 12						; size = 4
__Dest$ = 16						; size = 4
??$copy_backward@PAV?$basic_string@DU?$char_traits@D@std@@V?$allocator@D@2@@std@@PAV12@@std@@YAPAV?$basic_string@DU?$char_traits@D@std@@V?$allocator@D@2@@0@PAV10@00@Z PROC NEAR ; std::copy_backward<std::basic_string<char,std::char_traits<char>,std::allocator<char> > *,std::basic_string<char,std::char_traits<char>,std::allocator<char> > *>, COMDAT

; 1067 : 	{	// copy [_First, _Last) backwards to [..., _Dest)

  00000	51		 push	 ecx

; 1068 : 	return (_Copy_backward_opt(_First, _Last, _Dest,
; 1069 : 		_Ptr_cat(_First, _Dest)));

  00001	8b 04 24	 mov	 eax, DWORD PTR __Cat$231909[esp+4]
  00004	8b 4c 24 10	 mov	 ecx, DWORD PTR __Dest$[esp]
  00008	8b 54 24 0c	 mov	 edx, DWORD PTR __Last$[esp]
  0000c	50		 push	 eax
  0000d	8b 44 24 0c	 mov	 eax, DWORD PTR __First$[esp+4]
  00011	51		 push	 ecx
  00012	52		 push	 edx
  00013	50		 push	 eax
  00014	e8 00 00 00 00	 call	 ??$_Copy_backward_opt@PAV?$basic_string@DU?$char_traits@D@std@@V?$allocator@D@2@@std@@PAV12@@std@@YAPAV?$basic_string@DU?$char_traits@D@std@@V?$allocator@D@2@@0@PAV10@00U_Nonscalar_ptr_iterator_tag@0@@Z ; std::_Copy_backward_opt<std::basic_string<char,std::char_traits<char>,std::allocator<char> > *,std::basic_string<char,std::char_traits<char>,std::allocator<char> > *>

; 1070 : 	}

  00019	83 c4 14	 add	 esp, 20			; 00000014H
  0001c	c3		 ret	 0
??$copy_backward@PAV?$basic_string@DU?$char_traits@D@std@@V?$allocator@D@2@@std@@PAV12@@std@@YAPAV?$basic_string@DU?$char_traits@D@std@@V?$allocator@D@2@@0@PAV10@00@Z ENDP ; std::copy_backward<std::basic_string<char,std::char_traits<char>,std::allocator<char> > *,std::basic_string<char,std::char_traits<char>,std::allocator<char> > *>
_TEXT	ENDS
PUBLIC	??$_Uninitialized_copy@Vconst_iterator@?$vector@V?$basic_string@DU?$char_traits@D@std@@V?$allocator@D@2@@std@@V?$allocator@V?$basic_string@DU?$char_traits@D@std@@V?$allocator@D@2@@std@@@2@@std@@PAV?$basic_string@DU?$char_traits@D@std@@V?$allocator@D@2@@3@V?$allocator@V?$basic_string@DU?$char_traits@D@std@@V?$allocator@D@2@@std@@@3@@std@@YAPAV?$basic_string@DU?$char_traits@D@std@@V?$allocator@D@2@@0@Vconst_iterator@?$vector@V?$basic_string@DU?$char_traits@D@std@@V?$allocator@D@2@@std@@V?$allocator@V?$basic_string@DU?$char_traits@D@std@@V?$allocator@D@2@@std@@@2@@0@0PAV10@AAV?$allocator@V?$basic_string@DU?$char_traits@D@std@@V?$allocator@D@2@@std@@@0@@Z ; std::_Uninitialized_copy<std::vector<std::basic_string<char,std::char_traits<char>,std::allocator<char> >,std::allocator<std::basic_string<char,std::char_traits<char>,std::allocator<char> > > >::const_iterator,std::basic_string<char,std::char_traits<char>,std::allocator<char> > *,std::allocator<std::basic_string<char,std::char_traits<char>,std::allocator<char> > > >
; Function compile flags: /Ogty
; File c:\program files\microsoft visual studio .net 2003\vc7\include\memory
;	COMDAT ??$_Uninitialized_copy@Vconst_iterator@?$vector@V?$basic_string@DU?$char_traits@D@std@@V?$allocator@D@2@@std@@V?$allocator@V?$basic_string@DU?$char_traits@D@std@@V?$allocator@D@2@@std@@@2@@std@@PAV?$basic_string@DU?$char_traits@D@std@@V?$allocator@D@2@@3@V?$allocator@V?$basic_string@DU?$char_traits@D@std@@V?$allocator@D@2@@std@@@3@@std@@YAPAV?$basic_string@DU?$char_traits@D@std@@V?$allocator@D@2@@0@Vconst_iterator@?$vector@V?$basic_string@DU?$char_traits@D@std@@V?$allocator@D@2@@std@@V?$allocator@V?$basic_string@DU?$char_traits@D@std@@V?$allocator@D@2@@std@@@2@@0@0PAV10@AAV?$allocator@V?$basic_string@DU?$char_traits@D@std@@V?$allocator@D@2@@std@@@0@@Z
_TEXT	SEGMENT
__Cat$231916 = -4					; size = 1
__First$ = 8						; size = 4
__Last$ = 12						; size = 4
__Dest$ = 16						; size = 4
__Al$ = 20						; size = 4
??$_Uninitialized_copy@Vconst_iterator@?$vector@V?$basic_string@DU?$char_traits@D@std@@V?$allocator@D@2@@std@@V?$allocator@V?$basic_string@DU?$char_traits@D@std@@V?$allocator@D@2@@std@@@2@@std@@PAV?$basic_string@DU?$char_traits@D@std@@V?$allocator@D@2@@3@V?$allocator@V?$basic_string@DU?$char_traits@D@std@@V?$allocator@D@2@@std@@@3@@std@@YAPAV?$basic_string@DU?$char_traits@D@std@@V?$allocator@D@2@@0@Vconst_iterator@?$vector@V?$basic_string@DU?$char_traits@D@std@@V?$allocator@D@2@@std@@V?$allocator@V?$basic_string@DU?$char_traits@D@std@@V?$allocator@D@2@@std@@@2@@0@0PAV10@AAV?$allocator@V?$basic_string@DU?$char_traits@D@std@@V?$allocator@D@2@@std@@@0@@Z PROC NEAR ; std::_Uninitialized_copy<std::vector<std::basic_string<char,std::char_traits<char>,std::allocator<char> >,std::allocator<std::basic_string<char,std::char_traits<char>,std::allocator<char> > > >::const_iterator,std::basic_string<char,std::char_traits<char>,std::allocator<char> > *,std::allocator<std::basic_string<char,std::char_traits<char>,std::allocator<char> > > >, COMDAT

; 126  : 	{	// copy [_First, _Last) to raw _Dest, using _Al

  00000	51		 push	 ecx

; 127  : 	return (_Uninit_copy(_First, _Last, _Dest, _Al,
; 128  : 		_Ptr_cat(_First, _Dest)));

  00001	8b 04 24	 mov	 eax, DWORD PTR __Cat$231916[esp+4]
  00004	8b 4c 24 14	 mov	 ecx, DWORD PTR __Al$[esp]
  00008	8b 54 24 10	 mov	 edx, DWORD PTR __Dest$[esp]
  0000c	50		 push	 eax
  0000d	8b 44 24 10	 mov	 eax, DWORD PTR __Last$[esp+4]
  00011	51		 push	 ecx
  00012	8b 4c 24 10	 mov	 ecx, DWORD PTR __First$[esp+8]
  00016	52		 push	 edx
  00017	50		 push	 eax
  00018	51		 push	 ecx
  00019	e8 00 00 00 00	 call	 ??$_Uninit_copy@Vconst_iterator@?$vector@V?$basic_string@DU?$char_traits@D@std@@V?$allocator@D@2@@std@@V?$allocator@V?$basic_string@DU?$char_traits@D@std@@V?$allocator@D@2@@std@@@2@@std@@PAV?$basic_string@DU?$char_traits@D@std@@V?$allocator@D@2@@3@V?$allocator@V?$basic_string@DU?$char_traits@D@std@@V?$allocator@D@2@@std@@@3@@std@@YAPAV?$basic_string@DU?$char_traits@D@std@@V?$allocator@D@2@@0@Vconst_iterator@?$vector@V?$basic_string@DU?$char_traits@D@std@@V?$allocator@D@2@@std@@V?$allocator@V?$basic_string@DU?$char_traits@D@std@@V?$allocator@D@2@@std@@@2@@0@0PAV10@AAV?$allocator@V?$basic_string@DU?$char_traits@D@std@@V?$allocator@D@2@@std@@@0@U_Nonscalar_ptr_iterator_tag@0@@Z ; std::_Uninit_copy<std::vector<std::basic_string<char,std::char_traits<char>,std::allocator<char> >,std::allocator<std::basic_string<char,std::char_traits<char>,std::allocator<char> > > >::const_iterator,std::basic_string<char,std::char_traits<char>,std::allocator<char> > *,std::allocator<std::basic_string<char,std::char_traits<char>,std::allocator<char> > > >

; 129  : 	}

  0001e	83 c4 18	 add	 esp, 24			; 00000018H
  00021	c3		 ret	 0
??$_Uninitialized_copy@Vconst_iterator@?$vector@V?$basic_string@DU?$char_traits@D@std@@V?$allocator@D@2@@std@@V?$allocator@V?$basic_string@DU?$char_traits@D@std@@V?$allocator@D@2@@std@@@2@@std@@PAV?$basic_string@DU?$char_traits@D@std@@V?$allocator@D@2@@3@V?$allocator@V?$basic_string@DU?$char_traits@D@std@@V?$allocator@D@2@@std@@@3@@std@@YAPAV?$basic_string@DU?$char_traits@D@std@@V?$allocator@D@2@@0@Vconst_iterator@?$vector@V?$basic_string@DU?$char_traits@D@std@@V?$allocator@D@2@@std@@V?$allocator@V?$basic_string@DU?$char_traits@D@std@@V?$allocator@D@2@@std@@@2@@0@0PAV10@AAV?$allocator@V?$basic_string@DU?$char_traits@D@std@@V?$allocator@D@2@@std@@@0@@Z ENDP ; std::_Uninitialized_copy<std::vector<std::basic_string<char,std::char_traits<char>,std::allocator<char> >,std::allocator<std::basic_string<char,std::char_traits<char>,std::allocator<char> > > >::const_iterator,std::basic_string<char,std::char_traits<char>,std::allocator<char> > *,std::allocator<std::basic_string<char,std::char_traits<char>,std::allocator<char> > > >
_TEXT	ENDS
PUBLIC	??$_Uninit_fill_n@PAV?$basic_string@DU?$char_traits@D@std@@V?$allocator@D@2@@std@@IV12@V?$allocator@V?$basic_string@DU?$char_traits@D@std@@V?$allocator@D@2@@std@@@2@@std@@YAXPAV?$basic_string@DU?$char_traits@D@std@@V?$allocator@D@2@@0@IABV10@AAV?$allocator@V?$basic_string@DU?$char_traits@D@std@@V?$allocator@D@2@@std@@@0@U_Nonscalar_ptr_iterator_tag@0@@Z ; std::_Uninit_fill_n<std::basic_string<char,std::char_traits<char>,std::allocator<char> > *,unsigned int,std::basic_string<char,std::char_traits<char>,std::allocator<char> >,std::allocator<std::basic_string<char,std::char_traits<char>,std::allocator<char> > > >
;	COMDAT xdata$x
; File c:\program files\microsoft visual studio .net 2003\vc7\include\iosfwd
xdata$x	SEGMENT
$T232110 DD	0ffffffffH
	DD	00H
	DD	00H
	DD	FLAT:$L231929
	DD	0ffffffffH
	DD	00H
$T232112 DD	00H
	DD	00H
	DD	00H
	DD	FLAT:$L231922
$T232111 DD	00H
	DD	01H
	DD	02H
	DD	01H
	DD	FLAT:$T232112
$T232104 DD	019930520H
	DD	03H
	DD	FLAT:$T232110
	DD	01H
	DD	FLAT:$T232111
	DD	2 DUP(00H)
; Function compile flags: /Ogty
; File c:\program files\microsoft visual studio .net 2003\vc7\include\memory
xdata$x	ENDS
;	COMDAT ??$_Uninit_fill_n@PAV?$basic_string@DU?$char_traits@D@std@@V?$allocator@D@2@@std@@IV12@V?$allocator@V?$basic_string@DU?$char_traits@D@std@@V?$allocator@D@2@@std@@@2@@std@@YAXPAV?$basic_string@DU?$char_traits@D@std@@V?$allocator@D@2@@0@IABV10@AAV?$allocator@V?$basic_string@DU?$char_traits@D@std@@V?$allocator@D@2@@std@@@0@U_Nonscalar_ptr_iterator_tag@0@@Z
_TEXT	SEGMENT
__Next$ = -20						; size = 4
__$EHRec$ = -16						; size = 16
__First$ = 8						; size = 4
$T232068 = 12						; size = 4
__Count$ = 12						; size = 4
__Val$ = 16						; size = 4
__Al$ = 20						; size = 4
___formal$ = 24						; size = 1
??$_Uninit_fill_n@PAV?$basic_string@DU?$char_traits@D@std@@V?$allocator@D@2@@std@@IV12@V?$allocator@V?$basic_string@DU?$char_traits@D@std@@V?$allocator@D@2@@std@@@2@@std@@YAXPAV?$basic_string@DU?$char_traits@D@std@@V?$allocator@D@2@@0@IABV10@AAV?$allocator@V?$basic_string@DU?$char_traits@D@std@@V?$allocator@D@2@@std@@@0@U_Nonscalar_ptr_iterator_tag@0@@Z PROC NEAR ; std::_Uninit_fill_n<std::basic_string<char,std::char_traits<char>,std::allocator<char> > *,unsigned int,std::basic_string<char,std::char_traits<char>,std::allocator<char> >,std::allocator<std::basic_string<char,std::char_traits<char>,std::allocator<char> > > >, COMDAT

; 207  : 	{	// copy _Count *_Val to raw _First, using _Al, arbitrary type

  00000	55		 push	 ebp
  00001	8b ec		 mov	 ebp, esp
  00003	6a ff		 push	 -1
  00005	68 00 00 00 00	 push	 __ehhandler$??$_Uninit_fill_n@PAV?$basic_string@DU?$char_traits@D@std@@V?$allocator@D@2@@std@@IV12@V?$allocator@V?$basic_string@DU?$char_traits@D@std@@V?$allocator@D@2@@std@@@2@@std@@YAXPAV?$basic_string@DU?$char_traits@D@std@@V?$allocator@D@2@@0@IABV10@AAV?$allocator@V?$basic_string@DU?$char_traits@D@std@@V?$allocator@D@2@@std@@@0@U_Nonscalar_ptr_iterator_tag@0@@Z
  0000a	64 a1 00 00 00
	00		 mov	 eax, DWORD PTR fs:__except_list
  00010	50		 push	 eax
  00011	64 89 25 00 00
	00 00		 mov	 DWORD PTR fs:__except_list, esp
  00018	83 ec 08	 sub	 esp, 8
  0001b	53		 push	 ebx
  0001c	56		 push	 esi

; 208  : 	_FwdIt _Next = _First;

  0001d	8b 75 08	 mov	 esi, DWORD PTR __First$[ebp]
  00020	57		 push	 edi

; 209  : 
; 210  : 	_TRY_BEGIN

  00021	8b 7d 0c	 mov	 edi, DWORD PTR __Count$[ebp]
  00024	33 db		 xor	 ebx, ebx
  00026	89 65 f0	 mov	 DWORD PTR __$EHRec$[ebp], esp
  00029	89 75 ec	 mov	 DWORD PTR __Next$[ebp], esi
  0002c	89 5d fc	 mov	 DWORD PTR __$EHRec$[ebp+12], ebx
  0002f	90		 npad	 1
$L227148:

; 211  : 	for (; 0 < _Count; --_Count, ++_First)

  00030	3b fb		 cmp	 edi, ebx
  00032	76 57		 jbe	 SHORT $L227150

; 212  : 		_Al.construct(_First, _Val);

  00034	89 75 0c	 mov	 DWORD PTR $T232068[ebp], esi
  00037	3b f3		 cmp	 esi, ebx
  00039	c6 45 fc 01	 mov	 BYTE PTR __$EHRec$[ebp+12], 1
  0003d	74 1b		 je	 SHORT $L232069
  0003f	8b 45 10	 mov	 eax, DWORD PTR __Val$[ebp]
  00042	6a ff		 push	 -1
  00044	53		 push	 ebx
  00045	c7 46 18 0f 00
	00 00		 mov	 DWORD PTR [esi+24], 15	; 0000000fH
  0004c	89 5e 14	 mov	 DWORD PTR [esi+20], ebx
  0004f	50		 push	 eax
  00050	8b ce		 mov	 ecx, esi
  00052	88 5e 04	 mov	 BYTE PTR [esi+4], bl
  00055	e8 00 00 00 00	 call	 ?assign@?$basic_string@DU?$char_traits@D@std@@V?$allocator@D@2@@std@@QAEAAV12@ABV12@II@Z ; std::basic_string<char,std::char_traits<char>,std::allocator<char> >::assign
$L232069:
  0005a	4f		 dec	 edi
  0005b	83 c6 1c	 add	 esi, 28			; 0000001cH
  0005e	88 5d fc	 mov	 BYTE PTR __$EHRec$[ebp+12], bl
  00061	89 75 08	 mov	 DWORD PTR __First$[ebp], esi
  00064	eb ca		 jmp	 SHORT $L227148
$L231922:

; 213  : 	_CATCH_ALL
; 214  : 	for (; _Next != _First; ++_Next)

  00066	8b 75 ec	 mov	 esi, DWORD PTR __Next$[ebp]
  00069	8b 7d 08	 mov	 edi, DWORD PTR __First$[ebp]
  0006c	3b f7		 cmp	 esi, edi
  0006e	74 12		 je	 SHORT $L227153
  00070	8b 5d 14	 mov	 ebx, DWORD PTR __Al$[ebp]
$L227151:

; 215  : 		_Al.destroy(_Next);

  00073	56		 push	 esi
  00074	8b cb		 mov	 ecx, ebx
  00076	e8 00 00 00 00	 call	 ?destroy@?$allocator@V?$basic_string@DU?$char_traits@D@std@@V?$allocator@D@2@@std@@@std@@QAEXPAV?$basic_string@DU?$char_traits@D@std@@V?$allocator@D@2@@2@@Z ; std::allocator<std::basic_string<char,std::char_traits<char>,std::allocator<char> > >::destroy
  0007b	83 c6 1c	 add	 esi, 28			; 0000001cH
  0007e	3b f7		 cmp	 esi, edi
  00080	75 f1		 jne	 SHORT $L227151
$L227153:

; 216  : 	_RERAISE;

  00082	33 db		 xor	 ebx, ebx
  00084	53		 push	 ebx
  00085	53		 push	 ebx
  00086	e8 00 00 00 00	 call	 __CxxThrowException@8
$L232113:
$L227150:

; 217  : 	_CATCH_END
; 218  : 	}

  0008b	8b 4d f4	 mov	 ecx, DWORD PTR __$EHRec$[ebp+4]
  0008e	5f		 pop	 edi
  0008f	5e		 pop	 esi
  00090	64 89 0d 00 00
	00 00		 mov	 DWORD PTR fs:__except_list, ecx
  00097	5b		 pop	 ebx
  00098	8b e5		 mov	 esp, ebp
  0009a	5d		 pop	 ebp
  0009b	c3		 ret	 0
$L232109:
_TEXT	ENDS
;	COMDAT text$x
text$x	SEGMENT
$L231929:
  00000	8b 45 08	 mov	 eax, DWORD PTR __First$[ebp]
  00003	50		 push	 eax
  00004	8b 4d 0c	 mov	 ecx, DWORD PTR $T232068[ebp]
  00007	51		 push	 ecx
  00008	e8 00 00 00 00	 call	 ??3@YAXPAX0@Z		; operator delete
  0000d	83 c4 08	 add	 esp, 8
  00010	c3		 ret	 0
__ehhandler$??$_Uninit_fill_n@PAV?$basic_string@DU?$char_traits@D@std@@V?$allocator@D@2@@std@@IV12@V?$allocator@V?$basic_string@DU?$char_traits@D@std@@V?$allocator@D@2@@std@@@2@@std@@YAXPAV?$basic_string@DU?$char_traits@D@std@@V?$allocator@D@2@@0@IABV10@AAV?$allocator@V?$basic_string@DU?$char_traits@D@std@@V?$allocator@D@2@@std@@@0@U_Nonscalar_ptr_iterator_tag@0@@Z:
  00011	b8 00 00 00 00	 mov	 eax, OFFSET FLAT:$T232104
  00016	e9 00 00 00 00	 jmp	 ___CxxFrameHandler
text$x	ENDS
??$_Uninit_fill_n@PAV?$basic_string@DU?$char_traits@D@std@@V?$allocator@D@2@@std@@IV12@V?$allocator@V?$basic_string@DU?$char_traits@D@std@@V?$allocator@D@2@@std@@@2@@std@@YAXPAV?$basic_string@DU?$char_traits@D@std@@V?$allocator@D@2@@0@IABV10@AAV?$allocator@V?$basic_string@DU?$char_traits@D@std@@V?$allocator@D@2@@std@@@0@U_Nonscalar_ptr_iterator_tag@0@@Z ENDP ; std::_Uninit_fill_n<std::basic_string<char,std::char_traits<char>,std::allocator<char> > *,unsigned int,std::basic_string<char,std::char_traits<char>,std::allocator<char> >,std::allocator<std::basic_string<char,std::char_traits<char>,std::allocator<char> > > >
PUBLIC	??$_Uninitialized_copy@PAV?$basic_string@DU?$char_traits@D@std@@V?$allocator@D@2@@std@@PAV12@V?$allocator@V?$basic_string@DU?$char_traits@D@std@@V?$allocator@D@2@@std@@@2@@std@@YAPAV?$basic_string@DU?$char_traits@D@std@@V?$allocator@D@2@@0@PAV10@00AAV?$allocator@V?$basic_string@DU?$char_traits@D@std@@V?$allocator@D@2@@std@@@0@@Z ; std::_Uninitialized_copy<std::basic_string<char,std::char_traits<char>,std::allocator<char> > *,std::basic_string<char,std::char_traits<char>,std::allocator<char> > *,std::allocator<std::basic_string<char,std::char_traits<char>,std::allocator<char> > > >
; Function compile flags: /Ogty
;	COMDAT ??$_Uninitialized_copy@PAV?$basic_string@DU?$char_traits@D@std@@V?$allocator@D@2@@std@@PAV12@V?$allocator@V?$basic_string@DU?$char_traits@D@std@@V?$allocator@D@2@@std@@@2@@std@@YAPAV?$basic_string@DU?$char_traits@D@std@@V?$allocator@D@2@@0@PAV10@00AAV?$allocator@V?$basic_string@DU?$char_traits@D@std@@V?$allocator@D@2@@std@@@0@@Z
_TEXT	SEGMENT
__Cat$232122 = -4					; size = 1
__First$ = 8						; size = 4
__Last$ = 12						; size = 4
__Dest$ = 16						; size = 4
__Al$ = 20						; size = 4
??$_Uninitialized_copy@PAV?$basic_string@DU?$char_traits@D@std@@V?$allocator@D@2@@std@@PAV12@V?$allocator@V?$basic_string@DU?$char_traits@D@std@@V?$allocator@D@2@@std@@@2@@std@@YAPAV?$basic_string@DU?$char_traits@D@std@@V?$allocator@D@2@@0@PAV10@00AAV?$allocator@V?$basic_string@DU?$char_traits@D@std@@V?$allocator@D@2@@std@@@0@@Z PROC NEAR ; std::_Uninitialized_copy<std::basic_string<char,std::char_traits<char>,std::allocator<char> > *,std::basic_string<char,std::char_traits<char>,std::allocator<char> > *,std::allocator<std::basic_string<char,std::char_traits<char>,std::allocator<char> > > >, COMDAT

; 126  : 	{	// copy [_First, _Last) to raw _Dest, using _Al

  00000	51		 push	 ecx

; 127  : 	return (_Uninit_copy(_First, _Last, _Dest, _Al,
; 128  : 		_Ptr_cat(_First, _Dest)));

  00001	8b 04 24	 mov	 eax, DWORD PTR __Cat$232122[esp+4]
  00004	8b 4c 24 14	 mov	 ecx, DWORD PTR __Al$[esp]
  00008	8b 54 24 10	 mov	 edx, DWORD PTR __Dest$[esp]
  0000c	50		 push	 eax
  0000d	8b 44 24 10	 mov	 eax, DWORD PTR __Last$[esp+4]
  00011	51		 push	 ecx
  00012	8b 4c 24 10	 mov	 ecx, DWORD PTR __First$[esp+8]
  00016	52		 push	 edx
  00017	50		 push	 eax
  00018	51		 push	 ecx
  00019	e8 00 00 00 00	 call	 ??$_Uninit_copy@PAV?$basic_string@DU?$char_traits@D@std@@V?$allocator@D@2@@std@@PAV12@V?$allocator@V?$basic_string@DU?$char_traits@D@std@@V?$allocator@D@2@@std@@@2@@std@@YAPAV?$basic_string@DU?$char_traits@D@std@@V?$allocator@D@2@@0@PAV10@00AAV?$allocator@V?$basic_string@DU?$char_traits@D@std@@V?$allocator@D@2@@std@@@0@U_Nonscalar_ptr_iterator_tag@0@@Z ; std::_Uninit_copy<std::basic_string<char,std::char_traits<char>,std::allocator<char> > *,std::basic_string<char,std::char_traits<char>,std::allocator<char> > *,std::allocator<std::basic_string<char,std::char_traits<char>,std::allocator<char> > > >

; 129  : 	}

  0001e	83 c4 18	 add	 esp, 24			; 00000018H
  00021	c3		 ret	 0
??$_Uninitialized_copy@PAV?$basic_string@DU?$char_traits@D@std@@V?$allocator@D@2@@std@@PAV12@V?$allocator@V?$basic_string@DU?$char_traits@D@std@@V?$allocator@D@2@@std@@@2@@std@@YAPAV?$basic_string@DU?$char_traits@D@std@@V?$allocator@D@2@@0@PAV10@00AAV?$allocator@V?$basic_string@DU?$char_traits@D@std@@V?$allocator@D@2@@std@@@0@@Z ENDP ; std::_Uninitialized_copy<std::basic_string<char,std::char_traits<char>,std::allocator<char> > *,std::basic_string<char,std::char_traits<char>,std::allocator<char> > *,std::allocator<std::basic_string<char,std::char_traits<char>,std::allocator<char> > > >
_TEXT	ENDS
PUBLIC	??$copy@PAV?$basic_string@DU?$char_traits@D@std@@V?$allocator@D@2@@std@@PAV12@@std@@YAPAV?$basic_string@DU?$char_traits@D@std@@V?$allocator@D@2@@0@PAV10@00@Z ; std::copy<std::basic_string<char,std::char_traits<char>,std::allocator<char> > *,std::basic_string<char,std::char_traits<char>,std::allocator<char> > *>
; Function compile flags: /Ogty
; File c:\program files\microsoft visual studio .net 2003\vc7\include\xutility
;	COMDAT ??$copy@PAV?$basic_string@DU?$char_traits@D@std@@V?$allocator@D@2@@std@@PAV12@@std@@YAPAV?$basic_string@DU?$char_traits@D@std@@V?$allocator@D@2@@0@PAV10@00@Z
_TEXT	SEGMENT
__Cat$232130 = -4					; size = 1
__First$ = 8						; size = 4
__Last$ = 12						; size = 4
__Dest$ = 16						; size = 4
??$copy@PAV?$basic_string@DU?$char_traits@D@std@@V?$allocator@D@2@@std@@PAV12@@std@@YAPAV?$basic_string@DU?$char_traits@D@std@@V?$allocator@D@2@@0@PAV10@00@Z PROC NEAR ; std::copy<std::basic_string<char,std::char_traits<char>,std::allocator<char> > *,std::basic_string<char,std::char_traits<char>,std::allocator<char> > *>, COMDAT

; 1039 : 	{	// copy [_First, _Last) to [_Dest, ...)

  00000	51		 push	 ecx

; 1040 : 	return (_Copy_opt(_First, _Last, _Dest, _Ptr_cat(_First, _Dest)));

  00001	8b 04 24	 mov	 eax, DWORD PTR __Cat$232130[esp+4]
  00004	8b 4c 24 10	 mov	 ecx, DWORD PTR __Dest$[esp]
  00008	8b 54 24 0c	 mov	 edx, DWORD PTR __Last$[esp]
  0000c	50		 push	 eax
  0000d	8b 44 24 0c	 mov	 eax, DWORD PTR __First$[esp+4]
  00011	51		 push	 ecx
  00012	52		 push	 edx
  00013	50		 push	 eax
  00014	e8 00 00 00 00	 call	 ??$_Copy_opt@PAV?$basic_string@DU?$char_traits@D@std@@V?$allocator@D@2@@std@@PAV12@@std@@YAPAV?$basic_string@DU?$char_traits@D@std@@V?$allocator@D@2@@0@PAV10@00U_Nonscalar_ptr_iterator_tag@0@@Z ; std::_Copy_opt<std::basic_string<char,std::char_traits<char>,std::allocator<char> > *,std::basic_string<char,std::char_traits<char>,std::allocator<char> > *>

; 1041 : 	}

  00019	83 c4 14	 add	 esp, 20			; 00000014H
  0001c	c3		 ret	 0
??$copy@PAV?$basic_string@DU?$char_traits@D@std@@V?$allocator@D@2@@std@@PAV12@@std@@YAPAV?$basic_string@DU?$char_traits@D@std@@V?$allocator@D@2@@0@PAV10@00@Z ENDP ; std::copy<std::basic_string<char,std::char_traits<char>,std::allocator<char> > *,std::basic_string<char,std::char_traits<char>,std::allocator<char> > *>
_TEXT	ENDS
PUBLIC	??$copy@Viterator@?$vector@V?$basic_string@DU?$char_traits@D@std@@V?$allocator@D@2@@std@@V?$allocator@V?$basic_string@DU?$char_traits@D@std@@V?$allocator@D@2@@std@@@2@@std@@PAV?$basic_string@DU?$char_traits@D@std@@V?$allocator@D@2@@3@@std@@YAPAV?$basic_string@DU?$char_traits@D@std@@V?$allocator@D@2@@0@Viterator@?$vector@V?$basic_string@DU?$char_traits@D@std@@V?$allocator@D@2@@std@@V?$allocator@V?$basic_string@DU?$char_traits@D@std@@V?$allocator@D@2@@std@@@2@@0@0PAV10@@Z ; std::copy<std::vector<std::basic_string<char,std::char_traits<char>,std::allocator<char> >,std::allocator<std::basic_string<char,std::char_traits<char>,std::allocator<char> > > >::iterator,std::basic_string<char,std::char_traits<char>,std::allocator<char> > *>
; Function compile flags: /Ogty
;	COMDAT ??$copy@Viterator@?$vector@V?$basic_string@DU?$char_traits@D@std@@V?$allocator@D@2@@std@@V?$allocator@V?$basic_string@DU?$char_traits@D@std@@V?$allocator@D@2@@std@@@2@@std@@PAV?$basic_string@DU?$char_traits@D@std@@V?$allocator@D@2@@3@@std@@YAPAV?$basic_string@DU?$char_traits@D@std@@V?$allocator@D@2@@0@Viterator@?$vector@V?$basic_string@DU?$char_traits@D@std@@V?$allocator@D@2@@std@@V?$allocator@V?$basic_string@DU?$char_traits@D@std@@V?$allocator@D@2@@std@@@2@@0@0PAV10@@Z
_TEXT	SEGMENT
__Cat$232137 = -4					; size = 1
__First$ = 8						; size = 4
__Last$ = 12						; size = 4
__Dest$ = 16						; size = 4
??$copy@Viterator@?$vector@V?$basic_string@DU?$char_traits@D@std@@V?$allocator@D@2@@std@@V?$allocator@V?$basic_string@DU?$char_traits@D@std@@V?$allocator@D@2@@std@@@2@@std@@PAV?$basic_string@DU?$char_traits@D@std@@V?$allocator@D@2@@3@@std@@YAPAV?$basic_string@DU?$char_traits@D@std@@V?$allocator@D@2@@0@Viterator@?$vector@V?$basic_string@DU?$char_traits@D@std@@V?$allocator@D@2@@std@@V?$allocator@V?$basic_string@DU?$char_traits@D@std@@V?$allocator@D@2@@std@@@2@@0@0PAV10@@Z PROC NEAR ; std::copy<std::vector<std::basic_string<char,std::char_traits<char>,std::allocator<char> >,std::allocator<std::basic_string<char,std::char_traits<char>,std::allocator<char> > > >::iterator,std::basic_string<char,std::char_traits<char>,std::allocator<char> > *>, COMDAT

; 1039 : 	{	// copy [_First, _Last) to [_Dest, ...)

  00000	51		 push	 ecx

; 1040 : 	return (_Copy_opt(_First, _Last, _Dest, _Ptr_cat(_First, _Dest)));

  00001	8b 04 24	 mov	 eax, DWORD PTR __Cat$232137[esp+4]
  00004	8b 4c 24 10	 mov	 ecx, DWORD PTR __Dest$[esp]
  00008	8b 54 24 0c	 mov	 edx, DWORD PTR __Last$[esp]
  0000c	50		 push	 eax
  0000d	8b 44 24 0c	 mov	 eax, DWORD PTR __First$[esp+4]
  00011	51		 push	 ecx
  00012	52		 push	 edx
  00013	50		 push	 eax
  00014	e8 00 00 00 00	 call	 ??$_Copy_opt@Viterator@?$vector@V?$basic_string@DU?$char_traits@D@std@@V?$allocator@D@2@@std@@V?$allocator@V?$basic_string@DU?$char_traits@D@std@@V?$allocator@D@2@@std@@@2@@std@@PAV?$basic_string@DU?$char_traits@D@std@@V?$allocator@D@2@@3@@std@@YAPAV?$basic_string@DU?$char_traits@D@std@@V?$allocator@D@2@@0@Viterator@?$vector@V?$basic_string@DU?$char_traits@D@std@@V?$allocator@D@2@@std@@V?$allocator@V?$basic_string@DU?$char_traits@D@std@@V?$allocator@D@2@@std@@@2@@0@0PAV10@U_Nonscalar_ptr_iterator_tag@0@@Z ; std::_Copy_opt<std::vector<std::basic_string<char,std::char_traits<char>,std::allocator<char> >,std::allocator<std::basic_string<char,std::char_traits<char>,std::allocator<char> > > >::iterator,std::basic_string<char,std::char_traits<char>,std::allocator<char> > *>

; 1041 : 	}

  00019	83 c4 14	 add	 esp, 20			; 00000014H
  0001c	c3		 ret	 0
??$copy@Viterator@?$vector@V?$basic_string@DU?$char_traits@D@std@@V?$allocator@D@2@@std@@V?$allocator@V?$basic_string@DU?$char_traits@D@std@@V?$allocator@D@2@@std@@@2@@std@@PAV?$basic_string@DU?$char_traits@D@std@@V?$allocator@D@2@@3@@std@@YAPAV?$basic_string@DU?$char_traits@D@std@@V?$allocator@D@2@@0@Viterator@?$vector@V?$basic_string@DU?$char_traits@D@std@@V?$allocator@D@2@@std@@V?$allocator@V?$basic_string@DU?$char_traits@D@std@@V?$allocator@D@2@@std@@@2@@0@0PAV10@@Z ENDP ; std::copy<std::vector<std::basic_string<char,std::char_traits<char>,std::allocator<char> >,std::allocator<std::basic_string<char,std::char_traits<char>,std::allocator<char> > > >::iterator,std::basic_string<char,std::char_traits<char>,std::allocator<char> > *>
_TEXT	ENDS
PUBLIC	??$_Uninitialized_copy@Viterator@?$vector@V?$basic_string@DU?$char_traits@D@std@@V?$allocator@D@2@@std@@V?$allocator@V?$basic_string@DU?$char_traits@D@std@@V?$allocator@D@2@@std@@@2@@std@@PAV?$basic_string@DU?$char_traits@D@std@@V?$allocator@D@2@@3@V?$allocator@V?$basic_string@DU?$char_traits@D@std@@V?$allocator@D@2@@std@@@3@@std@@YAPAV?$basic_string@DU?$char_traits@D@std@@V?$allocator@D@2@@0@Viterator@?$vector@V?$basic_string@DU?$char_traits@D@std@@V?$allocator@D@2@@std@@V?$allocator@V?$basic_string@DU?$char_traits@D@std@@V?$allocator@D@2@@std@@@2@@0@0PAV10@AAV?$allocator@V?$basic_string@DU?$char_traits@D@std@@V?$allocator@D@2@@std@@@0@@Z ; std::_Uninitialized_copy<std::vector<std::basic_string<char,std::char_traits<char>,std::allocator<char> >,std::allocator<std::basic_string<char,std::char_traits<char>,std::allocator<char> > > >::iterator,std::basic_string<char,std::char_traits<char>,std::allocator<char> > *,std::allocator<std::basic_string<char,std::char_traits<char>,std::allocator<char> > > >
; Function compile flags: /Ogty
; File c:\program files\microsoft visual studio .net 2003\vc7\include\memory
;	COMDAT ??$_Uninitialized_copy@Viterator@?$vector@V?$basic_string@DU?$char_traits@D@std@@V?$allocator@D@2@@std@@V?$allocator@V?$basic_string@DU?$char_traits@D@std@@V?$allocator@D@2@@std@@@2@@std@@PAV?$basic_string@DU?$char_traits@D@std@@V?$allocator@D@2@@3@V?$allocator@V?$basic_string@DU?$char_traits@D@std@@V?$allocator@D@2@@std@@@3@@std@@YAPAV?$basic_string@DU?$char_traits@D@std@@V?$allocator@D@2@@0@Viterator@?$vector@V?$basic_string@DU?$char_traits@D@std@@V?$allocator@D@2@@std@@V?$allocator@V?$basic_string@DU?$char_traits@D@std@@V?$allocator@D@2@@std@@@2@@0@0PAV10@AAV?$allocator@V?$basic_string@DU?$char_traits@D@std@@V?$allocator@D@2@@std@@@0@@Z
_TEXT	SEGMENT
__Cat$232145 = -4					; size = 1
__First$ = 8						; size = 4
__Last$ = 12						; size = 4
__Dest$ = 16						; size = 4
__Al$ = 20						; size = 4
??$_Uninitialized_copy@Viterator@?$vector@V?$basic_string@DU?$char_traits@D@std@@V?$allocator@D@2@@std@@V?$allocator@V?$basic_string@DU?$char_traits@D@std@@V?$allocator@D@2@@std@@@2@@std@@PAV?$basic_string@DU?$char_traits@D@std@@V?$allocator@D@2@@3@V?$allocator@V?$basic_string@DU?$char_traits@D@std@@V?$allocator@D@2@@std@@@3@@std@@YAPAV?$basic_string@DU?$char_traits@D@std@@V?$allocator@D@2@@0@Viterator@?$vector@V?$basic_string@DU?$char_traits@D@std@@V?$allocator@D@2@@std@@V?$allocator@V?$basic_string@DU?$char_traits@D@std@@V?$allocator@D@2@@std@@@2@@0@0PAV10@AAV?$allocator@V?$basic_string@DU?$char_traits@D@std@@V?$allocator@D@2@@std@@@0@@Z PROC NEAR ; std::_Uninitialized_copy<std::vector<std::basic_string<char,std::char_traits<char>,std::allocator<char> >,std::allocator<std::basic_string<char,std::char_traits<char>,std::allocator<char> > > >::iterator,std::basic_string<char,std::char_traits<char>,std::allocator<char> > *,std::allocator<std::basic_string<char,std::char_traits<char>,std::allocator<char> > > >, COMDAT

; 126  : 	{	// copy [_First, _Last) to raw _Dest, using _Al

  00000	51		 push	 ecx

; 127  : 	return (_Uninit_copy(_First, _Last, _Dest, _Al,
; 128  : 		_Ptr_cat(_First, _Dest)));

  00001	8b 04 24	 mov	 eax, DWORD PTR __Cat$232145[esp+4]
  00004	8b 4c 24 14	 mov	 ecx, DWORD PTR __Al$[esp]
  00008	8b 54 24 10	 mov	 edx, DWORD PTR __Dest$[esp]
  0000c	50		 push	 eax
  0000d	8b 44 24 10	 mov	 eax, DWORD PTR __Last$[esp+4]
  00011	51		 push	 ecx
  00012	8b 4c 24 10	 mov	 ecx, DWORD PTR __First$[esp+8]
  00016	52		 push	 edx
  00017	50		 push	 eax
  00018	51		 push	 ecx
  00019	e8 00 00 00 00	 call	 ??$_Uninit_copy@Viterator@?$vector@V?$basic_string@DU?$char_traits@D@std@@V?$allocator@D@2@@std@@V?$allocator@V?$basic_string@DU?$char_traits@D@std@@V?$allocator@D@2@@std@@@2@@std@@PAV?$basic_string@DU?$char_traits@D@std@@V?$allocator@D@2@@3@V?$allocator@V?$basic_string@DU?$char_traits@D@std@@V?$allocator@D@2@@std@@@3@@std@@YAPAV?$basic_string@DU?$char_traits@D@std@@V?$allocator@D@2@@0@Viterator@?$vector@V?$basic_string@DU?$char_traits@D@std@@V?$allocator@D@2@@std@@V?$allocator@V?$basic_string@DU?$char_traits@D@std@@V?$allocator@D@2@@std@@@2@@0@0PAV10@AAV?$allocator@V?$basic_string@DU?$char_traits@D@std@@V?$allocator@D@2@@std@@@0@U_Nonscalar_ptr_iterator_tag@0@@Z ; std::_Uninit_copy<std::vector<std::basic_string<char,std::char_traits<char>,std::allocator<char> >,std::allocator<std::basic_string<char,std::char_traits<char>,std::allocator<char> > > >::iterator,std::basic_string<char,std::char_traits<char>,std::allocator<char> > *,std::allocator<std::basic_string<char,std::char_traits<char>,std::allocator<char> > > >

; 129  : 	}

  0001e	83 c4 18	 add	 esp, 24			; 00000018H
  00021	c3		 ret	 0
??$_Uninitialized_copy@Viterator@?$vector@V?$basic_string@DU?$char_traits@D@std@@V?$allocator@D@2@@std@@V?$allocator@V?$basic_string@DU?$char_traits@D@std@@V?$allocator@D@2@@std@@@2@@std@@PAV?$basic_string@DU?$char_traits@D@std@@V?$allocator@D@2@@3@V?$allocator@V?$basic_string@DU?$char_traits@D@std@@V?$allocator@D@2@@std@@@3@@std@@YAPAV?$basic_string@DU?$char_traits@D@std@@V?$allocator@D@2@@0@Viterator@?$vector@V?$basic_string@DU?$char_traits@D@std@@V?$allocator@D@2@@std@@V?$allocator@V?$basic_string@DU?$char_traits@D@std@@V?$allocator@D@2@@std@@@2@@0@0PAV10@AAV?$allocator@V?$basic_string@DU?$char_traits@D@std@@V?$allocator@D@2@@std@@@0@@Z ENDP ; std::_Uninitialized_copy<std::vector<std::basic_string<char,std::char_traits<char>,std::allocator<char> >,std::allocator<std::basic_string<char,std::char_traits<char>,std::allocator<char> > > >::iterator,std::basic_string<char,std::char_traits<char>,std::allocator<char> > *,std::allocator<std::basic_string<char,std::char_traits<char>,std::allocator<char> > > >
_TEXT	ENDS
PUBLIC	??0?$vector@V?$basic_string@DU?$char_traits@D@std@@V?$allocator@D@2@@std@@V?$allocator@V?$basic_string@DU?$char_traits@D@std@@V?$allocator@D@2@@std@@@2@@std@@QAE@XZ ; std::vector<std::basic_string<char,std::char_traits<char>,std::allocator<char> >,std::allocator<std::basic_string<char,std::char_traits<char>,std::allocator<char> > > >::vector<std::basic_string<char,std::char_traits<char>,std::allocator<char> >,std::allocator<std::basic_string<char,std::char_traits<char>,std::allocator<char> > > >
; Function compile flags: /Ogty
; File c:\program files\microsoft visual studio .net 2003\vc7\include\vector
;	COMDAT ??0?$vector@V?$basic_string@DU?$char_traits@D@std@@V?$allocator@D@2@@std@@V?$allocator@V?$basic_string@DU?$char_traits@D@std@@V?$allocator@D@2@@std@@@2@@std@@QAE@XZ
_TEXT	SEGMENT
??0?$vector@V?$basic_string@DU?$char_traits@D@std@@V?$allocator@D@2@@std@@V?$allocator@V?$basic_string@DU?$char_traits@D@std@@V?$allocator@D@2@@std@@@2@@std@@QAE@XZ PROC NEAR ; std::vector<std::basic_string<char,std::char_traits<char>,std::allocator<char> >,std::allocator<std::basic_string<char,std::char_traits<char>,std::allocator<char> > > >::vector<std::basic_string<char,std::char_traits<char>,std::allocator<char> >,std::allocator<std::basic_string<char,std::char_traits<char>,std::allocator<char> > > >, COMDAT
; _this$ = ecx

; 299  : 		{	// construct empty vector

  00000	8b c1		 mov	 eax, ecx

; 300  : 		_Buy(0);

  00002	33 c9		 xor	 ecx, ecx
  00004	89 48 04	 mov	 DWORD PTR [eax+4], ecx
  00007	89 48 08	 mov	 DWORD PTR [eax+8], ecx
  0000a	89 48 0c	 mov	 DWORD PTR [eax+12], ecx

; 301  : 		}

  0000d	c3		 ret	 0
??0?$vector@V?$basic_string@DU?$char_traits@D@std@@V?$allocator@D@2@@std@@V?$allocator@V?$basic_string@DU?$char_traits@D@std@@V?$allocator@D@2@@std@@@2@@std@@QAE@XZ ENDP ; std::vector<std::basic_string<char,std::char_traits<char>,std::allocator<char> >,std::allocator<std::basic_string<char,std::char_traits<char>,std::allocator<char> > > >::vector<std::basic_string<char,std::char_traits<char>,std::allocator<char> >,std::allocator<std::basic_string<char,std::char_traits<char>,std::allocator<char> > > >
_TEXT	ENDS
PUBLIC	?_Destroy@?$vector@V?$basic_string@DU?$char_traits@D@std@@V?$allocator@D@2@@std@@V?$allocator@V?$basic_string@DU?$char_traits@D@std@@V?$allocator@D@2@@std@@@2@@std@@IAEXPAV?$basic_string@DU?$char_traits@D@std@@V?$allocator@D@2@@2@0@Z ; std::vector<std::basic_string<char,std::char_traits<char>,std::allocator<char> >,std::allocator<std::basic_string<char,std::char_traits<char>,std::allocator<char> > > >::_Destroy
; Function compile flags: /Ogty
;	COMDAT ?_Destroy@?$vector@V?$basic_string@DU?$char_traits@D@std@@V?$allocator@D@2@@std@@V?$allocator@V?$basic_string@DU?$char_traits@D@std@@V?$allocator@D@2@@std@@@2@@std@@IAEXPAV?$basic_string@DU?$char_traits@D@std@@V?$allocator@D@2@@2@0@Z
_TEXT	SEGMENT
__First$ = 8						; size = 4
__Cat$232221 = 12					; size = 1
__Last$ = 12						; size = 4
?_Destroy@?$vector@V?$basic_string@DU?$char_traits@D@std@@V?$allocator@D@2@@std@@V?$allocator@V?$basic_string@DU?$char_traits@D@std@@V?$allocator@D@2@@std@@@2@@std@@IAEXPAV?$basic_string@DU?$char_traits@D@std@@V?$allocator@D@2@@2@0@Z PROC NEAR ; std::vector<std::basic_string<char,std::char_traits<char>,std::allocator<char> >,std::allocator<std::basic_string<char,std::char_traits<char>,std::allocator<char> > > >::_Destroy, COMDAT
; _this$ = ecx

; 787  : 		_Destroy_range(_First, _Last, this->_Alval);

  00000	8b 44 24 08	 mov	 eax, DWORD PTR __Cat$232221[esp-4]
  00004	8b 54 24 04	 mov	 edx, DWORD PTR __First$[esp-4]
  00008	50		 push	 eax
  00009	51		 push	 ecx
  0000a	8b 4c 24 10	 mov	 ecx, DWORD PTR __Last$[esp+4]
  0000e	51		 push	 ecx
  0000f	52		 push	 edx
  00010	e8 00 00 00 00	 call	 ??$_Destroy_range@V?$basic_string@DU?$char_traits@D@std@@V?$allocator@D@2@@std@@V?$allocator@V?$basic_string@DU?$char_traits@D@std@@V?$allocator@D@2@@std@@@2@@std@@YAXPAV?$basic_string@DU?$char_traits@D@std@@V?$allocator@D@2@@0@0AAV?$allocator@V?$basic_string@DU?$char_traits@D@std@@V?$allocator@D@2@@std@@@0@U_Nonscalar_ptr_iterator_tag@0@@Z ; std::_Destroy_range<std::basic_string<char,std::char_traits<char>,std::allocator<char> >,std::allocator<std::basic_string<char,std::char_traits<char>,std::allocator<char> > > >
  00015	83 c4 10	 add	 esp, 16			; 00000010H

; 788  : 		}

  00018	c2 08 00	 ret	 8
?_Destroy@?$vector@V?$basic_string@DU?$char_traits@D@std@@V?$allocator@D@2@@std@@V?$allocator@V?$basic_string@DU?$char_traits@D@std@@V?$allocator@D@2@@std@@@2@@std@@IAEXPAV?$basic_string@DU?$char_traits@D@std@@V?$allocator@D@2@@2@0@Z ENDP ; std::vector<std::basic_string<char,std::char_traits<char>,std::allocator<char> >,std::allocator<std::basic_string<char,std::char_traits<char>,std::allocator<char> > > >::_Destroy
_TEXT	ENDS
PUBLIC	??$_Ucopy@Vconst_iterator@?$vector@V?$basic_string@DU?$char_traits@D@std@@V?$allocator@D@2@@std@@V?$allocator@V?$basic_string@DU?$char_traits@D@std@@V?$allocator@D@2@@std@@@2@@std@@@?$vector@V?$basic_string@DU?$char_traits@D@std@@V?$allocator@D@2@@std@@V?$allocator@V?$basic_string@DU?$char_traits@D@std@@V?$allocator@D@2@@std@@@2@@std@@IAEPAV?$basic_string@DU?$char_traits@D@std@@V?$allocator@D@2@@1@Vconst_iterator@01@0PAV21@@Z ; std::vector<std::basic_string<char,std::char_traits<char>,std::allocator<char> >,std::allocator<std::basic_string<char,std::char_traits<char>,std::allocator<char> > > >::_Ucopy<std::vector<std::basic_string<char,std::char_traits<char>,std::allocator<char> >,std::allocator<std::basic_string<char,std::char_traits<char>,std::allocator<char> > > >::const_iterator>
; Function compile flags: /Ogty
;	COMDAT ??$_Ucopy@Vconst_iterator@?$vector@V?$basic_string@DU?$char_traits@D@std@@V?$allocator@D@2@@std@@V?$allocator@V?$basic_string@DU?$char_traits@D@std@@V?$allocator@D@2@@std@@@2@@std@@@?$vector@V?$basic_string@DU?$char_traits@D@std@@V?$allocator@D@2@@std@@V?$allocator@V?$basic_string@DU?$char_traits@D@std@@V?$allocator@D@2@@std@@@2@@std@@IAEPAV?$basic_string@DU?$char_traits@D@std@@V?$allocator@D@2@@1@Vconst_iterator@01@0PAV21@@Z
_TEXT	SEGMENT
__First$ = 8						; size = 4
__Last$ = 12						; size = 4
__Cat$232236 = 16					; size = 1
__Ptr$ = 16						; size = 4
??$_Ucopy@Vconst_iterator@?$vector@V?$basic_string@DU?$char_traits@D@std@@V?$allocator@D@2@@std@@V?$allocator@V?$basic_string@DU?$char_traits@D@std@@V?$allocator@D@2@@std@@@2@@std@@@?$vector@V?$basic_string@DU?$char_traits@D@std@@V?$allocator@D@2@@std@@V?$allocator@V?$basic_string@DU?$char_traits@D@std@@V?$allocator@D@2@@std@@@2@@std@@IAEPAV?$basic_string@DU?$char_traits@D@std@@V?$allocator@D@2@@1@Vconst_iterator@01@0PAV21@@Z PROC NEAR ; std::vector<std::basic_string<char,std::char_traits<char>,std::allocator<char> >,std::allocator<std::basic_string<char,std::char_traits<char>,std::allocator<char> > > >::_Ucopy<std::vector<std::basic_string<char,std::char_traits<char>,std::allocator<char> >,std::allocator<std::basic_string<char,std::char_traits<char>,std::allocator<char> > > >::const_iterator>, COMDAT
; _this$ = ecx

; 802  : 		{	// copy initializing [_First, _Last), using allocator
; 803  : 		return (_Uninitialized_copy(_First, _Last,
; 804  : 			_Ptr, this->_Alval));

  00000	8b 44 24 0c	 mov	 eax, DWORD PTR __Cat$232236[esp-4]
  00004	8b 54 24 08	 mov	 edx, DWORD PTR __Last$[esp-4]
  00008	50		 push	 eax
  00009	8b 44 24 08	 mov	 eax, DWORD PTR __First$[esp]
  0000d	51		 push	 ecx
  0000e	8b 4c 24 14	 mov	 ecx, DWORD PTR __Ptr$[esp+4]
  00012	51		 push	 ecx
  00013	52		 push	 edx
  00014	50		 push	 eax
  00015	e8 00 00 00 00	 call	 ??$_Uninit_copy@Vconst_iterator@?$vector@V?$basic_string@DU?$char_traits@D@std@@V?$allocator@D@2@@std@@V?$allocator@V?$basic_string@DU?$char_traits@D@std@@V?$allocator@D@2@@std@@@2@@std@@PAV?$basic_string@DU?$char_traits@D@std@@V?$allocator@D@2@@3@V?$allocator@V?$basic_string@DU?$char_traits@D@std@@V?$allocator@D@2@@std@@@3@@std@@YAPAV?$basic_string@DU?$char_traits@D@std@@V?$allocator@D@2@@0@Vconst_iterator@?$vector@V?$basic_string@DU?$char_traits@D@std@@V?$allocator@D@2@@std@@V?$allocator@V?$basic_string@DU?$char_traits@D@std@@V?$allocator@D@2@@std@@@2@@0@0PAV10@AAV?$allocator@V?$basic_string@DU?$char_traits@D@std@@V?$allocator@D@2@@std@@@0@U_Nonscalar_ptr_iterator_tag@0@@Z ; std::_Uninit_copy<std::vector<std::basic_string<char,std::char_traits<char>,std::allocator<char> >,std::allocator<std::basic_string<char,std::char_traits<char>,std::allocator<char> > > >::const_iterator,std::basic_string<char,std::char_traits<char>,std::allocator<char> > *,std::allocator<std::basic_string<char,std::char_traits<char>,std::allocator<char> > > >
  0001a	83 c4 14	 add	 esp, 20			; 00000014H

; 805  : 		}

  0001d	c2 0c 00	 ret	 12			; 0000000cH
??$_Ucopy@Vconst_iterator@?$vector@V?$basic_string@DU?$char_traits@D@std@@V?$allocator@D@2@@std@@V?$allocator@V?$basic_string@DU?$char_traits@D@std@@V?$allocator@D@2@@std@@@2@@std@@@?$vector@V?$basic_string@DU?$char_traits@D@std@@V?$allocator@D@2@@std@@V?$allocator@V?$basic_string@DU?$char_traits@D@std@@V?$allocator@D@2@@std@@@2@@std@@IAEPAV?$basic_string@DU?$char_traits@D@std@@V?$allocator@D@2@@1@Vconst_iterator@01@0PAV21@@Z ENDP ; std::vector<std::basic_string<char,std::char_traits<char>,std::allocator<char> >,std::allocator<std::basic_string<char,std::char_traits<char>,std::allocator<char> > > >::_Ucopy<std::vector<std::basic_string<char,std::char_traits<char>,std::allocator<char> >,std::allocator<std::basic_string<char,std::char_traits<char>,std::allocator<char> > > >::const_iterator>
_TEXT	ENDS
PUBLIC	??$_Uninitialized_fill_n@PAV?$basic_string@DU?$char_traits@D@std@@V?$allocator@D@2@@std@@IV12@V?$allocator@V?$basic_string@DU?$char_traits@D@std@@V?$allocator@D@2@@std@@@2@@std@@YAXPAV?$basic_string@DU?$char_traits@D@std@@V?$allocator@D@2@@0@IABV10@AAV?$allocator@V?$basic_string@DU?$char_traits@D@std@@V?$allocator@D@2@@std@@@0@@Z ; std::_Uninitialized_fill_n<std::basic_string<char,std::char_traits<char>,std::allocator<char> > *,unsigned int,std::basic_string<char,std::char_traits<char>,std::allocator<char> >,std::allocator<std::basic_string<char,std::char_traits<char>,std::allocator<char> > > >
; Function compile flags: /Ogty
; File c:\program files\microsoft visual studio .net 2003\vc7\include\memory
;	COMDAT ??$_Uninitialized_fill_n@PAV?$basic_string@DU?$char_traits@D@std@@V?$allocator@D@2@@std@@IV12@V?$allocator@V?$basic_string@DU?$char_traits@D@std@@V?$allocator@D@2@@std@@@2@@std@@YAXPAV?$basic_string@DU?$char_traits@D@std@@V?$allocator@D@2@@0@IABV10@AAV?$allocator@V?$basic_string@DU?$char_traits@D@std@@V?$allocator@D@2@@std@@@0@@Z
_TEXT	SEGMENT
__Cat$232248 = -4					; size = 1
__First$ = 8						; size = 4
__Count$ = 12						; size = 4
__Val$ = 16						; size = 4
__Al$ = 20						; size = 4
??$_Uninitialized_fill_n@PAV?$basic_string@DU?$char_traits@D@std@@V?$allocator@D@2@@std@@IV12@V?$allocator@V?$basic_string@DU?$char_traits@D@std@@V?$allocator@D@2@@std@@@2@@std@@YAXPAV?$basic_string@DU?$char_traits@D@std@@V?$allocator@D@2@@0@IABV10@AAV?$allocator@V?$basic_string@DU?$char_traits@D@std@@V?$allocator@D@2@@std@@@0@@Z PROC NEAR ; std::_Uninitialized_fill_n<std::basic_string<char,std::char_traits<char>,std::allocator<char> > *,unsigned int,std::basic_string<char,std::char_traits<char>,std::allocator<char> >,std::allocator<std::basic_string<char,std::char_traits<char>,std::allocator<char> > > >, COMDAT

; 255  : 	{	// copy _Count *_Val to raw _First, using _Al

  00000	51		 push	 ecx

; 256  : 	_Uninit_fill_n(_First, _Count, _Val, _Al,
; 257  : 		_Ptr_cat(_First, _First));

  00001	8b 04 24	 mov	 eax, DWORD PTR __Cat$232248[esp+4]
  00004	8b 4c 24 14	 mov	 ecx, DWORD PTR __Al$[esp]
  00008	8b 54 24 10	 mov	 edx, DWORD PTR __Val$[esp]
  0000c	50		 push	 eax
  0000d	8b 44 24 10	 mov	 eax, DWORD PTR __Count$[esp+4]
  00011	51		 push	 ecx
  00012	8b 4c 24 10	 mov	 ecx, DWORD PTR __First$[esp+8]
  00016	52		 push	 edx
  00017	50		 push	 eax
  00018	51		 push	 ecx
  00019	e8 00 00 00 00	 call	 ??$_Uninit_fill_n@PAV?$basic_string@DU?$char_traits@D@std@@V?$allocator@D@2@@std@@IV12@V?$allocator@V?$basic_string@DU?$char_traits@D@std@@V?$allocator@D@2@@std@@@2@@std@@YAXPAV?$basic_string@DU?$char_traits@D@std@@V?$allocator@D@2@@0@IABV10@AAV?$allocator@V?$basic_string@DU?$char_traits@D@std@@V?$allocator@D@2@@std@@@0@U_Nonscalar_ptr_iterator_tag@0@@Z ; std::_Uninit_fill_n<std::basic_string<char,std::char_traits<char>,std::allocator<char> > *,unsigned int,std::basic_string<char,std::char_traits<char>,std::allocator<char> >,std::allocator<std::basic_string<char,std::char_traits<char>,std::allocator<char> > > >

; 258  : 	}

  0001e	83 c4 18	 add	 esp, 24			; 00000018H
  00021	c3		 ret	 0
??$_Uninitialized_fill_n@PAV?$basic_string@DU?$char_traits@D@std@@V?$allocator@D@2@@std@@IV12@V?$allocator@V?$basic_string@DU?$char_traits@D@std@@V?$allocator@D@2@@std@@@2@@std@@YAXPAV?$basic_string@DU?$char_traits@D@std@@V?$allocator@D@2@@0@IABV10@AAV?$allocator@V?$basic_string@DU?$char_traits@D@std@@V?$allocator@D@2@@std@@@0@@Z ENDP ; std::_Uninitialized_fill_n<std::basic_string<char,std::char_traits<char>,std::allocator<char> > *,unsigned int,std::basic_string<char,std::char_traits<char>,std::allocator<char> >,std::allocator<std::basic_string<char,std::char_traits<char>,std::allocator<char> > > >
_TEXT	ENDS
PUBLIC	??$_Ucopy@PAV?$basic_string@DU?$char_traits@D@std@@V?$allocator@D@2@@std@@@?$vector@V?$basic_string@DU?$char_traits@D@std@@V?$allocator@D@2@@std@@V?$allocator@V?$basic_string@DU?$char_traits@D@std@@V?$allocator@D@2@@std@@@2@@std@@IAEPAV?$basic_string@DU?$char_traits@D@std@@V?$allocator@D@2@@1@PAV21@00@Z ; std::vector<std::basic_string<char,std::char_traits<char>,std::allocator<char> >,std::allocator<std::basic_string<char,std::char_traits<char>,std::allocator<char> > > >::_Ucopy<std::basic_string<char,std::char_traits<char>,std::allocator<char> > *>
; Function compile flags: /Ogty
; File c:\program files\microsoft visual studio .net 2003\vc7\include\vector
;	COMDAT ??$_Ucopy@PAV?$basic_string@DU?$char_traits@D@std@@V?$allocator@D@2@@std@@@?$vector@V?$basic_string@DU?$char_traits@D@std@@V?$allocator@D@2@@std@@V?$allocator@V?$basic_string@DU?$char_traits@D@std@@V?$allocator@D@2@@std@@@2@@std@@IAEPAV?$basic_string@DU?$char_traits@D@std@@V?$allocator@D@2@@1@PAV21@00@Z
_TEXT	SEGMENT
__First$ = 8						; size = 4
__Last$ = 12						; size = 4
__Cat$232262 = 16					; size = 1
__Ptr$ = 16						; size = 4
??$_Ucopy@PAV?$basic_string@DU?$char_traits@D@std@@V?$allocator@D@2@@std@@@?$vector@V?$basic_string@DU?$char_traits@D@std@@V?$allocator@D@2@@std@@V?$allocator@V?$basic_string@DU?$char_traits@D@std@@V?$allocator@D@2@@std@@@2@@std@@IAEPAV?$basic_string@DU?$char_traits@D@std@@V?$allocator@D@2@@1@PAV21@00@Z PROC NEAR ; std::vector<std::basic_string<char,std::char_traits<char>,std::allocator<char> >,std::allocator<std::basic_string<char,std::char_traits<char>,std::allocator<char> > > >::_Ucopy<std::basic_string<char,std::char_traits<char>,std::allocator<char> > *>, COMDAT
; _this$ = ecx

; 802  : 		{	// copy initializing [_First, _Last), using allocator
; 803  : 		return (_Uninitialized_copy(_First, _Last,
; 804  : 			_Ptr, this->_Alval));

  00000	8b 44 24 0c	 mov	 eax, DWORD PTR __Cat$232262[esp-4]
  00004	8b 54 24 08	 mov	 edx, DWORD PTR __Last$[esp-4]
  00008	50		 push	 eax
  00009	8b 44 24 08	 mov	 eax, DWORD PTR __First$[esp]
  0000d	51		 push	 ecx
  0000e	8b 4c 24 14	 mov	 ecx, DWORD PTR __Ptr$[esp+4]
  00012	51		 push	 ecx
  00013	52		 push	 edx
  00014	50		 push	 eax
  00015	e8 00 00 00 00	 call	 ??$_Uninit_copy@PAV?$basic_string@DU?$char_traits@D@std@@V?$allocator@D@2@@std@@PAV12@V?$allocator@V?$basic_string@DU?$char_traits@D@std@@V?$allocator@D@2@@std@@@2@@std@@YAPAV?$basic_string@DU?$char_traits@D@std@@V?$allocator@D@2@@0@PAV10@00AAV?$allocator@V?$basic_string@DU?$char_traits@D@std@@V?$allocator@D@2@@std@@@0@U_Nonscalar_ptr_iterator_tag@0@@Z ; std::_Uninit_copy<std::basic_string<char,std::char_traits<char>,std::allocator<char> > *,std::basic_string<char,std::char_traits<char>,std::allocator<char> > *,std::allocator<std::basic_string<char,std::char_traits<char>,std::allocator<char> > > >
  0001a	83 c4 14	 add	 esp, 20			; 00000014H

; 805  : 		}

  0001d	c2 0c 00	 ret	 12			; 0000000cH
??$_Ucopy@PAV?$basic_string@DU?$char_traits@D@std@@V?$allocator@D@2@@std@@@?$vector@V?$basic_string@DU?$char_traits@D@std@@V?$allocator@D@2@@std@@V?$allocator@V?$basic_string@DU?$char_traits@D@std@@V?$allocator@D@2@@std@@@2@@std@@IAEPAV?$basic_string@DU?$char_traits@D@std@@V?$allocator@D@2@@1@PAV21@00@Z ENDP ; std::vector<std::basic_string<char,std::char_traits<char>,std::allocator<char> >,std::allocator<std::basic_string<char,std::char_traits<char>,std::allocator<char> > > >::_Ucopy<std::basic_string<char,std::char_traits<char>,std::allocator<char> > *>
_TEXT	ENDS
PUBLIC	?erase@?$vector@V?$basic_string@DU?$char_traits@D@std@@V?$allocator@D@2@@std@@V?$allocator@V?$basic_string@DU?$char_traits@D@std@@V?$allocator@D@2@@std@@@2@@std@@QAE?AViterator@12@V312@0@Z ; std::vector<std::basic_string<char,std::char_traits<char>,std::allocator<char> >,std::allocator<std::basic_string<char,std::char_traits<char>,std::allocator<char> > > >::erase
; Function compile flags: /Ogty
;	COMDAT ?erase@?$vector@V?$basic_string@DU?$char_traits@D@std@@V?$allocator@D@2@@std@@V?$allocator@V?$basic_string@DU?$char_traits@D@std@@V?$allocator@D@2@@std@@@2@@std@@QAE?AViterator@12@V312@0@Z
_TEXT	SEGMENT
__Cat$232313 = 8					; size = 1
__Cat$232287 = 8					; size = 1
___$ReturnUdt$ = 8					; size = 4
__First$ = 12						; size = 4
__Last$ = 16						; size = 4
?erase@?$vector@V?$basic_string@DU?$char_traits@D@std@@V?$allocator@D@2@@std@@V?$allocator@V?$basic_string@DU?$char_traits@D@std@@V?$allocator@D@2@@std@@@2@@std@@QAE?AViterator@12@V312@0@Z PROC NEAR ; std::vector<std::basic_string<char,std::char_traits<char>,std::allocator<char> >,std::allocator<std::basic_string<char,std::char_traits<char>,std::allocator<char> > > >::erase, COMDAT
; _this$ = ecx

; 731  : 		{	// erase [_First, _Last)

  00000	53		 push	 ebx

; 732  : 		if (_First != _Last)

  00001	8b 5c 24 0c	 mov	 ebx, DWORD PTR __First$[esp]
  00005	56		 push	 esi
  00006	8b f1		 mov	 esi, ecx
  00008	8b 4c 24 14	 mov	 ecx, DWORD PTR __Last$[esp+4]
  0000c	3b d9		 cmp	 ebx, ecx
  0000e	74 2a		 je	 SHORT $L232316

; 733  : 			{	// worth doing, copy down over hole
; 734  : 			pointer _Ptr = copy(_ITER_BASE(_Last), _Mylast,
; 735  : 				_ITER_BASE(_First));

  00010	8b 54 24 0c	 mov	 edx, DWORD PTR __Cat$232287[esp+4]
  00014	8b 46 08	 mov	 eax, DWORD PTR [esi+8]
  00017	57		 push	 edi
  00018	52		 push	 edx
  00019	53		 push	 ebx
  0001a	50		 push	 eax
  0001b	51		 push	 ecx
  0001c	e8 00 00 00 00	 call	 ??$_Copy_opt@PAV?$basic_string@DU?$char_traits@D@std@@V?$allocator@D@2@@std@@PAV12@@std@@YAPAV?$basic_string@DU?$char_traits@D@std@@V?$allocator@D@2@@0@PAV10@00U_Nonscalar_ptr_iterator_tag@0@@Z ; std::_Copy_opt<std::basic_string<char,std::char_traits<char>,std::allocator<char> > *,std::basic_string<char,std::char_traits<char>,std::allocator<char> > *>

; 736  : 			_Destroy(_Ptr, _Mylast);

  00021	8b 4e 08	 mov	 ecx, DWORD PTR [esi+8]
  00024	8b f8		 mov	 edi, eax
  00026	8b 44 24 20	 mov	 eax, DWORD PTR __Cat$232313[esp+24]
  0002a	50		 push	 eax
  0002b	56		 push	 esi
  0002c	51		 push	 ecx
  0002d	57		 push	 edi
  0002e	e8 00 00 00 00	 call	 ??$_Destroy_range@V?$basic_string@DU?$char_traits@D@std@@V?$allocator@D@2@@std@@V?$allocator@V?$basic_string@DU?$char_traits@D@std@@V?$allocator@D@2@@std@@@2@@std@@YAXPAV?$basic_string@DU?$char_traits@D@std@@V?$allocator@D@2@@0@0AAV?$allocator@V?$basic_string@DU?$char_traits@D@std@@V?$allocator@D@2@@std@@@0@U_Nonscalar_ptr_iterator_tag@0@@Z ; std::_Destroy_range<std::basic_string<char,std::char_traits<char>,std::allocator<char> >,std::allocator<std::basic_string<char,std::char_traits<char>,std::allocator<char> > > >
  00033	83 c4 20	 add	 esp, 32			; 00000020H

; 737  : 			_Mylast = _Ptr;

  00036	89 7e 08	 mov	 DWORD PTR [esi+8], edi
  00039	5f		 pop	 edi
$L232316:

; 738  : 			}
; 739  : 		return (_First);

  0003a	8b 44 24 0c	 mov	 eax, DWORD PTR ___$ReturnUdt$[esp+4]
  0003e	5e		 pop	 esi
  0003f	89 18		 mov	 DWORD PTR [eax], ebx
  00041	5b		 pop	 ebx

; 740  : 		}

  00042	c2 0c 00	 ret	 12			; 0000000cH
?erase@?$vector@V?$basic_string@DU?$char_traits@D@std@@V?$allocator@D@2@@std@@V?$allocator@V?$basic_string@DU?$char_traits@D@std@@V?$allocator@D@2@@std@@@2@@std@@QAE?AViterator@12@V312@0@Z ENDP ; std::vector<std::basic_string<char,std::char_traits<char>,std::allocator<char> >,std::allocator<std::basic_string<char,std::char_traits<char>,std::allocator<char> > > >::erase
_TEXT	ENDS
PUBLIC	??$_Ucopy@Viterator@?$vector@V?$basic_string@DU?$char_traits@D@std@@V?$allocator@D@2@@std@@V?$allocator@V?$basic_string@DU?$char_traits@D@std@@V?$allocator@D@2@@std@@@2@@std@@@?$vector@V?$basic_string@DU?$char_traits@D@std@@V?$allocator@D@2@@std@@V?$allocator@V?$basic_string@DU?$char_traits@D@std@@V?$allocator@D@2@@std@@@2@@std@@IAEPAV?$basic_string@DU?$char_traits@D@std@@V?$allocator@D@2@@1@Viterator@01@0PAV21@@Z ; std::vector<std::basic_string<char,std::char_traits<char>,std::allocator<char> >,std::allocator<std::basic_string<char,std::char_traits<char>,std::allocator<char> > > >::_Ucopy<std::vector<std::basic_string<char,std::char_traits<char>,std::allocator<char> >,std::allocator<std::basic_string<char,std::char_traits<char>,std::allocator<char> > > >::iterator>
; Function compile flags: /Ogty
;	COMDAT ??$_Ucopy@Viterator@?$vector@V?$basic_string@DU?$char_traits@D@std@@V?$allocator@D@2@@std@@V?$allocator@V?$basic_string@DU?$char_traits@D@std@@V?$allocator@D@2@@std@@@2@@std@@@?$vector@V?$basic_string@DU?$char_traits@D@std@@V?$allocator@D@2@@std@@V?$allocator@V?$basic_string@DU?$char_traits@D@std@@V?$allocator@D@2@@std@@@2@@std@@IAEPAV?$basic_string@DU?$char_traits@D@std@@V?$allocator@D@2@@1@Viterator@01@0PAV21@@Z
_TEXT	SEGMENT
__First$ = 8						; size = 4
__Last$ = 12						; size = 4
__Cat$232330 = 16					; size = 1
__Ptr$ = 16						; size = 4
??$_Ucopy@Viterator@?$vector@V?$basic_string@DU?$char_traits@D@std@@V?$allocator@D@2@@std@@V?$allocator@V?$basic_string@DU?$char_traits@D@std@@V?$allocator@D@2@@std@@@2@@std@@@?$vector@V?$basic_string@DU?$char_traits@D@std@@V?$allocator@D@2@@std@@V?$allocator@V?$basic_string@DU?$char_traits@D@std@@V?$allocator@D@2@@std@@@2@@std@@IAEPAV?$basic_string@DU?$char_traits@D@std@@V?$allocator@D@2@@1@Viterator@01@0PAV21@@Z PROC NEAR ; std::vector<std::basic_string<char,std::char_traits<char>,std::allocator<char> >,std::allocator<std::basic_string<char,std::char_traits<char>,std::allocator<char> > > >::_Ucopy<std::vector<std::basic_string<char,std::char_traits<char>,std::allocator<char> >,std::allocator<std::basic_string<char,std::char_traits<char>,std::allocator<char> > > >::iterator>, COMDAT
; _this$ = ecx

; 802  : 		{	// copy initializing [_First, _Last), using allocator
; 803  : 		return (_Uninitialized_copy(_First, _Last,
; 804  : 			_Ptr, this->_Alval));

  00000	8b 44 24 0c	 mov	 eax, DWORD PTR __Cat$232330[esp-4]
  00004	8b 54 24 08	 mov	 edx, DWORD PTR __Last$[esp-4]
  00008	50		 push	 eax
  00009	8b 44 24 08	 mov	 eax, DWORD PTR __First$[esp]
  0000d	51		 push	 ecx
  0000e	8b 4c 24 14	 mov	 ecx, DWORD PTR __Ptr$[esp+4]
  00012	51		 push	 ecx
  00013	52		 push	 edx
  00014	50		 push	 eax
  00015	e8 00 00 00 00	 call	 ??$_Uninit_copy@Viterator@?$vector@V?$basic_string@DU?$char_traits@D@std@@V?$allocator@D@2@@std@@V?$allocator@V?$basic_string@DU?$char_traits@D@std@@V?$allocator@D@2@@std@@@2@@std@@PAV?$basic_string@DU?$char_traits@D@std@@V?$allocator@D@2@@3@V?$allocator@V?$basic_string@DU?$char_traits@D@std@@V?$allocator@D@2@@std@@@3@@std@@YAPAV?$basic_string@DU?$char_traits@D@std@@V?$allocator@D@2@@0@Viterator@?$vector@V?$basic_string@DU?$char_traits@D@std@@V?$allocator@D@2@@std@@V?$allocator@V?$basic_string@DU?$char_traits@D@std@@V?$allocator@D@2@@std@@@2@@0@0PAV10@AAV?$allocator@V?$basic_string@DU?$char_traits@D@std@@V?$allocator@D@2@@std@@@0@U_Nonscalar_ptr_iterator_tag@0@@Z ; std::_Uninit_copy<std::vector<std::basic_string<char,std::char_traits<char>,std::allocator<char> >,std::allocator<std::basic_string<char,std::char_traits<char>,std::allocator<char> > > >::iterator,std::basic_string<char,std::char_traits<char>,std::allocator<char> > *,std::allocator<std::basic_string<char,std::char_traits<char>,std::allocator<char> > > >
  0001a	83 c4 14	 add	 esp, 20			; 00000014H

; 805  : 		}

  0001d	c2 0c 00	 ret	 12			; 0000000cH
??$_Ucopy@Viterator@?$vector@V?$basic_string@DU?$char_traits@D@std@@V?$allocator@D@2@@std@@V?$allocator@V?$basic_string@DU?$char_traits@D@std@@V?$allocator@D@2@@std@@@2@@std@@@?$vector@V?$basic_string@DU?$char_traits@D@std@@V?$allocator@D@2@@std@@V?$allocator@V?$basic_string@DU?$char_traits@D@std@@V?$allocator@D@2@@std@@@2@@std@@IAEPAV?$basic_string@DU?$char_traits@D@std@@V?$allocator@D@2@@1@Viterator@01@0PAV21@@Z ENDP ; std::vector<std::basic_string<char,std::char_traits<char>,std::allocator<char> >,std::allocator<std::basic_string<char,std::char_traits<char>,std::allocator<char> > > >::_Ucopy<std::vector<std::basic_string<char,std::char_traits<char>,std::allocator<char> >,std::allocator<std::basic_string<char,std::char_traits<char>,std::allocator<char> > > >::iterator>
_TEXT	ENDS
PUBLIC	?_Tidy@?$vector@V?$basic_string@DU?$char_traits@D@std@@V?$allocator@D@2@@std@@V?$allocator@V?$basic_string@DU?$char_traits@D@std@@V?$allocator@D@2@@std@@@2@@std@@IAEXXZ ; std::vector<std::basic_string<char,std::char_traits<char>,std::allocator<char> >,std::allocator<std::basic_string<char,std::char_traits<char>,std::allocator<char> > > >::_Tidy
; Function compile flags: /Ogty
;	COMDAT ?_Tidy@?$vector@V?$basic_string@DU?$char_traits@D@std@@V?$allocator@D@2@@std@@V?$allocator@V?$basic_string@DU?$char_traits@D@std@@V?$allocator@D@2@@std@@@2@@std@@IAEXXZ
_TEXT	SEGMENT
__Cat$232358 = -4					; size = 1
?_Tidy@?$vector@V?$basic_string@DU?$char_traits@D@std@@V?$allocator@D@2@@std@@V?$allocator@V?$basic_string@DU?$char_traits@D@std@@V?$allocator@D@2@@std@@@2@@std@@IAEXXZ PROC NEAR ; std::vector<std::basic_string<char,std::char_traits<char>,std::allocator<char> >,std::allocator<std::basic_string<char,std::char_traits<char>,std::allocator<char> > > >::_Tidy, COMDAT
; _this$ = ecx

; 791  : 		{	// free all storage

  00000	51		 push	 ecx
  00001	56		 push	 esi
  00002	8b f1		 mov	 esi, ecx

; 792  : 		if (_Myfirst != 0)

  00004	8b 46 04	 mov	 eax, DWORD PTR [esi+4]
  00007	85 c0		 test	 eax, eax
  00009	74 1c		 je	 SHORT $L232363

; 793  : 			{	// something to free, destroy and deallocate it
; 794  : 			_Destroy(_Myfirst, _Mylast);

  0000b	8b 4c 24 04	 mov	 ecx, DWORD PTR __Cat$232358[esp+8]
  0000f	8b 56 08	 mov	 edx, DWORD PTR [esi+8]
  00012	51		 push	 ecx
  00013	56		 push	 esi
  00014	52		 push	 edx
  00015	50		 push	 eax
  00016	e8 00 00 00 00	 call	 ??$_Destroy_range@V?$basic_string@DU?$char_traits@D@std@@V?$allocator@D@2@@std@@V?$allocator@V?$basic_string@DU?$char_traits@D@std@@V?$allocator@D@2@@std@@@2@@std@@YAXPAV?$basic_string@DU?$char_traits@D@std@@V?$allocator@D@2@@0@0AAV?$allocator@V?$basic_string@DU?$char_traits@D@std@@V?$allocator@D@2@@std@@@0@U_Nonscalar_ptr_iterator_tag@0@@Z ; std::_Destroy_range<std::basic_string<char,std::char_traits<char>,std::allocator<char> >,std::allocator<std::basic_string<char,std::char_traits<char>,std::allocator<char> > > >

; 795  : 			this->_Alval.deallocate(_Myfirst, _Myend - _Myfirst);

  0001b	8b 46 04	 mov	 eax, DWORD PTR [esi+4]
  0001e	50		 push	 eax
  0001f	e8 00 00 00 00	 call	 ??3@YAXPAX@Z		; operator delete
  00024	83 c4 14	 add	 esp, 20			; 00000014H
$L232363:

; 796  : 			}
; 797  : 		_Myfirst = 0, _Mylast = 0, _Myend = 0;

  00027	c7 46 04 00 00
	00 00		 mov	 DWORD PTR [esi+4], 0
  0002e	c7 46 08 00 00
	00 00		 mov	 DWORD PTR [esi+8], 0
  00035	c7 46 0c 00 00
	00 00		 mov	 DWORD PTR [esi+12], 0
  0003c	5e		 pop	 esi

; 798  : 		}

  0003d	59		 pop	 ecx
  0003e	c3		 ret	 0
?_Tidy@?$vector@V?$basic_string@DU?$char_traits@D@std@@V?$allocator@D@2@@std@@V?$allocator@V?$basic_string@DU?$char_traits@D@std@@V?$allocator@D@2@@std@@@2@@std@@IAEXXZ ENDP ; std::vector<std::basic_string<char,std::char_traits<char>,std::allocator<char> >,std::allocator<std::basic_string<char,std::char_traits<char>,std::allocator<char> > > >::_Tidy
_TEXT	ENDS
PUBLIC	?_Ufill@?$vector@V?$basic_string@DU?$char_traits@D@std@@V?$allocator@D@2@@std@@V?$allocator@V?$basic_string@DU?$char_traits@D@std@@V?$allocator@D@2@@std@@@2@@std@@IAEPAV?$basic_string@DU?$char_traits@D@std@@V?$allocator@D@2@@2@PAV32@IABV32@@Z ; std::vector<std::basic_string<char,std::char_traits<char>,std::allocator<char> >,std::allocator<std::basic_string<char,std::char_traits<char>,std::allocator<char> > > >::_Ufill
; Function compile flags: /Ogty
;	COMDAT ?_Ufill@?$vector@V?$basic_string@DU?$char_traits@D@std@@V?$allocator@D@2@@std@@V?$allocator@V?$basic_string@DU?$char_traits@D@std@@V?$allocator@D@2@@std@@@2@@std@@IAEPAV?$basic_string@DU?$char_traits@D@std@@V?$allocator@D@2@@2@PAV32@IABV32@@Z
_TEXT	SEGMENT
__Ptr$ = 8						; size = 4
__Count$ = 12						; size = 4
__Cat$232380 = 16					; size = 1
__Val$ = 16						; size = 4
?_Ufill@?$vector@V?$basic_string@DU?$char_traits@D@std@@V?$allocator@D@2@@std@@V?$allocator@V?$basic_string@DU?$char_traits@D@std@@V?$allocator@D@2@@std@@@2@@std@@IAEPAV?$basic_string@DU?$char_traits@D@std@@V?$allocator@D@2@@2@PAV32@IABV32@@Z PROC NEAR ; std::vector<std::basic_string<char,std::char_traits<char>,std::allocator<char> >,std::allocator<std::basic_string<char,std::char_traits<char>,std::allocator<char> > > >::_Ufill, COMDAT
; _this$ = ecx

; 878  : 		_Uninitialized_fill_n(_Ptr, _Count, _Val, this->_Alval);

  00000	8b 44 24 0c	 mov	 eax, DWORD PTR __Cat$232380[esp-4]
  00004	56		 push	 esi
  00005	8b 74 24 0c	 mov	 esi, DWORD PTR __Count$[esp]
  00009	57		 push	 edi
  0000a	8b 7c 24 0c	 mov	 edi, DWORD PTR __Ptr$[esp+4]
  0000e	50		 push	 eax
  0000f	51		 push	 ecx
  00010	8b 4c 24 1c	 mov	 ecx, DWORD PTR __Val$[esp+12]
  00014	51		 push	 ecx
  00015	56		 push	 esi
  00016	57		 push	 edi
  00017	e8 00 00 00 00	 call	 ??$_Uninit_fill_n@PAV?$basic_string@DU?$char_traits@D@std@@V?$allocator@D@2@@std@@IV12@V?$allocator@V?$basic_string@DU?$char_traits@D@std@@V?$allocator@D@2@@std@@@2@@std@@YAXPAV?$basic_string@DU?$char_traits@D@std@@V?$allocator@D@2@@0@IABV10@AAV?$allocator@V?$basic_string@DU?$char_traits@D@std@@V?$allocator@D@2@@std@@@0@U_Nonscalar_ptr_iterator_tag@0@@Z ; std::_Uninit_fill_n<std::basic_string<char,std::char_traits<char>,std::allocator<char> > *,unsigned int,std::basic_string<char,std::char_traits<char>,std::allocator<char> >,std::allocator<std::basic_string<char,std::char_traits<char>,std::allocator<char> > > >

; 879  : 		return (_Ptr + _Count);

  0001c	8b c6		 mov	 eax, esi
  0001e	6b c0 1c	 imul	 eax, 28			; 0000001cH
  00021	83 c4 14	 add	 esp, 20			; 00000014H
  00024	03 c7		 add	 eax, edi
  00026	5f		 pop	 edi
  00027	5e		 pop	 esi

; 880  : 		}

  00028	c2 0c 00	 ret	 12			; 0000000cH
?_Ufill@?$vector@V?$basic_string@DU?$char_traits@D@std@@V?$allocator@D@2@@std@@V?$allocator@V?$basic_string@DU?$char_traits@D@std@@V?$allocator@D@2@@std@@@2@@std@@IAEPAV?$basic_string@DU?$char_traits@D@std@@V?$allocator@D@2@@2@PAV32@IABV32@@Z ENDP ; std::vector<std::basic_string<char,std::char_traits<char>,std::allocator<char> >,std::allocator<std::basic_string<char,std::char_traits<char>,std::allocator<char> > > >::_Ufill
_TEXT	ENDS
PUBLIC	?_Insert_n@?$vector@V?$basic_string@DU?$char_traits@D@std@@V?$allocator@D@2@@std@@V?$allocator@V?$basic_string@DU?$char_traits@D@std@@V?$allocator@D@2@@std@@@2@@std@@IAEXViterator@12@IABV?$basic_string@DU?$char_traits@D@std@@V?$allocator@D@2@@2@@Z ; std::vector<std::basic_string<char,std::char_traits<char>,std::allocator<char> >,std::allocator<std::basic_string<char,std::char_traits<char>,std::allocator<char> > > >::_Insert_n
EXTRN	___security_cookie:DWORD
EXTRN	@__security_check_cookie@4:NEAR
;	COMDAT xdata$x
; File c:\program files\microsoft visual studio .net 2003\vc7\include\iosfwd
xdata$x	SEGMENT
$T232810 DD	0ffffffffH
	DD	FLAT:$L232393
	DD	00H
	DD	00H
	DD	00H
	DD	00H
	DD	00H
	DD	00H
	DD	00H
	DD	00H
$T232812 DD	00H
	DD	00H
	DD	00H
	DD	FLAT:$L232390
$T232813 DD	00H
	DD	00H
	DD	00H
	DD	FLAT:$L232392
$T232811 DD	01H
	DD	01H
	DD	02H
	DD	01H
	DD	FLAT:$T232812
	DD	03H
	DD	03H
	DD	04H
	DD	01H
	DD	FLAT:$T232813
$T232804 DD	019930520H
	DD	05H
	DD	FLAT:$T232810
	DD	02H
	DD	FLAT:$T232811
	DD	2 DUP(00H)
; Function compile flags: /Ogty
; File c:\program files\microsoft visual studio .net 2003\vc7\include\vector
xdata$x	ENDS
;	COMDAT ?_Insert_n@?$vector@V?$basic_string@DU?$char_traits@D@std@@V?$allocator@D@2@@std@@V?$allocator@V?$basic_string@DU?$char_traits@D@std@@V?$allocator@D@2@@std@@@2@@std@@IAEXViterator@12@IABV?$basic_string@DU?$char_traits@D@std@@V?$allocator@D@2@@2@@Z
_TEXT	SEGMENT
$T232801 = -64						; size = 4
tv511 = -60						; size = 4
tv496 = -60						; size = 4
__Ptr$226429 = -56					; size = 4
tv573 = -52						; size = 4
tv525 = -52						; size = 4
tv512 = -52						; size = 4
__Cat$232724 = -52					; size = 1
__Cat$232710 = -52					; size = 1
__Cat$232686 = -52					; size = 1
__Cat$232657 = -52					; size = 1
__Cat$232622 = -52					; size = 1
__Cat$232600 = -52					; size = 1
__Cat$232576 = -52					; size = 1
__Newvec$226428 = -52					; size = 4
__Tmp$ = -48						; size = 28
__$ArrayPad$ = -20					; size = 4
__$EHRec$ = -16						; size = 16
__$ReturnAddr$ = 4					; size = 4
__Where$ = 8						; size = 4
__Count$ = 12						; size = 4
__Val$ = 16						; size = 4
?_Insert_n@?$vector@V?$basic_string@DU?$char_traits@D@std@@V?$allocator@D@2@@std@@V?$allocator@V?$basic_string@DU?$char_traits@D@std@@V?$allocator@D@2@@std@@@2@@std@@IAEXViterator@12@IABV?$basic_string@DU?$char_traits@D@std@@V?$allocator@D@2@@2@@Z PROC NEAR ; std::vector<std::basic_string<char,std::char_traits<char>,std::allocator<char> >,std::allocator<std::basic_string<char,std::char_traits<char>,std::allocator<char> > > >::_Insert_n, COMDAT
; _this$ = ecx

; 809  : 		{	// insert _Count * _Val at _Where

  00000	55		 push	 ebp
  00001	8b ec		 mov	 ebp, esp
  00003	6a ff		 push	 -1
  00005	68 00 00 00 00	 push	 __ehhandler$?_Insert_n@?$vector@V?$basic_string@DU?$char_traits@D@std@@V?$allocator@D@2@@std@@V?$allocator@V?$basic_string@DU?$char_traits@D@std@@V?$allocator@D@2@@std@@@2@@std@@IAEXViterator@12@IABV?$basic_string@DU?$char_traits@D@std@@V?$allocator@D@2@@2@@Z
  0000a	64 a1 00 00 00
	00		 mov	 eax, DWORD PTR fs:__except_list
  00010	50		 push	 eax
  00011	64 89 25 00 00
	00 00		 mov	 DWORD PTR fs:__except_list, esp
  00018	83 ec 34	 sub	 esp, 52			; 00000034H
  0001b	a1 00 00 00 00	 mov	 eax, DWORD PTR ___security_cookie
  00020	53		 push	 ebx
  00021	56		 push	 esi
  00022	57		 push	 edi
  00023	89 65 f0	 mov	 DWORD PTR __$EHRec$[ebp], esp
  00026	33 c5		 xor	 eax, ebp

; 810  : 		_Ty _Tmp = _Val;	// in case _Val is in sequence

  00028	6a ff		 push	 -1
  0002a	33 ff		 xor	 edi, edi
  0002c	89 45 ec	 mov	 DWORD PTR __$ArrayPad$[ebp], eax
  0002f	8b 45 10	 mov	 eax, DWORD PTR __Val$[ebp]
  00032	8b f1		 mov	 esi, ecx
  00034	57		 push	 edi
  00035	50		 push	 eax
  00036	8d 4d d0	 lea	 ecx, DWORD PTR __Tmp$[ebp]
  00039	89 75 c0	 mov	 DWORD PTR $T232801[ebp], esi
  0003c	c7 45 e8 0f 00
	00 00		 mov	 DWORD PTR __Tmp$[ebp+24], 15 ; 0000000fH
  00043	89 7d e4	 mov	 DWORD PTR __Tmp$[ebp+20], edi
  00046	c6 45 d4 00	 mov	 BYTE PTR __Tmp$[ebp+4], 0
  0004a	e8 00 00 00 00	 call	 ?assign@?$basic_string@DU?$char_traits@D@std@@V?$allocator@D@2@@std@@QAEAAV12@ABV12@II@Z ; std::basic_string<char,std::char_traits<char>,std::allocator<char> >::assign

; 811  : 		size_type _Capacity = capacity();

  0004f	8b 5e 04	 mov	 ebx, DWORD PTR [esi+4]
  00052	3b df		 cmp	 ebx, edi
  00054	89 7d fc	 mov	 DWORD PTR __$EHRec$[ebp+12], edi
  00057	75 04		 jne	 SHORT $L232492
  00059	33 c9		 xor	 ecx, ecx
  0005b	eb 18		 jmp	 SHORT $L232493
$L232492:
  0005d	8b 4e 0c	 mov	 ecx, DWORD PTR [esi+12]
  00060	2b cb		 sub	 ecx, ebx
  00062	b8 93 24 49 92	 mov	 eax, -1840700269	; 92492493H
  00067	f7 e9		 imul	 ecx
  00069	03 d1		 add	 edx, ecx
  0006b	c1 fa 04	 sar	 edx, 4
  0006e	8b ca		 mov	 ecx, edx
  00070	c1 e9 1f	 shr	 ecx, 31			; 0000001fH
  00073	03 ca		 add	 ecx, edx
$L232493:

; 812  : 
; 813  : 		if (_Count == 0)

  00075	8b 7d 0c	 mov	 edi, DWORD PTR __Count$[ebp]
  00078	85 ff		 test	 edi, edi
  0007a	0f 84 8e 02 00
	00		 je	 $L226448

; 814  : 			;
; 815  : 		else if (max_size() - size() < _Count)

  00080	85 db		 test	 ebx, ebx
  00082	75 04		 jne	 SHORT $L232515
  00084	33 c0		 xor	 eax, eax
  00086	eb 1b		 jmp	 SHORT $L232516
$L232515:
  00088	8b 56 04	 mov	 edx, DWORD PTR [esi+4]
  0008b	8b 5e 08	 mov	 ebx, DWORD PTR [esi+8]
  0008e	2b da		 sub	 ebx, edx
  00090	b8 93 24 49 92	 mov	 eax, -1840700269	; 92492493H
  00095	f7 eb		 imul	 ebx
  00097	03 d3		 add	 edx, ebx
  00099	c1 fa 04	 sar	 edx, 4
  0009c	8b c2		 mov	 eax, edx
  0009e	c1 e8 1f	 shr	 eax, 31			; 0000001fH
  000a1	03 c2		 add	 eax, edx
$L232516:
  000a3	ba 49 92 24 09	 mov	 edx, 153391689		; 09249249H
  000a8	2b d0		 sub	 edx, eax
  000aa	3b d7		 cmp	 edx, edi
  000ac	73 07		 jae	 SHORT $L226424

; 816  : 			_Xlen();	// result too long

  000ae	8b ce		 mov	 ecx, esi
  000b0	e8 00 00 00 00	 call	 ?_Xlen@?$vector@V?$basic_string@DU?$char_traits@D@std@@V?$allocator@D@2@@std@@V?$allocator@V?$basic_string@DU?$char_traits@D@std@@V?$allocator@D@2@@std@@@2@@std@@IBEXXZ ; std::vector<std::basic_string<char,std::char_traits<char>,std::allocator<char> >,std::allocator<std::basic_string<char,std::char_traits<char>,std::allocator<char> > > >::_Xlen
$L232814:
$L226424:

; 817  : 		else if (_Capacity < size() + _Count)

  000b5	8b 46 04	 mov	 eax, DWORD PTR [esi+4]
  000b8	85 c0		 test	 eax, eax
  000ba	75 04		 jne	 SHORT $L232522
  000bc	33 c0		 xor	 eax, eax
  000be	eb 1b		 jmp	 SHORT $L232523
$L232522:
  000c0	8b 56 04	 mov	 edx, DWORD PTR [esi+4]
  000c3	8b 5e 08	 mov	 ebx, DWORD PTR [esi+8]
  000c6	2b da		 sub	 ebx, edx
  000c8	b8 93 24 49 92	 mov	 eax, -1840700269	; 92492493H
  000cd	f7 eb		 imul	 ebx
  000cf	03 d3		 add	 edx, ebx
  000d1	c1 fa 04	 sar	 edx, 4
  000d4	8b c2		 mov	 eax, edx
  000d6	c1 e8 1f	 shr	 eax, 31			; 0000001fH
  000d9	03 c2		 add	 eax, edx
$L232523:
  000db	03 c7		 add	 eax, edi
  000dd	3b c8		 cmp	 ecx, eax
  000df	0f 83 30 01 00
	00		 jae	 $L226426

; 818  : 			{	// not enough room, reallocate
; 819  : 			_Capacity = max_size() - _Capacity / 2 < _Capacity
; 820  : 				? 0 : _Capacity + _Capacity / 2;	// try to grow by 50%

  000e5	8b c1		 mov	 eax, ecx
  000e7	d1 e8		 shr	 eax, 1
  000e9	ba 49 92 24 09	 mov	 edx, 153391689		; 09249249H
  000ee	2b d0		 sub	 edx, eax
  000f0	3b d1		 cmp	 edx, ecx
  000f2	73 04		 jae	 SHORT $L232387
  000f4	33 c9		 xor	 ecx, ecx
  000f6	eb 02		 jmp	 SHORT $L232388
$L232387:
  000f8	03 c8		 add	 ecx, eax
$L232388:

; 821  : 			if (_Capacity < size() + _Count)

  000fa	8b 46 04	 mov	 eax, DWORD PTR [esi+4]
  000fd	85 c0		 test	 eax, eax
  000ff	75 04		 jne	 SHORT $L232545
  00101	33 c0		 xor	 eax, eax
  00103	eb 1b		 jmp	 SHORT $L232546
$L232545:
  00105	8b 56 04	 mov	 edx, DWORD PTR [esi+4]
  00108	8b 5e 08	 mov	 ebx, DWORD PTR [esi+8]
  0010b	2b da		 sub	 ebx, edx
  0010d	b8 93 24 49 92	 mov	 eax, -1840700269	; 92492493H
  00112	f7 eb		 imul	 ebx
  00114	03 d3		 add	 edx, ebx
  00116	c1 fa 04	 sar	 edx, 4
  00119	8b c2		 mov	 eax, edx
  0011b	c1 e8 1f	 shr	 eax, 31			; 0000001fH
  0011e	03 c2		 add	 eax, edx
$L232546:
  00120	03 c7		 add	 eax, edi
  00122	3b c8		 cmp	 ecx, eax
  00124	73 0b		 jae	 SHORT $L226427

; 822  : 				_Capacity = size() + _Count;

  00126	8b ce		 mov	 ecx, esi
  00128	e8 00 00 00 00	 call	 ?size@?$vector@V?$basic_string@DU?$char_traits@D@std@@V?$allocator@D@2@@std@@V?$allocator@V?$basic_string@DU?$char_traits@D@std@@V?$allocator@D@2@@std@@@2@@std@@QBEIXZ ; std::vector<std::basic_string<char,std::char_traits<char>,std::allocator<char> >,std::allocator<std::basic_string<char,std::char_traits<char>,std::allocator<char> > > >::size
  0012d	8b c8		 mov	 ecx, eax
  0012f	03 cf		 add	 ecx, edi
$L226427:

; 823  : 			pointer _Newvec = this->_Alval.allocate(_Capacity);

  00131	6b c9 1c	 imul	 ecx, 28			; 0000001cH
  00134	51		 push	 ecx
  00135	89 4d c4	 mov	 DWORD PTR tv511[ebp], ecx
  00138	e8 00 00 00 00	 call	 ??2@YAPAXI@Z		; operator new

; 824  : 			pointer _Ptr = _Newvec;
; 825  : 
; 826  : 			_TRY_BEGIN
; 827  : 			_Ptr = _Ucopy(_Myfirst, _ITER_BASE(_Where),
; 828  : 				_Newvec);	// copy prefix

  0013d	8b 55 08	 mov	 edx, DWORD PTR __Where$[ebp]
  00140	8b d8		 mov	 ebx, eax
  00142	8b 46 04	 mov	 eax, DWORD PTR [esi+4]
  00145	89 5d cc	 mov	 DWORD PTR __Newvec$226428[ebp], ebx
  00148	8b 4d cc	 mov	 ecx, DWORD PTR __Cat$232576[ebp]
  0014b	51		 push	 ecx
  0014c	56		 push	 esi
  0014d	53		 push	 ebx
  0014e	52		 push	 edx
  0014f	50		 push	 eax
  00150	89 5d c8	 mov	 DWORD PTR __Ptr$226429[ebp], ebx
  00153	c6 45 fc 01	 mov	 BYTE PTR __$EHRec$[ebp+12], 1
  00157	e8 00 00 00 00	 call	 ??$_Uninit_copy@PAV?$basic_string@DU?$char_traits@D@std@@V?$allocator@D@2@@std@@PAV12@V?$allocator@V?$basic_string@DU?$char_traits@D@std@@V?$allocator@D@2@@std@@@2@@std@@YAPAV?$basic_string@DU?$char_traits@D@std@@V?$allocator@D@2@@0@PAV10@00AAV?$allocator@V?$basic_string@DU?$char_traits@D@std@@V?$allocator@D@2@@std@@@0@U_Nonscalar_ptr_iterator_tag@0@@Z ; std::_Uninit_copy<std::basic_string<char,std::char_traits<char>,std::allocator<char> > *,std::basic_string<char,std::char_traits<char>,std::allocator<char> > *,std::allocator<std::basic_string<char,std::char_traits<char>,std::allocator<char> > > >

; 829  : 			_Ptr = _Ufill(_Ptr, _Count, _Tmp);	// add new stuff

  0015c	8b 4d cc	 mov	 ecx, DWORD PTR __Cat$232600[ebp]
  0015f	83 c4 18	 add	 esp, 24			; 00000018H
  00162	51		 push	 ecx
  00163	56		 push	 esi
  00164	8d 55 d0	 lea	 edx, DWORD PTR __Tmp$[ebp]
  00167	52		 push	 edx
  00168	57		 push	 edi
  00169	50		 push	 eax
  0016a	89 45 c8	 mov	 DWORD PTR __Ptr$226429[ebp], eax
  0016d	e8 00 00 00 00	 call	 ??$_Uninit_fill_n@PAV?$basic_string@DU?$char_traits@D@std@@V?$allocator@D@2@@std@@IV12@V?$allocator@V?$basic_string@DU?$char_traits@D@std@@V?$allocator@D@2@@std@@@2@@std@@YAXPAV?$basic_string@DU?$char_traits@D@std@@V?$allocator@D@2@@0@IABV10@AAV?$allocator@V?$basic_string@DU?$char_traits@D@std@@V?$allocator@D@2@@std@@@0@U_Nonscalar_ptr_iterator_tag@0@@Z ; std::_Uninit_fill_n<std::basic_string<char,std::char_traits<char>,std::allocator<char> > *,unsigned int,std::basic_string<char,std::char_traits<char>,std::allocator<char> >,std::allocator<std::basic_string<char,std::char_traits<char>,std::allocator<char> > > >

; 830  : 			_Ucopy(_ITER_BASE(_Where), _Mylast, _Ptr);	// copy suffix

  00172	8b 55 cc	 mov	 edx, DWORD PTR __Cat$232622[ebp]
  00175	8b 4d c8	 mov	 ecx, DWORD PTR __Ptr$226429[ebp]
  00178	8b c7		 mov	 eax, edi
  0017a	6b c0 1c	 imul	 eax, 28			; 0000001cH
  0017d	83 c4 14	 add	 esp, 20			; 00000014H
  00180	52		 push	 edx
  00181	03 c8		 add	 ecx, eax
  00183	8b 46 08	 mov	 eax, DWORD PTR [esi+8]
  00186	56		 push	 esi
  00187	51		 push	 ecx
  00188	50		 push	 eax
  00189	8b 45 08	 mov	 eax, DWORD PTR __Where$[ebp]
  0018c	50		 push	 eax
  0018d	89 4d c8	 mov	 DWORD PTR __Ptr$226429[ebp], ecx
  00190	e8 00 00 00 00	 call	 ??$_Uninit_copy@PAV?$basic_string@DU?$char_traits@D@std@@V?$allocator@D@2@@std@@PAV12@V?$allocator@V?$basic_string@DU?$char_traits@D@std@@V?$allocator@D@2@@std@@@2@@std@@YAPAV?$basic_string@DU?$char_traits@D@std@@V?$allocator@D@2@@0@PAV10@00AAV?$allocator@V?$basic_string@DU?$char_traits@D@std@@V?$allocator@D@2@@std@@@0@U_Nonscalar_ptr_iterator_tag@0@@Z ; std::_Uninit_copy<std::basic_string<char,std::char_traits<char>,std::allocator<char> > *,std::basic_string<char,std::char_traits<char>,std::allocator<char> > *,std::allocator<std::basic_string<char,std::char_traits<char>,std::allocator<char> > > >

; 835  : 			_CATCH_END
; 836  : 
; 837  : 			_Count += size();

  00195	8b 46 04	 mov	 eax, DWORD PTR [esi+4]
  00198	83 c4 14	 add	 esp, 20			; 00000014H
  0019b	85 c0		 test	 eax, eax
  0019d	74 18		 je	 SHORT $L232634
$L232633:
  0019f	8b 4e 08	 mov	 ecx, DWORD PTR [esi+8]
  001a2	2b c8		 sub	 ecx, eax
  001a4	b8 93 24 49 92	 mov	 eax, -1840700269	; 92492493H
  001a9	f7 e9		 imul	 ecx
  001ab	03 d1		 add	 edx, ecx
  001ad	c1 fa 04	 sar	 edx, 4
  001b0	8b c2		 mov	 eax, edx
  001b2	c1 e8 1f	 shr	 eax, 31			; 0000001fH
  001b5	03 c2		 add	 eax, edx
$L232634:
  001b7	03 f8		 add	 edi, eax

; 838  : 			if (_Myfirst != 0)

  001b9	8b 46 04	 mov	 eax, DWORD PTR [esi+4]
  001bc	85 c0		 test	 eax, eax
  001be	74 1b		 je	 SHORT $L232662

; 839  : 				{	// destroy and deallocate old array
; 840  : 				_Destroy(_Myfirst, _Mylast);

  001c0	8b 4d cc	 mov	 ecx, DWORD PTR __Cat$232657[ebp]
  001c3	8b 56 08	 mov	 edx, DWORD PTR [esi+8]
  001c6	51		 push	 ecx
  001c7	56		 push	 esi
  001c8	52		 push	 edx
  001c9	50		 push	 eax
  001ca	e8 00 00 00 00	 call	 ??$_Destroy_range@V?$basic_string@DU?$char_traits@D@std@@V?$allocator@D@2@@std@@V?$allocator@V?$basic_string@DU?$char_traits@D@std@@V?$allocator@D@2@@std@@@2@@std@@YAXPAV?$basic_string@DU?$char_traits@D@std@@V?$allocator@D@2@@0@0AAV?$allocator@V?$basic_string@DU?$char_traits@D@std@@V?$allocator@D@2@@std@@@0@U_Nonscalar_ptr_iterator_tag@0@@Z ; std::_Destroy_range<std::basic_string<char,std::char_traits<char>,std::allocator<char> >,std::allocator<std::basic_string<char,std::char_traits<char>,std::allocator<char> > > >

; 841  : 				this->_Alval.deallocate(_Myfirst, _Myend - _Myfirst);

  001cf	8b 46 04	 mov	 eax, DWORD PTR [esi+4]
  001d2	50		 push	 eax
  001d3	e8 00 00 00 00	 call	 ??3@YAXPAX@Z		; operator delete
  001d8	83 c4 14	 add	 esp, 20			; 00000014H
$L232662:

; 842  : 				}
; 843  : 			_Myend = _Newvec + _Capacity;

  001db	8b 4d c4	 mov	 ecx, DWORD PTR tv511[ebp]

; 844  : 			_Mylast = _Newvec + _Count;

  001de	6b ff 1c	 imul	 edi, 28			; 0000001cH
  001e1	03 cb		 add	 ecx, ebx
  001e3	03 fb		 add	 edi, ebx
  001e5	89 4e 0c	 mov	 DWORD PTR [esi+12], ecx
  001e8	89 7e 08	 mov	 DWORD PTR [esi+8], edi

; 845  : 			_Myfirst = _Newvec;

  001eb	89 5e 04	 mov	 DWORD PTR [esi+4], ebx

; 846  : 			}
; 847  : 		else if ((size_type)(_Mylast - _ITER_BASE(_Where)) < _Count)

  001ee	e9 1b 01 00 00	 jmp	 $L226448
$L232390:

; 831  : 			_CATCH_ALL
; 832  : 			_Destroy(_Newvec, _Ptr);

  001f3	8b 55 c8	 mov	 edx, DWORD PTR __Ptr$226429[ebp]
  001f6	8b 75 cc	 mov	 esi, DWORD PTR __Newvec$226428[ebp]
  001f9	8b 4d c0	 mov	 ecx, DWORD PTR $T232801[ebp]
  001fc	52		 push	 edx
  001fd	56		 push	 esi
  001fe	e8 00 00 00 00	 call	 ?_Destroy@?$vector@V?$basic_string@DU?$char_traits@D@std@@V?$allocator@D@2@@std@@V?$allocator@V?$basic_string@DU?$char_traits@D@std@@V?$allocator@D@2@@std@@@2@@std@@IAEXPAV?$basic_string@DU?$char_traits@D@std@@V?$allocator@D@2@@2@0@Z ; std::vector<std::basic_string<char,std::char_traits<char>,std::allocator<char> >,std::allocator<std::basic_string<char,std::char_traits<char>,std::allocator<char> > > >::_Destroy

; 833  : 			this->_Alval.deallocate(_Newvec, _Capacity);

  00203	56		 push	 esi
  00204	e8 00 00 00 00	 call	 ??3@YAXPAX@Z		; operator delete
  00209	83 c4 04	 add	 esp, 4

; 834  : 			_RERAISE;

  0020c	6a 00		 push	 0
  0020e	6a 00		 push	 0
  00210	e8 00 00 00 00	 call	 __CxxThrowException@8
$L232815:
$L226426:

; 846  : 			}
; 847  : 		else if ((size_type)(_Mylast - _ITER_BASE(_Where)) < _Count)

  00215	8b 4e 08	 mov	 ecx, DWORD PTR [esi+8]
  00218	8b 5d 08	 mov	 ebx, DWORD PTR __Where$[ebp]
  0021b	8b d1		 mov	 edx, ecx
  0021d	2b d3		 sub	 edx, ebx
  0021f	89 55 cc	 mov	 DWORD PTR tv573[ebp], edx
  00222	b8 93 24 49 92	 mov	 eax, -1840700269	; 92492493H
  00227	f7 ea		 imul	 edx
  00229	03 55 cc	 add	 edx, DWORD PTR tv573[ebp]
  0022c	c1 fa 04	 sar	 edx, 4
  0022f	8b c2		 mov	 eax, edx
  00231	c1 e8 1f	 shr	 eax, 31			; 0000001fH
  00234	03 c2		 add	 eax, edx
  00236	3b c7		 cmp	 eax, edi
  00238	89 4d c4	 mov	 DWORD PTR tv496[ebp], ecx
  0023b	0f 83 91 00 00
	00		 jae	 $L226439

; 848  : 			{	// new stuff spills off end
; 849  : 			_Ucopy(_ITER_BASE(_Where), _Mylast,
; 850  : 				_ITER_BASE(_Where) + _Count);	// copy suffix

  00241	8b c7		 mov	 eax, edi
  00243	6b c0 1c	 imul	 eax, 28			; 0000001cH
  00246	89 45 cc	 mov	 DWORD PTR tv512[ebp], eax
  00249	8b 55 cc	 mov	 edx, DWORD PTR __Cat$232686[ebp]
  0024c	52		 push	 edx
  0024d	56		 push	 esi
  0024e	03 c3		 add	 eax, ebx
  00250	50		 push	 eax
  00251	51		 push	 ecx
  00252	53		 push	 ebx
  00253	e8 00 00 00 00	 call	 ??$_Uninit_copy@PAV?$basic_string@DU?$char_traits@D@std@@V?$allocator@D@2@@std@@PAV12@V?$allocator@V?$basic_string@DU?$char_traits@D@std@@V?$allocator@D@2@@std@@@2@@std@@YAPAV?$basic_string@DU?$char_traits@D@std@@V?$allocator@D@2@@0@PAV10@00AAV?$allocator@V?$basic_string@DU?$char_traits@D@std@@V?$allocator@D@2@@std@@@0@U_Nonscalar_ptr_iterator_tag@0@@Z ; std::_Uninit_copy<std::basic_string<char,std::char_traits<char>,std::allocator<char> > *,std::basic_string<char,std::char_traits<char>,std::allocator<char> > *,std::allocator<std::basic_string<char,std::char_traits<char>,std::allocator<char> > > >

; 851  : 
; 852  : 			_TRY_BEGIN
; 853  : 			_Ufill(_Mylast, _Count - (_Mylast - _ITER_BASE(_Where)),
; 854  : 				_Tmp);	// insert new stuff off end

  00258	8b 4e 08	 mov	 ecx, DWORD PTR [esi+8]
  0025b	83 c4 14	 add	 esp, 20			; 00000014H
  0025e	2b cb		 sub	 ecx, ebx
  00260	8d 45 d0	 lea	 eax, DWORD PTR __Tmp$[ebp]
  00263	50		 push	 eax
  00264	b8 93 24 49 92	 mov	 eax, -1840700269	; 92492493H
  00269	f7 e9		 imul	 ecx
  0026b	8b 46 08	 mov	 eax, DWORD PTR [esi+8]
  0026e	03 d1		 add	 edx, ecx
  00270	c1 fa 04	 sar	 edx, 4
  00273	8b ca		 mov	 ecx, edx
  00275	c1 e9 1f	 shr	 ecx, 31			; 0000001fH
  00278	03 ca		 add	 ecx, edx
  0027a	2b f9		 sub	 edi, ecx
  0027c	57		 push	 edi
  0027d	50		 push	 eax
  0027e	8b ce		 mov	 ecx, esi
  00280	c6 45 fc 03	 mov	 BYTE PTR __$EHRec$[ebp+12], 3
  00284	e8 00 00 00 00	 call	 ?_Ufill@?$vector@V?$basic_string@DU?$char_traits@D@std@@V?$allocator@D@2@@std@@V?$allocator@V?$basic_string@DU?$char_traits@D@std@@V?$allocator@D@2@@std@@@2@@std@@IAEPAV?$basic_string@DU?$char_traits@D@std@@V?$allocator@D@2@@2@PAV32@IABV32@@Z ; std::vector<std::basic_string<char,std::char_traits<char>,std::allocator<char> >,std::allocator<std::basic_string<char,std::char_traits<char>,std::allocator<char> > > >::_Ufill

; 858  : 			_CATCH_END
; 859  : 
; 860  : 			_Mylast += _Count;

  00289	8b 56 08	 mov	 edx, DWORD PTR [esi+8]
  0028c	8b 45 cc	 mov	 eax, DWORD PTR tv512[ebp]
  0028f	03 d0		 add	 edx, eax
  00291	89 56 08	 mov	 DWORD PTR [esi+8], edx
  00294	8b f2		 mov	 esi, edx

; 861  : 			fill(_ITER_BASE(_Where), _Mylast - _Count,
; 862  : 				_Tmp);	// insert up to old end

  00296	8d 55 d0	 lea	 edx, DWORD PTR __Tmp$[ebp]
  00299	52		 push	 edx
  0029a	2b f0		 sub	 esi, eax
  0029c	56		 push	 esi
  0029d	53		 push	 ebx
  0029e	c7 45 fc 00 00
	00 00		 mov	 DWORD PTR __$EHRec$[ebp+12], 0
  002a5	e8 00 00 00 00	 call	 ??$fill@PAV?$basic_string@DU?$char_traits@D@std@@V?$allocator@D@2@@std@@V12@@std@@YAXPAV?$basic_string@DU?$char_traits@D@std@@V?$allocator@D@2@@0@0ABV10@@Z ; std::fill<std::basic_string<char,std::char_traits<char>,std::allocator<char> > *,std::basic_string<char,std::char_traits<char>,std::allocator<char> > >
  002aa	83 c4 0c	 add	 esp, 12			; 0000000cH

; 863  : 			}
; 864  : 		else

  002ad	eb 5f		 jmp	 SHORT $L226448
$L232392:

; 855  : 			_CATCH_ALL
; 856  : 			_Destroy(_ITER_BASE(_Where) + _Count, _Mylast + _Count);

  002af	8b 45 0c	 mov	 eax, DWORD PTR __Count$[ebp]
  002b2	8b 4d c0	 mov	 ecx, DWORD PTR $T232801[ebp]
  002b5	6b c0 1c	 imul	 eax, 28			; 0000001cH
  002b8	8b 51 08	 mov	 edx, DWORD PTR [ecx+8]
  002bb	03 d0		 add	 edx, eax
  002bd	52		 push	 edx
  002be	8b 55 08	 mov	 edx, DWORD PTR __Where$[ebp]
  002c1	03 c2		 add	 eax, edx
  002c3	50		 push	 eax
  002c4	e8 00 00 00 00	 call	 ?_Destroy@?$vector@V?$basic_string@DU?$char_traits@D@std@@V?$allocator@D@2@@std@@V?$allocator@V?$basic_string@DU?$char_traits@D@std@@V?$allocator@D@2@@std@@@2@@std@@IAEXPAV?$basic_string@DU?$char_traits@D@std@@V?$allocator@D@2@@2@0@Z ; std::vector<std::basic_string<char,std::char_traits<char>,std::allocator<char> >,std::allocator<std::basic_string<char,std::char_traits<char>,std::allocator<char> > > >::_Destroy

; 857  : 			_RERAISE;

  002c9	6a 00		 push	 0
  002cb	6a 00		 push	 0
  002cd	e8 00 00 00 00	 call	 __CxxThrowException@8
$L232816:
$L226439:

; 865  : 			{	// new stuff can all be assigned
; 866  : 			pointer _Oldend = _Mylast;
; 867  : 			_Mylast = _Ucopy(_Oldend - _Count, _Oldend,
; 868  : 				_Mylast);	// copy suffix

  002d2	6b ff 1c	 imul	 edi, 28			; 0000001cH
  002d5	8b c1		 mov	 eax, ecx
  002d7	2b c7		 sub	 eax, edi
  002d9	89 45 cc	 mov	 DWORD PTR tv525[ebp], eax
  002dc	8b 55 cc	 mov	 edx, DWORD PTR __Cat$232710[ebp]
  002df	52		 push	 edx
  002e0	56		 push	 esi
  002e1	51		 push	 ecx
  002e2	51		 push	 ecx
  002e3	50		 push	 eax
  002e4	e8 00 00 00 00	 call	 ??$_Uninit_copy@PAV?$basic_string@DU?$char_traits@D@std@@V?$allocator@D@2@@std@@PAV12@V?$allocator@V?$basic_string@DU?$char_traits@D@std@@V?$allocator@D@2@@std@@@2@@std@@YAPAV?$basic_string@DU?$char_traits@D@std@@V?$allocator@D@2@@0@PAV10@00AAV?$allocator@V?$basic_string@DU?$char_traits@D@std@@V?$allocator@D@2@@std@@@0@U_Nonscalar_ptr_iterator_tag@0@@Z ; std::_Uninit_copy<std::basic_string<char,std::char_traits<char>,std::allocator<char> > *,std::basic_string<char,std::char_traits<char>,std::allocator<char> > *,std::allocator<std::basic_string<char,std::char_traits<char>,std::allocator<char> > > >

; 869  : 			copy_backward(_ITER_BASE(_Where), _Oldend - _Count,
; 870  : 				_Oldend);	// copy hole

  002e9	8b 4d c4	 mov	 ecx, DWORD PTR tv496[ebp]
  002ec	8b 55 cc	 mov	 edx, DWORD PTR tv525[ebp]
  002ef	89 46 08	 mov	 DWORD PTR [esi+8], eax
  002f2	8b 45 cc	 mov	 eax, DWORD PTR __Cat$232724[ebp]
  002f5	50		 push	 eax
  002f6	51		 push	 ecx
  002f7	52		 push	 edx
  002f8	53		 push	 ebx
  002f9	e8 00 00 00 00	 call	 ??$_Copy_backward_opt@PAV?$basic_string@DU?$char_traits@D@std@@V?$allocator@D@2@@std@@PAV12@@std@@YAPAV?$basic_string@DU?$char_traits@D@std@@V?$allocator@D@2@@0@PAV10@00U_Nonscalar_ptr_iterator_tag@0@@Z ; std::_Copy_backward_opt<std::basic_string<char,std::char_traits<char>,std::allocator<char> > *,std::basic_string<char,std::char_traits<char>,std::allocator<char> > *>

; 871  : 			fill(_ITER_BASE(_Where), _ITER_BASE(_Where) + _Count,
; 872  : 				_Tmp);	// insert into hole

  002fe	8d 45 d0	 lea	 eax, DWORD PTR __Tmp$[ebp]
  00301	50		 push	 eax
  00302	03 fb		 add	 edi, ebx
  00304	57		 push	 edi
  00305	53		 push	 ebx
  00306	e8 00 00 00 00	 call	 ??$fill@PAV?$basic_string@DU?$char_traits@D@std@@V?$allocator@D@2@@std@@V12@@std@@YAXPAV?$basic_string@DU?$char_traits@D@std@@V?$allocator@D@2@@0@0ABV10@@Z ; std::fill<std::basic_string<char,std::char_traits<char>,std::allocator<char> > *,std::basic_string<char,std::char_traits<char>,std::allocator<char> > >
  0030b	83 c4 30	 add	 esp, 48			; 00000030H
$L226448:

; 873  : 			}
; 874  : 		}

  0030e	83 7d e8 10	 cmp	 DWORD PTR __Tmp$[ebp+24], 16 ; 00000010H
  00312	72 0c		 jb	 SHORT $L232783
  00314	8b 4d d4	 mov	 ecx, DWORD PTR __Tmp$[ebp+4]
  00317	51		 push	 ecx
  00318	e8 00 00 00 00	 call	 ??3@YAXPAX@Z		; operator delete
  0031d	83 c4 04	 add	 esp, 4
$L232783:
  00320	8b 4d f4	 mov	 ecx, DWORD PTR __$EHRec$[ebp+4]
  00323	64 89 0d 00 00
	00 00		 mov	 DWORD PTR fs:__except_list, ecx
  0032a	8b 4d ec	 mov	 ecx, DWORD PTR __$ArrayPad$[ebp]
  0032d	5f		 pop	 edi
  0032e	5e		 pop	 esi
  0032f	33 cd		 xor	 ecx, ebp
  00331	5b		 pop	 ebx
  00332	e8 00 00 00 00	 call	 @__security_check_cookie@4
  00337	8b e5		 mov	 esp, ebp
  00339	5d		 pop	 ebp
  0033a	c2 0c 00	 ret	 12			; 0000000cH
$L232809:
_TEXT	ENDS
;	COMDAT text$x
text$x	SEGMENT
$L232393:
  00000	8d 4d d0	 lea	 ecx, DWORD PTR __Tmp$[ebp]
  00003	e9 00 00 00 00	 jmp	 ??1?$basic_string@DU?$char_traits@D@std@@V?$allocator@D@2@@std@@QAE@XZ ; std::basic_string<char,std::char_traits<char>,std::allocator<char> >::~basic_string<char,std::char_traits<char>,std::allocator<char> >
__ehhandler$?_Insert_n@?$vector@V?$basic_string@DU?$char_traits@D@std@@V?$allocator@D@2@@std@@V?$allocator@V?$basic_string@DU?$char_traits@D@std@@V?$allocator@D@2@@std@@@2@@std@@IAEXViterator@12@IABV?$basic_string@DU?$char_traits@D@std@@V?$allocator@D@2@@2@@Z:
  00008	b8 00 00 00 00	 mov	 eax, OFFSET FLAT:$T232804
  0000d	e9 00 00 00 00	 jmp	 ___CxxFrameHandler
text$x	ENDS
?_Insert_n@?$vector@V?$basic_string@DU?$char_traits@D@std@@V?$allocator@D@2@@std@@V?$allocator@V?$basic_string@DU?$char_traits@D@std@@V?$allocator@D@2@@std@@@2@@std@@IAEXViterator@12@IABV?$basic_string@DU?$char_traits@D@std@@V?$allocator@D@2@@2@@Z ENDP ; std::vector<std::basic_string<char,std::char_traits<char>,std::allocator<char> >,std::allocator<std::basic_string<char,std::char_traits<char>,std::allocator<char> > > >::_Insert_n
PUBLIC	??$_Insert@Viterator@?$vector@V?$basic_string@DU?$char_traits@D@std@@V?$allocator@D@2@@std@@V?$allocator@V?$basic_string@DU?$char_traits@D@std@@V?$allocator@D@2@@std@@@2@@std@@@?$vector@V?$basic_string@DU?$char_traits@D@std@@V?$allocator@D@2@@std@@V?$allocator@V?$basic_string@DU?$char_traits@D@std@@V?$allocator@D@2@@std@@@2@@std@@QAEXViterator@01@00Uforward_iterator_tag@1@@Z ; std::vector<std::basic_string<char,std::char_traits<char>,std::allocator<char> >,std::allocator<std::basic_string<char,std::char_traits<char>,std::allocator<char> > > >::_Insert<std::vector<std::basic_string<char,std::char_traits<char>,std::allocator<char> >,std::allocator<std::basic_string<char,std::char_traits<char>,std::allocator<char> > > >::iterator>
;	COMDAT xdata$x
; File c:\program files\microsoft visual studio .net 2003\vc7\include\xutility
xdata$x	SEGMENT
$T233250 DD	0ffffffffH
	DD	00H
	DD	0ffffffffH
	DD	00H
	DD	0ffffffffH
	DD	00H
	DD	0ffffffffH
	DD	00H
$T233252 DD	00H
	DD	00H
	DD	00H
	DD	FLAT:$L232826
$T233253 DD	00H
	DD	00H
	DD	00H
	DD	FLAT:$L232828
$T233251 DD	00H
	DD	00H
	DD	01H
	DD	01H
	DD	FLAT:$T233252
	DD	02H
	DD	02H
	DD	03H
	DD	01H
	DD	FLAT:$T233253
$T233247 DD	019930520H
	DD	04H
	DD	FLAT:$T233250
	DD	02H
	DD	FLAT:$T233251
	DD	2 DUP(00H)
; Function compile flags: /Ogty
; File c:\program files\microsoft visual studio .net 2003\vc7\include\vector
xdata$x	ENDS
;	COMDAT ??$_Insert@Viterator@?$vector@V?$basic_string@DU?$char_traits@D@std@@V?$allocator@D@2@@std@@V?$allocator@V?$basic_string@DU?$char_traits@D@std@@V?$allocator@D@2@@std@@@2@@std@@@?$vector@V?$basic_string@DU?$char_traits@D@std@@V?$allocator@D@2@@std@@V?$allocator@V?$basic_string@DU?$char_traits@D@std@@V?$allocator@D@2@@std@@@2@@std@@QAEXViterator@01@00Uforward_iterator_tag@1@@Z
_TEXT	SEGMENT
tv464 = -32						; size = 4
_this$ = -28						; size = 4
tv586 = -24						; size = 4
tv579 = -24						; size = 4
tv572 = -24						; size = 4
tv558 = -24						; size = 4
tv483 = -24						; size = 4
__Newvec$227553 = -24					; size = 4
__Ptr$227554 = -20					; size = 4
__Count$ = -20						; size = 4
__$EHRec$ = -16						; size = 16
tv496 = 8						; size = 4
__Where$ = 8						; size = 4
__Cat$233242 = 12					; size = 1
__Cat$233228 = 12					; size = 1
__Cat$233187 = 12					; size = 1
__Cat$233173 = 12					; size = 1
__Cat$233097 = 12					; size = 1
__Cat$233041 = 12					; size = 1
__Cat$233005 = 12					; size = 1
__Cat$232983 = 12					; size = 1
__Cat$232957 = 12					; size = 1
__First$ = 12						; size = 4
__Last$ = 16						; size = 4
___formal$ = 20						; size = 1
??$_Insert@Viterator@?$vector@V?$basic_string@DU?$char_traits@D@std@@V?$allocator@D@2@@std@@V?$allocator@V?$basic_string@DU?$char_traits@D@std@@V?$allocator@D@2@@std@@@2@@std@@@?$vector@V?$basic_string@DU?$char_traits@D@std@@V?$allocator@D@2@@std@@V?$allocator@V?$basic_string@DU?$char_traits@D@std@@V?$allocator@D@2@@std@@@2@@std@@QAEXViterator@01@00Uforward_iterator_tag@1@@Z PROC NEAR ; std::vector<std::basic_string<char,std::char_traits<char>,std::allocator<char> >,std::allocator<std::basic_string<char,std::char_traits<char>,std::allocator<char> > > >::_Insert<std::vector<std::basic_string<char,std::char_traits<char>,std::allocator<char> >,std::allocator<std::basic_string<char,std::char_traits<char>,std::allocator<char> > > >::iterator>, COMDAT
; _this$ = ecx

; 653  : 		void _Insert(iterator _Where,

  00000	55		 push	 ebp
  00001	8b ec		 mov	 ebp, esp
  00003	6a ff		 push	 -1
  00005	68 00 00 00 00	 push	 __ehhandler$??$_Insert@Viterator@?$vector@V?$basic_string@DU?$char_traits@D@std@@V?$allocator@D@2@@std@@V?$allocator@V?$basic_string@DU?$char_traits@D@std@@V?$allocator@D@2@@std@@@2@@std@@@?$vector@V?$basic_string@DU?$char_traits@D@std@@V?$allocator@D@2@@std@@V?$allocator@V?$basic_string@DU?$char_traits@D@std@@V?$allocator@D@2@@std@@@2@@std@@QAEXViterator@01@00Uforward_iterator_tag@1@@Z
  0000a	64 a1 00 00 00
	00		 mov	 eax, DWORD PTR fs:__except_list
  00010	50		 push	 eax
  00011	64 89 25 00 00
	00 00		 mov	 DWORD PTR fs:__except_list, esp
  00018	83 ec 14	 sub	 esp, 20			; 00000014H
  0001b	53		 push	 ebx

; 654  : 			_Iter _First, _Iter _Last, forward_iterator_tag)
; 655  : 		{	// insert [_First, _Last) at _Where, forward iterators
; 656  : 		size_type _Count = 0;
; 657  : 		_Distance(_First, _Last, _Count);

  0001c	8b 5d 0c	 mov	 ebx, DWORD PTR __First$[ebp]
  0001f	56		 push	 esi
  00020	8b f1		 mov	 esi, ecx
  00022	8b 4d 10	 mov	 ecx, DWORD PTR __Last$[ebp]
  00025	2b cb		 sub	 ecx, ebx

; 658  : 		size_type _Capacity = capacity();

  00027	8b 5e 04	 mov	 ebx, DWORD PTR [esi+4]
  0002a	b8 93 24 49 92	 mov	 eax, -1840700269	; 92492493H
  0002f	f7 e9		 imul	 ecx
  00031	03 d1		 add	 edx, ecx
  00033	57		 push	 edi
  00034	c1 fa 04	 sar	 edx, 4
  00037	8b fa		 mov	 edi, edx
  00039	c1 ef 1f	 shr	 edi, 31			; 0000001fH
  0003c	03 fa		 add	 edi, edx
  0003e	85 db		 test	 ebx, ebx
  00040	89 65 f0	 mov	 DWORD PTR __$EHRec$[ebp], esp
  00043	89 75 e4	 mov	 DWORD PTR _this$[ebp], esi
  00046	89 7d ec	 mov	 DWORD PTR __Count$[ebp], edi
  00049	75 04		 jne	 SHORT $L232873
  0004b	33 c9		 xor	 ecx, ecx
  0004d	eb 18		 jmp	 SHORT $L232874
$L232873:
  0004f	8b 4e 0c	 mov	 ecx, DWORD PTR [esi+12]
  00052	2b cb		 sub	 ecx, ebx
  00054	b8 93 24 49 92	 mov	 eax, -1840700269	; 92492493H
  00059	f7 e9		 imul	 ecx
  0005b	03 d1		 add	 edx, ecx
  0005d	c1 fa 04	 sar	 edx, 4
  00060	8b ca		 mov	 ecx, edx
  00062	c1 e9 1f	 shr	 ecx, 31			; 0000001fH
  00065	03 ca		 add	 ecx, edx
$L232874:

; 659  : 
; 660  : 		if (_Count == 0)

  00067	85 ff		 test	 edi, edi
  00069	0f 84 b1 02 00
	00		 je	 $L233238

; 661  : 			;
; 662  : 		else if (max_size() - size() < _Count)

  0006f	85 db		 test	 ebx, ebx
  00071	75 04		 jne	 SHORT $L232896
  00073	33 c0		 xor	 eax, eax
  00075	eb 1c		 jmp	 SHORT $L232897
$L232896:
  00077	8b 56 08	 mov	 edx, DWORD PTR [esi+8]
  0007a	2b d3		 sub	 edx, ebx
  0007c	89 55 e8	 mov	 DWORD PTR tv586[ebp], edx
  0007f	b8 93 24 49 92	 mov	 eax, -1840700269	; 92492493H
  00084	f7 ea		 imul	 edx
  00086	03 55 e8	 add	 edx, DWORD PTR tv586[ebp]
  00089	c1 fa 04	 sar	 edx, 4
  0008c	8b c2		 mov	 eax, edx
  0008e	c1 e8 1f	 shr	 eax, 31			; 0000001fH
  00091	03 c2		 add	 eax, edx
$L232897:
  00093	ba 49 92 24 09	 mov	 edx, 153391689		; 09249249H
  00098	2b d0		 sub	 edx, eax
  0009a	3b d7		 cmp	 edx, edi
  0009c	73 07		 jae	 SHORT $L227549

; 663  : 			_Xlen();	// result too long

  0009e	8b ce		 mov	 ecx, esi
  000a0	e8 00 00 00 00	 call	 ?_Xlen@?$vector@V?$basic_string@DU?$char_traits@D@std@@V?$allocator@D@2@@std@@V?$allocator@V?$basic_string@DU?$char_traits@D@std@@V?$allocator@D@2@@std@@@2@@std@@IBEXXZ ; std::vector<std::basic_string<char,std::char_traits<char>,std::allocator<char> >,std::allocator<std::basic_string<char,std::char_traits<char>,std::allocator<char> > > >::_Xlen
$L233254:
$L227549:

; 664  : 		else if (_Capacity < size() + _Count)

  000a5	85 db		 test	 ebx, ebx
  000a7	75 04		 jne	 SHORT $L232903
  000a9	33 c0		 xor	 eax, eax
  000ab	eb 1c		 jmp	 SHORT $L232904
$L232903:
  000ad	8b 56 08	 mov	 edx, DWORD PTR [esi+8]
  000b0	2b d3		 sub	 edx, ebx
  000b2	89 55 e8	 mov	 DWORD PTR tv579[ebp], edx
  000b5	b8 93 24 49 92	 mov	 eax, -1840700269	; 92492493H
  000ba	f7 ea		 imul	 edx
  000bc	03 55 e8	 add	 edx, DWORD PTR tv579[ebp]
  000bf	c1 fa 04	 sar	 edx, 4
  000c2	8b c2		 mov	 eax, edx
  000c4	c1 e8 1f	 shr	 eax, 31			; 0000001fH
  000c7	03 c2		 add	 eax, edx
$L232904:
  000c9	03 c7		 add	 eax, edi
  000cb	3b c8		 cmp	 ecx, eax
  000cd	0f 83 36 01 00
	00		 jae	 $L227551

; 665  : 			{	// not enough room, reallocate
; 666  : 			_Capacity = max_size() - _Capacity / 2 < _Capacity
; 667  : 				? 0 : _Capacity + _Capacity / 2;	// try to grow by 50%

  000d3	8b c1		 mov	 eax, ecx
  000d5	d1 e8		 shr	 eax, 1
  000d7	ba 49 92 24 09	 mov	 edx, 153391689		; 09249249H
  000dc	2b d0		 sub	 edx, eax
  000de	3b d1		 cmp	 edx, ecx
  000e0	73 04		 jae	 SHORT $L232821
  000e2	33 c9		 xor	 ecx, ecx
  000e4	eb 02		 jmp	 SHORT $L232822
$L232821:
  000e6	03 c8		 add	 ecx, eax
$L232822:

; 668  : 			if (_Capacity < size() + _Count)

  000e8	85 db		 test	 ebx, ebx
  000ea	75 04		 jne	 SHORT $L232926
  000ec	33 c0		 xor	 eax, eax
  000ee	eb 1d		 jmp	 SHORT $L232927
$L232926:
  000f0	8b 56 08	 mov	 edx, DWORD PTR [esi+8]
  000f3	2b d3		 sub	 edx, ebx
  000f5	89 55 e8	 mov	 DWORD PTR tv572[ebp], edx
  000f8	8b da		 mov	 ebx, edx
  000fa	b8 93 24 49 92	 mov	 eax, -1840700269	; 92492493H
  000ff	f7 ea		 imul	 edx
  00101	03 d3		 add	 edx, ebx
  00103	c1 fa 04	 sar	 edx, 4
  00106	8b c2		 mov	 eax, edx
  00108	c1 e8 1f	 shr	 eax, 31			; 0000001fH
  0010b	03 c2		 add	 eax, edx
$L232927:
  0010d	03 c7		 add	 eax, edi
  0010f	3b c8		 cmp	 ecx, eax
  00111	73 0b		 jae	 SHORT $L227552

; 669  : 				_Capacity = size() + _Count;

  00113	8b ce		 mov	 ecx, esi
  00115	e8 00 00 00 00	 call	 ?size@?$vector@V?$basic_string@DU?$char_traits@D@std@@V?$allocator@D@2@@std@@V?$allocator@V?$basic_string@DU?$char_traits@D@std@@V?$allocator@D@2@@std@@@2@@std@@QBEIXZ ; std::vector<std::basic_string<char,std::char_traits<char>,std::allocator<char> >,std::allocator<std::basic_string<char,std::char_traits<char>,std::allocator<char> > > >::size
  0011a	8b c8		 mov	 ecx, eax
  0011c	03 cf		 add	 ecx, edi
$L227552:

; 670  : 			pointer _Newvec = this->_Alval.allocate(_Capacity);

  0011e	8b d9		 mov	 ebx, ecx
  00120	6b db 1c	 imul	 ebx, 28			; 0000001cH
  00123	53		 push	 ebx
  00124	e8 00 00 00 00	 call	 ??2@YAPAXI@Z		; operator new

; 671  : 			pointer _Ptr = _Newvec;
; 672  : 
; 673  : 			_TRY_BEGIN
; 674  : 			_Ptr = _Ucopy(_Myfirst, _ITER_BASE(_Where),
; 675  : 				_Newvec);	// copy prefix

  00129	8b 55 0c	 mov	 edx, DWORD PTR __Cat$232957[ebp]
  0012c	8b 4e 04	 mov	 ecx, DWORD PTR [esi+4]
  0012f	52		 push	 edx
  00130	56		 push	 esi
  00131	50		 push	 eax
  00132	89 45 e8	 mov	 DWORD PTR __Newvec$227553[ebp], eax
  00135	89 45 ec	 mov	 DWORD PTR __Ptr$227554[ebp], eax
  00138	8b 45 08	 mov	 eax, DWORD PTR __Where$[ebp]
  0013b	50		 push	 eax
  0013c	51		 push	 ecx
  0013d	c7 45 fc 00 00
	00 00		 mov	 DWORD PTR __$EHRec$[ebp+12], 0
  00144	e8 00 00 00 00	 call	 ??$_Uninit_copy@PAV?$basic_string@DU?$char_traits@D@std@@V?$allocator@D@2@@std@@PAV12@V?$allocator@V?$basic_string@DU?$char_traits@D@std@@V?$allocator@D@2@@std@@@2@@std@@YAPAV?$basic_string@DU?$char_traits@D@std@@V?$allocator@D@2@@0@PAV10@00AAV?$allocator@V?$basic_string@DU?$char_traits@D@std@@V?$allocator@D@2@@std@@@0@U_Nonscalar_ptr_iterator_tag@0@@Z ; std::_Uninit_copy<std::basic_string<char,std::char_traits<char>,std::allocator<char> > *,std::basic_string<char,std::char_traits<char>,std::allocator<char> > *,std::allocator<std::basic_string<char,std::char_traits<char>,std::allocator<char> > > >

; 676  : 			_Ptr = _Ucopy(_First, _Last, _Ptr);	// add new stuff

  00149	8b 4d 0c	 mov	 ecx, DWORD PTR __Cat$232983[ebp]
  0014c	8b 55 10	 mov	 edx, DWORD PTR __Last$[ebp]
  0014f	83 c4 18	 add	 esp, 24			; 00000018H
  00152	51		 push	 ecx
  00153	56		 push	 esi
  00154	50		 push	 eax
  00155	89 45 ec	 mov	 DWORD PTR __Ptr$227554[ebp], eax
  00158	8b 45 0c	 mov	 eax, DWORD PTR __First$[ebp]
  0015b	52		 push	 edx
  0015c	50		 push	 eax
  0015d	e8 00 00 00 00	 call	 ??$_Uninit_copy@Viterator@?$vector@V?$basic_string@DU?$char_traits@D@std@@V?$allocator@D@2@@std@@V?$allocator@V?$basic_string@DU?$char_traits@D@std@@V?$allocator@D@2@@std@@@2@@std@@PAV?$basic_string@DU?$char_traits@D@std@@V?$allocator@D@2@@3@V?$allocator@V?$basic_string@DU?$char_traits@D@std@@V?$allocator@D@2@@std@@@3@@std@@YAPAV?$basic_string@DU?$char_traits@D@std@@V?$allocator@D@2@@0@Viterator@?$vector@V?$basic_string@DU?$char_traits@D@std@@V?$allocator@D@2@@std@@V?$allocator@V?$basic_string@DU?$char_traits@D@std@@V?$allocator@D@2@@std@@@2@@0@0PAV10@AAV?$allocator@V?$basic_string@DU?$char_traits@D@std@@V?$allocator@D@2@@std@@@0@U_Nonscalar_ptr_iterator_tag@0@@Z ; std::_Uninit_copy<std::vector<std::basic_string<char,std::char_traits<char>,std::allocator<char> >,std::allocator<std::basic_string<char,std::char_traits<char>,std::allocator<char> > > >::iterator,std::basic_string<char,std::char_traits<char>,std::allocator<char> > *,std::allocator<std::basic_string<char,std::char_traits<char>,std::allocator<char> > > >

; 677  : 			_Ucopy(_ITER_BASE(_Where), _Mylast, _Ptr);	// copy suffix

  00162	8b 55 0c	 mov	 edx, DWORD PTR __Cat$233005[ebp]
  00165	8b 4e 08	 mov	 ecx, DWORD PTR [esi+8]
  00168	83 c4 14	 add	 esp, 20			; 00000014H
  0016b	52		 push	 edx
  0016c	56		 push	 esi
  0016d	50		 push	 eax
  0016e	89 45 ec	 mov	 DWORD PTR __Ptr$227554[ebp], eax
  00171	8b 45 08	 mov	 eax, DWORD PTR __Where$[ebp]
  00174	51		 push	 ecx
  00175	50		 push	 eax
  00176	e8 00 00 00 00	 call	 ??$_Uninit_copy@PAV?$basic_string@DU?$char_traits@D@std@@V?$allocator@D@2@@std@@PAV12@V?$allocator@V?$basic_string@DU?$char_traits@D@std@@V?$allocator@D@2@@std@@@2@@std@@YAPAV?$basic_string@DU?$char_traits@D@std@@V?$allocator@D@2@@0@PAV10@00AAV?$allocator@V?$basic_string@DU?$char_traits@D@std@@V?$allocator@D@2@@std@@@0@U_Nonscalar_ptr_iterator_tag@0@@Z ; std::_Uninit_copy<std::basic_string<char,std::char_traits<char>,std::allocator<char> > *,std::basic_string<char,std::char_traits<char>,std::allocator<char> > *,std::allocator<std::basic_string<char,std::char_traits<char>,std::allocator<char> > > >

; 682  : 			_CATCH_END
; 683  : 
; 684  : 			_Count += size();

  0017b	8b 46 04	 mov	 eax, DWORD PTR [esi+4]
  0017e	83 c4 14	 add	 esp, 20			; 00000014H
  00181	85 c0		 test	 eax, eax
  00183	74 18		 je	 SHORT $L233018
$L233017:
  00185	8b 4e 08	 mov	 ecx, DWORD PTR [esi+8]
  00188	2b c8		 sub	 ecx, eax
  0018a	b8 93 24 49 92	 mov	 eax, -1840700269	; 92492493H
  0018f	f7 e9		 imul	 ecx
  00191	03 d1		 add	 edx, ecx
  00193	c1 fa 04	 sar	 edx, 4
  00196	8b c2		 mov	 eax, edx
  00198	c1 e8 1f	 shr	 eax, 31			; 0000001fH
  0019b	03 c2		 add	 eax, edx
$L233018:
  0019d	03 f8		 add	 edi, eax

; 685  : 			if (_Myfirst != 0)

  0019f	8b 46 04	 mov	 eax, DWORD PTR [esi+4]
  001a2	85 c0		 test	 eax, eax
  001a4	74 1b		 je	 SHORT $L233046

; 686  : 				{	// destroy and deallocate old array
; 687  : 				_Destroy(_Myfirst, _Mylast);

  001a6	8b 4d 0c	 mov	 ecx, DWORD PTR __Cat$233041[ebp]
  001a9	8b 56 08	 mov	 edx, DWORD PTR [esi+8]
  001ac	51		 push	 ecx
  001ad	56		 push	 esi
  001ae	52		 push	 edx
  001af	50		 push	 eax
  001b0	e8 00 00 00 00	 call	 ??$_Destroy_range@V?$basic_string@DU?$char_traits@D@std@@V?$allocator@D@2@@std@@V?$allocator@V?$basic_string@DU?$char_traits@D@std@@V?$allocator@D@2@@std@@@2@@std@@YAXPAV?$basic_string@DU?$char_traits@D@std@@V?$allocator@D@2@@0@0AAV?$allocator@V?$basic_string@DU?$char_traits@D@std@@V?$allocator@D@2@@std@@@0@U_Nonscalar_ptr_iterator_tag@0@@Z ; std::_Destroy_range<std::basic_string<char,std::char_traits<char>,std::allocator<char> >,std::allocator<std::basic_string<char,std::char_traits<char>,std::allocator<char> > > >

; 688  : 				this->_Alval.deallocate(_Myfirst, _Myend - _Myfirst);

  001b5	8b 46 04	 mov	 eax, DWORD PTR [esi+4]
  001b8	50		 push	 eax
  001b9	e8 00 00 00 00	 call	 ??3@YAXPAX@Z		; operator delete
  001be	83 c4 14	 add	 esp, 20			; 00000014H
$L233046:

; 689  : 				}
; 690  : 			_Myend = _Newvec + _Capacity;

  001c1	8b 45 e8	 mov	 eax, DWORD PTR __Newvec$227553[ebp]

; 691  : 			_Mylast = _Newvec + _Count;

  001c4	6b ff 1c	 imul	 edi, 28			; 0000001cH
  001c7	03 d8		 add	 ebx, eax
  001c9	03 f8		 add	 edi, eax
  001cb	89 5e 0c	 mov	 DWORD PTR [esi+12], ebx
  001ce	89 7e 08	 mov	 DWORD PTR [esi+8], edi

; 692  : 			_Myfirst = _Newvec;

  001d1	89 46 04	 mov	 DWORD PTR [esi+4], eax

; 719  : 			}
; 720  : 		}

  001d4	8b 4d f4	 mov	 ecx, DWORD PTR __$EHRec$[ebp+4]
  001d7	64 89 0d 00 00
	00 00		 mov	 DWORD PTR fs:__except_list, ecx
  001de	5f		 pop	 edi
  001df	5e		 pop	 esi
  001e0	5b		 pop	 ebx
  001e1	8b e5		 mov	 esp, ebp
  001e3	5d		 pop	 ebp
  001e4	c2 10 00	 ret	 16			; 00000010H
$L232826:

; 678  : 			_CATCH_ALL
; 679  : 			_Destroy(_Newvec, _Ptr);

  001e7	8b 4d ec	 mov	 ecx, DWORD PTR __Ptr$227554[ebp]
  001ea	8b 75 e8	 mov	 esi, DWORD PTR __Newvec$227553[ebp]
  001ed	51		 push	 ecx
  001ee	8b 4d e4	 mov	 ecx, DWORD PTR _this$[ebp]
  001f1	56		 push	 esi
  001f2	e8 00 00 00 00	 call	 ?_Destroy@?$vector@V?$basic_string@DU?$char_traits@D@std@@V?$allocator@D@2@@std@@V?$allocator@V?$basic_string@DU?$char_traits@D@std@@V?$allocator@D@2@@std@@@2@@std@@IAEXPAV?$basic_string@DU?$char_traits@D@std@@V?$allocator@D@2@@2@0@Z ; std::vector<std::basic_string<char,std::char_traits<char>,std::allocator<char> >,std::allocator<std::basic_string<char,std::char_traits<char>,std::allocator<char> > > >::_Destroy

; 680  : 			this->_Alval.deallocate(_Newvec, _Capacity);

  001f7	56		 push	 esi
  001f8	e8 00 00 00 00	 call	 ??3@YAXPAX@Z		; operator delete
  001fd	83 c4 04	 add	 esp, 4

; 681  : 			_RERAISE;

  00200	6a 00		 push	 0
  00202	6a 00		 push	 0
  00204	e8 00 00 00 00	 call	 __CxxThrowException@8
$L233255:
$L227551:

; 693  : 			}
; 694  : 		else if ((size_type)(end() - _Where) < _Count)

  00209	8b 4e 08	 mov	 ecx, DWORD PTR [esi+8]
  0020c	8b 5d 08	 mov	 ebx, DWORD PTR __Where$[ebp]
  0020f	8b d1		 mov	 edx, ecx
  00211	2b d3		 sub	 edx, ebx
  00213	89 55 e8	 mov	 DWORD PTR tv558[ebp], edx
  00216	b8 93 24 49 92	 mov	 eax, -1840700269	; 92492493H
  0021b	f7 ea		 imul	 edx
  0021d	03 55 e8	 add	 edx, DWORD PTR tv558[ebp]
  00220	c1 fa 04	 sar	 edx, 4
  00223	8b c2		 mov	 eax, edx
  00225	c1 e8 1f	 shr	 eax, 31			; 0000001fH
  00228	03 c2		 add	 eax, edx
  0022a	3b c7		 cmp	 eax, edi

; 695  : 			{	// new stuff spills off end
; 696  : 			_Ucopy(_ITER_BASE(_Where), _Mylast,
; 697  : 				_ITER_BASE(_Where) + _Count);	// copy suffix

  0022c	8b 55 0c	 mov	 edx, DWORD PTR __Cat$233097[ebp]
  0022f	52		 push	 edx
  00230	89 4d e0	 mov	 DWORD PTR tv464[ebp], ecx
  00233	56		 push	 esi
  00234	0f 83 aa 00 00
	00		 jae	 $L227565
  0023a	6b ff 1c	 imul	 edi, 28			; 0000001cH
  0023d	8d 04 1f	 lea	 eax, DWORD PTR [edi+ebx]
  00240	50		 push	 eax
  00241	51		 push	 ecx
  00242	53		 push	 ebx
  00243	89 7d e8	 mov	 DWORD PTR tv483[ebp], edi
  00246	e8 00 00 00 00	 call	 ??$_Uninit_copy@PAV?$basic_string@DU?$char_traits@D@std@@V?$allocator@D@2@@std@@PAV12@V?$allocator@V?$basic_string@DU?$char_traits@D@std@@V?$allocator@D@2@@std@@@2@@std@@YAPAV?$basic_string@DU?$char_traits@D@std@@V?$allocator@D@2@@0@PAV10@00AAV?$allocator@V?$basic_string@DU?$char_traits@D@std@@V?$allocator@D@2@@std@@@0@U_Nonscalar_ptr_iterator_tag@0@@Z ; std::_Uninit_copy<std::basic_string<char,std::char_traits<char>,std::allocator<char> > *,std::basic_string<char,std::char_traits<char>,std::allocator<char> > *,std::allocator<std::basic_string<char,std::char_traits<char>,std::allocator<char> > > >

; 698  : 			_Iter _Mid = _First;
; 699  : 			advance(_Mid, end() - _Where);

  0024b	8b 4e 08	 mov	 ecx, DWORD PTR [esi+8]
  0024e	2b cb		 sub	 ecx, ebx
  00250	b8 93 24 49 92	 mov	 eax, -1840700269	; 92492493H
  00255	f7 e9		 imul	 ecx
  00257	03 d1		 add	 edx, ecx
  00259	8b 4d 0c	 mov	 ecx, DWORD PTR __First$[ebp]
  0025c	c1 fa 04	 sar	 edx, 4
  0025f	8b c2		 mov	 eax, edx
  00261	c1 e8 1f	 shr	 eax, 31			; 0000001fH
  00264	03 c2		 add	 eax, edx

; 700  : 
; 701  : 			_TRY_BEGIN
; 702  : 			_Ucopy(_Mid, _Last, _Mylast);	// insert new stuff off end

  00266	8b 55 10	 mov	 edx, DWORD PTR __Last$[ebp]
  00269	8b f8		 mov	 edi, eax
  0026b	8b 46 08	 mov	 eax, DWORD PTR [esi+8]
  0026e	6b ff 1c	 imul	 edi, 28			; 0000001cH
  00271	03 f9		 add	 edi, ecx
  00273	8b 4d 0c	 mov	 ecx, DWORD PTR __Cat$233173[ebp]
  00276	51		 push	 ecx
  00277	56		 push	 esi
  00278	50		 push	 eax
  00279	52		 push	 edx
  0027a	57		 push	 edi
  0027b	c7 45 fc 02 00
	00 00		 mov	 DWORD PTR __$EHRec$[ebp+12], 2
  00282	e8 00 00 00 00	 call	 ??$_Uninit_copy@Viterator@?$vector@V?$basic_string@DU?$char_traits@D@std@@V?$allocator@D@2@@std@@V?$allocator@V?$basic_string@DU?$char_traits@D@std@@V?$allocator@D@2@@std@@@2@@std@@PAV?$basic_string@DU?$char_traits@D@std@@V?$allocator@D@2@@3@V?$allocator@V?$basic_string@DU?$char_traits@D@std@@V?$allocator@D@2@@std@@@3@@std@@YAPAV?$basic_string@DU?$char_traits@D@std@@V?$allocator@D@2@@0@Viterator@?$vector@V?$basic_string@DU?$char_traits@D@std@@V?$allocator@D@2@@std@@V?$allocator@V?$basic_string@DU?$char_traits@D@std@@V?$allocator@D@2@@std@@@2@@0@0PAV10@AAV?$allocator@V?$basic_string@DU?$char_traits@D@std@@V?$allocator@D@2@@std@@@0@U_Nonscalar_ptr_iterator_tag@0@@Z ; std::_Uninit_copy<std::vector<std::basic_string<char,std::char_traits<char>,std::allocator<char> >,std::allocator<std::basic_string<char,std::char_traits<char>,std::allocator<char> > > >::iterator,std::basic_string<char,std::char_traits<char>,std::allocator<char> > *,std::allocator<std::basic_string<char,std::char_traits<char>,std::allocator<char> > > >

; 706  : 			_CATCH_END
; 707  : 
; 708  : 			_Mylast += _Count;

  00287	8b 4e 08	 mov	 ecx, DWORD PTR [esi+8]
  0028a	8b 45 e8	 mov	 eax, DWORD PTR tv483[ebp]

; 709  : 			copy(_First, _Mid, _ITER_BASE(_Where));	// insert to old end

  0028d	8b 55 0c	 mov	 edx, DWORD PTR __First$[ebp]
  00290	03 c8		 add	 ecx, eax
  00292	83 c4 28	 add	 esp, 40			; 00000028H
  00295	89 4e 08	 mov	 DWORD PTR [esi+8], ecx
  00298	8b 4d 0c	 mov	 ecx, DWORD PTR __Cat$233187[ebp]
  0029b	51		 push	 ecx
  0029c	53		 push	 ebx
  0029d	57		 push	 edi
  0029e	52		 push	 edx
  0029f	c7 45 fc ff ff
	ff ff		 mov	 DWORD PTR __$EHRec$[ebp+12], -1
  002a6	e8 00 00 00 00	 call	 ??$_Copy_opt@Viterator@?$vector@V?$basic_string@DU?$char_traits@D@std@@V?$allocator@D@2@@std@@V?$allocator@V?$basic_string@DU?$char_traits@D@std@@V?$allocator@D@2@@std@@@2@@std@@PAV?$basic_string@DU?$char_traits@D@std@@V?$allocator@D@2@@3@@std@@YAPAV?$basic_string@DU?$char_traits@D@std@@V?$allocator@D@2@@0@Viterator@?$vector@V?$basic_string@DU?$char_traits@D@std@@V?$allocator@D@2@@std@@V?$allocator@V?$basic_string@DU?$char_traits@D@std@@V?$allocator@D@2@@std@@@2@@0@0PAV10@U_Nonscalar_ptr_iterator_tag@0@@Z ; std::_Copy_opt<std::vector<std::basic_string<char,std::char_traits<char>,std::allocator<char> >,std::allocator<std::basic_string<char,std::char_traits<char>,std::allocator<char> > > >::iterator,std::basic_string<char,std::char_traits<char>,std::allocator<char> > *>
  002ab	83 c4 10	 add	 esp, 16			; 00000010H

; 719  : 			}
; 720  : 		}

  002ae	8b 4d f4	 mov	 ecx, DWORD PTR __$EHRec$[ebp+4]
  002b1	64 89 0d 00 00
	00 00		 mov	 DWORD PTR fs:__except_list, ecx
  002b8	5f		 pop	 edi
  002b9	5e		 pop	 esi
  002ba	5b		 pop	 ebx
  002bb	8b e5		 mov	 esp, ebp
  002bd	5d		 pop	 ebp
  002be	c2 10 00	 ret	 16			; 00000010H
$L232828:

; 703  : 			_CATCH_ALL
; 704  : 			_Destroy(_ITER_BASE(_Where) + _Count, _Mylast + _Count);

  002c1	8b 45 ec	 mov	 eax, DWORD PTR __Count$[ebp]
  002c4	8b 4d e4	 mov	 ecx, DWORD PTR _this$[ebp]
  002c7	6b c0 1c	 imul	 eax, 28			; 0000001cH
  002ca	8b 51 08	 mov	 edx, DWORD PTR [ecx+8]
  002cd	03 d0		 add	 edx, eax
  002cf	52		 push	 edx
  002d0	8b 55 08	 mov	 edx, DWORD PTR __Where$[ebp]
  002d3	03 c2		 add	 eax, edx
  002d5	50		 push	 eax
  002d6	e8 00 00 00 00	 call	 ?_Destroy@?$vector@V?$basic_string@DU?$char_traits@D@std@@V?$allocator@D@2@@std@@V?$allocator@V?$basic_string@DU?$char_traits@D@std@@V?$allocator@D@2@@std@@@2@@std@@IAEXPAV?$basic_string@DU?$char_traits@D@std@@V?$allocator@D@2@@2@0@Z ; std::vector<std::basic_string<char,std::char_traits<char>,std::allocator<char> >,std::allocator<std::basic_string<char,std::char_traits<char>,std::allocator<char> > > >::_Destroy

; 705  : 			_RERAISE;

  002db	6a 00		 push	 0
  002dd	6a 00		 push	 0
  002df	e8 00 00 00 00	 call	 __CxxThrowException@8
$L233256:
$L227565:

; 710  : 			}
; 711  : 		else
; 712  : 			{	// new stuff can all be assigned
; 713  : 			pointer _Oldend = _Mylast;
; 714  : 			_Mylast = _Ucopy(_Oldend - _Count, _Oldend,
; 715  : 				_Mylast);	// copy suffix

  002e4	6b ff 1c	 imul	 edi, 28			; 0000001cH
  002e7	51		 push	 ecx
  002e8	8b c1		 mov	 eax, ecx
  002ea	2b c7		 sub	 eax, edi
  002ec	51		 push	 ecx
  002ed	50		 push	 eax
  002ee	89 45 08	 mov	 DWORD PTR tv496[ebp], eax
  002f1	e8 00 00 00 00	 call	 ??$_Uninit_copy@PAV?$basic_string@DU?$char_traits@D@std@@V?$allocator@D@2@@std@@PAV12@V?$allocator@V?$basic_string@DU?$char_traits@D@std@@V?$allocator@D@2@@std@@@2@@std@@YAPAV?$basic_string@DU?$char_traits@D@std@@V?$allocator@D@2@@0@PAV10@00AAV?$allocator@V?$basic_string@DU?$char_traits@D@std@@V?$allocator@D@2@@std@@@0@U_Nonscalar_ptr_iterator_tag@0@@Z ; std::_Uninit_copy<std::basic_string<char,std::char_traits<char>,std::allocator<char> > *,std::basic_string<char,std::char_traits<char>,std::allocator<char> > *,std::allocator<std::basic_string<char,std::char_traits<char>,std::allocator<char> > > >

; 716  : 			copy_backward(_ITER_BASE(_Where), _Oldend - _Count,
; 717  : 				_Oldend);	// copy hole

  002f6	8b 4d e0	 mov	 ecx, DWORD PTR tv464[ebp]
  002f9	8b 55 08	 mov	 edx, DWORD PTR tv496[ebp]
  002fc	89 46 08	 mov	 DWORD PTR [esi+8], eax
  002ff	8b 45 0c	 mov	 eax, DWORD PTR __Cat$233228[ebp]
  00302	50		 push	 eax
  00303	51		 push	 ecx
  00304	52		 push	 edx
  00305	53		 push	 ebx
  00306	e8 00 00 00 00	 call	 ??$_Copy_backward_opt@PAV?$basic_string@DU?$char_traits@D@std@@V?$allocator@D@2@@std@@PAV12@@std@@YAPAV?$basic_string@DU?$char_traits@D@std@@V?$allocator@D@2@@0@PAV10@00U_Nonscalar_ptr_iterator_tag@0@@Z ; std::_Copy_backward_opt<std::basic_string<char,std::char_traits<char>,std::allocator<char> > *,std::basic_string<char,std::char_traits<char>,std::allocator<char> > *>

; 718  : 			copy(_First, _Last, _ITER_BASE(_Where));	// insert into hole

  0030b	8b 45 0c	 mov	 eax, DWORD PTR __Cat$233242[ebp]
  0030e	8b 4d 10	 mov	 ecx, DWORD PTR __Last$[ebp]
  00311	8b 55 0c	 mov	 edx, DWORD PTR __First$[ebp]
  00314	50		 push	 eax
  00315	53		 push	 ebx
  00316	51		 push	 ecx
  00317	52		 push	 edx
  00318	e8 00 00 00 00	 call	 ??$_Copy_opt@Viterator@?$vector@V?$basic_string@DU?$char_traits@D@std@@V?$allocator@D@2@@std@@V?$allocator@V?$basic_string@DU?$char_traits@D@std@@V?$allocator@D@2@@std@@@2@@std@@PAV?$basic_string@DU?$char_traits@D@std@@V?$allocator@D@2@@3@@std@@YAPAV?$basic_string@DU?$char_traits@D@std@@V?$allocator@D@2@@0@Viterator@?$vector@V?$basic_string@DU?$char_traits@D@std@@V?$allocator@D@2@@std@@V?$allocator@V?$basic_string@DU?$char_traits@D@std@@V?$allocator@D@2@@std@@@2@@0@0PAV10@U_Nonscalar_ptr_iterator_tag@0@@Z ; std::_Copy_opt<std::vector<std::basic_string<char,std::char_traits<char>,std::allocator<char> >,std::allocator<std::basic_string<char,std::char_traits<char>,std::allocator<char> > > >::iterator,std::basic_string<char,std::char_traits<char>,std::allocator<char> > *>
  0031d	83 c4 34	 add	 esp, 52			; 00000034H
$L233238:

; 719  : 			}
; 720  : 		}

  00320	8b 4d f4	 mov	 ecx, DWORD PTR __$EHRec$[ebp+4]
  00323	5f		 pop	 edi
  00324	5e		 pop	 esi
  00325	64 89 0d 00 00
	00 00		 mov	 DWORD PTR fs:__except_list, ecx
  0032c	5b		 pop	 ebx
  0032d	8b e5		 mov	 esp, ebp
  0032f	5d		 pop	 ebp
  00330	c2 10 00	 ret	 16			; 00000010H
$L233249:
_TEXT	ENDS
;	COMDAT text$x
text$x	SEGMENT
__ehhandler$??$_Insert@Viterator@?$vector@V?$basic_string@DU?$char_traits@D@std@@V?$allocator@D@2@@std@@V?$allocator@V?$basic_string@DU?$char_traits@D@std@@V?$allocator@D@2@@std@@@2@@std@@@?$vector@V?$basic_string@DU?$char_traits@D@std@@V?$allocator@D@2@@std@@V?$allocator@V?$basic_string@DU?$char_traits@D@std@@V?$allocator@D@2@@std@@@2@@std@@QAEXViterator@01@00Uforward_iterator_tag@1@@Z:
  00000	b8 00 00 00 00	 mov	 eax, OFFSET FLAT:$T233247
  00005	e9 00 00 00 00	 jmp	 ___CxxFrameHandler
text$x	ENDS
??$_Insert@Viterator@?$vector@V?$basic_string@DU?$char_traits@D@std@@V?$allocator@D@2@@std@@V?$allocator@V?$basic_string@DU?$char_traits@D@std@@V?$allocator@D@2@@std@@@2@@std@@@?$vector@V?$basic_string@DU?$char_traits@D@std@@V?$allocator@D@2@@std@@V?$allocator@V?$basic_string@DU?$char_traits@D@std@@V?$allocator@D@2@@std@@@2@@std@@QAEXViterator@01@00Uforward_iterator_tag@1@@Z ENDP ; std::vector<std::basic_string<char,std::char_traits<char>,std::allocator<char> >,std::allocator<std::basic_string<char,std::char_traits<char>,std::allocator<char> > > >::_Insert<std::vector<std::basic_string<char,std::char_traits<char>,std::allocator<char> >,std::allocator<std::basic_string<char,std::char_traits<char>,std::allocator<char> > > >::iterator>
PUBLIC	??0?$vector@V?$basic_string@DU?$char_traits@D@std@@V?$allocator@D@2@@std@@V?$allocator@V?$basic_string@DU?$char_traits@D@std@@V?$allocator@D@2@@std@@@2@@std@@QAE@ABV01@@Z ; std::vector<std::basic_string<char,std::char_traits<char>,std::allocator<char> >,std::allocator<std::basic_string<char,std::char_traits<char>,std::allocator<char> > > >::vector<std::basic_string<char,std::char_traits<char>,std::allocator<char> >,std::allocator<std::basic_string<char,std::char_traits<char>,std::allocator<char> > > >
;	COMDAT xdata$x
; File c:\program files\microsoft visual studio .net 2003\vc7\include\xutility
xdata$x	SEGMENT
$T233380 DD	0ffffffffH
	DD	00H
	DD	0ffffffffH
	DD	00H
$T233382 DD	00H
	DD	00H
	DD	00H
	DD	FLAT:$L233265
$T233381 DD	00H
	DD	00H
	DD	01H
	DD	01H
	DD	FLAT:$T233382
$T233376 DD	019930520H
	DD	02H
	DD	FLAT:$T233380
	DD	01H
	DD	FLAT:$T233381
	DD	2 DUP(00H)
; Function compile flags: /Ogty
; File c:\program files\microsoft visual studio .net 2003\vc7\include\vector
xdata$x	ENDS
;	COMDAT ??0?$vector@V?$basic_string@DU?$char_traits@D@std@@V?$allocator@D@2@@std@@V?$allocator@V?$basic_string@DU?$char_traits@D@std@@V?$allocator@D@2@@std@@@2@@std@@QAE@ABV01@@Z
_TEXT	SEGMENT
_this$ = -20						; size = 4
__$EHRec$ = -16						; size = 16
__Cat$233370 = 8					; size = 1
__Right$ = 8						; size = 4
??0?$vector@V?$basic_string@DU?$char_traits@D@std@@V?$allocator@D@2@@std@@V?$allocator@V?$basic_string@DU?$char_traits@D@std@@V?$allocator@D@2@@std@@@2@@std@@QAE@ABV01@@Z PROC NEAR ; std::vector<std::basic_string<char,std::char_traits<char>,std::allocator<char> >,std::allocator<std::basic_string<char,std::char_traits<char>,std::allocator<char> > > >::vector<std::basic_string<char,std::char_traits<char>,std::allocator<char> >,std::allocator<std::basic_string<char,std::char_traits<char>,std::allocator<char> > > >, COMDAT
; _this$ = ecx

; 329  : 		{	// construct by copying _Right

  00000	55		 push	 ebp
  00001	8b ec		 mov	 ebp, esp
  00003	6a ff		 push	 -1
  00005	68 00 00 00 00	 push	 __ehhandler$??0?$vector@V?$basic_string@DU?$char_traits@D@std@@V?$allocator@D@2@@std@@V?$allocator@V?$basic_string@DU?$char_traits@D@std@@V?$allocator@D@2@@std@@@2@@std@@QAE@ABV01@@Z
  0000a	64 a1 00 00 00
	00		 mov	 eax, DWORD PTR fs:__except_list
  00010	50		 push	 eax
  00011	64 89 25 00 00
	00 00		 mov	 DWORD PTR fs:__except_list, esp
  00018	83 ec 08	 sub	 esp, 8
  0001b	53		 push	 ebx

; 330  : 		if (_Buy(_Right.size()))

  0001c	8b 5d 08	 mov	 ebx, DWORD PTR __Right$[ebp]
  0001f	8b 43 04	 mov	 eax, DWORD PTR [ebx+4]
  00022	56		 push	 esi
  00023	8b f1		 mov	 esi, ecx
  00025	33 c9		 xor	 ecx, ecx
  00027	3b c1		 cmp	 eax, ecx
  00029	57		 push	 edi
  0002a	89 65 f0	 mov	 DWORD PTR __$EHRec$[ebp], esp
  0002d	89 75 ec	 mov	 DWORD PTR _this$[ebp], esi
  00030	75 04		 jne	 SHORT $L233283
  00032	33 ff		 xor	 edi, edi
  00034	eb 1a		 jmp	 SHORT $L233284
$L233283:
  00036	8b 4b 08	 mov	 ecx, DWORD PTR [ebx+8]
  00039	2b c8		 sub	 ecx, eax
  0003b	b8 93 24 49 92	 mov	 eax, -1840700269	; 92492493H
  00040	f7 e9		 imul	 ecx
  00042	03 d1		 add	 edx, ecx
  00044	c1 fa 04	 sar	 edx, 4
  00047	8b fa		 mov	 edi, edx
  00049	c1 ef 1f	 shr	 edi, 31			; 0000001fH
  0004c	03 fa		 add	 edi, edx
  0004e	33 c9		 xor	 ecx, ecx
$L233284:
  00050	3b f9		 cmp	 edi, ecx
  00052	89 4e 04	 mov	 DWORD PTR [esi+4], ecx
  00055	89 4e 08	 mov	 DWORD PTR [esi+8], ecx
  00058	89 4e 0c	 mov	 DWORD PTR [esi+12], ecx
  0005b	74 43		 je	 SHORT $L226197
  0005d	81 ff 49 92 24
	09		 cmp	 edi, 153391689		; 09249249H
  00063	76 07		 jbe	 SHORT $L233314
  00065	8b ce		 mov	 ecx, esi
  00067	e8 00 00 00 00	 call	 ?_Xlen@?$vector@V?$basic_string@DU?$char_traits@D@std@@V?$allocator@D@2@@std@@V?$allocator@V?$basic_string@DU?$char_traits@D@std@@V?$allocator@D@2@@std@@@2@@std@@IBEXXZ ; std::vector<std::basic_string<char,std::char_traits<char>,std::allocator<char> >,std::allocator<std::basic_string<char,std::char_traits<char>,std::allocator<char> > > >::_Xlen
$L233383:
$L233314:
  0006c	6b ff 1c	 imul	 edi, 28			; 0000001cH
  0006f	57		 push	 edi
  00070	e8 00 00 00 00	 call	 ??2@YAPAXI@Z		; operator new

; 331  : 			_TRY_BEGIN
; 332  : 			_Mylast = _Ucopy(_Right.begin(), _Right.end(), _Myfirst);

  00075	8b 55 08	 mov	 edx, DWORD PTR __Cat$233370[ebp]
  00078	52		 push	 edx
  00079	03 f8		 add	 edi, eax
  0007b	56		 push	 esi
  0007c	89 46 04	 mov	 DWORD PTR [esi+4], eax
  0007f	89 46 08	 mov	 DWORD PTR [esi+8], eax
  00082	89 7e 0c	 mov	 DWORD PTR [esi+12], edi
  00085	8b 4b 08	 mov	 ecx, DWORD PTR [ebx+8]
  00088	8b 5b 04	 mov	 ebx, DWORD PTR [ebx+4]
  0008b	50		 push	 eax
  0008c	51		 push	 ecx
  0008d	53		 push	 ebx
  0008e	c7 45 fc 00 00
	00 00		 mov	 DWORD PTR __$EHRec$[ebp+12], 0
  00095	e8 00 00 00 00	 call	 ??$_Uninit_copy@Vconst_iterator@?$vector@V?$basic_string@DU?$char_traits@D@std@@V?$allocator@D@2@@std@@V?$allocator@V?$basic_string@DU?$char_traits@D@std@@V?$allocator@D@2@@std@@@2@@std@@PAV?$basic_string@DU?$char_traits@D@std@@V?$allocator@D@2@@3@V?$allocator@V?$basic_string@DU?$char_traits@D@std@@V?$allocator@D@2@@std@@@3@@std@@YAPAV?$basic_string@DU?$char_traits@D@std@@V?$allocator@D@2@@0@Vconst_iterator@?$vector@V?$basic_string@DU?$char_traits@D@std@@V?$allocator@D@2@@std@@V?$allocator@V?$basic_string@DU?$char_traits@D@std@@V?$allocator@D@2@@std@@@2@@0@0PAV10@AAV?$allocator@V?$basic_string@DU?$char_traits@D@std@@V?$allocator@D@2@@std@@@0@U_Nonscalar_ptr_iterator_tag@0@@Z ; std::_Uninit_copy<std::vector<std::basic_string<char,std::char_traits<char>,std::allocator<char> >,std::allocator<std::basic_string<char,std::char_traits<char>,std::allocator<char> > > >::const_iterator,std::basic_string<char,std::char_traits<char>,std::allocator<char> > *,std::allocator<std::basic_string<char,std::char_traits<char>,std::allocator<char> > > >
  0009a	83 c4 18	 add	 esp, 24			; 00000018H
  0009d	89 46 08	 mov	 DWORD PTR [esi+8], eax
$L226197:

; 336  : 			_CATCH_END
; 337  : 		}

  000a0	8b 4d f4	 mov	 ecx, DWORD PTR __$EHRec$[ebp+4]
  000a3	5f		 pop	 edi
  000a4	8b c6		 mov	 eax, esi
  000a6	5e		 pop	 esi
  000a7	64 89 0d 00 00
	00 00		 mov	 DWORD PTR fs:__except_list, ecx
  000ae	5b		 pop	 ebx
  000af	8b e5		 mov	 esp, ebp
  000b1	5d		 pop	 ebp
  000b2	c2 04 00	 ret	 4
$L233265:

; 333  : 			_CATCH_ALL
; 334  : 			_Tidy();

  000b5	8b 4d ec	 mov	 ecx, DWORD PTR _this$[ebp]
  000b8	e8 00 00 00 00	 call	 ?_Tidy@?$vector@V?$basic_string@DU?$char_traits@D@std@@V?$allocator@D@2@@std@@V?$allocator@V?$basic_string@DU?$char_traits@D@std@@V?$allocator@D@2@@std@@@2@@std@@IAEXXZ ; std::vector<std::basic_string<char,std::char_traits<char>,std::allocator<char> >,std::allocator<std::basic_string<char,std::char_traits<char>,std::allocator<char> > > >::_Tidy

; 335  : 			_RERAISE;

  000bd	6a 00		 push	 0
  000bf	6a 00		 push	 0
  000c1	e8 00 00 00 00	 call	 __CxxThrowException@8
$L233384:
$L233379:
  000c6	cc		 int	 3
_TEXT	ENDS
;	COMDAT text$x
text$x	SEGMENT
__ehhandler$??0?$vector@V?$basic_string@DU?$char_traits@D@std@@V?$allocator@D@2@@std@@V?$allocator@V?$basic_string@DU?$char_traits@D@std@@V?$allocator@D@2@@std@@@2@@std@@QAE@ABV01@@Z:
  00000	b8 00 00 00 00	 mov	 eax, OFFSET FLAT:$T233376
  00005	e9 00 00 00 00	 jmp	 ___CxxFrameHandler
text$x	ENDS
??0?$vector@V?$basic_string@DU?$char_traits@D@std@@V?$allocator@D@2@@std@@V?$allocator@V?$basic_string@DU?$char_traits@D@std@@V?$allocator@D@2@@std@@@2@@std@@QAE@ABV01@@Z ENDP ; std::vector<std::basic_string<char,std::char_traits<char>,std::allocator<char> >,std::allocator<std::basic_string<char,std::char_traits<char>,std::allocator<char> > > >::vector<std::basic_string<char,std::char_traits<char>,std::allocator<char> >,std::allocator<std::basic_string<char,std::char_traits<char>,std::allocator<char> > > >
PUBLIC	??1?$vector@V?$basic_string@DU?$char_traits@D@std@@V?$allocator@D@2@@std@@V?$allocator@V?$basic_string@DU?$char_traits@D@std@@V?$allocator@D@2@@std@@@2@@std@@QAE@XZ ; std::vector<std::basic_string<char,std::char_traits<char>,std::allocator<char> >,std::allocator<std::basic_string<char,std::char_traits<char>,std::allocator<char> > > >::~vector<std::basic_string<char,std::char_traits<char>,std::allocator<char> >,std::allocator<std::basic_string<char,std::char_traits<char>,std::allocator<char> > > >
; Function compile flags: /Ogty
;	COMDAT ??1?$vector@V?$basic_string@DU?$char_traits@D@std@@V?$allocator@D@2@@std@@V?$allocator@V?$basic_string@DU?$char_traits@D@std@@V?$allocator@D@2@@std@@@2@@std@@QAE@XZ
_TEXT	SEGMENT
__Cat$233429 = -4					; size = 1
??1?$vector@V?$basic_string@DU?$char_traits@D@std@@V?$allocator@D@2@@std@@V?$allocator@V?$basic_string@DU?$char_traits@D@std@@V?$allocator@D@2@@std@@@2@@std@@QAE@XZ PROC NEAR ; std::vector<std::basic_string<char,std::char_traits<char>,std::allocator<char> >,std::allocator<std::basic_string<char,std::char_traits<char>,std::allocator<char> > > >::~vector<std::basic_string<char,std::char_traits<char>,std::allocator<char> >,std::allocator<std::basic_string<char,std::char_traits<char>,std::allocator<char> > > >, COMDAT
; _this$ = ecx

; 387  : 		{	// destroy the object

  00000	51		 push	 ecx
  00001	56		 push	 esi
  00002	8b f1		 mov	 esi, ecx

; 388  : 		_Tidy();

  00004	8b 46 04	 mov	 eax, DWORD PTR [esi+4]
  00007	85 c0		 test	 eax, eax
  00009	74 1c		 je	 SHORT $L233431
  0000b	8b 4c 24 04	 mov	 ecx, DWORD PTR __Cat$233429[esp+8]
  0000f	8b 56 08	 mov	 edx, DWORD PTR [esi+8]
  00012	51		 push	 ecx
  00013	56		 push	 esi
  00014	52		 push	 edx
  00015	50		 push	 eax
  00016	e8 00 00 00 00	 call	 ??$_Destroy_range@V?$basic_string@DU?$char_traits@D@std@@V?$allocator@D@2@@std@@V?$allocator@V?$basic_string@DU?$char_traits@D@std@@V?$allocator@D@2@@std@@@2@@std@@YAXPAV?$basic_string@DU?$char_traits@D@std@@V?$allocator@D@2@@0@0AAV?$allocator@V?$basic_string@DU?$char_traits@D@std@@V?$allocator@D@2@@std@@@0@U_Nonscalar_ptr_iterator_tag@0@@Z ; std::_Destroy_range<std::basic_string<char,std::char_traits<char>,std::allocator<char> >,std::allocator<std::basic_string<char,std::char_traits<char>,std::allocator<char> > > >
  0001b	8b 46 04	 mov	 eax, DWORD PTR [esi+4]
  0001e	50		 push	 eax
  0001f	e8 00 00 00 00	 call	 ??3@YAXPAX@Z		; operator delete
  00024	83 c4 14	 add	 esp, 20			; 00000014H
$L233431:
  00027	c7 46 04 00 00
	00 00		 mov	 DWORD PTR [esi+4], 0
  0002e	c7 46 08 00 00
	00 00		 mov	 DWORD PTR [esi+8], 0
  00035	c7 46 0c 00 00
	00 00		 mov	 DWORD PTR [esi+12], 0
  0003c	5e		 pop	 esi

; 389  : 		}

  0003d	59		 pop	 ecx
  0003e	c3		 ret	 0
??1?$vector@V?$basic_string@DU?$char_traits@D@std@@V?$allocator@D@2@@std@@V?$allocator@V?$basic_string@DU?$char_traits@D@std@@V?$allocator@D@2@@std@@@2@@std@@QAE@XZ ENDP ; std::vector<std::basic_string<char,std::char_traits<char>,std::allocator<char> >,std::allocator<std::basic_string<char,std::char_traits<char>,std::allocator<char> > > >::~vector<std::basic_string<char,std::char_traits<char>,std::allocator<char> >,std::allocator<std::basic_string<char,std::char_traits<char>,std::allocator<char> > > >
_TEXT	ENDS
PUBLIC	?clear@?$vector@V?$basic_string@DU?$char_traits@D@std@@V?$allocator@D@2@@std@@V?$allocator@V?$basic_string@DU?$char_traits@D@std@@V?$allocator@D@2@@std@@@2@@std@@QAEXXZ ; std::vector<std::basic_string<char,std::char_traits<char>,std::allocator<char> >,std::allocator<std::basic_string<char,std::char_traits<char>,std::allocator<char> > > >::clear
; Function compile flags: /Ogty
;	COMDAT ?clear@?$vector@V?$basic_string@DU?$char_traits@D@std@@V?$allocator@D@2@@std@@V?$allocator@V?$basic_string@DU?$char_traits@D@std@@V?$allocator@D@2@@std@@@2@@std@@QAEXXZ
_TEXT	SEGMENT
__Cat$233476 = -4					; size = 1
?clear@?$vector@V?$basic_string@DU?$char_traits@D@std@@V?$allocator@D@2@@std@@V?$allocator@V?$basic_string@DU?$char_traits@D@std@@V?$allocator@D@2@@std@@@2@@std@@QAEXXZ PROC NEAR ; std::vector<std::basic_string<char,std::char_traits<char>,std::allocator<char> >,std::allocator<std::basic_string<char,std::char_traits<char>,std::allocator<char> > > >::clear, COMDAT
; _this$ = ecx

; 743  : 		{	// erase all

  00000	51		 push	 ecx
  00001	56		 push	 esi
  00002	8b f1		 mov	 esi, ecx

; 744  : 		_Tidy();

  00004	8b 46 04	 mov	 eax, DWORD PTR [esi+4]
  00007	85 c0		 test	 eax, eax
  00009	74 1c		 je	 SHORT $L233478
  0000b	8b 4c 24 04	 mov	 ecx, DWORD PTR __Cat$233476[esp+8]
  0000f	8b 56 08	 mov	 edx, DWORD PTR [esi+8]
  00012	51		 push	 ecx
  00013	56		 push	 esi
  00014	52		 push	 edx
  00015	50		 push	 eax
  00016	e8 00 00 00 00	 call	 ??$_Destroy_range@V?$basic_string@DU?$char_traits@D@std@@V?$allocator@D@2@@std@@V?$allocator@V?$basic_string@DU?$char_traits@D@std@@V?$allocator@D@2@@std@@@2@@std@@YAXPAV?$basic_string@DU?$char_traits@D@std@@V?$allocator@D@2@@0@0AAV?$allocator@V?$basic_string@DU?$char_traits@D@std@@V?$allocator@D@2@@std@@@0@U_Nonscalar_ptr_iterator_tag@0@@Z ; std::_Destroy_range<std::basic_string<char,std::char_traits<char>,std::allocator<char> >,std::allocator<std::basic_string<char,std::char_traits<char>,std::allocator<char> > > >
  0001b	8b 46 04	 mov	 eax, DWORD PTR [esi+4]
  0001e	50		 push	 eax
  0001f	e8 00 00 00 00	 call	 ??3@YAXPAX@Z		; operator delete
  00024	83 c4 14	 add	 esp, 20			; 00000014H
$L233478:
  00027	c7 46 04 00 00
	00 00		 mov	 DWORD PTR [esi+4], 0
  0002e	c7 46 08 00 00
	00 00		 mov	 DWORD PTR [esi+8], 0
  00035	c7 46 0c 00 00
	00 00		 mov	 DWORD PTR [esi+12], 0
  0003c	5e		 pop	 esi

; 745  : 		}

  0003d	59		 pop	 ecx
  0003e	c3		 ret	 0
?clear@?$vector@V?$basic_string@DU?$char_traits@D@std@@V?$allocator@D@2@@std@@V?$allocator@V?$basic_string@DU?$char_traits@D@std@@V?$allocator@D@2@@std@@@2@@std@@QAEXXZ ENDP ; std::vector<std::basic_string<char,std::char_traits<char>,std::allocator<char> >,std::allocator<std::basic_string<char,std::char_traits<char>,std::allocator<char> > > >::clear
_TEXT	ENDS
PUBLIC	?insert@?$vector@V?$basic_string@DU?$char_traits@D@std@@V?$allocator@D@2@@std@@V?$allocator@V?$basic_string@DU?$char_traits@D@std@@V?$allocator@D@2@@std@@@2@@std@@QAE?AViterator@12@V312@ABV?$basic_string@DU?$char_traits@D@std@@V?$allocator@D@2@@2@@Z ; std::vector<std::basic_string<char,std::char_traits<char>,std::allocator<char> >,std::allocator<std::basic_string<char,std::char_traits<char>,std::allocator<char> > > >::insert
; Function compile flags: /Ogty
;	COMDAT ?insert@?$vector@V?$basic_string@DU?$char_traits@D@std@@V?$allocator@D@2@@std@@V?$allocator@V?$basic_string@DU?$char_traits@D@std@@V?$allocator@D@2@@std@@@2@@std@@QAE?AViterator@12@V312@ABV?$basic_string@DU?$char_traits@D@std@@V?$allocator@D@2@@2@@Z
_TEXT	SEGMENT
___$ReturnUdt$ = 8					; size = 4
tv90 = 12						; size = 4
__Where$ = 12						; size = 4
__Val$ = 16						; size = 4
?insert@?$vector@V?$basic_string@DU?$char_traits@D@std@@V?$allocator@D@2@@std@@V?$allocator@V?$basic_string@DU?$char_traits@D@std@@V?$allocator@D@2@@std@@@2@@std@@QAE?AViterator@12@V312@ABV?$basic_string@DU?$char_traits@D@std@@V?$allocator@D@2@@2@@Z PROC NEAR ; std::vector<std::basic_string<char,std::char_traits<char>,std::allocator<char> >,std::allocator<std::basic_string<char,std::char_traits<char>,std::allocator<char> > > >::insert, COMDAT
; _this$ = ecx

; 620  : 		{	// insert _Val at _Where

  00000	53		 push	 ebx

; 621  : 		size_type _Off = size() == 0 ? 0 : _Where - begin();

  00001	8b 5c 24 0c	 mov	 ebx, DWORD PTR __Where$[esp]
  00005	56		 push	 esi
  00006	57		 push	 edi
  00007	8b f9		 mov	 edi, ecx
  00009	8b 77 04	 mov	 esi, DWORD PTR [edi+4]
  0000c	85 f6		 test	 esi, esi
  0000e	74 1e		 je	 SHORT $L233545
  00010	8b 4f 08	 mov	 ecx, DWORD PTR [edi+8]
  00013	2b ce		 sub	 ecx, esi
  00015	b8 93 24 49 92	 mov	 eax, -1840700269	; 92492493H
  0001a	f7 e9		 imul	 ecx
  0001c	03 d1		 add	 edx, ecx
  0001e	c1 fa 04	 sar	 edx, 4
  00021	8b c2		 mov	 eax, edx
  00023	c1 e8 1f	 shr	 eax, 31			; 0000001fH
  00026	03 c2		 add	 eax, edx
  00028	89 44 24 14	 mov	 DWORD PTR tv90[esp+8], eax
  0002c	75 04		 jne	 SHORT $L233484
$L233545:
  0002e	33 f6		 xor	 esi, esi
  00030	eb 17		 jmp	 SHORT $L233485
$L233484:
  00032	8b cb		 mov	 ecx, ebx
  00034	2b ce		 sub	 ecx, esi
  00036	b8 93 24 49 92	 mov	 eax, -1840700269	; 92492493H
  0003b	f7 e9		 imul	 ecx
  0003d	03 d1		 add	 edx, ecx
  0003f	c1 fa 04	 sar	 edx, 4
  00042	8b f2		 mov	 esi, edx
  00044	c1 ee 1f	 shr	 esi, 31			; 0000001fH
  00047	03 f2		 add	 esi, edx
$L233485:

; 622  : 		_Insert_n(_Where, (size_type)1, _Val);

  00049	8b 4c 24 18	 mov	 ecx, DWORD PTR __Val$[esp+8]
  0004d	51		 push	 ecx
  0004e	6a 01		 push	 1
  00050	53		 push	 ebx
  00051	8b cf		 mov	 ecx, edi
  00053	e8 00 00 00 00	 call	 ?_Insert_n@?$vector@V?$basic_string@DU?$char_traits@D@std@@V?$allocator@D@2@@std@@V?$allocator@V?$basic_string@DU?$char_traits@D@std@@V?$allocator@D@2@@std@@@2@@std@@IAEXViterator@12@IABV?$basic_string@DU?$char_traits@D@std@@V?$allocator@D@2@@2@@Z ; std::vector<std::basic_string<char,std::char_traits<char>,std::allocator<char> >,std::allocator<std::basic_string<char,std::char_traits<char>,std::allocator<char> > > >::_Insert_n

; 623  : 		return (begin() + _Off);

  00058	6b f6 1c	 imul	 esi, 28			; 0000001cH
  0005b	03 77 04	 add	 esi, DWORD PTR [edi+4]
  0005e	8b 44 24 10	 mov	 eax, DWORD PTR ___$ReturnUdt$[esp+8]
  00062	5f		 pop	 edi
  00063	89 30		 mov	 DWORD PTR [eax], esi
  00065	5e		 pop	 esi
  00066	5b		 pop	 ebx

; 624  : 		}

  00067	c2 0c 00	 ret	 12			; 0000000cH
?insert@?$vector@V?$basic_string@DU?$char_traits@D@std@@V?$allocator@D@2@@std@@V?$allocator@V?$basic_string@DU?$char_traits@D@std@@V?$allocator@D@2@@std@@@2@@std@@QAE?AViterator@12@V312@ABV?$basic_string@DU?$char_traits@D@std@@V?$allocator@D@2@@2@@Z ENDP ; std::vector<std::basic_string<char,std::char_traits<char>,std::allocator<char> >,std::allocator<std::basic_string<char,std::char_traits<char>,std::allocator<char> > > >::insert
_TEXT	ENDS
PUBLIC	??$insert@Viterator@?$vector@V?$basic_string@DU?$char_traits@D@std@@V?$allocator@D@2@@std@@V?$allocator@V?$basic_string@DU?$char_traits@D@std@@V?$allocator@D@2@@std@@@2@@std@@@?$vector@V?$basic_string@DU?$char_traits@D@std@@V?$allocator@D@2@@std@@V?$allocator@V?$basic_string@DU?$char_traits@D@std@@V?$allocator@D@2@@std@@@2@@std@@QAEXViterator@01@00@Z ; std::vector<std::basic_string<char,std::char_traits<char>,std::allocator<char> >,std::allocator<std::basic_string<char,std::char_traits<char>,std::allocator<char> > > >::insert<std::vector<std::basic_string<char,std::char_traits<char>,std::allocator<char> >,std::allocator<std::basic_string<char,std::char_traits<char>,std::allocator<char> > > >::iterator>
; Function compile flags: /Ogty
;	COMDAT ??$insert@Viterator@?$vector@V?$basic_string@DU?$char_traits@D@std@@V?$allocator@D@2@@std@@V?$allocator@V?$basic_string@DU?$char_traits@D@std@@V?$allocator@D@2@@std@@@2@@std@@@?$vector@V?$basic_string@DU?$char_traits@D@std@@V?$allocator@D@2@@std@@V?$allocator@V?$basic_string@DU?$char_traits@D@std@@V?$allocator@D@2@@std@@@2@@std@@QAEXViterator@01@00@Z
_TEXT	SEGMENT
__Where$ = 8						; size = 4
__First$ = 12						; size = 4
$T233550 = 16						; size = 1
__Last$ = 16						; size = 4
??$insert@Viterator@?$vector@V?$basic_string@DU?$char_traits@D@std@@V?$allocator@D@2@@std@@V?$allocator@V?$basic_string@DU?$char_traits@D@std@@V?$allocator@D@2@@std@@@2@@std@@@?$vector@V?$basic_string@DU?$char_traits@D@std@@V?$allocator@D@2@@std@@V?$allocator@V?$basic_string@DU?$char_traits@D@std@@V?$allocator@D@2@@std@@@2@@std@@QAEXViterator@01@00@Z PROC NEAR ; std::vector<std::basic_string<char,std::char_traits<char>,std::allocator<char> >,std::allocator<std::basic_string<char,std::char_traits<char>,std::allocator<char> > > >::insert<std::vector<std::basic_string<char,std::char_traits<char>,std::allocator<char> >,std::allocator<std::basic_string<char,std::char_traits<char>,std::allocator<char> > > >::iterator>, COMDAT
; _this$ = ecx

; 633  : 		{	// insert [_First, _Last) at _Where
; 634  : 		_Insert(_Where, _First, _Last, _Iter_cat(_First));

  00000	8b 44 24 0c	 mov	 eax, DWORD PTR $T233550[esp-4]
  00004	8b 54 24 0c	 mov	 edx, DWORD PTR __Last$[esp-4]
  00008	50		 push	 eax
  00009	8b 44 24 0c	 mov	 eax, DWORD PTR __First$[esp]
  0000d	52		 push	 edx
  0000e	8b 54 24 0c	 mov	 edx, DWORD PTR __Where$[esp+4]
  00012	50		 push	 eax
  00013	52		 push	 edx
  00014	e8 00 00 00 00	 call	 ??$_Insert@Viterator@?$vector@V?$basic_string@DU?$char_traits@D@std@@V?$allocator@D@2@@std@@V?$allocator@V?$basic_string@DU?$char_traits@D@std@@V?$allocator@D@2@@std@@@2@@std@@@?$vector@V?$basic_string@DU?$char_traits@D@std@@V?$allocator@D@2@@std@@V?$allocator@V?$basic_string@DU?$char_traits@D@std@@V?$allocator@D@2@@std@@@2@@std@@QAEXViterator@01@00Uforward_iterator_tag@1@@Z ; std::vector<std::basic_string<char,std::char_traits<char>,std::allocator<char> >,std::allocator<std::basic_string<char,std::char_traits<char>,std::allocator<char> > > >::_Insert<std::vector<std::basic_string<char,std::char_traits<char>,std::allocator<char> >,std::allocator<std::basic_string<char,std::char_traits<char>,std::allocator<char> > > >::iterator>

; 635  : 		}

  00019	c2 0c 00	 ret	 12			; 0000000cH
??$insert@Viterator@?$vector@V?$basic_string@DU?$char_traits@D@std@@V?$allocator@D@2@@std@@V?$allocator@V?$basic_string@DU?$char_traits@D@std@@V?$allocator@D@2@@std@@@2@@std@@@?$vector@V?$basic_string@DU?$char_traits@D@std@@V?$allocator@D@2@@std@@V?$allocator@V?$basic_string@DU?$char_traits@D@std@@V?$allocator@D@2@@std@@@2@@std@@QAEXViterator@01@00@Z ENDP ; std::vector<std::basic_string<char,std::char_traits<char>,std::allocator<char> >,std::allocator<std::basic_string<char,std::char_traits<char>,std::allocator<char> > > >::insert<std::vector<std::basic_string<char,std::char_traits<char>,std::allocator<char> >,std::allocator<std::basic_string<char,std::char_traits<char>,std::allocator<char> > > >::iterator>
_TEXT	ENDS
PUBLIC	??0__MINIGAME_EXT_PACKET@@QAE@GHHH@Z		; __MINIGAME_EXT_PACKET::__MINIGAME_EXT_PACKET
PUBLIC	?Serialize@__MINIGAME_EXT_PACKET@@UAEXAAVCAr@@@Z ; __MINIGAME_EXT_PACKET::Serialize
PUBLIC	??_7__MINIGAME_EXT_PACKET@@6B@			; __MINIGAME_EXT_PACKET::`vftable'
;	COMDAT ??_7__MINIGAME_EXT_PACKET@@6B@
; File c:\program files\microsoft visual studio .net 2003\vc7\include\xmemory
CONST	SEGMENT
??_7__MINIGAME_EXT_PACKET@@6B@ DD FLAT:?Serialize@__MINIGAME_EXT_PACKET@@UAEXAAVCAr@@@Z ; __MINIGAME_EXT_PACKET::`vftable'
; Function compile flags: /Ogty
; File c:\documents and settings\test\mes documents\source\virtuos_v17\build\program\_common\minigamebase.h
CONST	ENDS
;	COMDAT ??0__MINIGAME_EXT_PACKET@@QAE@GHHH@Z
_TEXT	SEGMENT
__Cat$233703 = 8					; size = 1
_wG$ = 8						; size = 2
_nS$ = 12						; size = 4
_nP1$ = 16						; size = 4
_nP2$ = 20						; size = 4
??0__MINIGAME_EXT_PACKET@@QAE@GHHH@Z PROC NEAR		; __MINIGAME_EXT_PACKET::__MINIGAME_EXT_PACKET, COMDAT
; _this$ = ecx

; 27   : 	__MINIGAME_EXT_PACKET( WORD wG = 0x0000, int nS = MP_NONE, int nP1 = 0, int nP2 = 0 )

  00000	66 8b 44 24 04	 mov	 ax, WORD PTR _wG$[esp-4]
  00005	8b 54 24 0c	 mov	 edx, DWORD PTR _nP1$[esp-4]
  00009	53		 push	 ebx
  0000a	56		 push	 esi
  0000b	57		 push	 edi
  0000c	8b f9		 mov	 edi, ecx
  0000e	8b 4c 24 14	 mov	 ecx, DWORD PTR _nS$[esp+8]
  00012	8d 77 14	 lea	 esi, DWORD PTR [edi+20]
  00015	33 db		 xor	 ebx, ebx
  00017	c7 07 00 00 00
	00		 mov	 DWORD PTR [edi], OFFSET FLAT:??_7__MINIGAME_EXT_PACKET@@6B@
  0001d	89 5e 04	 mov	 DWORD PTR [esi+4], ebx
  00020	89 5e 08	 mov	 DWORD PTR [esi+8], ebx
  00023	89 5e 0c	 mov	 DWORD PTR [esi+12], ebx
  00026	66 89 47 04	 mov	 WORD PTR [edi+4], ax
  0002a	8b 44 24 1c	 mov	 eax, DWORD PTR _nP2$[esp+8]
  0002e	89 4f 08	 mov	 DWORD PTR [edi+8], ecx
  00031	89 57 0c	 mov	 DWORD PTR [edi+12], edx
  00034	89 47 10	 mov	 DWORD PTR [edi+16], eax
  00037	8b 46 04	 mov	 eax, DWORD PTR [esi+4]
  0003a	3b c3		 cmp	 eax, ebx
  0003c	74 1c		 je	 SHORT $L233705
  0003e	8b 4c 24 10	 mov	 ecx, DWORD PTR __Cat$233703[esp+8]
  00042	8b 56 08	 mov	 edx, DWORD PTR [esi+8]
  00045	51		 push	 ecx
  00046	56		 push	 esi
  00047	52		 push	 edx
  00048	50		 push	 eax
  00049	e8 00 00 00 00	 call	 ??$_Destroy_range@V?$basic_string@DU?$char_traits@D@std@@V?$allocator@D@2@@std@@V?$allocator@V?$basic_string@DU?$char_traits@D@std@@V?$allocator@D@2@@std@@@2@@std@@YAXPAV?$basic_string@DU?$char_traits@D@std@@V?$allocator@D@2@@0@0AAV?$allocator@V?$basic_string@DU?$char_traits@D@std@@V?$allocator@D@2@@std@@@0@U_Nonscalar_ptr_iterator_tag@0@@Z ; std::_Destroy_range<std::basic_string<char,std::char_traits<char>,std::allocator<char> >,std::allocator<std::basic_string<char,std::char_traits<char>,std::allocator<char> > > >
  0004e	8b 46 04	 mov	 eax, DWORD PTR [esi+4]
  00051	50		 push	 eax
  00052	e8 00 00 00 00	 call	 ??3@YAXPAX@Z		; operator delete
  00057	83 c4 14	 add	 esp, 20			; 00000014H
$L233705:
  0005a	8b c7		 mov	 eax, edi
  0005c	5f		 pop	 edi
  0005d	89 5e 04	 mov	 DWORD PTR [esi+4], ebx
  00060	89 5e 08	 mov	 DWORD PTR [esi+8], ebx
  00063	89 5e 0c	 mov	 DWORD PTR [esi+12], ebx
  00066	5e		 pop	 esi
  00067	5b		 pop	 ebx
  00068	c2 10 00	 ret	 16			; 00000010H
??0__MINIGAME_EXT_PACKET@@QAE@GHHH@Z ENDP		; __MINIGAME_EXT_PACKET::__MINIGAME_EXT_PACKET
_TEXT	ENDS
PUBLIC	??0CMiniGameTyping@@QAE@XZ			; CMiniGameTyping::CMiniGameTyping
PUBLIC	?Excute@CMiniGameTyping@@UAEHPAVCUser@@PAU__MINIGAME_PACKET@@@Z ; CMiniGameTyping::Excute
PUBLIC	??_7CMiniGameTyping@@6B@			; CMiniGameTyping::`vftable'
PUBLIC	??_GCMiniGameTyping@@UAEPAXI@Z			; CMiniGameTyping::`scalar deleting destructor'
EXTRN	??0CMiniGameBase@@QAE@XZ:NEAR			; CMiniGameBase::CMiniGameBase
EXTRN	??1CMiniGameBase@@UAE@XZ:NEAR			; CMiniGameBase::~CMiniGameBase
EXTRN	??_ECMiniGameTyping@@UAEPAXI@Z:NEAR		; CMiniGameTyping::`vector deleting destructor'
;	COMDAT xdata$x
; File c:\program files\microsoft visual studio .net 2003\vc7\include\xmemory
xdata$x	SEGMENT
$T233803 DD	0ffffffffH
	DD	FLAT:$L233712
$T233801 DD	019930520H
	DD	01H
	DD	FLAT:$T233803
	DD	2 DUP(00H)
	DD	2 DUP(00H)
xdata$x	ENDS
;	COMDAT ??_7CMiniGameTyping@@6B@
CONST	SEGMENT
??_7CMiniGameTyping@@6B@ DD FLAT:??_ECMiniGameTyping@@UAEPAXI@Z ; CMiniGameTyping::`vftable'
	DD	FLAT:?Excute@CMiniGameTyping@@UAEHPAVCUser@@PAU__MINIGAME_PACKET@@@Z
; Function compile flags: /Ogty
; File c:\documents and settings\test\mes documents\source\virtuos_v17\build\program\worldserver\minigametyping.cpp
CONST	ENDS
;	COMDAT ??0CMiniGameTyping@@QAE@XZ
_TEXT	SEGMENT
_this$ = -16						; size = 4
__$EHRec$ = -12						; size = 12
??0CMiniGameTyping@@QAE@XZ PROC NEAR			; CMiniGameTyping::CMiniGameTyping, COMDAT
; _this$ = ecx

; 7    : {

  00000	6a ff		 push	 -1
  00002	68 00 00 00 00	 push	 __ehhandler$??0CMiniGameTyping@@QAE@XZ
  00007	64 a1 00 00 00
	00		 mov	 eax, DWORD PTR fs:__except_list
  0000d	50		 push	 eax
  0000e	64 89 25 00 00
	00 00		 mov	 DWORD PTR fs:__except_list, esp
  00015	51		 push	 ecx
  00016	56		 push	 esi
  00017	8b f1		 mov	 esi, ecx
  00019	e8 00 00 00 00	 call	 ??0CMiniGameBase@@QAE@XZ ; CMiniGameBase::CMiniGameBase

; 8    : }

  0001e	8b 4c 24 08	 mov	 ecx, DWORD PTR __$EHRec$[esp+20]
  00022	c7 06 00 00 00
	00		 mov	 DWORD PTR [esi], OFFSET FLAT:??_7CMiniGameTyping@@6B@
  00028	33 c0		 xor	 eax, eax
  0002a	89 46 08	 mov	 DWORD PTR [esi+8], eax
  0002d	89 46 0c	 mov	 DWORD PTR [esi+12], eax
  00030	89 46 10	 mov	 DWORD PTR [esi+16], eax
  00033	8b c6		 mov	 eax, esi
  00035	5e		 pop	 esi
  00036	64 89 0d 00 00
	00 00		 mov	 DWORD PTR fs:__except_list, ecx
  0003d	83 c4 10	 add	 esp, 16			; 00000010H
  00040	c3		 ret	 0
_TEXT	ENDS
;	COMDAT text$x
text$x	SEGMENT
$L233712:
  00000	8b 4d f0	 mov	 ecx, DWORD PTR _this$[ebp]
  00003	e9 00 00 00 00	 jmp	 ??1CMiniGameBase@@UAE@XZ ; CMiniGameBase::~CMiniGameBase
__ehhandler$??0CMiniGameTyping@@QAE@XZ:
  00008	b8 00 00 00 00	 mov	 eax, OFFSET FLAT:$T233801
  0000d	e9 00 00 00 00	 jmp	 ___CxxFrameHandler
text$x	ENDS
??0CMiniGameTyping@@QAE@XZ ENDP				; CMiniGameTyping::CMiniGameTyping
PUBLIC	??0CMiniGameTyping@@QAE@PAVCMiniGameBase@@@Z	; CMiniGameTyping::CMiniGameTyping
;	COMDAT xdata$x
; File c:\program files\microsoft visual studio .net 2003\vc7\include\xmemory
xdata$x	SEGMENT
$T233900 DD	0ffffffffH
	DD	FLAT:$L233809
$T233898 DD	019930520H
	DD	01H
	DD	FLAT:$T233900
	DD	2 DUP(00H)
	DD	2 DUP(00H)
; Function compile flags: /Ogty
; File c:\documents and settings\test\mes documents\source\virtuos_v17\build\program\worldserver\minigametyping.cpp
xdata$x	ENDS
;	COMDAT ??0CMiniGameTyping@@QAE@PAVCMiniGameBase@@@Z
_TEXT	SEGMENT
_this$ = -16						; size = 4
__$EHRec$ = -12						; size = 12
_pMiniGame$ = 8						; size = 4
??0CMiniGameTyping@@QAE@PAVCMiniGameBase@@@Z PROC NEAR	; CMiniGameTyping::CMiniGameTyping, COMDAT
; _this$ = ecx

; 11   : {

  00000	6a ff		 push	 -1
  00002	68 00 00 00 00	 push	 __ehhandler$??0CMiniGameTyping@@QAE@PAVCMiniGameBase@@@Z
  00007	64 a1 00 00 00
	00		 mov	 eax, DWORD PTR fs:__except_list
  0000d	50		 push	 eax
  0000e	64 89 25 00 00
	00 00		 mov	 DWORD PTR fs:__except_list, esp
  00015	51		 push	 ecx
  00016	56		 push	 esi
  00017	8b f1		 mov	 esi, ecx
  00019	e8 00 00 00 00	 call	 ??0CMiniGameBase@@QAE@XZ ; CMiniGameBase::CMiniGameBase

; 12   : 	CMiniGameTyping* pMiniGameTyping = static_cast<CMiniGameTyping*>( pMiniGame );
; 13   : }

  0001e	8b 4c 24 08	 mov	 ecx, DWORD PTR __$EHRec$[esp+20]
  00022	c7 06 00 00 00
	00		 mov	 DWORD PTR [esi], OFFSET FLAT:??_7CMiniGameTyping@@6B@
  00028	33 c0		 xor	 eax, eax
  0002a	89 46 08	 mov	 DWORD PTR [esi+8], eax
  0002d	89 46 0c	 mov	 DWORD PTR [esi+12], eax
  00030	89 46 10	 mov	 DWORD PTR [esi+16], eax
  00033	8b c6		 mov	 eax, esi
  00035	5e		 pop	 esi
  00036	64 89 0d 00 00
	00 00		 mov	 DWORD PTR fs:__except_list, ecx
  0003d	83 c4 10	 add	 esp, 16			; 00000010H
  00040	c2 04 00	 ret	 4
_TEXT	ENDS
;	COMDAT text$x
text$x	SEGMENT
$L233809:
  00000	8b 4d f0	 mov	 ecx, DWORD PTR _this$[ebp]
  00003	e9 00 00 00 00	 jmp	 ??1CMiniGameBase@@UAE@XZ ; CMiniGameBase::~CMiniGameBase
__ehhandler$??0CMiniGameTyping@@QAE@PAVCMiniGameBase@@@Z:
  00008	b8 00 00 00 00	 mov	 eax, OFFSET FLAT:$T233898
  0000d	e9 00 00 00 00	 jmp	 ___CxxFrameHandler
text$x	ENDS
??0CMiniGameTyping@@QAE@PAVCMiniGameBase@@@Z ENDP	; CMiniGameTyping::CMiniGameTyping
PUBLIC	??1CMiniGameTyping@@UAE@XZ			; CMiniGameTyping::~CMiniGameTyping
; Function compile flags: /Ogty
;	COMDAT ??1CMiniGameTyping@@UAE@XZ
_TEXT	SEGMENT
__Cat$233963 = -4					; size = 1
??1CMiniGameTyping@@UAE@XZ PROC NEAR			; CMiniGameTyping::~CMiniGameTyping, COMDAT
; _this$ = ecx

; 16   : {

  00000	51		 push	 ecx
  00001	56		 push	 esi
  00002	57		 push	 edi
  00003	8b f9		 mov	 edi, ecx

; 17   : }

  00005	8d 77 04	 lea	 esi, DWORD PTR [edi+4]
  00008	c7 07 00 00 00
	00		 mov	 DWORD PTR [edi], OFFSET FLAT:??_7CMiniGameTyping@@6B@
  0000e	8b 46 04	 mov	 eax, DWORD PTR [esi+4]
  00011	85 c0		 test	 eax, eax
  00013	74 1c		 je	 SHORT $L233965
  00015	8b 4c 24 08	 mov	 ecx, DWORD PTR __Cat$233963[esp+12]
  00019	8b 56 08	 mov	 edx, DWORD PTR [esi+8]
  0001c	51		 push	 ecx
  0001d	56		 push	 esi
  0001e	52		 push	 edx
  0001f	50		 push	 eax
  00020	e8 00 00 00 00	 call	 ??$_Destroy_range@V?$basic_string@DU?$char_traits@D@std@@V?$allocator@D@2@@std@@V?$allocator@V?$basic_string@DU?$char_traits@D@std@@V?$allocator@D@2@@std@@@2@@std@@YAXPAV?$basic_string@DU?$char_traits@D@std@@V?$allocator@D@2@@0@0AAV?$allocator@V?$basic_string@DU?$char_traits@D@std@@V?$allocator@D@2@@std@@@0@U_Nonscalar_ptr_iterator_tag@0@@Z ; std::_Destroy_range<std::basic_string<char,std::char_traits<char>,std::allocator<char> >,std::allocator<std::basic_string<char,std::char_traits<char>,std::allocator<char> > > >
  00025	8b 46 04	 mov	 eax, DWORD PTR [esi+4]
  00028	50		 push	 eax
  00029	e8 00 00 00 00	 call	 ??3@YAXPAX@Z		; operator delete
  0002e	83 c4 14	 add	 esp, 20			; 00000014H
$L233965:
  00031	8b cf		 mov	 ecx, edi
  00033	5f		 pop	 edi
  00034	c7 46 04 00 00
	00 00		 mov	 DWORD PTR [esi+4], 0
  0003b	c7 46 08 00 00
	00 00		 mov	 DWORD PTR [esi+8], 0
  00042	c7 46 0c 00 00
	00 00		 mov	 DWORD PTR [esi+12], 0
  00049	5e		 pop	 esi
  0004a	83 c4 04	 add	 esp, 4
  0004d	e9 00 00 00 00	 jmp	 ??1CMiniGameBase@@UAE@XZ ; CMiniGameBase::~CMiniGameBase
??1CMiniGameTyping@@UAE@XZ ENDP				; CMiniGameTyping::~CMiniGameTyping
_TEXT	ENDS
PUBLIC	??1__MINIGAME_EXT_PACKET@@QAE@XZ		; __MINIGAME_EXT_PACKET::~__MINIGAME_EXT_PACKET
; Function compile flags: /Ogty
;	COMDAT ??1__MINIGAME_EXT_PACKET@@QAE@XZ
_TEXT	SEGMENT
__Cat$234029 = -4					; size = 1
??1__MINIGAME_EXT_PACKET@@QAE@XZ PROC NEAR		; __MINIGAME_EXT_PACKET::~__MINIGAME_EXT_PACKET, COMDAT
; _this$ = ecx
  00000	51		 push	 ecx
  00001	8b 41 18	 mov	 eax, DWORD PTR [ecx+24]
  00004	85 c0		 test	 eax, eax
  00006	56		 push	 esi
  00007	8d 71 14	 lea	 esi, DWORD PTR [ecx+20]
  0000a	74 1c		 je	 SHORT $L234031
  0000c	8b 4c 24 04	 mov	 ecx, DWORD PTR __Cat$234029[esp+8]
  00010	8b 56 08	 mov	 edx, DWORD PTR [esi+8]
  00013	51		 push	 ecx
  00014	56		 push	 esi
  00015	52		 push	 edx
  00016	50		 push	 eax
  00017	e8 00 00 00 00	 call	 ??$_Destroy_range@V?$basic_string@DU?$char_traits@D@std@@V?$allocator@D@2@@std@@V?$allocator@V?$basic_string@DU?$char_traits@D@std@@V?$allocator@D@2@@std@@@2@@std@@YAXPAV?$basic_string@DU?$char_traits@D@std@@V?$allocator@D@2@@0@0AAV?$allocator@V?$basic_string@DU?$char_traits@D@std@@V?$allocator@D@2@@std@@@0@U_Nonscalar_ptr_iterator_tag@0@@Z ; std::_Destroy_range<std::basic_string<char,std::char_traits<char>,std::allocator<char> >,std::allocator<std::basic_string<char,std::char_traits<char>,std::allocator<char> > > >
  0001c	8b 46 04	 mov	 eax, DWORD PTR [esi+4]
  0001f	50		 push	 eax
  00020	e8 00 00 00 00	 call	 ??3@YAXPAX@Z		; operator delete
  00025	83 c4 14	 add	 esp, 20			; 00000014H
$L234031:
  00028	c7 46 04 00 00
	00 00		 mov	 DWORD PTR [esi+4], 0
  0002f	c7 46 08 00 00
	00 00		 mov	 DWORD PTR [esi+8], 0
  00036	c7 46 0c 00 00
	00 00		 mov	 DWORD PTR [esi+12], 0
  0003d	5e		 pop	 esi
  0003e	59		 pop	 ecx
  0003f	c3		 ret	 0
??1__MINIGAME_EXT_PACKET@@QAE@XZ ENDP			; __MINIGAME_EXT_PACKET::~__MINIGAME_EXT_PACKET
_TEXT	ENDS
PUBLIC	??0__MINIGAME_EXT_PACKET@@QAE@ABU0@@Z		; __MINIGAME_EXT_PACKET::__MINIGAME_EXT_PACKET
; Function compile flags: /Ogty
;	COMDAT ??0__MINIGAME_EXT_PACKET@@QAE@ABU0@@Z
_TEXT	SEGMENT
___that$ = 8						; size = 4
??0__MINIGAME_EXT_PACKET@@QAE@ABU0@@Z PROC NEAR		; __MINIGAME_EXT_PACKET::__MINIGAME_EXT_PACKET, COMDAT
; _this$ = ecx
  00000	8b 44 24 04	 mov	 eax, DWORD PTR ___that$[esp-4]
  00004	56		 push	 esi
  00005	8b f1		 mov	 esi, ecx
  00007	c7 06 00 00 00
	00		 mov	 DWORD PTR [esi], OFFSET FLAT:??_7__MINIGAME_PACKET@@6B@
  0000d	66 8b 48 04	 mov	 cx, WORD PTR [eax+4]
  00011	66 89 4e 04	 mov	 WORD PTR [esi+4], cx
  00015	8b 50 08	 mov	 edx, DWORD PTR [eax+8]
  00018	89 56 08	 mov	 DWORD PTR [esi+8], edx
  0001b	8b 48 0c	 mov	 ecx, DWORD PTR [eax+12]
  0001e	89 4e 0c	 mov	 DWORD PTR [esi+12], ecx
  00021	8b 50 10	 mov	 edx, DWORD PTR [eax+16]
  00024	83 c0 14	 add	 eax, 20			; 00000014H
  00027	50		 push	 eax
  00028	8d 4e 14	 lea	 ecx, DWORD PTR [esi+20]
  0002b	89 56 10	 mov	 DWORD PTR [esi+16], edx
  0002e	c7 06 00 00 00
	00		 mov	 DWORD PTR [esi], OFFSET FLAT:??_7__MINIGAME_EXT_PACKET@@6B@
  00034	e8 00 00 00 00	 call	 ??0?$vector@V?$basic_string@DU?$char_traits@D@std@@V?$allocator@D@2@@std@@V?$allocator@V?$basic_string@DU?$char_traits@D@std@@V?$allocator@D@2@@std@@@2@@std@@QAE@ABV01@@Z ; std::vector<std::basic_string<char,std::char_traits<char>,std::allocator<char> >,std::allocator<std::basic_string<char,std::char_traits<char>,std::allocator<char> > > >::vector<std::basic_string<char,std::char_traits<char>,std::allocator<char> >,std::allocator<std::basic_string<char,std::char_traits<char>,std::allocator<char> > > >
  00039	8b c6		 mov	 eax, esi
  0003b	5e		 pop	 esi
  0003c	c2 04 00	 ret	 4
??0__MINIGAME_EXT_PACKET@@QAE@ABU0@@Z ENDP		; __MINIGAME_EXT_PACKET::__MINIGAME_EXT_PACKET
_TEXT	ENDS
PUBLIC	?push_back@?$vector@V?$basic_string@DU?$char_traits@D@std@@V?$allocator@D@2@@std@@V?$allocator@V?$basic_string@DU?$char_traits@D@std@@V?$allocator@D@2@@std@@@2@@std@@QAEXABV?$basic_string@DU?$char_traits@D@std@@V?$allocator@D@2@@2@@Z ; std::vector<std::basic_string<char,std::char_traits<char>,std::allocator<char> >,std::allocator<std::basic_string<char,std::char_traits<char>,std::allocator<char> > > >::push_back
; Function compile flags: /Ogty
; File c:\program files\microsoft visual studio .net 2003\vc7\include\vector
;	COMDAT ?push_back@?$vector@V?$basic_string@DU?$char_traits@D@std@@V?$allocator@D@2@@std@@V?$allocator@V?$basic_string@DU?$char_traits@D@std@@V?$allocator@D@2@@std@@@2@@std@@QAEXABV?$basic_string@DU?$char_traits@D@std@@V?$allocator@D@2@@2@@Z
_TEXT	SEGMENT
__Cat$234082 = 8					; size = 1
$T234046 = 8						; size = 4
__Val$ = 8						; size = 4
?push_back@?$vector@V?$basic_string@DU?$char_traits@D@std@@V?$allocator@D@2@@std@@V?$allocator@V?$basic_string@DU?$char_traits@D@std@@V?$allocator@D@2@@std@@@2@@std@@QAEXABV?$basic_string@DU?$char_traits@D@std@@V?$allocator@D@2@@2@@Z PROC NEAR ; std::vector<std::basic_string<char,std::char_traits<char>,std::allocator<char> >,std::allocator<std::basic_string<char,std::char_traits<char>,std::allocator<char> > > >::push_back, COMDAT
; _this$ = ecx

; 579  : 		{	// insert element at end

  00000	53		 push	 ebx
  00001	56		 push	 esi
  00002	57		 push	 edi
  00003	8b f9		 mov	 edi, ecx

; 580  : 		if (size() < capacity())

  00005	8b 5f 04	 mov	 ebx, DWORD PTR [edi+4]
  00008	85 db		 test	 ebx, ebx
  0000a	75 04		 jne	 SHORT $L234051
  0000c	33 f6		 xor	 esi, esi
  0000e	eb 18		 jmp	 SHORT $L234052
$L234051:
  00010	8b 4f 08	 mov	 ecx, DWORD PTR [edi+8]
  00013	2b cb		 sub	 ecx, ebx
  00015	b8 93 24 49 92	 mov	 eax, -1840700269	; 92492493H
  0001a	f7 e9		 imul	 ecx
  0001c	03 d1		 add	 edx, ecx
  0001e	c1 fa 04	 sar	 edx, 4
  00021	8b f2		 mov	 esi, edx
  00023	c1 ee 1f	 shr	 esi, 31			; 0000001fH
  00026	03 f2		 add	 esi, edx
$L234052:
  00028	85 db		 test	 ebx, ebx
  0002a	74 41		 je	 SHORT $L226223
  0002c	8b 4f 0c	 mov	 ecx, DWORD PTR [edi+12]
  0002f	2b cb		 sub	 ecx, ebx
  00031	b8 93 24 49 92	 mov	 eax, -1840700269	; 92492493H
  00036	f7 e9		 imul	 ecx
  00038	03 d1		 add	 edx, ecx
  0003a	c1 fa 04	 sar	 edx, 4
  0003d	8b c2		 mov	 eax, edx
  0003f	c1 e8 1f	 shr	 eax, 31			; 0000001fH
  00042	03 c2		 add	 eax, edx
  00044	3b f0		 cmp	 esi, eax
  00046	73 25		 jae	 SHORT $L226223

; 581  : 			_Mylast = _Ufill(_Mylast, 1, _Val);

  00048	8b 44 24 10	 mov	 eax, DWORD PTR __Cat$234082[esp+8]
  0004c	8b 4c 24 10	 mov	 ecx, DWORD PTR __Val$[esp+8]
  00050	8b 77 08	 mov	 esi, DWORD PTR [edi+8]
  00053	50		 push	 eax
  00054	57		 push	 edi
  00055	51		 push	 ecx
  00056	6a 01		 push	 1
  00058	56		 push	 esi
  00059	e8 00 00 00 00	 call	 ??$_Uninit_fill_n@PAV?$basic_string@DU?$char_traits@D@std@@V?$allocator@D@2@@std@@IV12@V?$allocator@V?$basic_string@DU?$char_traits@D@std@@V?$allocator@D@2@@std@@@2@@std@@YAXPAV?$basic_string@DU?$char_traits@D@std@@V?$allocator@D@2@@0@IABV10@AAV?$allocator@V?$basic_string@DU?$char_traits@D@std@@V?$allocator@D@2@@std@@@0@U_Nonscalar_ptr_iterator_tag@0@@Z ; std::_Uninit_fill_n<std::basic_string<char,std::char_traits<char>,std::allocator<char> > *,unsigned int,std::basic_string<char,std::char_traits<char>,std::allocator<char> >,std::allocator<std::basic_string<char,std::char_traits<char>,std::allocator<char> > > >
  0005e	83 c4 14	 add	 esp, 20			; 00000014H
  00061	83 c6 1c	 add	 esi, 28			; 0000001cH
  00064	89 77 08	 mov	 DWORD PTR [edi+8], esi
  00067	5f		 pop	 edi
  00068	5e		 pop	 esi
  00069	5b		 pop	 ebx

; 584  : 		}

  0006a	c2 04 00	 ret	 4
$L226223:

; 582  : 		else
; 583  : 			insert(end(), _Val);

  0006d	8b 54 24 10	 mov	 edx, DWORD PTR __Val$[esp+8]
  00071	8b 47 08	 mov	 eax, DWORD PTR [edi+8]
  00074	52		 push	 edx
  00075	50		 push	 eax
  00076	8d 44 24 18	 lea	 eax, DWORD PTR $T234046[esp+16]
  0007a	50		 push	 eax
  0007b	8b cf		 mov	 ecx, edi
  0007d	e8 00 00 00 00	 call	 ?insert@?$vector@V?$basic_string@DU?$char_traits@D@std@@V?$allocator@D@2@@std@@V?$allocator@V?$basic_string@DU?$char_traits@D@std@@V?$allocator@D@2@@std@@@2@@std@@QAE?AViterator@12@V312@ABV?$basic_string@DU?$char_traits@D@std@@V?$allocator@D@2@@2@@Z ; std::vector<std::basic_string<char,std::char_traits<char>,std::allocator<char> >,std::allocator<std::basic_string<char,std::char_traits<char>,std::allocator<char> > > >::insert
  00082	5f		 pop	 edi
  00083	5e		 pop	 esi
  00084	5b		 pop	 ebx

; 584  : 		}

  00085	c2 04 00	 ret	 4
?push_back@?$vector@V?$basic_string@DU?$char_traits@D@std@@V?$allocator@D@2@@std@@V?$allocator@V?$basic_string@DU?$char_traits@D@std@@V?$allocator@D@2@@std@@@2@@std@@QAEXABV?$basic_string@DU?$char_traits@D@std@@V?$allocator@D@2@@2@@Z ENDP ; std::vector<std::basic_string<char,std::char_traits<char>,std::allocator<char> >,std::allocator<std::basic_string<char,std::char_traits<char>,std::allocator<char> > > >::push_back
_TEXT	ENDS
PUBLIC	??$_Assign@Viterator@?$vector@V?$basic_string@DU?$char_traits@D@std@@V?$allocator@D@2@@std@@V?$allocator@V?$basic_string@DU?$char_traits@D@std@@V?$allocator@D@2@@std@@@2@@std@@@?$vector@V?$basic_string@DU?$char_traits@D@std@@V?$allocator@D@2@@std@@V?$allocator@V?$basic_string@DU?$char_traits@D@std@@V?$allocator@D@2@@std@@@2@@std@@QAEXViterator@01@0Uinput_iterator_tag@1@@Z ; std::vector<std::basic_string<char,std::char_traits<char>,std::allocator<char> >,std::allocator<std::basic_string<char,std::char_traits<char>,std::allocator<char> > > >::_Assign<std::vector<std::basic_string<char,std::char_traits<char>,std::allocator<char> >,std::allocator<std::basic_string<char,std::char_traits<char>,std::allocator<char> > > >::iterator>
; Function compile flags: /Ogty
;	COMDAT ??$_Assign@Viterator@?$vector@V?$basic_string@DU?$char_traits@D@std@@V?$allocator@D@2@@std@@V?$allocator@V?$basic_string@DU?$char_traits@D@std@@V?$allocator@D@2@@std@@@2@@std@@@?$vector@V?$basic_string@DU?$char_traits@D@std@@V?$allocator@D@2@@std@@V?$allocator@V?$basic_string@DU?$char_traits@D@std@@V?$allocator@D@2@@std@@@2@@std@@QAEXViterator@01@0Uinput_iterator_tag@1@@Z
_TEXT	SEGMENT
__First$ = 8						; size = 4
$T234237 = 12						; size = 1
__Cat$234205 = 12					; size = 1
__Cat$234197 = 12					; size = 1
__Last$ = 12						; size = 4
___formal$ = 16						; size = 1
??$_Assign@Viterator@?$vector@V?$basic_string@DU?$char_traits@D@std@@V?$allocator@D@2@@std@@V?$allocator@V?$basic_string@DU?$char_traits@D@std@@V?$allocator@D@2@@std@@@2@@std@@@?$vector@V?$basic_string@DU?$char_traits@D@std@@V?$allocator@D@2@@std@@V?$allocator@V?$basic_string@DU?$char_traits@D@std@@V?$allocator@D@2@@std@@@2@@std@@QAEXViterator@01@0Uinput_iterator_tag@1@@Z PROC NEAR ; std::vector<std::basic_string<char,std::char_traits<char>,std::allocator<char> >,std::allocator<std::basic_string<char,std::char_traits<char>,std::allocator<char> > > >::_Assign<std::vector<std::basic_string<char,std::char_traits<char>,std::allocator<char> >,std::allocator<std::basic_string<char,std::char_traits<char>,std::allocator<char> > > >::iterator>, COMDAT
; _this$ = ecx

; 608  : 		void _Assign(_Iter _First, _Iter _Last, input_iterator_tag)

  00000	56		 push	 esi
  00001	8b f1		 mov	 esi, ecx

; 609  : 		{	// assign [_First, _Last), input iterators
; 610  : 		erase(begin(), end());

  00003	8b 46 08	 mov	 eax, DWORD PTR [esi+8]
  00006	8b 4e 04	 mov	 ecx, DWORD PTR [esi+4]
  00009	3b c8		 cmp	 ecx, eax
  0000b	74 27		 je	 SHORT $L234207
  0000d	8b 54 24 0c	 mov	 edx, DWORD PTR __Cat$234197[esp]
  00011	57		 push	 edi
  00012	52		 push	 edx
  00013	51		 push	 ecx
  00014	50		 push	 eax
  00015	50		 push	 eax
  00016	e8 00 00 00 00	 call	 ??$_Copy_opt@PAV?$basic_string@DU?$char_traits@D@std@@V?$allocator@D@2@@std@@PAV12@@std@@YAPAV?$basic_string@DU?$char_traits@D@std@@V?$allocator@D@2@@0@PAV10@00U_Nonscalar_ptr_iterator_tag@0@@Z ; std::_Copy_opt<std::basic_string<char,std::char_traits<char>,std::allocator<char> > *,std::basic_string<char,std::char_traits<char>,std::allocator<char> > *>
  0001b	8b 4e 08	 mov	 ecx, DWORD PTR [esi+8]
  0001e	8b f8		 mov	 edi, eax
  00020	8b 44 24 20	 mov	 eax, DWORD PTR __Cat$234205[esp+20]
  00024	50		 push	 eax
  00025	56		 push	 esi
  00026	51		 push	 ecx
  00027	57		 push	 edi
  00028	e8 00 00 00 00	 call	 ??$_Destroy_range@V?$basic_string@DU?$char_traits@D@std@@V?$allocator@D@2@@std@@V?$allocator@V?$basic_string@DU?$char_traits@D@std@@V?$allocator@D@2@@std@@@2@@std@@YAXPAV?$basic_string@DU?$char_traits@D@std@@V?$allocator@D@2@@0@0AAV?$allocator@V?$basic_string@DU?$char_traits@D@std@@V?$allocator@D@2@@std@@@0@U_Nonscalar_ptr_iterator_tag@0@@Z ; std::_Destroy_range<std::basic_string<char,std::char_traits<char>,std::allocator<char> >,std::allocator<std::basic_string<char,std::char_traits<char>,std::allocator<char> > > >
  0002d	83 c4 20	 add	 esp, 32			; 00000020H
  00030	89 7e 08	 mov	 DWORD PTR [esi+8], edi
  00033	5f		 pop	 edi
$L234207:

; 611  : 		insert(begin(), _First, _Last);

  00034	8b 54 24 0c	 mov	 edx, DWORD PTR $T234237[esp]
  00038	8b 4c 24 0c	 mov	 ecx, DWORD PTR __Last$[esp]
  0003c	8b 46 04	 mov	 eax, DWORD PTR [esi+4]
  0003f	52		 push	 edx
  00040	8b 54 24 0c	 mov	 edx, DWORD PTR __First$[esp+4]
  00044	51		 push	 ecx
  00045	52		 push	 edx
  00046	50		 push	 eax
  00047	8b ce		 mov	 ecx, esi
  00049	e8 00 00 00 00	 call	 ??$_Insert@Viterator@?$vector@V?$basic_string@DU?$char_traits@D@std@@V?$allocator@D@2@@std@@V?$allocator@V?$basic_string@DU?$char_traits@D@std@@V?$allocator@D@2@@std@@@2@@std@@@?$vector@V?$basic_string@DU?$char_traits@D@std@@V?$allocator@D@2@@std@@V?$allocator@V?$basic_string@DU?$char_traits@D@std@@V?$allocator@D@2@@std@@@2@@std@@QAEXViterator@01@00Uforward_iterator_tag@1@@Z ; std::vector<std::basic_string<char,std::char_traits<char>,std::allocator<char> >,std::allocator<std::basic_string<char,std::char_traits<char>,std::allocator<char> > > >::_Insert<std::vector<std::basic_string<char,std::char_traits<char>,std::allocator<char> >,std::allocator<std::basic_string<char,std::char_traits<char>,std::allocator<char> > > >::iterator>
  0004e	5e		 pop	 esi

; 612  : 		}

  0004f	c2 0c 00	 ret	 12			; 0000000cH
??$_Assign@Viterator@?$vector@V?$basic_string@DU?$char_traits@D@std@@V?$allocator@D@2@@std@@V?$allocator@V?$basic_string@DU?$char_traits@D@std@@V?$allocator@D@2@@std@@@2@@std@@@?$vector@V?$basic_string@DU?$char_traits@D@std@@V?$allocator@D@2@@std@@V?$allocator@V?$basic_string@DU?$char_traits@D@std@@V?$allocator@D@2@@std@@@2@@std@@QAEXViterator@01@0Uinput_iterator_tag@1@@Z ENDP ; std::vector<std::basic_string<char,std::char_traits<char>,std::allocator<char> >,std::allocator<std::basic_string<char,std::char_traits<char>,std::allocator<char> > > >::_Assign<std::vector<std::basic_string<char,std::char_traits<char>,std::allocator<char> >,std::allocator<std::basic_string<char,std::char_traits<char>,std::allocator<char> > > >::iterator>
_TEXT	ENDS
EXTRN	?WriteString@CAr@@QAEXPBD@Z:NEAR		; CAr::WriteString
EXTRN	?ReadString@CAr@@QAEPADPADH@Z:NEAR		; CAr::ReadString
;	COMDAT xdata$x
; File c:\program files\microsoft visual studio .net 2003\vc7\include\iosfwd
xdata$x	SEGMENT
$T234609 DD	0ffffffffH
	DD	FLAT:$L234248
$T234601 DD	019930520H
	DD	01H
	DD	FLAT:$T234609
	DD	2 DUP(00H)
	DD	2 DUP(00H)
; Function compile flags: /Ogty
; File c:\documents and settings\test\mes documents\source\virtuos_v17\build\program\_common\minigamebase.h
xdata$x	ENDS
;	COMDAT ?Serialize@__MINIGAME_EXT_PACKET@@UAEXAAVCAr@@@Z
_TEXT	SEGMENT
tv484 = -312						; size = 4
__Cat$234401 = -312					; size = 1
tv188 = -312						; size = 4
$T234247 = -308						; size = 28
_szTemp$225865 = -280					; size = 256
__$ArrayPad$ = -20					; size = 4
__$EHRec$ = -12						; size = 12
__$ReturnAddr$ = 4					; size = 4
_ar$ = 8						; size = 4
?Serialize@__MINIGAME_EXT_PACKET@@UAEXAAVCAr@@@Z PROC NEAR ; __MINIGAME_EXT_PACKET::Serialize, COMDAT
; _this$ = ecx

; 30   : 	{

  00000	55		 push	 ebp
  00001	8b ec		 mov	 ebp, esp
  00003	83 e4 f8	 and	 esp, -8			; fffffff8H
  00006	6a ff		 push	 -1
  00008	68 00 00 00 00	 push	 __ehhandler$?Serialize@__MINIGAME_EXT_PACKET@@UAEXAAVCAr@@@Z
  0000d	64 a1 00 00 00
	00		 mov	 eax, DWORD PTR fs:__except_list
  00013	50		 push	 eax
  00014	64 89 25 00 00
	00 00		 mov	 DWORD PTR fs:__except_list, esp
  0001b	81 ec 30 01 00
	00		 sub	 esp, 304		; 00000130H
  00021	a1 00 00 00 00	 mov	 eax, DWORD PTR ___security_cookie
  00026	53		 push	 ebx
  00027	8b 5d 08	 mov	 ebx, DWORD PTR _ar$[ebp]
  0002a	56		 push	 esi
  0002b	57		 push	 edi
  0002c	33 c5		 xor	 eax, ebp

; 31   : 		__MINIGAME_PACKET::Serialize( ar );

  0002e	53		 push	 ebx
  0002f	89 84 24 38 01
	00 00		 mov	 DWORD PTR __$ArrayPad$[esp+332], eax
  00036	8b f1		 mov	 esi, ecx
  00038	e8 00 00 00 00	 call	 ?Serialize@__MINIGAME_PACKET@@UAEXAAVCAr@@@Z ; __MINIGAME_PACKET::Serialize

; 32   : 		if( ar.IsStoring() )

  0003d	33 c0		 xor	 eax, eax
  0003f	8a 03		 mov	 al, BYTE PTR [ebx]
  00041	f7 d0		 not	 eax
  00043	a8 01		 test	 al, 1
  00045	0f 84 a0 00 00
	00		 je	 $L225854

; 33   : 		{
; 34   : 			ar << vecszData.size();

  0004b	8b 46 18	 mov	 eax, DWORD PTR [esi+24]
  0004e	85 c0		 test	 eax, eax
  00050	75 04		 jne	 SHORT $L234256
  00052	33 ff		 xor	 edi, edi
  00054	eb 18		 jmp	 SHORT $L234257
$L234256:
  00056	8b 4e 1c	 mov	 ecx, DWORD PTR [esi+28]
  00059	2b c8		 sub	 ecx, eax
  0005b	b8 93 24 49 92	 mov	 eax, -1840700269	; 92492493H
  00060	f7 e9		 imul	 ecx
  00062	03 d1		 add	 edx, ecx
  00064	c1 fa 04	 sar	 edx, 4
  00067	8b fa		 mov	 edi, edx
  00069	c1 ef 1f	 shr	 edi, 31			; 0000001fH
  0006c	03 fa		 add	 edi, edx
$L234257:
  0006e	6a 04		 push	 4
  00070	8b cb		 mov	 ecx, ebx
  00072	e8 00 00 00 00	 call	 ?CheckBuf@CAr@@QAEXI@Z	; CAr::CheckBuf
  00077	8b 4b 08	 mov	 ecx, DWORD PTR [ebx+8]
  0007a	89 39		 mov	 DWORD PTR [ecx], edi
  0007c	8b 43 08	 mov	 eax, DWORD PTR [ebx+8]
  0007f	83 c0 04	 add	 eax, 4

; 35   : 			for( DWORD i=0; i<vecszData.size(); i++ )

  00082	33 ff		 xor	 edi, edi
  00084	89 43 08	 mov	 DWORD PTR [ebx+8], eax
  00087	89 7c 24 10	 mov	 DWORD PTR tv484[esp+328], edi
  0008b	eb 03 8d 49 00	 npad	 5
$L225856:
  00090	8b 46 18	 mov	 eax, DWORD PTR [esi+24]
  00093	85 c0		 test	 eax, eax
  00095	0f 84 50 01 00
	00		 je	 $L225864
  0009b	8b 4e 1c	 mov	 ecx, DWORD PTR [esi+28]
  0009e	2b c8		 sub	 ecx, eax
  000a0	b8 93 24 49 92	 mov	 eax, -1840700269	; 92492493H
  000a5	f7 e9		 imul	 ecx
  000a7	03 d1		 add	 edx, ecx
  000a9	c1 fa 04	 sar	 edx, 4
  000ac	8b c2		 mov	 eax, edx
  000ae	c1 e8 1f	 shr	 eax, 31			; 0000001fH
  000b1	03 c2		 add	 eax, edx
  000b3	3b f8		 cmp	 edi, eax
  000b5	0f 83 30 01 00
	00		 jae	 $L225864

; 36   : 				ar.WriteString( vecszData[i].c_str() );

  000bb	8b 46 18	 mov	 eax, DWORD PTR [esi+24]
  000be	8b 54 24 10	 mov	 edx, DWORD PTR tv484[esp+328]
  000c2	8b 4c 10 18	 mov	 ecx, DWORD PTR [eax+edx+24]
  000c6	03 c2		 add	 eax, edx
  000c8	83 f9 10	 cmp	 ecx, 16			; 00000010H
  000cb	72 05		 jb	 SHORT $L234343
  000cd	8b 40 04	 mov	 eax, DWORD PTR [eax+4]
  000d0	eb 03		 jmp	 SHORT $L234344
$L234343:
  000d2	83 c0 04	 add	 eax, 4
$L234344:
  000d5	50		 push	 eax
  000d6	8b cb		 mov	 ecx, ebx
  000d8	e8 00 00 00 00	 call	 ?WriteString@CAr@@QAEXPBD@Z ; CAr::WriteString
  000dd	8b 44 24 10	 mov	 eax, DWORD PTR tv484[esp+328]
  000e1	47		 inc	 edi
  000e2	83 c0 1c	 add	 eax, 28			; 0000001cH
  000e5	89 44 24 10	 mov	 DWORD PTR tv484[esp+328], eax
  000e9	eb a5		 jmp	 SHORT $L225856
$L225854:

; 37   : 		}
; 38   : 		else
; 39   : 		{
; 40   : 			int nSize = 0; vecszData.clear();

  000eb	8b 46 18	 mov	 eax, DWORD PTR [esi+24]
  000ee	83 c6 14	 add	 esi, 20			; 00000014H
  000f1	33 ff		 xor	 edi, edi
  000f3	3b c7		 cmp	 eax, edi
  000f5	74 1c		 je	 SHORT $L234403
  000f7	8b 54 24 10	 mov	 edx, DWORD PTR __Cat$234401[esp+328]
  000fb	8b 4e 08	 mov	 ecx, DWORD PTR [esi+8]
  000fe	52		 push	 edx
  000ff	56		 push	 esi
  00100	51		 push	 ecx
  00101	50		 push	 eax
  00102	e8 00 00 00 00	 call	 ??$_Destroy_range@V?$basic_string@DU?$char_traits@D@std@@V?$allocator@D@2@@std@@V?$allocator@V?$basic_string@DU?$char_traits@D@std@@V?$allocator@D@2@@std@@@2@@std@@YAXPAV?$basic_string@DU?$char_traits@D@std@@V?$allocator@D@2@@0@0AAV?$allocator@V?$basic_string@DU?$char_traits@D@std@@V?$allocator@D@2@@std@@@0@U_Nonscalar_ptr_iterator_tag@0@@Z ; std::_Destroy_range<std::basic_string<char,std::char_traits<char>,std::allocator<char> >,std::allocator<std::basic_string<char,std::char_traits<char>,std::allocator<char> > > >
  00107	8b 46 04	 mov	 eax, DWORD PTR [esi+4]
  0010a	50		 push	 eax
  0010b	e8 00 00 00 00	 call	 ??3@YAXPAX@Z		; operator delete
  00110	83 c4 14	 add	 esp, 20			; 00000014H
$L234403:
  00113	89 7e 04	 mov	 DWORD PTR [esi+4], edi
  00116	89 7e 08	 mov	 DWORD PTR [esi+8], edi
  00119	89 7e 0c	 mov	 DWORD PTR [esi+12], edi

; 41   : 			ar >> nSize;

  0011c	8b 43 08	 mov	 eax, DWORD PTR [ebx+8]
  0011f	8b 53 0c	 mov	 edx, DWORD PTR [ebx+12]
  00122	8d 48 04	 lea	 ecx, DWORD PTR [eax+4]
  00125	3b ca		 cmp	 ecx, edx
  00127	77 07		 ja	 SHORT $L234416
  00129	8b 00		 mov	 eax, DWORD PTR [eax]
  0012b	89 4b 08	 mov	 DWORD PTR [ebx+8], ecx
  0012e	eb 05		 jmp	 SHORT $L234417
$L234416:
  00130	33 c0		 xor	 eax, eax
  00132	89 53 08	 mov	 DWORD PTR [ebx+8], edx
$L234417:

; 42   : 			for( int i=0; i<nSize; i++ )

  00135	3b c7		 cmp	 eax, edi
  00137	0f 8e ae 00 00
	00		 jle	 $L225864
  0013d	89 44 24 10	 mov	 DWORD PTR tv188[esp+328], eax
$L225862:

; 43   : 			{
; 44   : 				char szTemp[256] = {0,};

  00141	33 c0		 xor	 eax, eax
  00143	c6 44 24 30 00	 mov	 BYTE PTR _szTemp$225865[esp+328], 0
  00148	b9 3f 00 00 00	 mov	 ecx, 63			; 0000003fH
  0014d	8d 7c 24 31	 lea	 edi, DWORD PTR _szTemp$225865[esp+329]
  00151	f3 ab		 rep stosd
  00153	66 ab		 stosw
  00155	aa		 stosb

; 45   : 				ar.ReadString( szTemp, 256 );

  00156	68 00 01 00 00	 push	 256			; 00000100H
  0015b	8d 44 24 34	 lea	 eax, DWORD PTR _szTemp$225865[esp+332]
  0015f	50		 push	 eax
  00160	8b cb		 mov	 ecx, ebx
  00162	e8 00 00 00 00	 call	 ?ReadString@CAr@@QAEPADPADH@Z ; CAr::ReadString

; 46   : 				vecszData.push_back( szTemp );

  00167	33 ff		 xor	 edi, edi
  00169	8d 44 24 30	 lea	 eax, DWORD PTR _szTemp$225865[esp+328]
  0016d	c7 44 24 2c 0f
	00 00 00	 mov	 DWORD PTR $T234247[esp+352], 15 ; 0000000fH
  00175	89 7c 24 28	 mov	 DWORD PTR $T234247[esp+348], edi
  00179	c6 44 24 18 00	 mov	 BYTE PTR $T234247[esp+332], 0
  0017e	8d 50 01	 lea	 edx, DWORD PTR [eax+1]
$L234606:
  00181	8a 08		 mov	 cl, BYTE PTR [eax]
  00183	40		 inc	 eax
  00184	84 c9		 test	 cl, cl
  00186	75 f9		 jne	 SHORT $L234606
  00188	2b c2		 sub	 eax, edx
  0018a	50		 push	 eax
  0018b	8d 4c 24 34	 lea	 ecx, DWORD PTR _szTemp$225865[esp+332]
  0018f	51		 push	 ecx
  00190	8d 4c 24 1c	 lea	 ecx, DWORD PTR $T234247[esp+336]
  00194	e8 00 00 00 00	 call	 ?assign@?$basic_string@DU?$char_traits@D@std@@V?$allocator@D@2@@std@@QAEAAV12@PBDI@Z ; std::basic_string<char,std::char_traits<char>,std::allocator<char> >::assign
  00199	8d 54 24 14	 lea	 edx, DWORD PTR $T234247[esp+328]
  0019d	52		 push	 edx
  0019e	8b ce		 mov	 ecx, esi
  001a0	89 bc 24 48 01
	00 00		 mov	 DWORD PTR __$EHRec$[esp+340], edi
  001a7	e8 00 00 00 00	 call	 ?push_back@?$vector@V?$basic_string@DU?$char_traits@D@std@@V?$allocator@D@2@@std@@V?$allocator@V?$basic_string@DU?$char_traits@D@std@@V?$allocator@D@2@@std@@@2@@std@@QAEXABV?$basic_string@DU?$char_traits@D@std@@V?$allocator@D@2@@2@@Z ; std::vector<std::basic_string<char,std::char_traits<char>,std::allocator<char> >,std::allocator<std::basic_string<char,std::char_traits<char>,std::allocator<char> > > >::push_back
  001ac	83 7c 24 2c 10	 cmp	 DWORD PTR $T234247[esp+352], 16 ; 00000010H
  001b1	c7 84 24 44 01
	00 00 ff ff ff
	ff		 mov	 DWORD PTR __$EHRec$[esp+336], -1
  001bc	72 0d		 jb	 SHORT $L234581
  001be	8b 44 24 18	 mov	 eax, DWORD PTR $T234247[esp+332]
  001c2	50		 push	 eax
  001c3	e8 00 00 00 00	 call	 ??3@YAXPAX@Z		; operator delete
  001c8	83 c4 04	 add	 esp, 4
$L234581:
  001cb	8b 44 24 10	 mov	 eax, DWORD PTR tv188[esp+328]
  001cf	48		 dec	 eax
  001d0	c7 44 24 2c 0f
	00 00 00	 mov	 DWORD PTR $T234247[esp+352], 15 ; 0000000fH
  001d8	89 7c 24 28	 mov	 DWORD PTR $T234247[esp+348], edi
  001dc	c6 44 24 18 00	 mov	 BYTE PTR $T234247[esp+332], 0
  001e1	89 44 24 10	 mov	 DWORD PTR tv188[esp+328], eax
  001e5	0f 85 56 ff ff
	ff		 jne	 $L225862
$L225864:

; 47   : 			}
; 48   : 		}
; 49   : 	}

  001eb	8b 8c 24 3c 01
	00 00		 mov	 ecx, DWORD PTR __$EHRec$[esp+328]
  001f2	64 89 0d 00 00
	00 00		 mov	 DWORD PTR fs:__except_list, ecx
  001f9	8b 8c 24 34 01
	00 00		 mov	 ecx, DWORD PTR __$ArrayPad$[esp+328]
  00200	5f		 pop	 edi
  00201	5e		 pop	 esi
  00202	33 cd		 xor	 ecx, ebp
  00204	5b		 pop	 ebx
  00205	e8 00 00 00 00	 call	 @__security_check_cookie@4
  0020a	8b e5		 mov	 esp, ebp
  0020c	5d		 pop	 ebp
  0020d	c2 04 00	 ret	 4
_TEXT	ENDS
;	COMDAT text$x
text$x	SEGMENT
$L234248:
  00000	8d 8d cc fe ff
	ff		 lea	 ecx, DWORD PTR $T234247[ebp]
  00006	e9 00 00 00 00	 jmp	 ??1?$basic_string@DU?$char_traits@D@std@@V?$allocator@D@2@@std@@QAE@XZ ; std::basic_string<char,std::char_traits<char>,std::allocator<char> >::~basic_string<char,std::char_traits<char>,std::allocator<char> >
__ehhandler$?Serialize@__MINIGAME_EXT_PACKET@@UAEXAAVCAr@@@Z:
  0000b	b8 00 00 00 00	 mov	 eax, OFFSET FLAT:$T234601
  00010	e9 00 00 00 00	 jmp	 ___CxxFrameHandler
text$x	ENDS
?Serialize@__MINIGAME_EXT_PACKET@@UAEXAAVCAr@@@Z ENDP	; __MINIGAME_EXT_PACKET::Serialize
; Function compile flags: /Ogty
;	COMDAT ??_GCMiniGameTyping@@UAEPAXI@Z
_TEXT	SEGMENT
___flags$ = 8						; size = 4
??_GCMiniGameTyping@@UAEPAXI@Z PROC NEAR		; CMiniGameTyping::`scalar deleting destructor', COMDAT
; _this$ = ecx
  00000	56		 push	 esi
  00001	8b f1		 mov	 esi, ecx
  00003	e8 00 00 00 00	 call	 ??1CMiniGameTyping@@UAE@XZ ; CMiniGameTyping::~CMiniGameTyping
  00008	f6 44 24 08 01	 test	 BYTE PTR ___flags$[esp], 1
  0000d	74 09		 je	 SHORT $L234614
  0000f	56		 push	 esi
  00010	e8 00 00 00 00	 call	 ??3@YAXPAX@Z		; operator delete
  00015	83 c4 04	 add	 esp, 4
$L234614:
  00018	8b c6		 mov	 eax, esi
  0001a	5e		 pop	 esi
  0001b	c2 04 00	 ret	 4
??_GCMiniGameTyping@@UAEPAXI@Z ENDP			; CMiniGameTyping::`scalar deleting destructor'
_TEXT	ENDS
PUBLIC	?MakeQuestion@CMiniGameTyping@@AAEXXZ		; CMiniGameTyping::MakeQuestion
EXTRN	?xRandom@@YAKKK@Z:NEAR				; xRandom
;	COMDAT xdata$x
; File c:\program files\microsoft visual studio .net 2003\vc7\include\iosfwd
xdata$x	SEGMENT
$T234879 DD	0ffffffffH
	DD	FLAT:$L234619
$T234870 DD	019930520H
	DD	01H
	DD	FLAT:$T234879
	DD	2 DUP(00H)
	DD	2 DUP(00H)
; Function compile flags: /Ogty
; File c:\documents and settings\test\mes documents\source\virtuos_v17\build\program\worldserver\minigametyping.cpp
xdata$x	ENDS
;	COMDAT ?MakeQuestion@CMiniGameTyping@@AAEXXZ
_TEXT	SEGMENT
$T234786 = -60						; size = 1
__Cat$234675 = -60					; size = 1
tv151 = -56						; size = 4
$T234790 = -52						; size = 1
$T234794 = -48						; size = 1
_strTemp$226099 = -44					; size = 28
__$ArrayPad$ = -16					; size = 4
__$EHRec$ = -12						; size = 12
__$ReturnAddr$ = 4					; size = 4
?MakeQuestion@CMiniGameTyping@@AAEXXZ PROC NEAR		; CMiniGameTyping::MakeQuestion, COMDAT
; _this$ = ecx

; 52   : {

  00000	6a ff		 push	 -1
  00002	68 00 00 00 00	 push	 __ehhandler$?MakeQuestion@CMiniGameTyping@@AAEXXZ
  00007	64 a1 00 00 00
	00		 mov	 eax, DWORD PTR fs:__except_list
  0000d	50		 push	 eax
  0000e	64 89 25 00 00
	00 00		 mov	 DWORD PTR fs:__except_list, esp
  00015	83 ec 30	 sub	 esp, 48			; 00000030H
  00018	a1 00 00 00 00	 mov	 eax, DWORD PTR ___security_cookie
  0001d	33 c4		 xor	 eax, esp
  0001f	53		 push	 ebx
  00020	55		 push	 ebp
  00021	56		 push	 esi

; 53   : 	m_vecTyping.clear();

  00022	8d 71 04	 lea	 esi, DWORD PTR [ecx+4]
  00025	89 44 24 38	 mov	 DWORD PTR __$ArrayPad$[esp+72], eax
  00029	8b 46 04	 mov	 eax, DWORD PTR [esi+4]
  0002c	33 db		 xor	 ebx, ebx
  0002e	3b c3		 cmp	 eax, ebx
  00030	57		 push	 edi
  00031	74 1c		 je	 SHORT $L234677
  00033	8b 54 24 10	 mov	 edx, DWORD PTR __Cat$234675[esp+76]
  00037	8b 4e 08	 mov	 ecx, DWORD PTR [esi+8]
  0003a	52		 push	 edx
  0003b	56		 push	 esi
  0003c	51		 push	 ecx
  0003d	50		 push	 eax
  0003e	e8 00 00 00 00	 call	 ??$_Destroy_range@V?$basic_string@DU?$char_traits@D@std@@V?$allocator@D@2@@std@@V?$allocator@V?$basic_string@DU?$char_traits@D@std@@V?$allocator@D@2@@std@@@2@@std@@YAXPAV?$basic_string@DU?$char_traits@D@std@@V?$allocator@D@2@@0@0AAV?$allocator@V?$basic_string@DU?$char_traits@D@std@@V?$allocator@D@2@@std@@@0@U_Nonscalar_ptr_iterator_tag@0@@Z ; std::_Destroy_range<std::basic_string<char,std::char_traits<char>,std::allocator<char> >,std::allocator<std::basic_string<char,std::char_traits<char>,std::allocator<char> > > >
  00043	8b 46 04	 mov	 eax, DWORD PTR [esi+4]
  00046	50		 push	 eax
  00047	e8 00 00 00 00	 call	 ??3@YAXPAX@Z		; operator delete
  0004c	83 c4 14	 add	 esp, 20			; 00000014H
$L234677:
  0004f	89 5e 04	 mov	 DWORD PTR [esi+4], ebx
  00052	89 5e 08	 mov	 DWORD PTR [esi+8], ebx
  00055	89 5e 0c	 mov	 DWORD PTR [esi+12], ebx
  00058	c7 44 24 14 03
	00 00 00	 mov	 DWORD PTR tv151[esp+76], 3
  00060	bd 0f 00 00 00	 mov	 ebp, 15			; 0000000fH
  00065	eb 09 8d a4 24
	00 00 00 00 8b
	ff		 npad	 11
$L226096:

; 54   : 	for( int i=0; i<3; i++ )
; 55   : 	{
; 56   : 		string strTemp;

  00070	89 6c 24 38	 mov	 DWORD PTR _strTemp$226099[esp+100], ebp
  00074	89 5c 24 34	 mov	 DWORD PTR _strTemp$226099[esp+96], ebx
  00078	88 5c 24 24	 mov	 BYTE PTR _strTemp$226099[esp+80], bl
  0007c	89 5c 24 48	 mov	 DWORD PTR __$EHRec$[esp+84], ebx
  00080	bf 14 00 00 00	 mov	 edi, 20			; 00000014H
  00085	eb 09 8d a4 24
	00 00 00 00 8b
	ff		 npad	 11
$L226101:

; 58   : 		{
; 59   : 			switch( xRandom( 3 ) )

  00090	a1 00 00 00 00	 mov	 eax, DWORD PTR ?g_next@@3KA ; g_next
  00095	69 c0 6d 4e c6
	41		 imul	 eax, 1103515245		; 41c64e6dH
  0009b	05 39 30 00 00	 add	 eax, 12345		; 00003039H
  000a0	33 d2		 xor	 edx, edx
  000a2	b9 03 00 00 00	 mov	 ecx, 3
  000a7	a3 00 00 00 00	 mov	 DWORD PTR ?g_next@@3KA, eax ; g_next
  000ac	f7 f1		 div	 ecx
  000ae	2b d3		 sub	 edx, ebx
  000b0	74 34		 je	 SHORT $L226108
  000b2	4a		 dec	 edx
  000b3	74 1a		 je	 SHORT $L226110
  000b5	4a		 dec	 edx
  000b6	75 4e		 jne	 SHORT $L226102

; 63   : 				case 2:	strTemp += static_cast<char>( xRandom( 110, 123 ) );	break;	//   n ~ z

  000b8	6a 7b		 push	 123			; 0000007bH
  000ba	6a 6e		 push	 110			; 0000006eH
  000bc	e8 00 00 00 00	 call	 ?xRandom@@YAKKK@Z	; xRandom
  000c1	88 44 24 24	 mov	 BYTE PTR $T234794[esp+84], al
  000c5	8b 54 24 24	 mov	 edx, DWORD PTR $T234794[esp+84]
  000c9	83 c4 08	 add	 esp, 8
  000cc	52		 push	 edx
  000cd	eb 2c		 jmp	 SHORT $L234878
$L226110:

; 62   : 				case 1:	strTemp += static_cast<char>( xRandom( 97, 110 ) );	break;	//   a ~ m

  000cf	6a 6e		 push	 110			; 0000006eH
  000d1	6a 61		 push	 97			; 00000061H
  000d3	e8 00 00 00 00	 call	 ?xRandom@@YAKKK@Z	; xRandom
  000d8	88 44 24 20	 mov	 BYTE PTR $T234790[esp+84], al
  000dc	8b 44 24 20	 mov	 eax, DWORD PTR $T234790[esp+84]
  000e0	83 c4 08	 add	 esp, 8
  000e3	50		 push	 eax
  000e4	eb 15		 jmp	 SHORT $L234878
$L226108:

; 60   : 			{
; 61   : 				case 0:	strTemp += static_cast<char>( xRandom( 48, 58 ) );	break;	//  0 ~ 9

  000e6	6a 3a		 push	 58			; 0000003aH
  000e8	6a 30		 push	 48			; 00000030H
  000ea	e8 00 00 00 00	 call	 ?xRandom@@YAKKK@Z	; xRandom
  000ef	88 44 24 18	 mov	 BYTE PTR $T234786[esp+84], al
  000f3	8b 4c 24 18	 mov	 ecx, DWORD PTR $T234786[esp+84]
  000f7	83 c4 08	 add	 esp, 8
  000fa	51		 push	 ecx
$L234878:
  000fb	8d 4c 24 24	 lea	 ecx, DWORD PTR _strTemp$226099[esp+80]
  000ff	6a 01		 push	 1
  00101	e8 00 00 00 00	 call	 ?append@?$basic_string@DU?$char_traits@D@std@@V?$allocator@D@2@@std@@QAEAAV12@ID@Z ; std::basic_string<char,std::char_traits<char>,std::allocator<char> >::append
$L226102:

; 57   : 		for( int j=0; j<20; j++ )

  00106	4f		 dec	 edi
  00107	75 87		 jne	 SHORT $L226101

; 64   : 				//case 2:	strTemp += static_cast<char>( xRandom( 65, 91 ) );	break;	//  
; 65   : 			}
; 66   : 		}
; 67   : 		m_vecTyping.push_back( strTemp );

  00109	8d 54 24 20	 lea	 edx, DWORD PTR _strTemp$226099[esp+76]
  0010d	52		 push	 edx
  0010e	8b ce		 mov	 ecx, esi
  00110	e8 00 00 00 00	 call	 ?push_back@?$vector@V?$basic_string@DU?$char_traits@D@std@@V?$allocator@D@2@@std@@V?$allocator@V?$basic_string@DU?$char_traits@D@std@@V?$allocator@D@2@@std@@@2@@std@@QAEXABV?$basic_string@DU?$char_traits@D@std@@V?$allocator@D@2@@2@@Z ; std::vector<std::basic_string<char,std::char_traits<char>,std::allocator<char> >,std::allocator<std::basic_string<char,std::char_traits<char>,std::allocator<char> > > >::push_back

; 68   : 	}

  00115	83 7c 24 38 10	 cmp	 DWORD PTR _strTemp$226099[esp+100], 16 ; 00000010H
  0011a	c7 44 24 48 ff
	ff ff ff	 mov	 DWORD PTR __$EHRec$[esp+84], -1
  00122	72 0d		 jb	 SHORT $L234850
  00124	8b 44 24 24	 mov	 eax, DWORD PTR _strTemp$226099[esp+80]
  00128	50		 push	 eax
  00129	e8 00 00 00 00	 call	 ??3@YAXPAX@Z		; operator delete
  0012e	83 c4 04	 add	 esp, 4
$L234850:
  00131	8b 44 24 14	 mov	 eax, DWORD PTR tv151[esp+76]
  00135	48		 dec	 eax
  00136	89 6c 24 38	 mov	 DWORD PTR _strTemp$226099[esp+100], ebp
  0013a	89 5c 24 34	 mov	 DWORD PTR _strTemp$226099[esp+96], ebx
  0013e	88 5c 24 24	 mov	 BYTE PTR _strTemp$226099[esp+80], bl
  00142	89 44 24 14	 mov	 DWORD PTR tv151[esp+76], eax
  00146	0f 85 24 ff ff
	ff		 jne	 $L226096

; 69   : }

  0014c	8b 4c 24 40	 mov	 ecx, DWORD PTR __$EHRec$[esp+76]
  00150	5f		 pop	 edi
  00151	5e		 pop	 esi
  00152	5d		 pop	 ebp
  00153	64 89 0d 00 00
	00 00		 mov	 DWORD PTR fs:__except_list, ecx
  0015a	8b 4c 24 30	 mov	 ecx, DWORD PTR __$ArrayPad$[esp+64]
  0015e	5b		 pop	 ebx
  0015f	33 cc		 xor	 ecx, esp
  00161	e8 00 00 00 00	 call	 @__security_check_cookie@4
  00166	83 c4 3c	 add	 esp, 60			; 0000003cH
  00169	c3		 ret	 0
_TEXT	ENDS
;	COMDAT text$x
text$x	SEGMENT
$L234619:
  00000	8d 4d d4	 lea	 ecx, DWORD PTR _strTemp$226099[ebp]
  00003	e9 00 00 00 00	 jmp	 ??1?$basic_string@DU?$char_traits@D@std@@V?$allocator@D@2@@std@@QAE@XZ ; std::basic_string<char,std::char_traits<char>,std::allocator<char> >::~basic_string<char,std::char_traits<char>,std::allocator<char> >
__ehhandler$?MakeQuestion@CMiniGameTyping@@AAEXXZ:
  00008	b8 00 00 00 00	 mov	 eax, OFFSET FLAT:$T234870
  0000d	e9 00 00 00 00	 jmp	 ___CxxFrameHandler
text$x	ENDS
?MakeQuestion@CMiniGameTyping@@AAEXXZ ENDP		; CMiniGameTyping::MakeQuestion
PUBLIC	??$assign@Viterator@?$vector@V?$basic_string@DU?$char_traits@D@std@@V?$allocator@D@2@@std@@V?$allocator@V?$basic_string@DU?$char_traits@D@std@@V?$allocator@D@2@@std@@@2@@std@@@?$vector@V?$basic_string@DU?$char_traits@D@std@@V?$allocator@D@2@@std@@V?$allocator@V?$basic_string@DU?$char_traits@D@std@@V?$allocator@D@2@@std@@@2@@std@@QAEXViterator@01@0@Z ; std::vector<std::basic_string<char,std::char_traits<char>,std::allocator<char> >,std::allocator<std::basic_string<char,std::char_traits<char>,std::allocator<char> > > >::assign<std::vector<std::basic_string<char,std::char_traits<char>,std::allocator<char> >,std::allocator<std::basic_string<char,std::char_traits<char>,std::allocator<char> > > >::iterator>
; Function compile flags: /Ogty
; File c:\program files\microsoft visual studio .net 2003\vc7\include\vector
;	COMDAT ??$assign@Viterator@?$vector@V?$basic_string@DU?$char_traits@D@std@@V?$allocator@D@2@@std@@V?$allocator@V?$basic_string@DU?$char_traits@D@std@@V?$allocator@D@2@@std@@@2@@std@@@?$vector@V?$basic_string@DU?$char_traits@D@std@@V?$allocator@D@2@@std@@V?$allocator@V?$basic_string@DU?$char_traits@D@std@@V?$allocator@D@2@@std@@@2@@std@@QAEXViterator@01@0@Z
_TEXT	SEGMENT
__First$ = 8						; size = 4
__Cat$235066 = 12					; size = 1
__Cat$235059 = 12					; size = 1
$T235080 = 12						; size = 1
__Last$ = 12						; size = 4
??$assign@Viterator@?$vector@V?$basic_string@DU?$char_traits@D@std@@V?$allocator@D@2@@std@@V?$allocator@V?$basic_string@DU?$char_traits@D@std@@V?$allocator@D@2@@std@@@2@@std@@@?$vector@V?$basic_string@DU?$char_traits@D@std@@V?$allocator@D@2@@std@@V?$allocator@V?$basic_string@DU?$char_traits@D@std@@V?$allocator@D@2@@std@@@2@@std@@QAEXViterator@01@0@Z PROC NEAR ; std::vector<std::basic_string<char,std::char_traits<char>,std::allocator<char> >,std::allocator<std::basic_string<char,std::char_traits<char>,std::allocator<char> > > >::assign<std::vector<std::basic_string<char,std::char_traits<char>,std::allocator<char> >,std::allocator<std::basic_string<char,std::char_traits<char>,std::allocator<char> > > >::iterator>, COMDAT
; _this$ = ecx

; 596  : 		void assign(_Iter _First, _Iter _Last)

  00000	56		 push	 esi
  00001	8b f1		 mov	 esi, ecx

; 597  : 		{	// assign [_First, _Last)
; 598  : 		_Assign(_First, _Last, _Iter_cat(_First));

  00003	8b 46 08	 mov	 eax, DWORD PTR [esi+8]
  00006	8b 4e 04	 mov	 ecx, DWORD PTR [esi+4]
  00009	3b c8		 cmp	 ecx, eax
  0000b	74 27		 je	 SHORT $L235069
  0000d	8b 54 24 0c	 mov	 edx, DWORD PTR __Cat$235059[esp]
  00011	57		 push	 edi
  00012	52		 push	 edx
  00013	51		 push	 ecx
  00014	50		 push	 eax
  00015	50		 push	 eax
  00016	e8 00 00 00 00	 call	 ??$_Copy_opt@PAV?$basic_string@DU?$char_traits@D@std@@V?$allocator@D@2@@std@@PAV12@@std@@YAPAV?$basic_string@DU?$char_traits@D@std@@V?$allocator@D@2@@0@PAV10@00U_Nonscalar_ptr_iterator_tag@0@@Z ; std::_Copy_opt<std::basic_string<char,std::char_traits<char>,std::allocator<char> > *,std::basic_string<char,std::char_traits<char>,std::allocator<char> > *>
  0001b	8b 4e 08	 mov	 ecx, DWORD PTR [esi+8]
  0001e	8b f8		 mov	 edi, eax
  00020	8b 44 24 20	 mov	 eax, DWORD PTR __Cat$235066[esp+20]
  00024	50		 push	 eax
  00025	56		 push	 esi
  00026	51		 push	 ecx
  00027	57		 push	 edi
  00028	e8 00 00 00 00	 call	 ??$_Destroy_range@V?$basic_string@DU?$char_traits@D@std@@V?$allocator@D@2@@std@@V?$allocator@V?$basic_string@DU?$char_traits@D@std@@V?$allocator@D@2@@std@@@2@@std@@YAXPAV?$basic_string@DU?$char_traits@D@std@@V?$allocator@D@2@@0@0AAV?$allocator@V?$basic_string@DU?$char_traits@D@std@@V?$allocator@D@2@@std@@@0@U_Nonscalar_ptr_iterator_tag@0@@Z ; std::_Destroy_range<std::basic_string<char,std::char_traits<char>,std::allocator<char> >,std::allocator<std::basic_string<char,std::char_traits<char>,std::allocator<char> > > >
  0002d	83 c4 20	 add	 esp, 32			; 00000020H
  00030	89 7e 08	 mov	 DWORD PTR [esi+8], edi
  00033	5f		 pop	 edi
$L235069:
  00034	8b 54 24 0c	 mov	 edx, DWORD PTR $T235080[esp]
  00038	8b 4c 24 0c	 mov	 ecx, DWORD PTR __Last$[esp]
  0003c	8b 46 04	 mov	 eax, DWORD PTR [esi+4]
  0003f	52		 push	 edx
  00040	8b 54 24 0c	 mov	 edx, DWORD PTR __First$[esp+4]
  00044	51		 push	 ecx
  00045	52		 push	 edx
  00046	50		 push	 eax
  00047	8b ce		 mov	 ecx, esi
  00049	e8 00 00 00 00	 call	 ??$_Insert@Viterator@?$vector@V?$basic_string@DU?$char_traits@D@std@@V?$allocator@D@2@@std@@V?$allocator@V?$basic_string@DU?$char_traits@D@std@@V?$allocator@D@2@@std@@@2@@std@@@?$vector@V?$basic_string@DU?$char_traits@D@std@@V?$allocator@D@2@@std@@V?$allocator@V?$basic_string@DU?$char_traits@D@std@@V?$allocator@D@2@@std@@@2@@std@@QAEXViterator@01@00Uforward_iterator_tag@1@@Z ; std::vector<std::basic_string<char,std::char_traits<char>,std::allocator<char> >,std::allocator<std::basic_string<char,std::char_traits<char>,std::allocator<char> > > >::_Insert<std::vector<std::basic_string<char,std::char_traits<char>,std::allocator<char> >,std::allocator<std::basic_string<char,std::char_traits<char>,std::allocator<char> > > >::iterator>
  0004e	5e		 pop	 esi

; 599  : 		}

  0004f	c2 08 00	 ret	 8
??$assign@Viterator@?$vector@V?$basic_string@DU?$char_traits@D@std@@V?$allocator@D@2@@std@@V?$allocator@V?$basic_string@DU?$char_traits@D@std@@V?$allocator@D@2@@std@@@2@@std@@@?$vector@V?$basic_string@DU?$char_traits@D@std@@V?$allocator@D@2@@std@@V?$allocator@V?$basic_string@DU?$char_traits@D@std@@V?$allocator@D@2@@std@@@2@@std@@QAEXViterator@01@0@Z ENDP ; std::vector<std::basic_string<char,std::char_traits<char>,std::allocator<char> >,std::allocator<std::basic_string<char,std::char_traits<char>,std::allocator<char> > > >::assign<std::vector<std::basic_string<char,std::char_traits<char>,std::allocator<char> >,std::allocator<std::basic_string<char,std::char_traits<char>,std::allocator<char> > > >::iterator>
_TEXT	ENDS
EXTRN	?SendExtPacket@CMiniGameBase@@QAEXPAVCUser@@U__MINIGAME_EXT_PACKET@@@Z:NEAR ; CMiniGameBase::SendExtPacket
;	COMDAT xdata$x
; File c:\program files\microsoft visual studio .net 2003\vc7\include\xmemory
xdata$x	SEGMENT
$T235477 DD	0ffffffffH
	DD	FLAT:$L235095
$T235473 DD	019930520H
	DD	01H
	DD	FLAT:$T235477
	DD	2 DUP(00H)
	DD	2 DUP(00H)
; Function compile flags: /Ogty
; File c:\documents and settings\test\mes documents\source\virtuos_v17\build\program\worldserver\minigametyping.cpp
xdata$x	ENDS
;	COMDAT ?Excute@CMiniGameTyping@@UAEHPAVCUser@@PAU__MINIGAME_PACKET@@@Z
_TEXT	SEGMENT
$T235093 = -52						; size = 4
_MP$ = -48						; size = 36
__$EHRec$ = -12						; size = 12
__Cat$235468 = 8					; size = 1
__Cat$235214 = 8					; size = 1
_pUser$ = 8						; size = 4
$T235091 = 12						; size = 4
_bReturn$ = 12						; size = 4
_pMiniGamePacket$ = 12					; size = 4
?Excute@CMiniGameTyping@@UAEHPAVCUser@@PAU__MINIGAME_PACKET@@@Z PROC NEAR ; CMiniGameTyping::Excute, COMDAT
; _this$ = ecx

; 20   : {

  00000	6a ff		 push	 -1
  00002	68 00 00 00 00	 push	 __ehhandler$?Excute@CMiniGameTyping@@UAEHPAVCUser@@PAU__MINIGAME_PACKET@@@Z
  00007	64 a1 00 00 00
	00		 mov	 eax, DWORD PTR fs:__except_list
  0000d	50		 push	 eax
  0000e	64 89 25 00 00
	00 00		 mov	 DWORD PTR fs:__except_list, esp
  00015	83 ec 28	 sub	 esp, 40			; 00000028H
  00018	53		 push	 ebx

; 21   : 	BOOL bReturn = FALSE;
; 22   : 
; 23   : 	__MINIGAME_EXT_PACKET MP( pMiniGamePacket->wNowGame );	

  00019	8b 5c 24 40	 mov	 ebx, DWORD PTR _pMiniGamePacket$[esp+52]
  0001d	55		 push	 ebp
  0001e	56		 push	 esi
  0001f	57		 push	 edi
  00020	33 c0		 xor	 eax, eax
  00022	66 8b 43 04	 mov	 ax, WORD PTR [ebx+4]
  00026	33 ff		 xor	 edi, edi
  00028	57		 push	 edi
  00029	57		 push	 edi
  0002a	57		 push	 edi
  0002b	8b f1		 mov	 esi, ecx
  0002d	8d 4c 24 20	 lea	 ecx, DWORD PTR _MP$[esp+80]
  00031	50		 push	 eax
  00032	e8 00 00 00 00	 call	 ??0__MINIGAME_EXT_PACKET@@QAE@GHHH@Z ; __MINIGAME_EXT_PACKET::__MINIGAME_EXT_PACKET

; 24   : 	if( pMiniGamePacket->nState == MP_OPENWND )

  00037	8b 4b 08	 mov	 ecx, DWORD PTR [ebx+8]
  0003a	b8 01 00 00 00	 mov	 eax, 1
  0003f	3b c8		 cmp	 ecx, eax
  00041	89 7c 24 40	 mov	 DWORD PTR __$EHRec$[esp+76], edi
  00045	0f 85 a5 00 00
	00		 jne	 $L225942

; 25   : 	{
; 26   : 		MP.nState = MP_OPENWND;
; 27   : 		MakeQuestion();

  0004b	8b ce		 mov	 ecx, esi
  0004d	89 44 24 1c	 mov	 DWORD PTR _MP$[esp+76], eax
  00051	e8 00 00 00 00	 call	 ?MakeQuestion@CMiniGameTyping@@AAEXXZ ; CMiniGameTyping::MakeQuestion

; 28   : 		MP.vecszData.assign( m_vecTyping.begin(), m_vecTyping.end() );

  00056	8b 46 0c	 mov	 eax, DWORD PTR [esi+12]
  00059	8b 4e 08	 mov	 ecx, DWORD PTR [esi+8]
  0005c	50		 push	 eax
  0005d	51		 push	 ecx
  0005e	8d 4c 24 30	 lea	 ecx, DWORD PTR _MP$[esp+96]
  00062	e8 00 00 00 00	 call	 ??$assign@Viterator@?$vector@V?$basic_string@DU?$char_traits@D@std@@V?$allocator@D@2@@std@@V?$allocator@V?$basic_string@DU?$char_traits@D@std@@V?$allocator@D@2@@std@@@2@@std@@@?$vector@V?$basic_string@DU?$char_traits@D@std@@V?$allocator@D@2@@std@@V?$allocator@V?$basic_string@DU?$char_traits@D@std@@V?$allocator@D@2@@std@@@2@@std@@QAEXViterator@01@0@Z ; std::vector<std::basic_string<char,std::char_traits<char>,std::allocator<char> >,std::allocator<std::basic_string<char,std::char_traits<char>,std::allocator<char> > > >::assign<std::vector<std::basic_string<char,std::char_traits<char>,std::allocator<char> >,std::allocator<std::basic_string<char,std::char_traits<char>,std::allocator<char> > > >::iterator>

; 29   : 		SendExtPacket( pUser, MP );

  00067	66 8b 4c 24 18	 mov	 cx, WORD PTR _MP$[esp+72]
  0006c	8b 54 24 1c	 mov	 edx, DWORD PTR _MP$[esp+76]
  00070	83 ec 24	 sub	 esp, 36			; 00000024H
  00073	8b c4		 mov	 eax, esp
  00075	66 89 48 04	 mov	 WORD PTR [eax+4], cx
  00079	8b 4c 24 44	 mov	 ecx, DWORD PTR _MP$[esp+116]
  0007d	89 48 0c	 mov	 DWORD PTR [eax+12], ecx
  00080	8d 4c 24 4c	 lea	 ecx, DWORD PTR _MP$[esp+124]
  00084	89 64 24 70	 mov	 DWORD PTR $T235091[esp+100], esp
  00088	89 50 08	 mov	 DWORD PTR [eax+8], edx
  0008b	8b 54 24 48	 mov	 edx, DWORD PTR _MP$[esp+120]
  0008f	51		 push	 ecx
  00090	c7 00 00 00 00
	00		 mov	 DWORD PTR [eax], OFFSET FLAT:??_7__MINIGAME_PACKET@@6B@
  00096	8d 48 14	 lea	 ecx, DWORD PTR [eax+20]
  00099	89 50 10	 mov	 DWORD PTR [eax+16], edx
  0009c	c7 00 00 00 00
	00		 mov	 DWORD PTR [eax], OFFSET FLAT:??_7__MINIGAME_EXT_PACKET@@6B@
  000a2	e8 00 00 00 00	 call	 ??0?$vector@V?$basic_string@DU?$char_traits@D@std@@V?$allocator@D@2@@std@@V?$allocator@V?$basic_string@DU?$char_traits@D@std@@V?$allocator@D@2@@std@@@2@@std@@QAE@ABV01@@Z ; std::vector<std::basic_string<char,std::char_traits<char>,std::allocator<char> >,std::allocator<std::basic_string<char,std::char_traits<char>,std::allocator<char> > > >::vector<std::basic_string<char,std::char_traits<char>,std::allocator<char> >,std::allocator<std::basic_string<char,std::char_traits<char>,std::allocator<char> > > >
  000a7	8b 54 24 6c	 mov	 edx, DWORD PTR _pUser$[esp+100]
  000ab	52		 push	 edx
  000ac	8b ce		 mov	 ecx, esi
  000ae	e8 00 00 00 00	 call	 ?SendExtPacket@CMiniGameBase@@QAEXPAVCUser@@U__MINIGAME_EXT_PACKET@@@Z ; CMiniGameBase::SendExtPacket

; 30   : 		return bReturn;

  000b3	8b 74 24 2c	 mov	 esi, DWORD PTR _MP$[esp+92]
  000b7	3b f7		 cmp	 esi, edi
  000b9	74 1e		 je	 SHORT $L235215
  000bb	8b 44 24 48	 mov	 eax, DWORD PTR __Cat$235214[esp+64]
  000bf	8b 54 24 30	 mov	 edx, DWORD PTR _MP$[esp+96]
  000c3	50		 push	 eax
  000c4	8d 4c 24 2c	 lea	 ecx, DWORD PTR _MP$[esp+92]
  000c8	51		 push	 ecx
  000c9	52		 push	 edx
  000ca	56		 push	 esi
  000cb	e8 00 00 00 00	 call	 ??$_Destroy_range@V?$basic_string@DU?$char_traits@D@std@@V?$allocator@D@2@@std@@V?$allocator@V?$basic_string@DU?$char_traits@D@std@@V?$allocator@D@2@@std@@@2@@std@@YAXPAV?$basic_string@DU?$char_traits@D@std@@V?$allocator@D@2@@0@0AAV?$allocator@V?$basic_string@DU?$char_traits@D@std@@V?$allocator@D@2@@std@@@0@U_Nonscalar_ptr_iterator_tag@0@@Z ; std::_Destroy_range<std::basic_string<char,std::char_traits<char>,std::allocator<char> >,std::allocator<std::basic_string<char,std::char_traits<char>,std::allocator<char> > > >
  000d0	56		 push	 esi
  000d1	e8 00 00 00 00	 call	 ??3@YAXPAX@Z		; operator delete
  000d6	83 c4 14	 add	 esp, 20			; 00000014H
$L235215:
  000d9	33 c0		 xor	 eax, eax

; 49   : }

  000db	8b 4c 24 38	 mov	 ecx, DWORD PTR __$EHRec$[esp+68]
  000df	64 89 0d 00 00
	00 00		 mov	 DWORD PTR fs:__except_list, ecx
  000e6	5f		 pop	 edi
  000e7	5e		 pop	 esi
  000e8	5d		 pop	 ebp
  000e9	5b		 pop	 ebx
  000ea	83 c4 34	 add	 esp, 52			; 00000034H
  000ed	c2 08 00	 ret	 8
$L225942:

; 31   : 	}
; 32   : 
; 33   : 	__MINIGAME_EXT_PACKET* pPacket = static_cast<__MINIGAME_EXT_PACKET*>( pMiniGamePacket );
; 34   : 
; 35   : 	MP.nState = MP_FINISH;

  000f0	c7 44 24 1c 04
	00 00 00	 mov	 DWORD PTR _MP$[esp+76], 4

; 36   : 	bReturn = TRUE;

  000f8	89 44 24 4c	 mov	 DWORD PTR _bReturn$[esp+64], eax

; 37   : 	for( int i=0; i<(int)( m_vecTyping.size() ); i++ )

  000fc	33 ed		 xor	 ebp, ebp
  000fe	8b ff		 npad	 2
$L226071:
  00100	8b 46 08	 mov	 eax, DWORD PTR [esi+8]
  00103	85 c0		 test	 eax, eax
  00105	74 18		 je	 SHORT $L235224
$L235223:
  00107	8b 4e 0c	 mov	 ecx, DWORD PTR [esi+12]
  0010a	2b c8		 sub	 ecx, eax
  0010c	b8 93 24 49 92	 mov	 eax, -1840700269	; 92492493H
  00111	f7 e9		 imul	 ecx
  00113	03 d1		 add	 edx, ecx
  00115	c1 fa 04	 sar	 edx, 4
  00118	8b c2		 mov	 eax, edx
  0011a	c1 e8 1f	 shr	 eax, 31			; 0000001fH
  0011d	03 c2		 add	 eax, edx
$L235224:
  0011f	3b e8		 cmp	 ebp, eax
  00121	7d 43		 jge	 SHORT $L226073

; 38   : 	{
; 39   : 		if( m_vecTyping[i] != pPacket->vecszData[i] )

  00123	8b 43 18	 mov	 eax, DWORD PTR [ebx+24]
  00126	8b 4e 08	 mov	 ecx, DWORD PTR [esi+8]
  00129	8b 54 38 14	 mov	 edx, DWORD PTR [eax+edi+20]
  0012d	03 c7		 add	 eax, edi
  0012f	03 cf		 add	 ecx, edi
  00131	83 78 18 10	 cmp	 DWORD PTR [eax+24], 16	; 00000010H
  00135	72 05		 jb	 SHORT $L235378
  00137	8b 40 04	 mov	 eax, DWORD PTR [eax+4]
  0013a	eb 03		 jmp	 SHORT $L235379
$L235378:
  0013c	83 c0 04	 add	 eax, 4
$L235379:
  0013f	52		 push	 edx
  00140	50		 push	 eax
  00141	8b 41 14	 mov	 eax, DWORD PTR [ecx+20]
  00144	50		 push	 eax
  00145	6a 00		 push	 0
  00147	e8 00 00 00 00	 call	 ?compare@?$basic_string@DU?$char_traits@D@std@@V?$allocator@D@2@@std@@QBEHIIPBDI@Z ; std::basic_string<char,std::char_traits<char>,std::allocator<char> >::compare
  0014c	85 c0		 test	 eax, eax
  0014e	75 06		 jne	 SHORT $L235475
  00150	45		 inc	 ebp
  00151	83 c7 1c	 add	 edi, 28			; 0000001cH
  00154	eb aa		 jmp	 SHORT $L226071
$L235475:

; 40   : 		{
; 41   : 			MP.nState = MP_FAIL;

  00156	c7 44 24 1c 05
	00 00 00	 mov	 DWORD PTR _MP$[esp+76], 5

; 42   : 			bReturn = FALSE;

  0015e	c7 44 24 4c 00
	00 00 00	 mov	 DWORD PTR _bReturn$[esp+64], 0
$L226073:

; 43   : 			break;
; 44   : 		}
; 45   : 	}
; 46   : 
; 47   : 	SendExtPacket( pUser, MP );

  00166	66 8b 4c 24 18	 mov	 cx, WORD PTR _MP$[esp+72]
  0016b	8b 54 24 1c	 mov	 edx, DWORD PTR _MP$[esp+76]
  0016f	83 ec 24	 sub	 esp, 36			; 00000024H
  00172	8b c4		 mov	 eax, esp
  00174	66 89 48 04	 mov	 WORD PTR [eax+4], cx
  00178	8b 4c 24 44	 mov	 ecx, DWORD PTR _MP$[esp+116]
  0017c	89 48 0c	 mov	 DWORD PTR [eax+12], ecx
  0017f	8d 4c 24 4c	 lea	 ecx, DWORD PTR _MP$[esp+124]
  00183	89 64 24 34	 mov	 DWORD PTR $T235093[esp+104], esp
  00187	89 50 08	 mov	 DWORD PTR [eax+8], edx
  0018a	8b 54 24 48	 mov	 edx, DWORD PTR _MP$[esp+120]
  0018e	51		 push	 ecx
  0018f	c7 00 00 00 00
	00		 mov	 DWORD PTR [eax], OFFSET FLAT:??_7__MINIGAME_PACKET@@6B@
  00195	8d 48 14	 lea	 ecx, DWORD PTR [eax+20]
  00198	89 50 10	 mov	 DWORD PTR [eax+16], edx
  0019b	c7 00 00 00 00
	00		 mov	 DWORD PTR [eax], OFFSET FLAT:??_7__MINIGAME_EXT_PACKET@@6B@
  001a1	e8 00 00 00 00	 call	 ??0?$vector@V?$basic_string@DU?$char_traits@D@std@@V?$allocator@D@2@@std@@V?$allocator@V?$basic_string@DU?$char_traits@D@std@@V?$allocator@D@2@@std@@@2@@std@@QAE@ABV01@@Z ; std::vector<std::basic_string<char,std::char_traits<char>,std::allocator<char> >,std::allocator<std::basic_string<char,std::char_traits<char>,std::allocator<char> > > >::vector<std::basic_string<char,std::char_traits<char>,std::allocator<char> >,std::allocator<std::basic_string<char,std::char_traits<char>,std::allocator<char> > > >
  001a6	8b 54 24 6c	 mov	 edx, DWORD PTR _pUser$[esp+100]
  001aa	52		 push	 edx
  001ab	8b ce		 mov	 ecx, esi
  001ad	e8 00 00 00 00	 call	 ?SendExtPacket@CMiniGameBase@@QAEXPAVCUser@@U__MINIGAME_EXT_PACKET@@@Z ; CMiniGameBase::SendExtPacket

; 48   : 	return bReturn;

  001b2	8b 74 24 2c	 mov	 esi, DWORD PTR _MP$[esp+92]
  001b6	85 f6		 test	 esi, esi
  001b8	74 1e		 je	 SHORT $L235470
  001ba	8b 44 24 48	 mov	 eax, DWORD PTR __Cat$235468[esp+64]
  001be	8b 54 24 30	 mov	 edx, DWORD PTR _MP$[esp+96]
  001c2	50		 push	 eax
  001c3	8d 4c 24 2c	 lea	 ecx, DWORD PTR _MP$[esp+92]
  001c7	51		 push	 ecx
  001c8	52		 push	 edx
  001c9	56		 push	 esi
  001ca	e8 00 00 00 00	 call	 ??$_Destroy_range@V?$basic_string@DU?$char_traits@D@std@@V?$allocator@D@2@@std@@V?$allocator@V?$basic_string@DU?$char_traits@D@std@@V?$allocator@D@2@@std@@@2@@std@@YAXPAV?$basic_string@DU?$char_traits@D@std@@V?$allocator@D@2@@0@0AAV?$allocator@V?$basic_string@DU?$char_traits@D@std@@V?$allocator@D@2@@std@@@0@U_Nonscalar_ptr_iterator_tag@0@@Z ; std::_Destroy_range<std::basic_string<char,std::char_traits<char>,std::allocator<char> >,std::allocator<std::basic_string<char,std::char_traits<char>,std::allocator<char> > > >
  001cf	56		 push	 esi
  001d0	e8 00 00 00 00	 call	 ??3@YAXPAX@Z		; operator delete
  001d5	83 c4 14	 add	 esp, 20			; 00000014H
$L235470:

; 49   : }

  001d8	8b 4c 24 38	 mov	 ecx, DWORD PTR __$EHRec$[esp+68]
  001dc	8b 44 24 4c	 mov	 eax, DWORD PTR _bReturn$[esp+64]
  001e0	5f		 pop	 edi
  001e1	5e		 pop	 esi
  001e2	5d		 pop	 ebp
  001e3	64 89 0d 00 00
	00 00		 mov	 DWORD PTR fs:__except_list, ecx
  001ea	5b		 pop	 ebx
  001eb	83 c4 34	 add	 esp, 52			; 00000034H
  001ee	c2 08 00	 ret	 8
_TEXT	ENDS
;	COMDAT text$x
text$x	SEGMENT
$L235095:
  00000	8d 4d d0	 lea	 ecx, DWORD PTR _MP$[ebp]
  00003	e9 00 00 00 00	 jmp	 ??1__MINIGAME_EXT_PACKET@@QAE@XZ
__ehhandler$?Excute@CMiniGameTyping@@UAEHPAVCUser@@PAU__MINIGAME_PACKET@@@Z:
  00008	b8 00 00 00 00	 mov	 eax, OFFSET FLAT:$T235473
  0000d	e9 00 00 00 00	 jmp	 ___CxxFrameHandler
text$x	ENDS
?Excute@CMiniGameTyping@@UAEHPAVCUser@@PAU__MINIGAME_PACKET@@@Z ENDP ; CMiniGameTyping::Excute
END
