; Listing generated by Microsoft (R) Optimizing Compiler Version 13.10.6030 

	TITLE	\Documents and Settings\test\Mes documents\Source\Virtuos_v17\Build\Program\_Common\Model.cpp
	.386P
include listing.inc
if @Version gt 510
.model FLAT
else
_TEXT	SEGMENT PARA USE32 PUBLIC 'CODE'
_TEXT	ENDS
_DATA	SEGMENT DWORD USE32 PUBLIC 'DATA'
_DATA	ENDS
CONST	SEGMENT DWORD USE32 PUBLIC 'CONST'
CONST	ENDS
_BSS	SEGMENT DWORD USE32 PUBLIC 'BSS'
_BSS	ENDS
$$SYMBOLS	SEGMENT BYTE USE32 'DEBSYM'
$$SYMBOLS	ENDS
$$TYPES	SEGMENT BYTE USE32 'DEBTYP'
$$TYPES	ENDS
_TLS	SEGMENT DWORD USE32 PUBLIC 'TLS'
_TLS	ENDS
xdata$x	SEGMENT DWORD USE32 PUBLIC 'CONST'
xdata$x	ENDS
text$AFX_COL1	SEGMENT PARA USE32 PUBLIC ''
text$AFX_COL1	ENDS
;	COMDAT ??1CModel@@UAE@XZ
_TEXT	SEGMENT PARA USE32 PUBLIC 'CODE'
_TEXT	ENDS
;	COMDAT ?FrameMove@CModel@@UAEXPAUD3DXVECTOR3@@M@Z
_TEXT	SEGMENT PARA USE32 PUBLIC 'CODE'
_TEXT	ENDS
;	COMDAT ?AddFrame@CModel@@UAEXM@Z
_TEXT	SEGMENT PARA USE32 PUBLIC 'CODE'
_TEXT	ENDS
;	COMDAT ?SetFrame@CModel@@UAEXM@Z
_TEXT	SEGMENT PARA USE32 PUBLIC 'CODE'
_TEXT	ENDS
;	COMDAT ?Render@CModel@@UAEHPAUIDirect3DDevice9@@PBUD3DXMATRIX@@@Z
_TEXT	SEGMENT PARA USE32 PUBLIC 'CODE'
_TEXT	ENDS
;	COMDAT ?IsAniable@CModel@@QAEHXZ
_TEXT	SEGMENT PARA USE32 PUBLIC 'CODE'
_TEXT	ENDS
;	COMDAT ?GetNextFrame@CModel@@QAEHXZ
_TEXT	SEGMENT PARA USE32 PUBLIC 'CODE'
_TEXT	ENDS
;	COMDAT ?GetRadius@CModel@@QAEMXZ
_TEXT	SEGMENT PARA USE32 PUBLIC 'CODE'
_TEXT	ENDS
;	COMDAT ?IntersectBB@CModel@@QAEHABUD3DXVECTOR3@@0ABUD3DXMATRIX@@PAU2@PAM@Z
_TEXT	SEGMENT PARA USE32 PUBLIC 'CODE'
_TEXT	ENDS
;	COMDAT ?compare@?$basic_string@DU?$char_traits@D@std@@V?$allocator@D@2@@std@@QBEHABV12@@Z
_TEXT	SEGMENT PARA USE32 PUBLIC 'CODE'
_TEXT	ENDS
;	COMDAT ?IsFull@?$CStack@K@@QAEHXZ
_TEXT	SEGMENT PARA USE32 PUBLIC 'CODE'
_TEXT	ENDS
;	COMDAT ??0?$pair@KPAVCCtrl@@@std@@QAE@ABKABQAVCCtrl@@@Z
_TEXT	SEGMENT PARA USE32 PUBLIC 'CODE'
_TEXT	ENDS
;	COMDAT ?GetMax@?$CItemContainer@VCItemElem@@@@QAEHXZ
_TEXT	SEGMENT PARA USE32 PUBLIC 'CODE'
_TEXT	ENDS
;	COMDAT ??0?$deque@PAUtagACTMSG@@V?$allocator@PAUtagACTMSG@@@std@@@std@@QAE@XZ
_TEXT	SEGMENT PARA USE32 PUBLIC 'CODE'
_TEXT	ENDS
;	COMDAT ??1?$deque@PAUtagACTMSG@@V?$allocator@PAUtagACTMSG@@@std@@@std@@QAE@XZ
_TEXT	SEGMENT PARA USE32 PUBLIC 'CODE'
_TEXT	ENDS
;	COMDAT ?begin@?$deque@PAUtagACTMSG@@V?$allocator@PAUtagACTMSG@@@std@@@std@@QAE?AViterator@12@XZ
_TEXT	SEGMENT PARA USE32 PUBLIC 'CODE'
_TEXT	ENDS
;	COMDAT ?end@?$deque@PAUtagACTMSG@@V?$allocator@PAUtagACTMSG@@@std@@@std@@QAE?AViterator@12@XZ
_TEXT	SEGMENT PARA USE32 PUBLIC 'CODE'
_TEXT	ENDS
;	COMDAT ?empty@?$deque@PAUtagACTMSG@@V?$allocator@PAUtagACTMSG@@@std@@@std@@QBE_NXZ
_TEXT	SEGMENT PARA USE32 PUBLIC 'CODE'
_TEXT	ENDS
;	COMDAT ?clear@?$deque@PAUtagACTMSG@@V?$allocator@PAUtagACTMSG@@@std@@@std@@QAEXXZ
_TEXT	SEGMENT PARA USE32 PUBLIC 'CODE'
_TEXT	ENDS
;	COMDAT ??0?$deque@PAUtagMAGICATKMSG@@V?$allocator@PAUtagMAGICATKMSG@@@std@@@std@@QAE@XZ
_TEXT	SEGMENT PARA USE32 PUBLIC 'CODE'
_TEXT	ENDS
;	COMDAT ??1?$deque@PAUtagMAGICATKMSG@@V?$allocator@PAUtagMAGICATKMSG@@@std@@@std@@QAE@XZ
_TEXT	SEGMENT PARA USE32 PUBLIC 'CODE'
_TEXT	ENDS
;	COMDAT ?begin@?$deque@PAUtagMAGICATKMSG@@V?$allocator@PAUtagMAGICATKMSG@@@std@@@std@@QAE?AViterator@12@XZ
_TEXT	SEGMENT PARA USE32 PUBLIC 'CODE'
_TEXT	ENDS
;	COMDAT ?end@?$deque@PAUtagMAGICATKMSG@@V?$allocator@PAUtagMAGICATKMSG@@@std@@@std@@QAE?AViterator@12@XZ
_TEXT	SEGMENT PARA USE32 PUBLIC 'CODE'
_TEXT	ENDS
;	COMDAT ?empty@?$deque@PAUtagMAGICATKMSG@@V?$allocator@PAUtagMAGICATKMSG@@@std@@@std@@QBE_NXZ
_TEXT	SEGMENT PARA USE32 PUBLIC 'CODE'
_TEXT	ENDS
;	COMDAT ?clear@?$deque@PAUtagMAGICATKMSG@@V?$allocator@PAUtagMAGICATKMSG@@@std@@@std@@QAEXXZ
_TEXT	SEGMENT PARA USE32 PUBLIC 'CODE'
_TEXT	ENDS
;	COMDAT ??Diterator@?$deque@PAUtagACTMSG@@V?$allocator@PAUtagACTMSG@@@std@@@std@@QBEAAPAUtagACTMSG@@XZ
_TEXT	SEGMENT PARA USE32 PUBLIC 'CODE'
_TEXT	ENDS
;	COMDAT ??Eiterator@?$deque@PAUtagACTMSG@@V?$allocator@PAUtagACTMSG@@@std@@@std@@QAEAAV012@XZ
_TEXT	SEGMENT PARA USE32 PUBLIC 'CODE'
_TEXT	ENDS
;	COMDAT ??9const_iterator@?$deque@PAUtagACTMSG@@V?$allocator@PAUtagACTMSG@@@std@@@std@@QBE_NABV012@@Z
_TEXT	SEGMENT PARA USE32 PUBLIC 'CODE'
_TEXT	ENDS
;	COMDAT ??Diterator@?$deque@PAUtagMAGICATKMSG@@V?$allocator@PAUtagMAGICATKMSG@@@std@@@std@@QBEAAPAUtagMAGICATKMSG@@XZ
_TEXT	SEGMENT PARA USE32 PUBLIC 'CODE'
_TEXT	ENDS
;	COMDAT ??Eiterator@?$deque@PAUtagMAGICATKMSG@@V?$allocator@PAUtagMAGICATKMSG@@@std@@@std@@QAEAAV012@XZ
_TEXT	SEGMENT PARA USE32 PUBLIC 'CODE'
_TEXT	ENDS
;	COMDAT ??9const_iterator@?$deque@PAUtagMAGICATKMSG@@V?$allocator@PAUtagMAGICATKMSG@@@std@@@std@@QBE_NABV012@@Z
_TEXT	SEGMENT PARA USE32 PUBLIC 'CODE'
_TEXT	ENDS
;	COMDAT ?compare@?$basic_string@DU?$char_traits@D@std@@V?$allocator@D@2@@std@@QBEHIIPBDI@Z
_TEXT	SEGMENT PARA USE32 PUBLIC 'CODE'
_TEXT	ENDS
;	COMDAT ?_Tidy@?$deque@PAUtagACTMSG@@V?$allocator@PAUtagACTMSG@@@std@@@std@@IAEXXZ
_TEXT	SEGMENT PARA USE32 PUBLIC 'CODE'
_TEXT	ENDS
;	COMDAT ??0?$_Deque_val@PAUtagACTMSG@@V?$allocator@PAUtagACTMSG@@@std@@@std@@IAE@V?$allocator@PAUtagACTMSG@@@1@@Z
_TEXT	SEGMENT PARA USE32 PUBLIC 'CODE'
_TEXT	ENDS
;	COMDAT ??0?$allocator@PAUtagACTMSG@@@std@@QAE@XZ
_TEXT	SEGMENT PARA USE32 PUBLIC 'CODE'
_TEXT	ENDS
;	COMDAT ?_Tidy@?$deque@PAUtagMAGICATKMSG@@V?$allocator@PAUtagMAGICATKMSG@@@std@@@std@@IAEXXZ
_TEXT	SEGMENT PARA USE32 PUBLIC 'CODE'
_TEXT	ENDS
;	COMDAT ??0?$_Deque_val@PAUtagMAGICATKMSG@@V?$allocator@PAUtagMAGICATKMSG@@@std@@@std@@IAE@V?$allocator@PAUtagMAGICATKMSG@@@1@@Z
_TEXT	SEGMENT PARA USE32 PUBLIC 'CODE'
_TEXT	ENDS
;	COMDAT ??0?$allocator@PAUtagMAGICATKMSG@@@std@@QAE@XZ
_TEXT	SEGMENT PARA USE32 PUBLIC 'CODE'
_TEXT	ENDS
;	COMDAT ??0iterator@?$deque@PAUtagACTMSG@@V?$allocator@PAUtagACTMSG@@@std@@@std@@QAE@IPBV12@@Z
_TEXT	SEGMENT PARA USE32 PUBLIC 'CODE'
_TEXT	ENDS
;	COMDAT ??Dconst_iterator@?$deque@PAUtagACTMSG@@V?$allocator@PAUtagACTMSG@@@std@@@std@@QBEABQAUtagACTMSG@@XZ
_TEXT	SEGMENT PARA USE32 PUBLIC 'CODE'
_TEXT	ENDS
;	COMDAT ??8const_iterator@?$deque@PAUtagACTMSG@@V?$allocator@PAUtagACTMSG@@@std@@@std@@QBE_NABV012@@Z
_TEXT	SEGMENT PARA USE32 PUBLIC 'CODE'
_TEXT	ENDS
;	COMDAT ??0iterator@?$deque@PAUtagMAGICATKMSG@@V?$allocator@PAUtagMAGICATKMSG@@@std@@@std@@QAE@IPBV12@@Z
_TEXT	SEGMENT PARA USE32 PUBLIC 'CODE'
_TEXT	ENDS
;	COMDAT ??Dconst_iterator@?$deque@PAUtagMAGICATKMSG@@V?$allocator@PAUtagMAGICATKMSG@@@std@@@std@@QBEABQAUtagMAGICATKMSG@@XZ
_TEXT	SEGMENT PARA USE32 PUBLIC 'CODE'
_TEXT	ENDS
;	COMDAT ??8const_iterator@?$deque@PAUtagMAGICATKMSG@@V?$allocator@PAUtagMAGICATKMSG@@@std@@@std@@QBE_NABV012@@Z
_TEXT	SEGMENT PARA USE32 PUBLIC 'CODE'
_TEXT	ENDS
;	COMDAT ?pop_back@?$deque@PAUtagACTMSG@@V?$allocator@PAUtagACTMSG@@@std@@@std@@QAEXXZ
_TEXT	SEGMENT PARA USE32 PUBLIC 'CODE'
_TEXT	ENDS
;	COMDAT ??0?$_Deque_map@PAUtagACTMSG@@V?$allocator@PAUtagACTMSG@@@std@@@std@@IAE@V?$allocator@PAUtagACTMSG@@@1@@Z
_TEXT	SEGMENT PARA USE32 PUBLIC 'CODE'
_TEXT	ENDS
;	COMDAT ??0?$allocator@PAUtagACTMSG@@@std@@QAE@ABV01@@Z
_TEXT	SEGMENT PARA USE32 PUBLIC 'CODE'
_TEXT	ENDS
;	COMDAT ?deallocate@?$allocator@PAUtagACTMSG@@@std@@QAEXPAPAUtagACTMSG@@I@Z
_TEXT	SEGMENT PARA USE32 PUBLIC 'CODE'
_TEXT	ENDS
;	COMDAT ?deallocate@?$allocator@PAPAUtagACTMSG@@@std@@QAEXPAPAPAUtagACTMSG@@I@Z
_TEXT	SEGMENT PARA USE32 PUBLIC 'CODE'
_TEXT	ENDS
;	COMDAT ?destroy@?$allocator@PAPAUtagACTMSG@@@std@@QAEXPAPAPAUtagACTMSG@@@Z
_TEXT	SEGMENT PARA USE32 PUBLIC 'CODE'
_TEXT	ENDS
;	COMDAT ?pop_back@?$deque@PAUtagMAGICATKMSG@@V?$allocator@PAUtagMAGICATKMSG@@@std@@@std@@QAEXXZ
_TEXT	SEGMENT PARA USE32 PUBLIC 'CODE'
_TEXT	ENDS
;	COMDAT ??0?$_Deque_map@PAUtagMAGICATKMSG@@V?$allocator@PAUtagMAGICATKMSG@@@std@@@std@@IAE@V?$allocator@PAUtagMAGICATKMSG@@@1@@Z
_TEXT	SEGMENT PARA USE32 PUBLIC 'CODE'
_TEXT	ENDS
;	COMDAT ??0?$allocator@PAUtagMAGICATKMSG@@@std@@QAE@ABV01@@Z
_TEXT	SEGMENT PARA USE32 PUBLIC 'CODE'
_TEXT	ENDS
;	COMDAT ?deallocate@?$allocator@PAUtagMAGICATKMSG@@@std@@QAEXPAPAUtagMAGICATKMSG@@I@Z
_TEXT	SEGMENT PARA USE32 PUBLIC 'CODE'
_TEXT	ENDS
;	COMDAT ?deallocate@?$allocator@PAPAUtagMAGICATKMSG@@@std@@QAEXPAPAPAUtagMAGICATKMSG@@I@Z
_TEXT	SEGMENT PARA USE32 PUBLIC 'CODE'
_TEXT	ENDS
;	COMDAT ?destroy@?$allocator@PAPAUtagMAGICATKMSG@@@std@@QAEXPAPAPAUtagMAGICATKMSG@@@Z
_TEXT	SEGMENT PARA USE32 PUBLIC 'CODE'
_TEXT	ENDS
;	COMDAT ??0const_iterator@?$deque@PAUtagACTMSG@@V?$allocator@PAUtagACTMSG@@@std@@@std@@QAE@IPBV12@@Z
_TEXT	SEGMENT PARA USE32 PUBLIC 'CODE'
_TEXT	ENDS
;	COMDAT ??0const_iterator@?$deque@PAUtagMAGICATKMSG@@V?$allocator@PAUtagMAGICATKMSG@@@std@@@std@@QAE@IPBV12@@Z
_TEXT	SEGMENT PARA USE32 PUBLIC 'CODE'
_TEXT	ENDS
;	COMDAT ?destroy@?$allocator@PAUtagACTMSG@@@std@@QAEXPAPAUtagACTMSG@@@Z
_TEXT	SEGMENT PARA USE32 PUBLIC 'CODE'
_TEXT	ENDS
;	COMDAT ?destroy@?$allocator@PAUtagMAGICATKMSG@@@std@@QAEXPAPAUtagMAGICATKMSG@@@Z
_TEXT	SEGMENT PARA USE32 PUBLIC 'CODE'
_TEXT	ENDS
;	COMDAT ??$_Iter_cat@Vconst_iterator@?$vector@EV?$allocator@E@std@@@std@@@std@@YA?AUrandom_access_iterator_tag@0@ABVconst_iterator@?$vector@EV?$allocator@E@std@@@0@@Z
_TEXT	SEGMENT PARA USE32 PUBLIC 'CODE'
_TEXT	ENDS
;	COMDAT ??$_Assign@Vconst_iterator@?$vector@EV?$allocator@E@std@@@std@@@?$vector@EV?$allocator@E@std@@@std@@QAEXVconst_iterator@01@0Uinput_iterator_tag@1@@Z
_TEXT	SEGMENT PARA USE32 PUBLIC 'CODE'
_TEXT	ENDS
;	COMDAT ??$_Iter_cat@Viterator@?$_Tree@V?$_Tmap_traits@KPAVCUser@@U?$less@K@std@@V?$allocator@U?$pair@$$CBKPAVCUser@@@std@@@3@$0A@@std@@@std@@@std@@YA?AUbidirectional_iterator_tag@0@ABViterator@?$_Tree@V?$_Tmap_traits@KPAVCUser@@U?$less@K@std@@V?$allocator@U?$pair@$$CBKPAVCUser@@@std@@@3@$0A@@std@@@0@@Z
_TEXT	SEGMENT PARA USE32 PUBLIC 'CODE'
_TEXT	ENDS
;	COMDAT ??$_Distance2@Viterator@?$_Tree@V?$_Tmap_traits@KPAVCUser@@U?$less@K@std@@V?$allocator@U?$pair@$$CBKPAVCUser@@@std@@@3@$0A@@std@@@std@@I@std@@YAXViterator@?$_Tree@V?$_Tmap_traits@KPAVCUser@@U?$less@K@std@@V?$allocator@U?$pair@$$CBKPAVCUser@@@std@@@3@$0A@@std@@@0@0AAIUbidirectional_iterator_tag@0@@Z
_TEXT	SEGMENT PARA USE32 PUBLIC 'CODE'
_TEXT	ENDS
;	COMDAT ??$_Iter_cat@Viterator@?$_Tree@V?$_Tmap_traits@KPAVCCtrl@@U?$less@K@std@@V?$allocator@U?$pair@$$CBKPAVCCtrl@@@std@@@3@$0A@@std@@@std@@@std@@YA?AUbidirectional_iterator_tag@0@ABViterator@?$_Tree@V?$_Tmap_traits@KPAVCCtrl@@U?$less@K@std@@V?$allocator@U?$pair@$$CBKPAVCCtrl@@@std@@@3@$0A@@std@@@0@@Z
_TEXT	SEGMENT PARA USE32 PUBLIC 'CODE'
_TEXT	ENDS
;	COMDAT ??$_Distance2@Viterator@?$_Tree@V?$_Tmap_traits@KPAVCCtrl@@U?$less@K@std@@V?$allocator@U?$pair@$$CBKPAVCCtrl@@@std@@@3@$0A@@std@@@std@@I@std@@YAXViterator@?$_Tree@V?$_Tmap_traits@KPAVCCtrl@@U?$less@K@std@@V?$allocator@U?$pair@$$CBKPAVCCtrl@@@std@@@3@$0A@@std@@@0@0AAIUbidirectional_iterator_tag@0@@Z
_TEXT	SEGMENT PARA USE32 PUBLIC 'CODE'
_TEXT	ENDS
;	COMDAT ??$_Uninitialized_copy@Vconst_iterator@?$vector@EV?$allocator@E@std@@@std@@PAEV?$allocator@E@3@@std@@YAPAEVconst_iterator@?$vector@EV?$allocator@E@std@@@0@0PAEAAV?$allocator@E@0@@Z
_TEXT	SEGMENT PARA USE32 PUBLIC 'CODE'
_TEXT	ENDS
;	COMDAT ??$_Iter_cat@Viterator@?$_Tree@V?$_Tmap_traits@KEU?$less@K@std@@V?$allocator@U?$pair@$$CBKE@std@@@2@$0A@@std@@@std@@@std@@YA?AUbidirectional_iterator_tag@0@ABViterator@?$_Tree@V?$_Tmap_traits@KEU?$less@K@std@@V?$allocator@U?$pair@$$CBKE@std@@@2@$0A@@std@@@0@@Z
_TEXT	SEGMENT PARA USE32 PUBLIC 'CODE'
_TEXT	ENDS
;	COMDAT ??$_Distance2@Viterator@?$_Tree@V?$_Tmap_traits@KEU?$less@K@std@@V?$allocator@U?$pair@$$CBKE@std@@@2@$0A@@std@@@std@@I@std@@YAXViterator@?$_Tree@V?$_Tmap_traits@KEU?$less@K@std@@V?$allocator@U?$pair@$$CBKE@std@@@2@$0A@@std@@@0@0AAIUbidirectional_iterator_tag@0@@Z
_TEXT	SEGMENT PARA USE32 PUBLIC 'CODE'
_TEXT	ENDS
;	COMDAT ??$_Ptr_cat@PAU__SPAWNREGION@CEventLua@@PAU12@@std@@YA?AU_Nonscalar_ptr_iterator_tag@0@AAPAU__SPAWNREGION@CEventLua@@0@Z
_TEXT	SEGMENT PARA USE32 PUBLIC 'CODE'
_TEXT	ENDS
;	COMDAT ??$_Uninit_fill_n@PAU__SPAWNREGION@CEventLua@@IU12@V?$allocator@U__SPAWNREGION@CEventLua@@@std@@@std@@YAXPAU__SPAWNREGION@CEventLua@@IABU12@AAV?$allocator@U__SPAWNREGION@CEventLua@@@0@U_Nonscalar_ptr_iterator_tag@0@@Z
_TEXT	SEGMENT PARA USE32 PUBLIC 'CODE'
_TEXT	ENDS
;	COMDAT ??$_Copy_opt@PAJPAJ@std@@YAPAJPAJ00U_Scalar_ptr_iterator_tag@0@@Z
_TEXT	SEGMENT PARA USE32 PUBLIC 'CODE'
_TEXT	ENDS
;	COMDAT ??$_Uninitialized_copy@PAJPAJV?$allocator@J@std@@@std@@YAPAJPAJ00AAV?$allocator@J@0@@Z
_TEXT	SEGMENT PARA USE32 PUBLIC 'CODE'
_TEXT	ENDS
;	COMDAT ??$_Copy_backward_opt@PAJPAJ@std@@YAPAJPAJ00U_Scalar_ptr_iterator_tag@0@@Z
_TEXT	SEGMENT PARA USE32 PUBLIC 'CODE'
_TEXT	ENDS
;	COMDAT ??$_Ptr_cat@PAUtagDROPITEM@@PAU1@@std@@YA?AU_Nonscalar_ptr_iterator_tag@0@AAPAUtagDROPITEM@@0@Z
_TEXT	SEGMENT PARA USE32 PUBLIC 'CODE'
_TEXT	ENDS
;	COMDAT ??$_Destroy_range@UtagDROPITEM@@V?$allocator@UtagDROPITEM@@@std@@@std@@YAXPAUtagDROPITEM@@0AAV?$allocator@UtagDROPITEM@@@0@U_Nonscalar_ptr_iterator_tag@0@@Z
_TEXT	SEGMENT PARA USE32 PUBLIC 'CODE'
_TEXT	ENDS
;	COMDAT ??$_Ptr_cat@PAUWORMON@@PAU1@@std@@YA?AU_Nonscalar_ptr_iterator_tag@0@AAPAUWORMON@@0@Z
_TEXT	SEGMENT PARA USE32 PUBLIC 'CODE'
_TEXT	ENDS
;	COMDAT ??$_Destroy_range@UWORMON@@V?$allocator@UWORMON@@@std@@@std@@YAXPAUWORMON@@0AAV?$allocator@UWORMON@@@0@U_Nonscalar_ptr_iterator_tag@0@@Z
_TEXT	SEGMENT PARA USE32 PUBLIC 'CODE'
_TEXT	ENDS
;	COMDAT ??$_Ptr_cat@PAU__ITEMGAME@CMiniGame@@PAU12@@std@@YA?AU_Nonscalar_ptr_iterator_tag@0@AAPAU__ITEMGAME@CMiniGame@@0@Z
_TEXT	SEGMENT PARA USE32 PUBLIC 'CODE'
_TEXT	ENDS
;	COMDAT ??$_Destroy_range@U__ITEMGAME@CMiniGame@@V?$allocator@U__ITEMGAME@CMiniGame@@@std@@@std@@YAXPAU__ITEMGAME@CMiniGame@@0AAV?$allocator@U__ITEMGAME@CMiniGame@@@0@U_Nonscalar_ptr_iterator_tag@0@@Z
_TEXT	SEGMENT PARA USE32 PUBLIC 'CODE'
_TEXT	ENDS
;	COMDAT ??$_Destroy_range@KV?$allocator@K@std@@@std@@YAXPAK0AAV?$allocator@K@0@U_Scalar_ptr_iterator_tag@0@@Z
_TEXT	SEGMENT PARA USE32 PUBLIC 'CODE'
_TEXT	ENDS
;	COMDAT ??$_Destroy_range@HV?$allocator@H@std@@@std@@YAXPAH0AAV?$allocator@H@0@U_Scalar_ptr_iterator_tag@0@@Z
_TEXT	SEGMENT PARA USE32 PUBLIC 'CODE'
_TEXT	ENDS
;	COMDAT ??$_Ptr_cat@PAU__ITEM@CExchange@@PAU12@@std@@YA?AU_Nonscalar_ptr_iterator_tag@0@AAPAU__ITEM@CExchange@@0@Z
_TEXT	SEGMENT PARA USE32 PUBLIC 'CODE'
_TEXT	ENDS
;	COMDAT ??$_Destroy_range@U__ITEM@CExchange@@V?$allocator@U__ITEM@CExchange@@@std@@@std@@YAXPAU__ITEM@CExchange@@0AAV?$allocator@U__ITEM@CExchange@@@0@U_Nonscalar_ptr_iterator_tag@0@@Z
_TEXT	SEGMENT PARA USE32 PUBLIC 'CODE'
_TEXT	ENDS
;	COMDAT ??$_Ptr_cat@PAU__POINT@CExchange@@PAU12@@std@@YA?AU_Nonscalar_ptr_iterator_tag@0@AAPAU__POINT@CExchange@@0@Z
_TEXT	SEGMENT PARA USE32 PUBLIC 'CODE'
_TEXT	ENDS
;	COMDAT ??$_Destroy_range@U__POINT@CExchange@@V?$allocator@U__POINT@CExchange@@@std@@@std@@YAXPAU__POINT@CExchange@@0AAV?$allocator@U__POINT@CExchange@@@0@U_Nonscalar_ptr_iterator_tag@0@@Z
_TEXT	SEGMENT PARA USE32 PUBLIC 'CODE'
_TEXT	ENDS
;	COMDAT ??$_Destroy_range@EV?$allocator@E@std@@@std@@YAXPAE0AAV?$allocator@E@0@U_Scalar_ptr_iterator_tag@0@@Z
_TEXT	SEGMENT PARA USE32 PUBLIC 'CODE'
_TEXT	ENDS
;	COMDAT ??$_Uninitialized_copy@PAU__SPAWNREGION@CEventLua@@PAU12@V?$allocator@U__SPAWNREGION@CEventLua@@@std@@@std@@YAPAU__SPAWNREGION@CEventLua@@PAU12@00AAV?$allocator@U__SPAWNREGION@CEventLua@@@0@@Z
_TEXT	SEGMENT PARA USE32 PUBLIC 'CODE'
_TEXT	ENDS
;	COMDAT ??$_Copy_backward_opt@PAU__SPAWNREGION@CEventLua@@PAU12@@std@@YAPAU__SPAWNREGION@CEventLua@@PAU12@00U_Nonscalar_ptr_iterator_tag@0@@Z
_TEXT	SEGMENT PARA USE32 PUBLIC 'CODE'
_TEXT	ENDS
;	COMDAT ??$_Ptr_cat@PAUD3DXVECTOR3@@PAU1@@std@@YA?AU_Nonscalar_ptr_iterator_tag@0@AAPAUD3DXVECTOR3@@0@Z
_TEXT	SEGMENT PARA USE32 PUBLIC 'CODE'
_TEXT	ENDS
;	COMDAT ??$_Destroy_range@UD3DXVECTOR3@@V?$allocator@UD3DXVECTOR3@@@std@@@std@@YAXPAUD3DXVECTOR3@@0AAV?$allocator@UD3DXVECTOR3@@@0@U_Nonscalar_ptr_iterator_tag@0@@Z
_TEXT	SEGMENT PARA USE32 PUBLIC 'CODE'
_TEXT	ENDS
;	COMDAT ??$_Ptr_cat@PAU_GIFTBOX@@PAU1@@std@@YA?AU_Nonscalar_ptr_iterator_tag@0@AAPAU_GIFTBOX@@0@Z
_TEXT	SEGMENT PARA USE32 PUBLIC 'CODE'
_TEXT	ENDS
;	COMDAT ??$_Destroy_range@U_GIFTBOX@@V?$allocator@U_GIFTBOX@@@std@@@std@@YAXPAU_GIFTBOX@@0AAV?$allocator@U_GIFTBOX@@@0@U_Nonscalar_ptr_iterator_tag@0@@Z
_TEXT	SEGMENT PARA USE32 PUBLIC 'CODE'
_TEXT	ENDS
;	COMDAT ??$_Destroy_range@JV?$allocator@J@std@@@std@@YAXPAJ0AAV?$allocator@J@0@U_Scalar_ptr_iterator_tag@0@@Z
_TEXT	SEGMENT PARA USE32 PUBLIC 'CODE'
_TEXT	ENDS
;	COMDAT ??$_Uninit_fill_n@JIJ@std@@YAXPAJIABJAAV?$allocator@J@0@U_Scalar_ptr_iterator_tag@0@@Z
_TEXT	SEGMENT PARA USE32 PUBLIC 'CODE'
_TEXT	ENDS
;	COMDAT ??$_Destroy_range@U__SPAWNREGION@CEventLua@@V?$allocator@U__SPAWNREGION@CEventLua@@@std@@@std@@YAXPAU__SPAWNREGION@CEventLua@@0AAV?$allocator@U__SPAWNREGION@CEventLua@@@0@U_Nonscalar_ptr_iterator_tag@0@@Z
_TEXT	SEGMENT PARA USE32 PUBLIC 'CODE'
_TEXT	ENDS
;	COMDAT ??$?0PAUtagACTMSG@@@?$allocator@PAPAUtagACTMSG@@@std@@QAE@ABV?$allocator@PAUtagACTMSG@@@1@@Z
_TEXT	SEGMENT PARA USE32 PUBLIC 'CODE'
_TEXT	ENDS
;	COMDAT ??$_Destroy@PAPAUtagACTMSG@@@std@@YAXPAPAPAUtagACTMSG@@@Z
_TEXT	SEGMENT PARA USE32 PUBLIC 'CODE'
_TEXT	ENDS
;	COMDAT ??$?0PAUtagMAGICATKMSG@@@?$allocator@PAPAUtagMAGICATKMSG@@@std@@QAE@ABV?$allocator@PAUtagMAGICATKMSG@@@1@@Z
_TEXT	SEGMENT PARA USE32 PUBLIC 'CODE'
_TEXT	ENDS
;	COMDAT ??$_Destroy@PAPAUtagMAGICATKMSG@@@std@@YAXPAPAPAUtagMAGICATKMSG@@@Z
_TEXT	SEGMENT PARA USE32 PUBLIC 'CODE'
_TEXT	ENDS
;	COMDAT ??$_Destroy@PAUtagACTMSG@@@std@@YAXPAPAUtagACTMSG@@@Z
_TEXT	SEGMENT PARA USE32 PUBLIC 'CODE'
_TEXT	ENDS
;	COMDAT ??$_Destroy@PAUtagMAGICATKMSG@@@std@@YAXPAPAUtagMAGICATKMSG@@@Z
_TEXT	SEGMENT PARA USE32 PUBLIC 'CODE'
_TEXT	ENDS
;	COMDAT ?destroy@?$allocator@UtagDROPITEM@@@std@@QAEXPAUtagDROPITEM@@@Z
_TEXT	SEGMENT PARA USE32 PUBLIC 'CODE'
_TEXT	ENDS
;	COMDAT ?destroy@?$allocator@UWORMON@@@std@@QAEXPAUWORMON@@@Z
_TEXT	SEGMENT PARA USE32 PUBLIC 'CODE'
_TEXT	ENDS
;	COMDAT ?destroy@?$allocator@U__ITEMGAME@CMiniGame@@@std@@QAEXPAU__ITEMGAME@CMiniGame@@@Z
_TEXT	SEGMENT PARA USE32 PUBLIC 'CODE'
_TEXT	ENDS
;	COMDAT ?destroy@?$allocator@U__ITEM@CExchange@@@std@@QAEXPAU__ITEM@CExchange@@@Z
_TEXT	SEGMENT PARA USE32 PUBLIC 'CODE'
_TEXT	ENDS
;	COMDAT ?destroy@?$allocator@U__POINT@CExchange@@@std@@QAEXPAU__POINT@CExchange@@@Z
_TEXT	SEGMENT PARA USE32 PUBLIC 'CODE'
_TEXT	ENDS
;	COMDAT ?begin@?$vector@EV?$allocator@E@std@@@std@@QAE?AViterator@12@XZ
_TEXT	SEGMENT PARA USE32 PUBLIC 'CODE'
_TEXT	ENDS
;	COMDAT ?end@?$vector@EV?$allocator@E@std@@@std@@QAE?AViterator@12@XZ
_TEXT	SEGMENT PARA USE32 PUBLIC 'CODE'
_TEXT	ENDS
;	COMDAT ?erase@?$vector@EV?$allocator@E@std@@@std@@QAE?AViterator@12@V312@0@Z
_TEXT	SEGMENT PARA USE32 PUBLIC 'CODE'
_TEXT	ENDS
;	COMDAT ?construct@?$allocator@U__SPAWNREGION@CEventLua@@@std@@QAEXPAU__SPAWNREGION@CEventLua@@ABU34@@Z
_TEXT	SEGMENT PARA USE32 PUBLIC 'CODE'
_TEXT	ENDS
;	COMDAT ?destroy@?$allocator@U__SPAWNREGION@CEventLua@@@std@@QAEXPAU__SPAWNREGION@CEventLua@@@Z
_TEXT	SEGMENT PARA USE32 PUBLIC 'CODE'
_TEXT	ENDS
;	COMDAT ?destroy@?$allocator@UD3DXVECTOR3@@@std@@QAEXPAUD3DXVECTOR3@@@Z
_TEXT	SEGMENT PARA USE32 PUBLIC 'CODE'
_TEXT	ENDS
;	COMDAT ?destroy@?$allocator@U_GIFTBOX@@@std@@QAEXPAU_GIFTBOX@@@Z
_TEXT	SEGMENT PARA USE32 PUBLIC 'CODE'
_TEXT	ENDS
;	COMDAT ??9const_iterator@?$vector@EV?$allocator@E@std@@@std@@QBE_NABV012@@Z
_TEXT	SEGMENT PARA USE32 PUBLIC 'CODE'
_TEXT	ENDS
;	COMDAT ??0iterator@?$vector@EV?$allocator@E@std@@@std@@QAE@PAE@Z
_TEXT	SEGMENT PARA USE32 PUBLIC 'CODE'
_TEXT	ENDS
;	COMDAT ??8const_iterator@?$vector@EV?$allocator@E@std@@@std@@QBE_NABV012@@Z
_TEXT	SEGMENT PARA USE32 PUBLIC 'CODE'
_TEXT	ENDS
;	COMDAT ??$insert@Vconst_iterator@?$vector@EV?$allocator@E@std@@@std@@@?$vector@EV?$allocator@E@std@@@std@@QAEXViterator@01@Vconst_iterator@01@1@Z
_TEXT	SEGMENT PARA USE32 PUBLIC 'CODE'
_TEXT	ENDS
;	COMDAT ??$_Ptr_cat@Vconst_iterator@?$vector@EV?$allocator@E@std@@@std@@PAE@std@@YA?AU_Nonscalar_ptr_iterator_tag@0@AAVconst_iterator@?$vector@EV?$allocator@E@std@@@0@AAPAE@Z
_TEXT	SEGMENT PARA USE32 PUBLIC 'CODE'
_TEXT	ENDS
;	COMDAT ??$_Uninit_copy@Vconst_iterator@?$vector@EV?$allocator@E@std@@@std@@PAEV?$allocator@E@3@@std@@YAPAEVconst_iterator@?$vector@EV?$allocator@E@std@@@0@0PAEAAV?$allocator@E@0@U_Nonscalar_ptr_iterator_tag@0@@Z
_TEXT	SEGMENT PARA USE32 PUBLIC 'CODE'
_TEXT	ENDS
;	COMDAT ??$_Uninit_copy@JJ@std@@YAPAJPAJ00AAV?$allocator@J@0@U_Scalar_ptr_iterator_tag@0@@Z
_TEXT	SEGMENT PARA USE32 PUBLIC 'CODE'
_TEXT	ENDS
;	COMDAT ??$_Uninit_copy@PAU__SPAWNREGION@CEventLua@@PAU12@V?$allocator@U__SPAWNREGION@CEventLua@@@std@@@std@@YAPAU__SPAWNREGION@CEventLua@@PAU12@00AAV?$allocator@U__SPAWNREGION@CEventLua@@@0@U_Nonscalar_ptr_iterator_tag@0@@Z
_TEXT	SEGMENT PARA USE32 PUBLIC 'CODE'
_TEXT	ENDS
;	COMDAT ??$fill_n@PAJIJ@std@@YAXPAJIABJ@Z
_TEXT	SEGMENT PARA USE32 PUBLIC 'CODE'
_TEXT	ENDS
;	COMDAT ??$_Destroy@UtagDROPITEM@@@std@@YAXPAUtagDROPITEM@@@Z
_TEXT	SEGMENT PARA USE32 PUBLIC 'CODE'
_TEXT	ENDS
;	COMDAT ??$_Destroy@UWORMON@@@std@@YAXPAUWORMON@@@Z
_TEXT	SEGMENT PARA USE32 PUBLIC 'CODE'
_TEXT	ENDS
;	COMDAT ??$_Destroy@U__ITEMGAME@CMiniGame@@@std@@YAXPAU__ITEMGAME@CMiniGame@@@Z
_TEXT	SEGMENT PARA USE32 PUBLIC 'CODE'
_TEXT	ENDS
;	COMDAT ??$_Destroy@U__ITEM@CExchange@@@std@@YAXPAU__ITEM@CExchange@@@Z
_TEXT	SEGMENT PARA USE32 PUBLIC 'CODE'
_TEXT	ENDS
;	COMDAT ??$_Destroy@U__POINT@CExchange@@@std@@YAXPAU__POINT@CExchange@@@Z
_TEXT	SEGMENT PARA USE32 PUBLIC 'CODE'
_TEXT	ENDS
;	COMDAT ??$copy@PAEPAE@std@@YAPAEPAE00@Z
_TEXT	SEGMENT PARA USE32 PUBLIC 'CODE'
_TEXT	ENDS
;	COMDAT ??$_Construct@U__SPAWNREGION@CEventLua@@U12@@std@@YAXPAU__SPAWNREGION@CEventLua@@ABU12@@Z
_TEXT	SEGMENT PARA USE32 PUBLIC 'CODE'
_TEXT	ENDS
;	COMDAT ??$_Destroy@U__SPAWNREGION@CEventLua@@@std@@YAXPAU__SPAWNREGION@CEventLua@@@Z
_TEXT	SEGMENT PARA USE32 PUBLIC 'CODE'
_TEXT	ENDS
;	COMDAT ??$_Destroy@UD3DXVECTOR3@@@std@@YAXPAUD3DXVECTOR3@@@Z
_TEXT	SEGMENT PARA USE32 PUBLIC 'CODE'
_TEXT	ENDS
;	COMDAT ??$_Destroy@U_GIFTBOX@@@std@@YAXPAU_GIFTBOX@@@Z
_TEXT	SEGMENT PARA USE32 PUBLIC 'CODE'
_TEXT	ENDS
;	COMDAT ?construct@?$allocator@E@std@@QAEXPAEABE@Z
_TEXT	SEGMENT PARA USE32 PUBLIC 'CODE'
_TEXT	ENDS
;	COMDAT ?destroy@?$allocator@E@std@@QAEXPAE@Z
_TEXT	SEGMENT PARA USE32 PUBLIC 'CODE'
_TEXT	ENDS
;	COMDAT ??Dconst_iterator@?$vector@EV?$allocator@E@std@@@std@@QBEABEXZ
_TEXT	SEGMENT PARA USE32 PUBLIC 'CODE'
_TEXT	ENDS
;	COMDAT ??Econst_iterator@?$vector@EV?$allocator@E@std@@@std@@QAEAAV012@XZ
_TEXT	SEGMENT PARA USE32 PUBLIC 'CODE'
_TEXT	ENDS
;	COMDAT ??$_Insert@Vconst_iterator@?$vector@EV?$allocator@E@std@@@std@@@?$vector@EV?$allocator@E@std@@@std@@QAEXViterator@01@Vconst_iterator@01@1Uforward_iterator_tag@1@@Z
_TEXT	SEGMENT PARA USE32 PUBLIC 'CODE'
_TEXT	ENDS
;	COMDAT ??$_Copy_opt@PAEPAE@std@@YAPAEPAE00U_Scalar_ptr_iterator_tag@0@@Z
_TEXT	SEGMENT PARA USE32 PUBLIC 'CODE'
_TEXT	ENDS
;	COMDAT ??$_Construct@EE@std@@YAXPAEABE@Z
_TEXT	SEGMENT PARA USE32 PUBLIC 'CODE'
_TEXT	ENDS
;	COMDAT ??$_Destroy@E@std@@YAXPAE@Z
_TEXT	SEGMENT PARA USE32 PUBLIC 'CODE'
_TEXT	ENDS
;	COMDAT ?capacity@?$vector@EV?$allocator@E@std@@@std@@QBEIXZ
_TEXT	SEGMENT PARA USE32 PUBLIC 'CODE'
_TEXT	ENDS
;	COMDAT ??Giterator@?$vector@EV?$allocator@E@std@@@std@@QBEHABVconst_iterator@12@@Z
_TEXT	SEGMENT PARA USE32 PUBLIC 'CODE'
_TEXT	ENDS
;	COMDAT ??Gconst_iterator@?$vector@EV?$allocator@E@std@@@std@@QBEHABV012@@Z
_TEXT	SEGMENT PARA USE32 PUBLIC 'CODE'
_TEXT	ENDS
;	COMDAT ??$_Distance@Vconst_iterator@?$vector@EV?$allocator@E@std@@@std@@I@std@@YAXVconst_iterator@?$vector@EV?$allocator@E@std@@@0@0AAI@Z
_TEXT	SEGMENT PARA USE32 PUBLIC 'CODE'
_TEXT	ENDS
;	COMDAT ??$_Ucopy@PAE@?$vector@EV?$allocator@E@std@@@std@@IAEPAEPAE00@Z
_TEXT	SEGMENT PARA USE32 PUBLIC 'CODE'
_TEXT	ENDS
;	COMDAT ??$advance@Vconst_iterator@?$vector@EV?$allocator@E@std@@@std@@H@std@@YAXAAVconst_iterator@?$vector@EV?$allocator@E@std@@@0@H@Z
_TEXT	SEGMENT PARA USE32 PUBLIC 'CODE'
_TEXT	ENDS
;	COMDAT ??$copy@Vconst_iterator@?$vector@EV?$allocator@E@std@@@std@@PAE@std@@YAPAEVconst_iterator@?$vector@EV?$allocator@E@std@@@0@0PAE@Z
_TEXT	SEGMENT PARA USE32 PUBLIC 'CODE'
_TEXT	ENDS
;	COMDAT ??$copy_backward@PAEPAE@std@@YAPAEPAE00@Z
_TEXT	SEGMENT PARA USE32 PUBLIC 'CODE'
_TEXT	ENDS
;	COMDAT ??$_Distance2@Vconst_iterator@?$vector@EV?$allocator@E@std@@@std@@I@std@@YAXVconst_iterator@?$vector@EV?$allocator@E@std@@@0@0AAIUrandom_access_iterator_tag@0@@Z
_TEXT	SEGMENT PARA USE32 PUBLIC 'CODE'
_TEXT	ENDS
;	COMDAT ??$_Uninitialized_copy@PAEPAEV?$allocator@E@std@@@std@@YAPAEPAE00AAV?$allocator@E@0@@Z
_TEXT	SEGMENT PARA USE32 PUBLIC 'CODE'
_TEXT	ENDS
;	COMDAT ??$_Advance@Vconst_iterator@?$vector@EV?$allocator@E@std@@@std@@H@std@@YAXAAVconst_iterator@?$vector@EV?$allocator@E@std@@@0@HUrandom_access_iterator_tag@0@@Z
_TEXT	SEGMENT PARA USE32 PUBLIC 'CODE'
_TEXT	ENDS
;	COMDAT ??$_Copy_opt@Vconst_iterator@?$vector@EV?$allocator@E@std@@@std@@PAE@std@@YAPAEVconst_iterator@?$vector@EV?$allocator@E@std@@@0@0PAEU_Nonscalar_ptr_iterator_tag@0@@Z
_TEXT	SEGMENT PARA USE32 PUBLIC 'CODE'
_TEXT	ENDS
;	COMDAT ??$_Copy_backward_opt@PAEPAE@std@@YAPAEPAE00U_Scalar_ptr_iterator_tag@0@@Z
_TEXT	SEGMENT PARA USE32 PUBLIC 'CODE'
_TEXT	ENDS
;	COMDAT ??Yconst_iterator@?$vector@EV?$allocator@E@std@@@std@@QAEAAV012@H@Z
_TEXT	SEGMENT PARA USE32 PUBLIC 'CODE'
_TEXT	ENDS
;	COMDAT ??$_Uninit_copy@EE@std@@YAPAEPAE00AAV?$allocator@E@0@U_Scalar_ptr_iterator_tag@0@@Z
_TEXT	SEGMENT PARA USE32 PUBLIC 'CODE'
_TEXT	ENDS
;	COMDAT ?deallocate@?$allocator@E@std@@QAEXPAEI@Z
_TEXT	SEGMENT PARA USE32 PUBLIC 'CODE'
_TEXT	ENDS
;	COMDAT ??$_Ucopy@Vconst_iterator@?$vector@EV?$allocator@E@std@@@std@@@?$vector@EV?$allocator@E@std@@@std@@IAEPAEVconst_iterator@01@0PAE@Z
_TEXT	SEGMENT PARA USE32 PUBLIC 'CODE'
_TEXT	ENDS
;	COMDAT ?allocate@?$allocator@E@std@@QAEPAEI@Z
_TEXT	SEGMENT PARA USE32 PUBLIC 'CODE'
_TEXT	ENDS
;	COMDAT ??$_Allocate@E@std@@YAPAEIPAE@Z
_TEXT	SEGMENT PARA USE32 PUBLIC 'CODE'
_TEXT	ENDS
;	COMDAT ?_Xlen@?$vector@EV?$allocator@E@std@@@std@@IBEXXZ
_TEXT	SEGMENT PARA USE32 PUBLIC 'CODE'
_TEXT	ENDS
;	COMDAT ??0length_error@std@@QAE@ABV?$basic_string@DU?$char_traits@D@std@@V?$allocator@D@2@@1@@Z
_TEXT	SEGMENT PARA USE32 PUBLIC 'CODE'
_TEXT	ENDS
;	COMDAT ??0logic_error@std@@QAE@ABV?$basic_string@DU?$char_traits@D@std@@V?$allocator@D@2@@1@@Z
_TEXT	SEGMENT PARA USE32 PUBLIC 'CODE'
_TEXT	ENDS
;	COMDAT ??_7logic_error@std@@6B@
CONST	SEGMENT DWORD USE32 PUBLIC 'CONST'
CONST	ENDS
;	COMDAT ??_Glogic_error@std@@UAEPAXI@Z
_TEXT	SEGMENT PARA USE32 PUBLIC 'CODE'
_TEXT	ENDS
;	COMDAT ?what@logic_error@std@@UBEPBDXZ
_TEXT	SEGMENT PARA USE32 PUBLIC 'CODE'
_TEXT	ENDS
;	COMDAT ?c_str@?$basic_string@DU?$char_traits@D@std@@V?$allocator@D@2@@std@@QBEPBDXZ
_TEXT	SEGMENT PARA USE32 PUBLIC 'CODE'
_TEXT	ENDS
;	COMDAT ??0?$basic_string@DU?$char_traits@D@std@@V?$allocator@D@2@@std@@QAE@ABV01@@Z
_TEXT	SEGMENT PARA USE32 PUBLIC 'CODE'
_TEXT	ENDS
;	COMDAT ??0?$_String_val@DV?$allocator@D@std@@@std@@IAE@V?$allocator@D@1@@Z
_TEXT	SEGMENT PARA USE32 PUBLIC 'CODE'
_TEXT	ENDS
;	COMDAT ??0?$allocator@D@std@@QAE@ABV01@@Z
_TEXT	SEGMENT PARA USE32 PUBLIC 'CODE'
_TEXT	ENDS
;	COMDAT ?_Tidy@?$basic_string@DU?$char_traits@D@std@@V?$allocator@D@2@@std@@IAEX_NI@Z
_TEXT	SEGMENT PARA USE32 PUBLIC 'CODE'
_TEXT	ENDS
;	COMDAT ?copy@?$char_traits@D@std@@SAPADPADPBDI@Z
_TEXT	SEGMENT PARA USE32 PUBLIC 'CODE'
_TEXT	ENDS
;	COMDAT ?deallocate@?$allocator@D@std@@QAEXPADI@Z
_TEXT	SEGMENT PARA USE32 PUBLIC 'CODE'
_TEXT	ENDS
;	COMDAT ?_Eos@?$basic_string@DU?$char_traits@D@std@@V?$allocator@D@2@@std@@IAEXI@Z
_TEXT	SEGMENT PARA USE32 PUBLIC 'CODE'
_TEXT	ENDS
;	COMDAT ?assign@?$char_traits@D@std@@SAXAADABD@Z
_TEXT	SEGMENT PARA USE32 PUBLIC 'CODE'
_TEXT	ENDS
;	COMDAT ?_Myptr@?$basic_string@DU?$char_traits@D@std@@V?$allocator@D@2@@std@@QAEPADXZ
_TEXT	SEGMENT PARA USE32 PUBLIC 'CODE'
_TEXT	ENDS
;	COMDAT ?assign@?$basic_string@DU?$char_traits@D@std@@V?$allocator@D@2@@std@@QAEAAV12@ABV12@II@Z
_TEXT	SEGMENT PARA USE32 PUBLIC 'CODE'
_TEXT	ENDS
;	COMDAT ?erase@?$basic_string@DU?$char_traits@D@std@@V?$allocator@D@2@@std@@QAEAAV12@II@Z
_TEXT	SEGMENT PARA USE32 PUBLIC 'CODE'
_TEXT	ENDS
;	COMDAT ?move@?$char_traits@D@std@@SAPADPADPBDI@Z
_TEXT	SEGMENT PARA USE32 PUBLIC 'CODE'
_TEXT	ENDS
;	COMDAT ?_Grow@?$basic_string@DU?$char_traits@D@std@@V?$allocator@D@2@@std@@IAE_NI_N@Z
_TEXT	SEGMENT PARA USE32 PUBLIC 'CODE'
_TEXT	ENDS
;	COMDAT ?max_size@?$basic_string@DU?$char_traits@D@std@@V?$allocator@D@2@@std@@QBEIXZ
_TEXT	SEGMENT PARA USE32 PUBLIC 'CODE'
_TEXT	ENDS
;	COMDAT ?max_size@?$allocator@D@std@@QBEIXZ
_TEXT	SEGMENT PARA USE32 PUBLIC 'CODE'
_TEXT	ENDS
;	COMDAT ?_Copy@?$basic_string@DU?$char_traits@D@std@@V?$allocator@D@2@@std@@IAEXII@Z
_TEXT	SEGMENT PARA USE32 PUBLIC 'CODE'
_TEXT	ENDS
;	COMDAT ?allocate@?$allocator@D@std@@QAEPADI@Z
_TEXT	SEGMENT PARA USE32 PUBLIC 'CODE'
_TEXT	ENDS
;	COMDAT ??$_Allocate@D@std@@YAPADIPAD@Z
_TEXT	SEGMENT PARA USE32 PUBLIC 'CODE'
_TEXT	ENDS
;	COMDAT ?npos@?$basic_string@DU?$char_traits@D@std@@V?$allocator@D@2@@std@@2IB
CONST	SEGMENT DWORD USE32 PUBLIC 'CONST'
CONST	ENDS
;	COMDAT ??1logic_error@std@@UAE@XZ
_TEXT	SEGMENT PARA USE32 PUBLIC 'CODE'
_TEXT	ENDS
;	COMDAT ??_7length_error@std@@6B@
CONST	SEGMENT DWORD USE32 PUBLIC 'CONST'
CONST	ENDS
;	COMDAT ??_Glength_error@std@@UAEPAXI@Z
_TEXT	SEGMENT PARA USE32 PUBLIC 'CODE'
_TEXT	ENDS
;	COMDAT ??1length_error@std@@UAE@XZ
_TEXT	SEGMENT PARA USE32 PUBLIC 'CODE'
_TEXT	ENDS
;	COMDAT ??0?$basic_string@DU?$char_traits@D@std@@V?$allocator@D@2@@std@@QAE@PBD@Z
_TEXT	SEGMENT PARA USE32 PUBLIC 'CODE'
_TEXT	ENDS
;	COMDAT ??0?$allocator@D@std@@QAE@XZ
_TEXT	SEGMENT PARA USE32 PUBLIC 'CODE'
_TEXT	ENDS
;	COMDAT ?assign@?$basic_string@DU?$char_traits@D@std@@V?$allocator@D@2@@std@@QAEAAV12@PBD@Z
_TEXT	SEGMENT PARA USE32 PUBLIC 'CODE'
_TEXT	ENDS
;	COMDAT ?assign@?$basic_string@DU?$char_traits@D@std@@V?$allocator@D@2@@std@@QAEAAV12@PBDI@Z
_TEXT	SEGMENT PARA USE32 PUBLIC 'CODE'
_TEXT	ENDS
;	COMDAT ?_Inside@?$basic_string@DU?$char_traits@D@std@@V?$allocator@D@2@@std@@IAE_NPBD@Z
_TEXT	SEGMENT PARA USE32 PUBLIC 'CODE'
_TEXT	ENDS
;	COMDAT ?length@?$char_traits@D@std@@SAIPBD@Z
_TEXT	SEGMENT PARA USE32 PUBLIC 'CODE'
_TEXT	ENDS
;	COMDAT ??_C@_0BD@OLBABOEK@vector?$DMT?$DO?5too?5long?$AA@
CONST	SEGMENT DWORD USE32 PUBLIC 'CONST'
CONST	ENDS
;	COMDAT ??1?$basic_string@DU?$char_traits@D@std@@V?$allocator@D@2@@std@@QAE@XZ
_TEXT	SEGMENT PARA USE32 PUBLIC 'CODE'
_TEXT	ENDS
;	COMDAT __TI3?AVlength_error@std@@
xdata$x	SEGMENT DWORD USE32 PUBLIC 'CONST'
xdata$x	ENDS
;	COMDAT __CTA3?AVlength_error@std@@
xdata$x	SEGMENT DWORD USE32 PUBLIC 'CONST'
xdata$x	ENDS
;	COMDAT __CT??_R0?AVlength_error@std@@@8??0length_error@std@@QAE@ABV01@@Z40
xdata$x	SEGMENT DWORD USE32 PUBLIC 'CONST'
xdata$x	ENDS
;	COMDAT ??_R0?AVlength_error@std@@@8
_DATA	SEGMENT DWORD USE32 PUBLIC 'DATA'
_DATA	ENDS
;	COMDAT ??0length_error@std@@QAE@ABV01@@Z
_TEXT	SEGMENT PARA USE32 PUBLIC 'CODE'
_TEXT	ENDS
;	COMDAT ??0logic_error@std@@QAE@ABV01@@Z
_TEXT	SEGMENT PARA USE32 PUBLIC 'CODE'
_TEXT	ENDS
;	COMDAT __CT??_R0?AVlogic_error@std@@@8??0logic_error@std@@QAE@ABV01@@Z40
xdata$x	SEGMENT DWORD USE32 PUBLIC 'CONST'
xdata$x	ENDS
;	COMDAT ??_R0?AVlogic_error@std@@@8
_DATA	SEGMENT DWORD USE32 PUBLIC 'DATA'
_DATA	ENDS
;	COMDAT __CT??_R0?AVexception@@@8??0exception@@QAE@ABV0@@Z12
xdata$x	SEGMENT DWORD USE32 PUBLIC 'CONST'
xdata$x	ENDS
;	COMDAT ??_R0?AVexception@@@8
_DATA	SEGMENT DWORD USE32 PUBLIC 'DATA'
_DATA	ENDS
;	COMDAT ?size@?$vector@EV?$allocator@E@std@@@std@@QBEIXZ
_TEXT	SEGMENT PARA USE32 PUBLIC 'CODE'
_TEXT	ENDS
;	COMDAT ?max_size@?$vector@EV?$allocator@E@std@@@std@@QBEIXZ
_TEXT	SEGMENT PARA USE32 PUBLIC 'CODE'
_TEXT	ENDS
;	COMDAT ?max_size@?$allocator@E@std@@QBEIXZ
_TEXT	SEGMENT PARA USE32 PUBLIC 'CODE'
_TEXT	ENDS
;	COMDAT ??2@YAPAXIPAX@Z
_TEXT	SEGMENT PARA USE32 PUBLIC 'CODE'
_TEXT	ENDS
;	COMDAT ?_Ptr_cat@std@@YA?AU_Scalar_ptr_iterator_tag@1@PAE0@Z
_TEXT	SEGMENT PARA USE32 PUBLIC 'CODE'
_TEXT	ENDS
;	COMDAT ??0const_iterator@?$vector@EV?$allocator@E@std@@@std@@QAE@PAE@Z
_TEXT	SEGMENT PARA USE32 PUBLIC 'CODE'
_TEXT	ENDS
;	COMDAT ?_Destroy@?$vector@EV?$allocator@E@std@@@std@@IAEXPAE0@Z
_TEXT	SEGMENT PARA USE32 PUBLIC 'CODE'
_TEXT	ENDS
;	COMDAT ??$_Destroy_range@EV?$allocator@E@std@@@std@@YAXPAE0AAV?$allocator@E@0@@Z
_TEXT	SEGMENT PARA USE32 PUBLIC 'CODE'
_TEXT	ENDS
;	COMDAT ?_Ptr_cat@std@@YA?AU_Scalar_ptr_iterator_tag@1@PAJ0@Z
_TEXT	SEGMENT PARA USE32 PUBLIC 'CODE'
_TEXT	ENDS
;	COMDAT ??9const_iterator@?$_Tree@V?$_Tmap_traits@KEU?$less@K@std@@V?$allocator@U?$pair@$$CBKE@std@@@2@$0A@@std@@@std@@QBE_NABV012@@Z
_TEXT	SEGMENT PARA USE32 PUBLIC 'CODE'
_TEXT	ENDS
;	COMDAT ??8const_iterator@?$_Tree@V?$_Tmap_traits@KEU?$less@K@std@@V?$allocator@U?$pair@$$CBKE@std@@@2@$0A@@std@@@std@@QBE_NABV012@@Z
_TEXT	SEGMENT PARA USE32 PUBLIC 'CODE'
_TEXT	ENDS
;	COMDAT ??Eiterator@?$_Tree@V?$_Tmap_traits@KEU?$less@K@std@@V?$allocator@U?$pair@$$CBKE@std@@@2@$0A@@std@@@std@@QAEAAV012@XZ
_TEXT	SEGMENT PARA USE32 PUBLIC 'CODE'
_TEXT	ENDS
;	COMDAT ??Econst_iterator@?$_Tree@V?$_Tmap_traits@KEU?$less@K@std@@V?$allocator@U?$pair@$$CBKE@std@@@2@$0A@@std@@@std@@QAEAAV012@XZ
_TEXT	SEGMENT PARA USE32 PUBLIC 'CODE'
_TEXT	ENDS
;	COMDAT ?_Inc@const_iterator@?$_Tree@V?$_Tmap_traits@KEU?$less@K@std@@V?$allocator@U?$pair@$$CBKE@std@@@2@$0A@@std@@@std@@QAEXXZ
_TEXT	SEGMENT PARA USE32 PUBLIC 'CODE'
_TEXT	ENDS
;	COMDAT ?_Min@?$_Tree@V?$_Tmap_traits@KEU?$less@K@std@@V?$allocator@U?$pair@$$CBKE@std@@@2@$0A@@std@@@std@@KAPAU_Node@?$_Tree_nod@V?$_Tmap_traits@KEU?$less@K@std@@V?$allocator@U?$pair@$$CBKE@std@@@2@$0A@@std@@@2@PAU342@@Z
_TEXT	SEGMENT PARA USE32 PUBLIC 'CODE'
_TEXT	ENDS
;	COMDAT ?_Left@?$_Tree@V?$_Tmap_traits@KEU?$less@K@std@@V?$allocator@U?$pair@$$CBKE@std@@@2@$0A@@std@@@std@@KAAAPAU_Node@?$_Tree_nod@V?$_Tmap_traits@KEU?$less@K@std@@V?$allocator@U?$pair@$$CBKE@std@@@2@$0A@@std@@@2@PAU342@@Z
_TEXT	SEGMENT PARA USE32 PUBLIC 'CODE'
_TEXT	ENDS
;	COMDAT ?_Isnil@?$_Tree@V?$_Tmap_traits@KEU?$less@K@std@@V?$allocator@U?$pair@$$CBKE@std@@@2@$0A@@std@@@std@@KAAADPAU_Node@?$_Tree_nod@V?$_Tmap_traits@KEU?$less@K@std@@V?$allocator@U?$pair@$$CBKE@std@@@2@$0A@@std@@@2@@Z
_TEXT	SEGMENT PARA USE32 PUBLIC 'CODE'
_TEXT	ENDS
;	COMDAT ?_Parent@?$_Tree@V?$_Tmap_traits@KEU?$less@K@std@@V?$allocator@U?$pair@$$CBKE@std@@@2@$0A@@std@@@std@@KAAAPAU_Node@?$_Tree_nod@V?$_Tmap_traits@KEU?$less@K@std@@V?$allocator@U?$pair@$$CBKE@std@@@2@$0A@@std@@@2@PAU342@@Z
_TEXT	SEGMENT PARA USE32 PUBLIC 'CODE'
_TEXT	ENDS
;	COMDAT ?_Right@?$_Tree@V?$_Tmap_traits@KEU?$less@K@std@@V?$allocator@U?$pair@$$CBKE@std@@@2@$0A@@std@@@std@@KAAAPAU_Node@?$_Tree_nod@V?$_Tmap_traits@KEU?$less@K@std@@V?$allocator@U?$pair@$$CBKE@std@@@2@$0A@@std@@@2@PAU342@@Z
_TEXT	SEGMENT PARA USE32 PUBLIC 'CODE'
_TEXT	ENDS
;	COMDAT ??9const_iterator@?$_Tree@V?$_Tmap_traits@KPAVCCtrl@@U?$less@K@std@@V?$allocator@U?$pair@$$CBKPAVCCtrl@@@std@@@3@$0A@@std@@@std@@QBE_NABV012@@Z
_TEXT	SEGMENT PARA USE32 PUBLIC 'CODE'
_TEXT	ENDS
;	COMDAT ??8const_iterator@?$_Tree@V?$_Tmap_traits@KPAVCCtrl@@U?$less@K@std@@V?$allocator@U?$pair@$$CBKPAVCCtrl@@@std@@@3@$0A@@std@@@std@@QBE_NABV012@@Z
_TEXT	SEGMENT PARA USE32 PUBLIC 'CODE'
_TEXT	ENDS
;	COMDAT ??Eiterator@?$_Tree@V?$_Tmap_traits@KPAVCCtrl@@U?$less@K@std@@V?$allocator@U?$pair@$$CBKPAVCCtrl@@@std@@@3@$0A@@std@@@std@@QAEAAV012@XZ
_TEXT	SEGMENT PARA USE32 PUBLIC 'CODE'
_TEXT	ENDS
;	COMDAT ??Econst_iterator@?$_Tree@V?$_Tmap_traits@KPAVCCtrl@@U?$less@K@std@@V?$allocator@U?$pair@$$CBKPAVCCtrl@@@std@@@3@$0A@@std@@@std@@QAEAAV012@XZ
_TEXT	SEGMENT PARA USE32 PUBLIC 'CODE'
_TEXT	ENDS
;	COMDAT ?_Inc@const_iterator@?$_Tree@V?$_Tmap_traits@KPAVCCtrl@@U?$less@K@std@@V?$allocator@U?$pair@$$CBKPAVCCtrl@@@std@@@3@$0A@@std@@@std@@QAEXXZ
_TEXT	SEGMENT PARA USE32 PUBLIC 'CODE'
_TEXT	ENDS
;	COMDAT ?_Min@?$_Tree@V?$_Tmap_traits@KPAVCCtrl@@U?$less@K@std@@V?$allocator@U?$pair@$$CBKPAVCCtrl@@@std@@@3@$0A@@std@@@std@@KAPAU_Node@?$_Tree_nod@V?$_Tmap_traits@KPAVCCtrl@@U?$less@K@std@@V?$allocator@U?$pair@$$CBKPAVCCtrl@@@std@@@3@$0A@@std@@@2@PAU342@@Z
_TEXT	SEGMENT PARA USE32 PUBLIC 'CODE'
_TEXT	ENDS
;	COMDAT ?_Left@?$_Tree@V?$_Tmap_traits@KPAVCCtrl@@U?$less@K@std@@V?$allocator@U?$pair@$$CBKPAVCCtrl@@@std@@@3@$0A@@std@@@std@@KAAAPAU_Node@?$_Tree_nod@V?$_Tmap_traits@KPAVCCtrl@@U?$less@K@std@@V?$allocator@U?$pair@$$CBKPAVCCtrl@@@std@@@3@$0A@@std@@@2@PAU342@@Z
_TEXT	SEGMENT PARA USE32 PUBLIC 'CODE'
_TEXT	ENDS
;	COMDAT ?_Isnil@?$_Tree@V?$_Tmap_traits@KPAVCCtrl@@U?$less@K@std@@V?$allocator@U?$pair@$$CBKPAVCCtrl@@@std@@@3@$0A@@std@@@std@@KAAADPAU_Node@?$_Tree_nod@V?$_Tmap_traits@KPAVCCtrl@@U?$less@K@std@@V?$allocator@U?$pair@$$CBKPAVCCtrl@@@std@@@3@$0A@@std@@@2@@Z
_TEXT	SEGMENT PARA USE32 PUBLIC 'CODE'
_TEXT	ENDS
;	COMDAT ?_Parent@?$_Tree@V?$_Tmap_traits@KPAVCCtrl@@U?$less@K@std@@V?$allocator@U?$pair@$$CBKPAVCCtrl@@@std@@@3@$0A@@std@@@std@@KAAAPAU_Node@?$_Tree_nod@V?$_Tmap_traits@KPAVCCtrl@@U?$less@K@std@@V?$allocator@U?$pair@$$CBKPAVCCtrl@@@std@@@3@$0A@@std@@@2@PAU342@@Z
_TEXT	SEGMENT PARA USE32 PUBLIC 'CODE'
_TEXT	ENDS
;	COMDAT ?_Right@?$_Tree@V?$_Tmap_traits@KPAVCCtrl@@U?$less@K@std@@V?$allocator@U?$pair@$$CBKPAVCCtrl@@@std@@@3@$0A@@std@@@std@@KAAAPAU_Node@?$_Tree_nod@V?$_Tmap_traits@KPAVCCtrl@@U?$less@K@std@@V?$allocator@U?$pair@$$CBKPAVCCtrl@@@std@@@3@$0A@@std@@@2@PAU342@@Z
_TEXT	SEGMENT PARA USE32 PUBLIC 'CODE'
_TEXT	ENDS
;	COMDAT ??9const_iterator@?$_Tree@V?$_Tmap_traits@KPAVCUser@@U?$less@K@std@@V?$allocator@U?$pair@$$CBKPAVCUser@@@std@@@3@$0A@@std@@@std@@QBE_NABV012@@Z
_TEXT	SEGMENT PARA USE32 PUBLIC 'CODE'
_TEXT	ENDS
;	COMDAT ??8const_iterator@?$_Tree@V?$_Tmap_traits@KPAVCUser@@U?$less@K@std@@V?$allocator@U?$pair@$$CBKPAVCUser@@@std@@@3@$0A@@std@@@std@@QBE_NABV012@@Z
_TEXT	SEGMENT PARA USE32 PUBLIC 'CODE'
_TEXT	ENDS
;	COMDAT ??Eiterator@?$_Tree@V?$_Tmap_traits@KPAVCUser@@U?$less@K@std@@V?$allocator@U?$pair@$$CBKPAVCUser@@@std@@@3@$0A@@std@@@std@@QAEAAV012@XZ
_TEXT	SEGMENT PARA USE32 PUBLIC 'CODE'
_TEXT	ENDS
;	COMDAT ??Econst_iterator@?$_Tree@V?$_Tmap_traits@KPAVCUser@@U?$less@K@std@@V?$allocator@U?$pair@$$CBKPAVCUser@@@std@@@3@$0A@@std@@@std@@QAEAAV012@XZ
_TEXT	SEGMENT PARA USE32 PUBLIC 'CODE'
_TEXT	ENDS
;	COMDAT ?_Inc@const_iterator@?$_Tree@V?$_Tmap_traits@KPAVCUser@@U?$less@K@std@@V?$allocator@U?$pair@$$CBKPAVCUser@@@std@@@3@$0A@@std@@@std@@QAEXXZ
_TEXT	SEGMENT PARA USE32 PUBLIC 'CODE'
_TEXT	ENDS
;	COMDAT ?_Min@?$_Tree@V?$_Tmap_traits@KPAVCUser@@U?$less@K@std@@V?$allocator@U?$pair@$$CBKPAVCUser@@@std@@@3@$0A@@std@@@std@@KAPAU_Node@?$_Tree_nod@V?$_Tmap_traits@KPAVCUser@@U?$less@K@std@@V?$allocator@U?$pair@$$CBKPAVCUser@@@std@@@3@$0A@@std@@@2@PAU342@@Z
_TEXT	SEGMENT PARA USE32 PUBLIC 'CODE'
_TEXT	ENDS
;	COMDAT ?_Left@?$_Tree@V?$_Tmap_traits@KPAVCUser@@U?$less@K@std@@V?$allocator@U?$pair@$$CBKPAVCUser@@@std@@@3@$0A@@std@@@std@@KAAAPAU_Node@?$_Tree_nod@V?$_Tmap_traits@KPAVCUser@@U?$less@K@std@@V?$allocator@U?$pair@$$CBKPAVCUser@@@std@@@3@$0A@@std@@@2@PAU342@@Z
_TEXT	SEGMENT PARA USE32 PUBLIC 'CODE'
_TEXT	ENDS
;	COMDAT ?_Isnil@?$_Tree@V?$_Tmap_traits@KPAVCUser@@U?$less@K@std@@V?$allocator@U?$pair@$$CBKPAVCUser@@@std@@@3@$0A@@std@@@std@@KAAADPAU_Node@?$_Tree_nod@V?$_Tmap_traits@KPAVCUser@@U?$less@K@std@@V?$allocator@U?$pair@$$CBKPAVCUser@@@std@@@3@$0A@@std@@@2@@Z
_TEXT	SEGMENT PARA USE32 PUBLIC 'CODE'
_TEXT	ENDS
;	COMDAT ?_Parent@?$_Tree@V?$_Tmap_traits@KPAVCUser@@U?$less@K@std@@V?$allocator@U?$pair@$$CBKPAVCUser@@@std@@@3@$0A@@std@@@std@@KAAAPAU_Node@?$_Tree_nod@V?$_Tmap_traits@KPAVCUser@@U?$less@K@std@@V?$allocator@U?$pair@$$CBKPAVCUser@@@std@@@3@$0A@@std@@@2@PAU342@@Z
_TEXT	SEGMENT PARA USE32 PUBLIC 'CODE'
_TEXT	ENDS
;	COMDAT ?_Right@?$_Tree@V?$_Tmap_traits@KPAVCUser@@U?$less@K@std@@V?$allocator@U?$pair@$$CBKPAVCUser@@@std@@@3@$0A@@std@@@std@@KAAAPAU_Node@?$_Tree_nod@V?$_Tmap_traits@KPAVCUser@@U?$less@K@std@@V?$allocator@U?$pair@$$CBKPAVCUser@@@std@@@3@$0A@@std@@@2@PAU342@@Z
_TEXT	SEGMENT PARA USE32 PUBLIC 'CODE'
_TEXT	ENDS
;	COMDAT ?_Psave@?$_Facetptr@V?$ctype@G@std@@@std@@2PBVfacet@locale@2@B
_DATA	SEGMENT DWORD USE32 PUBLIC 'DATA'
_DATA	ENDS
;	COMDAT ?_Psave@?$_Facetptr@V?$ctype@D@std@@@std@@2PBVfacet@locale@2@B
_DATA	SEGMENT DWORD USE32 PUBLIC 'DATA'
_DATA	ENDS
;	COMDAT ?compare@?$char_traits@D@std@@SAHPBD0I@Z
_TEXT	SEGMENT PARA USE32 PUBLIC 'CODE'
_TEXT	ENDS
;	COMDAT ?_Myptr@?$basic_string@DU?$char_traits@D@std@@V?$allocator@D@2@@std@@QBEPBDXZ
_TEXT	SEGMENT PARA USE32 PUBLIC 'CODE'
_TEXT	ENDS
;	COMDAT ?size@?$basic_string@DU?$char_traits@D@std@@V?$allocator@D@2@@std@@QBEIXZ
_TEXT	SEGMENT PARA USE32 PUBLIC 'CODE'
_TEXT	ENDS
;	COMDAT ?anIntexTable@?1??IntersectBB@CModel@@QAEHABUD3DXVECTOR3@@0ABUD3DXMATRIX@@PAU3@PAM@Z@4PAHA
_DATA	SEGMENT DWORD USE32 PUBLIC 'DATA'
_DATA	ENDS
;	COMDAT ?GetBBVector@CModel@@QAEPBUBOUND_BOX@@XZ
_TEXT	SEGMENT PARA USE32 PUBLIC 'CODE'
_TEXT	ENDS
;	COMDAT ??0D3DXVECTOR4@@QAE@XZ
_TEXT	SEGMENT PARA USE32 PUBLIC 'CODE'
_TEXT	ENDS
;	COMDAT ??0D3DXVECTOR3@@QAE@XZ
_TEXT	SEGMENT PARA USE32 PUBLIC 'CODE'
_TEXT	ENDS
;	COMDAT ?D3DXVec3Length@@YAMPBUD3DXVECTOR3@@@Z
_TEXT	SEGMENT PARA USE32 PUBLIC 'CODE'
_TEXT	ENDS
;	COMDAT _sqrtf
_TEXT	SEGMENT PARA USE32 PUBLIC 'CODE'
_TEXT	ENDS
;	COMDAT ??GD3DXVECTOR3@@QBE?AU0@ABU0@@Z
_TEXT	SEGMENT PARA USE32 PUBLIC 'CODE'
_TEXT	ENDS
;	COMDAT ??0D3DXVECTOR3@@QAE@MMM@Z
_TEXT	SEGMENT PARA USE32 PUBLIC 'CODE'
_TEXT	ENDS
;	COMDAT ?DeleteDeviceObjects@CModel@@UAEJXZ
_TEXT	SEGMENT PARA USE32 PUBLIC 'CODE'
_TEXT	ENDS
;	COMDAT ??_7CModel@@6B@
CONST	SEGMENT DWORD USE32 PUBLIC 'CONST'
CONST	ENDS
;	COMDAT ??_GCModel@@UAEPAXI@Z
_TEXT	SEGMENT PARA USE32 PUBLIC 'CODE'
_TEXT	ENDS
;	COMDAT ?LoadModel@CModel@@UAEHPBD@Z
_TEXT	SEGMENT PARA USE32 PUBLIC 'CODE'
_TEXT	ENDS
;	COMDAT ?SaveModel@CModel@@UAEHPBD@Z
_TEXT	SEGMENT PARA USE32 PUBLIC 'CODE'
_TEXT	ENDS
;	COMDAT ?ClearNormal@CModel@@UAEXXZ
_TEXT	SEGMENT PARA USE32 PUBLIC 'CODE'
_TEXT	ENDS
;	COMDAT ?IsLoadAttr@CModel@@UAEHXZ
_TEXT	SEGMENT PARA USE32 PUBLIC 'CODE'
_TEXT	ENDS
;	COMDAT ?GetMotionAttr@CModel@@UAEPAUMOTION_ATTR@@H@Z
_TEXT	SEGMENT PARA USE32 PUBLIC 'CODE'
_TEXT	ENDS
;	COMDAT ?GetAttr@CModel@@UAEKH@Z
_TEXT	SEGMENT PARA USE32 PUBLIC 'CODE'
_TEXT	ENDS
;	COMDAT ?IsAttrHit@CModel@@UAEKXZ
_TEXT	SEGMENT PARA USE32 PUBLIC 'CODE'
_TEXT	ENDS
;	COMDAT ?IsAttrHit@CModel@@UAEKM@Z
_TEXT	SEGMENT PARA USE32 PUBLIC 'CODE'
_TEXT	ENDS
;	COMDAT ?IsAttrSound@CModel@@UAEPAUMOTION_ATTR@@XZ
_TEXT	SEGMENT PARA USE32 PUBLIC 'CODE'
_TEXT	ENDS
;	COMDAT ?IsAttrSound@CModel@@UAEPAUMOTION_ATTR@@M@Z
_TEXT	SEGMENT PARA USE32 PUBLIC 'CODE'
_TEXT	ENDS
;	COMDAT ?IsAttrQuake@CModel@@UAEKXZ
_TEXT	SEGMENT PARA USE32 PUBLIC 'CODE'
_TEXT	ENDS
;	COMDAT ?IsAttrQuake@CModel@@UAEKM@Z
_TEXT	SEGMENT PARA USE32 PUBLIC 'CODE'
_TEXT	ENDS
;	COMDAT ?SetAttr@CModel@@UAEXMK@Z
_TEXT	SEGMENT PARA USE32 PUBLIC 'CODE'
_TEXT	ENDS
;	COMDAT ?ResetAttr@CModel@@UAEXHK@Z
_TEXT	SEGMENT PARA USE32 PUBLIC 'CODE'
_TEXT	ENDS
;	COMDAT ?SetGroup@CModel@@UAEXH@Z
_TEXT	SEGMENT PARA USE32 PUBLIC 'CODE'
_TEXT	ENDS
;	COMDAT ?IsHaveCollObj@CModel@@UAEHXZ
_TEXT	SEGMENT PARA USE32 PUBLIC 'CODE'
_TEXT	ENDS
;	COMDAT ?RenderEffect@CModel@@UAEXPAUIDirect3DDevice9@@PBUD3DXMATRIX@@KKHH@Z
_TEXT	SEGMENT PARA USE32 PUBLIC 'CODE'
_TEXT	ENDS
;	COMDAT ?InitDeviceObjects@CModel@@UAEJPAUIDirect3DDevice9@@@Z
_TEXT	SEGMENT PARA USE32 PUBLIC 'CODE'
_TEXT	ENDS
;	COMDAT ?RestoreDeviceObjects@CModel@@UAEJXZ
_TEXT	SEGMENT PARA USE32 PUBLIC 'CODE'
_TEXT	ENDS
;	COMDAT ?InvalidateDeviceObjects@CModel@@UAEJXZ
_TEXT	SEGMENT PARA USE32 PUBLIC 'CODE'
_TEXT	ENDS
;	COMDAT ?Intersect@CModel@@UAEHABUD3DXVECTOR3@@0ABUD3DXMATRIX@@PAU2@PAMH@Z
_TEXT	SEGMENT PARA USE32 PUBLIC 'CODE'
_TEXT	ENDS
;	COMDAT ?IntersectRayTri@CModel@@UAEPAUD3DXVECTOR3@@ABU2@0ABUD3DXMATRIX@@PAU2@PAMH@Z
_TEXT	SEGMENT PARA USE32 PUBLIC 'CODE'
_TEXT	ENDS
;	COMDAT ?IsTouchOBB_Line@CModel@@UAEHABUD3DXVECTOR3@@0ABUD3DXMATRIX@@PAU2@H@Z
_TEXT	SEGMENT PARA USE32 PUBLIC 'CODE'
_TEXT	ENDS
;	COMDAT ?TestIntersectionOBB_Line@CModel@@UAEHABVSegment3@@PBVCObj@@H@Z
_TEXT	SEGMENT PARA USE32 PUBLIC 'CODE'
_TEXT	ENDS
sxdata	SEGMENT DWORD USE32 'SXDATA'
sxdata	ENDS
FLAT	GROUP _DATA, CONST, _BSS
	ASSUME	CS: FLAT, DS: FLAT, SS: FLAT
endif

INCLUDELIB LIBCMT
INCLUDELIB OLDNAMES

PUBLIC	__real@3dcccccd
PUBLIC	?FrameMove@CModel@@UAEXPAUD3DXVECTOR3@@M@Z	; CModel::FrameMove
EXTRN	__ftol2:NEAR
EXTRN	__fltused:NEAR
;	COMDAT __real@3dcccccd
; File c:\documents and settings\test\mes documents\source\virtuos_v17\build\program\_common\model.cpp
CONST	SEGMENT
__real@3dcccccd DD 03dcccccdr			; 0.1
; Function compile flags: /Ogty
CONST	ENDS
;	COMDAT ?FrameMove@CModel@@UAEXPAUD3DXVECTOR3@@M@Z
_TEXT	SEGMENT
tv203 = -12						; size = 4
tv205 = -8						; size = 4
tv198 = -4						; size = 4
_pvSndPos$ = 8						; size = 4
_nCurrFrame$ = 12					; size = 4
_fSpeed$ = 12						; size = 4
?FrameMove@CModel@@UAEXPAUD3DXVECTOR3@@M@Z PROC NEAR	; CModel::FrameMove, COMDAT
; _this$ = ecx

; 14   : {

  00000	83 ec 0c	 sub	 esp, 12			; 0000000cH
  00003	56		 push	 esi
  00004	8b f1		 mov	 esi, ecx

; 15   : 	if( m_nPause )		

  00006	8b 86 94 00 00
	00		 mov	 eax, DWORD PTR [esi+148]
  0000c	85 c0		 test	 eax, eax
  0000e	0f 85 ea 00 00
	00		 jne	 $L225602
  00014	57		 push	 edi

; 16   : 		return;
; 17   : 	if( m_nFrameMax == 0 )	

  00015	8b be a8 00 00
	00		 mov	 edi, DWORD PTR [esi+168]
  0001b	85 ff		 test	 edi, edi
  0001d	89 7c 24 10	 mov	 DWORD PTR tv198[esp+20], edi
  00021	0f 84 d6 00 00
	00		 je	 $L226901

; 18   : 		return;		// 프레임이 없는건 돌필요 없다.
; 19   : 
; 20   : 	int		nCurrFrame;
; 21   : 	// 보간을 위한 Slerp 계산.
; 22   : 
; 23   : 	m_fFrameOld = m_fFrameCurrent;			// 바로 이전 프레임 번호를 받아둠.

  00027	d9 86 a0 00 00
	00		 fld	 DWORD PTR [esi+160]
  0002d	53		 push	 ebx
  0002e	d9 54 24 0c	 fst	 DWORD PTR tv203[esp+24]

; 24   : 
; 25   : 	if( m_fFrameOld > (float)(m_nFrameMax - 1) )

  00032	8d 5f ff	 lea	 ebx, DWORD PTR [edi-1]
  00035	d9 9e a4 00 00
	00		 fstp	 DWORD PTR [esi+164]
  0003b	89 5c 24 10	 mov	 DWORD PTR tv205[esp+24], ebx
  0003f	db 44 24 10	 fild	 DWORD PTR tv205[esp+24]
  00043	d9 44 24 0c	 fld	 DWORD PTR tv203[esp+24]
  00047	d8 d9		 fcomp	 ST(1)
  00049	df e0		 fnstsw	 ax
  0004b	f6 c4 41	 test	 ah, 65			; 00000041H
  0004e	75 0e		 jne	 SHORT $L225607

; 26   : 		m_fFrameOld -= (float)m_nFrameMax;

  00050	db 44 24 14	 fild	 DWORD PTR tv198[esp+24]
  00054	d8 6c 24 0c	 fsubr	 DWORD PTR tv203[esp+24]
  00058	d9 9e a4 00 00
	00		 fstp	 DWORD PTR [esi+164]
$L225607:

; 27   : 
; 28   : 	if( m_bSlow )

  0005e	8b 86 98 00 00
	00		 mov	 eax, DWORD PTR [esi+152]
  00064	85 c0		 test	 eax, eax
  00066	74 0e		 je	 SHORT $L225609

; 29   : 		m_fFrameCurrent += 0.1f;			// 애니메이션 진행

  00068	d9 86 a0 00 00
	00		 fld	 DWORD PTR [esi+160]
  0006e	d8 05 00 00 00
	00		 fadd	 DWORD PTR __real@3dcccccd

; 30   : 	else

  00074	eb 10		 jmp	 SHORT $L226902
$L225609:

; 31   : 		m_fFrameCurrent += (m_fPerSlerp * fSpeed);			// 애니메이션 진행

  00076	d9 44 24 20	 fld	 DWORD PTR _fSpeed$[esp+20]
  0007a	d8 8e ac 00 00
	00		 fmul	 DWORD PTR [esi+172]
  00080	d8 86 a0 00 00
	00		 fadd	 DWORD PTR [esi+160]
$L226902:
  00086	d9 9e a0 00 00
	00		 fstp	 DWORD PTR [esi+160]

; 32   : 
; 33   : 
; 34   : 	nCurrFrame = (int)m_fFrameCurrent;				// 소숫점 떼내고 정수부만..

  0008c	d9 86 a0 00 00
	00		 fld	 DWORD PTR [esi+160]
  00092	e8 00 00 00 00	 call	 __ftol2
  00097	8b c8		 mov	 ecx, eax

; 35   : 	m_fSlp = m_fFrameCurrent - (float)nCurrFrame;	// 소숫점 부분만 가져옴
; 36   : 
; 37   : 	if( m_nLoop & ANILOOP_LOOP )		// 루핑모드일때

  00099	8a 86 b4 00 00
	00		 mov	 al, BYTE PTR [esi+180]
  0009f	89 4c 24 20	 mov	 DWORD PTR _nCurrFrame$[esp+20], ecx
  000a3	db 44 24 20	 fild	 DWORD PTR _nCurrFrame$[esp+20]
  000a7	a8 04		 test	 al, 4
  000a9	d8 ae a0 00 00
	00		 fsubr	 DWORD PTR [esi+160]
  000af	d9 9e b0 00 00
	00		 fstp	 DWORD PTR [esi+176]

; 38   : 	{
; 39   : 		if( m_fFrameCurrent > (float)(m_nFrameMax - 1) )

  000b5	d8 9e a0 00 00
	00		 fcomp	 DWORD PTR [esi+160]
  000bb	df e0		 fnstsw	 ax
  000bd	74 10		 je	 SHORT $L225613
  000bf	f6 c4 05	 test	 ah, 5
  000c2	7a 28		 jp	 SHORT $L225618

; 40   : 		{
; 41   : 			m_bEndFrame = TRUE;
; 42   : 			nCurrFrame %= m_nFrameMax;		// 처음으로 되돌림

  000c4	8b c1		 mov	 eax, ecx
  000c6	99		 cdq
  000c7	f7 ff		 idiv	 edi
  000c9	89 54 24 20	 mov	 DWORD PTR _nCurrFrame$[esp+20], edx

; 43   : 		}
; 44   : 	} 
; 45   : 	else		// 루핑모드가 아니라면 마지막 프레임에서 멈춘다.

  000cd	eb 13		 jmp	 SHORT $L226903
$L225613:

; 46   : 	{
; 47   : 		if( m_fFrameCurrent > (float)(m_nFrameMax - 1) )

  000cf	f6 c4 05	 test	 ah, 5
  000d2	7a 18		 jp	 SHORT $L225618

; 50   : 			m_fSlp = 0.0f;

  000d4	c7 86 b0 00 00
	00 00 00 00 00	 mov	 DWORD PTR [esi+176], 0

; 51   : 			nCurrFrame = m_nFrameMax - 1;

  000de	89 5c 24 20	 mov	 DWORD PTR _nCurrFrame$[esp+20], ebx
$L226903:

; 48   : 		{
; 49   : 			m_bEndFrame = TRUE;

  000e2	c7 86 9c 00 00
	00 01 00 00 00	 mov	 DWORD PTR [esi+156], 1
$L225618:

; 52   : 		}
; 53   : 	}
; 54   : 	m_fFrameCurrent = (float)nCurrFrame + m_fSlp;	// 편의상 시각적으로 보기 쉽도록 수치 보정

  000ec	db 44 24 20	 fild	 DWORD PTR _nCurrFrame$[esp+20]
  000f0	5b		 pop	 ebx
  000f1	d8 86 b0 00 00
	00		 fadd	 DWORD PTR [esi+176]
  000f7	d9 9e a0 00 00
	00		 fstp	 DWORD PTR [esi+160]
$L226901:
  000fd	5f		 pop	 edi
$L225602:
  000fe	5e		 pop	 esi

; 55   : }

  000ff	83 c4 0c	 add	 esp, 12			; 0000000cH
  00102	c2 08 00	 ret	 8
?FrameMove@CModel@@UAEXPAUD3DXVECTOR3@@M@Z ENDP		; CModel::FrameMove
_TEXT	ENDS
PUBLIC	?AddFrame@CModel@@UAEXM@Z			; CModel::AddFrame
; Function compile flags: /Ogty
;	COMDAT ?AddFrame@CModel@@UAEXM@Z
_TEXT	SEGMENT
_fAddFrame$ = 8						; size = 4
?AddFrame@CModel@@UAEXM@Z PROC NEAR			; CModel::AddFrame, COMDAT
; _this$ = ecx

; 59   : }

  00000	c2 04 00	 ret	 4
?AddFrame@CModel@@UAEXM@Z ENDP				; CModel::AddFrame
_TEXT	ENDS
PUBLIC	?SetFrame@CModel@@UAEXM@Z			; CModel::SetFrame
; Function compile flags: /Ogty
;	COMDAT ?SetFrame@CModel@@UAEXM@Z
_TEXT	SEGMENT
_fFrame$ = 8						; size = 4
?SetFrame@CModel@@UAEXM@Z PROC NEAR			; CModel::SetFrame, COMDAT
; _this$ = ecx

; 62   : }

  00000	c2 04 00	 ret	 4
?SetFrame@CModel@@UAEXM@Z ENDP				; CModel::SetFrame
_TEXT	ENDS
PUBLIC	?Render@CModel@@UAEHPAUIDirect3DDevice9@@PBUD3DXMATRIX@@@Z ; CModel::Render
; Function compile flags: /Ogty
;	COMDAT ?Render@CModel@@UAEHPAUIDirect3DDevice9@@PBUD3DXMATRIX@@@Z
_TEXT	SEGMENT
_pd3dDevice$ = 8					; size = 4
_pmWorld$ = 12						; size = 4
?Render@CModel@@UAEHPAUIDirect3DDevice9@@PBUD3DXMATRIX@@@Z PROC NEAR ; CModel::Render, COMDAT
; _this$ = ecx

; 65   : 	return TRUE;

  00000	b8 01 00 00 00	 mov	 eax, 1

; 66   : }

  00005	c2 08 00	 ret	 8
?Render@CModel@@UAEHPAUIDirect3DDevice9@@PBUD3DXMATRIX@@@Z ENDP ; CModel::Render
_TEXT	ENDS
PUBLIC	?IsAniable@CModel@@QAEHXZ			; CModel::IsAniable
; Function compile flags: /Ogty
;	COMDAT ?IsAniable@CModel@@QAEHXZ
_TEXT	SEGMENT
?IsAniable@CModel@@QAEHXZ PROC NEAR			; CModel::IsAniable, COMDAT
; _this$ = ecx

; 69   : 	if( m_nModelType == MODELTYPE_MESH || m_nModelType == MODELTYPE_BILLBOARD ) 

  00000	8b 41 08	 mov	 eax, DWORD PTR [ecx+8]
  00003	83 f8 01	 cmp	 eax, 1
  00006	74 0b		 je	 SHORT $L225637
  00008	83 f8 03	 cmp	 eax, 3
  0000b	74 06		 je	 SHORT $L225637

; 71   : 	return TRUE;

  0000d	b8 01 00 00 00	 mov	 eax, 1

; 72   : }

  00012	c3		 ret	 0
$L225637:

; 70   : 		return FALSE;

  00013	33 c0		 xor	 eax, eax

; 72   : }

  00015	c3		 ret	 0
?IsAniable@CModel@@QAEHXZ ENDP				; CModel::IsAniable
_TEXT	ENDS
PUBLIC	?GetNextFrame@CModel@@QAEHXZ			; CModel::GetNextFrame
; Function compile flags: /Ogty
;	COMDAT ?GetNextFrame@CModel@@QAEHXZ
_TEXT	SEGMENT
?GetNextFrame@CModel@@QAEHXZ PROC NEAR			; CModel::GetNextFrame, COMDAT
; _this$ = ecx

; 78   : {

  00000	56		 push	 esi
  00001	8b f1		 mov	 esi, ecx

; 79   : 	int		nCurrFrm = (int)m_fFrameCurrent;
; 80   : 	int		nNextFrm;
; 81   : 
; 82   : 	nNextFrm = nCurrFrm + 1;

  00003	d9 86 a0 00 00
	00		 fld	 DWORD PTR [esi+160]
  00009	e8 00 00 00 00	 call	 __ftol2

; 83   : 	if( nNextFrm >= m_nFrameMax )		

  0000e	8b 8e a8 00 00
	00		 mov	 ecx, DWORD PTR [esi+168]
  00014	40		 inc	 eax
  00015	3b c1		 cmp	 eax, ecx
  00017	7c 10		 jl	 SHORT $L225647

; 84   : 	{
; 85   : 		if( m_nLoop & ANILOOP_LOOP )	

  00019	f6 86 b4 00 00
	00 04		 test	 BYTE PTR [esi+180], 4
  00020	74 04		 je	 SHORT $L225646

; 86   : 			nNextFrm = 0;			// 루핑애니메이션이면 처음프레임과 연결될수 있도록 한다.

  00022	33 c0		 xor	 eax, eax
  00024	5e		 pop	 esi

; 89   : 	}
; 90   : 
; 91   : 	return nNextFrm;
; 92   : }

  00025	c3		 ret	 0
$L225646:

; 87   : 		else													
; 88   : 			nNextFrm = m_nFrameMax - 1;		// 아니면 마지막 프레임에서 멈춘다

  00026	8d 41 ff	 lea	 eax, DWORD PTR [ecx-1]
$L225647:
  00029	5e		 pop	 esi

; 89   : 	}
; 90   : 
; 91   : 	return nNextFrm;
; 92   : }

  0002a	c3		 ret	 0
?GetNextFrame@CModel@@QAEHXZ ENDP			; CModel::GetNextFrame
_TEXT	ENDS
PUBLIC	_sqrtf
; Function compile flags: /Ogty
; File c:\program files\microsoft visual studio .net 2003\vc7\include\math.h
;	COMDAT _sqrtf
_TEXT	SEGMENT
__X$ = 8						; size = 4
_sqrtf	PROC NEAR					; COMDAT

; 470  :         {return ((float)sqrt((double)_X)); }

  00000	d9 44 24 04	 fld	 DWORD PTR __X$[esp-4]
  00004	d9 fa		 fsqrt
  00006	c3		 ret	 0
_sqrtf	ENDP
_TEXT	ENDS
PUBLIC	??0D3DXVECTOR3@@QAE@XZ				; D3DXVECTOR3::D3DXVECTOR3
; Function compile flags: /Ogty
; File c:\documents and settings\test\mes documents\source\virtuos_v17\build\program\dx_sdk\d3dx9math.h
;	COMDAT ??0D3DXVECTOR3@@QAE@XZ
_TEXT	SEGMENT
??0D3DXVECTOR3@@QAE@XZ PROC NEAR			; D3DXVECTOR3::D3DXVECTOR3, COMDAT
; _this$ = ecx

; 165  :     D3DXVECTOR3() {};

  00000	8b c1		 mov	 eax, ecx
  00002	c3		 ret	 0
??0D3DXVECTOR3@@QAE@XZ ENDP				; D3DXVECTOR3::D3DXVECTOR3
_TEXT	ENDS
PUBLIC	??0D3DXVECTOR4@@QAE@XZ				; D3DXVECTOR4::D3DXVECTOR4
; Function compile flags: /Ogty
;	COMDAT ??0D3DXVECTOR4@@QAE@XZ
_TEXT	SEGMENT
??0D3DXVECTOR4@@QAE@XZ PROC NEAR			; D3DXVECTOR4::D3DXVECTOR4, COMDAT
; _this$ = ecx

; 240  :     D3DXVECTOR4() {};

  00000	8b c1		 mov	 eax, ecx
  00002	c3		 ret	 0
??0D3DXVECTOR4@@QAE@XZ ENDP				; D3DXVECTOR4::D3DXVECTOR4
_TEXT	ENDS
PUBLIC	??0D3DXVECTOR3@@QAE@MMM@Z			; D3DXVECTOR3::D3DXVECTOR3
; Function compile flags: /Ogty
; File c:\documents and settings\test\mes documents\source\virtuos_v17\build\program\dx_sdk\d3dx9math.inl
;	COMDAT ??0D3DXVECTOR3@@QAE@MMM@Z
_TEXT	SEGMENT
_fx$ = 8						; size = 4
_fy$ = 12						; size = 4
_fz$ = 16						; size = 4
??0D3DXVECTOR3@@QAE@MMM@Z PROC NEAR			; D3DXVECTOR3::D3DXVECTOR3, COMDAT
; _this$ = ecx

; 300  :     x = fx;
; 301  :     y = fy;

  00000	8b 54 24 08	 mov	 edx, DWORD PTR _fy$[esp-4]
  00004	8b c1		 mov	 eax, ecx
  00006	8b 4c 24 04	 mov	 ecx, DWORD PTR _fx$[esp-4]
  0000a	89 08		 mov	 DWORD PTR [eax], ecx

; 302  :     z = fz;

  0000c	8b 4c 24 0c	 mov	 ecx, DWORD PTR _fz$[esp-4]
  00010	89 50 04	 mov	 DWORD PTR [eax+4], edx
  00013	89 48 08	 mov	 DWORD PTR [eax+8], ecx

; 303  : }

  00016	c2 0c 00	 ret	 12			; 0000000cH
??0D3DXVECTOR3@@QAE@MMM@Z ENDP				; D3DXVECTOR3::D3DXVECTOR3
_TEXT	ENDS
PUBLIC	??GD3DXVECTOR3@@QBE?AU0@ABU0@@Z			; D3DXVECTOR3::operator-
; Function compile flags: /Ogty
;	COMDAT ??GD3DXVECTOR3@@QBE?AU0@ABU0@@Z
_TEXT	SEGMENT
___$ReturnUdt$ = 8					; size = 4
_v$ = 12						; size = 4
??GD3DXVECTOR3@@QBE?AU0@ABU0@@Z PROC NEAR		; D3DXVECTOR3::operator-, COMDAT
; _this$ = ecx

; 383  :     return D3DXVECTOR3(x - v.x, y - v.y, z - v.z);

  00000	d9 41 08	 fld	 DWORD PTR [ecx+8]
  00003	8b 44 24 08	 mov	 eax, DWORD PTR _v$[esp-4]
  00007	d8 60 08	 fsub	 DWORD PTR [eax+8]
  0000a	d9 41 04	 fld	 DWORD PTR [ecx+4]
  0000d	d8 60 04	 fsub	 DWORD PTR [eax+4]
  00010	d9 01		 fld	 DWORD PTR [ecx]
  00012	d8 20		 fsub	 DWORD PTR [eax]
  00014	8b 44 24 04	 mov	 eax, DWORD PTR ___$ReturnUdt$[esp-4]
  00018	d9 18		 fstp	 DWORD PTR [eax]
  0001a	d9 58 04	 fstp	 DWORD PTR [eax+4]
  0001d	d9 58 08	 fstp	 DWORD PTR [eax+8]

; 384  : }

  00020	c2 08 00	 ret	 8
??GD3DXVECTOR3@@QBE?AU0@ABU0@@Z ENDP			; D3DXVECTOR3::operator-
_TEXT	ENDS
PUBLIC	?D3DXVec3Length@@YAMPBUD3DXVECTOR3@@@Z		; D3DXVec3Length
; Function compile flags: /Ogty
;	COMDAT ?D3DXVec3Length@@YAMPBUD3DXVECTOR3@@@Z
_TEXT	SEGMENT
_pV$ = 8						; size = 4
?D3DXVec3Length@@YAMPBUD3DXVECTOR3@@@Z PROC NEAR	; D3DXVec3Length, COMDAT

; 1678 : #ifdef D3DX_DEBUG
; 1679 :     if(!pV)
; 1680 :         return 0.0f;
; 1681 : #endif
; 1682 : 
; 1683 : #ifdef __cplusplus
; 1684 :     return sqrtf(pV->x * pV->x + pV->y * pV->y + pV->z * pV->z);

  00000	8b 44 24 04	 mov	 eax, DWORD PTR _pV$[esp-4]
  00004	d9 40 08	 fld	 DWORD PTR [eax+8]
  00007	d9 40 04	 fld	 DWORD PTR [eax+4]
  0000a	d9 00		 fld	 DWORD PTR [eax]
  0000c	d9 c0		 fld	 ST(0)
  0000e	d8 c9		 fmul	 ST(0), ST(1)
  00010	d9 c2		 fld	 ST(2)
  00012	d8 cb		 fmul	 ST(0), ST(3)
  00014	de c1		 faddp	 ST(1), ST(0)
  00016	d9 c3		 fld	 ST(3)
  00018	d8 cc		 fmul	 ST(0), ST(4)
  0001a	de c1		 faddp	 ST(1), ST(0)
  0001c	d9 fa		 fsqrt
  0001e	dd db		 fstp	 ST(3)
  00020	dd d8		 fstp	 ST(0)
  00022	dd d8		 fstp	 ST(0)

; 1685 : #else
; 1686 :     return (FLOAT) sqrt(pV->x * pV->x + pV->y * pV->y + pV->z * pV->z);
; 1687 : #endif
; 1688 : }

  00024	c3		 ret	 0
?D3DXVec3Length@@YAMPBUD3DXVECTOR3@@@Z ENDP		; D3DXVec3Length
_TEXT	ENDS
PUBLIC	?GetBBVector@CModel@@QAEPBUBOUND_BOX@@XZ	; CModel::GetBBVector
; Function compile flags: /Ogty
; File c:\documents and settings\test\mes documents\source\virtuos_v17\build\program\_common\model.h
;	COMDAT ?GetBBVector@CModel@@QAEPBUBOUND_BOX@@XZ
_TEXT	SEGMENT
?GetBBVector@CModel@@QAEPBUBOUND_BOX@@XZ PROC NEAR	; CModel::GetBBVector, COMDAT
; _this$ = ecx

; 148  : 	const BOUND_BOX*	GetBBVector( void ) { return &m_BB; } // 바운딩박스의 8귀퉁이 좌표를 리턴

  00000	8d 41 0c	 lea	 eax, DWORD PTR [ecx+12]
  00003	c3		 ret	 0
?GetBBVector@CModel@@QAEPBUBOUND_BOX@@XZ ENDP		; CModel::GetBBVector
_TEXT	ENDS
PUBLIC	?DeleteDeviceObjects@CModel@@UAEJXZ		; CModel::DeleteDeviceObjects
; Function compile flags: /Ogty
;	COMDAT ?DeleteDeviceObjects@CModel@@UAEJXZ
_TEXT	SEGMENT
?DeleteDeviceObjects@CModel@@UAEJXZ PROC NEAR		; CModel::DeleteDeviceObjects, COMDAT
; _this$ = ecx

; 189  : 	virtual HRESULT DeleteDeviceObjects() { return S_OK; }

  00000	33 c0		 xor	 eax, eax
  00002	c3		 ret	 0
?DeleteDeviceObjects@CModel@@UAEJXZ ENDP		; CModel::DeleteDeviceObjects
_TEXT	ENDS
PUBLIC	?InitDeviceObjects@CModel@@UAEJPAUIDirect3DDevice9@@@Z ; CModel::InitDeviceObjects
PUBLIC	?RestoreDeviceObjects@CModel@@UAEJXZ		; CModel::RestoreDeviceObjects
PUBLIC	?InvalidateDeviceObjects@CModel@@UAEJXZ		; CModel::InvalidateDeviceObjects
PUBLIC	?Intersect@CModel@@UAEHABUD3DXVECTOR3@@0ABUD3DXMATRIX@@PAU2@PAMH@Z ; CModel::Intersect
PUBLIC	?IntersectRayTri@CModel@@UAEPAUD3DXVECTOR3@@ABU2@0ABUD3DXMATRIX@@PAU2@PAMH@Z ; CModel::IntersectRayTri
PUBLIC	?IsTouchOBB_Line@CModel@@UAEHABUD3DXVECTOR3@@0ABUD3DXMATRIX@@PAU2@H@Z ; CModel::IsTouchOBB_Line
PUBLIC	?TestIntersectionOBB_Line@CModel@@UAEHABVSegment3@@PBVCObj@@H@Z ; CModel::TestIntersectionOBB_Line
PUBLIC	??_7CModel@@6B@					; CModel::`vftable'
PUBLIC	??_GCModel@@UAEPAXI@Z				; CModel::`scalar deleting destructor'
PUBLIC	??1CModel@@UAE@XZ				; CModel::~CModel
PUBLIC	?LoadModel@CModel@@UAEHPBD@Z			; CModel::LoadModel
PUBLIC	?SaveModel@CModel@@UAEHPBD@Z			; CModel::SaveModel
PUBLIC	?ClearNormal@CModel@@UAEXXZ			; CModel::ClearNormal
PUBLIC	?IsLoadAttr@CModel@@UAEHXZ			; CModel::IsLoadAttr
PUBLIC	?GetMotionAttr@CModel@@UAEPAUMOTION_ATTR@@H@Z	; CModel::GetMotionAttr
PUBLIC	?GetAttr@CModel@@UAEKH@Z			; CModel::GetAttr
PUBLIC	?IsAttrHit@CModel@@UAEKM@Z			; CModel::IsAttrHit
PUBLIC	?IsAttrHit@CModel@@UAEKXZ			; CModel::IsAttrHit
PUBLIC	?IsAttrSound@CModel@@UAEPAUMOTION_ATTR@@M@Z	; CModel::IsAttrSound
PUBLIC	?IsAttrSound@CModel@@UAEPAUMOTION_ATTR@@XZ	; CModel::IsAttrSound
PUBLIC	?IsAttrQuake@CModel@@UAEKM@Z			; CModel::IsAttrQuake
PUBLIC	?IsAttrQuake@CModel@@UAEKXZ			; CModel::IsAttrQuake
PUBLIC	?SetAttr@CModel@@UAEXMK@Z			; CModel::SetAttr
PUBLIC	?ResetAttr@CModel@@UAEXHK@Z			; CModel::ResetAttr
PUBLIC	?SetGroup@CModel@@UAEXH@Z			; CModel::SetGroup
PUBLIC	?IsHaveCollObj@CModel@@UAEHXZ			; CModel::IsHaveCollObj
PUBLIC	?RenderEffect@CModel@@UAEXPAUIDirect3DDevice9@@PBUD3DXMATRIX@@KKHH@Z ; CModel::RenderEffect
EXTRN	??_ECModel@@UAEPAXI@Z:NEAR			; CModel::`vector deleting destructor'
;	COMDAT ??_7CModel@@6B@
CONST	SEGMENT
??_7CModel@@6B@ DD FLAT:??_ECModel@@UAEPAXI@Z		; CModel::`vftable'
	DD	FLAT:?LoadModel@CModel@@UAEHPBD@Z
	DD	FLAT:?SaveModel@CModel@@UAEHPBD@Z
	DD	FLAT:?ClearNormal@CModel@@UAEXXZ
	DD	FLAT:?AddFrame@CModel@@UAEXM@Z
	DD	FLAT:?SetFrame@CModel@@UAEXM@Z
	DD	FLAT:?IsLoadAttr@CModel@@UAEHXZ
	DD	FLAT:?GetMotionAttr@CModel@@UAEPAUMOTION_ATTR@@H@Z
	DD	FLAT:?GetAttr@CModel@@UAEKH@Z
	DD	FLAT:?IsAttrHit@CModel@@UAEKXZ
	DD	FLAT:?IsAttrHit@CModel@@UAEKM@Z
	DD	FLAT:?IsAttrSound@CModel@@UAEPAUMOTION_ATTR@@XZ
	DD	FLAT:?IsAttrSound@CModel@@UAEPAUMOTION_ATTR@@M@Z
	DD	FLAT:?IsAttrQuake@CModel@@UAEKXZ
	DD	FLAT:?IsAttrQuake@CModel@@UAEKM@Z
	DD	FLAT:?SetAttr@CModel@@UAEXMK@Z
	DD	FLAT:?ResetAttr@CModel@@UAEXHK@Z
	DD	FLAT:?SetGroup@CModel@@UAEXH@Z
	DD	FLAT:?IsHaveCollObj@CModel@@UAEHXZ
	DD	FLAT:?Render@CModel@@UAEHPAUIDirect3DDevice9@@PBUD3DXMATRIX@@@Z
	DD	FLAT:?RenderEffect@CModel@@UAEXPAUIDirect3DDevice9@@PBUD3DXMATRIX@@KKHH@Z
	DD	FLAT:?FrameMove@CModel@@UAEXPAUD3DXVECTOR3@@M@Z
	DD	FLAT:?InitDeviceObjects@CModel@@UAEJPAUIDirect3DDevice9@@@Z
	DD	FLAT:?RestoreDeviceObjects@CModel@@UAEJXZ
	DD	FLAT:?InvalidateDeviceObjects@CModel@@UAEJXZ
	DD	FLAT:?DeleteDeviceObjects@CModel@@UAEJXZ
	DD	FLAT:?Intersect@CModel@@UAEHABUD3DXVECTOR3@@0ABUD3DXMATRIX@@PAU2@PAMH@Z
	DD	FLAT:?IntersectRayTri@CModel@@UAEPAUD3DXVECTOR3@@ABU2@0ABUD3DXMATRIX@@PAU2@PAMH@Z
	DD	FLAT:?IsTouchOBB_Line@CModel@@UAEHABUD3DXVECTOR3@@0ABUD3DXMATRIX@@PAU2@H@Z
	DD	FLAT:?TestIntersectionOBB_Line@CModel@@UAEHABVSegment3@@PBVCObj@@H@Z
; Function compile flags: /Ogty
; File c:\documents and settings\test\mes documents\source\virtuos_v17\build\program\_common\model.cpp
CONST	ENDS
;	COMDAT ??1CModel@@UAE@XZ
_TEXT	SEGMENT
??1CModel@@UAE@XZ PROC NEAR				; CModel::~CModel, COMDAT
; _this$ = ecx

; 7    : {

  00000	c7 01 00 00 00
	00		 mov	 DWORD PTR [ecx], OFFSET FLAT:??_7CModel@@6B@

; 8    : //	SAFE_DELETE( m_pBillboard );
; 9    : 	DeleteDeviceObjects();
; 10   : }

  00006	c3		 ret	 0
??1CModel@@UAE@XZ ENDP					; CModel::~CModel
; Function compile flags: /Ogty
; File c:\documents and settings\test\mes documents\source\virtuos_v17\build\program\_common\model.h
_TEXT	ENDS
;	COMDAT ?LoadModel@CModel@@UAEHPBD@Z
_TEXT	SEGMENT
_szFileName$ = 8					; size = 4
?LoadModel@CModel@@UAEHPBD@Z PROC NEAR			; CModel::LoadModel, COMDAT
; _this$ = ecx

; 155  : 	virtual int		LoadModel( LPCTSTR szFileName ) { return 1; }

  00000	b8 01 00 00 00	 mov	 eax, 1
  00005	c2 04 00	 ret	 4
?LoadModel@CModel@@UAEHPBD@Z ENDP			; CModel::LoadModel
; Function compile flags: /Ogty
_TEXT	ENDS
;	COMDAT ?SaveModel@CModel@@UAEHPBD@Z
_TEXT	SEGMENT
_szFileName$ = 8					; size = 4
?SaveModel@CModel@@UAEHPBD@Z PROC NEAR			; CModel::SaveModel, COMDAT
; _this$ = ecx

; 156  : 	virtual int		SaveModel( LPCTSTR szFileName ) { return 1; }

  00000	b8 01 00 00 00	 mov	 eax, 1
  00005	c2 04 00	 ret	 4
?SaveModel@CModel@@UAEHPBD@Z ENDP			; CModel::SaveModel
; Function compile flags: /Ogty
_TEXT	ENDS
;	COMDAT ?ClearNormal@CModel@@UAEXXZ
_TEXT	SEGMENT
?ClearNormal@CModel@@UAEXXZ PROC NEAR			; CModel::ClearNormal, COMDAT
; _this$ = ecx

; 157  : 	virtual void	ClearNormal( void ) {}		// 모든 노말을 초기화시킨다.

  00000	c3		 ret	 0
?ClearNormal@CModel@@UAEXXZ ENDP			; CModel::ClearNormal
; Function compile flags: /Ogty
_TEXT	ENDS
;	COMDAT ?IsLoadAttr@CModel@@UAEHXZ
_TEXT	SEGMENT
?IsLoadAttr@CModel@@UAEHXZ PROC NEAR			; CModel::IsLoadAttr, COMDAT
; _this$ = ecx

; 163  : 	virtual BOOL	IsLoadAttr( void ) { return FALSE; }

  00000	33 c0		 xor	 eax, eax
  00002	c3		 ret	 0
?IsLoadAttr@CModel@@UAEHXZ ENDP				; CModel::IsLoadAttr
; Function compile flags: /Ogty
_TEXT	ENDS
;	COMDAT ?GetMotionAttr@CModel@@UAEPAUMOTION_ATTR@@H@Z
_TEXT	SEGMENT
_nNumFrm$ = 8						; size = 4
?GetMotionAttr@CModel@@UAEPAUMOTION_ATTR@@H@Z PROC NEAR	; CModel::GetMotionAttr, COMDAT
; _this$ = ecx

; 164  : 	virtual MOTION_ATTR *GetMotionAttr( int nNumFrm ) { return NULL; }

  00000	33 c0		 xor	 eax, eax
  00002	c2 04 00	 ret	 4
?GetMotionAttr@CModel@@UAEPAUMOTION_ATTR@@H@Z ENDP	; CModel::GetMotionAttr
; Function compile flags: /Ogty
_TEXT	ENDS
;	COMDAT ?GetAttr@CModel@@UAEKH@Z
_TEXT	SEGMENT
_nNumFrm$ = 8						; size = 4
?GetAttr@CModel@@UAEKH@Z PROC NEAR			; CModel::GetAttr, COMDAT
; _this$ = ecx

; 165  : 	virtual DWORD	GetAttr( int nNumFrm ) { return 0; }

  00000	33 c0		 xor	 eax, eax
  00002	c2 04 00	 ret	 4
?GetAttr@CModel@@UAEKH@Z ENDP				; CModel::GetAttr
; Function compile flags: /Ogty
_TEXT	ENDS
;	COMDAT ?IsAttrHit@CModel@@UAEKM@Z
_TEXT	SEGMENT
_fNumFrm$ = 8						; size = 4
?IsAttrHit@CModel@@UAEKM@Z PROC NEAR			; CModel::IsAttrHit, COMDAT
; _this$ = ecx

; 166  : 	virtual DWORD	IsAttrHit( float fNumFrm ) { return 0; }

  00000	33 c0		 xor	 eax, eax
  00002	c2 04 00	 ret	 4
?IsAttrHit@CModel@@UAEKM@Z ENDP				; CModel::IsAttrHit
; Function compile flags: /Ogty
_TEXT	ENDS
;	COMDAT ?IsAttrHit@CModel@@UAEKXZ
_TEXT	SEGMENT
?IsAttrHit@CModel@@UAEKXZ PROC NEAR			; CModel::IsAttrHit, COMDAT
; _this$ = ecx

; 167  : 	virtual DWORD	IsAttrHit( void ) { return 0; }

  00000	33 c0		 xor	 eax, eax
  00002	c3		 ret	 0
?IsAttrHit@CModel@@UAEKXZ ENDP				; CModel::IsAttrHit
; Function compile flags: /Ogty
_TEXT	ENDS
;	COMDAT ?IsAttrSound@CModel@@UAEPAUMOTION_ATTR@@M@Z
_TEXT	SEGMENT
_fNumFrm$ = 8						; size = 4
?IsAttrSound@CModel@@UAEPAUMOTION_ATTR@@M@Z PROC NEAR	; CModel::IsAttrSound, COMDAT
; _this$ = ecx

; 168  : 	virtual MOTION_ATTR *IsAttrSound( float fNumFrm ) { return NULL; }

  00000	33 c0		 xor	 eax, eax
  00002	c2 04 00	 ret	 4
?IsAttrSound@CModel@@UAEPAUMOTION_ATTR@@M@Z ENDP	; CModel::IsAttrSound
; Function compile flags: /Ogty
_TEXT	ENDS
;	COMDAT ?IsAttrSound@CModel@@UAEPAUMOTION_ATTR@@XZ
_TEXT	SEGMENT
?IsAttrSound@CModel@@UAEPAUMOTION_ATTR@@XZ PROC NEAR	; CModel::IsAttrSound, COMDAT
; _this$ = ecx

; 169  : 	virtual MOTION_ATTR *IsAttrSound( void ) { return 0; }

  00000	33 c0		 xor	 eax, eax
  00002	c3		 ret	 0
?IsAttrSound@CModel@@UAEPAUMOTION_ATTR@@XZ ENDP		; CModel::IsAttrSound
; Function compile flags: /Ogty
_TEXT	ENDS
;	COMDAT ?IsAttrQuake@CModel@@UAEKM@Z
_TEXT	SEGMENT
_fNumFrm$ = 8						; size = 4
?IsAttrQuake@CModel@@UAEKM@Z PROC NEAR			; CModel::IsAttrQuake, COMDAT
; _this$ = ecx

; 170  : 	virtual DWORD	IsAttrQuake( float fNumFrm ) { return 0; }

  00000	33 c0		 xor	 eax, eax
  00002	c2 04 00	 ret	 4
?IsAttrQuake@CModel@@UAEKM@Z ENDP			; CModel::IsAttrQuake
; Function compile flags: /Ogty
_TEXT	ENDS
;	COMDAT ?IsAttrQuake@CModel@@UAEKXZ
_TEXT	SEGMENT
?IsAttrQuake@CModel@@UAEKXZ PROC NEAR			; CModel::IsAttrQuake, COMDAT
; _this$ = ecx

; 171  : 	virtual DWORD	IsAttrQuake( void ) { return 0; }

  00000	33 c0		 xor	 eax, eax
  00002	c3		 ret	 0
?IsAttrQuake@CModel@@UAEKXZ ENDP			; CModel::IsAttrQuake
; Function compile flags: /Ogty
_TEXT	ENDS
;	COMDAT ?SetAttr@CModel@@UAEXMK@Z
_TEXT	SEGMENT
_fNumFrm$ = 8						; size = 4
_dwAttr$ = 12						; size = 4
?SetAttr@CModel@@UAEXMK@Z PROC NEAR			; CModel::SetAttr, COMDAT
; _this$ = ecx

; 172  : 	virtual void	SetAttr( float fNumFrm, DWORD dwAttr ) {}

  00000	c2 08 00	 ret	 8
?SetAttr@CModel@@UAEXMK@Z ENDP				; CModel::SetAttr
; Function compile flags: /Ogty
_TEXT	ENDS
;	COMDAT ?ResetAttr@CModel@@UAEXHK@Z
_TEXT	SEGMENT
_nNumFrm$ = 8						; size = 4
_dwAttr$ = 12						; size = 4
?ResetAttr@CModel@@UAEXHK@Z PROC NEAR			; CModel::ResetAttr, COMDAT
; _this$ = ecx

; 173  : 	virtual void	ResetAttr( int nNumFrm, DWORD dwAttr ) {}

  00000	c2 08 00	 ret	 8
?ResetAttr@CModel@@UAEXHK@Z ENDP			; CModel::ResetAttr
; Function compile flags: /Ogty
_TEXT	ENDS
;	COMDAT ?SetGroup@CModel@@UAEXH@Z
_TEXT	SEGMENT
_nNum$ = 8						; size = 4
?SetGroup@CModel@@UAEXH@Z PROC NEAR			; CModel::SetGroup, COMDAT
; _this$ = ecx

; 174  : 	virtual	void	SetGroup( int nNum ) {}		// Set LOD Group

  00000	c2 04 00	 ret	 4
?SetGroup@CModel@@UAEXH@Z ENDP				; CModel::SetGroup
; Function compile flags: /Ogty
_TEXT	ENDS
;	COMDAT ?IsHaveCollObj@CModel@@UAEHXZ
_TEXT	SEGMENT
?IsHaveCollObj@CModel@@UAEHXZ PROC NEAR			; CModel::IsHaveCollObj, COMDAT
; _this$ = ecx

; 175  : 	virtual int		IsHaveCollObj( void ) { return 0; }

  00000	33 c0		 xor	 eax, eax
  00002	c3		 ret	 0
?IsHaveCollObj@CModel@@UAEHXZ ENDP			; CModel::IsHaveCollObj
; Function compile flags: /Ogty
_TEXT	ENDS
;	COMDAT ?RenderEffect@CModel@@UAEXPAUIDirect3DDevice9@@PBUD3DXMATRIX@@KKHH@Z
_TEXT	SEGMENT
_pd3dDevice$ = 8					; size = 4
_pmWorld$ = 12						; size = 4
_dwItemKind3$ = 16					; size = 4
_dwItemKind3Right$ = 20					; size = 4
_nLevelL$ = 24						; size = 4
_nLeveR$ = 28						; size = 4
?RenderEffect@CModel@@UAEXPAUIDirect3DDevice9@@PBUD3DXMATRIX@@KKHH@Z PROC NEAR ; CModel::RenderEffect, COMDAT
; _this$ = ecx

; 180  : 	virtual void	RenderEffect( LPDIRECT3DDEVICE9 pd3dDevice, const D3DXMATRIX* pmWorld = NULL, DWORD dwItemKind3 = NULL_ID, DWORD dwItemKind3Right = NULL_ID, int nLevelL = 0, int nLeveR = 0) {}	

  00000	c2 18 00	 ret	 24			; 00000018H
?RenderEffect@CModel@@UAEXPAUIDirect3DDevice9@@PBUD3DXMATRIX@@KKHH@Z ENDP ; CModel::RenderEffect
; Function compile flags: /Ogty
_TEXT	ENDS
;	COMDAT ?InitDeviceObjects@CModel@@UAEJPAUIDirect3DDevice9@@@Z
_TEXT	SEGMENT
_pd3dDevice$ = 8					; size = 4
?InitDeviceObjects@CModel@@UAEJPAUIDirect3DDevice9@@@Z PROC NEAR ; CModel::InitDeviceObjects, COMDAT
; _this$ = ecx

; 186  : 	virtual HRESULT InitDeviceObjects( LPDIRECT3DDEVICE9 pd3dDevice ) { m_pd3dDevice = pd3dDevice; return S_OK; }

  00000	8b 44 24 04	 mov	 eax, DWORD PTR _pd3dDevice$[esp-4]
  00004	89 41 04	 mov	 DWORD PTR [ecx+4], eax
  00007	33 c0		 xor	 eax, eax
  00009	c2 04 00	 ret	 4
?InitDeviceObjects@CModel@@UAEJPAUIDirect3DDevice9@@@Z ENDP ; CModel::InitDeviceObjects
; Function compile flags: /Ogty
_TEXT	ENDS
;	COMDAT ?RestoreDeviceObjects@CModel@@UAEJXZ
_TEXT	SEGMENT
?RestoreDeviceObjects@CModel@@UAEJXZ PROC NEAR		; CModel::RestoreDeviceObjects, COMDAT
; _this$ = ecx

; 187  : 	virtual HRESULT RestoreDeviceObjects() { return S_OK; }

  00000	33 c0		 xor	 eax, eax
  00002	c3		 ret	 0
?RestoreDeviceObjects@CModel@@UAEJXZ ENDP		; CModel::RestoreDeviceObjects
; Function compile flags: /Ogty
_TEXT	ENDS
;	COMDAT ?InvalidateDeviceObjects@CModel@@UAEJXZ
_TEXT	SEGMENT
?InvalidateDeviceObjects@CModel@@UAEJXZ PROC NEAR	; CModel::InvalidateDeviceObjects, COMDAT
; _this$ = ecx

; 188  : 	virtual HRESULT InvalidateDeviceObjects() { return S_OK; }

  00000	33 c0		 xor	 eax, eax
  00002	c3		 ret	 0
?InvalidateDeviceObjects@CModel@@UAEJXZ ENDP		; CModel::InvalidateDeviceObjects
; Function compile flags: /Ogty
_TEXT	ENDS
;	COMDAT ?Intersect@CModel@@UAEHABUD3DXVECTOR3@@0ABUD3DXMATRIX@@PAU2@PAMH@Z
_TEXT	SEGMENT
_vRayOrig$ = 8						; size = 4
_vRayDir$ = 12						; size = 4
_mWorld$ = 16						; size = 4
_pvIntersect$ = 20					; size = 4
_pfDist$ = 24						; size = 4
_bColl$ = 28						; size = 4
?Intersect@CModel@@UAEHABUD3DXVECTOR3@@0ABUD3DXMATRIX@@PAU2@PAMH@Z PROC NEAR ; CModel::Intersect, COMDAT
; _this$ = ecx

; 193  : 	virtual BOOL	Intersect( const D3DXVECTOR3 &vRayOrig, const D3DXVECTOR3 &vRayDir, const D3DXMATRIX &mWorld, D3DXVECTOR3* pvIntersect, FLOAT* pfDist, BOOL bColl = FALSE ) { return FALSE; }

  00000	33 c0		 xor	 eax, eax
  00002	c2 18 00	 ret	 24			; 00000018H
?Intersect@CModel@@UAEHABUD3DXVECTOR3@@0ABUD3DXMATRIX@@PAU2@PAMH@Z ENDP ; CModel::Intersect
; Function compile flags: /Ogty
_TEXT	ENDS
;	COMDAT ?IntersectRayTri@CModel@@UAEPAUD3DXVECTOR3@@ABU2@0ABUD3DXMATRIX@@PAU2@PAMH@Z
_TEXT	SEGMENT
_vRayOrig$ = 8						; size = 4
_vRayDir$ = 12						; size = 4
_mWorld$ = 16						; size = 4
_pvIntersect$ = 20					; size = 4
_pfDist$ = 24						; size = 4
_bColl$ = 28						; size = 4
?IntersectRayTri@CModel@@UAEPAUD3DXVECTOR3@@ABU2@0ABUD3DXMATRIX@@PAU2@PAMH@Z PROC NEAR ; CModel::IntersectRayTri, COMDAT
; _this$ = ecx

; 194  : 	virtual D3DXVECTOR3 *IntersectRayTri( const D3DXVECTOR3 &vRayOrig, const D3DXVECTOR3 &vRayDir, const D3DXMATRIX &mWorld, D3DXVECTOR3* pvIntersect, FLOAT* pfDist, BOOL bColl = FALSE ) { return NULL; }

  00000	33 c0		 xor	 eax, eax
  00002	c2 18 00	 ret	 24			; 00000018H
?IntersectRayTri@CModel@@UAEPAUD3DXVECTOR3@@ABU2@0ABUD3DXMATRIX@@PAU2@PAMH@Z ENDP ; CModel::IntersectRayTri
; Function compile flags: /Ogty
_TEXT	ENDS
;	COMDAT ?IsTouchOBB_Line@CModel@@UAEHABUD3DXVECTOR3@@0ABUD3DXMATRIX@@PAU2@H@Z
_TEXT	SEGMENT
_vStart$ = 8						; size = 4
_vEnd$ = 12						; size = 4
_mWorld$ = 16						; size = 4
_pvIntersect$ = 20					; size = 4
_bNeedCollObject$ = 24					; size = 4
?IsTouchOBB_Line@CModel@@UAEHABUD3DXVECTOR3@@0ABUD3DXMATRIX@@PAU2@H@Z PROC NEAR ; CModel::IsTouchOBB_Line, COMDAT
; _this$ = ecx

; 195  : 	virtual	BOOL	IsTouchOBB_Line( const D3DXVECTOR3 &vStart, const D3DXVECTOR3 &vEnd, const D3DXMATRIX &mWorld, D3DXVECTOR3* pvIntersect, BOOL bNeedCollObject = TRUE ) { return FALSE;}

  00000	33 c0		 xor	 eax, eax
  00002	c2 14 00	 ret	 20			; 00000014H
?IsTouchOBB_Line@CModel@@UAEHABUD3DXVECTOR3@@0ABUD3DXMATRIX@@PAU2@H@Z ENDP ; CModel::IsTouchOBB_Line
; Function compile flags: /Ogty
_TEXT	ENDS
;	COMDAT ?TestIntersectionOBB_Line@CModel@@UAEHABVSegment3@@PBVCObj@@H@Z
_TEXT	SEGMENT
_segment$ = 8						; size = 4
_pObj$ = 12						; size = 4
_bNeedCollObject$ = 16					; size = 4
?TestIntersectionOBB_Line@CModel@@UAEHABVSegment3@@PBVCObj@@H@Z PROC NEAR ; CModel::TestIntersectionOBB_Line, COMDAT
; _this$ = ecx

; 196  : 	virtual	BOOL	TestIntersectionOBB_Line( const Segment3& segment, const CObj* pObj, BOOL bNeedCollObject = TRUE ) { return FALSE;}

  00000	33 c0		 xor	 eax, eax
  00002	c2 0c 00	 ret	 12			; 0000000cH
?TestIntersectionOBB_Line@CModel@@UAEHABVSegment3@@PBVCObj@@H@Z ENDP ; CModel::TestIntersectionOBB_Line
_TEXT	ENDS
PUBLIC	__real@3f000000
PUBLIC	?GetRadius@CModel@@QAEMXZ			; CModel::GetRadius
;	COMDAT __real@3f000000
; File c:\program files\microsoft visual studio .net 2003\vc7\include\math.h
CONST	SEGMENT
__real@3f000000 DD 03f000000r			; 0.5
; Function compile flags: /Ogty
; File c:\documents and settings\test\mes documents\source\virtuos_v17\build\program\_common\model.cpp
CONST	ENDS
;	COMDAT ?GetRadius@CModel@@QAEMXZ
_TEXT	SEGMENT
?GetRadius@CModel@@QAEMXZ PROC NEAR			; CModel::GetRadius, COMDAT
; _this$ = ecx

; 99   : 	D3DXVECTOR3 vLen = m_vMax - m_vMin;

  00000	d9 81 84 00 00
	00		 fld	 DWORD PTR [ecx+132]
  00006	d8 61 78	 fsub	 DWORD PTR [ecx+120]
  00009	d9 81 88 00 00
	00		 fld	 DWORD PTR [ecx+136]
  0000f	d8 61 7c	 fsub	 DWORD PTR [ecx+124]
  00012	d9 81 8c 00 00
	00		 fld	 DWORD PTR [ecx+140]
  00018	d8 a1 80 00 00
	00		 fsub	 DWORD PTR [ecx+128]

; 100  : 	float	fLen = D3DXVec3Length( &vLen );

  0001e	d9 c0		 fld	 ST(0)
  00020	d8 c9		 fmul	 ST(0), ST(1)
  00022	d9 c2		 fld	 ST(2)
  00024	d8 cb		 fmul	 ST(0), ST(3)

; 101  : 	return fLen / 2.0f;

  00026	de c1		 faddp	 ST(1), ST(0)
  00028	d9 c3		 fld	 ST(3)
  0002a	d8 cc		 fmul	 ST(0), ST(4)
  0002c	de c1		 faddp	 ST(1), ST(0)
  0002e	d9 fa		 fsqrt
  00030	dd db		 fstp	 ST(3)
  00032	dd d8		 fstp	 ST(0)
  00034	dd d8		 fstp	 ST(0)
  00036	d8 0d 00 00 00
	00		 fmul	 DWORD PTR __real@3f000000

; 102  : }

  0003c	c3		 ret	 0
?GetRadius@CModel@@QAEMXZ ENDP				; CModel::GetRadius
_TEXT	ENDS
PUBLIC	?IntersectBB@CModel@@QAEHABUD3DXVECTOR3@@0ABUD3DXMATRIX@@PAU2@PAM@Z ; CModel::IntersectBB
EXTRN	?IntersectTriangle@@YAHAAUD3DXVECTOR3@@00ABU1@1PAU1@PAM@Z:NEAR ; IntersectTriangle
EXTRN	_D3DXVec3TransformCoord@12:NEAR
;	COMDAT ?anIntexTable@?1??IntersectBB@CModel@@QAEHABUD3DXVECTOR3@@0ABUD3DXMATRIX@@PAU3@PAM@Z@4PAHA
; File c:\documents and settings\test\mes documents\source\virtuos_v17\build\program\_common\model.h
_DATA	SEGMENT
?anIntexTable@?1??IntersectBB@CModel@@QAEHABUD3DXVECTOR3@@0ABUD3DXMATRIX@@PAU3@PAM@Z@4PAHA DD 00H ; `CModel::IntersectBB'::`2'::anIntexTable
	DD	01H
	DD	02H
	DD	00H
	DD	02H
	DD	03H
	DD	00H
	DD	04H
	DD	05H
	DD	00H
	DD	05H
	DD	01H
	DD	04H
	DD	05H
	DD	06H
	DD	04H
	DD	06H
	DD	07H
	DD	03H
	DD	02H
	DD	06H
	DD	03H
	DD	06H
	DD	07H
	DD	00H
	DD	03H
	DD	07H
	DD	00H
	DD	07H
	DD	04H
	DD	01H
	DD	02H
	DD	06H
	DD	01H
	DD	06H
	DD	05H
; Function compile flags: /Ogty
; File c:\documents and settings\test\mes documents\source\virtuos_v17\build\program\_common\model.cpp
_DATA	ENDS
;	COMDAT ?IntersectBB@CModel@@QAEHABUD3DXVECTOR3@@0ABUD3DXMATRIX@@PAU2@PAM@Z
_TEXT	SEGMENT
_v3$ = -36						; size = 12
_v2$ = -24						; size = 12
_v1$ = -12						; size = 12
_vRayOrig$ = 8						; size = 4
_vRayDir$ = 12						; size = 4
_mWorld$ = 16						; size = 4
_pvIntersect$ = 20					; size = 4
_pfDist$ = 24						; size = 4
?IntersectBB@CModel@@QAEHABUD3DXVECTOR3@@0ABUD3DXMATRIX@@PAU2@PAM@Z PROC NEAR ; CModel::IntersectBB, COMDAT
; _this$ = ecx

; 105  : {

  00000	83 ec 24	 sub	 esp, 36			; 00000024H
  00003	53		 push	 ebx
  00004	55		 push	 ebp

; 106  : 	// Collect all intersections
; 107  : 	D3DXVECTOR3 v1, v2, v3;
; 108  : 	D3DXVECTOR4 vOut;
; 109  : 	D3DXVECTOR3 vPos;
; 110  : 
; 111  : 	//  3|2  
; 112  : 	//  -+-
; 113  : 	//	0|1
; 114  : 	//  
; 115  : 	//  7|6
; 116  : 	//  -+-
; 117  : 	//	4|5
; 118  : 
; 119  : 	static int anIntexTable[ 12 * 3 ] =
; 120  : 	{
; 121  : 		0, 1, 2,  0, 2, 3,
; 122  : 		0, 4, 5,  0, 5, 1,
; 123  : 		4, 5, 6,  4, 6, 7,
; 124  : 		3, 2, 6,  3, 6, 7,
; 125  : 		0, 3, 7,  0, 7, 4,
; 126  : 		1, 2, 6,  1, 6, 5
; 127  : 	};
; 128  : 	const BOUND_BOX* pBB = GetBBVector();

  00005	8b 6c 24 40	 mov	 ebp, DWORD PTR _pfDist$[esp+40]
  00009	56		 push	 esi
  0000a	57		 push	 edi
  0000b	8b 7c 24 40	 mov	 edi, DWORD PTR _mWorld$[esp+48]
  0000f	8b d9		 mov	 ebx, ecx
  00011	be 04 00 00 00	 mov	 esi, OFFSET FLAT:?anIntexTable@?1??IntersectBB@CModel@@QAEHABUD3DXVECTOR3@@0ABUD3DXMATRIX@@PAU3@PAM@Z@4PAHA+4
$L225672:

; 129  : 
; 130  : 	for( int i = 0; i < 12 * 3; i += 3 )
; 131  : 	{
; 132  : 		v1 = pBB->m_vPos[ anIntexTable[ i + 0 ] ];

  00016	8b 46 fc	 mov	 eax, DWORD PTR [esi-4]
  00019	8d 04 40	 lea	 eax, DWORD PTR [eax+eax*2]
  0001c	8d 4c 83 0c	 lea	 ecx, DWORD PTR [ebx+eax*4+12]
  00020	8b 11		 mov	 edx, DWORD PTR [ecx]
  00022	89 54 24 28	 mov	 DWORD PTR _v1$[esp+52], edx
  00026	8b 41 04	 mov	 eax, DWORD PTR [ecx+4]
  00029	89 44 24 2c	 mov	 DWORD PTR _v1$[esp+56], eax
  0002d	8b 49 08	 mov	 ecx, DWORD PTR [ecx+8]

; 133  : 		v2 = pBB->m_vPos[ anIntexTable[ i + 1 ] ];

  00030	8b 06		 mov	 eax, DWORD PTR [esi]
  00032	8d 14 40	 lea	 edx, DWORD PTR [eax+eax*2]
  00035	89 4c 24 30	 mov	 DWORD PTR _v1$[esp+60], ecx
  00039	8d 44 93 0c	 lea	 eax, DWORD PTR [ebx+edx*4+12]
  0003d	8b 08		 mov	 ecx, DWORD PTR [eax]
  0003f	89 4c 24 1c	 mov	 DWORD PTR _v2$[esp+52], ecx
  00043	8b 50 04	 mov	 edx, DWORD PTR [eax+4]
  00046	89 54 24 20	 mov	 DWORD PTR _v2$[esp+56], edx
  0004a	8b 40 08	 mov	 eax, DWORD PTR [eax+8]
  0004d	89 44 24 24	 mov	 DWORD PTR _v2$[esp+60], eax

; 134  : 		v3 = pBB->m_vPos[ anIntexTable[ i + 2 ] ];					

  00051	8b 46 04	 mov	 eax, DWORD PTR [esi+4]
  00054	8d 0c 40	 lea	 ecx, DWORD PTR [eax+eax*2]
  00057	8d 54 8b 0c	 lea	 edx, DWORD PTR [ebx+ecx*4+12]
  0005b	8b 02		 mov	 eax, DWORD PTR [edx]
  0005d	89 44 24 10	 mov	 DWORD PTR _v3$[esp+52], eax
  00061	8b 4a 04	 mov	 ecx, DWORD PTR [edx+4]

; 135  : 
; 136  : 		D3DXVec3TransformCoord( &v1, &v1, &mWorld ); 

  00064	57		 push	 edi
  00065	8d 44 24 2c	 lea	 eax, DWORD PTR _v1$[esp+56]
  00069	89 4c 24 18	 mov	 DWORD PTR _v3$[esp+60], ecx
  0006d	8b 52 08	 mov	 edx, DWORD PTR [edx+8]
  00070	50		 push	 eax
  00071	8b c8		 mov	 ecx, eax
  00073	51		 push	 ecx
  00074	89 54 24 24	 mov	 DWORD PTR _v3$[esp+72], edx
  00078	e8 00 00 00 00	 call	 _D3DXVec3TransformCoord@12

; 137  : 		D3DXVec3TransformCoord( &v2, &v2, &mWorld ); 

  0007d	57		 push	 edi
  0007e	8d 54 24 20	 lea	 edx, DWORD PTR _v2$[esp+56]
  00082	52		 push	 edx
  00083	8b c2		 mov	 eax, edx
  00085	50		 push	 eax
  00086	e8 00 00 00 00	 call	 _D3DXVec3TransformCoord@12

; 138  : 		D3DXVec3TransformCoord( &v3, &v3, &mWorld ); 

  0008b	57		 push	 edi
  0008c	8d 4c 24 14	 lea	 ecx, DWORD PTR _v3$[esp+56]
  00090	51		 push	 ecx
  00091	8b d1		 mov	 edx, ecx
  00093	52		 push	 edx
  00094	e8 00 00 00 00	 call	 _D3DXVec3TransformCoord@12

; 139  : 		
; 140  : 		if( IntersectTriangle( v1, v2, v3, vRayOrig, vRayDir, pvIntersect, pfDist ) ) 

  00099	8b 44 24 44	 mov	 eax, DWORD PTR _pvIntersect$[esp+48]
  0009d	8b 4c 24 3c	 mov	 ecx, DWORD PTR _vRayDir$[esp+48]
  000a1	8b 54 24 38	 mov	 edx, DWORD PTR _vRayOrig$[esp+48]
  000a5	55		 push	 ebp
  000a6	50		 push	 eax
  000a7	51		 push	 ecx
  000a8	52		 push	 edx
  000a9	8d 44 24 20	 lea	 eax, DWORD PTR _v3$[esp+68]
  000ad	50		 push	 eax
  000ae	8d 4c 24 30	 lea	 ecx, DWORD PTR _v2$[esp+72]
  000b2	51		 push	 ecx
  000b3	8d 54 24 40	 lea	 edx, DWORD PTR _v1$[esp+76]
  000b7	52		 push	 edx
  000b8	e8 00 00 00 00	 call	 ?IntersectTriangle@@YAHAAUD3DXVECTOR3@@00ABU1@1PAU1@PAM@Z ; IntersectTriangle
  000bd	83 c4 1c	 add	 esp, 28			; 0000001cH
  000c0	85 c0		 test	 eax, eax
  000c2	75 19		 jne	 SHORT $L227082
  000c4	83 c6 0c	 add	 esi, 12			; 0000000cH
  000c7	81 fe 94 00 00
	00		 cmp	 esi, OFFSET FLAT:?anIntexTable@?1??IntersectBB@CModel@@QAEHABUD3DXVECTOR3@@0ABUD3DXMATRIX@@PAU3@PAM@Z@4PAHA+148
  000cd	0f 8c 43 ff ff
	ff		 jl	 $L225672
  000d3	5f		 pop	 edi
  000d4	5e		 pop	 esi
  000d5	5d		 pop	 ebp
  000d6	5b		 pop	 ebx

; 142  : 	}
; 143  : 	return FALSE;
; 144  : }

  000d7	83 c4 24	 add	 esp, 36			; 00000024H
  000da	c2 14 00	 ret	 20			; 00000014H
$L227082:
  000dd	5f		 pop	 edi
  000de	5e		 pop	 esi
  000df	5d		 pop	 ebp

; 141  : 			return TRUE;

  000e0	b8 01 00 00 00	 mov	 eax, 1
  000e5	5b		 pop	 ebx

; 142  : 	}
; 143  : 	return FALSE;
; 144  : }

  000e6	83 c4 24	 add	 esp, 36			; 00000024H
  000e9	c2 14 00	 ret	 20			; 00000014H
?IntersectBB@CModel@@QAEHABUD3DXVECTOR3@@0ABUD3DXMATRIX@@PAU2@PAM@Z ENDP ; CModel::IntersectBB
_TEXT	ENDS
EXTRN	??3@YAXPAX@Z:NEAR				; operator delete
; Function compile flags: /Ogty
;	COMDAT ??_GCModel@@UAEPAXI@Z
_TEXT	SEGMENT
___flags$ = 8						; size = 4
??_GCModel@@UAEPAXI@Z PROC NEAR				; CModel::`scalar deleting destructor', COMDAT
; _this$ = ecx
  00000	f6 44 24 04 01	 test	 BYTE PTR ___flags$[esp-4], 1
  00005	56		 push	 esi
  00006	8b f1		 mov	 esi, ecx
  00008	c7 06 00 00 00
	00		 mov	 DWORD PTR [esi], OFFSET FLAT:??_7CModel@@6B@
  0000e	74 09		 je	 SHORT $L227095
  00010	56		 push	 esi
  00011	e8 00 00 00 00	 call	 ??3@YAXPAX@Z		; operator delete
  00016	83 c4 04	 add	 esp, 4
$L227095:
  00019	8b c6		 mov	 eax, esi
  0001b	5e		 pop	 esi
  0001c	c2 04 00	 ret	 4
??_GCModel@@UAEPAXI@Z ENDP				; CModel::`scalar deleting destructor'
_TEXT	ENDS
END
