; Listing generated by Microsoft (R) Optimizing Compiler Version 13.10.6030 

	TITLE	\Documents and Settings\test\Mes documents\Source\Virtuos_v17\Build\Program\_Common\ModelObject.cpp
	.386P
include listing.inc
if @Version gt 510
.model FLAT
else
_TEXT	SEGMENT PARA USE32 PUBLIC 'CODE'
_TEXT	ENDS
_DATA	SEGMENT DWORD USE32 PUBLIC 'DATA'
_DATA	ENDS
CONST	SEGMENT DWORD USE32 PUBLIC 'CONST'
CONST	ENDS
_BSS	SEGMENT PARA USE32 PUBLIC 'BSS'
_BSS	ENDS
$$SYMBOLS	SEGMENT BYTE USE32 'DEBSYM'
$$SYMBOLS	ENDS
$$TYPES	SEGMENT BYTE USE32 'DEBTYP'
$$TYPES	ENDS
_TLS	SEGMENT DWORD USE32 PUBLIC 'TLS'
_TLS	ENDS
;	COMDAT ??_C@_0N@BBDKLDAA@?$CFs_?$CFs_?$CFs?4ani?$AA@
CONST	SEGMENT DWORD USE32 PUBLIC 'CONST'
CONST	ENDS
;	COMDAT ??_C@_0BK@LAMMKEEK@obj_guildcombatground?4o3d?$AA@
CONST	SEGMENT DWORD USE32 PUBLIC 'CONST'
CONST	ENDS
;	COMDAT ??_C@_0CJ@HDCFKCHE@CModelObject?3?3TakeOffParts?5?3?5nPa@
CONST	SEGMENT DWORD USE32 PUBLIC 'CONST'
CONST	ENDS
;	COMDAT ??_C@_0DJ@MLDPDDGA@CModelObject?3?3LoadBone?5?$DL?5?$MA?L?$LJ?L?5?$LK?$LL@
CONST	SEGMENT DWORD USE32 PUBLIC 'CONST'
CONST	ENDS
;	COMDAT ??_C@_0BC@DADEMEMC@?$CFs?5?3?5?C?$KD?$MA?$LL?5?$LM?v?5?$LO?x?$MA?$LN?$AA@
CONST	SEGMENT DWORD USE32 PUBLIC 'CONST'
CONST	ENDS
;	COMDAT ??_C@_0CE@NAJOOAFP@?$CFs?5?3?5?$LK?$LL?$MA?$LL?5?$LH?N?$LF?y?G?O?A?v?5?$LO?J?$LA?m?5?$LI?p?$LM?G?$MA?$LL?5?$MA@
CONST	SEGMENT DWORD USE32 PUBLIC 'CONST'
CONST	ENDS
;	COMDAT ??_C@_0DO@MJIKBIFN@CModelObject?3?3LoadElement?5?9?5?$CFs?5b@
CONST	SEGMENT DWORD USE32 PUBLIC 'CONST'
CONST	ENDS
;	COMDAT ??_C@_0DN@MMEBGEII@CModelObject?3?3MovePart?5?3?5m_Eleme@
CONST	SEGMENT DWORD USE32 PUBLIC 'CONST'
CONST	ENDS
;	COMDAT ??_C@_0DK@DELLAMDK@CModelObject?3?3LoadElement?5?3?5nPar@
CONST	SEGMENT DWORD USE32 PUBLIC 'CONST'
CONST	ENDS
;	COMDAT ??_C@_06IJGEHPBH@Model?2?$AA@
CONST	SEGMENT DWORD USE32 PUBLIC 'CONST'
CONST	ENDS
;	COMDAT ??_C@_0DE@IHGMJNKM@CModelObject?3?3LoadElement?$LP?$KB?$LM?$KN?5?F?$KI@
CONST	SEGMENT DWORD USE32 PUBLIC 'CONST'
CONST	ENDS
;	COMDAT ??_C@_0FD@CBFMNCCC@CModelObject?3?3LoadElement?5?9?5?$CFs?$MA?G@
CONST	SEGMENT DWORD USE32 PUBLIC 'CONST'
CONST	ENDS
;	COMDAT ??_C@_0DM@KIFEJOGG@CModelObject?3?3LoadElement?3?5?$CFs?5pE@
CONST	SEGMENT DWORD USE32 PUBLIC 'CONST'
CONST	ENDS
;	COMDAT ??_C@_0BL@ENCDCJBI@?$CFs?5LoadElement?5?3?5nTotal?$DN?$CFd?$AA@
CONST	SEGMENT DWORD USE32 PUBLIC 'CONST'
CONST	ENDS
;	COMDAT ??_C@_0BL@HHHJNEMN@SWDForceAdd?5?3?5?$LJ?$PM?$MA?$KH?5?C?J?$LA?z?5?$CFd?$AA@
CONST	SEGMENT DWORD USE32 PUBLIC 'CONST'
CONST	ENDS
;	COMDAT ??_C@_0CC@FIJGMPIN@SWDForceAdd?5Spline?5?3?5?$LJ?$PM?$MA?$KH?5?C?J?$LA?z?5?$CF@
CONST	SEGMENT DWORD USE32 PUBLIC 'CONST'
CONST	ENDS
xdata$x	SEGMENT DWORD USE32 PUBLIC 'CONST'
xdata$x	ENDS
text$AFX_COL1	SEGMENT PARA USE32 PUBLIC ''
text$AFX_COL1	ENDS
;	COMDAT ??0CModelObject@@QAE@XZ
_TEXT	SEGMENT PARA USE32 PUBLIC 'CODE'
_TEXT	ENDS
;	COMDAT ??_GCModelObject@@UAEPAXI@Z
_TEXT	SEGMENT PARA USE32 PUBLIC 'CODE'
_TEXT	ENDS
;	COMDAT ??0O3D_ELEMENT@@QAE@XZ
_TEXT	SEGMENT PARA USE32 PUBLIC 'CODE'
_TEXT	ENDS
;	COMDAT ??1CModelObject@@UAE@XZ
_TEXT	SEGMENT PARA USE32 PUBLIC 'CODE'
_TEXT	ENDS
;	COMDAT ?Init@CModelObject@@AAEXXZ
_TEXT	SEGMENT PARA USE32 PUBLIC 'CODE'
_TEXT	ENDS
;	COMDAT ?Init@CModelObject@@AAEXH@Z
_TEXT	SEGMENT PARA USE32 PUBLIC 'CODE'
_TEXT	ENDS
;	COMDAT ?Destroy@CModelObject@@AAEXXZ
_TEXT	SEGMENT PARA USE32 PUBLIC 'CODE'
_TEXT	ENDS
;	COMDAT ??_GCSwordForce@@QAEPAXI@Z
_TEXT	SEGMENT PARA USE32 PUBLIC 'CODE'
_TEXT	ENDS
;	COMDAT ?GetMotionFileName@CModelObject@@QBE?AV?$CStringT@DV?$StrTraitMFC@DV?$ChTraitsCRT@D@ATL@@@@@ATL@@ABV23@@Z
_TEXT	SEGMENT PARA USE32 PUBLIC 'CODE'
_TEXT	ENDS
;	COMDAT ?TestIntersectionOBB_Line@CModelObject@@UAEHABVSegment3@@PBVCObj@@H@Z
_TEXT	SEGMENT PARA USE32 PUBLIC 'CODE'
_TEXT	ENDS
;	COMDAT ?Destroy@CModelObject@@AAEHH@Z
_TEXT	SEGMENT PARA USE32 PUBLIC 'CODE'
_TEXT	ENDS
;	COMDAT ?CreateForce@CModelObject@@QAEXH@Z
_TEXT	SEGMENT PARA USE32 PUBLIC 'CODE'
_TEXT	ENDS
;	COMDAT ?TakeOffParts@CModelObject@@QAEXH@Z
_TEXT	SEGMENT PARA USE32 PUBLIC 'CODE'
_TEXT	ENDS
;	COMDAT ?LoadBone@CModelObject@@QAEHPBD@Z
_TEXT	SEGMENT PARA USE32 PUBLIC 'CODE'
_TEXT	ENDS
;	COMDAT ?LoadMotion@CModelObject@@QAEHPBD@Z
_TEXT	SEGMENT PARA USE32 PUBLIC 'CODE'
_TEXT	ENDS
;	COMDAT ?MovePart@CModelObject@@QAEHHH@Z
_TEXT	SEGMENT PARA USE32 PUBLIC 'CODE'
_TEXT	ENDS
;	COMDAT ?LoadElement@CModelObject@@QAEHPBDH@Z
_TEXT	SEGMENT PARA USE32 PUBLIC 'CODE'
_TEXT	ENDS
;	COMDAT ?SetParent@CModelObject@@QAEXHH@Z
_TEXT	SEGMENT PARA USE32 PUBLIC 'CODE'
_TEXT	ENDS
;	COMDAT ?SetTextureMulti@CModelObject@@QAEXPBDH@Z
_TEXT	SEGMENT PARA USE32 PUBLIC 'CODE'
_TEXT	ENDS
;	COMDAT ?ClearTextureEx@CModelObject@@QAEXH@Z
_TEXT	SEGMENT PARA USE32 PUBLIC 'CODE'
_TEXT	ENDS
;	COMDAT ?ChangeTexture@CModelObject@@QAEXHPBD0@Z
_TEXT	SEGMENT PARA USE32 PUBLIC 'CODE'
_TEXT	ENDS
;	COMDAT ?InitDeviceObjects@CModelObject@@UAEJPAUIDirect3DDevice9@@@Z
_TEXT	SEGMENT PARA USE32 PUBLIC 'CODE'
_TEXT	ENDS
;	COMDAT ?RestoreDeviceObjects@CModelObject@@UAEJXZ
_TEXT	SEGMENT PARA USE32 PUBLIC 'CODE'
_TEXT	ENDS
;	COMDAT ?InvalidateDeviceObjects@CModelObject@@UAEJXZ
_TEXT	SEGMENT PARA USE32 PUBLIC 'CODE'
_TEXT	ENDS
;	COMDAT ?DeleteDeviceObjects@CModelObject@@UAEJXZ
_TEXT	SEGMENT PARA USE32 PUBLIC 'CODE'
_TEXT	ENDS
;	COMDAT ?FrameMove@CModelObject@@UAEXPAUD3DXVECTOR3@@M@Z
_TEXT	SEGMENT PARA USE32 PUBLIC 'CODE'
_TEXT	ENDS
;	COMDAT ?MakeSWDForce@CModelObject@@QAEXHKHKM@Z
_TEXT	SEGMENT PARA USE32 PUBLIC 'CODE'
_TEXT	ENDS
;	COMDAT ?CreateWeaponEffect@CModelObject@@QAEXHKPBUD3DXMATRIX@@HHH@Z
_TEXT	SEGMENT PARA USE32 PUBLIC 'CODE'
_TEXT	ENDS
;	COMDAT ?CreateParticle@CModelObject@@QAEXHPBUD3DXMATRIX@@HHH@Z
_TEXT	SEGMENT PARA USE32 PUBLIC 'CODE'
_TEXT	ENDS
;	COMDAT ?RenderItemElec_Adv@CModelObject@@QAEXHPBUD3DXMATRIX@@H@Z
_TEXT	SEGMENT PARA USE32 PUBLIC 'CODE'
_TEXT	ENDS
;	COMDAT ?RenderItemElec@CModelObject@@QAEXHPBUD3DXMATRIX@@H@Z
_TEXT	SEGMENT PARA USE32 PUBLIC 'CODE'
_TEXT	ENDS
;	COMDAT ?SetMotionBlending@CModelObject@@QAEXH@Z
_TEXT	SEGMENT PARA USE32 PUBLIC 'CODE'
_TEXT	ENDS
;	COMDAT ?GetForcePos@CModelObject@@QAEXPAUD3DXVECTOR3@@HHABUD3DXMATRIX@@@Z
_TEXT	SEGMENT PARA USE32 PUBLIC 'CODE'
_TEXT	ENDS
;	COMDAT ?GetForcePos@CModelObject@@QAEXPAUD3DXVECTOR3@@HHABUD3DXMATRIX@@M@Z
_TEXT	SEGMENT PARA USE32 PUBLIC 'CODE'
_TEXT	ENDS
;	COMDAT ?GetHandPos@CModelObject@@QAEXPAUD3DXVECTOR3@@HABUD3DXMATRIX@@@Z
_TEXT	SEGMENT PARA USE32 PUBLIC 'CODE'
_TEXT	ENDS
;	COMDAT ?SplineSlerp@@YA?AUD3DXVECTOR3@@PAU1@000M@Z
_TEXT	SEGMENT PARA USE32 PUBLIC 'CODE'
_TEXT	ENDS
;	COMDAT ?Add@CSwordForce@@QAEXUD3DXVECTOR3@@0@Z
_TEXT	SEGMENT PARA USE32 PUBLIC 'CODE'
_TEXT	ENDS
;	COMDAT ?MakeSpline@CSwordForce@@QAEXXZ
_TEXT	SEGMENT PARA USE32 PUBLIC 'CODE'
_TEXT	ENDS
;	COMDAT ?Process@CSwordForce@@QAEXXZ
_TEXT	SEGMENT PARA USE32 PUBLIC 'CODE'
_TEXT	ENDS
;	COMDAT ?Draw@CSwordForce@@QAEXPAUIDirect3DDevice9@@PBUD3DXMATRIX@@@Z
_TEXT	SEGMENT PARA USE32 PUBLIC 'CODE'
_TEXT	ENDS
;	COMDAT ?Format@?$CStringT@DV?$StrTraitMFC@DV?$ChTraitsCRT@D@ATL@@@@@ATL@@QAAXPBDZZ
_TEXT	SEGMENT PARA USE32 PUBLIC 'CODE'
_TEXT	ENDS
;	COMDAT ?compare@?$basic_string@DU?$char_traits@D@std@@V?$allocator@D@2@@std@@QBEHABV12@@Z
_TEXT	SEGMENT PARA USE32 PUBLIC 'CODE'
_TEXT	ENDS
;	COMDAT ?IsFull@?$CStack@K@@QAEHXZ
_TEXT	SEGMENT PARA USE32 PUBLIC 'CODE'
_TEXT	ENDS
;	COMDAT ??0?$pair@KPAVCCtrl@@@std@@QAE@ABKABQAVCCtrl@@@Z
_TEXT	SEGMENT PARA USE32 PUBLIC 'CODE'
_TEXT	ENDS
;	COMDAT ?GetMax@?$CItemContainer@VCItemElem@@@@QAEHXZ
_TEXT	SEGMENT PARA USE32 PUBLIC 'CODE'
_TEXT	ENDS
;	COMDAT ??0?$deque@PAUtagACTMSG@@V?$allocator@PAUtagACTMSG@@@std@@@std@@QAE@XZ
_TEXT	SEGMENT PARA USE32 PUBLIC 'CODE'
_TEXT	ENDS
;	COMDAT ??1?$deque@PAUtagACTMSG@@V?$allocator@PAUtagACTMSG@@@std@@@std@@QAE@XZ
_TEXT	SEGMENT PARA USE32 PUBLIC 'CODE'
_TEXT	ENDS
;	COMDAT ?begin@?$deque@PAUtagACTMSG@@V?$allocator@PAUtagACTMSG@@@std@@@std@@QAE?AViterator@12@XZ
_TEXT	SEGMENT PARA USE32 PUBLIC 'CODE'
_TEXT	ENDS
;	COMDAT ?end@?$deque@PAUtagACTMSG@@V?$allocator@PAUtagACTMSG@@@std@@@std@@QAE?AViterator@12@XZ
_TEXT	SEGMENT PARA USE32 PUBLIC 'CODE'
_TEXT	ENDS
;	COMDAT ?empty@?$deque@PAUtagACTMSG@@V?$allocator@PAUtagACTMSG@@@std@@@std@@QBE_NXZ
_TEXT	SEGMENT PARA USE32 PUBLIC 'CODE'
_TEXT	ENDS
;	COMDAT ?clear@?$deque@PAUtagACTMSG@@V?$allocator@PAUtagACTMSG@@@std@@@std@@QAEXXZ
_TEXT	SEGMENT PARA USE32 PUBLIC 'CODE'
_TEXT	ENDS
;	COMDAT ??0?$deque@PAUtagMAGICATKMSG@@V?$allocator@PAUtagMAGICATKMSG@@@std@@@std@@QAE@XZ
_TEXT	SEGMENT PARA USE32 PUBLIC 'CODE'
_TEXT	ENDS
;	COMDAT ??1?$deque@PAUtagMAGICATKMSG@@V?$allocator@PAUtagMAGICATKMSG@@@std@@@std@@QAE@XZ
_TEXT	SEGMENT PARA USE32 PUBLIC 'CODE'
_TEXT	ENDS
;	COMDAT ?begin@?$deque@PAUtagMAGICATKMSG@@V?$allocator@PAUtagMAGICATKMSG@@@std@@@std@@QAE?AViterator@12@XZ
_TEXT	SEGMENT PARA USE32 PUBLIC 'CODE'
_TEXT	ENDS
;	COMDAT ?end@?$deque@PAUtagMAGICATKMSG@@V?$allocator@PAUtagMAGICATKMSG@@@std@@@std@@QAE?AViterator@12@XZ
_TEXT	SEGMENT PARA USE32 PUBLIC 'CODE'
_TEXT	ENDS
;	COMDAT ?empty@?$deque@PAUtagMAGICATKMSG@@V?$allocator@PAUtagMAGICATKMSG@@@std@@@std@@QBE_NXZ
_TEXT	SEGMENT PARA USE32 PUBLIC 'CODE'
_TEXT	ENDS
;	COMDAT ?clear@?$deque@PAUtagMAGICATKMSG@@V?$allocator@PAUtagMAGICATKMSG@@@std@@@std@@QAEXXZ
_TEXT	SEGMENT PARA USE32 PUBLIC 'CODE'
_TEXT	ENDS
;	COMDAT ??Diterator@?$deque@PAUtagACTMSG@@V?$allocator@PAUtagACTMSG@@@std@@@std@@QBEAAPAUtagACTMSG@@XZ
_TEXT	SEGMENT PARA USE32 PUBLIC 'CODE'
_TEXT	ENDS
;	COMDAT ??Eiterator@?$deque@PAUtagACTMSG@@V?$allocator@PAUtagACTMSG@@@std@@@std@@QAEAAV012@XZ
_TEXT	SEGMENT PARA USE32 PUBLIC 'CODE'
_TEXT	ENDS
;	COMDAT ??9const_iterator@?$deque@PAUtagACTMSG@@V?$allocator@PAUtagACTMSG@@@std@@@std@@QBE_NABV012@@Z
_TEXT	SEGMENT PARA USE32 PUBLIC 'CODE'
_TEXT	ENDS
;	COMDAT ??Diterator@?$deque@PAUtagMAGICATKMSG@@V?$allocator@PAUtagMAGICATKMSG@@@std@@@std@@QBEAAPAUtagMAGICATKMSG@@XZ
_TEXT	SEGMENT PARA USE32 PUBLIC 'CODE'
_TEXT	ENDS
;	COMDAT ??Eiterator@?$deque@PAUtagMAGICATKMSG@@V?$allocator@PAUtagMAGICATKMSG@@@std@@@std@@QAEAAV012@XZ
_TEXT	SEGMENT PARA USE32 PUBLIC 'CODE'
_TEXT	ENDS
;	COMDAT ??9const_iterator@?$deque@PAUtagMAGICATKMSG@@V?$allocator@PAUtagMAGICATKMSG@@@std@@@std@@QBE_NABV012@@Z
_TEXT	SEGMENT PARA USE32 PUBLIC 'CODE'
_TEXT	ENDS
;	COMDAT ?FormatV@?$CStringT@DV?$StrTraitMFC@DV?$ChTraitsCRT@D@ATL@@@@@ATL@@QAEXPBDPAD@Z
_TEXT	SEGMENT PARA USE32 PUBLIC 'CODE'
_TEXT	ENDS
;	COMDAT ?compare@?$basic_string@DU?$char_traits@D@std@@V?$allocator@D@2@@std@@QBEHIIPBDI@Z
_TEXT	SEGMENT PARA USE32 PUBLIC 'CODE'
_TEXT	ENDS
;	COMDAT ?_Tidy@?$deque@PAUtagACTMSG@@V?$allocator@PAUtagACTMSG@@@std@@@std@@IAEXXZ
_TEXT	SEGMENT PARA USE32 PUBLIC 'CODE'
_TEXT	ENDS
;	COMDAT ??0?$_Deque_val@PAUtagACTMSG@@V?$allocator@PAUtagACTMSG@@@std@@@std@@IAE@V?$allocator@PAUtagACTMSG@@@1@@Z
_TEXT	SEGMENT PARA USE32 PUBLIC 'CODE'
_TEXT	ENDS
;	COMDAT ??0?$allocator@PAUtagACTMSG@@@std@@QAE@XZ
_TEXT	SEGMENT PARA USE32 PUBLIC 'CODE'
_TEXT	ENDS
;	COMDAT ?_Tidy@?$deque@PAUtagMAGICATKMSG@@V?$allocator@PAUtagMAGICATKMSG@@@std@@@std@@IAEXXZ
_TEXT	SEGMENT PARA USE32 PUBLIC 'CODE'
_TEXT	ENDS
;	COMDAT ??0?$_Deque_val@PAUtagMAGICATKMSG@@V?$allocator@PAUtagMAGICATKMSG@@@std@@@std@@IAE@V?$allocator@PAUtagMAGICATKMSG@@@1@@Z
_TEXT	SEGMENT PARA USE32 PUBLIC 'CODE'
_TEXT	ENDS
;	COMDAT ??0?$allocator@PAUtagMAGICATKMSG@@@std@@QAE@XZ
_TEXT	SEGMENT PARA USE32 PUBLIC 'CODE'
_TEXT	ENDS
;	COMDAT ??0iterator@?$deque@PAUtagACTMSG@@V?$allocator@PAUtagACTMSG@@@std@@@std@@QAE@IPBV12@@Z
_TEXT	SEGMENT PARA USE32 PUBLIC 'CODE'
_TEXT	ENDS
;	COMDAT ??Dconst_iterator@?$deque@PAUtagACTMSG@@V?$allocator@PAUtagACTMSG@@@std@@@std@@QBEABQAUtagACTMSG@@XZ
_TEXT	SEGMENT PARA USE32 PUBLIC 'CODE'
_TEXT	ENDS
;	COMDAT ??8const_iterator@?$deque@PAUtagACTMSG@@V?$allocator@PAUtagACTMSG@@@std@@@std@@QBE_NABV012@@Z
_TEXT	SEGMENT PARA USE32 PUBLIC 'CODE'
_TEXT	ENDS
;	COMDAT ??0iterator@?$deque@PAUtagMAGICATKMSG@@V?$allocator@PAUtagMAGICATKMSG@@@std@@@std@@QAE@IPBV12@@Z
_TEXT	SEGMENT PARA USE32 PUBLIC 'CODE'
_TEXT	ENDS
;	COMDAT ??Dconst_iterator@?$deque@PAUtagMAGICATKMSG@@V?$allocator@PAUtagMAGICATKMSG@@@std@@@std@@QBEABQAUtagMAGICATKMSG@@XZ
_TEXT	SEGMENT PARA USE32 PUBLIC 'CODE'
_TEXT	ENDS
;	COMDAT ??8const_iterator@?$deque@PAUtagMAGICATKMSG@@V?$allocator@PAUtagMAGICATKMSG@@@std@@@std@@QBE_NABV012@@Z
_TEXT	SEGMENT PARA USE32 PUBLIC 'CODE'
_TEXT	ENDS
;	COMDAT ?pop_back@?$deque@PAUtagACTMSG@@V?$allocator@PAUtagACTMSG@@@std@@@std@@QAEXXZ
_TEXT	SEGMENT PARA USE32 PUBLIC 'CODE'
_TEXT	ENDS
;	COMDAT ??0?$_Deque_map@PAUtagACTMSG@@V?$allocator@PAUtagACTMSG@@@std@@@std@@IAE@V?$allocator@PAUtagACTMSG@@@1@@Z
_TEXT	SEGMENT PARA USE32 PUBLIC 'CODE'
_TEXT	ENDS
;	COMDAT ??0?$allocator@PAUtagACTMSG@@@std@@QAE@ABV01@@Z
_TEXT	SEGMENT PARA USE32 PUBLIC 'CODE'
_TEXT	ENDS
;	COMDAT ?deallocate@?$allocator@PAUtagACTMSG@@@std@@QAEXPAPAUtagACTMSG@@I@Z
_TEXT	SEGMENT PARA USE32 PUBLIC 'CODE'
_TEXT	ENDS
;	COMDAT ?deallocate@?$allocator@PAPAUtagACTMSG@@@std@@QAEXPAPAPAUtagACTMSG@@I@Z
_TEXT	SEGMENT PARA USE32 PUBLIC 'CODE'
_TEXT	ENDS
;	COMDAT ?destroy@?$allocator@PAPAUtagACTMSG@@@std@@QAEXPAPAPAUtagACTMSG@@@Z
_TEXT	SEGMENT PARA USE32 PUBLIC 'CODE'
_TEXT	ENDS
;	COMDAT ?pop_back@?$deque@PAUtagMAGICATKMSG@@V?$allocator@PAUtagMAGICATKMSG@@@std@@@std@@QAEXXZ
_TEXT	SEGMENT PARA USE32 PUBLIC 'CODE'
_TEXT	ENDS
;	COMDAT ??0?$_Deque_map@PAUtagMAGICATKMSG@@V?$allocator@PAUtagMAGICATKMSG@@@std@@@std@@IAE@V?$allocator@PAUtagMAGICATKMSG@@@1@@Z
_TEXT	SEGMENT PARA USE32 PUBLIC 'CODE'
_TEXT	ENDS
;	COMDAT ??0?$allocator@PAUtagMAGICATKMSG@@@std@@QAE@ABV01@@Z
_TEXT	SEGMENT PARA USE32 PUBLIC 'CODE'
_TEXT	ENDS
;	COMDAT ?deallocate@?$allocator@PAUtagMAGICATKMSG@@@std@@QAEXPAPAUtagMAGICATKMSG@@I@Z
_TEXT	SEGMENT PARA USE32 PUBLIC 'CODE'
_TEXT	ENDS
;	COMDAT ?deallocate@?$allocator@PAPAUtagMAGICATKMSG@@@std@@QAEXPAPAPAUtagMAGICATKMSG@@I@Z
_TEXT	SEGMENT PARA USE32 PUBLIC 'CODE'
_TEXT	ENDS
;	COMDAT ?destroy@?$allocator@PAPAUtagMAGICATKMSG@@@std@@QAEXPAPAPAUtagMAGICATKMSG@@@Z
_TEXT	SEGMENT PARA USE32 PUBLIC 'CODE'
_TEXT	ENDS
;	COMDAT ??0const_iterator@?$deque@PAUtagACTMSG@@V?$allocator@PAUtagACTMSG@@@std@@@std@@QAE@IPBV12@@Z
_TEXT	SEGMENT PARA USE32 PUBLIC 'CODE'
_TEXT	ENDS
;	COMDAT ??0const_iterator@?$deque@PAUtagMAGICATKMSG@@V?$allocator@PAUtagMAGICATKMSG@@@std@@@std@@QAE@IPBV12@@Z
_TEXT	SEGMENT PARA USE32 PUBLIC 'CODE'
_TEXT	ENDS
;	COMDAT ?destroy@?$allocator@PAUtagACTMSG@@@std@@QAEXPAPAUtagACTMSG@@@Z
_TEXT	SEGMENT PARA USE32 PUBLIC 'CODE'
_TEXT	ENDS
;	COMDAT ?destroy@?$allocator@PAUtagMAGICATKMSG@@@std@@QAEXPAPAUtagMAGICATKMSG@@@Z
_TEXT	SEGMENT PARA USE32 PUBLIC 'CODE'
_TEXT	ENDS
;	COMDAT ??$_Iter_cat@Vconst_iterator@?$vector@EV?$allocator@E@std@@@std@@@std@@YA?AUrandom_access_iterator_tag@0@ABVconst_iterator@?$vector@EV?$allocator@E@std@@@0@@Z
_TEXT	SEGMENT PARA USE32 PUBLIC 'CODE'
_TEXT	ENDS
;	COMDAT ??$_Assign@Vconst_iterator@?$vector@EV?$allocator@E@std@@@std@@@?$vector@EV?$allocator@E@std@@@std@@QAEXVconst_iterator@01@0Uinput_iterator_tag@1@@Z
_TEXT	SEGMENT PARA USE32 PUBLIC 'CODE'
_TEXT	ENDS
;	COMDAT ??$_Iter_cat@Viterator@?$_Tree@V?$_Tmap_traits@KPAVCUser@@U?$less@K@std@@V?$allocator@U?$pair@$$CBKPAVCUser@@@std@@@3@$0A@@std@@@std@@@std@@YA?AUbidirectional_iterator_tag@0@ABViterator@?$_Tree@V?$_Tmap_traits@KPAVCUser@@U?$less@K@std@@V?$allocator@U?$pair@$$CBKPAVCUser@@@std@@@3@$0A@@std@@@0@@Z
_TEXT	SEGMENT PARA USE32 PUBLIC 'CODE'
_TEXT	ENDS
;	COMDAT ??$_Distance2@Viterator@?$_Tree@V?$_Tmap_traits@KPAVCUser@@U?$less@K@std@@V?$allocator@U?$pair@$$CBKPAVCUser@@@std@@@3@$0A@@std@@@std@@I@std@@YAXViterator@?$_Tree@V?$_Tmap_traits@KPAVCUser@@U?$less@K@std@@V?$allocator@U?$pair@$$CBKPAVCUser@@@std@@@3@$0A@@std@@@0@0AAIUbidirectional_iterator_tag@0@@Z
_TEXT	SEGMENT PARA USE32 PUBLIC 'CODE'
_TEXT	ENDS
;	COMDAT ??$_Iter_cat@Viterator@?$_Tree@V?$_Tmap_traits@KPAVCCtrl@@U?$less@K@std@@V?$allocator@U?$pair@$$CBKPAVCCtrl@@@std@@@3@$0A@@std@@@std@@@std@@YA?AUbidirectional_iterator_tag@0@ABViterator@?$_Tree@V?$_Tmap_traits@KPAVCCtrl@@U?$less@K@std@@V?$allocator@U?$pair@$$CBKPAVCCtrl@@@std@@@3@$0A@@std@@@0@@Z
_TEXT	SEGMENT PARA USE32 PUBLIC 'CODE'
_TEXT	ENDS
;	COMDAT ??$_Distance2@Viterator@?$_Tree@V?$_Tmap_traits@KPAVCCtrl@@U?$less@K@std@@V?$allocator@U?$pair@$$CBKPAVCCtrl@@@std@@@3@$0A@@std@@@std@@I@std@@YAXViterator@?$_Tree@V?$_Tmap_traits@KPAVCCtrl@@U?$less@K@std@@V?$allocator@U?$pair@$$CBKPAVCCtrl@@@std@@@3@$0A@@std@@@0@0AAIUbidirectional_iterator_tag@0@@Z
_TEXT	SEGMENT PARA USE32 PUBLIC 'CODE'
_TEXT	ENDS
;	COMDAT ??$_Uninitialized_copy@Vconst_iterator@?$vector@EV?$allocator@E@std@@@std@@PAEV?$allocator@E@3@@std@@YAPAEVconst_iterator@?$vector@EV?$allocator@E@std@@@0@0PAEAAV?$allocator@E@0@@Z
_TEXT	SEGMENT PARA USE32 PUBLIC 'CODE'
_TEXT	ENDS
;	COMDAT ??$_Iter_cat@Viterator@?$_Tree@V?$_Tmap_traits@KEU?$less@K@std@@V?$allocator@U?$pair@$$CBKE@std@@@2@$0A@@std@@@std@@@std@@YA?AUbidirectional_iterator_tag@0@ABViterator@?$_Tree@V?$_Tmap_traits@KEU?$less@K@std@@V?$allocator@U?$pair@$$CBKE@std@@@2@$0A@@std@@@0@@Z
_TEXT	SEGMENT PARA USE32 PUBLIC 'CODE'
_TEXT	ENDS
;	COMDAT ??$_Distance2@Viterator@?$_Tree@V?$_Tmap_traits@KEU?$less@K@std@@V?$allocator@U?$pair@$$CBKE@std@@@2@$0A@@std@@@std@@I@std@@YAXViterator@?$_Tree@V?$_Tmap_traits@KEU?$less@K@std@@V?$allocator@U?$pair@$$CBKE@std@@@2@$0A@@std@@@0@0AAIUbidirectional_iterator_tag@0@@Z
_TEXT	SEGMENT PARA USE32 PUBLIC 'CODE'
_TEXT	ENDS
;	COMDAT ??$_Ptr_cat@PAU__SPAWNREGION@CEventLua@@PAU12@@std@@YA?AU_Nonscalar_ptr_iterator_tag@0@AAPAU__SPAWNREGION@CEventLua@@0@Z
_TEXT	SEGMENT PARA USE32 PUBLIC 'CODE'
_TEXT	ENDS
;	COMDAT ??$_Uninit_fill_n@PAU__SPAWNREGION@CEventLua@@IU12@V?$allocator@U__SPAWNREGION@CEventLua@@@std@@@std@@YAXPAU__SPAWNREGION@CEventLua@@IABU12@AAV?$allocator@U__SPAWNREGION@CEventLua@@@0@U_Nonscalar_ptr_iterator_tag@0@@Z
_TEXT	SEGMENT PARA USE32 PUBLIC 'CODE'
_TEXT	ENDS
;	COMDAT ??$_Copy_opt@PAJPAJ@std@@YAPAJPAJ00U_Scalar_ptr_iterator_tag@0@@Z
_TEXT	SEGMENT PARA USE32 PUBLIC 'CODE'
_TEXT	ENDS
;	COMDAT ??$_Uninitialized_copy@PAJPAJV?$allocator@J@std@@@std@@YAPAJPAJ00AAV?$allocator@J@0@@Z
_TEXT	SEGMENT PARA USE32 PUBLIC 'CODE'
_TEXT	ENDS
;	COMDAT ??$_Copy_backward_opt@PAJPAJ@std@@YAPAJPAJ00U_Scalar_ptr_iterator_tag@0@@Z
_TEXT	SEGMENT PARA USE32 PUBLIC 'CODE'
_TEXT	ENDS
;	COMDAT ??$_Ptr_cat@PAUtagDROPITEM@@PAU1@@std@@YA?AU_Nonscalar_ptr_iterator_tag@0@AAPAUtagDROPITEM@@0@Z
_TEXT	SEGMENT PARA USE32 PUBLIC 'CODE'
_TEXT	ENDS
;	COMDAT ??$_Destroy_range@UtagDROPITEM@@V?$allocator@UtagDROPITEM@@@std@@@std@@YAXPAUtagDROPITEM@@0AAV?$allocator@UtagDROPITEM@@@0@U_Nonscalar_ptr_iterator_tag@0@@Z
_TEXT	SEGMENT PARA USE32 PUBLIC 'CODE'
_TEXT	ENDS
;	COMDAT ??$_Ptr_cat@PAUWORMON@@PAU1@@std@@YA?AU_Nonscalar_ptr_iterator_tag@0@AAPAUWORMON@@0@Z
_TEXT	SEGMENT PARA USE32 PUBLIC 'CODE'
_TEXT	ENDS
;	COMDAT ??$_Destroy_range@UWORMON@@V?$allocator@UWORMON@@@std@@@std@@YAXPAUWORMON@@0AAV?$allocator@UWORMON@@@0@U_Nonscalar_ptr_iterator_tag@0@@Z
_TEXT	SEGMENT PARA USE32 PUBLIC 'CODE'
_TEXT	ENDS
;	COMDAT ??$_Ptr_cat@PAU__ITEMGAME@CMiniGame@@PAU12@@std@@YA?AU_Nonscalar_ptr_iterator_tag@0@AAPAU__ITEMGAME@CMiniGame@@0@Z
_TEXT	SEGMENT PARA USE32 PUBLIC 'CODE'
_TEXT	ENDS
;	COMDAT ??$_Destroy_range@U__ITEMGAME@CMiniGame@@V?$allocator@U__ITEMGAME@CMiniGame@@@std@@@std@@YAXPAU__ITEMGAME@CMiniGame@@0AAV?$allocator@U__ITEMGAME@CMiniGame@@@0@U_Nonscalar_ptr_iterator_tag@0@@Z
_TEXT	SEGMENT PARA USE32 PUBLIC 'CODE'
_TEXT	ENDS
;	COMDAT ??$_Destroy_range@KV?$allocator@K@std@@@std@@YAXPAK0AAV?$allocator@K@0@U_Scalar_ptr_iterator_tag@0@@Z
_TEXT	SEGMENT PARA USE32 PUBLIC 'CODE'
_TEXT	ENDS
;	COMDAT ??$_Destroy_range@HV?$allocator@H@std@@@std@@YAXPAH0AAV?$allocator@H@0@U_Scalar_ptr_iterator_tag@0@@Z
_TEXT	SEGMENT PARA USE32 PUBLIC 'CODE'
_TEXT	ENDS
;	COMDAT ??$_Ptr_cat@PAU__ITEM@CExchange@@PAU12@@std@@YA?AU_Nonscalar_ptr_iterator_tag@0@AAPAU__ITEM@CExchange@@0@Z
_TEXT	SEGMENT PARA USE32 PUBLIC 'CODE'
_TEXT	ENDS
;	COMDAT ??$_Destroy_range@U__ITEM@CExchange@@V?$allocator@U__ITEM@CExchange@@@std@@@std@@YAXPAU__ITEM@CExchange@@0AAV?$allocator@U__ITEM@CExchange@@@0@U_Nonscalar_ptr_iterator_tag@0@@Z
_TEXT	SEGMENT PARA USE32 PUBLIC 'CODE'
_TEXT	ENDS
;	COMDAT ??$_Ptr_cat@PAU__POINT@CExchange@@PAU12@@std@@YA?AU_Nonscalar_ptr_iterator_tag@0@AAPAU__POINT@CExchange@@0@Z
_TEXT	SEGMENT PARA USE32 PUBLIC 'CODE'
_TEXT	ENDS
;	COMDAT ??$_Destroy_range@U__POINT@CExchange@@V?$allocator@U__POINT@CExchange@@@std@@@std@@YAXPAU__POINT@CExchange@@0AAV?$allocator@U__POINT@CExchange@@@0@U_Nonscalar_ptr_iterator_tag@0@@Z
_TEXT	SEGMENT PARA USE32 PUBLIC 'CODE'
_TEXT	ENDS
;	COMDAT ??$_Destroy_range@EV?$allocator@E@std@@@std@@YAXPAE0AAV?$allocator@E@0@U_Scalar_ptr_iterator_tag@0@@Z
_TEXT	SEGMENT PARA USE32 PUBLIC 'CODE'
_TEXT	ENDS
;	COMDAT ??$_Uninitialized_copy@PAU__SPAWNREGION@CEventLua@@PAU12@V?$allocator@U__SPAWNREGION@CEventLua@@@std@@@std@@YAPAU__SPAWNREGION@CEventLua@@PAU12@00AAV?$allocator@U__SPAWNREGION@CEventLua@@@0@@Z
_TEXT	SEGMENT PARA USE32 PUBLIC 'CODE'
_TEXT	ENDS
;	COMDAT ??$_Copy_backward_opt@PAU__SPAWNREGION@CEventLua@@PAU12@@std@@YAPAU__SPAWNREGION@CEventLua@@PAU12@00U_Nonscalar_ptr_iterator_tag@0@@Z
_TEXT	SEGMENT PARA USE32 PUBLIC 'CODE'
_TEXT	ENDS
;	COMDAT ??$_Ptr_cat@PAUD3DXVECTOR3@@PAU1@@std@@YA?AU_Nonscalar_ptr_iterator_tag@0@AAPAUD3DXVECTOR3@@0@Z
_TEXT	SEGMENT PARA USE32 PUBLIC 'CODE'
_TEXT	ENDS
;	COMDAT ??$_Destroy_range@UD3DXVECTOR3@@V?$allocator@UD3DXVECTOR3@@@std@@@std@@YAXPAUD3DXVECTOR3@@0AAV?$allocator@UD3DXVECTOR3@@@0@U_Nonscalar_ptr_iterator_tag@0@@Z
_TEXT	SEGMENT PARA USE32 PUBLIC 'CODE'
_TEXT	ENDS
;	COMDAT ??$_Ptr_cat@PAU_GIFTBOX@@PAU1@@std@@YA?AU_Nonscalar_ptr_iterator_tag@0@AAPAU_GIFTBOX@@0@Z
_TEXT	SEGMENT PARA USE32 PUBLIC 'CODE'
_TEXT	ENDS
;	COMDAT ??$_Destroy_range@U_GIFTBOX@@V?$allocator@U_GIFTBOX@@@std@@@std@@YAXPAU_GIFTBOX@@0AAV?$allocator@U_GIFTBOX@@@0@U_Nonscalar_ptr_iterator_tag@0@@Z
_TEXT	SEGMENT PARA USE32 PUBLIC 'CODE'
_TEXT	ENDS
;	COMDAT ??$_Destroy_range@JV?$allocator@J@std@@@std@@YAXPAJ0AAV?$allocator@J@0@U_Scalar_ptr_iterator_tag@0@@Z
_TEXT	SEGMENT PARA USE32 PUBLIC 'CODE'
_TEXT	ENDS
;	COMDAT ??$_Uninit_fill_n@JIJ@std@@YAXPAJIABJAAV?$allocator@J@0@U_Scalar_ptr_iterator_tag@0@@Z
_TEXT	SEGMENT PARA USE32 PUBLIC 'CODE'
_TEXT	ENDS
;	COMDAT ??$_Destroy_range@U__SPAWNREGION@CEventLua@@V?$allocator@U__SPAWNREGION@CEventLua@@@std@@@std@@YAXPAU__SPAWNREGION@CEventLua@@0AAV?$allocator@U__SPAWNREGION@CEventLua@@@0@U_Nonscalar_ptr_iterator_tag@0@@Z
_TEXT	SEGMENT PARA USE32 PUBLIC 'CODE'
_TEXT	ENDS
;	COMDAT ??$?0PAUtagACTMSG@@@?$allocator@PAPAUtagACTMSG@@@std@@QAE@ABV?$allocator@PAUtagACTMSG@@@1@@Z
_TEXT	SEGMENT PARA USE32 PUBLIC 'CODE'
_TEXT	ENDS
;	COMDAT ??$_Destroy@PAPAUtagACTMSG@@@std@@YAXPAPAPAUtagACTMSG@@@Z
_TEXT	SEGMENT PARA USE32 PUBLIC 'CODE'
_TEXT	ENDS
;	COMDAT ??$?0PAUtagMAGICATKMSG@@@?$allocator@PAPAUtagMAGICATKMSG@@@std@@QAE@ABV?$allocator@PAUtagMAGICATKMSG@@@1@@Z
_TEXT	SEGMENT PARA USE32 PUBLIC 'CODE'
_TEXT	ENDS
;	COMDAT ??$_Destroy@PAPAUtagMAGICATKMSG@@@std@@YAXPAPAPAUtagMAGICATKMSG@@@Z
_TEXT	SEGMENT PARA USE32 PUBLIC 'CODE'
_TEXT	ENDS
;	COMDAT ??$_Destroy@PAUtagACTMSG@@@std@@YAXPAPAUtagACTMSG@@@Z
_TEXT	SEGMENT PARA USE32 PUBLIC 'CODE'
_TEXT	ENDS
;	COMDAT ??$_Destroy@PAUtagMAGICATKMSG@@@std@@YAXPAPAUtagMAGICATKMSG@@@Z
_TEXT	SEGMENT PARA USE32 PUBLIC 'CODE'
_TEXT	ENDS
;	COMDAT ?destroy@?$allocator@UtagDROPITEM@@@std@@QAEXPAUtagDROPITEM@@@Z
_TEXT	SEGMENT PARA USE32 PUBLIC 'CODE'
_TEXT	ENDS
;	COMDAT ?destroy@?$allocator@UWORMON@@@std@@QAEXPAUWORMON@@@Z
_TEXT	SEGMENT PARA USE32 PUBLIC 'CODE'
_TEXT	ENDS
;	COMDAT ?destroy@?$allocator@U__ITEMGAME@CMiniGame@@@std@@QAEXPAU__ITEMGAME@CMiniGame@@@Z
_TEXT	SEGMENT PARA USE32 PUBLIC 'CODE'
_TEXT	ENDS
;	COMDAT ?destroy@?$allocator@U__ITEM@CExchange@@@std@@QAEXPAU__ITEM@CExchange@@@Z
_TEXT	SEGMENT PARA USE32 PUBLIC 'CODE'
_TEXT	ENDS
;	COMDAT ?destroy@?$allocator@U__POINT@CExchange@@@std@@QAEXPAU__POINT@CExchange@@@Z
_TEXT	SEGMENT PARA USE32 PUBLIC 'CODE'
_TEXT	ENDS
;	COMDAT ?begin@?$vector@EV?$allocator@E@std@@@std@@QAE?AViterator@12@XZ
_TEXT	SEGMENT PARA USE32 PUBLIC 'CODE'
_TEXT	ENDS
;	COMDAT ?end@?$vector@EV?$allocator@E@std@@@std@@QAE?AViterator@12@XZ
_TEXT	SEGMENT PARA USE32 PUBLIC 'CODE'
_TEXT	ENDS
;	COMDAT ?erase@?$vector@EV?$allocator@E@std@@@std@@QAE?AViterator@12@V312@0@Z
_TEXT	SEGMENT PARA USE32 PUBLIC 'CODE'
_TEXT	ENDS
;	COMDAT ?construct@?$allocator@U__SPAWNREGION@CEventLua@@@std@@QAEXPAU__SPAWNREGION@CEventLua@@ABU34@@Z
_TEXT	SEGMENT PARA USE32 PUBLIC 'CODE'
_TEXT	ENDS
;	COMDAT ?destroy@?$allocator@U__SPAWNREGION@CEventLua@@@std@@QAEXPAU__SPAWNREGION@CEventLua@@@Z
_TEXT	SEGMENT PARA USE32 PUBLIC 'CODE'
_TEXT	ENDS
;	COMDAT ?destroy@?$allocator@UD3DXVECTOR3@@@std@@QAEXPAUD3DXVECTOR3@@@Z
_TEXT	SEGMENT PARA USE32 PUBLIC 'CODE'
_TEXT	ENDS
;	COMDAT ?destroy@?$allocator@U_GIFTBOX@@@std@@QAEXPAU_GIFTBOX@@@Z
_TEXT	SEGMENT PARA USE32 PUBLIC 'CODE'
_TEXT	ENDS
;	COMDAT ??9const_iterator@?$vector@EV?$allocator@E@std@@@std@@QBE_NABV012@@Z
_TEXT	SEGMENT PARA USE32 PUBLIC 'CODE'
_TEXT	ENDS
;	COMDAT ??0iterator@?$vector@EV?$allocator@E@std@@@std@@QAE@PAE@Z
_TEXT	SEGMENT PARA USE32 PUBLIC 'CODE'
_TEXT	ENDS
;	COMDAT ??8const_iterator@?$vector@EV?$allocator@E@std@@@std@@QBE_NABV012@@Z
_TEXT	SEGMENT PARA USE32 PUBLIC 'CODE'
_TEXT	ENDS
;	COMDAT ??$insert@Vconst_iterator@?$vector@EV?$allocator@E@std@@@std@@@?$vector@EV?$allocator@E@std@@@std@@QAEXViterator@01@Vconst_iterator@01@1@Z
_TEXT	SEGMENT PARA USE32 PUBLIC 'CODE'
_TEXT	ENDS
;	COMDAT ??$_Ptr_cat@Vconst_iterator@?$vector@EV?$allocator@E@std@@@std@@PAE@std@@YA?AU_Nonscalar_ptr_iterator_tag@0@AAVconst_iterator@?$vector@EV?$allocator@E@std@@@0@AAPAE@Z
_TEXT	SEGMENT PARA USE32 PUBLIC 'CODE'
_TEXT	ENDS
;	COMDAT ??$_Uninit_copy@Vconst_iterator@?$vector@EV?$allocator@E@std@@@std@@PAEV?$allocator@E@3@@std@@YAPAEVconst_iterator@?$vector@EV?$allocator@E@std@@@0@0PAEAAV?$allocator@E@0@U_Nonscalar_ptr_iterator_tag@0@@Z
_TEXT	SEGMENT PARA USE32 PUBLIC 'CODE'
_TEXT	ENDS
;	COMDAT ??$_Uninit_copy@JJ@std@@YAPAJPAJ00AAV?$allocator@J@0@U_Scalar_ptr_iterator_tag@0@@Z
_TEXT	SEGMENT PARA USE32 PUBLIC 'CODE'
_TEXT	ENDS
;	COMDAT ??$_Uninit_copy@PAU__SPAWNREGION@CEventLua@@PAU12@V?$allocator@U__SPAWNREGION@CEventLua@@@std@@@std@@YAPAU__SPAWNREGION@CEventLua@@PAU12@00AAV?$allocator@U__SPAWNREGION@CEventLua@@@0@U_Nonscalar_ptr_iterator_tag@0@@Z
_TEXT	SEGMENT PARA USE32 PUBLIC 'CODE'
_TEXT	ENDS
;	COMDAT ??$fill_n@PAJIJ@std@@YAXPAJIABJ@Z
_TEXT	SEGMENT PARA USE32 PUBLIC 'CODE'
_TEXT	ENDS
;	COMDAT ??$_Destroy@UtagDROPITEM@@@std@@YAXPAUtagDROPITEM@@@Z
_TEXT	SEGMENT PARA USE32 PUBLIC 'CODE'
_TEXT	ENDS
;	COMDAT ??$_Destroy@UWORMON@@@std@@YAXPAUWORMON@@@Z
_TEXT	SEGMENT PARA USE32 PUBLIC 'CODE'
_TEXT	ENDS
;	COMDAT ??$_Destroy@U__ITEMGAME@CMiniGame@@@std@@YAXPAU__ITEMGAME@CMiniGame@@@Z
_TEXT	SEGMENT PARA USE32 PUBLIC 'CODE'
_TEXT	ENDS
;	COMDAT ??$_Destroy@U__ITEM@CExchange@@@std@@YAXPAU__ITEM@CExchange@@@Z
_TEXT	SEGMENT PARA USE32 PUBLIC 'CODE'
_TEXT	ENDS
;	COMDAT ??$_Destroy@U__POINT@CExchange@@@std@@YAXPAU__POINT@CExchange@@@Z
_TEXT	SEGMENT PARA USE32 PUBLIC 'CODE'
_TEXT	ENDS
;	COMDAT ??$copy@PAEPAE@std@@YAPAEPAE00@Z
_TEXT	SEGMENT PARA USE32 PUBLIC 'CODE'
_TEXT	ENDS
;	COMDAT ??$_Construct@U__SPAWNREGION@CEventLua@@U12@@std@@YAXPAU__SPAWNREGION@CEventLua@@ABU12@@Z
_TEXT	SEGMENT PARA USE32 PUBLIC 'CODE'
_TEXT	ENDS
;	COMDAT ??$_Destroy@U__SPAWNREGION@CEventLua@@@std@@YAXPAU__SPAWNREGION@CEventLua@@@Z
_TEXT	SEGMENT PARA USE32 PUBLIC 'CODE'
_TEXT	ENDS
;	COMDAT ??$_Destroy@UD3DXVECTOR3@@@std@@YAXPAUD3DXVECTOR3@@@Z
_TEXT	SEGMENT PARA USE32 PUBLIC 'CODE'
_TEXT	ENDS
;	COMDAT ??$_Destroy@U_GIFTBOX@@@std@@YAXPAU_GIFTBOX@@@Z
_TEXT	SEGMENT PARA USE32 PUBLIC 'CODE'
_TEXT	ENDS
;	COMDAT ?construct@?$allocator@E@std@@QAEXPAEABE@Z
_TEXT	SEGMENT PARA USE32 PUBLIC 'CODE'
_TEXT	ENDS
;	COMDAT ?destroy@?$allocator@E@std@@QAEXPAE@Z
_TEXT	SEGMENT PARA USE32 PUBLIC 'CODE'
_TEXT	ENDS
;	COMDAT ??Dconst_iterator@?$vector@EV?$allocator@E@std@@@std@@QBEABEXZ
_TEXT	SEGMENT PARA USE32 PUBLIC 'CODE'
_TEXT	ENDS
;	COMDAT ??Econst_iterator@?$vector@EV?$allocator@E@std@@@std@@QAEAAV012@XZ
_TEXT	SEGMENT PARA USE32 PUBLIC 'CODE'
_TEXT	ENDS
;	COMDAT ??$_Insert@Vconst_iterator@?$vector@EV?$allocator@E@std@@@std@@@?$vector@EV?$allocator@E@std@@@std@@QAEXViterator@01@Vconst_iterator@01@1Uforward_iterator_tag@1@@Z
_TEXT	SEGMENT PARA USE32 PUBLIC 'CODE'
_TEXT	ENDS
;	COMDAT ??$_Copy_opt@PAEPAE@std@@YAPAEPAE00U_Scalar_ptr_iterator_tag@0@@Z
_TEXT	SEGMENT PARA USE32 PUBLIC 'CODE'
_TEXT	ENDS
;	COMDAT ??$_Construct@EE@std@@YAXPAEABE@Z
_TEXT	SEGMENT PARA USE32 PUBLIC 'CODE'
_TEXT	ENDS
;	COMDAT ??$_Destroy@E@std@@YAXPAE@Z
_TEXT	SEGMENT PARA USE32 PUBLIC 'CODE'
_TEXT	ENDS
;	COMDAT ?capacity@?$vector@EV?$allocator@E@std@@@std@@QBEIXZ
_TEXT	SEGMENT PARA USE32 PUBLIC 'CODE'
_TEXT	ENDS
;	COMDAT ??Giterator@?$vector@EV?$allocator@E@std@@@std@@QBEHABVconst_iterator@12@@Z
_TEXT	SEGMENT PARA USE32 PUBLIC 'CODE'
_TEXT	ENDS
;	COMDAT ??Gconst_iterator@?$vector@EV?$allocator@E@std@@@std@@QBEHABV012@@Z
_TEXT	SEGMENT PARA USE32 PUBLIC 'CODE'
_TEXT	ENDS
;	COMDAT ??$_Distance@Vconst_iterator@?$vector@EV?$allocator@E@std@@@std@@I@std@@YAXVconst_iterator@?$vector@EV?$allocator@E@std@@@0@0AAI@Z
_TEXT	SEGMENT PARA USE32 PUBLIC 'CODE'
_TEXT	ENDS
;	COMDAT ??$_Ucopy@PAE@?$vector@EV?$allocator@E@std@@@std@@IAEPAEPAE00@Z
_TEXT	SEGMENT PARA USE32 PUBLIC 'CODE'
_TEXT	ENDS
;	COMDAT ??$advance@Vconst_iterator@?$vector@EV?$allocator@E@std@@@std@@H@std@@YAXAAVconst_iterator@?$vector@EV?$allocator@E@std@@@0@H@Z
_TEXT	SEGMENT PARA USE32 PUBLIC 'CODE'
_TEXT	ENDS
;	COMDAT ??$copy@Vconst_iterator@?$vector@EV?$allocator@E@std@@@std@@PAE@std@@YAPAEVconst_iterator@?$vector@EV?$allocator@E@std@@@0@0PAE@Z
_TEXT	SEGMENT PARA USE32 PUBLIC 'CODE'
_TEXT	ENDS
;	COMDAT ??$copy_backward@PAEPAE@std@@YAPAEPAE00@Z
_TEXT	SEGMENT PARA USE32 PUBLIC 'CODE'
_TEXT	ENDS
;	COMDAT ??$_Distance2@Vconst_iterator@?$vector@EV?$allocator@E@std@@@std@@I@std@@YAXVconst_iterator@?$vector@EV?$allocator@E@std@@@0@0AAIUrandom_access_iterator_tag@0@@Z
_TEXT	SEGMENT PARA USE32 PUBLIC 'CODE'
_TEXT	ENDS
;	COMDAT ??$_Uninitialized_copy@PAEPAEV?$allocator@E@std@@@std@@YAPAEPAE00AAV?$allocator@E@0@@Z
_TEXT	SEGMENT PARA USE32 PUBLIC 'CODE'
_TEXT	ENDS
;	COMDAT ??$_Advance@Vconst_iterator@?$vector@EV?$allocator@E@std@@@std@@H@std@@YAXAAVconst_iterator@?$vector@EV?$allocator@E@std@@@0@HUrandom_access_iterator_tag@0@@Z
_TEXT	SEGMENT PARA USE32 PUBLIC 'CODE'
_TEXT	ENDS
;	COMDAT ??$_Copy_opt@Vconst_iterator@?$vector@EV?$allocator@E@std@@@std@@PAE@std@@YAPAEVconst_iterator@?$vector@EV?$allocator@E@std@@@0@0PAEU_Nonscalar_ptr_iterator_tag@0@@Z
_TEXT	SEGMENT PARA USE32 PUBLIC 'CODE'
_TEXT	ENDS
;	COMDAT ??$_Copy_backward_opt@PAEPAE@std@@YAPAEPAE00U_Scalar_ptr_iterator_tag@0@@Z
_TEXT	SEGMENT PARA USE32 PUBLIC 'CODE'
_TEXT	ENDS
;	COMDAT ??Yconst_iterator@?$vector@EV?$allocator@E@std@@@std@@QAEAAV012@H@Z
_TEXT	SEGMENT PARA USE32 PUBLIC 'CODE'
_TEXT	ENDS
;	COMDAT ??$_Uninit_copy@EE@std@@YAPAEPAE00AAV?$allocator@E@0@U_Scalar_ptr_iterator_tag@0@@Z
_TEXT	SEGMENT PARA USE32 PUBLIC 'CODE'
_TEXT	ENDS
;	COMDAT ?IsTouchOBB_Line@CModelObject@@UAEHABUD3DXVECTOR3@@0ABUD3DXMATRIX@@PAU2@H@Z
_TEXT	SEGMENT PARA USE32 PUBLIC 'CODE'
_TEXT	ENDS
;	COMDAT ?IntersectRayTri@CModelObject@@UAEPAUD3DXVECTOR3@@ABU2@0ABUD3DXMATRIX@@PAU2@PAMH@Z
_TEXT	SEGMENT PARA USE32 PUBLIC 'CODE'
_TEXT	ENDS
;	COMDAT ?Intersect@CModelObject@@UAEHABUD3DXVECTOR3@@0ABUD3DXMATRIX@@PAU2@PAMH@Z
_TEXT	SEGMENT PARA USE32 PUBLIC 'CODE'
_TEXT	ENDS
;	COMDAT ?RenderEffect@CModel@@UAEXPAUIDirect3DDevice9@@PBUD3DXMATRIX@@KKHH@Z
_TEXT	SEGMENT PARA USE32 PUBLIC 'CODE'
_TEXT	ENDS
;	COMDAT ?IsHaveCollObj@CModelObject@@UAEHXZ
_TEXT	SEGMENT PARA USE32 PUBLIC 'CODE'
_TEXT	ENDS
;	COMDAT ?SetGroup@CModelObject@@UAEXH@Z
_TEXT	SEGMENT PARA USE32 PUBLIC 'CODE'
_TEXT	ENDS
;	COMDAT ??_C@_0BB@FADAHOKP@SetGroup?5?3?5lv?$DN?$CFd?$AA@
CONST	SEGMENT DWORD USE32 PUBLIC 'CONST'
CONST	ENDS
;	COMDAT ?ResetAttr@CModel@@UAEXHK@Z
_TEXT	SEGMENT PARA USE32 PUBLIC 'CODE'
_TEXT	ENDS
;	COMDAT ?SetAttr@CModelObject@@UAEXMK@Z
_TEXT	SEGMENT PARA USE32 PUBLIC 'CODE'
_TEXT	ENDS
;	COMDAT ?SetAttr@CMotion@@QAEXMK@Z
_TEXT	SEGMENT PARA USE32 PUBLIC 'CODE'
_TEXT	ENDS
;	COMDAT ?IsAttrQuake@CModelObject@@UAEKM@Z
_TEXT	SEGMENT PARA USE32 PUBLIC 'CODE'
_TEXT	ENDS
;	COMDAT ?IsAttrQuake@CMotion@@QAEKMM@Z
_TEXT	SEGMENT PARA USE32 PUBLIC 'CODE'
_TEXT	ENDS
;	COMDAT ?IsAttrQuake@CModelObject@@UAEKXZ
_TEXT	SEGMENT PARA USE32 PUBLIC 'CODE'
_TEXT	ENDS
;	COMDAT ?IsAttrSound@CModelObject@@UAEPAUMOTION_ATTR@@M@Z
_TEXT	SEGMENT PARA USE32 PUBLIC 'CODE'
_TEXT	ENDS
;	COMDAT ?IsAttrSound@CMotion@@QAEPAUMOTION_ATTR@@MM@Z
_TEXT	SEGMENT PARA USE32 PUBLIC 'CODE'
_TEXT	ENDS
;	COMDAT ?IsAttrSound@CModelObject@@UAEPAUMOTION_ATTR@@XZ
_TEXT	SEGMENT PARA USE32 PUBLIC 'CODE'
_TEXT	ENDS
;	COMDAT ??_C@_0CC@LLPKIFJI@IsAttrSound?5?3?5pMotion?$DN?$DNNULL?5?$CFd?5?$CF@
CONST	SEGMENT DWORD USE32 PUBLIC 'CONST'
CONST	ENDS
;	COMDAT ?IsAttrHit@CModelObject@@UAEKM@Z
_TEXT	SEGMENT PARA USE32 PUBLIC 'CODE'
_TEXT	ENDS
;	COMDAT ?IsAttrHit@CMotion@@QAEKMM@Z
_TEXT	SEGMENT PARA USE32 PUBLIC 'CODE'
_TEXT	ENDS
;	COMDAT ?IsAttrHit@CModelObject@@UAEKXZ
_TEXT	SEGMENT PARA USE32 PUBLIC 'CODE'
_TEXT	ENDS
;	COMDAT ?IsAttrHit@CObject3D@@QAEKM@Z
_TEXT	SEGMENT PARA USE32 PUBLIC 'CODE'
_TEXT	ENDS
;	COMDAT ?GetAttr@CModel@@UAEKH@Z
_TEXT	SEGMENT PARA USE32 PUBLIC 'CODE'
_TEXT	ENDS
;	COMDAT ?GetMotionAttr@CModelObject@@UAEPAUMOTION_ATTR@@H@Z
_TEXT	SEGMENT PARA USE32 PUBLIC 'CODE'
_TEXT	ENDS
;	COMDAT ?GetMotionAttr@CMotion@@QAEPAUMOTION_ATTR@@H@Z
_TEXT	SEGMENT PARA USE32 PUBLIC 'CODE'
_TEXT	ENDS
;	COMDAT ?IsLoadAttr@CModelObject@@UAEHXZ
_TEXT	SEGMENT PARA USE32 PUBLIC 'CODE'
_TEXT	ENDS
;	COMDAT ?ClearNormal@CModel@@UAEXXZ
_TEXT	SEGMENT PARA USE32 PUBLIC 'CODE'
_TEXT	ENDS
;	COMDAT ?SaveModel@CModel@@UAEHPBD@Z
_TEXT	SEGMENT PARA USE32 PUBLIC 'CODE'
_TEXT	ENDS
;	COMDAT ?LoadModel@CModelObject@@UAEHPBD@Z
_TEXT	SEGMENT PARA USE32 PUBLIC 'CODE'
_TEXT	ENDS
;	COMDAT ?deallocate@?$allocator@E@std@@QAEXPAEI@Z
_TEXT	SEGMENT PARA USE32 PUBLIC 'CODE'
_TEXT	ENDS
;	COMDAT ??$_Ucopy@Vconst_iterator@?$vector@EV?$allocator@E@std@@@std@@@?$vector@EV?$allocator@E@std@@@std@@IAEPAEVconst_iterator@01@0PAE@Z
_TEXT	SEGMENT PARA USE32 PUBLIC 'CODE'
_TEXT	ENDS
;	COMDAT ?allocate@?$allocator@E@std@@QAEPAEI@Z
_TEXT	SEGMENT PARA USE32 PUBLIC 'CODE'
_TEXT	ENDS
;	COMDAT ??$_Allocate@E@std@@YAPAEIPAE@Z
_TEXT	SEGMENT PARA USE32 PUBLIC 'CODE'
_TEXT	ENDS
;	COMDAT ?_Xlen@?$vector@EV?$allocator@E@std@@@std@@IBEXXZ
_TEXT	SEGMENT PARA USE32 PUBLIC 'CODE'
_TEXT	ENDS
;	COMDAT ??0length_error@std@@QAE@ABV?$basic_string@DU?$char_traits@D@std@@V?$allocator@D@2@@1@@Z
_TEXT	SEGMENT PARA USE32 PUBLIC 'CODE'
_TEXT	ENDS
;	COMDAT ??0logic_error@std@@QAE@ABV?$basic_string@DU?$char_traits@D@std@@V?$allocator@D@2@@1@@Z
_TEXT	SEGMENT PARA USE32 PUBLIC 'CODE'
_TEXT	ENDS
;	COMDAT ??_7logic_error@std@@6B@
CONST	SEGMENT DWORD USE32 PUBLIC 'CONST'
CONST	ENDS
;	COMDAT ??_Glogic_error@std@@UAEPAXI@Z
_TEXT	SEGMENT PARA USE32 PUBLIC 'CODE'
_TEXT	ENDS
;	COMDAT ?what@logic_error@std@@UBEPBDXZ
_TEXT	SEGMENT PARA USE32 PUBLIC 'CODE'
_TEXT	ENDS
;	COMDAT ?c_str@?$basic_string@DU?$char_traits@D@std@@V?$allocator@D@2@@std@@QBEPBDXZ
_TEXT	SEGMENT PARA USE32 PUBLIC 'CODE'
_TEXT	ENDS
;	COMDAT ??0?$basic_string@DU?$char_traits@D@std@@V?$allocator@D@2@@std@@QAE@ABV01@@Z
_TEXT	SEGMENT PARA USE32 PUBLIC 'CODE'
_TEXT	ENDS
;	COMDAT ??0?$_String_val@DV?$allocator@D@std@@@std@@IAE@V?$allocator@D@1@@Z
_TEXT	SEGMENT PARA USE32 PUBLIC 'CODE'
_TEXT	ENDS
;	COMDAT ??0?$allocator@D@std@@QAE@ABV01@@Z
_TEXT	SEGMENT PARA USE32 PUBLIC 'CODE'
_TEXT	ENDS
;	COMDAT ?_Tidy@?$basic_string@DU?$char_traits@D@std@@V?$allocator@D@2@@std@@IAEX_NI@Z
_TEXT	SEGMENT PARA USE32 PUBLIC 'CODE'
_TEXT	ENDS
;	COMDAT ?copy@?$char_traits@D@std@@SAPADPADPBDI@Z
_TEXT	SEGMENT PARA USE32 PUBLIC 'CODE'
_TEXT	ENDS
;	COMDAT ?deallocate@?$allocator@D@std@@QAEXPADI@Z
_TEXT	SEGMENT PARA USE32 PUBLIC 'CODE'
_TEXT	ENDS
;	COMDAT ?_Eos@?$basic_string@DU?$char_traits@D@std@@V?$allocator@D@2@@std@@IAEXI@Z
_TEXT	SEGMENT PARA USE32 PUBLIC 'CODE'
_TEXT	ENDS
;	COMDAT ?assign@?$char_traits@D@std@@SAXAADABD@Z
_TEXT	SEGMENT PARA USE32 PUBLIC 'CODE'
_TEXT	ENDS
;	COMDAT ?_Myptr@?$basic_string@DU?$char_traits@D@std@@V?$allocator@D@2@@std@@QAEPADXZ
_TEXT	SEGMENT PARA USE32 PUBLIC 'CODE'
_TEXT	ENDS
;	COMDAT ?assign@?$basic_string@DU?$char_traits@D@std@@V?$allocator@D@2@@std@@QAEAAV12@ABV12@II@Z
_TEXT	SEGMENT PARA USE32 PUBLIC 'CODE'
_TEXT	ENDS
;	COMDAT ?erase@?$basic_string@DU?$char_traits@D@std@@V?$allocator@D@2@@std@@QAEAAV12@II@Z
_TEXT	SEGMENT PARA USE32 PUBLIC 'CODE'
_TEXT	ENDS
;	COMDAT ?move@?$char_traits@D@std@@SAPADPADPBDI@Z
_TEXT	SEGMENT PARA USE32 PUBLIC 'CODE'
_TEXT	ENDS
;	COMDAT ?_Grow@?$basic_string@DU?$char_traits@D@std@@V?$allocator@D@2@@std@@IAE_NI_N@Z
_TEXT	SEGMENT PARA USE32 PUBLIC 'CODE'
_TEXT	ENDS
;	COMDAT ?max_size@?$basic_string@DU?$char_traits@D@std@@V?$allocator@D@2@@std@@QBEIXZ
_TEXT	SEGMENT PARA USE32 PUBLIC 'CODE'
_TEXT	ENDS
;	COMDAT ?max_size@?$allocator@D@std@@QBEIXZ
_TEXT	SEGMENT PARA USE32 PUBLIC 'CODE'
_TEXT	ENDS
;	COMDAT ?_Copy@?$basic_string@DU?$char_traits@D@std@@V?$allocator@D@2@@std@@IAEXII@Z
_TEXT	SEGMENT PARA USE32 PUBLIC 'CODE'
_TEXT	ENDS
;	COMDAT ?allocate@?$allocator@D@std@@QAEPADI@Z
_TEXT	SEGMENT PARA USE32 PUBLIC 'CODE'
_TEXT	ENDS
;	COMDAT ??$_Allocate@D@std@@YAPADIPAD@Z
_TEXT	SEGMENT PARA USE32 PUBLIC 'CODE'
_TEXT	ENDS
;	COMDAT ?npos@?$basic_string@DU?$char_traits@D@std@@V?$allocator@D@2@@std@@2IB
CONST	SEGMENT DWORD USE32 PUBLIC 'CONST'
CONST	ENDS
;	COMDAT ??1logic_error@std@@UAE@XZ
_TEXT	SEGMENT PARA USE32 PUBLIC 'CODE'
_TEXT	ENDS
;	COMDAT ??_7length_error@std@@6B@
CONST	SEGMENT DWORD USE32 PUBLIC 'CONST'
CONST	ENDS
;	COMDAT ??_Glength_error@std@@UAEPAXI@Z
_TEXT	SEGMENT PARA USE32 PUBLIC 'CODE'
_TEXT	ENDS
;	COMDAT ??1length_error@std@@UAE@XZ
_TEXT	SEGMENT PARA USE32 PUBLIC 'CODE'
_TEXT	ENDS
;	COMDAT ??0?$basic_string@DU?$char_traits@D@std@@V?$allocator@D@2@@std@@QAE@PBD@Z
_TEXT	SEGMENT PARA USE32 PUBLIC 'CODE'
_TEXT	ENDS
;	COMDAT ??0?$allocator@D@std@@QAE@XZ
_TEXT	SEGMENT PARA USE32 PUBLIC 'CODE'
_TEXT	ENDS
;	COMDAT ?assign@?$basic_string@DU?$char_traits@D@std@@V?$allocator@D@2@@std@@QAEAAV12@PBD@Z
_TEXT	SEGMENT PARA USE32 PUBLIC 'CODE'
_TEXT	ENDS
;	COMDAT ?assign@?$basic_string@DU?$char_traits@D@std@@V?$allocator@D@2@@std@@QAEAAV12@PBDI@Z
_TEXT	SEGMENT PARA USE32 PUBLIC 'CODE'
_TEXT	ENDS
;	COMDAT ?_Inside@?$basic_string@DU?$char_traits@D@std@@V?$allocator@D@2@@std@@IAE_NPBD@Z
_TEXT	SEGMENT PARA USE32 PUBLIC 'CODE'
_TEXT	ENDS
;	COMDAT ?length@?$char_traits@D@std@@SAIPBD@Z
_TEXT	SEGMENT PARA USE32 PUBLIC 'CODE'
_TEXT	ENDS
;	COMDAT ??_C@_0BD@OLBABOEK@vector?$DMT?$DO?5too?5long?$AA@
CONST	SEGMENT DWORD USE32 PUBLIC 'CONST'
CONST	ENDS
;	COMDAT ??1?$basic_string@DU?$char_traits@D@std@@V?$allocator@D@2@@std@@QAE@XZ
_TEXT	SEGMENT PARA USE32 PUBLIC 'CODE'
_TEXT	ENDS
;	COMDAT __TI3?AVlength_error@std@@
xdata$x	SEGMENT DWORD USE32 PUBLIC 'CONST'
xdata$x	ENDS
;	COMDAT __CTA3?AVlength_error@std@@
xdata$x	SEGMENT DWORD USE32 PUBLIC 'CONST'
xdata$x	ENDS
;	COMDAT __CT??_R0?AVlength_error@std@@@8??0length_error@std@@QAE@ABV01@@Z40
xdata$x	SEGMENT DWORD USE32 PUBLIC 'CONST'
xdata$x	ENDS
;	COMDAT ??_R0?AVlength_error@std@@@8
_DATA	SEGMENT DWORD USE32 PUBLIC 'DATA'
_DATA	ENDS
;	COMDAT ??0length_error@std@@QAE@ABV01@@Z
_TEXT	SEGMENT PARA USE32 PUBLIC 'CODE'
_TEXT	ENDS
;	COMDAT ??0logic_error@std@@QAE@ABV01@@Z
_TEXT	SEGMENT PARA USE32 PUBLIC 'CODE'
_TEXT	ENDS
;	COMDAT __CT??_R0?AVlogic_error@std@@@8??0logic_error@std@@QAE@ABV01@@Z40
xdata$x	SEGMENT DWORD USE32 PUBLIC 'CONST'
xdata$x	ENDS
;	COMDAT ??_R0?AVlogic_error@std@@@8
_DATA	SEGMENT DWORD USE32 PUBLIC 'DATA'
_DATA	ENDS
;	COMDAT __CT??_R0?AVexception@@@8??0exception@@QAE@ABV0@@Z12
xdata$x	SEGMENT DWORD USE32 PUBLIC 'CONST'
xdata$x	ENDS
;	COMDAT ??_R0?AVexception@@@8
_DATA	SEGMENT DWORD USE32 PUBLIC 'DATA'
_DATA	ENDS
;	COMDAT ?size@?$vector@EV?$allocator@E@std@@@std@@QBEIXZ
_TEXT	SEGMENT PARA USE32 PUBLIC 'CODE'
_TEXT	ENDS
;	COMDAT ?max_size@?$vector@EV?$allocator@E@std@@@std@@QBEIXZ
_TEXT	SEGMENT PARA USE32 PUBLIC 'CODE'
_TEXT	ENDS
;	COMDAT ?max_size@?$allocator@E@std@@QBEIXZ
_TEXT	SEGMENT PARA USE32 PUBLIC 'CODE'
_TEXT	ENDS
;	COMDAT ??2@YAPAXIPAX@Z
_TEXT	SEGMENT PARA USE32 PUBLIC 'CODE'
_TEXT	ENDS
;	COMDAT ?_Ptr_cat@std@@YA?AU_Scalar_ptr_iterator_tag@1@PAE0@Z
_TEXT	SEGMENT PARA USE32 PUBLIC 'CODE'
_TEXT	ENDS
;	COMDAT ??0const_iterator@?$vector@EV?$allocator@E@std@@@std@@QAE@PAE@Z
_TEXT	SEGMENT PARA USE32 PUBLIC 'CODE'
_TEXT	ENDS
;	COMDAT ?_Destroy@?$vector@EV?$allocator@E@std@@@std@@IAEXPAE0@Z
_TEXT	SEGMENT PARA USE32 PUBLIC 'CODE'
_TEXT	ENDS
;	COMDAT ??$_Destroy_range@EV?$allocator@E@std@@@std@@YAXPAE0AAV?$allocator@E@0@@Z
_TEXT	SEGMENT PARA USE32 PUBLIC 'CODE'
_TEXT	ENDS
;	COMDAT ?_Ptr_cat@std@@YA?AU_Scalar_ptr_iterator_tag@1@PAJ0@Z
_TEXT	SEGMENT PARA USE32 PUBLIC 'CODE'
_TEXT	ENDS
;	COMDAT ??9const_iterator@?$_Tree@V?$_Tmap_traits@KEU?$less@K@std@@V?$allocator@U?$pair@$$CBKE@std@@@2@$0A@@std@@@std@@QBE_NABV012@@Z
_TEXT	SEGMENT PARA USE32 PUBLIC 'CODE'
_TEXT	ENDS
;	COMDAT ??8const_iterator@?$_Tree@V?$_Tmap_traits@KEU?$less@K@std@@V?$allocator@U?$pair@$$CBKE@std@@@2@$0A@@std@@@std@@QBE_NABV012@@Z
_TEXT	SEGMENT PARA USE32 PUBLIC 'CODE'
_TEXT	ENDS
;	COMDAT ??Eiterator@?$_Tree@V?$_Tmap_traits@KEU?$less@K@std@@V?$allocator@U?$pair@$$CBKE@std@@@2@$0A@@std@@@std@@QAEAAV012@XZ
_TEXT	SEGMENT PARA USE32 PUBLIC 'CODE'
_TEXT	ENDS
;	COMDAT ??Econst_iterator@?$_Tree@V?$_Tmap_traits@KEU?$less@K@std@@V?$allocator@U?$pair@$$CBKE@std@@@2@$0A@@std@@@std@@QAEAAV012@XZ
_TEXT	SEGMENT PARA USE32 PUBLIC 'CODE'
_TEXT	ENDS
;	COMDAT ?_Inc@const_iterator@?$_Tree@V?$_Tmap_traits@KEU?$less@K@std@@V?$allocator@U?$pair@$$CBKE@std@@@2@$0A@@std@@@std@@QAEXXZ
_TEXT	SEGMENT PARA USE32 PUBLIC 'CODE'
_TEXT	ENDS
;	COMDAT ?_Min@?$_Tree@V?$_Tmap_traits@KEU?$less@K@std@@V?$allocator@U?$pair@$$CBKE@std@@@2@$0A@@std@@@std@@KAPAU_Node@?$_Tree_nod@V?$_Tmap_traits@KEU?$less@K@std@@V?$allocator@U?$pair@$$CBKE@std@@@2@$0A@@std@@@2@PAU342@@Z
_TEXT	SEGMENT PARA USE32 PUBLIC 'CODE'
_TEXT	ENDS
;	COMDAT ?_Left@?$_Tree@V?$_Tmap_traits@KEU?$less@K@std@@V?$allocator@U?$pair@$$CBKE@std@@@2@$0A@@std@@@std@@KAAAPAU_Node@?$_Tree_nod@V?$_Tmap_traits@KEU?$less@K@std@@V?$allocator@U?$pair@$$CBKE@std@@@2@$0A@@std@@@2@PAU342@@Z
_TEXT	SEGMENT PARA USE32 PUBLIC 'CODE'
_TEXT	ENDS
;	COMDAT ?_Isnil@?$_Tree@V?$_Tmap_traits@KEU?$less@K@std@@V?$allocator@U?$pair@$$CBKE@std@@@2@$0A@@std@@@std@@KAAADPAU_Node@?$_Tree_nod@V?$_Tmap_traits@KEU?$less@K@std@@V?$allocator@U?$pair@$$CBKE@std@@@2@$0A@@std@@@2@@Z
_TEXT	SEGMENT PARA USE32 PUBLIC 'CODE'
_TEXT	ENDS
;	COMDAT ?_Parent@?$_Tree@V?$_Tmap_traits@KEU?$less@K@std@@V?$allocator@U?$pair@$$CBKE@std@@@2@$0A@@std@@@std@@KAAAPAU_Node@?$_Tree_nod@V?$_Tmap_traits@KEU?$less@K@std@@V?$allocator@U?$pair@$$CBKE@std@@@2@$0A@@std@@@2@PAU342@@Z
_TEXT	SEGMENT PARA USE32 PUBLIC 'CODE'
_TEXT	ENDS
;	COMDAT ?_Right@?$_Tree@V?$_Tmap_traits@KEU?$less@K@std@@V?$allocator@U?$pair@$$CBKE@std@@@2@$0A@@std@@@std@@KAAAPAU_Node@?$_Tree_nod@V?$_Tmap_traits@KEU?$less@K@std@@V?$allocator@U?$pair@$$CBKE@std@@@2@$0A@@std@@@2@PAU342@@Z
_TEXT	SEGMENT PARA USE32 PUBLIC 'CODE'
_TEXT	ENDS
;	COMDAT ??9const_iterator@?$_Tree@V?$_Tmap_traits@KPAVCCtrl@@U?$less@K@std@@V?$allocator@U?$pair@$$CBKPAVCCtrl@@@std@@@3@$0A@@std@@@std@@QBE_NABV012@@Z
_TEXT	SEGMENT PARA USE32 PUBLIC 'CODE'
_TEXT	ENDS
;	COMDAT ??8const_iterator@?$_Tree@V?$_Tmap_traits@KPAVCCtrl@@U?$less@K@std@@V?$allocator@U?$pair@$$CBKPAVCCtrl@@@std@@@3@$0A@@std@@@std@@QBE_NABV012@@Z
_TEXT	SEGMENT PARA USE32 PUBLIC 'CODE'
_TEXT	ENDS
;	COMDAT ??Eiterator@?$_Tree@V?$_Tmap_traits@KPAVCCtrl@@U?$less@K@std@@V?$allocator@U?$pair@$$CBKPAVCCtrl@@@std@@@3@$0A@@std@@@std@@QAEAAV012@XZ
_TEXT	SEGMENT PARA USE32 PUBLIC 'CODE'
_TEXT	ENDS
;	COMDAT ??Econst_iterator@?$_Tree@V?$_Tmap_traits@KPAVCCtrl@@U?$less@K@std@@V?$allocator@U?$pair@$$CBKPAVCCtrl@@@std@@@3@$0A@@std@@@std@@QAEAAV012@XZ
_TEXT	SEGMENT PARA USE32 PUBLIC 'CODE'
_TEXT	ENDS
;	COMDAT ?_Inc@const_iterator@?$_Tree@V?$_Tmap_traits@KPAVCCtrl@@U?$less@K@std@@V?$allocator@U?$pair@$$CBKPAVCCtrl@@@std@@@3@$0A@@std@@@std@@QAEXXZ
_TEXT	SEGMENT PARA USE32 PUBLIC 'CODE'
_TEXT	ENDS
;	COMDAT ?_Min@?$_Tree@V?$_Tmap_traits@KPAVCCtrl@@U?$less@K@std@@V?$allocator@U?$pair@$$CBKPAVCCtrl@@@std@@@3@$0A@@std@@@std@@KAPAU_Node@?$_Tree_nod@V?$_Tmap_traits@KPAVCCtrl@@U?$less@K@std@@V?$allocator@U?$pair@$$CBKPAVCCtrl@@@std@@@3@$0A@@std@@@2@PAU342@@Z
_TEXT	SEGMENT PARA USE32 PUBLIC 'CODE'
_TEXT	ENDS
;	COMDAT ?_Left@?$_Tree@V?$_Tmap_traits@KPAVCCtrl@@U?$less@K@std@@V?$allocator@U?$pair@$$CBKPAVCCtrl@@@std@@@3@$0A@@std@@@std@@KAAAPAU_Node@?$_Tree_nod@V?$_Tmap_traits@KPAVCCtrl@@U?$less@K@std@@V?$allocator@U?$pair@$$CBKPAVCCtrl@@@std@@@3@$0A@@std@@@2@PAU342@@Z
_TEXT	SEGMENT PARA USE32 PUBLIC 'CODE'
_TEXT	ENDS
;	COMDAT ?_Isnil@?$_Tree@V?$_Tmap_traits@KPAVCCtrl@@U?$less@K@std@@V?$allocator@U?$pair@$$CBKPAVCCtrl@@@std@@@3@$0A@@std@@@std@@KAAADPAU_Node@?$_Tree_nod@V?$_Tmap_traits@KPAVCCtrl@@U?$less@K@std@@V?$allocator@U?$pair@$$CBKPAVCCtrl@@@std@@@3@$0A@@std@@@2@@Z
_TEXT	SEGMENT PARA USE32 PUBLIC 'CODE'
_TEXT	ENDS
;	COMDAT ?_Parent@?$_Tree@V?$_Tmap_traits@KPAVCCtrl@@U?$less@K@std@@V?$allocator@U?$pair@$$CBKPAVCCtrl@@@std@@@3@$0A@@std@@@std@@KAAAPAU_Node@?$_Tree_nod@V?$_Tmap_traits@KPAVCCtrl@@U?$less@K@std@@V?$allocator@U?$pair@$$CBKPAVCCtrl@@@std@@@3@$0A@@std@@@2@PAU342@@Z
_TEXT	SEGMENT PARA USE32 PUBLIC 'CODE'
_TEXT	ENDS
;	COMDAT ?_Right@?$_Tree@V?$_Tmap_traits@KPAVCCtrl@@U?$less@K@std@@V?$allocator@U?$pair@$$CBKPAVCCtrl@@@std@@@3@$0A@@std@@@std@@KAAAPAU_Node@?$_Tree_nod@V?$_Tmap_traits@KPAVCCtrl@@U?$less@K@std@@V?$allocator@U?$pair@$$CBKPAVCCtrl@@@std@@@3@$0A@@std@@@2@PAU342@@Z
_TEXT	SEGMENT PARA USE32 PUBLIC 'CODE'
_TEXT	ENDS
;	COMDAT ??9const_iterator@?$_Tree@V?$_Tmap_traits@KPAVCUser@@U?$less@K@std@@V?$allocator@U?$pair@$$CBKPAVCUser@@@std@@@3@$0A@@std@@@std@@QBE_NABV012@@Z
_TEXT	SEGMENT PARA USE32 PUBLIC 'CODE'
_TEXT	ENDS
;	COMDAT ??8const_iterator@?$_Tree@V?$_Tmap_traits@KPAVCUser@@U?$less@K@std@@V?$allocator@U?$pair@$$CBKPAVCUser@@@std@@@3@$0A@@std@@@std@@QBE_NABV012@@Z
_TEXT	SEGMENT PARA USE32 PUBLIC 'CODE'
_TEXT	ENDS
;	COMDAT ??Eiterator@?$_Tree@V?$_Tmap_traits@KPAVCUser@@U?$less@K@std@@V?$allocator@U?$pair@$$CBKPAVCUser@@@std@@@3@$0A@@std@@@std@@QAEAAV012@XZ
_TEXT	SEGMENT PARA USE32 PUBLIC 'CODE'
_TEXT	ENDS
;	COMDAT ??Econst_iterator@?$_Tree@V?$_Tmap_traits@KPAVCUser@@U?$less@K@std@@V?$allocator@U?$pair@$$CBKPAVCUser@@@std@@@3@$0A@@std@@@std@@QAEAAV012@XZ
_TEXT	SEGMENT PARA USE32 PUBLIC 'CODE'
_TEXT	ENDS
;	COMDAT ?_Inc@const_iterator@?$_Tree@V?$_Tmap_traits@KPAVCUser@@U?$less@K@std@@V?$allocator@U?$pair@$$CBKPAVCUser@@@std@@@3@$0A@@std@@@std@@QAEXXZ
_TEXT	SEGMENT PARA USE32 PUBLIC 'CODE'
_TEXT	ENDS
;	COMDAT ?_Min@?$_Tree@V?$_Tmap_traits@KPAVCUser@@U?$less@K@std@@V?$allocator@U?$pair@$$CBKPAVCUser@@@std@@@3@$0A@@std@@@std@@KAPAU_Node@?$_Tree_nod@V?$_Tmap_traits@KPAVCUser@@U?$less@K@std@@V?$allocator@U?$pair@$$CBKPAVCUser@@@std@@@3@$0A@@std@@@2@PAU342@@Z
_TEXT	SEGMENT PARA USE32 PUBLIC 'CODE'
_TEXT	ENDS
;	COMDAT ?_Left@?$_Tree@V?$_Tmap_traits@KPAVCUser@@U?$less@K@std@@V?$allocator@U?$pair@$$CBKPAVCUser@@@std@@@3@$0A@@std@@@std@@KAAAPAU_Node@?$_Tree_nod@V?$_Tmap_traits@KPAVCUser@@U?$less@K@std@@V?$allocator@U?$pair@$$CBKPAVCUser@@@std@@@3@$0A@@std@@@2@PAU342@@Z
_TEXT	SEGMENT PARA USE32 PUBLIC 'CODE'
_TEXT	ENDS
;	COMDAT ?_Isnil@?$_Tree@V?$_Tmap_traits@KPAVCUser@@U?$less@K@std@@V?$allocator@U?$pair@$$CBKPAVCUser@@@std@@@3@$0A@@std@@@std@@KAAADPAU_Node@?$_Tree_nod@V?$_Tmap_traits@KPAVCUser@@U?$less@K@std@@V?$allocator@U?$pair@$$CBKPAVCUser@@@std@@@3@$0A@@std@@@2@@Z
_TEXT	SEGMENT PARA USE32 PUBLIC 'CODE'
_TEXT	ENDS
;	COMDAT ?_Parent@?$_Tree@V?$_Tmap_traits@KPAVCUser@@U?$less@K@std@@V?$allocator@U?$pair@$$CBKPAVCUser@@@std@@@3@$0A@@std@@@std@@KAAAPAU_Node@?$_Tree_nod@V?$_Tmap_traits@KPAVCUser@@U?$less@K@std@@V?$allocator@U?$pair@$$CBKPAVCUser@@@std@@@3@$0A@@std@@@2@PAU342@@Z
_TEXT	SEGMENT PARA USE32 PUBLIC 'CODE'
_TEXT	ENDS
;	COMDAT ?_Right@?$_Tree@V?$_Tmap_traits@KPAVCUser@@U?$less@K@std@@V?$allocator@U?$pair@$$CBKPAVCUser@@@std@@@3@$0A@@std@@@std@@KAAAPAU_Node@?$_Tree_nod@V?$_Tmap_traits@KPAVCUser@@U?$less@K@std@@V?$allocator@U?$pair@$$CBKPAVCUser@@@std@@@3@$0A@@std@@@2@PAU342@@Z
_TEXT	SEGMENT PARA USE32 PUBLIC 'CODE'
_TEXT	ENDS
;	COMDAT ?_Psave@?$_Facetptr@V?$ctype@G@std@@@std@@2PBVfacet@locale@2@B
_DATA	SEGMENT DWORD USE32 PUBLIC 'DATA'
_DATA	ENDS
;	COMDAT ?_Psave@?$_Facetptr@V?$ctype@D@std@@@std@@2PBVfacet@locale@2@B
_DATA	SEGMENT DWORD USE32 PUBLIC 'DATA'
_DATA	ENDS
;	COMDAT ?compare@?$char_traits@D@std@@SAHPBD0I@Z
_TEXT	SEGMENT PARA USE32 PUBLIC 'CODE'
_TEXT	ENDS
;	COMDAT ?ReleaseBufferSetLength@?$CSimpleStringT@D$0A@@ATL@@QAEXH@Z
_TEXT	SEGMENT PARA USE32 PUBLIC 'CODE'
_TEXT	ENDS
;	COMDAT ?SetLength@?$CSimpleStringT@D$0A@@ATL@@AAEXH@Z
_TEXT	SEGMENT PARA USE32 PUBLIC 'CODE'
_TEXT	ENDS
;	COMDAT ?GetData@?$CSimpleStringT@D$0A@@ATL@@ABEPAUCStringData@2@XZ
_TEXT	SEGMENT PARA USE32 PUBLIC 'CODE'
_TEXT	ENDS
;	COMDAT ?Format@?$ChTraitsCRT@D@ATL@@SAHPADPBD0@Z
_TEXT	SEGMENT PARA USE32 PUBLIC 'CODE'
_TEXT	ENDS
;	COMDAT ?GetBuffer@?$CSimpleStringT@D$0A@@ATL@@QAEPADH@Z
_TEXT	SEGMENT PARA USE32 PUBLIC 'CODE'
_TEXT	ENDS
;	COMDAT ?PrepareWrite@?$CSimpleStringT@D$0A@@ATL@@AAEPADH@Z
_TEXT	SEGMENT PARA USE32 PUBLIC 'CODE'
_TEXT	ENDS
;	COMDAT ?PrepareWrite2@?$CSimpleStringT@D$0A@@ATL@@AAEXH@Z
_TEXT	SEGMENT PARA USE32 PUBLIC 'CODE'
_TEXT	ENDS
;	COMDAT ?IsShared@CStringData@ATL@@QBE_NXZ
_TEXT	SEGMENT PARA USE32 PUBLIC 'CODE'
_TEXT	ENDS
;	COMDAT ?Fork@?$CSimpleStringT@D$0A@@ATL@@AAEXH@Z
_TEXT	SEGMENT PARA USE32 PUBLIC 'CODE'
_TEXT	ENDS
;	COMDAT ?ThrowMemoryException@?$CSimpleStringT@D$0A@@ATL@@KAXXZ
_TEXT	SEGMENT PARA USE32 PUBLIC 'CODE'
_TEXT	ENDS
;	COMDAT ?CopyChars@?$CSimpleStringT@D$0A@@ATL@@SAXPADPBDH@Z
_TEXT	SEGMENT PARA USE32 PUBLIC 'CODE'
_TEXT	ENDS
;	COMDAT ?data@CStringData@ATL@@QAEPAXXZ
_TEXT	SEGMENT PARA USE32 PUBLIC 'CODE'
_TEXT	ENDS
;	COMDAT ?Release@CStringData@ATL@@QAEXXZ
_TEXT	SEGMENT PARA USE32 PUBLIC 'CODE'
_TEXT	ENDS
;	COMDAT ?Attach@?$CSimpleStringT@D$0A@@ATL@@AAEXPAUCStringData@2@@Z
_TEXT	SEGMENT PARA USE32 PUBLIC 'CODE'
_TEXT	ENDS
;	COMDAT ?Reallocate@?$CSimpleStringT@D$0A@@ATL@@AAEXH@Z
_TEXT	SEGMENT PARA USE32 PUBLIC 'CODE'
_TEXT	ENDS
;	COMDAT ?GetFormattedLength@?$ChTraitsCRT@D@ATL@@SAHPBDPAD@Z
_TEXT	SEGMENT PARA USE32 PUBLIC 'CODE'
_TEXT	ENDS
;	COMDAT ?AtlThrow@ATL@@YGXJ@Z
_TEXT	SEGMENT PARA USE32 PUBLIC 'CODE'
_TEXT	ENDS
;	COMDAT ?_Myptr@?$basic_string@DU?$char_traits@D@std@@V?$allocator@D@2@@std@@QBEPBDXZ
_TEXT	SEGMENT PARA USE32 PUBLIC 'CODE'
_TEXT	ENDS
;	COMDAT ?size@?$basic_string@DU?$char_traits@D@std@@V?$allocator@D@2@@std@@QBEIXZ
_TEXT	SEGMENT PARA USE32 PUBLIC 'CODE'
_TEXT	ENDS
;	COMDAT ??HD3DXVECTOR3@@QBE?AU0@ABU0@@Z
_TEXT	SEGMENT PARA USE32 PUBLIC 'CODE'
_TEXT	ENDS
;	COMDAT ??0D3DXVECTOR3@@QAE@MMM@Z
_TEXT	SEGMENT PARA USE32 PUBLIC 'CODE'
_TEXT	ENDS
;	COMDAT ??GD3DXVECTOR3@@QBE?AU0@ABU0@@Z
_TEXT	SEGMENT PARA USE32 PUBLIC 'CODE'
_TEXT	ENDS
;	COMDAT ??D@YA?AUD3DXVECTOR3@@MABU0@@Z
_TEXT	SEGMENT PARA USE32 PUBLIC 'CODE'
_TEXT	ENDS
;	COMDAT ?GetRArmIdx@CModelObject@@QAEHXZ
_TEXT	SEGMENT PARA USE32 PUBLIC 'CODE'
_TEXT	ENDS
;	COMDAT ?GetLArmIdx@CModelObject@@QAEHXZ
_TEXT	SEGMENT PARA USE32 PUBLIC 'CODE'
_TEXT	ENDS
;	COMDAT ?GetLHandIdx@CModelObject@@QAEHXZ
_TEXT	SEGMENT PARA USE32 PUBLIC 'CODE'
_TEXT	ENDS
;	COMDAT ?GetRHandIdx@CModelObject@@QAEHXZ
_TEXT	SEGMENT PARA USE32 PUBLIC 'CODE'
_TEXT	ENDS
;	COMDAT ?GetMaxFrame@CObject3D@@QAEHXZ
_TEXT	SEGMENT PARA USE32 PUBLIC 'CODE'
_TEXT	ENDS
;	COMDAT ?IsHaveCollObj@CObject3D@@QAEHXZ
_TEXT	SEGMENT PARA USE32 PUBLIC 'CODE'
_TEXT	ENDS
;	COMDAT ?GetGMOBJECT@CObject3D@@QAEPAUGMOBJECT@@H@Z
_TEXT	SEGMENT PARA USE32 PUBLIC 'CODE'
_TEXT	ENDS
;	COMDAT ?IsUseExternBone@CObject3D@@QAEHXZ
_TEXT	SEGMENT PARA USE32 PUBLIC 'CODE'
_TEXT	ENDS
;	COMDAT ?InitDeviceObjects@CObject3D@@QAEJPAUIDirect3DDevice9@@@Z
_TEXT	SEGMENT PARA USE32 PUBLIC 'CODE'
_TEXT	ENDS
;	COMDAT ?SetExternBone@CObject3D@@QAEXPAUD3DXMATRIX@@0@Z
_TEXT	SEGMENT PARA USE32 PUBLIC 'CODE'
_TEXT	ENDS
;	COMDAT ?GetMaxFrame@CMotion@@QAEHXZ
_TEXT	SEGMENT PARA USE32 PUBLIC 'CODE'
_TEXT	ENDS
;	COMDAT ?InitAnimate@CModel@@QAEXXZ
_TEXT	SEGMENT PARA USE32 PUBLIC 'CODE'
_TEXT	ENDS
;	COMDAT ?GetParts@CModelObject@@QAEPAUO3D_ELEMENT@@H@Z
_TEXT	SEGMENT PARA USE32 PUBLIC 'CODE'
_TEXT	ENDS
;	COMDAT ?GetPartsIdx@CModelObject@@QAEHH@Z
_TEXT	SEGMENT PARA USE32 PUBLIC 'CODE'
_TEXT	ENDS
;	COMDAT ?GetMaxObject@CObject3D@@QAEHXZ
_TEXT	SEGMENT PARA USE32 PUBLIC 'CODE'
_TEXT	ENDS
;	COMDAT ?SetLOD@CObject3D@@QAEXH@Z
_TEXT	SEGMENT PARA USE32 PUBLIC 'CODE'
_TEXT	ENDS
;	COMDAT ??_C@_0BD@IOHNFIBA@SetLOD?5?3?5lv?$DN?$CFd?0?5?$CFs?$AA@
CONST	SEGMENT DWORD USE32 PUBLIC 'CONST'
CONST	ENDS
;	COMDAT ?GetObject3D@CModelObject@@QAEPAVCObject3D@@XZ
_TEXT	SEGMENT PARA USE32 PUBLIC 'CODE'
_TEXT	ENDS
;	COMDAT ?s_szRoot@?1??GetMotionFileName@CModelObject@@QBE?AV?$CStringT@DV?$StrTraitMFC@DV?$ChTraitsCRT@D@ATL@@@@@ATL@@ABV34@@Z@4PAY0CA@DA
_DATA	SEGMENT DWORD USE32 PUBLIC 'DATA'
_DATA	ENDS
;	COMDAT ??0?$CStringT@DV?$StrTraitMFC@DV?$ChTraitsCRT@D@ATL@@@@@ATL@@QAE@ABV01@@Z
_TEXT	SEGMENT PARA USE32 PUBLIC 'CODE'
_TEXT	ENDS
;	COMDAT ??0?$CSimpleStringT@D$0A@@ATL@@QAE@ABV01@@Z
_TEXT	SEGMENT PARA USE32 PUBLIC 'CODE'
_TEXT	ENDS
;	COMDAT ?CloneData@?$CSimpleStringT@D$0A@@ATL@@CAPAUCStringData@2@PAU32@@Z
_TEXT	SEGMENT PARA USE32 PUBLIC 'CODE'
_TEXT	ENDS
;	COMDAT ?IsLocked@CStringData@ATL@@QBE_NXZ
_TEXT	SEGMENT PARA USE32 PUBLIC 'CODE'
_TEXT	ENDS
;	COMDAT ?AddRef@CStringData@ATL@@QAEXXZ
_TEXT	SEGMENT PARA USE32 PUBLIC 'CODE'
_TEXT	ENDS
;	COMDAT ??1?$CSimpleStringT@D$0A@@ATL@@QAE@XZ
_TEXT	SEGMENT PARA USE32 PUBLIC 'CODE'
_TEXT	ENDS
;	COMDAT ??1?$CStringT@DV?$StrTraitMFC@DV?$ChTraitsCRT@D@ATL@@@@@ATL@@QAE@XZ
_TEXT	SEGMENT PARA USE32 PUBLIC 'CODE'
_TEXT	ENDS
;	COMDAT ??0?$CStringT@DV?$StrTraitMFC@DV?$ChTraitsCRT@D@ATL@@@@@ATL@@QAE@XZ
_TEXT	SEGMENT PARA USE32 PUBLIC 'CODE'
_TEXT	ENDS
;	COMDAT ??0?$CSimpleStringT@D$0A@@ATL@@QAE@PAUIAtlStringMgr@1@@Z
_TEXT	SEGMENT PARA USE32 PUBLIC 'CODE'
_TEXT	ENDS
;	COMDAT ?GetDefaultManager@?$StrTraitMFC@DV?$ChTraitsCRT@D@ATL@@@@SAPAUIAtlStringMgr@ATL@@XZ
_TEXT	SEGMENT PARA USE32 PUBLIC 'CODE'
_TEXT	ENDS
;	COMDAT ??1CSwordForce@@QAE@XZ
_TEXT	SEGMENT PARA USE32 PUBLIC 'CODE'
_TEXT	ENDS
;	COMDAT ?Destroy@CSwordForce@@QAEXXZ
_TEXT	SEGMENT PARA USE32 PUBLIC 'CODE'
_TEXT	ENDS
;	COMDAT ?Init@CSwordForce@@QAEXXZ
_TEXT	SEGMENT PARA USE32 PUBLIC 'CODE'
_TEXT	ENDS
;	COMDAT ?D3DXMatrixIdentity@@YAPAUD3DXMATRIX@@PAU1@@Z
_TEXT	SEGMENT PARA USE32 PUBLIC 'CODE'
_TEXT	ENDS
;	COMDAT ??0D3DXMATRIX@@QAE@XZ
_TEXT	SEGMENT PARA USE32 PUBLIC 'CODE'
_TEXT	ENDS
;	COMDAT ??0D3DXVECTOR3@@QAE@XZ
_TEXT	SEGMENT PARA USE32 PUBLIC 'CODE'
_TEXT	ENDS
;	COMDAT ??_H@YGXPAXIHP6EPAX0@Z@Z
_TEXT	SEGMENT PARA USE32 PUBLIC 'CODE'
_TEXT	ENDS
;	COMDAT ??_7CModelObject@@6B@
CONST	SEGMENT DWORD USE32 PUBLIC 'CONST'
CONST	ENDS
;	COMDAT ??0CModel@@QAE@XZ
_TEXT	SEGMENT PARA USE32 PUBLIC 'CODE'
_TEXT	ENDS
;	COMDAT ??_7CModel@@6B@
CONST	SEGMENT DWORD USE32 PUBLIC 'CONST'
CONST	ENDS
;	COMDAT ??_GCModel@@UAEPAXI@Z
_TEXT	SEGMENT PARA USE32 PUBLIC 'CODE'
_TEXT	ENDS
;	COMDAT ?LoadModel@CModel@@UAEHPBD@Z
_TEXT	SEGMENT PARA USE32 PUBLIC 'CODE'
_TEXT	ENDS
;	COMDAT ?IsLoadAttr@CModel@@UAEHXZ
_TEXT	SEGMENT PARA USE32 PUBLIC 'CODE'
_TEXT	ENDS
;	COMDAT ?GetMotionAttr@CModel@@UAEPAUMOTION_ATTR@@H@Z
_TEXT	SEGMENT PARA USE32 PUBLIC 'CODE'
_TEXT	ENDS
;	COMDAT ?IsAttrHit@CModel@@UAEKXZ
_TEXT	SEGMENT PARA USE32 PUBLIC 'CODE'
_TEXT	ENDS
;	COMDAT ?IsAttrHit@CModel@@UAEKM@Z
_TEXT	SEGMENT PARA USE32 PUBLIC 'CODE'
_TEXT	ENDS
;	COMDAT ?IsAttrSound@CModel@@UAEPAUMOTION_ATTR@@XZ
_TEXT	SEGMENT PARA USE32 PUBLIC 'CODE'
_TEXT	ENDS
;	COMDAT ?IsAttrSound@CModel@@UAEPAUMOTION_ATTR@@M@Z
_TEXT	SEGMENT PARA USE32 PUBLIC 'CODE'
_TEXT	ENDS
;	COMDAT ?IsAttrQuake@CModel@@UAEKXZ
_TEXT	SEGMENT PARA USE32 PUBLIC 'CODE'
_TEXT	ENDS
;	COMDAT ?IsAttrQuake@CModel@@UAEKM@Z
_TEXT	SEGMENT PARA USE32 PUBLIC 'CODE'
_TEXT	ENDS
;	COMDAT ?SetAttr@CModel@@UAEXMK@Z
_TEXT	SEGMENT PARA USE32 PUBLIC 'CODE'
_TEXT	ENDS
;	COMDAT ?SetGroup@CModel@@UAEXH@Z
_TEXT	SEGMENT PARA USE32 PUBLIC 'CODE'
_TEXT	ENDS
;	COMDAT ?IsHaveCollObj@CModel@@UAEHXZ
_TEXT	SEGMENT PARA USE32 PUBLIC 'CODE'
_TEXT	ENDS
;	COMDAT ?InitDeviceObjects@CModel@@UAEJPAUIDirect3DDevice9@@@Z
_TEXT	SEGMENT PARA USE32 PUBLIC 'CODE'
_TEXT	ENDS
;	COMDAT ?RestoreDeviceObjects@CModel@@UAEJXZ
_TEXT	SEGMENT PARA USE32 PUBLIC 'CODE'
_TEXT	ENDS
;	COMDAT ?InvalidateDeviceObjects@CModel@@UAEJXZ
_TEXT	SEGMENT PARA USE32 PUBLIC 'CODE'
_TEXT	ENDS
;	COMDAT ?DeleteDeviceObjects@CModel@@UAEJXZ
_TEXT	SEGMENT PARA USE32 PUBLIC 'CODE'
_TEXT	ENDS
;	COMDAT ?Intersect@CModel@@UAEHABUD3DXVECTOR3@@0ABUD3DXMATRIX@@PAU2@PAMH@Z
_TEXT	SEGMENT PARA USE32 PUBLIC 'CODE'
_TEXT	ENDS
;	COMDAT ?IntersectRayTri@CModel@@UAEPAUD3DXVECTOR3@@ABU2@0ABUD3DXMATRIX@@PAU2@PAMH@Z
_TEXT	SEGMENT PARA USE32 PUBLIC 'CODE'
_TEXT	ENDS
;	COMDAT ?IsTouchOBB_Line@CModel@@UAEHABUD3DXVECTOR3@@0ABUD3DXMATRIX@@PAU2@H@Z
_TEXT	SEGMENT PARA USE32 PUBLIC 'CODE'
_TEXT	ENDS
;	COMDAT ?TestIntersectionOBB_Line@CModel@@UAEHABVSegment3@@PBVCObj@@H@Z
_TEXT	SEGMENT PARA USE32 PUBLIC 'CODE'
_TEXT	ENDS
;	COMDAT ??0BOUND_BOX@@QAE@XZ
_TEXT	SEGMENT PARA USE32 PUBLIC 'CODE'
_TEXT	ENDS
;	COMDAT ?Init@CModel@@QAEXXZ
_TEXT	SEGMENT PARA USE32 PUBLIC 'CODE'
_TEXT	ENDS
sxdata	SEGMENT DWORD USE32 'SXDATA'
sxdata	ENDS
FLAT	GROUP _DATA, CONST, _BSS
	ASSUME	CS: FLAT, DS: FLAT, SS: FLAT
endif

INCLUDELIB LIBCMT
INCLUDELIB OLDNAMES

PUBLIC	?g_bUsableVS@@3HA				; g_bUsableVS
PUBLIC	?g_dwUsablePS_Level@@3KA			; g_dwUsablePS_Level
PUBLIC	?g_szLastFile@@3PADA				; g_szLastFile
_BSS	SEGMENT
?g_dwUsablePS_Level@@3KA DD 01H DUP (?)			; g_dwUsablePS_Level
?g_szLastFile@@3PADA DB 0200H DUP (?)			; g_szLastFile
_BSS	ENDS
_DATA	SEGMENT
?g_bUsableVS@@3HA DD 01H				; g_bUsableVS
_DATA	ENDS
PUBLIC	?CreateForce@CModelObject@@QAEXH@Z		; CModelObject::CreateForce
; Function compile flags: /Ogty
; File c:\documents and settings\test\mes documents\source\virtuos_v17\build\program\_common\modelobject.cpp
;	COMDAT ?CreateForce@CModelObject@@QAEXH@Z
_TEXT	SEGMENT
_nParts$ = 8						; size = 4
?CreateForce@CModelObject@@QAEXH@Z PROC NEAR		; CModelObject::CreateForce, COMDAT
; _this$ = ecx

; 461  : #ifdef __CLIENT
; 462  : 	if( nParts == PARTS_RWEAPON )
; 463  : 	{
; 464  : 		if( m_pForce )	return;		//      .
; 465  : 		m_pForce = new CSwordForce;
; 466  : 	} else
; 467  : 	if( nParts == PARTS_LWEAPON )
; 468  : 	{
; 469  : 		if( m_pForce2 )	return;		//      .
; 470  : 		m_pForce2 = new CSwordForce;
; 471  : 	} else
; 472  : 	{
; 473  : 		ASSERT(0);
; 474  : 	}
; 475  : #endif
; 476  : }

  00000	c2 04 00	 ret	 4
?CreateForce@CModelObject@@QAEXH@Z ENDP			; CModelObject::CreateForce
_TEXT	ENDS
PUBLIC	?SetTextureMulti@CModelObject@@QAEXPBDH@Z	; CModelObject::SetTextureMulti
; Function compile flags: /Ogty
;	COMDAT ?SetTextureMulti@CModelObject@@QAEXPBDH@Z
_TEXT	SEGMENT
_szBitmap$ = 8						; size = 4
_nParts$ = 12						; size = 4
?SetTextureMulti@CModelObject@@QAEXPBDH@Z PROC NEAR	; CModelObject::SetTextureMulti, COMDAT
; _this$ = ecx

; 939  : #if !defined(__WORLDSERVER)
; 940  : 	D3DMATERIAL9	d3dmtrl;
; 941  : 	MATERIAL		*mtrl;
; 942  : 
; 943  : 	mtrl = g_TextureMng.AddMaterial( m_pd3dDevice, &d3dmtrl, szBitmap );
; 944  : 	O3D_ELEMENT* pParts = GetParts(nParts);
; 945  : 
; 946  : 	if( pParts )
; 947  : 		pParts->m_pTextureEx = mtrl->m_pTexture;
; 948  : #endif
; 949  : }

  00000	c2 08 00	 ret	 8
?SetTextureMulti@CModelObject@@QAEXPBDH@Z ENDP		; CModelObject::SetTextureMulti
_TEXT	ENDS
PUBLIC	?InitDeviceObjects@CModelObject@@UAEJPAUIDirect3DDevice9@@@Z ; CModelObject::InitDeviceObjects
; Function compile flags: /Ogty
;	COMDAT ?InitDeviceObjects@CModelObject@@UAEJPAUIDirect3DDevice9@@@Z
_TEXT	SEGMENT
_pd3dDevice$ = 8					; size = 4
?InitDeviceObjects@CModelObject@@UAEJPAUIDirect3DDevice9@@@Z PROC NEAR ; CModelObject::InitDeviceObjects, COMDAT
; _this$ = ecx

; 1601 : 	m_pd3dDevice = pd3dDevice;

  00000	8b 44 24 04	 mov	 eax, DWORD PTR _pd3dDevice$[esp-4]
  00004	89 41 04	 mov	 DWORD PTR [ecx+4], eax

; 1602 : 
; 1603 : #ifdef __ATTACH_MODEL
; 1604 : 	InitAttachModelDeviceObjects(pd3dDevice);
; 1605 : #endif //__ATTACH_MODEL
; 1606 : 	return S_OK; 

  00007	33 c0		 xor	 eax, eax

; 1607 : }

  00009	c2 04 00	 ret	 4
?InitDeviceObjects@CModelObject@@UAEJPAUIDirect3DDevice9@@@Z ENDP ; CModelObject::InitDeviceObjects
_TEXT	ENDS
PUBLIC	?RestoreDeviceObjects@CModelObject@@UAEJXZ	; CModelObject::RestoreDeviceObjects
EXTRN	?RestoreDeviceObjects@CObject3D@@QAEJPAPAUIDirect3DVertexBuffer9@@W4_D3DPOOL@@@Z:NEAR ; CObject3D::RestoreDeviceObjects
; Function compile flags: /Ogty
;	COMDAT ?RestoreDeviceObjects@CModelObject@@UAEJXZ
_TEXT	SEGMENT
?RestoreDeviceObjects@CModelObject@@UAEJXZ PROC NEAR	; CModelObject::RestoreDeviceObjects, COMDAT
; _this$ = ecx

; 1610 : {

  00000	53		 push	 ebx
  00001	56		 push	 esi
  00002	57		 push	 edi
  00003	8b f1		 mov	 esi, ecx

; 1611 : 	int		i;
; 1612 : 	O3D_ELEMENT	*pElem;
; 1613 : 	CObject3D	*pObject3D;
; 1614 : 
; 1615 : 	SetGroup(0);

  00005	8b 06		 mov	 eax, DWORD PTR [esi]
  00007	6a 00		 push	 0
  00009	ff 50 44	 call	 DWORD PTR [eax+68]
  0000c	8d be 1c 02 00
	00		 lea	 edi, DWORD PTR [esi+540]
  00012	bb 15 00 00 00	 mov	 ebx, 21			; 00000015H
  00017	eb 07 8d a4 24
	00 00 00 00	 npad	 9
$L228659:

; 1616 : 	for( i = 0; i < MAX_ELEMENT; i ++ )
; 1617 : 	{
; 1618 : 		pElem = &m_Element[i];
; 1619 : 		pObject3D = pElem->m_pObject3D;

  00020	8b 8f bc fe ff
	ff		 mov	 ecx, DWORD PTR [edi-324]

; 1620 : 		if( pObject3D )

  00026	85 c9		 test	 ecx, ecx
  00028	74 0a		 je	 SHORT $L228660

; 1621 : 		{
; 1622 : 			// pElem  m_ppd3d_VB[]   .
; 1623 : 			pObject3D->RestoreDeviceObjects( pElem->m_ppd3d_VB );

  0002a	8b 17		 mov	 edx, DWORD PTR [edi]
  0002c	6a 01		 push	 1
  0002e	52		 push	 edx
  0002f	e8 00 00 00 00	 call	 ?RestoreDeviceObjects@CObject3D@@QAEJPAPAUIDirect3DVertexBuffer9@@W4_D3DPOOL@@@Z ; CObject3D::RestoreDeviceObjects
$L228660:
  00034	81 c7 fc 01 00
	00		 add	 edi, 508		; 000001fcH
  0003a	4b		 dec	 ebx
  0003b	75 e3		 jne	 SHORT $L228659

; 1624 : 		}
; 1625 : 	}
; 1626 : 	
; 1627 : 	if( m_pPartsEffect )

  0003d	8b 86 a0 2a 00
	00		 mov	 eax, DWORD PTR [esi+10912]
  00043	85 c0		 test	 eax, eax
  00045	74 0b		 je	 SHORT $L228663

; 1628 : 		m_pPartsEffect->RestoreDeviceObjects( m_pd3dDevice );

  00047	8b 56 04	 mov	 edx, DWORD PTR [esi+4]
  0004a	8b c8		 mov	 ecx, eax
  0004c	8b 01		 mov	 eax, DWORD PTR [ecx]
  0004e	52		 push	 edx
  0004f	ff 50 08	 call	 DWORD PTR [eax+8]
$L228663:

; 1629 : 	if( m_pPartsEffect2 )

  00052	8b 86 a4 2a 00
	00		 mov	 eax, DWORD PTR [esi+10916]
  00058	85 c0		 test	 eax, eax
  0005a	74 0b		 je	 SHORT $L228664

; 1630 : 		m_pPartsEffect2->RestoreDeviceObjects( m_pd3dDevice );

  0005c	8b 56 04	 mov	 edx, DWORD PTR [esi+4]
  0005f	8b c8		 mov	 ecx, eax
  00061	8b 01		 mov	 eax, DWORD PTR [ecx]
  00063	52		 push	 edx
  00064	ff 50 08	 call	 DWORD PTR [eax+8]
$L228664:

; 1631 : #ifdef __NEW_WEAPON_GLOW
; 1632 : 	if( m_pm_pPartsEffectRegular[0] )

  00067	8b 86 a8 2a 00
	00		 mov	 eax, DWORD PTR [esi+10920]
  0006d	85 c0		 test	 eax, eax
  0006f	74 0b		 je	 SHORT $L228665

; 1633 : 		m_pm_pPartsEffectRegular[0]->RestoreDeviceObjects( m_pd3dDevice );

  00071	8b 56 04	 mov	 edx, DWORD PTR [esi+4]
  00074	8b c8		 mov	 ecx, eax
  00076	8b 01		 mov	 eax, DWORD PTR [ecx]
  00078	52		 push	 edx
  00079	ff 50 08	 call	 DWORD PTR [eax+8]
$L228665:

; 1634 : 	if( m_pm_pPartsEffectRegular[1] )

  0007c	8b 86 ac 2a 00
	00		 mov	 eax, DWORD PTR [esi+10924]
  00082	85 c0		 test	 eax, eax
  00084	74 0b		 je	 SHORT $L228666

; 1635 : 		m_pm_pPartsEffectRegular[1]->RestoreDeviceObjects( m_pd3dDevice );

  00086	8b 56 04	 mov	 edx, DWORD PTR [esi+4]
  00089	8b c8		 mov	 ecx, eax
  0008b	8b 01		 mov	 eax, DWORD PTR [ecx]
  0008d	52		 push	 edx
  0008e	ff 50 08	 call	 DWORD PTR [eax+8]
$L228666:

; 1636 : 	if( m_pm_pPartsEffectElement[0] )

  00091	8b 86 b0 2a 00
	00		 mov	 eax, DWORD PTR [esi+10928]
  00097	85 c0		 test	 eax, eax
  00099	74 0b		 je	 SHORT $L228667

; 1637 : 		m_pm_pPartsEffectElement[0]->RestoreDeviceObjects( m_pd3dDevice );

  0009b	8b 56 04	 mov	 edx, DWORD PTR [esi+4]
  0009e	8b c8		 mov	 ecx, eax
  000a0	8b 01		 mov	 eax, DWORD PTR [ecx]
  000a2	52		 push	 edx
  000a3	ff 50 08	 call	 DWORD PTR [eax+8]
$L228667:

; 1638 : 	if( m_pm_pPartsEffectElement[1] )

  000a6	8b 86 b4 2a 00
	00		 mov	 eax, DWORD PTR [esi+10932]
  000ac	85 c0		 test	 eax, eax
  000ae	74 0b		 je	 SHORT $L228668

; 1639 : 		m_pm_pPartsEffectElement[1]->RestoreDeviceObjects( m_pd3dDevice );

  000b0	8b 56 04	 mov	 edx, DWORD PTR [esi+4]
  000b3	8b c8		 mov	 ecx, eax
  000b5	8b 01		 mov	 eax, DWORD PTR [ecx]
  000b7	52		 push	 edx
  000b8	ff 50 08	 call	 DWORD PTR [eax+8]
$L228668:

; 1640 : #endif // __NEW_WEAPON_GLOW
; 1641 : #if __VER >= 9 // __Y_ADV_ENCHANT_EFFECT
; 1642 : 	if( m_pPartsEffect1_Detail )

  000bb	8b 86 b8 2a 00
	00		 mov	 eax, DWORD PTR [esi+10936]
  000c1	85 c0		 test	 eax, eax
  000c3	74 0b		 je	 SHORT $L228669

; 1643 : 		m_pPartsEffect1_Detail->RestoreDeviceObjects( m_pd3dDevice );

  000c5	8b 56 04	 mov	 edx, DWORD PTR [esi+4]
  000c8	8b c8		 mov	 ecx, eax
  000ca	8b 01		 mov	 eax, DWORD PTR [ecx]
  000cc	52		 push	 edx
  000cd	ff 50 08	 call	 DWORD PTR [eax+8]
$L228669:

; 1644 : 	if( m_pPartsEffect2_Detail )

  000d0	8b 86 bc 2a 00
	00		 mov	 eax, DWORD PTR [esi+10940]
  000d6	85 c0		 test	 eax, eax
  000d8	74 0b		 je	 SHORT $L230314

; 1645 : 		m_pPartsEffect2_Detail->RestoreDeviceObjects( m_pd3dDevice );

  000da	8b 56 04	 mov	 edx, DWORD PTR [esi+4]
  000dd	8b c8		 mov	 ecx, eax
  000df	8b 01		 mov	 eax, DWORD PTR [ecx]
  000e1	52		 push	 edx
  000e2	ff 50 08	 call	 DWORD PTR [eax+8]
$L230314:
  000e5	5f		 pop	 edi
  000e6	5e		 pop	 esi

; 1646 : #endif //__Y_ADV_ENCHANT_EFFECT
; 1647 : 
; 1648 : #ifdef __ATTACH_MODEL
; 1649 : 	RestoreAttachModelDeviceObjects();
; 1650 : #endif //__ATTACH_MODEL
; 1651 : 
; 1652 : 	return S_OK;

  000e7	33 c0		 xor	 eax, eax
  000e9	5b		 pop	 ebx

; 1653 : }	

  000ea	c3		 ret	 0
?RestoreDeviceObjects@CModelObject@@UAEJXZ ENDP		; CModelObject::RestoreDeviceObjects
_TEXT	ENDS
PUBLIC	?InvalidateDeviceObjects@CModelObject@@UAEJXZ	; CModelObject::InvalidateDeviceObjects
; Function compile flags: /Ogty
;	COMDAT ?InvalidateDeviceObjects@CModelObject@@UAEJXZ
_TEXT	SEGMENT
?InvalidateDeviceObjects@CModelObject@@UAEJXZ PROC NEAR	; CModelObject::InvalidateDeviceObjects, COMDAT
; _this$ = ecx

; 1655 : {

  00000	56		 push	 esi
  00001	8b f1		 mov	 esi, ecx

; 1656 : 	DeleteDeviceObjects();

  00003	8b 06		 mov	 eax, DWORD PTR [esi]
  00005	ff 50 64	 call	 DWORD PTR [eax+100]

; 1657 : 
; 1658 : 	if( m_pPartsEffect )

  00008	8b 86 a0 2a 00
	00		 mov	 eax, DWORD PTR [esi+10912]
  0000e	85 c0		 test	 eax, eax
  00010	74 0b		 je	 SHORT $L228675

; 1659 : 		m_pPartsEffect->InvalidateDeviceObjects( m_pd3dDevice );

  00012	8b c8		 mov	 ecx, eax
  00014	8b 46 04	 mov	 eax, DWORD PTR [esi+4]
  00017	8b 11		 mov	 edx, DWORD PTR [ecx]
  00019	50		 push	 eax
  0001a	ff 52 04	 call	 DWORD PTR [edx+4]
$L228675:

; 1660 : 	if( m_pPartsEffect2 )

  0001d	8b 86 a4 2a 00
	00		 mov	 eax, DWORD PTR [esi+10916]
  00023	85 c0		 test	 eax, eax
  00025	74 0b		 je	 SHORT $L228676

; 1661 : 		m_pPartsEffect2->InvalidateDeviceObjects( m_pd3dDevice );

  00027	8b c8		 mov	 ecx, eax
  00029	8b 46 04	 mov	 eax, DWORD PTR [esi+4]
  0002c	8b 11		 mov	 edx, DWORD PTR [ecx]
  0002e	50		 push	 eax
  0002f	ff 52 04	 call	 DWORD PTR [edx+4]
$L228676:

; 1662 : #ifdef __NEW_WEAPON_GLOW
; 1663 : 	if( m_pm_pPartsEffectRegular[0] )

  00032	8b 86 a8 2a 00
	00		 mov	 eax, DWORD PTR [esi+10920]
  00038	85 c0		 test	 eax, eax
  0003a	74 0b		 je	 SHORT $L228677

; 1664 : 		m_pm_pPartsEffectRegular[0]->InvalidateDeviceObjects( m_pd3dDevice );

  0003c	8b c8		 mov	 ecx, eax
  0003e	8b 46 04	 mov	 eax, DWORD PTR [esi+4]
  00041	8b 11		 mov	 edx, DWORD PTR [ecx]
  00043	50		 push	 eax
  00044	ff 52 04	 call	 DWORD PTR [edx+4]
$L228677:

; 1665 : 	if( m_pm_pPartsEffectRegular[1] )

  00047	8b 86 ac 2a 00
	00		 mov	 eax, DWORD PTR [esi+10924]
  0004d	85 c0		 test	 eax, eax
  0004f	74 0b		 je	 SHORT $L228678

; 1666 : 		m_pm_pPartsEffectRegular[1]->InvalidateDeviceObjects( m_pd3dDevice );

  00051	8b c8		 mov	 ecx, eax
  00053	8b 46 04	 mov	 eax, DWORD PTR [esi+4]
  00056	8b 11		 mov	 edx, DWORD PTR [ecx]
  00058	50		 push	 eax
  00059	ff 52 04	 call	 DWORD PTR [edx+4]
$L228678:

; 1667 : 	if( m_pm_pPartsEffectElement[0] )

  0005c	8b 86 b0 2a 00
	00		 mov	 eax, DWORD PTR [esi+10928]
  00062	85 c0		 test	 eax, eax
  00064	74 0b		 je	 SHORT $L228679

; 1668 : 		m_pm_pPartsEffectElement[0]->InvalidateDeviceObjects( m_pd3dDevice );

  00066	8b c8		 mov	 ecx, eax
  00068	8b 46 04	 mov	 eax, DWORD PTR [esi+4]
  0006b	8b 11		 mov	 edx, DWORD PTR [ecx]
  0006d	50		 push	 eax
  0006e	ff 52 04	 call	 DWORD PTR [edx+4]
$L228679:

; 1669 : 	if( m_pm_pPartsEffectElement[1] )

  00071	8b 86 b4 2a 00
	00		 mov	 eax, DWORD PTR [esi+10932]
  00077	85 c0		 test	 eax, eax
  00079	74 0b		 je	 SHORT $L228680

; 1670 : 		m_pm_pPartsEffectElement[1]->InvalidateDeviceObjects( m_pd3dDevice );

  0007b	8b c8		 mov	 ecx, eax
  0007d	8b 46 04	 mov	 eax, DWORD PTR [esi+4]
  00080	8b 11		 mov	 edx, DWORD PTR [ecx]
  00082	50		 push	 eax
  00083	ff 52 04	 call	 DWORD PTR [edx+4]
$L228680:

; 1671 : #endif // __NEW_WEAPON_GLOW
; 1672 : #if __VER >= 9 // __Y_ADV_ENCHANT_EFFECT
; 1673 : 	if( m_pPartsEffect1_Detail )

  00086	8b 86 b8 2a 00
	00		 mov	 eax, DWORD PTR [esi+10936]
  0008c	85 c0		 test	 eax, eax
  0008e	74 0b		 je	 SHORT $L228681

; 1674 : 		m_pPartsEffect1_Detail->InvalidateDeviceObjects( m_pd3dDevice );

  00090	8b c8		 mov	 ecx, eax
  00092	8b 46 04	 mov	 eax, DWORD PTR [esi+4]
  00095	8b 11		 mov	 edx, DWORD PTR [ecx]
  00097	50		 push	 eax
  00098	ff 52 04	 call	 DWORD PTR [edx+4]
$L228681:

; 1675 : 	if( m_pPartsEffect2_Detail )

  0009b	8b 86 bc 2a 00
	00		 mov	 eax, DWORD PTR [esi+10940]
  000a1	85 c0		 test	 eax, eax
  000a3	74 0b		 je	 SHORT $L230318

; 1676 : 		m_pPartsEffect2_Detail->InvalidateDeviceObjects( m_pd3dDevice );

  000a5	8b c8		 mov	 ecx, eax
  000a7	8b 46 04	 mov	 eax, DWORD PTR [esi+4]
  000aa	8b 11		 mov	 edx, DWORD PTR [ecx]
  000ac	50		 push	 eax
  000ad	ff 52 04	 call	 DWORD PTR [edx+4]
$L230318:

; 1677 : #endif //__Y_ADV_ENCHANT_EFFECT
; 1678 : 
; 1679 : 	return  S_OK;

  000b0	33 c0		 xor	 eax, eax
  000b2	5e		 pop	 esi

; 1680 : }	

  000b3	c3		 ret	 0
?InvalidateDeviceObjects@CModelObject@@UAEJXZ ENDP	; CModelObject::InvalidateDeviceObjects
_TEXT	ENDS
PUBLIC	?MakeSWDForce@CModelObject@@QAEXHKHKM@Z		; CModelObject::MakeSWDForce
; Function compile flags: /Ogty
;	COMDAT ?MakeSWDForce@CModelObject@@QAEXHKHKM@Z
_TEXT	SEGMENT
_nParts$ = 8						; size = 4
_dwItemKind3$ = 12					; size = 4
_bSlow$ = 16						; size = 4
_dwColor$ = 20						; size = 4
_fSpeed$ = 24						; size = 4
?MakeSWDForce@CModelObject@@QAEXHKHKM@Z PROC NEAR	; CModelObject::MakeSWDForce, COMDAT
; _this$ = ecx

; 1896 : #ifdef __CLIENT
; 1897 : 	D3DXVECTOR3		v1, v2;
; 1898 : 	O3D_ELEMENT		*pElem = GetParts( nParts );		//   
; 1899 : 	D3DXMATRIX	m1;
; 1900 : 	if( !pElem ) 
; 1901 : 		return;
; 1902 : 
; 1903 : 	if( pElem->m_pObject3D == NULL )		return;
; 1904 : 	
; 1905 : 	if( pElem->m_pObject3D->m_vForce1.x == 0 )	return;
; 1906 : 	if( pElem->m_pObject3D->m_vForce2.x == 0 )	return;
; 1907 : 
; 1908 : 	// FrameCurrent 0
; 1909 : 	m_fFrameCurrent = 0.0f;
; 1910 : 	m_nPause = 0;
; 1911 : 	m_bEndFrame = FALSE;
; 1912 : 	int nLoop = m_nLoop;
; 1913 : 	m_nLoop = ANILOOP_1PLAY;
; 1914 : 	
; 1915 : 	CreateForce( nParts );	//   
; 1916 : 	CSwordForce *pForce;
; 1917 : 	if( nParts == PARTS_RWEAPON )
; 1918 : 		pForce = m_pForce;
; 1919 : 	else
; 1920 : 		pForce = m_pForce2;
; 1921 : 
; 1922 : 	pForce->Clear();
; 1923 : 	pForce->m_dwColor = dwColor;
; 1924 : 
; 1925 : 	D3DXMATRIX *pmLocal;
; 1926 : 	if( pElem->m_nParentIdx == GetRHandIdx() )
; 1927 : 		pmLocal = &pElem->m_mLocalRH;
; 1928 : 	else if( pElem->m_nParentIdx == GetLHandIdx() )
; 1929 : 		pmLocal = &pElem->m_mLocalLH;
; 1930 : 	else if( pElem->m_nParentIdx == GetLArmIdx() )
; 1931 : 		pmLocal = &pElem->m_mLocalShield;
; 1932 : 	else if( pElem->m_nParentIdx == GetRArmIdx() )
; 1933 : 		pmLocal = &pElem->m_mLocalKnuckle;
; 1934 : 	
; 1935 : 
; 1936 : 	while(1)
; 1937 : 	{
; 1938 : 		if( m_pMotion )
; 1939 : 			m_pMotion->AnimateBone( m_mUpdateBone, m_pMotionOld, m_fFrameCurrent, GetNextFrame(), m_nFrameOld, m_bMotionBlending, m_fBlendWeight );		//      
; 1940 : 
; 1941 : 		//  WorldTM = LocalTM X WorldTM  
; 1942 : 		D3DXMatrixMultiply( &m1, pmLocal, &m_mUpdateBone[ pElem->m_nParentIdx ] );
; 1943 : 		
; 1944 : 		//     
; 1945 : 		D3DXVec3TransformCoord( &v1, &(pElem->m_pObject3D->m_vForce1), &m1 );
; 1946 : 		D3DXVec3TransformCoord( &v2, &(pElem->m_pObject3D->m_vForce2), &m1 );
; 1947 : 		pForce->Add( v1, v2 );
; 1948 : 
; 1949 : 		CModel::FrameMove( NULL, fSpeed );
; 1950 : 		if( bSlow && IsAttrHit( m_fFrameCurrent ) )
; 1951 : 			m_bSlow = TRUE;
; 1952 : 		if( m_bEndFrame )
; 1953 : 			break;
; 1954 : 	}
; 1955 : 
; 1956 : 	pForce->MakeSpline();		//  
; 1957 : 	
; 1958 : 
; 1959 : 	// rewind
; 1960 : 	m_fFrameCurrent = 0.0f;
; 1961 : 	m_nPause = 0;
; 1962 : 	m_bEndFrame = FALSE;
; 1963 : 	m_nLoop = nLoop;
; 1964 : 	m_bSlow = FALSE;
; 1965 : #endif
; 1966 : }

  00000	c2 14 00	 ret	 20			; 00000014H
?MakeSWDForce@CModelObject@@QAEXHKHKM@Z ENDP		; CModelObject::MakeSWDForce
_TEXT	ENDS
PUBLIC	?CreateWeaponEffect@CModelObject@@QAEXHKPBUD3DXMATRIX@@HHH@Z ; CModelObject::CreateWeaponEffect
; Function compile flags: /Ogty
;	COMDAT ?CreateWeaponEffect@CModelObject@@QAEXHKPBUD3DXMATRIX@@HHH@Z
_TEXT	SEGMENT
_nParts$ = 8						; size = 4
_dwItemKind3$ = 12					; size = 4
_pmWorld$ = 16						; size = 4
_nType$ = 20						; size = 4
_nLevel$ = 24						; size = 4
_nLevel2$ = 28						; size = 4
?CreateWeaponEffect@CModelObject@@QAEXHKPBUD3DXMATRIX@@HHH@Z PROC NEAR ; CModelObject::CreateWeaponEffect, COMDAT
; _this$ = ecx

; 1971 : #ifdef __CLIENT
; 1972 : 
; 1973 : 	if( nType >= PE_GEN && nLevel < 3 ) // no element, regular upgrade is below 3
; 1974 : 		return;
; 1975 : 	if( nType < PE_EARTH_AL && nLevel2 < 3 && nLevel < 3 ) // both element and regular are below 3
; 1976 : 		return;
; 1977 : 
; 1978 : 	// get element level
; 1979 : 	short nElementLevel = 0;
; 1980 : 	if		( nLevel2 >= 20 )	nElementLevel = 5;
; 1981 : 	else if ( nLevel2 >= 16 )	nElementLevel = 4;
; 1982 : 	else if ( nLevel2 >= 11 )	nElementLevel = 3;
; 1983 : 	else if ( nLevel2 >= 6 )	nElementLevel = 2;
; 1984 : 	else if	( nLevel2 >= 3 )	nElementLevel = 1;
; 1985 : 
; 1986 : 	// get regular level
; 1987 : 	short nRegularLevel = 0;
; 1988 : 	if		( nLevel >= 10 )	nRegularLevel = 5;
; 1989 : 	else if	( nLevel >= 9 )		nRegularLevel = 4;
; 1990 : 	else if	( nLevel >= 7 )		nRegularLevel = 3;
; 1991 : 	else if	( nLevel >= 5 )		nRegularLevel = 2;
; 1992 : 	else if	( nLevel >= 3)		nRegularLevel = 1;
; 1993 : 
; 1994 : 	O3D_ELEMENT		*pElem = GetParts( nParts );
; 1995 : 	if( !pElem )
; 1996 : 	{
; 1997 : 		if( nParts == 9 )
; 1998 : 		{
; 1999 : 			pElem = GetParts( PARTS_SHIELD );
; 2000 : 			if( !pElem )
; 2001 : 				return;
; 2002 : 		}
; 2003 : 		else
; 2004 : 			return;	
; 2005 : 	}			
; 2006 : 	if( pElem->m_pObject3D == NULL )
; 2007 : 		return;	
; 2008 : 
; 2009 : 	// getmatrix
; 2010 : 	D3DXMATRIX *pmLocal = NULL;
; 2011 : 	if( pElem->m_nParentIdx == GetRHandIdx() )
; 2012 : 		pmLocal = &pElem->m_mLocalRH;	
; 2013 : 	else
; 2014 : 	if( pElem->m_nParentIdx == GetLHandIdx() )
; 2015 : 		pmLocal = &pElem->m_mLocalLH;
; 2016 : 	else 
; 2017 : 	if( pElem->m_nParentIdx == GetLArmIdx() )
; 2018 : 		pmLocal = &pElem->m_mLocalShield;
; 2019 : 	else
; 2020 : 	if( pElem->m_nParentIdx == GetRArmIdx() )
; 2021 : 		pmLocal = &pElem->m_mLocalKnuckle;
; 2022 : 	assert( pmLocal );
; 2023 : 
; 2024 : 	D3DXMATRIX m1;
; 2025 : 	D3DXMatrixIdentity( &m1 );
; 2026 : 	D3DXMATRIX m2;
; 2027 : 	D3DXMatrixIdentity( &m2 );
; 2028 : 
; 2029 : 	D3DXMatrixMultiply( &m1, pmLocal, &m_mUpdateBone[ pElem->m_nParentIdx ] );
; 2030 : 	m2 = m1 * *pmWorld;
; 2031 : 
; 2032 : 
; 2033 : 	int dwSfxRegular = XI_WEA_SWORD01; // base
; 2034 : 	int dwSfxElement = XI_WEA_SWORD01; // element
; 2035 : 	float fOffset = 0;
; 2036 : 
; 2037 : 	switch( dwItemKind3 ) // get the type of the weapon
; 2038 : 	{
; 2039 : 		case IK3_SWD			: dwSfxRegular = XI_WEA_SWORD01;	fOffset = 0.10f; break;
; 2040 : 		case IK3_THSWD			: dwSfxRegular = XI_WEA_TWOSWORD01;	fOffset = 0.00f; break;
; 2041 : 		case IK3_AXE			: dwSfxRegular = XI_WEA_AXE01;		fOffset = 0.10f; break;
; 2042 : 		case IK3_THAXE			: dwSfxRegular = XI_WEA_TWOAXE01;	fOffset = 0.10f; break;
; 2043 : 		case IK3_YOYO			: dwSfxRegular = XI_WEA_YOYO01;		fOffset = 0.00f; break;
; 2044 : 		case IK3_KNUCKLEHAMMER 	: dwSfxRegular = XI_WEA_KNUCK01;	fOffset = 0.10f; break;
; 2045 : 		case IK3_CHEERSTICK		: dwSfxRegular = XI_WEA_STICK01;	fOffset = 0.00f; break;
; 2046 : 		case IK3_STAFF			: dwSfxRegular = XI_WEA_STAFF01;	fOffset = 0.00f; break;
; 2047 : 		case IK3_CROSSBOW		: dwSfxRegular = XI_WEA_CROSSBOW01;	fOffset = 0.10f; break;
; 2048 : 		case IK3_BOW			: dwSfxRegular = XI_WEA_BOW01;		fOffset = 0.00f; break;
; 2049 : 		case IK3_WAND			: dwSfxRegular = XI_WEA_WAND01;		fOffset = 0.10f; break;
; 2050 : 		case IK3_MAGICBARUNA	: dwSfxRegular = XI_WEA_MAGICBOOK01;fOffset = 0.00f; break;
; 2051 : 		case IK3_ZEMBARUNA		: dwSfxRegular = XI_WEA_FORCEZEM01;	fOffset = 0.00f; break;
; 2052 : 		default: return; // any other shield
; 2053 : 	}
; 2054 : 	dwSfxElement = dwSfxRegular; // copy
; 2055 : 
; 2056 : 	switch( nType ) // get element upgrade, if avail
; 2057 : 	{
; 2058 : 		case PE_FIRE	: dwSfxElement += 5;  break;
; 2059 : 		case PE_FIRE_AL	: dwSfxElement += 5;  break;
; 2060 : 		case PE_WATER	: dwSfxElement += 10; break;
; 2061 : 		case PE_WATER_AL: dwSfxElement += 10; break;
; 2062 : 		case PE_WIND	: dwSfxElement += 15; break;
; 2063 : 		case PE_WIND_AL	: dwSfxElement += 15; break;
; 2064 : 		case PE_ELEC	: dwSfxElement += 20; break;
; 2065 : 		case PE_ELEC_AL	: dwSfxElement += 20; break;
; 2066 : 		case PE_EARTH	: dwSfxElement += 25; break;
; 2067 : 		case PE_EARTH_AL: dwSfxElement += 25; break;		
; 2068 : 		default: break; // PE_GEN + PE_GEN_AL
; 2069 : 	}
; 2070 : 	// render element
; 2071 : 	D3DXVECTOR3 v3( 0.0f + fOffset, 0.0f, 0.0f );
; 2072 : 	if( nElementLevel > 0 ) // has element
; 2073 : 	{
; 2074 : 		dwSfxElement += ( nElementLevel - 1 ); // add element upgrade amount
; 2075 : 
; 2076 : 		CPartsWeaponEffect *pEffectElement = NULL;
; 2077 : 		if( nParts == PARTS_LWEAPON )
; 2078 : 		{
; 2079 : 			if( m_pm_pPartsEffectElement[0] && m_pm_pPartsEffectElement[0]->m_nType != nType )
; 2080 : 				SAFE_DELETE( m_pm_pPartsEffectElement[0] );
; 2081 : 			if( m_pm_pPartsEffectElement[0] == NULL )
; 2082 : 				m_pm_pPartsEffectElement[0] = new CPartsWeaponEffect( nType );		
; 2083 : 			pEffectElement = (CPartsWeaponEffect *)m_pm_pPartsEffectElement[0];
; 2084 : 		} else
; 2085 : 		{
; 2086 : 			if( m_pm_pPartsEffectElement[1] && m_pm_pPartsEffectElement[1]->m_nType != nType )	
; 2087 : 				SAFE_DELETE( m_pm_pPartsEffectElement[1] );
; 2088 : 			if( m_pm_pPartsEffectElement[1] == NULL )
; 2089 : 				m_pm_pPartsEffectElement[1] = new CPartsWeaponEffect( nType );		
; 2090 : 			pEffectElement = (CPartsWeaponEffect *)m_pm_pPartsEffectElement[1];
; 2091 : 		}
; 2092 : 		pEffectElement->Create( m_pd3dDevice, v3, dwSfxElement );
; 2093 : 		pEffectElement->Render( m_pd3dDevice, &m2 );	
; 2094 : 	}
; 2095 : 	// render reg upgrade
; 2096 : 	if( nRegularLevel > 0 ) // has regular upgrade
; 2097 : 	{
; 2098 : 		dwSfxRegular += ( nRegularLevel - 1);
; 2099 : 
; 2100 : 		CPartsWeaponEffect *pEffectRegular = NULL;
; 2101 : 
; 2102 : 		if( nParts == PARTS_LWEAPON )
; 2103 : 		{
; 2104 : 			if( m_pm_pPartsEffectRegular[0] && m_pm_pPartsEffectRegular[0]->m_nType != nType )
; 2105 : 				SAFE_DELETE( m_pm_pPartsEffectRegular[0] );
; 2106 : 			if( m_pm_pPartsEffectRegular[0] == NULL )
; 2107 : 				m_pm_pPartsEffectRegular[0] = new CPartsWeaponEffect( nType );
; 2108 : 			pEffectRegular = (CPartsWeaponEffect *)m_pm_pPartsEffectRegular[0];
; 2109 : 		} else
; 2110 : 		{
; 2111 : 			if( m_pm_pPartsEffectRegular[1] && m_pm_pPartsEffectRegular[1]->m_nType != nType )	
; 2112 : 				SAFE_DELETE( m_pm_pPartsEffectRegular[1] );
; 2113 : 			if( m_pm_pPartsEffectRegular[1] == NULL )
; 2114 : 				m_pm_pPartsEffectRegular[1] = new CPartsWeaponEffect( nType );
; 2115 : 			pEffectRegular = (CPartsWeaponEffect *)m_pm_pPartsEffectRegular[1];
; 2116 : 		}
; 2117 : 		pEffectRegular->Create( m_pd3dDevice, v3, dwSfxRegular );
; 2118 : 		pEffectRegular->Render( m_pd3dDevice, &m2 );	
; 2119 : 	}
; 2120 : #endif // client
; 2121 : }

  00000	c2 18 00	 ret	 24			; 00000018H
?CreateWeaponEffect@CModelObject@@QAEXHKPBUD3DXMATRIX@@HHH@Z ENDP ; CModelObject::CreateWeaponEffect
_TEXT	ENDS
PUBLIC	?CreateParticle@CModelObject@@QAEXHPBUD3DXMATRIX@@HHH@Z ; CModelObject::CreateParticle
; Function compile flags: /Ogty
;	COMDAT ?CreateParticle@CModelObject@@QAEXHPBUD3DXMATRIX@@HHH@Z
_TEXT	SEGMENT
_nParts$ = 8						; size = 4
_pmWorld$ = 12						; size = 4
_nType$ = 16						; size = 4
_nLevel$ = 20						; size = 4
_nLevel2$ = 24						; size = 4
?CreateParticle@CModelObject@@QAEXHPBUD3DXMATRIX@@HHH@Z PROC NEAR ; CModelObject::CreateParticle, COMDAT
; _this$ = ecx

; 2126 : #ifdef __CLIENT
; 2127 : #if __VER < 9 // __Y_ADV_ENCHANT_EFFECT
; 2128 : 	if( nLevel < 0 || nLevel > 5 )
; 2129 : 		return;
; 2130 : #else //__Y_ADV_ENCHANT_EFFECT
; 2131 : 
; 2132 : #ifdef __CSC_ENCHANT_EFFECT_2
; 2133 : 	int nEffLevel_2 = 0;
; 2134 : 	DWORD dwSfx_2 = 0;
; 2135 : 
; 2136 : #if __VER >= 13 // __EXT_ENCHANT
; 2137 : 	if( nLevel2 >= 10 )
; 2138 : 		nLevel2 = 10;
; 2139 : #endif //__EXT_ENCHANT
; 2140 : 
; 2141 : 	if( nLevel2 == 10 )		nEffLevel_2 = 5;
; 2142 : 	else if( nLevel2 == 9 )	nEffLevel_2 = 4;
; 2143 : 	else if( nLevel2 == 8 )	nEffLevel_2 = 3;
; 2144 : 	else if( nLevel2 == 7 )	nEffLevel_2 = 2;
; 2145 : 	else if( nLevel2 >= 4 )	nEffLevel_2 = 1;	// 4 ~ 6
; 2146 : 	else 
; 2147 : 		nEffLevel_2 = 0;
; 2148 : 
; 2149 : 	if(nType == PE_GEN && (nEffLevel_2 == 0 && nLevel < 6)) return;
; 2150 : 	if(nType <= PE_EARTH && (nEffLevel_2 == 0 && nLevel < 6)) return; 
; 2151 : 	
; 2152 : #endif //__CSC_ENCHANT_EFFECT_2
; 2153 : #endif //__Y_ADV_ENCHANT_EFFECT
; 2154 : 	O3D_ELEMENT		*pElem = GetParts( nParts );		//   
; 2155 : 
; 2156 : 	if( !pElem )
; 2157 : 		return;
; 2158 : 	
; 2159 : 	if( pElem->m_pObject3D == NULL )		return;
; 2160 : 	
; 2161 : 	if( pElem->m_pObject3D->m_vForce1.x == 0 )	return;
; 2162 : 	if( pElem->m_pObject3D->m_vForce2.x == 0 )	return;
; 2163 : 
; 2164 : #if __VER >= 9 // __CSC_VER9_5
; 2165 : 	BOOL IsSecondLine = FALSE;
; 2166 : 	D3DXVECTOR3 v2_1( 0.0F, 0.0F, 0.0F );
; 2167 : 	D3DXVECTOR3 v2_2( 0.0F, 0.0F, 0.0F );
; 2168 : 	D3DXVECTOR3 v2_3( 0.0F, 0.0F, 0.0F );
; 2169 : 	if( pElem->m_pObject3D->m_vForce3.x != 0 && pElem->m_pObject3D->m_vForce4.x != 0 )
; 2170 : 		IsSecondLine = TRUE;
; 2171 : 
; 2172 : 	if(IsSecondLine)
; 2173 : 	{
; 2174 : 		v2_1 = pElem->m_pObject3D->m_vForce3;
; 2175 : 		v2_2 = pElem->m_pObject3D->m_vForce4;
; 2176 : 	}
; 2177 : #endif //__CSC_VER9_5
; 2178 : 	D3DXMATRIX m1;
; 2179 : 	D3DXMatrixIdentity( &m1 );
; 2180 : 	D3DXMATRIX m2;
; 2181 : 	D3DXMatrixIdentity( &m2 );
; 2182 : 	D3DXVECTOR3 v1( 0.0F, 0.0F, 0.0F );
; 2183 : 	D3DXVECTOR3 v2( 0.0F, 0.0F, 0.0F );
; 2184 : 	D3DXVECTOR3 v3( 0.0F, 0.0F, 0.0F );
; 2185 : #if __VER >= 13 // __EXT_ENCHANT
; 2186 : 	float		fTemp = 0.0f;
; 2187 : #else // __EXT_ENCHANT
; 2188 : 	float		fTemp;
; 2189 : #endif // __EXT_ENCHANT
; 2190 : 	D3DXMATRIX *pmLocal = NULL;
; 2191 : 	if( pElem->m_nParentIdx == GetRHandIdx() )
; 2192 : 		pmLocal = &pElem->m_mLocalRH;
; 2193 : 	else if( pElem->m_nParentIdx == GetLHandIdx() )
; 2194 : 		pmLocal = &pElem->m_mLocalLH;
; 2195 : 	else if( pElem->m_nParentIdx == GetLArmIdx() )
; 2196 : 		pmLocal = &pElem->m_mLocalShield;
; 2197 : 	else if( pElem->m_nParentIdx == GetRArmIdx() )
; 2198 : 		pmLocal = &pElem->m_mLocalKnuckle;
; 2199 : 
; 2200 : 	assert( pmLocal );
; 2201 : 	D3DXMatrixMultiply( &m1, pmLocal, &m_mUpdateBone[ pElem->m_nParentIdx ] );
; 2202 : 	m2 = m1 * *pmWorld;
; 2203 : 
; 2204 : 	v1 = pElem->m_pObject3D->m_vForce1;
; 2205 : 	v2 = pElem->m_pObject3D->m_vForce2;
; 2206 : 	
; 2207 : #if __VER >= 9 // __Y_ADV_ENCHANT_EFFECT
; 2208 : 	D3DXVECTOR3 vScale( 0.0F, 0.0F, 0.0F );
; 2209 : 	int nEffCount = MAX_PARTS_FIRE;
; 2210 : #ifdef __SFX_OPT
; 2211 : 	switch(g_Option.m_nSfxLevel)
; 2212 : 	{
; 2213 : 		case 1:
; 2214 : 			nEffCount = MAX_PARTS_FIRE/3;
; 2215 : 			break;
; 2216 : 		case 2:
; 2217 : 			nEffCount = MAX_PARTS_FIRE/2;
; 2218 : 			break;
; 2219 : 		case 3:
; 2220 : 			nEffCount = (MAX_PARTS_FIRE/3) * 2;
; 2221 : 			break;
; 2222 : 		case 4:
; 2223 : 			nEffCount = (MAX_PARTS_FIRE/5) * 4;
; 2224 : 			break;
; 2225 : 		case 5:
; 2226 : 			nEffCount = MAX_PARTS_FIRE;
; 2227 : 			break;
; 2228 : 	};
; 2229 : #endif
; 2230 : 
; 2231 : 	if( m_nEffectCount < nEffCount )
; 2232 : 	{
; 2233 : 		fTemp = (FLOAT)m_nEffectCount / (FLOAT)nEffCount;
; 2234 : 
; 2235 : 		D3DXVec3Lerp( &v3, &v1, &v2, fTemp );
; 2236 : #if __VER >= 9 // __CSC_VER9_5
; 2237 : 		if(IsSecondLine)
; 2238 : 			D3DXVec3Lerp( &v2_3, &v2_1, &v2_2, fTemp );
; 2239 : #endif //__CSC_VER9_5
; 2240 : 		vScale = D3DXVECTOR3( 0.5f, 0.5f, 0.5f );
; 2241 : 
; 2242 : 		if( fTemp < 0.4f || fTemp > 0.6f )
; 2243 : 			vScale = D3DXVECTOR3( 1.1f, 1.1f, 1.1f );
; 2244 : 
; 2245 : 		if( fTemp < 0.25f || fTemp > 0.75f )
; 2246 : 			vScale = D3DXVECTOR3( 0.85f, 0.85f, 0.85f );
; 2247 : 
; 2248 : 		if( fTemp < 0.1f || fTemp > 0.9f )
; 2249 : 			vScale = D3DXVECTOR3( 0.6f, 0.6f, 0.6f );
; 2250 : 
; 2251 : 		if( fTemp > 0.4f && fTemp < 0.6f )
; 2252 : 			vScale = D3DXVECTOR3( 1.2f, 1.2f, 1.2f );
; 2253 : 
; 2254 : 		m_nEffectCount++;
; 2255 : 	}
; 2256 : 	else
; 2257 : 	{
; 2258 : 		m_nEffectCount = 0;
; 2259 : 	}
; 2260 : 
; 2261 : #else //__Y_ADV_ENCHANT_EFFECT
; 2262 : 
; 2263 : 	float fSlp = xRandomF(1);
; 2264 : 	D3DXVec3Lerp( &v3, &v1, &v2, fSlp );
; 2265 : 
; 2266 : #endif //__Y_ADV_ENCHANT_EFFECT
; 2267 : 
; 2268 : 
; 2269 : 	CPartsFire *pFire = NULL;
; 2270 : 	
; 2271 : 	if( nParts == PARTS_LWEAPON )
; 2272 : 	{
; 2273 : 		if( m_pPartsEffect2 && m_pPartsEffect2->m_nType != nType )	//       
; 2274 : 			SAFE_DELETE( m_pPartsEffect2 );							//    .
; 2275 : 		if( m_pPartsEffect2 == NULL )
; 2276 : 			m_pPartsEffect2 = new CPartsFire( nType );
; 2277 : 		
; 2278 : 		pFire = (CPartsFire *)m_pPartsEffect2;
; 2279 : 	} else
; 2280 : 	{
; 2281 : 		if( m_pPartsEffect && m_pPartsEffect->m_nType != nType )	//       
; 2282 : 			SAFE_DELETE( m_pPartsEffect );							//    .
; 2283 : 		if( m_pPartsEffect == NULL )
; 2284 : 			m_pPartsEffect = new CPartsFire( nType );
; 2285 : 		
; 2286 : 		pFire = (CPartsFire *)m_pPartsEffect;
; 2287 : 	}
; 2288 : 	if( (g_nRenderCnt & 3) == 0 )
; 2289 : 	{
; 2290 : 		FLOAT fScalLevel = 0.0f;
; 2291 : 
; 2292 : 		DWORD dwSfx = 0;
; 2293 : 		switch( nType )
; 2294 : 		{
; 2295 : 	#if __VER >= 9 // __Y_ADV_ENCHANT_EFFECT
; 2296 : 			case PE_FIRE_AL : dwSfx = XI_NAT_FIRE01_ADV_AL; break;
; 2297 : 			case PE_ELEC_AL : dwSfx = XI_NAT_ELEC01_ADV_AL; break;	//  ...
; 2298 : 			case PE_WATER_AL: dwSfx = XI_NAT_WATER01_ADV_AL; break;
; 2299 : 			case PE_WIND_AL : dwSfx = XI_NAT_WIND01_ADV_AL; break;
; 2300 : 			case PE_EARTH_AL: dwSfx = XI_NAT_EARTH01_ADV_AL; break;
; 2301 : 			case PE_FIRE : dwSfx = XI_NAT_FIRE01_ADV; break;
; 2302 : 			case PE_ELEC : dwSfx = XI_NAT_ELEC01_ADV; break;		//  ...
; 2303 : 			case PE_WATER: dwSfx = XI_NAT_WATER01_ADV; break;
; 2304 : 			case PE_WIND : dwSfx = XI_NAT_WIND01_ADV; break;
; 2305 : 			case PE_EARTH: dwSfx = XI_NAT_EARTH01_ADV; break;
; 2306 : 			case PE_GEN_AL: dwSfx = XI_NAT_NONE01_ADV; break;
; 2307 : 			case PE_GEN: dwSfx = XI_NAT_NONE01_ADV; break;
; 2308 : 			default: dwSfx = XI_NAT_FIRE01_ADV;
; 2309 : 	#else //__Y_ADV_ENCHANT_EFFECT
; 2310 : 			case PE_FIRE : dwSfx = XI_NAT_FIRE01;	break;
; 2311 : 			case PE_ELEC : dwSfx = XI_NAT_FIRE01;	break;	//   .
; 2312 : 			case PE_WATER: dwSfx = XI_NAT_WATER01;	break;
; 2313 : 			case PE_WIND : dwSfx = XI_NAT_WIND01;	break;
; 2314 : 			case PE_EARTH: dwSfx = XI_NAT_EARTH01;	break;
; 2315 : 			default: dwSfx = XI_NAT_FIRE01;
; 2316 : 	#endif //__Y_ADV_ENCHANT_EFFECT
; 2317 : 		}
; 2318 : 
; 2319 : 	#if __VER >= 9 // __Y_ADV_ENCHANT_EFFECT
; 2320 : 
; 2321 : 		if(nLevel > 0)
; 2322 : 		{
; 2323 : 			switch( nType )
; 2324 : 			{
; 2325 : 				case PE_FIRE_AL:
; 2326 : 				case PE_ELEC_AL:
; 2327 : 				case PE_WATER_AL:
; 2328 : 				case PE_WIND_AL:
; 2329 : 				case PE_EARTH_AL:
; 2330 : 				case PE_GEN_AL:
; 2331 : 					fScalLevel = prj.m_fEnchantLevelScal[1][nLevel-1];
; 2332 : 					break;
; 2333 : 				case PE_FIRE:
; 2334 : 				case PE_ELEC:
; 2335 : 				case PE_WATER:
; 2336 : 				case PE_WIND:
; 2337 : 				case PE_EARTH:
; 2338 : 				case PE_GEN:
; 2339 : 					fScalLevel = prj.m_fEnchantLevelScal[0][nLevel-1];
; 2340 : 					break;
; 2341 : 			}
; 2342 : 		}
; 2343 : 
; 2344 : 		if( nLevel2 <=0 )
; 2345 : 			nLevel2 = 1;
; 2346 : 
; 2347 : 		dwSfx += (nLevel2-1);
; 2348 : 	#else //__Y_ADV_ENCHANT_EFFECT
; 2349 : 		dwSfx += nLevel;
; 2350 : 	#endif //__Y_ADV_ENCHANT_EFFECT
; 2351 : 
; 2352 : 	#if __VER >= 9 // __Y_ADV_ENCHANT_EFFECT
; 2353 : #ifdef __CSC_ENCHANT_EFFECT_2
; 2354 : 		switch(nType)
; 2355 : 		{
; 2356 : 			case PE_FIRE:
; 2357 : 			case PE_FIRE_AL:
; 2358 : 				dwSfx_2 = XI_NAT_FIRE01;
; 2359 : 				dwSfx_2 += nEffLevel_2;
; 2360 : 				break;
; 2361 : 			case PE_WATER:
; 2362 : 			case PE_WATER_AL:
; 2363 : 				dwSfx_2 = XI_NAT_WATER01;
; 2364 : 				dwSfx_2 += nEffLevel_2;
; 2365 : 				break;
; 2366 : 			case PE_WIND:
; 2367 : 			case PE_WIND_AL:
; 2368 : 				dwSfx_2 = XI_NAT_WIND01;
; 2369 : 				dwSfx_2 += nEffLevel_2;
; 2370 : 				break;
; 2371 : 			case PE_EARTH:
; 2372 : 			case PE_EARTH_AL:
; 2373 : 				dwSfx_2 = XI_NAT_EARTH01;
; 2374 : 				dwSfx_2 += nEffLevel_2;
; 2375 : 				break;
; 2376 : 		}
; 2377 : #endif //__CSC_ENCHANT_EFFECT_2
; 2378 : #ifdef __CSC_ENCHANT_EFFECT_2
; 2379 : 		if(nLevel > 0)
; 2380 : #endif //__CSC_ENCHANT_EFFECT_2
; 2381 : 		pFire->Create( m_pd3dDevice, v3, dwSfx, vScale * fScalLevel );	//  sfx  .
; 2382 : #ifdef __CSC_ENCHANT_EFFECT_2
; 2383 : 		if(nEffLevel_2 > 0 && (nType == PE_FIRE || nType == PE_WATER || nType == PE_WIND || nType == PE_EARTH
; 2384 : 			|| nType == PE_FIRE_AL || nType == PE_WATER_AL || nType == PE_WIND_AL || nType == PE_EARTH_AL)
; 2385 : 			&& (fTemp > 0.1f && fTemp < 0.93f))
; 2386 : 			pFire->Create( m_pd3dDevice, v3, dwSfx_2 );	//  sfx  .
; 2387 : #endif //__CSC_ENCHANT_EFFECT_2
; 2388 : 	#if __VER >= 9 // __CSC_VER9_5
; 2389 : 		if(IsSecondLine)
; 2390 : 		{
; 2391 : #ifdef __CSC_ENCHANT_EFFECT_2
; 2392 : 			if(nLevel > 0)
; 2393 : #endif //__CSC_ENCHANT_EFFECT_2
; 2394 : 			pFire->Create( m_pd3dDevice, v2_3, dwSfx, vScale * fScalLevel );	//  sfx  .
; 2395 : #ifdef __CSC_ENCHANT_EFFECT_2
; 2396 : 		if(nEffLevel_2 > 0 && (nType == PE_FIRE || nType == PE_WATER || nType == PE_WIND || nType == PE_EARTH
; 2397 : 			|| nType == PE_FIRE_AL || nType == PE_WATER_AL || nType == PE_WIND_AL || nType == PE_EARTH_AL)
; 2398 : 			&& (fTemp > 0.1f && fTemp < 0.93f))
; 2399 : 				pFire->Create( m_pd3dDevice, v2_3, dwSfx_2 );	//  sfx  .
; 2400 : #endif //__CSC_ENCHANT_EFFECT_2
; 2401 : 		}
; 2402 : 	#endif //__CSC_VER9_5
; 2403 : 	#else //__Y_ADV_ENCHANT_EFFECT
; 2404 : 		pFire->Create( m_pd3dDevice, v3, dwSfx );	//  sfx  .
; 2405 : 	#endif //__Y_ADV_ENCHANT_EFFECT
; 2406 : 	}
; 2407 : 
; 2408 : 	pFire->Render( m_pd3dDevice, &m2 );
; 2409 : 
; 2410 : #endif // client
; 2411 : }

  00000	c2 14 00	 ret	 20			; 00000014H
?CreateParticle@CModelObject@@QAEXHPBUD3DXMATRIX@@HHH@Z ENDP ; CModelObject::CreateParticle
_TEXT	ENDS
PUBLIC	?RenderItemElec_Adv@CModelObject@@QAEXHPBUD3DXMATRIX@@H@Z ; CModelObject::RenderItemElec_Adv
; Function compile flags: /Ogty
;	COMDAT ?RenderItemElec_Adv@CModelObject@@QAEXHPBUD3DXMATRIX@@H@Z
_TEXT	SEGMENT
_nParts$ = 8						; size = 4
_pmWorld$ = 12						; size = 4
_nLevel$ = 16						; size = 4
?RenderItemElec_Adv@CModelObject@@QAEXHPBUD3DXMATRIX@@H@Z PROC NEAR ; CModelObject::RenderItemElec_Adv, COMDAT
; _this$ = ecx

; 2415 : #if __VER >= 9 // __Y_ADV_ENCHANT_EFFECT
; 2416 : #ifdef __CLIENT
; 2417 : 
; 2418 : #ifdef __CSC_ENCHANT_EFFECT_2
; 2419 : #if __VER >= 13 // __EXT_ENCHANT
; 2420 : 	if( nLevel >= 10 )		nLevel = 5;
; 2421 : #else //__EXT_ENCHANT
; 2422 : 	if( nLevel == 10 )		nLevel = 5;
; 2423 : #endif //__EXT_ENCHANT
; 2424 : 	else if( nLevel == 9 )	nLevel = 4;
; 2425 : 	else if( nLevel == 8 )	nLevel = 3;
; 2426 : 	else if( nLevel == 7 )	nLevel = 2;
; 2427 : 	else if( nLevel >= 4 )	nLevel = 1;	// 4 ~ 6
; 2428 : 	else 
; 2429 : 		nLevel = 0;
; 2430 : 
; 2431 : 	if(nLevel <= 0 || nLevel > 5)
; 2432 : 		return;
; 2433 : #endif //__CSC_ENCHANT_EFFECT_2
; 2434 : 
; 2435 : 	O3D_ELEMENT		*pElem = GetParts( nParts );		//   
; 2436 : 
; 2437 : 	if( !pElem )
; 2438 : 		return;
; 2439 : 	
; 2440 : 	if( pElem->m_pObject3D == NULL )		return;
; 2441 : 	
; 2442 : 	if( pElem->m_pObject3D->m_vForce1.x == 0 )	return;
; 2443 : 	if( pElem->m_pObject3D->m_vForce2.x == 0 )	return;
; 2444 : 
; 2445 : #if __VER >= 9 // __CSC_VER9_5
; 2446 : 	BOOL IsSecondLine = FALSE;
; 2447 : 	D3DXVECTOR3 v2_1, v2_2;
; 2448 : 	if( pElem->m_pObject3D->m_vForce3.x != 0 && pElem->m_pObject3D->m_vForce4.x != 0 )
; 2449 : 		IsSecondLine = TRUE;
; 2450 : 
; 2451 : 	if(IsSecondLine)
; 2452 : 	{
; 2453 : 		v2_1 = pElem->m_pObject3D->m_vForce3;
; 2454 : 		v2_2 = pElem->m_pObject3D->m_vForce4;
; 2455 : 	}
; 2456 : #endif //__CSC_VER9_5
; 2457 : 	
; 2458 : 	D3DXMATRIX	m1, m2;
; 2459 : 	D3DXVECTOR3	v1, v2, v3;
; 2460 : 	
; 2461 : 	D3DXMATRIX *pmLocal;
; 2462 : 	if( pElem->m_nParentIdx == GetRHandIdx() )
; 2463 : 		pmLocal = &pElem->m_mLocalRH;
; 2464 : 	else if( pElem->m_nParentIdx == GetLHandIdx() )
; 2465 : 		pmLocal = &pElem->m_mLocalLH;
; 2466 : 	else if( pElem->m_nParentIdx == GetLArmIdx() )
; 2467 : 		pmLocal = &pElem->m_mLocalShield;
; 2468 : 	else if( pElem->m_nParentIdx == GetRArmIdx() )
; 2469 : 		pmLocal = &pElem->m_mLocalKnuckle;
; 2470 : 	
; 2471 : 	D3DXMatrixMultiply( &m1, pmLocal, &m_mUpdateBone[ pElem->m_nParentIdx ] );
; 2472 : 	m2 = m1 * *pmWorld;
; 2473 : 	
; 2474 : 	v1 = pElem->m_pObject3D->m_vForce1;		//  
; 2475 : 	v2 = pElem->m_pObject3D->m_vForce2;
; 2476 : 
; 2477 : 	CPartsBeam *pBeam;
; 2478 : 	if( nParts == PARTS_LWEAPON )
; 2479 : 	{
; 2480 : 		if( m_pPartsEffect2_Detail && m_pPartsEffect2_Detail->m_nType != PE_ELEC )
; 2481 : 		{
; 2482 : 			SAFE_DELETE( m_pPartsEffect2_Detail );
; 2483 : 		}
; 2484 : 
; 2485 : 		if( m_pPartsEffect2_Detail == NULL )
; 2486 : 			m_pPartsEffect2_Detail = new CPartsBeam;
; 2487 : 
; 2488 : 		pBeam = (CPartsBeam *)m_pPartsEffect2_Detail;
; 2489 : 	} else
; 2490 : 	{
; 2491 : 		if( m_pPartsEffect1_Detail && m_pPartsEffect1_Detail->m_nType != PE_ELEC )
; 2492 : 		{
; 2493 : 			SAFE_DELETE( m_pPartsEffect1_Detail );
; 2494 : 		}
; 2495 : 		
; 2496 : 		if( m_pPartsEffect1_Detail == NULL )
; 2497 : 			m_pPartsEffect1_Detail = new CPartsBeam;
; 2498 : 		
; 2499 : 		pBeam = (CPartsBeam *)m_pPartsEffect1_Detail;
; 2500 : 	}
; 2501 : 	
; 2502 : 	pBeam->Render( m_pd3dDevice, &m2, g_ModelGlobal.m_vCameraPos, g_ModelGlobal.m_vCameraForward, v1, v2, nLevel );
; 2503 : #if __VER >= 9 // __CSC_VER9_5
; 2504 : 	if(IsSecondLine)
; 2505 : 		pBeam->Render( m_pd3dDevice, &m2, g_ModelGlobal.m_vCameraPos, g_ModelGlobal.m_vCameraForward, v2_1, v2_2, nLevel );
; 2506 : #endif //__CSC_VER9_5
; 2507 : 
; 2508 : #endif // CLIENT
; 2509 : #endif //__Y_ADV_ENCHANT_EFFECT
; 2510 : }

  00000	c2 0c 00	 ret	 12			; 0000000cH
?RenderItemElec_Adv@CModelObject@@QAEXHPBUD3DXMATRIX@@H@Z ENDP ; CModelObject::RenderItemElec_Adv
_TEXT	ENDS
PUBLIC	?RenderItemElec@CModelObject@@QAEXHPBUD3DXMATRIX@@H@Z ; CModelObject::RenderItemElec
; Function compile flags: /Ogty
;	COMDAT ?RenderItemElec@CModelObject@@QAEXHPBUD3DXMATRIX@@H@Z
_TEXT	SEGMENT
_nParts$ = 8						; size = 4
_pmWorld$ = 12						; size = 4
_nLevel$ = 16						; size = 4
?RenderItemElec@CModelObject@@QAEXHPBUD3DXMATRIX@@H@Z PROC NEAR ; CModelObject::RenderItemElec, COMDAT
; _this$ = ecx

; 2515 : #ifdef __CLIENT
; 2516 : 	O3D_ELEMENT		*pElem = GetParts( nParts );		//   
; 2517 : 
; 2518 : 	if( !pElem )
; 2519 : 		return;
; 2520 : 	
; 2521 : 	if( pElem->m_pObject3D == NULL )		return;
; 2522 : 	
; 2523 : 	if( pElem->m_pObject3D->m_vForce1.x == 0 )	return;
; 2524 : 	if( pElem->m_pObject3D->m_vForce2.x == 0 )	return;
; 2525 : 	
; 2526 : 	D3DXMATRIX	m1, m2;
; 2527 : 	D3DXVECTOR3		v1, v2, v3;
; 2528 : 	
; 2529 : 	D3DXMATRIX *pmLocal;
; 2530 : 	if( pElem->m_nParentIdx == GetRHandIdx() )
; 2531 : 		pmLocal = &pElem->m_mLocalRH;
; 2532 : 	else if( pElem->m_nParentIdx == GetLHandIdx() )
; 2533 : 		pmLocal = &pElem->m_mLocalLH;
; 2534 : 	else if( pElem->m_nParentIdx == GetLArmIdx() )
; 2535 : 		pmLocal = &pElem->m_mLocalShield;
; 2536 : 	else if( pElem->m_nParentIdx == GetRArmIdx() )
; 2537 : 		pmLocal = &pElem->m_mLocalKnuckle;
; 2538 : 	
; 2539 : 	D3DXMatrixMultiply( &m1, pmLocal, &m_mUpdateBone[ pElem->m_nParentIdx ] );
; 2540 : 	m2 = m1 * *pmWorld;
; 2541 : 	
; 2542 : 	v1 = pElem->m_pObject3D->m_vForce1;		//  
; 2543 : 	v2 = pElem->m_pObject3D->m_vForce2;
; 2544 : 
; 2545 : 	CPartsBeam *pBeam;
; 2546 : 	if( nParts == PARTS_LWEAPON )
; 2547 : 	{
; 2548 : 		if( m_pPartsEffect2 && m_pPartsEffect2->m_nType != PE_ELEC )
; 2549 : 		{
; 2550 : 			SAFE_DELETE( m_pPartsEffect2 );
; 2551 : 		}
; 2552 : 
; 2553 : 		if( m_pPartsEffect2 == NULL )
; 2554 : 			m_pPartsEffect2 = new CPartsBeam;
; 2555 : 
; 2556 : 		pBeam = (CPartsBeam *)m_pPartsEffect2;
; 2557 : 	} else
; 2558 : 	{
; 2559 : 		if( m_pPartsEffect && m_pPartsEffect->m_nType != PE_ELEC )
; 2560 : 		{
; 2561 : 			SAFE_DELETE( m_pPartsEffect );
; 2562 : 		}
; 2563 : 		
; 2564 : 		if( m_pPartsEffect == NULL )
; 2565 : 			m_pPartsEffect = new CPartsBeam;
; 2566 : 		
; 2567 : 		pBeam = (CPartsBeam *)m_pPartsEffect;
; 2568 : 	}
; 2569 : 	
; 2570 : 	pBeam->Render( m_pd3dDevice, &m2, g_ModelGlobal.m_vCameraPos, g_ModelGlobal.m_vCameraForward, v1, v2, nLevel );
; 2571 : #endif // CLIENT
; 2572 : }

  00000	c2 0c 00	 ret	 12			; 0000000cH
?RenderItemElec@CModelObject@@QAEXHPBUD3DXMATRIX@@H@Z ENDP ; CModelObject::RenderItemElec
_TEXT	ENDS
PUBLIC	?SetMotionBlending@CModelObject@@QAEXH@Z	; CModelObject::SetMotionBlending
EXTRN	__fltused:NEAR
; Function compile flags: /Ogty
;	COMDAT ?SetMotionBlending@CModelObject@@QAEXH@Z
_TEXT	SEGMENT
_bFlag$ = 8						; size = 4
?SetMotionBlending@CModelObject@@QAEXH@Z PROC NEAR	; CModelObject::SetMotionBlending, COMDAT
; _this$ = ecx

; 2579 : 	if( bFlag == m_bMotionBlending )	return;

  00000	8b 44 24 04	 mov	 eax, DWORD PTR _bFlag$[esp-4]
  00004	3b 81 c0 00 00
	00		 cmp	 eax, DWORD PTR [ecx+192]
  0000a	74 10		 je	 SHORT $L228768

; 2580 : 	m_bMotionBlending = bFlag;

  0000c	89 81 c0 00 00
	00		 mov	 DWORD PTR [ecx+192], eax

; 2581 : 	m_fBlendWeight = 0.0f;

  00012	c7 81 c4 00 00
	00 00 00 00 00	 mov	 DWORD PTR [ecx+196], 0
$L228768:

; 2582 : }

  0001c	c2 04 00	 ret	 4
?SetMotionBlending@CModelObject@@QAEXH@Z ENDP		; CModelObject::SetMotionBlending
_TEXT	ENDS
PUBLIC	?AtlThrow@ATL@@YGXJ@Z				; ATL::AtlThrow
EXTRN	?AfxThrowMemoryException@@YGXXZ:NEAR		; AfxThrowMemoryException
EXTRN	?AfxThrowOleException@@YGXJ@Z:NEAR		; AfxThrowOleException
; Function compile flags: /Ogty
; File c:\program files\microsoft visual studio .net 2003\vc7\atlmfc\include\atlexcept.h
;	COMDAT ?AtlThrow@ATL@@YGXJ@Z
_TEXT	SEGMENT
_hr$ = 8						; size = 4
?AtlThrow@ATL@@YGXJ@Z PROC NEAR				; ATL::AtlThrow, COMDAT

; 62   : 	ATLTRACE(atlTraceException, 0, _T("AtlThrow: hr = 0x%x\n"), hr );
; 63   : #ifdef _AFX
; 64   : 	if( hr == E_OUTOFMEMORY )

  00000	8b 44 24 04	 mov	 eax, DWORD PTR _hr$[esp-4]
  00004	3d 0e 00 07 80	 cmp	 eax, -2147024882	; 8007000eH
  00009	75 05		 jne	 SHORT $L39168

; 65   : 	{
; 66   : 		AfxThrowMemoryException();

  0000b	e8 00 00 00 00	 call	 ?AfxThrowMemoryException@@YGXXZ ; AfxThrowMemoryException
$L230342:
$L39168:

; 67   : 	}
; 68   : 	else
; 69   : 	{
; 70   : 		AfxThrowOleException( hr );

  00010	50		 push	 eax
  00011	e8 00 00 00 00	 call	 ?AfxThrowOleException@@YGXJ@Z ; AfxThrowOleException
$L230343:
$L230341:
  00016	cc		 int	 3
?AtlThrow@ATL@@YGXJ@Z ENDP				; ATL::AtlThrow
_TEXT	ENDS
PUBLIC	?Add@CSwordForce@@QAEXUD3DXVECTOR3@@0@Z		; CSwordForce::Add
PUBLIC	??_C@_0BL@HHHJNEMN@SWDForceAdd?5?3?5?$LJ?$PM?$MA?$KH?5?C?J?$LA?z?5?$CFd?$AA@ ; `string'
EXTRN	?Error@@YAPBDPBDZZ:NEAR				; Error
;	COMDAT ??_C@_0BL@HHHJNEMN@SWDForceAdd?5?3?5?$LJ?$PM?$MA?$KH?5?C?J?$LA?z?5?$CFd?$AA@
; File c:\documents and settings\test\mes documents\source\virtuos_v17\build\program\_common\modelobject.cpp
CONST	SEGMENT
??_C@_0BL@HHHJNEMN@SWDForceAdd?5?3?5?$LJ?$PM?$MA?$KH?5?C?J?$LA?z?5?$CFd?$AA@ DB 'S'
	DB	'WDForceAdd : ', 0b9H, 0fcH, 0c0H, 0a7H, ' ', 0c3H, 0caH, 0b0H
	DB	0faH, ' %d', 00H				; `string'
; Function compile flags: /Ogty
CONST	ENDS
;	COMDAT ?Add@CSwordForce@@QAEXUD3DXVECTOR3@@0@Z
_TEXT	SEGMENT
_v1$ = 8						; size = 12
_v2$ = 20						; size = 12
?Add@CSwordForce@@QAEXUD3DXVECTOR3@@0@Z PROC NEAR	; CSwordForce::Add, COMDAT
; _this$ = ecx

; 2779 : 	if( m_nMaxVertex >= MAX_SF_SWDFORCE )

  00000	8b 01		 mov	 eax, DWORD PTR [ecx]
  00002	3d 00 02 00 00	 cmp	 eax, 512		; 00000200H
  00007	7c 11		 jl	 SHORT $L228863

; 2780 : 	{
; 2781 : 		LPCTSTR szErr = Error( "SWDForceAdd :   %d", m_nMaxVertex );

  00009	50		 push	 eax
  0000a	68 00 00 00 00	 push	 OFFSET FLAT:??_C@_0BL@HHHJNEMN@SWDForceAdd?5?3?5?$LJ?$PM?$MA?$KH?5?C?J?$LA?z?5?$CFd?$AA@
  0000f	e8 00 00 00 00	 call	 ?Error@@YAPBDPBDZZ	; Error
  00014	83 c4 08	 add	 esp, 8

; 2795 : }

  00017	c2 18 00	 ret	 24			; 00000018H
$L228863:

; 2782 : 		ADDERRORMSG( szErr );
; 2783 : 		return;
; 2784 : 	}
; 2785 : 	FVF_SWDFORCE*	pList = &m_aList[ m_nMaxVertex ];

  0001a	40		 inc	 eax
  0001b	c1 e0 04	 shl	 eax, 4
  0001e	56		 push	 esi

; 2786 : 
; 2787 : 	pList->position = v1;

  0001f	8b 74 24 08	 mov	 esi, DWORD PTR _v1$[esp]
  00023	03 c1		 add	 eax, ecx
  00025	8b d0		 mov	 edx, eax
  00027	89 32		 mov	 DWORD PTR [edx], esi
  00029	8b 74 24 0c	 mov	 esi, DWORD PTR _v1$[esp+4]
  0002d	89 72 04	 mov	 DWORD PTR [edx+4], esi
  00030	8b 74 24 10	 mov	 esi, DWORD PTR _v1$[esp+8]
  00034	89 72 08	 mov	 DWORD PTR [edx+8], esi

; 2788 : 	pList->color = 0xffffffff;

  00037	83 ca ff	 or	 edx, -1
  0003a	89 50 0c	 mov	 DWORD PTR [eax+12], edx

; 2789 : 
; 2790 : 	pList = &m_aList2[ m_nMaxVertex ];

  0003d	8b 01		 mov	 eax, DWORD PTR [ecx]
  0003f	05 01 02 00 00	 add	 eax, 513		; 00000201H
  00044	c1 e0 04	 shl	 eax, 4
  00047	57		 push	 edi

; 2791 : 	pList->position = v2;

  00048	8b 7c 24 18	 mov	 edi, DWORD PTR _v2$[esp+4]
  0004c	03 c1		 add	 eax, ecx
  0004e	8b f0		 mov	 esi, eax
  00050	89 3e		 mov	 DWORD PTR [esi], edi
  00052	8b 7c 24 1c	 mov	 edi, DWORD PTR _v2$[esp+8]
  00056	89 7e 04	 mov	 DWORD PTR [esi+4], edi
  00059	8b 7c 24 20	 mov	 edi, DWORD PTR _v2$[esp+12]
  0005d	89 7e 08	 mov	 DWORD PTR [esi+8], edi

; 2792 : 	pList->color = 0xffffffff;

  00060	89 50 0c	 mov	 DWORD PTR [eax+12], edx

; 2793 : 
; 2794 : 	m_nMaxVertex ++;

  00063	8b 01		 mov	 eax, DWORD PTR [ecx]
  00065	40		 inc	 eax
  00066	5f		 pop	 edi
  00067	89 01		 mov	 DWORD PTR [ecx], eax
  00069	5e		 pop	 esi

; 2795 : }

  0006a	c2 18 00	 ret	 24			; 00000018H
?Add@CSwordForce@@QAEXUD3DXVECTOR3@@0@Z ENDP		; CSwordForce::Add
_TEXT	ENDS
PUBLIC	?Process@CSwordForce@@QAEXXZ			; CSwordForce::Process
; Function compile flags: /Ogty
;	COMDAT ?Process@CSwordForce@@QAEXXZ
_TEXT	SEGMENT
_nRed1$ = -12						; size = 4
_nGreen1$ = -8						; size = 4
_i$ = -4						; size = 4
?Process@CSwordForce@@QAEXXZ PROC NEAR			; CSwordForce::Process, COMDAT
; _this$ = ecx

; 2838 : {

  00000	83 ec 0c	 sub	 esp, 12			; 0000000cH

; 2839 : 	FVF_SWDFORCE *pList = m_aSpline;
; 2840 : 	int		i;
; 2841 : 	int		nRed1 =  0;
; 2842 : 	int		nGreen1 =  0;
; 2843 : 	int		nBlue1 =   0;
; 2844 : 	int		nRed2 = (m_dwColor >> 16) & 0xff;
; 2845 : 	int		nGreen2 = (m_dwColor >> 8) & 0xff;
; 2846 : 	int		nBlue2 = m_dwColor & 0xff;

  00003	8b 41 0c	 mov	 eax, DWORD PTR [ecx+12]

; 2847 : 
; 2848 : 	if( m_nMaxSpline == 0 )		return;

  00006	8b 51 04	 mov	 edx, DWORD PTR [ecx+4]
  00009	55		 push	 ebp
  0000a	33 ed		 xor	 ebp, ebp
  0000c	56		 push	 esi
  0000d	0f b6 71 0d	 movzx	 esi, BYTE PTR [ecx+13]
  00011	25 ff 00 00 00	 and	 eax, 255		; 000000ffH
  00016	3b d5		 cmp	 edx, ebp
  00018	57		 push	 edi
  00019	0f b6 79 0e	 movzx	 edi, BYTE PTR [ecx+14]
  0001d	89 6c 24 0c	 mov	 DWORD PTR _nRed1$[esp+24], ebp
  00021	89 6c 24 10	 mov	 DWORD PTR _nGreen1$[esp+24], ebp
  00025	0f 84 b5 00 00
	00		 je	 $L228912

; 2849 : 
; 2850 : 	for( i = m_nMaxDraw - 1; i >= 0; i -- )

  0002b	8b 51 08	 mov	 edx, DWORD PTR [ecx+8]
  0002e	4a		 dec	 edx
  0002f	89 54 24 14	 mov	 DWORD PTR _i$[esp+24], edx
  00033	0f 88 a7 00 00
	00		 js	 $L228912
  00039	53		 push	 ebx
  0003a	8b da		 mov	 ebx, edx
  0003c	c1 e3 04	 shl	 ebx, 4
  0003f	8d 8c 0b 1c 40
	00 00		 lea	 ecx, DWORD PTR [ebx+ecx+16412]
$L230352:

; 2851 : 	{
; 2852 : 		if( i % 2 )

  00046	f6 c2 01	 test	 dl, 1
  00049	74 1d		 je	 SHORT $L228913

; 2853 : 			pList[i].color = D3DCOLOR_ARGB( 255, nRed1, nGreen1, nBlue1 ); 

  0004b	8b 54 24 10	 mov	 edx, DWORD PTR _nRed1$[esp+28]
  0004f	8b 5c 24 14	 mov	 ebx, DWORD PTR _nGreen1$[esp+28]
  00053	81 ca 00 ff ff
	ff		 or	 edx, -256		; ffffff00H
  00059	81 e3 ff 00 00
	00		 and	 ebx, 255		; 000000ffH
  0005f	c1 e2 08	 shl	 edx, 8
  00062	0b d3		 or	 edx, ebx
  00064	8b dd		 mov	 ebx, ebp

; 2854 : 		else

  00066	eb 17		 jmp	 SHORT $L230359
$L228913:

; 2855 : 			pList[i].color = D3DCOLOR_ARGB( 255, nRed2, nGreen2, nBlue2 ); 

  00068	8b d7		 mov	 edx, edi
  0006a	81 ca 00 ff ff
	ff		 or	 edx, -256		; ffffff00H
  00070	8b de		 mov	 ebx, esi
  00072	81 e3 ff 00 00
	00		 and	 ebx, 255		; 000000ffH
  00078	c1 e2 08	 shl	 edx, 8
  0007b	0b d3		 or	 edx, ebx
  0007d	8b d8		 mov	 ebx, eax
$L230359:
  0007f	c1 e2 08	 shl	 edx, 8
  00082	81 e3 ff 00 00
	00		 and	 ebx, 255		; 000000ffH
  00088	0b d3		 or	 edx, ebx

; 2856 : 		
; 2857 : 		nRed1   -= 3; if( nRed1   < 0 )	nRed1   = 0;

  0008a	8b 5c 24 10	 mov	 ebx, DWORD PTR _nRed1$[esp+28]
  0008e	89 11		 mov	 DWORD PTR [ecx], edx
  00090	ba 03 00 00 00	 mov	 edx, 3
  00095	2b da		 sub	 ebx, edx
  00097	89 5c 24 10	 mov	 DWORD PTR _nRed1$[esp+28], ebx
  0009b	79 08		 jns	 SHORT $L230353
  0009d	c7 44 24 10 00
	00 00 00	 mov	 DWORD PTR _nRed1$[esp+28], 0
$L230353:

; 2858 : 		nGreen1 -= 3; if( nGreen1 < 0 ) nGreen1 = 0;

  000a5	29 54 24 14	 sub	 DWORD PTR _nGreen1$[esp+28], edx
  000a9	79 08		 jns	 SHORT $L230354
  000ab	c7 44 24 14 00
	00 00 00	 mov	 DWORD PTR _nGreen1$[esp+28], 0
$L230354:

; 2859 : 		nBlue1  -= 3; if( nBlue1  < 0 )	nBlue1  = 0;

  000b3	2b ea		 sub	 ebp, edx
  000b5	79 02		 jns	 SHORT $L230355
  000b7	33 ed		 xor	 ebp, ebp
$L230355:

; 2860 : 
; 2861 : 		nRed2   -= 3; if( nRed2   < 0 )	nRed2   = 0;

  000b9	2b fa		 sub	 edi, edx
  000bb	79 02		 jns	 SHORT $L230356
  000bd	33 ff		 xor	 edi, edi
$L230356:

; 2862 : 		nGreen2 -= 3; if( nGreen2 < 0 ) nGreen2 = 0;

  000bf	2b f2		 sub	 esi, edx
  000c1	79 02		 jns	 SHORT $L230357
  000c3	33 f6		 xor	 esi, esi
$L230357:

; 2863 : 		nBlue2  -= 3; if( nBlue2  < 0 )	nBlue2  = 0;

  000c5	2b c2		 sub	 eax, edx
  000c7	79 02		 jns	 SHORT $L228911
  000c9	33 c0		 xor	 eax, eax
$L228911:

; 2849 : 
; 2850 : 	for( i = m_nMaxDraw - 1; i >= 0; i -- )

  000cb	8b 54 24 18	 mov	 edx, DWORD PTR _i$[esp+28]
  000cf	4a		 dec	 edx
  000d0	83 e9 10	 sub	 ecx, 16			; 00000010H
  000d3	85 d2		 test	 edx, edx
  000d5	89 54 24 18	 mov	 DWORD PTR _i$[esp+28], edx
  000d9	0f 8d 67 ff ff
	ff		 jge	 $L230352
  000df	5b		 pop	 ebx
$L228912:
  000e0	5f		 pop	 edi
  000e1	5e		 pop	 esi
  000e2	5d		 pop	 ebp

; 2864 : 	}
; 2865 : 
; 2866 : }

  000e3	83 c4 0c	 add	 esp, 12			; 0000000cH
  000e6	c3		 ret	 0
?Process@CSwordForce@@QAEXXZ ENDP			; CSwordForce::Process
_TEXT	ENDS
PUBLIC	?Draw@CSwordForce@@QAEXPAUIDirect3DDevice9@@PBUD3DXMATRIX@@@Z ; CSwordForce::Draw
; Function compile flags: /Ogty
;	COMDAT ?Draw@CSwordForce@@QAEXPAUIDirect3DDevice9@@PBUD3DXMATRIX@@@Z
_TEXT	SEGMENT
_pd3dDevice$ = 8					; size = 4
_mWorld$ = 12						; size = 4
?Draw@CSwordForce@@QAEXPAUIDirect3DDevice9@@PBUD3DXMATRIX@@@Z PROC NEAR ; CSwordForce::Draw, COMDAT
; _this$ = ecx

; 2872 : {

  00000	53		 push	 ebx
  00001	55		 push	 ebp
  00002	56		 push	 esi

; 2873 : 	pd3dDevice->SetTransform( D3DTS_WORLD, mWorld );

  00003	8b 74 24 10	 mov	 esi, DWORD PTR _pd3dDevice$[esp+8]
  00007	8b 06		 mov	 eax, DWORD PTR [esi]
  00009	57		 push	 edi
  0000a	8b d9		 mov	 ebx, ecx
  0000c	8b 4c 24 18	 mov	 ecx, DWORD PTR _mWorld$[esp+12]
  00010	51		 push	 ecx
  00011	68 00 01 00 00	 push	 256			; 00000100H
  00016	56		 push	 esi
  00017	ff 90 b0 00 00
	00		 call	 DWORD PTR [eax+176]

; 2874 : 	pd3dDevice->SetVertexShader( NULL );

  0001d	8b 16		 mov	 edx, DWORD PTR [esi]
  0001f	6a 00		 push	 0
  00021	56		 push	 esi
  00022	ff 92 70 01 00
	00		 call	 DWORD PTR [edx+368]

; 2875 : 	pd3dDevice->SetFVF( D3DFVF_SWDFORCE );

  00028	8b 06		 mov	 eax, DWORD PTR [esi]
  0002a	6a 42		 push	 66			; 00000042H
  0002c	56		 push	 esi
  0002d	ff 90 64 01 00
	00		 call	 DWORD PTR [eax+356]

; 2876 : 
; 2877 :     pd3dDevice->SetRenderState( D3DRS_CULLMODE, D3DCULL_NONE );

  00033	8b 0e		 mov	 ecx, DWORD PTR [esi]
  00035	6a 01		 push	 1
  00037	6a 16		 push	 22			; 00000016H
  00039	56		 push	 esi
  0003a	ff 91 e4 00 00
	00		 call	 DWORD PTR [ecx+228]

; 2878 : 	pd3dDevice->SetTextureStageState( 0, D3DTSS_COLOROP,   D3DTOP_SELECTARG1 );

  00040	8b 16		 mov	 edx, DWORD PTR [esi]
  00042	6a 02		 push	 2
  00044	6a 01		 push	 1
  00046	6a 00		 push	 0
  00048	56		 push	 esi
  00049	ff 92 0c 01 00
	00		 call	 DWORD PTR [edx+268]

; 2879 : 	pd3dDevice->SetTextureStageState( 0, D3DTSS_COLORARG1, D3DTA_DIFFUSE );

  0004f	8b 06		 mov	 eax, DWORD PTR [esi]
  00051	6a 00		 push	 0
  00053	6a 02		 push	 2
  00055	6a 00		 push	 0
  00057	56		 push	 esi
  00058	ff 90 0c 01 00
	00		 call	 DWORD PTR [eax+268]

; 2880 : 
; 2881 : 	pd3dDevice->SetRenderState( D3DRS_ALPHABLENDENABLE,   TRUE );

  0005e	8b 0e		 mov	 ecx, DWORD PTR [esi]
  00060	6a 01		 push	 1
  00062	6a 1b		 push	 27			; 0000001bH
  00064	56		 push	 esi
  00065	ff 91 e4 00 00
	00		 call	 DWORD PTR [ecx+228]

; 2882 : 	pd3dDevice->SetRenderState( D3DRS_SRCBLEND,  D3DBLEND_ONE   );

  0006b	8b 16		 mov	 edx, DWORD PTR [esi]
  0006d	6a 02		 push	 2
  0006f	6a 13		 push	 19			; 00000013H
  00071	56		 push	 esi
  00072	ff 92 e4 00 00
	00		 call	 DWORD PTR [edx+228]

; 2883 : 	pd3dDevice->SetRenderState( D3DRS_DESTBLEND, D3DBLEND_ONE   );

  00078	8b 06		 mov	 eax, DWORD PTR [esi]
  0007a	6a 02		 push	 2
  0007c	6a 14		 push	 20			; 00000014H
  0007e	56		 push	 esi
  0007f	ff 90 e4 00 00
	00		 call	 DWORD PTR [eax+228]

; 2884 : 	pd3dDevice->SetTextureStageState( 0, D3DTSS_ALPHAOP,   D3DTOP_DISABLE );

  00085	8b 0e		 mov	 ecx, DWORD PTR [esi]
  00087	6a 01		 push	 1
  00089	6a 04		 push	 4
  0008b	6a 00		 push	 0
  0008d	56		 push	 esi
  0008e	ff 91 0c 01 00
	00		 call	 DWORD PTR [ecx+268]

; 2885 : 	pd3dDevice->SetTextureStageState( 0, D3DTSS_ALPHAARG1, D3DTA_DIFFUSE);

  00094	8b 16		 mov	 edx, DWORD PTR [esi]
  00096	6a 00		 push	 0
  00098	6a 05		 push	 5
  0009a	6a 00		 push	 0
  0009c	56		 push	 esi
  0009d	ff 92 0c 01 00
	00		 call	 DWORD PTR [edx+268]

; 2886 :     pd3dDevice->SetRenderState( D3DRS_LIGHTING, FALSE );

  000a3	8b 06		 mov	 eax, DWORD PTR [esi]
  000a5	6a 00		 push	 0
  000a7	68 89 00 00 00	 push	 137			; 00000089H
  000ac	56		 push	 esi
  000ad	ff 90 e4 00 00
	00		 call	 DWORD PTR [eax+228]

; 2887 : 
; 2888 : 
; 2889 : 	pd3dDevice->SetRenderState( D3DRS_ZWRITEENABLE, FALSE );

  000b3	8b 0e		 mov	 ecx, DWORD PTR [esi]
  000b5	6a 00		 push	 0
  000b7	6a 0e		 push	 14			; 0000000eH
  000b9	56		 push	 esi
  000ba	ff 91 e4 00 00
	00		 call	 DWORD PTR [ecx+228]

; 2890 : 
; 2891 : 	{
; 2892 : 		int		nShare, nRest;
; 2893 : 		int		i;
; 2894 : 		FVF_SWDFORCE *p = m_aSpline;
; 2895 : 		int		nMaxDraw = m_nMaxDraw;
; 2896 : 
; 2897 : 		nMaxDraw -= 2;

  000c0	8b 4b 08	 mov	 ecx, DWORD PTR [ebx+8]
  000c3	83 e9 02	 sub	 ecx, 2

; 2898 : 		nShare = nMaxDraw / 64;

  000c6	8b c1		 mov	 eax, ecx
  000c8	99		 cdq
  000c9	83 e2 3f	 and	 edx, 63			; 0000003fH
  000cc	8d bb 10 40 00
	00		 lea	 edi, DWORD PTR [ebx+16400]
  000d2	03 c2		 add	 eax, edx
  000d4	c1 f8 06	 sar	 eax, 6

; 2899 : 		nRest  = nMaxDraw % 64;

  000d7	81 e1 3f 00 00
	80		 and	 ecx, -2147483585	; 8000003fH
  000dd	79 05		 jns	 SHORT $L230365
  000df	49		 dec	 ecx
  000e0	83 c9 c0	 or	 ecx, -64		; ffffffc0H
  000e3	41		 inc	 ecx
$L230365:

; 2900 : 		for( i = 0; i < nShare; i ++ )			//      .

  000e4	85 c0		 test	 eax, eax
  000e6	8b e9		 mov	 ebp, ecx
  000e8	7e 1f		 jle	 SHORT $L228936

; 2873 : 	pd3dDevice->SetTransform( D3DTS_WORLD, mWorld );

  000ea	8b d8		 mov	 ebx, eax
  000ec	8d 64 24 00	 npad	 4
$L228934:

; 2901 : 		{
; 2902 : 			pd3dDevice->DrawPrimitiveUP( D3DPT_TRIANGLESTRIP, 64, p, sizeof(FVF_SWDFORCE) );

  000f0	8b 16		 mov	 edx, DWORD PTR [esi]
  000f2	6a 10		 push	 16			; 00000010H
  000f4	57		 push	 edi
  000f5	6a 40		 push	 64			; 00000040H
  000f7	6a 05		 push	 5
  000f9	56		 push	 esi
  000fa	ff 92 4c 01 00
	00		 call	 DWORD PTR [edx+332]

; 2903 : 			p += 64;

  00100	81 c7 00 04 00
	00		 add	 edi, 1024		; 00000400H
  00106	4b		 dec	 ebx
  00107	75 e7		 jne	 SHORT $L228934
$L228936:

; 2904 : 		}
; 2905 : 
; 2906 : 		if( nRest > 0 )

  00109	85 ed		 test	 ebp, ebp
  0010b	7e 0f		 jle	 SHORT $L228938

; 2907 : 			pd3dDevice->DrawPrimitiveUP( D3DPT_TRIANGLESTRIP, nRest, p, sizeof(FVF_SWDFORCE) );

  0010d	8b 06		 mov	 eax, DWORD PTR [esi]
  0010f	6a 10		 push	 16			; 00000010H
  00111	57		 push	 edi
  00112	55		 push	 ebp
  00113	6a 05		 push	 5
  00115	56		 push	 esi
  00116	ff 90 4c 01 00
	00		 call	 DWORD PTR [eax+332]
$L228938:

; 2908 : 
; 2909 : 	}
; 2910 : 
; 2911 : 	pd3dDevice->SetRenderState( D3DRS_ZWRITEENABLE, TRUE );

  0011c	8b 0e		 mov	 ecx, DWORD PTR [esi]
  0011e	6a 01		 push	 1
  00120	6a 0e		 push	 14			; 0000000eH
  00122	56		 push	 esi
  00123	ff 91 e4 00 00
	00		 call	 DWORD PTR [ecx+228]

; 2912 : 	pd3dDevice->SetRenderState( D3DRS_ALPHABLENDENABLE,   FALSE );

  00129	8b 16		 mov	 edx, DWORD PTR [esi]
  0012b	6a 00		 push	 0
  0012d	6a 1b		 push	 27			; 0000001bH
  0012f	56		 push	 esi
  00130	ff 92 e4 00 00
	00		 call	 DWORD PTR [edx+228]

; 2913 :     pd3dDevice->SetRenderState( D3DRS_CULLMODE, D3DCULL_CCW );

  00136	8b 06		 mov	 eax, DWORD PTR [esi]
  00138	6a 03		 push	 3
  0013a	6a 16		 push	 22			; 00000016H
  0013c	56		 push	 esi
  0013d	ff 90 e4 00 00
	00		 call	 DWORD PTR [eax+228]

; 2914 :     pd3dDevice->SetRenderState( D3DRS_LIGHTING, TRUE );

  00143	8b 0e		 mov	 ecx, DWORD PTR [esi]
  00145	6a 01		 push	 1
  00147	68 89 00 00 00	 push	 137			; 00000089H
  0014c	56		 push	 esi
  0014d	ff 91 e4 00 00
	00		 call	 DWORD PTR [ecx+228]
  00153	5f		 pop	 edi
  00154	5e		 pop	 esi
  00155	5d		 pop	 ebp
  00156	5b		 pop	 ebx

; 2915 : 
; 2916 : }

  00157	c2 08 00	 ret	 8
?Draw@CSwordForce@@QAEXPAUIDirect3DDevice9@@PBUD3DXMATRIX@@@Z ENDP ; CSwordForce::Draw
_TEXT	ENDS
PUBLIC	?data@CStringData@ATL@@QAEPAXXZ			; ATL::CStringData::data
; Function compile flags: /Ogty
; File c:\program files\microsoft visual studio .net 2003\vc7\atlmfc\include\atlsimpstr.h
;	COMDAT ?data@CStringData@ATL@@QAEPAXXZ
_TEXT	SEGMENT
?data@CStringData@ATL@@QAEPAXXZ PROC NEAR		; ATL::CStringData::data, COMDAT
; _this$ = ecx

; 66   : 		return (this+1);

  00000	8d 41 10	 lea	 eax, DWORD PTR [ecx+16]

; 67   : 	}

  00003	c3		 ret	 0
?data@CStringData@ATL@@QAEPAXXZ ENDP			; ATL::CStringData::data
_TEXT	ENDS
PUBLIC	?AddRef@CStringData@ATL@@QAEXXZ			; ATL::CStringData::AddRef
; Function compile flags: /Ogty
;	COMDAT ?AddRef@CStringData@ATL@@QAEXXZ
_TEXT	SEGMENT
?AddRef@CStringData@ATL@@QAEXXZ PROC NEAR		; ATL::CStringData::AddRef, COMDAT
; _this$ = ecx

; 71   : 		ATLASSERT(nRefs > 0);
; 72   : 		_InterlockedIncrement(&nRefs);

  00000	83 c1 0c	 add	 ecx, 12			; 0000000cH
  00003	b8 01 00 00 00	 mov	 eax, 1
  00008	f0 0f c1 01	 lock	  xadd	 DWORD PTR [ecx], eax

; 73   : 	}

  0000c	c3		 ret	 0
?AddRef@CStringData@ATL@@QAEXXZ ENDP			; ATL::CStringData::AddRef
_TEXT	ENDS
PUBLIC	?IsLocked@CStringData@ATL@@QBE_NXZ		; ATL::CStringData::IsLocked
; Function compile flags: /Ogty
;	COMDAT ?IsLocked@CStringData@ATL@@QBE_NXZ
_TEXT	SEGMENT
?IsLocked@CStringData@ATL@@QBE_NXZ PROC NEAR		; ATL::CStringData::IsLocked, COMDAT
; _this$ = ecx

; 76   : 		return nRefs < 0;

  00000	8b 51 0c	 mov	 edx, DWORD PTR [ecx+12]
  00003	33 c0		 xor	 eax, eax
  00005	85 d2		 test	 edx, edx
  00007	0f 9c c0	 setl	 al

; 77   : 	}

  0000a	c3		 ret	 0
?IsLocked@CStringData@ATL@@QBE_NXZ ENDP			; ATL::CStringData::IsLocked
_TEXT	ENDS
PUBLIC	?IsShared@CStringData@ATL@@QBE_NXZ		; ATL::CStringData::IsShared
; Function compile flags: /Ogty
;	COMDAT ?IsShared@CStringData@ATL@@QBE_NXZ
_TEXT	SEGMENT
?IsShared@CStringData@ATL@@QBE_NXZ PROC NEAR		; ATL::CStringData::IsShared, COMDAT
; _this$ = ecx

; 80   : 		return( nRefs > 1 ); 

  00000	8b 51 0c	 mov	 edx, DWORD PTR [ecx+12]
  00003	33 c0		 xor	 eax, eax
  00005	83 fa 01	 cmp	 edx, 1
  00008	0f 9f c0	 setg	 al

; 81   : 	}

  0000b	c3		 ret	 0
?IsShared@CStringData@ATL@@QBE_NXZ ENDP			; ATL::CStringData::IsShared
_TEXT	ENDS
PUBLIC	?Release@CStringData@ATL@@QAEXXZ		; ATL::CStringData::Release
; Function compile flags: /Ogty
;	COMDAT ?Release@CStringData@ATL@@QAEXXZ
_TEXT	SEGMENT
?Release@CStringData@ATL@@QAEXXZ PROC NEAR		; ATL::CStringData::Release, COMDAT
; _this$ = ecx

; 93   : 		ATLASSERT( nRefs != 0 );
; 94   : 
; 95   : 		if( _InterlockedDecrement( &nRefs ) <= 0 )

  00000	8d 41 0c	 lea	 eax, DWORD PTR [ecx+12]
  00003	83 ca ff	 or	 edx, -1
  00006	f0 0f c1 10	 lock	  xadd	 DWORD PTR [eax], edx
  0000a	4a		 dec	 edx
  0000b	85 d2		 test	 edx, edx
  0000d	7f 0a		 jg	 SHORT $L39885

; 96   : 		{
; 97   : 			pStringMgr->Free( this );

  0000f	8b 01		 mov	 eax, DWORD PTR [ecx]
  00011	8b 10		 mov	 edx, DWORD PTR [eax]
  00013	51		 push	 ecx
  00014	8b c8		 mov	 ecx, eax
  00016	ff 52 04	 call	 DWORD PTR [edx+4]
$L39885:

; 98   : 		}
; 99   : 	}

  00019	c3		 ret	 0
?Release@CStringData@ATL@@QAEXXZ ENDP			; ATL::CStringData::Release
_TEXT	ENDS
PUBLIC	??0D3DXVECTOR3@@QAE@XZ				; D3DXVECTOR3::D3DXVECTOR3
; Function compile flags: /Ogty
; File c:\documents and settings\test\mes documents\source\virtuos_v17\build\program\dx_sdk\d3dx9math.h
;	COMDAT ??0D3DXVECTOR3@@QAE@XZ
_TEXT	SEGMENT
??0D3DXVECTOR3@@QAE@XZ PROC NEAR			; D3DXVECTOR3::D3DXVECTOR3, COMDAT
; _this$ = ecx

; 165  :     D3DXVECTOR3() {};

  00000	8b c1		 mov	 eax, ecx
  00002	c3		 ret	 0
??0D3DXVECTOR3@@QAE@XZ ENDP				; D3DXVECTOR3::D3DXVECTOR3
_TEXT	ENDS
PUBLIC	??0D3DXMATRIX@@QAE@XZ				; D3DXMATRIX::D3DXMATRIX
; Function compile flags: /Ogty
;	COMDAT ??0D3DXMATRIX@@QAE@XZ
_TEXT	SEGMENT
??0D3DXMATRIX@@QAE@XZ PROC NEAR				; D3DXMATRIX::D3DXMATRIX, COMDAT
; _this$ = ecx

; 313  :     D3DXMATRIX() {};

  00000	8b c1		 mov	 eax, ecx
  00002	c3		 ret	 0
??0D3DXMATRIX@@QAE@XZ ENDP				; D3DXMATRIX::D3DXMATRIX
_TEXT	ENDS
PUBLIC	??0D3DXVECTOR3@@QAE@MMM@Z			; D3DXVECTOR3::D3DXVECTOR3
; Function compile flags: /Ogty
; File c:\documents and settings\test\mes documents\source\virtuos_v17\build\program\dx_sdk\d3dx9math.inl
;	COMDAT ??0D3DXVECTOR3@@QAE@MMM@Z
_TEXT	SEGMENT
_fx$ = 8						; size = 4
_fy$ = 12						; size = 4
_fz$ = 16						; size = 4
??0D3DXVECTOR3@@QAE@MMM@Z PROC NEAR			; D3DXVECTOR3::D3DXVECTOR3, COMDAT
; _this$ = ecx

; 300  :     x = fx;
; 301  :     y = fy;

  00000	8b 54 24 08	 mov	 edx, DWORD PTR _fy$[esp-4]
  00004	8b c1		 mov	 eax, ecx
  00006	8b 4c 24 04	 mov	 ecx, DWORD PTR _fx$[esp-4]
  0000a	89 08		 mov	 DWORD PTR [eax], ecx

; 302  :     z = fz;

  0000c	8b 4c 24 0c	 mov	 ecx, DWORD PTR _fz$[esp-4]
  00010	89 50 04	 mov	 DWORD PTR [eax+4], edx
  00013	89 48 08	 mov	 DWORD PTR [eax+8], ecx

; 303  : }

  00016	c2 0c 00	 ret	 12			; 0000000cH
??0D3DXVECTOR3@@QAE@MMM@Z ENDP				; D3DXVECTOR3::D3DXVECTOR3
_TEXT	ENDS
PUBLIC	??HD3DXVECTOR3@@QBE?AU0@ABU0@@Z			; D3DXVECTOR3::operator+
; Function compile flags: /Ogty
;	COMDAT ??HD3DXVECTOR3@@QBE?AU0@ABU0@@Z
_TEXT	SEGMENT
___$ReturnUdt$ = 8					; size = 4
_v$ = 12						; size = 4
??HD3DXVECTOR3@@QBE?AU0@ABU0@@Z PROC NEAR		; D3DXVECTOR3::operator+, COMDAT
; _this$ = ecx

; 377  :     return D3DXVECTOR3(x + v.x, y + v.y, z + v.z);

  00000	8b 44 24 08	 mov	 eax, DWORD PTR _v$[esp-4]
  00004	d9 40 08	 fld	 DWORD PTR [eax+8]
  00007	d8 41 08	 fadd	 DWORD PTR [ecx+8]
  0000a	d9 40 04	 fld	 DWORD PTR [eax+4]
  0000d	d8 41 04	 fadd	 DWORD PTR [ecx+4]
  00010	d9 00		 fld	 DWORD PTR [eax]
  00012	8b 44 24 04	 mov	 eax, DWORD PTR ___$ReturnUdt$[esp-4]
  00016	d8 01		 fadd	 DWORD PTR [ecx]
  00018	d9 18		 fstp	 DWORD PTR [eax]
  0001a	d9 58 04	 fstp	 DWORD PTR [eax+4]
  0001d	d9 58 08	 fstp	 DWORD PTR [eax+8]

; 378  : }

  00020	c2 08 00	 ret	 8
??HD3DXVECTOR3@@QBE?AU0@ABU0@@Z ENDP			; D3DXVECTOR3::operator+
_TEXT	ENDS
PUBLIC	??GD3DXVECTOR3@@QBE?AU0@ABU0@@Z			; D3DXVECTOR3::operator-
; Function compile flags: /Ogty
;	COMDAT ??GD3DXVECTOR3@@QBE?AU0@ABU0@@Z
_TEXT	SEGMENT
___$ReturnUdt$ = 8					; size = 4
_v$ = 12						; size = 4
??GD3DXVECTOR3@@QBE?AU0@ABU0@@Z PROC NEAR		; D3DXVECTOR3::operator-, COMDAT
; _this$ = ecx

; 383  :     return D3DXVECTOR3(x - v.x, y - v.y, z - v.z);

  00000	d9 41 08	 fld	 DWORD PTR [ecx+8]
  00003	8b 44 24 08	 mov	 eax, DWORD PTR _v$[esp-4]
  00007	d8 60 08	 fsub	 DWORD PTR [eax+8]
  0000a	d9 41 04	 fld	 DWORD PTR [ecx+4]
  0000d	d8 60 04	 fsub	 DWORD PTR [eax+4]
  00010	d9 01		 fld	 DWORD PTR [ecx]
  00012	d8 20		 fsub	 DWORD PTR [eax]
  00014	8b 44 24 04	 mov	 eax, DWORD PTR ___$ReturnUdt$[esp-4]
  00018	d9 18		 fstp	 DWORD PTR [eax]
  0001a	d9 58 04	 fstp	 DWORD PTR [eax+4]
  0001d	d9 58 08	 fstp	 DWORD PTR [eax+8]

; 384  : }

  00020	c2 08 00	 ret	 8
??GD3DXVECTOR3@@QBE?AU0@ABU0@@Z ENDP			; D3DXVECTOR3::operator-
_TEXT	ENDS
PUBLIC	??D@YA?AUD3DXVECTOR3@@MABU0@@Z			; operator*
; Function compile flags: /Ogty
;	COMDAT ??D@YA?AUD3DXVECTOR3@@MABU0@@Z
_TEXT	SEGMENT
___$ReturnUdt$ = 8					; size = 4
_f$ = 12						; size = 4
_v$ = 16						; size = 4
??D@YA?AUD3DXVECTOR3@@MABU0@@Z PROC NEAR		; operator*, COMDAT

; 403  :     return D3DXVECTOR3(f * v.x, f * v.y, f * v.z);

  00000	8b 44 24 0c	 mov	 eax, DWORD PTR _v$[esp-4]
  00004	d9 44 24 08	 fld	 DWORD PTR _f$[esp-4]
  00008	d8 48 08	 fmul	 DWORD PTR [eax+8]
  0000b	d9 44 24 08	 fld	 DWORD PTR _f$[esp-4]
  0000f	d8 48 04	 fmul	 DWORD PTR [eax+4]
  00012	d9 44 24 08	 fld	 DWORD PTR _f$[esp-4]
  00016	d8 08		 fmul	 DWORD PTR [eax]
  00018	8b 44 24 04	 mov	 eax, DWORD PTR ___$ReturnUdt$[esp-4]
  0001c	d9 18		 fstp	 DWORD PTR [eax]
  0001e	d9 58 04	 fstp	 DWORD PTR [eax+4]
  00021	d9 58 08	 fstp	 DWORD PTR [eax+8]

; 404  : }

  00024	c3		 ret	 0
??D@YA?AUD3DXVECTOR3@@MABU0@@Z ENDP			; operator*
_TEXT	ENDS
PUBLIC	?D3DXMatrixIdentity@@YAPAUD3DXMATRIX@@PAU1@@Z	; D3DXMatrixIdentity
; Function compile flags: /Ogty
;	COMDAT ?D3DXMatrixIdentity@@YAPAUD3DXMATRIX@@PAU1@@Z
_TEXT	SEGMENT
_pOut$ = 8						; size = 4
?D3DXMatrixIdentity@@YAPAUD3DXMATRIX@@PAU1@@Z PROC NEAR	; D3DXMatrixIdentity, COMDAT

; 1956 : #ifdef D3DX_DEBUG
; 1957 :     if(!pOut)
; 1958 :         return NULL;
; 1959 : #endif
; 1960 : 
; 1961 :     pOut->m[0][1] = pOut->m[0][2] = pOut->m[0][3] =
; 1962 :     pOut->m[1][0] = pOut->m[1][2] = pOut->m[1][3] =
; 1963 :     pOut->m[2][0] = pOut->m[2][1] = pOut->m[2][3] =
; 1964 :     pOut->m[3][0] = pOut->m[3][1] = pOut->m[3][2] = 0.0f;

  00000	8b 44 24 04	 mov	 eax, DWORD PTR _pOut$[esp-4]
  00004	33 c9		 xor	 ecx, ecx
  00006	89 48 38	 mov	 DWORD PTR [eax+56], ecx
  00009	89 48 34	 mov	 DWORD PTR [eax+52], ecx
  0000c	89 48 30	 mov	 DWORD PTR [eax+48], ecx
  0000f	89 48 2c	 mov	 DWORD PTR [eax+44], ecx
  00012	89 48 24	 mov	 DWORD PTR [eax+36], ecx
  00015	89 48 20	 mov	 DWORD PTR [eax+32], ecx
  00018	89 48 1c	 mov	 DWORD PTR [eax+28], ecx
  0001b	89 48 18	 mov	 DWORD PTR [eax+24], ecx
  0001e	89 48 10	 mov	 DWORD PTR [eax+16], ecx
  00021	89 48 0c	 mov	 DWORD PTR [eax+12], ecx
  00024	89 48 08	 mov	 DWORD PTR [eax+8], ecx
  00027	89 48 04	 mov	 DWORD PTR [eax+4], ecx

; 1965 : 
; 1966 :     pOut->m[0][0] = pOut->m[1][1] = pOut->m[2][2] = pOut->m[3][3] = 1.0f;

  0002a	b9 00 00 80 3f	 mov	 ecx, 1065353216		; 3f800000H
  0002f	89 48 3c	 mov	 DWORD PTR [eax+60], ecx
  00032	89 48 28	 mov	 DWORD PTR [eax+40], ecx
  00035	89 48 14	 mov	 DWORD PTR [eax+20], ecx
  00038	89 08		 mov	 DWORD PTR [eax], ecx

; 1967 :     return pOut;
; 1968 : }

  0003a	c3		 ret	 0
?D3DXMatrixIdentity@@YAPAUD3DXMATRIX@@PAU1@@Z ENDP	; D3DXMatrixIdentity
_TEXT	ENDS
PUBLIC	??_H@YGXPAXIHP6EPAX0@Z@Z			; `vector constructor iterator'
; Function compile flags: /Ogty
;	COMDAT ??_H@YGXPAXIHP6EPAX0@Z@Z
_TEXT	SEGMENT
___t$ = 8						; size = 4
___s$ = 12						; size = 4
___n$ = 16						; size = 4
___f$ = 20						; size = 4
??_H@YGXPAXIHP6EPAX0@Z@Z PROC NEAR			; `vector constructor iterator', COMDAT
  00000	8b 44 24 0c	 mov	 eax, DWORD PTR ___n$[esp-4]
  00004	48		 dec	 eax
  00005	78 26		 js	 SHORT $L171564
  00007	53		 push	 ebx
  00008	8b 5c 24 14	 mov	 ebx, DWORD PTR ___f$[esp]
  0000c	55		 push	 ebp
  0000d	8b 6c 24 10	 mov	 ebp, DWORD PTR ___s$[esp+4]
  00011	56		 push	 esi
  00012	8b 74 24 10	 mov	 esi, DWORD PTR ___t$[esp+8]
  00016	57		 push	 edi
  00017	8d 78 01	 lea	 edi, DWORD PTR [eax+1]
  0001a	8d 9b 00 00 00
	00		 npad	 6
$L171563:
  00020	8b ce		 mov	 ecx, esi
  00022	ff d3		 call	 ebx
  00024	03 f5		 add	 esi, ebp
  00026	4f		 dec	 edi
  00027	75 f7		 jne	 SHORT $L171563
  00029	5f		 pop	 edi
  0002a	5e		 pop	 esi
  0002b	5d		 pop	 ebp
  0002c	5b		 pop	 ebx
$L171564:
  0002d	c2 10 00	 ret	 16			; 00000010H
??_H@YGXPAXIHP6EPAX0@Z@Z ENDP				; `vector constructor iterator'
_TEXT	ENDS
PUBLIC	?GetMaxFrame@CMotion@@QAEHXZ			; CMotion::GetMaxFrame
; Function compile flags: /Ogty
; File c:\documents and settings\test\mes documents\source\virtuos_v17\build\program\_common\bone.h
;	COMDAT ?GetMaxFrame@CMotion@@QAEHXZ
_TEXT	SEGMENT
?GetMaxFrame@CMotion@@QAEHXZ PROC NEAR			; CMotion::GetMaxFrame, COMDAT
; _this$ = ecx

; 193  : 	int		GetMaxFrame( void ) { return m_nMaxFrame; }

  00000	8b 41 08	 mov	 eax, DWORD PTR [ecx+8]
  00003	c3		 ret	 0
?GetMaxFrame@CMotion@@QAEHXZ ENDP			; CMotion::GetMaxFrame
_TEXT	ENDS
PUBLIC	?InitAnimate@CModel@@QAEXXZ			; CModel::InitAnimate
; Function compile flags: /Ogty
; File c:\documents and settings\test\mes documents\source\virtuos_v17\build\program\_common\model.h
;	COMDAT ?InitAnimate@CModel@@QAEXXZ
_TEXT	SEGMENT
?InitAnimate@CModel@@QAEXXZ PROC NEAR			; CModel::InitAnimate, COMDAT
; _this$ = ecx

; 127  : 		m_fFrameCurrent = 0.0f;

  00000	33 c0		 xor	 eax, eax
  00002	89 81 a0 00 00
	00		 mov	 DWORD PTR [ecx+160], eax

; 128  : 		m_fFrameOld = -1.0f;

  00008	c7 81 a4 00 00
	00 00 00 80 bf	 mov	 DWORD PTR [ecx+164], -1082130432 ; bf800000H

; 129  : 		m_nFrameMax = 0;

  00012	89 81 a8 00 00
	00		 mov	 DWORD PTR [ecx+168], eax

; 130  : 		m_nPause = 0;

  00018	89 81 94 00 00
	00		 mov	 DWORD PTR [ecx+148], eax

; 131  : 		m_bEndFrame = FALSE;

  0001e	89 81 9c 00 00
	00		 mov	 DWORD PTR [ecx+156], eax

; 132  : 		m_nLoop = ANILOOP_LOOP;

  00024	c7 81 b4 00 00
	00 04 00 00 00	 mov	 DWORD PTR [ecx+180], 4

; 133  : 		m_fSlp = 0.0f;

  0002e	89 81 b0 00 00
	00		 mov	 DWORD PTR [ecx+176], eax

; 134  : 		m_fPerSlerp = 0.5f;						//   0.5 

  00034	c7 81 ac 00 00
	00 00 00 00 3f	 mov	 DWORD PTR [ecx+172], 1056964608 ; 3f000000H

; 135  : 		m_bSlow = FALSE;

  0003e	89 81 98 00 00
	00		 mov	 DWORD PTR [ecx+152], eax

; 136  : 	}

  00044	c3		 ret	 0
?InitAnimate@CModel@@QAEXXZ ENDP			; CModel::InitAnimate
_TEXT	ENDS
PUBLIC	??0BOUND_BOX@@QAE@XZ				; BOUND_BOX::BOUND_BOX
; Function compile flags: /Ogty
;	COMDAT ??0BOUND_BOX@@QAE@XZ
_TEXT	SEGMENT
??0BOUND_BOX@@QAE@XZ PROC NEAR				; BOUND_BOX::BOUND_BOX, COMDAT
; _this$ = ecx
  00000	8b c1		 mov	 eax, ecx
  00002	c3		 ret	 0
??0BOUND_BOX@@QAE@XZ ENDP				; BOUND_BOX::BOUND_BOX
_TEXT	ENDS
PUBLIC	?GetGMOBJECT@CObject3D@@QAEPAUGMOBJECT@@H@Z	; CObject3D::GetGMOBJECT
; Function compile flags: /Ogty
; File c:\documents and settings\test\mes documents\source\virtuos_v17\build\program\_common\object3d.h
;	COMDAT ?GetGMOBJECT@CObject3D@@QAEPAUGMOBJECT@@H@Z
_TEXT	SEGMENT
_nIdx$ = 8						; size = 4
?GetGMOBJECT@CObject3D@@QAEPAUGMOBJECT@@H@Z PROC NEAR	; CObject3D::GetGMOBJECT, COMDAT
; _this$ = ecx

; 280  : 	GMOBJECT*	GetGMOBJECT( int nIdx = 0 ) { return &m_pGroup->m_pObject[ nIdx ]; }

  00000	8b 44 24 04	 mov	 eax, DWORD PTR _nIdx$[esp-4]
  00004	8b 09		 mov	 ecx, DWORD PTR [ecx]
  00006	69 c0 bc 0a 00
	00		 imul	 eax, 2748		; 00000abcH
  0000c	03 41 04	 add	 eax, DWORD PTR [ecx+4]
  0000f	c2 04 00	 ret	 4
?GetGMOBJECT@CObject3D@@QAEPAUGMOBJECT@@H@Z ENDP	; CObject3D::GetGMOBJECT
_TEXT	ENDS
PUBLIC	?GetMaxObject@CObject3D@@QAEHXZ			; CObject3D::GetMaxObject
; Function compile flags: /Ogty
;	COMDAT ?GetMaxObject@CObject3D@@QAEHXZ
_TEXT	SEGMENT
?GetMaxObject@CObject3D@@QAEHXZ PROC NEAR		; CObject3D::GetMaxObject, COMDAT
; _this$ = ecx

; 281  : 	int		GetMaxObject( void ) { return m_pGroup->m_nMaxObject; }

  00000	8b 01		 mov	 eax, DWORD PTR [ecx]
  00002	8b 00		 mov	 eax, DWORD PTR [eax]
  00004	c3		 ret	 0
?GetMaxObject@CObject3D@@QAEHXZ ENDP			; CObject3D::GetMaxObject
_TEXT	ENDS
PUBLIC	?GetMaxFrame@CObject3D@@QAEHXZ			; CObject3D::GetMaxFrame
; Function compile flags: /Ogty
;	COMDAT ?GetMaxFrame@CObject3D@@QAEHXZ
_TEXT	SEGMENT
?GetMaxFrame@CObject3D@@QAEHXZ PROC NEAR		; CObject3D::GetMaxFrame, COMDAT
; _this$ = ecx

; 282  : 	int		GetMaxFrame( void ) { return m_nMaxFrame; }

  00000	8b 81 1c 0c 00
	00		 mov	 eax, DWORD PTR [ecx+3100]
  00006	c3		 ret	 0
?GetMaxFrame@CObject3D@@QAEHXZ ENDP			; CObject3D::GetMaxFrame
_TEXT	ENDS
PUBLIC	?SetExternBone@CObject3D@@QAEXPAUD3DXMATRIX@@0@Z ; CObject3D::SetExternBone
; Function compile flags: /Ogty
;	COMDAT ?SetExternBone@CObject3D@@QAEXPAUD3DXMATRIX@@0@Z
_TEXT	SEGMENT
_pmBone$ = 8						; size = 4
_pmBoneInv$ = 12					; size = 4
?SetExternBone@CObject3D@@QAEXPAUD3DXMATRIX@@0@Z PROC NEAR ; CObject3D::SetExternBone, COMDAT
; _this$ = ecx

; 285  : 	void	SetExternBone( D3DXMATRIX *pmBone, D3DXMATRIX *pmBoneInv ) { if(m_pBaseBone == NULL) { m_pmExternBone = pmBone; m_pmExternBoneInv = pmBoneInv; } }	//  m_pBaseBone   .

  00000	8b 41 34	 mov	 eax, DWORD PTR [ecx+52]
  00003	85 c0		 test	 eax, eax
  00005	75 0e		 jne	 SHORT $L200217
  00007	8b 44 24 04	 mov	 eax, DWORD PTR _pmBone$[esp-4]
  0000b	8b 54 24 08	 mov	 edx, DWORD PTR _pmBoneInv$[esp-4]
  0000f	89 41 28	 mov	 DWORD PTR [ecx+40], eax
  00012	89 51 2c	 mov	 DWORD PTR [ecx+44], edx
$L200217:
  00015	c2 08 00	 ret	 8
?SetExternBone@CObject3D@@QAEXPAUD3DXMATRIX@@0@Z ENDP	; CObject3D::SetExternBone
_TEXT	ENDS
PUBLIC	?IsHaveCollObj@CObject3D@@QAEHXZ		; CObject3D::IsHaveCollObj
; Function compile flags: /Ogty
;	COMDAT ?IsHaveCollObj@CObject3D@@QAEHXZ
_TEXT	SEGMENT
?IsHaveCollObj@CObject3D@@QAEHXZ PROC NEAR		; CObject3D::IsHaveCollObj, COMDAT
; _this$ = ecx

; 301  : 	BOOL	IsHaveCollObj( void ) { return (m_CollObject.m_Type != GMT_ERROR)? TRUE : FALSE; }

  00000	8b 91 00 01 00
	00		 mov	 edx, DWORD PTR [ecx+256]
  00006	33 c0		 xor	 eax, eax
  00008	83 fa ff	 cmp	 edx, -1
  0000b	0f 95 c0	 setne	 al
  0000e	c3		 ret	 0
?IsHaveCollObj@CObject3D@@QAEHXZ ENDP			; CObject3D::IsHaveCollObj
_TEXT	ENDS
PUBLIC	?IsUseExternBone@CObject3D@@QAEHXZ		; CObject3D::IsUseExternBone
; Function compile flags: /Ogty
;	COMDAT ?IsUseExternBone@CObject3D@@QAEHXZ
_TEXT	SEGMENT
?IsUseExternBone@CObject3D@@QAEHXZ PROC NEAR		; CObject3D::IsUseExternBone, COMDAT
; _this$ = ecx

; 302  : 	BOOL	IsUseExternBone( void ) { if( m_nHavePhysique && m_pBaseBone == NULL ) return TRUE; else return FALSE; }	//      .    

  00000	8b 81 bc 00 00
	00		 mov	 eax, DWORD PTR [ecx+188]
  00006	85 c0		 test	 eax, eax
  00008	74 0d		 je	 SHORT $L200230
  0000a	8b 41 34	 mov	 eax, DWORD PTR [ecx+52]
  0000d	85 c0		 test	 eax, eax
  0000f	75 06		 jne	 SHORT $L200230
  00011	b8 01 00 00 00	 mov	 eax, 1
  00016	c3		 ret	 0
$L200230:
  00017	33 c0		 xor	 eax, eax
  00019	c3		 ret	 0
?IsUseExternBone@CObject3D@@QAEHXZ ENDP			; CObject3D::IsUseExternBone
_TEXT	ENDS
PUBLIC	?SetLOD@CObject3D@@QAEXH@Z			; CObject3D::SetLOD
PUBLIC	??_C@_0BD@IOHNFIBA@SetLOD?5?3?5lv?$DN?$CFd?0?5?$CFs?$AA@ ; `string'
;	COMDAT ??_C@_0BD@IOHNFIBA@SetLOD?5?3?5lv?$DN?$CFd?0?5?$CFs?$AA@
CONST	SEGMENT
??_C@_0BD@IOHNFIBA@SetLOD?5?3?5lv?$DN?$CFd?0?5?$CFs?$AA@ DB 'SetLOD : lv='
	DB	'%d, %s', 00H				; `string'
; Function compile flags: /Ogty
CONST	ENDS
;	COMDAT ?SetLOD@CObject3D@@QAEXH@Z
_TEXT	SEGMENT
_nLevel$ = 8						; size = 4
?SetLOD@CObject3D@@QAEXH@Z PROC NEAR			; CObject3D::SetLOD, COMDAT
; _this$ = ecx

; 305  : 		if( nLevel < 0 || nLevel >= MAX_GROUP )

  00000	8b 44 24 04	 mov	 eax, DWORD PTR _nLevel$[esp-4]
  00004	85 c0		 test	 eax, eax
  00006	56		 push	 esi
  00007	8b f1		 mov	 esi, ecx
  00009	7c 05		 jl	 SHORT $L200235
  0000b	83 f8 03	 cmp	 eax, 3
  0000e	7c 17		 jl	 SHORT $L200234
$L200235:

; 306  : 		{
; 307  : 			Error( "SetLOD : lv=%d, %s", nLevel, m_szFileName );

  00010	8d 8e c0 00 00
	00		 lea	 ecx, DWORD PTR [esi+192]
  00016	51		 push	 ecx
  00017	50		 push	 eax
  00018	68 00 00 00 00	 push	 OFFSET FLAT:??_C@_0BD@IOHNFIBA@SetLOD?5?3?5lv?$DN?$CFd?0?5?$CFs?$AA@
  0001d	e8 00 00 00 00	 call	 ?Error@@YAPBDPBDZZ	; Error
  00022	83 c4 0c	 add	 esp, 12			; 0000000cH

; 308  : 			nLevel = 0;

  00025	33 c0		 xor	 eax, eax
$L200234:

; 309  : 		}
; 310  : 		if( m_bLOD == 0 ) nLevel = 0;	// LOD   High..

  00027	8b 8e b4 00 00
	00		 mov	 ecx, DWORD PTR [esi+180]
  0002d	85 c9		 test	 ecx, ecx
  0002f	75 02		 jne	 SHORT $L200237
  00031	33 c0		 xor	 eax, eax
$L200237:

; 311  : 		m_pGroup = &m_Group[nLevel]; 

  00033	8d 14 40	 lea	 edx, DWORD PTR [eax+eax*2]
  00036	8d 44 96 04	 lea	 eax, DWORD PTR [esi+edx*4+4]
  0003a	89 06		 mov	 DWORD PTR [esi], eax
  0003c	5e		 pop	 esi

; 312  : 	}	// 0:high,  1:medium,   2:low

  0003d	c2 04 00	 ret	 4
?SetLOD@CObject3D@@QAEXH@Z ENDP				; CObject3D::SetLOD
_TEXT	ENDS
PUBLIC	?InitDeviceObjects@CObject3D@@QAEJPAUIDirect3DDevice9@@@Z ; CObject3D::InitDeviceObjects
; Function compile flags: /Ogty
;	COMDAT ?InitDeviceObjects@CObject3D@@QAEJPAUIDirect3DDevice9@@@Z
_TEXT	SEGMENT
_pd3dDevice$ = 8					; size = 4
?InitDeviceObjects@CObject3D@@QAEJPAUIDirect3DDevice9@@@Z PROC NEAR ; CObject3D::InitDeviceObjects, COMDAT
; _this$ = ecx

; 385  : 	HRESULT InitDeviceObjects( LPDIRECT3DDEVICE9 pd3dDevice ) { m_pd3dDevice = pd3dDevice;  return S_OK; }

  00000	8b 44 24 04	 mov	 eax, DWORD PTR _pd3dDevice$[esp-4]
  00004	89 81 ac 00 00
	00		 mov	 DWORD PTR [ecx+172], eax
  0000a	33 c0		 xor	 eax, eax
  0000c	c2 04 00	 ret	 4
?InitDeviceObjects@CObject3D@@QAEJPAUIDirect3DDevice9@@@Z ENDP ; CObject3D::InitDeviceObjects
_TEXT	ENDS
PUBLIC	?Init@CSwordForce@@QAEXXZ			; CSwordForce::Init
; Function compile flags: /Ogty
; File c:\documents and settings\test\mes documents\source\virtuos_v17\build\program\_common\modelobject.h
;	COMDAT ?Init@CSwordForce@@QAEXXZ
_TEXT	SEGMENT
?Init@CSwordForce@@QAEXXZ PROC NEAR			; CSwordForce::Init, COMDAT
; _this$ = ecx

; 39   : 	{

  00000	8b d1		 mov	 edx, ecx
  00002	57		 push	 edi

; 40   : 		m_nMaxVertex = 0;

  00003	33 c0		 xor	 eax, eax
  00005	89 02		 mov	 DWORD PTR [edx], eax

; 41   : 		m_nMaxSpline = 0;

  00007	89 42 04	 mov	 DWORD PTR [edx+4], eax

; 42   : 		m_nMaxDraw = 0;

  0000a	89 42 08	 mov	 DWORD PTR [edx+8], eax

; 43   : 		m_dwColor = D3DCOLOR_ARGB( 255, 120, 120, 230 );

  0000d	c7 42 0c e6 78
	78 ff		 mov	 DWORD PTR [edx+12], -8881946 ; ff7878e6H

; 44   : 		memset( m_aList, 0, sizeof(FVF_SWDFORCE) * MAX_SF_SWDFORCE );

  00014	b9 00 08 00 00	 mov	 ecx, 2048		; 00000800H
  00019	8d 7a 10	 lea	 edi, DWORD PTR [edx+16]
  0001c	f3 ab		 rep stosd

; 45   : 		memset( m_aSpline, 0, sizeof(FVF_SWDFORCE) * MAX_SF_SPLINE );

  0001e	b9 00 40 00 00	 mov	 ecx, 16384		; 00004000H
  00023	8d ba 10 40 00
	00		 lea	 edi, DWORD PTR [edx+16400]
  00029	f3 ab		 rep stosd
  0002b	5f		 pop	 edi

; 46   : 	}

  0002c	c3		 ret	 0
?Init@CSwordForce@@QAEXXZ ENDP				; CSwordForce::Init
_TEXT	ENDS
PUBLIC	?Destroy@CSwordForce@@QAEXXZ			; CSwordForce::Destroy
; Function compile flags: /Ogty
;	COMDAT ?Destroy@CSwordForce@@QAEXXZ
_TEXT	SEGMENT
?Destroy@CSwordForce@@QAEXXZ PROC NEAR			; CSwordForce::Destroy, COMDAT
; _this$ = ecx

; 48   : 	{

  00000	8b d1		 mov	 edx, ecx
  00002	57		 push	 edi

; 49   : 		Init();

  00003	33 c0		 xor	 eax, eax
  00005	89 02		 mov	 DWORD PTR [edx], eax
  00007	89 42 04	 mov	 DWORD PTR [edx+4], eax
  0000a	89 42 08	 mov	 DWORD PTR [edx+8], eax
  0000d	c7 42 0c e6 78
	78 ff		 mov	 DWORD PTR [edx+12], -8881946 ; ff7878e6H
  00014	b9 00 08 00 00	 mov	 ecx, 2048		; 00000800H
  00019	8d 7a 10	 lea	 edi, DWORD PTR [edx+16]
  0001c	f3 ab		 rep stosd
  0001e	b9 00 40 00 00	 mov	 ecx, 16384		; 00004000H
  00023	8d ba 10 40 00
	00		 lea	 edi, DWORD PTR [edx+16400]
  00029	f3 ab		 rep stosd
  0002b	5f		 pop	 edi

; 50   : 	}

  0002c	c3		 ret	 0
?Destroy@CSwordForce@@QAEXXZ ENDP			; CSwordForce::Destroy
_TEXT	ENDS
PUBLIC	?GetRHandIdx@CModelObject@@QAEHXZ		; CModelObject::GetRHandIdx
; Function compile flags: /Ogty
;	COMDAT ?GetRHandIdx@CModelObject@@QAEHXZ
_TEXT	SEGMENT
?GetRHandIdx@CModelObject@@QAEHXZ PROC NEAR		; CModelObject::GetRHandIdx, COMDAT
; _this$ = ecx

; 167  : 	int					GetRHandIdx( void ) { return m_pBone->m_nRHandIdx; }

  00000	8b 81 84 2a 00
	00		 mov	 eax, DWORD PTR [ecx+10884]
  00006	8b 80 50 01 00
	00		 mov	 eax, DWORD PTR [eax+336]
  0000c	c3		 ret	 0
?GetRHandIdx@CModelObject@@QAEHXZ ENDP			; CModelObject::GetRHandIdx
_TEXT	ENDS
PUBLIC	?GetLHandIdx@CModelObject@@QAEHXZ		; CModelObject::GetLHandIdx
; Function compile flags: /Ogty
;	COMDAT ?GetLHandIdx@CModelObject@@QAEHXZ
_TEXT	SEGMENT
?GetLHandIdx@CModelObject@@QAEHXZ PROC NEAR		; CModelObject::GetLHandIdx, COMDAT
; _this$ = ecx

; 168  : 	int					GetLHandIdx( void ) { return m_pBone->m_nLHandIdx; }

  00000	8b 81 84 2a 00
	00		 mov	 eax, DWORD PTR [ecx+10884]
  00006	8b 80 54 01 00
	00		 mov	 eax, DWORD PTR [eax+340]
  0000c	c3		 ret	 0
?GetLHandIdx@CModelObject@@QAEHXZ ENDP			; CModelObject::GetLHandIdx
_TEXT	ENDS
PUBLIC	?GetRArmIdx@CModelObject@@QAEHXZ		; CModelObject::GetRArmIdx
; Function compile flags: /Ogty
;	COMDAT ?GetRArmIdx@CModelObject@@QAEHXZ
_TEXT	SEGMENT
?GetRArmIdx@CModelObject@@QAEHXZ PROC NEAR		; CModelObject::GetRArmIdx, COMDAT
; _this$ = ecx

; 169  : 	int					GetRArmIdx( void ) { return m_pBone->m_nRArmIdx; }

  00000	8b 81 84 2a 00
	00		 mov	 eax, DWORD PTR [ecx+10884]
  00006	8b 80 58 01 00
	00		 mov	 eax, DWORD PTR [eax+344]
  0000c	c3		 ret	 0
?GetRArmIdx@CModelObject@@QAEHXZ ENDP			; CModelObject::GetRArmIdx
_TEXT	ENDS
PUBLIC	?GetLArmIdx@CModelObject@@QAEHXZ		; CModelObject::GetLArmIdx
; Function compile flags: /Ogty
;	COMDAT ?GetLArmIdx@CModelObject@@QAEHXZ
_TEXT	SEGMENT
?GetLArmIdx@CModelObject@@QAEHXZ PROC NEAR		; CModelObject::GetLArmIdx, COMDAT
; _this$ = ecx

; 170  : 	int					GetLArmIdx( void ) { return m_pBone->m_nLArmIdx; }

  00000	8b 81 84 2a 00
	00		 mov	 eax, DWORD PTR [ecx+10884]
  00006	8b 80 5c 01 00
	00		 mov	 eax, DWORD PTR [eax+348]
  0000c	c3		 ret	 0
?GetLArmIdx@CModelObject@@QAEHXZ ENDP			; CModelObject::GetLArmIdx
_TEXT	ENDS
PUBLIC	?GetParts@CModelObject@@QAEPAUO3D_ELEMENT@@H@Z	; CModelObject::GetParts
; Function compile flags: /Ogty
;	COMDAT ?GetParts@CModelObject@@QAEPAUO3D_ELEMENT@@H@Z
_TEXT	SEGMENT
_nParts$ = 8						; size = 4
?GetParts@CModelObject@@QAEPAUO3D_ELEMENT@@H@Z PROC NEAR ; CModelObject::GetParts, COMDAT
; _this$ = ecx

; 189  : 	{ 

  00000	56		 push	 esi

; 190  : 		for( int i=0; i<MAX_ELEMENT; i++ )

  00001	8b 74 24 08	 mov	 esi, DWORD PTR _nParts$[esp]
  00005	33 c0		 xor	 eax, eax
  00007	8d 91 cc 02 00
	00		 lea	 edx, DWORD PTR [ecx+716]
  0000d	8d 49 00	 npad	 3
$L201394:

; 191  : 		{
; 192  : 			if( m_Element[i].m_nPartsIdx == nParts )

  00010	39 32		 cmp	 DWORD PTR [edx], esi
  00012	74 12		 je	 SHORT $L230498
  00014	40		 inc	 eax
  00015	81 c2 fc 01 00
	00		 add	 edx, 508		; 000001fcH
  0001b	83 f8 15	 cmp	 eax, 21			; 00000015H
  0001e	7c f0		 jl	 SHORT $L201394

; 194  : 		}
; 195  : 		return NULL; 

  00020	33 c0		 xor	 eax, eax
  00022	5e		 pop	 esi

; 196  : 	}

  00023	c2 04 00	 ret	 4
$L230498:

; 193  : 				return &(m_Element[i]);

  00026	69 c0 fc 01 00
	00		 imul	 eax, 508		; 000001fcH
  0002c	8d 84 08 d4 00
	00 00		 lea	 eax, DWORD PTR [eax+ecx+212]
  00033	5e		 pop	 esi

; 196  : 	}

  00034	c2 04 00	 ret	 4
?GetParts@CModelObject@@QAEPAUO3D_ELEMENT@@H@Z ENDP	; CModelObject::GetParts
_TEXT	ENDS
PUBLIC	?GetPartsIdx@CModelObject@@QAEHH@Z		; CModelObject::GetPartsIdx
; Function compile flags: /Ogty
;	COMDAT ?GetPartsIdx@CModelObject@@QAEHH@Z
_TEXT	SEGMENT
_nParts$ = 8						; size = 4
?GetPartsIdx@CModelObject@@QAEHH@Z PROC NEAR		; CModelObject::GetPartsIdx, COMDAT
; _this$ = ecx

; 200  : 		for( int i=0; i<MAX_ELEMENT; i++ )

  00000	8b 54 24 04	 mov	 edx, DWORD PTR _nParts$[esp-4]
  00004	33 c0		 xor	 eax, eax
  00006	81 c1 cc 02 00
	00		 add	 ecx, 716		; 000002ccH
  0000c	8d 64 24 00	 npad	 4
$L201401:

; 201  : 		{
; 202  : 			if( m_Element[i].m_nPartsIdx == nParts )

  00010	39 11		 cmp	 DWORD PTR [ecx], edx
  00012	74 0f		 je	 SHORT $L201399
  00014	40		 inc	 eax
  00015	81 c1 fc 01 00
	00		 add	 ecx, 508		; 000001fcH
  0001b	83 f8 15	 cmp	 eax, 21			; 00000015H
  0001e	7c f0		 jl	 SHORT $L201401

; 203  : 				return i;
; 204  : 		}
; 205  : 		return -1; 

  00020	83 c8 ff	 or	 eax, -1
$L201399:

; 206  : 	}

  00023	c2 04 00	 ret	 4
?GetPartsIdx@CModelObject@@QAEHH@Z ENDP			; CModelObject::GetPartsIdx
_TEXT	ENDS
PUBLIC	?GetObject3D@CModelObject@@QAEPAVCObject3D@@XZ	; CModelObject::GetObject3D
; Function compile flags: /Ogty
;	COMDAT ?GetObject3D@CModelObject@@QAEPAVCObject3D@@XZ
_TEXT	SEGMENT
?GetObject3D@CModelObject@@QAEPAVCObject3D@@XZ PROC NEAR ; CModelObject::GetObject3D, COMDAT
; _this$ = ecx

; 208  : 	CObject3D	*GetObject3D( void ) { return m_Element[0].m_pObject3D; }		//   .

  00000	8b 81 d8 00 00
	00		 mov	 eax, DWORD PTR [ecx+216]
  00006	c3		 ret	 0
?GetObject3D@CModelObject@@QAEPAVCObject3D@@XZ ENDP	; CModelObject::GetObject3D
_TEXT	ENDS
PUBLIC	?GetData@?$CSimpleStringT@D$0A@@ATL@@ABEPAUCStringData@2@XZ ; ATL::CSimpleStringT<char,0>::GetData
; Function compile flags: /Ogty
; File c:\program files\microsoft visual studio .net 2003\vc7\atlmfc\include\atlsimpstr.h
;	COMDAT ?GetData@?$CSimpleStringT@D$0A@@ATL@@ABEPAUCStringData@2@XZ
_TEXT	SEGMENT
?GetData@?$CSimpleStringT@D$0A@@ATL@@ABEPAUCStringData@2@XZ PROC NEAR ; ATL::CSimpleStringT<char,0>::GetData, COMDAT
; _this$ = ecx

; 731  : 		return( reinterpret_cast< CStringData* >( m_pszData )-1 );

  00000	8b 01		 mov	 eax, DWORD PTR [ecx]
  00002	83 e8 10	 sub	 eax, 16			; 00000010H

; 732  : 	}

  00005	c3		 ret	 0
?GetData@?$CSimpleStringT@D$0A@@ATL@@ABEPAUCStringData@2@XZ ENDP ; ATL::CSimpleStringT<char,0>::GetData
_TEXT	ENDS
PUBLIC	?SetLength@?$CSimpleStringT@D$0A@@ATL@@AAEXH@Z	; ATL::CSimpleStringT<char,0>::SetLength
; Function compile flags: /Ogty
;	COMDAT ?SetLength@?$CSimpleStringT@D$0A@@ATL@@AAEXH@Z
_TEXT	SEGMENT
_nLength$ = 8						; size = 4
?SetLength@?$CSimpleStringT@D$0A@@ATL@@AAEXH@Z PROC NEAR ; ATL::CSimpleStringT<char,0>::SetLength, COMDAT
; _this$ = ecx

; 790  : 		ATLASSERT( nLength >= 0 );
; 791  : 		ATLASSERT( nLength <= GetData()->nAllocLength );
; 792  : 
; 793  : 		if( nLength < 0 || nLength > GetData()->nAllocLength)

  00000	8b 44 24 04	 mov	 eax, DWORD PTR _nLength$[esp-4]
  00004	85 c0		 test	 eax, eax
  00006	7c 13		 jl	 SHORT $L219986
  00008	8b 11		 mov	 edx, DWORD PTR [ecx]
  0000a	3b 42 f8	 cmp	 eax, DWORD PTR [edx-8]
  0000d	7f 0c		 jg	 SHORT $L219986

; 794  : 			AtlThrow(E_INVALIDARG);
; 795  : 			
; 796  : 		GetData()->nDataLength = nLength;

  0000f	89 42 f4	 mov	 DWORD PTR [edx-12], eax

; 797  : 		m_pszData[nLength] = 0;

  00012	8b 09		 mov	 ecx, DWORD PTR [ecx]
  00014	c6 04 08 00	 mov	 BYTE PTR [eax+ecx], 0

; 798  : 	}

  00018	c2 04 00	 ret	 4
$L219986:
  0001b	68 57 00 07 80	 push	 -2147024809		; 80070057H
  00020	e8 00 00 00 00	 call	 ?AtlThrow@ATL@@YGXJ@Z	; ATL::AtlThrow
$L230522:
$L230521:
  00025	cc		 int	 3
?SetLength@?$CSimpleStringT@D$0A@@ATL@@AAEXH@Z ENDP	; ATL::CSimpleStringT<char,0>::SetLength
_TEXT	ENDS
PUBLIC	?GetDefaultManager@?$StrTraitMFC@DV?$ChTraitsCRT@D@ATL@@@@SAPAUIAtlStringMgr@ATL@@XZ ; StrTraitMFC<char,ATL::ChTraitsCRT<char> >::GetDefaultManager
EXTRN	?AfxGetStringManager@@YGPAUIAtlStringMgr@ATL@@XZ:NEAR ; AfxGetStringManager
; Function compile flags: /Ogty
; File c:\program files\microsoft visual studio .net 2003\vc7\atlmfc\include\afxstr.h
;	COMDAT ?GetDefaultManager@?$StrTraitMFC@DV?$ChTraitsCRT@D@ATL@@@@SAPAUIAtlStringMgr@ATL@@XZ
_TEXT	SEGMENT
?GetDefaultManager@?$StrTraitMFC@DV?$ChTraitsCRT@D@ATL@@@@SAPAUIAtlStringMgr@ATL@@XZ PROC NEAR ; StrTraitMFC<char,ATL::ChTraitsCRT<char> >::GetDefaultManager, COMDAT

; 50   : 		return( AfxGetStringManager() );

  00000	e9 00 00 00 00	 jmp	 ?AfxGetStringManager@@YGPAUIAtlStringMgr@ATL@@XZ ; AfxGetStringManager
?GetDefaultManager@?$StrTraitMFC@DV?$ChTraitsCRT@D@ATL@@@@SAPAUIAtlStringMgr@ATL@@XZ ENDP ; StrTraitMFC<char,ATL::ChTraitsCRT<char> >::GetDefaultManager
_TEXT	ENDS
PUBLIC	?Attach@?$CSimpleStringT@D$0A@@ATL@@AAEXPAUCStringData@2@@Z ; ATL::CSimpleStringT<char,0>::Attach
; Function compile flags: /Ogty
; File c:\program files\microsoft visual studio .net 2003\vc7\atlmfc\include\atlsimpstr.h
;	COMDAT ?Attach@?$CSimpleStringT@D$0A@@ATL@@AAEXPAUCStringData@2@@Z
_TEXT	SEGMENT
_pData$ = 8						; size = 4
?Attach@?$CSimpleStringT@D$0A@@ATL@@AAEXPAUCStringData@2@@Z PROC NEAR ; ATL::CSimpleStringT<char,0>::Attach, COMDAT
; _this$ = ecx

; 712  : 		m_pszData = static_cast< PXSTR >( pData->data() );

  00000	8b 44 24 04	 mov	 eax, DWORD PTR _pData$[esp-4]
  00004	83 c0 10	 add	 eax, 16			; 00000010H
  00007	89 01		 mov	 DWORD PTR [ecx], eax

; 713  : 	}

  00009	c2 04 00	 ret	 4
?Attach@?$CSimpleStringT@D$0A@@ATL@@AAEXPAUCStringData@2@@Z ENDP ; ATL::CSimpleStringT<char,0>::Attach
_TEXT	ENDS
PUBLIC	?GetFormattedLength@?$ChTraitsCRT@D@ATL@@SAHPBDPAD@Z ; ATL::ChTraitsCRT<char>::GetFormattedLength
EXTRN	__vscprintf:NEAR
; Function compile flags: /Ogty
; File c:\program files\microsoft visual studio .net 2003\vc7\atlmfc\include\cstringt.h
;	COMDAT ?GetFormattedLength@?$ChTraitsCRT@D@ATL@@SAHPBDPAD@Z
_TEXT	SEGMENT
_pszFormat$ = 8						; size = 4
_args$ = 12						; size = 4
?GetFormattedLength@?$ChTraitsCRT@D@ATL@@SAHPBDPAD@Z PROC NEAR ; ATL::ChTraitsCRT<char>::GetFormattedLength, COMDAT

; 408  : 		return _vscprintf( pszFormat, args );

  00000	e9 00 00 00 00	 jmp	 __vscprintf
?GetFormattedLength@?$ChTraitsCRT@D@ATL@@SAHPBDPAD@Z ENDP ; ATL::ChTraitsCRT<char>::GetFormattedLength
_TEXT	ENDS
PUBLIC	?Format@?$ChTraitsCRT@D@ATL@@SAHPADPBD0@Z	; ATL::ChTraitsCRT<char>::Format
EXTRN	_vsprintf:NEAR
; Function compile flags: /Ogty
;	COMDAT ?Format@?$ChTraitsCRT@D@ATL@@SAHPADPBD0@Z
_TEXT	SEGMENT
_pszBuffer$ = 8						; size = 4
_pszFormat$ = 12					; size = 4
_args$ = 16						; size = 4
?Format@?$ChTraitsCRT@D@ATL@@SAHPADPBD0@Z PROC NEAR	; ATL::ChTraitsCRT<char>::Format, COMDAT

; 413  : 		return vsprintf( pszBuffer, pszFormat, args );

  00000	e9 00 00 00 00	 jmp	 _vsprintf
?Format@?$ChTraitsCRT@D@ATL@@SAHPADPBD0@Z ENDP		; ATL::ChTraitsCRT<char>::Format
_TEXT	ENDS
PUBLIC	?CopyChars@?$CSimpleStringT@D$0A@@ATL@@SAXPADPBDH@Z ; ATL::CSimpleStringT<char,0>::CopyChars
; Function compile flags: /Ogty
; File c:\program files\microsoft visual studio .net 2003\vc7\atlmfc\include\atlsimpstr.h
;	COMDAT ?CopyChars@?$CSimpleStringT@D$0A@@ATL@@SAXPADPBDH@Z
_TEXT	SEGMENT
_pchDest$ = 8						; size = 4
_pchSrc$ = 12						; size = 4
_nChars$ = 16						; size = 4
?CopyChars@?$CSimpleStringT@D$0A@@ATL@@SAXPADPBDH@Z PROC NEAR ; ATL::CSimpleStringT<char,0>::CopyChars, COMDAT

; 653  : 		memcpy( pchDest, pchSrc, nChars*sizeof( XCHAR ) );

  00000	8b 4c 24 0c	 mov	 ecx, DWORD PTR _nChars$[esp-4]
  00004	56		 push	 esi
  00005	8b 74 24 0c	 mov	 esi, DWORD PTR _pchSrc$[esp]
  00009	8b c1		 mov	 eax, ecx
  0000b	57		 push	 edi
  0000c	8b 7c 24 0c	 mov	 edi, DWORD PTR _pchDest$[esp+4]
  00010	c1 e9 02	 shr	 ecx, 2
  00013	f3 a5		 rep movsd
  00015	8b c8		 mov	 ecx, eax
  00017	83 e1 03	 and	 ecx, 3
  0001a	f3 a4		 rep movsb
  0001c	5f		 pop	 edi
  0001d	5e		 pop	 esi

; 654  : 	}

  0001e	c3		 ret	 0
?CopyChars@?$CSimpleStringT@D$0A@@ATL@@SAXPADPBDH@Z ENDP ; ATL::CSimpleStringT<char,0>::CopyChars
_TEXT	ENDS
PUBLIC	?ThrowMemoryException@?$CSimpleStringT@D$0A@@ATL@@KAXXZ ; ATL::CSimpleStringT<char,0>::ThrowMemoryException
; Function compile flags: /Ogty
;	COMDAT ?ThrowMemoryException@?$CSimpleStringT@D$0A@@ATL@@KAXXZ
_TEXT	SEGMENT
?ThrowMemoryException@?$CSimpleStringT@D$0A@@ATL@@KAXXZ PROC NEAR ; ATL::CSimpleStringT<char,0>::ThrowMemoryException, COMDAT

; 705  : 		AtlThrow( E_OUTOFMEMORY );

  00000	68 0e 00 07 80	 push	 -2147024882		; 8007000eH
  00005	e8 00 00 00 00	 call	 ?AtlThrow@ATL@@YGXJ@Z	; ATL::AtlThrow
$L230548:
$L230547:
  0000a	cc		 int	 3
?ThrowMemoryException@?$CSimpleStringT@D$0A@@ATL@@KAXXZ ENDP ; ATL::CSimpleStringT<char,0>::ThrowMemoryException
_TEXT	ENDS
PUBLIC	?Fork@?$CSimpleStringT@D$0A@@ATL@@AAEXH@Z	; ATL::CSimpleStringT<char,0>::Fork
; Function compile flags: /Ogty
;	COMDAT ?Fork@?$CSimpleStringT@D$0A@@ATL@@AAEXH@Z
_TEXT	SEGMENT
_this$ = -4						; size = 4
tv181 = 8						; size = 4
_nLength$ = 8						; size = 4
?Fork@?$CSimpleStringT@D$0A@@ATL@@AAEXH@Z PROC NEAR	; ATL::CSimpleStringT<char,0>::Fork, COMDAT
; _this$ = ecx

; 715  : 	{

  00000	51		 push	 ecx
  00001	53		 push	 ebx

; 716  : 		CStringData* pOldData = GetData();

  00002	8b 19		 mov	 ebx, DWORD PTR [ecx]
  00004	83 eb 10	 sub	 ebx, 16			; 00000010H
  00007	55		 push	 ebp

; 717  : 		int nOldLength = pOldData->nDataLength;

  00008	8b 6b 04	 mov	 ebp, DWORD PTR [ebx+4]
  0000b	89 4c 24 08	 mov	 DWORD PTR _this$[esp+12], ecx

; 718  : 		CStringData* pNewData = pOldData->pStringMgr->Clone()->Allocate( nLength, sizeof( XCHAR ) );

  0000f	8b 0b		 mov	 ecx, DWORD PTR [ebx]
  00011	8b 01		 mov	 eax, DWORD PTR [ecx]
  00013	56		 push	 esi
  00014	ff 50 10	 call	 DWORD PTR [eax+16]
  00017	8b 74 24 14	 mov	 esi, DWORD PTR _nLength$[esp+12]
  0001b	8b 10		 mov	 edx, DWORD PTR [eax]
  0001d	6a 01		 push	 1
  0001f	56		 push	 esi
  00020	8b c8		 mov	 ecx, eax
  00022	ff 12		 call	 DWORD PTR [edx]

; 719  : 		if( pNewData == NULL )

  00024	85 c0		 test	 eax, eax
  00026	75 05		 jne	 SHORT $L222762

; 720  : 		{
; 721  : 			ThrowMemoryException();

  00028	e8 00 00 00 00	 call	 ?ThrowMemoryException@?$CSimpleStringT@D$0A@@ATL@@KAXXZ ; ATL::CSimpleStringT<char,0>::ThrowMemoryException
$L230579:
$L222762:

; 722  : 		}
; 723  : 		int nCharsToCopy = ((nOldLength < nLength) ? nOldLength : nLength)+1;  // Copy '\0'

  0002d	3b ee		 cmp	 ebp, esi
  0002f	7d 02		 jge	 SHORT $L230553
  00031	8b f5		 mov	 esi, ebp
$L230553:
  00033	8d 4e 01	 lea	 ecx, DWORD PTR [esi+1]

; 724  : 		CopyChars( PXSTR( pNewData->data() ), PCXSTR( pOldData->data() ), nCharsToCopy );

  00036	8b d1		 mov	 edx, ecx
  00038	57		 push	 edi
  00039	c1 e9 02	 shr	 ecx, 2
  0003c	8d 78 10	 lea	 edi, DWORD PTR [eax+16]
  0003f	89 7c 24 18	 mov	 DWORD PTR tv181[esp+16], edi
  00043	8d 73 10	 lea	 esi, DWORD PTR [ebx+16]
  00046	f3 a5		 rep movsd
  00048	8b ca		 mov	 ecx, edx
  0004a	83 e1 03	 and	 ecx, 3
  0004d	f3 a4		 rep movsb

; 725  : 		pNewData->nDataLength = nOldLength;

  0004f	89 68 04	 mov	 DWORD PTR [eax+4], ebp

; 726  : 		pOldData->Release();

  00052	8d 43 0c	 lea	 eax, DWORD PTR [ebx+12]
  00055	83 c9 ff	 or	 ecx, -1
  00058	f0 0f c1 08	 lock	  xadd	 DWORD PTR [eax], ecx
  0005c	49		 dec	 ecx
  0005d	85 c9		 test	 ecx, ecx
  0005f	5f		 pop	 edi
  00060	7f 08		 jg	 SHORT $L230569
  00062	8b 0b		 mov	 ecx, DWORD PTR [ebx]
  00064	8b 11		 mov	 edx, DWORD PTR [ecx]
  00066	53		 push	 ebx
  00067	ff 52 04	 call	 DWORD PTR [edx+4]
$L230569:

; 727  : 		Attach( pNewData );

  0006a	8b 44 24 14	 mov	 eax, DWORD PTR tv181[esp+12]
  0006e	8b 4c 24 0c	 mov	 ecx, DWORD PTR _this$[esp+16]
  00072	5e		 pop	 esi
  00073	5d		 pop	 ebp
  00074	89 01		 mov	 DWORD PTR [ecx], eax
  00076	5b		 pop	 ebx

; 728  : 	}

  00077	59		 pop	 ecx
  00078	c2 04 00	 ret	 4
$L230578:
?Fork@?$CSimpleStringT@D$0A@@ATL@@AAEXH@Z ENDP		; ATL::CSimpleStringT<char,0>::Fork
_TEXT	ENDS
PUBLIC	?Reallocate@?$CSimpleStringT@D$0A@@ATL@@AAEXH@Z	; ATL::CSimpleStringT<char,0>::Reallocate
; Function compile flags: /Ogty
;	COMDAT ?Reallocate@?$CSimpleStringT@D$0A@@ATL@@AAEXH@Z
_TEXT	SEGMENT
_nLength$ = 8						; size = 4
?Reallocate@?$CSimpleStringT@D$0A@@ATL@@AAEXH@Z PROC NEAR ; ATL::CSimpleStringT<char,0>::Reallocate, COMDAT
; _this$ = ecx

; 776  : 	{

  00000	56		 push	 esi
  00001	57		 push	 edi

; 777  : 		CStringData* pOldData = GetData();
; 778  : 		ATLASSERT( pOldData->nAllocLength < nLength );
; 779  : 		IAtlStringMgr* pStringMgr = pOldData->pStringMgr;
; 780  : 		CStringData* pNewData = pStringMgr->Reallocate( pOldData, nLength, sizeof( XCHAR ) );

  00002	8b 7c 24 0c	 mov	 edi, DWORD PTR _nLength$[esp+4]
  00006	8b f1		 mov	 esi, ecx
  00008	8b 06		 mov	 eax, DWORD PTR [esi]
  0000a	8b 48 f0	 mov	 ecx, DWORD PTR [eax-16]
  0000d	8b 11		 mov	 edx, DWORD PTR [ecx]
  0000f	83 e8 10	 sub	 eax, 16			; 00000010H
  00012	6a 01		 push	 1
  00014	57		 push	 edi
  00015	50		 push	 eax
  00016	ff 52 08	 call	 DWORD PTR [edx+8]

; 781  : 		if( pNewData == NULL )

  00019	85 c0		 test	 eax, eax
  0001b	75 05		 jne	 SHORT $L222771

; 782  : 		{
; 783  : 			ThrowMemoryException();

  0001d	e8 00 00 00 00	 call	 ?ThrowMemoryException@?$CSimpleStringT@D$0A@@ATL@@KAXXZ ; ATL::CSimpleStringT<char,0>::ThrowMemoryException
$L230595:
$L222771:

; 784  : 		}
; 785  : 		Attach( pNewData );

  00022	83 c0 10	 add	 eax, 16			; 00000010H
  00025	5f		 pop	 edi
  00026	89 06		 mov	 DWORD PTR [esi], eax
  00028	5e		 pop	 esi

; 786  : 	}

  00029	c2 04 00	 ret	 4
$L230594:
?Reallocate@?$CSimpleStringT@D$0A@@ATL@@AAEXH@Z ENDP	; ATL::CSimpleStringT<char,0>::Reallocate
_TEXT	ENDS
PUBLIC	??0O3D_ELEMENT@@QAE@XZ				; O3D_ELEMENT::O3D_ELEMENT
; Function compile flags: /Ogty
;	COMDAT ??0O3D_ELEMENT@@QAE@XZ
_TEXT	SEGMENT
??0O3D_ELEMENT@@QAE@XZ PROC NEAR			; O3D_ELEMENT::O3D_ELEMENT, COMDAT
; _this$ = ecx
  00000	8b c1		 mov	 eax, ecx
  00002	c3		 ret	 0
??0O3D_ELEMENT@@QAE@XZ ENDP				; O3D_ELEMENT::O3D_ELEMENT
_TEXT	ENDS
PUBLIC	?Init@CModelObject@@AAEXH@Z			; CModelObject::Init
; Function compile flags: /Ogty
; File c:\documents and settings\test\mes documents\source\virtuos_v17\build\program\_common\modelobject.cpp
;	COMDAT ?Init@CModelObject@@AAEXH@Z
_TEXT	SEGMENT
_nIdx$ = 8						; size = 4
?Init@CModelObject@@AAEXH@Z PROC NEAR			; CModelObject::Init, COMDAT
; _this$ = ecx

; 102  : 	if( nIdx < 0 )	return;

  00000	8b 44 24 04	 mov	 eax, DWORD PTR _nIdx$[esp-4]
  00004	55		 push	 ebp
  00005	56		 push	 esi
  00006	33 f6		 xor	 esi, esi
  00008	3b c6		 cmp	 eax, esi
  0000a	8b e9		 mov	 ebp, ecx
  0000c	0f 8c 19 02 00
	00		 jl	 $L228332

; 103  : 	memset( &m_Element[nIdx], 0, sizeof(O3D_ELEMENT) );

  00012	69 c0 fc 01 00
	00		 imul	 eax, 508		; 000001fcH
  00018	8d 14 28	 lea	 edx, DWORD PTR [eax+ebp]
  0001b	53		 push	 ebx
  0001c	8d 9a d4 00 00
	00		 lea	 ebx, DWORD PTR [edx+212]
  00022	57		 push	 edi
  00023	33 c0		 xor	 eax, eax
  00025	b9 7f 00 00 00	 mov	 ecx, 127		; 0000007fH
  0002a	8b fb		 mov	 edi, ebx
  0002c	f3 ab		 rep stosd

; 104  : 	m_Element[nIdx].m_nParentIdx = -1;

  0002e	c7 03 ff ff ff
	ff		 mov	 DWORD PTR [ebx], -1

; 105  : 	m_Element[nIdx].m_nPartsIdx = -1;

  00034	c7 82 cc 02 00
	00 ff ff ff ff	 mov	 DWORD PTR [edx+716], -1

; 106  : 	D3DXMatrixIdentity( &m_Element[nIdx].m_mLocalRH );

  0003e	89 b2 54 01 00
	00		 mov	 DWORD PTR [edx+340], esi
  00044	89 b2 50 01 00
	00		 mov	 DWORD PTR [edx+336], esi
  0004a	89 b2 4c 01 00
	00		 mov	 DWORD PTR [edx+332], esi
  00050	89 b2 48 01 00
	00		 mov	 DWORD PTR [edx+328], esi
  00056	89 b2 40 01 00
	00		 mov	 DWORD PTR [edx+320], esi
  0005c	89 b2 3c 01 00
	00		 mov	 DWORD PTR [edx+316], esi
  00062	89 b2 38 01 00
	00		 mov	 DWORD PTR [edx+312], esi
  00068	89 b2 34 01 00
	00		 mov	 DWORD PTR [edx+308], esi
  0006e	89 b2 2c 01 00
	00		 mov	 DWORD PTR [edx+300], esi
  00074	89 b2 28 01 00
	00		 mov	 DWORD PTR [edx+296], esi
  0007a	89 b2 24 01 00
	00		 mov	 DWORD PTR [edx+292], esi
  00080	89 b2 20 01 00
	00		 mov	 DWORD PTR [edx+288], esi
  00086	b8 00 00 80 3f	 mov	 eax, 1065353216		; 3f800000H
  0008b	89 82 58 01 00
	00		 mov	 DWORD PTR [edx+344], eax
  00091	89 82 44 01 00
	00		 mov	 DWORD PTR [edx+324], eax
  00097	89 82 30 01 00
	00		 mov	 DWORD PTR [edx+304], eax
  0009d	89 82 1c 01 00
	00		 mov	 DWORD PTR [edx+284], eax

; 107  : 	D3DXMatrixIdentity( &m_Element[nIdx].m_mLocalLH );

  000a3	89 b2 94 01 00
	00		 mov	 DWORD PTR [edx+404], esi
  000a9	89 b2 90 01 00
	00		 mov	 DWORD PTR [edx+400], esi
  000af	89 b2 8c 01 00
	00		 mov	 DWORD PTR [edx+396], esi
  000b5	89 b2 88 01 00
	00		 mov	 DWORD PTR [edx+392], esi
  000bb	89 b2 80 01 00
	00		 mov	 DWORD PTR [edx+384], esi
  000c1	89 b2 7c 01 00
	00		 mov	 DWORD PTR [edx+380], esi
  000c7	89 b2 78 01 00
	00		 mov	 DWORD PTR [edx+376], esi
  000cd	89 b2 74 01 00
	00		 mov	 DWORD PTR [edx+372], esi
  000d3	89 b2 6c 01 00
	00		 mov	 DWORD PTR [edx+364], esi
  000d9	89 b2 68 01 00
	00		 mov	 DWORD PTR [edx+360], esi
  000df	89 b2 64 01 00
	00		 mov	 DWORD PTR [edx+356], esi
  000e5	89 b2 60 01 00
	00		 mov	 DWORD PTR [edx+352], esi
  000eb	89 82 98 01 00
	00		 mov	 DWORD PTR [edx+408], eax
  000f1	89 82 84 01 00
	00		 mov	 DWORD PTR [edx+388], eax
  000f7	89 82 70 01 00
	00		 mov	 DWORD PTR [edx+368], eax
  000fd	89 82 5c 01 00
	00		 mov	 DWORD PTR [edx+348], eax

; 108  : 	D3DXMatrixIdentity( &m_Element[nIdx].m_mLocalShield );

  00103	89 b2 d4 01 00
	00		 mov	 DWORD PTR [edx+468], esi
  00109	89 b2 d0 01 00
	00		 mov	 DWORD PTR [edx+464], esi
  0010f	89 b2 cc 01 00
	00		 mov	 DWORD PTR [edx+460], esi
  00115	89 b2 c8 01 00
	00		 mov	 DWORD PTR [edx+456], esi
  0011b	89 b2 c0 01 00
	00		 mov	 DWORD PTR [edx+448], esi
  00121	89 b2 bc 01 00
	00		 mov	 DWORD PTR [edx+444], esi
  00127	89 b2 b8 01 00
	00		 mov	 DWORD PTR [edx+440], esi
  0012d	89 b2 b4 01 00
	00		 mov	 DWORD PTR [edx+436], esi
  00133	89 b2 ac 01 00
	00		 mov	 DWORD PTR [edx+428], esi
  00139	89 b2 a8 01 00
	00		 mov	 DWORD PTR [edx+424], esi
  0013f	89 b2 a4 01 00
	00		 mov	 DWORD PTR [edx+420], esi
  00145	89 b2 a0 01 00
	00		 mov	 DWORD PTR [edx+416], esi
  0014b	89 82 d8 01 00
	00		 mov	 DWORD PTR [edx+472], eax
  00151	89 82 c4 01 00
	00		 mov	 DWORD PTR [edx+452], eax
  00157	89 82 b0 01 00
	00		 mov	 DWORD PTR [edx+432], eax
  0015d	89 82 9c 01 00
	00		 mov	 DWORD PTR [edx+412], eax

; 109  : 	D3DXMatrixIdentity( &m_Element[nIdx].m_mLocalKnuckle );

  00163	89 b2 14 02 00
	00		 mov	 DWORD PTR [edx+532], esi
  00169	89 b2 10 02 00
	00		 mov	 DWORD PTR [edx+528], esi
  0016f	89 b2 0c 02 00
	00		 mov	 DWORD PTR [edx+524], esi
  00175	89 b2 08 02 00
	00		 mov	 DWORD PTR [edx+520], esi
  0017b	89 b2 00 02 00
	00		 mov	 DWORD PTR [edx+512], esi
  00181	89 b2 fc 01 00
	00		 mov	 DWORD PTR [edx+508], esi
  00187	89 b2 f8 01 00
	00		 mov	 DWORD PTR [edx+504], esi
  0018d	89 b2 f4 01 00
	00		 mov	 DWORD PTR [edx+500], esi
  00193	89 b2 ec 01 00
	00		 mov	 DWORD PTR [edx+492], esi
  00199	89 b2 e8 01 00
	00		 mov	 DWORD PTR [edx+488], esi
  0019f	89 b2 e4 01 00
	00		 mov	 DWORD PTR [edx+484], esi
  001a5	89 b2 e0 01 00
	00		 mov	 DWORD PTR [edx+480], esi
  001ab	89 82 18 02 00
	00		 mov	 DWORD PTR [edx+536], eax
  001b1	89 82 04 02 00
	00		 mov	 DWORD PTR [edx+516], eax
  001b7	89 82 f0 01 00
	00		 mov	 DWORD PTR [edx+496], eax
  001bd	89 82 dc 01 00
	00		 mov	 DWORD PTR [edx+476], eax

; 110  : 	D3DXMatrixIdentity( &m_Element[nIdx].m_mLocalTM );

  001c3	89 b2 14 01 00
	00		 mov	 DWORD PTR [edx+276], esi
  001c9	89 b2 10 01 00
	00		 mov	 DWORD PTR [edx+272], esi
  001cf	89 b2 0c 01 00
	00		 mov	 DWORD PTR [edx+268], esi
  001d5	89 b2 08 01 00
	00		 mov	 DWORD PTR [edx+264], esi
  001db	89 b2 00 01 00
	00		 mov	 DWORD PTR [edx+256], esi
  001e1	5f		 pop	 edi
  001e2	89 b2 fc 00 00
	00		 mov	 DWORD PTR [edx+252], esi
  001e8	89 b2 f8 00 00
	00		 mov	 DWORD PTR [edx+248], esi
  001ee	89 b2 f4 00 00
	00		 mov	 DWORD PTR [edx+244], esi
  001f4	89 b2 ec 00 00
	00		 mov	 DWORD PTR [edx+236], esi
  001fa	89 b2 e8 00 00
	00		 mov	 DWORD PTR [edx+232], esi
  00200	89 b2 e4 00 00
	00		 mov	 DWORD PTR [edx+228], esi
  00206	89 b2 e0 00 00
	00		 mov	 DWORD PTR [edx+224], esi
  0020c	89 82 18 01 00
	00		 mov	 DWORD PTR [edx+280], eax
  00212	89 82 04 01 00
	00		 mov	 DWORD PTR [edx+260], eax
  00218	89 82 f0 00 00
	00		 mov	 DWORD PTR [edx+240], eax
  0021e	89 82 dc 00 00
	00		 mov	 DWORD PTR [edx+220], eax

; 111  : 
; 112  : 	m_nFrameOld = 0;

  00224	89 b5 98 2a 00
	00		 mov	 DWORD PTR [ebp+10904], esi
  0022a	5b		 pop	 ebx
$L228332:
  0022b	5e		 pop	 esi
  0022c	5d		 pop	 ebp

; 113  : }

  0022d	c2 04 00	 ret	 4
?Init@CModelObject@@AAEXH@Z ENDP			; CModelObject::Init
_TEXT	ENDS
PUBLIC	??_C@_0BK@LAMMKEEK@obj_guildcombatground?4o3d?$AA@ ; `string'
PUBLIC	?TestIntersectionOBB_Line@CModelObject@@UAEHABVSegment3@@PBVCObj@@H@Z ; CModelObject::TestIntersectionOBB_Line
EXTRN	?IntrSegment3Box3_Test@@YA_NABVSegment3@@ABVBBOX@@@Z:NEAR ; IntrSegment3Box3_Test
;	COMDAT ??_C@_0BK@LAMMKEEK@obj_guildcombatground?4o3d?$AA@
; File c:\documents and settings\test\mes documents\source\virtuos_v17\build\program\_common\modelobject.h
CONST	SEGMENT
??_C@_0BK@LAMMKEEK@obj_guildcombatground?4o3d?$AA@ DB 'obj_guildcombatgro'
	DB	'und.o3d', 00H				; `string'
; Function compile flags: /Ogty
; File c:\documents and settings\test\mes documents\source\virtuos_v17\build\program\_common\modelobject.cpp
CONST	ENDS
;	COMDAT ?TestIntersectionOBB_Line@CModelObject@@UAEHABVSegment3@@PBVCObj@@H@Z
_TEXT	SEGMENT
_segment$ = 8						; size = 4
_pObj$ = 12						; size = 4
_bNeedCollObject$ = 16					; size = 4
?TestIntersectionOBB_Line@CModelObject@@UAEHABVSegment3@@PBVCObj@@H@Z PROC NEAR ; CModelObject::TestIntersectionOBB_Line, COMDAT
; _this$ = ecx

; 401  : 	CObject3D *pObject3D = m_Element[0].m_pObject3D;
; 402  : 	if( pObject3D->m_CollObject.m_Type == GMT_ERROR && bNeedCollObject )	//    .

  00000	8b 81 d8 00 00
	00		 mov	 eax, DWORD PTR [ecx+216]
  00006	83 b8 00 01 00
	00 ff		 cmp	 DWORD PTR [eax+256], -1
  0000d	75 0d		 jne	 SHORT $L228408
  0000f	8b 44 24 0c	 mov	 eax, DWORD PTR _bNeedCollObject$[esp-4]
  00013	85 c0		 test	 eax, eax
  00015	74 05		 je	 SHORT $L228408

; 403  : 		return FALSE;

  00017	33 c0		 xor	 eax, eax

; 414  : 	#else
; 415  : 		const D3DXMATRIX& mWorld = pObj->GetMatrixWorld();
; 416  : 
; 417  : 		D3DXVECTOR3 vTemp;
; 418  : 		D3DXVECTOR3 vStart, vEnd;
; 419  : 		vStart = segment.Origin - segment.Extent * segment.Direction;
; 420  : 		vEnd   = segment.Origin + segment.Extent * segment.Direction;
; 421  : 		return ::IsTouchOBB_Line( m_vMin, m_vMax, mWorld, vStart, vEnd, &vTemp );
; 422  : 	#endif
; 423  : }

  00019	c2 0c 00	 ret	 12			; 0000000cH
$L228408:

; 404  : #if __VER >= 11 // __FIX_COLLISION
; 405  : 	//       ..   .. 
; 406  : 	char* pString = ((CModelObject *)pObj->m_pModel)->GetObject3D()->m_szFileName;

  0001c	8b 44 24 08	 mov	 eax, DWORD PTR _pObj$[esp-4]
  00020	8b 88 78 01 00
	00		 mov	 ecx, DWORD PTR [eax+376]
  00026	56		 push	 esi
  00027	57		 push	 edi
  00028	8b b9 d8 00 00
	00		 mov	 edi, DWORD PTR [ecx+216]
  0002e	81 c7 c0 00 00
	00		 add	 edi, 192		; 000000c0H

; 407  : 	if( strcmp("obj_guildcombatground.o3d", pString) == 0 )

  00034	be 00 00 00 00	 mov	 esi, OFFSET FLAT:??_C@_0BK@LAMMKEEK@obj_guildcombatground?4o3d?$AA@
  00039	b9 1a 00 00 00	 mov	 ecx, 26			; 0000001aH
  0003e	33 d2		 xor	 edx, edx
  00040	f3 a6		 repe cmpsb
  00042	5f		 pop	 edi
  00043	5e		 pop	 esi
  00044	75 08		 jne	 SHORT $L228411

; 408  : 	{
; 409  : 		return TRUE;

  00046	b8 01 00 00 00	 mov	 eax, 1

; 414  : 	#else
; 415  : 		const D3DXMATRIX& mWorld = pObj->GetMatrixWorld();
; 416  : 
; 417  : 		D3DXVECTOR3 vTemp;
; 418  : 		D3DXVECTOR3 vStart, vEnd;
; 419  : 		vStart = segment.Origin - segment.Extent * segment.Direction;
; 420  : 		vEnd   = segment.Origin + segment.Extent * segment.Direction;
; 421  : 		return ::IsTouchOBB_Line( m_vMin, m_vMax, mWorld, vStart, vEnd, &vTemp );
; 422  : 	#endif
; 423  : }

  0004b	c2 0c 00	 ret	 12			; 0000000cH
$L228411:

; 410  : 	}
; 411  : #endif
; 412  : 	#ifdef __CPU_UTILDOWN_060502	//sun!!
; 413  : 		return IntrSegment3Box3_Test( segment, pObj->m_OBB );

  0004e	05 24 01 00 00	 add	 eax, 292		; 00000124H
  00053	50		 push	 eax
  00054	8b 44 24 08	 mov	 eax, DWORD PTR _segment$[esp]
  00058	50		 push	 eax
  00059	e8 00 00 00 00	 call	 ?IntrSegment3Box3_Test@@YA_NABVSegment3@@ABVBBOX@@@Z ; IntrSegment3Box3_Test
  0005e	83 c4 08	 add	 esp, 8
  00061	0f b6 c0	 movzx	 eax, al

; 414  : 	#else
; 415  : 		const D3DXMATRIX& mWorld = pObj->GetMatrixWorld();
; 416  : 
; 417  : 		D3DXVECTOR3 vTemp;
; 418  : 		D3DXVECTOR3 vStart, vEnd;
; 419  : 		vStart = segment.Origin - segment.Extent * segment.Direction;
; 420  : 		vEnd   = segment.Origin + segment.Extent * segment.Direction;
; 421  : 		return ::IsTouchOBB_Line( m_vMin, m_vMax, mWorld, vStart, vEnd, &vTemp );
; 422  : 	#endif
; 423  : }

  00064	c2 0c 00	 ret	 12			; 0000000cH
?TestIntersectionOBB_Line@CModelObject@@UAEHABVSegment3@@PBVCObj@@H@Z ENDP ; CModelObject::TestIntersectionOBB_Line
_TEXT	ENDS
PUBLIC	?Destroy@CModelObject@@AAEHH@Z			; CModelObject::Destroy
EXTRN	?DeleteObject3D@CObject3DMng@@QAEHPAVCObject3D@@@Z:NEAR ; CObject3DMng::DeleteObject3D
EXTRN	?g_Object3DMng@@3VCObject3DMng@@A:BYTE		; g_Object3DMng
EXTRN	??_V@YAXPAX@Z:NEAR				; operator delete[]
; Function compile flags: /Ogty
;	COMDAT ?Destroy@CModelObject@@AAEHH@Z
_TEXT	SEGMENT
_nIdx$ = 8						; size = 4
?Destroy@CModelObject@@AAEHH@Z PROC NEAR		; CModelObject::Destroy, COMDAT
; _this$ = ecx

; 427  : {

  00000	53		 push	 ebx
  00001	55		 push	 ebp

; 428  : 	if( nIdx < 0 )	return FALSE;

  00002	8b 6c 24 0c	 mov	 ebp, DWORD PTR _nIdx$[esp+4]
  00006	85 ed		 test	 ebp, ebp
  00008	8b d9		 mov	 ebx, ecx
  0000a	7d 07		 jge	 SHORT $L228417
  0000c	5d		 pop	 ebp
  0000d	33 c0		 xor	 eax, eax
  0000f	5b		 pop	 ebx

; 456  : }

  00010	c2 04 00	 ret	 4
$L228417:

; 429  : 	O3D_ELEMENT	*pElem = &m_Element[ nIdx ];

  00013	8b c5		 mov	 eax, ebp
  00015	69 c0 fc 01 00
	00		 imul	 eax, 508		; 000001fcH
  0001b	56		 push	 esi
  0001c	8d b4 18 d4 00
	00 00		 lea	 esi, DWORD PTR [eax+ebx+212]

; 430  : 	int		i;
; 431  : 
; 432  : 	if( pElem->m_pObject3D )

  00023	8b 46 04	 mov	 eax, DWORD PTR [esi+4]
  00026	85 c0		 test	 eax, eax
  00028	0f 84 59 01 00
	00		 je	 $L228420

; 433  : 	{
; 434  : 		if( pElem->m_ppd3d_VB )

  0002e	8b 8e 48 01 00
	00		 mov	 ecx, DWORD PTR [esi+328]
  00034	85 c9		 test	 ecx, ecx
  00036	0f 84 2a 01 00
	00		 je	 $L228434

; 435  : 		{
; 436  : 			pElem->m_pObject3D->SetLOD(0);

  0003c	8d 48 04	 lea	 ecx, DWORD PTR [eax+4]
  0003f	89 08		 mov	 DWORD PTR [eax], ecx

; 437  : 			for( i = 0; i < pElem->m_pObject3D->GetMaxObject(); i ++ )		// 

  00041	8b 56 04	 mov	 edx, DWORD PTR [esi+4]
  00044	8b 02		 mov	 eax, DWORD PTR [edx]
  00046	8b 08		 mov	 ecx, DWORD PTR [eax]
  00048	57		 push	 edi
  00049	33 ff		 xor	 edi, edi
  0004b	85 c9		 test	 ecx, ecx
  0004d	7e 31		 jle	 SHORT $L228424
  0004f	90		 npad	 1
$L230699:
  00050	8b 8e 4c 01 00
	00		 mov	 ecx, DWORD PTR [esi+332]
  00056	8d 04 b9	 lea	 eax, DWORD PTR [ecx+edi*4]

; 438  : 				SAFE_RELEASE( pElem->m_ppd3d_VB1[i] );

  00059	8b 08		 mov	 ecx, DWORD PTR [eax]
  0005b	85 c9		 test	 ecx, ecx
  0005d	74 15		 je	 SHORT $L228423
  0005f	8b c1		 mov	 eax, ecx
  00061	8b 10		 mov	 edx, DWORD PTR [eax]
  00063	50		 push	 eax
  00064	ff 52 08	 call	 DWORD PTR [edx+8]
  00067	8b 86 4c 01 00
	00		 mov	 eax, DWORD PTR [esi+332]
  0006d	c7 04 b8 00 00
	00 00		 mov	 DWORD PTR [eax+edi*4], 0
$L228423:
  00074	8b 4e 04	 mov	 ecx, DWORD PTR [esi+4]
  00077	8b 11		 mov	 edx, DWORD PTR [ecx]
  00079	8b 02		 mov	 eax, DWORD PTR [edx]
  0007b	47		 inc	 edi
  0007c	3b f8		 cmp	 edi, eax
  0007e	7c d0		 jl	 SHORT $L230699
$L228424:

; 439  : 			pElem->m_pObject3D->SetLOD(1);

  00080	8b 46 04	 mov	 eax, DWORD PTR [esi+4]
  00083	8b 90 b4 00 00
	00		 mov	 edx, DWORD PTR [eax+180]
  00089	85 d2		 test	 edx, edx
  0008b	b9 01 00 00 00	 mov	 ecx, 1
  00090	75 02		 jne	 SHORT $L230666
  00092	33 c9		 xor	 ecx, ecx
$L230666:
  00094	8d 0c 49	 lea	 ecx, DWORD PTR [ecx+ecx*2]
  00097	8d 54 88 04	 lea	 edx, DWORD PTR [eax+ecx*4+4]
  0009b	89 10		 mov	 DWORD PTR [eax], edx

; 440  : 			for( i = 0; i < pElem->m_pObject3D->GetMaxObject(); i ++ )

  0009d	8b 46 04	 mov	 eax, DWORD PTR [esi+4]
  000a0	8b 08		 mov	 ecx, DWORD PTR [eax]
  000a2	8b 01		 mov	 eax, DWORD PTR [ecx]
  000a4	33 ff		 xor	 edi, edi
  000a6	85 c0		 test	 eax, eax
  000a8	7e 37		 jle	 SHORT $L228428
  000aa	8d 9b 00 00 00
	00		 npad	 6
$L230700:
  000b0	8b 96 50 01 00
	00		 mov	 edx, DWORD PTR [esi+336]

; 441  : 				SAFE_RELEASE( pElem->m_ppd3d_VB2[i] );

  000b6	8b 0c ba	 mov	 ecx, DWORD PTR [edx+edi*4]
  000b9	85 c9		 test	 ecx, ecx
  000bb	8d 04 ba	 lea	 eax, DWORD PTR [edx+edi*4]
  000be	74 15		 je	 SHORT $L228427
  000c0	8b c1		 mov	 eax, ecx
  000c2	8b 08		 mov	 ecx, DWORD PTR [eax]
  000c4	50		 push	 eax
  000c5	ff 51 08	 call	 DWORD PTR [ecx+8]
  000c8	8b 96 50 01 00
	00		 mov	 edx, DWORD PTR [esi+336]
  000ce	c7 04 ba 00 00
	00 00		 mov	 DWORD PTR [edx+edi*4], 0
$L228427:
  000d5	8b 46 04	 mov	 eax, DWORD PTR [esi+4]
  000d8	8b 08		 mov	 ecx, DWORD PTR [eax]
  000da	8b 01		 mov	 eax, DWORD PTR [ecx]
  000dc	47		 inc	 edi
  000dd	3b f8		 cmp	 edi, eax
  000df	7c cf		 jl	 SHORT $L230700
$L228428:

; 442  : 			pElem->m_pObject3D->SetLOD(2);

  000e1	8b 46 04	 mov	 eax, DWORD PTR [esi+4]
  000e4	8b 90 b4 00 00
	00		 mov	 edx, DWORD PTR [eax+180]
  000ea	85 d2		 test	 edx, edx
  000ec	b9 02 00 00 00	 mov	 ecx, 2
  000f1	75 02		 jne	 SHORT $L230678
  000f3	33 c9		 xor	 ecx, ecx
$L230678:
  000f5	8d 14 49	 lea	 edx, DWORD PTR [ecx+ecx*2]
  000f8	8d 4c 90 04	 lea	 ecx, DWORD PTR [eax+edx*4+4]
  000fc	89 08		 mov	 DWORD PTR [eax], ecx

; 443  : 			for( i = 0; i < pElem->m_pObject3D->GetMaxObject(); i ++ )

  000fe	8b 56 04	 mov	 edx, DWORD PTR [esi+4]
  00101	8b 02		 mov	 eax, DWORD PTR [edx]
  00103	8b 08		 mov	 ecx, DWORD PTR [eax]
  00105	33 ff		 xor	 edi, edi
  00107	85 c9		 test	 ecx, ecx
  00109	7e 35		 jle	 SHORT $L228432
  0010b	eb 03 8d 49 00	 npad	 5
$L230701:
  00110	8b 8e 54 01 00
	00		 mov	 ecx, DWORD PTR [esi+340]
  00116	8d 04 b9	 lea	 eax, DWORD PTR [ecx+edi*4]

; 444  : 				SAFE_RELEASE( pElem->m_ppd3d_VB3[i] );

  00119	8b 08		 mov	 ecx, DWORD PTR [eax]
  0011b	85 c9		 test	 ecx, ecx
  0011d	74 15		 je	 SHORT $L228431
  0011f	8b c1		 mov	 eax, ecx
  00121	8b 10		 mov	 edx, DWORD PTR [eax]
  00123	50		 push	 eax
  00124	ff 52 08	 call	 DWORD PTR [edx+8]
  00127	8b 86 54 01 00
	00		 mov	 eax, DWORD PTR [esi+340]
  0012d	c7 04 b8 00 00
	00 00		 mov	 DWORD PTR [eax+edi*4], 0
$L228431:
  00134	8b 4e 04	 mov	 ecx, DWORD PTR [esi+4]
  00137	8b 11		 mov	 edx, DWORD PTR [ecx]
  00139	8b 02		 mov	 eax, DWORD PTR [edx]
  0013b	47		 inc	 edi
  0013c	3b f8		 cmp	 edi, eax
  0013e	7c d0		 jl	 SHORT $L230701
$L228432:

; 445  : 			pElem->m_pObject3D->SetLOD(0);

  00140	8b 46 04	 mov	 eax, DWORD PTR [esi+4]
  00143	8d 48 04	 lea	 ecx, DWORD PTR [eax+4]
  00146	89 08		 mov	 DWORD PTR [eax], ecx

; 446  : 			
; 447  : 			SAFE_DELETE_ARRAY( pElem->m_ppd3d_VB );		//     .

  00148	8b 86 48 01 00
	00		 mov	 eax, DWORD PTR [esi+328]
  0014e	85 c0		 test	 eax, eax
  00150	5f		 pop	 edi
  00151	74 13		 je	 SHORT $L228434
  00153	50		 push	 eax
  00154	e8 00 00 00 00	 call	 ??_V@YAXPAX@Z		; operator delete[]
  00159	83 c4 04	 add	 esp, 4
  0015c	c7 86 48 01 00
	00 00 00 00 00	 mov	 DWORD PTR [esi+328], 0
$L228434:

; 448  : 		}
; 449  : 		g_Object3DMng.DeleteObject3D( pElem->m_pObject3D );	// pObject3D     .

  00166	8b 56 04	 mov	 edx, DWORD PTR [esi+4]
  00169	52		 push	 edx
  0016a	b9 00 00 00 00	 mov	 ecx, OFFSET FLAT:?g_Object3DMng@@3VCObject3DMng@@A
  0016f	e8 00 00 00 00	 call	 ?DeleteObject3D@CObject3DMng@@QAEHPAVCObject3D@@@Z ; CObject3DMng::DeleteObject3D

; 450  : 
; 451  : 		Init( nIdx );

  00174	55		 push	 ebp
  00175	8b cb		 mov	 ecx, ebx
  00177	e8 00 00 00 00	 call	 ?Init@CModelObject@@AAEXH@Z ; CModelObject::Init
  0017c	5e		 pop	 esi
  0017d	5d		 pop	 ebp

; 452  : 		return TRUE;

  0017e	b8 01 00 00 00	 mov	 eax, 1
  00183	5b		 pop	 ebx

; 456  : }

  00184	c2 04 00	 ret	 4
$L228420:

; 453  : 	}
; 454  : 	Init( nIdx );

  00187	55		 push	 ebp
  00188	8b cb		 mov	 ecx, ebx
  0018a	e8 00 00 00 00	 call	 ?Init@CModelObject@@AAEXH@Z ; CModelObject::Init
  0018f	5e		 pop	 esi
  00190	5d		 pop	 ebp

; 455  : 	return FALSE;

  00191	33 c0		 xor	 eax, eax
  00193	5b		 pop	 ebx

; 456  : }

  00194	c2 04 00	 ret	 4
?Destroy@CModelObject@@AAEHH@Z ENDP			; CModelObject::Destroy
_TEXT	ENDS
PUBLIC	??_C@_0CJ@HDCFKCHE@CModelObject?3?3TakeOffParts?5?3?5nPa@ ; `string'
PUBLIC	?TakeOffParts@CModelObject@@QAEXH@Z		; CModelObject::TakeOffParts
;	COMDAT ??_C@_0CJ@HDCFKCHE@CModelObject?3?3TakeOffParts?5?3?5nPa@
; File c:\documents and settings\test\mes documents\source\virtuos_v17\build\program\_common\object3d.h
CONST	SEGMENT
??_C@_0CJ@HDCFKCHE@CModelObject?3?3TakeOffParts?5?3?5nPa@ DB 'CModelObjec'
	DB	't::TakeOffParts : nParts = %d', 00H		; `string'
; Function compile flags: /Ogty
; File c:\documents and settings\test\mes documents\source\virtuos_v17\build\program\_common\modelobject.cpp
CONST	ENDS
;	COMDAT ?TakeOffParts@CModelObject@@QAEXH@Z
_TEXT	SEGMENT
_nIdx$ = -4						; size = 4
_nParts$ = 8						; size = 4
?TakeOffParts@CModelObject@@QAEXH@Z PROC NEAR		; CModelObject::TakeOffParts, COMDAT
; _this$ = ecx

; 480  : {

  00000	51		 push	 ecx
  00001	53		 push	 ebx
  00002	55		 push	 ebp
  00003	57		 push	 edi

; 481  : 	if( nParts < 0 )

  00004	8b 7c 24 14	 mov	 edi, DWORD PTR _nParts$[esp+12]
  00008	33 ed		 xor	 ebp, ebp
  0000a	3b fd		 cmp	 edi, ebp
  0000c	8b d9		 mov	 ebx, ecx
  0000e	7d 0e		 jge	 SHORT $L228445

; 482  : 		Error( "CModelObject::TakeOffParts : nParts = %d", nParts );

  00010	57		 push	 edi
  00011	68 00 00 00 00	 push	 OFFSET FLAT:??_C@_0CJ@HDCFKCHE@CModelObject?3?3TakeOffParts?5?3?5nPa@
  00016	e8 00 00 00 00	 call	 ?Error@@YAPBDPBDZZ	; Error
  0001b	83 c4 08	 add	 esp, 8
$L228445:

; 483  : 
; 484  : 
; 485  : 	//  ,    old     - vampyre
; 486  : 	O3D_ELEMENT	*pElem;
; 487  : 	int nIdx = GetPartsIdx(nParts);

  0001e	8d 8b cc 02 00
	00		 lea	 ecx, DWORD PTR [ebx+716]
  00024	33 c0		 xor	 eax, eax
  00026	8b d1		 mov	 edx, ecx
  00028	56		 push	 esi
  00029	8d a4 24 00 00
	00 00		 npad	 7
$L230743:
  00030	39 3a		 cmp	 DWORD PTR [edx], edi
  00032	74 31		 je	 SHORT $L230804
  00034	40		 inc	 eax
  00035	81 c2 fc 01 00
	00		 add	 edx, 508		; 000001fcH
  0003b	83 f8 15	 cmp	 eax, 21			; 00000015H
  0003e	7c f0		 jl	 SHORT $L230743
  00040	c7 44 24 10 ff
	ff ff ff	 mov	 DWORD PTR _nIdx$[esp+20], -1
$L230741:

; 488  : 	pElem = GetParts(nParts);

  00048	33 c0		 xor	 eax, eax
  0004a	8d 9b 00 00 00
	00		 npad	 6
$L230751:
  00050	39 39		 cmp	 DWORD PTR [ecx], edi
  00052	74 17		 je	 SHORT $L230805
  00054	40		 inc	 eax
  00055	81 c1 fc 01 00
	00		 add	 ecx, 508		; 000001fcH
  0005b	83 f8 15	 cmp	 eax, 21			; 00000015H
  0005e	7c f0		 jl	 SHORT $L230751
  00060	e9 3c 01 00 00	 jmp	 $L230812
$L230804:

; 483  : 
; 484  : 
; 485  : 	//  ,    old     - vampyre
; 486  : 	O3D_ELEMENT	*pElem;
; 487  : 	int nIdx = GetPartsIdx(nParts);

  00065	89 44 24 10	 mov	 DWORD PTR _nIdx$[esp+20], eax
  00069	eb dd		 jmp	 SHORT $L230741
$L230805:

; 488  : 	pElem = GetParts(nParts);

  0006b	69 c0 fc 01 00
	00		 imul	 eax, 508		; 000001fcH
  00071	8d b4 18 d4 00
	00 00		 lea	 esi, DWORD PTR [eax+ebx+212]

; 489  : 	if( pElem && pElem->m_ppd3d_VB )

  00078	3b f5		 cmp	 esi, ebp
  0007a	0f 84 21 01 00
	00		 je	 $L230812
  00080	39 ae 48 01 00
	00		 cmp	 DWORD PTR [esi+328], ebp
  00086	0f 84 15 01 00
	00		 je	 $L230812

; 490  : 	{
; 491  : 		pElem->m_pObject3D->SetLOD(0);

  0008c	8b 46 04	 mov	 eax, DWORD PTR [esi+4]
  0008f	8d 48 04	 lea	 ecx, DWORD PTR [eax+4]
  00092	89 08		 mov	 DWORD PTR [eax], ecx

; 492  : 		for( int j = 0; j < pElem->m_pObject3D->GetMaxObject(); j ++ )		// 

  00094	8b 56 04	 mov	 edx, DWORD PTR [esi+4]
  00097	8b 02		 mov	 eax, DWORD PTR [edx]
  00099	8b 08		 mov	 ecx, DWORD PTR [eax]
  0009b	33 ff		 xor	 edi, edi
  0009d	3b cd		 cmp	 ecx, ebp
  0009f	7e 2c		 jle	 SHORT $L228453
$L228451:
  000a1	8b 8e 4c 01 00
	00		 mov	 ecx, DWORD PTR [esi+332]
  000a7	8d 04 b9	 lea	 eax, DWORD PTR [ecx+edi*4]

; 493  : 			SAFE_RELEASE( pElem->m_ppd3d_VB1[j] );

  000aa	8b 08		 mov	 ecx, DWORD PTR [eax]
  000ac	3b cd		 cmp	 ecx, ebp
  000ae	74 11		 je	 SHORT $L228452
  000b0	8b c1		 mov	 eax, ecx
  000b2	8b 10		 mov	 edx, DWORD PTR [eax]
  000b4	50		 push	 eax
  000b5	ff 52 08	 call	 DWORD PTR [edx+8]
  000b8	8b 86 4c 01 00
	00		 mov	 eax, DWORD PTR [esi+332]
  000be	89 2c b8	 mov	 DWORD PTR [eax+edi*4], ebp
$L228452:
  000c1	8b 4e 04	 mov	 ecx, DWORD PTR [esi+4]
  000c4	8b 11		 mov	 edx, DWORD PTR [ecx]
  000c6	8b 02		 mov	 eax, DWORD PTR [edx]
  000c8	47		 inc	 edi
  000c9	3b f8		 cmp	 edi, eax
  000cb	7c d4		 jl	 SHORT $L228451
$L228453:

; 494  : 		pElem->m_pObject3D->SetLOD(1);

  000cd	8b 46 04	 mov	 eax, DWORD PTR [esi+4]
  000d0	39 a8 b4 00 00
	00		 cmp	 DWORD PTR [eax+180], ebp
  000d6	b9 01 00 00 00	 mov	 ecx, 1
  000db	75 02		 jne	 SHORT $L230772
  000dd	33 c9		 xor	 ecx, ecx
$L230772:
  000df	8d 0c 49	 lea	 ecx, DWORD PTR [ecx+ecx*2]
  000e2	8d 54 88 04	 lea	 edx, DWORD PTR [eax+ecx*4+4]
  000e6	89 10		 mov	 DWORD PTR [eax], edx

; 495  : 		for( j = 0; j < pElem->m_pObject3D->GetMaxObject(); j ++ )

  000e8	8b 46 04	 mov	 eax, DWORD PTR [esi+4]
  000eb	8b 08		 mov	 ecx, DWORD PTR [eax]
  000ed	8b 01		 mov	 eax, DWORD PTR [ecx]
  000ef	33 ff		 xor	 edi, edi
  000f1	3b c5		 cmp	 eax, ebp
  000f3	7e 2d		 jle	 SHORT $L228457
$L228455:
  000f5	8b 96 50 01 00
	00		 mov	 edx, DWORD PTR [esi+336]

; 496  : 			SAFE_RELEASE( pElem->m_ppd3d_VB2[j] );

  000fb	8b 0c ba	 mov	 ecx, DWORD PTR [edx+edi*4]
  000fe	3b cd		 cmp	 ecx, ebp
  00100	8d 04 ba	 lea	 eax, DWORD PTR [edx+edi*4]
  00103	74 11		 je	 SHORT $L228456
  00105	8b c1		 mov	 eax, ecx
  00107	8b 08		 mov	 ecx, DWORD PTR [eax]
  00109	50		 push	 eax
  0010a	ff 51 08	 call	 DWORD PTR [ecx+8]
  0010d	8b 96 50 01 00
	00		 mov	 edx, DWORD PTR [esi+336]
  00113	89 2c ba	 mov	 DWORD PTR [edx+edi*4], ebp
$L228456:
  00116	8b 46 04	 mov	 eax, DWORD PTR [esi+4]
  00119	8b 08		 mov	 ecx, DWORD PTR [eax]
  0011b	8b 01		 mov	 eax, DWORD PTR [ecx]
  0011d	47		 inc	 edi
  0011e	3b f8		 cmp	 edi, eax
  00120	7c d3		 jl	 SHORT $L228455
$L228457:

; 497  : 		pElem->m_pObject3D->SetLOD(2);

  00122	8b 46 04	 mov	 eax, DWORD PTR [esi+4]
  00125	39 a8 b4 00 00
	00		 cmp	 DWORD PTR [eax+180], ebp
  0012b	b9 02 00 00 00	 mov	 ecx, 2
  00130	75 02		 jne	 SHORT $L230784
  00132	33 c9		 xor	 ecx, ecx
$L230784:
  00134	8d 14 49	 lea	 edx, DWORD PTR [ecx+ecx*2]
  00137	8d 4c 90 04	 lea	 ecx, DWORD PTR [eax+edx*4+4]
  0013b	89 08		 mov	 DWORD PTR [eax], ecx

; 498  : 		for( j = 0; j < pElem->m_pObject3D->GetMaxObject(); j ++ )

  0013d	8b 56 04	 mov	 edx, DWORD PTR [esi+4]
  00140	8b 02		 mov	 eax, DWORD PTR [edx]
  00142	8b 08		 mov	 ecx, DWORD PTR [eax]
  00144	33 ff		 xor	 edi, edi
  00146	3b cd		 cmp	 ecx, ebp
  00148	7e 32		 jle	 SHORT $L228461
  0014a	8d 9b 00 00 00
	00		 npad	 6
$L228459:
  00150	8b 8e 54 01 00
	00		 mov	 ecx, DWORD PTR [esi+340]
  00156	8d 04 b9	 lea	 eax, DWORD PTR [ecx+edi*4]

; 499  : 			SAFE_RELEASE( pElem->m_ppd3d_VB3[j] );

  00159	8b 08		 mov	 ecx, DWORD PTR [eax]
  0015b	3b cd		 cmp	 ecx, ebp
  0015d	74 11		 je	 SHORT $L228460
  0015f	8b c1		 mov	 eax, ecx
  00161	8b 10		 mov	 edx, DWORD PTR [eax]
  00163	50		 push	 eax
  00164	ff 52 08	 call	 DWORD PTR [edx+8]
  00167	8b 86 54 01 00
	00		 mov	 eax, DWORD PTR [esi+340]
  0016d	89 2c b8	 mov	 DWORD PTR [eax+edi*4], ebp
$L228460:
  00170	8b 4e 04	 mov	 ecx, DWORD PTR [esi+4]
  00173	8b 11		 mov	 edx, DWORD PTR [ecx]
  00175	8b 02		 mov	 eax, DWORD PTR [edx]
  00177	47		 inc	 edi
  00178	3b f8		 cmp	 edi, eax
  0017a	7c d4		 jl	 SHORT $L228459
$L228461:

; 500  : 		pElem->m_pObject3D->SetLOD(0);

  0017c	8b 46 04	 mov	 eax, DWORD PTR [esi+4]
  0017f	8d 48 04	 lea	 ecx, DWORD PTR [eax+4]
  00182	89 08		 mov	 DWORD PTR [eax], ecx

; 501  : 		SAFE_DELETE_ARRAY( pElem->m_ppd3d_VB );		//     .

  00184	8b 86 48 01 00
	00		 mov	 eax, DWORD PTR [esi+328]
  0018a	3b c5		 cmp	 eax, ebp
  0018c	74 0f		 je	 SHORT $L230811
  0018e	50		 push	 eax
  0018f	e8 00 00 00 00	 call	 ??_V@YAXPAX@Z		; operator delete[]
  00194	83 c4 04	 add	 esp, 4
  00197	89 ae 48 01 00
	00		 mov	 DWORD PTR [esi+328], ebp
$L230811:
  0019d	8b 7c 24 18	 mov	 edi, DWORD PTR _nParts$[esp+16]
$L230812:

; 502  : 	}
; 503  : 
; 504  : 	if(nIdx != -1)

  001a1	83 7c 24 10 ff	 cmp	 DWORD PTR _nIdx$[esp+20], -1
  001a6	5e		 pop	 esi
  001a7	0f 84 d0 00 00
	00		 je	 $L228466

; 505  : 	{
; 506  : 	#if __VER >= 9 // __Y_ADV_ENCHANT_EFFECT
; 507  : 		if( nParts == PARTS_LWEAPON || nParts == PARTS_RWEAPON )

  001ad	83 ff 09	 cmp	 edi, 9
  001b0	74 09		 je	 SHORT $L228468
  001b2	83 ff 0a	 cmp	 edi, 10			; 0000000aH
  001b5	0f 85 b6 00 00
	00		 jne	 $L228497
$L228468:

; 508  : 		{
; 509  : 			m_nEffectCount  = 0;
; 510  : 
; 511  : 			SAFE_DELETE(m_pPartsEffect);

  001bb	8b 8b a0 2a 00
	00		 mov	 ecx, DWORD PTR [ebx+10912]
  001c1	3b cd		 cmp	 ecx, ebp
  001c3	89 ab 80 2a 00
	00		 mov	 DWORD PTR [ebx+10880], ebp
  001c9	74 0c		 je	 SHORT $L228469
  001cb	8b 11		 mov	 edx, DWORD PTR [ecx]
  001cd	6a 01		 push	 1
  001cf	ff 12		 call	 DWORD PTR [edx]
  001d1	89 ab a0 2a 00
	00		 mov	 DWORD PTR [ebx+10912], ebp
$L228469:

; 512  : 			SAFE_DELETE(m_pPartsEffect2);

  001d7	8b 8b a4 2a 00
	00		 mov	 ecx, DWORD PTR [ebx+10916]
  001dd	3b cd		 cmp	 ecx, ebp
  001df	74 0c		 je	 SHORT $L228473
  001e1	8b 01		 mov	 eax, DWORD PTR [ecx]
  001e3	6a 01		 push	 1
  001e5	ff 10		 call	 DWORD PTR [eax]
  001e7	89 ab a4 2a 00
	00		 mov	 DWORD PTR [ebx+10916], ebp
$L228473:

; 513  : #ifdef __NEW_WEAPON_GLOW
; 514  : 			SAFE_DELETE( m_pm_pPartsEffectRegular[0]);

  001ed	8b 8b a8 2a 00
	00		 mov	 ecx, DWORD PTR [ebx+10920]
  001f3	3b cd		 cmp	 ecx, ebp
  001f5	74 0c		 je	 SHORT $L228477
  001f7	8b 11		 mov	 edx, DWORD PTR [ecx]
  001f9	6a 01		 push	 1
  001fb	ff 12		 call	 DWORD PTR [edx]
  001fd	89 ab a8 2a 00
	00		 mov	 DWORD PTR [ebx+10920], ebp
$L228477:

; 515  : 			SAFE_DELETE( m_pm_pPartsEffectRegular[1]);

  00203	8b 8b ac 2a 00
	00		 mov	 ecx, DWORD PTR [ebx+10924]
  00209	3b cd		 cmp	 ecx, ebp
  0020b	74 0c		 je	 SHORT $L228481
  0020d	8b 01		 mov	 eax, DWORD PTR [ecx]
  0020f	6a 01		 push	 1
  00211	ff 10		 call	 DWORD PTR [eax]
  00213	89 ab ac 2a 00
	00		 mov	 DWORD PTR [ebx+10924], ebp
$L228481:

; 516  : 			SAFE_DELETE( m_pm_pPartsEffectElement[0]);

  00219	8b 8b b0 2a 00
	00		 mov	 ecx, DWORD PTR [ebx+10928]
  0021f	3b cd		 cmp	 ecx, ebp
  00221	74 0c		 je	 SHORT $L228485
  00223	8b 11		 mov	 edx, DWORD PTR [ecx]
  00225	6a 01		 push	 1
  00227	ff 12		 call	 DWORD PTR [edx]
  00229	89 ab b0 2a 00
	00		 mov	 DWORD PTR [ebx+10928], ebp
$L228485:

; 517  : 			SAFE_DELETE( m_pm_pPartsEffectElement[1]);

  0022f	8b 8b b4 2a 00
	00		 mov	 ecx, DWORD PTR [ebx+10932]
  00235	3b cd		 cmp	 ecx, ebp
  00237	74 0c		 je	 SHORT $L228489
  00239	8b 01		 mov	 eax, DWORD PTR [ecx]
  0023b	6a 01		 push	 1
  0023d	ff 10		 call	 DWORD PTR [eax]
  0023f	89 ab b4 2a 00
	00		 mov	 DWORD PTR [ebx+10932], ebp
$L228489:

; 518  : #endif // __NEW_WEAPON_GLOW
; 519  : 			SAFE_DELETE(m_pPartsEffect1_Detail);

  00245	8b 8b b8 2a 00
	00		 mov	 ecx, DWORD PTR [ebx+10936]
  0024b	3b cd		 cmp	 ecx, ebp
  0024d	74 0c		 je	 SHORT $L228493
  0024f	8b 11		 mov	 edx, DWORD PTR [ecx]
  00251	6a 01		 push	 1
  00253	ff 12		 call	 DWORD PTR [edx]
  00255	89 ab b8 2a 00
	00		 mov	 DWORD PTR [ebx+10936], ebp
$L228493:

; 520  : 			SAFE_DELETE(m_pPartsEffect2_Detail);

  0025b	8b 8b bc 2a 00
	00		 mov	 ecx, DWORD PTR [ebx+10940]
  00261	3b cd		 cmp	 ecx, ebp
  00263	74 0c		 je	 SHORT $L228497
  00265	8b 01		 mov	 eax, DWORD PTR [ecx]
  00267	6a 01		 push	 1
  00269	ff 10		 call	 DWORD PTR [eax]
  0026b	89 ab bc 2a 00
	00		 mov	 DWORD PTR [ebx+10940], ebp
$L228497:

; 521  : 			//m_pPartsEffect = m_pPartsEffect2 = NULL;
; 522  : 			// m_pPartsEffect1_Detail = NULL;
; 523  : 			// m_pPartsEffect2_Detail = NULL;
; 524  : 		}
; 525  : 	#endif //__Y_ADV_ENCHANT_EFFECT
; 526  : 
; 527  : 		Init( nIdx );

  00271	8b 4c 24 0c	 mov	 ecx, DWORD PTR _nIdx$[esp+16]
  00275	51		 push	 ecx
  00276	8b cb		 mov	 ecx, ebx
  00278	e8 00 00 00 00	 call	 ?Init@CModelObject@@AAEXH@Z ; CModelObject::Init
$L228466:
  0027d	5f		 pop	 edi
  0027e	5d		 pop	 ebp
  0027f	5b		 pop	 ebx

; 528  : 	}
; 529  : }

  00280	59		 pop	 ecx
  00281	c2 04 00	 ret	 4
?TakeOffParts@CModelObject@@QAEXH@Z ENDP		; CModelObject::TakeOffParts
_TEXT	ENDS
PUBLIC	??_C@_0DJ@MLDPDDGA@CModelObject?3?3LoadBone?5?$DL?5?$MA?L?$LJ?L?5?$LK?$LL@ ; `string'
PUBLIC	??_C@_0BC@DADEMEMC@?$CFs?5?3?5?C?$KD?$MA?$LL?5?$LM?v?5?$LO?x?$MA?$LN?$AA@ ; `string'
PUBLIC	?LoadBone@CModelObject@@QAEHPBD@Z		; CModelObject::LoadBone
EXTRN	??_U@YAPAXI@Z:NEAR				; operator new[]
EXTRN	?LoadBone@CBonesMng@@QAEPAVCBones@@PBD@Z:NEAR	; CBonesMng::LoadBone
EXTRN	?g_BonesMng@@3VCBonesMng@@A:BYTE		; g_BonesMng
EXTRN	__except_list:DWORD
EXTRN	___CxxFrameHandler:NEAR
;	COMDAT xdata$x
xdata$x	SEGMENT
$T230830 DD	0ffffffffH
	DD	FLAT:$L230821
$T230825 DD	019930520H
	DD	01H
	DD	FLAT:$T230830
	DD	2 DUP(00H)
	DD	2 DUP(00H)
xdata$x	ENDS
;	COMDAT ??_C@_0DJ@MLDPDDGA@CModelObject?3?3LoadBone?5?$DL?5?$MA?L?$LJ?L?5?$LK?$LL@
CONST	SEGMENT
??_C@_0DJ@MLDPDDGA@CModelObject?3?3LoadBone?5?$DL?5?$MA?L?$LJ?L?5?$LK?$LL@ DB 'C'
	DB	'ModelObject::LoadBone ; ', 0c0H, 0ccH, 0b9H, 0ccH, ' ', 0baH, 0bbH
	DB	0c0H, 0ccH, ' ', 0b7H, 0ceH, 0b5H, 0f9H, 0b5H, 0c7H, 0beH, 0eeH
	DB	' ', 0c0H, 0d6H, 0b4H, 0d9H, '. 0x%08x', 00H	; `string'
CONST	ENDS
;	COMDAT ??_C@_0BC@DADEMEMC@?$CFs?5?3?5?C?$KD?$MA?$LL?5?$LM?v?5?$LO?x?$MA?$LN?$AA@
CONST	SEGMENT
??_C@_0BC@DADEMEMC@?$CFs?5?3?5?C?$KD?$MA?$LL?5?$LM?v?5?$LO?x?$MA?$LN?$AA@ DB '%'
	DB	's : ', 0c3H, 0a3H, 0c0H, 0bbH, ' ', 0bcH, 0f6H, ' ', 0beH, 0f8H
	DB	0c0H, 0bdH, 00H				; `string'
; Function compile flags: /Ogty
CONST	ENDS
;	COMDAT ?LoadBone@CModelObject@@QAEHPBD@Z
_TEXT	SEGMENT
__$EHRec$ = -12						; size = 12
$T230818 = 8						; size = 4
_szFileName$ = 8					; size = 4
?LoadBone@CModelObject@@QAEHPBD@Z PROC NEAR		; CModelObject::LoadBone, COMDAT
; _this$ = ecx

; 535  : {

  00000	64 a1 00 00 00
	00		 mov	 eax, DWORD PTR fs:__except_list
  00006	6a ff		 push	 -1
  00008	68 00 00 00 00	 push	 __ehhandler$?LoadBone@CModelObject@@QAEHPBD@Z
  0000d	50		 push	 eax
  0000e	64 89 25 00 00
	00 00		 mov	 DWORD PTR fs:__except_list, esp
  00015	53		 push	 ebx
  00016	55		 push	 ebp
  00017	8b d9		 mov	 ebx, ecx

; 536  : 	if( m_pBone )

  00019	8b 83 84 2a 00
	00		 mov	 eax, DWORD PTR [ebx+10884]
  0001f	33 ed		 xor	 ebp, ebp
  00021	3b c5		 cmp	 eax, ebp
  00023	56		 push	 esi
  00024	57		 push	 edi
  00025	74 0e		 je	 SHORT $L228505

; 537  : 		Error( "CModelObject::LoadBone ;    . 0x%08x", (int)m_pBone );

  00027	50		 push	 eax
  00028	68 00 00 00 00	 push	 OFFSET FLAT:??_C@_0DJ@MLDPDDGA@CModelObject?3?3LoadBone?5?$DL?5?$MA?L?$LJ?L?5?$LK?$LL@
  0002d	e8 00 00 00 00	 call	 ?Error@@YAPBDPBDZZ	; Error
  00032	83 c4 08	 add	 esp, 8
$L228505:

; 538  : 
; 539  : 	// Bone       .
; 540  : 	m_pBone = g_BonesMng.LoadBone( szFileName );

  00035	8b 74 24 20	 mov	 esi, DWORD PTR _szFileName$[esp+24]
  00039	56		 push	 esi
  0003a	b9 00 00 00 00	 mov	 ecx, OFFSET FLAT:?g_BonesMng@@3VCBonesMng@@A
  0003f	e8 00 00 00 00	 call	 ?LoadBone@CBonesMng@@QAEPAVCBones@@PBD@Z ; CBonesMng::LoadBone

; 541  : 
; 542  : 	//  .
; 543  : 	if( m_pBone == NULL )

  00044	3b c5		 cmp	 eax, ebp
  00046	89 83 84 2a 00
	00		 mov	 DWORD PTR [ebx+10884], eax
  0004c	75 26		 jne	 SHORT $L228508

; 544  : 	{
; 545  : 		LPCTSTR szStr = Error( "%s :   ", szFileName );

  0004e	56		 push	 esi
  0004f	68 00 00 00 00	 push	 OFFSET FLAT:??_C@_0BC@DADEMEMC@?$CFs?5?3?5?C?$KD?$MA?$LL?5?$LM?v?5?$LO?x?$MA?$LN?$AA@
  00054	e8 00 00 00 00	 call	 ?Error@@YAPBDPBDZZ	; Error
  00059	83 c4 08	 add	 esp, 8

; 546  : 		ADDERRORMSG( szStr );
; 547  : 		return FAIL;

  0005c	83 c8 ff	 or	 eax, -1

; 565  : 	}
; 566  : 	return SUCCESS;
; 567  : }

  0005f	8b 4c 24 10	 mov	 ecx, DWORD PTR __$EHRec$[esp+28]
  00063	64 89 0d 00 00
	00 00		 mov	 DWORD PTR fs:__except_list, ecx
  0006a	5f		 pop	 edi
  0006b	5e		 pop	 esi
  0006c	5d		 pop	 ebp
  0006d	5b		 pop	 ebx
  0006e	83 c4 0c	 add	 esp, 12			; 0000000cH
  00071	c2 04 00	 ret	 4
$L228508:

; 548  : 	}
; 549  : 
; 550  : 	m_bSkin = TRUE;		//   

  00074	c7 83 b8 00 00
	00 01 00 00 00	 mov	 DWORD PTR [ebx+184], 1

; 551  : #ifdef _DEBUG
; 552  : 	if( m_mUpdateBone )
; 553  : 		Error( "CModelObject::LoadBone : %s     .", szFileName );
; 554  : #endif
; 555  : 
; 556  : 	//       
; 557  : 	m_mUpdateBone = new D3DXMATRIX[ m_pBone->m_nMaxBone * 2 ];	// Inv   * 2 ,.

  0007e	8b 70 44	 mov	 esi, DWORD PTR [eax+68]
  00081	d1 e6		 shl	 esi, 1
  00083	8b c6		 mov	 eax, esi
  00085	c1 e0 06	 shl	 eax, 6
  00088	50		 push	 eax
  00089	e8 00 00 00 00	 call	 ??_U@YAPAXI@Z		; operator new[]
  0008e	8b f8		 mov	 edi, eax
  00090	83 c4 04	 add	 esp, 4
  00093	89 7c 24 20	 mov	 DWORD PTR $T230818[esp+24], edi
  00097	3b fd		 cmp	 edi, ebp
  00099	89 6c 24 18	 mov	 DWORD PTR __$EHRec$[esp+36], ebp
  0009d	74 10		 je	 SHORT $L230819
  0009f	68 00 00 00 00	 push	 OFFSET FLAT:??0D3DXMATRIX@@QAE@XZ ; D3DXMATRIX::D3DXMATRIX
  000a4	56		 push	 esi
  000a5	6a 40		 push	 64			; 00000040H
  000a7	57		 push	 edi
  000a8	e8 00 00 00 00	 call	 ??_H@YGXPAXIHP6EPAX0@Z@Z
  000ad	eb 02		 jmp	 SHORT $L230820
$L230819:
  000af	33 ff		 xor	 edi, edi
$L230820:

; 558  : 	m_pBaseBoneInv = m_mUpdateBone + m_pBone->m_nMaxBone;

  000b1	8b 83 84 2a 00
	00		 mov	 eax, DWORD PTR [ebx+10884]
  000b7	89 bb 9c 2a 00
	00		 mov	 DWORD PTR [ebx+10908], edi
  000bd	8b 48 44	 mov	 ecx, DWORD PTR [eax+68]
  000c0	c1 e1 06	 shl	 ecx, 6
  000c3	03 cf		 add	 ecx, edi
  000c5	89 8b c8 00 00
	00		 mov	 DWORD PTR [ebx+200], ecx

; 559  : 	
; 560  : 	int		i;
; 561  : 	for( i = 0; i < m_pBone->m_nMaxBone; i ++ )

  000cb	39 68 44	 cmp	 DWORD PTR [eax+68], ebp
  000ce	7e 5e		 jle	 SHORT $L228521
  000d0	33 d2		 xor	 edx, edx
  000d2	33 c0		 xor	 eax, eax
  000d4	eb 0a 8d a4 24
	00 00 00 00 8d
	49 00		 npad	 12
$L228519:

; 562  : 	{
; 563  : 		m_mUpdateBone[i] = m_pBone->m_pBones[i].m_mTM;		//   .

  000e0	8b 8b 84 2a 00
	00		 mov	 ecx, DWORD PTR [ebx+10884]
  000e6	8b 49 48	 mov	 ecx, DWORD PTR [ecx+72]
  000e9	8b bb 9c 2a 00
	00		 mov	 edi, DWORD PTR [ebx+10908]
  000ef	8d 74 01 28	 lea	 esi, DWORD PTR [ecx+eax+40]
  000f3	03 fa		 add	 edi, edx
  000f5	b9 10 00 00 00	 mov	 ecx, 16			; 00000010H
  000fa	f3 a5		 rep movsd

; 564  : 		m_pBaseBoneInv[i] = m_pBone->m_pBones[i].m_mInverseTM;	// Inv  .

  000fc	8b 8b 84 2a 00
	00		 mov	 ecx, DWORD PTR [ebx+10884]
  00102	8b 49 48	 mov	 ecx, DWORD PTR [ecx+72]
  00105	8b bb c8 00 00
	00		 mov	 edi, DWORD PTR [ebx+200]
  0010b	8d 74 01 68	 lea	 esi, DWORD PTR [ecx+eax+104]
  0010f	03 fa		 add	 edi, edx
  00111	b9 10 00 00 00	 mov	 ecx, 16			; 00000010H
  00116	f3 a5		 rep movsd
  00118	8b 8b 84 2a 00
	00		 mov	 ecx, DWORD PTR [ebx+10884]
  0011e	8b 71 44	 mov	 esi, DWORD PTR [ecx+68]
  00121	45		 inc	 ebp
  00122	05 e8 00 00 00	 add	 eax, 232		; 000000e8H
  00127	83 c2 40	 add	 edx, 64			; 00000040H
  0012a	3b ee		 cmp	 ebp, esi
  0012c	7c b2		 jl	 SHORT $L228519
$L228521:

; 565  : 	}
; 566  : 	return SUCCESS;
; 567  : }

  0012e	8b 4c 24 10	 mov	 ecx, DWORD PTR __$EHRec$[esp+28]
  00132	5f		 pop	 edi
  00133	5e		 pop	 esi
  00134	5d		 pop	 ebp
  00135	b8 01 00 00 00	 mov	 eax, 1
  0013a	64 89 0d 00 00
	00 00		 mov	 DWORD PTR fs:__except_list, ecx
  00141	5b		 pop	 ebx
  00142	83 c4 0c	 add	 esp, 12			; 0000000cH
  00145	c2 04 00	 ret	 4
_TEXT	ENDS
;	COMDAT text$x
text$x	SEGMENT
$L230821:
  00000	8b 45 04	 mov	 eax, DWORD PTR $T230818[ebp-4]
  00003	50		 push	 eax
  00004	e8 00 00 00 00	 call	 ??_V@YAXPAX@Z		; operator delete[]
  00009	59		 pop	 ecx
  0000a	c3		 ret	 0
__ehhandler$?LoadBone@CModelObject@@QAEHPBD@Z:
  0000b	b8 00 00 00 00	 mov	 eax, OFFSET FLAT:$T230825
  00010	e9 00 00 00 00	 jmp	 ___CxxFrameHandler
text$x	ENDS
?LoadBone@CModelObject@@QAEHPBD@Z ENDP			; CModelObject::LoadBone
PUBLIC	??_C@_0CE@NAJOOAFP@?$CFs?5?3?5?$LK?$LL?$MA?$LL?5?$LH?N?$LF?y?G?O?A?v?5?$LO?J?$LA?m?5?$LI?p?$LM?G?$MA?$LL?5?$MA@ ; `string'
PUBLIC	??_C@_0DO@MJIKBIFN@CModelObject?3?3LoadElement?5?9?5?$CFs?5b@ ; `string'
PUBLIC	__real@447a0000
PUBLIC	__real@3a83126f
PUBLIC	?LoadMotion@CModelObject@@QAEHPBD@Z		; CModelObject::LoadMotion
EXTRN	__ftol2:NEAR
EXTRN	?LoadMotion@CMotionMng@@QAEPAVCMotion@@PBD@Z:NEAR ; CMotionMng::LoadMotion
EXTRN	?g_MotionMng@@3VCMotionMng@@A:BYTE		; g_MotionMng
;	COMDAT ??_C@_0CE@NAJOOAFP@?$CFs?5?3?5?$LK?$LL?$MA?$LL?5?$LH?N?$LF?y?G?O?A?v?5?$LO?J?$LA?m?5?$LI?p?$LM?G?$MA?$LL?5?$MA@
; File c:\documents and settings\test\mes documents\source\virtuos_v17\build\program\_common\object3d.h
CONST	SEGMENT
??_C@_0CE@NAJOOAFP@?$CFs?5?3?5?$LK?$LL?$MA?$LL?5?$LH?N?$LF?y?G?O?A?v?5?$LO?J?$LA?m?5?$LI?p?$LM?G?$MA?$LL?5?$MA@ DB '%'
	DB	's : ', 0baH, 0bbH, 0c0H, 0bbH, ' ', 0b7H, 0ceH, 0b5H, 0f9H, 0c7H
	DB	0cfH, 0c1H, 0f6H, ' ', 0beH, 0caH, 0b0H, 0edH, ' ', 0b8H, 0f0H
	DB	0bcH, 0c7H, 0c0H, 0bbH, ' ', 0c0H, 0d0H, 0c0H, 0bdH, 00H ; `string'
CONST	ENDS
;	COMDAT __real@447a0000
CONST	SEGMENT
__real@447a0000 DD 0447a0000r			; 1000
CONST	ENDS
;	COMDAT __real@3a83126f
CONST	SEGMENT
__real@3a83126f DD 03a83126fr			; 0.001
CONST	ENDS
;	COMDAT ??_C@_0DO@MJIKBIFN@CModelObject?3?3LoadElement?5?9?5?$CFs?5b@
CONST	SEGMENT
??_C@_0DO@MJIKBIFN@CModelObject?3?3LoadElement?5?9?5?$CFs?5b@ DB 'CModelO'
	DB	'bject::LoadElement - %s bone count(%d) - old count(%d)', 00H ; `string'
; Function compile flags: /Ogty
; File c:\documents and settings\test\mes documents\source\virtuos_v17\build\program\_common\modelobject.cpp
CONST	ENDS
;	COMDAT ?LoadMotion@CModelObject@@QAEHPBD@Z
_TEXT	SEGMENT
tv498 = 8						; size = 4
_szFileName$ = 8					; size = 4
?LoadMotion@CModelObject@@QAEHPBD@Z PROC NEAR		; CModelObject::LoadMotion, COMDAT
; _this$ = ecx

; 575  : {

  00000	56		 push	 esi
  00001	8b f1		 mov	 esi, ecx

; 576  : 	int		i;
; 577  : 	//         .
; 578  : 	if( m_pBone == NULL )		

  00003	8b 86 84 2a 00
	00		 mov	 eax, DWORD PTR [esi+10884]
  00009	85 c0		 test	 eax, eax
  0000b	75 19		 jne	 SHORT $L228527

; 579  : 	{
; 580  : 		Error( "%s :     ", szFileName );

  0000d	8b 44 24 08	 mov	 eax, DWORD PTR _szFileName$[esp]
  00011	50		 push	 eax
  00012	68 00 00 00 00	 push	 OFFSET FLAT:??_C@_0CE@NAJOOAFP@?$CFs?5?3?5?$LK?$LL?$MA?$LL?5?$LH?N?$LF?y?G?O?A?v?5?$LO?J?$LA?m?5?$LI?p?$LM?G?$MA?$LL?5?$MA@
  00017	e8 00 00 00 00	 call	 ?Error@@YAPBDPBDZZ	; Error
  0001c	83 c4 08	 add	 esp, 8

; 581  : 		return FAIL;

  0001f	83 c8 ff	 or	 eax, -1
  00022	5e		 pop	 esi

; 612  : }

  00023	c2 04 00	 ret	 4
$L228527:

; 582  : 	}
; 583  : 	m_pMotionOld = m_pMotion;		//  .

  00026	8b 8e 8c 2a 00
	00		 mov	 ecx, DWORD PTR [esi+10892]

; 584  : 	m_nFrameOld = (int)m_fFrameCurrent;

  0002c	d9 86 a0 00 00
	00		 fld	 DWORD PTR [esi+160]
  00032	53		 push	 ebx
  00033	89 8e 88 2a 00
	00		 mov	 DWORD PTR [esi+10888], ecx
  00039	e8 00 00 00 00	 call	 __ftol2

; 585  : 	// Motion      .
; 586  : 	m_pMotion = g_MotionMng.LoadMotion( szFileName );

  0003e	8b 5c 24 0c	 mov	 ebx, DWORD PTR _szFileName$[esp+4]
  00042	53		 push	 ebx
  00043	b9 00 00 00 00	 mov	 ecx, OFFSET FLAT:?g_MotionMng@@3VCMotionMng@@A
  00048	89 86 98 2a 00
	00		 mov	 DWORD PTR [esi+10904], eax
  0004e	e8 00 00 00 00	 call	 ?LoadMotion@CMotionMng@@QAEPAVCMotion@@PBD@Z ; CMotionMng::LoadMotion

; 587  : 	if( m_pMotion == NULL )		//  .

  00053	85 c0		 test	 eax, eax
  00055	89 86 8c 2a 00
	00		 mov	 DWORD PTR [esi+10892], eax
  0005b	75 08		 jne	 SHORT $L228530
  0005d	5b		 pop	 ebx

; 588  : 	{
; 589  : 		return FAIL;

  0005e	83 c8 ff	 or	 eax, -1
  00061	5e		 pop	 esi

; 612  : }

  00062	c2 04 00	 ret	 4
$L228530:

; 590  : 	}
; 591  : 	if( m_pMotionOld == NULL )

  00065	8b 8e 88 2a 00
	00		 mov	 ecx, DWORD PTR [esi+10888]
  0006b	85 c9		 test	 ecx, ecx
  0006d	75 06		 jne	 SHORT $L228531

; 592  : 		m_pMotionOld = m_pMotion;		//     Old .  NULL   .

  0006f	89 86 88 2a 00
	00		 mov	 DWORD PTR [esi+10888], eax
$L228531:
  00075	57		 push	 edi

; 593  : 
; 594  : 	InitAnimate();

  00076	8b ce		 mov	 ecx, esi
  00078	e8 00 00 00 00	 call	 ?InitAnimate@CModel@@QAEXXZ ; CModel::InitAnimate

; 595  : 
; 596  : 	m_nFrameMax = m_pMotion->GetMaxFrame();

  0007d	8b be 8c 2a 00
	00		 mov	 edi, DWORD PTR [esi+10892]
  00083	8b 57 08	 mov	 edx, DWORD PTR [edi+8]
  00086	89 96 a8 00 00
	00		 mov	 DWORD PTR [esi+168], edx

; 597  : 	m_fPerSlerp = (float)((int)(m_pMotion->m_fPerSlerp * 1000.0f)) / 1000.0f;		//  3     3  ,.

  0008c	d9 47 50	 fld	 DWORD PTR [edi+80]
  0008f	d8 0d 00 00 00
	00		 fmul	 DWORD PTR __real@447a0000
  00095	e8 00 00 00 00	 call	 __ftol2
  0009a	89 44 24 10	 mov	 DWORD PTR tv498[esp+8], eax
  0009e	db 44 24 10	 fild	 DWORD PTR tv498[esp+8]

; 598  : 
; 599  : 	if( m_pMotionOld->m_nMaxBone != m_pMotion->m_nMaxBone )		//      .

  000a2	8b 86 88 2a 00
	00		 mov	 eax, DWORD PTR [esi+10888]
  000a8	d8 0d 00 00 00
	00		 fmul	 DWORD PTR __real@3a83126f
  000ae	d9 9e ac 00 00
	00		 fstp	 DWORD PTR [esi+172]
  000b4	8b 7f 54	 mov	 edi, DWORD PTR [edi+84]
  000b7	8b 40 54	 mov	 eax, DWORD PTR [eax+84]
  000ba	3b c7		 cmp	 eax, edi
  000bc	74 10		 je	 SHORT $L228534

; 600  : 	{
; 601  : 		LPCTSTR szErr = Error( "CModelObject::LoadElement - %s bone count(%d) - old count(%d)", szFileName, m_pMotion->m_nMaxBone, m_pMotionOld->m_nMaxBone );

  000be	50		 push	 eax
  000bf	57		 push	 edi
  000c0	53		 push	 ebx
  000c1	68 00 00 00 00	 push	 OFFSET FLAT:??_C@_0DO@MJIKBIFN@CModelObject?3?3LoadElement?5?9?5?$CFs?5b@
  000c6	e8 00 00 00 00	 call	 ?Error@@YAPBDPBDZZ	; Error
  000cb	83 c4 10	 add	 esp, 16			; 00000010H
$L228534:

; 602  : 		ADDERRORMSG( szErr );
; 603  : 	}
; 604  : 
; 605  : 	//       m_mUpdateBone   .
; 606  : 	for( i = 0; i < MAX_ELEMENT; i ++ )

  000ce	8d 96 d4 02 00
	00		 lea	 edx, DWORD PTR [esi+724]
  000d4	bf 07 00 00 00	 mov	 edi, 7
  000d9	8d a4 24 00 00
	00 00		 npad	 7
$L228538:

; 607  : 	{
; 608  : 		if( m_Element[i].m_pObject3D )

  000e0	8b 82 04 fe ff
	ff		 mov	 eax, DWORD PTR [edx-508]
  000e6	85 c0		 test	 eax, eax
  000e8	74 19		 je	 SHORT $L228539

; 609  : 			m_Element[i].m_pObject3D->SetExternBone( m_mUpdateBone, m_pBaseBoneInv );	//   .

  000ea	8b 58 34	 mov	 ebx, DWORD PTR [eax+52]
  000ed	85 db		 test	 ebx, ebx
  000ef	8b 8e c8 00 00
	00		 mov	 ecx, DWORD PTR [esi+200]
  000f5	75 0c		 jne	 SHORT $L228539
  000f7	8b 9e 9c 2a 00
	00		 mov	 ebx, DWORD PTR [esi+10908]
  000fd	89 58 28	 mov	 DWORD PTR [eax+40], ebx
  00100	89 48 2c	 mov	 DWORD PTR [eax+44], ecx
$L228539:
  00103	8b 02		 mov	 eax, DWORD PTR [edx]
  00105	85 c0		 test	 eax, eax
  00107	74 19		 je	 SHORT $L230850
  00109	8b 58 34	 mov	 ebx, DWORD PTR [eax+52]
  0010c	85 db		 test	 ebx, ebx
  0010e	8b 8e c8 00 00
	00		 mov	 ecx, DWORD PTR [esi+200]
  00114	75 0c		 jne	 SHORT $L230850
  00116	8b 9e 9c 2a 00
	00		 mov	 ebx, DWORD PTR [esi+10908]
  0011c	89 58 28	 mov	 DWORD PTR [eax+40], ebx
  0011f	89 48 2c	 mov	 DWORD PTR [eax+44], ecx
$L230850:
  00122	8b 82 fc 01 00
	00		 mov	 eax, DWORD PTR [edx+508]
  00128	85 c0		 test	 eax, eax
  0012a	74 19		 je	 SHORT $L230851
  0012c	8b 58 34	 mov	 ebx, DWORD PTR [eax+52]
  0012f	85 db		 test	 ebx, ebx
  00131	8b 8e c8 00 00
	00		 mov	 ecx, DWORD PTR [esi+200]
  00137	75 0c		 jne	 SHORT $L230851
  00139	8b 9e 9c 2a 00
	00		 mov	 ebx, DWORD PTR [esi+10908]
  0013f	89 58 28	 mov	 DWORD PTR [eax+40], ebx
  00142	89 48 2c	 mov	 DWORD PTR [eax+44], ecx
$L230851:
  00145	81 c2 f4 05 00
	00		 add	 edx, 1524		; 000005f4H
  0014b	4f		 dec	 edi
  0014c	75 92		 jne	 SHORT $L228538
  0014e	5f		 pop	 edi
  0014f	5b		 pop	 ebx

; 610  : 	}
; 611  : 	return SUCCESS;

  00150	b8 01 00 00 00	 mov	 eax, 1
  00155	5e		 pop	 esi

; 612  : }

  00156	c2 04 00	 ret	 4
?LoadMotion@CModelObject@@QAEHPBD@Z ENDP		; CModelObject::LoadMotion
_TEXT	ENDS
PUBLIC	?SetParent@CModelObject@@QAEXHH@Z		; CModelObject::SetParent
; Function compile flags: /Ogty
;	COMDAT ?SetParent@CModelObject@@QAEXHH@Z
_TEXT	SEGMENT
_nParts$ = 8						; size = 4
_nBoneIdx$ = 12						; size = 4
?SetParent@CModelObject@@QAEXHH@Z PROC NEAR		; CModelObject::SetParent, COMDAT
; _this$ = ecx

; 909  : 	O3D_ELEMENT	*pElem = GetParts( nParts );

  00000	8b 54 24 04	 mov	 edx, DWORD PTR _nParts$[esp-4]
  00004	53		 push	 ebx
  00005	8b d9		 mov	 ebx, ecx
  00007	56		 push	 esi
  00008	33 c0		 xor	 eax, eax
  0000a	8d 8b cc 02 00
	00		 lea	 ecx, DWORD PTR [ebx+716]
$L230865:
  00010	39 11		 cmp	 DWORD PTR [ecx], edx
  00012	74 11		 je	 SHORT $L230889
  00014	40		 inc	 eax
  00015	81 c1 fc 01 00
	00		 add	 ecx, 508		; 000001fcH
  0001b	83 f8 15	 cmp	 eax, 21			; 00000015H
  0001e	7c f0		 jl	 SHORT $L230865
  00020	5e		 pop	 esi
  00021	5b		 pop	 ebx

; 930  : }

  00022	c2 08 00	 ret	 8
$L230889:

; 909  : 	O3D_ELEMENT	*pElem = GetParts( nParts );

  00025	69 c0 fc 01 00
	00		 imul	 eax, 508		; 000001fcH
  0002b	8d 84 18 d4 00
	00 00		 lea	 eax, DWORD PTR [eax+ebx+212]

; 910  : 	if( !pElem )

  00032	85 c0		 test	 eax, eax
  00034	0f 84 9e 00 00
	00		 je	 $L228628

; 911  : 		return;
; 912  : 
; 913  : 
; 914  : 	pElem->m_nParentIdx = nBoneIdx;

  0003a	8b 54 24 10	 mov	 edx, DWORD PTR _nBoneIdx$[esp+4]

; 915  : 	pElem->m_mLocalTM = pElem->m_pObject3D->GetGMOBJECT()->m_mLocalTM;

  0003e	8b 48 04	 mov	 ecx, DWORD PTR [eax+4]
  00041	89 10		 mov	 DWORD PTR [eax], edx
  00043	8b 09		 mov	 ecx, DWORD PTR [ecx]
  00045	8b 71 04	 mov	 esi, DWORD PTR [ecx+4]
  00048	57		 push	 edi
  00049	81 c6 b0 00 00
	00		 add	 esi, 176		; 000000b0H
  0004f	8d 78 08	 lea	 edi, DWORD PTR [eax+8]
  00052	b9 10 00 00 00	 mov	 ecx, 16			; 00000010H
  00057	f3 a5		 rep movsd

; 916  : 
; 917  : 	//     BONE_RHAND   .      .
; 918  : 	//       CModelObject->m_pMotion->m_pBoneInfo[] 0~32  Bip01 R Hand ,
; 919  : 	if( nBoneIdx == GetRHandIdx() )	

  00059	8b 8b 84 2a 00
	00		 mov	 ecx, DWORD PTR [ebx+10884]
  0005f	3b 91 50 01 00
	00		 cmp	 edx, DWORD PTR [ecx+336]
  00065	75 0d		 jne	 SHORT $L228625

; 920  : 		pElem->m_mLocalRH = m_pBone->m_mLocalRH;

  00067	8d 71 50	 lea	 esi, DWORD PTR [ecx+80]
  0006a	8d 78 48	 lea	 edi, DWORD PTR [eax+72]
  0006d	b9 10 00 00 00	 mov	 ecx, 16			; 00000010H
  00072	f3 a5		 rep movsd
$L228625:

; 921  : 
; 922  : 	if( nBoneIdx == GetLHandIdx() )	

  00074	8b 8b 84 2a 00
	00		 mov	 ecx, DWORD PTR [ebx+10884]
  0007a	3b 91 54 01 00
	00		 cmp	 edx, DWORD PTR [ecx+340]
  00080	75 13		 jne	 SHORT $L228626

; 923  : 		pElem->m_mLocalLH = m_pBone->m_mLocalLH;

  00082	8d b1 90 00 00
	00		 lea	 esi, DWORD PTR [ecx+144]
  00088	8d b8 88 00 00
	00		 lea	 edi, DWORD PTR [eax+136]
  0008e	b9 10 00 00 00	 mov	 ecx, 16			; 00000010H
  00093	f3 a5		 rep movsd
$L228626:

; 924  : 	
; 925  : 	if( nBoneIdx == GetLArmIdx() )	

  00095	8b 8b 84 2a 00
	00		 mov	 ecx, DWORD PTR [ebx+10884]
  0009b	3b 91 5c 01 00
	00		 cmp	 edx, DWORD PTR [ecx+348]
  000a1	75 13		 jne	 SHORT $L228627

; 926  : 		pElem->m_mLocalShield = m_pBone->m_mLocalShield;

  000a3	8d b1 d0 00 00
	00		 lea	 esi, DWORD PTR [ecx+208]
  000a9	8d b8 c8 00 00
	00		 lea	 edi, DWORD PTR [eax+200]
  000af	b9 10 00 00 00	 mov	 ecx, 16			; 00000010H
  000b4	f3 a5		 rep movsd
$L228627:

; 927  : 
; 928  : 	if( nBoneIdx == GetRArmIdx() )

  000b6	8b 9b 84 2a 00
	00		 mov	 ebx, DWORD PTR [ebx+10884]
  000bc	3b 93 58 01 00
	00		 cmp	 edx, DWORD PTR [ebx+344]
  000c2	75 13		 jne	 SHORT $L230891

; 929  : 		pElem->m_mLocalKnuckle = m_pBone->m_mLocalKnuckle;

  000c4	8d b3 10 01 00
	00		 lea	 esi, DWORD PTR [ebx+272]
  000ca	8d b8 08 01 00
	00		 lea	 edi, DWORD PTR [eax+264]
  000d0	b9 10 00 00 00	 mov	 ecx, 16			; 00000010H
  000d5	f3 a5		 rep movsd
$L230891:
  000d7	5f		 pop	 edi
$L228628:
  000d8	5e		 pop	 esi
  000d9	5b		 pop	 ebx

; 930  : }

  000da	c2 08 00	 ret	 8
?SetParent@CModelObject@@QAEXHH@Z ENDP			; CModelObject::SetParent
_TEXT	ENDS
PUBLIC	?ClearTextureEx@CModelObject@@QAEXH@Z		; CModelObject::ClearTextureEx
; Function compile flags: /Ogty
;	COMDAT ?ClearTextureEx@CModelObject@@QAEXH@Z
_TEXT	SEGMENT
_nParts$ = 8						; size = 4
?ClearTextureEx@CModelObject@@QAEXH@Z PROC NEAR		; CModelObject::ClearTextureEx, COMDAT
; _this$ = ecx

; 953  : {

  00000	56		 push	 esi

; 954  : 	O3D_ELEMENT* pParts = GetParts(nParts);

  00001	8b 74 24 08	 mov	 esi, DWORD PTR _nParts$[esp]
  00005	33 c0		 xor	 eax, eax
  00007	8d 91 cc 02 00
	00		 lea	 edx, DWORD PTR [ecx+716]
  0000d	8d 49 00	 npad	 3
$L230899:
  00010	39 32		 cmp	 DWORD PTR [edx], esi
  00012	74 10		 je	 SHORT $L230904
  00014	40		 inc	 eax
  00015	81 c2 fc 01 00
	00		 add	 edx, 508		; 000001fcH
  0001b	83 f8 15	 cmp	 eax, 21			; 00000015H
  0001e	7c f0		 jl	 SHORT $L230899
  00020	5e		 pop	 esi

; 958  : }

  00021	c2 04 00	 ret	 4
$L230904:

; 954  : 	O3D_ELEMENT* pParts = GetParts(nParts);

  00024	69 c0 fc 01 00
	00		 imul	 eax, 508		; 000001fcH
  0002a	8d 84 08 d4 00
	00 00		 lea	 eax, DWORD PTR [eax+ecx+212]

; 955  : 	
; 956  : 	if( pParts )

  00031	85 c0		 test	 eax, eax
  00033	74 0a		 je	 SHORT $L228639

; 957  : 		pParts->m_pTextureEx = NULL;

  00035	c7 80 5c 01 00
	00 00 00 00 00	 mov	 DWORD PTR [eax+348], 0
$L228639:
  0003f	5e		 pop	 esi

; 958  : }

  00040	c2 04 00	 ret	 4
?ClearTextureEx@CModelObject@@QAEXH@Z ENDP		; CModelObject::ClearTextureEx
_TEXT	ENDS
PUBLIC	?ChangeTexture@CModelObject@@QAEXHPBD0@Z	; CModelObject::ChangeTexture
; Function compile flags: /Ogty
;	COMDAT ?ChangeTexture@CModelObject@@QAEXHPBD0@Z
_TEXT	SEGMENT
_nParts$ = 8						; size = 4
_szSrc$ = 12						; size = 4
_szDest$ = 16						; size = 4
?ChangeTexture@CModelObject@@QAEXHPBD0@Z PROC NEAR	; CModelObject::ChangeTexture, COMDAT
; _this$ = ecx

; 963  : #ifdef __WORLDSERVER
; 964  : 	return;
; 965  : #endif
; 966  : 
; 967  : 	O3D_ELEMENT* pParts = GetParts(nParts);
; 968  : 	if( pParts )
; 969  : 		pParts->m_pObject3D->ChangeTexture( szSrc, szDest );
; 970  : }

  00000	c2 0c 00	 ret	 12			; 0000000cH
?ChangeTexture@CModelObject@@QAEXHPBD0@Z ENDP		; CModelObject::ChangeTexture
_TEXT	ENDS
PUBLIC	?DeleteDeviceObjects@CModelObject@@UAEJXZ	; CModelObject::DeleteDeviceObjects
; Function compile flags: /Ogty
;	COMDAT ?DeleteDeviceObjects@CModelObject@@UAEJXZ
_TEXT	SEGMENT
?DeleteDeviceObjects@CModelObject@@UAEJXZ PROC NEAR	; CModelObject::DeleteDeviceObjects, COMDAT
; _this$ = ecx

; 1682 : {

  00000	53		 push	 ebx
  00001	56		 push	 esi
  00002	57		 push	 edi

; 1683 : 	int		i, j;
; 1684 : 	O3D_ELEMENT	*pElem;
; 1685 : 	CObject3D				*pObject3D;
; 1686 : 
; 1687 : 	for( i = 0; i < MAX_ELEMENT; i ++ )

  00003	8d b1 d8 00 00
	00		 lea	 esi, DWORD PTR [ecx+216]
  00009	bb 15 00 00 00	 mov	 ebx, 21			; 00000015H
  0000e	8b ff		 npad	 2
$L228691:

; 1688 : 	{
; 1689 : 		pElem = &m_Element[i];
; 1690 : 		pObject3D = pElem->m_pObject3D;

  00010	8b 06		 mov	 eax, DWORD PTR [esi]

; 1691 : 		if( pObject3D )

  00012	85 c0		 test	 eax, eax
  00014	0f 84 1c 01 00
	00		 je	 $L228692

; 1692 : 		{
; 1693 : 			if( pElem->m_ppd3d_VB )

  0001a	8b 8e 44 01 00
	00		 mov	 ecx, DWORD PTR [esi+324]
  00020	85 c9		 test	 ecx, ecx
  00022	0f 84 0e 01 00
	00		 je	 $L228692

; 1694 : 			{
; 1695 : 				pElem->m_pObject3D->SetLOD(0);

  00028	8d 48 04	 lea	 ecx, DWORD PTR [eax+4]
  0002b	89 08		 mov	 DWORD PTR [eax], ecx

; 1696 : 				for( j = 0; j < pElem->m_pObject3D->GetMaxObject(); j ++ )		// 

  0002d	8b 16		 mov	 edx, DWORD PTR [esi]
  0002f	8b 02		 mov	 eax, DWORD PTR [edx]
  00031	8b 08		 mov	 ecx, DWORD PTR [eax]
  00033	33 ff		 xor	 edi, edi
  00035	85 c9		 test	 ecx, ecx
  00037	7e 36		 jle	 SHORT $L228698
  00039	8d a4 24 00 00
	00 00		 npad	 7
$L228696:

; 1697 : 					SAFE_RELEASE( pElem->m_ppd3d_VB1[j] );

  00040	8b 8e 48 01 00
	00		 mov	 ecx, DWORD PTR [esi+328]
  00046	83 3c b9 00	 cmp	 DWORD PTR [ecx+edi*4], 0
  0004a	74 18		 je	 SHORT $L228697
  0004c	8b d1		 mov	 edx, ecx
  0004e	8b 04 ba	 mov	 eax, DWORD PTR [edx+edi*4]
  00051	8b 08		 mov	 ecx, DWORD PTR [eax]
  00053	50		 push	 eax
  00054	ff 51 08	 call	 DWORD PTR [ecx+8]
  00057	8b 96 48 01 00
	00		 mov	 edx, DWORD PTR [esi+328]
  0005d	c7 04 ba 00 00
	00 00		 mov	 DWORD PTR [edx+edi*4], 0
$L228697:
  00064	8b 06		 mov	 eax, DWORD PTR [esi]
  00066	8b 08		 mov	 ecx, DWORD PTR [eax]
  00068	8b 01		 mov	 eax, DWORD PTR [ecx]
  0006a	47		 inc	 edi
  0006b	3b f8		 cmp	 edi, eax
  0006d	7c d1		 jl	 SHORT $L228696
$L228698:

; 1698 : 				pElem->m_pObject3D->SetLOD(1);

  0006f	8b 06		 mov	 eax, DWORD PTR [esi]
  00071	8b 90 b4 00 00
	00		 mov	 edx, DWORD PTR [eax+180]
  00077	85 d2		 test	 edx, edx
  00079	b9 01 00 00 00	 mov	 ecx, 1
  0007e	75 02		 jne	 SHORT $L230929
  00080	33 c9		 xor	 ecx, ecx
$L230929:
  00082	8d 14 49	 lea	 edx, DWORD PTR [ecx+ecx*2]
  00085	8d 4c 90 04	 lea	 ecx, DWORD PTR [eax+edx*4+4]
  00089	89 08		 mov	 DWORD PTR [eax], ecx

; 1699 : 				for( j = 0; j < pElem->m_pObject3D->GetMaxObject(); j ++ )

  0008b	8b 16		 mov	 edx, DWORD PTR [esi]
  0008d	8b 02		 mov	 eax, DWORD PTR [edx]
  0008f	8b 08		 mov	 ecx, DWORD PTR [eax]
  00091	33 ff		 xor	 edi, edi
  00093	85 c9		 test	 ecx, ecx
  00095	7e 38		 jle	 SHORT $L228702
  00097	eb 07 8d a4 24
	00 00 00 00	 npad	 9
$L228700:

; 1700 : 					SAFE_RELEASE( pElem->m_ppd3d_VB2[j] );

  000a0	8b 8e 4c 01 00
	00		 mov	 ecx, DWORD PTR [esi+332]
  000a6	83 3c b9 00	 cmp	 DWORD PTR [ecx+edi*4], 0
  000aa	74 18		 je	 SHORT $L228701
  000ac	8b d1		 mov	 edx, ecx
  000ae	8b 04 ba	 mov	 eax, DWORD PTR [edx+edi*4]
  000b1	8b 08		 mov	 ecx, DWORD PTR [eax]
  000b3	50		 push	 eax
  000b4	ff 51 08	 call	 DWORD PTR [ecx+8]
  000b7	8b 96 4c 01 00
	00		 mov	 edx, DWORD PTR [esi+332]
  000bd	c7 04 ba 00 00
	00 00		 mov	 DWORD PTR [edx+edi*4], 0
$L228701:
  000c4	8b 06		 mov	 eax, DWORD PTR [esi]
  000c6	8b 08		 mov	 ecx, DWORD PTR [eax]
  000c8	8b 01		 mov	 eax, DWORD PTR [ecx]
  000ca	47		 inc	 edi
  000cb	3b f8		 cmp	 edi, eax
  000cd	7c d1		 jl	 SHORT $L228700
$L228702:

; 1701 : 				pElem->m_pObject3D->SetLOD(2);

  000cf	8b 06		 mov	 eax, DWORD PTR [esi]
  000d1	8b 90 b4 00 00
	00		 mov	 edx, DWORD PTR [eax+180]
  000d7	85 d2		 test	 edx, edx
  000d9	b9 02 00 00 00	 mov	 ecx, 2
  000de	75 02		 jne	 SHORT $L230941
  000e0	33 c9		 xor	 ecx, ecx
$L230941:
  000e2	8d 14 49	 lea	 edx, DWORD PTR [ecx+ecx*2]
  000e5	8d 4c 90 04	 lea	 ecx, DWORD PTR [eax+edx*4+4]
  000e9	89 08		 mov	 DWORD PTR [eax], ecx

; 1702 : 				for( j = 0; j < pElem->m_pObject3D->GetMaxObject(); j ++ )

  000eb	8b 16		 mov	 edx, DWORD PTR [esi]
  000ed	8b 02		 mov	 eax, DWORD PTR [edx]
  000ef	8b 08		 mov	 ecx, DWORD PTR [eax]
  000f1	33 ff		 xor	 edi, edi
  000f3	85 c9		 test	 ecx, ecx
  000f5	7e 38		 jle	 SHORT $L228706
  000f7	eb 07 8d a4 24
	00 00 00 00	 npad	 9
$L228704:

; 1703 : 					SAFE_RELEASE( pElem->m_ppd3d_VB3[j] );

  00100	8b 8e 50 01 00
	00		 mov	 ecx, DWORD PTR [esi+336]
  00106	83 3c b9 00	 cmp	 DWORD PTR [ecx+edi*4], 0
  0010a	74 18		 je	 SHORT $L228705
  0010c	8b d1		 mov	 edx, ecx
  0010e	8b 04 ba	 mov	 eax, DWORD PTR [edx+edi*4]
  00111	8b 08		 mov	 ecx, DWORD PTR [eax]
  00113	50		 push	 eax
  00114	ff 51 08	 call	 DWORD PTR [ecx+8]
  00117	8b 96 50 01 00
	00		 mov	 edx, DWORD PTR [esi+336]
  0011d	c7 04 ba 00 00
	00 00		 mov	 DWORD PTR [edx+edi*4], 0
$L228705:
  00124	8b 06		 mov	 eax, DWORD PTR [esi]
  00126	8b 08		 mov	 ecx, DWORD PTR [eax]
  00128	8b 01		 mov	 eax, DWORD PTR [ecx]
  0012a	47		 inc	 edi
  0012b	3b f8		 cmp	 edi, eax
  0012d	7c d1		 jl	 SHORT $L228704
$L228706:

; 1704 : 				pElem->m_pObject3D->SetLOD(0);

  0012f	8b 06		 mov	 eax, DWORD PTR [esi]
  00131	8d 50 04	 lea	 edx, DWORD PTR [eax+4]
  00134	89 10		 mov	 DWORD PTR [eax], edx
$L228692:
  00136	81 c6 fc 01 00
	00		 add	 esi, 508		; 000001fcH
  0013c	4b		 dec	 ebx
  0013d	0f 85 cd fe ff
	ff		 jne	 $L228691
  00143	5f		 pop	 edi
  00144	5e		 pop	 esi

; 1705 : 	//				SAFE_DELETE_ARRAY( pElem->m_ppd3d_VB );	//    . device  .
; 1706 : 			}
; 1707 : //			pObject3D->DeleteDeviceObjects();
; 1708 : 		}
; 1709 : 	}
; 1710 : 
; 1711 : #ifdef __ATTACH_MODEL
; 1712 : 	DeleteAttachModelDeviceObjects();
; 1713 : #endif //__ATTACH_MODEL
; 1714 : 
; 1715 : 	return  S_OK;

  00145	33 c0		 xor	 eax, eax
  00147	5b		 pop	 ebx

; 1716 : }	

  00148	c3		 ret	 0
?DeleteDeviceObjects@CModelObject@@UAEJXZ ENDP		; CModelObject::DeleteDeviceObjects
_TEXT	ENDS
PUBLIC	?FrameMove@CModelObject@@UAEXPAUD3DXVECTOR3@@M@Z ; CModelObject::FrameMove
EXTRN	?FrameMove@CModel@@UAEXPAUD3DXVECTOR3@@M@Z:NEAR	; CModel::FrameMove
; Function compile flags: /Ogty
;	COMDAT ?FrameMove@CModelObject@@UAEXPAUD3DXVECTOR3@@M@Z
_TEXT	SEGMENT
_pvSndPos$ = 8						; size = 4
_fSpeed$ = 12						; size = 4
?FrameMove@CModelObject@@UAEXPAUD3DXVECTOR3@@M@Z PROC NEAR ; CModelObject::FrameMove, COMDAT
; _this$ = ecx

; 1720 : #ifdef __CLIENT
; 1721 : 	if( m_pMotion )		// CModel::FrameMove    .
; 1722 : 	{
; 1723 : #if __VER >= 9	//__AI_0509
; 1724 : 		MOTION_ATTR* pAttr	= IsAttrSound();
; 1725 : 		if( pAttr && pAttr->m_nSndID > 0 && m_nPause == 0 )
; 1726 : 			PLAYSND( pAttr->m_nSndID, pvSndPos );
; 1727 : 
; 1728 : 		int i	= ( m_nFrameOld + 1 ) % GetMaxFrame();
; 1729 : 		int nFrame	= ( static_cast<int>( m_fFrameCurrent ) + 1 ) % GetMaxFrame();
; 1730 : 		while( i != nFrame )
; 1731 : 		{
; 1732 : 			BOOL bAttr	= FALSE;
; 1733 : 			/*
; 1734 : 			MOTION_ATTR* pAttr	= IsAttrSound( i );
; 1735 : 			if( pAttr && pAttr->m_nSndID > 0 && m_nPause == 0 )
; 1736 : 			{
; 1737 : 				PLAYSND( pAttr->m_nSndID, pvSndPos );
; 1738 : 				bAttr	= TRUE;
; 1739 : 			}
; 1740 : 			*/
; 1741 : 			BOOL bQuake	= IsAttrQuake( (float)( i ) );
; 1742 : 			if( bQuake && m_nPause == 0 )
; 1743 : 			{
; 1744 : 				CMover *pMover	= CMover::GetActiveMover();
; 1745 : 				if( pMover )
; 1746 : 				{
; 1747 : 					ItemProp* pItemProp	= pMover->GetActiveHandItemProp();
; 1748 : 					if( pItemProp && pItemProp->dwItemKind3 != IK3_YOYO && !pMover->IsActiveMover() )
; 1749 : 					{
; 1750 : 						pMover->GetWorld()->m_pCamera->SetQuake( 15 );				
; 1751 : 						bAttr	= TRUE;
; 1752 : 					}
; 1753 : 				}
; 1754 : 			}
; 1755 : 			if( bAttr )
; 1756 : 				break;
; 1757 : 			i	= ( i + 1 ) % GetMaxFrame();
; 1758 : 		}
; 1759 : #else	// __AI_0509
; 1760 : 		MOTION_ATTR *pAttr = IsAttrSound();
; 1761 : 		if( pAttr )
; 1762 : 			if( pAttr->m_nSndID > 0 && m_nPause == 0 )		//    , pause   
; 1763 : 				PLAYSND( pAttr->m_nSndID, pvSndPos );
; 1764 : 		BOOL bQuake = IsAttrQuake();
; 1765 : 		if( bQuake && m_nPause == 0 )
; 1766 : 		{
; 1767 : 			CMover *pMover = CMover::GetActiveMover();
; 1768 : 			if( pMover )
; 1769 : 			{
; 1770 : 				ItemProp* pItemProp = pMover->GetActiveHandItemProp();
; 1771 : 				
; 1772 : 				if( pItemProp && pItemProp->dwItemKind3 != IK3_YOYO && !pMover->IsActiveMover() )
; 1773 : 					pMover->GetWorld()->m_pCamera->SetQuake( 15 );				
; 1774 : 			}
; 1775 : 		}
; 1776 : #endif	// __AI_0509
; 1777 : 	} else
; 1778 : 	{
; 1779 : 		CObject3D *pObject = GetObject3D();
; 1780 : #if __VER >= 9	//__AI_0509
; 1781 : 		if( pObject->GetMaxFrame() )
; 1782 : 		{
; 1783 : 			MOTION_ATTR* pAttr	= pObject->IsAttrSound( m_fFrameCurrent );
; 1784 : 			if( pAttr && pAttr->m_nSndID > 0 && m_nPause == 0 )
; 1785 : 				PLAYSND( pAttr->m_nSndID, pvSndPos );
; 1786 : 
; 1787 : 			int i	= ( m_nFrameOld + 1 ) % pObject->GetMaxFrame();
; 1788 : 			int nFrame	= ( static_cast<int>( m_fFrameCurrent ) + 1 ) % pObject->GetMaxFrame();
; 1789 : 			while( i != nFrame )
; 1790 : 			{
; 1791 : 				BOOL bAttr	= FALSE;
; 1792 : 				/*
; 1793 : 				MOTION_ATTR* pAttr	= pObject->IsAttrSound( i );
; 1794 : 				if( pAttr && pAttr->m_nSndID > 0 && m_nPause == 0 )
; 1795 : 				{
; 1796 : 					PLAYSND( pAttr->m_nSndID, pvSndPos );
; 1797 : 					bAttr	= TRUE;
; 1798 : 				}
; 1799 : 				*/
; 1800 : 				BOOL bQuake	= pObject->IsAttrQuake( (float)( i ) );
; 1801 : 				if( bQuake && m_nPause == 0 )
; 1802 : 				{
; 1803 : 					CMover *pMover	= CMover::GetActiveMover();
; 1804 : 					if( pMover && m_nPause == 0 )
; 1805 : 					{
; 1806 : 						pMover->GetWorld()->m_pCamera->SetQuake( 30, 1.0f );
; 1807 : 						bAttr	= TRUE;
; 1808 : 					}
; 1809 : 				}
; 1810 : 				if( bAttr )
; 1811 : 					break;
; 1812 : 				i	= ( i + 1 ) % GetMaxFrame();
; 1813 : 			}
; 1814 : 		}
; 1815 : #else	// __AI_0509
; 1816 : 		MOTION_ATTR *pAttr = pObject->IsAttrSound( m_fFrameCurrent );
; 1817 : 		if( pAttr )
; 1818 : 			if( pAttr->m_nSndID > 0 && m_nPause == 0 )		//    , pause   
; 1819 : 				PLAYSND( pAttr->m_nSndID, pvSndPos );
; 1820 : 			
; 1821 : 		BOOL bQuake = pObject->IsAttrQuake(m_fFrameCurrent);
; 1822 : 		if( bQuake && m_nPause == 0 )
; 1823 : 		{
; 1824 : 			CMover *pMover = CMover::GetActiveMover();
; 1825 : 			if( pMover && m_nPause == 0 )
; 1826 : 			{
; 1827 : 				//Error("Quake - pos 2 ");
; 1828 : 				pMover->GetWorld()->m_pCamera->SetQuake( 30, 1.0f );
; 1829 : 			}
; 1830 : 		}
; 1831 : #endif	// __AI_0509
; 1832 : 	}
; 1833 : #endif
; 1834 : 	
; 1835 : 	CModel::FrameMove( NULL, fSpeed );

  00000	c7 44 24 04 00
	00 00 00	 mov	 DWORD PTR _pvSndPos$[esp-4], 0
  00008	e9 00 00 00 00	 jmp	 ?FrameMove@CModel@@UAEXPAUD3DXVECTOR3@@M@Z ; CModel::FrameMove
?FrameMove@CModelObject@@UAEXPAUD3DXVECTOR3@@M@Z ENDP	; CModelObject::FrameMove
_TEXT	ENDS
PUBLIC	?GetForcePos@CModelObject@@QAEXPAUD3DXVECTOR3@@HHABUD3DXMATRIX@@@Z ; CModelObject::GetForcePos
PUBLIC	__real@00000000
EXTRN	_D3DXVec3TransformCoord@12:NEAR
EXTRN	_D3DXMatrixMultiply@12:NEAR
;	COMDAT __real@00000000
; File c:\documents and settings\test\mes documents\source\virtuos_v17\build\program\dx_sdk\d3dx9math.inl
CONST	SEGMENT
__real@00000000 DD 000000000r			; 0
; Function compile flags: /Ogty
; File c:\documents and settings\test\mes documents\source\virtuos_v17\build\program\_common\modelobject.cpp
CONST	ENDS
;	COMDAT ?GetForcePos@CModelObject@@QAEXPAUD3DXVECTOR3@@HHABUD3DXMATRIX@@@Z
_TEXT	SEGMENT
_v1$ = -76						; size = 12
_m1$ = -64						; size = 64
_vOut$ = 8						; size = 4
_nIdx$ = 12						; size = 4
_nParts$ = 16						; size = 4
_mWorld$ = 20						; size = 4
?GetForcePos@CModelObject@@QAEXPAUD3DXVECTOR3@@HHABUD3DXMATRIX@@@Z PROC NEAR ; CModelObject::GetForcePos, COMDAT
; _this$ = ecx

; 2586 : {

  00000	83 ec 4c	 sub	 esp, 76			; 0000004cH
  00003	56		 push	 esi

; 2587 : 	D3DXMATRIX *pmLocal;
; 2588 : 	O3D_ELEMENT		*pElem = GetParts( nParts );		//   

  00004	8b 74 24 5c	 mov	 esi, DWORD PTR _nParts$[esp+76]
  00008	57		 push	 edi
  00009	33 c0		 xor	 eax, eax
  0000b	8d 91 cc 02 00
	00		 lea	 edx, DWORD PTR [ecx+716]
$L230974:
  00011	39 32		 cmp	 DWORD PTR [edx], esi
  00013	74 14		 je	 SHORT $L230996
  00015	40		 inc	 eax
  00016	81 c2 fc 01 00
	00		 add	 edx, 508		; 000001fcH
  0001c	83 f8 15	 cmp	 eax, 21			; 00000015H
  0001f	7c f0		 jl	 SHORT $L230974
  00021	5f		 pop	 edi
  00022	5e		 pop	 esi

; 2622 : 	
; 2623 : }

  00023	83 c4 4c	 add	 esp, 76			; 0000004cH
  00026	c2 10 00	 ret	 16			; 00000010H
$L230996:

; 2587 : 	D3DXMATRIX *pmLocal;
; 2588 : 	O3D_ELEMENT		*pElem = GetParts( nParts );		//   

  00029	69 c0 fc 01 00
	00		 imul	 eax, 508		; 000001fcH
  0002f	8d b4 08 d4 00
	00 00		 lea	 esi, DWORD PTR [eax+ecx+212]

; 2589 : 	D3DXMATRIX	m1;
; 2590 : 	D3DXVECTOR3		v1;
; 2591 : 
; 2592 : 	if( !pElem )

  00036	85 f6		 test	 esi, esi
  00038	0f 84 56 01 00
	00		 je	 $L228776

; 2593 : 		return;
; 2594 : 	
; 2595 : 	if( pElem->m_pObject3D == NULL )		return;

  0003e	8b 56 04	 mov	 edx, DWORD PTR [esi+4]
  00041	85 d2		 test	 edx, edx
  00043	0f 84 4b 01 00
	00		 je	 $L228776

; 2596 : 	
; 2597 : 	if( pElem->m_pObject3D->m_vForce1.x == 0 )	return;

  00049	d9 05 00 00 00
	00		 fld	 DWORD PTR __real@00000000
  0004f	d9 82 d4 0b 00
	00		 fld	 DWORD PTR [edx+3028]
  00055	da e9		 fucompp
  00057	df e0		 fnstsw	 ax
  00059	f6 c4 44	 test	 ah, 68			; 00000044H
  0005c	0f 8b 32 01 00
	00		 jnp	 $L228776

; 2598 : 	if( pElem->m_pObject3D->m_vForce2.x == 0 )	return;

  00062	d9 05 00 00 00
	00		 fld	 DWORD PTR __real@00000000
  00068	d9 82 e0 0b 00
	00		 fld	 DWORD PTR [edx+3040]
  0006e	da e9		 fucompp
  00070	df e0		 fnstsw	 ax
  00072	f6 c4 44	 test	 ah, 68			; 00000044H
  00075	0f 8b 19 01 00
	00		 jnp	 $L228776

; 2599 : 	
; 2600 : 	if( pElem->m_nParentIdx == GetRHandIdx() )

  0007b	8b 91 84 2a 00
	00		 mov	 edx, DWORD PTR [ecx+10884]
  00081	8b 06		 mov	 eax, DWORD PTR [esi]
  00083	3b 82 50 01 00
	00		 cmp	 eax, DWORD PTR [edx+336]
  00089	75 08		 jne	 SHORT $L228785

; 2601 : 		pmLocal = &pElem->m_mLocalRH;

  0008b	8d 56 48	 lea	 edx, DWORD PTR [esi+72]

; 2602 : 	else if( pElem->m_nParentIdx == GetLHandIdx() )

  0008e	e9 97 00 00 00	 jmp	 $L228788
$L228785:
  00093	3b 82 54 01 00
	00		 cmp	 eax, DWORD PTR [edx+340]
  00099	75 0b		 jne	 SHORT $L228787

; 2603 : 		pmLocal = &pElem->m_mLocalLH;

  0009b	8d 96 88 00 00
	00		 lea	 edx, DWORD PTR [esi+136]

; 2604 : 	else

  000a1	e9 84 00 00 00	 jmp	 $L228788
$L228787:

; 2605 : 	{
; 2606 : 		D3DXMatrixIdentity( &m1 );

  000a6	c7 44 24 4c 00
	00 00 00	 mov	 DWORD PTR _m1$[esp+140], 0
  000ae	c7 44 24 48 00
	00 00 00	 mov	 DWORD PTR _m1$[esp+136], 0
  000b6	c7 44 24 44 00
	00 00 00	 mov	 DWORD PTR _m1$[esp+132], 0
  000be	c7 44 24 40 00
	00 00 00	 mov	 DWORD PTR _m1$[esp+128], 0
  000c6	c7 44 24 38 00
	00 00 00	 mov	 DWORD PTR _m1$[esp+120], 0
  000ce	c7 44 24 34 00
	00 00 00	 mov	 DWORD PTR _m1$[esp+116], 0
  000d6	c7 44 24 30 00
	00 00 00	 mov	 DWORD PTR _m1$[esp+112], 0
  000de	c7 44 24 2c 00
	00 00 00	 mov	 DWORD PTR _m1$[esp+108], 0
  000e6	c7 44 24 24 00
	00 00 00	 mov	 DWORD PTR _m1$[esp+100], 0
  000ee	c7 44 24 20 00
	00 00 00	 mov	 DWORD PTR _m1$[esp+96], 0
  000f6	c7 44 24 1c 00
	00 00 00	 mov	 DWORD PTR _m1$[esp+92], 0
  000fe	c7 44 24 18 00
	00 00 00	 mov	 DWORD PTR _m1$[esp+88], 0
  00106	c7 44 24 50 00
	00 80 3f	 mov	 DWORD PTR _m1$[esp+144], 1065353216 ; 3f800000H
  0010e	c7 44 24 3c 00
	00 80 3f	 mov	 DWORD PTR _m1$[esp+124], 1065353216 ; 3f800000H
  00116	c7 44 24 28 00
	00 80 3f	 mov	 DWORD PTR _m1$[esp+104], 1065353216 ; 3f800000H
  0011e	c7 44 24 14 00
	00 80 3f	 mov	 DWORD PTR _m1$[esp+84], 1065353216 ; 3f800000H

; 2607 : 		pmLocal = &m1;						//     .

  00126	8d 54 24 14	 lea	 edx, DWORD PTR _m1$[esp+84]
$L228788:

; 2608 : 	}
; 2609 : 		
; 2610 : 	
; 2611 : //	if( m_pMotion )
; 2612 : //		m_pMotion->AnimateBone( m_mUpdateBone, m_pMotionOld, m_fFrameCurrent, GetNextFrame(), m_nFrameOld, m_bMotionBlending, m_fBlendWeight );		//      
; 2613 : 	
; 2614 : 	D3DXMatrixMultiply( &m1, pmLocal, &m_mUpdateBone[ pElem->m_nParentIdx ] );

  0012a	8b b9 9c 2a 00
	00		 mov	 edi, DWORD PTR [ecx+10908]
  00130	c1 e0 06	 shl	 eax, 6
  00133	03 c7		 add	 eax, edi
  00135	50		 push	 eax
  00136	52		 push	 edx
  00137	8d 44 24 1c	 lea	 eax, DWORD PTR _m1$[esp+92]
  0013b	50		 push	 eax
  0013c	e8 00 00 00 00	 call	 _D3DXMatrixMultiply@12

; 2615 : 	if( nIdx == 0 )

  00141	8b 44 24 5c	 mov	 eax, DWORD PTR _nIdx$[esp+80]

; 2616 : 		D3DXVec3TransformCoord( &v1, &(pElem->m_pObject3D->m_vForce1), &m1 );

  00145	8b 56 04	 mov	 edx, DWORD PTR [esi+4]
  00148	8d 4c 24 14	 lea	 ecx, DWORD PTR _m1$[esp+84]
  0014c	85 c0		 test	 eax, eax
  0014e	51		 push	 ecx
  0014f	8d 44 24 0c	 lea	 eax, DWORD PTR _v1$[esp+88]
  00153	75 08		 jne	 SHORT $L228789
  00155	81 c2 d4 0b 00
	00		 add	 edx, 3028		; 00000bd4H

; 2617 : 	else

  0015b	eb 06		 jmp	 SHORT $L231002
$L228789:

; 2618 : 		D3DXVec3TransformCoord( &v1, &(pElem->m_pObject3D->m_vForce2), &m1 );

  0015d	81 c2 e0 0b 00
	00		 add	 edx, 3040		; 00000be0H
$L231002:
  00163	52		 push	 edx
  00164	50		 push	 eax
  00165	e8 00 00 00 00	 call	 _D3DXVec3TransformCoord@12

; 2619 : 	
; 2620 : 	D3DXVec3TransformCoord( &v1, &v1, &mWorld );

  0016a	8b 4c 24 64	 mov	 ecx, DWORD PTR _mWorld$[esp+80]
  0016e	51		 push	 ecx
  0016f	8d 54 24 0c	 lea	 edx, DWORD PTR _v1$[esp+88]
  00173	52		 push	 edx
  00174	8b c2		 mov	 eax, edx
  00176	50		 push	 eax
  00177	e8 00 00 00 00	 call	 _D3DXVec3TransformCoord@12

; 2621 : 	*vOut = v1;

  0017c	8b 54 24 08	 mov	 edx, DWORD PTR _v1$[esp+84]
  00180	8b 4c 24 58	 mov	 ecx, DWORD PTR _vOut$[esp+80]
  00184	8b 44 24 0c	 mov	 eax, DWORD PTR _v1$[esp+88]
  00188	89 11		 mov	 DWORD PTR [ecx], edx
  0018a	8b 54 24 10	 mov	 edx, DWORD PTR _v1$[esp+92]
  0018e	89 41 04	 mov	 DWORD PTR [ecx+4], eax
  00191	89 51 08	 mov	 DWORD PTR [ecx+8], edx
$L228776:
  00194	5f		 pop	 edi
  00195	5e		 pop	 esi

; 2622 : 	
; 2623 : }

  00196	83 c4 4c	 add	 esp, 76			; 0000004cH
  00199	c2 10 00	 ret	 16			; 00000010H
?GetForcePos@CModelObject@@QAEXPAUD3DXVECTOR3@@HHABUD3DXMATRIX@@@Z ENDP ; CModelObject::GetForcePos
_TEXT	ENDS
PUBLIC	?GetForcePos@CModelObject@@QAEXPAUD3DXVECTOR3@@HHABUD3DXMATRIX@@M@Z ; CModelObject::GetForcePos
EXTRN	_D3DXMatrixScaling@16:NEAR
; Function compile flags: /Ogty
;	COMDAT ?GetForcePos@CModelObject@@QAEXPAUD3DXVECTOR3@@HHABUD3DXMATRIX@@M@Z
_TEXT	SEGMENT
_v1$ = -140						; size = 12
_m1$ = -128						; size = 64
_mLocal$ = -64						; size = 64
_vOut$ = 8						; size = 4
_nIdx$ = 12						; size = 4
_nParts$ = 16						; size = 4
_mWorld$ = 20						; size = 4
_fScale$ = 24						; size = 4
?GetForcePos@CModelObject@@QAEXPAUD3DXVECTOR3@@HHABUD3DXMATRIX@@M@Z PROC NEAR ; CModelObject::GetForcePos, COMDAT
; _this$ = ecx

; 2628 : 	D3DXMATRIX mLocal;
; 2629 : 	O3D_ELEMENT		*pElem = GetParts( nParts );		//   

  00000	8b 54 24 0c	 mov	 edx, DWORD PTR _nParts$[esp-4]
  00004	81 ec 8c 00 00
	00		 sub	 esp, 140		; 0000008cH
  0000a	55		 push	 ebp
  0000b	8b e9		 mov	 ebp, ecx
  0000d	56		 push	 esi
  0000e	33 c0		 xor	 eax, eax
  00010	8d 8d cc 02 00
	00		 lea	 ecx, DWORD PTR [ebp+716]
$L231013:
  00016	39 11		 cmp	 DWORD PTR [ecx], edx
  00018	74 17		 je	 SHORT $L231035
  0001a	40		 inc	 eax
  0001b	81 c1 fc 01 00
	00		 add	 ecx, 508		; 000001fcH
  00021	83 f8 15	 cmp	 eax, 21			; 00000015H
  00024	7c f0		 jl	 SHORT $L231013
  00026	5e		 pop	 esi
  00027	5d		 pop	 ebp

; 2669 : 	
; 2670 : }

  00028	81 c4 8c 00 00
	00		 add	 esp, 140		; 0000008cH
  0002e	c2 14 00	 ret	 20			; 00000014H
$L231035:

; 2628 : 	D3DXMATRIX mLocal;
; 2629 : 	O3D_ELEMENT		*pElem = GetParts( nParts );		//   

  00031	69 c0 fc 01 00
	00		 imul	 eax, 508		; 000001fcH
  00037	53		 push	 ebx
  00038	8d 9c 28 d4 00
	00 00		 lea	 ebx, DWORD PTR [eax+ebp+212]

; 2630 : 	D3DXMATRIX	m1;
; 2631 : 	D3DXVECTOR3		v1;
; 2632 : 
; 2633 : 	if( !pElem )

  0003f	85 db		 test	 ebx, ebx
  00041	0f 84 a1 01 00
	00		 je	 $L231037

; 2634 : 		return;
; 2635 : 	
; 2636 : 	if( pElem->m_pObject3D == NULL )		return;

  00047	8b 4b 04	 mov	 ecx, DWORD PTR [ebx+4]
  0004a	85 c9		 test	 ecx, ecx
  0004c	0f 84 96 01 00
	00		 je	 $L231037

; 2637 : 	
; 2638 : 	if( pElem->m_pObject3D->m_vForce1.x == 0 )	return;

  00052	d9 05 00 00 00
	00		 fld	 DWORD PTR __real@00000000
  00058	d9 81 d4 0b 00
	00		 fld	 DWORD PTR [ecx+3028]
  0005e	da e9		 fucompp
  00060	df e0		 fnstsw	 ax
  00062	f6 c4 44	 test	 ah, 68			; 00000044H
  00065	0f 8b 7d 01 00
	00		 jnp	 $L231037

; 2639 : 	if( pElem->m_pObject3D->m_vForce2.x == 0 )	return;

  0006b	d9 05 00 00 00
	00		 fld	 DWORD PTR __real@00000000
  00071	d9 81 e0 0b 00
	00		 fld	 DWORD PTR [ecx+3040]
  00077	da e9		 fucompp
  00079	df e0		 fnstsw	 ax
  0007b	f6 c4 44	 test	 ah, 68			; 00000044H
  0007e	0f 8b 64 01 00
	00		 jnp	 $L231037

; 2640 : 	
; 2641 : 	if( pElem->m_nParentIdx == GetRHandIdx() )

  00084	8b 85 84 2a 00
	00		 mov	 eax, DWORD PTR [ebp+10884]
  0008a	8b 0b		 mov	 ecx, DWORD PTR [ebx]
  0008c	3b 88 50 01 00
	00		 cmp	 ecx, DWORD PTR [eax+336]
  00092	57		 push	 edi

; 2642 : 	{
; 2643 : 		mLocal = pElem->m_mLocalRH;

  00093	8d 7c 24 5c	 lea	 edi, DWORD PTR _mLocal$[esp+156]
  00097	75 23		 jne	 SHORT $L228807

; 2644 : 		D3DXMatrixScaling(&mLocal, fScale, fScale, fScale);

  00099	8b 84 24 b0 00
	00 00		 mov	 eax, DWORD PTR _fScale$[esp+152]
  000a0	50		 push	 eax
  000a1	50		 push	 eax
  000a2	50		 push	 eax
  000a3	8d 44 24 68	 lea	 eax, DWORD PTR _mLocal$[esp+168]
  000a7	8d 73 48	 lea	 esi, DWORD PTR [ebx+72]
  000aa	b9 10 00 00 00	 mov	 ecx, 16			; 00000010H
  000af	50		 push	 eax
  000b0	f3 a5		 rep movsd
  000b2	e8 00 00 00 00	 call	 _D3DXMatrixScaling@16

; 2645 : 	}
; 2646 : 	else if( pElem->m_nParentIdx == GetLHandIdx() )

  000b7	e9 b4 00 00 00	 jmp	 $L228810
$L228807:
  000bc	3b 88 54 01 00
	00		 cmp	 ecx, DWORD PTR [eax+340]

; 2647 : 	{
; 2648 : 		mLocal = pElem->m_mLocalLH;

  000c2	b9 10 00 00 00	 mov	 ecx, 16			; 00000010H
  000c7	75 21		 jne	 SHORT $L228809

; 2649 : 		D3DXMatrixScaling(&mLocal, fScale, fScale, fScale);

  000c9	8b 84 24 b0 00
	00 00		 mov	 eax, DWORD PTR _fScale$[esp+152]
  000d0	50		 push	 eax
  000d1	50		 push	 eax
  000d2	8d b3 88 00 00
	00		 lea	 esi, DWORD PTR [ebx+136]
  000d8	f3 a5		 rep movsd
  000da	50		 push	 eax
  000db	8d 4c 24 68	 lea	 ecx, DWORD PTR _mLocal$[esp+168]
  000df	51		 push	 ecx
  000e0	e8 00 00 00 00	 call	 _D3DXMatrixScaling@16

; 2650 : 	}
; 2651 : 	else

  000e5	e9 86 00 00 00	 jmp	 $L228810
$L228809:

; 2652 : 	{
; 2653 : 		D3DXMatrixIdentity( &m1 );
; 2654 : 		mLocal = m1;						//     .

  000ea	8d 74 24 1c	 lea	 esi, DWORD PTR _m1$[esp+156]
  000ee	c7 44 24 54 00
	00 00 00	 mov	 DWORD PTR _m1$[esp+212], 0
  000f6	c7 44 24 50 00
	00 00 00	 mov	 DWORD PTR _m1$[esp+208], 0
  000fe	c7 44 24 4c 00
	00 00 00	 mov	 DWORD PTR _m1$[esp+204], 0
  00106	c7 44 24 48 00
	00 00 00	 mov	 DWORD PTR _m1$[esp+200], 0
  0010e	c7 44 24 40 00
	00 00 00	 mov	 DWORD PTR _m1$[esp+192], 0
  00116	c7 44 24 3c 00
	00 00 00	 mov	 DWORD PTR _m1$[esp+188], 0
  0011e	c7 44 24 38 00
	00 00 00	 mov	 DWORD PTR _m1$[esp+184], 0
  00126	c7 44 24 34 00
	00 00 00	 mov	 DWORD PTR _m1$[esp+180], 0
  0012e	c7 44 24 2c 00
	00 00 00	 mov	 DWORD PTR _m1$[esp+172], 0
  00136	c7 44 24 28 00
	00 00 00	 mov	 DWORD PTR _m1$[esp+168], 0
  0013e	c7 44 24 24 00
	00 00 00	 mov	 DWORD PTR _m1$[esp+164], 0
  00146	c7 44 24 20 00
	00 00 00	 mov	 DWORD PTR _m1$[esp+160], 0
  0014e	c7 44 24 58 00
	00 80 3f	 mov	 DWORD PTR _m1$[esp+216], 1065353216 ; 3f800000H
  00156	c7 44 24 44 00
	00 80 3f	 mov	 DWORD PTR _m1$[esp+196], 1065353216 ; 3f800000H
  0015e	c7 44 24 30 00
	00 80 3f	 mov	 DWORD PTR _m1$[esp+176], 1065353216 ; 3f800000H
  00166	c7 44 24 1c 00
	00 80 3f	 mov	 DWORD PTR _m1$[esp+156], 1065353216 ; 3f800000H
  0016e	f3 a5		 rep movsd
$L228810:

; 2655 : 	}
; 2656 : 		
; 2657 : 	
; 2658 : //	if( m_pMotion )
; 2659 : //		m_pMotion->AnimateBone( m_mUpdateBone, m_pMotionOld, m_fFrameCurrent, GetNextFrame(), m_nFrameOld, m_bMotionBlending, m_fBlendWeight );		//      
; 2660 : 	
; 2661 : 	D3DXMatrixMultiply( &m1, &mLocal, &m_mUpdateBone[ pElem->m_nParentIdx ] );

  00170	8b 13		 mov	 edx, DWORD PTR [ebx]
  00172	8b 85 9c 2a 00
	00		 mov	 eax, DWORD PTR [ebp+10908]
  00178	c1 e2 06	 shl	 edx, 6
  0017b	03 d0		 add	 edx, eax
  0017d	52		 push	 edx
  0017e	8d 44 24 60	 lea	 eax, DWORD PTR _mLocal$[esp+160]
  00182	50		 push	 eax
  00183	8d 4c 24 24	 lea	 ecx, DWORD PTR _m1$[esp+164]
  00187	51		 push	 ecx
  00188	e8 00 00 00 00	 call	 _D3DXMatrixMultiply@12

; 2662 : 	if( nIdx == 0 )

  0018d	8b 84 24 a4 00
	00 00		 mov	 eax, DWORD PTR _nIdx$[esp+152]
  00194	5f		 pop	 edi

; 2663 : 		D3DXVec3TransformCoord( &v1, &(pElem->m_pObject3D->m_vForce1), &m1 );

  00195	8d 54 24 18	 lea	 edx, DWORD PTR _m1$[esp+152]
  00199	85 c0		 test	 eax, eax
  0019b	8b 43 04	 mov	 eax, DWORD PTR [ebx+4]
  0019e	8d 4c 24 0c	 lea	 ecx, DWORD PTR _v1$[esp+152]
  001a2	52		 push	 edx
  001a3	75 07		 jne	 SHORT $L228811
  001a5	05 d4 0b 00 00	 add	 eax, 3028		; 00000bd4H

; 2664 : 	else

  001aa	eb 05		 jmp	 SHORT $L231038
$L228811:

; 2665 : 		D3DXVec3TransformCoord( &v1, &(pElem->m_pObject3D->m_vForce2), &m1 );

  001ac	05 e0 0b 00 00	 add	 eax, 3040		; 00000be0H
$L231038:
  001b1	50		 push	 eax
  001b2	51		 push	 ecx
  001b3	e8 00 00 00 00	 call	 _D3DXVec3TransformCoord@12

; 2666 : 	
; 2667 : 	D3DXVec3TransformCoord( &v1, &v1, &mWorld );

  001b8	8b 94 24 a8 00
	00 00		 mov	 edx, DWORD PTR _mWorld$[esp+148]
  001bf	52		 push	 edx
  001c0	8d 44 24 10	 lea	 eax, DWORD PTR _v1$[esp+156]
  001c4	50		 push	 eax
  001c5	8b c8		 mov	 ecx, eax
  001c7	51		 push	 ecx
  001c8	e8 00 00 00 00	 call	 _D3DXVec3TransformCoord@12

; 2668 : 	*vOut = v1;

  001cd	8b 44 24 0c	 mov	 eax, DWORD PTR _v1$[esp+152]
  001d1	8b 94 24 9c 00
	00 00		 mov	 edx, DWORD PTR _vOut$[esp+148]
  001d8	8b 4c 24 10	 mov	 ecx, DWORD PTR _v1$[esp+156]
  001dc	89 02		 mov	 DWORD PTR [edx], eax
  001de	8b 44 24 14	 mov	 eax, DWORD PTR _v1$[esp+160]
  001e2	89 4a 04	 mov	 DWORD PTR [edx+4], ecx
  001e5	89 42 08	 mov	 DWORD PTR [edx+8], eax
$L231037:
  001e8	5b		 pop	 ebx
  001e9	5e		 pop	 esi
  001ea	5d		 pop	 ebp

; 2669 : 	
; 2670 : }

  001eb	81 c4 8c 00 00
	00		 add	 esp, 140		; 0000008cH
  001f1	c2 14 00	 ret	 20			; 00000014H
?GetForcePos@CModelObject@@QAEXPAUD3DXVECTOR3@@HHABUD3DXMATRIX@@M@Z ENDP ; CModelObject::GetForcePos
_TEXT	ENDS
PUBLIC	?GetHandPos@CModelObject@@QAEXPAUD3DXVECTOR3@@HABUD3DXMATRIX@@@Z ; CModelObject::GetHandPos
; Function compile flags: /Ogty
;	COMDAT ?GetHandPos@CModelObject@@QAEXPAUD3DXVECTOR3@@HABUD3DXMATRIX@@@Z
_TEXT	SEGMENT
_v1$ = -76						; size = 12
_m1$ = -64						; size = 64
_vOut$ = 8						; size = 4
_nParts$ = 12						; size = 4
_mWorld$ = 16						; size = 4
?GetHandPos@CModelObject@@QAEXPAUD3DXVECTOR3@@HABUD3DXMATRIX@@@Z PROC NEAR ; CModelObject::GetHandPos, COMDAT
; _this$ = ecx

; 2676 : 	D3DXMATRIX *pmLocal;
; 2677 : 	D3DXMATRIX	m1;
; 2678 : 	D3DXVECTOR3		v1;
; 2679 : 
; 2680 : 	int nParentIdx = 0;
; 2681 : 	if( m_pBone == NULL )	return;

  00000	8b 91 84 2a 00
	00		 mov	 edx, DWORD PTR [ecx+10884]
  00006	83 ec 4c	 sub	 esp, 76			; 0000004cH
  00009	33 c0		 xor	 eax, eax
  0000b	85 d2		 test	 edx, edx
  0000d	0f 84 0c 01 00
	00		 je	 $L228818
  00013	56		 push	 esi

; 2682 : 	if( nParts == PARTS_RWEAPON )

  00014	8b 74 24 58	 mov	 esi, DWORD PTR _nParts$[esp+76]
  00018	83 fe 0a	 cmp	 esi, 10			; 0000000aH
  0001b	75 0e		 jne	 SHORT $L228824

; 2683 : 	{
; 2684 : 		nParentIdx = GetRHandIdx();

  0001d	8b 82 50 01 00
	00		 mov	 eax, DWORD PTR [edx+336]

; 2685 : 		pmLocal = &m_pBone->m_mLocalRH;

  00023	83 c2 50	 add	 edx, 80			; 00000050H

; 2686 : 	}
; 2687 : 	else if( nParts == PARTS_LWEAPON  )

  00026	e9 9a 00 00 00	 jmp	 $L228827
$L228824:
  0002b	83 fe 09	 cmp	 esi, 9
  0002e	75 11		 jne	 SHORT $L228826

; 2688 : 	{
; 2689 : 		nParentIdx = GetLHandIdx();

  00030	8b 82 54 01 00
	00		 mov	 eax, DWORD PTR [edx+340]

; 2690 : 		pmLocal = &m_pBone->m_mLocalLH;

  00036	81 c2 90 00 00
	00		 add	 edx, 144		; 00000090H

; 2691 : 	}
; 2692 : 	else

  0003c	e9 84 00 00 00	 jmp	 $L228827
$L228826:

; 2693 : 	{
; 2694 : 		D3DXMatrixIdentity( &m1 );

  00041	c7 44 24 48 00
	00 00 00	 mov	 DWORD PTR _m1$[esp+136], 0
  00049	c7 44 24 44 00
	00 00 00	 mov	 DWORD PTR _m1$[esp+132], 0
  00051	c7 44 24 40 00
	00 00 00	 mov	 DWORD PTR _m1$[esp+128], 0
  00059	c7 44 24 3c 00
	00 00 00	 mov	 DWORD PTR _m1$[esp+124], 0
  00061	c7 44 24 34 00
	00 00 00	 mov	 DWORD PTR _m1$[esp+116], 0
  00069	c7 44 24 30 00
	00 00 00	 mov	 DWORD PTR _m1$[esp+112], 0
  00071	c7 44 24 2c 00
	00 00 00	 mov	 DWORD PTR _m1$[esp+108], 0
  00079	c7 44 24 28 00
	00 00 00	 mov	 DWORD PTR _m1$[esp+104], 0
  00081	c7 44 24 20 00
	00 00 00	 mov	 DWORD PTR _m1$[esp+96], 0
  00089	c7 44 24 1c 00
	00 00 00	 mov	 DWORD PTR _m1$[esp+92], 0
  00091	c7 44 24 18 00
	00 00 00	 mov	 DWORD PTR _m1$[esp+88], 0
  00099	c7 44 24 14 00
	00 00 00	 mov	 DWORD PTR _m1$[esp+84], 0
  000a1	c7 44 24 4c 00
	00 80 3f	 mov	 DWORD PTR _m1$[esp+140], 1065353216 ; 3f800000H
  000a9	c7 44 24 38 00
	00 80 3f	 mov	 DWORD PTR _m1$[esp+120], 1065353216 ; 3f800000H
  000b1	c7 44 24 24 00
	00 80 3f	 mov	 DWORD PTR _m1$[esp+100], 1065353216 ; 3f800000H
  000b9	c7 44 24 10 00
	00 80 3f	 mov	 DWORD PTR _m1$[esp+80], 1065353216 ; 3f800000H

; 2695 : 		pmLocal = &m1;						//     .

  000c1	8d 54 24 10	 lea	 edx, DWORD PTR _m1$[esp+80]
$L228827:

; 2696 : 	}
; 2697 : 	
; 2698 : 	
; 2699 : //	if( m_pMotion )
; 2700 : //		m_pMotion->AnimateBone( m_mUpdateBone, m_pMotionOld, m_fFrameCurrent, GetNextFrame(), m_nFrameOld, m_bMotionBlending, m_fBlendWeight );		//      
; 2701 : 	
; 2702 : 	//    LocalR/LH    .
; 2703 : 	D3DXMatrixMultiply( &m1, pmLocal, &m_mUpdateBone[ nParentIdx ] );

  000c5	8b b1 9c 2a 00
	00		 mov	 esi, DWORD PTR [ecx+10908]
  000cb	c1 e0 06	 shl	 eax, 6
  000ce	03 c6		 add	 eax, esi
  000d0	50		 push	 eax
  000d1	52		 push	 edx
  000d2	8d 44 24 18	 lea	 eax, DWORD PTR _m1$[esp+88]
  000d6	50		 push	 eax
  000d7	e8 00 00 00 00	 call	 _D3DXMatrixMultiply@12

; 2704 : 	v1.x = m1._41;		v1.y = m1._42;		v1.z = m1._43;		//  .

  000dc	8b 4c 24 40	 mov	 ecx, DWORD PTR _m1$[esp+128]
  000e0	8b 54 24 44	 mov	 edx, DWORD PTR _m1$[esp+132]
  000e4	8b 44 24 48	 mov	 eax, DWORD PTR _m1$[esp+136]
  000e8	89 4c 24 04	 mov	 DWORD PTR _v1$[esp+80], ecx

; 2705 : 	
; 2706 : 	D3DXVec3TransformCoord( &v1, &v1, &mWorld );

  000ec	8b 4c 24 5c	 mov	 ecx, DWORD PTR _mWorld$[esp+76]
  000f0	89 54 24 08	 mov	 DWORD PTR _v1$[esp+84], edx
  000f4	51		 push	 ecx
  000f5	8d 54 24 08	 lea	 edx, DWORD PTR _v1$[esp+84]
  000f9	89 44 24 10	 mov	 DWORD PTR _v1$[esp+92], eax
  000fd	52		 push	 edx
  000fe	8b c2		 mov	 eax, edx
  00100	50		 push	 eax
  00101	e8 00 00 00 00	 call	 _D3DXVec3TransformCoord@12

; 2707 : 	*vOut = v1;

  00106	8b 54 24 04	 mov	 edx, DWORD PTR _v1$[esp+80]
  0010a	8b 4c 24 54	 mov	 ecx, DWORD PTR _vOut$[esp+76]
  0010e	8b 44 24 08	 mov	 eax, DWORD PTR _v1$[esp+84]
  00112	89 11		 mov	 DWORD PTR [ecx], edx
  00114	8b 54 24 0c	 mov	 edx, DWORD PTR _v1$[esp+88]
  00118	89 41 04	 mov	 DWORD PTR [ecx+4], eax
  0011b	89 51 08	 mov	 DWORD PTR [ecx+8], edx
  0011e	5e		 pop	 esi
$L228818:

; 2708 : 	
; 2709 : }

  0011f	83 c4 4c	 add	 esp, 76			; 0000004cH
  00122	c2 0c 00	 ret	 12			; 0000000cH
?GetHandPos@CModelObject@@QAEXPAUD3DXVECTOR3@@HABUD3DXMATRIX@@@Z ENDP ; CModelObject::GetHandPos
_TEXT	ENDS
PUBLIC	?SplineSlerp@@YA?AUD3DXVECTOR3@@PAU1@000M@Z	; SplineSlerp
PUBLIC	__real@3f800000
PUBLIC	__real@3f000000
PUBLIC	__real@40400000
PUBLIC	__real@c0000000
;	COMDAT __real@3f000000
; File c:\documents and settings\test\mes documents\source\virtuos_v17\build\program\dx_sdk\d3dx9math.inl
CONST	SEGMENT
__real@3f000000 DD 03f000000r			; 0.5
CONST	ENDS
;	COMDAT __real@40400000
CONST	SEGMENT
__real@40400000 DD 040400000r			; 3
CONST	ENDS
;	COMDAT __real@c0000000
CONST	SEGMENT
__real@c0000000 DD 0c0000000r			; -2
CONST	ENDS
;	COMDAT __real@3f800000
CONST	SEGMENT
__real@3f800000 DD 03f800000r			; 1
; Function compile flags: /Ogty
; File c:\documents and settings\test\mes documents\source\virtuos_v17\build\program\_common\modelobject.cpp
CONST	ENDS
;	COMDAT ?SplineSlerp@@YA?AUD3DXVECTOR3@@PAU1@000M@Z
_TEXT	SEGMENT
$T231071 = -48						; size = 12
$T231067 = -48						; size = 12
$T231063 = -48						; size = 12
$T231072 = -36						; size = 12
$T231069 = -36						; size = 12
$T231065 = -36						; size = 12
_m1$ = -36						; size = 12
$T231074 = -24						; size = 12
$T231070 = -24						; size = 12
$T231068 = -24						; size = 12
$T231061 = -24						; size = 12
_m0$ = -24						; size = 12
$T231073 = -12						; size = 12
$T231066 = -12						; size = 12
$T231064 = -12						; size = 12
$T231062 = -12						; size = 12
$T231060 = -12						; size = 12
___$ReturnUdt$ = 8					; size = 4
_v1$ = 12						; size = 4
_v2$ = 16						; size = 4
_v3$ = 20						; size = 4
_v4$ = 24						; size = 4
_fSlerp$ = 28						; size = 4
?SplineSlerp@@YA?AUD3DXVECTOR3@@PAU1@000M@Z PROC NEAR	; SplineSlerp, COMDAT

; 2753 : {

  00000	83 ec 30	 sub	 esp, 48			; 00000030H

; 2754 : 	D3DXVECTOR3		vResult;
; 2755 : 
; 2756 : 	float	t = fSlerp;
; 2757 : 	float	t2 = t * t;
; 2758 : 	float	t3 = t2 * t;
; 2759 : 
; 2760 : 	D3DXVECTOR3		m0, m1;
; 2761 : 	const float alpha = 0.0f;
; 2762 : 
; 2763 : 	m0 = ((1 - alpha) / 2.0f) * 
; 2764 : 		 ((*v2 - *v1) + *v3 - *v2);

  00003	8b 44 24 3c	 mov	 eax, DWORD PTR _v2$[esp+44]
  00007	d9 44 24 48	 fld	 DWORD PTR _fSlerp$[esp+44]
  0000b	d8 4c 24 48	 fmul	 DWORD PTR _fSlerp$[esp+44]
  0000f	8b 4c 24 38	 mov	 ecx, DWORD PTR _v1$[esp+44]
  00013	d9 44 24 48	 fld	 DWORD PTR _fSlerp$[esp+44]
  00017	d8 c9		 fmul	 ST(0), ST(1)
  00019	d9 00		 fld	 DWORD PTR [eax]
  0001b	d8 21		 fsub	 DWORD PTR [ecx]
  0001d	d9 40 04	 fld	 DWORD PTR [eax+4]
  00020	d8 61 04	 fsub	 DWORD PTR [ecx+4]
  00023	d9 40 08	 fld	 DWORD PTR [eax+8]
  00026	d8 61 08	 fsub	 DWORD PTR [ecx+8]
  00029	8b 4c 24 40	 mov	 ecx, DWORD PTR _v3$[esp+44]
  0002d	d9 5c 24 2c	 fstp	 DWORD PTR $T231060[esp+56]
  00031	d9 c9		 fxch	 ST(1)
  00033	d8 01		 fadd	 DWORD PTR [ecx]
  00035	d9 5c 24 18	 fstp	 DWORD PTR $T231061[esp+48]
  00039	d8 41 04	 fadd	 DWORD PTR [ecx+4]
  0003c	d9 44 24 2c	 fld	 DWORD PTR $T231060[esp+56]
  00040	d8 41 08	 fadd	 DWORD PTR [ecx+8]
  00043	d9 44 24 18	 fld	 DWORD PTR $T231061[esp+48]
  00047	d8 20		 fsub	 DWORD PTR [eax]
  00049	d9 5c 24 24	 fstp	 DWORD PTR $T231062[esp+48]
  0004d	d9 c9		 fxch	 ST(1)
  0004f	d8 60 04	 fsub	 DWORD PTR [eax+4]
  00052	d9 5c 24 28	 fstp	 DWORD PTR $T231062[esp+52]
  00056	d8 60 08	 fsub	 DWORD PTR [eax+8]
  00059	d9 44 24 24	 fld	 DWORD PTR $T231062[esp+48]
  0005d	d8 0d 00 00 00
	00		 fmul	 DWORD PTR __real@3f000000
  00063	d9 1c 24	 fstp	 DWORD PTR $T231063[esp+48]
  00066	8b 14 24	 mov	 edx, DWORD PTR $T231063[esp+48]
  00069	d9 44 24 28	 fld	 DWORD PTR $T231062[esp+52]
  0006d	89 54 24 18	 mov	 DWORD PTR _m0$[esp+48], edx
  00071	d8 0d 00 00 00
	00		 fmul	 DWORD PTR __real@3f000000
  00077	d9 5c 24 04	 fstp	 DWORD PTR $T231063[esp+52]
  0007b	8b 54 24 04	 mov	 edx, DWORD PTR $T231063[esp+52]
  0007f	89 54 24 1c	 mov	 DWORD PTR _m0$[esp+52], edx
  00083	d8 0d 00 00 00
	00		 fmul	 DWORD PTR __real@3f000000
  00089	d9 5c 24 08	 fstp	 DWORD PTR $T231063[esp+56]
  0008d	8b 54 24 08	 mov	 edx, DWORD PTR $T231063[esp+56]

; 2765 : 	m1 = ((1 - alpha) / 2.0f) *
; 2766 : 		 ((*v3 - *v2) + *v4 - *v3);

  00091	d9 01		 fld	 DWORD PTR [ecx]
  00093	89 54 24 20	 mov	 DWORD PTR _m0$[esp+56], edx
  00097	d8 20		 fsub	 DWORD PTR [eax]
  00099	8b 54 24 44	 mov	 edx, DWORD PTR _v4$[esp+44]
  0009d	d9 41 04	 fld	 DWORD PTR [ecx+4]
  000a0	d8 60 04	 fsub	 DWORD PTR [eax+4]
  000a3	d9 41 08	 fld	 DWORD PTR [ecx+8]
  000a6	d8 60 08	 fsub	 DWORD PTR [eax+8]
  000a9	d9 5c 24 2c	 fstp	 DWORD PTR $T231064[esp+56]
  000ad	d9 c9		 fxch	 ST(1)
  000af	d8 02		 fadd	 DWORD PTR [edx]
  000b1	d9 5c 24 0c	 fstp	 DWORD PTR $T231065[esp+48]
  000b5	d8 42 04	 fadd	 DWORD PTR [edx+4]
  000b8	d9 44 24 2c	 fld	 DWORD PTR $T231064[esp+56]
  000bc	d8 42 08	 fadd	 DWORD PTR [edx+8]
  000bf	d9 44 24 0c	 fld	 DWORD PTR $T231065[esp+48]
  000c3	d8 21		 fsub	 DWORD PTR [ecx]
  000c5	d9 5c 24 24	 fstp	 DWORD PTR $T231066[esp+48]
  000c9	d9 c9		 fxch	 ST(1)
  000cb	d8 61 04	 fsub	 DWORD PTR [ecx+4]
  000ce	d9 5c 24 28	 fstp	 DWORD PTR $T231066[esp+52]
  000d2	d8 61 08	 fsub	 DWORD PTR [ecx+8]
  000d5	d9 44 24 24	 fld	 DWORD PTR $T231066[esp+48]
  000d9	d8 0d 00 00 00
	00		 fmul	 DWORD PTR __real@3f000000
  000df	d9 1c 24	 fstp	 DWORD PTR $T231067[esp+48]
  000e2	8b 14 24	 mov	 edx, DWORD PTR $T231067[esp+48]
  000e5	d9 44 24 28	 fld	 DWORD PTR $T231066[esp+52]
  000e9	89 54 24 0c	 mov	 DWORD PTR _m1$[esp+48], edx
  000ed	d8 0d 00 00 00
	00		 fmul	 DWORD PTR __real@3f000000
  000f3	d9 5c 24 04	 fstp	 DWORD PTR $T231067[esp+52]
  000f7	8b 54 24 04	 mov	 edx, DWORD PTR $T231067[esp+52]
  000fb	89 54 24 10	 mov	 DWORD PTR _m1$[esp+52], edx
  000ff	d8 0d 00 00 00
	00		 fmul	 DWORD PTR __real@3f000000
  00105	d9 5c 24 08	 fstp	 DWORD PTR $T231067[esp+56]
  00109	8b 54 24 08	 mov	 edx, DWORD PTR $T231067[esp+56]

; 2767 : 
; 2768 : 	vResult = (((2 * t3) - (3 * t2) + 1) * *v2) +
; 2769 : 			   ((t3 - (2 * t2) + t) * m0) + 
; 2770 : 			   ((t3 - t2) * m1) +
; 2771 : 			   (((-2 * t3) + (3 * t2)) *
; 2772 : 			   *v3 );

  0010d	d9 c1		 fld	 ST(1)
  0010f	89 54 24 14	 mov	 DWORD PTR _m1$[esp+56], edx
  00113	d8 0d 00 00 00
	00		 fmul	 DWORD PTR __real@40400000
  00119	d9 c1		 fld	 ST(1)
  0011b	d8 0d 00 00 00
	00		 fmul	 DWORD PTR __real@c0000000
  00121	d8 c1		 fadd	 ST(0), ST(1)
  00123	d9 c0		 fld	 ST(0)
  00125	d8 09		 fmul	 DWORD PTR [ecx]
  00127	d9 5c 24 24	 fstp	 DWORD PTR $T231073[esp+48]
  0012b	d9 c0		 fld	 ST(0)
  0012d	d8 49 04	 fmul	 DWORD PTR [ecx+4]
  00130	d9 5c 24 28	 fstp	 DWORD PTR $T231073[esp+52]
  00134	d8 49 08	 fmul	 DWORD PTR [ecx+8]
  00137	d9 5c 24 2c	 fstp	 DWORD PTR $T231073[esp+56]
  0013b	d9 c1		 fld	 ST(1)
  0013d	d8 e3		 fsub	 ST(0), ST(3)
  0013f	d9 44 24 0c	 fld	 DWORD PTR _m1$[esp+48]
  00143	d8 c9		 fmul	 ST(0), ST(1)
  00145	d9 1c 24	 fstp	 DWORD PTR $T231071[esp+48]
  00148	d9 44 24 10	 fld	 DWORD PTR _m1$[esp+52]
  0014c	d8 c9		 fmul	 ST(0), ST(1)
  0014e	d9 5c 24 04	 fstp	 DWORD PTR $T231071[esp+52]
  00152	d9 44 24 14	 fld	 DWORD PTR _m1$[esp+56]
  00156	d8 c9		 fmul	 ST(0), ST(1)
  00158	d9 5c 24 08	 fstp	 DWORD PTR $T231071[esp+56]
  0015c	dd d8		 fstp	 ST(0)
  0015e	d9 ca		 fxch	 ST(2)
  00160	dc c0		 fadd	 ST(0), ST(0)
  00162	d8 e9		 fsubr	 ST(0), ST(1)
  00164	d8 44 24 48	 fadd	 DWORD PTR _fSlerp$[esp+44]
  00168	d9 44 24 18	 fld	 DWORD PTR _m0$[esp+48]
  0016c	d8 c9		 fmul	 ST(0), ST(1)
  0016e	d9 5c 24 0c	 fstp	 DWORD PTR $T231069[esp+48]
  00172	d9 44 24 1c	 fld	 DWORD PTR _m0$[esp+52]
  00176	d8 c9		 fmul	 ST(0), ST(1)
  00178	d9 5c 24 10	 fstp	 DWORD PTR $T231069[esp+52]
  0017c	d9 44 24 20	 fld	 DWORD PTR _m0$[esp+56]
  00180	d8 c9		 fmul	 ST(0), ST(1)
  00182	d9 5c 24 14	 fstp	 DWORD PTR $T231069[esp+56]
  00186	dd d8		 fstp	 ST(0)
  00188	dc c0		 fadd	 ST(0), ST(0)
  0018a	d8 e1		 fsub	 ST(0), ST(1)
  0018c	d8 05 00 00 00
	00		 fadd	 DWORD PTR __real@3f800000
  00192	d9 c9		 fxch	 ST(1)
  00194	dd d8		 fstp	 ST(0)
  00196	d9 c0		 fld	 ST(0)
  00198	d8 08		 fmul	 DWORD PTR [eax]
  0019a	d9 c1		 fld	 ST(1)
  0019c	d8 48 04	 fmul	 DWORD PTR [eax+4]
  0019f	d9 5c 24 1c	 fstp	 DWORD PTR $T231068[esp+52]
  001a3	d9 c9		 fxch	 ST(1)
  001a5	d8 48 08	 fmul	 DWORD PTR [eax+8]

; 2773 : 
; 2774 : 	return vResult;

  001a8	8b 44 24 34	 mov	 eax, DWORD PTR ___$ReturnUdt$[esp+44]
  001ac	8b c8		 mov	 ecx, eax
  001ae	d9 5c 24 20	 fstp	 DWORD PTR $T231068[esp+56]
  001b2	d8 44 24 0c	 fadd	 DWORD PTR $T231069[esp+48]
  001b6	d9 44 24 1c	 fld	 DWORD PTR $T231068[esp+52]
  001ba	d8 44 24 10	 fadd	 DWORD PTR $T231069[esp+52]
  001be	d9 44 24 20	 fld	 DWORD PTR $T231068[esp+56]
  001c2	d8 44 24 14	 fadd	 DWORD PTR $T231069[esp+56]
  001c6	d9 5c 24 20	 fstp	 DWORD PTR $T231070[esp+56]
  001ca	d9 c9		 fxch	 ST(1)
  001cc	d8 04 24	 fadd	 DWORD PTR $T231071[esp+48]
  001cf	d9 5c 24 0c	 fstp	 DWORD PTR $T231072[esp+48]
  001d3	d8 44 24 04	 fadd	 DWORD PTR $T231071[esp+52]
  001d7	d9 44 24 20	 fld	 DWORD PTR $T231070[esp+56]
  001db	d8 44 24 08	 fadd	 DWORD PTR $T231071[esp+56]
  001df	d9 44 24 0c	 fld	 DWORD PTR $T231072[esp+48]
  001e3	d8 44 24 24	 fadd	 DWORD PTR $T231073[esp+48]
  001e7	d9 5c 24 18	 fstp	 DWORD PTR $T231074[esp+48]
  001eb	8b 54 24 18	 mov	 edx, DWORD PTR $T231074[esp+48]
  001ef	d9 c9		 fxch	 ST(1)
  001f1	89 11		 mov	 DWORD PTR [ecx], edx
  001f3	d8 44 24 28	 fadd	 DWORD PTR $T231073[esp+52]
  001f7	d9 5c 24 1c	 fstp	 DWORD PTR $T231074[esp+52]
  001fb	8b 54 24 1c	 mov	 edx, DWORD PTR $T231074[esp+52]
  001ff	89 51 04	 mov	 DWORD PTR [ecx+4], edx
  00202	d8 44 24 2c	 fadd	 DWORD PTR $T231073[esp+56]
  00206	d9 5c 24 20	 fstp	 DWORD PTR $T231074[esp+56]
  0020a	8b 54 24 20	 mov	 edx, DWORD PTR $T231074[esp+56]
  0020e	89 51 08	 mov	 DWORD PTR [ecx+8], edx

; 2775 : }

  00211	83 c4 30	 add	 esp, 48			; 00000030H
  00214	c3		 ret	 0
?SplineSlerp@@YA?AUD3DXVECTOR3@@PAU1@000M@Z ENDP	; SplineSlerp
_TEXT	ENDS
PUBLIC	?MakeSpline@CSwordForce@@QAEXXZ			; CSwordForce::MakeSpline
PUBLIC	??_C@_0CC@FIJGMPIN@SWDForceAdd?5Spline?5?3?5?$LJ?$PM?$MA?$KH?5?C?J?$LA?z?5?$CF@ ; `string'
PUBLIC	__real@3eaaaaab
;	COMDAT __real@3eaaaaab
; File c:\documents and settings\test\mes documents\source\virtuos_v17\build\program\dx_sdk\d3dx9math.h
CONST	SEGMENT
__real@3eaaaaab DD 03eaaaaabr			; 0.333333
CONST	ENDS
;	COMDAT ??_C@_0CC@FIJGMPIN@SWDForceAdd?5Spline?5?3?5?$LJ?$PM?$MA?$KH?5?C?J?$LA?z?5?$CF@
CONST	SEGMENT
??_C@_0CC@FIJGMPIN@SWDForceAdd?5Spline?5?3?5?$LJ?$PM?$MA?$KH?5?C?J?$LA?z?5?$CF@ DB 'S'
	DB	'WDForceAdd Spline : ', 0b9H, 0fcH, 0c0H, 0a7H, ' ', 0c3H, 0caH
	DB	0b0H, 0faH, ' %d', 00H			; `string'
; Function compile flags: /Ogty
; File c:\documents and settings\test\mes documents\source\virtuos_v17\build\program\_common\modelobject.cpp
CONST	ENDS
;	COMDAT ?MakeSpline@CSwordForce@@QAEXXZ
_TEXT	SEGMENT
_j$ = -64						; size = 4
_d$ = -60						; size = 4
_a$ = -56						; size = 4
tv240 = -52						; size = 4
tv308 = -48						; size = 4
tv135 = -44						; size = 4
_nMaxVertex$ = -40					; size = 4
_vSlp$ = -36						; size = 12
$T231266 = -24						; size = 12
$T231267 = -12						; size = 12
?MakeSpline@CSwordForce@@QAEXXZ PROC NEAR		; CSwordForce::MakeSpline, COMDAT
; _this$ = ecx

; 2800 : {

  00000	83 ec 40	 sub	 esp, 64			; 00000040H
  00003	56		 push	 esi
  00004	8b f1		 mov	 esi, ecx

; 2801 : 	FVF_SWDFORCE *pKey;
; 2802 : 	int		i, j;
; 2803 : 	D3DXVECTOR3 vSlp;
; 2804 : 	int		a, b, c, d;
; 2805 : 	int		nMaxVertex = m_nMaxVertex;

  00006	8b 16		 mov	 edx, DWORD PTR [esi]
  00008	57		 push	 edi

; 2806 : 
; 2807 : 	m_nMaxSpline = 0;

  00009	33 ff		 xor	 edi, edi

; 2808 : 	for( i = 0; i < nMaxVertex-1; i ++ )

  0000b	8d 42 ff	 lea	 eax, DWORD PTR [edx-1]
  0000e	3b c7		 cmp	 eax, edi
  00010	89 54 24 20	 mov	 DWORD PTR _nMaxVertex$[esp+72], edx
  00014	89 7e 04	 mov	 DWORD PTR [esi+4], edi
  00017	0f 8e 76 01 00
	00		 jle	 $L228883
  0001d	53		 push	 ebx
  0001e	b9 02 00 00 00	 mov	 ecx, 2
  00023	55		 push	 ebp
  00024	33 ed		 xor	 ebp, ebp
  00026	89 4c 24 20	 mov	 DWORD PTR tv308[esp+80], ecx
  0002a	89 44 24 24	 mov	 DWORD PTR tv135[esp+80], eax
  0002e	eb 06		 jmp	 SHORT $L228881
$L231279:

; 2801 : 	FVF_SWDFORCE *pKey;
; 2802 : 	int		i, j;
; 2803 : 	D3DXVECTOR3 vSlp;
; 2804 : 	int		a, b, c, d;
; 2805 : 	int		nMaxVertex = m_nMaxVertex;

  00030	8b 54 24 28	 mov	 edx, DWORD PTR _nMaxVertex$[esp+80]
  00034	33 ff		 xor	 edi, edi
$L228881:

; 2809 : 	{
; 2810 : 		// i ~ i+1 .  
; 2811 : 		a = i - 1;		if( a < 0 )	a = 0;

  00036	8d 41 fd	 lea	 eax, DWORD PTR [ecx-3]
  00039	3b c7		 cmp	 eax, edi
  0003b	89 44 24 18	 mov	 DWORD PTR _a$[esp+80], eax
  0003f	7d 04		 jge	 SHORT $L228884
  00041	89 7c 24 18	 mov	 DWORD PTR _a$[esp+80], edi
$L228884:

; 2812 : 		b = i;
; 2813 : 		c = i+1;
; 2814 : 		d = i+2;		if( d >= nMaxVertex )	d = nMaxVertex - 1;

  00045	3b ca		 cmp	 ecx, edx
  00047	89 4c 24 14	 mov	 DWORD PTR _d$[esp+80], ecx
  0004b	7c 07		 jl	 SHORT $L228885
  0004d	8d 42 ff	 lea	 eax, DWORD PTR [edx-1]
  00050	89 44 24 14	 mov	 DWORD PTR _d$[esp+80], eax
$L228885:

; 2815 : 		for( j = 0; j < MAX_SF_SLERP+1; j ++ )

  00054	89 7c 24 10	 mov	 DWORD PTR _j$[esp+80], edi
  00058	eb 06 8d 9b 00
	00 00 00	 npad	 8
$L231280:

; 2816 : 		{
; 2817 : 			if( m_nMaxSpline >= MAX_SF_SPLINE )

  00060	81 7e 04 00 10
	00 00		 cmp	 DWORD PTR [esi+4], 4096	; 00001000H
  00067	0f 8d f8 00 00
	00		 jge	 $L231273

; 2820 : 				ADDERRORMSG( szErr );
; 2821 : 				break;
; 2822 : 			}
; 2823 : 			pKey = m_aList;
; 2824 : 			vSlp = SplineSlerp( &pKey[a].position, &pKey[b].position, &pKey[c].position, &pKey[d].position, (float)j / MAX_SF_SLERP );

  0006d	db 44 24 10	 fild	 DWORD PTR _j$[esp+80]
  00071	8b 7c 24 14	 mov	 edi, DWORD PTR _d$[esp+80]
  00075	8b 5c 24 18	 mov	 ebx, DWORD PTR _a$[esp+80]
  00079	c1 e7 04	 shl	 edi, 4
  0007c	d8 0d 00 00 00
	00		 fmul	 DWORD PTR __real@3eaaaaab
  00082	8d 4c 37 10	 lea	 ecx, DWORD PTR [edi+esi+16]
  00086	8d 54 2e 20	 lea	 edx, DWORD PTR [esi+ebp+32]
  0008a	c1 e3 04	 shl	 ebx, 4
  0008d	d9 5c 24 1c	 fstp	 DWORD PTR tv240[esp+80]
  00091	8b 44 24 1c	 mov	 eax, DWORD PTR tv240[esp+80]
  00095	50		 push	 eax
  00096	51		 push	 ecx
  00097	52		 push	 edx
  00098	8d 44 2e 10	 lea	 eax, DWORD PTR [esi+ebp+16]
  0009c	50		 push	 eax
  0009d	8d 4c 33 10	 lea	 ecx, DWORD PTR [ebx+esi+16]
  000a1	51		 push	 ecx
  000a2	8d 54 24 4c	 lea	 edx, DWORD PTR $T231266[esp+100]
  000a6	52		 push	 edx
  000a7	e8 00 00 00 00	 call	 ?SplineSlerp@@YA?AUD3DXVECTOR3@@PAU1@000M@Z ; SplineSlerp
  000ac	8b 08		 mov	 ecx, DWORD PTR [eax]
  000ae	8b 50 04	 mov	 edx, DWORD PTR [eax+4]
  000b1	8b 40 08	 mov	 eax, DWORD PTR [eax+8]
  000b4	89 44 24 4c	 mov	 DWORD PTR _vSlp$[esp+112], eax

; 2825 : 			m_aSpline[ m_nMaxSpline ].position = vSlp;

  000b8	8b 46 04	 mov	 eax, DWORD PTR [esi+4]
  000bb	05 01 04 00 00	 add	 eax, 1025		; 00000401H
  000c0	c1 e0 04	 shl	 eax, 4
  000c3	03 c6		 add	 eax, esi
  000c5	89 08		 mov	 DWORD PTR [eax], ecx
  000c7	8b 4c 24 4c	 mov	 ecx, DWORD PTR _vSlp$[esp+112]
  000cb	89 50 04	 mov	 DWORD PTR [eax+4], edx
  000ce	89 48 08	 mov	 DWORD PTR [eax+8], ecx

; 2826 : 			m_aSpline[ m_nMaxSpline ].color = 0xffffffff;

  000d1	8b 56 04	 mov	 edx, DWORD PTR [esi+4]

; 2827 : 			m_nMaxSpline ++;
; 2828 : 			pKey = m_aList2;
; 2829 : 			vSlp = SplineSlerp( &pKey[a].position, &pKey[b].position, &pKey[c].position, &pKey[d].position, (float)j / MAX_SF_SLERP );

  000d4	8b 44 24 34	 mov	 eax, DWORD PTR tv240[esp+104]
  000d8	c1 e2 04	 shl	 edx, 4
  000db	c7 84 32 1c 40
	00 00 ff ff ff
	ff		 mov	 DWORD PTR [edx+esi+16412], -1
  000e6	8b 56 04	 mov	 edx, DWORD PTR [esi+4]
  000e9	50		 push	 eax
  000ea	42		 inc	 edx
  000eb	89 56 04	 mov	 DWORD PTR [esi+4], edx
  000ee	8d 8c 37 10 20
	00 00		 lea	 ecx, DWORD PTR [edi+esi+8208]
  000f5	51		 push	 ecx
  000f6	8d 94 2e 20 20
	00 00		 lea	 edx, DWORD PTR [esi+ebp+8224]
  000fd	52		 push	 edx
  000fe	8d 84 2e 10 20
	00 00		 lea	 eax, DWORD PTR [esi+ebp+8208]
  00105	50		 push	 eax
  00106	8d 8c 33 10 20
	00 00		 lea	 ecx, DWORD PTR [ebx+esi+8208]
  0010d	51		 push	 ecx
  0010e	8d 54 24 70	 lea	 edx, DWORD PTR $T231267[esp+124]
  00112	52		 push	 edx
  00113	e8 00 00 00 00	 call	 ?SplineSlerp@@YA?AUD3DXVECTOR3@@PAU1@000M@Z ; SplineSlerp

; 2830 : 			m_aSpline[ m_nMaxSpline ].position = vSlp;

  00118	8b 7e 04	 mov	 edi, DWORD PTR [esi+4]
  0011b	8b 08		 mov	 ecx, DWORD PTR [eax]
  0011d	8b 50 04	 mov	 edx, DWORD PTR [eax+4]
  00120	8b 40 08	 mov	 eax, DWORD PTR [eax+8]
  00123	81 c7 01 04 00
	00		 add	 edi, 1025		; 00000401H
  00129	c1 e7 04	 shl	 edi, 4
  0012c	03 fe		 add	 edi, esi
  0012e	89 0f		 mov	 DWORD PTR [edi], ecx
  00130	89 57 04	 mov	 DWORD PTR [edi+4], edx
  00133	89 47 08	 mov	 DWORD PTR [edi+8], eax

; 2831 : 			m_aSpline[ m_nMaxSpline ].color = 0xffffffff;

  00136	8b 46 04	 mov	 eax, DWORD PTR [esi+4]
  00139	c1 e0 04	 shl	 eax, 4
  0013c	c7 84 30 1c 40
	00 00 ff ff ff
	ff		 mov	 DWORD PTR [eax+esi+16412], -1

; 2832 : 			m_nMaxSpline ++;

  00147	8b 7e 04	 mov	 edi, DWORD PTR [esi+4]
  0014a	8b 44 24 40	 mov	 eax, DWORD PTR _j$[esp+128]
  0014e	83 c4 30	 add	 esp, 48			; 00000030H
  00151	47		 inc	 edi
  00152	40		 inc	 eax
  00153	83 f8 04	 cmp	 eax, 4
  00156	89 7e 04	 mov	 DWORD PTR [esi+4], edi
  00159	89 44 24 10	 mov	 DWORD PTR _j$[esp+80], eax
  0015d	0f 8c fd fe ff
	ff		 jl	 $L231280

; 2816 : 		{
; 2817 : 			if( m_nMaxSpline >= MAX_SF_SPLINE )

  00163	eb 11		 jmp	 SHORT $L228882
$L231273:

; 2818 : 			{
; 2819 : 				LPCTSTR szErr = Error( "SWDForceAdd Spline :   %d", m_nMaxSpline );

  00165	8b 4e 04	 mov	 ecx, DWORD PTR [esi+4]
  00168	51		 push	 ecx
  00169	68 00 00 00 00	 push	 OFFSET FLAT:??_C@_0CC@FIJGMPIN@SWDForceAdd?5Spline?5?3?5?$LJ?$PM?$MA?$KH?5?C?J?$LA?z?5?$CF@
  0016e	e8 00 00 00 00	 call	 ?Error@@YAPBDPBDZZ	; Error
  00173	83 c4 08	 add	 esp, 8
$L228882:
  00176	8b 4c 24 20	 mov	 ecx, DWORD PTR tv308[esp+80]
  0017a	8b 44 24 24	 mov	 eax, DWORD PTR tv135[esp+80]
  0017e	41		 inc	 ecx
  0017f	83 c5 10	 add	 ebp, 16			; 00000010H
  00182	48		 dec	 eax
  00183	89 4c 24 20	 mov	 DWORD PTR tv308[esp+80], ecx
  00187	89 44 24 24	 mov	 DWORD PTR tv135[esp+80], eax
  0018b	0f 85 9f fe ff
	ff		 jne	 $L231279
  00191	5d		 pop	 ebp
  00192	5b		 pop	 ebx
$L228883:
  00193	5f		 pop	 edi
  00194	5e		 pop	 esi

; 2833 : 		}
; 2834 : 	}
; 2835 : }

  00195	83 c4 40	 add	 esp, 64			; 00000040H
  00198	c3		 ret	 0
?MakeSpline@CSwordForce@@QAEXXZ ENDP			; CSwordForce::MakeSpline
_TEXT	ENDS
PUBLIC	?Init@CModel@@QAEXXZ				; CModel::Init
; Function compile flags: /Ogty
; File c:\documents and settings\test\mes documents\source\virtuos_v17\build\program\_common\model.h
;	COMDAT ?Init@CModel@@QAEXXZ
_TEXT	SEGMENT
?Init@CModel@@QAEXXZ PROC NEAR				; CModel::Init, COMDAT
; _this$ = ecx

; 108  : 		m_nModelType = MODELTYPE_MESH; 
; 109  : 		m_dwRenderEffect = REFF_NONE;

  00000	33 c0		 xor	 eax, eax
  00002	c7 41 08 01 00
	00 00		 mov	 DWORD PTR [ecx+8], 1
  00009	89 41 6c	 mov	 DWORD PTR [ecx+108], eax

; 110  : 		InitAnimate();

  0000c	89 81 a0 00 00
	00		 mov	 DWORD PTR [ecx+160], eax
  00012	c7 81 a4 00 00
	00 00 00 80 bf	 mov	 DWORD PTR [ecx+164], -1082130432 ; bf800000H
  0001c	89 81 a8 00 00
	00		 mov	 DWORD PTR [ecx+168], eax
  00022	89 81 94 00 00
	00		 mov	 DWORD PTR [ecx+148], eax
  00028	89 81 9c 00 00
	00		 mov	 DWORD PTR [ecx+156], eax
  0002e	c7 81 b4 00 00
	00 04 00 00 00	 mov	 DWORD PTR [ecx+180], 4
  00038	89 81 b0 00 00
	00		 mov	 DWORD PTR [ecx+176], eax
  0003e	c7 81 ac 00 00
	00 00 00 00 3f	 mov	 DWORD PTR [ecx+172], 1056964608 ; 3f000000H

; 111  : 		m_vMin.x = m_vMin.y = m_vMin.z = 0.0f;

  00048	89 81 80 00 00
	00		 mov	 DWORD PTR [ecx+128], eax
  0004e	89 41 7c	 mov	 DWORD PTR [ecx+124], eax
  00051	89 41 78	 mov	 DWORD PTR [ecx+120], eax

; 112  : 		m_vMax.x = m_vMax.y = m_vMax.z = 0.0f;

  00054	89 81 8c 00 00
	00		 mov	 DWORD PTR [ecx+140], eax
  0005a	89 81 88 00 00
	00		 mov	 DWORD PTR [ecx+136], eax
  00060	89 81 84 00 00
	00		 mov	 DWORD PTR [ecx+132], eax

; 113  : 		m_dwBlendFactor = 255;

  00066	c7 41 70 ff 00
	00 00		 mov	 DWORD PTR [ecx+112], 255 ; 000000ffH

; 114  : 		m_dwColor = 0;

  0006d	89 41 74	 mov	 DWORD PTR [ecx+116], eax

; 115  : 		m_pd3dDevice = NULL;

  00070	89 41 04	 mov	 DWORD PTR [ecx+4], eax

; 116  : 		m_bSkin = FALSE;

  00073	89 81 b8 00 00
	00		 mov	 DWORD PTR [ecx+184], eax

; 117  : 	#if defined(__CLIENT)
; 118  : 		memset( &m_SparkInfo, 0, sizeof(_SPARKINFO) );
; 119  : 	#endif //defined(__CLIENT)
; 120  : 
; 121  : 		m_pModelElem = NULL;

  00079	89 81 90 00 00
	00		 mov	 DWORD PTR [ecx+144], eax

; 122  : 		m_nNoEffect = 0;

  0007f	89 81 bc 00 00
	00		 mov	 DWORD PTR [ecx+188], eax

; 123  : 		m_bSlow = FALSE;

  00085	89 81 98 00 00
	00		 mov	 DWORD PTR [ecx+152], eax

; 124  : 	}

  0008b	c3		 ret	 0
?Init@CModel@@QAEXXZ ENDP				; CModel::Init
_TEXT	ENDS
PUBLIC	??1CSwordForce@@QAE@XZ				; CSwordForce::~CSwordForce
; Function compile flags: /Ogty
; File c:\documents and settings\test\mes documents\source\virtuos_v17\build\program\_common\modelobject.h
;	COMDAT ??1CSwordForce@@QAE@XZ
_TEXT	SEGMENT
??1CSwordForce@@QAE@XZ PROC NEAR			; CSwordForce::~CSwordForce, COMDAT
; _this$ = ecx

; 36   : 	~CSwordForce() { Destroy(); }

  00000	8b d1		 mov	 edx, ecx
  00002	57		 push	 edi
  00003	33 c0		 xor	 eax, eax
  00005	89 02		 mov	 DWORD PTR [edx], eax
  00007	89 42 04	 mov	 DWORD PTR [edx+4], eax
  0000a	89 42 08	 mov	 DWORD PTR [edx+8], eax
  0000d	c7 42 0c e6 78
	78 ff		 mov	 DWORD PTR [edx+12], -8881946 ; ff7878e6H
  00014	b9 00 08 00 00	 mov	 ecx, 2048		; 00000800H
  00019	8d 7a 10	 lea	 edi, DWORD PTR [edx+16]
  0001c	f3 ab		 rep stosd
  0001e	b9 00 40 00 00	 mov	 ecx, 16384		; 00004000H
  00023	8d ba 10 40 00
	00		 lea	 edi, DWORD PTR [edx+16400]
  00029	f3 ab		 rep stosd
  0002b	5f		 pop	 edi
  0002c	c3		 ret	 0
??1CSwordForce@@QAE@XZ ENDP				; CSwordForce::~CSwordForce
_TEXT	ENDS
PUBLIC	??0?$CSimpleStringT@D$0A@@ATL@@QAE@PAUIAtlStringMgr@1@@Z ; ATL::CSimpleStringT<char,0>::CSimpleStringT<char,0>
; Function compile flags: /Ogty
; File c:\program files\microsoft visual studio .net 2003\vc7\atlmfc\include\atlsimpstr.h
;	COMDAT ??0?$CSimpleStringT@D$0A@@ATL@@QAE@PAUIAtlStringMgr@1@@Z
_TEXT	SEGMENT
_pStringMgr$ = 8					; size = 4
??0?$CSimpleStringT@D$0A@@ATL@@QAE@PAUIAtlStringMgr@1@@Z PROC NEAR ; ATL::CSimpleStringT<char,0>::CSimpleStringT<char,0>, COMDAT
; _this$ = ecx

; 210  : 	explicit CSimpleStringT( IAtlStringMgr* pStringMgr ) throw()

  00000	56		 push	 esi
  00001	8b f1		 mov	 esi, ecx

; 211  : 	{
; 212  : 		ATLASSERT( pStringMgr != NULL );
; 213  : 		CStringData* pData = pStringMgr->GetNilString();

  00003	8b 4c 24 08	 mov	 ecx, DWORD PTR _pStringMgr$[esp]
  00007	8b 01		 mov	 eax, DWORD PTR [ecx]
  00009	ff 50 0c	 call	 DWORD PTR [eax+12]

; 214  : 		Attach( pData );

  0000c	83 c0 10	 add	 eax, 16			; 00000010H
  0000f	89 06		 mov	 DWORD PTR [esi], eax

; 215  : 	}

  00011	8b c6		 mov	 eax, esi
  00013	5e		 pop	 esi
  00014	c2 04 00	 ret	 4
??0?$CSimpleStringT@D$0A@@ATL@@QAE@PAUIAtlStringMgr@1@@Z ENDP ; ATL::CSimpleStringT<char,0>::CSimpleStringT<char,0>
_TEXT	ENDS
PUBLIC	??1?$CSimpleStringT@D$0A@@ATL@@QAE@XZ		; ATL::CSimpleStringT<char,0>::~CSimpleStringT<char,0>
; Function compile flags: /Ogty
;	COMDAT ??1?$CSimpleStringT@D$0A@@ATL@@QAE@XZ
_TEXT	SEGMENT
??1?$CSimpleStringT@D$0A@@ATL@@QAE@XZ PROC NEAR		; ATL::CSimpleStringT<char,0>::~CSimpleStringT<char,0>, COMDAT
; _this$ = ecx

; 263  : 		CStringData* pData = GetData();

  00000	8b 01		 mov	 eax, DWORD PTR [ecx]
  00002	83 e8 10	 sub	 eax, 16			; 00000010H

; 264  : 		pData->Release();

  00005	8d 48 0c	 lea	 ecx, DWORD PTR [eax+12]
  00008	83 ca ff	 or	 edx, -1
  0000b	f0 0f c1 11	 lock	  xadd	 DWORD PTR [ecx], edx
  0000f	4a		 dec	 edx
  00010	85 d2		 test	 edx, edx
  00012	7f 08		 jg	 SHORT $L231318
  00014	8b 08		 mov	 ecx, DWORD PTR [eax]
  00016	8b 11		 mov	 edx, DWORD PTR [ecx]
  00018	50		 push	 eax
  00019	ff 52 04	 call	 DWORD PTR [edx+4]
$L231318:

; 265  : 	}

  0001c	c3		 ret	 0
??1?$CSimpleStringT@D$0A@@ATL@@QAE@XZ ENDP		; ATL::CSimpleStringT<char,0>::~CSimpleStringT<char,0>
_TEXT	ENDS
PUBLIC	?ReleaseBufferSetLength@?$CSimpleStringT@D$0A@@ATL@@QAEXH@Z ; ATL::CSimpleStringT<char,0>::ReleaseBufferSetLength
; Function compile flags: /Ogty
;	COMDAT ?ReleaseBufferSetLength@?$CSimpleStringT@D$0A@@ATL@@QAEXH@Z
_TEXT	SEGMENT
_nNewLength$ = 8					; size = 4
?ReleaseBufferSetLength@?$CSimpleStringT@D$0A@@ATL@@QAEXH@Z PROC NEAR ; ATL::CSimpleStringT<char,0>::ReleaseBufferSetLength, COMDAT
; _this$ = ecx

; 547  : 		ATLASSERT( nNewLength >= 0 );
; 548  : 		SetLength( nNewLength );

  00000	8b 44 24 04	 mov	 eax, DWORD PTR _nNewLength$[esp-4]
  00004	85 c0		 test	 eax, eax
  00006	7c 13		 jl	 SHORT $L231331
  00008	8b 11		 mov	 edx, DWORD PTR [ecx]
  0000a	3b 42 f8	 cmp	 eax, DWORD PTR [edx-8]
  0000d	7f 0c		 jg	 SHORT $L231331
  0000f	89 42 f4	 mov	 DWORD PTR [edx-12], eax
  00012	8b 09		 mov	 ecx, DWORD PTR [ecx]
  00014	c6 04 08 00	 mov	 BYTE PTR [eax+ecx], 0

; 549  : 	}

  00018	c2 04 00	 ret	 4
$L231331:
  0001b	68 57 00 07 80	 push	 -2147024809		; 80070057H
  00020	e8 00 00 00 00	 call	 ?AtlThrow@ATL@@YGXJ@Z	; ATL::AtlThrow
$L231339:
$L231338:
  00025	cc		 int	 3
?ReleaseBufferSetLength@?$CSimpleStringT@D$0A@@ATL@@QAEXH@Z ENDP ; ATL::CSimpleStringT<char,0>::ReleaseBufferSetLength
_TEXT	ENDS
PUBLIC	?PrepareWrite2@?$CSimpleStringT@D$0A@@ATL@@AAEXH@Z ; ATL::CSimpleStringT<char,0>::PrepareWrite2
; Function compile flags: /Ogty
;	COMDAT ?PrepareWrite2@?$CSimpleStringT@D$0A@@ATL@@AAEXH@Z
_TEXT	SEGMENT
_nLength$ = 8						; size = 4
?PrepareWrite2@?$CSimpleStringT@D$0A@@ATL@@AAEXH@Z PROC NEAR ; ATL::CSimpleStringT<char,0>::PrepareWrite2, COMDAT
; _this$ = ecx

; 747  : 		CStringData* pOldData = GetData();

  00000	8b 01		 mov	 eax, DWORD PTR [ecx]

; 748  : 		if( pOldData->nDataLength > nLength )

  00002	8b 54 24 04	 mov	 edx, DWORD PTR _nLength$[esp-4]
  00006	83 e8 10	 sub	 eax, 16			; 00000010H
  00009	56		 push	 esi
  0000a	8b 70 04	 mov	 esi, DWORD PTR [eax+4]
  0000d	3b f2		 cmp	 esi, edx
  0000f	7e 02		 jle	 SHORT $L221345

; 749  : 		{
; 750  : 			nLength = pOldData->nDataLength;

  00011	8b d6		 mov	 edx, esi
$L221345:

; 751  : 		}
; 752  : 		if( pOldData->IsShared() )

  00013	83 78 0c 01	 cmp	 DWORD PTR [eax+12], 1
  00017	5e		 pop	 esi
  00018	7e 09		 jle	 SHORT $L221346

; 753  : 		{
; 754  : 			Fork( nLength );

  0001a	89 54 24 04	 mov	 DWORD PTR _nLength$[esp-4], edx
  0001e	e9 00 00 00 00	 jmp	 ?Fork@?$CSimpleStringT@D$0A@@ATL@@AAEXH@Z ; ATL::CSimpleStringT<char,0>::Fork
$L221346:

; 755  : 		}
; 756  : 		else if( pOldData->nAllocLength < nLength )

  00023	8b 40 08	 mov	 eax, DWORD PTR [eax+8]
  00026	3b c2		 cmp	 eax, edx
  00028	7d 1f		 jge	 SHORT $L221348

; 757  : 		{
; 758  : 			// Grow exponentially, until we hit 1K.
; 759  : 			int nNewLength = pOldData->nAllocLength;
; 760  : 			if( nNewLength > 1024 )

  0002a	3d 00 04 00 00	 cmp	 eax, 1024		; 00000400H
  0002f	7e 07		 jle	 SHORT $L221350

; 761  : 			{
; 762  : 				nNewLength += 1024;

  00031	05 00 04 00 00	 add	 eax, 1024		; 00000400H

; 763  : 			}
; 764  : 			else

  00036	eb 02		 jmp	 SHORT $L221351
$L221350:

; 765  : 			{
; 766  : 				nNewLength *= 2;

  00038	03 c0		 add	 eax, eax
$L221351:

; 767  : 			}
; 768  : 			if( nNewLength < nLength )

  0003a	3b c2		 cmp	 eax, edx
  0003c	7d 02		 jge	 SHORT $L221352

; 769  : 			{
; 770  : 				nNewLength = nLength;

  0003e	8b c2		 mov	 eax, edx
$L221352:

; 771  : 			}
; 772  : 			Reallocate( nNewLength );

  00040	89 44 24 04	 mov	 DWORD PTR _nLength$[esp-4], eax
  00044	e9 00 00 00 00	 jmp	 ?Reallocate@?$CSimpleStringT@D$0A@@ATL@@AAEXH@Z ; ATL::CSimpleStringT<char,0>::Reallocate
$L221348:

; 773  : 		}
; 774  : 	}

  00049	c2 04 00	 ret	 4
?PrepareWrite2@?$CSimpleStringT@D$0A@@ATL@@AAEXH@Z ENDP	; ATL::CSimpleStringT<char,0>::PrepareWrite2
_TEXT	ENDS
PUBLIC	?CloneData@?$CSimpleStringT@D$0A@@ATL@@CAPAUCStringData@2@PAU32@@Z ; ATL::CSimpleStringT<char,0>::CloneData
; Function compile flags: /Ogty
;	COMDAT ?CloneData@?$CSimpleStringT@D$0A@@ATL@@CAPAUCStringData@2@PAU32@@Z
_TEXT	SEGMENT
_pData$ = 8						; size = 4
?CloneData@?$CSimpleStringT@D$0A@@ATL@@CAPAUCStringData@2@PAU32@@Z PROC NEAR ; ATL::CSimpleStringT<char,0>::CloneData, COMDAT

; 801  : 	{

  00000	56		 push	 esi

; 802  : 		CStringData* pNewData = NULL;
; 803  : 
; 804  : 		IAtlStringMgr* pNewStringMgr = pData->pStringMgr->Clone();

  00001	8b 74 24 08	 mov	 esi, DWORD PTR _pData$[esp]
  00005	8b 0e		 mov	 ecx, DWORD PTR [esi]
  00007	8b 01		 mov	 eax, DWORD PTR [ecx]
  00009	ff 50 10	 call	 DWORD PTR [eax+16]

; 805  : 		if( !pData->IsLocked() && (pNewStringMgr == pData->pStringMgr) )

  0000c	8b 56 0c	 mov	 edx, DWORD PTR [esi+12]
  0000f	85 d2		 test	 edx, edx
  00011	8d 4e 0c	 lea	 ecx, DWORD PTR [esi+12]
  00014	7c 11		 jl	 SHORT $L221356
  00016	3b 06		 cmp	 eax, DWORD PTR [esi]
  00018	75 0d		 jne	 SHORT $L221356

; 806  : 		{
; 807  : 			pNewData = pData;

  0001a	8b c6		 mov	 eax, esi

; 808  : 			pNewData->AddRef();

  0001c	ba 01 00 00 00	 mov	 edx, 1
  00021	f0 0f c1 11	 lock	  xadd	 DWORD PTR [ecx], edx
  00025	5e		 pop	 esi

; 819  : 		}
; 820  : 
; 821  : 		return( pNewData );
; 822  : 	}

  00026	c3		 ret	 0
$L221356:

; 809  : 		}
; 810  : 		else
; 811  : 		{
; 812  : 			pNewData = pNewStringMgr->Allocate( pData->nDataLength, sizeof( XCHAR ) );

  00027	8b 4e 04	 mov	 ecx, DWORD PTR [esi+4]
  0002a	8b 10		 mov	 edx, DWORD PTR [eax]
  0002c	6a 01		 push	 1
  0002e	51		 push	 ecx
  0002f	8b c8		 mov	 ecx, eax
  00031	ff 12		 call	 DWORD PTR [edx]

; 813  : 			if( pNewData == NULL )

  00033	85 c0		 test	 eax, eax
  00035	75 05		 jne	 SHORT $L221359

; 814  : 			{
; 815  : 				ThrowMemoryException();

  00037	e9 00 00 00 00	 jmp	 ?ThrowMemoryException@?$CSimpleStringT@D$0A@@ATL@@KAXXZ ; ATL::CSimpleStringT<char,0>::ThrowMemoryException
$L221359:

; 816  : 			}
; 817  : 			pNewData->nDataLength = pData->nDataLength;

  0003c	8b 56 04	 mov	 edx, DWORD PTR [esi+4]
  0003f	89 50 04	 mov	 DWORD PTR [eax+4], edx

; 818  : 			CopyChars( PXSTR( pNewData->data() ), PCXSTR( pData->data() ), pData->nDataLength+1 );  // Copy '\0'

  00042	8b 4e 04	 mov	 ecx, DWORD PTR [esi+4]
  00045	41		 inc	 ecx
  00046	8b d1		 mov	 edx, ecx
  00048	57		 push	 edi
  00049	c1 e9 02	 shr	 ecx, 2
  0004c	83 c6 10	 add	 esi, 16			; 00000010H
  0004f	8d 78 10	 lea	 edi, DWORD PTR [eax+16]
  00052	f3 a5		 rep movsd
  00054	8b ca		 mov	 ecx, edx
  00056	83 e1 03	 and	 ecx, 3
  00059	f3 a4		 rep movsb
  0005b	5f		 pop	 edi
  0005c	5e		 pop	 esi

; 819  : 		}
; 820  : 
; 821  : 		return( pNewData );
; 822  : 	}

  0005d	c3		 ret	 0
?CloneData@?$CSimpleStringT@D$0A@@ATL@@CAPAUCStringData@2@PAU32@@Z ENDP ; ATL::CSimpleStringT<char,0>::CloneData
_TEXT	ENDS
PUBLIC	?Init@CModelObject@@AAEXXZ			; CModelObject::Init
; Function compile flags: /Ogty
; File c:\documents and settings\test\mes documents\source\virtuos_v17\build\program\_common\modelobject.cpp
;	COMDAT ?Init@CModelObject@@AAEXXZ
_TEXT	SEGMENT
?Init@CModelObject@@AAEXXZ PROC NEAR			; CModelObject::Init, COMDAT
; _this$ = ecx

; 56   : {

  00000	53		 push	 ebx
  00001	56		 push	 esi
  00002	57		 push	 edi

; 57   : 	int		i;
; 58   : 
; 59   : 	for( i = 0; i < MAX_ELEMENT; i ++ )

  00003	33 ff		 xor	 edi, edi
  00005	8b f1		 mov	 esi, ecx
  00007	33 db		 xor	 ebx, ebx
  00009	8d a4 24 00 00
	00 00		 npad	 7
$L228326:

; 60   : 	{
; 61   : 		Init( i );

  00010	53		 push	 ebx
  00011	8b ce		 mov	 ecx, esi
  00013	e8 00 00 00 00	 call	 ?Init@CModelObject@@AAEXH@Z ; CModelObject::Init
  00018	43		 inc	 ebx
  00019	83 fb 15	 cmp	 ebx, 21			; 00000015H
  0001c	7c f2		 jl	 SHORT $L228326

; 62   : 	}
; 63   : 
; 64   : 	m_pBone = NULL;
; 65   : 	m_pForce = m_pForce2 = NULL;
; 66   : 	m_pPartsEffect = m_pPartsEffect2 = NULL;
; 67   : #ifdef __NEW_WEAPON_GLOW
; 68   : 	m_pm_pPartsEffectRegular[0] = m_pm_pPartsEffectRegular[1] = NULL;
; 69   : 	m_pm_pPartsEffectElement[0] = m_pm_pPartsEffectElement[1] = NULL;
; 70   : #endif // __NEW_WEAPON_GLOW
; 71   : 	m_pMotion = m_pMotionOld = NULL;
; 72   : 	m_mUpdateBone = NULL;
; 73   : 	m_nModelType = MODELTYPE_NONE;//BIPED_MESH;
; 74   : 	m_bMotionBlending = FALSE;
; 75   : 	m_fBlendWeight = 0;
; 76   : 	m_bCollObj = 0;
; 77   : 	m_pBaseBoneInv = NULL;
; 78   : 
; 79   : 	m_nFrameOld = 0;
; 80   : 
; 81   : 	m_vMin.x = m_vMin.y = m_vMin.z = 65535.0f;

  0001e	b8 00 ff 7f 47	 mov	 eax, 1199570688		; 477fff00H
  00023	89 86 80 00 00
	00		 mov	 DWORD PTR [esi+128], eax
  00029	89 46 7c	 mov	 DWORD PTR [esi+124], eax
  0002c	89 46 78	 mov	 DWORD PTR [esi+120], eax

; 82   : 	m_vMax.x = m_vMax.y = m_vMax.z = -65535.0f;

  0002f	b8 00 ff 7f c7	 mov	 eax, -947912960		; c77fff00H
  00034	89 be 84 2a 00
	00		 mov	 DWORD PTR [esi+10884], edi
  0003a	89 be 94 2a 00
	00		 mov	 DWORD PTR [esi+10900], edi
  00040	89 be 90 2a 00
	00		 mov	 DWORD PTR [esi+10896], edi
  00046	89 be a4 2a 00
	00		 mov	 DWORD PTR [esi+10916], edi
  0004c	89 be a0 2a 00
	00		 mov	 DWORD PTR [esi+10912], edi
  00052	89 be ac 2a 00
	00		 mov	 DWORD PTR [esi+10924], edi
  00058	89 be a8 2a 00
	00		 mov	 DWORD PTR [esi+10920], edi
  0005e	89 be b4 2a 00
	00		 mov	 DWORD PTR [esi+10932], edi
  00064	89 be b0 2a 00
	00		 mov	 DWORD PTR [esi+10928], edi
  0006a	89 be 88 2a 00
	00		 mov	 DWORD PTR [esi+10888], edi
  00070	89 be 8c 2a 00
	00		 mov	 DWORD PTR [esi+10892], edi
  00076	89 be 9c 2a 00
	00		 mov	 DWORD PTR [esi+10908], edi
  0007c	89 7e 08	 mov	 DWORD PTR [esi+8], edi
  0007f	89 be c0 00 00
	00		 mov	 DWORD PTR [esi+192], edi
  00085	89 be c4 00 00
	00		 mov	 DWORD PTR [esi+196], edi
  0008b	89 be cc 00 00
	00		 mov	 DWORD PTR [esi+204], edi
  00091	89 be c8 00 00
	00		 mov	 DWORD PTR [esi+200], edi
  00097	89 be 98 2a 00
	00		 mov	 DWORD PTR [esi+10904], edi

; 83   : 	m_vForce1.x = m_vForce1.y = m_vForce1.z = 0.0f;

  0009d	89 be c8 2a 00
	00		 mov	 DWORD PTR [esi+10952], edi
  000a3	89 be c4 2a 00
	00		 mov	 DWORD PTR [esi+10948], edi
  000a9	89 be c0 2a 00
	00		 mov	 DWORD PTR [esi+10944], edi

; 84   : 	m_vForce2.x = m_vForce2.y = m_vForce2.z = 0.0f;

  000af	89 be d4 2a 00
	00		 mov	 DWORD PTR [esi+10964], edi
  000b5	89 be d0 2a 00
	00		 mov	 DWORD PTR [esi+10960], edi
  000bb	89 be cc 2a 00
	00		 mov	 DWORD PTR [esi+10956], edi

; 85   : #if __VER >= 9 // __CSC_VER9_5
; 86   : 	m_vForce3.x = m_vForce3.y = m_vForce3.z = 0.0f;

  000c1	89 be e0 2a 00
	00		 mov	 DWORD PTR [esi+10976], edi
  000c7	89 be dc 2a 00
	00		 mov	 DWORD PTR [esi+10972], edi
  000cd	89 be d8 2a 00
	00		 mov	 DWORD PTR [esi+10968], edi

; 87   : 	m_vForce4.x = m_vForce4.y = m_vForce4.z = 0.0f;

  000d3	89 be ec 2a 00
	00		 mov	 DWORD PTR [esi+10988], edi
  000d9	89 be e8 2a 00
	00		 mov	 DWORD PTR [esi+10984], edi
  000df	89 be e4 2a 00
	00		 mov	 DWORD PTR [esi+10980], edi

; 88   : #endif //__CSC_VER9_5
; 89   : 	m_pCloakTexture = NULL;

  000e5	89 be d0 00 00
	00		 mov	 DWORD PTR [esi+208], edi

; 90   : 
; 91   : #if __VER >= 9 // __Y_ADV_ENCHANT_EFFECT
; 92   : 	m_nEffectCount  = 0;

  000eb	89 be 80 2a 00
	00		 mov	 DWORD PTR [esi+10880], edi

; 93   : 
; 94   : 	m_pPartsEffect1_Detail = NULL;

  000f1	89 be b8 2a 00
	00		 mov	 DWORD PTR [esi+10936], edi

; 95   : 	m_pPartsEffect2_Detail = NULL;

  000f7	89 be bc 2a 00
	00		 mov	 DWORD PTR [esi+10940], edi
  000fd	5f		 pop	 edi
  000fe	89 86 8c 00 00
	00		 mov	 DWORD PTR [esi+140], eax
  00104	89 86 88 00 00
	00		 mov	 DWORD PTR [esi+136], eax
  0010a	89 86 84 00 00
	00		 mov	 DWORD PTR [esi+132], eax
  00110	5e		 pop	 esi
  00111	5b		 pop	 ebx

; 96   : 
; 97   : #endif //__Y_ADV_ENCHANT_EFFECT
; 98   : }

  00112	c3		 ret	 0
?Init@CModelObject@@AAEXXZ ENDP				; CModelObject::Init
_TEXT	ENDS
PUBLIC	??_GCSwordForce@@QAEPAXI@Z			; CSwordForce::`scalar deleting destructor'
EXTRN	??3@YAXPAX@Z:NEAR				; operator delete
; Function compile flags: /Ogty
;	COMDAT ??_GCSwordForce@@QAEPAXI@Z
_TEXT	SEGMENT
___flags$ = 8						; size = 4
??_GCSwordForce@@QAEPAXI@Z PROC NEAR			; CSwordForce::`scalar deleting destructor', COMDAT
; _this$ = ecx
  00000	33 c0		 xor	 eax, eax
  00002	56		 push	 esi
  00003	8b f1		 mov	 esi, ecx
  00005	57		 push	 edi
  00006	89 06		 mov	 DWORD PTR [esi], eax
  00008	89 46 04	 mov	 DWORD PTR [esi+4], eax
  0000b	89 46 08	 mov	 DWORD PTR [esi+8], eax
  0000e	c7 46 0c e6 78
	78 ff		 mov	 DWORD PTR [esi+12], -8881946 ; ff7878e6H
  00015	b9 00 08 00 00	 mov	 ecx, 2048		; 00000800H
  0001a	8d 7e 10	 lea	 edi, DWORD PTR [esi+16]
  0001d	f3 ab		 rep stosd
  0001f	b9 00 40 00 00	 mov	 ecx, 16384		; 00004000H
  00024	8d be 10 40 00
	00		 lea	 edi, DWORD PTR [esi+16400]
  0002a	f3 ab		 rep stosd
  0002c	f6 44 24 0c 01	 test	 BYTE PTR ___flags$[esp+4], 1
  00031	74 09		 je	 SHORT $L231392
  00033	56		 push	 esi
  00034	e8 00 00 00 00	 call	 ??3@YAXPAX@Z		; operator delete
  00039	83 c4 04	 add	 esp, 4
$L231392:
  0003c	5f		 pop	 edi
  0003d	8b c6		 mov	 eax, esi
  0003f	5e		 pop	 esi
  00040	c2 04 00	 ret	 4
??_GCSwordForce@@QAEPAXI@Z ENDP				; CSwordForce::`scalar deleting destructor'
_TEXT	ENDS
PUBLIC	?InitDeviceObjects@CModel@@UAEJPAUIDirect3DDevice9@@@Z ; CModel::InitDeviceObjects
PUBLIC	?RestoreDeviceObjects@CModel@@UAEJXZ		; CModel::RestoreDeviceObjects
PUBLIC	?InvalidateDeviceObjects@CModel@@UAEJXZ		; CModel::InvalidateDeviceObjects
PUBLIC	?DeleteDeviceObjects@CModel@@UAEJXZ		; CModel::DeleteDeviceObjects
PUBLIC	?Intersect@CModel@@UAEHABUD3DXVECTOR3@@0ABUD3DXMATRIX@@PAU2@PAMH@Z ; CModel::Intersect
PUBLIC	?IntersectRayTri@CModel@@UAEPAUD3DXVECTOR3@@ABU2@0ABUD3DXMATRIX@@PAU2@PAMH@Z ; CModel::IntersectRayTri
PUBLIC	?IsTouchOBB_Line@CModel@@UAEHABUD3DXVECTOR3@@0ABUD3DXMATRIX@@PAU2@H@Z ; CModel::IsTouchOBB_Line
PUBLIC	?TestIntersectionOBB_Line@CModel@@UAEHABVSegment3@@PBVCObj@@H@Z ; CModel::TestIntersectionOBB_Line
PUBLIC	??_7CModel@@6B@					; CModel::`vftable'
PUBLIC	??_GCModel@@UAEPAXI@Z				; CModel::`scalar deleting destructor'
PUBLIC	??0CModel@@QAE@XZ				; CModel::CModel
PUBLIC	?LoadModel@CModel@@UAEHPBD@Z			; CModel::LoadModel
PUBLIC	?SaveModel@CModel@@UAEHPBD@Z			; CModel::SaveModel
PUBLIC	?ClearNormal@CModel@@UAEXXZ			; CModel::ClearNormal
PUBLIC	?IsLoadAttr@CModel@@UAEHXZ			; CModel::IsLoadAttr
PUBLIC	?GetMotionAttr@CModel@@UAEPAUMOTION_ATTR@@H@Z	; CModel::GetMotionAttr
PUBLIC	?GetAttr@CModel@@UAEKH@Z			; CModel::GetAttr
PUBLIC	?IsAttrHit@CModel@@UAEKM@Z			; CModel::IsAttrHit
PUBLIC	?IsAttrHit@CModel@@UAEKXZ			; CModel::IsAttrHit
PUBLIC	?IsAttrSound@CModel@@UAEPAUMOTION_ATTR@@M@Z	; CModel::IsAttrSound
PUBLIC	?IsAttrSound@CModel@@UAEPAUMOTION_ATTR@@XZ	; CModel::IsAttrSound
PUBLIC	?IsAttrQuake@CModel@@UAEKM@Z			; CModel::IsAttrQuake
PUBLIC	?IsAttrQuake@CModel@@UAEKXZ			; CModel::IsAttrQuake
PUBLIC	?SetAttr@CModel@@UAEXMK@Z			; CModel::SetAttr
PUBLIC	?ResetAttr@CModel@@UAEXHK@Z			; CModel::ResetAttr
PUBLIC	?SetGroup@CModel@@UAEXH@Z			; CModel::SetGroup
PUBLIC	?IsHaveCollObj@CModel@@UAEHXZ			; CModel::IsHaveCollObj
PUBLIC	?RenderEffect@CModel@@UAEXPAUIDirect3DDevice9@@PBUD3DXMATRIX@@KKHH@Z ; CModel::RenderEffect
EXTRN	??_ECModel@@UAEPAXI@Z:NEAR			; CModel::`vector deleting destructor'
EXTRN	?AddFrame@CModel@@UAEXM@Z:NEAR			; CModel::AddFrame
EXTRN	?SetFrame@CModel@@UAEXM@Z:NEAR			; CModel::SetFrame
EXTRN	?Render@CModel@@UAEHPAUIDirect3DDevice9@@PBUD3DXMATRIX@@@Z:NEAR ; CModel::Render
;	COMDAT ??_7CModel@@6B@
; File c:\documents and settings\test\mes documents\source\virtuos_v17\build\program\dx_sdk\d3dx9math.h
CONST	SEGMENT
??_7CModel@@6B@ DD FLAT:??_ECModel@@UAEPAXI@Z		; CModel::`vftable'
	DD	FLAT:?LoadModel@CModel@@UAEHPBD@Z
	DD	FLAT:?SaveModel@CModel@@UAEHPBD@Z
	DD	FLAT:?ClearNormal@CModel@@UAEXXZ
	DD	FLAT:?AddFrame@CModel@@UAEXM@Z
	DD	FLAT:?SetFrame@CModel@@UAEXM@Z
	DD	FLAT:?IsLoadAttr@CModel@@UAEHXZ
	DD	FLAT:?GetMotionAttr@CModel@@UAEPAUMOTION_ATTR@@H@Z
	DD	FLAT:?GetAttr@CModel@@UAEKH@Z
	DD	FLAT:?IsAttrHit@CModel@@UAEKXZ
	DD	FLAT:?IsAttrHit@CModel@@UAEKM@Z
	DD	FLAT:?IsAttrSound@CModel@@UAEPAUMOTION_ATTR@@XZ
	DD	FLAT:?IsAttrSound@CModel@@UAEPAUMOTION_ATTR@@M@Z
	DD	FLAT:?IsAttrQuake@CModel@@UAEKXZ
	DD	FLAT:?IsAttrQuake@CModel@@UAEKM@Z
	DD	FLAT:?SetAttr@CModel@@UAEXMK@Z
	DD	FLAT:?ResetAttr@CModel@@UAEXHK@Z
	DD	FLAT:?SetGroup@CModel@@UAEXH@Z
	DD	FLAT:?IsHaveCollObj@CModel@@UAEHXZ
	DD	FLAT:?Render@CModel@@UAEHPAUIDirect3DDevice9@@PBUD3DXMATRIX@@@Z
	DD	FLAT:?RenderEffect@CModel@@UAEXPAUIDirect3DDevice9@@PBUD3DXMATRIX@@KKHH@Z
	DD	FLAT:?FrameMove@CModel@@UAEXPAUD3DXVECTOR3@@M@Z
	DD	FLAT:?InitDeviceObjects@CModel@@UAEJPAUIDirect3DDevice9@@@Z
	DD	FLAT:?RestoreDeviceObjects@CModel@@UAEJXZ
	DD	FLAT:?InvalidateDeviceObjects@CModel@@UAEJXZ
	DD	FLAT:?DeleteDeviceObjects@CModel@@UAEJXZ
	DD	FLAT:?Intersect@CModel@@UAEHABUD3DXVECTOR3@@0ABUD3DXMATRIX@@PAU2@PAMH@Z
	DD	FLAT:?IntersectRayTri@CModel@@UAEPAUD3DXVECTOR3@@ABU2@0ABUD3DXMATRIX@@PAU2@PAMH@Z
	DD	FLAT:?IsTouchOBB_Line@CModel@@UAEHABUD3DXVECTOR3@@0ABUD3DXMATRIX@@PAU2@H@Z
	DD	FLAT:?TestIntersectionOBB_Line@CModel@@UAEHABVSegment3@@PBVCObj@@H@Z
; Function compile flags: /Ogty
; File c:\documents and settings\test\mes documents\source\virtuos_v17\build\program\_common\model.h
CONST	ENDS
;	COMDAT ??0CModel@@QAE@XZ
_TEXT	SEGMENT
??0CModel@@QAE@XZ PROC NEAR				; CModel::CModel, COMDAT
; _this$ = ecx

; 102  : 	CModel() { Init(); }

  00000	56		 push	 esi
  00001	8b f1		 mov	 esi, ecx
  00003	c7 06 00 00 00
	00		 mov	 DWORD PTR [esi], OFFSET FLAT:??_7CModel@@6B@
  00009	e8 00 00 00 00	 call	 ?Init@CModel@@QAEXXZ	; CModel::Init
  0000e	8b c6		 mov	 eax, esi
  00010	5e		 pop	 esi
  00011	c3		 ret	 0
??0CModel@@QAE@XZ ENDP					; CModel::CModel
; Function compile flags: /Ogty
_TEXT	ENDS
;	COMDAT ?LoadModel@CModel@@UAEHPBD@Z
_TEXT	SEGMENT
_szFileName$ = 8					; size = 4
?LoadModel@CModel@@UAEHPBD@Z PROC NEAR			; CModel::LoadModel, COMDAT
; _this$ = ecx

; 155  : 	virtual int		LoadModel( LPCTSTR szFileName ) { return 1; }

  00000	b8 01 00 00 00	 mov	 eax, 1
  00005	c2 04 00	 ret	 4
?LoadModel@CModel@@UAEHPBD@Z ENDP			; CModel::LoadModel
; Function compile flags: /Ogty
_TEXT	ENDS
;	COMDAT ?SaveModel@CModel@@UAEHPBD@Z
_TEXT	SEGMENT
_szFileName$ = 8					; size = 4
?SaveModel@CModel@@UAEHPBD@Z PROC NEAR			; CModel::SaveModel, COMDAT
; _this$ = ecx

; 156  : 	virtual int		SaveModel( LPCTSTR szFileName ) { return 1; }

  00000	b8 01 00 00 00	 mov	 eax, 1
  00005	c2 04 00	 ret	 4
?SaveModel@CModel@@UAEHPBD@Z ENDP			; CModel::SaveModel
; Function compile flags: /Ogty
_TEXT	ENDS
;	COMDAT ?ClearNormal@CModel@@UAEXXZ
_TEXT	SEGMENT
?ClearNormal@CModel@@UAEXXZ PROC NEAR			; CModel::ClearNormal, COMDAT
; _this$ = ecx

; 157  : 	virtual void	ClearNormal( void ) {}		//   .

  00000	c3		 ret	 0
?ClearNormal@CModel@@UAEXXZ ENDP			; CModel::ClearNormal
; Function compile flags: /Ogty
_TEXT	ENDS
;	COMDAT ?IsLoadAttr@CModel@@UAEHXZ
_TEXT	SEGMENT
?IsLoadAttr@CModel@@UAEHXZ PROC NEAR			; CModel::IsLoadAttr, COMDAT
; _this$ = ecx

; 163  : 	virtual BOOL	IsLoadAttr( void ) { return FALSE; }

  00000	33 c0		 xor	 eax, eax
  00002	c3		 ret	 0
?IsLoadAttr@CModel@@UAEHXZ ENDP				; CModel::IsLoadAttr
; Function compile flags: /Ogty
_TEXT	ENDS
;	COMDAT ?GetMotionAttr@CModel@@UAEPAUMOTION_ATTR@@H@Z
_TEXT	SEGMENT
_nNumFrm$ = 8						; size = 4
?GetMotionAttr@CModel@@UAEPAUMOTION_ATTR@@H@Z PROC NEAR	; CModel::GetMotionAttr, COMDAT
; _this$ = ecx

; 164  : 	virtual MOTION_ATTR *GetMotionAttr( int nNumFrm ) { return NULL; }

  00000	33 c0		 xor	 eax, eax
  00002	c2 04 00	 ret	 4
?GetMotionAttr@CModel@@UAEPAUMOTION_ATTR@@H@Z ENDP	; CModel::GetMotionAttr
; Function compile flags: /Ogty
_TEXT	ENDS
;	COMDAT ?GetAttr@CModel@@UAEKH@Z
_TEXT	SEGMENT
_nNumFrm$ = 8						; size = 4
?GetAttr@CModel@@UAEKH@Z PROC NEAR			; CModel::GetAttr, COMDAT
; _this$ = ecx

; 165  : 	virtual DWORD	GetAttr( int nNumFrm ) { return 0; }

  00000	33 c0		 xor	 eax, eax
  00002	c2 04 00	 ret	 4
?GetAttr@CModel@@UAEKH@Z ENDP				; CModel::GetAttr
; Function compile flags: /Ogty
_TEXT	ENDS
;	COMDAT ?IsAttrHit@CModel@@UAEKM@Z
_TEXT	SEGMENT
_fNumFrm$ = 8						; size = 4
?IsAttrHit@CModel@@UAEKM@Z PROC NEAR			; CModel::IsAttrHit, COMDAT
; _this$ = ecx

; 166  : 	virtual DWORD	IsAttrHit( float fNumFrm ) { return 0; }

  00000	33 c0		 xor	 eax, eax
  00002	c2 04 00	 ret	 4
?IsAttrHit@CModel@@UAEKM@Z ENDP				; CModel::IsAttrHit
; Function compile flags: /Ogty
_TEXT	ENDS
;	COMDAT ?IsAttrHit@CModel@@UAEKXZ
_TEXT	SEGMENT
?IsAttrHit@CModel@@UAEKXZ PROC NEAR			; CModel::IsAttrHit, COMDAT
; _this$ = ecx

; 167  : 	virtual DWORD	IsAttrHit( void ) { return 0; }

  00000	33 c0		 xor	 eax, eax
  00002	c3		 ret	 0
?IsAttrHit@CModel@@UAEKXZ ENDP				; CModel::IsAttrHit
; Function compile flags: /Ogty
_TEXT	ENDS
;	COMDAT ?IsAttrSound@CModel@@UAEPAUMOTION_ATTR@@M@Z
_TEXT	SEGMENT
_fNumFrm$ = 8						; size = 4
?IsAttrSound@CModel@@UAEPAUMOTION_ATTR@@M@Z PROC NEAR	; CModel::IsAttrSound, COMDAT
; _this$ = ecx

; 168  : 	virtual MOTION_ATTR *IsAttrSound( float fNumFrm ) { return NULL; }

  00000	33 c0		 xor	 eax, eax
  00002	c2 04 00	 ret	 4
?IsAttrSound@CModel@@UAEPAUMOTION_ATTR@@M@Z ENDP	; CModel::IsAttrSound
; Function compile flags: /Ogty
_TEXT	ENDS
;	COMDAT ?IsAttrSound@CModel@@UAEPAUMOTION_ATTR@@XZ
_TEXT	SEGMENT
?IsAttrSound@CModel@@UAEPAUMOTION_ATTR@@XZ PROC NEAR	; CModel::IsAttrSound, COMDAT
; _this$ = ecx

; 169  : 	virtual MOTION_ATTR *IsAttrSound( void ) { return 0; }

  00000	33 c0		 xor	 eax, eax
  00002	c3		 ret	 0
?IsAttrSound@CModel@@UAEPAUMOTION_ATTR@@XZ ENDP		; CModel::IsAttrSound
; Function compile flags: /Ogty
_TEXT	ENDS
;	COMDAT ?IsAttrQuake@CModel@@UAEKM@Z
_TEXT	SEGMENT
_fNumFrm$ = 8						; size = 4
?IsAttrQuake@CModel@@UAEKM@Z PROC NEAR			; CModel::IsAttrQuake, COMDAT
; _this$ = ecx

; 170  : 	virtual DWORD	IsAttrQuake( float fNumFrm ) { return 0; }

  00000	33 c0		 xor	 eax, eax
  00002	c2 04 00	 ret	 4
?IsAttrQuake@CModel@@UAEKM@Z ENDP			; CModel::IsAttrQuake
; Function compile flags: /Ogty
_TEXT	ENDS
;	COMDAT ?IsAttrQuake@CModel@@UAEKXZ
_TEXT	SEGMENT
?IsAttrQuake@CModel@@UAEKXZ PROC NEAR			; CModel::IsAttrQuake, COMDAT
; _this$ = ecx

; 171  : 	virtual DWORD	IsAttrQuake( void ) { return 0; }

  00000	33 c0		 xor	 eax, eax
  00002	c3		 ret	 0
?IsAttrQuake@CModel@@UAEKXZ ENDP			; CModel::IsAttrQuake
; Function compile flags: /Ogty
_TEXT	ENDS
;	COMDAT ?SetAttr@CModel@@UAEXMK@Z
_TEXT	SEGMENT
_fNumFrm$ = 8						; size = 4
_dwAttr$ = 12						; size = 4
?SetAttr@CModel@@UAEXMK@Z PROC NEAR			; CModel::SetAttr, COMDAT
; _this$ = ecx

; 172  : 	virtual void	SetAttr( float fNumFrm, DWORD dwAttr ) {}

  00000	c2 08 00	 ret	 8
?SetAttr@CModel@@UAEXMK@Z ENDP				; CModel::SetAttr
; Function compile flags: /Ogty
_TEXT	ENDS
;	COMDAT ?ResetAttr@CModel@@UAEXHK@Z
_TEXT	SEGMENT
_nNumFrm$ = 8						; size = 4
_dwAttr$ = 12						; size = 4
?ResetAttr@CModel@@UAEXHK@Z PROC NEAR			; CModel::ResetAttr, COMDAT
; _this$ = ecx

; 173  : 	virtual void	ResetAttr( int nNumFrm, DWORD dwAttr ) {}

  00000	c2 08 00	 ret	 8
?ResetAttr@CModel@@UAEXHK@Z ENDP			; CModel::ResetAttr
; Function compile flags: /Ogty
_TEXT	ENDS
;	COMDAT ?SetGroup@CModel@@UAEXH@Z
_TEXT	SEGMENT
_nNum$ = 8						; size = 4
?SetGroup@CModel@@UAEXH@Z PROC NEAR			; CModel::SetGroup, COMDAT
; _this$ = ecx

; 174  : 	virtual	void	SetGroup( int nNum ) {}		// Set LOD Group

  00000	c2 04 00	 ret	 4
?SetGroup@CModel@@UAEXH@Z ENDP				; CModel::SetGroup
; Function compile flags: /Ogty
_TEXT	ENDS
;	COMDAT ?IsHaveCollObj@CModel@@UAEHXZ
_TEXT	SEGMENT
?IsHaveCollObj@CModel@@UAEHXZ PROC NEAR			; CModel::IsHaveCollObj, COMDAT
; _this$ = ecx

; 175  : 	virtual int		IsHaveCollObj( void ) { return 0; }

  00000	33 c0		 xor	 eax, eax
  00002	c3		 ret	 0
?IsHaveCollObj@CModel@@UAEHXZ ENDP			; CModel::IsHaveCollObj
; Function compile flags: /Ogty
_TEXT	ENDS
;	COMDAT ?RenderEffect@CModel@@UAEXPAUIDirect3DDevice9@@PBUD3DXMATRIX@@KKHH@Z
_TEXT	SEGMENT
_pd3dDevice$ = 8					; size = 4
_pmWorld$ = 12						; size = 4
_dwItemKind3$ = 16					; size = 4
_dwItemKind3Right$ = 20					; size = 4
_nLevelL$ = 24						; size = 4
_nLeveR$ = 28						; size = 4
?RenderEffect@CModel@@UAEXPAUIDirect3DDevice9@@PBUD3DXMATRIX@@KKHH@Z PROC NEAR ; CModel::RenderEffect, COMDAT
; _this$ = ecx

; 180  : 	virtual void	RenderEffect( LPDIRECT3DDEVICE9 pd3dDevice, const D3DXMATRIX* pmWorld = NULL, DWORD dwItemKind3 = NULL_ID, DWORD dwItemKind3Right = NULL_ID, int nLevelL = 0, int nLeveR = 0) {}	

  00000	c2 18 00	 ret	 24			; 00000018H
?RenderEffect@CModel@@UAEXPAUIDirect3DDevice9@@PBUD3DXMATRIX@@KKHH@Z ENDP ; CModel::RenderEffect
; Function compile flags: /Ogty
_TEXT	ENDS
;	COMDAT ?InitDeviceObjects@CModel@@UAEJPAUIDirect3DDevice9@@@Z
_TEXT	SEGMENT
_pd3dDevice$ = 8					; size = 4
?InitDeviceObjects@CModel@@UAEJPAUIDirect3DDevice9@@@Z PROC NEAR ; CModel::InitDeviceObjects, COMDAT
; _this$ = ecx

; 186  : 	virtual HRESULT InitDeviceObjects( LPDIRECT3DDEVICE9 pd3dDevice ) { m_pd3dDevice = pd3dDevice; return S_OK; }

  00000	8b 44 24 04	 mov	 eax, DWORD PTR _pd3dDevice$[esp-4]
  00004	89 41 04	 mov	 DWORD PTR [ecx+4], eax
  00007	33 c0		 xor	 eax, eax
  00009	c2 04 00	 ret	 4
?InitDeviceObjects@CModel@@UAEJPAUIDirect3DDevice9@@@Z ENDP ; CModel::InitDeviceObjects
; Function compile flags: /Ogty
_TEXT	ENDS
;	COMDAT ?RestoreDeviceObjects@CModel@@UAEJXZ
_TEXT	SEGMENT
?RestoreDeviceObjects@CModel@@UAEJXZ PROC NEAR		; CModel::RestoreDeviceObjects, COMDAT
; _this$ = ecx

; 187  : 	virtual HRESULT RestoreDeviceObjects() { return S_OK; }

  00000	33 c0		 xor	 eax, eax
  00002	c3		 ret	 0
?RestoreDeviceObjects@CModel@@UAEJXZ ENDP		; CModel::RestoreDeviceObjects
; Function compile flags: /Ogty
_TEXT	ENDS
;	COMDAT ?InvalidateDeviceObjects@CModel@@UAEJXZ
_TEXT	SEGMENT
?InvalidateDeviceObjects@CModel@@UAEJXZ PROC NEAR	; CModel::InvalidateDeviceObjects, COMDAT
; _this$ = ecx

; 188  : 	virtual HRESULT InvalidateDeviceObjects() { return S_OK; }

  00000	33 c0		 xor	 eax, eax
  00002	c3		 ret	 0
?InvalidateDeviceObjects@CModel@@UAEJXZ ENDP		; CModel::InvalidateDeviceObjects
; Function compile flags: /Ogty
_TEXT	ENDS
;	COMDAT ?DeleteDeviceObjects@CModel@@UAEJXZ
_TEXT	SEGMENT
?DeleteDeviceObjects@CModel@@UAEJXZ PROC NEAR		; CModel::DeleteDeviceObjects, COMDAT
; _this$ = ecx

; 189  : 	virtual HRESULT DeleteDeviceObjects() { return S_OK; }

  00000	33 c0		 xor	 eax, eax
  00002	c3		 ret	 0
?DeleteDeviceObjects@CModel@@UAEJXZ ENDP		; CModel::DeleteDeviceObjects
; Function compile flags: /Ogty
_TEXT	ENDS
;	COMDAT ?Intersect@CModel@@UAEHABUD3DXVECTOR3@@0ABUD3DXMATRIX@@PAU2@PAMH@Z
_TEXT	SEGMENT
_vRayOrig$ = 8						; size = 4
_vRayDir$ = 12						; size = 4
_mWorld$ = 16						; size = 4
_pvIntersect$ = 20					; size = 4
_pfDist$ = 24						; size = 4
_bColl$ = 28						; size = 4
?Intersect@CModel@@UAEHABUD3DXVECTOR3@@0ABUD3DXMATRIX@@PAU2@PAMH@Z PROC NEAR ; CModel::Intersect, COMDAT
; _this$ = ecx

; 193  : 	virtual BOOL	Intersect( const D3DXVECTOR3 &vRayOrig, const D3DXVECTOR3 &vRayDir, const D3DXMATRIX &mWorld, D3DXVECTOR3* pvIntersect, FLOAT* pfDist, BOOL bColl = FALSE ) { return FALSE; }

  00000	33 c0		 xor	 eax, eax
  00002	c2 18 00	 ret	 24			; 00000018H
?Intersect@CModel@@UAEHABUD3DXVECTOR3@@0ABUD3DXMATRIX@@PAU2@PAMH@Z ENDP ; CModel::Intersect
; Function compile flags: /Ogty
_TEXT	ENDS
;	COMDAT ?IntersectRayTri@CModel@@UAEPAUD3DXVECTOR3@@ABU2@0ABUD3DXMATRIX@@PAU2@PAMH@Z
_TEXT	SEGMENT
_vRayOrig$ = 8						; size = 4
_vRayDir$ = 12						; size = 4
_mWorld$ = 16						; size = 4
_pvIntersect$ = 20					; size = 4
_pfDist$ = 24						; size = 4
_bColl$ = 28						; size = 4
?IntersectRayTri@CModel@@UAEPAUD3DXVECTOR3@@ABU2@0ABUD3DXMATRIX@@PAU2@PAMH@Z PROC NEAR ; CModel::IntersectRayTri, COMDAT
; _this$ = ecx

; 194  : 	virtual D3DXVECTOR3 *IntersectRayTri( const D3DXVECTOR3 &vRayOrig, const D3DXVECTOR3 &vRayDir, const D3DXMATRIX &mWorld, D3DXVECTOR3* pvIntersect, FLOAT* pfDist, BOOL bColl = FALSE ) { return NULL; }

  00000	33 c0		 xor	 eax, eax
  00002	c2 18 00	 ret	 24			; 00000018H
?IntersectRayTri@CModel@@UAEPAUD3DXVECTOR3@@ABU2@0ABUD3DXMATRIX@@PAU2@PAMH@Z ENDP ; CModel::IntersectRayTri
; Function compile flags: /Ogty
_TEXT	ENDS
;	COMDAT ?IsTouchOBB_Line@CModel@@UAEHABUD3DXVECTOR3@@0ABUD3DXMATRIX@@PAU2@H@Z
_TEXT	SEGMENT
_vStart$ = 8						; size = 4
_vEnd$ = 12						; size = 4
_mWorld$ = 16						; size = 4
_pvIntersect$ = 20					; size = 4
_bNeedCollObject$ = 24					; size = 4
?IsTouchOBB_Line@CModel@@UAEHABUD3DXVECTOR3@@0ABUD3DXMATRIX@@PAU2@H@Z PROC NEAR ; CModel::IsTouchOBB_Line, COMDAT
; _this$ = ecx

; 195  : 	virtual	BOOL	IsTouchOBB_Line( const D3DXVECTOR3 &vStart, const D3DXVECTOR3 &vEnd, const D3DXMATRIX &mWorld, D3DXVECTOR3* pvIntersect, BOOL bNeedCollObject = TRUE ) { return FALSE;}

  00000	33 c0		 xor	 eax, eax
  00002	c2 14 00	 ret	 20			; 00000014H
?IsTouchOBB_Line@CModel@@UAEHABUD3DXVECTOR3@@0ABUD3DXMATRIX@@PAU2@H@Z ENDP ; CModel::IsTouchOBB_Line
; Function compile flags: /Ogty
_TEXT	ENDS
;	COMDAT ?TestIntersectionOBB_Line@CModel@@UAEHABVSegment3@@PBVCObj@@H@Z
_TEXT	SEGMENT
_segment$ = 8						; size = 4
_pObj$ = 12						; size = 4
_bNeedCollObject$ = 16					; size = 4
?TestIntersectionOBB_Line@CModel@@UAEHABVSegment3@@PBVCObj@@H@Z PROC NEAR ; CModel::TestIntersectionOBB_Line, COMDAT
; _this$ = ecx

; 196  : 	virtual	BOOL	TestIntersectionOBB_Line( const Segment3& segment, const CObj* pObj, BOOL bNeedCollObject = TRUE ) { return FALSE;}

  00000	33 c0		 xor	 eax, eax
  00002	c2 0c 00	 ret	 12			; 0000000cH
?TestIntersectionOBB_Line@CModel@@UAEHABVSegment3@@PBVCObj@@H@Z ENDP ; CModel::TestIntersectionOBB_Line
_TEXT	ENDS
EXTRN	??1CModel@@UAE@XZ:NEAR				; CModel::~CModel
; Function compile flags: /Ogty
;	COMDAT ??_GCModel@@UAEPAXI@Z
_TEXT	SEGMENT
___flags$ = 8						; size = 4
??_GCModel@@UAEPAXI@Z PROC NEAR				; CModel::`scalar deleting destructor', COMDAT
; _this$ = ecx
  00000	56		 push	 esi
  00001	8b f1		 mov	 esi, ecx
  00003	e8 00 00 00 00	 call	 ??1CModel@@UAE@XZ	; CModel::~CModel
  00008	f6 44 24 08 01	 test	 BYTE PTR ___flags$[esp], 1
  0000d	74 09		 je	 SHORT $L231480
  0000f	56		 push	 esi
  00010	e8 00 00 00 00	 call	 ??3@YAXPAX@Z		; operator delete
  00015	83 c4 04	 add	 esp, 4
$L231480:
  00018	8b c6		 mov	 eax, esi
  0001a	5e		 pop	 esi
  0001b	c2 04 00	 ret	 4
??_GCModel@@UAEPAXI@Z ENDP				; CModel::`scalar deleting destructor'
_TEXT	ENDS
PUBLIC	??0?$CStringT@DV?$StrTraitMFC@DV?$ChTraitsCRT@D@ATL@@@@@ATL@@QAE@XZ ; ATL::CStringT<char,StrTraitMFC<char,ATL::ChTraitsCRT<char> > >::CStringT<char,StrTraitMFC<char,ATL::ChTraitsCRT<char> > >
; Function compile flags: /Ogty
; File c:\program files\microsoft visual studio .net 2003\vc7\atlmfc\include\cstringt.h
;	COMDAT ??0?$CStringT@DV?$StrTraitMFC@DV?$ChTraitsCRT@D@ATL@@@@@ATL@@QAE@XZ
_TEXT	SEGMENT
??0?$CStringT@DV?$StrTraitMFC@DV?$ChTraitsCRT@D@ATL@@@@@ATL@@QAE@XZ PROC NEAR ; ATL::CStringT<char,StrTraitMFC<char,ATL::ChTraitsCRT<char> > >::CStringT<char,StrTraitMFC<char,ATL::ChTraitsCRT<char> > >, COMDAT
; _this$ = ecx

; 796  : 	{

  00000	56		 push	 esi
  00001	8b f1		 mov	 esi, ecx
  00003	e8 00 00 00 00	 call	 ?AfxGetStringManager@@YGPAUIAtlStringMgr@ATL@@XZ ; AfxGetStringManager
  00008	8b 10		 mov	 edx, DWORD PTR [eax]
  0000a	8b c8		 mov	 ecx, eax
  0000c	ff 52 0c	 call	 DWORD PTR [edx+12]
  0000f	83 c0 10	 add	 eax, 16			; 00000010H
  00012	89 06		 mov	 DWORD PTR [esi], eax

; 797  : 	}

  00014	8b c6		 mov	 eax, esi
  00016	5e		 pop	 esi
  00017	c3		 ret	 0
??0?$CStringT@DV?$StrTraitMFC@DV?$ChTraitsCRT@D@ATL@@@@@ATL@@QAE@XZ ENDP ; ATL::CStringT<char,StrTraitMFC<char,ATL::ChTraitsCRT<char> > >::CStringT<char,StrTraitMFC<char,ATL::ChTraitsCRT<char> > >
_TEXT	ENDS
PUBLIC	??1?$CStringT@DV?$StrTraitMFC@DV?$ChTraitsCRT@D@ATL@@@@@ATL@@QAE@XZ ; ATL::CStringT<char,StrTraitMFC<char,ATL::ChTraitsCRT<char> > >::~CStringT<char,StrTraitMFC<char,ATL::ChTraitsCRT<char> > >
; Function compile flags: /Ogty
;	COMDAT ??1?$CStringT@DV?$StrTraitMFC@DV?$ChTraitsCRT@D@ATL@@@@@ATL@@QAE@XZ
_TEXT	SEGMENT
??1?$CStringT@DV?$StrTraitMFC@DV?$ChTraitsCRT@D@ATL@@@@@ATL@@QAE@XZ PROC NEAR ; ATL::CStringT<char,StrTraitMFC<char,ATL::ChTraitsCRT<char> > >::~CStringT<char,StrTraitMFC<char,ATL::ChTraitsCRT<char> > >, COMDAT
; _this$ = ecx

; 963  : 	}

  00000	8b 01		 mov	 eax, DWORD PTR [ecx]
  00002	83 e8 10	 sub	 eax, 16			; 00000010H
  00005	8d 48 0c	 lea	 ecx, DWORD PTR [eax+12]
  00008	83 ca ff	 or	 edx, -1
  0000b	f0 0f c1 11	 lock	  xadd	 DWORD PTR [ecx], edx
  0000f	4a		 dec	 edx
  00010	85 d2		 test	 edx, edx
  00012	7f 08		 jg	 SHORT $L231520
  00014	8b 08		 mov	 ecx, DWORD PTR [eax]
  00016	8b 11		 mov	 edx, DWORD PTR [ecx]
  00018	50		 push	 eax
  00019	ff 52 04	 call	 DWORD PTR [edx+4]
$L231520:
  0001c	c3		 ret	 0
??1?$CStringT@DV?$StrTraitMFC@DV?$ChTraitsCRT@D@ATL@@@@@ATL@@QAE@XZ ENDP ; ATL::CStringT<char,StrTraitMFC<char,ATL::ChTraitsCRT<char> > >::~CStringT<char,StrTraitMFC<char,ATL::ChTraitsCRT<char> > >
_TEXT	ENDS
PUBLIC	??0?$CSimpleStringT@D$0A@@ATL@@QAE@ABV01@@Z	; ATL::CSimpleStringT<char,0>::CSimpleStringT<char,0>
; Function compile flags: /Ogty
; File c:\program files\microsoft visual studio .net 2003\vc7\atlmfc\include\atlsimpstr.h
;	COMDAT ??0?$CSimpleStringT@D$0A@@ATL@@QAE@ABV01@@Z
_TEXT	SEGMENT
_strSrc$ = 8						; size = 4
??0?$CSimpleStringT@D$0A@@ATL@@QAE@ABV01@@Z PROC NEAR	; ATL::CSimpleStringT<char,0>::CSimpleStringT<char,0>, COMDAT
; _this$ = ecx

; 218  : 	{
; 219  : 		CStringData* pSrcData = strSrc.GetData();

  00000	8b 44 24 04	 mov	 eax, DWORD PTR _strSrc$[esp-4]
  00004	8b 00		 mov	 eax, DWORD PTR [eax]
  00006	56		 push	 esi
  00007	83 e8 10	 sub	 eax, 16			; 00000010H

; 220  : 		CStringData* pNewData = CloneData( pSrcData );

  0000a	50		 push	 eax
  0000b	8b f1		 mov	 esi, ecx
  0000d	e8 00 00 00 00	 call	 ?CloneData@?$CSimpleStringT@D$0A@@ATL@@CAPAUCStringData@2@PAU32@@Z ; ATL::CSimpleStringT<char,0>::CloneData

; 221  : 		Attach( pNewData );

  00012	83 c0 10	 add	 eax, 16			; 00000010H
  00015	89 06		 mov	 DWORD PTR [esi], eax
  00017	83 c4 04	 add	 esp, 4

; 222  : 	}

  0001a	8b c6		 mov	 eax, esi
  0001c	5e		 pop	 esi
  0001d	c2 04 00	 ret	 4
??0?$CSimpleStringT@D$0A@@ATL@@QAE@ABV01@@Z ENDP	; ATL::CSimpleStringT<char,0>::CSimpleStringT<char,0>
_TEXT	ENDS
PUBLIC	?PrepareWrite@?$CSimpleStringT@D$0A@@ATL@@AAEPADH@Z ; ATL::CSimpleStringT<char,0>::PrepareWrite
; Function compile flags: /Ogty
;	COMDAT ?PrepareWrite@?$CSimpleStringT@D$0A@@ATL@@AAEPADH@Z
_TEXT	SEGMENT
_nLength$ = 8						; size = 4
?PrepareWrite@?$CSimpleStringT@D$0A@@ATL@@AAEPADH@Z PROC NEAR ; ATL::CSimpleStringT<char,0>::PrepareWrite, COMDAT
; _this$ = ecx

; 734  : 	{

  00000	56		 push	 esi
  00001	8b f1		 mov	 esi, ecx

; 735  : 		CStringData* pOldData = GetData();

  00003	8b 06		 mov	 eax, DWORD PTR [esi]

; 736  : 		int nShared = 1-pOldData->nRefs;  // nShared < 0 means true, >= 0 means false

  00005	8b 50 fc	 mov	 edx, DWORD PTR [eax-4]
  00008	83 e8 10	 sub	 eax, 16			; 00000010H
  0000b	b9 01 00 00 00	 mov	 ecx, 1
  00010	2b ca		 sub	 ecx, edx

; 737  : 		int nTooShort = pOldData->nAllocLength-nLength;  // nTooShort < 0 means true, >= 0 means false

  00012	8b 50 08	 mov	 edx, DWORD PTR [eax+8]
  00015	8b 44 24 08	 mov	 eax, DWORD PTR _nLength$[esp]
  00019	2b d0		 sub	 edx, eax

; 738  : 		if( (nShared|nTooShort) < 0 )  // If either sign bit is set (i.e. either is less than zero), we need to copy data

  0001b	0b ca		 or	 ecx, edx
  0001d	7d 08		 jge	 SHORT $L231543

; 739  : 		{
; 740  : 			PrepareWrite2( nLength );

  0001f	50		 push	 eax
  00020	8b ce		 mov	 ecx, esi
  00022	e8 00 00 00 00	 call	 ?PrepareWrite2@?$CSimpleStringT@D$0A@@ATL@@AAEXH@Z ; ATL::CSimpleStringT<char,0>::PrepareWrite2
$L231543:

; 741  : 		}
; 742  : 
; 743  : 		return( m_pszData );

  00027	8b 06		 mov	 eax, DWORD PTR [esi]
  00029	5e		 pop	 esi

; 744  : 	}

  0002a	c2 04 00	 ret	 4
?PrepareWrite@?$CSimpleStringT@D$0A@@ATL@@AAEPADH@Z ENDP ; ATL::CSimpleStringT<char,0>::PrepareWrite
_TEXT	ENDS
PUBLIC	??0CModelObject@@QAE@XZ				; CModelObject::CModelObject
PUBLIC	?SetGroup@CModelObject@@UAEXH@Z			; CModelObject::SetGroup
PUBLIC	?IsLoadAttr@CModelObject@@UAEHXZ		; CModelObject::IsLoadAttr
PUBLIC	?GetMotionAttr@CModelObject@@UAEPAUMOTION_ATTR@@H@Z ; CModelObject::GetMotionAttr
PUBLIC	?IsAttrHit@CModelObject@@UAEKXZ			; CModelObject::IsAttrHit
PUBLIC	?IsAttrHit@CModelObject@@UAEKM@Z		; CModelObject::IsAttrHit
PUBLIC	?IsAttrSound@CModelObject@@UAEPAUMOTION_ATTR@@XZ ; CModelObject::IsAttrSound
PUBLIC	?IsAttrSound@CModelObject@@UAEPAUMOTION_ATTR@@M@Z ; CModelObject::IsAttrSound
PUBLIC	?IsAttrQuake@CModelObject@@UAEKM@Z		; CModelObject::IsAttrQuake
PUBLIC	?IsAttrQuake@CModelObject@@UAEKXZ		; CModelObject::IsAttrQuake
PUBLIC	?SetAttr@CModelObject@@UAEXMK@Z			; CModelObject::SetAttr
PUBLIC	?IsHaveCollObj@CModelObject@@UAEHXZ		; CModelObject::IsHaveCollObj
PUBLIC	?Intersect@CModelObject@@UAEHABUD3DXVECTOR3@@0ABUD3DXMATRIX@@PAU2@PAMH@Z ; CModelObject::Intersect
PUBLIC	?IntersectRayTri@CModelObject@@UAEPAUD3DXVECTOR3@@ABU2@0ABUD3DXMATRIX@@PAU2@PAMH@Z ; CModelObject::IntersectRayTri
PUBLIC	?IsTouchOBB_Line@CModelObject@@UAEHABUD3DXVECTOR3@@0ABUD3DXMATRIX@@PAU2@H@Z ; CModelObject::IsTouchOBB_Line
PUBLIC	?LoadModel@CModelObject@@UAEHPBD@Z		; CModelObject::LoadModel
PUBLIC	??_7CModelObject@@6B@				; CModelObject::`vftable'
PUBLIC	??_GCModelObject@@UAEPAXI@Z			; CModelObject::`scalar deleting destructor'
EXTRN	??_ECModelObject@@UAEPAXI@Z:NEAR		; CModelObject::`vector deleting destructor'
;	COMDAT ??_7CModelObject@@6B@
; File c:\documents and settings\test\mes documents\source\virtuos_v17\build\program\dx_sdk\d3dx9math.h
CONST	SEGMENT
??_7CModelObject@@6B@ DD FLAT:??_ECModelObject@@UAEPAXI@Z ; CModelObject::`vftable'
	DD	FLAT:?LoadModel@CModelObject@@UAEHPBD@Z
	DD	FLAT:?SaveModel@CModel@@UAEHPBD@Z
	DD	FLAT:?ClearNormal@CModel@@UAEXXZ
	DD	FLAT:?AddFrame@CModel@@UAEXM@Z
	DD	FLAT:?SetFrame@CModel@@UAEXM@Z
	DD	FLAT:?IsLoadAttr@CModelObject@@UAEHXZ
	DD	FLAT:?GetMotionAttr@CModelObject@@UAEPAUMOTION_ATTR@@H@Z
	DD	FLAT:?GetAttr@CModel@@UAEKH@Z
	DD	FLAT:?IsAttrHit@CModelObject@@UAEKXZ
	DD	FLAT:?IsAttrHit@CModelObject@@UAEKM@Z
	DD	FLAT:?IsAttrSound@CModelObject@@UAEPAUMOTION_ATTR@@XZ
	DD	FLAT:?IsAttrSound@CModelObject@@UAEPAUMOTION_ATTR@@M@Z
	DD	FLAT:?IsAttrQuake@CModelObject@@UAEKXZ
	DD	FLAT:?IsAttrQuake@CModelObject@@UAEKM@Z
	DD	FLAT:?SetAttr@CModelObject@@UAEXMK@Z
	DD	FLAT:?ResetAttr@CModel@@UAEXHK@Z
	DD	FLAT:?SetGroup@CModelObject@@UAEXH@Z
	DD	FLAT:?IsHaveCollObj@CModelObject@@UAEHXZ
	DD	FLAT:?Render@CModel@@UAEHPAUIDirect3DDevice9@@PBUD3DXMATRIX@@@Z
	DD	FLAT:?RenderEffect@CModel@@UAEXPAUIDirect3DDevice9@@PBUD3DXMATRIX@@KKHH@Z
	DD	FLAT:?FrameMove@CModelObject@@UAEXPAUD3DXVECTOR3@@M@Z
	DD	FLAT:?InitDeviceObjects@CModelObject@@UAEJPAUIDirect3DDevice9@@@Z
	DD	FLAT:?RestoreDeviceObjects@CModelObject@@UAEJXZ
	DD	FLAT:?InvalidateDeviceObjects@CModelObject@@UAEJXZ
	DD	FLAT:?DeleteDeviceObjects@CModelObject@@UAEJXZ
	DD	FLAT:?Intersect@CModelObject@@UAEHABUD3DXVECTOR3@@0ABUD3DXMATRIX@@PAU2@PAMH@Z
	DD	FLAT:?IntersectRayTri@CModelObject@@UAEPAUD3DXVECTOR3@@ABU2@0ABUD3DXMATRIX@@PAU2@PAMH@Z
	DD	FLAT:?IsTouchOBB_Line@CModelObject@@UAEHABUD3DXVECTOR3@@0ABUD3DXMATRIX@@PAU2@H@Z
	DD	FLAT:?TestIntersectionOBB_Line@CModelObject@@UAEHABVSegment3@@PBVCObj@@H@Z
; Function compile flags: /Ogty
; File c:\documents and settings\test\mes documents\source\virtuos_v17\build\program\_common\modelobject.cpp
CONST	ENDS
;	COMDAT ??0CModelObject@@QAE@XZ
_TEXT	SEGMENT
??0CModelObject@@QAE@XZ PROC NEAR			; CModelObject::CModelObject, COMDAT
; _this$ = ecx

; 46   : {

  00000	56		 push	 esi
  00001	8b f1		 mov	 esi, ecx
  00003	e8 00 00 00 00	 call	 ?Init@CModel@@QAEXXZ	; CModel::Init

; 47   : 	Init();

  00008	8b ce		 mov	 ecx, esi
  0000a	c7 06 00 00 00
	00		 mov	 DWORD PTR [esi], OFFSET FLAT:??_7CModelObject@@6B@
  00010	e8 00 00 00 00	 call	 ?Init@CModelObject@@AAEXXZ ; CModelObject::Init

; 48   : }

  00015	8b c6		 mov	 eax, esi
  00017	5e		 pop	 esi
  00018	c3		 ret	 0
??0CModelObject@@QAE@XZ ENDP				; CModelObject::CModelObject
_TEXT	ENDS
PUBLIC	??_C@_0BB@FADAHOKP@SetGroup?5?3?5lv?$DN?$CFd?$AA@ ; `string'
;	COMDAT ??_C@_0BB@FADAHOKP@SetGroup?5?3?5lv?$DN?$CFd?$AA@
; File c:\documents and settings\test\mes documents\source\virtuos_v17\build\program\_common\object3d.h
CONST	SEGMENT
??_C@_0BB@FADAHOKP@SetGroup?5?3?5lv?$DN?$CFd?$AA@ DB 'SetGroup : lv=%d', 00H ; `string'
; Function compile flags: /Ogty
; File c:\documents and settings\test\mes documents\source\virtuos_v17\build\program\_common\modelobject.h
CONST	ENDS
;	COMDAT ?SetGroup@CModelObject@@UAEXH@Z
_TEXT	SEGMENT
_nNum$ = 8						; size = 4
?SetGroup@CModelObject@@UAEXH@Z PROC NEAR		; CModelObject::SetGroup, COMDAT
; _this$ = ecx

; 228  : 	{

  00000	53		 push	 ebx
  00001	55		 push	 ebp
  00002	56		 push	 esi
  00003	57		 push	 edi

; 229  : 		if( nNum < 0 || nNum >= MAX_GROUP )

  00004	8b 7c 24 14	 mov	 edi, DWORD PTR _nNum$[esp+12]
  00008	85 ff		 test	 edi, edi
  0000a	8b f1		 mov	 esi, ecx
  0000c	7c 05		 jl	 SHORT $L201419
  0000e	83 ff 03	 cmp	 edi, 3
  00011	7c 10		 jl	 SHORT $L201418
$L201419:

; 230  : 		{
; 231  : 			Error( "SetGroup : lv=%d", nNum );

  00013	57		 push	 edi
  00014	68 00 00 00 00	 push	 OFFSET FLAT:??_C@_0BB@FADAHOKP@SetGroup?5?3?5lv?$DN?$CFd?$AA@
  00019	e8 00 00 00 00	 call	 ?Error@@YAPBDPBDZZ	; Error
  0001e	83 c4 08	 add	 esp, 8

; 232  : 			nNum = 0;

  00021	33 ff		 xor	 edi, edi
$L201418:

; 233  : 		}
; 234  : 
; 235  : 		for( int i = 0; i < MAX_ELEMENT; i ++ )

  00023	8d 9e d8 00 00
	00		 lea	 ebx, DWORD PTR [esi+216]
  00029	bd 15 00 00 00	 mov	 ebp, 21			; 00000015H
  0002e	8b ff		 npad	 2
$L201422:

; 236  : 		{
; 237  : 			if( m_Element[i].m_pObject3D )	

  00030	8b 33		 mov	 esi, DWORD PTR [ebx]
  00032	85 f6		 test	 esi, esi
  00034	74 7d		 je	 SHORT $L201423

; 238  : 			{
; 239  : 				if( m_Element[i].m_pObject3D->m_bLOD == 0 )		

  00036	8b 86 b4 00 00
	00		 mov	 eax, DWORD PTR [esi+180]
  0003c	85 c0		 test	 eax, eax
  0003e	75 07		 jne	 SHORT $L201426

; 240  : 					m_Element[i].m_pObject3D->SetLOD( 0 );		// LOD   High..

  00040	8d 46 04	 lea	 eax, DWORD PTR [esi+4]
  00043	89 06		 mov	 DWORD PTR [esi], eax

; 241  : 				else

  00045	eb 6c		 jmp	 SHORT $L201423
$L201426:

; 242  : 				{
; 243  : 					m_Element[i].m_pObject3D->SetLOD( nNum );

  00047	85 ff		 test	 edi, edi
  00049	8b c7		 mov	 eax, edi
  0004b	7c 05		 jl	 SHORT $L231598
  0004d	83 ff 03	 cmp	 edi, 3
  00050	7c 17		 jl	 SHORT $L231597
$L231598:
  00052	8d 8e c0 00 00
	00		 lea	 ecx, DWORD PTR [esi+192]
  00058	51		 push	 ecx
  00059	57		 push	 edi
  0005a	68 00 00 00 00	 push	 OFFSET FLAT:??_C@_0BD@IOHNFIBA@SetLOD?5?3?5lv?$DN?$CFd?0?5?$CFs?$AA@
  0005f	e8 00 00 00 00	 call	 ?Error@@YAPBDPBDZZ	; Error
  00064	83 c4 0c	 add	 esp, 12			; 0000000cH
  00067	33 c0		 xor	 eax, eax
$L231597:
  00069	8b 8e b4 00 00
	00		 mov	 ecx, DWORD PTR [esi+180]
  0006f	85 c9		 test	 ecx, ecx
  00071	75 02		 jne	 SHORT $L231599
  00073	33 c0		 xor	 eax, eax
$L231599:
  00075	8d 14 40	 lea	 edx, DWORD PTR [eax+eax*2]
  00078	8d 44 96 04	 lea	 eax, DWORD PTR [esi+edx*4+4]
  0007c	89 06		 mov	 DWORD PTR [esi], eax

; 244  : 					switch( nNum )

  0007e	8b c7		 mov	 eax, edi
  00080	83 e8 00	 sub	 eax, 0
  00083	74 22		 je	 SHORT $L201432
  00085	48		 dec	 eax
  00086	74 11		 je	 SHORT $L201433
  00088	48		 dec	 eax
  00089	75 28		 jne	 SHORT $L201423

; 248  : 					case 2:		m_Element[i].m_ppd3d_VBSel = m_Element[i].m_ppd3d_VB3;	break;

  0008b	8b 8b 50 01 00
	00		 mov	 ecx, DWORD PTR [ebx+336]
  00091	89 8b 54 01 00
	00		 mov	 DWORD PTR [ebx+340], ecx
  00097	eb 1a		 jmp	 SHORT $L201423
$L201433:

; 247  : 					case 1:		m_Element[i].m_ppd3d_VBSel = m_Element[i].m_ppd3d_VB2;	break;

  00099	8b 93 4c 01 00
	00		 mov	 edx, DWORD PTR [ebx+332]
  0009f	89 93 54 01 00
	00		 mov	 DWORD PTR [ebx+340], edx
  000a5	eb 0c		 jmp	 SHORT $L201423
$L201432:

; 245  : 					{
; 246  : 					case 0:		m_Element[i].m_ppd3d_VBSel = m_Element[i].m_ppd3d_VB1;	break;		// lod     .

  000a7	8b 83 48 01 00
	00		 mov	 eax, DWORD PTR [ebx+328]
  000ad	89 83 54 01 00
	00		 mov	 DWORD PTR [ebx+340], eax
$L201423:
  000b3	81 c3 fc 01 00
	00		 add	 ebx, 508		; 000001fcH
  000b9	4d		 dec	 ebp
  000ba	0f 85 70 ff ff
	ff		 jne	 $L201422
  000c0	5f		 pop	 edi
  000c1	5e		 pop	 esi
  000c2	5d		 pop	 ebp
  000c3	5b		 pop	 ebx

; 249  : 					}
; 250  : 				}
; 251  : 				
; 252  : 			}
; 253  : 		}
; 254  : 	}		// Set LOD Group

  000c4	c2 04 00	 ret	 4
?SetGroup@CModelObject@@UAEXH@Z ENDP			; CModelObject::SetGroup
; Function compile flags: /Ogty
_TEXT	ENDS
;	COMDAT ?IsLoadAttr@CModelObject@@UAEHXZ
_TEXT	SEGMENT
?IsLoadAttr@CModelObject@@UAEHXZ PROC NEAR		; CModelObject::IsLoadAttr, COMDAT
; _this$ = ecx

; 281  : 	BOOL	IsLoadAttr( void ) { if(m_pMotion) return TRUE; else return FALSE; }

  00000	8b 91 8c 2a 00
	00		 mov	 edx, DWORD PTR [ecx+10892]
  00006	33 c0		 xor	 eax, eax
  00008	85 d2		 test	 edx, edx
  0000a	0f 95 c0	 setne	 al
  0000d	c3		 ret	 0
?IsLoadAttr@CModelObject@@UAEHXZ ENDP			; CModelObject::IsLoadAttr
; Function compile flags: /Ogty
_TEXT	ENDS
;	COMDAT ?GetMotionAttr@CModelObject@@UAEPAUMOTION_ATTR@@H@Z
_TEXT	SEGMENT
_nNumFrm$ = 8						; size = 4
?GetMotionAttr@CModelObject@@UAEPAUMOTION_ATTR@@H@Z PROC NEAR ; CModelObject::GetMotionAttr, COMDAT
; _this$ = ecx

; 282  : 	MOTION_ATTR *GetMotionAttr( int nNumFrm ) { return m_pMotion->GetMotionAttr(nNumFrm); }	

  00000	8b 44 24 04	 mov	 eax, DWORD PTR _nNumFrm$[esp-4]
  00004	8b 89 8c 2a 00
	00		 mov	 ecx, DWORD PTR [ecx+10892]
  0000a	8d 14 40	 lea	 edx, DWORD PTR [eax+eax*2]
  0000d	8b 41 04	 mov	 eax, DWORD PTR [ecx+4]
  00010	8d 04 90	 lea	 eax, DWORD PTR [eax+edx*4]
  00013	c2 04 00	 ret	 4
?GetMotionAttr@CModelObject@@UAEPAUMOTION_ATTR@@H@Z ENDP ; CModelObject::GetMotionAttr
; Function compile flags: /Ogty
_TEXT	ENDS
;	COMDAT ?IsAttrHit@CModelObject@@UAEKXZ
_TEXT	SEGMENT
$T231635 = -4						; size = 4
$T231622 = -4						; size = 4
?IsAttrHit@CModelObject@@UAEKXZ PROC NEAR		; CModelObject::IsAttrHit, COMDAT
; _this$ = ecx

; 284  : 	{ 

  00000	51		 push	 ecx
  00001	56		 push	 esi
  00002	8b f1		 mov	 esi, ecx
  00004	57		 push	 edi

; 285  : 		if( m_pMotion )

  00005	8b be 8c 2a 00
	00		 mov	 edi, DWORD PTR [esi+10892]
  0000b	85 ff		 test	 edi, edi
  0000d	74 47		 je	 SHORT $L201451

; 286  : 			return m_pMotion->IsAttrHit( m_fFrameOld, m_fFrameCurrent ); 

  0000f	8b 86 a0 00 00
	00		 mov	 eax, DWORD PTR [esi+160]
  00015	89 44 24 08	 mov	 DWORD PTR $T231622[esp+12], eax
  00019	d9 44 24 08	 fld	 DWORD PTR $T231622[esp+12]
  0001d	e8 00 00 00 00	 call	 __ftol2
  00022	8b 57 04	 mov	 edx, DWORD PTR [edi+4]
  00025	8d 0c 40	 lea	 ecx, DWORD PTR [eax+eax*2]
  00028	8d 0c 8a	 lea	 ecx, DWORD PTR [edx+ecx*4]
  0002b	8b 11		 mov	 edx, DWORD PTR [ecx]
  0002d	f6 c2 01	 test	 dl, 1
  00030	74 68		 je	 SHORT $L231634
  00032	d9 86 a4 00 00
	00		 fld	 DWORD PTR [esi+164]
  00038	d8 59 08	 fcomp	 DWORD PTR [ecx+8]
  0003b	df e0		 fnstsw	 ax
  0003d	f6 c4 05	 test	 ah, 5
  00040	7a 58		 jp	 SHORT $L231634
  00042	d9 41 08	 fld	 DWORD PTR [ecx+8]
  00045	d8 5c 24 08	 fcomp	 DWORD PTR $T231622[esp+12]
  00049	df e0		 fnstsw	 ax
  0004b	f6 c4 41	 test	 ah, 65			; 00000041H
  0004e	7a 4a		 jp	 SHORT $L231634
  00050	5f		 pop	 edi
  00051	8b c2		 mov	 eax, edx
  00053	5e		 pop	 esi

; 289  : 	}	//    ?

  00054	59		 pop	 ecx
  00055	c3		 ret	 0
$L201451:

; 287  : 		else
; 288  : 			return GetObject3D()->IsAttrHit( m_fFrameCurrent );

  00056	8b 86 d8 00 00
	00		 mov	 eax, DWORD PTR [esi+216]
  0005c	8b 8e a0 00 00
	00		 mov	 ecx, DWORD PTR [esi+160]
  00062	8b 70 48	 mov	 esi, DWORD PTR [eax+72]
  00065	85 f6		 test	 esi, esi
  00067	89 4c 24 08	 mov	 DWORD PTR $T231635[esp+12], ecx
  0006b	74 2d		 je	 SHORT $L231634
  0006d	d9 44 24 08	 fld	 DWORD PTR $T231635[esp+12]
  00071	e8 00 00 00 00	 call	 __ftol2
  00076	8d 14 40	 lea	 edx, DWORD PTR [eax+eax*2]
  00079	8b 0c 96	 mov	 ecx, DWORD PTR [esi+edx*4]
  0007c	f6 c1 01	 test	 cl, 1
  0007f	8d 04 96	 lea	 eax, DWORD PTR [esi+edx*4]
  00082	74 16		 je	 SHORT $L231634
  00084	d9 44 24 08	 fld	 DWORD PTR $T231635[esp+12]
  00088	d9 40 08	 fld	 DWORD PTR [eax+8]
  0008b	da e9		 fucompp
  0008d	df e0		 fnstsw	 ax
  0008f	f6 c4 44	 test	 ah, 68			; 00000044H
  00092	7a 06		 jp	 SHORT $L231634
  00094	5f		 pop	 edi
  00095	8b c1		 mov	 eax, ecx
  00097	5e		 pop	 esi

; 289  : 	}	//    ?

  00098	59		 pop	 ecx
  00099	c3		 ret	 0

; 287  : 		else
; 288  : 			return GetObject3D()->IsAttrHit( m_fFrameCurrent );

$L231634:
  0009a	5f		 pop	 edi
  0009b	33 c0		 xor	 eax, eax
  0009d	5e		 pop	 esi

; 289  : 	}	//    ?

  0009e	59		 pop	 ecx
  0009f	c3		 ret	 0
?IsAttrHit@CModelObject@@UAEKXZ ENDP			; CModelObject::IsAttrHit
; Function compile flags: /Ogty
_TEXT	ENDS
;	COMDAT ?IsAttrHit@CModelObject@@UAEKM@Z
_TEXT	SEGMENT
_fNumFrm$ = 8						; size = 4
?IsAttrHit@CModelObject@@UAEKM@Z PROC NEAR		; CModelObject::IsAttrHit, COMDAT
; _this$ = ecx

; 290  : 	DWORD	IsAttrHit( float fNumFrm ) { return m_pMotion->IsAttrHit( m_fFrameOld, fNumFrm ); }	// nNumFrm  ?

  00000	d9 44 24 04	 fld	 DWORD PTR _fNumFrm$[esp-4]
  00004	56		 push	 esi
  00005	8b f1		 mov	 esi, ecx
  00007	57		 push	 edi
  00008	8b be 8c 2a 00
	00		 mov	 edi, DWORD PTR [esi+10892]
  0000e	e8 00 00 00 00	 call	 __ftol2
  00013	8b 4f 04	 mov	 ecx, DWORD PTR [edi+4]
  00016	8d 04 40	 lea	 eax, DWORD PTR [eax+eax*2]
  00019	8b 14 81	 mov	 edx, DWORD PTR [ecx+eax*4]
  0001c	f6 c2 01	 test	 dl, 1
  0001f	8d 0c 81	 lea	 ecx, DWORD PTR [ecx+eax*4]
  00022	74 25		 je	 SHORT $L231646
  00024	d9 86 a4 00 00
	00		 fld	 DWORD PTR [esi+164]
  0002a	d8 59 08	 fcomp	 DWORD PTR [ecx+8]
  0002d	df e0		 fnstsw	 ax
  0002f	f6 c4 05	 test	 ah, 5
  00032	7a 15		 jp	 SHORT $L231646
  00034	d9 41 08	 fld	 DWORD PTR [ecx+8]
  00037	d8 5c 24 0c	 fcomp	 DWORD PTR _fNumFrm$[esp+4]
  0003b	df e0		 fnstsw	 ax
  0003d	f6 c4 41	 test	 ah, 65			; 00000041H
  00040	7a 07		 jp	 SHORT $L231646
  00042	5f		 pop	 edi
  00043	8b c2		 mov	 eax, edx
  00045	5e		 pop	 esi
  00046	c2 04 00	 ret	 4
$L231646:
  00049	5f		 pop	 edi
  0004a	33 c0		 xor	 eax, eax
  0004c	5e		 pop	 esi
  0004d	c2 04 00	 ret	 4
?IsAttrHit@CModelObject@@UAEKM@Z ENDP			; CModelObject::IsAttrHit
_TEXT	ENDS
PUBLIC	??_C@_0CC@LLPKIFJI@IsAttrSound?5?3?5pMotion?$DN?$DNNULL?5?$CFd?5?$CF@ ; `string'
;	COMDAT ??_C@_0CC@LLPKIFJI@IsAttrSound?5?3?5pMotion?$DN?$DNNULL?5?$CFd?5?$CF@
; File c:\documents and settings\test\mes documents\source\virtuos_v17\build\program\_common\bone.h
CONST	SEGMENT
??_C@_0CC@LLPKIFJI@IsAttrSound?5?3?5pMotion?$DN?$DNNULL?5?$CFd?5?$CF@ DB 'I'
	DB	'sAttrSound : pMotion==NULL %d %d', 00H	; `string'
; Function compile flags: /Ogty
; File c:\documents and settings\test\mes documents\source\virtuos_v17\build\program\_common\modelobject.h
CONST	ENDS
;	COMDAT ?IsAttrSound@CModelObject@@UAEPAUMOTION_ATTR@@XZ
_TEXT	SEGMENT
$T231657 = -4						; size = 4
?IsAttrSound@CModelObject@@UAEPAUMOTION_ATTR@@XZ PROC NEAR ; CModelObject::IsAttrSound, COMDAT
; _this$ = ecx

; 292  : 	{ 

  00000	51		 push	 ecx
  00001	56		 push	 esi
  00002	8b f1		 mov	 esi, ecx

; 293  : 		if( m_pMotion == NULL )

  00004	8b 86 8c 2a 00
	00		 mov	 eax, DWORD PTR [esi+10892]
  0000a	85 c0		 test	 eax, eax
  0000c	75 23		 jne	 SHORT $L201457

; 294  : 		{
; 295  : 			LPCTSTR szErr = Error( "IsAttrSound : pMotion==NULL %d %d", m_fFrameOld, m_fFrameCurrent );

  0000e	d9 86 a0 00 00
	00		 fld	 DWORD PTR [esi+160]
  00014	83 ec 10	 sub	 esp, 16			; 00000010H
  00017	dd 5c 24 08	 fstp	 QWORD PTR [esp+8]
  0001b	d9 86 a4 00 00
	00		 fld	 DWORD PTR [esi+164]
  00021	dd 1c 24	 fstp	 QWORD PTR [esp]
  00024	68 00 00 00 00	 push	 OFFSET FLAT:??_C@_0CC@LLPKIFJI@IsAttrSound?5?3?5pMotion?$DN?$DNNULL?5?$CFd?5?$CF@
  00029	e8 00 00 00 00	 call	 ?Error@@YAPBDPBDZZ	; Error
  0002e	83 c4 14	 add	 esp, 20			; 00000014H
$L201457:

; 296  : 			ADDERRORMSG( szErr );
; 297  : 		}
; 298  : 		return m_pMotion->IsAttrSound( m_fFrameOld, m_fFrameCurrent ); 

  00031	8b 86 a0 00 00
	00		 mov	 eax, DWORD PTR [esi+160]
  00037	89 44 24 04	 mov	 DWORD PTR $T231657[esp+8], eax
  0003b	d9 44 24 04	 fld	 DWORD PTR $T231657[esp+8]
  0003f	e8 00 00 00 00	 call	 __ftol2
  00044	8b 96 8c 2a 00
	00		 mov	 edx, DWORD PTR [esi+10892]
  0004a	8d 0c 40	 lea	 ecx, DWORD PTR [eax+eax*2]
  0004d	8b 42 04	 mov	 eax, DWORD PTR [edx+4]
  00050	8d 0c 88	 lea	 ecx, DWORD PTR [eax+ecx*4]
  00053	f6 01 02	 test	 BYTE PTR [ecx], 2
  00056	74 23		 je	 SHORT $L231656
  00058	d9 86 a4 00 00
	00		 fld	 DWORD PTR [esi+164]
  0005e	d8 59 08	 fcomp	 DWORD PTR [ecx+8]
  00061	df e0		 fnstsw	 ax
  00063	f6 c4 05	 test	 ah, 5
  00066	7a 13		 jp	 SHORT $L231656
  00068	d9 41 08	 fld	 DWORD PTR [ecx+8]
  0006b	d8 5c 24 04	 fcomp	 DWORD PTR $T231657[esp+8]
  0006f	df e0		 fnstsw	 ax
  00071	f6 c4 41	 test	 ah, 65			; 00000041H
  00074	7a 05		 jp	 SHORT $L231656
  00076	8b c1		 mov	 eax, ecx
  00078	5e		 pop	 esi

; 299  : 	}	//    ?

  00079	59		 pop	 ecx
  0007a	c3		 ret	 0

; 296  : 			ADDERRORMSG( szErr );
; 297  : 		}
; 298  : 		return m_pMotion->IsAttrSound( m_fFrameOld, m_fFrameCurrent ); 

$L231656:
  0007b	33 c0		 xor	 eax, eax
  0007d	5e		 pop	 esi

; 299  : 	}	//    ?

  0007e	59		 pop	 ecx
  0007f	c3		 ret	 0
?IsAttrSound@CModelObject@@UAEPAUMOTION_ATTR@@XZ ENDP	; CModelObject::IsAttrSound
; Function compile flags: /Ogty
_TEXT	ENDS
;	COMDAT ?IsAttrSound@CModelObject@@UAEPAUMOTION_ATTR@@M@Z
_TEXT	SEGMENT
_fNumFrm$ = 8						; size = 4
?IsAttrSound@CModelObject@@UAEPAUMOTION_ATTR@@M@Z PROC NEAR ; CModelObject::IsAttrSound, COMDAT
; _this$ = ecx

; 301  : 	{ 

  00000	56		 push	 esi
  00001	57		 push	 edi
  00002	8b f9		 mov	 edi, ecx

; 302  : 		if( m_pMotion)	//gmpbigsun: m_pMotion NULL shit ..

  00004	8b b7 8c 2a 00
	00		 mov	 esi, DWORD PTR [edi+10892]
  0000a	85 f6		 test	 esi, esi
  0000c	74 3c		 je	 SHORT $L201463

; 303  : 			return m_pMotion->IsAttrSound( m_fFrameOld, fNumFrm ); 	// nNumFrm  ?	

  0000e	d9 44 24 0c	 fld	 DWORD PTR _fNumFrm$[esp+4]
  00012	e8 00 00 00 00	 call	 __ftol2
  00017	8b 4e 04	 mov	 ecx, DWORD PTR [esi+4]
  0001a	8d 04 40	 lea	 eax, DWORD PTR [eax+eax*2]
  0001d	8d 0c 81	 lea	 ecx, DWORD PTR [ecx+eax*4]
  00020	f6 01 02	 test	 BYTE PTR [ecx], 2
  00023	74 25		 je	 SHORT $L201463
  00025	d9 87 a4 00 00
	00		 fld	 DWORD PTR [edi+164]
  0002b	d8 59 08	 fcomp	 DWORD PTR [ecx+8]
  0002e	df e0		 fnstsw	 ax
  00030	f6 c4 05	 test	 ah, 5
  00033	7a 15		 jp	 SHORT $L201463
  00035	d9 41 08	 fld	 DWORD PTR [ecx+8]
  00038	d8 5c 24 0c	 fcomp	 DWORD PTR _fNumFrm$[esp+4]
  0003c	df e0		 fnstsw	 ax
  0003e	f6 c4 41	 test	 ah, 65			; 00000041H
  00041	7a 07		 jp	 SHORT $L201463
  00043	5f		 pop	 edi
  00044	8b c1		 mov	 eax, ecx
  00046	5e		 pop	 esi

; 305  : 	}

  00047	c2 04 00	 ret	 4
$L201463:
  0004a	5f		 pop	 edi

; 304  : 		return NULL;

  0004b	33 c0		 xor	 eax, eax
  0004d	5e		 pop	 esi

; 305  : 	}

  0004e	c2 04 00	 ret	 4
?IsAttrSound@CModelObject@@UAEPAUMOTION_ATTR@@M@Z ENDP	; CModelObject::IsAttrSound
; Function compile flags: /Ogty
_TEXT	ENDS
;	COMDAT ?IsAttrQuake@CModelObject@@UAEKM@Z
_TEXT	SEGMENT
_fNumFrm$ = 8						; size = 4
?IsAttrQuake@CModelObject@@UAEKM@Z PROC NEAR		; CModelObject::IsAttrQuake, COMDAT
; _this$ = ecx

; 306  : 	DWORD	IsAttrQuake( float fNumFrm ) { return m_pMotion->IsAttrQuake( m_fFrameOld, fNumFrm ); }

  00000	d9 44 24 04	 fld	 DWORD PTR _fNumFrm$[esp-4]
  00004	56		 push	 esi
  00005	8b f1		 mov	 esi, ecx
  00007	57		 push	 edi
  00008	8b be 8c 2a 00
	00		 mov	 edi, DWORD PTR [esi+10892]
  0000e	e8 00 00 00 00	 call	 __ftol2
  00013	8b 4f 04	 mov	 ecx, DWORD PTR [edi+4]
  00016	8d 04 40	 lea	 eax, DWORD PTR [eax+eax*2]
  00019	8b 14 81	 mov	 edx, DWORD PTR [ecx+eax*4]
  0001c	f6 c2 04	 test	 dl, 4
  0001f	8d 0c 81	 lea	 ecx, DWORD PTR [ecx+eax*4]
  00022	74 25		 je	 SHORT $L231677
  00024	d9 86 a4 00 00
	00		 fld	 DWORD PTR [esi+164]
  0002a	d8 59 08	 fcomp	 DWORD PTR [ecx+8]
  0002d	df e0		 fnstsw	 ax
  0002f	f6 c4 05	 test	 ah, 5
  00032	7a 15		 jp	 SHORT $L231677
  00034	d9 41 08	 fld	 DWORD PTR [ecx+8]
  00037	d8 5c 24 0c	 fcomp	 DWORD PTR _fNumFrm$[esp+4]
  0003b	df e0		 fnstsw	 ax
  0003d	f6 c4 41	 test	 ah, 65			; 00000041H
  00040	7a 07		 jp	 SHORT $L231677
  00042	5f		 pop	 edi
  00043	8b c2		 mov	 eax, edx
  00045	5e		 pop	 esi
  00046	c2 04 00	 ret	 4
$L231677:
  00049	5f		 pop	 edi
  0004a	33 c0		 xor	 eax, eax
  0004c	5e		 pop	 esi
  0004d	c2 04 00	 ret	 4
?IsAttrQuake@CModelObject@@UAEKM@Z ENDP			; CModelObject::IsAttrQuake
; Function compile flags: /Ogty
_TEXT	ENDS
;	COMDAT ?IsAttrQuake@CModelObject@@UAEKXZ
_TEXT	SEGMENT
$T231688 = -4						; size = 4
?IsAttrQuake@CModelObject@@UAEKXZ PROC NEAR		; CModelObject::IsAttrQuake, COMDAT
; _this$ = ecx

; 307  : 	DWORD	IsAttrQuake( void ) { return m_pMotion->IsAttrQuake( m_fFrameOld, m_fFrameCurrent ); }

  00000	51		 push	 ecx
  00001	56		 push	 esi
  00002	8b f1		 mov	 esi, ecx
  00004	8b 86 a0 00 00
	00		 mov	 eax, DWORD PTR [esi+160]
  0000a	89 44 24 04	 mov	 DWORD PTR $T231688[esp+8], eax
  0000e	d9 44 24 04	 fld	 DWORD PTR $T231688[esp+8]
  00012	57		 push	 edi
  00013	8b be 8c 2a 00
	00		 mov	 edi, DWORD PTR [esi+10892]
  00019	e8 00 00 00 00	 call	 __ftol2
  0001e	8b 57 04	 mov	 edx, DWORD PTR [edi+4]
  00021	8d 0c 40	 lea	 ecx, DWORD PTR [eax+eax*2]
  00024	8d 0c 8a	 lea	 ecx, DWORD PTR [edx+ecx*4]
  00027	8b 11		 mov	 edx, DWORD PTR [ecx]
  00029	f6 c2 04	 test	 dl, 4
  0002c	74 24		 je	 SHORT $L231687
  0002e	d9 86 a4 00 00
	00		 fld	 DWORD PTR [esi+164]
  00034	d8 59 08	 fcomp	 DWORD PTR [ecx+8]
  00037	df e0		 fnstsw	 ax
  00039	f6 c4 05	 test	 ah, 5
  0003c	7a 14		 jp	 SHORT $L231687
  0003e	d9 41 08	 fld	 DWORD PTR [ecx+8]
  00041	d8 5c 24 08	 fcomp	 DWORD PTR $T231688[esp+12]
  00045	df e0		 fnstsw	 ax
  00047	f6 c4 41	 test	 ah, 65			; 00000041H
  0004a	7a 06		 jp	 SHORT $L231687
  0004c	5f		 pop	 edi
  0004d	8b c2		 mov	 eax, edx
  0004f	5e		 pop	 esi
  00050	59		 pop	 ecx
  00051	c3		 ret	 0
$L231687:
  00052	5f		 pop	 edi
  00053	33 c0		 xor	 eax, eax
  00055	5e		 pop	 esi
  00056	59		 pop	 ecx
  00057	c3		 ret	 0
?IsAttrQuake@CModelObject@@UAEKXZ ENDP			; CModelObject::IsAttrQuake
; Function compile flags: /Ogty
_TEXT	ENDS
;	COMDAT ?SetAttr@CModelObject@@UAEXMK@Z
_TEXT	SEGMENT
_fNumFrm$ = 8						; size = 4
_dwAttr$ = 12						; size = 4
?SetAttr@CModelObject@@UAEXMK@Z PROC NEAR		; CModelObject::SetAttr, COMDAT
; _this$ = ecx

; 308  : 	void	SetAttr( float fNumFrm, DWORD dwAttr ) { m_pMotion->SetAttr( fNumFrm, dwAttr ); }

  00000	d9 44 24 04	 fld	 DWORD PTR _fNumFrm$[esp-4]
  00004	56		 push	 esi
  00005	8b b1 8c 2a 00
	00		 mov	 esi, DWORD PTR [ecx+10892]
  0000b	57		 push	 edi
  0000c	e8 00 00 00 00	 call	 __ftol2
  00011	d9 44 24 0c	 fld	 DWORD PTR _fNumFrm$[esp+4]
  00015	8b 4e 04	 mov	 ecx, DWORD PTR [esi+4]
  00018	8b 54 24 10	 mov	 edx, DWORD PTR _dwAttr$[esp+4]
  0001c	8d 04 40	 lea	 eax, DWORD PTR [eax+eax*2]
  0001f	c1 e0 02	 shl	 eax, 2
  00022	8b 3c 01	 mov	 edi, DWORD PTR [ecx+eax]
  00025	03 c8		 add	 ecx, eax
  00027	0b fa		 or	 edi, edx
  00029	89 39		 mov	 DWORD PTR [ecx], edi
  0002b	8b 4e 04	 mov	 ecx, DWORD PTR [esi+4]
  0002e	5f		 pop	 edi
  0002f	d9 5c 01 08	 fstp	 DWORD PTR [ecx+eax+8]
  00033	5e		 pop	 esi
  00034	c2 08 00	 ret	 8
?SetAttr@CModelObject@@UAEXMK@Z ENDP			; CModelObject::SetAttr
; Function compile flags: /Ogty
_TEXT	ENDS
;	COMDAT ?IsHaveCollObj@CModelObject@@UAEHXZ
_TEXT	SEGMENT
?IsHaveCollObj@CModelObject@@UAEHXZ PROC NEAR		; CModelObject::IsHaveCollObj, COMDAT
; _this$ = ecx

; 336  : 	int		IsHaveCollObj( void ) { return m_bCollObj; }

  00000	8b 81 cc 00 00
	00		 mov	 eax, DWORD PTR [ecx+204]
  00006	c3		 ret	 0
?IsHaveCollObj@CModelObject@@UAEHXZ ENDP		; CModelObject::IsHaveCollObj
; Function compile flags: /Ogty
_TEXT	ENDS
;	COMDAT ?Intersect@CModelObject@@UAEHABUD3DXVECTOR3@@0ABUD3DXMATRIX@@PAU2@PAMH@Z
_TEXT	SEGMENT
_vRayOrig$ = 8						; size = 4
_vRayDir$ = 12						; size = 4
_mWorld$ = 16						; size = 4
_pvIntersect$ = 20					; size = 4
_pfDist$ = 24						; size = 4
_bColl$ = 28						; size = 4
?Intersect@CModelObject@@UAEHABUD3DXVECTOR3@@0ABUD3DXMATRIX@@PAU2@PAMH@Z PROC NEAR ; CModelObject::Intersect, COMDAT
; _this$ = ecx

; 377  : 		if( IntersectRayTri( vRayOrig, vRayDir, mWorld, pvIntersect, pfDist, bColl ) ) 

  00000	8b 54 24 18	 mov	 edx, DWORD PTR _bColl$[esp-4]
  00004	8b 01		 mov	 eax, DWORD PTR [ecx]
  00006	52		 push	 edx
  00007	8b 54 24 18	 mov	 edx, DWORD PTR _pfDist$[esp]
  0000b	52		 push	 edx
  0000c	8b 54 24 18	 mov	 edx, DWORD PTR _pvIntersect$[esp+4]
  00010	52		 push	 edx
  00011	8b 54 24 18	 mov	 edx, DWORD PTR _mWorld$[esp+8]
  00015	52		 push	 edx
  00016	8b 54 24 18	 mov	 edx, DWORD PTR _vRayDir$[esp+12]
  0001a	52		 push	 edx
  0001b	8b 54 24 18	 mov	 edx, DWORD PTR _vRayOrig$[esp+16]
  0001f	52		 push	 edx
  00020	ff 50 6c	 call	 DWORD PTR [eax+108]
  00023	f7 d8		 neg	 eax
  00025	1b c0		 sbb	 eax, eax
  00027	f7 d8		 neg	 eax

; 378  : 			return TRUE; 
; 379  : 		else 
; 380  : 			return FALSE; 
; 381  : 	}

  00029	c2 18 00	 ret	 24			; 00000018H
?Intersect@CModelObject@@UAEHABUD3DXVECTOR3@@0ABUD3DXMATRIX@@PAU2@PAMH@Z ENDP ; CModelObject::Intersect
_TEXT	ENDS
EXTRN	?IntersectRayTri@CObject3D@@QAEPAUD3DXVECTOR3@@ABU2@0ABUD3DXMATRIX@@PAU2@PAMH@Z:NEAR ; CObject3D::IntersectRayTri
; Function compile flags: /Ogty
;	COMDAT ?IntersectRayTri@CModelObject@@UAEPAUD3DXVECTOR3@@ABU2@0ABUD3DXMATRIX@@PAU2@PAMH@Z
_TEXT	SEGMENT
_i$201500 = -4						; size = 4
_vRayOrig$ = 8						; size = 4
_vRayDir$ = 12						; size = 4
_mWorld$ = 16						; size = 4
_pvIntersect$ = 20					; size = 4
_pfDist$ = 24						; size = 4
_bColl$ = 28						; size = 4
?IntersectRayTri@CModelObject@@UAEPAUD3DXVECTOR3@@ABU2@0ABUD3DXMATRIX@@PAU2@PAMH@Z PROC NEAR ; CModelObject::IntersectRayTri, COMDAT
; _this$ = ecx

; 384  : 	{	

  00000	51		 push	 ecx
  00001	53		 push	 ebx

; 385  : 		O3D_ELEMENT *pElem = m_Element;

  00002	8b 5c 24 20	 mov	 ebx, DWORD PTR _bColl$[esp+4]
  00006	55		 push	 ebp
  00007	8b 6c 24 20	 mov	 ebp, DWORD PTR _pfDist$[esp+8]
  0000b	56		 push	 esi
  0000c	57		 push	 edi
  0000d	8b f9		 mov	 edi, ecx

; 386  : 		D3DXVECTOR3 *pTri;
; 387  : 		for( int i = 0; i < MAX_ELEMENT; i ++ )

  0000f	c7 44 24 10 00
	00 00 00	 mov	 DWORD PTR _i$201500[esp+20], 0
  00017	8d b7 d8 00 00
	00		 lea	 esi, DWORD PTR [edi+216]
  0001d	8d 49 00	 npad	 3
$L231716:

; 388  : 		{
; 389  : 			if( pElem->m_pObject3D )

  00020	8b 06		 mov	 eax, DWORD PTR [esi]
  00022	85 c0		 test	 eax, eax
  00024	74 44		 je	 SHORT $L201506

; 390  : 			{
; 391  : 				if( m_pBone )

  00026	8b 8f 84 2a 00
	00		 mov	 ecx, DWORD PTR [edi+10884]
  0002c	85 c9		 test	 ecx, ecx
  0002e	74 19		 je	 SHORT $L231709

; 392  : 					pElem->m_pObject3D->SetExternBone( m_mUpdateBone, m_pBaseBoneInv );	//    .

  00030	8b 50 34	 mov	 edx, DWORD PTR [eax+52]
  00033	85 d2		 test	 edx, edx
  00035	8b 8f c8 00 00
	00		 mov	 ecx, DWORD PTR [edi+200]
  0003b	75 0c		 jne	 SHORT $L231709
  0003d	8b 97 9c 2a 00
	00		 mov	 edx, DWORD PTR [edi+10908]
  00043	89 50 28	 mov	 DWORD PTR [eax+40], edx
  00046	89 48 2c	 mov	 DWORD PTR [eax+44], ecx
$L231709:

; 393  : 				if( pTri = pElem->m_pObject3D->IntersectRayTri( vRayOrig, vRayDir, mWorld, pvIntersect, pfDist, bColl ) )

  00049	8b 44 24 24	 mov	 eax, DWORD PTR _pvIntersect$[esp+16]
  0004d	8b 4c 24 20	 mov	 ecx, DWORD PTR _mWorld$[esp+16]
  00051	8b 54 24 1c	 mov	 edx, DWORD PTR _vRayDir$[esp+16]
  00055	53		 push	 ebx
  00056	55		 push	 ebp
  00057	50		 push	 eax
  00058	8b 44 24 24	 mov	 eax, DWORD PTR _vRayOrig$[esp+28]
  0005c	51		 push	 ecx
  0005d	8b 0e		 mov	 ecx, DWORD PTR [esi]
  0005f	52		 push	 edx
  00060	50		 push	 eax
  00061	e8 00 00 00 00	 call	 ?IntersectRayTri@CObject3D@@QAEPAUD3DXVECTOR3@@ABU2@0ABUD3DXMATRIX@@PAU2@PAMH@Z ; CObject3D::IntersectRayTri
  00066	85 c0		 test	 eax, eax
  00068	75 16		 jne	 SHORT $L201497
$L201506:

; 386  : 		D3DXVECTOR3 *pTri;
; 387  : 		for( int i = 0; i < MAX_ELEMENT; i ++ )

  0006a	8b 44 24 10	 mov	 eax, DWORD PTR _i$201500[esp+20]

; 394  : 					return pTri;
; 395  : 			}
; 396  : 			pElem ++;

  0006e	81 c6 fc 01 00
	00		 add	 esi, 508		; 000001fcH
  00074	40		 inc	 eax
  00075	83 f8 15	 cmp	 eax, 21			; 00000015H
  00078	89 44 24 10	 mov	 DWORD PTR _i$201500[esp+20], eax
  0007c	7c a2		 jl	 SHORT $L231716

; 397  : 		}
; 398  : 		return NULL;

  0007e	33 c0		 xor	 eax, eax
$L201497:
  00080	5f		 pop	 edi
  00081	5e		 pop	 esi
  00082	5d		 pop	 ebp
  00083	5b		 pop	 ebx

; 399  : 	}

  00084	59		 pop	 ecx
  00085	c2 18 00	 ret	 24			; 00000018H
?IntersectRayTri@CModelObject@@UAEPAUD3DXVECTOR3@@ABU2@0ABUD3DXMATRIX@@PAU2@PAMH@Z ENDP ; CModelObject::IntersectRayTri
_TEXT	ENDS
EXTRN	?IsTouchOBB_Line@@YAHABUD3DXVECTOR3@@0ABUD3DXMATRIX@@00PAU1@@Z:NEAR ; IsTouchOBB_Line
; Function compile flags: /Ogty
;	COMDAT ?IsTouchOBB_Line@CModelObject@@UAEHABUD3DXVECTOR3@@0ABUD3DXMATRIX@@PAU2@H@Z
_TEXT	SEGMENT
_vStart$ = 8						; size = 4
_vEnd$ = 12						; size = 4
_mWorld$ = 16						; size = 4
_pvIntersect$ = 20					; size = 4
_bNeedCollObject$ = 24					; size = 4
?IsTouchOBB_Line@CModelObject@@UAEHABUD3DXVECTOR3@@0ABUD3DXMATRIX@@PAU2@H@Z PROC NEAR ; CModelObject::IsTouchOBB_Line, COMDAT
; _this$ = ecx

; 402  : 		CObject3D *pObj = m_Element[0].m_pObject3D;
; 403  : 		if( pObj->m_CollObject.m_Type == GMT_ERROR && bNeedCollObject )	//    .

  00000	8b 81 d8 00 00
	00		 mov	 eax, DWORD PTR [ecx+216]
  00006	83 b8 00 01 00
	00 ff		 cmp	 DWORD PTR [eax+256], -1
  0000d	75 0d		 jne	 SHORT $L201510
  0000f	8b 44 24 14	 mov	 eax, DWORD PTR _bNeedCollObject$[esp-4]
  00013	85 c0		 test	 eax, eax
  00015	74 05		 je	 SHORT $L201510

; 404  : 			return FALSE;

  00017	33 c0		 xor	 eax, eax

; 407  : 	}

  00019	c2 14 00	 ret	 20			; 00000014H
$L201510:

; 405  : 		
; 406  : 		return ::IsTouchOBB_Line( m_vMin, m_vMax, mWorld, vStart, vEnd, pvIntersect );

  0001c	8b 54 24 10	 mov	 edx, DWORD PTR _pvIntersect$[esp-4]
  00020	8b 44 24 08	 mov	 eax, DWORD PTR _vEnd$[esp-4]
  00024	52		 push	 edx
  00025	8b 54 24 08	 mov	 edx, DWORD PTR _vStart$[esp]
  00029	50		 push	 eax
  0002a	8b 44 24 14	 mov	 eax, DWORD PTR _mWorld$[esp+4]
  0002e	52		 push	 edx
  0002f	50		 push	 eax
  00030	8d 91 84 00 00
	00		 lea	 edx, DWORD PTR [ecx+132]
  00036	52		 push	 edx
  00037	83 c1 78	 add	 ecx, 120		; 00000078H
  0003a	51		 push	 ecx
  0003b	e8 00 00 00 00	 call	 ?IsTouchOBB_Line@@YAHABUD3DXVECTOR3@@0ABUD3DXMATRIX@@00PAU1@@Z ; IsTouchOBB_Line
  00040	83 c4 18	 add	 esp, 24			; 00000018H

; 407  : 	}

  00043	c2 14 00	 ret	 20			; 00000014H
?IsTouchOBB_Line@CModelObject@@UAEHABUD3DXVECTOR3@@0ABUD3DXMATRIX@@PAU2@H@Z ENDP ; CModelObject::IsTouchOBB_Line
_TEXT	ENDS
PUBLIC	?Destroy@CModelObject@@AAEXXZ			; CModelObject::Destroy
; Function compile flags: /Ogty
; File c:\documents and settings\test\mes documents\source\virtuos_v17\build\program\_common\modelobject.cpp
;	COMDAT ?Destroy@CModelObject@@AAEXXZ
_TEXT	SEGMENT
?Destroy@CModelObject@@AAEXXZ PROC NEAR			; CModelObject::Destroy, COMDAT
; _this$ = ecx

; 117  : {

  00000	53		 push	 ebx
  00001	56		 push	 esi
  00002	57		 push	 edi

; 118  : 	int		i;
; 119  : 
; 120  : 	//  
; 121  : 	for( i = 0; i < MAX_ELEMENT; i ++ )

  00003	33 db		 xor	 ebx, ebx
  00005	8b f1		 mov	 esi, ecx
  00007	33 ff		 xor	 edi, edi
  00009	8d a4 24 00 00
	00 00		 npad	 7
$L228340:

; 122  : 	{
; 123  : 		Destroy( i );

  00010	57		 push	 edi
  00011	8b ce		 mov	 ecx, esi
  00013	e8 00 00 00 00	 call	 ?Destroy@CModelObject@@AAEHH@Z ; CModelObject::Destroy
  00018	47		 inc	 edi
  00019	83 ff 15	 cmp	 edi, 21			; 00000015H
  0001c	7c f2		 jl	 SHORT $L228340

; 124  : 	}
; 125  : 	SAFE_DELETE_ARRAY( m_mUpdateBone );

  0001e	8b 86 9c 2a 00
	00		 mov	 eax, DWORD PTR [esi+10908]
  00024	3b c3		 cmp	 eax, ebx
  00026	74 0f		 je	 SHORT $L228343
  00028	50		 push	 eax
  00029	e8 00 00 00 00	 call	 ??_V@YAXPAX@Z		; operator delete[]
  0002e	83 c4 04	 add	 esp, 4
  00031	89 9e 9c 2a 00
	00		 mov	 DWORD PTR [esi+10908], ebx
$L228343:

; 126  : 
; 127  : 	SAFE_DELETE( m_pForce );

  00037	8b 96 90 2a 00
	00		 mov	 edx, DWORD PTR [esi+10896]
  0003d	3b d3		 cmp	 edx, ebx
  0003f	74 37		 je	 SHORT $L228346
  00041	33 c0		 xor	 eax, eax
  00043	89 1a		 mov	 DWORD PTR [edx], ebx
  00045	89 5a 04	 mov	 DWORD PTR [edx+4], ebx
  00048	89 5a 08	 mov	 DWORD PTR [edx+8], ebx
  0004b	c7 42 0c e6 78
	78 ff		 mov	 DWORD PTR [edx+12], -8881946 ; ff7878e6H
  00052	8d 7a 10	 lea	 edi, DWORD PTR [edx+16]
  00055	b9 00 08 00 00	 mov	 ecx, 2048		; 00000800H
  0005a	f3 ab		 rep stosd
  0005c	8d ba 10 40 00
	00		 lea	 edi, DWORD PTR [edx+16400]
  00062	b9 00 40 00 00	 mov	 ecx, 16384		; 00004000H
  00067	52		 push	 edx
  00068	f3 ab		 rep stosd
  0006a	e8 00 00 00 00	 call	 ??3@YAXPAX@Z		; operator delete
  0006f	83 c4 04	 add	 esp, 4
  00072	89 9e 90 2a 00
	00		 mov	 DWORD PTR [esi+10896], ebx
$L228346:

; 128  : 	SAFE_DELETE( m_pForce2 );

  00078	8b 96 94 2a 00
	00		 mov	 edx, DWORD PTR [esi+10900]
  0007e	3b d3		 cmp	 edx, ebx
  00080	74 37		 je	 SHORT $L228350
  00082	33 c0		 xor	 eax, eax
  00084	89 1a		 mov	 DWORD PTR [edx], ebx
  00086	89 5a 04	 mov	 DWORD PTR [edx+4], ebx
  00089	89 5a 08	 mov	 DWORD PTR [edx+8], ebx
  0008c	c7 42 0c e6 78
	78 ff		 mov	 DWORD PTR [edx+12], -8881946 ; ff7878e6H
  00093	8d 7a 10	 lea	 edi, DWORD PTR [edx+16]
  00096	b9 00 08 00 00	 mov	 ecx, 2048		; 00000800H
  0009b	f3 ab		 rep stosd
  0009d	8d ba 10 40 00
	00		 lea	 edi, DWORD PTR [edx+16400]
  000a3	b9 00 40 00 00	 mov	 ecx, 16384		; 00004000H
  000a8	52		 push	 edx
  000a9	f3 ab		 rep stosd
  000ab	e8 00 00 00 00	 call	 ??3@YAXPAX@Z		; operator delete
  000b0	83 c4 04	 add	 esp, 4
  000b3	89 9e 94 2a 00
	00		 mov	 DWORD PTR [esi+10900], ebx
$L228350:

; 129  : 	SAFE_DELETE( m_pPartsEffect );

  000b9	8b 8e a0 2a 00
	00		 mov	 ecx, DWORD PTR [esi+10912]
  000bf	3b cb		 cmp	 ecx, ebx
  000c1	74 0c		 je	 SHORT $L228354
  000c3	8b 01		 mov	 eax, DWORD PTR [ecx]
  000c5	6a 01		 push	 1
  000c7	ff 10		 call	 DWORD PTR [eax]
  000c9	89 9e a0 2a 00
	00		 mov	 DWORD PTR [esi+10912], ebx
$L228354:

; 130  : 	SAFE_DELETE( m_pPartsEffect2 );

  000cf	8b 8e a4 2a 00
	00		 mov	 ecx, DWORD PTR [esi+10916]
  000d5	3b cb		 cmp	 ecx, ebx
  000d7	74 0c		 je	 SHORT $L228358
  000d9	8b 11		 mov	 edx, DWORD PTR [ecx]
  000db	6a 01		 push	 1
  000dd	ff 12		 call	 DWORD PTR [edx]
  000df	89 9e a4 2a 00
	00		 mov	 DWORD PTR [esi+10916], ebx
$L228358:

; 131  : #ifdef __NEW_WEAPON_GLOW
; 132  : 	SAFE_DELETE( m_pm_pPartsEffectRegular[0]);

  000e5	8b 8e a8 2a 00
	00		 mov	 ecx, DWORD PTR [esi+10920]
  000eb	3b cb		 cmp	 ecx, ebx
  000ed	74 0c		 je	 SHORT $L228362
  000ef	8b 01		 mov	 eax, DWORD PTR [ecx]
  000f1	6a 01		 push	 1
  000f3	ff 10		 call	 DWORD PTR [eax]
  000f5	89 9e a8 2a 00
	00		 mov	 DWORD PTR [esi+10920], ebx
$L228362:

; 133  : 	SAFE_DELETE( m_pm_pPartsEffectRegular[1]);

  000fb	8b 8e ac 2a 00
	00		 mov	 ecx, DWORD PTR [esi+10924]
  00101	3b cb		 cmp	 ecx, ebx
  00103	74 0c		 je	 SHORT $L228366
  00105	8b 11		 mov	 edx, DWORD PTR [ecx]
  00107	6a 01		 push	 1
  00109	ff 12		 call	 DWORD PTR [edx]
  0010b	89 9e ac 2a 00
	00		 mov	 DWORD PTR [esi+10924], ebx
$L228366:

; 134  : 	SAFE_DELETE( m_pm_pPartsEffectElement[0]);

  00111	8b 8e b0 2a 00
	00		 mov	 ecx, DWORD PTR [esi+10928]
  00117	3b cb		 cmp	 ecx, ebx
  00119	74 0c		 je	 SHORT $L228370
  0011b	8b 01		 mov	 eax, DWORD PTR [ecx]
  0011d	6a 01		 push	 1
  0011f	ff 10		 call	 DWORD PTR [eax]
  00121	89 9e b0 2a 00
	00		 mov	 DWORD PTR [esi+10928], ebx
$L228370:

; 135  : 	SAFE_DELETE( m_pm_pPartsEffectElement[1]);

  00127	8b 8e b4 2a 00
	00		 mov	 ecx, DWORD PTR [esi+10932]
  0012d	3b cb		 cmp	 ecx, ebx
  0012f	74 0c		 je	 SHORT $L228374
  00131	8b 11		 mov	 edx, DWORD PTR [ecx]
  00133	6a 01		 push	 1
  00135	ff 12		 call	 DWORD PTR [edx]
  00137	89 9e b4 2a 00
	00		 mov	 DWORD PTR [esi+10932], ebx
$L228374:

; 136  : #endif // __NEW_WEAPON_GLOW
; 137  : #if __VER >= 9 // __Y_ADV_ENCHANT_EFFECT
; 138  : 	m_nEffectCount  = 0;
; 139  : 	SAFE_DELETE( m_pPartsEffect1_Detail );

  0013d	8b 8e b8 2a 00
	00		 mov	 ecx, DWORD PTR [esi+10936]
  00143	3b cb		 cmp	 ecx, ebx
  00145	89 9e 80 2a 00
	00		 mov	 DWORD PTR [esi+10880], ebx
  0014b	74 0c		 je	 SHORT $L228378
  0014d	8b 01		 mov	 eax, DWORD PTR [ecx]
  0014f	6a 01		 push	 1
  00151	ff 10		 call	 DWORD PTR [eax]
  00153	89 9e b8 2a 00
	00		 mov	 DWORD PTR [esi+10936], ebx
$L228378:

; 140  : 	SAFE_DELETE( m_pPartsEffect2_Detail );

  00159	8b 8e bc 2a 00
	00		 mov	 ecx, DWORD PTR [esi+10940]
  0015f	3b cb		 cmp	 ecx, ebx
  00161	74 0c		 je	 SHORT $L228382
  00163	8b 11		 mov	 edx, DWORD PTR [ecx]
  00165	6a 01		 push	 1
  00167	ff 12		 call	 DWORD PTR [edx]
  00169	89 9e bc 2a 00
	00		 mov	 DWORD PTR [esi+10940], ebx
$L228382:
  0016f	5f		 pop	 edi

; 141  : #endif //__Y_ADV_ENCHANT_EFFECT
; 142  : 
; 143  : 	Init();

  00170	8b ce		 mov	 ecx, esi
  00172	5e		 pop	 esi
  00173	5b		 pop	 ebx
  00174	e9 00 00 00 00	 jmp	 ?Init@CModelObject@@AAEXXZ ; CModelObject::Init
?Destroy@CModelObject@@AAEXXZ ENDP			; CModelObject::Destroy
_TEXT	ENDS
PUBLIC	??_C@_0DK@DELLAMDK@CModelObject?3?3LoadElement?5?3?5nPar@ ; `string'
PUBLIC	??_C@_06IJGEHPBH@Model?2?$AA@			; `string'
PUBLIC	??_C@_0DE@IHGMJNKM@CModelObject?3?3LoadElement?$LP?$KB?$LM?$KN?5?F?$KI@ ; `string'
PUBLIC	??_C@_0FD@CBFMNCCC@CModelObject?3?3LoadElement?5?9?5?$CFs?$MA?G@ ; `string'
PUBLIC	??_C@_0DM@KIFEJOGG@CModelObject?3?3LoadElement?3?5?$CFs?5pE@ ; `string'
PUBLIC	??_C@_0BL@ENCDCJBI@?$CFs?5LoadElement?5?3?5nTotal?$DN?$CFd?$AA@ ; `string'
PUBLIC	?LoadElement@CModelObject@@QAEHPBDH@Z		; CModelObject::LoadElement
EXTRN	?SetBB@@YAXPAUD3DXVECTOR3@@ABU1@1@Z:NEAR	; SetBB
EXTRN	?LoadObject3D@CObject3DMng@@QAEPAVCObject3D@@PAUIDirect3DDevice9@@PBD@Z:NEAR ; CObject3DMng::LoadObject3D
EXTRN	?MakePath@@YA?AV?$CStringT@DV?$StrTraitMFC@DV?$ChTraitsCRT@D@ATL@@@@@ATL@@PBD0@Z:NEAR ; MakePath
;	COMDAT xdata$x
; File c:\documents and settings\test\mes documents\source\virtuos_v17\build\program\_common\object3d.h
xdata$x	SEGMENT
$T232028 DD	0ffffffffH
	DD	FLAT:$L231824
	DD	0ffffffffH
	DD	FLAT:$L231825
$T232014 DD	019930520H
	DD	02H
	DD	FLAT:$T232028
	DD	2 DUP(00H)
	DD	2 DUP(00H)
xdata$x	ENDS
;	COMDAT ??_C@_0DK@DELLAMDK@CModelObject?3?3LoadElement?5?3?5nPar@
CONST	SEGMENT
??_C@_0DK@DELLAMDK@CModelObject?3?3LoadElement?5?3?5nPar@ DB 'CModelObjec'
	DB	't::LoadElement : nParts ', 0bfH, 0a1H, 0b7H, 0afH, ' - nParts'
	DB	' = %d, %s', 00H				; `string'
CONST	ENDS
;	COMDAT ??_C@_06IJGEHPBH@Model?2?$AA@
CONST	SEGMENT
??_C@_06IJGEHPBH@Model?2?$AA@ DB 'Model\', 00H		; `string'
CONST	ENDS
;	COMDAT ??_C@_0DE@IHGMJNKM@CModelObject?3?3LoadElement?$LP?$KB?$LM?$KN?5?F?$KI@
CONST	SEGMENT
??_C@_0DE@IHGMJNKM@CModelObject?3?3LoadElement?$LP?$KB?$LM?$KN?5?F?$KI@ DB 'C'
	DB	'ModelObject::LoadElement', 0bfH, 0a1H, 0bcH, 0adH, ' ', 0c6H, 0a8H
	DB	0b1H, 0e8H, ' : ', 0c0H, 0d0H, 0c0H, 0baH, ' ', 0c6H, 0c4H, 0c0H
	DB	0cfH, 0b8H, 0edH, ' %s', 00H			; `string'
CONST	ENDS
;	COMDAT ??_C@_0FD@CBFMNCCC@CModelObject?3?3LoadElement?5?9?5?$CFs?$MA?G@
CONST	SEGMENT
??_C@_0FD@CBFMNCCC@CModelObject?3?3LoadElement?5?9?5?$CFs?$MA?G@ DB 'CMod'
	DB	'elObject::LoadElement - %s', 0c0H, 0c7H, ' MaxFrame(%d)', 0b0H
	DB	0faH, ' ', 0c0H, 0ccH, 0c0H, 0fcH, 0bfH, 0a1H, ' ', 0c0H, 0d0H
	DB	0c0H, 0baH, ' MaxFrame(%d)', 0c0H, 0ccH, ' ', 0b4H, 0d9H, 0b8H
	DB	0a3H, 0b4H, 0d9H, '.', 00H			; `string'
CONST	ENDS
;	COMDAT ??_C@_0DM@KIFEJOGG@CModelObject?3?3LoadElement?3?5?$CFs?5pE@
CONST	SEGMENT
??_C@_0DM@KIFEJOGG@CModelObject?3?3LoadElement?3?5?$CFs?5pE@ DB 'CModelOb'
	DB	'ject::LoadElement: %s pElem->m_ppd3d_VB is not NULL', 00H ; `string'
CONST	ENDS
;	COMDAT ??_C@_0BL@ENCDCJBI@?$CFs?5LoadElement?5?3?5nTotal?$DN?$CFd?$AA@
CONST	SEGMENT
??_C@_0BL@ENCDCJBI@?$CFs?5LoadElement?5?3?5nTotal?$DN?$CFd?$AA@ DB '%s Lo'
	DB	'adElement : nTotal=%d', 00H			; `string'
; Function compile flags: /Ogty
; File c:\documents and settings\test\mes documents\source\virtuos_v17\build\program\_common\modelobject.cpp
CONST	ENDS
;	COMDAT ?LoadElement@CModelObject@@QAEHPBDH@Z
_TEXT	SEGMENT
_this$ = -16						; size = 4
__$EHRec$ = -12						; size = 12
$T231820 = 8						; size = 4
_szFileName$ = 8					; size = 4
tv1264 = 12						; size = 4
$T231822 = 12						; size = 4
_nParts$ = 12						; size = 4
?LoadElement@CModelObject@@QAEHPBDH@Z PROC NEAR		; CModelObject::LoadElement, COMDAT
; _this$ = ecx

; 643  : {

  00000	6a ff		 push	 -1
  00002	68 00 00 00 00	 push	 __ehhandler$?LoadElement@CModelObject@@QAEHPBDH@Z
  00007	64 a1 00 00 00
	00		 mov	 eax, DWORD PTR fs:__except_list
  0000d	50		 push	 eax
  0000e	64 89 25 00 00
	00 00		 mov	 DWORD PTR fs:__except_list, esp
  00015	51		 push	 ecx

; 644  : 	CObject3D	*pObject3D;
; 645  : 	O3D_ELEMENT	*pElem;
; 646  : 
; 647  : 	if( nParts < 0 )

  00016	8b 44 24 18	 mov	 eax, DWORD PTR _nParts$[esp+12]
  0001a	53		 push	 ebx
  0001b	57		 push	 edi
  0001c	33 db		 xor	 ebx, ebx
  0001e	3b c3		 cmp	 eax, ebx
  00020	8b f9		 mov	 edi, ecx
  00022	89 7c 24 08	 mov	 DWORD PTR _this$[esp+24], edi
  00026	7d 29		 jge	 SHORT $L228565

; 648  : 	{
; 649  : 		Error( "CModelObject::LoadElement : nParts  - nParts = %d, %s", nParts, szFileName );

  00028	8b 4c 24 1c	 mov	 ecx, DWORD PTR _szFileName$[esp+20]
  0002c	51		 push	 ecx
  0002d	50		 push	 eax
  0002e	68 00 00 00 00	 push	 OFFSET FLAT:??_C@_0DK@DELLAMDK@CModelObject?3?3LoadElement?5?3?5nPar@
  00033	e8 00 00 00 00	 call	 ?Error@@YAPBDPBDZZ	; Error
  00038	83 c4 0c	 add	 esp, 12			; 0000000cH
$L232027:
  0003b	5f		 pop	 edi

; 650  : 		return FAIL;

  0003c	83 c8 ff	 or	 eax, -1
  0003f	5b		 pop	 ebx

; 791  : }

  00040	8b 4c 24 04	 mov	 ecx, DWORD PTR __$EHRec$[esp+16]
  00044	64 89 0d 00 00
	00 00		 mov	 DWORD PTR fs:__except_list, ecx
  0004b	83 c4 10	 add	 esp, 16			; 00000010H
  0004e	c2 08 00	 ret	 8
$L228565:

; 651  : 	}
; 652  : 
; 653  : 	if( nParts == PARTS_RIDE )

  00051	83 f8 0d	 cmp	 eax, 13			; 0000000dH

; 654  : 		return FAIL;

  00054	74 e5		 je	 SHORT $L232027

; 655  : 
; 656  : 	if(  nParts >= PARTS_LOWER2 && nParts <= PARTS_BULLET )

  00056	83 f8 10	 cmp	 eax, 16			; 00000010H
  00059	7c 05		 jl	 SHORT $L228568
  0005b	83 f8 19	 cmp	 eax, 25			; 00000019H

; 657  : 		return FAIL;

  0005e	7e db		 jle	 SHORT $L232027
$L228568:
  00060	55		 push	 ebp
  00061	56		 push	 esi

; 658  : 
; 659  : 	int nIdx = GetPartsIdx(nParts);

  00062	50		 push	 eax
  00063	8b cf		 mov	 ecx, edi
  00065	e8 00 00 00 00	 call	 ?GetPartsIdx@CModelObject@@QAEHH@Z ; CModelObject::GetPartsIdx

; 660  : 	Destroy( nIdx );

  0006a	50		 push	 eax
  0006b	8b cf		 mov	 ecx, edi
  0006d	e8 00 00 00 00	 call	 ?Destroy@CModelObject@@AAEHH@Z ; CModelObject::Destroy

; 661  : 
; 662  : #ifdef __CLIENT
; 663  : 	HRESULT hr;
; 664  : 	// Object3D       .
; 665  : 	if( FAILED( hr = m_pd3dDevice->TestCooperativeLevel() ) )		//   .
; 666  : 	{
; 667  : 		LPCTSTR szErr = Error( "%s  %08x", szFileName, (int)hr );
; 668  : 		ADDERRORMSG( szErr );
; 669  : 	}
; 670  : #endif
; 671  : 	pObject3D = g_Object3DMng.LoadObject3D( m_pd3dDevice, szFileName );

  00072	8b 74 24 24	 mov	 esi, DWORD PTR _szFileName$[esp+28]
  00076	8b 57 04	 mov	 edx, DWORD PTR [edi+4]
  00079	56		 push	 esi
  0007a	52		 push	 edx
  0007b	b9 00 00 00 00	 mov	 ecx, OFFSET FLAT:?g_Object3DMng@@3VCObject3DMng@@A
  00080	e8 00 00 00 00	 call	 ?LoadObject3D@CObject3DMng@@QAEPAVCObject3D@@PAUIDirect3DDevice9@@PBD@Z ; CObject3DMng::LoadObject3D
  00085	8b e8		 mov	 ebp, eax

; 672  : 	if( pObject3D == NULL )

  00087	3b eb		 cmp	 ebp, ebx
  00089	75 45		 jne	 SHORT $L228570

; 673  : 	{
; 674  : 		LPCTSTR szStr = Error( "%s :   ", MakePath( DIR_MODEL, szFileName ) );

  0008b	56		 push	 esi
  0008c	8d 44 24 28	 lea	 eax, DWORD PTR $T231820[esp+32]
  00090	68 00 00 00 00	 push	 OFFSET FLAT:??_C@_06IJGEHPBH@Model?2?$AA@
  00095	50		 push	 eax
  00096	e8 00 00 00 00	 call	 ?MakePath@@YA?AV?$CStringT@DV?$StrTraitMFC@DV?$ChTraitsCRT@D@ATL@@@@@ATL@@PBD0@Z ; MakePath
  0009b	8b 08		 mov	 ecx, DWORD PTR [eax]
  0009d	51		 push	 ecx
  0009e	68 00 00 00 00	 push	 OFFSET FLAT:??_C@_0BC@DADEMEMC@?$CFs?5?3?5?C?$KD?$MA?$LL?5?$LM?v?5?$LO?x?$MA?$LN?$AA@
  000a3	89 5c 24 30	 mov	 DWORD PTR __$EHRec$[esp+60], ebx
  000a7	e8 00 00 00 00	 call	 ?Error@@YAPBDPBDZZ	; Error
  000ac	8b 44 24 38	 mov	 eax, DWORD PTR $T231820[esp+48]
  000b0	83 c0 f0	 add	 eax, -16		; fffffff0H
  000b3	83 c4 14	 add	 esp, 20			; 00000014H
  000b6	c7 44 24 1c ff
	ff ff ff	 mov	 DWORD PTR __$EHRec$[esp+40], -1
  000be	8d 50 0c	 lea	 edx, DWORD PTR [eax+12]
  000c1	83 c9 ff	 or	 ecx, -1
  000c4	f0 0f c1 0a	 lock	  xadd	 DWORD PTR [edx], ecx
  000c8	49		 dec	 ecx
  000c9	85 c9		 test	 ecx, ecx

; 675  : 		ADDERRORMSG( szStr );
; 676  : 		return FAIL;

  000cb	e9 6f 02 00 00	 jmp	 $L232026
$L228570:

; 677  : 	}
; 678  : 
; 679  : 	pObject3D->InitDeviceObjects( m_pd3dDevice );

  000d0	8b 47 04	 mov	 eax, DWORD PTR [edi+4]
  000d3	89 85 ac 00 00
	00		 mov	 DWORD PTR [ebp+172], eax

; 680  : 
; 681  : 	//     .
; 682  : 	if( pObject3D->IsUseExternBone() )		//   .

  000d9	39 9d bc 00 00
	00		 cmp	 DWORD PTR [ebp+188], ebx
  000df	74 11		 je	 SHORT $L228576
  000e1	39 5d 34	 cmp	 DWORD PTR [ebp+52], ebx
  000e4	75 0c		 jne	 SHORT $L228576

; 683  : 	{
; 684  : 		if( m_pBone == NULL )			//    ...

  000e6	39 9f 84 2a 00
	00		 cmp	 DWORD PTR [edi+10884], ebx

; 685  : 		{
; 686  : #ifdef __CLIENT
; 687  : 			Error( "%s : bone not loaded.", szFileName );		//     
; 688  : #endif // __CLIENT
; 689  : 			return FAIL;

  000ec	0f 84 57 02 00
	00		 je	 $L231906
$L228576:

; 690  : 		}
; 691  : 	}
; 692  : 	
; 693  : 	for( int i=0; i<MAX_ELEMENT; i++ )

  000f2	33 f6		 xor	 esi, esi
  000f4	8d 87 c8 04 00
	00		 lea	 eax, DWORD PTR [edi+1224]
  000fa	8d 9b 00 00 00
	00		 npad	 6
$L228578:

; 694  : 	{
; 695  : 		if( m_Element[ i ].m_nPartsIdx == -1 )

  00100	8b 88 04 fe ff
	ff		 mov	 ecx, DWORD PTR [eax-508]
  00106	83 ca ff	 or	 edx, -1
  00109	3b ca		 cmp	 ecx, edx
  0010b	74 21		 je	 SHORT $L232017
  0010d	39 10		 cmp	 DWORD PTR [eax], edx
  0010f	74 17		 je	 SHORT $L232019
  00111	39 90 fc 01 00
	00		 cmp	 DWORD PTR [eax+508], edx
  00117	74 12		 je	 SHORT $L232020
  00119	83 c6 03	 add	 esi, 3
  0011c	05 f4 05 00 00	 add	 eax, 1524		; 000005f4H
  00121	83 fe 15	 cmp	 esi, 21			; 00000015H
  00124	7c da		 jl	 SHORT $L228578

; 789  : 
; 790  : 	return SUCCESS;

  00126	eb 06		 jmp	 SHORT $L232017
$L232019:

; 694  : 	{
; 695  : 		if( m_Element[ i ].m_nPartsIdx == -1 )

  00128	46		 inc	 esi

; 789  : 
; 790  : 	return SUCCESS;

  00129	eb 03		 jmp	 SHORT $L232017
$L232020:

; 694  : 	{
; 695  : 		if( m_Element[ i ].m_nPartsIdx == -1 )

  0012b	83 c6 02	 add	 esi, 2
$L232017:

; 696  : 			break;
; 697  : 	}
; 698  : 
; 699  : 	if( i == MAX_ELEMENT )

  0012e	83 fe 15	 cmp	 esi, 21			; 00000015H
  00131	75 17		 jne	 SHORT $L228582
  00133	5e		 pop	 esi
  00134	5d		 pop	 ebp
  00135	5f		 pop	 edi

; 700  : 		return FAIL;

  00136	8b c2		 mov	 eax, edx
  00138	5b		 pop	 ebx

; 791  : }

  00139	8b 4c 24 04	 mov	 ecx, DWORD PTR __$EHRec$[esp+16]
  0013d	64 89 0d 00 00
	00 00		 mov	 DWORD PTR fs:__except_list, ecx
  00144	83 c4 10	 add	 esp, 16			; 00000010H
  00147	c2 08 00	 ret	 8
$L228582:

; 701  : 
; 702  : 	pElem = &m_Element[ i ];

  0014a	69 f6 fc 01 00
	00		 imul	 esi, 508		; 000001fcH
  00150	8d b4 3e d4 00
	00 00		 lea	 esi, DWORD PTR [esi+edi+212]

; 703  : 	memset( pElem, 0, sizeof(O3D_ELEMENT) );

  00157	33 c0		 xor	 eax, eax
  00159	b9 7f 00 00 00	 mov	 ecx, 127		; 0000007fH
  0015e	8b fe		 mov	 edi, esi
  00160	f3 ab		 rep stosd

; 704  : 	pElem->m_nPartsIdx = nParts;
; 705  : 	pElem->m_nParentIdx = -1;

  00162	89 16		 mov	 DWORD PTR [esi], edx
  00164	8b 44 24 28	 mov	 eax, DWORD PTR _nParts$[esp+28]
  00168	89 86 f8 01 00
	00		 mov	 DWORD PTR [esi+504], eax

; 706  : 	D3DXMatrixIdentity( &(pElem->m_mLocalRH) );

  0016e	89 9e 80 00 00
	00		 mov	 DWORD PTR [esi+128], ebx
  00174	89 5e 7c	 mov	 DWORD PTR [esi+124], ebx
  00177	89 5e 78	 mov	 DWORD PTR [esi+120], ebx
  0017a	89 5e 74	 mov	 DWORD PTR [esi+116], ebx
  0017d	89 5e 6c	 mov	 DWORD PTR [esi+108], ebx
  00180	89 5e 68	 mov	 DWORD PTR [esi+104], ebx
  00183	89 5e 64	 mov	 DWORD PTR [esi+100], ebx
  00186	89 5e 60	 mov	 DWORD PTR [esi+96], ebx
  00189	89 5e 58	 mov	 DWORD PTR [esi+88], ebx
  0018c	89 5e 54	 mov	 DWORD PTR [esi+84], ebx
  0018f	89 5e 50	 mov	 DWORD PTR [esi+80], ebx
  00192	89 5e 4c	 mov	 DWORD PTR [esi+76], ebx

; 707  : 	D3DXMatrixIdentity( &(pElem->m_mLocalLH) );
; 708  : 	D3DXMatrixIdentity( &(pElem->m_mLocalShield) );
; 709  : 	D3DXMatrixIdentity( &(pElem->m_mLocalKnuckle) );
; 710  : 
; 711  : 
; 712  : 	pElem->m_pObject3D = pObject3D;
; 713  : 	
; 714  : 	memset( &g_szLastFile, 0, sizeof(char)*512 );
; 715  : 	strcpy( g_szLastFile, szFileName );

  00195	8b 54 24 24	 mov	 edx, DWORD PTR _szFileName$[esp+28]
  00199	b8 00 00 80 3f	 mov	 eax, 1065353216		; 3f800000H
  0019e	89 86 84 00 00
	00		 mov	 DWORD PTR [esi+132], eax
  001a4	89 46 70	 mov	 DWORD PTR [esi+112], eax
  001a7	89 46 5c	 mov	 DWORD PTR [esi+92], eax
  001aa	89 46 48	 mov	 DWORD PTR [esi+72], eax
  001ad	89 86 c4 00 00
	00		 mov	 DWORD PTR [esi+196], eax
  001b3	89 86 b0 00 00
	00		 mov	 DWORD PTR [esi+176], eax
  001b9	89 86 9c 00 00
	00		 mov	 DWORD PTR [esi+156], eax
  001bf	89 86 88 00 00
	00		 mov	 DWORD PTR [esi+136], eax
  001c5	89 9e c0 00 00
	00		 mov	 DWORD PTR [esi+192], ebx
  001cb	89 9e bc 00 00
	00		 mov	 DWORD PTR [esi+188], ebx
  001d1	89 9e b8 00 00
	00		 mov	 DWORD PTR [esi+184], ebx
  001d7	89 9e b4 00 00
	00		 mov	 DWORD PTR [esi+180], ebx
  001dd	89 9e ac 00 00
	00		 mov	 DWORD PTR [esi+172], ebx
  001e3	89 9e a8 00 00
	00		 mov	 DWORD PTR [esi+168], ebx
  001e9	89 9e a4 00 00
	00		 mov	 DWORD PTR [esi+164], ebx
  001ef	89 9e a0 00 00
	00		 mov	 DWORD PTR [esi+160], ebx
  001f5	89 9e 98 00 00
	00		 mov	 DWORD PTR [esi+152], ebx
  001fb	89 9e 94 00 00
	00		 mov	 DWORD PTR [esi+148], ebx
  00201	89 9e 90 00 00
	00		 mov	 DWORD PTR [esi+144], ebx
  00207	89 9e 8c 00 00
	00		 mov	 DWORD PTR [esi+140], ebx
  0020d	89 86 04 01 00
	00		 mov	 DWORD PTR [esi+260], eax
  00213	89 86 f0 00 00
	00		 mov	 DWORD PTR [esi+240], eax
  00219	89 86 dc 00 00
	00		 mov	 DWORD PTR [esi+220], eax
  0021f	89 86 c8 00 00
	00		 mov	 DWORD PTR [esi+200], eax
  00225	89 9e 00 01 00
	00		 mov	 DWORD PTR [esi+256], ebx
  0022b	89 9e fc 00 00
	00		 mov	 DWORD PTR [esi+252], ebx
  00231	89 9e f8 00 00
	00		 mov	 DWORD PTR [esi+248], ebx
  00237	89 9e f4 00 00
	00		 mov	 DWORD PTR [esi+244], ebx
  0023d	89 9e ec 00 00
	00		 mov	 DWORD PTR [esi+236], ebx
  00243	89 9e e8 00 00
	00		 mov	 DWORD PTR [esi+232], ebx
  00249	89 9e e4 00 00
	00		 mov	 DWORD PTR [esi+228], ebx
  0024f	89 9e e0 00 00
	00		 mov	 DWORD PTR [esi+224], ebx
  00255	89 9e d8 00 00
	00		 mov	 DWORD PTR [esi+216], ebx
  0025b	89 9e d4 00 00
	00		 mov	 DWORD PTR [esi+212], ebx
  00261	89 9e d0 00 00
	00		 mov	 DWORD PTR [esi+208], ebx
  00267	89 9e cc 00 00
	00		 mov	 DWORD PTR [esi+204], ebx
  0026d	89 86 44 01 00
	00		 mov	 DWORD PTR [esi+324], eax
  00273	89 86 30 01 00
	00		 mov	 DWORD PTR [esi+304], eax
  00279	89 86 1c 01 00
	00		 mov	 DWORD PTR [esi+284], eax
  0027f	89 86 08 01 00
	00		 mov	 DWORD PTR [esi+264], eax
  00285	89 9e 40 01 00
	00		 mov	 DWORD PTR [esi+320], ebx
  0028b	89 9e 3c 01 00
	00		 mov	 DWORD PTR [esi+316], ebx
  00291	89 9e 38 01 00
	00		 mov	 DWORD PTR [esi+312], ebx
  00297	89 9e 34 01 00
	00		 mov	 DWORD PTR [esi+308], ebx
  0029d	89 9e 2c 01 00
	00		 mov	 DWORD PTR [esi+300], ebx
  002a3	89 9e 28 01 00
	00		 mov	 DWORD PTR [esi+296], ebx
  002a9	89 9e 24 01 00
	00		 mov	 DWORD PTR [esi+292], ebx
  002af	89 9e 20 01 00
	00		 mov	 DWORD PTR [esi+288], ebx
  002b5	89 9e 18 01 00
	00		 mov	 DWORD PTR [esi+280], ebx
  002bb	89 9e 14 01 00
	00		 mov	 DWORD PTR [esi+276], ebx
  002c1	89 9e 10 01 00
	00		 mov	 DWORD PTR [esi+272], ebx
  002c7	89 9e 0c 01 00
	00		 mov	 DWORD PTR [esi+268], ebx
  002cd	33 c0		 xor	 eax, eax
  002cf	b9 80 00 00 00	 mov	 ecx, 128		; 00000080H
  002d4	bf 00 00 00 00	 mov	 edi, OFFSET FLAT:?g_szLastFile@@3PADA ; g_szLastFile
  002d9	89 6e 04	 mov	 DWORD PTR [esi+4], ebp
  002dc	f3 ab		 rep stosd
  002de	8b c2		 mov	 eax, edx
  002e0	bf 00 00 00 00	 mov	 edi, OFFSET FLAT:?g_szLastFile@@3PADA ; g_szLastFile
  002e5	2b fa		 sub	 edi, edx
$L231821:
  002e7	8a 08		 mov	 cl, BYTE PTR [eax]
  002e9	88 0c 07	 mov	 BYTE PTR [edi+eax], cl
  002ec	40		 inc	 eax
  002ed	3a cb		 cmp	 cl, bl
  002ef	75 f6		 jne	 SHORT $L231821

; 716  : 
; 717  : 	if( pObject3D->GetGMOBJECT() == NULL )

  002f1	8b 4d 00	 mov	 ecx, DWORD PTR [ebp]
  002f4	8b 41 04	 mov	 eax, DWORD PTR [ecx+4]
  002f7	3b c3		 cmp	 eax, ebx
  002f9	75 66		 jne	 SHORT $L228585

; 718  : 	{
; 719  : 		LPCTSTR szStr = Error( "CModelObject::LoadElement  :   %s", MakePath( DIR_MODEL, szFileName ) );

  002fb	52		 push	 edx
  002fc	8d 54 24 2c	 lea	 edx, DWORD PTR $T231822[esp+32]
  00300	68 00 00 00 00	 push	 OFFSET FLAT:??_C@_06IJGEHPBH@Model?2?$AA@
  00305	52		 push	 edx
  00306	e8 00 00 00 00	 call	 ?MakePath@@YA?AV?$CStringT@DV?$StrTraitMFC@DV?$ChTraitsCRT@D@ATL@@@@@ATL@@PBD0@Z ; MakePath
  0030b	8b 00		 mov	 eax, DWORD PTR [eax]
  0030d	50		 push	 eax
  0030e	68 00 00 00 00	 push	 OFFSET FLAT:??_C@_0DE@IHGMJNKM@CModelObject?3?3LoadElement?$LP?$KB?$LM?$KN?5?F?$KI@
  00313	c7 44 24 30 01
	00 00 00	 mov	 DWORD PTR __$EHRec$[esp+60], 1
  0031b	e8 00 00 00 00	 call	 ?Error@@YAPBDPBDZZ	; Error
  00320	8b 44 24 3c	 mov	 eax, DWORD PTR $T231822[esp+48]
  00324	83 c0 f0	 add	 eax, -16		; fffffff0H
  00327	83 c4 14	 add	 esp, 20			; 00000014H
  0032a	c7 44 24 1c ff
	ff ff ff	 mov	 DWORD PTR __$EHRec$[esp+40], -1
  00332	8d 48 0c	 lea	 ecx, DWORD PTR [eax+12]
  00335	83 ca ff	 or	 edx, -1
  00338	f0 0f c1 11	 lock	  xadd	 DWORD PTR [ecx], edx
  0033c	4a		 dec	 edx
  0033d	85 d2		 test	 edx, edx
$L232026:
  0033f	7f 08		 jg	 SHORT $L231906
  00341	8b 08		 mov	 ecx, DWORD PTR [eax]
  00343	8b 11		 mov	 edx, DWORD PTR [ecx]
  00345	50		 push	 eax
  00346	ff 52 04	 call	 DWORD PTR [edx+4]
$L231906:
  00349	5e		 pop	 esi
  0034a	5d		 pop	 ebp
  0034b	5f		 pop	 edi

; 720  : 		ADDERRORMSG( szStr );
; 721  : 		return FAIL;

  0034c	83 c8 ff	 or	 eax, -1
  0034f	5b		 pop	 ebx

; 791  : }

  00350	8b 4c 24 04	 mov	 ecx, DWORD PTR __$EHRec$[esp+16]
  00354	64 89 0d 00 00
	00 00		 mov	 DWORD PTR fs:__except_list, ecx
  0035b	83 c4 10	 add	 esp, 16			; 00000010H
  0035e	c2 08 00	 ret	 8
$L228585:

; 722  : 	}
; 723  : 	
; 724  : 	if( pObject3D->GetGMOBJECT()->m_bOpacity )

  00361	39 98 84 00 00
	00		 cmp	 DWORD PTR [eax+132], ebx

; 725  : 		m_dwRenderEffect = REFF_ALPHA;

  00367	8b 7c 24 10	 mov	 edi, DWORD PTR _this$[esp+32]
  0036b	74 07		 je	 SHORT $L228590
  0036d	c7 47 6c 01 00
	00 00		 mov	 DWORD PTR [edi+108], 1
$L228590:

; 726  : 	m_bCollObj = pObject3D->IsHaveCollObj();

  00374	8b 8d 00 01 00
	00		 mov	 ecx, DWORD PTR [ebp+256]
  0037a	33 c0		 xor	 eax, eax
  0037c	83 f9 ff	 cmp	 ecx, -1
  0037f	0f 95 c0	 setne	 al
  00382	89 87 cc 00 00
	00		 mov	 DWORD PTR [edi+204], eax

; 727  : 	if( pObject3D->m_nHavePhysique )	m_bSkin = TRUE;

  00388	39 9d bc 00 00
	00		 cmp	 DWORD PTR [ebp+188], ebx
  0038e	74 0a		 je	 SHORT $L228591
  00390	c7 87 b8 00 00
	00 01 00 00 00	 mov	 DWORD PTR [edi+184], 1
$L228591:

; 728  : 
; 729  : 	if( m_nFrameMax > 0 )	//     maxframe     maxframe .  .

  0039a	8b 8f a8 00 00
	00		 mov	 ecx, DWORD PTR [edi+168]
  003a0	3b cb		 cmp	 ecx, ebx
  003a2	7e 22		 jle	 SHORT $L228594

; 730  : 	{
; 731  : 		if( pObject3D->GetMaxFrame() )

  003a4	8b 85 1c 0c 00
	00		 mov	 eax, DWORD PTR [ebp+3100]
  003aa	3b c3		 cmp	 eax, ebx
  003ac	74 18		 je	 SHORT $L228594

; 732  : 			if( m_nFrameMax != pObject3D->GetMaxFrame() )

  003ae	3b c8		 cmp	 ecx, eax
  003b0	74 14		 je	 SHORT $L228594

; 733  : 			{
; 734  : 				LPCTSTR szErr = Error( "CModelObject::LoadElement - %s MaxFrame(%d)   MaxFrame(%d) .", szFileName, pObject3D->GetMaxFrame(), m_nFrameMax );

  003b2	51		 push	 ecx
  003b3	8b 4c 24 28	 mov	 ecx, DWORD PTR _szFileName$[esp+32]
  003b7	50		 push	 eax
  003b8	51		 push	 ecx
  003b9	68 00 00 00 00	 push	 OFFSET FLAT:??_C@_0FD@CBFMNCCC@CModelObject?3?3LoadElement?5?9?5?$CFs?$MA?G@
  003be	e8 00 00 00 00	 call	 ?Error@@YAPBDPBDZZ	; Error
  003c3	83 c4 10	 add	 esp, 16			; 00000010H
$L228594:

; 735  : 				ADDERRORMSG( szErr );
; 736  : 			}
; 737  : 	}
; 738  : 	if( m_nFrameMax == 0 )	// maxframe    .

  003c6	39 9f a8 00 00
	00		 cmp	 DWORD PTR [edi+168], ebx
  003cc	75 0c		 jne	 SHORT $L228598

; 739  : 		m_nFrameMax = pObject3D->GetMaxFrame();

  003ce	8b 95 1c 0c 00
	00		 mov	 edx, DWORD PTR [ebp+3100]
  003d4	89 97 a8 00 00
	00		 mov	 DWORD PTR [edi+168], edx
$L228598:

; 740  : 
; 741  : 	//  
; 742  : 	m_fPerSlerp = (float)((int)(pObject3D->m_fPerSlerp * 1000.0f)) / 1000.0f;		//  3     3  ,.

  003da	d9 85 18 0c 00
	00		 fld	 DWORD PTR [ebp+3096]
  003e0	d8 0d 00 00 00
	00		 fmul	 DWORD PTR __real@447a0000
  003e6	e8 00 00 00 00	 call	 __ftol2
  003eb	89 44 24 28	 mov	 DWORD PTR tv1264[esp+28], eax
  003ef	db 44 24 28	 fild	 DWORD PTR tv1264[esp+28]

; 743  : 
; 744  : 
; 745  : 	//      m_pUpdateBone   .
; 746  : 	if( m_pBone )

  003f3	39 9f 84 2a 00
	00		 cmp	 DWORD PTR [edi+10884], ebx
  003f9	d8 0d 00 00 00
	00		 fmul	 DWORD PTR __real@3a83126f
  003ff	d9 9f ac 00 00
	00		 fstp	 DWORD PTR [edi+172]
  00405	74 17		 je	 SHORT $L231934

; 747  : 		pObject3D->SetExternBone( m_mUpdateBone, m_pBaseBoneInv );

  00407	39 5d 34	 cmp	 DWORD PTR [ebp+52], ebx
  0040a	8b 87 c8 00 00
	00		 mov	 eax, DWORD PTR [edi+200]
  00410	75 0c		 jne	 SHORT $L231934
  00412	8b 8f 9c 2a 00
	00		 mov	 ecx, DWORD PTR [edi+10908]
  00418	89 4d 28	 mov	 DWORD PTR [ebp+40], ecx
  0041b	89 45 2c	 mov	 DWORD PTR [ebp+44], eax
$L231934:

; 748  : 
; 749  : 	//   Mesh  BB  CModelObject BB 
; 750  : 	//    .  Min,Max Local
; 751  : 	//         .
; 752  : 	if( pObject3D->m_vBBMin.x < m_vMin.x )	m_vMin.x = pObject3D->m_vBBMin.x;

  0041e	d9 85 bc 0b 00
	00		 fld	 DWORD PTR [ebp+3004]
  00424	8d 57 78	 lea	 edx, DWORD PTR [edi+120]
  00427	d8 1a		 fcomp	 DWORD PTR [edx]
  00429	df e0		 fnstsw	 ax
  0042b	f6 c4 05	 test	 ah, 5
  0042e	7a 08		 jp	 SHORT $L228602
  00430	8b 85 bc 0b 00
	00		 mov	 eax, DWORD PTR [ebp+3004]
  00436	89 02		 mov	 DWORD PTR [edx], eax
$L228602:

; 753  : 	if( pObject3D->m_vBBMin.y < m_vMin.y )	m_vMin.y = pObject3D->m_vBBMin.y;

  00438	d9 85 c0 0b 00
	00		 fld	 DWORD PTR [ebp+3008]
  0043e	d8 5f 7c	 fcomp	 DWORD PTR [edi+124]
  00441	df e0		 fnstsw	 ax
  00443	f6 c4 05	 test	 ah, 5
  00446	7a 09		 jp	 SHORT $L228603
  00448	8b 8d c0 0b 00
	00		 mov	 ecx, DWORD PTR [ebp+3008]
  0044e	89 4f 7c	 mov	 DWORD PTR [edi+124], ecx
$L228603:

; 754  : 	if( pObject3D->m_vBBMin.z < m_vMin.z )	m_vMin.z = pObject3D->m_vBBMin.z;

  00451	d9 85 c4 0b 00
	00		 fld	 DWORD PTR [ebp+3012]
  00457	d8 9f 80 00 00
	00		 fcomp	 DWORD PTR [edi+128]
  0045d	df e0		 fnstsw	 ax
  0045f	f6 c4 05	 test	 ah, 5
  00462	7a 0c		 jp	 SHORT $L228604
  00464	8b 85 c4 0b 00
	00		 mov	 eax, DWORD PTR [ebp+3012]
  0046a	89 87 80 00 00
	00		 mov	 DWORD PTR [edi+128], eax
$L228604:

; 755  : 	if( pObject3D->m_vBBMax.x > m_vMax.x )	m_vMax.x = pObject3D->m_vBBMax.x;

  00470	d9 85 c8 0b 00
	00		 fld	 DWORD PTR [ebp+3016]
  00476	8d 8f 84 00 00
	00		 lea	 ecx, DWORD PTR [edi+132]
  0047c	d8 19		 fcomp	 DWORD PTR [ecx]
  0047e	df e0		 fnstsw	 ax
  00480	f6 c4 41	 test	 ah, 65			; 00000041H
  00483	75 08		 jne	 SHORT $L228605
  00485	8b 85 c8 0b 00
	00		 mov	 eax, DWORD PTR [ebp+3016]
  0048b	89 01		 mov	 DWORD PTR [ecx], eax
$L228605:

; 756  : 	if( pObject3D->m_vBBMax.y > m_vMax.y )	m_vMax.y = pObject3D->m_vBBMax.y;

  0048d	d9 85 cc 0b 00
	00		 fld	 DWORD PTR [ebp+3020]
  00493	d8 9f 88 00 00
	00		 fcomp	 DWORD PTR [edi+136]
  00499	df e0		 fnstsw	 ax
  0049b	f6 c4 41	 test	 ah, 65			; 00000041H
  0049e	75 0c		 jne	 SHORT $L228606
  004a0	8b 85 cc 0b 00
	00		 mov	 eax, DWORD PTR [ebp+3020]
  004a6	89 87 88 00 00
	00		 mov	 DWORD PTR [edi+136], eax
$L228606:

; 757  : 	if( pObject3D->m_vBBMax.z > m_vMax.z )	m_vMax.z = pObject3D->m_vBBMax.z;

  004ac	d9 85 d0 0b 00
	00		 fld	 DWORD PTR [ebp+3024]
  004b2	d8 9f 8c 00 00
	00		 fcomp	 DWORD PTR [edi+140]
  004b8	df e0		 fnstsw	 ax
  004ba	f6 c4 41	 test	 ah, 65			; 00000041H
  004bd	75 0c		 jne	 SHORT $L228607
  004bf	8b 85 d0 0b 00
	00		 mov	 eax, DWORD PTR [ebp+3024]
  004c5	89 87 8c 00 00
	00		 mov	 DWORD PTR [edi+140], eax
$L228607:

; 758  : 	SetBB( m_BB.m_vPos, m_vMin, m_vMax );

  004cb	51		 push	 ecx
  004cc	52		 push	 edx
  004cd	83 c7 0c	 add	 edi, 12			; 0000000cH
  004d0	57		 push	 edi
  004d1	e8 00 00 00 00	 call	 ?SetBB@@YAXPAUD3DXVECTOR3@@ABU1@1@Z ; SetBB

; 759  : 
; 760  : 	//   this     .
; 761  : 	//     SetParent() .
; 762  : 	pElem->m_nParentIdx = -1;

  004d6	c7 06 ff ff ff
	ff		 mov	 DWORD PTR [esi], -1

; 763  : 
; 764  : 	if( pObject3D->m_nHavePhysique )	//       

  004dc	8b 85 bc 00 00
	00		 mov	 eax, DWORD PTR [ebp+188]
  004e2	83 c4 0c	 add	 esp, 12			; 0000000cH
  004e5	3b c3		 cmp	 eax, ebx
  004e7	0f 84 f2 00 00
	00		 je	 $L228608

; 765  : 	{
; 766  : 		if( pElem->m_ppd3d_VB )

  004ed	39 9e 48 01 00
	00		 cmp	 DWORD PTR [esi+328], ebx
  004f3	74 12		 je	 SHORT $L228609

; 767  : 			Error( "CModelObject::LoadElement: %s pElem->m_ppd3d_VB is not NULL", szFileName );

  004f5	8b 4c 24 24	 mov	 ecx, DWORD PTR _szFileName$[esp+28]
  004f9	51		 push	 ecx
  004fa	68 00 00 00 00	 push	 OFFSET FLAT:??_C@_0DM@KIFEJOGG@CModelObject?3?3LoadElement?3?5?$CFs?5pE@
  004ff	e8 00 00 00 00	 call	 ?Error@@YAPBDPBDZZ	; Error
  00504	83 c4 08	 add	 esp, 8
$L228609:

; 768  : 
; 769  : 		int nTotal = 0;
; 770  : 		pObject3D->SetLOD(0);	nTotal += pObject3D->GetMaxObject();
; 771  : 		pObject3D->SetLOD(1);	nTotal += pObject3D->GetMaxObject();

  00507	8b 95 b4 00 00
	00		 mov	 edx, DWORD PTR [ebp+180]
  0050d	3b d3		 cmp	 edx, ebx
  0050f	8d 4d 04	 lea	 ecx, DWORD PTR [ebp+4]
  00512	89 4d 00	 mov	 DWORD PTR [ebp], ecx
  00515	8b 39		 mov	 edi, DWORD PTR [ecx]
  00517	b8 01 00 00 00	 mov	 eax, 1
  0051c	75 02		 jne	 SHORT $L231953
  0051e	33 c0		 xor	 eax, eax
$L231953:
  00520	8d 04 40	 lea	 eax, DWORD PTR [eax+eax*2]
  00523	8d 44 85 04	 lea	 eax, DWORD PTR [ebp+eax*4+4]
  00527	89 45 00	 mov	 DWORD PTR [ebp], eax
  0052a	03 38		 add	 edi, DWORD PTR [eax]

; 772  : 		pObject3D->SetLOD(2);	nTotal += pObject3D->GetMaxObject();

  0052c	3b d3		 cmp	 edx, ebx
  0052e	b8 02 00 00 00	 mov	 eax, 2
  00533	75 02		 jne	 SHORT $L231964
  00535	33 c0		 xor	 eax, eax
$L231964:
  00537	8d 14 40	 lea	 edx, DWORD PTR [eax+eax*2]
  0053a	8d 44 95 04	 lea	 eax, DWORD PTR [ebp+edx*4+4]
  0053e	89 45 00	 mov	 DWORD PTR [ebp], eax
  00541	03 38		 add	 edi, DWORD PTR [eax]

; 773  : 		pObject3D->SetLOD(0);
; 774  : 		
; 775  : 		if( nTotal <= 0 )

  00543	3b fb		 cmp	 edi, ebx
  00545	89 4d 00	 mov	 DWORD PTR [ebp], ecx
  00548	7f 15		 jg	 SHORT $L228612

; 776  : 			Error( "%s LoadElement : nTotal=%d", pObject3D->m_szFileName, nTotal );

  0054a	57		 push	 edi
  0054b	8d 85 c0 00 00
	00		 lea	 eax, DWORD PTR [ebp+192]
  00551	50		 push	 eax
  00552	68 00 00 00 00	 push	 OFFSET FLAT:??_C@_0BL@ENCDCJBI@?$CFs?5LoadElement?5?3?5nTotal?$DN?$CFd?$AA@
  00557	e8 00 00 00 00	 call	 ?Error@@YAPBDPBDZZ	; Error
  0055c	83 c4 0c	 add	 esp, 12			; 0000000cH
$L228612:

; 777  : 
; 778  : 		pElem->m_ppd3d_VB = new LPDIRECT3DVERTEXBUFFER9[ nTotal ];

  0055f	c1 e7 02	 shl	 edi, 2
  00562	57		 push	 edi
  00563	e8 00 00 00 00	 call	 ??_U@YAPAXI@Z		; operator new[]
  00568	8b d0		 mov	 edx, eax
  0056a	89 96 48 01 00
	00		 mov	 DWORD PTR [esi+328], edx

; 779  : 		memset( pElem->m_ppd3d_VB, 0, sizeof(LPDIRECT3DVERTEXBUFFER9) * nTotal );

  00570	8b cf		 mov	 ecx, edi
  00572	8b fa		 mov	 edi, edx
  00574	8b d1		 mov	 edx, ecx
  00576	c1 e9 02	 shr	 ecx, 2
  00579	33 c0		 xor	 eax, eax
  0057b	f3 ab		 rep stosd
  0057d	8b ca		 mov	 ecx, edx
  0057f	83 e1 03	 and	 ecx, 3
  00582	f3 aa		 rep stosb

; 780  : 		LPDIRECT3DVERTEXBUFFER9 *ppd3d_VB = pElem->m_ppd3d_VB;

  00584	8b 86 48 01 00
	00		 mov	 eax, DWORD PTR [esi+328]

; 781  : 		pObject3D->SetLOD(0);		pElem->m_ppd3d_VB1 = ppd3d_VB;		ppd3d_VB += pObject3D->GetMaxObject();

  0058a	8d 4d 04	 lea	 ecx, DWORD PTR [ebp+4]
  0058d	89 4d 00	 mov	 DWORD PTR [ebp], ecx
  00590	89 86 4c 01 00
	00		 mov	 DWORD PTR [esi+332], eax
  00596	8b 55 00	 mov	 edx, DWORD PTR [ebp]
  00599	8b 12		 mov	 edx, DWORD PTR [edx]

; 782  : 		pObject3D->SetLOD(1);		pElem->m_ppd3d_VB2 = ppd3d_VB;		ppd3d_VB += pObject3D->GetMaxObject();

  0059b	8b bd b4 00 00
	00		 mov	 edi, DWORD PTR [ebp+180]
  005a1	83 c4 04	 add	 esp, 4
  005a4	3b fb		 cmp	 edi, ebx
  005a6	8d 14 90	 lea	 edx, DWORD PTR [eax+edx*4]
  005a9	b8 01 00 00 00	 mov	 eax, 1
  005ae	75 02		 jne	 SHORT $L231992
  005b0	33 c0		 xor	 eax, eax
$L231992:
  005b2	8d 04 40	 lea	 eax, DWORD PTR [eax+eax*2]
  005b5	8d 44 85 04	 lea	 eax, DWORD PTR [ebp+eax*4+4]
  005b9	89 45 00	 mov	 DWORD PTR [ebp], eax
  005bc	89 96 50 01 00
	00		 mov	 DWORD PTR [esi+336], edx
  005c2	8b 45 00	 mov	 eax, DWORD PTR [ebp]
  005c5	8b 00		 mov	 eax, DWORD PTR [eax]
  005c7	8d 04 82	 lea	 eax, DWORD PTR [edx+eax*4]

; 783  : 		pObject3D->SetLOD(2);		pElem->m_ppd3d_VB3 = ppd3d_VB;		

  005ca	89 86 54 01 00
	00		 mov	 DWORD PTR [esi+340], eax

; 784  : 		pObject3D->SetLOD(0);

  005d0	89 4d 00	 mov	 DWORD PTR [ebp], ecx

; 785  : 		pElem->m_ppd3d_VBSel = pElem->m_ppd3d_VB1;

  005d3	8b 8e 4c 01 00
	00		 mov	 ecx, DWORD PTR [esi+332]
  005d9	89 8e 58 01 00
	00		 mov	 DWORD PTR [esi+344], ecx
$L228608:

; 786  : 	}
; 787  : 	
; 788  : 	pObject3D->RestoreDeviceObjects( pElem->m_ppd3d_VB );		//            -_-;;;

  005df	8b 96 48 01 00
	00		 mov	 edx, DWORD PTR [esi+328]
  005e5	6a 01		 push	 1
  005e7	52		 push	 edx
  005e8	8b cd		 mov	 ecx, ebp
  005ea	e8 00 00 00 00	 call	 ?RestoreDeviceObjects@CObject3D@@QAEJPAPAUIDirect3DVertexBuffer9@@W4_D3DPOOL@@@Z ; CObject3D::RestoreDeviceObjects

; 791  : }

  005ef	8b 4c 24 14	 mov	 ecx, DWORD PTR __$EHRec$[esp+32]
  005f3	5e		 pop	 esi
  005f4	5d		 pop	 ebp
  005f5	5f		 pop	 edi
  005f6	b8 01 00 00 00	 mov	 eax, 1
  005fb	5b		 pop	 ebx
  005fc	64 89 0d 00 00
	00 00		 mov	 DWORD PTR fs:__except_list, ecx
  00603	83 c4 10	 add	 esp, 16			; 00000010H
  00606	c2 08 00	 ret	 8
_TEXT	ENDS
;	COMDAT text$x
text$x	SEGMENT
$L231824:
  00000	8d 4d 04	 lea	 ecx, DWORD PTR $T231820[ebp-4]
  00003	e9 00 00 00 00	 jmp	 ??1?$CStringT@DV?$StrTraitMFC@DV?$ChTraitsCRT@D@ATL@@@@@ATL@@QAE@XZ ; ATL::CStringT<char,StrTraitMFC<char,ATL::ChTraitsCRT<char> > >::~CStringT<char,StrTraitMFC<char,ATL::ChTraitsCRT<char> > >
$L231825:
  00008	8d 4d 08	 lea	 ecx, DWORD PTR $T231822[ebp-4]
  0000b	e9 00 00 00 00	 jmp	 ??1?$CStringT@DV?$StrTraitMFC@DV?$ChTraitsCRT@D@ATL@@@@@ATL@@QAE@XZ ; ATL::CStringT<char,StrTraitMFC<char,ATL::ChTraitsCRT<char> > >::~CStringT<char,StrTraitMFC<char,ATL::ChTraitsCRT<char> > >
__ehhandler$?LoadElement@CModelObject@@QAEHPBDH@Z:
  00010	b8 00 00 00 00	 mov	 eax, OFFSET FLAT:$T232014
  00015	e9 00 00 00 00	 jmp	 ___CxxFrameHandler
text$x	ENDS
?LoadElement@CModelObject@@QAEHPBDH@Z ENDP		; CModelObject::LoadElement
; Function compile flags: /Ogty
; File c:\documents and settings\test\mes documents\source\virtuos_v17\build\program\_common\modelobject.h
;	COMDAT ?LoadModel@CModelObject@@UAEHPBD@Z
_TEXT	SEGMENT
_szFileName$ = 8					; size = 4
?LoadModel@CModelObject@@UAEHPBD@Z PROC NEAR		; CModelObject::LoadModel, COMDAT
; _this$ = ecx

; 412  : 	int LoadModel( LPCTSTR szFileName ) { return LoadElement( szFileName, 0 ); }

  00000	8b 44 24 04	 mov	 eax, DWORD PTR _szFileName$[esp-4]
  00004	6a 00		 push	 0
  00006	50		 push	 eax
  00007	e8 00 00 00 00	 call	 ?LoadElement@CModelObject@@QAEHPBDH@Z ; CModelObject::LoadElement
  0000c	c2 04 00	 ret	 4
?LoadModel@CModelObject@@UAEHPBD@Z ENDP			; CModelObject::LoadModel
_TEXT	ENDS
PUBLIC	??0?$CStringT@DV?$StrTraitMFC@DV?$ChTraitsCRT@D@ATL@@@@@ATL@@QAE@ABV01@@Z ; ATL::CStringT<char,StrTraitMFC<char,ATL::ChTraitsCRT<char> > >::CStringT<char,StrTraitMFC<char,ATL::ChTraitsCRT<char> > >
; Function compile flags: /Ogty
; File c:\program files\microsoft visual studio .net 2003\vc7\atlmfc\include\cstringt.h
;	COMDAT ??0?$CStringT@DV?$StrTraitMFC@DV?$ChTraitsCRT@D@ATL@@@@@ATL@@QAE@ABV01@@Z
_TEXT	SEGMENT
_strSrc$ = 8						; size = 4
??0?$CStringT@DV?$StrTraitMFC@DV?$ChTraitsCRT@D@ATL@@@@@ATL@@QAE@ABV01@@Z PROC NEAR ; ATL::CStringT<char,StrTraitMFC<char,ATL::ChTraitsCRT<char> > >::CStringT<char,StrTraitMFC<char,ATL::ChTraitsCRT<char> > >, COMDAT
; _this$ = ecx

; 814  : 	{

  00000	8b 44 24 04	 mov	 eax, DWORD PTR _strSrc$[esp-4]
  00004	8b 00		 mov	 eax, DWORD PTR [eax]
  00006	56		 push	 esi
  00007	83 e8 10	 sub	 eax, 16			; 00000010H
  0000a	50		 push	 eax
  0000b	8b f1		 mov	 esi, ecx
  0000d	e8 00 00 00 00	 call	 ?CloneData@?$CSimpleStringT@D$0A@@ATL@@CAPAUCStringData@2@PAU32@@Z ; ATL::CSimpleStringT<char,0>::CloneData
  00012	83 c0 10	 add	 eax, 16			; 00000010H
  00015	89 06		 mov	 DWORD PTR [esi], eax
  00017	83 c4 04	 add	 esp, 4

; 815  : 	}

  0001a	8b c6		 mov	 eax, esi
  0001c	5e		 pop	 esi
  0001d	c2 04 00	 ret	 4
??0?$CStringT@DV?$StrTraitMFC@DV?$ChTraitsCRT@D@ATL@@@@@ATL@@QAE@ABV01@@Z ENDP ; ATL::CStringT<char,StrTraitMFC<char,ATL::ChTraitsCRT<char> > >::CStringT<char,StrTraitMFC<char,ATL::ChTraitsCRT<char> > >
_TEXT	ENDS
PUBLIC	?GetBuffer@?$CSimpleStringT@D$0A@@ATL@@QAEPADH@Z ; ATL::CSimpleStringT<char,0>::GetBuffer
; Function compile flags: /Ogty
; File c:\program files\microsoft visual studio .net 2003\vc7\atlmfc\include\atlsimpstr.h
;	COMDAT ?GetBuffer@?$CSimpleStringT@D$0A@@ATL@@QAEPADH@Z
_TEXT	SEGMENT
_nMinBufferLength$ = 8					; size = 4
?GetBuffer@?$CSimpleStringT@D$0A@@ATL@@QAEPADH@Z PROC NEAR ; ATL::CSimpleStringT<char,0>::GetBuffer, COMDAT
; _this$ = ecx

; 489  : 	{

  00000	56		 push	 esi
  00001	8b f1		 mov	 esi, ecx

; 490  : 		return( PrepareWrite( nMinBufferLength ) );

  00003	8b 06		 mov	 eax, DWORD PTR [esi]
  00005	8b 50 fc	 mov	 edx, DWORD PTR [eax-4]
  00008	83 e8 10	 sub	 eax, 16			; 00000010H
  0000b	b9 01 00 00 00	 mov	 ecx, 1
  00010	2b ca		 sub	 ecx, edx
  00012	8b 50 08	 mov	 edx, DWORD PTR [eax+8]
  00015	8b 44 24 08	 mov	 eax, DWORD PTR _nMinBufferLength$[esp]
  00019	2b d0		 sub	 edx, eax
  0001b	0b ca		 or	 ecx, edx
  0001d	7d 08		 jge	 SHORT $L232076
  0001f	50		 push	 eax
  00020	8b ce		 mov	 ecx, esi
  00022	e8 00 00 00 00	 call	 ?PrepareWrite2@?$CSimpleStringT@D$0A@@ATL@@AAEXH@Z ; ATL::CSimpleStringT<char,0>::PrepareWrite2
$L232076:
  00027	8b 06		 mov	 eax, DWORD PTR [esi]
  00029	5e		 pop	 esi

; 491  : 	}

  0002a	c2 04 00	 ret	 4
?GetBuffer@?$CSimpleStringT@D$0A@@ATL@@QAEPADH@Z ENDP	; ATL::CSimpleStringT<char,0>::GetBuffer
_TEXT	ENDS
PUBLIC	??1CModelObject@@UAE@XZ				; CModelObject::~CModelObject
;	COMDAT xdata$x
; File c:\documents and settings\test\mes documents\source\virtuos_v17\build\program\_common\modelobject.cpp
xdata$x	SEGMENT
$T232084 DD	0ffffffffH
	DD	FLAT:$L232080
$T232082 DD	019930520H
	DD	01H
	DD	FLAT:$T232084
	DD	2 DUP(00H)
	DD	2 DUP(00H)
; Function compile flags: /Ogty
xdata$x	ENDS
;	COMDAT ??1CModelObject@@UAE@XZ
_TEXT	SEGMENT
_this$ = -16						; size = 4
__$EHRec$ = -12						; size = 12
??1CModelObject@@UAE@XZ PROC NEAR			; CModelObject::~CModelObject, COMDAT
; _this$ = ecx

; 51   : {

  00000	6a ff		 push	 -1
  00002	68 00 00 00 00	 push	 __ehhandler$??1CModelObject@@UAE@XZ
  00007	64 a1 00 00 00
	00		 mov	 eax, DWORD PTR fs:__except_list
  0000d	50		 push	 eax
  0000e	64 89 25 00 00
	00 00		 mov	 DWORD PTR fs:__except_list, esp
  00015	51		 push	 ecx
  00016	56		 push	 esi
  00017	8b f1		 mov	 esi, ecx
  00019	89 74 24 04	 mov	 DWORD PTR _this$[esp+20], esi
  0001d	c7 06 00 00 00
	00		 mov	 DWORD PTR [esi], OFFSET FLAT:??_7CModelObject@@6B@
  00023	c7 44 24 10 00
	00 00 00	 mov	 DWORD PTR __$EHRec$[esp+28], 0

; 52   : 	Destroy();

  0002b	e8 00 00 00 00	 call	 ?Destroy@CModelObject@@AAEXXZ ; CModelObject::Destroy

; 53   : }

  00030	8b ce		 mov	 ecx, esi
  00032	c7 44 24 10 ff
	ff ff ff	 mov	 DWORD PTR __$EHRec$[esp+28], -1
  0003a	e8 00 00 00 00	 call	 ??1CModel@@UAE@XZ	; CModel::~CModel
  0003f	8b 4c 24 08	 mov	 ecx, DWORD PTR __$EHRec$[esp+20]
  00043	5e		 pop	 esi
  00044	64 89 0d 00 00
	00 00		 mov	 DWORD PTR fs:__except_list, ecx
  0004b	83 c4 10	 add	 esp, 16			; 00000010H
  0004e	c3		 ret	 0
_TEXT	ENDS
;	COMDAT text$x
text$x	SEGMENT
$L232080:
  00000	8b 4d f0	 mov	 ecx, DWORD PTR _this$[ebp]
  00003	e9 00 00 00 00	 jmp	 ??1CModel@@UAE@XZ	; CModel::~CModel
__ehhandler$??1CModelObject@@UAE@XZ:
  00008	b8 00 00 00 00	 mov	 eax, OFFSET FLAT:$T232082
  0000d	e9 00 00 00 00	 jmp	 ___CxxFrameHandler
text$x	ENDS
??1CModelObject@@UAE@XZ ENDP				; CModelObject::~CModelObject
PUBLIC	??_C@_0DN@MMEBGEII@CModelObject?3?3MovePart?5?3?5m_Eleme@ ; `string'
PUBLIC	?MovePart@CModelObject@@QAEHHH@Z		; CModelObject::MovePart
;	COMDAT ??_C@_0DN@MMEBGEII@CModelObject?3?3MovePart?5?3?5m_Eleme@
; File c:\documents and settings\test\mes documents\source\virtuos_v17\build\program\_common\modelobject.h
CONST	SEGMENT
??_C@_0DN@MMEBGEII@CModelObject?3?3MovePart?5?3?5m_Eleme@ DB 'CModelObjec'
	DB	't::MovePart : m_Element[%d].m_pObject3D == 0x%08x', 00H ; `string'
; Function compile flags: /Ogty
; File c:\documents and settings\test\mes documents\source\virtuos_v17\build\program\_common\modelobject.cpp
CONST	ENDS
;	COMDAT ?MovePart@CModelObject@@QAEHHH@Z
_TEXT	SEGMENT
_nDstPart$ = 8						; size = 4
_nSrcPart$ = 12						; size = 4
?MovePart@CModelObject@@QAEHHH@Z PROC NEAR		; CModelObject::MovePart, COMDAT
; _this$ = ecx

; 617  : {

  00000	53		 push	 ebx
  00001	55		 push	 ebp

; 618  : 	O3D_ELEMENT* pDestPart = GetParts( nDstPart );

  00002	8b 6c 24 0c	 mov	 ebp, DWORD PTR _nDstPart$[esp+4]
  00006	56		 push	 esi
  00007	8d 91 cc 02 00
	00		 lea	 edx, DWORD PTR [ecx+716]
  0000d	57		 push	 edi
  0000e	33 c0		 xor	 eax, eax
  00010	8b f2		 mov	 esi, edx
$L232094:
  00012	39 2e		 cmp	 DWORD PTR [esi], ebp
  00014	74 45		 je	 SHORT $L232108
  00016	40		 inc	 eax
  00017	81 c6 fc 01 00
	00		 add	 esi, 508		; 000001fcH
  0001d	83 f8 15	 cmp	 eax, 21			; 00000015H
  00020	7c f0		 jl	 SHORT $L232094
  00022	33 ff		 xor	 edi, edi
$L232092:

; 619  : 	O3D_ELEMENT* pSrcPart = GetParts( nSrcPart );

  00024	8b 74 24 18	 mov	 esi, DWORD PTR _nSrcPart$[esp+12]
  00028	33 c0		 xor	 eax, eax
  0002a	8d 9b 00 00 00
	00		 npad	 6
$L232102:
  00030	39 32		 cmp	 DWORD PTR [edx], esi
  00032	74 36		 je	 SHORT $L232109
  00034	40		 inc	 eax
  00035	81 c2 fc 01 00
	00		 add	 edx, 508		; 000001fcH
  0003b	83 f8 15	 cmp	 eax, 21			; 00000015H
  0003e	7c f0		 jl	 SHORT $L232102
  00040	33 db		 xor	 ebx, ebx
$L232100:

; 620  : 
; 621  : 	if( !pDestPart && pSrcPart )

  00042	85 ff		 test	 edi, edi
  00044	75 33		 jne	 SHORT $L232112
  00046	85 db		 test	 ebx, ebx
  00048	74 69		 je	 SHORT $L228552

; 622  : 	{
; 623  : 		LoadElement( pSrcPart->m_pObject3D->m_szFileName, nDstPart );

  0004a	8b 43 04	 mov	 eax, DWORD PTR [ebx+4]
  0004d	55		 push	 ebp
  0004e	05 c0 00 00 00	 add	 eax, 192		; 000000c0H
  00053	50		 push	 eax
  00054	e8 00 00 00 00	 call	 ?LoadElement@CModelObject@@QAEHPBDH@Z ; CModelObject::LoadElement

; 624  : 		memset( pSrcPart, 0, sizeof(O3D_ELEMENT) );		//  .	
; 625  : 		return 1;

  00059	eb 41		 jmp	 SHORT $L232113
$L232108:

; 618  : 	O3D_ELEMENT* pDestPart = GetParts( nDstPart );

  0005b	69 c0 fc 01 00
	00		 imul	 eax, 508		; 000001fcH
  00061	8d bc 08 d4 00
	00 00		 lea	 edi, DWORD PTR [eax+ecx+212]
  00068	eb ba		 jmp	 SHORT $L232092
$L232109:

; 619  : 	O3D_ELEMENT* pSrcPart = GetParts( nSrcPart );

  0006a	69 c0 fc 01 00
	00		 imul	 eax, 508		; 000001fcH
  00070	8d 9c 08 d4 00
	00 00		 lea	 ebx, DWORD PTR [eax+ecx+212]
  00077	eb c9		 jmp	 SHORT $L232100
$L232112:

; 626  : 	}
; 627  : 
; 628  : 	if( !pDestPart || !pSrcPart )

  00079	85 db		 test	 ebx, ebx
  0007b	74 36		 je	 SHORT $L228552

; 630  : 
; 631  : 	if( pDestPart->m_pObject3D )

  0007d	8b 47 04	 mov	 eax, DWORD PTR [edi+4]
  00080	85 c0		 test	 eax, eax
  00082	74 0f		 je	 SHORT $L228553

; 632  : 		Error( "CModelObject::MovePart : m_Element[%d].m_pObject3D == 0x%08x", nDstPart, (int)pDestPart->m_pObject3D );

  00084	50		 push	 eax
  00085	55		 push	 ebp
  00086	68 00 00 00 00	 push	 OFFSET FLAT:??_C@_0DN@MMEBGEII@CModelObject?3?3MovePart?5?3?5m_Eleme@
  0008b	e8 00 00 00 00	 call	 ?Error@@YAPBDPBDZZ	; Error
  00090	83 c4 0c	 add	 esp, 12			; 0000000cH
$L228553:

; 633  : 	
; 634  : 	memcpy( pDestPart, pSrcPart, sizeof(O3D_ELEMENT) );	// 

  00093	b9 7f 00 00 00	 mov	 ecx, 127		; 0000007fH
  00098	8b f3		 mov	 esi, ebx
  0009a	f3 a5		 rep movsd
$L232113:

; 635  : 	memset( pSrcPart, 0, sizeof(O3D_ELEMENT) );		//  .	

  0009c	33 c0		 xor	 eax, eax
  0009e	8b fb		 mov	 edi, ebx
  000a0	b9 7f 00 00 00	 mov	 ecx, 127		; 0000007fH
  000a5	f3 ab		 rep stosd
  000a7	5f		 pop	 edi
  000a8	5e		 pop	 esi
  000a9	5d		 pop	 ebp

; 636  : 	return 1;

  000aa	b8 01 00 00 00	 mov	 eax, 1
  000af	5b		 pop	 ebx

; 637  : }

  000b0	c2 08 00	 ret	 8
$L228552:
  000b3	5f		 pop	 edi
  000b4	5e		 pop	 esi
  000b5	5d		 pop	 ebp

; 629  : 		return 0;

  000b6	33 c0		 xor	 eax, eax
  000b8	5b		 pop	 ebx

; 637  : }

  000b9	c2 08 00	 ret	 8
?MovePart@CModelObject@@QAEHHH@Z ENDP			; CModelObject::MovePart
_TEXT	ENDS
PUBLIC	?FormatV@?$CStringT@DV?$StrTraitMFC@DV?$ChTraitsCRT@D@ATL@@@@@ATL@@QAEXPBDPAD@Z ; ATL::CStringT<char,StrTraitMFC<char,ATL::ChTraitsCRT<char> > >::FormatV
; Function compile flags: /Ogty
; File c:\program files\microsoft visual studio .net 2003\vc7\atlmfc\include\cstringt.h
;	COMDAT ?FormatV@?$CStringT@DV?$StrTraitMFC@DV?$ChTraitsCRT@D@ATL@@@@@ATL@@QAEXPBDPAD@Z
_TEXT	SEGMENT
_pszFormat$ = 8						; size = 4
_args$ = 12						; size = 4
?FormatV@?$CStringT@DV?$StrTraitMFC@DV?$ChTraitsCRT@D@ATL@@@@@ATL@@QAEXPBDPAD@Z PROC NEAR ; ATL::CStringT<char,StrTraitMFC<char,ATL::ChTraitsCRT<char> > >::FormatV, COMDAT
; _this$ = ecx

; 1855 : 	{

  00000	53		 push	 ebx

; 1856 : 		ATLASSERT( AtlIsValidString( pszFormat ) );
; 1857 : 		if(pszFormat == NULL)

  00001	8b 5c 24 08	 mov	 ebx, DWORD PTR _pszFormat$[esp]
  00005	85 db		 test	 ebx, ebx
  00007	57		 push	 edi
  00008	8b f9		 mov	 edi, ecx
  0000a	75 0a		 jne	 SHORT $L229020

; 1858 : 			AtlThrow(E_INVALIDARG);

  0000c	68 57 00 07 80	 push	 -2147024809		; 80070057H
  00011	e8 00 00 00 00	 call	 ?AtlThrow@ATL@@YGXJ@Z	; ATL::AtlThrow
$L232177:
$L229020:
  00016	55		 push	 ebp

; 1859 : 
; 1860 : 		int nLength = StringTraits::GetFormattedLength( pszFormat, args );

  00017	8b 6c 24 14	 mov	 ebp, DWORD PTR _args$[esp+8]
  0001b	56		 push	 esi
  0001c	55		 push	 ebp
  0001d	53		 push	 ebx
  0001e	e8 00 00 00 00	 call	 __vscprintf
  00023	8b f0		 mov	 esi, eax

; 1861 : 		PXSTR pszBuffer = GetBuffer( nLength );

  00025	8b 07		 mov	 eax, DWORD PTR [edi]
  00027	8b 50 fc	 mov	 edx, DWORD PTR [eax-4]
  0002a	83 e8 10	 sub	 eax, 16			; 00000010H
  0002d	b9 01 00 00 00	 mov	 ecx, 1
  00032	2b ca		 sub	 ecx, edx
  00034	8b 50 08	 mov	 edx, DWORD PTR [eax+8]
  00037	2b d6		 sub	 edx, esi
  00039	83 c4 08	 add	 esp, 8
  0003c	0b ca		 or	 ecx, edx
  0003e	7d 08		 jge	 SHORT $L232143
  00040	56		 push	 esi
  00041	8b cf		 mov	 ecx, edi
  00043	e8 00 00 00 00	 call	 ?PrepareWrite2@?$CSimpleStringT@D$0A@@ATL@@AAEXH@Z ; ATL::CSimpleStringT<char,0>::PrepareWrite2
$L232143:

; 1862 : 		StringTraits::Format( pszBuffer, pszFormat, args );

  00048	8b 07		 mov	 eax, DWORD PTR [edi]
  0004a	55		 push	 ebp
  0004b	53		 push	 ebx
  0004c	50		 push	 eax
  0004d	e8 00 00 00 00	 call	 _vsprintf
  00052	83 c4 0c	 add	 esp, 12			; 0000000cH

; 1863 : 		ReleaseBufferSetLength( nLength );

  00055	85 f6		 test	 esi, esi
  00057	7c 17		 jl	 SHORT $L232172
  00059	8b 07		 mov	 eax, DWORD PTR [edi]
  0005b	3b 70 f8	 cmp	 esi, DWORD PTR [eax-8]
  0005e	7f 10		 jg	 SHORT $L232172
  00060	89 70 f4	 mov	 DWORD PTR [eax-12], esi
  00063	8b 0f		 mov	 ecx, DWORD PTR [edi]
  00065	c6 04 0e 00	 mov	 BYTE PTR [esi+ecx], 0
  00069	5e		 pop	 esi
  0006a	5d		 pop	 ebp
  0006b	5f		 pop	 edi
  0006c	5b		 pop	 ebx

; 1864 : 	}

  0006d	c2 08 00	 ret	 8
$L232172:
  00070	68 57 00 07 80	 push	 -2147024809		; 80070057H
  00075	e8 00 00 00 00	 call	 ?AtlThrow@ATL@@YGXJ@Z	; ATL::AtlThrow
$L232178:
$L232176:
  0007a	cc		 int	 3
?FormatV@?$CStringT@DV?$StrTraitMFC@DV?$ChTraitsCRT@D@ATL@@@@@ATL@@QAEXPBDPAD@Z ENDP ; ATL::CStringT<char,StrTraitMFC<char,ATL::ChTraitsCRT<char> > >::FormatV
; Function compile flags: /Ogty
_TEXT	ENDS
;	COMDAT ??_GCModelObject@@UAEPAXI@Z
_TEXT	SEGMENT
___flags$ = 8						; size = 4
??_GCModelObject@@UAEPAXI@Z PROC NEAR			; CModelObject::`scalar deleting destructor', COMDAT
; _this$ = ecx
  00000	56		 push	 esi
  00001	8b f1		 mov	 esi, ecx
  00003	e8 00 00 00 00	 call	 ??1CModelObject@@UAE@XZ	; CModelObject::~CModelObject
  00008	f6 44 24 08 01	 test	 BYTE PTR ___flags$[esp], 1
  0000d	74 09		 je	 SHORT $L232182
  0000f	56		 push	 esi
  00010	e8 00 00 00 00	 call	 ??3@YAXPAX@Z		; operator delete
  00015	83 c4 04	 add	 esp, 4
$L232182:
  00018	8b c6		 mov	 eax, esi
  0001a	5e		 pop	 esi
  0001b	c2 04 00	 ret	 4
??_GCModelObject@@UAEPAXI@Z ENDP			; CModelObject::`scalar deleting destructor'
_TEXT	ENDS
PUBLIC	?Format@?$CStringT@DV?$StrTraitMFC@DV?$ChTraitsCRT@D@ATL@@@@@ATL@@QAAXPBDZZ ; ATL::CStringT<char,StrTraitMFC<char,ATL::ChTraitsCRT<char> > >::Format
; Function compile flags: /Ogty
;	COMDAT ?Format@?$CStringT@DV?$StrTraitMFC@DV?$ChTraitsCRT@D@ATL@@@@@ATL@@QAAXPBDZZ
_TEXT	SEGMENT
_this$ = 8						; size = 4
_pszFormat$ = 12					; size = 4
?Format@?$CStringT@DV?$StrTraitMFC@DV?$ChTraitsCRT@D@ATL@@@@@ATL@@QAAXPBDZZ PROC NEAR ; ATL::CStringT<char,StrTraitMFC<char,ATL::ChTraitsCRT<char> > >::Format, COMDAT

; 1796 : 		ATLASSERT( AtlIsValidString( pszFormat ) );
; 1797 : 		
; 1798 : 		va_list argList;
; 1799 : 		va_start( argList, pszFormat );
; 1800 : 		FormatV( pszFormat, argList );

  00000	8b 4c 24 08	 mov	 ecx, DWORD PTR _pszFormat$[esp-4]
  00004	8d 44 24 0c	 lea	 eax, DWORD PTR _pszFormat$[esp]
  00008	50		 push	 eax
  00009	51		 push	 ecx
  0000a	8b 4c 24 0c	 mov	 ecx, DWORD PTR _this$[esp+4]
  0000e	e8 00 00 00 00	 call	 ?FormatV@?$CStringT@DV?$StrTraitMFC@DV?$ChTraitsCRT@D@ATL@@@@@ATL@@QAEXPBDPAD@Z ; ATL::CStringT<char,StrTraitMFC<char,ATL::ChTraitsCRT<char> > >::FormatV

; 1801 : 		va_end( argList );
; 1802 : 	}

  00013	c3		 ret	 0
?Format@?$CStringT@DV?$StrTraitMFC@DV?$ChTraitsCRT@D@ATL@@@@@ATL@@QAAXPBDZZ ENDP ; ATL::CStringT<char,StrTraitMFC<char,ATL::ChTraitsCRT<char> > >::Format
_TEXT	ENDS
PUBLIC	??_C@_0N@BBDKLDAA@?$CFs_?$CFs_?$CFs?4ani?$AA@	; `string'
PUBLIC	?GetMotionFileName@CModelObject@@QBE?AV?$CStringT@DV?$StrTraitMFC@DV?$ChTraitsCRT@D@ATL@@@@@ATL@@ABV23@@Z ; CModelObject::GetMotionFileName
;	COMDAT xdata$x
; File c:\program files\microsoft visual studio .net 2003\vc7\atlmfc\include\atlsimpstr.h
xdata$x	SEGMENT
$T232357 DD	0ffffffffH
	DD	FLAT:$L232189
$T232352 DD	019930520H
	DD	01H
	DD	FLAT:$T232357
	DD	2 DUP(00H)
	DD	2 DUP(00H)
xdata$x	ENDS
;	COMDAT ?s_szRoot@?1??GetMotionFileName@CModelObject@@QBE?AV?$CStringT@DV?$StrTraitMFC@DV?$ChTraitsCRT@D@ATL@@@@@ATL@@ABV34@@Z@4PAY0CA@DA
_DATA	SEGMENT
?s_szRoot@?1??GetMotionFileName@CModelObject@@QBE?AV?$CStringT@DV?$StrTraitMFC@DV?$ChTraitsCRT@D@ATL@@@@@ATL@@ABV34@@Z@4PAY0CA@DA DB 'o'
	DB	'bj', 00H					; `CModelObject::GetMotionFileName'::`2'::s_szRoot
	ORG $+28
	DB	'ani', 00H
	ORG $+28
	DB	'ctrl', 00H
	ORG $+27
	DB	'sfx', 00H
	ORG $+28
	DB	'item', 00H
	ORG $+27
	DB	'mvr', 00H
	ORG $+28
	DB	'region', 00H
	ORG $+25
	DB	'obj', 00H
	ORG $+28
	DB	'path', 00H
	ORG $+27
_DATA	ENDS
;	COMDAT ??_C@_0N@BBDKLDAA@?$CFs_?$CFs_?$CFs?4ani?$AA@
CONST	SEGMENT
??_C@_0N@BBDKLDAA@?$CFs_?$CFs_?$CFs?4ani?$AA@ DB '%s_%s_%s.ani', 00H ; `string'
; Function compile flags: /Ogty
; File c:\documents and settings\test\mes documents\source\virtuos_v17\build\program\_common\modelobject.cpp
CONST	ENDS
;	COMDAT ?GetMotionFileName@CModelObject@@QBE?AV?$CStringT@DV?$StrTraitMFC@DV?$ChTraitsCRT@D@ATL@@@@@ATL@@ABV23@@Z
_TEXT	SEGMENT
$T232191 = -16						; size = 4
_strBoneFileName$ = -16					; size = 4
__$EHRec$ = -12						; size = 12
___$ReturnUdt$ = 8					; size = 4
_rstrMotion$ = 12					; size = 4
?GetMotionFileName@CModelObject@@QBE?AV?$CStringT@DV?$StrTraitMFC@DV?$ChTraitsCRT@D@ATL@@@@@ATL@@ABV23@@Z PROC NEAR ; CModelObject::GetMotionFileName, COMDAT
; _this$ = ecx

; 385  : {

  00000	6a ff		 push	 -1
  00002	68 00 00 00 00	 push	 __ehhandler$?GetMotionFileName@CModelObject@@QBE?AV?$CStringT@DV?$StrTraitMFC@DV?$ChTraitsCRT@D@ATL@@@@@ATL@@ABV23@@Z
  00007	64 a1 00 00 00
	00		 mov	 eax, DWORD PTR fs:__except_list
  0000d	50		 push	 eax
  0000e	64 89 25 00 00
	00 00		 mov	 DWORD PTR fs:__except_list, esp
  00015	51		 push	 ecx
  00016	56		 push	 esi
  00017	57		 push	 edi
  00018	33 ff		 xor	 edi, edi
  0001a	8b f1		 mov	 esi, ecx
  0001c	89 7c 24 08	 mov	 DWORD PTR $T232191[esp+24], edi

; 386  : 	static TCHAR s_szRoot[ MAX_OBJTYPE ][32] = { "obj", "ani", "ctrl", "sfx", "item", "mvr", "region", "obj", "path" };
; 387  : 
; 388  : 	CString strBoneFileName;

  00020	e8 00 00 00 00	 call	 ?AfxGetStringManager@@YGPAUIAtlStringMgr@ATL@@XZ ; AfxGetStringManager
  00025	8b 10		 mov	 edx, DWORD PTR [eax]
  00027	8b c8		 mov	 ecx, eax
  00029	ff 52 0c	 call	 DWORD PTR [edx+12]
  0002c	83 c0 10	 add	 eax, 16			; 00000010H
  0002f	89 44 24 08	 mov	 DWORD PTR _strBoneFileName$[esp+24], eax

; 389  : 	if( m_pBone == NULL || m_pModelElem == NULL )

  00033	39 be 84 2a 00
	00		 cmp	 DWORD PTR [esi+10884], edi
  00039	89 7c 24 14	 mov	 DWORD PTR __$EHRec$[esp+32], edi
  0003d	74 44		 je	 SHORT $L228399
  0003f	8b 8e 90 00 00
	00		 mov	 ecx, DWORD PTR [esi+144]
  00045	3b cf		 cmp	 ecx, edi
  00047	74 3a		 je	 SHORT $L228399

; 391  : 
; 392  : 	strBoneFileName.Format( _T("%s_%s_%s.ani"), s_szRoot[ m_pModelElem->m_dwType ], m_pModelElem->m_szName, rstrMotion );

  00049	8b c1		 mov	 eax, ecx
  0004b	8b 4c 24 20	 mov	 ecx, DWORD PTR _rstrMotion$[esp+20]
  0004f	8b 11		 mov	 edx, DWORD PTR [ecx]
  00051	52		 push	 edx
  00052	8b 10		 mov	 edx, DWORD PTR [eax]
  00054	8d 48 08	 lea	 ecx, DWORD PTR [eax+8]
  00057	51		 push	 ecx
  00058	c1 e2 05	 shl	 edx, 5
  0005b	81 c2 00 00 00
	00		 add	 edx, OFFSET FLAT:?s_szRoot@?1??GetMotionFileName@CModelObject@@QBE?AV?$CStringT@DV?$StrTraitMFC@DV?$ChTraitsCRT@D@ATL@@@@@ATL@@ABV34@@Z@4PAY0CA@DA
  00061	52		 push	 edx
  00062	8d 44 24 14	 lea	 eax, DWORD PTR _strBoneFileName$[esp+36]
  00066	68 00 00 00 00	 push	 OFFSET FLAT:??_C@_0N@BBDKLDAA@?$CFs_?$CFs_?$CFs?4ani?$AA@
  0006b	50		 push	 eax
  0006c	e8 00 00 00 00	 call	 ?Format@?$CStringT@DV?$StrTraitMFC@DV?$ChTraitsCRT@D@ATL@@@@@ATL@@QAAXPBDZZ ; ATL::CStringT<char,StrTraitMFC<char,ATL::ChTraitsCRT<char> > >::Format

; 393  : 	return strBoneFileName;

  00071	8b 74 24 1c	 mov	 esi, DWORD PTR _strBoneFileName$[esp+44]
  00075	83 c6 f0	 add	 esi, -16		; fffffff0H
  00078	56		 push	 esi
  00079	e8 00 00 00 00	 call	 ?CloneData@?$CSimpleStringT@D$0A@@ATL@@CAPAUCStringData@2@PAU32@@Z ; ATL::CSimpleStringT<char,0>::CloneData
  0007e	83 c4 18	 add	 esp, 24			; 00000018H
  00081	eb 0c		 jmp	 SHORT $L232356
$L228399:

; 390  : 		return strBoneFileName;

  00083	8d 70 f0	 lea	 esi, DWORD PTR [eax-16]
  00086	56		 push	 esi
  00087	e8 00 00 00 00	 call	 ?CloneData@?$CSimpleStringT@D$0A@@ATL@@CAPAUCStringData@2@PAU32@@Z ; ATL::CSimpleStringT<char,0>::CloneData
  0008c	83 c4 04	 add	 esp, 4
$L232356:
  0008f	8b 7c 24 1c	 mov	 edi, DWORD PTR ___$ReturnUdt$[esp+20]
  00093	83 c0 10	 add	 eax, 16			; 00000010H
  00096	89 07		 mov	 DWORD PTR [edi], eax
  00098	c7 44 24 14 ff
	ff ff ff	 mov	 DWORD PTR __$EHRec$[esp+32], -1
  000a0	8d 4e 0c	 lea	 ecx, DWORD PTR [esi+12]
  000a3	83 ca ff	 or	 edx, -1
  000a6	f0 0f c1 11	 lock	  xadd	 DWORD PTR [ecx], edx
  000aa	4a		 dec	 edx
  000ab	85 d2		 test	 edx, edx
  000ad	7f 08		 jg	 SHORT $L232287
  000af	8b 0e		 mov	 ecx, DWORD PTR [esi]
  000b1	8b 01		 mov	 eax, DWORD PTR [ecx]
  000b3	56		 push	 esi
  000b4	ff 50 04	 call	 DWORD PTR [eax+4]
$L232287:

; 394  : }

  000b7	8b 4c 24 0c	 mov	 ecx, DWORD PTR __$EHRec$[esp+24]
  000bb	8b c7		 mov	 eax, edi
  000bd	5f		 pop	 edi
  000be	5e		 pop	 esi
  000bf	64 89 0d 00 00
	00 00		 mov	 DWORD PTR fs:__except_list, ecx
  000c6	83 c4 10	 add	 esp, 16			; 00000010H
  000c9	c2 08 00	 ret	 8
_TEXT	ENDS
;	COMDAT text$x
text$x	SEGMENT
$L232189:
  00000	8d 4d f0	 lea	 ecx, DWORD PTR _strBoneFileName$[ebp]
  00003	e9 00 00 00 00	 jmp	 ??1?$CStringT@DV?$StrTraitMFC@DV?$ChTraitsCRT@D@ATL@@@@@ATL@@QAE@XZ ; ATL::CStringT<char,StrTraitMFC<char,ATL::ChTraitsCRT<char> > >::~CStringT<char,StrTraitMFC<char,ATL::ChTraitsCRT<char> > >
__ehhandler$?GetMotionFileName@CModelObject@@QBE?AV?$CStringT@DV?$StrTraitMFC@DV?$ChTraitsCRT@D@ATL@@@@@ATL@@ABV23@@Z:
  00008	b8 00 00 00 00	 mov	 eax, OFFSET FLAT:$T232352
  0000d	e9 00 00 00 00	 jmp	 ___CxxFrameHandler
text$x	ENDS
?GetMotionFileName@CModelObject@@QBE?AV?$CStringT@DV?$StrTraitMFC@DV?$ChTraitsCRT@D@ATL@@@@@ATL@@ABV23@@Z ENDP ; CModelObject::GetMotionFileName
END
