; Listing generated by Microsoft (R) Optimizing Compiler Version 13.10.6030 

	TITLE	\Documents and Settings\test\Mes documents\Source\Virtuos_v17\Build\Program\_Common\MoverItem.cpp
	.386P
include listing.inc
if @Version gt 510
.model FLAT
else
_TEXT	SEGMENT PARA USE32 PUBLIC 'CODE'
_TEXT	ENDS
_DATA	SEGMENT DWORD USE32 PUBLIC 'DATA'
_DATA	ENDS
CONST	SEGMENT DWORD USE32 PUBLIC 'CONST'
CONST	ENDS
_BSS	SEGMENT DWORD USE32 PUBLIC 'BSS'
_BSS	ENDS
$$SYMBOLS	SEGMENT BYTE USE32 'DEBSYM'
$$SYMBOLS	ENDS
$$TYPES	SEGMENT BYTE USE32 'DEBTYP'
$$TYPES	ENDS
_TLS	SEGMENT DWORD USE32 PUBLIC 'TLS'
_TLS	ENDS
;	COMDAT ??_C@_01GAPBHFFA@T?$AA@
CONST	SEGMENT DWORD USE32 PUBLIC 'CONST'
CONST	ENDS
;	COMDAT ??_C@_02DPKJAMEF@?$CFd?$AA@
CONST	SEGMENT DWORD USE32 PUBLIC 'CONST'
CONST	ENDS
;	COMDAT ??_C@_0N@GELFDHNG@CONTAINER?1?10?$AA@
CONST	SEGMENT DWORD USE32 PUBLIC 'CONST'
CONST	ENDS
;	COMDAT ??_C@_0EK@GINEPMCL@template?5?$DMclass?5T?$DO?5BOOL?5CItemCon@
CONST	SEGMENT DWORD USE32 PUBLIC 'CONST'
CONST	ENDS
xdata$x	SEGMENT DWORD USE32 PUBLIC 'CONST'
xdata$x	ENDS
text$AFX_COL1	SEGMENT PARA USE32 PUBLIC ''
text$AFX_COL1	ENDS
;	COMDAT ?SelectMemberClear@__GuildCombatMember@CGuildCombat@@QAEXXZ
_TEXT	SEGMENT PARA USE32 PUBLIC 'CODE'
_TEXT	ENDS
;	COMDAT ??0__MINIGAME_PACKET@@QAE@GHHH@Z
_TEXT	SEGMENT PARA USE32 PUBLIC 'CODE'
_TEXT	ENDS
;	COMDAT ?Serialize@__MINIGAME_PACKET@@UAEXAAVCAr@@@Z
_TEXT	SEGMENT PARA USE32 PUBLIC 'CODE'
_TEXT	ENDS
;	COMDAT ?Serialize@__MINIGAME_EXT_PACKET@@UAEXAAVCAr@@@Z
_TEXT	SEGMENT PARA USE32 PUBLIC 'CODE'
_TEXT	ENDS
;	COMDAT ??0MINIGMAME_PRIZE_LIST@CRainbowRaceMng@@QAE@KHK@Z
_TEXT	SEGMENT PARA USE32 PUBLIC 'CODE'
_TEXT	ENDS
;	COMDAT ?RemovePlayerId2CampusId@CCampusMng@@QAEXK@Z
_TEXT	SEGMENT PARA USE32 PUBLIC 'CODE'
_TEXT	ENDS
;	COMDAT ?GetOther@CVTInfo@@QAEPAVCMover@@XZ
_TEXT	SEGMENT PARA USE32 PUBLIC 'CODE'
_TEXT	ENDS
;	COMDAT ?SetOther@CVTInfo@@QAEXPAVCMover@@@Z
_TEXT	SEGMENT PARA USE32 PUBLIC 'CODE'
_TEXT	ENDS
;	COMDAT ?GetItem@CVTInfo@@QAEPAVCItemBase@@E@Z
_TEXT	SEGMENT PARA USE32 PUBLIC 'CODE'
_TEXT	ENDS
;	COMDAT ?SetItem@CVTInfo@@QAEXEPAVCItemBase@@@Z
_TEXT	SEGMENT PARA USE32 PUBLIC 'CODE'
_TEXT	ENDS
;	COMDAT ?GetTitle@CVTInfo@@QAEPBDXZ
_TEXT	SEGMENT PARA USE32 PUBLIC 'CODE'
_TEXT	ENDS
;	COMDAT ?SetTitle@CVTInfo@@QAEXPBD@Z
_TEXT	SEGMENT PARA USE32 PUBLIC 'CODE'
_TEXT	ENDS
;	COMDAT ?IsVendorOpen@CVTInfo@@QAEHXZ
_TEXT	SEGMENT PARA USE32 PUBLIC 'CODE'
_TEXT	ENDS
;	COMDAT ?Init@CVTInfo@@QAEXPAVCMover@@@Z
_TEXT	SEGMENT PARA USE32 PUBLIC 'CODE'
_TEXT	ENDS
;	COMDAT ?TradeClear@CVTInfo@@QAEXXZ
_TEXT	SEGMENT PARA USE32 PUBLIC 'CODE'
_TEXT	ENDS
;	COMDAT ?TradeSetGold@CVTInfo@@QAEXK@Z
_TEXT	SEGMENT PARA USE32 PUBLIC 'CODE'
_TEXT	ENDS
;	COMDAT ?TradeGetGold@CVTInfo@@QAEHXZ
_TEXT	SEGMENT PARA USE32 PUBLIC 'CODE'
_TEXT	ENDS
;	COMDAT ?TradeSetItem@CVTInfo@@QAEXEEF@Z
_TEXT	SEGMENT PARA USE32 PUBLIC 'CODE'
_TEXT	ENDS
;	COMDAT ?TradeClearItem@CVTInfo@@QAEHE@Z
_TEXT	SEGMENT PARA USE32 PUBLIC 'CODE'
_TEXT	ENDS
;	COMDAT ?TradeConsent@CVTInfo@@QAEHXZ
_TEXT	SEGMENT PARA USE32 PUBLIC 'CODE'
_TEXT	ENDS
;	COMDAT ?TradeSetItem2@CVTInfo@@QAEKEEAAF@Z
_TEXT	SEGMENT PARA USE32 PUBLIC 'CODE'
_TEXT	ENDS
;	COMDAT ?TradeLog@@YAXAAVCAr@@PAVCItemBase@@F@Z
_TEXT	SEGMENT PARA USE32 PUBLIC 'CODE'
_TEXT	ENDS
;	COMDAT ?CheckTradeGold@@YAHPAVCMover@@HH@Z
_TEXT	SEGMENT PARA USE32 PUBLIC 'CODE'
_TEXT	ENDS
;	COMDAT ?TradeLastConfirm@CVTInfo@@QAE?AW4TRADE_CONFIRM_TYPE@@AAVCAr@@@Z
_TEXT	SEGMENT PARA USE32 PUBLIC 'CODE'
_TEXT	ENDS
;	COMDAT ?TradeGetState@CVTInfo@@QAE?AW4TRADE_STATE@@XZ
_TEXT	SEGMENT PARA USE32 PUBLIC 'CODE'
_TEXT	ENDS
;	COMDAT ?TradeSetState@CVTInfo@@QAEXW4TRADE_STATE@@@Z
_TEXT	SEGMENT PARA USE32 PUBLIC 'CODE'
_TEXT	ENDS
;	COMDAT ?VendorClearItem@CVTInfo@@QAEHE@Z
_TEXT	SEGMENT PARA USE32 PUBLIC 'CODE'
_TEXT	ENDS
;	COMDAT ?VendorSetItem@CVTInfo@@QAEXEEFH@Z
_TEXT	SEGMENT PARA USE32 PUBLIC 'CODE'
_TEXT	ENDS
;	COMDAT ?VendorItemNum@CVTInfo@@QAEXEF@Z
_TEXT	SEGMENT PARA USE32 PUBLIC 'CODE'
_TEXT	ENDS
;	COMDAT ?VendorCopyItems@CVTInfo@@QAEXPAPAVCItemBase@@@Z
_TEXT	SEGMENT PARA USE32 PUBLIC 'CODE'
_TEXT	ENDS
;	COMDAT ?VendorClose@CVTInfo@@QAEXH@Z
_TEXT	SEGMENT PARA USE32 PUBLIC 'CODE'
_TEXT	ENDS
;	COMDAT ?VendorIsVendor@CVTInfo@@QAEHXZ
_TEXT	SEGMENT PARA USE32 PUBLIC 'CODE'
_TEXT	ENDS
;	COMDAT ?IsTrading@CVTInfo@@QAEHPAVCItemElem@@@Z
_TEXT	SEGMENT PARA USE32 PUBLIC 'CODE'
_TEXT	ENDS
;	COMDAT ?VendorSellItem@CVTInfo@@QAEHPAVCMover@@EKFAAUVENDOR_SELL_RESULT@@@Z
_TEXT	SEGMENT PARA USE32 PUBLIC 'CODE'
_TEXT	ENDS
;	COMDAT ?empty@?$basic_string@DU?$char_traits@D@std@@V?$allocator@D@2@@std@@QBE_NXZ
_TEXT	SEGMENT PARA USE32 PUBLIC 'CODE'
_TEXT	ENDS
;	COMDAT ?compare@?$basic_string@DU?$char_traits@D@std@@V?$allocator@D@2@@std@@QBEHABV12@@Z
_TEXT	SEGMENT PARA USE32 PUBLIC 'CODE'
_TEXT	ENDS
;	COMDAT ?IsFull@?$CStack@K@@QAEHXZ
_TEXT	SEGMENT PARA USE32 PUBLIC 'CODE'
_TEXT	ENDS
;	COMDAT ??A?$map@KPAVCCtrl@@U?$less@K@std@@V?$allocator@U?$pair@$$CBKPAVCCtrl@@@std@@@3@@std@@QAEAAPAVCCtrl@@ABK@Z
_TEXT	SEGMENT PARA USE32 PUBLIC 'CODE'
_TEXT	ENDS
;	COMDAT ??0?$pair@KPAVCCtrl@@@std@@QAE@ABKABQAVCCtrl@@@Z
_TEXT	SEGMENT PARA USE32 PUBLIC 'CODE'
_TEXT	ENDS
;	COMDAT ?GetSize@?$CItemContainer@VCItemElem@@@@QAEHXZ
_TEXT	SEGMENT PARA USE32 PUBLIC 'CODE'
_TEXT	ENDS
;	COMDAT ?GetMax@?$CItemContainer@VCItemElem@@@@QAEHXZ
_TEXT	SEGMENT PARA USE32 PUBLIC 'CODE'
_TEXT	ENDS
;	COMDAT ?GetCount@?$CItemContainer@VCItemElem@@@@QAEHXZ
_TEXT	SEGMENT PARA USE32 PUBLIC 'CODE'
_TEXT	ENDS
;	COMDAT ??0?$deque@PAUtagACTMSG@@V?$allocator@PAUtagACTMSG@@@std@@@std@@QAE@XZ
_TEXT	SEGMENT PARA USE32 PUBLIC 'CODE'
_TEXT	ENDS
;	COMDAT ??1?$deque@PAUtagACTMSG@@V?$allocator@PAUtagACTMSG@@@std@@@std@@QAE@XZ
_TEXT	SEGMENT PARA USE32 PUBLIC 'CODE'
_TEXT	ENDS
;	COMDAT ?begin@?$deque@PAUtagACTMSG@@V?$allocator@PAUtagACTMSG@@@std@@@std@@QAE?AViterator@12@XZ
_TEXT	SEGMENT PARA USE32 PUBLIC 'CODE'
_TEXT	ENDS
;	COMDAT ?end@?$deque@PAUtagACTMSG@@V?$allocator@PAUtagACTMSG@@@std@@@std@@QAE?AViterator@12@XZ
_TEXT	SEGMENT PARA USE32 PUBLIC 'CODE'
_TEXT	ENDS
;	COMDAT ?empty@?$deque@PAUtagACTMSG@@V?$allocator@PAUtagACTMSG@@@std@@@std@@QBE_NXZ
_TEXT	SEGMENT PARA USE32 PUBLIC 'CODE'
_TEXT	ENDS
;	COMDAT ?clear@?$deque@PAUtagACTMSG@@V?$allocator@PAUtagACTMSG@@@std@@@std@@QAEXXZ
_TEXT	SEGMENT PARA USE32 PUBLIC 'CODE'
_TEXT	ENDS
;	COMDAT ??0?$deque@PAUtagMAGICATKMSG@@V?$allocator@PAUtagMAGICATKMSG@@@std@@@std@@QAE@XZ
_TEXT	SEGMENT PARA USE32 PUBLIC 'CODE'
_TEXT	ENDS
;	COMDAT ??1?$deque@PAUtagMAGICATKMSG@@V?$allocator@PAUtagMAGICATKMSG@@@std@@@std@@QAE@XZ
_TEXT	SEGMENT PARA USE32 PUBLIC 'CODE'
_TEXT	ENDS
;	COMDAT ?begin@?$deque@PAUtagMAGICATKMSG@@V?$allocator@PAUtagMAGICATKMSG@@@std@@@std@@QAE?AViterator@12@XZ
_TEXT	SEGMENT PARA USE32 PUBLIC 'CODE'
_TEXT	ENDS
;	COMDAT ?end@?$deque@PAUtagMAGICATKMSG@@V?$allocator@PAUtagMAGICATKMSG@@@std@@@std@@QAE?AViterator@12@XZ
_TEXT	SEGMENT PARA USE32 PUBLIC 'CODE'
_TEXT	ENDS
;	COMDAT ?empty@?$deque@PAUtagMAGICATKMSG@@V?$allocator@PAUtagMAGICATKMSG@@@std@@@std@@QBE_NXZ
_TEXT	SEGMENT PARA USE32 PUBLIC 'CODE'
_TEXT	ENDS
;	COMDAT ?clear@?$deque@PAUtagMAGICATKMSG@@V?$allocator@PAUtagMAGICATKMSG@@@std@@@std@@QAEXXZ
_TEXT	SEGMENT PARA USE32 PUBLIC 'CODE'
_TEXT	ENDS
;	COMDAT ??Diterator@?$deque@PAUtagACTMSG@@V?$allocator@PAUtagACTMSG@@@std@@@std@@QBEAAPAUtagACTMSG@@XZ
_TEXT	SEGMENT PARA USE32 PUBLIC 'CODE'
_TEXT	ENDS
;	COMDAT ??Eiterator@?$deque@PAUtagACTMSG@@V?$allocator@PAUtagACTMSG@@@std@@@std@@QAEAAV012@XZ
_TEXT	SEGMENT PARA USE32 PUBLIC 'CODE'
_TEXT	ENDS
;	COMDAT ??9const_iterator@?$deque@PAUtagACTMSG@@V?$allocator@PAUtagACTMSG@@@std@@@std@@QBE_NABV012@@Z
_TEXT	SEGMENT PARA USE32 PUBLIC 'CODE'
_TEXT	ENDS
;	COMDAT ??Diterator@?$deque@PAUtagMAGICATKMSG@@V?$allocator@PAUtagMAGICATKMSG@@@std@@@std@@QBEAAPAUtagMAGICATKMSG@@XZ
_TEXT	SEGMENT PARA USE32 PUBLIC 'CODE'
_TEXT	ENDS
;	COMDAT ??Eiterator@?$deque@PAUtagMAGICATKMSG@@V?$allocator@PAUtagMAGICATKMSG@@@std@@@std@@QAEAAV012@XZ
_TEXT	SEGMENT PARA USE32 PUBLIC 'CODE'
_TEXT	ENDS
;	COMDAT ??9const_iterator@?$deque@PAUtagMAGICATKMSG@@V?$allocator@PAUtagMAGICATKMSG@@@std@@@std@@QBE_NABV012@@Z
_TEXT	SEGMENT PARA USE32 PUBLIC 'CODE'
_TEXT	ENDS
;	COMDAT ?erase@?$_Tree@V?$_Tmap_traits@KU_Friend@@U?$less@K@std@@V?$allocator@U?$pair@$$CBKU_Friend@@@std@@@3@$0A@@std@@@std@@QAEIABK@Z
_TEXT	SEGMENT PARA USE32 PUBLIC 'CODE'
_TEXT	ENDS
;	COMDAT ?size@?$_Tree@V?$_Tmap_traits@KPAVCGuildMember@@U?$less@K@std@@V?$allocator@U?$pair@$$CBKPAVCGuildMember@@@std@@@3@$0A@@std@@@std@@QBEIXZ
_TEXT	SEGMENT PARA USE32 PUBLIC 'CODE'
_TEXT	ENDS
;	COMDAT ?size@?$_Tree@V?$_Tmap_traits@KPAVCGuild@@U?$less@K@std@@V?$allocator@U?$pair@$$CBKPAVCGuild@@@std@@@3@$0A@@std@@@std@@QBEIXZ
_TEXT	SEGMENT PARA USE32 PUBLIC 'CODE'
_TEXT	ENDS
;	COMDAT ?size@?$vector@PAU__JOINPLAYER@CGuildCombat@@V?$allocator@PAU__JOINPLAYER@CGuildCombat@@@std@@@std@@QBEIXZ
_TEXT	SEGMENT PARA USE32 PUBLIC 'CODE'
_TEXT	ENDS
;	COMDAT ??A?$vector@PAU__JOINPLAYER@CGuildCombat@@V?$allocator@PAU__JOINPLAYER@CGuildCombat@@@std@@@std@@QAEAAPAU__JOINPLAYER@CGuildCombat@@I@Z
_TEXT	SEGMENT PARA USE32 PUBLIC 'CODE'
_TEXT	ENDS
;	COMDAT ?clear@?$vector@PAU__JOINPLAYER@CGuildCombat@@V?$allocator@PAU__JOINPLAYER@CGuildCombat@@@std@@@std@@QAEXXZ
_TEXT	SEGMENT PARA USE32 PUBLIC 'CODE'
_TEXT	ENDS
;	COMDAT ?clear@?$list@PAU__JOINPLAYER@CGuildCombat@@V?$allocator@PAU__JOINPLAYER@CGuildCombat@@@std@@@std@@QAEXXZ
_TEXT	SEGMENT PARA USE32 PUBLIC 'CODE'
_TEXT	ENDS
;	COMDAT ?size@?$_Tree@V?$_Tmap_traits@KPAU_PlayerData@@U?$less@K@std@@V?$allocator@U?$pair@$$CBKPAU_PlayerData@@@std@@@3@$0A@@std@@@std@@QBEIXZ
_TEXT	SEGMENT PARA USE32 PUBLIC 'CODE'
_TEXT	ENDS
;	COMDAT ??0?$vector@U__SECRETROOM_MONSTER@@V?$allocator@U__SECRETROOM_MONSTER@@@std@@@std@@QAE@XZ
_TEXT	SEGMENT PARA USE32 PUBLIC 'CODE'
_TEXT	ENDS
;	COMDAT ??1?$vector@U__SECRETROOM_MONSTER@@V?$allocator@U__SECRETROOM_MONSTER@@@std@@@std@@QAE@XZ
_TEXT	SEGMENT PARA USE32 PUBLIC 'CODE'
_TEXT	ENDS
;	COMDAT ??0?$vector@V?$basic_string@DU?$char_traits@D@std@@V?$allocator@D@2@@std@@V?$allocator@V?$basic_string@DU?$char_traits@D@std@@V?$allocator@D@2@@std@@@2@@std@@QAE@XZ
_TEXT	SEGMENT PARA USE32 PUBLIC 'CODE'
_TEXT	ENDS
;	COMDAT ??1?$vector@V?$basic_string@DU?$char_traits@D@std@@V?$allocator@D@2@@std@@V?$allocator@V?$basic_string@DU?$char_traits@D@std@@V?$allocator@D@2@@std@@@2@@std@@QAE@XZ
_TEXT	SEGMENT PARA USE32 PUBLIC 'CODE'
_TEXT	ENDS
;	COMDAT ?size@?$vector@V?$basic_string@DU?$char_traits@D@std@@V?$allocator@D@2@@std@@V?$allocator@V?$basic_string@DU?$char_traits@D@std@@V?$allocator@D@2@@std@@@2@@std@@QBEIXZ
_TEXT	SEGMENT PARA USE32 PUBLIC 'CODE'
_TEXT	ENDS
;	COMDAT ??A?$vector@V?$basic_string@DU?$char_traits@D@std@@V?$allocator@D@2@@std@@V?$allocator@V?$basic_string@DU?$char_traits@D@std@@V?$allocator@D@2@@std@@@2@@std@@QAEAAV?$basic_string@DU?$char_traits@D@std@@V?$allocator@D@2@@1@I@Z
_TEXT	SEGMENT PARA USE32 PUBLIC 'CODE'
_TEXT	ENDS
;	COMDAT ?push_back@?$vector@V?$basic_string@DU?$char_traits@D@std@@V?$allocator@D@2@@std@@V?$allocator@V?$basic_string@DU?$char_traits@D@std@@V?$allocator@D@2@@std@@@2@@std@@QAEXABV?$basic_string@DU?$char_traits@D@std@@V?$allocator@D@2@@2@@Z
_TEXT	SEGMENT PARA USE32 PUBLIC 'CODE'
_TEXT	ENDS
;	COMDAT ?clear@?$vector@V?$basic_string@DU?$char_traits@D@std@@V?$allocator@D@2@@std@@V?$allocator@V?$basic_string@DU?$char_traits@D@std@@V?$allocator@D@2@@std@@@2@@std@@QAEXXZ
_TEXT	SEGMENT PARA USE32 PUBLIC 'CODE'
_TEXT	ENDS
;	COMDAT ?push_back@?$vector@UMINIGMAME_PRIZE_LIST@CRainbowRaceMng@@V?$allocator@UMINIGMAME_PRIZE_LIST@CRainbowRaceMng@@@std@@@std@@QAEXABUMINIGMAME_PRIZE_LIST@CRainbowRaceMng@@@Z
_TEXT	SEGMENT PARA USE32 PUBLIC 'CODE'
_TEXT	ENDS
;	COMDAT ?size@?$_Tree@V?$_Tmap_traits@KPAVCRainbowRace@@U?$less@K@std@@V?$allocator@U?$pair@$$CBKPAVCRainbowRace@@@std@@@3@$0A@@std@@@std@@QBEIXZ
_TEXT	SEGMENT PARA USE32 PUBLIC 'CODE'
_TEXT	ENDS
;	COMDAT ?size@?$vector@PAVCMiniGameBase@@V?$allocator@PAVCMiniGameBase@@@std@@@std@@QBEIXZ
_TEXT	SEGMENT PARA USE32 PUBLIC 'CODE'
_TEXT	ENDS
;	COMDAT ??A?$vector@PAVCMiniGameBase@@V?$allocator@PAVCMiniGameBase@@@std@@@std@@QAEAAPAVCMiniGameBase@@I@Z
_TEXT	SEGMENT PARA USE32 PUBLIC 'CODE'
_TEXT	ENDS
;	COMDAT ?size@?$vector@UGuildHouse_Furniture_Info@CGuildHouseBase@@V?$allocator@UGuildHouse_Furniture_Info@CGuildHouseBase@@@std@@@std@@QBEIXZ
_TEXT	SEGMENT PARA USE32 PUBLIC 'CODE'
_TEXT	ENDS
;	COMDAT ??A?$vector@UGuildHouse_Furniture_Info@CGuildHouseBase@@V?$allocator@UGuildHouse_Furniture_Info@CGuildHouseBase@@@std@@@std@@QAEAAUGuildHouse_Furniture_Info@CGuildHouseBase@@I@Z
_TEXT	SEGMENT PARA USE32 PUBLIC 'CODE'
_TEXT	ENDS
;	COMDAT ?empty@?$_Tree@V?$_Tmap_traits@KPAVCGuildHouseBase@@U?$less@K@std@@V?$allocator@U?$pair@$$CBKPAVCGuildHouseBase@@@std@@@3@$0A@@std@@@std@@QBE_NXZ
_TEXT	SEGMENT PARA USE32 PUBLIC 'CODE'
_TEXT	ENDS
;	COMDAT ?insert@?$_Tree@V?$_Tmap_traits@KPAVCGuildHouseBase@@U?$less@K@std@@V?$allocator@U?$pair@$$CBKPAVCGuildHouseBase@@@std@@@3@$0A@@std@@@std@@QAE?AU?$pair@Viterator@?$_Tree@V?$_Tmap_traits@KPAVCGuildHouseBase@@U?$less@K@std@@V?$allocator@U?$pair@$$CBKPAVCGuildHouseBase@@@std@@@3@$0A@@std@@@std@@_N@2@ABU?$pair@$$CBKPAVCGuildHouseBase@@@2@@Z
_TEXT	SEGMENT PARA USE32 PUBLIC 'CODE'
_TEXT	ENDS
;	COMDAT ?size@?$_Tree@V?$_Tmap_traits@KPAVCCampusMember@@U?$less@K@std@@V?$allocator@U?$pair@$$CBKPAVCCampusMember@@@std@@@3@$0A@@std@@@std@@QBEIXZ
_TEXT	SEGMENT PARA USE32 PUBLIC 'CODE'
_TEXT	ENDS
;	COMDAT ?empty@?$_Tree@V?$_Tmap_traits@KPAVCCampus@@U?$less@K@std@@V?$allocator@U?$pair@$$CBKPAVCCampus@@@std@@@3@$0A@@std@@@std@@QBE_NXZ
_TEXT	SEGMENT PARA USE32 PUBLIC 'CODE'
_TEXT	ENDS
;	COMDAT ?erase@?$_Tree@V?$_Tmap_traits@KKU?$less@K@std@@V?$allocator@U?$pair@$$CBKK@std@@@2@$0A@@std@@@std@@QAEIABK@Z
_TEXT	SEGMENT PARA USE32 PUBLIC 'CODE'
_TEXT	ENDS
;	COMDAT ?compare@?$basic_string@DU?$char_traits@D@std@@V?$allocator@D@2@@std@@QBEHIIPBDI@Z
_TEXT	SEGMENT PARA USE32 PUBLIC 'CODE'
_TEXT	ENDS
;	COMDAT ??0?$allocator@V?$basic_string@DU?$char_traits@D@std@@V?$allocator@D@2@@std@@@std@@QAE@XZ
_TEXT	SEGMENT PARA USE32 PUBLIC 'CODE'
_TEXT	ENDS
;	COMDAT ?insert@?$_Tree@V?$_Tmap_traits@KPAVCCtrl@@U?$less@K@std@@V?$allocator@U?$pair@$$CBKPAVCCtrl@@@std@@@3@$0A@@std@@@std@@QAE?AViterator@12@V312@ABU?$pair@$$CBKPAVCCtrl@@@2@@Z
_TEXT	SEGMENT PARA USE32 PUBLIC 'CODE'
_TEXT	ENDS
;	COMDAT ??0?$pair@$$CBKPAVCCtrl@@@std@@QAE@ABKABQAVCCtrl@@@Z
_TEXT	SEGMENT PARA USE32 PUBLIC 'CODE'
_TEXT	ENDS
;	COMDAT ?_Tidy@?$deque@PAUtagACTMSG@@V?$allocator@PAUtagACTMSG@@@std@@@std@@IAEXXZ
_TEXT	SEGMENT PARA USE32 PUBLIC 'CODE'
_TEXT	ENDS
;	COMDAT ??0?$_Deque_val@PAUtagACTMSG@@V?$allocator@PAUtagACTMSG@@@std@@@std@@IAE@V?$allocator@PAUtagACTMSG@@@1@@Z
_TEXT	SEGMENT PARA USE32 PUBLIC 'CODE'
_TEXT	ENDS
;	COMDAT ??0?$allocator@PAUtagACTMSG@@@std@@QAE@XZ
_TEXT	SEGMENT PARA USE32 PUBLIC 'CODE'
_TEXT	ENDS
;	COMDAT ?_Tidy@?$deque@PAUtagMAGICATKMSG@@V?$allocator@PAUtagMAGICATKMSG@@@std@@@std@@IAEXXZ
_TEXT	SEGMENT PARA USE32 PUBLIC 'CODE'
_TEXT	ENDS
;	COMDAT ??0?$_Deque_val@PAUtagMAGICATKMSG@@V?$allocator@PAUtagMAGICATKMSG@@@std@@@std@@IAE@V?$allocator@PAUtagMAGICATKMSG@@@1@@Z
_TEXT	SEGMENT PARA USE32 PUBLIC 'CODE'
_TEXT	ENDS
;	COMDAT ??0?$allocator@PAUtagMAGICATKMSG@@@std@@QAE@XZ
_TEXT	SEGMENT PARA USE32 PUBLIC 'CODE'
_TEXT	ENDS
;	COMDAT ??0iterator@?$deque@PAUtagACTMSG@@V?$allocator@PAUtagACTMSG@@@std@@@std@@QAE@IPBV12@@Z
_TEXT	SEGMENT PARA USE32 PUBLIC 'CODE'
_TEXT	ENDS
;	COMDAT ??Dconst_iterator@?$deque@PAUtagACTMSG@@V?$allocator@PAUtagACTMSG@@@std@@@std@@QBEABQAUtagACTMSG@@XZ
_TEXT	SEGMENT PARA USE32 PUBLIC 'CODE'
_TEXT	ENDS
;	COMDAT ??8const_iterator@?$deque@PAUtagACTMSG@@V?$allocator@PAUtagACTMSG@@@std@@@std@@QBE_NABV012@@Z
_TEXT	SEGMENT PARA USE32 PUBLIC 'CODE'
_TEXT	ENDS
;	COMDAT ??0iterator@?$deque@PAUtagMAGICATKMSG@@V?$allocator@PAUtagMAGICATKMSG@@@std@@@std@@QAE@IPBV12@@Z
_TEXT	SEGMENT PARA USE32 PUBLIC 'CODE'
_TEXT	ENDS
;	COMDAT ??Dconst_iterator@?$deque@PAUtagMAGICATKMSG@@V?$allocator@PAUtagMAGICATKMSG@@@std@@@std@@QBEABQAUtagMAGICATKMSG@@XZ
_TEXT	SEGMENT PARA USE32 PUBLIC 'CODE'
_TEXT	ENDS
;	COMDAT ??8const_iterator@?$deque@PAUtagMAGICATKMSG@@V?$allocator@PAUtagMAGICATKMSG@@@std@@@std@@QBE_NABV012@@Z
_TEXT	SEGMENT PARA USE32 PUBLIC 'CODE'
_TEXT	ENDS
;	COMDAT ?erase@?$_Tree@V?$_Tmap_traits@KU_Friend@@U?$less@K@std@@V?$allocator@U?$pair@$$CBKU_Friend@@@std@@@3@$0A@@std@@@std@@QAE?AViterator@12@V312@0@Z
_TEXT	SEGMENT PARA USE32 PUBLIC 'CODE'
_TEXT	ENDS
;	COMDAT ?equal_range@?$_Tree@V?$_Tmap_traits@KU_Friend@@U?$less@K@std@@V?$allocator@U?$pair@$$CBKU_Friend@@@std@@@3@$0A@@std@@@std@@QAE?AU?$pair@Viterator@?$_Tree@V?$_Tmap_traits@KU_Friend@@U?$less@K@std@@V?$allocator@U?$pair@$$CBKU_Friend@@@std@@@3@$0A@@std@@@std@@V123@@2@ABK@Z
_TEXT	SEGMENT PARA USE32 PUBLIC 'CODE'
_TEXT	ENDS
;	COMDAT ?begin@?$vector@PAU__JOINPLAYER@CGuildCombat@@V?$allocator@PAU__JOINPLAYER@CGuildCombat@@@std@@@std@@QAE?AViterator@12@XZ
_TEXT	SEGMENT PARA USE32 PUBLIC 'CODE'
_TEXT	ENDS
;	COMDAT ?_Tidy@?$vector@PAU__JOINPLAYER@CGuildCombat@@V?$allocator@PAU__JOINPLAYER@CGuildCombat@@@std@@@std@@IAEXXZ
_TEXT	SEGMENT PARA USE32 PUBLIC 'CODE'
_TEXT	ENDS
;	COMDAT ?_Nextnode@?$list@PAU__JOINPLAYER@CGuildCombat@@V?$allocator@PAU__JOINPLAYER@CGuildCombat@@@std@@@std@@KAAAPAU_Node@?$_List_nod@PAU__JOINPLAYER@CGuildCombat@@V?$allocator@PAU__JOINPLAYER@CGuildCombat@@@std@@@2@PAU342@@Z
_TEXT	SEGMENT PARA USE32 PUBLIC 'CODE'
_TEXT	ENDS
;	COMDAT ?_Prevnode@?$list@PAU__JOINPLAYER@CGuildCombat@@V?$allocator@PAU__JOINPLAYER@CGuildCombat@@@std@@@std@@KAAAPAU_Node@?$_List_nod@PAU__JOINPLAYER@CGuildCombat@@V?$allocator@PAU__JOINPLAYER@CGuildCombat@@@std@@@2@PAU342@@Z
_TEXT	SEGMENT PARA USE32 PUBLIC 'CODE'
_TEXT	ENDS
;	COMDAT ?deallocate@?$allocator@U_Node@?$_List_nod@PAU__JOINPLAYER@CGuildCombat@@V?$allocator@PAU__JOINPLAYER@CGuildCombat@@@std@@@std@@@std@@QAEXPAU_Node@?$_List_nod@PAU__JOINPLAYER@CGuildCombat@@V?$allocator@PAU__JOINPLAYER@CGuildCombat@@@std@@@2@I@Z
_TEXT	SEGMENT PARA USE32 PUBLIC 'CODE'
_TEXT	ENDS
;	COMDAT ?destroy@?$allocator@U_Node@?$_List_nod@PAU__JOINPLAYER@CGuildCombat@@V?$allocator@PAU__JOINPLAYER@CGuildCombat@@@std@@@std@@@std@@QAEXPAU_Node@?$_List_nod@PAU__JOINPLAYER@CGuildCombat@@V?$allocator@PAU__JOINPLAYER@CGuildCombat@@@std@@@2@@Z
_TEXT	SEGMENT PARA USE32 PUBLIC 'CODE'
_TEXT	ENDS
;	COMDAT ?_Buy@?$vector@U__SECRETROOM_MONSTER@@V?$allocator@U__SECRETROOM_MONSTER@@@std@@@std@@IAE_NI@Z
_TEXT	SEGMENT PARA USE32 PUBLIC 'CODE'
_TEXT	ENDS
;	COMDAT ?_Tidy@?$vector@U__SECRETROOM_MONSTER@@V?$allocator@U__SECRETROOM_MONSTER@@@std@@@std@@IAEXXZ
_TEXT	SEGMENT PARA USE32 PUBLIC 'CODE'
_TEXT	ENDS
;	COMDAT ??0?$_Vector_val@U__SECRETROOM_MONSTER@@V?$allocator@U__SECRETROOM_MONSTER@@@std@@@std@@IAE@V?$allocator@U__SECRETROOM_MONSTER@@@1@@Z
_TEXT	SEGMENT PARA USE32 PUBLIC 'CODE'
_TEXT	ENDS
;	COMDAT ??0?$allocator@U__SECRETROOM_MONSTER@@@std@@QAE@XZ
_TEXT	SEGMENT PARA USE32 PUBLIC 'CODE'
_TEXT	ENDS
;	COMDAT ?capacity@?$vector@V?$basic_string@DU?$char_traits@D@std@@V?$allocator@D@2@@std@@V?$allocator@V?$basic_string@DU?$char_traits@D@std@@V?$allocator@D@2@@std@@@2@@std@@QBEIXZ
_TEXT	SEGMENT PARA USE32 PUBLIC 'CODE'
_TEXT	ENDS
;	COMDAT ?begin@?$vector@V?$basic_string@DU?$char_traits@D@std@@V?$allocator@D@2@@std@@V?$allocator@V?$basic_string@DU?$char_traits@D@std@@V?$allocator@D@2@@std@@@2@@std@@QAE?AViterator@12@XZ
_TEXT	SEGMENT PARA USE32 PUBLIC 'CODE'
_TEXT	ENDS
;	COMDAT ?end@?$vector@V?$basic_string@DU?$char_traits@D@std@@V?$allocator@D@2@@std@@V?$allocator@V?$basic_string@DU?$char_traits@D@std@@V?$allocator@D@2@@std@@@2@@std@@QAE?AViterator@12@XZ
_TEXT	SEGMENT PARA USE32 PUBLIC 'CODE'
_TEXT	ENDS
;	COMDAT ?insert@?$vector@V?$basic_string@DU?$char_traits@D@std@@V?$allocator@D@2@@std@@V?$allocator@V?$basic_string@DU?$char_traits@D@std@@V?$allocator@D@2@@std@@@2@@std@@QAE?AViterator@12@V312@ABV?$basic_string@DU?$char_traits@D@std@@V?$allocator@D@2@@2@@Z
_TEXT	SEGMENT PARA USE32 PUBLIC 'CODE'
_TEXT	ENDS
;	COMDAT ?_Buy@?$vector@V?$basic_string@DU?$char_traits@D@std@@V?$allocator@D@2@@std@@V?$allocator@V?$basic_string@DU?$char_traits@D@std@@V?$allocator@D@2@@std@@@2@@std@@IAE_NI@Z
_TEXT	SEGMENT PARA USE32 PUBLIC 'CODE'
_TEXT	ENDS
;	COMDAT ?_Tidy@?$vector@V?$basic_string@DU?$char_traits@D@std@@V?$allocator@D@2@@std@@V?$allocator@V?$basic_string@DU?$char_traits@D@std@@V?$allocator@D@2@@std@@@2@@std@@IAEXXZ
_TEXT	SEGMENT PARA USE32 PUBLIC 'CODE'
_TEXT	ENDS
;	COMDAT ?_Ufill@?$vector@V?$basic_string@DU?$char_traits@D@std@@V?$allocator@D@2@@std@@V?$allocator@V?$basic_string@DU?$char_traits@D@std@@V?$allocator@D@2@@std@@@2@@std@@IAEPAV?$basic_string@DU?$char_traits@D@std@@V?$allocator@D@2@@2@PAV32@IABV32@@Z
_TEXT	SEGMENT PARA USE32 PUBLIC 'CODE'
_TEXT	ENDS
;	COMDAT ??0?$_Vector_val@V?$basic_string@DU?$char_traits@D@std@@V?$allocator@D@2@@std@@V?$allocator@V?$basic_string@DU?$char_traits@D@std@@V?$allocator@D@2@@std@@@2@@std@@IAE@V?$allocator@V?$basic_string@DU?$char_traits@D@std@@V?$allocator@D@2@@std@@@1@@Z
_TEXT	SEGMENT PARA USE32 PUBLIC 'CODE'
_TEXT	ENDS
;	COMDAT ?capacity@?$vector@UMINIGMAME_PRIZE_LIST@CRainbowRaceMng@@V?$allocator@UMINIGMAME_PRIZE_LIST@CRainbowRaceMng@@@std@@@std@@QBEIXZ
_TEXT	SEGMENT PARA USE32 PUBLIC 'CODE'
_TEXT	ENDS
;	COMDAT ?end@?$vector@UMINIGMAME_PRIZE_LIST@CRainbowRaceMng@@V?$allocator@UMINIGMAME_PRIZE_LIST@CRainbowRaceMng@@@std@@@std@@QAE?AViterator@12@XZ
_TEXT	SEGMENT PARA USE32 PUBLIC 'CODE'
_TEXT	ENDS
;	COMDAT ?size@?$vector@UMINIGMAME_PRIZE_LIST@CRainbowRaceMng@@V?$allocator@UMINIGMAME_PRIZE_LIST@CRainbowRaceMng@@@std@@@std@@QBEIXZ
_TEXT	SEGMENT PARA USE32 PUBLIC 'CODE'
_TEXT	ENDS
;	COMDAT ?insert@?$vector@UMINIGMAME_PRIZE_LIST@CRainbowRaceMng@@V?$allocator@UMINIGMAME_PRIZE_LIST@CRainbowRaceMng@@@std@@@std@@QAE?AViterator@12@V312@ABUMINIGMAME_PRIZE_LIST@CRainbowRaceMng@@@Z
_TEXT	SEGMENT PARA USE32 PUBLIC 'CODE'
_TEXT	ENDS
;	COMDAT ?_Ufill@?$vector@UMINIGMAME_PRIZE_LIST@CRainbowRaceMng@@V?$allocator@UMINIGMAME_PRIZE_LIST@CRainbowRaceMng@@@std@@@std@@IAEPAUMINIGMAME_PRIZE_LIST@CRainbowRaceMng@@PAU34@IABU34@@Z
_TEXT	SEGMENT PARA USE32 PUBLIC 'CODE'
_TEXT	ENDS
;	COMDAT ?begin@?$vector@PAVCMiniGameBase@@V?$allocator@PAVCMiniGameBase@@@std@@@std@@QAE?AViterator@12@XZ
_TEXT	SEGMENT PARA USE32 PUBLIC 'CODE'
_TEXT	ENDS
;	COMDAT ?begin@?$vector@UGuildHouse_Furniture_Info@CGuildHouseBase@@V?$allocator@UGuildHouse_Furniture_Info@CGuildHouseBase@@@std@@@std@@QAE?AViterator@12@XZ
_TEXT	SEGMENT PARA USE32 PUBLIC 'CODE'
_TEXT	ENDS
;	COMDAT ?_Isnil@?$_Tree@V?$_Tmap_traits@KPAVCGuildHouseBase@@U?$less@K@std@@V?$allocator@U?$pair@$$CBKPAVCGuildHouseBase@@@std@@@3@$0A@@std@@@std@@KAAADPAU_Node@?$_Tree_nod@V?$_Tmap_traits@KPAVCGuildHouseBase@@U?$less@K@std@@V?$allocator@U?$pair@$$CBKPAVCGuildHouseBase@@@std@@@3@$0A@@std@@@2@@Z
_TEXT	SEGMENT PARA USE32 PUBLIC 'CODE'
_TEXT	ENDS
;	COMDAT ?_Key@?$_Tree@V?$_Tmap_traits@KPAVCGuildHouseBase@@U?$less@K@std@@V?$allocator@U?$pair@$$CBKPAVCGuildHouseBase@@@std@@@3@$0A@@std@@@std@@KAABKPAU_Node@?$_Tree_nod@V?$_Tmap_traits@KPAVCGuildHouseBase@@U?$less@K@std@@V?$allocator@U?$pair@$$CBKPAVCGuildHouseBase@@@std@@@3@$0A@@std@@@2@@Z
_TEXT	SEGMENT PARA USE32 PUBLIC 'CODE'
_TEXT	ENDS
;	COMDAT ?_Left@?$_Tree@V?$_Tmap_traits@KPAVCGuildHouseBase@@U?$less@K@std@@V?$allocator@U?$pair@$$CBKPAVCGuildHouseBase@@@std@@@3@$0A@@std@@@std@@KAAAPAU_Node@?$_Tree_nod@V?$_Tmap_traits@KPAVCGuildHouseBase@@U?$less@K@std@@V?$allocator@U?$pair@$$CBKPAVCGuildHouseBase@@@std@@@3@$0A@@std@@@2@PAU342@@Z
_TEXT	SEGMENT PARA USE32 PUBLIC 'CODE'
_TEXT	ENDS
;	COMDAT ?_Right@?$_Tree@V?$_Tmap_traits@KPAVCGuildHouseBase@@U?$less@K@std@@V?$allocator@U?$pair@$$CBKPAVCGuildHouseBase@@@std@@@3@$0A@@std@@@std@@KAAAPAU_Node@?$_Tree_nod@V?$_Tmap_traits@KPAVCGuildHouseBase@@U?$less@K@std@@V?$allocator@U?$pair@$$CBKPAVCGuildHouseBase@@@std@@@3@$0A@@std@@@2@PAU342@@Z
_TEXT	SEGMENT PARA USE32 PUBLIC 'CODE'
_TEXT	ENDS
;	COMDAT ?begin@?$_Tree@V?$_Tmap_traits@KPAVCGuildHouseBase@@U?$less@K@std@@V?$allocator@U?$pair@$$CBKPAVCGuildHouseBase@@@std@@@3@$0A@@std@@@std@@QAE?AViterator@12@XZ
_TEXT	SEGMENT PARA USE32 PUBLIC 'CODE'
_TEXT	ENDS
;	COMDAT ?size@?$_Tree@V?$_Tmap_traits@KPAVCGuildHouseBase@@U?$less@K@std@@V?$allocator@U?$pair@$$CBKPAVCGuildHouseBase@@@std@@@3@$0A@@std@@@std@@QBEIXZ
_TEXT	SEGMENT PARA USE32 PUBLIC 'CODE'
_TEXT	ENDS
;	COMDAT ?_Insert@?$_Tree@V?$_Tmap_traits@KPAVCGuildHouseBase@@U?$less@K@std@@V?$allocator@U?$pair@$$CBKPAVCGuildHouseBase@@@std@@@3@$0A@@std@@@std@@IAE?AViterator@12@_NPAU_Node@?$_Tree_nod@V?$_Tmap_traits@KPAVCGuildHouseBase@@U?$less@K@std@@V?$allocator@U?$pair@$$CBKPAVCGuildHouseBase@@@std@@@3@$0A@@std@@@2@ABU?$pair@$$CBKPAVCGuildHouseBase@@@2@@Z
_TEXT	SEGMENT PARA USE32 PUBLIC 'CODE'
_TEXT	ENDS
;	COMDAT ?_Root@?$_Tree@V?$_Tmap_traits@KPAVCGuildHouseBase@@U?$less@K@std@@V?$allocator@U?$pair@$$CBKPAVCGuildHouseBase@@@std@@@3@$0A@@std@@@std@@IAEAAPAU_Node@?$_Tree_nod@V?$_Tmap_traits@KPAVCGuildHouseBase@@U?$less@K@std@@V?$allocator@U?$pair@$$CBKPAVCGuildHouseBase@@@std@@@3@$0A@@std@@@2@XZ
_TEXT	SEGMENT PARA USE32 PUBLIC 'CODE'
_TEXT	ENDS
;	COMDAT ?_Kfn@?$_Tmap_traits@KPAVCGuildHouseBase@@U?$less@K@std@@V?$allocator@U?$pair@$$CBKPAVCGuildHouseBase@@@std@@@3@$0A@@std@@SAABKABU?$pair@$$CBKPAVCGuildHouseBase@@@2@@Z
_TEXT	SEGMENT PARA USE32 PUBLIC 'CODE'
_TEXT	ENDS
;	COMDAT ??0?$pair@Viterator@?$_Tree@V?$_Tmap_traits@KPAVCGuildHouseBase@@U?$less@K@std@@V?$allocator@U?$pair@$$CBKPAVCGuildHouseBase@@@std@@@3@$0A@@std@@@std@@_N@std@@QAE@ABViterator@?$_Tree@V?$_Tmap_traits@KPAVCGuildHouseBase@@U?$less@K@std@@V?$allocator@U?$pair@$$CBKPAVCGuildHouseBase@@@std@@@3@$0A@@std@@@1@AB_N@Z
_TEXT	SEGMENT PARA USE32 PUBLIC 'CODE'
_TEXT	ENDS
;	COMDAT ??0iterator@?$_Tree@V?$_Tmap_traits@KPAVCGuildHouseBase@@U?$less@K@std@@V?$allocator@U?$pair@$$CBKPAVCGuildHouseBase@@@std@@@3@$0A@@std@@@std@@QAE@PAU_Node@?$_Tree_nod@V?$_Tmap_traits@KPAVCGuildHouseBase@@U?$less@K@std@@V?$allocator@U?$pair@$$CBKPAVCGuildHouseBase@@@std@@@3@$0A@@std@@@2@@Z
_TEXT	SEGMENT PARA USE32 PUBLIC 'CODE'
_TEXT	ENDS
;	COMDAT ??Fiterator@?$_Tree@V?$_Tmap_traits@KPAVCGuildHouseBase@@U?$less@K@std@@V?$allocator@U?$pair@$$CBKPAVCGuildHouseBase@@@std@@@3@$0A@@std@@@std@@QAEAAV012@XZ
_TEXT	SEGMENT PARA USE32 PUBLIC 'CODE'
_TEXT	ENDS
;	COMDAT ??8const_iterator@?$_Tree@V?$_Tmap_traits@KPAVCGuildHouseBase@@U?$less@K@std@@V?$allocator@U?$pair@$$CBKPAVCGuildHouseBase@@@std@@@3@$0A@@std@@@std@@QBE_NABV012@@Z
_TEXT	SEGMENT PARA USE32 PUBLIC 'CODE'
_TEXT	ENDS
;	COMDAT ?_Mynode@const_iterator@?$_Tree@V?$_Tmap_traits@KPAVCGuildHouseBase@@U?$less@K@std@@V?$allocator@U?$pair@$$CBKPAVCGuildHouseBase@@@std@@@3@$0A@@std@@@std@@QBEPAU_Node@?$_Tree_nod@V?$_Tmap_traits@KPAVCGuildHouseBase@@U?$less@K@std@@V?$allocator@U?$pair@$$CBKPAVCGuildHouseBase@@@std@@@3@$0A@@std@@@3@XZ
_TEXT	SEGMENT PARA USE32 PUBLIC 'CODE'
_TEXT	ENDS
;	COMDAT ?size@?$_Tree@V?$_Tmap_traits@KPAVCCampus@@U?$less@K@std@@V?$allocator@U?$pair@$$CBKPAVCCampus@@@std@@@3@$0A@@std@@@std@@QBEIXZ
_TEXT	SEGMENT PARA USE32 PUBLIC 'CODE'
_TEXT	ENDS
;	COMDAT ?erase@?$_Tree@V?$_Tmap_traits@KKU?$less@K@std@@V?$allocator@U?$pair@$$CBKK@std@@@2@$0A@@std@@@std@@QAE?AViterator@12@V312@0@Z
_TEXT	SEGMENT PARA USE32 PUBLIC 'CODE'
_TEXT	ENDS
;	COMDAT ?equal_range@?$_Tree@V?$_Tmap_traits@KKU?$less@K@std@@V?$allocator@U?$pair@$$CBKK@std@@@2@$0A@@std@@@std@@QAE?AU?$pair@Viterator@?$_Tree@V?$_Tmap_traits@KKU?$less@K@std@@V?$allocator@U?$pair@$$CBKK@std@@@2@$0A@@std@@@std@@V123@@2@ABK@Z
_TEXT	SEGMENT PARA USE32 PUBLIC 'CODE'
_TEXT	ENDS
;	COMDAT ??Diterator@?$vector@PAU__JOINPLAYER@CGuildCombat@@V?$allocator@PAU__JOINPLAYER@CGuildCombat@@@std@@@std@@QBEAAPAU__JOINPLAYER@CGuildCombat@@XZ
_TEXT	SEGMENT PARA USE32 PUBLIC 'CODE'
_TEXT	ENDS
;	COMDAT ??Hiterator@?$vector@PAU__JOINPLAYER@CGuildCombat@@V?$allocator@PAU__JOINPLAYER@CGuildCombat@@@std@@@std@@QBE?AV012@H@Z
_TEXT	SEGMENT PARA USE32 PUBLIC 'CODE'
_TEXT	ENDS
;	COMDAT ??Diterator@?$vector@V?$basic_string@DU?$char_traits@D@std@@V?$allocator@D@2@@std@@V?$allocator@V?$basic_string@DU?$char_traits@D@std@@V?$allocator@D@2@@std@@@2@@std@@QBEAAV?$basic_string@DU?$char_traits@D@std@@V?$allocator@D@2@@2@XZ
_TEXT	SEGMENT PARA USE32 PUBLIC 'CODE'
_TEXT	ENDS
;	COMDAT ??Hiterator@?$vector@V?$basic_string@DU?$char_traits@D@std@@V?$allocator@D@2@@std@@V?$allocator@V?$basic_string@DU?$char_traits@D@std@@V?$allocator@D@2@@std@@@2@@std@@QBE?AV012@H@Z
_TEXT	SEGMENT PARA USE32 PUBLIC 'CODE'
_TEXT	ENDS
;	COMDAT ??Diterator@?$vector@PAVCMiniGameBase@@V?$allocator@PAVCMiniGameBase@@@std@@@std@@QBEAAPAVCMiniGameBase@@XZ
_TEXT	SEGMENT PARA USE32 PUBLIC 'CODE'
_TEXT	ENDS
;	COMDAT ??Hiterator@?$vector@PAVCMiniGameBase@@V?$allocator@PAVCMiniGameBase@@@std@@@std@@QBE?AV012@H@Z
_TEXT	SEGMENT PARA USE32 PUBLIC 'CODE'
_TEXT	ENDS
;	COMDAT ??Diterator@?$vector@UGuildHouse_Furniture_Info@CGuildHouseBase@@V?$allocator@UGuildHouse_Furniture_Info@CGuildHouseBase@@@std@@@std@@QBEAAUGuildHouse_Furniture_Info@CGuildHouseBase@@XZ
_TEXT	SEGMENT PARA USE32 PUBLIC 'CODE'
_TEXT	ENDS
;	COMDAT ??Hiterator@?$vector@UGuildHouse_Furniture_Info@CGuildHouseBase@@V?$allocator@UGuildHouse_Furniture_Info@CGuildHouseBase@@@std@@@std@@QBE?AV012@H@Z
_TEXT	SEGMENT PARA USE32 PUBLIC 'CODE'
_TEXT	ENDS
;	COMDAT ??0?$allocator@V?$basic_string@DU?$char_traits@D@std@@V?$allocator@D@2@@std@@@std@@QAE@ABV01@@Z
_TEXT	SEGMENT PARA USE32 PUBLIC 'CODE'
_TEXT	ENDS
;	COMDAT ?deallocate@?$allocator@V?$basic_string@DU?$char_traits@D@std@@V?$allocator@D@2@@std@@@std@@QAEXPAV?$basic_string@DU?$char_traits@D@std@@V?$allocator@D@2@@2@I@Z
_TEXT	SEGMENT PARA USE32 PUBLIC 'CODE'
_TEXT	ENDS
;	COMDAT ?allocate@?$allocator@V?$basic_string@DU?$char_traits@D@std@@V?$allocator@D@2@@std@@@std@@QAEPAV?$basic_string@DU?$char_traits@D@std@@V?$allocator@D@2@@2@I@Z
_TEXT	SEGMENT PARA USE32 PUBLIC 'CODE'
_TEXT	ENDS
;	COMDAT ?size@?$_Tree@V?$_Tmap_traits@KPAVCCtrl@@U?$less@K@std@@V?$allocator@U?$pair@$$CBKPAVCCtrl@@@std@@@3@$0A@@std@@@std@@QBEIXZ
_TEXT	SEGMENT PARA USE32 PUBLIC 'CODE'
_TEXT	ENDS
;	COMDAT ??0iterator@?$_Tree@V?$_Tmap_traits@KPAVCCtrl@@U?$less@K@std@@V?$allocator@U?$pair@$$CBKPAVCCtrl@@@std@@@3@$0A@@std@@@std@@QAE@XZ
_TEXT	SEGMENT PARA USE32 PUBLIC 'CODE'
_TEXT	ENDS
;	COMDAT ?pop_back@?$deque@PAUtagACTMSG@@V?$allocator@PAUtagACTMSG@@@std@@@std@@QAEXXZ
_TEXT	SEGMENT PARA USE32 PUBLIC 'CODE'
_TEXT	ENDS
;	COMDAT ??0?$_Deque_map@PAUtagACTMSG@@V?$allocator@PAUtagACTMSG@@@std@@@std@@IAE@V?$allocator@PAUtagACTMSG@@@1@@Z
_TEXT	SEGMENT PARA USE32 PUBLIC 'CODE'
_TEXT	ENDS
;	COMDAT ??0?$allocator@PAUtagACTMSG@@@std@@QAE@ABV01@@Z
_TEXT	SEGMENT PARA USE32 PUBLIC 'CODE'
_TEXT	ENDS
;	COMDAT ?deallocate@?$allocator@PAUtagACTMSG@@@std@@QAEXPAPAUtagACTMSG@@I@Z
_TEXT	SEGMENT PARA USE32 PUBLIC 'CODE'
_TEXT	ENDS
;	COMDAT ?deallocate@?$allocator@PAPAUtagACTMSG@@@std@@QAEXPAPAPAUtagACTMSG@@I@Z
_TEXT	SEGMENT PARA USE32 PUBLIC 'CODE'
_TEXT	ENDS
;	COMDAT ?destroy@?$allocator@PAPAUtagACTMSG@@@std@@QAEXPAPAPAUtagACTMSG@@@Z
_TEXT	SEGMENT PARA USE32 PUBLIC 'CODE'
_TEXT	ENDS
;	COMDAT ?pop_back@?$deque@PAUtagMAGICATKMSG@@V?$allocator@PAUtagMAGICATKMSG@@@std@@@std@@QAEXXZ
_TEXT	SEGMENT PARA USE32 PUBLIC 'CODE'
_TEXT	ENDS
;	COMDAT ??0?$_Deque_map@PAUtagMAGICATKMSG@@V?$allocator@PAUtagMAGICATKMSG@@@std@@@std@@IAE@V?$allocator@PAUtagMAGICATKMSG@@@1@@Z
_TEXT	SEGMENT PARA USE32 PUBLIC 'CODE'
_TEXT	ENDS
;	COMDAT ??0?$allocator@PAUtagMAGICATKMSG@@@std@@QAE@ABV01@@Z
_TEXT	SEGMENT PARA USE32 PUBLIC 'CODE'
_TEXT	ENDS
;	COMDAT ?deallocate@?$allocator@PAUtagMAGICATKMSG@@@std@@QAEXPAPAUtagMAGICATKMSG@@I@Z
_TEXT	SEGMENT PARA USE32 PUBLIC 'CODE'
_TEXT	ENDS
;	COMDAT ?deallocate@?$allocator@PAPAUtagMAGICATKMSG@@@std@@QAEXPAPAPAUtagMAGICATKMSG@@I@Z
_TEXT	SEGMENT PARA USE32 PUBLIC 'CODE'
_TEXT	ENDS
;	COMDAT ?destroy@?$allocator@PAPAUtagMAGICATKMSG@@@std@@QAEXPAPAPAUtagMAGICATKMSG@@@Z
_TEXT	SEGMENT PARA USE32 PUBLIC 'CODE'
_TEXT	ENDS
;	COMDAT ??0const_iterator@?$deque@PAUtagACTMSG@@V?$allocator@PAUtagACTMSG@@@std@@@std@@QAE@IPBV12@@Z
_TEXT	SEGMENT PARA USE32 PUBLIC 'CODE'
_TEXT	ENDS
;	COMDAT ??0const_iterator@?$deque@PAUtagMAGICATKMSG@@V?$allocator@PAUtagMAGICATKMSG@@@std@@@std@@QAE@IPBV12@@Z
_TEXT	SEGMENT PARA USE32 PUBLIC 'CODE'
_TEXT	ENDS
;	COMDAT ?begin@?$_Tree@V?$_Tmap_traits@KU_Friend@@U?$less@K@std@@V?$allocator@U?$pair@$$CBKU_Friend@@@std@@@3@$0A@@std@@@std@@QAE?AViterator@12@XZ
_TEXT	SEGMENT PARA USE32 PUBLIC 'CODE'
_TEXT	ENDS
;	COMDAT ?end@?$_Tree@V?$_Tmap_traits@KU_Friend@@U?$less@K@std@@V?$allocator@U?$pair@$$CBKU_Friend@@@std@@@3@$0A@@std@@@std@@QAE?AViterator@12@XZ
_TEXT	SEGMENT PARA USE32 PUBLIC 'CODE'
_TEXT	ENDS
;	COMDAT ?erase@?$_Tree@V?$_Tmap_traits@KU_Friend@@U?$less@K@std@@V?$allocator@U?$pair@$$CBKU_Friend@@@std@@@3@$0A@@std@@@std@@QAE?AViterator@12@V312@@Z
_TEXT	SEGMENT PARA USE32 PUBLIC 'CODE'
_TEXT	ENDS
;	COMDAT ?clear@?$_Tree@V?$_Tmap_traits@KU_Friend@@U?$less@K@std@@V?$allocator@U?$pair@$$CBKU_Friend@@@std@@@3@$0A@@std@@@std@@QAEXXZ
_TEXT	SEGMENT PARA USE32 PUBLIC 'CODE'
_TEXT	ENDS
;	COMDAT ?lower_bound@?$_Tree@V?$_Tmap_traits@KU_Friend@@U?$less@K@std@@V?$allocator@U?$pair@$$CBKU_Friend@@@std@@@3@$0A@@std@@@std@@QAE?AViterator@12@ABK@Z
_TEXT	SEGMENT PARA USE32 PUBLIC 'CODE'
_TEXT	ENDS
;	COMDAT ?upper_bound@?$_Tree@V?$_Tmap_traits@KU_Friend@@U?$less@K@std@@V?$allocator@U?$pair@$$CBKU_Friend@@@std@@@3@$0A@@std@@@std@@QAE?AViterator@12@ABK@Z
_TEXT	SEGMENT PARA USE32 PUBLIC 'CODE'
_TEXT	ENDS
;	COMDAT ??Eiterator@?$_Tree@V?$_Tmap_traits@KU_Friend@@U?$less@K@std@@V?$allocator@U?$pair@$$CBKU_Friend@@@std@@@3@$0A@@std@@@std@@QAE?AV012@H@Z
_TEXT	SEGMENT PARA USE32 PUBLIC 'CODE'
_TEXT	ENDS
;	COMDAT ??8const_iterator@?$_Tree@V?$_Tmap_traits@KU_Friend@@U?$less@K@std@@V?$allocator@U?$pair@$$CBKU_Friend@@@std@@@3@$0A@@std@@@std@@QBE_NABV012@@Z
_TEXT	SEGMENT PARA USE32 PUBLIC 'CODE'
_TEXT	ENDS
;	COMDAT ??9const_iterator@?$_Tree@V?$_Tmap_traits@KU_Friend@@U?$less@K@std@@V?$allocator@U?$pair@$$CBKU_Friend@@@std@@@3@$0A@@std@@@std@@QBE_NABV012@@Z
_TEXT	SEGMENT PARA USE32 PUBLIC 'CODE'
_TEXT	ENDS
;	COMDAT ?_Destroy@?$vector@PAU__JOINPLAYER@CGuildCombat@@V?$allocator@PAU__JOINPLAYER@CGuildCombat@@@std@@@std@@IAEXPAPAU__JOINPLAYER@CGuildCombat@@0@Z
_TEXT	SEGMENT PARA USE32 PUBLIC 'CODE'
_TEXT	ENDS
;	COMDAT ?deallocate@?$allocator@PAU__JOINPLAYER@CGuildCombat@@@std@@QAEXPAPAU__JOINPLAYER@CGuildCombat@@I@Z
_TEXT	SEGMENT PARA USE32 PUBLIC 'CODE'
_TEXT	ENDS
;	COMDAT ?max_size@?$vector@U__SECRETROOM_MONSTER@@V?$allocator@U__SECRETROOM_MONSTER@@@std@@@std@@QBEIXZ
_TEXT	SEGMENT PARA USE32 PUBLIC 'CODE'
_TEXT	ENDS
;	COMDAT ?_Destroy@?$vector@U__SECRETROOM_MONSTER@@V?$allocator@U__SECRETROOM_MONSTER@@@std@@@std@@IAEXPAU__SECRETROOM_MONSTER@@0@Z
_TEXT	SEGMENT PARA USE32 PUBLIC 'CODE'
_TEXT	ENDS
;	COMDAT ?_Xlen@?$vector@U__SECRETROOM_MONSTER@@V?$allocator@U__SECRETROOM_MONSTER@@@std@@@std@@IBEXXZ
_TEXT	SEGMENT PARA USE32 PUBLIC 'CODE'
_TEXT	ENDS
;	COMDAT ??0?$allocator@U__SECRETROOM_MONSTER@@@std@@QAE@ABV01@@Z
_TEXT	SEGMENT PARA USE32 PUBLIC 'CODE'
_TEXT	ENDS
;	COMDAT ?deallocate@?$allocator@U__SECRETROOM_MONSTER@@@std@@QAEXPAU__SECRETROOM_MONSTER@@I@Z
_TEXT	SEGMENT PARA USE32 PUBLIC 'CODE'
_TEXT	ENDS
;	COMDAT ?allocate@?$allocator@U__SECRETROOM_MONSTER@@@std@@QAEPAU__SECRETROOM_MONSTER@@I@Z
_TEXT	SEGMENT PARA USE32 PUBLIC 'CODE'
_TEXT	ENDS
;	COMDAT ?max_size@?$vector@V?$basic_string@DU?$char_traits@D@std@@V?$allocator@D@2@@std@@V?$allocator@V?$basic_string@DU?$char_traits@D@std@@V?$allocator@D@2@@std@@@2@@std@@QBEIXZ
_TEXT	SEGMENT PARA USE32 PUBLIC 'CODE'
_TEXT	ENDS
;	COMDAT ?_Destroy@?$vector@V?$basic_string@DU?$char_traits@D@std@@V?$allocator@D@2@@std@@V?$allocator@V?$basic_string@DU?$char_traits@D@std@@V?$allocator@D@2@@std@@@2@@std@@IAEXPAV?$basic_string@DU?$char_traits@D@std@@V?$allocator@D@2@@2@0@Z
_TEXT	SEGMENT PARA USE32 PUBLIC 'CODE'
_TEXT	ENDS
;	COMDAT ?_Insert_n@?$vector@V?$basic_string@DU?$char_traits@D@std@@V?$allocator@D@2@@std@@V?$allocator@V?$basic_string@DU?$char_traits@D@std@@V?$allocator@D@2@@std@@@2@@std@@IAEXViterator@12@IABV?$basic_string@DU?$char_traits@D@std@@V?$allocator@D@2@@2@@Z
_TEXT	SEGMENT PARA USE32 PUBLIC 'CODE'
_TEXT	ENDS
;	COMDAT ?_Xlen@?$vector@V?$basic_string@DU?$char_traits@D@std@@V?$allocator@D@2@@std@@V?$allocator@V?$basic_string@DU?$char_traits@D@std@@V?$allocator@D@2@@std@@@2@@std@@IBEXXZ
_TEXT	SEGMENT PARA USE32 PUBLIC 'CODE'
_TEXT	ENDS
;	COMDAT ?begin@?$vector@UMINIGMAME_PRIZE_LIST@CRainbowRaceMng@@V?$allocator@UMINIGMAME_PRIZE_LIST@CRainbowRaceMng@@@std@@@std@@QAE?AViterator@12@XZ
_TEXT	SEGMENT PARA USE32 PUBLIC 'CODE'
_TEXT	ENDS
;	COMDAT ?_Insert_n@?$vector@UMINIGMAME_PRIZE_LIST@CRainbowRaceMng@@V?$allocator@UMINIGMAME_PRIZE_LIST@CRainbowRaceMng@@@std@@@std@@IAEXViterator@12@IABUMINIGMAME_PRIZE_LIST@CRainbowRaceMng@@@Z
_TEXT	SEGMENT PARA USE32 PUBLIC 'CODE'
_TEXT	ENDS
;	COMDAT ?_Color@?$_Tree@V?$_Tmap_traits@KPAVCGuildHouseBase@@U?$less@K@std@@V?$allocator@U?$pair@$$CBKPAVCGuildHouseBase@@@std@@@3@$0A@@std@@@std@@KAAADPAU_Node@?$_Tree_nod@V?$_Tmap_traits@KPAVCGuildHouseBase@@U?$less@K@std@@V?$allocator@U?$pair@$$CBKPAVCGuildHouseBase@@@std@@@3@$0A@@std@@@2@@Z
_TEXT	SEGMENT PARA USE32 PUBLIC 'CODE'
_TEXT	ENDS
;	COMDAT ?_Parent@?$_Tree@V?$_Tmap_traits@KPAVCGuildHouseBase@@U?$less@K@std@@V?$allocator@U?$pair@$$CBKPAVCGuildHouseBase@@@std@@@3@$0A@@std@@@std@@KAAAPAU_Node@?$_Tree_nod@V?$_Tmap_traits@KPAVCGuildHouseBase@@U?$less@K@std@@V?$allocator@U?$pair@$$CBKPAVCGuildHouseBase@@@std@@@3@$0A@@std@@@2@PAU342@@Z
_TEXT	SEGMENT PARA USE32 PUBLIC 'CODE'
_TEXT	ENDS
;	COMDAT ?_Myval@?$_Tree@V?$_Tmap_traits@KPAVCGuildHouseBase@@U?$less@K@std@@V?$allocator@U?$pair@$$CBKPAVCGuildHouseBase@@@std@@@3@$0A@@std@@@std@@KAAAU?$pair@$$CBKPAVCGuildHouseBase@@@2@PAU_Node@?$_Tree_nod@V?$_Tmap_traits@KPAVCGuildHouseBase@@U?$less@K@std@@V?$allocator@U?$pair@$$CBKPAVCGuildHouseBase@@@std@@@3@$0A@@std@@@2@@Z
_TEXT	SEGMENT PARA USE32 PUBLIC 'CODE'
_TEXT	ENDS
;	COMDAT ?max_size@?$_Tree@V?$_Tmap_traits@KPAVCGuildHouseBase@@U?$less@K@std@@V?$allocator@U?$pair@$$CBKPAVCGuildHouseBase@@@std@@@3@$0A@@std@@@std@@QBEIXZ
_TEXT	SEGMENT PARA USE32 PUBLIC 'CODE'
_TEXT	ENDS
;	COMDAT ?_Lmost@?$_Tree@V?$_Tmap_traits@KPAVCGuildHouseBase@@U?$less@K@std@@V?$allocator@U?$pair@$$CBKPAVCGuildHouseBase@@@std@@@3@$0A@@std@@@std@@IAEAAPAU_Node@?$_Tree_nod@V?$_Tmap_traits@KPAVCGuildHouseBase@@U?$less@K@std@@V?$allocator@U?$pair@$$CBKPAVCGuildHouseBase@@@std@@@3@$0A@@std@@@2@XZ
_TEXT	SEGMENT PARA USE32 PUBLIC 'CODE'
_TEXT	ENDS
;	COMDAT ?_Lrotate@?$_Tree@V?$_Tmap_traits@KPAVCGuildHouseBase@@U?$less@K@std@@V?$allocator@U?$pair@$$CBKPAVCGuildHouseBase@@@std@@@3@$0A@@std@@@std@@IAEXPAU_Node@?$_Tree_nod@V?$_Tmap_traits@KPAVCGuildHouseBase@@U?$less@K@std@@V?$allocator@U?$pair@$$CBKPAVCGuildHouseBase@@@std@@@3@$0A@@std@@@2@@Z
_TEXT	SEGMENT PARA USE32 PUBLIC 'CODE'
_TEXT	ENDS
;	COMDAT ?_Rmost@?$_Tree@V?$_Tmap_traits@KPAVCGuildHouseBase@@U?$less@K@std@@V?$allocator@U?$pair@$$CBKPAVCGuildHouseBase@@@std@@@3@$0A@@std@@@std@@IAEAAPAU_Node@?$_Tree_nod@V?$_Tmap_traits@KPAVCGuildHouseBase@@U?$less@K@std@@V?$allocator@U?$pair@$$CBKPAVCGuildHouseBase@@@std@@@3@$0A@@std@@@2@XZ
_TEXT	SEGMENT PARA USE32 PUBLIC 'CODE'
_TEXT	ENDS
;	COMDAT ?_Rrotate@?$_Tree@V?$_Tmap_traits@KPAVCGuildHouseBase@@U?$less@K@std@@V?$allocator@U?$pair@$$CBKPAVCGuildHouseBase@@@std@@@3@$0A@@std@@@std@@IAEXPAU_Node@?$_Tree_nod@V?$_Tmap_traits@KPAVCGuildHouseBase@@U?$less@K@std@@V?$allocator@U?$pair@$$CBKPAVCGuildHouseBase@@@std@@@3@$0A@@std@@@2@@Z
_TEXT	SEGMENT PARA USE32 PUBLIC 'CODE'
_TEXT	ENDS
;	COMDAT ?_Buynode@?$_Tree@V?$_Tmap_traits@KPAVCGuildHouseBase@@U?$less@K@std@@V?$allocator@U?$pair@$$CBKPAVCGuildHouseBase@@@std@@@3@$0A@@std@@@std@@IAEPAU_Node@?$_Tree_nod@V?$_Tmap_traits@KPAVCGuildHouseBase@@U?$less@K@std@@V?$allocator@U?$pair@$$CBKPAVCGuildHouseBase@@@std@@@3@$0A@@std@@@2@PAU342@00ABU?$pair@$$CBKPAVCGuildHouseBase@@@2@D@Z
_TEXT	SEGMENT PARA USE32 PUBLIC 'CODE'
_TEXT	ENDS
;	COMDAT ??0const_iterator@?$_Tree@V?$_Tmap_traits@KPAVCGuildHouseBase@@U?$less@K@std@@V?$allocator@U?$pair@$$CBKPAVCGuildHouseBase@@@std@@@3@$0A@@std@@@std@@QAE@PAU_Node@?$_Tree_nod@V?$_Tmap_traits@KPAVCGuildHouseBase@@U?$less@K@std@@V?$allocator@U?$pair@$$CBKPAVCGuildHouseBase@@@std@@@3@$0A@@std@@@2@@Z
_TEXT	SEGMENT PARA USE32 PUBLIC 'CODE'
_TEXT	ENDS
;	COMDAT ??Fconst_iterator@?$_Tree@V?$_Tmap_traits@KPAVCGuildHouseBase@@U?$less@K@std@@V?$allocator@U?$pair@$$CBKPAVCGuildHouseBase@@@std@@@3@$0A@@std@@@std@@QAEAAV012@XZ
_TEXT	SEGMENT PARA USE32 PUBLIC 'CODE'
_TEXT	ENDS
;	COMDAT ?begin@?$_Tree@V?$_Tmap_traits@KKU?$less@K@std@@V?$allocator@U?$pair@$$CBKK@std@@@2@$0A@@std@@@std@@QAE?AViterator@12@XZ
_TEXT	SEGMENT PARA USE32 PUBLIC 'CODE'
_TEXT	ENDS
;	COMDAT ?end@?$_Tree@V?$_Tmap_traits@KKU?$less@K@std@@V?$allocator@U?$pair@$$CBKK@std@@@2@$0A@@std@@@std@@QAE?AViterator@12@XZ
_TEXT	SEGMENT PARA USE32 PUBLIC 'CODE'
_TEXT	ENDS
;	COMDAT ?erase@?$_Tree@V?$_Tmap_traits@KKU?$less@K@std@@V?$allocator@U?$pair@$$CBKK@std@@@2@$0A@@std@@@std@@QAE?AViterator@12@V312@@Z
_TEXT	SEGMENT PARA USE32 PUBLIC 'CODE'
_TEXT	ENDS
;	COMDAT ?clear@?$_Tree@V?$_Tmap_traits@KKU?$less@K@std@@V?$allocator@U?$pair@$$CBKK@std@@@2@$0A@@std@@@std@@QAEXXZ
_TEXT	SEGMENT PARA USE32 PUBLIC 'CODE'
_TEXT	ENDS
;	COMDAT ?lower_bound@?$_Tree@V?$_Tmap_traits@KKU?$less@K@std@@V?$allocator@U?$pair@$$CBKK@std@@@2@$0A@@std@@@std@@QAE?AViterator@12@ABK@Z
_TEXT	SEGMENT PARA USE32 PUBLIC 'CODE'
_TEXT	ENDS
;	COMDAT ?upper_bound@?$_Tree@V?$_Tmap_traits@KKU?$less@K@std@@V?$allocator@U?$pair@$$CBKK@std@@@2@$0A@@std@@@std@@QAE?AViterator@12@ABK@Z
_TEXT	SEGMENT PARA USE32 PUBLIC 'CODE'
_TEXT	ENDS
;	COMDAT ??Eiterator@?$_Tree@V?$_Tmap_traits@KKU?$less@K@std@@V?$allocator@U?$pair@$$CBKK@std@@@2@$0A@@std@@@std@@QAE?AV012@H@Z
_TEXT	SEGMENT PARA USE32 PUBLIC 'CODE'
_TEXT	ENDS
;	COMDAT ??8const_iterator@?$_Tree@V?$_Tmap_traits@KKU?$less@K@std@@V?$allocator@U?$pair@$$CBKK@std@@@2@$0A@@std@@@std@@QBE_NABV012@@Z
_TEXT	SEGMENT PARA USE32 PUBLIC 'CODE'
_TEXT	ENDS
;	COMDAT ??9const_iterator@?$_Tree@V?$_Tmap_traits@KKU?$less@K@std@@V?$allocator@U?$pair@$$CBKK@std@@@2@$0A@@std@@@std@@QBE_NABV012@@Z
_TEXT	SEGMENT PARA USE32 PUBLIC 'CODE'
_TEXT	ENDS
;	COMDAT ??0?$pair@Viterator@?$_Tree@V?$_Tmap_traits@KU_Friend@@U?$less@K@std@@V?$allocator@U?$pair@$$CBKU_Friend@@@std@@@3@$0A@@std@@@std@@V123@@std@@QAE@ABViterator@?$_Tree@V?$_Tmap_traits@KU_Friend@@U?$less@K@std@@V?$allocator@U?$pair@$$CBKU_Friend@@@std@@@3@$0A@@std@@@1@0@Z
_TEXT	SEGMENT PARA USE32 PUBLIC 'CODE'
_TEXT	ENDS
;	COMDAT ??0iterator@?$vector@PAU__JOINPLAYER@CGuildCombat@@V?$allocator@PAU__JOINPLAYER@CGuildCombat@@@std@@@std@@QAE@PAPAU__JOINPLAYER@CGuildCombat@@@Z
_TEXT	SEGMENT PARA USE32 PUBLIC 'CODE'
_TEXT	ENDS
;	COMDAT ??Yiterator@?$vector@PAU__JOINPLAYER@CGuildCombat@@V?$allocator@PAU__JOINPLAYER@CGuildCombat@@@std@@@std@@QAEAAV012@H@Z
_TEXT	SEGMENT PARA USE32 PUBLIC 'CODE'
_TEXT	ENDS
;	COMDAT ??Dconst_iterator@?$vector@PAU__JOINPLAYER@CGuildCombat@@V?$allocator@PAU__JOINPLAYER@CGuildCombat@@@std@@@std@@QBEABQAU__JOINPLAYER@CGuildCombat@@XZ
_TEXT	SEGMENT PARA USE32 PUBLIC 'CODE'
_TEXT	ENDS
;	COMDAT ??0iterator@?$vector@V?$basic_string@DU?$char_traits@D@std@@V?$allocator@D@2@@std@@V?$allocator@V?$basic_string@DU?$char_traits@D@std@@V?$allocator@D@2@@std@@@2@@std@@QAE@PAV?$basic_string@DU?$char_traits@D@std@@V?$allocator@D@2@@2@@Z
_TEXT	SEGMENT PARA USE32 PUBLIC 'CODE'
_TEXT	ENDS
;	COMDAT ??Yiterator@?$vector@V?$basic_string@DU?$char_traits@D@std@@V?$allocator@D@2@@std@@V?$allocator@V?$basic_string@DU?$char_traits@D@std@@V?$allocator@D@2@@std@@@2@@std@@QAEAAV012@H@Z
_TEXT	SEGMENT PARA USE32 PUBLIC 'CODE'
_TEXT	ENDS
;	COMDAT ??Giterator@?$vector@V?$basic_string@DU?$char_traits@D@std@@V?$allocator@D@2@@std@@V?$allocator@V?$basic_string@DU?$char_traits@D@std@@V?$allocator@D@2@@std@@@2@@std@@QBEHABVconst_iterator@12@@Z
_TEXT	SEGMENT PARA USE32 PUBLIC 'CODE'
_TEXT	ENDS
;	COMDAT ??Dconst_iterator@?$vector@V?$basic_string@DU?$char_traits@D@std@@V?$allocator@D@2@@std@@V?$allocator@V?$basic_string@DU?$char_traits@D@std@@V?$allocator@D@2@@std@@@2@@std@@QBEABV?$basic_string@DU?$char_traits@D@std@@V?$allocator@D@2@@2@XZ
_TEXT	SEGMENT PARA USE32 PUBLIC 'CODE'
_TEXT	ENDS
;	COMDAT ??0iterator@?$vector@UMINIGMAME_PRIZE_LIST@CRainbowRaceMng@@V?$allocator@UMINIGMAME_PRIZE_LIST@CRainbowRaceMng@@@std@@@std@@QAE@PAUMINIGMAME_PRIZE_LIST@CRainbowRaceMng@@@Z
_TEXT	SEGMENT PARA USE32 PUBLIC 'CODE'
_TEXT	ENDS
;	COMDAT ??Hiterator@?$vector@UMINIGMAME_PRIZE_LIST@CRainbowRaceMng@@V?$allocator@UMINIGMAME_PRIZE_LIST@CRainbowRaceMng@@@std@@@std@@QBE?AV012@H@Z
_TEXT	SEGMENT PARA USE32 PUBLIC 'CODE'
_TEXT	ENDS
;	COMDAT ??Giterator@?$vector@UMINIGMAME_PRIZE_LIST@CRainbowRaceMng@@V?$allocator@UMINIGMAME_PRIZE_LIST@CRainbowRaceMng@@@std@@@std@@QBEHABVconst_iterator@12@@Z
_TEXT	SEGMENT PARA USE32 PUBLIC 'CODE'
_TEXT	ENDS
;	COMDAT ??0iterator@?$vector@PAVCMiniGameBase@@V?$allocator@PAVCMiniGameBase@@@std@@@std@@QAE@PAPAVCMiniGameBase@@@Z
_TEXT	SEGMENT PARA USE32 PUBLIC 'CODE'
_TEXT	ENDS
;	COMDAT ??Yiterator@?$vector@PAVCMiniGameBase@@V?$allocator@PAVCMiniGameBase@@@std@@@std@@QAEAAV012@H@Z
_TEXT	SEGMENT PARA USE32 PUBLIC 'CODE'
_TEXT	ENDS
;	COMDAT ??Dconst_iterator@?$vector@PAVCMiniGameBase@@V?$allocator@PAVCMiniGameBase@@@std@@@std@@QBEABQAVCMiniGameBase@@XZ
_TEXT	SEGMENT PARA USE32 PUBLIC 'CODE'
_TEXT	ENDS
;	COMDAT ??0iterator@?$vector@UGuildHouse_Furniture_Info@CGuildHouseBase@@V?$allocator@UGuildHouse_Furniture_Info@CGuildHouseBase@@@std@@@std@@QAE@PAUGuildHouse_Furniture_Info@CGuildHouseBase@@@Z
_TEXT	SEGMENT PARA USE32 PUBLIC 'CODE'
_TEXT	ENDS
;	COMDAT ??Yiterator@?$vector@UGuildHouse_Furniture_Info@CGuildHouseBase@@V?$allocator@UGuildHouse_Furniture_Info@CGuildHouseBase@@@std@@@std@@QAEAAV012@H@Z
_TEXT	SEGMENT PARA USE32 PUBLIC 'CODE'
_TEXT	ENDS
;	COMDAT ??Dconst_iterator@?$vector@UGuildHouse_Furniture_Info@CGuildHouseBase@@V?$allocator@UGuildHouse_Furniture_Info@CGuildHouseBase@@@std@@@std@@QBEABUGuildHouse_Furniture_Info@CGuildHouseBase@@XZ
_TEXT	SEGMENT PARA USE32 PUBLIC 'CODE'
_TEXT	ENDS
;	COMDAT ??0?$pair@Viterator@?$_Tree@V?$_Tmap_traits@KKU?$less@K@std@@V?$allocator@U?$pair@$$CBKK@std@@@2@$0A@@std@@@std@@V123@@std@@QAE@ABViterator@?$_Tree@V?$_Tmap_traits@KKU?$less@K@std@@V?$allocator@U?$pair@$$CBKK@std@@@2@$0A@@std@@@1@0@Z
_TEXT	SEGMENT PARA USE32 PUBLIC 'CODE'
_TEXT	ENDS
;	COMDAT ?max_size@?$allocator@V?$basic_string@DU?$char_traits@D@std@@V?$allocator@D@2@@std@@@std@@QBEIXZ
_TEXT	SEGMENT PARA USE32 PUBLIC 'CODE'
_TEXT	ENDS
;	COMDAT ??0const_iterator@?$_Tree@V?$_Tmap_traits@KPAVCCtrl@@U?$less@K@std@@V?$allocator@U?$pair@$$CBKPAVCCtrl@@@std@@@3@$0A@@std@@@std@@QAE@XZ
_TEXT	SEGMENT PARA USE32 PUBLIC 'CODE'
_TEXT	ENDS
;	COMDAT ?destroy@?$allocator@PAUtagACTMSG@@@std@@QAEXPAPAUtagACTMSG@@@Z
_TEXT	SEGMENT PARA USE32 PUBLIC 'CODE'
_TEXT	ENDS
;	COMDAT ?destroy@?$allocator@PAUtagMAGICATKMSG@@@std@@QAEXPAPAUtagMAGICATKMSG@@@Z
_TEXT	SEGMENT PARA USE32 PUBLIC 'CODE'
_TEXT	ENDS
;	COMDAT ?_Color@?$_Tree@V?$_Tmap_traits@KU_Friend@@U?$less@K@std@@V?$allocator@U?$pair@$$CBKU_Friend@@@std@@@3@$0A@@std@@@std@@KAAADPAU_Node@?$_Tree_nod@V?$_Tmap_traits@KU_Friend@@U?$less@K@std@@V?$allocator@U?$pair@$$CBKU_Friend@@@std@@@3@$0A@@std@@@2@@Z
_TEXT	SEGMENT PARA USE32 PUBLIC 'CODE'
_TEXT	ENDS
;	COMDAT ?_Isnil@?$_Tree@V?$_Tmap_traits@KU_Friend@@U?$less@K@std@@V?$allocator@U?$pair@$$CBKU_Friend@@@std@@@3@$0A@@std@@@std@@KAAADPAU_Node@?$_Tree_nod@V?$_Tmap_traits@KU_Friend@@U?$less@K@std@@V?$allocator@U?$pair@$$CBKU_Friend@@@std@@@3@$0A@@std@@@2@@Z
_TEXT	SEGMENT PARA USE32 PUBLIC 'CODE'
_TEXT	ENDS
;	COMDAT ?_Left@?$_Tree@V?$_Tmap_traits@KU_Friend@@U?$less@K@std@@V?$allocator@U?$pair@$$CBKU_Friend@@@std@@@3@$0A@@std@@@std@@KAAAPAU_Node@?$_Tree_nod@V?$_Tmap_traits@KU_Friend@@U?$less@K@std@@V?$allocator@U?$pair@$$CBKU_Friend@@@std@@@3@$0A@@std@@@2@PAU342@@Z
_TEXT	SEGMENT PARA USE32 PUBLIC 'CODE'
_TEXT	ENDS
;	COMDAT ?_Parent@?$_Tree@V?$_Tmap_traits@KU_Friend@@U?$less@K@std@@V?$allocator@U?$pair@$$CBKU_Friend@@@std@@@3@$0A@@std@@@std@@KAAAPAU_Node@?$_Tree_nod@V?$_Tmap_traits@KU_Friend@@U?$less@K@std@@V?$allocator@U?$pair@$$CBKU_Friend@@@std@@@3@$0A@@std@@@2@PAU342@@Z
_TEXT	SEGMENT PARA USE32 PUBLIC 'CODE'
_TEXT	ENDS
;	COMDAT ?_Right@?$_Tree@V?$_Tmap_traits@KU_Friend@@U?$less@K@std@@V?$allocator@U?$pair@$$CBKU_Friend@@@std@@@3@$0A@@std@@@std@@KAAAPAU_Node@?$_Tree_nod@V?$_Tmap_traits@KU_Friend@@U?$less@K@std@@V?$allocator@U?$pair@$$CBKU_Friend@@@std@@@3@$0A@@std@@@2@PAU342@@Z
_TEXT	SEGMENT PARA USE32 PUBLIC 'CODE'
_TEXT	ENDS
;	COMDAT ?_Erase@?$_Tree@V?$_Tmap_traits@KU_Friend@@U?$less@K@std@@V?$allocator@U?$pair@$$CBKU_Friend@@@std@@@3@$0A@@std@@@std@@IAEXPAU_Node@?$_Tree_nod@V?$_Tmap_traits@KU_Friend@@U?$less@K@std@@V?$allocator@U?$pair@$$CBKU_Friend@@@std@@@3@$0A@@std@@@2@@Z
_TEXT	SEGMENT PARA USE32 PUBLIC 'CODE'
_TEXT	ENDS
;	COMDAT ?_Lbound@?$_Tree@V?$_Tmap_traits@KU_Friend@@U?$less@K@std@@V?$allocator@U?$pair@$$CBKU_Friend@@@std@@@3@$0A@@std@@@std@@IBEPAU_Node@?$_Tree_nod@V?$_Tmap_traits@KU_Friend@@U?$less@K@std@@V?$allocator@U?$pair@$$CBKU_Friend@@@std@@@3@$0A@@std@@@2@ABK@Z
_TEXT	SEGMENT PARA USE32 PUBLIC 'CODE'
_TEXT	ENDS
;	COMDAT ?_Lmost@?$_Tree@V?$_Tmap_traits@KU_Friend@@U?$less@K@std@@V?$allocator@U?$pair@$$CBKU_Friend@@@std@@@3@$0A@@std@@@std@@IAEAAPAU_Node@?$_Tree_nod@V?$_Tmap_traits@KU_Friend@@U?$less@K@std@@V?$allocator@U?$pair@$$CBKU_Friend@@@std@@@3@$0A@@std@@@2@XZ
_TEXT	SEGMENT PARA USE32 PUBLIC 'CODE'
_TEXT	ENDS
;	COMDAT ?_Lrotate@?$_Tree@V?$_Tmap_traits@KU_Friend@@U?$less@K@std@@V?$allocator@U?$pair@$$CBKU_Friend@@@std@@@3@$0A@@std@@@std@@IAEXPAU_Node@?$_Tree_nod@V?$_Tmap_traits@KU_Friend@@U?$less@K@std@@V?$allocator@U?$pair@$$CBKU_Friend@@@std@@@3@$0A@@std@@@2@@Z
_TEXT	SEGMENT PARA USE32 PUBLIC 'CODE'
_TEXT	ENDS
;	COMDAT ?_Max@?$_Tree@V?$_Tmap_traits@KU_Friend@@U?$less@K@std@@V?$allocator@U?$pair@$$CBKU_Friend@@@std@@@3@$0A@@std@@@std@@KAPAU_Node@?$_Tree_nod@V?$_Tmap_traits@KU_Friend@@U?$less@K@std@@V?$allocator@U?$pair@$$CBKU_Friend@@@std@@@3@$0A@@std@@@2@PAU342@@Z
_TEXT	SEGMENT PARA USE32 PUBLIC 'CODE'
_TEXT	ENDS
;	COMDAT ?_Min@?$_Tree@V?$_Tmap_traits@KU_Friend@@U?$less@K@std@@V?$allocator@U?$pair@$$CBKU_Friend@@@std@@@3@$0A@@std@@@std@@KAPAU_Node@?$_Tree_nod@V?$_Tmap_traits@KU_Friend@@U?$less@K@std@@V?$allocator@U?$pair@$$CBKU_Friend@@@std@@@3@$0A@@std@@@2@PAU342@@Z
_TEXT	SEGMENT PARA USE32 PUBLIC 'CODE'
_TEXT	ENDS
;	COMDAT ?_Rmost@?$_Tree@V?$_Tmap_traits@KU_Friend@@U?$less@K@std@@V?$allocator@U?$pair@$$CBKU_Friend@@@std@@@3@$0A@@std@@@std@@IAEAAPAU_Node@?$_Tree_nod@V?$_Tmap_traits@KU_Friend@@U?$less@K@std@@V?$allocator@U?$pair@$$CBKU_Friend@@@std@@@3@$0A@@std@@@2@XZ
_TEXT	SEGMENT PARA USE32 PUBLIC 'CODE'
_TEXT	ENDS
;	COMDAT ?_Root@?$_Tree@V?$_Tmap_traits@KU_Friend@@U?$less@K@std@@V?$allocator@U?$pair@$$CBKU_Friend@@@std@@@3@$0A@@std@@@std@@IAEAAPAU_Node@?$_Tree_nod@V?$_Tmap_traits@KU_Friend@@U?$less@K@std@@V?$allocator@U?$pair@$$CBKU_Friend@@@std@@@3@$0A@@std@@@2@XZ
_TEXT	SEGMENT PARA USE32 PUBLIC 'CODE'
_TEXT	ENDS
;	COMDAT ?_Rrotate@?$_Tree@V?$_Tmap_traits@KU_Friend@@U?$less@K@std@@V?$allocator@U?$pair@$$CBKU_Friend@@@std@@@3@$0A@@std@@@std@@IAEXPAU_Node@?$_Tree_nod@V?$_Tmap_traits@KU_Friend@@U?$less@K@std@@V?$allocator@U?$pair@$$CBKU_Friend@@@std@@@3@$0A@@std@@@2@@Z
_TEXT	SEGMENT PARA USE32 PUBLIC 'CODE'
_TEXT	ENDS
;	COMDAT ?_Ubound@?$_Tree@V?$_Tmap_traits@KU_Friend@@U?$less@K@std@@V?$allocator@U?$pair@$$CBKU_Friend@@@std@@@3@$0A@@std@@@std@@IBEPAU_Node@?$_Tree_nod@V?$_Tmap_traits@KU_Friend@@U?$less@K@std@@V?$allocator@U?$pair@$$CBKU_Friend@@@std@@@3@$0A@@std@@@2@ABK@Z
_TEXT	SEGMENT PARA USE32 PUBLIC 'CODE'
_TEXT	ENDS
;	COMDAT ?deallocate@?$allocator@U_Node@?$_Tree_nod@V?$_Tmap_traits@KU_Friend@@U?$less@K@std@@V?$allocator@U?$pair@$$CBKU_Friend@@@std@@@3@$0A@@std@@@std@@@std@@QAEXPAU_Node@?$_Tree_nod@V?$_Tmap_traits@KU_Friend@@U?$less@K@std@@V?$allocator@U?$pair@$$CBKU_Friend@@@std@@@3@$0A@@std@@@2@I@Z
_TEXT	SEGMENT PARA USE32 PUBLIC 'CODE'
_TEXT	ENDS
;	COMDAT ?destroy@?$allocator@U_Node@?$_Tree_nod@V?$_Tmap_traits@KU_Friend@@U?$less@K@std@@V?$allocator@U?$pair@$$CBKU_Friend@@@std@@@3@$0A@@std@@@std@@@std@@QAEXPAU_Node@?$_Tree_nod@V?$_Tmap_traits@KU_Friend@@U?$less@K@std@@V?$allocator@U?$pair@$$CBKU_Friend@@@std@@@3@$0A@@std@@@2@@Z
_TEXT	SEGMENT PARA USE32 PUBLIC 'CODE'
_TEXT	ENDS
;	COMDAT ??0iterator@?$_Tree@V?$_Tmap_traits@KU_Friend@@U?$less@K@std@@V?$allocator@U?$pair@$$CBKU_Friend@@@std@@@3@$0A@@std@@@std@@QAE@PAU_Node@?$_Tree_nod@V?$_Tmap_traits@KU_Friend@@U?$less@K@std@@V?$allocator@U?$pair@$$CBKU_Friend@@@std@@@3@$0A@@std@@@2@@Z
_TEXT	SEGMENT PARA USE32 PUBLIC 'CODE'
_TEXT	ENDS
;	COMDAT ??Eiterator@?$_Tree@V?$_Tmap_traits@KU_Friend@@U?$less@K@std@@V?$allocator@U?$pair@$$CBKU_Friend@@@std@@@3@$0A@@std@@@std@@QAEAAV012@XZ
_TEXT	SEGMENT PARA USE32 PUBLIC 'CODE'
_TEXT	ENDS
;	COMDAT ?_Mynode@const_iterator@?$_Tree@V?$_Tmap_traits@KU_Friend@@U?$less@K@std@@V?$allocator@U?$pair@$$CBKU_Friend@@@std@@@3@$0A@@std@@@std@@QBEPAU_Node@?$_Tree_nod@V?$_Tmap_traits@KU_Friend@@U?$less@K@std@@V?$allocator@U?$pair@$$CBKU_Friend@@@std@@@3@$0A@@std@@@3@XZ
_TEXT	SEGMENT PARA USE32 PUBLIC 'CODE'
_TEXT	ENDS
;	COMDAT ?max_size@?$allocator@U__SECRETROOM_MONSTER@@@std@@QBEIXZ
_TEXT	SEGMENT PARA USE32 PUBLIC 'CODE'
_TEXT	ENDS
;	COMDAT ?max_size@?$vector@UMINIGMAME_PRIZE_LIST@CRainbowRaceMng@@V?$allocator@UMINIGMAME_PRIZE_LIST@CRainbowRaceMng@@@std@@@std@@QBEIXZ
_TEXT	SEGMENT PARA USE32 PUBLIC 'CODE'
_TEXT	ENDS
;	COMDAT ?_Destroy@?$vector@UMINIGMAME_PRIZE_LIST@CRainbowRaceMng@@V?$allocator@UMINIGMAME_PRIZE_LIST@CRainbowRaceMng@@@std@@@std@@IAEXPAUMINIGMAME_PRIZE_LIST@CRainbowRaceMng@@0@Z
_TEXT	SEGMENT PARA USE32 PUBLIC 'CODE'
_TEXT	ENDS
;	COMDAT ?_Xlen@?$vector@UMINIGMAME_PRIZE_LIST@CRainbowRaceMng@@V?$allocator@UMINIGMAME_PRIZE_LIST@CRainbowRaceMng@@@std@@@std@@IBEXXZ
_TEXT	SEGMENT PARA USE32 PUBLIC 'CODE'
_TEXT	ENDS
;	COMDAT ?deallocate@?$allocator@UMINIGMAME_PRIZE_LIST@CRainbowRaceMng@@@std@@QAEXPAUMINIGMAME_PRIZE_LIST@CRainbowRaceMng@@I@Z
_TEXT	SEGMENT PARA USE32 PUBLIC 'CODE'
_TEXT	ENDS
;	COMDAT ?allocate@?$allocator@UMINIGMAME_PRIZE_LIST@CRainbowRaceMng@@@std@@QAEPAUMINIGMAME_PRIZE_LIST@CRainbowRaceMng@@I@Z
_TEXT	SEGMENT PARA USE32 PUBLIC 'CODE'
_TEXT	ENDS
;	COMDAT ?max_size@?$allocator@U?$pair@$$CBKPAVCGuildHouseBase@@@std@@@std@@QBEIXZ
_TEXT	SEGMENT PARA USE32 PUBLIC 'CODE'
_TEXT	ENDS
;	COMDAT ?deallocate@?$allocator@U_Node@?$_Tree_nod@V?$_Tmap_traits@KPAVCGuildHouseBase@@U?$less@K@std@@V?$allocator@U?$pair@$$CBKPAVCGuildHouseBase@@@std@@@3@$0A@@std@@@std@@@std@@QAEXPAU_Node@?$_Tree_nod@V?$_Tmap_traits@KPAVCGuildHouseBase@@U?$less@K@std@@V?$allocator@U?$pair@$$CBKPAVCGuildHouseBase@@@std@@@3@$0A@@std@@@2@I@Z
_TEXT	SEGMENT PARA USE32 PUBLIC 'CODE'
_TEXT	ENDS
;	COMDAT ?allocate@?$allocator@U_Node@?$_Tree_nod@V?$_Tmap_traits@KPAVCGuildHouseBase@@U?$less@K@std@@V?$allocator@U?$pair@$$CBKPAVCGuildHouseBase@@@std@@@3@$0A@@std@@@std@@@std@@QAEPAU_Node@?$_Tree_nod@V?$_Tmap_traits@KPAVCGuildHouseBase@@U?$less@K@std@@V?$allocator@U?$pair@$$CBKPAVCGuildHouseBase@@@std@@@3@$0A@@std@@@2@I@Z
_TEXT	SEGMENT PARA USE32 PUBLIC 'CODE'
_TEXT	ENDS
;	COMDAT ?_Dec@const_iterator@?$_Tree@V?$_Tmap_traits@KPAVCGuildHouseBase@@U?$less@K@std@@V?$allocator@U?$pair@$$CBKPAVCGuildHouseBase@@@std@@@3@$0A@@std@@@std@@QAEXXZ
_TEXT	SEGMENT PARA USE32 PUBLIC 'CODE'
_TEXT	ENDS
;	COMDAT ?_Color@?$_Tree@V?$_Tmap_traits@KKU?$less@K@std@@V?$allocator@U?$pair@$$CBKK@std@@@2@$0A@@std@@@std@@KAAADPAU_Node@?$_Tree_nod@V?$_Tmap_traits@KKU?$less@K@std@@V?$allocator@U?$pair@$$CBKK@std@@@2@$0A@@std@@@2@@Z
_TEXT	SEGMENT PARA USE32 PUBLIC 'CODE'
_TEXT	ENDS
;	COMDAT ?_Isnil@?$_Tree@V?$_Tmap_traits@KKU?$less@K@std@@V?$allocator@U?$pair@$$CBKK@std@@@2@$0A@@std@@@std@@KAAADPAU_Node@?$_Tree_nod@V?$_Tmap_traits@KKU?$less@K@std@@V?$allocator@U?$pair@$$CBKK@std@@@2@$0A@@std@@@2@@Z
_TEXT	SEGMENT PARA USE32 PUBLIC 'CODE'
_TEXT	ENDS
;	COMDAT ?_Left@?$_Tree@V?$_Tmap_traits@KKU?$less@K@std@@V?$allocator@U?$pair@$$CBKK@std@@@2@$0A@@std@@@std@@KAAAPAU_Node@?$_Tree_nod@V?$_Tmap_traits@KKU?$less@K@std@@V?$allocator@U?$pair@$$CBKK@std@@@2@$0A@@std@@@2@PAU342@@Z
_TEXT	SEGMENT PARA USE32 PUBLIC 'CODE'
_TEXT	ENDS
;	COMDAT ?_Parent@?$_Tree@V?$_Tmap_traits@KKU?$less@K@std@@V?$allocator@U?$pair@$$CBKK@std@@@2@$0A@@std@@@std@@KAAAPAU_Node@?$_Tree_nod@V?$_Tmap_traits@KKU?$less@K@std@@V?$allocator@U?$pair@$$CBKK@std@@@2@$0A@@std@@@2@PAU342@@Z
_TEXT	SEGMENT PARA USE32 PUBLIC 'CODE'
_TEXT	ENDS
;	COMDAT ?_Right@?$_Tree@V?$_Tmap_traits@KKU?$less@K@std@@V?$allocator@U?$pair@$$CBKK@std@@@2@$0A@@std@@@std@@KAAAPAU_Node@?$_Tree_nod@V?$_Tmap_traits@KKU?$less@K@std@@V?$allocator@U?$pair@$$CBKK@std@@@2@$0A@@std@@@2@PAU342@@Z
_TEXT	SEGMENT PARA USE32 PUBLIC 'CODE'
_TEXT	ENDS
;	COMDAT ?_Erase@?$_Tree@V?$_Tmap_traits@KKU?$less@K@std@@V?$allocator@U?$pair@$$CBKK@std@@@2@$0A@@std@@@std@@IAEXPAU_Node@?$_Tree_nod@V?$_Tmap_traits@KKU?$less@K@std@@V?$allocator@U?$pair@$$CBKK@std@@@2@$0A@@std@@@2@@Z
_TEXT	SEGMENT PARA USE32 PUBLIC 'CODE'
_TEXT	ENDS
;	COMDAT ?_Lbound@?$_Tree@V?$_Tmap_traits@KKU?$less@K@std@@V?$allocator@U?$pair@$$CBKK@std@@@2@$0A@@std@@@std@@IBEPAU_Node@?$_Tree_nod@V?$_Tmap_traits@KKU?$less@K@std@@V?$allocator@U?$pair@$$CBKK@std@@@2@$0A@@std@@@2@ABK@Z
_TEXT	SEGMENT PARA USE32 PUBLIC 'CODE'
_TEXT	ENDS
;	COMDAT ?_Lmost@?$_Tree@V?$_Tmap_traits@KKU?$less@K@std@@V?$allocator@U?$pair@$$CBKK@std@@@2@$0A@@std@@@std@@IAEAAPAU_Node@?$_Tree_nod@V?$_Tmap_traits@KKU?$less@K@std@@V?$allocator@U?$pair@$$CBKK@std@@@2@$0A@@std@@@2@XZ
_TEXT	SEGMENT PARA USE32 PUBLIC 'CODE'
_TEXT	ENDS
;	COMDAT ?_Lrotate@?$_Tree@V?$_Tmap_traits@KKU?$less@K@std@@V?$allocator@U?$pair@$$CBKK@std@@@2@$0A@@std@@@std@@IAEXPAU_Node@?$_Tree_nod@V?$_Tmap_traits@KKU?$less@K@std@@V?$allocator@U?$pair@$$CBKK@std@@@2@$0A@@std@@@2@@Z
_TEXT	SEGMENT PARA USE32 PUBLIC 'CODE'
_TEXT	ENDS
;	COMDAT ?_Max@?$_Tree@V?$_Tmap_traits@KKU?$less@K@std@@V?$allocator@U?$pair@$$CBKK@std@@@2@$0A@@std@@@std@@KAPAU_Node@?$_Tree_nod@V?$_Tmap_traits@KKU?$less@K@std@@V?$allocator@U?$pair@$$CBKK@std@@@2@$0A@@std@@@2@PAU342@@Z
_TEXT	SEGMENT PARA USE32 PUBLIC 'CODE'
_TEXT	ENDS
;	COMDAT ?_Min@?$_Tree@V?$_Tmap_traits@KKU?$less@K@std@@V?$allocator@U?$pair@$$CBKK@std@@@2@$0A@@std@@@std@@KAPAU_Node@?$_Tree_nod@V?$_Tmap_traits@KKU?$less@K@std@@V?$allocator@U?$pair@$$CBKK@std@@@2@$0A@@std@@@2@PAU342@@Z
_TEXT	SEGMENT PARA USE32 PUBLIC 'CODE'
_TEXT	ENDS
;	COMDAT ?_Rmost@?$_Tree@V?$_Tmap_traits@KKU?$less@K@std@@V?$allocator@U?$pair@$$CBKK@std@@@2@$0A@@std@@@std@@IAEAAPAU_Node@?$_Tree_nod@V?$_Tmap_traits@KKU?$less@K@std@@V?$allocator@U?$pair@$$CBKK@std@@@2@$0A@@std@@@2@XZ
_TEXT	SEGMENT PARA USE32 PUBLIC 'CODE'
_TEXT	ENDS
;	COMDAT ?_Root@?$_Tree@V?$_Tmap_traits@KKU?$less@K@std@@V?$allocator@U?$pair@$$CBKK@std@@@2@$0A@@std@@@std@@IAEAAPAU_Node@?$_Tree_nod@V?$_Tmap_traits@KKU?$less@K@std@@V?$allocator@U?$pair@$$CBKK@std@@@2@$0A@@std@@@2@XZ
_TEXT	SEGMENT PARA USE32 PUBLIC 'CODE'
_TEXT	ENDS
;	COMDAT ?_Rrotate@?$_Tree@V?$_Tmap_traits@KKU?$less@K@std@@V?$allocator@U?$pair@$$CBKK@std@@@2@$0A@@std@@@std@@IAEXPAU_Node@?$_Tree_nod@V?$_Tmap_traits@KKU?$less@K@std@@V?$allocator@U?$pair@$$CBKK@std@@@2@$0A@@std@@@2@@Z
_TEXT	SEGMENT PARA USE32 PUBLIC 'CODE'
_TEXT	ENDS
;	COMDAT ?_Ubound@?$_Tree@V?$_Tmap_traits@KKU?$less@K@std@@V?$allocator@U?$pair@$$CBKK@std@@@2@$0A@@std@@@std@@IBEPAU_Node@?$_Tree_nod@V?$_Tmap_traits@KKU?$less@K@std@@V?$allocator@U?$pair@$$CBKK@std@@@2@$0A@@std@@@2@ABK@Z
_TEXT	SEGMENT PARA USE32 PUBLIC 'CODE'
_TEXT	ENDS
;	COMDAT ?deallocate@?$allocator@U_Node@?$_Tree_nod@V?$_Tmap_traits@KKU?$less@K@std@@V?$allocator@U?$pair@$$CBKK@std@@@2@$0A@@std@@@std@@@std@@QAEXPAU_Node@?$_Tree_nod@V?$_Tmap_traits@KKU?$less@K@std@@V?$allocator@U?$pair@$$CBKK@std@@@2@$0A@@std@@@2@I@Z
_TEXT	SEGMENT PARA USE32 PUBLIC 'CODE'
_TEXT	ENDS
;	COMDAT ?destroy@?$allocator@U_Node@?$_Tree_nod@V?$_Tmap_traits@KKU?$less@K@std@@V?$allocator@U?$pair@$$CBKK@std@@@2@$0A@@std@@@std@@@std@@QAEXPAU_Node@?$_Tree_nod@V?$_Tmap_traits@KKU?$less@K@std@@V?$allocator@U?$pair@$$CBKK@std@@@2@$0A@@std@@@2@@Z
_TEXT	SEGMENT PARA USE32 PUBLIC 'CODE'
_TEXT	ENDS
;	COMDAT ??0iterator@?$_Tree@V?$_Tmap_traits@KKU?$less@K@std@@V?$allocator@U?$pair@$$CBKK@std@@@2@$0A@@std@@@std@@QAE@PAU_Node@?$_Tree_nod@V?$_Tmap_traits@KKU?$less@K@std@@V?$allocator@U?$pair@$$CBKK@std@@@2@$0A@@std@@@2@@Z
_TEXT	SEGMENT PARA USE32 PUBLIC 'CODE'
_TEXT	ENDS
;	COMDAT ??Eiterator@?$_Tree@V?$_Tmap_traits@KKU?$less@K@std@@V?$allocator@U?$pair@$$CBKK@std@@@2@$0A@@std@@@std@@QAEAAV012@XZ
_TEXT	SEGMENT PARA USE32 PUBLIC 'CODE'
_TEXT	ENDS
;	COMDAT ?_Mynode@const_iterator@?$_Tree@V?$_Tmap_traits@KKU?$less@K@std@@V?$allocator@U?$pair@$$CBKK@std@@@2@$0A@@std@@@std@@QBEPAU_Node@?$_Tree_nod@V?$_Tmap_traits@KKU?$less@K@std@@V?$allocator@U?$pair@$$CBKK@std@@@2@$0A@@std@@@3@XZ
_TEXT	SEGMENT PARA USE32 PUBLIC 'CODE'
_TEXT	ENDS
;	COMDAT ??0const_iterator@?$vector@PAU__JOINPLAYER@CGuildCombat@@V?$allocator@PAU__JOINPLAYER@CGuildCombat@@@std@@@std@@QAE@PAPAU__JOINPLAYER@CGuildCombat@@@Z
_TEXT	SEGMENT PARA USE32 PUBLIC 'CODE'
_TEXT	ENDS
;	COMDAT ??0const_iterator@?$vector@V?$basic_string@DU?$char_traits@D@std@@V?$allocator@D@2@@std@@V?$allocator@V?$basic_string@DU?$char_traits@D@std@@V?$allocator@D@2@@std@@@2@@std@@QAE@PAV?$basic_string@DU?$char_traits@D@std@@V?$allocator@D@2@@2@@Z
_TEXT	SEGMENT PARA USE32 PUBLIC 'CODE'
_TEXT	ENDS
;	COMDAT ??Gconst_iterator@?$vector@V?$basic_string@DU?$char_traits@D@std@@V?$allocator@D@2@@std@@V?$allocator@V?$basic_string@DU?$char_traits@D@std@@V?$allocator@D@2@@std@@@2@@std@@QBEHABV012@@Z
_TEXT	SEGMENT PARA USE32 PUBLIC 'CODE'
_TEXT	ENDS
;	COMDAT ??Yiterator@?$vector@UMINIGMAME_PRIZE_LIST@CRainbowRaceMng@@V?$allocator@UMINIGMAME_PRIZE_LIST@CRainbowRaceMng@@@std@@@std@@QAEAAV012@H@Z
_TEXT	SEGMENT PARA USE32 PUBLIC 'CODE'
_TEXT	ENDS
;	COMDAT ??0const_iterator@?$vector@UMINIGMAME_PRIZE_LIST@CRainbowRaceMng@@V?$allocator@UMINIGMAME_PRIZE_LIST@CRainbowRaceMng@@@std@@@std@@QAE@PAUMINIGMAME_PRIZE_LIST@CRainbowRaceMng@@@Z
_TEXT	SEGMENT PARA USE32 PUBLIC 'CODE'
_TEXT	ENDS
;	COMDAT ??Gconst_iterator@?$vector@UMINIGMAME_PRIZE_LIST@CRainbowRaceMng@@V?$allocator@UMINIGMAME_PRIZE_LIST@CRainbowRaceMng@@@std@@@std@@QBEHABV012@@Z
_TEXT	SEGMENT PARA USE32 PUBLIC 'CODE'
_TEXT	ENDS
;	COMDAT ??0const_iterator@?$vector@PAVCMiniGameBase@@V?$allocator@PAVCMiniGameBase@@@std@@@std@@QAE@PAPAVCMiniGameBase@@@Z
_TEXT	SEGMENT PARA USE32 PUBLIC 'CODE'
_TEXT	ENDS
;	COMDAT ??0const_iterator@?$vector@UGuildHouse_Furniture_Info@CGuildHouseBase@@V?$allocator@UGuildHouse_Furniture_Info@CGuildHouseBase@@@std@@@std@@QAE@PAUGuildHouse_Furniture_Info@CGuildHouseBase@@@Z
_TEXT	SEGMENT PARA USE32 PUBLIC 'CODE'
_TEXT	ENDS
;	COMDAT ??0_Node@?$_Tree_nod@V?$_Tmap_traits@KPAVCGuildHouseBase@@U?$less@K@std@@V?$allocator@U?$pair@$$CBKPAVCGuildHouseBase@@@std@@@3@$0A@@std@@@std@@QAE@PAU012@00ABU?$pair@$$CBKPAVCGuildHouseBase@@@2@D@Z
_TEXT	SEGMENT PARA USE32 PUBLIC 'CODE'
_TEXT	ENDS
;	COMDAT ?_Key@?$_Tree@V?$_Tmap_traits@KU_Friend@@U?$less@K@std@@V?$allocator@U?$pair@$$CBKU_Friend@@@std@@@3@$0A@@std@@@std@@KAABKPAU_Node@?$_Tree_nod@V?$_Tmap_traits@KU_Friend@@U?$less@K@std@@V?$allocator@U?$pair@$$CBKU_Friend@@@std@@@3@$0A@@std@@@2@@Z
_TEXT	SEGMENT PARA USE32 PUBLIC 'CODE'
_TEXT	ENDS
;	COMDAT ?_Root@?$_Tree@V?$_Tmap_traits@KU_Friend@@U?$less@K@std@@V?$allocator@U?$pair@$$CBKU_Friend@@@std@@@3@$0A@@std@@@std@@IBEAAPAU_Node@?$_Tree_nod@V?$_Tmap_traits@KU_Friend@@U?$less@K@std@@V?$allocator@U?$pair@$$CBKU_Friend@@@std@@@3@$0A@@std@@@2@XZ
_TEXT	SEGMENT PARA USE32 PUBLIC 'CODE'
_TEXT	ENDS
;	COMDAT ??0const_iterator@?$_Tree@V?$_Tmap_traits@KU_Friend@@U?$less@K@std@@V?$allocator@U?$pair@$$CBKU_Friend@@@std@@@3@$0A@@std@@@std@@QAE@PAU_Node@?$_Tree_nod@V?$_Tmap_traits@KU_Friend@@U?$less@K@std@@V?$allocator@U?$pair@$$CBKU_Friend@@@std@@@3@$0A@@std@@@2@@Z
_TEXT	SEGMENT PARA USE32 PUBLIC 'CODE'
_TEXT	ENDS
;	COMDAT ??Econst_iterator@?$_Tree@V?$_Tmap_traits@KU_Friend@@U?$less@K@std@@V?$allocator@U?$pair@$$CBKU_Friend@@@std@@@3@$0A@@std@@@std@@QAEAAV012@XZ
_TEXT	SEGMENT PARA USE32 PUBLIC 'CODE'
_TEXT	ENDS
;	COMDAT ?max_size@?$allocator@UMINIGMAME_PRIZE_LIST@CRainbowRaceMng@@@std@@QBEIXZ
_TEXT	SEGMENT PARA USE32 PUBLIC 'CODE'
_TEXT	ENDS
;	COMDAT ?_Max@?$_Tree@V?$_Tmap_traits@KPAVCGuildHouseBase@@U?$less@K@std@@V?$allocator@U?$pair@$$CBKPAVCGuildHouseBase@@@std@@@3@$0A@@std@@@std@@KAPAU_Node@?$_Tree_nod@V?$_Tmap_traits@KPAVCGuildHouseBase@@U?$less@K@std@@V?$allocator@U?$pair@$$CBKPAVCGuildHouseBase@@@std@@@3@$0A@@std@@@2@PAU342@@Z
_TEXT	SEGMENT PARA USE32 PUBLIC 'CODE'
_TEXT	ENDS
;	COMDAT ?_Key@?$_Tree@V?$_Tmap_traits@KKU?$less@K@std@@V?$allocator@U?$pair@$$CBKK@std@@@2@$0A@@std@@@std@@KAABKPAU_Node@?$_Tree_nod@V?$_Tmap_traits@KKU?$less@K@std@@V?$allocator@U?$pair@$$CBKK@std@@@2@$0A@@std@@@2@@Z
_TEXT	SEGMENT PARA USE32 PUBLIC 'CODE'
_TEXT	ENDS
;	COMDAT ?_Root@?$_Tree@V?$_Tmap_traits@KKU?$less@K@std@@V?$allocator@U?$pair@$$CBKK@std@@@2@$0A@@std@@@std@@IBEAAPAU_Node@?$_Tree_nod@V?$_Tmap_traits@KKU?$less@K@std@@V?$allocator@U?$pair@$$CBKK@std@@@2@$0A@@std@@@2@XZ
_TEXT	SEGMENT PARA USE32 PUBLIC 'CODE'
_TEXT	ENDS
;	COMDAT ??0const_iterator@?$_Tree@V?$_Tmap_traits@KKU?$less@K@std@@V?$allocator@U?$pair@$$CBKK@std@@@2@$0A@@std@@@std@@QAE@PAU_Node@?$_Tree_nod@V?$_Tmap_traits@KKU?$less@K@std@@V?$allocator@U?$pair@$$CBKK@std@@@2@$0A@@std@@@2@@Z
_TEXT	SEGMENT PARA USE32 PUBLIC 'CODE'
_TEXT	ENDS
;	COMDAT ??Econst_iterator@?$_Tree@V?$_Tmap_traits@KKU?$less@K@std@@V?$allocator@U?$pair@$$CBKK@std@@@2@$0A@@std@@@std@@QAEAAV012@XZ
_TEXT	SEGMENT PARA USE32 PUBLIC 'CODE'
_TEXT	ENDS
;	COMDAT ?_Myval@?$_Tree@V?$_Tmap_traits@KU_Friend@@U?$less@K@std@@V?$allocator@U?$pair@$$CBKU_Friend@@@std@@@3@$0A@@std@@@std@@KAAAU?$pair@$$CBKU_Friend@@@2@PAU_Node@?$_Tree_nod@V?$_Tmap_traits@KU_Friend@@U?$less@K@std@@V?$allocator@U?$pair@$$CBKU_Friend@@@std@@@3@$0A@@std@@@2@@Z
_TEXT	SEGMENT PARA USE32 PUBLIC 'CODE'
_TEXT	ENDS
;	COMDAT ?_Kfn@?$_Tmap_traits@KU_Friend@@U?$less@K@std@@V?$allocator@U?$pair@$$CBKU_Friend@@@std@@@3@$0A@@std@@SAABKABU?$pair@$$CBKU_Friend@@@2@@Z
_TEXT	SEGMENT PARA USE32 PUBLIC 'CODE'
_TEXT	ENDS
;	COMDAT ?_Inc@const_iterator@?$_Tree@V?$_Tmap_traits@KU_Friend@@U?$less@K@std@@V?$allocator@U?$pair@$$CBKU_Friend@@@std@@@3@$0A@@std@@@std@@QAEXXZ
_TEXT	SEGMENT PARA USE32 PUBLIC 'CODE'
_TEXT	ENDS
;	COMDAT ?_Myval@?$_Tree@V?$_Tmap_traits@KKU?$less@K@std@@V?$allocator@U?$pair@$$CBKK@std@@@2@$0A@@std@@@std@@KAAAU?$pair@$$CBKK@2@PAU_Node@?$_Tree_nod@V?$_Tmap_traits@KKU?$less@K@std@@V?$allocator@U?$pair@$$CBKK@std@@@2@$0A@@std@@@2@@Z
_TEXT	SEGMENT PARA USE32 PUBLIC 'CODE'
_TEXT	ENDS
;	COMDAT ?_Kfn@?$_Tmap_traits@KKU?$less@K@std@@V?$allocator@U?$pair@$$CBKK@std@@@2@$0A@@std@@SAABKABU?$pair@$$CBKK@2@@Z
_TEXT	SEGMENT PARA USE32 PUBLIC 'CODE'
_TEXT	ENDS
;	COMDAT ?_Inc@const_iterator@?$_Tree@V?$_Tmap_traits@KKU?$less@K@std@@V?$allocator@U?$pair@$$CBKK@std@@@2@$0A@@std@@@std@@QAEXXZ
_TEXT	SEGMENT PARA USE32 PUBLIC 'CODE'
_TEXT	ENDS
;	COMDAT ??$_Iter_cat@Vconst_iterator@?$vector@EV?$allocator@E@std@@@std@@@std@@YA?AUrandom_access_iterator_tag@0@ABVconst_iterator@?$vector@EV?$allocator@E@std@@@0@@Z
_TEXT	SEGMENT PARA USE32 PUBLIC 'CODE'
_TEXT	ENDS
;	COMDAT ??$_Assign@Vconst_iterator@?$vector@EV?$allocator@E@std@@@std@@@?$vector@EV?$allocator@E@std@@@std@@QAEXVconst_iterator@01@0Uinput_iterator_tag@1@@Z
_TEXT	SEGMENT PARA USE32 PUBLIC 'CODE'
_TEXT	ENDS
;	COMDAT ?SetItemContainer@?$CItemContainer@VCItemElem@@@@QAEXKKK@Z
_TEXT	SEGMENT PARA USE32 PUBLIC 'CODE'
_TEXT	ENDS
;	COMDAT ??0?$CItemContainer@VCItemElem@@@@QAE@XZ
_TEXT	SEGMENT PARA USE32 PUBLIC 'CODE'
_TEXT	ENDS
;	COMDAT ?IsEquip@?$CItemContainer@VCItemElem@@@@QAEHK@Z
_TEXT	SEGMENT PARA USE32 PUBLIC 'CODE'
_TEXT	ENDS
;	COMDAT ?Add@?$CItemContainer@VCItemElem@@@@QAEHPAVCItemElem@@PAEPAF1@Z
_TEXT	SEGMENT PARA USE32 PUBLIC 'CODE'
_TEXT	ENDS
;	COMDAT ?RemoveAtId@?$CItemContainer@VCItemElem@@@@QAEXK@Z
_TEXT	SEGMENT PARA USE32 PUBLIC 'CODE'
_TEXT	ENDS
;	COMDAT ??$_Iter_cat@Viterator@?$_Tree@V?$_Tmap_traits@KPAVCUser@@U?$less@K@std@@V?$allocator@U?$pair@$$CBKPAVCUser@@@std@@@3@$0A@@std@@@std@@@std@@YA?AUbidirectional_iterator_tag@0@ABViterator@?$_Tree@V?$_Tmap_traits@KPAVCUser@@U?$less@K@std@@V?$allocator@U?$pair@$$CBKPAVCUser@@@std@@@3@$0A@@std@@@0@@Z
_TEXT	SEGMENT PARA USE32 PUBLIC 'CODE'
_TEXT	ENDS
;	COMDAT ??$_Distance2@Viterator@?$_Tree@V?$_Tmap_traits@KPAVCUser@@U?$less@K@std@@V?$allocator@U?$pair@$$CBKPAVCUser@@@std@@@3@$0A@@std@@@std@@I@std@@YAXViterator@?$_Tree@V?$_Tmap_traits@KPAVCUser@@U?$less@K@std@@V?$allocator@U?$pair@$$CBKPAVCUser@@@std@@@3@$0A@@std@@@0@0AAIUbidirectional_iterator_tag@0@@Z
_TEXT	SEGMENT PARA USE32 PUBLIC 'CODE'
_TEXT	ENDS
;	COMDAT ??$_Iter_cat@Viterator@?$_Tree@V?$_Tmap_traits@KPAVCCtrl@@U?$less@K@std@@V?$allocator@U?$pair@$$CBKPAVCCtrl@@@std@@@3@$0A@@std@@@std@@@std@@YA?AUbidirectional_iterator_tag@0@ABViterator@?$_Tree@V?$_Tmap_traits@KPAVCCtrl@@U?$less@K@std@@V?$allocator@U?$pair@$$CBKPAVCCtrl@@@std@@@3@$0A@@std@@@0@@Z
_TEXT	SEGMENT PARA USE32 PUBLIC 'CODE'
_TEXT	ENDS
;	COMDAT ??$_Distance2@Viterator@?$_Tree@V?$_Tmap_traits@KPAVCCtrl@@U?$less@K@std@@V?$allocator@U?$pair@$$CBKPAVCCtrl@@@std@@@3@$0A@@std@@@std@@I@std@@YAXViterator@?$_Tree@V?$_Tmap_traits@KPAVCCtrl@@U?$less@K@std@@V?$allocator@U?$pair@$$CBKPAVCCtrl@@@std@@@3@$0A@@std@@@0@0AAIUbidirectional_iterator_tag@0@@Z
_TEXT	SEGMENT PARA USE32 PUBLIC 'CODE'
_TEXT	ENDS
;	COMDAT ??$_Uninitialized_copy@Vconst_iterator@?$vector@EV?$allocator@E@std@@@std@@PAEV?$allocator@E@3@@std@@YAPAEVconst_iterator@?$vector@EV?$allocator@E@std@@@0@0PAEAAV?$allocator@E@0@@Z
_TEXT	SEGMENT PARA USE32 PUBLIC 'CODE'
_TEXT	ENDS
;	COMDAT ??$_Iter_cat@Viterator@?$_Tree@V?$_Tmap_traits@KEU?$less@K@std@@V?$allocator@U?$pair@$$CBKE@std@@@2@$0A@@std@@@std@@@std@@YA?AUbidirectional_iterator_tag@0@ABViterator@?$_Tree@V?$_Tmap_traits@KEU?$less@K@std@@V?$allocator@U?$pair@$$CBKE@std@@@2@$0A@@std@@@0@@Z
_TEXT	SEGMENT PARA USE32 PUBLIC 'CODE'
_TEXT	ENDS
;	COMDAT ??$_Distance2@Viterator@?$_Tree@V?$_Tmap_traits@KEU?$less@K@std@@V?$allocator@U?$pair@$$CBKE@std@@@2@$0A@@std@@@std@@I@std@@YAXViterator@?$_Tree@V?$_Tmap_traits@KEU?$less@K@std@@V?$allocator@U?$pair@$$CBKE@std@@@2@$0A@@std@@@0@0AAIUbidirectional_iterator_tag@0@@Z
_TEXT	SEGMENT PARA USE32 PUBLIC 'CODE'
_TEXT	ENDS
;	COMDAT ??$_Ptr_cat@PAU__SPAWNREGION@CEventLua@@PAU12@@std@@YA?AU_Nonscalar_ptr_iterator_tag@0@AAPAU__SPAWNREGION@CEventLua@@0@Z
_TEXT	SEGMENT PARA USE32 PUBLIC 'CODE'
_TEXT	ENDS
;	COMDAT ??$_Uninit_fill_n@PAU__SPAWNREGION@CEventLua@@IU12@V?$allocator@U__SPAWNREGION@CEventLua@@@std@@@std@@YAXPAU__SPAWNREGION@CEventLua@@IABU12@AAV?$allocator@U__SPAWNREGION@CEventLua@@@0@U_Nonscalar_ptr_iterator_tag@0@@Z
_TEXT	SEGMENT PARA USE32 PUBLIC 'CODE'
_TEXT	ENDS
;	COMDAT ??$_Copy_opt@PAJPAJ@std@@YAPAJPAJ00U_Scalar_ptr_iterator_tag@0@@Z
_TEXT	SEGMENT PARA USE32 PUBLIC 'CODE'
_TEXT	ENDS
;	COMDAT ??$_Uninitialized_copy@PAJPAJV?$allocator@J@std@@@std@@YAPAJPAJ00AAV?$allocator@J@0@@Z
_TEXT	SEGMENT PARA USE32 PUBLIC 'CODE'
_TEXT	ENDS
;	COMDAT ??$_Copy_backward_opt@PAJPAJ@std@@YAPAJPAJ00U_Scalar_ptr_iterator_tag@0@@Z
_TEXT	SEGMENT PARA USE32 PUBLIC 'CODE'
_TEXT	ENDS
;	COMDAT ??$_Ptr_cat@PAUtagDROPITEM@@PAU1@@std@@YA?AU_Nonscalar_ptr_iterator_tag@0@AAPAUtagDROPITEM@@0@Z
_TEXT	SEGMENT PARA USE32 PUBLIC 'CODE'
_TEXT	ENDS
;	COMDAT ??$_Destroy_range@UtagDROPITEM@@V?$allocator@UtagDROPITEM@@@std@@@std@@YAXPAUtagDROPITEM@@0AAV?$allocator@UtagDROPITEM@@@0@U_Nonscalar_ptr_iterator_tag@0@@Z
_TEXT	SEGMENT PARA USE32 PUBLIC 'CODE'
_TEXT	ENDS
;	COMDAT ??$_Ptr_cat@PAUWORMON@@PAU1@@std@@YA?AU_Nonscalar_ptr_iterator_tag@0@AAPAUWORMON@@0@Z
_TEXT	SEGMENT PARA USE32 PUBLIC 'CODE'
_TEXT	ENDS
;	COMDAT ??$_Destroy_range@UWORMON@@V?$allocator@UWORMON@@@std@@@std@@YAXPAUWORMON@@0AAV?$allocator@UWORMON@@@0@U_Nonscalar_ptr_iterator_tag@0@@Z
_TEXT	SEGMENT PARA USE32 PUBLIC 'CODE'
_TEXT	ENDS
;	COMDAT ??$_Ptr_cat@PAU__ITEMGAME@CMiniGame@@PAU12@@std@@YA?AU_Nonscalar_ptr_iterator_tag@0@AAPAU__ITEMGAME@CMiniGame@@0@Z
_TEXT	SEGMENT PARA USE32 PUBLIC 'CODE'
_TEXT	ENDS
;	COMDAT ??$_Destroy_range@U__ITEMGAME@CMiniGame@@V?$allocator@U__ITEMGAME@CMiniGame@@@std@@@std@@YAXPAU__ITEMGAME@CMiniGame@@0AAV?$allocator@U__ITEMGAME@CMiniGame@@@0@U_Nonscalar_ptr_iterator_tag@0@@Z
_TEXT	SEGMENT PARA USE32 PUBLIC 'CODE'
_TEXT	ENDS
;	COMDAT ??$_Destroy_range@KV?$allocator@K@std@@@std@@YAXPAK0AAV?$allocator@K@0@U_Scalar_ptr_iterator_tag@0@@Z
_TEXT	SEGMENT PARA USE32 PUBLIC 'CODE'
_TEXT	ENDS
;	COMDAT ??$_Destroy_range@HV?$allocator@H@std@@@std@@YAXPAH0AAV?$allocator@H@0@U_Scalar_ptr_iterator_tag@0@@Z
_TEXT	SEGMENT PARA USE32 PUBLIC 'CODE'
_TEXT	ENDS
;	COMDAT ??$_Ptr_cat@PAU__ITEM@CExchange@@PAU12@@std@@YA?AU_Nonscalar_ptr_iterator_tag@0@AAPAU__ITEM@CExchange@@0@Z
_TEXT	SEGMENT PARA USE32 PUBLIC 'CODE'
_TEXT	ENDS
;	COMDAT ??$_Destroy_range@U__ITEM@CExchange@@V?$allocator@U__ITEM@CExchange@@@std@@@std@@YAXPAU__ITEM@CExchange@@0AAV?$allocator@U__ITEM@CExchange@@@0@U_Nonscalar_ptr_iterator_tag@0@@Z
_TEXT	SEGMENT PARA USE32 PUBLIC 'CODE'
_TEXT	ENDS
;	COMDAT ??$_Ptr_cat@PAU__POINT@CExchange@@PAU12@@std@@YA?AU_Nonscalar_ptr_iterator_tag@0@AAPAU__POINT@CExchange@@0@Z
_TEXT	SEGMENT PARA USE32 PUBLIC 'CODE'
_TEXT	ENDS
;	COMDAT ??$_Destroy_range@U__POINT@CExchange@@V?$allocator@U__POINT@CExchange@@@std@@@std@@YAXPAU__POINT@CExchange@@0AAV?$allocator@U__POINT@CExchange@@@0@U_Nonscalar_ptr_iterator_tag@0@@Z
_TEXT	SEGMENT PARA USE32 PUBLIC 'CODE'
_TEXT	ENDS
;	COMDAT ??$_Destroy_range@EV?$allocator@E@std@@@std@@YAXPAE0AAV?$allocator@E@0@U_Scalar_ptr_iterator_tag@0@@Z
_TEXT	SEGMENT PARA USE32 PUBLIC 'CODE'
_TEXT	ENDS
;	COMDAT ??$_Uninitialized_copy@PAU__SPAWNREGION@CEventLua@@PAU12@V?$allocator@U__SPAWNREGION@CEventLua@@@std@@@std@@YAPAU__SPAWNREGION@CEventLua@@PAU12@00AAV?$allocator@U__SPAWNREGION@CEventLua@@@0@@Z
_TEXT	SEGMENT PARA USE32 PUBLIC 'CODE'
_TEXT	ENDS
;	COMDAT ??$_Copy_backward_opt@PAU__SPAWNREGION@CEventLua@@PAU12@@std@@YAPAU__SPAWNREGION@CEventLua@@PAU12@00U_Nonscalar_ptr_iterator_tag@0@@Z
_TEXT	SEGMENT PARA USE32 PUBLIC 'CODE'
_TEXT	ENDS
;	COMDAT ??$_Ptr_cat@PAUD3DXVECTOR3@@PAU1@@std@@YA?AU_Nonscalar_ptr_iterator_tag@0@AAPAUD3DXVECTOR3@@0@Z
_TEXT	SEGMENT PARA USE32 PUBLIC 'CODE'
_TEXT	ENDS
;	COMDAT ??$_Destroy_range@UD3DXVECTOR3@@V?$allocator@UD3DXVECTOR3@@@std@@@std@@YAXPAUD3DXVECTOR3@@0AAV?$allocator@UD3DXVECTOR3@@@0@U_Nonscalar_ptr_iterator_tag@0@@Z
_TEXT	SEGMENT PARA USE32 PUBLIC 'CODE'
_TEXT	ENDS
;	COMDAT ??$_Ptr_cat@PAU_GIFTBOX@@PAU1@@std@@YA?AU_Nonscalar_ptr_iterator_tag@0@AAPAU_GIFTBOX@@0@Z
_TEXT	SEGMENT PARA USE32 PUBLIC 'CODE'
_TEXT	ENDS
;	COMDAT ??$_Destroy_range@U_GIFTBOX@@V?$allocator@U_GIFTBOX@@@std@@@std@@YAXPAU_GIFTBOX@@0AAV?$allocator@U_GIFTBOX@@@0@U_Nonscalar_ptr_iterator_tag@0@@Z
_TEXT	SEGMENT PARA USE32 PUBLIC 'CODE'
_TEXT	ENDS
;	COMDAT ??$_Destroy_range@JV?$allocator@J@std@@@std@@YAXPAJ0AAV?$allocator@J@0@U_Scalar_ptr_iterator_tag@0@@Z
_TEXT	SEGMENT PARA USE32 PUBLIC 'CODE'
_TEXT	ENDS
;	COMDAT ??$_Uninit_fill_n@JIJ@std@@YAXPAJIABJAAV?$allocator@J@0@U_Scalar_ptr_iterator_tag@0@@Z
_TEXT	SEGMENT PARA USE32 PUBLIC 'CODE'
_TEXT	ENDS
;	COMDAT ??$_Destroy_range@U__SPAWNREGION@CEventLua@@V?$allocator@U__SPAWNREGION@CEventLua@@@std@@@std@@YAXPAU__SPAWNREGION@CEventLua@@0AAV?$allocator@U__SPAWNREGION@CEventLua@@@0@U_Nonscalar_ptr_iterator_tag@0@@Z
_TEXT	SEGMENT PARA USE32 PUBLIC 'CODE'
_TEXT	ENDS
;	COMDAT ??$make_pair@KPAVCGuildHouseBase@@@std@@YA?AU?$pair@KPAVCGuildHouseBase@@@0@KPAVCGuildHouseBase@@@Z
_TEXT	SEGMENT PARA USE32 PUBLIC 'CODE'
_TEXT	ENDS
;	COMDAT ??$?0KPAVCGuildHouseBase@@@?$pair@$$CBKPAVCGuildHouseBase@@@std@@QAE@ABU?$pair@KPAVCGuildHouseBase@@@1@@Z
_TEXT	SEGMENT PARA USE32 PUBLIC 'CODE'
_TEXT	ENDS
;	COMDAT ??$_Distance@Viterator@?$_Tree@V?$_Tmap_traits@KU_Friend@@U?$less@K@std@@V?$allocator@U?$pair@$$CBKU_Friend@@@std@@@3@$0A@@std@@@std@@I@std@@YAXViterator@?$_Tree@V?$_Tmap_traits@KU_Friend@@U?$less@K@std@@V?$allocator@U?$pair@$$CBKU_Friend@@@std@@@3@$0A@@std@@@0@0AAI@Z
_TEXT	SEGMENT PARA USE32 PUBLIC 'CODE'
_TEXT	ENDS
;	COMDAT ??$_Distance@Viterator@?$_Tree@V?$_Tmap_traits@KKU?$less@K@std@@V?$allocator@U?$pair@$$CBKK@std@@@2@$0A@@std@@@std@@I@std@@YAXViterator@?$_Tree@V?$_Tmap_traits@KKU?$less@K@std@@V?$allocator@U?$pair@$$CBKK@std@@@2@$0A@@std@@@0@0AAI@Z
_TEXT	SEGMENT PARA USE32 PUBLIC 'CODE'
_TEXT	ENDS
;	COMDAT ??$_Destroy@U_Node@?$_List_nod@PAU__JOINPLAYER@CGuildCombat@@V?$allocator@PAU__JOINPLAYER@CGuildCombat@@@std@@@std@@@std@@YAXPAU_Node@?$_List_nod@PAU__JOINPLAYER@CGuildCombat@@V?$allocator@PAU__JOINPLAYER@CGuildCombat@@@std@@@0@@Z
_TEXT	SEGMENT PARA USE32 PUBLIC 'CODE'
_TEXT	ENDS
;	COMDAT ??$_Uninitialized_fill_n@PAV?$basic_string@DU?$char_traits@D@std@@V?$allocator@D@2@@std@@IV12@V?$allocator@V?$basic_string@DU?$char_traits@D@std@@V?$allocator@D@2@@std@@@2@@std@@YAXPAV?$basic_string@DU?$char_traits@D@std@@V?$allocator@D@2@@0@IABV10@AAV?$allocator@V?$basic_string@DU?$char_traits@D@std@@V?$allocator@D@2@@std@@@0@@Z
_TEXT	SEGMENT PARA USE32 PUBLIC 'CODE'
_TEXT	ENDS
;	COMDAT ??$_Uninitialized_fill_n@PAUMINIGMAME_PRIZE_LIST@CRainbowRaceMng@@IU12@V?$allocator@UMINIGMAME_PRIZE_LIST@CRainbowRaceMng@@@std@@@std@@YAXPAUMINIGMAME_PRIZE_LIST@CRainbowRaceMng@@IABU12@AAV?$allocator@UMINIGMAME_PRIZE_LIST@CRainbowRaceMng@@@0@@Z
_TEXT	SEGMENT PARA USE32 PUBLIC 'CODE'
_TEXT	ENDS
;	COMDAT ??$_Allocate@V?$basic_string@DU?$char_traits@D@std@@V?$allocator@D@2@@std@@@std@@YAPAV?$basic_string@DU?$char_traits@D@std@@V?$allocator@D@2@@0@IPAV10@@Z
_TEXT	SEGMENT PARA USE32 PUBLIC 'CODE'
_TEXT	ENDS
;	COMDAT ??$?0PAUtagACTMSG@@@?$allocator@PAPAUtagACTMSG@@@std@@QAE@ABV?$allocator@PAUtagACTMSG@@@1@@Z
_TEXT	SEGMENT PARA USE32 PUBLIC 'CODE'
_TEXT	ENDS
;	COMDAT ??$_Destroy@PAPAUtagACTMSG@@@std@@YAXPAPAPAUtagACTMSG@@@Z
_TEXT	SEGMENT PARA USE32 PUBLIC 'CODE'
_TEXT	ENDS
;	COMDAT ??$?0PAUtagMAGICATKMSG@@@?$allocator@PAPAUtagMAGICATKMSG@@@std@@QAE@ABV?$allocator@PAUtagMAGICATKMSG@@@1@@Z
_TEXT	SEGMENT PARA USE32 PUBLIC 'CODE'
_TEXT	ENDS
;	COMDAT ??$_Destroy@PAPAUtagMAGICATKMSG@@@std@@YAXPAPAPAUtagMAGICATKMSG@@@Z
_TEXT	SEGMENT PARA USE32 PUBLIC 'CODE'
_TEXT	ENDS
;	COMDAT ??$_Destroy_range@PAU__JOINPLAYER@CGuildCombat@@V?$allocator@PAU__JOINPLAYER@CGuildCombat@@@std@@@std@@YAXPAPAU__JOINPLAYER@CGuildCombat@@0AAV?$allocator@PAU__JOINPLAYER@CGuildCombat@@@0@@Z
_TEXT	SEGMENT PARA USE32 PUBLIC 'CODE'
_TEXT	ENDS
;	COMDAT ??$_Destroy_range@U__SECRETROOM_MONSTER@@V?$allocator@U__SECRETROOM_MONSTER@@@std@@@std@@YAXPAU__SECRETROOM_MONSTER@@0AAV?$allocator@U__SECRETROOM_MONSTER@@@0@@Z
_TEXT	SEGMENT PARA USE32 PUBLIC 'CODE'
_TEXT	ENDS
;	COMDAT ??$_Allocate@U__SECRETROOM_MONSTER@@@std@@YAPAU__SECRETROOM_MONSTER@@IPAU1@@Z
_TEXT	SEGMENT PARA USE32 PUBLIC 'CODE'
_TEXT	ENDS
;	COMDAT ??$_Destroy_range@V?$basic_string@DU?$char_traits@D@std@@V?$allocator@D@2@@std@@V?$allocator@V?$basic_string@DU?$char_traits@D@std@@V?$allocator@D@2@@std@@@2@@std@@YAXPAV?$basic_string@DU?$char_traits@D@std@@V?$allocator@D@2@@0@0AAV?$allocator@V?$basic_string@DU?$char_traits@D@std@@V?$allocator@D@2@@std@@@0@@Z
_TEXT	SEGMENT PARA USE32 PUBLIC 'CODE'
_TEXT	ENDS
;	COMDAT ??$_Ucopy@PAV?$basic_string@DU?$char_traits@D@std@@V?$allocator@D@2@@std@@@?$vector@V?$basic_string@DU?$char_traits@D@std@@V?$allocator@D@2@@std@@V?$allocator@V?$basic_string@DU?$char_traits@D@std@@V?$allocator@D@2@@std@@@2@@std@@IAEPAV?$basic_string@DU?$char_traits@D@std@@V?$allocator@D@2@@1@PAV21@00@Z
_TEXT	SEGMENT PARA USE32 PUBLIC 'CODE'
_TEXT	ENDS
;	COMDAT ??$fill@PAV?$basic_string@DU?$char_traits@D@std@@V?$allocator@D@2@@std@@V12@@std@@YAXPAV?$basic_string@DU?$char_traits@D@std@@V?$allocator@D@2@@0@0ABV10@@Z
_TEXT	SEGMENT PARA USE32 PUBLIC 'CODE'
_TEXT	ENDS
;	COMDAT ??$copy_backward@PAV?$basic_string@DU?$char_traits@D@std@@V?$allocator@D@2@@std@@PAV12@@std@@YAPAV?$basic_string@DU?$char_traits@D@std@@V?$allocator@D@2@@0@PAV10@00@Z
_TEXT	SEGMENT PARA USE32 PUBLIC 'CODE'
_TEXT	ENDS
;	COMDAT ??$_Ucopy@PAUMINIGMAME_PRIZE_LIST@CRainbowRaceMng@@@?$vector@UMINIGMAME_PRIZE_LIST@CRainbowRaceMng@@V?$allocator@UMINIGMAME_PRIZE_LIST@CRainbowRaceMng@@@std@@@std@@IAEPAUMINIGMAME_PRIZE_LIST@CRainbowRaceMng@@PAU23@00@Z
_TEXT	SEGMENT PARA USE32 PUBLIC 'CODE'
_TEXT	ENDS
;	COMDAT ??$fill@PAUMINIGMAME_PRIZE_LIST@CRainbowRaceMng@@U12@@std@@YAXPAUMINIGMAME_PRIZE_LIST@CRainbowRaceMng@@0ABU12@@Z
_TEXT	SEGMENT PARA USE32 PUBLIC 'CODE'
_TEXT	ENDS
;	COMDAT ??$copy_backward@PAUMINIGMAME_PRIZE_LIST@CRainbowRaceMng@@PAU12@@std@@YAPAUMINIGMAME_PRIZE_LIST@CRainbowRaceMng@@PAU12@00@Z
_TEXT	SEGMENT PARA USE32 PUBLIC 'CODE'
_TEXT	ENDS
;	COMDAT ??$_Destroy@PAUtagACTMSG@@@std@@YAXPAPAUtagACTMSG@@@Z
_TEXT	SEGMENT PARA USE32 PUBLIC 'CODE'
_TEXT	ENDS
;	COMDAT ??$_Destroy@PAUtagMAGICATKMSG@@@std@@YAXPAPAUtagMAGICATKMSG@@@Z
_TEXT	SEGMENT PARA USE32 PUBLIC 'CODE'
_TEXT	ENDS
;	COMDAT ??$_Destroy@U_Node@?$_Tree_nod@V?$_Tmap_traits@KU_Friend@@U?$less@K@std@@V?$allocator@U?$pair@$$CBKU_Friend@@@std@@@3@$0A@@std@@@std@@@std@@YAXPAU_Node@?$_Tree_nod@V?$_Tmap_traits@KU_Friend@@U?$less@K@std@@V?$allocator@U?$pair@$$CBKU_Friend@@@std@@@3@$0A@@std@@@0@@Z
_TEXT	SEGMENT PARA USE32 PUBLIC 'CODE'
_TEXT	ENDS
;	COMDAT ??$_Destroy_range@UMINIGMAME_PRIZE_LIST@CRainbowRaceMng@@V?$allocator@UMINIGMAME_PRIZE_LIST@CRainbowRaceMng@@@std@@@std@@YAXPAUMINIGMAME_PRIZE_LIST@CRainbowRaceMng@@0AAV?$allocator@UMINIGMAME_PRIZE_LIST@CRainbowRaceMng@@@0@@Z
_TEXT	SEGMENT PARA USE32 PUBLIC 'CODE'
_TEXT	ENDS
;	COMDAT ??$_Allocate@UMINIGMAME_PRIZE_LIST@CRainbowRaceMng@@@std@@YAPAUMINIGMAME_PRIZE_LIST@CRainbowRaceMng@@IPAU12@@Z
_TEXT	SEGMENT PARA USE32 PUBLIC 'CODE'
_TEXT	ENDS
;	COMDAT ??$_Allocate@U_Node@?$_Tree_nod@V?$_Tmap_traits@KPAVCGuildHouseBase@@U?$less@K@std@@V?$allocator@U?$pair@$$CBKPAVCGuildHouseBase@@@std@@@3@$0A@@std@@@std@@@std@@YAPAU_Node@?$_Tree_nod@V?$_Tmap_traits@KPAVCGuildHouseBase@@U?$less@K@std@@V?$allocator@U?$pair@$$CBKPAVCGuildHouseBase@@@std@@@3@$0A@@std@@@0@IPAU120@@Z
_TEXT	SEGMENT PARA USE32 PUBLIC 'CODE'
_TEXT	ENDS
;	COMDAT ??$_Destroy@U_Node@?$_Tree_nod@V?$_Tmap_traits@KKU?$less@K@std@@V?$allocator@U?$pair@$$CBKK@std@@@2@$0A@@std@@@std@@@std@@YAXPAU_Node@?$_Tree_nod@V?$_Tmap_traits@KKU?$less@K@std@@V?$allocator@U?$pair@$$CBKK@std@@@2@$0A@@std@@@0@@Z
_TEXT	SEGMENT PARA USE32 PUBLIC 'CODE'
_TEXT	ENDS
;	COMDAT ??_ECItemElem@@UAEPAXI@Z
_TEXT	SEGMENT PARA USE32 PUBLIC 'CODE'
_TEXT	ENDS
;	COMDAT ?destroy@?$allocator@UtagDROPITEM@@@std@@QAEXPAUtagDROPITEM@@@Z
_TEXT	SEGMENT PARA USE32 PUBLIC 'CODE'
_TEXT	ENDS
;	COMDAT ?destroy@?$allocator@UWORMON@@@std@@QAEXPAUWORMON@@@Z
_TEXT	SEGMENT PARA USE32 PUBLIC 'CODE'
_TEXT	ENDS
;	COMDAT ?destroy@?$allocator@U__ITEMGAME@CMiniGame@@@std@@QAEXPAU__ITEMGAME@CMiniGame@@@Z
_TEXT	SEGMENT PARA USE32 PUBLIC 'CODE'
_TEXT	ENDS
;	COMDAT ?destroy@?$allocator@U__ITEM@CExchange@@@std@@QAEXPAU__ITEM@CExchange@@@Z
_TEXT	SEGMENT PARA USE32 PUBLIC 'CODE'
_TEXT	ENDS
;	COMDAT ?destroy@?$allocator@U__POINT@CExchange@@@std@@QAEXPAU__POINT@CExchange@@@Z
_TEXT	SEGMENT PARA USE32 PUBLIC 'CODE'
_TEXT	ENDS
;	COMDAT ?begin@?$vector@EV?$allocator@E@std@@@std@@QAE?AViterator@12@XZ
_TEXT	SEGMENT PARA USE32 PUBLIC 'CODE'
_TEXT	ENDS
;	COMDAT ?end@?$vector@EV?$allocator@E@std@@@std@@QAE?AViterator@12@XZ
_TEXT	SEGMENT PARA USE32 PUBLIC 'CODE'
_TEXT	ENDS
;	COMDAT ?erase@?$vector@EV?$allocator@E@std@@@std@@QAE?AViterator@12@V312@0@Z
_TEXT	SEGMENT PARA USE32 PUBLIC 'CODE'
_TEXT	ENDS
;	COMDAT ?construct@?$allocator@U__SPAWNREGION@CEventLua@@@std@@QAEXPAU__SPAWNREGION@CEventLua@@ABU34@@Z
_TEXT	SEGMENT PARA USE32 PUBLIC 'CODE'
_TEXT	ENDS
;	COMDAT ?destroy@?$allocator@U__SPAWNREGION@CEventLua@@@std@@QAEXPAU__SPAWNREGION@CEventLua@@@Z
_TEXT	SEGMENT PARA USE32 PUBLIC 'CODE'
_TEXT	ENDS
;	COMDAT ?destroy@?$allocator@UD3DXVECTOR3@@@std@@QAEXPAUD3DXVECTOR3@@@Z
_TEXT	SEGMENT PARA USE32 PUBLIC 'CODE'
_TEXT	ENDS
;	COMDAT ?destroy@?$allocator@U_GIFTBOX@@@std@@QAEXPAU_GIFTBOX@@@Z
_TEXT	SEGMENT PARA USE32 PUBLIC 'CODE'
_TEXT	ENDS
;	COMDAT ??0?$pair@KPAVCGuildHouseBase@@@std@@QAE@ABKABQAVCGuildHouseBase@@@Z
_TEXT	SEGMENT PARA USE32 PUBLIC 'CODE'
_TEXT	ENDS
;	COMDAT ??9const_iterator@?$vector@EV?$allocator@E@std@@@std@@QBE_NABV012@@Z
_TEXT	SEGMENT PARA USE32 PUBLIC 'CODE'
_TEXT	ENDS
;	COMDAT ??0iterator@?$vector@EV?$allocator@E@std@@@std@@QAE@PAE@Z
_TEXT	SEGMENT PARA USE32 PUBLIC 'CODE'
_TEXT	ENDS
;	COMDAT ??8const_iterator@?$vector@EV?$allocator@E@std@@@std@@QBE_NABV012@@Z
_TEXT	SEGMENT PARA USE32 PUBLIC 'CODE'
_TEXT	ENDS
;	COMDAT ??$insert@Vconst_iterator@?$vector@EV?$allocator@E@std@@@std@@@?$vector@EV?$allocator@E@std@@@std@@QAEXViterator@01@Vconst_iterator@01@1@Z
_TEXT	SEGMENT PARA USE32 PUBLIC 'CODE'
_TEXT	ENDS
;	COMDAT ?Clear@?$CItemContainer@VCItemElem@@@@QAEXXZ
_TEXT	SEGMENT PARA USE32 PUBLIC 'CODE'
_TEXT	ENDS
;	COMDAT ?IsFull@?$CItemContainer@VCItemElem@@@@QAEHPAVCItemElem@@PAUItemProp@@F@Z
_TEXT	SEGMENT PARA USE32 PUBLIC 'CODE'
_TEXT	ENDS
;	COMDAT ??$_Ptr_cat@Vconst_iterator@?$vector@EV?$allocator@E@std@@@std@@PAE@std@@YA?AU_Nonscalar_ptr_iterator_tag@0@AAVconst_iterator@?$vector@EV?$allocator@E@std@@@0@AAPAE@Z
_TEXT	SEGMENT PARA USE32 PUBLIC 'CODE'
_TEXT	ENDS
;	COMDAT ??$_Uninit_copy@Vconst_iterator@?$vector@EV?$allocator@E@std@@@std@@PAEV?$allocator@E@3@@std@@YAPAEVconst_iterator@?$vector@EV?$allocator@E@std@@@0@0PAEAAV?$allocator@E@0@U_Nonscalar_ptr_iterator_tag@0@@Z
_TEXT	SEGMENT PARA USE32 PUBLIC 'CODE'
_TEXT	ENDS
;	COMDAT ??$_Uninit_copy@JJ@std@@YAPAJPAJ00AAV?$allocator@J@0@U_Scalar_ptr_iterator_tag@0@@Z
_TEXT	SEGMENT PARA USE32 PUBLIC 'CODE'
_TEXT	ENDS
;	COMDAT ??$_Uninit_copy@PAU__SPAWNREGION@CEventLua@@PAU12@V?$allocator@U__SPAWNREGION@CEventLua@@@std@@@std@@YAPAU__SPAWNREGION@CEventLua@@PAU12@00AAV?$allocator@U__SPAWNREGION@CEventLua@@@0@U_Nonscalar_ptr_iterator_tag@0@@Z
_TEXT	SEGMENT PARA USE32 PUBLIC 'CODE'
_TEXT	ENDS
;	COMDAT ??$fill_n@PAJIJ@std@@YAXPAJIABJ@Z
_TEXT	SEGMENT PARA USE32 PUBLIC 'CODE'
_TEXT	ENDS
;	COMDAT ??$_Iter_cat@Viterator@?$_Tree@V?$_Tmap_traits@KU_Friend@@U?$less@K@std@@V?$allocator@U?$pair@$$CBKU_Friend@@@std@@@3@$0A@@std@@@std@@@std@@YA?AUbidirectional_iterator_tag@0@ABViterator@?$_Tree@V?$_Tmap_traits@KU_Friend@@U?$less@K@std@@V?$allocator@U?$pair@$$CBKU_Friend@@@std@@@3@$0A@@std@@@0@@Z
_TEXT	SEGMENT PARA USE32 PUBLIC 'CODE'
_TEXT	ENDS
;	COMDAT ??$_Distance2@Viterator@?$_Tree@V?$_Tmap_traits@KU_Friend@@U?$less@K@std@@V?$allocator@U?$pair@$$CBKU_Friend@@@std@@@3@$0A@@std@@@std@@I@std@@YAXViterator@?$_Tree@V?$_Tmap_traits@KU_Friend@@U?$less@K@std@@V?$allocator@U?$pair@$$CBKU_Friend@@@std@@@3@$0A@@std@@@0@0AAIUbidirectional_iterator_tag@0@@Z
_TEXT	SEGMENT PARA USE32 PUBLIC 'CODE'
_TEXT	ENDS
;	COMDAT ??$_Iter_cat@Viterator@?$_Tree@V?$_Tmap_traits@KKU?$less@K@std@@V?$allocator@U?$pair@$$CBKK@std@@@2@$0A@@std@@@std@@@std@@YA?AUbidirectional_iterator_tag@0@ABViterator@?$_Tree@V?$_Tmap_traits@KKU?$less@K@std@@V?$allocator@U?$pair@$$CBKK@std@@@2@$0A@@std@@@0@@Z
_TEXT	SEGMENT PARA USE32 PUBLIC 'CODE'
_TEXT	ENDS
;	COMDAT ??$_Distance2@Viterator@?$_Tree@V?$_Tmap_traits@KKU?$less@K@std@@V?$allocator@U?$pair@$$CBKK@std@@@2@$0A@@std@@@std@@I@std@@YAXViterator@?$_Tree@V?$_Tmap_traits@KKU?$less@K@std@@V?$allocator@U?$pair@$$CBKK@std@@@2@$0A@@std@@@0@0AAIUbidirectional_iterator_tag@0@@Z
_TEXT	SEGMENT PARA USE32 PUBLIC 'CODE'
_TEXT	ENDS
;	COMDAT ??$_Ptr_cat@PAV?$basic_string@DU?$char_traits@D@std@@V?$allocator@D@2@@std@@PAV12@@std@@YA?AU_Nonscalar_ptr_iterator_tag@0@AAPAV?$basic_string@DU?$char_traits@D@std@@V?$allocator@D@2@@0@0@Z
_TEXT	SEGMENT PARA USE32 PUBLIC 'CODE'
_TEXT	ENDS
;	COMDAT ??$_Uninit_fill_n@PAV?$basic_string@DU?$char_traits@D@std@@V?$allocator@D@2@@std@@IV12@V?$allocator@V?$basic_string@DU?$char_traits@D@std@@V?$allocator@D@2@@std@@@2@@std@@YAXPAV?$basic_string@DU?$char_traits@D@std@@V?$allocator@D@2@@0@IABV10@AAV?$allocator@V?$basic_string@DU?$char_traits@D@std@@V?$allocator@D@2@@std@@@0@U_Nonscalar_ptr_iterator_tag@0@@Z
_TEXT	SEGMENT PARA USE32 PUBLIC 'CODE'
_TEXT	ENDS
;	COMDAT ??$_Ptr_cat@PAUMINIGMAME_PRIZE_LIST@CRainbowRaceMng@@PAU12@@std@@YA?AU_Nonscalar_ptr_iterator_tag@0@AAPAUMINIGMAME_PRIZE_LIST@CRainbowRaceMng@@0@Z
_TEXT	SEGMENT PARA USE32 PUBLIC 'CODE'
_TEXT	ENDS
;	COMDAT ??$_Uninit_fill_n@PAUMINIGMAME_PRIZE_LIST@CRainbowRaceMng@@IU12@V?$allocator@UMINIGMAME_PRIZE_LIST@CRainbowRaceMng@@@std@@@std@@YAXPAUMINIGMAME_PRIZE_LIST@CRainbowRaceMng@@IABU12@AAV?$allocator@UMINIGMAME_PRIZE_LIST@CRainbowRaceMng@@@0@U_Nonscalar_ptr_iterator_tag@0@@Z
_TEXT	SEGMENT PARA USE32 PUBLIC 'CODE'
_TEXT	ENDS
;	COMDAT ??$_Ptr_cat@U__JOINPLAYER@CGuildCombat@@@std@@YA?AU_Scalar_ptr_iterator_tag@0@PAPAU__JOINPLAYER@CGuildCombat@@0@Z
_TEXT	SEGMENT PARA USE32 PUBLIC 'CODE'
_TEXT	ENDS
;	COMDAT ??$_Destroy_range@PAU__JOINPLAYER@CGuildCombat@@V?$allocator@PAU__JOINPLAYER@CGuildCombat@@@std@@@std@@YAXPAPAU__JOINPLAYER@CGuildCombat@@0AAV?$allocator@PAU__JOINPLAYER@CGuildCombat@@@0@U_Scalar_ptr_iterator_tag@0@@Z
_TEXT	SEGMENT PARA USE32 PUBLIC 'CODE'
_TEXT	ENDS
;	COMDAT ??$_Ptr_cat@PAU__SECRETROOM_MONSTER@@PAU1@@std@@YA?AU_Nonscalar_ptr_iterator_tag@0@AAPAU__SECRETROOM_MONSTER@@0@Z
_TEXT	SEGMENT PARA USE32 PUBLIC 'CODE'
_TEXT	ENDS
;	COMDAT ??$_Destroy_range@U__SECRETROOM_MONSTER@@V?$allocator@U__SECRETROOM_MONSTER@@@std@@@std@@YAXPAU__SECRETROOM_MONSTER@@0AAV?$allocator@U__SECRETROOM_MONSTER@@@0@U_Nonscalar_ptr_iterator_tag@0@@Z
_TEXT	SEGMENT PARA USE32 PUBLIC 'CODE'
_TEXT	ENDS
;	COMDAT ??$_Destroy_range@V?$basic_string@DU?$char_traits@D@std@@V?$allocator@D@2@@std@@V?$allocator@V?$basic_string@DU?$char_traits@D@std@@V?$allocator@D@2@@std@@@2@@std@@YAXPAV?$basic_string@DU?$char_traits@D@std@@V?$allocator@D@2@@0@0AAV?$allocator@V?$basic_string@DU?$char_traits@D@std@@V?$allocator@D@2@@std@@@0@U_Nonscalar_ptr_iterator_tag@0@@Z
_TEXT	SEGMENT PARA USE32 PUBLIC 'CODE'
_TEXT	ENDS
;	COMDAT ??$_Uninitialized_copy@PAV?$basic_string@DU?$char_traits@D@std@@V?$allocator@D@2@@std@@PAV12@V?$allocator@V?$basic_string@DU?$char_traits@D@std@@V?$allocator@D@2@@std@@@2@@std@@YAPAV?$basic_string@DU?$char_traits@D@std@@V?$allocator@D@2@@0@PAV10@00AAV?$allocator@V?$basic_string@DU?$char_traits@D@std@@V?$allocator@D@2@@std@@@0@@Z
_TEXT	SEGMENT PARA USE32 PUBLIC 'CODE'
_TEXT	ENDS
;	COMDAT ??$_Copy_backward_opt@PAV?$basic_string@DU?$char_traits@D@std@@V?$allocator@D@2@@std@@PAV12@@std@@YAPAV?$basic_string@DU?$char_traits@D@std@@V?$allocator@D@2@@0@PAV10@00U_Nonscalar_ptr_iterator_tag@0@@Z
_TEXT	SEGMENT PARA USE32 PUBLIC 'CODE'
_TEXT	ENDS
;	COMDAT ??$_Uninitialized_copy@PAUMINIGMAME_PRIZE_LIST@CRainbowRaceMng@@PAU12@V?$allocator@UMINIGMAME_PRIZE_LIST@CRainbowRaceMng@@@std@@@std@@YAPAUMINIGMAME_PRIZE_LIST@CRainbowRaceMng@@PAU12@00AAV?$allocator@UMINIGMAME_PRIZE_LIST@CRainbowRaceMng@@@0@@Z
_TEXT	SEGMENT PARA USE32 PUBLIC 'CODE'
_TEXT	ENDS
;	COMDAT ??$_Copy_backward_opt@PAUMINIGMAME_PRIZE_LIST@CRainbowRaceMng@@PAU12@@std@@YAPAUMINIGMAME_PRIZE_LIST@CRainbowRaceMng@@PAU12@00U_Nonscalar_ptr_iterator_tag@0@@Z
_TEXT	SEGMENT PARA USE32 PUBLIC 'CODE'
_TEXT	ENDS
;	COMDAT ??$_Destroy_range@UMINIGMAME_PRIZE_LIST@CRainbowRaceMng@@V?$allocator@UMINIGMAME_PRIZE_LIST@CRainbowRaceMng@@@std@@@std@@YAXPAUMINIGMAME_PRIZE_LIST@CRainbowRaceMng@@0AAV?$allocator@UMINIGMAME_PRIZE_LIST@CRainbowRaceMng@@@0@U_Nonscalar_ptr_iterator_tag@0@@Z
_TEXT	SEGMENT PARA USE32 PUBLIC 'CODE'
_TEXT	ENDS
;	COMDAT ??$_Destroy@UtagDROPITEM@@@std@@YAXPAUtagDROPITEM@@@Z
_TEXT	SEGMENT PARA USE32 PUBLIC 'CODE'
_TEXT	ENDS
;	COMDAT ??$_Destroy@UWORMON@@@std@@YAXPAUWORMON@@@Z
_TEXT	SEGMENT PARA USE32 PUBLIC 'CODE'
_TEXT	ENDS
;	COMDAT ??$_Destroy@U__ITEMGAME@CMiniGame@@@std@@YAXPAU__ITEMGAME@CMiniGame@@@Z
_TEXT	SEGMENT PARA USE32 PUBLIC 'CODE'
_TEXT	ENDS
;	COMDAT ??$_Destroy@U__ITEM@CExchange@@@std@@YAXPAU__ITEM@CExchange@@@Z
_TEXT	SEGMENT PARA USE32 PUBLIC 'CODE'
_TEXT	ENDS
;	COMDAT ??$_Destroy@U__POINT@CExchange@@@std@@YAXPAU__POINT@CExchange@@@Z
_TEXT	SEGMENT PARA USE32 PUBLIC 'CODE'
_TEXT	ENDS
;	COMDAT ??$copy@PAEPAE@std@@YAPAEPAE00@Z
_TEXT	SEGMENT PARA USE32 PUBLIC 'CODE'
_TEXT	ENDS
;	COMDAT ??$_Construct@U__SPAWNREGION@CEventLua@@U12@@std@@YAXPAU__SPAWNREGION@CEventLua@@ABU12@@Z
_TEXT	SEGMENT PARA USE32 PUBLIC 'CODE'
_TEXT	ENDS
;	COMDAT ??$_Destroy@U__SPAWNREGION@CEventLua@@@std@@YAXPAU__SPAWNREGION@CEventLua@@@Z
_TEXT	SEGMENT PARA USE32 PUBLIC 'CODE'
_TEXT	ENDS
;	COMDAT ??$_Destroy@UD3DXVECTOR3@@@std@@YAXPAUD3DXVECTOR3@@@Z
_TEXT	SEGMENT PARA USE32 PUBLIC 'CODE'
_TEXT	ENDS
;	COMDAT ??$_Destroy@U_GIFTBOX@@@std@@YAXPAU_GIFTBOX@@@Z
_TEXT	SEGMENT PARA USE32 PUBLIC 'CODE'
_TEXT	ENDS
;	COMDAT ?construct@?$allocator@V?$basic_string@DU?$char_traits@D@std@@V?$allocator@D@2@@std@@@std@@QAEXPAV?$basic_string@DU?$char_traits@D@std@@V?$allocator@D@2@@2@ABV32@@Z
_TEXT	SEGMENT PARA USE32 PUBLIC 'CODE'
_TEXT	ENDS
;	COMDAT ?destroy@?$allocator@V?$basic_string@DU?$char_traits@D@std@@V?$allocator@D@2@@std@@@std@@QAEXPAV?$basic_string@DU?$char_traits@D@std@@V?$allocator@D@2@@2@@Z
_TEXT	SEGMENT PARA USE32 PUBLIC 'CODE'
_TEXT	ENDS
;	COMDAT ?construct@?$allocator@E@std@@QAEXPAEABE@Z
_TEXT	SEGMENT PARA USE32 PUBLIC 'CODE'
_TEXT	ENDS
;	COMDAT ?destroy@?$allocator@E@std@@QAEXPAE@Z
_TEXT	SEGMENT PARA USE32 PUBLIC 'CODE'
_TEXT	ENDS
;	COMDAT ??Dconst_iterator@?$vector@EV?$allocator@E@std@@@std@@QBEABEXZ
_TEXT	SEGMENT PARA USE32 PUBLIC 'CODE'
_TEXT	ENDS
;	COMDAT ??Econst_iterator@?$vector@EV?$allocator@E@std@@@std@@QAEAAV012@XZ
_TEXT	SEGMENT PARA USE32 PUBLIC 'CODE'
_TEXT	ENDS
;	COMDAT ?destroy@?$allocator@U__SECRETROOM_MONSTER@@@std@@QAEXPAU__SECRETROOM_MONSTER@@@Z
_TEXT	SEGMENT PARA USE32 PUBLIC 'CODE'
_TEXT	ENDS
;	COMDAT ?construct@?$allocator@UMINIGMAME_PRIZE_LIST@CRainbowRaceMng@@@std@@QAEXPAUMINIGMAME_PRIZE_LIST@CRainbowRaceMng@@ABU34@@Z
_TEXT	SEGMENT PARA USE32 PUBLIC 'CODE'
_TEXT	ENDS
;	COMDAT ?destroy@?$allocator@UMINIGMAME_PRIZE_LIST@CRainbowRaceMng@@@std@@QAEXPAUMINIGMAME_PRIZE_LIST@CRainbowRaceMng@@@Z
_TEXT	SEGMENT PARA USE32 PUBLIC 'CODE'
_TEXT	ENDS
;	COMDAT ??$_Insert@Vconst_iterator@?$vector@EV?$allocator@E@std@@@std@@@?$vector@EV?$allocator@E@std@@@std@@QAEXViterator@01@Vconst_iterator@01@1Uforward_iterator_tag@1@@Z
_TEXT	SEGMENT PARA USE32 PUBLIC 'CODE'
_TEXT	ENDS
;	COMDAT ??$_Uninit_copy@PAV?$basic_string@DU?$char_traits@D@std@@V?$allocator@D@2@@std@@PAV12@V?$allocator@V?$basic_string@DU?$char_traits@D@std@@V?$allocator@D@2@@std@@@2@@std@@YAPAV?$basic_string@DU?$char_traits@D@std@@V?$allocator@D@2@@0@PAV10@00AAV?$allocator@V?$basic_string@DU?$char_traits@D@std@@V?$allocator@D@2@@std@@@0@U_Nonscalar_ptr_iterator_tag@0@@Z
_TEXT	SEGMENT PARA USE32 PUBLIC 'CODE'
_TEXT	ENDS
;	COMDAT ??$_Uninit_copy@PAUMINIGMAME_PRIZE_LIST@CRainbowRaceMng@@PAU12@V?$allocator@UMINIGMAME_PRIZE_LIST@CRainbowRaceMng@@@std@@@std@@YAPAUMINIGMAME_PRIZE_LIST@CRainbowRaceMng@@PAU12@00AAV?$allocator@UMINIGMAME_PRIZE_LIST@CRainbowRaceMng@@@0@U_Nonscalar_ptr_iterator_tag@0@@Z
_TEXT	SEGMENT PARA USE32 PUBLIC 'CODE'
_TEXT	ENDS
;	COMDAT ??$_Copy_opt@PAEPAE@std@@YAPAEPAE00U_Scalar_ptr_iterator_tag@0@@Z
_TEXT	SEGMENT PARA USE32 PUBLIC 'CODE'
_TEXT	ENDS
;	COMDAT ??$_Construct@V?$basic_string@DU?$char_traits@D@std@@V?$allocator@D@2@@std@@V12@@std@@YAXPAV?$basic_string@DU?$char_traits@D@std@@V?$allocator@D@2@@0@ABV10@@Z
_TEXT	SEGMENT PARA USE32 PUBLIC 'CODE'
_TEXT	ENDS
;	COMDAT ??$_Destroy@V?$basic_string@DU?$char_traits@D@std@@V?$allocator@D@2@@std@@@std@@YAXPAV?$basic_string@DU?$char_traits@D@std@@V?$allocator@D@2@@0@@Z
_TEXT	SEGMENT PARA USE32 PUBLIC 'CODE'
_TEXT	ENDS
;	COMDAT ??$_Construct@EE@std@@YAXPAEABE@Z
_TEXT	SEGMENT PARA USE32 PUBLIC 'CODE'
_TEXT	ENDS
;	COMDAT ??$_Destroy@E@std@@YAXPAE@Z
_TEXT	SEGMENT PARA USE32 PUBLIC 'CODE'
_TEXT	ENDS
;	COMDAT ??$_Destroy@U__SECRETROOM_MONSTER@@@std@@YAXPAU__SECRETROOM_MONSTER@@@Z
_TEXT	SEGMENT PARA USE32 PUBLIC 'CODE'
_TEXT	ENDS
;	COMDAT ??$_Construct@UMINIGMAME_PRIZE_LIST@CRainbowRaceMng@@U12@@std@@YAXPAUMINIGMAME_PRIZE_LIST@CRainbowRaceMng@@ABU12@@Z
_TEXT	SEGMENT PARA USE32 PUBLIC 'CODE'
_TEXT	ENDS
;	COMDAT ??$_Destroy@UMINIGMAME_PRIZE_LIST@CRainbowRaceMng@@@std@@YAXPAUMINIGMAME_PRIZE_LIST@CRainbowRaceMng@@@Z
_TEXT	SEGMENT PARA USE32 PUBLIC 'CODE'
_TEXT	ENDS
;	COMDAT ??_G?$basic_string@DU?$char_traits@D@std@@V?$allocator@D@2@@std@@QAEPAXI@Z
_TEXT	SEGMENT PARA USE32 PUBLIC 'CODE'
_TEXT	ENDS
;	COMDAT ?capacity@?$vector@EV?$allocator@E@std@@@std@@QBEIXZ
_TEXT	SEGMENT PARA USE32 PUBLIC 'CODE'
_TEXT	ENDS
;	COMDAT ??Giterator@?$vector@EV?$allocator@E@std@@@std@@QBEHABVconst_iterator@12@@Z
_TEXT	SEGMENT PARA USE32 PUBLIC 'CODE'
_TEXT	ENDS
;	COMDAT ??Gconst_iterator@?$vector@EV?$allocator@E@std@@@std@@QBEHABV012@@Z
_TEXT	SEGMENT PARA USE32 PUBLIC 'CODE'
_TEXT	ENDS
;	COMDAT ??$_Distance@Vconst_iterator@?$vector@EV?$allocator@E@std@@@std@@I@std@@YAXVconst_iterator@?$vector@EV?$allocator@E@std@@@0@0AAI@Z
_TEXT	SEGMENT PARA USE32 PUBLIC 'CODE'
_TEXT	ENDS
;	COMDAT ??$_Ucopy@PAE@?$vector@EV?$allocator@E@std@@@std@@IAEPAEPAE00@Z
_TEXT	SEGMENT PARA USE32 PUBLIC 'CODE'
_TEXT	ENDS
;	COMDAT ??$advance@Vconst_iterator@?$vector@EV?$allocator@E@std@@@std@@H@std@@YAXAAVconst_iterator@?$vector@EV?$allocator@E@std@@@0@H@Z
_TEXT	SEGMENT PARA USE32 PUBLIC 'CODE'
_TEXT	ENDS
;	COMDAT ??$copy@Vconst_iterator@?$vector@EV?$allocator@E@std@@@std@@PAE@std@@YAPAEVconst_iterator@?$vector@EV?$allocator@E@std@@@0@0PAE@Z
_TEXT	SEGMENT PARA USE32 PUBLIC 'CODE'
_TEXT	ENDS
;	COMDAT ??$copy_backward@PAEPAE@std@@YAPAEPAE00@Z
_TEXT	SEGMENT PARA USE32 PUBLIC 'CODE'
_TEXT	ENDS
;	COMDAT ??$_Distance2@Vconst_iterator@?$vector@EV?$allocator@E@std@@@std@@I@std@@YAXVconst_iterator@?$vector@EV?$allocator@E@std@@@0@0AAIUrandom_access_iterator_tag@0@@Z
_TEXT	SEGMENT PARA USE32 PUBLIC 'CODE'
_TEXT	ENDS
;	COMDAT ??$_Uninitialized_copy@PAEPAEV?$allocator@E@std@@@std@@YAPAEPAE00AAV?$allocator@E@0@@Z
_TEXT	SEGMENT PARA USE32 PUBLIC 'CODE'
_TEXT	ENDS
;	COMDAT ??$_Advance@Vconst_iterator@?$vector@EV?$allocator@E@std@@@std@@H@std@@YAXAAVconst_iterator@?$vector@EV?$allocator@E@std@@@0@HUrandom_access_iterator_tag@0@@Z
_TEXT	SEGMENT PARA USE32 PUBLIC 'CODE'
_TEXT	ENDS
;	COMDAT ??$_Copy_opt@Vconst_iterator@?$vector@EV?$allocator@E@std@@@std@@PAE@std@@YAPAEVconst_iterator@?$vector@EV?$allocator@E@std@@@0@0PAEU_Nonscalar_ptr_iterator_tag@0@@Z
_TEXT	SEGMENT PARA USE32 PUBLIC 'CODE'
_TEXT	ENDS
;	COMDAT ??$_Copy_backward_opt@PAEPAE@std@@YAPAEPAE00U_Scalar_ptr_iterator_tag@0@@Z
_TEXT	SEGMENT PARA USE32 PUBLIC 'CODE'
_TEXT	ENDS
;	COMDAT ??Yconst_iterator@?$vector@EV?$allocator@E@std@@@std@@QAEAAV012@H@Z
_TEXT	SEGMENT PARA USE32 PUBLIC 'CODE'
_TEXT	ENDS
;	COMDAT ??$_Uninit_copy@EE@std@@YAPAEPAE00AAV?$allocator@E@0@U_Scalar_ptr_iterator_tag@0@@Z
_TEXT	SEGMENT PARA USE32 PUBLIC 'CODE'
_TEXT	ENDS
;	COMDAT ?deallocate@?$allocator@E@std@@QAEXPAEI@Z
_TEXT	SEGMENT PARA USE32 PUBLIC 'CODE'
_TEXT	ENDS
;	COMDAT ??$_Ucopy@Vconst_iterator@?$vector@EV?$allocator@E@std@@@std@@@?$vector@EV?$allocator@E@std@@@std@@IAEPAEVconst_iterator@01@0PAE@Z
_TEXT	SEGMENT PARA USE32 PUBLIC 'CODE'
_TEXT	ENDS
;	COMDAT ?allocate@?$allocator@E@std@@QAEPAEI@Z
_TEXT	SEGMENT PARA USE32 PUBLIC 'CODE'
_TEXT	ENDS
;	COMDAT ??$_Allocate@E@std@@YAPAEIPAE@Z
_TEXT	SEGMENT PARA USE32 PUBLIC 'CODE'
_TEXT	ENDS
;	COMDAT ?_Xlen@?$vector@EV?$allocator@E@std@@@std@@IBEXXZ
_TEXT	SEGMENT PARA USE32 PUBLIC 'CODE'
_TEXT	ENDS
;	COMDAT ?size@?$vector@EV?$allocator@E@std@@@std@@QBEIXZ
_TEXT	SEGMENT PARA USE32 PUBLIC 'CODE'
_TEXT	ENDS
;	COMDAT ?max_size@?$vector@EV?$allocator@E@std@@@std@@QBEIXZ
_TEXT	SEGMENT PARA USE32 PUBLIC 'CODE'
_TEXT	ENDS
;	COMDAT ?max_size@?$allocator@E@std@@QBEIXZ
_TEXT	SEGMENT PARA USE32 PUBLIC 'CODE'
_TEXT	ENDS
;	COMDAT ?_Ptr_cat@std@@YA?AU_Scalar_ptr_iterator_tag@1@PAE0@Z
_TEXT	SEGMENT PARA USE32 PUBLIC 'CODE'
_TEXT	ENDS
;	COMDAT ??0const_iterator@?$vector@EV?$allocator@E@std@@@std@@QAE@PAE@Z
_TEXT	SEGMENT PARA USE32 PUBLIC 'CODE'
_TEXT	ENDS
;	COMDAT ?_Destroy@?$vector@EV?$allocator@E@std@@@std@@IAEXPAE0@Z
_TEXT	SEGMENT PARA USE32 PUBLIC 'CODE'
_TEXT	ENDS
;	COMDAT ??$_Destroy_range@EV?$allocator@E@std@@@std@@YAXPAE0AAV?$allocator@E@0@@Z
_TEXT	SEGMENT PARA USE32 PUBLIC 'CODE'
_TEXT	ENDS
;	COMDAT ??4?$basic_string@DU?$char_traits@D@std@@V?$allocator@D@2@@std@@QAEAAV01@ABV01@@Z
_TEXT	SEGMENT PARA USE32 PUBLIC 'CODE'
_TEXT	ENDS
;	COMDAT ?assign@?$basic_string@DU?$char_traits@D@std@@V?$allocator@D@2@@std@@QAEAAV12@ABV12@@Z
_TEXT	SEGMENT PARA USE32 PUBLIC 'CODE'
_TEXT	ENDS
;	COMDAT ?assign@?$basic_string@DU?$char_traits@D@std@@V?$allocator@D@2@@std@@QAEAAV12@ABV12@II@Z
_TEXT	SEGMENT PARA USE32 PUBLIC 'CODE'
_TEXT	ENDS
;	COMDAT ?erase@?$basic_string@DU?$char_traits@D@std@@V?$allocator@D@2@@std@@QAEAAV12@II@Z
_TEXT	SEGMENT PARA USE32 PUBLIC 'CODE'
_TEXT	ENDS
;	COMDAT ?move@?$char_traits@D@std@@SAPADPADPBDI@Z
_TEXT	SEGMENT PARA USE32 PUBLIC 'CODE'
_TEXT	ENDS
;	COMDAT ?_Grow@?$basic_string@DU?$char_traits@D@std@@V?$allocator@D@2@@std@@IAE_NI_N@Z
_TEXT	SEGMENT PARA USE32 PUBLIC 'CODE'
_TEXT	ENDS
;	COMDAT ?max_size@?$basic_string@DU?$char_traits@D@std@@V?$allocator@D@2@@std@@QBEIXZ
_TEXT	SEGMENT PARA USE32 PUBLIC 'CODE'
_TEXT	ENDS
;	COMDAT ?max_size@?$allocator@D@std@@QBEIXZ
_TEXT	SEGMENT PARA USE32 PUBLIC 'CODE'
_TEXT	ENDS
;	COMDAT ?_Copy@?$basic_string@DU?$char_traits@D@std@@V?$allocator@D@2@@std@@IAEXII@Z
_TEXT	SEGMENT PARA USE32 PUBLIC 'CODE'
_TEXT	ENDS
;	COMDAT ?allocate@?$allocator@D@std@@QAEPADI@Z
_TEXT	SEGMENT PARA USE32 PUBLIC 'CODE'
_TEXT	ENDS
;	COMDAT ??$_Allocate@D@std@@YAPADIPAD@Z
_TEXT	SEGMENT PARA USE32 PUBLIC 'CODE'
_TEXT	ENDS
;	COMDAT ?_Tidy@?$basic_string@DU?$char_traits@D@std@@V?$allocator@D@2@@std@@IAEX_NI@Z
_TEXT	SEGMENT PARA USE32 PUBLIC 'CODE'
_TEXT	ENDS
;	COMDAT ?deallocate@?$allocator@D@std@@QAEXPADI@Z
_TEXT	SEGMENT PARA USE32 PUBLIC 'CODE'
_TEXT	ENDS
;	COMDAT ?copy@?$char_traits@D@std@@SAPADPADPBDI@Z
_TEXT	SEGMENT PARA USE32 PUBLIC 'CODE'
_TEXT	ENDS
;	COMDAT ?_Myptr@?$basic_string@DU?$char_traits@D@std@@V?$allocator@D@2@@std@@QAEPADXZ
_TEXT	SEGMENT PARA USE32 PUBLIC 'CODE'
_TEXT	ENDS
;	COMDAT ?_Eos@?$basic_string@DU?$char_traits@D@std@@V?$allocator@D@2@@std@@IAEXI@Z
_TEXT	SEGMENT PARA USE32 PUBLIC 'CODE'
_TEXT	ENDS
;	COMDAT ?assign@?$char_traits@D@std@@SAXAADABD@Z
_TEXT	SEGMENT PARA USE32 PUBLIC 'CODE'
_TEXT	ENDS
;	COMDAT ?npos@?$basic_string@DU?$char_traits@D@std@@V?$allocator@D@2@@std@@2IB
CONST	SEGMENT DWORD USE32 PUBLIC 'CONST'
CONST	ENDS
;	COMDAT ?_Ptr_cat@std@@YA?AU_Scalar_ptr_iterator_tag@1@PAJ0@Z
_TEXT	SEGMENT PARA USE32 PUBLIC 'CODE'
_TEXT	ENDS
;	COMDAT ??9const_iterator@?$_Tree@V?$_Tmap_traits@KEU?$less@K@std@@V?$allocator@U?$pair@$$CBKE@std@@@2@$0A@@std@@@std@@QBE_NABV012@@Z
_TEXT	SEGMENT PARA USE32 PUBLIC 'CODE'
_TEXT	ENDS
;	COMDAT ??8const_iterator@?$_Tree@V?$_Tmap_traits@KEU?$less@K@std@@V?$allocator@U?$pair@$$CBKE@std@@@2@$0A@@std@@@std@@QBE_NABV012@@Z
_TEXT	SEGMENT PARA USE32 PUBLIC 'CODE'
_TEXT	ENDS
;	COMDAT ??Eiterator@?$_Tree@V?$_Tmap_traits@KEU?$less@K@std@@V?$allocator@U?$pair@$$CBKE@std@@@2@$0A@@std@@@std@@QAEAAV012@XZ
_TEXT	SEGMENT PARA USE32 PUBLIC 'CODE'
_TEXT	ENDS
;	COMDAT ??Econst_iterator@?$_Tree@V?$_Tmap_traits@KEU?$less@K@std@@V?$allocator@U?$pair@$$CBKE@std@@@2@$0A@@std@@@std@@QAEAAV012@XZ
_TEXT	SEGMENT PARA USE32 PUBLIC 'CODE'
_TEXT	ENDS
;	COMDAT ?_Inc@const_iterator@?$_Tree@V?$_Tmap_traits@KEU?$less@K@std@@V?$allocator@U?$pair@$$CBKE@std@@@2@$0A@@std@@@std@@QAEXXZ
_TEXT	SEGMENT PARA USE32 PUBLIC 'CODE'
_TEXT	ENDS
;	COMDAT ?_Min@?$_Tree@V?$_Tmap_traits@KEU?$less@K@std@@V?$allocator@U?$pair@$$CBKE@std@@@2@$0A@@std@@@std@@KAPAU_Node@?$_Tree_nod@V?$_Tmap_traits@KEU?$less@K@std@@V?$allocator@U?$pair@$$CBKE@std@@@2@$0A@@std@@@2@PAU342@@Z
_TEXT	SEGMENT PARA USE32 PUBLIC 'CODE'
_TEXT	ENDS
;	COMDAT ?_Left@?$_Tree@V?$_Tmap_traits@KEU?$less@K@std@@V?$allocator@U?$pair@$$CBKE@std@@@2@$0A@@std@@@std@@KAAAPAU_Node@?$_Tree_nod@V?$_Tmap_traits@KEU?$less@K@std@@V?$allocator@U?$pair@$$CBKE@std@@@2@$0A@@std@@@2@PAU342@@Z
_TEXT	SEGMENT PARA USE32 PUBLIC 'CODE'
_TEXT	ENDS
;	COMDAT ?_Isnil@?$_Tree@V?$_Tmap_traits@KEU?$less@K@std@@V?$allocator@U?$pair@$$CBKE@std@@@2@$0A@@std@@@std@@KAAADPAU_Node@?$_Tree_nod@V?$_Tmap_traits@KEU?$less@K@std@@V?$allocator@U?$pair@$$CBKE@std@@@2@$0A@@std@@@2@@Z
_TEXT	SEGMENT PARA USE32 PUBLIC 'CODE'
_TEXT	ENDS
;	COMDAT ?_Parent@?$_Tree@V?$_Tmap_traits@KEU?$less@K@std@@V?$allocator@U?$pair@$$CBKE@std@@@2@$0A@@std@@@std@@KAAAPAU_Node@?$_Tree_nod@V?$_Tmap_traits@KEU?$less@K@std@@V?$allocator@U?$pair@$$CBKE@std@@@2@$0A@@std@@@2@PAU342@@Z
_TEXT	SEGMENT PARA USE32 PUBLIC 'CODE'
_TEXT	ENDS
;	COMDAT ?_Right@?$_Tree@V?$_Tmap_traits@KEU?$less@K@std@@V?$allocator@U?$pair@$$CBKE@std@@@2@$0A@@std@@@std@@KAAAPAU_Node@?$_Tree_nod@V?$_Tmap_traits@KEU?$less@K@std@@V?$allocator@U?$pair@$$CBKE@std@@@2@$0A@@std@@@2@PAU342@@Z
_TEXT	SEGMENT PARA USE32 PUBLIC 'CODE'
_TEXT	ENDS
;	COMDAT ??9const_iterator@?$_Tree@V?$_Tmap_traits@KPAVCCtrl@@U?$less@K@std@@V?$allocator@U?$pair@$$CBKPAVCCtrl@@@std@@@3@$0A@@std@@@std@@QBE_NABV012@@Z
_TEXT	SEGMENT PARA USE32 PUBLIC 'CODE'
_TEXT	ENDS
;	COMDAT ??9const_iterator@?$_Tree@V?$_Tmap_traits@KPAVCUser@@U?$less@K@std@@V?$allocator@U?$pair@$$CBKPAVCUser@@@std@@@3@$0A@@std@@@std@@QBE_NABV012@@Z
_TEXT	SEGMENT PARA USE32 PUBLIC 'CODE'
_TEXT	ENDS
;	COMDAT ??8const_iterator@?$_Tree@V?$_Tmap_traits@KPAVCUser@@U?$less@K@std@@V?$allocator@U?$pair@$$CBKPAVCUser@@@std@@@3@$0A@@std@@@std@@QBE_NABV012@@Z
_TEXT	SEGMENT PARA USE32 PUBLIC 'CODE'
_TEXT	ENDS
;	COMDAT ??Eiterator@?$_Tree@V?$_Tmap_traits@KPAVCUser@@U?$less@K@std@@V?$allocator@U?$pair@$$CBKPAVCUser@@@std@@@3@$0A@@std@@@std@@QAEAAV012@XZ
_TEXT	SEGMENT PARA USE32 PUBLIC 'CODE'
_TEXT	ENDS
;	COMDAT ??Econst_iterator@?$_Tree@V?$_Tmap_traits@KPAVCUser@@U?$less@K@std@@V?$allocator@U?$pair@$$CBKPAVCUser@@@std@@@3@$0A@@std@@@std@@QAEAAV012@XZ
_TEXT	SEGMENT PARA USE32 PUBLIC 'CODE'
_TEXT	ENDS
;	COMDAT ?_Inc@const_iterator@?$_Tree@V?$_Tmap_traits@KPAVCUser@@U?$less@K@std@@V?$allocator@U?$pair@$$CBKPAVCUser@@@std@@@3@$0A@@std@@@std@@QAEXXZ
_TEXT	SEGMENT PARA USE32 PUBLIC 'CODE'
_TEXT	ENDS
;	COMDAT ?_Min@?$_Tree@V?$_Tmap_traits@KPAVCUser@@U?$less@K@std@@V?$allocator@U?$pair@$$CBKPAVCUser@@@std@@@3@$0A@@std@@@std@@KAPAU_Node@?$_Tree_nod@V?$_Tmap_traits@KPAVCUser@@U?$less@K@std@@V?$allocator@U?$pair@$$CBKPAVCUser@@@std@@@3@$0A@@std@@@2@PAU342@@Z
_TEXT	SEGMENT PARA USE32 PUBLIC 'CODE'
_TEXT	ENDS
;	COMDAT ?_Left@?$_Tree@V?$_Tmap_traits@KPAVCUser@@U?$less@K@std@@V?$allocator@U?$pair@$$CBKPAVCUser@@@std@@@3@$0A@@std@@@std@@KAAAPAU_Node@?$_Tree_nod@V?$_Tmap_traits@KPAVCUser@@U?$less@K@std@@V?$allocator@U?$pair@$$CBKPAVCUser@@@std@@@3@$0A@@std@@@2@PAU342@@Z
_TEXT	SEGMENT PARA USE32 PUBLIC 'CODE'
_TEXT	ENDS
;	COMDAT ?_Isnil@?$_Tree@V?$_Tmap_traits@KPAVCUser@@U?$less@K@std@@V?$allocator@U?$pair@$$CBKPAVCUser@@@std@@@3@$0A@@std@@@std@@KAAADPAU_Node@?$_Tree_nod@V?$_Tmap_traits@KPAVCUser@@U?$less@K@std@@V?$allocator@U?$pair@$$CBKPAVCUser@@@std@@@3@$0A@@std@@@2@@Z
_TEXT	SEGMENT PARA USE32 PUBLIC 'CODE'
_TEXT	ENDS
;	COMDAT ?_Parent@?$_Tree@V?$_Tmap_traits@KPAVCUser@@U?$less@K@std@@V?$allocator@U?$pair@$$CBKPAVCUser@@@std@@@3@$0A@@std@@@std@@KAAAPAU_Node@?$_Tree_nod@V?$_Tmap_traits@KPAVCUser@@U?$less@K@std@@V?$allocator@U?$pair@$$CBKPAVCUser@@@std@@@3@$0A@@std@@@2@PAU342@@Z
_TEXT	SEGMENT PARA USE32 PUBLIC 'CODE'
_TEXT	ENDS
;	COMDAT ?_Right@?$_Tree@V?$_Tmap_traits@KPAVCUser@@U?$less@K@std@@V?$allocator@U?$pair@$$CBKPAVCUser@@@std@@@3@$0A@@std@@@std@@KAAAPAU_Node@?$_Tree_nod@V?$_Tmap_traits@KPAVCUser@@U?$less@K@std@@V?$allocator@U?$pair@$$CBKPAVCUser@@@std@@@3@$0A@@std@@@2@PAU342@@Z
_TEXT	SEGMENT PARA USE32 PUBLIC 'CODE'
_TEXT	ENDS
;	COMDAT ??_7?$CItemContainer@VCItemElem@@@@6B@
CONST	SEGMENT DWORD USE32 PUBLIC 'CONST'
CONST	ENDS
;	COMDAT ??_G?$CItemContainer@VCItemElem@@@@UAEPAXI@Z
_TEXT	SEGMENT PARA USE32 PUBLIC 'CODE'
_TEXT	ENDS
;	COMDAT ?_Psave@?$_Facetptr@V?$ctype@G@std@@@std@@2PBVfacet@locale@2@B
_DATA	SEGMENT DWORD USE32 PUBLIC 'DATA'
_DATA	ENDS
;	COMDAT ?_Psave@?$_Facetptr@V?$ctype@D@std@@@std@@2PBVfacet@locale@2@B
_DATA	SEGMENT DWORD USE32 PUBLIC 'DATA'
_DATA	ENDS
;	COMDAT ??3@YAXPAX0@Z
_TEXT	SEGMENT PARA USE32 PUBLIC 'CODE'
_TEXT	ENDS
;	COMDAT ??2@YAPAXIPAX@Z
_TEXT	SEGMENT PARA USE32 PUBLIC 'CODE'
_TEXT	ENDS
;	COMDAT ??0?$basic_string@DU?$char_traits@D@std@@V?$allocator@D@2@@std@@QAE@ABV01@@Z
_TEXT	SEGMENT PARA USE32 PUBLIC 'CODE'
_TEXT	ENDS
;	COMDAT ??0?$_String_val@DV?$allocator@D@std@@@std@@IAE@V?$allocator@D@1@@Z
_TEXT	SEGMENT PARA USE32 PUBLIC 'CODE'
_TEXT	ENDS
;	COMDAT ??0?$allocator@D@std@@QAE@ABV01@@Z
_TEXT	SEGMENT PARA USE32 PUBLIC 'CODE'
_TEXT	ENDS
;	COMDAT ??_C@_0BD@OLBABOEK@vector?$DMT?$DO?5too?5long?$AA@
CONST	SEGMENT DWORD USE32 PUBLIC 'CONST'
CONST	ENDS
;	COMDAT ??$swap@D@std@@YAXAAD0@Z
_TEXT	SEGMENT PARA USE32 PUBLIC 'CODE'
_TEXT	ENDS
;	COMDAT __TI3?AVout_of_range@std@@
xdata$x	SEGMENT DWORD USE32 PUBLIC 'CONST'
xdata$x	ENDS
;	COMDAT ??1out_of_range@std@@UAE@XZ
_TEXT	SEGMENT PARA USE32 PUBLIC 'CODE'
_TEXT	ENDS
;	COMDAT ??_7out_of_range@std@@6B@
CONST	SEGMENT DWORD USE32 PUBLIC 'CONST'
CONST	ENDS
;	COMDAT ??_Gout_of_range@std@@UAEPAXI@Z
_TEXT	SEGMENT PARA USE32 PUBLIC 'CODE'
_TEXT	ENDS
;	COMDAT ?what@logic_error@std@@UBEPBDXZ
_TEXT	SEGMENT PARA USE32 PUBLIC 'CODE'
_TEXT	ENDS
;	COMDAT ??1logic_error@std@@UAE@XZ
_TEXT	SEGMENT PARA USE32 PUBLIC 'CODE'
_TEXT	ENDS
;	COMDAT ??_7logic_error@std@@6B@
CONST	SEGMENT DWORD USE32 PUBLIC 'CONST'
CONST	ENDS
;	COMDAT ??_Glogic_error@std@@UAEPAXI@Z
_TEXT	SEGMENT PARA USE32 PUBLIC 'CODE'
_TEXT	ENDS
;	COMDAT __CTA3?AVout_of_range@std@@
xdata$x	SEGMENT DWORD USE32 PUBLIC 'CONST'
xdata$x	ENDS
;	COMDAT __CT??_R0?AVout_of_range@std@@@8??0out_of_range@std@@QAE@ABV01@@Z40
xdata$x	SEGMENT DWORD USE32 PUBLIC 'CONST'
xdata$x	ENDS
;	COMDAT ??_R0?AVout_of_range@std@@@8
_DATA	SEGMENT DWORD USE32 PUBLIC 'DATA'
_DATA	ENDS
;	COMDAT ??0out_of_range@std@@QAE@ABV01@@Z
_TEXT	SEGMENT PARA USE32 PUBLIC 'CODE'
_TEXT	ENDS
;	COMDAT ??0logic_error@std@@QAE@ABV01@@Z
_TEXT	SEGMENT PARA USE32 PUBLIC 'CODE'
_TEXT	ENDS
;	COMDAT __CT??_R0?AVlogic_error@std@@@8??0logic_error@std@@QAE@ABV01@@Z40
xdata$x	SEGMENT DWORD USE32 PUBLIC 'CONST'
xdata$x	ENDS
;	COMDAT ??_R0?AVlogic_error@std@@@8
_DATA	SEGMENT DWORD USE32 PUBLIC 'DATA'
_DATA	ENDS
;	COMDAT __CT??_R0?AVexception@@@8??0exception@@QAE@ABV0@@Z12
xdata$x	SEGMENT DWORD USE32 PUBLIC 'CONST'
xdata$x	ENDS
;	COMDAT ??_R0?AVexception@@@8
_DATA	SEGMENT DWORD USE32 PUBLIC 'DATA'
_DATA	ENDS
;	COMDAT ??_C@_0BM@PAPJHAGI@invalid?5map?1set?$DMT?$DO?5iterator?$AA@
CONST	SEGMENT DWORD USE32 PUBLIC 'CONST'
CONST	ENDS
;	COMDAT ??0out_of_range@std@@QAE@ABV?$basic_string@DU?$char_traits@D@std@@V?$allocator@D@2@@1@@Z
_TEXT	SEGMENT PARA USE32 PUBLIC 'CODE'
_TEXT	ENDS
;	COMDAT ??0logic_error@std@@QAE@ABV?$basic_string@DU?$char_traits@D@std@@V?$allocator@D@2@@1@@Z
_TEXT	SEGMENT PARA USE32 PUBLIC 'CODE'
_TEXT	ENDS
;	COMDAT __TI3?AVlength_error@std@@
xdata$x	SEGMENT DWORD USE32 PUBLIC 'CONST'
xdata$x	ENDS
;	COMDAT ??1length_error@std@@UAE@XZ
_TEXT	SEGMENT PARA USE32 PUBLIC 'CODE'
_TEXT	ENDS
;	COMDAT ??_7length_error@std@@6B@
CONST	SEGMENT DWORD USE32 PUBLIC 'CONST'
CONST	ENDS
;	COMDAT ??_Glength_error@std@@UAEPAXI@Z
_TEXT	SEGMENT PARA USE32 PUBLIC 'CODE'
_TEXT	ENDS
;	COMDAT __CTA3?AVlength_error@std@@
xdata$x	SEGMENT DWORD USE32 PUBLIC 'CONST'
xdata$x	ENDS
;	COMDAT __CT??_R0?AVlength_error@std@@@8??0length_error@std@@QAE@ABV01@@Z40
xdata$x	SEGMENT DWORD USE32 PUBLIC 'CONST'
xdata$x	ENDS
;	COMDAT ??_R0?AVlength_error@std@@@8
_DATA	SEGMENT DWORD USE32 PUBLIC 'DATA'
_DATA	ENDS
;	COMDAT ??0length_error@std@@QAE@ABV01@@Z
_TEXT	SEGMENT PARA USE32 PUBLIC 'CODE'
_TEXT	ENDS
;	COMDAT ??_C@_0BE@JONHPENG@map?1set?$DMT?$DO?5too?5long?$AA@
CONST	SEGMENT DWORD USE32 PUBLIC 'CONST'
CONST	ENDS
;	COMDAT ??0length_error@std@@QAE@ABV?$basic_string@DU?$char_traits@D@std@@V?$allocator@D@2@@1@@Z
_TEXT	SEGMENT PARA USE32 PUBLIC 'CODE'
_TEXT	ENDS
;	COMDAT ?insert@?$_Tree@V?$_Tmap_traits@KPAVCCtrl@@U?$less@K@std@@V?$allocator@U?$pair@$$CBKPAVCCtrl@@@std@@@3@$0A@@std@@@std@@QAE?AU?$pair@Viterator@?$_Tree@V?$_Tmap_traits@KPAVCCtrl@@U?$less@K@std@@V?$allocator@U?$pair@$$CBKPAVCCtrl@@@std@@@3@$0A@@std@@@std@@_N@2@ABU?$pair@$$CBKPAVCCtrl@@@2@@Z
_TEXT	SEGMENT PARA USE32 PUBLIC 'CODE'
_TEXT	ENDS
;	COMDAT ?_Root@?$_Tree@V?$_Tmap_traits@KPAVCCtrl@@U?$less@K@std@@V?$allocator@U?$pair@$$CBKPAVCCtrl@@@std@@@3@$0A@@std@@@std@@IAEAAPAU_Node@?$_Tree_nod@V?$_Tmap_traits@KPAVCCtrl@@U?$less@K@std@@V?$allocator@U?$pair@$$CBKPAVCCtrl@@@std@@@3@$0A@@std@@@2@XZ
_TEXT	SEGMENT PARA USE32 PUBLIC 'CODE'
_TEXT	ENDS
;	COMDAT ?_Parent@?$_Tree@V?$_Tmap_traits@KPAVCCtrl@@U?$less@K@std@@V?$allocator@U?$pair@$$CBKPAVCCtrl@@@std@@@3@$0A@@std@@@std@@KAAAPAU_Node@?$_Tree_nod@V?$_Tmap_traits@KPAVCCtrl@@U?$less@K@std@@V?$allocator@U?$pair@$$CBKPAVCCtrl@@@std@@@3@$0A@@std@@@2@PAU342@@Z
_TEXT	SEGMENT PARA USE32 PUBLIC 'CODE'
_TEXT	ENDS
;	COMDAT ?_Left@?$_Tree@V?$_Tmap_traits@KPAVCCtrl@@U?$less@K@std@@V?$allocator@U?$pair@$$CBKPAVCCtrl@@@std@@@3@$0A@@std@@@std@@KAAAPAU_Node@?$_Tree_nod@V?$_Tmap_traits@KPAVCCtrl@@U?$less@K@std@@V?$allocator@U?$pair@$$CBKPAVCCtrl@@@std@@@3@$0A@@std@@@2@PAU342@@Z
_TEXT	SEGMENT PARA USE32 PUBLIC 'CODE'
_TEXT	ENDS
;	COMDAT ??0iterator@?$_Tree@V?$_Tmap_traits@KPAVCCtrl@@U?$less@K@std@@V?$allocator@U?$pair@$$CBKPAVCCtrl@@@std@@@3@$0A@@std@@@std@@QAE@PAU_Node@?$_Tree_nod@V?$_Tmap_traits@KPAVCCtrl@@U?$less@K@std@@V?$allocator@U?$pair@$$CBKPAVCCtrl@@@std@@@3@$0A@@std@@@2@@Z
_TEXT	SEGMENT PARA USE32 PUBLIC 'CODE'
_TEXT	ENDS
;	COMDAT ??0const_iterator@?$_Tree@V?$_Tmap_traits@KPAVCCtrl@@U?$less@K@std@@V?$allocator@U?$pair@$$CBKPAVCCtrl@@@std@@@3@$0A@@std@@@std@@QAE@PAU_Node@?$_Tree_nod@V?$_Tmap_traits@KPAVCCtrl@@U?$less@K@std@@V?$allocator@U?$pair@$$CBKPAVCCtrl@@@std@@@3@$0A@@std@@@2@@Z
_TEXT	SEGMENT PARA USE32 PUBLIC 'CODE'
_TEXT	ENDS
;	COMDAT ??0?$pair@Viterator@?$_Tree@V?$_Tmap_traits@KPAVCCtrl@@U?$less@K@std@@V?$allocator@U?$pair@$$CBKPAVCCtrl@@@std@@@3@$0A@@std@@@std@@_N@std@@QAE@ABViterator@?$_Tree@V?$_Tmap_traits@KPAVCCtrl@@U?$less@K@std@@V?$allocator@U?$pair@$$CBKPAVCCtrl@@@std@@@3@$0A@@std@@@1@AB_N@Z
_TEXT	SEGMENT PARA USE32 PUBLIC 'CODE'
_TEXT	ENDS
;	COMDAT ??Eiterator@?$_Tree@V?$_Tmap_traits@KPAVCCtrl@@U?$less@K@std@@V?$allocator@U?$pair@$$CBKPAVCCtrl@@@std@@@3@$0A@@std@@@std@@QAEAAV012@XZ
_TEXT	SEGMENT PARA USE32 PUBLIC 'CODE'
_TEXT	ENDS
;	COMDAT ??Econst_iterator@?$_Tree@V?$_Tmap_traits@KPAVCCtrl@@U?$less@K@std@@V?$allocator@U?$pair@$$CBKPAVCCtrl@@@std@@@3@$0A@@std@@@std@@QAEAAV012@XZ
_TEXT	SEGMENT PARA USE32 PUBLIC 'CODE'
_TEXT	ENDS
;	COMDAT ?_Inc@const_iterator@?$_Tree@V?$_Tmap_traits@KPAVCCtrl@@U?$less@K@std@@V?$allocator@U?$pair@$$CBKPAVCCtrl@@@std@@@3@$0A@@std@@@std@@QAEXXZ
_TEXT	SEGMENT PARA USE32 PUBLIC 'CODE'
_TEXT	ENDS
;	COMDAT ?_Min@?$_Tree@V?$_Tmap_traits@KPAVCCtrl@@U?$less@K@std@@V?$allocator@U?$pair@$$CBKPAVCCtrl@@@std@@@3@$0A@@std@@@std@@KAPAU_Node@?$_Tree_nod@V?$_Tmap_traits@KPAVCCtrl@@U?$less@K@std@@V?$allocator@U?$pair@$$CBKPAVCCtrl@@@std@@@3@$0A@@std@@@2@PAU342@@Z
_TEXT	SEGMENT PARA USE32 PUBLIC 'CODE'
_TEXT	ENDS
;	COMDAT ?_Right@?$_Tree@V?$_Tmap_traits@KPAVCCtrl@@U?$less@K@std@@V?$allocator@U?$pair@$$CBKPAVCCtrl@@@std@@@3@$0A@@std@@@std@@KAAAPAU_Node@?$_Tree_nod@V?$_Tmap_traits@KPAVCCtrl@@U?$less@K@std@@V?$allocator@U?$pair@$$CBKPAVCCtrl@@@std@@@3@$0A@@std@@@2@PAU342@@Z
_TEXT	SEGMENT PARA USE32 PUBLIC 'CODE'
_TEXT	ENDS
;	COMDAT ?_Isnil@?$_Tree@V?$_Tmap_traits@KPAVCCtrl@@U?$less@K@std@@V?$allocator@U?$pair@$$CBKPAVCCtrl@@@std@@@3@$0A@@std@@@std@@KAAADPAU_Node@?$_Tree_nod@V?$_Tmap_traits@KPAVCCtrl@@U?$less@K@std@@V?$allocator@U?$pair@$$CBKPAVCCtrl@@@std@@@3@$0A@@std@@@2@@Z
_TEXT	SEGMENT PARA USE32 PUBLIC 'CODE'
_TEXT	ENDS
;	COMDAT ??Fiterator@?$_Tree@V?$_Tmap_traits@KPAVCCtrl@@U?$less@K@std@@V?$allocator@U?$pair@$$CBKPAVCCtrl@@@std@@@3@$0A@@std@@@std@@QAEAAV012@XZ
_TEXT	SEGMENT PARA USE32 PUBLIC 'CODE'
_TEXT	ENDS
;	COMDAT ??Fconst_iterator@?$_Tree@V?$_Tmap_traits@KPAVCCtrl@@U?$less@K@std@@V?$allocator@U?$pair@$$CBKPAVCCtrl@@@std@@@3@$0A@@std@@@std@@QAEAAV012@XZ
_TEXT	SEGMENT PARA USE32 PUBLIC 'CODE'
_TEXT	ENDS
;	COMDAT ?_Dec@const_iterator@?$_Tree@V?$_Tmap_traits@KPAVCCtrl@@U?$less@K@std@@V?$allocator@U?$pair@$$CBKPAVCCtrl@@@std@@@3@$0A@@std@@@std@@QAEXXZ
_TEXT	SEGMENT PARA USE32 PUBLIC 'CODE'
_TEXT	ENDS
;	COMDAT ?_Max@?$_Tree@V?$_Tmap_traits@KPAVCCtrl@@U?$less@K@std@@V?$allocator@U?$pair@$$CBKPAVCCtrl@@@std@@@3@$0A@@std@@@std@@KAPAU_Node@?$_Tree_nod@V?$_Tmap_traits@KPAVCCtrl@@U?$less@K@std@@V?$allocator@U?$pair@$$CBKPAVCCtrl@@@std@@@3@$0A@@std@@@2@PAU342@@Z
_TEXT	SEGMENT PARA USE32 PUBLIC 'CODE'
_TEXT	ENDS
;	COMDAT ?_Rmost@?$_Tree@V?$_Tmap_traits@KPAVCCtrl@@U?$less@K@std@@V?$allocator@U?$pair@$$CBKPAVCCtrl@@@std@@@3@$0A@@std@@@std@@IAEAAPAU_Node@?$_Tree_nod@V?$_Tmap_traits@KPAVCCtrl@@U?$less@K@std@@V?$allocator@U?$pair@$$CBKPAVCCtrl@@@std@@@3@$0A@@std@@@2@XZ
_TEXT	SEGMENT PARA USE32 PUBLIC 'CODE'
_TEXT	ENDS
;	COMDAT ?_Kfn@?$_Tmap_traits@KPAVCCtrl@@U?$less@K@std@@V?$allocator@U?$pair@$$CBKPAVCCtrl@@@std@@@3@$0A@@std@@SAABKABU?$pair@$$CBKPAVCCtrl@@@2@@Z
_TEXT	SEGMENT PARA USE32 PUBLIC 'CODE'
_TEXT	ENDS
;	COMDAT ?begin@?$_Tree@V?$_Tmap_traits@KPAVCCtrl@@U?$less@K@std@@V?$allocator@U?$pair@$$CBKPAVCCtrl@@@std@@@3@$0A@@std@@@std@@QAE?AViterator@12@XZ
_TEXT	SEGMENT PARA USE32 PUBLIC 'CODE'
_TEXT	ENDS
;	COMDAT ?_Lmost@?$_Tree@V?$_Tmap_traits@KPAVCCtrl@@U?$less@K@std@@V?$allocator@U?$pair@$$CBKPAVCCtrl@@@std@@@3@$0A@@std@@@std@@IAEAAPAU_Node@?$_Tree_nod@V?$_Tmap_traits@KPAVCCtrl@@U?$less@K@std@@V?$allocator@U?$pair@$$CBKPAVCCtrl@@@std@@@3@$0A@@std@@@2@XZ
_TEXT	SEGMENT PARA USE32 PUBLIC 'CODE'
_TEXT	ENDS
;	COMDAT ?_Insert@?$_Tree@V?$_Tmap_traits@KPAVCCtrl@@U?$less@K@std@@V?$allocator@U?$pair@$$CBKPAVCCtrl@@@std@@@3@$0A@@std@@@std@@IAE?AViterator@12@_NPAU_Node@?$_Tree_nod@V?$_Tmap_traits@KPAVCCtrl@@U?$less@K@std@@V?$allocator@U?$pair@$$CBKPAVCCtrl@@@std@@@3@$0A@@std@@@2@ABU?$pair@$$CBKPAVCCtrl@@@2@@Z
_TEXT	SEGMENT PARA USE32 PUBLIC 'CODE'
_TEXT	ENDS
;	COMDAT ?max_size@?$_Tree@V?$_Tmap_traits@KPAVCCtrl@@U?$less@K@std@@V?$allocator@U?$pair@$$CBKPAVCCtrl@@@std@@@3@$0A@@std@@@std@@QBEIXZ
_TEXT	SEGMENT PARA USE32 PUBLIC 'CODE'
_TEXT	ENDS
;	COMDAT ?max_size@?$allocator@U?$pair@$$CBKPAVCCtrl@@@std@@@std@@QBEIXZ
_TEXT	SEGMENT PARA USE32 PUBLIC 'CODE'
_TEXT	ENDS
;	COMDAT ?_Buynode@?$_Tree@V?$_Tmap_traits@KPAVCCtrl@@U?$less@K@std@@V?$allocator@U?$pair@$$CBKPAVCCtrl@@@std@@@3@$0A@@std@@@std@@IAEPAU_Node@?$_Tree_nod@V?$_Tmap_traits@KPAVCCtrl@@U?$less@K@std@@V?$allocator@U?$pair@$$CBKPAVCCtrl@@@std@@@3@$0A@@std@@@2@PAU342@00ABU?$pair@$$CBKPAVCCtrl@@@2@D@Z
_TEXT	SEGMENT PARA USE32 PUBLIC 'CODE'
_TEXT	ENDS
;	COMDAT ?allocate@?$allocator@U_Node@?$_Tree_nod@V?$_Tmap_traits@KPAVCCtrl@@U?$less@K@std@@V?$allocator@U?$pair@$$CBKPAVCCtrl@@@std@@@3@$0A@@std@@@std@@@std@@QAEPAU_Node@?$_Tree_nod@V?$_Tmap_traits@KPAVCCtrl@@U?$less@K@std@@V?$allocator@U?$pair@$$CBKPAVCCtrl@@@std@@@3@$0A@@std@@@2@I@Z
_TEXT	SEGMENT PARA USE32 PUBLIC 'CODE'
_TEXT	ENDS
;	COMDAT ??$_Allocate@U_Node@?$_Tree_nod@V?$_Tmap_traits@KPAVCCtrl@@U?$less@K@std@@V?$allocator@U?$pair@$$CBKPAVCCtrl@@@std@@@3@$0A@@std@@@std@@@std@@YAPAU_Node@?$_Tree_nod@V?$_Tmap_traits@KPAVCCtrl@@U?$less@K@std@@V?$allocator@U?$pair@$$CBKPAVCCtrl@@@std@@@3@$0A@@std@@@0@IPAU120@@Z
_TEXT	SEGMENT PARA USE32 PUBLIC 'CODE'
_TEXT	ENDS
;	COMDAT ??0_Node@?$_Tree_nod@V?$_Tmap_traits@KPAVCCtrl@@U?$less@K@std@@V?$allocator@U?$pair@$$CBKPAVCCtrl@@@std@@@3@$0A@@std@@@std@@QAE@PAU012@00ABU?$pair@$$CBKPAVCCtrl@@@2@D@Z
_TEXT	SEGMENT PARA USE32 PUBLIC 'CODE'
_TEXT	ENDS
;	COMDAT ?deallocate@?$allocator@U_Node@?$_Tree_nod@V?$_Tmap_traits@KPAVCCtrl@@U?$less@K@std@@V?$allocator@U?$pair@$$CBKPAVCCtrl@@@std@@@3@$0A@@std@@@std@@@std@@QAEXPAU_Node@?$_Tree_nod@V?$_Tmap_traits@KPAVCCtrl@@U?$less@K@std@@V?$allocator@U?$pair@$$CBKPAVCCtrl@@@std@@@3@$0A@@std@@@2@I@Z
_TEXT	SEGMENT PARA USE32 PUBLIC 'CODE'
_TEXT	ENDS
;	COMDAT ?_Rrotate@?$_Tree@V?$_Tmap_traits@KPAVCCtrl@@U?$less@K@std@@V?$allocator@U?$pair@$$CBKPAVCCtrl@@@std@@@3@$0A@@std@@@std@@IAEXPAU_Node@?$_Tree_nod@V?$_Tmap_traits@KPAVCCtrl@@U?$less@K@std@@V?$allocator@U?$pair@$$CBKPAVCCtrl@@@std@@@3@$0A@@std@@@2@@Z
_TEXT	SEGMENT PARA USE32 PUBLIC 'CODE'
_TEXT	ENDS
;	COMDAT ?_Lrotate@?$_Tree@V?$_Tmap_traits@KPAVCCtrl@@U?$less@K@std@@V?$allocator@U?$pair@$$CBKPAVCCtrl@@@std@@@3@$0A@@std@@@std@@IAEXPAU_Node@?$_Tree_nod@V?$_Tmap_traits@KPAVCCtrl@@U?$less@K@std@@V?$allocator@U?$pair@$$CBKPAVCCtrl@@@std@@@3@$0A@@std@@@2@@Z
_TEXT	SEGMENT PARA USE32 PUBLIC 'CODE'
_TEXT	ENDS
;	COMDAT ?_Color@?$_Tree@V?$_Tmap_traits@KPAVCCtrl@@U?$less@K@std@@V?$allocator@U?$pair@$$CBKPAVCCtrl@@@std@@@3@$0A@@std@@@std@@KAAADPAU_Node@?$_Tree_nod@V?$_Tmap_traits@KPAVCCtrl@@U?$less@K@std@@V?$allocator@U?$pair@$$CBKPAVCCtrl@@@std@@@3@$0A@@std@@@2@@Z
_TEXT	SEGMENT PARA USE32 PUBLIC 'CODE'
_TEXT	ENDS
;	COMDAT ?compare@?$char_traits@D@std@@SAHPBD0I@Z
_TEXT	SEGMENT PARA USE32 PUBLIC 'CODE'
_TEXT	ENDS
;	COMDAT ?IsEmpty@CItemBase@@QAEHXZ
_TEXT	SEGMENT PARA USE32 PUBLIC 'CODE'
_TEXT	ENDS
;	COMDAT ??Diterator@?$_Tree@V?$_Tmap_traits@KPAVCCtrl@@U?$less@K@std@@V?$allocator@U?$pair@$$CBKPAVCCtrl@@@std@@@3@$0A@@std@@@std@@QBEAAU?$pair@$$CBKPAVCCtrl@@@2@XZ
_TEXT	SEGMENT PARA USE32 PUBLIC 'CODE'
_TEXT	ENDS
;	COMDAT ??Dconst_iterator@?$_Tree@V?$_Tmap_traits@KPAVCCtrl@@U?$less@K@std@@V?$allocator@U?$pair@$$CBKPAVCCtrl@@@std@@@3@$0A@@std@@@std@@QBEABU?$pair@$$CBKPAVCCtrl@@@2@XZ
_TEXT	SEGMENT PARA USE32 PUBLIC 'CODE'
_TEXT	ENDS
;	COMDAT ?_Myval@?$_Tree@V?$_Tmap_traits@KPAVCCtrl@@U?$less@K@std@@V?$allocator@U?$pair@$$CBKPAVCCtrl@@@std@@@3@$0A@@std@@@std@@KAAAU?$pair@$$CBKPAVCCtrl@@@2@PAU_Node@?$_Tree_nod@V?$_Tmap_traits@KPAVCCtrl@@U?$less@K@std@@V?$allocator@U?$pair@$$CBKPAVCCtrl@@@std@@@3@$0A@@std@@@2@@Z
_TEXT	SEGMENT PARA USE32 PUBLIC 'CODE'
_TEXT	ENDS
;	COMDAT ?_Mynode@const_iterator@?$_Tree@V?$_Tmap_traits@KPAVCCtrl@@U?$less@K@std@@V?$allocator@U?$pair@$$CBKPAVCCtrl@@@std@@@3@$0A@@std@@@std@@QBEPAU_Node@?$_Tree_nod@V?$_Tmap_traits@KPAVCCtrl@@U?$less@K@std@@V?$allocator@U?$pair@$$CBKPAVCCtrl@@@std@@@3@$0A@@std@@@3@XZ
_TEXT	SEGMENT PARA USE32 PUBLIC 'CODE'
_TEXT	ENDS
;	COMDAT ?_Key@?$_Tree@V?$_Tmap_traits@KPAVCCtrl@@U?$less@K@std@@V?$allocator@U?$pair@$$CBKPAVCCtrl@@@std@@@3@$0A@@std@@@std@@KAABKPAU_Node@?$_Tree_nod@V?$_Tmap_traits@KPAVCCtrl@@U?$less@K@std@@V?$allocator@U?$pair@$$CBKPAVCCtrl@@@std@@@3@$0A@@std@@@2@@Z
_TEXT	SEGMENT PARA USE32 PUBLIC 'CODE'
_TEXT	ENDS
;	COMDAT ??R?$less@K@std@@QBE_NABK0@Z
_TEXT	SEGMENT PARA USE32 PUBLIC 'CODE'
_TEXT	ENDS
;	COMDAT ?end@?$_Tree@V?$_Tmap_traits@KPAVCCtrl@@U?$less@K@std@@V?$allocator@U?$pair@$$CBKPAVCCtrl@@@std@@@3@$0A@@std@@@std@@QAE?AViterator@12@XZ
_TEXT	SEGMENT PARA USE32 PUBLIC 'CODE'
_TEXT	ENDS
;	COMDAT ??8const_iterator@?$_Tree@V?$_Tmap_traits@KPAVCCtrl@@U?$less@K@std@@V?$allocator@U?$pair@$$CBKPAVCCtrl@@@std@@@3@$0A@@std@@@std@@QBE_NABV012@@Z
_TEXT	SEGMENT PARA USE32 PUBLIC 'CODE'
_TEXT	ENDS
;	COMDAT ?lower_bound@?$_Tree@V?$_Tmap_traits@KPAVCCtrl@@U?$less@K@std@@V?$allocator@U?$pair@$$CBKPAVCCtrl@@@std@@@3@$0A@@std@@@std@@QAE?AViterator@12@ABK@Z
_TEXT	SEGMENT PARA USE32 PUBLIC 'CODE'
_TEXT	ENDS
;	COMDAT ?_Lbound@?$_Tree@V?$_Tmap_traits@KPAVCCtrl@@U?$less@K@std@@V?$allocator@U?$pair@$$CBKPAVCCtrl@@@std@@@3@$0A@@std@@@std@@IBEPAU_Node@?$_Tree_nod@V?$_Tmap_traits@KPAVCCtrl@@U?$less@K@std@@V?$allocator@U?$pair@$$CBKPAVCCtrl@@@std@@@3@$0A@@std@@@2@ABK@Z
_TEXT	SEGMENT PARA USE32 PUBLIC 'CODE'
_TEXT	ENDS
;	COMDAT ?_Root@?$_Tree@V?$_Tmap_traits@KPAVCCtrl@@U?$less@K@std@@V?$allocator@U?$pair@$$CBKPAVCCtrl@@@std@@@3@$0A@@std@@@std@@IBEAAPAU_Node@?$_Tree_nod@V?$_Tmap_traits@KPAVCCtrl@@U?$less@K@std@@V?$allocator@U?$pair@$$CBKPAVCCtrl@@@std@@@3@$0A@@std@@@2@XZ
_TEXT	SEGMENT PARA USE32 PUBLIC 'CODE'
_TEXT	ENDS
;	COMDAT ?_Myptr@?$basic_string@DU?$char_traits@D@std@@V?$allocator@D@2@@std@@QBEPBDXZ
_TEXT	SEGMENT PARA USE32 PUBLIC 'CODE'
_TEXT	ENDS
;	COMDAT ?size@?$basic_string@DU?$char_traits@D@std@@V?$allocator@D@2@@std@@QBEIXZ
_TEXT	SEGMENT PARA USE32 PUBLIC 'CODE'
_TEXT	ENDS
;	COMDAT ?GetSerialNumber@CItemBase@@QAEKXZ
_TEXT	SEGMENT PARA USE32 PUBLIC 'CODE'
_TEXT	ENDS
;	COMDAT ?GetOffset@CAr@@QAEKXZ
_TEXT	SEGMENT PARA USE32 PUBLIC 'CODE'
_TEXT	ENDS
;	COMDAT ?GetLevel@CMover@@QAEHXZ
_TEXT	SEGMENT PARA USE32 PUBLIC 'CODE'
_TEXT	ENDS
;	COMDAT ?GetWorld@CObj@@QAEPAVCWorld@@XZ
_TEXT	SEGMENT PARA USE32 PUBLIC 'CODE'
_TEXT	ENDS
;	COMDAT ?GetID@CWorld@@QAEKXZ
_TEXT	SEGMENT PARA USE32 PUBLIC 'CODE'
_TEXT	ENDS
;	COMDAT ?GetGold@CMover@@QAEHXZ
_TEXT	SEGMENT PARA USE32 PUBLIC 'CODE'
_TEXT	ENDS
;	COMDAT ?IsTransformVisPet@CItemElem@@QAEHXZ
_TEXT	SEGMENT PARA USE32 PUBLIC 'CODE'
_TEXT	ENDS
;	COMDAT ?GetEnergy@CPet@@QAEGXZ
_TEXT	SEGMENT PARA USE32 PUBLIC 'CODE'
_TEXT	ENDS
;	COMDAT ?GetExp@CPet@@QAEKXZ
_TEXT	SEGMENT PARA USE32 PUBLIC 'CODE'
_TEXT	ENDS
;	COMDAT ?GetLevel@CPet@@QAEEXZ
_TEXT	SEGMENT PARA USE32 PUBLIC 'CODE'
_TEXT	ENDS
;	COMDAT ?GetKind@CPet@@QAEEXZ
_TEXT	SEGMENT PARA USE32 PUBLIC 'CODE'
_TEXT	ENDS
;	COMDAT ??6CAr@@QAEAAV0@E@Z
_TEXT	SEGMENT PARA USE32 PUBLIC 'CODE'
_TEXT	ENDS
;	COMDAT ?GetRandomOptItemId@CItemElem@@QAE_JXZ
_TEXT	SEGMENT PARA USE32 PUBLIC 'CODE'
_TEXT	ENDS
;	COMDAT ??6@YAAAVCAr@@AAV0@_J@Z
_TEXT	SEGMENT PARA USE32 PUBLIC 'CODE'
_TEXT	ENDS
;	COMDAT ?GetUltimatePiercingItem@CItemElem@@QAEKH@Z
_TEXT	SEGMENT PARA USE32 PUBLIC 'CODE'
_TEXT	ENDS
;	COMDAT ?GetUltimatePiercingSize@CItemElem@@QAEHXZ
_TEXT	SEGMENT PARA USE32 PUBLIC 'CODE'
_TEXT	ENDS
;	COMDAT ?GetPiercingItem@CItemElem@@QAEKH@Z
_TEXT	SEGMENT PARA USE32 PUBLIC 'CODE'
_TEXT	ENDS
;	COMDAT ?GetPiercingSize@CItemElem@@QAEHXZ
_TEXT	SEGMENT PARA USE32 PUBLIC 'CODE'
_TEXT	ENDS
;	COMDAT ?GetAbilityOption@CItemElem@@QAEHXZ
_TEXT	SEGMENT PARA USE32 PUBLIC 'CODE'
_TEXT	ENDS
;	COMDAT ??6CAr@@QAEAAV0@F@Z
_TEXT	SEGMENT PARA USE32 PUBLIC 'CODE'
_TEXT	ENDS
;	COMDAT ?GetAtId@?$CItemContainer@VCItemElem@@@@QAEPAVCItemElem@@K@Z
_TEXT	SEGMENT PARA USE32 PUBLIC 'CODE'
_TEXT	ENDS
;	COMDAT ?GetExtra@CItemBase@@QAEHXZ
_TEXT	SEGMENT PARA USE32 PUBLIC 'CODE'
_TEXT	ENDS
;	COMDAT ?GetPropA@CItemElem@@QAEPAUItemProp@@XZ
_TEXT	SEGMENT PARA USE32 PUBLIC 'CODE'
_TEXT	ENDS
;	COMDAT ?GetItemProp@CProject@@QAEPAUItemProp@@H@Z
_TEXT	SEGMENT PARA USE32 PUBLIC 'CODE'
_TEXT	ENDS
;	COMDAT ?LOG_RANGE@@YAXPBDHHH@Z
_TEXT	SEGMENT PARA USE32 PUBLIC 'CODE'
_TEXT	ENDS
;	COMDAT ??_C@_0BM@HMFGHCP@?$CFs?5min?3?$CFd?0?5max?3?$CFd?0?5index?3?$CFd?$AA@
CONST	SEGMENT DWORD USE32 PUBLIC 'CONST'
CONST	ENDS
;	COMDAT ?GetSize@?$CFixedArray@UItemProp@@@@QAEHXZ
_TEXT	SEGMENT PARA USE32 PUBLIC 'CODE'
_TEXT	ENDS
;	COMDAT ??_C@_0BI@BEIFNGEL@GetItemProp?5range_error?$AA@
CONST	SEGMENT DWORD USE32 PUBLIC 'CONST'
CONST	ENDS
;	COMDAT ?LOG_CALLSTACK@@YAXXZ
_TEXT	SEGMENT PARA USE32 PUBLIC 'CODE'
_TEXT	ENDS
;	COMDAT ?GetAt@?$CFixedArray@UItemProp@@@@QAEPAUItemProp@@K@Z
_TEXT	SEGMENT PARA USE32 PUBLIC 'CODE'
_TEXT	ENDS
;	COMDAT ??1?$CItemContainer@VCItemElem@@@@UAE@XZ
_TEXT	SEGMENT PARA USE32 PUBLIC 'CODE'
_TEXT	ENDS
;	COMDAT ?SetExtra@CItemBase@@QAEXH@Z
_TEXT	SEGMENT PARA USE32 PUBLIC 'CODE'
_TEXT	ENDS
;	COMDAT ??_C@_00CNPNBAHC@?$AA@
CONST	SEGMENT DWORD USE32 PUBLIC 'CONST'
CONST	ENDS
;	COMDAT ??4?$basic_string@DU?$char_traits@D@std@@V?$allocator@D@2@@std@@QAEAAV01@PBD@Z
_TEXT	SEGMENT PARA USE32 PUBLIC 'CODE'
_TEXT	ENDS
;	COMDAT ?assign@?$basic_string@DU?$char_traits@D@std@@V?$allocator@D@2@@std@@QAEAAV12@PBD@Z
_TEXT	SEGMENT PARA USE32 PUBLIC 'CODE'
_TEXT	ENDS
;	COMDAT ?assign@?$basic_string@DU?$char_traits@D@std@@V?$allocator@D@2@@std@@QAEAAV12@PBDI@Z
_TEXT	SEGMENT PARA USE32 PUBLIC 'CODE'
_TEXT	ENDS
;	COMDAT ?_Inside@?$basic_string@DU?$char_traits@D@std@@V?$allocator@D@2@@std@@IAE_NPBD@Z
_TEXT	SEGMENT PARA USE32 PUBLIC 'CODE'
_TEXT	ENDS
;	COMDAT ?length@?$char_traits@D@std@@SAIPBD@Z
_TEXT	SEGMENT PARA USE32 PUBLIC 'CODE'
_TEXT	ENDS
;	COMDAT ?GetId@CCtrl@@QAEKXZ
_TEXT	SEGMENT PARA USE32 PUBLIC 'CODE'
_TEXT	ENDS
;	COMDAT ?erase@?$_Tree@V?$_Tmap_traits@KPAVCCtrl@@U?$less@K@std@@V?$allocator@U?$pair@$$CBKPAVCCtrl@@@std@@@3@$0A@@std@@@std@@QAEIABK@Z
_TEXT	SEGMENT PARA USE32 PUBLIC 'CODE'
_TEXT	ENDS
;	COMDAT ?equal_range@?$_Tree@V?$_Tmap_traits@KPAVCCtrl@@U?$less@K@std@@V?$allocator@U?$pair@$$CBKPAVCCtrl@@@std@@@3@$0A@@std@@@std@@QAE?AU?$pair@Viterator@?$_Tree@V?$_Tmap_traits@KPAVCCtrl@@U?$less@K@std@@V?$allocator@U?$pair@$$CBKPAVCCtrl@@@std@@@3@$0A@@std@@@std@@V123@@2@ABK@Z
_TEXT	SEGMENT PARA USE32 PUBLIC 'CODE'
_TEXT	ENDS
;	COMDAT ??0?$pair@Viterator@?$_Tree@V?$_Tmap_traits@KPAVCCtrl@@U?$less@K@std@@V?$allocator@U?$pair@$$CBKPAVCCtrl@@@std@@@3@$0A@@std@@@std@@V123@@std@@QAE@ABViterator@?$_Tree@V?$_Tmap_traits@KPAVCCtrl@@U?$less@K@std@@V?$allocator@U?$pair@$$CBKPAVCCtrl@@@std@@@3@$0A@@std@@@1@0@Z
_TEXT	SEGMENT PARA USE32 PUBLIC 'CODE'
_TEXT	ENDS
;	COMDAT ?upper_bound@?$_Tree@V?$_Tmap_traits@KPAVCCtrl@@U?$less@K@std@@V?$allocator@U?$pair@$$CBKPAVCCtrl@@@std@@@3@$0A@@std@@@std@@QAE?AViterator@12@ABK@Z
_TEXT	SEGMENT PARA USE32 PUBLIC 'CODE'
_TEXT	ENDS
;	COMDAT ?_Ubound@?$_Tree@V?$_Tmap_traits@KPAVCCtrl@@U?$less@K@std@@V?$allocator@U?$pair@$$CBKPAVCCtrl@@@std@@@3@$0A@@std@@@std@@IBEPAU_Node@?$_Tree_nod@V?$_Tmap_traits@KPAVCCtrl@@U?$less@K@std@@V?$allocator@U?$pair@$$CBKPAVCCtrl@@@std@@@3@$0A@@std@@@2@ABK@Z
_TEXT	SEGMENT PARA USE32 PUBLIC 'CODE'
_TEXT	ENDS
;	COMDAT ??$_Distance@Viterator@?$_Tree@V?$_Tmap_traits@KPAVCCtrl@@U?$less@K@std@@V?$allocator@U?$pair@$$CBKPAVCCtrl@@@std@@@3@$0A@@std@@@std@@I@std@@YAXViterator@?$_Tree@V?$_Tmap_traits@KPAVCCtrl@@U?$less@K@std@@V?$allocator@U?$pair@$$CBKPAVCCtrl@@@std@@@3@$0A@@std@@@0@0AAI@Z
_TEXT	SEGMENT PARA USE32 PUBLIC 'CODE'
_TEXT	ENDS
;	COMDAT ?erase@?$_Tree@V?$_Tmap_traits@KPAVCCtrl@@U?$less@K@std@@V?$allocator@U?$pair@$$CBKPAVCCtrl@@@std@@@3@$0A@@std@@@std@@QAE?AViterator@12@V312@0@Z
_TEXT	SEGMENT PARA USE32 PUBLIC 'CODE'
_TEXT	ENDS
;	COMDAT ?clear@?$_Tree@V?$_Tmap_traits@KPAVCCtrl@@U?$less@K@std@@V?$allocator@U?$pair@$$CBKPAVCCtrl@@@std@@@3@$0A@@std@@@std@@QAEXXZ
_TEXT	SEGMENT PARA USE32 PUBLIC 'CODE'
_TEXT	ENDS
;	COMDAT ?_Erase@?$_Tree@V?$_Tmap_traits@KPAVCCtrl@@U?$less@K@std@@V?$allocator@U?$pair@$$CBKPAVCCtrl@@@std@@@3@$0A@@std@@@std@@IAEXPAU_Node@?$_Tree_nod@V?$_Tmap_traits@KPAVCCtrl@@U?$less@K@std@@V?$allocator@U?$pair@$$CBKPAVCCtrl@@@std@@@3@$0A@@std@@@2@@Z
_TEXT	SEGMENT PARA USE32 PUBLIC 'CODE'
_TEXT	ENDS
;	COMDAT ?destroy@?$allocator@U_Node@?$_Tree_nod@V?$_Tmap_traits@KPAVCCtrl@@U?$less@K@std@@V?$allocator@U?$pair@$$CBKPAVCCtrl@@@std@@@3@$0A@@std@@@std@@@std@@QAEXPAU_Node@?$_Tree_nod@V?$_Tmap_traits@KPAVCCtrl@@U?$less@K@std@@V?$allocator@U?$pair@$$CBKPAVCCtrl@@@std@@@3@$0A@@std@@@2@@Z
_TEXT	SEGMENT PARA USE32 PUBLIC 'CODE'
_TEXT	ENDS
;	COMDAT ??$_Destroy@U_Node@?$_Tree_nod@V?$_Tmap_traits@KPAVCCtrl@@U?$less@K@std@@V?$allocator@U?$pair@$$CBKPAVCCtrl@@@std@@@3@$0A@@std@@@std@@@std@@YAXPAU_Node@?$_Tree_nod@V?$_Tmap_traits@KPAVCCtrl@@U?$less@K@std@@V?$allocator@U?$pair@$$CBKPAVCCtrl@@@std@@@3@$0A@@std@@@0@@Z
_TEXT	SEGMENT PARA USE32 PUBLIC 'CODE'
_TEXT	ENDS
;	COMDAT ?erase@?$_Tree@V?$_Tmap_traits@KPAVCCtrl@@U?$less@K@std@@V?$allocator@U?$pair@$$CBKPAVCCtrl@@@std@@@3@$0A@@std@@@std@@QAE?AViterator@12@V312@@Z
_TEXT	SEGMENT PARA USE32 PUBLIC 'CODE'
_TEXT	ENDS
;	COMDAT ??Eiterator@?$_Tree@V?$_Tmap_traits@KPAVCCtrl@@U?$less@K@std@@V?$allocator@U?$pair@$$CBKPAVCCtrl@@@std@@@3@$0A@@std@@@std@@QAE?AV012@H@Z
_TEXT	SEGMENT PARA USE32 PUBLIC 'CODE'
_TEXT	ENDS
;	COMDAT ??5@YAAAVCAr@@AAV0@AAUD3DXVECTOR3@@@Z
_TEXT	SEGMENT PARA USE32 PUBLIC 'CODE'
_TEXT	ENDS
;	COMDAT ??5CAr@@QAEAAV0@AAM@Z
_TEXT	SEGMENT PARA USE32 PUBLIC 'CODE'
_TEXT	ENDS
;	COMDAT ??5CAr@@QAEAAV0@AAJ@Z
_TEXT	SEGMENT PARA USE32 PUBLIC 'CODE'
_TEXT	ENDS
;	COMDAT ?time_null@@YAJXZ
_TEXT	SEGMENT PARA USE32 PUBLIC 'CODE'
_TEXT	ENDS
;	COMDAT ??6CAr@@QAEAAV0@J@Z
_TEXT	SEGMENT PARA USE32 PUBLIC 'CODE'
_TEXT	ENDS
;	COMDAT ??6@YAAAVCAr@@AAV0@UD3DXVECTOR3@@@Z
_TEXT	SEGMENT PARA USE32 PUBLIC 'CODE'
_TEXT	ENDS
;	COMDAT ??6CAr@@QAEAAV0@M@Z
_TEXT	SEGMENT PARA USE32 PUBLIC 'CODE'
_TEXT	ENDS
;	COMDAT ??1?$basic_string@DU?$char_traits@D@std@@V?$allocator@D@2@@std@@QAE@XZ
_TEXT	SEGMENT PARA USE32 PUBLIC 'CODE'
_TEXT	ENDS
;	COMDAT ??0?$basic_string@DU?$char_traits@D@std@@V?$allocator@D@2@@std@@QAE@PBD@Z
_TEXT	SEGMENT PARA USE32 PUBLIC 'CODE'
_TEXT	ENDS
;	COMDAT ??0?$allocator@D@std@@QAE@XZ
_TEXT	SEGMENT PARA USE32 PUBLIC 'CODE'
_TEXT	ENDS
;	COMDAT ?c_str@?$basic_string@DU?$char_traits@D@std@@V?$allocator@D@2@@std@@QBEPBDXZ
_TEXT	SEGMENT PARA USE32 PUBLIC 'CODE'
_TEXT	ENDS
;	COMDAT ??6CAr@@QAEAAV0@I@Z
_TEXT	SEGMENT PARA USE32 PUBLIC 'CODE'
_TEXT	ENDS
;	COMDAT ??_7__MINIGAME_EXT_PACKET@@6B@
CONST	SEGMENT DWORD USE32 PUBLIC 'CONST'
CONST	ENDS
;	COMDAT ??5CAr@@QAEAAV0@AAG@Z
_TEXT	SEGMENT PARA USE32 PUBLIC 'CODE'
_TEXT	ENDS
;	COMDAT ??5CAr@@QAEAAV0@AAH@Z
_TEXT	SEGMENT PARA USE32 PUBLIC 'CODE'
_TEXT	ENDS
;	COMDAT ??6CAr@@QAEAAV0@G@Z
_TEXT	SEGMENT PARA USE32 PUBLIC 'CODE'
_TEXT	ENDS
;	COMDAT ??6CAr@@QAEAAV0@H@Z
_TEXT	SEGMENT PARA USE32 PUBLIC 'CODE'
_TEXT	ENDS
;	COMDAT ??_7__MINIGAME_PACKET@@6B@
CONST	SEGMENT DWORD USE32 PUBLIC 'CONST'
CONST	ENDS
;	COMDAT ??1?$vector@KV?$allocator@K@std@@@std@@QAE@XZ
_TEXT	SEGMENT PARA USE32 PUBLIC 'CODE'
_TEXT	ENDS
;	COMDAT ?_Tidy@?$vector@KV?$allocator@K@std@@@std@@IAEXXZ
_TEXT	SEGMENT PARA USE32 PUBLIC 'CODE'
_TEXT	ENDS
;	COMDAT ?_Destroy@?$vector@KV?$allocator@K@std@@@std@@IAEXPAK0@Z
_TEXT	SEGMENT PARA USE32 PUBLIC 'CODE'
_TEXT	ENDS
;	COMDAT ??$_Destroy_range@KV?$allocator@K@std@@@std@@YAXPAK0AAV?$allocator@K@0@@Z
_TEXT	SEGMENT PARA USE32 PUBLIC 'CODE'
_TEXT	ENDS
;	COMDAT ?_Ptr_cat@std@@YA?AU_Scalar_ptr_iterator_tag@1@PAK0@Z
_TEXT	SEGMENT PARA USE32 PUBLIC 'CODE'
_TEXT	ENDS
;	COMDAT ?deallocate@?$allocator@K@std@@QAEXPAKI@Z
_TEXT	SEGMENT PARA USE32 PUBLIC 'CODE'
_TEXT	ENDS
;	COMDAT ??0?$vector@KV?$allocator@K@std@@@std@@QAE@XZ
_TEXT	SEGMENT PARA USE32 PUBLIC 'CODE'
_TEXT	ENDS
;	COMDAT ??0?$_Vector_val@KV?$allocator@K@std@@@std@@IAE@V?$allocator@K@1@@Z
_TEXT	SEGMENT PARA USE32 PUBLIC 'CODE'
_TEXT	ENDS
;	COMDAT ??0?$allocator@K@std@@QAE@ABV01@@Z
_TEXT	SEGMENT PARA USE32 PUBLIC 'CODE'
_TEXT	ENDS
;	COMDAT ??0?$allocator@K@std@@QAE@XZ
_TEXT	SEGMENT PARA USE32 PUBLIC 'CODE'
_TEXT	ENDS
;	COMDAT ?_Buy@?$vector@KV?$allocator@K@std@@@std@@IAE_NI@Z
_TEXT	SEGMENT PARA USE32 PUBLIC 'CODE'
_TEXT	ENDS
;	COMDAT ?max_size@?$vector@KV?$allocator@K@std@@@std@@QBEIXZ
_TEXT	SEGMENT PARA USE32 PUBLIC 'CODE'
_TEXT	ENDS
;	COMDAT ?max_size@?$allocator@K@std@@QBEIXZ
_TEXT	SEGMENT PARA USE32 PUBLIC 'CODE'
_TEXT	ENDS
;	COMDAT ?_Xlen@?$vector@KV?$allocator@K@std@@@std@@IBEXXZ
_TEXT	SEGMENT PARA USE32 PUBLIC 'CODE'
_TEXT	ENDS
;	COMDAT ?allocate@?$allocator@K@std@@QAEPAKI@Z
_TEXT	SEGMENT PARA USE32 PUBLIC 'CODE'
_TEXT	ENDS
;	COMDAT ??$_Allocate@K@std@@YAPAKIPAK@Z
_TEXT	SEGMENT PARA USE32 PUBLIC 'CODE'
_TEXT	ENDS
;	COMDAT ??5CAr@@QAEAAV0@AAK@Z
_TEXT	SEGMENT PARA USE32 PUBLIC 'CODE'
_TEXT	ENDS
;	COMDAT ??6CAr@@QAEAAV0@K@Z
_TEXT	SEGMENT PARA USE32 PUBLIC 'CODE'
_TEXT	ENDS
;	COMDAT ?IsStoring@CAr@@QBEHXZ
_TEXT	SEGMENT PARA USE32 PUBLIC 'CODE'
_TEXT	ENDS
;	COMDAT ??0D3DXVECTOR3@@QAE@MMM@Z
_TEXT	SEGMENT PARA USE32 PUBLIC 'CODE'
_TEXT	ENDS
;	COMDAT ?GetTickCount@CTime@ATL@@SG?AV12@XZ
_TEXT	SEGMENT PARA USE32 PUBLIC 'CODE'
_TEXT	ENDS
;	COMDAT ??0CTime@ATL@@QAE@_J@Z
_TEXT	SEGMENT PARA USE32 PUBLIC 'CODE'
_TEXT	ENDS
;	COMDAT ??0D3DXVECTOR3@@QAE@XZ
_TEXT	SEGMENT PARA USE32 PUBLIC 'CODE'
_TEXT	ENDS
;	COMDAT ??0CTime@ATL@@QAE@XZ
_TEXT	SEGMENT PARA USE32 PUBLIC 'CODE'
_TEXT	ENDS
sxdata	SEGMENT DWORD USE32 'SXDATA'
sxdata	ENDS
FLAT	GROUP _DATA, CONST, _BSS
	ASSUME	CS: FLAT, DS: FLAT, SS: FLAT
endif

INCLUDELIB LIBCMT
INCLUDELIB OLDNAMES

PUBLIC	?GetOther@CVTInfo@@QAEPAVCMover@@XZ		; CVTInfo::GetOther
EXTRN	?prj@@3VCProject@@A:BYTE			; prj
EXTRN	?GetMover@CProject@@QAEPAVCMover@@K@Z:NEAR	; CProject::GetMover
; Function compile flags: /Ogty
; File c:\documents and settings\test\mes documents\source\virtuos_v17\build\program\_common\moveritem.cpp
;	COMDAT ?GetOther@CVTInfo@@QAEPAVCMover@@XZ
_TEXT	SEGMENT
?GetOther@CVTInfo@@QAEPAVCMover@@XZ PROC NEAR		; CVTInfo::GetOther, COMDAT
; _this$ = ecx

; 16   : //	return m_pOther;
; 17   : 	if( m_objId == NULL_ID )

  00000	8b 41 7c	 mov	 eax, DWORD PTR [ecx+124]
  00003	83 f8 ff	 cmp	 eax, -1
  00006	75 03		 jne	 SHORT $L252993

; 18   : 		return NULL;

  00008	33 c0		 xor	 eax, eax

; 21   : }

  0000a	c3		 ret	 0
$L252993:

; 19   : 
; 20   : 	return prj.GetMover( m_objId );

  0000b	50		 push	 eax
  0000c	b9 00 00 00 00	 mov	 ecx, OFFSET FLAT:?prj@@3VCProject@@A
  00011	e8 00 00 00 00	 call	 ?GetMover@CProject@@QAEPAVCMover@@K@Z ; CProject::GetMover

; 21   : }

  00016	c3		 ret	 0
?GetOther@CVTInfo@@QAEPAVCMover@@XZ ENDP		; CVTInfo::GetOther
_TEXT	ENDS
PUBLIC	?GetItem@CVTInfo@@QAEPAVCItemBase@@E@Z		; CVTInfo::GetItem
; Function compile flags: /Ogty
;	COMDAT ?GetItem@CVTInfo@@QAEPAVCItemBase@@E@Z
_TEXT	SEGMENT
_i$ = 8							; size = 1
?GetItem@CVTInfo@@QAEPAVCItemBase@@E@Z PROC NEAR	; CVTInfo::GetItem, COMDAT
; _this$ = ecx

; 39   : 	return m_apItem_VT[i];

  00000	0f b6 44 24 04	 movzx	 eax, BYTE PTR _i$[esp-4]
  00005	8b 44 81 04	 mov	 eax, DWORD PTR [ecx+eax*4+4]

; 40   : }

  00009	c2 04 00	 ret	 4
?GetItem@CVTInfo@@QAEPAVCItemBase@@E@Z ENDP		; CVTInfo::GetItem
_TEXT	ENDS
PUBLIC	?SetItem@CVTInfo@@QAEXEPAVCItemBase@@@Z		; CVTInfo::SetItem
; Function compile flags: /Ogty
;	COMDAT ?SetItem@CVTInfo@@QAEXEPAVCItemBase@@@Z
_TEXT	SEGMENT
_i$ = 8							; size = 1
_pItemBase$ = 12					; size = 4
?SetItem@CVTInfo@@QAEXEPAVCItemBase@@@Z PROC NEAR	; CVTInfo::SetItem, COMDAT
; _this$ = ecx

; 44   : 	m_apItem_VT[i] = pItemBase;

  00000	0f b6 44 24 04	 movzx	 eax, BYTE PTR _i$[esp-4]
  00005	8b 54 24 08	 mov	 edx, DWORD PTR _pItemBase$[esp-4]
  00009	89 54 81 04	 mov	 DWORD PTR [ecx+eax*4+4], edx

; 45   : }

  0000d	c2 08 00	 ret	 8
?SetItem@CVTInfo@@QAEXEPAVCItemBase@@@Z ENDP		; CVTInfo::SetItem
_TEXT	ENDS
PUBLIC	?TradeSetGold@CVTInfo@@QAEXK@Z			; CVTInfo::TradeSetGold
; Function compile flags: /Ogty
;	COMDAT ?TradeSetGold@CVTInfo@@QAEXK@Z
_TEXT	SEGMENT
_dwGold$ = 8						; size = 4
?TradeSetGold@CVTInfo@@QAEXK@Z PROC NEAR		; CVTInfo::TradeSetGold, COMDAT
; _this$ = ecx

; 99   : 	m_dwTradeGold = dwGold;

  00000	8b 44 24 04	 mov	 eax, DWORD PTR _dwGold$[esp-4]
  00004	89 01		 mov	 DWORD PTR [ecx], eax

; 100  : }

  00006	c2 04 00	 ret	 4
?TradeSetGold@CVTInfo@@QAEXK@Z ENDP			; CVTInfo::TradeSetGold
_TEXT	ENDS
PUBLIC	?TradeGetGold@CVTInfo@@QAEHXZ			; CVTInfo::TradeGetGold
; Function compile flags: /Ogty
;	COMDAT ?TradeGetGold@CVTInfo@@QAEHXZ
_TEXT	SEGMENT
?TradeGetGold@CVTInfo@@QAEHXZ PROC NEAR			; CVTInfo::TradeGetGold, COMDAT
; _this$ = ecx

; 104  : 	return m_dwTradeGold;

  00000	8b 01		 mov	 eax, DWORD PTR [ecx]

; 105  : }

  00002	c3		 ret	 0
?TradeGetGold@CVTInfo@@QAEHXZ ENDP			; CVTInfo::TradeGetGold
_TEXT	ENDS
PUBLIC	?TradeGetState@CVTInfo@@QAE?AW4TRADE_STATE@@XZ	; CVTInfo::TradeGetState
; Function compile flags: /Ogty
;	COMDAT ?TradeGetState@CVTInfo@@QAE?AW4TRADE_STATE@@XZ
_TEXT	SEGMENT
?TradeGetState@CVTInfo@@QAE?AW4TRADE_STATE@@XZ PROC NEAR ; CVTInfo::TradeGetState, COMDAT
; _this$ = ecx

; 522  : 	return m_state;

  00000	8b 81 84 00 00
	00		 mov	 eax, DWORD PTR [ecx+132]

; 523  : }

  00006	c3		 ret	 0
?TradeGetState@CVTInfo@@QAE?AW4TRADE_STATE@@XZ ENDP	; CVTInfo::TradeGetState
_TEXT	ENDS
PUBLIC	?TradeSetState@CVTInfo@@QAEXW4TRADE_STATE@@@Z	; CVTInfo::TradeSetState
; Function compile flags: /Ogty
;	COMDAT ?TradeSetState@CVTInfo@@QAEXW4TRADE_STATE@@@Z
_TEXT	SEGMENT
_state$ = 8						; size = 4
?TradeSetState@CVTInfo@@QAEXW4TRADE_STATE@@@Z PROC NEAR	; CVTInfo::TradeSetState, COMDAT
; _this$ = ecx

; 527  : 	m_state = state;

  00000	8b 44 24 04	 mov	 eax, DWORD PTR _state$[esp-4]
  00004	89 81 84 00 00
	00		 mov	 DWORD PTR [ecx+132], eax

; 528  : }

  0000a	c2 04 00	 ret	 4
?TradeSetState@CVTInfo@@QAEXW4TRADE_STATE@@@Z ENDP	; CVTInfo::TradeSetState
_TEXT	ENDS
PUBLIC	?VendorCopyItems@CVTInfo@@QAEXPAPAVCItemBase@@@Z ; CVTInfo::VendorCopyItems
; Function compile flags: /Ogty
;	COMDAT ?VendorCopyItems@CVTInfo@@QAEXPAPAVCItemBase@@@Z
_TEXT	SEGMENT
_ppItemVd$ = 8						; size = 4
?VendorCopyItems@CVTInfo@@QAEXPAPAVCItemBase@@@Z PROC NEAR ; CVTInfo::VendorCopyItems, COMDAT
; _this$ = ecx

; 585  : {

  00000	56		 push	 esi

; 586  : 	memcpy( (void*)m_apItem_VT, ppItemVd, sizeof(m_apItem_VT) );

  00001	8b 74 24 08	 mov	 esi, DWORD PTR _ppItemVd$[esp]
  00005	57		 push	 edi
  00006	8d 79 04	 lea	 edi, DWORD PTR [ecx+4]
  00009	b9 1e 00 00 00	 mov	 ecx, 30			; 0000001eH
  0000e	f3 a5		 rep movsd
  00010	5f		 pop	 edi
  00011	5e		 pop	 esi

; 587  : }

  00012	c2 04 00	 ret	 4
?VendorCopyItems@CVTInfo@@QAEXPAPAVCItemBase@@@Z ENDP	; CVTInfo::VendorCopyItems
_TEXT	ENDS
PUBLIC	?VendorIsVendor@CVTInfo@@QAEHXZ			; CVTInfo::VendorIsVendor
; Function compile flags: /Ogty
;	COMDAT ?VendorIsVendor@CVTInfo@@QAEHXZ
_TEXT	SEGMENT
?VendorIsVendor@CVTInfo@@QAEHXZ PROC NEAR		; CVTInfo::VendorIsVendor, COMDAT
; _this$ = ecx

; 616  : 	for( int i=0; i<MAX_VENDITEM; ++i )

  00000	33 c0		 xor	 eax, eax
  00002	83 c1 04	 add	 ecx, 4
$L253302:

; 617  : 	{
; 618  : 		if( m_apItem_VT[i] )	//   ?

  00005	83 39 00	 cmp	 DWORD PTR [ecx], 0
  00008	75 0c		 jne	 SHORT $L257748
  0000a	40		 inc	 eax
  0000b	83 c1 04	 add	 ecx, 4
  0000e	83 f8 1e	 cmp	 eax, 30			; 0000001eH
  00011	7c f2		 jl	 SHORT $L253302

; 620  : 	}
; 621  : 
; 622  : 	return FALSE;

  00013	33 c0		 xor	 eax, eax

; 623  : }

  00015	c3		 ret	 0
$L257748:

; 619  : 			return TRUE;

  00016	b8 01 00 00 00	 mov	 eax, 1

; 623  : }

  0001b	c3		 ret	 0
?VendorIsVendor@CVTInfo@@QAEHXZ ENDP			; CVTInfo::VendorIsVendor
_TEXT	ENDS
PUBLIC	?IsTrading@CVTInfo@@QAEHPAVCItemElem@@@Z	; CVTInfo::IsTrading
; Function compile flags: /Ogty
;	COMDAT ?IsTrading@CVTInfo@@QAEHPAVCItemElem@@@Z
_TEXT	SEGMENT
_pItemElem$ = 8						; size = 4
?IsTrading@CVTInfo@@QAEHPAVCItemElem@@@Z PROC NEAR	; CVTInfo::IsTrading, COMDAT
; _this$ = ecx

; 627  : 	for( int i = 0; i < MAX_VENDITEM; i++ )

  00000	8b 54 24 04	 mov	 edx, DWORD PTR _pItemElem$[esp-4]
  00004	33 c0		 xor	 eax, eax
  00006	83 c1 04	 add	 ecx, 4
  00009	8d a4 24 00 00
	00 00		 npad	 7
$L253311:

; 628  : 	{
; 629  : 		if( m_apItem_VT[i] == pItemElem )

  00010	39 11		 cmp	 DWORD PTR [ecx], edx
  00012	74 0e		 je	 SHORT $L257754
  00014	40		 inc	 eax
  00015	83 c1 04	 add	 ecx, 4
  00018	83 f8 1e	 cmp	 eax, 30			; 0000001eH
  0001b	7c f3		 jl	 SHORT $L253311

; 631  : 	}
; 632  : 	return FALSE;

  0001d	33 c0		 xor	 eax, eax

; 633  : }

  0001f	c2 04 00	 ret	 4
$L257754:

; 630  : 			return TRUE;

  00022	b8 01 00 00 00	 mov	 eax, 1

; 633  : }

  00027	c2 04 00	 ret	 4
?IsTrading@CVTInfo@@QAEHPAVCItemElem@@@Z ENDP		; CVTInfo::IsTrading
_TEXT	ENDS
PUBLIC	?empty@?$basic_string@DU?$char_traits@D@std@@V?$allocator@D@2@@std@@QBE_NXZ ; std::basic_string<char,std::char_traits<char>,std::allocator<char> >::empty
; Function compile flags: /Ogty
; File c:\program files\microsoft visual studio .net 2003\vc7\include\xstring
;	COMDAT ?empty@?$basic_string@DU?$char_traits@D@std@@V?$allocator@D@2@@std@@QBE_NXZ
_TEXT	SEGMENT
?empty@?$basic_string@DU?$char_traits@D@std@@V?$allocator@D@2@@std@@QBE_NXZ PROC NEAR ; std::basic_string<char,std::char_traits<char>,std::allocator<char> >::empty, COMDAT
; _this$ = ecx

; 1148 : 		return (_Mysize == 0);

  00000	8b 51 14	 mov	 edx, DWORD PTR [ecx+20]
  00003	33 c0		 xor	 eax, eax
  00005	85 d2		 test	 edx, edx
  00007	0f 94 c0	 sete	 al

; 1149 : 		}

  0000a	c3		 ret	 0
?empty@?$basic_string@DU?$char_traits@D@std@@V?$allocator@D@2@@std@@QBE_NXZ ENDP ; std::basic_string<char,std::char_traits<char>,std::allocator<char> >::empty
_TEXT	ENDS
PUBLIC	?GetSize@?$CItemContainer@VCItemElem@@@@QAEHXZ	; CItemContainer<CItemElem>::GetSize
; Function compile flags: /Ogty
; File c:\documents and settings\test\mes documents\source\virtuos_v17\build\program\_common\item.h
;	COMDAT ?GetSize@?$CItemContainer@VCItemElem@@@@QAEHXZ
_TEXT	SEGMENT
?GetSize@?$CItemContainer@VCItemElem@@@@QAEHXZ PROC NEAR ; CItemContainer<CItemElem>::GetSize, COMDAT
; _this$ = ecx

; 411  : 	int		GetSize() { return int( m_dwIndexNum ); }

  00000	8b 41 08	 mov	 eax, DWORD PTR [ecx+8]
  00003	c3		 ret	 0
?GetSize@?$CItemContainer@VCItemElem@@@@QAEHXZ ENDP	; CItemContainer<CItemElem>::GetSize
_TEXT	ENDS
PUBLIC	?GetMax@?$CItemContainer@VCItemElem@@@@QAEHXZ	; CItemContainer<CItemElem>::GetMax
; Function compile flags: /Ogty
;	COMDAT ?GetMax@?$CItemContainer@VCItemElem@@@@QAEHXZ
_TEXT	SEGMENT
?GetMax@?$CItemContainer@VCItemElem@@@@QAEHXZ PROC NEAR	; CItemContainer<CItemElem>::GetMax, COMDAT
; _this$ = ecx

; 412  : 	int		GetMax() { return int( m_dwItemMax ); }

  00000	8b 41 0c	 mov	 eax, DWORD PTR [ecx+12]
  00003	c3		 ret	 0
?GetMax@?$CItemContainer@VCItemElem@@@@QAEHXZ ENDP	; CItemContainer<CItemElem>::GetMax
_TEXT	ENDS
PUBLIC	??0?$CItemContainer@VCItemElem@@@@QAE@XZ	; CItemContainer<CItemElem>::CItemContainer<CItemElem>
PUBLIC	??_7?$CItemContainer@VCItemElem@@@@6B@		; CItemContainer<CItemElem>::`vftable'
PUBLIC	??_G?$CItemContainer@VCItemElem@@@@UAEPAXI@Z	; CItemContainer<CItemElem>::`scalar deleting destructor'
EXTRN	??_E?$CItemContainer@VCItemElem@@@@UAEPAXI@Z:NEAR ; CItemContainer<CItemElem>::`vector deleting destructor'
;	COMDAT ??_7?$CItemContainer@VCItemElem@@@@6B@
CONST	SEGMENT
??_7?$CItemContainer@VCItemElem@@@@6B@ DD FLAT:??_E?$CItemContainer@VCItemElem@@@@UAEPAXI@Z ; CItemContainer<CItemElem>::`vftable'
; Function compile flags: /Ogty
CONST	ENDS
;	COMDAT ??0?$CItemContainer@VCItemElem@@@@QAE@XZ
_TEXT	SEGMENT
??0?$CItemContainer@VCItemElem@@@@QAE@XZ PROC NEAR	; CItemContainer<CItemElem>::CItemContainer<CItemElem>, COMDAT
; _this$ = ecx

; 461  : {

  00000	8b c1		 mov	 eax, ecx

; 462  : 	m_dwIndexNum = 0;

  00002	33 c9		 xor	 ecx, ecx
  00004	c7 00 00 00 00
	00		 mov	 DWORD PTR [eax], OFFSET FLAT:??_7?$CItemContainer@VCItemElem@@@@6B@
  0000a	89 48 08	 mov	 DWORD PTR [eax+8], ecx

; 463  : 	m_dwItemMax = 0;

  0000d	89 48 0c	 mov	 DWORD PTR [eax+12], ecx

; 464  : 
; 465  : 	m_apItem = NULL;

  00010	89 48 10	 mov	 DWORD PTR [eax+16], ecx

; 466  : 	m_apIndex = NULL;

  00013	89 48 04	 mov	 DWORD PTR [eax+4], ecx

; 467  : }

  00016	c3		 ret	 0
??0?$CItemContainer@VCItemElem@@@@QAE@XZ ENDP		; CItemContainer<CItemElem>::CItemContainer<CItemElem>
_TEXT	ENDS
PUBLIC	??_C@_0N@GELFDHNG@CONTAINER?1?10?$AA@		; `string'
PUBLIC	?IsEquip@?$CItemContainer@VCItemElem@@@@QAEHK@Z	; CItemContainer<CItemElem>::IsEquip
EXTRN	?WriteError@@YAXPBDZZ:NEAR			; WriteError
;	COMDAT ??_C@_0N@GELFDHNG@CONTAINER?1?10?$AA@
CONST	SEGMENT
??_C@_0N@GELFDHNG@CONTAINER?1?10?$AA@ DB 'CONTAINER//0', 00H ; `string'
; Function compile flags: /Ogty
CONST	ENDS
;	COMDAT ?IsEquip@?$CItemContainer@VCItemElem@@@@QAEHK@Z
_TEXT	SEGMENT
_dwObjId$ = 8						; size = 4
?IsEquip@?$CItemContainer@VCItemElem@@@@QAEHK@Z PROC NEAR ; CItemContainer<CItemElem>::IsEquip, COMDAT
; _this$ = ecx

; 602  : 	if( !m_apItem )

  00000	8b 51 10	 mov	 edx, DWORD PTR [ecx+16]
  00003	85 d2		 test	 edx, edx
  00005	75 12		 jne	 SHORT $L255490

; 603  : 	{
; 604  : 		WriteError( "CONTAINER//0" );

  00007	68 00 00 00 00	 push	 OFFSET FLAT:??_C@_0N@GELFDHNG@CONTAINER?1?10?$AA@
  0000c	e8 00 00 00 00	 call	 ?WriteError@@YAXPBDZZ	; WriteError
  00011	83 c4 04	 add	 esp, 4
$L257771:

; 605  : 		return FALSE;

  00014	33 c0		 xor	 eax, eax

; 612  : 		return TRUE;
; 613  : 	return FALSE;
; 614  : }

  00016	c2 04 00	 ret	 4
$L255490:

; 606  : 	}
; 607  : 
; 608  : 	if( dwObjId >= m_dwItemMax )

  00019	8b 44 24 04	 mov	 eax, DWORD PTR _dwObjId$[esp-4]
  0001d	3b 41 0c	 cmp	 eax, DWORD PTR [ecx+12]

; 609  : 		return FALSE;

  00020	73 f2		 jae	 SHORT $L257771

; 610  : 
; 611  : 	if( m_apItem[ dwObjId ].m_dwObjIndex >= m_dwIndexNum )

  00022	69 c0 b8 00 00
	00		 imul	 eax, 184		; 000000b8H
  00028	8b 44 10 08	 mov	 eax, DWORD PTR [eax+edx+8]
  0002c	3b 41 08	 cmp	 eax, DWORD PTR [ecx+8]
  0002f	1b c0		 sbb	 eax, eax
  00031	40		 inc	 eax

; 612  : 		return TRUE;
; 613  : 	return FALSE;
; 614  : }

  00032	c2 04 00	 ret	 4
?IsEquip@?$CItemContainer@VCItemElem@@@@QAEHK@Z ENDP	; CItemContainer<CItemElem>::IsEquip
_TEXT	ENDS
PUBLIC	?RemoveAtId@?$CItemContainer@VCItemElem@@@@QAEXK@Z ; CItemContainer<CItemElem>::RemoveAtId
; Function compile flags: /Ogty
;	COMDAT ?RemoveAtId@?$CItemContainer@VCItemElem@@@@QAEXK@Z
_TEXT	SEGMENT
_dwObjId$ = 8						; size = 4
?RemoveAtId@?$CItemContainer@VCItemElem@@@@QAEXK@Z PROC NEAR ; CItemContainer<CItemElem>::RemoveAtId, COMDAT
; _this$ = ecx

; 768  : {

  00000	56		 push	 esi

; 769  : 	if( dwObjId >= m_dwItemMax )

  00001	8b 74 24 08	 mov	 esi, DWORD PTR _dwObjId$[esp]
  00005	57		 push	 edi
  00006	8b f9		 mov	 edi, ecx
  00008	8b 47 0c	 mov	 eax, DWORD PTR [edi+12]
  0000b	3b f0		 cmp	 esi, eax
  0000d	73 41		 jae	 SHORT $L255557

; 770  : 		return;
; 771  : 	if( m_apItem[ dwObjId ].m_dwObjIndex >= m_dwItemMax )

  0000f	8b 4f 10	 mov	 ecx, DWORD PTR [edi+16]
  00012	69 f6 b8 00 00
	00		 imul	 esi, 184		; 000000b8H
  00018	39 44 31 08	 cmp	 DWORD PTR [ecx+esi+8], eax
  0001c	73 32		 jae	 SHORT $L255557

; 772  : 		return;
; 773  : 	m_apItem[ dwObjId ].Empty();

  0001e	8b d1		 mov	 edx, ecx
  00020	8b 04 32	 mov	 eax, DWORD PTR [edx+esi]
  00023	8d 0c 32	 lea	 ecx, DWORD PTR [edx+esi]
  00026	ff 50 0c	 call	 DWORD PTR [eax+12]

; 774  : 	if( m_apItem[ dwObjId ].m_dwObjIndex >= m_dwIndexNum )

  00029	8b 4f 10	 mov	 ecx, DWORD PTR [edi+16]
  0002c	8b 54 31 08	 mov	 edx, DWORD PTR [ecx+esi+8]
  00030	3b 57 08	 cmp	 edx, DWORD PTR [edi+8]
  00033	72 1b		 jb	 SHORT $L255557

; 775  : 	{
; 776  : 		m_apIndex[ m_apItem[ dwObjId ].m_dwObjIndex ] = NULL_ID;

  00035	8b 57 04	 mov	 edx, DWORD PTR [edi+4]
  00038	8b c1		 mov	 eax, ecx
  0003a	8b 4c 30 08	 mov	 ecx, DWORD PTR [eax+esi+8]
  0003e	c7 04 8a ff ff
	ff ff		 mov	 DWORD PTR [edx+ecx*4], -1

; 777  : 		m_apItem[ dwObjId ].m_dwObjIndex = NULL_ID;

  00045	8b 47 10	 mov	 eax, DWORD PTR [edi+16]
  00048	c7 44 30 08 ff
	ff ff ff	 mov	 DWORD PTR [eax+esi+8], -1
$L255557:
  00050	5f		 pop	 edi
  00051	5e		 pop	 esi

; 778  : 	}
; 779  : }

  00052	c2 04 00	 ret	 4
?RemoveAtId@?$CItemContainer@VCItemElem@@@@QAEXK@Z ENDP	; CItemContainer<CItemElem>::RemoveAtId
_TEXT	ENDS
PUBLIC	??_ECItemElem@@UAEPAXI@Z			; CItemElem::`vector deleting destructor'
EXTRN	??_M@YGXPAXIHP6EX0@Z@Z:NEAR			; `eh vector destructor iterator'
EXTRN	??3@YAXPAX@Z:NEAR				; operator delete
EXTRN	??_V@YAXPAX@Z:NEAR				; operator delete[]
EXTRN	??1CItemElem@@UAE@XZ:NEAR			; CItemElem::~CItemElem
; Function compile flags: /Ogty
;	COMDAT ??_ECItemElem@@UAEPAXI@Z
_TEXT	SEGMENT
___flags$ = 8						; size = 4
??_ECItemElem@@UAEPAXI@Z PROC NEAR			; CItemElem::`vector deleting destructor', COMDAT
; _this$ = ecx
  00000	53		 push	 ebx
  00001	8a 5c 24 08	 mov	 bl, BYTE PTR ___flags$[esp]
  00005	f6 c3 02	 test	 bl, 2
  00008	56		 push	 esi
  00009	8b f1		 mov	 esi, ecx
  0000b	74 2e		 je	 SHORT $L256279
  0000d	8b 46 fc	 mov	 eax, DWORD PTR [esi-4]
  00010	57		 push	 edi
  00011	68 00 00 00 00	 push	 OFFSET FLAT:??1CItemElem@@UAE@XZ ; CItemElem::~CItemElem
  00016	8d 7e fc	 lea	 edi, DWORD PTR [esi-4]
  00019	50		 push	 eax
  0001a	68 b8 00 00 00	 push	 184			; 000000b8H
  0001f	56		 push	 esi
  00020	e8 00 00 00 00	 call	 ??_M@YGXPAXIHP6EX0@Z@Z
  00025	f6 c3 01	 test	 bl, 1
  00028	74 09		 je	 SHORT $L256280
  0002a	57		 push	 edi
  0002b	e8 00 00 00 00	 call	 ??_V@YAXPAX@Z		; operator delete[]
  00030	83 c4 04	 add	 esp, 4
$L256280:
  00033	8b c7		 mov	 eax, edi
  00035	5f		 pop	 edi
  00036	5e		 pop	 esi
  00037	5b		 pop	 ebx
  00038	c2 04 00	 ret	 4
$L256279:
  0003b	8b ce		 mov	 ecx, esi
  0003d	e8 00 00 00 00	 call	 ??1CItemElem@@UAE@XZ	; CItemElem::~CItemElem
  00042	f6 c3 01	 test	 bl, 1
  00045	74 09		 je	 SHORT $L256282
  00047	56		 push	 esi
  00048	e8 00 00 00 00	 call	 ??3@YAXPAX@Z		; operator delete
  0004d	83 c4 04	 add	 esp, 4
$L256282:
  00050	8b c6		 mov	 eax, esi
  00052	5e		 pop	 esi
  00053	5b		 pop	 ebx
  00054	c2 04 00	 ret	 4
??_ECItemElem@@UAEPAXI@Z ENDP				; CItemElem::`vector deleting destructor'
_TEXT	ENDS
PUBLIC	?Clear@?$CItemContainer@VCItemElem@@@@QAEXXZ	; CItemContainer<CItemElem>::Clear
; Function compile flags: /Ogty
;	COMDAT ?Clear@?$CItemContainer@VCItemElem@@@@QAEXXZ
_TEXT	SEGMENT
?Clear@?$CItemContainer@VCItemElem@@@@QAEXXZ PROC NEAR	; CItemContainer<CItemElem>::Clear, COMDAT
; _this$ = ecx

; 482  : {

  00000	56		 push	 esi
  00001	57		 push	 edi
  00002	8b f9		 mov	 edi, ecx

; 483  : 	for( DWORD i = 0; i < m_dwItemMax; i++ )

  00004	8b 47 0c	 mov	 eax, DWORD PTR [edi+12]
  00007	33 f6		 xor	 esi, esi
  00009	85 c0		 test	 eax, eax
  0000b	76 43		 jbe	 SHORT $L256396
  0000d	53		 push	 ebx
  0000e	33 db		 xor	 ebx, ebx
$L256394:

; 484  : 	{
; 485  : 		m_apItem[ i ].Empty();

  00010	8b 47 10	 mov	 eax, DWORD PTR [edi+16]
  00013	8b 14 18	 mov	 edx, DWORD PTR [eax+ebx]
  00016	8d 0c 18	 lea	 ecx, DWORD PTR [eax+ebx]
  00019	ff 52 0c	 call	 DWORD PTR [edx+12]

; 486  : 		m_apItem[ i ].m_dwObjId = i;

  0001c	8b 47 10	 mov	 eax, DWORD PTR [edi+16]
  0001f	89 74 18 04	 mov	 DWORD PTR [eax+ebx+4], esi

; 487  : 		if( i < m_dwIndexNum )

  00023	3b 77 08	 cmp	 esi, DWORD PTR [edi+8]
  00026	73 0f		 jae	 SHORT $L256397

; 488  : 		{
; 489  : 			m_apItem[ i ].m_dwObjIndex = i;

  00028	8b 4f 10	 mov	 ecx, DWORD PTR [edi+16]
  0002b	89 74 19 08	 mov	 DWORD PTR [ecx+ebx+8], esi

; 490  : 			m_apIndex[ i ] = i;

  0002f	8b 57 04	 mov	 edx, DWORD PTR [edi+4]
  00032	89 34 b2	 mov	 DWORD PTR [edx+esi*4], esi

; 491  : 		}
; 492  : 		else 

  00035	eb 0a		 jmp	 SHORT $L256395
$L256397:

; 493  : 		{
; 494  : 			m_apIndex[ i ] = NULL_ID;

  00037	8b 47 04	 mov	 eax, DWORD PTR [edi+4]
  0003a	c7 04 b0 ff ff
	ff ff		 mov	 DWORD PTR [eax+esi*4], -1
$L256395:
  00041	8b 47 0c	 mov	 eax, DWORD PTR [edi+12]
  00044	46		 inc	 esi
  00045	81 c3 b8 00 00
	00		 add	 ebx, 184		; 000000b8H
  0004b	3b f0		 cmp	 esi, eax
  0004d	72 c1		 jb	 SHORT $L256394
  0004f	5b		 pop	 ebx
$L256396:
  00050	5f		 pop	 edi
  00051	5e		 pop	 esi

; 495  : 		}
; 496  : 	}
; 497  : }

  00052	c3		 ret	 0
?Clear@?$CItemContainer@VCItemElem@@@@QAEXXZ ENDP	; CItemContainer<CItemElem>::Clear
_TEXT	ENDS
PUBLIC	?assign@?$char_traits@D@std@@SAXAADABD@Z	; std::char_traits<char>::assign
; Function compile flags: /Ogty
; File c:\program files\microsoft visual studio .net 2003\vc7\include\iosfwd
;	COMDAT ?assign@?$char_traits@D@std@@SAXAADABD@Z
_TEXT	SEGMENT
__Left$ = 8						; size = 4
__Right$ = 12						; size = 4
?assign@?$char_traits@D@std@@SAXAADABD@Z PROC NEAR	; std::char_traits<char>::assign, COMDAT

; 331  : 		_Left = _Right;

  00000	8b 44 24 08	 mov	 eax, DWORD PTR __Right$[esp-4]
  00004	8a 08		 mov	 cl, BYTE PTR [eax]
  00006	8b 54 24 04	 mov	 edx, DWORD PTR __Left$[esp-4]
  0000a	88 0a		 mov	 BYTE PTR [edx], cl

; 332  : 		}

  0000c	c3		 ret	 0
?assign@?$char_traits@D@std@@SAXAADABD@Z ENDP		; std::char_traits<char>::assign
_TEXT	ENDS
PUBLIC	?length@?$char_traits@D@std@@SAIPBD@Z		; std::char_traits<char>::length
; Function compile flags: /Ogty
;	COMDAT ?length@?$char_traits@D@std@@SAIPBD@Z
_TEXT	SEGMENT
__First$ = 8						; size = 4
?length@?$char_traits@D@std@@SAIPBD@Z PROC NEAR		; std::char_traits<char>::length, COMDAT

; 352  : 		return (::strlen(_First));

  00000	8b 44 24 04	 mov	 eax, DWORD PTR __First$[esp-4]
  00004	8d 50 01	 lea	 edx, DWORD PTR [eax+1]
$L257789:
  00007	8a 08		 mov	 cl, BYTE PTR [eax]
  00009	40		 inc	 eax
  0000a	84 c9		 test	 cl, cl
  0000c	75 f9		 jne	 SHORT $L257789
  0000e	2b c2		 sub	 eax, edx

; 353  : 		}

  00010	c3		 ret	 0
?length@?$char_traits@D@std@@SAIPBD@Z ENDP		; std::char_traits<char>::length
_TEXT	ENDS
PUBLIC	?copy@?$char_traits@D@std@@SAPADPADPBDI@Z	; std::char_traits<char>::copy
; Function compile flags: /Ogty
;	COMDAT ?copy@?$char_traits@D@std@@SAPADPADPBDI@Z
_TEXT	SEGMENT
__First1$ = 8						; size = 4
__First2$ = 12						; size = 4
__Count$ = 16						; size = 4
?copy@?$char_traits@D@std@@SAPADPADPBDI@Z PROC NEAR	; std::char_traits<char>::copy, COMDAT

; 358  : 		return ((_Elem *)::memcpy(_First1, _First2, _Count));

  00000	8b 4c 24 0c	 mov	 ecx, DWORD PTR __Count$[esp-4]
  00004	56		 push	 esi
  00005	8b 74 24 0c	 mov	 esi, DWORD PTR __First2$[esp]
  00009	57		 push	 edi
  0000a	8b 7c 24 0c	 mov	 edi, DWORD PTR __First1$[esp+4]
  0000e	8b c1		 mov	 eax, ecx
  00010	8b d7		 mov	 edx, edi
  00012	c1 e9 02	 shr	 ecx, 2
  00015	f3 a5		 rep movsd
  00017	8b c8		 mov	 ecx, eax
  00019	83 e1 03	 and	 ecx, 3
  0001c	f3 a4		 rep movsb
  0001e	5f		 pop	 edi
  0001f	8b c2		 mov	 eax, edx
  00021	5e		 pop	 esi

; 359  : 		}

  00022	c3		 ret	 0
?copy@?$char_traits@D@std@@SAPADPADPBDI@Z ENDP		; std::char_traits<char>::copy
_TEXT	ENDS
PUBLIC	?move@?$char_traits@D@std@@SAPADPADPBDI@Z	; std::char_traits<char>::move
EXTRN	_memmove:NEAR
; Function compile flags: /Ogty
;	COMDAT ?move@?$char_traits@D@std@@SAPADPADPBDI@Z
_TEXT	SEGMENT
__First1$ = 8						; size = 4
__First2$ = 12						; size = 4
__Count$ = 16						; size = 4
?move@?$char_traits@D@std@@SAPADPADPBDI@Z PROC NEAR	; std::char_traits<char>::move, COMDAT

; 370  : 		return ((_Elem *)::memmove(_First1, _First2, _Count));

  00000	e9 00 00 00 00	 jmp	 _memmove
?move@?$char_traits@D@std@@SAPADPADPBDI@Z ENDP		; std::char_traits<char>::move
_TEXT	ENDS
PUBLIC	?GetWorld@CObj@@QAEPAVCWorld@@XZ		; CObj::GetWorld
; Function compile flags: /Ogty
; File c:\documents and settings\test\mes documents\source\virtuos_v17\build\program\_common\obj.h
;	COMDAT ?GetWorld@CObj@@QAEPAVCWorld@@XZ
_TEXT	SEGMENT
?GetWorld@CObj@@QAEPAVCWorld@@XZ PROC NEAR		; CObj::GetWorld, COMDAT
; _this$ = ecx

; 221  : 	CWorld*			GetWorld()	{ return m_pWorld; }

  00000	8b 81 6c 01 00
	00		 mov	 eax, DWORD PTR [ecx+364]
  00006	c3		 ret	 0
?GetWorld@CObj@@QAEPAVCWorld@@XZ ENDP			; CObj::GetWorld
_TEXT	ENDS
PUBLIC	?GetId@CCtrl@@QAEKXZ				; CCtrl::GetId
; Function compile flags: /Ogty
; File c:\documents and settings\test\mes documents\source\virtuos_v17\build\program\_common\ctrl.h
;	COMDAT ?GetId@CCtrl@@QAEKXZ
_TEXT	SEGMENT
?GetId@CCtrl@@QAEKXZ PROC NEAR				; CCtrl::GetId, COMDAT
; _this$ = ecx

; 58   : 	OBJID			GetId()					{ return m_objid;   }

  00000	8b 81 bc 01 00
	00		 mov	 eax, DWORD PTR [ecx+444]
  00006	c3		 ret	 0
?GetId@CCtrl@@QAEKXZ ENDP				; CCtrl::GetId
_TEXT	ENDS
PUBLIC	?LOG_RANGE@@YAXPBDHHH@Z				; LOG_RANGE
PUBLIC	??_C@_0BM@HMFGHCP@?$CFs?5min?3?$CFd?0?5max?3?$CFd?0?5index?3?$CFd?$AA@ ; `string'
EXTRN	?Error@@YAPBDPBDZZ:NEAR				; Error
;	COMDAT ??_C@_0BM@HMFGHCP@?$CFs?5min?3?$CFd?0?5max?3?$CFd?0?5index?3?$CFd?$AA@
; File c:\documents and settings\test\mes documents\source\virtuos_v17\build\program\_common\project.h
CONST	SEGMENT
??_C@_0BM@HMFGHCP@?$CFs?5min?3?$CFd?0?5max?3?$CFd?0?5index?3?$CFd?$AA@ DB '%'
	DB	's min:%d, max:%d, index:%d', 00H		; `string'
; Function compile flags: /Ogty
CONST	ENDS
;	COMDAT ?LOG_RANGE@@YAXPBDHHH@Z
_TEXT	SEGMENT
_szMsg$ = 8						; size = 4
_nMin$ = 12						; size = 4
_nMax$ = 16						; size = 4
_nIndex$ = 20						; size = 4
?LOG_RANGE@@YAXPBDHHH@Z PROC NEAR			; LOG_RANGE, COMDAT

; 559  : 	LPCTSTR szErr = Error( _T( "%s min:%d, max:%d, index:%d" ), szMsg, nMin, nMax, nIndex ); 

  00000	8b 44 24 10	 mov	 eax, DWORD PTR _nIndex$[esp-4]
  00004	8b 4c 24 0c	 mov	 ecx, DWORD PTR _nMax$[esp-4]
  00008	8b 54 24 08	 mov	 edx, DWORD PTR _nMin$[esp-4]
  0000c	50		 push	 eax
  0000d	8b 44 24 08	 mov	 eax, DWORD PTR _szMsg$[esp]
  00011	51		 push	 ecx
  00012	52		 push	 edx
  00013	50		 push	 eax
  00014	68 00 00 00 00	 push	 OFFSET FLAT:??_C@_0BM@HMFGHCP@?$CFs?5min?3?$CFd?0?5max?3?$CFd?0?5index?3?$CFd?$AA@
  00019	e8 00 00 00 00	 call	 ?Error@@YAPBDPBDZZ	; Error
  0001e	83 c4 14	 add	 esp, 20			; 00000014H

; 560  : 	ADDERRORMSG( szErr ); 
; 561  : }

  00021	c3		 ret	 0
?LOG_RANGE@@YAXPBDHHH@Z ENDP				; LOG_RANGE
_TEXT	ENDS
PUBLIC	?LOG_CALLSTACK@@YAXXZ				; LOG_CALLSTACK
; Function compile flags: /Ogty
;	COMDAT ?LOG_CALLSTACK@@YAXXZ
_TEXT	SEGMENT
?LOG_CALLSTACK@@YAXXZ PROC NEAR				; LOG_CALLSTACK, COMDAT

; 565  : #ifdef _DEBUG
; 566  : 	__asm int 3
; 567  : #endif
; 568  : 
; 569  : #if defined(__INTERNALSERVER)
; 570  : 	int *p = NULL;		//    
; 571  : 	*p = 1;
; 572  : #endif
; 573  : }

  00000	c3		 ret	 0
?LOG_CALLSTACK@@YAXXZ ENDP				; LOG_CALLSTACK
_TEXT	ENDS
PUBLIC	?GetKind@CPet@@QAEEXZ				; CPet::GetKind
; Function compile flags: /Ogty
; File c:\documents and settings\test\mes documents\source\virtuos_v17\build\program\_common\pet.h
;	COMDAT ?GetKind@CPet@@QAEEXZ
_TEXT	SEGMENT
?GetKind@CPet@@QAEEXZ PROC NEAR				; CPet::GetKind, COMDAT
; _this$ = ecx

; 132  : 	BYTE	GetKind( void )	{	return m_nKind;	}

  00000	8a 41 04	 mov	 al, BYTE PTR [ecx+4]
  00003	c3		 ret	 0
?GetKind@CPet@@QAEEXZ ENDP				; CPet::GetKind
_TEXT	ENDS
PUBLIC	?GetLevel@CPet@@QAEEXZ				; CPet::GetLevel
; Function compile flags: /Ogty
;	COMDAT ?GetLevel@CPet@@QAEEXZ
_TEXT	SEGMENT
?GetLevel@CPet@@QAEEXZ PROC NEAR			; CPet::GetLevel, COMDAT
; _this$ = ecx

; 134  : 	BYTE	GetLevel( void )	{	return m_nLevel;	}

  00000	8a 41 05	 mov	 al, BYTE PTR [ecx+5]
  00003	c3		 ret	 0
?GetLevel@CPet@@QAEEXZ ENDP				; CPet::GetLevel
_TEXT	ENDS
PUBLIC	?GetExp@CPet@@QAEKXZ				; CPet::GetExp
; Function compile flags: /Ogty
;	COMDAT ?GetExp@CPet@@QAEKXZ
_TEXT	SEGMENT
?GetExp@CPet@@QAEKXZ PROC NEAR				; CPet::GetExp, COMDAT
; _this$ = ecx

; 137  : 	DWORD	GetExp( void )	{	return m_dwExp;		}

  00000	8b 41 08	 mov	 eax, DWORD PTR [ecx+8]
  00003	c3		 ret	 0
?GetExp@CPet@@QAEKXZ ENDP				; CPet::GetExp
_TEXT	ENDS
PUBLIC	?GetEnergy@CPet@@QAEGXZ				; CPet::GetEnergy
; Function compile flags: /Ogty
;	COMDAT ?GetEnergy@CPet@@QAEGXZ
_TEXT	SEGMENT
?GetEnergy@CPet@@QAEGXZ PROC NEAR			; CPet::GetEnergy, COMDAT
; _this$ = ecx

; 141  : 	WORD	GetEnergy( void )	{	return m_wEnergy;	}

  00000	66 8b 41 0c	 mov	 ax, WORD PTR [ecx+12]
  00004	c3		 ret	 0
?GetEnergy@CPet@@QAEGXZ ENDP				; CPet::GetEnergy
_TEXT	ENDS
PUBLIC	?IsEmpty@CItemBase@@QAEHXZ			; CItemBase::IsEmpty
; Function compile flags: /Ogty
; File c:\documents and settings\test\mes documents\source\virtuos_v17\build\program\_common\item.h
;	COMDAT ?IsEmpty@CItemBase@@QAEHXZ
_TEXT	SEGMENT
?IsEmpty@CItemBase@@QAEHXZ PROC NEAR			; CItemBase::IsEmpty, COMDAT
; _this$ = ecx

; 48   : 	BOOL			IsEmpty() { return m_dwItemId ? FALSE : TRUE; }

  00000	8b 51 0c	 mov	 edx, DWORD PTR [ecx+12]
  00003	33 c0		 xor	 eax, eax
  00005	85 d2		 test	 edx, edx
  00007	0f 94 c0	 sete	 al
  0000a	c3		 ret	 0
?IsEmpty@CItemBase@@QAEHXZ ENDP				; CItemBase::IsEmpty
_TEXT	ENDS
PUBLIC	?GetSerialNumber@CItemBase@@QAEKXZ		; CItemBase::GetSerialNumber
; Function compile flags: /Ogty
;	COMDAT ?GetSerialNumber@CItemBase@@QAEKXZ
_TEXT	SEGMENT
?GetSerialNumber@CItemBase@@QAEKXZ PROC NEAR		; CItemBase::GetSerialNumber, COMDAT
; _this$ = ecx

; 64   : 	SERIALNUMBER	GetSerialNumber( void )		{	return m_liSerialNumber;	}

  00000	8b 41 38	 mov	 eax, DWORD PTR [ecx+56]
  00003	c3		 ret	 0
?GetSerialNumber@CItemBase@@QAEKXZ ENDP			; CItemBase::GetSerialNumber
_TEXT	ENDS
PUBLIC	?SetExtra@CItemBase@@QAEXH@Z			; CItemBase::SetExtra
; Function compile flags: /Ogty
;	COMDAT ?SetExtra@CItemBase@@QAEXH@Z
_TEXT	SEGMENT
_nExtra$ = 8						; size = 4
?SetExtra@CItemBase@@QAEXH@Z PROC NEAR			; CItemBase::SetExtra, COMDAT
; _this$ = ecx

; 70   : 	m_nExtra = nExtra;

  00000	8b 44 24 04	 mov	 eax, DWORD PTR _nExtra$[esp-4]
  00004	89 41 10	 mov	 DWORD PTR [ecx+16], eax

; 71   : }

  00007	c2 04 00	 ret	 4
?SetExtra@CItemBase@@QAEXH@Z ENDP			; CItemBase::SetExtra
_TEXT	ENDS
PUBLIC	?GetExtra@CItemBase@@QAEHXZ			; CItemBase::GetExtra
; Function compile flags: /Ogty
;	COMDAT ?GetExtra@CItemBase@@QAEHXZ
_TEXT	SEGMENT
?GetExtra@CItemBase@@QAEHXZ PROC NEAR			; CItemBase::GetExtra, COMDAT
; _this$ = ecx

; 75   : 	return m_nExtra;

  00000	8b 41 10	 mov	 eax, DWORD PTR [ecx+16]

; 76   : }

  00003	c3		 ret	 0
?GetExtra@CItemBase@@QAEHXZ ENDP			; CItemBase::GetExtra
_TEXT	ENDS
PUBLIC	?GetPiercingSize@CItemElem@@QAEHXZ		; CItemElem::GetPiercingSize
EXTRN	?GetPiercingSize@CPiercing@@QAEHXZ:NEAR		; CPiercing::GetPiercingSize
; Function compile flags: /Ogty
;	COMDAT ?GetPiercingSize@CItemElem@@QAEHXZ
_TEXT	SEGMENT
?GetPiercingSize@CItemElem@@QAEHXZ PROC NEAR		; CItemElem::GetPiercingSize, COMDAT
; _this$ = ecx

; 101  : 	int		GetPiercingSize()	{	return m_piercing.GetPiercingSize();		}

  00000	83 c1 3c	 add	 ecx, 60			; 0000003cH
  00003	e9 00 00 00 00	 jmp	 ?GetPiercingSize@CPiercing@@QAEHXZ ; CPiercing::GetPiercingSize
?GetPiercingSize@CItemElem@@QAEHXZ ENDP			; CItemElem::GetPiercingSize
_TEXT	ENDS
PUBLIC	?GetPiercingItem@CItemElem@@QAEKH@Z		; CItemElem::GetPiercingItem
EXTRN	?GetPiercingItem@CPiercing@@QAEKH@Z:NEAR	; CPiercing::GetPiercingItem
; Function compile flags: /Ogty
;	COMDAT ?GetPiercingItem@CItemElem@@QAEKH@Z
_TEXT	SEGMENT
_nth$ = 8						; size = 4
?GetPiercingItem@CItemElem@@QAEKH@Z PROC NEAR		; CItemElem::GetPiercingItem, COMDAT
; _this$ = ecx

; 104  : 	DWORD	GetPiercingItem( int nth )	{	return m_piercing.GetPiercingItem( nth );	}

  00000	83 c1 3c	 add	 ecx, 60			; 0000003cH
  00003	e9 00 00 00 00	 jmp	 ?GetPiercingItem@CPiercing@@QAEKH@Z ; CPiercing::GetPiercingItem
?GetPiercingItem@CItemElem@@QAEKH@Z ENDP		; CItemElem::GetPiercingItem
_TEXT	ENDS
PUBLIC	?GetUltimatePiercingSize@CItemElem@@QAEHXZ	; CItemElem::GetUltimatePiercingSize
EXTRN	?GetUltimatePiercingSize@CPiercing@@QAEHXZ:NEAR	; CPiercing::GetUltimatePiercingSize
; Function compile flags: /Ogty
;	COMDAT ?GetUltimatePiercingSize@CItemElem@@QAEHXZ
_TEXT	SEGMENT
?GetUltimatePiercingSize@CItemElem@@QAEHXZ PROC NEAR	; CItemElem::GetUltimatePiercingSize, COMDAT
; _this$ = ecx

; 110  : 	int		GetUltimatePiercingSize()	{	return m_piercing.GetUltimatePiercingSize();		}

  00000	83 c1 3c	 add	 ecx, 60			; 0000003cH
  00003	e9 00 00 00 00	 jmp	 ?GetUltimatePiercingSize@CPiercing@@QAEHXZ ; CPiercing::GetUltimatePiercingSize
?GetUltimatePiercingSize@CItemElem@@QAEHXZ ENDP		; CItemElem::GetUltimatePiercingSize
_TEXT	ENDS
PUBLIC	?GetUltimatePiercingItem@CItemElem@@QAEKH@Z	; CItemElem::GetUltimatePiercingItem
EXTRN	?GetUltimatePiercingItem@CPiercing@@QAEKH@Z:NEAR ; CPiercing::GetUltimatePiercingItem
; Function compile flags: /Ogty
;	COMDAT ?GetUltimatePiercingItem@CItemElem@@QAEKH@Z
_TEXT	SEGMENT
_nth$ = 8						; size = 4
?GetUltimatePiercingItem@CItemElem@@QAEKH@Z PROC NEAR	; CItemElem::GetUltimatePiercingItem, COMDAT
; _this$ = ecx

; 112  : 	DWORD	GetUltimatePiercingItem( int nth )	{	return m_piercing.GetUltimatePiercingItem( nth );	}

  00000	83 c1 3c	 add	 ecx, 60			; 0000003cH
  00003	e9 00 00 00 00	 jmp	 ?GetUltimatePiercingItem@CPiercing@@QAEKH@Z ; CPiercing::GetUltimatePiercingItem
?GetUltimatePiercingItem@CItemElem@@QAEKH@Z ENDP	; CItemElem::GetUltimatePiercingItem
_TEXT	ENDS
PUBLIC	?GetRandomOptItemId@CItemElem@@QAE_JXZ		; CItemElem::GetRandomOptItemId
; Function compile flags: /Ogty
;	COMDAT ?GetRandomOptItemId@CItemElem@@QAE_JXZ
_TEXT	SEGMENT
?GetRandomOptItemId@CItemElem@@QAE_JXZ PROC NEAR	; CItemElem::GetRandomOptItemId, COMDAT
; _this$ = ecx

; 167  : 	__int64		GetRandomOptItemId( void )	{	return m_iRandomOptItemId;	}

  00000	8b 81 98 00 00
	00		 mov	 eax, DWORD PTR [ecx+152]
  00006	8b 91 9c 00 00
	00		 mov	 edx, DWORD PTR [ecx+156]
  0000c	c3		 ret	 0
?GetRandomOptItemId@CItemElem@@QAE_JXZ ENDP		; CItemElem::GetRandomOptItemId
_TEXT	ENDS
PUBLIC	?GetAbilityOption@CItemElem@@QAEHXZ		; CItemElem::GetAbilityOption
; Function compile flags: /Ogty
;	COMDAT ?GetAbilityOption@CItemElem@@QAEHXZ
_TEXT	SEGMENT
?GetAbilityOption@CItemElem@@QAEHXZ PROC NEAR		; CItemElem::GetAbilityOption, COMDAT
; _this$ = ecx

; 231  : 	int			GetAbilityOption() { return m_nAbilityOption; }

  00000	8b 41 70	 mov	 eax, DWORD PTR [ecx+112]
  00003	c3		 ret	 0
?GetAbilityOption@CItemElem@@QAEHXZ ENDP		; CItemElem::GetAbilityOption
_TEXT	ENDS
PUBLIC	??6CAr@@QAEAAV0@E@Z				; CAr::operator<<
EXTRN	?CheckBuf@CAr@@QAEXI@Z:NEAR			; CAr::CheckBuf
; Function compile flags: /Ogty
; File c:\documents and settings\test\mes documents\source\virtuos_v17\build\program\_network\misc\include\ar.h
;	COMDAT ??6CAr@@QAEAAV0@E@Z
_TEXT	SEGMENT
_by$ = 8						; size = 1
??6CAr@@QAEAAV0@E@Z PROC NEAR				; CAr::operator<<, COMDAT
; _this$ = ecx

; 107  : 	{ CheckBuf( sizeof(BYTE) );

  00000	56		 push	 esi
  00001	6a 01		 push	 1
  00003	8b f1		 mov	 esi, ecx
  00005	e8 00 00 00 00	 call	 ?CheckBuf@CAr@@QAEXI@Z	; CAr::CheckBuf

; 108  : 		*(UNALIGNED BYTE*)m_lpBufCur = by; m_lpBufCur += sizeof(BYTE); return *this; }

  0000a	8b 46 08	 mov	 eax, DWORD PTR [esi+8]
  0000d	8a 4c 24 08	 mov	 cl, BYTE PTR _by$[esp]
  00011	88 08		 mov	 BYTE PTR [eax], cl
  00013	ff 46 08	 inc	 DWORD PTR [esi+8]
  00016	8b c6		 mov	 eax, esi
  00018	5e		 pop	 esi
  00019	c2 04 00	 ret	 4
??6CAr@@QAEAAV0@E@Z ENDP				; CAr::operator<<
_TEXT	ENDS
PUBLIC	??6CAr@@QAEAAV0@G@Z				; CAr::operator<<
; Function compile flags: /Ogty
;	COMDAT ??6CAr@@QAEAAV0@G@Z
_TEXT	SEGMENT
_w$ = 8							; size = 2
??6CAr@@QAEAAV0@G@Z PROC NEAR				; CAr::operator<<, COMDAT
; _this$ = ecx

; 110  : 	{ CheckBuf( sizeof( WORD ) );

  00000	56		 push	 esi
  00001	6a 02		 push	 2
  00003	8b f1		 mov	 esi, ecx
  00005	e8 00 00 00 00	 call	 ?CheckBuf@CAr@@QAEXI@Z	; CAr::CheckBuf

; 111  : 		*(UNALIGNED WORD*)m_lpBufCur = w; m_lpBufCur += sizeof(WORD); return *this; }

  0000a	8b 46 08	 mov	 eax, DWORD PTR [esi+8]
  0000d	66 8b 4c 24 08	 mov	 cx, WORD PTR _w$[esp]
  00012	66 89 08	 mov	 WORD PTR [eax], cx
  00015	83 46 08 02	 add	 DWORD PTR [esi+8], 2
  00019	8b c6		 mov	 eax, esi
  0001b	5e		 pop	 esi
  0001c	c2 04 00	 ret	 4
??6CAr@@QAEAAV0@G@Z ENDP				; CAr::operator<<
_TEXT	ENDS
PUBLIC	??6CAr@@QAEAAV0@J@Z				; CAr::operator<<
; Function compile flags: /Ogty
;	COMDAT ??6CAr@@QAEAAV0@J@Z
_TEXT	SEGMENT
_l$ = 8							; size = 4
??6CAr@@QAEAAV0@J@Z PROC NEAR				; CAr::operator<<, COMDAT
; _this$ = ecx

; 113  : 	{ CheckBuf( sizeof(LONG) );

  00000	56		 push	 esi
  00001	6a 04		 push	 4
  00003	8b f1		 mov	 esi, ecx
  00005	e8 00 00 00 00	 call	 ?CheckBuf@CAr@@QAEXI@Z	; CAr::CheckBuf

; 114  : 		*(UNALIGNED LONG*)m_lpBufCur = l; m_lpBufCur += sizeof(LONG); return *this; }

  0000a	8b 46 08	 mov	 eax, DWORD PTR [esi+8]
  0000d	8b 4c 24 08	 mov	 ecx, DWORD PTR _l$[esp]
  00011	89 08		 mov	 DWORD PTR [eax], ecx
  00013	83 46 08 04	 add	 DWORD PTR [esi+8], 4
  00017	8b c6		 mov	 eax, esi
  00019	5e		 pop	 esi
  0001a	c2 04 00	 ret	 4
??6CAr@@QAEAAV0@J@Z ENDP				; CAr::operator<<
_TEXT	ENDS
PUBLIC	??6CAr@@QAEAAV0@K@Z				; CAr::operator<<
; Function compile flags: /Ogty
;	COMDAT ??6CAr@@QAEAAV0@K@Z
_TEXT	SEGMENT
_dw$ = 8						; size = 4
??6CAr@@QAEAAV0@K@Z PROC NEAR				; CAr::operator<<, COMDAT
; _this$ = ecx

; 116  : 	{ CheckBuf( sizeof(DWORD) );

  00000	56		 push	 esi
  00001	6a 04		 push	 4
  00003	8b f1		 mov	 esi, ecx
  00005	e8 00 00 00 00	 call	 ?CheckBuf@CAr@@QAEXI@Z	; CAr::CheckBuf

; 117  : 		*(UNALIGNED DWORD*)m_lpBufCur = dw; m_lpBufCur += sizeof(DWORD); return *this; }

  0000a	8b 46 08	 mov	 eax, DWORD PTR [esi+8]
  0000d	8b 4c 24 08	 mov	 ecx, DWORD PTR _dw$[esp]
  00011	89 08		 mov	 DWORD PTR [eax], ecx
  00013	83 46 08 04	 add	 DWORD PTR [esi+8], 4
  00017	8b c6		 mov	 eax, esi
  00019	5e		 pop	 esi
  0001a	c2 04 00	 ret	 4
??6CAr@@QAEAAV0@K@Z ENDP				; CAr::operator<<
_TEXT	ENDS
PUBLIC	??6@YAAAVCAr@@AAV0@_J@Z				; operator<<
EXTRN	?Write@CAr@@QAEXPBXI@Z:NEAR			; CAr::Write
; Function compile flags: /Ogty
;	COMDAT ??6@YAAAVCAr@@AAV0@_J@Z
_TEXT	SEGMENT
_ar$ = 8						; size = 4
_i$ = 12						; size = 8
??6@YAAAVCAr@@AAV0@_J@Z PROC NEAR			; operator<<, COMDAT

; 163  : 	{	ar.Write( &i, sizeof(__int64) );	return ar;	}

  00000	56		 push	 esi
  00001	8b 74 24 08	 mov	 esi, DWORD PTR _ar$[esp]
  00005	6a 08		 push	 8
  00007	8d 44 24 10	 lea	 eax, DWORD PTR _i$[esp+4]
  0000b	50		 push	 eax
  0000c	8b ce		 mov	 ecx, esi
  0000e	e8 00 00 00 00	 call	 ?Write@CAr@@QAEXPBXI@Z	; CAr::Write
  00013	8b c6		 mov	 eax, esi
  00015	5e		 pop	 esi
  00016	c3		 ret	 0
??6@YAAAVCAr@@AAV0@_J@Z ENDP				; operator<<
_TEXT	ENDS
PUBLIC	?GetOffset@CAr@@QAEKXZ				; CAr::GetOffset
; Function compile flags: /Ogty
;	COMDAT ?GetOffset@CAr@@QAEKXZ
_TEXT	SEGMENT
?GetOffset@CAr@@QAEKXZ PROC NEAR			; CAr::GetOffset, COMDAT
; _this$ = ecx

; 190  : 	ASSERT( IsStoring() );
; 191  : 	return( m_lpBufCur - m_lpBufStart );

  00000	8b 41 08	 mov	 eax, DWORD PTR [ecx+8]
  00003	2b 41 10	 sub	 eax, DWORD PTR [ecx+16]

; 192  : }

  00006	c3		 ret	 0
?GetOffset@CAr@@QAEKXZ ENDP				; CAr::GetOffset
_TEXT	ENDS
PUBLIC	?GetLevel@CMover@@QAEHXZ			; CMover::GetLevel
; Function compile flags: /Ogty
; File c:\documents and settings\test\mes documents\source\virtuos_v17\build\program\_common\mover.h
;	COMDAT ?GetLevel@CMover@@QAEHXZ
_TEXT	SEGMENT
?GetLevel@CMover@@QAEHXZ PROC NEAR			; CMover::GetLevel, COMDAT
; _this$ = ecx

; 1159 : 	int				GetLevel() { return m_nLevel; }

  00000	8b 81 e0 05 00
	00		 mov	 eax, DWORD PTR [ecx+1504]
  00006	c3		 ret	 0
?GetLevel@CMover@@QAEHXZ ENDP				; CMover::GetLevel
_TEXT	ENDS
PUBLIC	?GetGold@CMover@@QAEHXZ				; CMover::GetGold
; Function compile flags: /Ogty
;	COMDAT ?GetGold@CMover@@QAEHXZ
_TEXT	SEGMENT
?GetGold@CMover@@QAEHXZ PROC NEAR			; CMover::GetGold, COMDAT
; _this$ = ecx

; 1829 : 	int nGold = m_dwGold;
; 1830 : //	nGold -= m_vtInfo.TradeGetGold();
; 1831 : 	ASSERT( nGold >= 0 );
; 1832 : 	return nGold;

  00000	8b 81 84 16 00
	00		 mov	 eax, DWORD PTR [ecx+5764]

; 1833 : }

  00006	c3		 ret	 0
?GetGold@CMover@@QAEHXZ ENDP				; CMover::GetGold
_TEXT	ENDS
PUBLIC	?GetID@CWorld@@QAEKXZ				; CWorld::GetID
; Function compile flags: /Ogty
; File c:\documents and settings\test\mes documents\source\virtuos_v17\build\program\_common\world.h
;	COMDAT ?GetID@CWorld@@QAEKXZ
_TEXT	SEGMENT
?GetID@CWorld@@QAEKXZ PROC NEAR				; CWorld::GetID, COMDAT
; _this$ = ecx

; 413  : 	DWORD			GetID()	{ return m_dwWorldID; }

  00000	8b 01		 mov	 eax, DWORD PTR [ecx]
  00002	c3		 ret	 0
?GetID@CWorld@@QAEKXZ ENDP				; CWorld::GetID
_TEXT	ENDS
PUBLIC	?size@?$basic_string@DU?$char_traits@D@std@@V?$allocator@D@2@@std@@QBEIXZ ; std::basic_string<char,std::char_traits<char>,std::allocator<char> >::size
; Function compile flags: /Ogty
; File c:\program files\microsoft visual studio .net 2003\vc7\include\xstring
;	COMDAT ?size@?$basic_string@DU?$char_traits@D@std@@V?$allocator@D@2@@std@@QBEIXZ
_TEXT	SEGMENT
?size@?$basic_string@DU?$char_traits@D@std@@V?$allocator@D@2@@std@@QBEIXZ PROC NEAR ; std::basic_string<char,std::char_traits<char>,std::allocator<char> >::size, COMDAT
; _this$ = ecx

; 1109 : 		return (_Mysize);

  00000	8b 41 14	 mov	 eax, DWORD PTR [ecx+20]

; 1110 : 		}

  00003	c3		 ret	 0
?size@?$basic_string@DU?$char_traits@D@std@@V?$allocator@D@2@@std@@QBEIXZ ENDP ; std::basic_string<char,std::char_traits<char>,std::allocator<char> >::size
_TEXT	ENDS
PUBLIC	?GetSize@?$CFixedArray@UItemProp@@@@QAEHXZ	; CFixedArray<ItemProp>::GetSize
; Function compile flags: /Ogty
; File c:\documents and settings\test\mes documents\source\virtuos_v17\build\program\_common\data.h
;	COMDAT ?GetSize@?$CFixedArray@UItemProp@@@@QAEHXZ
_TEXT	SEGMENT
?GetSize@?$CFixedArray@UItemProp@@@@QAEHXZ PROC NEAR	; CFixedArray<ItemProp>::GetSize, COMDAT
; _this$ = ecx

; 221  : 	int  GetSize() { return m_nMaxIndex; }

  00000	8b 41 18	 mov	 eax, DWORD PTR [ecx+24]
  00003	c3		 ret	 0
?GetSize@?$CFixedArray@UItemProp@@@@QAEHXZ ENDP		; CFixedArray<ItemProp>::GetSize
_TEXT	ENDS
PUBLIC	?_Myptr@?$basic_string@DU?$char_traits@D@std@@V?$allocator@D@2@@std@@QBEPBDXZ ; std::basic_string<char,std::char_traits<char>,std::allocator<char> >::_Myptr
; Function compile flags: /Ogty
; File c:\program files\microsoft visual studio .net 2003\vc7\include\xstring
;	COMDAT ?_Myptr@?$basic_string@DU?$char_traits@D@std@@V?$allocator@D@2@@std@@QBEPBDXZ
_TEXT	SEGMENT
?_Myptr@?$basic_string@DU?$char_traits@D@std@@V?$allocator@D@2@@std@@QBEPBDXZ PROC NEAR ; std::basic_string<char,std::char_traits<char>,std::allocator<char> >::_Myptr, COMDAT
; _this$ = ecx

; 1537 : 		return (_BUF_SIZE <= _Myres ? _Bx._Ptr : _Bx._Buf);

  00000	83 79 18 10	 cmp	 DWORD PTR [ecx+24], 16	; 00000010H
  00004	72 04		 jb	 SHORT $L257891
  00006	8b 41 04	 mov	 eax, DWORD PTR [ecx+4]

; 1538 : 		}

  00009	c3		 ret	 0
$L257891:

; 1537 : 		return (_BUF_SIZE <= _Myres ? _Bx._Ptr : _Bx._Buf);

  0000a	8d 41 04	 lea	 eax, DWORD PTR [ecx+4]

; 1538 : 		}

  0000d	c3		 ret	 0
?_Myptr@?$basic_string@DU?$char_traits@D@std@@V?$allocator@D@2@@std@@QBEPBDXZ ENDP ; std::basic_string<char,std::char_traits<char>,std::allocator<char> >::_Myptr
_TEXT	ENDS
PUBLIC	?_Myptr@?$basic_string@DU?$char_traits@D@std@@V?$allocator@D@2@@std@@QAEPADXZ ; std::basic_string<char,std::char_traits<char>,std::allocator<char> >::_Myptr
; Function compile flags: /Ogty
;	COMDAT ?_Myptr@?$basic_string@DU?$char_traits@D@std@@V?$allocator@D@2@@std@@QAEPADXZ
_TEXT	SEGMENT
?_Myptr@?$basic_string@DU?$char_traits@D@std@@V?$allocator@D@2@@std@@QAEPADXZ PROC NEAR ; std::basic_string<char,std::char_traits<char>,std::allocator<char> >::_Myptr, COMDAT
; _this$ = ecx

; 1532 : 		return (_BUF_SIZE <= _Myres ? _Bx._Ptr : _Bx._Buf);

  00000	83 79 18 10	 cmp	 DWORD PTR [ecx+24], 16	; 00000010H
  00004	72 04		 jb	 SHORT $L257896
  00006	8b 41 04	 mov	 eax, DWORD PTR [ecx+4]

; 1533 : 		}

  00009	c3		 ret	 0
$L257896:

; 1532 : 		return (_BUF_SIZE <= _Myres ? _Bx._Ptr : _Bx._Buf);

  0000a	8d 41 04	 lea	 eax, DWORD PTR [ecx+4]

; 1533 : 		}

  0000d	c3		 ret	 0
?_Myptr@?$basic_string@DU?$char_traits@D@std@@V?$allocator@D@2@@std@@QAEPADXZ ENDP ; std::basic_string<char,std::char_traits<char>,std::allocator<char> >::_Myptr
_TEXT	ENDS
PUBLIC	?deallocate@?$allocator@D@std@@QAEXPADI@Z	; std::allocator<char>::deallocate
; Function compile flags: /Ogty
; File c:\program files\microsoft visual studio .net 2003\vc7\include\xmemory
;	COMDAT ?deallocate@?$allocator@D@std@@QAEXPADI@Z
_TEXT	SEGMENT
__Ptr$ = 8						; size = 4
___formal$ = 12						; size = 4
?deallocate@?$allocator@D@std@@QAEXPADI@Z PROC NEAR	; std::allocator<char>::deallocate, COMDAT
; _this$ = ecx

; 132  : 		operator delete(_Ptr);

  00000	8b 44 24 04	 mov	 eax, DWORD PTR __Ptr$[esp-4]
  00004	50		 push	 eax
  00005	e8 00 00 00 00	 call	 ??3@YAXPAX@Z		; operator delete
  0000a	59		 pop	 ecx

; 133  : 		}

  0000b	c2 08 00	 ret	 8
?deallocate@?$allocator@D@std@@QAEXPADI@Z ENDP		; std::allocator<char>::deallocate
_TEXT	ENDS
PUBLIC	?_Inside@?$basic_string@DU?$char_traits@D@std@@V?$allocator@D@2@@std@@IAE_NPBD@Z ; std::basic_string<char,std::char_traits<char>,std::allocator<char> >::_Inside
; Function compile flags: /Ogty
; File c:\program files\microsoft visual studio .net 2003\vc7\include\xstring
;	COMDAT ?_Inside@?$basic_string@DU?$char_traits@D@std@@V?$allocator@D@2@@std@@IAE_NPBD@Z
_TEXT	SEGMENT
__Ptr$ = 8						; size = 4
?_Inside@?$basic_string@DU?$char_traits@D@std@@V?$allocator@D@2@@std@@IAE_NPBD@Z PROC NEAR ; std::basic_string<char,std::char_traits<char>,std::allocator<char> >::_Inside, COMDAT
; _this$ = ecx

; 1494 : 		{	// test if _Ptr points inside string

  00000	56		 push	 esi

; 1495 : 		if (_Ptr < _Myptr() || _Myptr() + _Mysize <= _Ptr)

  00001	8b 71 18	 mov	 esi, DWORD PTR [ecx+24]
  00004	83 fe 10	 cmp	 esi, 16			; 00000010H
  00007	57		 push	 edi
  00008	8d 41 04	 lea	 eax, DWORD PTR [ecx+4]
  0000b	72 04		 jb	 SHORT $L257909
  0000d	8b 10		 mov	 edx, DWORD PTR [eax]
  0000f	eb 02		 jmp	 SHORT $L257910
$L257909:
  00011	8b d0		 mov	 edx, eax
$L257910:
  00013	8b 7c 24 0c	 mov	 edi, DWORD PTR __Ptr$[esp+4]
  00017	3b fa		 cmp	 edi, edx
  00019	72 17		 jb	 SHORT $L222788
  0001b	83 fe 10	 cmp	 esi, 16			; 00000010H
  0001e	72 02		 jb	 SHORT $L257917
  00020	8b 00		 mov	 eax, DWORD PTR [eax]
$L257917:
  00022	8b 49 14	 mov	 ecx, DWORD PTR [ecx+20]
  00025	03 c8		 add	 ecx, eax
  00027	3b cf		 cmp	 ecx, edi
  00029	76 07		 jbe	 SHORT $L222788
  0002b	5f		 pop	 edi

; 1497 : 		else
; 1498 : 			return (true);

  0002c	b0 01		 mov	 al, 1
  0002e	5e		 pop	 esi

; 1499 : 		}

  0002f	c2 04 00	 ret	 4
$L222788:
  00032	5f		 pop	 edi

; 1496 : 			return (false);	// don't ask

  00033	32 c0		 xor	 al, al
  00035	5e		 pop	 esi

; 1499 : 		}

  00036	c2 04 00	 ret	 4
?_Inside@?$basic_string@DU?$char_traits@D@std@@V?$allocator@D@2@@std@@IAE_NPBD@Z ENDP ; std::basic_string<char,std::char_traits<char>,std::allocator<char> >::_Inside
_TEXT	ENDS
PUBLIC	?max_size@?$allocator@D@std@@QBEIXZ		; std::allocator<char>::max_size
; Function compile flags: /Ogty
; File c:\program files\microsoft visual studio .net 2003\vc7\include\xmemory
;	COMDAT ?max_size@?$allocator@D@std@@QBEIXZ
_TEXT	SEGMENT
?max_size@?$allocator@D@std@@QBEIXZ PROC NEAR		; std::allocator<char>::max_size, COMDAT
; _this$ = ecx

; 157  : 		_SIZT _Count = (_SIZT)(-1) / sizeof (_Ty);
; 158  : 		return (0 < _Count ? _Count : 1);

  00000	83 c8 ff	 or	 eax, -1

; 159  : 		}

  00003	c3		 ret	 0
?max_size@?$allocator@D@std@@QBEIXZ ENDP		; std::allocator<char>::max_size
_TEXT	ENDS
PUBLIC	?GetAt@?$CFixedArray@UItemProp@@@@QAEPAUItemProp@@K@Z ; CFixedArray<ItemProp>::GetAt
; Function compile flags: /Ogty
; File c:\documents and settings\test\mes documents\source\virtuos_v17\build\program\_common\data.h
;	COMDAT ?GetAt@?$CFixedArray@UItemProp@@@@QAEPAUItemProp@@K@Z
_TEXT	SEGMENT
_dwIndex$ = 8						; size = 4
?GetAt@?$CFixedArray@UItemProp@@@@QAEPAUItemProp@@K@Z PROC NEAR ; CFixedArray<ItemProp>::GetAt, COMDAT
; _this$ = ecx

; 270  : 	if( dwIndex >= (DWORD)m_nMaxIndex )

  00000	8b 44 24 04	 mov	 eax, DWORD PTR _dwIndex$[esp-4]
  00004	3b 41 18	 cmp	 eax, DWORD PTR [ecx+24]
  00007	72 05		 jb	 SHORT $L224299

; 271  : 		return NULL;

  00009	33 c0		 xor	 eax, eax

; 273  : }

  0000b	c2 04 00	 ret	 4
$L224299:

; 272  : 	return (T*) m_apOffset[ dwIndex ];

  0000e	8b 49 08	 mov	 ecx, DWORD PTR [ecx+8]
  00011	8b 04 81	 mov	 eax, DWORD PTR [ecx+eax*4]

; 273  : }

  00014	c2 04 00	 ret	 4
?GetAt@?$CFixedArray@UItemProp@@@@QAEPAUItemProp@@K@Z ENDP ; CFixedArray<ItemProp>::GetAt
_TEXT	ENDS
PUBLIC	??1?$CItemContainer@VCItemElem@@@@UAE@XZ	; CItemContainer<CItemElem>::~CItemContainer<CItemElem>
; Function compile flags: /Ogty
; File c:\documents and settings\test\mes documents\source\virtuos_v17\build\program\_common\item.h
;	COMDAT ??1?$CItemContainer@VCItemElem@@@@UAE@XZ
_TEXT	SEGMENT
??1?$CItemContainer@VCItemElem@@@@UAE@XZ PROC NEAR	; CItemContainer<CItemElem>::~CItemContainer<CItemElem>, COMDAT
; _this$ = ecx

; 476  : {

  00000	56		 push	 esi
  00001	8b f1		 mov	 esi, ecx

; 477  : 	SAFE_DELETE_ARRAY( m_apItem );

  00003	8b 4e 10	 mov	 ecx, DWORD PTR [esi+16]
  00006	85 c9		 test	 ecx, ecx
  00008	c7 06 00 00 00
	00		 mov	 DWORD PTR [esi], OFFSET FLAT:??_7?$CItemContainer@VCItemElem@@@@6B@
  0000e	74 22		 je	 SHORT $L224407
  00010	8b 51 fc	 mov	 edx, DWORD PTR [ecx-4]
  00013	85 d2		 test	 edx, edx
  00015	8d 41 fc	 lea	 eax, DWORD PTR [ecx-4]
  00018	74 08		 je	 SHORT $L257932
  0001a	8b 01		 mov	 eax, DWORD PTR [ecx]
  0001c	6a 03		 push	 3
  0001e	ff 10		 call	 DWORD PTR [eax]
  00020	eb 09		 jmp	 SHORT $L257933
$L257932:
  00022	50		 push	 eax
  00023	e8 00 00 00 00	 call	 ??_V@YAXPAX@Z		; operator delete[]
  00028	83 c4 04	 add	 esp, 4
$L257933:
  0002b	c7 46 10 00 00
	00 00		 mov	 DWORD PTR [esi+16], 0
$L224407:

; 478  : 	SAFE_DELETE_ARRAY( m_apIndex );

  00032	8b 46 04	 mov	 eax, DWORD PTR [esi+4]
  00035	85 c0		 test	 eax, eax
  00037	74 10		 je	 SHORT $L224412
  00039	50		 push	 eax
  0003a	e8 00 00 00 00	 call	 ??_V@YAXPAX@Z		; operator delete[]
  0003f	83 c4 04	 add	 esp, 4
  00042	c7 46 04 00 00
	00 00		 mov	 DWORD PTR [esi+4], 0
$L224412:
  00049	5e		 pop	 esi

; 479  : }

  0004a	c3		 ret	 0
??1?$CItemContainer@VCItemElem@@@@UAE@XZ ENDP		; CItemContainer<CItemElem>::~CItemContainer<CItemElem>
_TEXT	ENDS
PUBLIC	?GetAtId@?$CItemContainer@VCItemElem@@@@QAEPAVCItemElem@@K@Z ; CItemContainer<CItemElem>::GetAtId
; Function compile flags: /Ogty
;	COMDAT ?GetAtId@?$CItemContainer@VCItemElem@@@@QAEPAVCItemElem@@K@Z
_TEXT	SEGMENT
_dwId$ = 8						; size = 4
?GetAtId@?$CItemContainer@VCItemElem@@@@QAEPAVCItemElem@@K@Z PROC NEAR ; CItemContainer<CItemElem>::GetAtId, COMDAT
; _this$ = ecx

; 518  : 	if( dwId >= (DWORD)( GetMax() ) ) return NULL;

  00000	8b 44 24 04	 mov	 eax, DWORD PTR _dwId$[esp-4]
  00004	3b 41 0c	 cmp	 eax, DWORD PTR [ecx+12]
  00007	72 05		 jb	 SHORT $L224421
  00009	33 c0		 xor	 eax, eax

; 521  : 		return NULL;
; 522  : 	return pItemElem;
; 523  : }

  0000b	c2 04 00	 ret	 4
$L224421:

; 519  : 	T* pItemElem = &m_apItem[ dwId ];

  0000e	8b 51 10	 mov	 edx, DWORD PTR [ecx+16]
  00011	69 c0 b8 00 00
	00		 imul	 eax, 184		; 000000b8H
  00017	03 c2		 add	 eax, edx
  00019	8b c8		 mov	 ecx, eax

; 520  : 	if( pItemElem->IsEmpty() ) 

  0001b	8b 41 0c	 mov	 eax, DWORD PTR [ecx+12]
  0001e	f7 d8		 neg	 eax
  00020	1b c0		 sbb	 eax, eax
  00022	23 c1		 and	 eax, ecx

; 521  : 		return NULL;
; 522  : 	return pItemElem;
; 523  : }

  00024	c2 04 00	 ret	 4
?GetAtId@?$CItemContainer@VCItemElem@@@@QAEPAVCItemElem@@K@Z ENDP ; CItemContainer<CItemElem>::GetAtId
_TEXT	ENDS
PUBLIC	??$_Allocate@D@std@@YAPADIPAD@Z			; std::_Allocate<char>
EXTRN	??2@YAPAXI@Z:NEAR				; operator new
; Function compile flags: /Ogty
; File c:\program files\microsoft visual studio .net 2003\vc7\include\xmemory
;	COMDAT ??$_Allocate@D@std@@YAPADIPAD@Z
_TEXT	SEGMENT
__Count$ = 8						; size = 4
___formal$ = 12						; size = 4
??$_Allocate@D@std@@YAPADIPAD@Z PROC NEAR		; std::_Allocate<char>, COMDAT

; 34   : 	return ((_Ty _FARQ *)operator new(_Count * sizeof (_Ty)));

  00000	8b 44 24 04	 mov	 eax, DWORD PTR __Count$[esp-4]
  00004	50		 push	 eax
  00005	e8 00 00 00 00	 call	 ??2@YAPAXI@Z		; operator new
  0000a	83 c4 04	 add	 esp, 4

; 35   : 	}

  0000d	c3		 ret	 0
??$_Allocate@D@std@@YAPADIPAD@Z ENDP			; std::_Allocate<char>
; Function compile flags: /Ogty
_TEXT	ENDS
;	COMDAT ??_G?$CItemContainer@VCItemElem@@@@UAEPAXI@Z
_TEXT	SEGMENT
___flags$ = 8						; size = 4
??_G?$CItemContainer@VCItemElem@@@@UAEPAXI@Z PROC NEAR	; CItemContainer<CItemElem>::`scalar deleting destructor', COMDAT
; _this$ = ecx
  00000	56		 push	 esi
  00001	8b f1		 mov	 esi, ecx
  00003	8b 4e 10	 mov	 ecx, DWORD PTR [esi+16]
  00006	85 c9		 test	 ecx, ecx
  00008	c7 06 00 00 00
	00		 mov	 DWORD PTR [esi], OFFSET FLAT:??_7?$CItemContainer@VCItemElem@@@@6B@
  0000e	74 22		 je	 SHORT $L257963
  00010	8b 51 fc	 mov	 edx, DWORD PTR [ecx-4]
  00013	85 d2		 test	 edx, edx
  00015	8d 41 fc	 lea	 eax, DWORD PTR [ecx-4]
  00018	74 08		 je	 SHORT $L257969
  0001a	8b 01		 mov	 eax, DWORD PTR [ecx]
  0001c	6a 03		 push	 3
  0001e	ff 10		 call	 DWORD PTR [eax]
  00020	eb 09		 jmp	 SHORT $L257970
$L257969:
  00022	50		 push	 eax
  00023	e8 00 00 00 00	 call	 ??_V@YAXPAX@Z		; operator delete[]
  00028	83 c4 04	 add	 esp, 4
$L257970:
  0002b	c7 46 10 00 00
	00 00		 mov	 DWORD PTR [esi+16], 0
$L257963:
  00032	8b 46 04	 mov	 eax, DWORD PTR [esi+4]
  00035	85 c0		 test	 eax, eax
  00037	74 10		 je	 SHORT $L257964
  00039	50		 push	 eax
  0003a	e8 00 00 00 00	 call	 ??_V@YAXPAX@Z		; operator delete[]
  0003f	83 c4 04	 add	 esp, 4
  00042	c7 46 04 00 00
	00 00		 mov	 DWORD PTR [esi+4], 0
$L257964:
  00049	f6 44 24 08 01	 test	 BYTE PTR ___flags$[esp], 1
  0004e	74 09		 je	 SHORT $L257974
  00050	56		 push	 esi
  00051	e8 00 00 00 00	 call	 ??3@YAXPAX@Z		; operator delete
  00056	83 c4 04	 add	 esp, 4
$L257974:
  00059	8b c6		 mov	 eax, esi
  0005b	5e		 pop	 esi
  0005c	c2 04 00	 ret	 4
??_G?$CItemContainer@VCItemElem@@@@UAEPAXI@Z ENDP	; CItemContainer<CItemElem>::`scalar deleting destructor'
_TEXT	ENDS
PUBLIC	?SetOther@CVTInfo@@QAEXPAVCMover@@@Z		; CVTInfo::SetOther
; Function compile flags: /Ogty
; File c:\documents and settings\test\mes documents\source\virtuos_v17\build\program\_common\moveritem.cpp
;	COMDAT ?SetOther@CVTInfo@@QAEXPAVCMover@@@Z
_TEXT	SEGMENT
_pMover$ = 8						; size = 4
?SetOther@CVTInfo@@QAEXPAVCMover@@@Z PROC NEAR		; CVTInfo::SetOther, COMDAT
; _this$ = ecx

; 26   : //	m_pOther = pMover;
; 27   : 	if( pMover )

  00000	8b 44 24 04	 mov	 eax, DWORD PTR _pMover$[esp-4]
  00004	85 c0		 test	 eax, eax
  00006	74 0c		 je	 SHORT $L252998

; 28   : 	{
; 29   : 		m_objId = pMover->GetId();

  00008	8b 80 bc 01 00
	00		 mov	 eax, DWORD PTR [eax+444]
  0000e	89 41 7c	 mov	 DWORD PTR [ecx+124], eax

; 34   : 	}
; 35   : }

  00011	c2 04 00	 ret	 4
$L252998:

; 30   : 	}
; 31   : 	else
; 32   : 	{
; 33   : 		m_objId = NULL_ID;

  00014	c7 41 7c ff ff
	ff ff		 mov	 DWORD PTR [ecx+124], -1

; 34   : 	}
; 35   : }

  0001b	c2 04 00	 ret	 4
?SetOther@CVTInfo@@QAEXPAVCMover@@@Z ENDP		; CVTInfo::SetOther
_TEXT	ENDS
PUBLIC	?IsVendorOpen@CVTInfo@@QAEHXZ			; CVTInfo::IsVendorOpen
; Function compile flags: /Ogty
;	COMDAT ?IsVendorOpen@CVTInfo@@QAEHXZ
_TEXT	SEGMENT
?IsVendorOpen@CVTInfo@@QAEHXZ PROC NEAR			; CVTInfo::IsVendorOpen, COMDAT
; _this$ = ecx

; 59   : 	return (m_strTitle.empty() != true);

  00000	8b 91 9c 00 00
	00		 mov	 edx, DWORD PTR [ecx+156]
  00006	33 c0		 xor	 eax, eax
  00008	85 d2		 test	 edx, edx
  0000a	0f 95 c0	 setne	 al

; 60   : }

  0000d	c3		 ret	 0
?IsVendorOpen@CVTInfo@@QAEHXZ ENDP			; CVTInfo::IsVendorOpen
_TEXT	ENDS
PUBLIC	?TradeClear@CVTInfo@@QAEXXZ			; CVTInfo::TradeClear
EXTRN	?AddGold@CMover@@QAEHHH@Z:NEAR			; CMover::AddGold
; Function compile flags: /Ogty
;	COMDAT ?TradeClear@CVTInfo@@QAEXXZ
_TEXT	SEGMENT
?TradeClear@CVTInfo@@QAEXXZ PROC NEAR			; CVTInfo::TradeClear, COMDAT
; _this$ = ecx

; 75   : {

  00000	56		 push	 esi
  00001	8b f1		 mov	 esi, ecx
  00003	57		 push	 edi

; 76   : 	SetOther( NULL );

  00004	c7 46 7c ff ff
	ff ff		 mov	 DWORD PTR [esi+124], -1
  0000b	8d 46 04	 lea	 eax, DWORD PTR [esi+4]
  0000e	ba 19 00 00 00	 mov	 edx, 25			; 00000019H
  00013	33 ff		 xor	 edi, edi
$L253027:

; 77   : 	for( int i = 0; i < MAX_TRADE; i++ )
; 78   : 	{
; 79   : 		if( m_apItem_VT[i] )

  00015	8b 08		 mov	 ecx, DWORD PTR [eax]
  00017	3b cf		 cmp	 ecx, edi
  00019	74 05		 je	 SHORT $L253028

; 80   : 		{
; 81   : 			m_apItem_VT[i]->SetExtra( 0 );

  0001b	89 79 10	 mov	 DWORD PTR [ecx+16], edi

; 82   : 			m_apItem_VT[i] = NULL;

  0001e	89 38		 mov	 DWORD PTR [eax], edi
$L253028:
  00020	83 c0 04	 add	 eax, 4
  00023	4a		 dec	 edx
  00024	75 ef		 jne	 SHORT $L253027

; 83   : 		}
; 84   : 	}
; 85   : #ifdef __WORLDSERVER	
; 86   : 	// raiders.2006.11.28	 =  +   
; 87   : 	int nGold = TradeGetGold();

  00026	8b 06		 mov	 eax, DWORD PTR [esi]

; 88   : 	if( nGold > 0 && m_pOwner )

  00028	3b c7		 cmp	 eax, edi
  0002a	7e 12		 jle	 SHORT $L258019
  0002c	8b 8e 80 00 00
	00		 mov	 ecx, DWORD PTR [esi+128]
  00032	3b cf		 cmp	 ecx, edi
  00034	74 08		 je	 SHORT $L258019

; 89   : 		m_pOwner->AddGold( nGold );

  00036	6a 01		 push	 1
  00038	50		 push	 eax
  00039	e8 00 00 00 00	 call	 ?AddGold@CMover@@QAEHHH@Z ; CMover::AddGold
$L258019:

; 90   : 	//
; 91   : #endif
; 92   : 
; 93   : 	TradeSetGold( 0 );

  0003e	89 3e		 mov	 DWORD PTR [esi], edi

; 94   : 	TradeSetState( TRADE_STEP_ITEM );

  00040	89 be 84 00 00
	00		 mov	 DWORD PTR [esi+132], edi
  00046	5f		 pop	 edi
  00047	5e		 pop	 esi

; 95   : }

  00048	c3		 ret	 0
?TradeClear@CVTInfo@@QAEXXZ ENDP			; CVTInfo::TradeClear
_TEXT	ENDS
PUBLIC	?TradeSetItem@CVTInfo@@QAEXEEF@Z		; CVTInfo::TradeSetItem
EXTRN	?GetItemId@CMover@@QAEPAVCItemBase@@K@Z:NEAR	; CMover::GetItemId
; Function compile flags: /Ogty
;	COMDAT ?TradeSetItem@CVTInfo@@QAEXEEF@Z
_TEXT	SEGMENT
_nId$ = 8						; size = 1
_i$ = 12						; size = 1
_nItemNum$ = 16						; size = 2
?TradeSetItem@CVTInfo@@QAEXEEF@Z PROC NEAR		; CVTInfo::TradeSetItem, COMDAT
; _this$ = ecx

; 109  : 	CItemBase* pItemBase = m_pOwner->GetItemId( nId );

  00000	0f b6 44 24 04	 movzx	 eax, BYTE PTR _nId$[esp-4]
  00005	56		 push	 esi
  00006	8b f1		 mov	 esi, ecx
  00008	8b 8e 80 00 00
	00		 mov	 ecx, DWORD PTR [esi+128]
  0000e	50		 push	 eax
  0000f	e8 00 00 00 00	 call	 ?GetItemId@CMover@@QAEPAVCItemBase@@K@Z ; CMover::GetItemId

; 110  : 	if( pItemBase )

  00014	85 c0		 test	 eax, eax
  00016	74 11		 je	 SHORT $L258024

; 111  : 	{
; 112  : 		m_apItem_VT[i] = pItemBase;

  00018	0f b6 4c 24 0c	 movzx	 ecx, BYTE PTR _i$[esp]

; 113  : 		pItemBase->SetExtra( nItemNum );

  0001d	0f bf 54 24 10	 movsx	 edx, WORD PTR _nItemNum$[esp]
  00022	89 44 8e 04	 mov	 DWORD PTR [esi+ecx*4+4], eax
  00026	89 50 10	 mov	 DWORD PTR [eax+16], edx
$L258024:
  00029	5e		 pop	 esi

; 114  : 	}
; 115  : }

  0002a	c2 0c 00	 ret	 12			; 0000000cH
?TradeSetItem@CVTInfo@@QAEXEEF@Z ENDP			; CVTInfo::TradeSetItem
_TEXT	ENDS
PUBLIC	?TradeClearItem@CVTInfo@@QAEHE@Z		; CVTInfo::TradeClearItem
EXTRN	?IsUsingItem@@YAHPAVCItemBase@@@Z:NEAR		; IsUsingItem
; Function compile flags: /Ogty
;	COMDAT ?TradeClearItem@CVTInfo@@QAEHE@Z
_TEXT	SEGMENT
_i$ = 8							; size = 1
?TradeClearItem@CVTInfo@@QAEHE@Z PROC NEAR		; CVTInfo::TradeClearItem, COMDAT
; _this$ = ecx

; 119  : 	CItemBase* pItemBase = m_apItem_VT[i];

  00000	0f b6 44 24 04	 movzx	 eax, BYTE PTR _i$[esp-4]
  00005	56		 push	 esi
  00006	8d 74 81 04	 lea	 esi, DWORD PTR [ecx+eax*4+4]
  0000a	57		 push	 edi
  0000b	8b 3e		 mov	 edi, DWORD PTR [esi]

; 120  : 	if( IsUsingItem( pItemBase ) )

  0000d	57		 push	 edi
  0000e	e8 00 00 00 00	 call	 ?IsUsingItem@@YAHPAVCItemBase@@@Z ; IsUsingItem
  00013	83 c4 04	 add	 esp, 4
  00016	85 c0		 test	 eax, eax
  00018	74 17		 je	 SHORT $L253053

; 121  : 	{
; 122  : 		pItemBase->SetExtra( 0 );		// clear - using flag 

  0001a	c7 47 10 00 00
	00 00		 mov	 DWORD PTR [edi+16], 0
  00021	5f		 pop	 edi

; 123  : 		m_apItem_VT[i] = NULL;

  00022	c7 06 00 00 00
	00		 mov	 DWORD PTR [esi], 0

; 124  : 
; 125  : 		return TRUE;

  00028	b8 01 00 00 00	 mov	 eax, 1
  0002d	5e		 pop	 esi

; 129  : }

  0002e	c2 04 00	 ret	 4
$L253053:
  00031	5f		 pop	 edi

; 126  : 	}
; 127  : 	else
; 128  : 		return FALSE;

  00032	33 c0		 xor	 eax, eax
  00034	5e		 pop	 esi

; 129  : }

  00035	c2 04 00	 ret	 4
?TradeClearItem@CVTInfo@@QAEHE@Z ENDP			; CVTInfo::TradeClearItem
_TEXT	ENDS
PUBLIC	?TradeSetItem2@CVTInfo@@QAEKEEAAF@Z		; CVTInfo::TradeSetItem2
EXTRN	?IsUsing@CMover@@QAEHPAVCItemElem@@@Z:NEAR	; CMover::IsUsing
EXTRN	?IsUsableItem@@YAHPAVCItemBase@@@Z:NEAR		; IsUsableItem
EXTRN	?IsQuest@CItemBase@@QAEHXZ:NEAR			; CItemBase::IsQuest
EXTRN	?GetPropA@CItemBase@@QAEPAUItemProp@@XZ:NEAR	; CItemBase::GetPropA
EXTRN	?IsBinds@CItemElem@@QAEHXZ:NEAR			; CItemElem::IsBinds
; Function compile flags: /Ogty
;	COMDAT ?TradeSetItem2@CVTInfo@@QAEKEEAAF@Z
_TEXT	SEGMENT
_nId$ = 8						; size = 1
_i$ = 12						; size = 1
_nItemNum$ = 16						; size = 4
?TradeSetItem2@CVTInfo@@QAEKEEAAF@Z PROC NEAR		; CVTInfo::TradeSetItem2, COMDAT
; _this$ = ecx

; 219  : 	CItemBase* pItemBase = m_pOwner->GetItemId( nId );

  00000	0f b6 44 24 04	 movzx	 eax, BYTE PTR _nId$[esp-4]
  00005	53		 push	 ebx
  00006	56		 push	 esi
  00007	57		 push	 edi
  00008	8b f9		 mov	 edi, ecx
  0000a	8b 8f 80 00 00
	00		 mov	 ecx, DWORD PTR [edi+128]
  00010	50		 push	 eax
  00011	e8 00 00 00 00	 call	 ?GetItemId@CMover@@QAEPAVCItemBase@@K@Z ; CMover::GetItemId
  00016	8b f0		 mov	 esi, eax

; 220  : 	if( IsUsableItem( pItemBase ) == FALSE || m_apItem_VT[i] != NULL )  

  00018	56		 push	 esi
  00019	e8 00 00 00 00	 call	 ?IsUsableItem@@YAHPAVCItemBase@@@Z ; IsUsableItem
  0001e	83 c4 04	 add	 esp, 4
  00021	85 c0		 test	 eax, eax
  00023	0f 84 f7 00 00
	00		 je	 $L253102
  00029	8b 5c 24 14	 mov	 ebx, DWORD PTR _i$[esp+8]
  0002d	0f b6 cb	 movzx	 ecx, bl
  00030	8b 44 8f 04	 mov	 eax, DWORD PTR [edi+ecx*4+4]
  00034	85 c0		 test	 eax, eax
  00036	0f 85 e4 00 00
	00		 jne	 $L253102

; 222  : 
; 223  : 	if( m_pOwner->m_Inventory.IsEquip( pItemBase->m_dwObjId ) ) 

  0003c	8b 87 80 00 00
	00		 mov	 eax, DWORD PTR [edi+128]
  00042	8b 90 a0 0b 00
	00		 mov	 edx, DWORD PTR [eax+2976]
  00048	8b 4e 04	 mov	 ecx, DWORD PTR [esi+4]
  0004b	05 90 0b 00 00	 add	 eax, 2960		; 00000b90H
  00050	85 d2		 test	 edx, edx
  00052	75 0f		 jne	 SHORT $L258037
  00054	68 00 00 00 00	 push	 OFFSET FLAT:??_C@_0N@GELFDHNG@CONTAINER?1?10?$AA@
  00059	e8 00 00 00 00	 call	 ?WriteError@@YAXPBDZZ	; WriteError
  0005e	83 c4 04	 add	 esp, 4
  00061	eb 18		 jmp	 SHORT $L253104
$L258037:
  00063	3b 48 0c	 cmp	 ecx, DWORD PTR [eax+12]
  00066	73 13		 jae	 SHORT $L253104
  00068	69 c9 b8 00 00
	00		 imul	 ecx, 184		; 000000b8H
  0006e	8b 54 11 08	 mov	 edx, DWORD PTR [ecx+edx+8]
  00072	3b 50 08	 cmp	 edx, DWORD PTR [eax+8]

; 224  : 		return (DWORD)TID_GAME_CANNOTTRADE_ITEM;

  00075	0f 83 a5 00 00
	00		 jae	 $L253102
$L253104:

; 225  : 	
; 226  : 	if( ( (CItemElem*)pItemBase )->IsQuest() )

  0007b	8b ce		 mov	 ecx, esi
  0007d	e8 00 00 00 00	 call	 ?IsQuest@CItemBase@@QAEHXZ ; CItemBase::IsQuest
  00082	85 c0		 test	 eax, eax

; 227  : 		return (DWORD)TID_GAME_CANNOTTRADE_ITEM;

  00084	0f 85 96 00 00
	00		 jne	 $L253102

; 228  : 
; 229  : 	if( ( (CItemElem*)pItemBase )->IsBinds() )

  0008a	8b ce		 mov	 ecx, esi
  0008c	e8 00 00 00 00	 call	 ?IsBinds@CItemElem@@QAEHXZ ; CItemElem::IsBinds
  00091	85 c0		 test	 eax, eax

; 230  : 		return (DWORD)TID_GAME_CANNOTTRADE_ITEM;

  00093	0f 85 87 00 00
	00		 jne	 $L253102

; 231  : 
; 232  : 	if( m_pOwner->IsUsing( (CItemElem*)pItemBase ) )

  00099	8b 8f 80 00 00
	00		 mov	 ecx, DWORD PTR [edi+128]
  0009f	56		 push	 esi
  000a0	e8 00 00 00 00	 call	 ?IsUsing@CMover@@QAEHPAVCItemElem@@@Z ; CMover::IsUsing
  000a5	85 c0		 test	 eax, eax
  000a7	74 0b		 je	 SHORT $L253113
  000a9	5f		 pop	 edi
  000aa	5e		 pop	 esi

; 233  : 		return (DWORD)TID_GAME_CANNOT_DO_USINGITEM;

  000ab	b8 aa 0c 00 00	 mov	 eax, 3242		; 00000caaH
  000b0	5b		 pop	 ebx

; 248  : }

  000b1	c2 0c 00	 ret	 12			; 0000000cH
$L253113:

; 234  : 
; 235  : 	if( pItemBase->GetProp()->dwItemKind3 == IK3_CLOAK && ( (CItemElem*)pItemBase )->m_idGuild != 0 )

  000b4	8b ce		 mov	 ecx, esi
  000b6	e8 00 00 00 00	 call	 ?GetPropA@CItemBase@@QAEPAUItemProp@@XZ ; CItemBase::GetPropA
  000bb	83 78 78 18	 cmp	 DWORD PTR [eax+120], 24	; 00000018H
  000bf	75 0a		 jne	 SHORT $L253116
  000c1	8b 86 84 00 00
	00		 mov	 eax, DWORD PTR [esi+132]
  000c7	85 c0		 test	 eax, eax

; 236  : 		return (DWORD)TID_GAME_CANNOTTRADE_ITEM;

  000c9	75 55		 jne	 SHORT $L253102
$L253116:

; 237  : 	
; 238  : 	if( pItemBase->GetProp()->dwParts == PARTS_RIDE && pItemBase->GetProp()->dwItemJob == JOB_VAGRANT )

  000cb	8b ce		 mov	 ecx, esi
  000cd	e8 00 00 00 00	 call	 ?GetPropA@CItemBase@@QAEPAUItemProp@@XZ ; CItemBase::GetPropA
  000d2	83 b8 a8 00 00
	00 0d		 cmp	 DWORD PTR [eax+168], 13	; 0000000dH
  000d9	75 0e		 jne	 SHORT $L253118
  000db	8b ce		 mov	 ecx, esi
  000dd	e8 00 00 00 00	 call	 ?GetPropA@CItemBase@@QAEPAUItemProp@@XZ ; CItemBase::GetPropA
  000e2	8b 48 7c	 mov	 ecx, DWORD PTR [eax+124]
  000e5	85 c9		 test	 ecx, ecx

; 239  : 		return (DWORD)TID_GAME_CANNOTTRADE_ITEM;

  000e7	74 37		 je	 SHORT $L253102
$L253118:

; 240  : 	
; 241  : 	if( nItemNum < 1)

  000e9	8b 44 24 18	 mov	 eax, DWORD PTR _nItemNum$[esp+8]
  000ed	66 83 38 01	 cmp	 WORD PTR [eax], 1
  000f1	7d 05		 jge	 SHORT $L253120

; 242  : 		nItemNum = 1;

  000f3	66 c7 00 01 00	 mov	 WORD PTR [eax], 1
$L253120:

; 243  : 	if( nItemNum > ( (CItemElem*)pItemBase )->m_nItemNum )

  000f8	66 8b b6 80 00
	00 00		 mov	 si, WORD PTR [esi+128]
  000ff	66 39 30	 cmp	 WORD PTR [eax], si
  00102	7e 03		 jle	 SHORT $L253122

; 244  : 		nItemNum = ( (CItemElem*)pItemBase )->m_nItemNum;

  00104	66 89 30	 mov	 WORD PTR [eax], si
$L253122:

; 245  : 	
; 246  : 	TradeSetItem( nId, i, nItemNum );

  00107	0f bf 00	 movsx	 eax, WORD PTR [eax]
  0010a	8b 4c 24 10	 mov	 ecx, DWORD PTR _nId$[esp+8]
  0010e	50		 push	 eax
  0010f	53		 push	 ebx
  00110	51		 push	 ecx
  00111	8b cf		 mov	 ecx, edi
  00113	e8 00 00 00 00	 call	 ?TradeSetItem@CVTInfo@@QAEXEEF@Z ; CVTInfo::TradeSetItem
  00118	5f		 pop	 edi
  00119	5e		 pop	 esi

; 247  : 	return 0;

  0011a	33 c0		 xor	 eax, eax
  0011c	5b		 pop	 ebx

; 248  : }

  0011d	c2 0c 00	 ret	 12			; 0000000cH
$L253102:
  00120	5f		 pop	 edi
  00121	5e		 pop	 esi

; 221  : 		return (DWORD)TID_GAME_CANNOTTRADE_ITEM;

  00122	b8 fc 0b 00 00	 mov	 eax, 3068		; 00000bfcH
  00127	5b		 pop	 ebx

; 248  : }

  00128	c2 0c 00	 ret	 12			; 0000000cH
?TradeSetItem2@CVTInfo@@QAEKEEAAF@Z ENDP		; CVTInfo::TradeSetItem2
_TEXT	ENDS
PUBLIC	?CheckTradeGold@@YAHPAVCMover@@HH@Z		; CheckTradeGold
; Function compile flags: /Ogty
;	COMDAT ?CheckTradeGold@@YAHPAVCMover@@HH@Z
_TEXT	SEGMENT
_pMover$ = 8						; size = 4
_nMinus$ = 12						; size = 4
_nPlus$ = 16						; size = 4
?CheckTradeGold@@YAHPAVCMover@@HH@Z PROC NEAR		; CheckTradeGold, COMDAT

; 327  : 	if( nMinus >= 0 )

  00000	8b 4c 24 08	 mov	 ecx, DWORD PTR _nMinus$[esp-4]
  00004	85 c9		 test	 ecx, ecx
  00006	7c 2f		 jl	 SHORT $L253181

; 328  : 	{
; 329  : 		if( pMover->GetGold() >= nMinus )

  00008	8b 44 24 04	 mov	 eax, DWORD PTR _pMover$[esp-4]
  0000c	8b 80 84 16 00
	00		 mov	 eax, DWORD PTR [eax+5764]
  00012	3b c1		 cmp	 eax, ecx
  00014	7c 21		 jl	 SHORT $L253181

; 330  : 		{
; 331  : 			int nGold = pMover->GetGold() - nMinus;

  00016	2b c1		 sub	 eax, ecx

; 332  : 			int nResult = nGold + nPlus;

  00018	8b 4c 24 0c	 mov	 ecx, DWORD PTR _nPlus$[esp-4]

; 333  : 			if( nPlus >= 0 )

  0001c	85 c9		 test	 ecx, ecx
  0001e	8d 14 08	 lea	 edx, DWORD PTR [eax+ecx]
  00021	7c 0a		 jl	 SHORT $L253178

; 334  : 			{
; 335  : 				if( nResult >= nGold )	// overflow ?

  00023	3b d0		 cmp	 edx, eax
  00025	7c 10		 jl	 SHORT $L253181

; 336  : 					return TRUE;

  00027	b8 01 00 00 00	 mov	 eax, 1

; 348  : }

  0002c	c3		 ret	 0
$L253178:

; 337  : 			}
; 338  : 			else
; 339  : 			{
; 340  : 				if( nResult >= 0 )		// underflow ?

  0002d	85 d2		 test	 edx, edx
  0002f	7c 06		 jl	 SHORT $L253181

; 341  : 					return TRUE;

  00031	b8 01 00 00 00	 mov	 eax, 1

; 348  : }

  00036	c3		 ret	 0
$L253181:

; 342  : 			}
; 343  : 
; 344  : 		}
; 345  : 	}
; 346  : 
; 347  : 	return FALSE;

  00037	33 c0		 xor	 eax, eax

; 348  : }

  00039	c3		 ret	 0
?CheckTradeGold@@YAHPAVCMover@@HH@Z ENDP		; CheckTradeGold
_TEXT	ENDS
PUBLIC	?VendorClearItem@CVTInfo@@QAEHE@Z		; CVTInfo::VendorClearItem
; Function compile flags: /Ogty
;	COMDAT ?VendorClearItem@CVTInfo@@QAEHE@Z
_TEXT	SEGMENT
_i$ = 8							; size = 1
?VendorClearItem@CVTInfo@@QAEHE@Z PROC NEAR		; CVTInfo::VendorClearItem, COMDAT
; _this$ = ecx

; 537  : 	CItemBase* pItemBase = m_apItem_VT[i];

  00000	0f b6 44 24 04	 movzx	 eax, BYTE PTR _i$[esp-4]
  00005	8d 4c 81 04	 lea	 ecx, DWORD PTR [ecx+eax*4+4]
  00009	8b 01		 mov	 eax, DWORD PTR [ecx]

; 538  : 	if( pItemBase )

  0000b	33 d2		 xor	 edx, edx
  0000d	3b c2		 cmp	 eax, edx
  0000f	74 10		 je	 SHORT $L253264

; 539  : 	{
; 540  : 		pItemBase->SetExtra( 0 );

  00011	89 50 10	 mov	 DWORD PTR [eax+16], edx

; 541  : 		pItemBase->m_nCost = 0;

  00014	89 50 34	 mov	 DWORD PTR [eax+52], edx

; 542  : 		m_apItem_VT[i]     = NULL;

  00017	89 11		 mov	 DWORD PTR [ecx], edx

; 543  : 		return TRUE;

  00019	b8 01 00 00 00	 mov	 eax, 1

; 548  : 	}
; 549  : }

  0001e	c2 04 00	 ret	 4
$L253264:

; 544  : 	}
; 545  : 	else
; 546  : 	{
; 547  : 		return FALSE;

  00021	33 c0		 xor	 eax, eax

; 548  : 	}
; 549  : }

  00023	c2 04 00	 ret	 4
?VendorClearItem@CVTInfo@@QAEHE@Z ENDP			; CVTInfo::VendorClearItem
_TEXT	ENDS
PUBLIC	?VendorSetItem@CVTInfo@@QAEXEEFH@Z		; CVTInfo::VendorSetItem
; Function compile flags: /Ogty
;	COMDAT ?VendorSetItem@CVTInfo@@QAEXEEFH@Z
_TEXT	SEGMENT
_nId$ = 8						; size = 1
_i$ = 12						; size = 1
_nNum$ = 16						; size = 2
_nCost$ = 20						; size = 4
?VendorSetItem@CVTInfo@@QAEXEEFH@Z PROC NEAR		; CVTInfo::VendorSetItem, COMDAT
; _this$ = ecx

; 554  : 	CItemBase* pItemBase = m_pOwner->GetItemId( nId );

  00000	0f b6 44 24 04	 movzx	 eax, BYTE PTR _nId$[esp-4]
  00005	56		 push	 esi
  00006	8b f1		 mov	 esi, ecx
  00008	8b 8e 80 00 00
	00		 mov	 ecx, DWORD PTR [esi+128]
  0000e	50		 push	 eax
  0000f	e8 00 00 00 00	 call	 ?GetItemId@CMover@@QAEPAVCItemBase@@K@Z ; CMover::GetItemId

; 555  : 	if( pItemBase )

  00014	85 c0		 test	 eax, eax
  00016	74 18		 je	 SHORT $L253274

; 556  : 	{
; 557  : 		m_apItem_VT[i] = pItemBase;

  00018	0f b6 4c 24 0c	 movzx	 ecx, BYTE PTR _i$[esp]

; 558  : 		pItemBase->SetExtra( nNum );

  0001d	0f bf 54 24 10	 movsx	 edx, WORD PTR _nNum$[esp]
  00022	89 44 8e 04	 mov	 DWORD PTR [esi+ecx*4+4], eax

; 559  : 		pItemBase->m_nCost = nCost;

  00026	8b 4c 24 14	 mov	 ecx, DWORD PTR _nCost$[esp]
  0002a	89 50 10	 mov	 DWORD PTR [eax+16], edx
  0002d	89 48 34	 mov	 DWORD PTR [eax+52], ecx
$L253274:
  00030	5e		 pop	 esi

; 560  : 	}
; 561  : }

  00031	c2 10 00	 ret	 16			; 00000010H
?VendorSetItem@CVTInfo@@QAEXEEFH@Z ENDP			; CVTInfo::VendorSetItem
_TEXT	ENDS
PUBLIC	?VendorItemNum@CVTInfo@@QAEXEF@Z		; CVTInfo::VendorItemNum
; Function compile flags: /Ogty
;	COMDAT ?VendorItemNum@CVTInfo@@QAEXEF@Z
_TEXT	SEGMENT
_i$ = 8							; size = 1
_nNum$ = 12						; size = 2
?VendorItemNum@CVTInfo@@QAEXEF@Z PROC NEAR		; CVTInfo::VendorItemNum, COMDAT
; _this$ = ecx

; 567  : 	CItemBase* pItemBase = m_apItem_VT[i];

  00000	0f b6 44 24 04	 movzx	 eax, BYTE PTR _i$[esp-4]
  00005	8d 4c 81 04	 lea	 ecx, DWORD PTR [ecx+eax*4+4]
  00009	8b 01		 mov	 eax, DWORD PTR [ecx]

; 568  : 	if( pItemBase )

  0000b	85 c0		 test	 eax, eax
  0000d	74 18		 je	 SHORT $L253282

; 569  : 	{
; 570  : 		pItemBase->SetExtra( nNum );

  0000f	66 8b 54 24 08	 mov	 dx, WORD PTR _nNum$[esp-4]

; 571  : 		if( nNum == 0 )

  00014	66 85 d2	 test	 dx, dx
  00017	56		 push	 esi
  00018	0f bf f2	 movsx	 esi, dx
  0001b	89 70 10	 mov	 DWORD PTR [eax+16], esi
  0001e	5e		 pop	 esi
  0001f	75 06		 jne	 SHORT $L253282

; 572  : 		{
; 573  : 		#ifdef __CLIENT
; 574  : 			if( m_pOwner->IsActiveMover() == FALSE )
; 575  : 				SAFE_DELETE( m_apItem_VT[i] );
; 576  : 		#endif
; 577  : 			m_apItem_VT[i] = NULL;

  00021	c7 01 00 00 00
	00		 mov	 DWORD PTR [ecx], 0
$L253282:

; 578  : 		}
; 579  : 	}
; 580  : }

  00027	c2 08 00	 ret	 8
?VendorItemNum@CVTInfo@@QAEXEF@Z ENDP			; CVTInfo::VendorItemNum
_TEXT	ENDS
PUBLIC	?VendorSellItem@CVTInfo@@QAEHPAVCMover@@EKFAAUVENDOR_SELL_RESULT@@@Z ; CVTInfo::VendorSellItem
EXTRN	?g_UserMng@@3VCUserMng@@A:BYTE			; g_UserMng
EXTRN	__except_list:DWORD
EXTRN	___security_cookie:DWORD
EXTRN	@__security_check_cookie@4:NEAR
EXTRN	__fltused:NEAR
EXTRN	___CxxFrameHandler:NEAR
EXTRN	?CreateItem@CMover@@QAEHPAVCItemBase@@PAEPAFE@Z:NEAR ; CMover::CreateItem
EXTRN	?RemoveItem@CMover@@QAEXEF@Z:NEAR		; CMover::RemoveItem
EXTRN	?GetName@CMover@@QAEPBDH@Z:NEAR			; CMover::GetName
EXTRN	??0CItemElem@@QAE@XZ:NEAR			; CItemElem::CItemElem
EXTRN	?AddPVendorItemNum@CUserMng@@QAEXPAVCUser@@EFPBD@Z:NEAR ; CUserMng::AddPVendorItemNum
;	COMDAT xdata$x
; File c:\documents and settings\test\mes documents\source\virtuos_v17\build\program\_common\item.h
xdata$x	SEGMENT
$T258128 DD	0ffffffffH
	DD	FLAT:$L258080
$T258117 DD	019930520H
	DD	01H
	DD	FLAT:$T258128
	DD	2 DUP(00H)
	DD	2 DUP(00H)
; Function compile flags: /Ogty
; File c:\documents and settings\test\mes documents\source\virtuos_v17\build\program\_common\moveritem.cpp
xdata$x	ENDS
;	COMDAT ?VendorSellItem@CVTInfo@@QAEHPAVCMover@@EKFAAUVENDOR_SELL_RESULT@@@Z
_TEXT	SEGMENT
$T258112 = -220						; size = 4
tv315 = -216						; size = 4
_nGold$258100 = -216					; size = 4
tv251 = -212						; size = 4
tv235 = -208						; size = 4
$T258111 = -204						; size = 4
_itemElem$ = -200					; size = 184
__$ArrayPad$ = -16					; size = 4
__$EHRec$ = -12						; size = 12
__$ReturnAddr$ = 4					; size = 4
_pBuyer$ = 8						; size = 4
_i$ = 12						; size = 1
_dwItemId$ = 16						; size = 4
_nNum$ = 20						; size = 2
_result$ = 24						; size = 4
?VendorSellItem@CVTInfo@@QAEHPAVCMover@@EKFAAUVENDOR_SELL_RESULT@@@Z PROC NEAR ; CVTInfo::VendorSellItem, COMDAT
; _this$ = ecx

; 638  : {

  00000	6a ff		 push	 -1
  00002	68 00 00 00 00	 push	 __ehhandler$?VendorSellItem@CVTInfo@@QAEHPAVCMover@@EKFAAUVENDOR_SELL_RESULT@@@Z
  00007	64 a1 00 00 00
	00		 mov	 eax, DWORD PTR fs:__except_list
  0000d	50		 push	 eax
  0000e	64 89 25 00 00
	00 00		 mov	 DWORD PTR fs:__except_list, esp
  00015	81 ec d0 00 00
	00		 sub	 esp, 208		; 000000d0H
  0001b	a1 00 00 00 00	 mov	 eax, DWORD PTR ___security_cookie
  00020	33 c4		 xor	 eax, esp
  00022	89 84 24 cc 00
	00 00		 mov	 DWORD PTR __$ArrayPad$[esp+220], eax

; 688  : 	int nRemain = pItemBase->GetExtra();
; 689  : 	if( nRemain <= 0 )

  00029	8b 84 24 e0 00
	00 00		 mov	 eax, DWORD PTR _pBuyer$[esp+216]
  00030	55		 push	 ebp
  00031	8b ac 24 f4 00
	00 00		 mov	 ebp, DWORD PTR _result$[esp+220]
  00038	89 44 24 04	 mov	 DWORD PTR $T258112[esp+224], eax
  0003c	33 c0		 xor	 eax, eax
  0003e	57		 push	 edi
  0003f	8b f9		 mov	 edi, ecx
  00041	89 85 b8 00 00
	00		 mov	 DWORD PTR [ebp+184], eax
  00047	89 85 bc 00 00
	00		 mov	 DWORD PTR [ebp+188], eax
  0004d	39 87 9c 00 00
	00		 cmp	 DWORD PTR [edi+156], eax
  00053	89 7c 24 18	 mov	 DWORD PTR $T258111[esp+228], edi
  00057	0f 84 aa 00 00
	00		 je	 $L253322
$L253323:

; 639  : 	result.nRemain    = 0;
; 640  : 	result.nErrorCode = 0;
; 641  : 
; 642  : 	if( IsVendorOpen() == FALSE )
; 643  : 		return FALSE;
; 644  : 
; 645  : 	CItemBase* pItemBase = m_apItem_VT[i];

  0005d	0f b6 8c 24 ec
	00 00 00	 movzx	 ecx, BYTE PTR _i$[esp+224]
  00065	8d 44 8f 04	 lea	 eax, DWORD PTR [edi+ecx*4+4]
  00069	56		 push	 esi
  0006a	8b 30		 mov	 esi, DWORD PTR [eax]

; 646  : 	if( IsUsingItem( pItemBase ) == FALSE || pItemBase->m_dwItemId != dwItemId )

  0006c	56		 push	 esi
  0006d	89 44 24 1c	 mov	 DWORD PTR tv235[esp+236], eax
  00071	e8 00 00 00 00	 call	 ?IsUsingItem@@YAHPAVCItemBase@@@Z ; IsUsingItem
  00076	83 c4 04	 add	 esp, 4
  00079	85 c0		 test	 eax, eax
  0007b	0f 84 d5 01 00
	00		 je	 $L253326
  00081	8b 56 0c	 mov	 edx, DWORD PTR [esi+12]
  00084	3b 94 24 f4 00
	00 00		 cmp	 edx, DWORD PTR _dwItemId$[esp+228]
  0008b	0f 85 c5 01 00
	00		 jne	 $L253326
  00091	53		 push	 ebx

; 648  : 
; 649  : 	if( nNum < 1 )

  00092	8b 9c 24 fc 00
	00 00		 mov	 ebx, DWORD PTR _nNum$[esp+232]
  00099	66 83 fb 01	 cmp	 bx, 1
  0009d	7d 12		 jge	 SHORT $L253327

; 650  : 		nNum = 1;

  0009f	c7 84 24 fc 00
	00 00 01 00 00
	00		 mov	 DWORD PTR _nNum$[esp+232], 1
  000aa	8b 9c 24 fc 00
	00 00		 mov	 ebx, DWORD PTR _nNum$[esp+232]
$L253327:

; 651  : 	if( nNum > pItemBase->GetExtra() )

  000b1	8b 46 10	 mov	 eax, DWORD PTR [esi+16]
  000b4	0f bf cb	 movsx	 ecx, bx
  000b7	3b c8		 cmp	 ecx, eax
  000b9	7e 09		 jle	 SHORT $L253328

; 652  : 		nNum = (short)pItemBase->GetExtra();

  000bb	89 84 24 fc 00
	00 00		 mov	 DWORD PTR _nNum$[esp+232], eax
  000c2	8b d8		 mov	 ebx, eax
$L253328:

; 653  : 
; 654  : //	06.10.26
; 655  : 	if( pItemBase->m_nCost > 0 && (float)pBuyer->GetGold() < (float)nNum * (float)pItemBase->m_nCost )

  000c4	8b 46 34	 mov	 eax, DWORD PTR [esi+52]
  000c7	85 c0		 test	 eax, eax
  000c9	89 44 24 18	 mov	 DWORD PTR tv251[esp+236], eax
  000cd	7e 5f		 jle	 SHORT $L253333
  000cf	8b 54 24 10	 mov	 edx, DWORD PTR $T258112[esp+236]
  000d3	8b 82 84 16 00
	00		 mov	 eax, DWORD PTR [edx+5764]
  000d9	89 44 24 14	 mov	 DWORD PTR _nGold$258100[esp+236], eax
  000dd	db 44 24 14	 fild	 DWORD PTR _nGold$258100[esp+236]
  000e1	0f bf cb	 movsx	 ecx, bx
  000e4	db 44 24 18	 fild	 DWORD PTR tv251[esp+236]
  000e8	89 4c 24 14	 mov	 DWORD PTR tv315[esp+236], ecx
  000ec	da 4c 24 14	 fimul	 DWORD PTR tv315[esp+236]
  000f0	de d9		 fcompp
  000f2	df e0		 fnstsw	 ax
  000f4	f6 c4 41	 test	 ah, 65			; 00000041H
  000f7	75 35		 jne	 SHORT $L253333
$L258125:

; 656  : 	{
; 657  : #if __VER >= 8 // __S8_VENDOR_REVISION
; 658  : 		result.nErrorCode = TID_GAME_LACKMONEY;

  000f9	c7 85 bc 00 00
	00 71 02 00 00	 mov	 DWORD PTR [ebp+188], 625 ; 00000271H
$L258126:

; 677  : 	{
; 678  : 		result.nErrorCode = TID_GAME_LACKSPACE;
; 679  : 		return FALSE;

  00103	33 c0		 xor	 eax, eax
$L258123:
  00105	5b		 pop	 ebx
$L258122:
  00106	5e		 pop	 esi
$L253322:

; 704  : }

  00107	8b 8c 24 d8 00
	00 00		 mov	 ecx, DWORD PTR __$EHRec$[esp+228]
  0010e	5f		 pop	 edi
  0010f	64 89 0d 00 00
	00 00		 mov	 DWORD PTR fs:__except_list, ecx
  00116	8b 8c 24 d0 00
	00 00		 mov	 ecx, DWORD PTR __$ArrayPad$[esp+224]
  0011d	5d		 pop	 ebp
  0011e	33 cc		 xor	 ecx, esp
  00120	e8 00 00 00 00	 call	 @__security_check_cookie@4
  00125	81 c4 dc 00 00
	00		 add	 esp, 220		; 000000dcH
  0012b	c2 14 00	 ret	 20			; 00000014H
$L253333:

; 659  : 		return FALSE;
; 660  : #else // __VER >= 8 // __S8_VENDOR_REVISION
; 661  : 		nNum = (short)( pBuyer->GetGold() / pItemBase->m_nCost );
; 662  : #endif // __VER >= 8 // __S8_VENDOR_REVISION
; 663  : 	}
; 664  : 	
; 665  : 	if( nNum == 0 )

  0012e	66 85 db	 test	 bx, bx

; 666  : 	{
; 667  : 		result.nErrorCode = TID_GAME_LACKMONEY;
; 668  : 		return FALSE;

  00131	74 c6		 je	 SHORT $L258125

; 669  : 	}
; 670  : 
; 671  : 	CItemElem* pItemElem = (CItemElem*)pItemBase;
; 672  : 	CItemElem itemElem;

  00133	8d 4c 24 24	 lea	 ecx, DWORD PTR _itemElem$[esp+236]
  00137	e8 00 00 00 00	 call	 ??0CItemElem@@QAE@XZ	; CItemElem::CItemElem

; 673  : 	itemElem	= *pItemElem;

  0013c	8b 54 24 24	 mov	 edx, DWORD PTR _itemElem$[esp+236]
  00140	56		 push	 esi
  00141	8d 4c 24 28	 lea	 ecx, DWORD PTR _itemElem$[esp+240]
  00145	c7 84 24 ec 00
	00 00 00 00 00
	00		 mov	 DWORD PTR __$EHRec$[esp+248], 0
  00150	ff 52 10	 call	 DWORD PTR [edx+16]

; 674  : 	itemElem.m_nItemNum	 = nNum;
; 675  : 
; 676  : 	if( pBuyer->CreateItem( &itemElem ) == FALSE )

  00153	8b 4c 24 10	 mov	 ecx, DWORD PTR $T258112[esp+236]
  00157	6a 00		 push	 0
  00159	6a 00		 push	 0
  0015b	6a 00		 push	 0
  0015d	8d 44 24 30	 lea	 eax, DWORD PTR _itemElem$[esp+248]
  00161	50		 push	 eax
  00162	66 89 9c 24 b4
	00 00 00	 mov	 WORD PTR _itemElem$[esp+380], bx
  0016a	e8 00 00 00 00	 call	 ?CreateItem@CMover@@QAEHPAVCItemBase@@PAEPAFE@Z ; CMover::CreateItem
  0016f	85 c0		 test	 eax, eax
  00171	75 23		 jne	 SHORT $L253338

; 677  : 	{
; 678  : 		result.nErrorCode = TID_GAME_LACKSPACE;
; 679  : 		return FALSE;

  00173	8d 4c 24 24	 lea	 ecx, DWORD PTR _itemElem$[esp+236]
  00177	c7 85 bc 00 00
	00 72 02 00 00	 mov	 DWORD PTR [ebp+188], 626 ; 00000272H
  00181	c7 84 24 e8 00
	00 00 ff ff ff
	ff		 mov	 DWORD PTR __$EHRec$[esp+244], -1
  0018c	e8 00 00 00 00	 call	 ??1CItemElem@@UAE@XZ	; CItemElem::~CItemElem
  00191	e9 6d ff ff ff	 jmp	 $L258126
$L253338:

; 680  : 	}
; 681  : 
; 682  : 	// CItemElem   m_nCost  .
; 683  : 	int nCost	= pItemBase->m_nCost;

  00196	8b 46 34	 mov	 eax, DWORD PTR [esi+52]

; 684  : 	pBuyer->AddGold( -( pItemBase->m_nCost * nNum ) );

  00199	8b 4c 24 10	 mov	 ecx, DWORD PTR $T258112[esp+236]
  0019d	0f bf db	 movsx	 ebx, bx
  001a0	89 44 24 18	 mov	 DWORD PTR tv251[esp+236], eax
  001a4	0f af c3	 imul	 eax, ebx
  001a7	6a 01		 push	 1
  001a9	f7 d8		 neg	 eax
  001ab	50		 push	 eax
  001ac	e8 00 00 00 00	 call	 ?AddGold@CMover@@QAEHHH@Z ; CMover::AddGold

; 685  : 	m_pOwner->AddGold( pItemBase->m_nCost * nNum );

  001b1	8b 4e 34	 mov	 ecx, DWORD PTR [esi+52]
  001b4	0f af cb	 imul	 ecx, ebx
  001b7	6a 01		 push	 1
  001b9	51		 push	 ecx
  001ba	8b 8f 80 00 00
	00		 mov	 ecx, DWORD PTR [edi+128]
  001c0	e8 00 00 00 00	 call	 ?AddGold@CMover@@QAEHHH@Z ; CMover::AddGold

; 686  : 
; 687  : 	pItemBase->SetExtra( pItemBase->GetExtra() - nNum );

  001c5	8b 7e 10	 mov	 edi, DWORD PTR [esi+16]
  001c8	2b fb		 sub	 edi, ebx

; 688  : 	int nRemain = pItemBase->GetExtra();
; 689  : 	if( nRemain <= 0 )

  001ca	85 ff		 test	 edi, edi
  001cc	89 7e 10	 mov	 DWORD PTR [esi+16], edi
  001cf	7f 0a		 jg	 SHORT $L253342

; 690  : 		m_apItem_VT[i] = NULL;

  001d1	8b 54 24 1c	 mov	 edx, DWORD PTR tv235[esp+236]
  001d5	c7 02 00 00 00
	00		 mov	 DWORD PTR [edx], 0
$L253342:

; 691  : 
; 692  : #if __VER >= 11 // __MOD_VENDOR
; 693  : #ifdef __WORLDSERVER
; 694  : 	g_UserMng.AddPVendorItemNum( (CUser*)m_pOwner, i, nRemain, pBuyer->GetName() );

  001db	8b 4c 24 10	 mov	 ecx, DWORD PTR $T258112[esp+236]
  001df	6a 00		 push	 0
  001e1	e8 00 00 00 00	 call	 ?GetName@CMover@@QAEPBDH@Z ; CMover::GetName
  001e6	8b 5c 24 20	 mov	 ebx, DWORD PTR $T258111[esp+236]
  001ea	8b 8b 80 00 00
	00		 mov	 ecx, DWORD PTR [ebx+128]
  001f0	50		 push	 eax
  001f1	8b 84 24 f8 00
	00 00		 mov	 eax, DWORD PTR _i$[esp+236]
  001f8	57		 push	 edi
  001f9	50		 push	 eax
  001fa	51		 push	 ecx
  001fb	b9 00 00 00 00	 mov	 ecx, OFFSET FLAT:?g_UserMng@@3VCUserMng@@A
  00200	e8 00 00 00 00	 call	 ?AddPVendorItemNum@CUserMng@@QAEXPAVCUser@@EFPBD@Z ; CUserMng::AddPVendorItemNum

; 695  : #endif	// __WORLDSERVER
; 696  : #endif	// __MOD_VENDOR
; 697  : 
; 698  : 	m_pOwner->RemoveItem( (BYTE)pItemBase->m_dwObjId, nNum );

  00205	8b 94 24 fc 00
	00 00		 mov	 edx, DWORD PTR _nNum$[esp+232]
  0020c	8b 8b 80 00 00
	00		 mov	 ecx, DWORD PTR [ebx+128]
  00212	33 c0		 xor	 eax, eax
  00214	8a 46 04	 mov	 al, BYTE PTR [esi+4]
  00217	52		 push	 edx
  00218	50		 push	 eax
  00219	e8 00 00 00 00	 call	 ?RemoveItem@CMover@@QAEXEF@Z ; CMover::RemoveItem

; 699  : 
; 700  : 	result.item = itemElem;

  0021e	8b 55 00	 mov	 edx, DWORD PTR [ebp]
  00221	8d 44 24 24	 lea	 eax, DWORD PTR _itemElem$[esp+236]
  00225	50		 push	 eax
  00226	8b cd		 mov	 ecx, ebp
  00228	ff 52 10	 call	 DWORD PTR [edx+16]

; 701  : 	result.item.m_nCost	= nCost;

  0022b	8b 4c 24 18	 mov	 ecx, DWORD PTR tv251[esp+236]
  0022f	89 4d 34	 mov	 DWORD PTR [ebp+52], ecx

; 702  : 	result.nRemain = nRemain;
; 703  : 	return TRUE;

  00232	8d 4c 24 24	 lea	 ecx, DWORD PTR _itemElem$[esp+236]
  00236	89 bd b8 00 00
	00		 mov	 DWORD PTR [ebp+184], edi
  0023c	c7 84 24 e8 00
	00 00 ff ff ff
	ff		 mov	 DWORD PTR __$EHRec$[esp+244], -1
  00247	e8 00 00 00 00	 call	 ??1CItemElem@@UAE@XZ	; CItemElem::~CItemElem
  0024c	b8 01 00 00 00	 mov	 eax, 1
  00251	e9 af fe ff ff	 jmp	 $L258123
$L253326:

; 647  : 		return FALSE;

  00256	33 c0		 xor	 eax, eax
  00258	e9 a9 fe ff ff	 jmp	 $L258122
_TEXT	ENDS
;	COMDAT text$x
text$x	SEGMENT
$L258080:
  00000	8d 8d 38 ff ff
	ff		 lea	 ecx, DWORD PTR _itemElem$[ebp]
  00006	e9 00 00 00 00	 jmp	 ??1CItemElem@@UAE@XZ	; CItemElem::~CItemElem
__ehhandler$?VendorSellItem@CVTInfo@@QAEHPAVCMover@@EKFAAUVENDOR_SELL_RESULT@@@Z:
  0000b	b8 00 00 00 00	 mov	 eax, OFFSET FLAT:$T258117
  00010	e9 00 00 00 00	 jmp	 ___CxxFrameHandler
text$x	ENDS
?VendorSellItem@CVTInfo@@QAEHPAVCMover@@EKFAAUVENDOR_SELL_RESULT@@@Z ENDP ; CVTInfo::VendorSellItem
PUBLIC	?GetCount@?$CItemContainer@VCItemElem@@@@QAEHXZ	; CItemContainer<CItemElem>::GetCount
; Function compile flags: /Ogty
; File c:\documents and settings\test\mes documents\source\virtuos_v17\build\program\_common\item.h
;	COMDAT ?GetCount@?$CItemContainer@VCItemElem@@@@QAEHXZ
_TEXT	SEGMENT
?GetCount@?$CItemContainer@VCItemElem@@@@QAEHXZ PROC NEAR ; CItemContainer<CItemElem>::GetCount, COMDAT
; _this$ = ecx

; 427  : 		{

  00000	56		 push	 esi

; 433  : 			}
; 434  : 			return( nCount );

  00001	8b 71 0c	 mov	 esi, DWORD PTR [ecx+12]
  00004	33 c0		 xor	 eax, eax
  00006	85 f6		 test	 esi, esi
  00008	76 20		 jbe	 SHORT $L253374
  0000a	8b 51 10	 mov	 edx, DWORD PTR [ecx+16]
  0000d	83 c2 08	 add	 edx, 8
  00010	57		 push	 edi
$L253372:
  00011	8b 7a 04	 mov	 edi, DWORD PTR [edx+4]
  00014	85 ff		 test	 edi, edi
  00016	74 08		 je	 SHORT $L253373
  00018	8b 3a		 mov	 edi, DWORD PTR [edx]
  0001a	3b 79 08	 cmp	 edi, DWORD PTR [ecx+8]
  0001d	73 01		 jae	 SHORT $L253373

; 430  : 			{
; 431  : 				if( m_apItem[i].IsEmpty() == FALSE && m_apItem[i].m_dwObjIndex < m_dwIndexNum )
; 432  : 					nCount++;

  0001f	40		 inc	 eax
$L253373:

; 428  : 			int nCount	= 0;
; 429  : 			for( DWORD i = 0; i < m_dwItemMax; i++ )

  00020	81 c2 b8 00 00
	00		 add	 edx, 184		; 000000b8H
  00026	4e		 dec	 esi
  00027	75 e8		 jne	 SHORT $L253372
  00029	5f		 pop	 edi
$L253374:
  0002a	5e		 pop	 esi

; 435  : 		}

  0002b	c3		 ret	 0
?GetCount@?$CItemContainer@VCItemElem@@@@QAEHXZ ENDP	; CItemContainer<CItemElem>::GetCount
_TEXT	ENDS
PUBLIC	?SetItemContainer@?$CItemContainer@VCItemElem@@@@QAEXKKK@Z ; CItemContainer<CItemElem>::SetItemContainer
EXTRN	??_L@YGXPAXIHP6EX0@Z1@Z:NEAR			; `eh vector constructor iterator'
EXTRN	??_U@YAPAXI@Z:NEAR				; operator new[]
;	COMDAT xdata$x
xdata$x	SEGMENT
$T258163 DD	0ffffffffH
	DD	FLAT:$L258159
$T258161 DD	019930520H
	DD	01H
	DD	FLAT:$T258163
	DD	2 DUP(00H)
	DD	2 DUP(00H)
; Function compile flags: /Ogty
xdata$x	ENDS
;	COMDAT ?SetItemContainer@?$CItemContainer@VCItemElem@@@@QAEXKKK@Z
_TEXT	SEGMENT
__$EHRec$ = -12						; size = 12
_dwItemType$ = 8					; size = 4
$T258155 = 12						; size = 4
_dwItemMax$ = 12					; size = 4
_dwExtra$ = 16						; size = 4
?SetItemContainer@?$CItemContainer@VCItemElem@@@@QAEXKKK@Z PROC NEAR ; CItemContainer<CItemElem>::SetItemContainer, COMDAT
; _this$ = ecx

; 500  : {

  00000	64 a1 00 00 00
	00		 mov	 eax, DWORD PTR fs:__except_list
  00006	6a ff		 push	 -1
  00008	68 00 00 00 00	 push	 __ehhandler$?SetItemContainer@?$CItemContainer@VCItemElem@@@@QAEXKKK@Z
  0000d	50		 push	 eax

; 501  : 	m_dwIndexNum = dwItemMax;

  0000e	8b 44 24 14	 mov	 eax, DWORD PTR _dwItemMax$[esp+8]
  00012	64 89 25 00 00
	00 00		 mov	 DWORD PTR fs:__except_list, esp
  00019	53		 push	 ebx
  0001a	56		 push	 esi
  0001b	8b f1		 mov	 esi, ecx

; 502  : 	m_dwItemMax = dwItemMax;
; 503  : 	if( dwExtra != NULL_ID )

  0001d	8b 4c 24 20	 mov	 ecx, DWORD PTR _dwExtra$[esp+16]
  00021	83 f9 ff	 cmp	 ecx, -1
  00024	57		 push	 edi
  00025	89 46 08	 mov	 DWORD PTR [esi+8], eax
  00028	89 46 0c	 mov	 DWORD PTR [esi+12], eax
  0002b	74 05		 je	 SHORT $L255463

; 504  : 		m_dwItemMax += dwExtra;

  0002d	03 c1		 add	 eax, ecx
  0002f	89 46 0c	 mov	 DWORD PTR [esi+12], eax
$L255463:

; 505  : 	
; 506  : 	SAFE_DELETE_ARRAY( m_apItem );

  00032	8b 4e 10	 mov	 ecx, DWORD PTR [esi+16]
  00035	33 db		 xor	 ebx, ebx
  00037	3b cb		 cmp	 ecx, ebx
  00039	74 1e		 je	 SHORT $L255464
  0003b	8b 51 fc	 mov	 edx, DWORD PTR [ecx-4]
  0003e	3b d3		 cmp	 edx, ebx
  00040	8d 41 fc	 lea	 eax, DWORD PTR [ecx-4]
  00043	74 08		 je	 SHORT $L258148
  00045	8b 01		 mov	 eax, DWORD PTR [ecx]
  00047	6a 03		 push	 3
  00049	ff 10		 call	 DWORD PTR [eax]
  0004b	eb 09		 jmp	 SHORT $L258149
$L258148:
  0004d	50		 push	 eax
  0004e	e8 00 00 00 00	 call	 ??_V@YAXPAX@Z		; operator delete[]
  00053	83 c4 04	 add	 esp, 4
$L258149:
  00056	89 5e 10	 mov	 DWORD PTR [esi+16], ebx
$L255464:

; 507  : 	SAFE_DELETE_ARRAY( m_apIndex );

  00059	8b 46 04	 mov	 eax, DWORD PTR [esi+4]
  0005c	3b c3		 cmp	 eax, ebx
  0005e	74 0c		 je	 SHORT $L255469
  00060	50		 push	 eax
  00061	e8 00 00 00 00	 call	 ??_V@YAXPAX@Z		; operator delete[]
  00066	83 c4 04	 add	 esp, 4
  00069	89 5e 04	 mov	 DWORD PTR [esi+4], ebx
$L255469:

; 508  : 
; 509  : 	m_apItem = new T[ m_dwItemMax ];

  0006c	8b 7e 0c	 mov	 edi, DWORD PTR [esi+12]
  0006f	8b cf		 mov	 ecx, edi
  00071	69 c9 b8 00 00
	00		 imul	 ecx, 184		; 000000b8H
  00077	83 c1 04	 add	 ecx, 4
  0007a	51		 push	 ecx
  0007b	e8 00 00 00 00	 call	 ??_U@YAPAXI@Z		; operator new[]
  00080	83 c4 04	 add	 esp, 4
  00083	89 44 24 20	 mov	 DWORD PTR $T258155[esp+20], eax
  00087	3b c3		 cmp	 eax, ebx
  00089	89 5c 24 14	 mov	 DWORD PTR __$EHRec$[esp+32], ebx
  0008d	74 1b		 je	 SHORT $L258157
  0008f	68 00 00 00 00	 push	 OFFSET FLAT:??1CItemElem@@UAE@XZ ; CItemElem::~CItemElem
  00094	68 00 00 00 00	 push	 OFFSET FLAT:??0CItemElem@@QAE@XZ ; CItemElem::CItemElem
  00099	57		 push	 edi
  0009a	8d 58 04	 lea	 ebx, DWORD PTR [eax+4]
  0009d	68 b8 00 00 00	 push	 184			; 000000b8H
  000a2	53		 push	 ebx
  000a3	89 38		 mov	 DWORD PTR [eax], edi
  000a5	e8 00 00 00 00	 call	 ??_L@YGXPAXIHP6EX0@Z1@Z
$L258157:

; 510  : 	m_apIndex = new DWORD[ m_dwItemMax ];

  000aa	8b 56 0c	 mov	 edx, DWORD PTR [esi+12]
  000ad	c1 e2 02	 shl	 edx, 2
  000b0	52		 push	 edx
  000b1	c7 44 24 18 ff
	ff ff ff	 mov	 DWORD PTR __$EHRec$[esp+36], -1
  000b9	89 5e 10	 mov	 DWORD PTR [esi+16], ebx
  000bc	e8 00 00 00 00	 call	 ??_U@YAPAXI@Z		; operator new[]
  000c1	83 c4 04	 add	 esp, 4

; 511  : 	Clear();

  000c4	8b ce		 mov	 ecx, esi
  000c6	89 46 04	 mov	 DWORD PTR [esi+4], eax
  000c9	e8 00 00 00 00	 call	 ?Clear@?$CItemContainer@VCItemElem@@@@QAEXXZ ; CItemContainer<CItemElem>::Clear

; 512  : }

  000ce	8b 4c 24 0c	 mov	 ecx, DWORD PTR __$EHRec$[esp+24]
  000d2	5f		 pop	 edi
  000d3	5e		 pop	 esi
  000d4	64 89 0d 00 00
	00 00		 mov	 DWORD PTR fs:__except_list, ecx
  000db	5b		 pop	 ebx
  000dc	83 c4 0c	 add	 esp, 12			; 0000000cH
  000df	c2 0c 00	 ret	 12			; 0000000cH
_TEXT	ENDS
;	COMDAT text$x
text$x	SEGMENT
$L258159:
  00000	8b 45 08	 mov	 eax, DWORD PTR $T258155[ebp-4]
  00003	50		 push	 eax
  00004	e8 00 00 00 00	 call	 ??_V@YAXPAX@Z		; operator delete[]
  00009	59		 pop	 ecx
  0000a	c3		 ret	 0
__ehhandler$?SetItemContainer@?$CItemContainer@VCItemElem@@@@QAEXKKK@Z:
  0000b	b8 00 00 00 00	 mov	 eax, OFFSET FLAT:$T258161
  00010	e9 00 00 00 00	 jmp	 ___CxxFrameHandler
text$x	ENDS
?SetItemContainer@?$CItemContainer@VCItemElem@@@@QAEXKKK@Z ENDP ; CItemContainer<CItemElem>::SetItemContainer
PUBLIC	?IsFull@?$CItemContainer@VCItemElem@@@@QAEHPAVCItemElem@@PAUItemProp@@F@Z ; CItemContainer<CItemElem>::IsFull
; Function compile flags: /Ogty
;	COMDAT ?IsFull@?$CItemContainer@VCItemElem@@@@QAEHPAVCItemElem@@PAUItemProp@@F@Z
_TEXT	SEGMENT
_i$256409 = -4						; size = 4
_pElem$ = 8						; size = 4
_pItemProp$ = 12					; size = 4
tv285 = 16						; size = 4
_nNum$ = 16						; size = 2
?IsFull@?$CItemContainer@VCItemElem@@@@QAEHPAVCItemElem@@PAUItemProp@@F@Z PROC NEAR ; CItemContainer<CItemElem>::IsFull, COMDAT
; _this$ = ecx

; 631  : {

  00000	51		 push	 ecx

; 632  : 	int nId;
; 633  : 	short nNumtmp	= nNum;
; 634  : 	CItemElem* pElemtmp;
; 635  : 	for( DWORD i = 0; i < m_dwIndexNum; i++ )

  00001	8b 41 08	 mov	 eax, DWORD PTR [ecx+8]
  00004	85 c0		 test	 eax, eax
  00006	53		 push	 ebx
  00007	55		 push	 ebp
  00008	56		 push	 esi
  00009	8b 74 24 1c	 mov	 esi, DWORD PTR _nNum$[esp+12]
  0000d	57		 push	 edi
  0000e	c7 44 24 10 00
	00 00 00	 mov	 DWORD PTR _i$256409[esp+20], 0
  00016	0f 86 a8 00 00
	00		 jbe	 $L256412
  0001c	8b 41 04	 mov	 eax, DWORD PTR [ecx+4]
  0001f	8b 7c 24 1c	 mov	 edi, DWORD PTR _pItemProp$[esp+16]
  00023	8b 6c 24 18	 mov	 ebp, DWORD PTR _pElem$[esp+16]
  00027	89 44 24 20	 mov	 DWORD PTR tv285[esp+16], eax
  0002b	eb 03 8d 49 00	 npad	 5
$L258175:

; 636  : 	{
; 637  : 		nId	= m_apIndex[i];

  00030	8b 54 24 20	 mov	 edx, DWORD PTR tv285[esp+16]
  00034	8b 02		 mov	 eax, DWORD PTR [edx]

; 638  : 		if( nId < 0 || nId >= (int)( m_dwItemMax ) )

  00036	85 c0		 test	 eax, eax
  00038	7c 6b		 jl	 SHORT $L256411
  0003a	3b 41 0c	 cmp	 eax, DWORD PTR [ecx+12]
  0003d	7d 66		 jge	 SHORT $L256411

; 639  : 			continue;
; 640  : 		pElemtmp	= (CItemElem*)&m_apItem[nId];

  0003f	8b 51 10	 mov	 edx, DWORD PTR [ecx+16]
  00042	69 c0 b8 00 00
	00		 imul	 eax, 184		; 000000b8H
  00048	03 c2		 add	 eax, edx

; 641  : 		if( pElemtmp->IsEmpty() )

  0004a	8b 50 0c	 mov	 edx, DWORD PTR [eax+12]
  0004d	85 d2		 test	 edx, edx
  0004f	75 0f		 jne	 SHORT $L256417

; 642  : 		{
; 643  : 			if( nNumtmp > (short)pItemProp->dwPackMax )
; 644  : 				nNumtmp		-= (short)pItemProp->dwPackMax;

  00051	33 c0		 xor	 eax, eax
  00053	66 8b 47 6c	 mov	 ax, WORD PTR [edi+108]
  00057	66 3b f0	 cmp	 si, ax
  0005a	7e 75		 jle	 SHORT $L256425
  0005c	2b f0		 sub	 esi, eax

; 645  : 			else
; 646  : 				return FALSE;
; 647  : 		}
; 648  : 		else if( pElem->m_dwItemId == pElemtmp->m_dwItemId

  0005e	eb 45		 jmp	 SHORT $L256411
$L256417:

; 649  : 				&& pElem->m_byFlag == pElemtmp->m_byFlag && pElem->m_bCharged == pElemtmp->m_bCharged )

  00060	39 55 0c	 cmp	 DWORD PTR [ebp+12], edx
  00063	75 40		 jne	 SHORT $L256411
  00065	8a 95 82 00 00
	00		 mov	 dl, BYTE PTR [ebp+130]
  0006b	3a 90 82 00 00
	00		 cmp	 dl, BYTE PTR [eax+130]
  00071	75 32		 jne	 SHORT $L256411
  00073	8b 95 ac 00 00
	00		 mov	 edx, DWORD PTR [ebp+172]
  00079	3b 90 ac 00 00
	00		 cmp	 edx, DWORD PTR [eax+172]
  0007f	75 24		 jne	 SHORT $L256411

; 650  : 		{
; 651  : 			if( pElemtmp->m_nItemNum + nNumtmp > (short)pItemProp->dwPackMax )

  00081	0f bf 80 80 00
	00 00		 movsx	 eax, WORD PTR [eax+128]
  00088	0f bf ee	 movsx	 ebp, si
  0008b	0f bf d8	 movsx	 ebx, ax

; 652  : 				nNumtmp	-= ( (short)pItemProp->dwPackMax - pElemtmp->m_nItemNum );

  0008e	33 d2		 xor	 edx, edx
  00090	66 8b 57 6c	 mov	 dx, WORD PTR [edi+108]
  00094	03 dd		 add	 ebx, ebp
  00096	0f bf ea	 movsx	 ebp, dx
  00099	3b dd		 cmp	 ebx, ebp
  0009b	7e 34		 jle	 SHORT $L256425
  0009d	8b 6c 24 18	 mov	 ebp, DWORD PTR _pElem$[esp+16]
  000a1	2b c2		 sub	 eax, edx
  000a3	03 f0		 add	 esi, eax
$L256411:
  000a5	8b 44 24 10	 mov	 eax, DWORD PTR _i$256409[esp+20]
  000a9	8b 5c 24 20	 mov	 ebx, DWORD PTR tv285[esp+16]
  000ad	8b 51 08	 mov	 edx, DWORD PTR [ecx+8]
  000b0	40		 inc	 eax
  000b1	83 c3 04	 add	 ebx, 4
  000b4	3b c2		 cmp	 eax, edx
  000b6	89 44 24 10	 mov	 DWORD PTR _i$256409[esp+20], eax
  000ba	89 5c 24 20	 mov	 DWORD PTR tv285[esp+16], ebx
  000be	0f 82 6c ff ff
	ff		 jb	 $L258175
$L256412:
  000c4	5f		 pop	 edi
  000c5	5e		 pop	 esi
  000c6	5d		 pop	 ebp

; 655  : 		}
; 656  : 	}
; 657  : 
; 658  : 	return TRUE;

  000c7	b8 01 00 00 00	 mov	 eax, 1
  000cc	5b		 pop	 ebx

; 659  : }

  000cd	59		 pop	 ecx
  000ce	c2 0c 00	 ret	 12			; 0000000cH
$L256425:
  000d1	5f		 pop	 edi
  000d2	5e		 pop	 esi
  000d3	5d		 pop	 ebp

; 653  : 			else
; 654  : 				return FALSE;

  000d4	33 c0		 xor	 eax, eax
  000d6	5b		 pop	 ebx

; 659  : }

  000d7	59		 pop	 ecx
  000d8	c2 0c 00	 ret	 12			; 0000000cH
?IsFull@?$CItemContainer@VCItemElem@@@@QAEHPAVCItemElem@@PAUItemProp@@F@Z ENDP ; CItemContainer<CItemElem>::IsFull
_TEXT	ENDS
PUBLIC	??_C@_0BI@BEIFNGEL@GetItemProp?5range_error?$AA@ ; `string'
PUBLIC	?GetItemProp@CProject@@QAEPAUItemProp@@H@Z	; CProject::GetItemProp
;	COMDAT ??_C@_0BI@BEIFNGEL@GetItemProp?5range_error?$AA@
; File c:\documents and settings\test\mes documents\source\virtuos_v17\build\program\_common\data.h
CONST	SEGMENT
??_C@_0BI@BEIFNGEL@GetItemProp?5range_error?$AA@ DB 'GetItemProp range_er'
	DB	'ror', 00H					; `string'
; Function compile flags: /Ogty
; File c:\documents and settings\test\mes documents\source\virtuos_v17\build\program\_common\project.h
CONST	ENDS
;	COMDAT ?GetItemProp@CProject@@QAEPAUItemProp@@H@Z
_TEXT	SEGMENT
_nIndex$ = 8						; size = 4
?GetItemProp@CProject@@QAEPAUItemProp@@H@Z PROC NEAR	; CProject::GetItemProp, COMDAT
; _this$ = ecx

; 1364 : 	VERIFY_RANGE_ASSERT( nIndex, 0, m_aPropItem.GetSize(), "GetItemProp range_error", NULL );

  00000	8b 44 24 04	 mov	 eax, DWORD PTR _nIndex$[esp-4]
  00004	85 c0		 test	 eax, eax
  00006	7c 1a		 jl	 SHORT $L197914
  00008	8b 91 5c 02 00
	00		 mov	 edx, DWORD PTR [ecx+604]
  0000e	3b c2		 cmp	 eax, edx
  00010	7d 10		 jge	 SHORT $L197914

; 1365 : 	return m_aPropItem.GetAt( nIndex ); 

  00012	3b c2		 cmp	 eax, edx
  00014	73 28		 jae	 SHORT $L258200
  00016	8b 89 4c 02 00
	00		 mov	 ecx, DWORD PTR [ecx+588]
  0001c	8b 04 81	 mov	 eax, DWORD PTR [ecx+eax*4]

; 1366 : }

  0001f	c2 04 00	 ret	 4
$L197914:

; 1364 : 	VERIFY_RANGE_ASSERT( nIndex, 0, m_aPropItem.GetSize(), "GetItemProp range_error", NULL );

  00022	8b 91 5c 02 00
	00		 mov	 edx, DWORD PTR [ecx+604]
  00028	50		 push	 eax
  00029	52		 push	 edx
  0002a	6a 00		 push	 0
  0002c	68 00 00 00 00	 push	 OFFSET FLAT:??_C@_0BI@BEIFNGEL@GetItemProp?5range_error?$AA@
  00031	68 00 00 00 00	 push	 OFFSET FLAT:??_C@_0BM@HMFGHCP@?$CFs?5min?3?$CFd?0?5max?3?$CFd?0?5index?3?$CFd?$AA@
  00036	e8 00 00 00 00	 call	 ?Error@@YAPBDPBDZZ	; Error
  0003b	83 c4 14	 add	 esp, 20			; 00000014H
$L258200:
  0003e	33 c0		 xor	 eax, eax

; 1366 : }

  00040	c2 04 00	 ret	 4
?GetItemProp@CProject@@QAEPAUItemProp@@H@Z ENDP		; CProject::GetItemProp
_TEXT	ENDS
PUBLIC	?GetPropA@CItemElem@@QAEPAUItemProp@@XZ		; CItemElem::GetPropA
; Function compile flags: /Ogty
; File c:\documents and settings\test\mes documents\source\virtuos_v17\build\program\_common\item.h
;	COMDAT ?GetPropA@CItemElem@@QAEPAUItemProp@@XZ
_TEXT	SEGMENT
?GetPropA@CItemElem@@QAEPAUItemProp@@XZ PROC NEAR	; CItemElem::GetPropA, COMDAT
; _this$ = ecx

; 229  : 	ItemProp*	GetProp()	{	return prj.GetItemProp( m_dwItemId );	}

  00000	8b 41 0c	 mov	 eax, DWORD PTR [ecx+12]
  00003	85 c0		 test	 eax, eax
  00005	8b 0d 5c 02 00
	00		 mov	 ecx, DWORD PTR ?prj@@3VCProject@@A+604
  0000b	7c 10		 jl	 SHORT $L258244
  0000d	3b c1		 cmp	 eax, ecx
  0000f	7d 0c		 jge	 SHORT $L258244
  00011	73 20		 jae	 SHORT $L258247
  00013	8b 0d 4c 02 00
	00		 mov	 ecx, DWORD PTR ?prj@@3VCProject@@A+588
  00019	8b 04 81	 mov	 eax, DWORD PTR [ecx+eax*4]
  0001c	c3		 ret	 0
$L258244:
  0001d	50		 push	 eax
  0001e	51		 push	 ecx
  0001f	6a 00		 push	 0
  00021	68 00 00 00 00	 push	 OFFSET FLAT:??_C@_0BI@BEIFNGEL@GetItemProp?5range_error?$AA@
  00026	68 00 00 00 00	 push	 OFFSET FLAT:??_C@_0BM@HMFGHCP@?$CFs?5min?3?$CFd?0?5max?3?$CFd?0?5index?3?$CFd?$AA@
  0002b	e8 00 00 00 00	 call	 ?Error@@YAPBDPBDZZ	; Error
  00030	83 c4 14	 add	 esp, 20			; 00000014H
$L258247:
  00033	33 c0		 xor	 eax, eax
  00035	c3		 ret	 0
?GetPropA@CItemElem@@QAEPAUItemProp@@XZ ENDP		; CItemElem::GetPropA
_TEXT	ENDS
PUBLIC	?IsTransformVisPet@CItemElem@@QAEHXZ		; CItemElem::IsTransformVisPet
; Function compile flags: /Ogty
;	COMDAT ?IsTransformVisPet@CItemElem@@QAEHXZ
_TEXT	SEGMENT
?IsTransformVisPet@CItemElem@@QAEHXZ PROC NEAR		; CItemElem::IsTransformVisPet, COMDAT
; _this$ = ecx

; 280  : 	BOOL	IsTransformVisPet() { return GetProp() && GetProp()->dwItemKind3 == IK3_PET && m_bTranformVisPet; }

  00000	56		 push	 esi
  00001	57		 push	 edi
  00002	8b f9		 mov	 edi, ecx
  00004	8b 47 0c	 mov	 eax, DWORD PTR [edi+12]
  00007	85 c0		 test	 eax, eax
  00009	8b 0d 5c 02 00
	00		 mov	 ecx, DWORD PTR ?prj@@3VCProject@@A+604
  0000f	7c 21		 jl	 SHORT $L258316
  00011	3b c1		 cmp	 eax, ecx
  00013	7d 1d		 jge	 SHORT $L258316
  00015	73 31		 jae	 SHORT $L258251
  00017	8b 35 4c 02 00
	00		 mov	 esi, DWORD PTR ?prj@@3VCProject@@A+588
  0001d	8b 14 86	 mov	 edx, DWORD PTR [esi+eax*4]
  00020	85 d2		 test	 edx, edx
  00022	74 24		 je	 SHORT $L258251
  00024	85 c0		 test	 eax, eax
  00026	7c 25		 jl	 SHORT $L258375
  00028	3b c1		 cmp	 eax, ecx
  0002a	7d 21		 jge	 SHORT $L258375
  0002c	73 35		 jae	 SHORT $L258383
  0002e	8b c2		 mov	 eax, edx
  00030	eb 33		 jmp	 SHORT $L258367
$L258316:
  00032	50		 push	 eax
  00033	51		 push	 ecx
  00034	6a 00		 push	 0
  00036	68 00 00 00 00	 push	 OFFSET FLAT:??_C@_0BI@BEIFNGEL@GetItemProp?5range_error?$AA@
  0003b	68 00 00 00 00	 push	 OFFSET FLAT:??_C@_0BM@HMFGHCP@?$CFs?5min?3?$CFd?0?5max?3?$CFd?0?5index?3?$CFd?$AA@
  00040	e8 00 00 00 00	 call	 ?Error@@YAPBDPBDZZ	; Error
  00045	83 c4 14	 add	 esp, 20			; 00000014H
$L258251:
  00048	5f		 pop	 edi
  00049	33 c0		 xor	 eax, eax
  0004b	5e		 pop	 esi
  0004c	c3		 ret	 0
$L258375:
  0004d	50		 push	 eax
  0004e	51		 push	 ecx
  0004f	6a 00		 push	 0
  00051	68 00 00 00 00	 push	 OFFSET FLAT:??_C@_0BI@BEIFNGEL@GetItemProp?5range_error?$AA@
  00056	68 00 00 00 00	 push	 OFFSET FLAT:??_C@_0BM@HMFGHCP@?$CFs?5min?3?$CFd?0?5max?3?$CFd?0?5index?3?$CFd?$AA@
  0005b	e8 00 00 00 00	 call	 ?Error@@YAPBDPBDZZ	; Error
  00060	83 c4 14	 add	 esp, 20			; 00000014H
$L258383:
  00063	33 c0		 xor	 eax, eax
$L258367:
  00065	83 78 78 64	 cmp	 DWORD PTR [eax+120], 100 ; 00000064H
  00069	75 dd		 jne	 SHORT $L258251
  0006b	8b 87 b4 00 00
	00		 mov	 eax, DWORD PTR [edi+180]
  00071	85 c0		 test	 eax, eax
  00073	74 d3		 je	 SHORT $L258251
  00075	5f		 pop	 edi
  00076	b8 01 00 00 00	 mov	 eax, 1
  0007b	5e		 pop	 esi
  0007c	c3		 ret	 0
?IsTransformVisPet@CItemElem@@QAEHXZ ENDP		; CItemElem::IsTransformVisPet
_TEXT	ENDS
PUBLIC	??6CAr@@QAEAAV0@H@Z				; CAr::operator<<
; Function compile flags: /Ogty
; File c:\documents and settings\test\mes documents\source\virtuos_v17\build\program\_network\misc\include\ar.h
;	COMDAT ??6CAr@@QAEAAV0@H@Z
_TEXT	SEGMENT
_i$ = 8							; size = 4
??6CAr@@QAEAAV0@H@Z PROC NEAR				; CAr::operator<<, COMDAT
; _this$ = ecx

; 99   : 	{ return CAr::operator<<((LONG)i); }

  00000	56		 push	 esi
  00001	6a 04		 push	 4
  00003	8b f1		 mov	 esi, ecx
  00005	e8 00 00 00 00	 call	 ?CheckBuf@CAr@@QAEXI@Z	; CAr::CheckBuf
  0000a	8b 46 08	 mov	 eax, DWORD PTR [esi+8]
  0000d	8b 4c 24 08	 mov	 ecx, DWORD PTR _i$[esp]
  00011	89 08		 mov	 DWORD PTR [eax], ecx
  00013	83 46 08 04	 add	 DWORD PTR [esi+8], 4
  00017	8b c6		 mov	 eax, esi
  00019	5e		 pop	 esi
  0001a	c2 04 00	 ret	 4
??6CAr@@QAEAAV0@H@Z ENDP				; CAr::operator<<
_TEXT	ENDS
PUBLIC	??6CAr@@QAEAAV0@F@Z				; CAr::operator<<
; Function compile flags: /Ogty
;	COMDAT ??6CAr@@QAEAAV0@F@Z
_TEXT	SEGMENT
_w$ = 8							; size = 2
??6CAr@@QAEAAV0@F@Z PROC NEAR				; CAr::operator<<, COMDAT
; _this$ = ecx

; 103  : 	{ return CAr::operator<<((WORD)w); }

  00000	56		 push	 esi
  00001	6a 02		 push	 2
  00003	8b f1		 mov	 esi, ecx
  00005	e8 00 00 00 00	 call	 ?CheckBuf@CAr@@QAEXI@Z	; CAr::CheckBuf
  0000a	8b 46 08	 mov	 eax, DWORD PTR [esi+8]
  0000d	66 8b 4c 24 08	 mov	 cx, WORD PTR _w$[esp]
  00012	66 89 08	 mov	 WORD PTR [eax], cx
  00015	83 46 08 02	 add	 DWORD PTR [esi+8], 2
  00019	8b c6		 mov	 eax, esi
  0001b	5e		 pop	 esi
  0001c	c2 04 00	 ret	 4
??6CAr@@QAEAAV0@F@Z ENDP				; CAr::operator<<
_TEXT	ENDS
PUBLIC	?c_str@?$basic_string@DU?$char_traits@D@std@@V?$allocator@D@2@@std@@QBEPBDXZ ; std::basic_string<char,std::char_traits<char>,std::allocator<char> >::c_str
; Function compile flags: /Ogty
; File c:\program files\microsoft visual studio .net 2003\vc7\include\xstring
;	COMDAT ?c_str@?$basic_string@DU?$char_traits@D@std@@V?$allocator@D@2@@std@@QBEPBDXZ
_TEXT	SEGMENT
?c_str@?$basic_string@DU?$char_traits@D@std@@V?$allocator@D@2@@std@@QBEPBDXZ PROC NEAR ; std::basic_string<char,std::char_traits<char>,std::allocator<char> >::c_str, COMDAT
; _this$ = ecx

; 1094 : 		return (_Myptr());

  00000	83 79 18 10	 cmp	 DWORD PTR [ecx+24], 16	; 00000010H
  00004	72 04		 jb	 SHORT $L258403
  00006	8b 41 04	 mov	 eax, DWORD PTR [ecx+4]

; 1095 : 		}

  00009	c3		 ret	 0

; 1094 : 		return (_Myptr());

$L258403:
  0000a	8d 41 04	 lea	 eax, DWORD PTR [ecx+4]

; 1095 : 		}

  0000d	c3		 ret	 0
?c_str@?$basic_string@DU?$char_traits@D@std@@V?$allocator@D@2@@std@@QBEPBDXZ ENDP ; std::basic_string<char,std::char_traits<char>,std::allocator<char> >::c_str
_TEXT	ENDS
PUBLIC	?_Eos@?$basic_string@DU?$char_traits@D@std@@V?$allocator@D@2@@std@@IAEXI@Z ; std::basic_string<char,std::char_traits<char>,std::allocator<char> >::_Eos
; Function compile flags: /Ogty
;	COMDAT ?_Eos@?$basic_string@DU?$char_traits@D@std@@V?$allocator@D@2@@std@@IAEXI@Z
_TEXT	SEGMENT
__Newsize$ = 8						; size = 4
?_Eos@?$basic_string@DU?$char_traits@D@std@@V?$allocator@D@2@@std@@IAEXI@Z PROC NEAR ; std::basic_string<char,std::char_traits<char>,std::allocator<char> >::_Eos, COMDAT
; _this$ = ecx

; 1475 : 		_Traits::assign(_Myptr()[_Mysize = _Newsize], _Elem());

  00000	83 79 18 10	 cmp	 DWORD PTR [ecx+24], 16	; 00000010H
  00004	8b 44 24 04	 mov	 eax, DWORD PTR __Newsize$[esp-4]
  00008	89 41 14	 mov	 DWORD PTR [ecx+20], eax
  0000b	72 0a		 jb	 SHORT $L258415
  0000d	8b 49 04	 mov	 ecx, DWORD PTR [ecx+4]
  00010	c6 04 01 00	 mov	 BYTE PTR [ecx+eax], 0

; 1476 : 		}

  00014	c2 04 00	 ret	 4

; 1475 : 		_Traits::assign(_Myptr()[_Mysize = _Newsize], _Elem());

$L258415:
  00017	c6 44 01 04 00	 mov	 BYTE PTR [ecx+eax+4], 0

; 1476 : 		}

  0001c	c2 04 00	 ret	 4
?_Eos@?$basic_string@DU?$char_traits@D@std@@V?$allocator@D@2@@std@@IAEXI@Z ENDP ; std::basic_string<char,std::char_traits<char>,std::allocator<char> >::_Eos
_TEXT	ENDS
PUBLIC	?max_size@?$basic_string@DU?$char_traits@D@std@@V?$allocator@D@2@@std@@QBEIXZ ; std::basic_string<char,std::char_traits<char>,std::allocator<char> >::max_size
; Function compile flags: /Ogty
;	COMDAT ?max_size@?$basic_string@DU?$char_traits@D@std@@V?$allocator@D@2@@std@@QBEIXZ
_TEXT	SEGMENT
?max_size@?$basic_string@DU?$char_traits@D@std@@V?$allocator@D@2@@std@@QBEIXZ PROC NEAR ; std::basic_string<char,std::char_traits<char>,std::allocator<char> >::max_size, COMDAT
; _this$ = ecx

; 1114 : 		size_type _Num = _Mybase::_Alval.max_size();
; 1115 : 		return (_Num <= 1 ? 1 : _Num - 1);

  00000	b8 fe ff ff ff	 mov	 eax, -2			; fffffffeH

; 1116 : 		}

  00005	c3		 ret	 0
?max_size@?$basic_string@DU?$char_traits@D@std@@V?$allocator@D@2@@std@@QBEIXZ ENDP ; std::basic_string<char,std::char_traits<char>,std::allocator<char> >::max_size
_TEXT	ENDS
PUBLIC	?allocate@?$allocator@D@std@@QAEPADI@Z		; std::allocator<char>::allocate
; Function compile flags: /Ogty
; File c:\program files\microsoft visual studio .net 2003\vc7\include\xmemory
;	COMDAT ?allocate@?$allocator@D@std@@QAEPADI@Z
_TEXT	SEGMENT
__Count$ = 8						; size = 4
?allocate@?$allocator@D@std@@QAEPADI@Z PROC NEAR	; std::allocator<char>::allocate, COMDAT
; _this$ = ecx

; 137  : 		return (_Allocate(_Count, (pointer)0));

  00000	8b 44 24 04	 mov	 eax, DWORD PTR __Count$[esp-4]
  00004	50		 push	 eax
  00005	e8 00 00 00 00	 call	 ??2@YAPAXI@Z		; operator new
  0000a	83 c4 04	 add	 esp, 4

; 138  : 		}

  0000d	c2 04 00	 ret	 4
?allocate@?$allocator@D@std@@QAEPADI@Z ENDP		; std::allocator<char>::allocate
_TEXT	ENDS
PUBLIC	?GetTitle@CVTInfo@@QAEPBDXZ			; CVTInfo::GetTitle
; Function compile flags: /Ogty
; File c:\documents and settings\test\mes documents\source\virtuos_v17\build\program\_common\moveritem.cpp
;	COMDAT ?GetTitle@CVTInfo@@QAEPBDXZ
_TEXT	SEGMENT
?GetTitle@CVTInfo@@QAEPBDXZ PROC NEAR			; CVTInfo::GetTitle, COMDAT
; _this$ = ecx

; 49   : 	return m_strTitle.c_str();

  00000	83 b9 a0 00 00
	00 10		 cmp	 DWORD PTR [ecx+160], 16	; 00000010H
  00007	72 07		 jb	 SHORT $L258452
  00009	8b 81 8c 00 00
	00		 mov	 eax, DWORD PTR [ecx+140]

; 50   : }

  0000f	c3		 ret	 0

; 49   : 	return m_strTitle.c_str();

$L258452:
  00010	8d 81 8c 00 00
	00		 lea	 eax, DWORD PTR [ecx+140]

; 50   : }

  00016	c3		 ret	 0
?GetTitle@CVTInfo@@QAEPBDXZ ENDP			; CVTInfo::GetTitle
_TEXT	ENDS
PUBLIC	?TradeLog@@YAXAAVCAr@@PAVCItemBase@@F@Z		; TradeLog
EXTRN	?GetAvailLevel@CPet@@QAEEE@Z:NEAR		; CPet::GetAvailLevel
EXTRN	?GetLife@CPet@@QAEGXZ:NEAR			; CPet::GetLife
; Function compile flags: /Ogty
;	COMDAT ?TradeLog@@YAXAAVCAr@@PAVCItemBase@@F@Z
_TEXT	SEGMENT
$T258580 = -8						; size = 8
$T258572 = 8						; size = 4
$T258550 = 8						; size = 4
_ar$ = 8						; size = 4
_pItemBase$ = 12					; size = 4
$T258562 = 16						; size = 4
$T258540 = 16						; size = 4
_i$253137 = 16						; size = 4
_nItemCount$ = 16					; size = 2
?TradeLog@@YAXAAVCAr@@PAVCItemBase@@F@Z PROC NEAR	; TradeLog, COMDAT

; 251  : {

  00000	83 ec 08	 sub	 esp, 8
  00003	53		 push	 ebx
  00004	55		 push	 ebp
  00005	56		 push	 esi

; 252  : 	ar << nItemCount;

  00006	8b 74 24 18	 mov	 esi, DWORD PTR _ar$[esp+16]
  0000a	57		 push	 edi
  0000b	6a 02		 push	 2
  0000d	8b ce		 mov	 ecx, esi
  0000f	e8 00 00 00 00	 call	 ?CheckBuf@CAr@@QAEXI@Z	; CAr::CheckBuf
  00014	8b 46 08	 mov	 eax, DWORD PTR [esi+8]
  00017	66 8b 4c 24 24	 mov	 cx, WORD PTR _nItemCount$[esp+20]

; 253  : 	ar << ( (CItemElem*)pItemBase )->GetAbilityOption();

  0001c	8b 5c 24 20	 mov	 ebx, DWORD PTR _pItemBase$[esp+20]
  00020	66 89 08	 mov	 WORD PTR [eax], cx
  00023	8b 7e 08	 mov	 edi, DWORD PTR [esi+8]
  00026	83 c7 02	 add	 edi, 2
  00029	bd 04 00 00 00	 mov	 ebp, 4
  0002e	89 7e 08	 mov	 DWORD PTR [esi+8], edi
  00031	8b 7b 70	 mov	 edi, DWORD PTR [ebx+112]
  00034	55		 push	 ebp
  00035	8b ce		 mov	 ecx, esi
  00037	e8 00 00 00 00	 call	 ?CheckBuf@CAr@@QAEXI@Z	; CAr::CheckBuf
  0003c	8b 56 08	 mov	 edx, DWORD PTR [esi+8]
  0003f	89 3a		 mov	 DWORD PTR [edx], edi
  00041	01 6e 08	 add	 DWORD PTR [esi+8], ebp

; 254  : 	ar << int(( (CItemElem*)pItemBase )->m_bItemResist);

  00044	0f b6 bb 88 00
	00 00		 movzx	 edi, BYTE PTR [ebx+136]
  0004b	55		 push	 ebp
  0004c	8b ce		 mov	 ecx, esi
  0004e	e8 00 00 00 00	 call	 ?CheckBuf@CAr@@QAEXI@Z	; CAr::CheckBuf
  00053	8b 46 08	 mov	 eax, DWORD PTR [esi+8]
  00056	89 38		 mov	 DWORD PTR [eax], edi
  00058	01 6e 08	 add	 DWORD PTR [esi+8], ebp

; 255  : 	ar << int(( (CItemElem*)pItemBase )->m_nResistAbilityOption);

  0005b	8b bb 8c 00 00
	00		 mov	 edi, DWORD PTR [ebx+140]
  00061	55		 push	 ebp
  00062	8b ce		 mov	 ecx, esi
  00064	e8 00 00 00 00	 call	 ?CheckBuf@CAr@@QAEXI@Z	; CAr::CheckBuf
  00069	8b 4e 08	 mov	 ecx, DWORD PTR [esi+8]
  0006c	89 39		 mov	 DWORD PTR [ecx], edi
  0006e	01 6e 08	 add	 DWORD PTR [esi+8], ebp

; 256  : 	ar << ( (CItemElem*)pItemBase )->m_nHitPoint;

  00071	8b 7b 7c	 mov	 edi, DWORD PTR [ebx+124]
  00074	55		 push	 ebp
  00075	8b ce		 mov	 ecx, esi
  00077	e8 00 00 00 00	 call	 ?CheckBuf@CAr@@QAEXI@Z	; CAr::CheckBuf
  0007c	8b 56 08	 mov	 edx, DWORD PTR [esi+8]
  0007f	89 3a		 mov	 DWORD PTR [edx], edi
  00081	01 6e 08	 add	 DWORD PTR [esi+8], ebp

; 257  : 	ar << ( (CItemElem*)pItemBase )->m_nRepair;

  00084	8b 7b 74	 mov	 edi, DWORD PTR [ebx+116]
  00087	55		 push	 ebp
  00088	8b ce		 mov	 ecx, esi
  0008a	e8 00 00 00 00	 call	 ?CheckBuf@CAr@@QAEXI@Z	; CAr::CheckBuf
  0008f	8b 46 08	 mov	 eax, DWORD PTR [esi+8]
  00092	89 38		 mov	 DWORD PTR [eax], edi
  00094	01 6e 08	 add	 DWORD PTR [esi+8], ebp

; 258  : 	ar << ( (CItemElem*)pItemBase )->m_bCharged;

  00097	8b bb ac 00 00
	00		 mov	 edi, DWORD PTR [ebx+172]
  0009d	55		 push	 ebp
  0009e	8b ce		 mov	 ecx, esi
  000a0	e8 00 00 00 00	 call	 ?CheckBuf@CAr@@QAEXI@Z	; CAr::CheckBuf
  000a5	8b 4e 08	 mov	 ecx, DWORD PTR [esi+8]
  000a8	89 39		 mov	 DWORD PTR [ecx], edi
  000aa	01 6e 08	 add	 DWORD PTR [esi+8], ebp

; 259  : 	ar << ( (CItemElem*)pItemBase )->m_dwKeepTime;

  000ad	8b bb b0 00 00
	00		 mov	 edi, DWORD PTR [ebx+176]
  000b3	55		 push	 ebp
  000b4	8b ce		 mov	 ecx, esi
  000b6	e8 00 00 00 00	 call	 ?CheckBuf@CAr@@QAEXI@Z	; CAr::CheckBuf
  000bb	8b 56 08	 mov	 edx, DWORD PTR [esi+8]
  000be	89 3a		 mov	 DWORD PTR [edx], edi
  000c0	8b 4e 08	 mov	 ecx, DWORD PTR [esi+8]
  000c3	03 cd		 add	 ecx, ebp

; 260  : #if __VER >= 12 // __EXT_PIERCING
; 261  : 	ar << ( (CItemElem*)pItemBase )->GetPiercingSize();

  000c5	8d 7b 3c	 lea	 edi, DWORD PTR [ebx+60]
  000c8	89 4e 08	 mov	 DWORD PTR [esi+8], ecx
  000cb	8b cf		 mov	 ecx, edi
  000cd	e8 00 00 00 00	 call	 ?GetPiercingSize@CPiercing@@QAEHXZ ; CPiercing::GetPiercingSize
  000d2	55		 push	 ebp
  000d3	8b ce		 mov	 ecx, esi
  000d5	89 44 24 28	 mov	 DWORD PTR $T258540[esp+24], eax
  000d9	e8 00 00 00 00	 call	 ?CheckBuf@CAr@@QAEXI@Z	; CAr::CheckBuf
  000de	8b 46 08	 mov	 eax, DWORD PTR [esi+8]
  000e1	8b 4c 24 24	 mov	 ecx, DWORD PTR $T258540[esp+20]
  000e5	89 08		 mov	 DWORD PTR [eax], ecx
  000e7	8b 56 08	 mov	 edx, DWORD PTR [esi+8]
  000ea	03 d5		 add	 edx, ebp

; 262  : 	for( int i=0; i<( (CItemElem*)pItemBase )->GetPiercingSize(); i++ )

  000ec	8b cf		 mov	 ecx, edi
  000ee	89 56 08	 mov	 DWORD PTR [esi+8], edx
  000f1	c7 44 24 24 00
	00 00 00	 mov	 DWORD PTR _i$253137[esp+20], 0
  000f9	e8 00 00 00 00	 call	 ?GetPiercingSize@CPiercing@@QAEHXZ ; CPiercing::GetPiercingSize
  000fe	85 c0		 test	 eax, eax
  00100	7e 3f		 jle	 SHORT $L253141
$L253139:

; 263  : 		ar << ( (CItemElem*)pItemBase )->GetPiercingItem( i );

  00102	8b 54 24 24	 mov	 edx, DWORD PTR _i$253137[esp+20]
  00106	52		 push	 edx
  00107	8b cf		 mov	 ecx, edi
  00109	e8 00 00 00 00	 call	 ?GetPiercingItem@CPiercing@@QAEKH@Z ; CPiercing::GetPiercingItem
  0010e	55		 push	 ebp
  0010f	8b ce		 mov	 ecx, esi
  00111	89 44 24 20	 mov	 DWORD PTR $T258550[esp+24], eax
  00115	e8 00 00 00 00	 call	 ?CheckBuf@CAr@@QAEXI@Z	; CAr::CheckBuf
  0011a	8b 46 08	 mov	 eax, DWORD PTR [esi+8]
  0011d	8b 4c 24 1c	 mov	 ecx, DWORD PTR $T258550[esp+20]
  00121	8b 54 24 24	 mov	 edx, DWORD PTR _i$253137[esp+20]
  00125	89 08		 mov	 DWORD PTR [eax], ecx
  00127	8b 46 08	 mov	 eax, DWORD PTR [esi+8]
  0012a	03 c5		 add	 eax, ebp
  0012c	42		 inc	 edx
  0012d	8b cf		 mov	 ecx, edi
  0012f	89 46 08	 mov	 DWORD PTR [esi+8], eax
  00132	89 54 24 24	 mov	 DWORD PTR _i$253137[esp+20], edx
  00136	e8 00 00 00 00	 call	 ?GetPiercingSize@CPiercing@@QAEHXZ ; CPiercing::GetPiercingSize
  0013b	39 44 24 24	 cmp	 DWORD PTR _i$253137[esp+20], eax
  0013f	7c c1		 jl	 SHORT $L253139
$L253141:

; 264  : 	ar << ( (CItemElem*)pItemBase )->GetUltimatePiercingSize();

  00141	8b cf		 mov	 ecx, edi
  00143	e8 00 00 00 00	 call	 ?GetUltimatePiercingSize@CPiercing@@QAEHXZ ; CPiercing::GetUltimatePiercingSize
  00148	55		 push	 ebp
  00149	8b ce		 mov	 ecx, esi
  0014b	89 44 24 28	 mov	 DWORD PTR $T258562[esp+24], eax
  0014f	e8 00 00 00 00	 call	 ?CheckBuf@CAr@@QAEXI@Z	; CAr::CheckBuf
  00154	8b 56 08	 mov	 edx, DWORD PTR [esi+8]
  00157	8b 44 24 24	 mov	 eax, DWORD PTR $T258562[esp+20]
  0015b	89 02		 mov	 DWORD PTR [edx], eax
  0015d	8b 56 08	 mov	 edx, DWORD PTR [esi+8]
  00160	03 d5		 add	 edx, ebp

; 265  : 	for( i=0; i<( (CItemElem*)pItemBase )->GetUltimatePiercingSize(); i++ )

  00162	8b cf		 mov	 ecx, edi
  00164	89 56 08	 mov	 DWORD PTR [esi+8], edx
  00167	c7 44 24 24 00
	00 00 00	 mov	 DWORD PTR _i$253137[esp+20], 0
  0016f	e8 00 00 00 00	 call	 ?GetUltimatePiercingSize@CPiercing@@QAEHXZ ; CPiercing::GetUltimatePiercingSize
  00174	85 c0		 test	 eax, eax
  00176	7e 3f		 jle	 SHORT $L253147
$L253145:

; 266  : 		ar << ( (CItemElem*)pItemBase )->GetUltimatePiercingItem( i );

  00178	8b 4c 24 24	 mov	 ecx, DWORD PTR _i$253137[esp+20]
  0017c	51		 push	 ecx
  0017d	8b cf		 mov	 ecx, edi
  0017f	e8 00 00 00 00	 call	 ?GetUltimatePiercingItem@CPiercing@@QAEKH@Z ; CPiercing::GetUltimatePiercingItem
  00184	55		 push	 ebp
  00185	8b ce		 mov	 ecx, esi
  00187	89 44 24 20	 mov	 DWORD PTR $T258572[esp+24], eax
  0018b	e8 00 00 00 00	 call	 ?CheckBuf@CAr@@QAEXI@Z	; CAr::CheckBuf
  00190	8b 56 08	 mov	 edx, DWORD PTR [esi+8]
  00193	8b 44 24 1c	 mov	 eax, DWORD PTR $T258572[esp+20]
  00197	89 02		 mov	 DWORD PTR [edx], eax
  00199	8b 46 08	 mov	 eax, DWORD PTR [esi+8]
  0019c	8b 54 24 24	 mov	 edx, DWORD PTR _i$253137[esp+20]
  001a0	03 c5		 add	 eax, ebp
  001a2	42		 inc	 edx
  001a3	8b cf		 mov	 ecx, edi
  001a5	89 46 08	 mov	 DWORD PTR [esi+8], eax
  001a8	89 54 24 24	 mov	 DWORD PTR _i$253137[esp+20], edx
  001ac	e8 00 00 00 00	 call	 ?GetUltimatePiercingSize@CPiercing@@QAEHXZ ; CPiercing::GetUltimatePiercingSize
  001b1	39 44 24 24	 cmp	 DWORD PTR _i$253137[esp+20], eax
  001b5	7c c1		 jl	 SHORT $L253145
$L253147:

; 267  : #else // __EXT_PIERCING
; 268  : 	ar << ( (CItemElem*)pItemBase )->GetPiercingSize();
; 269  : 	ar << ( (CItemElem*)pItemBase )->GetPiercingItem( 0 );
; 270  : 	ar << ( (CItemElem*)pItemBase )->GetPiercingItem( 1 );
; 271  : 	ar << ( (CItemElem*)pItemBase )->GetPiercingItem( 2 );
; 272  : 	ar << ( (CItemElem*)pItemBase )->GetPiercingItem( 3 );
; 273  : #if __VER >= 9 // __ULTIMATE
; 274  : 	ar << ( (CItemElem*)pItemBase )->GetPiercingItem( 4 );
; 275  : #endif // __ULTIMATE
; 276  : #endif // __EXT_PIERCING
; 277  : 	ar << ( (CItemElem*)pItemBase )->GetRandomOptItemId();

  001b7	8b 8b 98 00 00
	00		 mov	 ecx, DWORD PTR [ebx+152]
  001bd	8b 93 9c 00 00
	00		 mov	 edx, DWORD PTR [ebx+156]
  001c3	6a 08		 push	 8
  001c5	8d 44 24 14	 lea	 eax, DWORD PTR $T258580[esp+28]
  001c9	89 4c 24 14	 mov	 DWORD PTR $T258580[esp+28], ecx
  001cd	50		 push	 eax
  001ce	8b ce		 mov	 ecx, esi
  001d0	89 54 24 1c	 mov	 DWORD PTR $T258580[esp+36], edx
  001d4	e8 00 00 00 00	 call	 ?Write@CAr@@QAEXPBXI@Z	; CAr::Write

; 278  : #if __VER >= 9 // __PET_0410
; 279  : 		if( ((CItemElem*)pItemBase)->m_pPet )

  001d9	8b bb a8 00 00
	00		 mov	 edi, DWORD PTR [ebx+168]
  001df	85 ff		 test	 edi, edi
  001e1	0f 84 16 01 00
	00		 je	 $L253151

; 280  : 		{
; 281  : 			CPet* pPet = ((CItemElem*)pItemBase)->m_pPet;
; 282  : 
; 283  : 			ar << pPet->GetKind();

  001e7	8a 5f 04	 mov	 bl, BYTE PTR [edi+4]
  001ea	6a 01		 push	 1
  001ec	8b ce		 mov	 ecx, esi
  001ee	e8 00 00 00 00	 call	 ?CheckBuf@CAr@@QAEXI@Z	; CAr::CheckBuf
  001f3	8b 4e 08	 mov	 ecx, DWORD PTR [esi+8]
  001f6	88 19		 mov	 BYTE PTR [ecx], bl
  001f8	ff 46 08	 inc	 DWORD PTR [esi+8]

; 284  : 			ar << pPet->GetLevel();

  001fb	8a 5f 05	 mov	 bl, BYTE PTR [edi+5]
  001fe	6a 01		 push	 1
  00200	8b ce		 mov	 ecx, esi
  00202	e8 00 00 00 00	 call	 ?CheckBuf@CAr@@QAEXI@Z	; CAr::CheckBuf
  00207	8b 56 08	 mov	 edx, DWORD PTR [esi+8]
  0020a	88 1a		 mov	 BYTE PTR [edx], bl
  0020c	ff 46 08	 inc	 DWORD PTR [esi+8]

; 285  : 			ar << pPet->GetExp();

  0020f	8b 5f 08	 mov	 ebx, DWORD PTR [edi+8]
  00212	55		 push	 ebp
  00213	8b ce		 mov	 ecx, esi
  00215	e8 00 00 00 00	 call	 ?CheckBuf@CAr@@QAEXI@Z	; CAr::CheckBuf
  0021a	8b 46 08	 mov	 eax, DWORD PTR [esi+8]
  0021d	89 18		 mov	 DWORD PTR [eax], ebx
  0021f	01 6e 08	 add	 DWORD PTR [esi+8], ebp

; 286  : 			ar << pPet->GetEnergy();

  00222	66 8b 5f 0c	 mov	 bx, WORD PTR [edi+12]
  00226	6a 02		 push	 2
  00228	8b ce		 mov	 ecx, esi
  0022a	e8 00 00 00 00	 call	 ?CheckBuf@CAr@@QAEXI@Z	; CAr::CheckBuf
  0022f	8b 4e 08	 mov	 ecx, DWORD PTR [esi+8]
  00232	66 89 19	 mov	 WORD PTR [ecx], bx
  00235	83 46 08 02	 add	 DWORD PTR [esi+8], 2

; 287  : 			ar << pPet->GetLife();

  00239	8b cf		 mov	 ecx, edi
  0023b	e8 00 00 00 00	 call	 ?GetLife@CPet@@QAEGXZ	; CPet::GetLife
  00240	6a 02		 push	 2
  00242	8b ce		 mov	 ecx, esi
  00244	8b d8		 mov	 ebx, eax
  00246	e8 00 00 00 00	 call	 ?CheckBuf@CAr@@QAEXI@Z	; CAr::CheckBuf
  0024b	8b 56 08	 mov	 edx, DWORD PTR [esi+8]
  0024e	66 89 1a	 mov	 WORD PTR [edx], bx
  00251	8b 56 08	 mov	 edx, DWORD PTR [esi+8]
  00254	83 c2 02	 add	 edx, 2

; 288  : 			ar << pPet->GetAvailLevel( PL_D );

  00257	6a 01		 push	 1
  00259	8b cf		 mov	 ecx, edi
  0025b	89 56 08	 mov	 DWORD PTR [esi+8], edx
  0025e	e8 00 00 00 00	 call	 ?GetAvailLevel@CPet@@QAEEE@Z ; CPet::GetAvailLevel
  00263	6a 01		 push	 1
  00265	8b ce		 mov	 ecx, esi
  00267	8a d8		 mov	 bl, al
  00269	e8 00 00 00 00	 call	 ?CheckBuf@CAr@@QAEXI@Z	; CAr::CheckBuf
  0026e	8b 46 08	 mov	 eax, DWORD PTR [esi+8]
  00271	88 18		 mov	 BYTE PTR [eax], bl
  00273	8b 5e 08	 mov	 ebx, DWORD PTR [esi+8]
  00276	43		 inc	 ebx

; 289  : 			ar << pPet->GetAvailLevel( PL_C );

  00277	6a 02		 push	 2
  00279	8b cf		 mov	 ecx, edi
  0027b	89 5e 08	 mov	 DWORD PTR [esi+8], ebx
  0027e	e8 00 00 00 00	 call	 ?GetAvailLevel@CPet@@QAEEE@Z ; CPet::GetAvailLevel
  00283	6a 01		 push	 1
  00285	8b ce		 mov	 ecx, esi
  00287	8a d8		 mov	 bl, al
  00289	e8 00 00 00 00	 call	 ?CheckBuf@CAr@@QAEXI@Z	; CAr::CheckBuf
  0028e	8b 4e 08	 mov	 ecx, DWORD PTR [esi+8]
  00291	88 19		 mov	 BYTE PTR [ecx], bl
  00293	8b 46 08	 mov	 eax, DWORD PTR [esi+8]
  00296	40		 inc	 eax

; 290  : 			ar << pPet->GetAvailLevel( PL_B );

  00297	6a 03		 push	 3
  00299	8b cf		 mov	 ecx, edi
  0029b	89 46 08	 mov	 DWORD PTR [esi+8], eax
  0029e	e8 00 00 00 00	 call	 ?GetAvailLevel@CPet@@QAEEE@Z ; CPet::GetAvailLevel
  002a3	6a 01		 push	 1
  002a5	8b ce		 mov	 ecx, esi
  002a7	8a d8		 mov	 bl, al
  002a9	e8 00 00 00 00	 call	 ?CheckBuf@CAr@@QAEXI@Z	; CAr::CheckBuf
  002ae	8b 56 08	 mov	 edx, DWORD PTR [esi+8]
  002b1	88 1a		 mov	 BYTE PTR [edx], bl
  002b3	ff 46 08	 inc	 DWORD PTR [esi+8]

; 291  : 			ar << pPet->GetAvailLevel( PL_A );

  002b6	55		 push	 ebp
  002b7	8b cf		 mov	 ecx, edi
  002b9	e8 00 00 00 00	 call	 ?GetAvailLevel@CPet@@QAEEE@Z ; CPet::GetAvailLevel
  002be	6a 01		 push	 1
  002c0	8b ce		 mov	 ecx, esi
  002c2	8a d8		 mov	 bl, al
  002c4	e8 00 00 00 00	 call	 ?CheckBuf@CAr@@QAEXI@Z	; CAr::CheckBuf
  002c9	8b 46 08	 mov	 eax, DWORD PTR [esi+8]
  002cc	88 18		 mov	 BYTE PTR [eax], bl
  002ce	8b 5e 08	 mov	 ebx, DWORD PTR [esi+8]
  002d1	43		 inc	 ebx

; 292  : 			ar << pPet->GetAvailLevel( PL_S );

  002d2	6a 05		 push	 5
  002d4	8b cf		 mov	 ecx, edi
  002d6	89 5e 08	 mov	 DWORD PTR [esi+8], ebx
  002d9	e8 00 00 00 00	 call	 ?GetAvailLevel@CPet@@QAEEE@Z ; CPet::GetAvailLevel
  002de	6a 01		 push	 1
  002e0	8b ce		 mov	 ecx, esi
  002e2	8a d8		 mov	 bl, al
  002e4	e8 00 00 00 00	 call	 ?CheckBuf@CAr@@QAEXI@Z	; CAr::CheckBuf
  002e9	8b 4e 08	 mov	 ecx, DWORD PTR [esi+8]
  002ec	88 19		 mov	 BYTE PTR [ecx], bl

; 318  : 			ar << (BYTE)0;

  002ee	8b 46 08	 mov	 eax, DWORD PTR [esi+8]
  002f1	5f		 pop	 edi
  002f2	40		 inc	 eax
  002f3	89 46 08	 mov	 DWORD PTR [esi+8], eax
  002f6	5e		 pop	 esi
  002f7	5d		 pop	 ebp
  002f8	5b		 pop	 ebx

; 319  : 		}
; 320  : #endif // __PET_0410
; 321  : }

  002f9	83 c4 08	 add	 esp, 8
  002fc	c3		 ret	 0
$L253151:

; 293  : 		}
; 294  : 		else
; 295  : 		{
; 296  : 			// mirchang_100514 TransformVisPet_Log
; 297  : #if __VER >= 15 // __PETVIS
; 298  : 			if( ((CItemElem*)pItemBase)->IsTransformVisPet() == TRUE )

  002fd	8b cb		 mov	 ecx, ebx
  002ff	e8 00 00 00 00	 call	 ?IsTransformVisPet@CItemElem@@QAEHXZ ; CItemElem::IsTransformVisPet
  00304	83 f8 01	 cmp	 eax, 1

; 299  : 			{
; 300  : 				ar << (BYTE)100;

  00307	8b ce		 mov	 ecx, esi
  00309	6a 01		 push	 1
  0030b	75 0d		 jne	 SHORT $L253156
  0030d	e8 00 00 00 00	 call	 ?CheckBuf@CAr@@QAEXI@Z	; CAr::CheckBuf
  00312	8b 56 08	 mov	 edx, DWORD PTR [esi+8]
  00315	c6 02 64	 mov	 BYTE PTR [edx], 100	; 00000064H

; 301  : 			}
; 302  : 			else

  00318	eb 0b		 jmp	 SHORT $L258671
$L253156:

; 303  : 			{
; 304  : 				ar << (BYTE)0;

  0031a	e8 00 00 00 00	 call	 ?CheckBuf@CAr@@QAEXI@Z	; CAr::CheckBuf
  0031f	8b 46 08	 mov	 eax, DWORD PTR [esi+8]
  00322	c6 00 00	 mov	 BYTE PTR [eax], 0
$L258671:
  00325	8b 46 08	 mov	 eax, DWORD PTR [esi+8]
  00328	40		 inc	 eax

; 305  : 			}
; 306  : #else // __PETVIS
; 307  : 			ar << (BYTE)0;
; 308  : #endif // __PETVIS
; 309  : 			// mirchang_100514 TransformVisPet_Log
; 310  : 			ar << (BYTE)0;

  00329	6a 01		 push	 1
  0032b	8b ce		 mov	 ecx, esi
  0032d	89 46 08	 mov	 DWORD PTR [esi+8], eax
  00330	e8 00 00 00 00	 call	 ?CheckBuf@CAr@@QAEXI@Z	; CAr::CheckBuf
  00335	8b 4e 08	 mov	 ecx, DWORD PTR [esi+8]
  00338	c6 01 00	 mov	 BYTE PTR [ecx], 0
  0033b	8b 5e 08	 mov	 ebx, DWORD PTR [esi+8]
  0033e	43		 inc	 ebx

; 311  : 			ar << (DWORD)0;

  0033f	55		 push	 ebp
  00340	8b ce		 mov	 ecx, esi
  00342	89 5e 08	 mov	 DWORD PTR [esi+8], ebx
  00345	e8 00 00 00 00	 call	 ?CheckBuf@CAr@@QAEXI@Z	; CAr::CheckBuf
  0034a	8b 56 08	 mov	 edx, DWORD PTR [esi+8]
  0034d	c7 02 00 00 00
	00		 mov	 DWORD PTR [edx], 0
  00353	8b 56 08	 mov	 edx, DWORD PTR [esi+8]
  00356	03 d5		 add	 edx, ebp

; 312  : 			ar << (WORD)0;

  00358	bf 02 00 00 00	 mov	 edi, 2
  0035d	57		 push	 edi
  0035e	8b ce		 mov	 ecx, esi
  00360	89 56 08	 mov	 DWORD PTR [esi+8], edx
  00363	e8 00 00 00 00	 call	 ?CheckBuf@CAr@@QAEXI@Z	; CAr::CheckBuf
  00368	8b 46 08	 mov	 eax, DWORD PTR [esi+8]
  0036b	66 c7 00 00 00	 mov	 WORD PTR [eax], 0
  00370	8b 46 08	 mov	 eax, DWORD PTR [esi+8]
  00373	03 c7		 add	 eax, edi

; 313  : 			ar << (WORD)0;

  00375	57		 push	 edi
  00376	8b ce		 mov	 ecx, esi
  00378	89 46 08	 mov	 DWORD PTR [esi+8], eax
  0037b	e8 00 00 00 00	 call	 ?CheckBuf@CAr@@QAEXI@Z	; CAr::CheckBuf
  00380	8b 4e 08	 mov	 ecx, DWORD PTR [esi+8]
  00383	66 c7 01 00 00	 mov	 WORD PTR [ecx], 0
  00388	8b 5e 08	 mov	 ebx, DWORD PTR [esi+8]
  0038b	03 df		 add	 ebx, edi

; 314  : 			ar << (BYTE)0;

  0038d	6a 01		 push	 1
  0038f	8b ce		 mov	 ecx, esi
  00391	89 5e 08	 mov	 DWORD PTR [esi+8], ebx
  00394	e8 00 00 00 00	 call	 ?CheckBuf@CAr@@QAEXI@Z	; CAr::CheckBuf
  00399	8b 56 08	 mov	 edx, DWORD PTR [esi+8]
  0039c	c6 02 00	 mov	 BYTE PTR [edx], 0
  0039f	8b 56 08	 mov	 edx, DWORD PTR [esi+8]
  003a2	42		 inc	 edx

; 315  : 			ar << (BYTE)0;

  003a3	6a 01		 push	 1
  003a5	8b ce		 mov	 ecx, esi
  003a7	89 56 08	 mov	 DWORD PTR [esi+8], edx
  003aa	e8 00 00 00 00	 call	 ?CheckBuf@CAr@@QAEXI@Z	; CAr::CheckBuf
  003af	8b 46 08	 mov	 eax, DWORD PTR [esi+8]
  003b2	c6 00 00	 mov	 BYTE PTR [eax], 0
  003b5	8b 46 08	 mov	 eax, DWORD PTR [esi+8]
  003b8	40		 inc	 eax

; 316  : 			ar << (BYTE)0;

  003b9	6a 01		 push	 1
  003bb	8b ce		 mov	 ecx, esi
  003bd	89 46 08	 mov	 DWORD PTR [esi+8], eax
  003c0	e8 00 00 00 00	 call	 ?CheckBuf@CAr@@QAEXI@Z	; CAr::CheckBuf
  003c5	8b 4e 08	 mov	 ecx, DWORD PTR [esi+8]
  003c8	c6 01 00	 mov	 BYTE PTR [ecx], 0
  003cb	8b 5e 08	 mov	 ebx, DWORD PTR [esi+8]
  003ce	43		 inc	 ebx

; 317  : 			ar << (BYTE)0;

  003cf	6a 01		 push	 1
  003d1	8b ce		 mov	 ecx, esi
  003d3	89 5e 08	 mov	 DWORD PTR [esi+8], ebx
  003d6	e8 00 00 00 00	 call	 ?CheckBuf@CAr@@QAEXI@Z	; CAr::CheckBuf
  003db	8b 56 08	 mov	 edx, DWORD PTR [esi+8]
  003de	c6 02 00	 mov	 BYTE PTR [edx], 0
  003e1	8b 56 08	 mov	 edx, DWORD PTR [esi+8]
  003e4	42		 inc	 edx

; 318  : 			ar << (BYTE)0;

  003e5	6a 01		 push	 1
  003e7	8b ce		 mov	 ecx, esi
  003e9	89 56 08	 mov	 DWORD PTR [esi+8], edx
  003ec	e8 00 00 00 00	 call	 ?CheckBuf@CAr@@QAEXI@Z	; CAr::CheckBuf
  003f1	8b 46 08	 mov	 eax, DWORD PTR [esi+8]
  003f4	c6 00 00	 mov	 BYTE PTR [eax], 0
  003f7	8b 46 08	 mov	 eax, DWORD PTR [esi+8]
  003fa	5f		 pop	 edi
  003fb	40		 inc	 eax
  003fc	89 46 08	 mov	 DWORD PTR [esi+8], eax
  003ff	5e		 pop	 esi
  00400	5d		 pop	 ebp
  00401	5b		 pop	 ebx

; 319  : 		}
; 320  : #endif // __PET_0410
; 321  : }

  00402	83 c4 08	 add	 esp, 8
  00405	c3		 ret	 0
?TradeLog@@YAXAAVCAr@@PAVCItemBase@@F@Z ENDP		; TradeLog
_TEXT	ENDS
PUBLIC	??_C@_0EK@GINEPMCL@template?5?$DMclass?5T?$DO?5BOOL?5CItemCon@ ; `string'
PUBLIC	?Add@?$CItemContainer@VCItemElem@@@@QAEHPAVCItemElem@@PAEPAF1@Z ; CItemContainer<CItemElem>::Add
EXTRN	?SetTexture@CItemBase@@QAEXXZ:NEAR		; CItemBase::SetTexture
;	COMDAT ??_C@_0EK@GINEPMCL@template?5?$DMclass?5T?$DO?5BOOL?5CItemCon@
; File c:\documents and settings\test\mes documents\source\virtuos_v17\build\program\_common\item.h
CONST	SEGMENT
??_C@_0EK@GINEPMCL@template?5?$DMclass?5T?$DO?5BOOL?5CItemCon@ DB 'templa'
	DB	'te <class T> BOOL CItemContainer<T>::Add( T* pElem... : nNumt'
	DB	'mp > 0', 00H				; `string'
; Function compile flags: /Ogty
CONST	ENDS
;	COMDAT ?Add@?$CItemContainer@VCItemElem@@@@QAEHPAVCItemElem@@PAEPAF1@Z
_TEXT	SEGMENT
_nNumtmp$ = -12						; size = 2
_i$255531 = -12						; size = 4
_this$ = -8						; size = 4
_i$255513 = -4						; size = 4
_pElem$ = 8						; size = 4
_pnId$ = 12						; size = 4
_pnNum$ = 16						; size = 4
$T258697 = 20						; size = 4
_pnCount$ = 20						; size = 4
?Add@?$CItemContainer@VCItemElem@@@@QAEHPAVCItemElem@@PAEPAF1@Z PROC NEAR ; CItemContainer<CItemElem>::Add, COMDAT
; _this$ = ecx

; 662  : {

  00000	83 ec 0c	 sub	 esp, 12			; 0000000cH

; 663  : 	if( pnId )

  00003	8b 44 24 14	 mov	 eax, DWORD PTR _pnId$[esp+8]
  00007	85 c0		 test	 eax, eax
  00009	53		 push	 ebx
  0000a	55		 push	 ebp
  0000b	56		 push	 esi
  0000c	8b f1		 mov	 esi, ecx
  0000e	57		 push	 edi
  0000f	8b 7c 24 2c	 mov	 edi, DWORD PTR _pnCount$[esp+24]
  00013	89 74 24 14	 mov	 DWORD PTR _this$[esp+28], esi
  00017	74 03		 je	 SHORT $L255502

; 664  : 		*pnCount	= 0;

  00019	c6 07 00	 mov	 BYTE PTR [edi], 0
$L255502:

; 665  : 	ItemProp* pItemProp		= pElem->GetProp();

  0001c	8b 6c 24 20	 mov	 ebp, DWORD PTR _pElem$[esp+24]
  00020	8b 45 0c	 mov	 eax, DWORD PTR [ebp+12]
  00023	85 c0		 test	 eax, eax
  00025	8b 0d 5c 02 00
	00		 mov	 ecx, DWORD PTR ?prj@@3VCProject@@A+604
  0002b	7c 48		 jl	 SHORT $L258725
  0002d	3b c1		 cmp	 eax, ecx
  0002f	7d 44		 jge	 SHORT $L258725
  00031	72 31		 jb	 SHORT $L258737
  00033	33 db		 xor	 ebx, ebx
  00035	89 5c 24 2c	 mov	 DWORD PTR $T258697[esp+24], ebx
$L258720:

; 666  : 	if( !pItemProp )

  00039	85 db		 test	 ebx, ebx

; 667  : 		return FALSE;

  0003b	74 1b		 je	 SHORT $L258751

; 668  : 
; 669  : #ifdef __TABBED_INV
; 670  : 	int nIndex = pItemProp->GetInvenIndex();
; 671  : #endif
; 672  : 
; 673  : 	BOOL bPackItem = TRUE;
; 674  : 	int nId;
; 675  : 
; 676  : 	short nNumtmp	= ( (CItemElem*)pElem )->m_nItemNum;

  0003d	33 c0		 xor	 eax, eax
  0003f	66 8b 85 80 00
	00 00		 mov	 ax, WORD PTR [ebp+128]

; 677  : 	if( IsFull( pElem, pItemProp, nNumtmp ) )	//    

  00046	8b ce		 mov	 ecx, esi
  00048	50		 push	 eax
  00049	53		 push	 ebx
  0004a	55		 push	 ebp
  0004b	89 44 24 1c	 mov	 DWORD PTR _nNumtmp$[esp+40], eax
  0004f	e8 00 00 00 00	 call	 ?IsFull@?$CItemContainer@VCItemElem@@@@QAEHPAVCItemElem@@PAUItemProp@@F@Z ; CItemContainer<CItemElem>::IsFull
  00054	85 c0		 test	 eax, eax
  00056	74 3f		 je	 SHORT $L255509
$L258751:
  00058	5f		 pop	 edi
  00059	5e		 pop	 esi
  0005a	5d		 pop	 ebp

; 678  : 		return FALSE;

  0005b	33 c0		 xor	 eax, eax
  0005d	5b		 pop	 ebx

; 765  : }

  0005e	83 c4 0c	 add	 esp, 12			; 0000000cH
  00061	c2 10 00	 ret	 16			; 00000010H

; 665  : 	ItemProp* pItemProp		= pElem->GetProp();

$L258737:
  00064	8b 0d 4c 02 00
	00		 mov	 ecx, DWORD PTR ?prj@@3VCProject@@A+588
  0006a	8b 14 81	 mov	 edx, DWORD PTR [ecx+eax*4]
  0006d	89 54 24 2c	 mov	 DWORD PTR $T258697[esp+24], edx
  00071	8b da		 mov	 ebx, edx
  00073	eb c4		 jmp	 SHORT $L258720
$L258725:
  00075	50		 push	 eax
  00076	51		 push	 ecx
  00077	6a 00		 push	 0
  00079	68 00 00 00 00	 push	 OFFSET FLAT:??_C@_0BI@BEIFNGEL@GetItemProp?5range_error?$AA@
  0007e	68 00 00 00 00	 push	 OFFSET FLAT:??_C@_0BM@HMFGHCP@?$CFs?5min?3?$CFd?0?5max?3?$CFd?0?5index?3?$CFd?$AA@
  00083	e8 00 00 00 00	 call	 ?Error@@YAPBDPBDZZ	; Error
  00088	83 c4 14	 add	 esp, 20			; 00000014H
  0008b	5f		 pop	 edi
  0008c	5e		 pop	 esi
  0008d	5d		 pop	 ebp

; 678  : 		return FALSE;

  0008e	33 c0		 xor	 eax, eax
  00090	5b		 pop	 ebx

; 765  : }

  00091	83 c4 0c	 add	 esp, 12			; 0000000cH
  00094	c2 10 00	 ret	 16			; 00000010H
$L255509:

; 679  : 
; 680  : 	if( pItemProp->dwPackMax == 1 )

  00097	83 7b 6c 01	 cmp	 DWORD PTR [ebx+108], 1

; 681  : 		bPackItem = FALSE;
; 682  : 
; 683  : 	CItemElem* pElemtmp;
; 684  : 	if( bPackItem )

  0009b	0f 84 e5 00 00
	00		 je	 $L258758

; 685  : 	{
; 686  : 		for( DWORD i = 0; i < m_dwIndexNum; i++ )

  000a1	8b 4e 08	 mov	 ecx, DWORD PTR [esi+8]
  000a4	33 c0		 xor	 eax, eax
  000a6	85 c9		 test	 ecx, ecx
  000a8	89 44 24 18	 mov	 DWORD PTR _i$255513[esp+28], eax
  000ac	0f 86 d4 00 00
	00		 jbe	 $L258758
$L255514:

; 687  : 		{
; 688  : 			nId	= m_apIndex[i];

  000b2	8b 4e 04	 mov	 ecx, DWORD PTR [esi+4]
  000b5	8b 1c 81	 mov	 ebx, DWORD PTR [ecx+eax*4]

; 689  : 			if( nId < 0 || nId >= (int)( m_dwItemMax ) )

  000b8	85 db		 test	 ebx, ebx
  000ba	0f 8c b2 00 00
	00		 jl	 $L255515
  000c0	3b 5e 0c	 cmp	 ebx, DWORD PTR [esi+12]
  000c3	0f 8d a9 00 00
	00		 jge	 $L255515

; 690  : 				continue;
; 691  : 			pElemtmp	= (CItemElem*)&m_apItem[nId];

  000c9	8b 4e 10	 mov	 ecx, DWORD PTR [esi+16]
  000cc	8b c3		 mov	 eax, ebx
  000ce	69 c0 b8 00 00
	00		 imul	 eax, 184		; 000000b8H
  000d4	03 c1		 add	 eax, ecx

; 692  : 			
; 693  : 			if( pElemtmp->IsEmpty() == FALSE && pElemtmp->m_dwItemId == pElem->m_dwItemId && pElemtmp->m_nItemNum < (short)pItemProp->dwPackMax 
; 694  : 				&& pElem->m_byFlag == pElemtmp->m_byFlag && pElem->m_bCharged == pElemtmp->m_bCharged )

  000d6	8b 48 0c	 mov	 ecx, DWORD PTR [eax+12]
  000d9	85 c9		 test	 ecx, ecx
  000db	0f 84 91 00 00
	00		 je	 $L255515
  000e1	3b 4d 0c	 cmp	 ecx, DWORD PTR [ebp+12]
  000e4	0f 85 88 00 00
	00		 jne	 $L255515
  000ea	66 8b 88 80 00
	00 00		 mov	 cx, WORD PTR [eax+128]
  000f1	8b 54 24 2c	 mov	 edx, DWORD PTR $T258697[esp+24]
  000f5	66 3b 4a 6c	 cmp	 cx, WORD PTR [edx+108]
  000f9	7d 77		 jge	 SHORT $L255515
  000fb	8a 95 82 00 00
	00		 mov	 dl, BYTE PTR [ebp+130]
  00101	3a 90 82 00 00
	00		 cmp	 dl, BYTE PTR [eax+130]
  00107	75 69		 jne	 SHORT $L255515
  00109	8b 95 ac 00 00
	00		 mov	 edx, DWORD PTR [ebp+172]
  0010f	3b 90 ac 00 00
	00		 cmp	 edx, DWORD PTR [eax+172]
  00115	75 5b		 jne	 SHORT $L255515

; 695  : 			{
; 696  : 				if( pElemtmp->m_nItemNum + nNumtmp > (short)pItemProp->dwPackMax )

  00117	0f bf 6c 24 10	 movsx	 ebp, WORD PTR _nNumtmp$[esp+28]
  0011c	0f bf d1	 movsx	 edx, cx
  0011f	03 d5		 add	 edx, ebp
  00121	8b 6c 24 2c	 mov	 ebp, DWORD PTR $T258697[esp+24]
  00125	0f bf 6d 6c	 movsx	 ebp, WORD PTR [ebp+108]
  00129	3b d5		 cmp	 edx, ebp
  0012b	0f 8e 35 01 00
	00		 jle	 $L255524

; 697  : 				{
; 698  : 					nNumtmp	-= ( (short)pItemProp->dwPackMax - pElemtmp->m_nItemNum );

  00131	8b 54 24 2c	 mov	 edx, DWORD PTR $T258697[esp+24]
  00135	0f bf 52 6c	 movsx	 edx, WORD PTR [edx+108]
  00139	8b 6c 24 10	 mov	 ebp, DWORD PTR _nNumtmp$[esp+28]
  0013d	2b ca		 sub	 ecx, edx
  0013f	03 e9		 add	 ebp, ecx

; 699  : 					pElemtmp->m_nItemNum	= (short)pItemProp->dwPackMax;
; 700  : 					if( pnId )

  00141	8b 4c 24 24	 mov	 ecx, DWORD PTR _pnId$[esp+24]
  00145	85 c9		 test	 ecx, ecx
  00147	89 6c 24 10	 mov	 DWORD PTR _nNumtmp$[esp+28], ebp

; 701  : 					{
; 702  : 						pnId[*pnCount]	= nId;
; 703  : 						pnNum[*pnCount]	= pElemtmp->m_nItemNum;
; 704  : 						( *pnCount )++;

  0014b	8b 6c 24 20	 mov	 ebp, DWORD PTR _pElem$[esp+24]
  0014f	66 89 90 80 00
	00 00		 mov	 WORD PTR [eax+128], dx
  00156	74 1a		 je	 SHORT $L255515
  00158	0f b6 17	 movzx	 edx, BYTE PTR [edi]
  0015b	88 1c 0a	 mov	 BYTE PTR [edx+ecx], bl
  0015e	66 8b 90 80 00
	00 00		 mov	 dx, WORD PTR [eax+128]
  00165	0f b6 0f	 movzx	 ecx, BYTE PTR [edi]
  00168	8b 44 24 28	 mov	 eax, DWORD PTR _pnNum$[esp+24]
  0016c	66 89 14 48	 mov	 WORD PTR [eax+ecx*2], dx
  00170	fe 07		 inc	 BYTE PTR [edi]
$L255515:
  00172	8b 44 24 18	 mov	 eax, DWORD PTR _i$255513[esp+28]
  00176	8b 4e 08	 mov	 ecx, DWORD PTR [esi+8]
  00179	40		 inc	 eax
  0017a	3b c1		 cmp	 eax, ecx
  0017c	89 44 24 18	 mov	 DWORD PTR _i$255513[esp+28], eax
  00180	0f 82 2c ff ff
	ff		 jb	 $L255514
$L258758:

; 713  : 					}
; 714  : 					nNumtmp = 0;
; 715  : 					break;
; 716  : 				}
; 717  : 			}
; 718  : 			
; 719  : 		}
; 720  : 	}
; 721  : 
; 722  : 	if( nNumtmp > 0 )

  00186	66 8b 6c 24 10	 mov	 bp, WORD PTR _nNumtmp$[esp+28]
  0018b	66 85 ed	 test	 bp, bp
  0018e	0f 8e c3 00 00
	00		 jle	 $L258754

; 723  : 	{
; 724  : 		for( DWORD i = 0; i < m_dwIndexNum; i++ )

  00194	8b 4e 08	 mov	 ecx, DWORD PTR [esi+8]
  00197	33 c0		 xor	 eax, eax
  00199	85 c9		 test	 ecx, ecx
  0019b	89 44 24 10	 mov	 DWORD PTR _i$255531[esp+28], eax
  0019f	0f 86 a0 00 00
	00		 jbe	 $L255547
$L255532:

; 725  : 		{
; 726  : 			nId	= m_apIndex[i];

  001a5	8b 4e 04	 mov	 ecx, DWORD PTR [esi+4]
  001a8	8b 1c 81	 mov	 ebx, DWORD PTR [ecx+eax*4]

; 727  : 			if( nId < 0 || nId >= (int)( m_dwItemMax ) )

  001ab	85 db		 test	 ebx, ebx
  001ad	0f 8c 7e 00 00
	00		 jl	 $L255533
  001b3	3b 5e 0c	 cmp	 ebx, DWORD PTR [esi+12]
  001b6	7d 79		 jge	 SHORT $L255533

; 728  : 				continue;
; 729  : 			pElemtmp	= (CItemElem*)&m_apItem[nId];

  001b8	8b 54 24 14	 mov	 edx, DWORD PTR _this$[esp+28]
  001bc	8b 4a 10	 mov	 ecx, DWORD PTR [edx+16]
  001bf	8b f3		 mov	 esi, ebx
  001c1	69 f6 b8 00 00
	00		 imul	 esi, 184		; 000000b8H

; 730  : 			if( pElemtmp->IsEmpty() )	//  

  001c7	8b 44 0e 0c	 mov	 eax, DWORD PTR [esi+ecx+12]
  001cb	03 f1		 add	 esi, ecx
  001cd	85 c0		 test	 eax, eax
  001cf	75 5c		 jne	 SHORT $L258753

; 731  : 			{
; 732  : 				*pElemtmp	= *( (CItemElem*)pElem );

  001d1	8b 4c 24 20	 mov	 ecx, DWORD PTR _pElem$[esp+24]
  001d5	8b 06		 mov	 eax, DWORD PTR [esi]
  001d7	51		 push	 ecx
  001d8	8b ce		 mov	 ecx, esi
  001da	ff 50 10	 call	 DWORD PTR [eax+16]

; 733  : 				pElemtmp->m_dwObjId	= nId;
; 734  : 				pElemtmp->m_dwObjIndex		= i;

  001dd	8b 54 24 10	 mov	 edx, DWORD PTR _i$255531[esp+28]

; 735  : 				pElemtmp->SetTexture();

  001e1	8b ce		 mov	 ecx, esi
  001e3	89 5e 04	 mov	 DWORD PTR [esi+4], ebx
  001e6	89 56 08	 mov	 DWORD PTR [esi+8], edx
  001e9	e8 00 00 00 00	 call	 ?SetTexture@CItemBase@@QAEXXZ ; CItemBase::SetTexture

; 736  : 				
; 737  : 				if( nNumtmp > (short)pItemProp->dwPackMax )

  001ee	8b 44 24 2c	 mov	 eax, DWORD PTR $T258697[esp+24]
  001f2	66 3b 68 6c	 cmp	 bp, WORD PTR [eax+108]
  001f6	0f 8e a7 00 00
	00		 jle	 $L255542

; 738  : 				{
; 739  : 					pElemtmp->m_nItemNum	= (short)pItemProp->dwPackMax;

  001fc	66 8b 48 6c	 mov	 cx, WORD PTR [eax+108]
  00200	66 89 8e 80 00
	00 00		 mov	 WORD PTR [esi+128], cx

; 740  : 					nNumtmp		-= (short)pItemProp->dwPackMax;

  00207	66 2b 68 6c	 sub	 bp, WORD PTR [eax+108]

; 741  : 					if( pnId ) {

  0020b	8b 44 24 24	 mov	 eax, DWORD PTR _pnId$[esp+24]
  0020f	85 c0		 test	 eax, eax
  00211	74 1a		 je	 SHORT $L258753

; 742  : 						pnId[*pnCount]	= nId;

  00213	0f b6 17	 movzx	 edx, BYTE PTR [edi]
  00216	88 1c 02	 mov	 BYTE PTR [edx+eax], bl

; 743  : 						pnNum[*pnCount]	= pElemtmp->m_nItemNum;

  00219	0f b6 0f	 movzx	 ecx, BYTE PTR [edi]
  0021c	66 8b 96 80 00
	00 00		 mov	 dx, WORD PTR [esi+128]
  00223	8b 44 24 28	 mov	 eax, DWORD PTR _pnNum$[esp+24]
  00227	66 89 14 48	 mov	 WORD PTR [eax+ecx*2], dx

; 744  : 						( *pnCount )++;

  0022b	fe 07		 inc	 BYTE PTR [edi]
$L258753:
  0022d	8b 74 24 14	 mov	 esi, DWORD PTR _this$[esp+28]
$L255533:

; 723  : 	{
; 724  : 		for( DWORD i = 0; i < m_dwIndexNum; i++ )

  00231	8b 44 24 10	 mov	 eax, DWORD PTR _i$255531[esp+28]
  00235	8b 4e 08	 mov	 ecx, DWORD PTR [esi+8]
  00238	40		 inc	 eax
  00239	3b c1		 cmp	 eax, ecx
  0023b	89 44 24 10	 mov	 DWORD PTR _i$255531[esp+28], eax
  0023f	0f 82 60 ff ff
	ff		 jb	 $L255532
$L255547:

; 756  : 					}
; 757  : 					break;
; 758  : 				}
; 759  : 			}
; 760  : 		}
; 761  : 	}
; 762  : 	if( nNumtmp > 0 )

  00245	66 85 ed	 test	 bp, bp
  00248	7e 0d		 jle	 SHORT $L258754

; 763  : 		Error( "template <class T> BOOL CItemContainer<T>::Add( T* pElem... : nNumtmp > 0" );

  0024a	68 00 00 00 00	 push	 OFFSET FLAT:??_C@_0EK@GINEPMCL@template?5?$DMclass?5T?$DO?5BOOL?5CItemCon@
  0024f	e8 00 00 00 00	 call	 ?Error@@YAPBDPBDZZ	; Error
  00254	83 c4 04	 add	 esp, 4
$L258754:
  00257	5f		 pop	 edi
  00258	5e		 pop	 esi
  00259	5d		 pop	 ebp

; 764  : 	return TRUE;

  0025a	b8 01 00 00 00	 mov	 eax, 1
  0025f	5b		 pop	 ebx

; 765  : }

  00260	83 c4 0c	 add	 esp, 12			; 0000000cH
  00263	c2 10 00	 ret	 16			; 00000010H
$L255524:

; 705  : 					}
; 706  : 				}
; 707  : 				else {
; 708  : 					pElemtmp->m_nItemNum	+= nNumtmp;

  00266	66 8b 4c 24 10	 mov	 cx, WORD PTR _nNumtmp$[esp+28]
  0026b	66 01 88 80 00
	00 00		 add	 WORD PTR [eax+128], cx

; 709  : 					if( pnId ) {

  00272	8b 4c 24 24	 mov	 ecx, DWORD PTR _pnId$[esp+24]
  00276	85 c9		 test	 ecx, ecx
  00278	74 dd		 je	 SHORT $L258754

; 710  : 						pnId[*pnCount]	= nId;

  0027a	0f b6 17	 movzx	 edx, BYTE PTR [edi]
  0027d	88 1c 0a	 mov	 BYTE PTR [edx+ecx], bl

; 711  : 						pnNum[*pnCount]		= pElemtmp->m_nItemNum;	

  00280	66 8b 90 80 00
	00 00		 mov	 dx, WORD PTR [eax+128]
  00287	0f b6 0f	 movzx	 ecx, BYTE PTR [edi]
  0028a	8b 44 24 28	 mov	 eax, DWORD PTR _pnNum$[esp+24]
  0028e	66 89 14 48	 mov	 WORD PTR [eax+ecx*2], dx

; 712  : 						( *pnCount )++;

  00292	fe 07		 inc	 BYTE PTR [edi]
  00294	5f		 pop	 edi
  00295	5e		 pop	 esi
  00296	5d		 pop	 ebp

; 764  : 	return TRUE;

  00297	b8 01 00 00 00	 mov	 eax, 1
  0029c	5b		 pop	 ebx

; 765  : }

  0029d	83 c4 0c	 add	 esp, 12			; 0000000cH
  002a0	c2 10 00	 ret	 16			; 00000010H
$L255542:

; 745  : 					}
; 746  : 				}
; 747  : 				else
; 748  : 				{
; 749  : 					pElemtmp->m_nItemNum	= nNumtmp;
; 750  : 					nNumtmp	= 0;
; 751  : 					if( pnId )

  002a3	8b 44 24 24	 mov	 eax, DWORD PTR _pnId$[esp+24]
  002a7	85 c0		 test	 eax, eax
  002a9	66 89 ae 80 00
	00 00		 mov	 WORD PTR [esi+128], bp
  002b0	74 a5		 je	 SHORT $L258754

; 752  : 					{
; 753  : 						pnId[*pnCount]	= nId;

  002b2	0f b6 0f	 movzx	 ecx, BYTE PTR [edi]
  002b5	88 1c 01	 mov	 BYTE PTR [ecx+eax], bl

; 754  : 						pnNum[*pnCount]		= pElemtmp->m_nItemNum;

  002b8	0f b6 17	 movzx	 edx, BYTE PTR [edi]
  002bb	66 8b 86 80 00
	00 00		 mov	 ax, WORD PTR [esi+128]
  002c2	8b 4c 24 28	 mov	 ecx, DWORD PTR _pnNum$[esp+24]
  002c6	66 89 04 51	 mov	 WORD PTR [ecx+edx*2], ax

; 755  : 						( *pnCount )++;

  002ca	fe 07		 inc	 BYTE PTR [edi]
  002cc	5f		 pop	 edi
  002cd	5e		 pop	 esi
  002ce	5d		 pop	 ebp

; 764  : 	return TRUE;

  002cf	b8 01 00 00 00	 mov	 eax, 1
  002d4	5b		 pop	 ebx

; 765  : }

  002d5	83 c4 0c	 add	 esp, 12			; 0000000cH
  002d8	c2 10 00	 ret	 16			; 00000010H
?Add@?$CItemContainer@VCItemElem@@@@QAEHPAVCItemElem@@PAEPAF1@Z ENDP ; CItemContainer<CItemElem>::Add
_TEXT	ENDS
PUBLIC	?_Tidy@?$basic_string@DU?$char_traits@D@std@@V?$allocator@D@2@@std@@IAEX_NI@Z ; std::basic_string<char,std::char_traits<char>,std::allocator<char> >::_Tidy
; Function compile flags: /Ogty
; File c:\program files\microsoft visual studio .net 2003\vc7\include\xstring
;	COMDAT ?_Tidy@?$basic_string@DU?$char_traits@D@std@@V?$allocator@D@2@@std@@IAEX_NI@Z
_TEXT	SEGMENT
__Built$ = 8						; size = 1
__Newsize$ = 12						; size = 4
?_Tidy@?$basic_string@DU?$char_traits@D@std@@V?$allocator@D@2@@std@@IAEX_NI@Z PROC NEAR ; std::basic_string<char,std::char_traits<char>,std::allocator<char> >::_Tidy, COMDAT
; _this$ = ecx

; 1510 : 		if (!_Built)

  00000	8a 44 24 04	 mov	 al, BYTE PTR __Built$[esp-4]
  00004	84 c0		 test	 al, al
  00006	53		 push	 ebx
  00007	55		 push	 ebp
  00008	8b 6c 24 10	 mov	 ebp, DWORD PTR __Newsize$[esp+4]
  0000c	8b d9		 mov	 ebx, ecx
  0000e	74 2f		 je	 SHORT $L258766

; 1511 : 			;
; 1512 : 		else if (_BUF_SIZE <= _Myres)

  00010	83 7b 18 10	 cmp	 DWORD PTR [ebx+24], 16	; 00000010H
  00014	72 29		 jb	 SHORT $L258766

; 1513 : 			{	// copy any leftovers to small buffer and deallocate
; 1514 : 			_Elem *_Ptr = _Bx._Ptr;
; 1515 : 			if (0 < _Newsize)

  00016	85 ed		 test	 ebp, ebp
  00018	8b 43 04	 mov	 eax, DWORD PTR [ebx+4]
  0001b	57		 push	 edi
  0001c	8d 7b 04	 lea	 edi, DWORD PTR [ebx+4]
  0001f	76 14		 jbe	 SHORT $L258763
  00021	56		 push	 esi

; 1516 : 				_Traits::copy(_Bx._Buf, _Ptr, _Newsize);

  00022	8b cd		 mov	 ecx, ebp
  00024	8b d1		 mov	 edx, ecx
  00026	c1 e9 02	 shr	 ecx, 2
  00029	8b f0		 mov	 esi, eax
  0002b	f3 a5		 rep movsd
  0002d	8b ca		 mov	 ecx, edx
  0002f	83 e1 03	 and	 ecx, 3
  00032	f3 a4		 rep movsb
  00034	5e		 pop	 esi
$L258763:

; 1517 : 			_Mybase::_Alval.deallocate(_Ptr, _Myres + 1);

  00035	50		 push	 eax
  00036	e8 00 00 00 00	 call	 ??3@YAXPAX@Z		; operator delete
  0003b	83 c4 04	 add	 esp, 4
  0003e	5f		 pop	 edi
$L258766:

; 1518 : 			}
; 1519 : 		_Myres = _BUF_SIZE - 1;
; 1520 : 		_Eos(_Newsize);

  0003f	89 6b 14	 mov	 DWORD PTR [ebx+20], ebp
  00042	c7 43 18 0f 00
	00 00		 mov	 DWORD PTR [ebx+24], 15	; 0000000fH
  00049	c6 44 2b 04 00	 mov	 BYTE PTR [ebx+ebp+4], 0
  0004e	5d		 pop	 ebp
  0004f	5b		 pop	 ebx

; 1521 : 		}

  00050	c2 08 00	 ret	 8
?_Tidy@?$basic_string@DU?$char_traits@D@std@@V?$allocator@D@2@@std@@IAEX_NI@Z ENDP ; std::basic_string<char,std::char_traits<char>,std::allocator<char> >::_Tidy
_TEXT	ENDS
PUBLIC	?erase@?$basic_string@DU?$char_traits@D@std@@V?$allocator@D@2@@std@@QAEAAV12@II@Z ; std::basic_string<char,std::char_traits<char>,std::allocator<char> >::erase
EXTRN	?_Xran@_String_base@std@@QBEXXZ:NEAR		; std::_String_base::_Xran
; Function compile flags: /Ogty
;	COMDAT ?erase@?$basic_string@DU?$char_traits@D@std@@V?$allocator@D@2@@std@@QAEAAV12@II@Z
_TEXT	SEGMENT
__Off$ = 8						; size = 4
__Count$ = 12						; size = 4
?erase@?$basic_string@DU?$char_traits@D@std@@V?$allocator@D@2@@std@@QAEAAV12@II@Z PROC NEAR ; std::basic_string<char,std::char_traits<char>,std::allocator<char> >::erase, COMDAT
; _this$ = ecx

; 792  : 		{	// erase elements [_Off, _Off + _Count)

  00000	55		 push	 ebp

; 793  : 		if (_Mysize < _Off)

  00001	8b 6c 24 08	 mov	 ebp, DWORD PTR __Off$[esp]
  00005	56		 push	 esi
  00006	8b f1		 mov	 esi, ecx
  00008	39 6e 14	 cmp	 DWORD PTR [esi+20], ebp
  0000b	57		 push	 edi
  0000c	73 05		 jae	 SHORT $L221371

; 794  : 			_String_base::_Xran();	// _Off off end

  0000e	e8 00 00 00 00	 call	 ?_Xran@_String_base@std@@QBEXXZ ; std::_String_base::_Xran
$L221371:

; 795  : 		if (_Mysize - _Off < _Count)

  00013	8b 46 14	 mov	 eax, DWORD PTR [esi+20]
  00016	8b 7c 24 14	 mov	 edi, DWORD PTR __Count$[esp+8]
  0001a	2b c5		 sub	 eax, ebp
  0001c	3b c7		 cmp	 eax, edi
  0001e	73 02		 jae	 SHORT $L221372

; 796  : 			_Count = _Mysize - _Off;	// trim _Count

  00020	8b f8		 mov	 edi, eax
$L221372:

; 797  : 		if (0 < _Count)

  00022	85 ff		 test	 edi, edi
  00024	76 47		 jbe	 SHORT $L258832

; 798  : 			{	// move elements down
; 799  : 			_Traits::move(_Myptr() + _Off, _Myptr() + _Off + _Count,
; 800  : 				_Mysize - _Off - _Count);

  00026	8b 4e 18	 mov	 ecx, DWORD PTR [esi+24]
  00029	83 f9 10	 cmp	 ecx, 16			; 00000010H
  0002c	53		 push	 ebx
  0002d	8d 5e 04	 lea	 ebx, DWORD PTR [esi+4]
  00030	72 04		 jb	 SHORT $L258798
  00032	8b 13		 mov	 edx, DWORD PTR [ebx]
  00034	eb 02		 jmp	 SHORT $L258799
$L258798:
  00036	8b d3		 mov	 edx, ebx
$L258799:
  00038	83 f9 10	 cmp	 ecx, 16			; 00000010H
  0003b	72 04		 jb	 SHORT $L258805
  0003d	8b 0b		 mov	 ecx, DWORD PTR [ebx]
  0003f	eb 02		 jmp	 SHORT $L258806
$L258805:
  00041	8b cb		 mov	 ecx, ebx
$L258806:
  00043	2b c7		 sub	 eax, edi

; 803  : 			}
; 804  : 		return (*this);

  00045	03 d5		 add	 edx, ebp
  00047	50		 push	 eax
  00048	03 d7		 add	 edx, edi
  0004a	52		 push	 edx
  0004b	03 cd		 add	 ecx, ebp
  0004d	51		 push	 ecx
  0004e	e8 00 00 00 00	 call	 _memmove
  00053	8b 46 14	 mov	 eax, DWORD PTR [esi+20]
  00056	8b 4e 18	 mov	 ecx, DWORD PTR [esi+24]
  00059	2b c7		 sub	 eax, edi
  0005b	83 c4 0c	 add	 esp, 12			; 0000000cH
  0005e	83 f9 10	 cmp	 ecx, 16			; 00000010H
  00061	89 46 14	 mov	 DWORD PTR [esi+20], eax
  00064	72 02		 jb	 SHORT $L258829

; 801  : 			size_type _Newsize = _Mysize - _Count;
; 802  : 			_Eos(_Newsize);

  00066	8b 1b		 mov	 ebx, DWORD PTR [ebx]
$L258829:
  00068	c6 04 03 00	 mov	 BYTE PTR [ebx+eax], 0
  0006c	5b		 pop	 ebx
$L258832:
  0006d	5f		 pop	 edi

; 803  : 			}
; 804  : 		return (*this);

  0006e	8b c6		 mov	 eax, esi
  00070	5e		 pop	 esi
  00071	5d		 pop	 ebp

; 805  : 		}

  00072	c2 08 00	 ret	 8
?erase@?$basic_string@DU?$char_traits@D@std@@V?$allocator@D@2@@std@@QAEAAV12@II@Z ENDP ; std::basic_string<char,std::char_traits<char>,std::allocator<char> >::erase
_TEXT	ENDS
PUBLIC	?_Copy@?$basic_string@DU?$char_traits@D@std@@V?$allocator@D@2@@std@@IAEXII@Z ; std::basic_string<char,std::char_traits<char>,std::allocator<char> >::_Copy
EXTRN	__CxxThrowException@8:NEAR
;	COMDAT xdata$x
; File c:\program files\microsoft visual studio .net 2003\vc7\include\iosfwd
xdata$x	SEGMENT
$T259037 DD	0ffffffffH
	DD	00H
	DD	0ffffffffH
	DD	00H
	DD	01H
	DD	00H
	DD	01H
	DD	00H
$T259039 DD	00H
	DD	00H
	DD	00H
	DD	FLAT:$L258840
$T259040 DD	00H
	DD	00H
	DD	00H
	DD	FLAT:$L258838
$T259038 DD	02H
	DD	02H
	DD	03H
	DD	01H
	DD	FLAT:$T259039
	DD	00H
	DD	00H
	DD	03H
	DD	01H
	DD	FLAT:$T259040
$T259032 DD	019930520H
	DD	04H
	DD	FLAT:$T259037
	DD	02H
	DD	FLAT:$T259038
	DD	2 DUP(00H)
; Function compile flags: /Ogty
; File c:\program files\microsoft visual studio .net 2003\vc7\include\xstring
xdata$x	ENDS
;	COMDAT ?_Copy@?$basic_string@DU?$char_traits@D@std@@V?$allocator@D@2@@std@@IAEXII@Z
_TEXT	SEGMENT
__Newres$ = -24						; size = 4
_this$ = -20						; size = 4
__$EHRec$ = -16						; size = 16
__Ptr$ = 8						; size = 4
__Newsize$ = 8						; size = 4
__Oldlen$ = 12						; size = 4
?_Copy@?$basic_string@DU?$char_traits@D@std@@V?$allocator@D@2@@std@@IAEXII@Z PROC NEAR ; std::basic_string<char,std::char_traits<char>,std::allocator<char> >::_Copy, COMDAT
; _this$ = ecx

; 1444 : 		{	// copy _Oldlen elements to newly allocated buffer

  00000	55		 push	 ebp
  00001	8b ec		 mov	 ebp, esp
  00003	6a ff		 push	 -1
  00005	68 00 00 00 00	 push	 __ehhandler$?_Copy@?$basic_string@DU?$char_traits@D@std@@V?$allocator@D@2@@std@@IAEXII@Z
  0000a	64 a1 00 00 00
	00		 mov	 eax, DWORD PTR fs:__except_list
  00010	50		 push	 eax
  00011	64 89 25 00 00
	00 00		 mov	 DWORD PTR fs:__except_list, esp
  00018	83 ec 0c	 sub	 esp, 12			; 0000000cH

; 1445 : 		size_type _Newres = _Newsize | _ALLOC_MASK;

  0001b	8b 45 08	 mov	 eax, DWORD PTR __Newsize$[ebp]
  0001e	53		 push	 ebx
  0001f	56		 push	 esi
  00020	8b d8		 mov	 ebx, eax
  00022	83 cb 0f	 or	 ebx, 15			; 0000000fH

; 1446 : 		if (max_size() < _Newres)

  00025	83 fb fe	 cmp	 ebx, -2			; fffffffeH
  00028	57		 push	 edi
  00029	8b f1		 mov	 esi, ecx
  0002b	89 65 f0	 mov	 DWORD PTR __$EHRec$[ebp], esp
  0002e	89 75 ec	 mov	 DWORD PTR _this$[ebp], esi
  00031	76 04		 jbe	 SHORT $L222778

; 1447 : 			_Newres = _Newsize;	// undo roundup if too big

  00033	8b d8		 mov	 ebx, eax

; 1448 : 		else if (_Newres / 3 < _Myres / 2

  00035	eb 22		 jmp	 SHORT $L222780
$L222778:

; 1449 : 			&& _Myres <= max_size() - _Myres / 2)

  00037	8b 7e 18	 mov	 edi, DWORD PTR [esi+24]
  0003a	b8 ab aa aa aa	 mov	 eax, -1431655765	; aaaaaaabH
  0003f	f7 e3		 mul	 ebx
  00041	8b cf		 mov	 ecx, edi
  00043	d1 e9		 shr	 ecx, 1
  00045	d1 ea		 shr	 edx, 1
  00047	3b d1		 cmp	 edx, ecx
  00049	73 0e		 jae	 SHORT $L222780
  0004b	b8 fe ff ff ff	 mov	 eax, -2			; fffffffeH
  00050	2b c1		 sub	 eax, ecx
  00052	3b f8		 cmp	 edi, eax
  00054	77 03		 ja	 SHORT $L222780

; 1450 : 			_Newres = _Myres + _Myres / 2;	// grow exponentially if possible

  00056	8d 1c 39	 lea	 ebx, DWORD PTR [ecx+edi]
$L222780:

; 1451 : 		_Elem *_Ptr;
; 1452 : 
; 1453 : 		_TRY_BEGIN
; 1454 : 			_Ptr = _Mybase::_Alval.allocate(_Newres + 1);

  00059	8d 4b 01	 lea	 ecx, DWORD PTR [ebx+1]
  0005c	51		 push	 ecx
  0005d	c7 45 fc 00 00
	00 00		 mov	 DWORD PTR __$EHRec$[ebp+12], 0
  00064	e8 00 00 00 00	 call	 ??2@YAPAXI@Z		; operator new
  00069	8b d0		 mov	 edx, eax
  0006b	83 c4 04	 add	 esp, 4
  0006e	89 55 08	 mov	 DWORD PTR __Ptr$[ebp], edx
  00071	eb 29		 jmp	 SHORT $L222782
$L258838:

; 1455 : 		_CATCH_ALL
; 1456 : 			_Newres = _Newsize;	// allocation failed, undo roundup and retry

  00073	8b 45 08	 mov	 eax, DWORD PTR __Newsize$[ebp]
  00076	89 45 e8	 mov	 DWORD PTR __Newres$[ebp], eax

; 1457 : 			_TRY_BEGIN
; 1458 : 				_Ptr = _Mybase::_Alval.allocate(_Newres + 1);

  00079	40		 inc	 eax
  0007a	89 65 f0	 mov	 DWORD PTR __$EHRec$[ebp], esp
  0007d	50		 push	 eax
  0007e	c6 45 fc 02	 mov	 BYTE PTR __$EHRec$[ebp+12], 2
  00082	e8 00 00 00 00	 call	 ??2@YAPAXI@Z		; operator new
  00087	89 45 08	 mov	 DWORD PTR __Ptr$[ebp], eax
  0008a	83 c4 04	 add	 esp, 4

; 1462 : 			_CATCH_END
; 1463 : 		_CATCH_END

  0008d	b8 00 00 00 00	 mov	 eax, $L259033
  00092	c3		 ret	 0
$L259033:
  00093	8b 5d e8	 mov	 ebx, DWORD PTR __Newres$[ebp]
  00096	8b 75 ec	 mov	 esi, DWORD PTR _this$[ebp]
  00099	8b 55 08	 mov	 edx, DWORD PTR __Ptr$[ebp]
$L222782:

; 1464 : 
; 1465 : 		if (0 < _Oldlen)

  0009c	8b 4d 0c	 mov	 ecx, DWORD PTR __Oldlen$[ebp]
  0009f	85 c9		 test	 ecx, ecx
  000a1	76 24		 jbe	 SHORT $L258957

; 1466 : 			_Traits::copy(_Ptr, _Myptr(), _Oldlen);	// copy existing elements

  000a3	83 7e 18 10	 cmp	 DWORD PTR [esi+24], 16	; 00000010H
  000a7	72 05		 jb	 SHORT $L258954
  000a9	8b 76 04	 mov	 esi, DWORD PTR [esi+4]
  000ac	eb 03		 jmp	 SHORT $L258955
$L258954:
  000ae	83 c6 04	 add	 esi, 4
$L258955:
  000b1	8b c1		 mov	 eax, ecx
  000b3	c1 e9 02	 shr	 ecx, 2
  000b6	8b fa		 mov	 edi, edx
  000b8	f3 a5		 rep movsd
  000ba	8b c8		 mov	 ecx, eax
  000bc	83 e1 03	 and	 ecx, 3
  000bf	f3 a4		 rep movsb
  000c1	8b 75 ec	 mov	 esi, DWORD PTR _this$[ebp]
  000c4	8b 4d 0c	 mov	 ecx, DWORD PTR __Oldlen$[ebp]
$L258957:

; 1467 : 		_Tidy(true);

  000c7	83 7e 18 10	 cmp	 DWORD PTR [esi+24], 16	; 00000010H
  000cb	72 12		 jb	 SHORT $L258993
  000cd	8b 4e 04	 mov	 ecx, DWORD PTR [esi+4]
  000d0	51		 push	 ecx
  000d1	e8 00 00 00 00	 call	 ??3@YAXPAX@Z		; operator delete
  000d6	8b 55 08	 mov	 edx, DWORD PTR __Ptr$[ebp]
  000d9	8b 4d 0c	 mov	 ecx, DWORD PTR __Oldlen$[ebp]
  000dc	83 c4 04	 add	 esp, 4
$L258993:

; 1468 : 		_Bx._Ptr = _Ptr;
; 1469 : 		_Myres = _Newres;
; 1470 : 		_Eos(_Oldlen);

  000df	83 fb 10	 cmp	 ebx, 16			; 00000010H
  000e2	8d 46 04	 lea	 eax, DWORD PTR [esi+4]
  000e5	c6 00 00	 mov	 BYTE PTR [eax], 0
  000e8	89 10		 mov	 DWORD PTR [eax], edx
  000ea	89 5e 18	 mov	 DWORD PTR [esi+24], ebx
  000ed	89 4e 14	 mov	 DWORD PTR [esi+20], ecx
  000f0	72 02		 jb	 SHORT $L259028
  000f2	8b c2		 mov	 eax, edx
$L259028:

; 1471 : 		}

  000f4	5f		 pop	 edi
  000f5	c6 04 08 00	 mov	 BYTE PTR [eax+ecx], 0
  000f9	8b 4d f4	 mov	 ecx, DWORD PTR __$EHRec$[ebp+4]
  000fc	5e		 pop	 esi
  000fd	64 89 0d 00 00
	00 00		 mov	 DWORD PTR fs:__except_list, ecx
  00104	5b		 pop	 ebx
  00105	8b e5		 mov	 esp, ebp
  00107	5d		 pop	 ebp
  00108	c2 08 00	 ret	 8
$L258840:

; 1459 : 			_CATCH_ALL
; 1460 : 			_Tidy(true);	// failed again, discard storage and reraise

  0010b	8b 75 ec	 mov	 esi, DWORD PTR _this$[ebp]
  0010e	83 7e 18 10	 cmp	 DWORD PTR [esi+24], 16	; 00000010H
  00112	72 0c		 jb	 SHORT $L258932
  00114	8b 56 04	 mov	 edx, DWORD PTR [esi+4]
  00117	52		 push	 edx
  00118	e8 00 00 00 00	 call	 ??3@YAXPAX@Z		; operator delete
  0011d	83 c4 04	 add	 esp, 4
$L258932:

; 1461 : 			_RERAISE;

  00120	6a 00		 push	 0
  00122	c7 46 18 0f 00
	00 00		 mov	 DWORD PTR [esi+24], 15	; 0000000fH
  00129	c7 46 14 00 00
	00 00		 mov	 DWORD PTR [esi+20], 0
  00130	6a 00		 push	 0
  00132	c6 46 04 00	 mov	 BYTE PTR [esi+4], 0
  00136	e8 00 00 00 00	 call	 __CxxThrowException@8
$L259041:
$L259036:
  0013b	cc		 int	 3
_TEXT	ENDS
;	COMDAT text$x
text$x	SEGMENT
__ehhandler$?_Copy@?$basic_string@DU?$char_traits@D@std@@V?$allocator@D@2@@std@@IAEXII@Z:
  00000	b8 00 00 00 00	 mov	 eax, OFFSET FLAT:$T259032
  00005	e9 00 00 00 00	 jmp	 ___CxxFrameHandler
text$x	ENDS
?_Copy@?$basic_string@DU?$char_traits@D@std@@V?$allocator@D@2@@std@@IAEXII@Z ENDP ; std::basic_string<char,std::char_traits<char>,std::allocator<char> >::_Copy
PUBLIC	?TradeConsent@CVTInfo@@QAEHXZ			; CVTInfo::TradeConsent
;	COMDAT xdata$x
; File c:\documents and settings\test\mes documents\source\virtuos_v17\build\program\_common\item.h
xdata$x	SEGMENT
$T259418 DD	0ffffffffH
	DD	FLAT:$L259047
$T259393 DD	019930520H
	DD	01H
	DD	FLAT:$T259418
	DD	2 DUP(00H)
	DD	2 DUP(00H)
; Function compile flags: /Ogty
; File c:\documents and settings\test\mes documents\source\virtuos_v17\build\program\_common\moveritem.cpp
xdata$x	ENDS
;	COMDAT ?TradeConsent@CVTInfo@@QAEHXZ
_TEXT	SEGMENT
_this$ = -40						; size = 4
tv434 = -36						; size = 4
_nCount$259237 = -36					; size = 4
_nTraderGold$ = -36					; size = 4
_a$ = -32						; size = 20
__$EHRec$ = -12						; size = 12
?TradeConsent@CVTInfo@@QAEHXZ PROC NEAR			; CVTInfo::TradeConsent, COMDAT
; _this$ = ecx

; 133  : {

  00000	6a ff		 push	 -1
  00002	68 00 00 00 00	 push	 __ehhandler$?TradeConsent@CVTInfo@@QAEHXZ
  00007	64 a1 00 00 00
	00		 mov	 eax, DWORD PTR fs:__except_list
  0000d	50		 push	 eax
  0000e	64 89 25 00 00
	00 00		 mov	 DWORD PTR fs:__except_list, esp
  00015	83 ec 1c	 sub	 esp, 28			; 0000001cH
  00018	55		 push	 ebp
  00019	57		 push	 edi
  0001a	8b f9		 mov	 edi, ecx

; 134  : 	CMover* pTrader	= GetOther();

  0001c	8b 47 7c	 mov	 eax, DWORD PTR [edi+124]
  0001f	83 f8 ff	 cmp	 eax, -1
  00022	89 7c 24 08	 mov	 DWORD PTR _this$[esp+48], edi
  00026	74 13		 je	 SHORT $L259406
  00028	50		 push	 eax
  00029	b9 00 00 00 00	 mov	 ecx, OFFSET FLAT:?prj@@3VCProject@@A
  0002e	e8 00 00 00 00	 call	 ?GetMover@CProject@@QAEPAVCMover@@K@Z ; CProject::GetMover
  00033	8b e8		 mov	 ebp, eax

; 135  : 	if( pTrader == NULL )

  00035	33 c0		 xor	 eax, eax
  00037	3b e8		 cmp	 ebp, eax
  00039	75 13		 jne	 SHORT $L253059
$L259406:
  0003b	5f		 pop	 edi

; 136  : 		return FALSE;

  0003c	33 c0		 xor	 eax, eax
  0003e	5d		 pop	 ebp

; 215  : }

  0003f	8b 4c 24 1c	 mov	 ecx, DWORD PTR __$EHRec$[esp+40]
  00043	64 89 0d 00 00
	00 00		 mov	 DWORD PTR fs:__except_list, ecx
  0004a	83 c4 28	 add	 esp, 40			; 00000028H
  0004d	c3		 ret	 0
$L253059:
  0004e	53		 push	 ebx
  0004f	56		 push	 esi

; 137  : 
; 138  : 	int cbI	= 0, cbYou	= 0;
; 139  : 	CItemContainer<CItemElem> a;

  00050	c7 44 24 18 00
	00 00 00	 mov	 DWORD PTR _a$[esp+56], OFFSET FLAT:??_7?$CItemContainer@VCItemElem@@@@6B@
  00058	89 44 24 20	 mov	 DWORD PTR _a$[esp+64], eax
  0005c	89 44 24 24	 mov	 DWORD PTR _a$[esp+68], eax
  00060	89 44 24 28	 mov	 DWORD PTR _a$[esp+72], eax
  00064	89 44 24 1c	 mov	 DWORD PTR _a$[esp+60], eax

; 140  : 	a.SetItemContainer( ITYPE_ITEM, MAX_TRADE );

  00068	6a ff		 push	 -1
  0006a	6a 19		 push	 25			; 00000019H
  0006c	50		 push	 eax
  0006d	8d 4c 24 24	 lea	 ecx, DWORD PTR _a$[esp+68]
  00071	89 44 24 40	 mov	 DWORD PTR __$EHRec$[esp+76], eax
  00075	e8 00 00 00 00	 call	 ?SetItemContainer@?$CItemContainer@VCItemElem@@@@QAEXKKK@Z ; CItemContainer<CItemElem>::SetItemContainer
  0007a	8d 47 04	 lea	 eax, DWORD PTR [edi+4]
  0007d	8b d8		 mov	 ebx, eax
  0007f	c7 44 24 14 19
	00 00 00	 mov	 DWORD PTR tv434[esp+56], 25 ; 00000019H
  00087	eb 07		 jmp	 SHORT $L253065
$L259412:

; 137  : 
; 138  : 	int cbI	= 0, cbYou	= 0;
; 139  : 	CItemContainer<CItemElem> a;

  00089	8b 7c 24 10	 mov	 edi, DWORD PTR _this$[esp+56]
  0008d	8d 49 00	 npad	 3
$L253065:

; 141  : 			
; 142  : 	CItemBase* pItemBase;
; 143  : 	for( int i = 0; i < MAX_TRADE; i++ )
; 144  : 	{
; 145  : 		pItemBase = m_apItem_VT[i];

  00090	8b 33		 mov	 esi, DWORD PTR [ebx]

; 146  : 		if( !pItemBase )

  00092	85 f6		 test	 esi, esi
  00094	0f 84 a5 00 00
	00		 je	 $L253066

; 147  : 			continue;
; 148  : 
; 149  : 		m_apItem_VT[i] = NULL;

  0009a	c7 03 00 00 00
	00		 mov	 DWORD PTR [ebx], 0

; 150  : 		CItemElem* pItemElem = ( CItemElem* )pItemBase;
; 151  : 		if( pItemElem->GetProp()->dwPackMax > 1 )

  000a0	8b 46 0c	 mov	 eax, DWORD PTR [esi+12]
  000a3	85 c0		 test	 eax, eax
  000a5	8b 0d 5c 02 00
	00		 mov	 ecx, DWORD PTR ?prj@@3VCProject@@A+604
  000ab	7c 11		 jl	 SHORT $L259107
  000ad	3b c1		 cmp	 eax, ecx
  000af	7d 0d		 jge	 SHORT $L259107
  000b1	73 21		 jae	 SHORT $L259416
  000b3	8b 0d 4c 02 00
	00		 mov	 ecx, DWORD PTR ?prj@@3VCProject@@A+588
  000b9	8b 04 81	 mov	 eax, DWORD PTR [ecx+eax*4]
  000bc	eb 18		 jmp	 SHORT $L259102
$L259107:
  000be	50		 push	 eax
  000bf	51		 push	 ecx
  000c0	6a 00		 push	 0
  000c2	68 00 00 00 00	 push	 OFFSET FLAT:??_C@_0BI@BEIFNGEL@GetItemProp?5range_error?$AA@
  000c7	68 00 00 00 00	 push	 OFFSET FLAT:??_C@_0BM@HMFGHCP@?$CFs?5min?3?$CFd?0?5max?3?$CFd?0?5index?3?$CFd?$AA@
  000cc	e8 00 00 00 00	 call	 ?Error@@YAPBDPBDZZ	; Error
  000d1	83 c4 14	 add	 esp, 20			; 00000014H
$L259416:
  000d4	33 c0		 xor	 eax, eax
$L259102:
  000d6	8b 48 6c	 mov	 ecx, DWORD PTR [eax+108]

; 152  : 		{
; 153  : 			short nTradeNum = pItemElem->m_nItemNum - (short)pItemBase->GetExtra();
; 154  : 			pItemElem->m_nItemNum = pItemBase->GetExtra();
; 155  : 			a.Add( pItemElem );

  000d9	6a 00		 push	 0
  000db	6a 00		 push	 0
  000dd	6a 00		 push	 0
  000df	83 f9 01	 cmp	 ecx, 1
  000e2	56		 push	 esi
  000e3	8d 4c 24 28	 lea	 ecx, DWORD PTR _a$[esp+72]
  000e7	76 3c		 jbe	 SHORT $L253071
  000e9	8b 46 10	 mov	 eax, DWORD PTR [esi+16]
  000ec	66 8b be 80 00
	00 00		 mov	 di, WORD PTR [esi+128]
  000f3	66 2b f8	 sub	 di, ax
  000f6	66 89 86 80 00
	00 00		 mov	 WORD PTR [esi+128], ax
  000fd	e8 00 00 00 00	 call	 ?Add@?$CItemContainer@VCItemElem@@@@QAEHPAVCItemElem@@PAEPAF1@Z ; CItemContainer<CItemElem>::Add

; 156  : 			pItemElem->m_nItemNum = nTradeNum;
; 157  : 			pItemElem->SetExtra( 0 );
; 158  : 			if( nTradeNum == 0 )

  00102	66 85 ff	 test	 di, di
  00105	66 89 be 80 00
	00 00		 mov	 WORD PTR [esi+128], di
  0010c	c7 46 10 00 00
	00 00		 mov	 DWORD PTR [esi+16], 0
  00113	75 2a		 jne	 SHORT $L253066

; 159  : 				m_pOwner->m_Inventory.RemoveAtId( pItemBase->m_dwObjId );	// 

  00115	8b 56 04	 mov	 edx, DWORD PTR [esi+4]
  00118	8b 44 24 10	 mov	 eax, DWORD PTR _this$[esp+56]
  0011c	8b 88 80 00 00
	00		 mov	 ecx, DWORD PTR [eax+128]
  00122	52		 push	 edx

; 160  : 		}
; 161  : 		else

  00123	eb 0f		 jmp	 SHORT $L259415
$L253071:

; 162  : 		{
; 163  : 			a.Add( pItemElem );

  00125	e8 00 00 00 00	 call	 ?Add@?$CItemContainer@VCItemElem@@@@QAEHPAVCItemElem@@PAEPAF1@Z ; CItemContainer<CItemElem>::Add

; 164  : 			m_pOwner->m_Inventory.RemoveAtId( pItemBase->m_dwObjId );

  0012a	8b 4e 04	 mov	 ecx, DWORD PTR [esi+4]
  0012d	51		 push	 ecx
  0012e	8b 8f 80 00 00
	00		 mov	 ecx, DWORD PTR [edi+128]
$L259415:
  00134	81 c1 90 0b 00
	00		 add	 ecx, 2960		; 00000b90H
  0013a	e8 00 00 00 00	 call	 ?RemoveAtId@?$CItemContainer@VCItemElem@@@@QAEXK@Z ; CItemContainer<CItemElem>::RemoveAtId
$L253066:
  0013f	8b 44 24 14	 mov	 eax, DWORD PTR tv434[esp+56]
  00143	83 c3 04	 add	 ebx, 4
  00146	48		 dec	 eax
  00147	89 44 24 14	 mov	 DWORD PTR tv434[esp+56], eax
  0014b	0f 85 38 ff ff
	ff		 jne	 $L259412

; 165  : 		}
; 166  : 	}
; 167  : 		
; 168  : 	for( i = 0; i < MAX_TRADE; i++ )

  00151	33 db		 xor	 ebx, ebx
$L259413:

; 169  : 	{
; 170  : 		pItemBase = pTrader->m_vtInfo.GetItem( i );

  00153	0f b6 d3	 movzx	 edx, bl
  00156	8b b4 95 80 0d
	00 00		 mov	 esi, DWORD PTR [ebp+edx*4+3456]

; 171  : 		if( pItemBase == NULL )

  0015d	85 f6		 test	 esi, esi
  0015f	8d 84 95 80 0d
	00 00		 lea	 eax, DWORD PTR [ebp+edx*4+3456]
  00166	0f 84 6e 01 00
	00		 je	 $L253077

; 172  : 			continue;
; 173  : 
; 174  : 		pTrader->m_vtInfo.SetItem( i, NULL );

  0016c	c7 00 00 00 00
	00		 mov	 DWORD PTR [eax], 0

; 175  : 		CItemElem* pItemElem = ( CItemElem* )pItemBase;
; 176  : 		if( pItemElem->GetProp()->dwPackMax > 1 )

  00172	8b 46 0c	 mov	 eax, DWORD PTR [esi+12]
  00175	85 c0		 test	 eax, eax
  00177	8b 0d 5c 02 00
	00		 mov	 ecx, DWORD PTR ?prj@@3VCProject@@A+604
  0017d	7c 11		 jl	 SHORT $L259200
  0017f	3b c1		 cmp	 eax, ecx
  00181	7d 0d		 jge	 SHORT $L259200
  00183	73 21		 jae	 SHORT $L259417
  00185	8b 0d 4c 02 00
	00		 mov	 ecx, DWORD PTR ?prj@@3VCProject@@A+588
  0018b	8b 04 81	 mov	 eax, DWORD PTR [ecx+eax*4]
  0018e	eb 18		 jmp	 SHORT $L259195
$L259200:
  00190	50		 push	 eax
  00191	51		 push	 ecx
  00192	6a 00		 push	 0
  00194	68 00 00 00 00	 push	 OFFSET FLAT:??_C@_0BI@BEIFNGEL@GetItemProp?5range_error?$AA@
  00199	68 00 00 00 00	 push	 OFFSET FLAT:??_C@_0BM@HMFGHCP@?$CFs?5min?3?$CFd?0?5max?3?$CFd?0?5index?3?$CFd?$AA@
  0019e	e8 00 00 00 00	 call	 ?Error@@YAPBDPBDZZ	; Error
  001a3	83 c4 14	 add	 esp, 20			; 00000014H
$L259417:
  001a6	33 c0		 xor	 eax, eax
$L259195:
  001a8	83 78 6c 01	 cmp	 DWORD PTR [eax+108], 1

; 177  : 		{
; 178  : 			short nTradeNum = pItemElem->m_nItemNum - (short)pItemBase->GetExtra();
; 179  : 			pItemElem->m_nItemNum = pItemBase->GetExtra();
; 180  : 			m_pOwner->m_Inventory.Add( pItemElem );

  001ac	6a 00		 push	 0
  001ae	6a 00		 push	 0
  001b0	6a 00		 push	 0
  001b2	56		 push	 esi
  001b3	0f 86 ab 00 00
	00		 jbe	 $L253082
  001b9	8b 46 10	 mov	 eax, DWORD PTR [esi+16]
  001bc	66 8b be 80 00
	00 00		 mov	 di, WORD PTR [esi+128]
  001c3	8b 54 24 20	 mov	 edx, DWORD PTR _this$[esp+72]
  001c7	66 89 86 80 00
	00 00		 mov	 WORD PTR [esi+128], ax
  001ce	8b 8a 80 00 00
	00		 mov	 ecx, DWORD PTR [edx+128]
  001d4	81 c1 90 0b 00
	00		 add	 ecx, 2960		; 00000b90H
  001da	66 2b f8	 sub	 di, ax
  001dd	e8 00 00 00 00	 call	 ?Add@?$CItemContainer@VCItemElem@@@@QAEHPAVCItemElem@@PAEPAF1@Z ; CItemContainer<CItemElem>::Add

; 181  : 			pItemElem->m_nItemNum = nTradeNum;
; 182  : 			pItemElem->SetExtra( 0 );
; 183  : 			if( nTradeNum == 0 )

  001e2	66 85 ff	 test	 di, di
  001e5	66 89 be 80 00
	00 00		 mov	 WORD PTR [esi+128], di
  001ec	c7 46 10 00 00
	00 00		 mov	 DWORD PTR [esi+16], 0
  001f3	0f 85 e1 00 00
	00		 jne	 $L253077

; 184  : 				pTrader->m_Inventory.RemoveAtId( pItemBase->m_dwObjId );	// 

  001f9	8b 76 04	 mov	 esi, DWORD PTR [esi+4]
  001fc	8b 85 9c 0b 00
	00		 mov	 eax, DWORD PTR [ebp+2972]
  00202	3b f0		 cmp	 esi, eax
  00204	0f 83 d0 00 00
	00		 jae	 $L253077
  0020a	8b 8d a0 0b 00
	00		 mov	 ecx, DWORD PTR [ebp+2976]
  00210	69 f6 b8 00 00
	00		 imul	 esi, 184		; 000000b8H
  00216	39 44 0e 08	 cmp	 DWORD PTR [esi+ecx+8], eax
  0021a	0f 83 ba 00 00
	00		 jae	 $L253077
  00220	8b d1		 mov	 edx, ecx
  00222	8b 04 16	 mov	 eax, DWORD PTR [esi+edx]
  00225	8d 0c 16	 lea	 ecx, DWORD PTR [esi+edx]
  00228	ff 50 0c	 call	 DWORD PTR [eax+12]
  0022b	8b 8d a0 0b 00
	00		 mov	 ecx, DWORD PTR [ebp+2976]
  00231	8b 54 0e 08	 mov	 edx, DWORD PTR [esi+ecx+8]
  00235	3b 95 98 0b 00
	00		 cmp	 edx, DWORD PTR [ebp+2968]
  0023b	0f 82 99 00 00
	00		 jb	 $L253077
  00241	8b 95 94 0b 00
	00		 mov	 edx, DWORD PTR [ebp+2964]
  00247	8b c1		 mov	 eax, ecx
  00249	8b 4c 06 08	 mov	 ecx, DWORD PTR [esi+eax+8]
  0024d	c7 04 8a ff ff
	ff ff		 mov	 DWORD PTR [edx+ecx*4], -1
  00254	8b 85 a0 0b 00
	00		 mov	 eax, DWORD PTR [ebp+2976]
  0025a	c7 44 06 08 ff
	ff ff ff	 mov	 DWORD PTR [esi+eax+8], -1

; 185  : 		}
; 186  : 		else

  00262	eb 76		 jmp	 SHORT $L253077
$L253082:

; 187  : 		{
; 188  : 			m_pOwner->m_Inventory.Add( pItemElem );

  00264	8b 4c 24 20	 mov	 ecx, DWORD PTR _this$[esp+72]
  00268	8b 89 80 00 00
	00		 mov	 ecx, DWORD PTR [ecx+128]
  0026e	81 c1 90 0b 00
	00		 add	 ecx, 2960		; 00000b90H
  00274	e8 00 00 00 00	 call	 ?Add@?$CItemContainer@VCItemElem@@@@QAEHPAVCItemElem@@PAEPAF1@Z ; CItemContainer<CItemElem>::Add

; 189  : 			pTrader->m_Inventory.RemoveAtId( pItemBase->m_dwObjId );

  00279	8b 76 04	 mov	 esi, DWORD PTR [esi+4]
  0027c	8b 85 9c 0b 00
	00		 mov	 eax, DWORD PTR [ebp+2972]
  00282	3b f0		 cmp	 esi, eax
  00284	73 54		 jae	 SHORT $L253077
  00286	8b 95 a0 0b 00
	00		 mov	 edx, DWORD PTR [ebp+2976]
  0028c	69 f6 b8 00 00
	00		 imul	 esi, 184		; 000000b8H
  00292	39 44 32 08	 cmp	 DWORD PTR [edx+esi+8], eax
  00296	73 42		 jae	 SHORT $L253077
  00298	8b c2		 mov	 eax, edx
  0029a	8b 14 30	 mov	 edx, DWORD PTR [eax+esi]
  0029d	8d 0c 30	 lea	 ecx, DWORD PTR [eax+esi]
  002a0	ff 52 0c	 call	 DWORD PTR [edx+12]
  002a3	8b 85 a0 0b 00
	00		 mov	 eax, DWORD PTR [ebp+2976]
  002a9	8b 4c 30 08	 mov	 ecx, DWORD PTR [eax+esi+8]
  002ad	3b 8d 98 0b 00
	00		 cmp	 ecx, DWORD PTR [ebp+2968]
  002b3	72 25		 jb	 SHORT $L253077
  002b5	8b 95 a0 0b 00
	00		 mov	 edx, DWORD PTR [ebp+2976]
  002bb	8b 44 32 08	 mov	 eax, DWORD PTR [edx+esi+8]
  002bf	8b 8d 94 0b 00
	00		 mov	 ecx, DWORD PTR [ebp+2964]
  002c5	c7 04 81 ff ff
	ff ff		 mov	 DWORD PTR [ecx+eax*4], -1
  002cc	8b 95 a0 0b 00
	00		 mov	 edx, DWORD PTR [ebp+2976]
  002d2	c7 44 32 08 ff
	ff ff ff	 mov	 DWORD PTR [edx+esi+8], -1
$L253077:
  002da	43		 inc	 ebx
  002db	83 fb 19	 cmp	 ebx, 25			; 00000019H
  002de	0f 8c 6f fe ff
	ff		 jl	 $L259413

; 190  : 		}
; 191  : 	}
; 192  : 
; 193  : 	cbI		= a.GetCount();

  002e4	8b 54 24 24	 mov	 edx, DWORD PTR _a$[esp+68]
  002e8	33 ff		 xor	 edi, edi
  002ea	33 db		 xor	 ebx, ebx
  002ec	3b d3		 cmp	 edx, ebx
  002ee	89 7c 24 14	 mov	 DWORD PTR _nCount$259237[esp+56], edi
  002f2	76 23		 jbe	 SHORT $L259407
  002f4	8b 44 24 28	 mov	 eax, DWORD PTR _a$[esp+72]
  002f8	8b 74 24 20	 mov	 esi, DWORD PTR _a$[esp+64]
  002fc	83 c0 08	 add	 eax, 8
  002ff	8b ca		 mov	 ecx, edx
$L259239:
  00301	39 58 04	 cmp	 DWORD PTR [eax+4], ebx
  00304	74 05		 je	 SHORT $L259240
  00306	39 30		 cmp	 DWORD PTR [eax], esi
  00308	73 01		 jae	 SHORT $L259240
  0030a	47		 inc	 edi
$L259240:
  0030b	05 b8 00 00 00	 add	 eax, 184		; 000000b8H
  00310	49		 dec	 ecx
  00311	75 ee		 jne	 SHORT $L259239
  00313	89 7c 24 14	 mov	 DWORD PTR _nCount$259237[esp+56], edi
$L259407:

; 194  : 	for( i = 0; i < cbI; i++ )

  00317	33 f6		 xor	 esi, esi
  00319	3b fb		 cmp	 edi, ebx
  0031b	7e 43		 jle	 SHORT $L253089
  0031d	8b 7c 24 28	 mov	 edi, DWORD PTR _a$[esp+72]
  00321	8d 9d 90 0b 00
	00		 lea	 ebx, DWORD PTR [ebp+2960]
  00327	eb 07		 jmp	 SHORT $L253087
$L259408:
  00329	8b 54 24 24	 mov	 edx, DWORD PTR _a$[esp+68]
  0032d	8d 49 00	 npad	 3
$L253087:

; 195  : 	{
; 196  : 		pItemBase	= a.GetAtId( i );

  00330	3b f2		 cmp	 esi, edx
  00332	72 04		 jb	 SHORT $L259252
  00334	33 c0		 xor	 eax, eax
  00336	eb 09		 jmp	 SHORT $L259254
$L259252:
  00338	8b 47 0c	 mov	 eax, DWORD PTR [edi+12]
  0033b	f7 d8		 neg	 eax
  0033d	1b c0		 sbb	 eax, eax
  0033f	23 c7		 and	 eax, edi
$L259254:

; 197  : 		pTrader->m_Inventory.Add( (CItemElem*)pItemBase );

  00341	6a 00		 push	 0
  00343	6a 00		 push	 0
  00345	6a 00		 push	 0
  00347	50		 push	 eax
  00348	8b cb		 mov	 ecx, ebx
  0034a	e8 00 00 00 00	 call	 ?Add@?$CItemContainer@VCItemElem@@@@QAEHPAVCItemElem@@PAEPAF1@Z ; CItemContainer<CItemElem>::Add
  0034f	8b 44 24 14	 mov	 eax, DWORD PTR _nCount$259237[esp+56]
  00353	46		 inc	 esi
  00354	81 c7 b8 00 00
	00		 add	 edi, 184		; 000000b8H
  0035a	3b f0		 cmp	 esi, eax
  0035c	7c cb		 jl	 SHORT $L259408

; 194  : 	for( i = 0; i < cbI; i++ )

  0035e	33 db		 xor	 ebx, ebx
$L253089:

; 198  : 	}
; 199  : 	
; 200  : 	// step1.   .
; 201  : 	int nThisGold = pTrader->m_vtInfo.TradeGetGold();
; 202  : 	int nTraderGold = TradeGetGold();

  00360	8b 74 24 10	 mov	 esi, DWORD PTR _this$[esp+56]
  00364	8b 06		 mov	 eax, DWORD PTR [esi]
  00366	8b bd 7c 0d 00
	00		 mov	 edi, DWORD PTR [ebp+3452]
  0036c	89 44 24 14	 mov	 DWORD PTR _nTraderGold$[esp+56], eax

; 203  : 
; 204  : 	// step2. m_dwTradeGold clear
; 205  : 	TradeSetGold( 0 );						//   

  00370	89 1e		 mov	 DWORD PTR [esi], ebx

; 206  : 	TradeClear();

  00372	c7 46 7c ff ff
	ff ff		 mov	 DWORD PTR [esi+124], -1
  00379	8d 46 04	 lea	 eax, DWORD PTR [esi+4]
  0037c	ba 19 00 00 00	 mov	 edx, 25			; 00000019H
$L259297:
  00381	8b 08		 mov	 ecx, DWORD PTR [eax]
  00383	3b cb		 cmp	 ecx, ebx
  00385	74 05		 je	 SHORT $L259298
  00387	89 59 10	 mov	 DWORD PTR [ecx+16], ebx
  0038a	89 18		 mov	 DWORD PTR [eax], ebx
$L259298:
  0038c	83 c0 04	 add	 eax, 4
  0038f	4a		 dec	 edx
  00390	75 ef		 jne	 SHORT $L259297
  00392	8b 06		 mov	 eax, DWORD PTR [esi]
  00394	3b c3		 cmp	 eax, ebx
  00396	7e 12		 jle	 SHORT $L259409
  00398	8b 8e 80 00 00
	00		 mov	 ecx, DWORD PTR [esi+128]
  0039e	3b cb		 cmp	 ecx, ebx
  003a0	74 08		 je	 SHORT $L259409
  003a2	6a 01		 push	 1
  003a4	50		 push	 eax
  003a5	e8 00 00 00 00	 call	 ?AddGold@CMover@@QAEHHH@Z ; CMover::AddGold
$L259409:
  003aa	89 1e		 mov	 DWORD PTR [esi], ebx
  003ac	89 9e 84 00 00
	00		 mov	 DWORD PTR [esi+132], ebx

; 207  : 	pTrader->m_vtInfo.TradeSetGold( 0 );	//   

  003b2	89 9d 7c 0d 00
	00		 mov	 DWORD PTR [ebp+3452], ebx

; 208  : 	pTrader->m_vtInfo.TradeClear();

  003b8	c7 85 f8 0d 00
	00 ff ff ff ff	 mov	 DWORD PTR [ebp+3576], -1
  003c2	8d 85 80 0d 00
	00		 lea	 eax, DWORD PTR [ebp+3456]
  003c8	ba 19 00 00 00	 mov	 edx, 25			; 00000019H
  003cd	8d 49 00	 npad	 3
$L259349:
  003d0	8b 08		 mov	 ecx, DWORD PTR [eax]
  003d2	3b cb		 cmp	 ecx, ebx
  003d4	74 05		 je	 SHORT $L259350
  003d6	89 59 10	 mov	 DWORD PTR [ecx+16], ebx
  003d9	89 18		 mov	 DWORD PTR [eax], ebx
$L259350:
  003db	83 c0 04	 add	 eax, 4
  003de	4a		 dec	 edx
  003df	75 ef		 jne	 SHORT $L259349
  003e1	8b 85 7c 0d 00
	00		 mov	 eax, DWORD PTR [ebp+3452]
  003e7	3b c3		 cmp	 eax, ebx
  003e9	7e 12		 jle	 SHORT $L259354
  003eb	8b 8d fc 0d 00
	00		 mov	 ecx, DWORD PTR [ebp+3580]
  003f1	3b cb		 cmp	 ecx, ebx
  003f3	74 08		 je	 SHORT $L259354
  003f5	6a 01		 push	 1
  003f7	50		 push	 eax
  003f8	e8 00 00 00 00	 call	 ?AddGold@CMover@@QAEHHH@Z ; CMover::AddGold
$L259354:

; 209  : 
; 210  : 	// step3.  .
; 211  : 	m_pOwner->AddGold( nThisGold, FALSE );						

  003fd	53		 push	 ebx
  003fe	89 9d 7c 0d 00
	00		 mov	 DWORD PTR [ebp+3452], ebx
  00404	89 9d 00 0e 00
	00		 mov	 DWORD PTR [ebp+3584], ebx
  0040a	8b 8e 80 00 00
	00		 mov	 ecx, DWORD PTR [esi+128]
  00410	57		 push	 edi
  00411	e8 00 00 00 00	 call	 ?AddGold@CMover@@QAEHHH@Z ; CMover::AddGold

; 212  : 	pTrader->AddGold( nTraderGold, FALSE );

  00416	8b 4c 24 14	 mov	 ecx, DWORD PTR _nTraderGold$[esp+56]
  0041a	53		 push	 ebx
  0041b	51		 push	 ecx
  0041c	8b cd		 mov	 ecx, ebp
  0041e	e8 00 00 00 00	 call	 ?AddGold@CMover@@QAEHHH@Z ; CMover::AddGold

; 213  : 
; 214  : 	return TRUE;

  00423	8b 4c 24 28	 mov	 ecx, DWORD PTR _a$[esp+72]
  00427	3b cb		 cmp	 ecx, ebx
  00429	c7 44 24 34 ff
	ff ff ff	 mov	 DWORD PTR __$EHRec$[esp+64], -1
  00431	74 1b		 je	 SHORT $L259388
  00433	8b 51 fc	 mov	 edx, DWORD PTR [ecx-4]
  00436	3b d3		 cmp	 edx, ebx
  00438	8d 41 fc	 lea	 eax, DWORD PTR [ecx-4]
  0043b	74 08		 je	 SHORT $L259387
  0043d	8b 11		 mov	 edx, DWORD PTR [ecx]
  0043f	6a 03		 push	 3
  00441	ff 12		 call	 DWORD PTR [edx]
  00443	eb 09		 jmp	 SHORT $L259388
$L259387:
  00445	50		 push	 eax
  00446	e8 00 00 00 00	 call	 ??_V@YAXPAX@Z		; operator delete[]
  0044b	83 c4 04	 add	 esp, 4
$L259388:
  0044e	8b 44 24 1c	 mov	 eax, DWORD PTR _a$[esp+60]
  00452	5e		 pop	 esi
  00453	3b c3		 cmp	 eax, ebx
  00455	5b		 pop	 ebx
  00456	74 09		 je	 SHORT $L259382
  00458	50		 push	 eax
  00459	e8 00 00 00 00	 call	 ??_V@YAXPAX@Z		; operator delete[]
  0045e	83 c4 04	 add	 esp, 4
$L259382:

; 215  : }

  00461	8b 4c 24 24	 mov	 ecx, DWORD PTR __$EHRec$[esp+48]
  00465	5f		 pop	 edi
  00466	b8 01 00 00 00	 mov	 eax, 1
  0046b	5d		 pop	 ebp
  0046c	64 89 0d 00 00
	00 00		 mov	 DWORD PTR fs:__except_list, ecx
  00473	83 c4 28	 add	 esp, 40			; 00000028H
  00476	c3		 ret	 0
_TEXT	ENDS
;	COMDAT text$x
text$x	SEGMENT
$L259047:
  00000	8d 4d e0	 lea	 ecx, DWORD PTR _a$[ebp]
  00003	e9 00 00 00 00	 jmp	 ??1?$CItemContainer@VCItemElem@@@@UAE@XZ ; CItemContainer<CItemElem>::~CItemContainer<CItemElem>
__ehhandler$?TradeConsent@CVTInfo@@QAEHXZ:
  00008	b8 00 00 00 00	 mov	 eax, OFFSET FLAT:$T259393
  0000d	e9 00 00 00 00	 jmp	 ___CxxFrameHandler
text$x	ENDS
?TradeConsent@CVTInfo@@QAEHXZ ENDP			; CVTInfo::TradeConsent
PUBLIC	?TradeLastConfirm@CVTInfo@@QAE?AW4TRADE_CONFIRM_TYPE@@AAVCAr@@@Z ; CVTInfo::TradeLastConfirm
PUBLIC	??_C@_01GAPBHFFA@T?$AA@				; `string'
PUBLIC	??_C@_02DPKJAMEF@?$CFd?$AA@			; `string'
EXTRN	_sprintf:NEAR
EXTRN	?GetJob@CMover@@QAEHXZ:NEAR			; CMover::GetJob
EXTRN	?WriteString@CAr@@QAEXPBD@Z:NEAR		; CAr::WriteString
EXTRN	?GetBuffer@CAr@@QAEPAEPAH@Z:NEAR		; CAr::GetBuffer
;	COMDAT xdata$x
xdata$x	SEGMENT
$T260060 DD	0ffffffffH
	DD	FLAT:$L259425
$T260011 DD	019930520H
	DD	01H
	DD	FLAT:$T260060
	DD	2 DUP(00H)
	DD	2 DUP(00H)
xdata$x	ENDS
;	COMDAT ??_C@_01GAPBHFFA@T?$AA@
CONST	SEGMENT
??_C@_01GAPBHFFA@T?$AA@ DB 'T', 00H			; `string'
CONST	ENDS
;	COMDAT ??_C@_02DPKJAMEF@?$CFd?$AA@
CONST	SEGMENT
??_C@_02DPKJAMEF@?$CFd?$AA@ DB '%d', 00H		; `string'
; Function compile flags: /Ogty
CONST	ENDS
;	COMDAT ?TradeLastConfirm@CVTInfo@@QAE?AW4TRADE_CONFIRM_TYPE@@AAVCAr@@@Z
_TEXT	SEGMENT
$T259880 = -116						; size = 4
tv724 = -116						; size = 4
$T259884 = -116						; size = 4
$T259742 = -116						; size = 4
$T259746 = -116						; size = 4
$T259623 = -116						; size = 4
_nGold$259574 = -116					; size = 4
$T259598 = -116						; size = 4
_nTradeNum$253238 = -116				; size = 4
_nUserGold$ = -116					; size = 4
$T259644 = -112						; size = 4
$T259627 = -112						; size = 4
$T259619 = -112						; size = 4
$T259602 = -112						; size = 4
_nGold$259578 = -112					; size = 4
$T259551 = -112						; size = 4
$T259519 = -112						; size = 4
$T259500 = -112						; size = 4
_uSize2$253214 = -112					; size = 4
tv2227 = -108						; size = 4
tv2134 = -108						; size = 4
_nCount$259525 = -108					; size = 4
_nCount$259509 = -108					; size = 4
_nCount$259851 = -104					; size = 4
_nTraders$ = -104					; size = 4
tv1195 = -100						; size = 4
tv735 = -96						; size = 4
tv704 = -96						; size = 4
_result$ = -96						; size = 4
_nTradeNum$253226 = -92					; size = 2
_i$253218 = -92						; size = 4
_nTraderGold$ = -92					; size = 4
_uSize1$253211 = -88					; size = 4
_nPlayers$ = -88					; size = 4
tv1092 = -84						; size = 4
_u$253207 = -80						; size = 20
_uOffset2$253215 = -60					; size = 4
_uOffset1$253212 = -56					; size = 4
_nBufSize$253248 = -52					; size = 4
_szItemId$253246 = -48					; size = 32
_szItemId$253233 = -48					; size = 32
__$ArrayPad$ = -16					; size = 4
__$EHRec$ = -12						; size = 12
__$ReturnAddr$ = 4					; size = 4
_ar$ = 8						; size = 4
?TradeLastConfirm@CVTInfo@@QAE?AW4TRADE_CONFIRM_TYPE@@AAVCAr@@@Z PROC NEAR ; CVTInfo::TradeLastConfirm, COMDAT
; _this$ = ecx

; 352  : {

  00000	6a ff		 push	 -1
  00002	68 00 00 00 00	 push	 __ehhandler$?TradeLastConfirm@CVTInfo@@QAE?AW4TRADE_CONFIRM_TYPE@@AAVCAr@@@Z
  00007	64 a1 00 00 00
	00		 mov	 eax, DWORD PTR fs:__except_list
  0000d	50		 push	 eax
  0000e	64 89 25 00 00
	00 00		 mov	 DWORD PTR fs:__except_list, esp
  00015	83 ec 68	 sub	 esp, 104		; 00000068H
  00018	a1 00 00 00 00	 mov	 eax, DWORD PTR ___security_cookie
  0001d	33 c4		 xor	 eax, esp
  0001f	53		 push	 ebx
  00020	55		 push	 ebp
  00021	8b e9		 mov	 ebp, ecx
  00023	89 44 24 6c	 mov	 DWORD PTR __$ArrayPad$[esp+124], eax

; 353  : 	TRADE_CONFIRM_TYPE		result = TRADE_CONFIRM_ERROR;
; 354  : 	CMover*					pTrader	= GetOther();

  00027	8b 45 7c	 mov	 eax, DWORD PTR [ebp+124]
  0002a	83 f8 ff	 cmp	 eax, -1
  0002d	56		 push	 esi
  0002e	8b b4 24 84 00
	00 00		 mov	 esi, DWORD PTR _ar$[esp+124]
  00035	57		 push	 edi
  00036	75 04		 jne	 SHORT $L259428
  00038	33 db		 xor	 ebx, ebx
  0003a	eb 0d		 jmp	 SHORT $L259427
$L259428:
  0003c	50		 push	 eax
  0003d	b9 00 00 00 00	 mov	 ecx, OFFSET FLAT:?prj@@3VCProject@@A
  00042	e8 00 00 00 00	 call	 ?GetMover@CProject@@QAEPAVCMover@@K@Z ; CProject::GetMover
  00047	8b d8		 mov	 ebx, eax
$L259427:

; 355  : 
; 356  : 	// gold_step1. GetGold(), AddGold()      clear.
; 357  : 	int nTraderGold        = pTrader->m_vtInfo.TradeGetGold();

  00049	8b 8b 7c 0d 00
	00		 mov	 ecx, DWORD PTR [ebx+3452]

; 358  : 	int nUserGold          = TradeGetGold();

  0004f	8b 55 00	 mov	 edx, DWORD PTR [ebp]
  00052	8d 83 7c 0d 00
	00		 lea	 eax, DWORD PTR [ebx+3452]
  00058	89 44 24 30	 mov	 DWORD PTR tv1092[esp+132], eax

; 359  : 	
; 360  : 	// gold_step2.   .
; 361  : 	int nThisAdd   = nTraderGold;
; 362  : 	int nTraderAdd = nUserGold;
; 363  : 
; 364  : 	// gold_step3. overflow  
; 365  : 	if( CheckTradeGold( m_pOwner, 0, nTraderGold ) == FALSE ||
; 366  : 		CheckTradeGold( pTrader, 0, nUserGold ) == FALSE )

  0005c	8b 85 80 00 00
	00		 mov	 eax, DWORD PTR [ebp+128]
  00062	8b 80 84 16 00
	00		 mov	 eax, DWORD PTR [eax+5764]
  00068	85 c0		 test	 eax, eax
  0006a	89 4c 24 28	 mov	 DWORD PTR _nTraderGold$[esp+132], ecx
  0006e	89 54 24 10	 mov	 DWORD PTR _nUserGold$[esp+132], edx
  00072	7c 0b		 jl	 SHORT $L260049
  00074	85 c9		 test	 ecx, ecx
  00076	8d 3c 08	 lea	 edi, DWORD PTR [eax+ecx]
  00079	7c 36		 jl	 SHORT $L259450
  0007b	3b f8		 cmp	 edi, eax
  0007d	7d 36		 jge	 SHORT $L260050
$L260049:

; 367  : 	{
; 368  : 		TradeClear();

  0007f	8b cd		 mov	 ecx, ebp
  00081	e8 00 00 00 00	 call	 ?TradeClear@CVTInfo@@QAEXXZ ; CVTInfo::TradeClear

; 369  : 		pTrader->m_vtInfo.TradeClear();

  00086	8b 4c 24 30	 mov	 ecx, DWORD PTR tv1092[esp+132]
  0008a	e8 00 00 00 00	 call	 ?TradeClear@CVTInfo@@QAEXXZ ; CVTInfo::TradeClear

; 370  : 		return result;

  0008f	33 c0		 xor	 eax, eax
$L253185:

; 518  : }

  00091	8b 4c 24 78	 mov	 ecx, DWORD PTR __$EHRec$[esp+132]
  00095	5f		 pop	 edi
  00096	5e		 pop	 esi
  00097	5d		 pop	 ebp
  00098	64 89 0d 00 00
	00 00		 mov	 DWORD PTR fs:__except_list, ecx
  0009f	8b 4c 24 68	 mov	 ecx, DWORD PTR __$ArrayPad$[esp+120]
  000a3	5b		 pop	 ebx
  000a4	33 cc		 xor	 ecx, esp
  000a6	e8 00 00 00 00	 call	 @__security_check_cookie@4
  000ab	83 c4 74	 add	 esp, 116		; 00000074H
  000ae	c2 04 00	 ret	 4

; 359  : 	
; 360  : 	// gold_step2.   .
; 361  : 	int nThisAdd   = nTraderGold;
; 362  : 	int nTraderAdd = nUserGold;
; 363  : 
; 364  : 	// gold_step3. overflow  
; 365  : 	if( CheckTradeGold( m_pOwner, 0, nTraderGold ) == FALSE ||
; 366  : 		CheckTradeGold( pTrader, 0, nUserGold ) == FALSE )

$L259450:
  000b1	85 ff		 test	 edi, edi
  000b3	7c ca		 jl	 SHORT $L260049
$L260050:
  000b5	8b 83 84 16 00
	00		 mov	 eax, DWORD PTR [ebx+5764]
  000bb	85 c0		 test	 eax, eax
  000bd	7c c0		 jl	 SHORT $L260049
  000bf	85 d2		 test	 edx, edx
  000c1	8d 0c 10	 lea	 ecx, DWORD PTR [eax+edx]
  000c4	7c 06		 jl	 SHORT $L259477
  000c6	3b c8		 cmp	 ecx, eax
  000c8	7d 06		 jge	 SHORT $L260039
  000ca	eb b3		 jmp	 SHORT $L260049
$L259477:
  000cc	85 c9		 test	 ecx, ecx
  000ce	7c af		 jl	 SHORT $L260049
$L260039:

; 371  : 	}
; 372  : 
; 373  : 	//          . 
; 374  : 	int nPlayers = 0;

  000d0	33 d2		 xor	 edx, edx
  000d2	89 54 24 2c	 mov	 DWORD PTR _nPlayers$[esp+132], edx

; 375  : 	int nTraders = 0;

  000d6	89 54 24 1c	 mov	 DWORD PTR _nTraders$[esp+132], edx

; 376  : 
; 377  : 	for( int i = 0; i < MAX_TRADE; i++ )

  000da	33 c0		 xor	 eax, eax
  000dc	bf 04 00 00 00	 mov	 edi, 4
$L253197:

; 518  : }

  000e1	0f b6 c8	 movzx	 ecx, al
  000e4	83 7c 8d 04 00	 cmp	 DWORD PTR [ebp+ecx*4+4], 0
  000e9	74 01		 je	 SHORT $L253200

; 378  : 	{
; 379  : 		if( GetItem( i ) )
; 380  : 			nPlayers++;

  000eb	42		 inc	 edx
$L253200:

; 381  : 
; 382  : 		if( pTrader->m_vtInfo.GetItem( i ) )

  000ec	83 bc 8b 80 0d
	00 00 00	 cmp	 DWORD PTR [ebx+ecx*4+3456], 0
  000f4	74 04		 je	 SHORT $L253198

; 383  : 			nTraders++;

  000f6	ff 44 24 1c	 inc	 DWORD PTR _nTraders$[esp+132]
$L253198:
  000fa	8a c8		 mov	 cl, al
  000fc	fe c1		 inc	 cl

; 518  : }

  000fe	0f b6 c9	 movzx	 ecx, cl
  00101	83 7c 8d 04 00	 cmp	 DWORD PTR [ebp+ecx*4+4], 0
  00106	74 01		 je	 SHORT $L260030

; 378  : 	{
; 379  : 		if( GetItem( i ) )
; 380  : 			nPlayers++;

  00108	42		 inc	 edx
$L260030:

; 381  : 
; 382  : 		if( pTrader->m_vtInfo.GetItem( i ) )

  00109	83 bc 8b 80 0d
	00 00 00	 cmp	 DWORD PTR [ebx+ecx*4+3456], 0
  00111	74 04		 je	 SHORT $L260031

; 383  : 			nTraders++;

  00113	ff 44 24 1c	 inc	 DWORD PTR _nTraders$[esp+132]
$L260031:
  00117	8a c8		 mov	 cl, al
  00119	80 c1 02	 add	 cl, 2

; 518  : }

  0011c	0f b6 c9	 movzx	 ecx, cl
  0011f	83 7c 8d 04 00	 cmp	 DWORD PTR [ebp+ecx*4+4], 0
  00124	74 01		 je	 SHORT $L260032

; 378  : 	{
; 379  : 		if( GetItem( i ) )
; 380  : 			nPlayers++;

  00126	42		 inc	 edx
$L260032:

; 381  : 
; 382  : 		if( pTrader->m_vtInfo.GetItem( i ) )

  00127	83 bc 8b 80 0d
	00 00 00	 cmp	 DWORD PTR [ebx+ecx*4+3456], 0
  0012f	74 04		 je	 SHORT $L260033

; 383  : 			nTraders++;

  00131	ff 44 24 1c	 inc	 DWORD PTR _nTraders$[esp+132]
$L260033:
  00135	8a c8		 mov	 cl, al
  00137	80 c1 03	 add	 cl, 3

; 518  : }

  0013a	0f b6 c9	 movzx	 ecx, cl
  0013d	83 7c 8d 04 00	 cmp	 DWORD PTR [ebp+ecx*4+4], 0
  00142	74 01		 je	 SHORT $L260034

; 378  : 	{
; 379  : 		if( GetItem( i ) )
; 380  : 			nPlayers++;

  00144	42		 inc	 edx
$L260034:

; 381  : 
; 382  : 		if( pTrader->m_vtInfo.GetItem( i ) )

  00145	83 bc 8b 80 0d
	00 00 00	 cmp	 DWORD PTR [ebx+ecx*4+3456], 0
  0014d	74 04		 je	 SHORT $L260035

; 383  : 			nTraders++;

  0014f	ff 44 24 1c	 inc	 DWORD PTR _nTraders$[esp+132]
$L260035:
  00153	8a c8		 mov	 cl, al
  00155	80 c1 04	 add	 cl, 4
  00158	0f b6 c9	 movzx	 ecx, cl
  0015b	83 7c 8d 04 00	 cmp	 DWORD PTR [ebp+ecx*4+4], 0
  00160	74 01		 je	 SHORT $L260036

; 378  : 	{
; 379  : 		if( GetItem( i ) )
; 380  : 			nPlayers++;

  00162	42		 inc	 edx
$L260036:

; 381  : 
; 382  : 		if( pTrader->m_vtInfo.GetItem( i ) )

  00163	83 bc 8b 80 0d
	00 00 00	 cmp	 DWORD PTR [ebx+ecx*4+3456], 0
  0016b	74 04		 je	 SHORT $L260037

; 383  : 			nTraders++;

  0016d	ff 44 24 1c	 inc	 DWORD PTR _nTraders$[esp+132]
$L260037:
  00171	83 c0 05	 add	 eax, 5
  00174	83 f8 19	 cmp	 eax, 25			; 00000019H
  00177	0f 8c 64 ff ff
	ff		 jl	 $L253197

; 384  : 	}
; 385  : 
; 386  : 	if( ( pTrader->m_Inventory.GetSize() - pTrader->m_Inventory.GetCount() ) < nPlayers )

  0017d	8b 8b 9c 0b 00
	00		 mov	 ecx, DWORD PTR [ebx+2972]
  00183	85 c9		 test	 ecx, ecx
  00185	89 54 24 2c	 mov	 DWORD PTR _nPlayers$[esp+132], edx
  00189	8b 93 98 0b 00
	00		 mov	 edx, DWORD PTR [ebx+2968]
  0018f	89 54 24 14	 mov	 DWORD PTR $T259500[esp+132], edx
  00193	8d 93 90 0b 00
	00		 lea	 edx, DWORD PTR [ebx+2960]
  00199	89 54 24 20	 mov	 DWORD PTR tv1195[esp+132], edx
  0019d	c7 44 24 18 00
	00 00 00	 mov	 DWORD PTR _nCount$259509[esp+132], 0
  001a5	76 2c		 jbe	 SHORT $L259513
  001a7	8b 42 10	 mov	 eax, DWORD PTR [edx+16]
  001aa	83 c0 08	 add	 eax, 8
  001ad	89 4c 24 24	 mov	 DWORD PTR tv735[esp+132], ecx
$L259511:
  001b1	8b 48 04	 mov	 ecx, DWORD PTR [eax+4]
  001b4	85 c9		 test	 ecx, ecx
  001b6	74 0b		 je	 SHORT $L259512
  001b8	8b 08		 mov	 ecx, DWORD PTR [eax]
  001ba	3b 4a 08	 cmp	 ecx, DWORD PTR [edx+8]
  001bd	73 04		 jae	 SHORT $L259512
  001bf	ff 44 24 18	 inc	 DWORD PTR _nCount$259509[esp+132]
$L259512:
  001c3	8b 4c 24 24	 mov	 ecx, DWORD PTR tv735[esp+132]
  001c7	05 b8 00 00 00	 add	 eax, 184		; 000000b8H
  001cc	49		 dec	 ecx
  001cd	89 4c 24 24	 mov	 DWORD PTR tv735[esp+132], ecx
  001d1	75 de		 jne	 SHORT $L259511
$L259513:
  001d3	8b 44 24 14	 mov	 eax, DWORD PTR $T259500[esp+132]
  001d7	8b 54 24 18	 mov	 edx, DWORD PTR _nCount$259509[esp+132]
  001db	8b 4c 24 2c	 mov	 ecx, DWORD PTR _nPlayers$[esp+132]
  001df	2b c2		 sub	 eax, edx
  001e1	3b c1		 cmp	 eax, ecx
  001e3	7d 0f		 jge	 SHORT $L253202

; 387  : 		result = TRADE_CONFIRM_ERROR;

  001e5	c7 44 24 24 00
	00 00 00	 mov	 DWORD PTR _result$[esp+132], 0

; 388  : 	else if( ( m_pOwner->m_Inventory.GetSize() - m_pOwner->m_Inventory.GetCount() ) < nTraders )

  001ed	33 ff		 xor	 edi, edi
  001ef	e9 57 07 00 00	 jmp	 $L259899
$L253202:
  001f4	8b 85 80 00 00
	00		 mov	 eax, DWORD PTR [ebp+128]
  001fa	8b 88 9c 0b 00
	00		 mov	 ecx, DWORD PTR [eax+2972]
  00200	85 c9		 test	 ecx, ecx
  00202	8b 90 98 0b 00
	00		 mov	 edx, DWORD PTR [eax+2968]
  00208	89 54 24 14	 mov	 DWORD PTR $T259519[esp+132], edx
  0020c	c7 44 24 18 00
	00 00 00	 mov	 DWORD PTR _nCount$259525[esp+132], 0
  00214	76 3c		 jbe	 SHORT $L259529
  00216	8b 80 a0 0b 00
	00		 mov	 eax, DWORD PTR [eax+2976]
  0021c	83 c0 08	 add	 eax, 8
  0021f	89 4c 24 24	 mov	 DWORD PTR tv704[esp+132], ecx
$L259527:
  00223	8b 48 04	 mov	 ecx, DWORD PTR [eax+4]
  00226	85 c9		 test	 ecx, ecx
  00228	74 14		 je	 SHORT $L259528
  0022a	8b 10		 mov	 edx, DWORD PTR [eax]
  0022c	8b 8d 80 00 00
	00		 mov	 ecx, DWORD PTR [ebp+128]
  00232	3b 91 98 0b 00
	00		 cmp	 edx, DWORD PTR [ecx+2968]
  00238	73 04		 jae	 SHORT $L259528
  0023a	ff 44 24 18	 inc	 DWORD PTR _nCount$259525[esp+132]
$L259528:
  0023e	8b 4c 24 24	 mov	 ecx, DWORD PTR tv704[esp+132]
  00242	05 b8 00 00 00	 add	 eax, 184		; 000000b8H
  00247	49		 dec	 ecx
  00248	89 4c 24 24	 mov	 DWORD PTR tv704[esp+132], ecx
  0024c	75 d5		 jne	 SHORT $L259527
  0024e	8b 54 24 14	 mov	 edx, DWORD PTR $T259519[esp+132]
$L259529:
  00252	8b 4c 24 18	 mov	 ecx, DWORD PTR _nCount$259525[esp+132]
  00256	8b 44 24 1c	 mov	 eax, DWORD PTR _nTraders$[esp+132]
  0025a	2b d1		 sub	 edx, ecx
  0025c	3b d0		 cmp	 edx, eax
  0025e	7d 0f		 jge	 SHORT $L253204

; 389  : 		result = TRADE_CONFIRM_ERROR;

  00260	c7 44 24 24 00
	00 00 00	 mov	 DWORD PTR _result$[esp+132], 0

; 390  : 	else

  00268	33 ff		 xor	 edi, edi
  0026a	e9 dc 06 00 00	 jmp	 $L259899
$L253204:

; 391  : 		result = TRADE_CONFIRM_OK;
; 392  : 
; 393  : 	if( result == TRADE_CONFIRM_OK )
; 394  : 	{
; 395  : 		CItemContainer<CItemElem> u;

  0026f	33 c0		 xor	 eax, eax
  00271	c7 44 24 24 01
	00 00 00	 mov	 DWORD PTR _result$[esp+132], 1
  00279	c7 44 24 34 00
	00 00 00	 mov	 DWORD PTR _u$253207[esp+132], OFFSET FLAT:??_7?$CItemContainer@VCItemElem@@@@6B@
  00281	89 44 24 3c	 mov	 DWORD PTR _u$253207[esp+140], eax
  00285	89 44 24 40	 mov	 DWORD PTR _u$253207[esp+144], eax
  00289	89 44 24 44	 mov	 DWORD PTR _u$253207[esp+148], eax
  0028d	89 44 24 38	 mov	 DWORD PTR _u$253207[esp+136], eax

; 396  : 		u.SetItemContainer( ITYPE_ITEM, MAX_TRADE );

  00291	6a ff		 push	 -1
  00293	6a 19		 push	 25			; 00000019H
  00295	50		 push	 eax
  00296	8d 4c 24 40	 lea	 ecx, DWORD PTR _u$253207[esp+144]
  0029a	89 84 24 8c 00
	00 00		 mov	 DWORD PTR __$EHRec$[esp+152], eax
  002a1	e8 00 00 00 00	 call	 ?SetItemContainer@?$CItemContainer@VCItemElem@@@@QAEXKKK@Z ; CItemContainer<CItemElem>::SetItemContainer

; 397  : 
; 398  : 		// gold_step4.  .
; 399  : 		m_pOwner->AddGold( nThisAdd, FALSE );						

  002a6	8b 44 24 28	 mov	 eax, DWORD PTR _nTraderGold$[esp+132]
  002aa	8b 8d 80 00 00
	00		 mov	 ecx, DWORD PTR [ebp+128]
  002b0	6a 00		 push	 0
  002b2	50		 push	 eax
  002b3	e8 00 00 00 00	 call	 ?AddGold@CMover@@QAEHHH@Z ; CMover::AddGold

; 400  : 		pTrader->AddGold( nTraderAdd, FALSE );

  002b8	8b 4c 24 10	 mov	 ecx, DWORD PTR _nUserGold$[esp+132]
  002bc	6a 00		 push	 0
  002be	51		 push	 ecx
  002bf	8b cb		 mov	 ecx, ebx
  002c1	e8 00 00 00 00	 call	 ?AddGold@CMover@@QAEHHH@Z ; CMover::AddGold

; 401  : 		// TradeClear    
; 402  : 		pTrader->m_vtInfo.TradeSetGold( 0 );

  002c6	8b 54 24 30	 mov	 edx, DWORD PTR tv1092[esp+132]
  002ca	c7 02 00 00 00
	00		 mov	 DWORD PTR [edx], 0

; 403  : 		TradeSetGold( 0 );
; 404  : 
; 405  : 		ar.WriteString( "T" );

  002d0	68 00 00 00 00	 push	 OFFSET FLAT:??_C@_01GAPBHFFA@T?$AA@
  002d5	8b ce		 mov	 ecx, esi
  002d7	c7 45 00 00 00
	00 00		 mov	 DWORD PTR [ebp], 0
  002de	e8 00 00 00 00	 call	 ?WriteString@CAr@@QAEXPBD@Z ; CAr::WriteString

; 406  : 		ar.WriteString( pTrader->GetName() );

  002e3	6a 00		 push	 0
  002e5	8b cb		 mov	 ecx, ebx
  002e7	e8 00 00 00 00	 call	 ?GetName@CMover@@QAEPBDH@Z ; CMover::GetName
  002ec	50		 push	 eax
  002ed	8b ce		 mov	 ecx, esi
  002ef	e8 00 00 00 00	 call	 ?WriteString@CAr@@QAEXPBD@Z ; CAr::WriteString

; 407  : 		ar.WriteString( m_pOwner->GetName() );

  002f4	8b 8d 80 00 00
	00		 mov	 ecx, DWORD PTR [ebp+128]
  002fa	6a 00		 push	 0
  002fc	e8 00 00 00 00	 call	 ?GetName@CMover@@QAEPBDH@Z ; CMover::GetName
  00301	50		 push	 eax
  00302	8b ce		 mov	 ecx, esi
  00304	e8 00 00 00 00	 call	 ?WriteString@CAr@@QAEXPBD@Z ; CAr::WriteString

; 408  : 		ar << m_pOwner->GetWorld()->GetID();

  00309	8b 85 80 00 00
	00		 mov	 eax, DWORD PTR [ebp+128]
  0030f	8b 80 6c 01 00
	00		 mov	 eax, DWORD PTR [eax+364]
  00315	8b 08		 mov	 ecx, DWORD PTR [eax]
  00317	89 4c 24 14	 mov	 DWORD PTR $T259551[esp+132], ecx
  0031b	57		 push	 edi
  0031c	8b ce		 mov	 ecx, esi
  0031e	e8 00 00 00 00	 call	 ?CheckBuf@CAr@@QAEXI@Z	; CAr::CheckBuf
  00323	8b 56 08	 mov	 edx, DWORD PTR [esi+8]
  00326	8b 44 24 14	 mov	 eax, DWORD PTR $T259551[esp+132]
  0032a	89 02		 mov	 DWORD PTR [edx], eax
  0032c	01 7e 08	 add	 DWORD PTR [esi+8], edi

; 409  : 		ar << nTraderGold << nUserGold;

  0032f	57		 push	 edi
  00330	8b ce		 mov	 ecx, esi
  00332	e8 00 00 00 00	 call	 ?CheckBuf@CAr@@QAEXI@Z	; CAr::CheckBuf
  00337	8b 4e 08	 mov	 ecx, DWORD PTR [esi+8]
  0033a	8b 54 24 28	 mov	 edx, DWORD PTR _nTraderGold$[esp+132]
  0033e	89 11		 mov	 DWORD PTR [ecx], edx
  00340	8b 56 08	 mov	 edx, DWORD PTR [esi+8]
  00343	03 d7		 add	 edx, edi
  00345	57		 push	 edi
  00346	8b ce		 mov	 ecx, esi
  00348	89 56 08	 mov	 DWORD PTR [esi+8], edx
  0034b	e8 00 00 00 00	 call	 ?CheckBuf@CAr@@QAEXI@Z	; CAr::CheckBuf
  00350	8b 46 08	 mov	 eax, DWORD PTR [esi+8]
  00353	8b 4c 24 10	 mov	 ecx, DWORD PTR _nUserGold$[esp+132]
  00357	89 08		 mov	 DWORD PTR [eax], ecx
  00359	01 7e 08	 add	 DWORD PTR [esi+8], edi

; 410  : 		ar << pTrader->GetGold() << m_pOwner->GetGold();

  0035c	8b 8b 84 16 00
	00		 mov	 ecx, DWORD PTR [ebx+5764]
  00362	8b 95 80 00 00
	00		 mov	 edx, DWORD PTR [ebp+128]
  00368	8b 82 84 16 00
	00		 mov	 eax, DWORD PTR [edx+5764]
  0036e	89 4c 24 14	 mov	 DWORD PTR _nGold$259578[esp+132], ecx
  00372	57		 push	 edi
  00373	8b ce		 mov	 ecx, esi
  00375	89 44 24 14	 mov	 DWORD PTR _nGold$259574[esp+136], eax
  00379	e8 00 00 00 00	 call	 ?CheckBuf@CAr@@QAEXI@Z	; CAr::CheckBuf
  0037e	8b 56 08	 mov	 edx, DWORD PTR [esi+8]
  00381	8b 44 24 14	 mov	 eax, DWORD PTR _nGold$259578[esp+132]
  00385	89 02		 mov	 DWORD PTR [edx], eax
  00387	01 7e 08	 add	 DWORD PTR [esi+8], edi
  0038a	57		 push	 edi
  0038b	8b ce		 mov	 ecx, esi
  0038d	e8 00 00 00 00	 call	 ?CheckBuf@CAr@@QAEXI@Z	; CAr::CheckBuf
  00392	8b 4e 08	 mov	 ecx, DWORD PTR [esi+8]
  00395	8b 54 24 10	 mov	 edx, DWORD PTR _nGold$259574[esp+132]
  00399	89 11		 mov	 DWORD PTR [ecx], edx
  0039b	01 7e 08	 add	 DWORD PTR [esi+8], edi

; 411  : 		ar << m_pOwner->m_idPlayer << m_pOwner->GetLevel() << m_pOwner->GetJob();

  0039e	8b 85 80 00 00
	00		 mov	 eax, DWORD PTR [ebp+128]
  003a4	8b 88 e0 05 00
	00		 mov	 ecx, DWORD PTR [eax+1504]
  003aa	8b 90 38 02 00
	00		 mov	 edx, DWORD PTR [eax+568]
  003b0	89 4c 24 10	 mov	 DWORD PTR $T259598[esp+132], ecx
  003b4	57		 push	 edi
  003b5	8b ce		 mov	 ecx, esi
  003b7	89 54 24 18	 mov	 DWORD PTR $T259602[esp+136], edx
  003bb	e8 00 00 00 00	 call	 ?CheckBuf@CAr@@QAEXI@Z	; CAr::CheckBuf
  003c0	8b 46 08	 mov	 eax, DWORD PTR [esi+8]
  003c3	8b 4c 24 14	 mov	 ecx, DWORD PTR $T259602[esp+132]
  003c7	89 08		 mov	 DWORD PTR [eax], ecx
  003c9	8b 46 08	 mov	 eax, DWORD PTR [esi+8]
  003cc	03 c7		 add	 eax, edi
  003ce	57		 push	 edi
  003cf	8b ce		 mov	 ecx, esi
  003d1	89 46 08	 mov	 DWORD PTR [esi+8], eax
  003d4	e8 00 00 00 00	 call	 ?CheckBuf@CAr@@QAEXI@Z	; CAr::CheckBuf
  003d9	8b 56 08	 mov	 edx, DWORD PTR [esi+8]
  003dc	8b 44 24 10	 mov	 eax, DWORD PTR $T259598[esp+132]
  003e0	89 02		 mov	 DWORD PTR [edx], eax
  003e2	01 7e 08	 add	 DWORD PTR [esi+8], edi
  003e5	8b 8d 80 00 00
	00		 mov	 ecx, DWORD PTR [ebp+128]
  003eb	e8 00 00 00 00	 call	 ?GetJob@CMover@@QAEHXZ	; CMover::GetJob
  003f0	57		 push	 edi
  003f1	8b ce		 mov	 ecx, esi
  003f3	89 44 24 18	 mov	 DWORD PTR $T259619[esp+136], eax
  003f7	e8 00 00 00 00	 call	 ?CheckBuf@CAr@@QAEXI@Z	; CAr::CheckBuf
  003fc	8b 4e 08	 mov	 ecx, DWORD PTR [esi+8]
  003ff	8b 54 24 14	 mov	 edx, DWORD PTR $T259619[esp+132]
  00403	89 11		 mov	 DWORD PTR [ecx], edx
  00405	01 7e 08	 add	 DWORD PTR [esi+8], edi

; 412  : 		ar << pTrader->m_idPlayer << pTrader->GetLevel() << pTrader->GetJob();

  00408	8b 8b 38 02 00
	00		 mov	 ecx, DWORD PTR [ebx+568]
  0040e	8b 83 e0 05 00
	00		 mov	 eax, DWORD PTR [ebx+1504]
  00414	89 4c 24 14	 mov	 DWORD PTR $T259627[esp+132], ecx
  00418	57		 push	 edi
  00419	8b ce		 mov	 ecx, esi
  0041b	89 44 24 14	 mov	 DWORD PTR $T259623[esp+136], eax
  0041f	e8 00 00 00 00	 call	 ?CheckBuf@CAr@@QAEXI@Z	; CAr::CheckBuf
  00424	8b 56 08	 mov	 edx, DWORD PTR [esi+8]
  00427	8b 44 24 14	 mov	 eax, DWORD PTR $T259627[esp+132]
  0042b	89 02		 mov	 DWORD PTR [edx], eax
  0042d	8b 46 08	 mov	 eax, DWORD PTR [esi+8]
  00430	03 c7		 add	 eax, edi
  00432	57		 push	 edi
  00433	8b ce		 mov	 ecx, esi
  00435	89 46 08	 mov	 DWORD PTR [esi+8], eax
  00438	e8 00 00 00 00	 call	 ?CheckBuf@CAr@@QAEXI@Z	; CAr::CheckBuf
  0043d	8b 4e 08	 mov	 ecx, DWORD PTR [esi+8]
  00440	8b 54 24 10	 mov	 edx, DWORD PTR $T259623[esp+132]
  00444	89 11		 mov	 DWORD PTR [ecx], edx
  00446	01 7e 08	 add	 DWORD PTR [esi+8], edi
  00449	8b cb		 mov	 ecx, ebx
  0044b	e8 00 00 00 00	 call	 ?GetJob@CMover@@QAEHXZ	; CMover::GetJob
  00450	57		 push	 edi
  00451	8b ce		 mov	 ecx, esi
  00453	89 44 24 18	 mov	 DWORD PTR $T259644[esp+136], eax
  00457	e8 00 00 00 00	 call	 ?CheckBuf@CAr@@QAEXI@Z	; CAr::CheckBuf
  0045c	8b 46 08	 mov	 eax, DWORD PTR [esi+8]
  0045f	8b 4c 24 14	 mov	 ecx, DWORD PTR $T259644[esp+132]
  00463	89 08		 mov	 DWORD PTR [eax], ecx
  00465	01 7e 08	 add	 DWORD PTR [esi+8], edi

; 413  : #ifdef __WORLDSERVER
; 414  : 		ar.WriteString( ( (CUser*)m_pOwner )->m_playAccount.lpAddr );

  00468	8b 95 80 00 00
	00		 mov	 edx, DWORD PTR [ebp+128]
  0046e	81 c2 6c 57 00
	00		 add	 edx, 22380		; 0000576cH
  00474	52		 push	 edx
  00475	8b ce		 mov	 ecx, esi
  00477	e8 00 00 00 00	 call	 ?WriteString@CAr@@QAEXPBD@Z ; CAr::WriteString

; 415  : 		ar.WriteString( ( (CUser*)pTrader )->m_playAccount.lpAddr );

  0047c	8d 83 6c 57 00
	00		 lea	 eax, DWORD PTR [ebx+22380]
  00482	50		 push	 eax
  00483	8b ce		 mov	 ecx, esi
  00485	e8 00 00 00 00	 call	 ?WriteString@CAr@@QAEXPBD@Z ; CAr::WriteString

; 416  : #endif	// __WORLDSERVER
; 417  : 		u_long uSize1	= 0;
; 418  : 		u_long uOffset1	= ar.GetOffset();

  0048a	8b 46 08	 mov	 eax, DWORD PTR [esi+8]
  0048d	2b 46 10	 sub	 eax, DWORD PTR [esi+16]

; 419  : 		ar << (DWORD)0;

  00490	57		 push	 edi
  00491	8b ce		 mov	 ecx, esi
  00493	c7 44 24 30 00
	00 00 00	 mov	 DWORD PTR _uSize1$253211[esp+136], 0
  0049b	89 44 24 50	 mov	 DWORD PTR _uOffset1$253212[esp+136], eax
  0049f	e8 00 00 00 00	 call	 ?CheckBuf@CAr@@QAEXI@Z	; CAr::CheckBuf
  004a4	8b 4e 08	 mov	 ecx, DWORD PTR [esi+8]
  004a7	c7 01 00 00 00
	00		 mov	 DWORD PTR [ecx], 0
  004ad	8b 46 08	 mov	 eax, DWORD PTR [esi+8]

; 420  : 		u_long uSize2	= 0;
; 421  : 		u_long uOffset2	= ar.GetOffset();

  004b0	8b 56 10	 mov	 edx, DWORD PTR [esi+16]
  004b3	03 c7		 add	 eax, edi
  004b5	89 46 08	 mov	 DWORD PTR [esi+8], eax
  004b8	2b c2		 sub	 eax, edx

; 422  : 		ar << (DWORD)0;

  004ba	57		 push	 edi
  004bb	8b ce		 mov	 ecx, esi
  004bd	c7 44 24 18 00
	00 00 00	 mov	 DWORD PTR _uSize2$253214[esp+136], 0
  004c5	89 44 24 4c	 mov	 DWORD PTR _uOffset2$253215[esp+136], eax
  004c9	e8 00 00 00 00	 call	 ?CheckBuf@CAr@@QAEXI@Z	; CAr::CheckBuf
  004ce	8b 56 08	 mov	 edx, DWORD PTR [esi+8]
  004d1	c7 02 00 00 00
	00		 mov	 DWORD PTR [edx], 0
  004d7	01 7e 08	 add	 DWORD PTR [esi+8], edi
  004da	8d 45 04	 lea	 eax, DWORD PTR [ebp+4]
  004dd	89 44 24 18	 mov	 DWORD PTR tv2134[esp+132], eax
  004e1	c7 44 24 10 19
	00 00 00	 mov	 DWORD PTR tv724[esp+132], 25 ; 00000019H
  004e9	8d a4 24 00 00
	00 00		 npad	 7
$L253219:

; 423  : 
; 424  : 		// item_step1. m_pOwner-> 
; 425  : 		CItemBase* pItemBase;
; 426  : 		for( int i = 0; i < MAX_TRADE; i++ )
; 427  : 		{
; 428  : 			pItemBase = m_apItem_VT[i];

  004f0	8b 44 24 18	 mov	 eax, DWORD PTR tv2134[esp+132]
  004f4	8b 38		 mov	 edi, DWORD PTR [eax]

; 429  : 			if( pItemBase == NULL )

  004f6	85 ff		 test	 edi, edi
  004f8	0f 84 a7 00 00
	00		 je	 $L253220

; 430  : 				continue;
; 431  : 
; 432  : 			m_apItem_VT[i] = NULL;

  004fe	c7 00 00 00 00
	00		 mov	 DWORD PTR [eax], 0

; 433  : 			CItemElem* pItemElem = ( CItemElem* )pItemBase;
; 434  : 			if( pItemElem->GetProp()->dwPackMax > 1 )

  00504	8b 47 0c	 mov	 eax, DWORD PTR [edi+12]
  00507	85 c0		 test	 eax, eax
  00509	8b 0d 5c 02 00
	00		 mov	 ecx, DWORD PTR ?prj@@3VCProject@@A+604
  0050f	7c 11		 jl	 SHORT $L259707
  00511	3b c1		 cmp	 eax, ecx
  00513	7d 0d		 jge	 SHORT $L259707
  00515	73 21		 jae	 SHORT $L260058
  00517	8b 0d 4c 02 00
	00		 mov	 ecx, DWORD PTR ?prj@@3VCProject@@A+588
  0051d	8b 04 81	 mov	 eax, DWORD PTR [ecx+eax*4]
  00520	eb 18		 jmp	 SHORT $L259702
$L259707:
  00522	50		 push	 eax
  00523	51		 push	 ecx
  00524	6a 00		 push	 0
  00526	68 00 00 00 00	 push	 OFFSET FLAT:??_C@_0BI@BEIFNGEL@GetItemProp?5range_error?$AA@
  0052b	68 00 00 00 00	 push	 OFFSET FLAT:??_C@_0BM@HMFGHCP@?$CFs?5min?3?$CFd?0?5max?3?$CFd?0?5index?3?$CFd?$AA@
  00530	e8 00 00 00 00	 call	 ?Error@@YAPBDPBDZZ	; Error
  00535	83 c4 14	 add	 esp, 20			; 00000014H
$L260058:
  00538	33 c0		 xor	 eax, eax
$L259702:
  0053a	83 78 6c 01	 cmp	 DWORD PTR [eax+108], 1

; 435  : 			{
; 436  : 				short nTradeNum = pItemElem->m_nItemNum - pItemBase->GetExtra();
; 437  : 				pItemElem->m_nItemNum = pItemBase->GetExtra();
; 438  : 				u.Add( pItemElem );

  0053e	6a 00		 push	 0
  00540	6a 00		 push	 0
  00542	6a 00		 push	 0
  00544	57		 push	 edi
  00545	76 40		 jbe	 SHORT $L253225
  00547	8b 4f 10	 mov	 ecx, DWORD PTR [edi+16]
  0054a	33 c0		 xor	 eax, eax
  0054c	66 8b 87 80 00
	00 00		 mov	 ax, WORD PTR [edi+128]
  00553	66 2b c1	 sub	 ax, cx
  00556	66 89 8f 80 00
	00 00		 mov	 WORD PTR [edi+128], cx
  0055d	8d 4c 24 44	 lea	 ecx, DWORD PTR _u$253207[esp+148]
  00561	89 44 24 38	 mov	 DWORD PTR _nTradeNum$253226[esp+148], eax
  00565	e8 00 00 00 00	 call	 ?Add@?$CItemContainer@VCItemElem@@@@QAEHPAVCItemElem@@PAEPAF1@Z ; CItemContainer<CItemElem>::Add

; 439  : 				pItemElem->m_nItemNum = nTradeNum;

  0056a	8b 44 24 28	 mov	 eax, DWORD PTR _nTradeNum$253226[esp+132]

; 440  : 				pItemElem->SetExtra( 0 );
; 441  : 				if( nTradeNum == 0 )

  0056e	66 85 c0	 test	 ax, ax
  00571	66 89 87 80 00
	00 00		 mov	 WORD PTR [edi+128], ax
  00578	c7 47 10 00 00
	00 00		 mov	 DWORD PTR [edi+16], 0
  0057f	75 24		 jne	 SHORT $L253220

; 442  : 					m_pOwner->m_Inventory.RemoveAtId( pItemBase->m_dwObjId );	// 

  00581	8b 57 04	 mov	 edx, DWORD PTR [edi+4]
  00584	52		 push	 edx

; 443  : 			}
; 444  : 			else

  00585	eb 0d		 jmp	 SHORT $L260053
$L253225:

; 445  : 			{
; 446  : 				u.Add( pItemElem );	//   

  00587	8d 4c 24 44	 lea	 ecx, DWORD PTR _u$253207[esp+148]
  0058b	e8 00 00 00 00	 call	 ?Add@?$CItemContainer@VCItemElem@@@@QAEHPAVCItemElem@@PAEPAF1@Z ; CItemContainer<CItemElem>::Add

; 447  : 				m_pOwner->m_Inventory.RemoveAtId( pItemBase->m_dwObjId );	// 

  00590	8b 47 04	 mov	 eax, DWORD PTR [edi+4]
  00593	50		 push	 eax
$L260053:
  00594	8b 8d 80 00 00
	00		 mov	 ecx, DWORD PTR [ebp+128]
  0059a	81 c1 90 0b 00
	00		 add	 ecx, 2960		; 00000b90H
  005a0	e8 00 00 00 00	 call	 ?RemoveAtId@?$CItemContainer@VCItemElem@@@@QAEXK@Z ; CItemContainer<CItemElem>::RemoveAtId
$L253220:
  005a5	8b 4c 24 18	 mov	 ecx, DWORD PTR tv2134[esp+132]
  005a9	8b 44 24 10	 mov	 eax, DWORD PTR tv724[esp+132]
  005ad	83 c1 04	 add	 ecx, 4
  005b0	48		 dec	 eax
  005b1	89 4c 24 18	 mov	 DWORD PTR tv2134[esp+132], ecx
  005b5	89 44 24 10	 mov	 DWORD PTR tv724[esp+132], eax
  005b9	0f 85 31 ff ff
	ff		 jne	 $L253219

; 448  : 			}
; 449  : 		}
; 450  : 		
; 451  : 		// item_step2. pTrader -> m_pOwner
; 452  : 		for( i = 0; i < MAX_TRADE; i++ )

  005bf	33 c0		 xor	 eax, eax
  005c1	89 44 24 28	 mov	 DWORD PTR _i$253218[esp+132], eax
  005c5	eb 09 8d a4 24
	00 00 00 00 8b
	ff		 npad	 11
$L253229:

; 453  : 		{
; 454  : 			pItemBase = pTrader->m_vtInfo.GetItem( i );

  005d0	0f b6 c8	 movzx	 ecx, al
  005d3	8b bc 8b 80 0d
	00 00		 mov	 edi, DWORD PTR [ebx+ecx*4+3456]

; 455  : 			if( pItemBase == NULL )

  005da	85 ff		 test	 edi, edi
  005dc	8d 84 8b 80 0d
	00 00		 lea	 eax, DWORD PTR [ebx+ecx*4+3456]
  005e3	0f 84 b7 01 00
	00		 je	 $L253230

; 456  : 				continue;
; 457  : 
; 458  : 			pTrader->m_vtInfo.SetItem( i, NULL );

  005e9	c7 00 00 00 00
	00		 mov	 DWORD PTR [eax], 0

; 459  : 			uSize1++;

  005ef	8b 44 24 2c	 mov	 eax, DWORD PTR _uSize1$253211[esp+132]

; 460  : 			ar << pItemBase->m_dwItemId;

  005f3	8b 57 0c	 mov	 edx, DWORD PTR [edi+12]
  005f6	40		 inc	 eax
  005f7	6a 04		 push	 4
  005f9	8b ce		 mov	 ecx, esi
  005fb	89 44 24 30	 mov	 DWORD PTR _uSize1$253211[esp+136], eax
  005ff	89 54 24 14	 mov	 DWORD PTR $T259742[esp+136], edx
  00603	e8 00 00 00 00	 call	 ?CheckBuf@CAr@@QAEXI@Z	; CAr::CheckBuf
  00608	8b 46 08	 mov	 eax, DWORD PTR [esi+8]
  0060b	8b 4c 24 10	 mov	 ecx, DWORD PTR $T259742[esp+132]
  0060f	89 08		 mov	 DWORD PTR [eax], ecx
  00611	83 46 08 04	 add	 DWORD PTR [esi+8], 4

; 461  : 			ar << pItemBase->GetSerialNumber();

  00615	8b 57 38	 mov	 edx, DWORD PTR [edi+56]
  00618	6a 04		 push	 4
  0061a	8b ce		 mov	 ecx, esi
  0061c	89 54 24 14	 mov	 DWORD PTR $T259746[esp+136], edx
  00620	e8 00 00 00 00	 call	 ?CheckBuf@CAr@@QAEXI@Z	; CAr::CheckBuf
  00625	8b 46 08	 mov	 eax, DWORD PTR [esi+8]
  00628	8b 4c 24 10	 mov	 ecx, DWORD PTR $T259746[esp+132]
  0062c	89 08		 mov	 DWORD PTR [eax], ecx
  0062e	83 46 08 04	 add	 DWORD PTR [esi+8], 4

; 462  : 			//ar.WriteString( pItemBase->GetProp()->szName );
; 463  : 			char szItemId[32] = {0, };

  00632	33 d2		 xor	 edx, edx
  00634	89 54 24 55	 mov	 DWORD PTR _szItemId$253233[esp+133], edx
  00638	89 54 24 59	 mov	 DWORD PTR _szItemId$253233[esp+137], edx
  0063c	89 54 24 5d	 mov	 DWORD PTR _szItemId$253233[esp+141], edx
  00640	89 54 24 61	 mov	 DWORD PTR _szItemId$253233[esp+145], edx
  00644	89 54 24 65	 mov	 DWORD PTR _szItemId$253233[esp+149], edx
  00648	89 54 24 69	 mov	 DWORD PTR _szItemId$253233[esp+153], edx
  0064c	89 54 24 6d	 mov	 DWORD PTR _szItemId$253233[esp+157], edx
  00650	66 89 54 24 71	 mov	 WORD PTR _szItemId$253233[esp+161], dx

; 464  : 			_stprintf( szItemId, "%d", pItemBase->GetProp()->dwID );

  00655	8b cf		 mov	 ecx, edi
  00657	c6 44 24 54 00	 mov	 BYTE PTR _szItemId$253233[esp+132], 0
  0065c	88 54 24 73	 mov	 BYTE PTR _szItemId$253233[esp+163], dl
  00660	e8 00 00 00 00	 call	 ?GetPropA@CItemBase@@QAEPAUItemProp@@XZ ; CItemBase::GetPropA
  00665	8b 00		 mov	 eax, DWORD PTR [eax]
  00667	50		 push	 eax
  00668	8d 4c 24 58	 lea	 ecx, DWORD PTR _szItemId$253233[esp+136]
  0066c	68 00 00 00 00	 push	 OFFSET FLAT:??_C@_02DPKJAMEF@?$CFd?$AA@
  00671	51		 push	 ecx
  00672	e8 00 00 00 00	 call	 _sprintf
  00677	83 c4 0c	 add	 esp, 12			; 0000000cH

; 465  : 			ar.WriteString( szItemId );

  0067a	8d 54 24 54	 lea	 edx, DWORD PTR _szItemId$253233[esp+132]
  0067e	52		 push	 edx
  0067f	8b ce		 mov	 ecx, esi
  00681	e8 00 00 00 00	 call	 ?WriteString@CAr@@QAEXPBD@Z ; CAr::WriteString

; 466  : 
; 467  : 			CItemElem* pItemElem = ( CItemElem* )pItemBase;
; 468  : 			if( pItemElem->GetProp()->dwPackMax > 1 )

  00686	8b 47 0c	 mov	 eax, DWORD PTR [edi+12]
  00689	85 c0		 test	 eax, eax
  0068b	8b 0d 5c 02 00
	00		 mov	 ecx, DWORD PTR ?prj@@3VCProject@@A+604
  00691	7c 11		 jl	 SHORT $L259800
  00693	3b c1		 cmp	 eax, ecx
  00695	7d 0d		 jge	 SHORT $L259800
  00697	73 21		 jae	 SHORT $L260059
  00699	8b 0d 4c 02 00
	00		 mov	 ecx, DWORD PTR ?prj@@3VCProject@@A+588
  0069f	8b 04 81	 mov	 eax, DWORD PTR [ecx+eax*4]
  006a2	eb 18		 jmp	 SHORT $L259795
$L259800:
  006a4	50		 push	 eax
  006a5	51		 push	 ecx
  006a6	6a 00		 push	 0
  006a8	68 00 00 00 00	 push	 OFFSET FLAT:??_C@_0BI@BEIFNGEL@GetItemProp?5range_error?$AA@
  006ad	68 00 00 00 00	 push	 OFFSET FLAT:??_C@_0BM@HMFGHCP@?$CFs?5min?3?$CFd?0?5max?3?$CFd?0?5index?3?$CFd?$AA@
  006b2	e8 00 00 00 00	 call	 ?Error@@YAPBDPBDZZ	; Error
  006b7	83 c4 14	 add	 esp, 20			; 00000014H
$L260059:
  006ba	33 c0		 xor	 eax, eax
$L259795:
  006bc	83 78 6c 01	 cmp	 DWORD PTR [eax+108], 1
  006c0	76 5e		 jbe	 SHORT $L253237

; 469  : 			{
; 470  : 				int nTradeNum = pItemElem->m_nItemNum - pItemBase->GetExtra();

  006c2	0f bf 8f 80 00
	00 00		 movsx	 ecx, WORD PTR [edi+128]
  006c9	8b 47 10	 mov	 eax, DWORD PTR [edi+16]

; 471  : 				pItemElem->m_nItemNum = pItemBase->GetExtra();
; 472  : 				m_pOwner->m_Inventory.Add( pItemElem );

  006cc	6a 00		 push	 0
  006ce	2b c8		 sub	 ecx, eax
  006d0	6a 00		 push	 0
  006d2	89 4c 24 18	 mov	 DWORD PTR _nTradeNum$253238[esp+140], ecx
  006d6	66 89 87 80 00
	00 00		 mov	 WORD PTR [edi+128], ax
  006dd	8b 8d 80 00 00
	00		 mov	 ecx, DWORD PTR [ebp+128]
  006e3	6a 00		 push	 0
  006e5	57		 push	 edi
  006e6	81 c1 90 0b 00
	00		 add	 ecx, 2960		; 00000b90H
  006ec	e8 00 00 00 00	 call	 ?Add@?$CItemContainer@VCItemElem@@@@QAEHPAVCItemElem@@PAEPAF1@Z ; CItemContainer<CItemElem>::Add

; 473  : 				pItemElem->m_nItemNum = (short)nTradeNum;
; 474  : 
; 475  : 				TradeLog( ar, pItemBase, pItemBase->GetExtra() );

  006f1	8b 47 10	 mov	 eax, DWORD PTR [edi+16]
  006f4	66 8b 54 24 10	 mov	 dx, WORD PTR _nTradeNum$253238[esp+132]
  006f9	50		 push	 eax
  006fa	57		 push	 edi
  006fb	56		 push	 esi
  006fc	66 89 97 80 00
	00 00		 mov	 WORD PTR [edi+128], dx
  00703	e8 00 00 00 00	 call	 ?TradeLog@@YAXAAVCAr@@PAVCItemBase@@F@Z ; TradeLog

; 476  : 				
; 477  : 				pItemElem->SetExtra( 0 );
; 478  : 				if( nTradeNum == 0 )

  00708	8b 44 24 1c	 mov	 eax, DWORD PTR _nTradeNum$253238[esp+144]
  0070c	83 c4 0c	 add	 esp, 12			; 0000000cH
  0070f	85 c0		 test	 eax, eax
  00711	c7 47 10 00 00
	00 00		 mov	 DWORD PTR [edi+16], 0
  00718	0f 85 82 00 00
	00		 jne	 $L253230

; 479  : 					pTrader->m_Inventory.RemoveAtId( pItemBase->m_dwObjId );	
; 480  : 			}
; 481  : 			else

  0071e	eb 24		 jmp	 SHORT $L260057
$L253237:

; 482  : 			{
; 483  : 				TradeLog( ar, pItemBase, 1 );

  00720	6a 01		 push	 1
  00722	57		 push	 edi
  00723	56		 push	 esi
  00724	e8 00 00 00 00	 call	 ?TradeLog@@YAXAAVCAr@@PAVCItemBase@@F@Z ; TradeLog

; 484  : 				
; 485  : 				m_pOwner->m_Inventory.Add( pItemElem );	// pUser pTrader   

  00729	8b 8d 80 00 00
	00		 mov	 ecx, DWORD PTR [ebp+128]
  0072f	83 c4 0c	 add	 esp, 12			; 0000000cH
  00732	6a 00		 push	 0
  00734	6a 00		 push	 0
  00736	6a 00		 push	 0
  00738	57		 push	 edi
  00739	81 c1 90 0b 00
	00		 add	 ecx, 2960		; 00000b90H
  0073f	e8 00 00 00 00	 call	 ?Add@?$CItemContainer@VCItemElem@@@@QAEHPAVCItemElem@@PAEPAF1@Z ; CItemContainer<CItemElem>::Add
$L260057:

; 486  : 				pTrader->m_Inventory.RemoveAtId( pItemBase->m_dwObjId );	

  00744	8b 44 24 20	 mov	 eax, DWORD PTR tv1195[esp+132]
  00748	8b 7f 04	 mov	 edi, DWORD PTR [edi+4]
  0074b	8b 40 0c	 mov	 eax, DWORD PTR [eax+12]
  0074e	3b f8		 cmp	 edi, eax
  00750	73 4e		 jae	 SHORT $L253230
  00752	8b 4c 24 20	 mov	 ecx, DWORD PTR tv1195[esp+132]
  00756	69 ff b8 00 00
	00		 imul	 edi, 184		; 000000b8H
  0075c	8b 51 10	 mov	 edx, DWORD PTR [ecx+16]
  0075f	39 44 17 08	 cmp	 DWORD PTR [edi+edx+8], eax
  00763	73 3b		 jae	 SHORT $L253230
  00765	8b 44 24 20	 mov	 eax, DWORD PTR tv1195[esp+132]
  00769	8b 48 10	 mov	 ecx, DWORD PTR [eax+16]
  0076c	8b 14 39	 mov	 edx, DWORD PTR [ecx+edi]
  0076f	03 cf		 add	 ecx, edi
  00771	ff 52 0c	 call	 DWORD PTR [edx+12]
  00774	8b 44 24 20	 mov	 eax, DWORD PTR tv1195[esp+132]
  00778	8b 48 10	 mov	 ecx, DWORD PTR [eax+16]
  0077b	8b 54 0f 08	 mov	 edx, DWORD PTR [edi+ecx+8]
  0077f	3b 50 08	 cmp	 edx, DWORD PTR [eax+8]
  00782	72 1c		 jb	 SHORT $L253230
  00784	8b 48 10	 mov	 ecx, DWORD PTR [eax+16]
  00787	8b 54 0f 08	 mov	 edx, DWORD PTR [edi+ecx+8]
  0078b	8b 48 04	 mov	 ecx, DWORD PTR [eax+4]
  0078e	c7 04 91 ff ff
	ff ff		 mov	 DWORD PTR [ecx+edx*4], -1
  00795	8b 50 10	 mov	 edx, DWORD PTR [eax+16]
  00798	c7 44 17 08 ff
	ff ff ff	 mov	 DWORD PTR [edi+edx+8], -1
$L253230:
  007a0	8b 44 24 28	 mov	 eax, DWORD PTR _i$253218[esp+132]
  007a4	40		 inc	 eax
  007a5	83 f8 19	 cmp	 eax, 25			; 00000019H
  007a8	89 44 24 28	 mov	 DWORD PTR _i$253218[esp+132], eax
  007ac	0f 8c 1e fe ff
	ff		 jl	 $L253229

; 487  : 			}
; 488  : 		}
; 489  : 
; 490  : 		// item_step3.  -> pTrader
; 491  : 		nPlayers = u.GetCount();	//   .

  007b2	8b 4c 24 40	 mov	 ecx, DWORD PTR _u$253207[esp+144]
  007b6	33 d2		 xor	 edx, edx
  007b8	85 c9		 test	 ecx, ecx
  007ba	89 54 24 1c	 mov	 DWORD PTR _nCount$259851[esp+132], edx
  007be	76 28		 jbe	 SHORT $L259855
  007c0	8b 44 24 44	 mov	 eax, DWORD PTR _u$253207[esp+148]
  007c4	8b 7c 24 3c	 mov	 edi, DWORD PTR _u$253207[esp+140]
  007c8	83 c0 08	 add	 eax, 8
  007cb	eb 03 8d 49 00	 npad	 5
$L259853:
  007d0	8b 58 04	 mov	 ebx, DWORD PTR [eax+4]
  007d3	85 db		 test	 ebx, ebx
  007d5	74 05		 je	 SHORT $L259854
  007d7	39 38		 cmp	 DWORD PTR [eax], edi
  007d9	73 01		 jae	 SHORT $L259854
  007db	42		 inc	 edx
$L259854:
  007dc	05 b8 00 00 00	 add	 eax, 184		; 000000b8H
  007e1	49		 dec	 ecx
  007e2	75 ec		 jne	 SHORT $L259853
  007e4	89 54 24 1c	 mov	 DWORD PTR _nCount$259851[esp+132], edx
$L259855:

; 492  : 		for( i = 0; i < nPlayers; i++ )

  007e8	33 db		 xor	 ebx, ebx
  007ea	85 d2		 test	 edx, edx
  007ec	0f 8e f6 00 00
	00		 jle	 $L253244
  007f2	8b 44 24 44	 mov	 eax, DWORD PTR _u$253207[esp+148]
  007f6	8b 4c 24 1c	 mov	 ecx, DWORD PTR _nCount$259851[esp+132]
  007fa	89 44 24 18	 mov	 DWORD PTR tv2227[esp+132], eax
  007fe	89 4c 24 14	 mov	 DWORD PTR _uSize2$253214[esp+132], ecx
  00802	eb 04		 jmp	 SHORT $L253242
$L260044:
  00804	8b 44 24 18	 mov	 eax, DWORD PTR tv2227[esp+132]
$L253242:

; 493  : 		{
; 494  : 			pItemBase = u.GetAtId( i );

  00808	3b 5c 24 40	 cmp	 ebx, DWORD PTR _u$253207[esp+144]
  0080c	72 04		 jb	 SHORT $L259869
  0080e	33 ff		 xor	 edi, edi
  00810	eb 09		 jmp	 SHORT $L259871
$L259869:
  00812	8b 78 0c	 mov	 edi, DWORD PTR [eax+12]
  00815	f7 df		 neg	 edi
  00817	1b ff		 sbb	 edi, edi
  00819	23 f8		 and	 edi, eax
$L259871:

; 495  : 			pTrader->m_Inventory.Add( (CItemElem*)pItemBase );

  0081b	8b 4c 24 20	 mov	 ecx, DWORD PTR tv1195[esp+132]
  0081f	6a 00		 push	 0
  00821	6a 00		 push	 0
  00823	6a 00		 push	 0
  00825	57		 push	 edi
  00826	e8 00 00 00 00	 call	 ?Add@?$CItemContainer@VCItemElem@@@@QAEHPAVCItemElem@@PAEPAF1@Z ; CItemContainer<CItemElem>::Add

; 496  : 			uSize2++;
; 497  : 			ar << pItemBase->m_dwItemId;

  0082b	8b 57 0c	 mov	 edx, DWORD PTR [edi+12]
  0082e	6a 04		 push	 4
  00830	8b ce		 mov	 ecx, esi
  00832	89 54 24 14	 mov	 DWORD PTR $T259880[esp+136], edx
  00836	e8 00 00 00 00	 call	 ?CheckBuf@CAr@@QAEXI@Z	; CAr::CheckBuf
  0083b	8b 46 08	 mov	 eax, DWORD PTR [esi+8]
  0083e	8b 4c 24 10	 mov	 ecx, DWORD PTR $T259880[esp+132]
  00842	89 08		 mov	 DWORD PTR [eax], ecx
  00844	83 46 08 04	 add	 DWORD PTR [esi+8], 4

; 498  : 			ar << pItemBase->GetSerialNumber();

  00848	8b 57 38	 mov	 edx, DWORD PTR [edi+56]
  0084b	6a 04		 push	 4
  0084d	8b ce		 mov	 ecx, esi
  0084f	89 54 24 14	 mov	 DWORD PTR $T259884[esp+136], edx
  00853	e8 00 00 00 00	 call	 ?CheckBuf@CAr@@QAEXI@Z	; CAr::CheckBuf
  00858	8b 46 08	 mov	 eax, DWORD PTR [esi+8]
  0085b	8b 4c 24 10	 mov	 ecx, DWORD PTR $T259884[esp+132]
  0085f	89 08		 mov	 DWORD PTR [eax], ecx
  00861	83 46 08 04	 add	 DWORD PTR [esi+8], 4

; 499  : 			//ar.WriteString( pItemBase->GetProp()->szName );
; 500  : 			char szItemId[32] = {0, };

  00865	33 d2		 xor	 edx, edx
  00867	89 54 24 55	 mov	 DWORD PTR _szItemId$253246[esp+133], edx
  0086b	89 54 24 59	 mov	 DWORD PTR _szItemId$253246[esp+137], edx
  0086f	89 54 24 5d	 mov	 DWORD PTR _szItemId$253246[esp+141], edx
  00873	89 54 24 61	 mov	 DWORD PTR _szItemId$253246[esp+145], edx
  00877	89 54 24 65	 mov	 DWORD PTR _szItemId$253246[esp+149], edx
  0087b	89 54 24 69	 mov	 DWORD PTR _szItemId$253246[esp+153], edx
  0087f	89 54 24 6d	 mov	 DWORD PTR _szItemId$253246[esp+157], edx
  00883	66 89 54 24 71	 mov	 WORD PTR _szItemId$253246[esp+161], dx

; 501  : 			_stprintf( szItemId, "%d", pItemBase->GetProp()->dwID );

  00888	8b cf		 mov	 ecx, edi
  0088a	c6 44 24 54 00	 mov	 BYTE PTR _szItemId$253246[esp+132], 0
  0088f	88 54 24 73	 mov	 BYTE PTR _szItemId$253246[esp+163], dl
  00893	e8 00 00 00 00	 call	 ?GetPropA@CItemBase@@QAEPAUItemProp@@XZ ; CItemBase::GetPropA
  00898	8b 00		 mov	 eax, DWORD PTR [eax]
  0089a	50		 push	 eax
  0089b	8d 4c 24 58	 lea	 ecx, DWORD PTR _szItemId$253246[esp+136]
  0089f	68 00 00 00 00	 push	 OFFSET FLAT:??_C@_02DPKJAMEF@?$CFd?$AA@
  008a4	51		 push	 ecx
  008a5	e8 00 00 00 00	 call	 _sprintf
  008aa	83 c4 0c	 add	 esp, 12			; 0000000cH

; 502  : 			ar.WriteString( szItemId );

  008ad	8d 54 24 54	 lea	 edx, DWORD PTR _szItemId$253246[esp+132]
  008b1	52		 push	 edx
  008b2	8b ce		 mov	 ecx, esi
  008b4	e8 00 00 00 00	 call	 ?WriteString@CAr@@QAEXPBD@Z ; CAr::WriteString

; 503  : 			TradeLog( ar, pItemBase, ((CItemElem*)pItemBase)->m_nItemNum );

  008b9	33 c0		 xor	 eax, eax
  008bb	66 8b 87 80 00
	00 00		 mov	 ax, WORD PTR [edi+128]
  008c2	50		 push	 eax
  008c3	57		 push	 edi
  008c4	56		 push	 esi
  008c5	e8 00 00 00 00	 call	 ?TradeLog@@YAXAAVCAr@@PAVCItemBase@@F@Z ; TradeLog
  008ca	8b 4c 24 24	 mov	 ecx, DWORD PTR tv2227[esp+144]
  008ce	8b 44 24 28	 mov	 eax, DWORD PTR _nCount$259851[esp+144]
  008d2	83 c4 0c	 add	 esp, 12			; 0000000cH
  008d5	43		 inc	 ebx
  008d6	81 c1 b8 00 00
	00		 add	 ecx, 184		; 000000b8H
  008dc	3b d8		 cmp	 ebx, eax
  008de	89 4c 24 18	 mov	 DWORD PTR tv2227[esp+132], ecx
  008e2	0f 8c 1c ff ff
	ff		 jl	 $L260044
$L253244:

; 504  : 		}
; 505  : 
; 506  : //		GETBLOCK( ar, lpBlock, nBlockSize );
; 507  : 		int nBufSize;	
; 508  : 		LPBYTE lpBlock	= ar.GetBuffer( &nBufSize );

  008e8	8d 4c 24 50	 lea	 ecx, DWORD PTR _nBufSize$253248[esp+132]
  008ec	51		 push	 ecx
  008ed	8b ce		 mov	 ecx, esi
  008ef	e8 00 00 00 00	 call	 ?GetBuffer@CAr@@QAEPAEPAH@Z ; CAr::GetBuffer

; 509  : 
; 510  : 		*(UNALIGNED u_long*)( lpBlock + uOffset1 )	= uSize1;

  008f4	8b 54 24 2c	 mov	 edx, DWORD PTR _uSize1$253211[esp+132]
  008f8	8b 4c 24 4c	 mov	 ecx, DWORD PTR _uOffset1$253212[esp+132]
  008fc	89 14 08	 mov	 DWORD PTR [eax+ecx], edx

; 511  : 		*(UNALIGNED u_long*)( lpBlock + uOffset2 )	= uSize2;	

  008ff	8b 4c 24 48	 mov	 ecx, DWORD PTR _uOffset2$253215[esp+132]
  00903	8b 54 24 14	 mov	 edx, DWORD PTR _uSize2$253214[esp+132]
  00907	89 14 08	 mov	 DWORD PTR [eax+ecx], edx

; 512  : 	}

  0090a	8b 4c 24 44	 mov	 ecx, DWORD PTR _u$253207[esp+148]
  0090e	33 ff		 xor	 edi, edi
  00910	3b cf		 cmp	 ecx, edi
  00912	c7 84 24 80 00
	00 00 ff ff ff
	ff		 mov	 DWORD PTR __$EHRec$[esp+140], -1
  0091d	74 1b		 je	 SHORT $L259905
  0091f	8b 51 fc	 mov	 edx, DWORD PTR [ecx-4]
  00922	3b d7		 cmp	 edx, edi
  00924	8d 41 fc	 lea	 eax, DWORD PTR [ecx-4]
  00927	74 08		 je	 SHORT $L259904
  00929	8b 11		 mov	 edx, DWORD PTR [ecx]
  0092b	6a 03		 push	 3
  0092d	ff 12		 call	 DWORD PTR [edx]
  0092f	eb 09		 jmp	 SHORT $L259905
$L259904:
  00931	50		 push	 eax
  00932	e8 00 00 00 00	 call	 ??_V@YAXPAX@Z		; operator delete[]
  00937	83 c4 04	 add	 esp, 4
$L259905:
  0093a	8b 44 24 38	 mov	 eax, DWORD PTR _u$253207[esp+136]
  0093e	3b c7		 cmp	 eax, edi
  00940	74 09		 je	 SHORT $L259899
  00942	50		 push	 eax
  00943	e8 00 00 00 00	 call	 ??_V@YAXPAX@Z		; operator delete[]
  00948	83 c4 04	 add	 esp, 4
$L259899:

; 513  : 
; 514  : 
; 515  : 	TradeClear();

  0094b	83 cb ff	 or	 ebx, -1
  0094e	89 5d 7c	 mov	 DWORD PTR [ebp+124], ebx
  00951	8d 45 04	 lea	 eax, DWORD PTR [ebp+4]
  00954	ba 19 00 00 00	 mov	 edx, 25			; 00000019H
  00959	8d a4 24 00 00
	00 00		 npad	 7
$L259937:
  00960	8b 08		 mov	 ecx, DWORD PTR [eax]
  00962	3b cf		 cmp	 ecx, edi
  00964	74 05		 je	 SHORT $L259938
  00966	89 79 10	 mov	 DWORD PTR [ecx+16], edi
  00969	89 38		 mov	 DWORD PTR [eax], edi
$L259938:
  0096b	83 c0 04	 add	 eax, 4
  0096e	4a		 dec	 edx
  0096f	75 ef		 jne	 SHORT $L259937
  00971	8b 45 00	 mov	 eax, DWORD PTR [ebp]
  00974	3b c7		 cmp	 eax, edi
  00976	7e 12		 jle	 SHORT $L260042
  00978	8b 8d 80 00 00
	00		 mov	 ecx, DWORD PTR [ebp+128]
  0097e	3b cf		 cmp	 ecx, edi
  00980	74 08		 je	 SHORT $L260042
  00982	6a 01		 push	 1
  00984	50		 push	 eax
  00985	e8 00 00 00 00	 call	 ?AddGold@CMover@@QAEHHH@Z ; CMover::AddGold
$L260042:

; 516  : 	pTrader->m_vtInfo.TradeClear();

  0098a	8b 74 24 30	 mov	 esi, DWORD PTR tv1092[esp+132]
  0098e	89 7d 00	 mov	 DWORD PTR [ebp], edi
  00991	89 bd 84 00 00
	00		 mov	 DWORD PTR [ebp+132], edi
  00997	89 5e 7c	 mov	 DWORD PTR [esi+124], ebx
  0099a	8d 46 04	 lea	 eax, DWORD PTR [esi+4]
  0099d	ba 19 00 00 00	 mov	 edx, 25			; 00000019H
$L259986:
  009a2	8b 08		 mov	 ecx, DWORD PTR [eax]
  009a4	3b cf		 cmp	 ecx, edi
  009a6	74 05		 je	 SHORT $L259987
  009a8	89 79 10	 mov	 DWORD PTR [ecx+16], edi
  009ab	89 38		 mov	 DWORD PTR [eax], edi
$L259987:
  009ad	83 c0 04	 add	 eax, 4
  009b0	4a		 dec	 edx
  009b1	75 ef		 jne	 SHORT $L259986
  009b3	8b 06		 mov	 eax, DWORD PTR [esi]
  009b5	3b c7		 cmp	 eax, edi
  009b7	7e 12		 jle	 SHORT $L259991
  009b9	8b 8e 80 00 00
	00		 mov	 ecx, DWORD PTR [esi+128]
  009bf	3b cf		 cmp	 ecx, edi
  009c1	74 08		 je	 SHORT $L259991
  009c3	6a 01		 push	 1
  009c5	50		 push	 eax
  009c6	e8 00 00 00 00	 call	 ?AddGold@CMover@@QAEHHH@Z ; CMover::AddGold
$L259991:

; 517  : 	return result;

  009cb	8b 44 24 24	 mov	 eax, DWORD PTR _result$[esp+132]
  009cf	89 3e		 mov	 DWORD PTR [esi], edi
  009d1	89 be 84 00 00
	00		 mov	 DWORD PTR [esi+132], edi
  009d7	e9 b5 f6 ff ff	 jmp	 $L253185
_TEXT	ENDS
;	COMDAT text$x
text$x	SEGMENT
$L259425:
  00000	8d 4d b0	 lea	 ecx, DWORD PTR _u$253207[ebp]
  00003	e9 00 00 00 00	 jmp	 ??1?$CItemContainer@VCItemElem@@@@UAE@XZ ; CItemContainer<CItemElem>::~CItemContainer<CItemElem>
__ehhandler$?TradeLastConfirm@CVTInfo@@QAE?AW4TRADE_CONFIRM_TYPE@@AAVCAr@@@Z:
  00008	b8 00 00 00 00	 mov	 eax, OFFSET FLAT:$T260011
  0000d	e9 00 00 00 00	 jmp	 ___CxxFrameHandler
text$x	ENDS
?TradeLastConfirm@CVTInfo@@QAE?AW4TRADE_CONFIRM_TYPE@@AAVCAr@@@Z ENDP ; CVTInfo::TradeLastConfirm
PUBLIC	?_Grow@?$basic_string@DU?$char_traits@D@std@@V?$allocator@D@2@@std@@IAE_NI_N@Z ; std::basic_string<char,std::char_traits<char>,std::allocator<char> >::_Grow
EXTRN	?_Xlen@_String_base@std@@QBEXXZ:NEAR		; std::_String_base::_Xlen
; Function compile flags: /Ogty
; File c:\program files\microsoft visual studio .net 2003\vc7\include\xstring
;	COMDAT ?_Grow@?$basic_string@DU?$char_traits@D@std@@V?$allocator@D@2@@std@@IAE_NI_N@Z
_TEXT	SEGMENT
__Newsize$ = 8						; size = 4
__Trim$ = 12						; size = 1
?_Grow@?$basic_string@DU?$char_traits@D@std@@V?$allocator@D@2@@std@@IAE_NI_N@Z PROC NEAR ; std::basic_string<char,std::char_traits<char>,std::allocator<char> >::_Grow, COMDAT
; _this$ = ecx

; 1480 : 		{	// ensure buffer is big enough, trim to size if _Trim is true

  00000	55		 push	 ebp
  00001	56		 push	 esi

; 1481 : 		if (max_size() < _Newsize)

  00002	8b 74 24 0c	 mov	 esi, DWORD PTR __Newsize$[esp+4]
  00006	83 fe fe	 cmp	 esi, -2			; fffffffeH
  00009	8b e9		 mov	 ebp, ecx
  0000b	76 05		 jbe	 SHORT $L221380

; 1482 : 			_String_base::_Xlen();	// result too long

  0000d	e8 00 00 00 00	 call	 ?_Xlen@_String_base@std@@QBEXXZ ; std::_String_base::_Xlen
$L221380:

; 1483 : 		if (_Myres < _Newsize)

  00012	8b 45 18	 mov	 eax, DWORD PTR [ebp+24]
  00015	3b c6		 cmp	 eax, esi
  00017	73 19		 jae	 SHORT $L221381

; 1484 : 			_Copy(_Newsize, _Mysize);	// reallocate to grow

  00019	8b 45 14	 mov	 eax, DWORD PTR [ebp+20]
  0001c	50		 push	 eax
  0001d	56		 push	 esi
  0001e	8b cd		 mov	 ecx, ebp
  00020	e8 00 00 00 00	 call	 ?_Copy@?$basic_string@DU?$char_traits@D@std@@V?$allocator@D@2@@std@@IAEXII@Z ; std::basic_string<char,std::char_traits<char>,std::allocator<char> >::_Copy

; 1490 : 		return (0 < _Newsize);	// return true only if more work to do

  00025	33 c0		 xor	 eax, eax
  00027	3b c6		 cmp	 eax, esi
  00029	1b c0		 sbb	 eax, eax
  0002b	5e		 pop	 esi
  0002c	f7 d8		 neg	 eax
  0002e	5d		 pop	 ebp

; 1491 : 		}

  0002f	c2 08 00	 ret	 8
$L221381:

; 1485 : 		else if (_Trim && _Newsize < _BUF_SIZE)

  00032	8a 4c 24 10	 mov	 cl, BYTE PTR __Trim$[esp+4]
  00036	84 c9		 test	 cl, cl
  00038	74 5c		 je	 SHORT $L221383
  0003a	83 fe 10	 cmp	 esi, 16			; 00000010H
  0003d	73 57		 jae	 SHORT $L221383
  0003f	53		 push	 ebx

; 1486 : 			_Tidy(true,	// copy and deallocate if trimming to small string
; 1487 : 				_Newsize < _Mysize ? _Newsize : _Mysize);

  00040	8b 5d 14	 mov	 ebx, DWORD PTR [ebp+20]
  00043	3b f3		 cmp	 esi, ebx
  00045	73 02		 jae	 SHORT $L260067
  00047	8b de		 mov	 ebx, esi
$L260067:
  00049	83 f8 10	 cmp	 eax, 16			; 00000010H
  0004c	72 2b		 jb	 SHORT $L260136
  0004e	85 db		 test	 ebx, ebx
  00050	8b 45 04	 mov	 eax, DWORD PTR [ebp+4]
  00053	57		 push	 edi
  00054	8d 7d 04	 lea	 edi, DWORD PTR [ebp+4]
  00057	76 16		 jbe	 SHORT $L260134
  00059	8b cb		 mov	 ecx, ebx
  0005b	8b d1		 mov	 edx, ecx
  0005d	c1 e9 02	 shr	 ecx, 2
  00060	8b f0		 mov	 esi, eax
  00062	f3 a5		 rep movsd
  00064	8b ca		 mov	 ecx, edx
  00066	83 e1 03	 and	 ecx, 3
  00069	f3 a4		 rep movsb
  0006b	8b 74 24 14	 mov	 esi, DWORD PTR __Newsize$[esp+12]
$L260134:
  0006f	50		 push	 eax
  00070	e8 00 00 00 00	 call	 ??3@YAXPAX@Z		; operator delete
  00075	83 c4 04	 add	 esp, 4
  00078	5f		 pop	 edi
$L260136:
  00079	89 5d 14	 mov	 DWORD PTR [ebp+20], ebx

; 1490 : 		return (0 < _Newsize);	// return true only if more work to do

  0007c	33 c0		 xor	 eax, eax
  0007e	c7 45 18 0f 00
	00 00		 mov	 DWORD PTR [ebp+24], 15	; 0000000fH
  00085	c6 44 2b 04 00	 mov	 BYTE PTR [ebx+ebp+4], 0
  0008a	3b c6		 cmp	 eax, esi
  0008c	5b		 pop	 ebx
  0008d	1b c0		 sbb	 eax, eax
  0008f	5e		 pop	 esi
  00090	f7 d8		 neg	 eax
  00092	5d		 pop	 ebp

; 1491 : 		}

  00093	c2 08 00	 ret	 8
$L221383:

; 1488 : 		else if (_Newsize == 0)

  00096	85 f6		 test	 esi, esi
  00098	75 23		 jne	 SHORT $L260157

; 1489 : 			_Eos(0);	// new size is zero, just null terminate

  0009a	83 f8 10	 cmp	 eax, 16			; 00000010H
  0009d	89 75 14	 mov	 DWORD PTR [ebp+20], esi
  000a0	72 14		 jb	 SHORT $L260154
  000a2	8b 6d 04	 mov	 ebp, DWORD PTR [ebp+4]

; 1490 : 		return (0 < _Newsize);	// return true only if more work to do

  000a5	33 c0		 xor	 eax, eax
  000a7	3b c6		 cmp	 eax, esi
  000a9	1b c0		 sbb	 eax, eax
  000ab	5e		 pop	 esi
  000ac	c6 45 00 00	 mov	 BYTE PTR [ebp], 0
  000b0	f7 d8		 neg	 eax
  000b2	5d		 pop	 ebp

; 1491 : 		}

  000b3	c2 08 00	 ret	 8

; 1489 : 			_Eos(0);	// new size is zero, just null terminate

$L260154:
  000b6	83 c5 04	 add	 ebp, 4
  000b9	c6 45 00 00	 mov	 BYTE PTR [ebp], 0
$L260157:

; 1490 : 		return (0 < _Newsize);	// return true only if more work to do

  000bd	33 c0		 xor	 eax, eax
  000bf	3b c6		 cmp	 eax, esi
  000c1	1b c0		 sbb	 eax, eax
  000c3	5e		 pop	 esi
  000c4	f7 d8		 neg	 eax
  000c6	5d		 pop	 ebp

; 1491 : 		}

  000c7	c2 08 00	 ret	 8
?_Grow@?$basic_string@DU?$char_traits@D@std@@V?$allocator@D@2@@std@@IAE_NI_N@Z ENDP ; std::basic_string<char,std::char_traits<char>,std::allocator<char> >::_Grow
_TEXT	ENDS
PUBLIC	?assign@?$basic_string@DU?$char_traits@D@std@@V?$allocator@D@2@@std@@QAEAAV12@ABV12@II@Z ; std::basic_string<char,std::char_traits<char>,std::allocator<char> >::assign
; Function compile flags: /Ogty
;	COMDAT ?assign@?$basic_string@DU?$char_traits@D@std@@V?$allocator@D@2@@std@@QAEAAV12@ABV12@II@Z
_TEXT	SEGMENT
__Right$ = 8						; size = 4
__Roff$ = 12						; size = 4
__Count$ = 16						; size = 4
?assign@?$basic_string@DU?$char_traits@D@std@@V?$allocator@D@2@@std@@QAEAAV12@ABV12@II@Z PROC NEAR ; std::basic_string<char,std::char_traits<char>,std::allocator<char> >::assign, COMDAT
; _this$ = ecx

; 590  : 		{	// assign _Right [_Roff, _Roff + _Count)

  00000	53		 push	 ebx
  00001	55		 push	 ebp
  00002	56		 push	 esi

; 591  : 		if (_Right.size() < _Roff)

  00003	8b 74 24 14	 mov	 esi, DWORD PTR __Roff$[esp+8]
  00007	57		 push	 edi
  00008	8b 7c 24 14	 mov	 edi, DWORD PTR __Right$[esp+12]
  0000c	39 77 14	 cmp	 DWORD PTR [edi+20], esi
  0000f	8b d9		 mov	 ebx, ecx
  00011	73 05		 jae	 SHORT $L220001

; 592  : 			_String_base::_Xran();	// _Roff off end

  00013	e8 00 00 00 00	 call	 ?_Xran@_String_base@std@@QBEXXZ ; std::_String_base::_Xran
$L220001:

; 593  : 		size_type _Num = _Right.size() - _Roff;

  00018	8b 6f 14	 mov	 ebp, DWORD PTR [edi+20]

; 594  : 		if (_Count < _Num)

  0001b	8b 44 24 1c	 mov	 eax, DWORD PTR __Count$[esp+12]
  0001f	2b ee		 sub	 ebp, esi
  00021	3b c5		 cmp	 eax, ebp
  00023	73 02		 jae	 SHORT $L220003

; 595  : 			_Num = _Count;	// trim _Num to size

  00025	8b e8		 mov	 ebp, eax
$L220003:

; 596  : 
; 597  : 		if (this == &_Right)

  00027	3b df		 cmp	 ebx, edi
  00029	75 1f		 jne	 SHORT $L220004

; 598  : 			erase((size_type)(_Roff + _Num)), erase(0, _Roff);	// substring

  0002b	6a ff		 push	 -1
  0002d	03 ee		 add	 ebp, esi
  0002f	55		 push	 ebp
  00030	8b cb		 mov	 ecx, ebx
  00032	e8 00 00 00 00	 call	 ?erase@?$basic_string@DU?$char_traits@D@std@@V?$allocator@D@2@@std@@QAEAAV12@II@Z ; std::basic_string<char,std::char_traits<char>,std::allocator<char> >::erase
  00037	56		 push	 esi
  00038	6a 00		 push	 0
  0003a	8b cb		 mov	 ecx, ebx
  0003c	e8 00 00 00 00	 call	 ?erase@?$basic_string@DU?$char_traits@D@std@@V?$allocator@D@2@@std@@QAEAAV12@II@Z ; std::basic_string<char,std::char_traits<char>,std::allocator<char> >::erase
  00041	5f		 pop	 edi
  00042	5e		 pop	 esi
  00043	5d		 pop	 ebp

; 603  : 			}
; 604  : 		return (*this);

  00044	8b c3		 mov	 eax, ebx
  00046	5b		 pop	 ebx

; 605  : 		}

  00047	c2 0c 00	 ret	 12			; 0000000cH
$L220004:

; 599  : 		else if (_Grow(_Num))

  0004a	83 fd fe	 cmp	 ebp, -2			; fffffffeH
  0004d	76 07		 jbe	 SHORT $L260311
  0004f	8b cb		 mov	 ecx, ebx
  00051	e8 00 00 00 00	 call	 ?_Xlen@_String_base@std@@QBEXXZ ; std::_String_base::_Xlen
$L260311:
  00056	8b 43 18	 mov	 eax, DWORD PTR [ebx+24]
  00059	3b c5		 cmp	 eax, ebp
  0005b	73 21		 jae	 SHORT $L260312
  0005d	8b 43 14	 mov	 eax, DWORD PTR [ebx+20]
  00060	50		 push	 eax
  00061	55		 push	 ebp
  00062	8b cb		 mov	 ecx, ebx
  00064	e8 00 00 00 00	 call	 ?_Copy@?$basic_string@DU?$char_traits@D@std@@V?$allocator@D@2@@std@@IAEXII@Z ; std::basic_string<char,std::char_traits<char>,std::allocator<char> >::_Copy
  00069	85 ed		 test	 ebp, ebp
$L260357:
  0006b	76 6d		 jbe	 SHORT $L260356

; 600  : 			{	// make room and assign new stuff
; 601  : 			_Traits::copy(_Myptr(), _Right._Myptr() + _Roff, _Num);

  0006d	8b 4f 18	 mov	 ecx, DWORD PTR [edi+24]
  00070	b8 10 00 00 00	 mov	 eax, 16			; 00000010H
  00075	3b c8		 cmp	 ecx, eax
  00077	72 2f		 jb	 SHORT $L260321
  00079	8b 57 04	 mov	 edx, DWORD PTR [edi+4]
  0007c	eb 2d		 jmp	 SHORT $L260322

; 599  : 		else if (_Grow(_Num))

$L260312:
  0007e	85 ed		 test	 ebp, ebp
  00080	75 e9		 jne	 SHORT $L260357
  00082	83 f8 10	 cmp	 eax, 16			; 00000010H
  00085	89 6b 14	 mov	 DWORD PTR [ebx+20], ebp
  00088	72 0f		 jb	 SHORT $L260304
  0008a	8b 43 04	 mov	 eax, DWORD PTR [ebx+4]
  0008d	5f		 pop	 edi
  0008e	5e		 pop	 esi
  0008f	c6 00 00	 mov	 BYTE PTR [eax], 0
  00092	5d		 pop	 ebp

; 603  : 			}
; 604  : 		return (*this);

  00093	8b c3		 mov	 eax, ebx
  00095	5b		 pop	 ebx

; 605  : 		}

  00096	c2 0c 00	 ret	 12			; 0000000cH

; 599  : 		else if (_Grow(_Num))

$L260304:
  00099	5f		 pop	 edi
  0009a	8d 43 04	 lea	 eax, DWORD PTR [ebx+4]
  0009d	5e		 pop	 esi
  0009e	c6 00 00	 mov	 BYTE PTR [eax], 0
  000a1	5d		 pop	 ebp

; 603  : 			}
; 604  : 		return (*this);

  000a2	8b c3		 mov	 eax, ebx
  000a4	5b		 pop	 ebx

; 605  : 		}

  000a5	c2 0c 00	 ret	 12			; 0000000cH

; 600  : 			{	// make room and assign new stuff
; 601  : 			_Traits::copy(_Myptr(), _Right._Myptr() + _Roff, _Num);

$L260321:
  000a8	8d 57 04	 lea	 edx, DWORD PTR [edi+4]
$L260322:
  000ab	39 43 18	 cmp	 DWORD PTR [ebx+24], eax
  000ae	8d 43 04	 lea	 eax, DWORD PTR [ebx+4]
  000b1	72 04		 jb	 SHORT $L260329
  000b3	8b 38		 mov	 edi, DWORD PTR [eax]
  000b5	eb 02		 jmp	 SHORT $L260330
$L260329:
  000b7	8b f8		 mov	 edi, eax
$L260330:
  000b9	03 f2		 add	 esi, edx
  000bb	8b cd		 mov	 ecx, ebp
  000bd	8b d1		 mov	 edx, ecx
  000bf	c1 e9 02	 shr	 ecx, 2
  000c2	f3 a5		 rep movsd
  000c4	8b ca		 mov	 ecx, edx
  000c6	83 e1 03	 and	 ecx, 3
  000c9	f3 a4		 rep movsb

; 602  : 			_Eos(_Num);

  000cb	83 7b 18 10	 cmp	 DWORD PTR [ebx+24], 16	; 00000010H
  000cf	89 6b 14	 mov	 DWORD PTR [ebx+20], ebp
  000d2	72 02		 jb	 SHORT $L260353
  000d4	8b 00		 mov	 eax, DWORD PTR [eax]
$L260353:
  000d6	c6 04 28 00	 mov	 BYTE PTR [eax+ebp], 0
$L260356:
  000da	5f		 pop	 edi
  000db	5e		 pop	 esi
  000dc	5d		 pop	 ebp

; 603  : 			}
; 604  : 		return (*this);

  000dd	8b c3		 mov	 eax, ebx
  000df	5b		 pop	 ebx

; 605  : 		}

  000e0	c2 0c 00	 ret	 12			; 0000000cH
?assign@?$basic_string@DU?$char_traits@D@std@@V?$allocator@D@2@@std@@QAEAAV12@ABV12@II@Z ENDP ; std::basic_string<char,std::char_traits<char>,std::allocator<char> >::assign
_TEXT	ENDS
PUBLIC	?assign@?$basic_string@DU?$char_traits@D@std@@V?$allocator@D@2@@std@@QAEAAV12@PBDI@Z ; std::basic_string<char,std::char_traits<char>,std::allocator<char> >::assign
; Function compile flags: /Ogty
;	COMDAT ?assign@?$basic_string@DU?$char_traits@D@std@@V?$allocator@D@2@@std@@QAEAAV12@PBDI@Z
_TEXT	SEGMENT
__Ptr$ = 8						; size = 4
__Num$ = 12						; size = 4
?assign@?$basic_string@DU?$char_traits@D@std@@V?$allocator@D@2@@std@@QAEAAV12@PBDI@Z PROC NEAR ; std::basic_string<char,std::char_traits<char>,std::allocator<char> >::assign, COMDAT
; _this$ = ecx

; 608  : 		{	// assign [_Ptr, _Ptr + _Num)

  00000	53		 push	 ebx
  00001	8b d9		 mov	 ebx, ecx

; 609  : 		if (_Inside(_Ptr))

  00003	8b 53 18	 mov	 edx, DWORD PTR [ebx+24]
  00006	83 fa 10	 cmp	 edx, 16			; 00000010H
  00009	56		 push	 esi
  0000a	57		 push	 edi
  0000b	72 05		 jb	 SHORT $L260379
  0000d	8b 43 04	 mov	 eax, DWORD PTR [ebx+4]
  00010	eb 03		 jmp	 SHORT $L260380
$L260379:
  00012	8d 43 04	 lea	 eax, DWORD PTR [ebx+4]
$L260380:
  00015	8b 74 24 10	 mov	 esi, DWORD PTR __Ptr$[esp+8]
  00019	3b f0		 cmp	 esi, eax
  0001b	72 34		 jb	 SHORT $L221367
  0001d	83 fa 10	 cmp	 edx, 16			; 00000010H
  00020	8d 43 04	 lea	 eax, DWORD PTR [ebx+4]
  00023	72 04		 jb	 SHORT $L260383
  00025	8b 08		 mov	 ecx, DWORD PTR [eax]
  00027	eb 02		 jmp	 SHORT $L260384
$L260383:
  00029	8b c8		 mov	 ecx, eax
$L260384:
  0002b	8b 7b 14	 mov	 edi, DWORD PTR [ebx+20]
  0002e	03 f9		 add	 edi, ecx
  00030	3b fe		 cmp	 edi, esi
  00032	76 1d		 jbe	 SHORT $L221367

; 610  : 			return (assign(*this, _Ptr - _Myptr(), _Num));	// substring

  00034	83 fa 10	 cmp	 edx, 16			; 00000010H
  00037	72 02		 jb	 SHORT $L260396
  00039	8b 00		 mov	 eax, DWORD PTR [eax]
$L260396:
  0003b	8b 4c 24 14	 mov	 ecx, DWORD PTR __Num$[esp+8]
  0003f	51		 push	 ecx
  00040	2b f0		 sub	 esi, eax
  00042	56		 push	 esi
  00043	53		 push	 ebx
  00044	8b cb		 mov	 ecx, ebx
  00046	e8 00 00 00 00	 call	 ?assign@?$basic_string@DU?$char_traits@D@std@@V?$allocator@D@2@@std@@QAEAAV12@ABV12@II@Z ; std::basic_string<char,std::char_traits<char>,std::allocator<char> >::assign
  0004b	5f		 pop	 edi
  0004c	5e		 pop	 esi
  0004d	5b		 pop	 ebx

; 618  : 		}

  0004e	c2 08 00	 ret	 8
$L221367:
  00051	55		 push	 ebp

; 611  : 
; 612  : 		if (_Grow(_Num))

  00052	8b 6c 24 18	 mov	 ebp, DWORD PTR __Num$[esp+12]
  00056	83 fd fe	 cmp	 ebp, -2			; fffffffeH
  00059	76 07		 jbe	 SHORT $L260494
  0005b	8b cb		 mov	 ecx, ebx
  0005d	e8 00 00 00 00	 call	 ?_Xlen@_String_base@std@@QBEXXZ ; std::_String_base::_Xlen
$L260494:
  00062	8b 43 18	 mov	 eax, DWORD PTR [ebx+24]
  00065	3b c5		 cmp	 eax, ebp
  00067	73 1b		 jae	 SHORT $L260495
  00069	8b 53 14	 mov	 edx, DWORD PTR [ebx+20]
  0006c	52		 push	 edx
  0006d	55		 push	 ebp
  0006e	8b cb		 mov	 ecx, ebx
  00070	e8 00 00 00 00	 call	 ?_Copy@?$basic_string@DU?$char_traits@D@std@@V?$allocator@D@2@@std@@IAEXII@Z ; std::basic_string<char,std::char_traits<char>,std::allocator<char> >::_Copy
  00075	85 ed		 test	 ebp, ebp
$L260575:
  00077	76 68		 jbe	 SHORT $L260572

; 613  : 			{	// make room and assign new stuff
; 614  : 			_Traits::copy(_Myptr(), _Ptr, _Num);

  00079	83 7b 18 10	 cmp	 DWORD PTR [ebx+24], 16	; 00000010H
  0007d	72 2f		 jb	 SHORT $L260547
  0007f	8b 7b 04	 mov	 edi, DWORD PTR [ebx+4]
  00082	eb 2d		 jmp	 SHORT $L260548

; 611  : 
; 612  : 		if (_Grow(_Num))

$L260495:
  00084	85 ed		 test	 ebp, ebp
  00086	75 ef		 jne	 SHORT $L260575
  00088	83 f8 10	 cmp	 eax, 16			; 00000010H
  0008b	89 6b 14	 mov	 DWORD PTR [ebx+20], ebp
  0008e	72 0f		 jb	 SHORT $L260538
  00090	8b 43 04	 mov	 eax, DWORD PTR [ebx+4]
  00093	5d		 pop	 ebp
  00094	5f		 pop	 edi
  00095	c6 00 00	 mov	 BYTE PTR [eax], 0
  00098	5e		 pop	 esi

; 616  : 			}
; 617  : 		return (*this);

  00099	8b c3		 mov	 eax, ebx
  0009b	5b		 pop	 ebx

; 618  : 		}

  0009c	c2 08 00	 ret	 8

; 611  : 
; 612  : 		if (_Grow(_Num))

$L260538:
  0009f	5d		 pop	 ebp
  000a0	8d 43 04	 lea	 eax, DWORD PTR [ebx+4]
  000a3	5f		 pop	 edi
  000a4	c6 00 00	 mov	 BYTE PTR [eax], 0
  000a7	5e		 pop	 esi

; 616  : 			}
; 617  : 		return (*this);

  000a8	8b c3		 mov	 eax, ebx
  000aa	5b		 pop	 ebx

; 618  : 		}

  000ab	c2 08 00	 ret	 8

; 613  : 			{	// make room and assign new stuff
; 614  : 			_Traits::copy(_Myptr(), _Ptr, _Num);

$L260547:
  000ae	8d 7b 04	 lea	 edi, DWORD PTR [ebx+4]
$L260548:
  000b1	8b cd		 mov	 ecx, ebp
  000b3	8b c1		 mov	 eax, ecx
  000b5	c1 e9 02	 shr	 ecx, 2
  000b8	f3 a5		 rep movsd
  000ba	8b c8		 mov	 ecx, eax
  000bc	83 e1 03	 and	 ecx, 3
  000bf	f3 a4		 rep movsb

; 615  : 			_Eos(_Num);

  000c1	83 7b 18 10	 cmp	 DWORD PTR [ebx+24], 16	; 00000010H
  000c5	89 6b 14	 mov	 DWORD PTR [ebx+20], ebp
  000c8	72 10		 jb	 SHORT $L260570
  000ca	8b 43 04	 mov	 eax, DWORD PTR [ebx+4]
  000cd	c6 04 28 00	 mov	 BYTE PTR [eax+ebp], 0
  000d1	5d		 pop	 ebp
  000d2	5f		 pop	 edi
  000d3	5e		 pop	 esi

; 616  : 			}
; 617  : 		return (*this);

  000d4	8b c3		 mov	 eax, ebx
  000d6	5b		 pop	 ebx

; 618  : 		}

  000d7	c2 08 00	 ret	 8

; 615  : 			_Eos(_Num);

$L260570:
  000da	8d 43 04	 lea	 eax, DWORD PTR [ebx+4]
  000dd	c6 04 28 00	 mov	 BYTE PTR [eax+ebp], 0
$L260572:
  000e1	5d		 pop	 ebp
  000e2	5f		 pop	 edi
  000e3	5e		 pop	 esi

; 616  : 			}
; 617  : 		return (*this);

  000e4	8b c3		 mov	 eax, ebx
  000e6	5b		 pop	 ebx

; 618  : 		}

  000e7	c2 08 00	 ret	 8
?assign@?$basic_string@DU?$char_traits@D@std@@V?$allocator@D@2@@std@@QAEAAV12@PBDI@Z ENDP ; std::basic_string<char,std::char_traits<char>,std::allocator<char> >::assign
_TEXT	ENDS
PUBLIC	?assign@?$basic_string@DU?$char_traits@D@std@@V?$allocator@D@2@@std@@QAEAAV12@PBD@Z ; std::basic_string<char,std::char_traits<char>,std::allocator<char> >::assign
; Function compile flags: /Ogty
;	COMDAT ?assign@?$basic_string@DU?$char_traits@D@std@@V?$allocator@D@2@@std@@QAEAAV12@PBD@Z
_TEXT	SEGMENT
__Ptr$ = 8						; size = 4
?assign@?$basic_string@DU?$char_traits@D@std@@V?$allocator@D@2@@std@@QAEAAV12@PBD@Z PROC NEAR ; std::basic_string<char,std::char_traits<char>,std::allocator<char> >::assign, COMDAT
; _this$ = ecx

; 621  : 		{	// assign [_Ptr, <null>)

  00000	56		 push	 esi

; 622  : 		return (assign(_Ptr, _Traits::length(_Ptr)));

  00001	8b 74 24 08	 mov	 esi, DWORD PTR __Ptr$[esp]
  00005	8b c6		 mov	 eax, esi
  00007	57		 push	 edi
  00008	8d 78 01	 lea	 edi, DWORD PTR [eax+1]
  0000b	eb 03 8d 49 00	 npad	 5
$L260582:
  00010	8a 10		 mov	 dl, BYTE PTR [eax]
  00012	40		 inc	 eax
  00013	84 d2		 test	 dl, dl
  00015	75 f9		 jne	 SHORT $L260582
  00017	2b c7		 sub	 eax, edi
  00019	50		 push	 eax
  0001a	56		 push	 esi
  0001b	e8 00 00 00 00	 call	 ?assign@?$basic_string@DU?$char_traits@D@std@@V?$allocator@D@2@@std@@QAEAAV12@PBDI@Z ; std::basic_string<char,std::char_traits<char>,std::allocator<char> >::assign
  00020	5f		 pop	 edi
  00021	5e		 pop	 esi

; 623  : 		}

  00022	c2 04 00	 ret	 4
?assign@?$basic_string@DU?$char_traits@D@std@@V?$allocator@D@2@@std@@QAEAAV12@PBD@Z ENDP ; std::basic_string<char,std::char_traits<char>,std::allocator<char> >::assign
_TEXT	ENDS
PUBLIC	??4?$basic_string@DU?$char_traits@D@std@@V?$allocator@D@2@@std@@QAEAAV01@PBD@Z ; std::basic_string<char,std::char_traits<char>,std::allocator<char> >::operator=
; Function compile flags: /Ogty
;	COMDAT ??4?$basic_string@DU?$char_traits@D@std@@V?$allocator@D@2@@std@@QAEAAV01@PBD@Z
_TEXT	SEGMENT
__Ptr$ = 8						; size = 4
??4?$basic_string@DU?$char_traits@D@std@@V?$allocator@D@2@@std@@QAEAAV01@PBD@Z PROC NEAR ; std::basic_string<char,std::char_traits<char>,std::allocator<char> >::operator=, COMDAT
; _this$ = ecx

; 471  : 		{	// assign [_Ptr, <null>)

  00000	56		 push	 esi

; 472  : 		return (assign(_Ptr));

  00001	8b 74 24 08	 mov	 esi, DWORD PTR __Ptr$[esp]
  00005	8b c6		 mov	 eax, esi
  00007	57		 push	 edi
  00008	8d 78 01	 lea	 edi, DWORD PTR [eax+1]
  0000b	eb 03 8d 49 00	 npad	 5
$L260594:
  00010	8a 10		 mov	 dl, BYTE PTR [eax]
  00012	40		 inc	 eax
  00013	84 d2		 test	 dl, dl
  00015	75 f9		 jne	 SHORT $L260594
  00017	2b c7		 sub	 eax, edi
  00019	50		 push	 eax
  0001a	56		 push	 esi
  0001b	e8 00 00 00 00	 call	 ?assign@?$basic_string@DU?$char_traits@D@std@@V?$allocator@D@2@@std@@QAEAAV12@PBDI@Z ; std::basic_string<char,std::char_traits<char>,std::allocator<char> >::assign
  00020	5f		 pop	 edi
  00021	5e		 pop	 esi

; 473  : 		}

  00022	c2 04 00	 ret	 4
??4?$basic_string@DU?$char_traits@D@std@@V?$allocator@D@2@@std@@QAEAAV01@PBD@Z ENDP ; std::basic_string<char,std::char_traits<char>,std::allocator<char> >::operator=
_TEXT	ENDS
PUBLIC	?SetTitle@CVTInfo@@QAEXPBD@Z			; CVTInfo::SetTitle
; Function compile flags: /Ogty
; File c:\documents and settings\test\mes documents\source\virtuos_v17\build\program\_common\moveritem.cpp
;	COMDAT ?SetTitle@CVTInfo@@QAEXPBD@Z
_TEXT	SEGMENT
_szTitle$ = 8						; size = 4
?SetTitle@CVTInfo@@QAEXPBD@Z PROC NEAR			; CVTInfo::SetTitle, COMDAT
; _this$ = ecx

; 53   : {

  00000	56		 push	 esi

; 54   : 	m_strTitle = szTitle;

  00001	8b 74 24 08	 mov	 esi, DWORD PTR _szTitle$[esp]
  00005	8b c6		 mov	 eax, esi
  00007	57		 push	 edi
  00008	8d 78 01	 lea	 edi, DWORD PTR [eax+1]
  0000b	eb 03 8d 49 00	 npad	 5
$L260613:
  00010	8a 10		 mov	 dl, BYTE PTR [eax]
  00012	40		 inc	 eax
  00013	84 d2		 test	 dl, dl
  00015	75 f9		 jne	 SHORT $L260613
  00017	2b c7		 sub	 eax, edi
  00019	50		 push	 eax
  0001a	56		 push	 esi
  0001b	81 c1 88 00 00
	00		 add	 ecx, 136		; 00000088H
  00021	e8 00 00 00 00	 call	 ?assign@?$basic_string@DU?$char_traits@D@std@@V?$allocator@D@2@@std@@QAEAAV12@PBDI@Z ; std::basic_string<char,std::char_traits<char>,std::allocator<char> >::assign
  00026	5f		 pop	 edi
  00027	5e		 pop	 esi

; 55   : }

  00028	c2 04 00	 ret	 4
?SetTitle@CVTInfo@@QAEXPBD@Z ENDP			; CVTInfo::SetTitle
_TEXT	ENDS
PUBLIC	?Init@CVTInfo@@QAEXPAVCMover@@@Z		; CVTInfo::Init
PUBLIC	??_C@_00CNPNBAHC@?$AA@				; `string'
;	COMDAT ??_C@_00CNPNBAHC@?$AA@
; File c:\program files\microsoft visual studio .net 2003\vc7\include\iosfwd
CONST	SEGMENT
??_C@_00CNPNBAHC@?$AA@ DB 00H				; `string'
; Function compile flags: /Ogty
; File c:\documents and settings\test\mes documents\source\virtuos_v17\build\program\_common\moveritem.cpp
CONST	ENDS
;	COMDAT ?Init@CVTInfo@@QAEXPAVCMover@@@Z
_TEXT	SEGMENT
_pOwner$ = 8						; size = 4
?Init@CVTInfo@@QAEXPAVCMover@@@Z PROC NEAR		; CVTInfo::Init, COMDAT
; _this$ = ecx

; 64   : 	m_pOwner = pOwner;

  00000	8b 44 24 04	 mov	 eax, DWORD PTR _pOwner$[esp-4]
  00004	56		 push	 esi
  00005	8b f1		 mov	 esi, ecx
  00007	57		 push	 edi
  00008	89 86 80 00 00
	00		 mov	 DWORD PTR [esi+128], eax

; 65   : 	ZeroMemory( m_apItem_VT, sizeof( m_apItem_VT ) );

  0000e	33 c0		 xor	 eax, eax
  00010	b9 1e 00 00 00	 mov	 ecx, 30			; 0000001eH
  00015	8d 7e 04	 lea	 edi, DWORD PTR [esi+4]
  00018	f3 ab		 rep stosd

; 66   : 	TradeSetGold( 0 );							// raiders.2006.11.28 
; 67   : 	TradeClear();

  0001a	8b ce		 mov	 ecx, esi
  0001c	89 06		 mov	 DWORD PTR [esi], eax
  0001e	e8 00 00 00 00	 call	 ?TradeClear@CVTInfo@@QAEXXZ ; CVTInfo::TradeClear

; 68   : 	m_strTitle = "";

  00023	6a 00		 push	 0
  00025	68 00 00 00 00	 push	 OFFSET FLAT:??_C@_00CNPNBAHC@?$AA@
  0002a	8d 8e 88 00 00
	00		 lea	 ecx, DWORD PTR [esi+136]
  00030	e8 00 00 00 00	 call	 ?assign@?$basic_string@DU?$char_traits@D@std@@V?$allocator@D@2@@std@@QAEAAV12@PBDI@Z ; std::basic_string<char,std::char_traits<char>,std::allocator<char> >::assign
  00035	5f		 pop	 edi
  00036	5e		 pop	 esi

; 69   : }

  00037	c2 04 00	 ret	 4
?Init@CVTInfo@@QAEXPAVCMover@@@Z ENDP			; CVTInfo::Init
_TEXT	ENDS
PUBLIC	?VendorClose@CVTInfo@@QAEXH@Z			; CVTInfo::VendorClose
; Function compile flags: /Ogty
;	COMDAT ?VendorClose@CVTInfo@@QAEXH@Z
_TEXT	SEGMENT
_bClearTitle$ = 8					; size = 4
?VendorClose@CVTInfo@@QAEXH@Z PROC NEAR			; CVTInfo::VendorClose, COMDAT
; _this$ = ecx

; 591  : {

  00000	56		 push	 esi
  00001	57		 push	 edi
  00002	8b f9		 mov	 edi, ecx

; 592  : 	for( int i = 0; i < MAX_VENDITEM; i++ )

  00004	8d 47 04	 lea	 eax, DWORD PTR [edi+4]
  00007	be 1e 00 00 00	 mov	 esi, 30			; 0000001eH
  0000c	33 d2		 xor	 edx, edx
  0000e	8b ff		 npad	 2
$L253293:

; 593  : 	{
; 594  : 		if( m_apItem_VT[i] )

  00010	8b 08		 mov	 ecx, DWORD PTR [eax]
  00012	3b ca		 cmp	 ecx, edx
  00014	74 0a		 je	 SHORT $L253294

; 595  : 		{
; 596  : 			m_apItem_VT[i]->SetExtra( 0 );

  00016	89 51 10	 mov	 DWORD PTR [ecx+16], edx

; 597  : 			m_apItem_VT[i]->m_nCost	= 0;

  00019	8b 08		 mov	 ecx, DWORD PTR [eax]
  0001b	89 51 34	 mov	 DWORD PTR [ecx+52], edx

; 598  : 		#ifdef __CLIENT
; 599  : 			if( FALSE == m_pOwner->IsActiveMover() )
; 600  : 				SAFE_DELETE( m_apItem_VT[i] );
; 601  : 		#endif	// __CLIENT
; 602  : 			m_apItem_VT[i]	= NULL;

  0001e	89 10		 mov	 DWORD PTR [eax], edx
$L253294:
  00020	83 c0 04	 add	 eax, 4
  00023	4e		 dec	 esi
  00024	75 ea		 jne	 SHORT $L253293

; 603  : 		}
; 604  : 	}
; 605  : 
; 606  : 	if( bClearTitle )

  00026	39 54 24 0c	 cmp	 DWORD PTR _bClearTitle$[esp+4], edx
  0002a	74 11		 je	 SHORT $L260671

; 607  : 		m_strTitle = "";

  0002c	52		 push	 edx
  0002d	68 00 00 00 00	 push	 OFFSET FLAT:??_C@_00CNPNBAHC@?$AA@
  00032	8d 8f 88 00 00
	00		 lea	 ecx, DWORD PTR [edi+136]
  00038	e8 00 00 00 00	 call	 ?assign@?$basic_string@DU?$char_traits@D@std@@V?$allocator@D@2@@std@@QAEAAV12@PBDI@Z ; std::basic_string<char,std::char_traits<char>,std::allocator<char> >::assign
$L260671:

; 608  : 
; 609  : 	SetOther( NULL );	

  0003d	c7 47 7c ff ff
	ff ff		 mov	 DWORD PTR [edi+124], -1
  00044	5f		 pop	 edi
  00045	5e		 pop	 esi

; 610  : }

  00046	c2 04 00	 ret	 4
?VendorClose@CVTInfo@@QAEXH@Z ENDP			; CVTInfo::VendorClose
_TEXT	ENDS
END
