; Listing generated by Microsoft (R) Optimizing Compiler Version 13.10.6030 

	TITLE	\Documents and Settings\test\Mes documents\Source\Virtuos_v17\Build\Program\_Common\MoverEquip.cpp
	.386P
include listing.inc
if @Version gt 510
.model FLAT
else
_TEXT	SEGMENT PARA USE32 PUBLIC 'CODE'
_TEXT	ENDS
_DATA	SEGMENT DWORD USE32 PUBLIC 'DATA'
_DATA	ENDS
CONST	SEGMENT DWORD USE32 PUBLIC 'CONST'
CONST	ENDS
_BSS	SEGMENT DWORD USE32 PUBLIC 'BSS'
_BSS	ENDS
$$SYMBOLS	SEGMENT BYTE USE32 'DEBSYM'
$$SYMBOLS	ENDS
$$TYPES	SEGMENT BYTE USE32 'DEBTYP'
$$TYPES	ENDS
_TLS	SEGMENT DWORD USE32 PUBLIC 'TLS'
_TLS	ENDS
;	COMDAT ??_C@_0BG@JBMGFBFC@Part_maleHair?$CF02d?4o3d?$AA@
CONST	SEGMENT DWORD USE32 PUBLIC 'CONST'
CONST	ENDS
;	COMDAT ??_C@_0BI@JFPGNEBG@Part_femaleHair?$CF02d?4o3d?$AA@
CONST	SEGMENT DWORD USE32 PUBLIC 'CONST'
CONST	ENDS
;	COMDAT ??_C@_0BG@CKLHGKPA@Part_maleHair?$CF02d?4dds?$AA@
CONST	SEGMENT DWORD USE32 PUBLIC 'CONST'
CONST	ENDS
;	COMDAT ??_C@_0BI@COIHOPLE@Part_femaleHair?$CF02d?4dds?$AA@
CONST	SEGMENT DWORD USE32 PUBLIC 'CONST'
CONST	ENDS
;	COMDAT ??_C@_0BE@CFLEBCFF@Part_maleHair01?4dds?$AA@
CONST	SEGMENT DWORD USE32 PUBLIC 'CONST'
CONST	ENDS
;	COMDAT ??_C@_0BG@IINDKLJA@Part_femaleHair01?4dds?$AA@
CONST	SEGMENT DWORD USE32 PUBLIC 'CONST'
CONST	ENDS
;	COMDAT ??_C@_0BG@CLDHKMH@Part_maleHead?$CF02d?4o3d?$AA@
CONST	SEGMENT DWORD USE32 PUBLIC 'CONST'
CONST	ENDS
;	COMDAT ??_C@_0BI@GIDPPID@Part_femaleHead?$CF02d?4o3d?$AA@
CONST	SEGMENT DWORD USE32 PUBLIC 'CONST'
CONST	ENDS
;	COMDAT ??_C@_0CF@DJOHAJCE@CMover?3?3UpdateParts?5?3?5pModel?5is?5@
CONST	SEGMENT DWORD USE32 PUBLIC 'CONST'
CONST	ENDS
;	COMDAT ??_C@_04FPLDHIIH@part?$AA@
CONST	SEGMENT DWORD USE32 PUBLIC 'CONST'
CONST	ENDS
;	COMDAT ??_C@_0BD@FANBKNEH@Part_maleUpper?4o3d?$AA@
CONST	SEGMENT DWORD USE32 PUBLIC 'CONST'
CONST	ENDS
;	COMDAT ??_C@_0BF@FAOACOCN@Part_femaleUpper?4o3d?$AA@
CONST	SEGMENT DWORD USE32 PUBLIC 'CONST'
CONST	ENDS
;	COMDAT ??_C@_0BD@PCNGIDNM@Part_maleLower?4o3d?$AA@
CONST	SEGMENT DWORD USE32 PUBLIC 'CONST'
CONST	ENDS
;	COMDAT ??_C@_0BF@PCOHAALG@Part_femaleLower?4o3d?$AA@
CONST	SEGMENT DWORD USE32 PUBLIC 'CONST'
CONST	ENDS
;	COMDAT ??_C@_0BC@MBDHHPEB@Part_maleHand?4o3d?$AA@
CONST	SEGMENT DWORD USE32 PUBLIC 'CONST'
CONST	ENDS
;	COMDAT ??_C@_0BE@PALEBFEB@Part_femaleHand?4o3d?$AA@
CONST	SEGMENT DWORD USE32 PUBLIC 'CONST'
CONST	ENDS
;	COMDAT ??_C@_0BC@LJNOLPMO@Part_maleFoot?4o3d?$AA@
CONST	SEGMENT DWORD USE32 PUBLIC 'CONST'
CONST	ENDS
;	COMDAT ??_C@_0BE@IIFNNFMO@Part_femaleFoot?4o3d?$AA@
CONST	SEGMENT DWORD USE32 PUBLIC 'CONST'
CONST	ENDS
;	COMDAT ??_C@_0GD@MCIBCGLP@?2Documents?5and?5Settings?2test?2Mes@
CONST	SEGMENT DWORD USE32 PUBLIC 'CONST'
CONST	ENDS
;	COMDAT ??_C@_05DIALNFFA@?$CFs?5?$CFd?$AA@
CONST	SEGMENT DWORD USE32 PUBLIC 'CONST'
CONST	ENDS
;	COMDAT ??_C@_0BH@NHGMHOG@Part_maleUpper?$CF02d?4dds?$AA@
CONST	SEGMENT DWORD USE32 PUBLIC 'CONST'
CONST	ENDS
;	COMDAT ??_C@_0BJ@HMMDHCOK@Part_femaleUpper?$CF02d?4dds?$AA@
CONST	SEGMENT DWORD USE32 PUBLIC 'CONST'
CONST	ENDS
;	COMDAT ??_C@_0BF@MFIGMCKI@Part_maleUpper01?4dds?$AA@
CONST	SEGMENT DWORD USE32 PUBLIC 'CONST'
CONST	ENDS
;	COMDAT ??_C@_0BH@COCFJDCO@Part_femaleUpper01?4dds?$AA@
CONST	SEGMENT DWORD USE32 PUBLIC 'CONST'
CONST	ENDS
;	COMDAT ??_C@_0BH@CCHNJOKK@Part_maleLower?$CF02d?4dds?$AA@
CONST	SEGMENT DWORD USE32 PUBLIC 'CONST'
CONST	ENDS
;	COMDAT ??_C@_0BJ@FDMICLKG@Part_femaleLower?$CF02d?4dds?$AA@
CONST	SEGMENT DWORD USE32 PUBLIC 'CONST'
CONST	ENDS
;	COMDAT ??_C@_0BF@ILOFDOLB@Part_maleLower01?4dds?$AA@
CONST	SEGMENT DWORD USE32 PUBLIC 'CONST'
CONST	ENDS
;	COMDAT ??_C@_0BH@GAEGGPDH@Part_femaleLower01?4dds?$AA@
CONST	SEGMENT DWORD USE32 PUBLIC 'CONST'
CONST	ENDS
;	COMDAT ??_C@_04OEDFLLKD@?$CC?$CFs?$CC?$AA@
CONST	SEGMENT DWORD USE32 PUBLIC 'CONST'
CONST	ENDS
;	COMDAT ??_C@_04PNFMAOFG@?$CC?$CFd?$CC?$AA@
CONST	SEGMENT DWORD USE32 PUBLIC 'CONST'
CONST	ENDS
;	COMDAT ??_C@_0CF@GFJJIKHF@RedoEquip?$CI?$CJ?3?5Illegal?5dwParts?0?5?$CFs@
CONST	SEGMENT DWORD USE32 PUBLIC 'CONST'
CONST	ENDS
;	COMDAT ??_C@_0BG@IHELCDLD@?$LO?F?E?$NL?5?$LJ?$PO?$LB?b?$LE?B?$LF?$KF?5?$LN?G?F?P?3?$CFs?$AA@
CONST	SEGMENT DWORD USE32 PUBLIC 'CONST'
CONST	ENDS
;	COMDAT ??_C@_0BD@DBDFKDKF@?$CFs?5PickupGold?5?9?5?$CFd?$AA@
CONST	SEGMENT DWORD USE32 PUBLIC 'CONST'
CONST	ENDS
;	COMDAT ??_C@_0CA@MKEDOMG@party?5pick?5money?5error?3?$CFs?5?$CFd?5?$CFd?$AA@
CONST	SEGMENT DWORD USE32 PUBLIC 'CONST'
CONST	ENDS
;	COMDAT ??_C@_0BC@MDAJNMLM@?4?4?2PartyError?4txt?$AA@
CONST	SEGMENT DWORD USE32 PUBLIC 'CONST'
CONST	ENDS
;	COMDAT ??_C@_05OPEIBKFE@?$CFd?5?$CFs?$AA@
CONST	SEGMENT DWORD USE32 PUBLIC 'CONST'
CONST	ENDS
;	COMDAT ??_C@_01DGKLNCNG@R?$AA@
CONST	SEGMENT DWORD USE32 PUBLIC 'CONST'
CONST	ENDS
;	COMDAT ??_C@_06GKBINIEJ@GROUND?$AA@
CONST	SEGMENT DWORD USE32 PUBLIC 'CONST'
CONST	ENDS
;	COMDAT ??_C@_02DPKJAMEF@?$CFd?$AA@
CONST	SEGMENT DWORD USE32 PUBLIC 'CONST'
CONST	ENDS
;	COMDAT ??_C@_01CKDDGHAB@D?$AA@
CONST	SEGMENT DWORD USE32 PUBLIC 'CONST'
CONST	ENDS
;	COMDAT ??_C@_0N@GELFDHNG@CONTAINER?1?10?$AA@
CONST	SEGMENT DWORD USE32 PUBLIC 'CONST'
CONST	ENDS
;	COMDAT ??_C@_0BF@OJMCJNHH@GETEQUIP?1?1?$CFd?0?5?$CFd?0?5?$CFd?$AA@
CONST	SEGMENT DWORD USE32 PUBLIC 'CONST'
CONST	ENDS
xdata$x	SEGMENT DWORD USE32 PUBLIC 'CONST'
xdata$x	ENDS
text$AFX_COL1	SEGMENT PARA USE32 PUBLIC ''
text$AFX_COL1	ENDS
;	COMDAT ?IsMember@CParty@@QAEHK@Z
_TEXT	SEGMENT PARA USE32 PUBLIC 'CODE'
_TEXT	ENDS
;	COMDAT ?SelectMemberClear@__GuildCombatMember@CGuildCombat@@QAEXXZ
_TEXT	SEGMENT PARA USE32 PUBLIC 'CODE'
_TEXT	ENDS
;	COMDAT ??0__MINIGAME_PACKET@@QAE@GHHH@Z
_TEXT	SEGMENT PARA USE32 PUBLIC 'CODE'
_TEXT	ENDS
;	COMDAT ?Serialize@__MINIGAME_PACKET@@UAEXAAVCAr@@@Z
_TEXT	SEGMENT PARA USE32 PUBLIC 'CODE'
_TEXT	ENDS
;	COMDAT ?Serialize@__MINIGAME_EXT_PACKET@@UAEXAAVCAr@@@Z
_TEXT	SEGMENT PARA USE32 PUBLIC 'CODE'
_TEXT	ENDS
;	COMDAT ??0MINIGMAME_PRIZE_LIST@CRainbowRaceMng@@QAE@KHK@Z
_TEXT	SEGMENT PARA USE32 PUBLIC 'CODE'
_TEXT	ENDS
;	COMDAT ?RemovePlayerId2CampusId@CCampusMng@@QAEXK@Z
_TEXT	SEGMENT PARA USE32 PUBLIC 'CODE'
_TEXT	ENDS
;	COMDAT ?GetPacketSize@CBuffer2@@UAEKPAE@Z
_TEXT	SEGMENT PARA USE32 PUBLIC 'CODE'
_TEXT	ENDS
;	COMDAT ?SetHeader@CBuffer2@@UAEXK@Z
_TEXT	SEGMENT PARA USE32 PUBLIC 'CODE'
_TEXT	ENDS
;	COMDAT ??_GCBuffer2@@UAEPAXI@Z
_TEXT	SEGMENT PARA USE32 PUBLIC 'CODE'
_TEXT	ENDS
;	COMDAT ??1CBuffer2@@UAE@XZ
_TEXT	SEGMENT PARA USE32 PUBLIC 'CODE'
_TEXT	ENDS
;	COMDAT ?IsEmpty@CBufferQueue@@QAEHXZ
_TEXT	SEGMENT PARA USE32 PUBLIC 'CODE'
_TEXT	ENDS
;	COMDAT ??1CMapChild@@UAE@XZ
_TEXT	SEGMENT PARA USE32 PUBLIC 'CODE'
_TEXT	ENDS
;	COMDAT ??_GCMapChild@@UAEPAXI@Z
_TEXT	SEGMENT PARA USE32 PUBLIC 'CODE'
_TEXT	ENDS
;	COMDAT ??1?$map@KPAVCClientSock@@U?$less@K@std@@V?$allocator@U?$pair@$$CBKPAVCClientSock@@@std@@@3@@std@@QAE@XZ
_TEXT	SEGMENT PARA USE32 PUBLIC 'CODE'
_TEXT	ENDS
;	COMDAT ??1CMapChildE@@UAE@XZ
_TEXT	SEGMENT PARA USE32 PUBLIC 'CODE'
_TEXT	ENDS
;	COMDAT ??_GCMapChildE@@UAEPAXI@Z
_TEXT	SEGMENT PARA USE32 PUBLIC 'CODE'
_TEXT	ENDS
;	COMDAT ??1?$map@KPAVCClientSockE@@U?$less@K@std@@V?$allocator@U?$pair@$$CBKPAVCClientSockE@@@std@@@3@@std@@QAE@XZ
_TEXT	SEGMENT PARA USE32 PUBLIC 'CODE'
_TEXT	ENDS
;	COMDAT ?GetRecvHandle@CDPSock@@QAEPAXXZ
_TEXT	SEGMENT PARA USE32 PUBLIC 'CODE'
_TEXT	ENDS
;	COMDAT ?GetSelfDST@@YAHE@Z
_TEXT	SEGMENT PARA USE32 PUBLIC 'CODE'
_TEXT	ENDS
;	COMDAT ?GetStrongDST@@YAHE@Z
_TEXT	SEGMENT PARA USE32 PUBLIC 'CODE'
_TEXT	ENDS
;	COMDAT ?GetWeakDST@@YAHE@Z
_TEXT	SEGMENT PARA USE32 PUBLIC 'CODE'
_TEXT	ENDS
;	COMDAT ?SetHair@CMover@@QAEXH@Z
_TEXT	SEGMENT PARA USE32 PUBLIC 'CODE'
_TEXT	ENDS
;	COMDAT ?SetHairColor@CMover@@QAEXMMM@Z
_TEXT	SEGMENT PARA USE32 PUBLIC 'CODE'
_TEXT	ENDS
;	COMDAT ?SetHairColor@CMover@@QAEXK@Z
_TEXT	SEGMENT PARA USE32 PUBLIC 'CODE'
_TEXT	ENDS
;	COMDAT ?SetHead@CMover@@QAEXH@Z
_TEXT	SEGMENT PARA USE32 PUBLIC 'CODE'
_TEXT	ENDS
;	COMDAT ?SetSkinSet@CMover@@QAEXH@Z
_TEXT	SEGMENT PARA USE32 PUBLIC 'CODE'
_TEXT	ENDS
;	COMDAT ?UpdateParts@CMover@@QAEXH@Z
_TEXT	SEGMENT PARA USE32 PUBLIC 'CODE'
_TEXT	ENDS
;	COMDAT ?GetInventoryProp@@YAPAUItemProp@@PAU_EQUIP_INFO@@PAV?$CItemContainer@VCItemElem@@@@H@Z
_TEXT	SEGMENT PARA USE32 PUBLIC 'CODE'
_TEXT	ENDS
;	COMDAT ?UpdateParts@CMover@@SAXHHHHHPAU_EQUIP_INFO@@PAVCModelObject@@PAV?$CItemContainer@VCItemElem@@@@HPAV1@@Z
_TEXT	SEGMENT PARA USE32 PUBLIC 'CODE'
_TEXT	ENDS
;	COMDAT ?DoEquip@CMover@@SAHHHPAVCItemElem@@HABU_EQUIP_INFO@@PAV?$CItemContainer@VCItemElem@@@@PAU3@PAVCModelObject@@HPAV1@@Z
_TEXT	SEGMENT PARA USE32 PUBLIC 'CODE'
_TEXT	ENDS
;	COMDAT ?IsEquipAble@CMover@@QAEHPAVCItemElem@@H@Z
_TEXT	SEGMENT PARA USE32 PUBLIC 'CODE'
_TEXT	ENDS
;	COMDAT ?IsUnEquipAble@CMover@@QAEHPAUItemProp@@@Z
_TEXT	SEGMENT PARA USE32 PUBLIC 'CODE'
_TEXT	ENDS
;	COMDAT ?DoEquip@CMover@@QAEHPAVCItemElem@@HH@Z
_TEXT	SEGMENT PARA USE32 PUBLIC 'CODE'
_TEXT	ENDS
;	COMDAT ?RedoEquip@CMover@@QAEXHH@Z
_TEXT	SEGMENT PARA USE32 PUBLIC 'CODE'
_TEXT	ENDS
;	COMDAT ?InvalidEquipOff@CMover@@QAEHH@Z
_TEXT	SEGMENT PARA USE32 PUBLIC 'CODE'
_TEXT	ENDS
;	COMDAT ?SetDestParamEquip@CMover@@QAEXPAUItemProp@@PAVCItemElem@@H@Z
_TEXT	SEGMENT PARA USE32 PUBLIC 'CODE'
_TEXT	ENDS
;	COMDAT ?ResetDestParamEquip@CMover@@QAEXPAUItemProp@@PAVCItemElem@@@Z
_TEXT	SEGMENT PARA USE32 PUBLIC 'CODE'
_TEXT	ENDS
;	COMDAT ?PickupGold@CMover@@QAEXHH@Z
_TEXT	SEGMENT PARA USE32 PUBLIC 'CODE'
_TEXT	ENDS
;	COMDAT ?PickupGoldCore@CMover@@QAEXH@Z
_TEXT	SEGMENT PARA USE32 PUBLIC 'CODE'
_TEXT	ENDS
;	COMDAT ?DropGold@CMover@@QAEPAVCItem@@KABUD3DXVECTOR3@@H@Z
_TEXT	SEGMENT PARA USE32 PUBLIC 'CODE'
_TEXT	ENDS
;	COMDAT ?EquipItem@CMover@@QAEXPAVCItemElem@@HH@Z
_TEXT	SEGMENT PARA USE32 PUBLIC 'CODE'
_TEXT	ENDS
;	COMDAT ?UnequipRide@CMover@@QAEXXZ
_TEXT	SEGMENT PARA USE32 PUBLIC 'CODE'
_TEXT	ENDS
;	COMDAT ?DoUseEquipmentItem@CMover@@QAEHPAVCItemElem@@KH@Z
_TEXT	SEGMENT PARA USE32 PUBLIC 'CODE'
_TEXT	ENDS
;	COMDAT ?ClearEquipInfo@CMover@@QAEXXZ
_TEXT	SEGMENT PARA USE32 PUBLIC 'CODE'
_TEXT	ENDS
;	COMDAT ?compare@?$basic_string@DU?$char_traits@D@std@@V?$allocator@D@2@@std@@QBEHABV12@@Z
_TEXT	SEGMENT PARA USE32 PUBLIC 'CODE'
_TEXT	ENDS
;	COMDAT ?IsFull@?$CStack@K@@QAEHXZ
_TEXT	SEGMENT PARA USE32 PUBLIC 'CODE'
_TEXT	ENDS
;	COMDAT ??A?$map@KPAVCCtrl@@U?$less@K@std@@V?$allocator@U?$pair@$$CBKPAVCCtrl@@@std@@@3@@std@@QAEAAPAVCCtrl@@ABK@Z
_TEXT	SEGMENT PARA USE32 PUBLIC 'CODE'
_TEXT	ENDS
;	COMDAT ??0?$pair@KPAVCCtrl@@@std@@QAE@ABKABQAVCCtrl@@@Z
_TEXT	SEGMENT PARA USE32 PUBLIC 'CODE'
_TEXT	ENDS
;	COMDAT ?GetSize@?$CItemContainer@VCItemElem@@@@QAEHXZ
_TEXT	SEGMENT PARA USE32 PUBLIC 'CODE'
_TEXT	ENDS
;	COMDAT ?GetMax@?$CItemContainer@VCItemElem@@@@QAEHXZ
_TEXT	SEGMENT PARA USE32 PUBLIC 'CODE'
_TEXT	ENDS
;	COMDAT ??0?$deque@PAUtagACTMSG@@V?$allocator@PAUtagACTMSG@@@std@@@std@@QAE@XZ
_TEXT	SEGMENT PARA USE32 PUBLIC 'CODE'
_TEXT	ENDS
;	COMDAT ??1?$deque@PAUtagACTMSG@@V?$allocator@PAUtagACTMSG@@@std@@@std@@QAE@XZ
_TEXT	SEGMENT PARA USE32 PUBLIC 'CODE'
_TEXT	ENDS
;	COMDAT ?begin@?$deque@PAUtagACTMSG@@V?$allocator@PAUtagACTMSG@@@std@@@std@@QAE?AViterator@12@XZ
_TEXT	SEGMENT PARA USE32 PUBLIC 'CODE'
_TEXT	ENDS
;	COMDAT ?end@?$deque@PAUtagACTMSG@@V?$allocator@PAUtagACTMSG@@@std@@@std@@QAE?AViterator@12@XZ
_TEXT	SEGMENT PARA USE32 PUBLIC 'CODE'
_TEXT	ENDS
;	COMDAT ?empty@?$deque@PAUtagACTMSG@@V?$allocator@PAUtagACTMSG@@@std@@@std@@QBE_NXZ
_TEXT	SEGMENT PARA USE32 PUBLIC 'CODE'
_TEXT	ENDS
;	COMDAT ?clear@?$deque@PAUtagACTMSG@@V?$allocator@PAUtagACTMSG@@@std@@@std@@QAEXXZ
_TEXT	SEGMENT PARA USE32 PUBLIC 'CODE'
_TEXT	ENDS
;	COMDAT ??0?$deque@PAUtagMAGICATKMSG@@V?$allocator@PAUtagMAGICATKMSG@@@std@@@std@@QAE@XZ
_TEXT	SEGMENT PARA USE32 PUBLIC 'CODE'
_TEXT	ENDS
;	COMDAT ??1?$deque@PAUtagMAGICATKMSG@@V?$allocator@PAUtagMAGICATKMSG@@@std@@@std@@QAE@XZ
_TEXT	SEGMENT PARA USE32 PUBLIC 'CODE'
_TEXT	ENDS
;	COMDAT ?begin@?$deque@PAUtagMAGICATKMSG@@V?$allocator@PAUtagMAGICATKMSG@@@std@@@std@@QAE?AViterator@12@XZ
_TEXT	SEGMENT PARA USE32 PUBLIC 'CODE'
_TEXT	ENDS
;	COMDAT ?end@?$deque@PAUtagMAGICATKMSG@@V?$allocator@PAUtagMAGICATKMSG@@@std@@@std@@QAE?AViterator@12@XZ
_TEXT	SEGMENT PARA USE32 PUBLIC 'CODE'
_TEXT	ENDS
;	COMDAT ?empty@?$deque@PAUtagMAGICATKMSG@@V?$allocator@PAUtagMAGICATKMSG@@@std@@@std@@QBE_NXZ
_TEXT	SEGMENT PARA USE32 PUBLIC 'CODE'
_TEXT	ENDS
;	COMDAT ?clear@?$deque@PAUtagMAGICATKMSG@@V?$allocator@PAUtagMAGICATKMSG@@@std@@@std@@QAEXXZ
_TEXT	SEGMENT PARA USE32 PUBLIC 'CODE'
_TEXT	ENDS
;	COMDAT ??Diterator@?$deque@PAUtagACTMSG@@V?$allocator@PAUtagACTMSG@@@std@@@std@@QBEAAPAUtagACTMSG@@XZ
_TEXT	SEGMENT PARA USE32 PUBLIC 'CODE'
_TEXT	ENDS
;	COMDAT ??Eiterator@?$deque@PAUtagACTMSG@@V?$allocator@PAUtagACTMSG@@@std@@@std@@QAEAAV012@XZ
_TEXT	SEGMENT PARA USE32 PUBLIC 'CODE'
_TEXT	ENDS
;	COMDAT ??9const_iterator@?$deque@PAUtagACTMSG@@V?$allocator@PAUtagACTMSG@@@std@@@std@@QBE_NABV012@@Z
_TEXT	SEGMENT PARA USE32 PUBLIC 'CODE'
_TEXT	ENDS
;	COMDAT ??Diterator@?$deque@PAUtagMAGICATKMSG@@V?$allocator@PAUtagMAGICATKMSG@@@std@@@std@@QBEAAPAUtagMAGICATKMSG@@XZ
_TEXT	SEGMENT PARA USE32 PUBLIC 'CODE'
_TEXT	ENDS
;	COMDAT ??Eiterator@?$deque@PAUtagMAGICATKMSG@@V?$allocator@PAUtagMAGICATKMSG@@@std@@@std@@QAEAAV012@XZ
_TEXT	SEGMENT PARA USE32 PUBLIC 'CODE'
_TEXT	ENDS
;	COMDAT ??9const_iterator@?$deque@PAUtagMAGICATKMSG@@V?$allocator@PAUtagMAGICATKMSG@@@std@@@std@@QBE_NABV012@@Z
_TEXT	SEGMENT PARA USE32 PUBLIC 'CODE'
_TEXT	ENDS
;	COMDAT ?size@?$_Tree@V?$_Tmap_traits@KPAVCGuildMember@@U?$less@K@std@@V?$allocator@U?$pair@$$CBKPAVCGuildMember@@@std@@@3@$0A@@std@@@std@@QBEIXZ
_TEXT	SEGMENT PARA USE32 PUBLIC 'CODE'
_TEXT	ENDS
;	COMDAT ?size@?$_Tree@V?$_Tmap_traits@KPAVCGuild@@U?$less@K@std@@V?$allocator@U?$pair@$$CBKPAVCGuild@@@std@@@3@$0A@@std@@@std@@QBEIXZ
_TEXT	SEGMENT PARA USE32 PUBLIC 'CODE'
_TEXT	ENDS
;	COMDAT ?size@?$_Tree@V?$_Tmap_traits@KPAVCGuildWar@@U?$less@K@std@@V?$allocator@U?$pair@$$CBKPAVCGuildWar@@@std@@@3@$0A@@std@@@std@@QBEIXZ
_TEXT	SEGMENT PARA USE32 PUBLIC 'CODE'
_TEXT	ENDS
;	COMDAT ?erase@?$_Tree@V?$_Tmap_traits@KU_Friend@@U?$less@K@std@@V?$allocator@U?$pair@$$CBKU_Friend@@@std@@@3@$0A@@std@@@std@@QAEIABK@Z
_TEXT	SEGMENT PARA USE32 PUBLIC 'CODE'
_TEXT	ENDS
;	COMDAT ?size@?$vector@PAU__JOINPLAYER@CGuildCombat@@V?$allocator@PAU__JOINPLAYER@CGuildCombat@@@std@@@std@@QBEIXZ
_TEXT	SEGMENT PARA USE32 PUBLIC 'CODE'
_TEXT	ENDS
;	COMDAT ??A?$vector@PAU__JOINPLAYER@CGuildCombat@@V?$allocator@PAU__JOINPLAYER@CGuildCombat@@@std@@@std@@QAEAAPAU__JOINPLAYER@CGuildCombat@@I@Z
_TEXT	SEGMENT PARA USE32 PUBLIC 'CODE'
_TEXT	ENDS
;	COMDAT ?clear@?$vector@PAU__JOINPLAYER@CGuildCombat@@V?$allocator@PAU__JOINPLAYER@CGuildCombat@@@std@@@std@@QAEXXZ
_TEXT	SEGMENT PARA USE32 PUBLIC 'CODE'
_TEXT	ENDS
;	COMDAT ?clear@?$list@PAU__JOINPLAYER@CGuildCombat@@V?$allocator@PAU__JOINPLAYER@CGuildCombat@@@std@@@std@@QAEXXZ
_TEXT	SEGMENT PARA USE32 PUBLIC 'CODE'
_TEXT	ENDS
;	COMDAT ?size@?$_Tree@V?$_Tmap_traits@KPAU_PlayerData@@U?$less@K@std@@V?$allocator@U?$pair@$$CBKPAU_PlayerData@@@std@@@3@$0A@@std@@@std@@QBEIXZ
_TEXT	SEGMENT PARA USE32 PUBLIC 'CODE'
_TEXT	ENDS
;	COMDAT ??0?$vector@U__SECRETROOM_MONSTER@@V?$allocator@U__SECRETROOM_MONSTER@@@std@@@std@@QAE@XZ
_TEXT	SEGMENT PARA USE32 PUBLIC 'CODE'
_TEXT	ENDS
;	COMDAT ??1?$vector@U__SECRETROOM_MONSTER@@V?$allocator@U__SECRETROOM_MONSTER@@@std@@@std@@QAE@XZ
_TEXT	SEGMENT PARA USE32 PUBLIC 'CODE'
_TEXT	ENDS
;	COMDAT ??0?$vector@V?$basic_string@DU?$char_traits@D@std@@V?$allocator@D@2@@std@@V?$allocator@V?$basic_string@DU?$char_traits@D@std@@V?$allocator@D@2@@std@@@2@@std@@QAE@XZ
_TEXT	SEGMENT PARA USE32 PUBLIC 'CODE'
_TEXT	ENDS
;	COMDAT ??1?$vector@V?$basic_string@DU?$char_traits@D@std@@V?$allocator@D@2@@std@@V?$allocator@V?$basic_string@DU?$char_traits@D@std@@V?$allocator@D@2@@std@@@2@@std@@QAE@XZ
_TEXT	SEGMENT PARA USE32 PUBLIC 'CODE'
_TEXT	ENDS
;	COMDAT ?size@?$vector@V?$basic_string@DU?$char_traits@D@std@@V?$allocator@D@2@@std@@V?$allocator@V?$basic_string@DU?$char_traits@D@std@@V?$allocator@D@2@@std@@@2@@std@@QBEIXZ
_TEXT	SEGMENT PARA USE32 PUBLIC 'CODE'
_TEXT	ENDS
;	COMDAT ??A?$vector@V?$basic_string@DU?$char_traits@D@std@@V?$allocator@D@2@@std@@V?$allocator@V?$basic_string@DU?$char_traits@D@std@@V?$allocator@D@2@@std@@@2@@std@@QAEAAV?$basic_string@DU?$char_traits@D@std@@V?$allocator@D@2@@1@I@Z
_TEXT	SEGMENT PARA USE32 PUBLIC 'CODE'
_TEXT	ENDS
;	COMDAT ?push_back@?$vector@V?$basic_string@DU?$char_traits@D@std@@V?$allocator@D@2@@std@@V?$allocator@V?$basic_string@DU?$char_traits@D@std@@V?$allocator@D@2@@std@@@2@@std@@QAEXABV?$basic_string@DU?$char_traits@D@std@@V?$allocator@D@2@@2@@Z
_TEXT	SEGMENT PARA USE32 PUBLIC 'CODE'
_TEXT	ENDS
;	COMDAT ?clear@?$vector@V?$basic_string@DU?$char_traits@D@std@@V?$allocator@D@2@@std@@V?$allocator@V?$basic_string@DU?$char_traits@D@std@@V?$allocator@D@2@@std@@@2@@std@@QAEXXZ
_TEXT	SEGMENT PARA USE32 PUBLIC 'CODE'
_TEXT	ENDS
;	COMDAT ?push_back@?$vector@UMINIGMAME_PRIZE_LIST@CRainbowRaceMng@@V?$allocator@UMINIGMAME_PRIZE_LIST@CRainbowRaceMng@@@std@@@std@@QAEXABUMINIGMAME_PRIZE_LIST@CRainbowRaceMng@@@Z
_TEXT	SEGMENT PARA USE32 PUBLIC 'CODE'
_TEXT	ENDS
;	COMDAT ?size@?$_Tree@V?$_Tmap_traits@KPAVCRainbowRace@@U?$less@K@std@@V?$allocator@U?$pair@$$CBKPAVCRainbowRace@@@std@@@3@$0A@@std@@@std@@QBEIXZ
_TEXT	SEGMENT PARA USE32 PUBLIC 'CODE'
_TEXT	ENDS
;	COMDAT ?size@?$vector@PAVCMiniGameBase@@V?$allocator@PAVCMiniGameBase@@@std@@@std@@QBEIXZ
_TEXT	SEGMENT PARA USE32 PUBLIC 'CODE'
_TEXT	ENDS
;	COMDAT ??A?$vector@PAVCMiniGameBase@@V?$allocator@PAVCMiniGameBase@@@std@@@std@@QAEAAPAVCMiniGameBase@@I@Z
_TEXT	SEGMENT PARA USE32 PUBLIC 'CODE'
_TEXT	ENDS
;	COMDAT ?size@?$vector@UGuildHouse_Furniture_Info@CGuildHouseBase@@V?$allocator@UGuildHouse_Furniture_Info@CGuildHouseBase@@@std@@@std@@QBEIXZ
_TEXT	SEGMENT PARA USE32 PUBLIC 'CODE'
_TEXT	ENDS
;	COMDAT ??A?$vector@UGuildHouse_Furniture_Info@CGuildHouseBase@@V?$allocator@UGuildHouse_Furniture_Info@CGuildHouseBase@@@std@@@std@@QAEAAUGuildHouse_Furniture_Info@CGuildHouseBase@@I@Z
_TEXT	SEGMENT PARA USE32 PUBLIC 'CODE'
_TEXT	ENDS
;	COMDAT ?empty@?$_Tree@V?$_Tmap_traits@KPAVCGuildHouseBase@@U?$less@K@std@@V?$allocator@U?$pair@$$CBKPAVCGuildHouseBase@@@std@@@3@$0A@@std@@@std@@QBE_NXZ
_TEXT	SEGMENT PARA USE32 PUBLIC 'CODE'
_TEXT	ENDS
;	COMDAT ?insert@?$_Tree@V?$_Tmap_traits@KPAVCGuildHouseBase@@U?$less@K@std@@V?$allocator@U?$pair@$$CBKPAVCGuildHouseBase@@@std@@@3@$0A@@std@@@std@@QAE?AU?$pair@Viterator@?$_Tree@V?$_Tmap_traits@KPAVCGuildHouseBase@@U?$less@K@std@@V?$allocator@U?$pair@$$CBKPAVCGuildHouseBase@@@std@@@3@$0A@@std@@@std@@_N@2@ABU?$pair@$$CBKPAVCGuildHouseBase@@@2@@Z
_TEXT	SEGMENT PARA USE32 PUBLIC 'CODE'
_TEXT	ENDS
;	COMDAT ?size@?$_Tree@V?$_Tmap_traits@KPAVCCampusMember@@U?$less@K@std@@V?$allocator@U?$pair@$$CBKPAVCCampusMember@@@std@@@3@$0A@@std@@@std@@QBEIXZ
_TEXT	SEGMENT PARA USE32 PUBLIC 'CODE'
_TEXT	ENDS
;	COMDAT ?empty@?$_Tree@V?$_Tmap_traits@KPAVCCampus@@U?$less@K@std@@V?$allocator@U?$pair@$$CBKPAVCCampus@@@std@@@3@$0A@@std@@@std@@QBE_NXZ
_TEXT	SEGMENT PARA USE32 PUBLIC 'CODE'
_TEXT	ENDS
;	COMDAT ?erase@?$_Tree@V?$_Tmap_traits@KKU?$less@K@std@@V?$allocator@U?$pair@$$CBKK@std@@@2@$0A@@std@@@std@@QAEIABK@Z
_TEXT	SEGMENT PARA USE32 PUBLIC 'CODE'
_TEXT	ENDS
;	COMDAT ??0?$map@KPAVCClientSock@@U?$less@K@std@@V?$allocator@U?$pair@$$CBKPAVCClientSock@@@std@@@3@@std@@QAE@XZ
_TEXT	SEGMENT PARA USE32 PUBLIC 'CODE'
_TEXT	ENDS
;	COMDAT ??1?$_Tree@V?$_Tmap_traits@KPAVCClientSock@@U?$less@K@std@@V?$allocator@U?$pair@$$CBKPAVCClientSock@@@std@@@3@$0A@@std@@@std@@QAE@XZ
_TEXT	SEGMENT PARA USE32 PUBLIC 'CODE'
_TEXT	ENDS
;	COMDAT ?end@?$_Tree@V?$_Tmap_traits@KPAVCClientSock@@U?$less@K@std@@V?$allocator@U?$pair@$$CBKPAVCClientSock@@@std@@@3@$0A@@std@@@std@@QAE?AViterator@12@XZ
_TEXT	SEGMENT PARA USE32 PUBLIC 'CODE'
_TEXT	ENDS
;	COMDAT ?find@?$_Tree@V?$_Tmap_traits@KPAVCClientSock@@U?$less@K@std@@V?$allocator@U?$pair@$$CBKPAVCClientSock@@@std@@@3@$0A@@std@@@std@@QAE?AViterator@12@ABK@Z
_TEXT	SEGMENT PARA USE32 PUBLIC 'CODE'
_TEXT	ENDS
;	COMDAT ??Citerator@?$_Tree@V?$_Tmap_traits@KPAVCClientSock@@U?$less@K@std@@V?$allocator@U?$pair@$$CBKPAVCClientSock@@@std@@@3@$0A@@std@@@std@@QBEPAU?$pair@$$CBKPAVCClientSock@@@2@XZ
_TEXT	SEGMENT PARA USE32 PUBLIC 'CODE'
_TEXT	ENDS
;	COMDAT ??9const_iterator@?$_Tree@V?$_Tmap_traits@KPAVCClientSock@@U?$less@K@std@@V?$allocator@U?$pair@$$CBKPAVCClientSock@@@std@@@3@$0A@@std@@@std@@QBE_NABV012@@Z
_TEXT	SEGMENT PARA USE32 PUBLIC 'CODE'
_TEXT	ENDS
;	COMDAT ??0?$map@KPAVCClientSockE@@U?$less@K@std@@V?$allocator@U?$pair@$$CBKPAVCClientSockE@@@std@@@3@@std@@QAE@XZ
_TEXT	SEGMENT PARA USE32 PUBLIC 'CODE'
_TEXT	ENDS
;	COMDAT ??1?$_Tree@V?$_Tmap_traits@KPAVCClientSockE@@U?$less@K@std@@V?$allocator@U?$pair@$$CBKPAVCClientSockE@@@std@@@3@$0A@@std@@@std@@QAE@XZ
_TEXT	SEGMENT PARA USE32 PUBLIC 'CODE'
_TEXT	ENDS
;	COMDAT ?end@?$_Tree@V?$_Tmap_traits@KPAVCClientSockE@@U?$less@K@std@@V?$allocator@U?$pair@$$CBKPAVCClientSockE@@@std@@@3@$0A@@std@@@std@@QAE?AViterator@12@XZ
_TEXT	SEGMENT PARA USE32 PUBLIC 'CODE'
_TEXT	ENDS
;	COMDAT ?find@?$_Tree@V?$_Tmap_traits@KPAVCClientSockE@@U?$less@K@std@@V?$allocator@U?$pair@$$CBKPAVCClientSockE@@@std@@@3@$0A@@std@@@std@@QAE?AViterator@12@ABK@Z
_TEXT	SEGMENT PARA USE32 PUBLIC 'CODE'
_TEXT	ENDS
;	COMDAT ??Citerator@?$_Tree@V?$_Tmap_traits@KPAVCClientSockE@@U?$less@K@std@@V?$allocator@U?$pair@$$CBKPAVCClientSockE@@@std@@@3@$0A@@std@@@std@@QBEPAU?$pair@$$CBKPAVCClientSockE@@@2@XZ
_TEXT	SEGMENT PARA USE32 PUBLIC 'CODE'
_TEXT	ENDS
;	COMDAT ??9const_iterator@?$_Tree@V?$_Tmap_traits@KPAVCClientSockE@@U?$less@K@std@@V?$allocator@U?$pair@$$CBKPAVCClientSockE@@@std@@@3@$0A@@std@@@std@@QBE_NABV012@@Z
_TEXT	SEGMENT PARA USE32 PUBLIC 'CODE'
_TEXT	ENDS
;	COMDAT ?end@?$_Tree@V?$_Tmap_traits@KP8CDPSrvr@@AEXAAVCAr@@KKPAEK@ZU?$less@K@std@@V?$allocator@U?$pair@$$CBKP8CDPSrvr@@AEXAAVCAr@@KKPAEK@Z@std@@@4@$0A@@std@@@std@@QAE?AViterator@12@XZ
_TEXT	SEGMENT PARA USE32 PUBLIC 'CODE'
_TEXT	ENDS
;	COMDAT ?find@?$_Tree@V?$_Tmap_traits@KP8CDPSrvr@@AEXAAVCAr@@KKPAEK@ZU?$less@K@std@@V?$allocator@U?$pair@$$CBKP8CDPSrvr@@AEXAAVCAr@@KKPAEK@Z@std@@@4@$0A@@std@@@std@@QAE?AViterator@12@ABK@Z
_TEXT	SEGMENT PARA USE32 PUBLIC 'CODE'
_TEXT	ENDS
;	COMDAT ??Citerator@?$_Tree@V?$_Tmap_traits@KP8CDPSrvr@@AEXAAVCAr@@KKPAEK@ZU?$less@K@std@@V?$allocator@U?$pair@$$CBKP8CDPSrvr@@AEXAAVCAr@@KKPAEK@Z@std@@@4@$0A@@std@@@std@@QBEPAU?$pair@$$CBKP8CDPSrvr@@AEXAAVCAr@@KKPAEK@Z@2@XZ
_TEXT	SEGMENT PARA USE32 PUBLIC 'CODE'
_TEXT	ENDS
;	COMDAT ??9const_iterator@?$_Tree@V?$_Tmap_traits@KP8CDPSrvr@@AEXAAVCAr@@KKPAEK@ZU?$less@K@std@@V?$allocator@U?$pair@$$CBKP8CDPSrvr@@AEXAAVCAr@@KKPAEK@Z@std@@@4@$0A@@std@@@std@@QBE_NABV012@@Z
_TEXT	SEGMENT PARA USE32 PUBLIC 'CODE'
_TEXT	ENDS
;	COMDAT ?end@?$_Tree@V?$_Tmap_traits@KP8CDPCoreClient@@AEXAAVCAr@@KKK@ZU?$less@K@std@@V?$allocator@U?$pair@$$CBKP8CDPCoreClient@@AEXAAVCAr@@KKK@Z@std@@@4@$0A@@std@@@std@@QAE?AViterator@12@XZ
_TEXT	SEGMENT PARA USE32 PUBLIC 'CODE'
_TEXT	ENDS
;	COMDAT ?find@?$_Tree@V?$_Tmap_traits@KP8CDPCoreClient@@AEXAAVCAr@@KKK@ZU?$less@K@std@@V?$allocator@U?$pair@$$CBKP8CDPCoreClient@@AEXAAVCAr@@KKK@Z@std@@@4@$0A@@std@@@std@@QAE?AViterator@12@ABK@Z
_TEXT	SEGMENT PARA USE32 PUBLIC 'CODE'
_TEXT	ENDS
;	COMDAT ??Citerator@?$_Tree@V?$_Tmap_traits@KP8CDPCoreClient@@AEXAAVCAr@@KKK@ZU?$less@K@std@@V?$allocator@U?$pair@$$CBKP8CDPCoreClient@@AEXAAVCAr@@KKK@Z@std@@@4@$0A@@std@@@std@@QBEPAU?$pair@$$CBKP8CDPCoreClient@@AEXAAVCAr@@KKK@Z@2@XZ
_TEXT	SEGMENT PARA USE32 PUBLIC 'CODE'
_TEXT	ENDS
;	COMDAT ??9const_iterator@?$_Tree@V?$_Tmap_traits@KP8CDPCoreClient@@AEXAAVCAr@@KKK@ZU?$less@K@std@@V?$allocator@U?$pair@$$CBKP8CDPCoreClient@@AEXAAVCAr@@KKK@Z@std@@@4@$0A@@std@@@std@@QBE_NABV012@@Z
_TEXT	SEGMENT PARA USE32 PUBLIC 'CODE'
_TEXT	ENDS
;	COMDAT ?end@?$_Tree@V?$_Tmap_traits@KP8CDPDatabaseClient@@AEXAAVCAr@@KK@ZU?$less@K@std@@V?$allocator@U?$pair@$$CBKP8CDPDatabaseClient@@AEXAAVCAr@@KK@Z@std@@@4@$0A@@std@@@std@@QAE?AViterator@12@XZ
_TEXT	SEGMENT PARA USE32 PUBLIC 'CODE'
_TEXT	ENDS
;	COMDAT ?find@?$_Tree@V?$_Tmap_traits@KP8CDPDatabaseClient@@AEXAAVCAr@@KK@ZU?$less@K@std@@V?$allocator@U?$pair@$$CBKP8CDPDatabaseClient@@AEXAAVCAr@@KK@Z@std@@@4@$0A@@std@@@std@@QAE?AViterator@12@ABK@Z
_TEXT	SEGMENT PARA USE32 PUBLIC 'CODE'
_TEXT	ENDS
;	COMDAT ??Citerator@?$_Tree@V?$_Tmap_traits@KP8CDPDatabaseClient@@AEXAAVCAr@@KK@ZU?$less@K@std@@V?$allocator@U?$pair@$$CBKP8CDPDatabaseClient@@AEXAAVCAr@@KK@Z@std@@@4@$0A@@std@@@std@@QBEPAU?$pair@$$CBKP8CDPDatabaseClient@@AEXAAVCAr@@KK@Z@2@XZ
_TEXT	SEGMENT PARA USE32 PUBLIC 'CODE'
_TEXT	ENDS
;	COMDAT ??9const_iterator@?$_Tree@V?$_Tmap_traits@KP8CDPDatabaseClient@@AEXAAVCAr@@KK@ZU?$less@K@std@@V?$allocator@U?$pair@$$CBKP8CDPDatabaseClient@@AEXAAVCAr@@KK@Z@std@@@4@$0A@@std@@@std@@QBE_NABV012@@Z
_TEXT	SEGMENT PARA USE32 PUBLIC 'CODE'
_TEXT	ENDS
;	COMDAT ?size@?$vector@U_SINGLE_DST@@V?$allocator@U_SINGLE_DST@@@std@@@std@@QBEIXZ
_TEXT	SEGMENT PARA USE32 PUBLIC 'CODE'
_TEXT	ENDS
;	COMDAT ??A?$vector@U_SINGLE_DST@@V?$allocator@U_SINGLE_DST@@@std@@@std@@QAEAAU_SINGLE_DST@@I@Z
_TEXT	SEGMENT PARA USE32 PUBLIC 'CODE'
_TEXT	ENDS
;	COMDAT ?compare@?$basic_string@DU?$char_traits@D@std@@V?$allocator@D@2@@std@@QBEHIIPBDI@Z
_TEXT	SEGMENT PARA USE32 PUBLIC 'CODE'
_TEXT	ENDS
;	COMDAT ??0?$allocator@V?$basic_string@DU?$char_traits@D@std@@V?$allocator@D@2@@std@@@std@@QAE@XZ
_TEXT	SEGMENT PARA USE32 PUBLIC 'CODE'
_TEXT	ENDS
;	COMDAT ?insert@?$_Tree@V?$_Tmap_traits@KPAVCCtrl@@U?$less@K@std@@V?$allocator@U?$pair@$$CBKPAVCCtrl@@@std@@@3@$0A@@std@@@std@@QAE?AViterator@12@V312@ABU?$pair@$$CBKPAVCCtrl@@@2@@Z
_TEXT	SEGMENT PARA USE32 PUBLIC 'CODE'
_TEXT	ENDS
;	COMDAT ??0?$pair@$$CBKPAVCCtrl@@@std@@QAE@ABKABQAVCCtrl@@@Z
_TEXT	SEGMENT PARA USE32 PUBLIC 'CODE'
_TEXT	ENDS
;	COMDAT ?_Tidy@?$deque@PAUtagACTMSG@@V?$allocator@PAUtagACTMSG@@@std@@@std@@IAEXXZ
_TEXT	SEGMENT PARA USE32 PUBLIC 'CODE'
_TEXT	ENDS
;	COMDAT ??0?$_Deque_val@PAUtagACTMSG@@V?$allocator@PAUtagACTMSG@@@std@@@std@@IAE@V?$allocator@PAUtagACTMSG@@@1@@Z
_TEXT	SEGMENT PARA USE32 PUBLIC 'CODE'
_TEXT	ENDS
;	COMDAT ??0?$allocator@PAUtagACTMSG@@@std@@QAE@XZ
_TEXT	SEGMENT PARA USE32 PUBLIC 'CODE'
_TEXT	ENDS
;	COMDAT ?_Tidy@?$deque@PAUtagMAGICATKMSG@@V?$allocator@PAUtagMAGICATKMSG@@@std@@@std@@IAEXXZ
_TEXT	SEGMENT PARA USE32 PUBLIC 'CODE'
_TEXT	ENDS
;	COMDAT ??0?$_Deque_val@PAUtagMAGICATKMSG@@V?$allocator@PAUtagMAGICATKMSG@@@std@@@std@@IAE@V?$allocator@PAUtagMAGICATKMSG@@@1@@Z
_TEXT	SEGMENT PARA USE32 PUBLIC 'CODE'
_TEXT	ENDS
;	COMDAT ??0?$allocator@PAUtagMAGICATKMSG@@@std@@QAE@XZ
_TEXT	SEGMENT PARA USE32 PUBLIC 'CODE'
_TEXT	ENDS
;	COMDAT ??0iterator@?$deque@PAUtagACTMSG@@V?$allocator@PAUtagACTMSG@@@std@@@std@@QAE@IPBV12@@Z
_TEXT	SEGMENT PARA USE32 PUBLIC 'CODE'
_TEXT	ENDS
;	COMDAT ??Dconst_iterator@?$deque@PAUtagACTMSG@@V?$allocator@PAUtagACTMSG@@@std@@@std@@QBEABQAUtagACTMSG@@XZ
_TEXT	SEGMENT PARA USE32 PUBLIC 'CODE'
_TEXT	ENDS
;	COMDAT ??8const_iterator@?$deque@PAUtagACTMSG@@V?$allocator@PAUtagACTMSG@@@std@@@std@@QBE_NABV012@@Z
_TEXT	SEGMENT PARA USE32 PUBLIC 'CODE'
_TEXT	ENDS
;	COMDAT ??0iterator@?$deque@PAUtagMAGICATKMSG@@V?$allocator@PAUtagMAGICATKMSG@@@std@@@std@@QAE@IPBV12@@Z
_TEXT	SEGMENT PARA USE32 PUBLIC 'CODE'
_TEXT	ENDS
;	COMDAT ??Dconst_iterator@?$deque@PAUtagMAGICATKMSG@@V?$allocator@PAUtagMAGICATKMSG@@@std@@@std@@QBEABQAUtagMAGICATKMSG@@XZ
_TEXT	SEGMENT PARA USE32 PUBLIC 'CODE'
_TEXT	ENDS
;	COMDAT ??8const_iterator@?$deque@PAUtagMAGICATKMSG@@V?$allocator@PAUtagMAGICATKMSG@@@std@@@std@@QBE_NABV012@@Z
_TEXT	SEGMENT PARA USE32 PUBLIC 'CODE'
_TEXT	ENDS
;	COMDAT ?erase@?$_Tree@V?$_Tmap_traits@KU_Friend@@U?$less@K@std@@V?$allocator@U?$pair@$$CBKU_Friend@@@std@@@3@$0A@@std@@@std@@QAE?AViterator@12@V312@0@Z
_TEXT	SEGMENT PARA USE32 PUBLIC 'CODE'
_TEXT	ENDS
;	COMDAT ?equal_range@?$_Tree@V?$_Tmap_traits@KU_Friend@@U?$less@K@std@@V?$allocator@U?$pair@$$CBKU_Friend@@@std@@@3@$0A@@std@@@std@@QAE?AU?$pair@Viterator@?$_Tree@V?$_Tmap_traits@KU_Friend@@U?$less@K@std@@V?$allocator@U?$pair@$$CBKU_Friend@@@std@@@3@$0A@@std@@@std@@V123@@2@ABK@Z
_TEXT	SEGMENT PARA USE32 PUBLIC 'CODE'
_TEXT	ENDS
;	COMDAT ?begin@?$vector@PAU__JOINPLAYER@CGuildCombat@@V?$allocator@PAU__JOINPLAYER@CGuildCombat@@@std@@@std@@QAE?AViterator@12@XZ
_TEXT	SEGMENT PARA USE32 PUBLIC 'CODE'
_TEXT	ENDS
;	COMDAT ?_Tidy@?$vector@PAU__JOINPLAYER@CGuildCombat@@V?$allocator@PAU__JOINPLAYER@CGuildCombat@@@std@@@std@@IAEXXZ
_TEXT	SEGMENT PARA USE32 PUBLIC 'CODE'
_TEXT	ENDS
;	COMDAT ?_Nextnode@?$list@PAU__JOINPLAYER@CGuildCombat@@V?$allocator@PAU__JOINPLAYER@CGuildCombat@@@std@@@std@@KAAAPAU_Node@?$_List_nod@PAU__JOINPLAYER@CGuildCombat@@V?$allocator@PAU__JOINPLAYER@CGuildCombat@@@std@@@2@PAU342@@Z
_TEXT	SEGMENT PARA USE32 PUBLIC 'CODE'
_TEXT	ENDS
;	COMDAT ?_Prevnode@?$list@PAU__JOINPLAYER@CGuildCombat@@V?$allocator@PAU__JOINPLAYER@CGuildCombat@@@std@@@std@@KAAAPAU_Node@?$_List_nod@PAU__JOINPLAYER@CGuildCombat@@V?$allocator@PAU__JOINPLAYER@CGuildCombat@@@std@@@2@PAU342@@Z
_TEXT	SEGMENT PARA USE32 PUBLIC 'CODE'
_TEXT	ENDS
;	COMDAT ?deallocate@?$allocator@U_Node@?$_List_nod@PAU__JOINPLAYER@CGuildCombat@@V?$allocator@PAU__JOINPLAYER@CGuildCombat@@@std@@@std@@@std@@QAEXPAU_Node@?$_List_nod@PAU__JOINPLAYER@CGuildCombat@@V?$allocator@PAU__JOINPLAYER@CGuildCombat@@@std@@@2@I@Z
_TEXT	SEGMENT PARA USE32 PUBLIC 'CODE'
_TEXT	ENDS
;	COMDAT ?destroy@?$allocator@U_Node@?$_List_nod@PAU__JOINPLAYER@CGuildCombat@@V?$allocator@PAU__JOINPLAYER@CGuildCombat@@@std@@@std@@@std@@QAEXPAU_Node@?$_List_nod@PAU__JOINPLAYER@CGuildCombat@@V?$allocator@PAU__JOINPLAYER@CGuildCombat@@@std@@@2@@Z
_TEXT	SEGMENT PARA USE32 PUBLIC 'CODE'
_TEXT	ENDS
;	COMDAT ?_Buy@?$vector@U__SECRETROOM_MONSTER@@V?$allocator@U__SECRETROOM_MONSTER@@@std@@@std@@IAE_NI@Z
_TEXT	SEGMENT PARA USE32 PUBLIC 'CODE'
_TEXT	ENDS
;	COMDAT ?_Tidy@?$vector@U__SECRETROOM_MONSTER@@V?$allocator@U__SECRETROOM_MONSTER@@@std@@@std@@IAEXXZ
_TEXT	SEGMENT PARA USE32 PUBLIC 'CODE'
_TEXT	ENDS
;	COMDAT ??0?$_Vector_val@U__SECRETROOM_MONSTER@@V?$allocator@U__SECRETROOM_MONSTER@@@std@@@std@@IAE@V?$allocator@U__SECRETROOM_MONSTER@@@1@@Z
_TEXT	SEGMENT PARA USE32 PUBLIC 'CODE'
_TEXT	ENDS
;	COMDAT ??0?$allocator@U__SECRETROOM_MONSTER@@@std@@QAE@XZ
_TEXT	SEGMENT PARA USE32 PUBLIC 'CODE'
_TEXT	ENDS
;	COMDAT ?capacity@?$vector@V?$basic_string@DU?$char_traits@D@std@@V?$allocator@D@2@@std@@V?$allocator@V?$basic_string@DU?$char_traits@D@std@@V?$allocator@D@2@@std@@@2@@std@@QBEIXZ
_TEXT	SEGMENT PARA USE32 PUBLIC 'CODE'
_TEXT	ENDS
;	COMDAT ?begin@?$vector@V?$basic_string@DU?$char_traits@D@std@@V?$allocator@D@2@@std@@V?$allocator@V?$basic_string@DU?$char_traits@D@std@@V?$allocator@D@2@@std@@@2@@std@@QAE?AViterator@12@XZ
_TEXT	SEGMENT PARA USE32 PUBLIC 'CODE'
_TEXT	ENDS
;	COMDAT ?end@?$vector@V?$basic_string@DU?$char_traits@D@std@@V?$allocator@D@2@@std@@V?$allocator@V?$basic_string@DU?$char_traits@D@std@@V?$allocator@D@2@@std@@@2@@std@@QAE?AViterator@12@XZ
_TEXT	SEGMENT PARA USE32 PUBLIC 'CODE'
_TEXT	ENDS
;	COMDAT ?insert@?$vector@V?$basic_string@DU?$char_traits@D@std@@V?$allocator@D@2@@std@@V?$allocator@V?$basic_string@DU?$char_traits@D@std@@V?$allocator@D@2@@std@@@2@@std@@QAE?AViterator@12@V312@ABV?$basic_string@DU?$char_traits@D@std@@V?$allocator@D@2@@2@@Z
_TEXT	SEGMENT PARA USE32 PUBLIC 'CODE'
_TEXT	ENDS
;	COMDAT ?_Buy@?$vector@V?$basic_string@DU?$char_traits@D@std@@V?$allocator@D@2@@std@@V?$allocator@V?$basic_string@DU?$char_traits@D@std@@V?$allocator@D@2@@std@@@2@@std@@IAE_NI@Z
_TEXT	SEGMENT PARA USE32 PUBLIC 'CODE'
_TEXT	ENDS
;	COMDAT ?_Tidy@?$vector@V?$basic_string@DU?$char_traits@D@std@@V?$allocator@D@2@@std@@V?$allocator@V?$basic_string@DU?$char_traits@D@std@@V?$allocator@D@2@@std@@@2@@std@@IAEXXZ
_TEXT	SEGMENT PARA USE32 PUBLIC 'CODE'
_TEXT	ENDS
;	COMDAT ?_Ufill@?$vector@V?$basic_string@DU?$char_traits@D@std@@V?$allocator@D@2@@std@@V?$allocator@V?$basic_string@DU?$char_traits@D@std@@V?$allocator@D@2@@std@@@2@@std@@IAEPAV?$basic_string@DU?$char_traits@D@std@@V?$allocator@D@2@@2@PAV32@IABV32@@Z
_TEXT	SEGMENT PARA USE32 PUBLIC 'CODE'
_TEXT	ENDS
;	COMDAT ??0?$_Vector_val@V?$basic_string@DU?$char_traits@D@std@@V?$allocator@D@2@@std@@V?$allocator@V?$basic_string@DU?$char_traits@D@std@@V?$allocator@D@2@@std@@@2@@std@@IAE@V?$allocator@V?$basic_string@DU?$char_traits@D@std@@V?$allocator@D@2@@std@@@1@@Z
_TEXT	SEGMENT PARA USE32 PUBLIC 'CODE'
_TEXT	ENDS
;	COMDAT ?capacity@?$vector@UMINIGMAME_PRIZE_LIST@CRainbowRaceMng@@V?$allocator@UMINIGMAME_PRIZE_LIST@CRainbowRaceMng@@@std@@@std@@QBEIXZ
_TEXT	SEGMENT PARA USE32 PUBLIC 'CODE'
_TEXT	ENDS
;	COMDAT ?end@?$vector@UMINIGMAME_PRIZE_LIST@CRainbowRaceMng@@V?$allocator@UMINIGMAME_PRIZE_LIST@CRainbowRaceMng@@@std@@@std@@QAE?AViterator@12@XZ
_TEXT	SEGMENT PARA USE32 PUBLIC 'CODE'
_TEXT	ENDS
;	COMDAT ?size@?$vector@UMINIGMAME_PRIZE_LIST@CRainbowRaceMng@@V?$allocator@UMINIGMAME_PRIZE_LIST@CRainbowRaceMng@@@std@@@std@@QBEIXZ
_TEXT	SEGMENT PARA USE32 PUBLIC 'CODE'
_TEXT	ENDS
;	COMDAT ?insert@?$vector@UMINIGMAME_PRIZE_LIST@CRainbowRaceMng@@V?$allocator@UMINIGMAME_PRIZE_LIST@CRainbowRaceMng@@@std@@@std@@QAE?AViterator@12@V312@ABUMINIGMAME_PRIZE_LIST@CRainbowRaceMng@@@Z
_TEXT	SEGMENT PARA USE32 PUBLIC 'CODE'
_TEXT	ENDS
;	COMDAT ?_Ufill@?$vector@UMINIGMAME_PRIZE_LIST@CRainbowRaceMng@@V?$allocator@UMINIGMAME_PRIZE_LIST@CRainbowRaceMng@@@std@@@std@@IAEPAUMINIGMAME_PRIZE_LIST@CRainbowRaceMng@@PAU34@IABU34@@Z
_TEXT	SEGMENT PARA USE32 PUBLIC 'CODE'
_TEXT	ENDS
;	COMDAT ?begin@?$vector@PAVCMiniGameBase@@V?$allocator@PAVCMiniGameBase@@@std@@@std@@QAE?AViterator@12@XZ
_TEXT	SEGMENT PARA USE32 PUBLIC 'CODE'
_TEXT	ENDS
;	COMDAT ?begin@?$vector@UGuildHouse_Furniture_Info@CGuildHouseBase@@V?$allocator@UGuildHouse_Furniture_Info@CGuildHouseBase@@@std@@@std@@QAE?AViterator@12@XZ
_TEXT	SEGMENT PARA USE32 PUBLIC 'CODE'
_TEXT	ENDS
;	COMDAT ?_Isnil@?$_Tree@V?$_Tmap_traits@KPAVCGuildHouseBase@@U?$less@K@std@@V?$allocator@U?$pair@$$CBKPAVCGuildHouseBase@@@std@@@3@$0A@@std@@@std@@KAAADPAU_Node@?$_Tree_nod@V?$_Tmap_traits@KPAVCGuildHouseBase@@U?$less@K@std@@V?$allocator@U?$pair@$$CBKPAVCGuildHouseBase@@@std@@@3@$0A@@std@@@2@@Z
_TEXT	SEGMENT PARA USE32 PUBLIC 'CODE'
_TEXT	ENDS
;	COMDAT ?_Key@?$_Tree@V?$_Tmap_traits@KPAVCGuildHouseBase@@U?$less@K@std@@V?$allocator@U?$pair@$$CBKPAVCGuildHouseBase@@@std@@@3@$0A@@std@@@std@@KAABKPAU_Node@?$_Tree_nod@V?$_Tmap_traits@KPAVCGuildHouseBase@@U?$less@K@std@@V?$allocator@U?$pair@$$CBKPAVCGuildHouseBase@@@std@@@3@$0A@@std@@@2@@Z
_TEXT	SEGMENT PARA USE32 PUBLIC 'CODE'
_TEXT	ENDS
;	COMDAT ?_Left@?$_Tree@V?$_Tmap_traits@KPAVCGuildHouseBase@@U?$less@K@std@@V?$allocator@U?$pair@$$CBKPAVCGuildHouseBase@@@std@@@3@$0A@@std@@@std@@KAAAPAU_Node@?$_Tree_nod@V?$_Tmap_traits@KPAVCGuildHouseBase@@U?$less@K@std@@V?$allocator@U?$pair@$$CBKPAVCGuildHouseBase@@@std@@@3@$0A@@std@@@2@PAU342@@Z
_TEXT	SEGMENT PARA USE32 PUBLIC 'CODE'
_TEXT	ENDS
;	COMDAT ?_Right@?$_Tree@V?$_Tmap_traits@KPAVCGuildHouseBase@@U?$less@K@std@@V?$allocator@U?$pair@$$CBKPAVCGuildHouseBase@@@std@@@3@$0A@@std@@@std@@KAAAPAU_Node@?$_Tree_nod@V?$_Tmap_traits@KPAVCGuildHouseBase@@U?$less@K@std@@V?$allocator@U?$pair@$$CBKPAVCGuildHouseBase@@@std@@@3@$0A@@std@@@2@PAU342@@Z
_TEXT	SEGMENT PARA USE32 PUBLIC 'CODE'
_TEXT	ENDS
;	COMDAT ?begin@?$_Tree@V?$_Tmap_traits@KPAVCGuildHouseBase@@U?$less@K@std@@V?$allocator@U?$pair@$$CBKPAVCGuildHouseBase@@@std@@@3@$0A@@std@@@std@@QAE?AViterator@12@XZ
_TEXT	SEGMENT PARA USE32 PUBLIC 'CODE'
_TEXT	ENDS
;	COMDAT ?size@?$_Tree@V?$_Tmap_traits@KPAVCGuildHouseBase@@U?$less@K@std@@V?$allocator@U?$pair@$$CBKPAVCGuildHouseBase@@@std@@@3@$0A@@std@@@std@@QBEIXZ
_TEXT	SEGMENT PARA USE32 PUBLIC 'CODE'
_TEXT	ENDS
;	COMDAT ?_Insert@?$_Tree@V?$_Tmap_traits@KPAVCGuildHouseBase@@U?$less@K@std@@V?$allocator@U?$pair@$$CBKPAVCGuildHouseBase@@@std@@@3@$0A@@std@@@std@@IAE?AViterator@12@_NPAU_Node@?$_Tree_nod@V?$_Tmap_traits@KPAVCGuildHouseBase@@U?$less@K@std@@V?$allocator@U?$pair@$$CBKPAVCGuildHouseBase@@@std@@@3@$0A@@std@@@2@ABU?$pair@$$CBKPAVCGuildHouseBase@@@2@@Z
_TEXT	SEGMENT PARA USE32 PUBLIC 'CODE'
_TEXT	ENDS
;	COMDAT ?_Root@?$_Tree@V?$_Tmap_traits@KPAVCGuildHouseBase@@U?$less@K@std@@V?$allocator@U?$pair@$$CBKPAVCGuildHouseBase@@@std@@@3@$0A@@std@@@std@@IAEAAPAU_Node@?$_Tree_nod@V?$_Tmap_traits@KPAVCGuildHouseBase@@U?$less@K@std@@V?$allocator@U?$pair@$$CBKPAVCGuildHouseBase@@@std@@@3@$0A@@std@@@2@XZ
_TEXT	SEGMENT PARA USE32 PUBLIC 'CODE'
_TEXT	ENDS
;	COMDAT ?_Kfn@?$_Tmap_traits@KPAVCGuildHouseBase@@U?$less@K@std@@V?$allocator@U?$pair@$$CBKPAVCGuildHouseBase@@@std@@@3@$0A@@std@@SAABKABU?$pair@$$CBKPAVCGuildHouseBase@@@2@@Z
_TEXT	SEGMENT PARA USE32 PUBLIC 'CODE'
_TEXT	ENDS
;	COMDAT ??0?$pair@Viterator@?$_Tree@V?$_Tmap_traits@KPAVCGuildHouseBase@@U?$less@K@std@@V?$allocator@U?$pair@$$CBKPAVCGuildHouseBase@@@std@@@3@$0A@@std@@@std@@_N@std@@QAE@ABViterator@?$_Tree@V?$_Tmap_traits@KPAVCGuildHouseBase@@U?$less@K@std@@V?$allocator@U?$pair@$$CBKPAVCGuildHouseBase@@@std@@@3@$0A@@std@@@1@AB_N@Z
_TEXT	SEGMENT PARA USE32 PUBLIC 'CODE'
_TEXT	ENDS
;	COMDAT ??0iterator@?$_Tree@V?$_Tmap_traits@KPAVCGuildHouseBase@@U?$less@K@std@@V?$allocator@U?$pair@$$CBKPAVCGuildHouseBase@@@std@@@3@$0A@@std@@@std@@QAE@PAU_Node@?$_Tree_nod@V?$_Tmap_traits@KPAVCGuildHouseBase@@U?$less@K@std@@V?$allocator@U?$pair@$$CBKPAVCGuildHouseBase@@@std@@@3@$0A@@std@@@2@@Z
_TEXT	SEGMENT PARA USE32 PUBLIC 'CODE'
_TEXT	ENDS
;	COMDAT ??Fiterator@?$_Tree@V?$_Tmap_traits@KPAVCGuildHouseBase@@U?$less@K@std@@V?$allocator@U?$pair@$$CBKPAVCGuildHouseBase@@@std@@@3@$0A@@std@@@std@@QAEAAV012@XZ
_TEXT	SEGMENT PARA USE32 PUBLIC 'CODE'
_TEXT	ENDS
;	COMDAT ??8const_iterator@?$_Tree@V?$_Tmap_traits@KPAVCGuildHouseBase@@U?$less@K@std@@V?$allocator@U?$pair@$$CBKPAVCGuildHouseBase@@@std@@@3@$0A@@std@@@std@@QBE_NABV012@@Z
_TEXT	SEGMENT PARA USE32 PUBLIC 'CODE'
_TEXT	ENDS
;	COMDAT ?_Mynode@const_iterator@?$_Tree@V?$_Tmap_traits@KPAVCGuildHouseBase@@U?$less@K@std@@V?$allocator@U?$pair@$$CBKPAVCGuildHouseBase@@@std@@@3@$0A@@std@@@std@@QBEPAU_Node@?$_Tree_nod@V?$_Tmap_traits@KPAVCGuildHouseBase@@U?$less@K@std@@V?$allocator@U?$pair@$$CBKPAVCGuildHouseBase@@@std@@@3@$0A@@std@@@3@XZ
_TEXT	SEGMENT PARA USE32 PUBLIC 'CODE'
_TEXT	ENDS
;	COMDAT ?size@?$_Tree@V?$_Tmap_traits@KPAVCCampus@@U?$less@K@std@@V?$allocator@U?$pair@$$CBKPAVCCampus@@@std@@@3@$0A@@std@@@std@@QBEIXZ
_TEXT	SEGMENT PARA USE32 PUBLIC 'CODE'
_TEXT	ENDS
;	COMDAT ?erase@?$_Tree@V?$_Tmap_traits@KKU?$less@K@std@@V?$allocator@U?$pair@$$CBKK@std@@@2@$0A@@std@@@std@@QAE?AViterator@12@V312@0@Z
_TEXT	SEGMENT PARA USE32 PUBLIC 'CODE'
_TEXT	ENDS
;	COMDAT ?equal_range@?$_Tree@V?$_Tmap_traits@KKU?$less@K@std@@V?$allocator@U?$pair@$$CBKK@std@@@2@$0A@@std@@@std@@QAE?AU?$pair@Viterator@?$_Tree@V?$_Tmap_traits@KKU?$less@K@std@@V?$allocator@U?$pair@$$CBKK@std@@@2@$0A@@std@@@std@@V123@@2@ABK@Z
_TEXT	SEGMENT PARA USE32 PUBLIC 'CODE'
_TEXT	ENDS
;	COMDAT ?_Key@?$_Tree@V?$_Tmap_traits@KPAVCClientSock@@U?$less@K@std@@V?$allocator@U?$pair@$$CBKPAVCClientSock@@@std@@@3@$0A@@std@@@std@@KAABKPAU_Node@?$_Tree_nod@V?$_Tmap_traits@KPAVCClientSock@@U?$less@K@std@@V?$allocator@U?$pair@$$CBKPAVCClientSock@@@std@@@3@$0A@@std@@@2@@Z
_TEXT	SEGMENT PARA USE32 PUBLIC 'CODE'
_TEXT	ENDS
;	COMDAT ??0?$_Tree@V?$_Tmap_traits@KPAVCClientSock@@U?$less@K@std@@V?$allocator@U?$pair@$$CBKPAVCClientSock@@@std@@@3@$0A@@std@@@std@@QAE@ABU?$less@K@1@ABV?$allocator@U?$pair@$$CBKPAVCClientSock@@@std@@@1@@Z
_TEXT	SEGMENT PARA USE32 PUBLIC 'CODE'
_TEXT	ENDS
;	COMDAT ?lower_bound@?$_Tree@V?$_Tmap_traits@KPAVCClientSock@@U?$less@K@std@@V?$allocator@U?$pair@$$CBKPAVCClientSock@@@std@@@3@$0A@@std@@@std@@QAE?AViterator@12@ABK@Z
_TEXT	SEGMENT PARA USE32 PUBLIC 'CODE'
_TEXT	ENDS
;	COMDAT ?_Tidy@?$_Tree@V?$_Tmap_traits@KPAVCClientSock@@U?$less@K@std@@V?$allocator@U?$pair@$$CBKPAVCClientSock@@@std@@@3@$0A@@std@@@std@@IAEXXZ
_TEXT	SEGMENT PARA USE32 PUBLIC 'CODE'
_TEXT	ENDS
;	COMDAT ??0?$allocator@U?$pair@$$CBKPAVCClientSock@@@std@@@std@@QAE@XZ
_TEXT	SEGMENT PARA USE32 PUBLIC 'CODE'
_TEXT	ENDS
;	COMDAT ??0iterator@?$_Tree@V?$_Tmap_traits@KPAVCClientSock@@U?$less@K@std@@V?$allocator@U?$pair@$$CBKPAVCClientSock@@@std@@@3@$0A@@std@@@std@@QAE@PAU_Node@?$_Tree_nod@V?$_Tmap_traits@KPAVCClientSock@@U?$less@K@std@@V?$allocator@U?$pair@$$CBKPAVCClientSock@@@std@@@3@$0A@@std@@@2@@Z
_TEXT	SEGMENT PARA USE32 PUBLIC 'CODE'
_TEXT	ENDS
;	COMDAT ??Diterator@?$_Tree@V?$_Tmap_traits@KPAVCClientSock@@U?$less@K@std@@V?$allocator@U?$pair@$$CBKPAVCClientSock@@@std@@@3@$0A@@std@@@std@@QBEAAU?$pair@$$CBKPAVCClientSock@@@2@XZ
_TEXT	SEGMENT PARA USE32 PUBLIC 'CODE'
_TEXT	ENDS
;	COMDAT ??8const_iterator@?$_Tree@V?$_Tmap_traits@KPAVCClientSock@@U?$less@K@std@@V?$allocator@U?$pair@$$CBKPAVCClientSock@@@std@@@3@$0A@@std@@@std@@QBE_NABV012@@Z
_TEXT	SEGMENT PARA USE32 PUBLIC 'CODE'
_TEXT	ENDS
;	COMDAT ?_Mynode@const_iterator@?$_Tree@V?$_Tmap_traits@KPAVCClientSock@@U?$less@K@std@@V?$allocator@U?$pair@$$CBKPAVCClientSock@@@std@@@3@$0A@@std@@@std@@QBEPAU_Node@?$_Tree_nod@V?$_Tmap_traits@KPAVCClientSock@@U?$less@K@std@@V?$allocator@U?$pair@$$CBKPAVCClientSock@@@std@@@3@$0A@@std@@@3@XZ
_TEXT	SEGMENT PARA USE32 PUBLIC 'CODE'
_TEXT	ENDS
;	COMDAT ?_Key@?$_Tree@V?$_Tmap_traits@KPAVCClientSockE@@U?$less@K@std@@V?$allocator@U?$pair@$$CBKPAVCClientSockE@@@std@@@3@$0A@@std@@@std@@KAABKPAU_Node@?$_Tree_nod@V?$_Tmap_traits@KPAVCClientSockE@@U?$less@K@std@@V?$allocator@U?$pair@$$CBKPAVCClientSockE@@@std@@@3@$0A@@std@@@2@@Z
_TEXT	SEGMENT PARA USE32 PUBLIC 'CODE'
_TEXT	ENDS
;	COMDAT ??0?$_Tree@V?$_Tmap_traits@KPAVCClientSockE@@U?$less@K@std@@V?$allocator@U?$pair@$$CBKPAVCClientSockE@@@std@@@3@$0A@@std@@@std@@QAE@ABU?$less@K@1@ABV?$allocator@U?$pair@$$CBKPAVCClientSockE@@@std@@@1@@Z
_TEXT	SEGMENT PARA USE32 PUBLIC 'CODE'
_TEXT	ENDS
;	COMDAT ?lower_bound@?$_Tree@V?$_Tmap_traits@KPAVCClientSockE@@U?$less@K@std@@V?$allocator@U?$pair@$$CBKPAVCClientSockE@@@std@@@3@$0A@@std@@@std@@QAE?AViterator@12@ABK@Z
_TEXT	SEGMENT PARA USE32 PUBLIC 'CODE'
_TEXT	ENDS
;	COMDAT ?_Tidy@?$_Tree@V?$_Tmap_traits@KPAVCClientSockE@@U?$less@K@std@@V?$allocator@U?$pair@$$CBKPAVCClientSockE@@@std@@@3@$0A@@std@@@std@@IAEXXZ
_TEXT	SEGMENT PARA USE32 PUBLIC 'CODE'
_TEXT	ENDS
;	COMDAT ??0?$allocator@U?$pair@$$CBKPAVCClientSockE@@@std@@@std@@QAE@XZ
_TEXT	SEGMENT PARA USE32 PUBLIC 'CODE'
_TEXT	ENDS
;	COMDAT ??0iterator@?$_Tree@V?$_Tmap_traits@KPAVCClientSockE@@U?$less@K@std@@V?$allocator@U?$pair@$$CBKPAVCClientSockE@@@std@@@3@$0A@@std@@@std@@QAE@PAU_Node@?$_Tree_nod@V?$_Tmap_traits@KPAVCClientSockE@@U?$less@K@std@@V?$allocator@U?$pair@$$CBKPAVCClientSockE@@@std@@@3@$0A@@std@@@2@@Z
_TEXT	SEGMENT PARA USE32 PUBLIC 'CODE'
_TEXT	ENDS
;	COMDAT ??Diterator@?$_Tree@V?$_Tmap_traits@KPAVCClientSockE@@U?$less@K@std@@V?$allocator@U?$pair@$$CBKPAVCClientSockE@@@std@@@3@$0A@@std@@@std@@QBEAAU?$pair@$$CBKPAVCClientSockE@@@2@XZ
_TEXT	SEGMENT PARA USE32 PUBLIC 'CODE'
_TEXT	ENDS
;	COMDAT ??8const_iterator@?$_Tree@V?$_Tmap_traits@KPAVCClientSockE@@U?$less@K@std@@V?$allocator@U?$pair@$$CBKPAVCClientSockE@@@std@@@3@$0A@@std@@@std@@QBE_NABV012@@Z
_TEXT	SEGMENT PARA USE32 PUBLIC 'CODE'
_TEXT	ENDS
;	COMDAT ?_Mynode@const_iterator@?$_Tree@V?$_Tmap_traits@KPAVCClientSockE@@U?$less@K@std@@V?$allocator@U?$pair@$$CBKPAVCClientSockE@@@std@@@3@$0A@@std@@@std@@QBEPAU_Node@?$_Tree_nod@V?$_Tmap_traits@KPAVCClientSockE@@U?$less@K@std@@V?$allocator@U?$pair@$$CBKPAVCClientSockE@@@std@@@3@$0A@@std@@@3@XZ
_TEXT	SEGMENT PARA USE32 PUBLIC 'CODE'
_TEXT	ENDS
;	COMDAT ?_Key@?$_Tree@V?$_Tmap_traits@KP8CDPSrvr@@AEXAAVCAr@@KKPAEK@ZU?$less@K@std@@V?$allocator@U?$pair@$$CBKP8CDPSrvr@@AEXAAVCAr@@KKPAEK@Z@std@@@4@$0A@@std@@@std@@KAABKPAU_Node@?$_Tree_nod@V?$_Tmap_traits@KP8CDPSrvr@@AEXAAVCAr@@KKPAEK@ZU?$less@K@std@@V?$allocator@U?$pair@$$CBKP8CDPSrvr@@AEXAAVCAr@@KKPAEK@Z@std@@@4@$0A@@std@@@2@@Z
_TEXT	SEGMENT PARA USE32 PUBLIC 'CODE'
_TEXT	ENDS
;	COMDAT ?lower_bound@?$_Tree@V?$_Tmap_traits@KP8CDPSrvr@@AEXAAVCAr@@KKPAEK@ZU?$less@K@std@@V?$allocator@U?$pair@$$CBKP8CDPSrvr@@AEXAAVCAr@@KKPAEK@Z@std@@@4@$0A@@std@@@std@@QAE?AViterator@12@ABK@Z
_TEXT	SEGMENT PARA USE32 PUBLIC 'CODE'
_TEXT	ENDS
;	COMDAT ??0iterator@?$_Tree@V?$_Tmap_traits@KP8CDPSrvr@@AEXAAVCAr@@KKPAEK@ZU?$less@K@std@@V?$allocator@U?$pair@$$CBKP8CDPSrvr@@AEXAAVCAr@@KKPAEK@Z@std@@@4@$0A@@std@@@std@@QAE@PAU_Node@?$_Tree_nod@V?$_Tmap_traits@KP8CDPSrvr@@AEXAAVCAr@@KKPAEK@ZU?$less@K@std@@V?$allocator@U?$pair@$$CBKP8CDPSrvr@@AEXAAVCAr@@KKPAEK@Z@std@@@4@$0A@@std@@@2@@Z
_TEXT	SEGMENT PARA USE32 PUBLIC 'CODE'
_TEXT	ENDS
;	COMDAT ??Diterator@?$_Tree@V?$_Tmap_traits@KP8CDPSrvr@@AEXAAVCAr@@KKPAEK@ZU?$less@K@std@@V?$allocator@U?$pair@$$CBKP8CDPSrvr@@AEXAAVCAr@@KKPAEK@Z@std@@@4@$0A@@std@@@std@@QBEAAU?$pair@$$CBKP8CDPSrvr@@AEXAAVCAr@@KKPAEK@Z@2@XZ
_TEXT	SEGMENT PARA USE32 PUBLIC 'CODE'
_TEXT	ENDS
;	COMDAT ??8const_iterator@?$_Tree@V?$_Tmap_traits@KP8CDPSrvr@@AEXAAVCAr@@KKPAEK@ZU?$less@K@std@@V?$allocator@U?$pair@$$CBKP8CDPSrvr@@AEXAAVCAr@@KKPAEK@Z@std@@@4@$0A@@std@@@std@@QBE_NABV012@@Z
_TEXT	SEGMENT PARA USE32 PUBLIC 'CODE'
_TEXT	ENDS
;	COMDAT ?_Mynode@const_iterator@?$_Tree@V?$_Tmap_traits@KP8CDPSrvr@@AEXAAVCAr@@KKPAEK@ZU?$less@K@std@@V?$allocator@U?$pair@$$CBKP8CDPSrvr@@AEXAAVCAr@@KKPAEK@Z@std@@@4@$0A@@std@@@std@@QBEPAU_Node@?$_Tree_nod@V?$_Tmap_traits@KP8CDPSrvr@@AEXAAVCAr@@KKPAEK@ZU?$less@K@std@@V?$allocator@U?$pair@$$CBKP8CDPSrvr@@AEXAAVCAr@@KKPAEK@Z@std@@@4@$0A@@std@@@3@XZ
_TEXT	SEGMENT PARA USE32 PUBLIC 'CODE'
_TEXT	ENDS
;	COMDAT ?_Key@?$_Tree@V?$_Tmap_traits@KP8CDPCoreClient@@AEXAAVCAr@@KKK@ZU?$less@K@std@@V?$allocator@U?$pair@$$CBKP8CDPCoreClient@@AEXAAVCAr@@KKK@Z@std@@@4@$0A@@std@@@std@@KAABKPAU_Node@?$_Tree_nod@V?$_Tmap_traits@KP8CDPCoreClient@@AEXAAVCAr@@KKK@ZU?$less@K@std@@V?$allocator@U?$pair@$$CBKP8CDPCoreClient@@AEXAAVCAr@@KKK@Z@std@@@4@$0A@@std@@@2@@Z
_TEXT	SEGMENT PARA USE32 PUBLIC 'CODE'
_TEXT	ENDS
;	COMDAT ?lower_bound@?$_Tree@V?$_Tmap_traits@KP8CDPCoreClient@@AEXAAVCAr@@KKK@ZU?$less@K@std@@V?$allocator@U?$pair@$$CBKP8CDPCoreClient@@AEXAAVCAr@@KKK@Z@std@@@4@$0A@@std@@@std@@QAE?AViterator@12@ABK@Z
_TEXT	SEGMENT PARA USE32 PUBLIC 'CODE'
_TEXT	ENDS
;	COMDAT ??0iterator@?$_Tree@V?$_Tmap_traits@KP8CDPCoreClient@@AEXAAVCAr@@KKK@ZU?$less@K@std@@V?$allocator@U?$pair@$$CBKP8CDPCoreClient@@AEXAAVCAr@@KKK@Z@std@@@4@$0A@@std@@@std@@QAE@PAU_Node@?$_Tree_nod@V?$_Tmap_traits@KP8CDPCoreClient@@AEXAAVCAr@@KKK@ZU?$less@K@std@@V?$allocator@U?$pair@$$CBKP8CDPCoreClient@@AEXAAVCAr@@KKK@Z@std@@@4@$0A@@std@@@2@@Z
_TEXT	SEGMENT PARA USE32 PUBLIC 'CODE'
_TEXT	ENDS
;	COMDAT ??Diterator@?$_Tree@V?$_Tmap_traits@KP8CDPCoreClient@@AEXAAVCAr@@KKK@ZU?$less@K@std@@V?$allocator@U?$pair@$$CBKP8CDPCoreClient@@AEXAAVCAr@@KKK@Z@std@@@4@$0A@@std@@@std@@QBEAAU?$pair@$$CBKP8CDPCoreClient@@AEXAAVCAr@@KKK@Z@2@XZ
_TEXT	SEGMENT PARA USE32 PUBLIC 'CODE'
_TEXT	ENDS
;	COMDAT ??8const_iterator@?$_Tree@V?$_Tmap_traits@KP8CDPCoreClient@@AEXAAVCAr@@KKK@ZU?$less@K@std@@V?$allocator@U?$pair@$$CBKP8CDPCoreClient@@AEXAAVCAr@@KKK@Z@std@@@4@$0A@@std@@@std@@QBE_NABV012@@Z
_TEXT	SEGMENT PARA USE32 PUBLIC 'CODE'
_TEXT	ENDS
;	COMDAT ?_Mynode@const_iterator@?$_Tree@V?$_Tmap_traits@KP8CDPCoreClient@@AEXAAVCAr@@KKK@ZU?$less@K@std@@V?$allocator@U?$pair@$$CBKP8CDPCoreClient@@AEXAAVCAr@@KKK@Z@std@@@4@$0A@@std@@@std@@QBEPAU_Node@?$_Tree_nod@V?$_Tmap_traits@KP8CDPCoreClient@@AEXAAVCAr@@KKK@ZU?$less@K@std@@V?$allocator@U?$pair@$$CBKP8CDPCoreClient@@AEXAAVCAr@@KKK@Z@std@@@4@$0A@@std@@@3@XZ
_TEXT	SEGMENT PARA USE32 PUBLIC 'CODE'
_TEXT	ENDS
;	COMDAT ?_Key@?$_Tree@V?$_Tmap_traits@KP8CDPDatabaseClient@@AEXAAVCAr@@KK@ZU?$less@K@std@@V?$allocator@U?$pair@$$CBKP8CDPDatabaseClient@@AEXAAVCAr@@KK@Z@std@@@4@$0A@@std@@@std@@KAABKPAU_Node@?$_Tree_nod@V?$_Tmap_traits@KP8CDPDatabaseClient@@AEXAAVCAr@@KK@ZU?$less@K@std@@V?$allocator@U?$pair@$$CBKP8CDPDatabaseClient@@AEXAAVCAr@@KK@Z@std@@@4@$0A@@std@@@2@@Z
_TEXT	SEGMENT PARA USE32 PUBLIC 'CODE'
_TEXT	ENDS
;	COMDAT ?lower_bound@?$_Tree@V?$_Tmap_traits@KP8CDPDatabaseClient@@AEXAAVCAr@@KK@ZU?$less@K@std@@V?$allocator@U?$pair@$$CBKP8CDPDatabaseClient@@AEXAAVCAr@@KK@Z@std@@@4@$0A@@std@@@std@@QAE?AViterator@12@ABK@Z
_TEXT	SEGMENT PARA USE32 PUBLIC 'CODE'
_TEXT	ENDS
;	COMDAT ??0iterator@?$_Tree@V?$_Tmap_traits@KP8CDPDatabaseClient@@AEXAAVCAr@@KK@ZU?$less@K@std@@V?$allocator@U?$pair@$$CBKP8CDPDatabaseClient@@AEXAAVCAr@@KK@Z@std@@@4@$0A@@std@@@std@@QAE@PAU_Node@?$_Tree_nod@V?$_Tmap_traits@KP8CDPDatabaseClient@@AEXAAVCAr@@KK@ZU?$less@K@std@@V?$allocator@U?$pair@$$CBKP8CDPDatabaseClient@@AEXAAVCAr@@KK@Z@std@@@4@$0A@@std@@@2@@Z
_TEXT	SEGMENT PARA USE32 PUBLIC 'CODE'
_TEXT	ENDS
;	COMDAT ??Diterator@?$_Tree@V?$_Tmap_traits@KP8CDPDatabaseClient@@AEXAAVCAr@@KK@ZU?$less@K@std@@V?$allocator@U?$pair@$$CBKP8CDPDatabaseClient@@AEXAAVCAr@@KK@Z@std@@@4@$0A@@std@@@std@@QBEAAU?$pair@$$CBKP8CDPDatabaseClient@@AEXAAVCAr@@KK@Z@2@XZ
_TEXT	SEGMENT PARA USE32 PUBLIC 'CODE'
_TEXT	ENDS
;	COMDAT ??8const_iterator@?$_Tree@V?$_Tmap_traits@KP8CDPDatabaseClient@@AEXAAVCAr@@KK@ZU?$less@K@std@@V?$allocator@U?$pair@$$CBKP8CDPDatabaseClient@@AEXAAVCAr@@KK@Z@std@@@4@$0A@@std@@@std@@QBE_NABV012@@Z
_TEXT	SEGMENT PARA USE32 PUBLIC 'CODE'
_TEXT	ENDS
;	COMDAT ?_Mynode@const_iterator@?$_Tree@V?$_Tmap_traits@KP8CDPDatabaseClient@@AEXAAVCAr@@KK@ZU?$less@K@std@@V?$allocator@U?$pair@$$CBKP8CDPDatabaseClient@@AEXAAVCAr@@KK@Z@std@@@4@$0A@@std@@@std@@QBEPAU_Node@?$_Tree_nod@V?$_Tmap_traits@KP8CDPDatabaseClient@@AEXAAVCAr@@KK@ZU?$less@K@std@@V?$allocator@U?$pair@$$CBKP8CDPDatabaseClient@@AEXAAVCAr@@KK@Z@std@@@4@$0A@@std@@@3@XZ
_TEXT	SEGMENT PARA USE32 PUBLIC 'CODE'
_TEXT	ENDS
;	COMDAT ?begin@?$vector@U_SINGLE_DST@@V?$allocator@U_SINGLE_DST@@@std@@@std@@QAE?AViterator@12@XZ
_TEXT	SEGMENT PARA USE32 PUBLIC 'CODE'
_TEXT	ENDS
;	COMDAT ??Diterator@?$vector@PAU__JOINPLAYER@CGuildCombat@@V?$allocator@PAU__JOINPLAYER@CGuildCombat@@@std@@@std@@QBEAAPAU__JOINPLAYER@CGuildCombat@@XZ
_TEXT	SEGMENT PARA USE32 PUBLIC 'CODE'
_TEXT	ENDS
;	COMDAT ??Hiterator@?$vector@PAU__JOINPLAYER@CGuildCombat@@V?$allocator@PAU__JOINPLAYER@CGuildCombat@@@std@@@std@@QBE?AV012@H@Z
_TEXT	SEGMENT PARA USE32 PUBLIC 'CODE'
_TEXT	ENDS
;	COMDAT ??Diterator@?$vector@V?$basic_string@DU?$char_traits@D@std@@V?$allocator@D@2@@std@@V?$allocator@V?$basic_string@DU?$char_traits@D@std@@V?$allocator@D@2@@std@@@2@@std@@QBEAAV?$basic_string@DU?$char_traits@D@std@@V?$allocator@D@2@@2@XZ
_TEXT	SEGMENT PARA USE32 PUBLIC 'CODE'
_TEXT	ENDS
;	COMDAT ??Hiterator@?$vector@V?$basic_string@DU?$char_traits@D@std@@V?$allocator@D@2@@std@@V?$allocator@V?$basic_string@DU?$char_traits@D@std@@V?$allocator@D@2@@std@@@2@@std@@QBE?AV012@H@Z
_TEXT	SEGMENT PARA USE32 PUBLIC 'CODE'
_TEXT	ENDS
;	COMDAT ??Diterator@?$vector@PAVCMiniGameBase@@V?$allocator@PAVCMiniGameBase@@@std@@@std@@QBEAAPAVCMiniGameBase@@XZ
_TEXT	SEGMENT PARA USE32 PUBLIC 'CODE'
_TEXT	ENDS
;	COMDAT ??Hiterator@?$vector@PAVCMiniGameBase@@V?$allocator@PAVCMiniGameBase@@@std@@@std@@QBE?AV012@H@Z
_TEXT	SEGMENT PARA USE32 PUBLIC 'CODE'
_TEXT	ENDS
;	COMDAT ??Diterator@?$vector@UGuildHouse_Furniture_Info@CGuildHouseBase@@V?$allocator@UGuildHouse_Furniture_Info@CGuildHouseBase@@@std@@@std@@QBEAAUGuildHouse_Furniture_Info@CGuildHouseBase@@XZ
_TEXT	SEGMENT PARA USE32 PUBLIC 'CODE'
_TEXT	ENDS
;	COMDAT ??Hiterator@?$vector@UGuildHouse_Furniture_Info@CGuildHouseBase@@V?$allocator@UGuildHouse_Furniture_Info@CGuildHouseBase@@@std@@@std@@QBE?AV012@H@Z
_TEXT	SEGMENT PARA USE32 PUBLIC 'CODE'
_TEXT	ENDS
;	COMDAT ??Diterator@?$vector@U_SINGLE_DST@@V?$allocator@U_SINGLE_DST@@@std@@@std@@QBEAAU_SINGLE_DST@@XZ
_TEXT	SEGMENT PARA USE32 PUBLIC 'CODE'
_TEXT	ENDS
;	COMDAT ??Hiterator@?$vector@U_SINGLE_DST@@V?$allocator@U_SINGLE_DST@@@std@@@std@@QBE?AV012@H@Z
_TEXT	SEGMENT PARA USE32 PUBLIC 'CODE'
_TEXT	ENDS
;	COMDAT ??0?$allocator@V?$basic_string@DU?$char_traits@D@std@@V?$allocator@D@2@@std@@@std@@QAE@ABV01@@Z
_TEXT	SEGMENT PARA USE32 PUBLIC 'CODE'
_TEXT	ENDS
;	COMDAT ?deallocate@?$allocator@V?$basic_string@DU?$char_traits@D@std@@V?$allocator@D@2@@std@@@std@@QAEXPAV?$basic_string@DU?$char_traits@D@std@@V?$allocator@D@2@@2@I@Z
_TEXT	SEGMENT PARA USE32 PUBLIC 'CODE'
_TEXT	ENDS
;	COMDAT ?allocate@?$allocator@V?$basic_string@DU?$char_traits@D@std@@V?$allocator@D@2@@std@@@std@@QAEPAV?$basic_string@DU?$char_traits@D@std@@V?$allocator@D@2@@2@I@Z
_TEXT	SEGMENT PARA USE32 PUBLIC 'CODE'
_TEXT	ENDS
;	COMDAT ?size@?$_Tree@V?$_Tmap_traits@KPAVCCtrl@@U?$less@K@std@@V?$allocator@U?$pair@$$CBKPAVCCtrl@@@std@@@3@$0A@@std@@@std@@QBEIXZ
_TEXT	SEGMENT PARA USE32 PUBLIC 'CODE'
_TEXT	ENDS
;	COMDAT ??0iterator@?$_Tree@V?$_Tmap_traits@KPAVCCtrl@@U?$less@K@std@@V?$allocator@U?$pair@$$CBKPAVCCtrl@@@std@@@3@$0A@@std@@@std@@QAE@XZ
_TEXT	SEGMENT PARA USE32 PUBLIC 'CODE'
_TEXT	ENDS
;	COMDAT ?pop_back@?$deque@PAUtagACTMSG@@V?$allocator@PAUtagACTMSG@@@std@@@std@@QAEXXZ
_TEXT	SEGMENT PARA USE32 PUBLIC 'CODE'
_TEXT	ENDS
;	COMDAT ??0?$_Deque_map@PAUtagACTMSG@@V?$allocator@PAUtagACTMSG@@@std@@@std@@IAE@V?$allocator@PAUtagACTMSG@@@1@@Z
_TEXT	SEGMENT PARA USE32 PUBLIC 'CODE'
_TEXT	ENDS
;	COMDAT ??0?$allocator@PAUtagACTMSG@@@std@@QAE@ABV01@@Z
_TEXT	SEGMENT PARA USE32 PUBLIC 'CODE'
_TEXT	ENDS
;	COMDAT ?deallocate@?$allocator@PAUtagACTMSG@@@std@@QAEXPAPAUtagACTMSG@@I@Z
_TEXT	SEGMENT PARA USE32 PUBLIC 'CODE'
_TEXT	ENDS
;	COMDAT ?deallocate@?$allocator@PAPAUtagACTMSG@@@std@@QAEXPAPAPAUtagACTMSG@@I@Z
_TEXT	SEGMENT PARA USE32 PUBLIC 'CODE'
_TEXT	ENDS
;	COMDAT ?destroy@?$allocator@PAPAUtagACTMSG@@@std@@QAEXPAPAPAUtagACTMSG@@@Z
_TEXT	SEGMENT PARA USE32 PUBLIC 'CODE'
_TEXT	ENDS
;	COMDAT ?pop_back@?$deque@PAUtagMAGICATKMSG@@V?$allocator@PAUtagMAGICATKMSG@@@std@@@std@@QAEXXZ
_TEXT	SEGMENT PARA USE32 PUBLIC 'CODE'
_TEXT	ENDS
;	COMDAT ??0?$_Deque_map@PAUtagMAGICATKMSG@@V?$allocator@PAUtagMAGICATKMSG@@@std@@@std@@IAE@V?$allocator@PAUtagMAGICATKMSG@@@1@@Z
_TEXT	SEGMENT PARA USE32 PUBLIC 'CODE'
_TEXT	ENDS
;	COMDAT ??0?$allocator@PAUtagMAGICATKMSG@@@std@@QAE@ABV01@@Z
_TEXT	SEGMENT PARA USE32 PUBLIC 'CODE'
_TEXT	ENDS
;	COMDAT ?deallocate@?$allocator@PAUtagMAGICATKMSG@@@std@@QAEXPAPAUtagMAGICATKMSG@@I@Z
_TEXT	SEGMENT PARA USE32 PUBLIC 'CODE'
_TEXT	ENDS
;	COMDAT ?deallocate@?$allocator@PAPAUtagMAGICATKMSG@@@std@@QAEXPAPAPAUtagMAGICATKMSG@@I@Z
_TEXT	SEGMENT PARA USE32 PUBLIC 'CODE'
_TEXT	ENDS
;	COMDAT ?destroy@?$allocator@PAPAUtagMAGICATKMSG@@@std@@QAEXPAPAPAUtagMAGICATKMSG@@@Z
_TEXT	SEGMENT PARA USE32 PUBLIC 'CODE'
_TEXT	ENDS
;	COMDAT ??0const_iterator@?$deque@PAUtagACTMSG@@V?$allocator@PAUtagACTMSG@@@std@@@std@@QAE@IPBV12@@Z
_TEXT	SEGMENT PARA USE32 PUBLIC 'CODE'
_TEXT	ENDS
;	COMDAT ??0const_iterator@?$deque@PAUtagMAGICATKMSG@@V?$allocator@PAUtagMAGICATKMSG@@@std@@@std@@QAE@IPBV12@@Z
_TEXT	SEGMENT PARA USE32 PUBLIC 'CODE'
_TEXT	ENDS
;	COMDAT ?begin@?$_Tree@V?$_Tmap_traits@KU_Friend@@U?$less@K@std@@V?$allocator@U?$pair@$$CBKU_Friend@@@std@@@3@$0A@@std@@@std@@QAE?AViterator@12@XZ
_TEXT	SEGMENT PARA USE32 PUBLIC 'CODE'
_TEXT	ENDS
;	COMDAT ?end@?$_Tree@V?$_Tmap_traits@KU_Friend@@U?$less@K@std@@V?$allocator@U?$pair@$$CBKU_Friend@@@std@@@3@$0A@@std@@@std@@QAE?AViterator@12@XZ
_TEXT	SEGMENT PARA USE32 PUBLIC 'CODE'
_TEXT	ENDS
;	COMDAT ?erase@?$_Tree@V?$_Tmap_traits@KU_Friend@@U?$less@K@std@@V?$allocator@U?$pair@$$CBKU_Friend@@@std@@@3@$0A@@std@@@std@@QAE?AViterator@12@V312@@Z
_TEXT	SEGMENT PARA USE32 PUBLIC 'CODE'
_TEXT	ENDS
;	COMDAT ?clear@?$_Tree@V?$_Tmap_traits@KU_Friend@@U?$less@K@std@@V?$allocator@U?$pair@$$CBKU_Friend@@@std@@@3@$0A@@std@@@std@@QAEXXZ
_TEXT	SEGMENT PARA USE32 PUBLIC 'CODE'
_TEXT	ENDS
;	COMDAT ?lower_bound@?$_Tree@V?$_Tmap_traits@KU_Friend@@U?$less@K@std@@V?$allocator@U?$pair@$$CBKU_Friend@@@std@@@3@$0A@@std@@@std@@QAE?AViterator@12@ABK@Z
_TEXT	SEGMENT PARA USE32 PUBLIC 'CODE'
_TEXT	ENDS
;	COMDAT ?upper_bound@?$_Tree@V?$_Tmap_traits@KU_Friend@@U?$less@K@std@@V?$allocator@U?$pair@$$CBKU_Friend@@@std@@@3@$0A@@std@@@std@@QAE?AViterator@12@ABK@Z
_TEXT	SEGMENT PARA USE32 PUBLIC 'CODE'
_TEXT	ENDS
;	COMDAT ??Eiterator@?$_Tree@V?$_Tmap_traits@KU_Friend@@U?$less@K@std@@V?$allocator@U?$pair@$$CBKU_Friend@@@std@@@3@$0A@@std@@@std@@QAE?AV012@H@Z
_TEXT	SEGMENT PARA USE32 PUBLIC 'CODE'
_TEXT	ENDS
;	COMDAT ??8const_iterator@?$_Tree@V?$_Tmap_traits@KU_Friend@@U?$less@K@std@@V?$allocator@U?$pair@$$CBKU_Friend@@@std@@@3@$0A@@std@@@std@@QBE_NABV012@@Z
_TEXT	SEGMENT PARA USE32 PUBLIC 'CODE'
_TEXT	ENDS
;	COMDAT ??9const_iterator@?$_Tree@V?$_Tmap_traits@KU_Friend@@U?$less@K@std@@V?$allocator@U?$pair@$$CBKU_Friend@@@std@@@3@$0A@@std@@@std@@QBE_NABV012@@Z
_TEXT	SEGMENT PARA USE32 PUBLIC 'CODE'
_TEXT	ENDS
;	COMDAT ?_Destroy@?$vector@PAU__JOINPLAYER@CGuildCombat@@V?$allocator@PAU__JOINPLAYER@CGuildCombat@@@std@@@std@@IAEXPAPAU__JOINPLAYER@CGuildCombat@@0@Z
_TEXT	SEGMENT PARA USE32 PUBLIC 'CODE'
_TEXT	ENDS
;	COMDAT ?deallocate@?$allocator@PAU__JOINPLAYER@CGuildCombat@@@std@@QAEXPAPAU__JOINPLAYER@CGuildCombat@@I@Z
_TEXT	SEGMENT PARA USE32 PUBLIC 'CODE'
_TEXT	ENDS
;	COMDAT ?max_size@?$vector@U__SECRETROOM_MONSTER@@V?$allocator@U__SECRETROOM_MONSTER@@@std@@@std@@QBEIXZ
_TEXT	SEGMENT PARA USE32 PUBLIC 'CODE'
_TEXT	ENDS
;	COMDAT ?_Destroy@?$vector@U__SECRETROOM_MONSTER@@V?$allocator@U__SECRETROOM_MONSTER@@@std@@@std@@IAEXPAU__SECRETROOM_MONSTER@@0@Z
_TEXT	SEGMENT PARA USE32 PUBLIC 'CODE'
_TEXT	ENDS
;	COMDAT ?_Xlen@?$vector@U__SECRETROOM_MONSTER@@V?$allocator@U__SECRETROOM_MONSTER@@@std@@@std@@IBEXXZ
_TEXT	SEGMENT PARA USE32 PUBLIC 'CODE'
_TEXT	ENDS
;	COMDAT ??0?$allocator@U__SECRETROOM_MONSTER@@@std@@QAE@ABV01@@Z
_TEXT	SEGMENT PARA USE32 PUBLIC 'CODE'
_TEXT	ENDS
;	COMDAT ?deallocate@?$allocator@U__SECRETROOM_MONSTER@@@std@@QAEXPAU__SECRETROOM_MONSTER@@I@Z
_TEXT	SEGMENT PARA USE32 PUBLIC 'CODE'
_TEXT	ENDS
;	COMDAT ?allocate@?$allocator@U__SECRETROOM_MONSTER@@@std@@QAEPAU__SECRETROOM_MONSTER@@I@Z
_TEXT	SEGMENT PARA USE32 PUBLIC 'CODE'
_TEXT	ENDS
;	COMDAT ?max_size@?$vector@V?$basic_string@DU?$char_traits@D@std@@V?$allocator@D@2@@std@@V?$allocator@V?$basic_string@DU?$char_traits@D@std@@V?$allocator@D@2@@std@@@2@@std@@QBEIXZ
_TEXT	SEGMENT PARA USE32 PUBLIC 'CODE'
_TEXT	ENDS
;	COMDAT ?_Destroy@?$vector@V?$basic_string@DU?$char_traits@D@std@@V?$allocator@D@2@@std@@V?$allocator@V?$basic_string@DU?$char_traits@D@std@@V?$allocator@D@2@@std@@@2@@std@@IAEXPAV?$basic_string@DU?$char_traits@D@std@@V?$allocator@D@2@@2@0@Z
_TEXT	SEGMENT PARA USE32 PUBLIC 'CODE'
_TEXT	ENDS
;	COMDAT ?_Insert_n@?$vector@V?$basic_string@DU?$char_traits@D@std@@V?$allocator@D@2@@std@@V?$allocator@V?$basic_string@DU?$char_traits@D@std@@V?$allocator@D@2@@std@@@2@@std@@IAEXViterator@12@IABV?$basic_string@DU?$char_traits@D@std@@V?$allocator@D@2@@2@@Z
_TEXT	SEGMENT PARA USE32 PUBLIC 'CODE'
_TEXT	ENDS
;	COMDAT ?_Xlen@?$vector@V?$basic_string@DU?$char_traits@D@std@@V?$allocator@D@2@@std@@V?$allocator@V?$basic_string@DU?$char_traits@D@std@@V?$allocator@D@2@@std@@@2@@std@@IBEXXZ
_TEXT	SEGMENT PARA USE32 PUBLIC 'CODE'
_TEXT	ENDS
;	COMDAT ?begin@?$vector@UMINIGMAME_PRIZE_LIST@CRainbowRaceMng@@V?$allocator@UMINIGMAME_PRIZE_LIST@CRainbowRaceMng@@@std@@@std@@QAE?AViterator@12@XZ
_TEXT	SEGMENT PARA USE32 PUBLIC 'CODE'
_TEXT	ENDS
;	COMDAT ?_Insert_n@?$vector@UMINIGMAME_PRIZE_LIST@CRainbowRaceMng@@V?$allocator@UMINIGMAME_PRIZE_LIST@CRainbowRaceMng@@@std@@@std@@IAEXViterator@12@IABUMINIGMAME_PRIZE_LIST@CRainbowRaceMng@@@Z
_TEXT	SEGMENT PARA USE32 PUBLIC 'CODE'
_TEXT	ENDS
;	COMDAT ?_Color@?$_Tree@V?$_Tmap_traits@KPAVCGuildHouseBase@@U?$less@K@std@@V?$allocator@U?$pair@$$CBKPAVCGuildHouseBase@@@std@@@3@$0A@@std@@@std@@KAAADPAU_Node@?$_Tree_nod@V?$_Tmap_traits@KPAVCGuildHouseBase@@U?$less@K@std@@V?$allocator@U?$pair@$$CBKPAVCGuildHouseBase@@@std@@@3@$0A@@std@@@2@@Z
_TEXT	SEGMENT PARA USE32 PUBLIC 'CODE'
_TEXT	ENDS
;	COMDAT ?_Parent@?$_Tree@V?$_Tmap_traits@KPAVCGuildHouseBase@@U?$less@K@std@@V?$allocator@U?$pair@$$CBKPAVCGuildHouseBase@@@std@@@3@$0A@@std@@@std@@KAAAPAU_Node@?$_Tree_nod@V?$_Tmap_traits@KPAVCGuildHouseBase@@U?$less@K@std@@V?$allocator@U?$pair@$$CBKPAVCGuildHouseBase@@@std@@@3@$0A@@std@@@2@PAU342@@Z
_TEXT	SEGMENT PARA USE32 PUBLIC 'CODE'
_TEXT	ENDS
;	COMDAT ?_Myval@?$_Tree@V?$_Tmap_traits@KPAVCGuildHouseBase@@U?$less@K@std@@V?$allocator@U?$pair@$$CBKPAVCGuildHouseBase@@@std@@@3@$0A@@std@@@std@@KAAAU?$pair@$$CBKPAVCGuildHouseBase@@@2@PAU_Node@?$_Tree_nod@V?$_Tmap_traits@KPAVCGuildHouseBase@@U?$less@K@std@@V?$allocator@U?$pair@$$CBKPAVCGuildHouseBase@@@std@@@3@$0A@@std@@@2@@Z
_TEXT	SEGMENT PARA USE32 PUBLIC 'CODE'
_TEXT	ENDS
;	COMDAT ?max_size@?$_Tree@V?$_Tmap_traits@KPAVCGuildHouseBase@@U?$less@K@std@@V?$allocator@U?$pair@$$CBKPAVCGuildHouseBase@@@std@@@3@$0A@@std@@@std@@QBEIXZ
_TEXT	SEGMENT PARA USE32 PUBLIC 'CODE'
_TEXT	ENDS
;	COMDAT ?_Lmost@?$_Tree@V?$_Tmap_traits@KPAVCGuildHouseBase@@U?$less@K@std@@V?$allocator@U?$pair@$$CBKPAVCGuildHouseBase@@@std@@@3@$0A@@std@@@std@@IAEAAPAU_Node@?$_Tree_nod@V?$_Tmap_traits@KPAVCGuildHouseBase@@U?$less@K@std@@V?$allocator@U?$pair@$$CBKPAVCGuildHouseBase@@@std@@@3@$0A@@std@@@2@XZ
_TEXT	SEGMENT PARA USE32 PUBLIC 'CODE'
_TEXT	ENDS
;	COMDAT ?_Lrotate@?$_Tree@V?$_Tmap_traits@KPAVCGuildHouseBase@@U?$less@K@std@@V?$allocator@U?$pair@$$CBKPAVCGuildHouseBase@@@std@@@3@$0A@@std@@@std@@IAEXPAU_Node@?$_Tree_nod@V?$_Tmap_traits@KPAVCGuildHouseBase@@U?$less@K@std@@V?$allocator@U?$pair@$$CBKPAVCGuildHouseBase@@@std@@@3@$0A@@std@@@2@@Z
_TEXT	SEGMENT PARA USE32 PUBLIC 'CODE'
_TEXT	ENDS
;	COMDAT ?_Rmost@?$_Tree@V?$_Tmap_traits@KPAVCGuildHouseBase@@U?$less@K@std@@V?$allocator@U?$pair@$$CBKPAVCGuildHouseBase@@@std@@@3@$0A@@std@@@std@@IAEAAPAU_Node@?$_Tree_nod@V?$_Tmap_traits@KPAVCGuildHouseBase@@U?$less@K@std@@V?$allocator@U?$pair@$$CBKPAVCGuildHouseBase@@@std@@@3@$0A@@std@@@2@XZ
_TEXT	SEGMENT PARA USE32 PUBLIC 'CODE'
_TEXT	ENDS
;	COMDAT ?_Rrotate@?$_Tree@V?$_Tmap_traits@KPAVCGuildHouseBase@@U?$less@K@std@@V?$allocator@U?$pair@$$CBKPAVCGuildHouseBase@@@std@@@3@$0A@@std@@@std@@IAEXPAU_Node@?$_Tree_nod@V?$_Tmap_traits@KPAVCGuildHouseBase@@U?$less@K@std@@V?$allocator@U?$pair@$$CBKPAVCGuildHouseBase@@@std@@@3@$0A@@std@@@2@@Z
_TEXT	SEGMENT PARA USE32 PUBLIC 'CODE'
_TEXT	ENDS
;	COMDAT ?_Buynode@?$_Tree@V?$_Tmap_traits@KPAVCGuildHouseBase@@U?$less@K@std@@V?$allocator@U?$pair@$$CBKPAVCGuildHouseBase@@@std@@@3@$0A@@std@@@std@@IAEPAU_Node@?$_Tree_nod@V?$_Tmap_traits@KPAVCGuildHouseBase@@U?$less@K@std@@V?$allocator@U?$pair@$$CBKPAVCGuildHouseBase@@@std@@@3@$0A@@std@@@2@PAU342@00ABU?$pair@$$CBKPAVCGuildHouseBase@@@2@D@Z
_TEXT	SEGMENT PARA USE32 PUBLIC 'CODE'
_TEXT	ENDS
;	COMDAT ??0const_iterator@?$_Tree@V?$_Tmap_traits@KPAVCGuildHouseBase@@U?$less@K@std@@V?$allocator@U?$pair@$$CBKPAVCGuildHouseBase@@@std@@@3@$0A@@std@@@std@@QAE@PAU_Node@?$_Tree_nod@V?$_Tmap_traits@KPAVCGuildHouseBase@@U?$less@K@std@@V?$allocator@U?$pair@$$CBKPAVCGuildHouseBase@@@std@@@3@$0A@@std@@@2@@Z
_TEXT	SEGMENT PARA USE32 PUBLIC 'CODE'
_TEXT	ENDS
;	COMDAT ??Fconst_iterator@?$_Tree@V?$_Tmap_traits@KPAVCGuildHouseBase@@U?$less@K@std@@V?$allocator@U?$pair@$$CBKPAVCGuildHouseBase@@@std@@@3@$0A@@std@@@std@@QAEAAV012@XZ
_TEXT	SEGMENT PARA USE32 PUBLIC 'CODE'
_TEXT	ENDS
;	COMDAT ?begin@?$_Tree@V?$_Tmap_traits@KKU?$less@K@std@@V?$allocator@U?$pair@$$CBKK@std@@@2@$0A@@std@@@std@@QAE?AViterator@12@XZ
_TEXT	SEGMENT PARA USE32 PUBLIC 'CODE'
_TEXT	ENDS
;	COMDAT ?end@?$_Tree@V?$_Tmap_traits@KKU?$less@K@std@@V?$allocator@U?$pair@$$CBKK@std@@@2@$0A@@std@@@std@@QAE?AViterator@12@XZ
_TEXT	SEGMENT PARA USE32 PUBLIC 'CODE'
_TEXT	ENDS
;	COMDAT ?erase@?$_Tree@V?$_Tmap_traits@KKU?$less@K@std@@V?$allocator@U?$pair@$$CBKK@std@@@2@$0A@@std@@@std@@QAE?AViterator@12@V312@@Z
_TEXT	SEGMENT PARA USE32 PUBLIC 'CODE'
_TEXT	ENDS
;	COMDAT ?clear@?$_Tree@V?$_Tmap_traits@KKU?$less@K@std@@V?$allocator@U?$pair@$$CBKK@std@@@2@$0A@@std@@@std@@QAEXXZ
_TEXT	SEGMENT PARA USE32 PUBLIC 'CODE'
_TEXT	ENDS
;	COMDAT ?lower_bound@?$_Tree@V?$_Tmap_traits@KKU?$less@K@std@@V?$allocator@U?$pair@$$CBKK@std@@@2@$0A@@std@@@std@@QAE?AViterator@12@ABK@Z
_TEXT	SEGMENT PARA USE32 PUBLIC 'CODE'
_TEXT	ENDS
;	COMDAT ?upper_bound@?$_Tree@V?$_Tmap_traits@KKU?$less@K@std@@V?$allocator@U?$pair@$$CBKK@std@@@2@$0A@@std@@@std@@QAE?AViterator@12@ABK@Z
_TEXT	SEGMENT PARA USE32 PUBLIC 'CODE'
_TEXT	ENDS
;	COMDAT ??Eiterator@?$_Tree@V?$_Tmap_traits@KKU?$less@K@std@@V?$allocator@U?$pair@$$CBKK@std@@@2@$0A@@std@@@std@@QAE?AV012@H@Z
_TEXT	SEGMENT PARA USE32 PUBLIC 'CODE'
_TEXT	ENDS
;	COMDAT ??8const_iterator@?$_Tree@V?$_Tmap_traits@KKU?$less@K@std@@V?$allocator@U?$pair@$$CBKK@std@@@2@$0A@@std@@@std@@QBE_NABV012@@Z
_TEXT	SEGMENT PARA USE32 PUBLIC 'CODE'
_TEXT	ENDS
;	COMDAT ??9const_iterator@?$_Tree@V?$_Tmap_traits@KKU?$less@K@std@@V?$allocator@U?$pair@$$CBKK@std@@@2@$0A@@std@@@std@@QBE_NABV012@@Z
_TEXT	SEGMENT PARA USE32 PUBLIC 'CODE'
_TEXT	ENDS
;	COMDAT ?_Left@?$_Tree@V?$_Tmap_traits@KPAVCClientSock@@U?$less@K@std@@V?$allocator@U?$pair@$$CBKPAVCClientSock@@@std@@@3@$0A@@std@@@std@@KAAAPAU_Node@?$_Tree_nod@V?$_Tmap_traits@KPAVCClientSock@@U?$less@K@std@@V?$allocator@U?$pair@$$CBKPAVCClientSock@@@std@@@3@$0A@@std@@@2@PAU342@@Z
_TEXT	SEGMENT PARA USE32 PUBLIC 'CODE'
_TEXT	ENDS
;	COMDAT ?_Parent@?$_Tree@V?$_Tmap_traits@KPAVCClientSock@@U?$less@K@std@@V?$allocator@U?$pair@$$CBKPAVCClientSock@@@std@@@3@$0A@@std@@@std@@KAAAPAU_Node@?$_Tree_nod@V?$_Tmap_traits@KPAVCClientSock@@U?$less@K@std@@V?$allocator@U?$pair@$$CBKPAVCClientSock@@@std@@@3@$0A@@std@@@2@PAU342@@Z
_TEXT	SEGMENT PARA USE32 PUBLIC 'CODE'
_TEXT	ENDS
;	COMDAT ?_Right@?$_Tree@V?$_Tmap_traits@KPAVCClientSock@@U?$less@K@std@@V?$allocator@U?$pair@$$CBKPAVCClientSock@@@std@@@3@$0A@@std@@@std@@KAAAPAU_Node@?$_Tree_nod@V?$_Tmap_traits@KPAVCClientSock@@U?$less@K@std@@V?$allocator@U?$pair@$$CBKPAVCClientSock@@@std@@@3@$0A@@std@@@2@PAU342@@Z
_TEXT	SEGMENT PARA USE32 PUBLIC 'CODE'
_TEXT	ENDS
;	COMDAT ?_Myval@?$_Tree@V?$_Tmap_traits@KPAVCClientSock@@U?$less@K@std@@V?$allocator@U?$pair@$$CBKPAVCClientSock@@@std@@@3@$0A@@std@@@std@@KAAAU?$pair@$$CBKPAVCClientSock@@@2@PAU_Node@?$_Tree_nod@V?$_Tmap_traits@KPAVCClientSock@@U?$less@K@std@@V?$allocator@U?$pair@$$CBKPAVCClientSock@@@std@@@3@$0A@@std@@@2@@Z
_TEXT	SEGMENT PARA USE32 PUBLIC 'CODE'
_TEXT	ENDS
;	COMDAT ?begin@?$_Tree@V?$_Tmap_traits@KPAVCClientSock@@U?$less@K@std@@V?$allocator@U?$pair@$$CBKPAVCClientSock@@@std@@@3@$0A@@std@@@std@@QAE?AViterator@12@XZ
_TEXT	SEGMENT PARA USE32 PUBLIC 'CODE'
_TEXT	ENDS
;	COMDAT ?erase@?$_Tree@V?$_Tmap_traits@KPAVCClientSock@@U?$less@K@std@@V?$allocator@U?$pair@$$CBKPAVCClientSock@@@std@@@3@$0A@@std@@@std@@QAE?AViterator@12@V312@0@Z
_TEXT	SEGMENT PARA USE32 PUBLIC 'CODE'
_TEXT	ENDS
;	COMDAT ?_Init@?$_Tree@V?$_Tmap_traits@KPAVCClientSock@@U?$less@K@std@@V?$allocator@U?$pair@$$CBKPAVCClientSock@@@std@@@3@$0A@@std@@@std@@IAEXXZ
_TEXT	SEGMENT PARA USE32 PUBLIC 'CODE'
_TEXT	ENDS
;	COMDAT ?_Lbound@?$_Tree@V?$_Tmap_traits@KPAVCClientSock@@U?$less@K@std@@V?$allocator@U?$pair@$$CBKPAVCClientSock@@@std@@@3@$0A@@std@@@std@@IBEPAU_Node@?$_Tree_nod@V?$_Tmap_traits@KPAVCClientSock@@U?$less@K@std@@V?$allocator@U?$pair@$$CBKPAVCClientSock@@@std@@@3@$0A@@std@@@2@ABK@Z
_TEXT	SEGMENT PARA USE32 PUBLIC 'CODE'
_TEXT	ENDS
;	COMDAT ??0?$_Tree_val@V?$_Tmap_traits@KPAVCClientSock@@U?$less@K@std@@V?$allocator@U?$pair@$$CBKPAVCClientSock@@@std@@@3@$0A@@std@@@std@@IAE@ABU?$less@K@1@V?$allocator@U?$pair@$$CBKPAVCClientSock@@@std@@@1@@Z
_TEXT	SEGMENT PARA USE32 PUBLIC 'CODE'
_TEXT	ENDS
;	COMDAT ?_Kfn@?$_Tmap_traits@KPAVCClientSock@@U?$less@K@std@@V?$allocator@U?$pair@$$CBKPAVCClientSock@@@std@@@3@$0A@@std@@SAABKABU?$pair@$$CBKPAVCClientSock@@@2@@Z
_TEXT	SEGMENT PARA USE32 PUBLIC 'CODE'
_TEXT	ENDS
;	COMDAT ??0?$allocator@U?$pair@$$CBKPAVCClientSock@@@std@@@std@@QAE@ABV01@@Z
_TEXT	SEGMENT PARA USE32 PUBLIC 'CODE'
_TEXT	ENDS
;	COMDAT ?deallocate@?$allocator@U_Node@?$_Tree_nod@V?$_Tmap_traits@KPAVCClientSock@@U?$less@K@std@@V?$allocator@U?$pair@$$CBKPAVCClientSock@@@std@@@3@$0A@@std@@@std@@@std@@QAEXPAU_Node@?$_Tree_nod@V?$_Tmap_traits@KPAVCClientSock@@U?$less@K@std@@V?$allocator@U?$pair@$$CBKPAVCClientSock@@@std@@@3@$0A@@std@@@2@I@Z
_TEXT	SEGMENT PARA USE32 PUBLIC 'CODE'
_TEXT	ENDS
;	COMDAT ?destroy@?$allocator@PAU_Node@?$_Tree_nod@V?$_Tmap_traits@KPAVCClientSock@@U?$less@K@std@@V?$allocator@U?$pair@$$CBKPAVCClientSock@@@std@@@3@$0A@@std@@@std@@@std@@QAEXPAPAU_Node@?$_Tree_nod@V?$_Tmap_traits@KPAVCClientSock@@U?$less@K@std@@V?$allocator@U?$pair@$$CBKPAVCClientSock@@@std@@@3@$0A@@std@@@2@@Z
_TEXT	SEGMENT PARA USE32 PUBLIC 'CODE'
_TEXT	ENDS
;	COMDAT ??0const_iterator@?$_Tree@V?$_Tmap_traits@KPAVCClientSock@@U?$less@K@std@@V?$allocator@U?$pair@$$CBKPAVCClientSock@@@std@@@3@$0A@@std@@@std@@QAE@PAU_Node@?$_Tree_nod@V?$_Tmap_traits@KPAVCClientSock@@U?$less@K@std@@V?$allocator@U?$pair@$$CBKPAVCClientSock@@@std@@@3@$0A@@std@@@2@@Z
_TEXT	SEGMENT PARA USE32 PUBLIC 'CODE'
_TEXT	ENDS
;	COMDAT ??Dconst_iterator@?$_Tree@V?$_Tmap_traits@KPAVCClientSock@@U?$less@K@std@@V?$allocator@U?$pair@$$CBKPAVCClientSock@@@std@@@3@$0A@@std@@@std@@QBEABU?$pair@$$CBKPAVCClientSock@@@2@XZ
_TEXT	SEGMENT PARA USE32 PUBLIC 'CODE'
_TEXT	ENDS
;	COMDAT ?_Left@?$_Tree@V?$_Tmap_traits@KPAVCClientSockE@@U?$less@K@std@@V?$allocator@U?$pair@$$CBKPAVCClientSockE@@@std@@@3@$0A@@std@@@std@@KAAAPAU_Node@?$_Tree_nod@V?$_Tmap_traits@KPAVCClientSockE@@U?$less@K@std@@V?$allocator@U?$pair@$$CBKPAVCClientSockE@@@std@@@3@$0A@@std@@@2@PAU342@@Z
_TEXT	SEGMENT PARA USE32 PUBLIC 'CODE'
_TEXT	ENDS
;	COMDAT ?_Parent@?$_Tree@V?$_Tmap_traits@KPAVCClientSockE@@U?$less@K@std@@V?$allocator@U?$pair@$$CBKPAVCClientSockE@@@std@@@3@$0A@@std@@@std@@KAAAPAU_Node@?$_Tree_nod@V?$_Tmap_traits@KPAVCClientSockE@@U?$less@K@std@@V?$allocator@U?$pair@$$CBKPAVCClientSockE@@@std@@@3@$0A@@std@@@2@PAU342@@Z
_TEXT	SEGMENT PARA USE32 PUBLIC 'CODE'
_TEXT	ENDS
;	COMDAT ?_Right@?$_Tree@V?$_Tmap_traits@KPAVCClientSockE@@U?$less@K@std@@V?$allocator@U?$pair@$$CBKPAVCClientSockE@@@std@@@3@$0A@@std@@@std@@KAAAPAU_Node@?$_Tree_nod@V?$_Tmap_traits@KPAVCClientSockE@@U?$less@K@std@@V?$allocator@U?$pair@$$CBKPAVCClientSockE@@@std@@@3@$0A@@std@@@2@PAU342@@Z
_TEXT	SEGMENT PARA USE32 PUBLIC 'CODE'
_TEXT	ENDS
;	COMDAT ?_Myval@?$_Tree@V?$_Tmap_traits@KPAVCClientSockE@@U?$less@K@std@@V?$allocator@U?$pair@$$CBKPAVCClientSockE@@@std@@@3@$0A@@std@@@std@@KAAAU?$pair@$$CBKPAVCClientSockE@@@2@PAU_Node@?$_Tree_nod@V?$_Tmap_traits@KPAVCClientSockE@@U?$less@K@std@@V?$allocator@U?$pair@$$CBKPAVCClientSockE@@@std@@@3@$0A@@std@@@2@@Z
_TEXT	SEGMENT PARA USE32 PUBLIC 'CODE'
_TEXT	ENDS
;	COMDAT ?begin@?$_Tree@V?$_Tmap_traits@KPAVCClientSockE@@U?$less@K@std@@V?$allocator@U?$pair@$$CBKPAVCClientSockE@@@std@@@3@$0A@@std@@@std@@QAE?AViterator@12@XZ
_TEXT	SEGMENT PARA USE32 PUBLIC 'CODE'
_TEXT	ENDS
;	COMDAT ?erase@?$_Tree@V?$_Tmap_traits@KPAVCClientSockE@@U?$less@K@std@@V?$allocator@U?$pair@$$CBKPAVCClientSockE@@@std@@@3@$0A@@std@@@std@@QAE?AViterator@12@V312@0@Z
_TEXT	SEGMENT PARA USE32 PUBLIC 'CODE'
_TEXT	ENDS
;	COMDAT ?_Init@?$_Tree@V?$_Tmap_traits@KPAVCClientSockE@@U?$less@K@std@@V?$allocator@U?$pair@$$CBKPAVCClientSockE@@@std@@@3@$0A@@std@@@std@@IAEXXZ
_TEXT	SEGMENT PARA USE32 PUBLIC 'CODE'
_TEXT	ENDS
;	COMDAT ?_Lbound@?$_Tree@V?$_Tmap_traits@KPAVCClientSockE@@U?$less@K@std@@V?$allocator@U?$pair@$$CBKPAVCClientSockE@@@std@@@3@$0A@@std@@@std@@IBEPAU_Node@?$_Tree_nod@V?$_Tmap_traits@KPAVCClientSockE@@U?$less@K@std@@V?$allocator@U?$pair@$$CBKPAVCClientSockE@@@std@@@3@$0A@@std@@@2@ABK@Z
_TEXT	SEGMENT PARA USE32 PUBLIC 'CODE'
_TEXT	ENDS
;	COMDAT ??0?$_Tree_val@V?$_Tmap_traits@KPAVCClientSockE@@U?$less@K@std@@V?$allocator@U?$pair@$$CBKPAVCClientSockE@@@std@@@3@$0A@@std@@@std@@IAE@ABU?$less@K@1@V?$allocator@U?$pair@$$CBKPAVCClientSockE@@@std@@@1@@Z
_TEXT	SEGMENT PARA USE32 PUBLIC 'CODE'
_TEXT	ENDS
;	COMDAT ?_Kfn@?$_Tmap_traits@KPAVCClientSockE@@U?$less@K@std@@V?$allocator@U?$pair@$$CBKPAVCClientSockE@@@std@@@3@$0A@@std@@SAABKABU?$pair@$$CBKPAVCClientSockE@@@2@@Z
_TEXT	SEGMENT PARA USE32 PUBLIC 'CODE'
_TEXT	ENDS
;	COMDAT ??0?$allocator@U?$pair@$$CBKPAVCClientSockE@@@std@@@std@@QAE@ABV01@@Z
_TEXT	SEGMENT PARA USE32 PUBLIC 'CODE'
_TEXT	ENDS
;	COMDAT ?deallocate@?$allocator@U_Node@?$_Tree_nod@V?$_Tmap_traits@KPAVCClientSockE@@U?$less@K@std@@V?$allocator@U?$pair@$$CBKPAVCClientSockE@@@std@@@3@$0A@@std@@@std@@@std@@QAEXPAU_Node@?$_Tree_nod@V?$_Tmap_traits@KPAVCClientSockE@@U?$less@K@std@@V?$allocator@U?$pair@$$CBKPAVCClientSockE@@@std@@@3@$0A@@std@@@2@I@Z
_TEXT	SEGMENT PARA USE32 PUBLIC 'CODE'
_TEXT	ENDS
;	COMDAT ?destroy@?$allocator@PAU_Node@?$_Tree_nod@V?$_Tmap_traits@KPAVCClientSockE@@U?$less@K@std@@V?$allocator@U?$pair@$$CBKPAVCClientSockE@@@std@@@3@$0A@@std@@@std@@@std@@QAEXPAPAU_Node@?$_Tree_nod@V?$_Tmap_traits@KPAVCClientSockE@@U?$less@K@std@@V?$allocator@U?$pair@$$CBKPAVCClientSockE@@@std@@@3@$0A@@std@@@2@@Z
_TEXT	SEGMENT PARA USE32 PUBLIC 'CODE'
_TEXT	ENDS
;	COMDAT ??0const_iterator@?$_Tree@V?$_Tmap_traits@KPAVCClientSockE@@U?$less@K@std@@V?$allocator@U?$pair@$$CBKPAVCClientSockE@@@std@@@3@$0A@@std@@@std@@QAE@PAU_Node@?$_Tree_nod@V?$_Tmap_traits@KPAVCClientSockE@@U?$less@K@std@@V?$allocator@U?$pair@$$CBKPAVCClientSockE@@@std@@@3@$0A@@std@@@2@@Z
_TEXT	SEGMENT PARA USE32 PUBLIC 'CODE'
_TEXT	ENDS
;	COMDAT ??Dconst_iterator@?$_Tree@V?$_Tmap_traits@KPAVCClientSockE@@U?$less@K@std@@V?$allocator@U?$pair@$$CBKPAVCClientSockE@@@std@@@3@$0A@@std@@@std@@QBEABU?$pair@$$CBKPAVCClientSockE@@@2@XZ
_TEXT	SEGMENT PARA USE32 PUBLIC 'CODE'
_TEXT	ENDS
;	COMDAT ?_Myval@?$_Tree@V?$_Tmap_traits@KP8CDPSrvr@@AEXAAVCAr@@KKPAEK@ZU?$less@K@std@@V?$allocator@U?$pair@$$CBKP8CDPSrvr@@AEXAAVCAr@@KKPAEK@Z@std@@@4@$0A@@std@@@std@@KAAAU?$pair@$$CBKP8CDPSrvr@@AEXAAVCAr@@KKPAEK@Z@2@PAU_Node@?$_Tree_nod@V?$_Tmap_traits@KP8CDPSrvr@@AEXAAVCAr@@KKPAEK@ZU?$less@K@std@@V?$allocator@U?$pair@$$CBKP8CDPSrvr@@AEXAAVCAr@@KKPAEK@Z@std@@@4@$0A@@std@@@2@@Z
_TEXT	SEGMENT PARA USE32 PUBLIC 'CODE'
_TEXT	ENDS
;	COMDAT ?_Lbound@?$_Tree@V?$_Tmap_traits@KP8CDPSrvr@@AEXAAVCAr@@KKPAEK@ZU?$less@K@std@@V?$allocator@U?$pair@$$CBKP8CDPSrvr@@AEXAAVCAr@@KKPAEK@Z@std@@@4@$0A@@std@@@std@@IBEPAU_Node@?$_Tree_nod@V?$_Tmap_traits@KP8CDPSrvr@@AEXAAVCAr@@KKPAEK@ZU?$less@K@std@@V?$allocator@U?$pair@$$CBKP8CDPSrvr@@AEXAAVCAr@@KKPAEK@Z@std@@@4@$0A@@std@@@2@ABK@Z
_TEXT	SEGMENT PARA USE32 PUBLIC 'CODE'
_TEXT	ENDS
;	COMDAT ?_Kfn@?$_Tmap_traits@KP8CDPSrvr@@AEXAAVCAr@@KKPAEK@ZU?$less@K@std@@V?$allocator@U?$pair@$$CBKP8CDPSrvr@@AEXAAVCAr@@KKPAEK@Z@std@@@4@$0A@@std@@SAABKABU?$pair@$$CBKP8CDPSrvr@@AEXAAVCAr@@KKPAEK@Z@2@@Z
_TEXT	SEGMENT PARA USE32 PUBLIC 'CODE'
_TEXT	ENDS
;	COMDAT ??0const_iterator@?$_Tree@V?$_Tmap_traits@KP8CDPSrvr@@AEXAAVCAr@@KKPAEK@ZU?$less@K@std@@V?$allocator@U?$pair@$$CBKP8CDPSrvr@@AEXAAVCAr@@KKPAEK@Z@std@@@4@$0A@@std@@@std@@QAE@PAU_Node@?$_Tree_nod@V?$_Tmap_traits@KP8CDPSrvr@@AEXAAVCAr@@KKPAEK@ZU?$less@K@std@@V?$allocator@U?$pair@$$CBKP8CDPSrvr@@AEXAAVCAr@@KKPAEK@Z@std@@@4@$0A@@std@@@2@@Z
_TEXT	SEGMENT PARA USE32 PUBLIC 'CODE'
_TEXT	ENDS
;	COMDAT ??Dconst_iterator@?$_Tree@V?$_Tmap_traits@KP8CDPSrvr@@AEXAAVCAr@@KKPAEK@ZU?$less@K@std@@V?$allocator@U?$pair@$$CBKP8CDPSrvr@@AEXAAVCAr@@KKPAEK@Z@std@@@4@$0A@@std@@@std@@QBEABU?$pair@$$CBKP8CDPSrvr@@AEXAAVCAr@@KKPAEK@Z@2@XZ
_TEXT	SEGMENT PARA USE32 PUBLIC 'CODE'
_TEXT	ENDS
;	COMDAT ?_Myval@?$_Tree@V?$_Tmap_traits@KP8CDPCoreClient@@AEXAAVCAr@@KKK@ZU?$less@K@std@@V?$allocator@U?$pair@$$CBKP8CDPCoreClient@@AEXAAVCAr@@KKK@Z@std@@@4@$0A@@std@@@std@@KAAAU?$pair@$$CBKP8CDPCoreClient@@AEXAAVCAr@@KKK@Z@2@PAU_Node@?$_Tree_nod@V?$_Tmap_traits@KP8CDPCoreClient@@AEXAAVCAr@@KKK@ZU?$less@K@std@@V?$allocator@U?$pair@$$CBKP8CDPCoreClient@@AEXAAVCAr@@KKK@Z@std@@@4@$0A@@std@@@2@@Z
_TEXT	SEGMENT PARA USE32 PUBLIC 'CODE'
_TEXT	ENDS
;	COMDAT ?_Lbound@?$_Tree@V?$_Tmap_traits@KP8CDPCoreClient@@AEXAAVCAr@@KKK@ZU?$less@K@std@@V?$allocator@U?$pair@$$CBKP8CDPCoreClient@@AEXAAVCAr@@KKK@Z@std@@@4@$0A@@std@@@std@@IBEPAU_Node@?$_Tree_nod@V?$_Tmap_traits@KP8CDPCoreClient@@AEXAAVCAr@@KKK@ZU?$less@K@std@@V?$allocator@U?$pair@$$CBKP8CDPCoreClient@@AEXAAVCAr@@KKK@Z@std@@@4@$0A@@std@@@2@ABK@Z
_TEXT	SEGMENT PARA USE32 PUBLIC 'CODE'
_TEXT	ENDS
;	COMDAT ?_Kfn@?$_Tmap_traits@KP8CDPCoreClient@@AEXAAVCAr@@KKK@ZU?$less@K@std@@V?$allocator@U?$pair@$$CBKP8CDPCoreClient@@AEXAAVCAr@@KKK@Z@std@@@4@$0A@@std@@SAABKABU?$pair@$$CBKP8CDPCoreClient@@AEXAAVCAr@@KKK@Z@2@@Z
_TEXT	SEGMENT PARA USE32 PUBLIC 'CODE'
_TEXT	ENDS
;	COMDAT ??0const_iterator@?$_Tree@V?$_Tmap_traits@KP8CDPCoreClient@@AEXAAVCAr@@KKK@ZU?$less@K@std@@V?$allocator@U?$pair@$$CBKP8CDPCoreClient@@AEXAAVCAr@@KKK@Z@std@@@4@$0A@@std@@@std@@QAE@PAU_Node@?$_Tree_nod@V?$_Tmap_traits@KP8CDPCoreClient@@AEXAAVCAr@@KKK@ZU?$less@K@std@@V?$allocator@U?$pair@$$CBKP8CDPCoreClient@@AEXAAVCAr@@KKK@Z@std@@@4@$0A@@std@@@2@@Z
_TEXT	SEGMENT PARA USE32 PUBLIC 'CODE'
_TEXT	ENDS
;	COMDAT ??Dconst_iterator@?$_Tree@V?$_Tmap_traits@KP8CDPCoreClient@@AEXAAVCAr@@KKK@ZU?$less@K@std@@V?$allocator@U?$pair@$$CBKP8CDPCoreClient@@AEXAAVCAr@@KKK@Z@std@@@4@$0A@@std@@@std@@QBEABU?$pair@$$CBKP8CDPCoreClient@@AEXAAVCAr@@KKK@Z@2@XZ
_TEXT	SEGMENT PARA USE32 PUBLIC 'CODE'
_TEXT	ENDS
;	COMDAT ?_Myval@?$_Tree@V?$_Tmap_traits@KP8CDPDatabaseClient@@AEXAAVCAr@@KK@ZU?$less@K@std@@V?$allocator@U?$pair@$$CBKP8CDPDatabaseClient@@AEXAAVCAr@@KK@Z@std@@@4@$0A@@std@@@std@@KAAAU?$pair@$$CBKP8CDPDatabaseClient@@AEXAAVCAr@@KK@Z@2@PAU_Node@?$_Tree_nod@V?$_Tmap_traits@KP8CDPDatabaseClient@@AEXAAVCAr@@KK@ZU?$less@K@std@@V?$allocator@U?$pair@$$CBKP8CDPDatabaseClient@@AEXAAVCAr@@KK@Z@std@@@4@$0A@@std@@@2@@Z
_TEXT	SEGMENT PARA USE32 PUBLIC 'CODE'
_TEXT	ENDS
;	COMDAT ?_Lbound@?$_Tree@V?$_Tmap_traits@KP8CDPDatabaseClient@@AEXAAVCAr@@KK@ZU?$less@K@std@@V?$allocator@U?$pair@$$CBKP8CDPDatabaseClient@@AEXAAVCAr@@KK@Z@std@@@4@$0A@@std@@@std@@IBEPAU_Node@?$_Tree_nod@V?$_Tmap_traits@KP8CDPDatabaseClient@@AEXAAVCAr@@KK@ZU?$less@K@std@@V?$allocator@U?$pair@$$CBKP8CDPDatabaseClient@@AEXAAVCAr@@KK@Z@std@@@4@$0A@@std@@@2@ABK@Z
_TEXT	SEGMENT PARA USE32 PUBLIC 'CODE'
_TEXT	ENDS
;	COMDAT ?_Kfn@?$_Tmap_traits@KP8CDPDatabaseClient@@AEXAAVCAr@@KK@ZU?$less@K@std@@V?$allocator@U?$pair@$$CBKP8CDPDatabaseClient@@AEXAAVCAr@@KK@Z@std@@@4@$0A@@std@@SAABKABU?$pair@$$CBKP8CDPDatabaseClient@@AEXAAVCAr@@KK@Z@2@@Z
_TEXT	SEGMENT PARA USE32 PUBLIC 'CODE'
_TEXT	ENDS
;	COMDAT ??0const_iterator@?$_Tree@V?$_Tmap_traits@KP8CDPDatabaseClient@@AEXAAVCAr@@KK@ZU?$less@K@std@@V?$allocator@U?$pair@$$CBKP8CDPDatabaseClient@@AEXAAVCAr@@KK@Z@std@@@4@$0A@@std@@@std@@QAE@PAU_Node@?$_Tree_nod@V?$_Tmap_traits@KP8CDPDatabaseClient@@AEXAAVCAr@@KK@ZU?$less@K@std@@V?$allocator@U?$pair@$$CBKP8CDPDatabaseClient@@AEXAAVCAr@@KK@Z@std@@@4@$0A@@std@@@2@@Z
_TEXT	SEGMENT PARA USE32 PUBLIC 'CODE'
_TEXT	ENDS
;	COMDAT ??Dconst_iterator@?$_Tree@V?$_Tmap_traits@KP8CDPDatabaseClient@@AEXAAVCAr@@KK@ZU?$less@K@std@@V?$allocator@U?$pair@$$CBKP8CDPDatabaseClient@@AEXAAVCAr@@KK@Z@std@@@4@$0A@@std@@@std@@QBEABU?$pair@$$CBKP8CDPDatabaseClient@@AEXAAVCAr@@KK@Z@2@XZ
_TEXT	SEGMENT PARA USE32 PUBLIC 'CODE'
_TEXT	ENDS
;	COMDAT ??0?$pair@Viterator@?$_Tree@V?$_Tmap_traits@KU_Friend@@U?$less@K@std@@V?$allocator@U?$pair@$$CBKU_Friend@@@std@@@3@$0A@@std@@@std@@V123@@std@@QAE@ABViterator@?$_Tree@V?$_Tmap_traits@KU_Friend@@U?$less@K@std@@V?$allocator@U?$pair@$$CBKU_Friend@@@std@@@3@$0A@@std@@@1@0@Z
_TEXT	SEGMENT PARA USE32 PUBLIC 'CODE'
_TEXT	ENDS
;	COMDAT ??0iterator@?$vector@PAU__JOINPLAYER@CGuildCombat@@V?$allocator@PAU__JOINPLAYER@CGuildCombat@@@std@@@std@@QAE@PAPAU__JOINPLAYER@CGuildCombat@@@Z
_TEXT	SEGMENT PARA USE32 PUBLIC 'CODE'
_TEXT	ENDS
;	COMDAT ??Yiterator@?$vector@PAU__JOINPLAYER@CGuildCombat@@V?$allocator@PAU__JOINPLAYER@CGuildCombat@@@std@@@std@@QAEAAV012@H@Z
_TEXT	SEGMENT PARA USE32 PUBLIC 'CODE'
_TEXT	ENDS
;	COMDAT ??Dconst_iterator@?$vector@PAU__JOINPLAYER@CGuildCombat@@V?$allocator@PAU__JOINPLAYER@CGuildCombat@@@std@@@std@@QBEABQAU__JOINPLAYER@CGuildCombat@@XZ
_TEXT	SEGMENT PARA USE32 PUBLIC 'CODE'
_TEXT	ENDS
;	COMDAT ??0iterator@?$vector@V?$basic_string@DU?$char_traits@D@std@@V?$allocator@D@2@@std@@V?$allocator@V?$basic_string@DU?$char_traits@D@std@@V?$allocator@D@2@@std@@@2@@std@@QAE@PAV?$basic_string@DU?$char_traits@D@std@@V?$allocator@D@2@@2@@Z
_TEXT	SEGMENT PARA USE32 PUBLIC 'CODE'
_TEXT	ENDS
;	COMDAT ??Yiterator@?$vector@V?$basic_string@DU?$char_traits@D@std@@V?$allocator@D@2@@std@@V?$allocator@V?$basic_string@DU?$char_traits@D@std@@V?$allocator@D@2@@std@@@2@@std@@QAEAAV012@H@Z
_TEXT	SEGMENT PARA USE32 PUBLIC 'CODE'
_TEXT	ENDS
;	COMDAT ??Giterator@?$vector@V?$basic_string@DU?$char_traits@D@std@@V?$allocator@D@2@@std@@V?$allocator@V?$basic_string@DU?$char_traits@D@std@@V?$allocator@D@2@@std@@@2@@std@@QBEHABVconst_iterator@12@@Z
_TEXT	SEGMENT PARA USE32 PUBLIC 'CODE'
_TEXT	ENDS
;	COMDAT ??Dconst_iterator@?$vector@V?$basic_string@DU?$char_traits@D@std@@V?$allocator@D@2@@std@@V?$allocator@V?$basic_string@DU?$char_traits@D@std@@V?$allocator@D@2@@std@@@2@@std@@QBEABV?$basic_string@DU?$char_traits@D@std@@V?$allocator@D@2@@2@XZ
_TEXT	SEGMENT PARA USE32 PUBLIC 'CODE'
_TEXT	ENDS
;	COMDAT ??0iterator@?$vector@UMINIGMAME_PRIZE_LIST@CRainbowRaceMng@@V?$allocator@UMINIGMAME_PRIZE_LIST@CRainbowRaceMng@@@std@@@std@@QAE@PAUMINIGMAME_PRIZE_LIST@CRainbowRaceMng@@@Z
_TEXT	SEGMENT PARA USE32 PUBLIC 'CODE'
_TEXT	ENDS
;	COMDAT ??Hiterator@?$vector@UMINIGMAME_PRIZE_LIST@CRainbowRaceMng@@V?$allocator@UMINIGMAME_PRIZE_LIST@CRainbowRaceMng@@@std@@@std@@QBE?AV012@H@Z
_TEXT	SEGMENT PARA USE32 PUBLIC 'CODE'
_TEXT	ENDS
;	COMDAT ??Giterator@?$vector@UMINIGMAME_PRIZE_LIST@CRainbowRaceMng@@V?$allocator@UMINIGMAME_PRIZE_LIST@CRainbowRaceMng@@@std@@@std@@QBEHABVconst_iterator@12@@Z
_TEXT	SEGMENT PARA USE32 PUBLIC 'CODE'
_TEXT	ENDS
;	COMDAT ??0iterator@?$vector@PAVCMiniGameBase@@V?$allocator@PAVCMiniGameBase@@@std@@@std@@QAE@PAPAVCMiniGameBase@@@Z
_TEXT	SEGMENT PARA USE32 PUBLIC 'CODE'
_TEXT	ENDS
;	COMDAT ??Yiterator@?$vector@PAVCMiniGameBase@@V?$allocator@PAVCMiniGameBase@@@std@@@std@@QAEAAV012@H@Z
_TEXT	SEGMENT PARA USE32 PUBLIC 'CODE'
_TEXT	ENDS
;	COMDAT ??Dconst_iterator@?$vector@PAVCMiniGameBase@@V?$allocator@PAVCMiniGameBase@@@std@@@std@@QBEABQAVCMiniGameBase@@XZ
_TEXT	SEGMENT PARA USE32 PUBLIC 'CODE'
_TEXT	ENDS
;	COMDAT ??0iterator@?$vector@UGuildHouse_Furniture_Info@CGuildHouseBase@@V?$allocator@UGuildHouse_Furniture_Info@CGuildHouseBase@@@std@@@std@@QAE@PAUGuildHouse_Furniture_Info@CGuildHouseBase@@@Z
_TEXT	SEGMENT PARA USE32 PUBLIC 'CODE'
_TEXT	ENDS
;	COMDAT ??Yiterator@?$vector@UGuildHouse_Furniture_Info@CGuildHouseBase@@V?$allocator@UGuildHouse_Furniture_Info@CGuildHouseBase@@@std@@@std@@QAEAAV012@H@Z
_TEXT	SEGMENT PARA USE32 PUBLIC 'CODE'
_TEXT	ENDS
;	COMDAT ??Dconst_iterator@?$vector@UGuildHouse_Furniture_Info@CGuildHouseBase@@V?$allocator@UGuildHouse_Furniture_Info@CGuildHouseBase@@@std@@@std@@QBEABUGuildHouse_Furniture_Info@CGuildHouseBase@@XZ
_TEXT	SEGMENT PARA USE32 PUBLIC 'CODE'
_TEXT	ENDS
;	COMDAT ??0?$pair@Viterator@?$_Tree@V?$_Tmap_traits@KKU?$less@K@std@@V?$allocator@U?$pair@$$CBKK@std@@@2@$0A@@std@@@std@@V123@@std@@QAE@ABViterator@?$_Tree@V?$_Tmap_traits@KKU?$less@K@std@@V?$allocator@U?$pair@$$CBKK@std@@@2@$0A@@std@@@1@0@Z
_TEXT	SEGMENT PARA USE32 PUBLIC 'CODE'
_TEXT	ENDS
;	COMDAT ??0iterator@?$vector@U_SINGLE_DST@@V?$allocator@U_SINGLE_DST@@@std@@@std@@QAE@PAU_SINGLE_DST@@@Z
_TEXT	SEGMENT PARA USE32 PUBLIC 'CODE'
_TEXT	ENDS
;	COMDAT ??Yiterator@?$vector@U_SINGLE_DST@@V?$allocator@U_SINGLE_DST@@@std@@@std@@QAEAAV012@H@Z
_TEXT	SEGMENT PARA USE32 PUBLIC 'CODE'
_TEXT	ENDS
;	COMDAT ??Dconst_iterator@?$vector@U_SINGLE_DST@@V?$allocator@U_SINGLE_DST@@@std@@@std@@QBEABU_SINGLE_DST@@XZ
_TEXT	SEGMENT PARA USE32 PUBLIC 'CODE'
_TEXT	ENDS
;	COMDAT ?max_size@?$allocator@V?$basic_string@DU?$char_traits@D@std@@V?$allocator@D@2@@std@@@std@@QBEIXZ
_TEXT	SEGMENT PARA USE32 PUBLIC 'CODE'
_TEXT	ENDS
;	COMDAT ??0const_iterator@?$_Tree@V?$_Tmap_traits@KPAVCCtrl@@U?$less@K@std@@V?$allocator@U?$pair@$$CBKPAVCCtrl@@@std@@@3@$0A@@std@@@std@@QAE@XZ
_TEXT	SEGMENT PARA USE32 PUBLIC 'CODE'
_TEXT	ENDS
;	COMDAT ?destroy@?$allocator@PAUtagACTMSG@@@std@@QAEXPAPAUtagACTMSG@@@Z
_TEXT	SEGMENT PARA USE32 PUBLIC 'CODE'
_TEXT	ENDS
;	COMDAT ?destroy@?$allocator@PAUtagMAGICATKMSG@@@std@@QAEXPAPAUtagMAGICATKMSG@@@Z
_TEXT	SEGMENT PARA USE32 PUBLIC 'CODE'
_TEXT	ENDS
;	COMDAT ?_Color@?$_Tree@V?$_Tmap_traits@KU_Friend@@U?$less@K@std@@V?$allocator@U?$pair@$$CBKU_Friend@@@std@@@3@$0A@@std@@@std@@KAAADPAU_Node@?$_Tree_nod@V?$_Tmap_traits@KU_Friend@@U?$less@K@std@@V?$allocator@U?$pair@$$CBKU_Friend@@@std@@@3@$0A@@std@@@2@@Z
_TEXT	SEGMENT PARA USE32 PUBLIC 'CODE'
_TEXT	ENDS
;	COMDAT ?_Isnil@?$_Tree@V?$_Tmap_traits@KU_Friend@@U?$less@K@std@@V?$allocator@U?$pair@$$CBKU_Friend@@@std@@@3@$0A@@std@@@std@@KAAADPAU_Node@?$_Tree_nod@V?$_Tmap_traits@KU_Friend@@U?$less@K@std@@V?$allocator@U?$pair@$$CBKU_Friend@@@std@@@3@$0A@@std@@@2@@Z
_TEXT	SEGMENT PARA USE32 PUBLIC 'CODE'
_TEXT	ENDS
;	COMDAT ?_Left@?$_Tree@V?$_Tmap_traits@KU_Friend@@U?$less@K@std@@V?$allocator@U?$pair@$$CBKU_Friend@@@std@@@3@$0A@@std@@@std@@KAAAPAU_Node@?$_Tree_nod@V?$_Tmap_traits@KU_Friend@@U?$less@K@std@@V?$allocator@U?$pair@$$CBKU_Friend@@@std@@@3@$0A@@std@@@2@PAU342@@Z
_TEXT	SEGMENT PARA USE32 PUBLIC 'CODE'
_TEXT	ENDS
;	COMDAT ?_Parent@?$_Tree@V?$_Tmap_traits@KU_Friend@@U?$less@K@std@@V?$allocator@U?$pair@$$CBKU_Friend@@@std@@@3@$0A@@std@@@std@@KAAAPAU_Node@?$_Tree_nod@V?$_Tmap_traits@KU_Friend@@U?$less@K@std@@V?$allocator@U?$pair@$$CBKU_Friend@@@std@@@3@$0A@@std@@@2@PAU342@@Z
_TEXT	SEGMENT PARA USE32 PUBLIC 'CODE'
_TEXT	ENDS
;	COMDAT ?_Right@?$_Tree@V?$_Tmap_traits@KU_Friend@@U?$less@K@std@@V?$allocator@U?$pair@$$CBKU_Friend@@@std@@@3@$0A@@std@@@std@@KAAAPAU_Node@?$_Tree_nod@V?$_Tmap_traits@KU_Friend@@U?$less@K@std@@V?$allocator@U?$pair@$$CBKU_Friend@@@std@@@3@$0A@@std@@@2@PAU342@@Z
_TEXT	SEGMENT PARA USE32 PUBLIC 'CODE'
_TEXT	ENDS
;	COMDAT ?_Erase@?$_Tree@V?$_Tmap_traits@KU_Friend@@U?$less@K@std@@V?$allocator@U?$pair@$$CBKU_Friend@@@std@@@3@$0A@@std@@@std@@IAEXPAU_Node@?$_Tree_nod@V?$_Tmap_traits@KU_Friend@@U?$less@K@std@@V?$allocator@U?$pair@$$CBKU_Friend@@@std@@@3@$0A@@std@@@2@@Z
_TEXT	SEGMENT PARA USE32 PUBLIC 'CODE'
_TEXT	ENDS
;	COMDAT ?_Lbound@?$_Tree@V?$_Tmap_traits@KU_Friend@@U?$less@K@std@@V?$allocator@U?$pair@$$CBKU_Friend@@@std@@@3@$0A@@std@@@std@@IBEPAU_Node@?$_Tree_nod@V?$_Tmap_traits@KU_Friend@@U?$less@K@std@@V?$allocator@U?$pair@$$CBKU_Friend@@@std@@@3@$0A@@std@@@2@ABK@Z
_TEXT	SEGMENT PARA USE32 PUBLIC 'CODE'
_TEXT	ENDS
;	COMDAT ?_Lmost@?$_Tree@V?$_Tmap_traits@KU_Friend@@U?$less@K@std@@V?$allocator@U?$pair@$$CBKU_Friend@@@std@@@3@$0A@@std@@@std@@IAEAAPAU_Node@?$_Tree_nod@V?$_Tmap_traits@KU_Friend@@U?$less@K@std@@V?$allocator@U?$pair@$$CBKU_Friend@@@std@@@3@$0A@@std@@@2@XZ
_TEXT	SEGMENT PARA USE32 PUBLIC 'CODE'
_TEXT	ENDS
;	COMDAT ?_Lrotate@?$_Tree@V?$_Tmap_traits@KU_Friend@@U?$less@K@std@@V?$allocator@U?$pair@$$CBKU_Friend@@@std@@@3@$0A@@std@@@std@@IAEXPAU_Node@?$_Tree_nod@V?$_Tmap_traits@KU_Friend@@U?$less@K@std@@V?$allocator@U?$pair@$$CBKU_Friend@@@std@@@3@$0A@@std@@@2@@Z
_TEXT	SEGMENT PARA USE32 PUBLIC 'CODE'
_TEXT	ENDS
;	COMDAT ?_Max@?$_Tree@V?$_Tmap_traits@KU_Friend@@U?$less@K@std@@V?$allocator@U?$pair@$$CBKU_Friend@@@std@@@3@$0A@@std@@@std@@KAPAU_Node@?$_Tree_nod@V?$_Tmap_traits@KU_Friend@@U?$less@K@std@@V?$allocator@U?$pair@$$CBKU_Friend@@@std@@@3@$0A@@std@@@2@PAU342@@Z
_TEXT	SEGMENT PARA USE32 PUBLIC 'CODE'
_TEXT	ENDS
;	COMDAT ?_Min@?$_Tree@V?$_Tmap_traits@KU_Friend@@U?$less@K@std@@V?$allocator@U?$pair@$$CBKU_Friend@@@std@@@3@$0A@@std@@@std@@KAPAU_Node@?$_Tree_nod@V?$_Tmap_traits@KU_Friend@@U?$less@K@std@@V?$allocator@U?$pair@$$CBKU_Friend@@@std@@@3@$0A@@std@@@2@PAU342@@Z
_TEXT	SEGMENT PARA USE32 PUBLIC 'CODE'
_TEXT	ENDS
;	COMDAT ?_Rmost@?$_Tree@V?$_Tmap_traits@KU_Friend@@U?$less@K@std@@V?$allocator@U?$pair@$$CBKU_Friend@@@std@@@3@$0A@@std@@@std@@IAEAAPAU_Node@?$_Tree_nod@V?$_Tmap_traits@KU_Friend@@U?$less@K@std@@V?$allocator@U?$pair@$$CBKU_Friend@@@std@@@3@$0A@@std@@@2@XZ
_TEXT	SEGMENT PARA USE32 PUBLIC 'CODE'
_TEXT	ENDS
;	COMDAT ?_Root@?$_Tree@V?$_Tmap_traits@KU_Friend@@U?$less@K@std@@V?$allocator@U?$pair@$$CBKU_Friend@@@std@@@3@$0A@@std@@@std@@IAEAAPAU_Node@?$_Tree_nod@V?$_Tmap_traits@KU_Friend@@U?$less@K@std@@V?$allocator@U?$pair@$$CBKU_Friend@@@std@@@3@$0A@@std@@@2@XZ
_TEXT	SEGMENT PARA USE32 PUBLIC 'CODE'
_TEXT	ENDS
;	COMDAT ?_Rrotate@?$_Tree@V?$_Tmap_traits@KU_Friend@@U?$less@K@std@@V?$allocator@U?$pair@$$CBKU_Friend@@@std@@@3@$0A@@std@@@std@@IAEXPAU_Node@?$_Tree_nod@V?$_Tmap_traits@KU_Friend@@U?$less@K@std@@V?$allocator@U?$pair@$$CBKU_Friend@@@std@@@3@$0A@@std@@@2@@Z
_TEXT	SEGMENT PARA USE32 PUBLIC 'CODE'
_TEXT	ENDS
;	COMDAT ?_Ubound@?$_Tree@V?$_Tmap_traits@KU_Friend@@U?$less@K@std@@V?$allocator@U?$pair@$$CBKU_Friend@@@std@@@3@$0A@@std@@@std@@IBEPAU_Node@?$_Tree_nod@V?$_Tmap_traits@KU_Friend@@U?$less@K@std@@V?$allocator@U?$pair@$$CBKU_Friend@@@std@@@3@$0A@@std@@@2@ABK@Z
_TEXT	SEGMENT PARA USE32 PUBLIC 'CODE'
_TEXT	ENDS
;	COMDAT ?deallocate@?$allocator@U_Node@?$_Tree_nod@V?$_Tmap_traits@KU_Friend@@U?$less@K@std@@V?$allocator@U?$pair@$$CBKU_Friend@@@std@@@3@$0A@@std@@@std@@@std@@QAEXPAU_Node@?$_Tree_nod@V?$_Tmap_traits@KU_Friend@@U?$less@K@std@@V?$allocator@U?$pair@$$CBKU_Friend@@@std@@@3@$0A@@std@@@2@I@Z
_TEXT	SEGMENT PARA USE32 PUBLIC 'CODE'
_TEXT	ENDS
;	COMDAT ?destroy@?$allocator@U_Node@?$_Tree_nod@V?$_Tmap_traits@KU_Friend@@U?$less@K@std@@V?$allocator@U?$pair@$$CBKU_Friend@@@std@@@3@$0A@@std@@@std@@@std@@QAEXPAU_Node@?$_Tree_nod@V?$_Tmap_traits@KU_Friend@@U?$less@K@std@@V?$allocator@U?$pair@$$CBKU_Friend@@@std@@@3@$0A@@std@@@2@@Z
_TEXT	SEGMENT PARA USE32 PUBLIC 'CODE'
_TEXT	ENDS
;	COMDAT ??0iterator@?$_Tree@V?$_Tmap_traits@KU_Friend@@U?$less@K@std@@V?$allocator@U?$pair@$$CBKU_Friend@@@std@@@3@$0A@@std@@@std@@QAE@PAU_Node@?$_Tree_nod@V?$_Tmap_traits@KU_Friend@@U?$less@K@std@@V?$allocator@U?$pair@$$CBKU_Friend@@@std@@@3@$0A@@std@@@2@@Z
_TEXT	SEGMENT PARA USE32 PUBLIC 'CODE'
_TEXT	ENDS
;	COMDAT ??Eiterator@?$_Tree@V?$_Tmap_traits@KU_Friend@@U?$less@K@std@@V?$allocator@U?$pair@$$CBKU_Friend@@@std@@@3@$0A@@std@@@std@@QAEAAV012@XZ
_TEXT	SEGMENT PARA USE32 PUBLIC 'CODE'
_TEXT	ENDS
;	COMDAT ?_Mynode@const_iterator@?$_Tree@V?$_Tmap_traits@KU_Friend@@U?$less@K@std@@V?$allocator@U?$pair@$$CBKU_Friend@@@std@@@3@$0A@@std@@@std@@QBEPAU_Node@?$_Tree_nod@V?$_Tmap_traits@KU_Friend@@U?$less@K@std@@V?$allocator@U?$pair@$$CBKU_Friend@@@std@@@3@$0A@@std@@@3@XZ
_TEXT	SEGMENT PARA USE32 PUBLIC 'CODE'
_TEXT	ENDS
;	COMDAT ?max_size@?$allocator@U__SECRETROOM_MONSTER@@@std@@QBEIXZ
_TEXT	SEGMENT PARA USE32 PUBLIC 'CODE'
_TEXT	ENDS
;	COMDAT ?max_size@?$vector@UMINIGMAME_PRIZE_LIST@CRainbowRaceMng@@V?$allocator@UMINIGMAME_PRIZE_LIST@CRainbowRaceMng@@@std@@@std@@QBEIXZ
_TEXT	SEGMENT PARA USE32 PUBLIC 'CODE'
_TEXT	ENDS
;	COMDAT ?_Destroy@?$vector@UMINIGMAME_PRIZE_LIST@CRainbowRaceMng@@V?$allocator@UMINIGMAME_PRIZE_LIST@CRainbowRaceMng@@@std@@@std@@IAEXPAUMINIGMAME_PRIZE_LIST@CRainbowRaceMng@@0@Z
_TEXT	SEGMENT PARA USE32 PUBLIC 'CODE'
_TEXT	ENDS
;	COMDAT ?_Xlen@?$vector@UMINIGMAME_PRIZE_LIST@CRainbowRaceMng@@V?$allocator@UMINIGMAME_PRIZE_LIST@CRainbowRaceMng@@@std@@@std@@IBEXXZ
_TEXT	SEGMENT PARA USE32 PUBLIC 'CODE'
_TEXT	ENDS
;	COMDAT ?deallocate@?$allocator@UMINIGMAME_PRIZE_LIST@CRainbowRaceMng@@@std@@QAEXPAUMINIGMAME_PRIZE_LIST@CRainbowRaceMng@@I@Z
_TEXT	SEGMENT PARA USE32 PUBLIC 'CODE'
_TEXT	ENDS
;	COMDAT ?allocate@?$allocator@UMINIGMAME_PRIZE_LIST@CRainbowRaceMng@@@std@@QAEPAUMINIGMAME_PRIZE_LIST@CRainbowRaceMng@@I@Z
_TEXT	SEGMENT PARA USE32 PUBLIC 'CODE'
_TEXT	ENDS
;	COMDAT ?max_size@?$allocator@U?$pair@$$CBKPAVCGuildHouseBase@@@std@@@std@@QBEIXZ
_TEXT	SEGMENT PARA USE32 PUBLIC 'CODE'
_TEXT	ENDS
;	COMDAT ?deallocate@?$allocator@U_Node@?$_Tree_nod@V?$_Tmap_traits@KPAVCGuildHouseBase@@U?$less@K@std@@V?$allocator@U?$pair@$$CBKPAVCGuildHouseBase@@@std@@@3@$0A@@std@@@std@@@std@@QAEXPAU_Node@?$_Tree_nod@V?$_Tmap_traits@KPAVCGuildHouseBase@@U?$less@K@std@@V?$allocator@U?$pair@$$CBKPAVCGuildHouseBase@@@std@@@3@$0A@@std@@@2@I@Z
_TEXT	SEGMENT PARA USE32 PUBLIC 'CODE'
_TEXT	ENDS
;	COMDAT ?allocate@?$allocator@U_Node@?$_Tree_nod@V?$_Tmap_traits@KPAVCGuildHouseBase@@U?$less@K@std@@V?$allocator@U?$pair@$$CBKPAVCGuildHouseBase@@@std@@@3@$0A@@std@@@std@@@std@@QAEPAU_Node@?$_Tree_nod@V?$_Tmap_traits@KPAVCGuildHouseBase@@U?$less@K@std@@V?$allocator@U?$pair@$$CBKPAVCGuildHouseBase@@@std@@@3@$0A@@std@@@2@I@Z
_TEXT	SEGMENT PARA USE32 PUBLIC 'CODE'
_TEXT	ENDS
;	COMDAT ?_Dec@const_iterator@?$_Tree@V?$_Tmap_traits@KPAVCGuildHouseBase@@U?$less@K@std@@V?$allocator@U?$pair@$$CBKPAVCGuildHouseBase@@@std@@@3@$0A@@std@@@std@@QAEXXZ
_TEXT	SEGMENT PARA USE32 PUBLIC 'CODE'
_TEXT	ENDS
;	COMDAT ?_Color@?$_Tree@V?$_Tmap_traits@KKU?$less@K@std@@V?$allocator@U?$pair@$$CBKK@std@@@2@$0A@@std@@@std@@KAAADPAU_Node@?$_Tree_nod@V?$_Tmap_traits@KKU?$less@K@std@@V?$allocator@U?$pair@$$CBKK@std@@@2@$0A@@std@@@2@@Z
_TEXT	SEGMENT PARA USE32 PUBLIC 'CODE'
_TEXT	ENDS
;	COMDAT ?_Isnil@?$_Tree@V?$_Tmap_traits@KKU?$less@K@std@@V?$allocator@U?$pair@$$CBKK@std@@@2@$0A@@std@@@std@@KAAADPAU_Node@?$_Tree_nod@V?$_Tmap_traits@KKU?$less@K@std@@V?$allocator@U?$pair@$$CBKK@std@@@2@$0A@@std@@@2@@Z
_TEXT	SEGMENT PARA USE32 PUBLIC 'CODE'
_TEXT	ENDS
;	COMDAT ?_Left@?$_Tree@V?$_Tmap_traits@KKU?$less@K@std@@V?$allocator@U?$pair@$$CBKK@std@@@2@$0A@@std@@@std@@KAAAPAU_Node@?$_Tree_nod@V?$_Tmap_traits@KKU?$less@K@std@@V?$allocator@U?$pair@$$CBKK@std@@@2@$0A@@std@@@2@PAU342@@Z
_TEXT	SEGMENT PARA USE32 PUBLIC 'CODE'
_TEXT	ENDS
;	COMDAT ?_Parent@?$_Tree@V?$_Tmap_traits@KKU?$less@K@std@@V?$allocator@U?$pair@$$CBKK@std@@@2@$0A@@std@@@std@@KAAAPAU_Node@?$_Tree_nod@V?$_Tmap_traits@KKU?$less@K@std@@V?$allocator@U?$pair@$$CBKK@std@@@2@$0A@@std@@@2@PAU342@@Z
_TEXT	SEGMENT PARA USE32 PUBLIC 'CODE'
_TEXT	ENDS
;	COMDAT ?_Right@?$_Tree@V?$_Tmap_traits@KKU?$less@K@std@@V?$allocator@U?$pair@$$CBKK@std@@@2@$0A@@std@@@std@@KAAAPAU_Node@?$_Tree_nod@V?$_Tmap_traits@KKU?$less@K@std@@V?$allocator@U?$pair@$$CBKK@std@@@2@$0A@@std@@@2@PAU342@@Z
_TEXT	SEGMENT PARA USE32 PUBLIC 'CODE'
_TEXT	ENDS
;	COMDAT ?_Erase@?$_Tree@V?$_Tmap_traits@KKU?$less@K@std@@V?$allocator@U?$pair@$$CBKK@std@@@2@$0A@@std@@@std@@IAEXPAU_Node@?$_Tree_nod@V?$_Tmap_traits@KKU?$less@K@std@@V?$allocator@U?$pair@$$CBKK@std@@@2@$0A@@std@@@2@@Z
_TEXT	SEGMENT PARA USE32 PUBLIC 'CODE'
_TEXT	ENDS
;	COMDAT ?_Lbound@?$_Tree@V?$_Tmap_traits@KKU?$less@K@std@@V?$allocator@U?$pair@$$CBKK@std@@@2@$0A@@std@@@std@@IBEPAU_Node@?$_Tree_nod@V?$_Tmap_traits@KKU?$less@K@std@@V?$allocator@U?$pair@$$CBKK@std@@@2@$0A@@std@@@2@ABK@Z
_TEXT	SEGMENT PARA USE32 PUBLIC 'CODE'
_TEXT	ENDS
;	COMDAT ?_Lmost@?$_Tree@V?$_Tmap_traits@KKU?$less@K@std@@V?$allocator@U?$pair@$$CBKK@std@@@2@$0A@@std@@@std@@IAEAAPAU_Node@?$_Tree_nod@V?$_Tmap_traits@KKU?$less@K@std@@V?$allocator@U?$pair@$$CBKK@std@@@2@$0A@@std@@@2@XZ
_TEXT	SEGMENT PARA USE32 PUBLIC 'CODE'
_TEXT	ENDS
;	COMDAT ?_Lrotate@?$_Tree@V?$_Tmap_traits@KKU?$less@K@std@@V?$allocator@U?$pair@$$CBKK@std@@@2@$0A@@std@@@std@@IAEXPAU_Node@?$_Tree_nod@V?$_Tmap_traits@KKU?$less@K@std@@V?$allocator@U?$pair@$$CBKK@std@@@2@$0A@@std@@@2@@Z
_TEXT	SEGMENT PARA USE32 PUBLIC 'CODE'
_TEXT	ENDS
;	COMDAT ?_Max@?$_Tree@V?$_Tmap_traits@KKU?$less@K@std@@V?$allocator@U?$pair@$$CBKK@std@@@2@$0A@@std@@@std@@KAPAU_Node@?$_Tree_nod@V?$_Tmap_traits@KKU?$less@K@std@@V?$allocator@U?$pair@$$CBKK@std@@@2@$0A@@std@@@2@PAU342@@Z
_TEXT	SEGMENT PARA USE32 PUBLIC 'CODE'
_TEXT	ENDS
;	COMDAT ?_Min@?$_Tree@V?$_Tmap_traits@KKU?$less@K@std@@V?$allocator@U?$pair@$$CBKK@std@@@2@$0A@@std@@@std@@KAPAU_Node@?$_Tree_nod@V?$_Tmap_traits@KKU?$less@K@std@@V?$allocator@U?$pair@$$CBKK@std@@@2@$0A@@std@@@2@PAU342@@Z
_TEXT	SEGMENT PARA USE32 PUBLIC 'CODE'
_TEXT	ENDS
;	COMDAT ?_Rmost@?$_Tree@V?$_Tmap_traits@KKU?$less@K@std@@V?$allocator@U?$pair@$$CBKK@std@@@2@$0A@@std@@@std@@IAEAAPAU_Node@?$_Tree_nod@V?$_Tmap_traits@KKU?$less@K@std@@V?$allocator@U?$pair@$$CBKK@std@@@2@$0A@@std@@@2@XZ
_TEXT	SEGMENT PARA USE32 PUBLIC 'CODE'
_TEXT	ENDS
;	COMDAT ?_Root@?$_Tree@V?$_Tmap_traits@KKU?$less@K@std@@V?$allocator@U?$pair@$$CBKK@std@@@2@$0A@@std@@@std@@IAEAAPAU_Node@?$_Tree_nod@V?$_Tmap_traits@KKU?$less@K@std@@V?$allocator@U?$pair@$$CBKK@std@@@2@$0A@@std@@@2@XZ
_TEXT	SEGMENT PARA USE32 PUBLIC 'CODE'
_TEXT	ENDS
;	COMDAT ?_Rrotate@?$_Tree@V?$_Tmap_traits@KKU?$less@K@std@@V?$allocator@U?$pair@$$CBKK@std@@@2@$0A@@std@@@std@@IAEXPAU_Node@?$_Tree_nod@V?$_Tmap_traits@KKU?$less@K@std@@V?$allocator@U?$pair@$$CBKK@std@@@2@$0A@@std@@@2@@Z
_TEXT	SEGMENT PARA USE32 PUBLIC 'CODE'
_TEXT	ENDS
;	COMDAT ?_Ubound@?$_Tree@V?$_Tmap_traits@KKU?$less@K@std@@V?$allocator@U?$pair@$$CBKK@std@@@2@$0A@@std@@@std@@IBEPAU_Node@?$_Tree_nod@V?$_Tmap_traits@KKU?$less@K@std@@V?$allocator@U?$pair@$$CBKK@std@@@2@$0A@@std@@@2@ABK@Z
_TEXT	SEGMENT PARA USE32 PUBLIC 'CODE'
_TEXT	ENDS
;	COMDAT ?deallocate@?$allocator@U_Node@?$_Tree_nod@V?$_Tmap_traits@KKU?$less@K@std@@V?$allocator@U?$pair@$$CBKK@std@@@2@$0A@@std@@@std@@@std@@QAEXPAU_Node@?$_Tree_nod@V?$_Tmap_traits@KKU?$less@K@std@@V?$allocator@U?$pair@$$CBKK@std@@@2@$0A@@std@@@2@I@Z
_TEXT	SEGMENT PARA USE32 PUBLIC 'CODE'
_TEXT	ENDS
;	COMDAT ?destroy@?$allocator@U_Node@?$_Tree_nod@V?$_Tmap_traits@KKU?$less@K@std@@V?$allocator@U?$pair@$$CBKK@std@@@2@$0A@@std@@@std@@@std@@QAEXPAU_Node@?$_Tree_nod@V?$_Tmap_traits@KKU?$less@K@std@@V?$allocator@U?$pair@$$CBKK@std@@@2@$0A@@std@@@2@@Z
_TEXT	SEGMENT PARA USE32 PUBLIC 'CODE'
_TEXT	ENDS
;	COMDAT ??0iterator@?$_Tree@V?$_Tmap_traits@KKU?$less@K@std@@V?$allocator@U?$pair@$$CBKK@std@@@2@$0A@@std@@@std@@QAE@PAU_Node@?$_Tree_nod@V?$_Tmap_traits@KKU?$less@K@std@@V?$allocator@U?$pair@$$CBKK@std@@@2@$0A@@std@@@2@@Z
_TEXT	SEGMENT PARA USE32 PUBLIC 'CODE'
_TEXT	ENDS
;	COMDAT ??Eiterator@?$_Tree@V?$_Tmap_traits@KKU?$less@K@std@@V?$allocator@U?$pair@$$CBKK@std@@@2@$0A@@std@@@std@@QAEAAV012@XZ
_TEXT	SEGMENT PARA USE32 PUBLIC 'CODE'
_TEXT	ENDS
;	COMDAT ?_Mynode@const_iterator@?$_Tree@V?$_Tmap_traits@KKU?$less@K@std@@V?$allocator@U?$pair@$$CBKK@std@@@2@$0A@@std@@@std@@QBEPAU_Node@?$_Tree_nod@V?$_Tmap_traits@KKU?$less@K@std@@V?$allocator@U?$pair@$$CBKK@std@@@2@$0A@@std@@@3@XZ
_TEXT	SEGMENT PARA USE32 PUBLIC 'CODE'
_TEXT	ENDS
;	COMDAT ?_Isnil@?$_Tree@V?$_Tmap_traits@KPAVCClientSock@@U?$less@K@std@@V?$allocator@U?$pair@$$CBKPAVCClientSock@@@std@@@3@$0A@@std@@@std@@KAAADPAU_Node@?$_Tree_nod@V?$_Tmap_traits@KPAVCClientSock@@U?$less@K@std@@V?$allocator@U?$pair@$$CBKPAVCClientSock@@@std@@@3@$0A@@std@@@2@@Z
_TEXT	SEGMENT PARA USE32 PUBLIC 'CODE'
_TEXT	ENDS
;	COMDAT ?erase@?$_Tree@V?$_Tmap_traits@KPAVCClientSock@@U?$less@K@std@@V?$allocator@U?$pair@$$CBKPAVCClientSock@@@std@@@3@$0A@@std@@@std@@QAE?AViterator@12@V312@@Z
_TEXT	SEGMENT PARA USE32 PUBLIC 'CODE'
_TEXT	ENDS
;	COMDAT ?clear@?$_Tree@V?$_Tmap_traits@KPAVCClientSock@@U?$less@K@std@@V?$allocator@U?$pair@$$CBKPAVCClientSock@@@std@@@3@$0A@@std@@@std@@QAEXXZ
_TEXT	SEGMENT PARA USE32 PUBLIC 'CODE'
_TEXT	ENDS
;	COMDAT ?_Lmost@?$_Tree@V?$_Tmap_traits@KPAVCClientSock@@U?$less@K@std@@V?$allocator@U?$pair@$$CBKPAVCClientSock@@@std@@@3@$0A@@std@@@std@@IAEAAPAU_Node@?$_Tree_nod@V?$_Tmap_traits@KPAVCClientSock@@U?$less@K@std@@V?$allocator@U?$pair@$$CBKPAVCClientSock@@@std@@@3@$0A@@std@@@2@XZ
_TEXT	SEGMENT PARA USE32 PUBLIC 'CODE'
_TEXT	ENDS
;	COMDAT ?_Rmost@?$_Tree@V?$_Tmap_traits@KPAVCClientSock@@U?$less@K@std@@V?$allocator@U?$pair@$$CBKPAVCClientSock@@@std@@@3@$0A@@std@@@std@@IAEAAPAU_Node@?$_Tree_nod@V?$_Tmap_traits@KPAVCClientSock@@U?$less@K@std@@V?$allocator@U?$pair@$$CBKPAVCClientSock@@@std@@@3@$0A@@std@@@2@XZ
_TEXT	SEGMENT PARA USE32 PUBLIC 'CODE'
_TEXT	ENDS
;	COMDAT ?_Root@?$_Tree@V?$_Tmap_traits@KPAVCClientSock@@U?$less@K@std@@V?$allocator@U?$pair@$$CBKPAVCClientSock@@@std@@@3@$0A@@std@@@std@@IAEAAPAU_Node@?$_Tree_nod@V?$_Tmap_traits@KPAVCClientSock@@U?$less@K@std@@V?$allocator@U?$pair@$$CBKPAVCClientSock@@@std@@@3@$0A@@std@@@2@XZ
_TEXT	SEGMENT PARA USE32 PUBLIC 'CODE'
_TEXT	ENDS
;	COMDAT ?_Root@?$_Tree@V?$_Tmap_traits@KPAVCClientSock@@U?$less@K@std@@V?$allocator@U?$pair@$$CBKPAVCClientSock@@@std@@@3@$0A@@std@@@std@@IBEAAPAU_Node@?$_Tree_nod@V?$_Tmap_traits@KPAVCClientSock@@U?$less@K@std@@V?$allocator@U?$pair@$$CBKPAVCClientSock@@@std@@@3@$0A@@std@@@2@XZ
_TEXT	SEGMENT PARA USE32 PUBLIC 'CODE'
_TEXT	ENDS
;	COMDAT ?_Buynode@?$_Tree@V?$_Tmap_traits@KPAVCClientSock@@U?$less@K@std@@V?$allocator@U?$pair@$$CBKPAVCClientSock@@@std@@@3@$0A@@std@@@std@@IAEPAU_Node@?$_Tree_nod@V?$_Tmap_traits@KPAVCClientSock@@U?$less@K@std@@V?$allocator@U?$pair@$$CBKPAVCClientSock@@@std@@@3@$0A@@std@@@2@XZ
_TEXT	SEGMENT PARA USE32 PUBLIC 'CODE'
_TEXT	ENDS
;	COMDAT ??0?$_Tree_ptr@V?$_Tmap_traits@KPAVCClientSock@@U?$less@K@std@@V?$allocator@U?$pair@$$CBKPAVCClientSock@@@std@@@3@$0A@@std@@@std@@IAE@ABU?$less@K@1@V?$allocator@U?$pair@$$CBKPAVCClientSock@@@std@@@1@@Z
_TEXT	SEGMENT PARA USE32 PUBLIC 'CODE'
_TEXT	ENDS
;	COMDAT ??Eiterator@?$_Tree@V?$_Tmap_traits@KPAVCClientSock@@U?$less@K@std@@V?$allocator@U?$pair@$$CBKPAVCClientSock@@@std@@@3@$0A@@std@@@std@@QAE?AV012@H@Z
_TEXT	SEGMENT PARA USE32 PUBLIC 'CODE'
_TEXT	ENDS
;	COMDAT ?_Isnil@?$_Tree@V?$_Tmap_traits@KPAVCClientSockE@@U?$less@K@std@@V?$allocator@U?$pair@$$CBKPAVCClientSockE@@@std@@@3@$0A@@std@@@std@@KAAADPAU_Node@?$_Tree_nod@V?$_Tmap_traits@KPAVCClientSockE@@U?$less@K@std@@V?$allocator@U?$pair@$$CBKPAVCClientSockE@@@std@@@3@$0A@@std@@@2@@Z
_TEXT	SEGMENT PARA USE32 PUBLIC 'CODE'
_TEXT	ENDS
;	COMDAT ?erase@?$_Tree@V?$_Tmap_traits@KPAVCClientSockE@@U?$less@K@std@@V?$allocator@U?$pair@$$CBKPAVCClientSockE@@@std@@@3@$0A@@std@@@std@@QAE?AViterator@12@V312@@Z
_TEXT	SEGMENT PARA USE32 PUBLIC 'CODE'
_TEXT	ENDS
;	COMDAT ?clear@?$_Tree@V?$_Tmap_traits@KPAVCClientSockE@@U?$less@K@std@@V?$allocator@U?$pair@$$CBKPAVCClientSockE@@@std@@@3@$0A@@std@@@std@@QAEXXZ
_TEXT	SEGMENT PARA USE32 PUBLIC 'CODE'
_TEXT	ENDS
;	COMDAT ?_Lmost@?$_Tree@V?$_Tmap_traits@KPAVCClientSockE@@U?$less@K@std@@V?$allocator@U?$pair@$$CBKPAVCClientSockE@@@std@@@3@$0A@@std@@@std@@IAEAAPAU_Node@?$_Tree_nod@V?$_Tmap_traits@KPAVCClientSockE@@U?$less@K@std@@V?$allocator@U?$pair@$$CBKPAVCClientSockE@@@std@@@3@$0A@@std@@@2@XZ
_TEXT	SEGMENT PARA USE32 PUBLIC 'CODE'
_TEXT	ENDS
;	COMDAT ?_Rmost@?$_Tree@V?$_Tmap_traits@KPAVCClientSockE@@U?$less@K@std@@V?$allocator@U?$pair@$$CBKPAVCClientSockE@@@std@@@3@$0A@@std@@@std@@IAEAAPAU_Node@?$_Tree_nod@V?$_Tmap_traits@KPAVCClientSockE@@U?$less@K@std@@V?$allocator@U?$pair@$$CBKPAVCClientSockE@@@std@@@3@$0A@@std@@@2@XZ
_TEXT	SEGMENT PARA USE32 PUBLIC 'CODE'
_TEXT	ENDS
;	COMDAT ?_Root@?$_Tree@V?$_Tmap_traits@KPAVCClientSockE@@U?$less@K@std@@V?$allocator@U?$pair@$$CBKPAVCClientSockE@@@std@@@3@$0A@@std@@@std@@IAEAAPAU_Node@?$_Tree_nod@V?$_Tmap_traits@KPAVCClientSockE@@U?$less@K@std@@V?$allocator@U?$pair@$$CBKPAVCClientSockE@@@std@@@3@$0A@@std@@@2@XZ
_TEXT	SEGMENT PARA USE32 PUBLIC 'CODE'
_TEXT	ENDS
;	COMDAT ?_Root@?$_Tree@V?$_Tmap_traits@KPAVCClientSockE@@U?$less@K@std@@V?$allocator@U?$pair@$$CBKPAVCClientSockE@@@std@@@3@$0A@@std@@@std@@IBEAAPAU_Node@?$_Tree_nod@V?$_Tmap_traits@KPAVCClientSockE@@U?$less@K@std@@V?$allocator@U?$pair@$$CBKPAVCClientSockE@@@std@@@3@$0A@@std@@@2@XZ
_TEXT	SEGMENT PARA USE32 PUBLIC 'CODE'
_TEXT	ENDS
;	COMDAT ?_Buynode@?$_Tree@V?$_Tmap_traits@KPAVCClientSockE@@U?$less@K@std@@V?$allocator@U?$pair@$$CBKPAVCClientSockE@@@std@@@3@$0A@@std@@@std@@IAEPAU_Node@?$_Tree_nod@V?$_Tmap_traits@KPAVCClientSockE@@U?$less@K@std@@V?$allocator@U?$pair@$$CBKPAVCClientSockE@@@std@@@3@$0A@@std@@@2@XZ
_TEXT	SEGMENT PARA USE32 PUBLIC 'CODE'
_TEXT	ENDS
;	COMDAT ??0?$_Tree_ptr@V?$_Tmap_traits@KPAVCClientSockE@@U?$less@K@std@@V?$allocator@U?$pair@$$CBKPAVCClientSockE@@@std@@@3@$0A@@std@@@std@@IAE@ABU?$less@K@1@V?$allocator@U?$pair@$$CBKPAVCClientSockE@@@std@@@1@@Z
_TEXT	SEGMENT PARA USE32 PUBLIC 'CODE'
_TEXT	ENDS
;	COMDAT ??Eiterator@?$_Tree@V?$_Tmap_traits@KPAVCClientSockE@@U?$less@K@std@@V?$allocator@U?$pair@$$CBKPAVCClientSockE@@@std@@@3@$0A@@std@@@std@@QAE?AV012@H@Z
_TEXT	SEGMENT PARA USE32 PUBLIC 'CODE'
_TEXT	ENDS
;	COMDAT ?_Isnil@?$_Tree@V?$_Tmap_traits@KP8CDPSrvr@@AEXAAVCAr@@KKPAEK@ZU?$less@K@std@@V?$allocator@U?$pair@$$CBKP8CDPSrvr@@AEXAAVCAr@@KKPAEK@Z@std@@@4@$0A@@std@@@std@@KAAADPAU_Node@?$_Tree_nod@V?$_Tmap_traits@KP8CDPSrvr@@AEXAAVCAr@@KKPAEK@ZU?$less@K@std@@V?$allocator@U?$pair@$$CBKP8CDPSrvr@@AEXAAVCAr@@KKPAEK@Z@std@@@4@$0A@@std@@@2@@Z
_TEXT	SEGMENT PARA USE32 PUBLIC 'CODE'
_TEXT	ENDS
;	COMDAT ?_Left@?$_Tree@V?$_Tmap_traits@KP8CDPSrvr@@AEXAAVCAr@@KKPAEK@ZU?$less@K@std@@V?$allocator@U?$pair@$$CBKP8CDPSrvr@@AEXAAVCAr@@KKPAEK@Z@std@@@4@$0A@@std@@@std@@KAAAPAU_Node@?$_Tree_nod@V?$_Tmap_traits@KP8CDPSrvr@@AEXAAVCAr@@KKPAEK@ZU?$less@K@std@@V?$allocator@U?$pair@$$CBKP8CDPSrvr@@AEXAAVCAr@@KKPAEK@Z@std@@@4@$0A@@std@@@2@PAU342@@Z
_TEXT	SEGMENT PARA USE32 PUBLIC 'CODE'
_TEXT	ENDS
;	COMDAT ?_Right@?$_Tree@V?$_Tmap_traits@KP8CDPSrvr@@AEXAAVCAr@@KKPAEK@ZU?$less@K@std@@V?$allocator@U?$pair@$$CBKP8CDPSrvr@@AEXAAVCAr@@KKPAEK@Z@std@@@4@$0A@@std@@@std@@KAAAPAU_Node@?$_Tree_nod@V?$_Tmap_traits@KP8CDPSrvr@@AEXAAVCAr@@KKPAEK@ZU?$less@K@std@@V?$allocator@U?$pair@$$CBKP8CDPSrvr@@AEXAAVCAr@@KKPAEK@Z@std@@@4@$0A@@std@@@2@PAU342@@Z
_TEXT	SEGMENT PARA USE32 PUBLIC 'CODE'
_TEXT	ENDS
;	COMDAT ?_Root@?$_Tree@V?$_Tmap_traits@KP8CDPSrvr@@AEXAAVCAr@@KKPAEK@ZU?$less@K@std@@V?$allocator@U?$pair@$$CBKP8CDPSrvr@@AEXAAVCAr@@KKPAEK@Z@std@@@4@$0A@@std@@@std@@IBEAAPAU_Node@?$_Tree_nod@V?$_Tmap_traits@KP8CDPSrvr@@AEXAAVCAr@@KKPAEK@ZU?$less@K@std@@V?$allocator@U?$pair@$$CBKP8CDPSrvr@@AEXAAVCAr@@KKPAEK@Z@std@@@4@$0A@@std@@@2@XZ
_TEXT	SEGMENT PARA USE32 PUBLIC 'CODE'
_TEXT	ENDS
;	COMDAT ?_Isnil@?$_Tree@V?$_Tmap_traits@KP8CDPCoreClient@@AEXAAVCAr@@KKK@ZU?$less@K@std@@V?$allocator@U?$pair@$$CBKP8CDPCoreClient@@AEXAAVCAr@@KKK@Z@std@@@4@$0A@@std@@@std@@KAAADPAU_Node@?$_Tree_nod@V?$_Tmap_traits@KP8CDPCoreClient@@AEXAAVCAr@@KKK@ZU?$less@K@std@@V?$allocator@U?$pair@$$CBKP8CDPCoreClient@@AEXAAVCAr@@KKK@Z@std@@@4@$0A@@std@@@2@@Z
_TEXT	SEGMENT PARA USE32 PUBLIC 'CODE'
_TEXT	ENDS
;	COMDAT ?_Left@?$_Tree@V?$_Tmap_traits@KP8CDPCoreClient@@AEXAAVCAr@@KKK@ZU?$less@K@std@@V?$allocator@U?$pair@$$CBKP8CDPCoreClient@@AEXAAVCAr@@KKK@Z@std@@@4@$0A@@std@@@std@@KAAAPAU_Node@?$_Tree_nod@V?$_Tmap_traits@KP8CDPCoreClient@@AEXAAVCAr@@KKK@ZU?$less@K@std@@V?$allocator@U?$pair@$$CBKP8CDPCoreClient@@AEXAAVCAr@@KKK@Z@std@@@4@$0A@@std@@@2@PAU342@@Z
_TEXT	SEGMENT PARA USE32 PUBLIC 'CODE'
_TEXT	ENDS
;	COMDAT ?_Right@?$_Tree@V?$_Tmap_traits@KP8CDPCoreClient@@AEXAAVCAr@@KKK@ZU?$less@K@std@@V?$allocator@U?$pair@$$CBKP8CDPCoreClient@@AEXAAVCAr@@KKK@Z@std@@@4@$0A@@std@@@std@@KAAAPAU_Node@?$_Tree_nod@V?$_Tmap_traits@KP8CDPCoreClient@@AEXAAVCAr@@KKK@ZU?$less@K@std@@V?$allocator@U?$pair@$$CBKP8CDPCoreClient@@AEXAAVCAr@@KKK@Z@std@@@4@$0A@@std@@@2@PAU342@@Z
_TEXT	SEGMENT PARA USE32 PUBLIC 'CODE'
_TEXT	ENDS
;	COMDAT ?_Root@?$_Tree@V?$_Tmap_traits@KP8CDPCoreClient@@AEXAAVCAr@@KKK@ZU?$less@K@std@@V?$allocator@U?$pair@$$CBKP8CDPCoreClient@@AEXAAVCAr@@KKK@Z@std@@@4@$0A@@std@@@std@@IBEAAPAU_Node@?$_Tree_nod@V?$_Tmap_traits@KP8CDPCoreClient@@AEXAAVCAr@@KKK@ZU?$less@K@std@@V?$allocator@U?$pair@$$CBKP8CDPCoreClient@@AEXAAVCAr@@KKK@Z@std@@@4@$0A@@std@@@2@XZ
_TEXT	SEGMENT PARA USE32 PUBLIC 'CODE'
_TEXT	ENDS
;	COMDAT ?_Isnil@?$_Tree@V?$_Tmap_traits@KP8CDPDatabaseClient@@AEXAAVCAr@@KK@ZU?$less@K@std@@V?$allocator@U?$pair@$$CBKP8CDPDatabaseClient@@AEXAAVCAr@@KK@Z@std@@@4@$0A@@std@@@std@@KAAADPAU_Node@?$_Tree_nod@V?$_Tmap_traits@KP8CDPDatabaseClient@@AEXAAVCAr@@KK@ZU?$less@K@std@@V?$allocator@U?$pair@$$CBKP8CDPDatabaseClient@@AEXAAVCAr@@KK@Z@std@@@4@$0A@@std@@@2@@Z
_TEXT	SEGMENT PARA USE32 PUBLIC 'CODE'
_TEXT	ENDS
;	COMDAT ?_Left@?$_Tree@V?$_Tmap_traits@KP8CDPDatabaseClient@@AEXAAVCAr@@KK@ZU?$less@K@std@@V?$allocator@U?$pair@$$CBKP8CDPDatabaseClient@@AEXAAVCAr@@KK@Z@std@@@4@$0A@@std@@@std@@KAAAPAU_Node@?$_Tree_nod@V?$_Tmap_traits@KP8CDPDatabaseClient@@AEXAAVCAr@@KK@ZU?$less@K@std@@V?$allocator@U?$pair@$$CBKP8CDPDatabaseClient@@AEXAAVCAr@@KK@Z@std@@@4@$0A@@std@@@2@PAU342@@Z
_TEXT	SEGMENT PARA USE32 PUBLIC 'CODE'
_TEXT	ENDS
;	COMDAT ?_Right@?$_Tree@V?$_Tmap_traits@KP8CDPDatabaseClient@@AEXAAVCAr@@KK@ZU?$less@K@std@@V?$allocator@U?$pair@$$CBKP8CDPDatabaseClient@@AEXAAVCAr@@KK@Z@std@@@4@$0A@@std@@@std@@KAAAPAU_Node@?$_Tree_nod@V?$_Tmap_traits@KP8CDPDatabaseClient@@AEXAAVCAr@@KK@ZU?$less@K@std@@V?$allocator@U?$pair@$$CBKP8CDPDatabaseClient@@AEXAAVCAr@@KK@Z@std@@@4@$0A@@std@@@2@PAU342@@Z
_TEXT	SEGMENT PARA USE32 PUBLIC 'CODE'
_TEXT	ENDS
;	COMDAT ?_Root@?$_Tree@V?$_Tmap_traits@KP8CDPDatabaseClient@@AEXAAVCAr@@KK@ZU?$less@K@std@@V?$allocator@U?$pair@$$CBKP8CDPDatabaseClient@@AEXAAVCAr@@KK@Z@std@@@4@$0A@@std@@@std@@IBEAAPAU_Node@?$_Tree_nod@V?$_Tmap_traits@KP8CDPDatabaseClient@@AEXAAVCAr@@KK@ZU?$less@K@std@@V?$allocator@U?$pair@$$CBKP8CDPDatabaseClient@@AEXAAVCAr@@KK@Z@std@@@4@$0A@@std@@@2@XZ
_TEXT	SEGMENT PARA USE32 PUBLIC 'CODE'
_TEXT	ENDS
;	COMDAT ??0const_iterator@?$vector@PAU__JOINPLAYER@CGuildCombat@@V?$allocator@PAU__JOINPLAYER@CGuildCombat@@@std@@@std@@QAE@PAPAU__JOINPLAYER@CGuildCombat@@@Z
_TEXT	SEGMENT PARA USE32 PUBLIC 'CODE'
_TEXT	ENDS
;	COMDAT ??0const_iterator@?$vector@V?$basic_string@DU?$char_traits@D@std@@V?$allocator@D@2@@std@@V?$allocator@V?$basic_string@DU?$char_traits@D@std@@V?$allocator@D@2@@std@@@2@@std@@QAE@PAV?$basic_string@DU?$char_traits@D@std@@V?$allocator@D@2@@2@@Z
_TEXT	SEGMENT PARA USE32 PUBLIC 'CODE'
_TEXT	ENDS
;	COMDAT ??Gconst_iterator@?$vector@V?$basic_string@DU?$char_traits@D@std@@V?$allocator@D@2@@std@@V?$allocator@V?$basic_string@DU?$char_traits@D@std@@V?$allocator@D@2@@std@@@2@@std@@QBEHABV012@@Z
_TEXT	SEGMENT PARA USE32 PUBLIC 'CODE'
_TEXT	ENDS
;	COMDAT ??Yiterator@?$vector@UMINIGMAME_PRIZE_LIST@CRainbowRaceMng@@V?$allocator@UMINIGMAME_PRIZE_LIST@CRainbowRaceMng@@@std@@@std@@QAEAAV012@H@Z
_TEXT	SEGMENT PARA USE32 PUBLIC 'CODE'
_TEXT	ENDS
;	COMDAT ??0const_iterator@?$vector@UMINIGMAME_PRIZE_LIST@CRainbowRaceMng@@V?$allocator@UMINIGMAME_PRIZE_LIST@CRainbowRaceMng@@@std@@@std@@QAE@PAUMINIGMAME_PRIZE_LIST@CRainbowRaceMng@@@Z
_TEXT	SEGMENT PARA USE32 PUBLIC 'CODE'
_TEXT	ENDS
;	COMDAT ??Gconst_iterator@?$vector@UMINIGMAME_PRIZE_LIST@CRainbowRaceMng@@V?$allocator@UMINIGMAME_PRIZE_LIST@CRainbowRaceMng@@@std@@@std@@QBEHABV012@@Z
_TEXT	SEGMENT PARA USE32 PUBLIC 'CODE'
_TEXT	ENDS
;	COMDAT ??0const_iterator@?$vector@PAVCMiniGameBase@@V?$allocator@PAVCMiniGameBase@@@std@@@std@@QAE@PAPAVCMiniGameBase@@@Z
_TEXT	SEGMENT PARA USE32 PUBLIC 'CODE'
_TEXT	ENDS
;	COMDAT ??0const_iterator@?$vector@UGuildHouse_Furniture_Info@CGuildHouseBase@@V?$allocator@UGuildHouse_Furniture_Info@CGuildHouseBase@@@std@@@std@@QAE@PAUGuildHouse_Furniture_Info@CGuildHouseBase@@@Z
_TEXT	SEGMENT PARA USE32 PUBLIC 'CODE'
_TEXT	ENDS
;	COMDAT ??0const_iterator@?$vector@U_SINGLE_DST@@V?$allocator@U_SINGLE_DST@@@std@@@std@@QAE@PAU_SINGLE_DST@@@Z
_TEXT	SEGMENT PARA USE32 PUBLIC 'CODE'
_TEXT	ENDS
;	COMDAT ??0_Node@?$_Tree_nod@V?$_Tmap_traits@KPAVCGuildHouseBase@@U?$less@K@std@@V?$allocator@U?$pair@$$CBKPAVCGuildHouseBase@@@std@@@3@$0A@@std@@@std@@QAE@PAU012@00ABU?$pair@$$CBKPAVCGuildHouseBase@@@2@D@Z
_TEXT	SEGMENT PARA USE32 PUBLIC 'CODE'
_TEXT	ENDS
;	COMDAT ?_Key@?$_Tree@V?$_Tmap_traits@KU_Friend@@U?$less@K@std@@V?$allocator@U?$pair@$$CBKU_Friend@@@std@@@3@$0A@@std@@@std@@KAABKPAU_Node@?$_Tree_nod@V?$_Tmap_traits@KU_Friend@@U?$less@K@std@@V?$allocator@U?$pair@$$CBKU_Friend@@@std@@@3@$0A@@std@@@2@@Z
_TEXT	SEGMENT PARA USE32 PUBLIC 'CODE'
_TEXT	ENDS
;	COMDAT ?_Root@?$_Tree@V?$_Tmap_traits@KU_Friend@@U?$less@K@std@@V?$allocator@U?$pair@$$CBKU_Friend@@@std@@@3@$0A@@std@@@std@@IBEAAPAU_Node@?$_Tree_nod@V?$_Tmap_traits@KU_Friend@@U?$less@K@std@@V?$allocator@U?$pair@$$CBKU_Friend@@@std@@@3@$0A@@std@@@2@XZ
_TEXT	SEGMENT PARA USE32 PUBLIC 'CODE'
_TEXT	ENDS
;	COMDAT ??0const_iterator@?$_Tree@V?$_Tmap_traits@KU_Friend@@U?$less@K@std@@V?$allocator@U?$pair@$$CBKU_Friend@@@std@@@3@$0A@@std@@@std@@QAE@PAU_Node@?$_Tree_nod@V?$_Tmap_traits@KU_Friend@@U?$less@K@std@@V?$allocator@U?$pair@$$CBKU_Friend@@@std@@@3@$0A@@std@@@2@@Z
_TEXT	SEGMENT PARA USE32 PUBLIC 'CODE'
_TEXT	ENDS
;	COMDAT ??Econst_iterator@?$_Tree@V?$_Tmap_traits@KU_Friend@@U?$less@K@std@@V?$allocator@U?$pair@$$CBKU_Friend@@@std@@@3@$0A@@std@@@std@@QAEAAV012@XZ
_TEXT	SEGMENT PARA USE32 PUBLIC 'CODE'
_TEXT	ENDS
;	COMDAT ?max_size@?$allocator@UMINIGMAME_PRIZE_LIST@CRainbowRaceMng@@@std@@QBEIXZ
_TEXT	SEGMENT PARA USE32 PUBLIC 'CODE'
_TEXT	ENDS
;	COMDAT ?_Max@?$_Tree@V?$_Tmap_traits@KPAVCGuildHouseBase@@U?$less@K@std@@V?$allocator@U?$pair@$$CBKPAVCGuildHouseBase@@@std@@@3@$0A@@std@@@std@@KAPAU_Node@?$_Tree_nod@V?$_Tmap_traits@KPAVCGuildHouseBase@@U?$less@K@std@@V?$allocator@U?$pair@$$CBKPAVCGuildHouseBase@@@std@@@3@$0A@@std@@@2@PAU342@@Z
_TEXT	SEGMENT PARA USE32 PUBLIC 'CODE'
_TEXT	ENDS
;	COMDAT ?_Key@?$_Tree@V?$_Tmap_traits@KKU?$less@K@std@@V?$allocator@U?$pair@$$CBKK@std@@@2@$0A@@std@@@std@@KAABKPAU_Node@?$_Tree_nod@V?$_Tmap_traits@KKU?$less@K@std@@V?$allocator@U?$pair@$$CBKK@std@@@2@$0A@@std@@@2@@Z
_TEXT	SEGMENT PARA USE32 PUBLIC 'CODE'
_TEXT	ENDS
;	COMDAT ?_Root@?$_Tree@V?$_Tmap_traits@KKU?$less@K@std@@V?$allocator@U?$pair@$$CBKK@std@@@2@$0A@@std@@@std@@IBEAAPAU_Node@?$_Tree_nod@V?$_Tmap_traits@KKU?$less@K@std@@V?$allocator@U?$pair@$$CBKK@std@@@2@$0A@@std@@@2@XZ
_TEXT	SEGMENT PARA USE32 PUBLIC 'CODE'
_TEXT	ENDS
;	COMDAT ??0const_iterator@?$_Tree@V?$_Tmap_traits@KKU?$less@K@std@@V?$allocator@U?$pair@$$CBKK@std@@@2@$0A@@std@@@std@@QAE@PAU_Node@?$_Tree_nod@V?$_Tmap_traits@KKU?$less@K@std@@V?$allocator@U?$pair@$$CBKK@std@@@2@$0A@@std@@@2@@Z
_TEXT	SEGMENT PARA USE32 PUBLIC 'CODE'
_TEXT	ENDS
;	COMDAT ??Econst_iterator@?$_Tree@V?$_Tmap_traits@KKU?$less@K@std@@V?$allocator@U?$pair@$$CBKK@std@@@2@$0A@@std@@@std@@QAEAAV012@XZ
_TEXT	SEGMENT PARA USE32 PUBLIC 'CODE'
_TEXT	ENDS
;	COMDAT ?_Color@?$_Tree@V?$_Tmap_traits@KPAVCClientSock@@U?$less@K@std@@V?$allocator@U?$pair@$$CBKPAVCClientSock@@@std@@@3@$0A@@std@@@std@@KAAADPAU_Node@?$_Tree_nod@V?$_Tmap_traits@KPAVCClientSock@@U?$less@K@std@@V?$allocator@U?$pair@$$CBKPAVCClientSock@@@std@@@3@$0A@@std@@@2@@Z
_TEXT	SEGMENT PARA USE32 PUBLIC 'CODE'
_TEXT	ENDS
;	COMDAT ?_Erase@?$_Tree@V?$_Tmap_traits@KPAVCClientSock@@U?$less@K@std@@V?$allocator@U?$pair@$$CBKPAVCClientSock@@@std@@@3@$0A@@std@@@std@@IAEXPAU_Node@?$_Tree_nod@V?$_Tmap_traits@KPAVCClientSock@@U?$less@K@std@@V?$allocator@U?$pair@$$CBKPAVCClientSock@@@std@@@3@$0A@@std@@@2@@Z
_TEXT	SEGMENT PARA USE32 PUBLIC 'CODE'
_TEXT	ENDS
;	COMDAT ?_Lrotate@?$_Tree@V?$_Tmap_traits@KPAVCClientSock@@U?$less@K@std@@V?$allocator@U?$pair@$$CBKPAVCClientSock@@@std@@@3@$0A@@std@@@std@@IAEXPAU_Node@?$_Tree_nod@V?$_Tmap_traits@KPAVCClientSock@@U?$less@K@std@@V?$allocator@U?$pair@$$CBKPAVCClientSock@@@std@@@3@$0A@@std@@@2@@Z
_TEXT	SEGMENT PARA USE32 PUBLIC 'CODE'
_TEXT	ENDS
;	COMDAT ?_Max@?$_Tree@V?$_Tmap_traits@KPAVCClientSock@@U?$less@K@std@@V?$allocator@U?$pair@$$CBKPAVCClientSock@@@std@@@3@$0A@@std@@@std@@KAPAU_Node@?$_Tree_nod@V?$_Tmap_traits@KPAVCClientSock@@U?$less@K@std@@V?$allocator@U?$pair@$$CBKPAVCClientSock@@@std@@@3@$0A@@std@@@2@PAU342@@Z
_TEXT	SEGMENT PARA USE32 PUBLIC 'CODE'
_TEXT	ENDS
;	COMDAT ?_Min@?$_Tree@V?$_Tmap_traits@KPAVCClientSock@@U?$less@K@std@@V?$allocator@U?$pair@$$CBKPAVCClientSock@@@std@@@3@$0A@@std@@@std@@KAPAU_Node@?$_Tree_nod@V?$_Tmap_traits@KPAVCClientSock@@U?$less@K@std@@V?$allocator@U?$pair@$$CBKPAVCClientSock@@@std@@@3@$0A@@std@@@2@PAU342@@Z
_TEXT	SEGMENT PARA USE32 PUBLIC 'CODE'
_TEXT	ENDS
;	COMDAT ?_Rrotate@?$_Tree@V?$_Tmap_traits@KPAVCClientSock@@U?$less@K@std@@V?$allocator@U?$pair@$$CBKPAVCClientSock@@@std@@@3@$0A@@std@@@std@@IAEXPAU_Node@?$_Tree_nod@V?$_Tmap_traits@KPAVCClientSock@@U?$less@K@std@@V?$allocator@U?$pair@$$CBKPAVCClientSock@@@std@@@3@$0A@@std@@@2@@Z
_TEXT	SEGMENT PARA USE32 PUBLIC 'CODE'
_TEXT	ENDS
;	COMDAT ??0?$_Tree_nod@V?$_Tmap_traits@KPAVCClientSock@@U?$less@K@std@@V?$allocator@U?$pair@$$CBKPAVCClientSock@@@std@@@3@$0A@@std@@@std@@IAE@ABU?$less@K@1@V?$allocator@U?$pair@$$CBKPAVCClientSock@@@std@@@1@@Z
_TEXT	SEGMENT PARA USE32 PUBLIC 'CODE'
_TEXT	ENDS
;	COMDAT ?allocate@?$allocator@U_Node@?$_Tree_nod@V?$_Tmap_traits@KPAVCClientSock@@U?$less@K@std@@V?$allocator@U?$pair@$$CBKPAVCClientSock@@@std@@@3@$0A@@std@@@std@@@std@@QAEPAU_Node@?$_Tree_nod@V?$_Tmap_traits@KPAVCClientSock@@U?$less@K@std@@V?$allocator@U?$pair@$$CBKPAVCClientSock@@@std@@@3@$0A@@std@@@2@I@Z
_TEXT	SEGMENT PARA USE32 PUBLIC 'CODE'
_TEXT	ENDS
;	COMDAT ?destroy@?$allocator@U_Node@?$_Tree_nod@V?$_Tmap_traits@KPAVCClientSock@@U?$less@K@std@@V?$allocator@U?$pair@$$CBKPAVCClientSock@@@std@@@3@$0A@@std@@@std@@@std@@QAEXPAU_Node@?$_Tree_nod@V?$_Tmap_traits@KPAVCClientSock@@U?$less@K@std@@V?$allocator@U?$pair@$$CBKPAVCClientSock@@@std@@@3@$0A@@std@@@2@@Z
_TEXT	SEGMENT PARA USE32 PUBLIC 'CODE'
_TEXT	ENDS
;	COMDAT ?construct@?$allocator@PAU_Node@?$_Tree_nod@V?$_Tmap_traits@KPAVCClientSock@@U?$less@K@std@@V?$allocator@U?$pair@$$CBKPAVCClientSock@@@std@@@3@$0A@@std@@@std@@@std@@QAEXPAPAU_Node@?$_Tree_nod@V?$_Tmap_traits@KPAVCClientSock@@U?$less@K@std@@V?$allocator@U?$pair@$$CBKPAVCClientSock@@@std@@@3@$0A@@std@@@2@ABQAU342@@Z
_TEXT	SEGMENT PARA USE32 PUBLIC 'CODE'
_TEXT	ENDS
;	COMDAT ??Eiterator@?$_Tree@V?$_Tmap_traits@KPAVCClientSock@@U?$less@K@std@@V?$allocator@U?$pair@$$CBKPAVCClientSock@@@std@@@3@$0A@@std@@@std@@QAEAAV012@XZ
_TEXT	SEGMENT PARA USE32 PUBLIC 'CODE'
_TEXT	ENDS
;	COMDAT ?_Color@?$_Tree@V?$_Tmap_traits@KPAVCClientSockE@@U?$less@K@std@@V?$allocator@U?$pair@$$CBKPAVCClientSockE@@@std@@@3@$0A@@std@@@std@@KAAADPAU_Node@?$_Tree_nod@V?$_Tmap_traits@KPAVCClientSockE@@U?$less@K@std@@V?$allocator@U?$pair@$$CBKPAVCClientSockE@@@std@@@3@$0A@@std@@@2@@Z
_TEXT	SEGMENT PARA USE32 PUBLIC 'CODE'
_TEXT	ENDS
;	COMDAT ?_Erase@?$_Tree@V?$_Tmap_traits@KPAVCClientSockE@@U?$less@K@std@@V?$allocator@U?$pair@$$CBKPAVCClientSockE@@@std@@@3@$0A@@std@@@std@@IAEXPAU_Node@?$_Tree_nod@V?$_Tmap_traits@KPAVCClientSockE@@U?$less@K@std@@V?$allocator@U?$pair@$$CBKPAVCClientSockE@@@std@@@3@$0A@@std@@@2@@Z
_TEXT	SEGMENT PARA USE32 PUBLIC 'CODE'
_TEXT	ENDS
;	COMDAT ?_Lrotate@?$_Tree@V?$_Tmap_traits@KPAVCClientSockE@@U?$less@K@std@@V?$allocator@U?$pair@$$CBKPAVCClientSockE@@@std@@@3@$0A@@std@@@std@@IAEXPAU_Node@?$_Tree_nod@V?$_Tmap_traits@KPAVCClientSockE@@U?$less@K@std@@V?$allocator@U?$pair@$$CBKPAVCClientSockE@@@std@@@3@$0A@@std@@@2@@Z
_TEXT	SEGMENT PARA USE32 PUBLIC 'CODE'
_TEXT	ENDS
;	COMDAT ?_Max@?$_Tree@V?$_Tmap_traits@KPAVCClientSockE@@U?$less@K@std@@V?$allocator@U?$pair@$$CBKPAVCClientSockE@@@std@@@3@$0A@@std@@@std@@KAPAU_Node@?$_Tree_nod@V?$_Tmap_traits@KPAVCClientSockE@@U?$less@K@std@@V?$allocator@U?$pair@$$CBKPAVCClientSockE@@@std@@@3@$0A@@std@@@2@PAU342@@Z
_TEXT	SEGMENT PARA USE32 PUBLIC 'CODE'
_TEXT	ENDS
;	COMDAT ?_Min@?$_Tree@V?$_Tmap_traits@KPAVCClientSockE@@U?$less@K@std@@V?$allocator@U?$pair@$$CBKPAVCClientSockE@@@std@@@3@$0A@@std@@@std@@KAPAU_Node@?$_Tree_nod@V?$_Tmap_traits@KPAVCClientSockE@@U?$less@K@std@@V?$allocator@U?$pair@$$CBKPAVCClientSockE@@@std@@@3@$0A@@std@@@2@PAU342@@Z
_TEXT	SEGMENT PARA USE32 PUBLIC 'CODE'
_TEXT	ENDS
;	COMDAT ?_Rrotate@?$_Tree@V?$_Tmap_traits@KPAVCClientSockE@@U?$less@K@std@@V?$allocator@U?$pair@$$CBKPAVCClientSockE@@@std@@@3@$0A@@std@@@std@@IAEXPAU_Node@?$_Tree_nod@V?$_Tmap_traits@KPAVCClientSockE@@U?$less@K@std@@V?$allocator@U?$pair@$$CBKPAVCClientSockE@@@std@@@3@$0A@@std@@@2@@Z
_TEXT	SEGMENT PARA USE32 PUBLIC 'CODE'
_TEXT	ENDS
;	COMDAT ??0?$_Tree_nod@V?$_Tmap_traits@KPAVCClientSockE@@U?$less@K@std@@V?$allocator@U?$pair@$$CBKPAVCClientSockE@@@std@@@3@$0A@@std@@@std@@IAE@ABU?$less@K@1@V?$allocator@U?$pair@$$CBKPAVCClientSockE@@@std@@@1@@Z
_TEXT	SEGMENT PARA USE32 PUBLIC 'CODE'
_TEXT	ENDS
;	COMDAT ?allocate@?$allocator@U_Node@?$_Tree_nod@V?$_Tmap_traits@KPAVCClientSockE@@U?$less@K@std@@V?$allocator@U?$pair@$$CBKPAVCClientSockE@@@std@@@3@$0A@@std@@@std@@@std@@QAEPAU_Node@?$_Tree_nod@V?$_Tmap_traits@KPAVCClientSockE@@U?$less@K@std@@V?$allocator@U?$pair@$$CBKPAVCClientSockE@@@std@@@3@$0A@@std@@@2@I@Z
_TEXT	SEGMENT PARA USE32 PUBLIC 'CODE'
_TEXT	ENDS
;	COMDAT ?destroy@?$allocator@U_Node@?$_Tree_nod@V?$_Tmap_traits@KPAVCClientSockE@@U?$less@K@std@@V?$allocator@U?$pair@$$CBKPAVCClientSockE@@@std@@@3@$0A@@std@@@std@@@std@@QAEXPAU_Node@?$_Tree_nod@V?$_Tmap_traits@KPAVCClientSockE@@U?$less@K@std@@V?$allocator@U?$pair@$$CBKPAVCClientSockE@@@std@@@3@$0A@@std@@@2@@Z
_TEXT	SEGMENT PARA USE32 PUBLIC 'CODE'
_TEXT	ENDS
;	COMDAT ?construct@?$allocator@PAU_Node@?$_Tree_nod@V?$_Tmap_traits@KPAVCClientSockE@@U?$less@K@std@@V?$allocator@U?$pair@$$CBKPAVCClientSockE@@@std@@@3@$0A@@std@@@std@@@std@@QAEXPAPAU_Node@?$_Tree_nod@V?$_Tmap_traits@KPAVCClientSockE@@U?$less@K@std@@V?$allocator@U?$pair@$$CBKPAVCClientSockE@@@std@@@3@$0A@@std@@@2@ABQAU342@@Z
_TEXT	SEGMENT PARA USE32 PUBLIC 'CODE'
_TEXT	ENDS
;	COMDAT ??Eiterator@?$_Tree@V?$_Tmap_traits@KPAVCClientSockE@@U?$less@K@std@@V?$allocator@U?$pair@$$CBKPAVCClientSockE@@@std@@@3@$0A@@std@@@std@@QAEAAV012@XZ
_TEXT	SEGMENT PARA USE32 PUBLIC 'CODE'
_TEXT	ENDS
;	COMDAT ?_Parent@?$_Tree@V?$_Tmap_traits@KP8CDPSrvr@@AEXAAVCAr@@KKPAEK@ZU?$less@K@std@@V?$allocator@U?$pair@$$CBKP8CDPSrvr@@AEXAAVCAr@@KKPAEK@Z@std@@@4@$0A@@std@@@std@@KAAAPAU_Node@?$_Tree_nod@V?$_Tmap_traits@KP8CDPSrvr@@AEXAAVCAr@@KKPAEK@ZU?$less@K@std@@V?$allocator@U?$pair@$$CBKP8CDPSrvr@@AEXAAVCAr@@KKPAEK@Z@std@@@4@$0A@@std@@@2@PAU342@@Z
_TEXT	SEGMENT PARA USE32 PUBLIC 'CODE'
_TEXT	ENDS
;	COMDAT ?_Parent@?$_Tree@V?$_Tmap_traits@KP8CDPCoreClient@@AEXAAVCAr@@KKK@ZU?$less@K@std@@V?$allocator@U?$pair@$$CBKP8CDPCoreClient@@AEXAAVCAr@@KKK@Z@std@@@4@$0A@@std@@@std@@KAAAPAU_Node@?$_Tree_nod@V?$_Tmap_traits@KP8CDPCoreClient@@AEXAAVCAr@@KKK@ZU?$less@K@std@@V?$allocator@U?$pair@$$CBKP8CDPCoreClient@@AEXAAVCAr@@KKK@Z@std@@@4@$0A@@std@@@2@PAU342@@Z
_TEXT	SEGMENT PARA USE32 PUBLIC 'CODE'
_TEXT	ENDS
;	COMDAT ?_Parent@?$_Tree@V?$_Tmap_traits@KP8CDPDatabaseClient@@AEXAAVCAr@@KK@ZU?$less@K@std@@V?$allocator@U?$pair@$$CBKP8CDPDatabaseClient@@AEXAAVCAr@@KK@Z@std@@@4@$0A@@std@@@std@@KAAAPAU_Node@?$_Tree_nod@V?$_Tmap_traits@KP8CDPDatabaseClient@@AEXAAVCAr@@KK@ZU?$less@K@std@@V?$allocator@U?$pair@$$CBKP8CDPDatabaseClient@@AEXAAVCAr@@KK@Z@std@@@4@$0A@@std@@@2@PAU342@@Z
_TEXT	SEGMENT PARA USE32 PUBLIC 'CODE'
_TEXT	ENDS
;	COMDAT ?_Myval@?$_Tree@V?$_Tmap_traits@KU_Friend@@U?$less@K@std@@V?$allocator@U?$pair@$$CBKU_Friend@@@std@@@3@$0A@@std@@@std@@KAAAU?$pair@$$CBKU_Friend@@@2@PAU_Node@?$_Tree_nod@V?$_Tmap_traits@KU_Friend@@U?$less@K@std@@V?$allocator@U?$pair@$$CBKU_Friend@@@std@@@3@$0A@@std@@@2@@Z
_TEXT	SEGMENT PARA USE32 PUBLIC 'CODE'
_TEXT	ENDS
;	COMDAT ?_Kfn@?$_Tmap_traits@KU_Friend@@U?$less@K@std@@V?$allocator@U?$pair@$$CBKU_Friend@@@std@@@3@$0A@@std@@SAABKABU?$pair@$$CBKU_Friend@@@2@@Z
_TEXT	SEGMENT PARA USE32 PUBLIC 'CODE'
_TEXT	ENDS
;	COMDAT ?_Inc@const_iterator@?$_Tree@V?$_Tmap_traits@KU_Friend@@U?$less@K@std@@V?$allocator@U?$pair@$$CBKU_Friend@@@std@@@3@$0A@@std@@@std@@QAEXXZ
_TEXT	SEGMENT PARA USE32 PUBLIC 'CODE'
_TEXT	ENDS
;	COMDAT ?_Myval@?$_Tree@V?$_Tmap_traits@KKU?$less@K@std@@V?$allocator@U?$pair@$$CBKK@std@@@2@$0A@@std@@@std@@KAAAU?$pair@$$CBKK@2@PAU_Node@?$_Tree_nod@V?$_Tmap_traits@KKU?$less@K@std@@V?$allocator@U?$pair@$$CBKK@std@@@2@$0A@@std@@@2@@Z
_TEXT	SEGMENT PARA USE32 PUBLIC 'CODE'
_TEXT	ENDS
;	COMDAT ?_Kfn@?$_Tmap_traits@KKU?$less@K@std@@V?$allocator@U?$pair@$$CBKK@std@@@2@$0A@@std@@SAABKABU?$pair@$$CBKK@2@@Z
_TEXT	SEGMENT PARA USE32 PUBLIC 'CODE'
_TEXT	ENDS
;	COMDAT ?_Inc@const_iterator@?$_Tree@V?$_Tmap_traits@KKU?$less@K@std@@V?$allocator@U?$pair@$$CBKK@std@@@2@$0A@@std@@@std@@QAEXXZ
_TEXT	SEGMENT PARA USE32 PUBLIC 'CODE'
_TEXT	ENDS
;	COMDAT ??0?$_Tmap_traits@KPAVCClientSock@@U?$less@K@std@@V?$allocator@U?$pair@$$CBKPAVCClientSock@@@std@@@3@$0A@@std@@QAE@U?$less@K@1@@Z
_TEXT	SEGMENT PARA USE32 PUBLIC 'CODE'
_TEXT	ENDS
;	COMDAT ??Econst_iterator@?$_Tree@V?$_Tmap_traits@KPAVCClientSock@@U?$less@K@std@@V?$allocator@U?$pair@$$CBKPAVCClientSock@@@std@@@3@$0A@@std@@@std@@QAEAAV012@XZ
_TEXT	SEGMENT PARA USE32 PUBLIC 'CODE'
_TEXT	ENDS
;	COMDAT ??0?$_Tmap_traits@KPAVCClientSockE@@U?$less@K@std@@V?$allocator@U?$pair@$$CBKPAVCClientSockE@@@std@@@3@$0A@@std@@QAE@U?$less@K@1@@Z
_TEXT	SEGMENT PARA USE32 PUBLIC 'CODE'
_TEXT	ENDS
;	COMDAT ??Econst_iterator@?$_Tree@V?$_Tmap_traits@KPAVCClientSockE@@U?$less@K@std@@V?$allocator@U?$pair@$$CBKPAVCClientSockE@@@std@@@3@$0A@@std@@@std@@QAEAAV012@XZ
_TEXT	SEGMENT PARA USE32 PUBLIC 'CODE'
_TEXT	ENDS
;	COMDAT ?_Inc@const_iterator@?$_Tree@V?$_Tmap_traits@KPAVCClientSock@@U?$less@K@std@@V?$allocator@U?$pair@$$CBKPAVCClientSock@@@std@@@3@$0A@@std@@@std@@QAEXXZ
_TEXT	SEGMENT PARA USE32 PUBLIC 'CODE'
_TEXT	ENDS
;	COMDAT ?_Inc@const_iterator@?$_Tree@V?$_Tmap_traits@KPAVCClientSockE@@U?$less@K@std@@V?$allocator@U?$pair@$$CBKPAVCClientSockE@@@std@@@3@$0A@@std@@@std@@QAEXXZ
_TEXT	SEGMENT PARA USE32 PUBLIC 'CODE'
_TEXT	ENDS
;	COMDAT ??$_Iter_cat@Vconst_iterator@?$vector@EV?$allocator@E@std@@@std@@@std@@YA?AUrandom_access_iterator_tag@0@ABVconst_iterator@?$vector@EV?$allocator@E@std@@@0@@Z
_TEXT	SEGMENT PARA USE32 PUBLIC 'CODE'
_TEXT	ENDS
;	COMDAT ??$_Assign@Vconst_iterator@?$vector@EV?$allocator@E@std@@@std@@@?$vector@EV?$allocator@E@std@@@std@@QAEXVconst_iterator@01@0Uinput_iterator_tag@1@@Z
_TEXT	SEGMENT PARA USE32 PUBLIC 'CODE'
_TEXT	ENDS
;	COMDAT ?GetAt@?$CItemContainer@VCItemElem@@@@QAEPAVCItemElem@@K@Z
_TEXT	SEGMENT PARA USE32 PUBLIC 'CODE'
_TEXT	ENDS
;	COMDAT ?DoEquip@?$CItemContainer@VCItemElem@@@@QAEHKK@Z
_TEXT	SEGMENT PARA USE32 PUBLIC 'CODE'
_TEXT	ENDS
;	COMDAT ?UnEquip@?$CItemContainer@VCItemElem@@@@QAEHK@Z
_TEXT	SEGMENT PARA USE32 PUBLIC 'CODE'
_TEXT	ENDS
;	COMDAT ?IsEquip@?$CItemContainer@VCItemElem@@@@QAEHK@Z
_TEXT	SEGMENT PARA USE32 PUBLIC 'CODE'
_TEXT	ENDS
;	COMDAT ?GetEquip@?$CItemContainer@VCItemElem@@@@QAEPAVCItemElem@@K@Z
_TEXT	SEGMENT PARA USE32 PUBLIC 'CODE'
_TEXT	ENDS
;	COMDAT ?Swap@?$CItemContainer@VCItemElem@@@@QAEXKK@Z
_TEXT	SEGMENT PARA USE32 PUBLIC 'CODE'
_TEXT	ENDS
;	COMDAT ??$_Iter_cat@Viterator@?$_Tree@V?$_Tmap_traits@KPAVCUser@@U?$less@K@std@@V?$allocator@U?$pair@$$CBKPAVCUser@@@std@@@3@$0A@@std@@@std@@@std@@YA?AUbidirectional_iterator_tag@0@ABViterator@?$_Tree@V?$_Tmap_traits@KPAVCUser@@U?$less@K@std@@V?$allocator@U?$pair@$$CBKPAVCUser@@@std@@@3@$0A@@std@@@0@@Z
_TEXT	SEGMENT PARA USE32 PUBLIC 'CODE'
_TEXT	ENDS
;	COMDAT ??$_Distance2@Viterator@?$_Tree@V?$_Tmap_traits@KPAVCUser@@U?$less@K@std@@V?$allocator@U?$pair@$$CBKPAVCUser@@@std@@@3@$0A@@std@@@std@@I@std@@YAXViterator@?$_Tree@V?$_Tmap_traits@KPAVCUser@@U?$less@K@std@@V?$allocator@U?$pair@$$CBKPAVCUser@@@std@@@3@$0A@@std@@@0@0AAIUbidirectional_iterator_tag@0@@Z
_TEXT	SEGMENT PARA USE32 PUBLIC 'CODE'
_TEXT	ENDS
;	COMDAT ??$_Iter_cat@Viterator@?$_Tree@V?$_Tmap_traits@KPAVCCtrl@@U?$less@K@std@@V?$allocator@U?$pair@$$CBKPAVCCtrl@@@std@@@3@$0A@@std@@@std@@@std@@YA?AUbidirectional_iterator_tag@0@ABViterator@?$_Tree@V?$_Tmap_traits@KPAVCCtrl@@U?$less@K@std@@V?$allocator@U?$pair@$$CBKPAVCCtrl@@@std@@@3@$0A@@std@@@0@@Z
_TEXT	SEGMENT PARA USE32 PUBLIC 'CODE'
_TEXT	ENDS
;	COMDAT ??$_Distance2@Viterator@?$_Tree@V?$_Tmap_traits@KPAVCCtrl@@U?$less@K@std@@V?$allocator@U?$pair@$$CBKPAVCCtrl@@@std@@@3@$0A@@std@@@std@@I@std@@YAXViterator@?$_Tree@V?$_Tmap_traits@KPAVCCtrl@@U?$less@K@std@@V?$allocator@U?$pair@$$CBKPAVCCtrl@@@std@@@3@$0A@@std@@@0@0AAIUbidirectional_iterator_tag@0@@Z
_TEXT	SEGMENT PARA USE32 PUBLIC 'CODE'
_TEXT	ENDS
;	COMDAT ??$_Uninitialized_copy@Vconst_iterator@?$vector@EV?$allocator@E@std@@@std@@PAEV?$allocator@E@3@@std@@YAPAEVconst_iterator@?$vector@EV?$allocator@E@std@@@0@0PAEAAV?$allocator@E@0@@Z
_TEXT	SEGMENT PARA USE32 PUBLIC 'CODE'
_TEXT	ENDS
;	COMDAT ??$_Iter_cat@Viterator@?$_Tree@V?$_Tmap_traits@KEU?$less@K@std@@V?$allocator@U?$pair@$$CBKE@std@@@2@$0A@@std@@@std@@@std@@YA?AUbidirectional_iterator_tag@0@ABViterator@?$_Tree@V?$_Tmap_traits@KEU?$less@K@std@@V?$allocator@U?$pair@$$CBKE@std@@@2@$0A@@std@@@0@@Z
_TEXT	SEGMENT PARA USE32 PUBLIC 'CODE'
_TEXT	ENDS
;	COMDAT ??$_Distance2@Viterator@?$_Tree@V?$_Tmap_traits@KEU?$less@K@std@@V?$allocator@U?$pair@$$CBKE@std@@@2@$0A@@std@@@std@@I@std@@YAXViterator@?$_Tree@V?$_Tmap_traits@KEU?$less@K@std@@V?$allocator@U?$pair@$$CBKE@std@@@2@$0A@@std@@@0@0AAIUbidirectional_iterator_tag@0@@Z
_TEXT	SEGMENT PARA USE32 PUBLIC 'CODE'
_TEXT	ENDS
;	COMDAT ??$_Ptr_cat@PAU__SPAWNREGION@CEventLua@@PAU12@@std@@YA?AU_Nonscalar_ptr_iterator_tag@0@AAPAU__SPAWNREGION@CEventLua@@0@Z
_TEXT	SEGMENT PARA USE32 PUBLIC 'CODE'
_TEXT	ENDS
;	COMDAT ??$_Uninit_fill_n@PAU__SPAWNREGION@CEventLua@@IU12@V?$allocator@U__SPAWNREGION@CEventLua@@@std@@@std@@YAXPAU__SPAWNREGION@CEventLua@@IABU12@AAV?$allocator@U__SPAWNREGION@CEventLua@@@0@U_Nonscalar_ptr_iterator_tag@0@@Z
_TEXT	SEGMENT PARA USE32 PUBLIC 'CODE'
_TEXT	ENDS
;	COMDAT ??$_Copy_opt@PAJPAJ@std@@YAPAJPAJ00U_Scalar_ptr_iterator_tag@0@@Z
_TEXT	SEGMENT PARA USE32 PUBLIC 'CODE'
_TEXT	ENDS
;	COMDAT ??$_Uninitialized_copy@PAJPAJV?$allocator@J@std@@@std@@YAPAJPAJ00AAV?$allocator@J@0@@Z
_TEXT	SEGMENT PARA USE32 PUBLIC 'CODE'
_TEXT	ENDS
;	COMDAT ??$_Copy_backward_opt@PAJPAJ@std@@YAPAJPAJ00U_Scalar_ptr_iterator_tag@0@@Z
_TEXT	SEGMENT PARA USE32 PUBLIC 'CODE'
_TEXT	ENDS
;	COMDAT ??$_Ptr_cat@PAUtagDROPITEM@@PAU1@@std@@YA?AU_Nonscalar_ptr_iterator_tag@0@AAPAUtagDROPITEM@@0@Z
_TEXT	SEGMENT PARA USE32 PUBLIC 'CODE'
_TEXT	ENDS
;	COMDAT ??$_Destroy_range@UtagDROPITEM@@V?$allocator@UtagDROPITEM@@@std@@@std@@YAXPAUtagDROPITEM@@0AAV?$allocator@UtagDROPITEM@@@0@U_Nonscalar_ptr_iterator_tag@0@@Z
_TEXT	SEGMENT PARA USE32 PUBLIC 'CODE'
_TEXT	ENDS
;	COMDAT ??$_Ptr_cat@PAUWORMON@@PAU1@@std@@YA?AU_Nonscalar_ptr_iterator_tag@0@AAPAUWORMON@@0@Z
_TEXT	SEGMENT PARA USE32 PUBLIC 'CODE'
_TEXT	ENDS
;	COMDAT ??$_Destroy_range@UWORMON@@V?$allocator@UWORMON@@@std@@@std@@YAXPAUWORMON@@0AAV?$allocator@UWORMON@@@0@U_Nonscalar_ptr_iterator_tag@0@@Z
_TEXT	SEGMENT PARA USE32 PUBLIC 'CODE'
_TEXT	ENDS
;	COMDAT ??$_Ptr_cat@PAU__ITEMGAME@CMiniGame@@PAU12@@std@@YA?AU_Nonscalar_ptr_iterator_tag@0@AAPAU__ITEMGAME@CMiniGame@@0@Z
_TEXT	SEGMENT PARA USE32 PUBLIC 'CODE'
_TEXT	ENDS
;	COMDAT ??$_Destroy_range@U__ITEMGAME@CMiniGame@@V?$allocator@U__ITEMGAME@CMiniGame@@@std@@@std@@YAXPAU__ITEMGAME@CMiniGame@@0AAV?$allocator@U__ITEMGAME@CMiniGame@@@0@U_Nonscalar_ptr_iterator_tag@0@@Z
_TEXT	SEGMENT PARA USE32 PUBLIC 'CODE'
_TEXT	ENDS
;	COMDAT ??$_Destroy_range@KV?$allocator@K@std@@@std@@YAXPAK0AAV?$allocator@K@0@U_Scalar_ptr_iterator_tag@0@@Z
_TEXT	SEGMENT PARA USE32 PUBLIC 'CODE'
_TEXT	ENDS
;	COMDAT ??$_Destroy_range@HV?$allocator@H@std@@@std@@YAXPAH0AAV?$allocator@H@0@U_Scalar_ptr_iterator_tag@0@@Z
_TEXT	SEGMENT PARA USE32 PUBLIC 'CODE'
_TEXT	ENDS
;	COMDAT ??$_Ptr_cat@PAU__ITEM@CExchange@@PAU12@@std@@YA?AU_Nonscalar_ptr_iterator_tag@0@AAPAU__ITEM@CExchange@@0@Z
_TEXT	SEGMENT PARA USE32 PUBLIC 'CODE'
_TEXT	ENDS
;	COMDAT ??$_Destroy_range@U__ITEM@CExchange@@V?$allocator@U__ITEM@CExchange@@@std@@@std@@YAXPAU__ITEM@CExchange@@0AAV?$allocator@U__ITEM@CExchange@@@0@U_Nonscalar_ptr_iterator_tag@0@@Z
_TEXT	SEGMENT PARA USE32 PUBLIC 'CODE'
_TEXT	ENDS
;	COMDAT ??$_Ptr_cat@PAU__POINT@CExchange@@PAU12@@std@@YA?AU_Nonscalar_ptr_iterator_tag@0@AAPAU__POINT@CExchange@@0@Z
_TEXT	SEGMENT PARA USE32 PUBLIC 'CODE'
_TEXT	ENDS
;	COMDAT ??$_Destroy_range@U__POINT@CExchange@@V?$allocator@U__POINT@CExchange@@@std@@@std@@YAXPAU__POINT@CExchange@@0AAV?$allocator@U__POINT@CExchange@@@0@U_Nonscalar_ptr_iterator_tag@0@@Z
_TEXT	SEGMENT PARA USE32 PUBLIC 'CODE'
_TEXT	ENDS
;	COMDAT ??$_Destroy_range@EV?$allocator@E@std@@@std@@YAXPAE0AAV?$allocator@E@0@U_Scalar_ptr_iterator_tag@0@@Z
_TEXT	SEGMENT PARA USE32 PUBLIC 'CODE'
_TEXT	ENDS
;	COMDAT ??$_Uninitialized_copy@PAU__SPAWNREGION@CEventLua@@PAU12@V?$allocator@U__SPAWNREGION@CEventLua@@@std@@@std@@YAPAU__SPAWNREGION@CEventLua@@PAU12@00AAV?$allocator@U__SPAWNREGION@CEventLua@@@0@@Z
_TEXT	SEGMENT PARA USE32 PUBLIC 'CODE'
_TEXT	ENDS
;	COMDAT ??$_Copy_backward_opt@PAU__SPAWNREGION@CEventLua@@PAU12@@std@@YAPAU__SPAWNREGION@CEventLua@@PAU12@00U_Nonscalar_ptr_iterator_tag@0@@Z
_TEXT	SEGMENT PARA USE32 PUBLIC 'CODE'
_TEXT	ENDS
;	COMDAT ??$_Ptr_cat@PAUD3DXVECTOR3@@PAU1@@std@@YA?AU_Nonscalar_ptr_iterator_tag@0@AAPAUD3DXVECTOR3@@0@Z
_TEXT	SEGMENT PARA USE32 PUBLIC 'CODE'
_TEXT	ENDS
;	COMDAT ??$_Destroy_range@UD3DXVECTOR3@@V?$allocator@UD3DXVECTOR3@@@std@@@std@@YAXPAUD3DXVECTOR3@@0AAV?$allocator@UD3DXVECTOR3@@@0@U_Nonscalar_ptr_iterator_tag@0@@Z
_TEXT	SEGMENT PARA USE32 PUBLIC 'CODE'
_TEXT	ENDS
;	COMDAT ??$_Ptr_cat@PAU_GIFTBOX@@PAU1@@std@@YA?AU_Nonscalar_ptr_iterator_tag@0@AAPAU_GIFTBOX@@0@Z
_TEXT	SEGMENT PARA USE32 PUBLIC 'CODE'
_TEXT	ENDS
;	COMDAT ??$_Destroy_range@U_GIFTBOX@@V?$allocator@U_GIFTBOX@@@std@@@std@@YAXPAU_GIFTBOX@@0AAV?$allocator@U_GIFTBOX@@@0@U_Nonscalar_ptr_iterator_tag@0@@Z
_TEXT	SEGMENT PARA USE32 PUBLIC 'CODE'
_TEXT	ENDS
;	COMDAT ??$_Destroy_range@JV?$allocator@J@std@@@std@@YAXPAJ0AAV?$allocator@J@0@U_Scalar_ptr_iterator_tag@0@@Z
_TEXT	SEGMENT PARA USE32 PUBLIC 'CODE'
_TEXT	ENDS
;	COMDAT ??$_Uninit_fill_n@JIJ@std@@YAXPAJIABJAAV?$allocator@J@0@U_Scalar_ptr_iterator_tag@0@@Z
_TEXT	SEGMENT PARA USE32 PUBLIC 'CODE'
_TEXT	ENDS
;	COMDAT ??$_Destroy_range@U__SPAWNREGION@CEventLua@@V?$allocator@U__SPAWNREGION@CEventLua@@@std@@@std@@YAXPAU__SPAWNREGION@CEventLua@@0AAV?$allocator@U__SPAWNREGION@CEventLua@@@0@U_Nonscalar_ptr_iterator_tag@0@@Z
_TEXT	SEGMENT PARA USE32 PUBLIC 'CODE'
_TEXT	ENDS
;	COMDAT ??$make_pair@KPAVCGuildHouseBase@@@std@@YA?AU?$pair@KPAVCGuildHouseBase@@@0@KPAVCGuildHouseBase@@@Z
_TEXT	SEGMENT PARA USE32 PUBLIC 'CODE'
_TEXT	ENDS
;	COMDAT ??$?0KPAVCGuildHouseBase@@@?$pair@$$CBKPAVCGuildHouseBase@@@std@@QAE@ABU?$pair@KPAVCGuildHouseBase@@@1@@Z
_TEXT	SEGMENT PARA USE32 PUBLIC 'CODE'
_TEXT	ENDS
;	COMDAT ??1?$CFixedArray@UtagWORLD@@@@UAE@XZ
_TEXT	SEGMENT PARA USE32 PUBLIC 'CODE'
_TEXT	ENDS
;	COMDAT ?GetAt@?$CFixedArray@UtagWORLD@@@@QAEPAUtagWORLD@@K@Z
_TEXT	SEGMENT PARA USE32 PUBLIC 'CODE'
_TEXT	ENDS
;	COMDAT ??$_Distance@Viterator@?$_Tree@V?$_Tmap_traits@KU_Friend@@U?$less@K@std@@V?$allocator@U?$pair@$$CBKU_Friend@@@std@@@3@$0A@@std@@@std@@I@std@@YAXViterator@?$_Tree@V?$_Tmap_traits@KU_Friend@@U?$less@K@std@@V?$allocator@U?$pair@$$CBKU_Friend@@@std@@@3@$0A@@std@@@0@0AAI@Z
_TEXT	SEGMENT PARA USE32 PUBLIC 'CODE'
_TEXT	ENDS
;	COMDAT ??$_Distance@Viterator@?$_Tree@V?$_Tmap_traits@KKU?$less@K@std@@V?$allocator@U?$pair@$$CBKK@std@@@2@$0A@@std@@@std@@I@std@@YAXViterator@?$_Tree@V?$_Tmap_traits@KKU?$less@K@std@@V?$allocator@U?$pair@$$CBKK@std@@@2@$0A@@std@@@0@0AAI@Z
_TEXT	SEGMENT PARA USE32 PUBLIC 'CODE'
_TEXT	ENDS
;	COMDAT ??$_Destroy@U_Node@?$_List_nod@PAU__JOINPLAYER@CGuildCombat@@V?$allocator@PAU__JOINPLAYER@CGuildCombat@@@std@@@std@@@std@@YAXPAU_Node@?$_List_nod@PAU__JOINPLAYER@CGuildCombat@@V?$allocator@PAU__JOINPLAYER@CGuildCombat@@@std@@@0@@Z
_TEXT	SEGMENT PARA USE32 PUBLIC 'CODE'
_TEXT	ENDS
;	COMDAT ??$_Uninitialized_fill_n@PAV?$basic_string@DU?$char_traits@D@std@@V?$allocator@D@2@@std@@IV12@V?$allocator@V?$basic_string@DU?$char_traits@D@std@@V?$allocator@D@2@@std@@@2@@std@@YAXPAV?$basic_string@DU?$char_traits@D@std@@V?$allocator@D@2@@0@IABV10@AAV?$allocator@V?$basic_string@DU?$char_traits@D@std@@V?$allocator@D@2@@std@@@0@@Z
_TEXT	SEGMENT PARA USE32 PUBLIC 'CODE'
_TEXT	ENDS
;	COMDAT ??$_Uninitialized_fill_n@PAUMINIGMAME_PRIZE_LIST@CRainbowRaceMng@@IU12@V?$allocator@UMINIGMAME_PRIZE_LIST@CRainbowRaceMng@@@std@@@std@@YAXPAUMINIGMAME_PRIZE_LIST@CRainbowRaceMng@@IABU12@AAV?$allocator@UMINIGMAME_PRIZE_LIST@CRainbowRaceMng@@@0@@Z
_TEXT	SEGMENT PARA USE32 PUBLIC 'CODE'
_TEXT	ENDS
;	COMDAT ??$_Allocate@V?$basic_string@DU?$char_traits@D@std@@V?$allocator@D@2@@std@@@std@@YAPAV?$basic_string@DU?$char_traits@D@std@@V?$allocator@D@2@@0@IPAV10@@Z
_TEXT	SEGMENT PARA USE32 PUBLIC 'CODE'
_TEXT	ENDS
;	COMDAT ??$?0PAUtagACTMSG@@@?$allocator@PAPAUtagACTMSG@@@std@@QAE@ABV?$allocator@PAUtagACTMSG@@@1@@Z
_TEXT	SEGMENT PARA USE32 PUBLIC 'CODE'
_TEXT	ENDS
;	COMDAT ??$_Destroy@PAPAUtagACTMSG@@@std@@YAXPAPAPAUtagACTMSG@@@Z
_TEXT	SEGMENT PARA USE32 PUBLIC 'CODE'
_TEXT	ENDS
;	COMDAT ??$?0PAUtagMAGICATKMSG@@@?$allocator@PAPAUtagMAGICATKMSG@@@std@@QAE@ABV?$allocator@PAUtagMAGICATKMSG@@@1@@Z
_TEXT	SEGMENT PARA USE32 PUBLIC 'CODE'
_TEXT	ENDS
;	COMDAT ??$_Destroy@PAPAUtagMAGICATKMSG@@@std@@YAXPAPAPAUtagMAGICATKMSG@@@Z
_TEXT	SEGMENT PARA USE32 PUBLIC 'CODE'
_TEXT	ENDS
;	COMDAT ??$_Destroy_range@PAU__JOINPLAYER@CGuildCombat@@V?$allocator@PAU__JOINPLAYER@CGuildCombat@@@std@@@std@@YAXPAPAU__JOINPLAYER@CGuildCombat@@0AAV?$allocator@PAU__JOINPLAYER@CGuildCombat@@@0@@Z
_TEXT	SEGMENT PARA USE32 PUBLIC 'CODE'
_TEXT	ENDS
;	COMDAT ??$_Destroy_range@U__SECRETROOM_MONSTER@@V?$allocator@U__SECRETROOM_MONSTER@@@std@@@std@@YAXPAU__SECRETROOM_MONSTER@@0AAV?$allocator@U__SECRETROOM_MONSTER@@@0@@Z
_TEXT	SEGMENT PARA USE32 PUBLIC 'CODE'
_TEXT	ENDS
;	COMDAT ??$_Allocate@U__SECRETROOM_MONSTER@@@std@@YAPAU__SECRETROOM_MONSTER@@IPAU1@@Z
_TEXT	SEGMENT PARA USE32 PUBLIC 'CODE'
_TEXT	ENDS
;	COMDAT ??$_Destroy_range@V?$basic_string@DU?$char_traits@D@std@@V?$allocator@D@2@@std@@V?$allocator@V?$basic_string@DU?$char_traits@D@std@@V?$allocator@D@2@@std@@@2@@std@@YAXPAV?$basic_string@DU?$char_traits@D@std@@V?$allocator@D@2@@0@0AAV?$allocator@V?$basic_string@DU?$char_traits@D@std@@V?$allocator@D@2@@std@@@0@@Z
_TEXT	SEGMENT PARA USE32 PUBLIC 'CODE'
_TEXT	ENDS
;	COMDAT ??$_Ucopy@PAV?$basic_string@DU?$char_traits@D@std@@V?$allocator@D@2@@std@@@?$vector@V?$basic_string@DU?$char_traits@D@std@@V?$allocator@D@2@@std@@V?$allocator@V?$basic_string@DU?$char_traits@D@std@@V?$allocator@D@2@@std@@@2@@std@@IAEPAV?$basic_string@DU?$char_traits@D@std@@V?$allocator@D@2@@1@PAV21@00@Z
_TEXT	SEGMENT PARA USE32 PUBLIC 'CODE'
_TEXT	ENDS
;	COMDAT ??$fill@PAV?$basic_string@DU?$char_traits@D@std@@V?$allocator@D@2@@std@@V12@@std@@YAXPAV?$basic_string@DU?$char_traits@D@std@@V?$allocator@D@2@@0@0ABV10@@Z
_TEXT	SEGMENT PARA USE32 PUBLIC 'CODE'
_TEXT	ENDS
;	COMDAT ??$copy_backward@PAV?$basic_string@DU?$char_traits@D@std@@V?$allocator@D@2@@std@@PAV12@@std@@YAPAV?$basic_string@DU?$char_traits@D@std@@V?$allocator@D@2@@0@PAV10@00@Z
_TEXT	SEGMENT PARA USE32 PUBLIC 'CODE'
_TEXT	ENDS
;	COMDAT ??$_Ucopy@PAUMINIGMAME_PRIZE_LIST@CRainbowRaceMng@@@?$vector@UMINIGMAME_PRIZE_LIST@CRainbowRaceMng@@V?$allocator@UMINIGMAME_PRIZE_LIST@CRainbowRaceMng@@@std@@@std@@IAEPAUMINIGMAME_PRIZE_LIST@CRainbowRaceMng@@PAU23@00@Z
_TEXT	SEGMENT PARA USE32 PUBLIC 'CODE'
_TEXT	ENDS
;	COMDAT ??$fill@PAUMINIGMAME_PRIZE_LIST@CRainbowRaceMng@@U12@@std@@YAXPAUMINIGMAME_PRIZE_LIST@CRainbowRaceMng@@0ABU12@@Z
_TEXT	SEGMENT PARA USE32 PUBLIC 'CODE'
_TEXT	ENDS
;	COMDAT ??$copy_backward@PAUMINIGMAME_PRIZE_LIST@CRainbowRaceMng@@PAU12@@std@@YAPAUMINIGMAME_PRIZE_LIST@CRainbowRaceMng@@PAU12@00@Z
_TEXT	SEGMENT PARA USE32 PUBLIC 'CODE'
_TEXT	ENDS
;	COMDAT ??$_Destroy@PAU_Node@?$_Tree_nod@V?$_Tmap_traits@KPAVCClientSock@@U?$less@K@std@@V?$allocator@U?$pair@$$CBKPAVCClientSock@@@std@@@3@$0A@@std@@@std@@@std@@YAXPAPAU_Node@?$_Tree_nod@V?$_Tmap_traits@KPAVCClientSock@@U?$less@K@std@@V?$allocator@U?$pair@$$CBKPAVCClientSock@@@std@@@3@$0A@@std@@@0@@Z
_TEXT	SEGMENT PARA USE32 PUBLIC 'CODE'
_TEXT	ENDS
;	COMDAT ??$_Destroy@PAU_Node@?$_Tree_nod@V?$_Tmap_traits@KPAVCClientSockE@@U?$less@K@std@@V?$allocator@U?$pair@$$CBKPAVCClientSockE@@@std@@@3@$0A@@std@@@std@@@std@@YAXPAPAU_Node@?$_Tree_nod@V?$_Tmap_traits@KPAVCClientSockE@@U?$less@K@std@@V?$allocator@U?$pair@$$CBKPAVCClientSockE@@@std@@@3@$0A@@std@@@0@@Z
_TEXT	SEGMENT PARA USE32 PUBLIC 'CODE'
_TEXT	ENDS
;	COMDAT ??$_Destroy@PAUtagACTMSG@@@std@@YAXPAPAUtagACTMSG@@@Z
_TEXT	SEGMENT PARA USE32 PUBLIC 'CODE'
_TEXT	ENDS
;	COMDAT ??$_Destroy@PAUtagMAGICATKMSG@@@std@@YAXPAPAUtagMAGICATKMSG@@@Z
_TEXT	SEGMENT PARA USE32 PUBLIC 'CODE'
_TEXT	ENDS
;	COMDAT ??$_Destroy@U_Node@?$_Tree_nod@V?$_Tmap_traits@KU_Friend@@U?$less@K@std@@V?$allocator@U?$pair@$$CBKU_Friend@@@std@@@3@$0A@@std@@@std@@@std@@YAXPAU_Node@?$_Tree_nod@V?$_Tmap_traits@KU_Friend@@U?$less@K@std@@V?$allocator@U?$pair@$$CBKU_Friend@@@std@@@3@$0A@@std@@@0@@Z
_TEXT	SEGMENT PARA USE32 PUBLIC 'CODE'
_TEXT	ENDS
;	COMDAT ??$_Destroy_range@UMINIGMAME_PRIZE_LIST@CRainbowRaceMng@@V?$allocator@UMINIGMAME_PRIZE_LIST@CRainbowRaceMng@@@std@@@std@@YAXPAUMINIGMAME_PRIZE_LIST@CRainbowRaceMng@@0AAV?$allocator@UMINIGMAME_PRIZE_LIST@CRainbowRaceMng@@@0@@Z
_TEXT	SEGMENT PARA USE32 PUBLIC 'CODE'
_TEXT	ENDS
;	COMDAT ??$_Allocate@UMINIGMAME_PRIZE_LIST@CRainbowRaceMng@@@std@@YAPAUMINIGMAME_PRIZE_LIST@CRainbowRaceMng@@IPAU12@@Z
_TEXT	SEGMENT PARA USE32 PUBLIC 'CODE'
_TEXT	ENDS
;	COMDAT ??$_Allocate@U_Node@?$_Tree_nod@V?$_Tmap_traits@KPAVCGuildHouseBase@@U?$less@K@std@@V?$allocator@U?$pair@$$CBKPAVCGuildHouseBase@@@std@@@3@$0A@@std@@@std@@@std@@YAPAU_Node@?$_Tree_nod@V?$_Tmap_traits@KPAVCGuildHouseBase@@U?$less@K@std@@V?$allocator@U?$pair@$$CBKPAVCGuildHouseBase@@@std@@@3@$0A@@std@@@0@IPAU120@@Z
_TEXT	SEGMENT PARA USE32 PUBLIC 'CODE'
_TEXT	ENDS
;	COMDAT ??$_Destroy@U_Node@?$_Tree_nod@V?$_Tmap_traits@KKU?$less@K@std@@V?$allocator@U?$pair@$$CBKK@std@@@2@$0A@@std@@@std@@@std@@YAXPAU_Node@?$_Tree_nod@V?$_Tmap_traits@KKU?$less@K@std@@V?$allocator@U?$pair@$$CBKK@std@@@2@$0A@@std@@@0@@Z
_TEXT	SEGMENT PARA USE32 PUBLIC 'CODE'
_TEXT	ENDS
;	COMDAT ??$?0U?$pair@$$CBKPAVCClientSock@@@std@@@?$allocator@PAU_Node@?$_Tree_nod@V?$_Tmap_traits@KPAVCClientSock@@U?$less@K@std@@V?$allocator@U?$pair@$$CBKPAVCClientSock@@@std@@@3@$0A@@std@@@std@@@std@@QAE@ABV?$allocator@U?$pair@$$CBKPAVCClientSock@@@std@@@1@@Z
_TEXT	SEGMENT PARA USE32 PUBLIC 'CODE'
_TEXT	ENDS
;	COMDAT ??$?0U?$pair@$$CBKPAVCClientSockE@@@std@@@?$allocator@PAU_Node@?$_Tree_nod@V?$_Tmap_traits@KPAVCClientSockE@@U?$less@K@std@@V?$allocator@U?$pair@$$CBKPAVCClientSockE@@@std@@@3@$0A@@std@@@std@@@std@@QAE@ABV?$allocator@U?$pair@$$CBKPAVCClientSockE@@@std@@@1@@Z
_TEXT	SEGMENT PARA USE32 PUBLIC 'CODE'
_TEXT	ENDS
;	COMDAT ??$?0U?$pair@$$CBKPAVCClientSock@@@std@@@?$allocator@U_Node@?$_Tree_nod@V?$_Tmap_traits@KPAVCClientSock@@U?$less@K@std@@V?$allocator@U?$pair@$$CBKPAVCClientSock@@@std@@@3@$0A@@std@@@std@@@std@@QAE@ABV?$allocator@U?$pair@$$CBKPAVCClientSock@@@std@@@1@@Z
_TEXT	SEGMENT PARA USE32 PUBLIC 'CODE'
_TEXT	ENDS
;	COMDAT ??$_Allocate@U_Node@?$_Tree_nod@V?$_Tmap_traits@KPAVCClientSock@@U?$less@K@std@@V?$allocator@U?$pair@$$CBKPAVCClientSock@@@std@@@3@$0A@@std@@@std@@@std@@YAPAU_Node@?$_Tree_nod@V?$_Tmap_traits@KPAVCClientSock@@U?$less@K@std@@V?$allocator@U?$pair@$$CBKPAVCClientSock@@@std@@@3@$0A@@std@@@0@IPAU120@@Z
_TEXT	SEGMENT PARA USE32 PUBLIC 'CODE'
_TEXT	ENDS
;	COMDAT ??$_Destroy@U_Node@?$_Tree_nod@V?$_Tmap_traits@KPAVCClientSock@@U?$less@K@std@@V?$allocator@U?$pair@$$CBKPAVCClientSock@@@std@@@3@$0A@@std@@@std@@@std@@YAXPAU_Node@?$_Tree_nod@V?$_Tmap_traits@KPAVCClientSock@@U?$less@K@std@@V?$allocator@U?$pair@$$CBKPAVCClientSock@@@std@@@3@$0A@@std@@@0@@Z
_TEXT	SEGMENT PARA USE32 PUBLIC 'CODE'
_TEXT	ENDS
;	COMDAT ??$_Construct@PAU_Node@?$_Tree_nod@V?$_Tmap_traits@KPAVCClientSock@@U?$less@K@std@@V?$allocator@U?$pair@$$CBKPAVCClientSock@@@std@@@3@$0A@@std@@@std@@PAU123@@std@@YAXPAPAU_Node@?$_Tree_nod@V?$_Tmap_traits@KPAVCClientSock@@U?$less@K@std@@V?$allocator@U?$pair@$$CBKPAVCClientSock@@@std@@@3@$0A@@std@@@0@ABQAU120@@Z
_TEXT	SEGMENT PARA USE32 PUBLIC 'CODE'
_TEXT	ENDS
;	COMDAT ??$?0U?$pair@$$CBKPAVCClientSockE@@@std@@@?$allocator@U_Node@?$_Tree_nod@V?$_Tmap_traits@KPAVCClientSockE@@U?$less@K@std@@V?$allocator@U?$pair@$$CBKPAVCClientSockE@@@std@@@3@$0A@@std@@@std@@@std@@QAE@ABV?$allocator@U?$pair@$$CBKPAVCClientSockE@@@std@@@1@@Z
_TEXT	SEGMENT PARA USE32 PUBLIC 'CODE'
_TEXT	ENDS
;	COMDAT ??$_Allocate@U_Node@?$_Tree_nod@V?$_Tmap_traits@KPAVCClientSockE@@U?$less@K@std@@V?$allocator@U?$pair@$$CBKPAVCClientSockE@@@std@@@3@$0A@@std@@@std@@@std@@YAPAU_Node@?$_Tree_nod@V?$_Tmap_traits@KPAVCClientSockE@@U?$less@K@std@@V?$allocator@U?$pair@$$CBKPAVCClientSockE@@@std@@@3@$0A@@std@@@0@IPAU120@@Z
_TEXT	SEGMENT PARA USE32 PUBLIC 'CODE'
_TEXT	ENDS
;	COMDAT ??$_Destroy@U_Node@?$_Tree_nod@V?$_Tmap_traits@KPAVCClientSockE@@U?$less@K@std@@V?$allocator@U?$pair@$$CBKPAVCClientSockE@@@std@@@3@$0A@@std@@@std@@@std@@YAXPAU_Node@?$_Tree_nod@V?$_Tmap_traits@KPAVCClientSockE@@U?$less@K@std@@V?$allocator@U?$pair@$$CBKPAVCClientSockE@@@std@@@3@$0A@@std@@@0@@Z
_TEXT	SEGMENT PARA USE32 PUBLIC 'CODE'
_TEXT	ENDS
;	COMDAT ??$_Construct@PAU_Node@?$_Tree_nod@V?$_Tmap_traits@KPAVCClientSockE@@U?$less@K@std@@V?$allocator@U?$pair@$$CBKPAVCClientSockE@@@std@@@3@$0A@@std@@@std@@PAU123@@std@@YAXPAPAU_Node@?$_Tree_nod@V?$_Tmap_traits@KPAVCClientSockE@@U?$less@K@std@@V?$allocator@U?$pair@$$CBKPAVCClientSockE@@@std@@@3@$0A@@std@@@0@ABQAU120@@Z
_TEXT	SEGMENT PARA USE32 PUBLIC 'CODE'
_TEXT	ENDS
;	COMDAT ??_G?$CFixedArray@UtagWORLD@@@@UAEPAXI@Z
_TEXT	SEGMENT PARA USE32 PUBLIC 'CODE'
_TEXT	ENDS
;	COMDAT ?destroy@?$allocator@UtagDROPITEM@@@std@@QAEXPAUtagDROPITEM@@@Z
_TEXT	SEGMENT PARA USE32 PUBLIC 'CODE'
_TEXT	ENDS
;	COMDAT ?destroy@?$allocator@UWORMON@@@std@@QAEXPAUWORMON@@@Z
_TEXT	SEGMENT PARA USE32 PUBLIC 'CODE'
_TEXT	ENDS
;	COMDAT ?destroy@?$allocator@U__ITEMGAME@CMiniGame@@@std@@QAEXPAU__ITEMGAME@CMiniGame@@@Z
_TEXT	SEGMENT PARA USE32 PUBLIC 'CODE'
_TEXT	ENDS
;	COMDAT ?destroy@?$allocator@U__ITEM@CExchange@@@std@@QAEXPAU__ITEM@CExchange@@@Z
_TEXT	SEGMENT PARA USE32 PUBLIC 'CODE'
_TEXT	ENDS
;	COMDAT ?destroy@?$allocator@U__POINT@CExchange@@@std@@QAEXPAU__POINT@CExchange@@@Z
_TEXT	SEGMENT PARA USE32 PUBLIC 'CODE'
_TEXT	ENDS
;	COMDAT ?begin@?$vector@EV?$allocator@E@std@@@std@@QAE?AViterator@12@XZ
_TEXT	SEGMENT PARA USE32 PUBLIC 'CODE'
_TEXT	ENDS
;	COMDAT ?end@?$vector@EV?$allocator@E@std@@@std@@QAE?AViterator@12@XZ
_TEXT	SEGMENT PARA USE32 PUBLIC 'CODE'
_TEXT	ENDS
;	COMDAT ?erase@?$vector@EV?$allocator@E@std@@@std@@QAE?AViterator@12@V312@0@Z
_TEXT	SEGMENT PARA USE32 PUBLIC 'CODE'
_TEXT	ENDS
;	COMDAT ?construct@?$allocator@U__SPAWNREGION@CEventLua@@@std@@QAEXPAU__SPAWNREGION@CEventLua@@ABU34@@Z
_TEXT	SEGMENT PARA USE32 PUBLIC 'CODE'
_TEXT	ENDS
;	COMDAT ?destroy@?$allocator@U__SPAWNREGION@CEventLua@@@std@@QAEXPAU__SPAWNREGION@CEventLua@@@Z
_TEXT	SEGMENT PARA USE32 PUBLIC 'CODE'
_TEXT	ENDS
;	COMDAT ?destroy@?$allocator@UD3DXVECTOR3@@@std@@QAEXPAUD3DXVECTOR3@@@Z
_TEXT	SEGMENT PARA USE32 PUBLIC 'CODE'
_TEXT	ENDS
;	COMDAT ?destroy@?$allocator@U_GIFTBOX@@@std@@QAEXPAU_GIFTBOX@@@Z
_TEXT	SEGMENT PARA USE32 PUBLIC 'CODE'
_TEXT	ENDS
;	COMDAT ??0?$pair@KPAVCGuildHouseBase@@@std@@QAE@ABKABQAVCGuildHouseBase@@@Z
_TEXT	SEGMENT PARA USE32 PUBLIC 'CODE'
_TEXT	ENDS
;	COMDAT ??9const_iterator@?$vector@EV?$allocator@E@std@@@std@@QBE_NABV012@@Z
_TEXT	SEGMENT PARA USE32 PUBLIC 'CODE'
_TEXT	ENDS
;	COMDAT ??0iterator@?$vector@EV?$allocator@E@std@@@std@@QAE@PAE@Z
_TEXT	SEGMENT PARA USE32 PUBLIC 'CODE'
_TEXT	ENDS
;	COMDAT ??8const_iterator@?$vector@EV?$allocator@E@std@@@std@@QBE_NABV012@@Z
_TEXT	SEGMENT PARA USE32 PUBLIC 'CODE'
_TEXT	ENDS
;	COMDAT ??$insert@Vconst_iterator@?$vector@EV?$allocator@E@std@@@std@@@?$vector@EV?$allocator@E@std@@@std@@QAEXViterator@01@Vconst_iterator@01@1@Z
_TEXT	SEGMENT PARA USE32 PUBLIC 'CODE'
_TEXT	ENDS
;	COMDAT ?RemoveAtId@?$CItemContainer@VCItemElem@@@@QAEXK@Z
_TEXT	SEGMENT PARA USE32 PUBLIC 'CODE'
_TEXT	ENDS
;	COMDAT ?Swap2@?$CItemContainer@VCItemElem@@@@AAEXKK@Z
_TEXT	SEGMENT PARA USE32 PUBLIC 'CODE'
_TEXT	ENDS
;	COMDAT ??$_Ptr_cat@Vconst_iterator@?$vector@EV?$allocator@E@std@@@std@@PAE@std@@YA?AU_Nonscalar_ptr_iterator_tag@0@AAVconst_iterator@?$vector@EV?$allocator@E@std@@@0@AAPAE@Z
_TEXT	SEGMENT PARA USE32 PUBLIC 'CODE'
_TEXT	ENDS
;	COMDAT ??$_Uninit_copy@Vconst_iterator@?$vector@EV?$allocator@E@std@@@std@@PAEV?$allocator@E@3@@std@@YAPAEVconst_iterator@?$vector@EV?$allocator@E@std@@@0@0PAEAAV?$allocator@E@0@U_Nonscalar_ptr_iterator_tag@0@@Z
_TEXT	SEGMENT PARA USE32 PUBLIC 'CODE'
_TEXT	ENDS
;	COMDAT ??$_Uninit_copy@JJ@std@@YAPAJPAJ00AAV?$allocator@J@0@U_Scalar_ptr_iterator_tag@0@@Z
_TEXT	SEGMENT PARA USE32 PUBLIC 'CODE'
_TEXT	ENDS
;	COMDAT ??$_Uninit_copy@PAU__SPAWNREGION@CEventLua@@PAU12@V?$allocator@U__SPAWNREGION@CEventLua@@@std@@@std@@YAPAU__SPAWNREGION@CEventLua@@PAU12@00AAV?$allocator@U__SPAWNREGION@CEventLua@@@0@U_Nonscalar_ptr_iterator_tag@0@@Z
_TEXT	SEGMENT PARA USE32 PUBLIC 'CODE'
_TEXT	ENDS
;	COMDAT ??$fill_n@PAJIJ@std@@YAXPAJIABJ@Z
_TEXT	SEGMENT PARA USE32 PUBLIC 'CODE'
_TEXT	ENDS
;	COMDAT ??$_Iter_cat@Viterator@?$_Tree@V?$_Tmap_traits@KU_Friend@@U?$less@K@std@@V?$allocator@U?$pair@$$CBKU_Friend@@@std@@@3@$0A@@std@@@std@@@std@@YA?AUbidirectional_iterator_tag@0@ABViterator@?$_Tree@V?$_Tmap_traits@KU_Friend@@U?$less@K@std@@V?$allocator@U?$pair@$$CBKU_Friend@@@std@@@3@$0A@@std@@@0@@Z
_TEXT	SEGMENT PARA USE32 PUBLIC 'CODE'
_TEXT	ENDS
;	COMDAT ??$_Distance2@Viterator@?$_Tree@V?$_Tmap_traits@KU_Friend@@U?$less@K@std@@V?$allocator@U?$pair@$$CBKU_Friend@@@std@@@3@$0A@@std@@@std@@I@std@@YAXViterator@?$_Tree@V?$_Tmap_traits@KU_Friend@@U?$less@K@std@@V?$allocator@U?$pair@$$CBKU_Friend@@@std@@@3@$0A@@std@@@0@0AAIUbidirectional_iterator_tag@0@@Z
_TEXT	SEGMENT PARA USE32 PUBLIC 'CODE'
_TEXT	ENDS
;	COMDAT ??$_Iter_cat@Viterator@?$_Tree@V?$_Tmap_traits@KKU?$less@K@std@@V?$allocator@U?$pair@$$CBKK@std@@@2@$0A@@std@@@std@@@std@@YA?AUbidirectional_iterator_tag@0@ABViterator@?$_Tree@V?$_Tmap_traits@KKU?$less@K@std@@V?$allocator@U?$pair@$$CBKK@std@@@2@$0A@@std@@@0@@Z
_TEXT	SEGMENT PARA USE32 PUBLIC 'CODE'
_TEXT	ENDS
;	COMDAT ??$_Distance2@Viterator@?$_Tree@V?$_Tmap_traits@KKU?$less@K@std@@V?$allocator@U?$pair@$$CBKK@std@@@2@$0A@@std@@@std@@I@std@@YAXViterator@?$_Tree@V?$_Tmap_traits@KKU?$less@K@std@@V?$allocator@U?$pair@$$CBKK@std@@@2@$0A@@std@@@0@0AAIUbidirectional_iterator_tag@0@@Z
_TEXT	SEGMENT PARA USE32 PUBLIC 'CODE'
_TEXT	ENDS
;	COMDAT ??$_Ptr_cat@PAV?$basic_string@DU?$char_traits@D@std@@V?$allocator@D@2@@std@@PAV12@@std@@YA?AU_Nonscalar_ptr_iterator_tag@0@AAPAV?$basic_string@DU?$char_traits@D@std@@V?$allocator@D@2@@0@0@Z
_TEXT	SEGMENT PARA USE32 PUBLIC 'CODE'
_TEXT	ENDS
;	COMDAT ??$_Uninit_fill_n@PAV?$basic_string@DU?$char_traits@D@std@@V?$allocator@D@2@@std@@IV12@V?$allocator@V?$basic_string@DU?$char_traits@D@std@@V?$allocator@D@2@@std@@@2@@std@@YAXPAV?$basic_string@DU?$char_traits@D@std@@V?$allocator@D@2@@0@IABV10@AAV?$allocator@V?$basic_string@DU?$char_traits@D@std@@V?$allocator@D@2@@std@@@0@U_Nonscalar_ptr_iterator_tag@0@@Z
_TEXT	SEGMENT PARA USE32 PUBLIC 'CODE'
_TEXT	ENDS
;	COMDAT ??$_Ptr_cat@PAUMINIGMAME_PRIZE_LIST@CRainbowRaceMng@@PAU12@@std@@YA?AU_Nonscalar_ptr_iterator_tag@0@AAPAUMINIGMAME_PRIZE_LIST@CRainbowRaceMng@@0@Z
_TEXT	SEGMENT PARA USE32 PUBLIC 'CODE'
_TEXT	ENDS
;	COMDAT ??$_Uninit_fill_n@PAUMINIGMAME_PRIZE_LIST@CRainbowRaceMng@@IU12@V?$allocator@UMINIGMAME_PRIZE_LIST@CRainbowRaceMng@@@std@@@std@@YAXPAUMINIGMAME_PRIZE_LIST@CRainbowRaceMng@@IABU12@AAV?$allocator@UMINIGMAME_PRIZE_LIST@CRainbowRaceMng@@@0@U_Nonscalar_ptr_iterator_tag@0@@Z
_TEXT	SEGMENT PARA USE32 PUBLIC 'CODE'
_TEXT	ENDS
;	COMDAT ??$_Ptr_cat@U__JOINPLAYER@CGuildCombat@@@std@@YA?AU_Scalar_ptr_iterator_tag@0@PAPAU__JOINPLAYER@CGuildCombat@@0@Z
_TEXT	SEGMENT PARA USE32 PUBLIC 'CODE'
_TEXT	ENDS
;	COMDAT ??$_Destroy_range@PAU__JOINPLAYER@CGuildCombat@@V?$allocator@PAU__JOINPLAYER@CGuildCombat@@@std@@@std@@YAXPAPAU__JOINPLAYER@CGuildCombat@@0AAV?$allocator@PAU__JOINPLAYER@CGuildCombat@@@0@U_Scalar_ptr_iterator_tag@0@@Z
_TEXT	SEGMENT PARA USE32 PUBLIC 'CODE'
_TEXT	ENDS
;	COMDAT ??$_Ptr_cat@PAU__SECRETROOM_MONSTER@@PAU1@@std@@YA?AU_Nonscalar_ptr_iterator_tag@0@AAPAU__SECRETROOM_MONSTER@@0@Z
_TEXT	SEGMENT PARA USE32 PUBLIC 'CODE'
_TEXT	ENDS
;	COMDAT ??$_Destroy_range@U__SECRETROOM_MONSTER@@V?$allocator@U__SECRETROOM_MONSTER@@@std@@@std@@YAXPAU__SECRETROOM_MONSTER@@0AAV?$allocator@U__SECRETROOM_MONSTER@@@0@U_Nonscalar_ptr_iterator_tag@0@@Z
_TEXT	SEGMENT PARA USE32 PUBLIC 'CODE'
_TEXT	ENDS
;	COMDAT ??$_Destroy_range@V?$basic_string@DU?$char_traits@D@std@@V?$allocator@D@2@@std@@V?$allocator@V?$basic_string@DU?$char_traits@D@std@@V?$allocator@D@2@@std@@@2@@std@@YAXPAV?$basic_string@DU?$char_traits@D@std@@V?$allocator@D@2@@0@0AAV?$allocator@V?$basic_string@DU?$char_traits@D@std@@V?$allocator@D@2@@std@@@0@U_Nonscalar_ptr_iterator_tag@0@@Z
_TEXT	SEGMENT PARA USE32 PUBLIC 'CODE'
_TEXT	ENDS
;	COMDAT ??$_Uninitialized_copy@PAV?$basic_string@DU?$char_traits@D@std@@V?$allocator@D@2@@std@@PAV12@V?$allocator@V?$basic_string@DU?$char_traits@D@std@@V?$allocator@D@2@@std@@@2@@std@@YAPAV?$basic_string@DU?$char_traits@D@std@@V?$allocator@D@2@@0@PAV10@00AAV?$allocator@V?$basic_string@DU?$char_traits@D@std@@V?$allocator@D@2@@std@@@0@@Z
_TEXT	SEGMENT PARA USE32 PUBLIC 'CODE'
_TEXT	ENDS
;	COMDAT ??$_Copy_backward_opt@PAV?$basic_string@DU?$char_traits@D@std@@V?$allocator@D@2@@std@@PAV12@@std@@YAPAV?$basic_string@DU?$char_traits@D@std@@V?$allocator@D@2@@0@PAV10@00U_Nonscalar_ptr_iterator_tag@0@@Z
_TEXT	SEGMENT PARA USE32 PUBLIC 'CODE'
_TEXT	ENDS
;	COMDAT ??$_Uninitialized_copy@PAUMINIGMAME_PRIZE_LIST@CRainbowRaceMng@@PAU12@V?$allocator@UMINIGMAME_PRIZE_LIST@CRainbowRaceMng@@@std@@@std@@YAPAUMINIGMAME_PRIZE_LIST@CRainbowRaceMng@@PAU12@00AAV?$allocator@UMINIGMAME_PRIZE_LIST@CRainbowRaceMng@@@0@@Z
_TEXT	SEGMENT PARA USE32 PUBLIC 'CODE'
_TEXT	ENDS
;	COMDAT ??$_Copy_backward_opt@PAUMINIGMAME_PRIZE_LIST@CRainbowRaceMng@@PAU12@@std@@YAPAUMINIGMAME_PRIZE_LIST@CRainbowRaceMng@@PAU12@00U_Nonscalar_ptr_iterator_tag@0@@Z
_TEXT	SEGMENT PARA USE32 PUBLIC 'CODE'
_TEXT	ENDS
;	COMDAT ??$_Destroy_range@UMINIGMAME_PRIZE_LIST@CRainbowRaceMng@@V?$allocator@UMINIGMAME_PRIZE_LIST@CRainbowRaceMng@@@std@@@std@@YAXPAUMINIGMAME_PRIZE_LIST@CRainbowRaceMng@@0AAV?$allocator@UMINIGMAME_PRIZE_LIST@CRainbowRaceMng@@@0@U_Nonscalar_ptr_iterator_tag@0@@Z
_TEXT	SEGMENT PARA USE32 PUBLIC 'CODE'
_TEXT	ENDS
;	COMDAT ??$_Destroy@UtagDROPITEM@@@std@@YAXPAUtagDROPITEM@@@Z
_TEXT	SEGMENT PARA USE32 PUBLIC 'CODE'
_TEXT	ENDS
;	COMDAT ??$_Destroy@UWORMON@@@std@@YAXPAUWORMON@@@Z
_TEXT	SEGMENT PARA USE32 PUBLIC 'CODE'
_TEXT	ENDS
;	COMDAT ??$_Destroy@U__ITEMGAME@CMiniGame@@@std@@YAXPAU__ITEMGAME@CMiniGame@@@Z
_TEXT	SEGMENT PARA USE32 PUBLIC 'CODE'
_TEXT	ENDS
;	COMDAT ??$_Destroy@U__ITEM@CExchange@@@std@@YAXPAU__ITEM@CExchange@@@Z
_TEXT	SEGMENT PARA USE32 PUBLIC 'CODE'
_TEXT	ENDS
;	COMDAT ??$_Destroy@U__POINT@CExchange@@@std@@YAXPAU__POINT@CExchange@@@Z
_TEXT	SEGMENT PARA USE32 PUBLIC 'CODE'
_TEXT	ENDS
;	COMDAT ??$copy@PAEPAE@std@@YAPAEPAE00@Z
_TEXT	SEGMENT PARA USE32 PUBLIC 'CODE'
_TEXT	ENDS
;	COMDAT ??$_Construct@U__SPAWNREGION@CEventLua@@U12@@std@@YAXPAU__SPAWNREGION@CEventLua@@ABU12@@Z
_TEXT	SEGMENT PARA USE32 PUBLIC 'CODE'
_TEXT	ENDS
;	COMDAT ??$_Destroy@U__SPAWNREGION@CEventLua@@@std@@YAXPAU__SPAWNREGION@CEventLua@@@Z
_TEXT	SEGMENT PARA USE32 PUBLIC 'CODE'
_TEXT	ENDS
;	COMDAT ??$_Destroy@UD3DXVECTOR3@@@std@@YAXPAUD3DXVECTOR3@@@Z
_TEXT	SEGMENT PARA USE32 PUBLIC 'CODE'
_TEXT	ENDS
;	COMDAT ??$_Destroy@U_GIFTBOX@@@std@@YAXPAU_GIFTBOX@@@Z
_TEXT	SEGMENT PARA USE32 PUBLIC 'CODE'
_TEXT	ENDS
;	COMDAT ?construct@?$allocator@V?$basic_string@DU?$char_traits@D@std@@V?$allocator@D@2@@std@@@std@@QAEXPAV?$basic_string@DU?$char_traits@D@std@@V?$allocator@D@2@@2@ABV32@@Z
_TEXT	SEGMENT PARA USE32 PUBLIC 'CODE'
_TEXT	ENDS
;	COMDAT ?destroy@?$allocator@V?$basic_string@DU?$char_traits@D@std@@V?$allocator@D@2@@std@@@std@@QAEXPAV?$basic_string@DU?$char_traits@D@std@@V?$allocator@D@2@@2@@Z
_TEXT	SEGMENT PARA USE32 PUBLIC 'CODE'
_TEXT	ENDS
;	COMDAT ?construct@?$allocator@E@std@@QAEXPAEABE@Z
_TEXT	SEGMENT PARA USE32 PUBLIC 'CODE'
_TEXT	ENDS
;	COMDAT ?destroy@?$allocator@E@std@@QAEXPAE@Z
_TEXT	SEGMENT PARA USE32 PUBLIC 'CODE'
_TEXT	ENDS
;	COMDAT ??Dconst_iterator@?$vector@EV?$allocator@E@std@@@std@@QBEABEXZ
_TEXT	SEGMENT PARA USE32 PUBLIC 'CODE'
_TEXT	ENDS
;	COMDAT ??Econst_iterator@?$vector@EV?$allocator@E@std@@@std@@QAEAAV012@XZ
_TEXT	SEGMENT PARA USE32 PUBLIC 'CODE'
_TEXT	ENDS
;	COMDAT ?destroy@?$allocator@U__SECRETROOM_MONSTER@@@std@@QAEXPAU__SECRETROOM_MONSTER@@@Z
_TEXT	SEGMENT PARA USE32 PUBLIC 'CODE'
_TEXT	ENDS
;	COMDAT ?construct@?$allocator@UMINIGMAME_PRIZE_LIST@CRainbowRaceMng@@@std@@QAEXPAUMINIGMAME_PRIZE_LIST@CRainbowRaceMng@@ABU34@@Z
_TEXT	SEGMENT PARA USE32 PUBLIC 'CODE'
_TEXT	ENDS
;	COMDAT ?destroy@?$allocator@UMINIGMAME_PRIZE_LIST@CRainbowRaceMng@@@std@@QAEXPAUMINIGMAME_PRIZE_LIST@CRainbowRaceMng@@@Z
_TEXT	SEGMENT PARA USE32 PUBLIC 'CODE'
_TEXT	ENDS
;	COMDAT ??$_Insert@Vconst_iterator@?$vector@EV?$allocator@E@std@@@std@@@?$vector@EV?$allocator@E@std@@@std@@QAEXViterator@01@Vconst_iterator@01@1Uforward_iterator_tag@1@@Z
_TEXT	SEGMENT PARA USE32 PUBLIC 'CODE'
_TEXT	ENDS
;	COMDAT ??$_Uninit_copy@PAV?$basic_string@DU?$char_traits@D@std@@V?$allocator@D@2@@std@@PAV12@V?$allocator@V?$basic_string@DU?$char_traits@D@std@@V?$allocator@D@2@@std@@@2@@std@@YAPAV?$basic_string@DU?$char_traits@D@std@@V?$allocator@D@2@@0@PAV10@00AAV?$allocator@V?$basic_string@DU?$char_traits@D@std@@V?$allocator@D@2@@std@@@0@U_Nonscalar_ptr_iterator_tag@0@@Z
_TEXT	SEGMENT PARA USE32 PUBLIC 'CODE'
_TEXT	ENDS
;	COMDAT ??$_Uninit_copy@PAUMINIGMAME_PRIZE_LIST@CRainbowRaceMng@@PAU12@V?$allocator@UMINIGMAME_PRIZE_LIST@CRainbowRaceMng@@@std@@@std@@YAPAUMINIGMAME_PRIZE_LIST@CRainbowRaceMng@@PAU12@00AAV?$allocator@UMINIGMAME_PRIZE_LIST@CRainbowRaceMng@@@0@U_Nonscalar_ptr_iterator_tag@0@@Z
_TEXT	SEGMENT PARA USE32 PUBLIC 'CODE'
_TEXT	ENDS
;	COMDAT ??$_Copy_opt@PAEPAE@std@@YAPAEPAE00U_Scalar_ptr_iterator_tag@0@@Z
_TEXT	SEGMENT PARA USE32 PUBLIC 'CODE'
_TEXT	ENDS
;	COMDAT ??$_Construct@V?$basic_string@DU?$char_traits@D@std@@V?$allocator@D@2@@std@@V12@@std@@YAXPAV?$basic_string@DU?$char_traits@D@std@@V?$allocator@D@2@@0@ABV10@@Z
_TEXT	SEGMENT PARA USE32 PUBLIC 'CODE'
_TEXT	ENDS
;	COMDAT ??$_Destroy@V?$basic_string@DU?$char_traits@D@std@@V?$allocator@D@2@@std@@@std@@YAXPAV?$basic_string@DU?$char_traits@D@std@@V?$allocator@D@2@@0@@Z
_TEXT	SEGMENT PARA USE32 PUBLIC 'CODE'
_TEXT	ENDS
;	COMDAT ??$_Construct@EE@std@@YAXPAEABE@Z
_TEXT	SEGMENT PARA USE32 PUBLIC 'CODE'
_TEXT	ENDS
;	COMDAT ??$_Destroy@E@std@@YAXPAE@Z
_TEXT	SEGMENT PARA USE32 PUBLIC 'CODE'
_TEXT	ENDS
;	COMDAT ??$_Destroy@U__SECRETROOM_MONSTER@@@std@@YAXPAU__SECRETROOM_MONSTER@@@Z
_TEXT	SEGMENT PARA USE32 PUBLIC 'CODE'
_TEXT	ENDS
;	COMDAT ??$_Construct@UMINIGMAME_PRIZE_LIST@CRainbowRaceMng@@U12@@std@@YAXPAUMINIGMAME_PRIZE_LIST@CRainbowRaceMng@@ABU12@@Z
_TEXT	SEGMENT PARA USE32 PUBLIC 'CODE'
_TEXT	ENDS
;	COMDAT ??$_Destroy@UMINIGMAME_PRIZE_LIST@CRainbowRaceMng@@@std@@YAXPAUMINIGMAME_PRIZE_LIST@CRainbowRaceMng@@@Z
_TEXT	SEGMENT PARA USE32 PUBLIC 'CODE'
_TEXT	ENDS
;	COMDAT ??_G?$basic_string@DU?$char_traits@D@std@@V?$allocator@D@2@@std@@QAEPAXI@Z
_TEXT	SEGMENT PARA USE32 PUBLIC 'CODE'
_TEXT	ENDS
;	COMDAT ?capacity@?$vector@EV?$allocator@E@std@@@std@@QBEIXZ
_TEXT	SEGMENT PARA USE32 PUBLIC 'CODE'
_TEXT	ENDS
;	COMDAT ??Giterator@?$vector@EV?$allocator@E@std@@@std@@QBEHABVconst_iterator@12@@Z
_TEXT	SEGMENT PARA USE32 PUBLIC 'CODE'
_TEXT	ENDS
;	COMDAT ??Gconst_iterator@?$vector@EV?$allocator@E@std@@@std@@QBEHABV012@@Z
_TEXT	SEGMENT PARA USE32 PUBLIC 'CODE'
_TEXT	ENDS
;	COMDAT ??$_Distance@Vconst_iterator@?$vector@EV?$allocator@E@std@@@std@@I@std@@YAXVconst_iterator@?$vector@EV?$allocator@E@std@@@0@0AAI@Z
_TEXT	SEGMENT PARA USE32 PUBLIC 'CODE'
_TEXT	ENDS
;	COMDAT ??$_Ucopy@PAE@?$vector@EV?$allocator@E@std@@@std@@IAEPAEPAE00@Z
_TEXT	SEGMENT PARA USE32 PUBLIC 'CODE'
_TEXT	ENDS
;	COMDAT ??$advance@Vconst_iterator@?$vector@EV?$allocator@E@std@@@std@@H@std@@YAXAAVconst_iterator@?$vector@EV?$allocator@E@std@@@0@H@Z
_TEXT	SEGMENT PARA USE32 PUBLIC 'CODE'
_TEXT	ENDS
;	COMDAT ??$copy@Vconst_iterator@?$vector@EV?$allocator@E@std@@@std@@PAE@std@@YAPAEVconst_iterator@?$vector@EV?$allocator@E@std@@@0@0PAE@Z
_TEXT	SEGMENT PARA USE32 PUBLIC 'CODE'
_TEXT	ENDS
;	COMDAT ??$copy_backward@PAEPAE@std@@YAPAEPAE00@Z
_TEXT	SEGMENT PARA USE32 PUBLIC 'CODE'
_TEXT	ENDS
;	COMDAT ??$_Distance2@Vconst_iterator@?$vector@EV?$allocator@E@std@@@std@@I@std@@YAXVconst_iterator@?$vector@EV?$allocator@E@std@@@0@0AAIUrandom_access_iterator_tag@0@@Z
_TEXT	SEGMENT PARA USE32 PUBLIC 'CODE'
_TEXT	ENDS
;	COMDAT ??$_Uninitialized_copy@PAEPAEV?$allocator@E@std@@@std@@YAPAEPAE00AAV?$allocator@E@0@@Z
_TEXT	SEGMENT PARA USE32 PUBLIC 'CODE'
_TEXT	ENDS
;	COMDAT ??$_Advance@Vconst_iterator@?$vector@EV?$allocator@E@std@@@std@@H@std@@YAXAAVconst_iterator@?$vector@EV?$allocator@E@std@@@0@HUrandom_access_iterator_tag@0@@Z
_TEXT	SEGMENT PARA USE32 PUBLIC 'CODE'
_TEXT	ENDS
;	COMDAT ??$_Copy_opt@Vconst_iterator@?$vector@EV?$allocator@E@std@@@std@@PAE@std@@YAPAEVconst_iterator@?$vector@EV?$allocator@E@std@@@0@0PAEU_Nonscalar_ptr_iterator_tag@0@@Z
_TEXT	SEGMENT PARA USE32 PUBLIC 'CODE'
_TEXT	ENDS
;	COMDAT ??$_Copy_backward_opt@PAEPAE@std@@YAPAEPAE00U_Scalar_ptr_iterator_tag@0@@Z
_TEXT	SEGMENT PARA USE32 PUBLIC 'CODE'
_TEXT	ENDS
;	COMDAT ??Yconst_iterator@?$vector@EV?$allocator@E@std@@@std@@QAEAAV012@H@Z
_TEXT	SEGMENT PARA USE32 PUBLIC 'CODE'
_TEXT	ENDS
;	COMDAT ??$_Uninit_copy@EE@std@@YAPAEPAE00AAV?$allocator@E@0@U_Scalar_ptr_iterator_tag@0@@Z
_TEXT	SEGMENT PARA USE32 PUBLIC 'CODE'
_TEXT	ENDS
;	COMDAT ?deallocate@?$allocator@E@std@@QAEXPAEI@Z
_TEXT	SEGMENT PARA USE32 PUBLIC 'CODE'
_TEXT	ENDS
;	COMDAT ??$_Ucopy@Vconst_iterator@?$vector@EV?$allocator@E@std@@@std@@@?$vector@EV?$allocator@E@std@@@std@@IAEPAEVconst_iterator@01@0PAE@Z
_TEXT	SEGMENT PARA USE32 PUBLIC 'CODE'
_TEXT	ENDS
;	COMDAT ?allocate@?$allocator@E@std@@QAEPAEI@Z
_TEXT	SEGMENT PARA USE32 PUBLIC 'CODE'
_TEXT	ENDS
;	COMDAT ??$_Allocate@E@std@@YAPAEIPAE@Z
_TEXT	SEGMENT PARA USE32 PUBLIC 'CODE'
_TEXT	ENDS
;	COMDAT ?_Xlen@?$vector@EV?$allocator@E@std@@@std@@IBEXXZ
_TEXT	SEGMENT PARA USE32 PUBLIC 'CODE'
_TEXT	ENDS
;	COMDAT ?size@?$vector@EV?$allocator@E@std@@@std@@QBEIXZ
_TEXT	SEGMENT PARA USE32 PUBLIC 'CODE'
_TEXT	ENDS
;	COMDAT ?max_size@?$vector@EV?$allocator@E@std@@@std@@QBEIXZ
_TEXT	SEGMENT PARA USE32 PUBLIC 'CODE'
_TEXT	ENDS
;	COMDAT ?max_size@?$allocator@E@std@@QBEIXZ
_TEXT	SEGMENT PARA USE32 PUBLIC 'CODE'
_TEXT	ENDS
;	COMDAT ?_Ptr_cat@std@@YA?AU_Scalar_ptr_iterator_tag@1@PAE0@Z
_TEXT	SEGMENT PARA USE32 PUBLIC 'CODE'
_TEXT	ENDS
;	COMDAT ??0const_iterator@?$vector@EV?$allocator@E@std@@@std@@QAE@PAE@Z
_TEXT	SEGMENT PARA USE32 PUBLIC 'CODE'
_TEXT	ENDS
;	COMDAT ?_Destroy@?$vector@EV?$allocator@E@std@@@std@@IAEXPAE0@Z
_TEXT	SEGMENT PARA USE32 PUBLIC 'CODE'
_TEXT	ENDS
;	COMDAT ??$_Destroy_range@EV?$allocator@E@std@@@std@@YAXPAE0AAV?$allocator@E@0@@Z
_TEXT	SEGMENT PARA USE32 PUBLIC 'CODE'
_TEXT	ENDS
;	COMDAT ??4?$basic_string@DU?$char_traits@D@std@@V?$allocator@D@2@@std@@QAEAAV01@ABV01@@Z
_TEXT	SEGMENT PARA USE32 PUBLIC 'CODE'
_TEXT	ENDS
;	COMDAT ?assign@?$basic_string@DU?$char_traits@D@std@@V?$allocator@D@2@@std@@QAEAAV12@ABV12@@Z
_TEXT	SEGMENT PARA USE32 PUBLIC 'CODE'
_TEXT	ENDS
;	COMDAT ?assign@?$basic_string@DU?$char_traits@D@std@@V?$allocator@D@2@@std@@QAEAAV12@ABV12@II@Z
_TEXT	SEGMENT PARA USE32 PUBLIC 'CODE'
_TEXT	ENDS
;	COMDAT ?erase@?$basic_string@DU?$char_traits@D@std@@V?$allocator@D@2@@std@@QAEAAV12@II@Z
_TEXT	SEGMENT PARA USE32 PUBLIC 'CODE'
_TEXT	ENDS
;	COMDAT ?move@?$char_traits@D@std@@SAPADPADPBDI@Z
_TEXT	SEGMENT PARA USE32 PUBLIC 'CODE'
_TEXT	ENDS
;	COMDAT ?_Grow@?$basic_string@DU?$char_traits@D@std@@V?$allocator@D@2@@std@@IAE_NI_N@Z
_TEXT	SEGMENT PARA USE32 PUBLIC 'CODE'
_TEXT	ENDS
;	COMDAT ?max_size@?$basic_string@DU?$char_traits@D@std@@V?$allocator@D@2@@std@@QBEIXZ
_TEXT	SEGMENT PARA USE32 PUBLIC 'CODE'
_TEXT	ENDS
;	COMDAT ?max_size@?$allocator@D@std@@QBEIXZ
_TEXT	SEGMENT PARA USE32 PUBLIC 'CODE'
_TEXT	ENDS
;	COMDAT ?_Copy@?$basic_string@DU?$char_traits@D@std@@V?$allocator@D@2@@std@@IAEXII@Z
_TEXT	SEGMENT PARA USE32 PUBLIC 'CODE'
_TEXT	ENDS
;	COMDAT ?allocate@?$allocator@D@std@@QAEPADI@Z
_TEXT	SEGMENT PARA USE32 PUBLIC 'CODE'
_TEXT	ENDS
;	COMDAT ??$_Allocate@D@std@@YAPADIPAD@Z
_TEXT	SEGMENT PARA USE32 PUBLIC 'CODE'
_TEXT	ENDS
;	COMDAT ?_Tidy@?$basic_string@DU?$char_traits@D@std@@V?$allocator@D@2@@std@@IAEX_NI@Z
_TEXT	SEGMENT PARA USE32 PUBLIC 'CODE'
_TEXT	ENDS
;	COMDAT ?deallocate@?$allocator@D@std@@QAEXPADI@Z
_TEXT	SEGMENT PARA USE32 PUBLIC 'CODE'
_TEXT	ENDS
;	COMDAT ?copy@?$char_traits@D@std@@SAPADPADPBDI@Z
_TEXT	SEGMENT PARA USE32 PUBLIC 'CODE'
_TEXT	ENDS
;	COMDAT ?_Myptr@?$basic_string@DU?$char_traits@D@std@@V?$allocator@D@2@@std@@QAEPADXZ
_TEXT	SEGMENT PARA USE32 PUBLIC 'CODE'
_TEXT	ENDS
;	COMDAT ?_Eos@?$basic_string@DU?$char_traits@D@std@@V?$allocator@D@2@@std@@IAEXI@Z
_TEXT	SEGMENT PARA USE32 PUBLIC 'CODE'
_TEXT	ENDS
;	COMDAT ?assign@?$char_traits@D@std@@SAXAADABD@Z
_TEXT	SEGMENT PARA USE32 PUBLIC 'CODE'
_TEXT	ENDS
;	COMDAT ?npos@?$basic_string@DU?$char_traits@D@std@@V?$allocator@D@2@@std@@2IB
CONST	SEGMENT DWORD USE32 PUBLIC 'CONST'
CONST	ENDS
;	COMDAT ??_7?$CFixedArray@UtagWORLD@@@@6B@
CONST	SEGMENT DWORD USE32 PUBLIC 'CONST'
CONST	ENDS
;	COMDAT ?_Ptr_cat@std@@YA?AU_Scalar_ptr_iterator_tag@1@PAJ0@Z
_TEXT	SEGMENT PARA USE32 PUBLIC 'CODE'
_TEXT	ENDS
;	COMDAT ??9const_iterator@?$_Tree@V?$_Tmap_traits@KEU?$less@K@std@@V?$allocator@U?$pair@$$CBKE@std@@@2@$0A@@std@@@std@@QBE_NABV012@@Z
_TEXT	SEGMENT PARA USE32 PUBLIC 'CODE'
_TEXT	ENDS
;	COMDAT ??8const_iterator@?$_Tree@V?$_Tmap_traits@KEU?$less@K@std@@V?$allocator@U?$pair@$$CBKE@std@@@2@$0A@@std@@@std@@QBE_NABV012@@Z
_TEXT	SEGMENT PARA USE32 PUBLIC 'CODE'
_TEXT	ENDS
;	COMDAT ??Eiterator@?$_Tree@V?$_Tmap_traits@KEU?$less@K@std@@V?$allocator@U?$pair@$$CBKE@std@@@2@$0A@@std@@@std@@QAEAAV012@XZ
_TEXT	SEGMENT PARA USE32 PUBLIC 'CODE'
_TEXT	ENDS
;	COMDAT ??Econst_iterator@?$_Tree@V?$_Tmap_traits@KEU?$less@K@std@@V?$allocator@U?$pair@$$CBKE@std@@@2@$0A@@std@@@std@@QAEAAV012@XZ
_TEXT	SEGMENT PARA USE32 PUBLIC 'CODE'
_TEXT	ENDS
;	COMDAT ?_Inc@const_iterator@?$_Tree@V?$_Tmap_traits@KEU?$less@K@std@@V?$allocator@U?$pair@$$CBKE@std@@@2@$0A@@std@@@std@@QAEXXZ
_TEXT	SEGMENT PARA USE32 PUBLIC 'CODE'
_TEXT	ENDS
;	COMDAT ?_Min@?$_Tree@V?$_Tmap_traits@KEU?$less@K@std@@V?$allocator@U?$pair@$$CBKE@std@@@2@$0A@@std@@@std@@KAPAU_Node@?$_Tree_nod@V?$_Tmap_traits@KEU?$less@K@std@@V?$allocator@U?$pair@$$CBKE@std@@@2@$0A@@std@@@2@PAU342@@Z
_TEXT	SEGMENT PARA USE32 PUBLIC 'CODE'
_TEXT	ENDS
;	COMDAT ?_Left@?$_Tree@V?$_Tmap_traits@KEU?$less@K@std@@V?$allocator@U?$pair@$$CBKE@std@@@2@$0A@@std@@@std@@KAAAPAU_Node@?$_Tree_nod@V?$_Tmap_traits@KEU?$less@K@std@@V?$allocator@U?$pair@$$CBKE@std@@@2@$0A@@std@@@2@PAU342@@Z
_TEXT	SEGMENT PARA USE32 PUBLIC 'CODE'
_TEXT	ENDS
;	COMDAT ?_Isnil@?$_Tree@V?$_Tmap_traits@KEU?$less@K@std@@V?$allocator@U?$pair@$$CBKE@std@@@2@$0A@@std@@@std@@KAAADPAU_Node@?$_Tree_nod@V?$_Tmap_traits@KEU?$less@K@std@@V?$allocator@U?$pair@$$CBKE@std@@@2@$0A@@std@@@2@@Z
_TEXT	SEGMENT PARA USE32 PUBLIC 'CODE'
_TEXT	ENDS
;	COMDAT ?_Parent@?$_Tree@V?$_Tmap_traits@KEU?$less@K@std@@V?$allocator@U?$pair@$$CBKE@std@@@2@$0A@@std@@@std@@KAAAPAU_Node@?$_Tree_nod@V?$_Tmap_traits@KEU?$less@K@std@@V?$allocator@U?$pair@$$CBKE@std@@@2@$0A@@std@@@2@PAU342@@Z
_TEXT	SEGMENT PARA USE32 PUBLIC 'CODE'
_TEXT	ENDS
;	COMDAT ?_Right@?$_Tree@V?$_Tmap_traits@KEU?$less@K@std@@V?$allocator@U?$pair@$$CBKE@std@@@2@$0A@@std@@@std@@KAAAPAU_Node@?$_Tree_nod@V?$_Tmap_traits@KEU?$less@K@std@@V?$allocator@U?$pair@$$CBKE@std@@@2@$0A@@std@@@2@PAU342@@Z
_TEXT	SEGMENT PARA USE32 PUBLIC 'CODE'
_TEXT	ENDS
;	COMDAT ??9const_iterator@?$_Tree@V?$_Tmap_traits@KPAVCCtrl@@U?$less@K@std@@V?$allocator@U?$pair@$$CBKPAVCCtrl@@@std@@@3@$0A@@std@@@std@@QBE_NABV012@@Z
_TEXT	SEGMENT PARA USE32 PUBLIC 'CODE'
_TEXT	ENDS
;	COMDAT ??9const_iterator@?$_Tree@V?$_Tmap_traits@KPAVCUser@@U?$less@K@std@@V?$allocator@U?$pair@$$CBKPAVCUser@@@std@@@3@$0A@@std@@@std@@QBE_NABV012@@Z
_TEXT	SEGMENT PARA USE32 PUBLIC 'CODE'
_TEXT	ENDS
;	COMDAT ??8const_iterator@?$_Tree@V?$_Tmap_traits@KPAVCUser@@U?$less@K@std@@V?$allocator@U?$pair@$$CBKPAVCUser@@@std@@@3@$0A@@std@@@std@@QBE_NABV012@@Z
_TEXT	SEGMENT PARA USE32 PUBLIC 'CODE'
_TEXT	ENDS
;	COMDAT ??Eiterator@?$_Tree@V?$_Tmap_traits@KPAVCUser@@U?$less@K@std@@V?$allocator@U?$pair@$$CBKPAVCUser@@@std@@@3@$0A@@std@@@std@@QAEAAV012@XZ
_TEXT	SEGMENT PARA USE32 PUBLIC 'CODE'
_TEXT	ENDS
;	COMDAT ??Econst_iterator@?$_Tree@V?$_Tmap_traits@KPAVCUser@@U?$less@K@std@@V?$allocator@U?$pair@$$CBKPAVCUser@@@std@@@3@$0A@@std@@@std@@QAEAAV012@XZ
_TEXT	SEGMENT PARA USE32 PUBLIC 'CODE'
_TEXT	ENDS
;	COMDAT ?_Inc@const_iterator@?$_Tree@V?$_Tmap_traits@KPAVCUser@@U?$less@K@std@@V?$allocator@U?$pair@$$CBKPAVCUser@@@std@@@3@$0A@@std@@@std@@QAEXXZ
_TEXT	SEGMENT PARA USE32 PUBLIC 'CODE'
_TEXT	ENDS
;	COMDAT ?_Min@?$_Tree@V?$_Tmap_traits@KPAVCUser@@U?$less@K@std@@V?$allocator@U?$pair@$$CBKPAVCUser@@@std@@@3@$0A@@std@@@std@@KAPAU_Node@?$_Tree_nod@V?$_Tmap_traits@KPAVCUser@@U?$less@K@std@@V?$allocator@U?$pair@$$CBKPAVCUser@@@std@@@3@$0A@@std@@@2@PAU342@@Z
_TEXT	SEGMENT PARA USE32 PUBLIC 'CODE'
_TEXT	ENDS
;	COMDAT ?_Left@?$_Tree@V?$_Tmap_traits@KPAVCUser@@U?$less@K@std@@V?$allocator@U?$pair@$$CBKPAVCUser@@@std@@@3@$0A@@std@@@std@@KAAAPAU_Node@?$_Tree_nod@V?$_Tmap_traits@KPAVCUser@@U?$less@K@std@@V?$allocator@U?$pair@$$CBKPAVCUser@@@std@@@3@$0A@@std@@@2@PAU342@@Z
_TEXT	SEGMENT PARA USE32 PUBLIC 'CODE'
_TEXT	ENDS
;	COMDAT ?_Isnil@?$_Tree@V?$_Tmap_traits@KPAVCUser@@U?$less@K@std@@V?$allocator@U?$pair@$$CBKPAVCUser@@@std@@@3@$0A@@std@@@std@@KAAADPAU_Node@?$_Tree_nod@V?$_Tmap_traits@KPAVCUser@@U?$less@K@std@@V?$allocator@U?$pair@$$CBKPAVCUser@@@std@@@3@$0A@@std@@@2@@Z
_TEXT	SEGMENT PARA USE32 PUBLIC 'CODE'
_TEXT	ENDS
;	COMDAT ?_Parent@?$_Tree@V?$_Tmap_traits@KPAVCUser@@U?$less@K@std@@V?$allocator@U?$pair@$$CBKPAVCUser@@@std@@@3@$0A@@std@@@std@@KAAAPAU_Node@?$_Tree_nod@V?$_Tmap_traits@KPAVCUser@@U?$less@K@std@@V?$allocator@U?$pair@$$CBKPAVCUser@@@std@@@3@$0A@@std@@@2@PAU342@@Z
_TEXT	SEGMENT PARA USE32 PUBLIC 'CODE'
_TEXT	ENDS
;	COMDAT ?_Right@?$_Tree@V?$_Tmap_traits@KPAVCUser@@U?$less@K@std@@V?$allocator@U?$pair@$$CBKPAVCUser@@@std@@@3@$0A@@std@@@std@@KAAAPAU_Node@?$_Tree_nod@V?$_Tmap_traits@KPAVCUser@@U?$less@K@std@@V?$allocator@U?$pair@$$CBKPAVCUser@@@std@@@3@$0A@@std@@@2@PAU342@@Z
_TEXT	SEGMENT PARA USE32 PUBLIC 'CODE'
_TEXT	ENDS
;	COMDAT ?GetAtId@?$CItemContainer@VCItemElem@@@@QAEPAVCItemElem@@K@Z
_TEXT	SEGMENT PARA USE32 PUBLIC 'CODE'
_TEXT	ENDS
;	COMDAT ?IsEmpty@CItemBase@@QAEHXZ
_TEXT	SEGMENT PARA USE32 PUBLIC 'CODE'
_TEXT	ENDS
;	COMDAT ?_Psave@?$_Facetptr@V?$ctype@G@std@@@std@@2PBVfacet@locale@2@B
_DATA	SEGMENT DWORD USE32 PUBLIC 'DATA'
_DATA	ENDS
;	COMDAT ?_Psave@?$_Facetptr@V?$ctype@D@std@@@std@@2PBVfacet@locale@2@B
_DATA	SEGMENT DWORD USE32 PUBLIC 'DATA'
_DATA	ENDS
;	COMDAT ??3@YAXPAX0@Z
_TEXT	SEGMENT PARA USE32 PUBLIC 'CODE'
_TEXT	ENDS
;	COMDAT ??2@YAPAXIPAX@Z
_TEXT	SEGMENT PARA USE32 PUBLIC 'CODE'
_TEXT	ENDS
;	COMDAT ??0?$basic_string@DU?$char_traits@D@std@@V?$allocator@D@2@@std@@QAE@ABV01@@Z
_TEXT	SEGMENT PARA USE32 PUBLIC 'CODE'
_TEXT	ENDS
;	COMDAT ??0?$_String_val@DV?$allocator@D@std@@@std@@IAE@V?$allocator@D@1@@Z
_TEXT	SEGMENT PARA USE32 PUBLIC 'CODE'
_TEXT	ENDS
;	COMDAT ??0?$allocator@D@std@@QAE@ABV01@@Z
_TEXT	SEGMENT PARA USE32 PUBLIC 'CODE'
_TEXT	ENDS
;	COMDAT ??_C@_0BD@OLBABOEK@vector?$DMT?$DO?5too?5long?$AA@
CONST	SEGMENT DWORD USE32 PUBLIC 'CONST'
CONST	ENDS
;	COMDAT ??$swap@D@std@@YAXAAD0@Z
_TEXT	SEGMENT PARA USE32 PUBLIC 'CODE'
_TEXT	ENDS
;	COMDAT __TI3?AVout_of_range@std@@
xdata$x	SEGMENT DWORD USE32 PUBLIC 'CONST'
xdata$x	ENDS
;	COMDAT ??1out_of_range@std@@UAE@XZ
_TEXT	SEGMENT PARA USE32 PUBLIC 'CODE'
_TEXT	ENDS
;	COMDAT ??_7out_of_range@std@@6B@
CONST	SEGMENT DWORD USE32 PUBLIC 'CONST'
CONST	ENDS
;	COMDAT ??_Gout_of_range@std@@UAEPAXI@Z
_TEXT	SEGMENT PARA USE32 PUBLIC 'CODE'
_TEXT	ENDS
;	COMDAT ?what@logic_error@std@@UBEPBDXZ
_TEXT	SEGMENT PARA USE32 PUBLIC 'CODE'
_TEXT	ENDS
;	COMDAT ??1logic_error@std@@UAE@XZ
_TEXT	SEGMENT PARA USE32 PUBLIC 'CODE'
_TEXT	ENDS
;	COMDAT ??_7logic_error@std@@6B@
CONST	SEGMENT DWORD USE32 PUBLIC 'CONST'
CONST	ENDS
;	COMDAT ??_Glogic_error@std@@UAEPAXI@Z
_TEXT	SEGMENT PARA USE32 PUBLIC 'CODE'
_TEXT	ENDS
;	COMDAT __CTA3?AVout_of_range@std@@
xdata$x	SEGMENT DWORD USE32 PUBLIC 'CONST'
xdata$x	ENDS
;	COMDAT __CT??_R0?AVout_of_range@std@@@8??0out_of_range@std@@QAE@ABV01@@Z40
xdata$x	SEGMENT DWORD USE32 PUBLIC 'CONST'
xdata$x	ENDS
;	COMDAT ??_R0?AVout_of_range@std@@@8
_DATA	SEGMENT DWORD USE32 PUBLIC 'DATA'
_DATA	ENDS
;	COMDAT ??0out_of_range@std@@QAE@ABV01@@Z
_TEXT	SEGMENT PARA USE32 PUBLIC 'CODE'
_TEXT	ENDS
;	COMDAT ??0logic_error@std@@QAE@ABV01@@Z
_TEXT	SEGMENT PARA USE32 PUBLIC 'CODE'
_TEXT	ENDS
;	COMDAT __CT??_R0?AVlogic_error@std@@@8??0logic_error@std@@QAE@ABV01@@Z40
xdata$x	SEGMENT DWORD USE32 PUBLIC 'CONST'
xdata$x	ENDS
;	COMDAT ??_R0?AVlogic_error@std@@@8
_DATA	SEGMENT DWORD USE32 PUBLIC 'DATA'
_DATA	ENDS
;	COMDAT __CT??_R0?AVexception@@@8??0exception@@QAE@ABV0@@Z12
xdata$x	SEGMENT DWORD USE32 PUBLIC 'CONST'
xdata$x	ENDS
;	COMDAT ??_R0?AVexception@@@8
_DATA	SEGMENT DWORD USE32 PUBLIC 'DATA'
_DATA	ENDS
;	COMDAT ??_C@_0BM@PAPJHAGI@invalid?5map?1set?$DMT?$DO?5iterator?$AA@
CONST	SEGMENT DWORD USE32 PUBLIC 'CONST'
CONST	ENDS
;	COMDAT ??0out_of_range@std@@QAE@ABV?$basic_string@DU?$char_traits@D@std@@V?$allocator@D@2@@1@@Z
_TEXT	SEGMENT PARA USE32 PUBLIC 'CODE'
_TEXT	ENDS
;	COMDAT ??0logic_error@std@@QAE@ABV?$basic_string@DU?$char_traits@D@std@@V?$allocator@D@2@@1@@Z
_TEXT	SEGMENT PARA USE32 PUBLIC 'CODE'
_TEXT	ENDS
;	COMDAT __TI3?AVlength_error@std@@
xdata$x	SEGMENT DWORD USE32 PUBLIC 'CONST'
xdata$x	ENDS
;	COMDAT ??1length_error@std@@UAE@XZ
_TEXT	SEGMENT PARA USE32 PUBLIC 'CODE'
_TEXT	ENDS
;	COMDAT ??_7length_error@std@@6B@
CONST	SEGMENT DWORD USE32 PUBLIC 'CONST'
CONST	ENDS
;	COMDAT ??_Glength_error@std@@UAEPAXI@Z
_TEXT	SEGMENT PARA USE32 PUBLIC 'CODE'
_TEXT	ENDS
;	COMDAT __CTA3?AVlength_error@std@@
xdata$x	SEGMENT DWORD USE32 PUBLIC 'CONST'
xdata$x	ENDS
;	COMDAT __CT??_R0?AVlength_error@std@@@8??0length_error@std@@QAE@ABV01@@Z40
xdata$x	SEGMENT DWORD USE32 PUBLIC 'CONST'
xdata$x	ENDS
;	COMDAT ??_R0?AVlength_error@std@@@8
_DATA	SEGMENT DWORD USE32 PUBLIC 'DATA'
_DATA	ENDS
;	COMDAT ??0length_error@std@@QAE@ABV01@@Z
_TEXT	SEGMENT PARA USE32 PUBLIC 'CODE'
_TEXT	ENDS
;	COMDAT ??_C@_0BE@JONHPENG@map?1set?$DMT?$DO?5too?5long?$AA@
CONST	SEGMENT DWORD USE32 PUBLIC 'CONST'
CONST	ENDS
;	COMDAT ??0length_error@std@@QAE@ABV?$basic_string@DU?$char_traits@D@std@@V?$allocator@D@2@@1@@Z
_TEXT	SEGMENT PARA USE32 PUBLIC 'CODE'
_TEXT	ENDS
;	COMDAT ?insert@?$_Tree@V?$_Tmap_traits@KPAVCCtrl@@U?$less@K@std@@V?$allocator@U?$pair@$$CBKPAVCCtrl@@@std@@@3@$0A@@std@@@std@@QAE?AU?$pair@Viterator@?$_Tree@V?$_Tmap_traits@KPAVCCtrl@@U?$less@K@std@@V?$allocator@U?$pair@$$CBKPAVCCtrl@@@std@@@3@$0A@@std@@@std@@_N@2@ABU?$pair@$$CBKPAVCCtrl@@@2@@Z
_TEXT	SEGMENT PARA USE32 PUBLIC 'CODE'
_TEXT	ENDS
;	COMDAT ?_Root@?$_Tree@V?$_Tmap_traits@KPAVCCtrl@@U?$less@K@std@@V?$allocator@U?$pair@$$CBKPAVCCtrl@@@std@@@3@$0A@@std@@@std@@IAEAAPAU_Node@?$_Tree_nod@V?$_Tmap_traits@KPAVCCtrl@@U?$less@K@std@@V?$allocator@U?$pair@$$CBKPAVCCtrl@@@std@@@3@$0A@@std@@@2@XZ
_TEXT	SEGMENT PARA USE32 PUBLIC 'CODE'
_TEXT	ENDS
;	COMDAT ?_Parent@?$_Tree@V?$_Tmap_traits@KPAVCCtrl@@U?$less@K@std@@V?$allocator@U?$pair@$$CBKPAVCCtrl@@@std@@@3@$0A@@std@@@std@@KAAAPAU_Node@?$_Tree_nod@V?$_Tmap_traits@KPAVCCtrl@@U?$less@K@std@@V?$allocator@U?$pair@$$CBKPAVCCtrl@@@std@@@3@$0A@@std@@@2@PAU342@@Z
_TEXT	SEGMENT PARA USE32 PUBLIC 'CODE'
_TEXT	ENDS
;	COMDAT ?_Left@?$_Tree@V?$_Tmap_traits@KPAVCCtrl@@U?$less@K@std@@V?$allocator@U?$pair@$$CBKPAVCCtrl@@@std@@@3@$0A@@std@@@std@@KAAAPAU_Node@?$_Tree_nod@V?$_Tmap_traits@KPAVCCtrl@@U?$less@K@std@@V?$allocator@U?$pair@$$CBKPAVCCtrl@@@std@@@3@$0A@@std@@@2@PAU342@@Z
_TEXT	SEGMENT PARA USE32 PUBLIC 'CODE'
_TEXT	ENDS
;	COMDAT ??0iterator@?$_Tree@V?$_Tmap_traits@KPAVCCtrl@@U?$less@K@std@@V?$allocator@U?$pair@$$CBKPAVCCtrl@@@std@@@3@$0A@@std@@@std@@QAE@PAU_Node@?$_Tree_nod@V?$_Tmap_traits@KPAVCCtrl@@U?$less@K@std@@V?$allocator@U?$pair@$$CBKPAVCCtrl@@@std@@@3@$0A@@std@@@2@@Z
_TEXT	SEGMENT PARA USE32 PUBLIC 'CODE'
_TEXT	ENDS
;	COMDAT ??0const_iterator@?$_Tree@V?$_Tmap_traits@KPAVCCtrl@@U?$less@K@std@@V?$allocator@U?$pair@$$CBKPAVCCtrl@@@std@@@3@$0A@@std@@@std@@QAE@PAU_Node@?$_Tree_nod@V?$_Tmap_traits@KPAVCCtrl@@U?$less@K@std@@V?$allocator@U?$pair@$$CBKPAVCCtrl@@@std@@@3@$0A@@std@@@2@@Z
_TEXT	SEGMENT PARA USE32 PUBLIC 'CODE'
_TEXT	ENDS
;	COMDAT ??0?$pair@Viterator@?$_Tree@V?$_Tmap_traits@KPAVCCtrl@@U?$less@K@std@@V?$allocator@U?$pair@$$CBKPAVCCtrl@@@std@@@3@$0A@@std@@@std@@_N@std@@QAE@ABViterator@?$_Tree@V?$_Tmap_traits@KPAVCCtrl@@U?$less@K@std@@V?$allocator@U?$pair@$$CBKPAVCCtrl@@@std@@@3@$0A@@std@@@1@AB_N@Z
_TEXT	SEGMENT PARA USE32 PUBLIC 'CODE'
_TEXT	ENDS
;	COMDAT ??Eiterator@?$_Tree@V?$_Tmap_traits@KPAVCCtrl@@U?$less@K@std@@V?$allocator@U?$pair@$$CBKPAVCCtrl@@@std@@@3@$0A@@std@@@std@@QAEAAV012@XZ
_TEXT	SEGMENT PARA USE32 PUBLIC 'CODE'
_TEXT	ENDS
;	COMDAT ??Econst_iterator@?$_Tree@V?$_Tmap_traits@KPAVCCtrl@@U?$less@K@std@@V?$allocator@U?$pair@$$CBKPAVCCtrl@@@std@@@3@$0A@@std@@@std@@QAEAAV012@XZ
_TEXT	SEGMENT PARA USE32 PUBLIC 'CODE'
_TEXT	ENDS
;	COMDAT ?_Inc@const_iterator@?$_Tree@V?$_Tmap_traits@KPAVCCtrl@@U?$less@K@std@@V?$allocator@U?$pair@$$CBKPAVCCtrl@@@std@@@3@$0A@@std@@@std@@QAEXXZ
_TEXT	SEGMENT PARA USE32 PUBLIC 'CODE'
_TEXT	ENDS
;	COMDAT ?_Min@?$_Tree@V?$_Tmap_traits@KPAVCCtrl@@U?$less@K@std@@V?$allocator@U?$pair@$$CBKPAVCCtrl@@@std@@@3@$0A@@std@@@std@@KAPAU_Node@?$_Tree_nod@V?$_Tmap_traits@KPAVCCtrl@@U?$less@K@std@@V?$allocator@U?$pair@$$CBKPAVCCtrl@@@std@@@3@$0A@@std@@@2@PAU342@@Z
_TEXT	SEGMENT PARA USE32 PUBLIC 'CODE'
_TEXT	ENDS
;	COMDAT ?_Right@?$_Tree@V?$_Tmap_traits@KPAVCCtrl@@U?$less@K@std@@V?$allocator@U?$pair@$$CBKPAVCCtrl@@@std@@@3@$0A@@std@@@std@@KAAAPAU_Node@?$_Tree_nod@V?$_Tmap_traits@KPAVCCtrl@@U?$less@K@std@@V?$allocator@U?$pair@$$CBKPAVCCtrl@@@std@@@3@$0A@@std@@@2@PAU342@@Z
_TEXT	SEGMENT PARA USE32 PUBLIC 'CODE'
_TEXT	ENDS
;	COMDAT ?_Isnil@?$_Tree@V?$_Tmap_traits@KPAVCCtrl@@U?$less@K@std@@V?$allocator@U?$pair@$$CBKPAVCCtrl@@@std@@@3@$0A@@std@@@std@@KAAADPAU_Node@?$_Tree_nod@V?$_Tmap_traits@KPAVCCtrl@@U?$less@K@std@@V?$allocator@U?$pair@$$CBKPAVCCtrl@@@std@@@3@$0A@@std@@@2@@Z
_TEXT	SEGMENT PARA USE32 PUBLIC 'CODE'
_TEXT	ENDS
;	COMDAT ??Fiterator@?$_Tree@V?$_Tmap_traits@KPAVCCtrl@@U?$less@K@std@@V?$allocator@U?$pair@$$CBKPAVCCtrl@@@std@@@3@$0A@@std@@@std@@QAEAAV012@XZ
_TEXT	SEGMENT PARA USE32 PUBLIC 'CODE'
_TEXT	ENDS
;	COMDAT ??Fconst_iterator@?$_Tree@V?$_Tmap_traits@KPAVCCtrl@@U?$less@K@std@@V?$allocator@U?$pair@$$CBKPAVCCtrl@@@std@@@3@$0A@@std@@@std@@QAEAAV012@XZ
_TEXT	SEGMENT PARA USE32 PUBLIC 'CODE'
_TEXT	ENDS
;	COMDAT ?_Dec@const_iterator@?$_Tree@V?$_Tmap_traits@KPAVCCtrl@@U?$less@K@std@@V?$allocator@U?$pair@$$CBKPAVCCtrl@@@std@@@3@$0A@@std@@@std@@QAEXXZ
_TEXT	SEGMENT PARA USE32 PUBLIC 'CODE'
_TEXT	ENDS
;	COMDAT ?_Max@?$_Tree@V?$_Tmap_traits@KPAVCCtrl@@U?$less@K@std@@V?$allocator@U?$pair@$$CBKPAVCCtrl@@@std@@@3@$0A@@std@@@std@@KAPAU_Node@?$_Tree_nod@V?$_Tmap_traits@KPAVCCtrl@@U?$less@K@std@@V?$allocator@U?$pair@$$CBKPAVCCtrl@@@std@@@3@$0A@@std@@@2@PAU342@@Z
_TEXT	SEGMENT PARA USE32 PUBLIC 'CODE'
_TEXT	ENDS
;	COMDAT ?_Rmost@?$_Tree@V?$_Tmap_traits@KPAVCCtrl@@U?$less@K@std@@V?$allocator@U?$pair@$$CBKPAVCCtrl@@@std@@@3@$0A@@std@@@std@@IAEAAPAU_Node@?$_Tree_nod@V?$_Tmap_traits@KPAVCCtrl@@U?$less@K@std@@V?$allocator@U?$pair@$$CBKPAVCCtrl@@@std@@@3@$0A@@std@@@2@XZ
_TEXT	SEGMENT PARA USE32 PUBLIC 'CODE'
_TEXT	ENDS
;	COMDAT ?_Kfn@?$_Tmap_traits@KPAVCCtrl@@U?$less@K@std@@V?$allocator@U?$pair@$$CBKPAVCCtrl@@@std@@@3@$0A@@std@@SAABKABU?$pair@$$CBKPAVCCtrl@@@2@@Z
_TEXT	SEGMENT PARA USE32 PUBLIC 'CODE'
_TEXT	ENDS
;	COMDAT ?begin@?$_Tree@V?$_Tmap_traits@KPAVCCtrl@@U?$less@K@std@@V?$allocator@U?$pair@$$CBKPAVCCtrl@@@std@@@3@$0A@@std@@@std@@QAE?AViterator@12@XZ
_TEXT	SEGMENT PARA USE32 PUBLIC 'CODE'
_TEXT	ENDS
;	COMDAT ?_Lmost@?$_Tree@V?$_Tmap_traits@KPAVCCtrl@@U?$less@K@std@@V?$allocator@U?$pair@$$CBKPAVCCtrl@@@std@@@3@$0A@@std@@@std@@IAEAAPAU_Node@?$_Tree_nod@V?$_Tmap_traits@KPAVCCtrl@@U?$less@K@std@@V?$allocator@U?$pair@$$CBKPAVCCtrl@@@std@@@3@$0A@@std@@@2@XZ
_TEXT	SEGMENT PARA USE32 PUBLIC 'CODE'
_TEXT	ENDS
;	COMDAT ?_Insert@?$_Tree@V?$_Tmap_traits@KPAVCCtrl@@U?$less@K@std@@V?$allocator@U?$pair@$$CBKPAVCCtrl@@@std@@@3@$0A@@std@@@std@@IAE?AViterator@12@_NPAU_Node@?$_Tree_nod@V?$_Tmap_traits@KPAVCCtrl@@U?$less@K@std@@V?$allocator@U?$pair@$$CBKPAVCCtrl@@@std@@@3@$0A@@std@@@2@ABU?$pair@$$CBKPAVCCtrl@@@2@@Z
_TEXT	SEGMENT PARA USE32 PUBLIC 'CODE'
_TEXT	ENDS
;	COMDAT ?max_size@?$_Tree@V?$_Tmap_traits@KPAVCCtrl@@U?$less@K@std@@V?$allocator@U?$pair@$$CBKPAVCCtrl@@@std@@@3@$0A@@std@@@std@@QBEIXZ
_TEXT	SEGMENT PARA USE32 PUBLIC 'CODE'
_TEXT	ENDS
;	COMDAT ?max_size@?$allocator@U?$pair@$$CBKPAVCCtrl@@@std@@@std@@QBEIXZ
_TEXT	SEGMENT PARA USE32 PUBLIC 'CODE'
_TEXT	ENDS
;	COMDAT ?_Buynode@?$_Tree@V?$_Tmap_traits@KPAVCCtrl@@U?$less@K@std@@V?$allocator@U?$pair@$$CBKPAVCCtrl@@@std@@@3@$0A@@std@@@std@@IAEPAU_Node@?$_Tree_nod@V?$_Tmap_traits@KPAVCCtrl@@U?$less@K@std@@V?$allocator@U?$pair@$$CBKPAVCCtrl@@@std@@@3@$0A@@std@@@2@PAU342@00ABU?$pair@$$CBKPAVCCtrl@@@2@D@Z
_TEXT	SEGMENT PARA USE32 PUBLIC 'CODE'
_TEXT	ENDS
;	COMDAT ?allocate@?$allocator@U_Node@?$_Tree_nod@V?$_Tmap_traits@KPAVCCtrl@@U?$less@K@std@@V?$allocator@U?$pair@$$CBKPAVCCtrl@@@std@@@3@$0A@@std@@@std@@@std@@QAEPAU_Node@?$_Tree_nod@V?$_Tmap_traits@KPAVCCtrl@@U?$less@K@std@@V?$allocator@U?$pair@$$CBKPAVCCtrl@@@std@@@3@$0A@@std@@@2@I@Z
_TEXT	SEGMENT PARA USE32 PUBLIC 'CODE'
_TEXT	ENDS
;	COMDAT ??$_Allocate@U_Node@?$_Tree_nod@V?$_Tmap_traits@KPAVCCtrl@@U?$less@K@std@@V?$allocator@U?$pair@$$CBKPAVCCtrl@@@std@@@3@$0A@@std@@@std@@@std@@YAPAU_Node@?$_Tree_nod@V?$_Tmap_traits@KPAVCCtrl@@U?$less@K@std@@V?$allocator@U?$pair@$$CBKPAVCCtrl@@@std@@@3@$0A@@std@@@0@IPAU120@@Z
_TEXT	SEGMENT PARA USE32 PUBLIC 'CODE'
_TEXT	ENDS
;	COMDAT ??0_Node@?$_Tree_nod@V?$_Tmap_traits@KPAVCCtrl@@U?$less@K@std@@V?$allocator@U?$pair@$$CBKPAVCCtrl@@@std@@@3@$0A@@std@@@std@@QAE@PAU012@00ABU?$pair@$$CBKPAVCCtrl@@@2@D@Z
_TEXT	SEGMENT PARA USE32 PUBLIC 'CODE'
_TEXT	ENDS
;	COMDAT ?deallocate@?$allocator@U_Node@?$_Tree_nod@V?$_Tmap_traits@KPAVCCtrl@@U?$less@K@std@@V?$allocator@U?$pair@$$CBKPAVCCtrl@@@std@@@3@$0A@@std@@@std@@@std@@QAEXPAU_Node@?$_Tree_nod@V?$_Tmap_traits@KPAVCCtrl@@U?$less@K@std@@V?$allocator@U?$pair@$$CBKPAVCCtrl@@@std@@@3@$0A@@std@@@2@I@Z
_TEXT	SEGMENT PARA USE32 PUBLIC 'CODE'
_TEXT	ENDS
;	COMDAT ?_Rrotate@?$_Tree@V?$_Tmap_traits@KPAVCCtrl@@U?$less@K@std@@V?$allocator@U?$pair@$$CBKPAVCCtrl@@@std@@@3@$0A@@std@@@std@@IAEXPAU_Node@?$_Tree_nod@V?$_Tmap_traits@KPAVCCtrl@@U?$less@K@std@@V?$allocator@U?$pair@$$CBKPAVCCtrl@@@std@@@3@$0A@@std@@@2@@Z
_TEXT	SEGMENT PARA USE32 PUBLIC 'CODE'
_TEXT	ENDS
;	COMDAT ?_Lrotate@?$_Tree@V?$_Tmap_traits@KPAVCCtrl@@U?$less@K@std@@V?$allocator@U?$pair@$$CBKPAVCCtrl@@@std@@@3@$0A@@std@@@std@@IAEXPAU_Node@?$_Tree_nod@V?$_Tmap_traits@KPAVCCtrl@@U?$less@K@std@@V?$allocator@U?$pair@$$CBKPAVCCtrl@@@std@@@3@$0A@@std@@@2@@Z
_TEXT	SEGMENT PARA USE32 PUBLIC 'CODE'
_TEXT	ENDS
;	COMDAT ?_Color@?$_Tree@V?$_Tmap_traits@KPAVCCtrl@@U?$less@K@std@@V?$allocator@U?$pair@$$CBKPAVCCtrl@@@std@@@3@$0A@@std@@@std@@KAAADPAU_Node@?$_Tree_nod@V?$_Tmap_traits@KPAVCCtrl@@U?$less@K@std@@V?$allocator@U?$pair@$$CBKPAVCCtrl@@@std@@@3@$0A@@std@@@2@@Z
_TEXT	SEGMENT PARA USE32 PUBLIC 'CODE'
_TEXT	ENDS
;	COMDAT ?compare@?$char_traits@D@std@@SAHPBD0I@Z
_TEXT	SEGMENT PARA USE32 PUBLIC 'CODE'
_TEXT	ENDS
;	COMDAT ??Diterator@?$_Tree@V?$_Tmap_traits@KPAVCCtrl@@U?$less@K@std@@V?$allocator@U?$pair@$$CBKPAVCCtrl@@@std@@@3@$0A@@std@@@std@@QBEAAU?$pair@$$CBKPAVCCtrl@@@2@XZ
_TEXT	SEGMENT PARA USE32 PUBLIC 'CODE'
_TEXT	ENDS
;	COMDAT ??Dconst_iterator@?$_Tree@V?$_Tmap_traits@KPAVCCtrl@@U?$less@K@std@@V?$allocator@U?$pair@$$CBKPAVCCtrl@@@std@@@3@$0A@@std@@@std@@QBEABU?$pair@$$CBKPAVCCtrl@@@2@XZ
_TEXT	SEGMENT PARA USE32 PUBLIC 'CODE'
_TEXT	ENDS
;	COMDAT ?_Myval@?$_Tree@V?$_Tmap_traits@KPAVCCtrl@@U?$less@K@std@@V?$allocator@U?$pair@$$CBKPAVCCtrl@@@std@@@3@$0A@@std@@@std@@KAAAU?$pair@$$CBKPAVCCtrl@@@2@PAU_Node@?$_Tree_nod@V?$_Tmap_traits@KPAVCCtrl@@U?$less@K@std@@V?$allocator@U?$pair@$$CBKPAVCCtrl@@@std@@@3@$0A@@std@@@2@@Z
_TEXT	SEGMENT PARA USE32 PUBLIC 'CODE'
_TEXT	ENDS
;	COMDAT ?_Mynode@const_iterator@?$_Tree@V?$_Tmap_traits@KPAVCCtrl@@U?$less@K@std@@V?$allocator@U?$pair@$$CBKPAVCCtrl@@@std@@@3@$0A@@std@@@std@@QBEPAU_Node@?$_Tree_nod@V?$_Tmap_traits@KPAVCCtrl@@U?$less@K@std@@V?$allocator@U?$pair@$$CBKPAVCCtrl@@@std@@@3@$0A@@std@@@3@XZ
_TEXT	SEGMENT PARA USE32 PUBLIC 'CODE'
_TEXT	ENDS
;	COMDAT ?_Key@?$_Tree@V?$_Tmap_traits@KPAVCCtrl@@U?$less@K@std@@V?$allocator@U?$pair@$$CBKPAVCCtrl@@@std@@@3@$0A@@std@@@std@@KAABKPAU_Node@?$_Tree_nod@V?$_Tmap_traits@KPAVCCtrl@@U?$less@K@std@@V?$allocator@U?$pair@$$CBKPAVCCtrl@@@std@@@3@$0A@@std@@@2@@Z
_TEXT	SEGMENT PARA USE32 PUBLIC 'CODE'
_TEXT	ENDS
;	COMDAT ??R?$less@K@std@@QBE_NABK0@Z
_TEXT	SEGMENT PARA USE32 PUBLIC 'CODE'
_TEXT	ENDS
;	COMDAT ?end@?$_Tree@V?$_Tmap_traits@KPAVCCtrl@@U?$less@K@std@@V?$allocator@U?$pair@$$CBKPAVCCtrl@@@std@@@3@$0A@@std@@@std@@QAE?AViterator@12@XZ
_TEXT	SEGMENT PARA USE32 PUBLIC 'CODE'
_TEXT	ENDS
;	COMDAT ??8const_iterator@?$_Tree@V?$_Tmap_traits@KPAVCCtrl@@U?$less@K@std@@V?$allocator@U?$pair@$$CBKPAVCCtrl@@@std@@@3@$0A@@std@@@std@@QBE_NABV012@@Z
_TEXT	SEGMENT PARA USE32 PUBLIC 'CODE'
_TEXT	ENDS
;	COMDAT ?lower_bound@?$_Tree@V?$_Tmap_traits@KPAVCCtrl@@U?$less@K@std@@V?$allocator@U?$pair@$$CBKPAVCCtrl@@@std@@@3@$0A@@std@@@std@@QAE?AViterator@12@ABK@Z
_TEXT	SEGMENT PARA USE32 PUBLIC 'CODE'
_TEXT	ENDS
;	COMDAT ?_Lbound@?$_Tree@V?$_Tmap_traits@KPAVCCtrl@@U?$less@K@std@@V?$allocator@U?$pair@$$CBKPAVCCtrl@@@std@@@3@$0A@@std@@@std@@IBEPAU_Node@?$_Tree_nod@V?$_Tmap_traits@KPAVCCtrl@@U?$less@K@std@@V?$allocator@U?$pair@$$CBKPAVCCtrl@@@std@@@3@$0A@@std@@@2@ABK@Z
_TEXT	SEGMENT PARA USE32 PUBLIC 'CODE'
_TEXT	ENDS
;	COMDAT ?_Root@?$_Tree@V?$_Tmap_traits@KPAVCCtrl@@U?$less@K@std@@V?$allocator@U?$pair@$$CBKPAVCCtrl@@@std@@@3@$0A@@std@@@std@@IBEAAPAU_Node@?$_Tree_nod@V?$_Tmap_traits@KPAVCCtrl@@U?$less@K@std@@V?$allocator@U?$pair@$$CBKPAVCCtrl@@@std@@@3@$0A@@std@@@2@XZ
_TEXT	SEGMENT PARA USE32 PUBLIC 'CODE'
_TEXT	ENDS
;	COMDAT ?_Myptr@?$basic_string@DU?$char_traits@D@std@@V?$allocator@D@2@@std@@QBEPBDXZ
_TEXT	SEGMENT PARA USE32 PUBLIC 'CODE'
_TEXT	ENDS
;	COMDAT ?size@?$basic_string@DU?$char_traits@D@std@@V?$allocator@D@2@@std@@QBEIXZ
_TEXT	SEGMENT PARA USE32 PUBLIC 'CODE'
_TEXT	ENDS
;	COMDAT ?IsActAttack@CAction@@QAEHXZ
_TEXT	SEGMENT PARA USE32 PUBLIC 'CODE'
_TEXT	ENDS
;	COMDAT ?GetLayer@CObj@@QAEHXZ
_TEXT	SEGMENT PARA USE32 PUBLIC 'CODE'
_TEXT	ENDS
;	COMDAT ?xRandom@@YAKK@Z
_TEXT	SEGMENT PARA USE32 PUBLIC 'CODE'
_TEXT	ENDS
;	COMDAT ?xRand@@YAKXZ
_TEXT	SEGMENT PARA USE32 PUBLIC 'CODE'
_TEXT	ENDS
;	COMDAT ?GetGold@CMover@@QAEHXZ
_TEXT	SEGMENT PARA USE32 PUBLIC 'CODE'
_TEXT	ENDS
;	COMDAT ?GetID@CWorld@@QAEKXZ
_TEXT	SEGMENT PARA USE32 PUBLIC 'CODE'
_TEXT	ENDS
;	COMDAT ??0_LogItemInfo@@QAE@XZ
_TEXT	SEGMENT PARA USE32 PUBLIC 'CODE'
_TEXT	ENDS
;	COMDAT ?IsValidObj@@YAHPAVCObj@@@Z
_TEXT	SEGMENT PARA USE32 PUBLIC 'CODE'
_TEXT	ENDS
;	COMDAT ?IsDelete@CObj@@QAEHXZ
_TEXT	SEGMENT PARA USE32 PUBLIC 'CODE'
_TEXT	ENDS
;	COMDAT ?random@@YAHH@Z
_TEXT	SEGMENT PARA USE32 PUBLIC 'CODE'
_TEXT	ENDS
;	COMDAT ?GetAbilityOption@CItemElem@@QAEHXZ
_TEXT	SEGMENT PARA USE32 PUBLIC 'CODE'
_TEXT	ENDS
;	COMDAT ?IsAccessory@CItemElem@@QAEHXZ
_TEXT	SEGMENT PARA USE32 PUBLIC 'CODE'
_TEXT	ENDS
;	COMDAT ?IsFly@CAction@@QAEHXZ
_TEXT	SEGMENT PARA USE32 PUBLIC 'CODE'
_TEXT	ENDS
;	COMDAT ?ClearDestAngle@CMover@@QAEXXZ
_TEXT	SEGMENT PARA USE32 PUBLIC 'CODE'
_TEXT	ENDS
;	COMDAT ?ClearDest@CMover@@QAEXXZ
_TEXT	SEGMENT PARA USE32 PUBLIC 'CODE'
_TEXT	ENDS
;	COMDAT ?ClearDestObj@CMover@@QAEXXZ
_TEXT	SEGMENT PARA USE32 PUBLIC 'CODE'
_TEXT	ENDS
;	COMDAT ?ClearDestPos@CMover@@QAEXXZ
_TEXT	SEGMENT PARA USE32 PUBLIC 'CODE'
_TEXT	ENDS
;	COMDAT ?SendActMsg@CMover@@QAEHW4OBJMSG@@HHHH@Z
_TEXT	SEGMENT PARA USE32 PUBLIC 'CODE'
_TEXT	ENDS
;	COMDAT ?IsStateFlag@CAction@@QAEHK@Z
_TEXT	SEGMENT PARA USE32 PUBLIC 'CODE'
_TEXT	ENDS
;	COMDAT ?SetFlag@CItemElem@@QAEXE@Z
_TEXT	SEGMENT PARA USE32 PUBLIC 'CODE'
_TEXT	ENDS
;	COMDAT ?IsDie@CMover@@QAEHXZ
_TEXT	SEGMENT PARA USE32 PUBLIC 'CODE'
_TEXT	ENDS
;	COMDAT ?IsDie@CAction@@QAEHXZ
_TEXT	SEGMENT PARA USE32 PUBLIC 'CODE'
_TEXT	ENDS
;	COMDAT ?IsSit@CAction@@QAEHXZ
_TEXT	SEGMENT PARA USE32 PUBLIC 'CODE'
_TEXT	ENDS
;	COMDAT ?HasActivatedSystemPet@CMover@@QAEHXZ
_TEXT	SEGMENT PARA USE32 PUBLIC 'CODE'
_TEXT	ENDS
;	COMDAT ?HasActivatedEatPet@CMover@@QAEHXZ
_TEXT	SEGMENT PARA USE32 PUBLIC 'CODE'
_TEXT	ENDS
;	COMDAT ?GetPKPropensity@CMover@@QAEKXZ
_TEXT	SEGMENT PARA USE32 PUBLIC 'CODE'
_TEXT	ENDS
;	COMDAT ?GetPropensityPenalty@CProject@@QAE?AU_CHAO_PROPENSITY@@K@Z
_TEXT	SEGMENT PARA USE32 PUBLIC 'CODE'
_TEXT	ENDS
;	COMDAT ?begin@?$_Tree@V?$_Tmap_traits@HU_CHAO_PROPENSITY@@U?$less@H@std@@V?$allocator@U?$pair@$$CBHU_CHAO_PROPENSITY@@@std@@@3@$0A@@std@@@std@@QAE?AViterator@12@XZ
_TEXT	SEGMENT PARA USE32 PUBLIC 'CODE'
_TEXT	ENDS
;	COMDAT ??0iterator@?$_Tree@V?$_Tmap_traits@HU_CHAO_PROPENSITY@@U?$less@H@std@@V?$allocator@U?$pair@$$CBHU_CHAO_PROPENSITY@@@std@@@3@$0A@@std@@@std@@QAE@PAU_Node@?$_Tree_nod@V?$_Tmap_traits@HU_CHAO_PROPENSITY@@U?$less@H@std@@V?$allocator@U?$pair@$$CBHU_CHAO_PROPENSITY@@@std@@@3@$0A@@std@@@2@@Z
_TEXT	SEGMENT PARA USE32 PUBLIC 'CODE'
_TEXT	ENDS
;	COMDAT ??0const_iterator@?$_Tree@V?$_Tmap_traits@HU_CHAO_PROPENSITY@@U?$less@H@std@@V?$allocator@U?$pair@$$CBHU_CHAO_PROPENSITY@@@std@@@3@$0A@@std@@@std@@QAE@PAU_Node@?$_Tree_nod@V?$_Tmap_traits@HU_CHAO_PROPENSITY@@U?$less@H@std@@V?$allocator@U?$pair@$$CBHU_CHAO_PROPENSITY@@@std@@@3@$0A@@std@@@2@@Z
_TEXT	SEGMENT PARA USE32 PUBLIC 'CODE'
_TEXT	ENDS
;	COMDAT ?_Lmost@?$_Tree@V?$_Tmap_traits@HU_CHAO_PROPENSITY@@U?$less@H@std@@V?$allocator@U?$pair@$$CBHU_CHAO_PROPENSITY@@@std@@@3@$0A@@std@@@std@@IAEAAPAU_Node@?$_Tree_nod@V?$_Tmap_traits@HU_CHAO_PROPENSITY@@U?$less@H@std@@V?$allocator@U?$pair@$$CBHU_CHAO_PROPENSITY@@@std@@@3@$0A@@std@@@2@XZ
_TEXT	SEGMENT PARA USE32 PUBLIC 'CODE'
_TEXT	ENDS
;	COMDAT ?_Left@?$_Tree@V?$_Tmap_traits@HU_CHAO_PROPENSITY@@U?$less@H@std@@V?$allocator@U?$pair@$$CBHU_CHAO_PROPENSITY@@@std@@@3@$0A@@std@@@std@@KAAAPAU_Node@?$_Tree_nod@V?$_Tmap_traits@HU_CHAO_PROPENSITY@@U?$less@H@std@@V?$allocator@U?$pair@$$CBHU_CHAO_PROPENSITY@@@std@@@3@$0A@@std@@@2@PAU342@@Z
_TEXT	SEGMENT PARA USE32 PUBLIC 'CODE'
_TEXT	ENDS
;	COMDAT ??Eiterator@?$_Tree@V?$_Tmap_traits@HU_CHAO_PROPENSITY@@U?$less@H@std@@V?$allocator@U?$pair@$$CBHU_CHAO_PROPENSITY@@@std@@@3@$0A@@std@@@std@@QAE?AV012@H@Z
_TEXT	SEGMENT PARA USE32 PUBLIC 'CODE'
_TEXT	ENDS
;	COMDAT ??Eiterator@?$_Tree@V?$_Tmap_traits@HU_CHAO_PROPENSITY@@U?$less@H@std@@V?$allocator@U?$pair@$$CBHU_CHAO_PROPENSITY@@@std@@@3@$0A@@std@@@std@@QAEAAV012@XZ
_TEXT	SEGMENT PARA USE32 PUBLIC 'CODE'
_TEXT	ENDS
;	COMDAT ??Econst_iterator@?$_Tree@V?$_Tmap_traits@HU_CHAO_PROPENSITY@@U?$less@H@std@@V?$allocator@U?$pair@$$CBHU_CHAO_PROPENSITY@@@std@@@3@$0A@@std@@@std@@QAEAAV012@XZ
_TEXT	SEGMENT PARA USE32 PUBLIC 'CODE'
_TEXT	ENDS
;	COMDAT ?_Inc@const_iterator@?$_Tree@V?$_Tmap_traits@HU_CHAO_PROPENSITY@@U?$less@H@std@@V?$allocator@U?$pair@$$CBHU_CHAO_PROPENSITY@@@std@@@3@$0A@@std@@@std@@QAEXXZ
_TEXT	SEGMENT PARA USE32 PUBLIC 'CODE'
_TEXT	ENDS
;	COMDAT ?_Min@?$_Tree@V?$_Tmap_traits@HU_CHAO_PROPENSITY@@U?$less@H@std@@V?$allocator@U?$pair@$$CBHU_CHAO_PROPENSITY@@@std@@@3@$0A@@std@@@std@@KAPAU_Node@?$_Tree_nod@V?$_Tmap_traits@HU_CHAO_PROPENSITY@@U?$less@H@std@@V?$allocator@U?$pair@$$CBHU_CHAO_PROPENSITY@@@std@@@3@$0A@@std@@@2@PAU342@@Z
_TEXT	SEGMENT PARA USE32 PUBLIC 'CODE'
_TEXT	ENDS
;	COMDAT ?_Isnil@?$_Tree@V?$_Tmap_traits@HU_CHAO_PROPENSITY@@U?$less@H@std@@V?$allocator@U?$pair@$$CBHU_CHAO_PROPENSITY@@@std@@@3@$0A@@std@@@std@@KAAADPAU_Node@?$_Tree_nod@V?$_Tmap_traits@HU_CHAO_PROPENSITY@@U?$less@H@std@@V?$allocator@U?$pair@$$CBHU_CHAO_PROPENSITY@@@std@@@3@$0A@@std@@@2@@Z
_TEXT	SEGMENT PARA USE32 PUBLIC 'CODE'
_TEXT	ENDS
;	COMDAT ?_Parent@?$_Tree@V?$_Tmap_traits@HU_CHAO_PROPENSITY@@U?$less@H@std@@V?$allocator@U?$pair@$$CBHU_CHAO_PROPENSITY@@@std@@@3@$0A@@std@@@std@@KAAAPAU_Node@?$_Tree_nod@V?$_Tmap_traits@HU_CHAO_PROPENSITY@@U?$less@H@std@@V?$allocator@U?$pair@$$CBHU_CHAO_PROPENSITY@@@std@@@3@$0A@@std@@@2@PAU342@@Z
_TEXT	SEGMENT PARA USE32 PUBLIC 'CODE'
_TEXT	ENDS
;	COMDAT ?_Right@?$_Tree@V?$_Tmap_traits@HU_CHAO_PROPENSITY@@U?$less@H@std@@V?$allocator@U?$pair@$$CBHU_CHAO_PROPENSITY@@@std@@@3@$0A@@std@@@std@@KAAAPAU_Node@?$_Tree_nod@V?$_Tmap_traits@HU_CHAO_PROPENSITY@@U?$less@H@std@@V?$allocator@U?$pair@$$CBHU_CHAO_PROPENSITY@@@std@@@3@$0A@@std@@@2@PAU342@@Z
_TEXT	SEGMENT PARA USE32 PUBLIC 'CODE'
_TEXT	ENDS
;	COMDAT ?find@?$_Tree@V?$_Tmap_traits@HU_CHAO_PROPENSITY@@U?$less@H@std@@V?$allocator@U?$pair@$$CBHU_CHAO_PROPENSITY@@@std@@@3@$0A@@std@@@std@@QAE?AViterator@12@ABH@Z
_TEXT	SEGMENT PARA USE32 PUBLIC 'CODE'
_TEXT	ENDS
;	COMDAT ?lower_bound@?$_Tree@V?$_Tmap_traits@HU_CHAO_PROPENSITY@@U?$less@H@std@@V?$allocator@U?$pair@$$CBHU_CHAO_PROPENSITY@@@std@@@3@$0A@@std@@@std@@QAE?AViterator@12@ABH@Z
_TEXT	SEGMENT PARA USE32 PUBLIC 'CODE'
_TEXT	ENDS
;	COMDAT ?_Lbound@?$_Tree@V?$_Tmap_traits@HU_CHAO_PROPENSITY@@U?$less@H@std@@V?$allocator@U?$pair@$$CBHU_CHAO_PROPENSITY@@@std@@@3@$0A@@std@@@std@@IBEPAU_Node@?$_Tree_nod@V?$_Tmap_traits@HU_CHAO_PROPENSITY@@U?$less@H@std@@V?$allocator@U?$pair@$$CBHU_CHAO_PROPENSITY@@@std@@@3@$0A@@std@@@2@ABH@Z
_TEXT	SEGMENT PARA USE32 PUBLIC 'CODE'
_TEXT	ENDS
;	COMDAT ?_Root@?$_Tree@V?$_Tmap_traits@HU_CHAO_PROPENSITY@@U?$less@H@std@@V?$allocator@U?$pair@$$CBHU_CHAO_PROPENSITY@@@std@@@3@$0A@@std@@@std@@IBEAAPAU_Node@?$_Tree_nod@V?$_Tmap_traits@HU_CHAO_PROPENSITY@@U?$less@H@std@@V?$allocator@U?$pair@$$CBHU_CHAO_PROPENSITY@@@std@@@3@$0A@@std@@@2@XZ
_TEXT	SEGMENT PARA USE32 PUBLIC 'CODE'
_TEXT	ENDS
;	COMDAT ??8const_iterator@?$_Tree@V?$_Tmap_traits@HU_CHAO_PROPENSITY@@U?$less@H@std@@V?$allocator@U?$pair@$$CBHU_CHAO_PROPENSITY@@@std@@@3@$0A@@std@@@std@@QBE_NABV012@@Z
_TEXT	SEGMENT PARA USE32 PUBLIC 'CODE'
_TEXT	ENDS
;	COMDAT ??R?$less@H@std@@QBE_NABH0@Z
_TEXT	SEGMENT PARA USE32 PUBLIC 'CODE'
_TEXT	ENDS
;	COMDAT ?_Key@?$_Tree@V?$_Tmap_traits@HU_CHAO_PROPENSITY@@U?$less@H@std@@V?$allocator@U?$pair@$$CBHU_CHAO_PROPENSITY@@@std@@@3@$0A@@std@@@std@@KAABHPAU_Node@?$_Tree_nod@V?$_Tmap_traits@HU_CHAO_PROPENSITY@@U?$less@H@std@@V?$allocator@U?$pair@$$CBHU_CHAO_PROPENSITY@@@std@@@3@$0A@@std@@@2@@Z
_TEXT	SEGMENT PARA USE32 PUBLIC 'CODE'
_TEXT	ENDS
;	COMDAT ?_Kfn@?$_Tmap_traits@HU_CHAO_PROPENSITY@@U?$less@H@std@@V?$allocator@U?$pair@$$CBHU_CHAO_PROPENSITY@@@std@@@3@$0A@@std@@SAABHABU?$pair@$$CBHU_CHAO_PROPENSITY@@@2@@Z
_TEXT	SEGMENT PARA USE32 PUBLIC 'CODE'
_TEXT	ENDS
;	COMDAT ?_Myval@?$_Tree@V?$_Tmap_traits@HU_CHAO_PROPENSITY@@U?$less@H@std@@V?$allocator@U?$pair@$$CBHU_CHAO_PROPENSITY@@@std@@@3@$0A@@std@@@std@@KAAAU?$pair@$$CBHU_CHAO_PROPENSITY@@@2@PAU_Node@?$_Tree_nod@V?$_Tmap_traits@HU_CHAO_PROPENSITY@@U?$less@H@std@@V?$allocator@U?$pair@$$CBHU_CHAO_PROPENSITY@@@std@@@3@$0A@@std@@@2@@Z
_TEXT	SEGMENT PARA USE32 PUBLIC 'CODE'
_TEXT	ENDS
;	COMDAT ?_Mynode@const_iterator@?$_Tree@V?$_Tmap_traits@HU_CHAO_PROPENSITY@@U?$less@H@std@@V?$allocator@U?$pair@$$CBHU_CHAO_PROPENSITY@@@std@@@3@$0A@@std@@@std@@QBEPAU_Node@?$_Tree_nod@V?$_Tmap_traits@HU_CHAO_PROPENSITY@@U?$less@H@std@@V?$allocator@U?$pair@$$CBHU_CHAO_PROPENSITY@@@std@@@3@$0A@@std@@@3@XZ
_TEXT	SEGMENT PARA USE32 PUBLIC 'CODE'
_TEXT	ENDS
;	COMDAT ??9const_iterator@?$_Tree@V?$_Tmap_traits@HU_CHAO_PROPENSITY@@U?$less@H@std@@V?$allocator@U?$pair@$$CBHU_CHAO_PROPENSITY@@@std@@@3@$0A@@std@@@std@@QBE_NABV012@@Z
_TEXT	SEGMENT PARA USE32 PUBLIC 'CODE'
_TEXT	ENDS
;	COMDAT ?end@?$_Tree@V?$_Tmap_traits@HU_CHAO_PROPENSITY@@U?$less@H@std@@V?$allocator@U?$pair@$$CBHU_CHAO_PROPENSITY@@@std@@@3@$0A@@std@@@std@@QAE?AViterator@12@XZ
_TEXT	SEGMENT PARA USE32 PUBLIC 'CODE'
_TEXT	ENDS
;	COMDAT ??Citerator@?$_Tree@V?$_Tmap_traits@HU_CHAO_PROPENSITY@@U?$less@H@std@@V?$allocator@U?$pair@$$CBHU_CHAO_PROPENSITY@@@std@@@3@$0A@@std@@@std@@QBEPAU?$pair@$$CBHU_CHAO_PROPENSITY@@@2@XZ
_TEXT	SEGMENT PARA USE32 PUBLIC 'CODE'
_TEXT	ENDS
;	COMDAT ??Diterator@?$_Tree@V?$_Tmap_traits@HU_CHAO_PROPENSITY@@U?$less@H@std@@V?$allocator@U?$pair@$$CBHU_CHAO_PROPENSITY@@@std@@@3@$0A@@std@@@std@@QBEAAU?$pair@$$CBHU_CHAO_PROPENSITY@@@2@XZ
_TEXT	SEGMENT PARA USE32 PUBLIC 'CODE'
_TEXT	ENDS
;	COMDAT ??Dconst_iterator@?$_Tree@V?$_Tmap_traits@HU_CHAO_PROPENSITY@@U?$less@H@std@@V?$allocator@U?$pair@$$CBHU_CHAO_PROPENSITY@@@std@@@3@$0A@@std@@@std@@QBEABU?$pair@$$CBHU_CHAO_PROPENSITY@@@2@XZ
_TEXT	SEGMENT PARA USE32 PUBLIC 'CODE'
_TEXT	ENDS
;	COMDAT ??0_CHAO_PROPENSITY@@QAE@XZ
_TEXT	SEGMENT PARA USE32 PUBLIC 'CODE'
_TEXT	ENDS
;	COMDAT ?IsChaotic@CMover@@QAEHXZ
_TEXT	SEGMENT PARA USE32 PUBLIC 'CODE'
_TEXT	ENDS
;	COMDAT ?IsState@CAction@@QAEHK@Z
_TEXT	SEGMENT PARA USE32 PUBLIC 'CODE'
_TEXT	ENDS
;	COMDAT ?GetFlightLv@CMover@@QAEJXZ
_TEXT	SEGMENT PARA USE32 PUBLIC 'CODE'
_TEXT	ENDS
;	COMDAT ?GetLevel@CMover@@QAEHXZ
_TEXT	SEGMENT PARA USE32 PUBLIC 'CODE'
_TEXT	ENDS
;	COMDAT ?GetPos@CObj@@QAE?AUD3DXVECTOR3@@XZ
_TEXT	SEGMENT PARA USE32 PUBLIC 'CODE'
_TEXT	ENDS
;	COMDAT ?GetWorld@CObj@@QAEPAVCWorld@@XZ
_TEXT	SEGMENT PARA USE32 PUBLIC 'CODE'
_TEXT	ENDS
;	COMDAT ?IsSMMode@CMover@@QAEHH@Z
_TEXT	SEGMENT PARA USE32 PUBLIC 'CODE'
_TEXT	ENDS
;	COMDAT ??_C@_00CNPNBAHC@?$AA@
CONST	SEGMENT DWORD USE32 PUBLIC 'CONST'
CONST	ENDS
;	COMDAT ?IsPlayer@CMover@@QAEHXZ
_TEXT	SEGMENT PARA USE32 PUBLIC 'CODE'
_TEXT	ENDS
;	COMDAT ?GetAttrOption@CItemElem@@QAEHXZ
_TEXT	SEGMENT PARA USE32 PUBLIC 'CODE'
_TEXT	ENDS
;	COMDAT ?GetLArmIdx@CModelObject@@QAEHXZ
_TEXT	SEGMENT PARA USE32 PUBLIC 'CODE'
_TEXT	ENDS
;	COMDAT ?GetRHandIdx@CModelObject@@QAEHXZ
_TEXT	SEGMENT PARA USE32 PUBLIC 'CODE'
_TEXT	ENDS
;	COMDAT ?GetLHandIdx@CModelObject@@QAEHXZ
_TEXT	SEGMENT PARA USE32 PUBLIC 'CODE'
_TEXT	ENDS
;	COMDAT ?GetRArmIdx@CModelObject@@QAEHXZ
_TEXT	SEGMENT PARA USE32 PUBLIC 'CODE'
_TEXT	ENDS
;	COMDAT ?IsFlag@CItemElem@@QAEHE@Z
_TEXT	SEGMENT PARA USE32 PUBLIC 'CODE'
_TEXT	ENDS
;	COMDAT ?GetPropA@CItemElem@@QAEPAUItemProp@@XZ
_TEXT	SEGMENT PARA USE32 PUBLIC 'CODE'
_TEXT	ENDS
;	COMDAT ?GetItemProp@CProject@@QAEPAUItemProp@@H@Z
_TEXT	SEGMENT PARA USE32 PUBLIC 'CODE'
_TEXT	ENDS
;	COMDAT ?LOG_RANGE@@YAXPBDHHH@Z
_TEXT	SEGMENT PARA USE32 PUBLIC 'CODE'
_TEXT	ENDS
;	COMDAT ??_C@_0BM@HMFGHCP@?$CFs?5min?3?$CFd?0?5max?3?$CFd?0?5index?3?$CFd?$AA@
CONST	SEGMENT DWORD USE32 PUBLIC 'CONST'
CONST	ENDS
;	COMDAT ?GetSize@?$CFixedArray@UItemProp@@@@QAEHXZ
_TEXT	SEGMENT PARA USE32 PUBLIC 'CODE'
_TEXT	ENDS
;	COMDAT ??_C@_0BI@BEIFNGEL@GetItemProp?5range_error?$AA@
CONST	SEGMENT DWORD USE32 PUBLIC 'CONST'
CONST	ENDS
;	COMDAT ?LOG_CALLSTACK@@YAXXZ
_TEXT	SEGMENT PARA USE32 PUBLIC 'CODE'
_TEXT	ENDS
;	COMDAT ?GetAt@?$CFixedArray@UItemProp@@@@QAEPAUItemProp@@K@Z
_TEXT	SEGMENT PARA USE32 PUBLIC 'CODE'
_TEXT	ENDS
;	COMDAT ?GetPropA@CMover@@QAEPAUMoverProp@@XZ
_TEXT	SEGMENT PARA USE32 PUBLIC 'CODE'
_TEXT	ENDS
;	COMDAT ?GetMoverProp@CProject@@QAEPAUMoverProp@@H@Z
_TEXT	SEGMENT PARA USE32 PUBLIC 'CODE'
_TEXT	ENDS
;	COMDAT ??_C@_0BJ@GKPOBPPI@GetMoverProp?5range_error?$AA@
CONST	SEGMENT DWORD USE32 PUBLIC 'CONST'
CONST	ENDS
;	COMDAT ?fabs@@YAMM@Z
_TEXT	SEGMENT PARA USE32 PUBLIC 'CODE'
_TEXT	ENDS
;	COMDAT _fabsf
_TEXT	SEGMENT PARA USE32 PUBLIC 'CODE'
_TEXT	ENDS
;	COMDAT ?GetSex@CMover@@QAEEXZ
_TEXT	SEGMENT PARA USE32 PUBLIC 'CODE'
_TEXT	ENDS
;	COMDAT ??_7CMapChildE@@6B@
CONST	SEGMENT DWORD USE32 PUBLIC 'CONST'
CONST	ENDS
;	COMDAT ?Leave@CMclCritSec@@QAEXXZ
_TEXT	SEGMENT PARA USE32 PUBLIC 'CODE'
_TEXT	ENDS
;	COMDAT ?Enter@CMclCritSec@@QAEXXZ
_TEXT	SEGMENT PARA USE32 PUBLIC 'CODE'
_TEXT	ENDS
;	COMDAT ??1CMclCritSec@@UAE@XZ
_TEXT	SEGMENT PARA USE32 PUBLIC 'CODE'
_TEXT	ENDS
;	COMDAT ??_7CMclCritSec@@6B@
CONST	SEGMENT DWORD USE32 PUBLIC 'CONST'
CONST	ENDS
;	COMDAT ??_GCMclCritSec@@UAEPAXI@Z
_TEXT	SEGMENT PARA USE32 PUBLIC 'CODE'
_TEXT	ENDS
;	COMDAT ??0CMclCritSec@@QAE@XZ
_TEXT	SEGMENT PARA USE32 PUBLIC 'CODE'
_TEXT	ENDS
;	COMDAT ??_7CMapChild@@6B@
CONST	SEGMENT DWORD USE32 PUBLIC 'CONST'
CONST	ENDS
;	COMDAT ??1CMclAutoLock@@QAE@XZ
_TEXT	SEGMENT PARA USE32 PUBLIC 'CODE'
_TEXT	ENDS
;	COMDAT ??0CMclAutoLock@@QAE@AAVCMclCritSec@@@Z
_TEXT	SEGMENT PARA USE32 PUBLIC 'CODE'
_TEXT	ENDS
;	COMDAT ??_7CBuffer2@@6B@
CONST	SEGMENT DWORD USE32 PUBLIC 'CONST'
CONST	ENDS
;	COMDAT ?erase@?$_Tree@V?$_Tmap_traits@KPAVCCtrl@@U?$less@K@std@@V?$allocator@U?$pair@$$CBKPAVCCtrl@@@std@@@3@$0A@@std@@@std@@QAEIABK@Z
_TEXT	SEGMENT PARA USE32 PUBLIC 'CODE'
_TEXT	ENDS
;	COMDAT ?equal_range@?$_Tree@V?$_Tmap_traits@KPAVCCtrl@@U?$less@K@std@@V?$allocator@U?$pair@$$CBKPAVCCtrl@@@std@@@3@$0A@@std@@@std@@QAE?AU?$pair@Viterator@?$_Tree@V?$_Tmap_traits@KPAVCCtrl@@U?$less@K@std@@V?$allocator@U?$pair@$$CBKPAVCCtrl@@@std@@@3@$0A@@std@@@std@@V123@@2@ABK@Z
_TEXT	SEGMENT PARA USE32 PUBLIC 'CODE'
_TEXT	ENDS
;	COMDAT ??0?$pair@Viterator@?$_Tree@V?$_Tmap_traits@KPAVCCtrl@@U?$less@K@std@@V?$allocator@U?$pair@$$CBKPAVCCtrl@@@std@@@3@$0A@@std@@@std@@V123@@std@@QAE@ABViterator@?$_Tree@V?$_Tmap_traits@KPAVCCtrl@@U?$less@K@std@@V?$allocator@U?$pair@$$CBKPAVCCtrl@@@std@@@3@$0A@@std@@@1@0@Z
_TEXT	SEGMENT PARA USE32 PUBLIC 'CODE'
_TEXT	ENDS
;	COMDAT ?upper_bound@?$_Tree@V?$_Tmap_traits@KPAVCCtrl@@U?$less@K@std@@V?$allocator@U?$pair@$$CBKPAVCCtrl@@@std@@@3@$0A@@std@@@std@@QAE?AViterator@12@ABK@Z
_TEXT	SEGMENT PARA USE32 PUBLIC 'CODE'
_TEXT	ENDS
;	COMDAT ?_Ubound@?$_Tree@V?$_Tmap_traits@KPAVCCtrl@@U?$less@K@std@@V?$allocator@U?$pair@$$CBKPAVCCtrl@@@std@@@3@$0A@@std@@@std@@IBEPAU_Node@?$_Tree_nod@V?$_Tmap_traits@KPAVCCtrl@@U?$less@K@std@@V?$allocator@U?$pair@$$CBKPAVCCtrl@@@std@@@3@$0A@@std@@@2@ABK@Z
_TEXT	SEGMENT PARA USE32 PUBLIC 'CODE'
_TEXT	ENDS
;	COMDAT ??$_Distance@Viterator@?$_Tree@V?$_Tmap_traits@KPAVCCtrl@@U?$less@K@std@@V?$allocator@U?$pair@$$CBKPAVCCtrl@@@std@@@3@$0A@@std@@@std@@I@std@@YAXViterator@?$_Tree@V?$_Tmap_traits@KPAVCCtrl@@U?$less@K@std@@V?$allocator@U?$pair@$$CBKPAVCCtrl@@@std@@@3@$0A@@std@@@0@0AAI@Z
_TEXT	SEGMENT PARA USE32 PUBLIC 'CODE'
_TEXT	ENDS
;	COMDAT ?erase@?$_Tree@V?$_Tmap_traits@KPAVCCtrl@@U?$less@K@std@@V?$allocator@U?$pair@$$CBKPAVCCtrl@@@std@@@3@$0A@@std@@@std@@QAE?AViterator@12@V312@0@Z
_TEXT	SEGMENT PARA USE32 PUBLIC 'CODE'
_TEXT	ENDS
;	COMDAT ?clear@?$_Tree@V?$_Tmap_traits@KPAVCCtrl@@U?$less@K@std@@V?$allocator@U?$pair@$$CBKPAVCCtrl@@@std@@@3@$0A@@std@@@std@@QAEXXZ
_TEXT	SEGMENT PARA USE32 PUBLIC 'CODE'
_TEXT	ENDS
;	COMDAT ?_Erase@?$_Tree@V?$_Tmap_traits@KPAVCCtrl@@U?$less@K@std@@V?$allocator@U?$pair@$$CBKPAVCCtrl@@@std@@@3@$0A@@std@@@std@@IAEXPAU_Node@?$_Tree_nod@V?$_Tmap_traits@KPAVCCtrl@@U?$less@K@std@@V?$allocator@U?$pair@$$CBKPAVCCtrl@@@std@@@3@$0A@@std@@@2@@Z
_TEXT	SEGMENT PARA USE32 PUBLIC 'CODE'
_TEXT	ENDS
;	COMDAT ?destroy@?$allocator@U_Node@?$_Tree_nod@V?$_Tmap_traits@KPAVCCtrl@@U?$less@K@std@@V?$allocator@U?$pair@$$CBKPAVCCtrl@@@std@@@3@$0A@@std@@@std@@@std@@QAEXPAU_Node@?$_Tree_nod@V?$_Tmap_traits@KPAVCCtrl@@U?$less@K@std@@V?$allocator@U?$pair@$$CBKPAVCCtrl@@@std@@@3@$0A@@std@@@2@@Z
_TEXT	SEGMENT PARA USE32 PUBLIC 'CODE'
_TEXT	ENDS
;	COMDAT ??$_Destroy@U_Node@?$_Tree_nod@V?$_Tmap_traits@KPAVCCtrl@@U?$less@K@std@@V?$allocator@U?$pair@$$CBKPAVCCtrl@@@std@@@3@$0A@@std@@@std@@@std@@YAXPAU_Node@?$_Tree_nod@V?$_Tmap_traits@KPAVCCtrl@@U?$less@K@std@@V?$allocator@U?$pair@$$CBKPAVCCtrl@@@std@@@3@$0A@@std@@@0@@Z
_TEXT	SEGMENT PARA USE32 PUBLIC 'CODE'
_TEXT	ENDS
;	COMDAT ?erase@?$_Tree@V?$_Tmap_traits@KPAVCCtrl@@U?$less@K@std@@V?$allocator@U?$pair@$$CBKPAVCCtrl@@@std@@@3@$0A@@std@@@std@@QAE?AViterator@12@V312@@Z
_TEXT	SEGMENT PARA USE32 PUBLIC 'CODE'
_TEXT	ENDS
;	COMDAT ??Eiterator@?$_Tree@V?$_Tmap_traits@KPAVCCtrl@@U?$less@K@std@@V?$allocator@U?$pair@$$CBKPAVCCtrl@@@std@@@3@$0A@@std@@@std@@QAE?AV012@H@Z
_TEXT	SEGMENT PARA USE32 PUBLIC 'CODE'
_TEXT	ENDS
;	COMDAT ??5@YAAAVCAr@@AAV0@AAUD3DXVECTOR3@@@Z
_TEXT	SEGMENT PARA USE32 PUBLIC 'CODE'
_TEXT	ENDS
;	COMDAT ??5CAr@@QAEAAV0@AAM@Z
_TEXT	SEGMENT PARA USE32 PUBLIC 'CODE'
_TEXT	ENDS
;	COMDAT ??5CAr@@QAEAAV0@AAJ@Z
_TEXT	SEGMENT PARA USE32 PUBLIC 'CODE'
_TEXT	ENDS
;	COMDAT ?time_null@@YAJXZ
_TEXT	SEGMENT PARA USE32 PUBLIC 'CODE'
_TEXT	ENDS
;	COMDAT ??6CAr@@QAEAAV0@J@Z
_TEXT	SEGMENT PARA USE32 PUBLIC 'CODE'
_TEXT	ENDS
;	COMDAT ??6@YAAAVCAr@@AAV0@UD3DXVECTOR3@@@Z
_TEXT	SEGMENT PARA USE32 PUBLIC 'CODE'
_TEXT	ENDS
;	COMDAT ??6CAr@@QAEAAV0@M@Z
_TEXT	SEGMENT PARA USE32 PUBLIC 'CODE'
_TEXT	ENDS
;	COMDAT ??1?$basic_string@DU?$char_traits@D@std@@V?$allocator@D@2@@std@@QAE@XZ
_TEXT	SEGMENT PARA USE32 PUBLIC 'CODE'
_TEXT	ENDS
;	COMDAT ??0?$basic_string@DU?$char_traits@D@std@@V?$allocator@D@2@@std@@QAE@PBD@Z
_TEXT	SEGMENT PARA USE32 PUBLIC 'CODE'
_TEXT	ENDS
;	COMDAT ??0?$allocator@D@std@@QAE@XZ
_TEXT	SEGMENT PARA USE32 PUBLIC 'CODE'
_TEXT	ENDS
;	COMDAT ?assign@?$basic_string@DU?$char_traits@D@std@@V?$allocator@D@2@@std@@QAEAAV12@PBD@Z
_TEXT	SEGMENT PARA USE32 PUBLIC 'CODE'
_TEXT	ENDS
;	COMDAT ?assign@?$basic_string@DU?$char_traits@D@std@@V?$allocator@D@2@@std@@QAEAAV12@PBDI@Z
_TEXT	SEGMENT PARA USE32 PUBLIC 'CODE'
_TEXT	ENDS
;	COMDAT ?_Inside@?$basic_string@DU?$char_traits@D@std@@V?$allocator@D@2@@std@@IAE_NPBD@Z
_TEXT	SEGMENT PARA USE32 PUBLIC 'CODE'
_TEXT	ENDS
;	COMDAT ?length@?$char_traits@D@std@@SAIPBD@Z
_TEXT	SEGMENT PARA USE32 PUBLIC 'CODE'
_TEXT	ENDS
;	COMDAT ?c_str@?$basic_string@DU?$char_traits@D@std@@V?$allocator@D@2@@std@@QBEPBDXZ
_TEXT	SEGMENT PARA USE32 PUBLIC 'CODE'
_TEXT	ENDS
;	COMDAT ??6CAr@@QAEAAV0@I@Z
_TEXT	SEGMENT PARA USE32 PUBLIC 'CODE'
_TEXT	ENDS
;	COMDAT ??_7__MINIGAME_EXT_PACKET@@6B@
CONST	SEGMENT DWORD USE32 PUBLIC 'CONST'
CONST	ENDS
;	COMDAT ??5CAr@@QAEAAV0@AAG@Z
_TEXT	SEGMENT PARA USE32 PUBLIC 'CODE'
_TEXT	ENDS
;	COMDAT ??5CAr@@QAEAAV0@AAH@Z
_TEXT	SEGMENT PARA USE32 PUBLIC 'CODE'
_TEXT	ENDS
;	COMDAT ??6CAr@@QAEAAV0@G@Z
_TEXT	SEGMENT PARA USE32 PUBLIC 'CODE'
_TEXT	ENDS
;	COMDAT ??6CAr@@QAEAAV0@H@Z
_TEXT	SEGMENT PARA USE32 PUBLIC 'CODE'
_TEXT	ENDS
;	COMDAT ??_7__MINIGAME_PACKET@@6B@
CONST	SEGMENT DWORD USE32 PUBLIC 'CONST'
CONST	ENDS
;	COMDAT ??1?$vector@KV?$allocator@K@std@@@std@@QAE@XZ
_TEXT	SEGMENT PARA USE32 PUBLIC 'CODE'
_TEXT	ENDS
;	COMDAT ?_Tidy@?$vector@KV?$allocator@K@std@@@std@@IAEXXZ
_TEXT	SEGMENT PARA USE32 PUBLIC 'CODE'
_TEXT	ENDS
;	COMDAT ?_Destroy@?$vector@KV?$allocator@K@std@@@std@@IAEXPAK0@Z
_TEXT	SEGMENT PARA USE32 PUBLIC 'CODE'
_TEXT	ENDS
;	COMDAT ??$_Destroy_range@KV?$allocator@K@std@@@std@@YAXPAK0AAV?$allocator@K@0@@Z
_TEXT	SEGMENT PARA USE32 PUBLIC 'CODE'
_TEXT	ENDS
;	COMDAT ?_Ptr_cat@std@@YA?AU_Scalar_ptr_iterator_tag@1@PAK0@Z
_TEXT	SEGMENT PARA USE32 PUBLIC 'CODE'
_TEXT	ENDS
;	COMDAT ?deallocate@?$allocator@K@std@@QAEXPAKI@Z
_TEXT	SEGMENT PARA USE32 PUBLIC 'CODE'
_TEXT	ENDS
;	COMDAT ??0?$vector@KV?$allocator@K@std@@@std@@QAE@XZ
_TEXT	SEGMENT PARA USE32 PUBLIC 'CODE'
_TEXT	ENDS
;	COMDAT ??0?$_Vector_val@KV?$allocator@K@std@@@std@@IAE@V?$allocator@K@1@@Z
_TEXT	SEGMENT PARA USE32 PUBLIC 'CODE'
_TEXT	ENDS
;	COMDAT ??0?$allocator@K@std@@QAE@ABV01@@Z
_TEXT	SEGMENT PARA USE32 PUBLIC 'CODE'
_TEXT	ENDS
;	COMDAT ??0?$allocator@K@std@@QAE@XZ
_TEXT	SEGMENT PARA USE32 PUBLIC 'CODE'
_TEXT	ENDS
;	COMDAT ?_Buy@?$vector@KV?$allocator@K@std@@@std@@IAE_NI@Z
_TEXT	SEGMENT PARA USE32 PUBLIC 'CODE'
_TEXT	ENDS
;	COMDAT ?max_size@?$vector@KV?$allocator@K@std@@@std@@QBEIXZ
_TEXT	SEGMENT PARA USE32 PUBLIC 'CODE'
_TEXT	ENDS
;	COMDAT ?max_size@?$allocator@K@std@@QBEIXZ
_TEXT	SEGMENT PARA USE32 PUBLIC 'CODE'
_TEXT	ENDS
;	COMDAT ?_Xlen@?$vector@KV?$allocator@K@std@@@std@@IBEXXZ
_TEXT	SEGMENT PARA USE32 PUBLIC 'CODE'
_TEXT	ENDS
;	COMDAT ?allocate@?$allocator@K@std@@QAEPAKI@Z
_TEXT	SEGMENT PARA USE32 PUBLIC 'CODE'
_TEXT	ENDS
;	COMDAT ??$_Allocate@K@std@@YAPAKIPAK@Z
_TEXT	SEGMENT PARA USE32 PUBLIC 'CODE'
_TEXT	ENDS
;	COMDAT ??0CTimeSpan@ATL@@QAE@JHHH@Z
_TEXT	SEGMENT PARA USE32 PUBLIC 'CODE'
_TEXT	ENDS
;	COMDAT ??HCTime@ATL@@QBE?AV01@VCTimeSpan@1@@Z
_TEXT	SEGMENT PARA USE32 PUBLIC 'CODE'
_TEXT	ENDS
;	COMDAT ??0CTime@ATL@@QAE@_J@Z
_TEXT	SEGMENT PARA USE32 PUBLIC 'CODE'
_TEXT	ENDS
;	COMDAT ?GetTimeSpan@CTimeSpan@ATL@@QBE_JXZ
_TEXT	SEGMENT PARA USE32 PUBLIC 'CODE'
_TEXT	ENDS
;	COMDAT ??5CAr@@QAEAAV0@AAK@Z
_TEXT	SEGMENT PARA USE32 PUBLIC 'CODE'
_TEXT	ENDS
;	COMDAT ??6CAr@@QAEAAV0@K@Z
_TEXT	SEGMENT PARA USE32 PUBLIC 'CODE'
_TEXT	ENDS
;	COMDAT ?IsStoring@CAr@@QBEHXZ
_TEXT	SEGMENT PARA USE32 PUBLIC 'CODE'
_TEXT	ENDS
;	COMDAT ??0D3DXVECTOR3@@QAE@MMM@Z
_TEXT	SEGMENT PARA USE32 PUBLIC 'CODE'
_TEXT	ENDS
;	COMDAT ?GetTickCount@CTime@ATL@@SG?AV12@XZ
_TEXT	SEGMENT PARA USE32 PUBLIC 'CODE'
_TEXT	ENDS
;	COMDAT ??0D3DXVECTOR3@@QAE@XZ
_TEXT	SEGMENT PARA USE32 PUBLIC 'CODE'
_TEXT	ENDS
;	COMDAT ??0CTime@ATL@@QAE@XZ
_TEXT	SEGMENT PARA USE32 PUBLIC 'CODE'
_TEXT	ENDS
sxdata	SEGMENT DWORD USE32 'SXDATA'
sxdata	ENDS
FLAT	GROUP _DATA, CONST, _BSS
	ASSUME	CS: FLAT, DS: FLAT, SS: FLAT
endif

INCLUDELIB LIBCMT
INCLUDELIB OLDNAMES

PUBLIC	?nMaleHairColor@@3PAY02EA			; nMaleHairColor
PUBLIC	?nFeMaleHairColor@@3PAY02EA			; nFeMaleHairColor
_DATA	SEGMENT
?nMaleHairColor@@3PAY02EA DB 090H			; nMaleHairColor
	DB	063H
	DB	065H
	DB	064H
	DB	06bH
	DB	07dH
	DB	09eH
	DB	077H
	DB	06dH
	DB	0c7H
	DB	09cH
	DB	064H
	DB	064H
	DB	07bH
	DB	075H
	DB	064H
	DB	064H
	DB	064H
	DB	064H
	DB	064H
	DB	064H
	DB	064H
	DB	064H
	DB	064H
	DB	064H
	DB	064H
	DB	064H
	DB	064H
	DB	064H
	DB	064H
	ORG $+2
?nFeMaleHairColor@@3PAY02EA DB 0faH			; nFeMaleHairColor
	DB	0faH
	DB	05aH
	DB	0faH
	DB	0faH
	DB	05aH
	DB	093H
	DB	076H
	DB	067H
	DB	096H
	DB	064H
	DB	055H
	DB	0d5H
	DB	082H
	DB	064H
	DB	064H
	DB	064H
	DB	064H
	DB	064H
	DB	064H
	DB	064H
	DB	064H
	DB	064H
	DB	064H
	DB	064H
	DB	064H
	DB	064H
	DB	064H
	DB	064H
	DB	064H
_DATA	ENDS
PUBLIC	?IsMember@CParty@@QAEHK@Z			; CParty::IsMember
EXTRN	?FindMember@CParty@@QAEHK@Z:NEAR		; CParty::FindMember
; Function compile flags: /Ogty
; File c:\documents and settings\test\mes documents\source\virtuos_v17\build\program\_common\party.h
;	COMDAT ?IsMember@CParty@@QAEHK@Z
_TEXT	SEGMENT
_uPlayerId$ = 8						; size = 4
?IsMember@CParty@@QAEHK@Z PROC NEAR			; CParty::IsMember, COMDAT
; _this$ = ecx

; 119  : 	BOOL	IsMember( u_long uPlayerId )		{	return( FindMember( uPlayerId ) >= 0 );	}

  00000	8b 44 24 04	 mov	 eax, DWORD PTR _uPlayerId$[esp-4]
  00004	50		 push	 eax
  00005	e8 00 00 00 00	 call	 ?FindMember@CParty@@QAEHK@Z ; CParty::FindMember
  0000a	33 c9		 xor	 ecx, ecx
  0000c	85 c0		 test	 eax, eax
  0000e	0f 9d c1	 setge	 cl
  00011	8b c1		 mov	 eax, ecx
  00013	c2 04 00	 ret	 4
?IsMember@CParty@@QAEHK@Z ENDP				; CParty::IsMember
_TEXT	ENDS
PUBLIC	?GetSelfDST@@YAHE@Z				; GetSelfDST
; Function compile flags: /Ogty
; File c:\documents and settings\test\mes documents\source\virtuos_v17\build\program\_common\moverequip.cpp
;	COMDAT ?GetSelfDST@@YAHE@Z
_TEXT	SEGMENT
_type$ = 8						; size = 1
?GetSelfDST@@YAHE@Z PROC NEAR				; GetSelfDST, COMDAT

; 96   : 	switch( type )

  00000	0f b6 44 24 04	 movzx	 eax, BYTE PTR _type$[esp-4]
  00005	48		 dec	 eax
  00006	83 f8 04	 cmp	 eax, 4
  00009	77 1f		 ja	 SHORT $L268598
  0000b	ff 24 85 00 00
	00 00		 jmp	 DWORD PTR $L275213[eax*4]
$L268602:

; 97   : 	{
; 98   : 		case SAI79::FIRE:
; 99   : 			return DST_RESIST_FIRE;
; 100  : 		case SAI79::WATER:
; 101  : 			return DST_RESIST_WATER;

  00012	b8 20 00 00 00	 mov	 eax, 32			; 00000020H

; 110  : }

  00017	c3		 ret	 0
$L268603:

; 102  : 		case SAI79::WIND:
; 103  : 			return DST_RESIST_WIND; 

  00018	b8 1f 00 00 00	 mov	 eax, 31			; 0000001fH

; 110  : }

  0001d	c3		 ret	 0
$L268604:

; 104  : 		case SAI79::ELECTRICITY:
; 105  : 			return DST_RESIST_ELECTRICITY;

  0001e	b8 1c 00 00 00	 mov	 eax, 28			; 0000001cH

; 110  : }

  00023	c3		 ret	 0
$L268605:

; 106  : 		case SAI79::EARTH:
; 107  : 			return DST_RESIST_EARTH;

  00024	b8 21 00 00 00	 mov	 eax, 33			; 00000021H

; 110  : }

  00029	c3		 ret	 0
$L268598:

; 108  : 	}
; 109  : 	return DST_RESIST_FIRE;

  0002a	b8 1e 00 00 00	 mov	 eax, 30			; 0000001eH

; 110  : }

  0002f	c3		 ret	 0
$L275213:
  00030	00 00 00 00	 DD	 $L268598
  00034	00 00 00 00	 DD	 $L268602
  00038	00 00 00 00	 DD	 $L268604
  0003c	00 00 00 00	 DD	 $L268603
  00040	00 00 00 00	 DD	 $L268605
?GetSelfDST@@YAHE@Z ENDP				; GetSelfDST
_TEXT	ENDS
PUBLIC	?GetStrongDST@@YAHE@Z				; GetStrongDST
; Function compile flags: /Ogty
;	COMDAT ?GetStrongDST@@YAHE@Z
_TEXT	SEGMENT
_type$ = 8						; size = 1
?GetStrongDST@@YAHE@Z PROC NEAR				; GetStrongDST, COMDAT

; 114  : 	switch( type )

  00000	0f b6 44 24 04	 movzx	 eax, BYTE PTR _type$[esp-4]
  00005	48		 dec	 eax
  00006	83 f8 04	 cmp	 eax, 4
  00009	77 1f		 ja	 SHORT $L268610
  0000b	ff 24 85 00 00
	00 00		 jmp	 DWORD PTR $L275218[eax*4]
$L268613:

; 115  : 	{
; 116  : 		case SAI79::FIRE:
; 117  : 			return DST_RESIST_WIND;

  00012	b8 1f 00 00 00	 mov	 eax, 31			; 0000001fH

; 128  : }

  00017	c3		 ret	 0
$L268615:

; 118  : 		case SAI79::WATER:
; 119  : 			return DST_RESIST_FIRE;
; 120  : 		case SAI79::WIND:
; 121  : 			return DST_RESIST_EARTH;

  00018	b8 21 00 00 00	 mov	 eax, 33			; 00000021H

; 128  : }

  0001d	c3		 ret	 0
$L268616:

; 122  : 		case SAI79::ELECTRICITY:
; 123  : 			return DST_RESIST_WATER;

  0001e	b8 20 00 00 00	 mov	 eax, 32			; 00000020H

; 128  : }

  00023	c3		 ret	 0
$L268617:

; 124  : 		case SAI79::EARTH:
; 125  : 			return DST_RESIST_ELECTRICITY;

  00024	b8 1c 00 00 00	 mov	 eax, 28			; 0000001cH

; 128  : }

  00029	c3		 ret	 0
$L268610:

; 126  : 	}
; 127  : 	return DST_RESIST_FIRE;

  0002a	b8 1e 00 00 00	 mov	 eax, 30			; 0000001eH

; 128  : }

  0002f	c3		 ret	 0
$L275218:
  00030	00 00 00 00	 DD	 $L268613
  00034	00 00 00 00	 DD	 $L268610
  00038	00 00 00 00	 DD	 $L268616
  0003c	00 00 00 00	 DD	 $L268615
  00040	00 00 00 00	 DD	 $L268617
?GetStrongDST@@YAHE@Z ENDP				; GetStrongDST
_TEXT	ENDS
PUBLIC	?GetWeakDST@@YAHE@Z				; GetWeakDST
; Function compile flags: /Ogty
;	COMDAT ?GetWeakDST@@YAHE@Z
_TEXT	SEGMENT
_type$ = 8						; size = 1
?GetWeakDST@@YAHE@Z PROC NEAR				; GetWeakDST, COMDAT

; 132  : 	switch( type )

  00000	0f b6 44 24 04	 movzx	 eax, BYTE PTR _type$[esp-4]
  00005	48		 dec	 eax
  00006	83 f8 04	 cmp	 eax, 4
  00009	77 1f		 ja	 SHORT $L268622
  0000b	ff 24 85 00 00
	00 00		 jmp	 DWORD PTR $L275223[eax*4]
$L268625:

; 133  : 	{
; 134  : 		case SAI79::FIRE:
; 135  : 			return DST_RESIST_WATER;

  00012	b8 20 00 00 00	 mov	 eax, 32			; 00000020H

; 146  : }

  00017	c3		 ret	 0
$L268626:

; 136  : 		case SAI79::WATER:
; 137  : 			return DST_RESIST_ELECTRICITY;

  00018	b8 1c 00 00 00	 mov	 eax, 28			; 0000001cH

; 146  : }

  0001d	c3		 ret	 0
$L268628:

; 138  : 		case SAI79::WIND:
; 139  : 			return DST_RESIST_FIRE;
; 140  : 		case SAI79::ELECTRICITY:
; 141  : 			return DST_RESIST_EARTH;

  0001e	b8 21 00 00 00	 mov	 eax, 33			; 00000021H

; 146  : }

  00023	c3		 ret	 0
$L268629:

; 142  : 		case SAI79::EARTH:
; 143  : 			return DST_RESIST_WIND;

  00024	b8 1f 00 00 00	 mov	 eax, 31			; 0000001fH

; 146  : }

  00029	c3		 ret	 0
$L268622:

; 144  : 	}
; 145  : 	return DST_RESIST_FIRE;

  0002a	b8 1e 00 00 00	 mov	 eax, 30			; 0000001eH

; 146  : }

  0002f	c3		 ret	 0
$L275223:
  00030	00 00 00 00	 DD	 $L268625
  00034	00 00 00 00	 DD	 $L268626
  00038	00 00 00 00	 DD	 $L268628
  0003c	00 00 00 00	 DD	 $L268622
  00040	00 00 00 00	 DD	 $L268629
?GetWeakDST@@YAHE@Z ENDP				; GetWeakDST
_TEXT	ENDS
PUBLIC	?SetSkinSet@CMover@@QAEXH@Z			; CMover::SetSkinSet
; Function compile flags: /Ogty
;	COMDAT ?SetSkinSet@CMover@@QAEXH@Z
_TEXT	SEGMENT
_nSkinSet$ = 8						; size = 4
?SetSkinSet@CMover@@QAEXH@Z PROC NEAR			; CMover::SetSkinSet, COMDAT
; _this$ = ecx

; 246  : 	if( nSkinSet < 2 )

  00000	8b 44 24 04	 mov	 eax, DWORD PTR _nSkinSet$[esp-4]
  00004	83 f8 02	 cmp	 eax, 2
  00007	7d 06		 jge	 SHORT $L268689

; 247  : 	{
; 248  : 		m_dwSkinSet = nSkinSet;

  00009	89 81 24 06 00
	00		 mov	 DWORD PTR [ecx+1572], eax
$L268689:

; 249  : #ifdef __CLIENT
; 250  : 		UpdateParts();
; 251  : #endif
; 252  : 	}
; 253  : }

  0000f	c2 04 00	 ret	 4
?SetSkinSet@CMover@@QAEXH@Z ENDP			; CMover::SetSkinSet
_TEXT	ENDS
PUBLIC	?ClearEquipInfo@CMover@@QAEXXZ			; CMover::ClearEquipInfo
; Function compile flags: /Ogty
;	COMDAT ?ClearEquipInfo@CMover@@QAEXXZ
_TEXT	SEGMENT
?ClearEquipInfo@CMover@@QAEXXZ PROC NEAR		; CMover::ClearEquipInfo, COMDAT
; _this$ = ecx

; 2658 : 	memset( m_aEquipInfo, 0, sizeof(EQUIP_INFO) * MAX_HUMAN_PARTS );

  00000	8d 91 08 0c 00
	00		 lea	 edx, DWORD PTR [ecx+3080]
  00006	57		 push	 edi
  00007	33 c0		 xor	 eax, eax
  00009	b9 5d 00 00 00	 mov	 ecx, 93			; 0000005dH
  0000e	8b fa		 mov	 edi, edx
  00010	f3 ab		 rep stosd
  00012	8b c2		 mov	 eax, edx
  00014	b9 1f 00 00 00	 mov	 ecx, 31			; 0000001fH
  00019	5f		 pop	 edi
  0001a	8d 9b 00 00 00
	00		 npad	 6
$L269620:

; 2659 : 	for( int i = 0; i < MAX_HUMAN_PARTS; i++ )
; 2660 : 		m_aEquipInfo[i].dwId = NULL_ID;

  00020	c7 00 ff ff ff
	ff		 mov	 DWORD PTR [eax], -1
  00026	83 c0 0c	 add	 eax, 12			; 0000000cH
  00029	49		 dec	 ecx
  0002a	75 f4		 jne	 SHORT $L269620

; 2661 : }

  0002c	c3		 ret	 0
?ClearEquipInfo@CMover@@QAEXXZ ENDP			; CMover::ClearEquipInfo
_TEXT	ENDS
PUBLIC	?GetSize@?$CItemContainer@VCItemElem@@@@QAEHXZ	; CItemContainer<CItemElem>::GetSize
; Function compile flags: /Ogty
; File c:\documents and settings\test\mes documents\source\virtuos_v17\build\program\_common\item.h
;	COMDAT ?GetSize@?$CItemContainer@VCItemElem@@@@QAEHXZ
_TEXT	SEGMENT
?GetSize@?$CItemContainer@VCItemElem@@@@QAEHXZ PROC NEAR ; CItemContainer<CItemElem>::GetSize, COMDAT
; _this$ = ecx

; 411  : 	int		GetSize() { return int( m_dwIndexNum ); }

  00000	8b 41 08	 mov	 eax, DWORD PTR [ecx+8]
  00003	c3		 ret	 0
?GetSize@?$CItemContainer@VCItemElem@@@@QAEHXZ ENDP	; CItemContainer<CItemElem>::GetSize
_TEXT	ENDS
PUBLIC	?GetMax@?$CItemContainer@VCItemElem@@@@QAEHXZ	; CItemContainer<CItemElem>::GetMax
; Function compile flags: /Ogty
;	COMDAT ?GetMax@?$CItemContainer@VCItemElem@@@@QAEHXZ
_TEXT	SEGMENT
?GetMax@?$CItemContainer@VCItemElem@@@@QAEHXZ PROC NEAR	; CItemContainer<CItemElem>::GetMax, COMDAT
; _this$ = ecx

; 412  : 	int		GetMax() { return int( m_dwItemMax ); }

  00000	8b 41 0c	 mov	 eax, DWORD PTR [ecx+12]
  00003	c3		 ret	 0
?GetMax@?$CItemContainer@VCItemElem@@@@QAEHXZ ENDP	; CItemContainer<CItemElem>::GetMax
_TEXT	ENDS
PUBLIC	?size@?$vector@U_SINGLE_DST@@V?$allocator@U_SINGLE_DST@@@std@@@std@@QBEIXZ ; std::vector<_SINGLE_DST,std::allocator<_SINGLE_DST> >::size
; Function compile flags: /Ogty
; File c:\program files\microsoft visual studio .net 2003\vc7\include\vector
;	COMDAT ?size@?$vector@U_SINGLE_DST@@V?$allocator@U_SINGLE_DST@@@std@@@std@@QBEIXZ
_TEXT	SEGMENT
?size@?$vector@U_SINGLE_DST@@V?$allocator@U_SINGLE_DST@@@std@@@std@@QBEIXZ PROC NEAR ; std::vector<_SINGLE_DST,std::allocator<_SINGLE_DST> >::size, COMDAT
; _this$ = ecx

; 516  : 		return (_Myfirst == 0 ? 0 : _Mylast - _Myfirst);

  00000	8b 51 04	 mov	 edx, DWORD PTR [ecx+4]
  00003	85 d2		 test	 edx, edx
  00005	75 03		 jne	 SHORT $L275241
  00007	33 c0		 xor	 eax, eax

; 517  : 		}

  00009	c3		 ret	 0
$L275241:

; 516  : 		return (_Myfirst == 0 ? 0 : _Mylast - _Myfirst);

  0000a	8b 41 08	 mov	 eax, DWORD PTR [ecx+8]
  0000d	2b c2		 sub	 eax, edx
  0000f	c1 f8 03	 sar	 eax, 3

; 517  : 		}

  00012	c3		 ret	 0
?size@?$vector@U_SINGLE_DST@@V?$allocator@U_SINGLE_DST@@@std@@@std@@QBEIXZ ENDP ; std::vector<_SINGLE_DST,std::allocator<_SINGLE_DST> >::size
_TEXT	ENDS
PUBLIC	??Yiterator@?$vector@U_SINGLE_DST@@V?$allocator@U_SINGLE_DST@@@std@@@std@@QAEAAV012@H@Z ; std::vector<_SINGLE_DST,std::allocator<_SINGLE_DST> >::iterator::operator+=
; Function compile flags: /Ogty
;	COMDAT ??Yiterator@?$vector@U_SINGLE_DST@@V?$allocator@U_SINGLE_DST@@@std@@@std@@QAEAAV012@H@Z
_TEXT	SEGMENT
__Off$ = 8						; size = 4
??Yiterator@?$vector@U_SINGLE_DST@@V?$allocator@U_SINGLE_DST@@@std@@@std@@QAEAAV012@H@Z PROC NEAR ; std::vector<_SINGLE_DST,std::allocator<_SINGLE_DST> >::iterator::operator+=, COMDAT
; _this$ = ecx

; 255  : 			{	// increment by integer

  00000	8b c1		 mov	 eax, ecx

; 256  : 			this->_Myptr += _Off;

  00002	8b 4c 24 04	 mov	 ecx, DWORD PTR __Off$[esp-4]
  00006	8d 14 cd 00 00
	00 00		 lea	 edx, DWORD PTR [ecx*8]
  0000d	01 10		 add	 DWORD PTR [eax], edx

; 257  : 			return (*this);
; 258  : 			}

  0000f	c2 04 00	 ret	 4
??Yiterator@?$vector@U_SINGLE_DST@@V?$allocator@U_SINGLE_DST@@@std@@@std@@QAEAAV012@H@Z ENDP ; std::vector<_SINGLE_DST,std::allocator<_SINGLE_DST> >::iterator::operator+=
_TEXT	ENDS
PUBLIC	??Dconst_iterator@?$vector@U_SINGLE_DST@@V?$allocator@U_SINGLE_DST@@@std@@@std@@QBEABU_SINGLE_DST@@XZ ; std::vector<_SINGLE_DST,std::allocator<_SINGLE_DST> >::const_iterator::operator*
; Function compile flags: /Ogty
;	COMDAT ??Dconst_iterator@?$vector@U_SINGLE_DST@@V?$allocator@U_SINGLE_DST@@@std@@@std@@QBEABU_SINGLE_DST@@XZ
_TEXT	SEGMENT
??Dconst_iterator@?$vector@U_SINGLE_DST@@V?$allocator@U_SINGLE_DST@@@std@@@std@@QBEABU_SINGLE_DST@@XZ PROC NEAR ; std::vector<_SINGLE_DST,std::allocator<_SINGLE_DST> >::const_iterator::operator*, COMDAT
; _this$ = ecx

; 80   : 
; 81   : 
; 82   : 			return (*_Myptr);

  00000	8b 01		 mov	 eax, DWORD PTR [ecx]

; 83   : 			}

  00002	c3		 ret	 0
??Dconst_iterator@?$vector@U_SINGLE_DST@@V?$allocator@U_SINGLE_DST@@@std@@@std@@QBEABU_SINGLE_DST@@XZ ENDP ; std::vector<_SINGLE_DST,std::allocator<_SINGLE_DST> >::const_iterator::operator*
_TEXT	ENDS
PUBLIC	??0const_iterator@?$vector@U_SINGLE_DST@@V?$allocator@U_SINGLE_DST@@@std@@@std@@QAE@PAU_SINGLE_DST@@@Z ; std::vector<_SINGLE_DST,std::allocator<_SINGLE_DST> >::const_iterator::const_iterator
; Function compile flags: /Ogty
;	COMDAT ??0const_iterator@?$vector@U_SINGLE_DST@@V?$allocator@U_SINGLE_DST@@@std@@@std@@QAE@PAU_SINGLE_DST@@@Z
_TEXT	SEGMENT
__Ptr$ = 8						; size = 4
??0const_iterator@?$vector@U_SINGLE_DST@@V?$allocator@U_SINGLE_DST@@@std@@@std@@QAE@PAU_SINGLE_DST@@@Z PROC NEAR ; std::vector<_SINGLE_DST,std::allocator<_SINGLE_DST> >::const_iterator::const_iterator, COMDAT
; _this$ = ecx

; 73   : 		const_iterator(_Tptr _Ptr)

  00000	8b c1		 mov	 eax, ecx

; 74   : 			{	// construct with pointer _Ptr
; 75   : 			_Myptr = _Ptr;

  00002	8b 4c 24 04	 mov	 ecx, DWORD PTR __Ptr$[esp-4]
  00006	89 08		 mov	 DWORD PTR [eax], ecx

; 76   : 			}

  00008	c2 04 00	 ret	 4
??0const_iterator@?$vector@U_SINGLE_DST@@V?$allocator@U_SINGLE_DST@@@std@@@std@@QAE@PAU_SINGLE_DST@@@Z ENDP ; std::vector<_SINGLE_DST,std::allocator<_SINGLE_DST> >::const_iterator::const_iterator
_TEXT	ENDS
PUBLIC	??_C@_0N@GELFDHNG@CONTAINER?1?10?$AA@		; `string'
PUBLIC	?IsEquip@?$CItemContainer@VCItemElem@@@@QAEHK@Z	; CItemContainer<CItemElem>::IsEquip
EXTRN	?WriteError@@YAXPBDZZ:NEAR			; WriteError
;	COMDAT ??_C@_0N@GELFDHNG@CONTAINER?1?10?$AA@
; File c:\documents and settings\test\mes documents\source\virtuos_v17\build\program\_common\item.h
CONST	SEGMENT
??_C@_0N@GELFDHNG@CONTAINER?1?10?$AA@ DB 'CONTAINER//0', 00H ; `string'
; Function compile flags: /Ogty
CONST	ENDS
;	COMDAT ?IsEquip@?$CItemContainer@VCItemElem@@@@QAEHK@Z
_TEXT	SEGMENT
_dwObjId$ = 8						; size = 4
?IsEquip@?$CItemContainer@VCItemElem@@@@QAEHK@Z PROC NEAR ; CItemContainer<CItemElem>::IsEquip, COMDAT
; _this$ = ecx

; 602  : 	if( !m_apItem )

  00000	8b 51 10	 mov	 edx, DWORD PTR [ecx+16]
  00003	85 d2		 test	 edx, edx
  00005	75 12		 jne	 SHORT $L272680

; 603  : 	{
; 604  : 		WriteError( "CONTAINER//0" );

  00007	68 00 00 00 00	 push	 OFFSET FLAT:??_C@_0N@GELFDHNG@CONTAINER?1?10?$AA@
  0000c	e8 00 00 00 00	 call	 ?WriteError@@YAXPBDZZ	; WriteError
  00011	83 c4 04	 add	 esp, 4
$L275255:

; 605  : 		return FALSE;

  00014	33 c0		 xor	 eax, eax

; 612  : 		return TRUE;
; 613  : 	return FALSE;
; 614  : }

  00016	c2 04 00	 ret	 4
$L272680:

; 606  : 	}
; 607  : 
; 608  : 	if( dwObjId >= m_dwItemMax )

  00019	8b 44 24 04	 mov	 eax, DWORD PTR _dwObjId$[esp-4]
  0001d	3b 41 0c	 cmp	 eax, DWORD PTR [ecx+12]

; 609  : 		return FALSE;

  00020	73 f2		 jae	 SHORT $L275255

; 610  : 
; 611  : 	if( m_apItem[ dwObjId ].m_dwObjIndex >= m_dwIndexNum )

  00022	69 c0 b8 00 00
	00		 imul	 eax, 184		; 000000b8H
  00028	8b 44 10 08	 mov	 eax, DWORD PTR [eax+edx+8]
  0002c	3b 41 08	 cmp	 eax, DWORD PTR [ecx+8]
  0002f	1b c0		 sbb	 eax, eax
  00031	40		 inc	 eax

; 612  : 		return TRUE;
; 613  : 	return FALSE;
; 614  : }

  00032	c2 04 00	 ret	 4
?IsEquip@?$CItemContainer@VCItemElem@@@@QAEHK@Z ENDP	; CItemContainer<CItemElem>::IsEquip
_TEXT	ENDS
PUBLIC	?RemoveAtId@?$CItemContainer@VCItemElem@@@@QAEXK@Z ; CItemContainer<CItemElem>::RemoveAtId
; Function compile flags: /Ogty
;	COMDAT ?RemoveAtId@?$CItemContainer@VCItemElem@@@@QAEXK@Z
_TEXT	SEGMENT
_dwObjId$ = 8						; size = 4
?RemoveAtId@?$CItemContainer@VCItemElem@@@@QAEXK@Z PROC NEAR ; CItemContainer<CItemElem>::RemoveAtId, COMDAT
; _this$ = ecx

; 768  : {

  00000	56		 push	 esi

; 769  : 	if( dwObjId >= m_dwItemMax )

  00001	8b 74 24 08	 mov	 esi, DWORD PTR _dwObjId$[esp]
  00005	57		 push	 edi
  00006	8b f9		 mov	 edi, ecx
  00008	8b 47 0c	 mov	 eax, DWORD PTR [edi+12]
  0000b	3b f0		 cmp	 esi, eax
  0000d	73 41		 jae	 SHORT $L273592

; 770  : 		return;
; 771  : 	if( m_apItem[ dwObjId ].m_dwObjIndex >= m_dwItemMax )

  0000f	8b 4f 10	 mov	 ecx, DWORD PTR [edi+16]
  00012	69 f6 b8 00 00
	00		 imul	 esi, 184		; 000000b8H
  00018	39 44 31 08	 cmp	 DWORD PTR [ecx+esi+8], eax
  0001c	73 32		 jae	 SHORT $L273592

; 772  : 		return;
; 773  : 	m_apItem[ dwObjId ].Empty();

  0001e	8b d1		 mov	 edx, ecx
  00020	8b 04 32	 mov	 eax, DWORD PTR [edx+esi]
  00023	8d 0c 32	 lea	 ecx, DWORD PTR [edx+esi]
  00026	ff 50 0c	 call	 DWORD PTR [eax+12]

; 774  : 	if( m_apItem[ dwObjId ].m_dwObjIndex >= m_dwIndexNum )

  00029	8b 4f 10	 mov	 ecx, DWORD PTR [edi+16]
  0002c	8b 54 31 08	 mov	 edx, DWORD PTR [ecx+esi+8]
  00030	3b 57 08	 cmp	 edx, DWORD PTR [edi+8]
  00033	72 1b		 jb	 SHORT $L273592

; 775  : 	{
; 776  : 		m_apIndex[ m_apItem[ dwObjId ].m_dwObjIndex ] = NULL_ID;

  00035	8b 57 04	 mov	 edx, DWORD PTR [edi+4]
  00038	8b c1		 mov	 eax, ecx
  0003a	8b 4c 30 08	 mov	 ecx, DWORD PTR [eax+esi+8]
  0003e	c7 04 8a ff ff
	ff ff		 mov	 DWORD PTR [edx+ecx*4], -1

; 777  : 		m_apItem[ dwObjId ].m_dwObjIndex = NULL_ID;

  00045	8b 47 10	 mov	 eax, DWORD PTR [edi+16]
  00048	c7 44 30 08 ff
	ff ff ff	 mov	 DWORD PTR [eax+esi+8], -1
$L273592:
  00050	5f		 pop	 edi
  00051	5e		 pop	 esi

; 778  : 	}
; 779  : }

  00052	c2 04 00	 ret	 4
?RemoveAtId@?$CItemContainer@VCItemElem@@@@QAEXK@Z ENDP	; CItemContainer<CItemElem>::RemoveAtId
_TEXT	ENDS
PUBLIC	?Swap2@?$CItemContainer@VCItemElem@@@@AAEXKK@Z	; CItemContainer<CItemElem>::Swap2
; Function compile flags: /Ogty
;	COMDAT ?Swap2@?$CItemContainer@VCItemElem@@@@AAEXKK@Z
_TEXT	SEGMENT
_dwSrcIndex$ = 8					; size = 4
_dwDstIndex$ = 12					; size = 4
?Swap2@?$CItemContainer@VCItemElem@@@@AAEXKK@Z PROC NEAR ; CItemContainer<CItemElem>::Swap2, COMDAT
; _this$ = ecx

; 837  : 	DWORD dwItem = m_apIndex[ dwSrcIndex ];

  00000	8b 41 04	 mov	 eax, DWORD PTR [ecx+4]
  00003	8b 54 24 04	 mov	 edx, DWORD PTR _dwSrcIndex$[esp-4]
  00007	53		 push	 ebx
  00008	56		 push	 esi

; 838  : 	m_apIndex[ dwSrcIndex ] = m_apIndex[ dwDstIndex ];

  00009	8b 74 24 10	 mov	 esi, DWORD PTR _dwDstIndex$[esp+4]
  0000d	8b 1c b0	 mov	 ebx, DWORD PTR [eax+esi*4]
  00010	57		 push	 edi
  00011	8b 3c 90	 mov	 edi, DWORD PTR [eax+edx*4]
  00014	89 1c 90	 mov	 DWORD PTR [eax+edx*4], ebx

; 839  : 	m_apIndex[ dwDstIndex ] = dwItem;

  00017	8b 41 04	 mov	 eax, DWORD PTR [ecx+4]
  0001a	89 3c b0	 mov	 DWORD PTR [eax+esi*4], edi

; 840  : 
; 841  : 	DWORD dwSrcItem	= m_apIndex[dwSrcIndex];

  0001d	8b 41 04	 mov	 eax, DWORD PTR [ecx+4]
  00020	8b 3c 90	 mov	 edi, DWORD PTR [eax+edx*4]

; 842  : 	DWORD dwDstItem	= m_apIndex[dwDstIndex];
; 843  : 	if( dwSrcItem != NULL_ID )

  00023	83 ff ff	 cmp	 edi, -1
  00026	8b 04 b0	 mov	 eax, DWORD PTR [eax+esi*4]
  00029	74 0d		 je	 SHORT $L273602

; 844  : 		m_apItem[dwSrcItem].m_dwObjIndex	= dwSrcIndex;

  0002b	8b 59 10	 mov	 ebx, DWORD PTR [ecx+16]
  0002e	69 ff b8 00 00
	00		 imul	 edi, 184		; 000000b8H
  00034	89 54 1f 08	 mov	 DWORD PTR [edi+ebx+8], edx
$L273602:

; 845  : 	if( dwDstItem != NULL_ID )

  00038	83 f8 ff	 cmp	 eax, -1
  0003b	74 0d		 je	 SHORT $L273603

; 846  : 		m_apItem[dwDstItem].m_dwObjIndex	= dwDstIndex;

  0003d	8b 49 10	 mov	 ecx, DWORD PTR [ecx+16]
  00040	69 c0 b8 00 00
	00		 imul	 eax, 184		; 000000b8H
  00046	89 74 08 08	 mov	 DWORD PTR [eax+ecx+8], esi
$L273603:
  0004a	5f		 pop	 edi
  0004b	5e		 pop	 esi
  0004c	5b		 pop	 ebx

; 847  : }

  0004d	c2 08 00	 ret	 8
?Swap2@?$CItemContainer@VCItemElem@@@@AAEXKK@Z ENDP	; CItemContainer<CItemElem>::Swap2
_TEXT	ENDS
PUBLIC	_fabsf
EXTRN	__fltused:NEAR
; Function compile flags: /Ogty
; File c:\program files\microsoft visual studio .net 2003\vc7\include\math.h
;	COMDAT _fabsf
_TEXT	SEGMENT
__X$ = 8						; size = 4
_fabsf	PROC NEAR					; COMDAT

; 450  :         {return ((float)fabs((double)_X)); }

  00000	d9 44 24 04	 fld	 DWORD PTR __X$[esp-4]
  00004	d9 e1		 fabs
  00006	c3		 ret	 0
_fabsf	ENDP
_TEXT	ENDS
PUBLIC	?fabs@@YAMM@Z					; fabs
; Function compile flags: /Ogty
;	COMDAT ?fabs@@YAMM@Z
_TEXT	SEGMENT
__X$ = 8						; size = 4
?fabs@@YAMM@Z PROC NEAR					; fabs, COMDAT

; 555  :         {return (fabsf(_X)); }

  00000	d9 44 24 04	 fld	 DWORD PTR __X$[esp-4]
  00004	d9 e1		 fabs
  00006	c3		 ret	 0
?fabs@@YAMM@Z ENDP					; fabs
_TEXT	ENDS
PUBLIC	??0D3DXVECTOR3@@QAE@XZ				; D3DXVECTOR3::D3DXVECTOR3
; Function compile flags: /Ogty
; File c:\documents and settings\test\mes documents\source\virtuos_v17\build\program\dx_sdk\d3dx9math.h
;	COMDAT ??0D3DXVECTOR3@@QAE@XZ
_TEXT	SEGMENT
??0D3DXVECTOR3@@QAE@XZ PROC NEAR			; D3DXVECTOR3::D3DXVECTOR3, COMDAT
; _this$ = ecx

; 165  :     D3DXVECTOR3() {};

  00000	8b c1		 mov	 eax, ecx
  00002	c3		 ret	 0
??0D3DXVECTOR3@@QAE@XZ ENDP				; D3DXVECTOR3::D3DXVECTOR3
_TEXT	ENDS
PUBLIC	??0D3DXVECTOR3@@QAE@MMM@Z			; D3DXVECTOR3::D3DXVECTOR3
; Function compile flags: /Ogty
; File c:\documents and settings\test\mes documents\source\virtuos_v17\build\program\dx_sdk\d3dx9math.inl
;	COMDAT ??0D3DXVECTOR3@@QAE@MMM@Z
_TEXT	SEGMENT
_fx$ = 8						; size = 4
_fy$ = 12						; size = 4
_fz$ = 16						; size = 4
??0D3DXVECTOR3@@QAE@MMM@Z PROC NEAR			; D3DXVECTOR3::D3DXVECTOR3, COMDAT
; _this$ = ecx

; 300  :     x = fx;
; 301  :     y = fy;

  00000	8b 54 24 08	 mov	 edx, DWORD PTR _fy$[esp-4]
  00004	8b c1		 mov	 eax, ecx
  00006	8b 4c 24 04	 mov	 ecx, DWORD PTR _fx$[esp-4]
  0000a	89 08		 mov	 DWORD PTR [eax], ecx

; 302  :     z = fz;

  0000c	8b 4c 24 0c	 mov	 ecx, DWORD PTR _fz$[esp-4]
  00010	89 50 04	 mov	 DWORD PTR [eax+4], edx
  00013	89 48 08	 mov	 DWORD PTR [eax+8], ecx

; 303  : }

  00016	c2 0c 00	 ret	 12			; 0000000cH
??0D3DXVECTOR3@@QAE@MMM@Z ENDP				; D3DXVECTOR3::D3DXVECTOR3
_TEXT	ENDS
PUBLIC	??_C@_00CNPNBAHC@?$AA@				; `string'
PUBLIC	??0_LogItemInfo@@QAE@XZ				; _LogItemInfo::_LogItemInfo
;	COMDAT ??_C@_00CNPNBAHC@?$AA@
; File c:\documents and settings\test\mes documents\source\virtuos_v17\build\program\_network\cmnhdr.h
CONST	SEGMENT
??_C@_00CNPNBAHC@?$AA@ DB 00H				; `string'
; Function compile flags: /Ogty
CONST	ENDS
;	COMDAT ??0_LogItemInfo@@QAE@XZ
_TEXT	SEGMENT
??0_LogItemInfo@@QAE@XZ PROC NEAR			; _LogItemInfo::_LogItemInfo, COMDAT
; _this$ = ecx

; 641  : 	_LogItemInfo()

  00000	8b c1		 mov	 eax, ecx
  00002	56		 push	 esi

; 642  : 	{
; 643  : 		Action = _T("");
; 644  : 		SendName = _T("");
; 645  : 		RecvName = _T("");
; 646  : 		WorldId = Gold = Gold2 = 0;
; 647  : 		Negudo = 0;
; 648  : 		MaxNegudo = 0;
; 649  : 		ItemNo = 0;
; 650  : 		//ItemName = _T("");
; 651  : 		::memset( szItemName, 0, sizeof(szItemName) );

  00003	33 d2		 xor	 edx, edx
  00005	b9 00 00 00 00	 mov	 ecx, OFFSET FLAT:??_C@_00CNPNBAHC@?$AA@
  0000a	89 08		 mov	 DWORD PTR [eax], ecx
  0000c	89 48 04	 mov	 DWORD PTR [eax+4], ecx
  0000f	89 48 08	 mov	 DWORD PTR [eax+8], ecx
  00012	33 c9		 xor	 ecx, ecx
  00014	89 48 14	 mov	 DWORD PTR [eax+20], ecx
  00017	89 48 10	 mov	 DWORD PTR [eax+16], ecx
  0001a	89 48 0c	 mov	 DWORD PTR [eax+12], ecx
  0001d	89 48 1c	 mov	 DWORD PTR [eax+28], ecx
  00020	89 48 20	 mov	 DWORD PTR [eax+32], ecx
  00023	89 48 18	 mov	 DWORD PTR [eax+24], ecx
  00026	8d 70 24	 lea	 esi, DWORD PTR [eax+36]
  00029	89 16		 mov	 DWORD PTR [esi], edx
  0002b	89 56 04	 mov	 DWORD PTR [esi+4], edx
  0002e	89 56 08	 mov	 DWORD PTR [esi+8], edx
  00031	89 56 0c	 mov	 DWORD PTR [esi+12], edx
  00034	89 56 10	 mov	 DWORD PTR [esi+16], edx
  00037	89 56 14	 mov	 DWORD PTR [esi+20], edx
  0003a	89 56 18	 mov	 DWORD PTR [esi+24], edx
  0003d	89 56 1c	 mov	 DWORD PTR [esi+28], edx

; 652  : 		itemNumber = 0;

  00040	89 48 44	 mov	 DWORD PTR [eax+68], ecx

; 653  : 		nAbilityOption = 0;

  00043	89 48 48	 mov	 DWORD PTR [eax+72], ecx

; 654  : 		Gold_1 = 0;

  00046	89 48 4c	 mov	 DWORD PTR [eax+76], ecx

; 655  : 		nSlot = 100;
; 656  : 		nSlot1 = 100;
; 657  : 		nItemResist = 0;

  00049	89 48 58	 mov	 DWORD PTR [eax+88], ecx

; 658  : 		nResistAbilityOption = 0;

  0004c	89 48 5c	 mov	 DWORD PTR [eax+92], ecx

; 659  : 		m_bCharged = FALSE;

  0004f	89 48 60	 mov	 DWORD PTR [eax+96], ecx

; 660  : 		m_dwKeepTime = 0;

  00052	89 48 64	 mov	 DWORD PTR [eax+100], ecx

; 661  : #if __VER >= 11 // __SYS_IDENTIFY
; 662  : 		m_iRandomOptItemId = 0;

  00055	89 48 68	 mov	 DWORD PTR [eax+104], ecx
  00058	89 48 6c	 mov	 DWORD PTR [eax+108], ecx

; 663  : #else	//__SYS_IDENTIFY
; 664  : 		m_nRandomOptItemId = 0;
; 665  : #endif	// __SYS_IDENTIFY
; 666  : #if __VER >= 12 // __EXT_PIERCING
; 667  : 		nPiercedSize = 0;

  0005b	89 48 70	 mov	 DWORD PTR [eax+112], ecx
  0005e	ba 64 00 00 00	 mov	 edx, 100		; 00000064H
  00063	89 50 50	 mov	 DWORD PTR [eax+80], edx
  00066	89 50 54	 mov	 DWORD PTR [eax+84], edx

; 668  : //		for( int i=0; i<MAX_PIERCING_WEAPON; i++ )
; 669  : //			adwItemId[i] = 0;
; 670  : 		memset( adwItemId, 0, sizeof(adwItemId) );

  00069	33 d2		 xor	 edx, edx
  0006b	8d 70 74	 lea	 esi, DWORD PTR [eax+116]
  0006e	89 16		 mov	 DWORD PTR [esi], edx
  00070	89 56 04	 mov	 DWORD PTR [esi+4], edx
  00073	89 56 08	 mov	 DWORD PTR [esi+8], edx
  00076	89 56 0c	 mov	 DWORD PTR [esi+12], edx
  00079	89 56 10	 mov	 DWORD PTR [esi+16], edx
  0007c	89 56 14	 mov	 DWORD PTR [esi+20], edx
  0007f	89 56 18	 mov	 DWORD PTR [esi+24], edx
  00082	89 56 1c	 mov	 DWORD PTR [esi+28], edx
  00085	89 56 20	 mov	 DWORD PTR [esi+32], edx
  00088	89 56 24	 mov	 DWORD PTR [esi+36], edx

; 671  : 		nUMPiercedSize = 0;

  0008b	89 88 9c 00 00
	00		 mov	 DWORD PTR [eax+156], ecx

; 672  : //		for( i=0; i<MAX_PIERCING_ULTIMATE; i++ )
; 673  : //	adwUMItemId[i] = 0;
; 674  : 		memset( adwUMItemId, 0, sizeof(adwUMItemId) );

  00091	8d b0 a0 00 00
	00		 lea	 esi, DWORD PTR [eax+160]
  00097	89 16		 mov	 DWORD PTR [esi], edx
  00099	89 56 04	 mov	 DWORD PTR [esi+4], edx
  0009c	89 56 08	 mov	 DWORD PTR [esi+8], edx
  0009f	89 56 0c	 mov	 DWORD PTR [esi+12], edx
  000a2	89 56 10	 mov	 DWORD PTR [esi+16], edx

; 675  : #else // __EXT_PIERCING
; 676  : 		nPiercedSize = 0;
; 677  : 		adwItemId0 = 0;
; 678  : 		adwItemId1 = 0;
; 679  : 		adwItemId2 = 0;
; 680  : 		adwItemId3 = 0;
; 681  : #if __VER >= 9 // __ULTIMATE
; 682  : 		adwItemId4 = 0;
; 683  : #endif // __ULTIMATE
; 684  : #endif // __EXT_PIERCING
; 685  : #if __VER >= 9 // __PET_0410
; 686  : 		nPetKind = 0;

  000a5	88 88 b4 00 00
	00		 mov	 BYTE PTR [eax+180], cl

; 687  : 		nPetLevel = 0;

  000ab	88 88 b5 00 00
	00		 mov	 BYTE PTR [eax+181], cl

; 688  : 		dwPetExp = 0;

  000b1	89 88 b8 00 00
	00		 mov	 DWORD PTR [eax+184], ecx

; 689  : 		wPetEnergy = 0;

  000b7	66 89 88 bc 00
	00 00		 mov	 WORD PTR [eax+188], cx

; 690  : 		wPetLife = 0;

  000be	66 89 88 be 00
	00 00		 mov	 WORD PTR [eax+190], cx

; 691  : 		nPetAL_D = 0;

  000c5	88 88 c0 00 00
	00		 mov	 BYTE PTR [eax+192], cl

; 692  : 		nPetAL_C = 0;

  000cb	88 88 c1 00 00
	00		 mov	 BYTE PTR [eax+193], cl

; 693  : 		nPetAL_B = 0;

  000d1	88 88 c2 00 00
	00		 mov	 BYTE PTR [eax+194], cl

; 694  : 		nPetAL_A = 0;

  000d7	88 88 c3 00 00
	00		 mov	 BYTE PTR [eax+195], cl

; 695  : 		nPetAL_S = 0;

  000dd	88 88 c4 00 00
	00		 mov	 BYTE PTR [eax+196], cl
  000e3	5e		 pop	 esi

; 696  : #endif // __PET_0410
; 697  : 	}

  000e4	c3		 ret	 0
??0_LogItemInfo@@QAE@XZ ENDP				; _LogItemInfo::_LogItemInfo
_TEXT	ENDS
PUBLIC	?xRand@@YAKXZ					; xRand
EXTRN	?g_next@@3KA:DWORD				; g_next
; Function compile flags: /Ogty
; File c:\documents and settings\test\mes documents\source\virtuos_v17\build\program\_common\xutil.h
;	COMDAT ?xRand@@YAKXZ
_TEXT	SEGMENT
?xRand@@YAKXZ PROC NEAR					; xRand, COMDAT

; 16   : 	g_next = g_next * 1103515245 + 12345;// + nRandomSeed[ i++ ];

  00000	a1 00 00 00 00	 mov	 eax, DWORD PTR ?g_next@@3KA ; g_next
  00005	69 c0 6d 4e c6
	41		 imul	 eax, 1103515245		; 41c64e6dH
  0000b	05 39 30 00 00	 add	 eax, 12345		; 00003039H
  00010	a3 00 00 00 00	 mov	 DWORD PTR ?g_next@@3KA, eax ; g_next

; 17   : 	return g_next;	//   .
; 18   : }

  00015	c3		 ret	 0
?xRand@@YAKXZ ENDP					; xRand
_TEXT	ENDS
PUBLIC	?xRandom@@YAKK@Z				; xRandom
; Function compile flags: /Ogty
;	COMDAT ?xRandom@@YAKK@Z
_TEXT	SEGMENT
_num$ = 8						; size = 4
?xRandom@@YAKK@Z PROC NEAR				; xRandom, COMDAT

; 22   : 	return  xRand() % num;

  00000	a1 00 00 00 00	 mov	 eax, DWORD PTR ?g_next@@3KA ; g_next
  00005	69 c0 6d 4e c6
	41		 imul	 eax, 1103515245		; 41c64e6dH
  0000b	05 39 30 00 00	 add	 eax, 12345		; 00003039H
  00010	a3 00 00 00 00	 mov	 DWORD PTR ?g_next@@3KA, eax ; g_next
  00015	33 d2		 xor	 edx, edx
  00017	f7 74 24 04	 div	 DWORD PTR _num$[esp-4]
  0001b	8b c2		 mov	 eax, edx

; 23   : }

  0001d	c3		 ret	 0
?xRandom@@YAKK@Z ENDP					; xRandom
_TEXT	ENDS
PUBLIC	?random@@YAHH@Z					; random
EXTRN	_rand:NEAR
; Function compile flags: /Ogty
;	COMDAT ?random@@YAHH@Z
_TEXT	SEGMENT
_nNum$ = 8						; size = 4
?random@@YAHH@Z PROC NEAR				; random, COMDAT

; 28   : inline int	random( int nNum ) { return rand() % nNum; }

  00000	e8 00 00 00 00	 call	 _rand
  00005	99		 cdq
  00006	f7 7c 24 04	 idiv	 DWORD PTR _nNum$[esp-4]
  0000a	8b c2		 mov	 eax, edx
  0000c	c3		 ret	 0
?random@@YAHH@Z ENDP					; random
_TEXT	ENDS
PUBLIC	?IsDelete@CObj@@QAEHXZ				; CObj::IsDelete
; Function compile flags: /Ogty
; File c:\documents and settings\test\mes documents\source\virtuos_v17\build\program\_common\obj.h
;	COMDAT ?IsDelete@CObj@@QAEHXZ
_TEXT	SEGMENT
?IsDelete@CObj@@QAEHXZ PROC NEAR			; CObj::IsDelete, COMDAT
; _this$ = ecx

; 180  : 	BOOL			IsDelete()	{ return (m_dwFlags & OBJ_FLAG_DELETE);  }

  00000	8b 41 04	 mov	 eax, DWORD PTR [ecx+4]
  00003	83 e0 01	 and	 eax, 1
  00006	c3		 ret	 0
?IsDelete@CObj@@QAEHXZ ENDP				; CObj::IsDelete
_TEXT	ENDS
PUBLIC	?GetPos@CObj@@QAE?AUD3DXVECTOR3@@XZ		; CObj::GetPos
; Function compile flags: /Ogty
;	COMDAT ?GetPos@CObj@@QAE?AUD3DXVECTOR3@@XZ
_TEXT	SEGMENT
___$ReturnUdt$ = 8					; size = 4
?GetPos@CObj@@QAE?AUD3DXVECTOR3@@XZ PROC NEAR		; CObj::GetPos, COMDAT
; _this$ = ecx

; 215  : 	D3DXVECTOR3		GetPos()	{ return m_vPos; }

  00000	8b 44 24 04	 mov	 eax, DWORD PTR ___$ReturnUdt$[esp-4]
  00004	81 c1 60 01 00
	00		 add	 ecx, 352		; 00000160H
  0000a	56		 push	 esi
  0000b	8b 31		 mov	 esi, DWORD PTR [ecx]
  0000d	8b d0		 mov	 edx, eax
  0000f	89 32		 mov	 DWORD PTR [edx], esi
  00011	8b 71 04	 mov	 esi, DWORD PTR [ecx+4]
  00014	89 72 04	 mov	 DWORD PTR [edx+4], esi
  00017	8b 49 08	 mov	 ecx, DWORD PTR [ecx+8]
  0001a	89 4a 08	 mov	 DWORD PTR [edx+8], ecx
  0001d	5e		 pop	 esi
  0001e	c2 04 00	 ret	 4
?GetPos@CObj@@QAE?AUD3DXVECTOR3@@XZ ENDP		; CObj::GetPos
_TEXT	ENDS
PUBLIC	?GetWorld@CObj@@QAEPAVCWorld@@XZ		; CObj::GetWorld
; Function compile flags: /Ogty
;	COMDAT ?GetWorld@CObj@@QAEPAVCWorld@@XZ
_TEXT	SEGMENT
?GetWorld@CObj@@QAEPAVCWorld@@XZ PROC NEAR		; CObj::GetWorld, COMDAT
; _this$ = ecx

; 221  : 	CWorld*			GetWorld()	{ return m_pWorld; }

  00000	8b 81 6c 01 00
	00		 mov	 eax, DWORD PTR [ecx+364]
  00006	c3		 ret	 0
?GetWorld@CObj@@QAEPAVCWorld@@XZ ENDP			; CObj::GetWorld
_TEXT	ENDS
PUBLIC	?GetLayer@CObj@@QAEHXZ				; CObj::GetLayer
; Function compile flags: /Ogty
;	COMDAT ?GetLayer@CObj@@QAEHXZ
_TEXT	SEGMENT
?GetLayer@CObj@@QAEHXZ PROC NEAR			; CObj::GetLayer, COMDAT
; _this$ = ecx

; 247  : 	int		GetLayer()	{	return m_nLayer;	}

  00000	8b 81 b8 01 00
	00		 mov	 eax, DWORD PTR [ecx+440]
  00006	c3		 ret	 0
?GetLayer@CObj@@QAEHXZ ENDP				; CObj::GetLayer
_TEXT	ENDS
PUBLIC	?IsValidObj@@YAHPAVCObj@@@Z			; IsValidObj
; Function compile flags: /Ogty
;	COMDAT ?IsValidObj@@YAHPAVCObj@@@Z
_TEXT	SEGMENT
_pObj$ = 8						; size = 4
?IsValidObj@@YAHPAVCObj@@@Z PROC NEAR			; IsValidObj, COMDAT

; 327  : 	return pObj && ( pObj->IsDelete() == FALSE ); 

  00000	8b 44 24 04	 mov	 eax, DWORD PTR _pObj$[esp-4]
  00004	85 c0		 test	 eax, eax
  00006	74 0c		 je	 SHORT $L275308
  00008	f6 40 04 01	 test	 BYTE PTR [eax+4], 1
  0000c	75 06		 jne	 SHORT $L275308
  0000e	b8 01 00 00 00	 mov	 eax, 1

; 328  : }

  00013	c3		 ret	 0
$L275308:

; 327  : 	return pObj && ( pObj->IsDelete() == FALSE ); 

  00014	33 c0		 xor	 eax, eax

; 328  : }

  00016	c3		 ret	 0
?IsValidObj@@YAHPAVCObj@@@Z ENDP			; IsValidObj
_TEXT	ENDS
PUBLIC	??0_CHAO_PROPENSITY@@QAE@XZ			; _CHAO_PROPENSITY::_CHAO_PROPENSITY
; Function compile flags: /Ogty
; File c:\documents and settings\test\mes documents\source\virtuos_v17\build\program\_common\project.h
;	COMDAT ??0_CHAO_PROPENSITY@@QAE@XZ
_TEXT	SEGMENT
??0_CHAO_PROPENSITY@@QAE@XZ PROC NEAR			; _CHAO_PROPENSITY::_CHAO_PROPENSITY, COMDAT
; _this$ = ecx

; 496  : 	_CHAO_PROPENSITY()

  00000	8b c1		 mov	 eax, ecx

; 497  : 	{
; 498  : 		dwPropensityMin = 0;

  00002	33 c9		 xor	 ecx, ecx
  00004	89 08		 mov	 DWORD PTR [eax], ecx

; 499  : 		dwPropensityMax = 0;

  00006	89 48 04	 mov	 DWORD PTR [eax+4], ecx

; 500  : 		nEquipDorpMin = 0;

  00009	89 48 08	 mov	 DWORD PTR [eax+8], ecx

; 501  : 		nEquipDorpMax = 0;

  0000c	89 48 0c	 mov	 DWORD PTR [eax+12], ecx

; 502  : 		nInvenDorpMin = 0;

  0000f	89 48 10	 mov	 DWORD PTR [eax+16], ecx

; 503  : 		nInvenDorpMax = 0;

  00012	89 48 14	 mov	 DWORD PTR [eax+20], ecx

; 504  : 		nShop = 1;

  00015	b9 01 00 00 00	 mov	 ecx, 1
  0001a	89 48 18	 mov	 DWORD PTR [eax+24], ecx

; 505  : 		nBank = 1;

  0001d	89 48 1c	 mov	 DWORD PTR [eax+28], ecx

; 506  : 		nFly = 1;

  00020	89 48 20	 mov	 DWORD PTR [eax+32], ecx

; 507  : 		nGuardAttack = 1;

  00023	89 48 24	 mov	 DWORD PTR [eax+36], ecx

; 508  : 		nVendor = 1;

  00026	89 48 28	 mov	 DWORD PTR [eax+40], ecx

; 509  : 	}

  00029	c3		 ret	 0
??0_CHAO_PROPENSITY@@QAE@XZ ENDP			; _CHAO_PROPENSITY::_CHAO_PROPENSITY
_TEXT	ENDS
PUBLIC	?LOG_RANGE@@YAXPBDHHH@Z				; LOG_RANGE
PUBLIC	??_C@_0BM@HMFGHCP@?$CFs?5min?3?$CFd?0?5max?3?$CFd?0?5index?3?$CFd?$AA@ ; `string'
EXTRN	?Error@@YAPBDPBDZZ:NEAR				; Error
;	COMDAT ??_C@_0BM@HMFGHCP@?$CFs?5min?3?$CFd?0?5max?3?$CFd?0?5index?3?$CFd?$AA@
CONST	SEGMENT
??_C@_0BM@HMFGHCP@?$CFs?5min?3?$CFd?0?5max?3?$CFd?0?5index?3?$CFd?$AA@ DB '%'
	DB	's min:%d, max:%d, index:%d', 00H		; `string'
; Function compile flags: /Ogty
CONST	ENDS
;	COMDAT ?LOG_RANGE@@YAXPBDHHH@Z
_TEXT	SEGMENT
_szMsg$ = 8						; size = 4
_nMin$ = 12						; size = 4
_nMax$ = 16						; size = 4
_nIndex$ = 20						; size = 4
?LOG_RANGE@@YAXPBDHHH@Z PROC NEAR			; LOG_RANGE, COMDAT

; 559  : 	LPCTSTR szErr = Error( _T( "%s min:%d, max:%d, index:%d" ), szMsg, nMin, nMax, nIndex ); 

  00000	8b 44 24 10	 mov	 eax, DWORD PTR _nIndex$[esp-4]
  00004	8b 4c 24 0c	 mov	 ecx, DWORD PTR _nMax$[esp-4]
  00008	8b 54 24 08	 mov	 edx, DWORD PTR _nMin$[esp-4]
  0000c	50		 push	 eax
  0000d	8b 44 24 08	 mov	 eax, DWORD PTR _szMsg$[esp]
  00011	51		 push	 ecx
  00012	52		 push	 edx
  00013	50		 push	 eax
  00014	68 00 00 00 00	 push	 OFFSET FLAT:??_C@_0BM@HMFGHCP@?$CFs?5min?3?$CFd?0?5max?3?$CFd?0?5index?3?$CFd?$AA@
  00019	e8 00 00 00 00	 call	 ?Error@@YAPBDPBDZZ	; Error
  0001e	83 c4 14	 add	 esp, 20			; 00000014H

; 560  : 	ADDERRORMSG( szErr ); 
; 561  : }

  00021	c3		 ret	 0
?LOG_RANGE@@YAXPBDHHH@Z ENDP				; LOG_RANGE
_TEXT	ENDS
PUBLIC	?LOG_CALLSTACK@@YAXXZ				; LOG_CALLSTACK
; Function compile flags: /Ogty
;	COMDAT ?LOG_CALLSTACK@@YAXXZ
_TEXT	SEGMENT
?LOG_CALLSTACK@@YAXXZ PROC NEAR				; LOG_CALLSTACK, COMDAT

; 565  : #ifdef _DEBUG
; 566  : 	__asm int 3
; 567  : #endif
; 568  : 
; 569  : #if defined(__INTERNALSERVER)
; 570  : 	int *p = NULL;		//    
; 571  : 	*p = 1;
; 572  : #endif
; 573  : }

  00000	c3		 ret	 0
?LOG_CALLSTACK@@YAXXZ ENDP				; LOG_CALLSTACK
_TEXT	ENDS
PUBLIC	??_C@_0BJ@GKPOBPPI@GetMoverProp?5range_error?$AA@ ; `string'
PUBLIC	?GetMoverProp@CProject@@QAEPAUMoverProp@@H@Z	; CProject::GetMoverProp
;	COMDAT ??_C@_0BJ@GKPOBPPI@GetMoverProp?5range_error?$AA@
CONST	SEGMENT
??_C@_0BJ@GKPOBPPI@GetMoverProp?5range_error?$AA@ DB 'GetMoverProp range_'
	DB	'error', 00H					; `string'
; Function compile flags: /Ogty
CONST	ENDS
;	COMDAT ?GetMoverProp@CProject@@QAEPAUMoverProp@@H@Z
_TEXT	SEGMENT
_nIndex$ = 8						; size = 4
?GetMoverProp@CProject@@QAEPAUMoverProp@@H@Z PROC NEAR	; CProject::GetMoverProp, COMDAT
; _this$ = ecx

; 1381 : 	VERIFY_RANGE( nIndex, 0, m_nMoverPropSize, "GetMoverProp range_error", NULL );

  00000	8b 44 24 04	 mov	 eax, DWORD PTR _nIndex$[esp-4]
  00004	85 c0		 test	 eax, eax
  00006	7c 19		 jl	 SHORT $L197938
  00008	3b 81 d0 01 00
	00		 cmp	 eax, DWORD PTR [ecx+464]
  0000e	7d 11		 jge	 SHORT $L197938

; 1382 : 	return m_pPropMover + nIndex;

  00010	8b 91 d4 01 00
	00		 mov	 edx, DWORD PTR [ecx+468]
  00016	69 c0 d8 06 00
	00		 imul	 eax, 1752		; 000006d8H
  0001c	03 c2		 add	 eax, edx

; 1383 : }

  0001e	c2 04 00	 ret	 4
$L197938:

; 1381 : 	VERIFY_RANGE( nIndex, 0, m_nMoverPropSize, "GetMoverProp range_error", NULL );

  00021	50		 push	 eax
  00022	8b 81 d0 01 00
	00		 mov	 eax, DWORD PTR [ecx+464]
  00028	50		 push	 eax
  00029	6a 00		 push	 0
  0002b	68 00 00 00 00	 push	 OFFSET FLAT:??_C@_0BJ@GKPOBPPI@GetMoverProp?5range_error?$AA@
  00030	68 00 00 00 00	 push	 OFFSET FLAT:??_C@_0BM@HMFGHCP@?$CFs?5min?3?$CFd?0?5max?3?$CFd?0?5index?3?$CFd?$AA@
  00035	e8 00 00 00 00	 call	 ?Error@@YAPBDPBDZZ	; Error
  0003a	83 c4 14	 add	 esp, 20			; 00000014H
  0003d	33 c0		 xor	 eax, eax

; 1383 : }

  0003f	c2 04 00	 ret	 4
?GetMoverProp@CProject@@QAEPAUMoverProp@@H@Z ENDP	; CProject::GetMoverProp
_TEXT	ENDS
PUBLIC	?GetRHandIdx@CModelObject@@QAEHXZ		; CModelObject::GetRHandIdx
; Function compile flags: /Ogty
; File c:\documents and settings\test\mes documents\source\virtuos_v17\build\program\_common\modelobject.h
;	COMDAT ?GetRHandIdx@CModelObject@@QAEHXZ
_TEXT	SEGMENT
?GetRHandIdx@CModelObject@@QAEHXZ PROC NEAR		; CModelObject::GetRHandIdx, COMDAT
; _this$ = ecx

; 167  : 	int					GetRHandIdx( void ) { return m_pBone->m_nRHandIdx; }

  00000	8b 81 84 2a 00
	00		 mov	 eax, DWORD PTR [ecx+10884]
  00006	8b 80 50 01 00
	00		 mov	 eax, DWORD PTR [eax+336]
  0000c	c3		 ret	 0
?GetRHandIdx@CModelObject@@QAEHXZ ENDP			; CModelObject::GetRHandIdx
_TEXT	ENDS
PUBLIC	?GetLHandIdx@CModelObject@@QAEHXZ		; CModelObject::GetLHandIdx
; Function compile flags: /Ogty
;	COMDAT ?GetLHandIdx@CModelObject@@QAEHXZ
_TEXT	SEGMENT
?GetLHandIdx@CModelObject@@QAEHXZ PROC NEAR		; CModelObject::GetLHandIdx, COMDAT
; _this$ = ecx

; 168  : 	int					GetLHandIdx( void ) { return m_pBone->m_nLHandIdx; }

  00000	8b 81 84 2a 00
	00		 mov	 eax, DWORD PTR [ecx+10884]
  00006	8b 80 54 01 00
	00		 mov	 eax, DWORD PTR [eax+340]
  0000c	c3		 ret	 0
?GetLHandIdx@CModelObject@@QAEHXZ ENDP			; CModelObject::GetLHandIdx
_TEXT	ENDS
PUBLIC	?GetRArmIdx@CModelObject@@QAEHXZ		; CModelObject::GetRArmIdx
; Function compile flags: /Ogty
;	COMDAT ?GetRArmIdx@CModelObject@@QAEHXZ
_TEXT	SEGMENT
?GetRArmIdx@CModelObject@@QAEHXZ PROC NEAR		; CModelObject::GetRArmIdx, COMDAT
; _this$ = ecx

; 169  : 	int					GetRArmIdx( void ) { return m_pBone->m_nRArmIdx; }

  00000	8b 81 84 2a 00
	00		 mov	 eax, DWORD PTR [ecx+10884]
  00006	8b 80 58 01 00
	00		 mov	 eax, DWORD PTR [eax+344]
  0000c	c3		 ret	 0
?GetRArmIdx@CModelObject@@QAEHXZ ENDP			; CModelObject::GetRArmIdx
_TEXT	ENDS
PUBLIC	?GetLArmIdx@CModelObject@@QAEHXZ		; CModelObject::GetLArmIdx
; Function compile flags: /Ogty
;	COMDAT ?GetLArmIdx@CModelObject@@QAEHXZ
_TEXT	SEGMENT
?GetLArmIdx@CModelObject@@QAEHXZ PROC NEAR		; CModelObject::GetLArmIdx, COMDAT
; _this$ = ecx

; 170  : 	int					GetLArmIdx( void ) { return m_pBone->m_nLArmIdx; }

  00000	8b 81 84 2a 00
	00		 mov	 eax, DWORD PTR [ecx+10884]
  00006	8b 80 5c 01 00
	00		 mov	 eax, DWORD PTR [eax+348]
  0000c	c3		 ret	 0
?GetLArmIdx@CModelObject@@QAEHXZ ENDP			; CModelObject::GetLArmIdx
_TEXT	ENDS
PUBLIC	?IsEmpty@CItemBase@@QAEHXZ			; CItemBase::IsEmpty
; Function compile flags: /Ogty
; File c:\documents and settings\test\mes documents\source\virtuos_v17\build\program\_common\item.h
;	COMDAT ?IsEmpty@CItemBase@@QAEHXZ
_TEXT	SEGMENT
?IsEmpty@CItemBase@@QAEHXZ PROC NEAR			; CItemBase::IsEmpty, COMDAT
; _this$ = ecx

; 48   : 	BOOL			IsEmpty() { return m_dwItemId ? FALSE : TRUE; }

  00000	8b 51 0c	 mov	 edx, DWORD PTR [ecx+12]
  00003	33 c0		 xor	 eax, eax
  00005	85 d2		 test	 edx, edx
  00007	0f 94 c0	 sete	 al
  0000a	c3		 ret	 0
?IsEmpty@CItemBase@@QAEHXZ ENDP				; CItemBase::IsEmpty
_TEXT	ENDS
PUBLIC	?IsAccessory@CItemElem@@QAEHXZ			; CItemElem::IsAccessory
EXTRN	?GetInstance@CAccessoryProperty@@SAPAV1@XZ:NEAR	; CAccessoryProperty::GetInstance
EXTRN	?IsAccessory@CAccessoryProperty@@QAEHK@Z:NEAR	; CAccessoryProperty::IsAccessory
; Function compile flags: /Ogty
;	COMDAT ?IsAccessory@CItemElem@@QAEHXZ
_TEXT	SEGMENT
?IsAccessory@CItemElem@@QAEHXZ PROC NEAR		; CItemElem::IsAccessory, COMDAT
; _this$ = ecx

; 153  : 	BOOL	IsAccessory( void )		{	return CAccessoryProperty::GetInstance()->IsAccessory( m_dwItemId );	}

  00000	8b 41 0c	 mov	 eax, DWORD PTR [ecx+12]
  00003	50		 push	 eax
  00004	e8 00 00 00 00	 call	 ?GetInstance@CAccessoryProperty@@SAPAV1@XZ ; CAccessoryProperty::GetInstance
  00009	8b c8		 mov	 ecx, eax
  0000b	e8 00 00 00 00	 call	 ?IsAccessory@CAccessoryProperty@@QAEHK@Z ; CAccessoryProperty::IsAccessory
  00010	c3		 ret	 0
?IsAccessory@CItemElem@@QAEHXZ ENDP			; CItemElem::IsAccessory
_TEXT	ENDS
PUBLIC	?GetAbilityOption@CItemElem@@QAEHXZ		; CItemElem::GetAbilityOption
; Function compile flags: /Ogty
;	COMDAT ?GetAbilityOption@CItemElem@@QAEHXZ
_TEXT	SEGMENT
?GetAbilityOption@CItemElem@@QAEHXZ PROC NEAR		; CItemElem::GetAbilityOption, COMDAT
; _this$ = ecx

; 231  : 	int			GetAbilityOption() { return m_nAbilityOption; }

  00000	8b 41 70	 mov	 eax, DWORD PTR [ecx+112]
  00003	c3		 ret	 0
?GetAbilityOption@CItemElem@@QAEHXZ ENDP		; CItemElem::GetAbilityOption
_TEXT	ENDS
PUBLIC	?SetFlag@CItemElem@@QAEXE@Z			; CItemElem::SetFlag
; Function compile flags: /Ogty
;	COMDAT ?SetFlag@CItemElem@@QAEXE@Z
_TEXT	SEGMENT
_byFlag$ = 8						; size = 1
?SetFlag@CItemElem@@QAEXE@Z PROC NEAR			; CItemElem::SetFlag, COMDAT
; _this$ = ecx

; 255  : 	void	SetFlag( BYTE byFlag )		{	m_byFlag	|= byFlag;		}

  00000	8a 91 82 00 00
	00		 mov	 dl, BYTE PTR [ecx+130]
  00006	8a 44 24 04	 mov	 al, BYTE PTR _byFlag$[esp-4]
  0000a	0a d0		 or	 dl, al
  0000c	88 91 82 00 00
	00		 mov	 BYTE PTR [ecx+130], dl
  00012	c2 04 00	 ret	 4
?SetFlag@CItemElem@@QAEXE@Z ENDP			; CItemElem::SetFlag
_TEXT	ENDS
PUBLIC	?IsFlag@CItemElem@@QAEHE@Z			; CItemElem::IsFlag
; Function compile flags: /Ogty
;	COMDAT ?IsFlag@CItemElem@@QAEHE@Z
_TEXT	SEGMENT
_byFlag$ = 8						; size = 1
?IsFlag@CItemElem@@QAEHE@Z PROC NEAR			; CItemElem::IsFlag, COMDAT
; _this$ = ecx

; 256  : 	BOOL	IsFlag( BYTE byFlag )	{	return ( m_byFlag & byFlag ) ? TRUE: FALSE;		}

  00000	8a 81 82 00 00
	00		 mov	 al, BYTE PTR [ecx+130]
  00006	22 44 24 04	 and	 al, BYTE PTR _byFlag$[esp-4]
  0000a	f6 d8		 neg	 al
  0000c	1b c0		 sbb	 eax, eax
  0000e	f7 d8		 neg	 eax
  00010	c2 04 00	 ret	 4
?IsFlag@CItemElem@@QAEHE@Z ENDP				; CItemElem::IsFlag
_TEXT	ENDS
PUBLIC	?GetAttrOption@CItemElem@@QAEHXZ		; CItemElem::GetAttrOption
; Function compile flags: /Ogty
;	COMDAT ?GetAttrOption@CItemElem@@QAEHXZ
_TEXT	SEGMENT
?GetAttrOption@CItemElem@@QAEHXZ PROC NEAR		; CItemElem::GetAttrOption, COMDAT
; _this$ = ecx

; 288  : 	int nAttr = (int)m_bItemResist;
; 289  : 	int nOption = m_nResistAbilityOption;
; 290  : 	int nRet = m_nAbilityOption;
; 291  : 	
; 292  : 	nRet |= (nAttr << 16);		// D16~D23 : 
; 293  : 	nRet |= (nOption << 24);	// D24~D31 : 
; 294  : 	return nRet;

  00000	0f b6 91 88 00
	00 00		 movzx	 edx, BYTE PTR [ecx+136]
  00007	8b 81 8c 00 00
	00		 mov	 eax, DWORD PTR [ecx+140]
  0000d	c1 e0 08	 shl	 eax, 8
  00010	0b c2		 or	 eax, edx
  00012	8b 51 70	 mov	 edx, DWORD PTR [ecx+112]
  00015	c1 e0 10	 shl	 eax, 16			; 00000010H
  00018	0b c2		 or	 eax, edx

; 295  : }

  0001a	c3		 ret	 0
?GetAttrOption@CItemElem@@QAEHXZ ENDP			; CItemElem::GetAttrOption
_TEXT	ENDS
PUBLIC	?IsState@CAction@@QAEHK@Z			; CAction::IsState
; Function compile flags: /Ogty
; File c:\documents and settings\test\mes documents\source\virtuos_v17\build\program\_aiinterface\action.h
;	COMDAT ?IsState@CAction@@QAEHK@Z
_TEXT	SEGMENT
_dwState$ = 8						; size = 4
?IsState@CAction@@QAEHK@Z PROC NEAR			; CAction::IsState, COMDAT
; _this$ = ecx

; 307  : 	BOOL			IsState( DWORD dwState ) { return ( m_dwState & dwState ) ? TRUE : FALSE; }

  00000	8b 41 04	 mov	 eax, DWORD PTR [ecx+4]
  00003	23 44 24 04	 and	 eax, DWORD PTR _dwState$[esp-4]
  00007	f7 d8		 neg	 eax
  00009	1b c0		 sbb	 eax, eax
  0000b	f7 d8		 neg	 eax
  0000d	c2 04 00	 ret	 4
?IsState@CAction@@QAEHK@Z ENDP				; CAction::IsState
_TEXT	ENDS
PUBLIC	?IsStateFlag@CAction@@QAEHK@Z			; CAction::IsStateFlag
; Function compile flags: /Ogty
;	COMDAT ?IsStateFlag@CAction@@QAEHK@Z
_TEXT	SEGMENT
_dwStateFlag$ = 8					; size = 4
?IsStateFlag@CAction@@QAEHK@Z PROC NEAR			; CAction::IsStateFlag, COMDAT
; _this$ = ecx

; 308  : 	BOOL			IsStateFlag( DWORD dwStateFlag ) { return ( m_dwStateFlag & dwStateFlag ) ? TRUE : FALSE; }

  00000	8b 41 08	 mov	 eax, DWORD PTR [ecx+8]
  00003	23 44 24 04	 and	 eax, DWORD PTR _dwStateFlag$[esp-4]
  00007	f7 d8		 neg	 eax
  00009	1b c0		 sbb	 eax, eax
  0000b	f7 d8		 neg	 eax
  0000d	c2 04 00	 ret	 4
?IsStateFlag@CAction@@QAEHK@Z ENDP			; CAction::IsStateFlag
_TEXT	ENDS
PUBLIC	?IsFly@CAction@@QAEHXZ				; CAction::IsFly
; Function compile flags: /Ogty
;	COMDAT ?IsFly@CAction@@QAEHXZ
_TEXT	SEGMENT
?IsFly@CAction@@QAEHXZ PROC NEAR			; CAction::IsFly, COMDAT
; _this$ = ecx

; 309  : 	BOOL			IsFly() { return (m_dwStateFlag & OBJSTAF_FLY) ? TRUE : FALSE; }

  00000	8b 41 08	 mov	 eax, DWORD PTR [ecx+8]
  00003	c1 e8 03	 shr	 eax, 3
  00006	83 e0 01	 and	 eax, 1
  00009	c3		 ret	 0
?IsFly@CAction@@QAEHXZ ENDP				; CAction::IsFly
_TEXT	ENDS
PUBLIC	?IsDie@CAction@@QAEHXZ				; CAction::IsDie
; Function compile flags: /Ogty
;	COMDAT ?IsDie@CAction@@QAEHXZ
_TEXT	SEGMENT
?IsDie@CAction@@QAEHXZ PROC NEAR			; CAction::IsDie, COMDAT
; _this$ = ecx

; 310  : 	BOOL			IsDie() { return (m_dwState & OBJSTA_DIE_ALL) ? TRUE : FALSE; }

  00000	8b 41 04	 mov	 eax, DWORD PTR [ecx+4]
  00003	c1 e8 1b	 shr	 eax, 27			; 0000001bH
  00006	83 e0 01	 and	 eax, 1
  00009	c3		 ret	 0
?IsDie@CAction@@QAEHXZ ENDP				; CAction::IsDie
_TEXT	ENDS
PUBLIC	?IsSit@CAction@@QAEHXZ				; CAction::IsSit
; Function compile flags: /Ogty
;	COMDAT ?IsSit@CAction@@QAEHXZ
_TEXT	SEGMENT
?IsSit@CAction@@QAEHXZ PROC NEAR			; CAction::IsSit, COMDAT
; _this$ = ecx

; 311  : 	BOOL			IsSit() { return (m_dwStateFlag & OBJSTAF_SIT) ? TRUE : FALSE; }

  00000	8b 41 08	 mov	 eax, DWORD PTR [ecx+8]
  00003	c1 e8 02	 shr	 eax, 2
  00006	83 e0 01	 and	 eax, 1
  00009	c3		 ret	 0
?IsSit@CAction@@QAEHXZ ENDP				; CAction::IsSit
_TEXT	ENDS
PUBLIC	?IsActAttack@CAction@@QAEHXZ			; CAction::IsActAttack
; Function compile flags: /Ogty
;	COMDAT ?IsActAttack@CAction@@QAEHXZ
_TEXT	SEGMENT
?IsActAttack@CAction@@QAEHXZ PROC NEAR			; CAction::IsActAttack, COMDAT
; _this$ = ecx

; 322  : 	BOOL			IsActAttack()		{ return m_dwState & OBJSTA_ATK_ALL; }

  00000	8b 41 04	 mov	 eax, DWORD PTR [ecx+4]
  00003	25 00 00 ff 00	 and	 eax, 16711680		; 00ff0000H
  00008	c3		 ret	 0
?IsActAttack@CAction@@QAEHXZ ENDP			; CAction::IsActAttack
_TEXT	ENDS
PUBLIC	?HasActivatedEatPet@CMover@@QAEHXZ		; CMover::HasActivatedEatPet
; Function compile flags: /Ogty
; File c:\documents and settings\test\mes documents\source\virtuos_v17\build\program\_common\mover.h
;	COMDAT ?HasActivatedEatPet@CMover@@QAEHXZ
_TEXT	SEGMENT
?HasActivatedEatPet@CMover@@QAEHXZ PROC NEAR		; CMover::HasActivatedEatPet, COMDAT
; _this$ = ecx

; 827  : 	BOOL	HasActivatedEatPet( void )		{	return m_oiEatPet != NULL_ID;	}

  00000	8b 91 7c 06 00
	00		 mov	 edx, DWORD PTR [ecx+1660]
  00006	33 c0		 xor	 eax, eax
  00008	83 fa ff	 cmp	 edx, -1
  0000b	0f 95 c0	 setne	 al
  0000e	c3		 ret	 0
?HasActivatedEatPet@CMover@@QAEHXZ ENDP			; CMover::HasActivatedEatPet
_TEXT	ENDS
PUBLIC	?HasActivatedSystemPet@CMover@@QAEHXZ		; CMover::HasActivatedSystemPet
; Function compile flags: /Ogty
;	COMDAT ?HasActivatedSystemPet@CMover@@QAEHXZ
_TEXT	SEGMENT
?HasActivatedSystemPet@CMover@@QAEHXZ PROC NEAR		; CMover::HasActivatedSystemPet, COMDAT
; _this$ = ecx

; 828  : 	BOOL	HasActivatedSystemPet( void )	{	return m_dwPetId != NULL_ID;	}

  00000	8b 91 8c 11 00
	00		 mov	 edx, DWORD PTR [ecx+4492]
  00006	33 c0		 xor	 eax, eax
  00008	83 fa ff	 cmp	 edx, -1
  0000b	0f 95 c0	 setne	 al
  0000e	c3		 ret	 0
?HasActivatedSystemPet@CMover@@QAEHXZ ENDP		; CMover::HasActivatedSystemPet
_TEXT	ENDS
PUBLIC	?IsPlayer@CMover@@QAEHXZ			; CMover::IsPlayer
; Function compile flags: /Ogty
;	COMDAT ?IsPlayer@CMover@@QAEHXZ
_TEXT	SEGMENT
?IsPlayer@CMover@@QAEHXZ PROC NEAR			; CMover::IsPlayer, COMDAT
; _this$ = ecx

; 1042 : 	BOOL			IsPlayer()			{ return m_bPlayer; }

  00000	8b 81 34 02 00
	00		 mov	 eax, DWORD PTR [ecx+564]
  00006	c3		 ret	 0
?IsPlayer@CMover@@QAEHXZ ENDP				; CMover::IsPlayer
_TEXT	ENDS
PUBLIC	?GetPropA@CMover@@QAEPAUMoverProp@@XZ		; CMover::GetPropA
EXTRN	?prj@@3VCProject@@A:BYTE			; prj
; Function compile flags: /Ogty
;	COMDAT ?GetPropA@CMover@@QAEPAUMoverProp@@XZ
_TEXT	SEGMENT
?GetPropA@CMover@@QAEPAUMoverProp@@XZ PROC NEAR		; CMover::GetPropA, COMDAT
; _this$ = ecx

; 1046 : 	MoverProp*		GetProp() { return prj.GetMoverProp( m_dwIndex ); }	//    	

  00000	8b 81 74 01 00
	00		 mov	 eax, DWORD PTR [ecx+372]
  00006	85 c0		 test	 eax, eax
  00008	8b 0d d0 01 00
	00		 mov	 ecx, DWORD PTR ?prj@@3VCProject@@A+464
  0000e	7c 13		 jl	 SHORT $L275401
  00010	3b c1		 cmp	 eax, ecx
  00012	7d 0f		 jge	 SHORT $L275401
  00014	8b 0d d4 01 00
	00		 mov	 ecx, DWORD PTR ?prj@@3VCProject@@A+468
  0001a	69 c0 d8 06 00
	00		 imul	 eax, 1752		; 000006d8H
  00020	03 c1		 add	 eax, ecx
  00022	c3		 ret	 0
$L275401:
  00023	50		 push	 eax
  00024	51		 push	 ecx
  00025	6a 00		 push	 0
  00027	68 00 00 00 00	 push	 OFFSET FLAT:??_C@_0BJ@GKPOBPPI@GetMoverProp?5range_error?$AA@
  0002c	68 00 00 00 00	 push	 OFFSET FLAT:??_C@_0BM@HMFGHCP@?$CFs?5min?3?$CFd?0?5max?3?$CFd?0?5index?3?$CFd?$AA@
  00031	e8 00 00 00 00	 call	 ?Error@@YAPBDPBDZZ	; Error
  00036	83 c4 14	 add	 esp, 20			; 00000014H
  00039	33 c0		 xor	 eax, eax
  0003b	c3		 ret	 0
?GetPropA@CMover@@QAEPAUMoverProp@@XZ ENDP		; CMover::GetPropA
_TEXT	ENDS
PUBLIC	?ClearDestObj@CMover@@QAEXXZ			; CMover::ClearDestObj
; Function compile flags: /Ogty
;	COMDAT ?ClearDestObj@CMover@@QAEXXZ
_TEXT	SEGMENT
?ClearDestObj@CMover@@QAEXXZ PROC NEAR			; CMover::ClearDestObj, COMDAT
; _this$ = ecx

; 1056 : 	void			ClearDestObj()     	{ m_idDest = NULL_ID; m_fArrivalRange = 0.0f; }

  00000	c7 81 5c 02 00
	00 ff ff ff ff	 mov	 DWORD PTR [ecx+604], -1
  0000a	c7 81 58 02 00
	00 00 00 00 00	 mov	 DWORD PTR [ecx+600], 0
  00014	c3		 ret	 0
?ClearDestObj@CMover@@QAEXXZ ENDP			; CMover::ClearDestObj
_TEXT	ENDS
PUBLIC	?ClearDestPos@CMover@@QAEXXZ			; CMover::ClearDestPos
; Function compile flags: /Ogty
;	COMDAT ?ClearDestPos@CMover@@QAEXXZ
_TEXT	SEGMENT
$T275414 = -12						; size = 12
?ClearDestPos@CMover@@QAEXXZ PROC NEAR			; CMover::ClearDestPos, COMDAT
; _this$ = ecx

; 1057 : 	void			ClearDestPos()		{ m_vDestPos = D3DXVECTOR3( 0.0f, 0.0f, 0.0f ); }		

  00000	83 ec 0c	 sub	 esp, 12			; 0000000cH
  00003	c7 04 24 00 00
	00 00		 mov	 DWORD PTR $T275414[esp+12], 0
  0000a	8b 04 24	 mov	 eax, DWORD PTR $T275414[esp+12]
  0000d	81 c1 60 02 00
	00		 add	 ecx, 608		; 00000260H
  00013	89 01		 mov	 DWORD PTR [ecx], eax
  00015	c7 44 24 04 00
	00 00 00	 mov	 DWORD PTR $T275414[esp+16], 0
  0001d	8b 54 24 04	 mov	 edx, DWORD PTR $T275414[esp+16]
  00021	c7 44 24 08 00
	00 00 00	 mov	 DWORD PTR $T275414[esp+20], 0
  00029	8b 44 24 08	 mov	 eax, DWORD PTR $T275414[esp+20]
  0002d	89 51 04	 mov	 DWORD PTR [ecx+4], edx
  00030	89 41 08	 mov	 DWORD PTR [ecx+8], eax
  00033	83 c4 0c	 add	 esp, 12			; 0000000cH
  00036	c3		 ret	 0
?ClearDestPos@CMover@@QAEXXZ ENDP			; CMover::ClearDestPos
_TEXT	ENDS
PUBLIC	?ClearDest@CMover@@QAEXXZ			; CMover::ClearDest
; Function compile flags: /Ogty
;	COMDAT ?ClearDest@CMover@@QAEXXZ
_TEXT	SEGMENT
$T275433 = -12						; size = 12
?ClearDest@CMover@@QAEXXZ PROC NEAR			; CMover::ClearDest, COMDAT
; _this$ = ecx

; 1058 : 	void			ClearDest()			{ ClearDestObj(); ClearDestPos(); }

  00000	83 ec 0c	 sub	 esp, 12			; 0000000cH
  00003	c7 81 5c 02 00
	00 ff ff ff ff	 mov	 DWORD PTR [ecx+604], -1
  0000d	c7 81 58 02 00
	00 00 00 00 00	 mov	 DWORD PTR [ecx+600], 0
  00017	c7 04 24 00 00
	00 00		 mov	 DWORD PTR $T275433[esp+12], 0
  0001e	8b 04 24	 mov	 eax, DWORD PTR $T275433[esp+12]
  00021	81 c1 60 02 00
	00		 add	 ecx, 608		; 00000260H
  00027	89 01		 mov	 DWORD PTR [ecx], eax
  00029	c7 44 24 04 00
	00 00 00	 mov	 DWORD PTR $T275433[esp+16], 0
  00031	8b 54 24 04	 mov	 edx, DWORD PTR $T275433[esp+16]
  00035	c7 44 24 08 00
	00 00 00	 mov	 DWORD PTR $T275433[esp+20], 0
  0003d	8b 44 24 08	 mov	 eax, DWORD PTR $T275433[esp+20]
  00041	89 51 04	 mov	 DWORD PTR [ecx+4], edx
  00044	89 41 08	 mov	 DWORD PTR [ecx+8], eax
  00047	83 c4 0c	 add	 esp, 12			; 0000000cH
  0004a	c3		 ret	 0
?ClearDest@CMover@@QAEXXZ ENDP				; CMover::ClearDest
_TEXT	ENDS
PUBLIC	?ClearDestAngle@CMover@@QAEXXZ			; CMover::ClearDestAngle
; Function compile flags: /Ogty
;	COMDAT ?ClearDestAngle@CMover@@QAEXXZ
_TEXT	SEGMENT
?ClearDestAngle@CMover@@QAEXXZ PROC NEAR		; CMover::ClearDestAngle, COMDAT
; _this$ = ecx

; 1065 : 	void			ClearDestAngle()	{ m_fDestAngle	= -1.0f; }

  00000	c7 81 6c 02 00
	00 00 00 80 bf	 mov	 DWORD PTR [ecx+620], -1082130432 ; bf800000H
  0000a	c3		 ret	 0
?ClearDestAngle@CMover@@QAEXXZ ENDP			; CMover::ClearDestAngle
_TEXT	ENDS
PUBLIC	?GetSex@CMover@@QAEEXZ				; CMover::GetSex
; Function compile flags: /Ogty
;	COMDAT ?GetSex@CMover@@QAEEXZ
_TEXT	SEGMENT
?GetSex@CMover@@QAEEXZ PROC NEAR			; CMover::GetSex, COMDAT
; _this$ = ecx

; 1144 : 	BYTE			GetSex() { return m_bySex; }

  00000	8a 81 20 06 00
	00		 mov	 al, BYTE PTR [ecx+1568]
  00006	c3		 ret	 0
?GetSex@CMover@@QAEEXZ ENDP				; CMover::GetSex
_TEXT	ENDS
PUBLIC	?GetLevel@CMover@@QAEHXZ			; CMover::GetLevel
; Function compile flags: /Ogty
;	COMDAT ?GetLevel@CMover@@QAEHXZ
_TEXT	SEGMENT
?GetLevel@CMover@@QAEHXZ PROC NEAR			; CMover::GetLevel, COMDAT
; _this$ = ecx

; 1159 : 	int				GetLevel() { return m_nLevel; }

  00000	8b 81 e0 05 00
	00		 mov	 eax, DWORD PTR [ecx+1504]
  00006	c3		 ret	 0
?GetLevel@CMover@@QAEHXZ ENDP				; CMover::GetLevel
_TEXT	ENDS
PUBLIC	?IsDie@CMover@@QAEHXZ				; CMover::IsDie
; Function compile flags: /Ogty
;	COMDAT ?IsDie@CMover@@QAEHXZ
_TEXT	SEGMENT
?IsDie@CMover@@QAEHXZ PROC NEAR				; CMover::IsDie, COMDAT
; _this$ = ecx

; 1276 : 	BOOL			IsDie() { return m_pActMover->IsDie() || m_nHitPoint == 0; }

  00000	8b 81 3c 02 00
	00		 mov	 eax, DWORD PTR [ecx+572]
  00006	f7 40 04 00 00
	00 08		 test	 DWORD PTR [eax+4], 134217728 ; 08000000H
  0000d	75 0d		 jne	 SHORT $L275448
  0000f	8b 81 00 06 00
	00		 mov	 eax, DWORD PTR [ecx+1536]
  00015	85 c0		 test	 eax, eax
  00017	74 03		 je	 SHORT $L275448
  00019	33 c0		 xor	 eax, eax
  0001b	c3		 ret	 0
$L275448:
  0001c	b8 01 00 00 00	 mov	 eax, 1
  00021	c3		 ret	 0
?IsDie@CMover@@QAEHXZ ENDP				; CMover::IsDie
_TEXT	ENDS
PUBLIC	?IsChaotic@CMover@@QAEHXZ			; CMover::IsChaotic
; Function compile flags: /Ogty
;	COMDAT ?IsChaotic@CMover@@QAEHXZ
_TEXT	SEGMENT
?IsChaotic@CMover@@QAEHXZ PROC NEAR			; CMover::IsChaotic, COMDAT
; _this$ = ecx

; 1283 : 	BOOL			IsChaotic( void ) { return m_dwPKPropensity > 0; }	/// 

  00000	8b 91 60 07 00
	00		 mov	 edx, DWORD PTR [ecx+1888]
  00006	33 c0		 xor	 eax, eax
  00008	3b c2		 cmp	 eax, edx
  0000a	1b c0		 sbb	 eax, eax
  0000c	f7 d8		 neg	 eax
  0000e	c3		 ret	 0
?IsChaotic@CMover@@QAEHXZ ENDP				; CMover::IsChaotic
_TEXT	ENDS
PUBLIC	?GetPKPropensity@CMover@@QAEKXZ			; CMover::GetPKPropensity
; Function compile flags: /Ogty
;	COMDAT ?GetPKPropensity@CMover@@QAEKXZ
_TEXT	SEGMENT
?GetPKPropensity@CMover@@QAEKXZ PROC NEAR		; CMover::GetPKPropensity, COMDAT
; _this$ = ecx

; 1287 : 	DWORD			GetPKPropensity( void ) { return m_dwPKPropensity; }

  00000	8b 81 60 07 00
	00		 mov	 eax, DWORD PTR [ecx+1888]
  00006	c3		 ret	 0
?GetPKPropensity@CMover@@QAEKXZ ENDP			; CMover::GetPKPropensity
_TEXT	ENDS
PUBLIC	?IsSMMode@CMover@@QAEHH@Z			; CMover::IsSMMode
; Function compile flags: /Ogty
;	COMDAT ?IsSMMode@CMover@@QAEHH@Z
_TEXT	SEGMENT
_nType$ = 8						; size = 4
?IsSMMode@CMover@@QAEHH@Z PROC NEAR			; CMover::IsSMMode, COMDAT
; _this$ = ecx

; 1483 : 	BOOL			IsSMMode( int nType ) { return ( m_dwSMTime[nType] > 0 ) ? TRUE : FALSE; }

  00000	8b 54 24 04	 mov	 edx, DWORD PTR _nType$[esp-4]
  00004	56		 push	 esi
  00005	8b b4 91 04 03
	00 00		 mov	 esi, DWORD PTR [ecx+edx*4+772]
  0000c	33 c0		 xor	 eax, eax
  0000e	3b c6		 cmp	 eax, esi
  00010	1b c0		 sbb	 eax, eax
  00012	f7 d8		 neg	 eax
  00014	5e		 pop	 esi
  00015	c2 04 00	 ret	 4
?IsSMMode@CMover@@QAEHH@Z ENDP				; CMover::IsSMMode
_TEXT	ENDS
PUBLIC	?SendActMsg@CMover@@QAEHW4OBJMSG@@HHHH@Z	; CMover::SendActMsg
; Function compile flags: /Ogty
;	COMDAT ?SendActMsg@CMover@@QAEHW4OBJMSG@@HHHH@Z
_TEXT	SEGMENT
_dwMsg$ = 8						; size = 4
_nParam1$ = 12						; size = 4
_nParam2$ = 16						; size = 4
_nParam3$ = 20						; size = 4
_nParam4$ = 24						; size = 4
?SendActMsg@CMover@@QAEHW4OBJMSG@@HHHH@Z PROC NEAR	; CMover::SendActMsg, COMDAT
; _this$ = ecx

; 1820 : 	if( m_pActMover )	

  00000	8b 81 3c 02 00
	00		 mov	 eax, DWORD PTR [ecx+572]
  00006	85 c0		 test	 eax, eax
  00008	74 25		 je	 SHORT $L212505

; 1821 : 		return m_pActMover->SendActMsg( dwMsg, nParam1, nParam2, nParam3, nParam4 );	

  0000a	8b 54 24 14	 mov	 edx, DWORD PTR _nParam4$[esp-4]
  0000e	6a 00		 push	 0
  00010	52		 push	 edx
  00011	8b 54 24 18	 mov	 edx, DWORD PTR _nParam3$[esp+4]
  00015	52		 push	 edx
  00016	8b 54 24 18	 mov	 edx, DWORD PTR _nParam2$[esp+8]
  0001a	52		 push	 edx
  0001b	8b 54 24 18	 mov	 edx, DWORD PTR _nParam1$[esp+12]
  0001f	52		 push	 edx
  00020	8b 54 24 18	 mov	 edx, DWORD PTR _dwMsg$[esp+16]
  00024	8b c8		 mov	 ecx, eax
  00026	8b 01		 mov	 eax, DWORD PTR [ecx]
  00028	52		 push	 edx
  00029	ff 50 04	 call	 DWORD PTR [eax+4]

; 1824 : }

  0002c	c2 14 00	 ret	 20			; 00000014H
$L212505:

; 1822 : 	else
; 1823 : 		return 0;

  0002f	33 c0		 xor	 eax, eax

; 1824 : }

  00031	c2 14 00	 ret	 20			; 00000014H
?SendActMsg@CMover@@QAEHW4OBJMSG@@HHHH@Z ENDP		; CMover::SendActMsg
_TEXT	ENDS
PUBLIC	?GetGold@CMover@@QAEHXZ				; CMover::GetGold
; Function compile flags: /Ogty
;	COMDAT ?GetGold@CMover@@QAEHXZ
_TEXT	SEGMENT
?GetGold@CMover@@QAEHXZ PROC NEAR			; CMover::GetGold, COMDAT
; _this$ = ecx

; 1829 : 	int nGold = m_dwGold;
; 1830 : //	nGold -= m_vtInfo.TradeGetGold();
; 1831 : 	ASSERT( nGold >= 0 );
; 1832 : 	return nGold;

  00000	8b 81 84 16 00
	00		 mov	 eax, DWORD PTR [ecx+5764]

; 1833 : }

  00006	c3		 ret	 0
?GetGold@CMover@@QAEHXZ ENDP				; CMover::GetGold
_TEXT	ENDS
PUBLIC	?GetID@CWorld@@QAEKXZ				; CWorld::GetID
; Function compile flags: /Ogty
; File c:\documents and settings\test\mes documents\source\virtuos_v17\build\program\_common\world.h
;	COMDAT ?GetID@CWorld@@QAEKXZ
_TEXT	SEGMENT
?GetID@CWorld@@QAEKXZ PROC NEAR				; CWorld::GetID, COMDAT
; _this$ = ecx

; 413  : 	DWORD			GetID()	{ return m_dwWorldID; }

  00000	8b 01		 mov	 eax, DWORD PTR [ecx]
  00002	c3		 ret	 0
?GetID@CWorld@@QAEKXZ ENDP				; CWorld::GetID
_TEXT	ENDS
PUBLIC	?GetSize@?$CFixedArray@UItemProp@@@@QAEHXZ	; CFixedArray<ItemProp>::GetSize
; Function compile flags: /Ogty
; File c:\documents and settings\test\mes documents\source\virtuos_v17\build\program\_common\data.h
;	COMDAT ?GetSize@?$CFixedArray@UItemProp@@@@QAEHXZ
_TEXT	SEGMENT
?GetSize@?$CFixedArray@UItemProp@@@@QAEHXZ PROC NEAR	; CFixedArray<ItemProp>::GetSize, COMDAT
; _this$ = ecx

; 221  : 	int  GetSize() { return m_nMaxIndex; }

  00000	8b 41 18	 mov	 eax, DWORD PTR [ecx+24]
  00003	c3		 ret	 0
?GetSize@?$CFixedArray@UItemProp@@@@QAEHXZ ENDP		; CFixedArray<ItemProp>::GetSize
_TEXT	ENDS
PUBLIC	??R?$less@H@std@@QBE_NABH0@Z			; std::less<int>::operator()
; Function compile flags: /Ogty
; File c:\program files\microsoft visual studio .net 2003\vc7\include\functional
;	COMDAT ??R?$less@H@std@@QBE_NABH0@Z
_TEXT	SEGMENT
__Left$ = 8						; size = 4
__Right$ = 12						; size = 4
??R?$less@H@std@@QBE_NABH0@Z PROC NEAR			; std::less<int>::operator(), COMDAT
; _this$ = ecx

; 139  : 		return (_Left < _Right);

  00000	8b 44 24 04	 mov	 eax, DWORD PTR __Left$[esp-4]
  00004	8b 08		 mov	 ecx, DWORD PTR [eax]
  00006	8b 54 24 08	 mov	 edx, DWORD PTR __Right$[esp-4]
  0000a	56		 push	 esi
  0000b	8b 32		 mov	 esi, DWORD PTR [edx]
  0000d	33 c0		 xor	 eax, eax
  0000f	3b ce		 cmp	 ecx, esi
  00011	0f 9c c0	 setl	 al
  00014	5e		 pop	 esi

; 140  : 		}

  00015	c2 08 00	 ret	 8
??R?$less@H@std@@QBE_NABH0@Z ENDP			; std::less<int>::operator()
_TEXT	ENDS
PUBLIC	??8const_iterator@?$_Tree@V?$_Tmap_traits@HU_CHAO_PROPENSITY@@U?$less@H@std@@V?$allocator@U?$pair@$$CBHU_CHAO_PROPENSITY@@@std@@@3@$0A@@std@@@std@@QBE_NABV012@@Z ; std::_Tree<std::_Tmap_traits<int,_CHAO_PROPENSITY,std::less<int>,std::allocator<std::pair<int const ,_CHAO_PROPENSITY> >,0> >::const_iterator::operator==
; Function compile flags: /Ogty
; File c:\program files\microsoft visual studio .net 2003\vc7\include\xtree
;	COMDAT ??8const_iterator@?$_Tree@V?$_Tmap_traits@HU_CHAO_PROPENSITY@@U?$less@H@std@@V?$allocator@U?$pair@$$CBHU_CHAO_PROPENSITY@@@std@@@3@$0A@@std@@@std@@QBE_NABV012@@Z
_TEXT	SEGMENT
__Right$ = 8						; size = 4
??8const_iterator@?$_Tree@V?$_Tmap_traits@HU_CHAO_PROPENSITY@@U?$less@H@std@@V?$allocator@U?$pair@$$CBHU_CHAO_PROPENSITY@@@std@@@3@$0A@@std@@@std@@QBE_NABV012@@Z PROC NEAR ; std::_Tree<std::_Tmap_traits<int,_CHAO_PROPENSITY,std::less<int>,std::allocator<std::pair<int const ,_CHAO_PROPENSITY> >,0> >::const_iterator::operator==, COMDAT
; _this$ = ecx

; 241  : 			return (_Ptr == _Right._Ptr);

  00000	8b 01		 mov	 eax, DWORD PTR [ecx]
  00002	8b 4c 24 04	 mov	 ecx, DWORD PTR __Right$[esp-4]
  00006	2b 01		 sub	 eax, DWORD PTR [ecx]
  00008	f7 d8		 neg	 eax
  0000a	1b c0		 sbb	 eax, eax
  0000c	40		 inc	 eax

; 242  : 			}

  0000d	c2 04 00	 ret	 4
??8const_iterator@?$_Tree@V?$_Tmap_traits@HU_CHAO_PROPENSITY@@U?$less@H@std@@V?$allocator@U?$pair@$$CBHU_CHAO_PROPENSITY@@@std@@@3@$0A@@std@@@std@@QBE_NABV012@@Z ENDP ; std::_Tree<std::_Tmap_traits<int,_CHAO_PROPENSITY,std::less<int>,std::allocator<std::pair<int const ,_CHAO_PROPENSITY> >,0> >::const_iterator::operator==
_TEXT	ENDS
PUBLIC	?_Mynode@const_iterator@?$_Tree@V?$_Tmap_traits@HU_CHAO_PROPENSITY@@U?$less@H@std@@V?$allocator@U?$pair@$$CBHU_CHAO_PROPENSITY@@@std@@@3@$0A@@std@@@std@@QBEPAU_Node@?$_Tree_nod@V?$_Tmap_traits@HU_CHAO_PROPENSITY@@U?$less@H@std@@V?$allocator@U?$pair@$$CBHU_CHAO_PROPENSITY@@@std@@@3@$0A@@std@@@3@XZ ; std::_Tree<std::_Tmap_traits<int,_CHAO_PROPENSITY,std::less<int>,std::allocator<std::pair<int const ,_CHAO_PROPENSITY> >,0> >::const_iterator::_Mynode
; Function compile flags: /Ogty
;	COMDAT ?_Mynode@const_iterator@?$_Tree@V?$_Tmap_traits@HU_CHAO_PROPENSITY@@U?$less@H@std@@V?$allocator@U?$pair@$$CBHU_CHAO_PROPENSITY@@@std@@@3@$0A@@std@@@std@@QBEPAU_Node@?$_Tree_nod@V?$_Tmap_traits@HU_CHAO_PROPENSITY@@U?$less@H@std@@V?$allocator@U?$pair@$$CBHU_CHAO_PROPENSITY@@@std@@@3@$0A@@std@@@3@XZ
_TEXT	SEGMENT
?_Mynode@const_iterator@?$_Tree@V?$_Tmap_traits@HU_CHAO_PROPENSITY@@U?$less@H@std@@V?$allocator@U?$pair@$$CBHU_CHAO_PROPENSITY@@@std@@@3@$0A@@std@@@std@@QBEPAU_Node@?$_Tree_nod@V?$_Tmap_traits@HU_CHAO_PROPENSITY@@U?$less@H@std@@V?$allocator@U?$pair@$$CBHU_CHAO_PROPENSITY@@@std@@@3@$0A@@std@@@3@XZ PROC NEAR ; std::_Tree<std::_Tmap_traits<int,_CHAO_PROPENSITY,std::less<int>,std::allocator<std::pair<int const ,_CHAO_PROPENSITY> >,0> >::const_iterator::_Mynode, COMDAT
; _this$ = ecx

; 284  : 			return (_Ptr);

  00000	8b 01		 mov	 eax, DWORD PTR [ecx]

; 285  : 			}

  00002	c3		 ret	 0
?_Mynode@const_iterator@?$_Tree@V?$_Tmap_traits@HU_CHAO_PROPENSITY@@U?$less@H@std@@V?$allocator@U?$pair@$$CBHU_CHAO_PROPENSITY@@@std@@@3@$0A@@std@@@std@@QBEPAU_Node@?$_Tree_nod@V?$_Tmap_traits@HU_CHAO_PROPENSITY@@U?$less@H@std@@V?$allocator@U?$pair@$$CBHU_CHAO_PROPENSITY@@@std@@@3@$0A@@std@@@3@XZ ENDP ; std::_Tree<std::_Tmap_traits<int,_CHAO_PROPENSITY,std::less<int>,std::allocator<std::pair<int const ,_CHAO_PROPENSITY> >,0> >::const_iterator::_Mynode
_TEXT	ENDS
PUBLIC	?_Isnil@?$_Tree@V?$_Tmap_traits@HU_CHAO_PROPENSITY@@U?$less@H@std@@V?$allocator@U?$pair@$$CBHU_CHAO_PROPENSITY@@@std@@@3@$0A@@std@@@std@@KAAADPAU_Node@?$_Tree_nod@V?$_Tmap_traits@HU_CHAO_PROPENSITY@@U?$less@H@std@@V?$allocator@U?$pair@$$CBHU_CHAO_PROPENSITY@@@std@@@3@$0A@@std@@@2@@Z ; std::_Tree<std::_Tmap_traits<int,_CHAO_PROPENSITY,std::less<int>,std::allocator<std::pair<int const ,_CHAO_PROPENSITY> >,0> >::_Isnil
; Function compile flags: /Ogty
;	COMDAT ?_Isnil@?$_Tree@V?$_Tmap_traits@HU_CHAO_PROPENSITY@@U?$less@H@std@@V?$allocator@U?$pair@$$CBHU_CHAO_PROPENSITY@@@std@@@3@$0A@@std@@@std@@KAAADPAU_Node@?$_Tree_nod@V?$_Tmap_traits@HU_CHAO_PROPENSITY@@U?$less@H@std@@V?$allocator@U?$pair@$$CBHU_CHAO_PROPENSITY@@@std@@@3@$0A@@std@@@2@@Z
_TEXT	SEGMENT
__Pnode$ = 8						; size = 4
?_Isnil@?$_Tree@V?$_Tmap_traits@HU_CHAO_PROPENSITY@@U?$less@H@std@@V?$allocator@U?$pair@$$CBHU_CHAO_PROPENSITY@@@std@@@3@$0A@@std@@@std@@KAAADPAU_Node@?$_Tree_nod@V?$_Tmap_traits@HU_CHAO_PROPENSITY@@U?$less@H@std@@V?$allocator@U?$pair@$$CBHU_CHAO_PROPENSITY@@@std@@@3@$0A@@std@@@2@@Z PROC NEAR ; std::_Tree<std::_Tmap_traits<int,_CHAO_PROPENSITY,std::less<int>,std::allocator<std::pair<int const ,_CHAO_PROPENSITY> >,0> >::_Isnil, COMDAT

; 137  : 		return ((_Charref)(*_Pnode)._Isnil);

  00000	8b 44 24 04	 mov	 eax, DWORD PTR __Pnode$[esp-4]
  00004	83 c0 3d	 add	 eax, 61			; 0000003dH

; 138  : 		}

  00007	c3		 ret	 0
?_Isnil@?$_Tree@V?$_Tmap_traits@HU_CHAO_PROPENSITY@@U?$less@H@std@@V?$allocator@U?$pair@$$CBHU_CHAO_PROPENSITY@@@std@@@3@$0A@@std@@@std@@KAAADPAU_Node@?$_Tree_nod@V?$_Tmap_traits@HU_CHAO_PROPENSITY@@U?$less@H@std@@V?$allocator@U?$pair@$$CBHU_CHAO_PROPENSITY@@@std@@@3@$0A@@std@@@2@@Z ENDP ; std::_Tree<std::_Tmap_traits<int,_CHAO_PROPENSITY,std::less<int>,std::allocator<std::pair<int const ,_CHAO_PROPENSITY> >,0> >::_Isnil
_TEXT	ENDS
PUBLIC	?_Left@?$_Tree@V?$_Tmap_traits@HU_CHAO_PROPENSITY@@U?$less@H@std@@V?$allocator@U?$pair@$$CBHU_CHAO_PROPENSITY@@@std@@@3@$0A@@std@@@std@@KAAAPAU_Node@?$_Tree_nod@V?$_Tmap_traits@HU_CHAO_PROPENSITY@@U?$less@H@std@@V?$allocator@U?$pair@$$CBHU_CHAO_PROPENSITY@@@std@@@3@$0A@@std@@@2@PAU342@@Z ; std::_Tree<std::_Tmap_traits<int,_CHAO_PROPENSITY,std::less<int>,std::allocator<std::pair<int const ,_CHAO_PROPENSITY> >,0> >::_Left
; Function compile flags: /Ogty
;	COMDAT ?_Left@?$_Tree@V?$_Tmap_traits@HU_CHAO_PROPENSITY@@U?$less@H@std@@V?$allocator@U?$pair@$$CBHU_CHAO_PROPENSITY@@@std@@@3@$0A@@std@@@std@@KAAAPAU_Node@?$_Tree_nod@V?$_Tmap_traits@HU_CHAO_PROPENSITY@@U?$less@H@std@@V?$allocator@U?$pair@$$CBHU_CHAO_PROPENSITY@@@std@@@3@$0A@@std@@@2@PAU342@@Z
_TEXT	SEGMENT
__Pnode$ = 8						; size = 4
?_Left@?$_Tree@V?$_Tmap_traits@HU_CHAO_PROPENSITY@@U?$less@H@std@@V?$allocator@U?$pair@$$CBHU_CHAO_PROPENSITY@@@std@@@3@$0A@@std@@@std@@KAAAPAU_Node@?$_Tree_nod@V?$_Tmap_traits@HU_CHAO_PROPENSITY@@U?$less@H@std@@V?$allocator@U?$pair@$$CBHU_CHAO_PROPENSITY@@@std@@@3@$0A@@std@@@2@PAU342@@Z PROC NEAR ; std::_Tree<std::_Tmap_traits<int,_CHAO_PROPENSITY,std::less<int>,std::allocator<std::pair<int const ,_CHAO_PROPENSITY> >,0> >::_Left, COMDAT

; 147  : 		return ((_Nodepref)(*_Pnode)._Left);

  00000	8b 44 24 04	 mov	 eax, DWORD PTR __Pnode$[esp-4]

; 148  : 		}

  00004	c3		 ret	 0
?_Left@?$_Tree@V?$_Tmap_traits@HU_CHAO_PROPENSITY@@U?$less@H@std@@V?$allocator@U?$pair@$$CBHU_CHAO_PROPENSITY@@@std@@@3@$0A@@std@@@std@@KAAAPAU_Node@?$_Tree_nod@V?$_Tmap_traits@HU_CHAO_PROPENSITY@@U?$less@H@std@@V?$allocator@U?$pair@$$CBHU_CHAO_PROPENSITY@@@std@@@3@$0A@@std@@@2@PAU342@@Z ENDP ; std::_Tree<std::_Tmap_traits<int,_CHAO_PROPENSITY,std::less<int>,std::allocator<std::pair<int const ,_CHAO_PROPENSITY> >,0> >::_Left
_TEXT	ENDS
PUBLIC	?_Parent@?$_Tree@V?$_Tmap_traits@HU_CHAO_PROPENSITY@@U?$less@H@std@@V?$allocator@U?$pair@$$CBHU_CHAO_PROPENSITY@@@std@@@3@$0A@@std@@@std@@KAAAPAU_Node@?$_Tree_nod@V?$_Tmap_traits@HU_CHAO_PROPENSITY@@U?$less@H@std@@V?$allocator@U?$pair@$$CBHU_CHAO_PROPENSITY@@@std@@@3@$0A@@std@@@2@PAU342@@Z ; std::_Tree<std::_Tmap_traits<int,_CHAO_PROPENSITY,std::less<int>,std::allocator<std::pair<int const ,_CHAO_PROPENSITY> >,0> >::_Parent
; Function compile flags: /Ogty
;	COMDAT ?_Parent@?$_Tree@V?$_Tmap_traits@HU_CHAO_PROPENSITY@@U?$less@H@std@@V?$allocator@U?$pair@$$CBHU_CHAO_PROPENSITY@@@std@@@3@$0A@@std@@@std@@KAAAPAU_Node@?$_Tree_nod@V?$_Tmap_traits@HU_CHAO_PROPENSITY@@U?$less@H@std@@V?$allocator@U?$pair@$$CBHU_CHAO_PROPENSITY@@@std@@@3@$0A@@std@@@2@PAU342@@Z
_TEXT	SEGMENT
__Pnode$ = 8						; size = 4
?_Parent@?$_Tree@V?$_Tmap_traits@HU_CHAO_PROPENSITY@@U?$less@H@std@@V?$allocator@U?$pair@$$CBHU_CHAO_PROPENSITY@@@std@@@3@$0A@@std@@@std@@KAAAPAU_Node@?$_Tree_nod@V?$_Tmap_traits@HU_CHAO_PROPENSITY@@U?$less@H@std@@V?$allocator@U?$pair@$$CBHU_CHAO_PROPENSITY@@@std@@@3@$0A@@std@@@2@PAU342@@Z PROC NEAR ; std::_Tree<std::_Tmap_traits<int,_CHAO_PROPENSITY,std::less<int>,std::allocator<std::pair<int const ,_CHAO_PROPENSITY> >,0> >::_Parent, COMDAT

; 152  : 		return ((_Nodepref)(*_Pnode)._Parent);

  00000	8b 44 24 04	 mov	 eax, DWORD PTR __Pnode$[esp-4]
  00004	83 c0 04	 add	 eax, 4

; 153  : 		}

  00007	c3		 ret	 0
?_Parent@?$_Tree@V?$_Tmap_traits@HU_CHAO_PROPENSITY@@U?$less@H@std@@V?$allocator@U?$pair@$$CBHU_CHAO_PROPENSITY@@@std@@@3@$0A@@std@@@std@@KAAAPAU_Node@?$_Tree_nod@V?$_Tmap_traits@HU_CHAO_PROPENSITY@@U?$less@H@std@@V?$allocator@U?$pair@$$CBHU_CHAO_PROPENSITY@@@std@@@3@$0A@@std@@@2@PAU342@@Z ENDP ; std::_Tree<std::_Tmap_traits<int,_CHAO_PROPENSITY,std::less<int>,std::allocator<std::pair<int const ,_CHAO_PROPENSITY> >,0> >::_Parent
_TEXT	ENDS
PUBLIC	?_Right@?$_Tree@V?$_Tmap_traits@HU_CHAO_PROPENSITY@@U?$less@H@std@@V?$allocator@U?$pair@$$CBHU_CHAO_PROPENSITY@@@std@@@3@$0A@@std@@@std@@KAAAPAU_Node@?$_Tree_nod@V?$_Tmap_traits@HU_CHAO_PROPENSITY@@U?$less@H@std@@V?$allocator@U?$pair@$$CBHU_CHAO_PROPENSITY@@@std@@@3@$0A@@std@@@2@PAU342@@Z ; std::_Tree<std::_Tmap_traits<int,_CHAO_PROPENSITY,std::less<int>,std::allocator<std::pair<int const ,_CHAO_PROPENSITY> >,0> >::_Right
; Function compile flags: /Ogty
;	COMDAT ?_Right@?$_Tree@V?$_Tmap_traits@HU_CHAO_PROPENSITY@@U?$less@H@std@@V?$allocator@U?$pair@$$CBHU_CHAO_PROPENSITY@@@std@@@3@$0A@@std@@@std@@KAAAPAU_Node@?$_Tree_nod@V?$_Tmap_traits@HU_CHAO_PROPENSITY@@U?$less@H@std@@V?$allocator@U?$pair@$$CBHU_CHAO_PROPENSITY@@@std@@@3@$0A@@std@@@2@PAU342@@Z
_TEXT	SEGMENT
__Pnode$ = 8						; size = 4
?_Right@?$_Tree@V?$_Tmap_traits@HU_CHAO_PROPENSITY@@U?$less@H@std@@V?$allocator@U?$pair@$$CBHU_CHAO_PROPENSITY@@@std@@@3@$0A@@std@@@std@@KAAAPAU_Node@?$_Tree_nod@V?$_Tmap_traits@HU_CHAO_PROPENSITY@@U?$less@H@std@@V?$allocator@U?$pair@$$CBHU_CHAO_PROPENSITY@@@std@@@3@$0A@@std@@@2@PAU342@@Z PROC NEAR ; std::_Tree<std::_Tmap_traits<int,_CHAO_PROPENSITY,std::less<int>,std::allocator<std::pair<int const ,_CHAO_PROPENSITY> >,0> >::_Right, COMDAT

; 157  : 		return ((_Nodepref)(*_Pnode)._Right);

  00000	8b 44 24 04	 mov	 eax, DWORD PTR __Pnode$[esp-4]
  00004	83 c0 08	 add	 eax, 8

; 158  : 		}

  00007	c3		 ret	 0
?_Right@?$_Tree@V?$_Tmap_traits@HU_CHAO_PROPENSITY@@U?$less@H@std@@V?$allocator@U?$pair@$$CBHU_CHAO_PROPENSITY@@@std@@@3@$0A@@std@@@std@@KAAAPAU_Node@?$_Tree_nod@V?$_Tmap_traits@HU_CHAO_PROPENSITY@@U?$less@H@std@@V?$allocator@U?$pair@$$CBHU_CHAO_PROPENSITY@@@std@@@3@$0A@@std@@@2@PAU342@@Z ENDP ; std::_Tree<std::_Tmap_traits<int,_CHAO_PROPENSITY,std::less<int>,std::allocator<std::pair<int const ,_CHAO_PROPENSITY> >,0> >::_Right
_TEXT	ENDS
PUBLIC	?_Myval@?$_Tree@V?$_Tmap_traits@HU_CHAO_PROPENSITY@@U?$less@H@std@@V?$allocator@U?$pair@$$CBHU_CHAO_PROPENSITY@@@std@@@3@$0A@@std@@@std@@KAAAU?$pair@$$CBHU_CHAO_PROPENSITY@@@2@PAU_Node@?$_Tree_nod@V?$_Tmap_traits@HU_CHAO_PROPENSITY@@U?$less@H@std@@V?$allocator@U?$pair@$$CBHU_CHAO_PROPENSITY@@@std@@@3@$0A@@std@@@2@@Z ; std::_Tree<std::_Tmap_traits<int,_CHAO_PROPENSITY,std::less<int>,std::allocator<std::pair<int const ,_CHAO_PROPENSITY> >,0> >::_Myval
; Function compile flags: /Ogty
;	COMDAT ?_Myval@?$_Tree@V?$_Tmap_traits@HU_CHAO_PROPENSITY@@U?$less@H@std@@V?$allocator@U?$pair@$$CBHU_CHAO_PROPENSITY@@@std@@@3@$0A@@std@@@std@@KAAAU?$pair@$$CBHU_CHAO_PROPENSITY@@@2@PAU_Node@?$_Tree_nod@V?$_Tmap_traits@HU_CHAO_PROPENSITY@@U?$less@H@std@@V?$allocator@U?$pair@$$CBHU_CHAO_PROPENSITY@@@std@@@3@$0A@@std@@@2@@Z
_TEXT	SEGMENT
__Pnode$ = 8						; size = 4
?_Myval@?$_Tree@V?$_Tmap_traits@HU_CHAO_PROPENSITY@@U?$less@H@std@@V?$allocator@U?$pair@$$CBHU_CHAO_PROPENSITY@@@std@@@3@$0A@@std@@@std@@KAAAU?$pair@$$CBHU_CHAO_PROPENSITY@@@2@PAU_Node@?$_Tree_nod@V?$_Tmap_traits@HU_CHAO_PROPENSITY@@U?$less@H@std@@V?$allocator@U?$pair@$$CBHU_CHAO_PROPENSITY@@@std@@@3@$0A@@std@@@2@@Z PROC NEAR ; std::_Tree<std::_Tmap_traits<int,_CHAO_PROPENSITY,std::less<int>,std::allocator<std::pair<int const ,_CHAO_PROPENSITY> >,0> >::_Myval, COMDAT

; 162  : 		return ((_Vref)(*_Pnode)._Myval);

  00000	8b 44 24 04	 mov	 eax, DWORD PTR __Pnode$[esp-4]
  00004	83 c0 0c	 add	 eax, 12			; 0000000cH

; 163  : 		}

  00007	c3		 ret	 0
?_Myval@?$_Tree@V?$_Tmap_traits@HU_CHAO_PROPENSITY@@U?$less@H@std@@V?$allocator@U?$pair@$$CBHU_CHAO_PROPENSITY@@@std@@@3@$0A@@std@@@std@@KAAAU?$pair@$$CBHU_CHAO_PROPENSITY@@@2@PAU_Node@?$_Tree_nod@V?$_Tmap_traits@HU_CHAO_PROPENSITY@@U?$less@H@std@@V?$allocator@U?$pair@$$CBHU_CHAO_PROPENSITY@@@std@@@3@$0A@@std@@@2@@Z ENDP ; std::_Tree<std::_Tmap_traits<int,_CHAO_PROPENSITY,std::less<int>,std::allocator<std::pair<int const ,_CHAO_PROPENSITY> >,0> >::_Myval
_TEXT	ENDS
PUBLIC	?_Kfn@?$_Tmap_traits@HU_CHAO_PROPENSITY@@U?$less@H@std@@V?$allocator@U?$pair@$$CBHU_CHAO_PROPENSITY@@@std@@@3@$0A@@std@@SAABHABU?$pair@$$CBHU_CHAO_PROPENSITY@@@2@@Z ; std::_Tmap_traits<int,_CHAO_PROPENSITY,std::less<int>,std::allocator<std::pair<int const ,_CHAO_PROPENSITY> >,0>::_Kfn
; Function compile flags: /Ogty
; File c:\program files\microsoft visual studio .net 2003\vc7\include\map
;	COMDAT ?_Kfn@?$_Tmap_traits@HU_CHAO_PROPENSITY@@U?$less@H@std@@V?$allocator@U?$pair@$$CBHU_CHAO_PROPENSITY@@@std@@@3@$0A@@std@@SAABHABU?$pair@$$CBHU_CHAO_PROPENSITY@@@2@@Z
_TEXT	SEGMENT
__Val$ = 8						; size = 4
?_Kfn@?$_Tmap_traits@HU_CHAO_PROPENSITY@@U?$less@H@std@@V?$allocator@U?$pair@$$CBHU_CHAO_PROPENSITY@@@std@@@3@$0A@@std@@SAABHABU?$pair@$$CBHU_CHAO_PROPENSITY@@@2@@Z PROC NEAR ; std::_Tmap_traits<int,_CHAO_PROPENSITY,std::less<int>,std::allocator<std::pair<int const ,_CHAO_PROPENSITY> >,0>::_Kfn, COMDAT

; 64   : 		return (_Val.first);

  00000	8b 44 24 04	 mov	 eax, DWORD PTR __Val$[esp-4]

; 65   : 		}

  00004	c3		 ret	 0
?_Kfn@?$_Tmap_traits@HU_CHAO_PROPENSITY@@U?$less@H@std@@V?$allocator@U?$pair@$$CBHU_CHAO_PROPENSITY@@@std@@@3@$0A@@std@@SAABHABU?$pair@$$CBHU_CHAO_PROPENSITY@@@2@@Z ENDP ; std::_Tmap_traits<int,_CHAO_PROPENSITY,std::less<int>,std::allocator<std::pair<int const ,_CHAO_PROPENSITY> >,0>::_Kfn
_TEXT	ENDS
PUBLIC	??0const_iterator@?$_Tree@V?$_Tmap_traits@HU_CHAO_PROPENSITY@@U?$less@H@std@@V?$allocator@U?$pair@$$CBHU_CHAO_PROPENSITY@@@std@@@3@$0A@@std@@@std@@QAE@PAU_Node@?$_Tree_nod@V?$_Tmap_traits@HU_CHAO_PROPENSITY@@U?$less@H@std@@V?$allocator@U?$pair@$$CBHU_CHAO_PROPENSITY@@@std@@@3@$0A@@std@@@2@@Z ; std::_Tree<std::_Tmap_traits<int,_CHAO_PROPENSITY,std::less<int>,std::allocator<std::pair<int const ,_CHAO_PROPENSITY> >,0> >::const_iterator::const_iterator
; Function compile flags: /Ogty
; File c:\program files\microsoft visual studio .net 2003\vc7\include\xtree
;	COMDAT ??0const_iterator@?$_Tree@V?$_Tmap_traits@HU_CHAO_PROPENSITY@@U?$less@H@std@@V?$allocator@U?$pair@$$CBHU_CHAO_PROPENSITY@@@std@@@3@$0A@@std@@@std@@QAE@PAU_Node@?$_Tree_nod@V?$_Tmap_traits@HU_CHAO_PROPENSITY@@U?$less@H@std@@V?$allocator@U?$pair@$$CBHU_CHAO_PROPENSITY@@@std@@@3@$0A@@std@@@2@@Z
_TEXT	SEGMENT
__Pnode$ = 8						; size = 4
??0const_iterator@?$_Tree@V?$_Tmap_traits@HU_CHAO_PROPENSITY@@U?$less@H@std@@V?$allocator@U?$pair@$$CBHU_CHAO_PROPENSITY@@@std@@@3@$0A@@std@@@std@@QAE@PAU_Node@?$_Tree_nod@V?$_Tmap_traits@HU_CHAO_PROPENSITY@@U?$less@H@std@@V?$allocator@U?$pair@$$CBHU_CHAO_PROPENSITY@@@std@@@3@$0A@@std@@@2@@Z PROC NEAR ; std::_Tree<std::_Tmap_traits<int,_CHAO_PROPENSITY,std::less<int>,std::allocator<std::pair<int const ,_CHAO_PROPENSITY> >,0> >::const_iterator::const_iterator, COMDAT
; _this$ = ecx

; 200  : 			{	// construct with node pointer _Pnode

  00000	8b c1		 mov	 eax, ecx
  00002	8b 4c 24 04	 mov	 ecx, DWORD PTR __Pnode$[esp-4]
  00006	89 08		 mov	 DWORD PTR [eax], ecx

; 201  : 			}

  00008	c2 04 00	 ret	 4
??0const_iterator@?$_Tree@V?$_Tmap_traits@HU_CHAO_PROPENSITY@@U?$less@H@std@@V?$allocator@U?$pair@$$CBHU_CHAO_PROPENSITY@@@std@@@3@$0A@@std@@@std@@QAE@PAU_Node@?$_Tree_nod@V?$_Tmap_traits@HU_CHAO_PROPENSITY@@U?$less@H@std@@V?$allocator@U?$pair@$$CBHU_CHAO_PROPENSITY@@@std@@@3@$0A@@std@@@2@@Z ENDP ; std::_Tree<std::_Tmap_traits<int,_CHAO_PROPENSITY,std::less<int>,std::allocator<std::pair<int const ,_CHAO_PROPENSITY> >,0> >::const_iterator::const_iterator
_TEXT	ENDS
PUBLIC	??Dconst_iterator@?$_Tree@V?$_Tmap_traits@HU_CHAO_PROPENSITY@@U?$less@H@std@@V?$allocator@U?$pair@$$CBHU_CHAO_PROPENSITY@@@std@@@3@$0A@@std@@@std@@QBEABU?$pair@$$CBHU_CHAO_PROPENSITY@@@2@XZ ; std::_Tree<std::_Tmap_traits<int,_CHAO_PROPENSITY,std::less<int>,std::allocator<std::pair<int const ,_CHAO_PROPENSITY> >,0> >::const_iterator::operator*
; Function compile flags: /Ogty
;	COMDAT ??Dconst_iterator@?$_Tree@V?$_Tmap_traits@HU_CHAO_PROPENSITY@@U?$less@H@std@@V?$allocator@U?$pair@$$CBHU_CHAO_PROPENSITY@@@std@@@3@$0A@@std@@@std@@QBEABU?$pair@$$CBHU_CHAO_PROPENSITY@@@2@XZ
_TEXT	SEGMENT
??Dconst_iterator@?$_Tree@V?$_Tmap_traits@HU_CHAO_PROPENSITY@@U?$less@H@std@@V?$allocator@U?$pair@$$CBHU_CHAO_PROPENSITY@@@std@@@3@$0A@@std@@@std@@QBEABU?$pair@$$CBHU_CHAO_PROPENSITY@@@2@XZ PROC NEAR ; std::_Tree<std::_Tmap_traits<int,_CHAO_PROPENSITY,std::less<int>,std::allocator<std::pair<int const ,_CHAO_PROPENSITY> >,0> >::const_iterator::operator*, COMDAT
; _this$ = ecx

; 205  : 			return (_Myval(_Ptr));

  00000	8b 01		 mov	 eax, DWORD PTR [ecx]
  00002	83 c0 0c	 add	 eax, 12			; 0000000cH

; 206  : 			}

  00005	c3		 ret	 0
??Dconst_iterator@?$_Tree@V?$_Tmap_traits@HU_CHAO_PROPENSITY@@U?$less@H@std@@V?$allocator@U?$pair@$$CBHU_CHAO_PROPENSITY@@@std@@@3@$0A@@std@@@std@@QBEABU?$pair@$$CBHU_CHAO_PROPENSITY@@@2@XZ ENDP ; std::_Tree<std::_Tmap_traits<int,_CHAO_PROPENSITY,std::less<int>,std::allocator<std::pair<int const ,_CHAO_PROPENSITY> >,0> >::const_iterator::operator*
_TEXT	ENDS
PUBLIC	?_Root@?$_Tree@V?$_Tmap_traits@HU_CHAO_PROPENSITY@@U?$less@H@std@@V?$allocator@U?$pair@$$CBHU_CHAO_PROPENSITY@@@std@@@3@$0A@@std@@@std@@IBEAAPAU_Node@?$_Tree_nod@V?$_Tmap_traits@HU_CHAO_PROPENSITY@@U?$less@H@std@@V?$allocator@U?$pair@$$CBHU_CHAO_PROPENSITY@@@std@@@3@$0A@@std@@@2@XZ ; std::_Tree<std::_Tmap_traits<int,_CHAO_PROPENSITY,std::less<int>,std::allocator<std::pair<int const ,_CHAO_PROPENSITY> >,0> >::_Root
; Function compile flags: /Ogty
;	COMDAT ?_Root@?$_Tree@V?$_Tmap_traits@HU_CHAO_PROPENSITY@@U?$less@H@std@@V?$allocator@U?$pair@$$CBHU_CHAO_PROPENSITY@@@std@@@3@$0A@@std@@@std@@IBEAAPAU_Node@?$_Tree_nod@V?$_Tmap_traits@HU_CHAO_PROPENSITY@@U?$less@H@std@@V?$allocator@U?$pair@$$CBHU_CHAO_PROPENSITY@@@std@@@3@$0A@@std@@@2@XZ
_TEXT	SEGMENT
?_Root@?$_Tree@V?$_Tmap_traits@HU_CHAO_PROPENSITY@@U?$less@H@std@@V?$allocator@U?$pair@$$CBHU_CHAO_PROPENSITY@@@std@@@3@$0A@@std@@@std@@IBEAAPAU_Node@?$_Tree_nod@V?$_Tmap_traits@HU_CHAO_PROPENSITY@@U?$less@H@std@@V?$allocator@U?$pair@$$CBHU_CHAO_PROPENSITY@@@std@@@3@$0A@@std@@@2@XZ PROC NEAR ; std::_Tree<std::_Tmap_traits<int,_CHAO_PROPENSITY,std::less<int>,std::allocator<std::pair<int const ,_CHAO_PROPENSITY> >,0> >::_Root, COMDAT
; _this$ = ecx

; 1064 : 		return (_Parent(_Myhead));

  00000	8b 41 04	 mov	 eax, DWORD PTR [ecx+4]
  00003	83 c0 04	 add	 eax, 4

; 1065 : 		}

  00006	c3		 ret	 0
?_Root@?$_Tree@V?$_Tmap_traits@HU_CHAO_PROPENSITY@@U?$less@H@std@@V?$allocator@U?$pair@$$CBHU_CHAO_PROPENSITY@@@std@@@3@$0A@@std@@@std@@IBEAAPAU_Node@?$_Tree_nod@V?$_Tmap_traits@HU_CHAO_PROPENSITY@@U?$less@H@std@@V?$allocator@U?$pair@$$CBHU_CHAO_PROPENSITY@@@std@@@3@$0A@@std@@@2@XZ ENDP ; std::_Tree<std::_Tmap_traits<int,_CHAO_PROPENSITY,std::less<int>,std::allocator<std::pair<int const ,_CHAO_PROPENSITY> >,0> >::_Root
_TEXT	ENDS
PUBLIC	?_Min@?$_Tree@V?$_Tmap_traits@HU_CHAO_PROPENSITY@@U?$less@H@std@@V?$allocator@U?$pair@$$CBHU_CHAO_PROPENSITY@@@std@@@3@$0A@@std@@@std@@KAPAU_Node@?$_Tree_nod@V?$_Tmap_traits@HU_CHAO_PROPENSITY@@U?$less@H@std@@V?$allocator@U?$pair@$$CBHU_CHAO_PROPENSITY@@@std@@@3@$0A@@std@@@2@PAU342@@Z ; std::_Tree<std::_Tmap_traits<int,_CHAO_PROPENSITY,std::less<int>,std::allocator<std::pair<int const ,_CHAO_PROPENSITY> >,0> >::_Min
; Function compile flags: /Ogty
;	COMDAT ?_Min@?$_Tree@V?$_Tmap_traits@HU_CHAO_PROPENSITY@@U?$less@H@std@@V?$allocator@U?$pair@$$CBHU_CHAO_PROPENSITY@@@std@@@3@$0A@@std@@@std@@KAPAU_Node@?$_Tree_nod@V?$_Tmap_traits@HU_CHAO_PROPENSITY@@U?$less@H@std@@V?$allocator@U?$pair@$$CBHU_CHAO_PROPENSITY@@@std@@@3@$0A@@std@@@2@PAU342@@Z
_TEXT	SEGMENT
__Pnode$ = 8						; size = 4
?_Min@?$_Tree@V?$_Tmap_traits@HU_CHAO_PROPENSITY@@U?$less@H@std@@V?$allocator@U?$pair@$$CBHU_CHAO_PROPENSITY@@@std@@@3@$0A@@std@@@std@@KAPAU_Node@?$_Tree_nod@V?$_Tmap_traits@HU_CHAO_PROPENSITY@@U?$less@H@std@@V?$allocator@U?$pair@$$CBHU_CHAO_PROPENSITY@@@std@@@3@$0A@@std@@@2@PAU342@@Z PROC NEAR ; std::_Tree<std::_Tmap_traits<int,_CHAO_PROPENSITY,std::less<int>,std::allocator<std::pair<int const ,_CHAO_PROPENSITY> >,0> >::_Min, COMDAT

; 1042 : 		while (!_Isnil(_Left(_Pnode)))

  00000	8b 44 24 04	 mov	 eax, DWORD PTR __Pnode$[esp-4]
  00004	8b 08		 mov	 ecx, DWORD PTR [eax]
  00006	8a 51 3d	 mov	 dl, BYTE PTR [ecx+61]
  00009	84 d2		 test	 dl, dl
  0000b	75 0e		 jne	 SHORT $L223749
  0000d	8d 49 00	 npad	 3
$L223748:

; 1043 : 			_Pnode = _Left(_Pnode);

  00010	8b c1		 mov	 eax, ecx
  00012	8b 08		 mov	 ecx, DWORD PTR [eax]
  00014	8a 51 3d	 mov	 dl, BYTE PTR [ecx+61]
  00017	84 d2		 test	 dl, dl
  00019	74 f5		 je	 SHORT $L223748
$L223749:

; 1044 : 		return (_Pnode);
; 1045 : 		}

  0001b	c3		 ret	 0
?_Min@?$_Tree@V?$_Tmap_traits@HU_CHAO_PROPENSITY@@U?$less@H@std@@V?$allocator@U?$pair@$$CBHU_CHAO_PROPENSITY@@@std@@@3@$0A@@std@@@std@@KAPAU_Node@?$_Tree_nod@V?$_Tmap_traits@HU_CHAO_PROPENSITY@@U?$less@H@std@@V?$allocator@U?$pair@$$CBHU_CHAO_PROPENSITY@@@std@@@3@$0A@@std@@@2@PAU342@@Z ENDP ; std::_Tree<std::_Tmap_traits<int,_CHAO_PROPENSITY,std::less<int>,std::allocator<std::pair<int const ,_CHAO_PROPENSITY> >,0> >::_Min
_TEXT	ENDS
PUBLIC	?GetAt@?$CFixedArray@UItemProp@@@@QAEPAUItemProp@@K@Z ; CFixedArray<ItemProp>::GetAt
; Function compile flags: /Ogty
; File c:\documents and settings\test\mes documents\source\virtuos_v17\build\program\_common\data.h
;	COMDAT ?GetAt@?$CFixedArray@UItemProp@@@@QAEPAUItemProp@@K@Z
_TEXT	SEGMENT
_dwIndex$ = 8						; size = 4
?GetAt@?$CFixedArray@UItemProp@@@@QAEPAUItemProp@@K@Z PROC NEAR ; CFixedArray<ItemProp>::GetAt, COMDAT
; _this$ = ecx

; 270  : 	if( dwIndex >= (DWORD)m_nMaxIndex )

  00000	8b 44 24 04	 mov	 eax, DWORD PTR _dwIndex$[esp-4]
  00004	3b 41 18	 cmp	 eax, DWORD PTR [ecx+24]
  00007	72 05		 jb	 SHORT $L224299

; 271  : 		return NULL;

  00009	33 c0		 xor	 eax, eax

; 273  : }

  0000b	c2 04 00	 ret	 4
$L224299:

; 272  : 	return (T*) m_apOffset[ dwIndex ];

  0000e	8b 49 08	 mov	 ecx, DWORD PTR [ecx+8]
  00011	8b 04 81	 mov	 eax, DWORD PTR [ecx+eax*4]

; 273  : }

  00014	c2 04 00	 ret	 4
?GetAt@?$CFixedArray@UItemProp@@@@QAEPAUItemProp@@K@Z ENDP ; CFixedArray<ItemProp>::GetAt
_TEXT	ENDS
PUBLIC	?GetAtId@?$CItemContainer@VCItemElem@@@@QAEPAVCItemElem@@K@Z ; CItemContainer<CItemElem>::GetAtId
; Function compile flags: /Ogty
; File c:\documents and settings\test\mes documents\source\virtuos_v17\build\program\_common\item.h
;	COMDAT ?GetAtId@?$CItemContainer@VCItemElem@@@@QAEPAVCItemElem@@K@Z
_TEXT	SEGMENT
_dwId$ = 8						; size = 4
?GetAtId@?$CItemContainer@VCItemElem@@@@QAEPAVCItemElem@@K@Z PROC NEAR ; CItemContainer<CItemElem>::GetAtId, COMDAT
; _this$ = ecx

; 518  : 	if( dwId >= (DWORD)( GetMax() ) ) return NULL;

  00000	8b 44 24 04	 mov	 eax, DWORD PTR _dwId$[esp-4]
  00004	3b 41 0c	 cmp	 eax, DWORD PTR [ecx+12]
  00007	72 05		 jb	 SHORT $L224421
  00009	33 c0		 xor	 eax, eax

; 521  : 		return NULL;
; 522  : 	return pItemElem;
; 523  : }

  0000b	c2 04 00	 ret	 4
$L224421:

; 519  : 	T* pItemElem = &m_apItem[ dwId ];

  0000e	8b 51 10	 mov	 edx, DWORD PTR [ecx+16]
  00011	69 c0 b8 00 00
	00		 imul	 eax, 184		; 000000b8H
  00017	03 c2		 add	 eax, edx
  00019	8b c8		 mov	 ecx, eax

; 520  : 	if( pItemElem->IsEmpty() ) 

  0001b	8b 41 0c	 mov	 eax, DWORD PTR [ecx+12]
  0001e	f7 d8		 neg	 eax
  00020	1b c0		 sbb	 eax, eax
  00022	23 c1		 and	 eax, ecx

; 521  : 		return NULL;
; 522  : 	return pItemElem;
; 523  : }

  00024	c2 04 00	 ret	 4
?GetAtId@?$CItemContainer@VCItemElem@@@@QAEPAVCItemElem@@K@Z ENDP ; CItemContainer<CItemElem>::GetAtId
_TEXT	ENDS
PUBLIC	?SetHair@CMover@@QAEXH@Z			; CMover::SetHair
PUBLIC	??_C@_0BG@JBMGFBFC@Part_maleHair?$CF02d?4o3d?$AA@ ; `string'
PUBLIC	??_C@_0BI@JFPGNEBG@Part_femaleHair?$CF02d?4o3d?$AA@ ; `string'
PUBLIC	??_C@_0BG@CKLHGKPA@Part_maleHair?$CF02d?4dds?$AA@ ; `string'
PUBLIC	??_C@_0BI@COIHOPLE@Part_femaleHair?$CF02d?4dds?$AA@ ; `string'
PUBLIC	??_C@_0BE@CFLEBCFF@Part_maleHair01?4dds?$AA@	; `string'
PUBLIC	??_C@_0BG@IINDKLJA@Part_femaleHair01?4dds?$AA@	; `string'
EXTRN	___security_cookie:DWORD
EXTRN	@__security_check_cookie@4:NEAR
EXTRN	_sprintf:NEAR
EXTRN	?LoadElement@CModelObject@@QAEHPBDH@Z:NEAR	; CModelObject::LoadElement
EXTRN	?ChangeTexture@CModelObject@@QAEXHPBD0@Z:NEAR	; CModelObject::ChangeTexture
;	COMDAT ??_C@_0BG@JBMGFBFC@Part_maleHair?$CF02d?4o3d?$AA@
; File c:\documents and settings\test\mes documents\source\virtuos_v17\build\program\_common\mover.h
CONST	SEGMENT
??_C@_0BG@JBMGFBFC@Part_maleHair?$CF02d?4o3d?$AA@ DB 'Part_maleHair%02d.o'
	DB	'3d', 00H					; `string'
CONST	ENDS
;	COMDAT ??_C@_0BI@JFPGNEBG@Part_femaleHair?$CF02d?4o3d?$AA@
CONST	SEGMENT
??_C@_0BI@JFPGNEBG@Part_femaleHair?$CF02d?4o3d?$AA@ DB 'Part_femaleHair%0'
	DB	'2d.o3d', 00H				; `string'
CONST	ENDS
;	COMDAT ??_C@_0BG@CKLHGKPA@Part_maleHair?$CF02d?4dds?$AA@
CONST	SEGMENT
??_C@_0BG@CKLHGKPA@Part_maleHair?$CF02d?4dds?$AA@ DB 'Part_maleHair%02d.d'
	DB	'ds', 00H					; `string'
CONST	ENDS
;	COMDAT ??_C@_0BI@COIHOPLE@Part_femaleHair?$CF02d?4dds?$AA@
CONST	SEGMENT
??_C@_0BI@COIHOPLE@Part_femaleHair?$CF02d?4dds?$AA@ DB 'Part_femaleHair%0'
	DB	'2d.dds', 00H				; `string'
CONST	ENDS
;	COMDAT ??_C@_0BE@CFLEBCFF@Part_maleHair01?4dds?$AA@
CONST	SEGMENT
??_C@_0BE@CFLEBCFF@Part_maleHair01?4dds?$AA@ DB 'Part_maleHair01.dds', 00H ; `string'
CONST	ENDS
;	COMDAT ??_C@_0BG@IINDKLJA@Part_femaleHair01?4dds?$AA@
CONST	SEGMENT
??_C@_0BG@IINDKLJA@Part_femaleHair01?4dds?$AA@ DB 'Part_femaleHair01.dds', 00H ; `string'
; Function compile flags: /Ogty
; File c:\documents and settings\test\mes documents\source\virtuos_v17\build\program\_common\moverequip.cpp
CONST	ENDS
;	COMDAT ?SetHair@CMover@@QAEXH@Z
_TEXT	SEGMENT
_lpszTemp$268637 = -68					; size = 64
__$ArrayPad$ = -4					; size = 4
__$ReturnAddr$ = 4					; size = 4
_nHair$ = 8						; size = 4
?SetHair@CMover@@QAEXH@Z PROC NEAR			; CMover::SetHair, COMDAT
; _this$ = ecx

; 150  : {

  00000	83 ec 44	 sub	 esp, 68			; 00000044H
  00003	a1 00 00 00 00	 mov	 eax, DWORD PTR ___security_cookie
  00008	33 c4		 xor	 eax, esp
  0000a	89 44 24 40	 mov	 DWORD PTR __$ArrayPad$[esp+68], eax

; 151  : 	if( nHair >= 0 && nHair < MAX_HAIR )

  0000e	8b 44 24 48	 mov	 eax, DWORD PTR _nHair$[esp+64]
  00012	85 c0		 test	 eax, eax
  00014	56		 push	 esi
  00015	8b f1		 mov	 esi, ecx
  00017	0f 8c 90 00 00
	00		 jl	 $L268634
  0001d	83 f8 0a	 cmp	 eax, 10			; 0000000aH
  00020	0f 8d 87 00 00
	00		 jge	 $L268634

; 152  : 	{
; 153  : 		m_dwHairMesh = nHair;
; 154  : 		CModelObject* pModel = (CModelObject*)m_pModel;
; 155  : 		TCHAR lpszTemp[ 64 ];
; 156  : 		// Hair
; 157  : 		_stprintf( lpszTemp, PARTSMESH_HAIR( GetSex() ), m_dwHairMesh + 1 );

  00026	8a 8e 20 06 00
	00		 mov	 cl, BYTE PTR [esi+1568]
  0002c	57		 push	 edi
  0002d	8b be 78 01 00
	00		 mov	 edi, DWORD PTR [esi+376]
  00033	84 c9		 test	 cl, cl
  00035	89 86 2c 06 00
	00		 mov	 DWORD PTR [esi+1580], eax
  0003b	b9 00 00 00 00	 mov	 ecx, OFFSET FLAT:??_C@_0BG@JBMGFBFC@Part_maleHair?$CF02d?4o3d?$AA@
  00040	74 05		 je	 SHORT $L275549
  00042	b9 00 00 00 00	 mov	 ecx, OFFSET FLAT:??_C@_0BI@JFPGNEBG@Part_femaleHair?$CF02d?4o3d?$AA@
$L275549:
  00047	40		 inc	 eax
  00048	50		 push	 eax
  00049	51		 push	 ecx
  0004a	8d 44 24 10	 lea	 eax, DWORD PTR _lpszTemp$268637[esp+84]
  0004e	50		 push	 eax
  0004f	e8 00 00 00 00	 call	 _sprintf
  00054	83 c4 0c	 add	 esp, 12			; 0000000cH

; 158  : 		pModel->LoadElement( lpszTemp, PARTS_HAIR );

  00057	6a 01		 push	 1
  00059	8d 4c 24 0c	 lea	 ecx, DWORD PTR _lpszTemp$268637[esp+80]
  0005d	51		 push	 ecx
  0005e	8b cf		 mov	 ecx, edi
  00060	e8 00 00 00 00	 call	 ?LoadElement@CModelObject@@QAEHPBDH@Z ; CModelObject::LoadElement

; 159  : 		_stprintf( lpszTemp, PARTSTEX_HAIR( GetSex() ), 0 /*nHairColor*/ + 1 );

  00065	8a 86 20 06 00
	00		 mov	 al, BYTE PTR [esi+1568]
  0006b	84 c0		 test	 al, al
  0006d	b8 00 00 00 00	 mov	 eax, OFFSET FLAT:??_C@_0BG@CKLHGKPA@Part_maleHair?$CF02d?4dds?$AA@
  00072	74 05		 je	 SHORT $L275551
  00074	b8 00 00 00 00	 mov	 eax, OFFSET FLAT:??_C@_0BI@COIHOPLE@Part_femaleHair?$CF02d?4dds?$AA@
$L275551:
  00079	6a 01		 push	 1
  0007b	50		 push	 eax
  0007c	8d 54 24 10	 lea	 edx, DWORD PTR _lpszTemp$268637[esp+84]
  00080	52		 push	 edx
  00081	e8 00 00 00 00	 call	 _sprintf

; 160  : 		pModel->ChangeTexture( PARTS_HAIR, TEX_PART_HAIR( GetSex() ), lpszTemp );

  00086	8a 86 20 06 00
	00		 mov	 al, BYTE PTR [esi+1568]
  0008c	83 c4 0c	 add	 esp, 12			; 0000000cH
  0008f	84 c0		 test	 al, al
  00091	b8 00 00 00 00	 mov	 eax, OFFSET FLAT:??_C@_0BE@CFLEBCFF@Part_maleHair01?4dds?$AA@
  00096	74 05		 je	 SHORT $L275553
  00098	b8 00 00 00 00	 mov	 eax, OFFSET FLAT:??_C@_0BG@IINDKLJA@Part_femaleHair01?4dds?$AA@
$L275553:
  0009d	8d 4c 24 08	 lea	 ecx, DWORD PTR _lpszTemp$268637[esp+76]
  000a1	51		 push	 ecx
  000a2	50		 push	 eax
  000a3	6a 01		 push	 1
  000a5	8b cf		 mov	 ecx, edi
  000a7	e8 00 00 00 00	 call	 ?ChangeTexture@CModelObject@@QAEXHPBD0@Z ; CModelObject::ChangeTexture
  000ac	5f		 pop	 edi
$L268634:

; 161  : 	}
; 162  : }

  000ad	8b 4c 24 44	 mov	 ecx, DWORD PTR __$ArrayPad$[esp+72]
  000b1	5e		 pop	 esi
  000b2	33 cc		 xor	 ecx, esp
  000b4	e8 00 00 00 00	 call	 @__security_check_cookie@4
  000b9	83 c4 44	 add	 esp, 68			; 00000044H
  000bc	c2 04 00	 ret	 4
?SetHair@CMover@@QAEXH@Z ENDP				; CMover::SetHair
_TEXT	ENDS
PUBLIC	__real@3f800000
PUBLIC	__real@3a83126f
PUBLIC	__real@3b808081
PUBLIC	__real@3e99999a
PUBLIC	__real@437f0000
PUBLIC	?SetHairColor@CMover@@QAEXMMM@Z			; CMover::SetHairColor
EXTRN	__ftol2:NEAR
;	COMDAT __real@3f800000
; File c:\documents and settings\test\mes documents\source\virtuos_v17\build\program\_common\mover.h
CONST	SEGMENT
__real@3f800000 DD 03f800000r			; 1
CONST	ENDS
;	COMDAT __real@3a83126f
CONST	SEGMENT
__real@3a83126f DD 03a83126fr			; 0.001
CONST	ENDS
;	COMDAT __real@3b808081
CONST	SEGMENT
__real@3b808081 DD 03b808081r			; 0.00392157
CONST	ENDS
;	COMDAT __real@3e99999a
CONST	SEGMENT
__real@3e99999a DD 03e99999ar			; 0.3
CONST	ENDS
;	COMDAT __real@437f0000
CONST	SEGMENT
__real@437f0000 DD 0437f0000r			; 255
; Function compile flags: /Ogty
; File c:\documents and settings\test\mes documents\source\virtuos_v17\build\program\_common\moverequip.cpp
CONST	ENDS
;	COMDAT ?SetHairColor@CMover@@QAEXMMM@Z
_TEXT	SEGMENT
tv314 = 8						; size = 4
tv313 = 8						; size = 4
tv312 = 8						; size = 4
tv311 = 8						; size = 4
tv309 = 8						; size = 4
tv308 = 8						; size = 4
_r$ = 8							; size = 4
_g$ = 12						; size = 4
_b$ = 16						; size = 4
?SetHairColor@CMover@@QAEXMMM@Z PROC NEAR		; CMover::SetHairColor, COMDAT
; _this$ = ecx

; 166  : #ifndef __Y_HAIR_BUG_FIX	
; 167  : 	if( ( r == 1.0f && g == 1.0f && b == 1.0f ) || 
; 168  : 		( fabs( r - 1.0f ) < 0.001f && fabs( g - 1.0f ) < 0.001f && fabs( b - 1.0f ) < 0.001f ) )

  00000	d9 05 00 00 00
	00		 fld	 DWORD PTR __real@3f800000
  00006	56		 push	 esi
  00007	d9 44 24 08	 fld	 DWORD PTR _r$[esp]
  0000b	57		 push	 edi
  0000c	da e9		 fucompp
  0000e	8b f1		 mov	 esi, ecx
  00010	df e0		 fnstsw	 ax
  00012	f6 c4 44	 test	 ah, 68			; 00000044H
  00015	7a 26		 jp	 SHORT $L268652
  00017	d9 05 00 00 00
	00		 fld	 DWORD PTR __real@3f800000
  0001d	d9 44 24 10	 fld	 DWORD PTR _g$[esp+4]
  00021	da e9		 fucompp
  00023	df e0		 fnstsw	 ax
  00025	f6 c4 44	 test	 ah, 68			; 00000044H
  00028	7a 13		 jp	 SHORT $L268652
  0002a	d9 05 00 00 00
	00		 fld	 DWORD PTR __real@3f800000
  00030	d9 44 24 14	 fld	 DWORD PTR _b$[esp+4]
  00034	da e9		 fucompp
  00036	df e0		 fnstsw	 ax
  00038	f6 c4 44	 test	 ah, 68			; 00000044H
  0003b	7b 57		 jnp	 SHORT $L268651
$L268652:
  0003d	d9 44 24 0c	 fld	 DWORD PTR _r$[esp+4]
  00041	d8 25 00 00 00
	00		 fsub	 DWORD PTR __real@3f800000
  00047	d9 e1		 fabs
  00049	d8 1d 00 00 00
	00		 fcomp	 DWORD PTR __real@3a83126f
  0004f	df e0		 fnstsw	 ax
  00051	f6 c4 05	 test	 ah, 5
  00054	0f 8a ed 00 00
	00		 jp	 $L268650
  0005a	d9 44 24 10	 fld	 DWORD PTR _g$[esp+4]
  0005e	d8 25 00 00 00
	00		 fsub	 DWORD PTR __real@3f800000
  00064	d9 e1		 fabs
  00066	d8 1d 00 00 00
	00		 fcomp	 DWORD PTR __real@3a83126f
  0006c	df e0		 fnstsw	 ax
  0006e	f6 c4 05	 test	 ah, 5
  00071	0f 8a d0 00 00
	00		 jp	 $L268650
  00077	d9 44 24 14	 fld	 DWORD PTR _b$[esp+4]
  0007b	d8 25 00 00 00
	00		 fsub	 DWORD PTR __real@3f800000
  00081	d9 e1		 fabs
  00083	d8 1d 00 00 00
	00		 fcomp	 DWORD PTR __real@3a83126f
  00089	df e0		 fnstsw	 ax
  0008b	f6 c4 05	 test	 ah, 5
  0008e	0f 8a b3 00 00
	00		 jp	 $L268650
$L268651:

; 169  : 	{
; 170  : 		if( GetSex() == SEX_MALE )

  00094	8a 86 20 06 00
	00		 mov	 al, BYTE PTR [esi+1568]
  0009a	84 c0		 test	 al, al

; 171  : 		{
; 172  : 			m_fHairColorR = (nMaleHairColor[m_dwHairMesh][0])/255.f;

  0009c	8b 86 2c 06 00
	00		 mov	 eax, DWORD PTR [esi+1580]
  000a2	75 53		 jne	 SHORT $L268653
  000a4	0f b6 8c 40 00
	00 00 00	 movzx	 ecx, BYTE PTR ?nMaleHairColor@@3PAY02EA[eax+eax*2]
  000ac	89 4c 24 0c	 mov	 DWORD PTR tv314[esp+4], ecx
  000b0	db 44 24 0c	 fild	 DWORD PTR tv314[esp+4]
  000b4	d8 0d 00 00 00
	00		 fmul	 DWORD PTR __real@3b808081
  000ba	d9 9e 38 06 00
	00		 fstp	 DWORD PTR [esi+1592]

; 173  : 			m_fHairColorG = (nMaleHairColor[m_dwHairMesh][1])/255.f;

  000c0	0f b6 94 40 01
	00 00 00	 movzx	 edx, BYTE PTR ?nMaleHairColor@@3PAY02EA[eax+eax*2+1]
  000c8	89 54 24 0c	 mov	 DWORD PTR tv313[esp+4], edx
  000cc	db 44 24 0c	 fild	 DWORD PTR tv313[esp+4]
  000d0	d8 0d 00 00 00
	00		 fmul	 DWORD PTR __real@3b808081
  000d6	d9 9e 3c 06 00
	00		 fstp	 DWORD PTR [esi+1596]

; 174  : 			m_fHairColorB = (nMaleHairColor[m_dwHairMesh][2])/255.f;

  000dc	0f b6 84 40 02
	00 00 00	 movzx	 eax, BYTE PTR ?nMaleHairColor@@3PAY02EA[eax+eax*2+2]
  000e4	89 44 24 0c	 mov	 DWORD PTR tv312[esp+4], eax
  000e8	db 44 24 0c	 fild	 DWORD PTR tv312[esp+4]
  000ec	d8 0d 00 00 00
	00		 fmul	 DWORD PTR __real@3b808081

; 175  : 		}
; 176  : 		else

  000f2	e9 b3 00 00 00	 jmp	 $L275578
$L268653:

; 177  : 		{
; 178  : 			m_fHairColorR = (nFeMaleHairColor[m_dwHairMesh][0])/255.f;

  000f7	0f b6 8c 40 00
	00 00 00	 movzx	 ecx, BYTE PTR ?nFeMaleHairColor@@3PAY02EA[eax+eax*2]
  000ff	89 4c 24 0c	 mov	 DWORD PTR tv311[esp+4], ecx
  00103	db 44 24 0c	 fild	 DWORD PTR tv311[esp+4]
  00107	d8 0d 00 00 00
	00		 fmul	 DWORD PTR __real@3b808081
  0010d	d9 9e 38 06 00
	00		 fstp	 DWORD PTR [esi+1592]

; 179  : 			m_fHairColorG = (nFeMaleHairColor[m_dwHairMesh][1])/255.f;

  00113	0f b6 94 40 01
	00 00 00	 movzx	 edx, BYTE PTR ?nFeMaleHairColor@@3PAY02EA[eax+eax*2+1]
  0011b	89 54 24 0c	 mov	 DWORD PTR tv309[esp+4], edx
  0011f	db 44 24 0c	 fild	 DWORD PTR tv309[esp+4]
  00123	d8 0d 00 00 00
	00		 fmul	 DWORD PTR __real@3b808081
  00129	d9 9e 3c 06 00
	00		 fstp	 DWORD PTR [esi+1596]

; 180  : 			m_fHairColorB = (nFeMaleHairColor[m_dwHairMesh][2])/255.f;

  0012f	0f b6 84 40 02
	00 00 00	 movzx	 eax, BYTE PTR ?nFeMaleHairColor@@3PAY02EA[eax+eax*2+2]
  00137	89 44 24 0c	 mov	 DWORD PTR tv308[esp+4], eax
  0013b	db 44 24 0c	 fild	 DWORD PTR tv308[esp+4]
  0013f	d8 0d 00 00 00
	00		 fmul	 DWORD PTR __real@3b808081

; 181  : 		}
; 182  : 	}
; 183  : 	else

  00145	eb 63		 jmp	 SHORT $L275578
$L268650:

; 184  : #endif //__Y_HAIR_BUG_FIX
; 185  : 	{
; 186  : #ifdef __Y_HAIR_BUG_FIX
; 187  : 		m_fHairColorR = ( r < 0.0f ) ? 0.0f : r;
; 188  : 		m_fHairColorG = ( g < 0.0f ) ? 0.0f : g;
; 189  : 		m_fHairColorB = ( b < 0.0f ) ? 0.0f : b;
; 190  : #else //__Y_HAIR_BUG_FIX
; 191  : 		m_fHairColorR = ( r < 0.3f ) ? 0.3f : r;

  00147	d9 44 24 0c	 fld	 DWORD PTR _r$[esp+4]
  0014b	d8 1d 00 00 00
	00		 fcomp	 DWORD PTR __real@3e99999a
  00151	df e0		 fnstsw	 ax
  00153	f6 c4 05	 test	 ah, 5
  00156	7a 08		 jp	 SHORT $L275573
  00158	d9 05 00 00 00
	00		 fld	 DWORD PTR __real@3e99999a
  0015e	eb 04		 jmp	 SHORT $L275574
$L275573:
  00160	d9 44 24 0c	 fld	 DWORD PTR _r$[esp+4]
$L275574:
  00164	d9 9e 38 06 00
	00		 fstp	 DWORD PTR [esi+1592]

; 192  : 		m_fHairColorG = ( g < 0.3f ) ? 0.3f : g;

  0016a	d9 44 24 10	 fld	 DWORD PTR _g$[esp+4]
  0016e	d8 1d 00 00 00
	00		 fcomp	 DWORD PTR __real@3e99999a
  00174	df e0		 fnstsw	 ax
  00176	f6 c4 05	 test	 ah, 5
  00179	7a 08		 jp	 SHORT $L275575
  0017b	d9 05 00 00 00
	00		 fld	 DWORD PTR __real@3e99999a
  00181	eb 04		 jmp	 SHORT $L275576
$L275575:
  00183	d9 44 24 10	 fld	 DWORD PTR _g$[esp+4]
$L275576:
  00187	d9 9e 3c 06 00
	00		 fstp	 DWORD PTR [esi+1596]

; 193  : 		m_fHairColorB = ( b < 0.3f ) ? 0.3f : b;

  0018d	d9 44 24 14	 fld	 DWORD PTR _b$[esp+4]
  00191	d8 1d 00 00 00
	00		 fcomp	 DWORD PTR __real@3e99999a
  00197	df e0		 fnstsw	 ax
  00199	f6 c4 05	 test	 ah, 5
  0019c	7a 08		 jp	 SHORT $L275577
  0019e	d9 05 00 00 00
	00		 fld	 DWORD PTR __real@3e99999a
  001a4	eb 04		 jmp	 SHORT $L275578
$L275577:
  001a6	d9 44 24 14	 fld	 DWORD PTR _b$[esp+4]
$L275578:
  001aa	d9 9e 40 06 00
	00		 fstp	 DWORD PTR [esi+1600]

; 194  : #endif //__Y_HAIR_BUG_FIX
; 195  : 	}
; 196  : 	
; 197  : 	m_dwHairColor = D3DCOLOR_COLORVALUE( m_fHairColorR, m_fHairColorG, m_fHairColorB, 1.0f );

  001b0	d9 86 38 06 00
	00		 fld	 DWORD PTR [esi+1592]
  001b6	d8 0d 00 00 00
	00		 fmul	 DWORD PTR __real@437f0000
  001bc	e8 00 00 00 00	 call	 __ftol2
  001c1	d9 86 3c 06 00
	00		 fld	 DWORD PTR [esi+1596]
  001c7	d8 0d 00 00 00
	00		 fmul	 DWORD PTR __real@437f0000
  001cd	8b f8		 mov	 edi, eax
  001cf	81 cf 00 ff ff
	ff		 or	 edi, -256		; ffffff00H
  001d5	c1 e7 08	 shl	 edi, 8
  001d8	e8 00 00 00 00	 call	 __ftol2
  001dd	d9 86 40 06 00
	00		 fld	 DWORD PTR [esi+1600]
  001e3	d8 0d 00 00 00
	00		 fmul	 DWORD PTR __real@437f0000
  001e9	25 ff 00 00 00	 and	 eax, 255		; 000000ffH
  001ee	0b f8		 or	 edi, eax
  001f0	c1 e7 08	 shl	 edi, 8
  001f3	e8 00 00 00 00	 call	 __ftol2
  001f8	25 ff 00 00 00	 and	 eax, 255		; 000000ffH
  001fd	0b f8		 or	 edi, eax
  001ff	89 be 30 06 00
	00		 mov	 DWORD PTR [esi+1584], edi
  00205	5f		 pop	 edi
  00206	5e		 pop	 esi

; 198  : }

  00207	c2 0c 00	 ret	 12			; 0000000cH
?SetHairColor@CMover@@QAEXMMM@Z ENDP			; CMover::SetHairColor
_TEXT	ENDS
PUBLIC	__real@4f800000
PUBLIC	?SetHairColor@CMover@@QAEXK@Z			; CMover::SetHairColor
;	COMDAT __real@4f800000
; File c:\documents and settings\test\mes documents\source\virtuos_v17\build\program\_common\mover.h
CONST	SEGMENT
__real@4f800000 DD 04f800000r			; 4.29497e+009
; Function compile flags: /Ogty
; File c:\documents and settings\test\mes documents\source\virtuos_v17\build\program\_common\moverequip.cpp
CONST	ENDS
;	COMDAT ?SetHairColor@CMover@@QAEXK@Z
_TEXT	SEGMENT
tv435 = -4						; size = 4
tv304 = -4						; size = 4
tv441 = 8						; size = 4
tv438 = 8						; size = 4
tv399 = 8						; size = 4
tv398 = 8						; size = 4
tv397 = 8						; size = 4
tv396 = 8						; size = 4
tv395 = 8						; size = 4
tv394 = 8						; size = 4
tv299 = 8						; size = 4
_dwHairColor$ = 8					; size = 4
?SetHairColor@CMover@@QAEXK@Z PROC NEAR			; CMover::SetHairColor, COMDAT
; _this$ = ecx

; 202  : {

  00000	51		 push	 ecx

; 203  : 	m_dwHairColor = dwHairColor;

  00001	8b 44 24 08	 mov	 eax, DWORD PTR _dwHairColor$[esp]
  00005	56		 push	 esi
  00006	8b f1		 mov	 esi, ecx

; 204  : 	m_fHairColorR = ((dwHairColor>>16) & 0xff) / 255.f;

  00008	8b c8		 mov	 ecx, eax
  0000a	c1 e9 10	 shr	 ecx, 16			; 00000010H
  0000d	81 e1 ff 00 00
	00		 and	 ecx, 255		; 000000ffH
  00013	85 c9		 test	 ecx, ecx
  00015	89 4c 24 0c	 mov	 DWORD PTR tv441[esp+4], ecx
  00019	db 44 24 0c	 fild	 DWORD PTR tv441[esp+4]
  0001d	57		 push	 edi
  0001e	89 86 30 06 00
	00		 mov	 DWORD PTR [esi+1584], eax
  00024	7d 06		 jge	 SHORT $L275653
  00026	d8 05 00 00 00
	00		 fadd	 DWORD PTR __real@4f800000
$L275653:
  0002c	d8 0d 00 00 00
	00		 fmul	 DWORD PTR __real@3b808081

; 205  : 	m_fHairColorG = ((dwHairColor>>8) & 0xff)  / 255.f;

  00032	8b d0		 mov	 edx, eax
  00034	c1 ea 08	 shr	 edx, 8
  00037	81 e2 ff 00 00
	00		 and	 edx, 255		; 000000ffH
  0003d	85 d2		 test	 edx, edx
  0003f	d9 96 38 06 00
	00		 fst	 DWORD PTR [esi+1592]
  00045	89 54 24 10	 mov	 DWORD PTR tv438[esp+8], edx
  00049	db 44 24 10	 fild	 DWORD PTR tv438[esp+8]
  0004d	7d 06		 jge	 SHORT $L275656
  0004f	d8 05 00 00 00
	00		 fadd	 DWORD PTR __real@4f800000
$L275656:
  00055	d8 0d 00 00 00
	00		 fmul	 DWORD PTR __real@3b808081

; 206  : 	m_fHairColorB = ((dwHairColor) & 0xff)     / 255.f;

  0005b	25 ff 00 00 00	 and	 eax, 255		; 000000ffH
  00060	85 c0		 test	 eax, eax
  00062	89 44 24 08	 mov	 DWORD PTR tv435[esp+12], eax
  00066	d9 5c 24 10	 fstp	 DWORD PTR tv299[esp+8]
  0006a	8b 4c 24 10	 mov	 ecx, DWORD PTR tv299[esp+8]
  0006e	db 44 24 08	 fild	 DWORD PTR tv435[esp+12]
  00072	89 8e 3c 06 00
	00		 mov	 DWORD PTR [esi+1596], ecx
  00078	7d 06		 jge	 SHORT $L275657
  0007a	d8 05 00 00 00
	00		 fadd	 DWORD PTR __real@4f800000
$L275657:
  00080	d8 0d 00 00 00
	00		 fmul	 DWORD PTR __real@3b808081
  00086	d9 5c 24 08	 fstp	 DWORD PTR tv304[esp+12]

; 207  : 
; 208  : #ifndef __Y_HAIR_BUG_FIX
; 209  : 	if( ( m_fHairColorR == 1.0f && m_fHairColorG == 1.0f && m_fHairColorB == 1.0f ) || 
; 210  : 		( fabs( m_fHairColorR - 1.0f ) < 0.001f && fabs( m_fHairColorG - 1.0f ) < 0.001f && fabs( m_fHairColorB - 1.0f ) < 0.001f ) )

  0008a	d9 05 00 00 00
	00		 fld	 DWORD PTR __real@3f800000
  00090	8b 54 24 08	 mov	 edx, DWORD PTR tv304[esp+12]
  00094	d9 c1		 fld	 ST(1)
  00096	89 96 40 06 00
	00		 mov	 DWORD PTR [esi+1600], edx
  0009c	da e9		 fucompp
  0009e	df e0		 fnstsw	 ax
  000a0	f6 c4 44	 test	 ah, 68			; 00000044H
  000a3	7a 26		 jp	 SHORT $L268667
  000a5	d9 05 00 00 00
	00		 fld	 DWORD PTR __real@3f800000
  000ab	d9 44 24 10	 fld	 DWORD PTR tv299[esp+8]
  000af	da e9		 fucompp
  000b1	df e0		 fnstsw	 ax
  000b3	f6 c4 44	 test	 ah, 68			; 00000044H
  000b6	7a 13		 jp	 SHORT $L268667
  000b8	d9 05 00 00 00
	00		 fld	 DWORD PTR __real@3f800000
  000be	d9 44 24 08	 fld	 DWORD PTR tv304[esp+12]
  000c2	da e9		 fucompp
  000c4	df e0		 fnstsw	 ax
  000c6	f6 c4 44	 test	 ah, 68			; 00000044H
  000c9	7b 55		 jnp	 SHORT $L275652
$L268667:
  000cb	d8 25 00 00 00
	00		 fsub	 DWORD PTR __real@3f800000
  000d1	d9 e1		 fabs
  000d3	d8 1d 00 00 00
	00		 fcomp	 DWORD PTR __real@3a83126f
  000d9	df e0		 fnstsw	 ax
  000db	f6 c4 05	 test	 ah, 5
  000de	0f 8a ec 00 00
	00		 jp	 $L268669
  000e4	d9 44 24 10	 fld	 DWORD PTR tv299[esp+8]
  000e8	d8 25 00 00 00
	00		 fsub	 DWORD PTR __real@3f800000
  000ee	d9 e1		 fabs
  000f0	d8 1d 00 00 00
	00		 fcomp	 DWORD PTR __real@3a83126f
  000f6	df e0		 fnstsw	 ax
  000f8	f6 c4 05	 test	 ah, 5
  000fb	0f 8a cf 00 00
	00		 jp	 $L268669
  00101	d9 44 24 08	 fld	 DWORD PTR tv304[esp+12]
  00105	d8 25 00 00 00
	00		 fsub	 DWORD PTR __real@3f800000
  0010b	d9 e1		 fabs
  0010d	d8 1d 00 00 00
	00		 fcomp	 DWORD PTR __real@3a83126f
  00113	df e0		 fnstsw	 ax
  00115	f6 c4 05	 test	 ah, 5
  00118	0f 8a b2 00 00
	00		 jp	 $L268669
  0011e	eb 02		 jmp	 SHORT $L268666
$L275652:
  00120	dd d8		 fstp	 ST(0)
$L268666:

; 211  : 	{
; 212  : 		if( GetSex() == SEX_MALE )

  00122	8a 86 20 06 00
	00		 mov	 al, BYTE PTR [esi+1568]
  00128	84 c0		 test	 al, al

; 213  : 		{
; 214  : 			m_fHairColorR = (nMaleHairColor[m_dwHairMesh][0])/255.f;

  0012a	8b 86 2c 06 00
	00		 mov	 eax, DWORD PTR [esi+1580]
  00130	75 4a		 jne	 SHORT $L268668
  00132	0f b6 8c 40 00
	00 00 00	 movzx	 ecx, BYTE PTR ?nMaleHairColor@@3PAY02EA[eax+eax*2]
  0013a	89 4c 24 10	 mov	 DWORD PTR tv399[esp+8], ecx
  0013e	db 44 24 10	 fild	 DWORD PTR tv399[esp+8]
  00142	d8 0d 00 00 00
	00		 fmul	 DWORD PTR __real@3b808081
  00148	d9 9e 38 06 00
	00		 fstp	 DWORD PTR [esi+1592]

; 215  : 			m_fHairColorG = (nMaleHairColor[m_dwHairMesh][1])/255.f;

  0014e	0f b6 94 40 01
	00 00 00	 movzx	 edx, BYTE PTR ?nMaleHairColor@@3PAY02EA[eax+eax*2+1]
  00156	89 54 24 10	 mov	 DWORD PTR tv398[esp+8], edx
  0015a	db 44 24 10	 fild	 DWORD PTR tv398[esp+8]
  0015e	d8 0d 00 00 00
	00		 fmul	 DWORD PTR __real@3b808081
  00164	d9 9e 3c 06 00
	00		 fstp	 DWORD PTR [esi+1596]

; 216  : 			m_fHairColorB = (nMaleHairColor[m_dwHairMesh][2])/255.f;

  0016a	0f b6 84 40 02
	00 00 00	 movzx	 eax, BYTE PTR ?nMaleHairColor@@3PAY02EA[eax+eax*2+2]
  00172	89 44 24 10	 mov	 DWORD PTR tv397[esp+8], eax
  00176	db 44 24 10	 fild	 DWORD PTR tv397[esp+8]

; 217  : 		}
; 218  : 		else

  0017a	eb 48		 jmp	 SHORT $L275658
$L268668:

; 219  : 		{
; 220  : 			m_fHairColorR = (nFeMaleHairColor[m_dwHairMesh][0])/255.f;

  0017c	0f b6 8c 40 00
	00 00 00	 movzx	 ecx, BYTE PTR ?nFeMaleHairColor@@3PAY02EA[eax+eax*2]
  00184	89 4c 24 10	 mov	 DWORD PTR tv396[esp+8], ecx
  00188	db 44 24 10	 fild	 DWORD PTR tv396[esp+8]
  0018c	d8 0d 00 00 00
	00		 fmul	 DWORD PTR __real@3b808081
  00192	d9 9e 38 06 00
	00		 fstp	 DWORD PTR [esi+1592]

; 221  : 			m_fHairColorG = (nFeMaleHairColor[m_dwHairMesh][1])/255.f;

  00198	0f b6 94 40 01
	00 00 00	 movzx	 edx, BYTE PTR ?nFeMaleHairColor@@3PAY02EA[eax+eax*2+1]
  001a0	89 54 24 10	 mov	 DWORD PTR tv395[esp+8], edx
  001a4	db 44 24 10	 fild	 DWORD PTR tv395[esp+8]
  001a8	d8 0d 00 00 00
	00		 fmul	 DWORD PTR __real@3b808081
  001ae	d9 9e 3c 06 00
	00		 fstp	 DWORD PTR [esi+1596]

; 222  : 			m_fHairColorB = (nFeMaleHairColor[m_dwHairMesh][2])/255.f;

  001b4	0f b6 84 40 02
	00 00 00	 movzx	 eax, BYTE PTR ?nFeMaleHairColor@@3PAY02EA[eax+eax*2+2]
  001bc	89 44 24 10	 mov	 DWORD PTR tv394[esp+8], eax
  001c0	db 44 24 10	 fild	 DWORD PTR tv394[esp+8]
$L275658:
  001c4	d8 0d 00 00 00
	00		 fmul	 DWORD PTR __real@3b808081
  001ca	d9 9e 40 06 00
	00		 fstp	 DWORD PTR [esi+1600]
$L268669:

; 223  : 		}
; 224  : 
; 225  : 	}
; 226  : #endif //__Y_HAIR_BUG_FIX
; 227  : 
; 228  : 	m_dwHairColor = D3DCOLOR_COLORVALUE( m_fHairColorR, m_fHairColorG, m_fHairColorB, 1.0f );

  001d0	d9 86 38 06 00
	00		 fld	 DWORD PTR [esi+1592]
  001d6	d8 0d 00 00 00
	00		 fmul	 DWORD PTR __real@437f0000
  001dc	e8 00 00 00 00	 call	 __ftol2
  001e1	d9 86 3c 06 00
	00		 fld	 DWORD PTR [esi+1596]
  001e7	d8 0d 00 00 00
	00		 fmul	 DWORD PTR __real@437f0000
  001ed	8b f8		 mov	 edi, eax
  001ef	81 cf 00 ff ff
	ff		 or	 edi, -256		; ffffff00H
  001f5	c1 e7 08	 shl	 edi, 8
  001f8	e8 00 00 00 00	 call	 __ftol2
  001fd	d9 86 40 06 00
	00		 fld	 DWORD PTR [esi+1600]
  00203	d8 0d 00 00 00
	00		 fmul	 DWORD PTR __real@437f0000
  00209	25 ff 00 00 00	 and	 eax, 255		; 000000ffH
  0020e	0b f8		 or	 edi, eax
  00210	c1 e7 08	 shl	 edi, 8
  00213	e8 00 00 00 00	 call	 __ftol2
  00218	25 ff 00 00 00	 and	 eax, 255		; 000000ffH
  0021d	0b f8		 or	 edi, eax
  0021f	89 be 30 06 00
	00		 mov	 DWORD PTR [esi+1584], edi
  00225	5f		 pop	 edi
  00226	5e		 pop	 esi

; 229  : }

  00227	59		 pop	 ecx
  00228	c2 04 00	 ret	 4
?SetHairColor@CMover@@QAEXK@Z ENDP			; CMover::SetHairColor
_TEXT	ENDS
PUBLIC	?SetHead@CMover@@QAEXH@Z			; CMover::SetHead
PUBLIC	??_C@_0BG@CLDHKMH@Part_maleHead?$CF02d?4o3d?$AA@ ; `string'
PUBLIC	??_C@_0BI@GIDPPID@Part_femaleHead?$CF02d?4o3d?$AA@ ; `string'
;	COMDAT ??_C@_0BG@CLDHKMH@Part_maleHead?$CF02d?4o3d?$AA@
; File c:\documents and settings\test\mes documents\source\virtuos_v17\build\program\_common\mover.h
CONST	SEGMENT
??_C@_0BG@CLDHKMH@Part_maleHead?$CF02d?4o3d?$AA@ DB 'Part_maleHead%02d.o3'
	DB	'd', 00H					; `string'
CONST	ENDS
;	COMDAT ??_C@_0BI@GIDPPID@Part_femaleHead?$CF02d?4o3d?$AA@
CONST	SEGMENT
??_C@_0BI@GIDPPID@Part_femaleHead?$CF02d?4o3d?$AA@ DB 'Part_femaleHead%02'
	DB	'd.o3d', 00H					; `string'
; Function compile flags: /Ogty
; File c:\documents and settings\test\mes documents\source\virtuos_v17\build\program\_common\moverequip.cpp
CONST	ENDS
;	COMDAT ?SetHead@CMover@@QAEXH@Z
_TEXT	SEGMENT
_lpszTemp$268682 = -68					; size = 64
__$ArrayPad$ = -4					; size = 4
__$ReturnAddr$ = 4					; size = 4
_nHead$ = 8						; size = 4
?SetHead@CMover@@QAEXH@Z PROC NEAR			; CMover::SetHead, COMDAT
; _this$ = ecx

; 233  : {

  00000	83 ec 44	 sub	 esp, 68			; 00000044H
  00003	a1 00 00 00 00	 mov	 eax, DWORD PTR ___security_cookie
  00008	33 c4		 xor	 eax, esp
  0000a	89 44 24 40	 mov	 DWORD PTR __$ArrayPad$[esp+68], eax
  0000e	8b c1		 mov	 eax, ecx

; 234  : 	if( nHead < MAX_HEAD )

  00010	8b 4c 24 48	 mov	 ecx, DWORD PTR _nHead$[esp+64]
  00014	83 f9 0b	 cmp	 ecx, 11			; 0000000bH
  00017	7d 40		 jge	 SHORT $L268679

; 235  : 	{
; 236  : 		m_dwHeadMesh = nHead;
; 237  : 		CModelObject* pModel = (CModelObject*)m_pModel;
; 238  : 		TCHAR lpszTemp[ 64 ];
; 239  : 		// Hair
; 240  : 		_stprintf( lpszTemp, PARTSMESH_HEAD( GetSex() ), m_dwHeadMesh + 1 );

  00019	8a 90 20 06 00
	00		 mov	 dl, BYTE PTR [eax+1568]
  0001f	84 d2		 test	 dl, dl
  00021	56		 push	 esi
  00022	8b b0 78 01 00
	00		 mov	 esi, DWORD PTR [eax+376]
  00028	89 88 34 06 00
	00		 mov	 DWORD PTR [eax+1588], ecx
  0002e	b8 00 00 00 00	 mov	 eax, OFFSET FLAT:??_C@_0BG@CLDHKMH@Part_maleHead?$CF02d?4o3d?$AA@
  00033	74 05		 je	 SHORT $L275664
  00035	b8 00 00 00 00	 mov	 eax, OFFSET FLAT:??_C@_0BI@GIDPPID@Part_femaleHead?$CF02d?4o3d?$AA@
$L275664:
  0003a	41		 inc	 ecx
  0003b	51		 push	 ecx
  0003c	50		 push	 eax
  0003d	8d 44 24 0c	 lea	 eax, DWORD PTR _lpszTemp$268682[esp+80]
  00041	50		 push	 eax
  00042	e8 00 00 00 00	 call	 _sprintf
  00047	83 c4 0c	 add	 esp, 12			; 0000000cH

; 241  : 		pModel->LoadElement( lpszTemp, PARTS_HEAD );

  0004a	6a 00		 push	 0
  0004c	8d 4c 24 08	 lea	 ecx, DWORD PTR _lpszTemp$268682[esp+76]
  00050	51		 push	 ecx
  00051	8b ce		 mov	 ecx, esi
  00053	e8 00 00 00 00	 call	 ?LoadElement@CModelObject@@QAEHPBDH@Z ; CModelObject::LoadElement
  00058	5e		 pop	 esi
$L268679:

; 242  : 	}
; 243  : }

  00059	8b 4c 24 40	 mov	 ecx, DWORD PTR __$ArrayPad$[esp+68]
  0005d	33 cc		 xor	 ecx, esp
  0005f	e8 00 00 00 00	 call	 @__security_check_cookie@4
  00064	83 c4 44	 add	 esp, 68			; 00000044H
  00067	c2 04 00	 ret	 4
?SetHead@CMover@@QAEXH@Z ENDP				; CMover::SetHead
_TEXT	ENDS
PUBLIC	?IsUnEquipAble@CMover@@QAEHPAUItemProp@@@Z	; CMover::IsUnEquipAble
EXTRN	?GetHeightAttribute@CWorld@@QAEHMM@Z:NEAR	; CWorld::GetHeightAttribute
EXTRN	?GetState@CFlyffEvent@@QAEEH@Z:NEAR		; CFlyffEvent::GetState
EXTRN	?g_eLocal@@3VCFlyffEvent@@A:BYTE		; g_eLocal
; Function compile flags: /Ogty
;	COMDAT ?IsUnEquipAble@CMover@@QAEHPAUItemProp@@@Z
_TEXT	SEGMENT
$T275675 = -12						; size = 12
$T275674 = -12						; size = 12
_pItemProp$ = 8						; size = 4
?IsUnEquipAble@CMover@@QAEHPAUItemProp@@@Z PROC NEAR	; CMover::IsUnEquipAble, COMDAT
; _this$ = ecx

; 1731 : {

  00000	83 ec 0c	 sub	 esp, 12			; 0000000cH
  00003	57		 push	 edi

; 1732 : 	if( pItemProp->dwParts == PARTS_RIDE )

  00004	8b 7c 24 14	 mov	 edi, DWORD PTR _pItemProp$[esp+12]
  00008	8b c1		 mov	 eax, ecx
  0000a	83 bf a8 00 00
	00 0d		 cmp	 DWORD PTR [edi+168], 13	; 0000000dH
  00011	75 57		 jne	 SHORT $L269061

; 1733 : 	{
; 1734 : 		if( m_pActMover->IsSit() )	//     

  00013	8b 88 3c 02 00
	00		 mov	 ecx, DWORD PTR [eax+572]
  00019	f6 41 08 04	 test	 BYTE PTR [ecx+8], 4

; 1735 : 			return FALSE;

  0001d	75 61		 jne	 SHORT $L269062

; 1736 : 
; 1737 : 		if( GetWorld() )	// RedoEquip  NULL . NULL  

  0001f	8b 88 6c 01 00
	00		 mov	 ecx, DWORD PTR [eax+364]
  00025	85 c9		 test	 ecx, ecx
  00027	74 41		 je	 SHORT $L269061

; 1738 : 		{
; 1739 : 			int nAttr = GetWorld()->GetHeightAttribute( GetPos().x, GetPos().z );		//    .

  00029	05 60 01 00 00	 add	 eax, 352		; 00000160H
  0002e	53		 push	 ebx
  0002f	8b 58 04	 mov	 ebx, DWORD PTR [eax+4]
  00032	56		 push	 esi
  00033	8b d0		 mov	 edx, eax
  00035	8b 32		 mov	 esi, DWORD PTR [edx]
  00037	89 74 24 0c	 mov	 DWORD PTR $T275674[esp+24], esi
  0003b	8b 72 04	 mov	 esi, DWORD PTR [edx+4]
  0003e	8b 52 08	 mov	 edx, DWORD PTR [edx+8]
  00041	89 74 24 10	 mov	 DWORD PTR $T275674[esp+28], esi
  00045	8b 30		 mov	 esi, DWORD PTR [eax]
  00047	8b 40 08	 mov	 eax, DWORD PTR [eax+8]
  0004a	52		 push	 edx
  0004b	56		 push	 esi
  0004c	89 5c 24 18	 mov	 DWORD PTR $T275675[esp+36], ebx
  00050	89 44 24 1c	 mov	 DWORD PTR $T275675[esp+40], eax
  00054	e8 00 00 00 00	 call	 ?GetHeightAttribute@CWorld@@QAEHMM@Z ; CWorld::GetHeightAttribute

; 1740 : 			//  or  or    .
; 1741 : 			if( (nAttr == HATTR_NOFLY || nAttr == HATTR_NOWALK || nAttr == HATTR_NOMOVE ) )		

  00059	83 f8 02	 cmp	 eax, 2
  0005c	5e		 pop	 esi
  0005d	5b		 pop	 ebx
  0005e	74 20		 je	 SHORT $L269062
  00060	83 f8 01	 cmp	 eax, 1
  00063	74 1b		 je	 SHORT $L269062
  00065	83 f8 03	 cmp	 eax, 3

; 1742 : 				return FALSE;

  00068	74 16		 je	 SHORT $L269062
$L269061:

; 1743 : 		}
; 1744 : 	}
; 1745 : 
; 1746 : 	if( g_eLocal.GetState( EVE_SCHOOL ) && pItemProp->dwItemKind3 == IK3_CLOAK )

  0006a	6a 04		 push	 4
  0006c	b9 00 00 00 00	 mov	 ecx, OFFSET FLAT:?g_eLocal@@3VCFlyffEvent@@A
  00071	e8 00 00 00 00	 call	 ?GetState@CFlyffEvent@@QAEEH@Z ; CFlyffEvent::GetState
  00076	84 c0		 test	 al, al
  00078	74 0f		 je	 SHORT $L269063
  0007a	83 7f 78 18	 cmp	 DWORD PTR [edi+120], 24	; 00000018H
  0007e	75 09		 jne	 SHORT $L269063
$L269062:

; 1747 : 		return FALSE;

  00080	33 c0		 xor	 eax, eax
  00082	5f		 pop	 edi

; 1750 : }

  00083	83 c4 0c	 add	 esp, 12			; 0000000cH
  00086	c2 04 00	 ret	 4
$L269063:

; 1748 : 	
; 1749 : 	return TRUE;

  00089	b8 01 00 00 00	 mov	 eax, 1
  0008e	5f		 pop	 edi

; 1750 : }

  0008f	83 c4 0c	 add	 esp, 12			; 0000000cH
  00092	c2 04 00	 ret	 4
?IsUnEquipAble@CMover@@QAEHPAUItemProp@@@Z ENDP		; CMover::IsUnEquipAble
_TEXT	ENDS
PUBLIC	??_C@_01DGKLNCNG@R?$AA@				; `string'
PUBLIC	??_C@_06GKBINIEJ@GROUND?$AA@			; `string'
PUBLIC	??_C@_02DPKJAMEF@?$CFd?$AA@			; `string'
PUBLIC	?PickupGoldCore@CMover@@QAEXH@Z			; CMover::PickupGoldCore
EXTRN	?AddGoldText@CUser@@QAEXH@Z:NEAR		; CUser::AddGoldText
EXTRN	?g_DPSrvr@@3VCDPSrvr@@A:BYTE			; g_DPSrvr
EXTRN	?GetName@CMover@@QAEPBDH@Z:NEAR			; CMover::GetName
EXTRN	?AddGold@CMover@@QAEHHH@Z:NEAR			; CMover::AddGold
EXTRN	?OnLogItem@CDPSrvr@@QAEXAAU_LogItemInfo@@PAVCItemElem@@H@Z:NEAR ; CDPSrvr::OnLogItem
;	COMDAT ??_C@_01DGKLNCNG@R?$AA@
; File c:\documents and settings\test\mes documents\source\virtuos_v17\build\program\_common\mover.h
CONST	SEGMENT
??_C@_01DGKLNCNG@R?$AA@ DB 'R', 00H			; `string'
CONST	ENDS
;	COMDAT ??_C@_06GKBINIEJ@GROUND?$AA@
CONST	SEGMENT
??_C@_06GKBINIEJ@GROUND?$AA@ DB 'GROUND', 00H		; `string'
CONST	ENDS
;	COMDAT ??_C@_02DPKJAMEF@?$CFd?$AA@
CONST	SEGMENT
??_C@_02DPKJAMEF@?$CFd?$AA@ DB '%d', 00H		; `string'
; Function compile flags: /Ogty
; File c:\documents and settings\test\mes documents\source\virtuos_v17\build\program\_common\moverequip.cpp
CONST	ENDS
;	COMDAT ?PickupGoldCore@CMover@@QAEXH@Z
_TEXT	SEGMENT
_aLogItem$269545 = -204					; size = 200
__$ArrayPad$ = -4					; size = 4
__$ReturnAddr$ = 4					; size = 4
_nGold$ = 8						; size = 4
?PickupGoldCore@CMover@@QAEXH@Z PROC NEAR		; CMover::PickupGoldCore, COMDAT
; _this$ = ecx

; 2433 : {

  00000	81 ec cc 00 00
	00		 sub	 esp, 204		; 000000ccH
  00006	a1 00 00 00 00	 mov	 eax, DWORD PTR ___security_cookie
  0000b	33 c4		 xor	 eax, esp
  0000d	56		 push	 esi
  0000e	57		 push	 edi

; 2434 : 	if( AddGold( nGold ) == FALSE )

  0000f	8b bc 24 d8 00
	00 00		 mov	 edi, DWORD PTR _nGold$[esp+208]
  00016	6a 01		 push	 1
  00018	57		 push	 edi
  00019	89 84 24 d8 00
	00 00		 mov	 DWORD PTR __$ArrayPad$[esp+220], eax
  00020	8b f1		 mov	 esi, ecx
  00022	e8 00 00 00 00	 call	 ?AddGold@CMover@@QAEHHH@Z ; CMover::AddGold
  00027	85 c0		 test	 eax, eax
  00029	0f 84 89 00 00
	00		 je	 $L269544

; 2435 : 		return;
; 2436 : 
; 2437 : #ifdef __WORLDSERVER
; 2438 : 	if( IsPlayer() )

  0002f	8b 86 34 02 00
	00		 mov	 eax, DWORD PTR [esi+564]
  00035	85 c0		 test	 eax, eax
  00037	74 7f		 je	 SHORT $L269544

; 2439 : 	{
; 2440 : 		((CUser*)this)->AddGoldText( nGold );

  00039	57		 push	 edi
  0003a	8b ce		 mov	 ecx, esi
  0003c	e8 00 00 00 00	 call	 ?AddGoldText@CUser@@QAEXH@Z ; CUser::AddGoldText

; 2441 : 		if( nGold >= 500 )

  00041	81 ff f4 01 00
	00		 cmp	 edi, 500		; 000001f4H
  00047	7c 6f		 jl	 SHORT $L269544

; 2442 : 		{
; 2443 : 			LogItemInfo aLogItem;

  00049	8d 4c 24 08	 lea	 ecx, DWORD PTR _aLogItem$269545[esp+212]
  0004d	e8 00 00 00 00	 call	 ??0_LogItemInfo@@QAE@XZ	; _LogItemInfo::_LogItemInfo

; 2444 : 			aLogItem.Action = "R";
; 2445 : 			aLogItem.SendName = "GROUND";
; 2446 : 			aLogItem.RecvName = GetName();

  00052	6a 00		 push	 0
  00054	8b ce		 mov	 ecx, esi
  00056	c7 44 24 0c 00
	00 00 00	 mov	 DWORD PTR _aLogItem$269545[esp+216], OFFSET FLAT:??_C@_01DGKLNCNG@R?$AA@
  0005e	c7 44 24 10 00
	00 00 00	 mov	 DWORD PTR _aLogItem$269545[esp+220], OFFSET FLAT:??_C@_06GKBINIEJ@GROUND?$AA@
  00066	e8 00 00 00 00	 call	 ?GetName@CMover@@QAEPBDH@Z ; CMover::GetName
  0006b	89 44 24 10	 mov	 DWORD PTR _aLogItem$269545[esp+220], eax

; 2447 : 			aLogItem.WorldId = GetWorld()->GetID();

  0006f	8b 86 6c 01 00
	00		 mov	 eax, DWORD PTR [esi+364]
  00075	8b 08		 mov	 ecx, DWORD PTR [eax]

; 2448 : 			aLogItem.Gold = GetGold() - nGold;

  00077	8b b6 84 16 00
	00		 mov	 esi, DWORD PTR [esi+5764]

; 2449 : 			aLogItem.Gold2 = GetGold();
; 2450 : 			//aLogItem.ItemName = "SEED";
; 2451 : 			_stprintf( aLogItem.szItemName, "%d", II_GOLD_SEED1 );

  0007d	6a 0c		 push	 12			; 0000000cH
  0007f	8b d6		 mov	 edx, esi
  00081	8d 44 24 30	 lea	 eax, DWORD PTR _aLogItem$269545[esp+252]
  00085	2b d7		 sub	 edx, edi
  00087	68 00 00 00 00	 push	 OFFSET FLAT:??_C@_02DPKJAMEF@?$CFd?$AA@
  0008c	50		 push	 eax
  0008d	89 4c 24 20	 mov	 DWORD PTR _aLogItem$269545[esp+236], ecx
  00091	89 54 24 24	 mov	 DWORD PTR _aLogItem$269545[esp+240], edx
  00095	89 74 24 28	 mov	 DWORD PTR _aLogItem$269545[esp+244], esi
  00099	e8 00 00 00 00	 call	 _sprintf
  0009e	83 c4 0c	 add	 esp, 12			; 0000000cH

; 2452 : 			aLogItem.itemNumber = nGold;
; 2453 : 			g_DPSrvr.OnLogItem( aLogItem );

  000a1	6a 00		 push	 0
  000a3	6a 00		 push	 0
  000a5	8d 4c 24 10	 lea	 ecx, DWORD PTR _aLogItem$269545[esp+220]
  000a9	51		 push	 ecx
  000aa	b9 00 00 00 00	 mov	 ecx, OFFSET FLAT:?g_DPSrvr@@3VCDPSrvr@@A
  000af	89 7c 24 58	 mov	 DWORD PTR _aLogItem$269545[esp+292], edi
  000b3	e8 00 00 00 00	 call	 ?OnLogItem@CDPSrvr@@QAEXAAU_LogItemInfo@@PAVCItemElem@@H@Z ; CDPSrvr::OnLogItem
$L269544:

; 2454 : 		}										
; 2455 : 	}
; 2456 : #endif	// __WORLDSERVER
; 2457 : }

  000b8	8b 8c 24 d0 00
	00 00		 mov	 ecx, DWORD PTR __$ArrayPad$[esp+212]
  000bf	5f		 pop	 edi
  000c0	5e		 pop	 esi
  000c1	33 cc		 xor	 ecx, esp
  000c3	e8 00 00 00 00	 call	 @__security_check_cookie@4
  000c8	81 c4 cc 00 00
	00		 add	 esp, 204		; 000000ccH
  000ce	c2 04 00	 ret	 4
?PickupGoldCore@CMover@@QAEXH@Z ENDP			; CMover::PickupGoldCore
_TEXT	ENDS
PUBLIC	??Diterator@?$vector@U_SINGLE_DST@@V?$allocator@U_SINGLE_DST@@@std@@@std@@QBEAAU_SINGLE_DST@@XZ ; std::vector<_SINGLE_DST,std::allocator<_SINGLE_DST> >::iterator::operator*
; Function compile flags: /Ogty
; File c:\program files\microsoft visual studio .net 2003\vc7\include\vector
;	COMDAT ??Diterator@?$vector@U_SINGLE_DST@@V?$allocator@U_SINGLE_DST@@@std@@@std@@QBEAAU_SINGLE_DST@@XZ
_TEXT	SEGMENT
??Diterator@?$vector@U_SINGLE_DST@@V?$allocator@U_SINGLE_DST@@@std@@@std@@QBEAAU_SINGLE_DST@@XZ PROC NEAR ; std::vector<_SINGLE_DST,std::allocator<_SINGLE_DST> >::iterator::operator*, COMDAT
; _this$ = ecx

; 220  : 			return ((reference)**(const_iterator *)this);

  00000	8b 01		 mov	 eax, DWORD PTR [ecx]

; 221  : 			}

  00002	c3		 ret	 0
??Diterator@?$vector@U_SINGLE_DST@@V?$allocator@U_SINGLE_DST@@@std@@@std@@QBEAAU_SINGLE_DST@@XZ ENDP ; std::vector<_SINGLE_DST,std::allocator<_SINGLE_DST> >::iterator::operator*
_TEXT	ENDS
PUBLIC	??Hiterator@?$vector@U_SINGLE_DST@@V?$allocator@U_SINGLE_DST@@@std@@@std@@QBE?AV012@H@Z ; std::vector<_SINGLE_DST,std::allocator<_SINGLE_DST> >::iterator::operator+
; Function compile flags: /Ogty
;	COMDAT ??Hiterator@?$vector@U_SINGLE_DST@@V?$allocator@U_SINGLE_DST@@@std@@@std@@QBE?AV012@H@Z
_TEXT	SEGMENT
___$ReturnUdt$ = 8					; size = 4
__Off$ = 12						; size = 4
??Hiterator@?$vector@U_SINGLE_DST@@V?$allocator@U_SINGLE_DST@@@std@@@std@@QBE?AV012@H@Z PROC NEAR ; std::vector<_SINGLE_DST,std::allocator<_SINGLE_DST> >::iterator::operator+, COMDAT
; _this$ = ecx

; 262  : 			iterator _Tmp = *this;
; 263  : 			return (_Tmp += _Off);

  00000	8b 01		 mov	 eax, DWORD PTR [ecx]
  00002	8b 4c 24 08	 mov	 ecx, DWORD PTR __Off$[esp-4]
  00006	8d 14 c8	 lea	 edx, DWORD PTR [eax+ecx*8]
  00009	8b 44 24 04	 mov	 eax, DWORD PTR ___$ReturnUdt$[esp-4]
  0000d	89 10		 mov	 DWORD PTR [eax], edx

; 264  : 			}

  0000f	c2 08 00	 ret	 8
??Hiterator@?$vector@U_SINGLE_DST@@V?$allocator@U_SINGLE_DST@@@std@@@std@@QBE?AV012@H@Z ENDP ; std::vector<_SINGLE_DST,std::allocator<_SINGLE_DST> >::iterator::operator+
_TEXT	ENDS
PUBLIC	??0iterator@?$vector@U_SINGLE_DST@@V?$allocator@U_SINGLE_DST@@@std@@@std@@QAE@PAU_SINGLE_DST@@@Z ; std::vector<_SINGLE_DST,std::allocator<_SINGLE_DST> >::iterator::iterator
; Function compile flags: /Ogty
;	COMDAT ??0iterator@?$vector@U_SINGLE_DST@@V?$allocator@U_SINGLE_DST@@@std@@@std@@QAE@PAU_SINGLE_DST@@@Z
_TEXT	SEGMENT
__Ptr$ = 8						; size = 4
??0iterator@?$vector@U_SINGLE_DST@@V?$allocator@U_SINGLE_DST@@@std@@@std@@QAE@PAU_SINGLE_DST@@@Z PROC NEAR ; std::vector<_SINGLE_DST,std::allocator<_SINGLE_DST> >::iterator::iterator, COMDAT
; _this$ = ecx

; 215  : 			{	// construct with pointer _Ptr

  00000	8b c1		 mov	 eax, ecx
  00002	8b 4c 24 04	 mov	 ecx, DWORD PTR __Ptr$[esp-4]
  00006	89 08		 mov	 DWORD PTR [eax], ecx

; 216  : 			}

  00008	c2 04 00	 ret	 4
??0iterator@?$vector@U_SINGLE_DST@@V?$allocator@U_SINGLE_DST@@@std@@@std@@QAE@PAU_SINGLE_DST@@@Z ENDP ; std::vector<_SINGLE_DST,std::allocator<_SINGLE_DST> >::iterator::iterator
_TEXT	ENDS
PUBLIC	?GetAt@?$CItemContainer@VCItemElem@@@@QAEPAVCItemElem@@K@Z ; CItemContainer<CItemElem>::GetAt
; Function compile flags: /Ogty
; File c:\documents and settings\test\mes documents\source\virtuos_v17\build\program\_common\item.h
;	COMDAT ?GetAt@?$CItemContainer@VCItemElem@@@@QAEPAVCItemElem@@K@Z
_TEXT	SEGMENT
_dwIndex$ = 8						; size = 4
?GetAt@?$CItemContainer@VCItemElem@@@@QAEPAVCItemElem@@K@Z PROC NEAR ; CItemContainer<CItemElem>::GetAt, COMDAT
; _this$ = ecx

; 826  : 	DWORD dwIdx = m_apIndex[ dwIndex ];

  00000	8b 41 04	 mov	 eax, DWORD PTR [ecx+4]
  00003	8b 54 24 04	 mov	 edx, DWORD PTR _dwIndex$[esp-4]
  00007	8b 04 90	 mov	 eax, DWORD PTR [eax+edx*4]

; 827  : 	if( dwIdx == NULL_ID )

  0000a	83 f8 ff	 cmp	 eax, -1
  0000d	75 05		 jne	 SHORT $L272643

; 828  : 		return NULL;

  0000f	33 c0		 xor	 eax, eax

; 831  : 		return NULL;
; 832  : 	return pItemElem;
; 833  : }

  00011	c2 04 00	 ret	 4
$L272643:

; 829  : 	T* pItemElem = &m_apItem[ dwIdx ];

  00014	8b 51 10	 mov	 edx, DWORD PTR [ecx+16]
  00017	69 c0 b8 00 00
	00		 imul	 eax, 184		; 000000b8H
  0001d	03 c2		 add	 eax, edx
  0001f	8b c8		 mov	 ecx, eax

; 830  : 	if( pItemElem->IsEmpty() ) 

  00021	8b 41 0c	 mov	 eax, DWORD PTR [ecx+12]
  00024	f7 d8		 neg	 eax
  00026	1b c0		 sbb	 eax, eax
  00028	23 c1		 and	 eax, ecx

; 831  : 		return NULL;
; 832  : 	return pItemElem;
; 833  : }

  0002a	c2 04 00	 ret	 4
?GetAt@?$CItemContainer@VCItemElem@@@@QAEPAVCItemElem@@K@Z ENDP ; CItemContainer<CItemElem>::GetAt
_TEXT	ENDS
PUBLIC	?DoEquip@?$CItemContainer@VCItemElem@@@@QAEHKK@Z ; CItemContainer<CItemElem>::DoEquip
; Function compile flags: /Ogty
;	COMDAT ?DoEquip@?$CItemContainer@VCItemElem@@@@QAEHKK@Z
_TEXT	SEGMENT
_dwSrcIndex$ = 8					; size = 4
_dwDstIndex$ = 12					; size = 4
?DoEquip@?$CItemContainer@VCItemElem@@@@QAEHKK@Z PROC NEAR ; CItemContainer<CItemElem>::DoEquip, COMDAT
; _this$ = ecx

; 548  : 	dwDstIndex += m_dwIndexNum;		// dwDstIndex = (42) + PARTS_???;

  00000	8b 51 08	 mov	 edx, DWORD PTR [ecx+8]
  00003	53		 push	 ebx
  00004	8b 5c 24 0c	 mov	 ebx, DWORD PTR _dwDstIndex$[esp]
  00008	56		 push	 esi

; 549  : 
; 550  : 	if( dwSrcIndex == dwDstIndex )

  00009	8b 74 24 0c	 mov	 esi, DWORD PTR _dwSrcIndex$[esp+4]
  0000d	03 da		 add	 ebx, edx
  0000f	3b f3		 cmp	 esi, ebx
  00011	75 07		 jne	 SHORT $L272652
  00013	5e		 pop	 esi

; 551  : 		return FALSE;

  00014	33 c0		 xor	 eax, eax
  00016	5b		 pop	 ebx

; 567  : 		}
; 568  : 	}
; 569  : 	return FALSE;
; 570  : }

  00017	c2 08 00	 ret	 8
$L272652:
  0001a	57		 push	 edi

; 552  : 
; 553  : 	if( dwSrcIndex >= m_dwItemMax || dwDstIndex >= m_dwItemMax )

  0001b	8b 79 0c	 mov	 edi, DWORD PTR [ecx+12]
  0001e	3b f7		 cmp	 esi, edi
  00020	0f 83 82 00 00
	00		 jae	 $L272654
  00026	3b df		 cmp	 ebx, edi
  00028	73 7e		 jae	 SHORT $L272654

; 555  : 
; 556  : 	for( DWORD i = 0; i < m_dwItemMax; i++ )

  0002a	33 d2		 xor	 edx, edx
  0002c	85 ff		 test	 edi, edi
  0002e	55		 push	 ebp
  0002f	76 2d		 jbe	 SHORT $L272658
  00031	8b 41 10	 mov	 eax, DWORD PTR [ecx+16]
  00034	83 c0 08	 add	 eax, 8
$L272656:

; 557  : 	{
; 558  : 		if( m_apItem[ i ].IsEmpty() && m_apItem[ i ].m_dwObjIndex == NULL_ID )

  00037	8b 68 04	 mov	 ebp, DWORD PTR [eax+4]
  0003a	85 ed		 test	 ebp, ebp
  0003c	75 05		 jne	 SHORT $L272657
  0003e	83 38 ff	 cmp	 DWORD PTR [eax], -1
  00041	74 13		 je	 SHORT $L275751
$L272657:

; 555  : 
; 556  : 	for( DWORD i = 0; i < m_dwItemMax; i++ )

  00043	42		 inc	 edx
  00044	05 b8 00 00 00	 add	 eax, 184		; 000000b8H
  00049	3b d7		 cmp	 edx, edi
  0004b	72 ea		 jb	 SHORT $L272656
  0004d	5d		 pop	 ebp
  0004e	5f		 pop	 edi
  0004f	5e		 pop	 esi

; 561  : 				return FALSE;

  00050	33 c0		 xor	 eax, eax
  00052	5b		 pop	 ebx

; 567  : 		}
; 568  : 	}
; 569  : 	return FALSE;
; 570  : }

  00053	c2 08 00	 ret	 8
$L275751:

; 559  : 		{
; 560  : 			if( m_apIndex[dwSrcIndex] >= m_dwItemMax )

  00056	8b 41 04	 mov	 eax, DWORD PTR [ecx+4]
  00059	39 3c b0	 cmp	 DWORD PTR [eax+esi*4], edi
  0005c	72 09		 jb	 SHORT $L272660
$L272658:
  0005e	5d		 pop	 ebp
  0005f	5f		 pop	 edi
  00060	5e		 pop	 esi

; 561  : 				return FALSE;

  00061	33 c0		 xor	 eax, eax
  00063	5b		 pop	 ebx

; 567  : 		}
; 568  : 	}
; 569  : 	return FALSE;
; 570  : }

  00064	c2 08 00	 ret	 8
$L272660:

; 562  : 			m_apIndex[ dwDstIndex ] = m_apIndex[ dwSrcIndex ];		//   index (dwDstIndex) .

  00067	8b 41 04	 mov	 eax, DWORD PTR [ecx+4]
  0006a	8b 3c b0	 mov	 edi, DWORD PTR [eax+esi*4]
  0006d	89 3c 98	 mov	 DWORD PTR [eax+ebx*4], edi

; 563  : 			m_apIndex[ dwSrcIndex ] = i;							//   (dwSrcIndex) (i) .

  00070	8b 41 04	 mov	 eax, DWORD PTR [ecx+4]
  00073	89 14 b0	 mov	 DWORD PTR [eax+esi*4], edx

; 564  : 			m_apItem[ m_apIndex[ dwSrcIndex ] ].m_dwObjIndex = dwSrcIndex;	//   m_dwObjIndex  dwSrcIndex ?

  00076	8b 51 04	 mov	 edx, DWORD PTR [ecx+4]
  00079	8b 04 b2	 mov	 eax, DWORD PTR [edx+esi*4]
  0007c	8b 51 10	 mov	 edx, DWORD PTR [ecx+16]
  0007f	69 c0 b8 00 00
	00		 imul	 eax, 184		; 000000b8H
  00085	89 74 10 08	 mov	 DWORD PTR [eax+edx+8], esi

; 565  : 			m_apItem[ m_apIndex[ dwDstIndex ] ].m_dwObjIndex = dwDstIndex;	// dwObjIndex apItem  apIndex index ?

  00089	8b 41 04	 mov	 eax, DWORD PTR [ecx+4]
  0008c	8b 14 98	 mov	 edx, DWORD PTR [eax+ebx*4]
  0008f	8b 41 10	 mov	 eax, DWORD PTR [ecx+16]
  00092	69 d2 b8 00 00
	00		 imul	 edx, 184		; 000000b8H
  00098	5d		 pop	 ebp
  00099	5f		 pop	 edi
  0009a	89 5c 02 08	 mov	 DWORD PTR [edx+eax+8], ebx
  0009e	5e		 pop	 esi

; 566  : 			return TRUE;

  0009f	b8 01 00 00 00	 mov	 eax, 1
  000a4	5b		 pop	 ebx

; 567  : 		}
; 568  : 	}
; 569  : 	return FALSE;
; 570  : }

  000a5	c2 08 00	 ret	 8
$L272654:
  000a8	5f		 pop	 edi
  000a9	5e		 pop	 esi

; 554  : 		return FALSE;

  000aa	33 c0		 xor	 eax, eax
  000ac	5b		 pop	 ebx

; 567  : 		}
; 568  : 	}
; 569  : 	return FALSE;
; 570  : }

  000ad	c2 08 00	 ret	 8
?DoEquip@?$CItemContainer@VCItemElem@@@@QAEHKK@Z ENDP	; CItemContainer<CItemElem>::DoEquip
_TEXT	ENDS
PUBLIC	?UnEquip@?$CItemContainer@VCItemElem@@@@QAEHK@Z	; CItemContainer<CItemElem>::UnEquip
; Function compile flags: /Ogty
;	COMDAT ?UnEquip@?$CItemContainer@VCItemElem@@@@QAEHK@Z
_TEXT	SEGMENT
_dwId$ = -4						; size = 4
_dwIndex$ = 8						; size = 4
?UnEquip@?$CItemContainer@VCItemElem@@@@QAEHK@Z PROC NEAR ; CItemContainer<CItemElem>::UnEquip, COMDAT
; _this$ = ecx

; 573  : { 

  00000	51		 push	 ecx

; 574  : 	dwIndex += m_dwIndexNum;

  00001	8b 44 24 08	 mov	 eax, DWORD PTR _dwIndex$[esp]
  00005	53		 push	 ebx

; 575  : 	if( dwIndex >= m_dwItemMax )

  00006	8b 59 0c	 mov	 ebx, DWORD PTR [ecx+12]
  00009	57		 push	 edi
  0000a	8b 79 08	 mov	 edi, DWORD PTR [ecx+8]
  0000d	03 c7		 add	 eax, edi
  0000f	3b c3		 cmp	 eax, ebx
  00011	89 44 24 10	 mov	 DWORD PTR _dwIndex$[esp+8], eax
  00015	72 08		 jb	 SHORT $L272666
  00017	5f		 pop	 edi

; 576  : 		return FALSE;

  00018	33 c0		 xor	 eax, eax
  0001a	5b		 pop	 ebx

; 598  : }

  0001b	59		 pop	 ecx
  0001c	c2 04 00	 ret	 4
$L272666:
  0001f	56		 push	 esi

; 577  : 
; 578  : 	DWORD dwId = m_apIndex[ dwIndex ];

  00020	8b 71 04	 mov	 esi, DWORD PTR [ecx+4]
  00023	8b 04 86	 mov	 eax, DWORD PTR [esi+eax*4]

; 579  : 
; 580  : 	if( dwId >= m_dwItemMax )

  00026	3b c3		 cmp	 eax, ebx
  00028	89 44 24 0c	 mov	 DWORD PTR _dwId$[esp+16], eax
  0002c	72 09		 jb	 SHORT $L272668
  0002e	5e		 pop	 esi
  0002f	5f		 pop	 edi

; 581  : 		return FALSE;

  00030	33 c0		 xor	 eax, eax
  00032	5b		 pop	 ebx

; 598  : }

  00033	59		 pop	 ecx
  00034	c2 04 00	 ret	 4
$L272668:

; 582  : 
; 583  : 	for( DWORD i = 0; i < m_dwIndexNum; i++ )

  00037	33 d2		 xor	 edx, edx
  00039	85 ff		 test	 edi, edi
  0003b	55		 push	 ebp
  0003c	76 20		 jbe	 SHORT $L272672
  0003e	8b ff		 npad	 2
$L272670:

; 584  : 	{
; 585  : 		if( m_apIndex[i] >= m_dwItemMax )

  00040	8b 06		 mov	 eax, DWORD PTR [esi]
  00042	3b c3		 cmp	 eax, ebx
  00044	73 10		 jae	 SHORT $L272671

; 586  : 			continue;
; 587  : 
; 588  : 		if( m_apItem[ m_apIndex[ i ] ].IsEmpty() )

  00046	8b 69 10	 mov	 ebp, DWORD PTR [ecx+16]
  00049	69 c0 b8 00 00
	00		 imul	 eax, 184		; 000000b8H
  0004f	83 7c 28 0c 00	 cmp	 DWORD PTR [eax+ebp+12], 0
  00054	74 12		 je	 SHORT $L275763
$L272671:

; 582  : 
; 583  : 	for( DWORD i = 0; i < m_dwIndexNum; i++ )

  00056	42		 inc	 edx
  00057	83 c6 04	 add	 esi, 4
  0005a	3b d7		 cmp	 edx, edi
  0005c	72 e2		 jb	 SHORT $L272670
$L272672:
  0005e	5d		 pop	 ebp
  0005f	5e		 pop	 esi
  00060	5f		 pop	 edi

; 595  : 		}
; 596  : 	}
; 597  : 	return FALSE;

  00061	33 c0		 xor	 eax, eax
  00063	5b		 pop	 ebx

; 598  : }

  00064	59		 pop	 ecx
  00065	c2 04 00	 ret	 4
$L275763:

; 589  : 		{
; 590  : 			m_apItem[ m_apIndex[ i ] ].m_dwObjIndex = NULL_ID;

  00068	8b 41 04	 mov	 eax, DWORD PTR [ecx+4]
  0006b	8b 04 90	 mov	 eax, DWORD PTR [eax+edx*4]
  0006e	8b 71 10	 mov	 esi, DWORD PTR [ecx+16]
  00071	69 c0 b8 00 00
	00		 imul	 eax, 184		; 000000b8H
  00077	c7 44 30 08 ff
	ff ff ff	 mov	 DWORD PTR [eax+esi+8], -1

; 591  : 			m_apIndex[ dwIndex ] = NULL_ID;

  0007f	8b 41 04	 mov	 eax, DWORD PTR [ecx+4]
  00082	8b 74 24 18	 mov	 esi, DWORD PTR _dwIndex$[esp+16]
  00086	c7 04 b0 ff ff
	ff ff		 mov	 DWORD PTR [eax+esi*4], -1

; 592  : 			m_apItem[ dwId ].m_dwObjIndex = i;

  0008d	8b 44 24 10	 mov	 eax, DWORD PTR _dwId$[esp+20]
  00091	8b 79 10	 mov	 edi, DWORD PTR [ecx+16]
  00094	8b f0		 mov	 esi, eax
  00096	69 f6 b8 00 00
	00		 imul	 esi, 184		; 000000b8H
  0009c	89 54 3e 08	 mov	 DWORD PTR [esi+edi+8], edx

; 593  : 			m_apIndex[ i ] = dwId;

  000a0	8b 49 04	 mov	 ecx, DWORD PTR [ecx+4]
  000a3	5d		 pop	 ebp
  000a4	5e		 pop	 esi
  000a5	5f		 pop	 edi
  000a6	89 04 91	 mov	 DWORD PTR [ecx+edx*4], eax

; 594  : 			return TRUE;

  000a9	b8 01 00 00 00	 mov	 eax, 1
  000ae	5b		 pop	 ebx

; 598  : }

  000af	59		 pop	 ecx
  000b0	c2 04 00	 ret	 4
?UnEquip@?$CItemContainer@VCItemElem@@@@QAEHK@Z ENDP	; CItemContainer<CItemElem>::UnEquip
_TEXT	ENDS
PUBLIC	??_C@_0BF@OJMCJNHH@GETEQUIP?1?1?$CFd?0?5?$CFd?0?5?$CFd?$AA@ ; `string'
PUBLIC	?GetEquip@?$CItemContainer@VCItemElem@@@@QAEPAVCItemElem@@K@Z ; CItemContainer<CItemElem>::GetEquip
;	COMDAT ??_C@_0BF@OJMCJNHH@GETEQUIP?1?1?$CFd?0?5?$CFd?0?5?$CFd?$AA@
CONST	SEGMENT
??_C@_0BF@OJMCJNHH@GETEQUIP?1?1?$CFd?0?5?$CFd?0?5?$CFd?$AA@ DB 'GETEQUIP/'
	DB	'/%d, %d, %d', 00H				; `string'
; Function compile flags: /Ogty
CONST	ENDS
;	COMDAT ?GetEquip@?$CItemContainer@VCItemElem@@@@QAEPAVCItemElem@@K@Z
_TEXT	SEGMENT
_dwIndex$ = 8						; size = 4
?GetEquip@?$CItemContainer@VCItemElem@@@@QAEPAVCItemElem@@K@Z PROC NEAR ; CItemContainer<CItemElem>::GetEquip, COMDAT
; _this$ = ecx

; 617  : {

  00000	56		 push	 esi

; 618  : 	if( m_dwIndexNum )

  00001	8b 71 08	 mov	 esi, DWORD PTR [ecx+8]
  00004	85 f6		 test	 esi, esi
  00006	74 32		 je	 SHORT $L272689

; 619  : 	{
; 620  : 		if( dwIndex < 0 || dwIndex >= ( m_dwItemMax - m_dwIndexNum ) )

  00008	8b 41 0c	 mov	 eax, DWORD PTR [ecx+12]
  0000b	8b 54 24 08	 mov	 edx, DWORD PTR _dwIndex$[esp]
  0000f	57		 push	 edi
  00010	8b f8		 mov	 edi, eax
  00012	2b fe		 sub	 edi, esi
  00014	3b d7		 cmp	 edx, edi
  00016	5f		 pop	 edi
  00017	73 0c		 jae	 SHORT $L272691

; 623  : 			return NULL;
; 624  : 		}
; 625  : 		return GetAt( m_dwIndexNum + dwIndex );

  00019	03 f2		 add	 esi, edx
  0001b	56		 push	 esi
  0001c	e8 00 00 00 00	 call	 ?GetAt@?$CItemContainer@VCItemElem@@@@QAEPAVCItemElem@@K@Z ; CItemContainer<CItemElem>::GetAt
  00021	5e		 pop	 esi

; 628  : }

  00022	c2 04 00	 ret	 4
$L272691:

; 621  : 		{
; 622  : 			WriteError( "GETEQUIP//%d, %d, %d", m_dwIndexNum, m_dwItemMax - m_dwIndexNum, dwIndex );

  00025	8b 49 08	 mov	 ecx, DWORD PTR [ecx+8]
  00028	52		 push	 edx
  00029	2b c1		 sub	 eax, ecx
  0002b	50		 push	 eax
  0002c	51		 push	 ecx
  0002d	68 00 00 00 00	 push	 OFFSET FLAT:??_C@_0BF@OJMCJNHH@GETEQUIP?1?1?$CFd?0?5?$CFd?0?5?$CFd?$AA@
  00032	e8 00 00 00 00	 call	 ?WriteError@@YAXPBDZZ	; WriteError
  00037	83 c4 10	 add	 esp, 16			; 00000010H
$L272689:

; 626  : 	}
; 627  : 	return NULL;

  0003a	33 c0		 xor	 eax, eax
  0003c	5e		 pop	 esi

; 628  : }

  0003d	c2 04 00	 ret	 4
?GetEquip@?$CItemContainer@VCItemElem@@@@QAEPAVCItemElem@@K@Z ENDP ; CItemContainer<CItemElem>::GetEquip
_TEXT	ENDS
PUBLIC	??_C@_0BI@BEIFNGEL@GetItemProp?5range_error?$AA@ ; `string'
PUBLIC	?GetItemProp@CProject@@QAEPAUItemProp@@H@Z	; CProject::GetItemProp
;	COMDAT ??_C@_0BI@BEIFNGEL@GetItemProp?5range_error?$AA@
; File c:\documents and settings\test\mes documents\source\virtuos_v17\build\program\_common\data.h
CONST	SEGMENT
??_C@_0BI@BEIFNGEL@GetItemProp?5range_error?$AA@ DB 'GetItemProp range_er'
	DB	'ror', 00H					; `string'
; Function compile flags: /Ogty
; File c:\documents and settings\test\mes documents\source\virtuos_v17\build\program\_common\project.h
CONST	ENDS
;	COMDAT ?GetItemProp@CProject@@QAEPAUItemProp@@H@Z
_TEXT	SEGMENT
_nIndex$ = 8						; size = 4
?GetItemProp@CProject@@QAEPAUItemProp@@H@Z PROC NEAR	; CProject::GetItemProp, COMDAT
; _this$ = ecx

; 1364 : 	VERIFY_RANGE_ASSERT( nIndex, 0, m_aPropItem.GetSize(), "GetItemProp range_error", NULL );

  00000	8b 44 24 04	 mov	 eax, DWORD PTR _nIndex$[esp-4]
  00004	85 c0		 test	 eax, eax
  00006	7c 1a		 jl	 SHORT $L197914
  00008	8b 91 5c 02 00
	00		 mov	 edx, DWORD PTR [ecx+604]
  0000e	3b c2		 cmp	 eax, edx
  00010	7d 10		 jge	 SHORT $L197914

; 1365 : 	return m_aPropItem.GetAt( nIndex ); 

  00012	3b c2		 cmp	 eax, edx
  00014	73 28		 jae	 SHORT $L275795
  00016	8b 89 4c 02 00
	00		 mov	 ecx, DWORD PTR [ecx+588]
  0001c	8b 04 81	 mov	 eax, DWORD PTR [ecx+eax*4]

; 1366 : }

  0001f	c2 04 00	 ret	 4
$L197914:

; 1364 : 	VERIFY_RANGE_ASSERT( nIndex, 0, m_aPropItem.GetSize(), "GetItemProp range_error", NULL );

  00022	8b 91 5c 02 00
	00		 mov	 edx, DWORD PTR [ecx+604]
  00028	50		 push	 eax
  00029	52		 push	 edx
  0002a	6a 00		 push	 0
  0002c	68 00 00 00 00	 push	 OFFSET FLAT:??_C@_0BI@BEIFNGEL@GetItemProp?5range_error?$AA@
  00031	68 00 00 00 00	 push	 OFFSET FLAT:??_C@_0BM@HMFGHCP@?$CFs?5min?3?$CFd?0?5max?3?$CFd?0?5index?3?$CFd?$AA@
  00036	e8 00 00 00 00	 call	 ?Error@@YAPBDPBDZZ	; Error
  0003b	83 c4 14	 add	 esp, 20			; 00000014H
$L275795:
  0003e	33 c0		 xor	 eax, eax

; 1366 : }

  00040	c2 04 00	 ret	 4
?GetItemProp@CProject@@QAEPAUItemProp@@H@Z ENDP		; CProject::GetItemProp
_TEXT	ENDS
PUBLIC	?GetPropA@CItemElem@@QAEPAUItemProp@@XZ		; CItemElem::GetPropA
; Function compile flags: /Ogty
; File c:\documents and settings\test\mes documents\source\virtuos_v17\build\program\_common\item.h
;	COMDAT ?GetPropA@CItemElem@@QAEPAUItemProp@@XZ
_TEXT	SEGMENT
?GetPropA@CItemElem@@QAEPAUItemProp@@XZ PROC NEAR	; CItemElem::GetPropA, COMDAT
; _this$ = ecx

; 229  : 	ItemProp*	GetProp()	{	return prj.GetItemProp( m_dwItemId );	}

  00000	8b 41 0c	 mov	 eax, DWORD PTR [ecx+12]
  00003	85 c0		 test	 eax, eax
  00005	8b 0d 5c 02 00
	00		 mov	 ecx, DWORD PTR ?prj@@3VCProject@@A+604
  0000b	7c 10		 jl	 SHORT $L275826
  0000d	3b c1		 cmp	 eax, ecx
  0000f	7d 0c		 jge	 SHORT $L275826
  00011	73 20		 jae	 SHORT $L275842
  00013	8b 0d 4c 02 00
	00		 mov	 ecx, DWORD PTR ?prj@@3VCProject@@A+588
  00019	8b 04 81	 mov	 eax, DWORD PTR [ecx+eax*4]
  0001c	c3		 ret	 0
$L275826:
  0001d	50		 push	 eax
  0001e	51		 push	 ecx
  0001f	6a 00		 push	 0
  00021	68 00 00 00 00	 push	 OFFSET FLAT:??_C@_0BI@BEIFNGEL@GetItemProp?5range_error?$AA@
  00026	68 00 00 00 00	 push	 OFFSET FLAT:??_C@_0BM@HMFGHCP@?$CFs?5min?3?$CFd?0?5max?3?$CFd?0?5index?3?$CFd?$AA@
  0002b	e8 00 00 00 00	 call	 ?Error@@YAPBDPBDZZ	; Error
  00030	83 c4 14	 add	 esp, 20			; 00000014H
$L275842:
  00033	33 c0		 xor	 eax, eax
  00035	c3		 ret	 0
?GetPropA@CItemElem@@QAEPAUItemProp@@XZ ENDP		; CItemElem::GetPropA
_TEXT	ENDS
PUBLIC	?GetFlightLv@CMover@@QAEJXZ			; CMover::GetFlightLv
; Function compile flags: /Ogty
; File c:\documents and settings\test\mes documents\source\virtuos_v17\build\program\_common\mover.h
;	COMDAT ?GetFlightLv@CMover@@QAEJXZ
_TEXT	SEGMENT
?GetFlightLv@CMover@@QAEJXZ PROC NEAR			; CMover::GetFlightLv, COMDAT
; _this$ = ecx

; 557  : 	LONG	GetFlightLv( void )	{	return ( GetLevel() >= 20? 1: 0 );		}

  00000	8b 91 e0 05 00
	00		 mov	 edx, DWORD PTR [ecx+1504]
  00006	33 c0		 xor	 eax, eax
  00008	83 fa 14	 cmp	 edx, 20			; 00000014H
  0000b	0f 9d c0	 setge	 al
  0000e	c3		 ret	 0
?GetFlightLv@CMover@@QAEJXZ ENDP			; CMover::GetFlightLv
_TEXT	ENDS
PUBLIC	??9const_iterator@?$_Tree@V?$_Tmap_traits@HU_CHAO_PROPENSITY@@U?$less@H@std@@V?$allocator@U?$pair@$$CBHU_CHAO_PROPENSITY@@@std@@@3@$0A@@std@@@std@@QBE_NABV012@@Z ; std::_Tree<std::_Tmap_traits<int,_CHAO_PROPENSITY,std::less<int>,std::allocator<std::pair<int const ,_CHAO_PROPENSITY> >,0> >::const_iterator::operator!=
; Function compile flags: /Ogty
; File c:\program files\microsoft visual studio .net 2003\vc7\include\xtree
;	COMDAT ??9const_iterator@?$_Tree@V?$_Tmap_traits@HU_CHAO_PROPENSITY@@U?$less@H@std@@V?$allocator@U?$pair@$$CBHU_CHAO_PROPENSITY@@@std@@@3@$0A@@std@@@std@@QBE_NABV012@@Z
_TEXT	SEGMENT
__Right$ = 8						; size = 4
??9const_iterator@?$_Tree@V?$_Tmap_traits@HU_CHAO_PROPENSITY@@U?$less@H@std@@V?$allocator@U?$pair@$$CBHU_CHAO_PROPENSITY@@@std@@@3@$0A@@std@@@std@@QBE_NABV012@@Z PROC NEAR ; std::_Tree<std::_Tmap_traits<int,_CHAO_PROPENSITY,std::less<int>,std::allocator<std::pair<int const ,_CHAO_PROPENSITY> >,0> >::const_iterator::operator!=, COMDAT
; _this$ = ecx

; 246  : 			return (!(*this == _Right));

  00000	8b 01		 mov	 eax, DWORD PTR [ecx]
  00002	8b 54 24 04	 mov	 edx, DWORD PTR __Right$[esp-4]
  00006	56		 push	 esi
  00007	8b 32		 mov	 esi, DWORD PTR [edx]
  00009	33 c9		 xor	 ecx, ecx
  0000b	3b c6		 cmp	 eax, esi
  0000d	0f 95 c1	 setne	 cl
  00010	8a c1		 mov	 al, cl
  00012	5e		 pop	 esi

; 247  : 			}

  00013	c2 04 00	 ret	 4
??9const_iterator@?$_Tree@V?$_Tmap_traits@HU_CHAO_PROPENSITY@@U?$less@H@std@@V?$allocator@U?$pair@$$CBHU_CHAO_PROPENSITY@@@std@@@3@$0A@@std@@@std@@QBE_NABV012@@Z ENDP ; std::_Tree<std::_Tmap_traits<int,_CHAO_PROPENSITY,std::less<int>,std::allocator<std::pair<int const ,_CHAO_PROPENSITY> >,0> >::const_iterator::operator!=
_TEXT	ENDS
PUBLIC	?_Key@?$_Tree@V?$_Tmap_traits@HU_CHAO_PROPENSITY@@U?$less@H@std@@V?$allocator@U?$pair@$$CBHU_CHAO_PROPENSITY@@@std@@@3@$0A@@std@@@std@@KAABHPAU_Node@?$_Tree_nod@V?$_Tmap_traits@HU_CHAO_PROPENSITY@@U?$less@H@std@@V?$allocator@U?$pair@$$CBHU_CHAO_PROPENSITY@@@std@@@3@$0A@@std@@@2@@Z ; std::_Tree<std::_Tmap_traits<int,_CHAO_PROPENSITY,std::less<int>,std::allocator<std::pair<int const ,_CHAO_PROPENSITY> >,0> >::_Key
; Function compile flags: /Ogty
;	COMDAT ?_Key@?$_Tree@V?$_Tmap_traits@HU_CHAO_PROPENSITY@@U?$less@H@std@@V?$allocator@U?$pair@$$CBHU_CHAO_PROPENSITY@@@std@@@3@$0A@@std@@@std@@KAABHPAU_Node@?$_Tree_nod@V?$_Tmap_traits@HU_CHAO_PROPENSITY@@U?$less@H@std@@V?$allocator@U?$pair@$$CBHU_CHAO_PROPENSITY@@@std@@@3@$0A@@std@@@2@@Z
_TEXT	SEGMENT
__Pnode$ = 8						; size = 4
?_Key@?$_Tree@V?$_Tmap_traits@HU_CHAO_PROPENSITY@@U?$less@H@std@@V?$allocator@U?$pair@$$CBHU_CHAO_PROPENSITY@@@std@@@3@$0A@@std@@@std@@KAABHPAU_Node@?$_Tree_nod@V?$_Tmap_traits@HU_CHAO_PROPENSITY@@U?$less@H@std@@V?$allocator@U?$pair@$$CBHU_CHAO_PROPENSITY@@@std@@@3@$0A@@std@@@2@@Z PROC NEAR ; std::_Tree<std::_Tmap_traits<int,_CHAO_PROPENSITY,std::less<int>,std::allocator<std::pair<int const ,_CHAO_PROPENSITY> >,0> >::_Key, COMDAT

; 142  : 		return (_Mybase::_Kfn(_Myval(_Pnode)));

  00000	8b 44 24 04	 mov	 eax, DWORD PTR __Pnode$[esp-4]
  00004	83 c0 0c	 add	 eax, 12			; 0000000cH

; 143  : 		}

  00007	c3		 ret	 0
?_Key@?$_Tree@V?$_Tmap_traits@HU_CHAO_PROPENSITY@@U?$less@H@std@@V?$allocator@U?$pair@$$CBHU_CHAO_PROPENSITY@@@std@@@3@$0A@@std@@@std@@KAABHPAU_Node@?$_Tree_nod@V?$_Tmap_traits@HU_CHAO_PROPENSITY@@U?$less@H@std@@V?$allocator@U?$pair@$$CBHU_CHAO_PROPENSITY@@@std@@@3@$0A@@std@@@2@@Z ENDP ; std::_Tree<std::_Tmap_traits<int,_CHAO_PROPENSITY,std::less<int>,std::allocator<std::pair<int const ,_CHAO_PROPENSITY> >,0> >::_Key
_TEXT	ENDS
PUBLIC	?_Lmost@?$_Tree@V?$_Tmap_traits@HU_CHAO_PROPENSITY@@U?$less@H@std@@V?$allocator@U?$pair@$$CBHU_CHAO_PROPENSITY@@@std@@@3@$0A@@std@@@std@@IAEAAPAU_Node@?$_Tree_nod@V?$_Tmap_traits@HU_CHAO_PROPENSITY@@U?$less@H@std@@V?$allocator@U?$pair@$$CBHU_CHAO_PROPENSITY@@@std@@@3@$0A@@std@@@2@XZ ; std::_Tree<std::_Tmap_traits<int,_CHAO_PROPENSITY,std::less<int>,std::allocator<std::pair<int const ,_CHAO_PROPENSITY> >,0> >::_Lmost
; Function compile flags: /Ogty
;	COMDAT ?_Lmost@?$_Tree@V?$_Tmap_traits@HU_CHAO_PROPENSITY@@U?$less@H@std@@V?$allocator@U?$pair@$$CBHU_CHAO_PROPENSITY@@@std@@@3@$0A@@std@@@std@@IAEAAPAU_Node@?$_Tree_nod@V?$_Tmap_traits@HU_CHAO_PROPENSITY@@U?$less@H@std@@V?$allocator@U?$pair@$$CBHU_CHAO_PROPENSITY@@@std@@@3@$0A@@std@@@2@XZ
_TEXT	SEGMENT
?_Lmost@?$_Tree@V?$_Tmap_traits@HU_CHAO_PROPENSITY@@U?$less@H@std@@V?$allocator@U?$pair@$$CBHU_CHAO_PROPENSITY@@@std@@@3@$0A@@std@@@std@@IAEAAPAU_Node@?$_Tree_nod@V?$_Tmap_traits@HU_CHAO_PROPENSITY@@U?$less@H@std@@V?$allocator@U?$pair@$$CBHU_CHAO_PROPENSITY@@@std@@@3@$0A@@std@@@2@XZ PROC NEAR ; std::_Tree<std::_Tmap_traits<int,_CHAO_PROPENSITY,std::less<int>,std::allocator<std::pair<int const ,_CHAO_PROPENSITY> >,0> >::_Lmost, COMDAT
; _this$ = ecx

; 1005 : 		return (_Left(_Myhead));

  00000	8b 41 04	 mov	 eax, DWORD PTR [ecx+4]

; 1006 : 		}

  00003	c3		 ret	 0
?_Lmost@?$_Tree@V?$_Tmap_traits@HU_CHAO_PROPENSITY@@U?$less@H@std@@V?$allocator@U?$pair@$$CBHU_CHAO_PROPENSITY@@@std@@@3@$0A@@std@@@std@@IAEAAPAU_Node@?$_Tree_nod@V?$_Tmap_traits@HU_CHAO_PROPENSITY@@U?$less@H@std@@V?$allocator@U?$pair@$$CBHU_CHAO_PROPENSITY@@@std@@@3@$0A@@std@@@2@XZ ENDP ; std::_Tree<std::_Tmap_traits<int,_CHAO_PROPENSITY,std::less<int>,std::allocator<std::pair<int const ,_CHAO_PROPENSITY> >,0> >::_Lmost
_TEXT	ENDS
PUBLIC	??0iterator@?$_Tree@V?$_Tmap_traits@HU_CHAO_PROPENSITY@@U?$less@H@std@@V?$allocator@U?$pair@$$CBHU_CHAO_PROPENSITY@@@std@@@3@$0A@@std@@@std@@QAE@PAU_Node@?$_Tree_nod@V?$_Tmap_traits@HU_CHAO_PROPENSITY@@U?$less@H@std@@V?$allocator@U?$pair@$$CBHU_CHAO_PROPENSITY@@@std@@@3@$0A@@std@@@2@@Z ; std::_Tree<std::_Tmap_traits<int,_CHAO_PROPENSITY,std::less<int>,std::allocator<std::pair<int const ,_CHAO_PROPENSITY> >,0> >::iterator::iterator
; Function compile flags: /Ogty
;	COMDAT ??0iterator@?$_Tree@V?$_Tmap_traits@HU_CHAO_PROPENSITY@@U?$less@H@std@@V?$allocator@U?$pair@$$CBHU_CHAO_PROPENSITY@@@std@@@3@$0A@@std@@@std@@QAE@PAU_Node@?$_Tree_nod@V?$_Tmap_traits@HU_CHAO_PROPENSITY@@U?$less@H@std@@V?$allocator@U?$pair@$$CBHU_CHAO_PROPENSITY@@@std@@@3@$0A@@std@@@2@@Z
_TEXT	SEGMENT
__Pnode$ = 8						; size = 4
??0iterator@?$_Tree@V?$_Tmap_traits@HU_CHAO_PROPENSITY@@U?$less@H@std@@V?$allocator@U?$pair@$$CBHU_CHAO_PROPENSITY@@@std@@@3@$0A@@std@@@std@@QAE@PAU_Node@?$_Tree_nod@V?$_Tmap_traits@HU_CHAO_PROPENSITY@@U?$less@H@std@@V?$allocator@U?$pair@$$CBHU_CHAO_PROPENSITY@@@std@@@3@$0A@@std@@@2@@Z PROC NEAR ; std::_Tree<std::_Tmap_traits<int,_CHAO_PROPENSITY,std::less<int>,std::allocator<std::pair<int const ,_CHAO_PROPENSITY> >,0> >::iterator::iterator, COMDAT
; _this$ = ecx

; 312  : 			{	// construct with node pointer _Pnode

  00000	8b c1		 mov	 eax, ecx
  00002	8b 4c 24 04	 mov	 ecx, DWORD PTR __Pnode$[esp-4]
  00006	89 08		 mov	 DWORD PTR [eax], ecx

; 313  : 			}

  00008	c2 04 00	 ret	 4
??0iterator@?$_Tree@V?$_Tmap_traits@HU_CHAO_PROPENSITY@@U?$less@H@std@@V?$allocator@U?$pair@$$CBHU_CHAO_PROPENSITY@@@std@@@3@$0A@@std@@@std@@QAE@PAU_Node@?$_Tree_nod@V?$_Tmap_traits@HU_CHAO_PROPENSITY@@U?$less@H@std@@V?$allocator@U?$pair@$$CBHU_CHAO_PROPENSITY@@@std@@@3@$0A@@std@@@2@@Z ENDP ; std::_Tree<std::_Tmap_traits<int,_CHAO_PROPENSITY,std::less<int>,std::allocator<std::pair<int const ,_CHAO_PROPENSITY> >,0> >::iterator::iterator
_TEXT	ENDS
PUBLIC	??Diterator@?$_Tree@V?$_Tmap_traits@HU_CHAO_PROPENSITY@@U?$less@H@std@@V?$allocator@U?$pair@$$CBHU_CHAO_PROPENSITY@@@std@@@3@$0A@@std@@@std@@QBEAAU?$pair@$$CBHU_CHAO_PROPENSITY@@@2@XZ ; std::_Tree<std::_Tmap_traits<int,_CHAO_PROPENSITY,std::less<int>,std::allocator<std::pair<int const ,_CHAO_PROPENSITY> >,0> >::iterator::operator*
; Function compile flags: /Ogty
;	COMDAT ??Diterator@?$_Tree@V?$_Tmap_traits@HU_CHAO_PROPENSITY@@U?$less@H@std@@V?$allocator@U?$pair@$$CBHU_CHAO_PROPENSITY@@@std@@@3@$0A@@std@@@std@@QBEAAU?$pair@$$CBHU_CHAO_PROPENSITY@@@2@XZ
_TEXT	SEGMENT
??Diterator@?$_Tree@V?$_Tmap_traits@HU_CHAO_PROPENSITY@@U?$less@H@std@@V?$allocator@U?$pair@$$CBHU_CHAO_PROPENSITY@@@std@@@3@$0A@@std@@@std@@QBEAAU?$pair@$$CBHU_CHAO_PROPENSITY@@@2@XZ PROC NEAR ; std::_Tree<std::_Tmap_traits<int,_CHAO_PROPENSITY,std::less<int>,std::allocator<std::pair<int const ,_CHAO_PROPENSITY> >,0> >::iterator::operator*, COMDAT
; _this$ = ecx

; 317  : 			return ((reference)**(const_iterator *)this);

  00000	8b 01		 mov	 eax, DWORD PTR [ecx]
  00002	83 c0 0c	 add	 eax, 12			; 0000000cH

; 318  : 			}

  00005	c3		 ret	 0
??Diterator@?$_Tree@V?$_Tmap_traits@HU_CHAO_PROPENSITY@@U?$less@H@std@@V?$allocator@U?$pair@$$CBHU_CHAO_PROPENSITY@@@std@@@3@$0A@@std@@@std@@QBEAAU?$pair@$$CBHU_CHAO_PROPENSITY@@@2@XZ ENDP ; std::_Tree<std::_Tmap_traits<int,_CHAO_PROPENSITY,std::less<int>,std::allocator<std::pair<int const ,_CHAO_PROPENSITY> >,0> >::iterator::operator*
_TEXT	ENDS
PUBLIC	?_Lbound@?$_Tree@V?$_Tmap_traits@HU_CHAO_PROPENSITY@@U?$less@H@std@@V?$allocator@U?$pair@$$CBHU_CHAO_PROPENSITY@@@std@@@3@$0A@@std@@@std@@IBEPAU_Node@?$_Tree_nod@V?$_Tmap_traits@HU_CHAO_PROPENSITY@@U?$less@H@std@@V?$allocator@U?$pair@$$CBHU_CHAO_PROPENSITY@@@std@@@3@$0A@@std@@@2@ABH@Z ; std::_Tree<std::_Tmap_traits<int,_CHAO_PROPENSITY,std::less<int>,std::allocator<std::pair<int const ,_CHAO_PROPENSITY> >,0> >::_Lbound
; Function compile flags: /Ogty
;	COMDAT ?_Lbound@?$_Tree@V?$_Tmap_traits@HU_CHAO_PROPENSITY@@U?$less@H@std@@V?$allocator@U?$pair@$$CBHU_CHAO_PROPENSITY@@@std@@@3@$0A@@std@@@std@@IBEPAU_Node@?$_Tree_nod@V?$_Tmap_traits@HU_CHAO_PROPENSITY@@U?$less@H@std@@V?$allocator@U?$pair@$$CBHU_CHAO_PROPENSITY@@@std@@@3@$0A@@std@@@2@ABH@Z
_TEXT	SEGMENT
__Keyval$ = 8						; size = 4
?_Lbound@?$_Tree@V?$_Tmap_traits@HU_CHAO_PROPENSITY@@U?$less@H@std@@V?$allocator@U?$pair@$$CBHU_CHAO_PROPENSITY@@@std@@@3@$0A@@std@@@std@@IBEPAU_Node@?$_Tree_nod@V?$_Tmap_traits@HU_CHAO_PROPENSITY@@U?$less@H@std@@V?$allocator@U?$pair@$$CBHU_CHAO_PROPENSITY@@@std@@@3@$0A@@std@@@2@ABH@Z PROC NEAR ; std::_Tree<std::_Tmap_traits<int,_CHAO_PROPENSITY,std::less<int>,std::allocator<std::pair<int const ,_CHAO_PROPENSITY> >,0> >::_Lbound, COMDAT
; _this$ = ecx

; 988  : 		_Nodeptr _Pnode = _Root();

  00000	8b 41 04	 mov	 eax, DWORD PTR [ecx+4]
  00003	8b 48 04	 mov	 ecx, DWORD PTR [eax+4]

; 989  : 		_Nodeptr _Wherenode = _Myhead;	// end() if search fails
; 990  : 
; 991  : 		while (!_Isnil(_Pnode))

  00006	8a 51 3d	 mov	 dl, BYTE PTR [ecx+61]
  00009	84 d2		 test	 dl, dl
  0000b	75 1d		 jne	 SHORT $L222295
  0000d	8b 54 24 04	 mov	 edx, DWORD PTR __Keyval$[esp-4]
  00011	8b 12		 mov	 edx, DWORD PTR [edx]
  00013	53		 push	 ebx
$L222294:

; 992  : 			if (this->comp(_Key(_Pnode), _Keyval))

  00014	39 51 0c	 cmp	 DWORD PTR [ecx+12], edx
  00017	7d 05		 jge	 SHORT $L222296

; 993  : 				_Pnode = _Right(_Pnode);	// descend right subtree

  00019	8b 49 08	 mov	 ecx, DWORD PTR [ecx+8]

; 994  : 			else

  0001c	eb 04		 jmp	 SHORT $L222297
$L222296:

; 995  : 				{	// _Pnode not less than _Keyval, remember it
; 996  : 				_Wherenode = _Pnode;

  0001e	8b c1		 mov	 eax, ecx

; 997  : 				_Pnode = _Left(_Pnode);	// descend left subtree

  00020	8b 09		 mov	 ecx, DWORD PTR [ecx]
$L222297:
  00022	8a 59 3d	 mov	 bl, BYTE PTR [ecx+61]
  00025	84 db		 test	 bl, bl
  00027	74 eb		 je	 SHORT $L222294
  00029	5b		 pop	 ebx
$L222295:

; 998  : 				}
; 999  : 
; 1000 : 		return (_Wherenode);	// return best remembered candidate
; 1001 : 		}

  0002a	c2 04 00	 ret	 4
?_Lbound@?$_Tree@V?$_Tmap_traits@HU_CHAO_PROPENSITY@@U?$less@H@std@@V?$allocator@U?$pair@$$CBHU_CHAO_PROPENSITY@@@std@@@3@$0A@@std@@@std@@IBEPAU_Node@?$_Tree_nod@V?$_Tmap_traits@HU_CHAO_PROPENSITY@@U?$less@H@std@@V?$allocator@U?$pair@$$CBHU_CHAO_PROPENSITY@@@std@@@3@$0A@@std@@@2@ABH@Z ENDP ; std::_Tree<std::_Tmap_traits<int,_CHAO_PROPENSITY,std::less<int>,std::allocator<std::pair<int const ,_CHAO_PROPENSITY> >,0> >::_Lbound
_TEXT	ENDS
PUBLIC	?_Inc@const_iterator@?$_Tree@V?$_Tmap_traits@HU_CHAO_PROPENSITY@@U?$less@H@std@@V?$allocator@U?$pair@$$CBHU_CHAO_PROPENSITY@@@std@@@3@$0A@@std@@@std@@QAEXXZ ; std::_Tree<std::_Tmap_traits<int,_CHAO_PROPENSITY,std::less<int>,std::allocator<std::pair<int const ,_CHAO_PROPENSITY> >,0> >::const_iterator::_Inc
; Function compile flags: /Ogty
;	COMDAT ?_Inc@const_iterator@?$_Tree@V?$_Tmap_traits@HU_CHAO_PROPENSITY@@U?$less@H@std@@V?$allocator@U?$pair@$$CBHU_CHAO_PROPENSITY@@@std@@@3@$0A@@std@@@std@@QAEXXZ
_TEXT	SEGMENT
?_Inc@const_iterator@?$_Tree@V?$_Tmap_traits@HU_CHAO_PROPENSITY@@U?$less@H@std@@V?$allocator@U?$pair@$$CBHU_CHAO_PROPENSITY@@@std@@@3@$0A@@std@@@std@@QAEXXZ PROC NEAR ; std::_Tree<std::_Tmap_traits<int,_CHAO_PROPENSITY,std::less<int>,std::allocator<std::pair<int const ,_CHAO_PROPENSITY> >,0> >::const_iterator::_Inc, COMDAT
; _this$ = ecx

; 268  : 			if (_Isnil(_Ptr))

  00000	8b 01		 mov	 eax, DWORD PTR [ecx]
  00002	8a 50 3d	 mov	 dl, BYTE PTR [eax+61]
  00005	84 d2		 test	 dl, dl
  00007	75 4d		 jne	 SHORT $L223488

; 269  : 				;	// end() shouldn't be incremented, don't move
; 270  : 			else if (!_Isnil(_Right(_Ptr)))

  00009	8b 50 08	 mov	 edx, DWORD PTR [eax+8]
  0000c	53		 push	 ebx
  0000d	8a 5a 3d	 mov	 bl, BYTE PTR [edx+61]
  00010	84 db		 test	 bl, bl
  00012	75 1b		 jne	 SHORT $L275973

; 271  : 				_Ptr = _Min(_Right(_Ptr));	// ==> smallest of right subtree

  00014	8b 02		 mov	 eax, DWORD PTR [edx]
  00016	8a 58 3d	 mov	 bl, BYTE PTR [eax+61]
  00019	84 db		 test	 bl, bl
  0001b	75 0e		 jne	 SHORT $L275961
  0001d	8d 49 00	 npad	 3
$L275960:
  00020	8b d0		 mov	 edx, eax
  00022	8b 02		 mov	 eax, DWORD PTR [edx]
  00024	8a 58 3d	 mov	 bl, BYTE PTR [eax+61]
  00027	84 db		 test	 bl, bl
  00029	74 f5		 je	 SHORT $L275960
$L275961:
  0002b	89 11		 mov	 DWORD PTR [ecx], edx
  0002d	5b		 pop	 ebx

; 279  : 				}
; 280  : 			}

  0002e	c3		 ret	 0
$L275973:

; 272  : 			else
; 273  : 				{	// climb looking for right subtree
; 274  : 				_Nodeptr _Pnode;
; 275  : 				while (!_Isnil(_Pnode = _Parent(_Ptr))
; 276  : 					&& _Ptr == _Right(_Pnode))

  0002f	8b 40 04	 mov	 eax, DWORD PTR [eax+4]
  00032	8a 50 3d	 mov	 dl, BYTE PTR [eax+61]
  00035	84 d2		 test	 dl, dl
  00037	75 1a		 jne	 SHORT $L223492
  00039	8d a4 24 00 00
	00 00		 npad	 7
$L223491:
  00040	8b 11		 mov	 edx, DWORD PTR [ecx]
  00042	3b 50 08	 cmp	 edx, DWORD PTR [eax+8]
  00045	75 0c		 jne	 SHORT $L223492

; 277  : 					_Ptr = _Pnode;	// ==> parent while right subtree

  00047	89 01		 mov	 DWORD PTR [ecx], eax
  00049	8b 40 04	 mov	 eax, DWORD PTR [eax+4]
  0004c	8a 50 3d	 mov	 dl, BYTE PTR [eax+61]
  0004f	84 d2		 test	 dl, dl
  00051	74 ed		 je	 SHORT $L223491
$L223492:

; 278  : 				_Ptr = _Pnode;	// ==> parent (head if end())

  00053	89 01		 mov	 DWORD PTR [ecx], eax
  00055	5b		 pop	 ebx
$L223488:

; 279  : 				}
; 280  : 			}

  00056	c3		 ret	 0
?_Inc@const_iterator@?$_Tree@V?$_Tmap_traits@HU_CHAO_PROPENSITY@@U?$less@H@std@@V?$allocator@U?$pair@$$CBHU_CHAO_PROPENSITY@@@std@@@3@$0A@@std@@@std@@QAEXXZ ENDP ; std::_Tree<std::_Tmap_traits<int,_CHAO_PROPENSITY,std::less<int>,std::allocator<std::pair<int const ,_CHAO_PROPENSITY> >,0> >::const_iterator::_Inc
_TEXT	ENDS
PUBLIC	?GetInventoryProp@@YAPAUItemProp@@PAU_EQUIP_INFO@@PAV?$CItemContainer@VCItemElem@@@@H@Z ; GetInventoryProp
; Function compile flags: /Ogty
; File c:\documents and settings\test\mes documents\source\virtuos_v17\build\program\_common\moverequip.cpp
;	COMDAT ?GetInventoryProp@@YAPAUItemProp@@PAU_EQUIP_INFO@@PAV?$CItemContainer@VCItemElem@@@@H@Z
_TEXT	SEGMENT
_pEquipInfo$ = 8					; size = 4
_pInventory$ = 12					; size = 4
_nParts$ = 16						; size = 4
?GetInventoryProp@@YAPAUItemProp@@PAU_EQUIP_INFO@@PAV?$CItemContainer@VCItemElem@@@@H@Z PROC NEAR ; GetInventoryProp, COMDAT

; 269  : 	CItemElem* pItemElem = NULL;
; 270  : 	ItemProp* pItemProp = NULL;
; 271  : 
; 272  : 	if( pInventory == NULL ) // fake only

  00000	8b 4c 24 08	 mov	 ecx, DWORD PTR _pInventory$[esp-4]
  00004	57		 push	 edi
  00005	33 ff		 xor	 edi, edi
  00007	85 c9		 test	 ecx, ecx
  00009	75 24		 jne	 SHORT $L268703

; 273  : 	{
; 274  : 		if( pEquipInfo[nParts].dwId != NULL_ID ) 

  0000b	8b 44 24 10	 mov	 eax, DWORD PTR _nParts$[esp]
  0000f	8b 4c 24 08	 mov	 ecx, DWORD PTR _pEquipInfo$[esp]
  00013	8d 04 40	 lea	 eax, DWORD PTR [eax+eax*2]
  00016	8b 04 81	 mov	 eax, DWORD PTR [ecx+eax*4]
  00019	83 f8 ff	 cmp	 eax, -1
  0001c	0f 84 88 00 00
	00		 je	 $L276053

; 275  : 			pItemProp = prj.GetItemProp( pEquipInfo[nParts].dwId );

  00022	50		 push	 eax
  00023	b9 00 00 00 00	 mov	 ecx, OFFSET FLAT:?prj@@3VCProject@@A
  00028	e8 00 00 00 00	 call	 ?GetItemProp@CProject@@QAEPAUItemProp@@H@Z ; CProject::GetItemProp
  0002d	5f		 pop	 edi

; 285  : }

  0002e	c3		 ret	 0
$L268703:

; 276  : 	}
; 277  : 	else
; 278  : 	{
; 279  : 		pItemElem = pInventory->GetEquip( nParts );

  0002f	8b 51 08	 mov	 edx, DWORD PTR [ecx+8]
  00032	85 d2		 test	 edx, edx
  00034	74 74		 je	 SHORT $L276053
  00036	8b 41 0c	 mov	 eax, DWORD PTR [ecx+12]
  00039	53		 push	 ebx
  0003a	8b d8		 mov	 ebx, eax
  0003c	56		 push	 esi
  0003d	8b 74 24 18	 mov	 esi, DWORD PTR _nParts$[esp+8]
  00041	2b da		 sub	 ebx, edx
  00043	3b f3		 cmp	 esi, ebx
  00045	73 2c		 jae	 SHORT $L275984
  00047	03 d6		 add	 edx, esi
  00049	52		 push	 edx
  0004a	e8 00 00 00 00	 call	 ?GetAt@?$CItemContainer@VCItemElem@@@@QAEPAVCItemElem@@K@Z ; CItemContainer<CItemElem>::GetAt

; 280  : 		if( pItemElem )

  0004f	85 c0		 test	 eax, eax
  00051	74 35		 je	 SHORT $L276051

; 281  : 			pItemProp = pItemElem->GetProp();

  00053	8b 40 0c	 mov	 eax, DWORD PTR [eax+12]
  00056	85 c0		 test	 eax, eax
  00058	8b 0d 5c 02 00
	00		 mov	 ecx, DWORD PTR ?prj@@3VCProject@@A+604
  0005e	7c 2e		 jl	 SHORT $L276036
  00060	3b c1		 cmp	 eax, ecx
  00062	7d 2a		 jge	 SHORT $L276036
  00064	73 3e		 jae	 SHORT $L276055
  00066	8b 15 4c 02 00
	00		 mov	 edx, DWORD PTR ?prj@@3VCProject@@A+588
  0006c	8b 04 82	 mov	 eax, DWORD PTR [edx+eax*4]
  0006f	5e		 pop	 esi
  00070	5b		 pop	 ebx
  00071	5f		 pop	 edi

; 285  : }

  00072	c3		 ret	 0

; 276  : 	}
; 277  : 	else
; 278  : 	{
; 279  : 		pItemElem = pInventory->GetEquip( nParts );

$L275984:
  00073	8b 49 08	 mov	 ecx, DWORD PTR [ecx+8]
  00076	56		 push	 esi
  00077	2b c1		 sub	 eax, ecx
  00079	50		 push	 eax
  0007a	51		 push	 ecx
  0007b	68 00 00 00 00	 push	 OFFSET FLAT:??_C@_0BF@OJMCJNHH@GETEQUIP?1?1?$CFd?0?5?$CFd?0?5?$CFd?$AA@
  00080	e8 00 00 00 00	 call	 ?WriteError@@YAXPBDZZ	; WriteError
  00085	83 c4 10	 add	 esp, 16			; 00000010H
$L276051:
  00088	5e		 pop	 esi
  00089	5b		 pop	 ebx

; 282  : 	}
; 283  : 
; 284  : 	return pItemProp;

  0008a	8b c7		 mov	 eax, edi
  0008c	5f		 pop	 edi

; 285  : }

  0008d	c3		 ret	 0

; 281  : 			pItemProp = pItemElem->GetProp();

$L276036:
  0008e	50		 push	 eax
  0008f	51		 push	 ecx
  00090	6a 00		 push	 0
  00092	68 00 00 00 00	 push	 OFFSET FLAT:??_C@_0BI@BEIFNGEL@GetItemProp?5range_error?$AA@
  00097	68 00 00 00 00	 push	 OFFSET FLAT:??_C@_0BM@HMFGHCP@?$CFs?5min?3?$CFd?0?5max?3?$CFd?0?5index?3?$CFd?$AA@
  0009c	e8 00 00 00 00	 call	 ?Error@@YAPBDPBDZZ	; Error
  000a1	83 c4 14	 add	 esp, 20			; 00000014H
$L276055:
  000a4	5e		 pop	 esi
  000a5	5b		 pop	 ebx
  000a6	33 c0		 xor	 eax, eax
  000a8	5f		 pop	 edi

; 285  : }

  000a9	c3		 ret	 0
$L276053:

; 282  : 	}
; 283  : 
; 284  : 	return pItemProp;

  000aa	8b c7		 mov	 eax, edi
  000ac	5f		 pop	 edi

; 285  : }

  000ad	c3		 ret	 0
?GetInventoryProp@@YAPAUItemProp@@PAU_EQUIP_INFO@@PAV?$CItemContainer@VCItemElem@@@@H@Z ENDP ; GetInventoryProp
_TEXT	ENDS
PUBLIC	?UpdateParts@CMover@@SAXHHHHHPAU_EQUIP_INFO@@PAVCModelObject@@PAV?$CItemContainer@VCItemElem@@@@HPAV1@@Z ; CMover::UpdateParts
PUBLIC	??_C@_0CF@DJOHAJCE@CMover?3?3UpdateParts?5?3?5pModel?5is?5@ ; `string'
PUBLIC	??_C@_04FPLDHIIH@part?$AA@			; `string'
PUBLIC	??_C@_0BD@FANBKNEH@Part_maleUpper?4o3d?$AA@	; `string'
PUBLIC	??_C@_0BF@FAOACOCN@Part_femaleUpper?4o3d?$AA@	; `string'
PUBLIC	??_C@_0BD@PCNGIDNM@Part_maleLower?4o3d?$AA@	; `string'
PUBLIC	??_C@_0BF@PCOHAALG@Part_femaleLower?4o3d?$AA@	; `string'
PUBLIC	??_C@_0BC@MBDHHPEB@Part_maleHand?4o3d?$AA@	; `string'
PUBLIC	??_C@_0BE@PALEBFEB@Part_femaleHand?4o3d?$AA@	; `string'
PUBLIC	??_C@_0BC@LJNOLPMO@Part_maleFoot?4o3d?$AA@	; `string'
PUBLIC	??_C@_0BE@IIFNNFMO@Part_femaleFoot?4o3d?$AA@	; `string'
EXTRN	?IsDisguise@CMover@@QAEHXZ:NEAR			; CMover::IsDisguise
EXTRN	?TakeOffParts@CModelObject@@QAEXH@Z:NEAR	; CModelObject::TakeOffParts
EXTRN	?SetParent@CModelObject@@QAEXHH@Z:NEAR		; CModelObject::SetParent
EXTRN	?MakeModelName@CModelMng@@QAEXPADKK@Z:NEAR	; CModelMng::MakeModelName
EXTRN	?MakePartsName@CModelMng@@QAEXPADPBDKH@Z:NEAR	; CModelMng::MakePartsName
;	COMDAT ??_C@_0CF@DJOHAJCE@CMover?3?3UpdateParts?5?3?5pModel?5is?5@
; File c:\documents and settings\test\mes documents\source\virtuos_v17\build\program\_common\modelobject.h
CONST	SEGMENT
??_C@_0CF@DJOHAJCE@CMover?3?3UpdateParts?5?3?5pModel?5is?5@ DB 'CMover::U'
	DB	'pdateParts : pModel is NULL', 00H		; `string'
CONST	ENDS
;	COMDAT ??_C@_04FPLDHIIH@part?$AA@
CONST	SEGMENT
??_C@_04FPLDHIIH@part?$AA@ DB 'part', 00H		; `string'
CONST	ENDS
;	COMDAT ??_C@_0BD@FANBKNEH@Part_maleUpper?4o3d?$AA@
CONST	SEGMENT
??_C@_0BD@FANBKNEH@Part_maleUpper?4o3d?$AA@ DB 'Part_maleUpper.o3d', 00H ; `string'
CONST	ENDS
;	COMDAT ??_C@_0BF@FAOACOCN@Part_femaleUpper?4o3d?$AA@
CONST	SEGMENT
??_C@_0BF@FAOACOCN@Part_femaleUpper?4o3d?$AA@ DB 'Part_femaleUpper.o3d', 00H ; `string'
CONST	ENDS
;	COMDAT ??_C@_0BD@PCNGIDNM@Part_maleLower?4o3d?$AA@
CONST	SEGMENT
??_C@_0BD@PCNGIDNM@Part_maleLower?4o3d?$AA@ DB 'Part_maleLower.o3d', 00H ; `string'
CONST	ENDS
;	COMDAT ??_C@_0BF@PCOHAALG@Part_femaleLower?4o3d?$AA@
CONST	SEGMENT
??_C@_0BF@PCOHAALG@Part_femaleLower?4o3d?$AA@ DB 'Part_femaleLower.o3d', 00H ; `string'
CONST	ENDS
;	COMDAT ??_C@_0BC@MBDHHPEB@Part_maleHand?4o3d?$AA@
CONST	SEGMENT
??_C@_0BC@MBDHHPEB@Part_maleHand?4o3d?$AA@ DB 'Part_maleHand.o3d', 00H ; `string'
CONST	ENDS
;	COMDAT ??_C@_0BE@PALEBFEB@Part_femaleHand?4o3d?$AA@
CONST	SEGMENT
??_C@_0BE@PALEBFEB@Part_femaleHand?4o3d?$AA@ DB 'Part_femaleHand.o3d', 00H ; `string'
CONST	ENDS
;	COMDAT ??_C@_0BC@LJNOLPMO@Part_maleFoot?4o3d?$AA@
CONST	SEGMENT
??_C@_0BC@LJNOLPMO@Part_maleFoot?4o3d?$AA@ DB 'Part_maleFoot.o3d', 00H ; `string'
CONST	ENDS
;	COMDAT ??_C@_0BE@IIFNNFMO@Part_femaleFoot?4o3d?$AA@
CONST	SEGMENT
??_C@_0BE@IIFNNFMO@Part_femaleFoot?4o3d?$AA@ DB 'Part_femaleFoot.o3d', 00H ; `string'
; Function compile flags: /Ogty
; File c:\documents and settings\test\mes documents\source\virtuos_v17\build\program\_common\moverequip.cpp
CONST	ENDS
;	COMDAT ?UpdateParts@CMover@@SAXHHHHHPAU_EQUIP_INFO@@PAVCModelObject@@PAV?$CItemContainer@VCItemElem@@@@HPAV1@@Z
_TEXT	SEGMENT
$T276258 = -240						; size = 4
_i$268726 = -236					; size = 4
$T276259 = -232						; size = 4
$T276256 = -228						; size = 4
_abExclusiveParts$ = -224				; size = 124
_szPartsName$268756 = -100				; size = 32
_lpszTemp$ = -68					; size = 64
__$ArrayPad$ = -4					; size = 4
__$ReturnAddr$ = 4					; size = 4
_nSex$ = 8						; size = 4
_nSkinSet$ = 12						; size = 4
_nFace$ = 16						; size = 4
_nHairMesh$ = 20					; size = 4
_nHeadMesh$ = 24					; size = 4
_pEquipInfo$ = 28					; size = 4
_pModel$ = 32						; size = 4
_pInventory$ = 36					; size = 4
_bIfParts$ = 40						; size = 4
_pMover$ = 44						; size = 4
?UpdateParts@CMover@@SAXHHHHHPAU_EQUIP_INFO@@PAVCModelObject@@PAV?$CItemContainer@VCItemElem@@@@HPAV1@@Z PROC NEAR ; CMover::UpdateParts, COMDAT

; 288  : {

  00000	81 ec f0 00 00
	00		 sub	 esp, 240		; 000000f0H
  00006	a1 00 00 00 00	 mov	 eax, DWORD PTR ___security_cookie
  0000b	8b 8c 24 10 01
	00 00		 mov	 ecx, DWORD PTR _pInventory$[esp+236]
  00012	8b 94 24 18 01
	00 00		 mov	 edx, DWORD PTR _pMover$[esp+236]
  00019	33 c4		 xor	 eax, esp
  0001b	55		 push	 ebp
  0001c	8b ac 24 10 01
	00 00		 mov	 ebp, DWORD PTR _pModel$[esp+240]

; 289  : 	if( pModel == NULL )

  00023	85 ed		 test	 ebp, ebp
  00025	89 84 24 f0 00
	00 00		 mov	 DWORD PTR __$ArrayPad$[esp+244], eax
  0002c	8b 84 24 0c 01
	00 00		 mov	 eax, DWORD PTR _pEquipInfo$[esp+240]

; 311  : 	for( int i = 0; i < MAX_HUMAN_PARTS; i++ )

  00033	89 44 24 10	 mov	 DWORD PTR $T276256[esp+244], eax
  00037	89 4c 24 04	 mov	 DWORD PTR $T276258[esp+244], ecx
  0003b	89 54 24 0c	 mov	 DWORD PTR $T276259[esp+244], edx
  0003f	75 23		 jne	 SHORT $L268719
  00041	68 00 00 00 00	 push	 OFFSET FLAT:??_C@_0CF@DJOHAJCE@CMover?3?3UpdateParts?5?3?5pModel?5is?5@
  00046	e8 00 00 00 00	 call	 ?Error@@YAPBDPBDZZ	; Error
  0004b	83 c4 04	 add	 esp, 4
  0004e	5d		 pop	 ebp

; 459  : 				}
; 460  : 
; 461  : 			}
; 462  : 		}
; 463  : 	}
; 464  : } 

  0004f	8b 8c 24 ec 00
	00 00		 mov	 ecx, DWORD PTR __$ArrayPad$[esp+240]
  00056	33 cc		 xor	 ecx, esp
  00058	e8 00 00 00 00	 call	 @__security_check_cookie@4
  0005d	81 c4 f0 00 00
	00		 add	 esp, 240		; 000000f0H
  00063	c3		 ret	 0
$L268719:

; 290  : 	{
; 291  : 		LPCTSTR szErr = Error( "CMover::UpdateParts : pModel is NULL" );
; 292  : 		ADDERRORMSG( szErr );
; 293  : 		return;
; 294  : 	}
; 295  : 	//  (, , ) .
; 296  : 	//LPSKINSET lpSkinset = prj.m_PartsMng.GetSkinSet( nSex, nSkinSet );
; 297  : 	//LPCTSTR lpHair = prj.m_PartsMng.GetHairMeshName( nSex, nHairMesh );
; 298  : 	TCHAR lpszTemp[ 64 ];
; 299  : 	if( bIfParts )

  00064	8b 84 24 18 01
	00 00		 mov	 eax, DWORD PTR _bIfParts$[esp+240]
  0006b	85 c0		 test	 eax, eax
  0006d	53		 push	 ebx
  0006e	56		 push	 esi
  0006f	8b b4 24 00 01
	00 00		 mov	 esi, DWORD PTR _nSex$[esp+248]
  00076	57		 push	 edi
  00077	74 72		 je	 SHORT $L268724

; 300  : 	{
; 301  : 		// Hair
; 302  : 		_stprintf( lpszTemp, PARTSMESH_HAIR( nSex ), nHairMesh + 1 );

  00079	85 f6		 test	 esi, esi
  0007b	b8 00 00 00 00	 mov	 eax, OFFSET FLAT:??_C@_0BG@JBMGFBFC@Part_maleHair?$CF02d?4o3d?$AA@
  00080	74 05		 je	 SHORT $L276061
  00082	b8 00 00 00 00	 mov	 eax, OFFSET FLAT:??_C@_0BI@JFPGNEBG@Part_femaleHair?$CF02d?4o3d?$AA@
$L276061:
  00087	8b 8c 24 10 01
	00 00		 mov	 ecx, DWORD PTR _nHairMesh$[esp+252]
  0008e	41		 inc	 ecx
  0008f	51		 push	 ecx
  00090	50		 push	 eax
  00091	8d 94 24 c4 00
	00 00		 lea	 edx, DWORD PTR _lpszTemp$[esp+264]
  00098	52		 push	 edx
  00099	e8 00 00 00 00	 call	 _sprintf
  0009e	83 c4 0c	 add	 esp, 12			; 0000000cH

; 303  : 		pModel->LoadElement( lpszTemp, PARTS_HAIR );

  000a1	6a 01		 push	 1
  000a3	8d 84 24 c0 00
	00 00		 lea	 eax, DWORD PTR _lpszTemp$[esp+260]
  000aa	50		 push	 eax
  000ab	8b cd		 mov	 ecx, ebp
  000ad	e8 00 00 00 00	 call	 ?LoadElement@CModelObject@@QAEHPBDH@Z ; CModelObject::LoadElement

; 304  : 		// Head
; 305  : 		_stprintf( lpszTemp, PARTSMESH_HEAD( nSex ), nHeadMesh + 1 );

  000b2	85 f6		 test	 esi, esi
  000b4	b8 00 00 00 00	 mov	 eax, OFFSET FLAT:??_C@_0BG@CLDHKMH@Part_maleHead?$CF02d?4o3d?$AA@
  000b9	74 05		 je	 SHORT $L276063
  000bb	b8 00 00 00 00	 mov	 eax, OFFSET FLAT:??_C@_0BI@GIDPPID@Part_femaleHead?$CF02d?4o3d?$AA@
$L276063:
  000c0	8b 8c 24 14 01
	00 00		 mov	 ecx, DWORD PTR _nHeadMesh$[esp+252]
  000c7	41		 inc	 ecx
  000c8	51		 push	 ecx
  000c9	50		 push	 eax
  000ca	8d 94 24 c4 00
	00 00		 lea	 edx, DWORD PTR _lpszTemp$[esp+264]
  000d1	52		 push	 edx
  000d2	e8 00 00 00 00	 call	 _sprintf
  000d7	83 c4 0c	 add	 esp, 12			; 0000000cH

; 306  : 		pModel->LoadElement( lpszTemp, PARTS_HEAD );

  000da	6a 00		 push	 0
  000dc	8d 84 24 c0 00
	00 00		 lea	 eax, DWORD PTR _lpszTemp$[esp+260]
  000e3	50		 push	 eax
  000e4	8b cd		 mov	 ecx, ebp
  000e6	e8 00 00 00 00	 call	 ?LoadElement@CModelObject@@QAEHPBDH@Z ; CModelObject::LoadElement
$L268724:

; 307  : 	}
; 308  : 	//    TakeOff.
; 309  : 	BOOL abExclusiveParts[ MAX_HUMAN_PARTS ];
; 310  : 	ZeroMemory( abExclusiveParts, sizeof( abExclusiveParts ) );

  000eb	8b 5c 24 1c	 mov	 ebx, DWORD PTR $T276256[esp+256]
  000ef	33 c0		 xor	 eax, eax
  000f1	b9 1f 00 00 00	 mov	 ecx, 31			; 0000001fH
  000f6	8d 7c 24 20	 lea	 edi, DWORD PTR _abExclusiveParts$[esp+256]

; 311  : 	for( int i = 0; i < MAX_HUMAN_PARTS; i++ )

  000fa	33 f6		 xor	 esi, esi
  000fc	f3 ab		 rep stosd
  000fe	83 c3 08	 add	 ebx, 8
$L276268:

; 312  : 	{
; 313  : 		if( i == PARTS_HAIR || i == PARTS_HEAD  )//|| i == PARTS_CAP || i == PARTS_HAND || i == PARTS_FOOT )

  00101	83 fe 01	 cmp	 esi, 1
  00104	0f 84 89 00 00
	00		 je	 $L268728
  0010a	85 f6		 test	 esi, esi
  0010c	0f 84 81 00 00
	00		 je	 $L268728

; 314  : 			continue;
; 315  : 		DWORD dwParts = -1;
; 316  : 		CItemElem* pItemElem = NULL;
; 317  : 		ItemProp* pItemProp = NULL;
; 318  : 		//  
; 319  : 		pItemProp = GetInventoryProp( pEquipInfo, pInventory, i );

  00112	8b 4c 24 10	 mov	 ecx, DWORD PTR $T276258[esp+256]
  00116	8b 54 24 1c	 mov	 edx, DWORD PTR $T276256[esp+256]
  0011a	56		 push	 esi
  0011b	51		 push	 ecx
  0011c	52		 push	 edx
  0011d	e8 00 00 00 00	 call	 ?GetInventoryProp@@YAPAUItemProp@@PAU_EQUIP_INFO@@PAV?$CItemContainer@VCItemElem@@@@H@Z ; GetInventoryProp
  00122	8b f8		 mov	 edi, eax
  00124	83 c4 0c	 add	 esp, 12			; 0000000cH

; 320  : 		if( pItemProp )

  00127	85 ff		 test	 edi, edi
  00129	74 68		 je	 SHORT $L268728

; 321  : 		{
; 322  : 			if( pInventory )

  0012b	8b 4c 24 10	 mov	 ecx, DWORD PTR $T276258[esp+256]
  0012f	85 c9		 test	 ecx, ecx
  00131	74 3a		 je	 SHORT $L268736

; 323  : 			{
; 324  : 				CItemElem* pItemElem	= pInventory->GetAt( i + pInventory->GetSize() );

  00133	8b 41 08	 mov	 eax, DWORD PTR [ecx+8]
  00136	8b 51 04	 mov	 edx, DWORD PTR [ecx+4]
  00139	03 c6		 add	 eax, esi
  0013b	8b 04 82	 mov	 eax, DWORD PTR [edx+eax*4]
  0013e	83 f8 ff	 cmp	 eax, -1
  00141	75 0b		 jne	 SHORT $L276082
  00143	33 c0		 xor	 eax, eax

; 325  : 				if( pItemElem->IsFlag( CItemElem::expired ) )

  00145	f6 80 82 00 00
	00 01		 test	 BYTE PTR [eax+130], 1

; 326  : 					pItemProp	= NULL;
; 327  : 			}
; 328  : 			else

  0014c	eb 22		 jmp	 SHORT $L276274

; 323  : 			{
; 324  : 				CItemElem* pItemElem	= pInventory->GetAt( i + pInventory->GetSize() );

$L276082:
  0014e	8b 51 10	 mov	 edx, DWORD PTR [ecx+16]
  00151	69 c0 b8 00 00
	00		 imul	 eax, 184		; 000000b8H
  00157	03 c2		 add	 eax, edx
  00159	8b c8		 mov	 ecx, eax
  0015b	8b 41 0c	 mov	 eax, DWORD PTR [ecx+12]
  0015e	f7 d8		 neg	 eax
  00160	1b c0		 sbb	 eax, eax
  00162	23 c1		 and	 eax, ecx

; 325  : 				if( pItemElem->IsFlag( CItemElem::expired ) )

  00164	f6 80 82 00 00
	00 01		 test	 BYTE PTR [eax+130], 1

; 326  : 					pItemProp	= NULL;
; 327  : 			}
; 328  : 			else

  0016b	eb 03		 jmp	 SHORT $L276274
$L268736:

; 329  : 			{
; 330  : 				if( pEquipInfo[i].byFlag & CItemElem::expired )

  0016d	f6 03 01	 test	 BYTE PTR [ebx], 1
$L276274:

; 331  : 					pItemProp	= NULL;
; 332  : 			}
; 333  : 		}
; 334  : 
; 335  : 		//  
; 336  : 		if( pItemProp && pItemProp->dwExclusive != NULL_ID )

  00170	75 21		 jne	 SHORT $L268728
  00172	8b 87 b4 00 00
	00		 mov	 eax, DWORD PTR [edi+180]
  00178	83 f8 ff	 cmp	 eax, -1
  0017b	74 16		 je	 SHORT $L268728

; 337  : 		{
; 338  : 			pModel->TakeOffParts( pItemProp->dwExclusive );	//  

  0017d	50		 push	 eax
  0017e	8b cd		 mov	 ecx, ebp
  00180	e8 00 00 00 00	 call	 ?TakeOffParts@CModelObject@@QAEXH@Z ; CModelObject::TakeOffParts

; 339  : 			abExclusiveParts[ pItemProp->dwExclusive ] = TRUE;		//   .

  00185	8b 87 b4 00 00
	00		 mov	 eax, DWORD PTR [edi+180]
  0018b	c7 44 84 20 01
	00 00 00	 mov	 DWORD PTR _abExclusiveParts$[esp+eax*4+256], 1
$L268728:
  00193	46		 inc	 esi
  00194	83 c3 0c	 add	 ebx, 12			; 0000000cH
  00197	83 fe 1f	 cmp	 esi, 31			; 0000001fH
  0019a	0f 8c 61 ff ff
	ff		 jl	 $L276268

; 340  : 		}
; 341  : 	}
; 342  : 	//  .
; 343  : 	for( i = 0; i < MAX_HUMAN_PARTS; i++ )

  001a0	8b 5c 24 1c	 mov	 ebx, DWORD PTR $T276256[esp+256]
  001a4	33 ff		 xor	 edi, edi
  001a6	89 7c 24 14	 mov	 DWORD PTR _i$268726[esp+256], edi
  001aa	8d 9b 00 00 00
	00		 npad	 6
$L276269:

; 344  : 	{
; 345  : 		if( i == PARTS_HAIR || i == PARTS_HEAD  )//|| i == PARTS_CAP || i == PARTS_HAND || i == PARTS_FOOT )

  001b0	83 ff 01	 cmp	 edi, 1
  001b3	0f 84 ce 03 00
	00		 je	 $L268743
  001b9	85 ff		 test	 edi, edi
  001bb	0f 84 c6 03 00
	00		 je	 $L268743

; 346  : 			continue;
; 347  : 		DWORD dwParts = -1;
; 348  : 		CItemElem* pItemElem = NULL;
; 349  : 		ItemProp* pItemProp = NULL;
; 350  : 		if( pInventory == NULL ) // fake only

  001c1	8b 44 24 10	 mov	 eax, DWORD PTR $T276258[esp+256]
  001c5	33 f6		 xor	 esi, esi
  001c7	85 c0		 test	 eax, eax
  001c9	75 4f		 jne	 SHORT $L268750

; 351  : 		{
; 352  : 			if( pEquipInfo[i].dwId != NULL_ID ) 

  001cb	8b 03		 mov	 eax, DWORD PTR [ebx]
  001cd	83 f8 ff	 cmp	 eax, -1
  001d0	0f 84 71 01 00
	00		 je	 $L276267

; 353  : 			{
; 354  : 				if( ( pEquipInfo[i].byFlag & CItemElem::expired ) != CItemElem::expired )

  001d6	f6 43 08 01	 test	 BYTE PTR [ebx+8], 1
  001da	0f 85 67 01 00
	00		 jne	 $L276267

; 355  : 					pItemProp	= prj.GetItemProp( pEquipInfo[i].dwId );

  001e0	85 c0		 test	 eax, eax
  001e2	8b 0d 5c 02 00
	00		 mov	 ecx, DWORD PTR ?prj@@3VCProject@@A+604
  001e8	7c 13		 jl	 SHORT $L276118
  001ea	3b c1		 cmp	 eax, ecx
  001ec	7d 0f		 jge	 SHORT $L276118
  001ee	0f 82 b6 00 00
	00		 jb	 $L276225
  001f4	33 c0		 xor	 eax, eax

; 364  : 					pItemProp = pItemElem->GetProp();

  001f6	8b f0		 mov	 esi, eax
  001f8	e9 d8 00 00 00	 jmp	 $L268755

; 355  : 					pItemProp	= prj.GetItemProp( pEquipInfo[i].dwId );

$L276118:
  001fd	50		 push	 eax
  001fe	51		 push	 ecx
  001ff	6a 00		 push	 0
  00201	68 00 00 00 00	 push	 OFFSET FLAT:??_C@_0BI@BEIFNGEL@GetItemProp?5range_error?$AA@
  00206	68 00 00 00 00	 push	 OFFSET FLAT:??_C@_0BM@HMFGHCP@?$CFs?5min?3?$CFd?0?5max?3?$CFd?0?5index?3?$CFd?$AA@
  0020b	e8 00 00 00 00	 call	 ?Error@@YAPBDPBDZZ	; Error
  00210	83 c4 14	 add	 esp, 20			; 00000014H
  00213	33 f6		 xor	 esi, esi

; 356  : 			}
; 357  : 		}
; 358  : 		else

  00215	e9 2d 01 00 00	 jmp	 $L276267
$L268750:

; 359  : 		{
; 360  : 			pItemElem = pInventory->GetEquip( i );//AtId( padwEquipment[ i ] );

  0021a	8b 48 08	 mov	 ecx, DWORD PTR [eax+8]
  0021d	85 c9		 test	 ecx, ecx
  0021f	0f 84 22 01 00
	00		 je	 $L276267
  00225	8b 54 24 10	 mov	 edx, DWORD PTR $T276258[esp+256]
  00229	8b 42 0c	 mov	 eax, DWORD PTR [edx+12]
  0022c	8b f8		 mov	 edi, eax
  0022e	2b f9		 sub	 edi, ecx
  00230	39 7c 24 14	 cmp	 DWORD PTR _i$268726[esp+256], edi
  00234	8b 7c 24 14	 mov	 edi, DWORD PTR _i$268726[esp+256]
  00238	73 52		 jae	 SHORT $L276150
  0023a	8b 52 04	 mov	 edx, DWORD PTR [edx+4]
  0023d	03 cf		 add	 ecx, edi
  0023f	8b 04 8a	 mov	 eax, DWORD PTR [edx+ecx*4]
  00242	83 f8 ff	 cmp	 eax, -1
  00245	0f 84 fc 00 00
	00		 je	 $L276267
  0024b	8b 4c 24 10	 mov	 ecx, DWORD PTR $T276258[esp+256]
  0024f	69 c0 b8 00 00
	00		 imul	 eax, 184		; 000000b8H
  00255	8b 51 10	 mov	 edx, DWORD PTR [ecx+16]
  00258	8b 4c 10 0c	 mov	 ecx, DWORD PTR [eax+edx+12]
  0025c	03 c2		 add	 eax, edx
  0025e	85 c9		 test	 ecx, ecx
  00260	0f 84 e1 00 00
	00		 je	 $L276267

; 361  : 			if( pItemElem )
; 362  : 			{
; 363  : 				if( !pItemElem->IsFlag( CItemElem::expired ) )

  00266	f6 80 82 00 00
	00 01		 test	 BYTE PTR [eax+130], 1
  0026d	0f 85 d4 00 00
	00		 jne	 $L276267

; 364  : 					pItemProp = pItemElem->GetProp();

  00273	8b 40 0c	 mov	 eax, DWORD PTR [eax+12]
  00276	85 c0		 test	 eax, eax
  00278	7c 3d		 jl	 SHORT $L276270
  0027a	8b 0d 5c 02 00
	00		 mov	 ecx, DWORD PTR ?prj@@3VCProject@@A+604
  00280	3b c1		 cmp	 eax, ecx
  00282	7d 33		 jge	 SHORT $L276270
  00284	72 24		 jb	 SHORT $L276225
  00286	33 c0		 xor	 eax, eax
  00288	8b f0		 mov	 esi, eax
  0028a	eb 49		 jmp	 SHORT $L268755

; 359  : 		{
; 360  : 			pItemElem = pInventory->GetEquip( i );//AtId( padwEquipment[ i ] );

$L276150:
  0028c	8b 54 24 10	 mov	 edx, DWORD PTR $T276258[esp+256]
  00290	8b 4a 08	 mov	 ecx, DWORD PTR [edx+8]
  00293	57		 push	 edi
  00294	2b c1		 sub	 eax, ecx
  00296	50		 push	 eax
  00297	51		 push	 ecx
  00298	68 00 00 00 00	 push	 OFFSET FLAT:??_C@_0BF@OJMCJNHH@GETEQUIP?1?1?$CFd?0?5?$CFd?0?5?$CFd?$AA@
  0029d	e8 00 00 00 00	 call	 ?WriteError@@YAXPBDZZ	; WriteError
  002a2	83 c4 10	 add	 esp, 16			; 00000010H
  002a5	e9 9d 00 00 00	 jmp	 $L276267

; 364  : 					pItemProp = pItemElem->GetProp();

$L276225:
  002aa	8b 0d 4c 02 00
	00		 mov	 ecx, DWORD PTR ?prj@@3VCProject@@A+588
  002b0	8b 04 81	 mov	 eax, DWORD PTR [ecx+eax*4]
  002b3	8b f0		 mov	 esi, eax
  002b5	eb 1e		 jmp	 SHORT $L268755
$L276270:
  002b7	8b 15 5c 02 00
	00		 mov	 edx, DWORD PTR ?prj@@3VCProject@@A+604
  002bd	50		 push	 eax
  002be	52		 push	 edx
  002bf	6a 00		 push	 0
  002c1	68 00 00 00 00	 push	 OFFSET FLAT:??_C@_0BI@BEIFNGEL@GetItemProp?5range_error?$AA@
  002c6	68 00 00 00 00	 push	 OFFSET FLAT:??_C@_0BM@HMFGHCP@?$CFs?5min?3?$CFd?0?5max?3?$CFd?0?5index?3?$CFd?$AA@
  002cb	e8 00 00 00 00	 call	 ?Error@@YAPBDPBDZZ	; Error
  002d0	83 c4 14	 add	 esp, 20			; 00000014H
  002d3	33 f6		 xor	 esi, esi
$L268755:

; 365  : 			}
; 366  : 		}
; 367  : 		TCHAR szPartsName[ 32 ];
; 368  : 
; 369  : 		//   o3d .
; 370  : 		if( pItemProp )

  002d5	85 f6		 test	 esi, esi
  002d7	74 6e		 je	 SHORT $L276267

; 371  : 		{
; 372  : 			if( pItemProp->bPartsFile == TRUE )

  002d9	83 be b0 00 00
	00 01		 cmp	 DWORD PTR [esi+176], 1
  002e0	75 24		 jne	 SHORT $L268758

; 373  : 				prj.m_modelMng.MakePartsName( szPartsName, _T( "part" ), pItemProp->dwID, nSex );

  002e2	8b 84 24 04 01
	00 00		 mov	 eax, DWORD PTR _nSex$[esp+252]
  002e9	8b 0e		 mov	 ecx, DWORD PTR [esi]
  002eb	50		 push	 eax
  002ec	51		 push	 ecx
  002ed	68 00 00 00 00	 push	 OFFSET FLAT:??_C@_04FPLDHIIH@part?$AA@
  002f2	8d 94 24 a8 00
	00 00		 lea	 edx, DWORD PTR _szPartsName$268756[esp+268]
  002f9	52		 push	 edx
  002fa	b9 80 00 00 00	 mov	 ecx, OFFSET FLAT:?prj@@3VCProject@@A+128
  002ff	e8 00 00 00 00	 call	 ?MakePartsName@CModelMng@@QAEXPADPBDKH@Z ; CModelMng::MakePartsName

; 374  : 			else

  00304	eb 17		 jmp	 SHORT $L268760
$L268758:

; 375  : 				prj.m_modelMng.MakeModelName( szPartsName, OT_ITEM, pItemProp->dwID );

  00306	8b 06		 mov	 eax, DWORD PTR [esi]
  00308	50		 push	 eax
  00309	6a 04		 push	 4
  0030b	8d 8c 24 a4 00
	00 00		 lea	 ecx, DWORD PTR _szPartsName$268756[esp+264]
  00312	51		 push	 ecx
  00313	b9 80 00 00 00	 mov	 ecx, OFFSET FLAT:?prj@@3VCProject@@A+128
  00318	e8 00 00 00 00	 call	 ?MakeModelName@CModelMng@@QAEXPADKK@Z ; CModelMng::MakeModelName
$L268760:

; 376  : 			//prj.m_modelMng.MakePartsName( szPartsName, _T( "item" ), pItemProp->dwID );
; 377  : 			if( bIfParts || ( i == PARTS_RWEAPON || i == PARTS_LWEAPON || i == PARTS_SHIELD ) )

  0031d	8b 84 24 24 01
	00 00		 mov	 eax, DWORD PTR _bIfParts$[esp+252]
  00324	85 c0		 test	 eax, eax
  00326	75 0f		 jne	 SHORT $L268763
  00328	83 ff 0a	 cmp	 edi, 10			; 0000000aH
  0032b	74 0a		 je	 SHORT $L268763
  0032d	83 ff 09	 cmp	 edi, 9
  00330	74 05		 je	 SHORT $L268763
  00332	83 ff 0b	 cmp	 edi, 11			; 0000000bH
  00335	75 10		 jne	 SHORT $L276267
$L268763:

; 378  : 			{
; 379  : 				pModel->LoadElement( szPartsName, i /*pItemProp->dwParts*/ );

  00337	57		 push	 edi
  00338	8d 94 24 a0 00
	00 00		 lea	 edx, DWORD PTR _szPartsName$268756[esp+260]
  0033f	52		 push	 edx
  00340	8b cd		 mov	 ecx, ebp
  00342	e8 00 00 00 00	 call	 ?LoadElement@CModelObject@@QAEHPBDH@Z ; CModelObject::LoadElement
$L276267:

; 380  : 			}
; 381  : 		}
; 382  : 
; 383  : 
; 384  : 		if( abExclusiveParts[ i ] == FALSE )

  00347	8b 44 bc 20	 mov	 eax, DWORD PTR _abExclusiveParts$[esp+edi*4+256]
  0034b	85 c0		 test	 eax, eax
  0034d	0f 85 34 02 00
	00		 jne	 $L268743

; 385  : 		{
; 386  : 			switch( i )

  00353	8d 47 fe	 lea	 eax, DWORD PTR [edi-2]
  00356	83 f8 09	 cmp	 eax, 9
  00359	0f 87 11 02 00
	00		 ja	 $L268823
  0035f	8d 4f fe	 lea	 ecx, DWORD PTR [edi-2]
  00362	ff 24 8d 00 00
	00 00		 jmp	 DWORD PTR $L276275[ecx*4]
$L268769:

; 387  : 			{
; 388  : 			case PARTS_RWEAPON: 
; 389  : 				//        (  .   )
; 390  : 				if( pItemProp && ( pMover == NULL || ( pMover && pMover->IsDisguise() == FALSE ) ) )

  00369	85 f6		 test	 esi, esi
  0036b	0f 84 0e 02 00
	00		 je	 $L268770
  00371	8b 4c 24 18	 mov	 ecx, DWORD PTR $T276259[esp+256]
  00375	85 c9		 test	 ecx, ecx
  00377	74 0d		 je	 SHORT $L268771
  00379	e8 00 00 00 00	 call	 ?IsDisguise@CMover@@QAEHXZ ; CMover::IsDisguise
  0037e	85 c0		 test	 eax, eax
  00380	0f 85 f9 01 00
	00		 jne	 $L268770
$L268771:

; 391  : 				{
; 392  : 					switch( pItemProp->dwItemKind3 )

  00386	8b 76 78	 mov	 esi, DWORD PTR [esi+120]
  00389	83 ee 05	 sub	 esi, 5
  0038c	0f 84 80 00 00
	00		 je	 $L268776
  00392	83 ee 06	 sub	 esi, 6
  00395	74 39		 je	 SHORT $L268782
  00397	4e		 dec	 esi
  00398	74 1b		 je	 SHORT $L268779

; 406  : 
; 407  : 					default:
; 408  : 						((CModelObject*)pModel)->SetParent( PARTS_RWEAPON, ((CModelObject*)pModel)->GetRHandIdx() );

  0039a	8b 95 84 2a 00
	00		 mov	 edx, DWORD PTR [ebp+10884]
  003a0	8b 82 50 01 00
	00		 mov	 eax, DWORD PTR [edx+336]
  003a6	50		 push	 eax
  003a7	6a 0a		 push	 10			; 0000000aH
  003a9	8b cd		 mov	 ecx, ebp
  003ab	e8 00 00 00 00	 call	 ?SetParent@CModelObject@@QAEXHH@Z ; CModelObject::SetParent
  003b0	e9 d2 01 00 00	 jmp	 $L268743
$L268779:

; 396  : 						break;
; 397  : 
; 398  : 					case IK3_BOW:
; 399  : 						((CModelObject*)pModel)->SetParent( PARTS_RWEAPON, ((CModelObject*)pModel)->GetLHandIdx() );

  003b5	8b 8d 84 2a 00
	00		 mov	 ecx, DWORD PTR [ebp+10884]
  003bb	8b 91 54 01 00
	00		 mov	 edx, DWORD PTR [ecx+340]
  003c1	52		 push	 edx
  003c2	6a 0a		 push	 10			; 0000000aH
  003c4	8b cd		 mov	 ecx, ebp
  003c6	e8 00 00 00 00	 call	 ?SetParent@CModelObject@@QAEXHH@Z ; CModelObject::SetParent

; 400  : 						break;

  003cb	e9 b7 01 00 00	 jmp	 $L268743
$L268782:

; 401  : 					case IK3_YOYO:
; 402  : 						((CModelObject*)pModel)->SetParent( PARTS_RWEAPON, ((CModelObject*)pModel)->GetRHandIdx() );

  003d0	8b 85 84 2a 00
	00		 mov	 eax, DWORD PTR [ebp+10884]
  003d6	8b 88 50 01 00
	00		 mov	 ecx, DWORD PTR [eax+336]
  003dc	51		 push	 ecx
  003dd	6a 0a		 push	 10			; 0000000aH
  003df	8b cd		 mov	 ecx, ebp
  003e1	e8 00 00 00 00	 call	 ?SetParent@CModelObject@@QAEXHH@Z ; CModelObject::SetParent

; 403  : 						pModel->LoadElement( szPartsName, PARTS_LWEAPON );

  003e6	6a 09		 push	 9
  003e8	8d 94 24 a0 00
	00 00		 lea	 edx, DWORD PTR _szPartsName$268756[esp+260]
  003ef	52		 push	 edx
  003f0	8b cd		 mov	 ecx, ebp
  003f2	e8 00 00 00 00	 call	 ?LoadElement@CModelObject@@QAEHPBDH@Z ; CModelObject::LoadElement

; 404  : 						((CModelObject*)pModel)->SetParent( PARTS_LWEAPON, ((CModelObject*)pModel)->GetLHandIdx() );

  003f7	8b 85 84 2a 00
	00		 mov	 eax, DWORD PTR [ebp+10884]
  003fd	8b 88 54 01 00
	00		 mov	 ecx, DWORD PTR [eax+340]
  00403	51		 push	 ecx
  00404	6a 09		 push	 9
  00406	8b cd		 mov	 ecx, ebp
  00408	e8 00 00 00 00	 call	 ?SetParent@CModelObject@@QAEXHH@Z ; CModelObject::SetParent

; 405  : 						break;

  0040d	e9 75 01 00 00	 jmp	 $L268743
$L268776:

; 393  : 					{
; 394  : 					case IK3_KNUCKLEHAMMER:
; 395  : 						((CModelObject*)pModel)->SetParent( PARTS_RWEAPON, ((CModelObject*)pModel)->GetRArmIdx() );

  00412	8b 95 84 2a 00
	00		 mov	 edx, DWORD PTR [ebp+10884]
  00418	8b 82 58 01 00
	00		 mov	 eax, DWORD PTR [edx+344]
  0041e	50		 push	 eax
  0041f	6a 0a		 push	 10			; 0000000aH
  00421	8b cd		 mov	 ecx, ebp
  00423	e8 00 00 00 00	 call	 ?SetParent@CModelObject@@QAEXHH@Z ; CModelObject::SetParent

; 409  : 					}
; 410  : //					if( pItemProp->dwItemKind3 == IK3_KNUCKLEHAMMER )
; 411  : //						((CModelObject*)pModel)->SetParent( PARTS_RWEAPON, ((CModelObject*)pModel)->GetRArmIdx() );
; 412  : //					else
; 413  : //						((CModelObject*)pModel)->SetParent( PARTS_RWEAPON, ((CModelObject*)pModel)->GetRHandIdx() );
; 414  : 				}
; 415  : 				else 

  00428	e9 5a 01 00 00	 jmp	 $L268743
$L268791:

; 416  : 					pModel->TakeOffParts( i );
; 417  : 				break;
; 418  : 			case PARTS_LWEAPON: 
; 419  : 				//        (  .   )
; 420  : 				if( pItemProp && ( pMover == NULL || ( pMover && pMover->IsDisguise() == FALSE ) ) )

  0042d	85 f6		 test	 esi, esi
  0042f	0f 84 4a 01 00
	00		 je	 $L268770
  00435	8b 4c 24 18	 mov	 ecx, DWORD PTR $T276259[esp+256]
  00439	85 c9		 test	 ecx, ecx
  0043b	74 0d		 je	 SHORT $L268793
  0043d	e8 00 00 00 00	 call	 ?IsDisguise@CMover@@QAEHXZ ; CMover::IsDisguise
  00442	85 c0		 test	 eax, eax
  00444	0f 85 35 01 00
	00		 jne	 $L268770
$L268793:

; 421  : 				{
; 422  : 					((CModelObject*)pModel)->SetParent( PARTS_LWEAPON, ((CModelObject*)pModel)->GetLHandIdx() );

  0044a	8b 8d 84 2a 00
	00		 mov	 ecx, DWORD PTR [ebp+10884]
  00450	8b 91 54 01 00
	00		 mov	 edx, DWORD PTR [ecx+340]
  00456	52		 push	 edx
  00457	6a 09		 push	 9
  00459	8b cd		 mov	 ecx, ebp
  0045b	e8 00 00 00 00	 call	 ?SetParent@CModelObject@@QAEXHH@Z ; CModelObject::SetParent

; 423  : 				}
; 424  : 				else 

  00460	e9 22 01 00 00	 jmp	 $L268743
$L268797:

; 425  : 					pModel->TakeOffParts( i );
; 426  : 				break;
; 427  : 			case PARTS_SHIELD: 
; 428  : 				//        (  .   )
; 429  : 				if( pItemProp && ( pMover == NULL || ( pMover && pMover->IsDisguise() == FALSE ) ) )

  00465	85 f6		 test	 esi, esi
  00467	0f 84 12 01 00
	00		 je	 $L268770
  0046d	8b 4c 24 18	 mov	 ecx, DWORD PTR $T276259[esp+256]
  00471	85 c9		 test	 ecx, ecx
  00473	74 0d		 je	 SHORT $L268799
  00475	e8 00 00 00 00	 call	 ?IsDisguise@CMover@@QAEHXZ ; CMover::IsDisguise
  0047a	85 c0		 test	 eax, eax
  0047c	0f 85 fd 00 00
	00		 jne	 $L268770
$L268799:

; 430  : 					((CModelObject*)pModel)->SetParent( PARTS_SHIELD, ((CModelObject*)pModel)->GetLArmIdx() );

  00482	8b 85 84 2a 00
	00		 mov	 eax, DWORD PTR [ebp+10884]
  00488	8b 88 5c 01 00
	00		 mov	 ecx, DWORD PTR [eax+348]
  0048e	51		 push	 ecx
  0048f	6a 0b		 push	 11			; 0000000bH
  00491	8b cd		 mov	 ecx, ebp
  00493	e8 00 00 00 00	 call	 ?SetParent@CModelObject@@QAEXHH@Z ; CModelObject::SetParent

; 431  : 				else 

  00498	e9 ea 00 00 00	 jmp	 $L268743
$L268803:

; 432  : 					pModel->TakeOffParts( i );
; 433  : 				break;
; 434  : 			case PARTS_UPPER_BODY:
; 435  : 				if( bIfParts )

  0049d	8b 84 24 24 01
	00 00		 mov	 eax, DWORD PTR _bIfParts$[esp+252]
  004a4	85 c0		 test	 eax, eax
  004a6	0f 84 db 00 00
	00		 je	 $L268743

; 436  : 					if( pItemProp == NULL )	

  004ac	85 f6		 test	 esi, esi
  004ae	0f 85 d3 00 00
	00		 jne	 $L268743

; 437  : 						pModel->LoadElement( PARTSMESH_UPPER( nSex ), PARTS_UPPER_BODY );

  004b4	8b 84 24 04 01
	00 00		 mov	 eax, DWORD PTR _nSex$[esp+252]
  004bb	85 c0		 test	 eax, eax
  004bd	b8 00 00 00 00	 mov	 eax, OFFSET FLAT:??_C@_0BD@FANBKNEH@Part_maleUpper?4o3d?$AA@
  004c2	74 05		 je	 SHORT $L276065
  004c4	b8 00 00 00 00	 mov	 eax, OFFSET FLAT:??_C@_0BF@FAOACOCN@Part_femaleUpper?4o3d?$AA@
$L276065:
  004c9	6a 02		 push	 2
  004cb	50		 push	 eax
  004cc	8b cd		 mov	 ecx, ebp
  004ce	e8 00 00 00 00	 call	 ?LoadElement@CModelObject@@QAEHPBDH@Z ; CModelObject::LoadElement

; 438  : 				break;

  004d3	e9 af 00 00 00	 jmp	 $L268743
$L268808:

; 439  : 			case PARTS_LOWER_BODY:
; 440  : 				if( bIfParts )

  004d8	8b 84 24 24 01
	00 00		 mov	 eax, DWORD PTR _bIfParts$[esp+252]
  004df	85 c0		 test	 eax, eax
  004e1	0f 84 a0 00 00
	00		 je	 $L268743

; 441  : 					if( pItemProp == NULL ) 

  004e7	85 f6		 test	 esi, esi
  004e9	0f 85 98 00 00
	00		 jne	 $L268743

; 442  : 						pModel->LoadElement( PARTSMESH_LOWER( nSex ), PARTS_LOWER_BODY );

  004ef	8b 84 24 04 01
	00 00		 mov	 eax, DWORD PTR _nSex$[esp+252]
  004f6	85 c0		 test	 eax, eax
  004f8	b8 00 00 00 00	 mov	 eax, OFFSET FLAT:??_C@_0BD@PCNGIDNM@Part_maleLower?4o3d?$AA@
  004fd	74 05		 je	 SHORT $L276067
  004ff	b8 00 00 00 00	 mov	 eax, OFFSET FLAT:??_C@_0BF@PCOHAALG@Part_femaleLower?4o3d?$AA@
$L276067:
  00504	6a 03		 push	 3
  00506	50		 push	 eax
  00507	8b cd		 mov	 ecx, ebp
  00509	e8 00 00 00 00	 call	 ?LoadElement@CModelObject@@QAEHPBDH@Z ; CModelObject::LoadElement

; 443  : 				break;

  0050e	eb 77		 jmp	 SHORT $L268743
$L268813:

; 444  : 			case PARTS_HAND:
; 445  : 				if( bIfParts )

  00510	8b 84 24 24 01
	00 00		 mov	 eax, DWORD PTR _bIfParts$[esp+252]
  00517	85 c0		 test	 eax, eax
  00519	74 6c		 je	 SHORT $L268743

; 446  : 					if( pItemProp == NULL ) 

  0051b	85 f6		 test	 esi, esi
  0051d	75 68		 jne	 SHORT $L268743

; 447  : 						pModel->LoadElement( PARTSMESH_HAND( nSex ), PARTS_HAND );

  0051f	8b 84 24 04 01
	00 00		 mov	 eax, DWORD PTR _nSex$[esp+252]
  00526	85 c0		 test	 eax, eax
  00528	b8 00 00 00 00	 mov	 eax, OFFSET FLAT:??_C@_0BC@MBDHHPEB@Part_maleHand?4o3d?$AA@
  0052d	74 05		 je	 SHORT $L276069
  0052f	b8 00 00 00 00	 mov	 eax, OFFSET FLAT:??_C@_0BE@PALEBFEB@Part_femaleHand?4o3d?$AA@
$L276069:
  00534	6a 04		 push	 4
  00536	50		 push	 eax
  00537	8b cd		 mov	 ecx, ebp
  00539	e8 00 00 00 00	 call	 ?LoadElement@CModelObject@@QAEHPBDH@Z ; CModelObject::LoadElement

; 448  : 				break;

  0053e	eb 47		 jmp	 SHORT $L268743
$L268818:

; 449  : 			case PARTS_FOOT:
; 450  : 				if( bIfParts )

  00540	8b 84 24 24 01
	00 00		 mov	 eax, DWORD PTR _bIfParts$[esp+252]
  00547	85 c0		 test	 eax, eax
  00549	74 3c		 je	 SHORT $L268743

; 451  : 					if( pItemProp == NULL ) 

  0054b	85 f6		 test	 esi, esi
  0054d	75 38		 jne	 SHORT $L268743

; 452  : 						pModel->LoadElement( PARTSMESH_FOOT( nSex ), PARTS_FOOT );

  0054f	8b 84 24 04 01
	00 00		 mov	 eax, DWORD PTR _nSex$[esp+252]
  00556	85 c0		 test	 eax, eax
  00558	b8 00 00 00 00	 mov	 eax, OFFSET FLAT:??_C@_0BC@LJNOLPMO@Part_maleFoot?4o3d?$AA@
  0055d	74 05		 je	 SHORT $L276071
  0055f	b8 00 00 00 00	 mov	 eax, OFFSET FLAT:??_C@_0BE@IIFNNFMO@Part_femaleFoot?4o3d?$AA@
$L276071:
  00564	6a 05		 push	 5
  00566	50		 push	 eax
  00567	8b cd		 mov	 ecx, ebp
  00569	e8 00 00 00 00	 call	 ?LoadElement@CModelObject@@QAEHPBDH@Z ; CModelObject::LoadElement

; 453  : 				break;

  0056e	eb 17		 jmp	 SHORT $L268743
$L268823:

; 454  : 			default:
; 455  : 				if( bIfParts )

  00570	8b 84 24 24 01
	00 00		 mov	 eax, DWORD PTR _bIfParts$[esp+252]
  00577	85 c0		 test	 eax, eax
  00579	74 0c		 je	 SHORT $L268743

; 456  : 				{
; 457  : 					if( pItemProp == NULL ) 

  0057b	85 f6		 test	 esi, esi
  0057d	75 08		 jne	 SHORT $L268743
$L268770:

; 458  : 						pModel->TakeOffParts( i );

  0057f	8b cd		 mov	 ecx, ebp
  00581	57		 push	 edi
  00582	e8 00 00 00 00	 call	 ?TakeOffParts@CModelObject@@QAEXH@Z ; CModelObject::TakeOffParts
$L268743:
  00587	47		 inc	 edi
  00588	83 c3 0c	 add	 ebx, 12			; 0000000cH
  0058b	83 ff 1f	 cmp	 edi, 31			; 0000001fH
  0058e	89 7c 24 14	 mov	 DWORD PTR _i$268726[esp+256], edi
  00592	0f 8c 18 fc ff
	ff		 jl	 $L276269

; 459  : 				}
; 460  : 
; 461  : 			}
; 462  : 		}
; 463  : 	}
; 464  : } 

  00598	8b 8c 24 fc 00
	00 00		 mov	 ecx, DWORD PTR __$ArrayPad$[esp+256]
  0059f	5f		 pop	 edi
  005a0	5e		 pop	 esi
  005a1	5b		 pop	 ebx
  005a2	5d		 pop	 ebp
  005a3	33 cc		 xor	 ecx, esp
  005a5	e8 00 00 00 00	 call	 @__security_check_cookie@4
  005aa	81 c4 f0 00 00
	00		 add	 esp, 240		; 000000f0H
  005b0	c3		 ret	 0
  005b1	8d 49 00	 npad	 3
$L276275:
  005b4	00 00 00 00	 DD	 $L268803
  005b8	00 00 00 00	 DD	 $L268808
  005bc	00 00 00 00	 DD	 $L268813
  005c0	00 00 00 00	 DD	 $L268818
  005c4	00 00 00 00	 DD	 $L268823
  005c8	00 00 00 00	 DD	 $L268823
  005cc	00 00 00 00	 DD	 $L268823
  005d0	00 00 00 00	 DD	 $L268791
  005d4	00 00 00 00	 DD	 $L268769
  005d8	00 00 00 00	 DD	 $L268797
?UpdateParts@CMover@@SAXHHHHHPAU_EQUIP_INFO@@PAVCModelObject@@PAV?$CItemContainer@VCItemElem@@@@HPAV1@@Z ENDP ; CMover::UpdateParts
_TEXT	ENDS
PUBLIC	??_C@_0BD@DBDFKDKF@?$CFs?5PickupGold?5?9?5?$CFd?$AA@ ; `string'
PUBLIC	??_C@_0CA@MKEDOMG@party?5pick?5money?5error?3?$CFs?5?$CFd?5?$CFd?$AA@ ; `string'
PUBLIC	??_C@_0BC@MDAJNMLM@?4?4?2PartyError?4txt?$AA@	; `string'
PUBLIC	??_C@_05OPEIBKFE@?$CFd?5?$CFs?$AA@		; `string'
PUBLIC	?PickupGold@CMover@@QAEXHH@Z			; CMover::PickupGold
EXTRN	?GetUserByPlayerID@CUserMng@@QAEPAVCUser@@K@Z:NEAR ; CUserMng::GetUserByPlayerID
EXTRN	?FILEOUT@@YAXPBD0ZZ:NEAR			; FILEOUT
EXTRN	?g_UserMng@@3VCUserMng@@A:BYTE			; g_UserMng
EXTRN	?g_PartyMng@@3VCPartyMng@@A:BYTE		; g_PartyMng
EXTRN	?GetParty@CPartyMng@@QAEPAVCParty@@K@Z:NEAR	; CPartyMng::GetParty
EXTRN	?IsValidArea@CMover@@QAEHPAV1@M@Z:NEAR		; CMover::IsValidArea
;	COMDAT ??_C@_0BD@DBDFKDKF@?$CFs?5PickupGold?5?9?5?$CFd?$AA@
; File c:\documents and settings\test\mes documents\source\virtuos_v17\build\program\_common\obj.h
CONST	SEGMENT
??_C@_0BD@DBDFKDKF@?$CFs?5PickupGold?5?9?5?$CFd?$AA@ DB '%s PickupGold - '
	DB	'%d', 00H					; `string'
CONST	ENDS
;	COMDAT ??_C@_0CA@MKEDOMG@party?5pick?5money?5error?3?$CFs?5?$CFd?5?$CFd?$AA@
CONST	SEGMENT
??_C@_0CA@MKEDOMG@party?5pick?5money?5error?3?$CFs?5?$CFd?5?$CFd?$AA@ DB 'p'
	DB	'arty pick money error:%s %d %d', 00H	; `string'
CONST	ENDS
;	COMDAT ??_C@_0BC@MDAJNMLM@?4?4?2PartyError?4txt?$AA@
CONST	SEGMENT
??_C@_0BC@MDAJNMLM@?4?4?2PartyError?4txt?$AA@ DB '..\PartyError.txt', 00H ; `string'
CONST	ENDS
;	COMDAT ??_C@_05OPEIBKFE@?$CFd?5?$CFs?$AA@
CONST	SEGMENT
??_C@_05OPEIBKFE@?$CFd?5?$CFs?$AA@ DB '%d %s', 00H	; `string'
; Function compile flags: /Ogty
; File c:\documents and settings\test\mes documents\source\virtuos_v17\build\program\_common\moverequip.cpp
CONST	ENDS
;	COMDAT ?PickupGold@CMover@@QAEXHH@Z
_TEXT	SEGMENT
_i$269514 = -64						; size = 4
_pListMember$269511 = -60				; size = 60
_nGold$ = 8						; size = 4
tv332 = 12						; size = 4
_bDropMob$ = 12						; size = 4
?PickupGold@CMover@@QAEXHH@Z PROC NEAR			; CMover::PickupGold, COMDAT
; _this$ = ecx

; 2348 : {

  00000	83 ec 40	 sub	 esp, 64			; 00000040H
  00003	53		 push	 ebx
  00004	56		 push	 esi

; 2349 : 	ASSERT( nGold > 0 );
; 2350 : 	if( nGold <= 0 )

  00005	8b 74 24 4c	 mov	 esi, DWORD PTR _nGold$[esp+68]
  00009	85 f6		 test	 esi, esi
  0000b	8b d9		 mov	 ebx, ecx
  0000d	7f 1e		 jg	 SHORT $L269506

; 2351 : 	{
; 2352 : 		Error( "%s PickupGold - %d", GetName(), nGold );

  0000f	56		 push	 esi
  00010	6a 00		 push	 0
  00012	e8 00 00 00 00	 call	 ?GetName@CMover@@QAEPBDH@Z ; CMover::GetName
  00017	50		 push	 eax
  00018	68 00 00 00 00	 push	 OFFSET FLAT:??_C@_0BD@DBDFKDKF@?$CFs?5PickupGold?5?9?5?$CFd?$AA@
  0001d	e8 00 00 00 00	 call	 ?Error@@YAPBDPBDZZ	; Error
  00022	83 c4 0c	 add	 esp, 12			; 0000000cH
  00025	5e		 pop	 esi
  00026	5b		 pop	 ebx

; 2428 : 	}
; 2429 : }

  00027	83 c4 40	 add	 esp, 64			; 00000040H
  0002a	c2 08 00	 ret	 8
$L269506:

; 2353 : 		return;
; 2354 : 	}
; 2355 : 
; 2356 : #ifdef __WORLDSERVER
; 2357 : 	CParty *pParty	= g_PartyMng.GetParty( m_idparty );

  0002d	8b 83 18 07 00
	00		 mov	 eax, DWORD PTR [ebx+1816]
  00033	55		 push	 ebp
  00034	50		 push	 eax
  00035	b9 00 00 00 00	 mov	 ecx, OFFSET FLAT:?g_PartyMng@@3VCPartyMng@@A
  0003a	e8 00 00 00 00	 call	 ?GetParty@CPartyMng@@QAEPAVCParty@@K@Z ; CPartyMng::GetParty
  0003f	8b e8		 mov	 ebp, eax

; 2358 : 	if( pParty && pParty->IsMember( m_idPlayer ) && bDropMob )	//      .

  00041	85 ed		 test	 ebp, ebp
  00043	0f 84 5a 01 00
	00		 je	 $L269509
  00049	8b 83 38 02 00
	00		 mov	 eax, DWORD PTR [ebx+568]
  0004f	50		 push	 eax
  00050	8b cd		 mov	 ecx, ebp
  00052	e8 00 00 00 00	 call	 ?FindMember@CParty@@QAEHK@Z ; CParty::FindMember
  00057	85 c0		 test	 eax, eax
  00059	0f 8c 44 01 00
	00		 jl	 $L269509
  0005f	8b 44 24 54	 mov	 eax, DWORD PTR _bDropMob$[esp+72]
  00063	85 c0		 test	 eax, eax
  00065	0f 84 38 01 00
	00		 je	 $L269509

; 2359 : 	{
; 2360 : 		//       .
; 2361 : 		//    .
; 2362 : 		int nNumInsideMember = 1;		//     xx    . 
; 2363 : 		CUser *pListMember[MAX_PTMEMBER_SIZE];
; 2364 : 		int	nMaxListMember = 0;
; 2365 : 		CUser* pMember	= NULL;
; 2366 : 		int i;
; 2367 : //		float fDist;
; 2368 : 		D3DXVECTOR3	vDist;
; 2369 : 
; 2370 : 		//     .
; 2371 : 		memset( pListMember, 0, sizeof(pListMember) );

  0006b	33 c0		 xor	 eax, eax
  0006d	57		 push	 edi
  0006e	b9 0f 00 00 00	 mov	 ecx, 15			; 0000000fH
  00073	8d 7c 24 14	 lea	 edi, DWORD PTR _pListMember$269511[esp+80]
  00077	f3 ab		 rep stosd

; 2372 : 		for( i = 0; i < pParty->m_nSizeofMember; i++ )

  00079	89 44 24 10	 mov	 DWORD PTR _i$269514[esp+80], eax
  0007d	8b 85 cc 01 00
	00		 mov	 eax, DWORD PTR [ebp+460]
  00083	33 f6		 xor	 esi, esi
  00085	85 c0		 test	 eax, eax
  00087	0f 8e 96 00 00
	00		 jle	 $L276309
  0008d	8d 4d 28	 lea	 ecx, DWORD PTR [ebp+40]
  00090	89 4c 24 58	 mov	 DWORD PTR tv332[esp+76], ecx
$L276308:

; 2373 : 		{
; 2374 : 			pMember	= g_UserMng.GetUserByPlayerID( pParty->m_aMember[i].m_uPlayerId );

  00094	8b 54 24 58	 mov	 edx, DWORD PTR tv332[esp+76]
  00098	8b 02		 mov	 eax, DWORD PTR [edx]
  0009a	50		 push	 eax
  0009b	b9 00 00 00 00	 mov	 ecx, OFFSET FLAT:?g_UserMng@@3VCUserMng@@A
  000a0	e8 00 00 00 00	 call	 ?GetUserByPlayerID@CUserMng@@QAEPAVCUser@@K@Z ; CUserMng::GetUserByPlayerID
  000a5	8b f8		 mov	 edi, eax

; 2375 : 			/*
; 2376 : 			if( IsValidObj( pMember ) )
; 2377 : 			{
; 2378 : 				vDist = pMember->GetPos() - GetPos();
; 2379 : 				fDist = D3DXVec3LengthSq( &vDist );		//    .
; 2380 : 				if( fDist < 32.0f * 32.0f )				// xx 
; 2381 : 				{
; 2382 : 					pListMember[ nMaxListMember++ ] = pMember;
; 2383 : 				}
; 2384 : 			}
; 2385 : 			*/ //2009.01.21 //    
; 2386 : 			if( IsValidArea( pMember, 32.0f ) )

  000a7	68 00 00 00 42	 push	 1107296256		; 42000000H
  000ac	57		 push	 edi
  000ad	8b cb		 mov	 ecx, ebx
  000af	e8 00 00 00 00	 call	 ?IsValidArea@CMover@@QAEHPAV1@M@Z ; CMover::IsValidArea
  000b4	85 c0		 test	 eax, eax
  000b6	74 05		 je	 SHORT $L269517

; 2387 : 				pListMember[ nMaxListMember++ ] = pMember;

  000b8	89 7c b4 14	 mov	 DWORD PTR _pListMember$269511[esp+esi*4+80], edi
  000bc	46		 inc	 esi
$L269517:
  000bd	8b 44 24 10	 mov	 eax, DWORD PTR _i$269514[esp+80]
  000c1	8b 54 24 58	 mov	 edx, DWORD PTR tv332[esp+76]
  000c5	8b 8d cc 01 00
	00		 mov	 ecx, DWORD PTR [ebp+460]
  000cb	40		 inc	 eax
  000cc	83 c2 1c	 add	 edx, 28			; 0000001cH
  000cf	3b c1		 cmp	 eax, ecx
  000d1	89 44 24 10	 mov	 DWORD PTR _i$269514[esp+80], eax
  000d5	89 54 24 58	 mov	 DWORD PTR tv332[esp+76], edx
  000d9	7c b9		 jl	 SHORT $L276308

; 2388 : 		}
; 2389 : 
; 2390 : 		if( nMaxListMember > 0 )

  000db	85 f6		 test	 esi, esi
  000dd	7e 44		 jle	 SHORT $L276309

; 2391 : 		{
; 2392 : 			int nShare = nGold / nMaxListMember;		//   

  000df	8b 44 24 54	 mov	 eax, DWORD PTR _nGold$[esp+76]
  000e3	99		 cdq
  000e4	f7 fe		 idiv	 esi
  000e6	8b d8		 mov	 ebx, eax

; 2393 : 			int nRest  = nGold % nMaxListMember;		//   .
; 2394 : 			if( nShare )	//  .

  000e8	85 db		 test	 ebx, ebx
  000ea	8b ea		 mov	 ebp, edx
  000ec	74 15		 je	 SHORT $L269526

; 2395 : 			{
; 2396 : 				for( i = 0; i < nMaxListMember; i++ )

  000ee	33 ff		 xor	 edi, edi
  000f0	85 f6		 test	 esi, esi
  000f2	7e 0f		 jle	 SHORT $L269526
$L269524:

; 2397 : 				{
; 2398 : 					pMember = pListMember[i];
; 2399 : 					pMember->PickupGoldCore( nShare );

  000f4	8b 4c bc 14	 mov	 ecx, DWORD PTR _pListMember$269511[esp+edi*4+80]
  000f8	53		 push	 ebx
  000f9	e8 00 00 00 00	 call	 ?PickupGoldCore@CMover@@QAEXH@Z ; CMover::PickupGoldCore
  000fe	47		 inc	 edi
  000ff	3b fe		 cmp	 edi, esi
  00101	7c f1		 jl	 SHORT $L269524
$L269526:

; 2400 : 				}
; 2401 : 			}
; 2402 : 
; 2403 : 			//    .
; 2404 : 			if( nRest )

  00103	85 ed		 test	 ebp, ebp
  00105	74 12		 je	 SHORT $L276311

; 2405 : 			{
; 2406 : 				pMember = pListMember[ random(nMaxListMember) ];	

  00107	e8 00 00 00 00	 call	 _rand
  0010c	99		 cdq
  0010d	f7 fe		 idiv	 esi

; 2407 : 				pMember->PickupGoldCore( nRest );

  0010f	55		 push	 ebp
  00110	8b 4c 94 18	 mov	 ecx, DWORD PTR _pListMember$269511[esp+edx*4+84]
  00114	e8 00 00 00 00	 call	 ?PickupGoldCore@CMover@@QAEXH@Z ; CMover::PickupGoldCore
$L276311:
  00119	5f		 pop	 edi
  0011a	5d		 pop	 ebp
  0011b	5e		 pop	 esi
  0011c	5b		 pop	 ebx

; 2428 : 	}
; 2429 : }

  0011d	83 c4 40	 add	 esp, 64			; 00000040H
  00120	c2 08 00	 ret	 8
$L276309:

; 2408 : 			}
; 2409 : 		}
; 2410 : 		else
; 2411 : 		{
; 2412 : 			FILEOUT( "..\\PartyError.txt", "party pick money error:%s %d %d", GetName(), pParty->m_nSizeofMember, nMaxListMember );

  00123	8b 8d cc 01 00
	00		 mov	 ecx, DWORD PTR [ebp+460]
  00129	56		 push	 esi
  0012a	51		 push	 ecx
  0012b	6a 00		 push	 0
  0012d	8b cb		 mov	 ecx, ebx
  0012f	e8 00 00 00 00	 call	 ?GetName@CMover@@QAEPBDH@Z ; CMover::GetName
  00134	50		 push	 eax
  00135	68 00 00 00 00	 push	 OFFSET FLAT:??_C@_0CA@MKEDOMG@party?5pick?5money?5error?3?$CFs?5?$CFd?5?$CFd?$AA@
  0013a	68 00 00 00 00	 push	 OFFSET FLAT:??_C@_0BC@MDAJNMLM@?4?4?2PartyError?4txt?$AA@
  0013f	e8 00 00 00 00	 call	 ?FILEOUT@@YAXPBD0ZZ	; FILEOUT

; 2413 : 			for( i = 0; i < pParty->m_nSizeofMember; i ++ )

  00144	8b 85 cc 01 00
	00		 mov	 eax, DWORD PTR [ebp+460]
  0014a	83 c4 14	 add	 esp, 20			; 00000014H
  0014d	33 f6		 xor	 esi, esi
  0014f	85 c0		 test	 eax, eax
  00151	7e c6		 jle	 SHORT $L276311
  00153	8d 7d 28	 lea	 edi, DWORD PTR [ebp+40]
  00156	b3 01		 mov	 bl, 1
$L269531:

; 2414 : 			{
; 2415 : 				pMember		= g_UserMng.GetUserByPlayerID( pParty->m_aMember[i].m_uPlayerId );

  00158	8b 17		 mov	 edx, DWORD PTR [edi]
  0015a	52		 push	 edx
  0015b	b9 00 00 00 00	 mov	 ecx, OFFSET FLAT:?g_UserMng@@3VCUserMng@@A
  00160	e8 00 00 00 00	 call	 ?GetUserByPlayerID@CUserMng@@QAEPAVCUser@@K@Z ; CUserMng::GetUserByPlayerID

; 2416 : 				if( IsValidObj( pMember ) )

  00165	85 c0		 test	 eax, eax
  00167	74 22		 je	 SHORT $L269532
  00169	84 58 04	 test	 BYTE PTR [eax+4], bl
  0016c	75 1d		 jne	 SHORT $L269532

; 2417 : 				{
; 2418 : 					FILEOUT( "..\\PartyError.txt", "%d %s", i, pMember->GetName() );

  0016e	6a 00		 push	 0
  00170	8b c8		 mov	 ecx, eax
  00172	e8 00 00 00 00	 call	 ?GetName@CMover@@QAEPBDH@Z ; CMover::GetName
  00177	50		 push	 eax
  00178	56		 push	 esi
  00179	68 00 00 00 00	 push	 OFFSET FLAT:??_C@_05OPEIBKFE@?$CFd?5?$CFs?$AA@
  0017e	68 00 00 00 00	 push	 OFFSET FLAT:??_C@_0BC@MDAJNMLM@?4?4?2PartyError?4txt?$AA@
  00183	e8 00 00 00 00	 call	 ?FILEOUT@@YAXPBD0ZZ	; FILEOUT
  00188	83 c4 10	 add	 esp, 16			; 00000010H
$L269532:
  0018b	8b 85 cc 01 00
	00		 mov	 eax, DWORD PTR [ebp+460]
  00191	46		 inc	 esi
  00192	83 c7 1c	 add	 edi, 28			; 0000001cH
  00195	3b f0		 cmp	 esi, eax
  00197	7c bf		 jl	 SHORT $L269531
  00199	5f		 pop	 edi
  0019a	5d		 pop	 ebp
  0019b	5e		 pop	 esi
  0019c	5b		 pop	 ebx

; 2428 : 	}
; 2429 : }

  0019d	83 c4 40	 add	 esp, 64			; 00000040H
  001a0	c2 08 00	 ret	 8
$L269509:

; 2419 : 				}
; 2420 : 			}
; 2421 : 		}
; 2422 : 	} 
; 2423 : 	else
; 2424 : #endif // WORLDSERVER	
; 2425 : 	{
; 2426 : 		//  
; 2427 : 		PickupGoldCore( nGold );

  001a3	56		 push	 esi
  001a4	8b cb		 mov	 ecx, ebx
  001a6	e8 00 00 00 00	 call	 ?PickupGoldCore@CMover@@QAEXH@Z ; CMover::PickupGoldCore
  001ab	5d		 pop	 ebp
  001ac	5e		 pop	 esi
  001ad	5b		 pop	 ebx

; 2428 : 	}
; 2429 : }

  001ae	83 c4 40	 add	 esp, 64			; 00000040H
  001b1	c2 08 00	 ret	 8
?PickupGold@CMover@@QAEXHH@Z ENDP			; CMover::PickupGold
_TEXT	ENDS
PUBLIC	??_C@_01CKDDGHAB@D?$AA@				; `string'
PUBLIC	?DropGold@CMover@@QAEPAVCItem@@KABUD3DXVECTOR3@@H@Z ; CMover::DropGold
EXTRN	__except_list:DWORD
EXTRN	___CxxFrameHandler:NEAR
EXTRN	?AddObj@CWorld@@QAEHPAVCObj@@HH@Z:NEAR		; CWorld::AddObj
EXTRN	??2@YAPAXI@Z:NEAR				; operator new
EXTRN	??3@YAXPAX@Z:NEAR				; operator delete
EXTRN	?SetPos@CObj@@QAEXABUD3DXVECTOR3@@@Z:NEAR	; CObj::SetPos
EXTRN	?SetAngle@CObj@@QAEXM@Z:NEAR			; CObj::SetAngle
EXTRN	??0CItem@@QAE@XZ:NEAR				; CItem::CItem
EXTRN	__imp__timeGetTime@0:NEAR
EXTRN	?IsDropableState@CMover@@QAEHH@Z:NEAR		; CMover::IsDropableState
EXTRN	??0CItemElem@@QAE@XZ:NEAR			; CItemElem::CItemElem
;	COMDAT xdata$x
; File c:\documents and settings\test\mes documents\source\virtuos_v17\build\program\_common\obj.h
xdata$x	SEGMENT
$T276502 DD	0ffffffffH
	DD	FLAT:$L276324
	DD	0ffffffffH
	DD	FLAT:$L276325
$T276491 DD	019930520H
	DD	02H
	DD	FLAT:$T276502
	DD	2 DUP(00H)
	DD	2 DUP(00H)
xdata$x	ENDS
;	COMDAT ??_C@_01CKDDGHAB@D?$AA@
CONST	SEGMENT
??_C@_01CKDDGHAB@D?$AA@ DB 'D', 00H			; `string'
; Function compile flags: /Ogty
; File c:\documents and settings\test\mes documents\source\virtuos_v17\build\program\_common\moverequip.cpp
CONST	ENDS
;	COMDAT ?DropGold@CMover@@QAEPAVCItem@@KABUD3DXVECTOR3@@H@Z
_TEXT	SEGMENT
tv605 = -224						; size = 4
$T276321 = -224						; size = 4
$T276317 = -224						; size = 4
$T276487 = -220						; size = 4
_aLogItem$269562 = -216					; size = 200
__$ArrayPad$ = -16					; size = 4
__$EHRec$ = -12						; size = 12
__$ReturnAddr$ = 4					; size = 4
_dwGold$ = 8						; size = 4
_vPos$ = 12						; size = 4
_bPK$ = 16						; size = 4
?DropGold@CMover@@QAEPAVCItem@@KABUD3DXVECTOR3@@H@Z PROC NEAR ; CMover::DropGold, COMDAT
; _this$ = ecx

; 2463 : {

  00000	6a ff		 push	 -1
  00002	68 00 00 00 00	 push	 __ehhandler$?DropGold@CMover@@QAEPAVCItem@@KABUD3DXVECTOR3@@H@Z
  00007	64 a1 00 00 00
	00		 mov	 eax, DWORD PTR fs:__except_list
  0000d	50		 push	 eax
  0000e	64 89 25 00 00
	00 00		 mov	 DWORD PTR fs:__except_list, esp
  00015	81 ec d4 00 00
	00		 sub	 esp, 212		; 000000d4H
  0001b	a1 00 00 00 00	 mov	 eax, DWORD PTR ___security_cookie
  00020	33 c4		 xor	 eax, esp
  00022	53		 push	 ebx
  00023	8b d9		 mov	 ebx, ecx

; 2464 : 	if( IsDropableState( bPK ) == FALSE )

  00025	8b 8c 24 f0 00
	00 00		 mov	 ecx, DWORD PTR _bPK$[esp+224]
  0002c	89 84 24 d4 00
	00 00		 mov	 DWORD PTR __$ArrayPad$[esp+228], eax
  00033	8b 84 24 ec 00
	00 00		 mov	 eax, DWORD PTR _vPos$[esp+224]
  0003a	51		 push	 ecx
  0003b	8b cb		 mov	 ecx, ebx

; 2499 : 
; 2500 : 		pItemElem->m_nItemNum	= (short)nGold;				// __NPP_050308    
; 2501 : 		pItemElem->m_nHitPoint  = nGold;					// int        
; 2502 : 
; 2503 : 		CItem* pItem	= new CItem;

  0003d	89 44 24 0c	 mov	 DWORD PTR $T276487[esp+232], eax
  00041	e8 00 00 00 00	 call	 ?IsDropableState@CMover@@QAEHH@Z ; CMover::IsDropableState
  00046	85 c0		 test	 eax, eax
  00048	0f 84 61 02 00
	00		 je	 $L269554
$L269555:
  0004e	55		 push	 ebp

; 2465 : 		return NULL;
; 2466 : 
; 2467 : 	CWorld *pWorld = GetWorld();

  0004f	8b ab 6c 01 00
	00		 mov	 ebp, DWORD PTR [ebx+364]
  00055	56		 push	 esi

; 2468 : 
; 2469 : 	int nGold	= (int)dwGold;
; 2470 : 	if( nGold > 0 && nGold <= (int)GetGold() )

  00056	8b b4 24 f0 00
	00 00		 mov	 esi, DWORD PTR _dwGold$[esp+232]
  0005d	57		 push	 edi
  0005e	33 ff		 xor	 edi, edi
  00060	3b f7		 cmp	 esi, edi
  00062	0f 8e 42 02 00
	00		 jle	 $L269560
  00068	3b b3 84 16 00
	00		 cmp	 esi, DWORD PTR [ebx+5764]
  0006e	0f 8f 36 02 00
	00		 jg	 $L269560

; 2471 : 	{
; 2472 : 		if( nGold >= 500 )

  00074	81 fe f4 01 00
	00		 cmp	 esi, 500		; 000001f4H
  0007a	7c 65		 jl	 SHORT $L269561

; 2473 : 		{
; 2474 : 			LogItemInfo aLogItem;

  0007c	8d 4c 24 18	 lea	 ecx, DWORD PTR _aLogItem$269562[esp+240]
  00080	e8 00 00 00 00	 call	 ??0_LogItemInfo@@QAE@XZ	; _LogItemInfo::_LogItemInfo

; 2475 : 			aLogItem.Action = "D";
; 2476 : 			aLogItem.SendName = GetName();

  00085	57		 push	 edi
  00086	8b cb		 mov	 ecx, ebx
  00088	c7 44 24 1c 00
	00 00 00	 mov	 DWORD PTR _aLogItem$269562[esp+244], OFFSET FLAT:??_C@_01CKDDGHAB@D?$AA@
  00090	e8 00 00 00 00	 call	 ?GetName@CMover@@QAEPBDH@Z ; CMover::GetName

; 2477 : 			aLogItem.RecvName = "GROUND";	//  
; 2478 : 			aLogItem.WorldId = pWorld->GetID();

  00095	8b 55 00	 mov	 edx, DWORD PTR [ebp]
  00098	89 44 24 1c	 mov	 DWORD PTR _aLogItem$269562[esp+244], eax

; 2479 : 			aLogItem.Gold = GetGold();

  0009c	8b 83 84 16 00
	00		 mov	 eax, DWORD PTR [ebx+5764]
  000a2	89 44 24 28	 mov	 DWORD PTR _aLogItem$269562[esp+256], eax

; 2480 : 			aLogItem.Gold2 = GetGold() - nGold;

  000a6	2b c6		 sub	 eax, esi

; 2481 : 			//aLogItem.ItemName = "SEED";
; 2482 : 			_stprintf( aLogItem.szItemName, "%d", II_GOLD_SEED1 );

  000a8	6a 0c		 push	 12			; 0000000cH
  000aa	89 44 24 30	 mov	 DWORD PTR _aLogItem$269562[esp+264], eax
  000ae	8d 44 24 40	 lea	 eax, DWORD PTR _aLogItem$269562[esp+280]
  000b2	68 00 00 00 00	 push	 OFFSET FLAT:??_C@_02DPKJAMEF@?$CFd?$AA@
  000b7	50		 push	 eax
  000b8	c7 44 24 2c 00
	00 00 00	 mov	 DWORD PTR _aLogItem$269562[esp+260], OFFSET FLAT:??_C@_06GKBINIEJ@GROUND?$AA@
  000c0	89 54 24 30	 mov	 DWORD PTR _aLogItem$269562[esp+264], edx
  000c4	e8 00 00 00 00	 call	 _sprintf
  000c9	83 c4 0c	 add	 esp, 12			; 0000000cH

; 2483 : 			aLogItem.itemNumber = nGold;
; 2484 : 			g_DPSrvr.OnLogItem( aLogItem );

  000cc	57		 push	 edi
  000cd	57		 push	 edi
  000ce	8d 4c 24 20	 lea	 ecx, DWORD PTR _aLogItem$269562[esp+248]
  000d2	51		 push	 ecx
  000d3	b9 00 00 00 00	 mov	 ecx, OFFSET FLAT:?g_DPSrvr@@3VCDPSrvr@@A
  000d8	89 74 24 68	 mov	 DWORD PTR _aLogItem$269562[esp+320], esi
  000dc	e8 00 00 00 00	 call	 ?OnLogItem@CDPSrvr@@QAEXAAU_LogItemInfo@@PAVCItemElem@@H@Z ; CDPSrvr::OnLogItem
$L269561:

; 2485 : 		}
; 2486 : 
; 2487 : 		AddGold( -nGold );

  000e1	8b d6		 mov	 edx, esi
  000e3	6a 01		 push	 1
  000e5	f7 da		 neg	 edx
  000e7	52		 push	 edx
  000e8	8b cb		 mov	 ecx, ebx
  000ea	e8 00 00 00 00	 call	 ?AddGold@CMover@@QAEHHH@Z ; CMover::AddGold

; 2488 : 
; 2489 : 		CItemElem* pItemElem	= new CItemElem;

  000ef	68 b8 00 00 00	 push	 184			; 000000b8H
  000f4	e8 00 00 00 00	 call	 ??2@YAPAXI@Z		; operator new
  000f9	83 c4 04	 add	 esp, 4
  000fc	89 44 24 10	 mov	 DWORD PTR $T276317[esp+240], eax
  00100	3b c7		 cmp	 eax, edi
  00102	89 bc 24 ec 00
	00 00		 mov	 DWORD PTR __$EHRec$[esp+248], edi
  00109	74 09		 je	 SHORT $L276319
  0010b	8b c8		 mov	 ecx, eax
  0010d	e8 00 00 00 00	 call	 ??0CItemElem@@QAE@XZ	; CItemElem::CItemElem
  00112	8b f8		 mov	 edi, eax
$L276319:

; 2490 : 		
; 2491 : 		if( nGold <= (int)prj.GetItemProp( II_GOLD_SEED1 )->dwAbilityMax )

  00114	a1 5c 02 00 00	 mov	 eax, DWORD PTR ?prj@@3VCProject@@A+604
  00119	83 f8 0c	 cmp	 eax, 12			; 0000000cH
  0011c	c7 84 24 ec 00
	00 00 ff ff ff
	ff		 mov	 DWORD PTR __$EHRec$[esp+248], -1
  00127	7e 0d		 jle	 SHORT $L276372
  00129	76 27		 jbe	 SHORT $L276499
  0012b	8b 0d 4c 02 00
	00		 mov	 ecx, DWORD PTR ?prj@@3VCProject@@A+588
  00131	8b 49 30	 mov	 ecx, DWORD PTR [ecx+48]
  00134	eb 1e		 jmp	 SHORT $L276367
$L276372:
  00136	6a 0c		 push	 12			; 0000000cH
  00138	50		 push	 eax
  00139	6a 00		 push	 0
  0013b	68 00 00 00 00	 push	 OFFSET FLAT:??_C@_0BI@BEIFNGEL@GetItemProp?5range_error?$AA@
  00140	68 00 00 00 00	 push	 OFFSET FLAT:??_C@_0BM@HMFGHCP@?$CFs?5min?3?$CFd?0?5max?3?$CFd?0?5index?3?$CFd?$AA@
  00145	e8 00 00 00 00	 call	 ?Error@@YAPBDPBDZZ	; Error
  0014a	a1 5c 02 00 00	 mov	 eax, DWORD PTR ?prj@@3VCProject@@A+604
  0014f	83 c4 14	 add	 esp, 20			; 00000014H
$L276499:
  00152	33 c9		 xor	 ecx, ecx
$L276367:
  00154	3b b1 e8 00 00
	00		 cmp	 esi, DWORD PTR [ecx+232]
  0015a	7f 0c		 jg	 SHORT $L269570

; 2492 : 			pItemElem->m_dwItemId	= II_GOLD_SEED1;

  0015c	c7 47 0c 0c 00
	00 00		 mov	 DWORD PTR [edi+12], 12	; 0000000cH

; 2493 : 		else if( nGold <= (int)prj.GetItemProp( II_GOLD_SEED2 )->dwAbilityMax )

  00163	e9 83 00 00 00	 jmp	 $L269577
$L269570:
  00168	83 f8 0d	 cmp	 eax, 13			; 0000000dH
  0016b	7e 0d		 jle	 SHORT $L276415
  0016d	76 27		 jbe	 SHORT $L276500
  0016f	8b 15 4c 02 00
	00		 mov	 edx, DWORD PTR ?prj@@3VCProject@@A+588
  00175	8b 4a 34	 mov	 ecx, DWORD PTR [edx+52]
  00178	eb 1e		 jmp	 SHORT $L276410
$L276415:
  0017a	6a 0d		 push	 13			; 0000000dH
  0017c	50		 push	 eax
  0017d	6a 00		 push	 0
  0017f	68 00 00 00 00	 push	 OFFSET FLAT:??_C@_0BI@BEIFNGEL@GetItemProp?5range_error?$AA@
  00184	68 00 00 00 00	 push	 OFFSET FLAT:??_C@_0BM@HMFGHCP@?$CFs?5min?3?$CFd?0?5max?3?$CFd?0?5index?3?$CFd?$AA@
  00189	e8 00 00 00 00	 call	 ?Error@@YAPBDPBDZZ	; Error
  0018e	a1 5c 02 00 00	 mov	 eax, DWORD PTR ?prj@@3VCProject@@A+604
  00193	83 c4 14	 add	 esp, 20			; 00000014H
$L276500:
  00196	33 c9		 xor	 ecx, ecx
$L276410:
  00198	3b b1 e8 00 00
	00		 cmp	 esi, DWORD PTR [ecx+232]
  0019e	7f 09		 jg	 SHORT $L269573

; 2494 : 			pItemElem->m_dwItemId	= II_GOLD_SEED2;

  001a0	c7 47 0c 0d 00
	00 00		 mov	 DWORD PTR [edi+12], 13	; 0000000dH

; 2495 : 		else if( nGold <= (int)prj.GetItemProp( II_GOLD_SEED3 )->dwAbilityMax )

  001a7	eb 42		 jmp	 SHORT $L269577
$L269573:
  001a9	83 f8 0e	 cmp	 eax, 14			; 0000000eH
  001ac	7e 0c		 jle	 SHORT $L276458
  001ae	76 21		 jbe	 SHORT $L276501
  001b0	a1 4c 02 00 00	 mov	 eax, DWORD PTR ?prj@@3VCProject@@A+588
  001b5	8b 40 38	 mov	 eax, DWORD PTR [eax+56]
  001b8	eb 19		 jmp	 SHORT $L276453
$L276458:
  001ba	6a 0e		 push	 14			; 0000000eH
  001bc	50		 push	 eax
  001bd	6a 00		 push	 0
  001bf	68 00 00 00 00	 push	 OFFSET FLAT:??_C@_0BI@BEIFNGEL@GetItemProp?5range_error?$AA@
  001c4	68 00 00 00 00	 push	 OFFSET FLAT:??_C@_0BM@HMFGHCP@?$CFs?5min?3?$CFd?0?5max?3?$CFd?0?5index?3?$CFd?$AA@
  001c9	e8 00 00 00 00	 call	 ?Error@@YAPBDPBDZZ	; Error
  001ce	83 c4 14	 add	 esp, 20			; 00000014H
$L276501:
  001d1	33 c0		 xor	 eax, eax
$L276453:
  001d3	3b b0 e8 00 00
	00		 cmp	 esi, DWORD PTR [eax+232]
  001d9	7f 09		 jg	 SHORT $L269576

; 2496 : 			pItemElem->m_dwItemId	= II_GOLD_SEED3;

  001db	c7 47 0c 0e 00
	00 00		 mov	 DWORD PTR [edi+12], 14	; 0000000eH

; 2497 : 		else

  001e2	eb 07		 jmp	 SHORT $L269577
$L269576:

; 2498 : 			pItemElem->m_dwItemId	= II_GOLD_SEED4;

  001e4	c7 47 0c 0f 00
	00 00		 mov	 DWORD PTR [edi+12], 15	; 0000000fH
$L269577:

; 2499 : 
; 2500 : 		pItemElem->m_nItemNum	= (short)nGold;				// __NPP_050308    
; 2501 : 		pItemElem->m_nHitPoint  = nGold;					// int        
; 2502 : 
; 2503 : 		CItem* pItem	= new CItem;

  001eb	68 4c 02 00 00	 push	 588			; 0000024cH
  001f0	66 89 b7 80 00
	00 00		 mov	 WORD PTR [edi+128], si
  001f7	89 77 7c	 mov	 DWORD PTR [edi+124], esi
  001fa	e8 00 00 00 00	 call	 ??2@YAPAXI@Z		; operator new
  001ff	83 c4 04	 add	 esp, 4
  00202	89 44 24 10	 mov	 DWORD PTR $T276321[esp+240], eax
  00206	85 c0		 test	 eax, eax
  00208	c7 84 24 ec 00
	00 00 01 00 00
	00		 mov	 DWORD PTR __$EHRec$[esp+248], 1
  00213	74 0b		 je	 SHORT $L276322
  00215	8b c8		 mov	 ecx, eax
  00217	e8 00 00 00 00	 call	 ??0CItem@@QAE@XZ	; CItem::CItem
  0021c	8b f0		 mov	 esi, eax
  0021e	eb 02		 jmp	 SHORT $L276323
$L276322:
  00220	33 f6		 xor	 esi, esi
$L276323:

; 2504 : 		pItem->m_pItemBase	= pItemElem;
; 2505 : 		pItem->SetIndex( D3DDEVICE, pItemElem->m_dwItemId );

  00222	8b 16		 mov	 edx, DWORD PTR [esi]
  00224	89 be 34 02 00
	00		 mov	 DWORD PTR [esi+564], edi
  0022a	8b 47 0c	 mov	 eax, DWORD PTR [edi+12]
  0022d	6a 00		 push	 0
  0022f	50		 push	 eax
  00230	6a 00		 push	 0
  00232	8b ce		 mov	 ecx, esi
  00234	c7 84 24 f8 00
	00 00 ff ff ff
	ff		 mov	 DWORD PTR __$EHRec$[esp+260], -1
  0023f	ff 52 2c	 call	 DWORD PTR [edx+44]

; 2506 : 		pItem->SetPos( vPos );

  00242	8b 4c 24 14	 mov	 ecx, DWORD PTR $T276487[esp+240]
  00246	51		 push	 ecx
  00247	8b ce		 mov	 ecx, esi
  00249	e8 00 00 00 00	 call	 ?SetPos@CObj@@QAEXABUD3DXVECTOR3@@@Z ; CObj::SetPos

; 2507 : 		pItem->SetAngle( (float)xRandom( 360 ) );

  0024e	a1 00 00 00 00	 mov	 eax, DWORD PTR ?g_next@@3KA ; g_next
  00253	69 c0 6d 4e c6
	41		 imul	 eax, 1103515245		; 41c64e6dH
  00259	05 39 30 00 00	 add	 eax, 12345		; 00003039H
  0025e	33 d2		 xor	 edx, edx
  00260	b9 68 01 00 00	 mov	 ecx, 360		; 00000168H
  00265	a3 00 00 00 00	 mov	 DWORD PTR ?g_next@@3KA, eax ; g_next
  0026a	f7 f1		 div	 ecx
  0026c	85 d2		 test	 edx, edx
  0026e	89 54 24 10	 mov	 DWORD PTR tv605[esp+240], edx
  00272	db 44 24 10	 fild	 DWORD PTR tv605[esp+240]
  00276	7d 06		 jge	 SHORT $L276498
  00278	d8 05 00 00 00
	00		 fadd	 DWORD PTR __real@4f800000
$L276498:
  0027e	51		 push	 ecx
  0027f	8b ce		 mov	 ecx, esi
  00281	d9 1c 24	 fstp	 DWORD PTR [esp]
  00284	e8 00 00 00 00	 call	 ?SetAngle@CObj@@QAEXM@Z	; CObj::SetAngle

; 2508 : 		pItem->m_dwDropTime		= timeGetTime();	

  00289	ff 15 00 00 00
	00		 call	 DWORD PTR __imp__timeGetTime@0
  0028f	89 86 40 02 00
	00		 mov	 DWORD PTR [esi+576], eax

; 2509 : 		pWorld->ADDOBJ( pItem, TRUE, GetLayer() );

  00295	8b 93 b8 01 00
	00		 mov	 edx, DWORD PTR [ebx+440]
  0029b	52		 push	 edx
  0029c	6a 01		 push	 1
  0029e	56		 push	 esi
  0029f	8b cd		 mov	 ecx, ebp
  002a1	e8 00 00 00 00	 call	 ?AddObj@CWorld@@QAEHPAVCObj@@HH@Z ; CWorld::AddObj

; 2510 : 		return pItem;

  002a6	8b c6		 mov	 eax, esi
  002a8	eb 02		 jmp	 SHORT $L276495
$L269560:

; 2511 : 	}
; 2512 : 	
; 2513 : 	return NULL;

  002aa	33 c0		 xor	 eax, eax
$L276495:
  002ac	5f		 pop	 edi
  002ad	5e		 pop	 esi
  002ae	5d		 pop	 ebp
$L269554:

; 2514 : }

  002af	8b 8c 24 d8 00
	00 00		 mov	 ecx, DWORD PTR __$EHRec$[esp+228]
  002b6	64 89 0d 00 00
	00 00		 mov	 DWORD PTR fs:__except_list, ecx
  002bd	8b 8c 24 d4 00
	00 00		 mov	 ecx, DWORD PTR __$ArrayPad$[esp+228]
  002c4	5b		 pop	 ebx
  002c5	33 cc		 xor	 ecx, esp
  002c7	e8 00 00 00 00	 call	 @__security_check_cookie@4
  002cc	81 c4 e0 00 00
	00		 add	 esp, 224		; 000000e0H
  002d2	c2 0c 00	 ret	 12			; 0000000cH
_TEXT	ENDS
;	COMDAT text$x
text$x	SEGMENT
$L276324:
  00000	8b 85 20 ff ff
	ff		 mov	 eax, DWORD PTR $T276317[ebp]
  00006	50		 push	 eax
  00007	e8 00 00 00 00	 call	 ??3@YAXPAX@Z		; operator delete
  0000c	59		 pop	 ecx
  0000d	c3		 ret	 0
$L276325:
  0000e	8b 85 20 ff ff
	ff		 mov	 eax, DWORD PTR $T276321[ebp]
  00014	50		 push	 eax
  00015	e8 00 00 00 00	 call	 ??3@YAXPAX@Z		; operator delete
  0001a	59		 pop	 ecx
  0001b	c3		 ret	 0
__ehhandler$?DropGold@CMover@@QAEPAVCItem@@KABUD3DXVECTOR3@@H@Z:
  0001c	b8 00 00 00 00	 mov	 eax, OFFSET FLAT:$T276491
  00021	e9 00 00 00 00	 jmp	 ___CxxFrameHandler
text$x	ENDS
?DropGold@CMover@@QAEPAVCItem@@KABUD3DXVECTOR3@@H@Z ENDP ; CMover::DropGold
PUBLIC	?begin@?$vector@U_SINGLE_DST@@V?$allocator@U_SINGLE_DST@@@std@@@std@@QAE?AViterator@12@XZ ; std::vector<_SINGLE_DST,std::allocator<_SINGLE_DST> >::begin
; Function compile flags: /Ogty
; File c:\program files\microsoft visual studio .net 2003\vc7\include\vector
;	COMDAT ?begin@?$vector@U_SINGLE_DST@@V?$allocator@U_SINGLE_DST@@@std@@@std@@QAE?AViterator@12@XZ
_TEXT	SEGMENT
___$ReturnUdt$ = 8					; size = 4
?begin@?$vector@U_SINGLE_DST@@V?$allocator@U_SINGLE_DST@@@std@@@std@@QAE?AViterator@12@XZ PROC NEAR ; std::vector<_SINGLE_DST,std::allocator<_SINGLE_DST> >::begin, COMDAT
; _this$ = ecx

; 463  : 		return (iterator(_Myfirst));

  00000	8b 49 04	 mov	 ecx, DWORD PTR [ecx+4]
  00003	8b 44 24 04	 mov	 eax, DWORD PTR ___$ReturnUdt$[esp-4]
  00007	89 08		 mov	 DWORD PTR [eax], ecx

; 464  : 		}

  00009	c2 04 00	 ret	 4
?begin@?$vector@U_SINGLE_DST@@V?$allocator@U_SINGLE_DST@@@std@@@std@@QAE?AViterator@12@XZ ENDP ; std::vector<_SINGLE_DST,std::allocator<_SINGLE_DST> >::begin
_TEXT	ENDS
PUBLIC	?Swap@?$CItemContainer@VCItemElem@@@@QAEXKK@Z	; CItemContainer<CItemElem>::Swap
; Function compile flags: /Ogty
; File c:\documents and settings\test\mes documents\source\virtuos_v17\build\program\_common\item.h
;	COMDAT ?Swap@?$CItemContainer@VCItemElem@@@@QAEXKK@Z
_TEXT	SEGMENT
_dwSrcIndex$ = 8					; size = 4
_dwDstIndex$ = 12					; size = 4
?Swap@?$CItemContainer@VCItemElem@@@@QAEXKK@Z PROC NEAR	; CItemContainer<CItemElem>::Swap, COMDAT
; _this$ = ecx

; 850  : {

  00000	53		 push	 ebx
  00001	55		 push	 ebp

; 851  : 	if( dwSrcIndex == dwDstIndex || dwSrcIndex >= m_dwItemMax || dwDstIndex >= m_dwItemMax )

  00002	8b 6c 24 0c	 mov	 ebp, DWORD PTR _dwSrcIndex$[esp+4]
  00006	56		 push	 esi
  00007	8b 74 24 14	 mov	 esi, DWORD PTR _dwDstIndex$[esp+8]
  0000b	3b ee		 cmp	 ebp, esi
  0000d	8b d9		 mov	 ebx, ecx
  0000f	0f 84 f8 00 00
	00		 je	 $L272700
  00015	8b 4b 0c	 mov	 ecx, DWORD PTR [ebx+12]
  00018	3b e9		 cmp	 ebp, ecx
  0001a	0f 83 ed 00 00
	00		 jae	 $L272700
  00020	3b f1		 cmp	 esi, ecx
  00022	0f 83 e5 00 00
	00		 jae	 $L272700

; 852  : 		return;
; 853  : 
; 854  : 	CItemElem* pItemElemSrc, *pItemElemDst;
; 855  : 	pItemElemSrc	= (CItemElem*)GetAtId( m_apIndex[dwSrcIndex] );

  00028	8b 53 04	 mov	 edx, DWORD PTR [ebx+4]
  0002b	8b 04 aa	 mov	 eax, DWORD PTR [edx+ebp*4]
  0002e	3b c1		 cmp	 eax, ecx
  00030	57		 push	 edi
  00031	72 04		 jb	 SHORT $L276535
  00033	33 ff		 xor	 edi, edi
  00035	eb 14		 jmp	 SHORT $L276537
$L276535:
  00037	8b 7b 10	 mov	 edi, DWORD PTR [ebx+16]
  0003a	69 c0 b8 00 00
	00		 imul	 eax, 184		; 000000b8H
  00040	03 c7		 add	 eax, edi
  00042	8b 78 0c	 mov	 edi, DWORD PTR [eax+12]
  00045	f7 df		 neg	 edi
  00047	1b ff		 sbb	 edi, edi
  00049	23 f8		 and	 edi, eax
$L276537:

; 856  : 	pItemElemDst	= (CItemElem*)GetAtId( m_apIndex[dwDstIndex] );

  0004b	8b 04 b2	 mov	 eax, DWORD PTR [edx+esi*4]
  0004e	3b c1		 cmp	 eax, ecx
  00050	72 04		 jb	 SHORT $L276553
  00052	33 f6		 xor	 esi, esi
  00054	eb 14		 jmp	 SHORT $L276555
$L276553:
  00056	8b 73 10	 mov	 esi, DWORD PTR [ebx+16]
  00059	69 c0 b8 00 00
	00		 imul	 eax, 184		; 000000b8H
  0005f	03 c6		 add	 eax, esi
  00061	8b 70 0c	 mov	 esi, DWORD PTR [eax+12]
  00064	f7 de		 neg	 esi
  00066	1b f6		 sbb	 esi, esi
  00068	23 f0		 and	 esi, eax
$L276555:

; 857  : 
; 858  : 	if( pItemElemSrc && pItemElemDst && pItemElemSrc->m_dwItemId == pItemElemDst->m_dwItemId && pItemElemSrc->m_byFlag == pItemElemDst->m_byFlag && pItemElemSrc->m_bCharged == pItemElemDst->m_bCharged )

  0006a	85 ff		 test	 edi, edi
  0006c	0f 84 8d 00 00
	00		 je	 $L272708
  00072	85 f6		 test	 esi, esi
  00074	0f 84 85 00 00
	00		 je	 $L272708
  0007a	8b 47 0c	 mov	 eax, DWORD PTR [edi+12]
  0007d	3b 46 0c	 cmp	 eax, DWORD PTR [esi+12]
  00080	75 7d		 jne	 SHORT $L272708
  00082	8a 8f 82 00 00
	00		 mov	 cl, BYTE PTR [edi+130]
  00088	3a 8e 82 00 00
	00		 cmp	 cl, BYTE PTR [esi+130]
  0008e	75 6f		 jne	 SHORT $L272708
  00090	8b 97 ac 00 00
	00		 mov	 edx, DWORD PTR [edi+172]
  00096	3b 96 ac 00 00
	00		 cmp	 edx, DWORD PTR [esi+172]
  0009c	75 61		 jne	 SHORT $L272708

; 859  : 	{
; 860  : 		ItemProp* pItemProp;
; 861  : 		int nPackMax;
; 862  : 		if( ( pItemProp = pItemElemSrc->GetProp() ) && ( nPackMax = pItemProp->dwPackMax ) > 1 )

  0009e	8b cf		 mov	 ecx, edi
  000a0	e8 00 00 00 00	 call	 ?GetPropA@CItemElem@@QAEPAUItemProp@@XZ ; CItemElem::GetPropA
  000a5	85 c0		 test	 eax, eax
  000a7	74 56		 je	 SHORT $L272708
  000a9	8b 40 6c	 mov	 eax, DWORD PTR [eax+108]
  000ac	83 f8 01	 cmp	 eax, 1
  000af	7e 4e		 jle	 SHORT $L272708

; 863  : 		{
; 864  : 			short nRemnant	= (short)nPackMax - pItemElemDst->m_nItemNum;

  000b1	33 c9		 xor	 ecx, ecx
  000b3	66 8b 8e 80 00
	00 00		 mov	 cx, WORD PTR [esi+128]

; 865  : 			if( nRemnant >= pItemElemSrc->m_nItemNum )
; 866  : 			{
; 867  : 				pItemElemDst->m_nItemNum	+= pItemElemSrc->m_nItemNum;

  000ba	33 d2		 xor	 edx, edx
  000bc	66 8b 97 80 00
	00 00		 mov	 dx, WORD PTR [edi+128]
  000c3	2b c1		 sub	 eax, ecx
  000c5	66 3b c2	 cmp	 ax, dx
  000c8	7c 1e		 jl	 SHORT $L272711
  000ca	03 d1		 add	 edx, ecx
  000cc	66 89 96 80 00
	00 00		 mov	 WORD PTR [esi+128], dx

; 868  : 				RemoveAtId( m_apIndex[dwSrcIndex] );

  000d3	8b 43 04	 mov	 eax, DWORD PTR [ebx+4]
  000d6	8b 0c a8	 mov	 ecx, DWORD PTR [eax+ebp*4]
  000d9	51		 push	 ecx
  000da	8b cb		 mov	 ecx, ebx
  000dc	e8 00 00 00 00	 call	 ?RemoveAtId@?$CItemContainer@VCItemElem@@@@QAEXK@Z ; CItemContainer<CItemElem>::RemoveAtId
  000e1	5f		 pop	 edi
  000e2	5e		 pop	 esi
  000e3	5d		 pop	 ebp
  000e4	5b		 pop	 ebx

; 879  : }

  000e5	c2 08 00	 ret	 8
$L272711:

; 869  : 			}
; 870  : 			else
; 871  : 			{
; 872  : 				pItemElemDst->m_nItemNum	+= nRemnant;

  000e8	03 c8		 add	 ecx, eax
  000ea	66 89 8e 80 00
	00 00		 mov	 WORD PTR [esi+128], cx

; 873  : 				pItemElemSrc->m_nItemNum	-= nRemnant;

  000f1	66 29 87 80 00
	00 00		 sub	 WORD PTR [edi+128], ax
  000f8	5f		 pop	 edi
  000f9	5e		 pop	 esi
  000fa	5d		 pop	 ebp
  000fb	5b		 pop	 ebx

; 879  : }

  000fc	c2 08 00	 ret	 8
$L272708:

; 874  : 			}
; 875  : 			return;
; 876  : 		}
; 877  : 	}
; 878  : 	Swap2( dwSrcIndex, dwDstIndex );

  000ff	8b 54 24 18	 mov	 edx, DWORD PTR _dwDstIndex$[esp+12]
  00103	52		 push	 edx
  00104	55		 push	 ebp
  00105	8b cb		 mov	 ecx, ebx
  00107	e8 00 00 00 00	 call	 ?Swap2@?$CItemContainer@VCItemElem@@@@AAEXKK@Z ; CItemContainer<CItemElem>::Swap2
  0010c	5f		 pop	 edi
$L272700:
  0010d	5e		 pop	 esi
  0010e	5d		 pop	 ebp
  0010f	5b		 pop	 ebx

; 879  : }

  00110	c2 08 00	 ret	 8
?Swap@?$CItemContainer@VCItemElem@@@@QAEXKK@Z ENDP	; CItemContainer<CItemElem>::Swap
_TEXT	ENDS
PUBLIC	?begin@?$_Tree@V?$_Tmap_traits@HU_CHAO_PROPENSITY@@U?$less@H@std@@V?$allocator@U?$pair@$$CBHU_CHAO_PROPENSITY@@@std@@@3@$0A@@std@@@std@@QAE?AViterator@12@XZ ; std::_Tree<std::_Tmap_traits<int,_CHAO_PROPENSITY,std::less<int>,std::allocator<std::pair<int const ,_CHAO_PROPENSITY> >,0> >::begin
; Function compile flags: /Ogty
; File c:\program files\microsoft visual studio .net 2003\vc7\include\xtree
;	COMDAT ?begin@?$_Tree@V?$_Tmap_traits@HU_CHAO_PROPENSITY@@U?$less@H@std@@V?$allocator@U?$pair@$$CBHU_CHAO_PROPENSITY@@@std@@@3@$0A@@std@@@std@@QAE?AViterator@12@XZ
_TEXT	SEGMENT
___$ReturnUdt$ = 8					; size = 4
?begin@?$_Tree@V?$_Tmap_traits@HU_CHAO_PROPENSITY@@U?$less@H@std@@V?$allocator@U?$pair@$$CBHU_CHAO_PROPENSITY@@@std@@@3@$0A@@std@@@std@@QAE?AViterator@12@XZ PROC NEAR ; std::_Tree<std::_Tmap_traits<int,_CHAO_PROPENSITY,std::less<int>,std::allocator<std::pair<int const ,_CHAO_PROPENSITY> >,0> >::begin, COMDAT
; _this$ = ecx

; 408  : 		return (_TREE_ITERATOR(_Lmost()));

  00000	8b 41 04	 mov	 eax, DWORD PTR [ecx+4]
  00003	8b 08		 mov	 ecx, DWORD PTR [eax]
  00005	8b 44 24 04	 mov	 eax, DWORD PTR ___$ReturnUdt$[esp-4]
  00009	89 08		 mov	 DWORD PTR [eax], ecx

; 409  : 		}

  0000b	c2 04 00	 ret	 4
?begin@?$_Tree@V?$_Tmap_traits@HU_CHAO_PROPENSITY@@U?$less@H@std@@V?$allocator@U?$pair@$$CBHU_CHAO_PROPENSITY@@@std@@@3@$0A@@std@@@std@@QAE?AViterator@12@XZ ENDP ; std::_Tree<std::_Tmap_traits<int,_CHAO_PROPENSITY,std::less<int>,std::allocator<std::pair<int const ,_CHAO_PROPENSITY> >,0> >::begin
_TEXT	ENDS
PUBLIC	?end@?$_Tree@V?$_Tmap_traits@HU_CHAO_PROPENSITY@@U?$less@H@std@@V?$allocator@U?$pair@$$CBHU_CHAO_PROPENSITY@@@std@@@3@$0A@@std@@@std@@QAE?AViterator@12@XZ ; std::_Tree<std::_Tmap_traits<int,_CHAO_PROPENSITY,std::less<int>,std::allocator<std::pair<int const ,_CHAO_PROPENSITY> >,0> >::end
; Function compile flags: /Ogty
;	COMDAT ?end@?$_Tree@V?$_Tmap_traits@HU_CHAO_PROPENSITY@@U?$less@H@std@@V?$allocator@U?$pair@$$CBHU_CHAO_PROPENSITY@@@std@@@3@$0A@@std@@@std@@QAE?AViterator@12@XZ
_TEXT	SEGMENT
___$ReturnUdt$ = 8					; size = 4
?end@?$_Tree@V?$_Tmap_traits@HU_CHAO_PROPENSITY@@U?$less@H@std@@V?$allocator@U?$pair@$$CBHU_CHAO_PROPENSITY@@@std@@@3@$0A@@std@@@std@@QAE?AViterator@12@XZ PROC NEAR ; std::_Tree<std::_Tmap_traits<int,_CHAO_PROPENSITY,std::less<int>,std::allocator<std::pair<int const ,_CHAO_PROPENSITY> >,0> >::end, COMDAT
; _this$ = ecx

; 418  : 		return (_TREE_ITERATOR(_Myhead));

  00000	8b 49 04	 mov	 ecx, DWORD PTR [ecx+4]
  00003	8b 44 24 04	 mov	 eax, DWORD PTR ___$ReturnUdt$[esp-4]
  00007	89 08		 mov	 DWORD PTR [eax], ecx

; 419  : 		}

  00009	c2 04 00	 ret	 4
?end@?$_Tree@V?$_Tmap_traits@HU_CHAO_PROPENSITY@@U?$less@H@std@@V?$allocator@U?$pair@$$CBHU_CHAO_PROPENSITY@@@std@@@3@$0A@@std@@@std@@QAE?AViterator@12@XZ ENDP ; std::_Tree<std::_Tmap_traits<int,_CHAO_PROPENSITY,std::less<int>,std::allocator<std::pair<int const ,_CHAO_PROPENSITY> >,0> >::end
_TEXT	ENDS
PUBLIC	??Citerator@?$_Tree@V?$_Tmap_traits@HU_CHAO_PROPENSITY@@U?$less@H@std@@V?$allocator@U?$pair@$$CBHU_CHAO_PROPENSITY@@@std@@@3@$0A@@std@@@std@@QBEPAU?$pair@$$CBHU_CHAO_PROPENSITY@@@2@XZ ; std::_Tree<std::_Tmap_traits<int,_CHAO_PROPENSITY,std::less<int>,std::allocator<std::pair<int const ,_CHAO_PROPENSITY> >,0> >::iterator::operator->
; Function compile flags: /Ogty
;	COMDAT ??Citerator@?$_Tree@V?$_Tmap_traits@HU_CHAO_PROPENSITY@@U?$less@H@std@@V?$allocator@U?$pair@$$CBHU_CHAO_PROPENSITY@@@std@@@3@$0A@@std@@@std@@QBEPAU?$pair@$$CBHU_CHAO_PROPENSITY@@@2@XZ
_TEXT	SEGMENT
??Citerator@?$_Tree@V?$_Tmap_traits@HU_CHAO_PROPENSITY@@U?$less@H@std@@V?$allocator@U?$pair@$$CBHU_CHAO_PROPENSITY@@@std@@@3@$0A@@std@@@std@@QBEPAU?$pair@$$CBHU_CHAO_PROPENSITY@@@2@XZ PROC NEAR ; std::_Tree<std::_Tmap_traits<int,_CHAO_PROPENSITY,std::less<int>,std::allocator<std::pair<int const ,_CHAO_PROPENSITY> >,0> >::iterator::operator->, COMDAT
; _this$ = ecx

; 322  : 			return (&**this);

  00000	8b 01		 mov	 eax, DWORD PTR [ecx]
  00002	83 c0 0c	 add	 eax, 12			; 0000000cH

; 323  : 			}

  00005	c3		 ret	 0
??Citerator@?$_Tree@V?$_Tmap_traits@HU_CHAO_PROPENSITY@@U?$less@H@std@@V?$allocator@U?$pair@$$CBHU_CHAO_PROPENSITY@@@std@@@3@$0A@@std@@@std@@QBEPAU?$pair@$$CBHU_CHAO_PROPENSITY@@@2@XZ ENDP ; std::_Tree<std::_Tmap_traits<int,_CHAO_PROPENSITY,std::less<int>,std::allocator<std::pair<int const ,_CHAO_PROPENSITY> >,0> >::iterator::operator->
_TEXT	ENDS
PUBLIC	?lower_bound@?$_Tree@V?$_Tmap_traits@HU_CHAO_PROPENSITY@@U?$less@H@std@@V?$allocator@U?$pair@$$CBHU_CHAO_PROPENSITY@@@std@@@3@$0A@@std@@@std@@QAE?AViterator@12@ABH@Z ; std::_Tree<std::_Tmap_traits<int,_CHAO_PROPENSITY,std::less<int>,std::allocator<std::pair<int const ,_CHAO_PROPENSITY> >,0> >::lower_bound
; Function compile flags: /Ogty
;	COMDAT ?lower_bound@?$_Tree@V?$_Tmap_traits@HU_CHAO_PROPENSITY@@U?$less@H@std@@V?$allocator@U?$pair@$$CBHU_CHAO_PROPENSITY@@@std@@@3@$0A@@std@@@std@@QAE?AViterator@12@ABH@Z
_TEXT	SEGMENT
___$ReturnUdt$ = 8					; size = 4
__Keyval$ = 12						; size = 4
?lower_bound@?$_Tree@V?$_Tmap_traits@HU_CHAO_PROPENSITY@@U?$less@H@std@@V?$allocator@U?$pair@$$CBHU_CHAO_PROPENSITY@@@std@@@3@$0A@@std@@@std@@QAE?AViterator@12@ABH@Z PROC NEAR ; std::_Tree<std::_Tmap_traits<int,_CHAO_PROPENSITY,std::less<int>,std::allocator<std::pair<int const ,_CHAO_PROPENSITY> >,0> >::lower_bound, COMDAT
; _this$ = ecx

; 810  : 		return (_TREE_ITERATOR(_Lbound(_Keyval)));

  00000	8b 49 04	 mov	 ecx, DWORD PTR [ecx+4]
  00003	8b 41 04	 mov	 eax, DWORD PTR [ecx+4]
  00006	8a 50 3d	 mov	 dl, BYTE PTR [eax+61]
  00009	84 d2		 test	 dl, dl
  0000b	75 1d		 jne	 SHORT $L276681
  0000d	8b 54 24 08	 mov	 edx, DWORD PTR __Keyval$[esp-4]
  00011	8b 12		 mov	 edx, DWORD PTR [edx]
  00013	53		 push	 ebx
$L276649:
  00014	39 50 0c	 cmp	 DWORD PTR [eax+12], edx
  00017	7d 05		 jge	 SHORT $L276651
  00019	8b 40 08	 mov	 eax, DWORD PTR [eax+8]
  0001c	eb 04		 jmp	 SHORT $L276652
$L276651:
  0001e	8b c8		 mov	 ecx, eax
  00020	8b 00		 mov	 eax, DWORD PTR [eax]
$L276652:
  00022	8a 58 3d	 mov	 bl, BYTE PTR [eax+61]
  00025	84 db		 test	 bl, bl
  00027	74 eb		 je	 SHORT $L276649
  00029	5b		 pop	 ebx
$L276681:
  0002a	8b 44 24 04	 mov	 eax, DWORD PTR ___$ReturnUdt$[esp-4]
  0002e	89 08		 mov	 DWORD PTR [eax], ecx

; 811  : 		}

  00030	c2 08 00	 ret	 8
?lower_bound@?$_Tree@V?$_Tmap_traits@HU_CHAO_PROPENSITY@@U?$less@H@std@@V?$allocator@U?$pair@$$CBHU_CHAO_PROPENSITY@@@std@@@3@$0A@@std@@@std@@QAE?AViterator@12@ABH@Z ENDP ; std::_Tree<std::_Tmap_traits<int,_CHAO_PROPENSITY,std::less<int>,std::allocator<std::pair<int const ,_CHAO_PROPENSITY> >,0> >::lower_bound
_TEXT	ENDS
PUBLIC	??Econst_iterator@?$_Tree@V?$_Tmap_traits@HU_CHAO_PROPENSITY@@U?$less@H@std@@V?$allocator@U?$pair@$$CBHU_CHAO_PROPENSITY@@@std@@@3@$0A@@std@@@std@@QAEAAV012@XZ ; std::_Tree<std::_Tmap_traits<int,_CHAO_PROPENSITY,std::less<int>,std::allocator<std::pair<int const ,_CHAO_PROPENSITY> >,0> >::const_iterator::operator++
; Function compile flags: /Ogty
;	COMDAT ??Econst_iterator@?$_Tree@V?$_Tmap_traits@HU_CHAO_PROPENSITY@@U?$less@H@std@@V?$allocator@U?$pair@$$CBHU_CHAO_PROPENSITY@@@std@@@3@$0A@@std@@@std@@QAEAAV012@XZ
_TEXT	SEGMENT
??Econst_iterator@?$_Tree@V?$_Tmap_traits@HU_CHAO_PROPENSITY@@U?$less@H@std@@V?$allocator@U?$pair@$$CBHU_CHAO_PROPENSITY@@@std@@@3@$0A@@std@@@std@@QAEAAV012@XZ PROC NEAR ; std::_Tree<std::_Tmap_traits<int,_CHAO_PROPENSITY,std::less<int>,std::allocator<std::pair<int const ,_CHAO_PROPENSITY> >,0> >::const_iterator::operator++, COMDAT
; _this$ = ecx

; 214  : 			{	// preincrement

  00000	56		 push	 esi
  00001	8b f1		 mov	 esi, ecx

; 215  : 			_Inc();

  00003	e8 00 00 00 00	 call	 ?_Inc@const_iterator@?$_Tree@V?$_Tmap_traits@HU_CHAO_PROPENSITY@@U?$less@H@std@@V?$allocator@U?$pair@$$CBHU_CHAO_PROPENSITY@@@std@@@3@$0A@@std@@@std@@QAEXXZ ; std::_Tree<std::_Tmap_traits<int,_CHAO_PROPENSITY,std::less<int>,std::allocator<std::pair<int const ,_CHAO_PROPENSITY> >,0> >::const_iterator::_Inc

; 216  : 			return (*this);

  00008	8b c6		 mov	 eax, esi
  0000a	5e		 pop	 esi

; 217  : 			}

  0000b	c3		 ret	 0
??Econst_iterator@?$_Tree@V?$_Tmap_traits@HU_CHAO_PROPENSITY@@U?$less@H@std@@V?$allocator@U?$pair@$$CBHU_CHAO_PROPENSITY@@@std@@@3@$0A@@std@@@std@@QAEAAV012@XZ ENDP ; std::_Tree<std::_Tmap_traits<int,_CHAO_PROPENSITY,std::less<int>,std::allocator<std::pair<int const ,_CHAO_PROPENSITY> >,0> >::const_iterator::operator++
_TEXT	ENDS
PUBLIC	?UpdateParts@CMover@@QAEXH@Z			; CMover::UpdateParts
EXTRN	?UpdateBoundBox@CObj@@QAEHXZ:NEAR		; CObj::UpdateBoundBox
EXTRN	?UpdateParam@CMover@@QAEXXZ:NEAR		; CMover::UpdateParam
; Function compile flags: /Ogty
; File c:\documents and settings\test\mes documents\source\virtuos_v17\build\program\_common\moverequip.cpp
;	COMDAT ?UpdateParts@CMover@@QAEXH@Z
_TEXT	SEGMENT
_bFakeParts$ = 8					; size = 4
?UpdateParts@CMover@@QAEXH@Z PROC NEAR			; CMover::UpdateParts, COMDAT
; _this$ = ecx

; 260  : 	UpdateParts( GetSex(), m_dwSkinSet, m_dwFace, m_dwHairMesh, m_dwHeadMesh, 
; 261  : 		m_aEquipInfo, (CModelObject*)m_pModel, bFakeParts ? NULL : &m_Inventory, GetProp()->bIfParts, this );

  00000	8b 44 24 04	 mov	 eax, DWORD PTR _bFakeParts$[esp-4]
  00004	85 c0		 test	 eax, eax
  00006	56		 push	 esi
  00007	57		 push	 edi
  00008	8b f1		 mov	 esi, ecx
  0000a	74 04		 je	 SHORT $L276688
  0000c	33 ff		 xor	 edi, edi
  0000e	eb 06		 jmp	 SHORT $L276689
$L276688:
  00010	8d be 90 0b 00
	00		 lea	 edi, DWORD PTR [esi+2960]
$L276689:
  00016	8b 86 74 01 00
	00		 mov	 eax, DWORD PTR [esi+372]
  0001c	85 c0		 test	 eax, eax
  0001e	8b 0d d0 01 00
	00		 mov	 ecx, DWORD PTR ?prj@@3VCProject@@A+464
  00024	7c 14		 jl	 SHORT $L276719
  00026	3b c1		 cmp	 eax, ecx
  00028	7d 10		 jge	 SHORT $L276719
  0002a	8b 0d d4 01 00
	00		 mov	 ecx, DWORD PTR ?prj@@3VCProject@@A+468
  00030	69 c0 d8 06 00
	00		 imul	 eax, 1752		; 000006d8H
  00036	03 c1		 add	 eax, ecx
  00038	eb 18		 jmp	 SHORT $L276714
$L276719:
  0003a	50		 push	 eax
  0003b	51		 push	 ecx
  0003c	6a 00		 push	 0
  0003e	68 00 00 00 00	 push	 OFFSET FLAT:??_C@_0BJ@GKPOBPPI@GetMoverProp?5range_error?$AA@
  00043	68 00 00 00 00	 push	 OFFSET FLAT:??_C@_0BM@HMFGHCP@?$CFs?5min?3?$CFd?0?5max?3?$CFd?0?5index?3?$CFd?$AA@
  00048	e8 00 00 00 00	 call	 ?Error@@YAPBDPBDZZ	; Error
  0004d	83 c4 14	 add	 esp, 20			; 00000014H
  00050	33 c0		 xor	 eax, eax
$L276714:
  00052	8b 80 98 00 00
	00		 mov	 eax, DWORD PTR [eax+152]
  00058	8b 8e 78 01 00
	00		 mov	 ecx, DWORD PTR [esi+376]
  0005e	56		 push	 esi
  0005f	50		 push	 eax
  00060	8b 86 34 06 00
	00		 mov	 eax, DWORD PTR [esi+1588]
  00066	57		 push	 edi
  00067	51		 push	 ecx
  00068	8b 8e 2c 06 00
	00		 mov	 ecx, DWORD PTR [esi+1580]
  0006e	8d 96 08 0c 00
	00		 lea	 edx, DWORD PTR [esi+3080]
  00074	52		 push	 edx
  00075	8b 96 28 06 00
	00		 mov	 edx, DWORD PTR [esi+1576]
  0007b	50		 push	 eax
  0007c	8b 86 24 06 00
	00		 mov	 eax, DWORD PTR [esi+1572]
  00082	51		 push	 ecx
  00083	0f b6 8e 20 06
	00 00		 movzx	 ecx, BYTE PTR [esi+1568]
  0008a	52		 push	 edx
  0008b	50		 push	 eax
  0008c	51		 push	 ecx
  0008d	e8 00 00 00 00	 call	 ?UpdateParts@CMover@@SAXHHHHHPAU_EQUIP_INFO@@PAVCModelObject@@PAV?$CItemContainer@VCItemElem@@@@HPAV1@@Z ; CMover::UpdateParts

; 262  : 	((CModelObject*)m_pModel)->RestoreDeviceObjects();

  00092	8b 8e 78 01 00
	00		 mov	 ecx, DWORD PTR [esi+376]
  00098	8b 11		 mov	 edx, DWORD PTR [ecx]
  0009a	83 c4 28	 add	 esp, 40			; 00000028H
  0009d	ff 52 5c	 call	 DWORD PTR [edx+92]

; 263  : 	UpdateBoundBox();

  000a0	8b ce		 mov	 ecx, esi
  000a2	e8 00 00 00 00	 call	 ?UpdateBoundBox@CObj@@QAEHXZ ; CObj::UpdateBoundBox

; 264  : 	UpdateParam();

  000a7	8b ce		 mov	 ecx, esi
  000a9	e8 00 00 00 00	 call	 ?UpdateParam@CMover@@QAEXXZ ; CMover::UpdateParam
  000ae	5f		 pop	 edi
  000af	5e		 pop	 esi

; 265  : }

  000b0	c2 04 00	 ret	 4
?UpdateParts@CMover@@QAEXH@Z ENDP			; CMover::UpdateParts
_TEXT	ENDS
PUBLIC	??A?$vector@U_SINGLE_DST@@V?$allocator@U_SINGLE_DST@@@std@@@std@@QAEAAU_SINGLE_DST@@I@Z ; std::vector<_SINGLE_DST,std::allocator<_SINGLE_DST> >::operator[]
; Function compile flags: /Ogty
; File c:\program files\microsoft visual studio .net 2003\vc7\include\vector
;	COMDAT ??A?$vector@U_SINGLE_DST@@V?$allocator@U_SINGLE_DST@@@std@@@std@@QAEAAU_SINGLE_DST@@I@Z
_TEXT	SEGMENT
__Pos$ = 8						; size = 4
??A?$vector@U_SINGLE_DST@@V?$allocator@U_SINGLE_DST@@@std@@@std@@QAEAAU_SINGLE_DST@@I@Z PROC NEAR ; std::vector<_SINGLE_DST,std::allocator<_SINGLE_DST> >::operator[], COMDAT
; _this$ = ecx

; 555  : 		return (*(begin() + _Pos));

  00000	8b 41 04	 mov	 eax, DWORD PTR [ecx+4]
  00003	8b 4c 24 04	 mov	 ecx, DWORD PTR __Pos$[esp-4]
  00007	8d 04 c8	 lea	 eax, DWORD PTR [eax+ecx*8]

; 556  : 		}

  0000a	c2 04 00	 ret	 4
??A?$vector@U_SINGLE_DST@@V?$allocator@U_SINGLE_DST@@@std@@@std@@QAEAAU_SINGLE_DST@@I@Z ENDP ; std::vector<_SINGLE_DST,std::allocator<_SINGLE_DST> >::operator[]
_TEXT	ENDS
PUBLIC	?find@?$_Tree@V?$_Tmap_traits@HU_CHAO_PROPENSITY@@U?$less@H@std@@V?$allocator@U?$pair@$$CBHU_CHAO_PROPENSITY@@@std@@@3@$0A@@std@@@std@@QAE?AViterator@12@ABH@Z ; std::_Tree<std::_Tmap_traits<int,_CHAO_PROPENSITY,std::less<int>,std::allocator<std::pair<int const ,_CHAO_PROPENSITY> >,0> >::find
; Function compile flags: /Ogty
; File c:\program files\microsoft visual studio .net 2003\vc7\include\xtree
;	COMDAT ?find@?$_Tree@V?$_Tmap_traits@HU_CHAO_PROPENSITY@@U?$less@H@std@@V?$allocator@U?$pair@$$CBHU_CHAO_PROPENSITY@@@std@@@3@$0A@@std@@@std@@QAE?AViterator@12@ABH@Z
_TEXT	SEGMENT
$T276769 = -4						; size = 4
___$ReturnUdt$ = 8					; size = 4
__Where$ = 12						; size = 4
__Keyval$ = 12						; size = 4
?find@?$_Tree@V?$_Tmap_traits@HU_CHAO_PROPENSITY@@U?$less@H@std@@V?$allocator@U?$pair@$$CBHU_CHAO_PROPENSITY@@@std@@@3@$0A@@std@@@std@@QAE?AViterator@12@ABH@Z PROC NEAR ; std::_Tree<std::_Tmap_traits<int,_CHAO_PROPENSITY,std::less<int>,std::allocator<std::pair<int const ,_CHAO_PROPENSITY> >,0> >::find, COMDAT
; _this$ = ecx

; 787  : 		{	// find an element in mutable sequence that matches _Keyval

  00000	51		 push	 ecx

; 788  : 		iterator _Where = lower_bound(_Keyval);

  00001	8b 51 04	 mov	 edx, DWORD PTR [ecx+4]
  00004	8b 42 04	 mov	 eax, DWORD PTR [edx+4]
  00007	53		 push	 ebx
  00008	8a 58 3d	 mov	 bl, BYTE PTR [eax+61]
  0000b	84 db		 test	 bl, bl
  0000d	56		 push	 esi
  0000e	57		 push	 edi
  0000f	8b 7c 24 18	 mov	 edi, DWORD PTR __Keyval$[esp+12]
  00013	75 17		 jne	 SHORT $L276845
  00015	8b 37		 mov	 esi, DWORD PTR [edi]
$L276844:
  00017	39 70 0c	 cmp	 DWORD PTR [eax+12], esi
  0001a	7d 05		 jge	 SHORT $L276846
  0001c	8b 40 08	 mov	 eax, DWORD PTR [eax+8]
  0001f	eb 04		 jmp	 SHORT $L276847
$L276846:
  00021	8b d0		 mov	 edx, eax
  00023	8b 00		 mov	 eax, DWORD PTR [eax]
$L276847:
  00025	8a 58 3d	 mov	 bl, BYTE PTR [eax+61]
  00028	84 db		 test	 bl, bl
  0002a	74 eb		 je	 SHORT $L276844
$L276845:

; 789  : 		return (_Where == end() || this->comp(_Keyval, _Key(_Where._Mynode()))
; 790  : 			? end() : _Where);

  0002c	8b 41 04	 mov	 eax, DWORD PTR [ecx+4]
  0002f	3b d0		 cmp	 edx, eax
  00031	89 54 24 18	 mov	 DWORD PTR __Where$[esp+12], edx
  00035	74 1a		 je	 SHORT $L276768
  00037	8b 0f		 mov	 ecx, DWORD PTR [edi]
  00039	3b 4a 0c	 cmp	 ecx, DWORD PTR [edx+12]
  0003c	7c 13		 jl	 SHORT $L276768
  0003e	8d 44 24 18	 lea	 eax, DWORD PTR __Where$[esp+12]
  00042	8b 10		 mov	 edx, DWORD PTR [eax]
  00044	8b 44 24 14	 mov	 eax, DWORD PTR ___$ReturnUdt$[esp+12]
  00048	5f		 pop	 edi
  00049	5e		 pop	 esi
  0004a	89 10		 mov	 DWORD PTR [eax], edx
  0004c	5b		 pop	 ebx

; 791  : 		}

  0004d	59		 pop	 ecx
  0004e	c2 08 00	 ret	 8
$L276768:

; 789  : 		return (_Where == end() || this->comp(_Keyval, _Key(_Where._Mynode()))
; 790  : 			? end() : _Where);

  00051	89 44 24 0c	 mov	 DWORD PTR $T276769[esp+16], eax
  00055	8d 44 24 0c	 lea	 eax, DWORD PTR $T276769[esp+16]
  00059	8b 10		 mov	 edx, DWORD PTR [eax]
  0005b	8b 44 24 14	 mov	 eax, DWORD PTR ___$ReturnUdt$[esp+12]
  0005f	5f		 pop	 edi
  00060	5e		 pop	 esi
  00061	89 10		 mov	 DWORD PTR [eax], edx
  00063	5b		 pop	 ebx

; 791  : 		}

  00064	59		 pop	 ecx
  00065	c2 08 00	 ret	 8
?find@?$_Tree@V?$_Tmap_traits@HU_CHAO_PROPENSITY@@U?$less@H@std@@V?$allocator@U?$pair@$$CBHU_CHAO_PROPENSITY@@@std@@@3@$0A@@std@@@std@@QAE?AViterator@12@ABH@Z ENDP ; std::_Tree<std::_Tmap_traits<int,_CHAO_PROPENSITY,std::less<int>,std::allocator<std::pair<int const ,_CHAO_PROPENSITY> >,0> >::find
_TEXT	ENDS
PUBLIC	??Eiterator@?$_Tree@V?$_Tmap_traits@HU_CHAO_PROPENSITY@@U?$less@H@std@@V?$allocator@U?$pair@$$CBHU_CHAO_PROPENSITY@@@std@@@3@$0A@@std@@@std@@QAEAAV012@XZ ; std::_Tree<std::_Tmap_traits<int,_CHAO_PROPENSITY,std::less<int>,std::allocator<std::pair<int const ,_CHAO_PROPENSITY> >,0> >::iterator::operator++
; Function compile flags: /Ogty
;	COMDAT ??Eiterator@?$_Tree@V?$_Tmap_traits@HU_CHAO_PROPENSITY@@U?$less@H@std@@V?$allocator@U?$pair@$$CBHU_CHAO_PROPENSITY@@@std@@@3@$0A@@std@@@std@@QAEAAV012@XZ
_TEXT	SEGMENT
??Eiterator@?$_Tree@V?$_Tmap_traits@HU_CHAO_PROPENSITY@@U?$less@H@std@@V?$allocator@U?$pair@$$CBHU_CHAO_PROPENSITY@@@std@@@3@$0A@@std@@@std@@QAEAAV012@XZ PROC NEAR ; std::_Tree<std::_Tmap_traits<int,_CHAO_PROPENSITY,std::less<int>,std::allocator<std::pair<int const ,_CHAO_PROPENSITY> >,0> >::iterator::operator++, COMDAT
; _this$ = ecx

; 326  : 			{	// preincrement

  00000	56		 push	 esi
  00001	8b f1		 mov	 esi, ecx

; 327  : 			++(*(const_iterator *)this);

  00003	e8 00 00 00 00	 call	 ?_Inc@const_iterator@?$_Tree@V?$_Tmap_traits@HU_CHAO_PROPENSITY@@U?$less@H@std@@V?$allocator@U?$pair@$$CBHU_CHAO_PROPENSITY@@@std@@@3@$0A@@std@@@std@@QAEXXZ ; std::_Tree<std::_Tmap_traits<int,_CHAO_PROPENSITY,std::less<int>,std::allocator<std::pair<int const ,_CHAO_PROPENSITY> >,0> >::const_iterator::_Inc

; 328  : 			return (*this);

  00008	8b c6		 mov	 eax, esi
  0000a	5e		 pop	 esi

; 329  : 			}

  0000b	c3		 ret	 0
??Eiterator@?$_Tree@V?$_Tmap_traits@HU_CHAO_PROPENSITY@@U?$less@H@std@@V?$allocator@U?$pair@$$CBHU_CHAO_PROPENSITY@@@std@@@3@$0A@@std@@@std@@QAEAAV012@XZ ENDP ; std::_Tree<std::_Tmap_traits<int,_CHAO_PROPENSITY,std::less<int>,std::allocator<std::pair<int const ,_CHAO_PROPENSITY> >,0> >::iterator::operator++
_TEXT	ENDS
PUBLIC	?SetDestParamEquip@CMover@@QAEXPAUItemProp@@PAVCItemElem@@H@Z ; CMover::SetDestParamEquip
EXTRN	?AddBuff@CMover@@QAEHGGKKK@Z:NEAR		; CMover::AddBuff
EXTRN	?RunItemScript@@YAHPAVCMover@@KW4ITEM_OP@@PAH@Z:NEAR ; RunItemScript
EXTRN	?SetDestParam@CMover@@QAEXHHHH@Z:NEAR		; CMover::SetDestParam
EXTRN	?SetDestParam@CMover@@QAEXHPAUItemProp@@H@Z:NEAR ; CMover::SetDestParam
EXTRN	?GetSetItem@CMover@@QAEHPAVCItemElem@@@Z:NEAR	; CMover::GetSetItem
EXTRN	?SetSetItemAvail@CMover@@QAEXH@Z:NEAR		; CMover::SetSetItemAvail
EXTRN	?DestParamPiercingAvail@CMover@@QAEXPAVCItemElem@@H@Z:NEAR ; CMover::DestParamPiercingAvail
EXTRN	?SetDestParamSetItem@CMover@@QAEXPAVCItemElem@@@Z:NEAR ; CMover::SetDestParamSetItem
EXTRN	?SetDestParamRandomOpt@CMover@@QAEXPAVCItemElem@@@Z:NEAR ; CMover::SetDestParamRandomOpt
EXTRN	?GetDst@CAccessoryProperty@@QAEPAV?$vector@U_SINGLE_DST@@V?$allocator@U_SINGLE_DST@@@std@@@std@@KH@Z:NEAR ; CAccessoryProperty::GetDst
; Function compile flags: /Ogty
; File c:\documents and settings\test\mes documents\source\virtuos_v17\build\program\_common\moverequip.cpp
;	COMDAT ?SetDestParamEquip@CMover@@QAEXPAUItemProp@@PAVCItemElem@@H@Z
_TEXT	SEGMENT
_pItemProp$ = 8						; size = 4
_pItemElem$ = 12					; size = 4
_bIgnoreSetItem$ = 16					; size = 4
?SetDestParamEquip@CMover@@QAEXPAUItemProp@@PAVCItemElem@@H@Z PROC NEAR ; CMover::SetDestParamEquip, COMDAT
; _this$ = ecx

; 2159 : {

  00000	53		 push	 ebx

; 2160 : 	if( pItemElem && pItemElem->IsFlag( CItemElem::expired ) )

  00001	8b 5c 24 0c	 mov	 ebx, DWORD PTR _pItemElem$[esp]
  00005	85 db		 test	 ebx, ebx
  00007	56		 push	 esi
  00008	8b f1		 mov	 esi, ecx
  0000a	74 0d		 je	 SHORT $L269166
  0000c	f6 83 82 00 00
	00 01		 test	 BYTE PTR [ebx+130], 1
  00013	0f 85 86 02 00
	00		 jne	 $L269454
$L269166:
  00019	55		 push	 ebp

; 2161 : 		return;
; 2162 : 
; 2163 : #ifdef __WORLDSERVER
; 2164 : 	RunItemScript( this, pItemProp->dwID, ITEM_OP_EQUIP, NULL );

  0001a	8b 6c 24 10	 mov	 ebp, DWORD PTR _pItemProp$[esp+8]
  0001e	8b 45 00	 mov	 eax, DWORD PTR [ebp]
  00021	57		 push	 edi
  00022	6a 00		 push	 0
  00024	6a 00		 push	 0
  00026	50		 push	 eax
  00027	56		 push	 esi
  00028	e8 00 00 00 00	 call	 ?RunItemScript@@YAHPAVCMover@@KW4ITEM_OP@@PAH@Z ; RunItemScript

; 2165 : #endif // __WORLDSERVER
; 2166 : 
; 2167 : 	if( pItemProp->dwDestParam[0] != -1 )

  0002d	8b 85 40 01 00
	00		 mov	 eax, DWORD PTR [ebp+320]
  00033	83 cf ff	 or	 edi, -1
  00036	83 c4 10	 add	 esp, 16			; 00000010H
  00039	3b c7		 cmp	 eax, edi
  0003b	74 0c		 je	 SHORT $L277068

; 2168 : 		SetDestParam( 0, pItemProp, 1 );

  0003d	6a 01		 push	 1
  0003f	55		 push	 ebp
  00040	6a 00		 push	 0
  00042	8b ce		 mov	 ecx, esi
  00044	e8 00 00 00 00	 call	 ?SetDestParam@CMover@@QAEXHPAUItemProp@@H@Z ; CMover::SetDestParam
$L277068:

; 2169 : 	if( pItemProp->dwDestParam[1] != -1 )

  00049	39 bd 44 01 00
	00		 cmp	 DWORD PTR [ebp+324], edi
  0004f	74 0c		 je	 SHORT $L269168

; 2170 : 		SetDestParam( 1, pItemProp );

  00051	6a 01		 push	 1
  00053	55		 push	 ebp
  00054	6a 01		 push	 1
  00056	8b ce		 mov	 ecx, esi
  00058	e8 00 00 00 00	 call	 ?SetDestParam@CMover@@QAEXHPAUItemProp@@H@Z ; CMover::SetDestParam
$L269168:

; 2171 : #ifdef __PROP_0827
; 2172 : 	if( pItemProp->dwDestParam[2] != -1 )

  0005d	39 bd 48 01 00
	00		 cmp	 DWORD PTR [ebp+328], edi
  00063	74 0c		 je	 SHORT $L269169

; 2173 : 		SetDestParam( 2, pItemProp );

  00065	6a 01		 push	 1
  00067	55		 push	 ebp
  00068	6a 02		 push	 2
  0006a	8b ce		 mov	 ecx, esi
  0006c	e8 00 00 00 00	 call	 ?SetDestParam@CMover@@QAEXHPAUItemProp@@H@Z ; CMover::SetDestParam
$L269169:

; 2174 : #endif	// __PROP_0827
; 2175 : #if __VER >= 19
; 2176 : 	if( pItemProp->dwDestParam[3] != -1 )

  00071	39 bd 4c 01 00
	00		 cmp	 DWORD PTR [ebp+332], edi
  00077	74 0c		 je	 SHORT $L269170

; 2177 : 		SetDestParam( 3, pItemProp, 1 );

  00079	6a 01		 push	 1
  0007b	55		 push	 ebp
  0007c	6a 03		 push	 3
  0007e	8b ce		 mov	 ecx, esi
  00080	e8 00 00 00 00	 call	 ?SetDestParam@CMover@@QAEXHPAUItemProp@@H@Z ; CMover::SetDestParam
$L269170:

; 2178 : 	if( pItemProp->dwDestParam[4] != -1 )

  00085	39 bd 50 01 00
	00		 cmp	 DWORD PTR [ebp+336], edi
  0008b	74 0c		 je	 SHORT $L277069

; 2179 : 		SetDestParam( 4, pItemProp );

  0008d	6a 01		 push	 1
  0008f	55		 push	 ebp
  00090	6a 04		 push	 4
  00092	8b ce		 mov	 ecx, esi
  00094	e8 00 00 00 00	 call	 ?SetDestParam@CMover@@QAEXHPAUItemProp@@H@Z ; CMover::SetDestParam
$L277069:

; 2180 : 	if( pItemProp->dwDestParam[5] != -1 )

  00099	39 bd 54 01 00
	00		 cmp	 DWORD PTR [ebp+340], edi
  0009f	74 0c		 je	 SHORT $L277074

; 2181 : 		SetDestParam( 5, pItemProp );	

  000a1	6a 01		 push	 1
  000a3	55		 push	 ebp
  000a4	6a 05		 push	 5
  000a6	8b ce		 mov	 ecx, esi
  000a8	e8 00 00 00 00	 call	 ?SetDestParam@CMover@@QAEXHPAUItemProp@@H@Z ; CMover::SetDestParam
$L277074:

; 2182 : #endif// __VER >= 19
; 2183 : 
; 2184 : 	//     .
; 2185 : 	
; 2186 : 	//   ...
; 2187 : 	if( pItemElem && pItemElem->m_nResistAbilityOption && pItemElem->GetProp()->dwItemKind1 == IK1_ARMOR )

  000ad	85 db		 test	 ebx, ebx
  000af	74 6b		 je	 SHORT $L269173
  000b1	8b 83 8c 00 00
	00		 mov	 eax, DWORD PTR [ebx+140]
  000b7	85 c0		 test	 eax, eax
  000b9	74 61		 je	 SHORT $L269173
  000bb	8b cb		 mov	 ecx, ebx
  000bd	e8 00 00 00 00	 call	 ?GetPropA@CItemElem@@QAEPAUItemProp@@XZ ; CItemElem::GetPropA
  000c2	83 78 70 02	 cmp	 DWORD PTR [eax+112], 2
  000c6	75 54		 jne	 SHORT $L269173

; 2188 : 	{
; 2189 : 		if( pItemElem->m_bItemResist != SAI79::NO_PROP )
; 2190 : 		{
; 2191 : 			int nStrong = GetStrongDST( pItemElem->m_bItemResist );

  000c8	33 c9		 xor	 ecx, ecx
  000ca	8a 8b 88 00 00
	00		 mov	 cl, BYTE PTR [ebx+136]
  000d0	84 c9		 test	 cl, cl
  000d2	0f 84 cb 00 00
	00		 je	 $L269182
  000d8	51		 push	 ecx
  000d9	e8 00 00 00 00	 call	 ?GetStrongDST@@YAHE@Z	; GetStrongDST

; 2192 : 			int nWeak   = GetWeakDST( pItemElem->m_bItemResist );
; 2193 : 
; 2194 : 			SetDestParam( nWeak,  -pItemElem->m_nResistAbilityOption*2, NULL_CHGPARAM );

  000de	8b 93 8c 00 00
	00		 mov	 edx, DWORD PTR [ebx+140]
  000e4	83 c4 04	 add	 esp, 4
  000e7	6a 01		 push	 1
  000e9	f7 da		 neg	 edx
  000eb	68 ff ff ff 7f	 push	 2147483647		; 7fffffffH
  000f0	d1 e2		 shl	 edx, 1
  000f2	52		 push	 edx
  000f3	51		 push	 ecx
  000f4	8b f8		 mov	 edi, eax
  000f6	e8 00 00 00 00	 call	 ?GetWeakDST@@YAHE@Z	; GetWeakDST
  000fb	83 c4 04	 add	 esp, 4
  000fe	50		 push	 eax
  000ff	8b ce		 mov	 ecx, esi
  00101	e8 00 00 00 00	 call	 ?SetDestParam@CMover@@QAEXHHHH@Z ; CMover::SetDestParam

; 2195 : 			SetDestParam( nStrong, pItemElem->m_nResistAbilityOption*2, NULL_CHGPARAM );

  00106	8b 83 8c 00 00
	00		 mov	 eax, DWORD PTR [ebx+140]
  0010c	6a 01		 push	 1
  0010e	68 ff ff ff 7f	 push	 2147483647		; 7fffffffH
  00113	d1 e0		 shl	 eax, 1
  00115	50		 push	 eax
  00116	57		 push	 edi

; 2196 : 		}
; 2197 : 	}
; 2198 : 	else

  00117	e9 80 00 00 00	 jmp	 $L277078
$L269173:

; 2199 : 	{
; 2200 : 		if( pItemProp->nItemResistElecricity )

  0011c	8b 85 1c 02 00
	00		 mov	 eax, DWORD PTR [ebp+540]
  00122	85 c0		 test	 eax, eax
  00124	74 11		 je	 SHORT $L277070

; 2201 : 			SetDestParam( DST_RESIST_ELECTRICITY, pItemProp->nItemResistElecricity, NULL_CHGPARAM );

  00126	6a 01		 push	 1
  00128	68 ff ff ff 7f	 push	 2147483647		; 7fffffffH
  0012d	50		 push	 eax
  0012e	6a 1c		 push	 28			; 0000001cH
  00130	8b ce		 mov	 ecx, esi
  00132	e8 00 00 00 00	 call	 ?SetDestParam@CMover@@QAEXHHHH@Z ; CMover::SetDestParam
$L277070:

; 2202 : 		if( pItemProp->nItemResistFire )

  00137	8b 85 24 02 00
	00		 mov	 eax, DWORD PTR [ebp+548]
  0013d	85 c0		 test	 eax, eax
  0013f	74 11		 je	 SHORT $L277075

; 2203 : 			SetDestParam( DST_RESIST_FIRE, pItemProp->nItemResistFire, NULL_CHGPARAM );

  00141	6a 01		 push	 1
  00143	68 ff ff ff 7f	 push	 2147483647		; 7fffffffH
  00148	50		 push	 eax
  00149	6a 1e		 push	 30			; 0000001eH
  0014b	8b ce		 mov	 ecx, esi
  0014d	e8 00 00 00 00	 call	 ?SetDestParam@CMover@@QAEXHHHH@Z ; CMover::SetDestParam
$L277075:

; 2204 : 		if( pItemProp->nItemResistWind )

  00152	8b 85 28 02 00
	00		 mov	 eax, DWORD PTR [ebp+552]
  00158	85 c0		 test	 eax, eax
  0015a	74 11		 je	 SHORT $L277076

; 2205 : 			SetDestParam( DST_RESIST_WIND, pItemProp->nItemResistWind, NULL_CHGPARAM );

  0015c	6a 01		 push	 1
  0015e	68 ff ff ff 7f	 push	 2147483647		; 7fffffffH
  00163	50		 push	 eax
  00164	6a 1f		 push	 31			; 0000001fH
  00166	8b ce		 mov	 ecx, esi
  00168	e8 00 00 00 00	 call	 ?SetDestParam@CMover@@QAEXHHHH@Z ; CMover::SetDestParam
$L277076:

; 2206 : 		if( pItemProp->nItemResistWater )

  0016d	8b 85 2c 02 00
	00		 mov	 eax, DWORD PTR [ebp+556]
  00173	85 c0		 test	 eax, eax
  00175	74 11		 je	 SHORT $L277077

; 2207 : 			SetDestParam( DST_RESIST_WATER, pItemProp->nItemResistWater, NULL_CHGPARAM );

  00177	6a 01		 push	 1
  00179	68 ff ff ff 7f	 push	 2147483647		; 7fffffffH
  0017e	50		 push	 eax
  0017f	6a 20		 push	 32			; 00000020H
  00181	8b ce		 mov	 ecx, esi
  00183	e8 00 00 00 00	 call	 ?SetDestParam@CMover@@QAEXHHHH@Z ; CMover::SetDestParam
$L277077:

; 2208 : 		if( pItemProp->nItemResistEarth )

  00188	8b 85 30 02 00
	00		 mov	 eax, DWORD PTR [ebp+560]
  0018e	85 c0		 test	 eax, eax
  00190	74 11		 je	 SHORT $L269182

; 2209 : 			SetDestParam( DST_RESIST_EARTH, pItemProp->nItemResistEarth, NULL_CHGPARAM );

  00192	6a 01		 push	 1
  00194	68 ff ff ff 7f	 push	 2147483647		; 7fffffffH
  00199	50		 push	 eax
  0019a	6a 21		 push	 33			; 00000021H
$L277078:
  0019c	8b ce		 mov	 ecx, esi
  0019e	e8 00 00 00 00	 call	 ?SetDestParam@CMover@@QAEXHHHH@Z ; CMover::SetDestParam
$L269182:

; 2210 : 	}
; 2211 : 
; 2212 : #if __VER >= 11 // __SYS_COLLECTING
; 2213 : 	CAccessoryProperty* pProperty	= CAccessoryProperty::GetInstance();

  001a3	e8 00 00 00 00	 call	 ?GetInstance@CAccessoryProperty@@SAPAV1@XZ ; CAccessoryProperty::GetInstance

; 2214 : 	if( pItemElem && pItemElem->IsAccessory() )		// 

  001a8	85 db		 test	 ebx, ebx
  001aa	8b f8		 mov	 edi, eax
  001ac	74 58		 je	 SHORT $L277072
  001ae	8b 4b 0c	 mov	 ecx, DWORD PTR [ebx+12]
  001b1	51		 push	 ecx
  001b2	e8 00 00 00 00	 call	 ?GetInstance@CAccessoryProperty@@SAPAV1@XZ ; CAccessoryProperty::GetInstance
  001b7	8b c8		 mov	 ecx, eax
  001b9	e8 00 00 00 00	 call	 ?IsAccessory@CAccessoryProperty@@QAEHK@Z ; CAccessoryProperty::IsAccessory
  001be	85 c0		 test	 eax, eax
  001c0	74 44		 je	 SHORT $L277072

; 2215 : 	{
; 2216 : 		vector<SINGLE_DST>* pDst	= pProperty->GetDst( pItemElem->m_dwItemId, pItemElem->GetAbilityOption() );

  001c2	8b 43 70	 mov	 eax, DWORD PTR [ebx+112]
  001c5	8b 53 0c	 mov	 edx, DWORD PTR [ebx+12]
  001c8	50		 push	 eax
  001c9	52		 push	 edx
  001ca	8b cf		 mov	 ecx, edi
  001cc	e8 00 00 00 00	 call	 ?GetDst@CAccessoryProperty@@QAEPAV?$vector@U_SINGLE_DST@@V?$allocator@U_SINGLE_DST@@@std@@@std@@KH@Z ; CAccessoryProperty::GetDst
  001d1	8b d8		 mov	 ebx, eax

; 2217 : 		for( DWORD i = 0; i < pDst->size(); i++ )

  001d3	33 ff		 xor	 edi, edi
$L269443:
  001d5	8b 4b 04	 mov	 ecx, DWORD PTR [ebx+4]
  001d8	85 c9		 test	 ecx, ecx
  001da	74 26		 je	 SHORT $L277071
  001dc	8b 43 08	 mov	 eax, DWORD PTR [ebx+8]
  001df	2b c1		 sub	 eax, ecx
  001e1	c1 f8 03	 sar	 eax, 3
  001e4	3b f8		 cmp	 edi, eax
  001e6	73 1a		 jae	 SHORT $L277071

; 2218 : 			SetDestParam( (*pDst)[i].nDst, (*pDst)[i].nAdj, NULL_CHGPARAM );

  001e8	8b 44 f9 04	 mov	 eax, DWORD PTR [ecx+edi*8+4]
  001ec	8b 0c f9	 mov	 ecx, DWORD PTR [ecx+edi*8]
  001ef	6a 01		 push	 1
  001f1	68 ff ff ff 7f	 push	 2147483647		; 7fffffffH
  001f6	50		 push	 eax
  001f7	51		 push	 ecx
  001f8	8b ce		 mov	 ecx, esi
  001fa	e8 00 00 00 00	 call	 ?SetDestParam@CMover@@QAEXHHHH@Z ; CMover::SetDestParam
  001ff	47		 inc	 edi
  00200	eb d3		 jmp	 SHORT $L269443
$L277071:

; 2217 : 		for( DWORD i = 0; i < pDst->size(); i++ )

  00202	8b 5c 24 18	 mov	 ebx, DWORD PTR _pItemElem$[esp+12]
$L277072:

; 2219 : 	}
; 2220 : #endif	// __SYS_COLLECTING
; 2221 : 
; 2222 : #ifdef __WORLDSERVER
; 2223 : #ifdef __DST_GIFTBOX
; 2224 : 	if( pItemProp->dwDestParam[0] == DST_GIFTBOX || pItemProp->dwDestParam[1] == DST_GIFTBOX || pItemProp->dwDestParam[2] == DST_GIFTBOX
; 2225 : 	 || pItemProp->dwDestParam[3] == DST_GIFTBOX || pItemProp->dwDestParam[4] == DST_GIFTBOX || pItemProp->dwDestParam[5] == DST_GIFTBOX )

  00206	8b 8d 40 01 00
	00		 mov	 ecx, DWORD PTR [ebp+320]
  0020c	b8 5c 00 00 00	 mov	 eax, 92			; 0000005cH
  00211	3b c8		 cmp	 ecx, eax
  00213	74 28		 je	 SHORT $L269447
  00215	39 85 44 01 00
	00		 cmp	 DWORD PTR [ebp+324], eax
  0021b	74 20		 je	 SHORT $L269447
  0021d	39 85 48 01 00
	00		 cmp	 DWORD PTR [ebp+328], eax
  00223	74 18		 je	 SHORT $L269447
  00225	39 85 4c 01 00
	00		 cmp	 DWORD PTR [ebp+332], eax
  0022b	74 10		 je	 SHORT $L269447
  0022d	39 85 50 01 00
	00		 cmp	 DWORD PTR [ebp+336], eax
  00233	74 08		 je	 SHORT $L269447
  00235	39 85 54 01 00
	00		 cmp	 DWORD PTR [ebp+340], eax
  0023b	75 19		 jne	 SHORT $L277073
$L269447:

; 2226 : 		static_cast<CUser*>( this )->AddBuff( BUFF_EQUIP, (WORD)( pItemProp->dwID ), 1, 999999999 );

  0023d	33 d2		 xor	 edx, edx
  0023f	66 8b 55 00	 mov	 dx, WORD PTR [ebp]
  00243	6a ff		 push	 -1
  00245	68 ff c9 9a 3b	 push	 999999999		; 3b9ac9ffH
  0024a	6a 01		 push	 1
  0024c	8b ce		 mov	 ecx, esi
  0024e	52		 push	 edx
  0024f	6a 04		 push	 4
  00251	e8 00 00 00 00	 call	 ?AddBuff@CMover@@QAEHGGKKK@Z ; CMover::AddBuff
$L277073:

; 2227 : #endif // __DST_GIFTBOX
; 2228 : #endif // __WORLDSERVER
; 2229 : 
; 2230 : 	if( !bIgnoreSetItem )

  00256	8b 44 24 1c	 mov	 eax, DWORD PTR _bIgnoreSetItem$[esp+12]
  0025a	85 c0		 test	 eax, eax
  0025c	5f		 pop	 edi
  0025d	5d		 pop	 ebp
  0025e	75 20		 jne	 SHORT $L269451

; 2231 : 	{
; 2232 : 		if( pItemElem )

  00260	85 db		 test	 ebx, ebx
  00262	74 3b		 je	 SHORT $L269454

; 2233 : 		{
; 2234 : 			int nAbilityOption	= GetSetItem( pItemElem );

  00264	53		 push	 ebx
  00265	8b ce		 mov	 ecx, esi
  00267	e8 00 00 00 00	 call	 ?GetSetItem@CMover@@QAEHPAVCItemElem@@@Z ; CMover::GetSetItem

; 2235 : 			if( nAbilityOption > 0 )

  0026c	85 c0		 test	 eax, eax
  0026e	7e 08		 jle	 SHORT $L269453

; 2236 : 				SetSetItemAvail( nAbilityOption );

  00270	50		 push	 eax
  00271	8b ce		 mov	 ecx, esi
  00273	e8 00 00 00 00	 call	 ?SetSetItemAvail@CMover@@QAEXH@Z ; CMover::SetSetItemAvail
$L269453:

; 2237 : 			SetDestParamSetItem( pItemElem );

  00278	53		 push	 ebx
  00279	8b ce		 mov	 ecx, esi
  0027b	e8 00 00 00 00	 call	 ?SetDestParamSetItem@CMover@@QAEXPAVCItemElem@@@Z ; CMover::SetDestParamSetItem
$L269451:

; 2238 : 		}
; 2239 : 	}
; 2240 : 
; 2241 : 	if( pItemElem && !pItemElem->IsFlag( CItemElem::expired ) )

  00280	85 db		 test	 ebx, ebx
  00282	74 1b		 je	 SHORT $L269454
  00284	f6 83 82 00 00
	00 01		 test	 BYTE PTR [ebx+130], 1
  0028b	75 12		 jne	 SHORT $L269454

; 2242 : 	{
; 2243 : 		DestParamPiercingAvail( pItemElem, TRUE );

  0028d	6a 01		 push	 1
  0028f	53		 push	 ebx
  00290	8b ce		 mov	 ecx, esi
  00292	e8 00 00 00 00	 call	 ?DestParamPiercingAvail@CMover@@QAEXPAVCItemElem@@H@Z ; CMover::DestParamPiercingAvail

; 2244 : 		SetDestParamRandomOpt( pItemElem );

  00297	53		 push	 ebx
  00298	8b ce		 mov	 ecx, esi
  0029a	e8 00 00 00 00	 call	 ?SetDestParamRandomOpt@CMover@@QAEXPAVCItemElem@@@Z ; CMover::SetDestParamRandomOpt
$L269454:
  0029f	5e		 pop	 esi
  002a0	5b		 pop	 ebx

; 2245 : 	}
; 2246 : }

  002a1	c2 0c 00	 ret	 12			; 0000000cH
?SetDestParamEquip@CMover@@QAEXPAUItemProp@@PAVCItemElem@@H@Z ENDP ; CMover::SetDestParamEquip
_TEXT	ENDS
PUBLIC	?ResetDestParamEquip@CMover@@QAEXPAUItemProp@@PAVCItemElem@@@Z ; CMover::ResetDestParamEquip
PUBLIC	__real@3c23d70a
PUBLIC	__real@3f333333
PUBLIC	__real@3f99999a
EXTRN	?GetLanguage@@YAHXZ:NEAR			; GetLanguage
EXTRN	?RemoveBuff@CMover@@QAEXGG@Z:NEAR		; CMover::RemoveBuff
EXTRN	?ResetDestParam@CMover@@QAEXHHH@Z:NEAR		; CMover::ResetDestParam
EXTRN	?ResetSetItemAvail@CMover@@QAEXH@Z:NEAR		; CMover::ResetSetItemAvail
EXTRN	?ResetDestParamSetItem@CMover@@QAEXPAVCItemElem@@@Z:NEAR ; CMover::ResetDestParamSetItem
EXTRN	?ResetDestParamRandomOpt@CMover@@QAEXPAVCItemElem@@@Z:NEAR ; CMover::ResetDestParamRandomOpt
;	COMDAT __real@3c23d70a
; File c:\program files\microsoft visual studio .net 2003\vc7\include\vector
CONST	SEGMENT
__real@3c23d70a DD 03c23d70ar			; 0.01
CONST	ENDS
;	COMDAT __real@3f333333
CONST	SEGMENT
__real@3f333333 DD 03f333333r			; 0.7
CONST	ENDS
;	COMDAT __real@3f99999a
CONST	SEGMENT
__real@3f99999a DD 03f99999ar			; 1.2
; Function compile flags: /Ogty
; File c:\documents and settings\test\mes documents\source\virtuos_v17\build\program\_common\moverequip.cpp
CONST	ENDS
;	COMDAT ?ResetDestParamEquip@CMover@@QAEXPAUItemProp@@PAVCItemElem@@@Z
_TEXT	SEGMENT
_nWeak$269471 = -4					; size = 4
_nSelf$269469 = 8					; size = 4
_pItemProp$ = 8						; size = 4
_pItemElem$ = 12					; size = 4
?ResetDestParamEquip@CMover@@QAEXPAUItemProp@@PAVCItemElem@@@Z PROC NEAR ; CMover::ResetDestParamEquip, COMDAT
; _this$ = ecx

; 2249 : {

  00000	51		 push	 ecx
  00001	55		 push	 ebp

; 2250 : 	if( pItemElem && pItemElem->IsFlag( CItemElem::expired ) )

  00002	8b 6c 24 10	 mov	 ebp, DWORD PTR _pItemElem$[esp+4]
  00006	85 ed		 test	 ebp, ebp
  00008	56		 push	 esi
  00009	8b f1		 mov	 esi, ecx
  0000b	74 0d		 je	 SHORT $L269460
  0000d	f6 85 82 00 00
	00 01		 test	 BYTE PTR [ebp+130], 1
  00014	0f 85 09 03 00
	00		 jne	 $L269485
$L269460:
  0001a	57		 push	 edi

; 2251 : 		return;
; 2252 : 
; 2253 : #ifdef __WORLDSERVER
; 2254 : 	RunItemScript( this, pItemProp->dwID, ITEM_OP_UNEQUIP, NULL );

  0001b	8b 7c 24 14	 mov	 edi, DWORD PTR _pItemProp$[esp+12]
  0001f	8b 07		 mov	 eax, DWORD PTR [edi]
  00021	6a 00		 push	 0
  00023	6a 01		 push	 1
  00025	50		 push	 eax
  00026	56		 push	 esi
  00027	e8 00 00 00 00	 call	 ?RunItemScript@@YAHPAVCMover@@KW4ITEM_OP@@PAH@Z ; RunItemScript

; 2255 : #endif // __WORLDSERVER
; 2256 : 
; 2257 : 	if( pItemProp->dwDestParam1 != -1 )

  0002c	8b 87 40 01 00
	00		 mov	 eax, DWORD PTR [edi+320]
  00032	83 c4 10	 add	 esp, 16			; 00000010H
  00035	83 f8 ff	 cmp	 eax, -1
  00038	74 11		 je	 SHORT $L269461

; 2258 : 		ResetDestParam( pItemProp->dwDestParam1, pItemProp->nAdjParamVal1 );

  0003a	8b 8f 58 01 00
	00		 mov	 ecx, DWORD PTR [edi+344]
  00040	6a 01		 push	 1
  00042	51		 push	 ecx
  00043	50		 push	 eax
  00044	8b ce		 mov	 ecx, esi
  00046	e8 00 00 00 00	 call	 ?ResetDestParam@CMover@@QAEXHHH@Z ; CMover::ResetDestParam
$L269461:

; 2259 : 	if( pItemProp->dwDestParam2 != -1 )

  0004b	8b 87 44 01 00
	00		 mov	 eax, DWORD PTR [edi+324]
  00051	83 f8 ff	 cmp	 eax, -1
  00054	74 11		 je	 SHORT $L269462

; 2260 : 		ResetDestParam( pItemProp->dwDestParam2, pItemProp->nAdjParamVal2 );

  00056	8b 97 5c 01 00
	00		 mov	 edx, DWORD PTR [edi+348]
  0005c	6a 01		 push	 1
  0005e	52		 push	 edx
  0005f	50		 push	 eax
  00060	8b ce		 mov	 ecx, esi
  00062	e8 00 00 00 00	 call	 ?ResetDestParam@CMover@@QAEXHHH@Z ; CMover::ResetDestParam
$L269462:

; 2261 : #ifdef __PROP_0827
; 2262 : 	if( pItemProp->dwDestParam3 != -1 )

  00067	8b 87 48 01 00
	00		 mov	 eax, DWORD PTR [edi+328]
  0006d	83 f8 ff	 cmp	 eax, -1
  00070	74 11		 je	 SHORT $L269463

; 2263 : 		ResetDestParam( pItemProp->dwDestParam3, pItemProp->nAdjParamVal3 );

  00072	8b 8f 60 01 00
	00		 mov	 ecx, DWORD PTR [edi+352]
  00078	6a 01		 push	 1
  0007a	51		 push	 ecx
  0007b	50		 push	 eax
  0007c	8b ce		 mov	 ecx, esi
  0007e	e8 00 00 00 00	 call	 ?ResetDestParam@CMover@@QAEXHHH@Z ; CMover::ResetDestParam
$L269463:

; 2264 : #endif	// __PROP_0827
; 2265 : #if __VER >= 19
; 2266 : 	if( pItemProp->dwDestParam4 != -1 )

  00083	8b 87 4c 01 00
	00		 mov	 eax, DWORD PTR [edi+332]
  00089	83 f8 ff	 cmp	 eax, -1
  0008c	74 11		 je	 SHORT $L269464

; 2267 : 		ResetDestParam( pItemProp->dwDestParam4, pItemProp->nAdjParamVal4 );

  0008e	8b 97 64 01 00
	00		 mov	 edx, DWORD PTR [edi+356]
  00094	6a 01		 push	 1
  00096	52		 push	 edx
  00097	50		 push	 eax
  00098	8b ce		 mov	 ecx, esi
  0009a	e8 00 00 00 00	 call	 ?ResetDestParam@CMover@@QAEXHHH@Z ; CMover::ResetDestParam
$L269464:

; 2268 : 	if( pItemProp->dwDestParam5 != -1 )

  0009f	8b 87 50 01 00
	00		 mov	 eax, DWORD PTR [edi+336]
  000a5	83 f8 ff	 cmp	 eax, -1
  000a8	74 11		 je	 SHORT $L269465

; 2269 : 		ResetDestParam( pItemProp->dwDestParam5, pItemProp->nAdjParamVal5 );

  000aa	8b 8f 68 01 00
	00		 mov	 ecx, DWORD PTR [edi+360]
  000b0	6a 01		 push	 1
  000b2	51		 push	 ecx
  000b3	50		 push	 eax
  000b4	8b ce		 mov	 ecx, esi
  000b6	e8 00 00 00 00	 call	 ?ResetDestParam@CMover@@QAEXHHH@Z ; CMover::ResetDestParam
$L269465:

; 2270 : 	if( pItemProp->dwDestParam6 != -1 )

  000bb	8b 87 54 01 00
	00		 mov	 eax, DWORD PTR [edi+340]
  000c1	83 f8 ff	 cmp	 eax, -1
  000c4	74 11		 je	 SHORT $L269466

; 2271 : 		ResetDestParam( pItemProp->dwDestParam6, pItemProp->nAdjParamVal6 );

  000c6	8b 97 6c 01 00
	00		 mov	 edx, DWORD PTR [edi+364]
  000cc	6a 01		 push	 1
  000ce	52		 push	 edx
  000cf	50		 push	 eax
  000d0	8b ce		 mov	 ecx, esi
  000d2	e8 00 00 00 00	 call	 ?ResetDestParam@CMover@@QAEXHHH@Z ; CMover::ResetDestParam
$L269466:

; 2272 : #endif//__VER >= 19
; 2273 : 
; 2274 : 
; 2275 : 
; 2276 : 	if( pItemElem && pItemElem->m_nResistAbilityOption && pItemElem->GetProp()->dwItemKind1 == IK1_ARMOR )

  000d7	85 ed		 test	 ebp, ebp
  000d9	53		 push	 ebx
  000da	0f 84 fd 00 00
	00		 je	 $L269467
  000e0	8b 85 8c 00 00
	00		 mov	 eax, DWORD PTR [ebp+140]
  000e6	85 c0		 test	 eax, eax
  000e8	0f 84 ef 00 00
	00		 je	 $L269467
  000ee	8b cd		 mov	 ecx, ebp
  000f0	e8 00 00 00 00	 call	 ?GetPropA@CItemElem@@QAEPAUItemProp@@XZ ; CItemElem::GetPropA
  000f5	83 78 70 02	 cmp	 DWORD PTR [eax+112], 2
  000f9	0f 85 de 00 00
	00		 jne	 $L269467

; 2277 : 	{
; 2278 : 		if( pItemElem->m_bItemResist != SAI79::NO_PROP )
; 2279 : 		{
; 2280 : 			int nSelf   = GetSelfDST( pItemElem->m_bItemResist );

  000ff	33 c9		 xor	 ecx, ecx
  00101	8a 8d 88 00 00
	00		 mov	 cl, BYTE PTR [ebp+136]
  00107	84 c9		 test	 cl, cl
  00109	0f 84 3c 01 00
	00		 je	 $L277217
  0010f	51		 push	 ecx
  00110	e8 00 00 00 00	 call	 ?GetSelfDST@@YAHE@Z	; GetSelfDST

; 2281 : 			int nStrong = GetStrongDST( pItemElem->m_bItemResist );

  00115	51		 push	 ecx
  00116	89 44 24 20	 mov	 DWORD PTR _nSelf$269469[esp+24], eax
  0011a	e8 00 00 00 00	 call	 ?GetStrongDST@@YAHE@Z	; GetStrongDST

; 2282 : 			int nWeak   = GetWeakDST( pItemElem->m_bItemResist );

  0011f	51		 push	 ecx
  00120	8b e8		 mov	 ebp, eax
  00122	e8 00 00 00 00	 call	 ?GetWeakDST@@YAHE@Z	; GetWeakDST
  00127	8b d8		 mov	 ebx, eax
  00129	83 c4 0c	 add	 esp, 12			; 0000000cH
  0012c	89 5c 24 10	 mov	 DWORD PTR _nWeak$269471[esp+20], ebx

; 2283 : 
; 2284 : 			if( ::GetLanguage() == LANG_THA )			

  00130	e8 00 00 00 00	 call	 ?GetLanguage@@YAHXZ	; GetLanguage
  00135	83 f8 04	 cmp	 eax, 4

; 2285 : 			{
; 2286 : 				float fResult = ((float)pItemElem->m_nResistAbilityOption+1.2f) * (0.7f+(float)(pItemElem->m_nResistAbilityOption*0.01f));

  00138	8b 44 24 1c	 mov	 eax, DWORD PTR _pItemElem$[esp+16]
  0013c	75 6d		 jne	 SHORT $L269472
  0013e	db 80 8c 00 00
	00		 fild	 DWORD PTR [eax+140]
  00144	d9 05 00 00 00
	00		 fld	 DWORD PTR __real@3c23d70a
  0014a	d8 c9		 fmul	 ST(0), ST(1)
  0014c	d8 05 00 00 00
	00		 fadd	 DWORD PTR __real@3f333333
  00152	d9 c9		 fxch	 ST(1)
  00154	d8 05 00 00 00
	00		 fadd	 DWORD PTR __real@3f99999a
  0015a	de c9		 fmulp	 ST(1), ST(0)

; 2287 : 				int nResult = (int)( fResult * fResult );

  0015c	d9 c0		 fld	 ST(0)
  0015e	d8 c9		 fmul	 ST(0), ST(1)
  00160	e8 00 00 00 00	 call	 __ftol2
  00165	dd d8		 fstp	 ST(0)

; 2288 : 
; 2289 : 				ResetDestParam( nSelf,   nResult );

  00167	8b 4c 24 18	 mov	 ecx, DWORD PTR _nSelf$269469[esp+16]
  0016b	6a 01		 push	 1
  0016d	8b d8		 mov	 ebx, eax
  0016f	53		 push	 ebx
  00170	51		 push	 ecx
  00171	8b ce		 mov	 ecx, esi
  00173	e8 00 00 00 00	 call	 ?ResetDestParam@CMover@@QAEXHHH@Z ; CMover::ResetDestParam

; 2290 : 				ResetDestParam( nWeak,  -nResult/2 );

  00178	8b c3		 mov	 eax, ebx
  0017a	99		 cdq
  0017b	2b c2		 sub	 eax, edx
  0017d	8b 54 24 10	 mov	 edx, DWORD PTR _nWeak$269471[esp+20]
  00181	d1 f8		 sar	 eax, 1
  00183	6a 01		 push	 1
  00185	f7 d8		 neg	 eax
  00187	50		 push	 eax
  00188	52		 push	 edx
  00189	8b ce		 mov	 ecx, esi
  0018b	e8 00 00 00 00	 call	 ?ResetDestParam@CMover@@QAEXHHH@Z ; CMover::ResetDestParam

; 2291 : 				ResetDestParam( nStrong, nResult/2 );

  00190	8b c3		 mov	 eax, ebx
  00192	99		 cdq
  00193	2b c2		 sub	 eax, edx
  00195	6a 01		 push	 1
  00197	d1 f8		 sar	 eax, 1
  00199	50		 push	 eax
  0019a	55		 push	 ebp
  0019b	8b ce		 mov	 ecx, esi
  0019d	e8 00 00 00 00	 call	 ?ResetDestParam@CMover@@QAEXHHH@Z ; CMover::ResetDestParam

; 2292 : 			}
; 2293 : 			else

  001a2	8b 6c 24 1c	 mov	 ebp, DWORD PTR _pItemElem$[esp+16]
  001a6	e9 a0 00 00 00	 jmp	 $L277217
$L269472:

; 2294 : 			{
; 2295 : 				ResetDestParam( nWeak,  -pItemElem->m_nResistAbilityOption*2 );

  001ab	8b 88 8c 00 00
	00		 mov	 ecx, DWORD PTR [eax+140]
  001b1	f7 d9		 neg	 ecx
  001b3	6a 01		 push	 1
  001b5	d1 e1		 shl	 ecx, 1
  001b7	51		 push	 ecx
  001b8	53		 push	 ebx
  001b9	8b ce		 mov	 ecx, esi
  001bb	e8 00 00 00 00	 call	 ?ResetDestParam@CMover@@QAEXHHH@Z ; CMover::ResetDestParam

; 2296 : 				ResetDestParam( nStrong, pItemElem->m_nResistAbilityOption*2 );

  001c0	8b 54 24 1c	 mov	 edx, DWORD PTR _pItemElem$[esp+16]
  001c4	8b 82 8c 00 00
	00		 mov	 eax, DWORD PTR [edx+140]
  001ca	6a 01		 push	 1
  001cc	d1 e0		 shl	 eax, 1
  001ce	50		 push	 eax
  001cf	55		 push	 ebp
  001d0	8b ce		 mov	 ecx, esi
  001d2	e8 00 00 00 00	 call	 ?ResetDestParam@CMover@@QAEXHHH@Z ; CMover::ResetDestParam

; 2297 : 			}
; 2298 : 		}
; 2299 : 	} 
; 2300 : 	else

  001d7	8b 6c 24 1c	 mov	 ebp, DWORD PTR _pItemElem$[esp+16]
  001db	eb 6e		 jmp	 SHORT $L277217
$L269467:

; 2301 : 	{	
; 2302 : 		if( pItemProp->nItemResistElecricity )

  001dd	8b 87 1c 02 00
	00		 mov	 eax, DWORD PTR [edi+540]
  001e3	85 c0		 test	 eax, eax
  001e5	74 0c		 je	 SHORT $L269480

; 2303 : 			ResetDestParam( DST_RESIST_ELECTRICITY, pItemProp->nItemResistElecricity);

  001e7	6a 01		 push	 1
  001e9	50		 push	 eax
  001ea	6a 1c		 push	 28			; 0000001cH
  001ec	8b ce		 mov	 ecx, esi
  001ee	e8 00 00 00 00	 call	 ?ResetDestParam@CMover@@QAEXHHH@Z ; CMover::ResetDestParam
$L269480:

; 2304 : 		if( pItemProp->nItemResistFire )

  001f3	8b 87 24 02 00
	00		 mov	 eax, DWORD PTR [edi+548]
  001f9	85 c0		 test	 eax, eax
  001fb	74 0c		 je	 SHORT $L269481

; 2305 : 			ResetDestParam( DST_RESIST_FIRE, pItemProp->nItemResistFire );

  001fd	6a 01		 push	 1
  001ff	50		 push	 eax
  00200	6a 1e		 push	 30			; 0000001eH
  00202	8b ce		 mov	 ecx, esi
  00204	e8 00 00 00 00	 call	 ?ResetDestParam@CMover@@QAEXHHH@Z ; CMover::ResetDestParam
$L269481:

; 2306 : 		if( pItemProp->nItemResistWind )

  00209	8b 87 28 02 00
	00		 mov	 eax, DWORD PTR [edi+552]
  0020f	85 c0		 test	 eax, eax
  00211	74 0c		 je	 SHORT $L269482

; 2307 : 			ResetDestParam( DST_RESIST_WIND, pItemProp->nItemResistWind );

  00213	6a 01		 push	 1
  00215	50		 push	 eax
  00216	6a 1f		 push	 31			; 0000001fH
  00218	8b ce		 mov	 ecx, esi
  0021a	e8 00 00 00 00	 call	 ?ResetDestParam@CMover@@QAEXHHH@Z ; CMover::ResetDestParam
$L269482:

; 2308 : 		if( pItemProp->nItemResistWater )

  0021f	8b 87 2c 02 00
	00		 mov	 eax, DWORD PTR [edi+556]
  00225	85 c0		 test	 eax, eax
  00227	74 0c		 je	 SHORT $L269483

; 2309 : 			ResetDestParam( DST_RESIST_WATER, pItemProp->nItemResistWater );

  00229	6a 01		 push	 1
  0022b	50		 push	 eax
  0022c	6a 20		 push	 32			; 00000020H
  0022e	8b ce		 mov	 ecx, esi
  00230	e8 00 00 00 00	 call	 ?ResetDestParam@CMover@@QAEXHHH@Z ; CMover::ResetDestParam
$L269483:

; 2310 : 		if( pItemProp->nItemResistEarth )

  00235	8b 87 30 02 00
	00		 mov	 eax, DWORD PTR [edi+560]
  0023b	85 c0		 test	 eax, eax
  0023d	74 0c		 je	 SHORT $L277217

; 2311 : 			ResetDestParam( DST_RESIST_EARTH, pItemProp->nItemResistEarth );

  0023f	6a 01		 push	 1
  00241	50		 push	 eax
  00242	6a 21		 push	 33			; 00000021H
  00244	8b ce		 mov	 ecx, esi
  00246	e8 00 00 00 00	 call	 ?ResetDestParam@CMover@@QAEXHHH@Z ; CMover::ResetDestParam
$L277217:

; 2312 : 	}
; 2313 : 
; 2314 : 	if( pItemElem )

  0024b	85 ed		 test	 ebp, ebp
  0024d	0f 84 ce 00 00
	00		 je	 $L277220

; 2315 : 	{
; 2316 : #if __VER >= 11 // __SYS_COLLECTING
; 2317 : 		CAccessoryProperty* pProperty	= CAccessoryProperty::GetInstance();

  00253	e8 00 00 00 00	 call	 ?GetInstance@CAccessoryProperty@@SAPAV1@XZ ; CAccessoryProperty::GetInstance

; 2318 : 		if( pItemElem->IsAccessory() )		// 

  00258	8b 4d 0c	 mov	 ecx, DWORD PTR [ebp+12]
  0025b	51		 push	 ecx
  0025c	8b d8		 mov	 ebx, eax
  0025e	e8 00 00 00 00	 call	 ?GetInstance@CAccessoryProperty@@SAPAV1@XZ ; CAccessoryProperty::GetInstance
  00263	8b c8		 mov	 ecx, eax
  00265	e8 00 00 00 00	 call	 ?IsAccessory@CAccessoryProperty@@QAEHK@Z ; CAccessoryProperty::IsAccessory
  0026a	85 c0		 test	 eax, eax
  0026c	74 3f		 je	 SHORT $L277210

; 2319 : 		{
; 2320 : 			vector<SINGLE_DST>* pDst	= pProperty->GetDst( pItemElem->m_dwItemId, pItemElem->GetAbilityOption() );

  0026e	8b 45 70	 mov	 eax, DWORD PTR [ebp+112]
  00271	8b 55 0c	 mov	 edx, DWORD PTR [ebp+12]
  00274	50		 push	 eax
  00275	52		 push	 edx
  00276	8b cb		 mov	 ecx, ebx
  00278	e8 00 00 00 00	 call	 ?GetDst@CAccessoryProperty@@QAEPAV?$vector@U_SINGLE_DST@@V?$allocator@U_SINGLE_DST@@@std@@@std@@KH@Z ; CAccessoryProperty::GetDst
  0027d	8b e8		 mov	 ebp, eax

; 2321 : 			for( DWORD i = 0; i < pDst->size(); i++ )

  0027f	33 db		 xor	 ebx, ebx
$L269491:
  00281	8b 4d 04	 mov	 ecx, DWORD PTR [ebp+4]
  00284	85 c9		 test	 ecx, ecx
  00286	74 21		 je	 SHORT $L277218
  00288	8b 45 08	 mov	 eax, DWORD PTR [ebp+8]
  0028b	2b c1		 sub	 eax, ecx
  0028d	c1 f8 03	 sar	 eax, 3
  00290	3b d8		 cmp	 ebx, eax
  00292	73 15		 jae	 SHORT $L277218

; 2322 : 				ResetDestParam( (*pDst)[i].nDst, (*pDst)[i].nAdj );

  00294	8b 44 d9 04	 mov	 eax, DWORD PTR [ecx+ebx*8+4]
  00298	8b 0c d9	 mov	 ecx, DWORD PTR [ecx+ebx*8]
  0029b	6a 01		 push	 1
  0029d	50		 push	 eax
  0029e	51		 push	 ecx
  0029f	8b ce		 mov	 ecx, esi
  002a1	e8 00 00 00 00	 call	 ?ResetDestParam@CMover@@QAEXHHH@Z ; CMover::ResetDestParam
  002a6	43		 inc	 ebx
  002a7	eb d8		 jmp	 SHORT $L269491
$L277218:

; 2321 : 			for( DWORD i = 0; i < pDst->size(); i++ )

  002a9	8b 6c 24 1c	 mov	 ebp, DWORD PTR _pItemElem$[esp+16]
$L277210:

; 2323 : 		}
; 2324 : #endif	// __SYS_COLLECTING
; 2325 : 
; 2326 : #ifdef __WORLDSERVER
; 2327 : #ifdef __DST_GIFTBOX
; 2328 : 		if( pItemProp->dwDestParam[0] == DST_GIFTBOX || pItemProp->dwDestParam[1] == DST_GIFTBOX || pItemProp->dwDestParam[2] == DST_GIFTBOX
; 2329 : 		 || pItemProp->dwDestParam[3] == DST_GIFTBOX || pItemProp->dwDestParam[4] == DST_GIFTBOX || pItemProp->dwDestParam[5] == DST_GIFTBOX)

  002ad	8b 8f 40 01 00
	00		 mov	 ecx, DWORD PTR [edi+320]
  002b3	b8 5c 00 00 00	 mov	 eax, 92			; 0000005cH
  002b8	3b c8		 cmp	 ecx, eax
  002ba	74 28		 je	 SHORT $L269495
  002bc	39 87 44 01 00
	00		 cmp	 DWORD PTR [edi+324], eax
  002c2	74 20		 je	 SHORT $L269495
  002c4	39 87 48 01 00
	00		 cmp	 DWORD PTR [edi+328], eax
  002ca	74 18		 je	 SHORT $L269495
  002cc	39 87 4c 01 00
	00		 cmp	 DWORD PTR [edi+332], eax
  002d2	74 10		 je	 SHORT $L269495
  002d4	39 87 50 01 00
	00		 cmp	 DWORD PTR [edi+336], eax
  002da	74 08		 je	 SHORT $L269495
  002dc	39 87 54 01 00
	00		 cmp	 DWORD PTR [edi+340], eax
  002e2	75 0f		 jne	 SHORT $L269494
$L269495:

; 2330 : 		{
; 2331 : 			((CUser*)this)->RemoveBuff( BUFF_EQUIP, (WORD)( pItemProp->dwID ) );

  002e4	33 d2		 xor	 edx, edx
  002e6	66 8b 17	 mov	 dx, WORD PTR [edi]
  002e9	8b ce		 mov	 ecx, esi
  002eb	52		 push	 edx
  002ec	6a 04		 push	 4
  002ee	e8 00 00 00 00	 call	 ?RemoveBuff@CMover@@QAEXGG@Z ; CMover::RemoveBuff
$L269494:

; 2332 : 		}
; 2333 : #endif // __DST_GIFTBOX
; 2334 : #endif // __WORLDSERVER
; 2335 : 
; 2336 : 		int nAbilityOption	= GetSetItem( pItemElem );

  002f3	55		 push	 ebp
  002f4	8b ce		 mov	 ecx, esi
  002f6	e8 00 00 00 00	 call	 ?GetSetItem@CMover@@QAEHPAVCItemElem@@@Z ; CMover::GetSetItem

; 2337 : 		if( nAbilityOption > 0 )

  002fb	85 c0		 test	 eax, eax
  002fd	7e 08		 jle	 SHORT $L269499

; 2338 : 			ResetSetItemAvail( nAbilityOption );

  002ff	50		 push	 eax
  00300	8b ce		 mov	 ecx, esi
  00302	e8 00 00 00 00	 call	 ?ResetSetItemAvail@CMover@@QAEXH@Z ; CMover::ResetSetItemAvail
$L269499:

; 2339 : 		DestParamPiercingAvail( pItemElem, FALSE );

  00307	6a 00		 push	 0
  00309	55		 push	 ebp
  0030a	8b ce		 mov	 ecx, esi
  0030c	e8 00 00 00 00	 call	 ?DestParamPiercingAvail@CMover@@QAEXPAVCItemElem@@H@Z ; CMover::DestParamPiercingAvail

; 2340 : 		ResetDestParamSetItem( pItemElem );

  00311	55		 push	 ebp
  00312	8b ce		 mov	 ecx, esi
  00314	e8 00 00 00 00	 call	 ?ResetDestParamSetItem@CMover@@QAEXPAVCItemElem@@@Z ; CMover::ResetDestParamSetItem

; 2341 : 		ResetDestParamRandomOpt( pItemElem );

  00319	55		 push	 ebp
  0031a	8b ce		 mov	 ecx, esi
  0031c	e8 00 00 00 00	 call	 ?ResetDestParamRandomOpt@CMover@@QAEXPAVCItemElem@@@Z ; CMover::ResetDestParamRandomOpt
$L277220:
  00321	5b		 pop	 ebx
  00322	5f		 pop	 edi
$L269485:
  00323	5e		 pop	 esi
  00324	5d		 pop	 ebp

; 2342 : 	}
; 2343 : }

  00325	59		 pop	 ecx
  00326	c2 08 00	 ret	 8
?ResetDestParamEquip@CMover@@QAEXPAUItemProp@@PAVCItemElem@@@Z ENDP ; CMover::ResetDestParamEquip
_TEXT	ENDS
PUBLIC	??Eiterator@?$_Tree@V?$_Tmap_traits@HU_CHAO_PROPENSITY@@U?$less@H@std@@V?$allocator@U?$pair@$$CBHU_CHAO_PROPENSITY@@@std@@@3@$0A@@std@@@std@@QAE?AV012@H@Z ; std::_Tree<std::_Tmap_traits<int,_CHAO_PROPENSITY,std::less<int>,std::allocator<std::pair<int const ,_CHAO_PROPENSITY> >,0> >::iterator::operator++
; Function compile flags: /Ogty
; File c:\program files\microsoft visual studio .net 2003\vc7\include\xtree
;	COMDAT ??Eiterator@?$_Tree@V?$_Tmap_traits@HU_CHAO_PROPENSITY@@U?$less@H@std@@V?$allocator@U?$pair@$$CBHU_CHAO_PROPENSITY@@@std@@@3@$0A@@std@@@std@@QAE?AV012@H@Z
_TEXT	SEGMENT
___$ReturnUdt$ = 8					; size = 4
___formal$ = 12						; size = 4
??Eiterator@?$_Tree@V?$_Tmap_traits@HU_CHAO_PROPENSITY@@U?$less@H@std@@V?$allocator@U?$pair@$$CBHU_CHAO_PROPENSITY@@@std@@@3@$0A@@std@@@std@@QAE?AV012@H@Z PROC NEAR ; std::_Tree<std::_Tmap_traits<int,_CHAO_PROPENSITY,std::less<int>,std::allocator<std::pair<int const ,_CHAO_PROPENSITY> >,0> >::iterator::operator++, COMDAT
; _this$ = ecx

; 332  : 			{	// postincrement

  00000	56		 push	 esi

; 333  : 			iterator _Tmp = *this;

  00001	8b 31		 mov	 esi, DWORD PTR [ecx]

; 334  : 			++*this;

  00003	e8 00 00 00 00	 call	 ?_Inc@const_iterator@?$_Tree@V?$_Tmap_traits@HU_CHAO_PROPENSITY@@U?$less@H@std@@V?$allocator@U?$pair@$$CBHU_CHAO_PROPENSITY@@@std@@@3@$0A@@std@@@std@@QAEXXZ ; std::_Tree<std::_Tmap_traits<int,_CHAO_PROPENSITY,std::less<int>,std::allocator<std::pair<int const ,_CHAO_PROPENSITY> >,0> >::const_iterator::_Inc

; 335  : 			return (_Tmp);

  00008	8b 44 24 08	 mov	 eax, DWORD PTR ___$ReturnUdt$[esp]
  0000c	89 30		 mov	 DWORD PTR [eax], esi
  0000e	5e		 pop	 esi

; 336  : 			}

  0000f	c2 08 00	 ret	 8
??Eiterator@?$_Tree@V?$_Tmap_traits@HU_CHAO_PROPENSITY@@U?$less@H@std@@V?$allocator@U?$pair@$$CBHU_CHAO_PROPENSITY@@@std@@@3@$0A@@std@@@std@@QAE?AV012@H@Z ENDP ; std::_Tree<std::_Tmap_traits<int,_CHAO_PROPENSITY,std::less<int>,std::allocator<std::pair<int const ,_CHAO_PROPENSITY> >,0> >::iterator::operator++
_TEXT	ENDS
PUBLIC	?DoEquip@CMover@@SAHHHPAVCItemElem@@HABU_EQUIP_INFO@@PAV?$CItemContainer@VCItemElem@@@@PAU3@PAVCModelObject@@HPAV1@@Z ; CMover::DoEquip
PUBLIC	??_C@_0GD@MCIBCGLP@?2Documents?5and?5Settings?2test?2Mes@ ; `string'
PUBLIC	??_C@_05DIALNFFA@?$CFs?5?$CFd?$AA@		; `string'
PUBLIC	??_C@_0BH@NHGMHOG@Part_maleUpper?$CF02d?4dds?$AA@ ; `string'
PUBLIC	??_C@_0BJ@HMMDHCOK@Part_femaleUpper?$CF02d?4dds?$AA@ ; `string'
PUBLIC	??_C@_0BF@MFIGMCKI@Part_maleUpper01?4dds?$AA@	; `string'
PUBLIC	??_C@_0BH@COCFJDCO@Part_femaleUpper01?4dds?$AA@	; `string'
PUBLIC	??_C@_0BH@CCHNJOKK@Part_maleLower?$CF02d?4dds?$AA@ ; `string'
PUBLIC	??_C@_0BJ@FDMICLKG@Part_femaleLower?$CF02d?4dds?$AA@ ; `string'
PUBLIC	??_C@_0BF@ILOFDOLB@Part_maleLower01?4dds?$AA@	; `string'
PUBLIC	??_C@_0BH@GAEGGPDH@Part_femaleLower01?4dds?$AA@	; `string'
EXTRN	?DoSMItemEquip@CUser@@QAEXPAVCItemElem@@K@Z:NEAR ; CUser::DoSMItemEquip
EXTRN	?DoSMItemUnEquip@CUser@@QAEXPAVCItemElem@@K@Z:NEAR ; CUser::DoSMItemUnEquip
EXTRN	?AddDoEquip@CUserMng@@QAEXPAVCMover@@HPAVCItemElem@@E@Z:NEAR ; CUserMng::AddDoEquip
EXTRN	?SetSMMode@CMover@@QAEHHK@Z:NEAR		; CMover::SetSMMode
EXTRN	?GetEquipItemProp@CMover@@QAEPAUItemProp@@PAV?$CItemContainer@VCItemElem@@@@PAU_EQUIP_INFO@@H@Z:NEAR ; CMover::GetEquipItemProp
EXTRN	?AddDefinedText@CUser@@QAAXHPBDZZ:NEAR		; CUser::AddDefinedText
EXTRN	?GetJob@CMover@@QAEHXZ:NEAR			; CMover::GetJob
EXTRN	?AddResistSMMode@CUser@@QAEXEEE@Z:NEAR		; CUser::AddResistSMMode
EXTRN	?SetDestParamUltimate@CUltimateWeapon@@QAEXPAVCMover@@PAVCItemElem@@HK@Z:NEAR ; CUltimateWeapon::SetDestParamUltimate
;	COMDAT ??_C@_0GD@MCIBCGLP@?2Documents?5and?5Settings?2test?2Mes@
; File c:\documents and settings\test\mes documents\source\virtuos_v17\build\program\_common\item.h
CONST	SEGMENT
??_C@_0GD@MCIBCGLP@?2Documents?5and?5Settings?2test?2Mes@ DB '\Documents '
	DB	'and Settings\test\Mes documents\Source\Virtuos_v17\Build\Prog'
	DB	'ram\_Common\MoverEquip.cpp', 00H		; `string'
CONST	ENDS
;	COMDAT ??_C@_05DIALNFFA@?$CFs?5?$CFd?$AA@
CONST	SEGMENT
??_C@_05DIALNFFA@?$CFs?5?$CFd?$AA@ DB '%s %d', 00H	; `string'
CONST	ENDS
;	COMDAT ??_C@_0BH@NHGMHOG@Part_maleUpper?$CF02d?4dds?$AA@
CONST	SEGMENT
??_C@_0BH@NHGMHOG@Part_maleUpper?$CF02d?4dds?$AA@ DB 'Part_maleUpper%02d.'
	DB	'dds', 00H					; `string'
CONST	ENDS
;	COMDAT ??_C@_0BJ@HMMDHCOK@Part_femaleUpper?$CF02d?4dds?$AA@
CONST	SEGMENT
??_C@_0BJ@HMMDHCOK@Part_femaleUpper?$CF02d?4dds?$AA@ DB 'Part_femaleUpper'
	DB	'%02d.dds', 00H				; `string'
CONST	ENDS
;	COMDAT ??_C@_0BF@MFIGMCKI@Part_maleUpper01?4dds?$AA@
CONST	SEGMENT
??_C@_0BF@MFIGMCKI@Part_maleUpper01?4dds?$AA@ DB 'Part_maleUpper01.dds', 00H ; `string'
CONST	ENDS
;	COMDAT ??_C@_0BH@COCFJDCO@Part_femaleUpper01?4dds?$AA@
CONST	SEGMENT
??_C@_0BH@COCFJDCO@Part_femaleUpper01?4dds?$AA@ DB 'Part_femaleUpper01.dd'
	DB	's', 00H					; `string'
CONST	ENDS
;	COMDAT ??_C@_0BH@CCHNJOKK@Part_maleLower?$CF02d?4dds?$AA@
CONST	SEGMENT
??_C@_0BH@CCHNJOKK@Part_maleLower?$CF02d?4dds?$AA@ DB 'Part_maleLower%02d'
	DB	'.dds', 00H					; `string'
CONST	ENDS
;	COMDAT ??_C@_0BJ@FDMICLKG@Part_femaleLower?$CF02d?4dds?$AA@
CONST	SEGMENT
??_C@_0BJ@FDMICLKG@Part_femaleLower?$CF02d?4dds?$AA@ DB 'Part_femaleLower'
	DB	'%02d.dds', 00H				; `string'
CONST	ENDS
;	COMDAT ??_C@_0BF@ILOFDOLB@Part_maleLower01?4dds?$AA@
CONST	SEGMENT
??_C@_0BF@ILOFDOLB@Part_maleLower01?4dds?$AA@ DB 'Part_maleLower01.dds', 00H ; `string'
CONST	ENDS
;	COMDAT ??_C@_0BH@GAEGGPDH@Part_femaleLower01?4dds?$AA@
CONST	SEGMENT
??_C@_0BH@GAEGGPDH@Part_femaleLower01?4dds?$AA@ DB 'Part_femaleLower01.dd'
	DB	's', 00H					; `string'
; Function compile flags: /Ogty
; File c:\documents and settings\test\mes documents\source\virtuos_v17\build\program\_common\moverequip.cpp
CONST	ENDS
;	COMDAT ?DoEquip@CMover@@SAHHHPAVCItemElem@@HABU_EQUIP_INFO@@PAV?$CItemContainer@VCItemElem@@@@PAU3@PAVCModelObject@@HPAV1@@Z
_TEXT	SEGMENT
$T277409 = -104						; size = 4
$T277411 = -100						; size = 4
_dwParts$ = -96						; size = 4
tv70 = -92						; size = 4
$T277407 = -88						; size = 4
_dwIndex$ = -84						; size = 4
_bIfParts$ = -80					; size = 4
$T277408 = -76						; size = 4
$T277410 = -72						; size = 4
_lpszTemp$ = -68					; size = 64
__$ArrayPad$ = -4					; size = 4
__$ReturnAddr$ = 4					; size = 4
_nSex$ = 8						; size = 4
_nSkinSet$ = 12						; size = 4
_pItemElem$ = 16					; size = 4
_nPart$ = 20						; size = 4
_rEquipInfo$ = 24					; size = 4
_pInventory$ = 28					; size = 4
_pEquipInfo$ = 32					; size = 4
_pModel$ = 36						; size = 4
_bEquip$ = 40						; size = 4
_pMover$ = 44						; size = 4
?DoEquip@CMover@@SAHHHPAVCItemElem@@HABU_EQUIP_INFO@@PAV?$CItemContainer@VCItemElem@@@@PAU3@PAVCModelObject@@HPAV1@@Z PROC NEAR ; CMover::DoEquip, COMDAT

; 470  : {

  00000	83 ec 68	 sub	 esp, 104		; 00000068H
  00003	a1 00 00 00 00	 mov	 eax, DWORD PTR ___security_cookie

; 536  : 				dwParts = nPart;	//    .

  00008	8b 8c 24 80 00
	00 00		 mov	 ecx, DWORD PTR _pInventory$[esp+100]
  0000f	8b 94 24 88 00
	00 00		 mov	 edx, DWORD PTR _pModel$[esp+100]
  00016	33 c4		 xor	 eax, esp
  00018	53		 push	 ebx
  00019	8b 9c 24 88 00
	00 00		 mov	 ebx, DWORD PTR _pEquipInfo$[esp+104]
  00020	55		 push	 ebp
  00021	56		 push	 esi
  00022	8b b4 24 9c 00
	00 00		 mov	 esi, DWORD PTR _pMover$[esp+112]
  00029	57		 push	 edi
  0002a	8b bc 24 84 00
	00 00		 mov	 edi, DWORD PTR _pItemElem$[esp+116]
  00031	85 ff		 test	 edi, edi
  00033	89 44 24 74	 mov	 DWORD PTR __$ArrayPad$[esp+120], eax
  00037	8b 84 24 8c 00
	00 00		 mov	 eax, DWORD PTR _rEquipInfo$[esp+116]
  0003e	89 4c 24 10	 mov	 DWORD PTR $T277409[esp+120], ecx
  00042	8b 0d 5c 02 00
	00		 mov	 ecx, DWORD PTR ?prj@@3VCProject@@A+604

; 726  : 				if( dwElem1 != NULL_ID && dwElem2 == NULL_ID )

  00048	89 7c 24 20	 mov	 DWORD PTR $T277407[esp+120], edi
  0004c	89 44 24 2c	 mov	 DWORD PTR $T277408[esp+120], eax
  00050	89 5c 24 30	 mov	 DWORD PTR $T277410[esp+120], ebx
  00054	89 54 24 14	 mov	 DWORD PTR $T277411[esp+120], edx
  00058	74 36		 je	 SHORT $L277236
  0005a	8b 47 0c	 mov	 eax, DWORD PTR [edi+12]
  0005d	85 c0		 test	 eax, eax
  0005f	7c 13		 jl	 SHORT $L277309

; 471  : 	ItemProp* pItemProp = pItemElem ? pItemElem->GetProp() : prj.GetItemProp( rEquipInfo.dwId );

  00061	3b c1		 cmp	 eax, ecx
  00063	7d 0f		 jge	 SHORT $L277309
  00065	73 23		 jae	 SHORT $L277437
  00067	8b 0d 4c 02 00
	00		 mov	 ecx, DWORD PTR ?prj@@3VCProject@@A+588
  0006d	8b 04 81	 mov	 eax, DWORD PTR [ecx+eax*4]
  00070	8b e8		 mov	 ebp, eax
  00072	eb 53		 jmp	 SHORT $L277430
$L277309:
  00074	50		 push	 eax
  00075	51		 push	 ecx
  00076	6a 00		 push	 0
  00078	68 00 00 00 00	 push	 OFFSET FLAT:??_C@_0BI@BEIFNGEL@GetItemProp?5range_error?$AA@
  0007d	68 00 00 00 00	 push	 OFFSET FLAT:??_C@_0BM@HMFGHCP@?$CFs?5min?3?$CFd?0?5max?3?$CFd?0?5index?3?$CFd?$AA@
  00082	e8 00 00 00 00	 call	 ?Error@@YAPBDPBDZZ	; Error
  00087	83 c4 14	 add	 esp, 20			; 00000014H
$L277437:
  0008a	33 c0		 xor	 eax, eax
  0008c	8b e8		 mov	 ebp, eax
  0008e	eb 37		 jmp	 SHORT $L277430
$L277236:
  00090	8b 00		 mov	 eax, DWORD PTR [eax]
  00092	85 c0		 test	 eax, eax
  00094	7c 19		 jl	 SHORT $L277350
  00096	3b c1		 cmp	 eax, ecx
  00098	7d 15		 jge	 SHORT $L277350
  0009a	72 06		 jb	 SHORT $L277362
  0009c	33 c0		 xor	 eax, eax
  0009e	8b e8		 mov	 ebp, eax
  000a0	eb 25		 jmp	 SHORT $L277430
$L277362:
  000a2	8b 15 4c 02 00
	00		 mov	 edx, DWORD PTR ?prj@@3VCProject@@A+588
  000a8	8b 04 82	 mov	 eax, DWORD PTR [edx+eax*4]
  000ab	8b e8		 mov	 ebp, eax
  000ad	eb 18		 jmp	 SHORT $L277430
$L277350:
  000af	50		 push	 eax
  000b0	51		 push	 ecx
  000b1	6a 00		 push	 0
  000b3	68 00 00 00 00	 push	 OFFSET FLAT:??_C@_0BI@BEIFNGEL@GetItemProp?5range_error?$AA@
  000b8	68 00 00 00 00	 push	 OFFSET FLAT:??_C@_0BM@HMFGHCP@?$CFs?5min?3?$CFd?0?5max?3?$CFd?0?5index?3?$CFd?$AA@
  000bd	e8 00 00 00 00	 call	 ?Error@@YAPBDPBDZZ	; Error
  000c2	83 c4 14	 add	 esp, 20			; 00000014H
  000c5	33 ed		 xor	 ebp, ebp
$L277430:

; 472  : 	DWORD dwIndex = pItemElem ? pItemElem->m_dwObjIndex : 0;

  000c7	85 ff		 test	 edi, edi
  000c9	89 6c 24 1c	 mov	 DWORD PTR tv70[esp+120], ebp
  000cd	74 09		 je	 SHORT $L277238
  000cf	8b 47 08	 mov	 eax, DWORD PTR [edi+8]
  000d2	89 44 24 24	 mov	 DWORD PTR _dwIndex$[esp+120], eax
  000d6	eb 08		 jmp	 SHORT $L277239
$L277238:
  000d8	c7 44 24 24 00
	00 00 00	 mov	 DWORD PTR _dwIndex$[esp+120], 0
$L277239:

; 473  : 	DWORD dwParts = pItemProp->dwParts;
; 474  : 	BOOL bIfParts = pMover ? pMover->GetProp()->bIfParts : 0;

  000e0	85 f6		 test	 esi, esi
  000e2	8b bd a8 00 00
	00		 mov	 edi, DWORD PTR [ebp+168]
  000e8	89 7c 24 18	 mov	 DWORD PTR _dwParts$[esp+120], edi
  000ec	74 52		 je	 SHORT $L277240
  000ee	8b 86 74 01 00
	00		 mov	 eax, DWORD PTR [esi+372]
  000f4	85 c0		 test	 eax, eax
  000f6	8b 0d d0 01 00
	00		 mov	 ecx, DWORD PTR ?prj@@3VCProject@@A+464
  000fc	7c 1e		 jl	 SHORT $L277392
  000fe	3b c1		 cmp	 eax, ecx
  00100	7d 1a		 jge	 SHORT $L277392
  00102	8b 0d d4 01 00
	00		 mov	 ecx, DWORD PTR ?prj@@3VCProject@@A+468
  00108	69 c0 d8 06 00
	00		 imul	 eax, 1752		; 000006d8H
  0010e	03 c1		 add	 eax, ecx
  00110	8b 88 98 00 00
	00		 mov	 ecx, DWORD PTR [eax+152]
  00116	89 4c 24 28	 mov	 DWORD PTR _bIfParts$[esp+120], ecx
  0011a	eb 2c		 jmp	 SHORT $L277241
$L277392:
  0011c	50		 push	 eax
  0011d	51		 push	 ecx
  0011e	6a 00		 push	 0
  00120	68 00 00 00 00	 push	 OFFSET FLAT:??_C@_0BJ@GKPOBPPI@GetMoverProp?5range_error?$AA@
  00125	68 00 00 00 00	 push	 OFFSET FLAT:??_C@_0BM@HMFGHCP@?$CFs?5min?3?$CFd?0?5max?3?$CFd?0?5index?3?$CFd?$AA@
  0012a	e8 00 00 00 00	 call	 ?Error@@YAPBDPBDZZ	; Error
  0012f	83 c4 14	 add	 esp, 20			; 00000014H
  00132	33 c0		 xor	 eax, eax
  00134	8b 88 98 00 00
	00		 mov	 ecx, DWORD PTR [eax+152]
  0013a	89 4c 24 28	 mov	 DWORD PTR _bIfParts$[esp+120], ecx
  0013e	eb 08		 jmp	 SHORT $L277241
$L277240:
  00140	c7 44 24 28 00
	00 00 00	 mov	 DWORD PTR _bIfParts$[esp+120], 0
$L277241:

; 475  : 	TCHAR lpszTemp[ 64 ];
; 476  : 	BOOL bFake = (pInventory == NULL) ? TRUE : FALSE;
; 477  : #ifdef __SECURITY_FIXES
; 478  : 	if( dwParts == NULL_ID || ( nPart == -1 &&  dwParts != PARTS_RIDE && dwParts != PARTS_RING2 && dwParts != PARTS_EARRING2) )

  00148	83 ff ff	 cmp	 edi, -1
  0014b	0f 84 a4 05 00
	00		 je	 $L268845
  00151	83 bc 24 88 00
	00 00 ff	 cmp	 DWORD PTR _nPart$[esp+116], -1
  00159	75 13		 jne	 SHORT $L268844
  0015b	83 ff 0d	 cmp	 edi, 13			; 0000000dH
  0015e	74 0e		 je	 SHORT $L268844
  00160	83 ff 15	 cmp	 edi, 21			; 00000015H
  00163	74 09		 je	 SHORT $L268844
  00165	83 ff 17	 cmp	 edi, 23			; 00000017H
  00168	0f 85 87 05 00
	00		 jne	 $L268845
$L268844:

; 480  : #else // __SECURITY_FIXES
; 481  : 	if( dwParts == NULL_ID )
; 482  : 		return FALSE;
; 483  : #endif// __SECURITY_FIXES
; 484  : 
; 485  : 	// /  .
; 486  : 	if( !bEquip )

  0016e	8b 84 24 9c 00
	00 00		 mov	 eax, DWORD PTR _bEquip$[esp+116]
  00175	85 c0		 test	 eax, eax
  00177	75 2a		 jne	 SHORT $L277427

; 487  : 	{
; 488  : 		if( dwParts == PARTS_RING1 || dwParts == PARTS_EARRING1 )

  00179	83 ff 14	 cmp	 edi, 20			; 00000014H
  0017c	74 05		 je	 SHORT $L268848
  0017e	83 ff 16	 cmp	 edi, 22			; 00000016H
  00181	75 20		 jne	 SHORT $L277427
$L268848:

; 489  : 		{
; 490  : 			CItemElem *pItemElemTemp;
; 491  : 			
; 492  : 			if( pInventory )

  00183	8b 44 24 10	 mov	 eax, DWORD PTR $T277409[esp+120]
  00187	85 c0		 test	 eax, eax
  00189	74 18		 je	 SHORT $L277427

; 493  : 			{
; 494  : 				pItemElemTemp = (CItemElem*)pInventory->GetEquip( dwParts );

  0018b	57		 push	 edi
  0018c	8b c8		 mov	 ecx, eax
  0018e	e8 00 00 00 00	 call	 ?GetEquip@?$CItemContainer@VCItemElem@@@@QAEPAVCItemElem@@K@Z ; CItemContainer<CItemElem>::GetEquip

; 495  : 				if( pItemElemTemp != pItemElem )

  00193	3b 44 24 20	 cmp	 eax, DWORD PTR $T277407[esp+120]
  00197	74 0a		 je	 SHORT $L277427

; 496  : 					dwParts = pItemProp->dwPartsub;

  00199	8b 95 ac 00 00
	00		 mov	 edx, DWORD PTR [ebp+172]
  0019f	89 54 24 18	 mov	 DWORD PTR _dwParts$[esp+120], edx
$L277427:

; 497  : 			}
; 498  : 		}
; 499  : 	}
; 500  : 	// () .
; 501  : 	if( pItemProp && pItemProp->dwHanded == HD_ONE && pItemProp->dwParts == PARTS_RWEAPON )	//    ?

  001a3	83 bd a0 00 00
	00 01		 cmp	 DWORD PTR [ebp+160], 1
  001aa	0f 85 b4 00 00
	00		 jne	 $L268863
  001b0	83 bd a8 00 00
	00 0a		 cmp	 DWORD PTR [ebp+168], 10	; 0000000aH
  001b7	0f 85 a7 00 00
	00		 jne	 $L268863

; 502  : 	{
; 503  : 		if( bEquip )

  001bd	8b 84 24 9c 00
	00 00		 mov	 eax, DWORD PTR _bEquip$[esp+116]
  001c4	85 c0		 test	 eax, eax
  001c6	0f 84 89 00 00
	00		 je	 $L268854

; 504  : 		{
; 505  : 			//   
; 506  : 			//     
; 507  : 			ItemProp *pProp = pMover->GetEquipItemProp( pInventory, pEquipInfo, PARTS_RWEAPON );

  001cc	8b 44 24 10	 mov	 eax, DWORD PTR $T277409[esp+120]
  001d0	6a 0a		 push	 10			; 0000000aH
  001d2	53		 push	 ebx
  001d3	50		 push	 eax
  001d4	8b ce		 mov	 ecx, esi
  001d6	e8 00 00 00 00	 call	 ?GetEquipItemProp@CMover@@QAEPAUItemProp@@PAV?$CItemContainer@VCItemElem@@@@PAU_EQUIP_INFO@@H@Z ; CMover::GetEquipItemProp

; 508  : #ifdef __3RD_LEGEND16
; 509  : 			if( pMover->GetJob() == JOB_BLADE || pMover->GetJob() == JOB_BLADE_MASTER || pMover->GetJob() == JOB_BLADE_HERO || pMover->GetJob() == JOB_STORMBLADE_HERO )

  001db	8b ce		 mov	 ecx, esi
  001dd	8b f8		 mov	 edi, eax
  001df	e8 00 00 00 00	 call	 ?GetJob@CMover@@QAEHXZ	; CMover::GetJob
  001e4	83 f8 07	 cmp	 eax, 7
  001e7	74 24		 je	 SHORT $L268857
  001e9	8b ce		 mov	 ecx, esi
  001eb	e8 00 00 00 00	 call	 ?GetJob@CMover@@QAEHXZ	; CMover::GetJob
  001f0	83 f8 11	 cmp	 eax, 17			; 00000011H
  001f3	74 18		 je	 SHORT $L268857
  001f5	8b ce		 mov	 ecx, esi
  001f7	e8 00 00 00 00	 call	 ?GetJob@CMover@@QAEHXZ	; CMover::GetJob
  001fc	83 f8 19	 cmp	 eax, 25			; 00000019H
  001ff	74 0c		 je	 SHORT $L268857
  00201	8b ce		 mov	 ecx, esi
  00203	e8 00 00 00 00	 call	 ?GetJob@CMover@@QAEHXZ	; CMover::GetJob
  00208	83 f8 21	 cmp	 eax, 33			; 00000021H
  0020b	75 31		 jne	 SHORT $L268860
$L268857:

; 510  : #else // __3RD_LEGEND16
; 511  : #if __VER >= 10 // __LEGEND	//	9 	Neuz, World, Trans
; 512  : 			if( pMover->GetJob() == JOB_BLADE || pMover->GetJob() == JOB_BLADE_MASTER || pMover->GetJob() == JOB_BLADE_HERO )	// 
; 513  : #else //__LEGEND	//	9 	Neuz, World, Trans
; 514  : 			if( pMover->GetJob() == JOB_BLADE )	// 
; 515  : #endif	//__LEGEND	//	9 	Neuz, World, Trans
; 516  : #endif // __3RD_LEGEND16
; 517  : 			{
; 518  : 				if( pItemProp->dwID != II_WEA_KNU_ISHOFIST )

  0020d	81 7d 00 b3 18
	00 00		 cmp	 DWORD PTR [ebp], 6323	; 000018b3H
  00214	74 28		 je	 SHORT $L268860

; 519  : 				{
; 520  : 					if( pProp && pProp->dwHanded == HD_ONE )	//   ?   

  00216	85 ff		 test	 edi, edi
  00218	74 4a		 je	 SHORT $L268863
  0021a	83 bf a0 00 00
	00 01		 cmp	 DWORD PTR [edi+160], 1
  00221	75 1b		 jne	 SHORT $L268860

; 521  : 					{
; 522  : 						if( pMover->GetEquipItemProp( pInventory, pEquipInfo, PARTS_SHIELD ) == NULL )	// ?

  00223	8b 4c 24 10	 mov	 ecx, DWORD PTR $T277409[esp+120]
  00227	6a 0b		 push	 11			; 0000000bH
  00229	53		 push	 ebx
  0022a	51		 push	 ecx
  0022b	8b ce		 mov	 ecx, esi
  0022d	e8 00 00 00 00	 call	 ?GetEquipItemProp@CMover@@QAEPAUItemProp@@PAV?$CItemContainer@VCItemElem@@@@PAU_EQUIP_INFO@@H@Z ; CMover::GetEquipItemProp
  00232	85 c0		 test	 eax, eax
  00234	75 08		 jne	 SHORT $L268860

; 523  : 							dwParts = PARTS_LWEAPON;		//   

  00236	c7 44 24 18 09
	00 00 00	 mov	 DWORD PTR _dwParts$[esp+120], 9
$L268860:

; 524  : 					} 
; 525  : 				}
; 526  : 			}
; 527  : 
; 528  : 			if( pProp && pProp->dwItemKind3 == IK3_YOYO )		//   

  0023e	85 ff		 test	 edi, edi
  00240	74 22		 je	 SHORT $L268863
  00242	83 7f 78 0b	 cmp	 DWORD PTR [edi+120], 11	; 0000000bH
  00246	75 1c		 jne	 SHORT $L268863

; 529  : 				pModel->TakeOffParts( PARTS_LWEAPON );			//   .    

  00248	8b 4c 24 14	 mov	 ecx, DWORD PTR $T277411[esp+120]
  0024c	6a 09		 push	 9
  0024e	e8 00 00 00 00	 call	 ?TakeOffParts@CModelObject@@QAEXH@Z ; CModelObject::TakeOffParts

; 530  : 			
; 531  : 		} 
; 532  : 		else

  00253	eb 0f		 jmp	 SHORT $L268863
$L268854:

; 533  : 		{
; 534  : 			// .
; 535  : 			if( nPart >= 0  )		//   

  00255	8b 84 24 88 00
	00 00		 mov	 eax, DWORD PTR _nPart$[esp+116]
  0025c	85 c0		 test	 eax, eax
  0025e	7c 04		 jl	 SHORT $L268863

; 536  : 				dwParts = nPart;	//    .

  00260	89 44 24 18	 mov	 DWORD PTR _dwParts$[esp+120], eax
$L268863:

; 537  : 		}
; 538  : 	} //  .
; 539  : 	
; 540  : #ifndef __WORLDSERVER	// <<<<      ? -xuzhu-
; 541  : 	((CModelObject*)pModel)->TakeOffParts( dwParts );	
; 542  : #endif
; 543  : 
; 544  : 	if( pItemProp && pItemProp->dwItemKind3 == IK3_YOYO )	//   

  00264	83 7d 78 0b	 cmp	 DWORD PTR [ebp+120], 11	; 0000000bH
  00268	75 0b		 jne	 SHORT $L268864

; 545  : 		pModel->TakeOffParts( PARTS_LWEAPON );		//    .

  0026a	8b 4c 24 14	 mov	 ecx, DWORD PTR $T277411[esp+120]
  0026e	6a 09		 push	 9
  00270	e8 00 00 00 00	 call	 ?TakeOffParts@CModelObject@@QAEXH@Z ; CModelObject::TakeOffParts
$L268864:

; 546  : 
; 547  : 	if( bEquip )	//  ...

  00275	8b 84 24 9c 00
	00 00		 mov	 eax, DWORD PTR _bEquip$[esp+116]
  0027c	85 c0		 test	 eax, eax
  0027e	0f 84 86 04 00
	00		 je	 $L268908

; 548  : 	{
; 549  : 		ItemProp *pHandItemProp	= NULL;
; 550  : 		ItemProp *pLHandItemProp = NULL;
; 551  : 
; 552  : 		//    .
; 553  : 		pHandItemProp = pMover->GetEquipItemProp( pInventory, pEquipInfo, PARTS_RWEAPON );		//   .

  00284	8b 7c 24 10	 mov	 edi, DWORD PTR $T277409[esp+120]
  00288	6a 0a		 push	 10			; 0000000aH
  0028a	53		 push	 ebx
  0028b	57		 push	 edi
  0028c	8b ce		 mov	 ecx, esi
  0028e	e8 00 00 00 00	 call	 ?GetEquipItemProp@CMover@@QAEPAUItemProp@@PAV?$CItemContainer@VCItemElem@@@@PAU_EQUIP_INFO@@H@Z ; CMover::GetEquipItemProp

; 554  : 		pLHandItemProp = pMover->GetEquipItemProp( pInventory, pEquipInfo, PARTS_LWEAPON );		//   .

  00293	6a 09		 push	 9
  00295	53		 push	 ebx
  00296	57		 push	 edi
  00297	8b ce		 mov	 ecx, esi
  00299	8b e8		 mov	 ebp, eax
  0029b	e8 00 00 00 00	 call	 ?GetEquipItemProp@CMover@@QAEPAUItemProp@@PAV?$CItemContainer@VCItemElem@@@@PAU_EQUIP_INFO@@H@Z ; CMover::GetEquipItemProp

; 555  : 		
; 556  : 		// .
; 557  : 		if( pItemProp->dwItemKind3 == IK3_SHIELD )	//   

  002a0	8b 54 24 1c	 mov	 edx, DWORD PTR tv70[esp+120]
  002a4	83 7a 78 10	 cmp	 DWORD PTR [edx+120], 16	; 00000010H
  002a8	0f 85 f4 00 00
	00		 jne	 $L268880

; 558  : 		{
; 559  : 			if( pHandItemProp && pHandItemProp->dwHanded == HD_TWO )		//    .

  002ae	85 ed		 test	 ebp, ebp
  002b0	0f 84 81 00 00
	00		 je	 $L268869
  002b6	83 bd a0 00 00
	00 02		 cmp	 DWORD PTR [ebp+160], 2
  002bd	75 78		 jne	 SHORT $L268869

; 560  : 			{
; 561  : 				if( pInventory )

  002bf	85 ff		 test	 edi, edi
  002c1	74 52		 je	 SHORT $L268870

; 562  : 				{
; 563  : 					CItemElem *pItemElemOld = pInventory->GetEquip( PARTS_RWEAPON );

  002c3	6a 0a		 push	 10			; 0000000aH
  002c5	8b cf		 mov	 ecx, edi
  002c7	e8 00 00 00 00	 call	 ?GetEquip@?$CItemContainer@VCItemElem@@@@QAEPAVCItemElem@@K@Z ; CItemContainer<CItemElem>::GetEquip

; 564  : 					if( pInventory->UnEquip( PARTS_RWEAPON ) == FALSE )	

  002cc	8b 4c 24 10	 mov	 ecx, DWORD PTR $T277409[esp+120]
  002d0	6a 0a		 push	 10			; 0000000aH
  002d2	8b f8		 mov	 edi, eax
  002d4	e8 00 00 00 00	 call	 ?UnEquip@?$CItemContainer@VCItemElem@@@@QAEHK@Z ; CItemContainer<CItemElem>::UnEquip
  002d9	85 c0		 test	 eax, eax

; 565  : 						return FALSE;

  002db	0f 84 14 04 00
	00		 je	 $L268845

; 566  : #ifdef __WORLDSERVER
; 567  : 					//  
; 568  : 					if( pItemElemOld )

  002e1	85 ff		 test	 edi, edi
  002e3	74 20		 je	 SHORT $L268873

; 569  : 					{
; 570  : 						ItemProp *pOldItemProp = pItemElemOld->GetProp();

  002e5	8b cf		 mov	 ecx, edi
  002e7	e8 00 00 00 00	 call	 ?GetPropA@CItemElem@@QAEPAUItemProp@@XZ ; CItemElem::GetPropA

; 571  : 						pMover->ResetDestParamEquip( pOldItemProp, pItemElemOld );

  002ec	57		 push	 edi
  002ed	50		 push	 eax
  002ee	8b ce		 mov	 ecx, esi
  002f0	e8 00 00 00 00	 call	 ?ResetDestParamEquip@CMover@@QAEXPAUItemProp@@PAVCItemElem@@@Z ; CMover::ResetDestParamEquip

; 572  : 						g_UserMng.AddDoEquip( pMover, -1, pItemElemOld, FALSE );

  002f5	6a 00		 push	 0
  002f7	57		 push	 edi
  002f8	6a ff		 push	 -1
  002fa	56		 push	 esi
  002fb	b9 00 00 00 00	 mov	 ecx, OFFSET FLAT:?g_UserMng@@3VCUserMng@@A
  00300	e8 00 00 00 00	 call	 ?AddDoEquip@CUserMng@@QAEXPAVCMover@@HPAVCItemElem@@E@Z ; CUserMng::AddDoEquip
$L268873:

; 573  : 					}
; 574  : #if __VER >= 9 // __ULTIMATE
; 575  : 					prj.m_UltimateWeapon.SetDestParamUltimate( pMover, pItemElemOld, FALSE, PARTS_RWEAPON );

  00305	6a 0a		 push	 10			; 0000000aH
  00307	6a 00		 push	 0
  00309	57		 push	 edi
  0030a	56		 push	 esi
  0030b	b9 9c 91 11 00	 mov	 ecx, OFFSET FLAT:?prj@@3VCProject@@A+1151388
  00310	e8 00 00 00 00	 call	 ?SetDestParamUltimate@CUltimateWeapon@@QAEXPAVCMover@@PAVCItemElem@@HK@Z ; CUltimateWeapon::SetDestParamUltimate
$L268870:

; 576  : #endif // __ULTIMATE
; 577  : #endif // worldserver
; 578  : 					if( pEquipInfo )
; 579  : 						pEquipInfo[PARTS_RWEAPON].dwId	= NULL_ID;
; 580  : 				} else
; 581  : 				{
; 582  : 					if( pEquipInfo )

  00315	85 db		 test	 ebx, ebx
  00317	74 07		 je	 SHORT $L277417

; 583  : 						pEquipInfo[PARTS_RWEAPON].dwId	= NULL_ID;

  00319	c7 43 78 ff ff
	ff ff		 mov	 DWORD PTR [ebx+120], -1
$L277417:

; 584  : 				}
; 585  : 				pModel->TakeOffParts( PARTS_RWEAPON );

  00320	8b 7c 24 14	 mov	 edi, DWORD PTR $T277411[esp+120]
  00324	6a 0a		 push	 10			; 0000000aH
  00326	8b cf		 mov	 ecx, edi
  00328	e8 00 00 00 00	 call	 ?TakeOffParts@CModelObject@@QAEXH@Z ; CModelObject::TakeOffParts

; 586  : 				if( pHandItemProp->dwItemKind3 == IK3_YOYO )	//    

  0032d	83 7d 78 0b	 cmp	 DWORD PTR [ebp+120], 11	; 0000000bH
  00331	75 6f		 jne	 SHORT $L268880

; 587  : 					pModel->TakeOffParts( PARTS_LWEAPON );		//    .

  00333	8b cf		 mov	 ecx, edi

; 588  : 			}
; 589  : 			else

  00335	eb 64		 jmp	 SHORT $L277432
$L268869:

; 590  : 			if( pLHandItemProp && pLHandItemProp->dwParts == PARTS_RWEAPON )	//   .    PARTS  RWEAPON.

  00337	85 c0		 test	 eax, eax
  00339	74 67		 je	 SHORT $L268880
  0033b	83 b8 a8 00 00
	00 0a		 cmp	 DWORD PTR [eax+168], 10	; 0000000aH
  00342	75 5e		 jne	 SHORT $L268880

; 591  : 			{
; 592  : 				if( pInventory )

  00344	85 ff		 test	 edi, edi
  00346	74 44		 je	 SHORT $L268881

; 593  : 				{
; 594  : 					CItemElem *pItemElemOld = pInventory->GetEquip( PARTS_LWEAPON );

  00348	8b 4c 24 10	 mov	 ecx, DWORD PTR $T277409[esp+120]
  0034c	6a 09		 push	 9
  0034e	e8 00 00 00 00	 call	 ?GetEquip@?$CItemContainer@VCItemElem@@@@QAEPAVCItemElem@@K@Z ; CItemContainer<CItemElem>::GetEquip

; 595  : 					if( pInventory->UnEquip( PARTS_LWEAPON ) == FALSE )	

  00353	8b 4c 24 10	 mov	 ecx, DWORD PTR $T277409[esp+120]
  00357	6a 09		 push	 9
  00359	8b f8		 mov	 edi, eax
  0035b	e8 00 00 00 00	 call	 ?UnEquip@?$CItemContainer@VCItemElem@@@@QAEHK@Z ; CItemContainer<CItemElem>::UnEquip
  00360	85 c0		 test	 eax, eax

; 596  : 						return FALSE;

  00362	0f 84 8d 03 00
	00		 je	 $L268845

; 597  : #ifdef __WORLDSERVER
; 598  : 					//  
; 599  : 					if( pItemElemOld )

  00368	85 ff		 test	 edi, edi
  0036a	74 20		 je	 SHORT $L268881

; 600  : 					{
; 601  : 						ItemProp *pOldItemProp = pItemElemOld->GetProp();

  0036c	8b cf		 mov	 ecx, edi
  0036e	e8 00 00 00 00	 call	 ?GetPropA@CItemElem@@QAEPAUItemProp@@XZ ; CItemElem::GetPropA

; 602  : #ifndef 	__BLADELWEAPON0608	//	9th               
; 603  : 						pMover->ResetDestParamEquip( pOldItemProp, pItemElemOld );

  00373	57		 push	 edi
  00374	50		 push	 eax
  00375	8b ce		 mov	 ecx, esi
  00377	e8 00 00 00 00	 call	 ?ResetDestParamEquip@CMover@@QAEXPAUItemProp@@PAVCItemElem@@@Z ; CMover::ResetDestParamEquip

; 604  : #endif	//__BLADELWEAPON0608	//	9th               
; 605  : 						g_UserMng.AddDoEquip( pMover, PARTS_LWEAPON, pItemElemOld, FALSE );

  0037c	6a 00		 push	 0
  0037e	57		 push	 edi
  0037f	6a 09		 push	 9
  00381	56		 push	 esi
  00382	b9 00 00 00 00	 mov	 ecx, OFFSET FLAT:?g_UserMng@@3VCUserMng@@A
  00387	e8 00 00 00 00	 call	 ?AddDoEquip@CUserMng@@QAEXPAVCMover@@HPAVCItemElem@@E@Z ; CUserMng::AddDoEquip
$L268881:

; 606  : 					}
; 607  : #endif // worldserver
; 608  : 					if( pEquipInfo )
; 609  : 						pEquipInfo[PARTS_LWEAPON].dwId	= NULL_ID;
; 610  : 				}
; 611  : 				else
; 612  : 				{
; 613  : 					if( pEquipInfo )

  0038c	85 db		 test	 ebx, ebx
  0038e	74 07		 je	 SHORT $L268888

; 614  : 						pEquipInfo[PARTS_LWEAPON].dwId	= NULL_ID;

  00390	c7 43 6c ff ff
	ff ff		 mov	 DWORD PTR [ebx+108], -1
$L268888:

; 615  : 				}
; 616  : 				pModel->TakeOffParts( PARTS_LWEAPON );

  00397	8b 4c 24 14	 mov	 ecx, DWORD PTR $T277411[esp+120]
$L277432:
  0039b	6a 09		 push	 9
  0039d	e8 00 00 00 00	 call	 ?TakeOffParts@CModelObject@@QAEXH@Z ; CModelObject::TakeOffParts
$L268880:

; 617  : 			}
; 618  : 		} // IK3_SHIELD
; 619  : 		if( pItemProp->dwHanded == HD_TWO )		//    

  003a2	8b 44 24 1c	 mov	 eax, DWORD PTR tv70[esp+120]
  003a6	83 b8 a0 00 00
	00 02		 cmp	 DWORD PTR [eax+160], 2
  003ad	0f 85 27 01 00
	00		 jne	 $L268907

; 620  : 		{
; 621  : 			if( pHandItemProp && pHandItemProp->dwItemKind3 == IK3_YOYO )	//    

  003b3	85 ed		 test	 ebp, ebp
  003b5	74 11		 je	 SHORT $L277418
  003b7	83 7d 78 0b	 cmp	 DWORD PTR [ebp+120], 11	; 0000000bH
  003bb	75 0b		 jne	 SHORT $L277418

; 622  : 				pModel->TakeOffParts( PARTS_LWEAPON );		//    .

  003bd	8b 4c 24 14	 mov	 ecx, DWORD PTR $T277411[esp+120]
  003c1	6a 09		 push	 9
  003c3	e8 00 00 00 00	 call	 ?TakeOffParts@CModelObject@@QAEXH@Z ; CModelObject::TakeOffParts
$L277418:

; 623  : 			if( pInventory == NULL )

  003c8	8b 44 24 10	 mov	 eax, DWORD PTR $T277409[esp+120]
  003cc	85 c0		 test	 eax, eax
  003ce	75 3a		 jne	 SHORT $L268891

; 624  : 			{
; 625  : 				if( pEquipInfo[PARTS_SHIELD].dwId != NULL_ID )		//     .

  003d0	8b 83 84 00 00
	00		 mov	 eax, DWORD PTR [ebx+132]
  003d6	83 ce ff	 or	 esi, -1
  003d9	3b c6		 cmp	 eax, esi
  003db	74 11		 je	 SHORT $L277428

; 626  : 				{
; 627  : 					pModel->TakeOffParts( PARTS_SHIELD );

  003dd	8b 4c 24 14	 mov	 ecx, DWORD PTR $T277411[esp+120]
  003e1	6a 0b		 push	 11			; 0000000bH
  003e3	e8 00 00 00 00	 call	 ?TakeOffParts@CModelObject@@QAEXH@Z ; CModelObject::TakeOffParts

; 628  : 					if( pEquipInfo )
; 629  : 						pEquipInfo[PARTS_SHIELD].dwId	= NULL_ID;

  003e8	89 b3 84 00 00
	00		 mov	 DWORD PTR [ebx+132], esi
$L277428:

; 630  : 				}
; 631  : 				if( pEquipInfo[PARTS_RWEAPON].dwId != NULL_ID )		//    .

  003ee	39 73 78	 cmp	 DWORD PTR [ebx+120], esi
  003f1	0f 84 eb 00 00
	00		 je	 $L277413

; 632  : 				{
; 633  : 					pModel->TakeOffParts( PARTS_RWEAPON );

  003f7	8b 4c 24 14	 mov	 ecx, DWORD PTR $T277411[esp+120]
  003fb	6a 0a		 push	 10			; 0000000aH
  003fd	e8 00 00 00 00	 call	 ?TakeOffParts@CModelObject@@QAEXH@Z ; CModelObject::TakeOffParts

; 634  : 					if( pEquipInfo )
; 635  : 						pEquipInfo[PARTS_RWEAPON].dwId	= NULL_ID;

  00402	89 73 78	 mov	 DWORD PTR [ebx+120], esi

; 636  : 				}
; 637  : 			}
; 638  : 			else

  00405	e9 d8 00 00 00	 jmp	 $L277413
$L268891:

; 639  : 			{
; 640  : 				CItemElem *pItemElemOld = pInventory->GetEquip( PARTS_SHIELD );

  0040a	8b 6c 24 10	 mov	 ebp, DWORD PTR $T277409[esp+120]
  0040e	6a 0b		 push	 11			; 0000000bH
  00410	8b cd		 mov	 ecx, ebp
  00412	e8 00 00 00 00	 call	 ?GetEquip@?$CItemContainer@VCItemElem@@@@QAEPAVCItemElem@@K@Z ; CItemContainer<CItemElem>::GetEquip
  00417	8b f8		 mov	 edi, eax

; 641  : 				if( pItemElemOld )

  00419	85 ff		 test	 edi, edi
  0041b	74 4a		 je	 SHORT $L277420

; 642  : 				{
; 643  : 					if( pInventory->UnEquip( PARTS_SHIELD ) == FALSE )	//  

  0041d	6a 0b		 push	 11			; 0000000bH
  0041f	8b cd		 mov	 ecx, ebp
  00421	e8 00 00 00 00	 call	 ?UnEquip@?$CItemContainer@VCItemElem@@@@QAEHK@Z ; CItemContainer<CItemElem>::UnEquip
  00426	85 c0		 test	 eax, eax

; 644  : 						return FALSE;	//    

  00428	0f 84 c7 02 00
	00		 je	 $L268845

; 645  : #ifdef __WORLDSERVER
; 646  : 					if( pItemElemOld )	//  
; 647  : 					{
; 648  : 						ItemProp *pOldItemProp = pItemElemOld->GetProp();

  0042e	8b cf		 mov	 ecx, edi
  00430	e8 00 00 00 00	 call	 ?GetPropA@CItemElem@@QAEPAUItemProp@@XZ ; CItemElem::GetPropA

; 649  : 						pMover->ResetDestParamEquip( pOldItemProp, pItemElemOld );

  00435	57		 push	 edi
  00436	50		 push	 eax
  00437	8b ce		 mov	 ecx, esi
  00439	e8 00 00 00 00	 call	 ?ResetDestParamEquip@CMover@@QAEXPAUItemProp@@PAVCItemElem@@@Z ; CMover::ResetDestParamEquip

; 650  : 						g_UserMng.AddDoEquip( pMover, -1, pItemElemOld, FALSE );

  0043e	6a 00		 push	 0
  00440	57		 push	 edi
  00441	6a ff		 push	 -1
  00443	56		 push	 esi
  00444	b9 00 00 00 00	 mov	 ecx, OFFSET FLAT:?g_UserMng@@3VCUserMng@@A
  00449	e8 00 00 00 00	 call	 ?AddDoEquip@CUserMng@@QAEXPAVCMover@@HPAVCItemElem@@E@Z ; CUserMng::AddDoEquip

; 651  : 					}
; 652  : #endif
; 653  : 					pModel->TakeOffParts( PARTS_SHIELD );

  0044e	8b 4c 24 14	 mov	 ecx, DWORD PTR $T277411[esp+120]
  00452	6a 0b		 push	 11			; 0000000bH
  00454	e8 00 00 00 00	 call	 ?TakeOffParts@CModelObject@@QAEXH@Z ; CModelObject::TakeOffParts

; 654  : 					if( pEquipInfo )

  00459	85 db		 test	 ebx, ebx
  0045b	74 0a		 je	 SHORT $L277420

; 655  : 						pEquipInfo[PARTS_SHIELD].dwId	= NULL_ID;

  0045d	c7 83 84 00 00
	00 ff ff ff ff	 mov	 DWORD PTR [ebx+132], -1
$L277420:

; 656  : 				}
; 657  : 				
; 658  : 				pItemElemOld = pInventory->GetEquip( PARTS_RWEAPON );

  00467	6a 0a		 push	 10			; 0000000aH
  00469	8b cd		 mov	 ecx, ebp
  0046b	e8 00 00 00 00	 call	 ?GetEquip@?$CItemContainer@VCItemElem@@@@QAEPAVCItemElem@@K@Z ; CItemContainer<CItemElem>::GetEquip

; 659  : 				if( pInventory->GetEquip( PARTS_RWEAPON ) )

  00470	6a 0a		 push	 10			; 0000000aH
  00472	8b cd		 mov	 ecx, ebp
  00474	8b f8		 mov	 edi, eax
  00476	e8 00 00 00 00	 call	 ?GetEquip@?$CItemContainer@VCItemElem@@@@QAEPAVCItemElem@@K@Z ; CItemContainer<CItemElem>::GetEquip
  0047b	85 c0		 test	 eax, eax
  0047d	74 5b		 je	 SHORT $L268907

; 660  : 				{
; 661  : 					if( pInventory->UnEquip( PARTS_RWEAPON ) == FALSE )	// 

  0047f	6a 0a		 push	 10			; 0000000aH
  00481	8b cd		 mov	 ecx, ebp
  00483	e8 00 00 00 00	 call	 ?UnEquip@?$CItemContainer@VCItemElem@@@@QAEHK@Z ; CItemContainer<CItemElem>::UnEquip
  00488	85 c0		 test	 eax, eax

; 662  : 						return FALSE;	//    

  0048a	0f 84 65 02 00
	00		 je	 $L268845

; 663  : #ifdef __WORLDSERVER
; 664  : 					if( pItemElemOld )	//  

  00490	85 ff		 test	 edi, edi
  00492	74 20		 je	 SHORT $L277421

; 665  : 					{
; 666  : 						ItemProp *pOldItemProp = pItemElemOld->GetProp();

  00494	8b cf		 mov	 ecx, edi
  00496	e8 00 00 00 00	 call	 ?GetPropA@CItemElem@@QAEPAUItemProp@@XZ ; CItemElem::GetPropA

; 667  : 						pMover->ResetDestParamEquip( pOldItemProp, pItemElemOld );

  0049b	57		 push	 edi
  0049c	50		 push	 eax
  0049d	8b ce		 mov	 ecx, esi
  0049f	e8 00 00 00 00	 call	 ?ResetDestParamEquip@CMover@@QAEXPAUItemProp@@PAVCItemElem@@@Z ; CMover::ResetDestParamEquip

; 668  : 						g_UserMng.AddDoEquip( pMover, -1, pItemElemOld, FALSE );

  004a4	6a 00		 push	 0
  004a6	57		 push	 edi
  004a7	6a ff		 push	 -1
  004a9	56		 push	 esi
  004aa	b9 00 00 00 00	 mov	 ecx, OFFSET FLAT:?g_UserMng@@3VCUserMng@@A
  004af	e8 00 00 00 00	 call	 ?AddDoEquip@CUserMng@@QAEXPAVCMover@@HPAVCItemElem@@E@Z ; CUserMng::AddDoEquip
$L277421:

; 669  : 					}
; 670  : #if __VER >= 9 // __ULTIMATE
; 671  : 					prj.m_UltimateWeapon.SetDestParamUltimate( pMover, pItemElemOld, FALSE, PARTS_RWEAPON );

  004b4	6a 0a		 push	 10			; 0000000aH
  004b6	6a 00		 push	 0
  004b8	57		 push	 edi
  004b9	56		 push	 esi
  004ba	b9 9c 91 11 00	 mov	 ecx, OFFSET FLAT:?prj@@3VCProject@@A+1151388
  004bf	e8 00 00 00 00	 call	 ?SetDestParamUltimate@CUltimateWeapon@@QAEXPAVCMover@@PAVCItemElem@@HK@Z ; CUltimateWeapon::SetDestParamUltimate

; 672  : #endif // __ULTIMATE
; 673  : #endif // __WORLDSERVER
; 674  : 					pModel->TakeOffParts( PARTS_RWEAPON );

  004c4	8b 4c 24 14	 mov	 ecx, DWORD PTR $T277411[esp+120]
  004c8	6a 0a		 push	 10			; 0000000aH
  004ca	e8 00 00 00 00	 call	 ?TakeOffParts@CModelObject@@QAEXH@Z ; CModelObject::TakeOffParts

; 675  : 					if( pEquipInfo )

  004cf	85 db		 test	 ebx, ebx
  004d1	74 07		 je	 SHORT $L268907

; 676  : 						pEquipInfo[PARTS_RWEAPON].dwId	= NULL_ID;

  004d3	c7 43 78 ff ff
	ff ff		 mov	 DWORD PTR [ebx+120], -1
$L268907:

; 677  : 				}
; 678  : 			}
; 679  : 		} // HD_TWO
; 680  : 	} // bEquip == TRUE
; 681  : 
; 682  : 	if( bEquip )
; 683  : 	{
; 684  : 		if( pInventory == NULL )

  004da	8b 44 24 10	 mov	 eax, DWORD PTR $T277409[esp+120]
  004de	85 c0		 test	 eax, eax
  004e0	75 73		 jne	 SHORT $L268909
$L277413:

; 685  : 		{
; 686  : 			//    
; 687  : 			if( pItemProp->dwExclusive != NULL_ID )

  004e2	8b 4c 24 1c	 mov	 ecx, DWORD PTR tv70[esp+120]
  004e6	8b 81 b4 00 00
	00		 mov	 eax, DWORD PTR [ecx+180]
  004ec	83 f8 ff	 cmp	 eax, -1
  004ef	74 26		 je	 SHORT $L268911

; 688  : 			{
; 689  : 				pModel->TakeOffParts( pItemProp->dwExclusive );

  004f1	8b 4c 24 14	 mov	 ecx, DWORD PTR $T277411[esp+120]
  004f5	50		 push	 eax
  004f6	e8 00 00 00 00	 call	 ?TakeOffParts@CModelObject@@QAEXH@Z ; CModelObject::TakeOffParts

; 690  : 				if( pEquipInfo )

  004fb	85 db		 test	 ebx, ebx
  004fd	0f 84 d8 04 00
	00		 je	 $L268985

; 691  : 					pEquipInfo[pItemProp->dwExclusive].dwId		= NULL_ID;

  00503	8b 54 24 1c	 mov	 edx, DWORD PTR tv70[esp+120]
  00507	8b 82 b4 00 00
	00		 mov	 eax, DWORD PTR [edx+180]
  0050d	8d 04 40	 lea	 eax, DWORD PTR [eax+eax*2]
  00510	c7 04 83 ff ff
	ff ff		 mov	 DWORD PTR [ebx+eax*4], -1
$L268911:

; 692  : 			}
; 693  : 			//   
; 694  : 			if( pEquipInfo )

  00517	85 db		 test	 ebx, ebx
  00519	0f 84 bc 04 00
	00		 je	 $L268985

; 695  : 				memcpy( &pEquipInfo[dwParts], &rEquipInfo, sizeof(EQUIP_INFO) );

  0051f	8b 44 24 18	 mov	 eax, DWORD PTR _dwParts$[esp+120]
  00523	8d 0c 40	 lea	 ecx, DWORD PTR [eax+eax*2]
  00526	8b 44 24 2c	 mov	 eax, DWORD PTR $T277408[esp+120]
  0052a	8d 14 8b	 lea	 edx, DWORD PTR [ebx+ecx*4]
  0052d	8b 08		 mov	 ecx, DWORD PTR [eax]
  0052f	89 0a		 mov	 DWORD PTR [edx], ecx
  00531	8b 48 04	 mov	 ecx, DWORD PTR [eax+4]
  00534	5f		 pop	 edi
  00535	89 4a 04	 mov	 DWORD PTR [edx+4], ecx
  00538	8b 40 08	 mov	 eax, DWORD PTR [eax+8]
  0053b	5e		 pop	 esi
  0053c	5d		 pop	 ebp
  0053d	89 42 08	 mov	 DWORD PTR [edx+8], eax

; 1017 : 					#ifdef __CLIENT
; 1018 : 						((CModelObject*)pModel)->MovePart( PARTS_RWEAPON, PARTS_LWEAPON );
; 1019 : 						((CModelObject*)pModel)->SetParent( PARTS_RWEAPON, ((CModelObject*)pModel)->GetRHandIdx() );
; 1020 : 					#endif	// __CLIENT
; 1021 : 					}
; 1022 : 				}
; 1023 : 			}
; 1024 : 		}
; 1025 : 	}
; 1026 : 
; 1027 : #ifdef __CLIENT
; 1028 : 	D3DXVECTOR3 vPos = pMover->GetPos();
; 1029 : 				
; 1030 : 	if( bEquip )
; 1031 : 	{
; 1032 : 		if( pItemProp )
; 1033 : 		{
; 1034 : 			if( pItemProp->dwItemKind1 == IK1_WEAPON )
; 1035 : 			{
; 1036 : 				PLAYSND( SND_INF_EQUIPWEAPON, &vPos );
; 1037 : 			}
; 1038 : 			else
; 1039 : 			if( pItemProp->dwItemKind1 == IK1_GENERAL && pItemProp->dwItemKind2 == IK2_JEWELRY )
; 1040 : 			{
; 1041 : 				PLAYSND( SND_INF_EQUIPACCESSORY, &vPos );
; 1042 : 			}
; 1043 : 			else
; 1044 : 			if( pItemProp->dwItemKind1 == IK1_ARMOR && pItemProp->dwItemKind2 == IK2_CLOTH )
; 1045 : 			{
; 1046 : 				PLAYSND( SND_INF_EQUIPCLOTH, &vPos );
; 1047 : 			}
; 1048 : 			else
; 1049 : 			if( pItemProp->dwItemKind1 == IK1_ARMOR && pItemProp->dwItemKind2 == IK2_ARMOR 
; 1050 : 				|| pItemProp->dwItemKind2 == IK2_ARMORETC )
; 1051 : 			{
; 1052 : 				PLAYSND( SND_INF_EQUIPARMOR, &vPos );
; 1053 : 			}	
; 1054 : 		}
; 1055 : 	}
; 1056 : 	else
; 1057 : 	{
; 1058 : 		PLAYSND( SND_INF_INVENTORYDROP, &vPos );		
; 1059 : 	}
; 1060 : #endif //__CLIENT
; 1061 : 
; 1062 : 	return TRUE;

  00540	b8 01 00 00 00	 mov	 eax, 1
  00545	5b		 pop	 ebx

; 1063 : }

  00546	8b 4c 24 64	 mov	 ecx, DWORD PTR __$ArrayPad$[esp+104]
  0054a	33 cc		 xor	 ecx, esp
  0054c	e8 00 00 00 00	 call	 @__security_check_cookie@4
  00551	83 c4 68	 add	 esp, 104		; 00000068H
  00554	c3		 ret	 0
$L268909:

; 696  : 		}
; 697  : 		else
; 698  : 		{
; 699  : 			//    
; 700  : 			if( pItemProp->dwExclusive != NULL_ID )

  00555	8b 6c 24 1c	 mov	 ebp, DWORD PTR tv70[esp+120]
  00559	8b 85 b4 00 00
	00		 mov	 eax, DWORD PTR [ebp+180]
  0055f	83 f8 ff	 cmp	 eax, -1
  00562	74 58		 je	 SHORT $L268915

; 701  : 			{
; 702  : 				CItemElem* pExclusive	= pInventory->GetEquip( pItemProp->dwExclusive );

  00564	8b 5c 24 10	 mov	 ebx, DWORD PTR $T277409[esp+120]
  00568	50		 push	 eax
  00569	8b cb		 mov	 ecx, ebx
  0056b	e8 00 00 00 00	 call	 ?GetEquip@?$CItemContainer@VCItemElem@@@@QAEPAVCItemElem@@K@Z ; CItemContainer<CItemElem>::GetEquip
  00570	8b f8		 mov	 edi, eax

; 703  : 				if( pExclusive )

  00572	85 ff		 test	 edi, edi
  00574	74 36		 je	 SHORT $L268917

; 704  : 				{
; 705  : 					if( pInventory->UnEquip( pItemProp->dwExclusive ) == FALSE )

  00576	8b 8d b4 00 00
	00		 mov	 ecx, DWORD PTR [ebp+180]
  0057c	51		 push	 ecx
  0057d	8b cb		 mov	 ecx, ebx
  0057f	e8 00 00 00 00	 call	 ?UnEquip@?$CItemContainer@VCItemElem@@@@QAEHK@Z ; CItemContainer<CItemElem>::UnEquip
  00584	85 c0		 test	 eax, eax

; 706  : 						return FALSE;

  00586	0f 84 69 01 00
	00		 je	 $L268845

; 707  : #ifdef __WORLDSERVER
; 708  : 					ItemProp *pProp	= pExclusive->GetProp();

  0058c	8b cf		 mov	 ecx, edi
  0058e	e8 00 00 00 00	 call	 ?GetPropA@CItemElem@@QAEPAUItemProp@@XZ ; CItemElem::GetPropA

; 709  : 					pMover->ResetDestParamEquip( pProp, pExclusive );

  00593	57		 push	 edi
  00594	50		 push	 eax
  00595	8b ce		 mov	 ecx, esi
  00597	e8 00 00 00 00	 call	 ?ResetDestParamEquip@CMover@@QAEXPAUItemProp@@PAVCItemElem@@@Z ; CMover::ResetDestParamEquip

; 710  : 					g_UserMng.AddDoEquip( pMover, -1, pExclusive, FALSE );

  0059c	6a 00		 push	 0
  0059e	57		 push	 edi
  0059f	6a ff		 push	 -1
  005a1	56		 push	 esi
  005a2	b9 00 00 00 00	 mov	 ecx, OFFSET FLAT:?g_UserMng@@3VCUserMng@@A
  005a7	e8 00 00 00 00	 call	 ?AddDoEquip@CUserMng@@QAEXPAVCMover@@HPAVCItemElem@@E@Z ; CUserMng::AddDoEquip
$L268917:

; 711  : #endif	// __WORLDSERVER
; 712  : 
; 713  : 				}
; 714  : 				pModel->TakeOffParts( pItemProp->dwExclusive );

  005ac	8b 95 b4 00 00
	00		 mov	 edx, DWORD PTR [ebp+180]
  005b2	8b 4c 24 14	 mov	 ecx, DWORD PTR $T277411[esp+120]
  005b6	52		 push	 edx
  005b7	e8 00 00 00 00	 call	 ?TakeOffParts@CModelObject@@QAEXH@Z ; CModelObject::TakeOffParts
$L268915:

; 715  : 
; 716  : 			}
; 717  : 
; 718  : 			//    
; 719  : 			if( dwParts == PARTS_RING1 || dwParts == PARTS_EARRING1 )

  005bc	8b 44 24 18	 mov	 eax, DWORD PTR _dwParts$[esp+120]
  005c0	83 f8 14	 cmp	 eax, 20			; 00000014H
  005c3	74 05		 je	 SHORT $L268921
  005c5	83 f8 16	 cmp	 eax, 22			; 00000016H
  005c8	75 4b		 jne	 SHORT $L268930
$L268921:

; 720  : 			{
; 721  : 				DWORD dwElem1 = NULL_ID, dwElem2 = NULL_ID;
; 722  : 				CItemElem* pItemElemTemp1 = (CItemElem*)pInventory->GetEquip( dwParts );

  005ca	8b 44 24 18	 mov	 eax, DWORD PTR _dwParts$[esp+120]
  005ce	8b 4c 24 10	 mov	 ecx, DWORD PTR $T277409[esp+120]
  005d2	50		 push	 eax
  005d3	83 cd ff	 or	 ebp, -1
  005d6	83 cb ff	 or	 ebx, -1
  005d9	e8 00 00 00 00	 call	 ?GetEquip@?$CItemContainer@VCItemElem@@@@QAEPAVCItemElem@@K@Z ; CItemContainer<CItemElem>::GetEquip

; 723  : 				CItemElem* pItemElemTemp2 = (CItemElem*)pInventory->GetEquip( dwParts + 1 );

  005de	8b 4c 24 18	 mov	 ecx, DWORD PTR _dwParts$[esp+120]
  005e2	41		 inc	 ecx
  005e3	51		 push	 ecx
  005e4	8b 4c 24 14	 mov	 ecx, DWORD PTR $T277409[esp+124]
  005e8	8b f8		 mov	 edi, eax
  005ea	e8 00 00 00 00	 call	 ?GetEquip@?$CItemContainer@VCItemElem@@@@QAEPAVCItemElem@@K@Z ; CItemContainer<CItemElem>::GetEquip

; 724  : 				if( pItemElemTemp1 ) dwElem1 = pItemElemTemp1->m_dwItemId;

  005ef	85 ff		 test	 edi, edi
  005f1	74 03		 je	 SHORT $L268928
  005f3	8b 6f 0c	 mov	 ebp, DWORD PTR [edi+12]
$L268928:

; 725  : 				if( pItemElemTemp2 ) dwElem2 = pItemElemTemp2->m_dwItemId;

  005f6	85 c0		 test	 eax, eax
  005f8	74 03		 je	 SHORT $L268929
  005fa	8b 58 0c	 mov	 ebx, DWORD PTR [eax+12]
$L268929:

; 726  : 				if( dwElem1 != NULL_ID && dwElem2 == NULL_ID )

  005fd	83 fd ff	 cmp	 ebp, -1
  00600	74 13		 je	 SHORT $L268930
  00602	83 fb ff	 cmp	 ebx, -1
  00605	75 0e		 jne	 SHORT $L268930

; 727  : 					dwParts = pItemProp->dwPartsub;

  00607	8b 54 24 1c	 mov	 edx, DWORD PTR tv70[esp+120]
  0060b	8b 82 ac 00 00
	00		 mov	 eax, DWORD PTR [edx+172]
  00611	89 44 24 18	 mov	 DWORD PTR _dwParts$[esp+120], eax
$L268930:

; 728  : 			}
; 729  : 			CItemElem *pItemElemOld = pInventory->GetEquip( dwParts );

  00615	8b 5c 24 18	 mov	 ebx, DWORD PTR _dwParts$[esp+120]
  00619	8b 6c 24 10	 mov	 ebp, DWORD PTR $T277409[esp+120]
  0061d	53		 push	 ebx
  0061e	8b cd		 mov	 ecx, ebp
  00620	e8 00 00 00 00	 call	 ?GetEquip@?$CItemContainer@VCItemElem@@@@QAEPAVCItemElem@@K@Z ; CItemContainer<CItemElem>::GetEquip
  00625	8b f8		 mov	 edi, eax

; 730  : 			if( pItemElemOld )

  00627	85 ff		 test	 edi, edi
  00629	74 42		 je	 SHORT $L277415

; 731  : 			{
; 732  : 				if( pInventory->UnEquip( dwParts ) == FALSE )

  0062b	53		 push	 ebx
  0062c	8b cd		 mov	 ecx, ebp
  0062e	e8 00 00 00 00	 call	 ?UnEquip@?$CItemContainer@VCItemElem@@@@QAEHK@Z ; CItemContainer<CItemElem>::UnEquip
  00633	85 c0		 test	 eax, eax

; 733  : 					return FALSE;

  00635	0f 84 ba 00 00
	00		 je	 $L268845

; 734  : #ifdef __WORLDSERVER
; 735  : 				ItemProp *pOldItemProp = pItemElemOld->GetProp();

  0063b	8b cf		 mov	 ecx, edi
  0063d	e8 00 00 00 00	 call	 ?GetPropA@CItemElem@@QAEPAUItemProp@@XZ ; CItemElem::GetPropA

; 736  : #ifdef 	__BLADELWEAPON0608	//	9th               
; 737  : 				if(dwParts != PARTS_LWEAPON )
; 738  : #endif	//__BLADELWEAPON0608	//	9th               
; 739  : 					pMover->ResetDestParamEquip( pOldItemProp, pItemElemOld );					

  00642	57		 push	 edi
  00643	50		 push	 eax
  00644	8b ce		 mov	 ecx, esi
  00646	e8 00 00 00 00	 call	 ?ResetDestParamEquip@CMover@@QAEXPAUItemProp@@PAVCItemElem@@@Z ; CMover::ResetDestParamEquip

; 740  : 				if( pItemElemOld->m_nResistSMItemId != 0 )	//   V 

  0064b	8b 87 90 00 00
	00		 mov	 eax, DWORD PTR [edi+144]
  00651	85 c0		 test	 eax, eax
  00653	74 09		 je	 SHORT $L268935

; 741  : 					((CUser* )pMover)->DoSMItemUnEquip( pItemElemOld, dwParts );

  00655	53		 push	 ebx
  00656	57		 push	 edi
  00657	8b ce		 mov	 ecx, esi
  00659	e8 00 00 00 00	 call	 ?DoSMItemUnEquip@CUser@@QAEXPAVCItemElem@@K@Z ; CUser::DoSMItemUnEquip
$L268935:

; 742  : #if __VER >= 9 // __ULTIMATE
; 743  : 				prj.m_UltimateWeapon.SetDestParamUltimate( pMover, pItemElemOld, FALSE, dwParts );

  0065e	53		 push	 ebx
  0065f	6a 00		 push	 0
  00661	57		 push	 edi
  00662	56		 push	 esi
  00663	b9 9c 91 11 00	 mov	 ecx, OFFSET FLAT:?prj@@3VCProject@@A+1151388
  00668	e8 00 00 00 00	 call	 ?SetDestParamUltimate@CUltimateWeapon@@QAEXPAVCMover@@PAVCItemElem@@HK@Z ; CUltimateWeapon::SetDestParamUltimate
$L277415:

; 744  : #endif // __ULTIMATE
; 745  : #endif // worldserver
; 746  : 				
; 747  : 			}
; 748  : 			//    
; 749  : 			if( TRUE == pInventory->DoEquip( dwIndex, /*MAX_INVENTORY +*/ dwParts ) )

  0066d	8b 4c 24 24	 mov	 ecx, DWORD PTR _dwIndex$[esp+120]
  00671	53		 push	 ebx
  00672	51		 push	 ecx
  00673	8b cd		 mov	 ecx, ebp
  00675	e8 00 00 00 00	 call	 ?DoEquip@?$CItemContainer@VCItemElem@@@@QAEHKK@Z ; CItemContainer<CItemElem>::DoEquip
  0067a	83 f8 01	 cmp	 eax, 1
  0067d	75 5f		 jne	 SHORT $L268937

; 750  : 			{
; 751  : 				if( pEquipInfo )

  0067f	8b 7c 24 30	 mov	 edi, DWORD PTR $T277410[esp+120]
  00683	85 ff		 test	 edi, edi

; 752  : 				{
; 753  : 					pEquipInfo[dwParts].dwId	= pItemElem->m_dwObjId;

  00685	8b 6c 24 20	 mov	 ebp, DWORD PTR $T277407[esp+120]
  00689	74 15		 je	 SHORT $L268938
  0068b	8b 45 04	 mov	 eax, DWORD PTR [ebp+4]
  0068e	8d 14 5b	 lea	 edx, DWORD PTR [ebx+ebx*2]
  00691	8d 3c 97	 lea	 edi, DWORD PTR [edi+edx*4]

; 754  : 					pEquipInfo[dwParts].nOption = pItemElem->GetAttrOption();

  00694	8b cd		 mov	 ecx, ebp
  00696	89 07		 mov	 DWORD PTR [edi], eax
  00698	e8 00 00 00 00	 call	 ?GetAttrOption@CItemElem@@QAEHXZ ; CItemElem::GetAttrOption
  0069d	89 47 04	 mov	 DWORD PTR [edi+4], eax
$L268938:

; 755  : 				}
; 756  : 
; 757  : #ifdef __WORLDSERVER
; 758  : 				if( pItemElem && pItemElem->m_nResistSMItemId != 0 ) //   V 

  006a0	85 ed		 test	 ebp, ebp
  006a2	74 13		 je	 SHORT $L268939
  006a4	8b 85 90 00 00
	00		 mov	 eax, DWORD PTR [ebp+144]
  006aa	85 c0		 test	 eax, eax
  006ac	74 09		 je	 SHORT $L268939

; 759  : 				{
; 760  : 					((CUser* )pMover)->DoSMItemEquip( pItemElem, dwParts );

  006ae	53		 push	 ebx
  006af	55		 push	 ebp
  006b0	8b ce		 mov	 ecx, esi
  006b2	e8 00 00 00 00	 call	 ?DoSMItemEquip@CUser@@QAEXPAVCItemElem@@K@Z ; CUser::DoSMItemEquip
$L268939:

; 761  : 				}
; 762  : #if __VER >= 9 // __ULTIMATE
; 763  : 				prj.m_UltimateWeapon.SetDestParamUltimate( pMover, pItemElem, TRUE, dwParts );

  006b7	53		 push	 ebx
  006b8	6a 01		 push	 1
  006ba	55		 push	 ebp
  006bb	56		 push	 esi
  006bc	b9 9c 91 11 00	 mov	 ecx, OFFSET FLAT:?prj@@3VCProject@@A+1151388
  006c1	e8 00 00 00 00	 call	 ?SetDestParamUltimate@CUltimateWeapon@@QAEXPAVCMover@@PAVCItemElem@@HK@Z ; CUltimateWeapon::SetDestParamUltimate
  006c6	5f		 pop	 edi
  006c7	5e		 pop	 esi
  006c8	5d		 pop	 ebp

; 1017 : 					#ifdef __CLIENT
; 1018 : 						((CModelObject*)pModel)->MovePart( PARTS_RWEAPON, PARTS_LWEAPON );
; 1019 : 						((CModelObject*)pModel)->SetParent( PARTS_RWEAPON, ((CModelObject*)pModel)->GetRHandIdx() );
; 1020 : 					#endif	// __CLIENT
; 1021 : 					}
; 1022 : 				}
; 1023 : 			}
; 1024 : 		}
; 1025 : 	}
; 1026 : 
; 1027 : #ifdef __CLIENT
; 1028 : 	D3DXVECTOR3 vPos = pMover->GetPos();
; 1029 : 				
; 1030 : 	if( bEquip )
; 1031 : 	{
; 1032 : 		if( pItemProp )
; 1033 : 		{
; 1034 : 			if( pItemProp->dwItemKind1 == IK1_WEAPON )
; 1035 : 			{
; 1036 : 				PLAYSND( SND_INF_EQUIPWEAPON, &vPos );
; 1037 : 			}
; 1038 : 			else
; 1039 : 			if( pItemProp->dwItemKind1 == IK1_GENERAL && pItemProp->dwItemKind2 == IK2_JEWELRY )
; 1040 : 			{
; 1041 : 				PLAYSND( SND_INF_EQUIPACCESSORY, &vPos );
; 1042 : 			}
; 1043 : 			else
; 1044 : 			if( pItemProp->dwItemKind1 == IK1_ARMOR && pItemProp->dwItemKind2 == IK2_CLOTH )
; 1045 : 			{
; 1046 : 				PLAYSND( SND_INF_EQUIPCLOTH, &vPos );
; 1047 : 			}
; 1048 : 			else
; 1049 : 			if( pItemProp->dwItemKind1 == IK1_ARMOR && pItemProp->dwItemKind2 == IK2_ARMOR 
; 1050 : 				|| pItemProp->dwItemKind2 == IK2_ARMORETC )
; 1051 : 			{
; 1052 : 				PLAYSND( SND_INF_EQUIPARMOR, &vPos );
; 1053 : 			}	
; 1054 : 		}
; 1055 : 	}
; 1056 : 	else
; 1057 : 	{
; 1058 : 		PLAYSND( SND_INF_INVENTORYDROP, &vPos );		
; 1059 : 	}
; 1060 : #endif //__CLIENT
; 1061 : 
; 1062 : 	return TRUE;

  006c9	b8 01 00 00 00	 mov	 eax, 1
  006ce	5b		 pop	 ebx

; 1063 : }

  006cf	8b 4c 24 64	 mov	 ecx, DWORD PTR __$ArrayPad$[esp+104]
  006d3	33 cc		 xor	 ecx, esp
  006d5	e8 00 00 00 00	 call	 @__security_check_cookie@4
  006da	83 c4 68	 add	 esp, 104		; 00000068H
  006dd	c3		 ret	 0
$L268937:

; 764  : #endif // __ULTIMATE
; 765  : #endif // __WORLDSERVER
; 766  : 			}
; 767  : 			else
; 768  : 			{
; 769  : 				WriteError( "%s %d", __FILE__, __LINE__ );

  006de	68 01 03 00 00	 push	 769			; 00000301H
  006e3	68 00 00 00 00	 push	 OFFSET FLAT:??_C@_0GD@MCIBCGLP@?2Documents?5and?5Settings?2test?2Mes@
  006e8	68 00 00 00 00	 push	 OFFSET FLAT:??_C@_05DIALNFFA@?$CFs?5?$CFd?$AA@
  006ed	e8 00 00 00 00	 call	 ?WriteError@@YAXPBDZZ	; WriteError
$L277436:
  006f2	83 c4 0c	 add	 esp, 12			; 0000000cH
$L268845:
  006f5	5f		 pop	 edi
  006f6	5e		 pop	 esi
  006f7	5d		 pop	 ebp

; 479  : 		return FALSE;

  006f8	33 c0		 xor	 eax, eax
  006fa	5b		 pop	 ebx

; 1063 : }

  006fb	8b 4c 24 64	 mov	 ecx, DWORD PTR __$ArrayPad$[esp+104]
  006ff	33 cc		 xor	 ecx, esp
  00701	e8 00 00 00 00	 call	 @__security_check_cookie@4
  00706	83 c4 68	 add	 esp, 104		; 00000068H
  00709	c3		 ret	 0
$L268908:

; 770  : 				return FALSE;
; 771  : 			}
; 772  : 		} // not Fake
; 773  : 
; 774  : #ifndef __WORLDSERVER
; 775  : 		TCHAR szPartsName[ 32 ];
; 776  : 		if( pItemProp->bPartsFile == TRUE )
; 777  : 			prj.m_modelMng.MakePartsName( szPartsName, _T( "part" ), pItemProp->dwID, nSex );
; 778  : 		else
; 779  : 			prj.m_modelMng.MakeModelName( szPartsName, OT_ITEM, pItemProp->dwID );
; 780  : 			//prj.m_modelMng.MakePartsName( szPartsName, _T( "item" ), pItemProp->dwID );
; 781  : 		switch( dwParts )
; 782  : 		{
; 783  : 		case PARTS_RWEAPON: 
; 784  : 			//        (  .   )
; 785  : 			if( pMover == NULL || ( pMover && pMover->IsDisguise() == FALSE ) )
; 786  : 			{
; 787  : 				((CModelObject*)pModel)->LoadElement( szPartsName, dwParts );
; 788  : 				switch( pItemProp->dwItemKind3 )
; 789  : 				{
; 790  : 				case IK3_KNUCKLEHAMMER:
; 791  : 					((CModelObject*)pModel)->SetParent( PARTS_RWEAPON, ((CModelObject*)pModel)->GetRArmIdx() );
; 792  : 					break;
; 793  : 				case IK3_BOW:
; 794  : 					((CModelObject*)pModel)->SetParent( PARTS_RWEAPON, ((CModelObject*)pModel)->GetLHandIdx() );
; 795  : 					break;
; 796  : 				case IK3_YOYO:
; 797  : 					((CModelObject*)pModel)->SetParent( PARTS_RWEAPON, ((CModelObject*)pModel)->GetRHandIdx() );
; 798  : 					((CModelObject*)pModel)->LoadElement( szPartsName, PARTS_LWEAPON );
; 799  : 					((CModelObject*)pModel)->SetParent( PARTS_LWEAPON, ((CModelObject*)pModel)->GetLHandIdx() );
; 800  : 					break;
; 801  : 				default:
; 802  : 					((CModelObject*)pModel)->SetParent( PARTS_RWEAPON, ((CModelObject*)pModel)->GetRHandIdx() );
; 803  : 				}
; 804  : 	//			if( pItemProp->dwItemKind3 == IK3_KNUCKLEHAMMER )
; 805  : 	//				((CModelObject*)pModel)->SetParent( PARTS_RWEAPON, ((CModelObject*)pModel)->GetRArmIdx() );
; 806  : 	//			else
; 807  : 	//				((CModelObject*)pModel)->SetParent( PARTS_RWEAPON, ((CModelObject*)pModel)->GetRHandIdx() );
; 808  : 			}
; 809  : 			break;
; 810  : 		case PARTS_LWEAPON: 
; 811  : 			//        (  .   )
; 812  : 			if( pMover == NULL || ( pMover && pMover->IsDisguise() == FALSE ) )
; 813  : 			{
; 814  : 				((CModelObject*)pModel)->LoadElement( szPartsName, dwParts );
; 815  : 				((CModelObject*)pModel)->SetParent( PARTS_LWEAPON, ((CModelObject*)pModel)->GetLHandIdx() );
; 816  : 			}
; 817  : 			break;
; 818  : 		case PARTS_SHIELD: 
; 819  : 			//        (  .   )
; 820  : 			if( pMover == NULL || ( pMover && pMover->IsDisguise() == FALSE ) )
; 821  : 			{
; 822  : 				((CModelObject*)pModel)->LoadElement( szPartsName, dwParts );
; 823  : 				((CModelObject*)pModel)->SetParent( PARTS_SHIELD, ((CModelObject*)pModel)->GetLArmIdx() );
; 824  : 			}
; 825  : 			break;
; 826  : 		case PARTS_UPPER_BODY:
; 827  : 			if( bIfParts )
; 828  : 			{
; 829  : 				((CModelObject*)pModel)->LoadElement( szPartsName, dwParts );
; 830  : 				_stprintf( lpszTemp, PARTSTEX_UPPER( nSex ), nSkinSet + 1 );
; 831  : 				pModel->ChangeTexture( PARTS_UPPER_BODY, TEX_PART_UPPER( nSex ), lpszTemp );
; 832  : 			}
; 833  : 			break;
; 834  : 		case PARTS_LOWER_BODY:
; 835  : 			if( bIfParts )
; 836  : 			{
; 837  : 				{
; 838  : 					((CModelObject*)pModel)->LoadElement( szPartsName, dwParts );
; 839  : 					_stprintf( lpszTemp, PARTSTEX_LOWER( nSex ), nSkinSet + 1 );
; 840  : 					pModel->ChangeTexture( PARTS_LOWER_BODY, TEX_PART_LOWER( nSex ), lpszTemp );
; 841  : 				}
; 842  : 			}
; 843  : 			break;
; 844  : 		default:
; 845  : 			if( bIfParts )
; 846  : 				((CModelObject*)pModel)->LoadElement( szPartsName, dwParts );
; 847  : 			break;
; 848  : 
; 849  : 		}
; 850  : 
; 851  : #ifdef __CLIENT
; 852  : #if __VER >= 15 // __BS_FIXED_EQUIPMOTION
; 853  : 		if( PARTS_LWEAPON == dwParts || PARTS_RWEAPON == dwParts || PARTS_SHIELD == dwParts )
; 854  : 			pMover->SetMotion( MTI_STAND, ANILOOP_1PLAY , MOP_NO_TRANS );
; 855  : 
; 856  : #endif //__BS_FIXED_EQUIPMOTION
; 857  : #endif //__CLIENT
; 858  : 		
; 859  : #endif // not WorldServer
; 860  : 	} // .
; 861  : 	else
; 862  : 	// .
; 863  : 	{
; 864  : 		if( bIfParts )

  0070a	8b 44 24 28	 mov	 eax, DWORD PTR _bIfParts$[esp+120]
  0070e	85 c0		 test	 eax, eax
  00710	0f 84 4b 01 00
	00		 je	 $L268948

; 865  : 		{
; 866  : 			if( pItemProp->dwExclusive != NULL_ID )

  00716	8b 85 b4 00 00
	00		 mov	 eax, DWORD PTR [ebp+180]
  0071c	83 f8 ff	 cmp	 eax, -1
  0071f	0f 84 3c 01 00
	00		 je	 $L268948

; 867  : 			{
; 868  : 				switch( pItemProp->dwExclusive )

  00725	83 c0 fe	 add	 eax, -2			; fffffffeH
  00728	83 f8 03	 cmp	 eax, 3
  0072b	0f 87 30 01 00
	00		 ja	 $L268948
  00731	ff 24 85 00 00
	00 00		 jmp	 DWORD PTR $L277438[eax*4]
$L268951:

; 869  : 				{
; 870  : 				case PARTS_UPPER_BODY:
; 871  : 					pModel->LoadElement( PARTSMESH_UPPER( nSex ), PARTS_UPPER_BODY );

  00738	8b 7c 24 7c	 mov	 edi, DWORD PTR _nSex$[esp+116]
  0073c	85 ff		 test	 edi, edi
  0073e	b8 00 00 00 00	 mov	 eax, OFFSET FLAT:??_C@_0BD@FANBKNEH@Part_maleUpper?4o3d?$AA@
  00743	74 05		 je	 SHORT $L277243
  00745	b8 00 00 00 00	 mov	 eax, OFFSET FLAT:??_C@_0BF@FAOACOCN@Part_femaleUpper?4o3d?$AA@
$L277243:
  0074a	8b 6c 24 14	 mov	 ebp, DWORD PTR $T277411[esp+120]
  0074e	6a 02		 push	 2
  00750	50		 push	 eax
  00751	8b cd		 mov	 ecx, ebp
  00753	e8 00 00 00 00	 call	 ?LoadElement@CModelObject@@QAEHPBDH@Z ; CModelObject::LoadElement

; 872  : 					_stprintf( lpszTemp, PARTSTEX_UPPER( nSex ), nSkinSet + 1 );

  00758	85 ff		 test	 edi, edi
  0075a	b8 00 00 00 00	 mov	 eax, OFFSET FLAT:??_C@_0BH@NHGMHOG@Part_maleUpper?$CF02d?4dds?$AA@
  0075f	74 05		 je	 SHORT $L277245
  00761	b8 00 00 00 00	 mov	 eax, OFFSET FLAT:??_C@_0BJ@HMMDHCOK@Part_femaleUpper?$CF02d?4dds?$AA@
$L277245:
  00766	8b 8c 24 80 00
	00 00		 mov	 ecx, DWORD PTR _nSkinSet$[esp+116]
  0076d	41		 inc	 ecx
  0076e	51		 push	 ecx
  0076f	50		 push	 eax
  00770	8d 54 24 3c	 lea	 edx, DWORD PTR _lpszTemp$[esp+128]
  00774	52		 push	 edx
  00775	e8 00 00 00 00	 call	 _sprintf
  0077a	83 c4 0c	 add	 esp, 12			; 0000000cH

; 873  : 					pModel->ChangeTexture( PARTS_UPPER_BODY, TEX_PART_UPPER( nSex ), lpszTemp );

  0077d	85 ff		 test	 edi, edi
  0077f	b8 00 00 00 00	 mov	 eax, OFFSET FLAT:??_C@_0BF@MFIGMCKI@Part_maleUpper01?4dds?$AA@
  00784	74 05		 je	 SHORT $L277247
  00786	b8 00 00 00 00	 mov	 eax, OFFSET FLAT:??_C@_0BH@COCFJDCO@Part_femaleUpper01?4dds?$AA@
$L277247:
  0078b	8d 4c 24 34	 lea	 ecx, DWORD PTR _lpszTemp$[esp+120]
  0078f	51		 push	 ecx
  00790	50		 push	 eax
  00791	6a 02		 push	 2
  00793	8b cd		 mov	 ecx, ebp
  00795	e8 00 00 00 00	 call	 ?ChangeTexture@CModelObject@@QAEXHPBD0@Z ; CModelObject::ChangeTexture

; 874  : 					break;

  0079a	e9 c2 00 00 00	 jmp	 $L268948
$L268956:

; 875  : 				case PARTS_LOWER_BODY:
; 876  : 					{
; 877  : 
; 878  : 						ItemProp* pItemPropEquip = NULL;
; 879  : 						if( pItemProp->dwParts == PARTS_CLOTH )

  0079f	83 bd a8 00 00
	00 1b		 cmp	 DWORD PTR [ebp+168], 27	; 0000001bH

; 880  : 						{
; 881  : 							pItemPropEquip = pMover->GetEquipItemProp( pInventory, pEquipInfo, PARTS_UPPER_BODY );

  007a6	8b ce		 mov	 ecx, esi
  007a8	75 0a		 jne	 SHORT $L268958
  007aa	8b 54 24 10	 mov	 edx, DWORD PTR $T277409[esp+120]
  007ae	6a 02		 push	 2
  007b0	53		 push	 ebx
  007b1	52		 push	 edx

; 882  : 						}
; 883  : 						else

  007b2	eb 08		 jmp	 SHORT $L277434
$L268958:

; 884  : 						{
; 885  : 							pItemPropEquip = pMover->GetEquipItemProp( pInventory, pEquipInfo, PARTS_CLOTH );

  007b4	8b 44 24 10	 mov	 eax, DWORD PTR $T277409[esp+120]
  007b8	6a 1b		 push	 27			; 0000001bH
  007ba	53		 push	 ebx
  007bb	50		 push	 eax
$L277434:
  007bc	e8 00 00 00 00	 call	 ?GetEquipItemProp@CMover@@QAEPAUItemProp@@PAV?$CItemContainer@VCItemElem@@@@PAU_EQUIP_INFO@@H@Z ; CMover::GetEquipItemProp

; 886  : 						}
; 887  : 
; 888  : 						if( pItemPropEquip == NULL )

  007c1	85 c0		 test	 eax, eax
  007c3	0f 85 98 00 00
	00		 jne	 $L268948

; 889  : 						{
; 890  : 							pModel->LoadElement( PARTSMESH_LOWER( nSex ), PARTS_LOWER_BODY );

  007c9	8b 7c 24 7c	 mov	 edi, DWORD PTR _nSex$[esp+116]
  007cd	85 ff		 test	 edi, edi
  007cf	b8 00 00 00 00	 mov	 eax, OFFSET FLAT:??_C@_0BD@PCNGIDNM@Part_maleLower?4o3d?$AA@
  007d4	74 05		 je	 SHORT $L277249
  007d6	b8 00 00 00 00	 mov	 eax, OFFSET FLAT:??_C@_0BF@PCOHAALG@Part_femaleLower?4o3d?$AA@
$L277249:
  007db	8b 6c 24 14	 mov	 ebp, DWORD PTR $T277411[esp+120]
  007df	6a 03		 push	 3
  007e1	50		 push	 eax
  007e2	8b cd		 mov	 ecx, ebp
  007e4	e8 00 00 00 00	 call	 ?LoadElement@CModelObject@@QAEHPBDH@Z ; CModelObject::LoadElement

; 891  : 							_stprintf( lpszTemp, PARTSTEX_LOWER( nSex ), nSkinSet + 1 );

  007e9	85 ff		 test	 edi, edi
  007eb	b8 00 00 00 00	 mov	 eax, OFFSET FLAT:??_C@_0BH@CCHNJOKK@Part_maleLower?$CF02d?4dds?$AA@
  007f0	74 05		 je	 SHORT $L277251
  007f2	b8 00 00 00 00	 mov	 eax, OFFSET FLAT:??_C@_0BJ@FDMICLKG@Part_femaleLower?$CF02d?4dds?$AA@
$L277251:
  007f7	8b 8c 24 80 00
	00 00		 mov	 ecx, DWORD PTR _nSkinSet$[esp+116]
  007fe	41		 inc	 ecx
  007ff	51		 push	 ecx
  00800	50		 push	 eax
  00801	8d 54 24 3c	 lea	 edx, DWORD PTR _lpszTemp$[esp+128]
  00805	52		 push	 edx
  00806	e8 00 00 00 00	 call	 _sprintf
  0080b	83 c4 0c	 add	 esp, 12			; 0000000cH

; 892  : 							pModel->ChangeTexture( PARTS_LOWER_BODY, TEX_PART_LOWER( nSex ), lpszTemp );

  0080e	85 ff		 test	 edi, edi
  00810	b8 00 00 00 00	 mov	 eax, OFFSET FLAT:??_C@_0BF@ILOFDOLB@Part_maleLower01?4dds?$AA@
  00815	74 05		 je	 SHORT $L277253
  00817	b8 00 00 00 00	 mov	 eax, OFFSET FLAT:??_C@_0BH@GAEGGPDH@Part_femaleLower01?4dds?$AA@
$L277253:
  0081c	8d 4c 24 34	 lea	 ecx, DWORD PTR _lpszTemp$[esp+120]
  00820	51		 push	 ecx
  00821	50		 push	 eax
  00822	6a 03		 push	 3
  00824	8b cd		 mov	 ecx, ebp
  00826	e8 00 00 00 00	 call	 ?ChangeTexture@CModelObject@@QAEXHPBD0@Z ; CModelObject::ChangeTexture

; 893  : 						}					
; 894  : 					}					
; 895  : 					break;

  0082b	eb 34		 jmp	 SHORT $L268948
$L268965:

; 896  : 				case PARTS_HAND:
; 897  : 					pModel->LoadElement( PARTSMESH_HAND( nSex ), PARTS_HAND );

  0082d	8b 44 24 7c	 mov	 eax, DWORD PTR _nSex$[esp+116]
  00831	85 c0		 test	 eax, eax
  00833	b8 00 00 00 00	 mov	 eax, OFFSET FLAT:??_C@_0BC@MBDHHPEB@Part_maleHand?4o3d?$AA@
  00838	74 05		 je	 SHORT $L277255
  0083a	b8 00 00 00 00	 mov	 eax, OFFSET FLAT:??_C@_0BE@PALEBFEB@Part_femaleHand?4o3d?$AA@
$L277255:
  0083f	6a 04		 push	 4

; 898  : 					break;

  00841	eb 14		 jmp	 SHORT $L277435
$L268966:

; 899  : 				case PARTS_FOOT:
; 900  : 					pModel->LoadElement( PARTSMESH_FOOT( nSex ), PARTS_FOOT );

  00843	8b 44 24 7c	 mov	 eax, DWORD PTR _nSex$[esp+116]
  00847	85 c0		 test	 eax, eax
  00849	b8 00 00 00 00	 mov	 eax, OFFSET FLAT:??_C@_0BC@LJNOLPMO@Part_maleFoot?4o3d?$AA@
  0084e	74 05		 je	 SHORT $L277257
  00850	b8 00 00 00 00	 mov	 eax, OFFSET FLAT:??_C@_0BE@IIFNNFMO@Part_femaleFoot?4o3d?$AA@
$L277257:
  00855	6a 05		 push	 5
$L277435:
  00857	8b 4c 24 18	 mov	 ecx, DWORD PTR $T277411[esp+124]
  0085b	50		 push	 eax
  0085c	e8 00 00 00 00	 call	 ?LoadElement@CModelObject@@QAEHPBDH@Z ; CModelObject::LoadElement
$L268948:

; 901  : 					break;
; 902  : 				}
; 903  : 			}
; 904  : 		}
; 905  : 		if( pInventory && pInventory->GetEquip( dwParts ) )

  00861	8b 6c 24 10	 mov	 ebp, DWORD PTR $T277409[esp+120]
  00865	85 ed		 test	 ebp, ebp
  00867	8b 7c 24 18	 mov	 edi, DWORD PTR _dwParts$[esp+120]
  0086b	74 68		 je	 SHORT $L277426
  0086d	57		 push	 edi
  0086e	8b cd		 mov	 ecx, ebp
  00870	e8 00 00 00 00	 call	 ?GetEquip@?$CItemContainer@VCItemElem@@@@QAEPAVCItemElem@@K@Z ; CItemContainer<CItemElem>::GetEquip
  00875	85 c0		 test	 eax, eax
  00877	74 5c		 je	 SHORT $L277426

; 906  : 		{
; 907  : 			if( pInventory->UnEquip( dwParts ) == FALSE )

  00879	57		 push	 edi
  0087a	8b cd		 mov	 ecx, ebp
  0087c	e8 00 00 00 00	 call	 ?UnEquip@?$CItemContainer@VCItemElem@@@@QAEHK@Z ; CItemContainer<CItemElem>::UnEquip
  00881	85 c0		 test	 eax, eax
  00883	75 22		 jne	 SHORT $L268968

; 908  : 			{
; 909  : #ifdef __WORLDSERVER
; 910  : 				if( TRUE == pMover->IsPlayer() )

  00885	83 be 34 02 00
	00 01		 cmp	 DWORD PTR [esi+564], 1
  0088c	0f 85 63 fe ff
	ff		 jne	 $L268845

; 911  : 					( (CUser*)pMover )->AddDefinedText(TID_GAME_LACKSPACE, "" );

  00892	68 00 00 00 00	 push	 OFFSET FLAT:??_C@_00CNPNBAHC@?$AA@
  00897	68 72 02 00 00	 push	 626			; 00000272H
  0089c	56		 push	 esi
  0089d	e8 00 00 00 00	 call	 ?AddDefinedText@CUser@@QAAXHPBDZZ ; CUser::AddDefinedText

; 912  : #endif	// __WORLDSERVER				
; 913  : 				return FALSE;

  008a2	e9 4b fe ff ff	 jmp	 $L277436
$L268968:

; 914  : 			}
; 915  : 
; 916  : #ifdef __WORLDSERVER
; 917  : #if __VER >= 9 // __ULTIMATE
; 918  : 			prj.m_UltimateWeapon.SetDestParamUltimate( pMover, pItemElem, FALSE, dwParts );

  008a7	8b 6c 24 20	 mov	 ebp, DWORD PTR $T277407[esp+120]
  008ab	57		 push	 edi
  008ac	6a 00		 push	 0
  008ae	55		 push	 ebp
  008af	56		 push	 esi
  008b0	b9 9c 91 11 00	 mov	 ecx, OFFSET FLAT:?prj@@3VCProject@@A+1151388
  008b5	e8 00 00 00 00	 call	 ?SetDestParamUltimate@CUltimateWeapon@@QAEXPAVCMover@@PAVCItemElem@@HK@Z ; CUltimateWeapon::SetDestParamUltimate

; 919  : #endif // __ULTIMATE
; 920  : 			if( pItemElem && pItemElem->m_nResistSMItemId != 0 )	//   V 

  008ba	85 ed		 test	 ebp, ebp
  008bc	74 13		 je	 SHORT $L277425
  008be	8b 85 90 00 00
	00		 mov	 eax, DWORD PTR [ebp+144]
  008c4	85 c0		 test	 eax, eax
  008c6	74 09		 je	 SHORT $L277425

; 921  : 			{
; 922  : 				((CUser* )pMover)->DoSMItemUnEquip( pItemElem, dwParts );

  008c8	57		 push	 edi
  008c9	55		 push	 ebp
  008ca	8b ce		 mov	 ecx, esi
  008cc	e8 00 00 00 00	 call	 ?DoSMItemUnEquip@CUser@@QAEXPAVCItemElem@@K@Z ; CUser::DoSMItemUnEquip
$L277425:
  008d1	8b 6c 24 10	 mov	 ebp, DWORD PTR $T277409[esp+120]
$L277426:

; 923  : 			}
; 924  : #endif // __WORLDSERVER
; 925  : 		}
; 926  : 
; 927  : 		if( pEquipInfo )

  008d5	33 c9		 xor	 ecx, ecx
  008d7	3b d9		 cmp	 ebx, ecx
  008d9	74 12		 je	 SHORT $L277423

; 928  : 		{
; 929  : 			pEquipInfo[dwParts].dwId	= NULL_ID;

  008db	8d 14 7f	 lea	 edx, DWORD PTR [edi+edi*2]
  008de	8d 04 93	 lea	 eax, DWORD PTR [ebx+edx*4]
  008e1	c7 00 ff ff ff
	ff		 mov	 DWORD PTR [eax], -1

; 930  : 			pEquipInfo[dwParts].nOption		= 0;

  008e7	89 48 04	 mov	 DWORD PTR [eax+4], ecx

; 931  : 			pEquipInfo[dwParts].byFlag	= 0;

  008ea	88 48 08	 mov	 BYTE PTR [eax+8], cl
$L277423:

; 932  : 		}
; 933  : 
; 934  : #ifndef __WORLDSERVER
; 935  : 		if( bIfParts )
; 936  : 		{
; 937  : 			switch( dwParts )
; 938  : 			{
; 939  : 			case PARTS_UPPER_BODY:
; 940  : 				pModel->LoadElement( PARTSMESH_UPPER( nSex ), PARTS_UPPER_BODY );
; 941  : 				_stprintf( lpszTemp, PARTSTEX_UPPER( nSex ), nSkinSet + 1 );
; 942  : 				pModel->ChangeTexture( PARTS_UPPER_BODY, TEX_PART_UPPER( nSex ), lpszTemp );
; 943  : 				break;
; 944  : 			case PARTS_LOWER_BODY:
; 945  : 				pModel->LoadElement( PARTSMESH_LOWER( nSex ), PARTS_LOWER_BODY );
; 946  : 				_stprintf( lpszTemp, PARTSTEX_LOWER( nSex ), nSkinSet + 1 );
; 947  : 				pModel->ChangeTexture( PARTS_LOWER_BODY, TEX_PART_LOWER( nSex ), lpszTemp );
; 948  : 				break;
; 949  : 			case PARTS_HAND:
; 950  : 				pModel->LoadElement( PARTSMESH_HAND( nSex ), PARTS_HAND );
; 951  : 				break;
; 952  : 			case PARTS_FOOT:
; 953  : 				pModel->LoadElement( PARTSMESH_FOOT( nSex ), PARTS_FOOT );
; 954  : 				break;
; 955  : 			}
; 956  : 		}
; 957  : #endif
; 958  : 
; 959  : #ifdef __CLIENT
; 960  : #if __VER >= 15 // __BS_FIXED_EQUIPMOTION
; 961  : 		if( PARTS_LWEAPON == dwParts || PARTS_RWEAPON == dwParts || PARTS_SHIELD == dwParts )
; 962  : 			pMover->SetMotion( MTI_STAND, ANILOOP_1PLAY , MOP_FIXED );
; 963  : #endif //__BS_FIXED_EQUIPMOTION
; 964  : #endif //__CLIENT
; 965  : 
; 966  : 	} // 
; 967  : 
; 968  : 
; 969  : 	// 
; 970  : 	if( bEquip == FALSE )
; 971  : 	{
; 972  : 		//     . 
; 973  : 		if( nPart == PARTS_RWEAPON )

  008ed	83 bc 24 88 00
	00 00 0a	 cmp	 DWORD PTR _nPart$[esp+116], 10 ; 0000000aH
  008f5	0f 85 e0 00 00
	00		 jne	 $L268985

; 974  : 		{
; 975  : 			if( pInventory )

  008fb	3b e9		 cmp	 ebp, ecx
  008fd	0f 84 a7 00 00
	00		 je	 $L268976

; 976  : 			{
; 977  : 				CItemElem* pItemLeft = pInventory->GetEquip( PARTS_LWEAPON );

  00903	6a 09		 push	 9
  00905	8b cd		 mov	 ecx, ebp
  00907	e8 00 00 00 00	 call	 ?GetEquip@?$CItemContainer@VCItemElem@@@@QAEPAVCItemElem@@K@Z ; CItemContainer<CItemElem>::GetEquip
  0090c	8b f8		 mov	 edi, eax

; 978  : 				if( pItemLeft )	//   .

  0090e	85 ff		 test	 edi, edi
  00910	0f 84 c5 00 00
	00		 je	 $L268985

; 979  : 				{
; 980  : 					// .
; 981  : 					#ifdef __WORLDSERVER
; 982  : 					if( pMover->IsSMMode( SM_RESIST_ATTACK_LEFT ) )

  00916	8b 86 44 03 00
	00		 mov	 eax, DWORD PTR [esi+836]
  0091c	85 c0		 test	 eax, eax
  0091e	76 50		 jbe	 SHORT $L277424

; 983  : 					{
; 984  : 						pMover->m_nAttackResistRight = pMover->m_nAttackResistLeft;

  00920	8a 86 14 07 00
	00		 mov	 al, BYTE PTR [esi+1812]

; 985  : 						pMover->m_nAttackResistLeft = 0xff;
; 986  : 						DWORD dwSMTime = pMover->m_dwSMTime[SM_RESIST_ATTACK_LEFT];

  00926	8b 9e 44 03 00
	00		 mov	 ebx, DWORD PTR [esi+836]

; 987  : 						pMover->SetSMMode( SM_RESIST_ATTACK_LEFT, 1 );

  0092c	6a 01		 push	 1
  0092e	6a 10		 push	 16			; 00000010H
  00930	8b ce		 mov	 ecx, esi
  00932	88 86 15 07 00
	00		 mov	 BYTE PTR [esi+1813], al
  00938	c6 86 14 07 00
	00 ff		 mov	 BYTE PTR [esi+1812], 255 ; 000000ffH
  0093f	e8 00 00 00 00	 call	 ?SetSMMode@CMover@@QAEHHK@Z ; CMover::SetSMMode

; 988  : 						pMover->SetSMMode( SM_RESIST_ATTACK_RIGHT, dwSMTime );

  00944	53		 push	 ebx
  00945	6a 11		 push	 17			; 00000011H
  00947	8b ce		 mov	 ecx, esi
  00949	e8 00 00 00 00	 call	 ?SetSMMode@CMover@@QAEHHK@Z ; CMover::SetSMMode

; 989  : 						((CUser*)pMover)->AddResistSMMode( pMover->m_nAttackResistLeft, pMover->m_nAttackResistRight, pMover->m_nDefenseResist );

  0094e	33 c9		 xor	 ecx, ecx
  00950	8a 8e 16 07 00
	00		 mov	 cl, BYTE PTR [esi+1814]
  00956	33 d2		 xor	 edx, edx
  00958	8a 96 15 07 00
	00		 mov	 dl, BYTE PTR [esi+1813]
  0095e	33 c0		 xor	 eax, eax
  00960	8a 86 14 07 00
	00		 mov	 al, BYTE PTR [esi+1812]
  00966	51		 push	 ecx
  00967	8b ce		 mov	 ecx, esi
  00969	52		 push	 edx
  0096a	50		 push	 eax
  0096b	e8 00 00 00 00	 call	 ?AddResistSMMode@CUser@@QAEXEEE@Z ; CUser::AddResistSMMode
$L277424:

; 990  : 					}
; 991  : 					#endif // __WORLDSERVER
; 992  : 					
; 993  : 					int nInvenSize = pInventory->GetSize();

  00970	8b 45 08	 mov	 eax, DWORD PTR [ebp+8]

; 994  : 					pInventory->Swap( nInvenSize + PARTS_LWEAPON, nInvenSize + PARTS_RWEAPON );	

  00973	8d 48 0a	 lea	 ecx, DWORD PTR [eax+10]
  00976	51		 push	 ecx
  00977	83 c0 09	 add	 eax, 9
  0097a	50		 push	 eax
  0097b	8b cd		 mov	 ecx, ebp
  0097d	e8 00 00 00 00	 call	 ?Swap@?$CItemContainer@VCItemElem@@@@QAEXKK@Z ; CItemContainer<CItemElem>::Swap

; 995  : #ifdef __WORLDSERVER			
; 996  : #if __VER >= 9 // __ULTIMATE
; 997  : 					prj.m_UltimateWeapon.SetDestParamUltimate( pMover, pItemLeft, TRUE, PARTS_RWEAPON );

  00982	6a 0a		 push	 10			; 0000000aH
  00984	6a 01		 push	 1
  00986	57		 push	 edi
  00987	56		 push	 esi
  00988	b9 9c 91 11 00	 mov	 ecx, OFFSET FLAT:?prj@@3VCProject@@A+1151388
  0098d	e8 00 00 00 00	 call	 ?SetDestParamUltimate@CUltimateWeapon@@QAEXPAVCMover@@PAVCItemElem@@HK@Z ; CUltimateWeapon::SetDestParamUltimate
  00992	5f		 pop	 edi
  00993	5e		 pop	 esi
  00994	5d		 pop	 ebp

; 1017 : 					#ifdef __CLIENT
; 1018 : 						((CModelObject*)pModel)->MovePart( PARTS_RWEAPON, PARTS_LWEAPON );
; 1019 : 						((CModelObject*)pModel)->SetParent( PARTS_RWEAPON, ((CModelObject*)pModel)->GetRHandIdx() );
; 1020 : 					#endif	// __CLIENT
; 1021 : 					}
; 1022 : 				}
; 1023 : 			}
; 1024 : 		}
; 1025 : 	}
; 1026 : 
; 1027 : #ifdef __CLIENT
; 1028 : 	D3DXVECTOR3 vPos = pMover->GetPos();
; 1029 : 				
; 1030 : 	if( bEquip )
; 1031 : 	{
; 1032 : 		if( pItemProp )
; 1033 : 		{
; 1034 : 			if( pItemProp->dwItemKind1 == IK1_WEAPON )
; 1035 : 			{
; 1036 : 				PLAYSND( SND_INF_EQUIPWEAPON, &vPos );
; 1037 : 			}
; 1038 : 			else
; 1039 : 			if( pItemProp->dwItemKind1 == IK1_GENERAL && pItemProp->dwItemKind2 == IK2_JEWELRY )
; 1040 : 			{
; 1041 : 				PLAYSND( SND_INF_EQUIPACCESSORY, &vPos );
; 1042 : 			}
; 1043 : 			else
; 1044 : 			if( pItemProp->dwItemKind1 == IK1_ARMOR && pItemProp->dwItemKind2 == IK2_CLOTH )
; 1045 : 			{
; 1046 : 				PLAYSND( SND_INF_EQUIPCLOTH, &vPos );
; 1047 : 			}
; 1048 : 			else
; 1049 : 			if( pItemProp->dwItemKind1 == IK1_ARMOR && pItemProp->dwItemKind2 == IK2_ARMOR 
; 1050 : 				|| pItemProp->dwItemKind2 == IK2_ARMORETC )
; 1051 : 			{
; 1052 : 				PLAYSND( SND_INF_EQUIPARMOR, &vPos );
; 1053 : 			}	
; 1054 : 		}
; 1055 : 	}
; 1056 : 	else
; 1057 : 	{
; 1058 : 		PLAYSND( SND_INF_INVENTORYDROP, &vPos );		
; 1059 : 	}
; 1060 : #endif //__CLIENT
; 1061 : 
; 1062 : 	return TRUE;

  00995	b8 01 00 00 00	 mov	 eax, 1
  0099a	5b		 pop	 ebx

; 1063 : }

  0099b	8b 4c 24 64	 mov	 ecx, DWORD PTR __$ArrayPad$[esp+104]
  0099f	33 cc		 xor	 ecx, esp
  009a1	e8 00 00 00 00	 call	 @__security_check_cookie@4
  009a6	83 c4 68	 add	 esp, 104		; 00000068H
  009a9	c3		 ret	 0
$L268976:

; 998  : #endif // __ULTIMATE
; 999  : #endif // __WORLDSERVER
; 1000 : 
; 1001 : 				#ifdef __CLIENT
; 1002 : 					((CModelObject*)pModel)->MovePart( PARTS_RWEAPON, PARTS_LWEAPON );
; 1003 : 					((CModelObject*)pModel)->SetParent( PARTS_RWEAPON, ((CModelObject*)pModel)->GetRHandIdx() );
; 1004 : 				#endif //__CLIENT
; 1005 : 				}
; 1006 : 			}
; 1007 : 			else
; 1008 : 			{	// fake
; 1009 : 				if( pEquipInfo )

  009aa	3b d9		 cmp	 ebx, ecx
  009ac	74 2d		 je	 SHORT $L268985

; 1010 : 				{
; 1011 : 					if( pEquipInfo[PARTS_LWEAPON].dwId != NULL_ID )

  009ae	8b 53 6c	 mov	 edx, DWORD PTR [ebx+108]
  009b1	83 fa ff	 cmp	 edx, -1
  009b4	8d 43 6c	 lea	 eax, DWORD PTR [ebx+108]
  009b7	74 22		 je	 SHORT $L268985

; 1012 : 					{
; 1013 : 						memcpy( &pEquipInfo[PARTS_RWEAPON], &pEquipInfo[PARTS_LWEAPON], sizeof(EQUIP_INFO) );

  009b9	8b f0		 mov	 esi, eax
  009bb	8b 3e		 mov	 edi, DWORD PTR [esi]
  009bd	8d 53 78	 lea	 edx, DWORD PTR [ebx+120]
  009c0	89 3a		 mov	 DWORD PTR [edx], edi
  009c2	8b 7e 04	 mov	 edi, DWORD PTR [esi+4]
  009c5	8b 76 08	 mov	 esi, DWORD PTR [esi+8]
  009c8	89 7a 04	 mov	 DWORD PTR [edx+4], edi
  009cb	89 72 08	 mov	 DWORD PTR [edx+8], esi

; 1014 : 						pEquipInfo[PARTS_LWEAPON].dwId	= NULL_ID;

  009ce	c7 00 ff ff ff
	ff		 mov	 DWORD PTR [eax], -1

; 1015 : 						pEquipInfo[PARTS_LWEAPON].nOption	= 0;

  009d4	89 4b 70	 mov	 DWORD PTR [ebx+112], ecx

; 1016 : 						pEquipInfo[PARTS_LWEAPON].byFlag	= 0;

  009d7	c6 43 74 00	 mov	 BYTE PTR [ebx+116], 0
$L268985:

; 1063 : }

  009db	8b 4c 24 74	 mov	 ecx, DWORD PTR __$ArrayPad$[esp+120]
  009df	5f		 pop	 edi
  009e0	5e		 pop	 esi
  009e1	5d		 pop	 ebp
  009e2	5b		 pop	 ebx
  009e3	33 cc		 xor	 ecx, esp
  009e5	b8 01 00 00 00	 mov	 eax, 1
  009ea	e8 00 00 00 00	 call	 @__security_check_cookie@4
  009ef	83 c4 68	 add	 esp, 104		; 00000068H
  009f2	c3		 ret	 0
  009f3	90		 npad	 1
$L277438:
  009f4	00 00 00 00	 DD	 $L268951
  009f8	00 00 00 00	 DD	 $L268956
  009fc	00 00 00 00	 DD	 $L268965
  00a00	00 00 00 00	 DD	 $L268966
?DoEquip@CMover@@SAHHHPAVCItemElem@@HABU_EQUIP_INFO@@PAV?$CItemContainer@VCItemElem@@@@PAU3@PAVCModelObject@@HPAV1@@Z ENDP ; CMover::DoEquip
_TEXT	ENDS
PUBLIC	?GetPropensityPenalty@CProject@@QAE?AU_CHAO_PROPENSITY@@K@Z ; CProject::GetPropensityPenalty
; Function compile flags: /Ogty
; File c:\documents and settings\test\mes documents\source\virtuos_v17\build\program\_common\project.h
;	COMDAT ?GetPropensityPenalty@CProject@@QAE?AU_CHAO_PROPENSITY@@K@Z
_TEXT	SEGMENT
_it$ = -52						; size = 4
$T277445 = -48						; size = 4
_this$ = -48						; size = 4
_Propensity$ = -44					; size = 44
_Propensity$197725 = -44				; size = 44
___$ReturnUdt$ = 8					; size = 4
$T277444 = 12						; size = 4
_dwPropensity$ = 12					; size = 4
?GetPropensityPenalty@CProject@@QAE?AU_CHAO_PROPENSITY@@K@Z PROC NEAR ; CProject::GetPropensityPenalty, COMDAT
; _this$ = ecx

; 1277 : {

  00000	83 ec 34	 sub	 esp, 52			; 00000034H
  00003	53		 push	 ebx

; 1278 : 	map<int, CHAO_PROPENSITY >::iterator it = m_PKSetting.mapPropensityPenalty.begin();

  00004	8b 99 94 46 0f
	00		 mov	 ebx, DWORD PTR [ecx+1001108]
  0000a	8b 03		 mov	 eax, DWORD PTR [ebx]

; 1279 : 	for( ; it != m_PKSetting.mapPropensityPenalty.end() ; it++ )

  0000c	3b c3		 cmp	 eax, ebx
  0000e	55		 push	 ebp
  0000f	56		 push	 esi
  00010	57		 push	 edi
  00011	89 4c 24 14	 mov	 DWORD PTR _this$[esp+68], ecx
  00015	89 44 24 10	 mov	 DWORD PTR _it$[esp+68], eax
  00019	74 34		 je	 SHORT $L197724
  0001b	8b 6c 24 4c	 mov	 ebp, DWORD PTR _dwPropensity$[esp+64]
  0001f	90		 npad	 1
$L277485:

; 1280 : 	{
; 1281 : 		CHAO_PROPENSITY Propensity = it->second;

  00020	8d 70 10	 lea	 esi, DWORD PTR [eax+16]
  00023	b9 0b 00 00 00	 mov	 ecx, 11			; 0000000bH
  00028	8d 7c 24 18	 lea	 edi, DWORD PTR _Propensity$197725[esp+68]
  0002c	f3 a5		 rep movsd

; 1282 : 		if( Propensity.dwPropensityMin <= dwPropensity && dwPropensity <= Propensity.dwPropensityMax )

  0002e	39 6c 24 18	 cmp	 DWORD PTR _Propensity$197725[esp+68], ebp
  00032	77 06		 ja	 SHORT $L197723
  00034	3b 6c 24 1c	 cmp	 ebp, DWORD PTR _Propensity$197725[esp+72]
  00038	76 70		 jbe	 SHORT $L277592
$L197723:

; 1279 : 	for( ; it != m_PKSetting.mapPropensityPenalty.end() ; it++ )

  0003a	8d 4c 24 10	 lea	 ecx, DWORD PTR _it$[esp+68]
  0003e	e8 00 00 00 00	 call	 ?_Inc@const_iterator@?$_Tree@V?$_Tmap_traits@HU_CHAO_PROPENSITY@@U?$less@H@std@@V?$allocator@U?$pair@$$CBHU_CHAO_PROPENSITY@@@std@@@3@$0A@@std@@@std@@QAEXXZ ; std::_Tree<std::_Tmap_traits<int,_CHAO_PROPENSITY,std::less<int>,std::allocator<std::pair<int const ,_CHAO_PROPENSITY> >,0> >::const_iterator::_Inc
  00043	8b 44 24 10	 mov	 eax, DWORD PTR _it$[esp+68]
  00047	3b c3		 cmp	 eax, ebx
  00049	75 d5		 jne	 SHORT $L277485

; 1282 : 		if( Propensity.dwPropensityMin <= dwPropensity && dwPropensity <= Propensity.dwPropensityMax )

  0004b	8b 4c 24 14	 mov	 ecx, DWORD PTR _this$[esp+68]
$L197724:

; 1283 : 			return Propensity;
; 1284 : 	}
; 1285 : 	
; 1286 : 	it = m_PKSetting.mapPropensityPenalty.find( 8 );	//   8  //  

  0004f	8d 44 24 4c	 lea	 eax, DWORD PTR $T277444[esp+64]
  00053	50		 push	 eax
  00054	8d 54 24 18	 lea	 edx, DWORD PTR $T277445[esp+72]
  00058	52		 push	 edx
  00059	81 c1 90 46 0f
	00		 add	 ecx, 1001104		; 000f4690H
  0005f	c7 44 24 54 08
	00 00 00	 mov	 DWORD PTR $T277444[esp+72], 8
  00067	e8 00 00 00 00	 call	 ?find@?$_Tree@V?$_Tmap_traits@HU_CHAO_PROPENSITY@@U?$less@H@std@@V?$allocator@U?$pair@$$CBHU_CHAO_PROPENSITY@@@std@@@3@$0A@@std@@@std@@QAE?AViterator@12@ABH@Z ; std::_Tree<std::_Tmap_traits<int,_CHAO_PROPENSITY,std::less<int>,std::allocator<std::pair<int const ,_CHAO_PROPENSITY> >,0> >::find
  0006c	8b 00		 mov	 eax, DWORD PTR [eax]

; 1287 : 	if( it != m_PKSetting.mapPropensityPenalty.end() )

  0006e	3b c3		 cmp	 eax, ebx
  00070	74 05		 je	 SHORT $L197750

; 1288 : 		return it->second;

  00072	8d 70 10	 lea	 esi, DWORD PTR [eax+16]
  00075	eb 37		 jmp	 SHORT $L277595
$L197750:

; 1289 : 
; 1290 : 	CHAO_PROPENSITY Propensity;

  00077	33 c0		 xor	 eax, eax
  00079	89 44 24 18	 mov	 DWORD PTR _Propensity$[esp+68], eax
  0007d	89 44 24 1c	 mov	 DWORD PTR _Propensity$[esp+72], eax
  00081	89 44 24 20	 mov	 DWORD PTR _Propensity$[esp+76], eax
  00085	89 44 24 24	 mov	 DWORD PTR _Propensity$[esp+80], eax
  00089	89 44 24 28	 mov	 DWORD PTR _Propensity$[esp+84], eax
  0008d	89 44 24 2c	 mov	 DWORD PTR _Propensity$[esp+88], eax
  00091	b8 01 00 00 00	 mov	 eax, 1
  00096	89 44 24 30	 mov	 DWORD PTR _Propensity$[esp+92], eax
  0009a	89 44 24 34	 mov	 DWORD PTR _Propensity$[esp+96], eax
  0009e	89 44 24 38	 mov	 DWORD PTR _Propensity$[esp+100], eax
  000a2	89 44 24 3c	 mov	 DWORD PTR _Propensity$[esp+104], eax
  000a6	89 44 24 40	 mov	 DWORD PTR _Propensity$[esp+108], eax
$L277592:

; 1291 : 	return Propensity;

  000aa	8d 74 24 18	 lea	 esi, DWORD PTR _Propensity$[esp+68]
$L277595:
  000ae	8b 44 24 48	 mov	 eax, DWORD PTR ___$ReturnUdt$[esp+64]
  000b2	8b f8		 mov	 edi, eax
  000b4	b9 0b 00 00 00	 mov	 ecx, 11			; 0000000bH
  000b9	f3 a5		 rep movsd
  000bb	5f		 pop	 edi
  000bc	5e		 pop	 esi
  000bd	5d		 pop	 ebp
  000be	5b		 pop	 ebx

; 1292 : }

  000bf	83 c4 34	 add	 esp, 52			; 00000034H
  000c2	c2 08 00	 ret	 8
?GetPropensityPenalty@CProject@@QAE?AU_CHAO_PROPENSITY@@K@Z ENDP ; CProject::GetPropensityPenalty
_TEXT	ENDS
PUBLIC	?IsEquipAble@CMover@@QAEHPAVCItemElem@@H@Z	; CMover::IsEquipAble
PUBLIC	??_C@_04OEDFLLKD@?$CC?$CFs?$CC?$AA@		; `string'
PUBLIC	??_C@_04PNFMAOFG@?$CC?$CFd?$CC?$AA@		; `string'
EXTRN	?HasBuffByIk3@CMover@@QAEHK@Z:NEAR		; CMover::HasBuffByIk3
EXTRN	?AddDefinedText@CUser@@QAEXH@Z:NEAR		; CUser::AddDefinedText
EXTRN	?IsInteriorityJob@CMover@@QAEHH@Z:NEAR		; CMover::IsInteriorityJob
EXTRN	?GetLimitLevel@CItemElem@@QAEKXZ:NEAR		; CItemElem::GetLimitLevel
EXTRN	?IsLimitLevel@CItemElem@@QAEHPAVCMover@@@Z:NEAR	; CItemElem::IsLimitLevel
;	COMDAT ??_C@_04OEDFLLKD@?$CC?$CFs?$CC?$AA@
; File c:\documents and settings\test\mes documents\source\virtuos_v17\build\program\_common\mover.h
CONST	SEGMENT
??_C@_04OEDFLLKD@?$CC?$CFs?$CC?$AA@ DB '"%s"', 00H	; `string'
CONST	ENDS
;	COMDAT ??_C@_04PNFMAOFG@?$CC?$CFd?$CC?$AA@
CONST	SEGMENT
??_C@_04PNFMAOFG@?$CC?$CFd?$CC?$AA@ DB '"%d"', 00H	; `string'
; Function compile flags: /Ogty
; File c:\documents and settings\test\mes documents\source\virtuos_v17\build\program\_common\moverequip.cpp
CONST	ENDS
;	COMDAT ?IsEquipAble@CMover@@QAEHPAVCItemElem@@H@Z
_TEXT	SEGMENT
_nAttr$269001 = -60					; size = 4
$T277600 = -56						; size = 12
$T277599 = -56						; size = 12
_Propensity$269014 = -44				; size = 44
_pItem$ = 8						; size = 4
_bIgnoreLevel$ = 12					; size = 4
?IsEquipAble@CMover@@QAEHPAVCItemElem@@H@Z PROC NEAR	; CMover::IsEquipAble, COMDAT
; _this$ = ecx

; 1499 : {

  00000	83 ec 3c	 sub	 esp, 60			; 0000003cH
  00003	55		 push	 ebp

; 1500 : #if __VER >= 11 // __SYS_IDENTIFY
; 1501 : 	if( !pItem )

  00004	8b 6c 24 44	 mov	 ebp, DWORD PTR _pItem$[esp+60]
  00008	85 ed		 test	 ebp, ebp
  0000a	56		 push	 esi
  0000b	8b f1		 mov	 esi, ecx
  0000d	75 0a		 jne	 SHORT $L268992
  0000f	5e		 pop	 esi

; 1502 : 		return FALSE;

  00010	33 c0		 xor	 eax, eax
  00012	5d		 pop	 ebp

; 1725 : }

  00013	83 c4 3c	 add	 esp, 60			; 0000003cH
  00016	c2 08 00	 ret	 8
$L268992:

; 1503 : 	ItemProp* pItemProp	= pItem->GetProp();

  00019	8b 45 0c	 mov	 eax, DWORD PTR [ebp+12]
  0001c	85 c0		 test	 eax, eax
  0001e	8b 0d 5c 02 00
	00		 mov	 ecx, DWORD PTR ?prj@@3VCProject@@A+604
  00024	57		 push	 edi
  00025	7c 19		 jl	 SHORT $L277664
  00027	3b c1		 cmp	 eax, ecx
  00029	7d 15		 jge	 SHORT $L277664
  0002b	72 06		 jb	 SHORT $L277657
  0002d	33 c0		 xor	 eax, eax
  0002f	8b f8		 mov	 edi, eax
  00031	eb 25		 jmp	 SHORT $L277659
$L277657:
  00033	8b 0d 4c 02 00
	00		 mov	 ecx, DWORD PTR ?prj@@3VCProject@@A+588
  00039	8b 04 81	 mov	 eax, DWORD PTR [ecx+eax*4]
  0003c	8b f8		 mov	 edi, eax
  0003e	eb 18		 jmp	 SHORT $L277659
$L277664:
  00040	50		 push	 eax
  00041	51		 push	 ecx
  00042	6a 00		 push	 0
  00044	68 00 00 00 00	 push	 OFFSET FLAT:??_C@_0BI@BEIFNGEL@GetItemProp?5range_error?$AA@
  00049	68 00 00 00 00	 push	 OFFSET FLAT:??_C@_0BM@HMFGHCP@?$CFs?5min?3?$CFd?0?5max?3?$CFd?0?5index?3?$CFd?$AA@
  0004e	e8 00 00 00 00	 call	 ?Error@@YAPBDPBDZZ	; Error
  00053	83 c4 14	 add	 esp, 20			; 00000014H
  00056	33 ff		 xor	 edi, edi
$L277659:

; 1504 : 	OBJID dwObjid	= pItem->m_dwObjId;
; 1505 : #endif	// __SYS_IDENTIFY
; 1506 : 	//  .
; 1507 : 	if( pItemProp->dwParts == PARTS_RIDE )

  00058	83 bf a8 00 00
	00 0d		 cmp	 DWORD PTR [edi+168], 13	; 0000000dH
  0005f	53		 push	 ebx
  00060	0f 85 72 01 00
	00		 jne	 $L277732

; 1508 : 	{
; 1509 : 		int nLimitLv = pItemProp->dwFlightLimit;

  00066	8b 9f 58 02 00
	00		 mov	 ebx, DWORD PTR [edi+600]

; 1510 : 		if( nLimitLv == NULL_ID )

  0006c	83 fb ff	 cmp	 ebx, -1
  0006f	75 05		 jne	 SHORT $L277728

; 1511 : 			nLimitLv = 1;

  00071	bb 01 00 00 00	 mov	 ebx, 1
$L277728:

; 1512 : #ifdef __NOLIMIT_RIDE_ITEM
; 1513 : 		if( pItemProp->dwID == II_RID_RID_STI_MAGIC01 )

  00076	81 3f 92 67 00
	00		 cmp	 DWORD PTR [edi], 26514	; 00006792H
  0007c	75 02		 jne	 SHORT $L268998

; 1514 : 			nLimitLv = 0;

  0007e	33 db		 xor	 ebx, ebx
$L268998:

; 1515 : #endif // __NOLIMIT_RIDE_ITEM
; 1516 : 		
; 1517 : 		CWorld* pWorld = GetWorld();

  00080	8b ae 6c 01 00
	00		 mov	 ebp, DWORD PTR [esi+364]

; 1518 : 		if( pWorld )

  00086	85 ed		 test	 ebp, ebp
  00088	0f 84 df 00 00
	00		 je	 $L277729

; 1519 : 		{
; 1520 : 			int nAttr	= pWorld->GetHeightAttribute( GetPos().x, GetPos().z );

  0008e	8d 86 60 01 00
	00		 lea	 eax, DWORD PTR [esi+352]
  00094	8b d0		 mov	 edx, eax
  00096	8b 0a		 mov	 ecx, DWORD PTR [edx]
  00098	89 4c 24 14	 mov	 DWORD PTR $T277599[esp+76], ecx
  0009c	8b 4a 04	 mov	 ecx, DWORD PTR [edx+4]
  0009f	89 4c 24 18	 mov	 DWORD PTR $T277599[esp+80], ecx
  000a3	8b 4a 08	 mov	 ecx, DWORD PTR [edx+8]
  000a6	8b 10		 mov	 edx, DWORD PTR [eax]
  000a8	51		 push	 ecx
  000a9	89 54 24 18	 mov	 DWORD PTR $T277600[esp+80], edx
  000ad	8b 50 04	 mov	 edx, DWORD PTR [eax+4]
  000b0	8b 4c 24 18	 mov	 ecx, DWORD PTR $T277600[esp+80]
  000b4	8b 40 08	 mov	 eax, DWORD PTR [eax+8]
  000b7	51		 push	 ecx
  000b8	8b cd		 mov	 ecx, ebp
  000ba	89 54 24 20	 mov	 DWORD PTR $T277600[esp+88], edx
  000be	89 44 24 24	 mov	 DWORD PTR $T277600[esp+92], eax
  000c2	e8 00 00 00 00	 call	 ?GetHeightAttribute@CWorld@@QAEHMM@Z ; CWorld::GetHeightAttribute

; 1521 : 			
; 1522 : 			if( GetFlightLv() < nLimitLv )		//   .

  000c7	8b 8e e0 05 00
	00		 mov	 ecx, DWORD PTR [esi+1504]
  000cd	33 d2		 xor	 edx, edx
  000cf	83 f9 14	 cmp	 ecx, 20			; 00000014H
  000d2	0f 9d c2	 setge	 dl
  000d5	89 44 24 10	 mov	 DWORD PTR _nAttr$269001[esp+76], eax
  000d9	3b d3		 cmp	 edx, ebx
  000db	7d 28		 jge	 SHORT $L269004

; 1523 : 			{
; 1524 : #ifdef __WORLDSERVER
; 1525 : 				if( TRUE == IsPlayer() )

  000dd	83 be 34 02 00
	00 01		 cmp	 DWORD PTR [esi+564], 1
  000e4	75 13		 jne	 SHORT $L269005

; 1526 : 					( (CUser*)this )->AddDefinedText( TID_GAME_USEAIRCRAFT, "" );	//  .

  000e6	68 00 00 00 00	 push	 OFFSET FLAT:??_C@_00CNPNBAHC@?$AA@
  000eb	68 64 02 00 00	 push	 612			; 00000264H
  000f0	56		 push	 esi
  000f1	e8 00 00 00 00	 call	 ?AddDefinedText@CUser@@QAAXHPBDZZ ; CUser::AddDefinedText
  000f6	83 c4 0c	 add	 esp, 12			; 0000000cH
$L269005:
  000f9	5b		 pop	 ebx
  000fa	5f		 pop	 edi
  000fb	5e		 pop	 esi

; 1527 : #else // __WORLDSERVER
; 1528 : 				g_WndMng.PutString( prj.GetText( TID_GAME_USEAIRCRAFT ), NULL, prj.GetTextColor( TID_GAME_USEAIRCRAFT ) );
; 1529 : #endif // __WORLDSERVER
; 1530 : 				return FALSE;

  000fc	33 c0		 xor	 eax, eax
  000fe	5d		 pop	 ebp

; 1725 : }

  000ff	83 c4 3c	 add	 esp, 60			; 0000003cH
  00102	c2 08 00	 ret	 8
$L269004:

; 1531 : 			}
; 1532 : 			
; 1533 : 			if( !pWorld->m_bFly )

  00105	8b 85 1c 93 08
	00		 mov	 eax, DWORD PTR [ebp+561948]
  0010b	85 c0		 test	 eax, eax
  0010d	75 1f		 jne	 SHORT $L269007

; 1534 : 			{
; 1535 : #ifdef __WORLDSERVER
; 1536 : 				( (CUser*)this )->AddDefinedText( TID_ERROR_NOFLY, "" );	// .

  0010f	68 00 00 00 00	 push	 OFFSET FLAT:??_C@_00CNPNBAHC@?$AA@
  00114	68 65 09 00 00	 push	 2405			; 00000965H
  00119	56		 push	 esi
  0011a	e8 00 00 00 00	 call	 ?AddDefinedText@CUser@@QAAXHPBDZZ ; CUser::AddDefinedText
  0011f	83 c4 0c	 add	 esp, 12			; 0000000cH
  00122	5b		 pop	 ebx
  00123	5f		 pop	 edi
  00124	5e		 pop	 esi

; 1537 : #else // __WORLDSERVER
; 1538 : 				g_WndMng.PutString( prj.GetText( TID_ERROR_NOFLY ), NULL, prj.GetTextColor( TID_ERROR_NOFLY ) );
; 1539 : #endif // __WORLDSERVER
; 1540 : 				return FALSE;

  00125	33 c0		 xor	 eax, eax
  00127	5d		 pop	 ebp

; 1725 : }

  00128	83 c4 3c	 add	 esp, 60			; 0000003cH
  0012b	c2 08 00	 ret	 8
$L269007:

; 1541 : 			}
; 1542 : 
; 1543 : 			if( HasBuffByIk3( IK3_TEXT_DISGUISE ) )

  0012e	6a 51		 push	 81			; 00000051H
  00130	8b ce		 mov	 ecx, esi
  00132	e8 00 00 00 00	 call	 ?HasBuffByIk3@CMover@@QAEHK@Z ; CMover::HasBuffByIk3
  00137	85 c0		 test	 eax, eax
  00139	74 1f		 je	 SHORT $L269009

; 1544 : 			{
; 1545 : #ifdef __WORLDSERVER
; 1546 : 				( (CUser*)this )->AddDefinedText( TID_QUEST_DISQUISE_NOTFLY, "" );	//    

  0013b	68 00 00 00 00	 push	 OFFSET FLAT:??_C@_00CNPNBAHC@?$AA@
  00140	68 f1 09 00 00	 push	 2545			; 000009f1H
  00145	56		 push	 esi
  00146	e8 00 00 00 00	 call	 ?AddDefinedText@CUser@@QAAXHPBDZZ ; CUser::AddDefinedText
  0014b	83 c4 0c	 add	 esp, 12			; 0000000cH
  0014e	5b		 pop	 ebx
  0014f	5f		 pop	 edi
  00150	5e		 pop	 esi

; 1547 : #else // __WORLDSERVER
; 1548 : 				g_WndMng.PutString( prj.GetText( TID_QUEST_DISQUISE_NOTFLY ), NULL, prj.GetTextColor( TID_QUEST_DISQUISE_NOTFLY ) );
; 1549 : #endif // __WORLDSERVER
; 1550 : 				return FALSE;

  00151	33 c0		 xor	 eax, eax
  00153	5d		 pop	 ebp

; 1725 : }

  00154	83 c4 3c	 add	 esp, 60			; 0000003cH
  00157	c2 08 00	 ret	 8
$L269009:

; 1551 : 			}
; 1552 : 			
; 1553 : 			//    .
; 1554 : 			if( nAttr == HATTR_NOFLY )		//  .

  0015a	83 7c 24 10 02	 cmp	 DWORD PTR _nAttr$269001[esp+76], 2

; 1555 : 				return FALSE;

  0015f	74 98		 je	 SHORT $L269005

; 1556 : 			
; 1557 : 		#ifdef __WORLDSERVER
; 1558 : 			if( m_pActMover->IsState( OBJSTA_STAND ) == FALSE )

  00161	8b 86 3c 02 00
	00		 mov	 eax, DWORD PTR [esi+572]
  00167	f6 40 04 01	 test	 BYTE PTR [eax+4], 1

; 1559 : 				return FALSE;

  0016b	74 8c		 je	 SHORT $L269005
$L277729:

; 1560 : 		#endif 
; 1561 : 		}
; 1562 : 
; 1563 : #if __VER >= 8 // __S8_PK
; 1564 : #ifdef __WORLDSERVER
; 1565 : 		if( IsChaotic() )

  0016d	8b 86 60 07 00
	00		 mov	 eax, DWORD PTR [esi+1888]
  00173	85 c0		 test	 eax, eax
  00175	76 30		 jbe	 SHORT $L277730

; 1566 : 		{
; 1567 : 			CHAO_PROPENSITY Propensity = prj.GetPropensityPenalty( GetPKPropensity() );

  00177	50		 push	 eax
  00178	8d 4c 24 24	 lea	 ecx, DWORD PTR _Propensity$269014[esp+80]
  0017c	51		 push	 ecx
  0017d	b9 00 00 00 00	 mov	 ecx, OFFSET FLAT:?prj@@3VCProject@@A
  00182	e8 00 00 00 00	 call	 ?GetPropensityPenalty@CProject@@QAE?AU_CHAO_PROPENSITY@@K@Z ; CProject::GetPropensityPenalty

; 1568 : 			if( !Propensity.nFly )

  00187	8b 44 24 40	 mov	 eax, DWORD PTR _Propensity$269014[esp+108]
  0018b	85 c0		 test	 eax, eax
  0018d	75 18		 jne	 SHORT $L277730

; 1569 : 			{
; 1570 : 				((CUser*)this)->AddDefinedText( TID_GAME_CHAOTIC_NOT_FLY );

  0018f	68 3f 0c 00 00	 push	 3135			; 00000c3fH
  00194	8b ce		 mov	 ecx, esi
  00196	e8 00 00 00 00	 call	 ?AddDefinedText@CUser@@QAEXH@Z ; CUser::AddDefinedText
  0019b	5b		 pop	 ebx
  0019c	5f		 pop	 edi
  0019d	5e		 pop	 esi

; 1571 : 				return FALSE;

  0019e	33 c0		 xor	 eax, eax
  001a0	5d		 pop	 ebp

; 1725 : }

  001a1	83 c4 3c	 add	 esp, 60			; 0000003cH
  001a4	c2 08 00	 ret	 8
$L277730:

; 1572 : 			}
; 1573 : 		}
; 1574 : #endif // __WORLDSERVER
; 1575 : #endif // __VER >= 8 // __S8_PK
; 1576 : 
; 1577 : #if __VER >= 9	// __PET_0410
; 1578 : #ifdef __WORLDSERVER
; 1579 : 		if( HasActivatedEatPet() || HasActivatedSystemPet() )	//     

  001a7	8b 8e 7c 06 00
	00		 mov	 ecx, DWORD PTR [esi+1660]
  001ad	83 c8 ff	 or	 eax, -1
  001b0	3b c8		 cmp	 ecx, eax
  001b2	75 08		 jne	 SHORT $L269019
  001b4	39 86 8c 11 00
	00		 cmp	 DWORD PTR [esi+4492], eax
  001ba	74 18		 je	 SHORT $L277731
$L269019:

; 1580 : 		{
; 1581 : 			( (CUser*)this )->AddDefinedText( TID_GAME_CANNOT_FLY_WITH_PET );

  001bc	68 89 0c 00 00	 push	 3209			; 00000c89H
  001c1	8b ce		 mov	 ecx, esi
  001c3	e8 00 00 00 00	 call	 ?AddDefinedText@CUser@@QAEXH@Z ; CUser::AddDefinedText
  001c8	5b		 pop	 ebx
  001c9	5f		 pop	 edi
  001ca	5e		 pop	 esi

; 1582 : 			return FALSE;

  001cb	33 c0		 xor	 eax, eax
  001cd	5d		 pop	 ebp

; 1725 : }

  001ce	83 c4 3c	 add	 esp, 60			; 0000003cH
  001d1	c2 08 00	 ret	 8
$L277731:

; 1572 : 			}
; 1573 : 		}
; 1574 : #endif // __WORLDSERVER
; 1575 : #endif // __VER >= 8 // __S8_PK
; 1576 : 
; 1577 : #if __VER >= 9	// __PET_0410
; 1578 : #ifdef __WORLDSERVER
; 1579 : 		if( HasActivatedEatPet() || HasActivatedSystemPet() )	//     

  001d4	8b 6c 24 50	 mov	 ebp, DWORD PTR _pItem$[esp+72]
$L277732:

; 1583 : 		}
; 1584 : #endif	// __WORLDSERVER
; 1585 : #endif	// __PET_0410
; 1586 : 	}
; 1587 : 
; 1588 : 	//  ()  .
; 1589 : 	{
; 1590 : 		//  (   )
; 1591 : 		if( pItemProp->dwItemSex != NULL_ID && pItemProp->dwItemSex != GetSex() )

  001d8	8b 87 88 00 00
	00		 mov	 eax, DWORD PTR [edi+136]
  001de	83 f8 ff	 cmp	 eax, -1
  001e1	74 37		 je	 SHORT $L269021
  001e3	0f b6 96 20 06
	00 00		 movzx	 edx, BYTE PTR [esi+1568]
  001ea	3b c2		 cmp	 eax, edx
  001ec	74 2c		 je	 SHORT $L269021

; 1592 : 		{
; 1593 : #ifdef __WORLDSERVER
; 1594 : 			if( TRUE == IsPlayer() )

  001ee	83 be 34 02 00
	00 01		 cmp	 DWORD PTR [esi+564], 1
  001f5	75 17		 jne	 SHORT $L269022

; 1595 : 				( (CUser*)this )->AddDefinedText( TID_GAME_WRONGSEX, "\"%s\"", pItemProp->szName );

  001f7	83 c7 04	 add	 edi, 4
  001fa	57		 push	 edi
  001fb	68 00 00 00 00	 push	 OFFSET FLAT:??_C@_04OEDFLLKD@?$CC?$CFs?$CC?$AA@
  00200	68 6e 02 00 00	 push	 622			; 0000026eH
  00205	56		 push	 esi
  00206	e8 00 00 00 00	 call	 ?AddDefinedText@CUser@@QAAXHPBDZZ ; CUser::AddDefinedText
  0020b	83 c4 10	 add	 esp, 16			; 00000010H
$L269022:
  0020e	5b		 pop	 ebx
  0020f	5f		 pop	 edi
  00210	5e		 pop	 esi

; 1596 : #endif	// __WORLDSERVER
; 1597 : 			return FALSE;

  00211	33 c0		 xor	 eax, eax
  00213	5d		 pop	 ebp

; 1725 : }

  00214	83 c4 3c	 add	 esp, 60			; 0000003cH
  00217	c2 08 00	 ret	 8
$L269021:

; 1598 : 		} // 
; 1599 : 	}// 
; 1600 : 	
; 1601 : 	//   .
; 1602 : 	if( pItemProp->dwItemKind1 != IK1_WEAPON )

  0021a	83 7f 70 01	 cmp	 DWORD PTR [edi+112], 1
  0021e	74 46		 je	 SHORT $L277738

; 1603 : 	{
; 1604 : 		if( pItemProp->dwItemJob != NULL_ID && FALSE == IsInteriorityJob( pItemProp->dwItemJob ) ) {

  00220	8b 47 7c	 mov	 eax, DWORD PTR [edi+124]
  00223	83 f8 ff	 cmp	 eax, -1
  00226	74 38		 je	 SHORT $L277733
  00228	50		 push	 eax
  00229	8b ce		 mov	 ecx, esi
  0022b	e8 00 00 00 00	 call	 ?IsInteriorityJob@CMover@@QAEHH@Z ; CMover::IsInteriorityJob
  00230	85 c0		 test	 eax, eax
  00232	75 2c		 jne	 SHORT $L277733
$L277739:

; 1605 : #ifdef __WORLDSERVER
; 1606 : 			if( TRUE == IsPlayer() )

  00234	83 be 34 02 00
	00 01		 cmp	 DWORD PTR [esi+564], 1
  0023b	75 d1		 jne	 SHORT $L269022

; 1607 : 				( (CUser*)this )->AddDefinedText( TID_GAME_WRONGJOB, "\"%s\"", pItemProp->szName );

  0023d	83 c7 04	 add	 edi, 4
  00240	57		 push	 edi
  00241	68 00 00 00 00	 push	 OFFSET FLAT:??_C@_04OEDFLLKD@?$CC?$CFs?$CC?$AA@
  00246	68 6d 02 00 00	 push	 621			; 0000026dH
  0024b	56		 push	 esi
  0024c	e8 00 00 00 00	 call	 ?AddDefinedText@CUser@@QAAXHPBDZZ ; CUser::AddDefinedText
  00251	83 c4 10	 add	 esp, 16			; 00000010H
  00254	5b		 pop	 ebx
  00255	5f		 pop	 edi
  00256	5e		 pop	 esi

; 1608 : #endif	// __WORLDSERVER
; 1609 : 			return FALSE;

  00257	33 c0		 xor	 eax, eax
  00259	5d		 pop	 ebp

; 1725 : }

  0025a	83 c4 3c	 add	 esp, 60			; 0000003cH
  0025d	c2 08 00	 ret	 8
$L277733:

; 1610 : 		}
; 1611 : 	}
; 1612 : 
; 1613 : 	//  .
; 1614 : 	if( pItemProp->dwItemKind1 == IK1_WEAPON )		//  

  00260	83 7f 70 01	 cmp	 DWORD PTR [edi+112], 1
  00264	75 14		 jne	 SHORT $L269030
$L277738:

; 1615 : 	{
; 1616 : 		if( pItemProp->dwItemJob != NULL_ID && FALSE == IsInteriorityJob( pItemProp->dwItemJob ) )	//    

  00266	8b 47 7c	 mov	 eax, DWORD PTR [edi+124]
  00269	83 f8 ff	 cmp	 eax, -1
  0026c	74 0c		 je	 SHORT $L269030
  0026e	50		 push	 eax
  0026f	8b ce		 mov	 ecx, esi
  00271	e8 00 00 00 00	 call	 ?IsInteriorityJob@CMover@@QAEHH@Z ; CMover::IsInteriorityJob
  00276	85 c0		 test	 eax, eax

; 1617 : 		{
; 1618 : #ifdef __WORLDSERVER
; 1619 : 			if( TRUE == IsPlayer() )
; 1620 : 				( (CUser*)this )->AddDefinedText( TID_GAME_WRONGJOB, "\"%s\"", pItemProp->szName );
; 1621 : #endif	// __WORLDSERVER
; 1622 : 			return FALSE;

  00278	74 ba		 je	 SHORT $L277739
$L269030:

; 1623 : 		}
; 1624 : 	}
; 1625 : 
; 1626 : 	if( !g_eLocal.GetState( EVE_SCHOOL ) && !bIgnoreLevel )

  0027a	6a 04		 push	 4
  0027c	b9 00 00 00 00	 mov	 ecx, OFFSET FLAT:?g_eLocal@@3VCFlyffEvent@@A
  00281	e8 00 00 00 00	 call	 ?GetState@CFlyffEvent@@QAEEH@Z ; CFlyffEvent::GetState
  00286	84 c0		 test	 al, al
  00288	75 6f		 jne	 SHORT $L277734
  0028a	8b 44 24 54	 mov	 eax, DWORD PTR _bIgnoreLevel$[esp+72]
  0028e	85 c0		 test	 eax, eax
  00290	75 67		 jne	 SHORT $L277734

; 1627 : 	{
; 1628 : 
; 1629 : 		//   .
; 1630 : 		if( pItemProp->dwLimitLevel1 != 0xffffffff )	//   

  00292	8b 87 60 02 00
	00		 mov	 eax, DWORD PTR [edi+608]
  00298	83 cb ff	 or	 ebx, -1
  0029b	3b c3		 cmp	 eax, ebx
  0029d	74 40		 je	 SHORT $L269035

; 1631 : 		{
; 1632 : #if __VER >= 14 // __NEW_ITEM_LIMIT_LEVEL
; 1633 : 			if( pItem->IsLimitLevel( this ) )	//   .

  0029f	56		 push	 esi
  002a0	8b cd		 mov	 ecx, ebp
  002a2	e8 00 00 00 00	 call	 ?IsLimitLevel@CItemElem@@QAEHPAVCMover@@@Z ; CItemElem::IsLimitLevel
  002a7	85 c0		 test	 eax, eax
  002a9	74 34		 je	 SHORT $L269035
$L277740:

; 1634 : #else // __NEW_ITEM_LIMIT_LEVEL
; 1635 : #if __VER >= 10 // __LEGEND	//	10 	Neuz, World, Trans
; 1636 : #if __VER >= 11 // __SYS_IDENTIFY
; 1637 : 			if( m_nLevel < pItem->GetLimitLevel() && !IsMaster() && !IsHero()  )	//   .				
; 1638 : #else	// __SYS_IDENTIFY
; 1639 : 			if( ( m_nLevel < pItemProp->dwLimitLevel1 ) && !IsMaster() && !IsHero()  )	//   .				
; 1640 : #endif	// __SYS_IDENTIFY
; 1641 : #else //__LEGEND	//	10 	Neuz, World, Trans
; 1642 : 			if( m_nLevel < pItemProp->dwLimitLevel1 )	//     .
; 1643 : #endif	//__LEGEND	//	10 	Neuz, World, Trans
; 1644 : #endif // __NEW_ITEM_LIMIT_LEVEL
; 1645 : 			{
; 1646 : #	ifdef __WORLDSERVER
; 1647 : 				if( TRUE == IsPlayer() )

  002ab	83 be 34 02 00
	00 01		 cmp	 DWORD PTR [esi+564], 1
  002b2	0f 85 56 ff ff
	ff		 jne	 $L269022

; 1648 : 				{
; 1649 : #if __VER >= 11 // __SYS_IDENTIFY
; 1650 : 					( (CUser*)this )->AddDefinedText( TID_GAME_REQLEVEL, "\"%d\"", pItem->GetLimitLevel() );

  002b8	8b cd		 mov	 ecx, ebp
  002ba	e8 00 00 00 00	 call	 ?GetLimitLevel@CItemElem@@QAEKXZ ; CItemElem::GetLimitLevel
  002bf	50		 push	 eax
  002c0	68 00 00 00 00	 push	 OFFSET FLAT:??_C@_04PNFMAOFG@?$CC?$CFd?$CC?$AA@
  002c5	68 e7 03 00 00	 push	 999			; 000003e7H
  002ca	56		 push	 esi
  002cb	e8 00 00 00 00	 call	 ?AddDefinedText@CUser@@QAAXHPBDZZ ; CUser::AddDefinedText
  002d0	83 c4 10	 add	 esp, 16			; 00000010H
  002d3	5b		 pop	 ebx
  002d4	5f		 pop	 edi
  002d5	5e		 pop	 esi

; 1651 : #else	// __SYS_IDENTIFY
; 1652 : 					( (CUser*)this )->AddDefinedText( TID_GAME_REQLEVEL, "\"%d\"", pItemProp->dwLimitLevel1 );
; 1653 : #endif	// __SYS_IDENTIFY
; 1654 : 				}
; 1655 : #	endif	// __WORLDSERVER
; 1656 : 				return FALSE;

  002d6	33 c0		 xor	 eax, eax
  002d8	5d		 pop	 ebp

; 1725 : }

  002d9	83 c4 3c	 add	 esp, 60			; 0000003cH
  002dc	c2 08 00	 ret	 8
$L269035:

; 1657 : 			}
; 1658 : 		}
; 1659 : 		//  
; 1660 : 		if( pItemProp->dwItemKind2 == IK2_JEWELRY )

  002df	83 7f 74 0d	 cmp	 DWORD PTR [edi+116], 13	; 0000000dH
  002e3	75 14		 jne	 SHORT $L277734

; 1661 : 		{
; 1662 : 			if( pItemProp->dwLimitLevel1 != 0xffffffff )	//  

  002e5	39 9f 60 02 00
	00		 cmp	 DWORD PTR [edi+608], ebx
  002eb	74 0c		 je	 SHORT $L277734

; 1663 : 			{
; 1664 : #if __VER >= 14 // __NEW_ITEM_LIMIT_LEVEL
; 1665 : 				if( pItem->IsLimitLevel( this ) )	//   .

  002ed	56		 push	 esi
  002ee	8b cd		 mov	 ecx, ebp
  002f0	e8 00 00 00 00	 call	 ?IsLimitLevel@CItemElem@@QAEHPAVCMover@@@Z ; CItemElem::IsLimitLevel
  002f5	85 c0		 test	 eax, eax

; 1666 : #else // __NEW_ITEM_LIMIT_LEVEL
; 1667 : #if __VER >= 10 // __LEGEND	//	10 	Neuz, World, Trans
; 1668 : #if __VER >= 11 // __SYS_IDENTIFY
; 1669 : 				if( m_nLevel < pItem->GetLimitLevel() && !IsMaster() && !IsHero()  )	//   .				
; 1670 : #else	// __SYS_IDENTIFY
; 1671 : 				if( ( m_nLevel < pItemProp->dwLimitLevel1 ) && !IsMaster() && !IsHero()  )	//   .				
; 1672 : #endif	// __SYS_IDENTIFY
; 1673 : #else //__LEGEND	//	10 	Neuz, World, Trans
; 1674 : 				if( m_nLevel < pItemProp->dwLimitLevel1 )	//   .
; 1675 : #endif	//__LEGEND	//	10 	Neuz, World, Trans
; 1676 : #endif // __NEW_ITEM_LIMIT_LEVEL
; 1677 : 				{
; 1678 : #	ifdef __WORLDSERVER
; 1679 : 					if( TRUE == IsPlayer() )
; 1680 : 					{
; 1681 : #if __VER >= 11 // __SYS_IDENTIFY
; 1682 : 						( (CUser*)this )->AddDefinedText( TID_GAME_REQLEVEL, "\"%d\"", pItem->GetLimitLevel() );
; 1683 : #else	// __SYS_IDENTIFY
; 1684 : 						( (CUser*)this )->AddDefinedText( TID_GAME_REQLEVEL, "\"%d\"", pItemProp->dwLimitLevel1 );
; 1685 : #endif	// __SYS_IDENTIFY
; 1686 : 					}
; 1687 : #	endif	// __WORLDSERVER
; 1688 : 					return FALSE;

  002f7	75 b2		 jne	 SHORT $L277740
$L277734:

; 1689 : 				}
; 1690 : 			}
; 1691 : 		}
; 1692 : 
; 1693 : 	}
; 1694 : #if __VER < 8 // __S8_PK
; 1695 : 	//     .
; 1696 : 	if( (pItemProp->nEvildoing < 0) && IsChaotic() == FALSE )
; 1697 : 	{
; 1698 : 	#ifdef __WORLDSERVER
; 1699 : 		if( IsPlayer() )
; 1700 : 			( (CUser*)this )->AddDefinedText( TID_PK_ITEM_MESSAGE1 , "" );	//   ...
; 1701 : 	#endif	// __WORLDSERVER
; 1702 : 			
; 1703 : 		return FALSE;
; 1704 : 	}
; 1705 : #endif // __VER < 8 // __S8_PK
; 1706 : 
; 1707 : 	ItemProp *pHandItemProp	= NULL;
; 1708 : 	
; 1709 : 	//    .
; 1710 : 	CItemElem *pItemElem = m_Inventory.GetEquip( PARTS_RWEAPON );		

  002f9	6a 0a		 push	 10			; 0000000aH
  002fb	8d 8e 90 0b 00
	00		 lea	 ecx, DWORD PTR [esi+2960]
  00301	33 db		 xor	 ebx, ebx
  00303	e8 00 00 00 00	 call	 ?GetEquip@?$CItemContainer@VCItemElem@@@@QAEPAVCItemElem@@K@Z ; CItemContainer<CItemElem>::GetEquip

; 1711 : 	if( pItemElem )

  00308	85 c0		 test	 eax, eax
  0030a	74 09		 je	 SHORT $L269046

; 1712 : 		pHandItemProp = pItemElem->GetProp();

  0030c	8b c8		 mov	 ecx, eax
  0030e	e8 00 00 00 00	 call	 ?GetPropA@CItemElem@@QAEPAUItemProp@@XZ ; CItemElem::GetPropA
  00313	8b d8		 mov	 ebx, eax
$L269046:

; 1713 : 
; 1714 : 	//      
; 1715 : #ifdef __CROSSBOW
; 1716 : 	if( pItemProp->dwItemKind3 == IK3_ARROW && ( pHandItemProp == NULL || ( pHandItemProp->dwItemKind3 != IK3_BOW && pHandItemProp->dwItemKind3 != IK3_CROSSBOW ) ))

  00315	8b 7f 78	 mov	 edi, DWORD PTR [edi+120]
  00318	83 ff 3c	 cmp	 edi, 60			; 0000003cH
  0031b	75 19		 jne	 SHORT $L269047
  0031d	85 db		 test	 ebx, ebx
  0031f	0f 84 d4 fd ff
	ff		 je	 $L269005
  00325	8b 43 78	 mov	 eax, DWORD PTR [ebx+120]
  00328	83 f8 0c	 cmp	 eax, 12			; 0000000cH
  0032b	74 09		 je	 SHORT $L269047
  0032d	83 f8 0e	 cmp	 eax, 14			; 0000000eH

; 1717 : 		return FALSE;		

  00330	0f 85 c3 fd ff
	ff		 jne	 $L269005
$L269047:

; 1718 : 	if( pItemProp->dwItemKind3 == IK3_CROSSARROW && ( pHandItemProp == NULL || pHandItemProp->dwItemKind3 != IK3_CROSSBOW ))

  00336	81 ff 95 00 00
	00		 cmp	 edi, 149		; 00000095H
  0033c	75 12		 jne	 SHORT $L269049
  0033e	85 db		 test	 ebx, ebx
  00340	0f 84 b3 fd ff
	ff		 je	 $L269005
  00346	83 7b 78 0e	 cmp	 DWORD PTR [ebx+120], 14	; 0000000eH

; 1719 : 		return FALSE;

  0034a	0f 85 a9 fd ff
	ff		 jne	 $L269005
$L269049:
  00350	5b		 pop	 ebx
  00351	5f		 pop	 edi
  00352	5e		 pop	 esi

; 1720 : #else // __CROSSBOW
; 1721 : 	if( pItemProp->dwItemKind3 == IK3_ARROW && ( pHandItemProp == NULL || pHandItemProp->dwItemKind3 != IK3_BOW ) )
; 1722 : 		return FALSE;	
; 1723 : #endif // __CROSSBOW
; 1724 : 	return TRUE;

  00353	b8 01 00 00 00	 mov	 eax, 1
  00358	5d		 pop	 ebp

; 1725 : }

  00359	83 c4 3c	 add	 esp, 60			; 0000003cH
  0035c	c2 08 00	 ret	 8
?IsEquipAble@CMover@@QAEHPAVCItemElem@@H@Z ENDP		; CMover::IsEquipAble
_TEXT	ENDS
PUBLIC	?DoEquip@CMover@@QAEHPAVCItemElem@@HH@Z		; CMover::DoEquip
EXTRN	?UpdateItem@CMover@@QAEXEDKK@Z:NEAR		; CMover::UpdateItem
; Function compile flags: /Ogty
;	COMDAT ?DoEquip@CMover@@QAEHPAVCItemElem@@HH@Z
_TEXT	SEGMENT
_equipInfo$ = -12					; size = 12
_bResult$ = 8						; size = 4
_pItemElem$ = 8						; size = 4
_bEquip$ = 12						; size = 4
_nPart$ = 16						; size = 4
?DoEquip@CMover@@QAEHPAVCItemElem@@HH@Z PROC NEAR	; CMover::DoEquip, COMDAT
; _this$ = ecx

; 1756 : {

  00000	83 ec 0c	 sub	 esp, 12			; 0000000cH
  00003	53		 push	 ebx
  00004	55		 push	 ebp

; 1757 : 	ItemProp* pItemProp = pItemElem->GetProp();

  00005	8b 6c 24 18	 mov	 ebp, DWORD PTR _pItemElem$[esp+16]
  00009	8b 45 0c	 mov	 eax, DWORD PTR [ebp+12]
  0000c	85 c0		 test	 eax, eax
  0000e	56		 push	 esi
  0000f	8b f1		 mov	 esi, ecx
  00011	8b 0d 5c 02 00
	00		 mov	 ecx, DWORD PTR ?prj@@3VCProject@@A+604
  00017	7c 19		 jl	 SHORT $L277807
  00019	3b c1		 cmp	 eax, ecx
  0001b	7d 15		 jge	 SHORT $L277807
  0001d	72 06		 jb	 SHORT $L277800
  0001f	33 c0		 xor	 eax, eax
  00021	8b d8		 mov	 ebx, eax
  00023	eb 25		 jmp	 SHORT $L277802
$L277800:
  00025	8b 0d 4c 02 00
	00		 mov	 ecx, DWORD PTR ?prj@@3VCProject@@A+588
  0002b	8b 04 81	 mov	 eax, DWORD PTR [ecx+eax*4]
  0002e	8b d8		 mov	 ebx, eax
  00030	eb 18		 jmp	 SHORT $L277802
$L277807:
  00032	50		 push	 eax
  00033	51		 push	 ecx
  00034	6a 00		 push	 0
  00036	68 00 00 00 00	 push	 OFFSET FLAT:??_C@_0BI@BEIFNGEL@GetItemProp?5range_error?$AA@
  0003b	68 00 00 00 00	 push	 OFFSET FLAT:??_C@_0BM@HMFGHCP@?$CFs?5min?3?$CFd?0?5max?3?$CFd?0?5index?3?$CFd?$AA@
  00040	e8 00 00 00 00	 call	 ?Error@@YAPBDPBDZZ	; Error
  00045	83 c4 14	 add	 esp, 20			; 00000014H
  00048	33 db		 xor	 ebx, ebx
$L277802:

; 1758 : 	
; 1759 : 	if( IsDie() )	//   / 

  0004a	8b 96 3c 02 00
	00		 mov	 edx, DWORD PTR [esi+572]
  00050	f7 42 04 00 00
	00 08		 test	 DWORD PTR [edx+4], 134217728 ; 08000000H
  00057	75 0a		 jne	 SHORT $L277816
  00059	8b 86 00 06 00
	00		 mov	 eax, DWORD PTR [esi+1536]
  0005f	85 c0		 test	 eax, eax
  00061	75 0b		 jne	 SHORT $L269071
$L277816:
  00063	5e		 pop	 esi
  00064	5d		 pop	 ebp

; 1760 : 	{
; 1761 : 		return FALSE;

  00065	33 c0		 xor	 eax, eax
  00067	5b		 pop	 ebx

; 1879 : }

  00068	83 c4 0c	 add	 esp, 12			; 0000000cH
  0006b	c2 0c 00	 ret	 12			; 0000000cH
$L269071:
  0006e	57		 push	 edi

; 1762 : 	}
; 1763 : 
; 1764 : 	if( bEquip )

  0006f	8b 7c 24 24	 mov	 edi, DWORD PTR _bEquip$[esp+24]
  00073	85 ff		 test	 edi, edi
  00075	74 46		 je	 SHORT $L269072

; 1765 : 	{
; 1766 : 		if( pItemProp->dwParts == PARTS_RIDE && m_Inventory.GetEquip( PARTS_RIDE ) )

  00077	83 bb a8 00 00
	00 0d		 cmp	 DWORD PTR [ebx+168], 13	; 0000000dH
  0007e	75 23		 jne	 SHORT $L269074
  00080	6a 0d		 push	 13			; 0000000dH
  00082	8d 8e 90 0b 00
	00		 lea	 ecx, DWORD PTR [esi+2960]
  00088	e8 00 00 00 00	 call	 ?GetEquip@?$CItemContainer@VCItemElem@@@@QAEPAVCItemElem@@K@Z ; CItemContainer<CItemElem>::GetEquip
  0008d	85 c0		 test	 eax, eax

; 1767 : 			return FALSE;

  0008f	75 20		 jne	 SHORT $L277853

; 1768 : 		if( pItemProp->dwParts == PARTS_RIDE && pItemElem && pItemElem->IsFlag( CItemElem::expired ) )

  00091	83 bb a8 00 00
	00 0d		 cmp	 DWORD PTR [ebx+168], 13	; 0000000dH
  00098	75 09		 jne	 SHORT $L269074
  0009a	f6 85 82 00 00
	00 01		 test	 BYTE PTR [ebp+130], 1

; 1769 : 			return FALSE;

  000a1	75 0e		 jne	 SHORT $L277853
$L269074:

; 1770 : #if __VER >= 11 // __SYS_IDENTIFY
; 1771 : 		if( IsEquipAble( pItemElem ) == FALSE )

  000a3	6a 00		 push	 0
  000a5	55		 push	 ebp
  000a6	8b ce		 mov	 ecx, esi
  000a8	e8 00 00 00 00	 call	 ?IsEquipAble@CMover@@QAEHPAVCItemElem@@H@Z ; CMover::IsEquipAble
  000ad	85 c0		 test	 eax, eax
  000af	75 22		 jne	 SHORT $L269077
$L277853:
  000b1	5f		 pop	 edi
  000b2	5e		 pop	 esi
  000b3	5d		 pop	 ebp

; 1772 : 			return FALSE;

  000b4	33 c0		 xor	 eax, eax
  000b6	5b		 pop	 ebx

; 1879 : }

  000b7	83 c4 0c	 add	 esp, 12			; 0000000cH
  000ba	c2 0c 00	 ret	 12			; 0000000cH
$L269072:

; 1773 : #else	// __SYS_IDENTIFY
; 1774 : 		if( IsEquipAble( pItemProp, pItemElem->m_dwObjId ) == FALSE )
; 1775 : 			return FALSE;
; 1776 : #endif	// __SYS_IDENTIFY
; 1777 : 	}
; 1778 : 	else
; 1779 : 	{
; 1780 : 		if( IsUnEquipAble( pItemProp ) == FALSE )

  000bd	53		 push	 ebx
  000be	8b ce		 mov	 ecx, esi
  000c0	e8 00 00 00 00	 call	 ?IsUnEquipAble@CMover@@QAEHPAUItemProp@@@Z ; CMover::IsUnEquipAble
  000c5	85 c0		 test	 eax, eax
  000c7	75 0a		 jne	 SHORT $L269077
  000c9	5f		 pop	 edi
  000ca	5e		 pop	 esi
  000cb	5d		 pop	 ebp
  000cc	5b		 pop	 ebx

; 1879 : }

  000cd	83 c4 0c	 add	 esp, 12			; 0000000cH
  000d0	c2 0c 00	 ret	 12			; 0000000cH
$L269077:

; 1781 : 			return FALSE;
; 1782 : 	}
; 1783 : 
; 1784 : 	EQUIP_INFO equipInfo;
; 1785 : 	equipInfo.dwId	= pItemElem->m_dwItemId;
; 1786 : 	equipInfo.nOption	= pItemElem->GetAttrOption();

  000d3	0f b6 95 88 00
	00 00		 movzx	 edx, BYTE PTR [ebp+136]
  000da	8b 8d 8c 00 00
	00		 mov	 ecx, DWORD PTR [ebp+140]
  000e0	8b 45 0c	 mov	 eax, DWORD PTR [ebp+12]
  000e3	c1 e1 08	 shl	 ecx, 8
  000e6	0b ca		 or	 ecx, edx
  000e8	89 44 24 10	 mov	 DWORD PTR _equipInfo$[esp+28], eax
  000ec	8b 45 70	 mov	 eax, DWORD PTR [ebp+112]

; 1787 : 	equipInfo.byFlag	= pItemElem->m_byFlag;
; 1788 : 	BOOL bResult = DoEquip( GetSex(), m_dwSkinSet, pItemElem, nPart, equipInfo, &m_Inventory, m_aEquipInfo, (CModelObject*)m_pModel, bEquip, this );

  000ef	56		 push	 esi
  000f0	c1 e1 10	 shl	 ecx, 16			; 00000010H
  000f3	0b c8		 or	 ecx, eax
  000f5	8a 85 82 00 00
	00		 mov	 al, BYTE PTR [ebp+130]
  000fb	57		 push	 edi
  000fc	89 4c 24 1c	 mov	 DWORD PTR _equipInfo$[esp+40], ecx
  00100	8b 8e 78 01 00
	00		 mov	 ecx, DWORD PTR [esi+376]
  00106	51		 push	 ecx
  00107	8d 96 08 0c 00
	00		 lea	 edx, DWORD PTR [esi+3080]
  0010d	52		 push	 edx
  0010e	8d 8e 90 0b 00
	00		 lea	 ecx, DWORD PTR [esi+2960]
  00114	51		 push	 ecx
  00115	8b 4c 24 3c	 mov	 ecx, DWORD PTR _nPart$[esp+44]
  00119	8d 54 24 24	 lea	 edx, DWORD PTR _equipInfo$[esp+48]
  0011d	52		 push	 edx
  0011e	8b 96 24 06 00
	00		 mov	 edx, DWORD PTR [esi+1572]
  00124	88 44 24 30	 mov	 BYTE PTR _equipInfo$[esp+60], al
  00128	8a 86 20 06 00
	00		 mov	 al, BYTE PTR [esi+1568]
  0012e	51		 push	 ecx
  0012f	55		 push	 ebp
  00130	0f b6 c0	 movzx	 eax, al
  00133	52		 push	 edx
  00134	50		 push	 eax
  00135	e8 00 00 00 00	 call	 ?DoEquip@CMover@@SAHHHPAVCItemElem@@HABU_EQUIP_INFO@@PAV?$CItemContainer@VCItemElem@@@@PAU3@PAVCModelObject@@HPAV1@@Z ; CMover::DoEquip
  0013a	8b f8		 mov	 edi, eax
  0013c	83 c4 28	 add	 esp, 40			; 00000028H

; 1789 : 		
; 1790 : 	if( !bResult )	// 2004/04/27

  0013f	85 ff		 test	 edi, edi
  00141	89 7c 24 20	 mov	 DWORD PTR _bResult$[esp+24], edi

; 1791 : 		return FALSE;

  00145	0f 84 66 ff ff
	ff		 je	 $L277853

; 1792 : 
; 1793 : #ifndef __CLIENT
; 1794 : 	if( bEquip )

  0014b	8b 44 24 24	 mov	 eax, DWORD PTR _bEquip$[esp+24]
  0014f	85 c0		 test	 eax, eax

; 1795 : 	{
; 1796 : #ifdef 	__BLADELWEAPON0608	//	9th               
; 1797 : 		if( (pItemElem->m_dwObjIndex - m_Inventory.GetSize() ) != PARTS_LWEAPON  )	// equiped item
; 1798 : #endif	//__BLADELWEAPON0608	//	9th               
; 1799 : 			SetDestParamEquip( pItemProp, pItemElem );		//   DestParam

  00151	8b ce		 mov	 ecx, esi
  00153	74 44		 je	 SHORT $L277846
  00155	6a 00		 push	 0
  00157	55		 push	 ebp
  00158	53		 push	 ebx
  00159	e8 00 00 00 00	 call	 ?SetDestParamEquip@CMover@@QAEXPAUItemProp@@PAVCItemElem@@H@Z ; CMover::SetDestParamEquip

; 1800 : #if __VER >= 14 // __EQUIP_BIND
; 1801 : 		if( ( pItemProp->dwFlag & IP_FLAG_EQUIP_BIND ) && !pItemElem->IsFlag( CItemElem::binds ) )

  0015e	f6 83 a4 00 00
	00 04		 test	 BYTE PTR [ebx+164], 4
  00165	74 5c		 je	 SHORT $L277848
  00167	8a 85 82 00 00
	00		 mov	 al, BYTE PTR [ebp+130]
  0016d	a8 02		 test	 al, 2
  0016f	75 52		 jne	 SHORT $L277848

; 1802 : 		{
; 1803 : 			pItemElem->SetFlag( CItemElem::binds );
; 1804 : 			UpdateItem( (BYTE)( pItemElem->m_dwObjId ), UI_FLAG, MAKELONG( pItemElem->m_dwObjIndex, pItemElem->m_byFlag ) );

  00171	0f b7 55 08	 movzx	 edx, WORD PTR [ebp+8]
  00175	0c 02		 or	 al, 2
  00177	0f b6 c8	 movzx	 ecx, al
  0017a	88 85 82 00 00
	00		 mov	 BYTE PTR [ebp+130], al
  00180	33 c0		 xor	 eax, eax
  00182	8a 45 04	 mov	 al, BYTE PTR [ebp+4]
  00185	c1 e1 10	 shl	 ecx, 16			; 00000010H
  00188	6a 00		 push	 0
  0018a	0b ca		 or	 ecx, edx
  0018c	51		 push	 ecx
  0018d	6a 09		 push	 9
  0018f	8b ce		 mov	 ecx, esi
  00191	50		 push	 eax
  00192	e8 00 00 00 00	 call	 ?UpdateItem@CMover@@QAEXEDKK@Z ; CMover::UpdateItem

; 1805 : 		}
; 1806 : 
; 1807 : #endif // __EQUIP_BIND
; 1808 : 	}
; 1809 : 	else

  00197	eb 2a		 jmp	 SHORT $L277848
$L277846:

; 1810 : 	if( bEquip == FALSE )
; 1811 : 	{
; 1812 : #ifdef 	__BLADELWEAPON0608	//	9th               
; 1813 : 		if( (pItemElem->m_dwObjIndex - m_Inventory.GetSize() ) != PARTS_LWEAPON  )	// equiped item
; 1814 : #endif	//__BLADELWEAPON0608	//	9th               
; 1815 : 			ResetDestParamEquip( pItemProp, pItemElem );	//   DestParam

  00199	55		 push	 ebp
  0019a	53		 push	 ebx
  0019b	e8 00 00 00 00	 call	 ?ResetDestParamEquip@CMover@@QAEXPAUItemProp@@PAVCItemElem@@@Z ; CMover::ResetDestParamEquip

; 1816 : 		
; 1817 : 		if( pItemProp->dwItemKind1 == IK1_WEAPON ) 

  001a0	83 7b 70 01	 cmp	 DWORD PTR [ebx+112], 1
  001a4	75 1d		 jne	 SHORT $L277848

; 1818 : 		{
; 1819 : 			if( m_pActMover->IsStateFlag( OBJSTAF_COMBAT ) )

  001a6	8b 8e 3c 02 00
	00		 mov	 ecx, DWORD PTR [esi+572]
  001ac	f6 41 08 01	 test	 BYTE PTR [ecx+8], 1
  001b0	74 11		 je	 SHORT $L277848

; 1820 : 				SendActMsg( OBJMSG_MODE_PEACE );

  001b2	6a 00		 push	 0
  001b4	6a 00		 push	 0
  001b6	6a 00		 push	 0
  001b8	6a 00		 push	 0
  001ba	6a 13		 push	 19			; 00000013H
  001bc	8b ce		 mov	 ecx, esi
  001be	e8 00 00 00 00	 call	 ?SendActMsg@CMover@@QAEHW4OBJMSG@@HHHH@Z ; CMover::SendActMsg
$L277848:

; 1821 : 		}
; 1822 : 
; 1823 : 	}
; 1824 : #endif	// __CLIENT
; 1825 : 
; 1826 : 	if( pItemProp->dwParts == PARTS_RIDE )

  001c3	83 bb a8 00 00
	00 0d		 cmp	 DWORD PTR [ebx+168], 13	; 0000000dH
  001ca	75 44		 jne	 SHORT $L269095

; 1827 : 	{
; 1828 : 		if( bEquip )

  001cc	8b 44 24 24	 mov	 eax, DWORD PTR _bEquip$[esp+24]
  001d0	85 c0		 test	 eax, eax

; 1829 : 		{
; 1830 : #ifdef __CLIENT	
; 1831 : 			if( IsPlayer() )
; 1832 : 			{
; 1833 : 				if( g_WndMng.m_pWndWorld->m_bFirstFlying == FALSE )
; 1834 : 				{
; 1835 : 					PlayMusic(BGM_TH_FLYING);
; 1836 : 					g_WndMng.m_pWndWorld->m_bFirstFlying = TRUE;
; 1837 : 				}
; 1838 : 				else
; 1839 : 				{
; 1840 : 					PlayMusic(BGM_EV_LIGHTWING);
; 1841 : 				}
; 1842 : 				g_WndMng.m_bAutoRun = FALSE;
; 1843 : 			}
; 1844 : #endif//__CLIENT				
; 1845 : 			SendActMsg( OBJMSG_MODE_FLY, pItemProp->dwID, 0, 1 );

  001d2	6a 00		 push	 0
  001d4	6a 01		 push	 1
  001d6	8b ce		 mov	 ecx, esi
  001d8	6a 00		 push	 0
  001da	74 07		 je	 SHORT $L269096
  001dc	8b 13		 mov	 edx, DWORD PTR [ebx]
  001de	52		 push	 edx
  001df	6a 16		 push	 22			; 00000016H

; 1846 : 		}
; 1847 : 		else

  001e1	eb 04		 jmp	 SHORT $L277852
$L269096:

; 1848 : 		{
; 1849 : 			SendActMsg( OBJMSG_MODE_GROUND, 0, 0, 1 );

  001e3	6a 00		 push	 0
  001e5	6a 17		 push	 23			; 00000017H
$L277852:
  001e7	e8 00 00 00 00	 call	 ?SendActMsg@CMover@@QAEHW4OBJMSG@@HHHH@Z ; CMover::SendActMsg

; 1850 : 		}
; 1851 : 		ClearDest();	// 2004/04/30

  001ec	8b ce		 mov	 ecx, esi
  001ee	e8 00 00 00 00	 call	 ?ClearDest@CMover@@QAEXXZ ; CMover::ClearDest

; 1852 : 		ClearDestAngle();
; 1853 : 		memset( &m_CorrAction, 0, sizeof(CORR_ACTION) );

  001f3	b9 14 00 00 00	 mov	 ecx, 20			; 00000014H
  001f8	33 c0		 xor	 eax, eax
  001fa	8d be 80 02 00
	00		 lea	 edi, DWORD PTR [esi+640]
  00200	c7 86 6c 02 00
	00 00 00 80 bf	 mov	 DWORD PTR [esi+620], -1082130432 ; bf800000H
  0020a	f3 ab		 rep stosd
  0020c	8b 7c 24 20	 mov	 edi, DWORD PTR _bResult$[esp+24]
$L269095:

; 1854 : 	}
; 1855 : 
; 1856 : 	//   .
; 1857 : 	if( bEquip )

  00210	8b 44 24 24	 mov	 eax, DWORD PTR _bEquip$[esp+24]
  00214	85 c0		 test	 eax, eax
  00216	74 14		 je	 SHORT $L269100

; 1858 : 	{
; 1859 : 		if( pItemProp->dwID == II_ARM_S_CLO_CLO_BLANK )		//   .

  00218	81 3b f9 11 00
	00		 cmp	 DWORD PTR [ebx], 4601	; 000011f9H
  0021e	75 0c		 jne	 SHORT $L269100

; 1860 : 		{
; 1861 : 			m_idGuildCloak = pItemElem->m_idGuild;			//    .

  00220	8b 85 84 00 00
	00		 mov	 eax, DWORD PTR [ebp+132]
  00226	89 86 24 07 00
	00		 mov	 DWORD PTR [esi+1828], eax
$L269100:

; 1862 : #ifdef __XCLOAK
; 1863 : 			m_pCloakTexture = g_GuildTexture.LoadGuildTexture( pItemElem->m_idGuild );
; 1864 : #endif
; 1865 : 		} 
; 1866 : 		else
; 1867 : 		{
; 1868 : #ifdef __XCLOAK
; 1869 : 			m_pCloakTexture = NULL;
; 1870 : 			m_idGuildCloak = 0;			//    .
; 1871 : #endif
; 1872 : 		}
; 1873 : 	}
; 1874 : 
; 1875 : 	UpdateBoundBox();

  0022c	8b ce		 mov	 ecx, esi
  0022e	e8 00 00 00 00	 call	 ?UpdateBoundBox@CObj@@QAEHXZ ; CObj::UpdateBoundBox

; 1876 : 	UpdateParam();

  00233	8b ce		 mov	 ecx, esi
  00235	e8 00 00 00 00	 call	 ?UpdateParam@CMover@@QAEXXZ ; CMover::UpdateParam

; 1877 : 
; 1878 : 	return bResult;

  0023a	8b c7		 mov	 eax, edi
  0023c	5f		 pop	 edi
  0023d	5e		 pop	 esi
  0023e	5d		 pop	 ebp
  0023f	5b		 pop	 ebx

; 1879 : }

  00240	83 c4 0c	 add	 esp, 12			; 0000000cH
  00243	c2 0c 00	 ret	 12			; 0000000cH
?DoEquip@CMover@@QAEHPAVCItemElem@@HH@Z ENDP		; CMover::DoEquip
_TEXT	ENDS
PUBLIC	?InvalidEquipOff@CMover@@QAEHH@Z		; CMover::InvalidEquipOff
PUBLIC	??_C@_0BG@IHELCDLD@?$LO?F?E?$NL?5?$LJ?$PO?$LB?b?$LE?B?$LF?$KF?5?$LN?G?F?P?3?$CFs?$AA@ ; `string'
;	COMDAT ??_C@_0BG@IHELCDLD@?$LO?F?E?$NL?5?$LJ?$PO?$LB?b?$LE?B?$LF?$KF?5?$LN?G?F?P?3?$CFs?$AA@
; File c:\documents and settings\test\mes documents\source\virtuos_v17\build\program\_common\data.h
CONST	SEGMENT
??_C@_0BG@IHELCDLD@?$LO?F?E?$NL?5?$LJ?$PO?$LB?b?$LE?B?$LF?$KF?5?$LN?G?F?P?3?$CFs?$AA@ DB 0beH
	DB	0c6H, 0c5H, 0dbH, ' ', 0b9H, 0feH, 0b1H, 0e2H, 0b4H, 0c2H, 0b5H
	DB	0a5H, ' ', 0bdH, 0c7H, 0c6H, 0d0H, ':%s', 00H ; `string'
; Function compile flags: /Ogty
; File c:\documents and settings\test\mes documents\source\virtuos_v17\build\program\_common\moverequip.cpp
CONST	ENDS
;	COMDAT ?InvalidEquipOff@CMover@@QAEHH@Z
_TEXT	SEGMENT
_bFakeParts$ = 8					; size = 4
?InvalidEquipOff@CMover@@QAEHH@Z PROC NEAR		; CMover::InvalidEquipOff, COMDAT
; _this$ = ecx

; 2105 : 	CItemElem* pItemElem = NULL;
; 2106 : 	ItemProp* pItemProp	= NULL;
; 2107 : 	int		i;
; 2108 : 
; 2109 : 	for( i = 0; i < MAX_HUMAN_PARTS; i ++ )

  00000	8b 15 5c 02 00
	00		 mov	 edx, DWORD PTR ?prj@@3VCProject@@A+604
  00006	53		 push	 ebx
  00007	55		 push	 ebp
  00008	56		 push	 esi
  00009	8b f1		 mov	 esi, ecx
  0000b	57		 push	 edi
  0000c	33 db		 xor	 ebx, ebx
  0000e	8d ae 08 0c 00
	00		 lea	 ebp, DWORD PTR [esi+3080]
$L277996:

; 2110 : 	{
; 2111 : 		pItemElem = NULL;		
; 2112 : 		pItemProp = NULL;
; 2113 : 
; 2114 : 		//    .
; 2115 : 		if( bFakeParts )	// Fake 

  00014	8b 44 24 14	 mov	 eax, DWORD PTR _bFakeParts$[esp+12]
  00018	33 ff		 xor	 edi, edi
  0001a	85 c0		 test	 eax, eax
  0001c	74 3a		 je	 SHORT $L269151

; 2116 : 		{
; 2117 : 			if( m_aEquipInfo[i].dwId	== NULL_ID )	continue;

  0001e	8b 45 00	 mov	 eax, DWORD PTR [ebp]
  00021	83 f8 ff	 cmp	 eax, -1
  00024	0f 84 12 01 00
	00		 je	 $L269149

; 2118 : 			pItemProp	= prj.GetItemProp( m_aEquipInfo[i].dwId );

  0002a	85 c0		 test	 eax, eax
  0002c	7c 0f		 jl	 SHORT $L277884
  0002e	3b c2		 cmp	 eax, edx
  00030	7d 0b		 jge	 SHORT $L277884
  00032	0f 82 80 00 00
	00		 jb	 $L277989
  00038	e9 bc 00 00 00	 jmp	 $L277997
$L277884:
  0003d	50		 push	 eax
  0003e	52		 push	 edx
  0003f	6a 00		 push	 0
  00041	68 00 00 00 00	 push	 OFFSET FLAT:??_C@_0BI@BEIFNGEL@GetItemProp?5range_error?$AA@
  00046	68 00 00 00 00	 push	 OFFSET FLAT:??_C@_0BM@HMFGHCP@?$CFs?5min?3?$CFd?0?5max?3?$CFd?0?5index?3?$CFd?$AA@
  0004b	e8 00 00 00 00	 call	 ?Error@@YAPBDPBDZZ	; Error
  00050	83 c4 14	 add	 esp, 20			; 00000014H

; 2119 : 		}
; 2120 : 		else

  00053	e9 de 00 00 00	 jmp	 $L277994
$L269151:

; 2121 : 		{
; 2122 : 			pItemElem = m_Inventory.GetEquip( i );

  00058	8b 8e 98 0b 00
	00		 mov	 ecx, DWORD PTR [esi+2968]
  0005e	85 c9		 test	 ecx, ecx
  00060	0f 84 d6 00 00
	00		 je	 $L269149
  00066	8b 86 9c 0b 00
	00		 mov	 eax, DWORD PTR [esi+2972]
  0006c	8b f8		 mov	 edi, eax
  0006e	2b f9		 sub	 edi, ecx
  00070	3b df		 cmp	 ebx, edi
  00072	73 4f		 jae	 SHORT $L277916
  00074	8b 86 94 0b 00
	00		 mov	 eax, DWORD PTR [esi+2964]
  0007a	03 cb		 add	 ecx, ebx
  0007c	8b 04 88	 mov	 eax, DWORD PTR [eax+ecx*4]
  0007f	83 f8 ff	 cmp	 eax, -1
  00082	75 04		 jne	 SHORT $L277920
  00084	33 c0		 xor	 eax, eax
  00086	eb 19		 jmp	 SHORT $L277922
$L277920:
  00088	8b 8e a0 0b 00
	00		 mov	 ecx, DWORD PTR [esi+2976]
  0008e	69 c0 b8 00 00
	00		 imul	 eax, 184		; 000000b8H
  00094	03 c1		 add	 eax, ecx
  00096	8b c8		 mov	 ecx, eax
  00098	8b 41 0c	 mov	 eax, DWORD PTR [ecx+12]
  0009b	f7 d8		 neg	 eax
  0009d	1b c0		 sbb	 eax, eax
  0009f	23 c1		 and	 eax, ecx
$L277922:

; 2123 : 			if( pItemElem )

  000a1	85 c0		 test	 eax, eax
  000a3	8b f8		 mov	 edi, eax
  000a5	0f 84 91 00 00
	00		 je	 $L269149

; 2124 : 				pItemProp  = pItemElem->GetProp();	

  000ab	8b 40 0c	 mov	 eax, DWORD PTR [eax+12]
  000ae	85 c0		 test	 eax, eax
  000b0	7c 2b		 jl	 SHORT $L277977
  000b2	3b c2		 cmp	 eax, edx
  000b4	7d 27		 jge	 SHORT $L277977
  000b6	73 41		 jae	 SHORT $L277997
$L277989:
  000b8	8b 0d 4c 02 00
	00		 mov	 ecx, DWORD PTR ?prj@@3VCProject@@A+588
  000be	8b 04 81	 mov	 eax, DWORD PTR [ecx+eax*4]
  000c1	eb 38		 jmp	 SHORT $L269154

; 2121 : 		{
; 2122 : 			pItemElem = m_Inventory.GetEquip( i );

$L277916:
  000c3	8b 8e 98 0b 00
	00		 mov	 ecx, DWORD PTR [esi+2968]
  000c9	53		 push	 ebx
  000ca	2b c1		 sub	 eax, ecx
  000cc	50		 push	 eax
  000cd	51		 push	 ecx
  000ce	68 00 00 00 00	 push	 OFFSET FLAT:??_C@_0BF@OJMCJNHH@GETEQUIP?1?1?$CFd?0?5?$CFd?0?5?$CFd?$AA@
  000d3	e8 00 00 00 00	 call	 ?WriteError@@YAXPBDZZ	; WriteError
  000d8	83 c4 10	 add	 esp, 16			; 00000010H
  000db	eb 59		 jmp	 SHORT $L277994

; 2124 : 				pItemProp  = pItemElem->GetProp();	

$L277977:
  000dd	50		 push	 eax
  000de	52		 push	 edx
  000df	6a 00		 push	 0
  000e1	68 00 00 00 00	 push	 OFFSET FLAT:??_C@_0BI@BEIFNGEL@GetItemProp?5range_error?$AA@
  000e6	68 00 00 00 00	 push	 OFFSET FLAT:??_C@_0BM@HMFGHCP@?$CFs?5min?3?$CFd?0?5max?3?$CFd?0?5index?3?$CFd?$AA@
  000eb	e8 00 00 00 00	 call	 ?Error@@YAPBDPBDZZ	; Error
  000f0	8b 15 5c 02 00
	00		 mov	 edx, DWORD PTR ?prj@@3VCProject@@A+604
  000f6	83 c4 14	 add	 esp, 20			; 00000014H
$L277997:
  000f9	33 c0		 xor	 eax, eax
$L269154:

; 2125 : 		}
; 2126 : 
; 2127 : 		if( pItemProp == NULL )	

  000fb	85 c0		 test	 eax, eax
  000fd	74 3d		 je	 SHORT $L269149

; 2128 : 			continue;	//   .
; 2129 : 
; 2130 : #if __VER >= 8 // __S8_PK
; 2131 : #if __VER >= 11 // __SYS_IDENTIFY
; 2132 : 		if( IsEquipAble( pItemElem,TRUE ) == FALSE )	//    .

  000ff	6a 01		 push	 1
  00101	57		 push	 edi
  00102	8b ce		 mov	 ecx, esi
  00104	e8 00 00 00 00	 call	 ?IsEquipAble@CMover@@QAEHPAVCItemElem@@H@Z ; CMover::IsEquipAble
  00109	85 c0		 test	 eax, eax
  0010b	75 29		 jne	 SHORT $L277994

; 2133 : #else	// __SYS_IDENTIFY
; 2134 : 		if( IsEquipAble( pItemProp, pItemElem->m_dwObjId, TRUE ) == FALSE )	//    .
; 2135 : #endif	// __SYS_IDENTIFY
; 2136 : #else	// __S8_PK
; 2137 : 		if( IsEquipAble( pItemProp, pItemElem->m_dwObjId) == FALSE )	//    .
; 2138 : #endif	// __S8_PK
; 2139 : 		{
; 2140 : 			if( pItemElem )

  0010d	85 ff		 test	 edi, edi
  0010f	74 25		 je	 SHORT $L277994

; 2141 : 			{
; 2142 : 				if( DoEquip( pItemElem, FALSE ) == FALSE )		// .

  00111	6a ff		 push	 -1
  00113	50		 push	 eax
  00114	57		 push	 edi
  00115	8b ce		 mov	 ecx, esi
  00117	e8 00 00 00 00	 call	 ?DoEquip@CMover@@QAEHPAVCItemElem@@HH@Z ; CMover::DoEquip
  0011c	85 c0		 test	 eax, eax
  0011e	75 16		 jne	 SHORT $L277994

; 2143 : 				{
; 2144 : 				#ifdef __WORLDSERVER
; 2145 : 					//  .    
; 2146 : 					#ifndef _DEBUG
; 2147 : 						Error( "  :%s", GetName() );

  00120	50		 push	 eax
  00121	8b ce		 mov	 ecx, esi
  00123	e8 00 00 00 00	 call	 ?GetName@CMover@@QAEPBDH@Z ; CMover::GetName
  00128	50		 push	 eax
  00129	68 00 00 00 00	 push	 OFFSET FLAT:??_C@_0BG@IHELCDLD@?$LO?F?E?$NL?5?$LJ?$PO?$LB?b?$LE?B?$LF?$KF?5?$LN?G?F?P?3?$CFs?$AA@
  0012e	e8 00 00 00 00	 call	 ?Error@@YAPBDPBDZZ	; Error
  00133	83 c4 08	 add	 esp, 8
$L277994:
  00136	8b 15 5c 02 00
	00		 mov	 edx, DWORD PTR ?prj@@3VCProject@@A+604
$L269149:

; 2105 : 	CItemElem* pItemElem = NULL;
; 2106 : 	ItemProp* pItemProp	= NULL;
; 2107 : 	int		i;
; 2108 : 
; 2109 : 	for( i = 0; i < MAX_HUMAN_PARTS; i ++ )

  0013c	43		 inc	 ebx
  0013d	83 c5 0c	 add	 ebp, 12			; 0000000cH
  00140	83 fb 1f	 cmp	 ebx, 31			; 0000001fH
  00143	0f 8c cb fe ff
	ff		 jl	 $L277996
  00149	5f		 pop	 edi
  0014a	5e		 pop	 esi
  0014b	5d		 pop	 ebp

; 2148 : 					#endif
; 2149 : 				#endif
; 2150 : 				}
; 2151 : 			} 
; 2152 : 		}
; 2153 : 	} // for
; 2154 : 	
; 2155 : 	return FALSE;

  0014c	33 c0		 xor	 eax, eax
  0014e	5b		 pop	 ebx

; 2156 : }

  0014f	c2 04 00	 ret	 4
?InvalidEquipOff@CMover@@QAEHH@Z ENDP			; CMover::InvalidEquipOff
_TEXT	ENDS
PUBLIC	?EquipItem@CMover@@QAEXPAVCItemElem@@HH@Z	; CMover::EquipItem
EXTRN	?RemoveItem@CMover@@QAEXEF@Z:NEAR		; CMover::RemoveItem
; Function compile flags: /Ogty
;	COMDAT ?EquipItem@CMover@@QAEXPAVCItemElem@@HH@Z
_TEXT	SEGMENT
_pItemElem$ = 8						; size = 4
_bEquip$ = 12						; size = 4
_nPart$ = 16						; size = 4
?EquipItem@CMover@@QAEXPAVCItemElem@@HH@Z PROC NEAR	; CMover::EquipItem, COMDAT
; _this$ = ecx

; 2601 : {

  00000	53		 push	 ebx
  00001	8b d9		 mov	 ebx, ecx

; 2602 : 	if( m_pActMover && m_pActMover->IsActAttack() )

  00003	8b 83 3c 02 00
	00		 mov	 eax, DWORD PTR [ebx+572]
  00009	85 c0		 test	 eax, eax
  0000b	74 0d		 je	 SHORT $L269591
  0000d	f7 40 04 00 00
	ff 00		 test	 DWORD PTR [eax+4], 16711680 ; 00ff0000H
  00014	0f 85 96 00 00
	00		 jne	 $L269593
$L269591:
  0001a	55		 push	 ebp

; 2603 : 		return;
; 2604 : 
; 2605 : 	if( DoEquip( pItemElem, bEquip, nPart ) )

  0001b	8b 6c 24 10	 mov	 ebp, DWORD PTR _bEquip$[esp+4]
  0001f	56		 push	 esi
  00020	8b 74 24 10	 mov	 esi, DWORD PTR _pItemElem$[esp+8]
  00024	57		 push	 edi
  00025	8b 7c 24 1c	 mov	 edi, DWORD PTR _nPart$[esp+12]
  00029	57		 push	 edi
  0002a	55		 push	 ebp
  0002b	56		 push	 esi
  0002c	8b cb		 mov	 ecx, ebx
  0002e	e8 00 00 00 00	 call	 ?DoEquip@CMover@@QAEHPAVCItemElem@@HH@Z ; CMover::DoEquip
  00033	85 c0		 test	 eax, eax
  00035	74 76		 je	 SHORT $L278069

; 2606 : 	{
; 2607 : 	#ifdef __WORLDSERVER
; 2608 : 		g_UserMng.AddDoEquip( this, nPart, pItemElem, bEquip );

  00037	55		 push	 ebp
  00038	56		 push	 esi
  00039	57		 push	 edi
  0003a	53		 push	 ebx
  0003b	b9 00 00 00 00	 mov	 ecx, OFFSET FLAT:?g_UserMng@@3VCUserMng@@A
  00040	e8 00 00 00 00	 call	 ?AddDoEquip@CUserMng@@QAEXPAVCMover@@HPAVCItemElem@@E@Z ; CUserMng::AddDoEquip

; 2609 : 		if( pItemElem->GetProp()->dwParts == PARTS_RIDE && pItemElem->GetProp()->dwItemJob == JOB_VAGRANT && bEquip == FALSE )

  00045	8b 46 0c	 mov	 eax, DWORD PTR [esi+12]
  00048	85 c0		 test	 eax, eax
  0004a	8b 0d 5c 02 00
	00		 mov	 ecx, DWORD PTR ?prj@@3VCProject@@A+604
  00050	7c 11		 jl	 SHORT $L278054
  00052	3b c1		 cmp	 eax, ecx
  00054	7d 0d		 jge	 SHORT $L278054
  00056	73 21		 jae	 SHORT $L278072
  00058	8b 0d 4c 02 00
	00		 mov	 ecx, DWORD PTR ?prj@@3VCProject@@A+588
  0005e	8b 04 81	 mov	 eax, DWORD PTR [ecx+eax*4]
  00061	eb 18		 jmp	 SHORT $L278049
$L278054:
  00063	50		 push	 eax
  00064	51		 push	 ecx
  00065	6a 00		 push	 0
  00067	68 00 00 00 00	 push	 OFFSET FLAT:??_C@_0BI@BEIFNGEL@GetItemProp?5range_error?$AA@
  0006c	68 00 00 00 00	 push	 OFFSET FLAT:??_C@_0BM@HMFGHCP@?$CFs?5min?3?$CFd?0?5max?3?$CFd?0?5index?3?$CFd?$AA@
  00071	e8 00 00 00 00	 call	 ?Error@@YAPBDPBDZZ	; Error
  00076	83 c4 14	 add	 esp, 20			; 00000014H
$L278072:
  00079	33 c0		 xor	 eax, eax
$L278049:
  0007b	83 b8 a8 00 00
	00 0d		 cmp	 DWORD PTR [eax+168], 13	; 0000000dH
  00082	75 29		 jne	 SHORT $L278069
  00084	8b ce		 mov	 ecx, esi
  00086	e8 00 00 00 00	 call	 ?GetPropA@CItemElem@@QAEPAUItemProp@@XZ ; CItemElem::GetPropA
  0008b	8b 48 7c	 mov	 ecx, DWORD PTR [eax+124]
  0008e	85 c9		 test	 ecx, ecx
  00090	75 1b		 jne	 SHORT $L278069
  00092	85 ed		 test	 ebp, ebp
  00094	75 17		 jne	 SHORT $L278069

; 2610 : //			( ( pItemElem->m_dwItemId == II_RID_RID_BOR_EVEINSHOVER || pItemElem->m_dwItemId == II_RID_RID_BOR_LADOLF ) && bEquip == FALSE )
; 2611 : 			RemoveItem( (BYTE)( pItemElem->m_dwObjId ), pItemElem->m_nItemNum );

  00096	33 d2		 xor	 edx, edx
  00098	66 8b 96 80 00
	00 00		 mov	 dx, WORD PTR [esi+128]
  0009f	33 c0		 xor	 eax, eax
  000a1	8a 46 04	 mov	 al, BYTE PTR [esi+4]
  000a4	8b cb		 mov	 ecx, ebx
  000a6	52		 push	 edx
  000a7	50		 push	 eax
  000a8	e8 00 00 00 00	 call	 ?RemoveItem@CMover@@QAEXEF@Z ; CMover::RemoveItem
$L278069:
  000ad	5f		 pop	 edi
  000ae	5e		 pop	 esi
  000af	5d		 pop	 ebp
$L269593:
  000b0	5b		 pop	 ebx

; 2612 : 	#endif // __WORLDSERVER
; 2613 : 	}
; 2614 : }

  000b1	c2 0c 00	 ret	 12			; 0000000cH
?EquipItem@CMover@@QAEXPAVCItemElem@@HH@Z ENDP		; CMover::EquipItem
_TEXT	ENDS
PUBLIC	?UnequipRide@CMover@@QAEXXZ			; CMover::UnequipRide
EXTRN	?GetEquipItem@CMover@@QAEPAVCItemElem@@H@Z:NEAR	; CMover::GetEquipItem
; Function compile flags: /Ogty
;	COMDAT ?UnequipRide@CMover@@QAEXXZ
_TEXT	SEGMENT
?UnequipRide@CMover@@QAEXXZ PROC NEAR			; CMover::UnequipRide, COMDAT
; _this$ = ecx

; 2618 : {

  00000	56		 push	 esi
  00001	8b f1		 mov	 esi, ecx

; 2619 : 	if( IsPlayer() )

  00003	8b 86 34 02 00
	00		 mov	 eax, DWORD PTR [esi+564]
  00009	85 c0		 test	 eax, eax
  0000b	74 17		 je	 SHORT $L269600

; 2620 : 	{
; 2621 : 		CItemElem* pItemElem = GetEquipItem( PARTS_RIDE );

  0000d	6a 0d		 push	 13			; 0000000dH
  0000f	e8 00 00 00 00	 call	 ?GetEquipItem@CMover@@QAEPAVCItemElem@@H@Z ; CMover::GetEquipItem

; 2622 : 		if( pItemElem )

  00014	85 c0		 test	 eax, eax
  00016	74 0c		 je	 SHORT $L269600

; 2623 : 			EquipItem( pItemElem, FALSE, -1 );	// -1  

  00018	6a ff		 push	 -1
  0001a	6a 00		 push	 0
  0001c	50		 push	 eax
  0001d	8b ce		 mov	 ecx, esi
  0001f	e8 00 00 00 00	 call	 ?EquipItem@CMover@@QAEXPAVCItemElem@@HH@Z ; CMover::EquipItem
$L269600:
  00024	5e		 pop	 esi

; 2624 : 	}
; 2625 : }

  00025	c3		 ret	 0
?UnequipRide@CMover@@QAEXXZ ENDP			; CMover::UnequipRide
_TEXT	ENDS
PUBLIC	?DoUseEquipmentItem@CMover@@QAEHPAVCItemElem@@KH@Z ; CMover::DoUseEquipmentItem
EXTRN	?IsItemRedyTime@CMover@@QAEHPAUItemProp@@KH@Z:NEAR ; CMover::IsItemRedyTime
; Function compile flags: /Ogty
;	COMDAT ?DoUseEquipmentItem@CMover@@QAEHPAVCItemElem@@KH@Z
_TEXT	SEGMENT
_this$ = -4						; size = 4
_pItemElem$ = 8						; size = 4
_dwId$ = 12						; size = 4
_nPart$ = 16						; size = 4
?DoUseEquipmentItem@CMover@@QAEHPAVCItemElem@@KH@Z PROC NEAR ; CMover::DoUseEquipmentItem, COMDAT
; _this$ = ecx

; 2631 : { 

  00000	51		 push	 ecx
  00001	53		 push	 ebx
  00002	55		 push	 ebp
  00003	56		 push	 esi
  00004	8b f1		 mov	 esi, ecx

; 2632 : #ifdef __WORLDSERVER
; 2633 : 	BOOL bEquip	= !m_Inventory.IsEquip( dwId );	// equip

  00006	8b 8e a0 0b 00
	00		 mov	 ecx, DWORD PTR [esi+2976]
  0000c	85 c9		 test	 ecx, ecx
  0000e	89 74 24 0c	 mov	 DWORD PTR _this$[esp+16], esi
  00012	75 11		 jne	 SHORT $L278085
  00014	68 00 00 00 00	 push	 OFFSET FLAT:??_C@_0N@GELFDHNG@CONTAINER?1?10?$AA@
  00019	e8 00 00 00 00	 call	 ?WriteError@@YAXPBDZZ	; WriteError
  0001e	83 c4 04	 add	 esp, 4
  00021	33 c0		 xor	 eax, eax
  00023	eb 25		 jmp	 SHORT $L278087
$L278085:
  00025	8b 44 24 18	 mov	 eax, DWORD PTR _dwId$[esp+12]
  00029	3b 86 9c 0b 00
	00		 cmp	 eax, DWORD PTR [esi+2972]
  0002f	72 04		 jb	 SHORT $L278086
  00031	33 c0		 xor	 eax, eax
  00033	eb 15		 jmp	 SHORT $L278087
$L278086:
  00035	8b 96 98 0b 00
	00		 mov	 edx, DWORD PTR [esi+2968]
  0003b	69 c0 b8 00 00
	00		 imul	 eax, 184		; 000000b8H
  00041	8b 44 08 08	 mov	 eax, DWORD PTR [eax+ecx+8]
  00045	3b c2		 cmp	 eax, edx
  00047	1b c0		 sbb	 eax, eax
  00049	40		 inc	 eax
$L278087:

; 2634 : 	if( bEquip && IsItemRedyTime( pItemElem->GetProp(), pItemElem->m_dwObjId, TRUE ) == FALSE )

  0004a	8b 5c 24 14	 mov	 ebx, DWORD PTR _pItemElem$[esp+12]
  0004e	33 c9		 xor	 ecx, ecx
  00050	85 c0		 test	 eax, eax
  00052	0f 94 c1	 sete	 cl
  00055	8b e9		 mov	 ebp, ecx
  00057	85 ed		 test	 ebp, ebp
  00059	74 4f		 je	 SHORT $L269608
  0005b	8b 43 0c	 mov	 eax, DWORD PTR [ebx+12]
  0005e	85 c0		 test	 eax, eax
  00060	8b 0d 5c 02 00
	00		 mov	 ecx, DWORD PTR ?prj@@3VCProject@@A+604
  00066	7c 11		 jl	 SHORT $L278141
  00068	3b c1		 cmp	 eax, ecx
  0006a	7d 0d		 jge	 SHORT $L278141
  0006c	73 21		 jae	 SHORT $L278223
  0006e	8b 15 4c 02 00
	00		 mov	 edx, DWORD PTR ?prj@@3VCProject@@A+588
  00074	8b 04 82	 mov	 eax, DWORD PTR [edx+eax*4]
  00077	eb 18		 jmp	 SHORT $L278136
$L278141:
  00079	50		 push	 eax
  0007a	51		 push	 ecx
  0007b	6a 00		 push	 0
  0007d	68 00 00 00 00	 push	 OFFSET FLAT:??_C@_0BI@BEIFNGEL@GetItemProp?5range_error?$AA@
  00082	68 00 00 00 00	 push	 OFFSET FLAT:??_C@_0BM@HMFGHCP@?$CFs?5min?3?$CFd?0?5max?3?$CFd?0?5index?3?$CFd?$AA@
  00087	e8 00 00 00 00	 call	 ?Error@@YAPBDPBDZZ	; Error
  0008c	83 c4 14	 add	 esp, 20			; 00000014H
$L278223:
  0008f	33 c0		 xor	 eax, eax
$L278136:
  00091	8b 4b 04	 mov	 ecx, DWORD PTR [ebx+4]
  00094	6a 01		 push	 1
  00096	51		 push	 ecx
  00097	50		 push	 eax
  00098	8b ce		 mov	 ecx, esi
  0009a	e8 00 00 00 00	 call	 ?IsItemRedyTime@CMover@@QAEHPAUItemProp@@KH@Z ; CMover::IsItemRedyTime
  0009f	85 c0		 test	 eax, eax
  000a1	75 07		 jne	 SHORT $L269608
  000a3	5e		 pop	 esi
  000a4	5d		 pop	 ebp
  000a5	5b		 pop	 ebx

; 2654 : }

  000a6	59		 pop	 ecx
  000a7	c2 0c 00	 ret	 12			; 0000000cH
$L269608:

; 2635 : 		return FALSE;
; 2636 : 
; 2637 : 	// chipi_090731 -    
; 2638 : 	ItemProp* pItemProp = pItemElem->GetProp();

  000aa	8b 43 0c	 mov	 eax, DWORD PTR [ebx+12]
  000ad	85 c0		 test	 eax, eax
  000af	8b 0d 5c 02 00
	00		 mov	 ecx, DWORD PTR ?prj@@3VCProject@@A+604
  000b5	57		 push	 edi
  000b6	7c 21		 jl	 SHORT $L278206
  000b8	3b c1		 cmp	 eax, ecx
  000ba	7d 1d		 jge	 SHORT $L278206
  000bc	72 10		 jb	 SHORT $L278218
  000be	33 ff		 xor	 edi, edi
$L278201:

; 2639 : 	if( !pItemProp )

  000c0	85 ff		 test	 edi, edi
  000c2	75 35		 jne	 SHORT $L269610
$L278221:
  000c4	5f		 pop	 edi
  000c5	5e		 pop	 esi
  000c6	5d		 pop	 ebp

; 2640 : 		return FALSE;

  000c7	33 c0		 xor	 eax, eax
  000c9	5b		 pop	 ebx

; 2654 : }

  000ca	59		 pop	 ecx
  000cb	c2 0c 00	 ret	 12			; 0000000cH

; 2635 : 		return FALSE;
; 2636 : 
; 2637 : 	// chipi_090731 -    
; 2638 : 	ItemProp* pItemProp = pItemElem->GetProp();

$L278218:
  000ce	8b 15 4c 02 00
	00		 mov	 edx, DWORD PTR ?prj@@3VCProject@@A+588
  000d4	8b 3c 82	 mov	 edi, DWORD PTR [edx+eax*4]
  000d7	eb e7		 jmp	 SHORT $L278201
$L278206:
  000d9	50		 push	 eax
  000da	51		 push	 ecx
  000db	6a 00		 push	 0
  000dd	68 00 00 00 00	 push	 OFFSET FLAT:??_C@_0BI@BEIFNGEL@GetItemProp?5range_error?$AA@
  000e2	68 00 00 00 00	 push	 OFFSET FLAT:??_C@_0BM@HMFGHCP@?$CFs?5min?3?$CFd?0?5max?3?$CFd?0?5index?3?$CFd?$AA@
  000e7	e8 00 00 00 00	 call	 ?Error@@YAPBDPBDZZ	; Error
  000ec	83 c4 14	 add	 esp, 20			; 00000014H
  000ef	5f		 pop	 edi
  000f0	5e		 pop	 esi
  000f1	5d		 pop	 ebp

; 2640 : 		return FALSE;

  000f2	33 c0		 xor	 eax, eax
  000f4	5b		 pop	 ebx

; 2654 : }

  000f5	59		 pop	 ecx
  000f6	c2 0c 00	 ret	 12			; 0000000cH
$L269610:

; 2641 : 		
; 2642 : 	if( pItemProp->dwParts != nPart && nPart != -1)

  000f9	8b 74 24 20	 mov	 esi, DWORD PTR _nPart$[esp+16]
  000fd	39 b7 a8 00 00
	00		 cmp	 DWORD PTR [edi+168], esi
  00103	74 31		 je	 SHORT $L269613
  00105	83 fe ff	 cmp	 esi, -1
  00108	74 2c		 je	 SHORT $L269613

; 2643 : 	{
; 2644 : 		CItemElem* pTempElem = m_Inventory.GetAt( MAX_INVENTORY + nPart );

  0010a	8b 4c 24 10	 mov	 ecx, DWORD PTR _this$[esp+20]
  0010e	8d 46 2a	 lea	 eax, DWORD PTR [esi+42]
  00111	50		 push	 eax
  00112	81 c1 90 0b 00
	00		 add	 ecx, 2960		; 00000b90H
  00118	e8 00 00 00 00	 call	 ?GetAt@?$CItemContainer@VCItemElem@@@@QAEPAVCItemElem@@K@Z ; CItemContainer<CItemElem>::GetAt

; 2645 : 		if( !pTempElem || pTempElem->GetProp()->dwParts != pItemProp->dwParts )

  0011d	85 c0		 test	 eax, eax
  0011f	74 a3		 je	 SHORT $L278221
  00121	8b c8		 mov	 ecx, eax
  00123	e8 00 00 00 00	 call	 ?GetPropA@CItemElem@@QAEPAUItemProp@@XZ ; CItemElem::GetPropA
  00128	8b 88 a8 00 00
	00		 mov	 ecx, DWORD PTR [eax+168]
  0012e	3b 8f a8 00 00
	00		 cmp	 ecx, DWORD PTR [edi+168]

; 2646 : 			return FALSE;

  00134	75 8e		 jne	 SHORT $L278221
$L269613:

; 2647 : 	}
; 2648 : 	// END chipi_090731 -    
; 2649 : 
; 2650 : 	EquipItem( pItemElem, bEquip, nPart );

  00136	8b 4c 24 10	 mov	 ecx, DWORD PTR _this$[esp+20]
  0013a	56		 push	 esi
  0013b	55		 push	 ebp
  0013c	53		 push	 ebx
  0013d	e8 00 00 00 00	 call	 ?EquipItem@CMover@@QAEXPAVCItemElem@@HH@Z ; CMover::EquipItem
  00142	5f		 pop	 edi
  00143	5e		 pop	 esi
  00144	5d		 pop	 ebp

; 2651 : #endif // __WORLDSERVER
; 2652 : 
; 2653 : 	return TRUE;

  00145	b8 01 00 00 00	 mov	 eax, 1
  0014a	5b		 pop	 ebx

; 2654 : }

  0014b	59		 pop	 ecx
  0014c	c2 0c 00	 ret	 12			; 0000000cH
?DoUseEquipmentItem@CMover@@QAEHPAVCItemElem@@KH@Z ENDP	; CMover::DoUseEquipmentItem
_TEXT	ENDS
PUBLIC	?RedoEquip@CMover@@QAEXHH@Z			; CMover::RedoEquip
PUBLIC	??_C@_0CF@GFJJIKHF@RedoEquip?$CI?$CJ?3?5Illegal?5dwParts?0?5?$CFs@ ; `string'
EXTRN	?WriteLog@@YAXPBDZZ:NEAR			; WriteLog
;	COMDAT ??_C@_0CF@GFJJIKHF@RedoEquip?$CI?$CJ?3?5Illegal?5dwParts?0?5?$CFs@
; File c:\documents and settings\test\mes documents\source\virtuos_v17\build\program\_common\item.h
CONST	SEGMENT
??_C@_0CF@GFJJIKHF@RedoEquip?$CI?$CJ?3?5Illegal?5dwParts?0?5?$CFs@ DB 'Re'
	DB	'doEquip(): Illegal dwParts, %s, %d', 00H	; `string'
; Function compile flags: /Ogty
; File c:\documents and settings\test\mes documents\source\virtuos_v17\build\program\_common\moverequip.cpp
CONST	ENDS
;	COMDAT ?RedoEquip@CMover@@QAEXHH@Z
_TEXT	SEGMENT
_fFakeParts$ = 8					; size = 4
_bDestParam$ = 12					; size = 4
?RedoEquip@CMover@@QAEXHH@Z PROC NEAR			; CMover::RedoEquip, COMDAT
; _this$ = ecx

; 1952 : {

  00000	56		 push	 esi
  00001	57		 push	 edi
  00002	53		 push	 ebx
  00003	8b f1		 mov	 esi, ecx

; 1953 : 	CItemElem* pItemElem = NULL;
; 1954 : 	ItemProp* pItemProp	= NULL;
; 1955 : 	BOOL bEquip;
; 1956 : 
; 1957 : 	//     
; 1958 : 	for( int i = 0; i < MAX_HUMAN_PARTS; i++ )

  00005	33 ff		 xor	 edi, edi
  00007	55		 push	 ebp
$L278532:

; 1959 : 	{
; 1960 : 		bEquip	= fFakeParts? ( m_aEquipInfo[i].dwId != NULL_ID ) : ( m_Inventory.GetEquip( i ) != NULL );

  00008	8b 5c 24 14	 mov	 ebx, DWORD PTR _fFakeParts$[esp+12]
  0000c	85 db		 test	 ebx, ebx
  0000e	74 16		 je	 SHORT $L278227
  00010	8d 04 7f	 lea	 eax, DWORD PTR [edi+edi*2]
  00013	8b 94 86 08 0c
	00 00		 mov	 edx, DWORD PTR [esi+eax*4+3080]
  0001a	33 c9		 xor	 ecx, ecx
  0001c	83 fa ff	 cmp	 edx, -1
  0001f	0f 95 c1	 setne	 cl
  00022	8b c1		 mov	 eax, ecx
  00024	eb 62		 jmp	 SHORT $L278228
$L278227:
  00026	8b 8e 98 0b 00
	00		 mov	 ecx, DWORD PTR [esi+2968]
  0002c	85 c9		 test	 ecx, ecx
  0002e	74 4f		 je	 SHORT $L278244
  00030	8b 86 9c 0b 00
	00		 mov	 eax, DWORD PTR [esi+2972]
  00036	8b d0		 mov	 edx, eax
  00038	2b d1		 sub	 edx, ecx
  0003a	3b fa		 cmp	 edi, edx
  0003c	73 29		 jae	 SHORT $L278246
  0003e	8b 86 94 0b 00
	00		 mov	 eax, DWORD PTR [esi+2964]
  00044	03 cf		 add	 ecx, edi
  00046	8b 04 88	 mov	 eax, DWORD PTR [eax+ecx*4]
  00049	83 f8 ff	 cmp	 eax, -1
  0004c	74 31		 je	 SHORT $L278244
  0004e	8b 8e a0 0b 00
	00		 mov	 ecx, DWORD PTR [esi+2976]
  00054	69 c0 b8 00 00
	00		 imul	 eax, 184		; 000000b8H
  0005a	03 c1		 add	 eax, ecx
  0005c	8b 48 0c	 mov	 ecx, DWORD PTR [eax+12]
  0005f	f7 d9		 neg	 ecx
  00061	1b c9		 sbb	 ecx, ecx
  00063	23 c8		 and	 ecx, eax
  00065	eb 1a		 jmp	 SHORT $L278243
$L278246:
  00067	8b 8e 98 0b 00
	00		 mov	 ecx, DWORD PTR [esi+2968]
  0006d	57		 push	 edi
  0006e	2b c1		 sub	 eax, ecx
  00070	50		 push	 eax
  00071	51		 push	 ecx
  00072	68 00 00 00 00	 push	 OFFSET FLAT:??_C@_0BF@OJMCJNHH@GETEQUIP?1?1?$CFd?0?5?$CFd?0?5?$CFd?$AA@
  00077	e8 00 00 00 00	 call	 ?WriteError@@YAXPBDZZ	; WriteError
  0007c	83 c4 10	 add	 esp, 16			; 00000010H
$L278244:
  0007f	33 c9		 xor	 ecx, ecx
$L278243:
  00081	33 c0		 xor	 eax, eax
  00083	85 c9		 test	 ecx, ecx
  00085	0f 95 c0	 setne	 al
$L278228:

; 1961 : 		if( bEquip )

  00088	85 c0		 test	 eax, eax
  0008a	0f 84 3f 02 00
	00		 je	 $L269114

; 1962 : 		{
; 1963 : 			pItemElem = NULL;			pItemProp = NULL;

  00090	33 ed		 xor	 ebp, ebp

; 1964 : 			
; 1965 : 			//    .
; 1966 : 			if( !fFakeParts )	//  .

  00092	85 db		 test	 ebx, ebx
  00094	0f 85 23 01 00
	00		 jne	 $L269115

; 1967 : 			{
; 1968 : 				pItemElem	= m_Inventory.GetEquip( i );

  0009a	8b 8e 98 0b 00
	00		 mov	 ecx, DWORD PTR [esi+2968]
  000a0	85 c9		 test	 ecx, ecx
  000a2	0f 84 b8 00 00
	00		 je	 $L278527
  000a8	8b 86 9c 0b 00
	00		 mov	 eax, DWORD PTR [esi+2972]
  000ae	8b d0		 mov	 edx, eax
  000b0	2b d1		 sub	 edx, ecx
  000b2	3b fa		 cmp	 edi, edx
  000b4	0f 83 ce 00 00
	00		 jae	 $L278275
  000ba	8b 86 94 0b 00
	00		 mov	 eax, DWORD PTR [esi+2964]
  000c0	03 cf		 add	 ecx, edi
  000c2	8b 04 88	 mov	 eax, DWORD PTR [eax+ecx*4]
  000c5	83 f8 ff	 cmp	 eax, -1
  000c8	75 04		 jne	 SHORT $L278279
  000ca	33 c0		 xor	 eax, eax
  000cc	eb 19		 jmp	 SHORT $L278281
$L278279:
  000ce	8b ae a0 0b 00
	00		 mov	 ebp, DWORD PTR [esi+2976]
  000d4	69 c0 b8 00 00
	00		 imul	 eax, 184		; 000000b8H
  000da	03 c5		 add	 eax, ebp
  000dc	8b c8		 mov	 ecx, eax
  000de	8b 41 0c	 mov	 eax, DWORD PTR [ecx+12]
  000e1	f7 d8		 neg	 eax
  000e3	1b c0		 sbb	 eax, eax
  000e5	23 c1		 and	 eax, ecx
$L278281:

; 1969 : 				if( NULL != pItemElem )

  000e7	85 c0		 test	 eax, eax
  000e9	8b e8		 mov	 ebp, eax
  000eb	74 73		 je	 SHORT $L278527

; 1970 : 					pItemProp	= pItemElem->GetProp();	

  000ed	8b 40 0c	 mov	 eax, DWORD PTR [eax+12]
  000f0	85 c0		 test	 eax, eax
  000f2	8b 0d 5c 02 00
	00		 mov	 ecx, DWORD PTR ?prj@@3VCProject@@A+604
  000f8	0f 8c a4 00 00
	00		 jl	 $L278337
  000fe	3b c1		 cmp	 eax, ecx
  00100	0f 8d 9c 00 00
	00		 jge	 $L278337
  00106	0f 82 cf 00 00
	00		 jb	 $L278390
$L278535:
  0010c	33 c0		 xor	 eax, eax

; 1994 : 			{
; 1995 : 				pItemProp	= prj.GetItemProp( m_aEquipInfo[i].dwId );

$L278389:
  0010e	8b d8		 mov	 ebx, eax

; 1996 : 			}
; 1997 : 
; 1998 : 			
; 1999 : 				
; 2000 : 			if( ( pItemProp != NULL && pItemProp->dwID > 0 && 
; 2001 : 				( pItemProp->dwParts == i || pItemProp->dwPartsub == i || 
; 2002 : 				  (pItemProp->dwParts == PARTS_RWEAPON && i == PARTS_LWEAPON) )		// RWEAPON LWEAPON  .
; 2003 : 				) &&
; 2004 : 				( fFakeParts || m_Inventory.IsEquip( pItemElem->m_dwObjId ) ) )

  00110	85 db		 test	 ebx, ebx
  00112	74 4c		 je	 SHORT $L278527
  00114	8b 13		 mov	 edx, DWORD PTR [ebx]
  00116	85 d2		 test	 edx, edx
  00118	76 46		 jbe	 SHORT $L278527
  0011a	8b 83 a8 00 00
	00		 mov	 eax, DWORD PTR [ebx+168]
  00120	3b c7		 cmp	 eax, edi
  00122	74 12		 je	 SHORT $L269119
  00124	39 bb ac 00 00
	00		 cmp	 DWORD PTR [ebx+172], edi
  0012a	74 0a		 je	 SHORT $L269119
  0012c	83 f8 0a	 cmp	 eax, 10			; 0000000aH
  0012f	75 2f		 jne	 SHORT $L278527
  00131	83 ff 09	 cmp	 edi, 9
  00134	75 2a		 jne	 SHORT $L278527
$L269119:
  00136	8b 44 24 14	 mov	 eax, DWORD PTR _fFakeParts$[esp+12]
  0013a	85 c0		 test	 eax, eax
  0013c	0f 85 e4 00 00
	00		 jne	 $L269120
  00142	8b 8e a0 0b 00
	00		 mov	 ecx, DWORD PTR [esi+2976]
  00148	85 c9		 test	 ecx, ecx
  0014a	8b 45 04	 mov	 eax, DWORD PTR [ebp+4]
  0014d	0f 85 b1 00 00
	00		 jne	 $L278395
  00153	68 00 00 00 00	 push	 OFFSET FLAT:??_C@_0N@GELFDHNG@CONTAINER?1?10?$AA@
  00158	e8 00 00 00 00	 call	 ?WriteError@@YAXPBDZZ	; WriteError
  0015d	83 c4 04	 add	 esp, 4
$L278527:

; 2044 : 			{
; 2045 : 				WriteLog( "RedoEquip(): Illegal dwParts, %s, %d", m_szName, i );

  00160	57		 push	 edi
  00161	8d 86 90 16 00
	00		 lea	 eax, DWORD PTR [esi+5776]
  00167	50		 push	 eax
  00168	68 00 00 00 00	 push	 OFFSET FLAT:??_C@_0CF@GFJJIKHF@RedoEquip?$CI?$CJ?3?5Illegal?5dwParts?0?5?$CFs@
  0016d	e8 00 00 00 00	 call	 ?WriteLog@@YAXPBDZZ	; WriteLog

; 2046 : 				m_aEquipInfo[i].dwId	= NULL_ID;

  00172	8d 0c 7f	 lea	 ecx, DWORD PTR [edi+edi*2]
  00175	83 c4 0c	 add	 esp, 12			; 0000000cH
  00178	c7 84 8e 08 0c
	00 00 ff ff ff
	ff		 mov	 DWORD PTR [esi+ecx*4+3080], -1

; 2047 : 			}
; 2048 : 		}
; 2049 : 		else 

  00183	e9 c3 01 00 00	 jmp	 $L269112

; 1967 : 			{
; 1968 : 				pItemElem	= m_Inventory.GetEquip( i );

$L278275:
  00188	8b 8e 98 0b 00
	00		 mov	 ecx, DWORD PTR [esi+2968]
  0018e	57		 push	 edi
  0018f	2b c1		 sub	 eax, ecx
  00191	50		 push	 eax
  00192	51		 push	 ecx
  00193	68 00 00 00 00	 push	 OFFSET FLAT:??_C@_0BF@OJMCJNHH@GETEQUIP?1?1?$CFd?0?5?$CFd?0?5?$CFd?$AA@
  00198	e8 00 00 00 00	 call	 ?WriteError@@YAXPBDZZ	; WriteError
  0019d	83 c4 10	 add	 esp, 16			; 00000010H
  001a0	eb be		 jmp	 SHORT $L278527

; 1970 : 					pItemProp	= pItemElem->GetProp();	

$L278337:
  001a2	50		 push	 eax
  001a3	51		 push	 ecx
  001a4	6a 00		 push	 0
  001a6	68 00 00 00 00	 push	 OFFSET FLAT:??_C@_0BI@BEIFNGEL@GetItemProp?5range_error?$AA@
  001ab	68 00 00 00 00	 push	 OFFSET FLAT:??_C@_0BM@HMFGHCP@?$CFs?5min?3?$CFd?0?5max?3?$CFd?0?5index?3?$CFd?$AA@
  001b0	e8 00 00 00 00	 call	 ?Error@@YAPBDPBDZZ	; Error
  001b5	83 c4 14	 add	 esp, 20			; 00000014H

; 1971 : 
; 1972 : #ifdef __WORLDSERVER
; 1973 : #ifdef __TESTSERVER
; 1974 : 				if( pItemProp )
; 1975 : 				{
; 1976 : 					if( pItemProp->dwParts == i || pItemProp->dwPartsub == i || 
; 1977 : 						( pItemProp->dwParts == PARTS_RWEAPON && i == PARTS_LWEAPON ) )
; 1978 : 					{
; 1979 : 					}
; 1980 : 					else
; 1981 : 					{
; 1982 : 						WriteError( "PARTS//%s//%d", GetName(), i );
; 1983 : 						CItemElem itemElem;
; 1984 : 						itemElem	= *pItemElem;
; 1985 : 						RemoveItemId( pItemElem->m_dwObjId );
; 1986 : 						AddItem( &itemElem );
; 1987 : 						continue;
; 1988 : 					}
; 1989 : 				}
; 1990 : #endif	// __TESTSERVER
; 1991 : #endif	// __WORLDSERVER
; 1992 : 			}
; 1993 : 			else

  001b8	e9 4f ff ff ff	 jmp	 $L278535
$L269115:

; 1994 : 			{
; 1995 : 				pItemProp	= prj.GetItemProp( m_aEquipInfo[i].dwId );

  001bd	8b 0d 5c 02 00
	00		 mov	 ecx, DWORD PTR ?prj@@3VCProject@@A+604
  001c3	8d 14 7f	 lea	 edx, DWORD PTR [edi+edi*2]
  001c6	8b 84 96 08 0c
	00 00		 mov	 eax, DWORD PTR [esi+edx*4+3080]
  001cd	85 c0		 test	 eax, eax
  001cf	7c 18		 jl	 SHORT $L278378
  001d1	3b c1		 cmp	 eax, ecx
  001d3	7d 14		 jge	 SHORT $L278378
  001d5	0f 83 31 ff ff
	ff		 jae	 $L278535
$L278390:
  001db	8b 0d 4c 02 00
	00		 mov	 ecx, DWORD PTR ?prj@@3VCProject@@A+588
  001e1	8b 04 81	 mov	 eax, DWORD PTR [ecx+eax*4]
  001e4	e9 25 ff ff ff	 jmp	 $L278389
$L278378:
  001e9	50		 push	 eax
  001ea	51		 push	 ecx
  001eb	6a 00		 push	 0
  001ed	68 00 00 00 00	 push	 OFFSET FLAT:??_C@_0BI@BEIFNGEL@GetItemProp?5range_error?$AA@
  001f2	68 00 00 00 00	 push	 OFFSET FLAT:??_C@_0BM@HMFGHCP@?$CFs?5min?3?$CFd?0?5max?3?$CFd?0?5index?3?$CFd?$AA@
  001f7	e8 00 00 00 00	 call	 ?Error@@YAPBDPBDZZ	; Error
  001fc	83 c4 14	 add	 esp, 20			; 00000014H

; 1996 : 			}
; 1997 : 
; 1998 : 			
; 1999 : 				
; 2000 : 			if( ( pItemProp != NULL && pItemProp->dwID > 0 && 
; 2001 : 				( pItemProp->dwParts == i || pItemProp->dwPartsub == i || 
; 2002 : 				  (pItemProp->dwParts == PARTS_RWEAPON && i == PARTS_LWEAPON) )		// RWEAPON LWEAPON  .
; 2003 : 				) &&
; 2004 : 				( fFakeParts || m_Inventory.IsEquip( pItemElem->m_dwObjId ) ) )

  001ff	e9 5c ff ff ff	 jmp	 $L278527
$L278395:
  00204	3b 86 9c 0b 00
	00		 cmp	 eax, DWORD PTR [esi+2972]
  0020a	0f 83 50 ff ff
	ff		 jae	 $L278527
  00210	69 c0 b8 00 00
	00		 imul	 eax, 184		; 000000b8H
  00216	8b 44 08 08	 mov	 eax, DWORD PTR [eax+ecx+8]
  0021a	3b 86 98 0b 00
	00		 cmp	 eax, DWORD PTR [esi+2968]
  00220	0f 82 3a ff ff
	ff		 jb	 $L278527
$L269120:

; 2005 : 			{
; 2006 : 				//  
; 2007 : 				if( i == PARTS_RIDE )

  00226	83 ff 0d	 cmp	 edi, 13			; 0000000dH
  00229	75 33		 jne	 SHORT $L278533

; 2008 : 				{
; 2009 : 					if( FALSE == m_pActMover->IsFly() )	//  

  0022b	8b 8e 3c 02 00
	00		 mov	 ecx, DWORD PTR [esi+572]
  00231	8b 41 08	 mov	 eax, DWORD PTR [ecx+8]
  00234	a8 08		 test	 al, 8
  00236	75 14		 jne	 SHORT $L278407

; 2010 : 					{
; 2011 : //						WriteLog( "RedoEquip(): OBJSTAF_FLY" );
; 2012 : 						SendActMsg( OBJMSG_MODE_FLY, pItemProp->dwID, 0, 1 );	//  

  00238	85 c9		 test	 ecx, ecx
  0023a	74 10		 je	 SHORT $L278407
  0023c	8b 01		 mov	 eax, DWORD PTR [ecx]
  0023e	6a 00		 push	 0
  00240	6a 00		 push	 0
  00242	6a 01		 push	 1
  00244	6a 00		 push	 0
  00246	52		 push	 edx
  00247	6a 16		 push	 22			; 00000016H
  00249	ff 50 04	 call	 DWORD PTR [eax+4]
$L278407:

; 2013 : 					}
; 2014 : 					if( m_dwRideItemIdx == 0 )	//  ID 

  0024c	8b 86 88 16 00
	00		 mov	 eax, DWORD PTR [esi+5768]
  00252	85 c0		 test	 eax, eax
  00254	75 08		 jne	 SHORT $L278533

; 2015 : 					{
; 2016 : //						WriteLog( "RedoEquip(): m_dwRideItemIdx	= pItemProp->dwID" );
; 2017 : 						m_dwRideItemIdx	= pItemProp->dwID;	//  .

  00256	8b 0b		 mov	 ecx, DWORD PTR [ebx]
  00258	89 8e 88 16 00
	00		 mov	 DWORD PTR [esi+5768], ecx
$L278533:

; 2018 : 					}
; 2019 : 				} 
; 2020 : 				if( pItemProp->dwID == II_ARM_S_CLO_CLO_BLANK )		//   .

  0025e	81 3b f9 11 00
	00		 cmp	 DWORD PTR [ebx], 4601	; 000011f9H
  00264	75 10		 jne	 SHORT $L278534

; 2021 : 				{
; 2022 : 					if( pItemElem )		//  / ()

  00266	85 ed		 test	 ebp, ebp
  00268	74 34		 je	 SHORT $L269126

; 2023 : 						m_idGuildCloak = pItemElem->m_idGuild;

  0026a	8b 95 84 00 00
	00		 mov	 edx, DWORD PTR [ebp+132]
  00270	89 96 24 07 00
	00		 mov	 DWORD PTR [esi+1828], edx
$L278534:

; 2024 :  #ifdef __XCLOAK
; 2025 : 					m_pCloakTexture = g_GuildTexture.LoadGuildTexture( m_idGuildCloak );
; 2026 :  #endif
; 2027 : 				}
; 2028 : 				if( pItemElem )

  00276	85 ed		 test	 ebp, ebp
  00278	74 24		 je	 SHORT $L269126

; 2029 : 					m_aEquipInfo[i].nOption	= pItemElem->GetAttrOption();

  0027a	0f b6 8d 88 00
	00 00		 movzx	 ecx, BYTE PTR [ebp+136]
  00281	8b 85 8c 00 00
	00		 mov	 eax, DWORD PTR [ebp+140]
  00287	c1 e0 08	 shl	 eax, 8
  0028a	0b c1		 or	 eax, ecx
  0028c	8b 4d 70	 mov	 ecx, DWORD PTR [ebp+112]
  0028f	c1 e0 10	 shl	 eax, 16			; 00000010H
  00292	0b c1		 or	 eax, ecx
  00294	8d 94 7f 03 03
	00 00		 lea	 edx, DWORD PTR [edi+edi*2+771]
  0029b	89 04 96	 mov	 DWORD PTR [esi+edx*4], eax
$L269126:

; 2030 : 
; 2031 : 				if( bDestParam )

  0029e	8b 44 24 18	 mov	 eax, DWORD PTR _bDestParam$[esp+12]
  002a2	85 c0		 test	 eax, eax
  002a4	0f 84 a1 00 00
	00		 je	 $L269112

; 2032 : 				{
; 2033 : #ifdef 	__BLADELWEAPON0608	//	9th               
; 2034 : 					if( i != PARTS_LWEAPON )	// equiped item
; 2035 : #endif	//__BLADELWEAPON0608	//	9th               
; 2036 : 						SetDestParamEquip( pItemProp, pItemElem, TRUE );

  002aa	6a 01		 push	 1
  002ac	55		 push	 ebp
  002ad	53		 push	 ebx
  002ae	8b ce		 mov	 ecx, esi
  002b0	e8 00 00 00 00	 call	 ?SetDestParamEquip@CMover@@QAEXPAUItemProp@@PAVCItemElem@@H@Z ; CMover::SetDestParamEquip

; 2037 : #if __VER >= 9 // __ULTIMATE
; 2038 : 					if( i == PARTS_RWEAPON )

  002b5	83 ff 0a	 cmp	 edi, 10			; 0000000aH
  002b8	0f 85 8d 00 00
	00		 jne	 $L269112

; 2039 : 						prj.m_UltimateWeapon.SetDestParamUltimate( this, pItemElem, TRUE, PARTS_RWEAPON );

  002be	57		 push	 edi
  002bf	6a 01		 push	 1
  002c1	55		 push	 ebp
  002c2	56		 push	 esi
  002c3	b9 9c 91 11 00	 mov	 ecx, OFFSET FLAT:?prj@@3VCProject@@A+1151388
  002c8	e8 00 00 00 00	 call	 ?SetDestParamUltimate@CUltimateWeapon@@QAEXPAVCMover@@PAVCItemElem@@HK@Z ; CUltimateWeapon::SetDestParamUltimate

; 2040 : #endif // __ULTIMATE
; 2041 : 				}
; 2042 : 			}
; 2043 : 			else

  002cd	eb 7c		 jmp	 SHORT $L269112
$L269114:

; 2050 : 		{	//  .
; 2051 : 			if( i == PARTS_RIDE )	//    

  002cf	83 ff 0d	 cmp	 edi, 13			; 0000000dH
  002d2	75 77		 jne	 SHORT $L269112

; 2052 : 			{
; 2053 : 				if( m_pActMover->IsFly() )	// .

  002d4	8b 8e 3c 02 00
	00		 mov	 ecx, DWORD PTR [esi+572]
  002da	f6 41 08 08	 test	 BYTE PTR [ecx+8], 8
  002de	74 15		 je	 SHORT $L278422

; 2054 : 				{
; 2055 : //					WriteLog( "RedoEquip(): OBJSTAF_GROUND" );
; 2056 : 					SendActMsg( OBJMSG_MODE_GROUND, 0, 0, 1 );	//    .

  002e0	85 c9		 test	 ecx, ecx
  002e2	74 11		 je	 SHORT $L278422
  002e4	8b 11		 mov	 edx, DWORD PTR [ecx]
  002e6	6a 00		 push	 0
  002e8	6a 00		 push	 0
  002ea	6a 01		 push	 1
  002ec	6a 00		 push	 0
  002ee	6a 00		 push	 0
  002f0	6a 17		 push	 23			; 00000017H
  002f2	ff 52 04	 call	 DWORD PTR [edx+4]
$L278422:

; 2057 : 				}
; 2058 : 				if( m_dwRideItemIdx != 0 )		//   0   .

  002f5	8b 86 88 16 00
	00		 mov	 eax, DWORD PTR [esi+5768]
  002fb	85 c0		 test	 eax, eax
  002fd	74 0a		 je	 SHORT $L269134

; 2059 : 				{
; 2060 : //					WriteLog( "RedoEquip(): m_dwRideItemIdx	= 0" );
; 2061 : 					m_dwRideItemIdx		= 0;	//  0 .

  002ff	c7 86 88 16 00
	00 00 00 00 00	 mov	 DWORD PTR [esi+5768], 0
$L269134:

; 2062 : 				}
; 2063 : 				if( m_Inventory.GetEquip( i ) )

  00309	8b 96 98 0b 00
	00		 mov	 edx, DWORD PTR [esi+2968]
  0030f	85 d2		 test	 edx, edx
  00311	8d 8e 90 0b 00
	00		 lea	 ecx, DWORD PTR [esi+2960]
  00317	74 32		 je	 SHORT $L269112
  00319	8b 41 0c	 mov	 eax, DWORD PTR [ecx+12]
  0031c	8b d8		 mov	 ebx, eax
  0031e	2b da		 sub	 ebx, edx
  00320	83 fb 0d	 cmp	 ebx, 13			; 0000000dH
  00323	76 64		 jbe	 SHORT $L278442
  00325	8b 41 04	 mov	 eax, DWORD PTR [ecx+4]
  00328	8b 44 90 34	 mov	 eax, DWORD PTR [eax+edx*4+52]
  0032c	83 f8 ff	 cmp	 eax, -1
  0032f	74 1a		 je	 SHORT $L269112
  00331	8b 59 10	 mov	 ebx, DWORD PTR [ecx+16]
  00334	69 c0 b8 00 00
	00		 imul	 eax, 184		; 000000b8H
  0033a	8b 54 18 0c	 mov	 edx, DWORD PTR [eax+ebx+12]
  0033e	03 c3		 add	 eax, ebx
  00340	85 d2		 test	 edx, edx
  00342	74 07		 je	 SHORT $L269112

; 2064 : 				{
; 2065 : //					WriteLog( "RedoEquip(): pRide is not null" );
; 2066 : 					m_Inventory.UnEquip( i );

  00344	6a 0d		 push	 13			; 0000000dH
  00346	e8 00 00 00 00	 call	 ?UnEquip@?$CItemContainer@VCItemElem@@@@QAEHK@Z ; CItemContainer<CItemElem>::UnEquip
$L269112:
  0034b	47		 inc	 edi
  0034c	83 ff 1f	 cmp	 edi, 31			; 0000001fH
  0034f	0f 8c b3 fc ff
	ff		 jl	 $L278532

; 2067 : 				}
; 2068 : 			}
; 2069 : 		}
; 2070 : 	}
; 2071 : 
; 2072 : 
; 2073 : 	pItemElem	= m_Inventory.GetEquip( PARTS_RWEAPON );		//        .

  00355	8b 8e 98 0b 00
	00		 mov	 ecx, DWORD PTR [esi+2968]
  0035b	85 c9		 test	 ecx, ecx
  0035d	5d		 pop	 ebp
  0035e	5b		 pop	 ebx
  0035f	0f 84 81 00 00
	00		 je	 $L278529
  00365	8b 86 9c 0b 00
	00		 mov	 eax, DWORD PTR [esi+2972]
  0036b	8b d0		 mov	 edx, eax
  0036d	2b d1		 sub	 edx, ecx
  0036f	83 fa 0a	 cmp	 edx, 10			; 0000000aH
  00372	77 2d		 ja	 SHORT $L278470
  00374	6a 0a		 push	 10			; 0000000aH
  00376	2b c1		 sub	 eax, ecx
  00378	50		 push	 eax
  00379	51		 push	 ecx
  0037a	68 00 00 00 00	 push	 OFFSET FLAT:??_C@_0BF@OJMCJNHH@GETEQUIP?1?1?$CFd?0?5?$CFd?0?5?$CFd?$AA@
  0037f	e8 00 00 00 00	 call	 ?WriteError@@YAXPBDZZ	; WriteError
  00384	83 c4 10	 add	 esp, 16			; 00000010H
  00387	eb 5d		 jmp	 SHORT $L278529

; 2062 : 				}
; 2063 : 				if( m_Inventory.GetEquip( i ) )

$L278442:
  00389	8b 49 08	 mov	 ecx, DWORD PTR [ecx+8]
  0038c	6a 0d		 push	 13			; 0000000dH
  0038e	2b c1		 sub	 eax, ecx
  00390	50		 push	 eax
  00391	51		 push	 ecx
  00392	68 00 00 00 00	 push	 OFFSET FLAT:??_C@_0BF@OJMCJNHH@GETEQUIP?1?1?$CFd?0?5?$CFd?0?5?$CFd?$AA@
  00397	e8 00 00 00 00	 call	 ?WriteError@@YAXPBDZZ	; WriteError
  0039c	83 c4 10	 add	 esp, 16			; 00000010H
  0039f	eb aa		 jmp	 SHORT $L269112

; 2067 : 				}
; 2068 : 			}
; 2069 : 		}
; 2070 : 	}
; 2071 : 
; 2072 : 
; 2073 : 	pItemElem	= m_Inventory.GetEquip( PARTS_RWEAPON );		//        .

$L278470:
  003a1	8b 86 94 0b 00
	00		 mov	 eax, DWORD PTR [esi+2964]
  003a7	8b 44 88 28	 mov	 eax, DWORD PTR [eax+ecx*4+40]
  003ab	83 f8 ff	 cmp	 eax, -1
  003ae	74 36		 je	 SHORT $L278529
  003b0	8b 96 a0 0b 00
	00		 mov	 edx, DWORD PTR [esi+2976]
  003b6	69 c0 b8 00 00
	00		 imul	 eax, 184		; 000000b8H
  003bc	8b 4c 10 0c	 mov	 ecx, DWORD PTR [eax+edx+12]
  003c0	03 c2		 add	 eax, edx
  003c2	85 c9		 test	 ecx, ecx
  003c4	74 20		 je	 SHORT $L278529

; 2074 : 	if( pItemElem )
; 2075 : 	{
; 2076 : 		m_aEquipInfo[PARTS_RWEAPON].nOption	= pItemElem->GetAttrOption();

  003c6	0f b6 90 88 00
	00 00		 movzx	 edx, BYTE PTR [eax+136]
  003cd	8b 88 8c 00 00
	00		 mov	 ecx, DWORD PTR [eax+140]
  003d3	c1 e1 08	 shl	 ecx, 8
  003d6	0b ca		 or	 ecx, edx
  003d8	8b 50 70	 mov	 edx, DWORD PTR [eax+112]
  003db	c1 e1 10	 shl	 ecx, 16			; 00000010H
  003de	0b ca		 or	 ecx, edx
  003e0	89 8e 84 0c 00
	00		 mov	 DWORD PTR [esi+3204], ecx
$L278529:

; 2077 : 	}
; 2078 : 	pItemElem	= m_Inventory.GetEquip( PARTS_LWEAPON );

  003e6	8b 8e 98 0b 00
	00		 mov	 ecx, DWORD PTR [esi+2968]
  003ec	85 c9		 test	 ecx, ecx
  003ee	74 69		 je	 SHORT $L269137
  003f0	8b 86 9c 0b 00
	00		 mov	 eax, DWORD PTR [esi+2972]
  003f6	8b d0		 mov	 edx, eax
  003f8	2b d1		 sub	 edx, ecx
  003fa	83 fa 09	 cmp	 edx, 9
  003fd	77 15		 ja	 SHORT $L278504
  003ff	6a 09		 push	 9
  00401	2b c1		 sub	 eax, ecx
  00403	50		 push	 eax
  00404	51		 push	 ecx
  00405	68 00 00 00 00	 push	 OFFSET FLAT:??_C@_0BF@OJMCJNHH@GETEQUIP?1?1?$CFd?0?5?$CFd?0?5?$CFd?$AA@
  0040a	e8 00 00 00 00	 call	 ?WriteError@@YAXPBDZZ	; WriteError
  0040f	83 c4 10	 add	 esp, 16			; 00000010H
  00412	eb 45		 jmp	 SHORT $L269137
$L278504:
  00414	8b 86 94 0b 00
	00		 mov	 eax, DWORD PTR [esi+2964]
  0041a	8b 44 88 24	 mov	 eax, DWORD PTR [eax+ecx*4+36]
  0041e	83 f8 ff	 cmp	 eax, -1
  00421	74 36		 je	 SHORT $L269137
  00423	8b 96 a0 0b 00
	00		 mov	 edx, DWORD PTR [esi+2976]
  00429	69 c0 b8 00 00
	00		 imul	 eax, 184		; 000000b8H
  0042f	8b 4c 10 0c	 mov	 ecx, DWORD PTR [eax+edx+12]
  00433	03 c2		 add	 eax, edx
  00435	85 c9		 test	 ecx, ecx
  00437	74 20		 je	 SHORT $L269137

; 2079 : 	if( pItemElem )
; 2080 : 	{
; 2081 : 		m_aEquipInfo[PARTS_LWEAPON].nOption	= pItemElem->GetAttrOption();

  00439	0f b6 90 88 00
	00 00		 movzx	 edx, BYTE PTR [eax+136]
  00440	8b 88 8c 00 00
	00		 mov	 ecx, DWORD PTR [eax+140]
  00446	c1 e1 08	 shl	 ecx, 8
  00449	0b ca		 or	 ecx, edx
  0044b	8b 50 70	 mov	 edx, DWORD PTR [eax+112]
  0044e	c1 e1 10	 shl	 ecx, 16			; 00000010H
  00451	0b ca		 or	 ecx, edx
  00453	89 8e 78 0c 00
	00		 mov	 DWORD PTR [esi+3192], ecx
$L269137:

; 2082 : 	}
; 2083 : 
; 2084 : 	//   .
; 2085 : 	UpdateParts( fFakeParts );

  00459	8b 7c 24 0c	 mov	 edi, DWORD PTR _fFakeParts$[esp+4]
  0045d	57		 push	 edi
  0045e	8b ce		 mov	 ecx, esi
  00460	e8 00 00 00 00	 call	 ?UpdateParts@CMover@@QAEXH@Z ; CMover::UpdateParts

; 2086 : 
; 2087 : #ifdef __WORLDSERVER
; 2088 : 	InvalidEquipOff( fFakeParts );		//      

  00465	57		 push	 edi
  00466	8b ce		 mov	 ecx, esi
  00468	e8 00 00 00 00	 call	 ?InvalidEquipOff@CMover@@QAEHH@Z ; CMover::InvalidEquipOff

; 2089 : #endif
; 2090 : 
; 2091 : 	if( bDestParam )

  0046d	8b 44 24 10	 mov	 eax, DWORD PTR _bDestParam$[esp+4]
  00471	85 c0		 test	 eax, eax
  00473	74 1e		 je	 SHORT $L269138

; 2092 : 	{
; 2093 : 		int nAbilityOption	= GetSetItem();

  00475	6a 00		 push	 0
  00477	8b ce		 mov	 ecx, esi
  00479	e8 00 00 00 00	 call	 ?GetSetItem@CMover@@QAEHPAVCItemElem@@@Z ; CMover::GetSetItem

; 2094 : 		if( nAbilityOption > 0 )

  0047e	85 c0		 test	 eax, eax
  00480	7e 08		 jle	 SHORT $L269140

; 2095 : 			SetSetItemAvail( nAbilityOption );

  00482	50		 push	 eax
  00483	8b ce		 mov	 ecx, esi
  00485	e8 00 00 00 00	 call	 ?SetSetItemAvail@CMover@@QAEXH@Z ; CMover::SetSetItemAvail
$L269140:

; 2096 : 
; 2097 : 		
; 2098 : 		SetDestParamSetItem( NULL );

  0048a	6a 00		 push	 0
  0048c	8b ce		 mov	 ecx, esi
  0048e	e8 00 00 00 00	 call	 ?SetDestParamSetItem@CMover@@QAEXPAVCItemElem@@@Z ; CMover::SetDestParamSetItem
$L269138:
  00493	5f		 pop	 edi
  00494	5e		 pop	 esi

; 2099 : 	}
; 2100 : }

  00495	c2 08 00	 ret	 8
?RedoEquip@CMover@@QAEXHH@Z ENDP			; CMover::RedoEquip
_TEXT	ENDS
END
