; Listing generated by Microsoft (R) Optimizing Compiler Version 13.10.6030 

	TITLE	\Documents and Settings\test\Mes documents\Source\Virtuos_v17\Build\Program\_Common\MoverActEvent.cpp
	.386P
include listing.inc
if @Version gt 510
.model FLAT
else
_TEXT	SEGMENT PARA USE32 PUBLIC 'CODE'
_TEXT	ENDS
_DATA	SEGMENT DWORD USE32 PUBLIC 'DATA'
_DATA	ENDS
CONST	SEGMENT DWORD USE32 PUBLIC 'CONST'
CONST	ENDS
_BSS	SEGMENT DWORD USE32 PUBLIC 'BSS'
_BSS	ENDS
$$SYMBOLS	SEGMENT BYTE USE32 'DEBSYM'
$$SYMBOLS	ENDS
$$TYPES	SEGMENT BYTE USE32 'DEBTYP'
$$TYPES	ENDS
_TLS	SEGMENT DWORD USE32 PUBLIC 'TLS'
_TLS	ENDS
;	COMDAT ??_C@_0N@NAIGPEGH@OnMeleeSkill?$AA@
CONST	SEGMENT DWORD USE32 PUBLIC 'CONST'
CONST	ENDS
;	COMDAT ??_C@_05MPOCIJBL@?$CFs?9?$CFs?$AA@
CONST	SEGMENT DWORD USE32 PUBLIC 'CONST'
CONST	ENDS
;	COMDAT ??_C@_0DB@HBBPMINL@szCall?5SetCoolTime?5?3?5?$CFd?5?$CFd?$LN?$LK?E?$LD?$MA?$LL@
CONST	SEGMENT DWORD USE32 PUBLIC 'CONST'
CONST	ENDS
;	COMDAT ??_C@_0BF@MPKCELDK@CMover?3?3OnMagicSkill?$AA@
CONST	SEGMENT DWORD USE32 PUBLIC 'CONST'
CONST	ENDS
;	COMDAT ??_C@_0DO@MIGMHMLK@OnMagicSkill?5?3?5?$LN?$LK?E?$LD?G?A?$LH?S?$MA?P?$LB?b?5?$LN?G?F?P@
CONST	SEGMENT DWORD USE32 PUBLIC 'CONST'
CONST	ENDS
;	COMDAT ??_C@_0N@GPEHOKLF@OnMagicSkill?$AA@
CONST	SEGMENT DWORD USE32 PUBLIC 'CONST'
CONST	ENDS
;	COMDAT ??_C@_0BI@NKGAIBCK@OnAttackMelee_BigMuscle?$AA@
CONST	SEGMENT DWORD USE32 PUBLIC 'CONST'
CONST	ENDS
;	COMDAT ??_C@_08IKHLBNOC@OnSfxHit?$AA@
CONST	SEGMENT DWORD USE32 PUBLIC 'CONST'
CONST	ENDS
;	COMDAT ??_C@_0BD@PLELFAFG@OnAttackMelee_Krrr?$AA@
CONST	SEGMENT DWORD USE32 PUBLIC 'CONST'
CONST	ENDS
;	COMDAT ??_C@_0BC@HLPOJCHF@SI_GEN_STUNSINGLE?$AA@
CONST	SEGMENT DWORD USE32 PUBLIC 'CONST'
CONST	ENDS
;	COMDAT ??_C@_0BJ@DLBDMEGD@OnAttackMelee_Meteonyker?$AA@
CONST	SEGMENT DWORD USE32 PUBLIC 'CONST'
CONST	ENDS
;	COMDAT ??_C@_0BD@CFPFEACI@OnAttackMelee_Bear?$AA@
CONST	SEGMENT DWORD USE32 PUBLIC 'CONST'
CONST	ENDS
;	COMDAT ??_C@_0CO@HAMCEPMB@CMover?3?3OnAttackSP?5?3?5?$CFs?$MA?G?5itemPr@
CONST	SEGMENT DWORD USE32 PUBLIC 'CONST'
CONST	ENDS
;	COMDAT ??_C@_04OEDFLLKD@?$CC?$CFs?$CC?$AA@
CONST	SEGMENT DWORD USE32 PUBLIC 'CONST'
CONST	ENDS
;	COMDAT ??_C@_01DGKLNCNG@R?$AA@
CONST	SEGMENT DWORD USE32 PUBLIC 'CONST'
CONST	ENDS
;	COMDAT ??_C@_06GKBINIEJ@GROUND?$AA@
CONST	SEGMENT DWORD USE32 PUBLIC 'CONST'
CONST	ENDS
;	COMDAT ??_C@_09DPACILDJ@?$CC?$CFs?$CC?5?$CC?$CFs?$CC?$AA@
CONST	SEGMENT DWORD USE32 PUBLIC 'CONST'
CONST	ENDS
;	COMDAT ??_C@_09KHPJMIO@?$CC?$CFs?$CFs?5?$CFs?$CC?$AA@
CONST	SEGMENT DWORD USE32 PUBLIC 'CONST'
CONST	ENDS
xdata$x	SEGMENT DWORD USE32 PUBLIC 'CONST'
xdata$x	ENDS
text$AFX_COL1	SEGMENT PARA USE32 PUBLIC ''
text$AFX_COL1	ENDS
;	COMDAT ?IsMember@CParty@@QAEHK@Z
_TEXT	SEGMENT PARA USE32 PUBLIC 'CODE'
_TEXT	ENDS
;	COMDAT ?IsLeader@CParty@@QAEHK@Z
_TEXT	SEGMENT PARA USE32 PUBLIC 'CODE'
_TEXT	ENDS
;	COMDAT ?SelectMemberClear@__GuildCombatMember@CGuildCombat@@QAEXXZ
_TEXT	SEGMENT PARA USE32 PUBLIC 'CODE'
_TEXT	ENDS
;	COMDAT ??0__MINIGAME_PACKET@@QAE@GHHH@Z
_TEXT	SEGMENT PARA USE32 PUBLIC 'CODE'
_TEXT	ENDS
;	COMDAT ?Serialize@__MINIGAME_PACKET@@UAEXAAVCAr@@@Z
_TEXT	SEGMENT PARA USE32 PUBLIC 'CODE'
_TEXT	ENDS
;	COMDAT ?Serialize@__MINIGAME_EXT_PACKET@@UAEXAAVCAr@@@Z
_TEXT	SEGMENT PARA USE32 PUBLIC 'CODE'
_TEXT	ENDS
;	COMDAT ??0MINIGMAME_PRIZE_LIST@CRainbowRaceMng@@QAE@KHK@Z
_TEXT	SEGMENT PARA USE32 PUBLIC 'CODE'
_TEXT	ENDS
;	COMDAT ?RemovePlayerId2CampusId@CCampusMng@@QAEXK@Z
_TEXT	SEGMENT PARA USE32 PUBLIC 'CODE'
_TEXT	ENDS
;	COMDAT ?GetPacketSize@CBuffer2@@UAEKPAE@Z
_TEXT	SEGMENT PARA USE32 PUBLIC 'CODE'
_TEXT	ENDS
;	COMDAT ?SetHeader@CBuffer2@@UAEXK@Z
_TEXT	SEGMENT PARA USE32 PUBLIC 'CODE'
_TEXT	ENDS
;	COMDAT ??_GCBuffer2@@UAEPAXI@Z
_TEXT	SEGMENT PARA USE32 PUBLIC 'CODE'
_TEXT	ENDS
;	COMDAT ??1CBuffer2@@UAE@XZ
_TEXT	SEGMENT PARA USE32 PUBLIC 'CODE'
_TEXT	ENDS
;	COMDAT ?IsEmpty@CBufferQueue@@QAEHXZ
_TEXT	SEGMENT PARA USE32 PUBLIC 'CODE'
_TEXT	ENDS
;	COMDAT ??1CMapChild@@UAE@XZ
_TEXT	SEGMENT PARA USE32 PUBLIC 'CODE'
_TEXT	ENDS
;	COMDAT ??_GCMapChild@@UAEPAXI@Z
_TEXT	SEGMENT PARA USE32 PUBLIC 'CODE'
_TEXT	ENDS
;	COMDAT ??1?$map@KPAVCClientSock@@U?$less@K@std@@V?$allocator@U?$pair@$$CBKPAVCClientSock@@@std@@@3@@std@@QAE@XZ
_TEXT	SEGMENT PARA USE32 PUBLIC 'CODE'
_TEXT	ENDS
;	COMDAT ??1CMapChildE@@UAE@XZ
_TEXT	SEGMENT PARA USE32 PUBLIC 'CODE'
_TEXT	ENDS
;	COMDAT ??_GCMapChildE@@UAEPAXI@Z
_TEXT	SEGMENT PARA USE32 PUBLIC 'CODE'
_TEXT	ENDS
;	COMDAT ??1?$map@KPAVCClientSockE@@U?$less@K@std@@V?$allocator@U?$pair@$$CBKPAVCClientSockE@@@std@@@3@@std@@QAE@XZ
_TEXT	SEGMENT PARA USE32 PUBLIC 'CODE'
_TEXT	ENDS
;	COMDAT ?GetRecvHandle@CDPSock@@QAEPAXXZ
_TEXT	SEGMENT PARA USE32 PUBLIC 'CODE'
_TEXT	ENDS
;	COMDAT ?IsLootSendText@@YAHPAUItemProp@@@Z
_TEXT	SEGMENT PARA USE32 PUBLIC 'CODE'
_TEXT	ENDS
;	COMDAT ?OnMeleeSkill@CMover@@QAEHHH@Z
_TEXT	SEGMENT PARA USE32 PUBLIC 'CODE'
_TEXT	ENDS
;	COMDAT ?SubReferTime@CMover@@QAEXPAK0PAUItemProp@@PAUAddSkillProp@@@Z
_TEXT	SEGMENT PARA USE32 PUBLIC 'CODE'
_TEXT	ENDS
;	COMDAT ?ApplyParam@CMover@@QAEHPAVCCtrl@@PAUItemProp@@PAUAddSkillProp@@HH@Z
_TEXT	SEGMENT PARA USE32 PUBLIC 'CODE'
_TEXT	ENDS
;	COMDAT ?GetSkillProp@CMover@@UAEHPAPAUItemProp@@PAPAUAddSkillProp@@HKPBD@Z
_TEXT	SEGMENT PARA USE32 PUBLIC 'CODE'
_TEXT	ENDS
;	COMDAT ?SetCoolTime@CMover@@QAEXPAUAddSkillProp@@PBD@Z
_TEXT	SEGMENT PARA USE32 PUBLIC 'CODE'
_TEXT	ENDS
;	COMDAT ?OnMagicSkill@CMover@@QAEHHH@Z
_TEXT	SEGMENT PARA USE32 PUBLIC 'CODE'
_TEXT	ENDS
;	COMDAT ?OnAttackRange@CMover@@QAEHXZ
_TEXT	SEGMENT PARA USE32 PUBLIC 'CODE'
_TEXT	ENDS
;	COMDAT ?OnAttackMagic@CMover@@QAEHXZ
_TEXT	SEGMENT PARA USE32 PUBLIC 'CODE'
_TEXT	ENDS
;	COMDAT ?OnAttackMelee_ClockWorks@CMover@@QAEXKPAV1@@Z
_TEXT	SEGMENT PARA USE32 PUBLIC 'CODE'
_TEXT	ENDS
;	COMDAT ?OnAttackMelee_BigMuscle@CMover@@QAEXKPAV1@@Z
_TEXT	SEGMENT PARA USE32 PUBLIC 'CODE'
_TEXT	ENDS
;	COMDAT ?OnAttackMelee_Krrr@CMover@@QAEXKPAV1@@Z
_TEXT	SEGMENT PARA USE32 PUBLIC 'CODE'
_TEXT	ENDS
;	COMDAT ?OnAttackMelee_Meteonyker@CMover@@QAEXKPAV1@@Z
_TEXT	SEGMENT PARA USE32 PUBLIC 'CODE'
_TEXT	ENDS
;	COMDAT ?OnAttackMelee_Bear@CMover@@QAEXKPAV1@@Z
_TEXT	SEGMENT PARA USE32 PUBLIC 'CODE'
_TEXT	ENDS
;	COMDAT ?OnDamage@CMover@@QAEHHKPAV1@PBUD3DXVECTOR3@@K@Z
_TEXT	SEGMENT PARA USE32 PUBLIC 'CODE'
_TEXT	ENDS
;	COMDAT ?OnAttackMelee@CMover@@QAEHKPAV1@@Z
_TEXT	SEGMENT PARA USE32 PUBLIC 'CODE'
_TEXT	ENDS
;	COMDAT ?OnAttackMeleeContinue@CMover@@QAEHK@Z
_TEXT	SEGMENT PARA USE32 PUBLIC 'CODE'
_TEXT	ENDS
;	COMDAT ?OnAttackSP@CMover@@QAEHXZ
_TEXT	SEGMENT PARA USE32 PUBLIC 'CODE'
_TEXT	ENDS
;	COMDAT ?OnActDrop@CMover@@QAEXXZ
_TEXT	SEGMENT PARA USE32 PUBLIC 'CODE'
_TEXT	ENDS
;	COMDAT ?OnActCollision@CMover@@QAEXXZ
_TEXT	SEGMENT PARA USE32 PUBLIC 'CODE'
_TEXT	ENDS
;	COMDAT ?OnActEndMeleeSkill@CMover@@QAEXXZ
_TEXT	SEGMENT PARA USE32 PUBLIC 'CODE'
_TEXT	ENDS
;	COMDAT ?OnActEndMagicSkill@CMover@@QAEXXZ
_TEXT	SEGMENT PARA USE32 PUBLIC 'CODE'
_TEXT	ENDS
;	COMDAT ?OnActEndJump4@CMover@@QAEXXZ
_TEXT	SEGMENT PARA USE32 PUBLIC 'CODE'
_TEXT	ENDS
;	COMDAT ?OnActLanding@CMover@@QAEXXZ
_TEXT	SEGMENT PARA USE32 PUBLIC 'CODE'
_TEXT	ENDS
;	COMDAT ?OnActFMove@CMover@@QAEXXZ
_TEXT	SEGMENT PARA USE32 PUBLIC 'CODE'
_TEXT	ENDS
;	COMDAT ?OnActIALanding@CMover@@QAEXPAVCObj@@ABUD3DXVECTOR3@@@Z
_TEXT	SEGMENT PARA USE32 PUBLIC 'CODE'
_TEXT	ENDS
;	COMDAT ?OnAttackStart@CMover@@QAEXPAV1@W4OBJMSG@@@Z
_TEXT	SEGMENT PARA USE32 PUBLIC 'CODE'
_TEXT	ENDS
;	COMDAT ?RemoveInvisible@CMover@@QAEXXZ
_TEXT	SEGMENT PARA USE32 PUBLIC 'CODE'
_TEXT	ENDS
;	COMDAT ?IsLoot@CMover@@QAEHPAVCItem@@H@Z
_TEXT	SEGMENT PARA USE32 PUBLIC 'CODE'
_TEXT	ENDS
;	COMDAT ?SubLootDropMobSingle@CMover@@QAEHPAVCItem@@@Z
_TEXT	SEGMENT PARA USE32 PUBLIC 'CODE'
_TEXT	ENDS
;	COMDAT ?SubLootDropMobParty@CMover@@QAEHPAVCItem@@PAVCParty@@@Z
_TEXT	SEGMENT PARA USE32 PUBLIC 'CODE'
_TEXT	ENDS
;	COMDAT ?SubLootDropMob@CMover@@QAEHPAVCItem@@@Z
_TEXT	SEGMENT PARA USE32 PUBLIC 'CODE'
_TEXT	ENDS
;	COMDAT ?SubLootDropNotMob@CMover@@QAEHPAVCItem@@@Z
_TEXT	SEGMENT PARA USE32 PUBLIC 'CODE'
_TEXT	ENDS
;	COMDAT ?DoLoot@CMover@@QAEHPAVCItem@@@Z
_TEXT	SEGMENT PARA USE32 PUBLIC 'CODE'
_TEXT	ENDS
;	COMDAT ?compare@?$basic_string@DU?$char_traits@D@std@@V?$allocator@D@2@@std@@QBEHABV12@@Z
_TEXT	SEGMENT PARA USE32 PUBLIC 'CODE'
_TEXT	ENDS
;	COMDAT ?IsFull@?$CStack@K@@QAEHXZ
_TEXT	SEGMENT PARA USE32 PUBLIC 'CODE'
_TEXT	ENDS
;	COMDAT ??A?$map@KPAVCCtrl@@U?$less@K@std@@V?$allocator@U?$pair@$$CBKPAVCCtrl@@@std@@@3@@std@@QAEAAPAVCCtrl@@ABK@Z
_TEXT	SEGMENT PARA USE32 PUBLIC 'CODE'
_TEXT	ENDS
;	COMDAT ??0?$pair@KPAVCCtrl@@@std@@QAE@ABKABQAVCCtrl@@@Z
_TEXT	SEGMENT PARA USE32 PUBLIC 'CODE'
_TEXT	ENDS
;	COMDAT ?GetMax@?$CItemContainer@VCItemElem@@@@QAEHXZ
_TEXT	SEGMENT PARA USE32 PUBLIC 'CODE'
_TEXT	ENDS
;	COMDAT ??0?$deque@PAUtagACTMSG@@V?$allocator@PAUtagACTMSG@@@std@@@std@@QAE@XZ
_TEXT	SEGMENT PARA USE32 PUBLIC 'CODE'
_TEXT	ENDS
;	COMDAT ??1?$deque@PAUtagACTMSG@@V?$allocator@PAUtagACTMSG@@@std@@@std@@QAE@XZ
_TEXT	SEGMENT PARA USE32 PUBLIC 'CODE'
_TEXT	ENDS
;	COMDAT ?begin@?$deque@PAUtagACTMSG@@V?$allocator@PAUtagACTMSG@@@std@@@std@@QAE?AViterator@12@XZ
_TEXT	SEGMENT PARA USE32 PUBLIC 'CODE'
_TEXT	ENDS
;	COMDAT ?end@?$deque@PAUtagACTMSG@@V?$allocator@PAUtagACTMSG@@@std@@@std@@QAE?AViterator@12@XZ
_TEXT	SEGMENT PARA USE32 PUBLIC 'CODE'
_TEXT	ENDS
;	COMDAT ?empty@?$deque@PAUtagACTMSG@@V?$allocator@PAUtagACTMSG@@@std@@@std@@QBE_NXZ
_TEXT	SEGMENT PARA USE32 PUBLIC 'CODE'
_TEXT	ENDS
;	COMDAT ?clear@?$deque@PAUtagACTMSG@@V?$allocator@PAUtagACTMSG@@@std@@@std@@QAEXXZ
_TEXT	SEGMENT PARA USE32 PUBLIC 'CODE'
_TEXT	ENDS
;	COMDAT ??0?$deque@PAUtagMAGICATKMSG@@V?$allocator@PAUtagMAGICATKMSG@@@std@@@std@@QAE@XZ
_TEXT	SEGMENT PARA USE32 PUBLIC 'CODE'
_TEXT	ENDS
;	COMDAT ??1?$deque@PAUtagMAGICATKMSG@@V?$allocator@PAUtagMAGICATKMSG@@@std@@@std@@QAE@XZ
_TEXT	SEGMENT PARA USE32 PUBLIC 'CODE'
_TEXT	ENDS
;	COMDAT ?begin@?$deque@PAUtagMAGICATKMSG@@V?$allocator@PAUtagMAGICATKMSG@@@std@@@std@@QAE?AViterator@12@XZ
_TEXT	SEGMENT PARA USE32 PUBLIC 'CODE'
_TEXT	ENDS
;	COMDAT ?end@?$deque@PAUtagMAGICATKMSG@@V?$allocator@PAUtagMAGICATKMSG@@@std@@@std@@QAE?AViterator@12@XZ
_TEXT	SEGMENT PARA USE32 PUBLIC 'CODE'
_TEXT	ENDS
;	COMDAT ?empty@?$deque@PAUtagMAGICATKMSG@@V?$allocator@PAUtagMAGICATKMSG@@@std@@@std@@QBE_NXZ
_TEXT	SEGMENT PARA USE32 PUBLIC 'CODE'
_TEXT	ENDS
;	COMDAT ?clear@?$deque@PAUtagMAGICATKMSG@@V?$allocator@PAUtagMAGICATKMSG@@@std@@@std@@QAEXXZ
_TEXT	SEGMENT PARA USE32 PUBLIC 'CODE'
_TEXT	ENDS
;	COMDAT ??Diterator@?$deque@PAUtagACTMSG@@V?$allocator@PAUtagACTMSG@@@std@@@std@@QBEAAPAUtagACTMSG@@XZ
_TEXT	SEGMENT PARA USE32 PUBLIC 'CODE'
_TEXT	ENDS
;	COMDAT ??Eiterator@?$deque@PAUtagACTMSG@@V?$allocator@PAUtagACTMSG@@@std@@@std@@QAEAAV012@XZ
_TEXT	SEGMENT PARA USE32 PUBLIC 'CODE'
_TEXT	ENDS
;	COMDAT ??9const_iterator@?$deque@PAUtagACTMSG@@V?$allocator@PAUtagACTMSG@@@std@@@std@@QBE_NABV012@@Z
_TEXT	SEGMENT PARA USE32 PUBLIC 'CODE'
_TEXT	ENDS
;	COMDAT ??Diterator@?$deque@PAUtagMAGICATKMSG@@V?$allocator@PAUtagMAGICATKMSG@@@std@@@std@@QBEAAPAUtagMAGICATKMSG@@XZ
_TEXT	SEGMENT PARA USE32 PUBLIC 'CODE'
_TEXT	ENDS
;	COMDAT ??Eiterator@?$deque@PAUtagMAGICATKMSG@@V?$allocator@PAUtagMAGICATKMSG@@@std@@@std@@QAEAAV012@XZ
_TEXT	SEGMENT PARA USE32 PUBLIC 'CODE'
_TEXT	ENDS
;	COMDAT ??9const_iterator@?$deque@PAUtagMAGICATKMSG@@V?$allocator@PAUtagMAGICATKMSG@@@std@@@std@@QBE_NABV012@@Z
_TEXT	SEGMENT PARA USE32 PUBLIC 'CODE'
_TEXT	ENDS
;	COMDAT ?erase@?$_Tree@V?$_Tmap_traits@KU_Friend@@U?$less@K@std@@V?$allocator@U?$pair@$$CBKU_Friend@@@std@@@3@$0A@@std@@@std@@QAEIABK@Z
_TEXT	SEGMENT PARA USE32 PUBLIC 'CODE'
_TEXT	ENDS
;	COMDAT ?size@?$_Tree@V?$_Tmap_traits@KPAVCGuildMember@@U?$less@K@std@@V?$allocator@U?$pair@$$CBKPAVCGuildMember@@@std@@@3@$0A@@std@@@std@@QBEIXZ
_TEXT	SEGMENT PARA USE32 PUBLIC 'CODE'
_TEXT	ENDS
;	COMDAT ?size@?$_Tree@V?$_Tmap_traits@KPAVCGuild@@U?$less@K@std@@V?$allocator@U?$pair@$$CBKPAVCGuild@@@std@@@3@$0A@@std@@@std@@QBEIXZ
_TEXT	SEGMENT PARA USE32 PUBLIC 'CODE'
_TEXT	ENDS
;	COMDAT ?size@?$vector@PAU__JOINPLAYER@CGuildCombat@@V?$allocator@PAU__JOINPLAYER@CGuildCombat@@@std@@@std@@QBEIXZ
_TEXT	SEGMENT PARA USE32 PUBLIC 'CODE'
_TEXT	ENDS
;	COMDAT ??A?$vector@PAU__JOINPLAYER@CGuildCombat@@V?$allocator@PAU__JOINPLAYER@CGuildCombat@@@std@@@std@@QAEAAPAU__JOINPLAYER@CGuildCombat@@I@Z
_TEXT	SEGMENT PARA USE32 PUBLIC 'CODE'
_TEXT	ENDS
;	COMDAT ?clear@?$vector@PAU__JOINPLAYER@CGuildCombat@@V?$allocator@PAU__JOINPLAYER@CGuildCombat@@@std@@@std@@QAEXXZ
_TEXT	SEGMENT PARA USE32 PUBLIC 'CODE'
_TEXT	ENDS
;	COMDAT ?clear@?$list@PAU__JOINPLAYER@CGuildCombat@@V?$allocator@PAU__JOINPLAYER@CGuildCombat@@@std@@@std@@QAEXXZ
_TEXT	SEGMENT PARA USE32 PUBLIC 'CODE'
_TEXT	ENDS
;	COMDAT ?size@?$_Tree@V?$_Tmap_traits@KPAU_PlayerData@@U?$less@K@std@@V?$allocator@U?$pair@$$CBKPAU_PlayerData@@@std@@@3@$0A@@std@@@std@@QBEIXZ
_TEXT	SEGMENT PARA USE32 PUBLIC 'CODE'
_TEXT	ENDS
;	COMDAT ??0?$vector@U__SECRETROOM_MONSTER@@V?$allocator@U__SECRETROOM_MONSTER@@@std@@@std@@QAE@XZ
_TEXT	SEGMENT PARA USE32 PUBLIC 'CODE'
_TEXT	ENDS
;	COMDAT ??1?$vector@U__SECRETROOM_MONSTER@@V?$allocator@U__SECRETROOM_MONSTER@@@std@@@std@@QAE@XZ
_TEXT	SEGMENT PARA USE32 PUBLIC 'CODE'
_TEXT	ENDS
;	COMDAT ??0?$vector@V?$basic_string@DU?$char_traits@D@std@@V?$allocator@D@2@@std@@V?$allocator@V?$basic_string@DU?$char_traits@D@std@@V?$allocator@D@2@@std@@@2@@std@@QAE@XZ
_TEXT	SEGMENT PARA USE32 PUBLIC 'CODE'
_TEXT	ENDS
;	COMDAT ??1?$vector@V?$basic_string@DU?$char_traits@D@std@@V?$allocator@D@2@@std@@V?$allocator@V?$basic_string@DU?$char_traits@D@std@@V?$allocator@D@2@@std@@@2@@std@@QAE@XZ
_TEXT	SEGMENT PARA USE32 PUBLIC 'CODE'
_TEXT	ENDS
;	COMDAT ?size@?$vector@V?$basic_string@DU?$char_traits@D@std@@V?$allocator@D@2@@std@@V?$allocator@V?$basic_string@DU?$char_traits@D@std@@V?$allocator@D@2@@std@@@2@@std@@QBEIXZ
_TEXT	SEGMENT PARA USE32 PUBLIC 'CODE'
_TEXT	ENDS
;	COMDAT ??A?$vector@V?$basic_string@DU?$char_traits@D@std@@V?$allocator@D@2@@std@@V?$allocator@V?$basic_string@DU?$char_traits@D@std@@V?$allocator@D@2@@std@@@2@@std@@QAEAAV?$basic_string@DU?$char_traits@D@std@@V?$allocator@D@2@@1@I@Z
_TEXT	SEGMENT PARA USE32 PUBLIC 'CODE'
_TEXT	ENDS
;	COMDAT ?push_back@?$vector@V?$basic_string@DU?$char_traits@D@std@@V?$allocator@D@2@@std@@V?$allocator@V?$basic_string@DU?$char_traits@D@std@@V?$allocator@D@2@@std@@@2@@std@@QAEXABV?$basic_string@DU?$char_traits@D@std@@V?$allocator@D@2@@2@@Z
_TEXT	SEGMENT PARA USE32 PUBLIC 'CODE'
_TEXT	ENDS
;	COMDAT ?clear@?$vector@V?$basic_string@DU?$char_traits@D@std@@V?$allocator@D@2@@std@@V?$allocator@V?$basic_string@DU?$char_traits@D@std@@V?$allocator@D@2@@std@@@2@@std@@QAEXXZ
_TEXT	SEGMENT PARA USE32 PUBLIC 'CODE'
_TEXT	ENDS
;	COMDAT ?push_back@?$vector@UMINIGMAME_PRIZE_LIST@CRainbowRaceMng@@V?$allocator@UMINIGMAME_PRIZE_LIST@CRainbowRaceMng@@@std@@@std@@QAEXABUMINIGMAME_PRIZE_LIST@CRainbowRaceMng@@@Z
_TEXT	SEGMENT PARA USE32 PUBLIC 'CODE'
_TEXT	ENDS
;	COMDAT ?size@?$_Tree@V?$_Tmap_traits@KPAVCRainbowRace@@U?$less@K@std@@V?$allocator@U?$pair@$$CBKPAVCRainbowRace@@@std@@@3@$0A@@std@@@std@@QBEIXZ
_TEXT	SEGMENT PARA USE32 PUBLIC 'CODE'
_TEXT	ENDS
;	COMDAT ?size@?$vector@PAVCMiniGameBase@@V?$allocator@PAVCMiniGameBase@@@std@@@std@@QBEIXZ
_TEXT	SEGMENT PARA USE32 PUBLIC 'CODE'
_TEXT	ENDS
;	COMDAT ??A?$vector@PAVCMiniGameBase@@V?$allocator@PAVCMiniGameBase@@@std@@@std@@QAEAAPAVCMiniGameBase@@I@Z
_TEXT	SEGMENT PARA USE32 PUBLIC 'CODE'
_TEXT	ENDS
;	COMDAT ?size@?$vector@UGuildHouse_Furniture_Info@CGuildHouseBase@@V?$allocator@UGuildHouse_Furniture_Info@CGuildHouseBase@@@std@@@std@@QBEIXZ
_TEXT	SEGMENT PARA USE32 PUBLIC 'CODE'
_TEXT	ENDS
;	COMDAT ??A?$vector@UGuildHouse_Furniture_Info@CGuildHouseBase@@V?$allocator@UGuildHouse_Furniture_Info@CGuildHouseBase@@@std@@@std@@QAEAAUGuildHouse_Furniture_Info@CGuildHouseBase@@I@Z
_TEXT	SEGMENT PARA USE32 PUBLIC 'CODE'
_TEXT	ENDS
;	COMDAT ?empty@?$_Tree@V?$_Tmap_traits@KPAVCGuildHouseBase@@U?$less@K@std@@V?$allocator@U?$pair@$$CBKPAVCGuildHouseBase@@@std@@@3@$0A@@std@@@std@@QBE_NXZ
_TEXT	SEGMENT PARA USE32 PUBLIC 'CODE'
_TEXT	ENDS
;	COMDAT ?insert@?$_Tree@V?$_Tmap_traits@KPAVCGuildHouseBase@@U?$less@K@std@@V?$allocator@U?$pair@$$CBKPAVCGuildHouseBase@@@std@@@3@$0A@@std@@@std@@QAE?AU?$pair@Viterator@?$_Tree@V?$_Tmap_traits@KPAVCGuildHouseBase@@U?$less@K@std@@V?$allocator@U?$pair@$$CBKPAVCGuildHouseBase@@@std@@@3@$0A@@std@@@std@@_N@2@ABU?$pair@$$CBKPAVCGuildHouseBase@@@2@@Z
_TEXT	SEGMENT PARA USE32 PUBLIC 'CODE'
_TEXT	ENDS
;	COMDAT ?size@?$_Tree@V?$_Tmap_traits@KPAVCCampusMember@@U?$less@K@std@@V?$allocator@U?$pair@$$CBKPAVCCampusMember@@@std@@@3@$0A@@std@@@std@@QBEIXZ
_TEXT	SEGMENT PARA USE32 PUBLIC 'CODE'
_TEXT	ENDS
;	COMDAT ?empty@?$_Tree@V?$_Tmap_traits@KPAVCCampus@@U?$less@K@std@@V?$allocator@U?$pair@$$CBKPAVCCampus@@@std@@@3@$0A@@std@@@std@@QBE_NXZ
_TEXT	SEGMENT PARA USE32 PUBLIC 'CODE'
_TEXT	ENDS
;	COMDAT ?erase@?$_Tree@V?$_Tmap_traits@KKU?$less@K@std@@V?$allocator@U?$pair@$$CBKK@std@@@2@$0A@@std@@@std@@QAEIABK@Z
_TEXT	SEGMENT PARA USE32 PUBLIC 'CODE'
_TEXT	ENDS
;	COMDAT ??0?$map@KPAVCClientSock@@U?$less@K@std@@V?$allocator@U?$pair@$$CBKPAVCClientSock@@@std@@@3@@std@@QAE@XZ
_TEXT	SEGMENT PARA USE32 PUBLIC 'CODE'
_TEXT	ENDS
;	COMDAT ??1?$_Tree@V?$_Tmap_traits@KPAVCClientSock@@U?$less@K@std@@V?$allocator@U?$pair@$$CBKPAVCClientSock@@@std@@@3@$0A@@std@@@std@@QAE@XZ
_TEXT	SEGMENT PARA USE32 PUBLIC 'CODE'
_TEXT	ENDS
;	COMDAT ?end@?$_Tree@V?$_Tmap_traits@KPAVCClientSock@@U?$less@K@std@@V?$allocator@U?$pair@$$CBKPAVCClientSock@@@std@@@3@$0A@@std@@@std@@QAE?AViterator@12@XZ
_TEXT	SEGMENT PARA USE32 PUBLIC 'CODE'
_TEXT	ENDS
;	COMDAT ?find@?$_Tree@V?$_Tmap_traits@KPAVCClientSock@@U?$less@K@std@@V?$allocator@U?$pair@$$CBKPAVCClientSock@@@std@@@3@$0A@@std@@@std@@QAE?AViterator@12@ABK@Z
_TEXT	SEGMENT PARA USE32 PUBLIC 'CODE'
_TEXT	ENDS
;	COMDAT ??Citerator@?$_Tree@V?$_Tmap_traits@KPAVCClientSock@@U?$less@K@std@@V?$allocator@U?$pair@$$CBKPAVCClientSock@@@std@@@3@$0A@@std@@@std@@QBEPAU?$pair@$$CBKPAVCClientSock@@@2@XZ
_TEXT	SEGMENT PARA USE32 PUBLIC 'CODE'
_TEXT	ENDS
;	COMDAT ??9const_iterator@?$_Tree@V?$_Tmap_traits@KPAVCClientSock@@U?$less@K@std@@V?$allocator@U?$pair@$$CBKPAVCClientSock@@@std@@@3@$0A@@std@@@std@@QBE_NABV012@@Z
_TEXT	SEGMENT PARA USE32 PUBLIC 'CODE'
_TEXT	ENDS
;	COMDAT ??0?$map@KPAVCClientSockE@@U?$less@K@std@@V?$allocator@U?$pair@$$CBKPAVCClientSockE@@@std@@@3@@std@@QAE@XZ
_TEXT	SEGMENT PARA USE32 PUBLIC 'CODE'
_TEXT	ENDS
;	COMDAT ??1?$_Tree@V?$_Tmap_traits@KPAVCClientSockE@@U?$less@K@std@@V?$allocator@U?$pair@$$CBKPAVCClientSockE@@@std@@@3@$0A@@std@@@std@@QAE@XZ
_TEXT	SEGMENT PARA USE32 PUBLIC 'CODE'
_TEXT	ENDS
;	COMDAT ?end@?$_Tree@V?$_Tmap_traits@KPAVCClientSockE@@U?$less@K@std@@V?$allocator@U?$pair@$$CBKPAVCClientSockE@@@std@@@3@$0A@@std@@@std@@QAE?AViterator@12@XZ
_TEXT	SEGMENT PARA USE32 PUBLIC 'CODE'
_TEXT	ENDS
;	COMDAT ?find@?$_Tree@V?$_Tmap_traits@KPAVCClientSockE@@U?$less@K@std@@V?$allocator@U?$pair@$$CBKPAVCClientSockE@@@std@@@3@$0A@@std@@@std@@QAE?AViterator@12@ABK@Z
_TEXT	SEGMENT PARA USE32 PUBLIC 'CODE'
_TEXT	ENDS
;	COMDAT ??Citerator@?$_Tree@V?$_Tmap_traits@KPAVCClientSockE@@U?$less@K@std@@V?$allocator@U?$pair@$$CBKPAVCClientSockE@@@std@@@3@$0A@@std@@@std@@QBEPAU?$pair@$$CBKPAVCClientSockE@@@2@XZ
_TEXT	SEGMENT PARA USE32 PUBLIC 'CODE'
_TEXT	ENDS
;	COMDAT ??9const_iterator@?$_Tree@V?$_Tmap_traits@KPAVCClientSockE@@U?$less@K@std@@V?$allocator@U?$pair@$$CBKPAVCClientSockE@@@std@@@3@$0A@@std@@@std@@QBE_NABV012@@Z
_TEXT	SEGMENT PARA USE32 PUBLIC 'CODE'
_TEXT	ENDS
;	COMDAT ?end@?$_Tree@V?$_Tmap_traits@KP8CDPSrvr@@AEXAAVCAr@@KKPAEK@ZU?$less@K@std@@V?$allocator@U?$pair@$$CBKP8CDPSrvr@@AEXAAVCAr@@KKPAEK@Z@std@@@4@$0A@@std@@@std@@QAE?AViterator@12@XZ
_TEXT	SEGMENT PARA USE32 PUBLIC 'CODE'
_TEXT	ENDS
;	COMDAT ?find@?$_Tree@V?$_Tmap_traits@KP8CDPSrvr@@AEXAAVCAr@@KKPAEK@ZU?$less@K@std@@V?$allocator@U?$pair@$$CBKP8CDPSrvr@@AEXAAVCAr@@KKPAEK@Z@std@@@4@$0A@@std@@@std@@QAE?AViterator@12@ABK@Z
_TEXT	SEGMENT PARA USE32 PUBLIC 'CODE'
_TEXT	ENDS
;	COMDAT ??Citerator@?$_Tree@V?$_Tmap_traits@KP8CDPSrvr@@AEXAAVCAr@@KKPAEK@ZU?$less@K@std@@V?$allocator@U?$pair@$$CBKP8CDPSrvr@@AEXAAVCAr@@KKPAEK@Z@std@@@4@$0A@@std@@@std@@QBEPAU?$pair@$$CBKP8CDPSrvr@@AEXAAVCAr@@KKPAEK@Z@2@XZ
_TEXT	SEGMENT PARA USE32 PUBLIC 'CODE'
_TEXT	ENDS
;	COMDAT ??9const_iterator@?$_Tree@V?$_Tmap_traits@KP8CDPSrvr@@AEXAAVCAr@@KKPAEK@ZU?$less@K@std@@V?$allocator@U?$pair@$$CBKP8CDPSrvr@@AEXAAVCAr@@KKPAEK@Z@std@@@4@$0A@@std@@@std@@QBE_NABV012@@Z
_TEXT	SEGMENT PARA USE32 PUBLIC 'CODE'
_TEXT	ENDS
;	COMDAT ?end@?$_Tree@V?$_Tmap_traits@KP8CDPCoreClient@@AEXAAVCAr@@KKK@ZU?$less@K@std@@V?$allocator@U?$pair@$$CBKP8CDPCoreClient@@AEXAAVCAr@@KKK@Z@std@@@4@$0A@@std@@@std@@QAE?AViterator@12@XZ
_TEXT	SEGMENT PARA USE32 PUBLIC 'CODE'
_TEXT	ENDS
;	COMDAT ?find@?$_Tree@V?$_Tmap_traits@KP8CDPCoreClient@@AEXAAVCAr@@KKK@ZU?$less@K@std@@V?$allocator@U?$pair@$$CBKP8CDPCoreClient@@AEXAAVCAr@@KKK@Z@std@@@4@$0A@@std@@@std@@QAE?AViterator@12@ABK@Z
_TEXT	SEGMENT PARA USE32 PUBLIC 'CODE'
_TEXT	ENDS
;	COMDAT ??Citerator@?$_Tree@V?$_Tmap_traits@KP8CDPCoreClient@@AEXAAVCAr@@KKK@ZU?$less@K@std@@V?$allocator@U?$pair@$$CBKP8CDPCoreClient@@AEXAAVCAr@@KKK@Z@std@@@4@$0A@@std@@@std@@QBEPAU?$pair@$$CBKP8CDPCoreClient@@AEXAAVCAr@@KKK@Z@2@XZ
_TEXT	SEGMENT PARA USE32 PUBLIC 'CODE'
_TEXT	ENDS
;	COMDAT ??9const_iterator@?$_Tree@V?$_Tmap_traits@KP8CDPCoreClient@@AEXAAVCAr@@KKK@ZU?$less@K@std@@V?$allocator@U?$pair@$$CBKP8CDPCoreClient@@AEXAAVCAr@@KKK@Z@std@@@4@$0A@@std@@@std@@QBE_NABV012@@Z
_TEXT	SEGMENT PARA USE32 PUBLIC 'CODE'
_TEXT	ENDS
;	COMDAT ?end@?$_Tree@V?$_Tmap_traits@KP8CDPDatabaseClient@@AEXAAVCAr@@KK@ZU?$less@K@std@@V?$allocator@U?$pair@$$CBKP8CDPDatabaseClient@@AEXAAVCAr@@KK@Z@std@@@4@$0A@@std@@@std@@QAE?AViterator@12@XZ
_TEXT	SEGMENT PARA USE32 PUBLIC 'CODE'
_TEXT	ENDS
;	COMDAT ?find@?$_Tree@V?$_Tmap_traits@KP8CDPDatabaseClient@@AEXAAVCAr@@KK@ZU?$less@K@std@@V?$allocator@U?$pair@$$CBKP8CDPDatabaseClient@@AEXAAVCAr@@KK@Z@std@@@4@$0A@@std@@@std@@QAE?AViterator@12@ABK@Z
_TEXT	SEGMENT PARA USE32 PUBLIC 'CODE'
_TEXT	ENDS
;	COMDAT ??Citerator@?$_Tree@V?$_Tmap_traits@KP8CDPDatabaseClient@@AEXAAVCAr@@KK@ZU?$less@K@std@@V?$allocator@U?$pair@$$CBKP8CDPDatabaseClient@@AEXAAVCAr@@KK@Z@std@@@4@$0A@@std@@@std@@QBEPAU?$pair@$$CBKP8CDPDatabaseClient@@AEXAAVCAr@@KK@Z@2@XZ
_TEXT	SEGMENT PARA USE32 PUBLIC 'CODE'
_TEXT	ENDS
;	COMDAT ??9const_iterator@?$_Tree@V?$_Tmap_traits@KP8CDPDatabaseClient@@AEXAAVCAr@@KK@ZU?$less@K@std@@V?$allocator@U?$pair@$$CBKP8CDPDatabaseClient@@AEXAAVCAr@@KK@Z@std@@@4@$0A@@std@@@std@@QBE_NABV012@@Z
_TEXT	SEGMENT PARA USE32 PUBLIC 'CODE'
_TEXT	ENDS
;	COMDAT ?compare@?$basic_string@DU?$char_traits@D@std@@V?$allocator@D@2@@std@@QBEHIIPBDI@Z
_TEXT	SEGMENT PARA USE32 PUBLIC 'CODE'
_TEXT	ENDS
;	COMDAT ??0?$allocator@V?$basic_string@DU?$char_traits@D@std@@V?$allocator@D@2@@std@@@std@@QAE@XZ
_TEXT	SEGMENT PARA USE32 PUBLIC 'CODE'
_TEXT	ENDS
;	COMDAT ?insert@?$_Tree@V?$_Tmap_traits@KPAVCCtrl@@U?$less@K@std@@V?$allocator@U?$pair@$$CBKPAVCCtrl@@@std@@@3@$0A@@std@@@std@@QAE?AViterator@12@V312@ABU?$pair@$$CBKPAVCCtrl@@@2@@Z
_TEXT	SEGMENT PARA USE32 PUBLIC 'CODE'
_TEXT	ENDS
;	COMDAT ??0?$pair@$$CBKPAVCCtrl@@@std@@QAE@ABKABQAVCCtrl@@@Z
_TEXT	SEGMENT PARA USE32 PUBLIC 'CODE'
_TEXT	ENDS
;	COMDAT ?_Tidy@?$deque@PAUtagACTMSG@@V?$allocator@PAUtagACTMSG@@@std@@@std@@IAEXXZ
_TEXT	SEGMENT PARA USE32 PUBLIC 'CODE'
_TEXT	ENDS
;	COMDAT ??0?$_Deque_val@PAUtagACTMSG@@V?$allocator@PAUtagACTMSG@@@std@@@std@@IAE@V?$allocator@PAUtagACTMSG@@@1@@Z
_TEXT	SEGMENT PARA USE32 PUBLIC 'CODE'
_TEXT	ENDS
;	COMDAT ??0?$allocator@PAUtagACTMSG@@@std@@QAE@XZ
_TEXT	SEGMENT PARA USE32 PUBLIC 'CODE'
_TEXT	ENDS
;	COMDAT ?_Tidy@?$deque@PAUtagMAGICATKMSG@@V?$allocator@PAUtagMAGICATKMSG@@@std@@@std@@IAEXXZ
_TEXT	SEGMENT PARA USE32 PUBLIC 'CODE'
_TEXT	ENDS
;	COMDAT ??0?$_Deque_val@PAUtagMAGICATKMSG@@V?$allocator@PAUtagMAGICATKMSG@@@std@@@std@@IAE@V?$allocator@PAUtagMAGICATKMSG@@@1@@Z
_TEXT	SEGMENT PARA USE32 PUBLIC 'CODE'
_TEXT	ENDS
;	COMDAT ??0?$allocator@PAUtagMAGICATKMSG@@@std@@QAE@XZ
_TEXT	SEGMENT PARA USE32 PUBLIC 'CODE'
_TEXT	ENDS
;	COMDAT ??0iterator@?$deque@PAUtagACTMSG@@V?$allocator@PAUtagACTMSG@@@std@@@std@@QAE@IPBV12@@Z
_TEXT	SEGMENT PARA USE32 PUBLIC 'CODE'
_TEXT	ENDS
;	COMDAT ??Dconst_iterator@?$deque@PAUtagACTMSG@@V?$allocator@PAUtagACTMSG@@@std@@@std@@QBEABQAUtagACTMSG@@XZ
_TEXT	SEGMENT PARA USE32 PUBLIC 'CODE'
_TEXT	ENDS
;	COMDAT ??8const_iterator@?$deque@PAUtagACTMSG@@V?$allocator@PAUtagACTMSG@@@std@@@std@@QBE_NABV012@@Z
_TEXT	SEGMENT PARA USE32 PUBLIC 'CODE'
_TEXT	ENDS
;	COMDAT ??0iterator@?$deque@PAUtagMAGICATKMSG@@V?$allocator@PAUtagMAGICATKMSG@@@std@@@std@@QAE@IPBV12@@Z
_TEXT	SEGMENT PARA USE32 PUBLIC 'CODE'
_TEXT	ENDS
;	COMDAT ??Dconst_iterator@?$deque@PAUtagMAGICATKMSG@@V?$allocator@PAUtagMAGICATKMSG@@@std@@@std@@QBEABQAUtagMAGICATKMSG@@XZ
_TEXT	SEGMENT PARA USE32 PUBLIC 'CODE'
_TEXT	ENDS
;	COMDAT ??8const_iterator@?$deque@PAUtagMAGICATKMSG@@V?$allocator@PAUtagMAGICATKMSG@@@std@@@std@@QBE_NABV012@@Z
_TEXT	SEGMENT PARA USE32 PUBLIC 'CODE'
_TEXT	ENDS
;	COMDAT ?erase@?$_Tree@V?$_Tmap_traits@KU_Friend@@U?$less@K@std@@V?$allocator@U?$pair@$$CBKU_Friend@@@std@@@3@$0A@@std@@@std@@QAE?AViterator@12@V312@0@Z
_TEXT	SEGMENT PARA USE32 PUBLIC 'CODE'
_TEXT	ENDS
;	COMDAT ?equal_range@?$_Tree@V?$_Tmap_traits@KU_Friend@@U?$less@K@std@@V?$allocator@U?$pair@$$CBKU_Friend@@@std@@@3@$0A@@std@@@std@@QAE?AU?$pair@Viterator@?$_Tree@V?$_Tmap_traits@KU_Friend@@U?$less@K@std@@V?$allocator@U?$pair@$$CBKU_Friend@@@std@@@3@$0A@@std@@@std@@V123@@2@ABK@Z
_TEXT	SEGMENT PARA USE32 PUBLIC 'CODE'
_TEXT	ENDS
;	COMDAT ?begin@?$vector@PAU__JOINPLAYER@CGuildCombat@@V?$allocator@PAU__JOINPLAYER@CGuildCombat@@@std@@@std@@QAE?AViterator@12@XZ
_TEXT	SEGMENT PARA USE32 PUBLIC 'CODE'
_TEXT	ENDS
;	COMDAT ?_Tidy@?$vector@PAU__JOINPLAYER@CGuildCombat@@V?$allocator@PAU__JOINPLAYER@CGuildCombat@@@std@@@std@@IAEXXZ
_TEXT	SEGMENT PARA USE32 PUBLIC 'CODE'
_TEXT	ENDS
;	COMDAT ?_Nextnode@?$list@PAU__JOINPLAYER@CGuildCombat@@V?$allocator@PAU__JOINPLAYER@CGuildCombat@@@std@@@std@@KAAAPAU_Node@?$_List_nod@PAU__JOINPLAYER@CGuildCombat@@V?$allocator@PAU__JOINPLAYER@CGuildCombat@@@std@@@2@PAU342@@Z
_TEXT	SEGMENT PARA USE32 PUBLIC 'CODE'
_TEXT	ENDS
;	COMDAT ?_Prevnode@?$list@PAU__JOINPLAYER@CGuildCombat@@V?$allocator@PAU__JOINPLAYER@CGuildCombat@@@std@@@std@@KAAAPAU_Node@?$_List_nod@PAU__JOINPLAYER@CGuildCombat@@V?$allocator@PAU__JOINPLAYER@CGuildCombat@@@std@@@2@PAU342@@Z
_TEXT	SEGMENT PARA USE32 PUBLIC 'CODE'
_TEXT	ENDS
;	COMDAT ?deallocate@?$allocator@U_Node@?$_List_nod@PAU__JOINPLAYER@CGuildCombat@@V?$allocator@PAU__JOINPLAYER@CGuildCombat@@@std@@@std@@@std@@QAEXPAU_Node@?$_List_nod@PAU__JOINPLAYER@CGuildCombat@@V?$allocator@PAU__JOINPLAYER@CGuildCombat@@@std@@@2@I@Z
_TEXT	SEGMENT PARA USE32 PUBLIC 'CODE'
_TEXT	ENDS
;	COMDAT ?destroy@?$allocator@U_Node@?$_List_nod@PAU__JOINPLAYER@CGuildCombat@@V?$allocator@PAU__JOINPLAYER@CGuildCombat@@@std@@@std@@@std@@QAEXPAU_Node@?$_List_nod@PAU__JOINPLAYER@CGuildCombat@@V?$allocator@PAU__JOINPLAYER@CGuildCombat@@@std@@@2@@Z
_TEXT	SEGMENT PARA USE32 PUBLIC 'CODE'
_TEXT	ENDS
;	COMDAT ?_Buy@?$vector@U__SECRETROOM_MONSTER@@V?$allocator@U__SECRETROOM_MONSTER@@@std@@@std@@IAE_NI@Z
_TEXT	SEGMENT PARA USE32 PUBLIC 'CODE'
_TEXT	ENDS
;	COMDAT ?_Tidy@?$vector@U__SECRETROOM_MONSTER@@V?$allocator@U__SECRETROOM_MONSTER@@@std@@@std@@IAEXXZ
_TEXT	SEGMENT PARA USE32 PUBLIC 'CODE'
_TEXT	ENDS
;	COMDAT ??0?$_Vector_val@U__SECRETROOM_MONSTER@@V?$allocator@U__SECRETROOM_MONSTER@@@std@@@std@@IAE@V?$allocator@U__SECRETROOM_MONSTER@@@1@@Z
_TEXT	SEGMENT PARA USE32 PUBLIC 'CODE'
_TEXT	ENDS
;	COMDAT ??0?$allocator@U__SECRETROOM_MONSTER@@@std@@QAE@XZ
_TEXT	SEGMENT PARA USE32 PUBLIC 'CODE'
_TEXT	ENDS
;	COMDAT ?capacity@?$vector@V?$basic_string@DU?$char_traits@D@std@@V?$allocator@D@2@@std@@V?$allocator@V?$basic_string@DU?$char_traits@D@std@@V?$allocator@D@2@@std@@@2@@std@@QBEIXZ
_TEXT	SEGMENT PARA USE32 PUBLIC 'CODE'
_TEXT	ENDS
;	COMDAT ?begin@?$vector@V?$basic_string@DU?$char_traits@D@std@@V?$allocator@D@2@@std@@V?$allocator@V?$basic_string@DU?$char_traits@D@std@@V?$allocator@D@2@@std@@@2@@std@@QAE?AViterator@12@XZ
_TEXT	SEGMENT PARA USE32 PUBLIC 'CODE'
_TEXT	ENDS
;	COMDAT ?end@?$vector@V?$basic_string@DU?$char_traits@D@std@@V?$allocator@D@2@@std@@V?$allocator@V?$basic_string@DU?$char_traits@D@std@@V?$allocator@D@2@@std@@@2@@std@@QAE?AViterator@12@XZ
_TEXT	SEGMENT PARA USE32 PUBLIC 'CODE'
_TEXT	ENDS
;	COMDAT ?insert@?$vector@V?$basic_string@DU?$char_traits@D@std@@V?$allocator@D@2@@std@@V?$allocator@V?$basic_string@DU?$char_traits@D@std@@V?$allocator@D@2@@std@@@2@@std@@QAE?AViterator@12@V312@ABV?$basic_string@DU?$char_traits@D@std@@V?$allocator@D@2@@2@@Z
_TEXT	SEGMENT PARA USE32 PUBLIC 'CODE'
_TEXT	ENDS
;	COMDAT ?_Buy@?$vector@V?$basic_string@DU?$char_traits@D@std@@V?$allocator@D@2@@std@@V?$allocator@V?$basic_string@DU?$char_traits@D@std@@V?$allocator@D@2@@std@@@2@@std@@IAE_NI@Z
_TEXT	SEGMENT PARA USE32 PUBLIC 'CODE'
_TEXT	ENDS
;	COMDAT ?_Tidy@?$vector@V?$basic_string@DU?$char_traits@D@std@@V?$allocator@D@2@@std@@V?$allocator@V?$basic_string@DU?$char_traits@D@std@@V?$allocator@D@2@@std@@@2@@std@@IAEXXZ
_TEXT	SEGMENT PARA USE32 PUBLIC 'CODE'
_TEXT	ENDS
;	COMDAT ?_Ufill@?$vector@V?$basic_string@DU?$char_traits@D@std@@V?$allocator@D@2@@std@@V?$allocator@V?$basic_string@DU?$char_traits@D@std@@V?$allocator@D@2@@std@@@2@@std@@IAEPAV?$basic_string@DU?$char_traits@D@std@@V?$allocator@D@2@@2@PAV32@IABV32@@Z
_TEXT	SEGMENT PARA USE32 PUBLIC 'CODE'
_TEXT	ENDS
;	COMDAT ??0?$_Vector_val@V?$basic_string@DU?$char_traits@D@std@@V?$allocator@D@2@@std@@V?$allocator@V?$basic_string@DU?$char_traits@D@std@@V?$allocator@D@2@@std@@@2@@std@@IAE@V?$allocator@V?$basic_string@DU?$char_traits@D@std@@V?$allocator@D@2@@std@@@1@@Z
_TEXT	SEGMENT PARA USE32 PUBLIC 'CODE'
_TEXT	ENDS
;	COMDAT ?capacity@?$vector@UMINIGMAME_PRIZE_LIST@CRainbowRaceMng@@V?$allocator@UMINIGMAME_PRIZE_LIST@CRainbowRaceMng@@@std@@@std@@QBEIXZ
_TEXT	SEGMENT PARA USE32 PUBLIC 'CODE'
_TEXT	ENDS
;	COMDAT ?end@?$vector@UMINIGMAME_PRIZE_LIST@CRainbowRaceMng@@V?$allocator@UMINIGMAME_PRIZE_LIST@CRainbowRaceMng@@@std@@@std@@QAE?AViterator@12@XZ
_TEXT	SEGMENT PARA USE32 PUBLIC 'CODE'
_TEXT	ENDS
;	COMDAT ?size@?$vector@UMINIGMAME_PRIZE_LIST@CRainbowRaceMng@@V?$allocator@UMINIGMAME_PRIZE_LIST@CRainbowRaceMng@@@std@@@std@@QBEIXZ
_TEXT	SEGMENT PARA USE32 PUBLIC 'CODE'
_TEXT	ENDS
;	COMDAT ?insert@?$vector@UMINIGMAME_PRIZE_LIST@CRainbowRaceMng@@V?$allocator@UMINIGMAME_PRIZE_LIST@CRainbowRaceMng@@@std@@@std@@QAE?AViterator@12@V312@ABUMINIGMAME_PRIZE_LIST@CRainbowRaceMng@@@Z
_TEXT	SEGMENT PARA USE32 PUBLIC 'CODE'
_TEXT	ENDS
;	COMDAT ?_Ufill@?$vector@UMINIGMAME_PRIZE_LIST@CRainbowRaceMng@@V?$allocator@UMINIGMAME_PRIZE_LIST@CRainbowRaceMng@@@std@@@std@@IAEPAUMINIGMAME_PRIZE_LIST@CRainbowRaceMng@@PAU34@IABU34@@Z
_TEXT	SEGMENT PARA USE32 PUBLIC 'CODE'
_TEXT	ENDS
;	COMDAT ?begin@?$vector@PAVCMiniGameBase@@V?$allocator@PAVCMiniGameBase@@@std@@@std@@QAE?AViterator@12@XZ
_TEXT	SEGMENT PARA USE32 PUBLIC 'CODE'
_TEXT	ENDS
;	COMDAT ?begin@?$vector@UGuildHouse_Furniture_Info@CGuildHouseBase@@V?$allocator@UGuildHouse_Furniture_Info@CGuildHouseBase@@@std@@@std@@QAE?AViterator@12@XZ
_TEXT	SEGMENT PARA USE32 PUBLIC 'CODE'
_TEXT	ENDS
;	COMDAT ?_Isnil@?$_Tree@V?$_Tmap_traits@KPAVCGuildHouseBase@@U?$less@K@std@@V?$allocator@U?$pair@$$CBKPAVCGuildHouseBase@@@std@@@3@$0A@@std@@@std@@KAAADPAU_Node@?$_Tree_nod@V?$_Tmap_traits@KPAVCGuildHouseBase@@U?$less@K@std@@V?$allocator@U?$pair@$$CBKPAVCGuildHouseBase@@@std@@@3@$0A@@std@@@2@@Z
_TEXT	SEGMENT PARA USE32 PUBLIC 'CODE'
_TEXT	ENDS
;	COMDAT ?_Key@?$_Tree@V?$_Tmap_traits@KPAVCGuildHouseBase@@U?$less@K@std@@V?$allocator@U?$pair@$$CBKPAVCGuildHouseBase@@@std@@@3@$0A@@std@@@std@@KAABKPAU_Node@?$_Tree_nod@V?$_Tmap_traits@KPAVCGuildHouseBase@@U?$less@K@std@@V?$allocator@U?$pair@$$CBKPAVCGuildHouseBase@@@std@@@3@$0A@@std@@@2@@Z
_TEXT	SEGMENT PARA USE32 PUBLIC 'CODE'
_TEXT	ENDS
;	COMDAT ?_Left@?$_Tree@V?$_Tmap_traits@KPAVCGuildHouseBase@@U?$less@K@std@@V?$allocator@U?$pair@$$CBKPAVCGuildHouseBase@@@std@@@3@$0A@@std@@@std@@KAAAPAU_Node@?$_Tree_nod@V?$_Tmap_traits@KPAVCGuildHouseBase@@U?$less@K@std@@V?$allocator@U?$pair@$$CBKPAVCGuildHouseBase@@@std@@@3@$0A@@std@@@2@PAU342@@Z
_TEXT	SEGMENT PARA USE32 PUBLIC 'CODE'
_TEXT	ENDS
;	COMDAT ?_Right@?$_Tree@V?$_Tmap_traits@KPAVCGuildHouseBase@@U?$less@K@std@@V?$allocator@U?$pair@$$CBKPAVCGuildHouseBase@@@std@@@3@$0A@@std@@@std@@KAAAPAU_Node@?$_Tree_nod@V?$_Tmap_traits@KPAVCGuildHouseBase@@U?$less@K@std@@V?$allocator@U?$pair@$$CBKPAVCGuildHouseBase@@@std@@@3@$0A@@std@@@2@PAU342@@Z
_TEXT	SEGMENT PARA USE32 PUBLIC 'CODE'
_TEXT	ENDS
;	COMDAT ?begin@?$_Tree@V?$_Tmap_traits@KPAVCGuildHouseBase@@U?$less@K@std@@V?$allocator@U?$pair@$$CBKPAVCGuildHouseBase@@@std@@@3@$0A@@std@@@std@@QAE?AViterator@12@XZ
_TEXT	SEGMENT PARA USE32 PUBLIC 'CODE'
_TEXT	ENDS
;	COMDAT ?size@?$_Tree@V?$_Tmap_traits@KPAVCGuildHouseBase@@U?$less@K@std@@V?$allocator@U?$pair@$$CBKPAVCGuildHouseBase@@@std@@@3@$0A@@std@@@std@@QBEIXZ
_TEXT	SEGMENT PARA USE32 PUBLIC 'CODE'
_TEXT	ENDS
;	COMDAT ?_Insert@?$_Tree@V?$_Tmap_traits@KPAVCGuildHouseBase@@U?$less@K@std@@V?$allocator@U?$pair@$$CBKPAVCGuildHouseBase@@@std@@@3@$0A@@std@@@std@@IAE?AViterator@12@_NPAU_Node@?$_Tree_nod@V?$_Tmap_traits@KPAVCGuildHouseBase@@U?$less@K@std@@V?$allocator@U?$pair@$$CBKPAVCGuildHouseBase@@@std@@@3@$0A@@std@@@2@ABU?$pair@$$CBKPAVCGuildHouseBase@@@2@@Z
_TEXT	SEGMENT PARA USE32 PUBLIC 'CODE'
_TEXT	ENDS
;	COMDAT ?_Root@?$_Tree@V?$_Tmap_traits@KPAVCGuildHouseBase@@U?$less@K@std@@V?$allocator@U?$pair@$$CBKPAVCGuildHouseBase@@@std@@@3@$0A@@std@@@std@@IAEAAPAU_Node@?$_Tree_nod@V?$_Tmap_traits@KPAVCGuildHouseBase@@U?$less@K@std@@V?$allocator@U?$pair@$$CBKPAVCGuildHouseBase@@@std@@@3@$0A@@std@@@2@XZ
_TEXT	SEGMENT PARA USE32 PUBLIC 'CODE'
_TEXT	ENDS
;	COMDAT ?_Kfn@?$_Tmap_traits@KPAVCGuildHouseBase@@U?$less@K@std@@V?$allocator@U?$pair@$$CBKPAVCGuildHouseBase@@@std@@@3@$0A@@std@@SAABKABU?$pair@$$CBKPAVCGuildHouseBase@@@2@@Z
_TEXT	SEGMENT PARA USE32 PUBLIC 'CODE'
_TEXT	ENDS
;	COMDAT ??0?$pair@Viterator@?$_Tree@V?$_Tmap_traits@KPAVCGuildHouseBase@@U?$less@K@std@@V?$allocator@U?$pair@$$CBKPAVCGuildHouseBase@@@std@@@3@$0A@@std@@@std@@_N@std@@QAE@ABViterator@?$_Tree@V?$_Tmap_traits@KPAVCGuildHouseBase@@U?$less@K@std@@V?$allocator@U?$pair@$$CBKPAVCGuildHouseBase@@@std@@@3@$0A@@std@@@1@AB_N@Z
_TEXT	SEGMENT PARA USE32 PUBLIC 'CODE'
_TEXT	ENDS
;	COMDAT ??0iterator@?$_Tree@V?$_Tmap_traits@KPAVCGuildHouseBase@@U?$less@K@std@@V?$allocator@U?$pair@$$CBKPAVCGuildHouseBase@@@std@@@3@$0A@@std@@@std@@QAE@PAU_Node@?$_Tree_nod@V?$_Tmap_traits@KPAVCGuildHouseBase@@U?$less@K@std@@V?$allocator@U?$pair@$$CBKPAVCGuildHouseBase@@@std@@@3@$0A@@std@@@2@@Z
_TEXT	SEGMENT PARA USE32 PUBLIC 'CODE'
_TEXT	ENDS
;	COMDAT ??Fiterator@?$_Tree@V?$_Tmap_traits@KPAVCGuildHouseBase@@U?$less@K@std@@V?$allocator@U?$pair@$$CBKPAVCGuildHouseBase@@@std@@@3@$0A@@std@@@std@@QAEAAV012@XZ
_TEXT	SEGMENT PARA USE32 PUBLIC 'CODE'
_TEXT	ENDS
;	COMDAT ??8const_iterator@?$_Tree@V?$_Tmap_traits@KPAVCGuildHouseBase@@U?$less@K@std@@V?$allocator@U?$pair@$$CBKPAVCGuildHouseBase@@@std@@@3@$0A@@std@@@std@@QBE_NABV012@@Z
_TEXT	SEGMENT PARA USE32 PUBLIC 'CODE'
_TEXT	ENDS
;	COMDAT ?_Mynode@const_iterator@?$_Tree@V?$_Tmap_traits@KPAVCGuildHouseBase@@U?$less@K@std@@V?$allocator@U?$pair@$$CBKPAVCGuildHouseBase@@@std@@@3@$0A@@std@@@std@@QBEPAU_Node@?$_Tree_nod@V?$_Tmap_traits@KPAVCGuildHouseBase@@U?$less@K@std@@V?$allocator@U?$pair@$$CBKPAVCGuildHouseBase@@@std@@@3@$0A@@std@@@3@XZ
_TEXT	SEGMENT PARA USE32 PUBLIC 'CODE'
_TEXT	ENDS
;	COMDAT ?size@?$_Tree@V?$_Tmap_traits@KPAVCCampus@@U?$less@K@std@@V?$allocator@U?$pair@$$CBKPAVCCampus@@@std@@@3@$0A@@std@@@std@@QBEIXZ
_TEXT	SEGMENT PARA USE32 PUBLIC 'CODE'
_TEXT	ENDS
;	COMDAT ?erase@?$_Tree@V?$_Tmap_traits@KKU?$less@K@std@@V?$allocator@U?$pair@$$CBKK@std@@@2@$0A@@std@@@std@@QAE?AViterator@12@V312@0@Z
_TEXT	SEGMENT PARA USE32 PUBLIC 'CODE'
_TEXT	ENDS
;	COMDAT ?equal_range@?$_Tree@V?$_Tmap_traits@KKU?$less@K@std@@V?$allocator@U?$pair@$$CBKK@std@@@2@$0A@@std@@@std@@QAE?AU?$pair@Viterator@?$_Tree@V?$_Tmap_traits@KKU?$less@K@std@@V?$allocator@U?$pair@$$CBKK@std@@@2@$0A@@std@@@std@@V123@@2@ABK@Z
_TEXT	SEGMENT PARA USE32 PUBLIC 'CODE'
_TEXT	ENDS
;	COMDAT ?_Key@?$_Tree@V?$_Tmap_traits@KPAVCClientSock@@U?$less@K@std@@V?$allocator@U?$pair@$$CBKPAVCClientSock@@@std@@@3@$0A@@std@@@std@@KAABKPAU_Node@?$_Tree_nod@V?$_Tmap_traits@KPAVCClientSock@@U?$less@K@std@@V?$allocator@U?$pair@$$CBKPAVCClientSock@@@std@@@3@$0A@@std@@@2@@Z
_TEXT	SEGMENT PARA USE32 PUBLIC 'CODE'
_TEXT	ENDS
;	COMDAT ??0?$_Tree@V?$_Tmap_traits@KPAVCClientSock@@U?$less@K@std@@V?$allocator@U?$pair@$$CBKPAVCClientSock@@@std@@@3@$0A@@std@@@std@@QAE@ABU?$less@K@1@ABV?$allocator@U?$pair@$$CBKPAVCClientSock@@@std@@@1@@Z
_TEXT	SEGMENT PARA USE32 PUBLIC 'CODE'
_TEXT	ENDS
;	COMDAT ?lower_bound@?$_Tree@V?$_Tmap_traits@KPAVCClientSock@@U?$less@K@std@@V?$allocator@U?$pair@$$CBKPAVCClientSock@@@std@@@3@$0A@@std@@@std@@QAE?AViterator@12@ABK@Z
_TEXT	SEGMENT PARA USE32 PUBLIC 'CODE'
_TEXT	ENDS
;	COMDAT ?_Tidy@?$_Tree@V?$_Tmap_traits@KPAVCClientSock@@U?$less@K@std@@V?$allocator@U?$pair@$$CBKPAVCClientSock@@@std@@@3@$0A@@std@@@std@@IAEXXZ
_TEXT	SEGMENT PARA USE32 PUBLIC 'CODE'
_TEXT	ENDS
;	COMDAT ??0?$allocator@U?$pair@$$CBKPAVCClientSock@@@std@@@std@@QAE@XZ
_TEXT	SEGMENT PARA USE32 PUBLIC 'CODE'
_TEXT	ENDS
;	COMDAT ??0iterator@?$_Tree@V?$_Tmap_traits@KPAVCClientSock@@U?$less@K@std@@V?$allocator@U?$pair@$$CBKPAVCClientSock@@@std@@@3@$0A@@std@@@std@@QAE@PAU_Node@?$_Tree_nod@V?$_Tmap_traits@KPAVCClientSock@@U?$less@K@std@@V?$allocator@U?$pair@$$CBKPAVCClientSock@@@std@@@3@$0A@@std@@@2@@Z
_TEXT	SEGMENT PARA USE32 PUBLIC 'CODE'
_TEXT	ENDS
;	COMDAT ??Diterator@?$_Tree@V?$_Tmap_traits@KPAVCClientSock@@U?$less@K@std@@V?$allocator@U?$pair@$$CBKPAVCClientSock@@@std@@@3@$0A@@std@@@std@@QBEAAU?$pair@$$CBKPAVCClientSock@@@2@XZ
_TEXT	SEGMENT PARA USE32 PUBLIC 'CODE'
_TEXT	ENDS
;	COMDAT ??8const_iterator@?$_Tree@V?$_Tmap_traits@KPAVCClientSock@@U?$less@K@std@@V?$allocator@U?$pair@$$CBKPAVCClientSock@@@std@@@3@$0A@@std@@@std@@QBE_NABV012@@Z
_TEXT	SEGMENT PARA USE32 PUBLIC 'CODE'
_TEXT	ENDS
;	COMDAT ?_Mynode@const_iterator@?$_Tree@V?$_Tmap_traits@KPAVCClientSock@@U?$less@K@std@@V?$allocator@U?$pair@$$CBKPAVCClientSock@@@std@@@3@$0A@@std@@@std@@QBEPAU_Node@?$_Tree_nod@V?$_Tmap_traits@KPAVCClientSock@@U?$less@K@std@@V?$allocator@U?$pair@$$CBKPAVCClientSock@@@std@@@3@$0A@@std@@@3@XZ
_TEXT	SEGMENT PARA USE32 PUBLIC 'CODE'
_TEXT	ENDS
;	COMDAT ?_Key@?$_Tree@V?$_Tmap_traits@KPAVCClientSockE@@U?$less@K@std@@V?$allocator@U?$pair@$$CBKPAVCClientSockE@@@std@@@3@$0A@@std@@@std@@KAABKPAU_Node@?$_Tree_nod@V?$_Tmap_traits@KPAVCClientSockE@@U?$less@K@std@@V?$allocator@U?$pair@$$CBKPAVCClientSockE@@@std@@@3@$0A@@std@@@2@@Z
_TEXT	SEGMENT PARA USE32 PUBLIC 'CODE'
_TEXT	ENDS
;	COMDAT ??0?$_Tree@V?$_Tmap_traits@KPAVCClientSockE@@U?$less@K@std@@V?$allocator@U?$pair@$$CBKPAVCClientSockE@@@std@@@3@$0A@@std@@@std@@QAE@ABU?$less@K@1@ABV?$allocator@U?$pair@$$CBKPAVCClientSockE@@@std@@@1@@Z
_TEXT	SEGMENT PARA USE32 PUBLIC 'CODE'
_TEXT	ENDS
;	COMDAT ?lower_bound@?$_Tree@V?$_Tmap_traits@KPAVCClientSockE@@U?$less@K@std@@V?$allocator@U?$pair@$$CBKPAVCClientSockE@@@std@@@3@$0A@@std@@@std@@QAE?AViterator@12@ABK@Z
_TEXT	SEGMENT PARA USE32 PUBLIC 'CODE'
_TEXT	ENDS
;	COMDAT ?_Tidy@?$_Tree@V?$_Tmap_traits@KPAVCClientSockE@@U?$less@K@std@@V?$allocator@U?$pair@$$CBKPAVCClientSockE@@@std@@@3@$0A@@std@@@std@@IAEXXZ
_TEXT	SEGMENT PARA USE32 PUBLIC 'CODE'
_TEXT	ENDS
;	COMDAT ??0?$allocator@U?$pair@$$CBKPAVCClientSockE@@@std@@@std@@QAE@XZ
_TEXT	SEGMENT PARA USE32 PUBLIC 'CODE'
_TEXT	ENDS
;	COMDAT ??0iterator@?$_Tree@V?$_Tmap_traits@KPAVCClientSockE@@U?$less@K@std@@V?$allocator@U?$pair@$$CBKPAVCClientSockE@@@std@@@3@$0A@@std@@@std@@QAE@PAU_Node@?$_Tree_nod@V?$_Tmap_traits@KPAVCClientSockE@@U?$less@K@std@@V?$allocator@U?$pair@$$CBKPAVCClientSockE@@@std@@@3@$0A@@std@@@2@@Z
_TEXT	SEGMENT PARA USE32 PUBLIC 'CODE'
_TEXT	ENDS
;	COMDAT ??Diterator@?$_Tree@V?$_Tmap_traits@KPAVCClientSockE@@U?$less@K@std@@V?$allocator@U?$pair@$$CBKPAVCClientSockE@@@std@@@3@$0A@@std@@@std@@QBEAAU?$pair@$$CBKPAVCClientSockE@@@2@XZ
_TEXT	SEGMENT PARA USE32 PUBLIC 'CODE'
_TEXT	ENDS
;	COMDAT ??8const_iterator@?$_Tree@V?$_Tmap_traits@KPAVCClientSockE@@U?$less@K@std@@V?$allocator@U?$pair@$$CBKPAVCClientSockE@@@std@@@3@$0A@@std@@@std@@QBE_NABV012@@Z
_TEXT	SEGMENT PARA USE32 PUBLIC 'CODE'
_TEXT	ENDS
;	COMDAT ?_Mynode@const_iterator@?$_Tree@V?$_Tmap_traits@KPAVCClientSockE@@U?$less@K@std@@V?$allocator@U?$pair@$$CBKPAVCClientSockE@@@std@@@3@$0A@@std@@@std@@QBEPAU_Node@?$_Tree_nod@V?$_Tmap_traits@KPAVCClientSockE@@U?$less@K@std@@V?$allocator@U?$pair@$$CBKPAVCClientSockE@@@std@@@3@$0A@@std@@@3@XZ
_TEXT	SEGMENT PARA USE32 PUBLIC 'CODE'
_TEXT	ENDS
;	COMDAT ?_Key@?$_Tree@V?$_Tmap_traits@KP8CDPSrvr@@AEXAAVCAr@@KKPAEK@ZU?$less@K@std@@V?$allocator@U?$pair@$$CBKP8CDPSrvr@@AEXAAVCAr@@KKPAEK@Z@std@@@4@$0A@@std@@@std@@KAABKPAU_Node@?$_Tree_nod@V?$_Tmap_traits@KP8CDPSrvr@@AEXAAVCAr@@KKPAEK@ZU?$less@K@std@@V?$allocator@U?$pair@$$CBKP8CDPSrvr@@AEXAAVCAr@@KKPAEK@Z@std@@@4@$0A@@std@@@2@@Z
_TEXT	SEGMENT PARA USE32 PUBLIC 'CODE'
_TEXT	ENDS
;	COMDAT ?lower_bound@?$_Tree@V?$_Tmap_traits@KP8CDPSrvr@@AEXAAVCAr@@KKPAEK@ZU?$less@K@std@@V?$allocator@U?$pair@$$CBKP8CDPSrvr@@AEXAAVCAr@@KKPAEK@Z@std@@@4@$0A@@std@@@std@@QAE?AViterator@12@ABK@Z
_TEXT	SEGMENT PARA USE32 PUBLIC 'CODE'
_TEXT	ENDS
;	COMDAT ??0iterator@?$_Tree@V?$_Tmap_traits@KP8CDPSrvr@@AEXAAVCAr@@KKPAEK@ZU?$less@K@std@@V?$allocator@U?$pair@$$CBKP8CDPSrvr@@AEXAAVCAr@@KKPAEK@Z@std@@@4@$0A@@std@@@std@@QAE@PAU_Node@?$_Tree_nod@V?$_Tmap_traits@KP8CDPSrvr@@AEXAAVCAr@@KKPAEK@ZU?$less@K@std@@V?$allocator@U?$pair@$$CBKP8CDPSrvr@@AEXAAVCAr@@KKPAEK@Z@std@@@4@$0A@@std@@@2@@Z
_TEXT	SEGMENT PARA USE32 PUBLIC 'CODE'
_TEXT	ENDS
;	COMDAT ??Diterator@?$_Tree@V?$_Tmap_traits@KP8CDPSrvr@@AEXAAVCAr@@KKPAEK@ZU?$less@K@std@@V?$allocator@U?$pair@$$CBKP8CDPSrvr@@AEXAAVCAr@@KKPAEK@Z@std@@@4@$0A@@std@@@std@@QBEAAU?$pair@$$CBKP8CDPSrvr@@AEXAAVCAr@@KKPAEK@Z@2@XZ
_TEXT	SEGMENT PARA USE32 PUBLIC 'CODE'
_TEXT	ENDS
;	COMDAT ??8const_iterator@?$_Tree@V?$_Tmap_traits@KP8CDPSrvr@@AEXAAVCAr@@KKPAEK@ZU?$less@K@std@@V?$allocator@U?$pair@$$CBKP8CDPSrvr@@AEXAAVCAr@@KKPAEK@Z@std@@@4@$0A@@std@@@std@@QBE_NABV012@@Z
_TEXT	SEGMENT PARA USE32 PUBLIC 'CODE'
_TEXT	ENDS
;	COMDAT ?_Mynode@const_iterator@?$_Tree@V?$_Tmap_traits@KP8CDPSrvr@@AEXAAVCAr@@KKPAEK@ZU?$less@K@std@@V?$allocator@U?$pair@$$CBKP8CDPSrvr@@AEXAAVCAr@@KKPAEK@Z@std@@@4@$0A@@std@@@std@@QBEPAU_Node@?$_Tree_nod@V?$_Tmap_traits@KP8CDPSrvr@@AEXAAVCAr@@KKPAEK@ZU?$less@K@std@@V?$allocator@U?$pair@$$CBKP8CDPSrvr@@AEXAAVCAr@@KKPAEK@Z@std@@@4@$0A@@std@@@3@XZ
_TEXT	SEGMENT PARA USE32 PUBLIC 'CODE'
_TEXT	ENDS
;	COMDAT ?_Key@?$_Tree@V?$_Tmap_traits@KP8CDPCoreClient@@AEXAAVCAr@@KKK@ZU?$less@K@std@@V?$allocator@U?$pair@$$CBKP8CDPCoreClient@@AEXAAVCAr@@KKK@Z@std@@@4@$0A@@std@@@std@@KAABKPAU_Node@?$_Tree_nod@V?$_Tmap_traits@KP8CDPCoreClient@@AEXAAVCAr@@KKK@ZU?$less@K@std@@V?$allocator@U?$pair@$$CBKP8CDPCoreClient@@AEXAAVCAr@@KKK@Z@std@@@4@$0A@@std@@@2@@Z
_TEXT	SEGMENT PARA USE32 PUBLIC 'CODE'
_TEXT	ENDS
;	COMDAT ?lower_bound@?$_Tree@V?$_Tmap_traits@KP8CDPCoreClient@@AEXAAVCAr@@KKK@ZU?$less@K@std@@V?$allocator@U?$pair@$$CBKP8CDPCoreClient@@AEXAAVCAr@@KKK@Z@std@@@4@$0A@@std@@@std@@QAE?AViterator@12@ABK@Z
_TEXT	SEGMENT PARA USE32 PUBLIC 'CODE'
_TEXT	ENDS
;	COMDAT ??0iterator@?$_Tree@V?$_Tmap_traits@KP8CDPCoreClient@@AEXAAVCAr@@KKK@ZU?$less@K@std@@V?$allocator@U?$pair@$$CBKP8CDPCoreClient@@AEXAAVCAr@@KKK@Z@std@@@4@$0A@@std@@@std@@QAE@PAU_Node@?$_Tree_nod@V?$_Tmap_traits@KP8CDPCoreClient@@AEXAAVCAr@@KKK@ZU?$less@K@std@@V?$allocator@U?$pair@$$CBKP8CDPCoreClient@@AEXAAVCAr@@KKK@Z@std@@@4@$0A@@std@@@2@@Z
_TEXT	SEGMENT PARA USE32 PUBLIC 'CODE'
_TEXT	ENDS
;	COMDAT ??Diterator@?$_Tree@V?$_Tmap_traits@KP8CDPCoreClient@@AEXAAVCAr@@KKK@ZU?$less@K@std@@V?$allocator@U?$pair@$$CBKP8CDPCoreClient@@AEXAAVCAr@@KKK@Z@std@@@4@$0A@@std@@@std@@QBEAAU?$pair@$$CBKP8CDPCoreClient@@AEXAAVCAr@@KKK@Z@2@XZ
_TEXT	SEGMENT PARA USE32 PUBLIC 'CODE'
_TEXT	ENDS
;	COMDAT ??8const_iterator@?$_Tree@V?$_Tmap_traits@KP8CDPCoreClient@@AEXAAVCAr@@KKK@ZU?$less@K@std@@V?$allocator@U?$pair@$$CBKP8CDPCoreClient@@AEXAAVCAr@@KKK@Z@std@@@4@$0A@@std@@@std@@QBE_NABV012@@Z
_TEXT	SEGMENT PARA USE32 PUBLIC 'CODE'
_TEXT	ENDS
;	COMDAT ?_Mynode@const_iterator@?$_Tree@V?$_Tmap_traits@KP8CDPCoreClient@@AEXAAVCAr@@KKK@ZU?$less@K@std@@V?$allocator@U?$pair@$$CBKP8CDPCoreClient@@AEXAAVCAr@@KKK@Z@std@@@4@$0A@@std@@@std@@QBEPAU_Node@?$_Tree_nod@V?$_Tmap_traits@KP8CDPCoreClient@@AEXAAVCAr@@KKK@ZU?$less@K@std@@V?$allocator@U?$pair@$$CBKP8CDPCoreClient@@AEXAAVCAr@@KKK@Z@std@@@4@$0A@@std@@@3@XZ
_TEXT	SEGMENT PARA USE32 PUBLIC 'CODE'
_TEXT	ENDS
;	COMDAT ?_Key@?$_Tree@V?$_Tmap_traits@KP8CDPDatabaseClient@@AEXAAVCAr@@KK@ZU?$less@K@std@@V?$allocator@U?$pair@$$CBKP8CDPDatabaseClient@@AEXAAVCAr@@KK@Z@std@@@4@$0A@@std@@@std@@KAABKPAU_Node@?$_Tree_nod@V?$_Tmap_traits@KP8CDPDatabaseClient@@AEXAAVCAr@@KK@ZU?$less@K@std@@V?$allocator@U?$pair@$$CBKP8CDPDatabaseClient@@AEXAAVCAr@@KK@Z@std@@@4@$0A@@std@@@2@@Z
_TEXT	SEGMENT PARA USE32 PUBLIC 'CODE'
_TEXT	ENDS
;	COMDAT ?lower_bound@?$_Tree@V?$_Tmap_traits@KP8CDPDatabaseClient@@AEXAAVCAr@@KK@ZU?$less@K@std@@V?$allocator@U?$pair@$$CBKP8CDPDatabaseClient@@AEXAAVCAr@@KK@Z@std@@@4@$0A@@std@@@std@@QAE?AViterator@12@ABK@Z
_TEXT	SEGMENT PARA USE32 PUBLIC 'CODE'
_TEXT	ENDS
;	COMDAT ??0iterator@?$_Tree@V?$_Tmap_traits@KP8CDPDatabaseClient@@AEXAAVCAr@@KK@ZU?$less@K@std@@V?$allocator@U?$pair@$$CBKP8CDPDatabaseClient@@AEXAAVCAr@@KK@Z@std@@@4@$0A@@std@@@std@@QAE@PAU_Node@?$_Tree_nod@V?$_Tmap_traits@KP8CDPDatabaseClient@@AEXAAVCAr@@KK@ZU?$less@K@std@@V?$allocator@U?$pair@$$CBKP8CDPDatabaseClient@@AEXAAVCAr@@KK@Z@std@@@4@$0A@@std@@@2@@Z
_TEXT	SEGMENT PARA USE32 PUBLIC 'CODE'
_TEXT	ENDS
;	COMDAT ??Diterator@?$_Tree@V?$_Tmap_traits@KP8CDPDatabaseClient@@AEXAAVCAr@@KK@ZU?$less@K@std@@V?$allocator@U?$pair@$$CBKP8CDPDatabaseClient@@AEXAAVCAr@@KK@Z@std@@@4@$0A@@std@@@std@@QBEAAU?$pair@$$CBKP8CDPDatabaseClient@@AEXAAVCAr@@KK@Z@2@XZ
_TEXT	SEGMENT PARA USE32 PUBLIC 'CODE'
_TEXT	ENDS
;	COMDAT ??8const_iterator@?$_Tree@V?$_Tmap_traits@KP8CDPDatabaseClient@@AEXAAVCAr@@KK@ZU?$less@K@std@@V?$allocator@U?$pair@$$CBKP8CDPDatabaseClient@@AEXAAVCAr@@KK@Z@std@@@4@$0A@@std@@@std@@QBE_NABV012@@Z
_TEXT	SEGMENT PARA USE32 PUBLIC 'CODE'
_TEXT	ENDS
;	COMDAT ?_Mynode@const_iterator@?$_Tree@V?$_Tmap_traits@KP8CDPDatabaseClient@@AEXAAVCAr@@KK@ZU?$less@K@std@@V?$allocator@U?$pair@$$CBKP8CDPDatabaseClient@@AEXAAVCAr@@KK@Z@std@@@4@$0A@@std@@@std@@QBEPAU_Node@?$_Tree_nod@V?$_Tmap_traits@KP8CDPDatabaseClient@@AEXAAVCAr@@KK@ZU?$less@K@std@@V?$allocator@U?$pair@$$CBKP8CDPDatabaseClient@@AEXAAVCAr@@KK@Z@std@@@4@$0A@@std@@@3@XZ
_TEXT	SEGMENT PARA USE32 PUBLIC 'CODE'
_TEXT	ENDS
;	COMDAT ??Diterator@?$vector@PAU__JOINPLAYER@CGuildCombat@@V?$allocator@PAU__JOINPLAYER@CGuildCombat@@@std@@@std@@QBEAAPAU__JOINPLAYER@CGuildCombat@@XZ
_TEXT	SEGMENT PARA USE32 PUBLIC 'CODE'
_TEXT	ENDS
;	COMDAT ??Hiterator@?$vector@PAU__JOINPLAYER@CGuildCombat@@V?$allocator@PAU__JOINPLAYER@CGuildCombat@@@std@@@std@@QBE?AV012@H@Z
_TEXT	SEGMENT PARA USE32 PUBLIC 'CODE'
_TEXT	ENDS
;	COMDAT ??Diterator@?$vector@V?$basic_string@DU?$char_traits@D@std@@V?$allocator@D@2@@std@@V?$allocator@V?$basic_string@DU?$char_traits@D@std@@V?$allocator@D@2@@std@@@2@@std@@QBEAAV?$basic_string@DU?$char_traits@D@std@@V?$allocator@D@2@@2@XZ
_TEXT	SEGMENT PARA USE32 PUBLIC 'CODE'
_TEXT	ENDS
;	COMDAT ??Hiterator@?$vector@V?$basic_string@DU?$char_traits@D@std@@V?$allocator@D@2@@std@@V?$allocator@V?$basic_string@DU?$char_traits@D@std@@V?$allocator@D@2@@std@@@2@@std@@QBE?AV012@H@Z
_TEXT	SEGMENT PARA USE32 PUBLIC 'CODE'
_TEXT	ENDS
;	COMDAT ??Diterator@?$vector@PAVCMiniGameBase@@V?$allocator@PAVCMiniGameBase@@@std@@@std@@QBEAAPAVCMiniGameBase@@XZ
_TEXT	SEGMENT PARA USE32 PUBLIC 'CODE'
_TEXT	ENDS
;	COMDAT ??Hiterator@?$vector@PAVCMiniGameBase@@V?$allocator@PAVCMiniGameBase@@@std@@@std@@QBE?AV012@H@Z
_TEXT	SEGMENT PARA USE32 PUBLIC 'CODE'
_TEXT	ENDS
;	COMDAT ??Diterator@?$vector@UGuildHouse_Furniture_Info@CGuildHouseBase@@V?$allocator@UGuildHouse_Furniture_Info@CGuildHouseBase@@@std@@@std@@QBEAAUGuildHouse_Furniture_Info@CGuildHouseBase@@XZ
_TEXT	SEGMENT PARA USE32 PUBLIC 'CODE'
_TEXT	ENDS
;	COMDAT ??Hiterator@?$vector@UGuildHouse_Furniture_Info@CGuildHouseBase@@V?$allocator@UGuildHouse_Furniture_Info@CGuildHouseBase@@@std@@@std@@QBE?AV012@H@Z
_TEXT	SEGMENT PARA USE32 PUBLIC 'CODE'
_TEXT	ENDS
;	COMDAT ??0?$allocator@V?$basic_string@DU?$char_traits@D@std@@V?$allocator@D@2@@std@@@std@@QAE@ABV01@@Z
_TEXT	SEGMENT PARA USE32 PUBLIC 'CODE'
_TEXT	ENDS
;	COMDAT ?deallocate@?$allocator@V?$basic_string@DU?$char_traits@D@std@@V?$allocator@D@2@@std@@@std@@QAEXPAV?$basic_string@DU?$char_traits@D@std@@V?$allocator@D@2@@2@I@Z
_TEXT	SEGMENT PARA USE32 PUBLIC 'CODE'
_TEXT	ENDS
;	COMDAT ?allocate@?$allocator@V?$basic_string@DU?$char_traits@D@std@@V?$allocator@D@2@@std@@@std@@QAEPAV?$basic_string@DU?$char_traits@D@std@@V?$allocator@D@2@@2@I@Z
_TEXT	SEGMENT PARA USE32 PUBLIC 'CODE'
_TEXT	ENDS
;	COMDAT ?size@?$_Tree@V?$_Tmap_traits@KPAVCCtrl@@U?$less@K@std@@V?$allocator@U?$pair@$$CBKPAVCCtrl@@@std@@@3@$0A@@std@@@std@@QBEIXZ
_TEXT	SEGMENT PARA USE32 PUBLIC 'CODE'
_TEXT	ENDS
;	COMDAT ??0iterator@?$_Tree@V?$_Tmap_traits@KPAVCCtrl@@U?$less@K@std@@V?$allocator@U?$pair@$$CBKPAVCCtrl@@@std@@@3@$0A@@std@@@std@@QAE@XZ
_TEXT	SEGMENT PARA USE32 PUBLIC 'CODE'
_TEXT	ENDS
;	COMDAT ?pop_back@?$deque@PAUtagACTMSG@@V?$allocator@PAUtagACTMSG@@@std@@@std@@QAEXXZ
_TEXT	SEGMENT PARA USE32 PUBLIC 'CODE'
_TEXT	ENDS
;	COMDAT ??0?$_Deque_map@PAUtagACTMSG@@V?$allocator@PAUtagACTMSG@@@std@@@std@@IAE@V?$allocator@PAUtagACTMSG@@@1@@Z
_TEXT	SEGMENT PARA USE32 PUBLIC 'CODE'
_TEXT	ENDS
;	COMDAT ??0?$allocator@PAUtagACTMSG@@@std@@QAE@ABV01@@Z
_TEXT	SEGMENT PARA USE32 PUBLIC 'CODE'
_TEXT	ENDS
;	COMDAT ?deallocate@?$allocator@PAUtagACTMSG@@@std@@QAEXPAPAUtagACTMSG@@I@Z
_TEXT	SEGMENT PARA USE32 PUBLIC 'CODE'
_TEXT	ENDS
;	COMDAT ?deallocate@?$allocator@PAPAUtagACTMSG@@@std@@QAEXPAPAPAUtagACTMSG@@I@Z
_TEXT	SEGMENT PARA USE32 PUBLIC 'CODE'
_TEXT	ENDS
;	COMDAT ?destroy@?$allocator@PAPAUtagACTMSG@@@std@@QAEXPAPAPAUtagACTMSG@@@Z
_TEXT	SEGMENT PARA USE32 PUBLIC 'CODE'
_TEXT	ENDS
;	COMDAT ?pop_back@?$deque@PAUtagMAGICATKMSG@@V?$allocator@PAUtagMAGICATKMSG@@@std@@@std@@QAEXXZ
_TEXT	SEGMENT PARA USE32 PUBLIC 'CODE'
_TEXT	ENDS
;	COMDAT ??0?$_Deque_map@PAUtagMAGICATKMSG@@V?$allocator@PAUtagMAGICATKMSG@@@std@@@std@@IAE@V?$allocator@PAUtagMAGICATKMSG@@@1@@Z
_TEXT	SEGMENT PARA USE32 PUBLIC 'CODE'
_TEXT	ENDS
;	COMDAT ??0?$allocator@PAUtagMAGICATKMSG@@@std@@QAE@ABV01@@Z
_TEXT	SEGMENT PARA USE32 PUBLIC 'CODE'
_TEXT	ENDS
;	COMDAT ?deallocate@?$allocator@PAUtagMAGICATKMSG@@@std@@QAEXPAPAUtagMAGICATKMSG@@I@Z
_TEXT	SEGMENT PARA USE32 PUBLIC 'CODE'
_TEXT	ENDS
;	COMDAT ?deallocate@?$allocator@PAPAUtagMAGICATKMSG@@@std@@QAEXPAPAPAUtagMAGICATKMSG@@I@Z
_TEXT	SEGMENT PARA USE32 PUBLIC 'CODE'
_TEXT	ENDS
;	COMDAT ?destroy@?$allocator@PAPAUtagMAGICATKMSG@@@std@@QAEXPAPAPAUtagMAGICATKMSG@@@Z
_TEXT	SEGMENT PARA USE32 PUBLIC 'CODE'
_TEXT	ENDS
;	COMDAT ??0const_iterator@?$deque@PAUtagACTMSG@@V?$allocator@PAUtagACTMSG@@@std@@@std@@QAE@IPBV12@@Z
_TEXT	SEGMENT PARA USE32 PUBLIC 'CODE'
_TEXT	ENDS
;	COMDAT ??0const_iterator@?$deque@PAUtagMAGICATKMSG@@V?$allocator@PAUtagMAGICATKMSG@@@std@@@std@@QAE@IPBV12@@Z
_TEXT	SEGMENT PARA USE32 PUBLIC 'CODE'
_TEXT	ENDS
;	COMDAT ?begin@?$_Tree@V?$_Tmap_traits@KU_Friend@@U?$less@K@std@@V?$allocator@U?$pair@$$CBKU_Friend@@@std@@@3@$0A@@std@@@std@@QAE?AViterator@12@XZ
_TEXT	SEGMENT PARA USE32 PUBLIC 'CODE'
_TEXT	ENDS
;	COMDAT ?end@?$_Tree@V?$_Tmap_traits@KU_Friend@@U?$less@K@std@@V?$allocator@U?$pair@$$CBKU_Friend@@@std@@@3@$0A@@std@@@std@@QAE?AViterator@12@XZ
_TEXT	SEGMENT PARA USE32 PUBLIC 'CODE'
_TEXT	ENDS
;	COMDAT ?erase@?$_Tree@V?$_Tmap_traits@KU_Friend@@U?$less@K@std@@V?$allocator@U?$pair@$$CBKU_Friend@@@std@@@3@$0A@@std@@@std@@QAE?AViterator@12@V312@@Z
_TEXT	SEGMENT PARA USE32 PUBLIC 'CODE'
_TEXT	ENDS
;	COMDAT ?clear@?$_Tree@V?$_Tmap_traits@KU_Friend@@U?$less@K@std@@V?$allocator@U?$pair@$$CBKU_Friend@@@std@@@3@$0A@@std@@@std@@QAEXXZ
_TEXT	SEGMENT PARA USE32 PUBLIC 'CODE'
_TEXT	ENDS
;	COMDAT ?lower_bound@?$_Tree@V?$_Tmap_traits@KU_Friend@@U?$less@K@std@@V?$allocator@U?$pair@$$CBKU_Friend@@@std@@@3@$0A@@std@@@std@@QAE?AViterator@12@ABK@Z
_TEXT	SEGMENT PARA USE32 PUBLIC 'CODE'
_TEXT	ENDS
;	COMDAT ?upper_bound@?$_Tree@V?$_Tmap_traits@KU_Friend@@U?$less@K@std@@V?$allocator@U?$pair@$$CBKU_Friend@@@std@@@3@$0A@@std@@@std@@QAE?AViterator@12@ABK@Z
_TEXT	SEGMENT PARA USE32 PUBLIC 'CODE'
_TEXT	ENDS
;	COMDAT ??Eiterator@?$_Tree@V?$_Tmap_traits@KU_Friend@@U?$less@K@std@@V?$allocator@U?$pair@$$CBKU_Friend@@@std@@@3@$0A@@std@@@std@@QAE?AV012@H@Z
_TEXT	SEGMENT PARA USE32 PUBLIC 'CODE'
_TEXT	ENDS
;	COMDAT ??8const_iterator@?$_Tree@V?$_Tmap_traits@KU_Friend@@U?$less@K@std@@V?$allocator@U?$pair@$$CBKU_Friend@@@std@@@3@$0A@@std@@@std@@QBE_NABV012@@Z
_TEXT	SEGMENT PARA USE32 PUBLIC 'CODE'
_TEXT	ENDS
;	COMDAT ??9const_iterator@?$_Tree@V?$_Tmap_traits@KU_Friend@@U?$less@K@std@@V?$allocator@U?$pair@$$CBKU_Friend@@@std@@@3@$0A@@std@@@std@@QBE_NABV012@@Z
_TEXT	SEGMENT PARA USE32 PUBLIC 'CODE'
_TEXT	ENDS
;	COMDAT ?_Destroy@?$vector@PAU__JOINPLAYER@CGuildCombat@@V?$allocator@PAU__JOINPLAYER@CGuildCombat@@@std@@@std@@IAEXPAPAU__JOINPLAYER@CGuildCombat@@0@Z
_TEXT	SEGMENT PARA USE32 PUBLIC 'CODE'
_TEXT	ENDS
;	COMDAT ?deallocate@?$allocator@PAU__JOINPLAYER@CGuildCombat@@@std@@QAEXPAPAU__JOINPLAYER@CGuildCombat@@I@Z
_TEXT	SEGMENT PARA USE32 PUBLIC 'CODE'
_TEXT	ENDS
;	COMDAT ?max_size@?$vector@U__SECRETROOM_MONSTER@@V?$allocator@U__SECRETROOM_MONSTER@@@std@@@std@@QBEIXZ
_TEXT	SEGMENT PARA USE32 PUBLIC 'CODE'
_TEXT	ENDS
;	COMDAT ?_Destroy@?$vector@U__SECRETROOM_MONSTER@@V?$allocator@U__SECRETROOM_MONSTER@@@std@@@std@@IAEXPAU__SECRETROOM_MONSTER@@0@Z
_TEXT	SEGMENT PARA USE32 PUBLIC 'CODE'
_TEXT	ENDS
;	COMDAT ?_Xlen@?$vector@U__SECRETROOM_MONSTER@@V?$allocator@U__SECRETROOM_MONSTER@@@std@@@std@@IBEXXZ
_TEXT	SEGMENT PARA USE32 PUBLIC 'CODE'
_TEXT	ENDS
;	COMDAT ??0?$allocator@U__SECRETROOM_MONSTER@@@std@@QAE@ABV01@@Z
_TEXT	SEGMENT PARA USE32 PUBLIC 'CODE'
_TEXT	ENDS
;	COMDAT ?deallocate@?$allocator@U__SECRETROOM_MONSTER@@@std@@QAEXPAU__SECRETROOM_MONSTER@@I@Z
_TEXT	SEGMENT PARA USE32 PUBLIC 'CODE'
_TEXT	ENDS
;	COMDAT ?allocate@?$allocator@U__SECRETROOM_MONSTER@@@std@@QAEPAU__SECRETROOM_MONSTER@@I@Z
_TEXT	SEGMENT PARA USE32 PUBLIC 'CODE'
_TEXT	ENDS
;	COMDAT ?max_size@?$vector@V?$basic_string@DU?$char_traits@D@std@@V?$allocator@D@2@@std@@V?$allocator@V?$basic_string@DU?$char_traits@D@std@@V?$allocator@D@2@@std@@@2@@std@@QBEIXZ
_TEXT	SEGMENT PARA USE32 PUBLIC 'CODE'
_TEXT	ENDS
;	COMDAT ?_Destroy@?$vector@V?$basic_string@DU?$char_traits@D@std@@V?$allocator@D@2@@std@@V?$allocator@V?$basic_string@DU?$char_traits@D@std@@V?$allocator@D@2@@std@@@2@@std@@IAEXPAV?$basic_string@DU?$char_traits@D@std@@V?$allocator@D@2@@2@0@Z
_TEXT	SEGMENT PARA USE32 PUBLIC 'CODE'
_TEXT	ENDS
;	COMDAT ?_Insert_n@?$vector@V?$basic_string@DU?$char_traits@D@std@@V?$allocator@D@2@@std@@V?$allocator@V?$basic_string@DU?$char_traits@D@std@@V?$allocator@D@2@@std@@@2@@std@@IAEXViterator@12@IABV?$basic_string@DU?$char_traits@D@std@@V?$allocator@D@2@@2@@Z
_TEXT	SEGMENT PARA USE32 PUBLIC 'CODE'
_TEXT	ENDS
;	COMDAT ?_Xlen@?$vector@V?$basic_string@DU?$char_traits@D@std@@V?$allocator@D@2@@std@@V?$allocator@V?$basic_string@DU?$char_traits@D@std@@V?$allocator@D@2@@std@@@2@@std@@IBEXXZ
_TEXT	SEGMENT PARA USE32 PUBLIC 'CODE'
_TEXT	ENDS
;	COMDAT ?begin@?$vector@UMINIGMAME_PRIZE_LIST@CRainbowRaceMng@@V?$allocator@UMINIGMAME_PRIZE_LIST@CRainbowRaceMng@@@std@@@std@@QAE?AViterator@12@XZ
_TEXT	SEGMENT PARA USE32 PUBLIC 'CODE'
_TEXT	ENDS
;	COMDAT ?_Insert_n@?$vector@UMINIGMAME_PRIZE_LIST@CRainbowRaceMng@@V?$allocator@UMINIGMAME_PRIZE_LIST@CRainbowRaceMng@@@std@@@std@@IAEXViterator@12@IABUMINIGMAME_PRIZE_LIST@CRainbowRaceMng@@@Z
_TEXT	SEGMENT PARA USE32 PUBLIC 'CODE'
_TEXT	ENDS
;	COMDAT ?_Color@?$_Tree@V?$_Tmap_traits@KPAVCGuildHouseBase@@U?$less@K@std@@V?$allocator@U?$pair@$$CBKPAVCGuildHouseBase@@@std@@@3@$0A@@std@@@std@@KAAADPAU_Node@?$_Tree_nod@V?$_Tmap_traits@KPAVCGuildHouseBase@@U?$less@K@std@@V?$allocator@U?$pair@$$CBKPAVCGuildHouseBase@@@std@@@3@$0A@@std@@@2@@Z
_TEXT	SEGMENT PARA USE32 PUBLIC 'CODE'
_TEXT	ENDS
;	COMDAT ?_Parent@?$_Tree@V?$_Tmap_traits@KPAVCGuildHouseBase@@U?$less@K@std@@V?$allocator@U?$pair@$$CBKPAVCGuildHouseBase@@@std@@@3@$0A@@std@@@std@@KAAAPAU_Node@?$_Tree_nod@V?$_Tmap_traits@KPAVCGuildHouseBase@@U?$less@K@std@@V?$allocator@U?$pair@$$CBKPAVCGuildHouseBase@@@std@@@3@$0A@@std@@@2@PAU342@@Z
_TEXT	SEGMENT PARA USE32 PUBLIC 'CODE'
_TEXT	ENDS
;	COMDAT ?_Myval@?$_Tree@V?$_Tmap_traits@KPAVCGuildHouseBase@@U?$less@K@std@@V?$allocator@U?$pair@$$CBKPAVCGuildHouseBase@@@std@@@3@$0A@@std@@@std@@KAAAU?$pair@$$CBKPAVCGuildHouseBase@@@2@PAU_Node@?$_Tree_nod@V?$_Tmap_traits@KPAVCGuildHouseBase@@U?$less@K@std@@V?$allocator@U?$pair@$$CBKPAVCGuildHouseBase@@@std@@@3@$0A@@std@@@2@@Z
_TEXT	SEGMENT PARA USE32 PUBLIC 'CODE'
_TEXT	ENDS
;	COMDAT ?max_size@?$_Tree@V?$_Tmap_traits@KPAVCGuildHouseBase@@U?$less@K@std@@V?$allocator@U?$pair@$$CBKPAVCGuildHouseBase@@@std@@@3@$0A@@std@@@std@@QBEIXZ
_TEXT	SEGMENT PARA USE32 PUBLIC 'CODE'
_TEXT	ENDS
;	COMDAT ?_Lmost@?$_Tree@V?$_Tmap_traits@KPAVCGuildHouseBase@@U?$less@K@std@@V?$allocator@U?$pair@$$CBKPAVCGuildHouseBase@@@std@@@3@$0A@@std@@@std@@IAEAAPAU_Node@?$_Tree_nod@V?$_Tmap_traits@KPAVCGuildHouseBase@@U?$less@K@std@@V?$allocator@U?$pair@$$CBKPAVCGuildHouseBase@@@std@@@3@$0A@@std@@@2@XZ
_TEXT	SEGMENT PARA USE32 PUBLIC 'CODE'
_TEXT	ENDS
;	COMDAT ?_Lrotate@?$_Tree@V?$_Tmap_traits@KPAVCGuildHouseBase@@U?$less@K@std@@V?$allocator@U?$pair@$$CBKPAVCGuildHouseBase@@@std@@@3@$0A@@std@@@std@@IAEXPAU_Node@?$_Tree_nod@V?$_Tmap_traits@KPAVCGuildHouseBase@@U?$less@K@std@@V?$allocator@U?$pair@$$CBKPAVCGuildHouseBase@@@std@@@3@$0A@@std@@@2@@Z
_TEXT	SEGMENT PARA USE32 PUBLIC 'CODE'
_TEXT	ENDS
;	COMDAT ?_Rmost@?$_Tree@V?$_Tmap_traits@KPAVCGuildHouseBase@@U?$less@K@std@@V?$allocator@U?$pair@$$CBKPAVCGuildHouseBase@@@std@@@3@$0A@@std@@@std@@IAEAAPAU_Node@?$_Tree_nod@V?$_Tmap_traits@KPAVCGuildHouseBase@@U?$less@K@std@@V?$allocator@U?$pair@$$CBKPAVCGuildHouseBase@@@std@@@3@$0A@@std@@@2@XZ
_TEXT	SEGMENT PARA USE32 PUBLIC 'CODE'
_TEXT	ENDS
;	COMDAT ?_Rrotate@?$_Tree@V?$_Tmap_traits@KPAVCGuildHouseBase@@U?$less@K@std@@V?$allocator@U?$pair@$$CBKPAVCGuildHouseBase@@@std@@@3@$0A@@std@@@std@@IAEXPAU_Node@?$_Tree_nod@V?$_Tmap_traits@KPAVCGuildHouseBase@@U?$less@K@std@@V?$allocator@U?$pair@$$CBKPAVCGuildHouseBase@@@std@@@3@$0A@@std@@@2@@Z
_TEXT	SEGMENT PARA USE32 PUBLIC 'CODE'
_TEXT	ENDS
;	COMDAT ?_Buynode@?$_Tree@V?$_Tmap_traits@KPAVCGuildHouseBase@@U?$less@K@std@@V?$allocator@U?$pair@$$CBKPAVCGuildHouseBase@@@std@@@3@$0A@@std@@@std@@IAEPAU_Node@?$_Tree_nod@V?$_Tmap_traits@KPAVCGuildHouseBase@@U?$less@K@std@@V?$allocator@U?$pair@$$CBKPAVCGuildHouseBase@@@std@@@3@$0A@@std@@@2@PAU342@00ABU?$pair@$$CBKPAVCGuildHouseBase@@@2@D@Z
_TEXT	SEGMENT PARA USE32 PUBLIC 'CODE'
_TEXT	ENDS
;	COMDAT ??0const_iterator@?$_Tree@V?$_Tmap_traits@KPAVCGuildHouseBase@@U?$less@K@std@@V?$allocator@U?$pair@$$CBKPAVCGuildHouseBase@@@std@@@3@$0A@@std@@@std@@QAE@PAU_Node@?$_Tree_nod@V?$_Tmap_traits@KPAVCGuildHouseBase@@U?$less@K@std@@V?$allocator@U?$pair@$$CBKPAVCGuildHouseBase@@@std@@@3@$0A@@std@@@2@@Z
_TEXT	SEGMENT PARA USE32 PUBLIC 'CODE'
_TEXT	ENDS
;	COMDAT ??Fconst_iterator@?$_Tree@V?$_Tmap_traits@KPAVCGuildHouseBase@@U?$less@K@std@@V?$allocator@U?$pair@$$CBKPAVCGuildHouseBase@@@std@@@3@$0A@@std@@@std@@QAEAAV012@XZ
_TEXT	SEGMENT PARA USE32 PUBLIC 'CODE'
_TEXT	ENDS
;	COMDAT ?begin@?$_Tree@V?$_Tmap_traits@KKU?$less@K@std@@V?$allocator@U?$pair@$$CBKK@std@@@2@$0A@@std@@@std@@QAE?AViterator@12@XZ
_TEXT	SEGMENT PARA USE32 PUBLIC 'CODE'
_TEXT	ENDS
;	COMDAT ?end@?$_Tree@V?$_Tmap_traits@KKU?$less@K@std@@V?$allocator@U?$pair@$$CBKK@std@@@2@$0A@@std@@@std@@QAE?AViterator@12@XZ
_TEXT	SEGMENT PARA USE32 PUBLIC 'CODE'
_TEXT	ENDS
;	COMDAT ?erase@?$_Tree@V?$_Tmap_traits@KKU?$less@K@std@@V?$allocator@U?$pair@$$CBKK@std@@@2@$0A@@std@@@std@@QAE?AViterator@12@V312@@Z
_TEXT	SEGMENT PARA USE32 PUBLIC 'CODE'
_TEXT	ENDS
;	COMDAT ?clear@?$_Tree@V?$_Tmap_traits@KKU?$less@K@std@@V?$allocator@U?$pair@$$CBKK@std@@@2@$0A@@std@@@std@@QAEXXZ
_TEXT	SEGMENT PARA USE32 PUBLIC 'CODE'
_TEXT	ENDS
;	COMDAT ?lower_bound@?$_Tree@V?$_Tmap_traits@KKU?$less@K@std@@V?$allocator@U?$pair@$$CBKK@std@@@2@$0A@@std@@@std@@QAE?AViterator@12@ABK@Z
_TEXT	SEGMENT PARA USE32 PUBLIC 'CODE'
_TEXT	ENDS
;	COMDAT ?upper_bound@?$_Tree@V?$_Tmap_traits@KKU?$less@K@std@@V?$allocator@U?$pair@$$CBKK@std@@@2@$0A@@std@@@std@@QAE?AViterator@12@ABK@Z
_TEXT	SEGMENT PARA USE32 PUBLIC 'CODE'
_TEXT	ENDS
;	COMDAT ??Eiterator@?$_Tree@V?$_Tmap_traits@KKU?$less@K@std@@V?$allocator@U?$pair@$$CBKK@std@@@2@$0A@@std@@@std@@QAE?AV012@H@Z
_TEXT	SEGMENT PARA USE32 PUBLIC 'CODE'
_TEXT	ENDS
;	COMDAT ??8const_iterator@?$_Tree@V?$_Tmap_traits@KKU?$less@K@std@@V?$allocator@U?$pair@$$CBKK@std@@@2@$0A@@std@@@std@@QBE_NABV012@@Z
_TEXT	SEGMENT PARA USE32 PUBLIC 'CODE'
_TEXT	ENDS
;	COMDAT ??9const_iterator@?$_Tree@V?$_Tmap_traits@KKU?$less@K@std@@V?$allocator@U?$pair@$$CBKK@std@@@2@$0A@@std@@@std@@QBE_NABV012@@Z
_TEXT	SEGMENT PARA USE32 PUBLIC 'CODE'
_TEXT	ENDS
;	COMDAT ?_Left@?$_Tree@V?$_Tmap_traits@KPAVCClientSock@@U?$less@K@std@@V?$allocator@U?$pair@$$CBKPAVCClientSock@@@std@@@3@$0A@@std@@@std@@KAAAPAU_Node@?$_Tree_nod@V?$_Tmap_traits@KPAVCClientSock@@U?$less@K@std@@V?$allocator@U?$pair@$$CBKPAVCClientSock@@@std@@@3@$0A@@std@@@2@PAU342@@Z
_TEXT	SEGMENT PARA USE32 PUBLIC 'CODE'
_TEXT	ENDS
;	COMDAT ?_Parent@?$_Tree@V?$_Tmap_traits@KPAVCClientSock@@U?$less@K@std@@V?$allocator@U?$pair@$$CBKPAVCClientSock@@@std@@@3@$0A@@std@@@std@@KAAAPAU_Node@?$_Tree_nod@V?$_Tmap_traits@KPAVCClientSock@@U?$less@K@std@@V?$allocator@U?$pair@$$CBKPAVCClientSock@@@std@@@3@$0A@@std@@@2@PAU342@@Z
_TEXT	SEGMENT PARA USE32 PUBLIC 'CODE'
_TEXT	ENDS
;	COMDAT ?_Right@?$_Tree@V?$_Tmap_traits@KPAVCClientSock@@U?$less@K@std@@V?$allocator@U?$pair@$$CBKPAVCClientSock@@@std@@@3@$0A@@std@@@std@@KAAAPAU_Node@?$_Tree_nod@V?$_Tmap_traits@KPAVCClientSock@@U?$less@K@std@@V?$allocator@U?$pair@$$CBKPAVCClientSock@@@std@@@3@$0A@@std@@@2@PAU342@@Z
_TEXT	SEGMENT PARA USE32 PUBLIC 'CODE'
_TEXT	ENDS
;	COMDAT ?_Myval@?$_Tree@V?$_Tmap_traits@KPAVCClientSock@@U?$less@K@std@@V?$allocator@U?$pair@$$CBKPAVCClientSock@@@std@@@3@$0A@@std@@@std@@KAAAU?$pair@$$CBKPAVCClientSock@@@2@PAU_Node@?$_Tree_nod@V?$_Tmap_traits@KPAVCClientSock@@U?$less@K@std@@V?$allocator@U?$pair@$$CBKPAVCClientSock@@@std@@@3@$0A@@std@@@2@@Z
_TEXT	SEGMENT PARA USE32 PUBLIC 'CODE'
_TEXT	ENDS
;	COMDAT ?begin@?$_Tree@V?$_Tmap_traits@KPAVCClientSock@@U?$less@K@std@@V?$allocator@U?$pair@$$CBKPAVCClientSock@@@std@@@3@$0A@@std@@@std@@QAE?AViterator@12@XZ
_TEXT	SEGMENT PARA USE32 PUBLIC 'CODE'
_TEXT	ENDS
;	COMDAT ?erase@?$_Tree@V?$_Tmap_traits@KPAVCClientSock@@U?$less@K@std@@V?$allocator@U?$pair@$$CBKPAVCClientSock@@@std@@@3@$0A@@std@@@std@@QAE?AViterator@12@V312@0@Z
_TEXT	SEGMENT PARA USE32 PUBLIC 'CODE'
_TEXT	ENDS
;	COMDAT ?_Init@?$_Tree@V?$_Tmap_traits@KPAVCClientSock@@U?$less@K@std@@V?$allocator@U?$pair@$$CBKPAVCClientSock@@@std@@@3@$0A@@std@@@std@@IAEXXZ
_TEXT	SEGMENT PARA USE32 PUBLIC 'CODE'
_TEXT	ENDS
;	COMDAT ?_Lbound@?$_Tree@V?$_Tmap_traits@KPAVCClientSock@@U?$less@K@std@@V?$allocator@U?$pair@$$CBKPAVCClientSock@@@std@@@3@$0A@@std@@@std@@IBEPAU_Node@?$_Tree_nod@V?$_Tmap_traits@KPAVCClientSock@@U?$less@K@std@@V?$allocator@U?$pair@$$CBKPAVCClientSock@@@std@@@3@$0A@@std@@@2@ABK@Z
_TEXT	SEGMENT PARA USE32 PUBLIC 'CODE'
_TEXT	ENDS
;	COMDAT ??0?$_Tree_val@V?$_Tmap_traits@KPAVCClientSock@@U?$less@K@std@@V?$allocator@U?$pair@$$CBKPAVCClientSock@@@std@@@3@$0A@@std@@@std@@IAE@ABU?$less@K@1@V?$allocator@U?$pair@$$CBKPAVCClientSock@@@std@@@1@@Z
_TEXT	SEGMENT PARA USE32 PUBLIC 'CODE'
_TEXT	ENDS
;	COMDAT ?_Kfn@?$_Tmap_traits@KPAVCClientSock@@U?$less@K@std@@V?$allocator@U?$pair@$$CBKPAVCClientSock@@@std@@@3@$0A@@std@@SAABKABU?$pair@$$CBKPAVCClientSock@@@2@@Z
_TEXT	SEGMENT PARA USE32 PUBLIC 'CODE'
_TEXT	ENDS
;	COMDAT ??0?$allocator@U?$pair@$$CBKPAVCClientSock@@@std@@@std@@QAE@ABV01@@Z
_TEXT	SEGMENT PARA USE32 PUBLIC 'CODE'
_TEXT	ENDS
;	COMDAT ?deallocate@?$allocator@U_Node@?$_Tree_nod@V?$_Tmap_traits@KPAVCClientSock@@U?$less@K@std@@V?$allocator@U?$pair@$$CBKPAVCClientSock@@@std@@@3@$0A@@std@@@std@@@std@@QAEXPAU_Node@?$_Tree_nod@V?$_Tmap_traits@KPAVCClientSock@@U?$less@K@std@@V?$allocator@U?$pair@$$CBKPAVCClientSock@@@std@@@3@$0A@@std@@@2@I@Z
_TEXT	SEGMENT PARA USE32 PUBLIC 'CODE'
_TEXT	ENDS
;	COMDAT ?destroy@?$allocator@PAU_Node@?$_Tree_nod@V?$_Tmap_traits@KPAVCClientSock@@U?$less@K@std@@V?$allocator@U?$pair@$$CBKPAVCClientSock@@@std@@@3@$0A@@std@@@std@@@std@@QAEXPAPAU_Node@?$_Tree_nod@V?$_Tmap_traits@KPAVCClientSock@@U?$less@K@std@@V?$allocator@U?$pair@$$CBKPAVCClientSock@@@std@@@3@$0A@@std@@@2@@Z
_TEXT	SEGMENT PARA USE32 PUBLIC 'CODE'
_TEXT	ENDS
;	COMDAT ??0const_iterator@?$_Tree@V?$_Tmap_traits@KPAVCClientSock@@U?$less@K@std@@V?$allocator@U?$pair@$$CBKPAVCClientSock@@@std@@@3@$0A@@std@@@std@@QAE@PAU_Node@?$_Tree_nod@V?$_Tmap_traits@KPAVCClientSock@@U?$less@K@std@@V?$allocator@U?$pair@$$CBKPAVCClientSock@@@std@@@3@$0A@@std@@@2@@Z
_TEXT	SEGMENT PARA USE32 PUBLIC 'CODE'
_TEXT	ENDS
;	COMDAT ??Dconst_iterator@?$_Tree@V?$_Tmap_traits@KPAVCClientSock@@U?$less@K@std@@V?$allocator@U?$pair@$$CBKPAVCClientSock@@@std@@@3@$0A@@std@@@std@@QBEABU?$pair@$$CBKPAVCClientSock@@@2@XZ
_TEXT	SEGMENT PARA USE32 PUBLIC 'CODE'
_TEXT	ENDS
;	COMDAT ?_Left@?$_Tree@V?$_Tmap_traits@KPAVCClientSockE@@U?$less@K@std@@V?$allocator@U?$pair@$$CBKPAVCClientSockE@@@std@@@3@$0A@@std@@@std@@KAAAPAU_Node@?$_Tree_nod@V?$_Tmap_traits@KPAVCClientSockE@@U?$less@K@std@@V?$allocator@U?$pair@$$CBKPAVCClientSockE@@@std@@@3@$0A@@std@@@2@PAU342@@Z
_TEXT	SEGMENT PARA USE32 PUBLIC 'CODE'
_TEXT	ENDS
;	COMDAT ?_Parent@?$_Tree@V?$_Tmap_traits@KPAVCClientSockE@@U?$less@K@std@@V?$allocator@U?$pair@$$CBKPAVCClientSockE@@@std@@@3@$0A@@std@@@std@@KAAAPAU_Node@?$_Tree_nod@V?$_Tmap_traits@KPAVCClientSockE@@U?$less@K@std@@V?$allocator@U?$pair@$$CBKPAVCClientSockE@@@std@@@3@$0A@@std@@@2@PAU342@@Z
_TEXT	SEGMENT PARA USE32 PUBLIC 'CODE'
_TEXT	ENDS
;	COMDAT ?_Right@?$_Tree@V?$_Tmap_traits@KPAVCClientSockE@@U?$less@K@std@@V?$allocator@U?$pair@$$CBKPAVCClientSockE@@@std@@@3@$0A@@std@@@std@@KAAAPAU_Node@?$_Tree_nod@V?$_Tmap_traits@KPAVCClientSockE@@U?$less@K@std@@V?$allocator@U?$pair@$$CBKPAVCClientSockE@@@std@@@3@$0A@@std@@@2@PAU342@@Z
_TEXT	SEGMENT PARA USE32 PUBLIC 'CODE'
_TEXT	ENDS
;	COMDAT ?_Myval@?$_Tree@V?$_Tmap_traits@KPAVCClientSockE@@U?$less@K@std@@V?$allocator@U?$pair@$$CBKPAVCClientSockE@@@std@@@3@$0A@@std@@@std@@KAAAU?$pair@$$CBKPAVCClientSockE@@@2@PAU_Node@?$_Tree_nod@V?$_Tmap_traits@KPAVCClientSockE@@U?$less@K@std@@V?$allocator@U?$pair@$$CBKPAVCClientSockE@@@std@@@3@$0A@@std@@@2@@Z
_TEXT	SEGMENT PARA USE32 PUBLIC 'CODE'
_TEXT	ENDS
;	COMDAT ?begin@?$_Tree@V?$_Tmap_traits@KPAVCClientSockE@@U?$less@K@std@@V?$allocator@U?$pair@$$CBKPAVCClientSockE@@@std@@@3@$0A@@std@@@std@@QAE?AViterator@12@XZ
_TEXT	SEGMENT PARA USE32 PUBLIC 'CODE'
_TEXT	ENDS
;	COMDAT ?erase@?$_Tree@V?$_Tmap_traits@KPAVCClientSockE@@U?$less@K@std@@V?$allocator@U?$pair@$$CBKPAVCClientSockE@@@std@@@3@$0A@@std@@@std@@QAE?AViterator@12@V312@0@Z
_TEXT	SEGMENT PARA USE32 PUBLIC 'CODE'
_TEXT	ENDS
;	COMDAT ?_Init@?$_Tree@V?$_Tmap_traits@KPAVCClientSockE@@U?$less@K@std@@V?$allocator@U?$pair@$$CBKPAVCClientSockE@@@std@@@3@$0A@@std@@@std@@IAEXXZ
_TEXT	SEGMENT PARA USE32 PUBLIC 'CODE'
_TEXT	ENDS
;	COMDAT ?_Lbound@?$_Tree@V?$_Tmap_traits@KPAVCClientSockE@@U?$less@K@std@@V?$allocator@U?$pair@$$CBKPAVCClientSockE@@@std@@@3@$0A@@std@@@std@@IBEPAU_Node@?$_Tree_nod@V?$_Tmap_traits@KPAVCClientSockE@@U?$less@K@std@@V?$allocator@U?$pair@$$CBKPAVCClientSockE@@@std@@@3@$0A@@std@@@2@ABK@Z
_TEXT	SEGMENT PARA USE32 PUBLIC 'CODE'
_TEXT	ENDS
;	COMDAT ??0?$_Tree_val@V?$_Tmap_traits@KPAVCClientSockE@@U?$less@K@std@@V?$allocator@U?$pair@$$CBKPAVCClientSockE@@@std@@@3@$0A@@std@@@std@@IAE@ABU?$less@K@1@V?$allocator@U?$pair@$$CBKPAVCClientSockE@@@std@@@1@@Z
_TEXT	SEGMENT PARA USE32 PUBLIC 'CODE'
_TEXT	ENDS
;	COMDAT ?_Kfn@?$_Tmap_traits@KPAVCClientSockE@@U?$less@K@std@@V?$allocator@U?$pair@$$CBKPAVCClientSockE@@@std@@@3@$0A@@std@@SAABKABU?$pair@$$CBKPAVCClientSockE@@@2@@Z
_TEXT	SEGMENT PARA USE32 PUBLIC 'CODE'
_TEXT	ENDS
;	COMDAT ??0?$allocator@U?$pair@$$CBKPAVCClientSockE@@@std@@@std@@QAE@ABV01@@Z
_TEXT	SEGMENT PARA USE32 PUBLIC 'CODE'
_TEXT	ENDS
;	COMDAT ?deallocate@?$allocator@U_Node@?$_Tree_nod@V?$_Tmap_traits@KPAVCClientSockE@@U?$less@K@std@@V?$allocator@U?$pair@$$CBKPAVCClientSockE@@@std@@@3@$0A@@std@@@std@@@std@@QAEXPAU_Node@?$_Tree_nod@V?$_Tmap_traits@KPAVCClientSockE@@U?$less@K@std@@V?$allocator@U?$pair@$$CBKPAVCClientSockE@@@std@@@3@$0A@@std@@@2@I@Z
_TEXT	SEGMENT PARA USE32 PUBLIC 'CODE'
_TEXT	ENDS
;	COMDAT ?destroy@?$allocator@PAU_Node@?$_Tree_nod@V?$_Tmap_traits@KPAVCClientSockE@@U?$less@K@std@@V?$allocator@U?$pair@$$CBKPAVCClientSockE@@@std@@@3@$0A@@std@@@std@@@std@@QAEXPAPAU_Node@?$_Tree_nod@V?$_Tmap_traits@KPAVCClientSockE@@U?$less@K@std@@V?$allocator@U?$pair@$$CBKPAVCClientSockE@@@std@@@3@$0A@@std@@@2@@Z
_TEXT	SEGMENT PARA USE32 PUBLIC 'CODE'
_TEXT	ENDS
;	COMDAT ??0const_iterator@?$_Tree@V?$_Tmap_traits@KPAVCClientSockE@@U?$less@K@std@@V?$allocator@U?$pair@$$CBKPAVCClientSockE@@@std@@@3@$0A@@std@@@std@@QAE@PAU_Node@?$_Tree_nod@V?$_Tmap_traits@KPAVCClientSockE@@U?$less@K@std@@V?$allocator@U?$pair@$$CBKPAVCClientSockE@@@std@@@3@$0A@@std@@@2@@Z
_TEXT	SEGMENT PARA USE32 PUBLIC 'CODE'
_TEXT	ENDS
;	COMDAT ??Dconst_iterator@?$_Tree@V?$_Tmap_traits@KPAVCClientSockE@@U?$less@K@std@@V?$allocator@U?$pair@$$CBKPAVCClientSockE@@@std@@@3@$0A@@std@@@std@@QBEABU?$pair@$$CBKPAVCClientSockE@@@2@XZ
_TEXT	SEGMENT PARA USE32 PUBLIC 'CODE'
_TEXT	ENDS
;	COMDAT ?_Myval@?$_Tree@V?$_Tmap_traits@KP8CDPSrvr@@AEXAAVCAr@@KKPAEK@ZU?$less@K@std@@V?$allocator@U?$pair@$$CBKP8CDPSrvr@@AEXAAVCAr@@KKPAEK@Z@std@@@4@$0A@@std@@@std@@KAAAU?$pair@$$CBKP8CDPSrvr@@AEXAAVCAr@@KKPAEK@Z@2@PAU_Node@?$_Tree_nod@V?$_Tmap_traits@KP8CDPSrvr@@AEXAAVCAr@@KKPAEK@ZU?$less@K@std@@V?$allocator@U?$pair@$$CBKP8CDPSrvr@@AEXAAVCAr@@KKPAEK@Z@std@@@4@$0A@@std@@@2@@Z
_TEXT	SEGMENT PARA USE32 PUBLIC 'CODE'
_TEXT	ENDS
;	COMDAT ?_Lbound@?$_Tree@V?$_Tmap_traits@KP8CDPSrvr@@AEXAAVCAr@@KKPAEK@ZU?$less@K@std@@V?$allocator@U?$pair@$$CBKP8CDPSrvr@@AEXAAVCAr@@KKPAEK@Z@std@@@4@$0A@@std@@@std@@IBEPAU_Node@?$_Tree_nod@V?$_Tmap_traits@KP8CDPSrvr@@AEXAAVCAr@@KKPAEK@ZU?$less@K@std@@V?$allocator@U?$pair@$$CBKP8CDPSrvr@@AEXAAVCAr@@KKPAEK@Z@std@@@4@$0A@@std@@@2@ABK@Z
_TEXT	SEGMENT PARA USE32 PUBLIC 'CODE'
_TEXT	ENDS
;	COMDAT ?_Kfn@?$_Tmap_traits@KP8CDPSrvr@@AEXAAVCAr@@KKPAEK@ZU?$less@K@std@@V?$allocator@U?$pair@$$CBKP8CDPSrvr@@AEXAAVCAr@@KKPAEK@Z@std@@@4@$0A@@std@@SAABKABU?$pair@$$CBKP8CDPSrvr@@AEXAAVCAr@@KKPAEK@Z@2@@Z
_TEXT	SEGMENT PARA USE32 PUBLIC 'CODE'
_TEXT	ENDS
;	COMDAT ??0const_iterator@?$_Tree@V?$_Tmap_traits@KP8CDPSrvr@@AEXAAVCAr@@KKPAEK@ZU?$less@K@std@@V?$allocator@U?$pair@$$CBKP8CDPSrvr@@AEXAAVCAr@@KKPAEK@Z@std@@@4@$0A@@std@@@std@@QAE@PAU_Node@?$_Tree_nod@V?$_Tmap_traits@KP8CDPSrvr@@AEXAAVCAr@@KKPAEK@ZU?$less@K@std@@V?$allocator@U?$pair@$$CBKP8CDPSrvr@@AEXAAVCAr@@KKPAEK@Z@std@@@4@$0A@@std@@@2@@Z
_TEXT	SEGMENT PARA USE32 PUBLIC 'CODE'
_TEXT	ENDS
;	COMDAT ??Dconst_iterator@?$_Tree@V?$_Tmap_traits@KP8CDPSrvr@@AEXAAVCAr@@KKPAEK@ZU?$less@K@std@@V?$allocator@U?$pair@$$CBKP8CDPSrvr@@AEXAAVCAr@@KKPAEK@Z@std@@@4@$0A@@std@@@std@@QBEABU?$pair@$$CBKP8CDPSrvr@@AEXAAVCAr@@KKPAEK@Z@2@XZ
_TEXT	SEGMENT PARA USE32 PUBLIC 'CODE'
_TEXT	ENDS
;	COMDAT ?_Myval@?$_Tree@V?$_Tmap_traits@KP8CDPCoreClient@@AEXAAVCAr@@KKK@ZU?$less@K@std@@V?$allocator@U?$pair@$$CBKP8CDPCoreClient@@AEXAAVCAr@@KKK@Z@std@@@4@$0A@@std@@@std@@KAAAU?$pair@$$CBKP8CDPCoreClient@@AEXAAVCAr@@KKK@Z@2@PAU_Node@?$_Tree_nod@V?$_Tmap_traits@KP8CDPCoreClient@@AEXAAVCAr@@KKK@ZU?$less@K@std@@V?$allocator@U?$pair@$$CBKP8CDPCoreClient@@AEXAAVCAr@@KKK@Z@std@@@4@$0A@@std@@@2@@Z
_TEXT	SEGMENT PARA USE32 PUBLIC 'CODE'
_TEXT	ENDS
;	COMDAT ?_Lbound@?$_Tree@V?$_Tmap_traits@KP8CDPCoreClient@@AEXAAVCAr@@KKK@ZU?$less@K@std@@V?$allocator@U?$pair@$$CBKP8CDPCoreClient@@AEXAAVCAr@@KKK@Z@std@@@4@$0A@@std@@@std@@IBEPAU_Node@?$_Tree_nod@V?$_Tmap_traits@KP8CDPCoreClient@@AEXAAVCAr@@KKK@ZU?$less@K@std@@V?$allocator@U?$pair@$$CBKP8CDPCoreClient@@AEXAAVCAr@@KKK@Z@std@@@4@$0A@@std@@@2@ABK@Z
_TEXT	SEGMENT PARA USE32 PUBLIC 'CODE'
_TEXT	ENDS
;	COMDAT ?_Kfn@?$_Tmap_traits@KP8CDPCoreClient@@AEXAAVCAr@@KKK@ZU?$less@K@std@@V?$allocator@U?$pair@$$CBKP8CDPCoreClient@@AEXAAVCAr@@KKK@Z@std@@@4@$0A@@std@@SAABKABU?$pair@$$CBKP8CDPCoreClient@@AEXAAVCAr@@KKK@Z@2@@Z
_TEXT	SEGMENT PARA USE32 PUBLIC 'CODE'
_TEXT	ENDS
;	COMDAT ??0const_iterator@?$_Tree@V?$_Tmap_traits@KP8CDPCoreClient@@AEXAAVCAr@@KKK@ZU?$less@K@std@@V?$allocator@U?$pair@$$CBKP8CDPCoreClient@@AEXAAVCAr@@KKK@Z@std@@@4@$0A@@std@@@std@@QAE@PAU_Node@?$_Tree_nod@V?$_Tmap_traits@KP8CDPCoreClient@@AEXAAVCAr@@KKK@ZU?$less@K@std@@V?$allocator@U?$pair@$$CBKP8CDPCoreClient@@AEXAAVCAr@@KKK@Z@std@@@4@$0A@@std@@@2@@Z
_TEXT	SEGMENT PARA USE32 PUBLIC 'CODE'
_TEXT	ENDS
;	COMDAT ??Dconst_iterator@?$_Tree@V?$_Tmap_traits@KP8CDPCoreClient@@AEXAAVCAr@@KKK@ZU?$less@K@std@@V?$allocator@U?$pair@$$CBKP8CDPCoreClient@@AEXAAVCAr@@KKK@Z@std@@@4@$0A@@std@@@std@@QBEABU?$pair@$$CBKP8CDPCoreClient@@AEXAAVCAr@@KKK@Z@2@XZ
_TEXT	SEGMENT PARA USE32 PUBLIC 'CODE'
_TEXT	ENDS
;	COMDAT ?_Myval@?$_Tree@V?$_Tmap_traits@KP8CDPDatabaseClient@@AEXAAVCAr@@KK@ZU?$less@K@std@@V?$allocator@U?$pair@$$CBKP8CDPDatabaseClient@@AEXAAVCAr@@KK@Z@std@@@4@$0A@@std@@@std@@KAAAU?$pair@$$CBKP8CDPDatabaseClient@@AEXAAVCAr@@KK@Z@2@PAU_Node@?$_Tree_nod@V?$_Tmap_traits@KP8CDPDatabaseClient@@AEXAAVCAr@@KK@ZU?$less@K@std@@V?$allocator@U?$pair@$$CBKP8CDPDatabaseClient@@AEXAAVCAr@@KK@Z@std@@@4@$0A@@std@@@2@@Z
_TEXT	SEGMENT PARA USE32 PUBLIC 'CODE'
_TEXT	ENDS
;	COMDAT ?_Lbound@?$_Tree@V?$_Tmap_traits@KP8CDPDatabaseClient@@AEXAAVCAr@@KK@ZU?$less@K@std@@V?$allocator@U?$pair@$$CBKP8CDPDatabaseClient@@AEXAAVCAr@@KK@Z@std@@@4@$0A@@std@@@std@@IBEPAU_Node@?$_Tree_nod@V?$_Tmap_traits@KP8CDPDatabaseClient@@AEXAAVCAr@@KK@ZU?$less@K@std@@V?$allocator@U?$pair@$$CBKP8CDPDatabaseClient@@AEXAAVCAr@@KK@Z@std@@@4@$0A@@std@@@2@ABK@Z
_TEXT	SEGMENT PARA USE32 PUBLIC 'CODE'
_TEXT	ENDS
;	COMDAT ?_Kfn@?$_Tmap_traits@KP8CDPDatabaseClient@@AEXAAVCAr@@KK@ZU?$less@K@std@@V?$allocator@U?$pair@$$CBKP8CDPDatabaseClient@@AEXAAVCAr@@KK@Z@std@@@4@$0A@@std@@SAABKABU?$pair@$$CBKP8CDPDatabaseClient@@AEXAAVCAr@@KK@Z@2@@Z
_TEXT	SEGMENT PARA USE32 PUBLIC 'CODE'
_TEXT	ENDS
;	COMDAT ??0const_iterator@?$_Tree@V?$_Tmap_traits@KP8CDPDatabaseClient@@AEXAAVCAr@@KK@ZU?$less@K@std@@V?$allocator@U?$pair@$$CBKP8CDPDatabaseClient@@AEXAAVCAr@@KK@Z@std@@@4@$0A@@std@@@std@@QAE@PAU_Node@?$_Tree_nod@V?$_Tmap_traits@KP8CDPDatabaseClient@@AEXAAVCAr@@KK@ZU?$less@K@std@@V?$allocator@U?$pair@$$CBKP8CDPDatabaseClient@@AEXAAVCAr@@KK@Z@std@@@4@$0A@@std@@@2@@Z
_TEXT	SEGMENT PARA USE32 PUBLIC 'CODE'
_TEXT	ENDS
;	COMDAT ??Dconst_iterator@?$_Tree@V?$_Tmap_traits@KP8CDPDatabaseClient@@AEXAAVCAr@@KK@ZU?$less@K@std@@V?$allocator@U?$pair@$$CBKP8CDPDatabaseClient@@AEXAAVCAr@@KK@Z@std@@@4@$0A@@std@@@std@@QBEABU?$pair@$$CBKP8CDPDatabaseClient@@AEXAAVCAr@@KK@Z@2@XZ
_TEXT	SEGMENT PARA USE32 PUBLIC 'CODE'
_TEXT	ENDS
;	COMDAT ??0?$pair@Viterator@?$_Tree@V?$_Tmap_traits@KU_Friend@@U?$less@K@std@@V?$allocator@U?$pair@$$CBKU_Friend@@@std@@@3@$0A@@std@@@std@@V123@@std@@QAE@ABViterator@?$_Tree@V?$_Tmap_traits@KU_Friend@@U?$less@K@std@@V?$allocator@U?$pair@$$CBKU_Friend@@@std@@@3@$0A@@std@@@1@0@Z
_TEXT	SEGMENT PARA USE32 PUBLIC 'CODE'
_TEXT	ENDS
;	COMDAT ??0iterator@?$vector@PAU__JOINPLAYER@CGuildCombat@@V?$allocator@PAU__JOINPLAYER@CGuildCombat@@@std@@@std@@QAE@PAPAU__JOINPLAYER@CGuildCombat@@@Z
_TEXT	SEGMENT PARA USE32 PUBLIC 'CODE'
_TEXT	ENDS
;	COMDAT ??Yiterator@?$vector@PAU__JOINPLAYER@CGuildCombat@@V?$allocator@PAU__JOINPLAYER@CGuildCombat@@@std@@@std@@QAEAAV012@H@Z
_TEXT	SEGMENT PARA USE32 PUBLIC 'CODE'
_TEXT	ENDS
;	COMDAT ??Dconst_iterator@?$vector@PAU__JOINPLAYER@CGuildCombat@@V?$allocator@PAU__JOINPLAYER@CGuildCombat@@@std@@@std@@QBEABQAU__JOINPLAYER@CGuildCombat@@XZ
_TEXT	SEGMENT PARA USE32 PUBLIC 'CODE'
_TEXT	ENDS
;	COMDAT ??0iterator@?$vector@V?$basic_string@DU?$char_traits@D@std@@V?$allocator@D@2@@std@@V?$allocator@V?$basic_string@DU?$char_traits@D@std@@V?$allocator@D@2@@std@@@2@@std@@QAE@PAV?$basic_string@DU?$char_traits@D@std@@V?$allocator@D@2@@2@@Z
_TEXT	SEGMENT PARA USE32 PUBLIC 'CODE'
_TEXT	ENDS
;	COMDAT ??Yiterator@?$vector@V?$basic_string@DU?$char_traits@D@std@@V?$allocator@D@2@@std@@V?$allocator@V?$basic_string@DU?$char_traits@D@std@@V?$allocator@D@2@@std@@@2@@std@@QAEAAV012@H@Z
_TEXT	SEGMENT PARA USE32 PUBLIC 'CODE'
_TEXT	ENDS
;	COMDAT ??Giterator@?$vector@V?$basic_string@DU?$char_traits@D@std@@V?$allocator@D@2@@std@@V?$allocator@V?$basic_string@DU?$char_traits@D@std@@V?$allocator@D@2@@std@@@2@@std@@QBEHABVconst_iterator@12@@Z
_TEXT	SEGMENT PARA USE32 PUBLIC 'CODE'
_TEXT	ENDS
;	COMDAT ??Dconst_iterator@?$vector@V?$basic_string@DU?$char_traits@D@std@@V?$allocator@D@2@@std@@V?$allocator@V?$basic_string@DU?$char_traits@D@std@@V?$allocator@D@2@@std@@@2@@std@@QBEABV?$basic_string@DU?$char_traits@D@std@@V?$allocator@D@2@@2@XZ
_TEXT	SEGMENT PARA USE32 PUBLIC 'CODE'
_TEXT	ENDS
;	COMDAT ??0iterator@?$vector@UMINIGMAME_PRIZE_LIST@CRainbowRaceMng@@V?$allocator@UMINIGMAME_PRIZE_LIST@CRainbowRaceMng@@@std@@@std@@QAE@PAUMINIGMAME_PRIZE_LIST@CRainbowRaceMng@@@Z
_TEXT	SEGMENT PARA USE32 PUBLIC 'CODE'
_TEXT	ENDS
;	COMDAT ??Hiterator@?$vector@UMINIGMAME_PRIZE_LIST@CRainbowRaceMng@@V?$allocator@UMINIGMAME_PRIZE_LIST@CRainbowRaceMng@@@std@@@std@@QBE?AV012@H@Z
_TEXT	SEGMENT PARA USE32 PUBLIC 'CODE'
_TEXT	ENDS
;	COMDAT ??Giterator@?$vector@UMINIGMAME_PRIZE_LIST@CRainbowRaceMng@@V?$allocator@UMINIGMAME_PRIZE_LIST@CRainbowRaceMng@@@std@@@std@@QBEHABVconst_iterator@12@@Z
_TEXT	SEGMENT PARA USE32 PUBLIC 'CODE'
_TEXT	ENDS
;	COMDAT ??0iterator@?$vector@PAVCMiniGameBase@@V?$allocator@PAVCMiniGameBase@@@std@@@std@@QAE@PAPAVCMiniGameBase@@@Z
_TEXT	SEGMENT PARA USE32 PUBLIC 'CODE'
_TEXT	ENDS
;	COMDAT ??Yiterator@?$vector@PAVCMiniGameBase@@V?$allocator@PAVCMiniGameBase@@@std@@@std@@QAEAAV012@H@Z
_TEXT	SEGMENT PARA USE32 PUBLIC 'CODE'
_TEXT	ENDS
;	COMDAT ??Dconst_iterator@?$vector@PAVCMiniGameBase@@V?$allocator@PAVCMiniGameBase@@@std@@@std@@QBEABQAVCMiniGameBase@@XZ
_TEXT	SEGMENT PARA USE32 PUBLIC 'CODE'
_TEXT	ENDS
;	COMDAT ??0iterator@?$vector@UGuildHouse_Furniture_Info@CGuildHouseBase@@V?$allocator@UGuildHouse_Furniture_Info@CGuildHouseBase@@@std@@@std@@QAE@PAUGuildHouse_Furniture_Info@CGuildHouseBase@@@Z
_TEXT	SEGMENT PARA USE32 PUBLIC 'CODE'
_TEXT	ENDS
;	COMDAT ??Yiterator@?$vector@UGuildHouse_Furniture_Info@CGuildHouseBase@@V?$allocator@UGuildHouse_Furniture_Info@CGuildHouseBase@@@std@@@std@@QAEAAV012@H@Z
_TEXT	SEGMENT PARA USE32 PUBLIC 'CODE'
_TEXT	ENDS
;	COMDAT ??Dconst_iterator@?$vector@UGuildHouse_Furniture_Info@CGuildHouseBase@@V?$allocator@UGuildHouse_Furniture_Info@CGuildHouseBase@@@std@@@std@@QBEABUGuildHouse_Furniture_Info@CGuildHouseBase@@XZ
_TEXT	SEGMENT PARA USE32 PUBLIC 'CODE'
_TEXT	ENDS
;	COMDAT ??0?$pair@Viterator@?$_Tree@V?$_Tmap_traits@KKU?$less@K@std@@V?$allocator@U?$pair@$$CBKK@std@@@2@$0A@@std@@@std@@V123@@std@@QAE@ABViterator@?$_Tree@V?$_Tmap_traits@KKU?$less@K@std@@V?$allocator@U?$pair@$$CBKK@std@@@2@$0A@@std@@@1@0@Z
_TEXT	SEGMENT PARA USE32 PUBLIC 'CODE'
_TEXT	ENDS
;	COMDAT ?max_size@?$allocator@V?$basic_string@DU?$char_traits@D@std@@V?$allocator@D@2@@std@@@std@@QBEIXZ
_TEXT	SEGMENT PARA USE32 PUBLIC 'CODE'
_TEXT	ENDS
;	COMDAT ??0const_iterator@?$_Tree@V?$_Tmap_traits@KPAVCCtrl@@U?$less@K@std@@V?$allocator@U?$pair@$$CBKPAVCCtrl@@@std@@@3@$0A@@std@@@std@@QAE@XZ
_TEXT	SEGMENT PARA USE32 PUBLIC 'CODE'
_TEXT	ENDS
;	COMDAT ?destroy@?$allocator@PAUtagACTMSG@@@std@@QAEXPAPAUtagACTMSG@@@Z
_TEXT	SEGMENT PARA USE32 PUBLIC 'CODE'
_TEXT	ENDS
;	COMDAT ?destroy@?$allocator@PAUtagMAGICATKMSG@@@std@@QAEXPAPAUtagMAGICATKMSG@@@Z
_TEXT	SEGMENT PARA USE32 PUBLIC 'CODE'
_TEXT	ENDS
;	COMDAT ?_Color@?$_Tree@V?$_Tmap_traits@KU_Friend@@U?$less@K@std@@V?$allocator@U?$pair@$$CBKU_Friend@@@std@@@3@$0A@@std@@@std@@KAAADPAU_Node@?$_Tree_nod@V?$_Tmap_traits@KU_Friend@@U?$less@K@std@@V?$allocator@U?$pair@$$CBKU_Friend@@@std@@@3@$0A@@std@@@2@@Z
_TEXT	SEGMENT PARA USE32 PUBLIC 'CODE'
_TEXT	ENDS
;	COMDAT ?_Isnil@?$_Tree@V?$_Tmap_traits@KU_Friend@@U?$less@K@std@@V?$allocator@U?$pair@$$CBKU_Friend@@@std@@@3@$0A@@std@@@std@@KAAADPAU_Node@?$_Tree_nod@V?$_Tmap_traits@KU_Friend@@U?$less@K@std@@V?$allocator@U?$pair@$$CBKU_Friend@@@std@@@3@$0A@@std@@@2@@Z
_TEXT	SEGMENT PARA USE32 PUBLIC 'CODE'
_TEXT	ENDS
;	COMDAT ?_Left@?$_Tree@V?$_Tmap_traits@KU_Friend@@U?$less@K@std@@V?$allocator@U?$pair@$$CBKU_Friend@@@std@@@3@$0A@@std@@@std@@KAAAPAU_Node@?$_Tree_nod@V?$_Tmap_traits@KU_Friend@@U?$less@K@std@@V?$allocator@U?$pair@$$CBKU_Friend@@@std@@@3@$0A@@std@@@2@PAU342@@Z
_TEXT	SEGMENT PARA USE32 PUBLIC 'CODE'
_TEXT	ENDS
;	COMDAT ?_Parent@?$_Tree@V?$_Tmap_traits@KU_Friend@@U?$less@K@std@@V?$allocator@U?$pair@$$CBKU_Friend@@@std@@@3@$0A@@std@@@std@@KAAAPAU_Node@?$_Tree_nod@V?$_Tmap_traits@KU_Friend@@U?$less@K@std@@V?$allocator@U?$pair@$$CBKU_Friend@@@std@@@3@$0A@@std@@@2@PAU342@@Z
_TEXT	SEGMENT PARA USE32 PUBLIC 'CODE'
_TEXT	ENDS
;	COMDAT ?_Right@?$_Tree@V?$_Tmap_traits@KU_Friend@@U?$less@K@std@@V?$allocator@U?$pair@$$CBKU_Friend@@@std@@@3@$0A@@std@@@std@@KAAAPAU_Node@?$_Tree_nod@V?$_Tmap_traits@KU_Friend@@U?$less@K@std@@V?$allocator@U?$pair@$$CBKU_Friend@@@std@@@3@$0A@@std@@@2@PAU342@@Z
_TEXT	SEGMENT PARA USE32 PUBLIC 'CODE'
_TEXT	ENDS
;	COMDAT ?_Erase@?$_Tree@V?$_Tmap_traits@KU_Friend@@U?$less@K@std@@V?$allocator@U?$pair@$$CBKU_Friend@@@std@@@3@$0A@@std@@@std@@IAEXPAU_Node@?$_Tree_nod@V?$_Tmap_traits@KU_Friend@@U?$less@K@std@@V?$allocator@U?$pair@$$CBKU_Friend@@@std@@@3@$0A@@std@@@2@@Z
_TEXT	SEGMENT PARA USE32 PUBLIC 'CODE'
_TEXT	ENDS
;	COMDAT ?_Lbound@?$_Tree@V?$_Tmap_traits@KU_Friend@@U?$less@K@std@@V?$allocator@U?$pair@$$CBKU_Friend@@@std@@@3@$0A@@std@@@std@@IBEPAU_Node@?$_Tree_nod@V?$_Tmap_traits@KU_Friend@@U?$less@K@std@@V?$allocator@U?$pair@$$CBKU_Friend@@@std@@@3@$0A@@std@@@2@ABK@Z
_TEXT	SEGMENT PARA USE32 PUBLIC 'CODE'
_TEXT	ENDS
;	COMDAT ?_Lmost@?$_Tree@V?$_Tmap_traits@KU_Friend@@U?$less@K@std@@V?$allocator@U?$pair@$$CBKU_Friend@@@std@@@3@$0A@@std@@@std@@IAEAAPAU_Node@?$_Tree_nod@V?$_Tmap_traits@KU_Friend@@U?$less@K@std@@V?$allocator@U?$pair@$$CBKU_Friend@@@std@@@3@$0A@@std@@@2@XZ
_TEXT	SEGMENT PARA USE32 PUBLIC 'CODE'
_TEXT	ENDS
;	COMDAT ?_Lrotate@?$_Tree@V?$_Tmap_traits@KU_Friend@@U?$less@K@std@@V?$allocator@U?$pair@$$CBKU_Friend@@@std@@@3@$0A@@std@@@std@@IAEXPAU_Node@?$_Tree_nod@V?$_Tmap_traits@KU_Friend@@U?$less@K@std@@V?$allocator@U?$pair@$$CBKU_Friend@@@std@@@3@$0A@@std@@@2@@Z
_TEXT	SEGMENT PARA USE32 PUBLIC 'CODE'
_TEXT	ENDS
;	COMDAT ?_Max@?$_Tree@V?$_Tmap_traits@KU_Friend@@U?$less@K@std@@V?$allocator@U?$pair@$$CBKU_Friend@@@std@@@3@$0A@@std@@@std@@KAPAU_Node@?$_Tree_nod@V?$_Tmap_traits@KU_Friend@@U?$less@K@std@@V?$allocator@U?$pair@$$CBKU_Friend@@@std@@@3@$0A@@std@@@2@PAU342@@Z
_TEXT	SEGMENT PARA USE32 PUBLIC 'CODE'
_TEXT	ENDS
;	COMDAT ?_Min@?$_Tree@V?$_Tmap_traits@KU_Friend@@U?$less@K@std@@V?$allocator@U?$pair@$$CBKU_Friend@@@std@@@3@$0A@@std@@@std@@KAPAU_Node@?$_Tree_nod@V?$_Tmap_traits@KU_Friend@@U?$less@K@std@@V?$allocator@U?$pair@$$CBKU_Friend@@@std@@@3@$0A@@std@@@2@PAU342@@Z
_TEXT	SEGMENT PARA USE32 PUBLIC 'CODE'
_TEXT	ENDS
;	COMDAT ?_Rmost@?$_Tree@V?$_Tmap_traits@KU_Friend@@U?$less@K@std@@V?$allocator@U?$pair@$$CBKU_Friend@@@std@@@3@$0A@@std@@@std@@IAEAAPAU_Node@?$_Tree_nod@V?$_Tmap_traits@KU_Friend@@U?$less@K@std@@V?$allocator@U?$pair@$$CBKU_Friend@@@std@@@3@$0A@@std@@@2@XZ
_TEXT	SEGMENT PARA USE32 PUBLIC 'CODE'
_TEXT	ENDS
;	COMDAT ?_Root@?$_Tree@V?$_Tmap_traits@KU_Friend@@U?$less@K@std@@V?$allocator@U?$pair@$$CBKU_Friend@@@std@@@3@$0A@@std@@@std@@IAEAAPAU_Node@?$_Tree_nod@V?$_Tmap_traits@KU_Friend@@U?$less@K@std@@V?$allocator@U?$pair@$$CBKU_Friend@@@std@@@3@$0A@@std@@@2@XZ
_TEXT	SEGMENT PARA USE32 PUBLIC 'CODE'
_TEXT	ENDS
;	COMDAT ?_Rrotate@?$_Tree@V?$_Tmap_traits@KU_Friend@@U?$less@K@std@@V?$allocator@U?$pair@$$CBKU_Friend@@@std@@@3@$0A@@std@@@std@@IAEXPAU_Node@?$_Tree_nod@V?$_Tmap_traits@KU_Friend@@U?$less@K@std@@V?$allocator@U?$pair@$$CBKU_Friend@@@std@@@3@$0A@@std@@@2@@Z
_TEXT	SEGMENT PARA USE32 PUBLIC 'CODE'
_TEXT	ENDS
;	COMDAT ?_Ubound@?$_Tree@V?$_Tmap_traits@KU_Friend@@U?$less@K@std@@V?$allocator@U?$pair@$$CBKU_Friend@@@std@@@3@$0A@@std@@@std@@IBEPAU_Node@?$_Tree_nod@V?$_Tmap_traits@KU_Friend@@U?$less@K@std@@V?$allocator@U?$pair@$$CBKU_Friend@@@std@@@3@$0A@@std@@@2@ABK@Z
_TEXT	SEGMENT PARA USE32 PUBLIC 'CODE'
_TEXT	ENDS
;	COMDAT ?deallocate@?$allocator@U_Node@?$_Tree_nod@V?$_Tmap_traits@KU_Friend@@U?$less@K@std@@V?$allocator@U?$pair@$$CBKU_Friend@@@std@@@3@$0A@@std@@@std@@@std@@QAEXPAU_Node@?$_Tree_nod@V?$_Tmap_traits@KU_Friend@@U?$less@K@std@@V?$allocator@U?$pair@$$CBKU_Friend@@@std@@@3@$0A@@std@@@2@I@Z
_TEXT	SEGMENT PARA USE32 PUBLIC 'CODE'
_TEXT	ENDS
;	COMDAT ?destroy@?$allocator@U_Node@?$_Tree_nod@V?$_Tmap_traits@KU_Friend@@U?$less@K@std@@V?$allocator@U?$pair@$$CBKU_Friend@@@std@@@3@$0A@@std@@@std@@@std@@QAEXPAU_Node@?$_Tree_nod@V?$_Tmap_traits@KU_Friend@@U?$less@K@std@@V?$allocator@U?$pair@$$CBKU_Friend@@@std@@@3@$0A@@std@@@2@@Z
_TEXT	SEGMENT PARA USE32 PUBLIC 'CODE'
_TEXT	ENDS
;	COMDAT ??0iterator@?$_Tree@V?$_Tmap_traits@KU_Friend@@U?$less@K@std@@V?$allocator@U?$pair@$$CBKU_Friend@@@std@@@3@$0A@@std@@@std@@QAE@PAU_Node@?$_Tree_nod@V?$_Tmap_traits@KU_Friend@@U?$less@K@std@@V?$allocator@U?$pair@$$CBKU_Friend@@@std@@@3@$0A@@std@@@2@@Z
_TEXT	SEGMENT PARA USE32 PUBLIC 'CODE'
_TEXT	ENDS
;	COMDAT ??Eiterator@?$_Tree@V?$_Tmap_traits@KU_Friend@@U?$less@K@std@@V?$allocator@U?$pair@$$CBKU_Friend@@@std@@@3@$0A@@std@@@std@@QAEAAV012@XZ
_TEXT	SEGMENT PARA USE32 PUBLIC 'CODE'
_TEXT	ENDS
;	COMDAT ?_Mynode@const_iterator@?$_Tree@V?$_Tmap_traits@KU_Friend@@U?$less@K@std@@V?$allocator@U?$pair@$$CBKU_Friend@@@std@@@3@$0A@@std@@@std@@QBEPAU_Node@?$_Tree_nod@V?$_Tmap_traits@KU_Friend@@U?$less@K@std@@V?$allocator@U?$pair@$$CBKU_Friend@@@std@@@3@$0A@@std@@@3@XZ
_TEXT	SEGMENT PARA USE32 PUBLIC 'CODE'
_TEXT	ENDS
;	COMDAT ?max_size@?$allocator@U__SECRETROOM_MONSTER@@@std@@QBEIXZ
_TEXT	SEGMENT PARA USE32 PUBLIC 'CODE'
_TEXT	ENDS
;	COMDAT ?max_size@?$vector@UMINIGMAME_PRIZE_LIST@CRainbowRaceMng@@V?$allocator@UMINIGMAME_PRIZE_LIST@CRainbowRaceMng@@@std@@@std@@QBEIXZ
_TEXT	SEGMENT PARA USE32 PUBLIC 'CODE'
_TEXT	ENDS
;	COMDAT ?_Destroy@?$vector@UMINIGMAME_PRIZE_LIST@CRainbowRaceMng@@V?$allocator@UMINIGMAME_PRIZE_LIST@CRainbowRaceMng@@@std@@@std@@IAEXPAUMINIGMAME_PRIZE_LIST@CRainbowRaceMng@@0@Z
_TEXT	SEGMENT PARA USE32 PUBLIC 'CODE'
_TEXT	ENDS
;	COMDAT ?_Xlen@?$vector@UMINIGMAME_PRIZE_LIST@CRainbowRaceMng@@V?$allocator@UMINIGMAME_PRIZE_LIST@CRainbowRaceMng@@@std@@@std@@IBEXXZ
_TEXT	SEGMENT PARA USE32 PUBLIC 'CODE'
_TEXT	ENDS
;	COMDAT ?deallocate@?$allocator@UMINIGMAME_PRIZE_LIST@CRainbowRaceMng@@@std@@QAEXPAUMINIGMAME_PRIZE_LIST@CRainbowRaceMng@@I@Z
_TEXT	SEGMENT PARA USE32 PUBLIC 'CODE'
_TEXT	ENDS
;	COMDAT ?allocate@?$allocator@UMINIGMAME_PRIZE_LIST@CRainbowRaceMng@@@std@@QAEPAUMINIGMAME_PRIZE_LIST@CRainbowRaceMng@@I@Z
_TEXT	SEGMENT PARA USE32 PUBLIC 'CODE'
_TEXT	ENDS
;	COMDAT ?max_size@?$allocator@U?$pair@$$CBKPAVCGuildHouseBase@@@std@@@std@@QBEIXZ
_TEXT	SEGMENT PARA USE32 PUBLIC 'CODE'
_TEXT	ENDS
;	COMDAT ?deallocate@?$allocator@U_Node@?$_Tree_nod@V?$_Tmap_traits@KPAVCGuildHouseBase@@U?$less@K@std@@V?$allocator@U?$pair@$$CBKPAVCGuildHouseBase@@@std@@@3@$0A@@std@@@std@@@std@@QAEXPAU_Node@?$_Tree_nod@V?$_Tmap_traits@KPAVCGuildHouseBase@@U?$less@K@std@@V?$allocator@U?$pair@$$CBKPAVCGuildHouseBase@@@std@@@3@$0A@@std@@@2@I@Z
_TEXT	SEGMENT PARA USE32 PUBLIC 'CODE'
_TEXT	ENDS
;	COMDAT ?allocate@?$allocator@U_Node@?$_Tree_nod@V?$_Tmap_traits@KPAVCGuildHouseBase@@U?$less@K@std@@V?$allocator@U?$pair@$$CBKPAVCGuildHouseBase@@@std@@@3@$0A@@std@@@std@@@std@@QAEPAU_Node@?$_Tree_nod@V?$_Tmap_traits@KPAVCGuildHouseBase@@U?$less@K@std@@V?$allocator@U?$pair@$$CBKPAVCGuildHouseBase@@@std@@@3@$0A@@std@@@2@I@Z
_TEXT	SEGMENT PARA USE32 PUBLIC 'CODE'
_TEXT	ENDS
;	COMDAT ?_Dec@const_iterator@?$_Tree@V?$_Tmap_traits@KPAVCGuildHouseBase@@U?$less@K@std@@V?$allocator@U?$pair@$$CBKPAVCGuildHouseBase@@@std@@@3@$0A@@std@@@std@@QAEXXZ
_TEXT	SEGMENT PARA USE32 PUBLIC 'CODE'
_TEXT	ENDS
;	COMDAT ?_Color@?$_Tree@V?$_Tmap_traits@KKU?$less@K@std@@V?$allocator@U?$pair@$$CBKK@std@@@2@$0A@@std@@@std@@KAAADPAU_Node@?$_Tree_nod@V?$_Tmap_traits@KKU?$less@K@std@@V?$allocator@U?$pair@$$CBKK@std@@@2@$0A@@std@@@2@@Z
_TEXT	SEGMENT PARA USE32 PUBLIC 'CODE'
_TEXT	ENDS
;	COMDAT ?_Isnil@?$_Tree@V?$_Tmap_traits@KKU?$less@K@std@@V?$allocator@U?$pair@$$CBKK@std@@@2@$0A@@std@@@std@@KAAADPAU_Node@?$_Tree_nod@V?$_Tmap_traits@KKU?$less@K@std@@V?$allocator@U?$pair@$$CBKK@std@@@2@$0A@@std@@@2@@Z
_TEXT	SEGMENT PARA USE32 PUBLIC 'CODE'
_TEXT	ENDS
;	COMDAT ?_Left@?$_Tree@V?$_Tmap_traits@KKU?$less@K@std@@V?$allocator@U?$pair@$$CBKK@std@@@2@$0A@@std@@@std@@KAAAPAU_Node@?$_Tree_nod@V?$_Tmap_traits@KKU?$less@K@std@@V?$allocator@U?$pair@$$CBKK@std@@@2@$0A@@std@@@2@PAU342@@Z
_TEXT	SEGMENT PARA USE32 PUBLIC 'CODE'
_TEXT	ENDS
;	COMDAT ?_Parent@?$_Tree@V?$_Tmap_traits@KKU?$less@K@std@@V?$allocator@U?$pair@$$CBKK@std@@@2@$0A@@std@@@std@@KAAAPAU_Node@?$_Tree_nod@V?$_Tmap_traits@KKU?$less@K@std@@V?$allocator@U?$pair@$$CBKK@std@@@2@$0A@@std@@@2@PAU342@@Z
_TEXT	SEGMENT PARA USE32 PUBLIC 'CODE'
_TEXT	ENDS
;	COMDAT ?_Right@?$_Tree@V?$_Tmap_traits@KKU?$less@K@std@@V?$allocator@U?$pair@$$CBKK@std@@@2@$0A@@std@@@std@@KAAAPAU_Node@?$_Tree_nod@V?$_Tmap_traits@KKU?$less@K@std@@V?$allocator@U?$pair@$$CBKK@std@@@2@$0A@@std@@@2@PAU342@@Z
_TEXT	SEGMENT PARA USE32 PUBLIC 'CODE'
_TEXT	ENDS
;	COMDAT ?_Erase@?$_Tree@V?$_Tmap_traits@KKU?$less@K@std@@V?$allocator@U?$pair@$$CBKK@std@@@2@$0A@@std@@@std@@IAEXPAU_Node@?$_Tree_nod@V?$_Tmap_traits@KKU?$less@K@std@@V?$allocator@U?$pair@$$CBKK@std@@@2@$0A@@std@@@2@@Z
_TEXT	SEGMENT PARA USE32 PUBLIC 'CODE'
_TEXT	ENDS
;	COMDAT ?_Lbound@?$_Tree@V?$_Tmap_traits@KKU?$less@K@std@@V?$allocator@U?$pair@$$CBKK@std@@@2@$0A@@std@@@std@@IBEPAU_Node@?$_Tree_nod@V?$_Tmap_traits@KKU?$less@K@std@@V?$allocator@U?$pair@$$CBKK@std@@@2@$0A@@std@@@2@ABK@Z
_TEXT	SEGMENT PARA USE32 PUBLIC 'CODE'
_TEXT	ENDS
;	COMDAT ?_Lmost@?$_Tree@V?$_Tmap_traits@KKU?$less@K@std@@V?$allocator@U?$pair@$$CBKK@std@@@2@$0A@@std@@@std@@IAEAAPAU_Node@?$_Tree_nod@V?$_Tmap_traits@KKU?$less@K@std@@V?$allocator@U?$pair@$$CBKK@std@@@2@$0A@@std@@@2@XZ
_TEXT	SEGMENT PARA USE32 PUBLIC 'CODE'
_TEXT	ENDS
;	COMDAT ?_Lrotate@?$_Tree@V?$_Tmap_traits@KKU?$less@K@std@@V?$allocator@U?$pair@$$CBKK@std@@@2@$0A@@std@@@std@@IAEXPAU_Node@?$_Tree_nod@V?$_Tmap_traits@KKU?$less@K@std@@V?$allocator@U?$pair@$$CBKK@std@@@2@$0A@@std@@@2@@Z
_TEXT	SEGMENT PARA USE32 PUBLIC 'CODE'
_TEXT	ENDS
;	COMDAT ?_Max@?$_Tree@V?$_Tmap_traits@KKU?$less@K@std@@V?$allocator@U?$pair@$$CBKK@std@@@2@$0A@@std@@@std@@KAPAU_Node@?$_Tree_nod@V?$_Tmap_traits@KKU?$less@K@std@@V?$allocator@U?$pair@$$CBKK@std@@@2@$0A@@std@@@2@PAU342@@Z
_TEXT	SEGMENT PARA USE32 PUBLIC 'CODE'
_TEXT	ENDS
;	COMDAT ?_Min@?$_Tree@V?$_Tmap_traits@KKU?$less@K@std@@V?$allocator@U?$pair@$$CBKK@std@@@2@$0A@@std@@@std@@KAPAU_Node@?$_Tree_nod@V?$_Tmap_traits@KKU?$less@K@std@@V?$allocator@U?$pair@$$CBKK@std@@@2@$0A@@std@@@2@PAU342@@Z
_TEXT	SEGMENT PARA USE32 PUBLIC 'CODE'
_TEXT	ENDS
;	COMDAT ?_Rmost@?$_Tree@V?$_Tmap_traits@KKU?$less@K@std@@V?$allocator@U?$pair@$$CBKK@std@@@2@$0A@@std@@@std@@IAEAAPAU_Node@?$_Tree_nod@V?$_Tmap_traits@KKU?$less@K@std@@V?$allocator@U?$pair@$$CBKK@std@@@2@$0A@@std@@@2@XZ
_TEXT	SEGMENT PARA USE32 PUBLIC 'CODE'
_TEXT	ENDS
;	COMDAT ?_Root@?$_Tree@V?$_Tmap_traits@KKU?$less@K@std@@V?$allocator@U?$pair@$$CBKK@std@@@2@$0A@@std@@@std@@IAEAAPAU_Node@?$_Tree_nod@V?$_Tmap_traits@KKU?$less@K@std@@V?$allocator@U?$pair@$$CBKK@std@@@2@$0A@@std@@@2@XZ
_TEXT	SEGMENT PARA USE32 PUBLIC 'CODE'
_TEXT	ENDS
;	COMDAT ?_Rrotate@?$_Tree@V?$_Tmap_traits@KKU?$less@K@std@@V?$allocator@U?$pair@$$CBKK@std@@@2@$0A@@std@@@std@@IAEXPAU_Node@?$_Tree_nod@V?$_Tmap_traits@KKU?$less@K@std@@V?$allocator@U?$pair@$$CBKK@std@@@2@$0A@@std@@@2@@Z
_TEXT	SEGMENT PARA USE32 PUBLIC 'CODE'
_TEXT	ENDS
;	COMDAT ?_Ubound@?$_Tree@V?$_Tmap_traits@KKU?$less@K@std@@V?$allocator@U?$pair@$$CBKK@std@@@2@$0A@@std@@@std@@IBEPAU_Node@?$_Tree_nod@V?$_Tmap_traits@KKU?$less@K@std@@V?$allocator@U?$pair@$$CBKK@std@@@2@$0A@@std@@@2@ABK@Z
_TEXT	SEGMENT PARA USE32 PUBLIC 'CODE'
_TEXT	ENDS
;	COMDAT ?deallocate@?$allocator@U_Node@?$_Tree_nod@V?$_Tmap_traits@KKU?$less@K@std@@V?$allocator@U?$pair@$$CBKK@std@@@2@$0A@@std@@@std@@@std@@QAEXPAU_Node@?$_Tree_nod@V?$_Tmap_traits@KKU?$less@K@std@@V?$allocator@U?$pair@$$CBKK@std@@@2@$0A@@std@@@2@I@Z
_TEXT	SEGMENT PARA USE32 PUBLIC 'CODE'
_TEXT	ENDS
;	COMDAT ?destroy@?$allocator@U_Node@?$_Tree_nod@V?$_Tmap_traits@KKU?$less@K@std@@V?$allocator@U?$pair@$$CBKK@std@@@2@$0A@@std@@@std@@@std@@QAEXPAU_Node@?$_Tree_nod@V?$_Tmap_traits@KKU?$less@K@std@@V?$allocator@U?$pair@$$CBKK@std@@@2@$0A@@std@@@2@@Z
_TEXT	SEGMENT PARA USE32 PUBLIC 'CODE'
_TEXT	ENDS
;	COMDAT ??0iterator@?$_Tree@V?$_Tmap_traits@KKU?$less@K@std@@V?$allocator@U?$pair@$$CBKK@std@@@2@$0A@@std@@@std@@QAE@PAU_Node@?$_Tree_nod@V?$_Tmap_traits@KKU?$less@K@std@@V?$allocator@U?$pair@$$CBKK@std@@@2@$0A@@std@@@2@@Z
_TEXT	SEGMENT PARA USE32 PUBLIC 'CODE'
_TEXT	ENDS
;	COMDAT ??Eiterator@?$_Tree@V?$_Tmap_traits@KKU?$less@K@std@@V?$allocator@U?$pair@$$CBKK@std@@@2@$0A@@std@@@std@@QAEAAV012@XZ
_TEXT	SEGMENT PARA USE32 PUBLIC 'CODE'
_TEXT	ENDS
;	COMDAT ?_Mynode@const_iterator@?$_Tree@V?$_Tmap_traits@KKU?$less@K@std@@V?$allocator@U?$pair@$$CBKK@std@@@2@$0A@@std@@@std@@QBEPAU_Node@?$_Tree_nod@V?$_Tmap_traits@KKU?$less@K@std@@V?$allocator@U?$pair@$$CBKK@std@@@2@$0A@@std@@@3@XZ
_TEXT	SEGMENT PARA USE32 PUBLIC 'CODE'
_TEXT	ENDS
;	COMDAT ?_Isnil@?$_Tree@V?$_Tmap_traits@KPAVCClientSock@@U?$less@K@std@@V?$allocator@U?$pair@$$CBKPAVCClientSock@@@std@@@3@$0A@@std@@@std@@KAAADPAU_Node@?$_Tree_nod@V?$_Tmap_traits@KPAVCClientSock@@U?$less@K@std@@V?$allocator@U?$pair@$$CBKPAVCClientSock@@@std@@@3@$0A@@std@@@2@@Z
_TEXT	SEGMENT PARA USE32 PUBLIC 'CODE'
_TEXT	ENDS
;	COMDAT ?erase@?$_Tree@V?$_Tmap_traits@KPAVCClientSock@@U?$less@K@std@@V?$allocator@U?$pair@$$CBKPAVCClientSock@@@std@@@3@$0A@@std@@@std@@QAE?AViterator@12@V312@@Z
_TEXT	SEGMENT PARA USE32 PUBLIC 'CODE'
_TEXT	ENDS
;	COMDAT ?clear@?$_Tree@V?$_Tmap_traits@KPAVCClientSock@@U?$less@K@std@@V?$allocator@U?$pair@$$CBKPAVCClientSock@@@std@@@3@$0A@@std@@@std@@QAEXXZ
_TEXT	SEGMENT PARA USE32 PUBLIC 'CODE'
_TEXT	ENDS
;	COMDAT ?_Lmost@?$_Tree@V?$_Tmap_traits@KPAVCClientSock@@U?$less@K@std@@V?$allocator@U?$pair@$$CBKPAVCClientSock@@@std@@@3@$0A@@std@@@std@@IAEAAPAU_Node@?$_Tree_nod@V?$_Tmap_traits@KPAVCClientSock@@U?$less@K@std@@V?$allocator@U?$pair@$$CBKPAVCClientSock@@@std@@@3@$0A@@std@@@2@XZ
_TEXT	SEGMENT PARA USE32 PUBLIC 'CODE'
_TEXT	ENDS
;	COMDAT ?_Rmost@?$_Tree@V?$_Tmap_traits@KPAVCClientSock@@U?$less@K@std@@V?$allocator@U?$pair@$$CBKPAVCClientSock@@@std@@@3@$0A@@std@@@std@@IAEAAPAU_Node@?$_Tree_nod@V?$_Tmap_traits@KPAVCClientSock@@U?$less@K@std@@V?$allocator@U?$pair@$$CBKPAVCClientSock@@@std@@@3@$0A@@std@@@2@XZ
_TEXT	SEGMENT PARA USE32 PUBLIC 'CODE'
_TEXT	ENDS
;	COMDAT ?_Root@?$_Tree@V?$_Tmap_traits@KPAVCClientSock@@U?$less@K@std@@V?$allocator@U?$pair@$$CBKPAVCClientSock@@@std@@@3@$0A@@std@@@std@@IAEAAPAU_Node@?$_Tree_nod@V?$_Tmap_traits@KPAVCClientSock@@U?$less@K@std@@V?$allocator@U?$pair@$$CBKPAVCClientSock@@@std@@@3@$0A@@std@@@2@XZ
_TEXT	SEGMENT PARA USE32 PUBLIC 'CODE'
_TEXT	ENDS
;	COMDAT ?_Root@?$_Tree@V?$_Tmap_traits@KPAVCClientSock@@U?$less@K@std@@V?$allocator@U?$pair@$$CBKPAVCClientSock@@@std@@@3@$0A@@std@@@std@@IBEAAPAU_Node@?$_Tree_nod@V?$_Tmap_traits@KPAVCClientSock@@U?$less@K@std@@V?$allocator@U?$pair@$$CBKPAVCClientSock@@@std@@@3@$0A@@std@@@2@XZ
_TEXT	SEGMENT PARA USE32 PUBLIC 'CODE'
_TEXT	ENDS
;	COMDAT ?_Buynode@?$_Tree@V?$_Tmap_traits@KPAVCClientSock@@U?$less@K@std@@V?$allocator@U?$pair@$$CBKPAVCClientSock@@@std@@@3@$0A@@std@@@std@@IAEPAU_Node@?$_Tree_nod@V?$_Tmap_traits@KPAVCClientSock@@U?$less@K@std@@V?$allocator@U?$pair@$$CBKPAVCClientSock@@@std@@@3@$0A@@std@@@2@XZ
_TEXT	SEGMENT PARA USE32 PUBLIC 'CODE'
_TEXT	ENDS
;	COMDAT ??0?$_Tree_ptr@V?$_Tmap_traits@KPAVCClientSock@@U?$less@K@std@@V?$allocator@U?$pair@$$CBKPAVCClientSock@@@std@@@3@$0A@@std@@@std@@IAE@ABU?$less@K@1@V?$allocator@U?$pair@$$CBKPAVCClientSock@@@std@@@1@@Z
_TEXT	SEGMENT PARA USE32 PUBLIC 'CODE'
_TEXT	ENDS
;	COMDAT ??Eiterator@?$_Tree@V?$_Tmap_traits@KPAVCClientSock@@U?$less@K@std@@V?$allocator@U?$pair@$$CBKPAVCClientSock@@@std@@@3@$0A@@std@@@std@@QAE?AV012@H@Z
_TEXT	SEGMENT PARA USE32 PUBLIC 'CODE'
_TEXT	ENDS
;	COMDAT ?_Isnil@?$_Tree@V?$_Tmap_traits@KPAVCClientSockE@@U?$less@K@std@@V?$allocator@U?$pair@$$CBKPAVCClientSockE@@@std@@@3@$0A@@std@@@std@@KAAADPAU_Node@?$_Tree_nod@V?$_Tmap_traits@KPAVCClientSockE@@U?$less@K@std@@V?$allocator@U?$pair@$$CBKPAVCClientSockE@@@std@@@3@$0A@@std@@@2@@Z
_TEXT	SEGMENT PARA USE32 PUBLIC 'CODE'
_TEXT	ENDS
;	COMDAT ?erase@?$_Tree@V?$_Tmap_traits@KPAVCClientSockE@@U?$less@K@std@@V?$allocator@U?$pair@$$CBKPAVCClientSockE@@@std@@@3@$0A@@std@@@std@@QAE?AViterator@12@V312@@Z
_TEXT	SEGMENT PARA USE32 PUBLIC 'CODE'
_TEXT	ENDS
;	COMDAT ?clear@?$_Tree@V?$_Tmap_traits@KPAVCClientSockE@@U?$less@K@std@@V?$allocator@U?$pair@$$CBKPAVCClientSockE@@@std@@@3@$0A@@std@@@std@@QAEXXZ
_TEXT	SEGMENT PARA USE32 PUBLIC 'CODE'
_TEXT	ENDS
;	COMDAT ?_Lmost@?$_Tree@V?$_Tmap_traits@KPAVCClientSockE@@U?$less@K@std@@V?$allocator@U?$pair@$$CBKPAVCClientSockE@@@std@@@3@$0A@@std@@@std@@IAEAAPAU_Node@?$_Tree_nod@V?$_Tmap_traits@KPAVCClientSockE@@U?$less@K@std@@V?$allocator@U?$pair@$$CBKPAVCClientSockE@@@std@@@3@$0A@@std@@@2@XZ
_TEXT	SEGMENT PARA USE32 PUBLIC 'CODE'
_TEXT	ENDS
;	COMDAT ?_Rmost@?$_Tree@V?$_Tmap_traits@KPAVCClientSockE@@U?$less@K@std@@V?$allocator@U?$pair@$$CBKPAVCClientSockE@@@std@@@3@$0A@@std@@@std@@IAEAAPAU_Node@?$_Tree_nod@V?$_Tmap_traits@KPAVCClientSockE@@U?$less@K@std@@V?$allocator@U?$pair@$$CBKPAVCClientSockE@@@std@@@3@$0A@@std@@@2@XZ
_TEXT	SEGMENT PARA USE32 PUBLIC 'CODE'
_TEXT	ENDS
;	COMDAT ?_Root@?$_Tree@V?$_Tmap_traits@KPAVCClientSockE@@U?$less@K@std@@V?$allocator@U?$pair@$$CBKPAVCClientSockE@@@std@@@3@$0A@@std@@@std@@IAEAAPAU_Node@?$_Tree_nod@V?$_Tmap_traits@KPAVCClientSockE@@U?$less@K@std@@V?$allocator@U?$pair@$$CBKPAVCClientSockE@@@std@@@3@$0A@@std@@@2@XZ
_TEXT	SEGMENT PARA USE32 PUBLIC 'CODE'
_TEXT	ENDS
;	COMDAT ?_Root@?$_Tree@V?$_Tmap_traits@KPAVCClientSockE@@U?$less@K@std@@V?$allocator@U?$pair@$$CBKPAVCClientSockE@@@std@@@3@$0A@@std@@@std@@IBEAAPAU_Node@?$_Tree_nod@V?$_Tmap_traits@KPAVCClientSockE@@U?$less@K@std@@V?$allocator@U?$pair@$$CBKPAVCClientSockE@@@std@@@3@$0A@@std@@@2@XZ
_TEXT	SEGMENT PARA USE32 PUBLIC 'CODE'
_TEXT	ENDS
;	COMDAT ?_Buynode@?$_Tree@V?$_Tmap_traits@KPAVCClientSockE@@U?$less@K@std@@V?$allocator@U?$pair@$$CBKPAVCClientSockE@@@std@@@3@$0A@@std@@@std@@IAEPAU_Node@?$_Tree_nod@V?$_Tmap_traits@KPAVCClientSockE@@U?$less@K@std@@V?$allocator@U?$pair@$$CBKPAVCClientSockE@@@std@@@3@$0A@@std@@@2@XZ
_TEXT	SEGMENT PARA USE32 PUBLIC 'CODE'
_TEXT	ENDS
;	COMDAT ??0?$_Tree_ptr@V?$_Tmap_traits@KPAVCClientSockE@@U?$less@K@std@@V?$allocator@U?$pair@$$CBKPAVCClientSockE@@@std@@@3@$0A@@std@@@std@@IAE@ABU?$less@K@1@V?$allocator@U?$pair@$$CBKPAVCClientSockE@@@std@@@1@@Z
_TEXT	SEGMENT PARA USE32 PUBLIC 'CODE'
_TEXT	ENDS
;	COMDAT ??Eiterator@?$_Tree@V?$_Tmap_traits@KPAVCClientSockE@@U?$less@K@std@@V?$allocator@U?$pair@$$CBKPAVCClientSockE@@@std@@@3@$0A@@std@@@std@@QAE?AV012@H@Z
_TEXT	SEGMENT PARA USE32 PUBLIC 'CODE'
_TEXT	ENDS
;	COMDAT ?_Isnil@?$_Tree@V?$_Tmap_traits@KP8CDPSrvr@@AEXAAVCAr@@KKPAEK@ZU?$less@K@std@@V?$allocator@U?$pair@$$CBKP8CDPSrvr@@AEXAAVCAr@@KKPAEK@Z@std@@@4@$0A@@std@@@std@@KAAADPAU_Node@?$_Tree_nod@V?$_Tmap_traits@KP8CDPSrvr@@AEXAAVCAr@@KKPAEK@ZU?$less@K@std@@V?$allocator@U?$pair@$$CBKP8CDPSrvr@@AEXAAVCAr@@KKPAEK@Z@std@@@4@$0A@@std@@@2@@Z
_TEXT	SEGMENT PARA USE32 PUBLIC 'CODE'
_TEXT	ENDS
;	COMDAT ?_Left@?$_Tree@V?$_Tmap_traits@KP8CDPSrvr@@AEXAAVCAr@@KKPAEK@ZU?$less@K@std@@V?$allocator@U?$pair@$$CBKP8CDPSrvr@@AEXAAVCAr@@KKPAEK@Z@std@@@4@$0A@@std@@@std@@KAAAPAU_Node@?$_Tree_nod@V?$_Tmap_traits@KP8CDPSrvr@@AEXAAVCAr@@KKPAEK@ZU?$less@K@std@@V?$allocator@U?$pair@$$CBKP8CDPSrvr@@AEXAAVCAr@@KKPAEK@Z@std@@@4@$0A@@std@@@2@PAU342@@Z
_TEXT	SEGMENT PARA USE32 PUBLIC 'CODE'
_TEXT	ENDS
;	COMDAT ?_Right@?$_Tree@V?$_Tmap_traits@KP8CDPSrvr@@AEXAAVCAr@@KKPAEK@ZU?$less@K@std@@V?$allocator@U?$pair@$$CBKP8CDPSrvr@@AEXAAVCAr@@KKPAEK@Z@std@@@4@$0A@@std@@@std@@KAAAPAU_Node@?$_Tree_nod@V?$_Tmap_traits@KP8CDPSrvr@@AEXAAVCAr@@KKPAEK@ZU?$less@K@std@@V?$allocator@U?$pair@$$CBKP8CDPSrvr@@AEXAAVCAr@@KKPAEK@Z@std@@@4@$0A@@std@@@2@PAU342@@Z
_TEXT	SEGMENT PARA USE32 PUBLIC 'CODE'
_TEXT	ENDS
;	COMDAT ?_Root@?$_Tree@V?$_Tmap_traits@KP8CDPSrvr@@AEXAAVCAr@@KKPAEK@ZU?$less@K@std@@V?$allocator@U?$pair@$$CBKP8CDPSrvr@@AEXAAVCAr@@KKPAEK@Z@std@@@4@$0A@@std@@@std@@IBEAAPAU_Node@?$_Tree_nod@V?$_Tmap_traits@KP8CDPSrvr@@AEXAAVCAr@@KKPAEK@ZU?$less@K@std@@V?$allocator@U?$pair@$$CBKP8CDPSrvr@@AEXAAVCAr@@KKPAEK@Z@std@@@4@$0A@@std@@@2@XZ
_TEXT	SEGMENT PARA USE32 PUBLIC 'CODE'
_TEXT	ENDS
;	COMDAT ?_Isnil@?$_Tree@V?$_Tmap_traits@KP8CDPCoreClient@@AEXAAVCAr@@KKK@ZU?$less@K@std@@V?$allocator@U?$pair@$$CBKP8CDPCoreClient@@AEXAAVCAr@@KKK@Z@std@@@4@$0A@@std@@@std@@KAAADPAU_Node@?$_Tree_nod@V?$_Tmap_traits@KP8CDPCoreClient@@AEXAAVCAr@@KKK@ZU?$less@K@std@@V?$allocator@U?$pair@$$CBKP8CDPCoreClient@@AEXAAVCAr@@KKK@Z@std@@@4@$0A@@std@@@2@@Z
_TEXT	SEGMENT PARA USE32 PUBLIC 'CODE'
_TEXT	ENDS
;	COMDAT ?_Left@?$_Tree@V?$_Tmap_traits@KP8CDPCoreClient@@AEXAAVCAr@@KKK@ZU?$less@K@std@@V?$allocator@U?$pair@$$CBKP8CDPCoreClient@@AEXAAVCAr@@KKK@Z@std@@@4@$0A@@std@@@std@@KAAAPAU_Node@?$_Tree_nod@V?$_Tmap_traits@KP8CDPCoreClient@@AEXAAVCAr@@KKK@ZU?$less@K@std@@V?$allocator@U?$pair@$$CBKP8CDPCoreClient@@AEXAAVCAr@@KKK@Z@std@@@4@$0A@@std@@@2@PAU342@@Z
_TEXT	SEGMENT PARA USE32 PUBLIC 'CODE'
_TEXT	ENDS
;	COMDAT ?_Right@?$_Tree@V?$_Tmap_traits@KP8CDPCoreClient@@AEXAAVCAr@@KKK@ZU?$less@K@std@@V?$allocator@U?$pair@$$CBKP8CDPCoreClient@@AEXAAVCAr@@KKK@Z@std@@@4@$0A@@std@@@std@@KAAAPAU_Node@?$_Tree_nod@V?$_Tmap_traits@KP8CDPCoreClient@@AEXAAVCAr@@KKK@ZU?$less@K@std@@V?$allocator@U?$pair@$$CBKP8CDPCoreClient@@AEXAAVCAr@@KKK@Z@std@@@4@$0A@@std@@@2@PAU342@@Z
_TEXT	SEGMENT PARA USE32 PUBLIC 'CODE'
_TEXT	ENDS
;	COMDAT ?_Root@?$_Tree@V?$_Tmap_traits@KP8CDPCoreClient@@AEXAAVCAr@@KKK@ZU?$less@K@std@@V?$allocator@U?$pair@$$CBKP8CDPCoreClient@@AEXAAVCAr@@KKK@Z@std@@@4@$0A@@std@@@std@@IBEAAPAU_Node@?$_Tree_nod@V?$_Tmap_traits@KP8CDPCoreClient@@AEXAAVCAr@@KKK@ZU?$less@K@std@@V?$allocator@U?$pair@$$CBKP8CDPCoreClient@@AEXAAVCAr@@KKK@Z@std@@@4@$0A@@std@@@2@XZ
_TEXT	SEGMENT PARA USE32 PUBLIC 'CODE'
_TEXT	ENDS
;	COMDAT ?_Isnil@?$_Tree@V?$_Tmap_traits@KP8CDPDatabaseClient@@AEXAAVCAr@@KK@ZU?$less@K@std@@V?$allocator@U?$pair@$$CBKP8CDPDatabaseClient@@AEXAAVCAr@@KK@Z@std@@@4@$0A@@std@@@std@@KAAADPAU_Node@?$_Tree_nod@V?$_Tmap_traits@KP8CDPDatabaseClient@@AEXAAVCAr@@KK@ZU?$less@K@std@@V?$allocator@U?$pair@$$CBKP8CDPDatabaseClient@@AEXAAVCAr@@KK@Z@std@@@4@$0A@@std@@@2@@Z
_TEXT	SEGMENT PARA USE32 PUBLIC 'CODE'
_TEXT	ENDS
;	COMDAT ?_Left@?$_Tree@V?$_Tmap_traits@KP8CDPDatabaseClient@@AEXAAVCAr@@KK@ZU?$less@K@std@@V?$allocator@U?$pair@$$CBKP8CDPDatabaseClient@@AEXAAVCAr@@KK@Z@std@@@4@$0A@@std@@@std@@KAAAPAU_Node@?$_Tree_nod@V?$_Tmap_traits@KP8CDPDatabaseClient@@AEXAAVCAr@@KK@ZU?$less@K@std@@V?$allocator@U?$pair@$$CBKP8CDPDatabaseClient@@AEXAAVCAr@@KK@Z@std@@@4@$0A@@std@@@2@PAU342@@Z
_TEXT	SEGMENT PARA USE32 PUBLIC 'CODE'
_TEXT	ENDS
;	COMDAT ?_Right@?$_Tree@V?$_Tmap_traits@KP8CDPDatabaseClient@@AEXAAVCAr@@KK@ZU?$less@K@std@@V?$allocator@U?$pair@$$CBKP8CDPDatabaseClient@@AEXAAVCAr@@KK@Z@std@@@4@$0A@@std@@@std@@KAAAPAU_Node@?$_Tree_nod@V?$_Tmap_traits@KP8CDPDatabaseClient@@AEXAAVCAr@@KK@ZU?$less@K@std@@V?$allocator@U?$pair@$$CBKP8CDPDatabaseClient@@AEXAAVCAr@@KK@Z@std@@@4@$0A@@std@@@2@PAU342@@Z
_TEXT	SEGMENT PARA USE32 PUBLIC 'CODE'
_TEXT	ENDS
;	COMDAT ?_Root@?$_Tree@V?$_Tmap_traits@KP8CDPDatabaseClient@@AEXAAVCAr@@KK@ZU?$less@K@std@@V?$allocator@U?$pair@$$CBKP8CDPDatabaseClient@@AEXAAVCAr@@KK@Z@std@@@4@$0A@@std@@@std@@IBEAAPAU_Node@?$_Tree_nod@V?$_Tmap_traits@KP8CDPDatabaseClient@@AEXAAVCAr@@KK@ZU?$less@K@std@@V?$allocator@U?$pair@$$CBKP8CDPDatabaseClient@@AEXAAVCAr@@KK@Z@std@@@4@$0A@@std@@@2@XZ
_TEXT	SEGMENT PARA USE32 PUBLIC 'CODE'
_TEXT	ENDS
;	COMDAT ??0const_iterator@?$vector@PAU__JOINPLAYER@CGuildCombat@@V?$allocator@PAU__JOINPLAYER@CGuildCombat@@@std@@@std@@QAE@PAPAU__JOINPLAYER@CGuildCombat@@@Z
_TEXT	SEGMENT PARA USE32 PUBLIC 'CODE'
_TEXT	ENDS
;	COMDAT ??0const_iterator@?$vector@V?$basic_string@DU?$char_traits@D@std@@V?$allocator@D@2@@std@@V?$allocator@V?$basic_string@DU?$char_traits@D@std@@V?$allocator@D@2@@std@@@2@@std@@QAE@PAV?$basic_string@DU?$char_traits@D@std@@V?$allocator@D@2@@2@@Z
_TEXT	SEGMENT PARA USE32 PUBLIC 'CODE'
_TEXT	ENDS
;	COMDAT ??Gconst_iterator@?$vector@V?$basic_string@DU?$char_traits@D@std@@V?$allocator@D@2@@std@@V?$allocator@V?$basic_string@DU?$char_traits@D@std@@V?$allocator@D@2@@std@@@2@@std@@QBEHABV012@@Z
_TEXT	SEGMENT PARA USE32 PUBLIC 'CODE'
_TEXT	ENDS
;	COMDAT ??Yiterator@?$vector@UMINIGMAME_PRIZE_LIST@CRainbowRaceMng@@V?$allocator@UMINIGMAME_PRIZE_LIST@CRainbowRaceMng@@@std@@@std@@QAEAAV012@H@Z
_TEXT	SEGMENT PARA USE32 PUBLIC 'CODE'
_TEXT	ENDS
;	COMDAT ??0const_iterator@?$vector@UMINIGMAME_PRIZE_LIST@CRainbowRaceMng@@V?$allocator@UMINIGMAME_PRIZE_LIST@CRainbowRaceMng@@@std@@@std@@QAE@PAUMINIGMAME_PRIZE_LIST@CRainbowRaceMng@@@Z
_TEXT	SEGMENT PARA USE32 PUBLIC 'CODE'
_TEXT	ENDS
;	COMDAT ??Gconst_iterator@?$vector@UMINIGMAME_PRIZE_LIST@CRainbowRaceMng@@V?$allocator@UMINIGMAME_PRIZE_LIST@CRainbowRaceMng@@@std@@@std@@QBEHABV012@@Z
_TEXT	SEGMENT PARA USE32 PUBLIC 'CODE'
_TEXT	ENDS
;	COMDAT ??0const_iterator@?$vector@PAVCMiniGameBase@@V?$allocator@PAVCMiniGameBase@@@std@@@std@@QAE@PAPAVCMiniGameBase@@@Z
_TEXT	SEGMENT PARA USE32 PUBLIC 'CODE'
_TEXT	ENDS
;	COMDAT ??0const_iterator@?$vector@UGuildHouse_Furniture_Info@CGuildHouseBase@@V?$allocator@UGuildHouse_Furniture_Info@CGuildHouseBase@@@std@@@std@@QAE@PAUGuildHouse_Furniture_Info@CGuildHouseBase@@@Z
_TEXT	SEGMENT PARA USE32 PUBLIC 'CODE'
_TEXT	ENDS
;	COMDAT ??0_Node@?$_Tree_nod@V?$_Tmap_traits@KPAVCGuildHouseBase@@U?$less@K@std@@V?$allocator@U?$pair@$$CBKPAVCGuildHouseBase@@@std@@@3@$0A@@std@@@std@@QAE@PAU012@00ABU?$pair@$$CBKPAVCGuildHouseBase@@@2@D@Z
_TEXT	SEGMENT PARA USE32 PUBLIC 'CODE'
_TEXT	ENDS
;	COMDAT ?_Key@?$_Tree@V?$_Tmap_traits@KU_Friend@@U?$less@K@std@@V?$allocator@U?$pair@$$CBKU_Friend@@@std@@@3@$0A@@std@@@std@@KAABKPAU_Node@?$_Tree_nod@V?$_Tmap_traits@KU_Friend@@U?$less@K@std@@V?$allocator@U?$pair@$$CBKU_Friend@@@std@@@3@$0A@@std@@@2@@Z
_TEXT	SEGMENT PARA USE32 PUBLIC 'CODE'
_TEXT	ENDS
;	COMDAT ?_Root@?$_Tree@V?$_Tmap_traits@KU_Friend@@U?$less@K@std@@V?$allocator@U?$pair@$$CBKU_Friend@@@std@@@3@$0A@@std@@@std@@IBEAAPAU_Node@?$_Tree_nod@V?$_Tmap_traits@KU_Friend@@U?$less@K@std@@V?$allocator@U?$pair@$$CBKU_Friend@@@std@@@3@$0A@@std@@@2@XZ
_TEXT	SEGMENT PARA USE32 PUBLIC 'CODE'
_TEXT	ENDS
;	COMDAT ??0const_iterator@?$_Tree@V?$_Tmap_traits@KU_Friend@@U?$less@K@std@@V?$allocator@U?$pair@$$CBKU_Friend@@@std@@@3@$0A@@std@@@std@@QAE@PAU_Node@?$_Tree_nod@V?$_Tmap_traits@KU_Friend@@U?$less@K@std@@V?$allocator@U?$pair@$$CBKU_Friend@@@std@@@3@$0A@@std@@@2@@Z
_TEXT	SEGMENT PARA USE32 PUBLIC 'CODE'
_TEXT	ENDS
;	COMDAT ??Econst_iterator@?$_Tree@V?$_Tmap_traits@KU_Friend@@U?$less@K@std@@V?$allocator@U?$pair@$$CBKU_Friend@@@std@@@3@$0A@@std@@@std@@QAEAAV012@XZ
_TEXT	SEGMENT PARA USE32 PUBLIC 'CODE'
_TEXT	ENDS
;	COMDAT ?max_size@?$allocator@UMINIGMAME_PRIZE_LIST@CRainbowRaceMng@@@std@@QBEIXZ
_TEXT	SEGMENT PARA USE32 PUBLIC 'CODE'
_TEXT	ENDS
;	COMDAT ?_Max@?$_Tree@V?$_Tmap_traits@KPAVCGuildHouseBase@@U?$less@K@std@@V?$allocator@U?$pair@$$CBKPAVCGuildHouseBase@@@std@@@3@$0A@@std@@@std@@KAPAU_Node@?$_Tree_nod@V?$_Tmap_traits@KPAVCGuildHouseBase@@U?$less@K@std@@V?$allocator@U?$pair@$$CBKPAVCGuildHouseBase@@@std@@@3@$0A@@std@@@2@PAU342@@Z
_TEXT	SEGMENT PARA USE32 PUBLIC 'CODE'
_TEXT	ENDS
;	COMDAT ?_Key@?$_Tree@V?$_Tmap_traits@KKU?$less@K@std@@V?$allocator@U?$pair@$$CBKK@std@@@2@$0A@@std@@@std@@KAABKPAU_Node@?$_Tree_nod@V?$_Tmap_traits@KKU?$less@K@std@@V?$allocator@U?$pair@$$CBKK@std@@@2@$0A@@std@@@2@@Z
_TEXT	SEGMENT PARA USE32 PUBLIC 'CODE'
_TEXT	ENDS
;	COMDAT ?_Root@?$_Tree@V?$_Tmap_traits@KKU?$less@K@std@@V?$allocator@U?$pair@$$CBKK@std@@@2@$0A@@std@@@std@@IBEAAPAU_Node@?$_Tree_nod@V?$_Tmap_traits@KKU?$less@K@std@@V?$allocator@U?$pair@$$CBKK@std@@@2@$0A@@std@@@2@XZ
_TEXT	SEGMENT PARA USE32 PUBLIC 'CODE'
_TEXT	ENDS
;	COMDAT ??0const_iterator@?$_Tree@V?$_Tmap_traits@KKU?$less@K@std@@V?$allocator@U?$pair@$$CBKK@std@@@2@$0A@@std@@@std@@QAE@PAU_Node@?$_Tree_nod@V?$_Tmap_traits@KKU?$less@K@std@@V?$allocator@U?$pair@$$CBKK@std@@@2@$0A@@std@@@2@@Z
_TEXT	SEGMENT PARA USE32 PUBLIC 'CODE'
_TEXT	ENDS
;	COMDAT ??Econst_iterator@?$_Tree@V?$_Tmap_traits@KKU?$less@K@std@@V?$allocator@U?$pair@$$CBKK@std@@@2@$0A@@std@@@std@@QAEAAV012@XZ
_TEXT	SEGMENT PARA USE32 PUBLIC 'CODE'
_TEXT	ENDS
;	COMDAT ?_Color@?$_Tree@V?$_Tmap_traits@KPAVCClientSock@@U?$less@K@std@@V?$allocator@U?$pair@$$CBKPAVCClientSock@@@std@@@3@$0A@@std@@@std@@KAAADPAU_Node@?$_Tree_nod@V?$_Tmap_traits@KPAVCClientSock@@U?$less@K@std@@V?$allocator@U?$pair@$$CBKPAVCClientSock@@@std@@@3@$0A@@std@@@2@@Z
_TEXT	SEGMENT PARA USE32 PUBLIC 'CODE'
_TEXT	ENDS
;	COMDAT ?_Erase@?$_Tree@V?$_Tmap_traits@KPAVCClientSock@@U?$less@K@std@@V?$allocator@U?$pair@$$CBKPAVCClientSock@@@std@@@3@$0A@@std@@@std@@IAEXPAU_Node@?$_Tree_nod@V?$_Tmap_traits@KPAVCClientSock@@U?$less@K@std@@V?$allocator@U?$pair@$$CBKPAVCClientSock@@@std@@@3@$0A@@std@@@2@@Z
_TEXT	SEGMENT PARA USE32 PUBLIC 'CODE'
_TEXT	ENDS
;	COMDAT ?_Lrotate@?$_Tree@V?$_Tmap_traits@KPAVCClientSock@@U?$less@K@std@@V?$allocator@U?$pair@$$CBKPAVCClientSock@@@std@@@3@$0A@@std@@@std@@IAEXPAU_Node@?$_Tree_nod@V?$_Tmap_traits@KPAVCClientSock@@U?$less@K@std@@V?$allocator@U?$pair@$$CBKPAVCClientSock@@@std@@@3@$0A@@std@@@2@@Z
_TEXT	SEGMENT PARA USE32 PUBLIC 'CODE'
_TEXT	ENDS
;	COMDAT ?_Max@?$_Tree@V?$_Tmap_traits@KPAVCClientSock@@U?$less@K@std@@V?$allocator@U?$pair@$$CBKPAVCClientSock@@@std@@@3@$0A@@std@@@std@@KAPAU_Node@?$_Tree_nod@V?$_Tmap_traits@KPAVCClientSock@@U?$less@K@std@@V?$allocator@U?$pair@$$CBKPAVCClientSock@@@std@@@3@$0A@@std@@@2@PAU342@@Z
_TEXT	SEGMENT PARA USE32 PUBLIC 'CODE'
_TEXT	ENDS
;	COMDAT ?_Min@?$_Tree@V?$_Tmap_traits@KPAVCClientSock@@U?$less@K@std@@V?$allocator@U?$pair@$$CBKPAVCClientSock@@@std@@@3@$0A@@std@@@std@@KAPAU_Node@?$_Tree_nod@V?$_Tmap_traits@KPAVCClientSock@@U?$less@K@std@@V?$allocator@U?$pair@$$CBKPAVCClientSock@@@std@@@3@$0A@@std@@@2@PAU342@@Z
_TEXT	SEGMENT PARA USE32 PUBLIC 'CODE'
_TEXT	ENDS
;	COMDAT ?_Rrotate@?$_Tree@V?$_Tmap_traits@KPAVCClientSock@@U?$less@K@std@@V?$allocator@U?$pair@$$CBKPAVCClientSock@@@std@@@3@$0A@@std@@@std@@IAEXPAU_Node@?$_Tree_nod@V?$_Tmap_traits@KPAVCClientSock@@U?$less@K@std@@V?$allocator@U?$pair@$$CBKPAVCClientSock@@@std@@@3@$0A@@std@@@2@@Z
_TEXT	SEGMENT PARA USE32 PUBLIC 'CODE'
_TEXT	ENDS
;	COMDAT ??0?$_Tree_nod@V?$_Tmap_traits@KPAVCClientSock@@U?$less@K@std@@V?$allocator@U?$pair@$$CBKPAVCClientSock@@@std@@@3@$0A@@std@@@std@@IAE@ABU?$less@K@1@V?$allocator@U?$pair@$$CBKPAVCClientSock@@@std@@@1@@Z
_TEXT	SEGMENT PARA USE32 PUBLIC 'CODE'
_TEXT	ENDS
;	COMDAT ?allocate@?$allocator@U_Node@?$_Tree_nod@V?$_Tmap_traits@KPAVCClientSock@@U?$less@K@std@@V?$allocator@U?$pair@$$CBKPAVCClientSock@@@std@@@3@$0A@@std@@@std@@@std@@QAEPAU_Node@?$_Tree_nod@V?$_Tmap_traits@KPAVCClientSock@@U?$less@K@std@@V?$allocator@U?$pair@$$CBKPAVCClientSock@@@std@@@3@$0A@@std@@@2@I@Z
_TEXT	SEGMENT PARA USE32 PUBLIC 'CODE'
_TEXT	ENDS
;	COMDAT ?destroy@?$allocator@U_Node@?$_Tree_nod@V?$_Tmap_traits@KPAVCClientSock@@U?$less@K@std@@V?$allocator@U?$pair@$$CBKPAVCClientSock@@@std@@@3@$0A@@std@@@std@@@std@@QAEXPAU_Node@?$_Tree_nod@V?$_Tmap_traits@KPAVCClientSock@@U?$less@K@std@@V?$allocator@U?$pair@$$CBKPAVCClientSock@@@std@@@3@$0A@@std@@@2@@Z
_TEXT	SEGMENT PARA USE32 PUBLIC 'CODE'
_TEXT	ENDS
;	COMDAT ?construct@?$allocator@PAU_Node@?$_Tree_nod@V?$_Tmap_traits@KPAVCClientSock@@U?$less@K@std@@V?$allocator@U?$pair@$$CBKPAVCClientSock@@@std@@@3@$0A@@std@@@std@@@std@@QAEXPAPAU_Node@?$_Tree_nod@V?$_Tmap_traits@KPAVCClientSock@@U?$less@K@std@@V?$allocator@U?$pair@$$CBKPAVCClientSock@@@std@@@3@$0A@@std@@@2@ABQAU342@@Z
_TEXT	SEGMENT PARA USE32 PUBLIC 'CODE'
_TEXT	ENDS
;	COMDAT ??Eiterator@?$_Tree@V?$_Tmap_traits@KPAVCClientSock@@U?$less@K@std@@V?$allocator@U?$pair@$$CBKPAVCClientSock@@@std@@@3@$0A@@std@@@std@@QAEAAV012@XZ
_TEXT	SEGMENT PARA USE32 PUBLIC 'CODE'
_TEXT	ENDS
;	COMDAT ?_Color@?$_Tree@V?$_Tmap_traits@KPAVCClientSockE@@U?$less@K@std@@V?$allocator@U?$pair@$$CBKPAVCClientSockE@@@std@@@3@$0A@@std@@@std@@KAAADPAU_Node@?$_Tree_nod@V?$_Tmap_traits@KPAVCClientSockE@@U?$less@K@std@@V?$allocator@U?$pair@$$CBKPAVCClientSockE@@@std@@@3@$0A@@std@@@2@@Z
_TEXT	SEGMENT PARA USE32 PUBLIC 'CODE'
_TEXT	ENDS
;	COMDAT ?_Erase@?$_Tree@V?$_Tmap_traits@KPAVCClientSockE@@U?$less@K@std@@V?$allocator@U?$pair@$$CBKPAVCClientSockE@@@std@@@3@$0A@@std@@@std@@IAEXPAU_Node@?$_Tree_nod@V?$_Tmap_traits@KPAVCClientSockE@@U?$less@K@std@@V?$allocator@U?$pair@$$CBKPAVCClientSockE@@@std@@@3@$0A@@std@@@2@@Z
_TEXT	SEGMENT PARA USE32 PUBLIC 'CODE'
_TEXT	ENDS
;	COMDAT ?_Lrotate@?$_Tree@V?$_Tmap_traits@KPAVCClientSockE@@U?$less@K@std@@V?$allocator@U?$pair@$$CBKPAVCClientSockE@@@std@@@3@$0A@@std@@@std@@IAEXPAU_Node@?$_Tree_nod@V?$_Tmap_traits@KPAVCClientSockE@@U?$less@K@std@@V?$allocator@U?$pair@$$CBKPAVCClientSockE@@@std@@@3@$0A@@std@@@2@@Z
_TEXT	SEGMENT PARA USE32 PUBLIC 'CODE'
_TEXT	ENDS
;	COMDAT ?_Max@?$_Tree@V?$_Tmap_traits@KPAVCClientSockE@@U?$less@K@std@@V?$allocator@U?$pair@$$CBKPAVCClientSockE@@@std@@@3@$0A@@std@@@std@@KAPAU_Node@?$_Tree_nod@V?$_Tmap_traits@KPAVCClientSockE@@U?$less@K@std@@V?$allocator@U?$pair@$$CBKPAVCClientSockE@@@std@@@3@$0A@@std@@@2@PAU342@@Z
_TEXT	SEGMENT PARA USE32 PUBLIC 'CODE'
_TEXT	ENDS
;	COMDAT ?_Min@?$_Tree@V?$_Tmap_traits@KPAVCClientSockE@@U?$less@K@std@@V?$allocator@U?$pair@$$CBKPAVCClientSockE@@@std@@@3@$0A@@std@@@std@@KAPAU_Node@?$_Tree_nod@V?$_Tmap_traits@KPAVCClientSockE@@U?$less@K@std@@V?$allocator@U?$pair@$$CBKPAVCClientSockE@@@std@@@3@$0A@@std@@@2@PAU342@@Z
_TEXT	SEGMENT PARA USE32 PUBLIC 'CODE'
_TEXT	ENDS
;	COMDAT ?_Rrotate@?$_Tree@V?$_Tmap_traits@KPAVCClientSockE@@U?$less@K@std@@V?$allocator@U?$pair@$$CBKPAVCClientSockE@@@std@@@3@$0A@@std@@@std@@IAEXPAU_Node@?$_Tree_nod@V?$_Tmap_traits@KPAVCClientSockE@@U?$less@K@std@@V?$allocator@U?$pair@$$CBKPAVCClientSockE@@@std@@@3@$0A@@std@@@2@@Z
_TEXT	SEGMENT PARA USE32 PUBLIC 'CODE'
_TEXT	ENDS
;	COMDAT ??0?$_Tree_nod@V?$_Tmap_traits@KPAVCClientSockE@@U?$less@K@std@@V?$allocator@U?$pair@$$CBKPAVCClientSockE@@@std@@@3@$0A@@std@@@std@@IAE@ABU?$less@K@1@V?$allocator@U?$pair@$$CBKPAVCClientSockE@@@std@@@1@@Z
_TEXT	SEGMENT PARA USE32 PUBLIC 'CODE'
_TEXT	ENDS
;	COMDAT ?allocate@?$allocator@U_Node@?$_Tree_nod@V?$_Tmap_traits@KPAVCClientSockE@@U?$less@K@std@@V?$allocator@U?$pair@$$CBKPAVCClientSockE@@@std@@@3@$0A@@std@@@std@@@std@@QAEPAU_Node@?$_Tree_nod@V?$_Tmap_traits@KPAVCClientSockE@@U?$less@K@std@@V?$allocator@U?$pair@$$CBKPAVCClientSockE@@@std@@@3@$0A@@std@@@2@I@Z
_TEXT	SEGMENT PARA USE32 PUBLIC 'CODE'
_TEXT	ENDS
;	COMDAT ?destroy@?$allocator@U_Node@?$_Tree_nod@V?$_Tmap_traits@KPAVCClientSockE@@U?$less@K@std@@V?$allocator@U?$pair@$$CBKPAVCClientSockE@@@std@@@3@$0A@@std@@@std@@@std@@QAEXPAU_Node@?$_Tree_nod@V?$_Tmap_traits@KPAVCClientSockE@@U?$less@K@std@@V?$allocator@U?$pair@$$CBKPAVCClientSockE@@@std@@@3@$0A@@std@@@2@@Z
_TEXT	SEGMENT PARA USE32 PUBLIC 'CODE'
_TEXT	ENDS
;	COMDAT ?construct@?$allocator@PAU_Node@?$_Tree_nod@V?$_Tmap_traits@KPAVCClientSockE@@U?$less@K@std@@V?$allocator@U?$pair@$$CBKPAVCClientSockE@@@std@@@3@$0A@@std@@@std@@@std@@QAEXPAPAU_Node@?$_Tree_nod@V?$_Tmap_traits@KPAVCClientSockE@@U?$less@K@std@@V?$allocator@U?$pair@$$CBKPAVCClientSockE@@@std@@@3@$0A@@std@@@2@ABQAU342@@Z
_TEXT	SEGMENT PARA USE32 PUBLIC 'CODE'
_TEXT	ENDS
;	COMDAT ??Eiterator@?$_Tree@V?$_Tmap_traits@KPAVCClientSockE@@U?$less@K@std@@V?$allocator@U?$pair@$$CBKPAVCClientSockE@@@std@@@3@$0A@@std@@@std@@QAEAAV012@XZ
_TEXT	SEGMENT PARA USE32 PUBLIC 'CODE'
_TEXT	ENDS
;	COMDAT ?_Parent@?$_Tree@V?$_Tmap_traits@KP8CDPSrvr@@AEXAAVCAr@@KKPAEK@ZU?$less@K@std@@V?$allocator@U?$pair@$$CBKP8CDPSrvr@@AEXAAVCAr@@KKPAEK@Z@std@@@4@$0A@@std@@@std@@KAAAPAU_Node@?$_Tree_nod@V?$_Tmap_traits@KP8CDPSrvr@@AEXAAVCAr@@KKPAEK@ZU?$less@K@std@@V?$allocator@U?$pair@$$CBKP8CDPSrvr@@AEXAAVCAr@@KKPAEK@Z@std@@@4@$0A@@std@@@2@PAU342@@Z
_TEXT	SEGMENT PARA USE32 PUBLIC 'CODE'
_TEXT	ENDS
;	COMDAT ?_Parent@?$_Tree@V?$_Tmap_traits@KP8CDPCoreClient@@AEXAAVCAr@@KKK@ZU?$less@K@std@@V?$allocator@U?$pair@$$CBKP8CDPCoreClient@@AEXAAVCAr@@KKK@Z@std@@@4@$0A@@std@@@std@@KAAAPAU_Node@?$_Tree_nod@V?$_Tmap_traits@KP8CDPCoreClient@@AEXAAVCAr@@KKK@ZU?$less@K@std@@V?$allocator@U?$pair@$$CBKP8CDPCoreClient@@AEXAAVCAr@@KKK@Z@std@@@4@$0A@@std@@@2@PAU342@@Z
_TEXT	SEGMENT PARA USE32 PUBLIC 'CODE'
_TEXT	ENDS
;	COMDAT ?_Parent@?$_Tree@V?$_Tmap_traits@KP8CDPDatabaseClient@@AEXAAVCAr@@KK@ZU?$less@K@std@@V?$allocator@U?$pair@$$CBKP8CDPDatabaseClient@@AEXAAVCAr@@KK@Z@std@@@4@$0A@@std@@@std@@KAAAPAU_Node@?$_Tree_nod@V?$_Tmap_traits@KP8CDPDatabaseClient@@AEXAAVCAr@@KK@ZU?$less@K@std@@V?$allocator@U?$pair@$$CBKP8CDPDatabaseClient@@AEXAAVCAr@@KK@Z@std@@@4@$0A@@std@@@2@PAU342@@Z
_TEXT	SEGMENT PARA USE32 PUBLIC 'CODE'
_TEXT	ENDS
;	COMDAT ?_Myval@?$_Tree@V?$_Tmap_traits@KU_Friend@@U?$less@K@std@@V?$allocator@U?$pair@$$CBKU_Friend@@@std@@@3@$0A@@std@@@std@@KAAAU?$pair@$$CBKU_Friend@@@2@PAU_Node@?$_Tree_nod@V?$_Tmap_traits@KU_Friend@@U?$less@K@std@@V?$allocator@U?$pair@$$CBKU_Friend@@@std@@@3@$0A@@std@@@2@@Z
_TEXT	SEGMENT PARA USE32 PUBLIC 'CODE'
_TEXT	ENDS
;	COMDAT ?_Kfn@?$_Tmap_traits@KU_Friend@@U?$less@K@std@@V?$allocator@U?$pair@$$CBKU_Friend@@@std@@@3@$0A@@std@@SAABKABU?$pair@$$CBKU_Friend@@@2@@Z
_TEXT	SEGMENT PARA USE32 PUBLIC 'CODE'
_TEXT	ENDS
;	COMDAT ?_Inc@const_iterator@?$_Tree@V?$_Tmap_traits@KU_Friend@@U?$less@K@std@@V?$allocator@U?$pair@$$CBKU_Friend@@@std@@@3@$0A@@std@@@std@@QAEXXZ
_TEXT	SEGMENT PARA USE32 PUBLIC 'CODE'
_TEXT	ENDS
;	COMDAT ?_Myval@?$_Tree@V?$_Tmap_traits@KKU?$less@K@std@@V?$allocator@U?$pair@$$CBKK@std@@@2@$0A@@std@@@std@@KAAAU?$pair@$$CBKK@2@PAU_Node@?$_Tree_nod@V?$_Tmap_traits@KKU?$less@K@std@@V?$allocator@U?$pair@$$CBKK@std@@@2@$0A@@std@@@2@@Z
_TEXT	SEGMENT PARA USE32 PUBLIC 'CODE'
_TEXT	ENDS
;	COMDAT ?_Kfn@?$_Tmap_traits@KKU?$less@K@std@@V?$allocator@U?$pair@$$CBKK@std@@@2@$0A@@std@@SAABKABU?$pair@$$CBKK@2@@Z
_TEXT	SEGMENT PARA USE32 PUBLIC 'CODE'
_TEXT	ENDS
;	COMDAT ?_Inc@const_iterator@?$_Tree@V?$_Tmap_traits@KKU?$less@K@std@@V?$allocator@U?$pair@$$CBKK@std@@@2@$0A@@std@@@std@@QAEXXZ
_TEXT	SEGMENT PARA USE32 PUBLIC 'CODE'
_TEXT	ENDS
;	COMDAT ??0?$_Tmap_traits@KPAVCClientSock@@U?$less@K@std@@V?$allocator@U?$pair@$$CBKPAVCClientSock@@@std@@@3@$0A@@std@@QAE@U?$less@K@1@@Z
_TEXT	SEGMENT PARA USE32 PUBLIC 'CODE'
_TEXT	ENDS
;	COMDAT ??Econst_iterator@?$_Tree@V?$_Tmap_traits@KPAVCClientSock@@U?$less@K@std@@V?$allocator@U?$pair@$$CBKPAVCClientSock@@@std@@@3@$0A@@std@@@std@@QAEAAV012@XZ
_TEXT	SEGMENT PARA USE32 PUBLIC 'CODE'
_TEXT	ENDS
;	COMDAT ??0?$_Tmap_traits@KPAVCClientSockE@@U?$less@K@std@@V?$allocator@U?$pair@$$CBKPAVCClientSockE@@@std@@@3@$0A@@std@@QAE@U?$less@K@1@@Z
_TEXT	SEGMENT PARA USE32 PUBLIC 'CODE'
_TEXT	ENDS
;	COMDAT ??Econst_iterator@?$_Tree@V?$_Tmap_traits@KPAVCClientSockE@@U?$less@K@std@@V?$allocator@U?$pair@$$CBKPAVCClientSockE@@@std@@@3@$0A@@std@@@std@@QAEAAV012@XZ
_TEXT	SEGMENT PARA USE32 PUBLIC 'CODE'
_TEXT	ENDS
;	COMDAT ?_Inc@const_iterator@?$_Tree@V?$_Tmap_traits@KPAVCClientSock@@U?$less@K@std@@V?$allocator@U?$pair@$$CBKPAVCClientSock@@@std@@@3@$0A@@std@@@std@@QAEXXZ
_TEXT	SEGMENT PARA USE32 PUBLIC 'CODE'
_TEXT	ENDS
;	COMDAT ?_Inc@const_iterator@?$_Tree@V?$_Tmap_traits@KPAVCClientSockE@@U?$less@K@std@@V?$allocator@U?$pair@$$CBKPAVCClientSockE@@@std@@@3@$0A@@std@@@std@@QAEXXZ
_TEXT	SEGMENT PARA USE32 PUBLIC 'CODE'
_TEXT	ENDS
;	COMDAT ??$_Iter_cat@Vconst_iterator@?$vector@EV?$allocator@E@std@@@std@@@std@@YA?AUrandom_access_iterator_tag@0@ABVconst_iterator@?$vector@EV?$allocator@E@std@@@0@@Z
_TEXT	SEGMENT PARA USE32 PUBLIC 'CODE'
_TEXT	ENDS
;	COMDAT ??$_Assign@Vconst_iterator@?$vector@EV?$allocator@E@std@@@std@@@?$vector@EV?$allocator@E@std@@@std@@QAEXVconst_iterator@01@0Uinput_iterator_tag@1@@Z
_TEXT	SEGMENT PARA USE32 PUBLIC 'CODE'
_TEXT	ENDS
;	COMDAT ?IsFull@?$CItemContainer@VCItemElem@@@@QAEHPAVCItemElem@@PAUItemProp@@F@Z
_TEXT	SEGMENT PARA USE32 PUBLIC 'CODE'
_TEXT	ENDS
;	COMDAT ??$_Iter_cat@Viterator@?$_Tree@V?$_Tmap_traits@KPAVCUser@@U?$less@K@std@@V?$allocator@U?$pair@$$CBKPAVCUser@@@std@@@3@$0A@@std@@@std@@@std@@YA?AUbidirectional_iterator_tag@0@ABViterator@?$_Tree@V?$_Tmap_traits@KPAVCUser@@U?$less@K@std@@V?$allocator@U?$pair@$$CBKPAVCUser@@@std@@@3@$0A@@std@@@0@@Z
_TEXT	SEGMENT PARA USE32 PUBLIC 'CODE'
_TEXT	ENDS
;	COMDAT ??$_Distance2@Viterator@?$_Tree@V?$_Tmap_traits@KPAVCUser@@U?$less@K@std@@V?$allocator@U?$pair@$$CBKPAVCUser@@@std@@@3@$0A@@std@@@std@@I@std@@YAXViterator@?$_Tree@V?$_Tmap_traits@KPAVCUser@@U?$less@K@std@@V?$allocator@U?$pair@$$CBKPAVCUser@@@std@@@3@$0A@@std@@@0@0AAIUbidirectional_iterator_tag@0@@Z
_TEXT	SEGMENT PARA USE32 PUBLIC 'CODE'
_TEXT	ENDS
;	COMDAT ??$_Iter_cat@Viterator@?$_Tree@V?$_Tmap_traits@KPAVCCtrl@@U?$less@K@std@@V?$allocator@U?$pair@$$CBKPAVCCtrl@@@std@@@3@$0A@@std@@@std@@@std@@YA?AUbidirectional_iterator_tag@0@ABViterator@?$_Tree@V?$_Tmap_traits@KPAVCCtrl@@U?$less@K@std@@V?$allocator@U?$pair@$$CBKPAVCCtrl@@@std@@@3@$0A@@std@@@0@@Z
_TEXT	SEGMENT PARA USE32 PUBLIC 'CODE'
_TEXT	ENDS
;	COMDAT ??$_Distance2@Viterator@?$_Tree@V?$_Tmap_traits@KPAVCCtrl@@U?$less@K@std@@V?$allocator@U?$pair@$$CBKPAVCCtrl@@@std@@@3@$0A@@std@@@std@@I@std@@YAXViterator@?$_Tree@V?$_Tmap_traits@KPAVCCtrl@@U?$less@K@std@@V?$allocator@U?$pair@$$CBKPAVCCtrl@@@std@@@3@$0A@@std@@@0@0AAIUbidirectional_iterator_tag@0@@Z
_TEXT	SEGMENT PARA USE32 PUBLIC 'CODE'
_TEXT	ENDS
;	COMDAT ??$_Uninitialized_copy@Vconst_iterator@?$vector@EV?$allocator@E@std@@@std@@PAEV?$allocator@E@3@@std@@YAPAEVconst_iterator@?$vector@EV?$allocator@E@std@@@0@0PAEAAV?$allocator@E@0@@Z
_TEXT	SEGMENT PARA USE32 PUBLIC 'CODE'
_TEXT	ENDS
;	COMDAT ??$_Iter_cat@Viterator@?$_Tree@V?$_Tmap_traits@KEU?$less@K@std@@V?$allocator@U?$pair@$$CBKE@std@@@2@$0A@@std@@@std@@@std@@YA?AUbidirectional_iterator_tag@0@ABViterator@?$_Tree@V?$_Tmap_traits@KEU?$less@K@std@@V?$allocator@U?$pair@$$CBKE@std@@@2@$0A@@std@@@0@@Z
_TEXT	SEGMENT PARA USE32 PUBLIC 'CODE'
_TEXT	ENDS
;	COMDAT ??$_Distance2@Viterator@?$_Tree@V?$_Tmap_traits@KEU?$less@K@std@@V?$allocator@U?$pair@$$CBKE@std@@@2@$0A@@std@@@std@@I@std@@YAXViterator@?$_Tree@V?$_Tmap_traits@KEU?$less@K@std@@V?$allocator@U?$pair@$$CBKE@std@@@2@$0A@@std@@@0@0AAIUbidirectional_iterator_tag@0@@Z
_TEXT	SEGMENT PARA USE32 PUBLIC 'CODE'
_TEXT	ENDS
;	COMDAT ??$_Ptr_cat@PAU__SPAWNREGION@CEventLua@@PAU12@@std@@YA?AU_Nonscalar_ptr_iterator_tag@0@AAPAU__SPAWNREGION@CEventLua@@0@Z
_TEXT	SEGMENT PARA USE32 PUBLIC 'CODE'
_TEXT	ENDS
;	COMDAT ??$_Uninit_fill_n@PAU__SPAWNREGION@CEventLua@@IU12@V?$allocator@U__SPAWNREGION@CEventLua@@@std@@@std@@YAXPAU__SPAWNREGION@CEventLua@@IABU12@AAV?$allocator@U__SPAWNREGION@CEventLua@@@0@U_Nonscalar_ptr_iterator_tag@0@@Z
_TEXT	SEGMENT PARA USE32 PUBLIC 'CODE'
_TEXT	ENDS
;	COMDAT ??$_Copy_opt@PAJPAJ@std@@YAPAJPAJ00U_Scalar_ptr_iterator_tag@0@@Z
_TEXT	SEGMENT PARA USE32 PUBLIC 'CODE'
_TEXT	ENDS
;	COMDAT ??$_Uninitialized_copy@PAJPAJV?$allocator@J@std@@@std@@YAPAJPAJ00AAV?$allocator@J@0@@Z
_TEXT	SEGMENT PARA USE32 PUBLIC 'CODE'
_TEXT	ENDS
;	COMDAT ??$_Copy_backward_opt@PAJPAJ@std@@YAPAJPAJ00U_Scalar_ptr_iterator_tag@0@@Z
_TEXT	SEGMENT PARA USE32 PUBLIC 'CODE'
_TEXT	ENDS
;	COMDAT ??$_Ptr_cat@PAUtagDROPITEM@@PAU1@@std@@YA?AU_Nonscalar_ptr_iterator_tag@0@AAPAUtagDROPITEM@@0@Z
_TEXT	SEGMENT PARA USE32 PUBLIC 'CODE'
_TEXT	ENDS
;	COMDAT ??$_Destroy_range@UtagDROPITEM@@V?$allocator@UtagDROPITEM@@@std@@@std@@YAXPAUtagDROPITEM@@0AAV?$allocator@UtagDROPITEM@@@0@U_Nonscalar_ptr_iterator_tag@0@@Z
_TEXT	SEGMENT PARA USE32 PUBLIC 'CODE'
_TEXT	ENDS
;	COMDAT ??$_Ptr_cat@PAUWORMON@@PAU1@@std@@YA?AU_Nonscalar_ptr_iterator_tag@0@AAPAUWORMON@@0@Z
_TEXT	SEGMENT PARA USE32 PUBLIC 'CODE'
_TEXT	ENDS
;	COMDAT ??$_Destroy_range@UWORMON@@V?$allocator@UWORMON@@@std@@@std@@YAXPAUWORMON@@0AAV?$allocator@UWORMON@@@0@U_Nonscalar_ptr_iterator_tag@0@@Z
_TEXT	SEGMENT PARA USE32 PUBLIC 'CODE'
_TEXT	ENDS
;	COMDAT ??$_Ptr_cat@PAU__ITEMGAME@CMiniGame@@PAU12@@std@@YA?AU_Nonscalar_ptr_iterator_tag@0@AAPAU__ITEMGAME@CMiniGame@@0@Z
_TEXT	SEGMENT PARA USE32 PUBLIC 'CODE'
_TEXT	ENDS
;	COMDAT ??$_Destroy_range@U__ITEMGAME@CMiniGame@@V?$allocator@U__ITEMGAME@CMiniGame@@@std@@@std@@YAXPAU__ITEMGAME@CMiniGame@@0AAV?$allocator@U__ITEMGAME@CMiniGame@@@0@U_Nonscalar_ptr_iterator_tag@0@@Z
_TEXT	SEGMENT PARA USE32 PUBLIC 'CODE'
_TEXT	ENDS
;	COMDAT ??$_Destroy_range@KV?$allocator@K@std@@@std@@YAXPAK0AAV?$allocator@K@0@U_Scalar_ptr_iterator_tag@0@@Z
_TEXT	SEGMENT PARA USE32 PUBLIC 'CODE'
_TEXT	ENDS
;	COMDAT ??$_Destroy_range@HV?$allocator@H@std@@@std@@YAXPAH0AAV?$allocator@H@0@U_Scalar_ptr_iterator_tag@0@@Z
_TEXT	SEGMENT PARA USE32 PUBLIC 'CODE'
_TEXT	ENDS
;	COMDAT ??$_Ptr_cat@PAU__ITEM@CExchange@@PAU12@@std@@YA?AU_Nonscalar_ptr_iterator_tag@0@AAPAU__ITEM@CExchange@@0@Z
_TEXT	SEGMENT PARA USE32 PUBLIC 'CODE'
_TEXT	ENDS
;	COMDAT ??$_Destroy_range@U__ITEM@CExchange@@V?$allocator@U__ITEM@CExchange@@@std@@@std@@YAXPAU__ITEM@CExchange@@0AAV?$allocator@U__ITEM@CExchange@@@0@U_Nonscalar_ptr_iterator_tag@0@@Z
_TEXT	SEGMENT PARA USE32 PUBLIC 'CODE'
_TEXT	ENDS
;	COMDAT ??$_Ptr_cat@PAU__POINT@CExchange@@PAU12@@std@@YA?AU_Nonscalar_ptr_iterator_tag@0@AAPAU__POINT@CExchange@@0@Z
_TEXT	SEGMENT PARA USE32 PUBLIC 'CODE'
_TEXT	ENDS
;	COMDAT ??$_Destroy_range@U__POINT@CExchange@@V?$allocator@U__POINT@CExchange@@@std@@@std@@YAXPAU__POINT@CExchange@@0AAV?$allocator@U__POINT@CExchange@@@0@U_Nonscalar_ptr_iterator_tag@0@@Z
_TEXT	SEGMENT PARA USE32 PUBLIC 'CODE'
_TEXT	ENDS
;	COMDAT ??$_Destroy_range@EV?$allocator@E@std@@@std@@YAXPAE0AAV?$allocator@E@0@U_Scalar_ptr_iterator_tag@0@@Z
_TEXT	SEGMENT PARA USE32 PUBLIC 'CODE'
_TEXT	ENDS
;	COMDAT ??$_Uninitialized_copy@PAU__SPAWNREGION@CEventLua@@PAU12@V?$allocator@U__SPAWNREGION@CEventLua@@@std@@@std@@YAPAU__SPAWNREGION@CEventLua@@PAU12@00AAV?$allocator@U__SPAWNREGION@CEventLua@@@0@@Z
_TEXT	SEGMENT PARA USE32 PUBLIC 'CODE'
_TEXT	ENDS
;	COMDAT ??$_Copy_backward_opt@PAU__SPAWNREGION@CEventLua@@PAU12@@std@@YAPAU__SPAWNREGION@CEventLua@@PAU12@00U_Nonscalar_ptr_iterator_tag@0@@Z
_TEXT	SEGMENT PARA USE32 PUBLIC 'CODE'
_TEXT	ENDS
;	COMDAT ??$_Ptr_cat@PAUD3DXVECTOR3@@PAU1@@std@@YA?AU_Nonscalar_ptr_iterator_tag@0@AAPAUD3DXVECTOR3@@0@Z
_TEXT	SEGMENT PARA USE32 PUBLIC 'CODE'
_TEXT	ENDS
;	COMDAT ??$_Destroy_range@UD3DXVECTOR3@@V?$allocator@UD3DXVECTOR3@@@std@@@std@@YAXPAUD3DXVECTOR3@@0AAV?$allocator@UD3DXVECTOR3@@@0@U_Nonscalar_ptr_iterator_tag@0@@Z
_TEXT	SEGMENT PARA USE32 PUBLIC 'CODE'
_TEXT	ENDS
;	COMDAT ??$_Ptr_cat@PAU_GIFTBOX@@PAU1@@std@@YA?AU_Nonscalar_ptr_iterator_tag@0@AAPAU_GIFTBOX@@0@Z
_TEXT	SEGMENT PARA USE32 PUBLIC 'CODE'
_TEXT	ENDS
;	COMDAT ??$_Destroy_range@U_GIFTBOX@@V?$allocator@U_GIFTBOX@@@std@@@std@@YAXPAU_GIFTBOX@@0AAV?$allocator@U_GIFTBOX@@@0@U_Nonscalar_ptr_iterator_tag@0@@Z
_TEXT	SEGMENT PARA USE32 PUBLIC 'CODE'
_TEXT	ENDS
;	COMDAT ??$_Destroy_range@JV?$allocator@J@std@@@std@@YAXPAJ0AAV?$allocator@J@0@U_Scalar_ptr_iterator_tag@0@@Z
_TEXT	SEGMENT PARA USE32 PUBLIC 'CODE'
_TEXT	ENDS
;	COMDAT ??$_Uninit_fill_n@JIJ@std@@YAXPAJIABJAAV?$allocator@J@0@U_Scalar_ptr_iterator_tag@0@@Z
_TEXT	SEGMENT PARA USE32 PUBLIC 'CODE'
_TEXT	ENDS
;	COMDAT ??$_Destroy_range@U__SPAWNREGION@CEventLua@@V?$allocator@U__SPAWNREGION@CEventLua@@@std@@@std@@YAXPAU__SPAWNREGION@CEventLua@@0AAV?$allocator@U__SPAWNREGION@CEventLua@@@0@U_Nonscalar_ptr_iterator_tag@0@@Z
_TEXT	SEGMENT PARA USE32 PUBLIC 'CODE'
_TEXT	ENDS
;	COMDAT ??$make_pair@KPAVCGuildHouseBase@@@std@@YA?AU?$pair@KPAVCGuildHouseBase@@@0@KPAVCGuildHouseBase@@@Z
_TEXT	SEGMENT PARA USE32 PUBLIC 'CODE'
_TEXT	ENDS
;	COMDAT ??$?0KPAVCGuildHouseBase@@@?$pair@$$CBKPAVCGuildHouseBase@@@std@@QAE@ABU?$pair@KPAVCGuildHouseBase@@@1@@Z
_TEXT	SEGMENT PARA USE32 PUBLIC 'CODE'
_TEXT	ENDS
;	COMDAT ??1?$CFixedArray@UtagWORLD@@@@UAE@XZ
_TEXT	SEGMENT PARA USE32 PUBLIC 'CODE'
_TEXT	ENDS
;	COMDAT ?GetAt@?$CFixedArray@UtagWORLD@@@@QAEPAUtagWORLD@@K@Z
_TEXT	SEGMENT PARA USE32 PUBLIC 'CODE'
_TEXT	ENDS
;	COMDAT ??$_Distance@Viterator@?$_Tree@V?$_Tmap_traits@KU_Friend@@U?$less@K@std@@V?$allocator@U?$pair@$$CBKU_Friend@@@std@@@3@$0A@@std@@@std@@I@std@@YAXViterator@?$_Tree@V?$_Tmap_traits@KU_Friend@@U?$less@K@std@@V?$allocator@U?$pair@$$CBKU_Friend@@@std@@@3@$0A@@std@@@0@0AAI@Z
_TEXT	SEGMENT PARA USE32 PUBLIC 'CODE'
_TEXT	ENDS
;	COMDAT ??$_Distance@Viterator@?$_Tree@V?$_Tmap_traits@KKU?$less@K@std@@V?$allocator@U?$pair@$$CBKK@std@@@2@$0A@@std@@@std@@I@std@@YAXViterator@?$_Tree@V?$_Tmap_traits@KKU?$less@K@std@@V?$allocator@U?$pair@$$CBKK@std@@@2@$0A@@std@@@0@0AAI@Z
_TEXT	SEGMENT PARA USE32 PUBLIC 'CODE'
_TEXT	ENDS
;	COMDAT ??$_Destroy@U_Node@?$_List_nod@PAU__JOINPLAYER@CGuildCombat@@V?$allocator@PAU__JOINPLAYER@CGuildCombat@@@std@@@std@@@std@@YAXPAU_Node@?$_List_nod@PAU__JOINPLAYER@CGuildCombat@@V?$allocator@PAU__JOINPLAYER@CGuildCombat@@@std@@@0@@Z
_TEXT	SEGMENT PARA USE32 PUBLIC 'CODE'
_TEXT	ENDS
;	COMDAT ??$_Uninitialized_fill_n@PAV?$basic_string@DU?$char_traits@D@std@@V?$allocator@D@2@@std@@IV12@V?$allocator@V?$basic_string@DU?$char_traits@D@std@@V?$allocator@D@2@@std@@@2@@std@@YAXPAV?$basic_string@DU?$char_traits@D@std@@V?$allocator@D@2@@0@IABV10@AAV?$allocator@V?$basic_string@DU?$char_traits@D@std@@V?$allocator@D@2@@std@@@0@@Z
_TEXT	SEGMENT PARA USE32 PUBLIC 'CODE'
_TEXT	ENDS
;	COMDAT ??$_Uninitialized_fill_n@PAUMINIGMAME_PRIZE_LIST@CRainbowRaceMng@@IU12@V?$allocator@UMINIGMAME_PRIZE_LIST@CRainbowRaceMng@@@std@@@std@@YAXPAUMINIGMAME_PRIZE_LIST@CRainbowRaceMng@@IABU12@AAV?$allocator@UMINIGMAME_PRIZE_LIST@CRainbowRaceMng@@@0@@Z
_TEXT	SEGMENT PARA USE32 PUBLIC 'CODE'
_TEXT	ENDS
;	COMDAT ??$_Allocate@V?$basic_string@DU?$char_traits@D@std@@V?$allocator@D@2@@std@@@std@@YAPAV?$basic_string@DU?$char_traits@D@std@@V?$allocator@D@2@@0@IPAV10@@Z
_TEXT	SEGMENT PARA USE32 PUBLIC 'CODE'
_TEXT	ENDS
;	COMDAT ??$?0PAUtagACTMSG@@@?$allocator@PAPAUtagACTMSG@@@std@@QAE@ABV?$allocator@PAUtagACTMSG@@@1@@Z
_TEXT	SEGMENT PARA USE32 PUBLIC 'CODE'
_TEXT	ENDS
;	COMDAT ??$_Destroy@PAPAUtagACTMSG@@@std@@YAXPAPAPAUtagACTMSG@@@Z
_TEXT	SEGMENT PARA USE32 PUBLIC 'CODE'
_TEXT	ENDS
;	COMDAT ??$?0PAUtagMAGICATKMSG@@@?$allocator@PAPAUtagMAGICATKMSG@@@std@@QAE@ABV?$allocator@PAUtagMAGICATKMSG@@@1@@Z
_TEXT	SEGMENT PARA USE32 PUBLIC 'CODE'
_TEXT	ENDS
;	COMDAT ??$_Destroy@PAPAUtagMAGICATKMSG@@@std@@YAXPAPAPAUtagMAGICATKMSG@@@Z
_TEXT	SEGMENT PARA USE32 PUBLIC 'CODE'
_TEXT	ENDS
;	COMDAT ??$_Destroy_range@PAU__JOINPLAYER@CGuildCombat@@V?$allocator@PAU__JOINPLAYER@CGuildCombat@@@std@@@std@@YAXPAPAU__JOINPLAYER@CGuildCombat@@0AAV?$allocator@PAU__JOINPLAYER@CGuildCombat@@@0@@Z
_TEXT	SEGMENT PARA USE32 PUBLIC 'CODE'
_TEXT	ENDS
;	COMDAT ??$_Destroy_range@U__SECRETROOM_MONSTER@@V?$allocator@U__SECRETROOM_MONSTER@@@std@@@std@@YAXPAU__SECRETROOM_MONSTER@@0AAV?$allocator@U__SECRETROOM_MONSTER@@@0@@Z
_TEXT	SEGMENT PARA USE32 PUBLIC 'CODE'
_TEXT	ENDS
;	COMDAT ??$_Allocate@U__SECRETROOM_MONSTER@@@std@@YAPAU__SECRETROOM_MONSTER@@IPAU1@@Z
_TEXT	SEGMENT PARA USE32 PUBLIC 'CODE'
_TEXT	ENDS
;	COMDAT ??$_Destroy_range@V?$basic_string@DU?$char_traits@D@std@@V?$allocator@D@2@@std@@V?$allocator@V?$basic_string@DU?$char_traits@D@std@@V?$allocator@D@2@@std@@@2@@std@@YAXPAV?$basic_string@DU?$char_traits@D@std@@V?$allocator@D@2@@0@0AAV?$allocator@V?$basic_string@DU?$char_traits@D@std@@V?$allocator@D@2@@std@@@0@@Z
_TEXT	SEGMENT PARA USE32 PUBLIC 'CODE'
_TEXT	ENDS
;	COMDAT ??$_Ucopy@PAV?$basic_string@DU?$char_traits@D@std@@V?$allocator@D@2@@std@@@?$vector@V?$basic_string@DU?$char_traits@D@std@@V?$allocator@D@2@@std@@V?$allocator@V?$basic_string@DU?$char_traits@D@std@@V?$allocator@D@2@@std@@@2@@std@@IAEPAV?$basic_string@DU?$char_traits@D@std@@V?$allocator@D@2@@1@PAV21@00@Z
_TEXT	SEGMENT PARA USE32 PUBLIC 'CODE'
_TEXT	ENDS
;	COMDAT ??$fill@PAV?$basic_string@DU?$char_traits@D@std@@V?$allocator@D@2@@std@@V12@@std@@YAXPAV?$basic_string@DU?$char_traits@D@std@@V?$allocator@D@2@@0@0ABV10@@Z
_TEXT	SEGMENT PARA USE32 PUBLIC 'CODE'
_TEXT	ENDS
;	COMDAT ??$copy_backward@PAV?$basic_string@DU?$char_traits@D@std@@V?$allocator@D@2@@std@@PAV12@@std@@YAPAV?$basic_string@DU?$char_traits@D@std@@V?$allocator@D@2@@0@PAV10@00@Z
_TEXT	SEGMENT PARA USE32 PUBLIC 'CODE'
_TEXT	ENDS
;	COMDAT ??$_Ucopy@PAUMINIGMAME_PRIZE_LIST@CRainbowRaceMng@@@?$vector@UMINIGMAME_PRIZE_LIST@CRainbowRaceMng@@V?$allocator@UMINIGMAME_PRIZE_LIST@CRainbowRaceMng@@@std@@@std@@IAEPAUMINIGMAME_PRIZE_LIST@CRainbowRaceMng@@PAU23@00@Z
_TEXT	SEGMENT PARA USE32 PUBLIC 'CODE'
_TEXT	ENDS
;	COMDAT ??$fill@PAUMINIGMAME_PRIZE_LIST@CRainbowRaceMng@@U12@@std@@YAXPAUMINIGMAME_PRIZE_LIST@CRainbowRaceMng@@0ABU12@@Z
_TEXT	SEGMENT PARA USE32 PUBLIC 'CODE'
_TEXT	ENDS
;	COMDAT ??$copy_backward@PAUMINIGMAME_PRIZE_LIST@CRainbowRaceMng@@PAU12@@std@@YAPAUMINIGMAME_PRIZE_LIST@CRainbowRaceMng@@PAU12@00@Z
_TEXT	SEGMENT PARA USE32 PUBLIC 'CODE'
_TEXT	ENDS
;	COMDAT ??$_Destroy@PAU_Node@?$_Tree_nod@V?$_Tmap_traits@KPAVCClientSock@@U?$less@K@std@@V?$allocator@U?$pair@$$CBKPAVCClientSock@@@std@@@3@$0A@@std@@@std@@@std@@YAXPAPAU_Node@?$_Tree_nod@V?$_Tmap_traits@KPAVCClientSock@@U?$less@K@std@@V?$allocator@U?$pair@$$CBKPAVCClientSock@@@std@@@3@$0A@@std@@@0@@Z
_TEXT	SEGMENT PARA USE32 PUBLIC 'CODE'
_TEXT	ENDS
;	COMDAT ??$_Destroy@PAU_Node@?$_Tree_nod@V?$_Tmap_traits@KPAVCClientSockE@@U?$less@K@std@@V?$allocator@U?$pair@$$CBKPAVCClientSockE@@@std@@@3@$0A@@std@@@std@@@std@@YAXPAPAU_Node@?$_Tree_nod@V?$_Tmap_traits@KPAVCClientSockE@@U?$less@K@std@@V?$allocator@U?$pair@$$CBKPAVCClientSockE@@@std@@@3@$0A@@std@@@0@@Z
_TEXT	SEGMENT PARA USE32 PUBLIC 'CODE'
_TEXT	ENDS
;	COMDAT ??$_Destroy@PAUtagACTMSG@@@std@@YAXPAPAUtagACTMSG@@@Z
_TEXT	SEGMENT PARA USE32 PUBLIC 'CODE'
_TEXT	ENDS
;	COMDAT ??$_Destroy@PAUtagMAGICATKMSG@@@std@@YAXPAPAUtagMAGICATKMSG@@@Z
_TEXT	SEGMENT PARA USE32 PUBLIC 'CODE'
_TEXT	ENDS
;	COMDAT ??$_Destroy@U_Node@?$_Tree_nod@V?$_Tmap_traits@KU_Friend@@U?$less@K@std@@V?$allocator@U?$pair@$$CBKU_Friend@@@std@@@3@$0A@@std@@@std@@@std@@YAXPAU_Node@?$_Tree_nod@V?$_Tmap_traits@KU_Friend@@U?$less@K@std@@V?$allocator@U?$pair@$$CBKU_Friend@@@std@@@3@$0A@@std@@@0@@Z
_TEXT	SEGMENT PARA USE32 PUBLIC 'CODE'
_TEXT	ENDS
;	COMDAT ??$_Destroy_range@UMINIGMAME_PRIZE_LIST@CRainbowRaceMng@@V?$allocator@UMINIGMAME_PRIZE_LIST@CRainbowRaceMng@@@std@@@std@@YAXPAUMINIGMAME_PRIZE_LIST@CRainbowRaceMng@@0AAV?$allocator@UMINIGMAME_PRIZE_LIST@CRainbowRaceMng@@@0@@Z
_TEXT	SEGMENT PARA USE32 PUBLIC 'CODE'
_TEXT	ENDS
;	COMDAT ??$_Allocate@UMINIGMAME_PRIZE_LIST@CRainbowRaceMng@@@std@@YAPAUMINIGMAME_PRIZE_LIST@CRainbowRaceMng@@IPAU12@@Z
_TEXT	SEGMENT PARA USE32 PUBLIC 'CODE'
_TEXT	ENDS
;	COMDAT ??$_Allocate@U_Node@?$_Tree_nod@V?$_Tmap_traits@KPAVCGuildHouseBase@@U?$less@K@std@@V?$allocator@U?$pair@$$CBKPAVCGuildHouseBase@@@std@@@3@$0A@@std@@@std@@@std@@YAPAU_Node@?$_Tree_nod@V?$_Tmap_traits@KPAVCGuildHouseBase@@U?$less@K@std@@V?$allocator@U?$pair@$$CBKPAVCGuildHouseBase@@@std@@@3@$0A@@std@@@0@IPAU120@@Z
_TEXT	SEGMENT PARA USE32 PUBLIC 'CODE'
_TEXT	ENDS
;	COMDAT ??$_Destroy@U_Node@?$_Tree_nod@V?$_Tmap_traits@KKU?$less@K@std@@V?$allocator@U?$pair@$$CBKK@std@@@2@$0A@@std@@@std@@@std@@YAXPAU_Node@?$_Tree_nod@V?$_Tmap_traits@KKU?$less@K@std@@V?$allocator@U?$pair@$$CBKK@std@@@2@$0A@@std@@@0@@Z
_TEXT	SEGMENT PARA USE32 PUBLIC 'CODE'
_TEXT	ENDS
;	COMDAT ??$?0U?$pair@$$CBKPAVCClientSock@@@std@@@?$allocator@PAU_Node@?$_Tree_nod@V?$_Tmap_traits@KPAVCClientSock@@U?$less@K@std@@V?$allocator@U?$pair@$$CBKPAVCClientSock@@@std@@@3@$0A@@std@@@std@@@std@@QAE@ABV?$allocator@U?$pair@$$CBKPAVCClientSock@@@std@@@1@@Z
_TEXT	SEGMENT PARA USE32 PUBLIC 'CODE'
_TEXT	ENDS
;	COMDAT ??$?0U?$pair@$$CBKPAVCClientSockE@@@std@@@?$allocator@PAU_Node@?$_Tree_nod@V?$_Tmap_traits@KPAVCClientSockE@@U?$less@K@std@@V?$allocator@U?$pair@$$CBKPAVCClientSockE@@@std@@@3@$0A@@std@@@std@@@std@@QAE@ABV?$allocator@U?$pair@$$CBKPAVCClientSockE@@@std@@@1@@Z
_TEXT	SEGMENT PARA USE32 PUBLIC 'CODE'
_TEXT	ENDS
;	COMDAT ??$?0U?$pair@$$CBKPAVCClientSock@@@std@@@?$allocator@U_Node@?$_Tree_nod@V?$_Tmap_traits@KPAVCClientSock@@U?$less@K@std@@V?$allocator@U?$pair@$$CBKPAVCClientSock@@@std@@@3@$0A@@std@@@std@@@std@@QAE@ABV?$allocator@U?$pair@$$CBKPAVCClientSock@@@std@@@1@@Z
_TEXT	SEGMENT PARA USE32 PUBLIC 'CODE'
_TEXT	ENDS
;	COMDAT ??$_Allocate@U_Node@?$_Tree_nod@V?$_Tmap_traits@KPAVCClientSock@@U?$less@K@std@@V?$allocator@U?$pair@$$CBKPAVCClientSock@@@std@@@3@$0A@@std@@@std@@@std@@YAPAU_Node@?$_Tree_nod@V?$_Tmap_traits@KPAVCClientSock@@U?$less@K@std@@V?$allocator@U?$pair@$$CBKPAVCClientSock@@@std@@@3@$0A@@std@@@0@IPAU120@@Z
_TEXT	SEGMENT PARA USE32 PUBLIC 'CODE'
_TEXT	ENDS
;	COMDAT ??$_Destroy@U_Node@?$_Tree_nod@V?$_Tmap_traits@KPAVCClientSock@@U?$less@K@std@@V?$allocator@U?$pair@$$CBKPAVCClientSock@@@std@@@3@$0A@@std@@@std@@@std@@YAXPAU_Node@?$_Tree_nod@V?$_Tmap_traits@KPAVCClientSock@@U?$less@K@std@@V?$allocator@U?$pair@$$CBKPAVCClientSock@@@std@@@3@$0A@@std@@@0@@Z
_TEXT	SEGMENT PARA USE32 PUBLIC 'CODE'
_TEXT	ENDS
;	COMDAT ??$_Construct@PAU_Node@?$_Tree_nod@V?$_Tmap_traits@KPAVCClientSock@@U?$less@K@std@@V?$allocator@U?$pair@$$CBKPAVCClientSock@@@std@@@3@$0A@@std@@@std@@PAU123@@std@@YAXPAPAU_Node@?$_Tree_nod@V?$_Tmap_traits@KPAVCClientSock@@U?$less@K@std@@V?$allocator@U?$pair@$$CBKPAVCClientSock@@@std@@@3@$0A@@std@@@0@ABQAU120@@Z
_TEXT	SEGMENT PARA USE32 PUBLIC 'CODE'
_TEXT	ENDS
;	COMDAT ??$?0U?$pair@$$CBKPAVCClientSockE@@@std@@@?$allocator@U_Node@?$_Tree_nod@V?$_Tmap_traits@KPAVCClientSockE@@U?$less@K@std@@V?$allocator@U?$pair@$$CBKPAVCClientSockE@@@std@@@3@$0A@@std@@@std@@@std@@QAE@ABV?$allocator@U?$pair@$$CBKPAVCClientSockE@@@std@@@1@@Z
_TEXT	SEGMENT PARA USE32 PUBLIC 'CODE'
_TEXT	ENDS
;	COMDAT ??$_Allocate@U_Node@?$_Tree_nod@V?$_Tmap_traits@KPAVCClientSockE@@U?$less@K@std@@V?$allocator@U?$pair@$$CBKPAVCClientSockE@@@std@@@3@$0A@@std@@@std@@@std@@YAPAU_Node@?$_Tree_nod@V?$_Tmap_traits@KPAVCClientSockE@@U?$less@K@std@@V?$allocator@U?$pair@$$CBKPAVCClientSockE@@@std@@@3@$0A@@std@@@0@IPAU120@@Z
_TEXT	SEGMENT PARA USE32 PUBLIC 'CODE'
_TEXT	ENDS
;	COMDAT ??$_Destroy@U_Node@?$_Tree_nod@V?$_Tmap_traits@KPAVCClientSockE@@U?$less@K@std@@V?$allocator@U?$pair@$$CBKPAVCClientSockE@@@std@@@3@$0A@@std@@@std@@@std@@YAXPAU_Node@?$_Tree_nod@V?$_Tmap_traits@KPAVCClientSockE@@U?$less@K@std@@V?$allocator@U?$pair@$$CBKPAVCClientSockE@@@std@@@3@$0A@@std@@@0@@Z
_TEXT	SEGMENT PARA USE32 PUBLIC 'CODE'
_TEXT	ENDS
;	COMDAT ??$_Construct@PAU_Node@?$_Tree_nod@V?$_Tmap_traits@KPAVCClientSockE@@U?$less@K@std@@V?$allocator@U?$pair@$$CBKPAVCClientSockE@@@std@@@3@$0A@@std@@@std@@PAU123@@std@@YAXPAPAU_Node@?$_Tree_nod@V?$_Tmap_traits@KPAVCClientSockE@@U?$less@K@std@@V?$allocator@U?$pair@$$CBKPAVCClientSockE@@@std@@@3@$0A@@std@@@0@ABQAU120@@Z
_TEXT	SEGMENT PARA USE32 PUBLIC 'CODE'
_TEXT	ENDS
;	COMDAT ??_G?$CFixedArray@UtagWORLD@@@@UAEPAXI@Z
_TEXT	SEGMENT PARA USE32 PUBLIC 'CODE'
_TEXT	ENDS
;	COMDAT ?destroy@?$allocator@UtagDROPITEM@@@std@@QAEXPAUtagDROPITEM@@@Z
_TEXT	SEGMENT PARA USE32 PUBLIC 'CODE'
_TEXT	ENDS
;	COMDAT ?destroy@?$allocator@UWORMON@@@std@@QAEXPAUWORMON@@@Z
_TEXT	SEGMENT PARA USE32 PUBLIC 'CODE'
_TEXT	ENDS
;	COMDAT ?destroy@?$allocator@U__ITEMGAME@CMiniGame@@@std@@QAEXPAU__ITEMGAME@CMiniGame@@@Z
_TEXT	SEGMENT PARA USE32 PUBLIC 'CODE'
_TEXT	ENDS
;	COMDAT ?destroy@?$allocator@U__ITEM@CExchange@@@std@@QAEXPAU__ITEM@CExchange@@@Z
_TEXT	SEGMENT PARA USE32 PUBLIC 'CODE'
_TEXT	ENDS
;	COMDAT ?destroy@?$allocator@U__POINT@CExchange@@@std@@QAEXPAU__POINT@CExchange@@@Z
_TEXT	SEGMENT PARA USE32 PUBLIC 'CODE'
_TEXT	ENDS
;	COMDAT ?begin@?$vector@EV?$allocator@E@std@@@std@@QAE?AViterator@12@XZ
_TEXT	SEGMENT PARA USE32 PUBLIC 'CODE'
_TEXT	ENDS
;	COMDAT ?end@?$vector@EV?$allocator@E@std@@@std@@QAE?AViterator@12@XZ
_TEXT	SEGMENT PARA USE32 PUBLIC 'CODE'
_TEXT	ENDS
;	COMDAT ?erase@?$vector@EV?$allocator@E@std@@@std@@QAE?AViterator@12@V312@0@Z
_TEXT	SEGMENT PARA USE32 PUBLIC 'CODE'
_TEXT	ENDS
;	COMDAT ?construct@?$allocator@U__SPAWNREGION@CEventLua@@@std@@QAEXPAU__SPAWNREGION@CEventLua@@ABU34@@Z
_TEXT	SEGMENT PARA USE32 PUBLIC 'CODE'
_TEXT	ENDS
;	COMDAT ?destroy@?$allocator@U__SPAWNREGION@CEventLua@@@std@@QAEXPAU__SPAWNREGION@CEventLua@@@Z
_TEXT	SEGMENT PARA USE32 PUBLIC 'CODE'
_TEXT	ENDS
;	COMDAT ?destroy@?$allocator@UD3DXVECTOR3@@@std@@QAEXPAUD3DXVECTOR3@@@Z
_TEXT	SEGMENT PARA USE32 PUBLIC 'CODE'
_TEXT	ENDS
;	COMDAT ?destroy@?$allocator@U_GIFTBOX@@@std@@QAEXPAU_GIFTBOX@@@Z
_TEXT	SEGMENT PARA USE32 PUBLIC 'CODE'
_TEXT	ENDS
;	COMDAT ??0?$pair@KPAVCGuildHouseBase@@@std@@QAE@ABKABQAVCGuildHouseBase@@@Z
_TEXT	SEGMENT PARA USE32 PUBLIC 'CODE'
_TEXT	ENDS
;	COMDAT ??9const_iterator@?$vector@EV?$allocator@E@std@@@std@@QBE_NABV012@@Z
_TEXT	SEGMENT PARA USE32 PUBLIC 'CODE'
_TEXT	ENDS
;	COMDAT ??0iterator@?$vector@EV?$allocator@E@std@@@std@@QAE@PAE@Z
_TEXT	SEGMENT PARA USE32 PUBLIC 'CODE'
_TEXT	ENDS
;	COMDAT ??8const_iterator@?$vector@EV?$allocator@E@std@@@std@@QBE_NABV012@@Z
_TEXT	SEGMENT PARA USE32 PUBLIC 'CODE'
_TEXT	ENDS
;	COMDAT ??$insert@Vconst_iterator@?$vector@EV?$allocator@E@std@@@std@@@?$vector@EV?$allocator@E@std@@@std@@QAEXViterator@01@Vconst_iterator@01@1@Z
_TEXT	SEGMENT PARA USE32 PUBLIC 'CODE'
_TEXT	ENDS
;	COMDAT ??$_Ptr_cat@Vconst_iterator@?$vector@EV?$allocator@E@std@@@std@@PAE@std@@YA?AU_Nonscalar_ptr_iterator_tag@0@AAVconst_iterator@?$vector@EV?$allocator@E@std@@@0@AAPAE@Z
_TEXT	SEGMENT PARA USE32 PUBLIC 'CODE'
_TEXT	ENDS
;	COMDAT ??$_Uninit_copy@Vconst_iterator@?$vector@EV?$allocator@E@std@@@std@@PAEV?$allocator@E@3@@std@@YAPAEVconst_iterator@?$vector@EV?$allocator@E@std@@@0@0PAEAAV?$allocator@E@0@U_Nonscalar_ptr_iterator_tag@0@@Z
_TEXT	SEGMENT PARA USE32 PUBLIC 'CODE'
_TEXT	ENDS
;	COMDAT ??$_Uninit_copy@JJ@std@@YAPAJPAJ00AAV?$allocator@J@0@U_Scalar_ptr_iterator_tag@0@@Z
_TEXT	SEGMENT PARA USE32 PUBLIC 'CODE'
_TEXT	ENDS
;	COMDAT ??$_Uninit_copy@PAU__SPAWNREGION@CEventLua@@PAU12@V?$allocator@U__SPAWNREGION@CEventLua@@@std@@@std@@YAPAU__SPAWNREGION@CEventLua@@PAU12@00AAV?$allocator@U__SPAWNREGION@CEventLua@@@0@U_Nonscalar_ptr_iterator_tag@0@@Z
_TEXT	SEGMENT PARA USE32 PUBLIC 'CODE'
_TEXT	ENDS
;	COMDAT ??$fill_n@PAJIJ@std@@YAXPAJIABJ@Z
_TEXT	SEGMENT PARA USE32 PUBLIC 'CODE'
_TEXT	ENDS
;	COMDAT ??$_Iter_cat@Viterator@?$_Tree@V?$_Tmap_traits@KU_Friend@@U?$less@K@std@@V?$allocator@U?$pair@$$CBKU_Friend@@@std@@@3@$0A@@std@@@std@@@std@@YA?AUbidirectional_iterator_tag@0@ABViterator@?$_Tree@V?$_Tmap_traits@KU_Friend@@U?$less@K@std@@V?$allocator@U?$pair@$$CBKU_Friend@@@std@@@3@$0A@@std@@@0@@Z
_TEXT	SEGMENT PARA USE32 PUBLIC 'CODE'
_TEXT	ENDS
;	COMDAT ??$_Distance2@Viterator@?$_Tree@V?$_Tmap_traits@KU_Friend@@U?$less@K@std@@V?$allocator@U?$pair@$$CBKU_Friend@@@std@@@3@$0A@@std@@@std@@I@std@@YAXViterator@?$_Tree@V?$_Tmap_traits@KU_Friend@@U?$less@K@std@@V?$allocator@U?$pair@$$CBKU_Friend@@@std@@@3@$0A@@std@@@0@0AAIUbidirectional_iterator_tag@0@@Z
_TEXT	SEGMENT PARA USE32 PUBLIC 'CODE'
_TEXT	ENDS
;	COMDAT ??$_Iter_cat@Viterator@?$_Tree@V?$_Tmap_traits@KKU?$less@K@std@@V?$allocator@U?$pair@$$CBKK@std@@@2@$0A@@std@@@std@@@std@@YA?AUbidirectional_iterator_tag@0@ABViterator@?$_Tree@V?$_Tmap_traits@KKU?$less@K@std@@V?$allocator@U?$pair@$$CBKK@std@@@2@$0A@@std@@@0@@Z
_TEXT	SEGMENT PARA USE32 PUBLIC 'CODE'
_TEXT	ENDS
;	COMDAT ??$_Distance2@Viterator@?$_Tree@V?$_Tmap_traits@KKU?$less@K@std@@V?$allocator@U?$pair@$$CBKK@std@@@2@$0A@@std@@@std@@I@std@@YAXViterator@?$_Tree@V?$_Tmap_traits@KKU?$less@K@std@@V?$allocator@U?$pair@$$CBKK@std@@@2@$0A@@std@@@0@0AAIUbidirectional_iterator_tag@0@@Z
_TEXT	SEGMENT PARA USE32 PUBLIC 'CODE'
_TEXT	ENDS
;	COMDAT ??$_Ptr_cat@PAV?$basic_string@DU?$char_traits@D@std@@V?$allocator@D@2@@std@@PAV12@@std@@YA?AU_Nonscalar_ptr_iterator_tag@0@AAPAV?$basic_string@DU?$char_traits@D@std@@V?$allocator@D@2@@0@0@Z
_TEXT	SEGMENT PARA USE32 PUBLIC 'CODE'
_TEXT	ENDS
;	COMDAT ??$_Uninit_fill_n@PAV?$basic_string@DU?$char_traits@D@std@@V?$allocator@D@2@@std@@IV12@V?$allocator@V?$basic_string@DU?$char_traits@D@std@@V?$allocator@D@2@@std@@@2@@std@@YAXPAV?$basic_string@DU?$char_traits@D@std@@V?$allocator@D@2@@0@IABV10@AAV?$allocator@V?$basic_string@DU?$char_traits@D@std@@V?$allocator@D@2@@std@@@0@U_Nonscalar_ptr_iterator_tag@0@@Z
_TEXT	SEGMENT PARA USE32 PUBLIC 'CODE'
_TEXT	ENDS
;	COMDAT ??$_Ptr_cat@PAUMINIGMAME_PRIZE_LIST@CRainbowRaceMng@@PAU12@@std@@YA?AU_Nonscalar_ptr_iterator_tag@0@AAPAUMINIGMAME_PRIZE_LIST@CRainbowRaceMng@@0@Z
_TEXT	SEGMENT PARA USE32 PUBLIC 'CODE'
_TEXT	ENDS
;	COMDAT ??$_Uninit_fill_n@PAUMINIGMAME_PRIZE_LIST@CRainbowRaceMng@@IU12@V?$allocator@UMINIGMAME_PRIZE_LIST@CRainbowRaceMng@@@std@@@std@@YAXPAUMINIGMAME_PRIZE_LIST@CRainbowRaceMng@@IABU12@AAV?$allocator@UMINIGMAME_PRIZE_LIST@CRainbowRaceMng@@@0@U_Nonscalar_ptr_iterator_tag@0@@Z
_TEXT	SEGMENT PARA USE32 PUBLIC 'CODE'
_TEXT	ENDS
;	COMDAT ??$_Ptr_cat@U__JOINPLAYER@CGuildCombat@@@std@@YA?AU_Scalar_ptr_iterator_tag@0@PAPAU__JOINPLAYER@CGuildCombat@@0@Z
_TEXT	SEGMENT PARA USE32 PUBLIC 'CODE'
_TEXT	ENDS
;	COMDAT ??$_Destroy_range@PAU__JOINPLAYER@CGuildCombat@@V?$allocator@PAU__JOINPLAYER@CGuildCombat@@@std@@@std@@YAXPAPAU__JOINPLAYER@CGuildCombat@@0AAV?$allocator@PAU__JOINPLAYER@CGuildCombat@@@0@U_Scalar_ptr_iterator_tag@0@@Z
_TEXT	SEGMENT PARA USE32 PUBLIC 'CODE'
_TEXT	ENDS
;	COMDAT ??$_Ptr_cat@PAU__SECRETROOM_MONSTER@@PAU1@@std@@YA?AU_Nonscalar_ptr_iterator_tag@0@AAPAU__SECRETROOM_MONSTER@@0@Z
_TEXT	SEGMENT PARA USE32 PUBLIC 'CODE'
_TEXT	ENDS
;	COMDAT ??$_Destroy_range@U__SECRETROOM_MONSTER@@V?$allocator@U__SECRETROOM_MONSTER@@@std@@@std@@YAXPAU__SECRETROOM_MONSTER@@0AAV?$allocator@U__SECRETROOM_MONSTER@@@0@U_Nonscalar_ptr_iterator_tag@0@@Z
_TEXT	SEGMENT PARA USE32 PUBLIC 'CODE'
_TEXT	ENDS
;	COMDAT ??$_Destroy_range@V?$basic_string@DU?$char_traits@D@std@@V?$allocator@D@2@@std@@V?$allocator@V?$basic_string@DU?$char_traits@D@std@@V?$allocator@D@2@@std@@@2@@std@@YAXPAV?$basic_string@DU?$char_traits@D@std@@V?$allocator@D@2@@0@0AAV?$allocator@V?$basic_string@DU?$char_traits@D@std@@V?$allocator@D@2@@std@@@0@U_Nonscalar_ptr_iterator_tag@0@@Z
_TEXT	SEGMENT PARA USE32 PUBLIC 'CODE'
_TEXT	ENDS
;	COMDAT ??$_Uninitialized_copy@PAV?$basic_string@DU?$char_traits@D@std@@V?$allocator@D@2@@std@@PAV12@V?$allocator@V?$basic_string@DU?$char_traits@D@std@@V?$allocator@D@2@@std@@@2@@std@@YAPAV?$basic_string@DU?$char_traits@D@std@@V?$allocator@D@2@@0@PAV10@00AAV?$allocator@V?$basic_string@DU?$char_traits@D@std@@V?$allocator@D@2@@std@@@0@@Z
_TEXT	SEGMENT PARA USE32 PUBLIC 'CODE'
_TEXT	ENDS
;	COMDAT ??$_Copy_backward_opt@PAV?$basic_string@DU?$char_traits@D@std@@V?$allocator@D@2@@std@@PAV12@@std@@YAPAV?$basic_string@DU?$char_traits@D@std@@V?$allocator@D@2@@0@PAV10@00U_Nonscalar_ptr_iterator_tag@0@@Z
_TEXT	SEGMENT PARA USE32 PUBLIC 'CODE'
_TEXT	ENDS
;	COMDAT ??$_Uninitialized_copy@PAUMINIGMAME_PRIZE_LIST@CRainbowRaceMng@@PAU12@V?$allocator@UMINIGMAME_PRIZE_LIST@CRainbowRaceMng@@@std@@@std@@YAPAUMINIGMAME_PRIZE_LIST@CRainbowRaceMng@@PAU12@00AAV?$allocator@UMINIGMAME_PRIZE_LIST@CRainbowRaceMng@@@0@@Z
_TEXT	SEGMENT PARA USE32 PUBLIC 'CODE'
_TEXT	ENDS
;	COMDAT ??$_Copy_backward_opt@PAUMINIGMAME_PRIZE_LIST@CRainbowRaceMng@@PAU12@@std@@YAPAUMINIGMAME_PRIZE_LIST@CRainbowRaceMng@@PAU12@00U_Nonscalar_ptr_iterator_tag@0@@Z
_TEXT	SEGMENT PARA USE32 PUBLIC 'CODE'
_TEXT	ENDS
;	COMDAT ??$_Destroy_range@UMINIGMAME_PRIZE_LIST@CRainbowRaceMng@@V?$allocator@UMINIGMAME_PRIZE_LIST@CRainbowRaceMng@@@std@@@std@@YAXPAUMINIGMAME_PRIZE_LIST@CRainbowRaceMng@@0AAV?$allocator@UMINIGMAME_PRIZE_LIST@CRainbowRaceMng@@@0@U_Nonscalar_ptr_iterator_tag@0@@Z
_TEXT	SEGMENT PARA USE32 PUBLIC 'CODE'
_TEXT	ENDS
;	COMDAT ??$_Destroy@UtagDROPITEM@@@std@@YAXPAUtagDROPITEM@@@Z
_TEXT	SEGMENT PARA USE32 PUBLIC 'CODE'
_TEXT	ENDS
;	COMDAT ??$_Destroy@UWORMON@@@std@@YAXPAUWORMON@@@Z
_TEXT	SEGMENT PARA USE32 PUBLIC 'CODE'
_TEXT	ENDS
;	COMDAT ??$_Destroy@U__ITEMGAME@CMiniGame@@@std@@YAXPAU__ITEMGAME@CMiniGame@@@Z
_TEXT	SEGMENT PARA USE32 PUBLIC 'CODE'
_TEXT	ENDS
;	COMDAT ??$_Destroy@U__ITEM@CExchange@@@std@@YAXPAU__ITEM@CExchange@@@Z
_TEXT	SEGMENT PARA USE32 PUBLIC 'CODE'
_TEXT	ENDS
;	COMDAT ??$_Destroy@U__POINT@CExchange@@@std@@YAXPAU__POINT@CExchange@@@Z
_TEXT	SEGMENT PARA USE32 PUBLIC 'CODE'
_TEXT	ENDS
;	COMDAT ??$copy@PAEPAE@std@@YAPAEPAE00@Z
_TEXT	SEGMENT PARA USE32 PUBLIC 'CODE'
_TEXT	ENDS
;	COMDAT ??$_Construct@U__SPAWNREGION@CEventLua@@U12@@std@@YAXPAU__SPAWNREGION@CEventLua@@ABU12@@Z
_TEXT	SEGMENT PARA USE32 PUBLIC 'CODE'
_TEXT	ENDS
;	COMDAT ??$_Destroy@U__SPAWNREGION@CEventLua@@@std@@YAXPAU__SPAWNREGION@CEventLua@@@Z
_TEXT	SEGMENT PARA USE32 PUBLIC 'CODE'
_TEXT	ENDS
;	COMDAT ??$_Destroy@UD3DXVECTOR3@@@std@@YAXPAUD3DXVECTOR3@@@Z
_TEXT	SEGMENT PARA USE32 PUBLIC 'CODE'
_TEXT	ENDS
;	COMDAT ??$_Destroy@U_GIFTBOX@@@std@@YAXPAU_GIFTBOX@@@Z
_TEXT	SEGMENT PARA USE32 PUBLIC 'CODE'
_TEXT	ENDS
;	COMDAT ?construct@?$allocator@V?$basic_string@DU?$char_traits@D@std@@V?$allocator@D@2@@std@@@std@@QAEXPAV?$basic_string@DU?$char_traits@D@std@@V?$allocator@D@2@@2@ABV32@@Z
_TEXT	SEGMENT PARA USE32 PUBLIC 'CODE'
_TEXT	ENDS
;	COMDAT ?destroy@?$allocator@V?$basic_string@DU?$char_traits@D@std@@V?$allocator@D@2@@std@@@std@@QAEXPAV?$basic_string@DU?$char_traits@D@std@@V?$allocator@D@2@@2@@Z
_TEXT	SEGMENT PARA USE32 PUBLIC 'CODE'
_TEXT	ENDS
;	COMDAT ?construct@?$allocator@E@std@@QAEXPAEABE@Z
_TEXT	SEGMENT PARA USE32 PUBLIC 'CODE'
_TEXT	ENDS
;	COMDAT ?destroy@?$allocator@E@std@@QAEXPAE@Z
_TEXT	SEGMENT PARA USE32 PUBLIC 'CODE'
_TEXT	ENDS
;	COMDAT ??Dconst_iterator@?$vector@EV?$allocator@E@std@@@std@@QBEABEXZ
_TEXT	SEGMENT PARA USE32 PUBLIC 'CODE'
_TEXT	ENDS
;	COMDAT ??Econst_iterator@?$vector@EV?$allocator@E@std@@@std@@QAEAAV012@XZ
_TEXT	SEGMENT PARA USE32 PUBLIC 'CODE'
_TEXT	ENDS
;	COMDAT ?destroy@?$allocator@U__SECRETROOM_MONSTER@@@std@@QAEXPAU__SECRETROOM_MONSTER@@@Z
_TEXT	SEGMENT PARA USE32 PUBLIC 'CODE'
_TEXT	ENDS
;	COMDAT ?construct@?$allocator@UMINIGMAME_PRIZE_LIST@CRainbowRaceMng@@@std@@QAEXPAUMINIGMAME_PRIZE_LIST@CRainbowRaceMng@@ABU34@@Z
_TEXT	SEGMENT PARA USE32 PUBLIC 'CODE'
_TEXT	ENDS
;	COMDAT ?destroy@?$allocator@UMINIGMAME_PRIZE_LIST@CRainbowRaceMng@@@std@@QAEXPAUMINIGMAME_PRIZE_LIST@CRainbowRaceMng@@@Z
_TEXT	SEGMENT PARA USE32 PUBLIC 'CODE'
_TEXT	ENDS
;	COMDAT ??$_Insert@Vconst_iterator@?$vector@EV?$allocator@E@std@@@std@@@?$vector@EV?$allocator@E@std@@@std@@QAEXViterator@01@Vconst_iterator@01@1Uforward_iterator_tag@1@@Z
_TEXT	SEGMENT PARA USE32 PUBLIC 'CODE'
_TEXT	ENDS
;	COMDAT ??$_Uninit_copy@PAV?$basic_string@DU?$char_traits@D@std@@V?$allocator@D@2@@std@@PAV12@V?$allocator@V?$basic_string@DU?$char_traits@D@std@@V?$allocator@D@2@@std@@@2@@std@@YAPAV?$basic_string@DU?$char_traits@D@std@@V?$allocator@D@2@@0@PAV10@00AAV?$allocator@V?$basic_string@DU?$char_traits@D@std@@V?$allocator@D@2@@std@@@0@U_Nonscalar_ptr_iterator_tag@0@@Z
_TEXT	SEGMENT PARA USE32 PUBLIC 'CODE'
_TEXT	ENDS
;	COMDAT ??$_Uninit_copy@PAUMINIGMAME_PRIZE_LIST@CRainbowRaceMng@@PAU12@V?$allocator@UMINIGMAME_PRIZE_LIST@CRainbowRaceMng@@@std@@@std@@YAPAUMINIGMAME_PRIZE_LIST@CRainbowRaceMng@@PAU12@00AAV?$allocator@UMINIGMAME_PRIZE_LIST@CRainbowRaceMng@@@0@U_Nonscalar_ptr_iterator_tag@0@@Z
_TEXT	SEGMENT PARA USE32 PUBLIC 'CODE'
_TEXT	ENDS
;	COMDAT ??$_Copy_opt@PAEPAE@std@@YAPAEPAE00U_Scalar_ptr_iterator_tag@0@@Z
_TEXT	SEGMENT PARA USE32 PUBLIC 'CODE'
_TEXT	ENDS
;	COMDAT ??$_Construct@V?$basic_string@DU?$char_traits@D@std@@V?$allocator@D@2@@std@@V12@@std@@YAXPAV?$basic_string@DU?$char_traits@D@std@@V?$allocator@D@2@@0@ABV10@@Z
_TEXT	SEGMENT PARA USE32 PUBLIC 'CODE'
_TEXT	ENDS
;	COMDAT ??$_Destroy@V?$basic_string@DU?$char_traits@D@std@@V?$allocator@D@2@@std@@@std@@YAXPAV?$basic_string@DU?$char_traits@D@std@@V?$allocator@D@2@@0@@Z
_TEXT	SEGMENT PARA USE32 PUBLIC 'CODE'
_TEXT	ENDS
;	COMDAT ??$_Construct@EE@std@@YAXPAEABE@Z
_TEXT	SEGMENT PARA USE32 PUBLIC 'CODE'
_TEXT	ENDS
;	COMDAT ??$_Destroy@E@std@@YAXPAE@Z
_TEXT	SEGMENT PARA USE32 PUBLIC 'CODE'
_TEXT	ENDS
;	COMDAT ??$_Destroy@U__SECRETROOM_MONSTER@@@std@@YAXPAU__SECRETROOM_MONSTER@@@Z
_TEXT	SEGMENT PARA USE32 PUBLIC 'CODE'
_TEXT	ENDS
;	COMDAT ??$_Construct@UMINIGMAME_PRIZE_LIST@CRainbowRaceMng@@U12@@std@@YAXPAUMINIGMAME_PRIZE_LIST@CRainbowRaceMng@@ABU12@@Z
_TEXT	SEGMENT PARA USE32 PUBLIC 'CODE'
_TEXT	ENDS
;	COMDAT ??$_Destroy@UMINIGMAME_PRIZE_LIST@CRainbowRaceMng@@@std@@YAXPAUMINIGMAME_PRIZE_LIST@CRainbowRaceMng@@@Z
_TEXT	SEGMENT PARA USE32 PUBLIC 'CODE'
_TEXT	ENDS
;	COMDAT ??_G?$basic_string@DU?$char_traits@D@std@@V?$allocator@D@2@@std@@QAEPAXI@Z
_TEXT	SEGMENT PARA USE32 PUBLIC 'CODE'
_TEXT	ENDS
;	COMDAT ?capacity@?$vector@EV?$allocator@E@std@@@std@@QBEIXZ
_TEXT	SEGMENT PARA USE32 PUBLIC 'CODE'
_TEXT	ENDS
;	COMDAT ??Giterator@?$vector@EV?$allocator@E@std@@@std@@QBEHABVconst_iterator@12@@Z
_TEXT	SEGMENT PARA USE32 PUBLIC 'CODE'
_TEXT	ENDS
;	COMDAT ??Gconst_iterator@?$vector@EV?$allocator@E@std@@@std@@QBEHABV012@@Z
_TEXT	SEGMENT PARA USE32 PUBLIC 'CODE'
_TEXT	ENDS
;	COMDAT ??$_Distance@Vconst_iterator@?$vector@EV?$allocator@E@std@@@std@@I@std@@YAXVconst_iterator@?$vector@EV?$allocator@E@std@@@0@0AAI@Z
_TEXT	SEGMENT PARA USE32 PUBLIC 'CODE'
_TEXT	ENDS
;	COMDAT ??$_Ucopy@PAE@?$vector@EV?$allocator@E@std@@@std@@IAEPAEPAE00@Z
_TEXT	SEGMENT PARA USE32 PUBLIC 'CODE'
_TEXT	ENDS
;	COMDAT ??$advance@Vconst_iterator@?$vector@EV?$allocator@E@std@@@std@@H@std@@YAXAAVconst_iterator@?$vector@EV?$allocator@E@std@@@0@H@Z
_TEXT	SEGMENT PARA USE32 PUBLIC 'CODE'
_TEXT	ENDS
;	COMDAT ??$copy@Vconst_iterator@?$vector@EV?$allocator@E@std@@@std@@PAE@std@@YAPAEVconst_iterator@?$vector@EV?$allocator@E@std@@@0@0PAE@Z
_TEXT	SEGMENT PARA USE32 PUBLIC 'CODE'
_TEXT	ENDS
;	COMDAT ??$copy_backward@PAEPAE@std@@YAPAEPAE00@Z
_TEXT	SEGMENT PARA USE32 PUBLIC 'CODE'
_TEXT	ENDS
;	COMDAT ??$_Distance2@Vconst_iterator@?$vector@EV?$allocator@E@std@@@std@@I@std@@YAXVconst_iterator@?$vector@EV?$allocator@E@std@@@0@0AAIUrandom_access_iterator_tag@0@@Z
_TEXT	SEGMENT PARA USE32 PUBLIC 'CODE'
_TEXT	ENDS
;	COMDAT ??$_Uninitialized_copy@PAEPAEV?$allocator@E@std@@@std@@YAPAEPAE00AAV?$allocator@E@0@@Z
_TEXT	SEGMENT PARA USE32 PUBLIC 'CODE'
_TEXT	ENDS
;	COMDAT ??$_Advance@Vconst_iterator@?$vector@EV?$allocator@E@std@@@std@@H@std@@YAXAAVconst_iterator@?$vector@EV?$allocator@E@std@@@0@HUrandom_access_iterator_tag@0@@Z
_TEXT	SEGMENT PARA USE32 PUBLIC 'CODE'
_TEXT	ENDS
;	COMDAT ??$_Copy_opt@Vconst_iterator@?$vector@EV?$allocator@E@std@@@std@@PAE@std@@YAPAEVconst_iterator@?$vector@EV?$allocator@E@std@@@0@0PAEU_Nonscalar_ptr_iterator_tag@0@@Z
_TEXT	SEGMENT PARA USE32 PUBLIC 'CODE'
_TEXT	ENDS
;	COMDAT ??$_Copy_backward_opt@PAEPAE@std@@YAPAEPAE00U_Scalar_ptr_iterator_tag@0@@Z
_TEXT	SEGMENT PARA USE32 PUBLIC 'CODE'
_TEXT	ENDS
;	COMDAT ??Yconst_iterator@?$vector@EV?$allocator@E@std@@@std@@QAEAAV012@H@Z
_TEXT	SEGMENT PARA USE32 PUBLIC 'CODE'
_TEXT	ENDS
;	COMDAT ??$_Uninit_copy@EE@std@@YAPAEPAE00AAV?$allocator@E@0@U_Scalar_ptr_iterator_tag@0@@Z
_TEXT	SEGMENT PARA USE32 PUBLIC 'CODE'
_TEXT	ENDS
;	COMDAT ?deallocate@?$allocator@E@std@@QAEXPAEI@Z
_TEXT	SEGMENT PARA USE32 PUBLIC 'CODE'
_TEXT	ENDS
;	COMDAT ??$_Ucopy@Vconst_iterator@?$vector@EV?$allocator@E@std@@@std@@@?$vector@EV?$allocator@E@std@@@std@@IAEPAEVconst_iterator@01@0PAE@Z
_TEXT	SEGMENT PARA USE32 PUBLIC 'CODE'
_TEXT	ENDS
;	COMDAT ?allocate@?$allocator@E@std@@QAEPAEI@Z
_TEXT	SEGMENT PARA USE32 PUBLIC 'CODE'
_TEXT	ENDS
;	COMDAT ??$_Allocate@E@std@@YAPAEIPAE@Z
_TEXT	SEGMENT PARA USE32 PUBLIC 'CODE'
_TEXT	ENDS
;	COMDAT ?_Xlen@?$vector@EV?$allocator@E@std@@@std@@IBEXXZ
_TEXT	SEGMENT PARA USE32 PUBLIC 'CODE'
_TEXT	ENDS
;	COMDAT ?size@?$vector@EV?$allocator@E@std@@@std@@QBEIXZ
_TEXT	SEGMENT PARA USE32 PUBLIC 'CODE'
_TEXT	ENDS
;	COMDAT ?max_size@?$vector@EV?$allocator@E@std@@@std@@QBEIXZ
_TEXT	SEGMENT PARA USE32 PUBLIC 'CODE'
_TEXT	ENDS
;	COMDAT ?max_size@?$allocator@E@std@@QBEIXZ
_TEXT	SEGMENT PARA USE32 PUBLIC 'CODE'
_TEXT	ENDS
;	COMDAT ?_Ptr_cat@std@@YA?AU_Scalar_ptr_iterator_tag@1@PAE0@Z
_TEXT	SEGMENT PARA USE32 PUBLIC 'CODE'
_TEXT	ENDS
;	COMDAT ??0const_iterator@?$vector@EV?$allocator@E@std@@@std@@QAE@PAE@Z
_TEXT	SEGMENT PARA USE32 PUBLIC 'CODE'
_TEXT	ENDS
;	COMDAT ?_Destroy@?$vector@EV?$allocator@E@std@@@std@@IAEXPAE0@Z
_TEXT	SEGMENT PARA USE32 PUBLIC 'CODE'
_TEXT	ENDS
;	COMDAT ??$_Destroy_range@EV?$allocator@E@std@@@std@@YAXPAE0AAV?$allocator@E@0@@Z
_TEXT	SEGMENT PARA USE32 PUBLIC 'CODE'
_TEXT	ENDS
;	COMDAT ??4?$basic_string@DU?$char_traits@D@std@@V?$allocator@D@2@@std@@QAEAAV01@ABV01@@Z
_TEXT	SEGMENT PARA USE32 PUBLIC 'CODE'
_TEXT	ENDS
;	COMDAT ?assign@?$basic_string@DU?$char_traits@D@std@@V?$allocator@D@2@@std@@QAEAAV12@ABV12@@Z
_TEXT	SEGMENT PARA USE32 PUBLIC 'CODE'
_TEXT	ENDS
;	COMDAT ?assign@?$basic_string@DU?$char_traits@D@std@@V?$allocator@D@2@@std@@QAEAAV12@ABV12@II@Z
_TEXT	SEGMENT PARA USE32 PUBLIC 'CODE'
_TEXT	ENDS
;	COMDAT ?erase@?$basic_string@DU?$char_traits@D@std@@V?$allocator@D@2@@std@@QAEAAV12@II@Z
_TEXT	SEGMENT PARA USE32 PUBLIC 'CODE'
_TEXT	ENDS
;	COMDAT ?move@?$char_traits@D@std@@SAPADPADPBDI@Z
_TEXT	SEGMENT PARA USE32 PUBLIC 'CODE'
_TEXT	ENDS
;	COMDAT ?_Grow@?$basic_string@DU?$char_traits@D@std@@V?$allocator@D@2@@std@@IAE_NI_N@Z
_TEXT	SEGMENT PARA USE32 PUBLIC 'CODE'
_TEXT	ENDS
;	COMDAT ?max_size@?$basic_string@DU?$char_traits@D@std@@V?$allocator@D@2@@std@@QBEIXZ
_TEXT	SEGMENT PARA USE32 PUBLIC 'CODE'
_TEXT	ENDS
;	COMDAT ?max_size@?$allocator@D@std@@QBEIXZ
_TEXT	SEGMENT PARA USE32 PUBLIC 'CODE'
_TEXT	ENDS
;	COMDAT ?_Copy@?$basic_string@DU?$char_traits@D@std@@V?$allocator@D@2@@std@@IAEXII@Z
_TEXT	SEGMENT PARA USE32 PUBLIC 'CODE'
_TEXT	ENDS
;	COMDAT ?allocate@?$allocator@D@std@@QAEPADI@Z
_TEXT	SEGMENT PARA USE32 PUBLIC 'CODE'
_TEXT	ENDS
;	COMDAT ??$_Allocate@D@std@@YAPADIPAD@Z
_TEXT	SEGMENT PARA USE32 PUBLIC 'CODE'
_TEXT	ENDS
;	COMDAT ?_Tidy@?$basic_string@DU?$char_traits@D@std@@V?$allocator@D@2@@std@@IAEX_NI@Z
_TEXT	SEGMENT PARA USE32 PUBLIC 'CODE'
_TEXT	ENDS
;	COMDAT ?deallocate@?$allocator@D@std@@QAEXPADI@Z
_TEXT	SEGMENT PARA USE32 PUBLIC 'CODE'
_TEXT	ENDS
;	COMDAT ?copy@?$char_traits@D@std@@SAPADPADPBDI@Z
_TEXT	SEGMENT PARA USE32 PUBLIC 'CODE'
_TEXT	ENDS
;	COMDAT ?_Myptr@?$basic_string@DU?$char_traits@D@std@@V?$allocator@D@2@@std@@QAEPADXZ
_TEXT	SEGMENT PARA USE32 PUBLIC 'CODE'
_TEXT	ENDS
;	COMDAT ?_Eos@?$basic_string@DU?$char_traits@D@std@@V?$allocator@D@2@@std@@IAEXI@Z
_TEXT	SEGMENT PARA USE32 PUBLIC 'CODE'
_TEXT	ENDS
;	COMDAT ?assign@?$char_traits@D@std@@SAXAADABD@Z
_TEXT	SEGMENT PARA USE32 PUBLIC 'CODE'
_TEXT	ENDS
;	COMDAT ?npos@?$basic_string@DU?$char_traits@D@std@@V?$allocator@D@2@@std@@2IB
CONST	SEGMENT DWORD USE32 PUBLIC 'CONST'
CONST	ENDS
;	COMDAT ??_7?$CFixedArray@UtagWORLD@@@@6B@
CONST	SEGMENT DWORD USE32 PUBLIC 'CONST'
CONST	ENDS
;	COMDAT ?_Ptr_cat@std@@YA?AU_Scalar_ptr_iterator_tag@1@PAJ0@Z
_TEXT	SEGMENT PARA USE32 PUBLIC 'CODE'
_TEXT	ENDS
;	COMDAT ??9const_iterator@?$_Tree@V?$_Tmap_traits@KEU?$less@K@std@@V?$allocator@U?$pair@$$CBKE@std@@@2@$0A@@std@@@std@@QBE_NABV012@@Z
_TEXT	SEGMENT PARA USE32 PUBLIC 'CODE'
_TEXT	ENDS
;	COMDAT ??8const_iterator@?$_Tree@V?$_Tmap_traits@KEU?$less@K@std@@V?$allocator@U?$pair@$$CBKE@std@@@2@$0A@@std@@@std@@QBE_NABV012@@Z
_TEXT	SEGMENT PARA USE32 PUBLIC 'CODE'
_TEXT	ENDS
;	COMDAT ??Eiterator@?$_Tree@V?$_Tmap_traits@KEU?$less@K@std@@V?$allocator@U?$pair@$$CBKE@std@@@2@$0A@@std@@@std@@QAEAAV012@XZ
_TEXT	SEGMENT PARA USE32 PUBLIC 'CODE'
_TEXT	ENDS
;	COMDAT ??Econst_iterator@?$_Tree@V?$_Tmap_traits@KEU?$less@K@std@@V?$allocator@U?$pair@$$CBKE@std@@@2@$0A@@std@@@std@@QAEAAV012@XZ
_TEXT	SEGMENT PARA USE32 PUBLIC 'CODE'
_TEXT	ENDS
;	COMDAT ?_Inc@const_iterator@?$_Tree@V?$_Tmap_traits@KEU?$less@K@std@@V?$allocator@U?$pair@$$CBKE@std@@@2@$0A@@std@@@std@@QAEXXZ
_TEXT	SEGMENT PARA USE32 PUBLIC 'CODE'
_TEXT	ENDS
;	COMDAT ?_Min@?$_Tree@V?$_Tmap_traits@KEU?$less@K@std@@V?$allocator@U?$pair@$$CBKE@std@@@2@$0A@@std@@@std@@KAPAU_Node@?$_Tree_nod@V?$_Tmap_traits@KEU?$less@K@std@@V?$allocator@U?$pair@$$CBKE@std@@@2@$0A@@std@@@2@PAU342@@Z
_TEXT	SEGMENT PARA USE32 PUBLIC 'CODE'
_TEXT	ENDS
;	COMDAT ?_Left@?$_Tree@V?$_Tmap_traits@KEU?$less@K@std@@V?$allocator@U?$pair@$$CBKE@std@@@2@$0A@@std@@@std@@KAAAPAU_Node@?$_Tree_nod@V?$_Tmap_traits@KEU?$less@K@std@@V?$allocator@U?$pair@$$CBKE@std@@@2@$0A@@std@@@2@PAU342@@Z
_TEXT	SEGMENT PARA USE32 PUBLIC 'CODE'
_TEXT	ENDS
;	COMDAT ?_Isnil@?$_Tree@V?$_Tmap_traits@KEU?$less@K@std@@V?$allocator@U?$pair@$$CBKE@std@@@2@$0A@@std@@@std@@KAAADPAU_Node@?$_Tree_nod@V?$_Tmap_traits@KEU?$less@K@std@@V?$allocator@U?$pair@$$CBKE@std@@@2@$0A@@std@@@2@@Z
_TEXT	SEGMENT PARA USE32 PUBLIC 'CODE'
_TEXT	ENDS
;	COMDAT ?_Parent@?$_Tree@V?$_Tmap_traits@KEU?$less@K@std@@V?$allocator@U?$pair@$$CBKE@std@@@2@$0A@@std@@@std@@KAAAPAU_Node@?$_Tree_nod@V?$_Tmap_traits@KEU?$less@K@std@@V?$allocator@U?$pair@$$CBKE@std@@@2@$0A@@std@@@2@PAU342@@Z
_TEXT	SEGMENT PARA USE32 PUBLIC 'CODE'
_TEXT	ENDS
;	COMDAT ?_Right@?$_Tree@V?$_Tmap_traits@KEU?$less@K@std@@V?$allocator@U?$pair@$$CBKE@std@@@2@$0A@@std@@@std@@KAAAPAU_Node@?$_Tree_nod@V?$_Tmap_traits@KEU?$less@K@std@@V?$allocator@U?$pair@$$CBKE@std@@@2@$0A@@std@@@2@PAU342@@Z
_TEXT	SEGMENT PARA USE32 PUBLIC 'CODE'
_TEXT	ENDS
;	COMDAT ??9const_iterator@?$_Tree@V?$_Tmap_traits@KPAVCCtrl@@U?$less@K@std@@V?$allocator@U?$pair@$$CBKPAVCCtrl@@@std@@@3@$0A@@std@@@std@@QBE_NABV012@@Z
_TEXT	SEGMENT PARA USE32 PUBLIC 'CODE'
_TEXT	ENDS
;	COMDAT ??9const_iterator@?$_Tree@V?$_Tmap_traits@KPAVCUser@@U?$less@K@std@@V?$allocator@U?$pair@$$CBKPAVCUser@@@std@@@3@$0A@@std@@@std@@QBE_NABV012@@Z
_TEXT	SEGMENT PARA USE32 PUBLIC 'CODE'
_TEXT	ENDS
;	COMDAT ??8const_iterator@?$_Tree@V?$_Tmap_traits@KPAVCUser@@U?$less@K@std@@V?$allocator@U?$pair@$$CBKPAVCUser@@@std@@@3@$0A@@std@@@std@@QBE_NABV012@@Z
_TEXT	SEGMENT PARA USE32 PUBLIC 'CODE'
_TEXT	ENDS
;	COMDAT ??Eiterator@?$_Tree@V?$_Tmap_traits@KPAVCUser@@U?$less@K@std@@V?$allocator@U?$pair@$$CBKPAVCUser@@@std@@@3@$0A@@std@@@std@@QAEAAV012@XZ
_TEXT	SEGMENT PARA USE32 PUBLIC 'CODE'
_TEXT	ENDS
;	COMDAT ??Econst_iterator@?$_Tree@V?$_Tmap_traits@KPAVCUser@@U?$less@K@std@@V?$allocator@U?$pair@$$CBKPAVCUser@@@std@@@3@$0A@@std@@@std@@QAEAAV012@XZ
_TEXT	SEGMENT PARA USE32 PUBLIC 'CODE'
_TEXT	ENDS
;	COMDAT ?_Inc@const_iterator@?$_Tree@V?$_Tmap_traits@KPAVCUser@@U?$less@K@std@@V?$allocator@U?$pair@$$CBKPAVCUser@@@std@@@3@$0A@@std@@@std@@QAEXXZ
_TEXT	SEGMENT PARA USE32 PUBLIC 'CODE'
_TEXT	ENDS
;	COMDAT ?_Min@?$_Tree@V?$_Tmap_traits@KPAVCUser@@U?$less@K@std@@V?$allocator@U?$pair@$$CBKPAVCUser@@@std@@@3@$0A@@std@@@std@@KAPAU_Node@?$_Tree_nod@V?$_Tmap_traits@KPAVCUser@@U?$less@K@std@@V?$allocator@U?$pair@$$CBKPAVCUser@@@std@@@3@$0A@@std@@@2@PAU342@@Z
_TEXT	SEGMENT PARA USE32 PUBLIC 'CODE'
_TEXT	ENDS
;	COMDAT ?_Left@?$_Tree@V?$_Tmap_traits@KPAVCUser@@U?$less@K@std@@V?$allocator@U?$pair@$$CBKPAVCUser@@@std@@@3@$0A@@std@@@std@@KAAAPAU_Node@?$_Tree_nod@V?$_Tmap_traits@KPAVCUser@@U?$less@K@std@@V?$allocator@U?$pair@$$CBKPAVCUser@@@std@@@3@$0A@@std@@@2@PAU342@@Z
_TEXT	SEGMENT PARA USE32 PUBLIC 'CODE'
_TEXT	ENDS
;	COMDAT ?_Isnil@?$_Tree@V?$_Tmap_traits@KPAVCUser@@U?$less@K@std@@V?$allocator@U?$pair@$$CBKPAVCUser@@@std@@@3@$0A@@std@@@std@@KAAADPAU_Node@?$_Tree_nod@V?$_Tmap_traits@KPAVCUser@@U?$less@K@std@@V?$allocator@U?$pair@$$CBKPAVCUser@@@std@@@3@$0A@@std@@@2@@Z
_TEXT	SEGMENT PARA USE32 PUBLIC 'CODE'
_TEXT	ENDS
;	COMDAT ?_Parent@?$_Tree@V?$_Tmap_traits@KPAVCUser@@U?$less@K@std@@V?$allocator@U?$pair@$$CBKPAVCUser@@@std@@@3@$0A@@std@@@std@@KAAAPAU_Node@?$_Tree_nod@V?$_Tmap_traits@KPAVCUser@@U?$less@K@std@@V?$allocator@U?$pair@$$CBKPAVCUser@@@std@@@3@$0A@@std@@@2@PAU342@@Z
_TEXT	SEGMENT PARA USE32 PUBLIC 'CODE'
_TEXT	ENDS
;	COMDAT ?_Right@?$_Tree@V?$_Tmap_traits@KPAVCUser@@U?$less@K@std@@V?$allocator@U?$pair@$$CBKPAVCUser@@@std@@@3@$0A@@std@@@std@@KAAAPAU_Node@?$_Tree_nod@V?$_Tmap_traits@KPAVCUser@@U?$less@K@std@@V?$allocator@U?$pair@$$CBKPAVCUser@@@std@@@3@$0A@@std@@@2@PAU342@@Z
_TEXT	SEGMENT PARA USE32 PUBLIC 'CODE'
_TEXT	ENDS
;	COMDAT ?IsEmpty@CItemBase@@QAEHXZ
_TEXT	SEGMENT PARA USE32 PUBLIC 'CODE'
_TEXT	ENDS
;	COMDAT ?_Psave@?$_Facetptr@V?$ctype@G@std@@@std@@2PBVfacet@locale@2@B
_DATA	SEGMENT DWORD USE32 PUBLIC 'DATA'
_DATA	ENDS
;	COMDAT ?_Psave@?$_Facetptr@V?$ctype@D@std@@@std@@2PBVfacet@locale@2@B
_DATA	SEGMENT DWORD USE32 PUBLIC 'DATA'
_DATA	ENDS
;	COMDAT ??3@YAXPAX0@Z
_TEXT	SEGMENT PARA USE32 PUBLIC 'CODE'
_TEXT	ENDS
;	COMDAT ??2@YAPAXIPAX@Z
_TEXT	SEGMENT PARA USE32 PUBLIC 'CODE'
_TEXT	ENDS
;	COMDAT ??0?$basic_string@DU?$char_traits@D@std@@V?$allocator@D@2@@std@@QAE@ABV01@@Z
_TEXT	SEGMENT PARA USE32 PUBLIC 'CODE'
_TEXT	ENDS
;	COMDAT ??0?$_String_val@DV?$allocator@D@std@@@std@@IAE@V?$allocator@D@1@@Z
_TEXT	SEGMENT PARA USE32 PUBLIC 'CODE'
_TEXT	ENDS
;	COMDAT ??0?$allocator@D@std@@QAE@ABV01@@Z
_TEXT	SEGMENT PARA USE32 PUBLIC 'CODE'
_TEXT	ENDS
;	COMDAT ??_C@_0BD@OLBABOEK@vector?$DMT?$DO?5too?5long?$AA@
CONST	SEGMENT DWORD USE32 PUBLIC 'CONST'
CONST	ENDS
;	COMDAT ??$swap@D@std@@YAXAAD0@Z
_TEXT	SEGMENT PARA USE32 PUBLIC 'CODE'
_TEXT	ENDS
;	COMDAT __TI3?AVout_of_range@std@@
xdata$x	SEGMENT DWORD USE32 PUBLIC 'CONST'
xdata$x	ENDS
;	COMDAT ??1out_of_range@std@@UAE@XZ
_TEXT	SEGMENT PARA USE32 PUBLIC 'CODE'
_TEXT	ENDS
;	COMDAT ??_7out_of_range@std@@6B@
CONST	SEGMENT DWORD USE32 PUBLIC 'CONST'
CONST	ENDS
;	COMDAT ??_Gout_of_range@std@@UAEPAXI@Z
_TEXT	SEGMENT PARA USE32 PUBLIC 'CODE'
_TEXT	ENDS
;	COMDAT ?what@logic_error@std@@UBEPBDXZ
_TEXT	SEGMENT PARA USE32 PUBLIC 'CODE'
_TEXT	ENDS
;	COMDAT ??1logic_error@std@@UAE@XZ
_TEXT	SEGMENT PARA USE32 PUBLIC 'CODE'
_TEXT	ENDS
;	COMDAT ??_7logic_error@std@@6B@
CONST	SEGMENT DWORD USE32 PUBLIC 'CONST'
CONST	ENDS
;	COMDAT ??_Glogic_error@std@@UAEPAXI@Z
_TEXT	SEGMENT PARA USE32 PUBLIC 'CODE'
_TEXT	ENDS
;	COMDAT __CTA3?AVout_of_range@std@@
xdata$x	SEGMENT DWORD USE32 PUBLIC 'CONST'
xdata$x	ENDS
;	COMDAT __CT??_R0?AVout_of_range@std@@@8??0out_of_range@std@@QAE@ABV01@@Z40
xdata$x	SEGMENT DWORD USE32 PUBLIC 'CONST'
xdata$x	ENDS
;	COMDAT ??_R0?AVout_of_range@std@@@8
_DATA	SEGMENT DWORD USE32 PUBLIC 'DATA'
_DATA	ENDS
;	COMDAT ??0out_of_range@std@@QAE@ABV01@@Z
_TEXT	SEGMENT PARA USE32 PUBLIC 'CODE'
_TEXT	ENDS
;	COMDAT ??0logic_error@std@@QAE@ABV01@@Z
_TEXT	SEGMENT PARA USE32 PUBLIC 'CODE'
_TEXT	ENDS
;	COMDAT __CT??_R0?AVlogic_error@std@@@8??0logic_error@std@@QAE@ABV01@@Z40
xdata$x	SEGMENT DWORD USE32 PUBLIC 'CONST'
xdata$x	ENDS
;	COMDAT ??_R0?AVlogic_error@std@@@8
_DATA	SEGMENT DWORD USE32 PUBLIC 'DATA'
_DATA	ENDS
;	COMDAT __CT??_R0?AVexception@@@8??0exception@@QAE@ABV0@@Z12
xdata$x	SEGMENT DWORD USE32 PUBLIC 'CONST'
xdata$x	ENDS
;	COMDAT ??_R0?AVexception@@@8
_DATA	SEGMENT DWORD USE32 PUBLIC 'DATA'
_DATA	ENDS
;	COMDAT ??_C@_0BM@PAPJHAGI@invalid?5map?1set?$DMT?$DO?5iterator?$AA@
CONST	SEGMENT DWORD USE32 PUBLIC 'CONST'
CONST	ENDS
;	COMDAT ??0out_of_range@std@@QAE@ABV?$basic_string@DU?$char_traits@D@std@@V?$allocator@D@2@@1@@Z
_TEXT	SEGMENT PARA USE32 PUBLIC 'CODE'
_TEXT	ENDS
;	COMDAT ??0logic_error@std@@QAE@ABV?$basic_string@DU?$char_traits@D@std@@V?$allocator@D@2@@1@@Z
_TEXT	SEGMENT PARA USE32 PUBLIC 'CODE'
_TEXT	ENDS
;	COMDAT __TI3?AVlength_error@std@@
xdata$x	SEGMENT DWORD USE32 PUBLIC 'CONST'
xdata$x	ENDS
;	COMDAT ??1length_error@std@@UAE@XZ
_TEXT	SEGMENT PARA USE32 PUBLIC 'CODE'
_TEXT	ENDS
;	COMDAT ??_7length_error@std@@6B@
CONST	SEGMENT DWORD USE32 PUBLIC 'CONST'
CONST	ENDS
;	COMDAT ??_Glength_error@std@@UAEPAXI@Z
_TEXT	SEGMENT PARA USE32 PUBLIC 'CODE'
_TEXT	ENDS
;	COMDAT __CTA3?AVlength_error@std@@
xdata$x	SEGMENT DWORD USE32 PUBLIC 'CONST'
xdata$x	ENDS
;	COMDAT __CT??_R0?AVlength_error@std@@@8??0length_error@std@@QAE@ABV01@@Z40
xdata$x	SEGMENT DWORD USE32 PUBLIC 'CONST'
xdata$x	ENDS
;	COMDAT ??_R0?AVlength_error@std@@@8
_DATA	SEGMENT DWORD USE32 PUBLIC 'DATA'
_DATA	ENDS
;	COMDAT ??0length_error@std@@QAE@ABV01@@Z
_TEXT	SEGMENT PARA USE32 PUBLIC 'CODE'
_TEXT	ENDS
;	COMDAT ??_C@_0BE@JONHPENG@map?1set?$DMT?$DO?5too?5long?$AA@
CONST	SEGMENT DWORD USE32 PUBLIC 'CONST'
CONST	ENDS
;	COMDAT ??0length_error@std@@QAE@ABV?$basic_string@DU?$char_traits@D@std@@V?$allocator@D@2@@1@@Z
_TEXT	SEGMENT PARA USE32 PUBLIC 'CODE'
_TEXT	ENDS
;	COMDAT ?insert@?$_Tree@V?$_Tmap_traits@KPAVCCtrl@@U?$less@K@std@@V?$allocator@U?$pair@$$CBKPAVCCtrl@@@std@@@3@$0A@@std@@@std@@QAE?AU?$pair@Viterator@?$_Tree@V?$_Tmap_traits@KPAVCCtrl@@U?$less@K@std@@V?$allocator@U?$pair@$$CBKPAVCCtrl@@@std@@@3@$0A@@std@@@std@@_N@2@ABU?$pair@$$CBKPAVCCtrl@@@2@@Z
_TEXT	SEGMENT PARA USE32 PUBLIC 'CODE'
_TEXT	ENDS
;	COMDAT ?_Root@?$_Tree@V?$_Tmap_traits@KPAVCCtrl@@U?$less@K@std@@V?$allocator@U?$pair@$$CBKPAVCCtrl@@@std@@@3@$0A@@std@@@std@@IAEAAPAU_Node@?$_Tree_nod@V?$_Tmap_traits@KPAVCCtrl@@U?$less@K@std@@V?$allocator@U?$pair@$$CBKPAVCCtrl@@@std@@@3@$0A@@std@@@2@XZ
_TEXT	SEGMENT PARA USE32 PUBLIC 'CODE'
_TEXT	ENDS
;	COMDAT ?_Parent@?$_Tree@V?$_Tmap_traits@KPAVCCtrl@@U?$less@K@std@@V?$allocator@U?$pair@$$CBKPAVCCtrl@@@std@@@3@$0A@@std@@@std@@KAAAPAU_Node@?$_Tree_nod@V?$_Tmap_traits@KPAVCCtrl@@U?$less@K@std@@V?$allocator@U?$pair@$$CBKPAVCCtrl@@@std@@@3@$0A@@std@@@2@PAU342@@Z
_TEXT	SEGMENT PARA USE32 PUBLIC 'CODE'
_TEXT	ENDS
;	COMDAT ?_Left@?$_Tree@V?$_Tmap_traits@KPAVCCtrl@@U?$less@K@std@@V?$allocator@U?$pair@$$CBKPAVCCtrl@@@std@@@3@$0A@@std@@@std@@KAAAPAU_Node@?$_Tree_nod@V?$_Tmap_traits@KPAVCCtrl@@U?$less@K@std@@V?$allocator@U?$pair@$$CBKPAVCCtrl@@@std@@@3@$0A@@std@@@2@PAU342@@Z
_TEXT	SEGMENT PARA USE32 PUBLIC 'CODE'
_TEXT	ENDS
;	COMDAT ??0iterator@?$_Tree@V?$_Tmap_traits@KPAVCCtrl@@U?$less@K@std@@V?$allocator@U?$pair@$$CBKPAVCCtrl@@@std@@@3@$0A@@std@@@std@@QAE@PAU_Node@?$_Tree_nod@V?$_Tmap_traits@KPAVCCtrl@@U?$less@K@std@@V?$allocator@U?$pair@$$CBKPAVCCtrl@@@std@@@3@$0A@@std@@@2@@Z
_TEXT	SEGMENT PARA USE32 PUBLIC 'CODE'
_TEXT	ENDS
;	COMDAT ??0const_iterator@?$_Tree@V?$_Tmap_traits@KPAVCCtrl@@U?$less@K@std@@V?$allocator@U?$pair@$$CBKPAVCCtrl@@@std@@@3@$0A@@std@@@std@@QAE@PAU_Node@?$_Tree_nod@V?$_Tmap_traits@KPAVCCtrl@@U?$less@K@std@@V?$allocator@U?$pair@$$CBKPAVCCtrl@@@std@@@3@$0A@@std@@@2@@Z
_TEXT	SEGMENT PARA USE32 PUBLIC 'CODE'
_TEXT	ENDS
;	COMDAT ??0?$pair@Viterator@?$_Tree@V?$_Tmap_traits@KPAVCCtrl@@U?$less@K@std@@V?$allocator@U?$pair@$$CBKPAVCCtrl@@@std@@@3@$0A@@std@@@std@@_N@std@@QAE@ABViterator@?$_Tree@V?$_Tmap_traits@KPAVCCtrl@@U?$less@K@std@@V?$allocator@U?$pair@$$CBKPAVCCtrl@@@std@@@3@$0A@@std@@@1@AB_N@Z
_TEXT	SEGMENT PARA USE32 PUBLIC 'CODE'
_TEXT	ENDS
;	COMDAT ??Eiterator@?$_Tree@V?$_Tmap_traits@KPAVCCtrl@@U?$less@K@std@@V?$allocator@U?$pair@$$CBKPAVCCtrl@@@std@@@3@$0A@@std@@@std@@QAEAAV012@XZ
_TEXT	SEGMENT PARA USE32 PUBLIC 'CODE'
_TEXT	ENDS
;	COMDAT ??Econst_iterator@?$_Tree@V?$_Tmap_traits@KPAVCCtrl@@U?$less@K@std@@V?$allocator@U?$pair@$$CBKPAVCCtrl@@@std@@@3@$0A@@std@@@std@@QAEAAV012@XZ
_TEXT	SEGMENT PARA USE32 PUBLIC 'CODE'
_TEXT	ENDS
;	COMDAT ?_Inc@const_iterator@?$_Tree@V?$_Tmap_traits@KPAVCCtrl@@U?$less@K@std@@V?$allocator@U?$pair@$$CBKPAVCCtrl@@@std@@@3@$0A@@std@@@std@@QAEXXZ
_TEXT	SEGMENT PARA USE32 PUBLIC 'CODE'
_TEXT	ENDS
;	COMDAT ?_Min@?$_Tree@V?$_Tmap_traits@KPAVCCtrl@@U?$less@K@std@@V?$allocator@U?$pair@$$CBKPAVCCtrl@@@std@@@3@$0A@@std@@@std@@KAPAU_Node@?$_Tree_nod@V?$_Tmap_traits@KPAVCCtrl@@U?$less@K@std@@V?$allocator@U?$pair@$$CBKPAVCCtrl@@@std@@@3@$0A@@std@@@2@PAU342@@Z
_TEXT	SEGMENT PARA USE32 PUBLIC 'CODE'
_TEXT	ENDS
;	COMDAT ?_Right@?$_Tree@V?$_Tmap_traits@KPAVCCtrl@@U?$less@K@std@@V?$allocator@U?$pair@$$CBKPAVCCtrl@@@std@@@3@$0A@@std@@@std@@KAAAPAU_Node@?$_Tree_nod@V?$_Tmap_traits@KPAVCCtrl@@U?$less@K@std@@V?$allocator@U?$pair@$$CBKPAVCCtrl@@@std@@@3@$0A@@std@@@2@PAU342@@Z
_TEXT	SEGMENT PARA USE32 PUBLIC 'CODE'
_TEXT	ENDS
;	COMDAT ?_Isnil@?$_Tree@V?$_Tmap_traits@KPAVCCtrl@@U?$less@K@std@@V?$allocator@U?$pair@$$CBKPAVCCtrl@@@std@@@3@$0A@@std@@@std@@KAAADPAU_Node@?$_Tree_nod@V?$_Tmap_traits@KPAVCCtrl@@U?$less@K@std@@V?$allocator@U?$pair@$$CBKPAVCCtrl@@@std@@@3@$0A@@std@@@2@@Z
_TEXT	SEGMENT PARA USE32 PUBLIC 'CODE'
_TEXT	ENDS
;	COMDAT ??Fiterator@?$_Tree@V?$_Tmap_traits@KPAVCCtrl@@U?$less@K@std@@V?$allocator@U?$pair@$$CBKPAVCCtrl@@@std@@@3@$0A@@std@@@std@@QAEAAV012@XZ
_TEXT	SEGMENT PARA USE32 PUBLIC 'CODE'
_TEXT	ENDS
;	COMDAT ??Fconst_iterator@?$_Tree@V?$_Tmap_traits@KPAVCCtrl@@U?$less@K@std@@V?$allocator@U?$pair@$$CBKPAVCCtrl@@@std@@@3@$0A@@std@@@std@@QAEAAV012@XZ
_TEXT	SEGMENT PARA USE32 PUBLIC 'CODE'
_TEXT	ENDS
;	COMDAT ?_Dec@const_iterator@?$_Tree@V?$_Tmap_traits@KPAVCCtrl@@U?$less@K@std@@V?$allocator@U?$pair@$$CBKPAVCCtrl@@@std@@@3@$0A@@std@@@std@@QAEXXZ
_TEXT	SEGMENT PARA USE32 PUBLIC 'CODE'
_TEXT	ENDS
;	COMDAT ?_Max@?$_Tree@V?$_Tmap_traits@KPAVCCtrl@@U?$less@K@std@@V?$allocator@U?$pair@$$CBKPAVCCtrl@@@std@@@3@$0A@@std@@@std@@KAPAU_Node@?$_Tree_nod@V?$_Tmap_traits@KPAVCCtrl@@U?$less@K@std@@V?$allocator@U?$pair@$$CBKPAVCCtrl@@@std@@@3@$0A@@std@@@2@PAU342@@Z
_TEXT	SEGMENT PARA USE32 PUBLIC 'CODE'
_TEXT	ENDS
;	COMDAT ?_Rmost@?$_Tree@V?$_Tmap_traits@KPAVCCtrl@@U?$less@K@std@@V?$allocator@U?$pair@$$CBKPAVCCtrl@@@std@@@3@$0A@@std@@@std@@IAEAAPAU_Node@?$_Tree_nod@V?$_Tmap_traits@KPAVCCtrl@@U?$less@K@std@@V?$allocator@U?$pair@$$CBKPAVCCtrl@@@std@@@3@$0A@@std@@@2@XZ
_TEXT	SEGMENT PARA USE32 PUBLIC 'CODE'
_TEXT	ENDS
;	COMDAT ?_Kfn@?$_Tmap_traits@KPAVCCtrl@@U?$less@K@std@@V?$allocator@U?$pair@$$CBKPAVCCtrl@@@std@@@3@$0A@@std@@SAABKABU?$pair@$$CBKPAVCCtrl@@@2@@Z
_TEXT	SEGMENT PARA USE32 PUBLIC 'CODE'
_TEXT	ENDS
;	COMDAT ?begin@?$_Tree@V?$_Tmap_traits@KPAVCCtrl@@U?$less@K@std@@V?$allocator@U?$pair@$$CBKPAVCCtrl@@@std@@@3@$0A@@std@@@std@@QAE?AViterator@12@XZ
_TEXT	SEGMENT PARA USE32 PUBLIC 'CODE'
_TEXT	ENDS
;	COMDAT ?_Lmost@?$_Tree@V?$_Tmap_traits@KPAVCCtrl@@U?$less@K@std@@V?$allocator@U?$pair@$$CBKPAVCCtrl@@@std@@@3@$0A@@std@@@std@@IAEAAPAU_Node@?$_Tree_nod@V?$_Tmap_traits@KPAVCCtrl@@U?$less@K@std@@V?$allocator@U?$pair@$$CBKPAVCCtrl@@@std@@@3@$0A@@std@@@2@XZ
_TEXT	SEGMENT PARA USE32 PUBLIC 'CODE'
_TEXT	ENDS
;	COMDAT ?_Insert@?$_Tree@V?$_Tmap_traits@KPAVCCtrl@@U?$less@K@std@@V?$allocator@U?$pair@$$CBKPAVCCtrl@@@std@@@3@$0A@@std@@@std@@IAE?AViterator@12@_NPAU_Node@?$_Tree_nod@V?$_Tmap_traits@KPAVCCtrl@@U?$less@K@std@@V?$allocator@U?$pair@$$CBKPAVCCtrl@@@std@@@3@$0A@@std@@@2@ABU?$pair@$$CBKPAVCCtrl@@@2@@Z
_TEXT	SEGMENT PARA USE32 PUBLIC 'CODE'
_TEXT	ENDS
;	COMDAT ?max_size@?$_Tree@V?$_Tmap_traits@KPAVCCtrl@@U?$less@K@std@@V?$allocator@U?$pair@$$CBKPAVCCtrl@@@std@@@3@$0A@@std@@@std@@QBEIXZ
_TEXT	SEGMENT PARA USE32 PUBLIC 'CODE'
_TEXT	ENDS
;	COMDAT ?max_size@?$allocator@U?$pair@$$CBKPAVCCtrl@@@std@@@std@@QBEIXZ
_TEXT	SEGMENT PARA USE32 PUBLIC 'CODE'
_TEXT	ENDS
;	COMDAT ?_Buynode@?$_Tree@V?$_Tmap_traits@KPAVCCtrl@@U?$less@K@std@@V?$allocator@U?$pair@$$CBKPAVCCtrl@@@std@@@3@$0A@@std@@@std@@IAEPAU_Node@?$_Tree_nod@V?$_Tmap_traits@KPAVCCtrl@@U?$less@K@std@@V?$allocator@U?$pair@$$CBKPAVCCtrl@@@std@@@3@$0A@@std@@@2@PAU342@00ABU?$pair@$$CBKPAVCCtrl@@@2@D@Z
_TEXT	SEGMENT PARA USE32 PUBLIC 'CODE'
_TEXT	ENDS
;	COMDAT ?allocate@?$allocator@U_Node@?$_Tree_nod@V?$_Tmap_traits@KPAVCCtrl@@U?$less@K@std@@V?$allocator@U?$pair@$$CBKPAVCCtrl@@@std@@@3@$0A@@std@@@std@@@std@@QAEPAU_Node@?$_Tree_nod@V?$_Tmap_traits@KPAVCCtrl@@U?$less@K@std@@V?$allocator@U?$pair@$$CBKPAVCCtrl@@@std@@@3@$0A@@std@@@2@I@Z
_TEXT	SEGMENT PARA USE32 PUBLIC 'CODE'
_TEXT	ENDS
;	COMDAT ??$_Allocate@U_Node@?$_Tree_nod@V?$_Tmap_traits@KPAVCCtrl@@U?$less@K@std@@V?$allocator@U?$pair@$$CBKPAVCCtrl@@@std@@@3@$0A@@std@@@std@@@std@@YAPAU_Node@?$_Tree_nod@V?$_Tmap_traits@KPAVCCtrl@@U?$less@K@std@@V?$allocator@U?$pair@$$CBKPAVCCtrl@@@std@@@3@$0A@@std@@@0@IPAU120@@Z
_TEXT	SEGMENT PARA USE32 PUBLIC 'CODE'
_TEXT	ENDS
;	COMDAT ??0_Node@?$_Tree_nod@V?$_Tmap_traits@KPAVCCtrl@@U?$less@K@std@@V?$allocator@U?$pair@$$CBKPAVCCtrl@@@std@@@3@$0A@@std@@@std@@QAE@PAU012@00ABU?$pair@$$CBKPAVCCtrl@@@2@D@Z
_TEXT	SEGMENT PARA USE32 PUBLIC 'CODE'
_TEXT	ENDS
;	COMDAT ?deallocate@?$allocator@U_Node@?$_Tree_nod@V?$_Tmap_traits@KPAVCCtrl@@U?$less@K@std@@V?$allocator@U?$pair@$$CBKPAVCCtrl@@@std@@@3@$0A@@std@@@std@@@std@@QAEXPAU_Node@?$_Tree_nod@V?$_Tmap_traits@KPAVCCtrl@@U?$less@K@std@@V?$allocator@U?$pair@$$CBKPAVCCtrl@@@std@@@3@$0A@@std@@@2@I@Z
_TEXT	SEGMENT PARA USE32 PUBLIC 'CODE'
_TEXT	ENDS
;	COMDAT ?_Rrotate@?$_Tree@V?$_Tmap_traits@KPAVCCtrl@@U?$less@K@std@@V?$allocator@U?$pair@$$CBKPAVCCtrl@@@std@@@3@$0A@@std@@@std@@IAEXPAU_Node@?$_Tree_nod@V?$_Tmap_traits@KPAVCCtrl@@U?$less@K@std@@V?$allocator@U?$pair@$$CBKPAVCCtrl@@@std@@@3@$0A@@std@@@2@@Z
_TEXT	SEGMENT PARA USE32 PUBLIC 'CODE'
_TEXT	ENDS
;	COMDAT ?_Lrotate@?$_Tree@V?$_Tmap_traits@KPAVCCtrl@@U?$less@K@std@@V?$allocator@U?$pair@$$CBKPAVCCtrl@@@std@@@3@$0A@@std@@@std@@IAEXPAU_Node@?$_Tree_nod@V?$_Tmap_traits@KPAVCCtrl@@U?$less@K@std@@V?$allocator@U?$pair@$$CBKPAVCCtrl@@@std@@@3@$0A@@std@@@2@@Z
_TEXT	SEGMENT PARA USE32 PUBLIC 'CODE'
_TEXT	ENDS
;	COMDAT ?_Color@?$_Tree@V?$_Tmap_traits@KPAVCCtrl@@U?$less@K@std@@V?$allocator@U?$pair@$$CBKPAVCCtrl@@@std@@@3@$0A@@std@@@std@@KAAADPAU_Node@?$_Tree_nod@V?$_Tmap_traits@KPAVCCtrl@@U?$less@K@std@@V?$allocator@U?$pair@$$CBKPAVCCtrl@@@std@@@3@$0A@@std@@@2@@Z
_TEXT	SEGMENT PARA USE32 PUBLIC 'CODE'
_TEXT	ENDS
;	COMDAT ?compare@?$char_traits@D@std@@SAHPBD0I@Z
_TEXT	SEGMENT PARA USE32 PUBLIC 'CODE'
_TEXT	ENDS
;	COMDAT ??Diterator@?$_Tree@V?$_Tmap_traits@KPAVCCtrl@@U?$less@K@std@@V?$allocator@U?$pair@$$CBKPAVCCtrl@@@std@@@3@$0A@@std@@@std@@QBEAAU?$pair@$$CBKPAVCCtrl@@@2@XZ
_TEXT	SEGMENT PARA USE32 PUBLIC 'CODE'
_TEXT	ENDS
;	COMDAT ??Dconst_iterator@?$_Tree@V?$_Tmap_traits@KPAVCCtrl@@U?$less@K@std@@V?$allocator@U?$pair@$$CBKPAVCCtrl@@@std@@@3@$0A@@std@@@std@@QBEABU?$pair@$$CBKPAVCCtrl@@@2@XZ
_TEXT	SEGMENT PARA USE32 PUBLIC 'CODE'
_TEXT	ENDS
;	COMDAT ?_Myval@?$_Tree@V?$_Tmap_traits@KPAVCCtrl@@U?$less@K@std@@V?$allocator@U?$pair@$$CBKPAVCCtrl@@@std@@@3@$0A@@std@@@std@@KAAAU?$pair@$$CBKPAVCCtrl@@@2@PAU_Node@?$_Tree_nod@V?$_Tmap_traits@KPAVCCtrl@@U?$less@K@std@@V?$allocator@U?$pair@$$CBKPAVCCtrl@@@std@@@3@$0A@@std@@@2@@Z
_TEXT	SEGMENT PARA USE32 PUBLIC 'CODE'
_TEXT	ENDS
;	COMDAT ?_Mynode@const_iterator@?$_Tree@V?$_Tmap_traits@KPAVCCtrl@@U?$less@K@std@@V?$allocator@U?$pair@$$CBKPAVCCtrl@@@std@@@3@$0A@@std@@@std@@QBEPAU_Node@?$_Tree_nod@V?$_Tmap_traits@KPAVCCtrl@@U?$less@K@std@@V?$allocator@U?$pair@$$CBKPAVCCtrl@@@std@@@3@$0A@@std@@@3@XZ
_TEXT	SEGMENT PARA USE32 PUBLIC 'CODE'
_TEXT	ENDS
;	COMDAT ?_Key@?$_Tree@V?$_Tmap_traits@KPAVCCtrl@@U?$less@K@std@@V?$allocator@U?$pair@$$CBKPAVCCtrl@@@std@@@3@$0A@@std@@@std@@KAABKPAU_Node@?$_Tree_nod@V?$_Tmap_traits@KPAVCCtrl@@U?$less@K@std@@V?$allocator@U?$pair@$$CBKPAVCCtrl@@@std@@@3@$0A@@std@@@2@@Z
_TEXT	SEGMENT PARA USE32 PUBLIC 'CODE'
_TEXT	ENDS
;	COMDAT ??R?$less@K@std@@QBE_NABK0@Z
_TEXT	SEGMENT PARA USE32 PUBLIC 'CODE'
_TEXT	ENDS
;	COMDAT ?end@?$_Tree@V?$_Tmap_traits@KPAVCCtrl@@U?$less@K@std@@V?$allocator@U?$pair@$$CBKPAVCCtrl@@@std@@@3@$0A@@std@@@std@@QAE?AViterator@12@XZ
_TEXT	SEGMENT PARA USE32 PUBLIC 'CODE'
_TEXT	ENDS
;	COMDAT ??8const_iterator@?$_Tree@V?$_Tmap_traits@KPAVCCtrl@@U?$less@K@std@@V?$allocator@U?$pair@$$CBKPAVCCtrl@@@std@@@3@$0A@@std@@@std@@QBE_NABV012@@Z
_TEXT	SEGMENT PARA USE32 PUBLIC 'CODE'
_TEXT	ENDS
;	COMDAT ?lower_bound@?$_Tree@V?$_Tmap_traits@KPAVCCtrl@@U?$less@K@std@@V?$allocator@U?$pair@$$CBKPAVCCtrl@@@std@@@3@$0A@@std@@@std@@QAE?AViterator@12@ABK@Z
_TEXT	SEGMENT PARA USE32 PUBLIC 'CODE'
_TEXT	ENDS
;	COMDAT ?_Lbound@?$_Tree@V?$_Tmap_traits@KPAVCCtrl@@U?$less@K@std@@V?$allocator@U?$pair@$$CBKPAVCCtrl@@@std@@@3@$0A@@std@@@std@@IBEPAU_Node@?$_Tree_nod@V?$_Tmap_traits@KPAVCCtrl@@U?$less@K@std@@V?$allocator@U?$pair@$$CBKPAVCCtrl@@@std@@@3@$0A@@std@@@2@ABK@Z
_TEXT	SEGMENT PARA USE32 PUBLIC 'CODE'
_TEXT	ENDS
;	COMDAT ?_Root@?$_Tree@V?$_Tmap_traits@KPAVCCtrl@@U?$less@K@std@@V?$allocator@U?$pair@$$CBKPAVCCtrl@@@std@@@3@$0A@@std@@@std@@IBEAAPAU_Node@?$_Tree_nod@V?$_Tmap_traits@KPAVCCtrl@@U?$less@K@std@@V?$allocator@U?$pair@$$CBKPAVCCtrl@@@std@@@3@$0A@@std@@@2@XZ
_TEXT	SEGMENT PARA USE32 PUBLIC 'CODE'
_TEXT	ENDS
;	COMDAT ?_Myptr@?$basic_string@DU?$char_traits@D@std@@V?$allocator@D@2@@std@@QBEPBDXZ
_TEXT	SEGMENT PARA USE32 PUBLIC 'CODE'
_TEXT	ENDS
;	COMDAT ?size@?$basic_string@DU?$char_traits@D@std@@V?$allocator@D@2@@std@@QBEIXZ
_TEXT	SEGMENT PARA USE32 PUBLIC 'CODE'
_TEXT	ENDS
;	COMDAT ?GetPropA@CItem@@QAEPAUItemProp@@XZ
_TEXT	SEGMENT PARA USE32 PUBLIC 'CODE'
_TEXT	ENDS
;	COMDAT ?GetIndex@CObj@@QAEKXZ
_TEXT	SEGMENT PARA USE32 PUBLIC 'CODE'
_TEXT	ENDS
;	COMDAT ?GetText@CProject@@QAEPBDK@Z
_TEXT	SEGMENT PARA USE32 PUBLIC 'CODE'
_TEXT	ENDS
;	COMDAT ?LOG_RANGE@@YAXPBDHHH@Z
_TEXT	SEGMENT PARA USE32 PUBLIC 'CODE'
_TEXT	ENDS
;	COMDAT ??_C@_0BM@HMFGHCP@?$CFs?5min?3?$CFd?0?5max?3?$CFd?0?5index?3?$CFd?$AA@
CONST	SEGMENT DWORD USE32 PUBLIC 'CONST'
CONST	ENDS
;	COMDAT ?GetSize@?$CFixedArray@UtagColorText@@@@QAEHXZ
_TEXT	SEGMENT PARA USE32 PUBLIC 'CODE'
_TEXT	ENDS
;	COMDAT ??_C@_0BE@OHDBLHOM@GetText?5range_error?$AA@
CONST	SEGMENT DWORD USE32 PUBLIC 'CONST'
CONST	ENDS
;	COMDAT ??_C@_05KKCIMGE@error?$AA@
CONST	SEGMENT DWORD USE32 PUBLIC 'CONST'
CONST	ENDS
;	COMDAT ??_C@_00CNPNBAHC@?$AA@
CONST	SEGMENT DWORD USE32 PUBLIC 'CONST'
CONST	ENDS
;	COMDAT ?GetAt@?$CFixedArray@UtagColorText@@@@QAEPAUtagColorText@@K@Z
_TEXT	SEGMENT PARA USE32 PUBLIC 'CODE'
_TEXT	ENDS
;	COMDAT ?GetGold@CMover@@QAEHXZ
_TEXT	SEGMENT PARA USE32 PUBLIC 'CODE'
_TEXT	ENDS
;	COMDAT ??0_LogItemInfo@@QAE@XZ
_TEXT	SEGMENT PARA USE32 PUBLIC 'CODE'
_TEXT	ENDS
;	COMDAT ?GetPropA@CItemElem@@QAEPAUItemProp@@XZ
_TEXT	SEGMENT PARA USE32 PUBLIC 'CODE'
_TEXT	ENDS
;	COMDAT ?IsDelete@CObj@@QAEHXZ
_TEXT	SEGMENT PARA USE32 PUBLIC 'CODE'
_TEXT	ENDS
;	COMDAT ?IsActiveMover@CMover@@QAEHXZ
_TEXT	SEGMENT PARA USE32 PUBLIC 'CODE'
_TEXT	ENDS
;	COMDAT ?GetIAObjLink@CCtrl@@QAEPAVCShip@@XZ
_TEXT	SEGMENT PARA USE32 PUBLIC 'CODE'
_TEXT	ENDS
;	COMDAT ?GetDestPos@CMover@@QAE?AUD3DXVECTOR3@@XZ
_TEXT	SEGMENT PARA USE32 PUBLIC 'CODE'
_TEXT	ENDS
;	COMDAT ?IsEmptyDestPos@CMover@@QAEHXZ
_TEXT	SEGMENT PARA USE32 PUBLIC 'CODE'
_TEXT	ENDS
;	COMDAT ?ClearActParam@CMover@@QAEXXZ
_TEXT	SEGMENT PARA USE32 PUBLIC 'CODE'
_TEXT	ENDS
;	COMDAT ?ClearDest@CMover@@QAEXXZ
_TEXT	SEGMENT PARA USE32 PUBLIC 'CODE'
_TEXT	ENDS
;	COMDAT ?IsEmptyDest@CMover@@QAEHXZ
_TEXT	SEGMENT PARA USE32 PUBLIC 'CODE'
_TEXT	ENDS
;	COMDAT ?IsEmptyDestObj@CMover@@QAEHXZ
_TEXT	SEGMENT PARA USE32 PUBLIC 'CODE'
_TEXT	ENDS
;	COMDAT ?GetAngleX@CObj@@QAEMXZ
_TEXT	SEGMENT PARA USE32 PUBLIC 'CODE'
_TEXT	ENDS
;	COMDAT ?GetStateFlag@CAction@@QAEKXZ
_TEXT	SEGMENT PARA USE32 PUBLIC 'CODE'
_TEXT	ENDS
;	COMDAT ?GetTickCount@CTickCount@@QAE_JXZ
_TEXT	SEGMENT PARA USE32 PUBLIC 'CODE'
_TEXT	ENDS
;	COMDAT ?IsFly@CAction@@QAEHXZ
_TEXT	SEGMENT PARA USE32 PUBLIC 'CODE'
_TEXT	ENDS
;	COMDAT ?SendActMsg@CMover@@QAEHW4OBJMSG@@HHHH@Z
_TEXT	SEGMENT PARA USE32 PUBLIC 'CODE'
_TEXT	ENDS
;	COMDAT ?ClearDestPos@CMover@@QAEXXZ
_TEXT	SEGMENT PARA USE32 PUBLIC 'CODE'
_TEXT	ENDS
;	COMDAT ?GetSpeedFactor@CMover@@QAEMXZ
_TEXT	SEGMENT PARA USE32 PUBLIC 'CODE'
_TEXT	ENDS
;	COMDAT ?GetDmgState@CAction@@QAEKXZ
_TEXT	SEGMENT PARA USE32 PUBLIC 'CODE'
_TEXT	ENDS
;	COMDAT ?IsLive@CMover@@QAEHXZ
_TEXT	SEGMENT PARA USE32 PUBLIC 'CODE'
_TEXT	ENDS
;	COMDAT ?IsDie@CAction@@QAEHXZ
_TEXT	SEGMENT PARA USE32 PUBLIC 'CODE'
_TEXT	ENDS
;	COMDAT ?GetState@CAction@@QAEKXZ
_TEXT	SEGMENT PARA USE32 PUBLIC 'CODE'
_TEXT	ENDS
;	COMDAT ??XD3DXVECTOR3@@QAEAAU0@M@Z
_TEXT	SEGMENT PARA USE32 PUBLIC 'CODE'
_TEXT	ENDS
;	COMDAT ?GetScale@CObj@@QAE?AUD3DXVECTOR3@@XZ
_TEXT	SEGMENT PARA USE32 PUBLIC 'CODE'
_TEXT	ENDS
;	COMDAT ?xRand@@YAKXZ
_TEXT	SEGMENT PARA USE32 PUBLIC 'CODE'
_TEXT	ENDS
;	COMDAT ?GetLayer@CObj@@QAEHXZ
_TEXT	SEGMENT PARA USE32 PUBLIC 'CODE'
_TEXT	ENDS
;	COMDAT ??YD3DXVECTOR3@@QAEAAU0@ABU0@@Z
_TEXT	SEGMENT PARA USE32 PUBLIC 'CODE'
_TEXT	ENDS
;	COMDAT ?AngleToVectorXZ@@YAXPAUD3DXVECTOR3@@MM@Z
_TEXT	SEGMENT PARA USE32 PUBLIC 'CODE'
_TEXT	ENDS
;	COMDAT _sinf
_TEXT	SEGMENT PARA USE32 PUBLIC 'CODE'
_TEXT	ENDS
;	COMDAT _cosf
_TEXT	SEGMENT PARA USE32 PUBLIC 'CODE'
_TEXT	ENDS
;	COMDAT ?vLocal@?BC@??OnAttackMelee_Krrr@CMover@@QAEXKPAV2@@Z@4UD3DXVECTOR3@@A
_BSS	SEGMENT DWORD USE32 PUBLIC 'BSS'
_BSS	ENDS
;	COMDAT ?$S2@?BC@??OnAttackMelee_Krrr@CMover@@QAEXKPAV2@@Z@4IA
_BSS	SEGMENT DWORD USE32 PUBLIC 'BSS'
_BSS	ENDS
;	COMDAT ?v3OldPos@?BD@??OnAttackMelee_BigMuscle@CMover@@QAEXKPAV2@@Z@4UD3DXVECTOR3@@A
_BSS	SEGMENT DWORD USE32 PUBLIC 'BSS'
_BSS	ENDS
;	COMDAT ?$S1@?BD@??OnAttackMelee_BigMuscle@CMover@@QAEXKPAV2@@Z@4IA
_BSS	SEGMENT DWORD USE32 PUBLIC 'BSS'
_BSS	ENDS
;	COMDAT ?GetMatrixBone@CModelObject@@QAEPAUD3DXMATRIX@@H@Z
_TEXT	SEGMENT PARA USE32 PUBLIC 'CODE'
_TEXT	ENDS
;	COMDAT ?GetMatrixWorld@CObj@@QBE?AUD3DXMATRIX@@XZ
_TEXT	SEGMENT PARA USE32 PUBLIC 'CODE'
_TEXT	ENDS
;	COMDAT ??0D3DXMATRIX@@QAE@XZ
_TEXT	SEGMENT PARA USE32 PUBLIC 'CODE'
_TEXT	ENDS
;	COMDAT ?xRandom@@YAKK@Z
_TEXT	SEGMENT PARA USE32 PUBLIC 'CODE'
_TEXT	ENDS
;	COMDAT ?IsValidObj@@YAHPAVCObj@@@Z
_TEXT	SEGMENT PARA USE32 PUBLIC 'CODE'
_TEXT	ENDS
;	COMDAT ?GetMatrixWorldPtr@CObj@@QAEPAUD3DXMATRIX@@XZ
_TEXT	SEGMENT PARA USE32 PUBLIC 'CODE'
_TEXT	ENDS
;	COMDAT ?GetEventPos@CModelObject@@QAEXPAUD3DXVECTOR3@@H@Z
_TEXT	SEGMENT PARA USE32 PUBLIC 'CODE'
_TEXT	ENDS
;	COMDAT ?UpdateMatrixBone@CModelObject@@QAEXXZ
_TEXT	SEGMENT PARA USE32 PUBLIC 'CODE'
_TEXT	ENDS
;	COMDAT ??HD3DXVECTOR3@@QBE?AU0@ABU0@@Z
_TEXT	SEGMENT PARA USE32 PUBLIC 'CODE'
_TEXT	ENDS
;	COMDAT ?IsNPC@CMover@@QAEHXZ
_TEXT	SEGMENT PARA USE32 PUBLIC 'CODE'
_TEXT	ENDS
;	COMDAT ?GetItemProp@CProject@@QAEPAUItemProp@@H@Z
_TEXT	SEGMENT PARA USE32 PUBLIC 'CODE'
_TEXT	ENDS
;	COMDAT ?GetSize@?$CFixedArray@UItemProp@@@@QAEHXZ
_TEXT	SEGMENT PARA USE32 PUBLIC 'CODE'
_TEXT	ENDS
;	COMDAT ??_C@_0BI@BEIFNGEL@GetItemProp?5range_error?$AA@
CONST	SEGMENT DWORD USE32 PUBLIC 'CONST'
CONST	ENDS
;	COMDAT ?LOG_CALLSTACK@@YAXXZ
_TEXT	SEGMENT PARA USE32 PUBLIC 'CODE'
_TEXT	ENDS
;	COMDAT ?GetAt@?$CFixedArray@UItemProp@@@@QAEPAUItemProp@@K@Z
_TEXT	SEGMENT PARA USE32 PUBLIC 'CODE'
_TEXT	ENDS
;	COMDAT ?ClearDestObj@CMover@@QAEXXZ
_TEXT	SEGMENT PARA USE32 PUBLIC 'CODE'
_TEXT	ENDS
;	COMDAT ?GetDegree@@YAMABUD3DXVECTOR3@@0@Z
_TEXT	SEGMENT PARA USE32 PUBLIC 'CODE'
_TEXT	ENDS
;	COMDAT ?VelocityToVec@@YA?AUD3DXVECTOR3@@MM@Z
_TEXT	SEGMENT PARA USE32 PUBLIC 'CODE'
_TEXT	ENDS
;	COMDAT ??GD3DXVECTOR3@@QBE?AU0@ABU0@@Z
_TEXT	SEGMENT PARA USE32 PUBLIC 'CODE'
_TEXT	ENDS
;	COMDAT ?D3DXVec3Dot@@YAMPBUD3DXVECTOR3@@0@Z
_TEXT	SEGMENT PARA USE32 PUBLIC 'CODE'
_TEXT	ENDS
;	COMDAT _acosf
_TEXT	SEGMENT PARA USE32 PUBLIC 'CODE'
_TEXT	ENDS
;	COMDAT ?GetPos@CObj@@QAE?AUD3DXVECTOR3@@XZ
_TEXT	SEGMENT PARA USE32 PUBLIC 'CODE'
_TEXT	ENDS
;	COMDAT ?GetID@CWorld@@QAEKXZ
_TEXT	SEGMENT PARA USE32 PUBLIC 'CODE'
_TEXT	ENDS
;	COMDAT ?IsChaotic@CMover@@QAEHXZ
_TEXT	SEGMENT PARA USE32 PUBLIC 'CODE'
_TEXT	ENDS
;	COMDAT ?GetWorld@CObj@@QAEPAVCWorld@@XZ
_TEXT	SEGMENT PARA USE32 PUBLIC 'CODE'
_TEXT	ENDS
;	COMDAT ?IsDie@CMover@@QAEHXZ
_TEXT	SEGMENT PARA USE32 PUBLIC 'CODE'
_TEXT	ENDS
;	COMDAT ?SendDamage@CActionMover@@QAEHKKHHH@Z
_TEXT	SEGMENT PARA USE32 PUBLIC 'CODE'
_TEXT	ENDS
;	COMDAT ?GetPropA@CMover@@QAEPAUMoverProp@@XZ
_TEXT	SEGMENT PARA USE32 PUBLIC 'CODE'
_TEXT	ENDS
;	COMDAT ?GetMoverProp@CProject@@QAEPAUMoverProp@@H@Z
_TEXT	SEGMENT PARA USE32 PUBLIC 'CODE'
_TEXT	ENDS
;	COMDAT ??_C@_0BJ@GKPOBPPI@GetMoverProp?5range_error?$AA@
CONST	SEGMENT DWORD USE32 PUBLIC 'CONST'
CONST	ENDS
;	COMDAT ?IsPlayer@CMover@@QAEHXZ
_TEXT	SEGMENT PARA USE32 PUBLIC 'CODE'
_TEXT	ENDS
;	COMDAT ?GetType@CObj@@QAEKXZ
_TEXT	SEGMENT PARA USE32 PUBLIC 'CODE'
_TEXT	ENDS
;	COMDAT ?GetId@CCtrl@@QAEKXZ
_TEXT	SEGMENT PARA USE32 PUBLIC 'CODE'
_TEXT	ENDS
;	COMDAT ?GetAngle@CObj@@QAEMXZ
_TEXT	SEGMENT PARA USE32 PUBLIC 'CODE'
_TEXT	ENDS
;	COMDAT ?IsInvalidObj@@YAHPAVCObj@@@Z
_TEXT	SEGMENT PARA USE32 PUBLIC 'CODE'
_TEXT	ENDS
;	COMDAT ?GetActParam@CMover@@AAEHH@Z
_TEXT	SEGMENT PARA USE32 PUBLIC 'CODE'
_TEXT	ENDS
;	COMDAT ??_7CMapChildE@@6B@
CONST	SEGMENT DWORD USE32 PUBLIC 'CONST'
CONST	ENDS
;	COMDAT ?Leave@CMclCritSec@@QAEXXZ
_TEXT	SEGMENT PARA USE32 PUBLIC 'CODE'
_TEXT	ENDS
;	COMDAT ?Enter@CMclCritSec@@QAEXXZ
_TEXT	SEGMENT PARA USE32 PUBLIC 'CODE'
_TEXT	ENDS
;	COMDAT ??1CMclCritSec@@UAE@XZ
_TEXT	SEGMENT PARA USE32 PUBLIC 'CODE'
_TEXT	ENDS
;	COMDAT ??_7CMclCritSec@@6B@
CONST	SEGMENT DWORD USE32 PUBLIC 'CONST'
CONST	ENDS
;	COMDAT ??_GCMclCritSec@@UAEPAXI@Z
_TEXT	SEGMENT PARA USE32 PUBLIC 'CODE'
_TEXT	ENDS
;	COMDAT ??0CMclCritSec@@QAE@XZ
_TEXT	SEGMENT PARA USE32 PUBLIC 'CODE'
_TEXT	ENDS
;	COMDAT ??_7CMapChild@@6B@
CONST	SEGMENT DWORD USE32 PUBLIC 'CONST'
CONST	ENDS
;	COMDAT ??1CMclAutoLock@@QAE@XZ
_TEXT	SEGMENT PARA USE32 PUBLIC 'CODE'
_TEXT	ENDS
;	COMDAT ??0CMclAutoLock@@QAE@AAVCMclCritSec@@@Z
_TEXT	SEGMENT PARA USE32 PUBLIC 'CODE'
_TEXT	ENDS
;	COMDAT ??_7CBuffer2@@6B@
CONST	SEGMENT DWORD USE32 PUBLIC 'CONST'
CONST	ENDS
;	COMDAT ?erase@?$_Tree@V?$_Tmap_traits@KPAVCCtrl@@U?$less@K@std@@V?$allocator@U?$pair@$$CBKPAVCCtrl@@@std@@@3@$0A@@std@@@std@@QAEIABK@Z
_TEXT	SEGMENT PARA USE32 PUBLIC 'CODE'
_TEXT	ENDS
;	COMDAT ?equal_range@?$_Tree@V?$_Tmap_traits@KPAVCCtrl@@U?$less@K@std@@V?$allocator@U?$pair@$$CBKPAVCCtrl@@@std@@@3@$0A@@std@@@std@@QAE?AU?$pair@Viterator@?$_Tree@V?$_Tmap_traits@KPAVCCtrl@@U?$less@K@std@@V?$allocator@U?$pair@$$CBKPAVCCtrl@@@std@@@3@$0A@@std@@@std@@V123@@2@ABK@Z
_TEXT	SEGMENT PARA USE32 PUBLIC 'CODE'
_TEXT	ENDS
;	COMDAT ??0?$pair@Viterator@?$_Tree@V?$_Tmap_traits@KPAVCCtrl@@U?$less@K@std@@V?$allocator@U?$pair@$$CBKPAVCCtrl@@@std@@@3@$0A@@std@@@std@@V123@@std@@QAE@ABViterator@?$_Tree@V?$_Tmap_traits@KPAVCCtrl@@U?$less@K@std@@V?$allocator@U?$pair@$$CBKPAVCCtrl@@@std@@@3@$0A@@std@@@1@0@Z
_TEXT	SEGMENT PARA USE32 PUBLIC 'CODE'
_TEXT	ENDS
;	COMDAT ?upper_bound@?$_Tree@V?$_Tmap_traits@KPAVCCtrl@@U?$less@K@std@@V?$allocator@U?$pair@$$CBKPAVCCtrl@@@std@@@3@$0A@@std@@@std@@QAE?AViterator@12@ABK@Z
_TEXT	SEGMENT PARA USE32 PUBLIC 'CODE'
_TEXT	ENDS
;	COMDAT ?_Ubound@?$_Tree@V?$_Tmap_traits@KPAVCCtrl@@U?$less@K@std@@V?$allocator@U?$pair@$$CBKPAVCCtrl@@@std@@@3@$0A@@std@@@std@@IBEPAU_Node@?$_Tree_nod@V?$_Tmap_traits@KPAVCCtrl@@U?$less@K@std@@V?$allocator@U?$pair@$$CBKPAVCCtrl@@@std@@@3@$0A@@std@@@2@ABK@Z
_TEXT	SEGMENT PARA USE32 PUBLIC 'CODE'
_TEXT	ENDS
;	COMDAT ??$_Distance@Viterator@?$_Tree@V?$_Tmap_traits@KPAVCCtrl@@U?$less@K@std@@V?$allocator@U?$pair@$$CBKPAVCCtrl@@@std@@@3@$0A@@std@@@std@@I@std@@YAXViterator@?$_Tree@V?$_Tmap_traits@KPAVCCtrl@@U?$less@K@std@@V?$allocator@U?$pair@$$CBKPAVCCtrl@@@std@@@3@$0A@@std@@@0@0AAI@Z
_TEXT	SEGMENT PARA USE32 PUBLIC 'CODE'
_TEXT	ENDS
;	COMDAT ?erase@?$_Tree@V?$_Tmap_traits@KPAVCCtrl@@U?$less@K@std@@V?$allocator@U?$pair@$$CBKPAVCCtrl@@@std@@@3@$0A@@std@@@std@@QAE?AViterator@12@V312@0@Z
_TEXT	SEGMENT PARA USE32 PUBLIC 'CODE'
_TEXT	ENDS
;	COMDAT ?clear@?$_Tree@V?$_Tmap_traits@KPAVCCtrl@@U?$less@K@std@@V?$allocator@U?$pair@$$CBKPAVCCtrl@@@std@@@3@$0A@@std@@@std@@QAEXXZ
_TEXT	SEGMENT PARA USE32 PUBLIC 'CODE'
_TEXT	ENDS
;	COMDAT ?_Erase@?$_Tree@V?$_Tmap_traits@KPAVCCtrl@@U?$less@K@std@@V?$allocator@U?$pair@$$CBKPAVCCtrl@@@std@@@3@$0A@@std@@@std@@IAEXPAU_Node@?$_Tree_nod@V?$_Tmap_traits@KPAVCCtrl@@U?$less@K@std@@V?$allocator@U?$pair@$$CBKPAVCCtrl@@@std@@@3@$0A@@std@@@2@@Z
_TEXT	SEGMENT PARA USE32 PUBLIC 'CODE'
_TEXT	ENDS
;	COMDAT ?destroy@?$allocator@U_Node@?$_Tree_nod@V?$_Tmap_traits@KPAVCCtrl@@U?$less@K@std@@V?$allocator@U?$pair@$$CBKPAVCCtrl@@@std@@@3@$0A@@std@@@std@@@std@@QAEXPAU_Node@?$_Tree_nod@V?$_Tmap_traits@KPAVCCtrl@@U?$less@K@std@@V?$allocator@U?$pair@$$CBKPAVCCtrl@@@std@@@3@$0A@@std@@@2@@Z
_TEXT	SEGMENT PARA USE32 PUBLIC 'CODE'
_TEXT	ENDS
;	COMDAT ??$_Destroy@U_Node@?$_Tree_nod@V?$_Tmap_traits@KPAVCCtrl@@U?$less@K@std@@V?$allocator@U?$pair@$$CBKPAVCCtrl@@@std@@@3@$0A@@std@@@std@@@std@@YAXPAU_Node@?$_Tree_nod@V?$_Tmap_traits@KPAVCCtrl@@U?$less@K@std@@V?$allocator@U?$pair@$$CBKPAVCCtrl@@@std@@@3@$0A@@std@@@0@@Z
_TEXT	SEGMENT PARA USE32 PUBLIC 'CODE'
_TEXT	ENDS
;	COMDAT ?erase@?$_Tree@V?$_Tmap_traits@KPAVCCtrl@@U?$less@K@std@@V?$allocator@U?$pair@$$CBKPAVCCtrl@@@std@@@3@$0A@@std@@@std@@QAE?AViterator@12@V312@@Z
_TEXT	SEGMENT PARA USE32 PUBLIC 'CODE'
_TEXT	ENDS
;	COMDAT ??Eiterator@?$_Tree@V?$_Tmap_traits@KPAVCCtrl@@U?$less@K@std@@V?$allocator@U?$pair@$$CBKPAVCCtrl@@@std@@@3@$0A@@std@@@std@@QAE?AV012@H@Z
_TEXT	SEGMENT PARA USE32 PUBLIC 'CODE'
_TEXT	ENDS
;	COMDAT ??5@YAAAVCAr@@AAV0@AAUD3DXVECTOR3@@@Z
_TEXT	SEGMENT PARA USE32 PUBLIC 'CODE'
_TEXT	ENDS
;	COMDAT ??5CAr@@QAEAAV0@AAM@Z
_TEXT	SEGMENT PARA USE32 PUBLIC 'CODE'
_TEXT	ENDS
;	COMDAT ??5CAr@@QAEAAV0@AAJ@Z
_TEXT	SEGMENT PARA USE32 PUBLIC 'CODE'
_TEXT	ENDS
;	COMDAT ?time_null@@YAJXZ
_TEXT	SEGMENT PARA USE32 PUBLIC 'CODE'
_TEXT	ENDS
;	COMDAT ??6CAr@@QAEAAV0@J@Z
_TEXT	SEGMENT PARA USE32 PUBLIC 'CODE'
_TEXT	ENDS
;	COMDAT ??6@YAAAVCAr@@AAV0@UD3DXVECTOR3@@@Z
_TEXT	SEGMENT PARA USE32 PUBLIC 'CODE'
_TEXT	ENDS
;	COMDAT ??6CAr@@QAEAAV0@M@Z
_TEXT	SEGMENT PARA USE32 PUBLIC 'CODE'
_TEXT	ENDS
;	COMDAT ??1?$basic_string@DU?$char_traits@D@std@@V?$allocator@D@2@@std@@QAE@XZ
_TEXT	SEGMENT PARA USE32 PUBLIC 'CODE'
_TEXT	ENDS
;	COMDAT ??0?$basic_string@DU?$char_traits@D@std@@V?$allocator@D@2@@std@@QAE@PBD@Z
_TEXT	SEGMENT PARA USE32 PUBLIC 'CODE'
_TEXT	ENDS
;	COMDAT ??0?$allocator@D@std@@QAE@XZ
_TEXT	SEGMENT PARA USE32 PUBLIC 'CODE'
_TEXT	ENDS
;	COMDAT ?assign@?$basic_string@DU?$char_traits@D@std@@V?$allocator@D@2@@std@@QAEAAV12@PBD@Z
_TEXT	SEGMENT PARA USE32 PUBLIC 'CODE'
_TEXT	ENDS
;	COMDAT ?assign@?$basic_string@DU?$char_traits@D@std@@V?$allocator@D@2@@std@@QAEAAV12@PBDI@Z
_TEXT	SEGMENT PARA USE32 PUBLIC 'CODE'
_TEXT	ENDS
;	COMDAT ?_Inside@?$basic_string@DU?$char_traits@D@std@@V?$allocator@D@2@@std@@IAE_NPBD@Z
_TEXT	SEGMENT PARA USE32 PUBLIC 'CODE'
_TEXT	ENDS
;	COMDAT ?length@?$char_traits@D@std@@SAIPBD@Z
_TEXT	SEGMENT PARA USE32 PUBLIC 'CODE'
_TEXT	ENDS
;	COMDAT ?c_str@?$basic_string@DU?$char_traits@D@std@@V?$allocator@D@2@@std@@QBEPBDXZ
_TEXT	SEGMENT PARA USE32 PUBLIC 'CODE'
_TEXT	ENDS
;	COMDAT ??6CAr@@QAEAAV0@I@Z
_TEXT	SEGMENT PARA USE32 PUBLIC 'CODE'
_TEXT	ENDS
;	COMDAT ??_7__MINIGAME_EXT_PACKET@@6B@
CONST	SEGMENT DWORD USE32 PUBLIC 'CONST'
CONST	ENDS
;	COMDAT ??5CAr@@QAEAAV0@AAG@Z
_TEXT	SEGMENT PARA USE32 PUBLIC 'CODE'
_TEXT	ENDS
;	COMDAT ??5CAr@@QAEAAV0@AAH@Z
_TEXT	SEGMENT PARA USE32 PUBLIC 'CODE'
_TEXT	ENDS
;	COMDAT ??6CAr@@QAEAAV0@G@Z
_TEXT	SEGMENT PARA USE32 PUBLIC 'CODE'
_TEXT	ENDS
;	COMDAT ??6CAr@@QAEAAV0@H@Z
_TEXT	SEGMENT PARA USE32 PUBLIC 'CODE'
_TEXT	ENDS
;	COMDAT ??_7__MINIGAME_PACKET@@6B@
CONST	SEGMENT DWORD USE32 PUBLIC 'CONST'
CONST	ENDS
;	COMDAT ??1?$vector@KV?$allocator@K@std@@@std@@QAE@XZ
_TEXT	SEGMENT PARA USE32 PUBLIC 'CODE'
_TEXT	ENDS
;	COMDAT ?_Tidy@?$vector@KV?$allocator@K@std@@@std@@IAEXXZ
_TEXT	SEGMENT PARA USE32 PUBLIC 'CODE'
_TEXT	ENDS
;	COMDAT ?_Destroy@?$vector@KV?$allocator@K@std@@@std@@IAEXPAK0@Z
_TEXT	SEGMENT PARA USE32 PUBLIC 'CODE'
_TEXT	ENDS
;	COMDAT ??$_Destroy_range@KV?$allocator@K@std@@@std@@YAXPAK0AAV?$allocator@K@0@@Z
_TEXT	SEGMENT PARA USE32 PUBLIC 'CODE'
_TEXT	ENDS
;	COMDAT ?_Ptr_cat@std@@YA?AU_Scalar_ptr_iterator_tag@1@PAK0@Z
_TEXT	SEGMENT PARA USE32 PUBLIC 'CODE'
_TEXT	ENDS
;	COMDAT ?deallocate@?$allocator@K@std@@QAEXPAKI@Z
_TEXT	SEGMENT PARA USE32 PUBLIC 'CODE'
_TEXT	ENDS
;	COMDAT ??0?$vector@KV?$allocator@K@std@@@std@@QAE@XZ
_TEXT	SEGMENT PARA USE32 PUBLIC 'CODE'
_TEXT	ENDS
;	COMDAT ??0?$_Vector_val@KV?$allocator@K@std@@@std@@IAE@V?$allocator@K@1@@Z
_TEXT	SEGMENT PARA USE32 PUBLIC 'CODE'
_TEXT	ENDS
;	COMDAT ??0?$allocator@K@std@@QAE@ABV01@@Z
_TEXT	SEGMENT PARA USE32 PUBLIC 'CODE'
_TEXT	ENDS
;	COMDAT ??0?$allocator@K@std@@QAE@XZ
_TEXT	SEGMENT PARA USE32 PUBLIC 'CODE'
_TEXT	ENDS
;	COMDAT ?_Buy@?$vector@KV?$allocator@K@std@@@std@@IAE_NI@Z
_TEXT	SEGMENT PARA USE32 PUBLIC 'CODE'
_TEXT	ENDS
;	COMDAT ?max_size@?$vector@KV?$allocator@K@std@@@std@@QBEIXZ
_TEXT	SEGMENT PARA USE32 PUBLIC 'CODE'
_TEXT	ENDS
;	COMDAT ?max_size@?$allocator@K@std@@QBEIXZ
_TEXT	SEGMENT PARA USE32 PUBLIC 'CODE'
_TEXT	ENDS
;	COMDAT ?_Xlen@?$vector@KV?$allocator@K@std@@@std@@IBEXXZ
_TEXT	SEGMENT PARA USE32 PUBLIC 'CODE'
_TEXT	ENDS
;	COMDAT ?allocate@?$allocator@K@std@@QAEPAKI@Z
_TEXT	SEGMENT PARA USE32 PUBLIC 'CODE'
_TEXT	ENDS
;	COMDAT ??$_Allocate@K@std@@YAPAKIPAK@Z
_TEXT	SEGMENT PARA USE32 PUBLIC 'CODE'
_TEXT	ENDS
;	COMDAT ??5CAr@@QAEAAV0@AAK@Z
_TEXT	SEGMENT PARA USE32 PUBLIC 'CODE'
_TEXT	ENDS
;	COMDAT ??6CAr@@QAEAAV0@K@Z
_TEXT	SEGMENT PARA USE32 PUBLIC 'CODE'
_TEXT	ENDS
;	COMDAT ?IsStoring@CAr@@QBEHXZ
_TEXT	SEGMENT PARA USE32 PUBLIC 'CODE'
_TEXT	ENDS
;	COMDAT ??0D3DXVECTOR3@@QAE@MMM@Z
_TEXT	SEGMENT PARA USE32 PUBLIC 'CODE'
_TEXT	ENDS
;	COMDAT ?GetTickCount@CTime@ATL@@SG?AV12@XZ
_TEXT	SEGMENT PARA USE32 PUBLIC 'CODE'
_TEXT	ENDS
;	COMDAT ??0CTime@ATL@@QAE@_J@Z
_TEXT	SEGMENT PARA USE32 PUBLIC 'CODE'
_TEXT	ENDS
;	COMDAT ??0D3DXVECTOR3@@QAE@XZ
_TEXT	SEGMENT PARA USE32 PUBLIC 'CODE'
_TEXT	ENDS
;	COMDAT ??0CTime@ATL@@QAE@XZ
_TEXT	SEGMENT PARA USE32 PUBLIC 'CODE'
_TEXT	ENDS
sxdata	SEGMENT DWORD USE32 'SXDATA'
sxdata	ENDS
FLAT	GROUP _DATA, CONST, _BSS
	ASSUME	CS: FLAT, DS: FLAT, SS: FLAT
endif

INCLUDELIB LIBCMT
INCLUDELIB OLDNAMES

PUBLIC	?IsMember@CParty@@QAEHK@Z			; CParty::IsMember
EXTRN	?FindMember@CParty@@QAEHK@Z:NEAR		; CParty::FindMember
; Function compile flags: /Ogty
; File c:\documents and settings\test\mes documents\source\virtuos_v17\build\program\_common\party.h
;	COMDAT ?IsMember@CParty@@QAEHK@Z
_TEXT	SEGMENT
_uPlayerId$ = 8						; size = 4
?IsMember@CParty@@QAEHK@Z PROC NEAR			; CParty::IsMember, COMDAT
; _this$ = ecx

; 119  : 	BOOL	IsMember( u_long uPlayerId )		{	return( FindMember( uPlayerId ) >= 0 );	}

  00000	8b 44 24 04	 mov	 eax, DWORD PTR _uPlayerId$[esp-4]
  00004	50		 push	 eax
  00005	e8 00 00 00 00	 call	 ?FindMember@CParty@@QAEHK@Z ; CParty::FindMember
  0000a	33 c9		 xor	 ecx, ecx
  0000c	85 c0		 test	 eax, eax
  0000e	0f 9d c1	 setge	 cl
  00011	8b c1		 mov	 eax, ecx
  00013	c2 04 00	 ret	 4
?IsMember@CParty@@QAEHK@Z ENDP				; CParty::IsMember
_TEXT	ENDS
PUBLIC	?IsLeader@CParty@@QAEHK@Z			; CParty::IsLeader
; Function compile flags: /Ogty
;	COMDAT ?IsLeader@CParty@@QAEHK@Z
_TEXT	SEGMENT
_uPlayerId$ = 8						; size = 4
?IsLeader@CParty@@QAEHK@Z PROC NEAR			; CParty::IsLeader, COMDAT
; _this$ = ecx

; 120  : 	int		IsLeader( u_long uPlayerId )		{	return( m_aMember[0].m_uPlayerId == uPlayerId );	}

  00000	8b 49 28	 mov	 ecx, DWORD PTR [ecx+40]
  00003	8b 54 24 04	 mov	 edx, DWORD PTR _uPlayerId$[esp-4]
  00007	33 c0		 xor	 eax, eax
  00009	3b ca		 cmp	 ecx, edx
  0000b	0f 94 c0	 sete	 al
  0000e	c2 04 00	 ret	 4
?IsLeader@CParty@@QAEHK@Z ENDP				; CParty::IsLeader
_TEXT	ENDS
PUBLIC	?IsLootSendText@@YAHPAUItemProp@@@Z		; IsLootSendText
; Function compile flags: /Ogty
; File c:\documents and settings\test\mes documents\source\virtuos_v17\build\program\_common\moveractevent.cpp
;	COMDAT ?IsLootSendText@@YAHPAUItemProp@@@Z
_TEXT	SEGMENT
_pItemProp$ = 8						; size = 4
?IsLootSendText@@YAHPAUItemProp@@@Z PROC NEAR		; IsLootSendText, COMDAT

; 46   : 	if( pItemProp == NULL )

  00000	8b 44 24 04	 mov	 eax, DWORD PTR _pItemProp$[esp-4]
  00004	85 c0		 test	 eax, eax

; 47   : 		return FALSE;

  00006	74 1d		 je	 SHORT $L269044

; 48   : 
; 49   : 	if( pItemProp->dwItemKind1 == IK1_GOLD    ||
; 50   : 		pItemProp->dwItemKind1 == IK1_GENERAL ||
; 51   : 		pItemProp->dwItemKind1 == IK1_SYSTEM  ||
; 52   : 		pItemProp->dwItemKind1 == IK1_RIDE        )

  00008	8b 40 70	 mov	 eax, DWORD PTR [eax+112]
  0000b	83 f8 0c	 cmp	 eax, 12			; 0000000cH
  0000e	74 15		 je	 SHORT $L269044
  00010	83 f8 03	 cmp	 eax, 3
  00013	74 10		 je	 SHORT $L269044
  00015	83 f8 05	 cmp	 eax, 5
  00018	74 0b		 je	 SHORT $L269044
  0001a	83 f8 04	 cmp	 eax, 4
  0001d	74 06		 je	 SHORT $L269044

; 54   : 
; 55   : 	return TRUE;

  0001f	b8 01 00 00 00	 mov	 eax, 1

; 56   : }

  00024	c3		 ret	 0
$L269044:

; 53   : 		return FALSE;

  00025	33 c0		 xor	 eax, eax

; 56   : }

  00027	c3		 ret	 0
?IsLootSendText@@YAHPAUItemProp@@@Z ENDP		; IsLootSendText
_TEXT	ENDS
PUBLIC	?SubReferTime@CMover@@QAEXPAK0PAUItemProp@@PAUAddSkillProp@@@Z ; CMover::SubReferTime
PUBLIC	__real@3dcccccd
PUBLIC	__real@3ca3d70a
PUBLIC	__real@4f800000
EXTRN	?GetDex@CMover@@QAEHXZ:NEAR			; CMover::GetDex
EXTRN	?GetInt@CMover@@QAEHXZ:NEAR			; CMover::GetInt
EXTRN	?GetSta@CMover@@QAEHXZ:NEAR			; CMover::GetSta
EXTRN	__ftol2:NEAR
EXTRN	__fltused:NEAR
;	COMDAT __real@4f800000
CONST	SEGMENT
__real@4f800000 DD 04f800000r			; 4.29497e+009
CONST	ENDS
;	COMDAT __real@3dcccccd
CONST	SEGMENT
__real@3dcccccd DD 03dcccccdr			; 0.1
CONST	ENDS
;	COMDAT __real@3ca3d70a
CONST	SEGMENT
__real@3ca3d70a DD 03ca3d70ar			; 0.02
; Function compile flags: /Ogty
CONST	ENDS
;	COMDAT ?SubReferTime@CMover@@QAEXPAK0PAUItemProp@@PAUAddSkillProp@@@Z
_TEXT	SEGMENT
_pTime1$ = 8						; size = 4
_pTime2$ = 12						; size = 4
tv248 = 16						; size = 4
tv245 = 16						; size = 4
tv243 = 16						; size = 4
tv231 = 16						; size = 4
tv227 = 16						; size = 4
_pSkillProp$ = 16					; size = 4
tv225 = 20						; size = 4
_pAddSkillProp$ = 20					; size = 4
?SubReferTime@CMover@@QAEXPAK0PAUItemProp@@PAUAddSkillProp@@@Z PROC NEAR ; CMover::SubReferTime, COMDAT
; _this$ = ecx

; 169  : {

  00000	53		 push	 ebx
  00001	55		 push	 ebp
  00002	56		 push	 esi
  00003	57		 push	 edi

; 170  : 	DWORD dwTime1 = 0, dwTime2 = 0;
; 171  : 
; 172  : 	if( pSkillProp->dwReferTarget1 == RT_TIME )

  00004	8b 7c 24 1c	 mov	 edi, DWORD PTR _pSkillProp$[esp+12]
  00008	8b 87 08 02 00
	00		 mov	 eax, DWORD PTR [edi+520]
  0000e	33 f6		 xor	 esi, esi
  00010	33 ed		 xor	 ebp, ebp
  00012	83 f8 02	 cmp	 eax, 2
  00015	8b d9		 mov	 ebx, ecx
  00017	0f 85 81 00 00
	00		 jne	 $L269082

; 173  : 	{
; 174  : 		switch( pSkillProp->dwReferStat1 )

  0001d	8b 87 00 02 00
	00		 mov	 eax, DWORD PTR [edi+512]
  00023	83 e8 02	 sub	 eax, 2
  00026	74 16		 je	 SHORT $L269088
  00028	48		 dec	 eax
  00029	74 0a		 je	 SHORT $L269089
  0002b	48		 dec	 eax
  0002c	75 19		 jne	 SHORT $L269084

; 175  : 		{
; 176  : 		case DST_STA:	dwTime1 = GetSta();		break;

  0002e	e8 00 00 00 00	 call	 ?GetSta@CMover@@QAEHXZ	; CMover::GetSta
  00033	eb 10		 jmp	 SHORT $L275355
$L269089:

; 178  : 		case DST_INT:	dwTime1 = GetInt();		break;

  00035	8b cb		 mov	 ecx, ebx
  00037	e8 00 00 00 00	 call	 ?GetInt@CMover@@QAEHXZ	; CMover::GetInt
  0003c	eb 07		 jmp	 SHORT $L275355
$L269088:

; 177  : 		case DST_DEX:	dwTime1 = GetDex();		break;

  0003e	8b cb		 mov	 ecx, ebx
  00040	e8 00 00 00 00	 call	 ?GetDex@CMover@@QAEHXZ	; CMover::GetDex
$L275355:
  00045	8b f0		 mov	 esi, eax
$L269084:

; 179  : 		}
; 180  : 		
; 181  : 		dwTime1 = (DWORD)( ((pSkillProp->dwReferValue1/10.0f)*dwTime1) + (pAddSkillProp->dwSkillLvl * FLOAT(dwTime1/50.0f)) );

  00047	85 f6		 test	 esi, esi
  00049	89 74 24 1c	 mov	 DWORD PTR tv248[esp+12], esi
  0004d	db 44 24 1c	 fild	 DWORD PTR tv248[esp+12]
  00051	7d 06		 jge	 SHORT $L275347
  00053	d8 05 00 00 00
	00		 fadd	 DWORD PTR __real@4f800000
$L275347:
  00059	8b 87 10 02 00
	00		 mov	 eax, DWORD PTR [edi+528]
  0005f	db 87 10 02 00
	00		 fild	 DWORD PTR [edi+528]
  00065	85 c0		 test	 eax, eax
  00067	7d 06		 jge	 SHORT $L275350
  00069	d8 05 00 00 00
	00		 fadd	 DWORD PTR __real@4f800000
$L275350:
  0006f	d8 0d 00 00 00
	00		 fmul	 DWORD PTR __real@3dcccccd
  00075	8b 4c 24 20	 mov	 ecx, DWORD PTR _pAddSkillProp$[esp+12]
  00079	8b 51 08	 mov	 edx, DWORD PTR [ecx+8]
  0007c	85 d2		 test	 edx, edx
  0007e	d8 c9		 fmul	 ST(0), ST(1)
  00080	db 41 08	 fild	 DWORD PTR [ecx+8]
  00083	7d 06		 jge	 SHORT $L275351
  00085	d8 05 00 00 00
	00		 fadd	 DWORD PTR __real@4f800000
$L275351:
  0008b	d8 ca		 fmul	 ST(0), ST(2)
  0008d	d8 0d 00 00 00
	00		 fmul	 DWORD PTR __real@3ca3d70a
  00093	de c1		 faddp	 ST(1), ST(0)
  00095	e8 00 00 00 00	 call	 __ftol2
  0009a	dd d8		 fstp	 ST(0)
  0009c	8b f0		 mov	 esi, eax
$L269082:

; 182  : 	}
; 183  : 	
; 184  : 	if( pSkillProp->dwReferTarget2 == RT_TIME )

  0009e	83 bf 0c 02 00
	00 02		 cmp	 DWORD PTR [edi+524], 2
  000a5	0f 85 94 00 00
	00		 jne	 $L275346

; 185  : 	{
; 186  : 		switch( pSkillProp->dwReferStat2 )

  000ab	8b 87 04 02 00
	00		 mov	 eax, DWORD PTR [edi+516]
  000b1	83 e8 02	 sub	 eax, 2
  000b4	74 18		 je	 SHORT $L269097
  000b6	48		 dec	 eax
  000b7	74 0c		 je	 SHORT $L269098
  000b9	48		 dec	 eax
  000ba	75 1b		 jne	 SHORT $L269093

; 187  : 		{
; 188  : 		case DST_STA:	dwTime2 = GetSta();		break;

  000bc	8b cb		 mov	 ecx, ebx
  000be	e8 00 00 00 00	 call	 ?GetSta@CMover@@QAEHXZ	; CMover::GetSta
  000c3	eb 10		 jmp	 SHORT $L275356
$L269098:

; 190  : 		case DST_INT:	dwTime2 = GetInt();		break;

  000c5	8b cb		 mov	 ecx, ebx
  000c7	e8 00 00 00 00	 call	 ?GetInt@CMover@@QAEHXZ	; CMover::GetInt
  000cc	eb 07		 jmp	 SHORT $L275356
$L269097:

; 189  : 		case DST_DEX:	dwTime2 = GetDex();		break;

  000ce	8b cb		 mov	 ecx, ebx
  000d0	e8 00 00 00 00	 call	 ?GetDex@CMover@@QAEHXZ	; CMover::GetDex
$L275356:
  000d5	8b e8		 mov	 ebp, eax
$L269093:

; 191  : 		}
; 192  : 		
; 193  : 		dwTime2 = (DWORD)( ((pSkillProp->dwReferValue2/10.0f)*dwTime2) + (pAddSkillProp->dwSkillLvl * FLOAT(dwTime2/50.0f)) );

  000d7	85 ed		 test	 ebp, ebp
  000d9	89 6c 24 1c	 mov	 DWORD PTR tv231[esp+12], ebp
  000dd	db 44 24 1c	 fild	 DWORD PTR tv231[esp+12]
  000e1	7d 06		 jge	 SHORT $L275352
  000e3	d8 05 00 00 00
	00		 fadd	 DWORD PTR __real@4f800000
$L275352:
  000e9	8b 87 14 02 00
	00		 mov	 eax, DWORD PTR [edi+532]
  000ef	db 87 14 02 00
	00		 fild	 DWORD PTR [edi+532]
  000f5	85 c0		 test	 eax, eax
  000f7	7d 06		 jge	 SHORT $L275353
  000f9	d8 05 00 00 00
	00		 fadd	 DWORD PTR __real@4f800000
$L275353:
  000ff	d8 0d 00 00 00
	00		 fmul	 DWORD PTR __real@3dcccccd
  00105	8b 4c 24 20	 mov	 ecx, DWORD PTR _pAddSkillProp$[esp+12]
  00109	8b 51 08	 mov	 edx, DWORD PTR [ecx+8]
  0010c	85 d2		 test	 edx, edx
  0010e	d8 c9		 fmul	 ST(0), ST(1)
  00110	db 41 08	 fild	 DWORD PTR [ecx+8]
  00113	7d 06		 jge	 SHORT $L275354
  00115	d8 05 00 00 00
	00		 fadd	 DWORD PTR __real@4f800000
$L275354:
  0011b	d8 ca		 fmul	 ST(0), ST(2)
  0011d	d8 0d 00 00 00
	00		 fmul	 DWORD PTR __real@3ca3d70a
  00123	de c1		 faddp	 ST(1), ST(0)
  00125	e8 00 00 00 00	 call	 __ftol2
  0012a	dd d8		 fstp	 ST(0)

; 194  : 	}
; 195  : 
; 196  : 	*pTime1 = dwTime1;

  0012c	8b 4c 24 14	 mov	 ecx, DWORD PTR _pTime1$[esp+12]

; 197  : 	*pTime2 = dwTime2;

  00130	8b 54 24 18	 mov	 edx, DWORD PTR _pTime2$[esp+12]
  00134	5f		 pop	 edi
  00135	89 31		 mov	 DWORD PTR [ecx], esi
  00137	5e		 pop	 esi
  00138	5d		 pop	 ebp
  00139	89 02		 mov	 DWORD PTR [edx], eax
  0013b	5b		 pop	 ebx

; 198  : }

  0013c	c2 10 00	 ret	 16			; 00000010H
$L275346:

; 194  : 	}
; 195  : 
; 196  : 	*pTime1 = dwTime1;

  0013f	8b 44 24 14	 mov	 eax, DWORD PTR _pTime1$[esp+12]

; 197  : 	*pTime2 = dwTime2;

  00143	8b 4c 24 18	 mov	 ecx, DWORD PTR _pTime2$[esp+12]
  00147	5f		 pop	 edi
  00148	89 30		 mov	 DWORD PTR [eax], esi
  0014a	5e		 pop	 esi
  0014b	89 29		 mov	 DWORD PTR [ecx], ebp
  0014d	5d		 pop	 ebp
  0014e	5b		 pop	 ebx

; 198  : }

  0014f	c2 10 00	 ret	 16			; 00000010H
?SubReferTime@CMover@@QAEXPAK0PAUItemProp@@PAUAddSkillProp@@@Z ENDP ; CMover::SubReferTime
_TEXT	ENDS
PUBLIC	?GetSkillProp@CMover@@UAEHPAPAUItemProp@@PAPAUAddSkillProp@@HKPBD@Z ; CMover::GetSkillProp
PUBLIC	??_C@_05MPOCIJBL@?$CFs?9?$CFs?$AA@		; `string'
EXTRN	?GetSkillProp@CCtrl@@UAEHPAPAUItemProp@@PAPAUAddSkillProp@@HKPBD@Z:NEAR ; CCtrl::GetSkillProp
EXTRN	_sprintf:NEAR
EXTRN	___security_cookie:DWORD
EXTRN	@__security_check_cookie@4:NEAR
;	COMDAT ??_C@_05MPOCIJBL@?$CFs?9?$CFs?$AA@
CONST	SEGMENT
??_C@_05MPOCIJBL@?$CFs?9?$CFs?$AA@ DB '%s-%s', 00H	; `string'
; Function compile flags: /Ogty
CONST	ENDS
;	COMDAT ?GetSkillProp@CMover@@UAEHPAPAUItemProp@@PAPAUAddSkillProp@@HKPBD@Z
_TEXT	SEGMENT
$T275364 = -268						; size = 4
_szStr$ = -264						; size = 256
__$ArrayPad$ = -4					; size = 4
__$ReturnAddr$ = 4					; size = 4
_ppSkillProp$ = 8					; size = 4
_ppAddSkillProp$ = 12					; size = 4
_nSkill$ = 16						; size = 4
_dwLevel$ = 20						; size = 4
_szErr$ = 24						; size = 4
?GetSkillProp@CMover@@UAEHPAPAUItemProp@@PAPAUAddSkillProp@@HKPBD@Z PROC NEAR ; CMover::GetSkillProp, COMDAT
; _this$ = ecx

; 501  : {

  00000	55		 push	 ebp
  00001	8b ec		 mov	 ebp, esp
  00003	83 e4 f8	 and	 esp, -8			; fffffff8H
  00006	81 ec 0c 01 00
	00		 sub	 esp, 268		; 0000010cH
  0000c	a1 00 00 00 00	 mov	 eax, DWORD PTR ___security_cookie
  00011	8b 55 18	 mov	 edx, DWORD PTR _szErr$[ebp]
  00014	33 c5		 xor	 eax, ebp
  00016	53		 push	 ebx
  00017	8b 5d 08	 mov	 ebx, DWORD PTR _ppSkillProp$[ebp]
  0001a	89 84 24 0c 01
	00 00		 mov	 DWORD PTR __$ArrayPad$[esp+272], eax
  00021	8b 45 0c	 mov	 eax, DWORD PTR _ppAddSkillProp$[ebp]
  00024	56		 push	 esi
  00025	57		 push	 edi
  00026	8b f1		 mov	 esi, ecx
  00028	89 44 24 0c	 mov	 DWORD PTR $T275364[esp+280], eax

; 502  : 	char szStr[256] = {0, };

  0002c	c6 44 24 10 00	 mov	 BYTE PTR _szStr$[esp+280], 0
  00031	33 c0		 xor	 eax, eax
  00033	b9 3f 00 00 00	 mov	 ecx, 63			; 0000003fH
  00038	8d 7c 24 11	 lea	 edi, DWORD PTR _szStr$[esp+281]
  0003c	f3 ab		 rep stosd

; 503  : 	sprintf( szStr, "%s-%s", m_szName, szErr );

  0003e	52		 push	 edx
  0003f	8d 8e 90 16 00
	00		 lea	 ecx, DWORD PTR [esi+5776]
  00045	51		 push	 ecx
  00046	66 ab		 stosw
  00048	8d 54 24 18	 lea	 edx, DWORD PTR _szStr$[esp+288]
  0004c	68 00 00 00 00	 push	 OFFSET FLAT:??_C@_05MPOCIJBL@?$CFs?9?$CFs?$AA@
  00051	52		 push	 edx
  00052	aa		 stosb
  00053	e8 00 00 00 00	 call	 _sprintf

; 504  : 
; 505  : 	return CCtrl::GetSkillProp( ppSkillProp, ppAddSkillProp, nSkill, dwLevel, szStr );

  00058	8b 4d 14	 mov	 ecx, DWORD PTR _dwLevel$[ebp]
  0005b	8b 55 10	 mov	 edx, DWORD PTR _nSkill$[ebp]
  0005e	83 c4 10	 add	 esp, 16			; 00000010H
  00061	8d 44 24 10	 lea	 eax, DWORD PTR _szStr$[esp+280]
  00065	50		 push	 eax
  00066	8b 44 24 10	 mov	 eax, DWORD PTR $T275364[esp+284]
  0006a	51		 push	 ecx
  0006b	52		 push	 edx
  0006c	50		 push	 eax
  0006d	53		 push	 ebx
  0006e	8b ce		 mov	 ecx, esi
  00070	e8 00 00 00 00	 call	 ?GetSkillProp@CCtrl@@UAEHPAPAUItemProp@@PAPAUAddSkillProp@@HKPBD@Z ; CCtrl::GetSkillProp

; 506  : }

  00075	8b 8c 24 14 01
	00 00		 mov	 ecx, DWORD PTR __$ArrayPad$[esp+280]
  0007c	5f		 pop	 edi
  0007d	5e		 pop	 esi
  0007e	33 cd		 xor	 ecx, ebp
  00080	5b		 pop	 ebx
  00081	e8 00 00 00 00	 call	 @__security_check_cookie@4
  00086	8b e5		 mov	 esp, ebp
  00088	5d		 pop	 ebp
  00089	c2 14 00	 ret	 20			; 00000014H
?GetSkillProp@CMover@@UAEHPAPAUItemProp@@PAPAUAddSkillProp@@HKPBD@Z ENDP ; CMover::GetSkillProp
_TEXT	ENDS
PUBLIC	?SetCoolTime@CMover@@QAEXPAUAddSkillProp@@PBD@Z	; CMover::SetCoolTime
PUBLIC	??_C@_0DB@HBBPMINL@szCall?5SetCoolTime?5?3?5?$CFd?5?$CFd?$LN?$LK?E?$LD?$MA?$LL@ ; `string'
EXTRN	?Error@@YAPBDPBDZZ:NEAR				; Error
EXTRN	?GetSkillIdx@CMover@@QAEHK@Z:NEAR		; CMover::GetSkillIdx
EXTRN	?GetName@CMover@@QAEPBDH@Z:NEAR			; CMover::GetName
EXTRN	__imp__timeGetTime@0:NEAR
;	COMDAT ??_C@_0DB@HBBPMINL@szCall?5SetCoolTime?5?3?5?$CFd?5?$CFd?$LN?$LK?E?$LD?$MA?$LL@
CONST	SEGMENT
??_C@_0DB@HBBPMINL@szCall?5SetCoolTime?5?3?5?$CFd?5?$CFd?$LN?$LK?E?$LD?$MA?$LL@ DB 's'
	DB	'zCall SetCoolTime : %d %d', 0bdH, 0baH, 0c5H, 0b3H, 0c0H, 0bbH
	DB	' ', 0c3H, 0a3H, 0c0H, 0bbH, ' ', 0bcH, 0f6H, ' ', 0beH, 0f8H, 0c0H
	DB	0bdH, ' %s', 00H				; `string'
; Function compile flags: /Ogty
CONST	ENDS
;	COMDAT ?SetCoolTime@CMover@@QAEXPAUAddSkillProp@@PBD@Z
_TEXT	SEGMENT
_pAddSkillProp$ = 8					; size = 4
_szCall$ = 12						; size = 4
?SetCoolTime@CMover@@QAEXPAUAddSkillProp@@PBD@Z PROC NEAR ; CMover::SetCoolTime, COMDAT
; _this$ = ecx

; 512  : {

  00000	53		 push	 ebx

; 513  : 	int nIdx	= GetSkillIdx( pAddSkillProp->dwName );		//   .

  00001	8b 5c 24 08	 mov	 ebx, DWORD PTR _pAddSkillProp$[esp]
  00005	8b 43 04	 mov	 eax, DWORD PTR [ebx+4]
  00008	56		 push	 esi
  00009	57		 push	 edi
  0000a	50		 push	 eax
  0000b	8b f9		 mov	 edi, ecx
  0000d	e8 00 00 00 00	 call	 ?GetSkillIdx@CMover@@QAEHK@Z ; CMover::GetSkillIdx
  00012	8b f0		 mov	 esi, eax

; 514  : 	
; 515  : 	if( nIdx < 0 || nIdx >= MAX_SKILL_JOB )

  00014	85 f6		 test	 esi, esi
  00016	7c 1b		 jl	 SHORT $L269263
  00018	83 fe 33	 cmp	 esi, 51			; 00000033H
  0001b	7d 16		 jge	 SHORT $L269263

; 517  : 	else
; 518  : 		m_tmReUseDelay[ nIdx ] = pAddSkillProp->dwCooldown + timeGetTime();		// 1/1000

  0001d	ff 15 00 00 00
	00		 call	 DWORD PTR __imp__timeGetTime@0
  00023	03 43 5c	 add	 eax, DWORD PTR [ebx+92]
  00026	89 84 b7 04 05
	00 00		 mov	 DWORD PTR [edi+esi*4+1284], eax
  0002d	5f		 pop	 edi
  0002e	5e		 pop	 esi
  0002f	5b		 pop	 ebx

; 519  : }

  00030	c2 08 00	 ret	 8
$L269263:

; 516  : 		Error( "szCall SetCoolTime : %d %d    %s", nIdx, pAddSkillProp->dwName, GetName() );

  00033	6a 00		 push	 0
  00035	8b cf		 mov	 ecx, edi
  00037	e8 00 00 00 00	 call	 ?GetName@CMover@@QAEPBDH@Z ; CMover::GetName
  0003c	8b 4b 04	 mov	 ecx, DWORD PTR [ebx+4]
  0003f	50		 push	 eax
  00040	51		 push	 ecx
  00041	56		 push	 esi
  00042	68 00 00 00 00	 push	 OFFSET FLAT:??_C@_0DB@HBBPMINL@szCall?5SetCoolTime?5?3?5?$CFd?5?$CFd?$LN?$LK?E?$LD?$MA?$LL@
  00047	e8 00 00 00 00	 call	 ?Error@@YAPBDPBDZZ	; Error
  0004c	83 c4 10	 add	 esp, 16			; 00000010H
  0004f	5f		 pop	 edi
  00050	5e		 pop	 esi
  00051	5b		 pop	 ebx

; 519  : }

  00052	c2 08 00	 ret	 8
?SetCoolTime@CMover@@QAEXPAUAddSkillProp@@PBD@Z ENDP	; CMover::SetCoolTime
_TEXT	ENDS
PUBLIC	?OnActLanding@CMover@@QAEXXZ			; CMover::OnActLanding
; Function compile flags: /Ogty
;	COMDAT ?OnActLanding@CMover@@QAEXXZ
_TEXT	SEGMENT
?OnActLanding@CMover@@QAEXXZ PROC NEAR			; CMover::OnActLanding, COMDAT
; _this$ = ecx

; 2163 : #ifdef __CLIENT	
; 2164 : 	if( m_dwIndex == MI_CLOCKWORK1 )
; 2165 : 	{
; 2166 : 		GetWorld()->m_pCamera->SetQuake( 60, 1.0f );		//    .
; 2167 : 	}
; 2168 : #endif
; 2169 : }

  00000	c3		 ret	 0
?OnActLanding@CMover@@QAEXXZ ENDP			; CMover::OnActLanding
_TEXT	ENDS
PUBLIC	?OnActFMove@CMover@@QAEXXZ			; CMover::OnActFMove
EXTRN	?PostAIMsg@CMover@@QAEXKKKK@Z:NEAR		; CMover::PostAIMsg
; Function compile flags: /Ogty
;	COMDAT ?OnActFMove@CMover@@QAEXXZ
_TEXT	SEGMENT
?OnActFMove@CMover@@QAEXXZ PROC NEAR			; CMover::OnActFMove, COMDAT
; _this$ = ecx

; 2174 : #ifdef __WORLDSERVER
; 2175 : 	PostAIMsg( AIMSG_BEGINMOVE );

  00000	6a 00		 push	 0
  00002	6a 00		 push	 0
  00004	6a 00		 push	 0
  00006	6a 0d		 push	 13			; 0000000dH
  00008	e8 00 00 00 00	 call	 ?PostAIMsg@CMover@@QAEXKKKK@Z ; CMover::PostAIMsg

; 2176 : #endif
; 2177 : }

  0000d	c3		 ret	 0
?OnActFMove@CMover@@QAEXXZ ENDP				; CMover::OnActFMove
_TEXT	ENDS
PUBLIC	?OnAttackStart@CMover@@QAEXPAV1@W4OBJMSG@@@Z	; CMover::OnAttackStart
; Function compile flags: /Ogty
;	COMDAT ?OnAttackStart@CMover@@QAEXPAV1@W4OBJMSG@@@Z
_TEXT	SEGMENT
_pTarget$ = 8						; size = 4
_dwMsg$ = 12						; size = 4
?OnAttackStart@CMover@@QAEXPAV1@W4OBJMSG@@@Z PROC NEAR	; CMover::OnAttackStart, COMDAT
; _this$ = ecx

; 2233 : }

  00000	c2 08 00	 ret	 8
?OnAttackStart@CMover@@QAEXPAV1@W4OBJMSG@@@Z ENDP	; CMover::OnAttackStart
_TEXT	ENDS
PUBLIC	?RemoveInvisible@CMover@@QAEXXZ			; CMover::RemoveInvisible
EXTRN	?RemoveBuff@CMover@@QAEXGG@Z:NEAR		; CMover::RemoveBuff
EXTRN	?ResetDestParam@CMover@@QAEXHHH@Z:NEAR		; CMover::ResetDestParam
EXTRN	?GetAdjParam@CMover@@QAEHH@Z:NEAR		; CMover::GetAdjParam
; Function compile flags: /Ogty
;	COMDAT ?RemoveInvisible@CMover@@QAEXXZ
_TEXT	SEGMENT
?RemoveInvisible@CMover@@QAEXXZ PROC NEAR		; CMover::RemoveInvisible, COMDAT
; _this$ = ecx

; 2237 : {

  00000	56		 push	 esi

; 2238 : #ifdef __WORLDSERVER
; 2239 : 
; 2240 : 	if( GetAdjParam( DST_CHRSTATE ) & CHS_INVISIBILITY )		//  .

  00001	6a 40		 push	 64			; 00000040H
  00003	8b f1		 mov	 esi, ecx
  00005	e8 00 00 00 00	 call	 ?GetAdjParam@CMover@@QAEHH@Z ; CMover::GetAdjParam
  0000a	f6 c4 04	 test	 ah, 4
  0000d	74 10		 je	 SHORT $L269804

; 2241 : 	{
; 2242 : 		ResetDestParam( DST_CHRSTATE, CHS_INVISIBILITY, TRUE );

  0000f	6a 01		 push	 1
  00011	68 00 04 00 00	 push	 1024			; 00000400H
  00016	6a 40		 push	 64			; 00000040H
  00018	8b ce		 mov	 ecx, esi
  0001a	e8 00 00 00 00	 call	 ?ResetDestParam@CMover@@QAEXHHH@Z ; CMover::ResetDestParam
$L269804:

; 2243 : 	}
; 2244 : 
; 2245 : 	RemoveBuff( BUFF_SKILL, SI_ACR_SUP_DARKILLUSION );		// .				

  0001f	68 c1 00 00 00	 push	 193			; 000000c1H
  00024	6a 01		 push	 1
  00026	8b ce		 mov	 ecx, esi
  00028	e8 00 00 00 00	 call	 ?RemoveBuff@CMover@@QAEXGG@Z ; CMover::RemoveBuff
  0002d	5e		 pop	 esi

; 2246 : 
; 2247 : #endif // __WORLDSERVER
; 2248 : }

  0002e	c3		 ret	 0
?RemoveInvisible@CMover@@QAEXXZ ENDP			; CMover::RemoveInvisible
_TEXT	ENDS
PUBLIC	_acosf
EXTRN	__CIacos:NEAR
; Function compile flags: /Ogty
; File c:\program files\microsoft visual studio .net 2003\vc7\include\math.h
;	COMDAT _acosf
_TEXT	SEGMENT
__X$ = 8						; size = 4
_acosf	PROC NEAR					; COMDAT

; 434  :         {return ((float)acos((double)_X)); }

  00000	d9 44 24 04	 fld	 DWORD PTR __X$[esp-4]
  00004	e8 00 00 00 00	 call	 __CIacos
  00009	c3		 ret	 0
_acosf	ENDP
_TEXT	ENDS
PUBLIC	_cosf
; Function compile flags: /Ogty
;	COMDAT _cosf
_TEXT	SEGMENT
__X$ = 8						; size = 4
_cosf	PROC NEAR					; COMDAT

; 444  :         {return ((float)cos((double)_X)); }

  00000	d9 44 24 04	 fld	 DWORD PTR __X$[esp-4]
  00004	d9 ff		 fcos
  00006	c3		 ret	 0
_cosf	ENDP
_TEXT	ENDS
PUBLIC	_sinf
; Function compile flags: /Ogty
;	COMDAT _sinf
_TEXT	SEGMENT
__X$ = 8						; size = 4
_sinf	PROC NEAR					; COMDAT

; 466  :         {return ((float)sin((double)_X)); }

  00000	d9 44 24 04	 fld	 DWORD PTR __X$[esp-4]
  00004	d9 fe		 fsin
  00006	c3		 ret	 0
_sinf	ENDP
_TEXT	ENDS
PUBLIC	??0D3DXVECTOR3@@QAE@XZ				; D3DXVECTOR3::D3DXVECTOR3
; Function compile flags: /Ogty
; File c:\documents and settings\test\mes documents\source\virtuos_v17\build\program\dx_sdk\d3dx9math.h
;	COMDAT ??0D3DXVECTOR3@@QAE@XZ
_TEXT	SEGMENT
??0D3DXVECTOR3@@QAE@XZ PROC NEAR			; D3DXVECTOR3::D3DXVECTOR3, COMDAT
; _this$ = ecx

; 165  :     D3DXVECTOR3() {};

  00000	8b c1		 mov	 eax, ecx
  00002	c3		 ret	 0
??0D3DXVECTOR3@@QAE@XZ ENDP				; D3DXVECTOR3::D3DXVECTOR3
_TEXT	ENDS
PUBLIC	??0D3DXMATRIX@@QAE@XZ				; D3DXMATRIX::D3DXMATRIX
; Function compile flags: /Ogty
;	COMDAT ??0D3DXMATRIX@@QAE@XZ
_TEXT	SEGMENT
??0D3DXMATRIX@@QAE@XZ PROC NEAR				; D3DXMATRIX::D3DXMATRIX, COMDAT
; _this$ = ecx

; 313  :     D3DXMATRIX() {};

  00000	8b c1		 mov	 eax, ecx
  00002	c3		 ret	 0
??0D3DXMATRIX@@QAE@XZ ENDP				; D3DXMATRIX::D3DXMATRIX
_TEXT	ENDS
PUBLIC	??0D3DXVECTOR3@@QAE@MMM@Z			; D3DXVECTOR3::D3DXVECTOR3
; Function compile flags: /Ogty
; File c:\documents and settings\test\mes documents\source\virtuos_v17\build\program\dx_sdk\d3dx9math.inl
;	COMDAT ??0D3DXVECTOR3@@QAE@MMM@Z
_TEXT	SEGMENT
_fx$ = 8						; size = 4
_fy$ = 12						; size = 4
_fz$ = 16						; size = 4
??0D3DXVECTOR3@@QAE@MMM@Z PROC NEAR			; D3DXVECTOR3::D3DXVECTOR3, COMDAT
; _this$ = ecx

; 300  :     x = fx;
; 301  :     y = fy;

  00000	8b 54 24 08	 mov	 edx, DWORD PTR _fy$[esp-4]
  00004	8b c1		 mov	 eax, ecx
  00006	8b 4c 24 04	 mov	 ecx, DWORD PTR _fx$[esp-4]
  0000a	89 08		 mov	 DWORD PTR [eax], ecx

; 302  :     z = fz;

  0000c	8b 4c 24 0c	 mov	 ecx, DWORD PTR _fz$[esp-4]
  00010	89 50 04	 mov	 DWORD PTR [eax+4], edx
  00013	89 48 08	 mov	 DWORD PTR [eax+8], ecx

; 303  : }

  00016	c2 0c 00	 ret	 12			; 0000000cH
??0D3DXVECTOR3@@QAE@MMM@Z ENDP				; D3DXVECTOR3::D3DXVECTOR3
_TEXT	ENDS
PUBLIC	??YD3DXVECTOR3@@QAEAAU0@ABU0@@Z			; D3DXVECTOR3::operator+=
; Function compile flags: /Ogty
;	COMDAT ??YD3DXVECTOR3@@QAEAAU0@ABU0@@Z
_TEXT	SEGMENT
_v$ = 8							; size = 4
??YD3DXVECTOR3@@QAEAAU0@ABU0@@Z PROC NEAR		; D3DXVECTOR3::operator+=, COMDAT
; _this$ = ecx

; 323  : {

  00000	8b c1		 mov	 eax, ecx

; 324  :     x += v.x;

  00002	8b 4c 24 04	 mov	 ecx, DWORD PTR _v$[esp-4]
  00006	d9 01		 fld	 DWORD PTR [ecx]
  00008	d8 00		 fadd	 DWORD PTR [eax]
  0000a	d9 18		 fstp	 DWORD PTR [eax]

; 325  :     y += v.y;

  0000c	d9 41 04	 fld	 DWORD PTR [ecx+4]
  0000f	d8 40 04	 fadd	 DWORD PTR [eax+4]
  00012	d9 58 04	 fstp	 DWORD PTR [eax+4]

; 326  :     z += v.z;

  00015	d9 41 08	 fld	 DWORD PTR [ecx+8]
  00018	d8 40 08	 fadd	 DWORD PTR [eax+8]
  0001b	d9 58 08	 fstp	 DWORD PTR [eax+8]

; 327  :     return *this;
; 328  : }

  0001e	c2 04 00	 ret	 4
??YD3DXVECTOR3@@QAEAAU0@ABU0@@Z ENDP			; D3DXVECTOR3::operator+=
_TEXT	ENDS
PUBLIC	??XD3DXVECTOR3@@QAEAAU0@M@Z			; D3DXVECTOR3::operator*=
; Function compile flags: /Ogty
;	COMDAT ??XD3DXVECTOR3@@QAEAAU0@M@Z
_TEXT	SEGMENT
_f$ = 8							; size = 4
??XD3DXVECTOR3@@QAEAAU0@M@Z PROC NEAR			; D3DXVECTOR3::operator*=, COMDAT
; _this$ = ecx

; 342  :     x *= f;

  00000	d9 44 24 04	 fld	 DWORD PTR _f$[esp-4]
  00004	8b c1		 mov	 eax, ecx
  00006	d8 08		 fmul	 DWORD PTR [eax]
  00008	d9 18		 fstp	 DWORD PTR [eax]

; 343  :     y *= f;

  0000a	d9 44 24 04	 fld	 DWORD PTR _f$[esp-4]
  0000e	d8 48 04	 fmul	 DWORD PTR [eax+4]
  00011	d9 58 04	 fstp	 DWORD PTR [eax+4]

; 344  :     z *= f;

  00014	d9 44 24 04	 fld	 DWORD PTR _f$[esp-4]
  00018	d8 48 08	 fmul	 DWORD PTR [eax+8]
  0001b	d9 58 08	 fstp	 DWORD PTR [eax+8]

; 345  :     return *this;
; 346  : }

  0001e	c2 04 00	 ret	 4
??XD3DXVECTOR3@@QAEAAU0@M@Z ENDP			; D3DXVECTOR3::operator*=
_TEXT	ENDS
PUBLIC	??HD3DXVECTOR3@@QBE?AU0@ABU0@@Z			; D3DXVECTOR3::operator+
; Function compile flags: /Ogty
;	COMDAT ??HD3DXVECTOR3@@QBE?AU0@ABU0@@Z
_TEXT	SEGMENT
___$ReturnUdt$ = 8					; size = 4
_v$ = 12						; size = 4
??HD3DXVECTOR3@@QBE?AU0@ABU0@@Z PROC NEAR		; D3DXVECTOR3::operator+, COMDAT
; _this$ = ecx

; 377  :     return D3DXVECTOR3(x + v.x, y + v.y, z + v.z);

  00000	8b 44 24 08	 mov	 eax, DWORD PTR _v$[esp-4]
  00004	d9 40 08	 fld	 DWORD PTR [eax+8]
  00007	d8 41 08	 fadd	 DWORD PTR [ecx+8]
  0000a	d9 40 04	 fld	 DWORD PTR [eax+4]
  0000d	d8 41 04	 fadd	 DWORD PTR [ecx+4]
  00010	d9 00		 fld	 DWORD PTR [eax]
  00012	8b 44 24 04	 mov	 eax, DWORD PTR ___$ReturnUdt$[esp-4]
  00016	d8 01		 fadd	 DWORD PTR [ecx]
  00018	d9 18		 fstp	 DWORD PTR [eax]
  0001a	d9 58 04	 fstp	 DWORD PTR [eax+4]
  0001d	d9 58 08	 fstp	 DWORD PTR [eax+8]

; 378  : }

  00020	c2 08 00	 ret	 8
??HD3DXVECTOR3@@QBE?AU0@ABU0@@Z ENDP			; D3DXVECTOR3::operator+
_TEXT	ENDS
PUBLIC	??GD3DXVECTOR3@@QBE?AU0@ABU0@@Z			; D3DXVECTOR3::operator-
; Function compile flags: /Ogty
;	COMDAT ??GD3DXVECTOR3@@QBE?AU0@ABU0@@Z
_TEXT	SEGMENT
___$ReturnUdt$ = 8					; size = 4
_v$ = 12						; size = 4
??GD3DXVECTOR3@@QBE?AU0@ABU0@@Z PROC NEAR		; D3DXVECTOR3::operator-, COMDAT
; _this$ = ecx

; 383  :     return D3DXVECTOR3(x - v.x, y - v.y, z - v.z);

  00000	d9 41 08	 fld	 DWORD PTR [ecx+8]
  00003	8b 44 24 08	 mov	 eax, DWORD PTR _v$[esp-4]
  00007	d8 60 08	 fsub	 DWORD PTR [eax+8]
  0000a	d9 41 04	 fld	 DWORD PTR [ecx+4]
  0000d	d8 60 04	 fsub	 DWORD PTR [eax+4]
  00010	d9 01		 fld	 DWORD PTR [ecx]
  00012	d8 20		 fsub	 DWORD PTR [eax]
  00014	8b 44 24 04	 mov	 eax, DWORD PTR ___$ReturnUdt$[esp-4]
  00018	d9 18		 fstp	 DWORD PTR [eax]
  0001a	d9 58 04	 fstp	 DWORD PTR [eax+4]
  0001d	d9 58 08	 fstp	 DWORD PTR [eax+8]

; 384  : }

  00020	c2 08 00	 ret	 8
??GD3DXVECTOR3@@QBE?AU0@ABU0@@Z ENDP			; D3DXVECTOR3::operator-
_TEXT	ENDS
PUBLIC	?D3DXVec3Dot@@YAMPBUD3DXVECTOR3@@0@Z		; D3DXVec3Dot
; Function compile flags: /Ogty
;	COMDAT ?D3DXVec3Dot@@YAMPBUD3DXVECTOR3@@0@Z
_TEXT	SEGMENT
_pV1$ = 8						; size = 4
_pV2$ = 12						; size = 4
?D3DXVec3Dot@@YAMPBUD3DXVECTOR3@@0@Z PROC NEAR		; D3DXVec3Dot, COMDAT

; 1704 : #ifdef D3DX_DEBUG
; 1705 :     if(!pV1 || !pV2)
; 1706 :         return 0.0f;
; 1707 : #endif
; 1708 : 
; 1709 :     return pV1->x * pV2->x + pV1->y * pV2->y + pV1->z * pV2->z;

  00000	8b 44 24 04	 mov	 eax, DWORD PTR _pV1$[esp-4]
  00004	8b 4c 24 08	 mov	 ecx, DWORD PTR _pV2$[esp-4]
  00008	d9 40 08	 fld	 DWORD PTR [eax+8]
  0000b	d8 49 08	 fmul	 DWORD PTR [ecx+8]
  0000e	d9 40 04	 fld	 DWORD PTR [eax+4]
  00011	d8 49 04	 fmul	 DWORD PTR [ecx+4]
  00014	de c1		 faddp	 ST(1), ST(0)
  00016	d9 00		 fld	 DWORD PTR [eax]
  00018	d8 09		 fmul	 DWORD PTR [ecx]
  0001a	de c1		 faddp	 ST(1), ST(0)

; 1710 : }

  0001c	c3		 ret	 0
?D3DXVec3Dot@@YAMPBUD3DXVECTOR3@@0@Z ENDP		; D3DXVec3Dot
_TEXT	ENDS
PUBLIC	??_C@_00CNPNBAHC@?$AA@				; `string'
PUBLIC	??0_LogItemInfo@@QAE@XZ				; _LogItemInfo::_LogItemInfo
;	COMDAT ??_C@_00CNPNBAHC@?$AA@
; File c:\documents and settings\test\mes documents\source\virtuos_v17\build\program\_network\cmnhdr.h
CONST	SEGMENT
??_C@_00CNPNBAHC@?$AA@ DB 00H				; `string'
; Function compile flags: /Ogty
CONST	ENDS
;	COMDAT ??0_LogItemInfo@@QAE@XZ
_TEXT	SEGMENT
??0_LogItemInfo@@QAE@XZ PROC NEAR			; _LogItemInfo::_LogItemInfo, COMDAT
; _this$ = ecx

; 641  : 	_LogItemInfo()

  00000	8b c1		 mov	 eax, ecx
  00002	56		 push	 esi

; 642  : 	{
; 643  : 		Action = _T("");
; 644  : 		SendName = _T("");
; 645  : 		RecvName = _T("");
; 646  : 		WorldId = Gold = Gold2 = 0;
; 647  : 		Negudo = 0;
; 648  : 		MaxNegudo = 0;
; 649  : 		ItemNo = 0;
; 650  : 		//ItemName = _T("");
; 651  : 		::memset( szItemName, 0, sizeof(szItemName) );

  00003	33 d2		 xor	 edx, edx
  00005	b9 00 00 00 00	 mov	 ecx, OFFSET FLAT:??_C@_00CNPNBAHC@?$AA@
  0000a	89 08		 mov	 DWORD PTR [eax], ecx
  0000c	89 48 04	 mov	 DWORD PTR [eax+4], ecx
  0000f	89 48 08	 mov	 DWORD PTR [eax+8], ecx
  00012	33 c9		 xor	 ecx, ecx
  00014	89 48 14	 mov	 DWORD PTR [eax+20], ecx
  00017	89 48 10	 mov	 DWORD PTR [eax+16], ecx
  0001a	89 48 0c	 mov	 DWORD PTR [eax+12], ecx
  0001d	89 48 1c	 mov	 DWORD PTR [eax+28], ecx
  00020	89 48 20	 mov	 DWORD PTR [eax+32], ecx
  00023	89 48 18	 mov	 DWORD PTR [eax+24], ecx
  00026	8d 70 24	 lea	 esi, DWORD PTR [eax+36]
  00029	89 16		 mov	 DWORD PTR [esi], edx
  0002b	89 56 04	 mov	 DWORD PTR [esi+4], edx
  0002e	89 56 08	 mov	 DWORD PTR [esi+8], edx
  00031	89 56 0c	 mov	 DWORD PTR [esi+12], edx
  00034	89 56 10	 mov	 DWORD PTR [esi+16], edx
  00037	89 56 14	 mov	 DWORD PTR [esi+20], edx
  0003a	89 56 18	 mov	 DWORD PTR [esi+24], edx
  0003d	89 56 1c	 mov	 DWORD PTR [esi+28], edx

; 652  : 		itemNumber = 0;

  00040	89 48 44	 mov	 DWORD PTR [eax+68], ecx

; 653  : 		nAbilityOption = 0;

  00043	89 48 48	 mov	 DWORD PTR [eax+72], ecx

; 654  : 		Gold_1 = 0;

  00046	89 48 4c	 mov	 DWORD PTR [eax+76], ecx

; 655  : 		nSlot = 100;
; 656  : 		nSlot1 = 100;
; 657  : 		nItemResist = 0;

  00049	89 48 58	 mov	 DWORD PTR [eax+88], ecx

; 658  : 		nResistAbilityOption = 0;

  0004c	89 48 5c	 mov	 DWORD PTR [eax+92], ecx

; 659  : 		m_bCharged = FALSE;

  0004f	89 48 60	 mov	 DWORD PTR [eax+96], ecx

; 660  : 		m_dwKeepTime = 0;

  00052	89 48 64	 mov	 DWORD PTR [eax+100], ecx

; 661  : #if __VER >= 11 // __SYS_IDENTIFY
; 662  : 		m_iRandomOptItemId = 0;

  00055	89 48 68	 mov	 DWORD PTR [eax+104], ecx
  00058	89 48 6c	 mov	 DWORD PTR [eax+108], ecx

; 663  : #else	//__SYS_IDENTIFY
; 664  : 		m_nRandomOptItemId = 0;
; 665  : #endif	// __SYS_IDENTIFY
; 666  : #if __VER >= 12 // __EXT_PIERCING
; 667  : 		nPiercedSize = 0;

  0005b	89 48 70	 mov	 DWORD PTR [eax+112], ecx
  0005e	ba 64 00 00 00	 mov	 edx, 100		; 00000064H
  00063	89 50 50	 mov	 DWORD PTR [eax+80], edx
  00066	89 50 54	 mov	 DWORD PTR [eax+84], edx

; 668  : //		for( int i=0; i<MAX_PIERCING_WEAPON; i++ )
; 669  : //			adwItemId[i] = 0;
; 670  : 		memset( adwItemId, 0, sizeof(adwItemId) );

  00069	33 d2		 xor	 edx, edx
  0006b	8d 70 74	 lea	 esi, DWORD PTR [eax+116]
  0006e	89 16		 mov	 DWORD PTR [esi], edx
  00070	89 56 04	 mov	 DWORD PTR [esi+4], edx
  00073	89 56 08	 mov	 DWORD PTR [esi+8], edx
  00076	89 56 0c	 mov	 DWORD PTR [esi+12], edx
  00079	89 56 10	 mov	 DWORD PTR [esi+16], edx
  0007c	89 56 14	 mov	 DWORD PTR [esi+20], edx
  0007f	89 56 18	 mov	 DWORD PTR [esi+24], edx
  00082	89 56 1c	 mov	 DWORD PTR [esi+28], edx
  00085	89 56 20	 mov	 DWORD PTR [esi+32], edx
  00088	89 56 24	 mov	 DWORD PTR [esi+36], edx

; 671  : 		nUMPiercedSize = 0;

  0008b	89 88 9c 00 00
	00		 mov	 DWORD PTR [eax+156], ecx

; 672  : //		for( i=0; i<MAX_PIERCING_ULTIMATE; i++ )
; 673  : //	adwUMItemId[i] = 0;
; 674  : 		memset( adwUMItemId, 0, sizeof(adwUMItemId) );

  00091	8d b0 a0 00 00
	00		 lea	 esi, DWORD PTR [eax+160]
  00097	89 16		 mov	 DWORD PTR [esi], edx
  00099	89 56 04	 mov	 DWORD PTR [esi+4], edx
  0009c	89 56 08	 mov	 DWORD PTR [esi+8], edx
  0009f	89 56 0c	 mov	 DWORD PTR [esi+12], edx
  000a2	89 56 10	 mov	 DWORD PTR [esi+16], edx

; 675  : #else // __EXT_PIERCING
; 676  : 		nPiercedSize = 0;
; 677  : 		adwItemId0 = 0;
; 678  : 		adwItemId1 = 0;
; 679  : 		adwItemId2 = 0;
; 680  : 		adwItemId3 = 0;
; 681  : #if __VER >= 9 // __ULTIMATE
; 682  : 		adwItemId4 = 0;
; 683  : #endif // __ULTIMATE
; 684  : #endif // __EXT_PIERCING
; 685  : #if __VER >= 9 // __PET_0410
; 686  : 		nPetKind = 0;

  000a5	88 88 b4 00 00
	00		 mov	 BYTE PTR [eax+180], cl

; 687  : 		nPetLevel = 0;

  000ab	88 88 b5 00 00
	00		 mov	 BYTE PTR [eax+181], cl

; 688  : 		dwPetExp = 0;

  000b1	89 88 b8 00 00
	00		 mov	 DWORD PTR [eax+184], ecx

; 689  : 		wPetEnergy = 0;

  000b7	66 89 88 bc 00
	00 00		 mov	 WORD PTR [eax+188], cx

; 690  : 		wPetLife = 0;

  000be	66 89 88 be 00
	00 00		 mov	 WORD PTR [eax+190], cx

; 691  : 		nPetAL_D = 0;

  000c5	88 88 c0 00 00
	00		 mov	 BYTE PTR [eax+192], cl

; 692  : 		nPetAL_C = 0;

  000cb	88 88 c1 00 00
	00		 mov	 BYTE PTR [eax+193], cl

; 693  : 		nPetAL_B = 0;

  000d1	88 88 c2 00 00
	00		 mov	 BYTE PTR [eax+194], cl

; 694  : 		nPetAL_A = 0;

  000d7	88 88 c3 00 00
	00		 mov	 BYTE PTR [eax+195], cl

; 695  : 		nPetAL_S = 0;

  000dd	88 88 c4 00 00
	00		 mov	 BYTE PTR [eax+196], cl
  000e3	5e		 pop	 esi

; 696  : #endif // __PET_0410
; 697  : 	}

  000e4	c3		 ret	 0
??0_LogItemInfo@@QAE@XZ ENDP				; _LogItemInfo::_LogItemInfo
_TEXT	ENDS
PUBLIC	?xRand@@YAKXZ					; xRand
EXTRN	?g_next@@3KA:DWORD				; g_next
; Function compile flags: /Ogty
; File c:\documents and settings\test\mes documents\source\virtuos_v17\build\program\_common\xutil.h
;	COMDAT ?xRand@@YAKXZ
_TEXT	SEGMENT
?xRand@@YAKXZ PROC NEAR					; xRand, COMDAT

; 16   : 	g_next = g_next * 1103515245 + 12345;// + nRandomSeed[ i++ ];

  00000	a1 00 00 00 00	 mov	 eax, DWORD PTR ?g_next@@3KA ; g_next
  00005	69 c0 6d 4e c6
	41		 imul	 eax, 1103515245		; 41c64e6dH
  0000b	05 39 30 00 00	 add	 eax, 12345		; 00003039H
  00010	a3 00 00 00 00	 mov	 DWORD PTR ?g_next@@3KA, eax ; g_next

; 17   : 	return g_next;	//   .
; 18   : }

  00015	c3		 ret	 0
?xRand@@YAKXZ ENDP					; xRand
_TEXT	ENDS
PUBLIC	?xRandom@@YAKK@Z				; xRandom
; Function compile flags: /Ogty
;	COMDAT ?xRandom@@YAKK@Z
_TEXT	SEGMENT
_num$ = 8						; size = 4
?xRandom@@YAKK@Z PROC NEAR				; xRandom, COMDAT

; 22   : 	return  xRand() % num;

  00000	a1 00 00 00 00	 mov	 eax, DWORD PTR ?g_next@@3KA ; g_next
  00005	69 c0 6d 4e c6
	41		 imul	 eax, 1103515245		; 41c64e6dH
  0000b	05 39 30 00 00	 add	 eax, 12345		; 00003039H
  00010	a3 00 00 00 00	 mov	 DWORD PTR ?g_next@@3KA, eax ; g_next
  00015	33 d2		 xor	 edx, edx
  00017	f7 74 24 04	 div	 DWORD PTR _num$[esp-4]
  0001b	8b c2		 mov	 eax, edx

; 23   : }

  0001d	c3		 ret	 0
?xRandom@@YAKK@Z ENDP					; xRandom
_TEXT	ENDS
PUBLIC	?AngleToVectorXZ@@YAXPAUD3DXVECTOR3@@MM@Z	; AngleToVectorXZ
PUBLIC	__real@3c8efa35
;	COMDAT __real@3c8efa35
; File c:\program files\microsoft visual studio .net 2003\vc7\include\math.h
CONST	SEGMENT
__real@3c8efa35 DD 03c8efa35r			; 0.0174533
; Function compile flags: /Ogty
; File c:\documents and settings\test\mes documents\source\virtuos_v17\build\program\_common\xutil3d.h
CONST	ENDS
;	COMDAT ?AngleToVectorXZ@@YAXPAUD3DXVECTOR3@@MM@Z
_TEXT	SEGMENT
_vDelta$ = 8						; size = 4
_fAngXZ$ = 12						; size = 4
_fSpeed$ = 16						; size = 4
?AngleToVectorXZ@@YAXPAUD3DXVECTOR3@@MM@Z PROC NEAR	; AngleToVectorXZ, COMDAT

; 39   : 	fAngXZ = D3DXToRadian(fAngXZ);

  00000	d9 44 24 08	 fld	 DWORD PTR _fAngXZ$[esp-4]

; 40   : 	vDelta->x = sinf(fAngXZ) * fSpeed;

  00004	8b 44 24 04	 mov	 eax, DWORD PTR _vDelta$[esp-4]
  00008	d8 0d 00 00 00
	00		 fmul	 DWORD PTR __real@3c8efa35

; 41   : 	vDelta->z = -cosf(fAngXZ) * fSpeed;
; 42   : 	vDelta->y = 0;

  0000e	c7 40 04 00 00
	00 00		 mov	 DWORD PTR [eax+4], 0
  00015	d9 c0		 fld	 ST(0)
  00017	d9 fe		 fsin
  00019	d8 4c 24 0c	 fmul	 DWORD PTR _fSpeed$[esp-4]
  0001d	d9 18		 fstp	 DWORD PTR [eax]
  0001f	d9 ff		 fcos
  00021	d8 4c 24 0c	 fmul	 DWORD PTR _fSpeed$[esp-4]
  00025	d9 e0		 fchs
  00027	d9 58 08	 fstp	 DWORD PTR [eax+8]

; 43   : }

  0002a	c3		 ret	 0
?AngleToVectorXZ@@YAXPAUD3DXVECTOR3@@MM@Z ENDP		; AngleToVectorXZ
_TEXT	ENDS
PUBLIC	?IsDelete@CObj@@QAEHXZ				; CObj::IsDelete
; Function compile flags: /Ogty
; File c:\documents and settings\test\mes documents\source\virtuos_v17\build\program\_common\obj.h
;	COMDAT ?IsDelete@CObj@@QAEHXZ
_TEXT	SEGMENT
?IsDelete@CObj@@QAEHXZ PROC NEAR			; CObj::IsDelete, COMDAT
; _this$ = ecx

; 180  : 	BOOL			IsDelete()	{ return (m_dwFlags & OBJ_FLAG_DELETE);  }

  00000	8b 41 04	 mov	 eax, DWORD PTR [ecx+4]
  00003	83 e0 01	 and	 eax, 1
  00006	c3		 ret	 0
?IsDelete@CObj@@QAEHXZ ENDP				; CObj::IsDelete
_TEXT	ENDS
PUBLIC	?GetAngleX@CObj@@QAEMXZ				; CObj::GetAngleX
; Function compile flags: /Ogty
;	COMDAT ?GetAngleX@CObj@@QAEMXZ
_TEXT	SEGMENT
?GetAngleX@CObj@@QAEMXZ PROC NEAR			; CObj::GetAngleX, COMDAT
; _this$ = ecx

; 186  : 	FLOAT			GetAngleX() { return m_fAngX; }

  00000	d9 41 1c	 fld	 DWORD PTR [ecx+28]
  00003	c3		 ret	 0
?GetAngleX@CObj@@QAEMXZ ENDP				; CObj::GetAngleX
_TEXT	ENDS
PUBLIC	?GetType@CObj@@QAEKXZ				; CObj::GetType
; Function compile flags: /Ogty
;	COMDAT ?GetType@CObj@@QAEKXZ
_TEXT	SEGMENT
?GetType@CObj@@QAEKXZ PROC NEAR				; CObj::GetType, COMDAT
; _this$ = ecx

; 206  : 	DWORD			GetType() { return m_dwType; }

  00000	8b 81 70 01 00
	00		 mov	 eax, DWORD PTR [ecx+368]
  00006	c3		 ret	 0
?GetType@CObj@@QAEKXZ ENDP				; CObj::GetType
_TEXT	ENDS
PUBLIC	?GetIndex@CObj@@QAEKXZ				; CObj::GetIndex
; Function compile flags: /Ogty
;	COMDAT ?GetIndex@CObj@@QAEKXZ
_TEXT	SEGMENT
?GetIndex@CObj@@QAEKXZ PROC NEAR			; CObj::GetIndex, COMDAT
; _this$ = ecx

; 207  : 	DWORD			GetIndex() { return m_dwIndex; }

  00000	8b 81 74 01 00
	00		 mov	 eax, DWORD PTR [ecx+372]
  00006	c3		 ret	 0
?GetIndex@CObj@@QAEKXZ ENDP				; CObj::GetIndex
_TEXT	ENDS
PUBLIC	?GetPos@CObj@@QAE?AUD3DXVECTOR3@@XZ		; CObj::GetPos
; Function compile flags: /Ogty
;	COMDAT ?GetPos@CObj@@QAE?AUD3DXVECTOR3@@XZ
_TEXT	SEGMENT
___$ReturnUdt$ = 8					; size = 4
?GetPos@CObj@@QAE?AUD3DXVECTOR3@@XZ PROC NEAR		; CObj::GetPos, COMDAT
; _this$ = ecx

; 215  : 	D3DXVECTOR3		GetPos()	{ return m_vPos; }

  00000	8b 44 24 04	 mov	 eax, DWORD PTR ___$ReturnUdt$[esp-4]
  00004	81 c1 60 01 00
	00		 add	 ecx, 352		; 00000160H
  0000a	56		 push	 esi
  0000b	8b 31		 mov	 esi, DWORD PTR [ecx]
  0000d	8b d0		 mov	 edx, eax
  0000f	89 32		 mov	 DWORD PTR [edx], esi
  00011	8b 71 04	 mov	 esi, DWORD PTR [ecx+4]
  00014	89 72 04	 mov	 DWORD PTR [edx+4], esi
  00017	8b 49 08	 mov	 ecx, DWORD PTR [ecx+8]
  0001a	89 4a 08	 mov	 DWORD PTR [edx+8], ecx
  0001d	5e		 pop	 esi
  0001e	c2 04 00	 ret	 4
?GetPos@CObj@@QAE?AUD3DXVECTOR3@@XZ ENDP		; CObj::GetPos
_TEXT	ENDS
PUBLIC	?GetAngle@CObj@@QAEMXZ				; CObj::GetAngle
; Function compile flags: /Ogty
;	COMDAT ?GetAngle@CObj@@QAEMXZ
_TEXT	SEGMENT
?GetAngle@CObj@@QAEMXZ PROC NEAR			; CObj::GetAngle, COMDAT
; _this$ = ecx

; 217  : 	FLOAT			GetAngle()	{ return m_fAngle; }

  00000	d9 41 18	 fld	 DWORD PTR [ecx+24]
  00003	c3		 ret	 0
?GetAngle@CObj@@QAEMXZ ENDP				; CObj::GetAngle
_TEXT	ENDS
PUBLIC	?GetScale@CObj@@QAE?AUD3DXVECTOR3@@XZ		; CObj::GetScale
; Function compile flags: /Ogty
;	COMDAT ?GetScale@CObj@@QAE?AUD3DXVECTOR3@@XZ
_TEXT	SEGMENT
___$ReturnUdt$ = 8					; size = 4
?GetScale@CObj@@QAE?AUD3DXVECTOR3@@XZ PROC NEAR		; CObj::GetScale, COMDAT
; _this$ = ecx

; 220  : 	D3DXVECTOR3		GetScale()	{ return m_vScale; }

  00000	8b 44 24 04	 mov	 eax, DWORD PTR ___$ReturnUdt$[esp-4]
  00004	83 c1 0c	 add	 ecx, 12			; 0000000cH
  00007	56		 push	 esi
  00008	8b 31		 mov	 esi, DWORD PTR [ecx]
  0000a	8b d0		 mov	 edx, eax
  0000c	89 32		 mov	 DWORD PTR [edx], esi
  0000e	8b 71 04	 mov	 esi, DWORD PTR [ecx+4]
  00011	89 72 04	 mov	 DWORD PTR [edx+4], esi
  00014	8b 49 08	 mov	 ecx, DWORD PTR [ecx+8]
  00017	89 4a 08	 mov	 DWORD PTR [edx+8], ecx
  0001a	5e		 pop	 esi
  0001b	c2 04 00	 ret	 4
?GetScale@CObj@@QAE?AUD3DXVECTOR3@@XZ ENDP		; CObj::GetScale
_TEXT	ENDS
PUBLIC	?GetWorld@CObj@@QAEPAVCWorld@@XZ		; CObj::GetWorld
; Function compile flags: /Ogty
;	COMDAT ?GetWorld@CObj@@QAEPAVCWorld@@XZ
_TEXT	SEGMENT
?GetWorld@CObj@@QAEPAVCWorld@@XZ PROC NEAR		; CObj::GetWorld, COMDAT
; _this$ = ecx

; 221  : 	CWorld*			GetWorld()	{ return m_pWorld; }

  00000	8b 81 6c 01 00
	00		 mov	 eax, DWORD PTR [ecx+364]
  00006	c3		 ret	 0
?GetWorld@CObj@@QAEPAVCWorld@@XZ ENDP			; CObj::GetWorld
_TEXT	ENDS
PUBLIC	?GetMatrixWorld@CObj@@QBE?AUD3DXMATRIX@@XZ	; CObj::GetMatrixWorld
; Function compile flags: /Ogty
;	COMDAT ?GetMatrixWorld@CObj@@QBE?AUD3DXMATRIX@@XZ
_TEXT	SEGMENT
___$ReturnUdt$ = 8					; size = 4
?GetMatrixWorld@CObj@@QBE?AUD3DXMATRIX@@XZ PROC NEAR	; CObj::GetMatrixWorld, COMDAT
; _this$ = ecx

; 231  : 	D3DXMATRIX		GetMatrixWorld() const		{ return m_matWorld; } //     

  00000	8b 44 24 04	 mov	 eax, DWORD PTR ___$ReturnUdt$[esp-4]
  00004	56		 push	 esi
  00005	57		 push	 edi
  00006	8d b1 e4 00 00
	00		 lea	 esi, DWORD PTR [ecx+228]
  0000c	b9 10 00 00 00	 mov	 ecx, 16			; 00000010H
  00011	8b f8		 mov	 edi, eax
  00013	f3 a5		 rep movsd
  00015	5f		 pop	 edi
  00016	5e		 pop	 esi
  00017	c2 04 00	 ret	 4
?GetMatrixWorld@CObj@@QBE?AUD3DXMATRIX@@XZ ENDP		; CObj::GetMatrixWorld
_TEXT	ENDS
PUBLIC	?GetMatrixWorldPtr@CObj@@QAEPAUD3DXMATRIX@@XZ	; CObj::GetMatrixWorldPtr
; Function compile flags: /Ogty
;	COMDAT ?GetMatrixWorldPtr@CObj@@QAEPAUD3DXMATRIX@@XZ
_TEXT	SEGMENT
?GetMatrixWorldPtr@CObj@@QAEPAUD3DXMATRIX@@XZ PROC NEAR	; CObj::GetMatrixWorldPtr, COMDAT
; _this$ = ecx

; 232  : 	D3DXMATRIX*		GetMatrixWorldPtr()		    { return &m_matWorld; } //   

  00000	8d 81 e4 00 00
	00		 lea	 eax, DWORD PTR [ecx+228]
  00006	c3		 ret	 0
?GetMatrixWorldPtr@CObj@@QAEPAUD3DXMATRIX@@XZ ENDP	; CObj::GetMatrixWorldPtr
_TEXT	ENDS
PUBLIC	?GetLayer@CObj@@QAEHXZ				; CObj::GetLayer
; Function compile flags: /Ogty
;	COMDAT ?GetLayer@CObj@@QAEHXZ
_TEXT	SEGMENT
?GetLayer@CObj@@QAEHXZ PROC NEAR			; CObj::GetLayer, COMDAT
; _this$ = ecx

; 247  : 	int		GetLayer()	{	return m_nLayer;	}

  00000	8b 81 b8 01 00
	00		 mov	 eax, DWORD PTR [ecx+440]
  00006	c3		 ret	 0
?GetLayer@CObj@@QAEHXZ ENDP				; CObj::GetLayer
_TEXT	ENDS
PUBLIC	?VelocityToVec@@YA?AUD3DXVECTOR3@@MM@Z		; VelocityToVec
; Function compile flags: /Ogty
;	COMDAT ?VelocityToVec@@YA?AUD3DXVECTOR3@@MM@Z
_TEXT	SEGMENT
___$ReturnUdt$ = 8					; size = 4
_fAngle$ = 12						; size = 4
_fVelocity$ = 16					; size = 4
?VelocityToVec@@YA?AUD3DXVECTOR3@@MM@Z PROC NEAR	; VelocityToVec, COMDAT

; 280  : 	FLOAT fTheta = D3DXToRadian( fAngle );

  00000	d9 44 24 08	 fld	 DWORD PTR _fAngle$[esp-4]

; 281  : 	FLOAT fx = sinf( fTheta ) * fVelocity;
; 282  : 	FLOAT fz = -cosf( fTheta ) * fVelocity;
; 283  : 	return D3DXVECTOR3( fx, 0.0f, fz );

  00004	8b 44 24 04	 mov	 eax, DWORD PTR ___$ReturnUdt$[esp-4]
  00008	d8 0d 00 00 00
	00		 fmul	 DWORD PTR __real@3c8efa35
  0000e	c7 40 04 00 00
	00 00		 mov	 DWORD PTR [eax+4], 0
  00015	d9 c0		 fld	 ST(0)
  00017	d9 fe		 fsin
  00019	d8 4c 24 0c	 fmul	 DWORD PTR _fVelocity$[esp-4]
  0001d	d9 18		 fstp	 DWORD PTR [eax]
  0001f	d9 ff		 fcos
  00021	d8 4c 24 0c	 fmul	 DWORD PTR _fVelocity$[esp-4]
  00025	d9 e0		 fchs
  00027	d9 58 08	 fstp	 DWORD PTR [eax+8]

; 284  : }

  0002a	c3		 ret	 0
?VelocityToVec@@YA?AUD3DXVECTOR3@@MM@Z ENDP		; VelocityToVec
_TEXT	ENDS
PUBLIC	__real@0000000000000000
PUBLIC	__real@00000000
PUBLIC	__real@42652ee0
PUBLIC	__real@43b40000
PUBLIC	?GetDegree@@YAMABUD3DXVECTOR3@@0@Z		; GetDegree
EXTRN	_D3DXVec3Normalize@8:NEAR
;	COMDAT __real@0000000000000000
; File c:\program files\microsoft visual studio .net 2003\vc7\include\math.h
CONST	SEGMENT
__real@0000000000000000 DQ 00000000000000000r	; 0
CONST	ENDS
;	COMDAT __real@42652ee0
CONST	SEGMENT
__real@42652ee0 DD 042652ee0r			; 57.2958
CONST	ENDS
;	COMDAT __real@00000000
CONST	SEGMENT
__real@00000000 DD 000000000r			; 0
CONST	ENDS
;	COMDAT __real@43b40000
CONST	SEGMENT
__real@43b40000 DD 043b40000r			; 360
; Function compile flags: /Ogty
; File c:\documents and settings\test\mes documents\source\virtuos_v17\build\program\_common\obj.h
CONST	ENDS
;	COMDAT ?GetDegree@@YAMABUD3DXVECTOR3@@0@Z
_TEXT	SEGMENT
_vDir2$ = -24						; size = 12
_vDir1$ = -12						; size = 12
_vDestPos$ = 8						; size = 4
_vSrcPos$ = 12						; size = 4
?GetDegree@@YAMABUD3DXVECTOR3@@0@Z PROC NEAR		; GetDegree, COMDAT

; 289  : {

  00000	83 ec 18	 sub	 esp, 24			; 00000018H

; 290  : 	D3DXVECTOR3 vDir1 = VelocityToVec( 0.0f, 1.0f );

  00003	dd 05 00 00 00
	00		 fld	 QWORD PTR __real@0000000000000000

; 291  : 	D3DXVECTOR3 vDir2 = vDestPos - vSrcPos;

  00009	8b 44 24 1c	 mov	 eax, DWORD PTR _vDestPos$[esp+20]
  0000d	d9 fe		 fsin
  0000f	8b 4c 24 20	 mov	 ecx, DWORD PTR _vSrcPos$[esp+20]
  00013	c7 44 24 10 00
	00 00 00	 mov	 DWORD PTR _vDir1$[esp+28], 0

; 292  : 	vDir2.y = 0.0f;

  0001b	c7 44 24 04 00
	00 00 00	 mov	 DWORD PTR _vDir2$[esp+28], 0
  00023	d9 5c 24 0c	 fstp	 DWORD PTR _vDir1$[esp+24]
  00027	dd 05 00 00 00
	00		 fld	 QWORD PTR __real@0000000000000000
  0002d	d9 ff		 fcos
  0002f	d9 e0		 fchs
  00031	d9 5c 24 14	 fstp	 DWORD PTR _vDir1$[esp+32]
  00035	d9 00		 fld	 DWORD PTR [eax]
  00037	d8 21		 fsub	 DWORD PTR [ecx]
  00039	d9 1c 24	 fstp	 DWORD PTR _vDir2$[esp+24]
  0003c	d9 40 08	 fld	 DWORD PTR [eax+8]

; 293  : 
; 294  : 	D3DXVec3Normalize( &vDir1, &vDir1 );

  0003f	8d 44 24 0c	 lea	 eax, DWORD PTR _vDir1$[esp+24]
  00043	d8 61 08	 fsub	 DWORD PTR [ecx+8]
  00046	50		 push	 eax
  00047	8b c8		 mov	 ecx, eax
  00049	51		 push	 ecx
  0004a	d9 5c 24 10	 fstp	 DWORD PTR _vDir2$[esp+40]
  0004e	e8 00 00 00 00	 call	 _D3DXVec3Normalize@8

; 295  : 	D3DXVec3Normalize( &vDir2, &vDir2 );

  00053	8d 14 24	 lea	 edx, DWORD PTR _vDir2$[esp+24]
  00056	52		 push	 edx
  00057	8b c2		 mov	 eax, edx
  00059	50		 push	 eax
  0005a	e8 00 00 00 00	 call	 _D3DXVec3Normalize@8

; 296  : 	FLOAT fDot = D3DXVec3Dot( &vDir1, &vDir2 );

  0005f	d9 44 24 08	 fld	 DWORD PTR _vDir2$[esp+32]
  00063	d8 4c 24 14	 fmul	 DWORD PTR _vDir1$[esp+32]
  00067	d9 44 24 0c	 fld	 DWORD PTR _vDir1$[esp+24]
  0006b	d8 0c 24	 fmul	 DWORD PTR _vDir2$[esp+24]

; 301  : 	else
; 302  : 		fDegree = fDegree;
; 303  : 	return fDegree;

  0006e	de c1		 faddp	 ST(1), ST(0)
  00070	d9 44 24 10	 fld	 DWORD PTR _vDir1$[esp+28]
  00074	d8 4c 24 04	 fmul	 DWORD PTR _vDir2$[esp+28]
  00078	de c1		 faddp	 ST(1), ST(0)
  0007a	e8 00 00 00 00	 call	 __CIacos
  0007f	d8 0d 00 00 00
	00		 fmul	 DWORD PTR __real@42652ee0
  00085	d9 04 24	 fld	 DWORD PTR _vDir2$[esp+24]
  00088	d8 1d 00 00 00
	00		 fcomp	 DWORD PTR __real@00000000
  0008e	df e0		 fnstsw	 ax
  00090	f6 c4 05	 test	 ah, 5
  00093	7a 06		 jp	 SHORT $L176563

; 297  : 	FLOAT fRadian = acosf( fDot );
; 298  : 	FLOAT fDegree = D3DXToDegree( fRadian );
; 299  : 	if( vDir2.x < 0.0f )
; 300  : 		fDegree = 360.0f - fDegree;

  00095	d8 2d 00 00 00
	00		 fsubr	 DWORD PTR __real@43b40000
$L176563:

; 304  : }

  0009b	83 c4 18	 add	 esp, 24			; 00000018H
  0009e	c3		 ret	 0
?GetDegree@@YAMABUD3DXVECTOR3@@0@Z ENDP			; GetDegree
_TEXT	ENDS
PUBLIC	?IsValidObj@@YAHPAVCObj@@@Z			; IsValidObj
; Function compile flags: /Ogty
;	COMDAT ?IsValidObj@@YAHPAVCObj@@@Z
_TEXT	SEGMENT
_pObj$ = 8						; size = 4
?IsValidObj@@YAHPAVCObj@@@Z PROC NEAR			; IsValidObj, COMDAT

; 327  : 	return pObj && ( pObj->IsDelete() == FALSE ); 

  00000	8b 44 24 04	 mov	 eax, DWORD PTR _pObj$[esp-4]
  00004	85 c0		 test	 eax, eax
  00006	74 0c		 je	 SHORT $L275550
  00008	f6 40 04 01	 test	 BYTE PTR [eax+4], 1
  0000c	75 06		 jne	 SHORT $L275550
  0000e	b8 01 00 00 00	 mov	 eax, 1

; 328  : }

  00013	c3		 ret	 0
$L275550:

; 327  : 	return pObj && ( pObj->IsDelete() == FALSE ); 

  00014	33 c0		 xor	 eax, eax

; 328  : }

  00016	c3		 ret	 0
?IsValidObj@@YAHPAVCObj@@@Z ENDP			; IsValidObj
_TEXT	ENDS
PUBLIC	?IsInvalidObj@@YAHPAVCObj@@@Z			; IsInvalidObj
; Function compile flags: /Ogty
;	COMDAT ?IsInvalidObj@@YAHPAVCObj@@@Z
_TEXT	SEGMENT
_pObj$ = 8						; size = 4
?IsInvalidObj@@YAHPAVCObj@@@Z PROC NEAR			; IsInvalidObj, COMDAT

; 332  : 	return !IsValidObj( pObj ); 

  00000	8b 44 24 04	 mov	 eax, DWORD PTR _pObj$[esp-4]
  00004	85 c0		 test	 eax, eax
  00006	74 15		 je	 SHORT $L275565
  00008	f6 40 04 01	 test	 BYTE PTR [eax+4], 1
  0000c	75 0f		 jne	 SHORT $L275565
  0000e	b8 01 00 00 00	 mov	 eax, 1
  00013	33 c9		 xor	 ecx, ecx
  00015	85 c0		 test	 eax, eax
  00017	0f 94 c1	 sete	 cl
  0001a	8b c1		 mov	 eax, ecx

; 333  : }

  0001c	c3		 ret	 0

; 332  : 	return !IsValidObj( pObj ); 

$L275565:
  0001d	33 c0		 xor	 eax, eax
  0001f	33 c9		 xor	 ecx, ecx
  00021	85 c0		 test	 eax, eax
  00023	0f 94 c1	 sete	 cl
  00026	8b c1		 mov	 eax, ecx

; 333  : }

  00028	c3		 ret	 0
?IsInvalidObj@@YAHPAVCObj@@@Z ENDP			; IsInvalidObj
_TEXT	ENDS
PUBLIC	?GetId@CCtrl@@QAEKXZ				; CCtrl::GetId
; Function compile flags: /Ogty
; File c:\documents and settings\test\mes documents\source\virtuos_v17\build\program\_common\ctrl.h
;	COMDAT ?GetId@CCtrl@@QAEKXZ
_TEXT	SEGMENT
?GetId@CCtrl@@QAEKXZ PROC NEAR				; CCtrl::GetId, COMDAT
; _this$ = ecx

; 58   : 	OBJID			GetId()					{ return m_objid;   }

  00000	8b 81 bc 01 00
	00		 mov	 eax, DWORD PTR [ecx+444]
  00006	c3		 ret	 0
?GetId@CCtrl@@QAEKXZ ENDP				; CCtrl::GetId
_TEXT	ENDS
PUBLIC	?GetIAObjLink@CCtrl@@QAEPAVCShip@@XZ		; CCtrl::GetIAObjLink
; Function compile flags: /Ogty
;	COMDAT ?GetIAObjLink@CCtrl@@QAEPAVCShip@@XZ
_TEXT	SEGMENT
?GetIAObjLink@CCtrl@@QAEPAVCShip@@XZ PROC NEAR		; CCtrl::GetIAObjLink, COMDAT
; _this$ = ecx

; 83   : 	CShip*			GetIAObjLink()			{ return m_pIAObjLink; }

  00000	8b 81 c0 01 00
	00		 mov	 eax, DWORD PTR [ecx+448]
  00006	c3		 ret	 0
?GetIAObjLink@CCtrl@@QAEPAVCShip@@XZ ENDP		; CCtrl::GetIAObjLink
_TEXT	ENDS
PUBLIC	?LOG_RANGE@@YAXPBDHHH@Z				; LOG_RANGE
PUBLIC	??_C@_0BM@HMFGHCP@?$CFs?5min?3?$CFd?0?5max?3?$CFd?0?5index?3?$CFd?$AA@ ; `string'
;	COMDAT ??_C@_0BM@HMFGHCP@?$CFs?5min?3?$CFd?0?5max?3?$CFd?0?5index?3?$CFd?$AA@
; File c:\documents and settings\test\mes documents\source\virtuos_v17\build\program\_common\project.h
CONST	SEGMENT
??_C@_0BM@HMFGHCP@?$CFs?5min?3?$CFd?0?5max?3?$CFd?0?5index?3?$CFd?$AA@ DB '%'
	DB	's min:%d, max:%d, index:%d', 00H		; `string'
; Function compile flags: /Ogty
CONST	ENDS
;	COMDAT ?LOG_RANGE@@YAXPBDHHH@Z
_TEXT	SEGMENT
_szMsg$ = 8						; size = 4
_nMin$ = 12						; size = 4
_nMax$ = 16						; size = 4
_nIndex$ = 20						; size = 4
?LOG_RANGE@@YAXPBDHHH@Z PROC NEAR			; LOG_RANGE, COMDAT

; 559  : 	LPCTSTR szErr = Error( _T( "%s min:%d, max:%d, index:%d" ), szMsg, nMin, nMax, nIndex ); 

  00000	8b 44 24 10	 mov	 eax, DWORD PTR _nIndex$[esp-4]
  00004	8b 4c 24 0c	 mov	 ecx, DWORD PTR _nMax$[esp-4]
  00008	8b 54 24 08	 mov	 edx, DWORD PTR _nMin$[esp-4]
  0000c	50		 push	 eax
  0000d	8b 44 24 08	 mov	 eax, DWORD PTR _szMsg$[esp]
  00011	51		 push	 ecx
  00012	52		 push	 edx
  00013	50		 push	 eax
  00014	68 00 00 00 00	 push	 OFFSET FLAT:??_C@_0BM@HMFGHCP@?$CFs?5min?3?$CFd?0?5max?3?$CFd?0?5index?3?$CFd?$AA@
  00019	e8 00 00 00 00	 call	 ?Error@@YAPBDPBDZZ	; Error
  0001e	83 c4 14	 add	 esp, 20			; 00000014H

; 560  : 	ADDERRORMSG( szErr ); 
; 561  : }

  00021	c3		 ret	 0
?LOG_RANGE@@YAXPBDHHH@Z ENDP				; LOG_RANGE
_TEXT	ENDS
PUBLIC	?LOG_CALLSTACK@@YAXXZ				; LOG_CALLSTACK
; Function compile flags: /Ogty
;	COMDAT ?LOG_CALLSTACK@@YAXXZ
_TEXT	SEGMENT
?LOG_CALLSTACK@@YAXXZ PROC NEAR				; LOG_CALLSTACK, COMDAT

; 565  : #ifdef _DEBUG
; 566  : 	__asm int 3
; 567  : #endif
; 568  : 
; 569  : #if defined(__INTERNALSERVER)
; 570  : 	int *p = NULL;		//    
; 571  : 	*p = 1;
; 572  : #endif
; 573  : }

  00000	c3		 ret	 0
?LOG_CALLSTACK@@YAXXZ ENDP				; LOG_CALLSTACK
_TEXT	ENDS
PUBLIC	??_C@_0BJ@GKPOBPPI@GetMoverProp?5range_error?$AA@ ; `string'
PUBLIC	?GetMoverProp@CProject@@QAEPAUMoverProp@@H@Z	; CProject::GetMoverProp
;	COMDAT ??_C@_0BJ@GKPOBPPI@GetMoverProp?5range_error?$AA@
CONST	SEGMENT
??_C@_0BJ@GKPOBPPI@GetMoverProp?5range_error?$AA@ DB 'GetMoverProp range_'
	DB	'error', 00H					; `string'
; Function compile flags: /Ogty
CONST	ENDS
;	COMDAT ?GetMoverProp@CProject@@QAEPAUMoverProp@@H@Z
_TEXT	SEGMENT
_nIndex$ = 8						; size = 4
?GetMoverProp@CProject@@QAEPAUMoverProp@@H@Z PROC NEAR	; CProject::GetMoverProp, COMDAT
; _this$ = ecx

; 1381 : 	VERIFY_RANGE( nIndex, 0, m_nMoverPropSize, "GetMoverProp range_error", NULL );

  00000	8b 44 24 04	 mov	 eax, DWORD PTR _nIndex$[esp-4]
  00004	85 c0		 test	 eax, eax
  00006	7c 19		 jl	 SHORT $L197938
  00008	3b 81 d0 01 00
	00		 cmp	 eax, DWORD PTR [ecx+464]
  0000e	7d 11		 jge	 SHORT $L197938

; 1382 : 	return m_pPropMover + nIndex;

  00010	8b 91 d4 01 00
	00		 mov	 edx, DWORD PTR [ecx+468]
  00016	69 c0 d8 06 00
	00		 imul	 eax, 1752		; 000006d8H
  0001c	03 c2		 add	 eax, edx

; 1383 : }

  0001e	c2 04 00	 ret	 4
$L197938:

; 1381 : 	VERIFY_RANGE( nIndex, 0, m_nMoverPropSize, "GetMoverProp range_error", NULL );

  00021	50		 push	 eax
  00022	8b 81 d0 01 00
	00		 mov	 eax, DWORD PTR [ecx+464]
  00028	50		 push	 eax
  00029	6a 00		 push	 0
  0002b	68 00 00 00 00	 push	 OFFSET FLAT:??_C@_0BJ@GKPOBPPI@GetMoverProp?5range_error?$AA@
  00030	68 00 00 00 00	 push	 OFFSET FLAT:??_C@_0BM@HMFGHCP@?$CFs?5min?3?$CFd?0?5max?3?$CFd?0?5index?3?$CFd?$AA@
  00035	e8 00 00 00 00	 call	 ?Error@@YAPBDPBDZZ	; Error
  0003a	83 c4 14	 add	 esp, 20			; 00000014H
  0003d	33 c0		 xor	 eax, eax

; 1383 : }

  0003f	c2 04 00	 ret	 4
?GetMoverProp@CProject@@QAEPAUMoverProp@@H@Z ENDP	; CProject::GetMoverProp
_TEXT	ENDS
PUBLIC	?UpdateMatrixBone@CModelObject@@QAEXXZ		; CModelObject::UpdateMatrixBone
EXTRN	?AnimateBone@CMotion@@QAEXPAUD3DXMATRIX@@PAV1@MHHHM@Z:NEAR ; CMotion::AnimateBone
EXTRN	?GetNextFrame@CModel@@QAEHXZ:NEAR		; CModel::GetNextFrame
; Function compile flags: /Ogty
; File c:\documents and settings\test\mes documents\source\virtuos_v17\build\program\_common\modelobject.h
;	COMDAT ?UpdateMatrixBone@CModelObject@@QAEXXZ
_TEXT	SEGMENT
?UpdateMatrixBone@CModelObject@@QAEXXZ PROC NEAR	; CModelObject::UpdateMatrixBone, COMDAT
; _this$ = ecx

; 310  : 	{

  00000	56		 push	 esi
  00001	8b f1		 mov	 esi, ecx

; 311  : 		if( m_pMotion )		//      .

  00003	8b 86 8c 2a 00
	00		 mov	 eax, DWORD PTR [esi+10892]
  00009	85 c0		 test	 eax, eax
  0000b	74 3d		 je	 SHORT $L201472

; 312  : 			m_pMotion->AnimateBone( m_mUpdateBone, m_pMotionOld, m_fFrameCurrent, GetNextFrame(), m_nFrameOld, m_bMotionBlending, m_fBlendWeight );	

  0000d	8b 86 c4 00 00
	00		 mov	 eax, DWORD PTR [esi+196]
  00013	8b 8e c0 00 00
	00		 mov	 ecx, DWORD PTR [esi+192]
  00019	8b 96 98 2a 00
	00		 mov	 edx, DWORD PTR [esi+10904]
  0001f	50		 push	 eax
  00020	51		 push	 ecx
  00021	52		 push	 edx
  00022	8b ce		 mov	 ecx, esi
  00024	e8 00 00 00 00	 call	 ?GetNextFrame@CModel@@QAEHXZ ; CModel::GetNextFrame
  00029	8b 8e 88 2a 00
	00		 mov	 ecx, DWORD PTR [esi+10888]
  0002f	8b 96 9c 2a 00
	00		 mov	 edx, DWORD PTR [esi+10908]
  00035	50		 push	 eax
  00036	8b 86 a0 00 00
	00		 mov	 eax, DWORD PTR [esi+160]
  0003c	50		 push	 eax
  0003d	51		 push	 ecx
  0003e	8b 8e 8c 2a 00
	00		 mov	 ecx, DWORD PTR [esi+10892]
  00044	52		 push	 edx
  00045	e8 00 00 00 00	 call	 ?AnimateBone@CMotion@@QAEXPAUD3DXMATRIX@@PAV1@MHHHM@Z ; CMotion::AnimateBone
$L201472:
  0004a	5e		 pop	 esi

; 313  : 	}

  0004b	c3		 ret	 0
?UpdateMatrixBone@CModelObject@@QAEXXZ ENDP		; CModelObject::UpdateMatrixBone
_TEXT	ENDS
PUBLIC	?GetEventPos@CModelObject@@QAEXPAUD3DXVECTOR3@@H@Z ; CModelObject::GetEventPos
EXTRN	_D3DXVec3TransformCoord@12:NEAR
; Function compile flags: /Ogty
;	COMDAT ?GetEventPos@CModelObject@@QAEXPAUD3DXVECTOR3@@H@Z
_TEXT	SEGMENT
_pOut$ = 8						; size = 4
_nIdx$ = 12						; size = 4
?GetEventPos@CModelObject@@QAEXPAUD3DXVECTOR3@@H@Z PROC NEAR ; CModelObject::GetEventPos, COMDAT
; _this$ = ecx

; 316  : 		if( m_pBone == NULL )	return;

  00000	8b 81 84 2a 00
	00		 mov	 eax, DWORD PTR [ecx+10884]
  00006	85 c0		 test	 eax, eax
  00008	74 32		 je	 SHORT $L201474

; 317  : 		if( m_mUpdateBone == NULL )	return;

  0000a	8b 91 9c 2a 00
	00		 mov	 edx, DWORD PTR [ecx+10908]
  00010	85 d2		 test	 edx, edx
  00012	74 28		 je	 SHORT $L201474

; 318  : 		D3DXVec3TransformCoord( pOut, &m_pBone->m_vEvent[nIdx], &m_mUpdateBone[ m_pBone->m_nEventParentIdx[nIdx] ] );

  00014	8b 4c 24 08	 mov	 ecx, DWORD PTR _nIdx$[esp-4]
  00018	56		 push	 esi
  00019	8b b4 88 c0 01
	00 00		 mov	 esi, DWORD PTR [eax+ecx*4+448]
  00020	c1 e6 06	 shl	 esi, 6
  00023	03 f2		 add	 esi, edx
  00025	8d 0c 49	 lea	 ecx, DWORD PTR [ecx+ecx*2]
  00028	56		 push	 esi
  00029	8d 94 88 60 01
	00 00		 lea	 edx, DWORD PTR [eax+ecx*4+352]
  00030	8b 44 24 0c	 mov	 eax, DWORD PTR _pOut$[esp+4]
  00034	52		 push	 edx
  00035	50		 push	 eax
  00036	e8 00 00 00 00	 call	 _D3DXVec3TransformCoord@12
  0003b	5e		 pop	 esi
$L201474:

; 319  : 		//   pOut   m_mWorld  .
; 320  : 		// vFinal = pOut * m_mWorld;
; 321  : 	}

  0003c	c2 08 00	 ret	 8
?GetEventPos@CModelObject@@QAEXPAUD3DXVECTOR3@@H@Z ENDP	; CModelObject::GetEventPos
_TEXT	ENDS
PUBLIC	?GetMatrixBone@CModelObject@@QAEPAUD3DXMATRIX@@H@Z ; CModelObject::GetMatrixBone
; Function compile flags: /Ogty
;	COMDAT ?GetMatrixBone@CModelObject@@QAEPAUD3DXMATRIX@@H@Z
_TEXT	SEGMENT
_nBoneIdx$ = 8						; size = 4
?GetMatrixBone@CModelObject@@QAEPAUD3DXMATRIX@@H@Z PROC NEAR ; CModelObject::GetMatrixBone, COMDAT
; _this$ = ecx

; 324  : 		if( m_pBone == NULL )	return NULL;

  00000	8b 81 84 2a 00
	00		 mov	 eax, DWORD PTR [ecx+10884]
  00006	85 c0		 test	 eax, eax
  00008	74 0a		 je	 SHORT $L275599

; 325  : 		if( m_mUpdateBone == NULL )	return NULL;

  0000a	8b 89 9c 2a 00
	00		 mov	 ecx, DWORD PTR [ecx+10908]
  00010	85 c9		 test	 ecx, ecx
  00012	75 05		 jne	 SHORT $L201480
$L275599:
  00014	33 c0		 xor	 eax, eax

; 327  : 	}

  00016	c2 04 00	 ret	 4
$L201480:

; 326  : 		return &m_mUpdateBone[ nBoneIdx ];

  00019	8b 44 24 04	 mov	 eax, DWORD PTR _nBoneIdx$[esp-4]
  0001d	c1 e0 06	 shl	 eax, 6
  00020	03 c1		 add	 eax, ecx

; 327  : 	}

  00022	c2 04 00	 ret	 4
?GetMatrixBone@CModelObject@@QAEPAUD3DXMATRIX@@H@Z ENDP	; CModelObject::GetMatrixBone
_TEXT	ENDS
PUBLIC	?IsEmpty@CItemBase@@QAEHXZ			; CItemBase::IsEmpty
; Function compile flags: /Ogty
; File c:\documents and settings\test\mes documents\source\virtuos_v17\build\program\_common\item.h
;	COMDAT ?IsEmpty@CItemBase@@QAEHXZ
_TEXT	SEGMENT
?IsEmpty@CItemBase@@QAEHXZ PROC NEAR			; CItemBase::IsEmpty, COMDAT
; _this$ = ecx

; 48   : 	BOOL			IsEmpty() { return m_dwItemId ? FALSE : TRUE; }

  00000	8b 51 0c	 mov	 edx, DWORD PTR [ecx+12]
  00003	33 c0		 xor	 eax, eax
  00005	85 d2		 test	 edx, edx
  00007	0f 94 c0	 sete	 al
  0000a	c3		 ret	 0
?IsEmpty@CItemBase@@QAEHXZ ENDP				; CItemBase::IsEmpty
_TEXT	ENDS
PUBLIC	?GetStateFlag@CAction@@QAEKXZ			; CAction::GetStateFlag
; Function compile flags: /Ogty
; File c:\documents and settings\test\mes documents\source\virtuos_v17\build\program\_aiinterface\action.h
;	COMDAT ?GetStateFlag@CAction@@QAEKXZ
_TEXT	SEGMENT
?GetStateFlag@CAction@@QAEKXZ PROC NEAR			; CAction::GetStateFlag, COMDAT
; _this$ = ecx

; 288  : 	DWORD			GetStateFlag() { return m_dwStateFlag; }

  00000	8b 41 08	 mov	 eax, DWORD PTR [ecx+8]
  00003	c3		 ret	 0
?GetStateFlag@CAction@@QAEKXZ ENDP			; CAction::GetStateFlag
_TEXT	ENDS
PUBLIC	?GetState@CAction@@QAEKXZ			; CAction::GetState
; Function compile flags: /Ogty
;	COMDAT ?GetState@CAction@@QAEKXZ
_TEXT	SEGMENT
?GetState@CAction@@QAEKXZ PROC NEAR			; CAction::GetState, COMDAT
; _this$ = ecx

; 291  : 	DWORD			GetState() { return m_dwState; }

  00000	8b 41 04	 mov	 eax, DWORD PTR [ecx+4]
  00003	c3		 ret	 0
?GetState@CAction@@QAEKXZ ENDP				; CAction::GetState
_TEXT	ENDS
PUBLIC	?GetDmgState@CAction@@QAEKXZ			; CAction::GetDmgState
; Function compile flags: /Ogty
;	COMDAT ?GetDmgState@CAction@@QAEKXZ
_TEXT	SEGMENT
?GetDmgState@CAction@@QAEKXZ PROC NEAR			; CAction::GetDmgState, COMDAT
; _this$ = ecx

; 304  : 	DWORD			GetDmgState() { return m_dwState & OBJSTA_DMG_ALL; }

  00000	8b 41 04	 mov	 eax, DWORD PTR [ecx+4]
  00003	25 00 00 00 0f	 and	 eax, 251658240		; 0f000000H
  00008	c3		 ret	 0
?GetDmgState@CAction@@QAEKXZ ENDP			; CAction::GetDmgState
_TEXT	ENDS
PUBLIC	?IsFly@CAction@@QAEHXZ				; CAction::IsFly
; Function compile flags: /Ogty
;	COMDAT ?IsFly@CAction@@QAEHXZ
_TEXT	SEGMENT
?IsFly@CAction@@QAEHXZ PROC NEAR			; CAction::IsFly, COMDAT
; _this$ = ecx

; 309  : 	BOOL			IsFly() { return (m_dwStateFlag & OBJSTAF_FLY) ? TRUE : FALSE; }

  00000	8b 41 08	 mov	 eax, DWORD PTR [ecx+8]
  00003	c1 e8 03	 shr	 eax, 3
  00006	83 e0 01	 and	 eax, 1
  00009	c3		 ret	 0
?IsFly@CAction@@QAEHXZ ENDP				; CAction::IsFly
_TEXT	ENDS
PUBLIC	?IsDie@CAction@@QAEHXZ				; CAction::IsDie
; Function compile flags: /Ogty
;	COMDAT ?IsDie@CAction@@QAEHXZ
_TEXT	SEGMENT
?IsDie@CAction@@QAEHXZ PROC NEAR			; CAction::IsDie, COMDAT
; _this$ = ecx

; 310  : 	BOOL			IsDie() { return (m_dwState & OBJSTA_DIE_ALL) ? TRUE : FALSE; }

  00000	8b 41 04	 mov	 eax, DWORD PTR [ecx+4]
  00003	c1 e8 1b	 shr	 eax, 27			; 0000001bH
  00006	83 e0 01	 and	 eax, 1
  00009	c3		 ret	 0
?IsDie@CAction@@QAEHXZ ENDP				; CAction::IsDie
_TEXT	ENDS
PUBLIC	?SendDamage@CActionMover@@QAEHKKHHH@Z		; CActionMover::SendDamage
; Function compile flags: /Ogty
; File c:\documents and settings\test\mes documents\source\virtuos_v17\build\program\_aiinterface\actionmover.h
;	COMDAT ?SendDamage@CActionMover@@QAEHKKHHH@Z
_TEXT	SEGMENT
_dwAtkFlags$ = 8					; size = 4
_idSender$ = 12						; size = 4
_nParam$ = 16						; size = 4
_bTarget$ = 20						; size = 4
_nReflect$ = 24						; size = 4
?SendDamage@CActionMover@@QAEHKKHHH@Z PROC NEAR		; CActionMover::SendDamage, COMDAT
; _this$ = ecx

; 134  : 	int				SendDamage( DWORD dwAtkFlags, OBJID idSender, int nParam = 0, BOOL bTarget = TRUE, int nReflect = 0 )	{	return SendActMsg( OBJMSG_DAMAGE, dwAtkFlags, idSender, nParam, bTarget, nReflect );	}

  00000	8b 54 24 14	 mov	 edx, DWORD PTR _nReflect$[esp-4]
  00004	8b 01		 mov	 eax, DWORD PTR [ecx]
  00006	52		 push	 edx
  00007	8b 54 24 14	 mov	 edx, DWORD PTR _bTarget$[esp]
  0000b	52		 push	 edx
  0000c	8b 54 24 14	 mov	 edx, DWORD PTR _nParam$[esp+4]
  00010	52		 push	 edx
  00011	8b 54 24 14	 mov	 edx, DWORD PTR _idSender$[esp+8]
  00015	52		 push	 edx
  00016	8b 54 24 14	 mov	 edx, DWORD PTR _dwAtkFlags$[esp+12]
  0001a	52		 push	 edx
  0001b	6a 29		 push	 41			; 00000029H
  0001d	ff 50 04	 call	 DWORD PTR [eax+4]
  00020	c2 14 00	 ret	 20			; 00000014H
?SendDamage@CActionMover@@QAEHKKHHH@Z ENDP		; CActionMover::SendDamage
_TEXT	ENDS
PUBLIC	?GetSpeedFactor@CMover@@QAEMXZ			; CMover::GetSpeedFactor
; Function compile flags: /Ogty
; File c:\documents and settings\test\mes documents\source\virtuos_v17\build\program\_common\mover.h
;	COMDAT ?GetSpeedFactor@CMover@@QAEMXZ
_TEXT	SEGMENT
?GetSpeedFactor@CMover@@QAEMXZ PROC NEAR		; CMover::GetSpeedFactor, COMDAT
; _this$ = ecx

; 628  : 	FLOAT	GetSpeedFactor( void )	{	return m_fSpeedFactor;	}

  00000	d9 81 10 07 00
	00		 fld	 DWORD PTR [ecx+1808]
  00006	c3		 ret	 0
?GetSpeedFactor@CMover@@QAEMXZ ENDP			; CMover::GetSpeedFactor
_TEXT	ENDS
PUBLIC	?IsActiveMover@CMover@@QAEHXZ			; CMover::IsActiveMover
EXTRN	?m_pObjActive@CObj@@2PAV1@A:DWORD		; CObj::m_pObjActive
; Function compile flags: /Ogty
;	COMDAT ?IsActiveMover@CMover@@QAEHXZ
_TEXT	SEGMENT
?IsActiveMover@CMover@@QAEHXZ PROC NEAR			; CMover::IsActiveMover, COMDAT
; _this$ = ecx

; 1022 : 	BOOL			IsActiveMover() { return m_pObjActive == this; }	//   ?

  00000	8b 15 00 00 00
	00		 mov	 edx, DWORD PTR ?m_pObjActive@CObj@@2PAV1@A ; CObj::m_pObjActive
  00006	33 c0		 xor	 eax, eax
  00008	3b d1		 cmp	 edx, ecx
  0000a	0f 94 c0	 sete	 al
  0000d	c3		 ret	 0
?IsActiveMover@CMover@@QAEHXZ ENDP			; CMover::IsActiveMover
_TEXT	ENDS
PUBLIC	?IsNPC@CMover@@QAEHXZ				; CMover::IsNPC
; Function compile flags: /Ogty
;	COMDAT ?IsNPC@CMover@@QAEHXZ
_TEXT	SEGMENT
?IsNPC@CMover@@QAEHXZ PROC NEAR				; CMover::IsNPC, COMDAT
; _this$ = ecx

; 1041 : 	BOOL			IsNPC()				{ return !m_bPlayer; }

  00000	8b 91 34 02 00
	00		 mov	 edx, DWORD PTR [ecx+564]
  00006	33 c0		 xor	 eax, eax
  00008	85 d2		 test	 edx, edx
  0000a	0f 94 c0	 sete	 al
  0000d	c3		 ret	 0
?IsNPC@CMover@@QAEHXZ ENDP				; CMover::IsNPC
_TEXT	ENDS
PUBLIC	?IsPlayer@CMover@@QAEHXZ			; CMover::IsPlayer
; Function compile flags: /Ogty
;	COMDAT ?IsPlayer@CMover@@QAEHXZ
_TEXT	SEGMENT
?IsPlayer@CMover@@QAEHXZ PROC NEAR			; CMover::IsPlayer, COMDAT
; _this$ = ecx

; 1042 : 	BOOL			IsPlayer()			{ return m_bPlayer; }

  00000	8b 81 34 02 00
	00		 mov	 eax, DWORD PTR [ecx+564]
  00006	c3		 ret	 0
?IsPlayer@CMover@@QAEHXZ ENDP				; CMover::IsPlayer
_TEXT	ENDS
PUBLIC	?GetPropA@CMover@@QAEPAUMoverProp@@XZ		; CMover::GetPropA
EXTRN	?prj@@3VCProject@@A:BYTE			; prj
; Function compile flags: /Ogty
;	COMDAT ?GetPropA@CMover@@QAEPAUMoverProp@@XZ
_TEXT	SEGMENT
?GetPropA@CMover@@QAEPAUMoverProp@@XZ PROC NEAR		; CMover::GetPropA, COMDAT
; _this$ = ecx

; 1046 : 	MoverProp*		GetProp() { return prj.GetMoverProp( m_dwIndex ); }	//    	

  00000	8b 81 74 01 00
	00		 mov	 eax, DWORD PTR [ecx+372]
  00006	85 c0		 test	 eax, eax
  00008	8b 0d d0 01 00
	00		 mov	 ecx, DWORD PTR ?prj@@3VCProject@@A+464
  0000e	7c 13		 jl	 SHORT $L275651
  00010	3b c1		 cmp	 eax, ecx
  00012	7d 0f		 jge	 SHORT $L275651
  00014	8b 0d d4 01 00
	00		 mov	 ecx, DWORD PTR ?prj@@3VCProject@@A+468
  0001a	69 c0 d8 06 00
	00		 imul	 eax, 1752		; 000006d8H
  00020	03 c1		 add	 eax, ecx
  00022	c3		 ret	 0
$L275651:
  00023	50		 push	 eax
  00024	51		 push	 ecx
  00025	6a 00		 push	 0
  00027	68 00 00 00 00	 push	 OFFSET FLAT:??_C@_0BJ@GKPOBPPI@GetMoverProp?5range_error?$AA@
  0002c	68 00 00 00 00	 push	 OFFSET FLAT:??_C@_0BM@HMFGHCP@?$CFs?5min?3?$CFd?0?5max?3?$CFd?0?5index?3?$CFd?$AA@
  00031	e8 00 00 00 00	 call	 ?Error@@YAPBDPBDZZ	; Error
  00036	83 c4 14	 add	 esp, 20			; 00000014H
  00039	33 c0		 xor	 eax, eax
  0003b	c3		 ret	 0
?GetPropA@CMover@@QAEPAUMoverProp@@XZ ENDP		; CMover::GetPropA
_TEXT	ENDS
PUBLIC	?GetDestPos@CMover@@QAE?AUD3DXVECTOR3@@XZ	; CMover::GetDestPos
; Function compile flags: /Ogty
;	COMDAT ?GetDestPos@CMover@@QAE?AUD3DXVECTOR3@@XZ
_TEXT	SEGMENT
___$ReturnUdt$ = 8					; size = 4
?GetDestPos@CMover@@QAE?AUD3DXVECTOR3@@XZ PROC NEAR	; CMover::GetDestPos, COMDAT
; _this$ = ecx

; 1052 : 	D3DXVECTOR3		GetDestPos()		{ return m_vDestPos; }

  00000	8b 44 24 04	 mov	 eax, DWORD PTR ___$ReturnUdt$[esp-4]
  00004	81 c1 60 02 00
	00		 add	 ecx, 608		; 00000260H
  0000a	56		 push	 esi
  0000b	8b 31		 mov	 esi, DWORD PTR [ecx]
  0000d	8b d0		 mov	 edx, eax
  0000f	89 32		 mov	 DWORD PTR [edx], esi
  00011	8b 71 04	 mov	 esi, DWORD PTR [ecx+4]
  00014	89 72 04	 mov	 DWORD PTR [edx+4], esi
  00017	8b 49 08	 mov	 ecx, DWORD PTR [ecx+8]
  0001a	89 4a 08	 mov	 DWORD PTR [edx+8], ecx
  0001d	5e		 pop	 esi
  0001e	c2 04 00	 ret	 4
?GetDestPos@CMover@@QAE?AUD3DXVECTOR3@@XZ ENDP		; CMover::GetDestPos
_TEXT	ENDS
PUBLIC	?ClearDestObj@CMover@@QAEXXZ			; CMover::ClearDestObj
; Function compile flags: /Ogty
;	COMDAT ?ClearDestObj@CMover@@QAEXXZ
_TEXT	SEGMENT
?ClearDestObj@CMover@@QAEXXZ PROC NEAR			; CMover::ClearDestObj, COMDAT
; _this$ = ecx

; 1056 : 	void			ClearDestObj()     	{ m_idDest = NULL_ID; m_fArrivalRange = 0.0f; }

  00000	c7 81 5c 02 00
	00 ff ff ff ff	 mov	 DWORD PTR [ecx+604], -1
  0000a	c7 81 58 02 00
	00 00 00 00 00	 mov	 DWORD PTR [ecx+600], 0
  00014	c3		 ret	 0
?ClearDestObj@CMover@@QAEXXZ ENDP			; CMover::ClearDestObj
_TEXT	ENDS
PUBLIC	?ClearDestPos@CMover@@QAEXXZ			; CMover::ClearDestPos
; Function compile flags: /Ogty
;	COMDAT ?ClearDestPos@CMover@@QAEXXZ
_TEXT	SEGMENT
$T275663 = -12						; size = 12
?ClearDestPos@CMover@@QAEXXZ PROC NEAR			; CMover::ClearDestPos, COMDAT
; _this$ = ecx

; 1057 : 	void			ClearDestPos()		{ m_vDestPos = D3DXVECTOR3( 0.0f, 0.0f, 0.0f ); }		

  00000	83 ec 0c	 sub	 esp, 12			; 0000000cH
  00003	c7 04 24 00 00
	00 00		 mov	 DWORD PTR $T275663[esp+12], 0
  0000a	8b 04 24	 mov	 eax, DWORD PTR $T275663[esp+12]
  0000d	81 c1 60 02 00
	00		 add	 ecx, 608		; 00000260H
  00013	89 01		 mov	 DWORD PTR [ecx], eax
  00015	c7 44 24 04 00
	00 00 00	 mov	 DWORD PTR $T275663[esp+16], 0
  0001d	8b 54 24 04	 mov	 edx, DWORD PTR $T275663[esp+16]
  00021	c7 44 24 08 00
	00 00 00	 mov	 DWORD PTR $T275663[esp+20], 0
  00029	8b 44 24 08	 mov	 eax, DWORD PTR $T275663[esp+20]
  0002d	89 51 04	 mov	 DWORD PTR [ecx+4], edx
  00030	89 41 08	 mov	 DWORD PTR [ecx+8], eax
  00033	83 c4 0c	 add	 esp, 12			; 0000000cH
  00036	c3		 ret	 0
?ClearDestPos@CMover@@QAEXXZ ENDP			; CMover::ClearDestPos
_TEXT	ENDS
PUBLIC	?ClearDest@CMover@@QAEXXZ			; CMover::ClearDest
; Function compile flags: /Ogty
;	COMDAT ?ClearDest@CMover@@QAEXXZ
_TEXT	SEGMENT
$T275679 = -12						; size = 12
?ClearDest@CMover@@QAEXXZ PROC NEAR			; CMover::ClearDest, COMDAT
; _this$ = ecx

; 1058 : 	void			ClearDest()			{ ClearDestObj(); ClearDestPos(); }

  00000	83 ec 0c	 sub	 esp, 12			; 0000000cH
  00003	c7 81 5c 02 00
	00 ff ff ff ff	 mov	 DWORD PTR [ecx+604], -1
  0000d	c7 81 58 02 00
	00 00 00 00 00	 mov	 DWORD PTR [ecx+600], 0
  00017	c7 04 24 00 00
	00 00		 mov	 DWORD PTR $T275679[esp+12], 0
  0001e	8b 04 24	 mov	 eax, DWORD PTR $T275679[esp+12]
  00021	81 c1 60 02 00
	00		 add	 ecx, 608		; 00000260H
  00027	89 01		 mov	 DWORD PTR [ecx], eax
  00029	c7 44 24 04 00
	00 00 00	 mov	 DWORD PTR $T275679[esp+16], 0
  00031	8b 54 24 04	 mov	 edx, DWORD PTR $T275679[esp+16]
  00035	c7 44 24 08 00
	00 00 00	 mov	 DWORD PTR $T275679[esp+20], 0
  0003d	8b 44 24 08	 mov	 eax, DWORD PTR $T275679[esp+20]
  00041	89 51 04	 mov	 DWORD PTR [ecx+4], edx
  00044	89 41 08	 mov	 DWORD PTR [ecx+8], eax
  00047	83 c4 0c	 add	 esp, 12			; 0000000cH
  0004a	c3		 ret	 0
?ClearDest@CMover@@QAEXXZ ENDP				; CMover::ClearDest
_TEXT	ENDS
PUBLIC	?IsEmptyDestObj@CMover@@QAEHXZ			; CMover::IsEmptyDestObj
; Function compile flags: /Ogty
;	COMDAT ?IsEmptyDestObj@CMover@@QAEHXZ
_TEXT	SEGMENT
?IsEmptyDestObj@CMover@@QAEHXZ PROC NEAR		; CMover::IsEmptyDestObj, COMDAT
; _this$ = ecx

; 1061 : 	BOOL			IsEmptyDestObj()	{ return m_idDest == NULL_ID; }

  00000	8b 91 5c 02 00
	00		 mov	 edx, DWORD PTR [ecx+604]
  00006	33 c0		 xor	 eax, eax
  00008	83 fa ff	 cmp	 edx, -1
  0000b	0f 94 c0	 sete	 al
  0000e	c3		 ret	 0
?IsEmptyDestObj@CMover@@QAEHXZ ENDP			; CMover::IsEmptyDestObj
_TEXT	ENDS
PUBLIC	?IsEmptyDestPos@CMover@@QAEHXZ			; CMover::IsEmptyDestPos
; Function compile flags: /Ogty
;	COMDAT ?IsEmptyDestPos@CMover@@QAEHXZ
_TEXT	SEGMENT
?IsEmptyDestPos@CMover@@QAEHXZ PROC NEAR		; CMover::IsEmptyDestPos, COMDAT
; _this$ = ecx

; 1062 : 	BOOL			IsEmptyDestPos()	{ return m_vDestPos.x == 0.0f && m_vDestPos.z == 0.0f; }

  00000	d9 05 00 00 00
	00		 fld	 DWORD PTR __real@00000000
  00006	d9 81 60 02 00
	00		 fld	 DWORD PTR [ecx+608]
  0000c	da e9		 fucompp
  0000e	df e0		 fnstsw	 ax
  00010	f6 c4 44	 test	 ah, 68			; 00000044H
  00013	7a 1b		 jp	 SHORT $L275689
  00015	d9 05 00 00 00
	00		 fld	 DWORD PTR __real@00000000
  0001b	d9 81 68 02 00
	00		 fld	 DWORD PTR [ecx+616]
  00021	da e9		 fucompp
  00023	df e0		 fnstsw	 ax
  00025	f6 c4 44	 test	 ah, 68			; 00000044H
  00028	7a 06		 jp	 SHORT $L275689
  0002a	b8 01 00 00 00	 mov	 eax, 1
  0002f	c3		 ret	 0
$L275689:
  00030	33 c0		 xor	 eax, eax
  00032	c3		 ret	 0
?IsEmptyDestPos@CMover@@QAEHXZ ENDP			; CMover::IsEmptyDestPos
_TEXT	ENDS
PUBLIC	?IsEmptyDest@CMover@@QAEHXZ			; CMover::IsEmptyDest
; Function compile flags: /Ogty
;	COMDAT ?IsEmptyDest@CMover@@QAEHXZ
_TEXT	SEGMENT
?IsEmptyDest@CMover@@QAEHXZ PROC NEAR			; CMover::IsEmptyDest, COMDAT
; _this$ = ecx

; 1063 : 	BOOL			IsEmptyDest()		{ return IsEmptyDestPos() && IsEmptyDestObj(); }

  00000	d9 05 00 00 00
	00		 fld	 DWORD PTR __real@00000000
  00006	d9 81 60 02 00
	00		 fld	 DWORD PTR [ecx+608]
  0000c	da e9		 fucompp
  0000e	df e0		 fnstsw	 ax
  00010	f6 c4 44	 test	 ah, 68			; 00000044H
  00013	7a 24		 jp	 SHORT $L275694
  00015	d9 05 00 00 00
	00		 fld	 DWORD PTR __real@00000000
  0001b	d9 81 68 02 00
	00		 fld	 DWORD PTR [ecx+616]
  00021	da e9		 fucompp
  00023	df e0		 fnstsw	 ax
  00025	f6 c4 44	 test	 ah, 68			; 00000044H
  00028	7a 0f		 jp	 SHORT $L275694
  0002a	83 b9 5c 02 00
	00 ff		 cmp	 DWORD PTR [ecx+604], -1
  00031	75 06		 jne	 SHORT $L275694
  00033	b8 01 00 00 00	 mov	 eax, 1
  00038	c3		 ret	 0
$L275694:
  00039	33 c0		 xor	 eax, eax
  0003b	c3		 ret	 0
?IsEmptyDest@CMover@@QAEHXZ ENDP			; CMover::IsEmptyDest
_TEXT	ENDS
PUBLIC	?IsDie@CMover@@QAEHXZ				; CMover::IsDie
; Function compile flags: /Ogty
;	COMDAT ?IsDie@CMover@@QAEHXZ
_TEXT	SEGMENT
?IsDie@CMover@@QAEHXZ PROC NEAR				; CMover::IsDie, COMDAT
; _this$ = ecx

; 1276 : 	BOOL			IsDie() { return m_pActMover->IsDie() || m_nHitPoint == 0; }

  00000	8b 81 3c 02 00
	00		 mov	 eax, DWORD PTR [ecx+572]
  00006	f7 40 04 00 00
	00 08		 test	 DWORD PTR [eax+4], 134217728 ; 08000000H
  0000d	75 0d		 jne	 SHORT $L275710
  0000f	8b 81 00 06 00
	00		 mov	 eax, DWORD PTR [ecx+1536]
  00015	85 c0		 test	 eax, eax
  00017	74 03		 je	 SHORT $L275710
  00019	33 c0		 xor	 eax, eax
  0001b	c3		 ret	 0
$L275710:
  0001c	b8 01 00 00 00	 mov	 eax, 1
  00021	c3		 ret	 0
?IsDie@CMover@@QAEHXZ ENDP				; CMover::IsDie
_TEXT	ENDS
PUBLIC	?IsLive@CMover@@QAEHXZ				; CMover::IsLive
; Function compile flags: /Ogty
;	COMDAT ?IsLive@CMover@@QAEHXZ
_TEXT	SEGMENT
?IsLive@CMover@@QAEHXZ PROC NEAR			; CMover::IsLive, COMDAT
; _this$ = ecx

; 1277 : 	BOOL			IsLive() { return m_pActMover->IsDie() == FALSE || m_nHitPoint > 0; }		// &&   || .  != > 

  00000	8b 81 3c 02 00
	00		 mov	 eax, DWORD PTR [ecx+572]
  00006	f7 40 04 00 00
	00 08		 test	 DWORD PTR [eax+4], 134217728 ; 08000000H
  0000d	74 0d		 je	 SHORT $L275718
  0000f	8b 81 00 06 00
	00		 mov	 eax, DWORD PTR [ecx+1536]
  00015	85 c0		 test	 eax, eax
  00017	7f 03		 jg	 SHORT $L275718
  00019	33 c0		 xor	 eax, eax
  0001b	c3		 ret	 0
$L275718:
  0001c	b8 01 00 00 00	 mov	 eax, 1
  00021	c3		 ret	 0
?IsLive@CMover@@QAEHXZ ENDP				; CMover::IsLive
_TEXT	ENDS
PUBLIC	?IsChaotic@CMover@@QAEHXZ			; CMover::IsChaotic
; Function compile flags: /Ogty
;	COMDAT ?IsChaotic@CMover@@QAEHXZ
_TEXT	SEGMENT
?IsChaotic@CMover@@QAEHXZ PROC NEAR			; CMover::IsChaotic, COMDAT
; _this$ = ecx

; 1283 : 	BOOL			IsChaotic( void ) { return m_dwPKPropensity > 0; }	/// 

  00000	8b 91 60 07 00
	00		 mov	 edx, DWORD PTR [ecx+1888]
  00006	33 c0		 xor	 eax, eax
  00008	3b c2		 cmp	 eax, edx
  0000a	1b c0		 sbb	 eax, eax
  0000c	f7 d8		 neg	 eax
  0000e	c3		 ret	 0
?IsChaotic@CMover@@QAEHXZ ENDP				; CMover::IsChaotic
_TEXT	ENDS
PUBLIC	?GetActParam@CMover@@AAEHH@Z			; CMover::GetActParam
; Function compile flags: /Ogty
;	COMDAT ?GetActParam@CMover@@AAEHH@Z
_TEXT	SEGMENT
_nIdx$ = 8						; size = 4
?GetActParam@CMover@@AAEHH@Z PROC NEAR			; CMover::GetActParam, COMDAT
; _this$ = ecx

; 1713 : 	int				GetActParam( int nIdx ) { return m_nAParam[nIdx]; }

  00000	8b 44 24 04	 mov	 eax, DWORD PTR _nIdx$[esp-4]
  00004	8b 84 81 a4 12
	00 00		 mov	 eax, DWORD PTR [ecx+eax*4+4772]
  0000b	c2 04 00	 ret	 4
?GetActParam@CMover@@AAEHH@Z ENDP			; CMover::GetActParam
_TEXT	ENDS
PUBLIC	?SendActMsg@CMover@@QAEHW4OBJMSG@@HHHH@Z	; CMover::SendActMsg
; Function compile flags: /Ogty
;	COMDAT ?SendActMsg@CMover@@QAEHW4OBJMSG@@HHHH@Z
_TEXT	SEGMENT
_dwMsg$ = 8						; size = 4
_nParam1$ = 12						; size = 4
_nParam2$ = 16						; size = 4
_nParam3$ = 20						; size = 4
_nParam4$ = 24						; size = 4
?SendActMsg@CMover@@QAEHW4OBJMSG@@HHHH@Z PROC NEAR	; CMover::SendActMsg, COMDAT
; _this$ = ecx

; 1820 : 	if( m_pActMover )	

  00000	8b 81 3c 02 00
	00		 mov	 eax, DWORD PTR [ecx+572]
  00006	85 c0		 test	 eax, eax
  00008	74 25		 je	 SHORT $L212505

; 1821 : 		return m_pActMover->SendActMsg( dwMsg, nParam1, nParam2, nParam3, nParam4 );	

  0000a	8b 54 24 14	 mov	 edx, DWORD PTR _nParam4$[esp-4]
  0000e	6a 00		 push	 0
  00010	52		 push	 edx
  00011	8b 54 24 18	 mov	 edx, DWORD PTR _nParam3$[esp+4]
  00015	52		 push	 edx
  00016	8b 54 24 18	 mov	 edx, DWORD PTR _nParam2$[esp+8]
  0001a	52		 push	 edx
  0001b	8b 54 24 18	 mov	 edx, DWORD PTR _nParam1$[esp+12]
  0001f	52		 push	 edx
  00020	8b 54 24 18	 mov	 edx, DWORD PTR _dwMsg$[esp+16]
  00024	8b c8		 mov	 ecx, eax
  00026	8b 01		 mov	 eax, DWORD PTR [ecx]
  00028	52		 push	 edx
  00029	ff 50 04	 call	 DWORD PTR [eax+4]

; 1824 : }

  0002c	c2 14 00	 ret	 20			; 00000014H
$L212505:

; 1822 : 	else
; 1823 : 		return 0;

  0002f	33 c0		 xor	 eax, eax

; 1824 : }

  00031	c2 14 00	 ret	 20			; 00000014H
?SendActMsg@CMover@@QAEHW4OBJMSG@@HHHH@Z ENDP		; CMover::SendActMsg
_TEXT	ENDS
PUBLIC	?GetGold@CMover@@QAEHXZ				; CMover::GetGold
; Function compile flags: /Ogty
;	COMDAT ?GetGold@CMover@@QAEHXZ
_TEXT	SEGMENT
?GetGold@CMover@@QAEHXZ PROC NEAR			; CMover::GetGold, COMDAT
; _this$ = ecx

; 1829 : 	int nGold = m_dwGold;
; 1830 : //	nGold -= m_vtInfo.TradeGetGold();
; 1831 : 	ASSERT( nGold >= 0 );
; 1832 : 	return nGold;

  00000	8b 81 84 16 00
	00		 mov	 eax, DWORD PTR [ecx+5764]

; 1833 : }

  00006	c3		 ret	 0
?GetGold@CMover@@QAEHXZ ENDP				; CMover::GetGold
_TEXT	ENDS
PUBLIC	?ClearActParam@CMover@@QAEXXZ			; CMover::ClearActParam
; Function compile flags: /Ogty
;	COMDAT ?ClearActParam@CMover@@QAEXXZ
_TEXT	SEGMENT
?ClearActParam@CMover@@QAEXXZ PROC NEAR			; CMover::ClearActParam, COMDAT
; _this$ = ecx

; 1850 : 	m_oaAct = OBJACT_NONE; 

  00000	c7 81 a0 12 00
	00 00 00 00 00	 mov	 DWORD PTR [ecx+4768], 0

; 1851 : 	memset( m_nAParam, 0xcd, sizeof(m_nAParam) );

  0000a	81 c1 a4 12 00
	00		 add	 ecx, 4772		; 000012a4H
  00010	b8 cd cd cd cd	 mov	 eax, -842150451		; cdcdcdcdH
  00015	89 01		 mov	 DWORD PTR [ecx], eax
  00017	89 41 04	 mov	 DWORD PTR [ecx+4], eax
  0001a	89 41 08	 mov	 DWORD PTR [ecx+8], eax
  0001d	89 41 0c	 mov	 DWORD PTR [ecx+12], eax
  00020	89 41 10	 mov	 DWORD PTR [ecx+16], eax

; 1852 : }

  00023	c3		 ret	 0
?ClearActParam@CMover@@QAEXXZ ENDP			; CMover::ClearActParam
_TEXT	ENDS
PUBLIC	?GetID@CWorld@@QAEKXZ				; CWorld::GetID
; Function compile flags: /Ogty
; File c:\documents and settings\test\mes documents\source\virtuos_v17\build\program\_common\world.h
;	COMDAT ?GetID@CWorld@@QAEKXZ
_TEXT	SEGMENT
?GetID@CWorld@@QAEKXZ PROC NEAR				; CWorld::GetID, COMDAT
; _this$ = ecx

; 413  : 	DWORD			GetID()	{ return m_dwWorldID; }

  00000	8b 01		 mov	 eax, DWORD PTR [ecx]
  00002	c3		 ret	 0
?GetID@CWorld@@QAEKXZ ENDP				; CWorld::GetID
_TEXT	ENDS
PUBLIC	?GetTickCount@CTickCount@@QAE_JXZ		; CTickCount::GetTickCount
; Function compile flags: /Ogty
; File c:\documents and settings\test\mes documents\source\virtuos_v17\build\program\_network\misc\include\tickcount.h
;	COMDAT ?GetTickCount@CTickCount@@QAE_JXZ
_TEXT	SEGMENT
?GetTickCount@CTickCount@@QAE_JXZ PROC NEAR		; CTickCount::GetTickCount, COMDAT
; _this$ = ecx

; 51   : {

  00000	56		 push	 esi
  00001	8b f1		 mov	 esi, ecx

; 52   : 	m_dwOffset	= timeGetTime();

  00003	ff 15 00 00 00
	00		 call	 DWORD PTR __imp__timeGetTime@0

; 53   : 	return( m_nStart + ( m_dwOffset - m_dwBase ) * 10000 );

  00009	8b 56 08	 mov	 edx, DWORD PTR [esi+8]
  0000c	8b 0e		 mov	 ecx, DWORD PTR [esi]
  0000e	89 46 0c	 mov	 DWORD PTR [esi+12], eax
  00011	2b c2		 sub	 eax, edx
  00013	69 c0 10 27 00
	00		 imul	 eax, 10000		; 00002710H
  00019	33 d2		 xor	 edx, edx
  0001b	03 c1		 add	 eax, ecx
  0001d	13 56 04	 adc	 edx, DWORD PTR [esi+4]
  00020	5e		 pop	 esi

; 54   : }

  00021	c3		 ret	 0
?GetTickCount@CTickCount@@QAE_JXZ ENDP			; CTickCount::GetTickCount
_TEXT	ENDS
PUBLIC	?GetSize@?$CFixedArray@UItemProp@@@@QAEHXZ	; CFixedArray<ItemProp>::GetSize
; Function compile flags: /Ogty
; File c:\documents and settings\test\mes documents\source\virtuos_v17\build\program\_common\data.h
;	COMDAT ?GetSize@?$CFixedArray@UItemProp@@@@QAEHXZ
_TEXT	SEGMENT
?GetSize@?$CFixedArray@UItemProp@@@@QAEHXZ PROC NEAR	; CFixedArray<ItemProp>::GetSize, COMDAT
; _this$ = ecx

; 221  : 	int  GetSize() { return m_nMaxIndex; }

  00000	8b 41 18	 mov	 eax, DWORD PTR [ecx+24]
  00003	c3		 ret	 0
?GetSize@?$CFixedArray@UItemProp@@@@QAEHXZ ENDP		; CFixedArray<ItemProp>::GetSize
_TEXT	ENDS
PUBLIC	?GetSize@?$CFixedArray@UtagColorText@@@@QAEHXZ	; CFixedArray<tagColorText>::GetSize
; Function compile flags: /Ogty
;	COMDAT ?GetSize@?$CFixedArray@UtagColorText@@@@QAEHXZ
_TEXT	SEGMENT
?GetSize@?$CFixedArray@UtagColorText@@@@QAEHXZ PROC NEAR ; CFixedArray<tagColorText>::GetSize, COMDAT
; _this$ = ecx

; 221  : 	int  GetSize() { return m_nMaxIndex; }

  00000	8b 41 18	 mov	 eax, DWORD PTR [ecx+24]
  00003	c3		 ret	 0
?GetSize@?$CFixedArray@UtagColorText@@@@QAEHXZ ENDP	; CFixedArray<tagColorText>::GetSize
_TEXT	ENDS
PUBLIC	?GetAt@?$CFixedArray@UItemProp@@@@QAEPAUItemProp@@K@Z ; CFixedArray<ItemProp>::GetAt
; Function compile flags: /Ogty
;	COMDAT ?GetAt@?$CFixedArray@UItemProp@@@@QAEPAUItemProp@@K@Z
_TEXT	SEGMENT
_dwIndex$ = 8						; size = 4
?GetAt@?$CFixedArray@UItemProp@@@@QAEPAUItemProp@@K@Z PROC NEAR ; CFixedArray<ItemProp>::GetAt, COMDAT
; _this$ = ecx

; 270  : 	if( dwIndex >= (DWORD)m_nMaxIndex )

  00000	8b 44 24 04	 mov	 eax, DWORD PTR _dwIndex$[esp-4]
  00004	3b 41 18	 cmp	 eax, DWORD PTR [ecx+24]
  00007	72 05		 jb	 SHORT $L224299

; 271  : 		return NULL;

  00009	33 c0		 xor	 eax, eax

; 273  : }

  0000b	c2 04 00	 ret	 4
$L224299:

; 272  : 	return (T*) m_apOffset[ dwIndex ];

  0000e	8b 49 08	 mov	 ecx, DWORD PTR [ecx+8]
  00011	8b 04 81	 mov	 eax, DWORD PTR [ecx+eax*4]

; 273  : }

  00014	c2 04 00	 ret	 4
?GetAt@?$CFixedArray@UItemProp@@@@QAEPAUItemProp@@K@Z ENDP ; CFixedArray<ItemProp>::GetAt
_TEXT	ENDS
PUBLIC	?GetAt@?$CFixedArray@UtagColorText@@@@QAEPAUtagColorText@@K@Z ; CFixedArray<tagColorText>::GetAt
; Function compile flags: /Ogty
;	COMDAT ?GetAt@?$CFixedArray@UtagColorText@@@@QAEPAUtagColorText@@K@Z
_TEXT	SEGMENT
_dwIndex$ = 8						; size = 4
?GetAt@?$CFixedArray@UtagColorText@@@@QAEPAUtagColorText@@K@Z PROC NEAR ; CFixedArray<tagColorText>::GetAt, COMDAT
; _this$ = ecx

; 270  : 	if( dwIndex >= (DWORD)m_nMaxIndex )

  00000	8b 44 24 04	 mov	 eax, DWORD PTR _dwIndex$[esp-4]
  00004	3b 41 18	 cmp	 eax, DWORD PTR [ecx+24]
  00007	72 05		 jb	 SHORT $L224363

; 271  : 		return NULL;

  00009	33 c0		 xor	 eax, eax

; 273  : }

  0000b	c2 04 00	 ret	 4
$L224363:

; 272  : 	return (T*) m_apOffset[ dwIndex ];

  0000e	8b 49 08	 mov	 ecx, DWORD PTR [ecx+8]
  00011	8b 04 81	 mov	 eax, DWORD PTR [ecx+eax*4]

; 273  : }

  00014	c2 04 00	 ret	 4
?GetAt@?$CFixedArray@UtagColorText@@@@QAEPAUtagColorText@@K@Z ENDP ; CFixedArray<tagColorText>::GetAt
_TEXT	ENDS
PUBLIC	__real@3e4ccccd
PUBLIC	??_C@_0N@NAIGPEGH@OnMeleeSkill?$AA@		; `string'
PUBLIC	?OnMeleeSkill@CMover@@QAEHHH@Z			; CMover::OnMeleeSkill
EXTRN	?OnAttackSFX@CMover@@QAEXKHKHMMKH@Z:NEAR	; CMover::OnAttackSFX
EXTRN	?ShootSkill@CCtrl@@QAEHPAV1@PAUItemProp@@PAUAddSkillProp@@@Z:NEAR ; CCtrl::ShootSkill
EXTRN	?DoApplySkill@CCtrl@@QAEHPAV1@PAUItemProp@@PAUAddSkillProp@@_NHHH@Z:NEAR ; CCtrl::DoApplySkill
EXTRN	?GetMover@CProject@@QAEPAVCMover@@K@Z:NEAR	; CProject::GetMover
;	COMDAT ??_C@_0N@NAIGPEGH@OnMeleeSkill?$AA@
; File c:\documents and settings\test\mes documents\source\virtuos_v17\build\program\_common\ctrl.h
CONST	SEGMENT
??_C@_0N@NAIGPEGH@OnMeleeSkill?$AA@ DB 'OnMeleeSkill', 00H ; `string'
CONST	ENDS
;	COMDAT __real@3e4ccccd
CONST	SEGMENT
__real@3e4ccccd DD 03e4ccccdr			; 0.2
; Function compile flags: /Ogty
; File c:\documents and settings\test\mes documents\source\virtuos_v17\build\program\_common\moveractevent.cpp
CONST	ENDS
;	COMDAT ?OnMeleeSkill@CMover@@QAEHHH@Z
_TEXT	SEGMENT
_pAddSkillProp$ = -16					; size = 4
_fDmgPower$269065 = -12					; size = 4
_pSkillProp$ = -8					; size = 4
tv259 = -4						; size = 4
_nType$ = 8						; size = 4
_nCount$ = 12						; size = 4
?OnMeleeSkill@CMover@@QAEHHH@Z PROC NEAR		; CMover::OnMeleeSkill, COMDAT
; _this$ = ecx

; 73   : {

  00000	83 ec 10	 sub	 esp, 16			; 00000010H
  00003	56		 push	 esi
  00004	8b f1		 mov	 esi, ecx

; 74   : 	if( m_oaAct != OBJACT_USESKILL )	

  00006	83 be a0 12 00
	00 05		 cmp	 DWORD PTR [esi+4768], 5
  0000d	74 09		 je	 SHORT $L269050

; 75   : 		return FALSE;	//      .   .

  0000f	33 c0		 xor	 eax, eax
  00011	5e		 pop	 esi

; 164  : } 

  00012	83 c4 10	 add	 esp, 16			; 00000010H
  00015	c2 08 00	 ret	 8
$L269050:

; 76   : 	int		nSkill = GetActParam( 0 );
; 77   : 	OBJID	idTarget = GetActParam( 1 );
; 78   : 	DWORD	dwLevel	= GetActParam( 3 );
; 79   : #if __VER >= 8 // __S8_PK
; 80   : 	BOOL	bControl = GetActParam( 4 );
; 81   : #endif // __VER >= 8 // __S8_PK
; 82   : 
; 83   : 	ItemProp* pSkillProp;
; 84   : 	AddSkillProp* pAddSkillProp;
; 85   : 
; 86   : 	//  .
; 87   : 	GetSkillProp( &pSkillProp, &pAddSkillProp, nSkill, dwLevel, "OnMeleeSkill" );

  00018	8b 8e b0 12 00
	00		 mov	 ecx, DWORD PTR [esi+4784]
  0001e	8b 96 a4 12 00
	00		 mov	 edx, DWORD PTR [esi+4772]
  00024	8b 06		 mov	 eax, DWORD PTR [esi]
  00026	53		 push	 ebx
  00027	8b 9e b4 12 00
	00		 mov	 ebx, DWORD PTR [esi+4788]
  0002d	57		 push	 edi
  0002e	8b be a8 12 00
	00		 mov	 edi, DWORD PTR [esi+4776]
  00034	68 00 00 00 00	 push	 OFFSET FLAT:??_C@_0N@NAIGPEGH@OnMeleeSkill?$AA@
  00039	51		 push	 ecx
  0003a	52		 push	 edx
  0003b	8d 4c 24 18	 lea	 ecx, DWORD PTR _pAddSkillProp$[esp+40]
  0003f	51		 push	 ecx
  00040	8d 54 24 24	 lea	 edx, DWORD PTR _pSkillProp$[esp+44]
  00044	52		 push	 edx
  00045	8b ce		 mov	 ecx, esi
  00047	ff 50 30	 call	 DWORD PTR [eax+48]

; 88   : 
; 89   : 	// . (..) .
; 90   : 	CMover* pFocusObj = prj.GetMover( idTarget );		//  .

  0004a	57		 push	 edi
  0004b	b9 00 00 00 00	 mov	 ecx, OFFSET FLAT:?prj@@3VCProject@@A
  00050	e8 00 00 00 00	 call	 ?GetMover@CProject@@QAEPAVCMover@@K@Z ; CProject::GetMover
  00055	8b f8		 mov	 edi, eax

; 91   : 	if( IsInvalidObj( pFocusObj ) )	

  00057	85 ff		 test	 edi, edi
  00059	74 06		 je	 SHORT $L275788
  0005b	f6 47 04 01	 test	 BYTE PTR [edi+4], 1
  0005f	74 0b		 je	 SHORT $L269059
$L275788:
  00061	5f		 pop	 edi
  00062	5b		 pop	 ebx

; 92   : 		return FALSE;

  00063	33 c0		 xor	 eax, eax
  00065	5e		 pop	 esi

; 164  : } 

  00066	83 c4 10	 add	 esp, 16			; 00000010H
  00069	c2 08 00	 ret	 8
$L269059:

; 93   : 
; 94   : #if defined(__CLIENT)
; 95   : 	CModelObject* pModel =(CModelObject*)m_pModel;
; 96   : 	if( pModel )
; 97   : 	{
; 98   : 		pModel->m_SparkInfo.m_bUsed  = TRUE;
; 99   : 		pModel->m_SparkInfo.m_v3Color.x = 2.0f;
; 100  : 		pModel->m_SparkInfo.m_v3Color.y = 2.0f;
; 101  : 		pModel->m_SparkInfo.m_v3Color.z = 2.0f;
; 102  : 		pModel->m_SparkInfo.m_nCnt = 0;
; 103  : 		pModel->m_SparkInfo.m_fLerp= 1.0f;
; 104  : 		
; 105  : 		D3DXVECTOR3 vDir;
; 106  : 		if( pFocusObj == this )
; 107  : 			vDir = D3DXVECTOR3( 0.0f, 1.0f, 0.0f );
; 108  : 		else
; 109  : 			vDir = GetPos() - pFocusObj->GetPos();
; 110  : 
; 111  : 		D3DXVec3Normalize( &pModel->m_SparkInfo.m_v3SparkDir, &vDir );
; 112  : 	}
; 113  : #endif //defined(__CLIENT) 
; 114  : 
; 115  : 	int nDamage = 0;
; 116  : 
; 117  : 	//   sfx.
; 118  : 	if( pSkillProp->dwExeTarget == EXT_MAGICATKSHOT || pSkillProp->dwExeTarget == EXT_MAGICSHOT	)	

  0006c	8b 44 24 14	 mov	 eax, DWORD PTR _pSkillProp$[esp+28]
  00070	8b 88 f4 01 00
	00		 mov	 ecx, DWORD PTR [eax+500]
  00076	83 f9 0e	 cmp	 ecx, 14			; 0000000eH
  00079	74 1c		 je	 SHORT $L269062
  0007b	83 f9 03	 cmp	 ecx, 3
  0007e	74 17		 je	 SHORT $L269062

; 135  : 	}
; 136  : 	else
; 137  : 	{
; 138  : 		//  .  ApplySkill() .
; 139  : #if __VER >= 8 // __S8_PK
; 140  : 		nDamage = DoApplySkill( pFocusObj, pSkillProp, pAddSkillProp, false, 0, FALSE, bControl );

  00080	8b 4c 24 0c	 mov	 ecx, DWORD PTR _pAddSkillProp$[esp+28]
  00084	53		 push	 ebx
  00085	6a 00		 push	 0
  00087	6a 00		 push	 0
  00089	6a 00		 push	 0
  0008b	51		 push	 ecx
  0008c	50		 push	 eax
  0008d	57		 push	 edi
  0008e	8b ce		 mov	 ecx, esi
  00090	e8 00 00 00 00	 call	 ?DoApplySkill@CCtrl@@QAEHPAV1@PAUItemProp@@PAUAddSkillProp@@_NHHH@Z ; CCtrl::DoApplySkill
  00095	eb 72		 jmp	 SHORT $L269070
$L269062:

; 119  : 	{
; 120  : #ifdef __WORLDSERVER
; 121  : 		int nMaxDmgCnt	= 1;
; 122  : 		if( pSkillProp->tmContinuousPain != NULL_ID )
; 123  : 			nMaxDmgCnt	= ( pAddSkillProp->dwSkillTime / pAddSkillProp->dwPainTime ) + 1;
; 124  : 		float fDmgPower = 0;
; 125  : 		if( pSkillProp->dwDmgShift != NULL_ID )

  00097	8b 88 34 01 00
	00		 mov	 ecx, DWORD PTR [eax+308]
  0009d	83 f9 ff	 cmp	 ecx, -1
  000a0	c7 44 24 10 00
	00 00 00	 mov	 DWORD PTR _fDmgPower$269065[esp+28], 0
  000a8	89 4c 24 18	 mov	 DWORD PTR tv259[esp+28], ecx
  000ac	74 0e		 je	 SHORT $L269066

; 126  : 			fDmgPower	= (int)pSkillProp->dwDmgShift * 0.2f;

  000ae	db 44 24 18	 fild	 DWORD PTR tv259[esp+28]
  000b2	d8 0d 00 00 00
	00		 fmul	 DWORD PTR __real@3e4ccccd
  000b8	d9 5c 24 10	 fstp	 DWORD PTR _fDmgPower$269065[esp+28]
$L269066:

; 127  : //		for( int nDmgCnt = 0; nDmgCnt < nMaxDmgCnt; nDmgCnt++ )
; 128  : #if __VER >= 8 // __S8_PK
; 129  : 			OnAttackSFX( pFocusObj->GetId(), pAddSkillProp->dwSkillLvl, pSkillProp->dwID, 0, GetAngle(), fDmgPower, ( pSkillProp->dwSkillType == KT_SKILL? AF_MELEESKILL: AF_MAGICSKILL ), bControl );

  000bc	8b 4c 24 10	 mov	 ecx, DWORD PTR _fDmgPower$269065[esp+28]
  000c0	53		 push	 ebx
  000c1	8b 98 18 02 00
	00		 mov	 ebx, DWORD PTR [eax+536]
  000c7	8b 00		 mov	 eax, DWORD PTR [eax]
  000c9	33 d2		 xor	 edx, edx
  000cb	83 fb 02	 cmp	 ebx, 2
  000ce	0f 95 c2	 setne	 dl
  000d1	4a		 dec	 edx
  000d2	83 e2 f0	 and	 edx, -16		; fffffff0H
  000d5	83 c2 20	 add	 edx, 32			; 00000020H
  000d8	52		 push	 edx
  000d9	8b 56 18	 mov	 edx, DWORD PTR [esi+24]
  000dc	51		 push	 ecx
  000dd	8b 4c 24 18	 mov	 ecx, DWORD PTR _pAddSkillProp$[esp+40]
  000e1	52		 push	 edx
  000e2	8b 51 08	 mov	 edx, DWORD PTR [ecx+8]
  000e5	6a 00		 push	 0
  000e7	50		 push	 eax
  000e8	8b 87 bc 01 00
	00		 mov	 eax, DWORD PTR [edi+444]
  000ee	52		 push	 edx
  000ef	50		 push	 eax
  000f0	8b ce		 mov	 ecx, esi
  000f2	e8 00 00 00 00	 call	 ?OnAttackSFX@CMover@@QAEXKHKHMMKH@Z ; CMover::OnAttackSFX

; 130  : #else // __VER >= 8 // __S8_PK
; 131  : 			OnAttackSFX( pFocusObj->GetId(), pAddSkillProp->dwSkillLvl, pSkillProp->dwID, 0, GetAngle(), fDmgPower, ( pSkillProp->dwSkillType == KT_SKILL? AF_MELEESKILL: AF_MAGICSKILL ) );
; 132  : #endif // __VER >= 8 // __S8_PK
; 133  : #endif	// __WORLDSERVER
; 134  : 		nDamage = ShootSkill( pFocusObj, pSkillProp, pAddSkillProp );		//   .

  000f7	8b 4c 24 0c	 mov	 ecx, DWORD PTR _pAddSkillProp$[esp+28]
  000fb	8b 54 24 14	 mov	 edx, DWORD PTR _pSkillProp$[esp+28]
  000ff	51		 push	 ecx
  00100	52		 push	 edx
  00101	57		 push	 edi
  00102	8b ce		 mov	 ecx, esi
  00104	e8 00 00 00 00	 call	 ?ShootSkill@CCtrl@@QAEHPAV1@PAUItemProp@@PAUAddSkillProp@@@Z ; CCtrl::ShootSkill
$L269070:

; 141  : #else // __VER >= 8 // __S8_PK
; 142  : 		nDamage = DoApplySkill( pFocusObj, pSkillProp, pAddSkillProp );
; 143  : #endif // __VER >= 8 // __S8_PK
; 144  : 	}
; 145  : 	TRACE( "OnMeleeSkill%s, ", pSkillProp->szName );
; 146  : 
; 147  : 	if( nDamage && nCount == 0 )		//    

  00109	85 c0		 test	 eax, eax
  0010b	74 1f		 je	 SHORT $L269072
  0010d	8b 44 24 24	 mov	 eax, DWORD PTR _nCount$[esp+24]
  00111	85 c0		 test	 eax, eax
  00113	75 17		 jne	 SHORT $L269072

; 148  : 	{
; 149  : 		//    -    
; 150  : #ifdef __CLIENT
; 151  : 		if( IsActiveMover() )
; 152  : #endif
; 153  : 		{
; 154  : #if __VER >= 9	// __SKILL_0706
; 155  : 			if( pAddSkillProp->dwCooldown != 0xFFFFFFFF )	//    

  00115	8b 44 24 0c	 mov	 eax, DWORD PTR _pAddSkillProp$[esp+28]
  00119	83 78 5c ff	 cmp	 DWORD PTR [eax+92], -1
  0011d	74 0d		 je	 SHORT $L269072

; 156  : 				SetCoolTime( pAddSkillProp, "OnMeleeSkill" );

  0011f	68 00 00 00 00	 push	 OFFSET FLAT:??_C@_0N@NAIGPEGH@OnMeleeSkill?$AA@
  00124	50		 push	 eax
  00125	8b ce		 mov	 ecx, esi
  00127	e8 00 00 00 00	 call	 ?SetCoolTime@CMover@@QAEXPAUAddSkillProp@@PBD@Z ; CMover::SetCoolTime
$L269072:
  0012c	5f		 pop	 edi
  0012d	5b		 pop	 ebx

; 157  : #else	// __SKILL_0706
; 158  : 			if( pSkillProp->dwSkillReady != 0xffffffff )	//    
; 159  : 				SetCoolTime( pSkillProp, "OnMeleeSkill" );
; 160  : #endif	// __SKILL_0706
; 161  : 		}
; 162  : 	}
; 163  : 	return TRUE;

  0012e	b8 01 00 00 00	 mov	 eax, 1
  00133	5e		 pop	 esi

; 164  : } 

  00134	83 c4 10	 add	 esp, 16			; 00000010H
  00137	c2 08 00	 ret	 8
?OnMeleeSkill@CMover@@QAEHHH@Z ENDP			; CMover::OnMeleeSkill
_TEXT	ENDS
PUBLIC	__real@3c23d70a
PUBLIC	__real@3a83126f
PUBLIC	__real@41700000
PUBLIC	?ApplyParam@CMover@@QAEHPAVCCtrl@@PAUItemProp@@PAUAddSkillProp@@HH@Z ; CMover::ApplyParam
EXTRN	?SetDarkCover@CMover@@QAEHHK@Z:NEAR		; CMover::SetDarkCover
EXTRN	?SetStun@CMover@@QAEHHK@Z:NEAR			; CMover::SetStun
EXTRN	?SetPoison@CMover@@QAEHHKKKF@Z:NEAR		; CMover::SetPoison
EXTRN	?SetDark@CMover@@QAEHHKH@Z:NEAR			; CMover::SetDark
EXTRN	?SetBleeding@CMover@@QAEHHKKKF@Z:NEAR		; CMover::SetBleeding
EXTRN	?RemoveDebuff@CMover@@QAEXK@Z:NEAR		; CMover::RemoveDebuff
EXTRN	?RemoveBuffOne@CMover@@QAEXK@Z:NEAR		; CMover::RemoveBuffOne
EXTRN	?RemoveBuffAll@CMover@@QAEXXZ:NEAR		; CMover::RemoveBuffAll
EXTRN	?SetDestParam@CMover@@QAEXHHHH@Z:NEAR		; CMover::SetDestParam
EXTRN	?GetHitPoint@CMover@@QAEHXZ:NEAR		; CMover::GetHitPoint
EXTRN	?GetMaxHitPoint@CMover@@QAEHXZ:NEAR		; CMover::GetMaxHitPoint
EXTRN	?GetMaxManaPoint@CMover@@QAEHXZ:NEAR		; CMover::GetMaxManaPoint
EXTRN	?GetMaxFatiguePoint@CMover@@QAEHXZ:NEAR		; CMover::GetMaxFatiguePoint
;	COMDAT __real@3c23d70a
; File c:\documents and settings\test\mes documents\source\virtuos_v17\build\program\_common\project.h
CONST	SEGMENT
__real@3c23d70a DD 03c23d70ar			; 0.01
CONST	ENDS
;	COMDAT __real@3a83126f
CONST	SEGMENT
__real@3a83126f DD 03a83126fr			; 0.001
CONST	ENDS
;	COMDAT __real@41700000
CONST	SEGMENT
__real@41700000 DD 041700000r			; 15
; Function compile flags: /Ogty
; File c:\documents and settings\test\mes documents\source\virtuos_v17\build\program\_common\moveractevent.cpp
CONST	ENDS
;	COMDAT ?ApplyParam@CMover@@QAEHPAVCCtrl@@PAUItemProp@@PAUAddSkillProp@@HH@Z
_TEXT	SEGMENT
_i$ = -28						; size = 4
_dwPainTime$ = -24					; size = 4
_dwDestParam$ = -20					; size = 4
tv1029 = -16						; size = 4
tv1026 = -16						; size = 4
tv1024 = -16						; size = 4
tv1012 = -16						; size = 4
_nAdjParam$ = -16					; size = 4
_nDestData$ = -12					; size = 12
_pSrc$ = 8						; size = 4
_pSkillProp$ = 12					; size = 4
tv1046 = 16						; size = 4
tv1043 = 16						; size = 4
tv1041 = 16						; size = 4
_dwHp1$269183 = 16					; size = 4
_nChgParam$ = 16					; size = 4
_pAddSkillProp$ = 16					; size = 4
_bSend$ = 20						; size = 4
_nDamage$ = 24						; size = 4
?ApplyParam@CMover@@QAEHPAVCCtrl@@PAUItemProp@@PAUAddSkillProp@@HH@Z PROC NEAR ; CMover::ApplyParam, COMDAT
; _this$ = ecx

; 206  : {

  00000	83 ec 1c	 sub	 esp, 28			; 0000001cH
  00003	53		 push	 ebx
  00004	55		 push	 ebp

; 207  : 	int		i;
; 208  : 	CMover *pTarget = (CMover *)this;
; 209  : 
; 210  : 	DWORD	dwDestParam, dwSkillTime, dwPainTime, dwAbilityMin;
; 211  : 	int		nAdjParam, nChgParam;
; 212  : 	int		nDestData[3];
; 213  : 
; 214  : #if __VER >= 9	// __SKILL_0706
; 215  : 	BOOL bPVP	= pSrc->GetType() == OT_MOVER && ( (CMover*)pSrc )->IsPlayer() && IsPlayer();
; 216  : #endif	// __SKILL_0706
; 217  : 
; 218  : 	for( i = 0; i < 2; i ++ )

  00005	8b 6c 24 30	 mov	 ebp, DWORD PTR _pAddSkillProp$[esp+32]
  00009	56		 push	 esi
  0000a	57		 push	 edi
  0000b	8b f1		 mov	 esi, ecx
  0000d	c7 44 24 10 00
	00 00 00	 mov	 DWORD PTR _i$[esp+44], 0
$L269120:

; 219  : 	{
; 220  : 		if( pAddSkillProp )

  00015	85 ed		 test	 ebp, ebp
  00017	74 26		 je	 SHORT $L269123

; 221  : 		{
; 222  : 			dwDestParam = pAddSkillProp->dwDestParam[i];

  00019	8b 44 24 10	 mov	 eax, DWORD PTR _i$[esp+44]
  0001d	8b 7c 85 24	 mov	 edi, DWORD PTR [ebp+eax*4+36]

; 223  : 			dwSkillTime = pAddSkillProp->dwSkillTime;
; 224  : 			dwPainTime = pAddSkillProp->dwPainTime;
; 225  : #if __VER >= 9	// __SKILL_0706
; 226  : 			dwAbilityMin	= bPVP? pAddSkillProp->dwAbilityMinPVP: pAddSkillProp->dwAbilityMin;
; 227  : #else	// __SKILL_0706
; 228  : 			dwAbilityMin	= pAddSkillProp->dwAbilityMin;
; 229  : #endif	// __SKILL_0706
; 230  : 			nAdjParam	= pAddSkillProp->nAdjParamVal[i];

  00021	8b 5c 85 2c	 mov	 ebx, DWORD PTR [ebp+eax*4+44]
  00025	8b 55 6c	 mov	 edx, DWORD PTR [ebp+108]

; 231  : 			nChgParam	= (int)pAddSkillProp->dwChgParamVal[i];

  00028	8b 44 85 34	 mov	 eax, DWORD PTR [ebp+eax*4+52]
  0002c	8b 4d 70	 mov	 ecx, DWORD PTR [ebp+112]
  0002f	89 54 24 14	 mov	 DWORD PTR _dwPainTime$[esp+44], edx

; 232  : 			nDestData[0] = pAddSkillProp->nDestData1[0];

  00033	8b 55 3c	 mov	 edx, DWORD PTR [ebp+60]
  00036	89 44 24 38	 mov	 DWORD PTR _nChgParam$[esp+40], eax

; 233  : 			nDestData[1] = pAddSkillProp->nDestData1[1];

  0003a	8b 45 40	 mov	 eax, DWORD PTR [ebp+64]

; 234  : 			nDestData[2] = pAddSkillProp->nDestData1[2];
; 235  : 		}
; 236  : 		else

  0003d	eb 3d		 jmp	 SHORT $L275938
$L269123:

; 237  : 		{	
; 238  : 			dwDestParam = pSkillProp->dwDestParam[i];

  0003f	8b 44 24 34	 mov	 eax, DWORD PTR _pSkillProp$[esp+40]

; 239  : 			dwSkillTime = pSkillProp->dwSkillTime;
; 240  : 			dwPainTime  = pSkillProp->tmContinuousPain;

  00043	8b 98 20 01 00
	00		 mov	 ebx, DWORD PTR [eax+288]
  00049	8b 54 24 10	 mov	 edx, DWORD PTR _i$[esp+44]
  0004d	8b bc 90 40 01
	00 00		 mov	 edi, DWORD PTR [eax+edx*4+320]
  00054	8b 88 f0 01 00
	00		 mov	 ecx, DWORD PTR [eax+496]
  0005a	89 5c 24 14	 mov	 DWORD PTR _dwPainTime$[esp+44], ebx

; 241  : 			dwAbilityMin = pSkillProp->dwAbilityMin;
; 242  : 			nAdjParam	= pSkillProp->nAdjParamVal[i];

  0005e	8b 9c 90 58 01
	00 00		 mov	 ebx, DWORD PTR [eax+edx*4+344]

; 243  : 			nChgParam	= (int)pSkillProp->dwChgParamVal[i];

  00065	8b 94 90 70 01
	00 00		 mov	 edx, DWORD PTR [eax+edx*4+368]
  0006c	89 54 24 38	 mov	 DWORD PTR _nChgParam$[esp+40], edx

; 244  : 			nDestData[0] = pSkillProp->nDestData1[0];

  00070	8b 90 88 01 00
	00		 mov	 edx, DWORD PTR [eax+392]

; 245  : 			nDestData[1] = pSkillProp->nDestData1[1];

  00076	8b 80 8c 01 00
	00		 mov	 eax, DWORD PTR [eax+396]
$L275938:

; 246  : 			nDestData[2] = pSkillProp->nDestData1[2];
; 247  : 		}
; 248  : 		// destParam 1
; 249  : 		switch( dwDestParam )

  0007c	83 ff 46	 cmp	 edi, 70			; 00000046H
  0007f	89 7c 24 18	 mov	 DWORD PTR _dwDestParam$[esp+44], edi
  00083	89 5c 24 1c	 mov	 DWORD PTR _nAdjParam$[esp+44], ebx
  00087	89 44 24 24	 mov	 DWORD PTR _nDestData$[esp+48], eax
  0008b	0f 87 ee 03 00
	00		 ja	 $L275814
  00091	83 ff 45	 cmp	 edi, 69			; 00000045H
  00094	0f 83 d5 03 00
	00		 jae	 $L269178
  0009a	8d 47 f5	 lea	 eax, DWORD PTR [edi-11]
  0009d	83 f8 35	 cmp	 eax, 53			; 00000035H
  000a0	0f 87 79 05 00
	00		 ja	 $L269245
  000a6	0f b6 80 00 00
	00 00		 movzx	 eax, BYTE PTR $L275922[eax]
  000ad	ff 24 85 00 00
	00 00		 jmp	 DWORD PTR $L275948[eax*4]
$L269132:

; 250  : 		{
; 251  : 		case NULL_ID:
; 252  : 			break;
; 253  : 		case DST_CHRSTATE:		//  
; 254  : 			if( nAdjParam & CHS_INVISIBILITY )	// ...

  000b4	f6 c7 04	 test	 bh, 4
  000b7	74 20		 je	 SHORT $L269133

; 255  : 			{
; 256  : 				if( pTarget->SetDarkCover( TRUE, dwSkillTime ) == FALSE )

  000b9	51		 push	 ecx
  000ba	6a 01		 push	 1
  000bc	8b ce		 mov	 ecx, esi
  000be	e8 00 00 00 00	 call	 ?SetDarkCover@CMover@@QAEHHK@Z ; CMover::SetDarkCover
  000c3	85 c0		 test	 eax, eax
  000c5	0f 84 cc 05 00
	00		 je	 $L275917

; 257  : 					return FALSE;
; 258  : 				pTarget->m_wDarkCover = 0;		

  000cb	66 c7 86 da 06
	00 00 00 00	 mov	 WORD PTR [esi+1754], 0

; 259  : 			}
; 260  : 			else

  000d4	e9 9d 05 00 00	 jmp	 $L269121
$L269133:

; 261  : 			if( nAdjParam & CHS_STUN )	// ...

  000d9	f6 c3 08	 test	 bl, 8

; 262  : 			{
; 263  : 				if( pTarget->SetStun( TRUE, dwSkillTime ) == FALSE )
; 264  : 					return FALSE;
; 265  : 				//  . 
; 266  : 				//     
; 267  : 				// 1.  .
; 268  : 				// 2.  
; 269  : 				// 3.  (..)
; 270  : 				//     SkillInflu 
; 271  : 				//   m_wStunCnt      .
; 272  : 				//     SkillInflu   m_wStunCnt .
; 273  : 				//      .
; 274  : 				//  .       .
; 275  : 				pTarget->m_wStunCnt = 0;		
; 276  : 			} else

  000dc	75 08		 jne	 SHORT $L275947

; 277  : #ifdef __3RD_LEGEND16
; 278  : 			if( nAdjParam & CHS_SLEEPING )	// ...

  000de	f7 c3 00 00 20
	00		 test	 ebx, 2097152		; 00200000H
  000e4	74 20		 je	 SHORT $L269139
$L275947:

; 279  : 			{
; 280  : 				if( pTarget->SetStun( TRUE, dwSkillTime ) == FALSE )

  000e6	51		 push	 ecx
  000e7	6a 01		 push	 1
  000e9	8b ce		 mov	 ecx, esi
  000eb	e8 00 00 00 00	 call	 ?SetStun@CMover@@QAEHHK@Z ; CMover::SetStun
  000f0	85 c0		 test	 eax, eax
  000f2	0f 84 9f 05 00
	00		 je	 $L275917

; 281  : 					return FALSE;
; 282  : 				pTarget->m_wStunCnt = 0;		

  000f8	66 c7 86 cc 06
	00 00 00 00	 mov	 WORD PTR [esi+1740], 0

; 283  : 			} else

  00101	e9 70 05 00 00	 jmp	 $L269121
$L269139:

; 284  : #endif // __3RD_LEGEND16
; 285  : 			if( nAdjParam & CHS_POISON )	// ..

  00106	f6 c7 08	 test	 bh, 8
  00109	74 31		 je	 SHORT $L269142

; 286  : 			{
; 287  : 				if( pTarget->SetPoison( TRUE, pSrc->GetId(), dwSkillTime, dwPainTime, nDestData[0] ) == FALSE )	// nDestData[0]   

  0010b	8b 44 24 30	 mov	 eax, DWORD PTR _pSrc$[esp+40]
  0010f	8b 80 bc 01 00
	00		 mov	 eax, DWORD PTR [eax+444]
  00115	52		 push	 edx
  00116	8b 54 24 18	 mov	 edx, DWORD PTR _dwPainTime$[esp+48]
  0011a	52		 push	 edx
  0011b	51		 push	 ecx
  0011c	50		 push	 eax
  0011d	6a 01		 push	 1
  0011f	8b ce		 mov	 ecx, esi
  00121	e8 00 00 00 00	 call	 ?SetPoison@CMover@@QAEHHKKKF@Z ; CMover::SetPoison
  00126	85 c0		 test	 eax, eax
  00128	0f 84 69 05 00
	00		 je	 $L275917

; 288  : 					return FALSE;
; 289  : 				pTarget->m_wPoisonCnt = 0;		//   

  0012e	66 c7 86 ce 06
	00 00 00 00	 mov	 WORD PTR [esi+1742], 0

; 290  : 			} else

  00137	e9 3a 05 00 00	 jmp	 $L269121
$L269142:

; 291  : 			if( nAdjParam & CHS_DARK )	// 

  0013c	f6 c7 01	 test	 bh, 1
  0013f	74 25		 je	 SHORT $L269145

; 292  : 			{
; 293  : 				if( pTarget->SetDark( TRUE, dwSkillTime, nDestData[1] ) == FALSE )		// nDestData1[1] :  .

  00141	8b 44 24 24	 mov	 eax, DWORD PTR _nDestData$[esp+48]
  00145	50		 push	 eax
  00146	51		 push	 ecx
  00147	6a 01		 push	 1
  00149	8b ce		 mov	 ecx, esi
  0014b	e8 00 00 00 00	 call	 ?SetDark@CMover@@QAEHHKH@Z ; CMover::SetDark
  00150	85 c0		 test	 eax, eax
  00152	0f 84 3f 05 00
	00		 je	 $L275917

; 294  : 					return FALSE;
; 295  : 				pTarget->m_wDarkCnt = 0;		//   

  00158	66 c7 86 d2 06
	00 00 00 00	 mov	 WORD PTR [esi+1746], 0

; 296  : 			} else

  00161	e9 10 05 00 00	 jmp	 $L269121
$L269145:

; 297  : 
; 298  : 			if( nAdjParam & CHS_BLEEDING )	// ..

  00166	84 ff		 test	 bh, bh
  00168	79 49		 jns	 SHORT $L269148

; 299  : 			{
; 300  : 				if( nDestData[0] < 0 )

  0016a	85 d2		 test	 edx, edx
  0016c	7d 14		 jge	 SHORT $L269149

; 301  : 					nDestData[0]	= nDamage / 5;

  0016e	b8 67 66 66 66	 mov	 eax, 1717986919		; 66666667H
  00173	f7 6c 24 40	 imul	 DWORD PTR _nDamage$[esp+40]
  00177	8b c2		 mov	 eax, edx
  00179	d1 f8		 sar	 eax, 1
  0017b	8b d0		 mov	 edx, eax
  0017d	c1 ea 1f	 shr	 edx, 31			; 0000001fH
  00180	03 d0		 add	 edx, eax
$L269149:

; 302  : 				if( pTarget->SetBleeding( TRUE, pSrc->GetId(), dwSkillTime, dwPainTime, nDestData[0] ) == FALSE )

  00182	8b 44 24 30	 mov	 eax, DWORD PTR _pSrc$[esp+40]
  00186	8b 80 bc 01 00
	00		 mov	 eax, DWORD PTR [eax+444]
  0018c	52		 push	 edx
  0018d	8b 54 24 18	 mov	 edx, DWORD PTR _dwPainTime$[esp+48]
  00191	52		 push	 edx
  00192	51		 push	 ecx
  00193	50		 push	 eax
  00194	6a 01		 push	 1
  00196	8b ce		 mov	 ecx, esi
  00198	e8 00 00 00 00	 call	 ?SetBleeding@CMover@@QAEHHKKKF@Z ; CMover::SetBleeding
  0019d	85 c0		 test	 eax, eax
  0019f	0f 84 f2 04 00
	00		 je	 $L275917

; 304  : 				pTarget->m_wBleedingCnt = 0;		//   

  001a5	66 c7 86 d6 06
	00 00 00 00	 mov	 WORD PTR [esi+1750], 0

; 305  : 			} else

  001ae	e9 c3 04 00 00	 jmp	 $L269121
$L269148:

; 306  : 			{
; 307  : 				//    .
; 308  : 				BOOL bAble = TRUE;
; 309  : 				if( (nAdjParam & CHS_SLOW) && pTarget->GetProp()->dwClass == RANK_MIDBOSS )		//    .

  001b3	f6 c7 10	 test	 bh, 16			; 00000010H
  001b6	74 14		 je	 SHORT $L275921
  001b8	8b ce		 mov	 ecx, esi
  001ba	e8 00 00 00 00	 call	 ?GetPropA@CMover@@QAEPAUMoverProp@@XZ ; CMover::GetPropA
  001bf	83 b8 94 00 00
	00 05		 cmp	 DWORD PTR [eax+148], 5

; 310  : 					bAble = FALSE;		// .
; 311  : 				if( bAble )

  001c6	0f 84 aa 04 00
	00		 je	 $L269121
$L275921:

; 312  : 					pTarget->SetDestParam( dwDestParam, nAdjParam, NULL_CHGPARAM, TRUE );

  001cc	6a 01		 push	 1
  001ce	68 ff ff ff 7f	 push	 2147483647		; 7fffffffH

; 489  : 		default: //  DST_   .
; 490  : 			//  DST_
; 491  : 			pTarget->SetDestParam( dwDestParam, nAdjParam, nChgParam, bSend );

  001d3	53		 push	 ebx
  001d4	57		 push	 edi
  001d5	8b ce		 mov	 ecx, esi

; 492  : 			break;

  001d7	e9 95 04 00 00	 jmp	 $L275939
$L269155:

; 313  : 			}
; 314  : 			break;
; 315  : 
; 316  : 		case DST_CHR_STEALHP: 			// HP.   DST_   .
; 317  : 			{
; 318  : 				int nStealHP = (int)( nDamage * (nAdjParam / 100.0f) );	//    .
; 319  : 				if( pSrc->GetType() == OT_MOVER )

  001dc	8b 44 24 30	 mov	 eax, DWORD PTR _pSrc$[esp+40]
  001e0	83 b8 70 01 00
	00 05		 cmp	 DWORD PTR [eax+368], 5
  001e7	0f 85 89 04 00
	00		 jne	 $L269121

; 320  : 					((CMover *)pSrc)->SetDestParam( DST_HP, nStealHP, NULL_CHGPARAM );		//  HP .

  001ed	db 44 24 1c	 fild	 DWORD PTR _nAdjParam$[esp+44]
  001f1	6a 01		 push	 1
  001f3	68 ff ff ff 7f	 push	 2147483647		; 7fffffffH
  001f8	d8 0d 00 00 00
	00		 fmul	 DWORD PTR __real@3c23d70a
  001fe	da 4c 24 48	 fimul	 DWORD PTR _nDamage$[esp+48]
  00202	e8 00 00 00 00	 call	 __ftol2
  00207	8b 4c 24 38	 mov	 ecx, DWORD PTR _pSrc$[esp+48]
  0020b	50		 push	 eax
  0020c	6a 26		 push	 38			; 00000026H

; 321  : 			}
; 322  : 			break;

  0020e	e9 5e 04 00 00	 jmp	 $L275939
$L269160:

; 323  : 		case DST_CHR_STEALHP_IMM: 			//  HP.  
; 324  : 			{
; 325  : 				if( GetType() == OT_MOVER )

  00213	83 be 70 01 00
	00 05		 cmp	 DWORD PTR [esi+368], 5
  0021a	0f 85 56 04 00
	00		 jne	 $L269121

; 326  : 				{
; 327  : 					int nHP = GetHitPoint();		//  hp

  00220	8b ce		 mov	 ecx, esi
  00222	e8 00 00 00 00	 call	 ?GetHitPoint@CMover@@QAEHXZ ; CMover::GetHitPoint

; 328  : 					int nStealHP = nAdjParam;	//  hp
; 329  : 					if( nHP < nStealHP )	//     .

  00227	3b c3		 cmp	 eax, ebx
  00229	7d 02		 jge	 SHORT $L269164

; 330  : 						nStealHP = nHP;		//  

  0022b	8b d8		 mov	 ebx, eax
$L269164:

; 331  : 					//SetDestParam( DST_HP, -nStealHP, 0 );		//  .
; 332  : 					if( pSrc->GetType() == OT_MOVER )

  0022d	8b 7c 24 30	 mov	 edi, DWORD PTR _pSrc$[esp+40]
  00231	83 bf 70 01 00
	00 05		 cmp	 DWORD PTR [edi+368], 5
  00238	0f 85 38 04 00
	00		 jne	 $L269121

; 333  : 					{
; 334  : //   						((CMover*)this)->m_pActMover->SendDamage( AF_FORCE,		//  
; 335  : //   													      GetId(), 
; 336  : //  														  nStealHP );
; 337  : 						// chipi_080303   -      
; 338  :  						((CMover*)this)->m_pActMover->SendDamage( AF_FORCE,		//  
; 339  :   														  ((CMover*)pSrc)->GetId(), 
; 340  :  														  nStealHP );

  0023e	8b 87 bc 01 00
	00		 mov	 eax, DWORD PTR [edi+444]
  00244	8b 8e 3c 02 00
	00		 mov	 ecx, DWORD PTR [esi+572]
  0024a	8b 11		 mov	 edx, DWORD PTR [ecx]
  0024c	6a 00		 push	 0
  0024e	6a 01		 push	 1
  00250	53		 push	 ebx
  00251	50		 push	 eax
  00252	68 00 20 00 00	 push	 8192			; 00002000H
  00257	6a 29		 push	 41			; 00000029H
  00259	ff 52 04	 call	 DWORD PTR [edx+4]

; 341  : 
; 342  : 
; 343  : 						((CMover *)pSrc)->SetDestParam( DST_HP, nStealHP, NULL_CHGPARAM, TRUE  );		//  HP .

  0025c	6a 01		 push	 1
  0025e	68 ff ff ff 7f	 push	 2147483647		; 7fffffffH
  00263	53		 push	 ebx
  00264	6a 26		 push	 38			; 00000026H

; 344  : 					}
; 345  : 				}
; 346  : 			}
; 347  : 			break;

  00266	e9 04 04 00 00	 jmp	 $L275940
$L269171:

; 352  : 
; 353  : 		case DST_CLEARBUFF:		//   .
; 354  : 			if( nAdjParam == NULL_ID )

  0026b	83 fb ff	 cmp	 ebx, -1
  0026e	75 0c		 jne	 SHORT $L269172

; 355  : 			{
; 356  : 				pTarget->RemoveBuffAll();

  00270	8b ce		 mov	 ecx, esi
  00272	e8 00 00 00 00	 call	 ?RemoveBuffAll@CMover@@QAEXXZ ; CMover::RemoveBuffAll

; 357  : 			}
; 358  : 			else

  00277	e9 fa 03 00 00	 jmp	 $L269121
$L269172:

; 359  : 			{
; 360  : 				for( int i = 0; i < nAdjParam; i ++ )

  0027c	85 db		 test	 ebx, ebx
  0027e	0f 8e f2 03 00
	00		 jle	 $L269121
$L269175:

; 361  : 					pTarget->RemoveBuffOne();

  00284	6a 00		 push	 0
  00286	8b ce		 mov	 ecx, esi
  00288	e8 00 00 00 00	 call	 ?RemoveBuffOne@CMover@@QAEXK@Z ; CMover::RemoveBuffOne
  0028d	4b		 dec	 ebx
  0028e	75 f4		 jne	 SHORT $L269175

; 362  : 			}
; 363  : 			break;

  00290	e9 e1 03 00 00	 jmp	 $L269121
$L269179:

; 370  : 			break;
; 371  : 			
; 372  : #ifdef __WORLDSERVER
; 373  : 		case DST_HP:	// .
; 374  : 			if( pAddSkillProp )

  00295	85 ed		 test	 ebp, ebp
  00297	0f 84 d9 03 00
	00		 je	 $L269121

; 375  : 			{
; 376  : 				if( pSkillProp->dwReferTarget1 == RT_HEAL || pSkillProp->dwReferTarget2 == RT_HEAL )

  0029d	8b 44 24 34	 mov	 eax, DWORD PTR _pSkillProp$[esp+40]
  002a1	8b 88 08 02 00
	00		 mov	 ecx, DWORD PTR [eax+520]
  002a7	83 f9 03	 cmp	 ecx, 3
  002aa	74 0d		 je	 SHORT $L269182
  002ac	83 b8 0c 02 00
	00 03		 cmp	 DWORD PTR [eax+524], 3
  002b3	0f 85 bd 03 00
	00		 jne	 $L269121
$L269182:

; 377  : 				{
; 378  : 					DWORD dwHp1 = 0, dwHp2 = 0;
; 379  : 					
; 380  : 					if( pSrc->GetType() == OT_MOVER )	//     

  002b9	8b 54 24 30	 mov	 edx, DWORD PTR _pSrc$[esp+40]
  002bd	8b ba 70 01 00
	00		 mov	 edi, DWORD PTR [edx+368]
  002c3	33 db		 xor	 ebx, ebx
  002c5	83 ff 05	 cmp	 edi, 5
  002c8	89 5c 24 38	 mov	 DWORD PTR _dwHp1$269183[esp+40], ebx
  002cc	0f 85 2e 01 00
	00		 jne	 $L269198

; 381  : 					{
; 382  : 						if( pSkillProp->dwReferTarget1 == RT_HEAL )

  002d2	83 f9 03	 cmp	 ecx, 3
  002d5	0f 85 8f 00 00
	00		 jne	 $L269186

; 383  : 						{
; 384  : 							switch( pSkillProp->dwReferStat1 )

  002db	8b 80 00 02 00
	00		 mov	 eax, DWORD PTR [eax+512]
  002e1	83 e8 02	 sub	 eax, 2
  002e4	74 1a		 je	 SHORT $L269193
  002e6	48		 dec	 eax
  002e7	74 0c		 je	 SHORT $L269195
  002e9	48		 dec	 eax
  002ea	75 21		 jne	 SHORT $L269188

; 385  : 							{
; 386  : 							case DST_STA:		dwHp1 = ((CMover *)pSrc)->GetSta();			break;

  002ec	8b ca		 mov	 ecx, edx
  002ee	e8 00 00 00 00	 call	 ?GetSta@CMover@@QAEHXZ	; CMover::GetSta
  002f3	eb 14		 jmp	 SHORT $L275941
$L269195:

; 388  : 							case DST_INT:		dwHp1 = ((CMover *)pSrc)->GetInt();			break;

  002f5	8b 4c 24 30	 mov	 ecx, DWORD PTR _pSrc$[esp+40]
  002f9	e8 00 00 00 00	 call	 ?GetInt@CMover@@QAEHXZ	; CMover::GetInt
  002fe	eb 09		 jmp	 SHORT $L275941
$L269193:

; 387  : 							case DST_DEX:		dwHp1 = ((CMover *)pSrc)->GetDex();			break;

  00300	8b 4c 24 30	 mov	 ecx, DWORD PTR _pSrc$[esp+40]
  00304	e8 00 00 00 00	 call	 ?GetDex@CMover@@QAEHXZ	; CMover::GetDex
$L275941:
  00309	89 44 24 38	 mov	 DWORD PTR _dwHp1$269183[esp+40], eax
$L269188:

; 389  : 							}
; 390  : 							dwHp1 = (DWORD)( ((pSkillProp->dwReferValue1 / 10.0f) * dwHp1) + (pAddSkillProp->dwSkillLvl * FLOAT(dwHp1 / 50.0f)) );

  0030d	8b 44 24 38	 mov	 eax, DWORD PTR _dwHp1$269183[esp+40]
  00311	db 44 24 38	 fild	 DWORD PTR _dwHp1$269183[esp+40]
  00315	85 c0		 test	 eax, eax
  00317	7d 06		 jge	 SHORT $L275931
  00319	d8 05 00 00 00
	00		 fadd	 DWORD PTR __real@4f800000
$L275931:
  0031f	8b 4c 24 34	 mov	 ecx, DWORD PTR _pSkillProp$[esp+40]
  00323	8b 91 10 02 00
	00		 mov	 edx, DWORD PTR [ecx+528]
  00329	db 81 10 02 00
	00		 fild	 DWORD PTR [ecx+528]
  0032f	85 d2		 test	 edx, edx
  00331	7d 06		 jge	 SHORT $L275932
  00333	d8 05 00 00 00
	00		 fadd	 DWORD PTR __real@4f800000
$L275932:
  00339	d8 0d 00 00 00
	00		 fmul	 DWORD PTR __real@3dcccccd
  0033f	8b 45 08	 mov	 eax, DWORD PTR [ebp+8]
  00342	85 c0		 test	 eax, eax
  00344	d8 c9		 fmul	 ST(0), ST(1)
  00346	db 45 08	 fild	 DWORD PTR [ebp+8]
  00349	7d 06		 jge	 SHORT $L275933
  0034b	d8 05 00 00 00
	00		 fadd	 DWORD PTR __real@4f800000
$L275933:
  00351	d8 ca		 fmul	 ST(0), ST(2)
  00353	d8 0d 00 00 00
	00		 fmul	 DWORD PTR __real@3ca3d70a
  00359	de c1		 faddp	 ST(1), ST(0)
  0035b	e8 00 00 00 00	 call	 __ftol2
  00360	dd d8		 fstp	 ST(0)
  00362	89 44 24 38	 mov	 DWORD PTR _dwHp1$269183[esp+40], eax
  00366	8b 44 24 34	 mov	 eax, DWORD PTR _pSkillProp$[esp+40]
$L269186:

; 391  : 						}
; 392  : 						
; 393  : 						if( pSkillProp->dwReferTarget2 == RT_HEAL )

  0036a	83 b8 0c 02 00
	00 03		 cmp	 DWORD PTR [eax+524], 3
  00371	0f 85 89 00 00
	00		 jne	 $L269198

; 394  : 						{
; 395  : 							switch( pSkillProp->dwReferStat2 )

  00377	8b 80 04 02 00
	00		 mov	 eax, DWORD PTR [eax+516]
  0037d	83 e8 02	 sub	 eax, 2
  00380	74 1c		 je	 SHORT $L269205
  00382	48		 dec	 eax
  00383	74 0e		 je	 SHORT $L269207
  00385	48		 dec	 eax
  00386	75 21		 jne	 SHORT $L269200

; 396  : 							{
; 397  : 							case DST_STA:		dwHp2 = ((CMover *)pSrc)->GetSta();			break;

  00388	8b 4c 24 30	 mov	 ecx, DWORD PTR _pSrc$[esp+40]
  0038c	e8 00 00 00 00	 call	 ?GetSta@CMover@@QAEHXZ	; CMover::GetSta
  00391	eb 14		 jmp	 SHORT $L275942
$L269207:

; 399  : 							case DST_INT:		dwHp2 = ((CMover *)pSrc)->GetInt();			break;

  00393	8b 4c 24 30	 mov	 ecx, DWORD PTR _pSrc$[esp+40]
  00397	e8 00 00 00 00	 call	 ?GetInt@CMover@@QAEHXZ	; CMover::GetInt
  0039c	eb 09		 jmp	 SHORT $L275942
$L269205:

; 398  : 							case DST_DEX:		dwHp2 = ((CMover *)pSrc)->GetDex();			break;

  0039e	8b 4c 24 30	 mov	 ecx, DWORD PTR _pSrc$[esp+40]
  003a2	e8 00 00 00 00	 call	 ?GetDex@CMover@@QAEHXZ	; CMover::GetDex
$L275942:
  003a7	8b d8		 mov	 ebx, eax
$L269200:

; 400  : 							}
; 401  : 							dwHp2 = (DWORD)( ((pSkillProp->dwReferValue2 / 10.0f) * dwHp2) + (pAddSkillProp->dwSkillLvl * FLOAT(dwHp2 / 50.0f)) );

  003a9	85 db		 test	 ebx, ebx
  003ab	89 5c 24 1c	 mov	 DWORD PTR tv1029[esp+44], ebx
  003af	db 44 24 1c	 fild	 DWORD PTR tv1029[esp+44]
  003b3	7d 06		 jge	 SHORT $L275934
  003b5	d8 05 00 00 00
	00		 fadd	 DWORD PTR __real@4f800000
$L275934:
  003bb	8b 4c 24 34	 mov	 ecx, DWORD PTR _pSkillProp$[esp+40]
  003bf	8b 91 14 02 00
	00		 mov	 edx, DWORD PTR [ecx+532]
  003c5	db 81 14 02 00
	00		 fild	 DWORD PTR [ecx+532]
  003cb	85 d2		 test	 edx, edx
  003cd	7d 06		 jge	 SHORT $L275935
  003cf	d8 05 00 00 00
	00		 fadd	 DWORD PTR __real@4f800000
$L275935:
  003d5	d8 0d 00 00 00
	00		 fmul	 DWORD PTR __real@3dcccccd
  003db	8b 45 08	 mov	 eax, DWORD PTR [ebp+8]
  003de	85 c0		 test	 eax, eax
  003e0	d8 c9		 fmul	 ST(0), ST(1)
  003e2	db 45 08	 fild	 DWORD PTR [ebp+8]
  003e5	7d 06		 jge	 SHORT $L275936
  003e7	d8 05 00 00 00
	00		 fadd	 DWORD PTR __real@4f800000
$L275936:
  003ed	d8 ca		 fmul	 ST(0), ST(2)
  003ef	d8 0d 00 00 00
	00		 fmul	 DWORD PTR __real@3ca3d70a
  003f5	de c1		 faddp	 ST(1), ST(0)
  003f7	e8 00 00 00 00	 call	 __ftol2
  003fc	dd d8		 fstp	 ST(0)
  003fe	8b d8		 mov	 ebx, eax
$L269198:

; 402  : 						}
; 403  : 					}
; 404  : 					
; 405  : 					//  HP.
; 406  : 					int nIncHP = pAddSkillProp->nAdjParamVal1 + dwHp1 + dwHp2;

  00400	8b 7d 2c	 mov	 edi, DWORD PTR [ebp+44]
  00403	8b 54 24 38	 mov	 edx, DWORD PTR _dwHp1$269183[esp+40]

; 407  : 					//   ?
; 408  : 					if( (pAddSkillProp->dwDestParam1 == DST_HP || pAddSkillProp->dwDestParam2 == DST_HP) && nIncHP > 0 )

  00407	8b 4d 24	 mov	 ecx, DWORD PTR [ebp+36]
  0040a	03 fb		 add	 edi, ebx
  0040c	b8 26 00 00 00	 mov	 eax, 38			; 00000026H
  00411	03 fa		 add	 edi, edx
  00413	3b c8		 cmp	 ecx, eax
  00415	74 05		 je	 SHORT $L269212
  00417	39 45 28	 cmp	 DWORD PTR [ebp+40], eax
  0041a	75 41		 jne	 SHORT $L269216
$L269212:
  0041c	85 ff		 test	 edi, edi
  0041e	7e 3d		 jle	 SHORT $L269216

; 409  : 					{
; 410  : 						if( pSrc->GetType() == OT_MOVER )

  00420	8b 4c 24 30	 mov	 ecx, DWORD PTR _pSrc$[esp+40]
  00424	83 b9 70 01 00
	00 05		 cmp	 DWORD PTR [ecx+368], 5
  0042b	75 30		 jne	 SHORT $L269216

; 411  : 							if( ((CMover *)pSrc)->IsPlayer() )	//  

  0042d	8b d1		 mov	 edx, ecx
  0042f	8b 82 34 02 00
	00		 mov	 eax, DWORD PTR [edx+564]
  00435	85 c0		 test	 eax, eax
  00437	74 24		 je	 SHORT $L269216

; 412  : 								if( pTarget->GetMaxHitPoint() > pTarget->GetHitPoint() + nIncHP )		//   ?

  00439	8b ce		 mov	 ecx, esi
  0043b	e8 00 00 00 00	 call	 ?GetHitPoint@CMover@@QAEHXZ ; CMover::GetHitPoint
  00440	8b d8		 mov	 ebx, eax
  00442	8b ce		 mov	 ecx, esi
  00444	03 df		 add	 ebx, edi
  00446	e8 00 00 00 00	 call	 ?GetMaxHitPoint@CMover@@QAEHXZ ; CMover::GetMaxHitPoint
  0044b	3b c3		 cmp	 eax, ebx
  0044d	7e 0e		 jle	 SHORT $L269216

; 413  : 									((CUser *)pSrc)->m_nOverHeal = PROCESS_COUNT * 30;				//  30  . 

  0044f	8b 44 24 30	 mov	 eax, DWORD PTR _pSrc$[esp+40]
  00453	c7 80 88 95 00
	00 c2 01 00 00	 mov	 DWORD PTR [eax+38280], 450 ; 000001c2H
$L269216:

; 414  : 					}
; 415  : 					
; 416  : 					// .
; 417  : 					pTarget->SetDestParam( pAddSkillProp->dwDestParam1, nIncHP, pAddSkillProp->dwChgParamVal1, TRUE );

  0045d	8b 4d 34	 mov	 ecx, DWORD PTR [ebp+52]
  00460	8b 55 24	 mov	 edx, DWORD PTR [ebp+36]
  00463	6a 01		 push	 1
  00465	51		 push	 ecx
  00466	57		 push	 edi
  00467	52		 push	 edx

; 489  : 		default: //  DST_   .
; 490  : 			//  DST_
; 491  : 			pTarget->SetDestParam( dwDestParam, nAdjParam, nChgParam, bSend );

  00468	8b ce		 mov	 ecx, esi

; 492  : 			break;

  0046a	e9 02 02 00 00	 jmp	 $L275939
$L269178:

; 364  : 		case DST_CHR_CHANCESTUN:	// adj:		data1:
; 365  : 		case DST_CHR_CHANCEPOISON:	// adj:		data1:
; 366  : 		case DST_CHR_CHANCEDARK:	// adj:		data1:
; 367  : 		case DST_CHR_CHANCEBLEEDING:// adj:		data1:
; 368  : 		case DST_CHR_CHANCESTEALHP:	// adj:		data1:
; 369  : 			pTarget->SetDestParam( dwDestParam, nAdjParam, nChgParam, TRUE );

  0046f	8b 44 24 38	 mov	 eax, DWORD PTR _nChgParam$[esp+40]
  00473	6a 01		 push	 1
  00475	50		 push	 eax

; 489  : 		default: //  DST_   .
; 490  : 			//  DST_
; 491  : 			pTarget->SetDestParam( dwDestParam, nAdjParam, nChgParam, bSend );

  00476	53		 push	 ebx
  00477	57		 push	 edi
  00478	8b ce		 mov	 ecx, esi

; 492  : 			break;

  0047a	e9 f2 01 00 00	 jmp	 $L275939
$L275814:

; 246  : 			nDestData[2] = pSkillProp->nDestData1[2];
; 247  : 		}
; 248  : 		// destParam 1
; 249  : 		switch( dwDestParam )

  0047f	81 ff 2e 27 00
	00		 cmp	 edi, 10030		; 0000272eH
  00485	0f 87 7f 01 00
	00		 ja	 $L275815
  0048b	0f 84 4a 01 00
	00		 je	 $L269218
  00491	8b c7		 mov	 eax, edi
  00493	2d 16 27 00 00	 sub	 eax, 10006		; 00002716H
  00498	0f 84 30 01 00
	00		 je	 $L269170
  0049e	83 e8 0f	 sub	 eax, 15			; 0000000fH
  004a1	0f 84 ea 00 00
	00		 je	 $L269230
  004a7	48		 dec	 eax
  004a8	0f 85 71 01 00
	00		 jne	 $L269245

; 459  : 		case DST_FORCE_DAMAGE_VALUE:
; 460  : 			for ( int i = 0; i <= MAX_BARUNA_DOT; i++ )

  004ae	33 ff		 xor	 edi, edi
  004b0	8d 86 00 07 00
	00		 lea	 eax, DWORD PTR [esi+1792]
$L269235:

; 461  : 			{
; 462  : 				if( m_dwForceAttackerID[i] == 0 )

  004b6	83 38 00	 cmp	 DWORD PTR [eax], 0
  004b9	74 0b		 je	 SHORT $L275911
  004bb	47		 inc	 edi
  004bc	83 c0 04	 add	 eax, 4
  004bf	83 ff 02	 cmp	 edi, 2
  004c2	7e f2		 jle	 SHORT $L269235

; 302  : 				if( pTarget->SetBleeding( TRUE, pSrc->GetId(), dwSkillTime, dwPainTime, nDestData[0] ) == FALSE )

  004c4	eb 67		 jmp	 SHORT $L275943
$L275911:

; 463  : 				{
; 464  : 					m_dwForceDamageCnt[i] =  (short)( ( pAddSkillProp->dwSkillTime / 1000.0f) * PROCESS_COUNT );

  004c6	8b 4d 70	 mov	 ecx, DWORD PTR [ebp+112]
  004c9	db 45 70	 fild	 DWORD PTR [ebp+112]
  004cc	85 c9		 test	 ecx, ecx
  004ce	7d 06		 jge	 SHORT $L275937
  004d0	d8 05 00 00 00
	00		 fadd	 DWORD PTR __real@4f800000
$L275937:
  004d6	d8 0d 00 00 00
	00		 fmul	 DWORD PTR __real@3a83126f
  004dc	d8 0d 00 00 00
	00		 fmul	 DWORD PTR __real@41700000
  004e2	e8 00 00 00 00	 call	 __ftol2

; 465  : 					m_dwForceDamageDamage[i] = (short)pAddSkillProp->nAdjParamVal1;
; 466  : 					m_dwForceDamageUnit[i] = pAddSkillProp->dwPainTime;
; 467  : 					m_dwForceAttackerID[i] = pSrc->GetId();

  004e7	8b 4c 24 30	 mov	 ecx, DWORD PTR _pSrc$[esp+40]
  004eb	66 89 84 7e e6
	06 00 00	 mov	 WORD PTR [esi+edi*2+1766], ax
  004f3	66 8b 55 2c	 mov	 dx, WORD PTR [ebp+44]
  004f7	66 89 94 7e de
	06 00 00	 mov	 WORD PTR [esi+edi*2+1758], dx
  004ff	8b 45 6c	 mov	 eax, DWORD PTR [ebp+108]
  00502	89 84 be f0 06
	00 00		 mov	 DWORD PTR [esi+edi*4+1776], eax
  00509	8b 91 bc 01 00
	00		 mov	 edx, DWORD PTR [ecx+444]

; 468  : 					//m_adjParamAry[DST_FORCE_DAMAGE_VALUE]	+= pAddSkillProp->nAdjParamVal1;
; 469  : 					pTarget->SetDestParam( dwDestParam, nAdjParam, nChgParam, bSend );

  0050f	8b 44 24 3c	 mov	 eax, DWORD PTR _bSend$[esp+40]
  00513	8b 4c 24 38	 mov	 ecx, DWORD PTR _nChgParam$[esp+40]
  00517	50		 push	 eax
  00518	51		 push	 ecx
  00519	53		 push	 ebx
  0051a	68 26 27 00 00	 push	 10022			; 00002726H
  0051f	8b ce		 mov	 ecx, esi
  00521	89 94 be 00 07
	00 00		 mov	 DWORD PTR [esi+edi*4+1792], edx
  00528	e8 00 00 00 00	 call	 ?SetDestParam@CMover@@QAEXHHHH@Z ; CMover::SetDestParam
$L275943:
  0052d	8b 7c 24 18	 mov	 edi, DWORD PTR _dwDestParam$[esp+44]
$L275930:

; 470  : 					break;
; 471  : 				}
; 472  : 			}
; 473  : #endif // __WORLDSERVER
; 474  : #endif // __BARUNA_PIERCING
; 475  : 		case DST_SPEED:
; 476  : 			{
; 477  : 				MoverProp *pMoverProp = pTarget->GetProp();

  00531	8b 86 74 01 00
	00		 mov	 eax, DWORD PTR [esi+372]
  00537	85 c0		 test	 eax, eax
  00539	7c 35		 jl	 SHORT $L275903
  0053b	3b 05 d0 01 00
	00		 cmp	 eax, DWORD PTR ?prj@@3VCProject@@A+464
  00541	7d 2d		 jge	 SHORT $L275903
  00543	8b 0d d4 01 00
	00		 mov	 ecx, DWORD PTR ?prj@@3VCProject@@A+468
  00549	69 c0 d8 06 00
	00		 imul	 eax, 1752		; 000006d8H
  0054f	03 c1		 add	 eax, ecx

; 478  : 				if( pMoverProp )

  00551	85 c0		 test	 eax, eax
  00553	0f 84 1d 01 00
	00		 je	 $L269121

; 479  : 				{
; 480  : 					if( pMoverProp->dwClass != RANK_MIDBOSS		// MIDBOSS   .
; 481  : #if __VER >= 12 // __SECRET_ROOM
; 482  : 						&& pMoverProp->dwClass != RANK_SUPER	// 12  SUPER .
; 483  : #endif // __SECRET_ROOM
; 484  : 						)		

  00559	8b 80 94 00 00
	00		 mov	 eax, DWORD PTR [eax+148]
  0055f	83 f8 05	 cmp	 eax, 5
  00562	0f 84 0e 01 00
	00		 je	 $L269121
  00568	83 f8 07	 cmp	 eax, 7

; 485  : 						pTarget->SetDestParam( dwDestParam, nAdjParam, nChgParam, bSend );
; 486  : 				}
; 487  : 			}
; 488  : 			break;

  0056b	e9 ad 00 00 00	 jmp	 $L275944

; 470  : 					break;
; 471  : 				}
; 472  : 			}
; 473  : #endif // __WORLDSERVER
; 474  : #endif // __BARUNA_PIERCING
; 475  : 		case DST_SPEED:
; 476  : 			{
; 477  : 				MoverProp *pMoverProp = pTarget->GetProp();

$L275903:
  00570	8b 15 d0 01 00
	00		 mov	 edx, DWORD PTR ?prj@@3VCProject@@A+464
  00576	50		 push	 eax
  00577	52		 push	 edx
  00578	6a 00		 push	 0
  0057a	68 00 00 00 00	 push	 OFFSET FLAT:??_C@_0BJ@GKPOBPPI@GetMoverProp?5range_error?$AA@
  0057f	68 00 00 00 00	 push	 OFFSET FLAT:??_C@_0BM@HMFGHCP@?$CFs?5min?3?$CFd?0?5max?3?$CFd?0?5index?3?$CFd?$AA@
  00584	e8 00 00 00 00	 call	 ?Error@@YAPBDPBDZZ	; Error
  00589	83 c4 14	 add	 esp, 20			; 00000014H

; 478  : 				if( pMoverProp )

  0058c	e9 e5 00 00 00	 jmp	 $L269121
$L269230:

; 441  : 			}
; 442  : 			break;
; 443  : 		case DST_FORCE_DAMAGE_SAFE_HP_RATE:
; 444  : 			{
; 445  : 				//if( pAddSkillProp->nAdjParamVal1 == 0 )
; 446  : 				//{
; 447  : 				//	((CMover*)pSrc)->DoDie( pSrc);	
; 448  : 				//}
; 449  : 				//else
; 450  : 				//{
; 451  : //					int nDecHp = ((((CMover*)pSrc)->GetMaxHitPoint() * pAddSkillProp->nAdjParamVal1 ) / 10000);
; 452  : //					if( ((CMover*)pSrc)->GetHitPointPercent() >= nDecHP )
; 453  : //						((CMover*)pSrc)->SetDestParam( DST_HP, nDecHp, pAddSkillProp->dwChgParamVal1, TRUE);
; 454  : 				//}
; 455  : 				pTarget->SendDamage( AF_FORCE, ((CMover*)pSrc)->GetId(), 
; 456  : 					( pTarget->GetMaxHitPoint() / 10000 ) * pAddSkillProp->nAdjParamVal1 ) ;

  00591	8b 54 24 30	 mov	 edx, DWORD PTR _pSrc$[esp+40]
  00595	8b ba bc 01 00
	00		 mov	 edi, DWORD PTR [edx+444]
  0059b	8b 1e		 mov	 ebx, DWORD PTR [esi]
  0059d	6a 01		 push	 1
  0059f	8b ce		 mov	 ecx, esi
  005a1	e8 00 00 00 00	 call	 ?GetMaxHitPoint@CMover@@QAEHXZ ; CMover::GetMaxHitPoint
  005a6	8b c8		 mov	 ecx, eax
  005a8	b8 ad 8b db 68	 mov	 eax, 1759218605		; 68db8badH
  005ad	f7 e9		 imul	 ecx
  005af	c1 fa 0c	 sar	 edx, 12			; 0000000cH
  005b2	8b c2		 mov	 eax, edx
  005b4	c1 e8 1f	 shr	 eax, 31			; 0000001fH
  005b7	03 c2		 add	 eax, edx
  005b9	0f af 45 2c	 imul	 eax, DWORD PTR [ebp+44]
  005bd	50		 push	 eax
  005be	57		 push	 edi
  005bf	68 00 20 00 00	 push	 8192			; 00002000H
  005c4	8b ce		 mov	 ecx, esi
  005c6	ff 53 34	 call	 DWORD PTR [ebx+52]

; 457  : 			}
; 458  : 			break;

  005c9	e9 a8 00 00 00	 jmp	 $L269121
$L269170:

; 348  : 
; 349  : 		case DST_CURECHR:		//  
; 350  : 			pTarget->RemoveDebuff( nAdjParam );

  005ce	53		 push	 ebx
  005cf	8b ce		 mov	 ecx, esi
  005d1	e8 00 00 00 00	 call	 ?RemoveDebuff@CMover@@QAEXK@Z ; CMover::RemoveDebuff

; 351  : 			break;

  005d6	e9 9b 00 00 00	 jmp	 $L269121
$L269218:

; 418  : 					
; 419  : 				}
; 420  : 			}
; 421  : 			break;
; 422  : #endif // WorldServer
; 423  : #ifdef __BARUNA_PIERCING
; 424  : #ifdef __WORLDSERVER
; 425  : 		case DST_HEAL_HP_RATE:
; 426  : 			{
; 427  : 				int nIncHp = (((CMover*)pSrc)->GetMaxHitPoint() / 10000 ) * pAddSkillProp->nAdjParamVal1;

  005db	8b 7c 24 30	 mov	 edi, DWORD PTR _pSrc$[esp+40]
  005df	8b cf		 mov	 ecx, edi
  005e1	e8 00 00 00 00	 call	 ?GetMaxHitPoint@CMover@@QAEHXZ ; CMover::GetMaxHitPoint
  005e6	8b c8		 mov	 ecx, eax
  005e8	b8 ad 8b db 68	 mov	 eax, 1759218605		; 68db8badH
  005ed	f7 e9		 imul	 ecx
  005ef	c1 fa 0c	 sar	 edx, 12			; 0000000cH
  005f2	8b ca		 mov	 ecx, edx
  005f4	c1 e9 1f	 shr	 ecx, 31			; 0000001fH
  005f7	03 ca		 add	 ecx, edx

; 428  : 				((CMover*)pSrc)->SetDestParam( DST_HP, nIncHp, pAddSkillProp->dwChgParamVal1, TRUE);

  005f9	8b 55 34	 mov	 edx, DWORD PTR [ebp+52]
  005fc	8b c1		 mov	 eax, ecx
  005fe	0f af 45 2c	 imul	 eax, DWORD PTR [ebp+44]
  00602	6a 01		 push	 1
  00604	52		 push	 edx
  00605	50		 push	 eax
  00606	6a 26		 push	 38			; 00000026H

; 429  : 			}
; 430  : 			break;

  00608	eb 65		 jmp	 SHORT $L275940
$L275815:

; 246  : 			nDestData[2] = pSkillProp->nDestData1[2];
; 247  : 		}
; 248  : 		// destParam 1
; 249  : 		switch( dwDestParam )

  0060a	81 ff 2f 27 00
	00		 cmp	 edi, 10031		; 0000272fH
  00610	74 3e		 je	 SHORT $L269226
  00612	81 ff 30 27 00
	00		 cmp	 edi, 10032		; 00002730H
  00618	74 15		 je	 SHORT $L269222
  0061a	83 ff ff	 cmp	 edi, -1
$L275944:
  0061d	74 57		 je	 SHORT $L269121
$L269245:

; 489  : 		default: //  DST_   .
; 490  : 			//  DST_
; 491  : 			pTarget->SetDestParam( dwDestParam, nAdjParam, nChgParam, bSend );

  0061f	8b 44 24 3c	 mov	 eax, DWORD PTR _bSend$[esp+40]
  00623	8b 4c 24 38	 mov	 ecx, DWORD PTR _nChgParam$[esp+40]
  00627	50		 push	 eax
  00628	51		 push	 ecx
  00629	53		 push	 ebx
  0062a	57		 push	 edi
  0062b	8b ce		 mov	 ecx, esi

; 492  : 			break;

  0062d	eb 42		 jmp	 SHORT $L275939
$L269222:

; 431  : 		case DST_HEAL_FP_RATE:
; 432  : 			{
; 433  : 				int nIncFp = (((CMover*)pSrc)->GetMaxFatiguePoint() * 10000 ) / pAddSkillProp->nAdjParamVal1;

  0062f	8b 7c 24 30	 mov	 edi, DWORD PTR _pSrc$[esp+40]
  00633	8b cf		 mov	 ecx, edi
  00635	e8 00 00 00 00	 call	 ?GetMaxFatiguePoint@CMover@@QAEHXZ ; CMover::GetMaxFatiguePoint
  0063a	69 c0 10 27 00
	00		 imul	 eax, 10000		; 00002710H
  00640	33 d2		 xor	 edx, edx
  00642	f7 75 2c	 div	 DWORD PTR [ebp+44]

; 434  : 				((CMover*)pSrc)->SetDestParam( DST_FP, nIncFp, pAddSkillProp->dwChgParamVal1, TRUE);

  00645	8b 55 34	 mov	 edx, DWORD PTR [ebp+52]
  00648	6a 01		 push	 1
  0064a	52		 push	 edx
  0064b	50		 push	 eax
  0064c	6a 28		 push	 40			; 00000028H

; 435  : 			}
; 436  : 			break;

  0064e	eb 1f		 jmp	 SHORT $L275940
$L269226:

; 437  : 		case DST_HEAL_MP_RATE:
; 438  : 			{
; 439  : 				int nIncMp = (((CMover*)pSrc)->GetMaxManaPoint() * 10000 ) / pAddSkillProp->nAdjParamVal1;

  00650	8b 7c 24 30	 mov	 edi, DWORD PTR _pSrc$[esp+40]
  00654	8b cf		 mov	 ecx, edi
  00656	e8 00 00 00 00	 call	 ?GetMaxManaPoint@CMover@@QAEHXZ ; CMover::GetMaxManaPoint
  0065b	69 c0 10 27 00
	00		 imul	 eax, 10000		; 00002710H
  00661	33 d2		 xor	 edx, edx
  00663	f7 75 2c	 div	 DWORD PTR [ebp+44]

; 440  : 				((CMover*)pSrc)->SetDestParam( DST_MP, nIncMp, pAddSkillProp->dwChgParamVal1, TRUE);

  00666	8b 4d 34	 mov	 ecx, DWORD PTR [ebp+52]
  00669	6a 01		 push	 1
  0066b	51		 push	 ecx
  0066c	50		 push	 eax
  0066d	6a 27		 push	 39			; 00000027H
$L275940:
  0066f	8b cf		 mov	 ecx, edi
$L275939:
  00671	e8 00 00 00 00	 call	 ?SetDestParam@CMover@@QAEXHHHH@Z ; CMover::SetDestParam
$L269121:

; 207  : 	int		i;
; 208  : 	CMover *pTarget = (CMover *)this;
; 209  : 
; 210  : 	DWORD	dwDestParam, dwSkillTime, dwPainTime, dwAbilityMin;
; 211  : 	int		nAdjParam, nChgParam;
; 212  : 	int		nDestData[3];
; 213  : 
; 214  : #if __VER >= 9	// __SKILL_0706
; 215  : 	BOOL bPVP	= pSrc->GetType() == OT_MOVER && ( (CMover*)pSrc )->IsPlayer() && IsPlayer();
; 216  : #endif	// __SKILL_0706
; 217  : 
; 218  : 	for( i = 0; i < 2; i ++ )

  00676	8b 44 24 10	 mov	 eax, DWORD PTR _i$[esp+44]
  0067a	40		 inc	 eax
  0067b	83 f8 02	 cmp	 eax, 2
  0067e	89 44 24 10	 mov	 DWORD PTR _i$[esp+44], eax
  00682	0f 8c 8d f9 ff
	ff		 jl	 $L269120
  00688	5f		 pop	 edi
  00689	5e		 pop	 esi
  0068a	5d		 pop	 ebp

; 493  : 		}
; 494  : 	}
; 495  : 
; 496  : 	return TRUE;

  0068b	b8 01 00 00 00	 mov	 eax, 1
  00690	5b		 pop	 ebx

; 497  : }

  00691	83 c4 1c	 add	 esp, 28			; 0000001cH
  00694	c2 14 00	 ret	 20			; 00000014H
$L275917:
  00697	5f		 pop	 edi
  00698	5e		 pop	 esi
  00699	5d		 pop	 ebp

; 303  : 					return FALSE;

  0069a	33 c0		 xor	 eax, eax
  0069c	5b		 pop	 ebx

; 497  : }

  0069d	83 c4 1c	 add	 esp, 28			; 0000001cH
  006a0	c2 14 00	 ret	 20			; 00000014H
  006a3	90		 npad	 1
$L275948:
  006a4	00 00 00 00	 DD	 $L275930
  006a8	00 00 00 00	 DD	 $L269179
  006ac	00 00 00 00	 DD	 $L269171
  006b0	00 00 00 00	 DD	 $L269160
  006b4	00 00 00 00	 DD	 $L269155
  006b8	00 00 00 00	 DD	 $L269178
  006bc	00 00 00 00	 DD	 $L269132
  006c0	00 00 00 00	 DD	 $L269245
$L275922:
  006c4	00		 DB	 0
  006c5	07		 DB	 7
  006c6	07		 DB	 7
  006c7	07		 DB	 7
  006c8	07		 DB	 7
  006c9	07		 DB	 7
  006ca	07		 DB	 7
  006cb	07		 DB	 7
  006cc	07		 DB	 7
  006cd	07		 DB	 7
  006ce	07		 DB	 7
  006cf	07		 DB	 7
  006d0	07		 DB	 7
  006d1	07		 DB	 7
  006d2	07		 DB	 7
  006d3	07		 DB	 7
  006d4	07		 DB	 7
  006d5	07		 DB	 7
  006d6	07		 DB	 7
  006d7	07		 DB	 7
  006d8	07		 DB	 7
  006d9	07		 DB	 7
  006da	07		 DB	 7
  006db	07		 DB	 7
  006dc	07		 DB	 7
  006dd	07		 DB	 7
  006de	07		 DB	 7
  006df	01		 DB	 1
  006e0	07		 DB	 7
  006e1	07		 DB	 7
  006e2	07		 DB	 7
  006e3	07		 DB	 7
  006e4	07		 DB	 7
  006e5	07		 DB	 7
  006e6	07		 DB	 7
  006e7	07		 DB	 7
  006e8	07		 DB	 7
  006e9	07		 DB	 7
  006ea	02		 DB	 2
  006eb	03		 DB	 3
  006ec	07		 DB	 7
  006ed	07		 DB	 7
  006ee	07		 DB	 7
  006ef	07		 DB	 7
  006f0	07		 DB	 7
  006f1	04		 DB	 4
  006f2	05		 DB	 5
  006f3	07		 DB	 7
  006f4	05		 DB	 5
  006f5	05		 DB	 5
  006f6	07		 DB	 7
  006f7	07		 DB	 7
  006f8	07		 DB	 7
  006f9	06		 DB	 6
?ApplyParam@CMover@@QAEHPAVCCtrl@@PAUItemProp@@PAUAddSkillProp@@HH@Z ENDP ; CMover::ApplyParam
_TEXT	ENDS
PUBLIC	??_C@_0N@GPEHOKLF@OnMagicSkill?$AA@		; `string'
PUBLIC	?OnMagicSkill@CMover@@QAEHHH@Z			; CMover::OnMagicSkill
PUBLIC	??_C@_0BF@MPKCELDK@CMover?3?3OnMagicSkill?$AA@	; `string'
PUBLIC	??_C@_0DO@MIGMHMLK@OnMagicSkill?5?3?5?$LN?$LK?E?$LD?G?A?$LH?S?$MA?P?$LB?b?5?$LN?G?F?P@ ; `string'
EXTRN	?AddSetPos@CUserMng@@QAEXPAVCCtrl@@AAUD3DXVECTOR3@@@Z:NEAR ; CUserMng::AddSetPos
EXTRN	?AddPushPower@CUserMng@@QAEXPAVCMover@@UD3DXVECTOR3@@MMM@Z:NEAR ; CUserMng::AddPushPower
EXTRN	?Replace@CMover@@QAEHKKAAUD3DXVECTOR3@@W4REPLACE_TYPE@@H@Z:NEAR ; CMover::Replace
EXTRN	?SetPos@CObj@@QAEXABUD3DXVECTOR3@@@Z:NEAR	; CObj::SetPos
EXTRN	?IncManaPoint@CMover@@QAEXH@Z:NEAR		; CMover::IncManaPoint
EXTRN	?IncFatiguePoint@CMover@@QAEXH@Z:NEAR		; CMover::IncFatiguePoint
EXTRN	?GetReqMp@CMover@@QAEHH@Z:NEAR			; CMover::GetReqMp
EXTRN	?GetReqFp@CMover@@QAEHH@Z:NEAR			; CMover::GetReqFp
EXTRN	?GetRevivalPosChao@CWorldMng@@QAEPAUREGIONELEM@@KPBD@Z:NEAR ; CWorldMng::GetRevivalPosChao
EXTRN	?GetNearRevivalPosChao@CWorldMng@@QAEPAUREGIONELEM@@KAAUD3DXVECTOR3@@@Z:NEAR ; CWorldMng::GetNearRevivalPosChao
EXTRN	?GetRevivalPos@CWorldMng@@QAEPAUREGIONELEM@@KPBD@Z:NEAR ; CWorldMng::GetRevivalPos
EXTRN	?GetNearRevivalPos@CWorldMng@@QAEPAUREGIONELEM@@KAAUD3DXVECTOR3@@@Z:NEAR ; CWorldMng::GetNearRevivalPos
EXTRN	?g_uIdofMulti@@3KA:DWORD			; g_uIdofMulti
EXTRN	?g_UserMng@@3VCUserMng@@A:BYTE			; g_UserMng
EXTRN	?g_WorldMng@@3VCWorldMng@@A:BYTE		; g_WorldMng
;	COMDAT ??_C@_0BF@MPKCELDK@CMover?3?3OnMagicSkill?$AA@
; File c:\documents and settings\test\mes documents\source\virtuos_v17\build\program\_common\mover.h
CONST	SEGMENT
??_C@_0BF@MPKCELDK@CMover?3?3OnMagicSkill?$AA@ DB 'CMover::OnMagicSkill', 00H ; `string'
CONST	ENDS
;	COMDAT ??_C@_0DO@MIGMHMLK@OnMagicSkill?5?3?5?$LN?$LK?E?$LD?G?A?$LH?S?$MA?P?$LB?b?5?$LN?G?F?P@
CONST	SEGMENT
??_C@_0DO@MIGMHMLK@OnMagicSkill?5?3?5?$LN?$LK?E?$LD?G?A?$LH?S?$MA?P?$LB?b?5?$LN?G?F?P@ DB 'O'
	DB	'nMagicSkill : ', 0bdH, 0baH, 0c5H, 0b3H, 0c7H, 0c1H, 0b7H, 0d3H
	DB	0c0H, 0d0H, 0b1H, 0e2H, ' ', 0bdH, 0c7H, 0c6H, 0d0H, 0c7H, 0d4H
	DB	'. ', 0c7H, 0f6H, 0c0H, 0e7H, 0c1H, 0f8H, 0c7H, 0e0H, 0c1H, 0dfH
	DB	0c0H, 0ceH, ' Motion=%d %d', 00H		; `string'
CONST	ENDS
;	COMDAT ??_C@_0N@GPEHOKLF@OnMagicSkill?$AA@
CONST	SEGMENT
??_C@_0N@GPEHOKLF@OnMagicSkill?$AA@ DB 'OnMagicSkill', 00H ; `string'
; Function compile flags: /Ogty
; File c:\documents and settings\test\mes documents\source\virtuos_v17\build\program\_common\moveractevent.cpp
CONST	ENDS
;	COMDAT ?OnMagicSkill@CMover@@QAEHHH@Z
_TEXT	SEGMENT
_pAddSkillProp$ = -52					; size = 4
_pSkillProp$ = -48					; size = 4
tv417 = -44						; size = 4
_fDmgPower$269292 = -44					; size = 4
tv428 = -40						; size = 4
_fAngle$269325 = -40					; size = 4
_vSrc$269323 = -36					; size = 12
$T275956 = -36						; size = 12
$T275955 = -36						; size = 12
$T275954 = -36						; size = 12
$T275957 = -24						; size = 12
$T275959 = -12						; size = 12
$T275958 = -12						; size = 12
_nType$ = 8						; size = 4
_nCount$ = 12						; size = 4
?OnMagicSkill@CMover@@QAEHHH@Z PROC NEAR		; CMover::OnMagicSkill, COMDAT
; _this$ = ecx

; 536  : {

  00000	83 ec 34	 sub	 esp, 52			; 00000034H
  00003	53		 push	 ebx
  00004	55		 push	 ebp
  00005	56		 push	 esi
  00006	8b f1		 mov	 esi, ecx

; 537  : 	if( m_oaAct != OBJACT_USESKILL )	

  00008	83 be a0 12 00
	00 05		 cmp	 DWORD PTR [esi+4768], 5
  0000f	57		 push	 edi

; 538  : 		return FALSE;	//      .   .

  00010	75 53		 jne	 SHORT $L276047

; 539  : 
; 540  : 	int			nSkill = GetActParam(0);
; 541  : 	OBJID		idTarget = GetActParam(1);
; 542  : 	DWORD		dwLevel = GetActParam( 3 );

  00012	8b be b0 12 00
	00		 mov	 edi, DWORD PTR [esi+4784]
  00018	8b 86 a4 12 00
	00		 mov	 eax, DWORD PTR [esi+4772]

; 543  : #if __VER >= 8 // __S8_PK
; 544  : 	BOOL	bControl = GetActParam( 4 );
; 545  : #endif // __VER >= 8 // __S8_PK
; 546  : 
; 547  : 	ItemProp*	pSkillProp = NULL;
; 548  : 	AddSkillProp* pAddSkillProp = NULL;
; 549  : 	LPSKILL		pSkill	= NULL;
; 550  : 	
; 551  : 	BOOL bRet = GetSkillProp( &pSkillProp, &pAddSkillProp, nSkill, dwLevel, "CMover::OnMagicSkill" );

  0001e	8b 16		 mov	 edx, DWORD PTR [esi]
  00020	8b 9e a8 12 00
	00		 mov	 ebx, DWORD PTR [esi+4776]
  00026	8b ae b4 12 00
	00		 mov	 ebp, DWORD PTR [esi+4788]
  0002c	68 00 00 00 00	 push	 OFFSET FLAT:??_C@_0BF@MPKCELDK@CMover?3?3OnMagicSkill?$AA@
  00031	57		 push	 edi
  00032	33 c9		 xor	 ecx, ecx
  00034	50		 push	 eax
  00035	89 4c 24 20	 mov	 DWORD PTR _pSkillProp$[esp+80], ecx
  00039	89 4c 24 1c	 mov	 DWORD PTR _pAddSkillProp$[esp+80], ecx
  0003d	8d 44 24 1c	 lea	 eax, DWORD PTR _pAddSkillProp$[esp+80]
  00041	50		 push	 eax
  00042	8d 4c 24 24	 lea	 ecx, DWORD PTR _pSkillProp$[esp+84]
  00046	51		 push	 ecx
  00047	8b ce		 mov	 ecx, esi
  00049	ff 52 30	 call	 DWORD PTR [edx+48]

; 552  : 	if( bRet == FALSE )

  0004c	85 c0		 test	 eax, eax
  0004e	75 21		 jne	 SHORT $L269281

; 553  : 	{
; 554  : 		Error( "OnMagicSkill :  .  Motion=%d %d", m_dwMotion, dwLevel );

  00050	8b 96 dc 02 00
	00		 mov	 edx, DWORD PTR [esi+732]
  00056	57		 push	 edi
  00057	52		 push	 edx
  00058	68 00 00 00 00	 push	 OFFSET FLAT:??_C@_0DO@MIGMHMLK@OnMagicSkill?5?3?5?$LN?$LK?E?$LD?G?A?$LH?S?$MA?P?$LB?b?5?$LN?G?F?P@
  0005d	e8 00 00 00 00	 call	 ?Error@@YAPBDPBDZZ	; Error
  00062	83 c4 0c	 add	 esp, 12			; 0000000cH
$L276047:

; 555  : 		return FALSE;

  00065	33 c0		 xor	 eax, eax

; 704  : #else	// __SKILL_0706
; 705  : 		if( pSkillProp->dwSkillReady != 0xffffffff )	//    
; 706  : 			SetCoolTime( pSkillProp, "OnMagicSkill" );
; 707  : #endif	// __SKILL_0706
; 708  : 	} // bSuccess
; 709  : 
; 710  : #if defined(__CLIENT)
; 711  : 	CModelObject* pModel = (CModelObject*)m_pModel;
; 712  : 	if( pModel )
; 713  : 	{
; 714  : 		pModel->m_SparkInfo.m_bUsed  = TRUE;
; 715  : 		pModel->m_SparkInfo.m_v3Color.x = 2.0f;
; 716  : 		pModel->m_SparkInfo.m_v3Color.y = 2.0f;
; 717  : 		pModel->m_SparkInfo.m_v3Color.z = 2.0f;
; 718  : 		pModel->m_SparkInfo.m_nCnt = 0;
; 719  : 		pModel->m_SparkInfo.m_fLerp= 1.0f;
; 720  : 		
; 721  : 		AngleToVectorXZ( &pModel->m_SparkInfo.m_v3SparkDir, GetAngle(), -1.0f );
; 722  : 	}
; 723  : #endif //defined(__CLIENT)
; 724  : 
; 725  : 	return TRUE;
; 726  : } // OnMagicSkill

  00067	5f		 pop	 edi
  00068	5e		 pop	 esi
  00069	5d		 pop	 ebp
  0006a	5b		 pop	 ebx
  0006b	83 c4 34	 add	 esp, 52			; 00000034H
  0006e	c2 08 00	 ret	 8
$L269281:

; 556  : 	}
; 557  : 	
; 558  : 	CMover* pFocusObj = prj.GetMover( idTarget );		//  .

  00071	53		 push	 ebx
  00072	b9 00 00 00 00	 mov	 ecx, OFFSET FLAT:?prj@@3VCProject@@A
  00077	e8 00 00 00 00	 call	 ?GetMover@CProject@@QAEPAVCMover@@K@Z ; CProject::GetMover
  0007c	8b f8		 mov	 edi, eax

; 559  : 	if( IsInvalidObj( pFocusObj ) )		

  0007e	85 ff		 test	 edi, edi
  00080	74 e3		 je	 SHORT $L276047
  00082	f6 47 04 01	 test	 BYTE PTR [edi+4], 1

; 560  : 		return FALSE;

  00086	75 dd		 jne	 SHORT $L276047

; 561  : 
; 562  : 	if( pSkillProp->dwID == SI_ASS_HEAL_HEALING )	//    

  00088	8b 5c 24 14	 mov	 ebx, DWORD PTR _pSkillProp$[esp+68]
  0008c	8b 03		 mov	 eax, DWORD PTR [ebx]
  0008e	83 f8 2c	 cmp	 eax, 44			; 0000002cH
  00091	89 44 24 18	 mov	 DWORD PTR tv417[esp+68], eax
  00095	75 0f		 jne	 SHORT $L269286

; 563  : 	{
; 564  : 		if( pFocusObj->IsDie() )

  00097	8b cf		 mov	 ecx, edi
  00099	e8 00 00 00 00	 call	 ?IsDie@CMover@@QAEHXZ	; CMover::IsDie
  0009e	85 c0		 test	 eax, eax

; 565  : 			return FALSE;

  000a0	75 c3		 jne	 SHORT $L276047

; 563  : 	{
; 564  : 		if( pFocusObj->IsDie() )

  000a2	8b 44 24 18	 mov	 eax, DWORD PTR tv417[esp+68]
$L269286:

; 566  : 	}
; 567  : 
; 568  : 	BOOL bSuccess = FALSE;
; 569  : 	BOOL bShoot	= pSkillProp->dwExeTarget == EXT_MAGICATKSHOT  || pSkillProp->dwExeTarget == EXT_MAGICSHOT;

  000a6	8b 8b f4 01 00
	00		 mov	 ecx, DWORD PTR [ebx+500]
  000ac	83 f9 0e	 cmp	 ecx, 14			; 0000000eH
  000af	74 05		 je	 SHORT $L275952
  000b1	83 f9 03	 cmp	 ecx, 3
  000b4	75 72		 jne	 SHORT $L269289
$L275952:

; 570  : 	if( bShoot )	//   sfx.
; 571  : 	{
; 572  : #ifdef __WORLDSERVER
; 573  : 		int nMaxDmgCnt	= 1;
; 574  : 		if( pSkillProp->tmContinuousPain != NULL_ID )
; 575  : 			nMaxDmgCnt	= ( pAddSkillProp->dwSkillTime / pAddSkillProp->dwPainTime ) + 1;
; 576  : 		float fDmgPower = 0;
; 577  : 		if( pSkillProp->dwDmgShift != NULL_ID )

  000b6	8b 8b 34 01 00
	00		 mov	 ecx, DWORD PTR [ebx+308]
  000bc	83 f9 ff	 cmp	 ecx, -1
  000bf	c7 44 24 18 00
	00 00 00	 mov	 DWORD PTR _fDmgPower$269292[esp+68], 0
  000c7	89 4c 24 1c	 mov	 DWORD PTR tv428[esp+68], ecx
  000cb	74 0e		 je	 SHORT $L269293

; 578  : 			fDmgPower	= (int)pSkillProp->dwDmgShift * 0.2f;

  000cd	db 44 24 1c	 fild	 DWORD PTR tv428[esp+68]
  000d1	d8 0d 00 00 00
	00		 fmul	 DWORD PTR __real@3e4ccccd
  000d7	d9 5c 24 18	 fstp	 DWORD PTR _fDmgPower$269292[esp+68]
$L269293:

; 579  : //		for( int nDmgCnt = 0; nDmgCnt < nMaxDmgCnt; nDmgCnt++ )
; 580  : #if __VER >= 8 // __S8_PK
; 581  : 			OnAttackSFX( pFocusObj->GetId(), pAddSkillProp->dwSkillLvl, pSkillProp->dwID, 0, GetAngle(), fDmgPower, ( pSkillProp->dwSkillType == KT_SKILL? AF_MELEESKILL: AF_MAGICSKILL ), bControl );

  000db	8b 54 24 18	 mov	 edx, DWORD PTR _fDmgPower$269292[esp+68]
  000df	55		 push	 ebp
  000e0	8b ab 18 02 00
	00		 mov	 ebp, DWORD PTR [ebx+536]
  000e6	33 c9		 xor	 ecx, ecx
  000e8	83 fd 02	 cmp	 ebp, 2
  000eb	0f 95 c1	 setne	 cl
  000ee	49		 dec	 ecx
  000ef	83 e1 f0	 and	 ecx, -16		; fffffff0H
  000f2	83 c1 20	 add	 ecx, 32			; 00000020H
  000f5	51		 push	 ecx
  000f6	8b 4e 18	 mov	 ecx, DWORD PTR [esi+24]
  000f9	52		 push	 edx
  000fa	8b 54 24 1c	 mov	 edx, DWORD PTR _pAddSkillProp$[esp+80]
  000fe	51		 push	 ecx
  000ff	8b 8f bc 01 00
	00		 mov	 ecx, DWORD PTR [edi+444]
  00105	6a 00		 push	 0
  00107	50		 push	 eax
  00108	8b 42 08	 mov	 eax, DWORD PTR [edx+8]
  0010b	50		 push	 eax
  0010c	51		 push	 ecx
  0010d	8b ce		 mov	 ecx, esi
  0010f	e8 00 00 00 00	 call	 ?OnAttackSFX@CMover@@QAEXKHKHMMKH@Z ; CMover::OnAttackSFX

; 582  : #else // __VER >= 8 // __S8_PK
; 583  : 			OnAttackSFX( pFocusObj->GetId(), pAddSkillProp->dwSkillLvl, pSkillProp->dwID, 0, GetAngle(), fDmgPower, ( pSkillProp->dwSkillType == KT_SKILL? AF_MELEESKILL: AF_MAGICSKILL ) );
; 584  : #endif // __VER >= 8 // __S8_PK
; 585  : #endif	// __WORLDSERVER
; 586  : 		bSuccess = ShootSkill( pFocusObj, pSkillProp, pAddSkillProp );		//   .

  00114	8b 54 24 10	 mov	 edx, DWORD PTR _pAddSkillProp$[esp+68]
  00118	8b 44 24 14	 mov	 eax, DWORD PTR _pSkillProp$[esp+68]
  0011c	52		 push	 edx
  0011d	50		 push	 eax
  0011e	57		 push	 edi
  0011f	8b ce		 mov	 ecx, esi
  00121	e8 00 00 00 00	 call	 ?ShootSkill@CCtrl@@QAEHPAV1@PAUItemProp@@PAUAddSkillProp@@@Z ; CCtrl::ShootSkill

; 587  : 	}
; 588  : 	else

  00126	eb 1d		 jmp	 SHORT $L269297
$L269289:

; 589  : 	{
; 590  : 		//  .  ApplySkill() .
; 591  : #if __VER >= 8 // __S8_PK
; 592  : 		int nDamage = DoApplySkill( pFocusObj, pSkillProp, pAddSkillProp, false, 0, FALSE, bControl );

  00128	8b 4c 24 10	 mov	 ecx, DWORD PTR _pAddSkillProp$[esp+68]
  0012c	55		 push	 ebp
  0012d	6a 00		 push	 0
  0012f	6a 00		 push	 0
  00131	6a 00		 push	 0
  00133	51		 push	 ecx
  00134	53		 push	 ebx
  00135	57		 push	 edi
  00136	8b ce		 mov	 ecx, esi
  00138	e8 00 00 00 00	 call	 ?DoApplySkill@CCtrl@@QAEHPAV1@PAUItemProp@@PAUAddSkillProp@@_NHHH@Z ; CCtrl::DoApplySkill

; 593  : #else // __VER >= 8 // __S8_PK
; 594  : 		int nDamage = DoApplySkill( pFocusObj, pSkillProp, pAddSkillProp );
; 595  : #endif // __VER >= 8 // __S8_PK
; 596  : 		if( nDamage == 0 )

  0013d	85 c0		 test	 eax, eax

; 597  : 			return FALSE;

  0013f	0f 84 20 ff ff
	ff		 je	 $L276047
$L269297:

; 598  : 		bSuccess = (BOOL)nDamage;
; 599  : 
; 600  : 	#ifdef __CLIENT	
; 601  : 		if( pSkillProp->dwID == SI_MAG_MAG_BLINKPOOL )
; 602  : 		{
; 603  : 			CWndWorld* pWndWorld = (CWndWorld*)g_WndMng.GetWndBase( APP_WORLD );
; 604  : 			
; 605  : 			if( IsActiveMover() )
; 606  : 			{
; 607  : 				D3DXVECTOR3 vStart;
; 608  : 				D3DXVECTOR3 vEnd;
; 609  : 
; 610  : 				vStart = GetPos();		vStart.y += 1.0f;
; 611  : 				vEnd = pWndWorld->m_vTelePos;
; 612  : 				
; 613  : 				CWorld *pWorld = GetWorld();
; 614  : 				
; 615  : 				if( pWorld->IntersectObjLine( NULL, vStart, vEnd, FALSE, FALSE ) )
; 616  : 				{
; 617  : 					g_WndMng.m_pWndWorld->SetNextSkill( NEXTSKILL_NONE );
; 618  : 					g_WndMng.PutString( prj.GetText( TID_GAME_BLOCKTARGETING ), NULL, prj.GetTextColor( TID_GAME_BLOCKTARGETING ) );
; 619  : 					return FALSE;
; 620  : 				}
; 621  : 			
; 622  : 				g_DPlay.SendTeleSkill( GetId(), pWndWorld->m_vTelePos );
; 623  : 			}
; 624  : 		}
; 625  : 	#endif // Client		
; 626  : 	}
; 627  : 	
; 628  : 	if( bSuccess )	//   . /  .

  00145	85 c0		 test	 eax, eax
  00147	0f 84 e7 01 00
	00		 je	 $L276042

; 629  : 	{
; 630  : 	#ifdef __WORLDSERVER
; 631  : 		//    .
; 632  : 		int nReqMp = GetReqMp( pAddSkillProp->nReqMp );

  0014d	8b 54 24 10	 mov	 edx, DWORD PTR _pAddSkillProp$[esp+68]
  00151	8b 42 54	 mov	 eax, DWORD PTR [edx+84]
  00154	50		 push	 eax
  00155	8b ce		 mov	 ecx, esi
  00157	e8 00 00 00 00	 call	 ?GetReqMp@CMover@@QAEHH@Z ; CMover::GetReqMp

; 633  : 
; 634  : 		#if __VER >= 10 // __LEGEND	//	10 	Neuz, World, Trans
; 635  : 		if(nReqMp != 9999999)

  0015c	3d 7f 96 98 00	 cmp	 eax, 9999999		; 0098967fH
  00161	74 37		 je	 SHORT $L276041

; 636  : 		#endif	//__LEGEND	//	10 	Neuz, World, Trans
; 637  : 		{
; 638  : 			if( pAddSkillProp->nSkillCount > 1 )

  00163	8b 4c 24 10	 mov	 ecx, DWORD PTR _pAddSkillProp$[esp+68]
  00167	8b 49 74	 mov	 ecx, DWORD PTR [ecx+116]
  0016a	83 f9 01	 cmp	 ecx, 1
  0016d	7e 03		 jle	 SHORT $L269304

; 639  : 				nReqMp /= pAddSkillProp->nSkillCount;

  0016f	99		 cdq
  00170	f7 f9		 idiv	 ecx
$L269304:

; 640  : 			IncManaPoint( -nReqMp );

  00172	f7 d8		 neg	 eax
  00174	50		 push	 eax
  00175	8b ce		 mov	 ecx, esi
  00177	e8 00 00 00 00	 call	 ?IncManaPoint@CMover@@QAEXH@Z ; CMover::IncManaPoint

; 641  : 			if( pAddSkillProp->nReqFp != NULL_ID )

  0017c	8b 54 24 10	 mov	 edx, DWORD PTR _pAddSkillProp$[esp+68]
  00180	8b 42 58	 mov	 eax, DWORD PTR [edx+88]
  00183	83 f8 ff	 cmp	 eax, -1
  00186	74 12		 je	 SHORT $L276041

; 642  : 				IncFatiguePoint( -GetReqFp( pAddSkillProp->nReqFp ) );

  00188	50		 push	 eax
  00189	8b ce		 mov	 ecx, esi
  0018b	e8 00 00 00 00	 call	 ?GetReqFp@CMover@@QAEHH@Z ; CMover::GetReqFp
  00190	f7 d8		 neg	 eax
  00192	50		 push	 eax
  00193	8b ce		 mov	 ecx, esi
  00195	e8 00 00 00 00	 call	 ?IncFatiguePoint@CMover@@QAEXH@Z ; CMover::IncFatiguePoint
$L276041:

; 643  : 		}
; 644  : 		
; 645  : 		#if __VER >= 10 // __LEGEND	//	10 	Neuz, World, Trans
; 646  : 			if( pSkillProp->dwID == SI_RIG_HERO_RETURN )

  0019a	8b 44 24 14	 mov	 eax, DWORD PTR _pSkillProp$[esp+68]
  0019e	81 38 f4 00 00
	00		 cmp	 DWORD PTR [eax], 244	; 000000f4H
  001a4	0f 85 c7 00 00
	00		 jne	 $L269320

; 647  : 			{
; 648  : 				REPLACE_TYPE type = REPLACE_NORMAL;
; 649  : 
; 650  : 				PRegionElem pRgnElem	= NULL;
; 651  : 				CWorld* pWorld	= GetWorld();

  001aa	8b 9e 6c 01 00
	00		 mov	 ebx, DWORD PTR [esi+364]

; 652  : 				if( !pWorld )

  001b0	85 db		 test	 ebx, ebx

; 653  : 					return FALSE;

  001b2	0f 84 ad fe ff
	ff		 je	 $L276047

; 654  : 
; 655  : 				if( IsChaotic() )

  001b8	8b 86 60 07 00
	00		 mov	 eax, DWORD PTR [esi+1888]

; 656  : 				{
; 657  : 		#if __VER >= 8 // __S8_PK
; 658  : 					if( pWorld->GetID() != pWorld->m_dwIdWorldRevival && pWorld->m_dwIdWorldRevival != 0 )

  001be	8b 0b		 mov	 ecx, DWORD PTR [ebx]
  001c0	85 c0		 test	 eax, eax
  001c2	8b 83 18 93 08
	00		 mov	 eax, DWORD PTR [ebx+561944]
  001c8	76 3a		 jbe	 SHORT $L269311
  001ca	3b c8		 cmp	 ecx, eax
  001cc	74 1a		 je	 SHORT $L276044
  001ce	85 c0		 test	 eax, eax
  001d0	74 16		 je	 SHORT $L276044

; 659  : 						pRgnElem	= g_WorldMng.GetRevivalPosChao( pWorld->m_dwIdWorldRevival, pWorld->m_szKeyRevival );

  001d2	8d 8b f8 92 08
	00		 lea	 ecx, DWORD PTR [ebx+561912]
  001d8	51		 push	 ecx
  001d9	50		 push	 eax
  001da	b9 00 00 00 00	 mov	 ecx, OFFSET FLAT:?g_WorldMng@@3VCWorldMng@@A
  001df	e8 00 00 00 00	 call	 ?GetRevivalPosChao@CWorldMng@@QAEPAUREGIONELEM@@KPBD@Z ; CWorldMng::GetRevivalPosChao

; 660  : 					if( NULL == pRgnElem )	// Find near revival pos

  001e4	85 c0		 test	 eax, eax
  001e6	75 58		 jne	 SHORT $L276036
$L276044:

; 661  : 						pRgnElem	= g_WorldMng.GetNearRevivalPosChao( pWorld->GetID(), GetPos() );

  001e8	8b 2b		 mov	 ebp, DWORD PTR [ebx]
  001ea	8d 54 24 20	 lea	 edx, DWORD PTR $T275954[esp+68]
  001ee	52		 push	 edx
  001ef	8b ce		 mov	 ecx, esi
  001f1	e8 00 00 00 00	 call	 ?GetPos@CObj@@QAE?AUD3DXVECTOR3@@XZ ; CObj::GetPos
  001f6	50		 push	 eax
  001f7	55		 push	 ebp
  001f8	b9 00 00 00 00	 mov	 ecx, OFFSET FLAT:?g_WorldMng@@3VCWorldMng@@A
  001fd	e8 00 00 00 00	 call	 ?GetNearRevivalPosChao@CWorldMng@@QAEPAUREGIONELEM@@KAAUD3DXVECTOR3@@@Z ; CWorldMng::GetNearRevivalPosChao

; 662  : 		#else // __VER >= 8 // __S8_PK
; 663  : 					pRgnElem	= g_WorldMng.GetNearRevivalPosChao( pWorld->GetID(), GetPos() );
; 664  : 		#endif // __VER >= 8 // __S8_PK
; 665  : 				}
; 666  : 				else

  00202	eb 38		 jmp	 SHORT $L269317
$L269311:

; 667  : 
; 668  : 				{
; 669  : 					if( pWorld->GetID() != pWorld->m_dwIdWorldRevival && pWorld->m_dwIdWorldRevival != 0 )

  00204	3b c8		 cmp	 ecx, eax
  00206	74 1a		 je	 SHORT $L276040
  00208	85 c0		 test	 eax, eax
  0020a	74 16		 je	 SHORT $L276040

; 670  : 						pRgnElem	= g_WorldMng.GetRevivalPos( pWorld->m_dwIdWorldRevival, pWorld->m_szKeyRevival );

  0020c	8d 8b f8 92 08
	00		 lea	 ecx, DWORD PTR [ebx+561912]
  00212	51		 push	 ecx
  00213	50		 push	 eax
  00214	b9 00 00 00 00	 mov	 ecx, OFFSET FLAT:?g_WorldMng@@3VCWorldMng@@A
  00219	e8 00 00 00 00	 call	 ?GetRevivalPos@CWorldMng@@QAEPAUREGIONELEM@@KPBD@Z ; CWorldMng::GetRevivalPos

; 671  : 					if( NULL == pRgnElem )	// Find near revival pos

  0021e	85 c0		 test	 eax, eax
  00220	75 1e		 jne	 SHORT $L276036
$L276040:

; 672  : 						pRgnElem	= g_WorldMng.GetNearRevivalPos( pWorld->GetID(), GetPos() );

  00222	8b 2b		 mov	 ebp, DWORD PTR [ebx]
  00224	8d 54 24 20	 lea	 edx, DWORD PTR $T275955[esp+68]
  00228	52		 push	 edx
  00229	8b ce		 mov	 ecx, esi
  0022b	e8 00 00 00 00	 call	 ?GetPos@CObj@@QAE?AUD3DXVECTOR3@@XZ ; CObj::GetPos
  00230	50		 push	 eax
  00231	55		 push	 ebp
  00232	b9 00 00 00 00	 mov	 ecx, OFFSET FLAT:?g_WorldMng@@3VCWorldMng@@A
  00237	e8 00 00 00 00	 call	 ?GetNearRevivalPos@CWorldMng@@QAEPAUREGIONELEM@@KAAUD3DXVECTOR3@@@Z ; CWorldMng::GetNearRevivalPos
$L269317:

; 673  : 				}
; 674  : 				if( NULL != pRgnElem )

  0023c	85 c0		 test	 eax, eax
  0023e	74 10		 je	 SHORT $L269319
$L276036:

; 675  : 					REPLACE( g_uIdofMulti, pRgnElem->m_dwWorldId, pRgnElem->m_vPos, type, nRevivalLayer );

  00240	8b 90 c0 02 00
	00		 mov	 edx, DWORD PTR [eax+704]
  00246	6a 00		 push	 0
  00248	6a 00		 push	 0
  0024a	8d 48 10	 lea	 ecx, DWORD PTR [eax+16]
  0024d	51		 push	 ecx

; 676  : 				else

  0024e	eb 13		 jmp	 SHORT $L276046
$L269319:

; 677  : 					REPLACE( g_uIdofMulti, pWorld->GetID(), GetPos(), type, nDefaultLayer );

  00250	6a 00		 push	 0
  00252	6a 00		 push	 0
  00254	8d 4c 24 28	 lea	 ecx, DWORD PTR $T275956[esp+76]
  00258	51		 push	 ecx
  00259	8b ce		 mov	 ecx, esi
  0025b	e8 00 00 00 00	 call	 ?GetPos@CObj@@QAE?AUD3DXVECTOR3@@XZ ; CObj::GetPos
  00260	8b 13		 mov	 edx, DWORD PTR [ebx]
  00262	50		 push	 eax
$L276046:
  00263	a1 00 00 00 00	 mov	 eax, DWORD PTR ?g_uIdofMulti@@3KA ; g_uIdofMulti
  00268	52		 push	 edx
  00269	8b ce		 mov	 ecx, esi
  0026b	50		 push	 eax
  0026c	e8 00 00 00 00	 call	 ?Replace@CMover@@QAEHKKAAUD3DXVECTOR3@@W4REPLACE_TYPE@@H@Z ; CMover::Replace
$L269320:

; 678  : 			}
; 679  : 			if( pSkillProp->dwID == SI_KNT_HERO_DRAWING )

  00271	8b 4c 24 14	 mov	 ecx, DWORD PTR _pSkillProp$[esp+68]
  00275	81 39 ee 00 00
	00		 cmp	 DWORD PTR [ecx], 238	; 000000eeH
  0027b	0f 85 9c 00 00
	00		 jne	 $L276045

; 680  : 			{
; 681  : 				D3DXVECTOR3 vSrc	= GetPos();

  00281	8d 54 24 20	 lea	 edx, DWORD PTR _vSrc$269323[esp+68]
  00285	52		 push	 edx
  00286	8b ce		 mov	 ecx, esi
  00288	e8 00 00 00 00	 call	 ?GetPos@CObj@@QAE?AUD3DXVECTOR3@@XZ ; CObj::GetPos

; 682  : 				FLOAT		fAngle	= GetDegree( pFocusObj->GetPos(), GetPos() );	//    

  0028d	8d 44 24 2c	 lea	 eax, DWORD PTR $T275957[esp+68]
  00291	50		 push	 eax
  00292	8b ce		 mov	 ecx, esi
  00294	e8 00 00 00 00	 call	 ?GetPos@CObj@@QAE?AUD3DXVECTOR3@@XZ ; CObj::GetPos
  00299	50		 push	 eax
  0029a	8d 4c 24 3c	 lea	 ecx, DWORD PTR $T275958[esp+72]
  0029e	51		 push	 ecx
  0029f	8b cf		 mov	 ecx, edi
  002a1	e8 00 00 00 00	 call	 ?GetPos@CObj@@QAE?AUD3DXVECTOR3@@XZ ; CObj::GetPos
  002a6	50		 push	 eax
  002a7	e8 00 00 00 00	 call	 ?GetDegree@@YAMABUD3DXVECTOR3@@0@Z ; GetDegree
  002ac	d9 5c 24 24	 fstp	 DWORD PTR _fAngle$269325[esp+76]
  002b0	83 c4 08	 add	 esp, 8

; 683  : 				//vSrc.x -= 1.0f;
; 684  : 				//vSrc.z -= 1.0f;
; 685  : 
; 686  : 				pFocusObj->SetPos(vSrc);

  002b3	8d 54 24 20	 lea	 edx, DWORD PTR _vSrc$269323[esp+68]
  002b7	52		 push	 edx
  002b8	8b cf		 mov	 ecx, edi
  002ba	e8 00 00 00 00	 call	 ?SetPos@CObj@@QAEXABUD3DXVECTOR3@@@Z ; CObj::SetPos

; 687  : 				g_UserMng.AddSetPos( pFocusObj, vSrc );

  002bf	8d 44 24 20	 lea	 eax, DWORD PTR _vSrc$269323[esp+68]
  002c3	50		 push	 eax
  002c4	57		 push	 edi
  002c5	b9 00 00 00 00	 mov	 ecx, OFFSET FLAT:?g_UserMng@@3VCUserMng@@A
  002ca	e8 00 00 00 00	 call	 ?AddSetPos@CUserMng@@QAEXPAVCCtrl@@AAUD3DXVECTOR3@@@Z ; CUserMng::AddSetPos

; 688  : 				g_UserMng.AddPushPower( pFocusObj, pFocusObj->GetPos(), pFocusObj->GetAngle(), fAngle, 0.2f );

  002cf	8d 4c 24 38	 lea	 ecx, DWORD PTR $T275959[esp+68]
  002d3	51		 push	 ecx
  002d4	8b cf		 mov	 ecx, edi
  002d6	e8 00 00 00 00	 call	 ?GetPos@CObj@@QAE?AUD3DXVECTOR3@@XZ ; CObj::GetPos
  002db	8b 54 24 1c	 mov	 edx, DWORD PTR _fAngle$269325[esp+68]
  002df	8b 4f 18	 mov	 ecx, DWORD PTR [edi+24]
  002e2	68 cd cc 4c 3e	 push	 1045220557		; 3e4ccccdH
  002e7	52		 push	 edx
  002e8	51		 push	 ecx
  002e9	8b 08		 mov	 ecx, DWORD PTR [eax]
  002eb	83 ec 0c	 sub	 esp, 12			; 0000000cH
  002ee	8b d4		 mov	 edx, esp
  002f0	89 0a		 mov	 DWORD PTR [edx], ecx
  002f2	8b 48 04	 mov	 ecx, DWORD PTR [eax+4]
  002f5	8b 40 08	 mov	 eax, DWORD PTR [eax+8]
  002f8	89 4a 04	 mov	 DWORD PTR [edx+4], ecx
  002fb	57		 push	 edi
  002fc	b9 00 00 00 00	 mov	 ecx, OFFSET FLAT:?g_UserMng@@3VCUserMng@@A
  00301	89 42 08	 mov	 DWORD PTR [edx+8], eax
  00304	e8 00 00 00 00	 call	 ?AddPushPower@CUserMng@@QAEXPAVCMover@@UD3DXVECTOR3@@MMM@Z ; CUserMng::AddPushPower

; 689  : 				pFocusObj->ClearDestObj();

  00309	c7 87 5c 02 00
	00 ff ff ff ff	 mov	 DWORD PTR [edi+604], -1
  00313	c7 87 58 02 00
	00 00 00 00 00	 mov	 DWORD PTR [edi+600], 0
$L276045:

; 690  : //				pFocusObj->SetPosChanged( TRUE );
; 691  : 			}
; 692  : 		#endif	//__LEGEND	//	10 	Neuz, World, Trans
; 693  : 
; 694  : 
; 695  : 	#endif // WORLDSERVER
; 696  : 
; 697  : 		//    -    
; 698  : 	#ifdef __CLIENT
; 699  : 		if( IsActiveMover() && nCount == 0 )		//    
; 700  : 	#endif // __CLIENT
; 701  : #if __VER >= 9	// __SKILL_0706
; 702  : 		if( pAddSkillProp->dwCooldown != 0xFFFFFFFF )

  0031d	8b 44 24 10	 mov	 eax, DWORD PTR _pAddSkillProp$[esp+68]
  00321	83 78 5c ff	 cmp	 DWORD PTR [eax+92], -1
  00325	74 0d		 je	 SHORT $L276042

; 703  : 			SetCoolTime( pAddSkillProp, "OnMagicSkill" );

  00327	68 00 00 00 00	 push	 OFFSET FLAT:??_C@_0N@GPEHOKLF@OnMagicSkill?$AA@
  0032c	50		 push	 eax
  0032d	8b ce		 mov	 ecx, esi
  0032f	e8 00 00 00 00	 call	 ?SetCoolTime@CMover@@QAEXPAUAddSkillProp@@PBD@Z ; CMover::SetCoolTime
$L276042:

; 704  : #else	// __SKILL_0706
; 705  : 		if( pSkillProp->dwSkillReady != 0xffffffff )	//    
; 706  : 			SetCoolTime( pSkillProp, "OnMagicSkill" );
; 707  : #endif	// __SKILL_0706
; 708  : 	} // bSuccess
; 709  : 
; 710  : #if defined(__CLIENT)
; 711  : 	CModelObject* pModel = (CModelObject*)m_pModel;
; 712  : 	if( pModel )
; 713  : 	{
; 714  : 		pModel->m_SparkInfo.m_bUsed  = TRUE;
; 715  : 		pModel->m_SparkInfo.m_v3Color.x = 2.0f;
; 716  : 		pModel->m_SparkInfo.m_v3Color.y = 2.0f;
; 717  : 		pModel->m_SparkInfo.m_v3Color.z = 2.0f;
; 718  : 		pModel->m_SparkInfo.m_nCnt = 0;
; 719  : 		pModel->m_SparkInfo.m_fLerp= 1.0f;
; 720  : 		
; 721  : 		AngleToVectorXZ( &pModel->m_SparkInfo.m_v3SparkDir, GetAngle(), -1.0f );
; 722  : 	}
; 723  : #endif //defined(__CLIENT)
; 724  : 
; 725  : 	return TRUE;
; 726  : } // OnMagicSkill

  00334	5f		 pop	 edi
  00335	5e		 pop	 esi
  00336	5d		 pop	 ebp
  00337	b8 01 00 00 00	 mov	 eax, 1
  0033c	5b		 pop	 ebx
  0033d	83 c4 34	 add	 esp, 52			; 00000034H
  00340	c2 08 00	 ret	 8
?OnMagicSkill@CMover@@QAEHHH@Z ENDP			; CMover::OnMagicSkill
_TEXT	ENDS
PUBLIC	?OnAttackMagic@CMover@@QAEHXZ			; CMover::OnAttackMagic
; Function compile flags: /Ogty
;	COMDAT ?OnAttackMagic@CMover@@QAEHXZ
_TEXT	SEGMENT
?OnAttackMagic@CMover@@QAEHXZ PROC NEAR			; CMover::OnAttackMagic, COMDAT
; _this$ = ecx

; 834  : {

  00000	53		 push	 ebx
  00001	56		 push	 esi
  00002	8b f1		 mov	 esi, ecx

; 835  : 	int		idTarget = GetActParam( 0 );

  00004	8b 86 a4 12 00
	00		 mov	 eax, DWORD PTR [esi+4772]

; 836  : 	int		nMagicPower = GetActParam( 1 );
; 837  : #if __VER >= 8 // __S8_PK
; 838  : 	BOOL	bControl = GetActParam( 4 );

  0000a	8b 9e b4 12 00
	00		 mov	 ebx, DWORD PTR [esi+4788]
  00010	57		 push	 edi
  00011	8b be a8 12 00
	00		 mov	 edi, DWORD PTR [esi+4776]

; 839  : #endif // __VER >= 8 // __S8_PK
; 840  : 
; 841  : 	CMover* pHit = prj.GetMover( idTarget );	//   .

  00017	50		 push	 eax
  00018	b9 00 00 00 00	 mov	 ecx, OFFSET FLAT:?prj@@3VCProject@@A
  0001d	e8 00 00 00 00	 call	 ?GetMover@CProject@@QAEPAVCMover@@K@Z ; CProject::GetMover

; 842  : 
; 843  : 	if( IsInvalidObj(pHit) )	

  00022	85 c0		 test	 eax, eax
  00024	74 06		 je	 SHORT $L276077
  00026	f6 40 04 01	 test	 BYTE PTR [eax+4], 1
  0002a	74 06		 je	 SHORT $L269373
$L276077:
  0002c	5f		 pop	 edi
  0002d	5e		 pop	 esi

; 844  : 		return FALSE;		//    .

  0002e	33 c0		 xor	 eax, eax
  00030	5b		 pop	 ebx

; 940  : }

  00031	c3		 ret	 0
$L269373:

; 845  : 
; 846  : #ifdef __WORLDSERVER
; 847  : #if __VER >= 8 // __S8_PK
; 848  : 	OnAttackSFX( pHit->GetId(), nMagicPower, NULL_ID, 0, 0, 0, AF_MAGIC, bControl );

  00032	8b 80 bc 01 00
	00		 mov	 eax, DWORD PTR [eax+444]
  00038	53		 push	 ebx
  00039	6a 08		 push	 8
  0003b	6a 00		 push	 0
  0003d	6a 00		 push	 0
  0003f	6a 00		 push	 0
  00041	6a ff		 push	 -1
  00043	57		 push	 edi
  00044	50		 push	 eax
  00045	8b ce		 mov	 ecx, esi
  00047	e8 00 00 00 00	 call	 ?OnAttackSFX@CMover@@QAEXKHKHMMKH@Z ; CMover::OnAttackSFX
  0004c	5f		 pop	 edi
  0004d	5e		 pop	 esi

; 849  : #else // __VER >= 8 // __S8_PK
; 850  : 	OnAttackSFX( pHit->GetId(), nMagicPower, NULL_ID, 0, 0, 0, AF_MAGIC );
; 851  : #endif // __VER >= 8 // __S8_PK
; 852  : #else	// __WORLDSERVER
; 853  : 	DWORD dwWeaponId;
; 854  : 
; 855  : 	if( IsActiveMover() ) 
; 856  : 	{
; 857  : 		CItemElem* pWeapon = GetWeaponItem();
; 858  : 		if( pWeapon == NULL )	return FALSE;
; 859  : 		dwWeaponId	= pWeapon->m_dwItemId;
; 860  : 	}
; 861  : 	else 
; 862  : 	{
; 863  : 		dwWeaponId	= m_aEquipInfo[PARTS_RWEAPON].dwId;
; 864  : 		if( dwWeaponId == NULL )	return FALSE;
; 865  : 	}
; 866  : 
; 867  : #if __VER < 11 // __REMOVE_ENDURANCE
; 868  : 	if( IsActiveMover() )
; 869  : 	{
; 870  : 		CItemElem* pWeapon = GetWeaponItem();
; 871  : 		ItemProp* pItemProp		= pWeapon->GetProp();
; 872  : 		if( pItemProp )
; 873  : 			if( ( ( pWeapon->m_nHitPoint * 100 ) / pItemProp->dwEndurance ) == 0 )
; 874  : 				g_WndMng.PutString( prj.GetText( TID_GAME_WASTEENDURANCE ), NULL, prj.GetTextColor( TID_GAME_WASTEENDURANCE ) );
; 875  : 	}
; 876  : #endif // __REMOVE_ENDURANCE
; 877  : 
; 878  : 	D3DXVECTOR3 vPosDest = pHit->GetPos(); 
; 879  : 	//    .
; 880  : 	float fHeight = fabs(pHit->m_pModel->m_vMax.y) / 2.0f;	//      Max .
; 881  : 	fHeight *= pHit->GetScale().x;
; 882  : 	vPosDest.y += fHeight;	
; 883  : 
; 884  : 	D3DXVECTOR3 vPosSrc = GetPos() + D3DXVECTOR3( 0.0f, 1.0f, 0.0f ); //    .  
; 885  : 
; 886  : 	ItemProp *pHandItemProp = GetActiveHandItemProp( PARTS_RWEAPON );
; 887  : 	CSfx* pSfx = NULL;
; 888  : 	if( m_pActMover->IsFly() )
; 889  : 	{
; 890  : 		pSfx = CreateSfx( D3DDEVICE, XI_FIR_WAND02, vPosSrc, GetId(), vPosDest, idTarget );
; 891  : 		if( pSfx )
; 892  : 			pSfx->ShootSfx( GetAngle(), -GetAngleX(), 0.75f );		 
; 893  : 	} 
; 894  : 	else
; 895  : 	{
; 896  : 		DWORD dwSfxObj2 = XI_FIR_WAND01;
; 897  : 		if( pHandItemProp )
; 898  : 			dwSfxObj2 = pHandItemProp->dwSfxObj2;
; 899  : 
; 900  : 		pSfx = CreateSfx( D3DDEVICE, dwSfxObj2, vPosSrc,GetId(), vPosDest ,idTarget );
; 901  : 		if( pSfx )
; 902  : 		{
; 903  : 			switch(nMagicPower) 
; 904  : 			{
; 905  : 			case 1:		pSfx->SetScale( D3DXVECTOR3( 1.2f, 1.2f, 1.2f ) );	break;
; 906  : 			case 2:		pSfx->SetScale( D3DXVECTOR3( 1.7f, 1.7f, 1.7f ) );	break;
; 907  : 			case 3:
; 908  : 			case 4:		pSfx->SetScale( D3DXVECTOR3( 2.5f, 2.5f, 2.5f ) );	break;
; 909  : 			}
; 910  : 			((CSfxItemWandAtk1 *)pSfx)->m_fCenter = fHeight;		
; 911  : 		}
; 912  : 	}
; 913  : 
; 914  : 	if( pSfx )
; 915  : 	{
; 916  : 		if( IsActiveMover() )		// g_pPlayer   .
; 917  : 		{
; 918  : 			int idSfxHit = ++m_idSfxHit;			//     ID    .
; 919  : 			g_DPlay.SendSfxID( idTarget, idSfxHit, AF_MAGIC );
; 920  : 			pSfx->m_idSfxHit	= idSfxHit;
; 921  : 			pSfx->m_nMagicPower = nMagicPower;		//  .
; 922  : 		}
; 923  : 	}
; 924  : 
; 925  : 
; 926  : 	CModelObject* pModel = (CModelObject*)m_pModel;
; 927  : 	if( pModel )
; 928  : 	{
; 929  : 		pModel->m_SparkInfo.m_bUsed  = TRUE;
; 930  : 		pModel->m_SparkInfo.m_v3Color.x = 2.0f;
; 931  : 		pModel->m_SparkInfo.m_v3Color.y = 2.0f;
; 932  : 		pModel->m_SparkInfo.m_v3Color.z = 2.0f;
; 933  : 		pModel->m_SparkInfo.m_nCnt = 0;
; 934  : 		pModel->m_SparkInfo.m_fLerp= 1.0f;
; 935  : 		
; 936  : 		AngleToVectorXZ( &pModel->m_SparkInfo.m_v3SparkDir, GetAngle(), -1.0f );
; 937  : 	}
; 938  : #endif // __WORLDSERVER
; 939  : 	return TRUE;

  0004e	b8 01 00 00 00	 mov	 eax, 1
  00053	5b		 pop	 ebx

; 940  : }

  00054	c3		 ret	 0
?OnAttackMagic@CMover@@QAEHXZ ENDP			; CMover::OnAttackMagic
_TEXT	ENDS
PUBLIC	__real@3ff33333
PUBLIC	?OnActDrop@CMover@@QAEXXZ			; CMover::OnActDrop
EXTRN	?AddMoverCorr@CUserMng@@QAEXPAVCMover@@AAUD3DXVECTOR3@@1MKKKHHK_J@Z:NEAR ; CUserMng::AddMoverCorr
EXTRN	?AddQueryGetPos@CUser@@QAEXK@Z:NEAR		; CUser::AddQueryGetPos
EXTRN	?AddMoverCorr2@CUserMng@@QAEXPAVCMover@@AAUD3DXVECTOR3@@1MMMMKKKHHK_J@Z:NEAR ; CUserMng::AddMoverCorr2
EXTRN	?g_TickCount@@3VCTickCount@@A:BYTE		; g_TickCount
;	COMDAT __real@3ff33333
; File c:\documents and settings\test\mes documents\source\virtuos_v17\build\program\_common\obj.h
CONST	SEGMENT
__real@3ff33333 DD 03ff33333r			; 1.9
; Function compile flags: /Ogty
; File c:\documents and settings\test\mes documents\source\virtuos_v17\build\program\_common\moveractevent.cpp
CONST	ENDS
;	COMDAT ?OnActDrop@CMover@@QAEXXZ
_TEXT	SEGMENT
$T276116 = -20						; size = 4
$T276132 = -16						; size = 4
$T276120 = -16						; size = 4
$T276090 = -12						; size = 12
$T276089 = -12						; size = 12
?OnActDrop@CMover@@QAEXXZ PROC NEAR			; CMover::OnActDrop, COMDAT
; _this$ = ecx

; 1969 : {

  00000	83 ec 14	 sub	 esp, 20			; 00000014H
  00003	56		 push	 esi
  00004	8b f1		 mov	 esi, ecx

; 1970 : #ifdef __WORLDSERVER
; 1971 : 	if( m_pActMover->GetDmgState() & OBJSTA_DMG_FLY_ALL )		//     .

  00006	8b 86 3c 02 00
	00		 mov	 eax, DWORD PTR [esi+572]
  0000c	f7 40 04 00 00
	00 02		 test	 DWORD PTR [eax+4], 33554432 ; 02000000H
  00013	0f 85 86 01 00
	00		 jne	 $L269743

; 1972 : 		return;
; 1973 : 
; 1974 : 	if( FALSE == IsPlayer() )

  00019	8b 86 34 02 00
	00		 mov	 eax, DWORD PTR [esi+564]
  0001f	85 c0		 test	 eax, eax
  00021	0f 85 50 01 00
	00		 jne	 $L269736

; 1975 : 	{
; 1976 : 		if( m_nCorr < 0
; 1977 : #if __VER >= 9	//__AI_0509
; 1978 : 			&& GetSpeedFactor() < 1.9F
; 1979 : #endif	// __AI_0509
; 1980 : #ifdef __JEFF_11
; 1981 : 			&& m_dwAIInterface != AII_PET
; 1982 : #endif	//	__JEFF_11
; 1983 : 			)

  00027	8b 86 78 02 00
	00		 mov	 eax, DWORD PTR [esi+632]
  0002d	85 c0		 test	 eax, eax
  0002f	0f 8d 6a 01 00
	00		 jge	 $L269743
  00035	d9 86 10 07 00
	00		 fld	 DWORD PTR [esi+1808]
  0003b	d8 1d 00 00 00
	00		 fcomp	 DWORD PTR __real@3ff33333
  00041	df e0		 fnstsw	 ax
  00043	f6 c4 05	 test	 ah, 5
  00046	0f 8a 53 01 00
	00		 jp	 $L269743
  0004c	83 be 8c 01 00
	00 05		 cmp	 DWORD PTR [esi+396], 5
  00053	0f 84 46 01 00
	00		 je	 $L269743
  00059	53		 push	 ebx
  0005a	55		 push	 ebp
  0005b	57		 push	 edi

; 1984 : 		{
; 1985 : 			ClearDestPos();

  0005c	8b ce		 mov	 ecx, esi
  0005e	e8 00 00 00 00	 call	 ?ClearDestPos@CMover@@QAEXXZ ; CMover::ClearDestPos

; 1986 : 			SendActMsg( OBJMSG_STAND );

  00063	6a 00		 push	 0
  00065	6a 00		 push	 0
  00067	6a 00		 push	 0
  00069	6a 00		 push	 0
  0006b	6a 03		 push	 3
  0006d	8b ce		 mov	 ecx, esi
  0006f	e8 00 00 00 00	 call	 ?SendActMsg@CMover@@QAEHW4OBJMSG@@HHHH@Z ; CMover::SendActMsg

; 1987 : 			if( m_pActMover->IsFly() )

  00074	8b 86 3c 02 00
	00		 mov	 eax, DWORD PTR [esi+572]
  0007a	f6 40 08 08	 test	 BYTE PTR [eax+8], 8

; 1988 : 				g_UserMng.AddMoverCorr2( this, GetPos(), m_pActMover->m_vDelta, GetAngle(), GetAngleX(),
; 1989 : 					m_pActMover->m_fAccPower, m_pActMover->m_fTurnAngle, m_pActMover->GetState(), m_pActMover->GetStateFlag(),
; 1990 : 					m_dwMotion, m_pActMover->m_nMotionEx, m_pModel->m_nLoop, m_dwMotionOption, g_TickCount.GetTickCount() );

  0007e	8b 68 04	 mov	 ebp, DWORD PTR [eax+4]
  00081	8b 58 08	 mov	 ebx, DWORD PTR [eax+8]
  00084	8b f8		 mov	 edi, eax
  00086	0f 84 81 00 00
	00		 je	 $L269738
  0008c	8b 4e 1c	 mov	 ecx, DWORD PTR [esi+28]
  0008f	8b 56 18	 mov	 edx, DWORD PTR [esi+24]
  00092	89 4c 24 10	 mov	 DWORD PTR $T276116[esp+36], ecx
  00096	b9 00 00 00 00	 mov	 ecx, OFFSET FLAT:?g_TickCount@@3VCTickCount@@A
  0009b	89 54 24 14	 mov	 DWORD PTR $T276120[esp+36], edx
  0009f	e8 00 00 00 00	 call	 ?GetTickCount@CTickCount@@QAE_JXZ ; CTickCount::GetTickCount
  000a4	8b 8e 78 01 00
	00		 mov	 ecx, DWORD PTR [esi+376]
  000aa	52		 push	 edx
  000ab	8b 91 b4 00 00
	00		 mov	 edx, DWORD PTR [ecx+180]
  000b1	8b 8e dc 02 00
	00		 mov	 ecx, DWORD PTR [esi+732]
  000b7	50		 push	 eax
  000b8	8b 86 e0 02 00
	00		 mov	 eax, DWORD PTR [esi+736]
  000be	50		 push	 eax
  000bf	8b 87 8c 00 00
	00		 mov	 eax, DWORD PTR [edi+140]
  000c5	52		 push	 edx
  000c6	8b 97 84 00 00
	00		 mov	 edx, DWORD PTR [edi+132]
  000cc	50		 push	 eax
  000cd	8b 47 4c	 mov	 eax, DWORD PTR [edi+76]
  000d0	51		 push	 ecx
  000d1	8b 4c 24 28	 mov	 ecx, DWORD PTR $T276116[esp+60]
  000d5	53		 push	 ebx
  000d6	55		 push	 ebp
  000d7	52		 push	 edx
  000d8	8b 54 24 38	 mov	 edx, DWORD PTR $T276120[esp+72]
  000dc	50		 push	 eax
  000dd	51		 push	 ecx
  000de	52		 push	 edx
  000df	83 c7 50	 add	 edi, 80			; 00000050H
  000e2	57		 push	 edi
  000e3	8d 44 24 4c	 lea	 eax, DWORD PTR $T276089[esp+88]
  000e7	50		 push	 eax
  000e8	8b ce		 mov	 ecx, esi
  000ea	e8 00 00 00 00	 call	 ?GetPos@CObj@@QAE?AUD3DXVECTOR3@@XZ ; CObj::GetPos
  000ef	50		 push	 eax
  000f0	56		 push	 esi
  000f1	b9 00 00 00 00	 mov	 ecx, OFFSET FLAT:?g_UserMng@@3VCUserMng@@A
  000f6	e8 00 00 00 00	 call	 ?AddMoverCorr2@CUserMng@@QAEXPAVCMover@@AAUD3DXVECTOR3@@1MMMMKKKHHK_J@Z ; CUserMng::AddMoverCorr2
  000fb	5f		 pop	 edi
  000fc	5d		 pop	 ebp
  000fd	5b		 pop	 ebx

; 1995 : 			m_nCorr		= 0;

  000fe	c7 86 78 02 00
	00 00 00 00 00	 mov	 DWORD PTR [esi+632], 0
  00108	5e		 pop	 esi

; 2004 : 		}
; 2005 : 	}
; 2006 : #else	// __WORLDSERVER
; 2007 : 
; 2008 : 	if( IsActiveMover() )
; 2009 : 	{
; 2010 : 		if( m_nCorr != 0 )
; 2011 : 		{
; 2012 : 			if( m_nCorr < 0 ) {
; 2013 : 				ClearDest();
; 2014 : 				SendActMsg( OBJMSG_STAND );
; 2015 : 			}
; 2016 : 			if( m_pActMover->IsFly() )
; 2017 : 				g_DPlay.SendPlayerCorr2();
; 2018 : 			else
; 2019 : 				g_DPlay.SendPlayerCorr();
; 2020 : 			m_nCorr		= 0;
; 2021 : 		}
; 2022 : 	}
; 2023 : 	else
; 2024 : 	{
; 2025 : #if __VER >= 9	//__AI_0509
; 2026 : 		if( IsPlayer() || GetSpeedFactor() < 1.9F )
; 2027 : #endif	// __AI_0509
; 2028 : 		{
; 2029 : 			if( FALSE == IsEmptyDest() && FALSE == m_fWaitQueryGetPos )
; 2030 : 			{
; 2031 : 				g_DPlay.SendQueryGetPos( this );
; 2032 : 				m_fWaitQueryGetPos	= TRUE;
; 2033 : 			}
; 2034 : 		}
; 2035 : 	}
; 2036 : #endif	// not __WORLDSERVER
; 2037 : }

  00109	83 c4 14	 add	 esp, 20			; 00000014H
  0010c	c3		 ret	 0
$L269738:

; 1991 : 			else
; 1992 : 				g_UserMng.AddMoverCorr( this, GetPos(), m_pActMover->m_vDelta, GetAngle(),
; 1993 : 					m_pActMover->GetState(), m_pActMover->GetStateFlag(), m_dwMotion, m_pActMover->m_nMotionEx,
; 1994 : 					m_pModel->m_nLoop, m_dwMotionOption, g_TickCount.GetTickCount() );

  0010d	8b 4e 18	 mov	 ecx, DWORD PTR [esi+24]
  00110	89 4c 24 14	 mov	 DWORD PTR $T276132[esp+36], ecx
  00114	b9 00 00 00 00	 mov	 ecx, OFFSET FLAT:?g_TickCount@@3VCTickCount@@A
  00119	e8 00 00 00 00	 call	 ?GetTickCount@CTickCount@@QAE_JXZ ; CTickCount::GetTickCount
  0011e	52		 push	 edx
  0011f	8b 96 e0 02 00
	00		 mov	 edx, DWORD PTR [esi+736]
  00125	50		 push	 eax
  00126	8b 86 78 01 00
	00		 mov	 eax, DWORD PTR [esi+376]
  0012c	8b 88 b4 00 00
	00		 mov	 ecx, DWORD PTR [eax+180]
  00132	8b 86 dc 02 00
	00		 mov	 eax, DWORD PTR [esi+732]
  00138	52		 push	 edx
  00139	8b 97 8c 00 00
	00		 mov	 edx, DWORD PTR [edi+140]
  0013f	51		 push	 ecx
  00140	8b 4c 24 24	 mov	 ecx, DWORD PTR $T276132[esp+52]
  00144	52		 push	 edx
  00145	50		 push	 eax
  00146	53		 push	 ebx
  00147	55		 push	 ebp
  00148	51		 push	 ecx
  00149	83 c7 50	 add	 edi, 80			; 00000050H
  0014c	57		 push	 edi
  0014d	8d 54 24 40	 lea	 edx, DWORD PTR $T276090[esp+76]
  00151	52		 push	 edx
  00152	8b ce		 mov	 ecx, esi
  00154	e8 00 00 00 00	 call	 ?GetPos@CObj@@QAE?AUD3DXVECTOR3@@XZ ; CObj::GetPos
  00159	50		 push	 eax
  0015a	56		 push	 esi
  0015b	b9 00 00 00 00	 mov	 ecx, OFFSET FLAT:?g_UserMng@@3VCUserMng@@A
  00160	e8 00 00 00 00	 call	 ?AddMoverCorr@CUserMng@@QAEXPAVCMover@@AAUD3DXVECTOR3@@1MKKKHHK_J@Z ; CUserMng::AddMoverCorr
  00165	5f		 pop	 edi
  00166	5d		 pop	 ebp
  00167	5b		 pop	 ebx

; 1995 : 			m_nCorr		= 0;

  00168	c7 86 78 02 00
	00 00 00 00 00	 mov	 DWORD PTR [esi+632], 0
  00172	5e		 pop	 esi

; 2004 : 		}
; 2005 : 	}
; 2006 : #else	// __WORLDSERVER
; 2007 : 
; 2008 : 	if( IsActiveMover() )
; 2009 : 	{
; 2010 : 		if( m_nCorr != 0 )
; 2011 : 		{
; 2012 : 			if( m_nCorr < 0 ) {
; 2013 : 				ClearDest();
; 2014 : 				SendActMsg( OBJMSG_STAND );
; 2015 : 			}
; 2016 : 			if( m_pActMover->IsFly() )
; 2017 : 				g_DPlay.SendPlayerCorr2();
; 2018 : 			else
; 2019 : 				g_DPlay.SendPlayerCorr();
; 2020 : 			m_nCorr		= 0;
; 2021 : 		}
; 2022 : 	}
; 2023 : 	else
; 2024 : 	{
; 2025 : #if __VER >= 9	//__AI_0509
; 2026 : 		if( IsPlayer() || GetSpeedFactor() < 1.9F )
; 2027 : #endif	// __AI_0509
; 2028 : 		{
; 2029 : 			if( FALSE == IsEmptyDest() && FALSE == m_fWaitQueryGetPos )
; 2030 : 			{
; 2031 : 				g_DPlay.SendQueryGetPos( this );
; 2032 : 				m_fWaitQueryGetPos	= TRUE;
; 2033 : 			}
; 2034 : 		}
; 2035 : 	}
; 2036 : #endif	// not __WORLDSERVER
; 2037 : }

  00173	83 c4 14	 add	 esp, 20			; 00000014H
  00176	c3		 ret	 0
$L269736:

; 1996 : 		}
; 1997 : 	}
; 1998 : 	else
; 1999 : 	{
; 2000 : 		if( FALSE == IsEmptyDest() && FALSE == m_fWaitQueryGetPos )

  00177	8b ce		 mov	 ecx, esi
  00179	e8 00 00 00 00	 call	 ?IsEmptyDest@CMover@@QAEHXZ ; CMover::IsEmptyDest
  0017e	85 c0		 test	 eax, eax
  00180	75 1d		 jne	 SHORT $L269743
  00182	8b 86 74 02 00
	00		 mov	 eax, DWORD PTR [esi+628]
  00188	85 c0		 test	 eax, eax
  0018a	75 13		 jne	 SHORT $L269743

; 2001 : 		{
; 2002 : 			( (CUser*)this )->AddQueryGetPos( NULL_ID );

  0018c	6a ff		 push	 -1
  0018e	8b ce		 mov	 ecx, esi
  00190	e8 00 00 00 00	 call	 ?AddQueryGetPos@CUser@@QAEXK@Z ; CUser::AddQueryGetPos

; 2003 : 			m_fWaitQueryGetPos	= TRUE;

  00195	c7 86 74 02 00
	00 01 00 00 00	 mov	 DWORD PTR [esi+628], 1
$L269743:
  0019f	5e		 pop	 esi

; 2004 : 		}
; 2005 : 	}
; 2006 : #else	// __WORLDSERVER
; 2007 : 
; 2008 : 	if( IsActiveMover() )
; 2009 : 	{
; 2010 : 		if( m_nCorr != 0 )
; 2011 : 		{
; 2012 : 			if( m_nCorr < 0 ) {
; 2013 : 				ClearDest();
; 2014 : 				SendActMsg( OBJMSG_STAND );
; 2015 : 			}
; 2016 : 			if( m_pActMover->IsFly() )
; 2017 : 				g_DPlay.SendPlayerCorr2();
; 2018 : 			else
; 2019 : 				g_DPlay.SendPlayerCorr();
; 2020 : 			m_nCorr		= 0;
; 2021 : 		}
; 2022 : 	}
; 2023 : 	else
; 2024 : 	{
; 2025 : #if __VER >= 9	//__AI_0509
; 2026 : 		if( IsPlayer() || GetSpeedFactor() < 1.9F )
; 2027 : #endif	// __AI_0509
; 2028 : 		{
; 2029 : 			if( FALSE == IsEmptyDest() && FALSE == m_fWaitQueryGetPos )
; 2030 : 			{
; 2031 : 				g_DPlay.SendQueryGetPos( this );
; 2032 : 				m_fWaitQueryGetPos	= TRUE;
; 2033 : 			}
; 2034 : 		}
; 2035 : 	}
; 2036 : #endif	// not __WORLDSERVER
; 2037 : }

  001a0	83 c4 14	 add	 esp, 20			; 00000014H
  001a3	c3		 ret	 0
?OnActDrop@CMover@@QAEXXZ ENDP				; CMover::OnActDrop
_TEXT	ENDS
PUBLIC	?OnActCollision@CMover@@QAEXXZ			; CMover::OnActCollision
; Function compile flags: /Ogty
;	COMDAT ?OnActCollision@CMover@@QAEXXZ
_TEXT	SEGMENT
$T276162 = -20						; size = 4
$T276178 = -16						; size = 4
$T276166 = -16						; size = 4
$T276139 = -12						; size = 12
$T276138 = -12						; size = 12
?OnActCollision@CMover@@QAEXXZ PROC NEAR		; CMover::OnActCollision, COMDAT
; _this$ = ecx

; 2040 : {

  00000	83 ec 14	 sub	 esp, 20			; 00000014H
  00003	56		 push	 esi
  00004	8b f1		 mov	 esi, ecx

; 2041 : #ifdef __WORLDSERVER
; 2042 : 	if( FALSE == IsPlayer() )

  00006	8b 86 34 02 00
	00		 mov	 eax, DWORD PTR [esi+564]
  0000c	85 c0		 test	 eax, eax
  0000e	0f 85 49 01 00
	00		 jne	 $L269748

; 2043 : 	{
; 2044 : 		if( m_nCorr < 0 
; 2045 : #if __VER >= 9	//__AI_0509
; 2046 : 			&& GetSpeedFactor() < 1.9F && m_dwAIInterface != AII_PET
; 2047 : #endif	// __AI_0509
; 2048 : 			)

  00014	8b 86 78 02 00
	00		 mov	 eax, DWORD PTR [esi+632]
  0001a	85 c0		 test	 eax, eax
  0001c	0f 8d 8b 01 00
	00		 jge	 $L269755
  00022	d9 86 10 07 00
	00		 fld	 DWORD PTR [esi+1808]
  00028	d8 1d 00 00 00
	00		 fcomp	 DWORD PTR __real@3ff33333
  0002e	df e0		 fnstsw	 ax
  00030	f6 c4 05	 test	 ah, 5
  00033	0f 8a 74 01 00
	00		 jp	 $L269755
  00039	83 be 8c 01 00
	00 05		 cmp	 DWORD PTR [esi+396], 5
  00040	0f 84 67 01 00
	00		 je	 $L269755
  00046	53		 push	 ebx
  00047	55		 push	 ebp
  00048	57		 push	 edi

; 2049 : 		{
; 2050 : 
; 2051 : 			ClearDest();

  00049	e8 00 00 00 00	 call	 ?ClearDest@CMover@@QAEXXZ ; CMover::ClearDest

; 2052 : 			SendActMsg( OBJMSG_STAND );

  0004e	6a 00		 push	 0
  00050	6a 00		 push	 0
  00052	6a 00		 push	 0
  00054	6a 00		 push	 0
  00056	6a 03		 push	 3
  00058	8b ce		 mov	 ecx, esi
  0005a	e8 00 00 00 00	 call	 ?SendActMsg@CMover@@QAEHW4OBJMSG@@HHHH@Z ; CMover::SendActMsg

; 2053 : 
; 2054 : 			if( m_pActMover->IsFly() )

  0005f	8b 86 3c 02 00
	00		 mov	 eax, DWORD PTR [esi+572]
  00065	f6 40 08 08	 test	 BYTE PTR [eax+8], 8

; 2055 : 				g_UserMng.AddMoverCorr2( this, GetPos(), m_pActMover->m_vDelta, GetAngle(), GetAngleX(),
; 2056 : 					m_pActMover->m_fAccPower, m_pActMover->m_fTurnAngle, m_pActMover->GetState(), m_pActMover->GetStateFlag(),
; 2057 : 					m_dwMotion, m_pActMover->m_nMotionEx, m_pModel->m_nLoop, m_dwMotionOption, g_TickCount.GetTickCount() );

  00069	8b 68 04	 mov	 ebp, DWORD PTR [eax+4]
  0006c	8b 58 08	 mov	 ebx, DWORD PTR [eax+8]
  0006f	8b f8		 mov	 edi, eax
  00071	74 71		 je	 SHORT $L269750
  00073	8b 4e 18	 mov	 ecx, DWORD PTR [esi+24]
  00076	8b 46 1c	 mov	 eax, DWORD PTR [esi+28]
  00079	89 4c 24 14	 mov	 DWORD PTR $T276166[esp+36], ecx
  0007d	b9 00 00 00 00	 mov	 ecx, OFFSET FLAT:?g_TickCount@@3VCTickCount@@A
  00082	89 44 24 10	 mov	 DWORD PTR $T276162[esp+36], eax
  00086	e8 00 00 00 00	 call	 ?GetTickCount@CTickCount@@QAE_JXZ ; CTickCount::GetTickCount
  0008b	52		 push	 edx
  0008c	8b 96 e0 02 00
	00		 mov	 edx, DWORD PTR [esi+736]
  00092	50		 push	 eax
  00093	8b 86 78 01 00
	00		 mov	 eax, DWORD PTR [esi+376]
  00099	8b 88 b4 00 00
	00		 mov	 ecx, DWORD PTR [eax+180]
  0009f	8b 86 dc 02 00
	00		 mov	 eax, DWORD PTR [esi+732]
  000a5	52		 push	 edx
  000a6	8b 97 8c 00 00
	00		 mov	 edx, DWORD PTR [edi+140]
  000ac	51		 push	 ecx
  000ad	8b 8f 84 00 00
	00		 mov	 ecx, DWORD PTR [edi+132]
  000b3	52		 push	 edx
  000b4	8b 57 4c	 mov	 edx, DWORD PTR [edi+76]
  000b7	50		 push	 eax
  000b8	8b 44 24 28	 mov	 eax, DWORD PTR $T276162[esp+60]
  000bc	53		 push	 ebx
  000bd	55		 push	 ebp
  000be	51		 push	 ecx
  000bf	8b 4c 24 38	 mov	 ecx, DWORD PTR $T276166[esp+72]
  000c3	52		 push	 edx
  000c4	50		 push	 eax
  000c5	51		 push	 ecx
  000c6	83 c7 50	 add	 edi, 80			; 00000050H
  000c9	57		 push	 edi
  000ca	8d 54 24 4c	 lea	 edx, DWORD PTR $T276138[esp+88]
  000ce	52		 push	 edx
  000cf	8b ce		 mov	 ecx, esi
  000d1	e8 00 00 00 00	 call	 ?GetPos@CObj@@QAE?AUD3DXVECTOR3@@XZ ; CObj::GetPos
  000d6	50		 push	 eax
  000d7	56		 push	 esi
  000d8	b9 00 00 00 00	 mov	 ecx, OFFSET FLAT:?g_UserMng@@3VCUserMng@@A
  000dd	e8 00 00 00 00	 call	 ?AddMoverCorr2@CUserMng@@QAEXPAVCMover@@AAUD3DXVECTOR3@@1MMMMKKKHHK_J@Z ; CUserMng::AddMoverCorr2

; 2058 : 			else

  000e2	eb 58		 jmp	 SHORT $L269752
$L269750:

; 2059 : 				g_UserMng.AddMoverCorr( this, GetPos(), m_pActMover->m_vDelta, GetAngle(),
; 2060 : 					m_pActMover->GetState(), m_pActMover->GetStateFlag(), m_dwMotion, m_pActMover->m_nMotionEx,
; 2061 : 					m_pModel->m_nLoop, m_dwMotionOption, g_TickCount.GetTickCount() );

  000e4	8b 46 18	 mov	 eax, DWORD PTR [esi+24]
  000e7	b9 00 00 00 00	 mov	 ecx, OFFSET FLAT:?g_TickCount@@3VCTickCount@@A
  000ec	89 44 24 14	 mov	 DWORD PTR $T276178[esp+36], eax
  000f0	e8 00 00 00 00	 call	 ?GetTickCount@CTickCount@@QAE_JXZ ; CTickCount::GetTickCount
  000f5	8b 8e e0 02 00
	00		 mov	 ecx, DWORD PTR [esi+736]
  000fb	52		 push	 edx
  000fc	8b 96 78 01 00
	00		 mov	 edx, DWORD PTR [esi+376]
  00102	50		 push	 eax
  00103	8b 82 b4 00 00
	00		 mov	 eax, DWORD PTR [edx+180]
  00109	8b 96 dc 02 00
	00		 mov	 edx, DWORD PTR [esi+732]
  0010f	51		 push	 ecx
  00110	8b 8f 8c 00 00
	00		 mov	 ecx, DWORD PTR [edi+140]
  00116	50		 push	 eax
  00117	8b 44 24 24	 mov	 eax, DWORD PTR $T276178[esp+52]
  0011b	51		 push	 ecx
  0011c	52		 push	 edx
  0011d	53		 push	 ebx
  0011e	55		 push	 ebp
  0011f	50		 push	 eax
  00120	83 c7 50	 add	 edi, 80			; 00000050H
  00123	57		 push	 edi
  00124	8d 4c 24 40	 lea	 ecx, DWORD PTR $T276139[esp+76]
  00128	51		 push	 ecx
  00129	8b ce		 mov	 ecx, esi
  0012b	e8 00 00 00 00	 call	 ?GetPos@CObj@@QAE?AUD3DXVECTOR3@@XZ ; CObj::GetPos
  00130	50		 push	 eax
  00131	56		 push	 esi
  00132	b9 00 00 00 00	 mov	 ecx, OFFSET FLAT:?g_UserMng@@3VCUserMng@@A
  00137	e8 00 00 00 00	 call	 ?AddMoverCorr@CUserMng@@QAEXPAVCMover@@AAUD3DXVECTOR3@@1MKKKHHK_J@Z ; CUserMng::AddMoverCorr
$L269752:

; 2062 : 
; 2063 : 			m_nCorr		= 0;
; 2064 : 
; 2065 : 			PostAIMsg( AIMSG_COLLISION );

  0013c	6a 00		 push	 0
  0013e	6a 00		 push	 0
  00140	6a 00		 push	 0
  00142	6a 0a		 push	 10			; 0000000aH
  00144	8b ce		 mov	 ecx, esi
  00146	c7 86 78 02 00
	00 00 00 00 00	 mov	 DWORD PTR [esi+632], 0
  00150	e8 00 00 00 00	 call	 ?PostAIMsg@CMover@@QAEXKKKK@Z ; CMover::PostAIMsg
  00155	5f		 pop	 edi
  00156	5d		 pop	 ebp
  00157	5b		 pop	 ebx
  00158	5e		 pop	 esi

; 2074 : 		}
; 2075 : 	}
; 2076 : 
; 2077 : #else	// __WORLDSERVER
; 2078 : 	if( TRUE == IsActiveMover() )
; 2079 : 	{
; 2080 : 		if( m_nCorr != 0 )
; 2081 : 		{
; 2082 : 			if( m_nCorr < 0 )
; 2083 : 			{
; 2084 : 				ClearDest();
; 2085 : 				SendActMsg( OBJMSG_STAND );
; 2086 : 				CWndWorld* pWndWorld	= (CWndWorld*)g_WndMng.GetWndBase( APP_WORLD );
; 2087 : 				if( pWndWorld )
; 2088 : 					pWndWorld->m_bLButtonDown	= FALSE;
; 2089 : 			}
; 2090 : 			if( m_pActMover->IsFly() )
; 2091 : 				g_DPlay.SendPlayerCorr2();
; 2092 : 			else
; 2093 : 				g_DPlay.SendPlayerCorr();
; 2094 : 
; 2095 : 			m_nCorr	= 0;
; 2096 : 		}
; 2097 : 	}
; 2098 : 	else if( FALSE == IsActiveMover() )
; 2099 : 	{
; 2100 : #if __VER >= 9	//__AI_0509
; 2101 : 		if( IsPlayer() || GetSpeedFactor() < 1.9F )
; 2102 : #endif	// __AI_0509
; 2103 : 		{
; 2104 : 			if( FALSE == IsEmptyDest() && FALSE == m_fWaitQueryGetPos )
; 2105 : 			{
; 2106 : 				g_DPlay.SendQueryGetPos( this );
; 2107 : 				m_fWaitQueryGetPos	= TRUE;
; 2108 : 			}
; 2109 : 		}
; 2110 : 	}
; 2111 : 
; 2112 : #endif	// __WORLDSERVER
; 2113 : }

  00159	83 c4 14	 add	 esp, 20			; 00000014H
  0015c	c3		 ret	 0
$L269748:

; 2066 : 		}
; 2067 : 	}
; 2068 : 	else
; 2069 : 	{
; 2070 : 		if( FALSE == IsEmptyDest() && FALSE == m_fWaitQueryGetPos )

  0015d	d9 05 00 00 00
	00		 fld	 DWORD PTR __real@00000000
  00163	d9 86 60 02 00
	00		 fld	 DWORD PTR [esi+608]
  00169	da e9		 fucompp
  0016b	df e0		 fnstsw	 ax
  0016d	f6 c4 44	 test	 ah, 68			; 00000044H
  00170	7a 1e		 jp	 SHORT $L276194
  00172	d9 05 00 00 00
	00		 fld	 DWORD PTR __real@00000000
  00178	d9 86 68 02 00
	00		 fld	 DWORD PTR [esi+616]
  0017e	da e9		 fucompp
  00180	df e0		 fnstsw	 ax
  00182	f6 c4 44	 test	 ah, 68			; 00000044H
  00185	7a 09		 jp	 SHORT $L276194
  00187	83 be 5c 02 00
	00 ff		 cmp	 DWORD PTR [esi+604], -1
  0018e	74 1d		 je	 SHORT $L269755
$L276194:
  00190	8b 86 74 02 00
	00		 mov	 eax, DWORD PTR [esi+628]
  00196	85 c0		 test	 eax, eax
  00198	75 13		 jne	 SHORT $L269755

; 2071 : 		{
; 2072 : 			( (CUser*)this )->AddQueryGetPos( NULL_ID );

  0019a	6a ff		 push	 -1
  0019c	8b ce		 mov	 ecx, esi
  0019e	e8 00 00 00 00	 call	 ?AddQueryGetPos@CUser@@QAEXK@Z ; CUser::AddQueryGetPos

; 2073 : 			m_fWaitQueryGetPos	= TRUE;

  001a3	c7 86 74 02 00
	00 01 00 00 00	 mov	 DWORD PTR [esi+628], 1
$L269755:
  001ad	5e		 pop	 esi

; 2074 : 		}
; 2075 : 	}
; 2076 : 
; 2077 : #else	// __WORLDSERVER
; 2078 : 	if( TRUE == IsActiveMover() )
; 2079 : 	{
; 2080 : 		if( m_nCorr != 0 )
; 2081 : 		{
; 2082 : 			if( m_nCorr < 0 )
; 2083 : 			{
; 2084 : 				ClearDest();
; 2085 : 				SendActMsg( OBJMSG_STAND );
; 2086 : 				CWndWorld* pWndWorld	= (CWndWorld*)g_WndMng.GetWndBase( APP_WORLD );
; 2087 : 				if( pWndWorld )
; 2088 : 					pWndWorld->m_bLButtonDown	= FALSE;
; 2089 : 			}
; 2090 : 			if( m_pActMover->IsFly() )
; 2091 : 				g_DPlay.SendPlayerCorr2();
; 2092 : 			else
; 2093 : 				g_DPlay.SendPlayerCorr();
; 2094 : 
; 2095 : 			m_nCorr	= 0;
; 2096 : 		}
; 2097 : 	}
; 2098 : 	else if( FALSE == IsActiveMover() )
; 2099 : 	{
; 2100 : #if __VER >= 9	//__AI_0509
; 2101 : 		if( IsPlayer() || GetSpeedFactor() < 1.9F )
; 2102 : #endif	// __AI_0509
; 2103 : 		{
; 2104 : 			if( FALSE == IsEmptyDest() && FALSE == m_fWaitQueryGetPos )
; 2105 : 			{
; 2106 : 				g_DPlay.SendQueryGetPos( this );
; 2107 : 				m_fWaitQueryGetPos	= TRUE;
; 2108 : 			}
; 2109 : 		}
; 2110 : 	}
; 2111 : 
; 2112 : #endif	// __WORLDSERVER
; 2113 : }

  001ae	83 c4 14	 add	 esp, 20			; 00000014H
  001b1	c3		 ret	 0
?OnActCollision@CMover@@QAEXXZ ENDP			; CMover::OnActCollision
_TEXT	ENDS
PUBLIC	?OnActEndMeleeSkill@CMover@@QAEXXZ		; CMover::OnActEndMeleeSkill
EXTRN	?SetNextSkill@CUserTaskBar@@QAEHPAVCUser@@@Z:NEAR ; CUserTaskBar::SetNextSkill
; Function compile flags: /Ogty
;	COMDAT ?OnActEndMeleeSkill@CMover@@QAEXXZ
_TEXT	SEGMENT
?OnActEndMeleeSkill@CMover@@QAEXXZ PROC NEAR		; CMover::OnActEndMeleeSkill, COMDAT
; _this$ = ecx

; 2118 : 	ClearActParam();			//  

  00000	c7 81 a0 12 00
	00 00 00 00 00	 mov	 DWORD PTR [ecx+4768], 0
  0000a	8d 91 a4 12 00
	00		 lea	 edx, DWORD PTR [ecx+4772]
  00010	b8 cd cd cd cd	 mov	 eax, -842150451		; cdcdcdcdH
  00015	89 02		 mov	 DWORD PTR [edx], eax
  00017	89 42 04	 mov	 DWORD PTR [edx+4], eax
  0001a	89 42 08	 mov	 DWORD PTR [edx+8], eax
  0001d	89 42 0c	 mov	 DWORD PTR [edx+12], eax
  00020	89 42 10	 mov	 DWORD PTR [edx+16], eax

; 2119 : 	m_dwFlag &= (~MVRF_SKILL);

  00023	8b 91 48 02 00
	00		 mov	 edx, DWORD PTR [ecx+584]

; 2120 : #ifdef __WORLDSERVER
; 2121 : 	if( IsPlayer() )

  00029	8b 81 34 02 00
	00		 mov	 eax, DWORD PTR [ecx+564]
  0002f	83 e2 fe	 and	 edx, -2			; fffffffeH
  00032	85 c0		 test	 eax, eax
  00034	89 91 48 02 00
	00		 mov	 DWORD PTR [ecx+584], edx
  0003a	74 15		 je	 SHORT $L269762

; 2122 : 	{
; 2123 : 		if( ((CUser *)this)->m_playTaskBar.m_nUsedSkillQueue != -1 )

  0003c	83 b9 44 95 00
	00 ff		 cmp	 DWORD PTR [ecx+38212], -1
  00043	74 0c		 je	 SHORT $L269762

; 2124 : 		{
; 2125 : 			((CUser *)this)->m_playTaskBar.SetNextSkill( (CUser *)this );

  00045	51		 push	 ecx
  00046	81 c1 7c 57 00
	00		 add	 ecx, 22396		; 0000577cH
  0004c	e8 00 00 00 00	 call	 ?SetNextSkill@CUserTaskBar@@QAEHPAVCUser@@@Z ; CUserTaskBar::SetNextSkill
$L269762:

; 2126 : 		}
; 2127 : 	}
; 2128 : #endif 
; 2129 : 
; 2130 : }

  00051	c3		 ret	 0
?OnActEndMeleeSkill@CMover@@QAEXXZ ENDP			; CMover::OnActEndMeleeSkill
_TEXT	ENDS
PUBLIC	?OnActEndMagicSkill@CMover@@QAEXXZ		; CMover::OnActEndMagicSkill
; Function compile flags: /Ogty
;	COMDAT ?OnActEndMagicSkill@CMover@@QAEXXZ
_TEXT	SEGMENT
?OnActEndMagicSkill@CMover@@QAEXXZ PROC NEAR		; CMover::OnActEndMagicSkill, COMDAT
; _this$ = ecx

; 2135 : 	ClearActParam();			//  

  00000	c7 81 a0 12 00
	00 00 00 00 00	 mov	 DWORD PTR [ecx+4768], 0
  0000a	8d 91 a4 12 00
	00		 lea	 edx, DWORD PTR [ecx+4772]
  00010	b8 cd cd cd cd	 mov	 eax, -842150451		; cdcdcdcdH
  00015	89 02		 mov	 DWORD PTR [edx], eax
  00017	89 42 04	 mov	 DWORD PTR [edx+4], eax
  0001a	89 42 08	 mov	 DWORD PTR [edx+8], eax
  0001d	89 42 0c	 mov	 DWORD PTR [edx+12], eax
  00020	89 42 10	 mov	 DWORD PTR [edx+16], eax

; 2136 : 	m_dwFlag &= (~MVRF_SKILL);

  00023	8b 91 48 02 00
	00		 mov	 edx, DWORD PTR [ecx+584]

; 2137 :  #ifdef __WORLDSERVER
; 2138 : 	if( IsPlayer() )

  00029	8b 81 34 02 00
	00		 mov	 eax, DWORD PTR [ecx+564]
  0002f	83 e2 fe	 and	 edx, -2			; fffffffeH
  00032	85 c0		 test	 eax, eax
  00034	89 91 48 02 00
	00		 mov	 DWORD PTR [ecx+584], edx
  0003a	74 15		 je	 SHORT $L269770

; 2139 : 	{
; 2140 : 		if( ((CUser *)this)->m_playTaskBar.m_nUsedSkillQueue != -1 )

  0003c	83 b9 44 95 00
	00 ff		 cmp	 DWORD PTR [ecx+38212], -1
  00043	74 0c		 je	 SHORT $L269770

; 2141 : 		{
; 2142 : 			((CUser *)this)->m_playTaskBar.SetNextSkill( (CUser *)this );

  00045	51		 push	 ecx
  00046	81 c1 7c 57 00
	00		 add	 ecx, 22396		; 0000577cH
  0004c	e8 00 00 00 00	 call	 ?SetNextSkill@CUserTaskBar@@QAEHPAVCUser@@@Z ; CUserTaskBar::SetNextSkill
$L269770:

; 2143 : 		}
; 2144 : 	}
; 2145 :  #endif 
; 2146 : }

  00051	c3		 ret	 0
?OnActEndMagicSkill@CMover@@QAEXXZ ENDP			; CMover::OnActEndMagicSkill
_TEXT	ENDS
PUBLIC	?OnActEndJump4@CMover@@QAEXXZ			; CMover::OnActEndJump4
EXTRN	?SetDestPos@CMover@@QAEXABUD3DXVECTOR3@@_NH@Z:NEAR ; CMover::SetDestPos
; Function compile flags: /Ogty
;	COMDAT ?OnActEndJump4@CMover@@QAEXXZ
_TEXT	SEGMENT
$T276227 = -12						; size = 12
?OnActEndJump4@CMover@@QAEXXZ PROC NEAR			; CMover::OnActEndJump4, COMDAT
; _this$ = ecx

; 2151 : 	if( FALSE == IsEmptyDestPos() )

  00000	d9 05 00 00 00
	00		 fld	 DWORD PTR __real@00000000
  00006	83 ec 0c	 sub	 esp, 12			; 0000000cH
  00009	56		 push	 esi
  0000a	8b f1		 mov	 esi, ecx
  0000c	d9 86 60 02 00
	00		 fld	 DWORD PTR [esi+608]
  00012	da e9		 fucompp
  00014	df e0		 fnstsw	 ax
  00016	f6 c4 44	 test	 ah, 68			; 00000044H
  00019	7a 15		 jp	 SHORT $L276233
  0001b	d9 05 00 00 00
	00		 fld	 DWORD PTR __real@00000000
  00021	d9 86 68 02 00
	00		 fld	 DWORD PTR [esi+616]
  00027	da e9		 fucompp
  00029	df e0		 fnstsw	 ax
  0002b	f6 c4 44	 test	 ah, 68			; 00000044H
  0002e	7b 35		 jnp	 SHORT $L269776
$L276233:

; 2152 : 		SetDestPos( GetDestPos(), m_bForward, FALSE );

  00030	8b 86 60 02 00
	00		 mov	 eax, DWORD PTR [esi+608]
  00036	8b 8e 64 02 00
	00		 mov	 ecx, DWORD PTR [esi+612]
  0003c	8b 96 68 02 00
	00		 mov	 edx, DWORD PTR [esi+616]
  00042	89 44 24 04	 mov	 DWORD PTR $T276227[esp+16], eax
  00046	33 c0		 xor	 eax, eax
  00048	8a 86 d0 02 00
	00		 mov	 al, BYTE PTR [esi+720]
  0004e	6a 00		 push	 0
  00050	89 4c 24 0c	 mov	 DWORD PTR $T276227[esp+24], ecx
  00054	8d 4c 24 08	 lea	 ecx, DWORD PTR $T276227[esp+20]
  00058	89 54 24 10	 mov	 DWORD PTR $T276227[esp+28], edx
  0005c	50		 push	 eax
  0005d	51		 push	 ecx
  0005e	8b ce		 mov	 ecx, esi
  00060	e8 00 00 00 00	 call	 ?SetDestPos@CMover@@QAEXABUD3DXVECTOR3@@_NH@Z ; CMover::SetDestPos
$L269776:

; 2153 : 
; 2154 : 	if( m_dwIndex == MI_CLOCKWORK1 )

  00065	81 be 74 01 00
	00 a4 00 00 00	 cmp	 DWORD PTR [esi+372], 164 ; 000000a4H
  0006f	75 1d		 jne	 SHORT $L276240

; 2155 : 	{
; 2156 : 		SendActMsg( OBJMSG_APPEAR );

  00071	8b 86 3c 02 00
	00		 mov	 eax, DWORD PTR [esi+572]
  00077	85 c0		 test	 eax, eax
  00079	74 13		 je	 SHORT $L276240
  0007b	6a 00		 push	 0
  0007d	6a 00		 push	 0
  0007f	6a 00		 push	 0
  00081	6a 00		 push	 0
  00083	8b c8		 mov	 ecx, eax
  00085	8b 11		 mov	 edx, DWORD PTR [ecx]
  00087	6a 00		 push	 0
  00089	6a 0e		 push	 14			; 0000000eH
  0008b	ff 52 04	 call	 DWORD PTR [edx+4]
$L276240:
  0008e	5e		 pop	 esi

; 2157 : 	}
; 2158 : }

  0008f	83 c4 0c	 add	 esp, 12			; 0000000cH
  00092	c3		 ret	 0
?OnActEndJump4@CMover@@QAEXXZ ENDP			; CMover::OnActEndJump4
_TEXT	ENDS
PUBLIC	?OnActIALanding@CMover@@QAEXPAVCObj@@ABUD3DXVECTOR3@@@Z ; CMover::OnActIALanding
EXTRN	?SetIAObjLink@CCtrl@@QAEXPAVCShip@@@Z:NEAR	; CCtrl::SetIAObjLink
; Function compile flags: /Ogty
;	COMDAT ?OnActIALanding@CMover@@QAEXPAVCObj@@ABUD3DXVECTOR3@@@Z
_TEXT	SEGMENT
_pIAObj$ = 8						; size = 4
_vPos$ = 12						; size = 4
?OnActIALanding@CMover@@QAEXPAVCObj@@ABUD3DXVECTOR3@@@Z PROC NEAR ; CMover::OnActIALanding, COMDAT
; _this$ = ecx

; 2184 : 	if( pIAObj->GetType() != OT_SHIP )	

  00000	8b 44 24 04	 mov	 eax, DWORD PTR _pIAObj$[esp-4]
  00004	83 b8 70 01 00
	00 07		 cmp	 DWORD PTR [eax+368], 7
  0000b	75 06		 jne	 SHORT $L269795

; 2185 : 		return;
; 2186 : 	CShip *pIA = (CShip *)pIAObj;
; 2187 : 
; 2188 : 	CObj *pOldIA = GetIAObjLink();
; 2189 : 	SetIAObjLink( pIA );

  0000d	50		 push	 eax
  0000e	e8 00 00 00 00	 call	 ?SetIAObjLink@CCtrl@@QAEXPAVCShip@@@Z ; CCtrl::SetIAObjLink
$L269795:

; 2190 : 	
; 2191 : 	if( IsActiveMover() )
; 2192 : 	{
; 2193 : 		if( pIA != pOldIA )	//      .
; 2194 : 		{
; 2195 : #ifdef __CLIENT			
; 2196 : 			D3DXVECTOR3 vLocal = GetPos() - pIA->GetPos();		// IA   .
; 2197 : 			g_DPlay.SendLocalPosFromIA( vLocal, pIA->GetId() );				//   
; 2198 : 			TRACE( "SendLocalPosFromIA\n" );
; 2199 : #endif //__CLIENT
; 2200 : 		}
; 2201 : 	}
; 2202 : 
; 2203 : }

  00013	c2 08 00	 ret	 8
?OnActIALanding@CMover@@QAEXPAVCObj@@ABUD3DXVECTOR3@@@Z ENDP ; CMover::OnActIALanding
_TEXT	ENDS
PUBLIC	??_C@_04OEDFLLKD@?$CC?$CFs?$CC?$AA@		; `string'
PUBLIC	??_C@_01DGKLNCNG@R?$AA@				; `string'
PUBLIC	??_C@_06GKBINIEJ@GROUND?$AA@			; `string'
PUBLIC	?SubLootDropMobSingle@CMover@@QAEHPAVCItem@@@Z	; CMover::SubLootDropMobSingle
EXTRN	?AddDefinedText@CUser@@QAAXHPBDZZ:NEAR		; CUser::AddDefinedText
EXTRN	?AddChatText@CUser@@QAAXHPBDZZ:NEAR		; CUser::AddChatText
EXTRN	?AddDefinedText@CUser@@QAEXH@Z:NEAR		; CUser::AddDefinedText
EXTRN	?CreateItem@CMover@@QAEHPAVCItemBase@@PAEPAFE@Z:NEAR ; CMover::CreateItem
EXTRN	?GetPropA@CItemBase@@QAEPAUItemProp@@XZ:NEAR	; CItemBase::GetPropA
EXTRN	?OnLogItem@CDPSrvr@@QAEXAAU_LogItemInfo@@PAVCItemElem@@H@Z:NEAR ; CDPSrvr::OnLogItem
EXTRN	?IsLogable@CItemElem@@QAEHXZ:NEAR		; CItemElem::IsLogable
EXTRN	?g_DPSrvr@@3VCDPSrvr@@A:BYTE			; g_DPSrvr
;	COMDAT ??_C@_04OEDFLLKD@?$CC?$CFs?$CC?$AA@
; File c:\documents and settings\test\mes documents\source\virtuos_v17\build\program\_common\mover.h
CONST	SEGMENT
??_C@_04OEDFLLKD@?$CC?$CFs?$CC?$AA@ DB '"%s"', 00H	; `string'
CONST	ENDS
;	COMDAT ??_C@_01DGKLNCNG@R?$AA@
CONST	SEGMENT
??_C@_01DGKLNCNG@R?$AA@ DB 'R', 00H			; `string'
CONST	ENDS
;	COMDAT ??_C@_06GKBINIEJ@GROUND?$AA@
CONST	SEGMENT
??_C@_06GKBINIEJ@GROUND?$AA@ DB 'GROUND', 00H		; `string'
; Function compile flags: /Ogty
; File c:\documents and settings\test\mes documents\source\virtuos_v17\build\program\_common\moveractevent.cpp
CONST	ENDS
;	COMDAT ?SubLootDropMobSingle@CMover@@QAEHPAVCItem@@@Z
_TEXT	SEGMENT
_aLogItem$269867 = -204					; size = 200
_aLogItem$269861 = -204					; size = 200
__$ArrayPad$ = -4					; size = 4
__$ReturnAddr$ = 4					; size = 4
_pItem$ = 8						; size = 4
?SubLootDropMobSingle@CMover@@QAEHPAVCItem@@@Z PROC NEAR ; CMover::SubLootDropMobSingle, COMDAT
; _this$ = ecx

; 2320 : {

  00000	81 ec cc 00 00
	00		 sub	 esp, 204		; 000000ccH
  00006	a1 00 00 00 00	 mov	 eax, DWORD PTR ___security_cookie
  0000b	33 c4		 xor	 eax, esp
  0000d	53		 push	 ebx
  0000e	56		 push	 esi
  0000f	57		 push	 edi

; 2321 : 	BOOL bSuccess = TRUE;
; 2322 : #ifdef __WORLDSERVER	
; 2323 : 	CItemBase* pItemBase = pItem->m_pItemBase;
; 2324 : 	bSuccess	= CreateItem( pItemBase );

  00010	6a 00		 push	 0
  00012	89 84 24 d8 00
	00 00		 mov	 DWORD PTR __$ArrayPad$[esp+220], eax
  00019	8b 84 24 e0 00
	00 00		 mov	 eax, DWORD PTR _pItem$[esp+216]
  00020	8b b8 34 02 00
	00		 mov	 edi, DWORD PTR [eax+564]
  00026	6a 00		 push	 0
  00028	6a 00		 push	 0
  0002a	57		 push	 edi
  0002b	8b f1		 mov	 esi, ecx
  0002d	e8 00 00 00 00	 call	 ?CreateItem@CMover@@QAEHPAVCItemBase@@PAEPAFE@Z ; CMover::CreateItem
  00032	8b d8		 mov	 ebx, eax

; 2325 : 	
; 2326 : 	if( IsPlayer() && pItemBase->GetProp() != NULL )

  00034	8b 86 34 02 00
	00		 mov	 eax, DWORD PTR [esi+564]
  0003a	85 c0		 test	 eax, eax
  0003c	74 6d		 je	 SHORT $L269850
  0003e	8b cf		 mov	 ecx, edi
  00040	e8 00 00 00 00	 call	 ?GetPropA@CItemBase@@QAEPAUItemProp@@XZ ; CItemBase::GetPropA
  00045	85 c0		 test	 eax, eax
  00047	74 62		 je	 SHORT $L269850

; 2327 : 	{
; 2328 : 		if( bSuccess )

  00049	85 db		 test	 ebx, ebx
  0004b	74 52		 je	 SHORT $L269845

; 2329 : 		{
; 2330 : 			((CUser*)this)->AddDefinedText( TID_GAME_REAPITEM, "\"%s\"", pItemBase->GetProp()->szName );

  0004d	8b cf		 mov	 ecx, edi
  0004f	e8 00 00 00 00	 call	 ?GetPropA@CItemBase@@QAEPAUItemProp@@XZ ; CItemBase::GetPropA
  00054	83 c0 04	 add	 eax, 4
  00057	50		 push	 eax
  00058	68 00 00 00 00	 push	 OFFSET FLAT:??_C@_04OEDFLLKD@?$CC?$CFs?$CC?$AA@
  0005d	68 74 02 00 00	 push	 628			; 00000274H
  00062	56		 push	 esi
  00063	e8 00 00 00 00	 call	 ?AddDefinedText@CUser@@QAAXHPBDZZ ; CUser::AddDefinedText
  00068	83 c4 10	 add	 esp, 16			; 00000010H

; 2331 : 
; 2332 : 			if( IsLootSendText( pItemBase->GetProp() ) )

  0006b	8b cf		 mov	 ecx, edi
  0006d	e8 00 00 00 00	 call	 ?GetPropA@CItemBase@@QAEPAUItemProp@@XZ ; CItemBase::GetPropA
  00072	50		 push	 eax
  00073	e8 00 00 00 00	 call	 ?IsLootSendText@@YAHPAUItemProp@@@Z ; IsLootSendText
  00078	83 c4 04	 add	 esp, 4
  0007b	85 c0		 test	 eax, eax
  0007d	74 2c		 je	 SHORT $L269850

; 2333 : 				((CUser*)this)->AddChatText( TID_GAME_REAPITEM, "\"%s\"", pItemBase->GetProp()->szName );									

  0007f	8b cf		 mov	 ecx, edi
  00081	e8 00 00 00 00	 call	 ?GetPropA@CItemBase@@QAEPAUItemProp@@XZ ; CItemBase::GetPropA
  00086	83 c0 04	 add	 eax, 4
  00089	50		 push	 eax
  0008a	68 00 00 00 00	 push	 OFFSET FLAT:??_C@_04OEDFLLKD@?$CC?$CFs?$CC?$AA@
  0008f	68 74 02 00 00	 push	 628			; 00000274H
  00094	56		 push	 esi
  00095	e8 00 00 00 00	 call	 ?AddChatText@CUser@@QAAXHPBDZZ ; CUser::AddChatText
  0009a	83 c4 10	 add	 esp, 16			; 00000010H

; 2334 : 			
; 2335 : 		}
; 2336 : 		else

  0009d	eb 0c		 jmp	 SHORT $L269850
$L269845:

; 2337 : 			((CUser*)this)->AddDefinedText( TID_GAME_LACKSPACE );

  0009f	68 72 02 00 00	 push	 626			; 00000272H
  000a4	8b ce		 mov	 ecx, esi
  000a6	e8 00 00 00 00	 call	 ?AddDefinedText@CUser@@QAEXH@Z ; CUser::AddDefinedText
$L269850:

; 2338 : 	}
; 2339 : 	
; 2340 : 	if( ( (CItemElem*)pItemBase )->IsLogable() && bSuccess )

  000ab	8b cf		 mov	 ecx, edi
  000ad	e8 00 00 00 00	 call	 ?IsLogable@CItemElem@@QAEHXZ ; CItemElem::IsLogable
  000b2	85 c0		 test	 eax, eax
  000b4	0f 84 c9 00 00
	00		 je	 $L276293
  000ba	85 db		 test	 ebx, ebx
  000bc	0f 84 c1 00 00
	00		 je	 $L276293

; 2341 : 	{
; 2342 : 		switch( pItemBase->GetProp()->dwItemKind2 ) 

  000c2	8b cf		 mov	 ecx, edi
  000c4	e8 00 00 00 00	 call	 ?GetPropA@CItemBase@@QAEPAUItemProp@@XZ ; CItemBase::GetPropA
  000c9	8b 40 74	 mov	 eax, DWORD PTR [eax+116]
  000cc	83 c0 f5	 add	 eax, -11		; fffffff5H
  000cf	83 f8 04	 cmp	 eax, 4
  000d2	77 57		 ja	 SHORT $L269866
  000d4	ff 24 85 00 00
	00 00		 jmp	 DWORD PTR $L276296[eax*4]
$L269858:

; 2343 : 		{
; 2344 : 		case IK2_FOOD:
; 2345 : 		case IK2_MAGIC:
; 2346 : 		case IK2_POTION:
; 2347 : 		case IK2_REFRESHER:
; 2348 : 			{
; 2349 : 				if( ( (CItemElem*)pItemBase )->m_nItemNum > 9 )

  000db	66 83 bf 80 00
	00 00 09	 cmp	 WORD PTR [edi+128], 9
  000e3	0f 8e 9a 00 00
	00		 jle	 $L276293

; 2350 : 				{
; 2351 : 					LogItemInfo aLogItem;

  000e9	8d 4c 24 0c	 lea	 ecx, DWORD PTR _aLogItem$269861[esp+216]
  000ed	e8 00 00 00 00	 call	 ??0_LogItemInfo@@QAE@XZ	; _LogItemInfo::_LogItemInfo

; 2352 : 					aLogItem.Action = "R";
; 2353 : 					aLogItem.SendName = "GROUND";
; 2354 : 					aLogItem.RecvName = GetName();

  000f2	6a 00		 push	 0
  000f4	8b ce		 mov	 ecx, esi
  000f6	c7 44 24 10 00
	00 00 00	 mov	 DWORD PTR _aLogItem$269861[esp+220], OFFSET FLAT:??_C@_01DGKLNCNG@R?$AA@
  000fe	c7 44 24 14 00
	00 00 00	 mov	 DWORD PTR _aLogItem$269861[esp+224], OFFSET FLAT:??_C@_06GKBINIEJ@GROUND?$AA@
  00106	e8 00 00 00 00	 call	 ?GetName@CMover@@QAEPBDH@Z ; CMover::GetName

; 2355 : 					aLogItem.WorldId = GetWorld()->GetID();
; 2356 : 					aLogItem.Gold = aLogItem.Gold2 = GetGold();
; 2357 : 					g_DPSrvr.OnLogItem( aLogItem, ( (CItemElem*)pItemBase ), ( (CItemElem*)pItemBase )->m_nItemNum );

  0010b	0f bf 97 80 00
	00 00		 movsx	 edx, WORD PTR [edi+128]
  00112	89 44 24 14	 mov	 DWORD PTR _aLogItem$269861[esp+224], eax
  00116	8b 86 6c 01 00
	00		 mov	 eax, DWORD PTR [esi+364]
  0011c	8b 08		 mov	 ecx, DWORD PTR [eax]
  0011e	52		 push	 edx
  0011f	57		 push	 edi
  00120	8d 44 24 14	 lea	 eax, DWORD PTR _aLogItem$269861[esp+224]
  00124	89 4c 24 20	 mov	 DWORD PTR _aLogItem$269861[esp+236], ecx
  00128	50		 push	 eax

; 2358 : 				}
; 2359 : 				break;

  00129	eb 40		 jmp	 SHORT $L276295
$L269866:

; 2360 : 			}
; 2361 : 		default:
; 2362 : 			{
; 2363 : 				LogItemInfo aLogItem;

  0012b	8d 4c 24 0c	 lea	 ecx, DWORD PTR _aLogItem$269867[esp+216]
  0012f	e8 00 00 00 00	 call	 ??0_LogItemInfo@@QAE@XZ	; _LogItemInfo::_LogItemInfo

; 2364 : 				aLogItem.Action = "R";
; 2365 : 				aLogItem.SendName = "GROUND";
; 2366 : 				aLogItem.RecvName = GetName();

  00134	6a 00		 push	 0
  00136	8b ce		 mov	 ecx, esi
  00138	c7 44 24 10 00
	00 00 00	 mov	 DWORD PTR _aLogItem$269867[esp+220], OFFSET FLAT:??_C@_01DGKLNCNG@R?$AA@
  00140	c7 44 24 14 00
	00 00 00	 mov	 DWORD PTR _aLogItem$269867[esp+224], OFFSET FLAT:??_C@_06GKBINIEJ@GROUND?$AA@
  00148	e8 00 00 00 00	 call	 ?GetName@CMover@@QAEPBDH@Z ; CMover::GetName

; 2367 : 				aLogItem.WorldId = GetWorld()->GetID();

  0014d	8b 8e 6c 01 00
	00		 mov	 ecx, DWORD PTR [esi+364]
  00153	89 44 24 14	 mov	 DWORD PTR _aLogItem$269867[esp+224], eax

; 2368 : 				aLogItem.Gold = aLogItem.Gold2 = GetGold();
; 2369 : 				g_DPSrvr.OnLogItem( aLogItem, ( (CItemElem*)pItemBase ), ( (CItemElem*)pItemBase )->m_nItemNum );

  00157	0f bf 87 80 00
	00 00		 movsx	 eax, WORD PTR [edi+128]
  0015e	8b 11		 mov	 edx, DWORD PTR [ecx]
  00160	50		 push	 eax
  00161	57		 push	 edi
  00162	8d 4c 24 14	 lea	 ecx, DWORD PTR _aLogItem$269867[esp+224]
  00166	89 54 24 20	 mov	 DWORD PTR _aLogItem$269867[esp+236], edx
  0016a	51		 push	 ecx
$L276295:
  0016b	8b b6 84 16 00
	00		 mov	 esi, DWORD PTR [esi+5764]
  00171	b9 00 00 00 00	 mov	 ecx, OFFSET FLAT:?g_DPSrvr@@3VCDPSrvr@@A
  00176	89 74 24 28	 mov	 DWORD PTR _aLogItem$269867[esp+244], esi
  0017a	89 74 24 2c	 mov	 DWORD PTR _aLogItem$269867[esp+248], esi
  0017e	e8 00 00 00 00	 call	 ?OnLogItem@CDPSrvr@@QAEXAAU_LogItemInfo@@PAVCItemElem@@H@Z ; CDPSrvr::OnLogItem
$L276293:

; 2370 : 				break;
; 2371 : 			}
; 2372 : 		}
; 2373 : 	}
; 2374 : 
; 2375 : #endif // WorldServer
; 2376 : 	return bSuccess;
; 2377 : } // SubLootDropMobSingle

  00183	8b 8c 24 d4 00
	00 00		 mov	 ecx, DWORD PTR __$ArrayPad$[esp+216]
  0018a	5f		 pop	 edi
  0018b	5e		 pop	 esi
  0018c	8b c3		 mov	 eax, ebx
  0018e	5b		 pop	 ebx
  0018f	33 cc		 xor	 ecx, esp
  00191	e8 00 00 00 00	 call	 @__security_check_cookie@4
  00196	81 c4 cc 00 00
	00		 add	 esp, 204		; 000000ccH
  0019c	c2 04 00	 ret	 4
  0019f	90		 npad	 1
$L276296:
  001a0	00 00 00 00	 DD	 $L269858
  001a4	00 00 00 00	 DD	 $L269858
  001a8	00 00 00 00	 DD	 $L269866
  001ac	00 00 00 00	 DD	 $L269858
  001b0	00 00 00 00	 DD	 $L269858
?SubLootDropMobSingle@CMover@@QAEHPAVCItem@@@Z ENDP	; CMover::SubLootDropMobSingle
_TEXT	ENDS
PUBLIC	?SubLootDropNotMob@CMover@@QAEHPAVCItem@@@Z	; CMover::SubLootDropNotMob
; Function compile flags: /Ogty
;	COMDAT ?SubLootDropNotMob@CMover@@QAEHPAVCItem@@@Z
_TEXT	SEGMENT
_aLogItem$269981 = -204					; size = 200
_aLogItem$269977 = -204					; size = 200
__$ArrayPad$ = -4					; size = 4
__$ReturnAddr$ = 4					; size = 4
_pItem$ = 8						; size = 4
?SubLootDropNotMob@CMover@@QAEHPAVCItem@@@Z PROC NEAR	; CMover::SubLootDropNotMob, COMDAT
; _this$ = ecx

; 2573 : {

  00000	81 ec cc 00 00
	00		 sub	 esp, 204		; 000000ccH
  00006	a1 00 00 00 00	 mov	 eax, DWORD PTR ___security_cookie
  0000b	33 c4		 xor	 eax, esp
  0000d	53		 push	 ebx
  0000e	56		 push	 esi
  0000f	57		 push	 edi

; 2574 : 	BOOL bSuccess = TRUE;
; 2575 : #ifdef __WORLDSERVER
; 2576 : 	CItemBase* pItemBase = pItem->m_pItemBase;
; 2577 : 	
; 2578 : 	bSuccess	= CreateItem( pItemBase );

  00010	6a 00		 push	 0
  00012	89 84 24 d8 00
	00 00		 mov	 DWORD PTR __$ArrayPad$[esp+220], eax
  00019	8b 84 24 e0 00
	00 00		 mov	 eax, DWORD PTR _pItem$[esp+216]
  00020	8b b8 34 02 00
	00		 mov	 edi, DWORD PTR [eax+564]
  00026	6a 00		 push	 0
  00028	6a 00		 push	 0
  0002a	57		 push	 edi
  0002b	8b f1		 mov	 esi, ecx
  0002d	e8 00 00 00 00	 call	 ?CreateItem@CMover@@QAEHPAVCItemBase@@PAEPAFE@Z ; CMover::CreateItem
  00032	8b d8		 mov	 ebx, eax

; 2579 : 	if( TRUE == IsPlayer() && pItemBase->GetProp() != NULL )

  00034	83 be 34 02 00
	00 01		 cmp	 DWORD PTR [esi+564], 1
  0003b	75 6d		 jne	 SHORT $L269966
  0003d	8b cf		 mov	 ecx, edi
  0003f	e8 00 00 00 00	 call	 ?GetPropA@CItemBase@@QAEPAUItemProp@@XZ ; CItemBase::GetPropA
  00044	85 c0		 test	 eax, eax
  00046	74 62		 je	 SHORT $L269966

; 2580 : 	{
; 2581 : 		if( bSuccess )

  00048	85 db		 test	 ebx, ebx
  0004a	74 52		 je	 SHORT $L269962

; 2582 : 		{
; 2583 : 			((CUser*)this)->AddDefinedText( TID_GAME_REAPITEM, "\"%s\"", pItemBase->GetProp()->szName );						

  0004c	8b cf		 mov	 ecx, edi
  0004e	e8 00 00 00 00	 call	 ?GetPropA@CItemBase@@QAEPAUItemProp@@XZ ; CItemBase::GetPropA
  00053	83 c0 04	 add	 eax, 4
  00056	50		 push	 eax
  00057	68 00 00 00 00	 push	 OFFSET FLAT:??_C@_04OEDFLLKD@?$CC?$CFs?$CC?$AA@
  0005c	68 74 02 00 00	 push	 628			; 00000274H
  00061	56		 push	 esi
  00062	e8 00 00 00 00	 call	 ?AddDefinedText@CUser@@QAAXHPBDZZ ; CUser::AddDefinedText
  00067	83 c4 10	 add	 esp, 16			; 00000010H

; 2584 : 
; 2585 : 			if( IsLootSendText( pItemBase->GetProp() ) )

  0006a	8b cf		 mov	 ecx, edi
  0006c	e8 00 00 00 00	 call	 ?GetPropA@CItemBase@@QAEPAUItemProp@@XZ ; CItemBase::GetPropA
  00071	50		 push	 eax
  00072	e8 00 00 00 00	 call	 ?IsLootSendText@@YAHPAUItemProp@@@Z ; IsLootSendText
  00077	83 c4 04	 add	 esp, 4
  0007a	85 c0		 test	 eax, eax
  0007c	74 2c		 je	 SHORT $L269966

; 2586 : 				((CUser*)this)->AddChatText( TID_GAME_REAPITEM, "\"%s\"", pItemBase->GetProp()->szName );									

  0007e	8b cf		 mov	 ecx, edi
  00080	e8 00 00 00 00	 call	 ?GetPropA@CItemBase@@QAEPAUItemProp@@XZ ; CItemBase::GetPropA
  00085	83 c0 04	 add	 eax, 4
  00088	50		 push	 eax
  00089	68 00 00 00 00	 push	 OFFSET FLAT:??_C@_04OEDFLLKD@?$CC?$CFs?$CC?$AA@
  0008e	68 74 02 00 00	 push	 628			; 00000274H
  00093	56		 push	 esi
  00094	e8 00 00 00 00	 call	 ?AddChatText@CUser@@QAAXHPBDZZ ; CUser::AddChatText
  00099	83 c4 10	 add	 esp, 16			; 00000010H

; 2587 : 		}
; 2588 : 		else

  0009c	eb 0c		 jmp	 SHORT $L269966
$L269962:

; 2589 : 			((CUser*)this)->AddDefinedText( TID_GAME_LACKSPACE );

  0009e	68 72 02 00 00	 push	 626			; 00000272H
  000a3	8b ce		 mov	 ecx, esi
  000a5	e8 00 00 00 00	 call	 ?AddDefinedText@CUser@@QAEXH@Z ; CUser::AddDefinedText
$L269966:

; 2590 : 	}
; 2591 : 	
; 2592 : 	if( ( (CItemElem*)pItemBase )->IsLogable() && bSuccess )

  000aa	8b cf		 mov	 ecx, edi
  000ac	e8 00 00 00 00	 call	 ?IsLogable@CItemElem@@QAEHXZ ; CItemElem::IsLogable
  000b1	85 c0		 test	 eax, eax
  000b3	0f 84 c9 00 00
	00		 je	 $L276333
  000b9	85 db		 test	 ebx, ebx
  000bb	0f 84 c1 00 00
	00		 je	 $L276333

; 2593 : 	{
; 2594 : 		switch( pItemBase->GetProp()->dwItemKind2 ) 

  000c1	8b cf		 mov	 ecx, edi
  000c3	e8 00 00 00 00	 call	 ?GetPropA@CItemBase@@QAEPAUItemProp@@XZ ; CItemBase::GetPropA
  000c8	8b 40 74	 mov	 eax, DWORD PTR [eax+116]
  000cb	83 c0 f5	 add	 eax, -11		; fffffff5H
  000ce	83 f8 04	 cmp	 eax, 4
  000d1	77 57		 ja	 SHORT $L269980
  000d3	ff 24 85 00 00
	00 00		 jmp	 DWORD PTR $L276336[eax*4]
$L269974:

; 2595 : 		{
; 2596 : 		case IK2_FOOD:
; 2597 : 		case IK2_MAGIC:
; 2598 : 		case IK2_POTION:
; 2599 : 		case IK2_REFRESHER:
; 2600 : 			{
; 2601 : 				if( ( (CItemElem*)pItemBase )->m_nItemNum > 9 )

  000da	66 83 bf 80 00
	00 00 09	 cmp	 WORD PTR [edi+128], 9
  000e2	0f 8e 9a 00 00
	00		 jle	 $L276333

; 2602 : 				{
; 2603 : 					LogItemInfo aLogItem;

  000e8	8d 4c 24 0c	 lea	 ecx, DWORD PTR _aLogItem$269977[esp+216]
  000ec	e8 00 00 00 00	 call	 ??0_LogItemInfo@@QAE@XZ	; _LogItemInfo::_LogItemInfo

; 2604 : 					aLogItem.Action = "R";
; 2605 : 					aLogItem.SendName = "GROUND";
; 2606 : 					aLogItem.RecvName = GetName();

  000f1	6a 00		 push	 0
  000f3	8b ce		 mov	 ecx, esi
  000f5	c7 44 24 10 00
	00 00 00	 mov	 DWORD PTR _aLogItem$269977[esp+220], OFFSET FLAT:??_C@_01DGKLNCNG@R?$AA@
  000fd	c7 44 24 14 00
	00 00 00	 mov	 DWORD PTR _aLogItem$269977[esp+224], OFFSET FLAT:??_C@_06GKBINIEJ@GROUND?$AA@
  00105	e8 00 00 00 00	 call	 ?GetName@CMover@@QAEPBDH@Z ; CMover::GetName

; 2607 : 					aLogItem.WorldId = GetWorld()->GetID();
; 2608 : 					aLogItem.Gold = aLogItem.Gold2 = GetGold();
; 2609 : 					g_DPSrvr.OnLogItem( aLogItem, ( (CItemElem*)pItemBase ), ( (CItemElem*)pItemBase )->m_nItemNum );

  0010a	0f bf 97 80 00
	00 00		 movsx	 edx, WORD PTR [edi+128]
  00111	89 44 24 14	 mov	 DWORD PTR _aLogItem$269977[esp+224], eax
  00115	8b 86 6c 01 00
	00		 mov	 eax, DWORD PTR [esi+364]
  0011b	8b 08		 mov	 ecx, DWORD PTR [eax]
  0011d	52		 push	 edx
  0011e	57		 push	 edi
  0011f	8d 44 24 14	 lea	 eax, DWORD PTR _aLogItem$269977[esp+224]
  00123	89 4c 24 20	 mov	 DWORD PTR _aLogItem$269977[esp+236], ecx
  00127	50		 push	 eax

; 2610 : 				}
; 2611 : 				break;

  00128	eb 40		 jmp	 SHORT $L276335
$L269980:

; 2612 : 			}
; 2613 : 		default:
; 2614 : 			{
; 2615 : 				LogItemInfo aLogItem;

  0012a	8d 4c 24 0c	 lea	 ecx, DWORD PTR _aLogItem$269981[esp+216]
  0012e	e8 00 00 00 00	 call	 ??0_LogItemInfo@@QAE@XZ	; _LogItemInfo::_LogItemInfo

; 2616 : 				aLogItem.Action = "R";
; 2617 : 				aLogItem.SendName = "GROUND";
; 2618 : 				aLogItem.RecvName = GetName();

  00133	6a 00		 push	 0
  00135	8b ce		 mov	 ecx, esi
  00137	c7 44 24 10 00
	00 00 00	 mov	 DWORD PTR _aLogItem$269981[esp+220], OFFSET FLAT:??_C@_01DGKLNCNG@R?$AA@
  0013f	c7 44 24 14 00
	00 00 00	 mov	 DWORD PTR _aLogItem$269981[esp+224], OFFSET FLAT:??_C@_06GKBINIEJ@GROUND?$AA@
  00147	e8 00 00 00 00	 call	 ?GetName@CMover@@QAEPBDH@Z ; CMover::GetName

; 2619 : 				aLogItem.WorldId = GetWorld()->GetID();

  0014c	8b 8e 6c 01 00
	00		 mov	 ecx, DWORD PTR [esi+364]
  00152	89 44 24 14	 mov	 DWORD PTR _aLogItem$269981[esp+224], eax

; 2620 : 				aLogItem.Gold = aLogItem.Gold2 = GetGold();
; 2621 : 				g_DPSrvr.OnLogItem( aLogItem, ( (CItemElem*)pItemBase ), ( (CItemElem*)pItemBase )->m_nItemNum );

  00156	0f bf 87 80 00
	00 00		 movsx	 eax, WORD PTR [edi+128]
  0015d	8b 11		 mov	 edx, DWORD PTR [ecx]
  0015f	50		 push	 eax
  00160	57		 push	 edi
  00161	8d 4c 24 14	 lea	 ecx, DWORD PTR _aLogItem$269981[esp+224]
  00165	89 54 24 20	 mov	 DWORD PTR _aLogItem$269981[esp+236], edx
  00169	51		 push	 ecx
$L276335:
  0016a	8b b6 84 16 00
	00		 mov	 esi, DWORD PTR [esi+5764]
  00170	b9 00 00 00 00	 mov	 ecx, OFFSET FLAT:?g_DPSrvr@@3VCDPSrvr@@A
  00175	89 74 24 28	 mov	 DWORD PTR _aLogItem$269981[esp+244], esi
  00179	89 74 24 2c	 mov	 DWORD PTR _aLogItem$269981[esp+248], esi
  0017d	e8 00 00 00 00	 call	 ?OnLogItem@CDPSrvr@@QAEXAAU_LogItemInfo@@PAVCItemElem@@H@Z ; CDPSrvr::OnLogItem
$L276333:

; 2622 : 				break;
; 2623 : 			}
; 2624 : 		}
; 2625 : 	}
; 2626 : #endif // __WORLDSERVER
; 2627 : 	
; 2628 : 	return bSuccess;
; 2629 : } // SubLootDropNotMob

  00182	8b 8c 24 d4 00
	00 00		 mov	 ecx, DWORD PTR __$ArrayPad$[esp+216]
  00189	5f		 pop	 edi
  0018a	5e		 pop	 esi
  0018b	8b c3		 mov	 eax, ebx
  0018d	5b		 pop	 ebx
  0018e	33 cc		 xor	 ecx, esp
  00190	e8 00 00 00 00	 call	 @__security_check_cookie@4
  00195	81 c4 cc 00 00
	00		 add	 esp, 204		; 000000ccH
  0019b	c2 04 00	 ret	 4
  0019e	8b ff		 npad	 2
$L276336:
  001a0	00 00 00 00	 DD	 $L269974
  001a4	00 00 00 00	 DD	 $L269974
  001a8	00 00 00 00	 DD	 $L269980
  001ac	00 00 00 00	 DD	 $L269974
  001b0	00 00 00 00	 DD	 $L269974
?SubLootDropNotMob@CMover@@QAEHPAVCItem@@@Z ENDP	; CMover::SubLootDropNotMob
_TEXT	ENDS
PUBLIC	?IsFull@?$CItemContainer@VCItemElem@@@@QAEHPAVCItemElem@@PAUItemProp@@F@Z ; CItemContainer<CItemElem>::IsFull
; Function compile flags: /Ogty
; File c:\documents and settings\test\mes documents\source\virtuos_v17\build\program\_common\item.h
;	COMDAT ?IsFull@?$CItemContainer@VCItemElem@@@@QAEHPAVCItemElem@@PAUItemProp@@F@Z
_TEXT	SEGMENT
_i$272876 = -4						; size = 4
_pElem$ = 8						; size = 4
_pItemProp$ = 12					; size = 4
tv285 = 16						; size = 4
_nNum$ = 16						; size = 2
?IsFull@?$CItemContainer@VCItemElem@@@@QAEHPAVCItemElem@@PAUItemProp@@F@Z PROC NEAR ; CItemContainer<CItemElem>::IsFull, COMDAT
; _this$ = ecx

; 631  : {

  00000	51		 push	 ecx

; 632  : 	int nId;
; 633  : 	short nNumtmp	= nNum;
; 634  : 	CItemElem* pElemtmp;
; 635  : 	for( DWORD i = 0; i < m_dwIndexNum; i++ )

  00001	8b 41 08	 mov	 eax, DWORD PTR [ecx+8]
  00004	85 c0		 test	 eax, eax
  00006	53		 push	 ebx
  00007	55		 push	 ebp
  00008	56		 push	 esi
  00009	8b 74 24 1c	 mov	 esi, DWORD PTR _nNum$[esp+12]
  0000d	57		 push	 edi
  0000e	c7 44 24 10 00
	00 00 00	 mov	 DWORD PTR _i$272876[esp+20], 0
  00016	0f 86 a8 00 00
	00		 jbe	 $L272879
  0001c	8b 41 04	 mov	 eax, DWORD PTR [ecx+4]
  0001f	8b 7c 24 1c	 mov	 edi, DWORD PTR _pItemProp$[esp+16]
  00023	8b 6c 24 18	 mov	 ebp, DWORD PTR _pElem$[esp+16]
  00027	89 44 24 20	 mov	 DWORD PTR tv285[esp+16], eax
  0002b	eb 03 8d 49 00	 npad	 5
$L276346:

; 636  : 	{
; 637  : 		nId	= m_apIndex[i];

  00030	8b 54 24 20	 mov	 edx, DWORD PTR tv285[esp+16]
  00034	8b 02		 mov	 eax, DWORD PTR [edx]

; 638  : 		if( nId < 0 || nId >= (int)( m_dwItemMax ) )

  00036	85 c0		 test	 eax, eax
  00038	7c 6b		 jl	 SHORT $L272878
  0003a	3b 41 0c	 cmp	 eax, DWORD PTR [ecx+12]
  0003d	7d 66		 jge	 SHORT $L272878

; 639  : 			continue;
; 640  : 		pElemtmp	= (CItemElem*)&m_apItem[nId];

  0003f	8b 51 10	 mov	 edx, DWORD PTR [ecx+16]
  00042	69 c0 b8 00 00
	00		 imul	 eax, 184		; 000000b8H
  00048	03 c2		 add	 eax, edx

; 641  : 		if( pElemtmp->IsEmpty() )

  0004a	8b 50 0c	 mov	 edx, DWORD PTR [eax+12]
  0004d	85 d2		 test	 edx, edx
  0004f	75 0f		 jne	 SHORT $L272884

; 642  : 		{
; 643  : 			if( nNumtmp > (short)pItemProp->dwPackMax )
; 644  : 				nNumtmp		-= (short)pItemProp->dwPackMax;

  00051	33 c0		 xor	 eax, eax
  00053	66 8b 47 6c	 mov	 ax, WORD PTR [edi+108]
  00057	66 3b f0	 cmp	 si, ax
  0005a	7e 75		 jle	 SHORT $L272892
  0005c	2b f0		 sub	 esi, eax

; 645  : 			else
; 646  : 				return FALSE;
; 647  : 		}
; 648  : 		else if( pElem->m_dwItemId == pElemtmp->m_dwItemId

  0005e	eb 45		 jmp	 SHORT $L272878
$L272884:

; 649  : 				&& pElem->m_byFlag == pElemtmp->m_byFlag && pElem->m_bCharged == pElemtmp->m_bCharged )

  00060	39 55 0c	 cmp	 DWORD PTR [ebp+12], edx
  00063	75 40		 jne	 SHORT $L272878
  00065	8a 95 82 00 00
	00		 mov	 dl, BYTE PTR [ebp+130]
  0006b	3a 90 82 00 00
	00		 cmp	 dl, BYTE PTR [eax+130]
  00071	75 32		 jne	 SHORT $L272878
  00073	8b 95 ac 00 00
	00		 mov	 edx, DWORD PTR [ebp+172]
  00079	3b 90 ac 00 00
	00		 cmp	 edx, DWORD PTR [eax+172]
  0007f	75 24		 jne	 SHORT $L272878

; 650  : 		{
; 651  : 			if( pElemtmp->m_nItemNum + nNumtmp > (short)pItemProp->dwPackMax )

  00081	0f bf 80 80 00
	00 00		 movsx	 eax, WORD PTR [eax+128]
  00088	0f bf ee	 movsx	 ebp, si
  0008b	0f bf d8	 movsx	 ebx, ax

; 652  : 				nNumtmp	-= ( (short)pItemProp->dwPackMax - pElemtmp->m_nItemNum );

  0008e	33 d2		 xor	 edx, edx
  00090	66 8b 57 6c	 mov	 dx, WORD PTR [edi+108]
  00094	03 dd		 add	 ebx, ebp
  00096	0f bf ea	 movsx	 ebp, dx
  00099	3b dd		 cmp	 ebx, ebp
  0009b	7e 34		 jle	 SHORT $L272892
  0009d	8b 6c 24 18	 mov	 ebp, DWORD PTR _pElem$[esp+16]
  000a1	2b c2		 sub	 eax, edx
  000a3	03 f0		 add	 esi, eax
$L272878:
  000a5	8b 44 24 10	 mov	 eax, DWORD PTR _i$272876[esp+20]
  000a9	8b 5c 24 20	 mov	 ebx, DWORD PTR tv285[esp+16]
  000ad	8b 51 08	 mov	 edx, DWORD PTR [ecx+8]
  000b0	40		 inc	 eax
  000b1	83 c3 04	 add	 ebx, 4
  000b4	3b c2		 cmp	 eax, edx
  000b6	89 44 24 10	 mov	 DWORD PTR _i$272876[esp+20], eax
  000ba	89 5c 24 20	 mov	 DWORD PTR tv285[esp+16], ebx
  000be	0f 82 6c ff ff
	ff		 jb	 $L276346
$L272879:
  000c4	5f		 pop	 edi
  000c5	5e		 pop	 esi
  000c6	5d		 pop	 ebp

; 655  : 		}
; 656  : 	}
; 657  : 
; 658  : 	return TRUE;

  000c7	b8 01 00 00 00	 mov	 eax, 1
  000cc	5b		 pop	 ebx

; 659  : }

  000cd	59		 pop	 ecx
  000ce	c2 0c 00	 ret	 12			; 0000000cH
$L272892:
  000d1	5f		 pop	 edi
  000d2	5e		 pop	 esi
  000d3	5d		 pop	 ebp

; 653  : 			else
; 654  : 				return FALSE;

  000d4	33 c0		 xor	 eax, eax
  000d6	5b		 pop	 ebx

; 659  : }

  000d7	59		 pop	 ecx
  000d8	c2 0c 00	 ret	 12			; 0000000cH
?IsFull@?$CItemContainer@VCItemElem@@@@QAEHPAVCItemElem@@PAUItemProp@@F@Z ENDP ; CItemContainer<CItemElem>::IsFull
_TEXT	ENDS
PUBLIC	??_C@_0BI@BEIFNGEL@GetItemProp?5range_error?$AA@ ; `string'
PUBLIC	?GetItemProp@CProject@@QAEPAUItemProp@@H@Z	; CProject::GetItemProp
;	COMDAT ??_C@_0BI@BEIFNGEL@GetItemProp?5range_error?$AA@
; File c:\documents and settings\test\mes documents\source\virtuos_v17\build\program\_common\data.h
CONST	SEGMENT
??_C@_0BI@BEIFNGEL@GetItemProp?5range_error?$AA@ DB 'GetItemProp range_er'
	DB	'ror', 00H					; `string'
; Function compile flags: /Ogty
; File c:\documents and settings\test\mes documents\source\virtuos_v17\build\program\_common\project.h
CONST	ENDS
;	COMDAT ?GetItemProp@CProject@@QAEPAUItemProp@@H@Z
_TEXT	SEGMENT
_nIndex$ = 8						; size = 4
?GetItemProp@CProject@@QAEPAUItemProp@@H@Z PROC NEAR	; CProject::GetItemProp, COMDAT
; _this$ = ecx

; 1364 : 	VERIFY_RANGE_ASSERT( nIndex, 0, m_aPropItem.GetSize(), "GetItemProp range_error", NULL );

  00000	8b 44 24 04	 mov	 eax, DWORD PTR _nIndex$[esp-4]
  00004	85 c0		 test	 eax, eax
  00006	7c 1a		 jl	 SHORT $L197914
  00008	8b 91 5c 02 00
	00		 mov	 edx, DWORD PTR [ecx+604]
  0000e	3b c2		 cmp	 eax, edx
  00010	7d 10		 jge	 SHORT $L197914

; 1365 : 	return m_aPropItem.GetAt( nIndex ); 

  00012	3b c2		 cmp	 eax, edx
  00014	73 28		 jae	 SHORT $L276371
  00016	8b 89 4c 02 00
	00		 mov	 ecx, DWORD PTR [ecx+588]
  0001c	8b 04 81	 mov	 eax, DWORD PTR [ecx+eax*4]

; 1366 : }

  0001f	c2 04 00	 ret	 4
$L197914:

; 1364 : 	VERIFY_RANGE_ASSERT( nIndex, 0, m_aPropItem.GetSize(), "GetItemProp range_error", NULL );

  00022	8b 91 5c 02 00
	00		 mov	 edx, DWORD PTR [ecx+604]
  00028	50		 push	 eax
  00029	52		 push	 edx
  0002a	6a 00		 push	 0
  0002c	68 00 00 00 00	 push	 OFFSET FLAT:??_C@_0BI@BEIFNGEL@GetItemProp?5range_error?$AA@
  00031	68 00 00 00 00	 push	 OFFSET FLAT:??_C@_0BM@HMFGHCP@?$CFs?5min?3?$CFd?0?5max?3?$CFd?0?5index?3?$CFd?$AA@
  00036	e8 00 00 00 00	 call	 ?Error@@YAPBDPBDZZ	; Error
  0003b	83 c4 14	 add	 esp, 20			; 00000014H
$L276371:
  0003e	33 c0		 xor	 eax, eax

; 1366 : }

  00040	c2 04 00	 ret	 4
?GetItemProp@CProject@@QAEPAUItemProp@@H@Z ENDP		; CProject::GetItemProp
_TEXT	ENDS
PUBLIC	??_C@_0BE@OHDBLHOM@GetText?5range_error?$AA@	; `string'
PUBLIC	??_C@_05KKCIMGE@error?$AA@			; `string'
PUBLIC	?GetText@CProject@@QAEPBDK@Z			; CProject::GetText
;	COMDAT ??_C@_0BE@OHDBLHOM@GetText?5range_error?$AA@
; File c:\documents and settings\test\mes documents\source\virtuos_v17\build\program\_common\data.h
CONST	SEGMENT
??_C@_0BE@OHDBLHOM@GetText?5range_error?$AA@ DB 'GetText range_error', 00H ; `string'
CONST	ENDS
;	COMDAT ??_C@_05KKCIMGE@error?$AA@
CONST	SEGMENT
??_C@_05KKCIMGE@error?$AA@ DB 'error', 00H		; `string'
; Function compile flags: /Ogty
; File c:\documents and settings\test\mes documents\source\virtuos_v17\build\program\_common\project.h
CONST	ENDS
;	COMDAT ?GetText@CProject@@QAEPBDK@Z
_TEXT	SEGMENT
_dwIndex$ = 8						; size = 4
?GetText@CProject@@QAEPBDK@Z PROC NEAR			; CProject::GetText, COMDAT
; _this$ = ecx

; 1402 : 	VERIFY_RANGE( (int)( dwIndex ), 0, m_colorText.GetSize(), "GetText range_error", "error" );

  00000	8b 44 24 04	 mov	 eax, DWORD PTR _dwIndex$[esp-4]
  00004	85 c0		 test	 eax, eax
  00006	7c 41		 jl	 SHORT $L197970
  00008	8b 91 c8 02 00
	00		 mov	 edx, DWORD PTR [ecx+712]
  0000e	3b c2		 cmp	 eax, edx
  00010	7d 37		 jge	 SHORT $L197970

; 1403 : 	if( m_colorText.GetAt( dwIndex ) == NULL )

  00012	3b c2		 cmp	 eax, edx
  00014	73 0c		 jae	 SHORT $L276399
  00016	8b 91 b8 02 00
	00		 mov	 edx, DWORD PTR [ecx+696]
  0001c	83 3c 82 00	 cmp	 DWORD PTR [edx+eax*4], 0
  00020	75 08		 jne	 SHORT $L197974
$L276399:

; 1404 : 		return "";

  00022	b8 00 00 00 00	 mov	 eax, OFFSET FLAT:??_C@_00CNPNBAHC@?$AA@

; 1406 : }

  00027	c2 04 00	 ret	 4
$L197974:

; 1405 : 	return m_colorText.GetAt( dwIndex )->lpszData; 

  0002a	3b 81 c8 02 00
	00		 cmp	 eax, DWORD PTR [ecx+712]
  00030	72 08		 jb	 SHORT $L276395
  00032	33 c0		 xor	 eax, eax
  00034	8b 40 04	 mov	 eax, DWORD PTR [eax+4]

; 1406 : }

  00037	c2 04 00	 ret	 4

; 1405 : 	return m_colorText.GetAt( dwIndex )->lpszData; 

$L276395:
  0003a	8b 89 b8 02 00
	00		 mov	 ecx, DWORD PTR [ecx+696]
  00040	8b 04 81	 mov	 eax, DWORD PTR [ecx+eax*4]
  00043	8b 40 04	 mov	 eax, DWORD PTR [eax+4]

; 1406 : }

  00046	c2 04 00	 ret	 4
$L197970:

; 1402 : 	VERIFY_RANGE( (int)( dwIndex ), 0, m_colorText.GetSize(), "GetText range_error", "error" );

  00049	8b 91 c8 02 00
	00		 mov	 edx, DWORD PTR [ecx+712]
  0004f	50		 push	 eax
  00050	52		 push	 edx
  00051	6a 00		 push	 0
  00053	68 00 00 00 00	 push	 OFFSET FLAT:??_C@_0BE@OHDBLHOM@GetText?5range_error?$AA@
  00058	68 00 00 00 00	 push	 OFFSET FLAT:??_C@_0BM@HMFGHCP@?$CFs?5min?3?$CFd?0?5max?3?$CFd?0?5index?3?$CFd?$AA@
  0005d	e8 00 00 00 00	 call	 ?Error@@YAPBDPBDZZ	; Error
  00062	83 c4 14	 add	 esp, 20			; 00000014H
  00065	b8 00 00 00 00	 mov	 eax, OFFSET FLAT:??_C@_05KKCIMGE@error?$AA@

; 1406 : }

  0006a	c2 04 00	 ret	 4
?GetText@CProject@@QAEPBDK@Z ENDP			; CProject::GetText
_TEXT	ENDS
PUBLIC	?GetPropA@CItemElem@@QAEPAUItemProp@@XZ		; CItemElem::GetPropA
; Function compile flags: /Ogty
; File c:\documents and settings\test\mes documents\source\virtuos_v17\build\program\_common\item.h
;	COMDAT ?GetPropA@CItemElem@@QAEPAUItemProp@@XZ
_TEXT	SEGMENT
?GetPropA@CItemElem@@QAEPAUItemProp@@XZ PROC NEAR	; CItemElem::GetPropA, COMDAT
; _this$ = ecx

; 229  : 	ItemProp*	GetProp()	{	return prj.GetItemProp( m_dwItemId );	}

  00000	8b 41 0c	 mov	 eax, DWORD PTR [ecx+12]
  00003	85 c0		 test	 eax, eax
  00005	8b 0d 5c 02 00
	00		 mov	 ecx, DWORD PTR ?prj@@3VCProject@@A+604
  0000b	7c 10		 jl	 SHORT $L276430
  0000d	3b c1		 cmp	 eax, ecx
  0000f	7d 0c		 jge	 SHORT $L276430
  00011	73 20		 jae	 SHORT $L276446
  00013	8b 0d 4c 02 00
	00		 mov	 ecx, DWORD PTR ?prj@@3VCProject@@A+588
  00019	8b 04 81	 mov	 eax, DWORD PTR [ecx+eax*4]
  0001c	c3		 ret	 0
$L276430:
  0001d	50		 push	 eax
  0001e	51		 push	 ecx
  0001f	6a 00		 push	 0
  00021	68 00 00 00 00	 push	 OFFSET FLAT:??_C@_0BI@BEIFNGEL@GetItemProp?5range_error?$AA@
  00026	68 00 00 00 00	 push	 OFFSET FLAT:??_C@_0BM@HMFGHCP@?$CFs?5min?3?$CFd?0?5max?3?$CFd?0?5index?3?$CFd?$AA@
  0002b	e8 00 00 00 00	 call	 ?Error@@YAPBDPBDZZ	; Error
  00030	83 c4 14	 add	 esp, 20			; 00000014H
$L276446:
  00033	33 c0		 xor	 eax, eax
  00035	c3		 ret	 0
?GetPropA@CItemElem@@QAEPAUItemProp@@XZ ENDP		; CItemElem::GetPropA
_TEXT	ENDS
PUBLIC	?GetPropA@CItem@@QAEPAUItemProp@@XZ		; CItem::GetPropA
; Function compile flags: /Ogty
;	COMDAT ?GetPropA@CItem@@QAEPAUItemProp@@XZ
_TEXT	SEGMENT
?GetPropA@CItem@@QAEPAUItemProp@@XZ PROC NEAR		; CItem::GetPropA, COMDAT
; _this$ = ecx

; 991  : 	ItemProp* GetProp() { return prj.GetItemProp( GetIndex() ); }

  00000	8b 81 74 01 00
	00		 mov	 eax, DWORD PTR [ecx+372]
  00006	85 c0		 test	 eax, eax
  00008	8b 0d 5c 02 00
	00		 mov	 ecx, DWORD PTR ?prj@@3VCProject@@A+604
  0000e	7c 10		 jl	 SHORT $L276481
  00010	3b c1		 cmp	 eax, ecx
  00012	7d 0c		 jge	 SHORT $L276481
  00014	73 20		 jae	 SHORT $L276496
  00016	8b 0d 4c 02 00
	00		 mov	 ecx, DWORD PTR ?prj@@3VCProject@@A+588
  0001c	8b 04 81	 mov	 eax, DWORD PTR [ecx+eax*4]
  0001f	c3		 ret	 0
$L276481:
  00020	50		 push	 eax
  00021	51		 push	 ecx
  00022	6a 00		 push	 0
  00024	68 00 00 00 00	 push	 OFFSET FLAT:??_C@_0BI@BEIFNGEL@GetItemProp?5range_error?$AA@
  00029	68 00 00 00 00	 push	 OFFSET FLAT:??_C@_0BM@HMFGHCP@?$CFs?5min?3?$CFd?0?5max?3?$CFd?0?5index?3?$CFd?$AA@
  0002e	e8 00 00 00 00	 call	 ?Error@@YAPBDPBDZZ	; Error
  00033	83 c4 14	 add	 esp, 20			; 00000014H
$L276496:
  00036	33 c0		 xor	 eax, eax
  00038	c3		 ret	 0
?GetPropA@CItem@@QAEPAUItemProp@@XZ ENDP		; CItem::GetPropA
_TEXT	ENDS
PUBLIC	__real@3f800000
PUBLIC	?OnAttackRange@CMover@@QAEHXZ			; CMover::OnAttackRange
EXTRN	?GetInstance@CMonsterSkill@@SAPAV1@XZ:NEAR	; CMonsterSkill::GetInstance
EXTRN	?ApplySkill@CMonsterSkill@@QAEHPAVCMover@@0K@Z:NEAR ; CMonsterSkill::ApplySkill
EXTRN	?AddCreateSfxAllow@CUserMng@@QAEXPAVCMover@@KKUD3DXVECTOR3@@H@Z:NEAR ; CUserMng::AddCreateSfxAllow
EXTRN	?GetActiveHandItemProp@CMover@@QAEPAUItemProp@@H@Z:NEAR ; CMover::GetActiveHandItemProp
;	COMDAT __real@3f800000
; File c:\documents and settings\test\mes documents\source\virtuos_v17\build\program\_common\ctrl.h
CONST	SEGMENT
__real@3f800000 DD 03f800000r			; 1
; Function compile flags: /Ogty
; File c:\documents and settings\test\mes documents\source\virtuos_v17\build\program\_common\moveractevent.cpp
CONST	ENDS
;	COMDAT ?OnAttackRange@CMover@@QAEHXZ
_TEXT	SEGMENT
_idTarget$ = -28					; size = 4
$T276500 = -24						; size = 12
_vPosDest$ = -12					; size = 12
?OnAttackRange@CMover@@QAEHXZ PROC NEAR			; CMover::OnAttackRange, COMDAT
; _this$ = ecx

; 733  : {

  00000	83 ec 1c	 sub	 esp, 28			; 0000001cH
  00003	53		 push	 ebx
  00004	55		 push	 ebp
  00005	56		 push	 esi
  00006	8b f1		 mov	 esi, ecx

; 734  : 	int		idTarget = GetActParam( 0 );

  00008	8b 86 a4 12 00
	00		 mov	 eax, DWORD PTR [esi+4772]

; 735  : 	DWORD	dwItemID = GetActParam( 1 );		//    (player )

  0000e	8b ae a8 12 00
	00		 mov	 ebp, DWORD PTR [esi+4776]
  00014	57		 push	 edi

; 736  : 	int		idSfxHit = GetActParam( 2 );		//      .
; 737  : #if __VER >= 8 // __S8_PK
; 738  : 	BOOL	bControl = FALSE;
; 739  : #endif // __VER >= 8 // __S8_PK
; 740  : 
; 741  : 	CMover* pHit = prj.GetMover( idTarget );	//   .

  00015	50		 push	 eax
  00016	b9 00 00 00 00	 mov	 ecx, OFFSET FLAT:?prj@@3VCProject@@A
  0001b	89 44 24 14	 mov	 DWORD PTR _idTarget$[esp+48], eax
  0001f	e8 00 00 00 00	 call	 ?GetMover@CProject@@QAEPAVCMover@@K@Z ; CProject::GetMover
  00024	8b d8		 mov	 ebx, eax

; 742  : 	if( IsInvalidObj(pHit) )	

  00026	85 db		 test	 ebx, ebx
  00028	0f 84 2e 01 00
	00		 je	 $L276599
  0002e	f6 43 04 01	 test	 BYTE PTR [ebx+4], 1

; 743  : 		return FALSE;							//    .

  00032	0f 85 24 01 00
	00		 jne	 $L276599

; 744  : 	
; 745  : 	ItemProp *pItemProp = NULL;
; 746  : 	if( IsPlayer() )

  00038	8b 86 34 02 00
	00		 mov	 eax, DWORD PTR [esi+564]
  0003e	85 c0		 test	 eax, eax

; 747  : 		pItemProp = GetActiveHandItemProp();		//     ( )
; 748  : 	else 

  00040	75 16		 jne	 SHORT $L269344

; 749  : 	{
; 750  : 		if( dwItemID == NULL_ID || dwItemID == 0 )	

  00042	83 fd ff	 cmp	 ebp, -1
  00045	74 11		 je	 SHORT $L269344
  00047	85 ed		 test	 ebp, ebp
  00049	74 0d		 je	 SHORT $L269344

; 752  : 		else
; 753  : 			pItemProp = prj.GetItemProp( dwItemID );	//      (  )

  0004b	55		 push	 ebp
  0004c	b9 00 00 00 00	 mov	 ecx, OFFSET FLAT:?prj@@3VCProject@@A
  00051	e8 00 00 00 00	 call	 ?GetItemProp@CProject@@QAEPAUItemProp@@H@Z ; CProject::GetItemProp
  00056	eb 09		 jmp	 SHORT $L276598
$L269344:

; 751  : 			pItemProp = GetActiveHandItemProp();		//     ( )

  00058	8b ce		 mov	 ecx, esi
  0005a	6a 0a		 push	 10			; 0000000aH
  0005c	e8 00 00 00 00	 call	 ?GetActiveHandItemProp@CMover@@QAEPAUItemProp@@H@Z ; CMover::GetActiveHandItemProp
$L276598:
  00061	8b f8		 mov	 edi, eax

; 754  : 	}
; 755  : 
; 756  : 	if( pItemProp == NULL )

  00063	85 ff		 test	 edi, edi

; 757  : 		return FALSE;

  00065	0f 84 f1 00 00
	00		 je	 $L276599

; 758  : 
; 759  : #ifdef __WORLDSERVER
; 760  : #if __VER >= 12 // __MONSTER_SKILL
; 761  : 	if( IsNPC() )

  0006b	8b 86 34 02 00
	00		 mov	 eax, DWORD PTR [esi+564]
  00071	85 c0		 test	 eax, eax
  00073	75 10		 jne	 SHORT $L269347

; 762  : 		CMonsterSkill::GetInstance()->ApplySkill( this, pHit, ATK_RANGE );

  00075	6a 02		 push	 2
  00077	53		 push	 ebx
  00078	56		 push	 esi
  00079	e8 00 00 00 00	 call	 ?GetInstance@CMonsterSkill@@SAPAV1@XZ ; CMonsterSkill::GetInstance
  0007e	8b c8		 mov	 ecx, eax
  00080	e8 00 00 00 00	 call	 ?ApplySkill@CMonsterSkill@@QAEHPAVCMover@@0K@Z ; CMonsterSkill::ApplySkill
$L269347:

; 763  : #endif // __MONSTER_SKILL
; 764  : #endif // __WORLDSERVER
; 765  : 
; 766  : 	DWORD dwSfxObj = pItemProp->dwSfxObj2;

  00085	8b 87 d8 01 00
	00		 mov	 eax, DWORD PTR [edi+472]

; 767  : 	
; 768  : 	D3DXVECTOR3 vPosDest = pHit->GetPos() + D3DXVECTOR3( 0.0f, 1.0f, 0.0f ); //    .  

  0008b	8d 8b 60 01 00
	00		 lea	 ecx, DWORD PTR [ebx+352]
  00091	8b 11		 mov	 edx, DWORD PTR [ecx]
  00093	89 54 24 14	 mov	 DWORD PTR $T276500[esp+44], edx
  00097	8b 51 04	 mov	 edx, DWORD PTR [ecx+4]
  0009a	8b 49 08	 mov	 ecx, DWORD PTR [ecx+8]
  0009d	89 54 24 18	 mov	 DWORD PTR $T276500[esp+48], edx
  000a1	d9 44 24 18	 fld	 DWORD PTR $T276500[esp+48]
  000a5	d8 05 00 00 00
	00		 fadd	 DWORD PTR __real@3f800000
  000ab	8b 54 24 14	 mov	 edx, DWORD PTR $T276500[esp+44]
  000af	89 4c 24 1c	 mov	 DWORD PTR $T276500[esp+52], ecx
  000b3	89 4c 24 28	 mov	 DWORD PTR _vPosDest$[esp+52], ecx

; 769  : 	D3DXVECTOR3 vPosSrc  = GetPos() + D3DXVECTOR3( 0.0f, 1.0f, 0.0f ); //    .  
; 770  : 
; 771  : #ifdef __CLIENT		
; 772  : 	CSfx* pSfx = NULL;
; 773  : #endif
; 774  : 	//     ...
; 775  : 	if( IsPlayer() )		

  000b7	8b 8e 34 02 00
	00		 mov	 ecx, DWORD PTR [esi+564]
  000bd	d9 5c 24 24	 fstp	 DWORD PTR _vPosDest$[esp+48]
  000c1	85 c9		 test	 ecx, ecx
  000c3	89 54 24 20	 mov	 DWORD PTR _vPosDest$[esp+44], edx
  000c7	0f 84 8a 00 00
	00		 je	 $L269357

; 776  : 	{
; 777  : 		ItemProp *pItemElem = GetActiveHandItemProp( PARTS_BULLET );  //    

  000cd	6a 19		 push	 25			; 00000019H
  000cf	8b ce		 mov	 ecx, esi
  000d1	e8 00 00 00 00	 call	 ?GetActiveHandItemProp@CMover@@QAEPAUItemProp@@H@Z ; CMover::GetActiveHandItemProp

; 778  : 		if( pItemElem && pItemElem->dwSfxObj2 != NULL_ID )

  000d6	85 c0		 test	 eax, eax
  000d8	74 3c		 je	 SHORT $L276595
  000da	8b 80 d8 01 00
	00		 mov	 eax, DWORD PTR [eax+472]
  000e0	83 f8 ff	 cmp	 eax, -1
  000e3	74 31		 je	 SHORT $L276595

; 779  : 		{
; 780  : 		#ifdef __CLIENT
; 781  : 			if( IsActiveMover() )
; 782  : 				pSfx = CreateSfxArrow( pItemElem->dwSfxObj2, pItemProp->dwSfxObj3, vPosDest, idTarget );
; 783  : 		#endif //__CLIENT
; 784  : 
; 785  : 		#ifdef __WORLDSERVER
; 786  : 			g_UserMng.AddCreateSfxAllow( this, pItemElem->dwSfxObj2, pItemProp->dwSfxObj3, vPosDest, idTarget );

  000e5	8b 54 24 10	 mov	 edx, DWORD PTR _idTarget$[esp+44]
  000e9	52		 push	 edx
  000ea	8b 54 24 24	 mov	 edx, DWORD PTR _vPosDest$[esp+48]
  000ee	83 ec 0c	 sub	 esp, 12			; 0000000cH
  000f1	8b cc		 mov	 ecx, esp
  000f3	89 11		 mov	 DWORD PTR [ecx], edx
  000f5	8b 54 24 34	 mov	 edx, DWORD PTR _vPosDest$[esp+64]
  000f9	89 51 04	 mov	 DWORD PTR [ecx+4], edx
  000fc	8b 54 24 38	 mov	 edx, DWORD PTR _vPosDest$[esp+68]
  00100	89 51 08	 mov	 DWORD PTR [ecx+8], edx
  00103	8b 8f dc 01 00
	00		 mov	 ecx, DWORD PTR [edi+476]
  00109	51		 push	 ecx
  0010a	50		 push	 eax
  0010b	56		 push	 esi
  0010c	b9 00 00 00 00	 mov	 ecx, OFFSET FLAT:?g_UserMng@@3VCUserMng@@A
  00111	e8 00 00 00 00	 call	 ?AddCreateSfxAllow@CUserMng@@QAEXPAVCMover@@KKUD3DXVECTOR3@@H@Z ; CUserMng::AddCreateSfxAllow
$L276595:

; 793  : 			return FALSE;
; 794  : 	#ifdef __CLIENT		
; 795  : 		pSfx = CreateSfx( D3DDEVICE, dwSfxObj, vPosSrc,GetId(), vPosDest ,idTarget );
; 796  : 	#endif
; 797  : 	}
; 798  : 
; 799  : 	DWORD dwAtkFlags = AF_GENERIC;
; 800  : 	if( IsPlayer() )

  00116	8b 86 34 02 00
	00		 mov	 eax, DWORD PTR [esi+564]
  0011c	85 c0		 test	 eax, eax
  0011e	b9 01 00 00 00	 mov	 ecx, 1
  00123	74 05		 je	 SHORT $L269364

; 801  : 		dwAtkFlags |= AF_RANGE;

  00125	b9 01 40 00 00	 mov	 ecx, 16385		; 00004001H
$L269364:

; 802  : 
; 803  : #ifdef __WORLDSERVER
; 804  : #if __VER >= 8 // __S8_PK
; 805  : 	OnAttackSFX( pHit->GetId(), ( IsPlayer()? dwItemID: 0 ), NULL_ID, 0, 0, 0, dwAtkFlags, bControl );

  0012a	8b 93 bc 01 00
	00		 mov	 edx, DWORD PTR [ebx+444]
  00130	6a 00		 push	 0
  00132	51		 push	 ecx
  00133	6a 00		 push	 0
  00135	6a 00		 push	 0
  00137	f7 d8		 neg	 eax
  00139	6a 00		 push	 0
  0013b	1b c0		 sbb	 eax, eax
  0013d	6a ff		 push	 -1
  0013f	23 c5		 and	 eax, ebp
  00141	50		 push	 eax
  00142	52		 push	 edx
  00143	8b ce		 mov	 ecx, esi
  00145	e8 00 00 00 00	 call	 ?OnAttackSFX@CMover@@QAEXKHKHMMKH@Z ; CMover::OnAttackSFX

; 806  : #else // __VER >= 8 // __S8_PK
; 807  : 	OnAttackSFX( pHit->GetId(), ( IsPlayer()? dwItemID: 0 ), NULL_ID, 0, 0, 0, dwAtkFlags );
; 808  : #endif // __VER >= 8 // __S8_PK
; 809  : #endif	// __WORLDSERVER
; 810  : 
; 811  : #ifdef __CLIENT
; 812  : 	if( pSfx )
; 813  : 	{
; 814  : 		if( IsActiveMover() )		
; 815  : 		{
; 816  : 			idSfxHit = ++m_idSfxHit; 	//     ID    .
; 817  : 			g_DPlay.SendSfxID( idTarget, idSfxHit, dwAtkFlags );
; 818  : 			pSfx->m_idSfxHit	= idSfxHit;
; 819  : 			pSfx->m_nMagicPower = IsPlayer() ? dwItemID : 0;		//  .
; 820  : 		}
; 821  : 		//  g_pPlayer /    g_pPlayer
; 822  : 		if( IsActiveMover() || (IsNPC() && pHit->IsActiveMover()) )
; 823  : 			pSfx->m_idSfxHit	= idSfxHit;		// id 
; 824  : 	}
; 825  : #endif //__CLIENT
; 826  : 	return TRUE;

  0014a	b8 01 00 00 00	 mov	 eax, 1

; 827  : }

  0014f	5f		 pop	 edi
  00150	5e		 pop	 esi
  00151	5d		 pop	 ebp
  00152	5b		 pop	 ebx
  00153	83 c4 1c	 add	 esp, 28			; 0000001cH
  00156	c3		 ret	 0
$L269357:

; 787  : 		#endif //__WORLDSERVER
; 788  : 		}
; 789  : 	}
; 790  : 	else
; 791  : 	{
; 792  : 		if( dwSfxObj == NULL_ID )	

  00157	83 f8 ff	 cmp	 eax, -1
  0015a	75 ba		 jne	 SHORT $L276595
$L276599:

; 827  : }

  0015c	5f		 pop	 edi
  0015d	5e		 pop	 esi
  0015e	5d		 pop	 ebp
  0015f	33 c0		 xor	 eax, eax
  00161	5b		 pop	 ebx
  00162	83 c4 1c	 add	 esp, 28			; 0000001cH
  00165	c3		 ret	 0
?OnAttackRange@CMover@@QAEHXZ ENDP			; CMover::OnAttackRange
_TEXT	ENDS
PUBLIC	?OnDamage@CMover@@QAEHHKPAV1@PBUD3DXVECTOR3@@K@Z ; CMover::OnDamage
EXTRN	?SendDamageAround@CWorld@@QAEXPBUD3DXVECTOR3@@HPAVCMover@@HHM@Z:NEAR ; CWorld::SendDamageAround
EXTRN	?IsDualWeapon@CMover@@QAEHXZ:NEAR		; CMover::IsDualWeapon
EXTRN	?SendDamageAround@CMover@@QAEXHPAV1@HHMMM@Z:NEAR ; CMover::SendDamageAround
; Function compile flags: /Ogty
;	COMDAT ?OnDamage@CMover@@QAEHHKPAV1@PBUD3DXVECTOR3@@K@Z
_TEXT	SEGMENT
_nItemID$ = 8						; size = 4
_dwState$ = 12						; size = 4
tv457 = 16						; size = 4
tv454 = 16						; size = 4
_pHitObj$ = 16						; size = 4
_pvDamagePos$ = 20					; size = 4
_dwAtkFlag$ = 24					; size = 4
?OnDamage@CMover@@QAEHHKPAV1@PBUD3DXVECTOR3@@K@Z PROC NEAR ; CMover::OnDamage, COMDAT
; _this$ = ecx

; 1564 : {

  00000	53		 push	 ebx
  00001	55		 push	 ebp
  00002	56		 push	 esi
  00003	8b f1		 mov	 esi, ecx

; 1565 : 	int nParam = 0x01;		//sun
; 1566 : 
; 1567 : 	if( IsPlayer() && IsDualWeapon() )		// ?

  00005	8b 86 34 02 00
	00		 mov	 eax, DWORD PTR [esi+564]
  0000b	85 c0		 test	 eax, eax
  0000d	57		 push	 edi
  0000e	bd 01 00 00 00	 mov	 ebp, 1
  00013	74 46		 je	 SHORT $L269620
  00015	e8 00 00 00 00	 call	 ?IsDualWeapon@CMover@@QAEHXZ ; CMover::IsDualWeapon
  0001a	85 c0		 test	 eax, eax
  0001c	74 3d		 je	 SHORT $L269620

; 1568 : 	{
; 1569 : 		if( m_pActMover->m_dwAtkFlags & AF_GENERIC )	// 

  0001e	8b 86 3c 02 00
	00		 mov	 eax, DWORD PTR [esi+572]
  00024	f6 80 94 00 00
	00 01		 test	 BYTE PTR [eax+148], 1
  0002b	74 2e		 je	 SHORT $L269620

; 1570 : 		{
; 1571 : 			switch( dwState )

  0002d	8b 44 24 18	 mov	 eax, DWORD PTR _dwState$[esp+12]
  00031	3d 00 00 03 00	 cmp	 eax, 196608		; 00030000H
  00036	77 17		 ja	 SHORT $L276603
  00038	74 0e		 je	 SHORT $L269625
  0003a	3d 00 00 01 00	 cmp	 eax, 65536		; 00010000H
  0003f	74 07		 je	 SHORT $L269625
  00041	3d 00 00 02 00	 cmp	 eax, 131072		; 00020000H

; 1572 : 			{
; 1573 : 			case OBJSTA_ATK1:	nParam |= 0x01;		break; // 
; 1574 : 			case OBJSTA_ATK2:	nParam |= 0x02;		break; // 

  00046	eb 0c		 jmp	 SHORT $L276695
$L269625:

; 1575 : 			case OBJSTA_ATK3:	nParam |= 0x01;		break; // 

  00048	bd 01 00 00 00	 mov	 ebp, 1
  0004d	eb 0c		 jmp	 SHORT $L269620
$L276603:

; 1570 : 		{
; 1571 : 			switch( dwState )

  0004f	3d 00 00 04 00	 cmp	 eax, 262144		; 00040000H
$L276695:
  00054	75 05		 jne	 SHORT $L269620

; 1576 : 			case OBJSTA_ATK4:	nParam |= 0x03;		break; // 

  00056	bd 03 00 00 00	 mov	 ebp, 3
$L269620:

; 1577 : 			}
; 1578 : 		}
; 1579 : 	}
; 1580 : 
; 1581 : 
; 1582 : #if defined(__CLIENT)
; 1583 : 	if( IsValidObj(pHitObj) )
; 1584 : 	{
; 1585 : 		CModelObject* pHitModel = (CModelObject*)pHitObj->m_pModel;
; 1586 : 		if( pHitModel )
; 1587 : 		{
; 1588 : 			D3DXVECTOR3 vDir;
; 1589 : 			pHitModel->m_SparkInfo.m_bUsed = TRUE;
; 1590 : 			pHitModel->m_SparkInfo.m_v3Color.x = 2.0f;
; 1591 : 			pHitModel->m_SparkInfo.m_v3Color.y = 2.0f;
; 1592 : 			pHitModel->m_SparkInfo.m_v3Color.z = 2.0f;
; 1593 : 			pHitModel->m_SparkInfo.m_nCnt = 0;
; 1594 : 			pHitModel->m_SparkInfo.m_fLerp= 1.0f;
; 1595 : 
; 1596 : 			vDir = pHitObj->GetPos() - GetPos();
; 1597 : 			D3DXVec3Normalize( &pHitModel->m_SparkInfo.m_v3SparkDir, &vDir );
; 1598 : 		}
; 1599 : 	}
; 1600 : #endif //defined(__CLIENT) 
; 1601 : 	
; 1602 : 	int	nDamage = 0;
; 1603 : 	if( IsPlayer() )

  0005b	8b 86 34 02 00
	00		 mov	 eax, DWORD PTR [esi+564]
  00061	33 db		 xor	 ebx, ebx
  00063	85 c0		 test	 eax, eax
  00065	74 19		 je	 SHORT $L276657

; 1604 : 	{
; 1605 : 		// 
; 1606 : 		nDamage = pHitObj->m_pActMover->SendDamage( m_pActMover->m_dwAtkFlags, GetId(), nParam );

  00067	8b 8e 3c 02 00
	00		 mov	 ecx, DWORD PTR [esi+572]
  0006d	8b 91 94 00 00
	00		 mov	 edx, DWORD PTR [ecx+148]
  00073	8b 7c 24 1c	 mov	 edi, DWORD PTR _pHitObj$[esp+12]
  00077	53		 push	 ebx
  00078	6a 01		 push	 1
  0007a	55		 push	 ebp

; 1607 : 	}
; 1608 : 	else

  0007b	e9 ac 00 00 00	 jmp	 $L276696

; 1609 : 	{
; 1610 : 		// 
; 1611 : 		ItemProp *pItemProp = prj.GetItemProp( nItemID );

$L276657:
  00080	8b 44 24 14	 mov	 eax, DWORD PTR _nItemID$[esp+12]
  00084	85 c0		 test	 eax, eax
  00086	8b 0d 5c 02 00
	00		 mov	 ecx, DWORD PTR ?prj@@3VCProject@@A+604
  0008c	7c 6e		 jl	 SHORT $L276661
  0008e	3b c1		 cmp	 eax, ecx
  00090	7d 6a		 jge	 SHORT $L276661
  00092	73 7e		 jae	 SHORT $L269631
  00094	8b 15 4c 02 00
	00		 mov	 edx, DWORD PTR ?prj@@3VCProject@@A+588
  0009a	8b 14 82	 mov	 edx, DWORD PTR [edx+eax*4]

; 1612 : 		if( pItemProp )

  0009d	85 d2		 test	 edx, edx
  0009f	74 71		 je	 SHORT $L269631

; 1613 : 		{
; 1614 : 			if( pItemProp->dwSpellRegion == SRO_AROUND )

  000a1	83 ba fc 01 00
	00 07		 cmp	 DWORD PTR [edx+508], 7
  000a8	0f 85 06 01 00
	00		 jne	 $L269632

; 1615 : 			{
; 1616 : 				int nType = OBJTYPE_PLAYER;		//  .
; 1617 : 				if( pHitObj )

  000ae	8b 4c 24 1c	 mov	 ecx, DWORD PTR _pHitObj$[esp+12]
  000b2	85 c9		 test	 ecx, ecx
  000b4	0f 84 b9 00 00
	00		 je	 $L269634

; 1618 : 					pHitObj->SendDamageAround( dwAtkFlag, this, nType, nItemID, (float)pItemProp->_dwSkillRange, 1.0f, 1.0f ); 

  000ba	8b 92 cc 01 00
	00		 mov	 edx, DWORD PTR [edx+460]
  000c0	85 d2		 test	 edx, edx
  000c2	68 00 00 80 3f	 push	 1065353216		; 3f800000H
  000c7	89 54 24 20	 mov	 DWORD PTR tv457[esp+16], edx
  000cb	db 44 24 20	 fild	 DWORD PTR tv457[esp+16]
  000cf	68 00 00 80 3f	 push	 1065353216		; 3f800000H
  000d4	7d 06		 jge	 SHORT $L276693
  000d6	d8 05 00 00 00
	00		 fadd	 DWORD PTR __real@4f800000
$L276693:
  000dc	51		 push	 ecx
  000dd	d9 1c 24	 fstp	 DWORD PTR [esp]
  000e0	50		 push	 eax
  000e1	8b 44 24 34	 mov	 eax, DWORD PTR _dwAtkFlag$[esp+28]
  000e5	6a 01		 push	 1
  000e7	56		 push	 esi
  000e8	50		 push	 eax
  000e9	e8 00 00 00 00	 call	 ?SendDamageAround@CMover@@QAEXHPAV1@HHMMM@Z ; CMover::SendDamageAround
  000ee	5f		 pop	 edi
  000ef	5e		 pop	 esi

; 1643 : 			}
; 1644 : 		}
; 1645 : 	}
; 1646 :  #endif
; 1647 : 	return nDamage > 0;

  000f0	33 c0		 xor	 eax, eax
  000f2	85 db		 test	 ebx, ebx
  000f4	5d		 pop	 ebp
  000f5	0f 9f c0	 setg	 al
  000f8	5b		 pop	 ebx

; 1648 : }

  000f9	c2 14 00	 ret	 20			; 00000014H

; 1609 : 	{
; 1610 : 		// 
; 1611 : 		ItemProp *pItemProp = prj.GetItemProp( nItemID );

$L276661:
  000fc	50		 push	 eax
  000fd	51		 push	 ecx
  000fe	6a 00		 push	 0
  00100	68 00 00 00 00	 push	 OFFSET FLAT:??_C@_0BI@BEIFNGEL@GetItemProp?5range_error?$AA@
  00105	68 00 00 00 00	 push	 OFFSET FLAT:??_C@_0BM@HMFGHCP@?$CFs?5min?3?$CFd?0?5max?3?$CFd?0?5index?3?$CFd?$AA@
  0010a	e8 00 00 00 00	 call	 ?Error@@YAPBDPBDZZ	; Error
  0010f	83 c4 14	 add	 esp, 20			; 00000014H
$L269631:

; 1621 : 			} else
; 1622 : 			{
; 1623 : 				if( pHitObj )
; 1624 : 					nDamage = pHitObj->m_pActMover->SendDamage( m_pActMover->m_dwAtkFlags, GetId(), 1 );
; 1625 : 			}
; 1626 : 		} else
; 1627 : 		{
; 1628 : 			if( pHitObj )

  00112	8b 7c 24 1c	 mov	 edi, DWORD PTR _pHitObj$[esp+12]
  00116	85 ff		 test	 edi, edi
  00118	74 4b		 je	 SHORT $L276692

; 1629 : 				nDamage = pHitObj->m_pActMover->SendDamage( m_pActMover->m_dwAtkFlags, GetId(), 1 );

  0011a	8b 96 3c 02 00
	00		 mov	 edx, DWORD PTR [esi+572]
  00120	8b 92 94 00 00
	00		 mov	 edx, DWORD PTR [edx+148]
$L276697:
  00126	6a 00		 push	 0
  00128	6a 01		 push	 1
  0012a	6a 01		 push	 1
$L276696:
  0012c	8b 86 bc 01 00
	00		 mov	 eax, DWORD PTR [esi+444]
  00132	8b 8f 3c 02 00
	00		 mov	 ecx, DWORD PTR [edi+572]
  00138	8b 31		 mov	 esi, DWORD PTR [ecx]
  0013a	50		 push	 eax
  0013b	52		 push	 edx
  0013c	6a 29		 push	 41			; 00000029H
  0013e	ff 56 04	 call	 DWORD PTR [esi+4]
  00141	8b d8		 mov	 ebx, eax

; 1630 : 		}
; 1631 : 	}
; 1632 : 
; 1633 : 
; 1634 :  #ifdef __WORLDSERVER
; 1635 : 	if( nDamage > 0 )		// THIS    

  00143	85 db		 test	 ebx, ebx
  00145	7e 1e		 jle	 SHORT $L276692

; 1636 : 	{
; 1637 : 		if( pHitObj->m_pActMover->GetState() & OBJSTA_ATK_MELEESKILL )	//   .

  00147	8b 87 3c 02 00
	00		 mov	 eax, DWORD PTR [edi+572]
  0014d	f7 40 04 00 00
	09 00		 test	 DWORD PTR [eax+4], 589824 ; 00090000H
  00154	74 0f		 je	 SHORT $L276692

; 1638 : 		{
; 1639 : 			DWORD dwSkill = pHitObj->GetActParam(0);		//    . dwSkill
; 1640 : 			if( dwSkill == SI_MER_ONE_REFLEXHIT )			//      .

  00156	83 bf a4 12 00
	00 0e		 cmp	 DWORD PTR [edi+4772], 14 ; 0000000eH
  0015d	75 06		 jne	 SHORT $L276692

; 1641 : 			{
; 1642 : 				pHitObj->m_nReflexDmg += nDamage;			//  .

  0015f	01 9f b4 06 00
	00		 add	 DWORD PTR [edi+1716], ebx
$L276692:
  00165	5f		 pop	 edi
  00166	5e		 pop	 esi

; 1643 : 			}
; 1644 : 		}
; 1645 : 	}
; 1646 :  #endif
; 1647 : 	return nDamage > 0;

  00167	33 c0		 xor	 eax, eax
  00169	85 db		 test	 ebx, ebx
  0016b	5d		 pop	 ebp
  0016c	0f 9f c0	 setg	 al
  0016f	5b		 pop	 ebx

; 1648 : }

  00170	c2 14 00	 ret	 20			; 00000014H
$L269634:

; 1619 : 				else
; 1620 : 					GetWorld()->SendDamageAround( pvDamagePos, dwAtkFlag, this, nType, nItemID, (float)pItemProp->_dwSkillRange ); 

  00173	8b 8a cc 01 00
	00		 mov	 ecx, DWORD PTR [edx+460]
  00179	db 82 cc 01 00
	00		 fild	 DWORD PTR [edx+460]
  0017f	85 c9		 test	 ecx, ecx
  00181	7d 06		 jge	 SHORT $L276694
  00183	d8 05 00 00 00
	00		 fadd	 DWORD PTR __real@4f800000
$L276694:
  00189	8b 54 24 24	 mov	 edx, DWORD PTR _dwAtkFlag$[esp+12]
  0018d	51		 push	 ecx
  0018e	8b 8e 6c 01 00
	00		 mov	 ecx, DWORD PTR [esi+364]
  00194	d9 1c 24	 fstp	 DWORD PTR [esp]
  00197	50		 push	 eax
  00198	8b 44 24 28	 mov	 eax, DWORD PTR _pvDamagePos$[esp+20]
  0019c	6a 01		 push	 1
  0019e	56		 push	 esi
  0019f	52		 push	 edx
  001a0	50		 push	 eax
  001a1	e8 00 00 00 00	 call	 ?SendDamageAround@CWorld@@QAEXPBUD3DXVECTOR3@@HPAVCMover@@HHM@Z ; CWorld::SendDamageAround
  001a6	5f		 pop	 edi
  001a7	5e		 pop	 esi

; 1643 : 			}
; 1644 : 		}
; 1645 : 	}
; 1646 :  #endif
; 1647 : 	return nDamage > 0;

  001a8	33 c0		 xor	 eax, eax
  001aa	85 db		 test	 ebx, ebx
  001ac	5d		 pop	 ebp
  001ad	0f 9f c0	 setg	 al
  001b0	5b		 pop	 ebx

; 1648 : }

  001b1	c2 14 00	 ret	 20			; 00000014H
$L269632:
  001b4	8b 7c 24 1c	 mov	 edi, DWORD PTR _pHitObj$[esp+12]
  001b8	85 ff		 test	 edi, edi
  001ba	74 a9		 je	 SHORT $L276692
  001bc	8b 8e 3c 02 00
	00		 mov	 ecx, DWORD PTR [esi+572]
  001c2	8b 91 94 00 00
	00		 mov	 edx, DWORD PTR [ecx+148]
  001c8	e9 59 ff ff ff	 jmp	 $L276697
?OnDamage@CMover@@QAEHHKPAV1@PBUD3DXVECTOR3@@K@Z ENDP	; CMover::OnDamage
_TEXT	ENDS
PUBLIC	?OnAttackMeleeContinue@CMover@@QAEHK@Z		; CMover::OnAttackMeleeContinue
EXTRN	?IntersectObjLine@CWorld@@QAEHPAUD3DXVECTOR3@@ABU2@1HHH@Z:NEAR ; CWorld::IntersectObjLine
EXTRN	?UpdateMatrix@CObj@@QAEXXZ:NEAR			; CObj::UpdateMatrix
; Function compile flags: /Ogty
;	COMDAT ?OnAttackMeleeContinue@CMover@@QAEHK@Z
_TEXT	SEGMENT
_v2$269704 = -60					; size = 12
_v2$269684 = -60					; size = 12
$T276702 = -48						; size = 12
$T276701 = -48						; size = 12
_vOut$269711 = -36					; size = 12
_v1$269683 = -36					; size = 12
_v1$269703 = -24					; size = 12
_v3$269705 = -12					; size = 12
_vOut$269690 = -12					; size = 12
_dwState$ = 8						; size = 4
?OnAttackMeleeContinue@CMover@@QAEHK@Z PROC NEAR	; CMover::OnAttackMeleeContinue, COMDAT
; _this$ = ecx

; 1792 : {

  00000	83 ec 3c	 sub	 esp, 60			; 0000003cH
  00003	53		 push	 ebx
  00004	55		 push	 ebp
  00005	56		 push	 esi
  00006	8b f1		 mov	 esi, ecx

; 1793 : 	int		nItemID = GetActParam( 1 );	//   
; 1794 : 
; 1795 : 	if( m_dwIndex == MI_CLOCKWORK1 )	//    .

  00008	8b 86 74 01 00
	00		 mov	 eax, DWORD PTR [esi+372]
  0000e	3d a4 00 00 00	 cmp	 eax, 164		; 000000a4H
  00013	8b ae a8 12 00
	00		 mov	 ebp, DWORD PTR [esi+4776]
  00019	57		 push	 edi
  0001a	0f 85 21 01 00
	00		 jne	 $L269675

; 1796 : 	{
; 1797 : 	#ifdef __WORLDSERVER
; 1798 : 		UpdateMatrix();		//         .

  00020	e8 00 00 00 00	 call	 ?UpdateMatrix@CObj@@QAEXXZ ; CObj::UpdateMatrix

; 1799 : 		CModelObject *pModel = (CModelObject *)m_pModel;
; 1800 : 		pModel->UpdateMatrixBone();		//     GetEventPos()      .

  00025	8b 8e 78 01 00
	00		 mov	 ecx, DWORD PTR [esi+376]
  0002b	e8 00 00 00 00	 call	 ?UpdateMatrixBone@CModelObject@@QAEXXZ ; CModelObject::UpdateMatrixBone

; 1801 : 	#endif // WorldServer
; 1802 : 
; 1803 : 		switch( dwState )

  00030	81 7c 24 50 00
	00 03 00	 cmp	 DWORD PTR _dwState$[esp+72], 196608 ; 00030000H
  00038	0f 85 44 02 00
	00		 jne	 $L276773

; 1804 : 		{
; 1805 : 		case OBJSTA_ATK3:
; 1806 : 			{
; 1807 : 				D3DXVECTOR3 v1, v2;
; 1808 : 				CModelObject *pModel = (CModelObject *)m_pModel;

  0003e	8b be 78 01 00
	00		 mov	 edi, DWORD PTR [esi+376]

; 1809 : 				pModel->GetEventPos( &v1, 2 );		//   .

  00044	8b 87 84 2a 00
	00		 mov	 eax, DWORD PTR [edi+10884]
  0004a	85 c0		 test	 eax, eax
  0004c	74 26		 je	 SHORT $L276714
  0004e	8b 8f 9c 2a 00
	00		 mov	 ecx, DWORD PTR [edi+10908]
  00054	85 c9		 test	 ecx, ecx
  00056	74 1c		 je	 SHORT $L276714
  00058	8b 90 c8 01 00
	00		 mov	 edx, DWORD PTR [eax+456]
  0005e	c1 e2 06	 shl	 edx, 6
  00061	03 d1		 add	 edx, ecx
  00063	52		 push	 edx
  00064	05 78 01 00 00	 add	 eax, 376		; 00000178H
  00069	50		 push	 eax
  0006a	8d 44 24 30	 lea	 eax, DWORD PTR _v1$269683[esp+84]
  0006e	50		 push	 eax
  0006f	e8 00 00 00 00	 call	 _D3DXVec3TransformCoord@12
$L276714:

; 1810 : 				D3DXVec3TransformCoord( &v1, &v1, GetMatrixWorldPtr() );	//  .

  00074	8d 9e e4 00 00
	00		 lea	 ebx, DWORD PTR [esi+228]
  0007a	53		 push	 ebx
  0007b	8d 4c 24 2c	 lea	 ecx, DWORD PTR _v1$269683[esp+80]
  0007f	51		 push	 ecx
  00080	8b d1		 mov	 edx, ecx
  00082	52		 push	 edx
  00083	e8 00 00 00 00	 call	 _D3DXVec3TransformCoord@12

; 1811 : 				
; 1812 : 				v2 = D3DXVECTOR3( 0, 0, 40.0f );

  00088	c7 44 24 1c 00
	00 00 00	 mov	 DWORD PTR $T276701[esp+76], 0
  00090	8b 44 24 1c	 mov	 eax, DWORD PTR $T276701[esp+76]
  00094	c7 44 24 20 00
	00 00 00	 mov	 DWORD PTR $T276701[esp+80], 0
  0009c	8b 4c 24 20	 mov	 ecx, DWORD PTR $T276701[esp+80]
  000a0	c7 44 24 24 00
	00 20 42	 mov	 DWORD PTR $T276701[esp+84], 1109393408 ; 42200000H
  000a8	8b 54 24 24	 mov	 edx, DWORD PTR $T276701[esp+84]
  000ac	89 44 24 10	 mov	 DWORD PTR _v2$269684[esp+76], eax
  000b0	89 4c 24 14	 mov	 DWORD PTR _v2$269684[esp+80], ecx
  000b4	89 54 24 18	 mov	 DWORD PTR _v2$269684[esp+84], edx

; 1813 : 				D3DXVec3TransformCoord( &v2, &v2, pModel->GetMatrixBone(6) );	// 6 .   v2  .

  000b8	8b 87 84 2a 00
	00		 mov	 eax, DWORD PTR [edi+10884]
  000be	85 c0		 test	 eax, eax
  000c0	75 04		 jne	 SHORT $L276726
  000c2	33 c0		 xor	 eax, eax
  000c4	eb 14		 jmp	 SHORT $L276725
$L276726:
  000c6	8b bf 9c 2a 00
	00		 mov	 edi, DWORD PTR [edi+10908]
  000cc	85 ff		 test	 edi, edi
  000ce	75 04		 jne	 SHORT $L276727
  000d0	33 c0		 xor	 eax, eax
  000d2	eb 06		 jmp	 SHORT $L276725
$L276727:
  000d4	8d 87 80 01 00
	00		 lea	 eax, DWORD PTR [edi+384]
$L276725:
  000da	50		 push	 eax
  000db	8d 44 24 14	 lea	 eax, DWORD PTR _v2$269684[esp+80]
  000df	50		 push	 eax
  000e0	8b c8		 mov	 ecx, eax
  000e2	51		 push	 ecx
  000e3	e8 00 00 00 00	 call	 _D3DXVec3TransformCoord@12

; 1814 : 				D3DXVec3TransformCoord( &v2, &v2, GetMatrixWorldPtr() );	//   .

  000e8	53		 push	 ebx
  000e9	8d 54 24 14	 lea	 edx, DWORD PTR _v2$269684[esp+80]
  000ed	52		 push	 edx
  000ee	8b c2		 mov	 eax, edx
  000f0	50		 push	 eax
  000f1	e8 00 00 00 00	 call	 _D3DXVec3TransformCoord@12

; 1815 : 				
; 1816 : 		#ifdef __CLIENT
; 1817 : 				extern CPartsLaser g_Laser;
; 1818 : 				g_Laser.SetPos( v1, v2, 0.5f );
; 1819 : 		#endif
; 1820 : 
; 1821 : 		#ifdef __CLIENT
; 1822 : 				if( (m_pActMover->m_nCount & 1) == 0 )
; 1823 : 		#else				
; 1824 : 				if( (m_pActMover->m_nCount & 3) == 0 )

  000f6	8b 8e 3c 02 00
	00		 mov	 ecx, DWORD PTR [esi+572]
  000fc	f6 41 40 03	 test	 BYTE PTR [ecx+64], 3
  00100	0f 85 7c 01 00
	00		 jne	 $L276773

; 1825 : 		#endif
; 1826 : 				{
; 1827 : 					CWorld *pWorld = GetWorld();

  00106	8b 8e 6c 01 00
	00		 mov	 ecx, DWORD PTR [esi+364]

; 1828 : 					D3DXVECTOR3 vOut;
; 1829 : 					if( pWorld->IntersectObjLine( &vOut, v1, v2, FALSE, TRUE, FALSE ) )

  0010c	6a 00		 push	 0
  0010e	6a 01		 push	 1
  00110	6a 00		 push	 0
  00112	8d 54 24 1c	 lea	 edx, DWORD PTR _v2$269684[esp+88]
  00116	52		 push	 edx
  00117	8d 44 24 38	 lea	 eax, DWORD PTR _v1$269683[esp+92]
  0011b	50		 push	 eax
  0011c	8d 54 24 54	 lea	 edx, DWORD PTR _vOut$269690[esp+96]
  00120	52		 push	 edx
  00121	e8 00 00 00 00	 call	 ?IntersectObjLine@CWorld@@QAEHPAUD3DXVECTOR3@@ABU2@1HHH@Z ; CWorld::IntersectObjLine
  00126	85 c0		 test	 eax, eax
  00128	0f 84 54 01 00
	00		 je	 $L276773

; 1830 : 					{
; 1831 : 						OnDamage( nItemID, dwState, NULL, &vOut );		//     .

  0012e	6a 01		 push	 1
  00130	8d 44 24 44	 lea	 eax, DWORD PTR _vOut$269690[esp+80]
  00134	50		 push	 eax
  00135	6a 00		 push	 0
  00137	68 00 00 03 00	 push	 196608			; 00030000H

; 1832 : 
; 1833 : 					#ifdef __CLIENT
; 1834 : 						CSfx *pSfx = CreateSfx( D3DDEVICE,  XI_NPCSP1RANSPARK, vOut );
; 1835 : 						if( pSfx )
; 1836 : 							pSfx->SetScale( D3DXVECTOR3( 2.0f, 2.0f, 2.0f ) );
; 1837 : 					#endif // __CLIENT
; 1838 : 					}
; 1839 : 						
; 1840 : 				}
; 1841 : 			}
; 1842 : 			break;
; 1843 : 		}
; 1844 : 	}
; 1845 : #if __VER >= 10 // __Y_DRAGON_FIRE
; 1846 : 	else

  0013c	e9 39 01 00 00	 jmp	 $L276774
$L269675:

; 1847 : 	if( m_dwIndex == MI_DU_METEONYKER || m_dwIndex == MI_DU_METEONYKER2 || m_dwIndex == MI_DU_METEONYKER3 ||
; 1848 : 		m_dwIndex == MI_DU_METEONYKER4 )

  00141	3d cb 02 00 00	 cmp	 eax, 715		; 000002cbH
  00146	74 19		 je	 SHORT $L269694
  00148	3d f1 02 00 00	 cmp	 eax, 753		; 000002f1H
  0014d	74 12		 je	 SHORT $L269694
  0014f	3d f2 02 00 00	 cmp	 eax, 754		; 000002f2H
  00154	74 0b		 je	 SHORT $L269694
  00156	3d f3 02 00 00	 cmp	 eax, 755		; 000002f3H
  0015b	0f 85 21 01 00
	00		 jne	 $L276773
$L269694:

; 1849 : 	{
; 1850 : 	#ifdef __WORLDSERVER
; 1851 : 		UpdateMatrix();		//         .

  00161	8b ce		 mov	 ecx, esi
  00163	e8 00 00 00 00	 call	 ?UpdateMatrix@CObj@@QAEXXZ ; CObj::UpdateMatrix

; 1852 : 		CModelObject *pModel = (CModelObject *)m_pModel;
; 1853 : 		pModel->UpdateMatrixBone();		//     GetEventPos()      .

  00168	8b 8e 78 01 00
	00		 mov	 ecx, DWORD PTR [esi+376]
  0016e	e8 00 00 00 00	 call	 ?UpdateMatrixBone@CModelObject@@QAEXXZ ; CModelObject::UpdateMatrixBone

; 1854 : 	#endif // WorldServer
; 1855 : 
; 1856 : 		switch( dwState )

  00173	81 7c 24 50 00
	00 02 00	 cmp	 DWORD PTR _dwState$[esp+72], 131072 ; 00020000H
  0017b	0f 85 01 01 00
	00		 jne	 $L276773

; 1857 : 		{
; 1858 : 			case OBJSTA_ATK2:
; 1859 : 			{
; 1860 : 				if( m_pActMover->m_nMotionHitCount == 1 )

  00181	8b 8e 3c 02 00
	00		 mov	 ecx, DWORD PTR [esi+572]
  00187	83 b9 9c 00 00
	00 01		 cmp	 DWORD PTR [ecx+156], 1
  0018e	0f 85 ee 00 00
	00		 jne	 $L276773

; 1861 : 				{
; 1862 : 					D3DXVECTOR3 v1, v2, v3;
; 1863 : 					CModelObject *pModel = (CModelObject *)m_pModel;

  00194	8b be 78 01 00
	00		 mov	 edi, DWORD PTR [esi+376]

; 1864 : 					pModel->GetEventPos( &v1, 0 );		//   .

  0019a	6a 00		 push	 0
  0019c	8d 54 24 38	 lea	 edx, DWORD PTR _v1$269703[esp+80]
  001a0	52		 push	 edx
  001a1	8b cf		 mov	 ecx, edi
  001a3	e8 00 00 00 00	 call	 ?GetEventPos@CModelObject@@QAEXPAUD3DXVECTOR3@@H@Z ; CModelObject::GetEventPos

; 1865 : 					pModel->GetEventPos( &v3, 1 );		//   .

  001a8	6a 01		 push	 1
  001aa	8d 44 24 44	 lea	 eax, DWORD PTR _v3$269705[esp+80]
  001ae	50		 push	 eax
  001af	8b cf		 mov	 ecx, edi
  001b1	e8 00 00 00 00	 call	 ?GetEventPos@CModelObject@@QAEXPAUD3DXVECTOR3@@H@Z ; CModelObject::GetEventPos

; 1866 : 					D3DXVec3TransformCoord( &v1, &v1, GetMatrixWorldPtr() );	//  .

  001b6	8d 9e e4 00 00
	00		 lea	 ebx, DWORD PTR [esi+228]
  001bc	53		 push	 ebx
  001bd	8d 4c 24 38	 lea	 ecx, DWORD PTR _v1$269703[esp+80]
  001c1	51		 push	 ecx
  001c2	8b d1		 mov	 edx, ecx
  001c4	52		 push	 edx
  001c5	e8 00 00 00 00	 call	 _D3DXVec3TransformCoord@12

; 1867 : 					D3DXVec3TransformCoord( &v3, &v3, GetMatrixWorldPtr() );	//  .

  001ca	53		 push	 ebx
  001cb	8d 44 24 44	 lea	 eax, DWORD PTR _v3$269705[esp+80]
  001cf	50		 push	 eax
  001d0	8b c8		 mov	 ecx, eax
  001d2	51		 push	 ecx
  001d3	e8 00 00 00 00	 call	 _D3DXVec3TransformCoord@12

; 1868 : 
; 1869 : 					v2 = D3DXVECTOR3( 0, 0, 40.0f );

  001d8	c7 44 24 1c 00
	00 00 00	 mov	 DWORD PTR $T276702[esp+76], 0
  001e0	8b 54 24 1c	 mov	 edx, DWORD PTR $T276702[esp+76]
  001e4	c7 44 24 20 00
	00 00 00	 mov	 DWORD PTR $T276702[esp+80], 0
  001ec	8b 44 24 20	 mov	 eax, DWORD PTR $T276702[esp+80]
  001f0	c7 44 24 24 00
	00 20 42	 mov	 DWORD PTR $T276702[esp+84], 1109393408 ; 42200000H
  001f8	8b 4c 24 24	 mov	 ecx, DWORD PTR $T276702[esp+84]
  001fc	89 54 24 10	 mov	 DWORD PTR _v2$269704[esp+76], edx
  00200	89 44 24 14	 mov	 DWORD PTR _v2$269704[esp+80], eax
  00204	89 4c 24 18	 mov	 DWORD PTR _v2$269704[esp+84], ecx

; 1870 : 					D3DXVec3TransformCoord( &v2, &v2, pModel->GetMatrixBone(6) );	// 6 .   v2  .

  00208	8b 87 84 2a 00
	00		 mov	 eax, DWORD PTR [edi+10884]
  0020e	85 c0		 test	 eax, eax
  00210	75 04		 jne	 SHORT $L276759
  00212	33 c0		 xor	 eax, eax
  00214	eb 14		 jmp	 SHORT $L276758
$L276759:
  00216	8b bf 9c 2a 00
	00		 mov	 edi, DWORD PTR [edi+10908]
  0021c	85 ff		 test	 edi, edi
  0021e	75 04		 jne	 SHORT $L276760
  00220	33 c0		 xor	 eax, eax
  00222	eb 06		 jmp	 SHORT $L276758
$L276760:
  00224	8d 87 80 01 00
	00		 lea	 eax, DWORD PTR [edi+384]
$L276758:
  0022a	50		 push	 eax
  0022b	8d 54 24 14	 lea	 edx, DWORD PTR _v2$269704[esp+80]
  0022f	52		 push	 edx
  00230	8b c2		 mov	 eax, edx
  00232	50		 push	 eax
  00233	e8 00 00 00 00	 call	 _D3DXVec3TransformCoord@12

; 1871 : 					D3DXVec3TransformCoord( &v2, &v2, GetMatrixWorldPtr() );	//   .

  00238	53		 push	 ebx
  00239	8d 4c 24 14	 lea	 ecx, DWORD PTR _v2$269704[esp+80]
  0023d	51		 push	 ecx
  0023e	8b d1		 mov	 edx, ecx
  00240	52		 push	 edx
  00241	e8 00 00 00 00	 call	 _D3DXVec3TransformCoord@12

; 1872 : 					
; 1873 : 			#ifdef __CLIENT
; 1874 : 					D3DXVECTOR3 vDir = v3 - v1;
; 1875 : 					D3DXVec3Normalize( &vDir, &vDir );
; 1876 : 					D3DXVECTOR3 vTemp;
; 1877 : 					D3DXVECTOR3 vScal = D3DXVECTOR3( 0.3f, 0.3f, 0.3f );
; 1878 : 					D3DXVECTOR3 vModelScal = GetScale();
; 1879 : 
; 1880 : 					vScal.x *= vModelScal.x;
; 1881 : 					vScal.y *= vModelScal.y;
; 1882 : 					vScal.z *= vModelScal.z;
; 1883 : 
; 1884 : 					for( int i = 0; i < 2; i ++ )
; 1885 : 					{
; 1886 : 						vTemp = vDir * (xRandomF( 0.2f ) + 0.1f );
; 1887 : 						vTemp *= 0.8f;
; 1888 : 						vTemp.y -= (xRandomF( 0.05f ) + 0.01f );
; 1889 : 						
; 1890 : 						extern CPartsFireDragon	g_FireDragon;
; 1891 : 						g_FireDragon.Create( D3DDEVICE, v1, XI_NAT_FIRE01_ADV, vScal, vTemp );
; 1892 : 					}
; 1893 : 
; 1894 : 			#endif
; 1895 : 
; 1896 : 			#ifdef __CLIENT
; 1897 : 					if( (m_pActMover->m_nCount & 1) == 0 )
; 1898 : 			#else				
; 1899 : 					if( (m_pActMover->m_nCount & 3) == 0 )

  00246	8b 86 3c 02 00
	00		 mov	 eax, DWORD PTR [esi+572]
  0024c	f6 40 40 03	 test	 BYTE PTR [eax+64], 3
  00250	75 30		 jne	 SHORT $L276773

; 1900 : 			#endif
; 1901 : 					{
; 1902 : 						CWorld *pWorld = GetWorld();
; 1903 : 						D3DXVECTOR3 vOut	= GetPos();

  00252	8d 8e 60 01 00
	00		 lea	 ecx, DWORD PTR [esi+352]
  00258	8b 11		 mov	 edx, DWORD PTR [ecx]
  0025a	8b 41 04	 mov	 eax, DWORD PTR [ecx+4]
  0025d	8b 49 08	 mov	 ecx, DWORD PTR [ecx+8]

; 1904 : //						if( pWorld->IntersectObjLine( &vOut, v1, v2, FALSE, TRUE, FALSE ) )
; 1905 : 						{
; 1906 : 							OnDamage( nItemID, dwState, NULL, &vOut );		//     .

  00260	6a 01		 push	 1
  00262	89 54 24 2c	 mov	 DWORD PTR _vOut$269711[esp+80], edx
  00266	8d 54 24 2c	 lea	 edx, DWORD PTR _vOut$269711[esp+80]
  0026a	52		 push	 edx
  0026b	6a 00		 push	 0
  0026d	89 44 24 38	 mov	 DWORD PTR _vOut$269711[esp+92], eax
  00271	89 4c 24 3c	 mov	 DWORD PTR _vOut$269711[esp+96], ecx
  00275	68 00 00 02 00	 push	 131072			; 00020000H
$L276774:
  0027a	8b ce		 mov	 ecx, esi
  0027c	55		 push	 ebp
  0027d	e8 00 00 00 00	 call	 ?OnDamage@CMover@@QAEHHKPAV1@PBUD3DXVECTOR3@@K@Z ; CMover::OnDamage
$L276773:
  00282	5f		 pop	 edi
  00283	5e		 pop	 esi
  00284	5d		 pop	 ebp

; 1907 : 	/*
; 1908 : 						#ifdef __CLIENT
; 1909 : 							CSfx *pSfx = CreateSfx( D3DDEVICE,  XI_NPCSP1RANSPARK, vOut );
; 1910 : 							if( pSfx )
; 1911 : 								pSfx->SetScale( D3DXVECTOR3( 2.0f, 2.0f, 2.0f ) );
; 1912 : 						#endif // __CLIENT
; 1913 : 	*/
; 1914 : 						}
; 1915 : 							
; 1916 : 					}
; 1917 : 				}
; 1918 : 				break;
; 1919 : 			}
; 1920 : 		}
; 1921 : 	}
; 1922 : #endif //__Y_DRAGON_FIRE
; 1923 : 
; 1924 : 	return TRUE;

  00285	b8 01 00 00 00	 mov	 eax, 1
  0028a	5b		 pop	 ebx

; 1925 : }

  0028b	83 c4 3c	 add	 esp, 60			; 0000003cH
  0028e	c2 04 00	 ret	 4
?OnAttackMeleeContinue@CMover@@QAEHK@Z ENDP		; CMover::OnAttackMeleeContinue
_TEXT	ENDS
PUBLIC	??_C@_0CO@HAMCEPMB@CMover?3?3OnAttackSP?5?3?5?$CFs?$MA?G?5itemPr@ ; `string'
PUBLIC	?OnAttackSP@CMover@@QAEHXZ			; CMover::OnAttackSP
;	COMDAT ??_C@_0CO@HAMCEPMB@CMover?3?3OnAttackSP?5?3?5?$CFs?$MA?G?5itemPr@
; File c:\documents and settings\test\mes documents\source\virtuos_v17\build\program\_aiinterface\actionmover.h
CONST	SEGMENT
??_C@_0CO@HAMCEPMB@CMover?3?3OnAttackSP?5?3?5?$CFs?$MA?G?5itemPr@ DB 'CMo'
	DB	'ver::OnAttackSP : %s', 0c0H, 0c7H, ' itemProp', 0c0H, 0ccH, ' '
	DB	0beH, 0f8H, 0b4H, 0d9H, '. %d', 00H		; `string'
; Function compile flags: /Ogty
; File c:\documents and settings\test\mes documents\source\virtuos_v17\build\program\_common\moveractevent.cpp
CONST	ENDS
;	COMDAT ?OnAttackSP@CMover@@QAEHXZ
_TEXT	SEGMENT
tv251 = -4						; size = 4
?OnAttackSP@CMover@@QAEHXZ PROC NEAR			; CMover::OnAttackSP, COMDAT
; _this$ = ecx

; 1929 : {

  00000	51		 push	 ecx
  00001	53		 push	 ebx
  00002	56		 push	 esi
  00003	8b f1		 mov	 esi, ecx

; 1930 : 	int		idTarget = GetActParam( 0 );		

  00005	8b 86 a4 12 00
	00		 mov	 eax, DWORD PTR [esi+4772]
  0000b	57		 push	 edi

; 1931 : 	int		nItemID = GetActParam( 1 );	//   

  0000c	8b be a8 12 00
	00		 mov	 edi, DWORD PTR [esi+4776]

; 1932 : 	
; 1933 : 	CMover* pHit = prj.GetMover( idTarget );	//   .

  00012	50		 push	 eax
  00013	b9 00 00 00 00	 mov	 ecx, OFFSET FLAT:?prj@@3VCProject@@A
  00018	e8 00 00 00 00	 call	 ?GetMover@CProject@@QAEPAVCMover@@K@Z ; CProject::GetMover
  0001d	8b d8		 mov	 ebx, eax

; 1934 : 	if( IsInvalidObj(pHit) )	return FALSE;		//    .

  0001f	85 db		 test	 ebx, ebx
  00021	74 3e		 je	 SHORT $L276799
  00023	f6 43 04 01	 test	 BYTE PTR [ebx+4], 1
  00027	75 38		 jne	 SHORT $L276799

; 1935 : 
; 1936 : 	ItemProp *pItemProp;
; 1937 : 	if( nItemID == NULL_ID || nItemID == 0 )	

  00029	83 ff ff	 cmp	 edi, -1
  0002c	74 11		 je	 SHORT $L269722
  0002e	85 ff		 test	 edi, edi
  00030	74 0d		 je	 SHORT $L269722

; 1939 : 	else
; 1940 : 		pItemProp = prj.GetItemProp( nItemID );	//      (  )

  00032	57		 push	 edi
  00033	b9 00 00 00 00	 mov	 ecx, OFFSET FLAT:?prj@@3VCProject@@A
  00038	e8 00 00 00 00	 call	 ?GetItemProp@CProject@@QAEPAUItemProp@@H@Z ; CProject::GetItemProp
  0003d	eb 09		 jmp	 SHORT $L269723
$L269722:

; 1938 : 		pItemProp = GetActiveHandItemProp();	//     ( )

  0003f	6a 0a		 push	 10			; 0000000aH
  00041	8b ce		 mov	 ecx, esi
  00043	e8 00 00 00 00	 call	 ?GetActiveHandItemProp@CMover@@QAEPAUItemProp@@H@Z ; CMover::GetActiveHandItemProp
$L269723:

; 1941 : 
; 1942 : 	if( pItemProp == NULL )

  00048	85 c0		 test	 eax, eax
  0004a	75 1c		 jne	 SHORT $L269724

; 1943 : 	{
; 1944 : 		Error( "CMover::OnAttackSP : %s itemProp . %d", m_szName, nItemID );

  0004c	57		 push	 edi
  0004d	81 c6 90 16 00
	00		 add	 esi, 5776		; 00001690H
  00053	56		 push	 esi
  00054	68 00 00 00 00	 push	 OFFSET FLAT:??_C@_0CO@HAMCEPMB@CMover?3?3OnAttackSP?5?3?5?$CFs?$MA?G?5itemPr@
  00059	e8 00 00 00 00	 call	 ?Error@@YAPBDPBDZZ	; Error
  0005e	83 c4 0c	 add	 esp, 12			; 0000000cH
$L276799:
  00061	5f		 pop	 edi
  00062	5e		 pop	 esi

; 1945 : 		return FALSE;

  00063	33 c0		 xor	 eax, eax
  00065	5b		 pop	 ebx

; 1963 : }                                                         

  00066	59		 pop	 ecx
  00067	c3		 ret	 0
$L269724:

; 1946 : 	}
; 1947 : 
; 1948 : 	if( pItemProp->dwSpellRegion == SRO_AROUND )

  00068	83 b8 fc 01 00
	00 07		 cmp	 DWORD PTR [eax+508], 7
  0006f	75 3a		 jne	 SHORT $L269726

; 1949 : 	{	
; 1950 : 		SendDamageAround( AF_GENERIC, this, OBJTYPE_PLAYER, nItemID, (float)( pItemProp->_dwSkillRange ), 0.0, 1.0f );	// 

  00071	8b 80 cc 01 00
	00		 mov	 eax, DWORD PTR [eax+460]
  00077	85 c0		 test	 eax, eax
  00079	68 00 00 80 3f	 push	 1065353216		; 3f800000H
  0007e	89 44 24 10	 mov	 DWORD PTR tv251[esp+20], eax
  00082	db 44 24 10	 fild	 DWORD PTR tv251[esp+20]
  00086	6a 00		 push	 0
  00088	7d 06		 jge	 SHORT $L276829
  0008a	d8 05 00 00 00
	00		 fadd	 DWORD PTR __real@4f800000
$L276829:
  00090	51		 push	 ecx
  00091	d9 1c 24	 fstp	 DWORD PTR [esp]
  00094	57		 push	 edi
  00095	6a 01		 push	 1
  00097	56		 push	 esi
  00098	6a 01		 push	 1
  0009a	8b ce		 mov	 ecx, esi
  0009c	e8 00 00 00 00	 call	 ?SendDamageAround@CMover@@QAEXHPAV1@HHMMM@Z ; CMover::SendDamageAround
  000a1	5f		 pop	 edi
  000a2	5e		 pop	 esi

; 1959 : #endif
; 1960 : 	}
; 1961 : 
; 1962 : 	return TRUE;

  000a3	b8 01 00 00 00	 mov	 eax, 1
  000a8	5b		 pop	 ebx

; 1963 : }                                                         

  000a9	59		 pop	 ecx
  000aa	c3		 ret	 0
$L269726:

; 1951 : 	} else
; 1952 : 	{
; 1953 : #ifdef __CLIENT
; 1954 : 		if( pHit->IsLive() )
; 1955 : 			pHit->m_pActMover->SendDamage( AF_MONSTER_SP_CLIENT, GetId(), (nItemID << 16) );	// 09_12_21   
; 1956 : #else
; 1957 : 		if( pHit->IsLive() )

  000ab	8b 8b 3c 02 00
	00		 mov	 ecx, DWORD PTR [ebx+572]
  000b1	f7 41 04 00 00
	00 08		 test	 DWORD PTR [ecx+4], 134217728 ; 08000000H
  000b8	74 0a		 je	 SHORT $L276812
  000ba	8b 83 00 06 00
	00		 mov	 eax, DWORD PTR [ebx+1536]
  000c0	85 c0		 test	 eax, eax
  000c2	7e 18		 jle	 SHORT $L276828
$L276812:

; 1958 : 			pHit->m_pActMover->SendDamage( AF_GENERIC, GetId(), (nItemID << 16) );	//   .

  000c4	8b 86 bc 01 00
	00		 mov	 eax, DWORD PTR [esi+444]
  000ca	8b 11		 mov	 edx, DWORD PTR [ecx]
  000cc	6a 00		 push	 0
  000ce	6a 01		 push	 1
  000d0	c1 e7 10	 shl	 edi, 16			; 00000010H
  000d3	57		 push	 edi
  000d4	50		 push	 eax
  000d5	6a 01		 push	 1
  000d7	6a 29		 push	 41			; 00000029H
  000d9	ff 52 04	 call	 DWORD PTR [edx+4]
$L276828:
  000dc	5f		 pop	 edi
  000dd	5e		 pop	 esi

; 1959 : #endif
; 1960 : 	}
; 1961 : 
; 1962 : 	return TRUE;

  000de	b8 01 00 00 00	 mov	 eax, 1
  000e3	5b		 pop	 ebx

; 1963 : }                                                         

  000e4	59		 pop	 ecx
  000e5	c3		 ret	 0
?OnAttackSP@CMover@@QAEHXZ ENDP				; CMover::OnAttackSP
_TEXT	ENDS
PUBLIC	?IsLoot@CMover@@QAEHPAVCItem@@H@Z		; CMover::IsLoot
EXTRN	?GetInstance@CEventMonster@@SAPAV1@XZ:NEAR	; CEventMonster::GetInstance
EXTRN	?g_tmCurrent@@3KA:DWORD				; g_tmCurrent
EXTRN	?SetEventMonster@CEventMonster@@QAEHK@Z:NEAR	; CEventMonster::SetEventMonster
EXTRN	?IsPetAble@CEventMonster@@QAEHXZ:NEAR		; CEventMonster::IsPetAble
EXTRN	?GetLootTime@CEventMonster@@QAEKXZ:NEAR		; CEventMonster::GetLootTime
; Function compile flags: /Ogty
;	COMDAT ?IsLoot@CMover@@QAEHPAVCItem@@H@Z
_TEXT	SEGMENT
_this$ = -4						; size = 4
_pItem$ = 8						; size = 4
_bPet$ = 12						; size = 4
?IsLoot@CMover@@QAEHPAVCItem@@H@Z PROC NEAR		; CMover::IsLoot, COMDAT
; _this$ = ecx

; 2254 : {

  00000	51		 push	 ecx
  00001	55		 push	 ebp
  00002	56		 push	 esi
  00003	57		 push	 edi

; 2255 : 	BOOL bTake	= FALSE;
; 2256 : 	
; 2257 : 	if( pItem->IsDelete() || ( pItem->m_idHolder != 0 && pItem->m_idHolder != m_idPlayer ) )

  00004	8b 7c 24 14	 mov	 edi, DWORD PTR _pItem$[esp+12]
  00008	8a 47 04	 mov	 al, BYTE PTR [edi+4]
  0000b	8b f1		 mov	 esi, ecx
  0000d	33 ed		 xor	 ebp, ebp
  0000f	a8 01		 test	 al, 1
  00011	89 74 24 0c	 mov	 DWORD PTR _this$[esp+16], esi
  00015	0f 85 28 01 00
	00		 jne	 $L269812
  0001b	8b 87 38 02 00
	00		 mov	 eax, DWORD PTR [edi+568]
  00021	85 c0		 test	 eax, eax
  00023	74 0c		 je	 SHORT $L269811
  00025	3b 86 38 02 00
	00		 cmp	 eax, DWORD PTR [esi+568]
  0002b	0f 85 12 01 00
	00		 jne	 $L269812
$L269811:

; 2260 : 	}
; 2261 : 
; 2262 : 	if( pItem->m_idOwn != NULL_ID )		//   

  00031	8b 87 3c 02 00
	00		 mov	 eax, DWORD PTR [edi+572]
  00037	83 f8 ff	 cmp	 eax, -1
  0003a	74 3a		 je	 SHORT $L269813

; 2263 : 	{
; 2264 : 		//   .
; 2265 : 		CMover *pOther = prj.GetMover( pItem->m_idOwn );		// pItem   .(...)

  0003c	50		 push	 eax
  0003d	b9 00 00 00 00	 mov	 ecx, OFFSET FLAT:?prj@@3VCProject@@A
  00042	e8 00 00 00 00	 call	 ?GetMover@CProject@@QAEPAVCMover@@K@Z ; CProject::GetMover

; 2266 : 		if( IsValidObj(pOther) )

  00047	85 c0		 test	 eax, eax
  00049	74 18		 je	 SHORT $L269815
  0004b	f6 40 04 01	 test	 BYTE PTR [eax+4], 1
  0004f	75 12		 jne	 SHORT $L269815

; 2267 : 		{
; 2268 : 			if( m_idparty && (pOther->m_idparty == m_idparty) )		//       ~~~ 

  00051	8b 8e 18 07 00
	00		 mov	 ecx, DWORD PTR [esi+1816]
  00057	85 c9		 test	 ecx, ecx
  00059	74 0d		 je	 SHORT $L276853
  0005b	39 88 18 07 00
	00		 cmp	 DWORD PTR [eax+1816], ecx
  00061	75 05		 jne	 SHORT $L276853
$L269815:

; 2269 : 				bTake = TRUE;
; 2270 : 		} else
; 2271 : 			bTake = TRUE;		// idOwn Invalid    .

  00063	bd 01 00 00 00	 mov	 ebp, 1
$L276853:

; 2272 : 		
; 2273 : 		if( pItem->m_idOwn == GetId() )		//     .

  00068	8b 87 3c 02 00
	00		 mov	 eax, DWORD PTR [edi+572]
  0006e	3b 86 bc 01 00
	00		 cmp	 eax, DWORD PTR [esi+444]
  00074	75 05		 jne	 SHORT $L269819
$L269813:

; 2274 : 			bTake = TRUE;
; 2275 : 		
; 2276 : 	} else
; 2277 : 		bTake = TRUE;	//     .

  00076	bd 01 00 00 00	 mov	 ebp, 1
$L269819:

; 2278 : 
; 2279 : 	DWORD dwTime	= g_tmCurrent;
; 2280 : #ifdef __EVENT_MONSTER
; 2281 : 	DWORD dwMonsterId = pItem->m_IdEventMonster;

  0007b	8b 87 48 02 00
	00		 mov	 eax, DWORD PTR [edi+584]

; 2282 : 	if( dwMonsterId != NULL_ID && CEventMonster::GetInstance()->SetEventMonster( dwMonsterId ) )

  00081	83 f8 ff	 cmp	 eax, -1
  00084	8b 35 00 00 00
	00		 mov	 esi, DWORD PTR ?g_tmCurrent@@3KA ; g_tmCurrent
  0008a	53		 push	 ebx
  0008b	8b 5c 24 1c	 mov	 ebx, DWORD PTR _bPet$[esp+16]
  0008f	74 4a		 je	 SHORT $L276854
  00091	50		 push	 eax
  00092	e8 00 00 00 00	 call	 ?GetInstance@CEventMonster@@SAPAV1@XZ ; CEventMonster::GetInstance
  00097	8b c8		 mov	 ecx, eax
  00099	e8 00 00 00 00	 call	 ?SetEventMonster@CEventMonster@@QAEHK@Z ; CEventMonster::SetEventMonster
  0009e	85 c0		 test	 eax, eax
  000a0	74 39		 je	 SHORT $L276854

; 2283 : 	{
; 2284 : 		DWORD dwLootTime = CEventMonster::GetInstance()->GetLootTime();

  000a2	e8 00 00 00 00	 call	 ?GetInstance@CEventMonster@@SAPAV1@XZ ; CEventMonster::GetInstance
  000a7	8b c8		 mov	 ecx, eax
  000a9	e8 00 00 00 00	 call	 ?GetLootTime@CEventMonster@@QAEKXZ ; CEventMonster::GetLootTime

; 2285 : 		if( (dwTime - pItem->m_dwDropTime) >= (DWORD)( SEC(dwLootTime) ) )

  000ae	69 c0 e8 03 00
	00		 imul	 eax, 1000		; 000003e8H
  000b4	2b b7 40 02 00
	00		 sub	 esi, DWORD PTR [edi+576]
  000ba	3b f0		 cmp	 esi, eax
  000bc	72 05		 jb	 SHORT $L269826

; 2286 : 			bTake = TRUE;

  000be	bd 01 00 00 00	 mov	 ebp, 1
$L269826:

; 2287 : 		
; 2288 : 		if( bPet && !CEventMonster::GetInstance()->IsPetAble() )

  000c3	85 db		 test	 ebx, ebx
  000c5	74 72		 je	 SHORT $L269837
  000c7	e8 00 00 00 00	 call	 ?GetInstance@CEventMonster@@SAPAV1@XZ ; CEventMonster::GetInstance
  000cc	8b c8		 mov	 ecx, eax
  000ce	e8 00 00 00 00	 call	 ?IsPetAble@CEventMonster@@QAEHXZ ; CEventMonster::IsPetAble
  000d3	85 c0		 test	 eax, eax
  000d5	75 17		 jne	 SHORT $L276855

; 2289 : 			bTake = FALSE;

  000d7	33 ed		 xor	 ebp, ebp

; 2290 : 	}
; 2291 : 	else

  000d9	eb 13		 jmp	 SHORT $L276855
$L276854:

; 2292 : #endif // __EVENT_MONSTER
; 2293 : #if __VER >= 9 // __S_9_ADD
; 2294 : 	if( (dwTime - pItem->m_dwDropTime) >= SEC(7) )	// 7     .

  000db	2b b7 40 02 00
	00		 sub	 esi, DWORD PTR [edi+576]
  000e1	81 fe 58 1b 00
	00		 cmp	 esi, 7000		; 00001b58H
  000e7	72 05		 jb	 SHORT $L276855

; 2295 : #else // __S_9_ADD
; 2296 : 	if( (dwTime - pItem->m_dwDropTime) >= SEC(40) )	// 40     .
; 2297 : #endif // __S_9_ADD
; 2298 : 		bTake = TRUE;

  000e9	bd 01 00 00 00	 mov	 ebp, 1
$L276855:

; 2299 : 
; 2300 : 	//     .
; 2301 : 	if( bPet && bTake )

  000ee	85 db		 test	 ebx, ebx
  000f0	74 47		 je	 SHORT $L269837
  000f2	85 ed		 test	 ebp, ebp
  000f4	74 43		 je	 SHORT $L269837

; 2302 : 	{
; 2303 : 		if( 0 < ((CCtrl*)pItem)->m_lRespawn )

  000f6	8b 87 04 02 00
	00		 mov	 eax, DWORD PTR [edi+516]
  000fc	85 c0		 test	 eax, eax
  000fe	7e 02		 jle	 SHORT $L269833

; 2304 : 			bTake = FALSE;

  00100	33 ed		 xor	 ebp, ebp
$L269833:

; 2305 : #ifdef __JEFF_11
; 2306 : 		//        
; 2307 : 		CItemElem* pItemElem	= (CItemElem*)pItem->m_pItemBase;

  00102	8b b7 34 02 00
	00		 mov	 esi, DWORD PTR [edi+564]

; 2308 : 		ItemProp* pItemProp		= pItemElem->GetProp();

  00108	8b ce		 mov	 ecx, esi
  0010a	e8 00 00 00 00	 call	 ?GetPropA@CItemElem@@QAEPAUItemProp@@XZ ; CItemElem::GetPropA

; 2309 : 		if( pItemProp->dwItemKind3 != IK3_GOLD && m_Inventory.IsFull( pItemElem, pItemProp, pItemElem->m_nItemNum ) )

  0010f	81 78 78 e3 00
	00 00		 cmp	 DWORD PTR [eax+120], 227 ; 000000e3H
  00116	74 21		 je	 SHORT $L269837
  00118	33 c9		 xor	 ecx, ecx
  0011a	66 8b 8e 80 00
	00 00		 mov	 cx, WORD PTR [esi+128]
  00121	51		 push	 ecx
  00122	8b 4c 24 14	 mov	 ecx, DWORD PTR _this$[esp+24]
  00126	50		 push	 eax
  00127	56		 push	 esi
  00128	81 c1 90 0b 00
	00		 add	 ecx, 2960		; 00000b90H
  0012e	e8 00 00 00 00	 call	 ?IsFull@?$CItemContainer@VCItemElem@@@@QAEHPAVCItemElem@@PAUItemProp@@F@Z ; CItemContainer<CItemElem>::IsFull
  00133	85 c0		 test	 eax, eax
  00135	74 02		 je	 SHORT $L269837

; 2310 : 			bTake	= FALSE;

  00137	33 ed		 xor	 ebp, ebp
$L269837:
  00139	5b		 pop	 ebx
  0013a	5f		 pop	 edi
  0013b	5e		 pop	 esi

; 2311 : #endif	// __JEFF_11
; 2312 : 	}
; 2313 : 
; 2314 : 	return bTake;

  0013c	8b c5		 mov	 eax, ebp
  0013e	5d		 pop	 ebp

; 2315 : }

  0013f	59		 pop	 ecx
  00140	c2 08 00	 ret	 8
$L269812:
  00143	5f		 pop	 edi
  00144	5e		 pop	 esi

; 2258 : 	{
; 2259 : 		return bTake;

  00145	33 c0		 xor	 eax, eax
  00147	5d		 pop	 ebp

; 2315 : }

  00148	59		 pop	 ecx
  00149	c2 08 00	 ret	 8
?IsLoot@CMover@@QAEHPAVCItem@@H@Z ENDP			; CMover::IsLoot
_TEXT	ENDS
PUBLIC	??_C@_09DPACILDJ@?$CC?$CFs?$CC?5?$CC?$CFs?$CC?$AA@ ; `string'
PUBLIC	??_C@_09KHPJMIO@?$CC?$CFs?$CFs?5?$CFs?$CC?$AA@	; `string'
PUBLIC	?SubLootDropMobParty@CMover@@QAEHPAVCItem@@PAVCParty@@@Z ; CMover::SubLootDropMobParty
EXTRN	?GetLanguage@@YAHXZ:NEAR			; GetLanguage
EXTRN	?IsValidArea@CMover@@QAEHPAV1@M@Z:NEAR		; CMover::IsValidArea
EXTRN	?GetUserByPlayerID@CUserMng@@QAEPAVCUser@@K@Z:NEAR ; CUserMng::GetUserByPlayerID
;	COMDAT ??_C@_09DPACILDJ@?$CC?$CFs?$CC?5?$CC?$CFs?$CC?$AA@
; File c:\documents and settings\test\mes documents\source\virtuos_v17\build\program\_common\mover.h
CONST	SEGMENT
??_C@_09DPACILDJ@?$CC?$CFs?$CC?5?$CC?$CFs?$CC?$AA@ DB '"%s" "%s"', 00H ; `string'
CONST	ENDS
;	COMDAT ??_C@_09KHPJMIO@?$CC?$CFs?$CFs?5?$CFs?$CC?$AA@
CONST	SEGMENT
??_C@_09KHPJMIO@?$CC?$CFs?$CFs?5?$CFs?$CC?$AA@ DB '"%s%s %s"', 00H ; `string'
; Function compile flags: /Ogty
; File c:\documents and settings\test\mes documents\source\virtuos_v17\build\program\_common\moveractevent.cpp
CONST	ENDS
;	COMDAT ?SubLootDropMobParty@CMover@@QAEHPAVCItem@@PAVCParty@@@Z
_TEXT	SEGMENT
_nMaxListMember$ = -248					; size = 4
$T276952 = -244						; size = 4
_i$269882 = -244					; size = 4
$T276950 = -240						; size = 4
_bSuccess$ = -240					; size = 4
_pListMember$ = -236					; size = 32
_aLogItem$269944 = -204					; size = 200
_aLogItem$269940 = -204					; size = 200
__$ArrayPad$ = -4					; size = 4
__$ReturnAddr$ = 4					; size = 4
_pItem$ = 8						; size = 4
_pParty$ = 12						; size = 4
?SubLootDropMobParty@CMover@@QAEHPAVCItem@@PAVCParty@@@Z PROC NEAR ; CMover::SubLootDropMobParty, COMDAT
; _this$ = ecx

; 2381 : {

  00000	81 ec f8 00 00
	00		 sub	 esp, 248		; 000000f8H
  00006	a1 00 00 00 00	 mov	 eax, DWORD PTR ___security_cookie
  0000b	33 c4		 xor	 eax, esp
  0000d	89 84 24 f4 00
	00 00		 mov	 DWORD PTR __$ArrayPad$[esp+248], eax
  00014	8b 84 24 fc 00
	00 00		 mov	 eax, DWORD PTR _pItem$[esp+244]
  0001b	53		 push	 ebx
  0001c	55		 push	 ebp

; 2382 : 	BOOL bSuccess = TRUE;;
; 2383 : #ifdef __WORLDSERVER
; 2384 : 	CUser *pListMember[ 8 ];
; 2385 : 	int	nMaxListMember = 0;
; 2386 : 	CUser* pMember	= NULL;
; 2387 : 	CUser* pGetUser = NULL;
; 2388 : //	float fDist;
; 2389 : 	D3DXVECTOR3	vDist;
; 2390 : 	CItemBase* pItemBase = pItem->m_pItemBase;

  0001d	8b a8 34 02 00
	00		 mov	 ebp, DWORD PTR [eax+564]

; 2391 : 	
; 2392 : 	//     .
; 2393 : 	memset( pListMember, 0, sizeof(pListMember) );

  00023	33 c0		 xor	 eax, eax
  00025	89 44 24 14	 mov	 DWORD PTR _pListMember$[esp+256], eax
  00029	89 44 24 18	 mov	 DWORD PTR _pListMember$[esp+260], eax
  0002d	89 44 24 1c	 mov	 DWORD PTR _pListMember$[esp+264], eax
  00031	89 44 24 20	 mov	 DWORD PTR _pListMember$[esp+268], eax
  00035	89 44 24 24	 mov	 DWORD PTR _pListMember$[esp+272], eax
  00039	89 44 24 28	 mov	 DWORD PTR _pListMember$[esp+276], eax
  0003d	56		 push	 esi
  0003e	8b b4 24 0c 01
	00 00		 mov	 esi, DWORD PTR _pParty$[esp+256]
  00045	89 44 24 30	 mov	 DWORD PTR _pListMember$[esp+284], eax
  00049	33 db		 xor	 ebx, ebx
  0004b	89 44 24 34	 mov	 DWORD PTR _pListMember$[esp+288], eax

; 2394 : 	for( int i = 0; i < pParty->m_nSizeofMember; i++ )

  0004f	39 9e cc 01 00
	00		 cmp	 DWORD PTR [esi+460], ebx
  00055	57		 push	 edi
  00056	89 4c 24 18	 mov	 DWORD PTR $T276950[esp+264], ecx
  0005a	89 74 24 14	 mov	 DWORD PTR $T276952[esp+264], esi
  0005e	89 5c 24 10	 mov	 DWORD PTR _nMaxListMember$[esp+264], ebx
  00062	7e 4c		 jle	 SHORT $L276960

; 2395 : 	{
; 2396 : 		pMember		= g_UserMng.GetUserByPlayerID( pParty->m_aMember[i].m_uPlayerId );

  00064	83 c6 28	 add	 esi, 40			; 00000028H
$L269883:
  00067	8b 0e		 mov	 ecx, DWORD PTR [esi]
  00069	51		 push	 ecx
  0006a	b9 00 00 00 00	 mov	 ecx, OFFSET FLAT:?g_UserMng@@3VCUserMng@@A
  0006f	e8 00 00 00 00	 call	 ?GetUserByPlayerID@CUserMng@@QAEPAVCUser@@K@Z ; CUserMng::GetUserByPlayerID

; 2397 : //		if( IsValidObj( (CObj*)pMember ) )
; 2398 : 		// 12-3 :         .
; 2399 : 		/*  
; 2400 : 		if( IsValidObj( (CObj*)pMember ) && GetWorld() == pMember->GetWorld() )
; 2401 : 		{
; 2402 : 			vDist = pMember->GetPos() - GetPos();
; 2403 : 			fDist = D3DXVec3LengthSq( &vDist );		//    .
; 2404 : 			if( fDist < 32.0f * 32.0f )		// xx 
; 2405 : 			{
; 2406 : 				pListMember[ nMaxListMember++ ] = pMember;
; 2407 : 			}
; 2408 : 		}
; 2409 : 		*/ //2009.01.21 //    
; 2410 : 		if( IsValidArea( pMember, 32.0f ) )

  00074	8b 4c 24 18	 mov	 ecx, DWORD PTR $T276950[esp+264]
  00078	8b f8		 mov	 edi, eax
  0007a	68 00 00 00 42	 push	 1107296256		; 42000000H
  0007f	57		 push	 edi
  00080	e8 00 00 00 00	 call	 ?IsValidArea@CMover@@QAEHPAV1@M@Z ; CMover::IsValidArea
  00085	85 c0		 test	 eax, eax
  00087	74 0d		 je	 SHORT $L269884

; 2411 : 			pListMember[ nMaxListMember++ ] = pMember;

  00089	8b 44 24 10	 mov	 eax, DWORD PTR _nMaxListMember$[esp+264]
  0008d	89 7c 84 1c	 mov	 DWORD PTR _pListMember$[esp+eax*4+264], edi
  00091	40		 inc	 eax
  00092	89 44 24 10	 mov	 DWORD PTR _nMaxListMember$[esp+264], eax
$L269884:
  00096	8b 54 24 14	 mov	 edx, DWORD PTR $T276952[esp+264]
  0009a	8b 82 cc 01 00
	00		 mov	 eax, DWORD PTR [edx+460]
  000a0	43		 inc	 ebx
  000a1	83 c6 1c	 add	 esi, 28			; 0000001cH
  000a4	3b d8		 cmp	 ebx, eax
  000a6	7c bf		 jl	 SHORT $L269883

; 2412 : 	}
; 2413 : 
; 2414 : 	if( nMaxListMember == 0 )

  000a8	8b 44 24 10	 mov	 eax, DWORD PTR _nMaxListMember$[esp+264]
  000ac	85 c0		 test	 eax, eax
  000ae	75 09		 jne	 SHORT $L269887
$L276960:

; 2415 : 	{
; 2416 : 		pGetUser	= (CUser*)this;

  000b0	8b 74 24 18	 mov	 esi, DWORD PTR $T276950[esp+264]

; 2417 : 	}
; 2418 : 	else

  000b4	e9 91 00 00 00	 jmp	 $L276967
$L269887:

; 2419 : 	{
; 2420 : 		switch( pParty->m_nTroupeShareItem )

  000b9	8b 54 24 14	 mov	 edx, DWORD PTR $T276952[esp+264]
  000bd	8b 82 e0 01 00
	00		 mov	 eax, DWORD PTR [edx+480]
  000c3	48		 dec	 eax
  000c4	74 46		 je	 SHORT $L269894
  000c6	48		 dec	 eax
  000c7	74 2a		 je	 SHORT $L269902
  000c9	48		 dec	 eax
  000ca	74 06		 je	 SHORT $L269906

; 2466 : 		default:	//  
; 2467 : 
; 2468 : 			{
; 2469 : 				pGetUser = (CUser*)this; 

  000cc	8b 74 24 18	 mov	 esi, DWORD PTR $T276950[esp+264]

; 2470 : 			}
; 2471 : 			break;

  000d0	eb 78		 jmp	 SHORT $L276967
$L269906:

; 2460 : 		case 3 :	//  :  
; 2461 : 			{
; 2462 : 				DWORD dwRand = xRandom( nMaxListMember );

  000d2	a1 00 00 00 00	 mov	 eax, DWORD PTR ?g_next@@3KA ; g_next
  000d7	69 c0 6d 4e c6
	41		 imul	 eax, 1103515245		; 41c64e6dH
  000dd	05 39 30 00 00	 add	 eax, 12345		; 00003039H
  000e2	33 d2		 xor	 edx, edx
  000e4	a3 00 00 00 00	 mov	 DWORD PTR ?g_next@@3KA, eax ; g_next
  000e9	f7 74 24 10	 div	 DWORD PTR _nMaxListMember$[esp+264]

; 2463 : 				pGetUser = pListMember[dwRand];

  000ed	8b 74 94 1c	 mov	 esi, DWORD PTR _pListMember$[esp+edx*4+264]

; 2464 : 			}
; 2465 : 			break;

  000f1	eb 57		 jmp	 SHORT $L276967
$L269902:

; 2445 : 				}
; 2446 : 			}
; 2447 : 			break;
; 2448 : 		case 2 :	//  :   
; 2449 : 			{
; 2450 : 				if( pParty->IsLeader( pListMember[0]->m_idPlayer ) )

  000f3	8b 74 24 1c	 mov	 esi, DWORD PTR _pListMember$[esp+264]
  000f7	8b 8e 38 02 00
	00		 mov	 ecx, DWORD PTR [esi+568]
  000fd	8d 42 28	 lea	 eax, DWORD PTR [edx+40]
  00100	8b 00		 mov	 eax, DWORD PTR [eax]
  00102	3b c1		 cmp	 eax, ecx

; 2451 : 				{
; 2452 : 					pGetUser = pListMember[0];
; 2453 : 				}
; 2454 : 				else

  00104	74 44		 je	 SHORT $L276967

; 2455 : 				{
; 2456 : 					pGetUser = (CUser*)this;

  00106	8b 74 24 18	 mov	 esi, DWORD PTR $T276950[esp+264]

; 2457 : 				}
; 2458 : 			}
; 2459 : 			break;

  0010a	eb 3e		 jmp	 SHORT $L276967
$L269894:

; 2421 : 		{
; 2422 : 		case 1 :	// 
; 2423 : 
; 2424 : 			{
; 2425 : 				for( i = 0 ; i < nMaxListMember ; i++ )

  0010c	8b 4c 24 10	 mov	 ecx, DWORD PTR _nMaxListMember$[esp+264]
  00110	33 c0		 xor	 eax, eax
  00112	85 c9		 test	 ecx, ecx
  00114	7e 30		 jle	 SHORT $L276966
  00116	8b 92 00 02 00
	00		 mov	 edx, DWORD PTR [edx+512]
  0011c	8d 64 24 00	 npad	 4
$L269895:

; 2426 : 				{
; 2427 : 					if( pParty->m_nGetItemPlayerId == pListMember[i]->m_idPlayer )

  00120	8b 74 84 1c	 mov	 esi, DWORD PTR _pListMember$[esp+eax*4+264]
  00124	3b 96 38 02 00
	00		 cmp	 edx, DWORD PTR [esi+568]
  0012a	74 07		 je	 SHORT $L276956
  0012c	40		 inc	 eax
  0012d	3b c1		 cmp	 eax, ecx
  0012f	7c ef		 jl	 SHORT $L269895
  00131	eb 13		 jmp	 SHORT $L276966
$L276956:

; 2428 : 					{
; 2429 : 						if( i + 1 >= nMaxListMember )
; 2430 : 						{
; 2431 : 							pGetUser = pListMember[0];

  00133	8b 74 24 1c	 mov	 esi, DWORD PTR _pListMember$[esp+264]
  00137	8d 50 01	 lea	 edx, DWORD PTR [eax+1]
  0013a	3b d1		 cmp	 edx, ecx
  0013c	7d 04		 jge	 SHORT $L269897

; 2432 : 							break;												
; 2433 : 						}
; 2434 : 						else
; 2435 : 						{
; 2436 : 							pGetUser = pListMember[ i+1 ];

  0013e	8b 74 84 20	 mov	 esi, DWORD PTR _pListMember$[esp+eax*4+268]
$L269897:

; 2437 : 							break;
; 2438 : 						}
; 2439 : 					}
; 2440 : 				}
; 2441 : 				
; 2442 : 				if( pGetUser == NULL )

  00142	85 f6		 test	 esi, esi
  00144	75 04		 jne	 SHORT $L276967
$L276966:

; 2443 : 				{
; 2444 : 					pGetUser = pListMember[0];

  00146	8b 74 24 1c	 mov	 esi, DWORD PTR _pListMember$[esp+264]
$L276967:

; 2472 : 		}	// switch
; 2473 : 	}	
; 2474 : 	pParty->m_nGetItemPlayerId = pGetUser->m_idPlayer;

  0014a	8b 86 38 02 00
	00		 mov	 eax, DWORD PTR [esi+568]
  00150	8b 4c 24 14	 mov	 ecx, DWORD PTR $T276952[esp+264]

; 2475 : 
; 2476 : 	bSuccess	= pGetUser->CreateItem( pItemBase );

  00154	6a 00		 push	 0
  00156	6a 00		 push	 0
  00158	6a 00		 push	 0
  0015a	89 81 00 02 00
	00		 mov	 DWORD PTR [ecx+512], eax
  00160	55		 push	 ebp
  00161	8b ce		 mov	 ecx, esi
  00163	e8 00 00 00 00	 call	 ?CreateItem@CMover@@QAEHPAVCItemBase@@PAEPAFE@Z ; CMover::CreateItem

; 2477 : 
; 2478 : 	for( i = 0; i < nMaxListMember; i++ )

  00168	8b 4c 24 10	 mov	 ecx, DWORD PTR _nMaxListMember$[esp+264]
  0016c	8b d8		 mov	 ebx, eax
  0016e	33 c0		 xor	 eax, eax
  00170	85 c9		 test	 ecx, ecx
  00172	89 5c 24 18	 mov	 DWORD PTR _bSuccess$[esp+264], ebx
  00176	89 44 24 14	 mov	 DWORD PTR _i$269882[esp+264], eax
  0017a	0f 8e 81 01 00
	00		 jle	 $L269912
$L269910:

; 2479 : 	{
; 2480 : 		pMember = pListMember[i];

  00180	8b 7c 84 1c	 mov	 edi, DWORD PTR _pListMember$[esp+eax*4+264]

; 2481 : 		if( TRUE == pMember->IsPlayer() && pItemBase->GetProp() != NULL )

  00184	83 bf 34 02 00
	00 01		 cmp	 DWORD PTR [edi+564], 1
  0018b	0f 85 5b 01 00
	00		 jne	 $L269911
  00191	8b cd		 mov	 ecx, ebp
  00193	e8 00 00 00 00	 call	 ?GetPropA@CItemBase@@QAEPAUItemProp@@XZ ; CItemBase::GetPropA
  00198	85 c0		 test	 eax, eax
  0019a	0f 84 4c 01 00
	00		 je	 $L269911

; 2482 : 		{
; 2483 : 			if( bSuccess )

  001a0	85 db		 test	 ebx, ebx
  001a2	0f 84 34 01 00
	00		 je	 $L269914

; 2484 : 			{
; 2485 : 				if( pMember->m_idPlayer != pGetUser->m_idPlayer )

  001a8	8b 97 38 02 00
	00		 mov	 edx, DWORD PTR [edi+568]
  001ae	3b 96 38 02 00
	00		 cmp	 edx, DWORD PTR [esi+568]
  001b4	0f 84 02 01 00
	00		 je	 $L269915

; 2486 : 				{
; 2487 : 					if( ::GetLanguage() == LANG_TWN || ::GetLanguage() == LANG_JAP || ::GetLanguage() == LANG_HK )

  001ba	e8 00 00 00 00	 call	 ?GetLanguage@@YAHXZ	; GetLanguage
  001bf	83 f8 05	 cmp	 eax, 5
  001c2	0f 84 ca 00 00
	00		 je	 $L269917
  001c8	e8 00 00 00 00	 call	 ?GetLanguage@@YAHXZ	; GetLanguage
  001cd	83 f8 02	 cmp	 eax, 2
  001d0	0f 84 bc 00 00
	00		 je	 $L269917
  001d6	e8 00 00 00 00	 call	 ?GetLanguage@@YAHXZ	; GetLanguage
  001db	83 f8 09	 cmp	 eax, 9
  001de	0f 84 ae 00 00
	00		 je	 $L269917

; 2489 : 					else
; 2490 : 					{
; 2491 : 						if( ::GetLanguage() == LANG_THA )

  001e4	e8 00 00 00 00	 call	 ?GetLanguage@@YAHXZ	; GetLanguage
  001e9	83 f8 04	 cmp	 eax, 4
  001ec	75 2d		 jne	 SHORT $L269921

; 2492 : 							( (CUser*)pMember )->AddDefinedText( TID_GAME_REAPITEM_THA, "\"%s\" \"%s\"", pGetUser->GetName(), pItemBase->GetProp()->szName );

  001ee	8b cd		 mov	 ecx, ebp
  001f0	e8 00 00 00 00	 call	 ?GetPropA@CItemBase@@QAEPAUItemProp@@XZ ; CItemBase::GetPropA
  001f5	83 c0 04	 add	 eax, 4
  001f8	50		 push	 eax
  001f9	6a 00		 push	 0
  001fb	8b ce		 mov	 ecx, esi
  001fd	e8 00 00 00 00	 call	 ?GetName@CMover@@QAEPBDH@Z ; CMover::GetName
  00202	50		 push	 eax
  00203	68 00 00 00 00	 push	 OFFSET FLAT:??_C@_09DPACILDJ@?$CC?$CFs?$CC?5?$CC?$CFs?$CC?$AA@
  00208	68 35 09 00 00	 push	 2357			; 00000935H
  0020d	57		 push	 edi
  0020e	e8 00 00 00 00	 call	 ?AddDefinedText@CUser@@QAAXHPBDZZ ; CUser::AddDefinedText
  00213	83 c4 14	 add	 esp, 20			; 00000014H

; 2493 : 						else

  00216	e9 d1 00 00 00	 jmp	 $L269911
$L269921:

; 2494 : 							( (CUser*)pMember )->AddDefinedText( TID_GAME_REAPITEM, "\"%s%s %s\"", pGetUser->GetName(), prj.GetText(TID_GAME_FROM2), pItemBase->GetProp()->szName );

  0021b	a1 c8 02 00 00	 mov	 eax, DWORD PTR ?prj@@3VCProject@@A+712
  00220	3d 98 04 00 00	 cmp	 eax, 1176		; 00000498H
  00225	7e 1d		 jle	 SHORT $L276908
  00227	76 0f		 jbe	 SHORT $L276962
  00229	a1 b8 02 00 00	 mov	 eax, DWORD PTR ?prj@@3VCProject@@A+696
  0022e	8b 80 60 12 00
	00		 mov	 eax, DWORD PTR [eax+4704]
  00234	85 c0		 test	 eax, eax
  00236	75 07		 jne	 SHORT $L276909
$L276962:
  00238	bb 00 00 00 00	 mov	 ebx, OFFSET FLAT:??_C@_00CNPNBAHC@?$AA@
  0023d	eb 24		 jmp	 SHORT $L276903
$L276909:
  0023f	8b 58 04	 mov	 ebx, DWORD PTR [eax+4]
  00242	eb 1f		 jmp	 SHORT $L276903
$L276908:
  00244	68 98 04 00 00	 push	 1176			; 00000498H
  00249	50		 push	 eax
  0024a	6a 00		 push	 0
  0024c	68 00 00 00 00	 push	 OFFSET FLAT:??_C@_0BE@OHDBLHOM@GetText?5range_error?$AA@
  00251	68 00 00 00 00	 push	 OFFSET FLAT:??_C@_0BM@HMFGHCP@?$CFs?5min?3?$CFd?0?5max?3?$CFd?0?5index?3?$CFd?$AA@
  00256	e8 00 00 00 00	 call	 ?Error@@YAPBDPBDZZ	; Error
  0025b	83 c4 14	 add	 esp, 20			; 00000014H
  0025e	bb 00 00 00 00	 mov	 ebx, OFFSET FLAT:??_C@_05KKCIMGE@error?$AA@
$L276903:
  00263	8b cd		 mov	 ecx, ebp
  00265	e8 00 00 00 00	 call	 ?GetPropA@CItemBase@@QAEPAUItemProp@@XZ ; CItemBase::GetPropA
  0026a	83 c0 04	 add	 eax, 4
  0026d	50		 push	 eax
  0026e	53		 push	 ebx
  0026f	6a 00		 push	 0
  00271	8b ce		 mov	 ecx, esi
  00273	e8 00 00 00 00	 call	 ?GetName@CMover@@QAEPBDH@Z ; CMover::GetName
  00278	50		 push	 eax
  00279	68 00 00 00 00	 push	 OFFSET FLAT:??_C@_09KHPJMIO@?$CC?$CFs?$CFs?5?$CFs?$CC?$AA@
  0027e	68 74 02 00 00	 push	 628			; 00000274H
  00283	57		 push	 edi
  00284	e8 00 00 00 00	 call	 ?AddDefinedText@CUser@@QAAXHPBDZZ ; CUser::AddDefinedText
  00289	8b 5c 24 30	 mov	 ebx, DWORD PTR _bSuccess$[esp+288]
  0028d	83 c4 18	 add	 esp, 24			; 00000018H
  00290	eb 5a		 jmp	 SHORT $L269911
$L269917:

; 2488 : 						( (CUser*)pMember )->AddDefinedText( TID_GAME_TROUPEREAPITEM, "\"%s\" \"%s\"", pGetUser->GetName(), pItemBase->GetProp()->szName );

  00292	8b cd		 mov	 ecx, ebp
  00294	e8 00 00 00 00	 call	 ?GetPropA@CItemBase@@QAEPAUItemProp@@XZ ; CItemBase::GetPropA
  00299	83 c0 04	 add	 eax, 4
  0029c	50		 push	 eax
  0029d	6a 00		 push	 0
  0029f	8b ce		 mov	 ecx, esi
  002a1	e8 00 00 00 00	 call	 ?GetName@CMover@@QAEPBDH@Z ; CMover::GetName
  002a6	50		 push	 eax
  002a7	68 00 00 00 00	 push	 OFFSET FLAT:??_C@_09DPACILDJ@?$CC?$CFs?$CC?5?$CC?$CFs?$CC?$AA@
  002ac	68 89 02 00 00	 push	 649			; 00000289H
  002b1	57		 push	 edi
  002b2	e8 00 00 00 00	 call	 ?AddDefinedText@CUser@@QAAXHPBDZZ ; CUser::AddDefinedText
  002b7	83 c4 14	 add	 esp, 20			; 00000014H

; 2495 : 					}
; 2496 : 				}
; 2497 : 				else

  002ba	eb 30		 jmp	 SHORT $L269911
$L269915:

; 2498 : 				{
; 2499 : 					( (CUser*)pGetUser )->AddDefinedText( TID_GAME_REAPITEM, "\"%s\"", pItemBase->GetProp()->szName );

  002bc	8b cd		 mov	 ecx, ebp
  002be	e8 00 00 00 00	 call	 ?GetPropA@CItemBase@@QAEPAUItemProp@@XZ ; CItemBase::GetPropA
  002c3	83 c0 04	 add	 eax, 4
  002c6	50		 push	 eax
  002c7	68 00 00 00 00	 push	 OFFSET FLAT:??_C@_04OEDFLLKD@?$CC?$CFs?$CC?$AA@
  002cc	68 74 02 00 00	 push	 628			; 00000274H
  002d1	56		 push	 esi
  002d2	e8 00 00 00 00	 call	 ?AddDefinedText@CUser@@QAAXHPBDZZ ; CUser::AddDefinedText
  002d7	83 c4 10	 add	 esp, 16			; 00000010H

; 2500 : 				}
; 2501 : 			}
; 2502 : 			else

  002da	eb 10		 jmp	 SHORT $L269911
$L269914:

; 2503 : 			{
; 2504 : 				// CreateItem  Full
; 2505 : 				if( pGetUser == pMember )

  002dc	3b f7		 cmp	 esi, edi
  002de	75 0c		 jne	 SHORT $L269911

; 2506 : 					( (CUser*)pGetUser )->AddDefinedText( TID_GAME_LACKSPACE );

  002e0	68 72 02 00 00	 push	 626			; 00000272H
  002e5	8b ce		 mov	 ecx, esi
  002e7	e8 00 00 00 00	 call	 ?AddDefinedText@CUser@@QAEXH@Z ; CUser::AddDefinedText
$L269911:
  002ec	8b 44 24 14	 mov	 eax, DWORD PTR _i$269882[esp+264]
  002f0	8b 4c 24 10	 mov	 ecx, DWORD PTR _nMaxListMember$[esp+264]
  002f4	40		 inc	 eax
  002f5	3b c1		 cmp	 eax, ecx
  002f7	89 44 24 14	 mov	 DWORD PTR _i$269882[esp+264], eax
  002fb	0f 8c 7f fe ff
	ff		 jl	 $L269910
$L269912:

; 2507 : 			}
; 2508 : 		}									
; 2509 : 	}
; 2510 : 	
; 2511 : 	if( ( (CItemElem*)pItemBase )->IsLogable() && bSuccess )

  00301	8b cd		 mov	 ecx, ebp
  00303	e8 00 00 00 00	 call	 ?IsLogable@CItemElem@@QAEHXZ ; CItemElem::IsLogable
  00308	85 c0		 test	 eax, eax
  0030a	0f 84 c9 00 00
	00		 je	 $L276965
  00310	85 db		 test	 ebx, ebx
  00312	0f 84 c1 00 00
	00		 je	 $L276965

; 2512 : 	{
; 2513 : 		switch( pItemBase->GetProp()->dwItemKind2 ) 

  00318	8b cd		 mov	 ecx, ebp
  0031a	e8 00 00 00 00	 call	 ?GetPropA@CItemBase@@QAEPAUItemProp@@XZ ; CItemBase::GetPropA
  0031f	8b 40 74	 mov	 eax, DWORD PTR [eax+116]
  00322	83 c0 f5	 add	 eax, -11		; fffffff5H
  00325	83 f8 04	 cmp	 eax, 4
  00328	77 57		 ja	 SHORT $L269943
  0032a	ff 24 85 00 00
	00 00		 jmp	 DWORD PTR $L276971[eax*4]
$L269937:

; 2514 : 		{
; 2515 : 		case IK2_FOOD:
; 2516 : 		case IK2_MAGIC:
; 2517 : 		case IK2_POTION:
; 2518 : 		case IK2_REFRESHER:
; 2519 : 			{
; 2520 : 				if( ( ( (CItemElem*)pItemBase )->m_nItemNum ) > 9 )

  00331	66 83 bd 80 00
	00 00 09	 cmp	 WORD PTR [ebp+128], 9
  00339	0f 8e 9a 00 00
	00		 jle	 $L276965

; 2521 : 				{
; 2522 : 					LogItemInfo aLogItem;

  0033f	8d 4c 24 3c	 lea	 ecx, DWORD PTR _aLogItem$269940[esp+264]
  00343	e8 00 00 00 00	 call	 ??0_LogItemInfo@@QAE@XZ	; _LogItemInfo::_LogItemInfo

; 2523 : 					aLogItem.Action = "R";
; 2524 : 					aLogItem.SendName = "GROUND";
; 2525 : 					aLogItem.RecvName = pGetUser->GetName();

  00348	6a 00		 push	 0
  0034a	8b ce		 mov	 ecx, esi
  0034c	c7 44 24 40 00
	00 00 00	 mov	 DWORD PTR _aLogItem$269940[esp+268], OFFSET FLAT:??_C@_01DGKLNCNG@R?$AA@
  00354	c7 44 24 44 00
	00 00 00	 mov	 DWORD PTR _aLogItem$269940[esp+272], OFFSET FLAT:??_C@_06GKBINIEJ@GROUND?$AA@
  0035c	e8 00 00 00 00	 call	 ?GetName@CMover@@QAEPBDH@Z ; CMover::GetName

; 2526 : 					aLogItem.WorldId = pGetUser->GetWorld()->GetID();

  00361	8b 8e 6c 01 00
	00		 mov	 ecx, DWORD PTR [esi+364]
  00367	89 44 24 44	 mov	 DWORD PTR _aLogItem$269940[esp+272], eax

; 2527 : 					aLogItem.Gold = aLogItem.Gold2 = pGetUser->GetGold();
; 2528 : 					g_DPSrvr.OnLogItem( aLogItem, ( (CItemElem*)pItemBase ), ( (CItemElem*)pItemBase )->m_nItemNum );

  0036b	0f bf 85 80 00
	00 00		 movsx	 eax, WORD PTR [ebp+128]
  00372	8b 11		 mov	 edx, DWORD PTR [ecx]
  00374	50		 push	 eax
  00375	55		 push	 ebp
  00376	8d 4c 24 44	 lea	 ecx, DWORD PTR _aLogItem$269940[esp+272]
  0037a	89 54 24 50	 mov	 DWORD PTR _aLogItem$269940[esp+284], edx
  0037e	51		 push	 ecx

; 2529 : 				}
; 2530 : 				break;

  0037f	eb 40		 jmp	 SHORT $L276970
$L269943:

; 2531 : 			}
; 2532 : 		default:
; 2533 : 			{
; 2534 : 				LogItemInfo aLogItem;

  00381	8d 4c 24 3c	 lea	 ecx, DWORD PTR _aLogItem$269944[esp+264]
  00385	e8 00 00 00 00	 call	 ??0_LogItemInfo@@QAE@XZ	; _LogItemInfo::_LogItemInfo

; 2535 : 				aLogItem.Action = "R";
; 2536 : 				aLogItem.SendName = "GROUND";
; 2537 : 				aLogItem.RecvName = pGetUser->GetName();

  0038a	6a 00		 push	 0
  0038c	8b ce		 mov	 ecx, esi
  0038e	c7 44 24 40 00
	00 00 00	 mov	 DWORD PTR _aLogItem$269944[esp+268], OFFSET FLAT:??_C@_01DGKLNCNG@R?$AA@
  00396	c7 44 24 44 00
	00 00 00	 mov	 DWORD PTR _aLogItem$269944[esp+272], OFFSET FLAT:??_C@_06GKBINIEJ@GROUND?$AA@
  0039e	e8 00 00 00 00	 call	 ?GetName@CMover@@QAEPBDH@Z ; CMover::GetName

; 2538 : 				aLogItem.WorldId = pGetUser->GetWorld()->GetID();
; 2539 : 				aLogItem.Gold = aLogItem.Gold2 = pGetUser->GetGold();
; 2540 : 				g_DPSrvr.OnLogItem( aLogItem, ( (CItemElem*)pItemBase ), ( (CItemElem*)pItemBase )->m_nItemNum );

  003a3	0f bf 8d 80 00
	00 00		 movsx	 ecx, WORD PTR [ebp+128]
  003aa	8b 96 6c 01 00
	00		 mov	 edx, DWORD PTR [esi+364]
  003b0	51		 push	 ecx
  003b1	89 44 24 48	 mov	 DWORD PTR _aLogItem$269944[esp+276], eax
  003b5	8b 02		 mov	 eax, DWORD PTR [edx]
  003b7	55		 push	 ebp
  003b8	8d 54 24 44	 lea	 edx, DWORD PTR _aLogItem$269944[esp+272]
  003bc	89 44 24 50	 mov	 DWORD PTR _aLogItem$269944[esp+284], eax
  003c0	52		 push	 edx
$L276970:
  003c1	8b b6 84 16 00
	00		 mov	 esi, DWORD PTR [esi+5764]
  003c7	b9 00 00 00 00	 mov	 ecx, OFFSET FLAT:?g_DPSrvr@@3VCDPSrvr@@A
  003cc	89 74 24 58	 mov	 DWORD PTR _aLogItem$269944[esp+292], esi
  003d0	89 74 24 5c	 mov	 DWORD PTR _aLogItem$269944[esp+296], esi
  003d4	e8 00 00 00 00	 call	 ?OnLogItem@CDPSrvr@@QAEXAAU_LogItemInfo@@PAVCItemElem@@H@Z ; CDPSrvr::OnLogItem
$L276965:

; 2541 : 				break;
; 2542 : 			}
; 2543 : 		}
; 2544 : 	}
; 2545 : #endif // __WORLDSERVER
; 2546 : 	return bSuccess;
; 2547 : } // SubLootDropMobParty

  003d9	8b 8c 24 04 01
	00 00		 mov	 ecx, DWORD PTR __$ArrayPad$[esp+264]
  003e0	5f		 pop	 edi
  003e1	5e		 pop	 esi
  003e2	5d		 pop	 ebp
  003e3	8b c3		 mov	 eax, ebx
  003e5	5b		 pop	 ebx
  003e6	33 cc		 xor	 ecx, esp
  003e8	e8 00 00 00 00	 call	 @__security_check_cookie@4
  003ed	81 c4 f8 00 00
	00		 add	 esp, 248		; 000000f8H
  003f3	c2 08 00	 ret	 8
  003f6	8b ff		 npad	 2
$L276971:
  003f8	00 00 00 00	 DD	 $L269937
  003fc	00 00 00 00	 DD	 $L269937
  00400	00 00 00 00	 DD	 $L269943
  00404	00 00 00 00	 DD	 $L269937
  00408	00 00 00 00	 DD	 $L269937
?SubLootDropMobParty@CMover@@QAEHPAVCItem@@PAVCParty@@@Z ENDP ; CMover::SubLootDropMobParty
_TEXT	ENDS
PUBLIC	?SubLootDropMob@CMover@@QAEHPAVCItem@@@Z	; CMover::SubLootDropMob
EXTRN	?GetParty@CPartyMng@@QAEPAVCParty@@K@Z:NEAR	; CPartyMng::GetParty
EXTRN	?g_PartyMng@@3VCPartyMng@@A:BYTE		; g_PartyMng
; Function compile flags: /Ogty
;	COMDAT ?SubLootDropMob@CMover@@QAEHPAVCItem@@@Z
_TEXT	SEGMENT
_pItem$ = 8						; size = 4
?SubLootDropMob@CMover@@QAEHPAVCItem@@@Z PROC NEAR	; CMover::SubLootDropMob, COMDAT
; _this$ = ecx

; 2553 : {

  00000	56		 push	 esi
  00001	8b f1		 mov	 esi, ecx

; 2554 : 	BOOL bSuccess = TRUE;
; 2555 : #ifdef __WORLDSERVER
; 2556 : 	CParty *pParty	= g_PartyMng.GetParty( m_idparty );

  00003	8b 86 18 07 00
	00		 mov	 eax, DWORD PTR [esi+1816]
  00009	57		 push	 edi
  0000a	50		 push	 eax
  0000b	b9 00 00 00 00	 mov	 ecx, OFFSET FLAT:?g_PartyMng@@3VCPartyMng@@A
  00010	e8 00 00 00 00	 call	 ?GetParty@CPartyMng@@QAEPAVCParty@@K@Z ; CPartyMng::GetParty
  00015	8b f8		 mov	 edi, eax

; 2557 : 	if( pParty && pParty->IsMember( m_idPlayer )  )	//     

  00017	85 ff		 test	 edi, edi
  00019	74 24		 je	 SHORT $L269953
  0001b	8b 86 38 02 00
	00		 mov	 eax, DWORD PTR [esi+568]
  00021	50		 push	 eax
  00022	8b cf		 mov	 ecx, edi
  00024	e8 00 00 00 00	 call	 ?FindMember@CParty@@QAEHK@Z ; CParty::FindMember
  00029	85 c0		 test	 eax, eax
  0002b	7c 12		 jl	 SHORT $L269953

; 2558 : 	{
; 2559 : 		//    .
; 2560 : 		bSuccess = SubLootDropMobParty( pItem, pParty );

  0002d	8b 4c 24 0c	 mov	 ecx, DWORD PTR _pItem$[esp+4]
  00031	57		 push	 edi
  00032	51		 push	 ecx
  00033	8b ce		 mov	 ecx, esi
  00035	e8 00 00 00 00	 call	 ?SubLootDropMobParty@CMover@@QAEHPAVCItem@@PAVCParty@@@Z ; CMover::SubLootDropMobParty
  0003a	5f		 pop	 edi
  0003b	5e		 pop	 esi

; 2565 : 	}
; 2566 : #endif	// __WORLDSERVER
; 2567 : 
; 2568 : 	return bSuccess;
; 2569 : }

  0003c	c2 04 00	 ret	 4
$L269953:

; 2561 : 	}
; 2562 : 	else //  ~
; 2563 : 	{
; 2564 : 		bSuccess = SubLootDropMobSingle( pItem );

  0003f	8b 54 24 0c	 mov	 edx, DWORD PTR _pItem$[esp+4]
  00043	52		 push	 edx
  00044	8b ce		 mov	 ecx, esi
  00046	e8 00 00 00 00	 call	 ?SubLootDropMobSingle@CMover@@QAEHPAVCItem@@@Z ; CMover::SubLootDropMobSingle
  0004b	5f		 pop	 edi
  0004c	5e		 pop	 esi

; 2565 : 	}
; 2566 : #endif	// __WORLDSERVER
; 2567 : 
; 2568 : 	return bSuccess;
; 2569 : }

  0004d	c2 04 00	 ret	 4
?SubLootDropMob@CMover@@QAEHPAVCItem@@@Z ENDP		; CMover::SubLootDropMob
_TEXT	ENDS
PUBLIC	?DoLoot@CMover@@QAEHPAVCItem@@@Z		; CMover::DoLoot
EXTRN	?Delete@CObj@@QAEXXZ:NEAR			; CObj::Delete
EXTRN	?PickupGold@CMover@@QAEXHH@Z:NEAR		; CMover::PickupGold
EXTRN	?GetGold@CItemElem@@QAEHXZ:NEAR			; CItemElem::GetGold
; Function compile flags: /Ogty
;	COMDAT ?DoLoot@CMover@@QAEHPAVCItem@@@Z
_TEXT	SEGMENT
_pItem$ = 8						; size = 4
?DoLoot@CMover@@QAEHPAVCItem@@@Z PROC NEAR		; CMover::DoLoot, COMDAT
; _this$ = ecx

; 2637 : {

  00000	57		 push	 edi
  00001	8b f9		 mov	 edi, ecx

; 2638 : 	if( IsPlayer() == FALSE )	return FALSE;

  00003	8b 87 34 02 00
	00		 mov	 eax, DWORD PTR [edi+564]
  00009	85 c0		 test	 eax, eax
  0000b	75 06		 jne	 SHORT $L269988
  0000d	33 c0		 xor	 eax, eax
  0000f	5f		 pop	 edi

; 2680 : }

  00010	c2 04 00	 ret	 4
$L269988:

; 2639 : 
; 2640 : 	CItemBase* pItemBase = pItem->m_pItemBase;
; 2641 : 	BOOL bSuccess = TRUE;
; 2642 : 
; 2643 : #ifdef __CLIENT	
; 2644 : 	PLAYSND( SND_INF_GROUNDPICKUP );
; 2645 : #endif
; 2646 : 	
; 2647 : 	ItemProp *pItemProp = pItem->GetProp();

  00013	8b 0d 5c 02 00
	00		 mov	 ecx, DWORD PTR ?prj@@3VCProject@@A+604
  00019	53		 push	 ebx
  0001a	55		 push	 ebp
  0001b	56		 push	 esi
  0001c	8b 74 24 14	 mov	 esi, DWORD PTR _pItem$[esp+12]
  00020	8b 86 74 01 00
	00		 mov	 eax, DWORD PTR [esi+372]
  00026	85 c0		 test	 eax, eax
  00028	8b 9e 34 02 00
	00		 mov	 ebx, DWORD PTR [esi+564]
  0002e	bd 01 00 00 00	 mov	 ebp, 1
  00033	7c 11		 jl	 SHORT $L277042
  00035	3b c1		 cmp	 eax, ecx
  00037	7d 0d		 jge	 SHORT $L277042
  00039	73 21		 jae	 SHORT $L277063
  0003b	8b 0d 4c 02 00
	00		 mov	 ecx, DWORD PTR ?prj@@3VCProject@@A+588
  00041	8b 04 81	 mov	 eax, DWORD PTR [ecx+eax*4]
  00044	eb 18		 jmp	 SHORT $L277037
$L277042:
  00046	50		 push	 eax
  00047	51		 push	 ecx
  00048	6a 00		 push	 0
  0004a	68 00 00 00 00	 push	 OFFSET FLAT:??_C@_0BI@BEIFNGEL@GetItemProp?5range_error?$AA@
  0004f	68 00 00 00 00	 push	 OFFSET FLAT:??_C@_0BM@HMFGHCP@?$CFs?5min?3?$CFd?0?5max?3?$CFd?0?5index?3?$CFd?$AA@
  00054	e8 00 00 00 00	 call	 ?Error@@YAPBDPBDZZ	; Error
  00059	83 c4 14	 add	 esp, 20			; 00000014H
$L277063:
  0005c	33 c0		 xor	 eax, eax
$L277037:

; 2648 : 	if( pItemProp->dwItemKind1 == IK1_GOLD ) 

  0005e	83 78 70 0c	 cmp	 DWORD PTR [eax+112], 12	; 0000000cH
  00062	75 18		 jne	 SHORT $L269992

; 2649 : 	{
; 2650 : 		PickupGold( ((CItemElem*)pItemBase)->GetGold(), pItem->m_bDropMob );

  00064	8b 96 44 02 00
	00		 mov	 edx, DWORD PTR [esi+580]
  0006a	52		 push	 edx
  0006b	8b cb		 mov	 ecx, ebx
  0006d	e8 00 00 00 00	 call	 ?GetGold@CItemElem@@QAEHXZ ; CItemElem::GetGold
  00072	50		 push	 eax
  00073	8b cf		 mov	 ecx, edi
  00075	e8 00 00 00 00	 call	 ?PickupGold@CMover@@QAEXHH@Z ; CMover::PickupGold

; 2651 : 	}
; 2652 : 	else 

  0007a	eb 1f		 jmp	 SHORT $L277060
$L269992:

; 2653 : 	{
; 2654 : 		// <  - >
; 2655 : #ifdef __WORLDSERVER
; 2656 : 		if( pItem->m_bDropMob == TRUE ) //  

  0007c	83 be 44 02 00
	00 01		 cmp	 DWORD PTR [esi+580], 1

; 2657 : 		{
; 2658 : 			//      
; 2659 : 			bSuccess = SubLootDropMob( pItem );

  00083	8b cf		 mov	 ecx, edi
  00085	56		 push	 esi
  00086	75 07		 jne	 SHORT $L269995
  00088	e8 00 00 00 00	 call	 ?SubLootDropMob@CMover@@QAEHPAVCItem@@@Z ; CMover::SubLootDropMob

; 2660 : 		}
; 2661 : 		else	//    ~

  0008d	eb 05		 jmp	 SHORT $L277062
$L269995:

; 2662 : 		{
; 2663 : 			//       
; 2664 : 			bSuccess = SubLootDropNotMob( pItem );

  0008f	e8 00 00 00 00	 call	 ?SubLootDropNotMob@CMover@@QAEHPAVCItem@@@Z ; CMover::SubLootDropNotMob
$L277062:
  00094	8b e8		 mov	 ebp, eax

; 2665 : 
; 2666 : 		}
; 2667 : #endif	// __WORLDSERVER
; 2668 : 	}
; 2669 : 
; 2670 : 	if( TRUE == bSuccess )

  00096	83 fd 01	 cmp	 ebp, 1
  00099	75 33		 jne	 SHORT $L277057
$L277060:

; 2671 : 	{
; 2672 : 		pItem->Delete();

  0009b	8b ce		 mov	 ecx, esi
  0009d	e8 00 00 00 00	 call	 ?Delete@CObj@@QAEXXZ	; CObj::Delete

; 2673 : #ifdef __WORLDSERVER
; 2674 : //		g_UserMng.AddMotion( this, OBJMSG_PICKUP );
; 2675 : 		RemoveInvisible();		//    .

  000a2	6a 40		 push	 64			; 00000040H
  000a4	8b cf		 mov	 ecx, edi
  000a6	e8 00 00 00 00	 call	 ?GetAdjParam@CMover@@QAEHH@Z ; CMover::GetAdjParam
  000ab	f6 c4 04	 test	 ah, 4
  000ae	74 10		 je	 SHORT $L277061
  000b0	6a 01		 push	 1
  000b2	68 00 04 00 00	 push	 1024			; 00000400H
  000b7	6a 40		 push	 64			; 00000040H
  000b9	8b cf		 mov	 ecx, edi
  000bb	e8 00 00 00 00	 call	 ?ResetDestParam@CMover@@QAEXHHH@Z ; CMover::ResetDestParam
$L277061:
  000c0	68 c1 00 00 00	 push	 193			; 000000c1H
  000c5	6a 01		 push	 1
  000c7	8b cf		 mov	 ecx, edi
  000c9	e8 00 00 00 00	 call	 ?RemoveBuff@CMover@@QAEXGG@Z ; CMover::RemoveBuff
$L277057:
  000ce	5e		 pop	 esi

; 2676 : #endif	// __WORLDSERVER
; 2677 : 	}
; 2678 : 
; 2679 : 	return bSuccess;

  000cf	8b c5		 mov	 eax, ebp
  000d1	5d		 pop	 ebp
  000d2	5b		 pop	 ebx
  000d3	5f		 pop	 edi

; 2680 : }

  000d4	c2 04 00	 ret	 4
?DoLoot@CMover@@QAEHPAVCItem@@@Z ENDP			; CMover::DoLoot
_TEXT	ENDS
PUBLIC	?OnAttackMelee_ClockWorks@CMover@@QAEXKPAV1@@Z	; CMover::OnAttackMelee_ClockWorks
; Function compile flags: /Ogty
;	COMDAT ?OnAttackMelee_ClockWorks@CMover@@QAEXKPAV1@@Z
_TEXT	SEGMENT
_vPos$269400 = -24					; size = 12
_vPos$269392 = -24					; size = 12
_vPos$269388 = -24					; size = 12
$T277067 = -12						; size = 12
_dwState$ = 8						; size = 4
_pHitObj$ = 12						; size = 4
?OnAttackMelee_ClockWorks@CMover@@QAEXKPAV1@@Z PROC NEAR ; CMover::OnAttackMelee_ClockWorks, COMDAT
; _this$ = ecx

; 943  : {

  00000	83 ec 18	 sub	 esp, 24			; 00000018H
  00003	53		 push	 ebx
  00004	56		 push	 esi
  00005	8b f1		 mov	 esi, ecx

; 944  : 	int		nItemID = GetActParam( 1 );	//   

  00007	8b 9e a8 12 00
	00		 mov	 ebx, DWORD PTR [esi+4776]
  0000d	57		 push	 edi

; 945  : 
; 946  : #ifdef __WORLDSERVER
; 947  : 	UpdateMatrix();		//         .

  0000e	e8 00 00 00 00	 call	 ?UpdateMatrix@CObj@@QAEXXZ ; CObj::UpdateMatrix

; 948  : 	CModelObject *pModel = (CModelObject *)m_pModel;

  00013	8b be 78 01 00
	00		 mov	 edi, DWORD PTR [esi+376]

; 949  : 	pModel->UpdateMatrixBone();		//     GetEventPos()      .

  00019	8b 87 8c 2a 00
	00		 mov	 eax, DWORD PTR [edi+10892]
  0001f	85 c0		 test	 eax, eax
  00021	74 3d		 je	 SHORT $L277075
  00023	8b 87 c4 00 00
	00		 mov	 eax, DWORD PTR [edi+196]
  00029	8b 8f c0 00 00
	00		 mov	 ecx, DWORD PTR [edi+192]
  0002f	8b 97 98 2a 00
	00		 mov	 edx, DWORD PTR [edi+10904]
  00035	50		 push	 eax
  00036	51		 push	 ecx
  00037	52		 push	 edx
  00038	8b cf		 mov	 ecx, edi
  0003a	e8 00 00 00 00	 call	 ?GetNextFrame@CModel@@QAEHXZ ; CModel::GetNextFrame
  0003f	8b 8f 88 2a 00
	00		 mov	 ecx, DWORD PTR [edi+10888]
  00045	8b 97 9c 2a 00
	00		 mov	 edx, DWORD PTR [edi+10908]
  0004b	50		 push	 eax
  0004c	8b 87 a0 00 00
	00		 mov	 eax, DWORD PTR [edi+160]
  00052	50		 push	 eax
  00053	51		 push	 ecx
  00054	8b 8f 8c 2a 00
	00		 mov	 ecx, DWORD PTR [edi+10892]
  0005a	52		 push	 edx
  0005b	e8 00 00 00 00	 call	 ?AnimateBone@CMotion@@QAEXPAUD3DXMATRIX@@PAV1@MHHHM@Z ; CMotion::AnimateBone
$L277075:

; 950  : #endif // WorldServer
; 951  : 	
; 952  : 	switch( dwState )

  00060	8b 44 24 28	 mov	 eax, DWORD PTR _dwState$[esp+32]
  00064	3d 00 00 01 00	 cmp	 eax, 65536		; 00010000H
  00069	0f 84 3f 01 00
	00		 je	 $L269387
  0006f	3d 00 00 02 00	 cmp	 eax, 131072		; 00020000H
  00074	0f 84 96 00 00
	00		 je	 $L269391
  0007a	3d 00 00 04 00	 cmp	 eax, 262144		; 00040000H
  0007f	0f 85 8f 01 00
	00		 jne	 $L269384

; 988  : #ifdef __CLIENT
; 989  : 				pSfx = CreateSfx( D3DDEVICE, XI_NPCSP1RANBALL, vPos, GetId(), pTarget->GetPos(), pTarget->GetId(), -1 );		// 
; 990  : 				if( pSfx )
; 991  : 				{
; 992  : 					pSfx->SetScale( D3DXVECTOR3(4.0f, 4.0f, 4.0f) );
; 993  : 					{
; 994  : 						FLOAT fAngXZ, fAngH;
; 995  : 						D3DXVECTOR3 vDist = pTarget->GetPos() - vPos;
; 996  : 						xGetDegree( &fAngXZ, &fAngH, vDist );		//  .
; 997  : 						((CSfxAtkStraight *)pSfx)->ShootSfx( fAngXZ, -fAngH, 2.0f, XI_NPCSP1RANBOOM );		//   .
; 998  : 					}
; 999  : 				}
; 1000 : #endif
; 1001 : 			}
; 1002 : 		}
; 1003 : 		break;
; 1004 : 	case OBJSTA_ATK3:
; 1005 : #ifdef __CLIENT
; 1006 : 		GetWorld()->m_pCamera->SetQuake( 30, 0.7f );
; 1007 : #endif
; 1008 : 		break;
; 1009 : 	case OBJSTA_ATK4:	//  .
; 1010 : 		{
; 1011 : 			D3DXVECTOR3 vPos;
; 1012 : 
; 1013 : 			vPos = GetPos();

  00085	8d 86 60 01 00
	00		 lea	 eax, DWORD PTR [esi+352]
  0008b	8b 08		 mov	 ecx, DWORD PTR [eax]
  0008d	8b 50 04	 mov	 edx, DWORD PTR [eax+4]
  00090	8b 40 08	 mov	 eax, DWORD PTR [eax+8]
  00093	89 44 24 14	 mov	 DWORD PTR _vPos$269400[esp+44], eax

; 1014 : 			DWORD dwFlag = AF_GENERIC;
; 1015 : 			if( xRandom(100) < 15 )

  00097	a1 00 00 00 00	 mov	 eax, DWORD PTR ?g_next@@3KA ; g_next
  0009c	69 c0 6d 4e c6
	41		 imul	 eax, 1103515245		; 41c64e6dH
  000a2	05 39 30 00 00	 add	 eax, 12345		; 00003039H
  000a7	89 54 24 10	 mov	 DWORD PTR _vPos$269400[esp+40], edx
  000ab	33 d2		 xor	 edx, edx
  000ad	bf 64 00 00 00	 mov	 edi, 100		; 00000064H
  000b2	a3 00 00 00 00	 mov	 DWORD PTR ?g_next@@3KA, eax ; g_next
  000b7	f7 f7		 div	 edi
  000b9	89 4c 24 0c	 mov	 DWORD PTR _vPos$269400[esp+36], ecx
  000bd	b9 01 00 00 00	 mov	 ecx, 1
  000c2	83 fa 0f	 cmp	 edx, 15			; 0000000fH
  000c5	73 05		 jae	 SHORT $L269404

; 1016 : 				dwFlag |= AF_FLYING;

  000c7	b9 01 00 00 10	 mov	 ecx, 268435457		; 10000001H
$L269404:

; 1017 : 			OnDamage( nItemID, dwState, NULL, &vPos, dwFlag );		//    .

  000cc	51		 push	 ecx
  000cd	8d 4c 24 10	 lea	 ecx, DWORD PTR _vPos$269400[esp+40]
  000d1	51		 push	 ecx
  000d2	6a 00		 push	 0
  000d4	68 00 00 04 00	 push	 262144			; 00040000H
  000d9	53		 push	 ebx
  000da	8b ce		 mov	 ecx, esi
  000dc	e8 00 00 00 00	 call	 ?OnDamage@CMover@@QAEHHKPAV1@PBUD3DXVECTOR3@@K@Z ; CMover::OnDamage

; 1018 : 
; 1019 : 			CModelObject *pModel = (CModelObject *)m_pModel;
; 1020 : 			pModel->GetEventPos( &vPos, 3 );

  000e1	8b 8e 78 01 00
	00		 mov	 ecx, DWORD PTR [esi+376]
  000e7	6a 03		 push	 3
  000e9	8d 54 24 10	 lea	 edx, DWORD PTR _vPos$269400[esp+40]
  000ed	52		 push	 edx
  000ee	e8 00 00 00 00	 call	 ?GetEventPos@CModelObject@@QAEXPAUD3DXVECTOR3@@H@Z ; CModelObject::GetEventPos

; 1021 : 			D3DXVec3TransformCoord( &vPos, &vPos, GetMatrixWorldPtr() );

  000f3	81 c6 e4 00 00
	00		 add	 esi, 228		; 000000e4H
  000f9	56		 push	 esi
  000fa	8d 44 24 10	 lea	 eax, DWORD PTR _vPos$269400[esp+40]
  000fe	50		 push	 eax
  000ff	8b c8		 mov	 ecx, eax
  00101	51		 push	 ecx
  00102	e8 00 00 00 00	 call	 _D3DXVec3TransformCoord@12
  00107	5f		 pop	 edi
  00108	5e		 pop	 esi
  00109	5b		 pop	 ebx

; 1022 : 
; 1023 : #ifdef __CLIENT
; 1024 : 			GetWorld()->m_pCamera->SetQuake( 60, 1.5f );
; 1025 : 
; 1026 : 			CSfx *pSfx = CreateSfx( D3DDEVICE, XI_NPCSP1DIRCIRCLE, vPos );
; 1027 : 			if( pSfx )
; 1028 : 				pSfx->SetScale( D3DXVECTOR3(2.0f, 2.0f, 2.0f) );
; 1029 : 			pModel->GetEventPos( &vPos, 4 );
; 1030 : 			D3DXVec3TransformCoord( &vPos, &vPos, GetMatrixWorldPtr() );
; 1031 : 
; 1032 : 			pSfx = CreateSfx( D3DDEVICE, XI_NPCSP1DIRCIRCLE, vPos );
; 1033 : 			if( pSfx )
; 1034 : 				pSfx->SetScale( D3DXVECTOR3(2.0f, 2.0f, 2.0f) );
; 1035 : #endif
; 1036 : 		}
; 1037 : 		break;
; 1038 : 	}
; 1039 : }

  0010a	83 c4 18	 add	 esp, 24			; 00000018H
  0010d	c2 08 00	 ret	 8
$L269391:

; 962  : #ifdef __CLIENT
; 963  : 			GetWorld()->m_pCamera->SetQuake( 15, 0.5f );
; 964  : 			CSfx *pSfx = CreateSfx( D3DDEVICE, XI_NPCSP1DIRFIRESP, vPos );	//   -   .
; 965  : 			if( pSfx )
; 966  : 				pSfx->SetAngle( -GetAngle() );
; 967  : #endif 
; 968  : 		}
; 969  : 		break;
; 970  : 	case OBJSTA_ATK2:		// 
; 971  : 		{
; 972  : 			D3DXVECTOR3 vPos;
; 973  : 			CModelObject *pModel = (CModelObject *)m_pModel;

  00110	8b 86 78 01 00
	00		 mov	 eax, DWORD PTR [esi+376]

; 974  : 			pModel->GetEventPos( &vPos, 1 );	//   .

  00116	8b 88 84 2a 00
	00		 mov	 ecx, DWORD PTR [eax+10884]
  0011c	85 c9		 test	 ecx, ecx
  0011e	74 2c		 je	 SHORT $L277092
  00120	8b 88 9c 2a 00
	00		 mov	 ecx, DWORD PTR [eax+10908]
  00126	85 c9		 test	 ecx, ecx
  00128	74 22		 je	 SHORT $L277092
  0012a	8b 80 84 2a 00
	00		 mov	 eax, DWORD PTR [eax+10884]
  00130	8b 90 c4 01 00
	00		 mov	 edx, DWORD PTR [eax+452]
  00136	c1 e2 06	 shl	 edx, 6
  00139	03 d1		 add	 edx, ecx
  0013b	52		 push	 edx
  0013c	05 6c 01 00 00	 add	 eax, 364		; 0000016cH
  00141	50		 push	 eax
  00142	8d 44 24 14	 lea	 eax, DWORD PTR _vPos$269392[esp+44]
  00146	50		 push	 eax
  00147	e8 00 00 00 00	 call	 _D3DXVec3TransformCoord@12
$L277092:

; 975  : 			D3DXVec3TransformCoord( &vPos, &vPos, GetMatrixWorldPtr() );

  0014c	8d 8e e4 00 00
	00		 lea	 ecx, DWORD PTR [esi+228]
  00152	51		 push	 ecx
  00153	8d 54 24 10	 lea	 edx, DWORD PTR _vPos$269392[esp+40]
  00157	52		 push	 edx
  00158	8b c2		 mov	 eax, edx
  0015a	50		 push	 eax
  0015b	e8 00 00 00 00	 call	 _D3DXVec3TransformCoord@12

; 976  : #ifdef __CLIENT
; 977  : 			CSfx *pSfx = CreateSfx( D3DDEVICE, XI_NPCSP1DIRCANNON, vPos, GetId() );	// .
; 978  : 			if( pSfx )
; 979  : 			{
; 980  : 				pSfx->SetAngle( -GetAngle() );
; 981  : 				pSfx->SetScale( D3DXVECTOR3(4.0f, 4.0f, 4.0f) );
; 982  : 			}
; 983  : #endif
; 984  : 			CMover *pTarget = pHitObj;
; 985  : 			if( IsValidObj(pTarget) )

  00160	8b 44 24 2c	 mov	 eax, DWORD PTR _pHitObj$[esp+32]
  00164	85 c0		 test	 eax, eax
  00166	0f 84 a8 00 00
	00		 je	 $L269384
  0016c	f6 40 04 01	 test	 BYTE PTR [eax+4], 1
  00170	0f 85 9e 00 00
	00		 jne	 $L269384

; 986  : 			{
; 987  : 				OnDamage( nItemID, dwState, NULL, &pTarget->GetPos() );		//     .

  00176	05 60 01 00 00	 add	 eax, 352		; 00000160H
  0017b	8b 08		 mov	 ecx, DWORD PTR [eax]
  0017d	8b 50 04	 mov	 edx, DWORD PTR [eax+4]
  00180	8b 40 08	 mov	 eax, DWORD PTR [eax+8]
  00183	6a 01		 push	 1
  00185	89 4c 24 1c	 mov	 DWORD PTR $T277067[esp+40], ecx
  00189	8d 4c 24 1c	 lea	 ecx, DWORD PTR $T277067[esp+40]
  0018d	51		 push	 ecx
  0018e	6a 00		 push	 0
  00190	68 00 00 02 00	 push	 131072			; 00020000H
  00195	8b ce		 mov	 ecx, esi
  00197	53		 push	 ebx
  00198	89 54 24 30	 mov	 DWORD PTR $T277067[esp+60], edx
  0019c	89 44 24 34	 mov	 DWORD PTR $T277067[esp+64], eax
  001a0	e8 00 00 00 00	 call	 ?OnDamage@CMover@@QAEHHKPAV1@PBUD3DXVECTOR3@@K@Z ; CMover::OnDamage
  001a5	5f		 pop	 edi
  001a6	5e		 pop	 esi
  001a7	5b		 pop	 ebx

; 1022 : 
; 1023 : #ifdef __CLIENT
; 1024 : 			GetWorld()->m_pCamera->SetQuake( 60, 1.5f );
; 1025 : 
; 1026 : 			CSfx *pSfx = CreateSfx( D3DDEVICE, XI_NPCSP1DIRCIRCLE, vPos );
; 1027 : 			if( pSfx )
; 1028 : 				pSfx->SetScale( D3DXVECTOR3(2.0f, 2.0f, 2.0f) );
; 1029 : 			pModel->GetEventPos( &vPos, 4 );
; 1030 : 			D3DXVec3TransformCoord( &vPos, &vPos, GetMatrixWorldPtr() );
; 1031 : 
; 1032 : 			pSfx = CreateSfx( D3DDEVICE, XI_NPCSP1DIRCIRCLE, vPos );
; 1033 : 			if( pSfx )
; 1034 : 				pSfx->SetScale( D3DXVECTOR3(2.0f, 2.0f, 2.0f) );
; 1035 : #endif
; 1036 : 		}
; 1037 : 		break;
; 1038 : 	}
; 1039 : }

  001a8	83 c4 18	 add	 esp, 24			; 00000018H
  001ab	c2 08 00	 ret	 8
$L269387:

; 953  : 	{
; 954  : 	case OBJSTA_ATK1:		//  
; 955  : 		{
; 956  : 			D3DXVECTOR3 vPos;
; 957  : 			CModelObject *pModel = (CModelObject *)m_pModel;

  001ae	8b 86 78 01 00
	00		 mov	 eax, DWORD PTR [esi+376]

; 958  : 			pModel->GetEventPos( &vPos, 0 );

  001b4	8b 88 84 2a 00
	00		 mov	 ecx, DWORD PTR [eax+10884]
  001ba	85 c9		 test	 ecx, ecx
  001bc	74 2c		 je	 SHORT $L277081
  001be	8b 88 9c 2a 00
	00		 mov	 ecx, DWORD PTR [eax+10908]
  001c4	85 c9		 test	 ecx, ecx
  001c6	74 22		 je	 SHORT $L277081
  001c8	8b 80 84 2a 00
	00		 mov	 eax, DWORD PTR [eax+10884]
  001ce	8b 90 c0 01 00
	00		 mov	 edx, DWORD PTR [eax+448]
  001d4	c1 e2 06	 shl	 edx, 6
  001d7	03 d1		 add	 edx, ecx
  001d9	52		 push	 edx
  001da	05 60 01 00 00	 add	 eax, 352		; 00000160H
  001df	50		 push	 eax
  001e0	8d 44 24 14	 lea	 eax, DWORD PTR _vPos$269388[esp+44]
  001e4	50		 push	 eax
  001e5	e8 00 00 00 00	 call	 _D3DXVec3TransformCoord@12
$L277081:

; 959  : 			D3DXVec3TransformCoord( &vPos, &vPos, GetMatrixWorldPtr() );

  001ea	8d 8e e4 00 00
	00		 lea	 ecx, DWORD PTR [esi+228]
  001f0	51		 push	 ecx
  001f1	8d 54 24 10	 lea	 edx, DWORD PTR _vPos$269388[esp+40]
  001f5	52		 push	 edx
  001f6	8b c2		 mov	 eax, edx
  001f8	50		 push	 eax
  001f9	e8 00 00 00 00	 call	 _D3DXVec3TransformCoord@12

; 960  : 
; 961  : 			OnDamage( nItemID, dwState, NULL, &vPos );		//     

  001fe	6a 01		 push	 1
  00200	8d 4c 24 10	 lea	 ecx, DWORD PTR _vPos$269388[esp+40]
  00204	51		 push	 ecx
  00205	6a 00		 push	 0
  00207	68 00 00 01 00	 push	 65536			; 00010000H
  0020c	8b ce		 mov	 ecx, esi
  0020e	53		 push	 ebx
  0020f	e8 00 00 00 00	 call	 ?OnDamage@CMover@@QAEHHKPAV1@PBUD3DXVECTOR3@@K@Z ; CMover::OnDamage
$L269384:
  00214	5f		 pop	 edi
  00215	5e		 pop	 esi
  00216	5b		 pop	 ebx

; 1022 : 
; 1023 : #ifdef __CLIENT
; 1024 : 			GetWorld()->m_pCamera->SetQuake( 60, 1.5f );
; 1025 : 
; 1026 : 			CSfx *pSfx = CreateSfx( D3DDEVICE, XI_NPCSP1DIRCIRCLE, vPos );
; 1027 : 			if( pSfx )
; 1028 : 				pSfx->SetScale( D3DXVECTOR3(2.0f, 2.0f, 2.0f) );
; 1029 : 			pModel->GetEventPos( &vPos, 4 );
; 1030 : 			D3DXVec3TransformCoord( &vPos, &vPos, GetMatrixWorldPtr() );
; 1031 : 
; 1032 : 			pSfx = CreateSfx( D3DDEVICE, XI_NPCSP1DIRCIRCLE, vPos );
; 1033 : 			if( pSfx )
; 1034 : 				pSfx->SetScale( D3DXVECTOR3(2.0f, 2.0f, 2.0f) );
; 1035 : #endif
; 1036 : 		}
; 1037 : 		break;
; 1038 : 	}
; 1039 : }

  00217	83 c4 18	 add	 esp, 24			; 00000018H
  0021a	c2 08 00	 ret	 8
?OnAttackMelee_ClockWorks@CMover@@QAEXKPAV1@@Z ENDP	; CMover::OnAttackMelee_ClockWorks
_TEXT	ENDS
PUBLIC	??_C@_0BI@NKGAIBCK@OnAttackMelee_BigMuscle?$AA@	; `string'
PUBLIC	?OnAttackMelee_BigMuscle@CMover@@QAEXKPAV1@@Z	; CMover::OnAttackMelee_BigMuscle
EXTRN	?ApplySkillAround@CCtrl@@QAEXPAV1@HPAUItemProp@@PAUAddSkillProp@@_NHMH@Z:NEAR ; CCtrl::ApplySkillAround
EXTRN	_D3DXMatrixMultiply@12:NEAR
;	COMDAT ?v3OldPos@?BD@??OnAttackMelee_BigMuscle@CMover@@QAEXKPAV2@@Z@4UD3DXVECTOR3@@A
; File c:\documents and settings\test\mes documents\source\virtuos_v17\build\program\_common\obj.h
_BSS	SEGMENT
?v3OldPos@?BD@??OnAttackMelee_BigMuscle@CMover@@QAEXKPAV2@@Z@4UD3DXVECTOR3@@A DB 0cH DUP (?) ; `CMover::OnAttackMelee_BigMuscle'::`19'::v3OldPos
_BSS	ENDS
;	COMDAT ?$S1@?BD@??OnAttackMelee_BigMuscle@CMover@@QAEXKPAV2@@Z@4IA
_BSS	SEGMENT
?$S1@?BD@??OnAttackMelee_BigMuscle@CMover@@QAEXKPAV2@@Z@4IA DD 01H DUP (?) ; `CMover::OnAttackMelee_BigMuscle'::`19'::$S1
_BSS	ENDS
;	COMDAT ??_C@_0BI@NKGAIBCK@OnAttackMelee_BigMuscle?$AA@
CONST	SEGMENT
??_C@_0BI@NKGAIBCK@OnAttackMelee_BigMuscle?$AA@ DB 'OnAttackMelee_BigMusc'
	DB	'le', 00H					; `string'
; Function compile flags: /Ogty
; File c:\documents and settings\test\mes documents\source\virtuos_v17\build\program\_common\moveractevent.cpp
CONST	ENDS
;	COMDAT ?OnAttackMelee_BigMuscle@CMover@@QAEXKPAV1@@Z
_TEXT	SEGMENT
_pAddSkillProp$269456 = -276				; size = 4
_pAddSkillProp$269439 = -276				; size = 4
_pSkillProp$269432 = -276				; size = 4
_pSkillProp$269455 = -272				; size = 4
_pSkillProp$269438 = -272				; size = 4
_pAddSkillProp$269433 = -272				; size = 4
$T277137 = -268						; size = 12
_mMatrix$269452 = -256					; size = 64
_mMatrix$269423 = -256					; size = 64
$T277135 = -192						; size = 64
$T277136 = -128						; size = 64
$T277139 = -64						; size = 64
_dwState$ = 8						; size = 4
_pHitObj$ = 12						; size = 4
?OnAttackMelee_BigMuscle@CMover@@QAEXKPAV1@@Z PROC NEAR	; CMover::OnAttackMelee_BigMuscle, COMDAT
; _this$ = ecx

; 1042 : {

  00000	81 ec 14 01 00
	00		 sub	 esp, 276		; 00000114H
  00006	53		 push	 ebx
  00007	55		 push	 ebp
  00008	56		 push	 esi
  00009	8b d9		 mov	 ebx, ecx

; 1043 : 	int		nItemID = GetActParam( 1 );	//   

  0000b	8b b3 a8 12 00
	00		 mov	 esi, DWORD PTR [ebx+4776]

; 1044 : 	CModelObject *pModel = (CModelObject *)m_pModel;

  00011	8b ab 78 01 00
	00		 mov	 ebp, DWORD PTR [ebx+376]
  00017	57		 push	 edi

; 1045 : 	
; 1046 : #ifdef __WORLDSERVER
; 1047 : 	UpdateMatrix();		//         .

  00018	e8 00 00 00 00	 call	 ?UpdateMatrix@CObj@@QAEXXZ ; CObj::UpdateMatrix

; 1048 : 	pModel->UpdateMatrixBone();		//     GetEventPos()      .

  0001d	8b 85 8c 2a 00
	00		 mov	 eax, DWORD PTR [ebp+10892]
  00023	85 c0		 test	 eax, eax
  00025	74 3d		 je	 SHORT $L277148
  00027	8b 85 c4 00 00
	00		 mov	 eax, DWORD PTR [ebp+196]
  0002d	8b 8d c0 00 00
	00		 mov	 ecx, DWORD PTR [ebp+192]
  00033	8b 95 98 2a 00
	00		 mov	 edx, DWORD PTR [ebp+10904]
  00039	50		 push	 eax
  0003a	51		 push	 ecx
  0003b	52		 push	 edx
  0003c	8b cd		 mov	 ecx, ebp
  0003e	e8 00 00 00 00	 call	 ?GetNextFrame@CModel@@QAEHXZ ; CModel::GetNextFrame
  00043	8b 8d 88 2a 00
	00		 mov	 ecx, DWORD PTR [ebp+10888]
  00049	8b 95 9c 2a 00
	00		 mov	 edx, DWORD PTR [ebp+10908]
  0004f	50		 push	 eax
  00050	8b 85 a0 00 00
	00		 mov	 eax, DWORD PTR [ebp+160]
  00056	50		 push	 eax
  00057	51		 push	 ecx
  00058	8b 8d 8c 2a 00
	00		 mov	 ecx, DWORD PTR [ebp+10892]
  0005e	52		 push	 edx
  0005f	e8 00 00 00 00	 call	 ?AnimateBone@CMotion@@QAEXPAUD3DXMATRIX@@PAV1@MHHHM@Z ; CMotion::AnimateBone
$L277148:

; 1049 : #endif // WorldServer
; 1050 : 	
; 1051 : 	switch( dwState )

  00064	8b 84 24 28 01
	00 00		 mov	 eax, DWORD PTR _dwState$[esp+288]
  0006b	3d 00 00 03 00	 cmp	 eax, 196608		; 00030000H
  00070	0f 87 ba 01 00
	00		 ja	 $L277140
  00076	74 46		 je	 SHORT $L269422
  00078	3d 00 00 01 00	 cmp	 eax, 65536		; 00010000H
  0007d	74 0b		 je	 SHORT $L269420
  0007f	3d 00 00 02 00	 cmp	 eax, 131072		; 00020000H
  00084	0f 85 a1 02 00
	00		 jne	 $L269451
$L269420:

; 1052 : 	{
; 1053 : 	case OBJSTA_ATK1:	
; 1054 : 	case OBJSTA_ATK2:
; 1055 : 		{
; 1056 : 			if( IsValidObj(pHitObj) )

  0008a	8b 8c 24 2c 01
	00 00		 mov	 ecx, DWORD PTR _pHitObj$[esp+288]
  00091	85 c9		 test	 ecx, ecx
  00093	0f 84 92 02 00
	00		 je	 $L269451
  00099	f6 41 04 01	 test	 BYTE PTR [ecx+4], 1
  0009d	0f 85 88 02 00
	00		 jne	 $L269451

; 1057 : 			{
; 1058 : 				OnDamage( nItemID, dwState, pHitObj );		

  000a3	6a 01		 push	 1
  000a5	6a 00		 push	 0
  000a7	51		 push	 ecx
  000a8	50		 push	 eax
  000a9	56		 push	 esi
  000aa	8b cb		 mov	 ecx, ebx
  000ac	e8 00 00 00 00	 call	 ?OnDamage@CMover@@QAEHHKPAV1@PBUD3DXVECTOR3@@K@Z ; CMover::OnDamage
  000b1	5f		 pop	 edi
  000b2	5e		 pop	 esi
  000b3	5d		 pop	 ebp
  000b4	5b		 pop	 ebx

; 1169 : 			#endif //__WORLDSERVER
; 1170 : 				
; 1171 : 					
; 1172 : 			}
; 1173 : 		}
; 1174 : 		
; 1175 : 		break;
; 1176 : 	}
; 1177 : }

  000b5	81 c4 14 01 00
	00		 add	 esp, 276		; 00000114H
  000bb	c2 08 00	 ret	 8
$L269422:

; 1059 : 			}
; 1060 : 		}
; 1061 : 		break;
; 1062 : 	case OBJSTA_ATK3:		//   - 
; 1063 : 		{
; 1064 : 			D3DXMATRIX mMatrix;
; 1065 : 			
; 1066 : 			D3DXMatrixMultiply( &mMatrix, (pModel->GetMatrixBone(12)), &(GetMatrixWorld()) );

  000be	8b 85 84 2a 00
	00		 mov	 eax, DWORD PTR [ebp+10884]
  000c4	85 c0		 test	 eax, eax
  000c6	8d b3 e4 00 00
	00		 lea	 esi, DWORD PTR [ebx+228]
  000cc	b9 10 00 00 00	 mov	 ecx, 16			; 00000010H
  000d1	8d 7c 24 64	 lea	 edi, DWORD PTR $T277135[esp+292]
  000d5	f3 a5		 rep movsd
  000d7	75 04		 jne	 SHORT $L277170
  000d9	33 c0		 xor	 eax, eax
  000db	eb 0f		 jmp	 SHORT $L277169
$L277170:
  000dd	8b 85 9c 2a 00
	00		 mov	 eax, DWORD PTR [ebp+10908]
  000e3	85 c0		 test	 eax, eax
  000e5	74 05		 je	 SHORT $L277169
$L277171:
  000e7	05 00 03 00 00	 add	 eax, 768		; 00000300H
$L277169:
  000ec	8d 4c 24 64	 lea	 ecx, DWORD PTR $T277135[esp+292]
  000f0	51		 push	 ecx
  000f1	50		 push	 eax
  000f2	8d 54 24 2c	 lea	 edx, DWORD PTR _mMatrix$269423[esp+300]
  000f6	52		 push	 edx
  000f7	e8 00 00 00 00	 call	 _D3DXMatrixMultiply@12

; 1067 : 			
; 1068 : 			D3DXVECTOR3 v2;
; 1069 : 			v2.x = mMatrix._41;
; 1070 : 			v2.y = mMatrix._42;
; 1071 : 			v2.z = mMatrix._43;
; 1072 : 			v2.y -= 5.0f;
; 1073 : 			
; 1074 : 		#ifdef __CLIENT
; 1075 : 			//    
; 1076 : 			CSfx *pSfx = CreateSfx( D3DDEVICE, XI_SKILL_CIRCLE_DUST, v2 );			
; 1077 : 			if( pSfx )
; 1078 : 				pSfx->SetScale( D3DXVECTOR3( 12.0f, 12.0f, 12.0f ) );
; 1079 : 
; 1080 : 			PLAYSND( SND_PC_SKILLD_HITOFPENYA );//, &v2 );
; 1081 : 		#endif //__CLIENT 			
; 1082 : 			
; 1083 : 			D3DXMatrixMultiply( &mMatrix, (pModel->GetMatrixBone(16)), &(GetMatrixWorld()) );

  000fc	8b 85 84 2a 00
	00		 mov	 eax, DWORD PTR [ebp+10884]
  00102	85 c0		 test	 eax, eax
  00104	b9 10 00 00 00	 mov	 ecx, 16			; 00000010H
  00109	8d b3 e4 00 00
	00		 lea	 esi, DWORD PTR [ebx+228]
  0010f	8d bc 24 a4 00
	00 00		 lea	 edi, DWORD PTR $T277136[esp+292]
  00116	f3 a5		 rep movsd
  00118	75 04		 jne	 SHORT $L277182
  0011a	33 c0		 xor	 eax, eax
  0011c	eb 14		 jmp	 SHORT $L277181
$L277182:
  0011e	8b ad 9c 2a 00
	00		 mov	 ebp, DWORD PTR [ebp+10908]
  00124	85 ed		 test	 ebp, ebp
  00126	75 04		 jne	 SHORT $L277183
  00128	33 c0		 xor	 eax, eax
  0012a	eb 06		 jmp	 SHORT $L277181
$L277183:
  0012c	8d 85 00 04 00
	00		 lea	 eax, DWORD PTR [ebp+1024]
$L277181:
  00132	8d 8c 24 a4 00
	00 00		 lea	 ecx, DWORD PTR $T277136[esp+292]
  00139	51		 push	 ecx
  0013a	50		 push	 eax
  0013b	8d 54 24 2c	 lea	 edx, DWORD PTR _mMatrix$269423[esp+300]
  0013f	52		 push	 edx
  00140	e8 00 00 00 00	 call	 _D3DXMatrixMultiply@12

; 1084 : 			D3DXVECTOR3 v3;
; 1085 : 			v3.x = mMatrix._41;
; 1086 : 			v3.y = mMatrix._42;
; 1087 : 			v3.z = mMatrix._43;						
; 1088 : 			v3.y -= 5.0f;
; 1089 : 			
; 1090 : 		#ifdef __CLIENT
; 1091 : 			//    
; 1092 : 			pSfx = CreateSfx( D3DDEVICE, XI_SKILL_CIRCLE_DUST, v3 );			
; 1093 : 			if( pSfx )
; 1094 : 				pSfx->SetScale( D3DXVECTOR3( 12.0f, 12.0f, 12.0f ) );
; 1095 : 		#endif //__CLIENT 			
; 1096 : 		
; 1097 : 			if( m_pActMover->m_nMotionHitCount == 1 )

  00145	8b 83 3c 02 00
	00		 mov	 eax, DWORD PTR [ebx+572]
  0014b	83 b8 9c 00 00
	00 01		 cmp	 DWORD PTR [eax+156], 1
  00152	0f 85 8a 00 00
	00		 jne	 $L269428

; 1098 : 			{				
; 1099 : 	#ifdef __WORLDSERVER
; 1100 : 				GetWorld()->SendDamageAround( &GetPos(), (AF_GENERIC | AF_CRITICAL) , this, OBJTYPE_PLAYER, II_WEA_MOB_MONSTER4_ATK2
; 1101 : 					, 16.0f );					

  00158	68 00 00 80 41	 push	 1098907648		; 41800000H
  0015d	68 2e 24 00 00	 push	 9262			; 0000242eH
  00162	8d 8b 60 01 00
	00		 lea	 ecx, DWORD PTR [ebx+352]
  00168	8b 11		 mov	 edx, DWORD PTR [ecx]
  0016a	8b 41 04	 mov	 eax, DWORD PTR [ecx+4]
  0016d	8b 49 08	 mov	 ecx, DWORD PTR [ecx+8]
  00170	6a 01		 push	 1
  00172	53		 push	 ebx
  00173	89 54 24 28	 mov	 DWORD PTR $T277137[esp+308], edx
  00177	68 c1 00 00 00	 push	 193			; 000000c1H
  0017c	8d 54 24 2c	 lea	 edx, DWORD PTR $T277137[esp+312]
  00180	89 4c 24 34	 mov	 DWORD PTR $T277137[esp+320], ecx
  00184	8b 8b 6c 01 00
	00		 mov	 ecx, DWORD PTR [ebx+364]
  0018a	52		 push	 edx
  0018b	89 44 24 34	 mov	 DWORD PTR $T277137[esp+320], eax
  0018f	e8 00 00 00 00	 call	 ?SendDamageAround@CWorld@@QAEXPBUD3DXVECTOR3@@HPAVCMover@@HHM@Z ; CWorld::SendDamageAround

; 1102 : 
; 1103 : 				ItemProp *pSkillProp;
; 1104 : 				AddSkillProp *pAddSkillProp;
; 1105 : 				BOOL bSuccess = GetSkillProp( &pSkillProp, &pAddSkillProp, SI_GEN_BLEEDING, 10, "OnAttackMelee_BigMuscle" );

  00194	8b 03		 mov	 eax, DWORD PTR [ebx]
  00196	68 00 00 00 00	 push	 OFFSET FLAT:??_C@_0BI@NKGAIBCK@OnAttackMelee_BigMuscle?$AA@
  0019b	6a 0a		 push	 10			; 0000000aH
  0019d	68 e4 00 00 00	 push	 228			; 000000e4H
  001a2	8d 4c 24 20	 lea	 ecx, DWORD PTR _pAddSkillProp$269433[esp+304]
  001a6	51		 push	 ecx
  001a7	8d 54 24 20	 lea	 edx, DWORD PTR _pSkillProp$269432[esp+308]
  001ab	52		 push	 edx
  001ac	8b cb		 mov	 ecx, ebx
  001ae	ff 50 30	 call	 DWORD PTR [eax+48]

; 1106 : 				if( bSuccess )

  001b1	85 c0		 test	 eax, eax
  001b3	0f 84 72 01 00
	00		 je	 $L269451

; 1107 : 					ApplySkillAround( this, OBJTYPE_PLAYER, pSkillProp, pAddSkillProp , false );							

  001b9	8b 44 24 14	 mov	 eax, DWORD PTR _pAddSkillProp$269433[esp+292]
  001bd	8b 4c 24 10	 mov	 ecx, DWORD PTR _pSkillProp$269432[esp+292]
  001c1	6a 00		 push	 0
  001c3	6a 00		 push	 0
  001c5	6a 00		 push	 0
  001c7	6a 00		 push	 0
  001c9	50		 push	 eax
  001ca	51		 push	 ecx
  001cb	6a 01		 push	 1
  001cd	53		 push	 ebx
  001ce	8b cb		 mov	 ecx, ebx
  001d0	e8 00 00 00 00	 call	 ?ApplySkillAround@CCtrl@@QAEXPAV1@HPAUItemProp@@PAUAddSkillProp@@_NHMH@Z ; CCtrl::ApplySkillAround
  001d5	5f		 pop	 edi
  001d6	5e		 pop	 esi
  001d7	5d		 pop	 ebp
  001d8	5b		 pop	 ebx

; 1169 : 			#endif //__WORLDSERVER
; 1170 : 				
; 1171 : 					
; 1172 : 			}
; 1173 : 		}
; 1174 : 		
; 1175 : 		break;
; 1176 : 	}
; 1177 : }

  001d9	81 c4 14 01 00
	00		 add	 esp, 276		; 00000114H
  001df	c2 08 00	 ret	 8
$L269428:

; 1108 : 	#endif //__WORLDSERVER
; 1109 : 				
; 1110 : 			}
; 1111 : 			else
; 1112 : 			{
; 1113 : 	#ifdef __CLIENT
; 1114 : 				PLAYSND( SND_PC_BOSS_STUN );
; 1115 : 	#endif //__CLIENT
; 1116 : 	#ifdef __WORLDSERVER				
; 1117 : 				ItemProp *pSkillProp;
; 1118 : 				AddSkillProp *pAddSkillProp;
; 1119 : 				BOOL bSuccess = GetSkillProp( &pSkillProp, &pAddSkillProp, SI_BIGMUSCLE_STUNGROUP, 1, "OnAttackMelee_BigMuscle" );

  001e2	8b 13		 mov	 edx, DWORD PTR [ebx]
  001e4	68 00 00 00 00	 push	 OFFSET FLAT:??_C@_0BI@NKGAIBCK@OnAttackMelee_BigMuscle?$AA@
  001e9	6a 01		 push	 1
  001eb	68 2c 01 00 00	 push	 300			; 0000012cH
  001f0	8d 44 24 1c	 lea	 eax, DWORD PTR _pAddSkillProp$269439[esp+304]
  001f4	50		 push	 eax
  001f5	8d 4c 24 24	 lea	 ecx, DWORD PTR _pSkillProp$269438[esp+308]
  001f9	51		 push	 ecx
  001fa	8b cb		 mov	 ecx, ebx
  001fc	ff 52 30	 call	 DWORD PTR [edx+48]

; 1120 : 				if( bSuccess )

  001ff	85 c0		 test	 eax, eax
  00201	0f 84 24 01 00
	00		 je	 $L269451

; 1121 : 					ApplySkillAround( this, OBJTYPE_PLAYER, pSkillProp, pAddSkillProp , false );							

  00207	8b 54 24 10	 mov	 edx, DWORD PTR _pAddSkillProp$269439[esp+292]
  0020b	8b 44 24 14	 mov	 eax, DWORD PTR _pSkillProp$269438[esp+292]
  0020f	6a 00		 push	 0
  00211	6a 00		 push	 0
  00213	6a 00		 push	 0
  00215	6a 00		 push	 0
  00217	52		 push	 edx
  00218	50		 push	 eax
  00219	6a 01		 push	 1
  0021b	53		 push	 ebx
  0021c	8b cb		 mov	 ecx, ebx
  0021e	e8 00 00 00 00	 call	 ?ApplySkillAround@CCtrl@@QAEXPAV1@HPAUItemProp@@PAUAddSkillProp@@_NHMH@Z ; CCtrl::ApplySkillAround
  00223	5f		 pop	 edi
  00224	5e		 pop	 esi
  00225	5d		 pop	 ebp
  00226	5b		 pop	 ebx

; 1169 : 			#endif //__WORLDSERVER
; 1170 : 				
; 1171 : 					
; 1172 : 			}
; 1173 : 		}
; 1174 : 		
; 1175 : 		break;
; 1176 : 	}
; 1177 : }

  00227	81 c4 14 01 00
	00		 add	 esp, 276		; 00000114H
  0022d	c2 08 00	 ret	 8
$L277140:

; 1049 : #endif // WorldServer
; 1050 : 	
; 1051 : 	switch( dwState )

  00230	3d 00 00 04 00	 cmp	 eax, 262144		; 00040000H
  00235	0f 85 f0 00 00
	00		 jne	 $L269451

; 1122 : 	#endif //__WORLDSERVER
; 1123 : 			}
; 1124 : 		}
; 1125 : 		break;
; 1126 : 	case OBJSTA_ATK4:   //   - 
; 1127 : 		{
; 1128 : 			static D3DXVECTOR3 v3OldPos;

  0023b	f6 05 00 00 00
	00 01		 test	 BYTE PTR ?$S1@?BD@??OnAttackMelee_BigMuscle@CMover@@QAEXKPAV2@@Z@4IA, 1
  00242	75 07		 jne	 SHORT $L277215
  00244	83 0d 00 00 00
	00 01		 or	 DWORD PTR ?$S1@?BD@??OnAttackMelee_BigMuscle@CMover@@QAEXKPAV2@@Z@4IA, 1
$L277215:

; 1129 : 
; 1130 : 			if( m_pActMover->m_nMotionHitCount == 0 )

  0024b	8b 8b 3c 02 00
	00		 mov	 ecx, DWORD PTR [ebx+572]
  00251	8b 81 9c 00 00
	00		 mov	 eax, DWORD PTR [ecx+156]
  00257	85 c0		 test	 eax, eax
  00259	75 33		 jne	 SHORT $L269448

; 1131 : 			{
; 1132 : 				v3OldPos = pHitObj->GetPos();			

  0025b	8b 94 24 2c 01
	00 00		 mov	 edx, DWORD PTR _pHitObj$[esp+288]
  00262	81 c2 60 01 00
	00		 add	 edx, 352		; 00000160H
  00268	8b 02		 mov	 eax, DWORD PTR [edx]
  0026a	5f		 pop	 edi
  0026b	a3 00 00 00 00	 mov	 DWORD PTR ?v3OldPos@?BD@??OnAttackMelee_BigMuscle@CMover@@QAEXKPAV2@@Z@4UD3DXVECTOR3@@A, eax
  00270	8b 4a 04	 mov	 ecx, DWORD PTR [edx+4]
  00273	5e		 pop	 esi
  00274	89 0d 04 00 00
	00		 mov	 DWORD PTR ?v3OldPos@?BD@??OnAttackMelee_BigMuscle@CMover@@QAEXKPAV2@@Z@4UD3DXVECTOR3@@A+4, ecx
  0027a	8b 52 08	 mov	 edx, DWORD PTR [edx+8]
  0027d	5d		 pop	 ebp
  0027e	89 15 08 00 00
	00		 mov	 DWORD PTR ?v3OldPos@?BD@??OnAttackMelee_BigMuscle@CMover@@QAEXKPAV2@@Z@4UD3DXVECTOR3@@A+8, edx
  00284	5b		 pop	 ebx

; 1169 : 			#endif //__WORLDSERVER
; 1170 : 				
; 1171 : 					
; 1172 : 			}
; 1173 : 		}
; 1174 : 		
; 1175 : 		break;
; 1176 : 	}
; 1177 : }

  00285	81 c4 14 01 00
	00		 add	 esp, 276		; 00000114H
  0028b	c2 08 00	 ret	 8
$L269448:

; 1133 : 			}
; 1134 : 			else
; 1135 : 			if( m_pActMover->m_nMotionHitCount == 1 )

  0028e	83 f8 01	 cmp	 eax, 1
  00291	0f 85 94 00 00
	00		 jne	 $L269451

; 1136 : 			{
; 1137 : 				D3DXMATRIX mMatrix;
; 1138 : 				
; 1139 : 				D3DXMatrixMultiply( &mMatrix, (pModel->GetMatrixBone(12)), &(GetMatrixWorld()) );

  00297	8d 84 24 e4 00
	00 00		 lea	 eax, DWORD PTR $T277139[esp+292]
  0029e	8d b3 e4 00 00
	00		 lea	 esi, DWORD PTR [ebx+228]
  002a4	b9 10 00 00 00	 mov	 ecx, 16			; 00000010H
  002a9	8d bc 24 e4 00
	00 00		 lea	 edi, DWORD PTR $T277139[esp+292]
  002b0	50		 push	 eax
  002b1	f3 a5		 rep movsd
  002b3	6a 0c		 push	 12			; 0000000cH
  002b5	8b cd		 mov	 ecx, ebp
  002b7	e8 00 00 00 00	 call	 ?GetMatrixBone@CModelObject@@QAEPAUD3DXMATRIX@@H@Z ; CModelObject::GetMatrixBone
  002bc	50		 push	 eax
  002bd	8d 4c 24 2c	 lea	 ecx, DWORD PTR _mMatrix$269452[esp+300]
  002c1	51		 push	 ecx
  002c2	e8 00 00 00 00	 call	 _D3DXMatrixMultiply@12

; 1140 : 				
; 1141 : 				D3DXVECTOR3 v2;
; 1142 : 				v2.x = mMatrix._41;
; 1143 : 				v2.y = mMatrix._42;
; 1144 : 				v2.z = mMatrix._43;
; 1145 : 				v2.y -= 5.0f;
; 1146 : 				
; 1147 : 			#ifdef __CLIENT
; 1148 : 				//    
; 1149 : 				CSfx *pSfx = CreateSfx( D3DDEVICE, XI_SKILL_CIRCLE_DUST, v2 );
; 1150 : 				if( pSfx )
; 1151 : 					pSfx->SetScale( D3DXVECTOR3( 9.0f, 9.0f, 9.0f ) );
; 1152 : 				
; 1153 : 				pSfx = CreateSfx( D3DDEVICE, XI_SKILL_MAG_EARTH_ROCKCRASH01, v3OldPos );
; 1154 : 				if( pSfx )
; 1155 : 					pSfx->SetScale( D3DXVECTOR3( 2.0f, 2.0f, 2.0f ) );
; 1156 : 				
; 1157 : 				PLAYSND( SND_PC_SKILLD_HITOFPENYA );
; 1158 : 			#endif //__CLIENT
; 1159 : 
; 1160 : 			#ifdef __WORLDSERVER
; 1161 : 				ItemProp *pSkillProp;
; 1162 : 				AddSkillProp *pAddSkillProp;
; 1163 : 				BOOL bSuccess = GetSkillProp( &pSkillProp, &pAddSkillProp, SI_GEN_BLEEDING, 10, "OnAttackMelee_BigMuscle" );

  002c7	8b 13		 mov	 edx, DWORD PTR [ebx]
  002c9	68 00 00 00 00	 push	 OFFSET FLAT:??_C@_0BI@NKGAIBCK@OnAttackMelee_BigMuscle?$AA@
  002ce	6a 0a		 push	 10			; 0000000aH
  002d0	68 e4 00 00 00	 push	 228			; 000000e4H
  002d5	8d 44 24 1c	 lea	 eax, DWORD PTR _pAddSkillProp$269456[esp+304]
  002d9	50		 push	 eax
  002da	8d 4c 24 24	 lea	 ecx, DWORD PTR _pSkillProp$269455[esp+308]
  002de	51		 push	 ecx
  002df	8b cb		 mov	 ecx, ebx
  002e1	ff 52 30	 call	 DWORD PTR [edx+48]

; 1164 : 				if( bSuccess )

  002e4	85 c0		 test	 eax, eax
  002e6	74 21		 je	 SHORT $L269458

; 1165 : 					DoApplySkill( pHitObj, pSkillProp, pAddSkillProp );	

  002e8	8b 54 24 10	 mov	 edx, DWORD PTR _pAddSkillProp$269456[esp+292]
  002ec	8b 44 24 14	 mov	 eax, DWORD PTR _pSkillProp$269455[esp+292]
  002f0	8b 8c 24 2c 01
	00 00		 mov	 ecx, DWORD PTR _pHitObj$[esp+288]
  002f7	6a 00		 push	 0
  002f9	6a 00		 push	 0
  002fb	6a 00		 push	 0
  002fd	6a 00		 push	 0
  002ff	52		 push	 edx
  00300	50		 push	 eax
  00301	51		 push	 ecx
  00302	8b cb		 mov	 ecx, ebx
  00304	e8 00 00 00 00	 call	 ?DoApplySkill@CCtrl@@QAEHPAV1@PAUItemProp@@PAUAddSkillProp@@_NHHH@Z ; CCtrl::DoApplySkill
$L269458:

; 1166 : 				
; 1167 : 				GetWorld()->SendDamageAround( &(v3OldPos), AF_GENERIC | AF_CRITICAL , this, OBJTYPE_PLAYER, II_WEA_MOB_MONSTER4_ATK2
; 1168 : 					, 4.0f );	

  00309	8b 8b 6c 01 00
	00		 mov	 ecx, DWORD PTR [ebx+364]
  0030f	68 00 00 80 40	 push	 1082130432		; 40800000H
  00314	68 2e 24 00 00	 push	 9262			; 0000242eH
  00319	6a 01		 push	 1
  0031b	53		 push	 ebx
  0031c	68 c1 00 00 00	 push	 193			; 000000c1H
  00321	68 00 00 00 00	 push	 OFFSET FLAT:?v3OldPos@?BD@??OnAttackMelee_BigMuscle@CMover@@QAEXKPAV2@@Z@4UD3DXVECTOR3@@A
  00326	e8 00 00 00 00	 call	 ?SendDamageAround@CWorld@@QAEXPBUD3DXVECTOR3@@HPAVCMover@@HHM@Z ; CWorld::SendDamageAround
$L269451:
  0032b	5f		 pop	 edi
  0032c	5e		 pop	 esi
  0032d	5d		 pop	 ebp
  0032e	5b		 pop	 ebx

; 1169 : 			#endif //__WORLDSERVER
; 1170 : 				
; 1171 : 					
; 1172 : 			}
; 1173 : 		}
; 1174 : 		
; 1175 : 		break;
; 1176 : 	}
; 1177 : }

  0032f	81 c4 14 01 00
	00		 add	 esp, 276		; 00000114H
  00335	c2 08 00	 ret	 8
?OnAttackMelee_BigMuscle@CMover@@QAEXKPAV1@@Z ENDP	; CMover::OnAttackMelee_BigMuscle
_TEXT	ENDS
PUBLIC	??_C@_08IKHLBNOC@OnSfxHit?$AA@			; `string'
PUBLIC	??_C@_0BD@PLELFAFG@OnAttackMelee_Krrr?$AA@	; `string'
PUBLIC	__real@40a00000
PUBLIC	__real@c0a00000
PUBLIC	?OnAttackMelee_Krrr@CMover@@QAEXKPAV1@@Z	; CMover::OnAttackMelee_Krrr
EXTRN	?GetPartyQuest@CPartyQuestProcessor@@QAEPAU_PARTYQUESTELEM@@H@Z:NEAR ; CPartyQuestProcessor::GetPartyQuest
EXTRN	?GetPartyQuestRect@CPartyQuestProcessor@@QAEPAU__PARTYQUESTRECT@@H@Z:NEAR ; CPartyQuestProcessor::GetPartyQuestRect
EXTRN	?GetInstance@CPartyQuestProcessor@@SAPAV1@XZ:NEAR ; CPartyQuestProcessor::GetInstance
EXTRN	?PtInQuestRect@CPartyQuestProcessor@@QAEHKABUD3DXVECTOR3@@@Z:NEAR ; CPartyQuestProcessor::PtInQuestRect
EXTRN	?GetLandHeight@CWorld@@QAEMMM@Z:NEAR		; CWorld::GetLandHeight
EXTRN	?ApplySkill@CCtrl@@QAEXPAV1@PAUItemProp@@PAUAddSkillProp@@_NHHH@Z:NEAR ; CCtrl::ApplySkill
EXTRN	?ReplaceWorldArea@CUserMng@@QAEXKKKMMMHH@Z:NEAR	; CUserMng::ReplaceWorldArea
;	COMDAT ?vLocal@?BC@??OnAttackMelee_Krrr@CMover@@QAEXKPAV2@@Z@4UD3DXVECTOR3@@A
; File c:\documents and settings\test\mes documents\source\virtuos_v17\build\program\_common\obj.h
_BSS	SEGMENT
?vLocal@?BC@??OnAttackMelee_Krrr@CMover@@QAEXKPAV2@@Z@4UD3DXVECTOR3@@A DB 0cH DUP (?) ; `CMover::OnAttackMelee_Krrr'::`18'::vLocal
_BSS	ENDS
;	COMDAT ?$S2@?BC@??OnAttackMelee_Krrr@CMover@@QAEXKPAV2@@Z@4IA
_BSS	SEGMENT
?$S2@?BC@??OnAttackMelee_Krrr@CMover@@QAEXKPAV2@@Z@4IA DD 01H DUP (?) ; `CMover::OnAttackMelee_Krrr'::`18'::$S2
_BSS	ENDS
;	COMDAT ??_C@_08IKHLBNOC@OnSfxHit?$AA@
CONST	SEGMENT
??_C@_08IKHLBNOC@OnSfxHit?$AA@ DB 'OnSfxHit', 00H	; `string'
CONST	ENDS
;	COMDAT __real@40a00000
CONST	SEGMENT
__real@40a00000 DD 040a00000r			; 5
CONST	ENDS
;	COMDAT __real@c0a00000
CONST	SEGMENT
__real@c0a00000 DD 0c0a00000r			; -5
CONST	ENDS
;	COMDAT ??_C@_0BD@PLELFAFG@OnAttackMelee_Krrr?$AA@
CONST	SEGMENT
??_C@_0BD@PLELFAFG@OnAttackMelee_Krrr?$AA@ DB 'OnAttackMelee_Krrr', 00H ; `string'
; Function compile flags: /Ogty
; File c:\documents and settings\test\mes documents\source\virtuos_v17\build\program\_common\moveractevent.cpp
CONST	ENDS
;	COMDAT ?OnAttackMelee_Krrr@CMover@@QAEXKPAV1@@Z
_TEXT	SEGMENT
_pSkillProp$269484 = -40				; size = 4
_pSkillProp$269477 = -40				; size = 4
$T277220 = -36						; size = 12
$T277219 = -36						; size = 12
$T277221 = -24						; size = 12
$T277222 = -12						; size = 12
_pSkillProp$269510 = 8					; size = 4
_pAddSkillProp$269485 = 8				; size = 4
_pAddSkillProp$269478 = 8				; size = 4
_dwState$ = 8						; size = 4
_pAddSkillProp$269511 = 12				; size = 4
_pHitObj$ = 12						; size = 4
?OnAttackMelee_Krrr@CMover@@QAEXKPAV1@@Z PROC NEAR	; CMover::OnAttackMelee_Krrr, COMDAT
; _this$ = ecx

; 1180 : {

  00000	83 ec 28	 sub	 esp, 40			; 00000028H
  00003	53		 push	 ebx
  00004	56		 push	 esi
  00005	8b f1		 mov	 esi, ecx

; 1181 : 	int		nItemID = GetActParam( 1 );	//   

  00007	8b 9e a8 12 00
	00		 mov	 ebx, DWORD PTR [esi+4776]
  0000d	57		 push	 edi

; 1182 : 
; 1183 : 	CModelObject *pModel = (CModelObject *)m_pModel;

  0000e	8b be 78 01 00
	00		 mov	 edi, DWORD PTR [esi+376]

; 1184 : 	
; 1185 : #ifdef __WORLDSERVER
; 1186 : 	UpdateMatrix();		//         .

  00014	e8 00 00 00 00	 call	 ?UpdateMatrix@CObj@@QAEXXZ ; CObj::UpdateMatrix

; 1187 : 	pModel->UpdateMatrixBone();		//     GetEventPos()      .

  00019	8b 87 8c 2a 00
	00		 mov	 eax, DWORD PTR [edi+10892]
  0001f	85 c0		 test	 eax, eax
  00021	74 3d		 je	 SHORT $L277231
  00023	8b 87 c4 00 00
	00		 mov	 eax, DWORD PTR [edi+196]
  00029	8b 8f c0 00 00
	00		 mov	 ecx, DWORD PTR [edi+192]
  0002f	8b 97 98 2a 00
	00		 mov	 edx, DWORD PTR [edi+10904]
  00035	50		 push	 eax
  00036	51		 push	 ecx
  00037	52		 push	 edx
  00038	8b cf		 mov	 ecx, edi
  0003a	e8 00 00 00 00	 call	 ?GetNextFrame@CModel@@QAEHXZ ; CModel::GetNextFrame
  0003f	8b 8f 88 2a 00
	00		 mov	 ecx, DWORD PTR [edi+10888]
  00045	8b 97 9c 2a 00
	00		 mov	 edx, DWORD PTR [edi+10908]
  0004b	50		 push	 eax
  0004c	8b 87 a0 00 00
	00		 mov	 eax, DWORD PTR [edi+160]
  00052	50		 push	 eax
  00053	51		 push	 ecx
  00054	8b 8f 8c 2a 00
	00		 mov	 ecx, DWORD PTR [edi+10892]
  0005a	52		 push	 edx
  0005b	e8 00 00 00 00	 call	 ?AnimateBone@CMotion@@QAEXPAUD3DXMATRIX@@PAV1@MHHHM@Z ; CMotion::AnimateBone
$L277231:

; 1188 : #endif // WorldServer
; 1189 : 	
; 1190 : 	switch( dwState )

  00060	8b 44 24 38	 mov	 eax, DWORD PTR _dwState$[esp+48]
  00064	3d 00 00 03 00	 cmp	 eax, 196608		; 00030000H
  00069	0f 87 4a 01 00
	00		 ja	 $L277223
  0006f	0f 84 c1 00 00
	00		 je	 $L269483
  00075	3d 00 00 01 00	 cmp	 eax, 65536		; 00010000H
  0007a	0f 84 97 00 00
	00		 je	 $L269473
  00080	3d 00 00 02 00	 cmp	 eax, 131072		; 00020000H
  00085	0f 85 70 02 00
	00		 jne	 $L269518

; 1196 : 	#endif //__WORLDSERVER			
; 1197 : 		}
; 1198 : 		break;
; 1199 : 	case OBJSTA_ATK2:	
; 1200 : 		{
; 1201 : 	#ifdef __WORLDSERVER
; 1202 : 			int nRandom = xRandom(100);

  0008b	a1 00 00 00 00	 mov	 eax, DWORD PTR ?g_next@@3KA ; g_next
  00090	69 c0 6d 4e c6
	41		 imul	 eax, 1103515245		; 41c64e6dH
  00096	05 39 30 00 00	 add	 eax, 12345		; 00003039H
  0009b	33 d2		 xor	 edx, edx
  0009d	b9 64 00 00 00	 mov	 ecx, 100		; 00000064H
  000a2	a3 00 00 00 00	 mov	 DWORD PTR ?g_next@@3KA, eax ; g_next
  000a7	f7 f1		 div	 ecx

; 1203 : 			if( nRandom <= 50 )

  000a9	83 fa 32	 cmp	 edx, 50			; 00000032H
  000ac	7f 4a		 jg	 SHORT $L269476

; 1204 : 			{
; 1205 : 				ItemProp *pSkillProp;
; 1206 : 				AddSkillProp *pAddSkillProp;
; 1207 : 				BOOL bSuccess = GetSkillProp( &pSkillProp, &pAddSkillProp, SI_KRRR_POISON, 1, "OnSfxHit" );

  000ae	8b 16		 mov	 edx, DWORD PTR [esi]
  000b0	68 00 00 00 00	 push	 OFFSET FLAT:??_C@_08IKHLBNOC@OnSfxHit?$AA@
  000b5	6a 01		 push	 1
  000b7	68 2d 01 00 00	 push	 301			; 0000012dH
  000bc	8d 44 24 44	 lea	 eax, DWORD PTR _pAddSkillProp$269478[esp+60]
  000c0	50		 push	 eax
  000c1	8d 4c 24 1c	 lea	 ecx, DWORD PTR _pSkillProp$269477[esp+68]
  000c5	51		 push	 ecx
  000c6	8b ce		 mov	 ecx, esi
  000c8	ff 52 30	 call	 DWORD PTR [edx+48]

; 1208 : 				if( bSuccess )

  000cb	85 c0		 test	 eax, eax
  000cd	0f 84 28 02 00
	00		 je	 $L269518

; 1209 : 				{
; 1210 : 					pHitObj->ApplySkill( this, pSkillProp, pAddSkillProp );

  000d3	8b 54 24 38	 mov	 edx, DWORD PTR _pAddSkillProp$269478[esp+48]
  000d7	8b 44 24 0c	 mov	 eax, DWORD PTR _pSkillProp$269477[esp+52]
  000db	8b 4c 24 3c	 mov	 ecx, DWORD PTR _pHitObj$[esp+48]
  000df	6a 01		 push	 1
  000e1	6a 00		 push	 0
  000e3	6a 00		 push	 0
  000e5	6a 00		 push	 0
  000e7	52		 push	 edx
  000e8	50		 push	 eax
  000e9	56		 push	 esi
  000ea	e8 00 00 00 00	 call	 ?ApplySkill@CCtrl@@QAEXPAV1@PAUItemProp@@PAUAddSkillProp@@_NHHH@Z ; CCtrl::ApplySkill
  000ef	5f		 pop	 edi
  000f0	5e		 pop	 esi
  000f1	5b		 pop	 ebx

; 1321 : 		#endif //__WORLDSERVER
; 1322 : 				
; 1323 : 			}
; 1324 : 		}
; 1325 : 		break;
; 1326 : 	}
; 1327 : }

  000f2	83 c4 28	 add	 esp, 40			; 00000028H
  000f5	c2 08 00	 ret	 8
$L269476:

; 1211 : 				}
; 1212 : 			}
; 1213 : 			else
; 1214 : 			{
; 1215 : 				OnDamage( nItemID, dwState, pHitObj );		

  000f8	8b 4c 24 3c	 mov	 ecx, DWORD PTR _pHitObj$[esp+48]
  000fc	6a 01		 push	 1
  000fe	6a 00		 push	 0
  00100	51		 push	 ecx
  00101	68 00 00 02 00	 push	 131072			; 00020000H
  00106	53		 push	 ebx
  00107	8b ce		 mov	 ecx, esi
  00109	e8 00 00 00 00	 call	 ?OnDamage@CMover@@QAEHHKPAV1@PBUD3DXVECTOR3@@K@Z ; CMover::OnDamage
  0010e	5f		 pop	 edi
  0010f	5e		 pop	 esi
  00110	5b		 pop	 ebx

; 1321 : 		#endif //__WORLDSERVER
; 1322 : 				
; 1323 : 			}
; 1324 : 		}
; 1325 : 		break;
; 1326 : 	}
; 1327 : }

  00111	83 c4 28	 add	 esp, 40			; 00000028H
  00114	c2 08 00	 ret	 8
$L269473:

; 1191 : 	{
; 1192 : 	case OBJSTA_ATK1:	
; 1193 : 		{
; 1194 : 	#ifdef __WORLDSERVER			
; 1195 : 			OnDamage( nItemID, dwState, pHitObj );		

  00117	8b 54 24 3c	 mov	 edx, DWORD PTR _pHitObj$[esp+48]
  0011b	6a 01		 push	 1
  0011d	6a 00		 push	 0
  0011f	52		 push	 edx
  00120	68 00 00 01 00	 push	 65536			; 00010000H
  00125	53		 push	 ebx
  00126	8b ce		 mov	 ecx, esi
  00128	e8 00 00 00 00	 call	 ?OnDamage@CMover@@QAEHHKPAV1@PBUD3DXVECTOR3@@K@Z ; CMover::OnDamage
  0012d	5f		 pop	 edi
  0012e	5e		 pop	 esi
  0012f	5b		 pop	 ebx

; 1321 : 		#endif //__WORLDSERVER
; 1322 : 				
; 1323 : 			}
; 1324 : 		}
; 1325 : 		break;
; 1326 : 	}
; 1327 : }

  00130	83 c4 28	 add	 esp, 40			; 00000028H
  00133	c2 08 00	 ret	 8
$L269483:

; 1216 : 			}
; 1217 : 	#endif // WorldServer
; 1218 : 		}
; 1219 : 		break;
; 1220 : 	case OBJSTA_ATK3:		//   
; 1221 : 		{
; 1222 : 		#ifdef __CLIENT
; 1223 : 			CSfx *pSfx = CreateSfx( D3DDEVICE, XI_NPCSP1DIRFIRESP, pHitObj->GetPos() );	//   -   .
; 1224 : 			if( pSfx )
; 1225 : 				pSfx->SetAngle( -GetAngle() );
; 1226 : 
; 1227 : 			PLAYSND( SND_PC_BOSS_CRASH, &pHitObj->GetPos() );
; 1228 : 		#endif //__CLIENT
; 1229 : 
; 1230 : 		#ifdef __WORLDSERVER
; 1231 : 			ItemProp *pSkillProp;
; 1232 : 			AddSkillProp *pAddSkillProp;
; 1233 : 			BOOL bSuccess = GetSkillProp( &pSkillProp, &pAddSkillProp, SI_GEN_KNOCK_BACK, 4, "OnAttackMelee_BigMuscle" );

  00136	8b 06		 mov	 eax, DWORD PTR [esi]
  00138	68 00 00 00 00	 push	 OFFSET FLAT:??_C@_0BI@NKGAIBCK@OnAttackMelee_BigMuscle?$AA@
  0013d	6a 04		 push	 4
  0013f	68 e0 00 00 00	 push	 224			; 000000e0H
  00144	8d 4c 24 44	 lea	 ecx, DWORD PTR _pAddSkillProp$269485[esp+60]
  00148	51		 push	 ecx
  00149	8d 54 24 1c	 lea	 edx, DWORD PTR _pSkillProp$269484[esp+68]
  0014d	52		 push	 edx
  0014e	8b ce		 mov	 ecx, esi
  00150	ff 50 30	 call	 DWORD PTR [eax+48]

; 1234 : 			if( bSuccess )

  00153	85 c0		 test	 eax, eax
  00155	74 1c		 je	 SHORT $L277300

; 1235 : 				ApplySkillAround( this, OBJTYPE_PLAYER, pSkillProp, pAddSkillProp , false );							

  00157	8b 44 24 38	 mov	 eax, DWORD PTR _pAddSkillProp$269485[esp+48]
  0015b	8b 4c 24 0c	 mov	 ecx, DWORD PTR _pSkillProp$269484[esp+52]
  0015f	6a 00		 push	 0
  00161	6a 00		 push	 0
  00163	6a 00		 push	 0
  00165	6a 00		 push	 0
  00167	50		 push	 eax
  00168	51		 push	 ecx
  00169	6a 01		 push	 1
  0016b	56		 push	 esi
  0016c	8b ce		 mov	 ecx, esi
  0016e	e8 00 00 00 00	 call	 ?ApplySkillAround@CCtrl@@QAEXPAV1@HPAUItemProp@@PAUAddSkillProp@@_NHMH@Z ; CCtrl::ApplySkillAround
$L277300:

; 1236 : 
; 1237 : 			GetWorld()->SendDamageAround( &(pHitObj->GetPos()), AF_GENERIC, this, OBJTYPE_PLAYER, II_WEA_MOB_MONSTER4_ATK1
; 1238 : 				, 7.0f );	

  00173	8b 54 24 3c	 mov	 edx, DWORD PTR _pHitObj$[esp+48]
  00177	68 00 00 e0 40	 push	 1088421888		; 40e00000H
  0017c	68 2d 24 00 00	 push	 9261			; 0000242dH
  00181	81 c2 60 01 00
	00		 add	 edx, 352		; 00000160H
  00187	8b 02		 mov	 eax, DWORD PTR [edx]
  00189	8b 4a 04	 mov	 ecx, DWORD PTR [edx+4]
  0018c	8b 52 08	 mov	 edx, DWORD PTR [edx+8]
  0018f	6a 01		 push	 1
  00191	56		 push	 esi
  00192	89 44 24 20	 mov	 DWORD PTR $T277219[esp+68], eax
  00196	6a 01		 push	 1
  00198	8d 44 24 24	 lea	 eax, DWORD PTR $T277219[esp+72]
  0019c	89 4c 24 28	 mov	 DWORD PTR $T277219[esp+76], ecx
  001a0	8b 8e 6c 01 00
	00		 mov	 ecx, DWORD PTR [esi+364]
  001a6	50		 push	 eax
  001a7	89 54 24 30	 mov	 DWORD PTR $T277219[esp+84], edx
  001ab	e8 00 00 00 00	 call	 ?SendDamageAround@CWorld@@QAEXPBUD3DXVECTOR3@@HPAVCMover@@HHM@Z ; CWorld::SendDamageAround
  001b0	5f		 pop	 edi
  001b1	5e		 pop	 esi
  001b2	5b		 pop	 ebx

; 1321 : 		#endif //__WORLDSERVER
; 1322 : 				
; 1323 : 			}
; 1324 : 		}
; 1325 : 		break;
; 1326 : 	}
; 1327 : }

  001b3	83 c4 28	 add	 esp, 40			; 00000028H
  001b6	c2 08 00	 ret	 8
$L277223:

; 1188 : #endif // WorldServer
; 1189 : 	
; 1190 : 	switch( dwState )

  001b9	3d 00 00 04 00	 cmp	 eax, 262144		; 00040000H
  001be	0f 85 37 01 00
	00		 jne	 $L269518

; 1239 : 		#endif //__WORLDSERVER
; 1240 : 		}
; 1241 : 		break;
; 1242 : 	case OBJSTA_ATK4:		//       
; 1243 : 		{
; 1244 : 			static D3DXVECTOR3	  vLocal;

  001c4	f6 05 00 00 00
	00 01		 test	 BYTE PTR ?$S2@?BC@??OnAttackMelee_Krrr@CMover@@QAEXKPAV2@@Z@4IA, 1
  001cb	75 07		 jne	 SHORT $L277301
  001cd	83 0d 00 00 00
	00 01		 or	 DWORD PTR ?$S2@?BC@??OnAttackMelee_Krrr@CMover@@QAEXKPAV2@@Z@4IA, 1
$L277301:

; 1245 : 			if( m_pActMover->m_nMotionHitCount == 0 )

  001d4	8b 8e 3c 02 00
	00		 mov	 ecx, DWORD PTR [esi+572]
  001da	8b 81 9c 00 00
	00		 mov	 eax, DWORD PTR [ecx+156]
  001e0	85 c0		 test	 eax, eax
  001e2	0f 85 1c 01 00
	00		 jne	 $L269496

; 1246 : 			{
; 1247 : 		#ifdef __CLIENT
; 1248 : 				PLAYSND( SND_PC_BOSS_SUMMONS );
; 1249 : 		#endif //__CLIENT
; 1250 : 				
; 1251 : 				AngleToVectorXZ( &vLocal, GetAngle(), 5.0f );	//  5.

  001e8	d9 46 18	 fld	 DWORD PTR [esi+24]
  001eb	a3 04 00 00 00	 mov	 DWORD PTR ?vLocal@?BC@??OnAttackMelee_Krrr@CMover@@QAEXKPAV2@@Z@4UD3DXVECTOR3@@A+4, eax
  001f0	d8 0d 00 00 00
	00		 fmul	 DWORD PTR __real@3c8efa35

; 1252 : 				vLocal += GetPos();

  001f6	8d be 60 01 00
	00		 lea	 edi, DWORD PTR [esi+352]
  001fc	8b d7		 mov	 edx, edi
  001fe	d9 c0		 fld	 ST(0)
  00200	d9 fe		 fsin
  00202	d8 0d 00 00 00
	00		 fmul	 DWORD PTR __real@40a00000
  00208	d9 1d 00 00 00
	00		 fstp	 DWORD PTR ?vLocal@?BC@??OnAttackMelee_Krrr@CMover@@QAEXKPAV2@@Z@4UD3DXVECTOR3@@A
  0020e	d9 ff		 fcos
  00210	d8 0d 00 00 00
	00		 fmul	 DWORD PTR __real@c0a00000
  00216	d9 1d 08 00 00
	00		 fstp	 DWORD PTR ?vLocal@?BC@??OnAttackMelee_Krrr@CMover@@QAEXKPAV2@@Z@4UD3DXVECTOR3@@A+8
  0021c	8b 02		 mov	 eax, DWORD PTR [edx]
  0021e	8b 4a 04	 mov	 ecx, DWORD PTR [edx+4]
  00221	d9 05 00 00 00
	00		 fld	 DWORD PTR ?vLocal@?BC@??OnAttackMelee_Krrr@CMover@@QAEXKPAV2@@Z@4UD3DXVECTOR3@@A
  00227	8b 52 08	 mov	 edx, DWORD PTR [edx+8]
  0022a	89 44 24 10	 mov	 DWORD PTR $T277220[esp+52], eax
  0022e	d8 44 24 10	 fadd	 DWORD PTR $T277220[esp+52]
  00232	89 54 24 18	 mov	 DWORD PTR $T277220[esp+60], edx
  00236	8b c1		 mov	 eax, ecx
  00238	d9 1d 00 00 00
	00		 fstp	 DWORD PTR ?vLocal@?BC@??OnAttackMelee_Krrr@CMover@@QAEXKPAV2@@Z@4UD3DXVECTOR3@@A
  0023e	a3 04 00 00 00	 mov	 DWORD PTR ?vLocal@?BC@??OnAttackMelee_Krrr@CMover@@QAEXKPAV2@@Z@4UD3DXVECTOR3@@A+4, eax
  00243	d9 44 24 18	 fld	 DWORD PTR $T277220[esp+60]

; 1253 : 
; 1254 : 				FLOAT fHeight = GetWorld()->GetLandHeight( vLocal.x, vLocal.z );

  00247	a1 00 00 00 00	 mov	 eax, DWORD PTR ?vLocal@?BC@??OnAttackMelee_Krrr@CMover@@QAEXKPAV2@@Z@4UD3DXVECTOR3@@A
  0024c	d8 05 08 00 00
	00		 fadd	 DWORD PTR ?vLocal@?BC@??OnAttackMelee_Krrr@CMover@@QAEXKPAV2@@Z@4UD3DXVECTOR3@@A+8
  00252	89 4c 24 14	 mov	 DWORD PTR $T277220[esp+56], ecx
  00256	d9 1d 08 00 00
	00		 fstp	 DWORD PTR ?vLocal@?BC@??OnAttackMelee_Krrr@CMover@@QAEXKPAV2@@Z@4UD3DXVECTOR3@@A+8
  0025c	8b 15 08 00 00
	00		 mov	 edx, DWORD PTR ?vLocal@?BC@??OnAttackMelee_Krrr@CMover@@QAEXKPAV2@@Z@4UD3DXVECTOR3@@A+8
  00262	8b 8e 6c 01 00
	00		 mov	 ecx, DWORD PTR [esi+364]
  00268	52		 push	 edx
  00269	50		 push	 eax
  0026a	e8 00 00 00 00	 call	 ?GetLandHeight@CWorld@@QAEMMM@Z ; CWorld::GetLandHeight

; 1255 : 				vLocal.y = fHeight;

  0026f	d9 1d 04 00 00
	00		 fstp	 DWORD PTR ?vLocal@?BC@??OnAttackMelee_Krrr@CMover@@QAEXKPAV2@@Z@4UD3DXVECTOR3@@A+4

; 1256 : 				
; 1257 : 		#ifdef __WORLDSERVER
; 1258 : 				CPartyQuestProcessor* pProc	= CPartyQuestProcessor::GetInstance();

  00275	e8 00 00 00 00	 call	 ?GetInstance@CPartyQuestProcessor@@SAPAV1@XZ ; CPartyQuestProcessor::GetInstance
  0027a	8b d8		 mov	 ebx, eax

; 1259 : 				CWorld* pWorld	= GetWorld();

  0027c	8b 86 6c 01 00
	00		 mov	 eax, DWORD PTR [esi+364]

; 1260 : 				if( pWorld )

  00282	85 c0		 test	 eax, eax
  00284	74 75		 je	 SHORT $L269518

; 1261 : 				{
; 1262 : 					int nId	= pProc->PtInQuestRect( pWorld->GetID(), GetPos() );

  00286	8b 0f		 mov	 ecx, DWORD PTR [edi]
  00288	8b 57 04	 mov	 edx, DWORD PTR [edi+4]
  0028b	89 4c 24 1c	 mov	 DWORD PTR $T277221[esp+52], ecx
  0028f	8b 4f 08	 mov	 ecx, DWORD PTR [edi+8]
  00292	89 54 24 20	 mov	 DWORD PTR $T277221[esp+56], edx
  00296	89 4c 24 24	 mov	 DWORD PTR $T277221[esp+60], ecx
  0029a	8b 00		 mov	 eax, DWORD PTR [eax]
  0029c	8d 54 24 1c	 lea	 edx, DWORD PTR $T277221[esp+52]
  002a0	52		 push	 edx
  002a1	50		 push	 eax
  002a2	8b cb		 mov	 ecx, ebx
  002a4	e8 00 00 00 00	 call	 ?PtInQuestRect@CPartyQuestProcessor@@QAEHKABUD3DXVECTOR3@@@Z ; CPartyQuestProcessor::PtInQuestRect
  002a9	8b f8		 mov	 edi, eax

; 1263 : 					if( nId > -1 )

  002ab	83 ff ff	 cmp	 edi, -1
  002ae	7e 4b		 jle	 SHORT $L269518
  002b0	55		 push	 ebp

; 1264 : 					{
; 1265 : 						PPARTYQUESTELEM pElem	= pProc->GetPartyQuest( nId );

  002b1	57		 push	 edi
  002b2	8b cb		 mov	 ecx, ebx
  002b4	e8 00 00 00 00	 call	 ?GetPartyQuest@CPartyQuestProcessor@@QAEPAU_PARTYQUESTELEM@@H@Z ; CPartyQuestProcessor::GetPartyQuest

; 1266 : 						PPARTYQUESTRECT pRect	= pProc->GetPartyQuestRect( nId );

  002b9	57		 push	 edi
  002ba	8b cb		 mov	 ecx, ebx
  002bc	8b e8		 mov	 ebp, eax
  002be	e8 00 00 00 00	 call	 ?GetPartyQuestRect@CPartyQuestProcessor@@QAEPAU__PARTYQUESTRECT@@H@Z ; CPartyQuestProcessor::GetPartyQuestRect

; 1267 : 						if( pElem && pRect )

  002c3	85 ed		 test	 ebp, ebp
  002c5	74 33		 je	 SHORT $L277302
  002c7	85 c0		 test	 eax, eax
  002c9	74 2f		 je	 SHORT $L277302

; 1268 : #ifdef __LAYER_1015
; 1269 : 							g_UserMng.ReplaceWorldArea( pElem->idParty, pRect->dwWorldId, pRect->dwWorldId, vLocal.x, vLocal.z, 0.5f, TRUE, GetLayer() );

  002cb	8b 8e b8 01 00
	00		 mov	 ecx, DWORD PTR [esi+440]
  002d1	8b 15 08 00 00
	00		 mov	 edx, DWORD PTR ?vLocal@?BC@??OnAttackMelee_Krrr@CMover@@QAEXKPAV2@@Z@4UD3DXVECTOR3@@A+8
  002d7	8b 40 04	 mov	 eax, DWORD PTR [eax+4]
  002da	51		 push	 ecx
  002db	8b 0d 00 00 00
	00		 mov	 ecx, DWORD PTR ?vLocal@?BC@??OnAttackMelee_Krrr@CMover@@QAEXKPAV2@@Z@4UD3DXVECTOR3@@A
  002e1	6a 01		 push	 1
  002e3	68 00 00 00 3f	 push	 1056964608		; 3f000000H
  002e8	52		 push	 edx
  002e9	8b 55 08	 mov	 edx, DWORD PTR [ebp+8]
  002ec	51		 push	 ecx
  002ed	50		 push	 eax
  002ee	50		 push	 eax
  002ef	52		 push	 edx
  002f0	b9 00 00 00 00	 mov	 ecx, OFFSET FLAT:?g_UserMng@@3VCUserMng@@A
  002f5	e8 00 00 00 00	 call	 ?ReplaceWorldArea@CUserMng@@QAEXKKKMMMHH@Z ; CUserMng::ReplaceWorldArea
$L277302:
  002fa	5d		 pop	 ebp
$L269518:
  002fb	5f		 pop	 edi
  002fc	5e		 pop	 esi
  002fd	5b		 pop	 ebx

; 1321 : 		#endif //__WORLDSERVER
; 1322 : 				
; 1323 : 			}
; 1324 : 		}
; 1325 : 		break;
; 1326 : 	}
; 1327 : }

  002fe	83 c4 28	 add	 esp, 40			; 00000028H
  00301	c2 08 00	 ret	 8
$L269496:

; 1270 : #else	// __LAYER_1015
; 1271 : 							g_UserMng.ReplaceWorldArea( pElem->idParty, pRect->dwWorldId, pRect->dwWorldId, vLocal.x, vLocal.z, 0.5f, TRUE );
; 1272 : #endif	// __LAYER_1015
; 1273 : 					}
; 1274 : 				}
; 1275 : 		#endif //__WORLDSERVER
; 1276 : 			}
; 1277 : 			else
; 1278 : 			if( m_pActMover->m_nMotionHitCount == 1 )		//  5 

  00304	83 f8 01	 cmp	 eax, 1
  00307	75 46		 jne	 SHORT $L269509

; 1279 : 			{	
; 1280 : 		#ifdef __CLIENT
; 1281 : 				PLAYSND( SND_PC_BOSS_STUN );
; 1282 : 		#endif //__CLIENT
; 1283 : #ifdef __WORLDSERVER
; 1284 : 				ItemProp *pSkillProp;
; 1285 : 				AddSkillProp *pAddSkillProp;
; 1286 : 				BOOL bSuccess = GetSkillProp( &pSkillProp, &pAddSkillProp, SI_KRRR_STUNGROUP, 1, "OnAttackMelee_Krrr" );

  00309	8b 06		 mov	 eax, DWORD PTR [esi]
  0030b	68 00 00 00 00	 push	 OFFSET FLAT:??_C@_0BD@PLELFAFG@OnAttackMelee_Krrr?$AA@
  00310	6a 01		 push	 1
  00312	68 2e 01 00 00	 push	 302			; 0000012eH
  00317	8d 4c 24 48	 lea	 ecx, DWORD PTR _pAddSkillProp$269511[esp+60]
  0031b	51		 push	 ecx
  0031c	8d 54 24 48	 lea	 edx, DWORD PTR _pSkillProp$269510[esp+64]
  00320	52		 push	 edx
  00321	8b ce		 mov	 ecx, esi
  00323	ff 50 30	 call	 DWORD PTR [eax+48]

; 1287 : 				if( bSuccess )

  00326	85 c0		 test	 eax, eax
  00328	74 d1		 je	 SHORT $L269518

; 1288 : 					ApplySkillAround( this, OBJTYPE_PLAYER, pSkillProp, pAddSkillProp , false );	

  0032a	8b 44 24 3c	 mov	 eax, DWORD PTR _pAddSkillProp$269511[esp+48]
  0032e	8b 4c 24 38	 mov	 ecx, DWORD PTR _pSkillProp$269510[esp+48]
  00332	6a 00		 push	 0
  00334	6a 00		 push	 0
  00336	6a 00		 push	 0
  00338	6a 00		 push	 0
  0033a	50		 push	 eax
  0033b	51		 push	 ecx
  0033c	6a 01		 push	 1
  0033e	56		 push	 esi
  0033f	8b ce		 mov	 ecx, esi
  00341	e8 00 00 00 00	 call	 ?ApplySkillAround@CCtrl@@QAEXPAV1@HPAUItemProp@@PAUAddSkillProp@@_NHMH@Z ; CCtrl::ApplySkillAround
  00346	5f		 pop	 edi
  00347	5e		 pop	 esi
  00348	5b		 pop	 ebx

; 1321 : 		#endif //__WORLDSERVER
; 1322 : 				
; 1323 : 			}
; 1324 : 		}
; 1325 : 		break;
; 1326 : 	}
; 1327 : }

  00349	83 c4 28	 add	 esp, 40			; 00000028H
  0034c	c2 08 00	 ret	 8
$L269509:

; 1289 : #endif //__WORLDSERVER
; 1290 : 				
; 1291 : 			}
; 1292 : 			else
; 1293 : 			if( m_pActMover->m_nMotionHitCount == 2 )

  0034f	83 f8 02	 cmp	 eax, 2
  00352	74 a7		 je	 SHORT $L269518

; 1294 : 			{	
; 1295 : #ifdef __CLIENT
; 1296 : 				D3DXVECTOR3 v3Pos = vLocal;
; 1297 : 				CSfx *pSfx = CreateSfx( D3DDEVICE, XI_SKILL_ELE_MULTI_METEOSHOWER02, v3Pos );	//   -   .
; 1298 : 				if( pSfx )
; 1299 : 					pSfx->SetScale( D3DXVECTOR3( 0.8f, 0.8f, 0.8f ) );
; 1300 : 				
; 1301 : 				v3Pos.x += ( xRandomF( 12.0f ) + -6.0f );
; 1302 : 				pSfx = CreateSfx( D3DDEVICE, XI_SKILL_ELE_MULTI_METEOSHOWER02, v3Pos );	//   -   .
; 1303 : 				if( pSfx )
; 1304 : 					pSfx->SetScale( D3DXVECTOR3( 0.8f, 0.8f, 0.8f ) );
; 1305 : 				
; 1306 : 				v3Pos = vLocal;
; 1307 : 				v3Pos.z += ( xRandomF( 12.0f ) + -6.0f );
; 1308 : 				pSfx = CreateSfx( D3DDEVICE, XI_SKILL_ELE_MULTI_METEOSHOWER02, v3Pos );	//   -   .
; 1309 : 				if( pSfx )
; 1310 : 					pSfx->SetScale( D3DXVECTOR3( 0.8f, 0.8f, 0.8f ) );
; 1311 : 				
; 1312 : #endif //__CLIENT
; 1313 : 				
; 1314 : 			}
; 1315 : 			else
; 1316 : 			if( m_pActMover->m_nMotionHitCount == 3 )

  00354	83 f8 03	 cmp	 eax, 3
  00357	75 a2		 jne	 SHORT $L269518

; 1317 : 			{	
; 1318 : 		#ifdef __WORLDSERVER
; 1319 : 				GetWorld()->SendDamageAround( &(pHitObj->GetPos()), AF_GENERIC, this, OBJTYPE_PLAYER, II_WEA_MOB_MONSTER4_ATK2
; 1320 : 					, 5.0f );	

  00359	8b 4c 24 3c	 mov	 ecx, DWORD PTR _pHitObj$[esp+48]
  0035d	68 00 00 a0 40	 push	 1084227584		; 40a00000H
  00362	68 2e 24 00 00	 push	 9262			; 0000242eH
  00367	6a 01		 push	 1
  00369	56		 push	 esi
  0036a	6a 01		 push	 1
  0036c	8d 54 24 3c	 lea	 edx, DWORD PTR $T277222[esp+72]
  00370	52		 push	 edx
  00371	e8 00 00 00 00	 call	 ?GetPos@CObj@@QAE?AUD3DXVECTOR3@@XZ ; CObj::GetPos
  00376	8b 8e 6c 01 00
	00		 mov	 ecx, DWORD PTR [esi+364]
  0037c	50		 push	 eax
  0037d	e8 00 00 00 00	 call	 ?SendDamageAround@CWorld@@QAEXPBUD3DXVECTOR3@@HPAVCMover@@HHM@Z ; CWorld::SendDamageAround
  00382	5f		 pop	 edi
  00383	5e		 pop	 esi
  00384	5b		 pop	 ebx

; 1321 : 		#endif //__WORLDSERVER
; 1322 : 				
; 1323 : 			}
; 1324 : 		}
; 1325 : 		break;
; 1326 : 	}
; 1327 : }

  00385	83 c4 28	 add	 esp, 40			; 00000028H
  00388	c2 08 00	 ret	 8
?OnAttackMelee_Krrr@CMover@@QAEXKPAV1@@Z ENDP		; CMover::OnAttackMelee_Krrr
_TEXT	ENDS
PUBLIC	??_C@_0BC@HLPOJCHF@SI_GEN_STUNSINGLE?$AA@	; `string'
PUBLIC	??_C@_0BJ@DLBDMEGD@OnAttackMelee_Meteonyker?$AA@ ; `string'
PUBLIC	?OnAttackMelee_Meteonyker@CMover@@QAEXKPAV1@@Z	; CMover::OnAttackMelee_Meteonyker
;	COMDAT ??_C@_0BJ@DLBDMEGD@OnAttackMelee_Meteonyker?$AA@
; File c:\documents and settings\test\mes documents\source\virtuos_v17\build\program\_common\xutil.h
CONST	SEGMENT
??_C@_0BJ@DLBDMEGD@OnAttackMelee_Meteonyker?$AA@ DB 'OnAttackMelee_Meteon'
	DB	'yker', 00H					; `string'
CONST	ENDS
;	COMDAT ??_C@_0BC@HLPOJCHF@SI_GEN_STUNSINGLE?$AA@
CONST	SEGMENT
??_C@_0BC@HLPOJCHF@SI_GEN_STUNSINGLE?$AA@ DB 'SI_GEN_STUNSINGLE', 00H ; `string'
; Function compile flags: /Ogty
; File c:\documents and settings\test\mes documents\source\virtuos_v17\build\program\_common\moveractevent.cpp
CONST	ENDS
;	COMDAT ?OnAttackMelee_Meteonyker@CMover@@QAEXKPAV1@@Z
_TEXT	SEGMENT
$T277306 = -24						; size = 12
_vPos$269556 = -12					; size = 12
_vPos$269538 = -12					; size = 12
_pSkillProp$269551 = 8					; size = 4
_pSkillProp$269543 = 8					; size = 4
_dwState$ = 8						; size = 4
_pAddSkillProp$269552 = 12				; size = 4
_pAddSkillProp$269544 = 12				; size = 4
_pHitObj$ = 12						; size = 4
?OnAttackMelee_Meteonyker@CMover@@QAEXKPAV1@@Z PROC NEAR ; CMover::OnAttackMelee_Meteonyker, COMDAT
; _this$ = ecx

; 1331 : {

  00000	83 ec 18	 sub	 esp, 24			; 00000018H
  00003	53		 push	 ebx
  00004	56		 push	 esi
  00005	8b f1		 mov	 esi, ecx

; 1332 : 	int		nItemID = GetActParam( 1 );	//   

  00007	8b 9e a8 12 00
	00		 mov	 ebx, DWORD PTR [esi+4776]
  0000d	57		 push	 edi

; 1333 : 
; 1334 : 	CModelObject *pModel = (CModelObject *)m_pModel;

  0000e	8b be 78 01 00
	00		 mov	 edi, DWORD PTR [esi+376]

; 1335 : 	
; 1336 : #ifdef __WORLDSERVER
; 1337 : 	UpdateMatrix();		//         .

  00014	e8 00 00 00 00	 call	 ?UpdateMatrix@CObj@@QAEXXZ ; CObj::UpdateMatrix

; 1338 : 	pModel->UpdateMatrixBone();		//     GetEventPos()      .

  00019	8b 87 8c 2a 00
	00		 mov	 eax, DWORD PTR [edi+10892]
  0001f	85 c0		 test	 eax, eax
  00021	74 3d		 je	 SHORT $L277312
  00023	8b 87 c4 00 00
	00		 mov	 eax, DWORD PTR [edi+196]
  00029	8b 8f c0 00 00
	00		 mov	 ecx, DWORD PTR [edi+192]
  0002f	8b 97 98 2a 00
	00		 mov	 edx, DWORD PTR [edi+10904]
  00035	50		 push	 eax
  00036	51		 push	 ecx
  00037	52		 push	 edx
  00038	8b cf		 mov	 ecx, edi
  0003a	e8 00 00 00 00	 call	 ?GetNextFrame@CModel@@QAEHXZ ; CModel::GetNextFrame
  0003f	8b 8f 88 2a 00
	00		 mov	 ecx, DWORD PTR [edi+10888]
  00045	8b 97 9c 2a 00
	00		 mov	 edx, DWORD PTR [edi+10908]
  0004b	50		 push	 eax
  0004c	8b 87 a0 00 00
	00		 mov	 eax, DWORD PTR [edi+160]
  00052	50		 push	 eax
  00053	51		 push	 ecx
  00054	8b 8f 8c 2a 00
	00		 mov	 ecx, DWORD PTR [edi+10892]
  0005a	52		 push	 edx
  0005b	e8 00 00 00 00	 call	 ?AnimateBone@CMotion@@QAEXPAUD3DXMATRIX@@PAV1@MHHHM@Z ; CMotion::AnimateBone
$L277312:

; 1339 : #endif // WorldServer
; 1340 : 	
; 1341 : 	switch( dwState )

  00060	8b 44 24 28	 mov	 eax, DWORD PTR _dwState$[esp+32]
  00064	3d 00 00 01 00	 cmp	 eax, 65536		; 00010000H
  00069	0f 84 82 01 00
	00		 je	 $L269533
  0006f	3d 00 00 03 00	 cmp	 eax, 196608		; 00030000H
  00074	0f 84 9b 00 00
	00		 je	 $L269535
  0007a	3d 00 00 04 00	 cmp	 eax, 262144		; 00040000H
  0007f	0f 85 8c 01 00
	00		 jne	 $L269534

; 1372 : 					}
; 1373 : 
; 1374 : 	#ifdef __CLIENT
; 1375 : 					CSfx *pSfx = CreateSfx( D3DDEVICE, XI_NPCSP1RANBALL, vPos, GetId(), pTarget->GetPos(), pTarget->GetId(), -1 );		// 
; 1376 : 					if( pSfx )
; 1377 : 					{
; 1378 : 						pSfx->SetScale( D3DXVECTOR3(4.0f, 4.0f, 4.0f) );
; 1379 : 						{
; 1380 : 							FLOAT fAngXZ, fAngH;
; 1381 : 							D3DXVECTOR3 vDist = pTarget->GetPos() - vPos;
; 1382 : 							xGetDegree( &fAngXZ, &fAngH, vDist );		//  .
; 1383 : 							((CSfxAtkStraight *)pSfx)->ShootSfx( fAngXZ, -fAngH, 2.0f, XI_NPCSP1RANBOOM );		//   .
; 1384 : 						}
; 1385 : 					}
; 1386 : 	#endif	// __CLIENT
; 1387 : 				}
; 1388 : 			}
; 1389 : 		}
; 1390 : 		break;
; 1391 : 	case OBJSTA_ATK4:   //   
; 1392 : 		{
; 1393 : 			if( m_pActMover->m_nMotionHitCount == 0 )

  00085	8b 86 3c 02 00
	00		 mov	 eax, DWORD PTR [esi+572]
  0008b	8b 88 9c 00 00
	00		 mov	 ecx, DWORD PTR [eax+156]
  00091	85 c9		 test	 ecx, ecx
  00093	0f 85 78 01 00
	00		 jne	 $L269534

; 1394 : 			{
; 1395 : 				//  
; 1396 : 				ItemProp *pSkillProp;
; 1397 : 				AddSkillProp *pAddSkillProp;
; 1398 : 				BOOL bSuccess = GetSkillProp( &pSkillProp, &pAddSkillProp, SI_GEN_BURN, 1, "OnAttackMelee_Meteonyker" );

  00099	8b 16		 mov	 edx, DWORD PTR [esi]
  0009b	68 00 00 00 00	 push	 OFFSET FLAT:??_C@_0BJ@DLBDMEGD@OnAttackMelee_Meteonyker?$AA@
  000a0	6a 01		 push	 1
  000a2	68 34 01 00 00	 push	 308			; 00000134H
  000a7	8d 44 24 38	 lea	 eax, DWORD PTR _pAddSkillProp$269552[esp+44]
  000ab	50		 push	 eax
  000ac	8d 4c 24 38	 lea	 ecx, DWORD PTR _pSkillProp$269551[esp+48]
  000b0	51		 push	 ecx
  000b1	8b ce		 mov	 ecx, esi
  000b3	ff 52 30	 call	 DWORD PTR [edx+48]

; 1399 : 				if( bSuccess )

  000b6	85 c0		 test	 eax, eax
  000b8	0f 84 53 01 00
	00		 je	 $L269534

; 1400 : 				{
; 1401 : 					D3DXVECTOR3 vPos	= GetPos();

  000be	8d 54 24 18	 lea	 edx, DWORD PTR _vPos$269556[esp+36]
  000c2	52		 push	 edx
  000c3	8b ce		 mov	 ecx, esi
  000c5	e8 00 00 00 00	 call	 ?GetPos@CObj@@QAE?AUD3DXVECTOR3@@XZ ; CObj::GetPos

; 1402 : 					ApplySkillAround( this, OBJTYPE_PLAYER, pSkillProp, pAddSkillProp, false, FALSE, 10.0F );

  000ca	8b 44 24 2c	 mov	 eax, DWORD PTR _pAddSkillProp$269552[esp+32]
  000ce	8b 4c 24 28	 mov	 ecx, DWORD PTR _pSkillProp$269551[esp+32]
  000d2	6a 00		 push	 0
  000d4	68 00 00 20 41	 push	 1092616192		; 41200000H
  000d9	6a 00		 push	 0
  000db	6a 00		 push	 0
  000dd	50		 push	 eax
  000de	51		 push	 ecx
  000df	6a 01		 push	 1
  000e1	56		 push	 esi
  000e2	8b ce		 mov	 ecx, esi
  000e4	e8 00 00 00 00	 call	 ?ApplySkillAround@CCtrl@@QAEXPAV1@HPAUItemProp@@PAUAddSkillProp@@_NHMH@Z ; CCtrl::ApplySkillAround

; 1403 : 					MoverProp* pProp	= GetProp();

  000e9	8b ce		 mov	 ecx, esi
  000eb	e8 00 00 00 00	 call	 ?GetPropA@CMover@@QAEPAUMoverProp@@XZ ; CMover::GetPropA

; 1404 : 					OnDamage( pProp->dwAtk4, OBJSTA_ATK4, NULL, &vPos );

  000f0	8b 80 bc 00 00
	00		 mov	 eax, DWORD PTR [eax+188]
  000f6	6a 01		 push	 1
  000f8	8d 54 24 1c	 lea	 edx, DWORD PTR _vPos$269556[esp+40]
  000fc	52		 push	 edx
  000fd	6a 00		 push	 0
  000ff	68 00 00 04 00	 push	 262144			; 00040000H
  00104	50		 push	 eax
  00105	8b ce		 mov	 ecx, esi
  00107	e8 00 00 00 00	 call	 ?OnDamage@CMover@@QAEHHKPAV1@PBUD3DXVECTOR3@@K@Z ; CMover::OnDamage
  0010c	5f		 pop	 edi
  0010d	5e		 pop	 esi
  0010e	5b		 pop	 ebx

; 1405 : #ifdef __CLIENT
; 1406 : 					CSfx *pSfx = CreateSfx( D3DDEVICE, XI_NPCMETEONYKER, vPos );
; 1407 : #endif	// __CLIENT
; 1408 : 				}
; 1409 : 			}
; 1410 : 		}
; 1411 : 		break;
; 1412 : 	}
; 1413 : }

  0010f	83 c4 18	 add	 esp, 24			; 00000018H
  00112	c2 08 00	 ret	 8
$L269535:

; 1348 : 			}
; 1349 : 		}
; 1350 : 		break;
; 1351 : 	case OBJSTA_ATK3:		//  
; 1352 : 		{
; 1353 : 			if( m_pActMover->m_nMotionHitCount == 0 )

  00115	8b 8e 3c 02 00
	00		 mov	 ecx, DWORD PTR [esi+572]
  0011b	8b 81 9c 00 00
	00		 mov	 eax, DWORD PTR [ecx+156]
  00121	85 c0		 test	 eax, eax
  00123	0f 85 e8 00 00
	00		 jne	 $L269534

; 1354 : 			{
; 1355 : 				CMover *pTarget = pHitObj;
; 1356 : 
; 1357 : 				D3DXVECTOR3 vPos;
; 1358 : 				CModelObject *pModel = (CModelObject *)m_pModel;
; 1359 : 				pModel->GetEventPos( &vPos, 0 );	//   .

  00129	8b 8e 78 01 00
	00		 mov	 ecx, DWORD PTR [esi+376]
  0012f	6a 00		 push	 0
  00131	8d 54 24 1c	 lea	 edx, DWORD PTR _vPos$269538[esp+40]
  00135	52		 push	 edx
  00136	e8 00 00 00 00	 call	 ?GetEventPos@CModelObject@@QAEXPAUD3DXVECTOR3@@H@Z ; CModelObject::GetEventPos

; 1360 : 				D3DXVec3TransformCoord( &vPos, &vPos, GetMatrixWorldPtr() );

  0013b	8d 86 e4 00 00
	00		 lea	 eax, DWORD PTR [esi+228]
  00141	50		 push	 eax
  00142	8d 4c 24 1c	 lea	 ecx, DWORD PTR _vPos$269538[esp+40]
  00146	51		 push	 ecx
  00147	8b d1		 mov	 edx, ecx
  00149	52		 push	 edx
  0014a	e8 00 00 00 00	 call	 _D3DXVec3TransformCoord@12

; 1361 : 
; 1362 : 				if( IsValidObj(pTarget) )

  0014f	8b 7c 24 2c	 mov	 edi, DWORD PTR _pHitObj$[esp+32]
  00153	85 ff		 test	 edi, edi
  00155	0f 84 b6 00 00
	00		 je	 $L269534
  0015b	f6 47 04 01	 test	 BYTE PTR [edi+4], 1
  0015f	0f 85 ac 00 00
	00		 jne	 $L269534

; 1363 : 				{
; 1364 : 					OnDamage( nItemID, dwState, pTarget, &pTarget->GetPos() );		//     .

  00165	8d 87 60 01 00
	00		 lea	 eax, DWORD PTR [edi+352]
  0016b	8b 08		 mov	 ecx, DWORD PTR [eax]
  0016d	8b 50 04	 mov	 edx, DWORD PTR [eax+4]
  00170	8b 40 08	 mov	 eax, DWORD PTR [eax+8]
  00173	6a 01		 push	 1
  00175	89 4c 24 10	 mov	 DWORD PTR $T277306[esp+40], ecx
  00179	8d 4c 24 10	 lea	 ecx, DWORD PTR $T277306[esp+40]
  0017d	51		 push	 ecx
  0017e	57		 push	 edi
  0017f	68 00 00 03 00	 push	 196608			; 00030000H
  00184	53		 push	 ebx
  00185	8b ce		 mov	 ecx, esi
  00187	89 54 24 24	 mov	 DWORD PTR $T277306[esp+60], edx
  0018b	89 44 24 28	 mov	 DWORD PTR $T277306[esp+64], eax
  0018f	e8 00 00 00 00	 call	 ?OnDamage@CMover@@QAEHHKPAV1@PBUD3DXVECTOR3@@K@Z ; CMover::OnDamage

; 1365 : 					ItemProp *pSkillProp;
; 1366 : 					AddSkillProp *pAddSkillProp;
; 1367 : 					BOOL bFind	= GetSkillProp( &pSkillProp, &pAddSkillProp, SI_GEN_STUNSINGLE, 5, "SI_GEN_STUNSINGLE" );

  00194	8b 16		 mov	 edx, DWORD PTR [esi]
  00196	68 00 00 00 00	 push	 OFFSET FLAT:??_C@_0BC@HLPOJCHF@SI_GEN_STUNSINGLE?$AA@
  0019b	6a 05		 push	 5
  0019d	68 bd 00 00 00	 push	 189			; 000000bdH
  001a2	8d 44 24 38	 lea	 eax, DWORD PTR _pAddSkillProp$269544[esp+44]
  001a6	50		 push	 eax
  001a7	8d 4c 24 38	 lea	 ecx, DWORD PTR _pSkillProp$269543[esp+48]
  001ab	51		 push	 ecx
  001ac	8b ce		 mov	 ecx, esi
  001ae	ff 52 30	 call	 DWORD PTR [edx+48]

; 1368 : 					if( bFind )

  001b1	85 c0		 test	 eax, eax
  001b3	74 5c		 je	 SHORT $L269534

; 1369 : 					{
; 1370 : 						if( xRand() % 2 )

  001b5	a1 00 00 00 00	 mov	 eax, DWORD PTR ?g_next@@3KA ; g_next
  001ba	69 c0 6d 4e c6
	41		 imul	 eax, 1103515245		; 41c64e6dH
  001c0	05 39 30 00 00	 add	 eax, 12345		; 00003039H
  001c5	a8 01		 test	 al, 1
  001c7	a3 00 00 00 00	 mov	 DWORD PTR ?g_next@@3KA, eax ; g_next
  001cc	74 43		 je	 SHORT $L269534

; 1371 : 							DoApplySkill( pTarget, pSkillProp, pAddSkillProp , false );

  001ce	8b 54 24 2c	 mov	 edx, DWORD PTR _pAddSkillProp$269544[esp+32]
  001d2	8b 44 24 28	 mov	 eax, DWORD PTR _pSkillProp$269543[esp+32]
  001d6	6a 00		 push	 0
  001d8	6a 00		 push	 0
  001da	6a 00		 push	 0
  001dc	6a 00		 push	 0
  001de	52		 push	 edx
  001df	50		 push	 eax
  001e0	57		 push	 edi
  001e1	8b ce		 mov	 ecx, esi
  001e3	e8 00 00 00 00	 call	 ?DoApplySkill@CCtrl@@QAEHPAV1@PAUItemProp@@PAUAddSkillProp@@_NHHH@Z ; CCtrl::DoApplySkill
  001e8	5f		 pop	 edi
  001e9	5e		 pop	 esi
  001ea	5b		 pop	 ebx

; 1405 : #ifdef __CLIENT
; 1406 : 					CSfx *pSfx = CreateSfx( D3DDEVICE, XI_NPCMETEONYKER, vPos );
; 1407 : #endif	// __CLIENT
; 1408 : 				}
; 1409 : 			}
; 1410 : 		}
; 1411 : 		break;
; 1412 : 	}
; 1413 : }

  001eb	83 c4 18	 add	 esp, 24			; 00000018H
  001ee	c2 08 00	 ret	 8
$L269533:

; 1342 : 	{
; 1343 : 	case OBJSTA_ATK1:
; 1344 : 		{
; 1345 : 			if( IsValidObj(pHitObj) )

  001f1	8b 44 24 2c	 mov	 eax, DWORD PTR _pHitObj$[esp+32]
  001f5	85 c0		 test	 eax, eax
  001f7	74 18		 je	 SHORT $L269534
  001f9	f6 40 04 01	 test	 BYTE PTR [eax+4], 1
  001fd	75 12		 jne	 SHORT $L269534

; 1346 : 			{
; 1347 : 				OnDamage( nItemID, dwState, pHitObj );		

  001ff	6a 01		 push	 1
  00201	6a 00		 push	 0
  00203	50		 push	 eax
  00204	68 00 00 01 00	 push	 65536			; 00010000H
  00209	53		 push	 ebx
  0020a	8b ce		 mov	 ecx, esi
  0020c	e8 00 00 00 00	 call	 ?OnDamage@CMover@@QAEHHKPAV1@PBUD3DXVECTOR3@@K@Z ; CMover::OnDamage
$L269534:
  00211	5f		 pop	 edi
  00212	5e		 pop	 esi
  00213	5b		 pop	 ebx

; 1405 : #ifdef __CLIENT
; 1406 : 					CSfx *pSfx = CreateSfx( D3DDEVICE, XI_NPCMETEONYKER, vPos );
; 1407 : #endif	// __CLIENT
; 1408 : 				}
; 1409 : 			}
; 1410 : 		}
; 1411 : 		break;
; 1412 : 	}
; 1413 : }

  00214	83 c4 18	 add	 esp, 24			; 00000018H
  00217	c2 08 00	 ret	 8
?OnAttackMelee_Meteonyker@CMover@@QAEXKPAV1@@Z ENDP	; CMover::OnAttackMelee_Meteonyker
_TEXT	ENDS
PUBLIC	??_C@_0BD@CFPFEACI@OnAttackMelee_Bear?$AA@	; `string'
PUBLIC	__real@3fa66666
PUBLIC	__real@41200000
PUBLIC	?OnAttackMelee_Bear@CMover@@QAEXKPAV1@@Z	; CMover::OnAttackMelee_Bear
EXTRN	?AddSetScale@CUserMng@@QAEXPAVCMover@@M@Z:NEAR	; CUserMng::AddSetScale
EXTRN	?SetScale@CObj@@QAEXABUD3DXVECTOR3@@@Z:NEAR	; CObj::SetScale
;	COMDAT ??_C@_0BD@CFPFEACI@OnAttackMelee_Bear?$AA@
; File c:\documents and settings\test\mes documents\source\virtuos_v17\build\program\dx_sdk\d3dx9math.inl
CONST	SEGMENT
??_C@_0BD@CFPFEACI@OnAttackMelee_Bear?$AA@ DB 'OnAttackMelee_Bear', 00H ; `string'
CONST	ENDS
;	COMDAT __real@3fa66666
CONST	SEGMENT
__real@3fa66666 DD 03fa66666r			; 1.3
CONST	ENDS
;	COMDAT __real@41200000
CONST	SEGMENT
__real@41200000 DD 041200000r			; 10
; Function compile flags: /Ogty
; File c:\documents and settings\test\mes documents\source\virtuos_v17\build\program\_common\moveractevent.cpp
CONST	ENDS
;	COMDAT ?OnAttackMelee_Bear@CMover@@QAEXKPAV1@@Z
_TEXT	SEGMENT
_pSkillProp$269572 = -16				; size = 4
_vScale$269604 = -12					; size = 12
_pSkillProp$269591 = 8					; size = 4
_pSkillProp$269585 = 8					; size = 4
_pSkillProp$269579 = 8					; size = 4
_pAddSkillProp$269573 = 8				; size = 4
_dwState$ = 8						; size = 4
_pAddSkillProp$269592 = 12				; size = 4
_pAddSkillProp$269586 = 12				; size = 4
_pAddSkillProp$269580 = 12				; size = 4
_pHitObj$ = 12						; size = 4
?OnAttackMelee_Bear@CMover@@QAEXKPAV1@@Z PROC NEAR	; CMover::OnAttackMelee_Bear, COMDAT
; _this$ = ecx

; 1417 : {

  00000	83 ec 10	 sub	 esp, 16			; 00000010H
  00003	53		 push	 ebx
  00004	56		 push	 esi
  00005	8b f1		 mov	 esi, ecx

; 1418 : 	int		nItemID = GetActParam( 1 );	//   

  00007	8b 9e a8 12 00
	00		 mov	 ebx, DWORD PTR [esi+4776]
  0000d	57		 push	 edi

; 1419 : 
; 1420 : 	CModelObject *pModel = (CModelObject *)m_pModel;

  0000e	8b be 78 01 00
	00		 mov	 edi, DWORD PTR [esi+376]

; 1421 : 	
; 1422 : #ifdef __WORLDSERVER
; 1423 : 	UpdateMatrix();		//         .

  00014	e8 00 00 00 00	 call	 ?UpdateMatrix@CObj@@QAEXXZ ; CObj::UpdateMatrix

; 1424 : 	pModel->UpdateMatrixBone();		//     GetEventPos()      .

  00019	8b 87 8c 2a 00
	00		 mov	 eax, DWORD PTR [edi+10892]
  0001f	85 c0		 test	 eax, eax
  00021	74 3d		 je	 SHORT $L277362
  00023	8b 87 c4 00 00
	00		 mov	 eax, DWORD PTR [edi+196]
  00029	8b 8f c0 00 00
	00		 mov	 ecx, DWORD PTR [edi+192]
  0002f	8b 97 98 2a 00
	00		 mov	 edx, DWORD PTR [edi+10904]
  00035	50		 push	 eax
  00036	51		 push	 ecx
  00037	52		 push	 edx
  00038	8b cf		 mov	 ecx, edi
  0003a	e8 00 00 00 00	 call	 ?GetNextFrame@CModel@@QAEHXZ ; CModel::GetNextFrame
  0003f	8b 8f 88 2a 00
	00		 mov	 ecx, DWORD PTR [edi+10888]
  00045	8b 97 9c 2a 00
	00		 mov	 edx, DWORD PTR [edi+10908]
  0004b	50		 push	 eax
  0004c	8b 87 a0 00 00
	00		 mov	 eax, DWORD PTR [edi+160]
  00052	50		 push	 eax
  00053	51		 push	 ecx
  00054	8b 8f 8c 2a 00
	00		 mov	 ecx, DWORD PTR [edi+10892]
  0005a	52		 push	 edx
  0005b	e8 00 00 00 00	 call	 ?AnimateBone@CMotion@@QAEXPAUD3DXMATRIX@@PAV1@MHHHM@Z ; CMotion::AnimateBone
$L277362:

; 1425 : #endif // WorldServer
; 1426 : 	
; 1427 : 	switch( dwState )

  00060	8b 44 24 20	 mov	 eax, DWORD PTR _dwState$[esp+24]
  00064	3d 00 00 03 00	 cmp	 eax, 196608		; 00030000H
  00069	0f 87 40 01 00
	00		 ja	 $L277356
  0006f	0f 84 8d 00 00
	00		 je	 $L269577
  00075	3d 00 00 01 00	 cmp	 eax, 65536		; 00010000H
  0007a	74 2a		 je	 SHORT $L269571
  0007c	3d 00 00 02 00	 cmp	 eax, 131072		; 00020000H
  00081	0f 85 e5 03 00
	00		 jne	 $L269606

; 1439 : 	#endif // WorldServer
; 1440 : 		}
; 1441 : 		break;
; 1442 : 	case OBJSTA_ATK2:	
; 1443 : 		{
; 1444 : 	#ifdef __WORLDSERVER
; 1445 : 			OnDamage( nItemID, dwState, pHitObj );					

  00087	8b 44 24 24	 mov	 eax, DWORD PTR _pHitObj$[esp+24]
  0008b	6a 01		 push	 1
  0008d	6a 00		 push	 0
  0008f	50		 push	 eax
  00090	68 00 00 02 00	 push	 131072			; 00020000H
  00095	53		 push	 ebx
  00096	8b ce		 mov	 ecx, esi
  00098	e8 00 00 00 00	 call	 ?OnDamage@CMover@@QAEHHKPAV1@PBUD3DXVECTOR3@@K@Z ; CMover::OnDamage
  0009d	5f		 pop	 edi
  0009e	5e		 pop	 esi
  0009f	5b		 pop	 ebx

; 1554 : 			}
; 1555 : 			
; 1556 : #endif //__WORLDSERVER			
; 1557 : 		}
; 1558 : 		break;
; 1559 : 	}
; 1560 : }

  000a0	83 c4 10	 add	 esp, 16			; 00000010H
  000a3	c2 08 00	 ret	 8
$L269571:

; 1428 : 	{
; 1429 : 	case OBJSTA_ATK1:	
; 1430 : 		{
; 1431 : 	#ifdef __WORLDSERVER
; 1432 : 			ItemProp *pSkillProp;
; 1433 : 			AddSkillProp *pAddSkillProp;
; 1434 : 			BOOL bSuccess = GetSkillProp( &pSkillProp, &pAddSkillProp, SI_GEN_ATKSPELL_RATEGROUP, 5, "OnAttackMelee_BigMuscle" );

  000a6	8b 16		 mov	 edx, DWORD PTR [esi]
  000a8	68 00 00 00 00	 push	 OFFSET FLAT:??_C@_0BI@NKGAIBCK@OnAttackMelee_BigMuscle?$AA@
  000ad	6a 05		 push	 5
  000af	68 ea 00 00 00	 push	 234			; 000000eaH
  000b4	8d 44 24 2c	 lea	 eax, DWORD PTR _pAddSkillProp$269573[esp+36]
  000b8	50		 push	 eax
  000b9	8d 4c 24 1c	 lea	 ecx, DWORD PTR _pSkillProp$269572[esp+44]
  000bd	51		 push	 ecx
  000be	8b ce		 mov	 ecx, esi
  000c0	ff 52 30	 call	 DWORD PTR [edx+48]

; 1435 : 			if( bSuccess )

  000c3	85 c0		 test	 eax, eax
  000c5	74 1c		 je	 SHORT $L269575

; 1436 : 				ApplySkillAround( this, OBJTYPE_PLAYER, pSkillProp, pAddSkillProp , false );			

  000c7	8b 54 24 20	 mov	 edx, DWORD PTR _pAddSkillProp$269573[esp+24]
  000cb	8b 44 24 0c	 mov	 eax, DWORD PTR _pSkillProp$269572[esp+28]
  000cf	6a 00		 push	 0
  000d1	6a 00		 push	 0
  000d3	6a 00		 push	 0
  000d5	6a 00		 push	 0
  000d7	52		 push	 edx
  000d8	50		 push	 eax
  000d9	6a 01		 push	 1
  000db	56		 push	 esi
  000dc	8b ce		 mov	 ecx, esi
  000de	e8 00 00 00 00	 call	 ?ApplySkillAround@CCtrl@@QAEXPAV1@HPAUItemProp@@PAUAddSkillProp@@_NHMH@Z ; CCtrl::ApplySkillAround
$L269575:

; 1437 : 			
; 1438 : 			OnDamage( nItemID, dwState, pHitObj );					

  000e3	8b 4c 24 24	 mov	 ecx, DWORD PTR _pHitObj$[esp+24]
  000e7	6a 01		 push	 1
  000e9	6a 00		 push	 0
  000eb	51		 push	 ecx
  000ec	68 00 00 01 00	 push	 65536			; 00010000H
  000f1	53		 push	 ebx
  000f2	8b ce		 mov	 ecx, esi
  000f4	e8 00 00 00 00	 call	 ?OnDamage@CMover@@QAEHHKPAV1@PBUD3DXVECTOR3@@K@Z ; CMover::OnDamage
  000f9	5f		 pop	 edi
  000fa	5e		 pop	 esi
  000fb	5b		 pop	 ebx

; 1554 : 			}
; 1555 : 			
; 1556 : #endif //__WORLDSERVER			
; 1557 : 		}
; 1558 : 		break;
; 1559 : 	}
; 1560 : }

  000fc	83 c4 10	 add	 esp, 16			; 00000010H
  000ff	c2 08 00	 ret	 8
$L269577:

; 1446 : 	#endif // WorldServer
; 1447 : 		}
; 1448 : 		break;
; 1449 : 	case OBJSTA_ATK3:		
; 1450 : 		{
; 1451 : 			if( m_pActMover->m_nMotionHitCount == 0 )

  00102	8b 96 3c 02 00
	00		 mov	 edx, DWORD PTR [esi+572]
  00108	8b 82 9c 00 00
	00		 mov	 eax, DWORD PTR [edx+156]
  0010e	85 c0		 test	 eax, eax
  00110	75 4a		 jne	 SHORT $L269578

; 1452 : 			{				
; 1453 : 	#ifdef __CLIENT
; 1454 : 				CSfx *pSfx = CreateSfx( D3DDEVICE, XI_SKILL_CIRCLE_DUST, GetPos() );			
; 1455 : 				if( pSfx )
; 1456 : 					pSfx->SetScale( D3DXVECTOR3( 12.0f, 12.0f, 12.0f ) );
; 1457 : 				
; 1458 : 				PLAYSND( SND_PC_SKILLD_HITOFPENYA );//, &v2 );
; 1459 : 	#endif //__CLIENT 			
; 1460 : 				
; 1461 : 	#ifdef __WORLDSERVER
; 1462 : 				ItemProp *pSkillProp;
; 1463 : 				AddSkillProp *pAddSkillProp;
; 1464 : 				BOOL bSuccess = GetSkillProp( &pSkillProp, &pAddSkillProp, SI_GEN_KNOCK_BACK, 4, "OnAttackMelee_BigMuscle" );

  00112	8b 06		 mov	 eax, DWORD PTR [esi]
  00114	68 00 00 00 00	 push	 OFFSET FLAT:??_C@_0BI@NKGAIBCK@OnAttackMelee_BigMuscle?$AA@
  00119	6a 04		 push	 4
  0011b	68 e0 00 00 00	 push	 224			; 000000e0H
  00120	8d 4c 24 30	 lea	 ecx, DWORD PTR _pAddSkillProp$269580[esp+36]
  00124	51		 push	 ecx
  00125	8d 54 24 30	 lea	 edx, DWORD PTR _pSkillProp$269579[esp+40]
  00129	52		 push	 edx
  0012a	8b ce		 mov	 ecx, esi
  0012c	ff 50 30	 call	 DWORD PTR [eax+48]

; 1465 : 				if( bSuccess )

  0012f	85 c0		 test	 eax, eax
  00131	0f 84 35 03 00
	00		 je	 $L269606

; 1466 : 					ApplySkillAround( this, OBJTYPE_PLAYER, pSkillProp, pAddSkillProp , false );

  00137	8b 44 24 24	 mov	 eax, DWORD PTR _pAddSkillProp$269580[esp+24]
  0013b	8b 4c 24 20	 mov	 ecx, DWORD PTR _pSkillProp$269579[esp+24]
  0013f	6a 00		 push	 0
  00141	6a 00		 push	 0
  00143	6a 00		 push	 0
  00145	6a 00		 push	 0
  00147	50		 push	 eax
  00148	51		 push	 ecx
  00149	6a 01		 push	 1
  0014b	56		 push	 esi
  0014c	8b ce		 mov	 ecx, esi
  0014e	e8 00 00 00 00	 call	 ?ApplySkillAround@CCtrl@@QAEXPAV1@HPAUItemProp@@PAUAddSkillProp@@_NHMH@Z ; CCtrl::ApplySkillAround
  00153	5f		 pop	 edi
  00154	5e		 pop	 esi
  00155	5b		 pop	 ebx

; 1554 : 			}
; 1555 : 			
; 1556 : #endif //__WORLDSERVER			
; 1557 : 		}
; 1558 : 		break;
; 1559 : 	}
; 1560 : }

  00156	83 c4 10	 add	 esp, 16			; 00000010H
  00159	c2 08 00	 ret	 8
$L269578:

; 1467 : 	#endif //__WORLDSERVER			
; 1468 : 			}
; 1469 : 			else
; 1470 : 			if( m_pActMover->m_nMotionHitCount == 1 )

  0015c	83 f8 01	 cmp	 eax, 1
  0015f	0f 85 07 03 00
	00		 jne	 $L269606

; 1471 : 			{
; 1472 : 	#ifdef __CLIENT
; 1473 : 				PLAYSND( SND_PC_BOSS_STUN );
; 1474 : 	#endif //__CLIENT
; 1475 : 				
; 1476 : 	#ifdef __WORLDSERVER
; 1477 : 				ItemProp *pSkillProp;
; 1478 : 				AddSkillProp *pAddSkillProp;
; 1479 : 				BOOL bSuccess = GetSkillProp( &pSkillProp, &pAddSkillProp, SI_GEN_STUNGROUP, 5, "OnAttackMelee_Bear" );

  00165	8b 16		 mov	 edx, DWORD PTR [esi]
  00167	68 00 00 00 00	 push	 OFFSET FLAT:??_C@_0BD@CFPFEACI@OnAttackMelee_Bear?$AA@
  0016c	6a 05		 push	 5
  0016e	68 be 00 00 00	 push	 190			; 000000beH
  00173	8d 44 24 30	 lea	 eax, DWORD PTR _pAddSkillProp$269586[esp+36]
  00177	50		 push	 eax
  00178	8d 4c 24 30	 lea	 ecx, DWORD PTR _pSkillProp$269585[esp+40]
  0017c	51		 push	 ecx
  0017d	8b ce		 mov	 ecx, esi
  0017f	ff 52 30	 call	 DWORD PTR [edx+48]

; 1480 : 				if( bSuccess )

  00182	85 c0		 test	 eax, eax
  00184	0f 84 e2 02 00
	00		 je	 $L269606

; 1481 : 					ApplySkillAround( this, OBJTYPE_PLAYER, pSkillProp, pAddSkillProp , false );				

  0018a	8b 54 24 24	 mov	 edx, DWORD PTR _pAddSkillProp$269586[esp+24]
  0018e	8b 44 24 20	 mov	 eax, DWORD PTR _pSkillProp$269585[esp+24]
  00192	6a 00		 push	 0
  00194	6a 00		 push	 0
  00196	6a 00		 push	 0
  00198	6a 00		 push	 0
  0019a	52		 push	 edx
  0019b	50		 push	 eax
  0019c	6a 01		 push	 1
  0019e	56		 push	 esi
  0019f	8b ce		 mov	 ecx, esi
  001a1	e8 00 00 00 00	 call	 ?ApplySkillAround@CCtrl@@QAEXPAV1@HPAUItemProp@@PAUAddSkillProp@@_NHMH@Z ; CCtrl::ApplySkillAround
  001a6	5f		 pop	 edi
  001a7	5e		 pop	 esi
  001a8	5b		 pop	 ebx

; 1554 : 			}
; 1555 : 			
; 1556 : #endif //__WORLDSERVER			
; 1557 : 		}
; 1558 : 		break;
; 1559 : 	}
; 1560 : }

  001a9	83 c4 10	 add	 esp, 16			; 00000010H
  001ac	c2 08 00	 ret	 8
$L277356:

; 1425 : #endif // WorldServer
; 1426 : 	
; 1427 : 	switch( dwState )

  001af	3d 00 00 04 00	 cmp	 eax, 262144		; 00040000H
  001b4	0f 85 b2 02 00
	00		 jne	 $L269606

; 1482 : 	#endif //__WORLDSERVER			
; 1483 : 			}
; 1484 : 		}
; 1485 : 		break;
; 1486 : 	case OBJSTA_ATK4:	
; 1487 : 		{	
; 1488 : #ifdef __WORLDSERVER
; 1489 : 			ItemProp *pSkillProp;
; 1490 : 			AddSkillProp *pAddSkillProp;
; 1491 : 			BOOL bSuccess;
; 1492 : 	
; 1493 : 			//  
; 1494 : 			bSuccess = GetSkillProp( &pSkillProp, &pAddSkillProp, SI_ASS_HEAL_HEALING, 1, "OnAttackMelee_BigMuscle" );

  001ba	8b 16		 mov	 edx, DWORD PTR [esi]
  001bc	68 00 00 00 00	 push	 OFFSET FLAT:??_C@_0BI@NKGAIBCK@OnAttackMelee_BigMuscle?$AA@
  001c1	6a 01		 push	 1
  001c3	6a 2c		 push	 44			; 0000002cH
  001c5	8d 44 24 30	 lea	 eax, DWORD PTR _pAddSkillProp$269592[esp+36]
  001c9	50		 push	 eax
  001ca	8d 4c 24 30	 lea	 ecx, DWORD PTR _pSkillProp$269591[esp+40]
  001ce	51		 push	 ecx
  001cf	8b ce		 mov	 ecx, esi
  001d1	ff 52 30	 call	 DWORD PTR [edx+48]

; 1495 : 			if( bSuccess )

  001d4	85 c0		 test	 eax, eax
  001d6	74 1a		 je	 SHORT $L269594

; 1496 : 				DoApplySkill( this, pSkillProp, pAddSkillProp , false );

  001d8	8b 54 24 24	 mov	 edx, DWORD PTR _pAddSkillProp$269592[esp+24]
  001dc	8b 44 24 20	 mov	 eax, DWORD PTR _pSkillProp$269591[esp+24]
  001e0	6a 00		 push	 0
  001e2	6a 00		 push	 0
  001e4	6a 00		 push	 0
  001e6	6a 00		 push	 0
  001e8	52		 push	 edx
  001e9	50		 push	 eax
  001ea	56		 push	 esi
  001eb	8b ce		 mov	 ecx, esi
  001ed	e8 00 00 00 00	 call	 ?DoApplySkill@CCtrl@@QAEHPAV1@PAUItemProp@@PAUAddSkillProp@@_NHHH@Z ; CCtrl::DoApplySkill
$L269594:

; 1497 : 
; 1498 : 			//
; 1499 : 			bSuccess = GetSkillProp( &pSkillProp, &pAddSkillProp, SI_MUSHMOOT_BERSERK, 1, "OnAttackMelee_Bear" );

  001f2	8b 16		 mov	 edx, DWORD PTR [esi]
  001f4	68 00 00 00 00	 push	 OFFSET FLAT:??_C@_0BD@CFPFEACI@OnAttackMelee_Bear?$AA@
  001f9	6a 01		 push	 1
  001fb	68 2f 01 00 00	 push	 303			; 0000012fH
  00200	8d 44 24 30	 lea	 eax, DWORD PTR _pAddSkillProp$269592[esp+36]
  00204	50		 push	 eax
  00205	8d 4c 24 30	 lea	 ecx, DWORD PTR _pSkillProp$269591[esp+40]
  00209	51		 push	 ecx
  0020a	8b ce		 mov	 ecx, esi
  0020c	ff 52 30	 call	 DWORD PTR [edx+48]

; 1500 : 			if( bSuccess )

  0020f	85 c0		 test	 eax, eax
  00211	74 1a		 je	 SHORT $L269595

; 1501 : 				DoApplySkill( this, pSkillProp, pAddSkillProp , false );

  00213	8b 54 24 24	 mov	 edx, DWORD PTR _pAddSkillProp$269592[esp+24]
  00217	8b 44 24 20	 mov	 eax, DWORD PTR _pSkillProp$269591[esp+24]
  0021b	6a 00		 push	 0
  0021d	6a 00		 push	 0
  0021f	6a 00		 push	 0
  00221	6a 00		 push	 0
  00223	52		 push	 edx
  00224	50		 push	 eax
  00225	56		 push	 esi
  00226	8b ce		 mov	 ecx, esi
  00228	e8 00 00 00 00	 call	 ?DoApplySkill@CCtrl@@QAEHPAV1@PAUItemProp@@PAUAddSkillProp@@_NHHH@Z ; CCtrl::DoApplySkill
$L269595:

; 1502 : 
; 1503 : 			//  
; 1504 : 			bSuccess = GetSkillProp( &pSkillProp, &pAddSkillProp, SI_MUSHMOOT_WOODENSKIN, 1, "OnAttackMelee_Bear" );

  0022d	8b 16		 mov	 edx, DWORD PTR [esi]
  0022f	68 00 00 00 00	 push	 OFFSET FLAT:??_C@_0BD@CFPFEACI@OnAttackMelee_Bear?$AA@
  00234	6a 01		 push	 1
  00236	68 30 01 00 00	 push	 304			; 00000130H
  0023b	8d 44 24 30	 lea	 eax, DWORD PTR _pAddSkillProp$269592[esp+36]
  0023f	50		 push	 eax
  00240	8d 4c 24 30	 lea	 ecx, DWORD PTR _pSkillProp$269591[esp+40]
  00244	51		 push	 ecx
  00245	8b ce		 mov	 ecx, esi
  00247	ff 52 30	 call	 DWORD PTR [edx+48]

; 1505 : 			if( bSuccess )

  0024a	85 c0		 test	 eax, eax
  0024c	74 1a		 je	 SHORT $L269596

; 1506 : 				DoApplySkill( this, pSkillProp, pAddSkillProp , false );

  0024e	8b 54 24 24	 mov	 edx, DWORD PTR _pAddSkillProp$269592[esp+24]
  00252	8b 44 24 20	 mov	 eax, DWORD PTR _pSkillProp$269591[esp+24]
  00256	6a 00		 push	 0
  00258	6a 00		 push	 0
  0025a	6a 00		 push	 0
  0025c	6a 00		 push	 0
  0025e	52		 push	 edx
  0025f	50		 push	 eax
  00260	56		 push	 esi
  00261	8b ce		 mov	 ecx, esi
  00263	e8 00 00 00 00	 call	 ?DoApplySkill@CCtrl@@QAEHPAV1@PAUItemProp@@PAUAddSkillProp@@_NHHH@Z ; CCtrl::DoApplySkill
$L269596:

; 1507 : 			
; 1508 : 			// 
; 1509 : 			bSuccess = GetSkillProp( &pSkillProp, &pAddSkillProp, SI_ASS_CHEER_HEAPUP, 1, "OnAttackMelee_BigMuscle" );

  00268	8b 16		 mov	 edx, DWORD PTR [esi]
  0026a	68 00 00 00 00	 push	 OFFSET FLAT:??_C@_0BI@NKGAIBCK@OnAttackMelee_BigMuscle?$AA@
  0026f	6a 01		 push	 1
  00271	6a 31		 push	 49			; 00000031H
  00273	8d 44 24 30	 lea	 eax, DWORD PTR _pAddSkillProp$269592[esp+36]
  00277	50		 push	 eax
  00278	8d 4c 24 30	 lea	 ecx, DWORD PTR _pSkillProp$269591[esp+40]
  0027c	51		 push	 ecx
  0027d	8b ce		 mov	 ecx, esi
  0027f	ff 52 30	 call	 DWORD PTR [edx+48]

; 1510 : 			if( bSuccess )

  00282	85 c0		 test	 eax, eax
  00284	74 1a		 je	 SHORT $L269597

; 1511 : 				DoApplySkill( this, pSkillProp, pAddSkillProp , false );

  00286	8b 54 24 24	 mov	 edx, DWORD PTR _pAddSkillProp$269592[esp+24]
  0028a	8b 44 24 20	 mov	 eax, DWORD PTR _pSkillProp$269591[esp+24]
  0028e	6a 00		 push	 0
  00290	6a 00		 push	 0
  00292	6a 00		 push	 0
  00294	6a 00		 push	 0
  00296	52		 push	 edx
  00297	50		 push	 eax
  00298	56		 push	 esi
  00299	8b ce		 mov	 ecx, esi
  0029b	e8 00 00 00 00	 call	 ?DoApplySkill@CCtrl@@QAEHPAV1@PAUItemProp@@PAUAddSkillProp@@_NHHH@Z ; CCtrl::DoApplySkill
$L269597:

; 1512 : 
; 1513 : 			//
; 1514 : 			bSuccess = GetSkillProp( &pSkillProp, &pAddSkillProp, SI_ASS_CHEER_CANNONBALL, 1, "OnAttackMelee_BigMuscle" );

  002a0	8b 16		 mov	 edx, DWORD PTR [esi]
  002a2	68 00 00 00 00	 push	 OFFSET FLAT:??_C@_0BI@NKGAIBCK@OnAttackMelee_BigMuscle?$AA@
  002a7	6a 01		 push	 1
  002a9	6a 32		 push	 50			; 00000032H
  002ab	8d 44 24 30	 lea	 eax, DWORD PTR _pAddSkillProp$269592[esp+36]
  002af	50		 push	 eax
  002b0	8d 4c 24 30	 lea	 ecx, DWORD PTR _pSkillProp$269591[esp+40]
  002b4	51		 push	 ecx
  002b5	8b ce		 mov	 ecx, esi
  002b7	ff 52 30	 call	 DWORD PTR [edx+48]

; 1515 : 			if( bSuccess )

  002ba	85 c0		 test	 eax, eax
  002bc	74 1a		 je	 SHORT $L269598

; 1516 : 				DoApplySkill( this, pSkillProp, pAddSkillProp , false );

  002be	8b 54 24 24	 mov	 edx, DWORD PTR _pAddSkillProp$269592[esp+24]
  002c2	8b 44 24 20	 mov	 eax, DWORD PTR _pSkillProp$269591[esp+24]
  002c6	6a 00		 push	 0
  002c8	6a 00		 push	 0
  002ca	6a 00		 push	 0
  002cc	6a 00		 push	 0
  002ce	52		 push	 edx
  002cf	50		 push	 eax
  002d0	56		 push	 esi
  002d1	8b ce		 mov	 ecx, esi
  002d3	e8 00 00 00 00	 call	 ?DoApplySkill@CCtrl@@QAEHPAV1@PAUItemProp@@PAUAddSkillProp@@_NHHH@Z ; CCtrl::DoApplySkill
$L269598:

; 1517 : 
; 1518 : 			//
; 1519 : 			bSuccess = GetSkillProp( &pSkillProp, &pAddSkillProp, SI_ASS_CHEER_MENTALSIGN, 1, "OnAttackMelee_BigMuscle" );

  002d8	8b 16		 mov	 edx, DWORD PTR [esi]
  002da	68 00 00 00 00	 push	 OFFSET FLAT:??_C@_0BI@NKGAIBCK@OnAttackMelee_BigMuscle?$AA@
  002df	6a 01		 push	 1
  002e1	6a 34		 push	 52			; 00000034H
  002e3	8d 44 24 30	 lea	 eax, DWORD PTR _pAddSkillProp$269592[esp+36]
  002e7	50		 push	 eax
  002e8	8d 4c 24 30	 lea	 ecx, DWORD PTR _pSkillProp$269591[esp+40]
  002ec	51		 push	 ecx
  002ed	8b ce		 mov	 ecx, esi
  002ef	ff 52 30	 call	 DWORD PTR [edx+48]

; 1520 : 			if( bSuccess )

  002f2	85 c0		 test	 eax, eax
  002f4	74 1a		 je	 SHORT $L269599

; 1521 : 				DoApplySkill( this, pSkillProp, pAddSkillProp , false );

  002f6	8b 54 24 24	 mov	 edx, DWORD PTR _pAddSkillProp$269592[esp+24]
  002fa	8b 44 24 20	 mov	 eax, DWORD PTR _pSkillProp$269591[esp+24]
  002fe	6a 00		 push	 0
  00300	6a 00		 push	 0
  00302	6a 00		 push	 0
  00304	6a 00		 push	 0
  00306	52		 push	 edx
  00307	50		 push	 eax
  00308	56		 push	 esi
  00309	8b ce		 mov	 ecx, esi
  0030b	e8 00 00 00 00	 call	 ?DoApplySkill@CCtrl@@QAEHPAV1@PAUItemProp@@PAUAddSkillProp@@_NHHH@Z ; CCtrl::DoApplySkill
$L269599:

; 1522 : 
; 1523 : 			//
; 1524 : 			bSuccess = GetSkillProp( &pSkillProp, &pAddSkillProp, SI_ASS_CHEER_BEEFUP, 1, "OnAttackMelee_BigMuscle" );

  00310	8b 16		 mov	 edx, DWORD PTR [esi]
  00312	68 00 00 00 00	 push	 OFFSET FLAT:??_C@_0BI@NKGAIBCK@OnAttackMelee_BigMuscle?$AA@
  00317	6a 01		 push	 1
  00319	6a 35		 push	 53			; 00000035H
  0031b	8d 44 24 30	 lea	 eax, DWORD PTR _pAddSkillProp$269592[esp+36]
  0031f	50		 push	 eax
  00320	8d 4c 24 30	 lea	 ecx, DWORD PTR _pSkillProp$269591[esp+40]
  00324	51		 push	 ecx
  00325	8b ce		 mov	 ecx, esi
  00327	ff 52 30	 call	 DWORD PTR [edx+48]

; 1525 : 			if( bSuccess )

  0032a	85 c0		 test	 eax, eax
  0032c	74 1a		 je	 SHORT $L269600

; 1526 : 				DoApplySkill( this, pSkillProp, pAddSkillProp , false );

  0032e	8b 54 24 24	 mov	 edx, DWORD PTR _pAddSkillProp$269592[esp+24]
  00332	8b 44 24 20	 mov	 eax, DWORD PTR _pSkillProp$269591[esp+24]
  00336	6a 00		 push	 0
  00338	6a 00		 push	 0
  0033a	6a 00		 push	 0
  0033c	6a 00		 push	 0
  0033e	52		 push	 edx
  0033f	50		 push	 eax
  00340	56		 push	 esi
  00341	8b ce		 mov	 ecx, esi
  00343	e8 00 00 00 00	 call	 ?DoApplySkill@CCtrl@@QAEHPAV1@PAUItemProp@@PAUAddSkillProp@@_NHHH@Z ; CCtrl::DoApplySkill
$L269600:

; 1527 : 			
; 1528 : 			
; 1529 : 			//
; 1530 : 			bSuccess = GetSkillProp( &pSkillProp, &pAddSkillProp, SI_ASS_CHEER_CATSREFLEX, 1, "OnAttackMelee_BigMuscle" );

  00348	8b 16		 mov	 edx, DWORD PTR [esi]
  0034a	68 00 00 00 00	 push	 OFFSET FLAT:??_C@_0BI@NKGAIBCK@OnAttackMelee_BigMuscle?$AA@
  0034f	6a 01		 push	 1
  00351	6a 73		 push	 115			; 00000073H
  00353	8d 44 24 30	 lea	 eax, DWORD PTR _pAddSkillProp$269592[esp+36]
  00357	50		 push	 eax
  00358	8d 4c 24 30	 lea	 ecx, DWORD PTR _pSkillProp$269591[esp+40]
  0035c	51		 push	 ecx
  0035d	8b ce		 mov	 ecx, esi
  0035f	ff 52 30	 call	 DWORD PTR [edx+48]

; 1531 : 			if( bSuccess )

  00362	85 c0		 test	 eax, eax
  00364	74 1a		 je	 SHORT $L269601

; 1532 : 				DoApplySkill( this, pSkillProp, pAddSkillProp , false );

  00366	8b 54 24 24	 mov	 edx, DWORD PTR _pAddSkillProp$269592[esp+24]
  0036a	8b 44 24 20	 mov	 eax, DWORD PTR _pSkillProp$269591[esp+24]
  0036e	6a 00		 push	 0
  00370	6a 00		 push	 0
  00372	6a 00		 push	 0
  00374	6a 00		 push	 0
  00376	52		 push	 edx
  00377	50		 push	 eax
  00378	56		 push	 esi
  00379	8b ce		 mov	 ecx, esi
  0037b	e8 00 00 00 00	 call	 ?DoApplySkill@CCtrl@@QAEHPAV1@PAUItemProp@@PAUAddSkillProp@@_NHHH@Z ; CCtrl::DoApplySkill
$L269601:

; 1533 : 
; 1534 : 			//
; 1535 : 			bSuccess = GetSkillProp( &pSkillProp, &pAddSkillProp, SI_ASS_CHEER_ACCURACY, 1, "OnAttackMelee_BigMuscle" );

  00380	8b 16		 mov	 edx, DWORD PTR [esi]
  00382	68 00 00 00 00	 push	 OFFSET FLAT:??_C@_0BI@NKGAIBCK@OnAttackMelee_BigMuscle?$AA@
  00387	6a 01		 push	 1
  00389	6a 74		 push	 116			; 00000074H
  0038b	8d 44 24 30	 lea	 eax, DWORD PTR _pAddSkillProp$269592[esp+36]
  0038f	50		 push	 eax
  00390	8d 4c 24 30	 lea	 ecx, DWORD PTR _pSkillProp$269591[esp+40]
  00394	51		 push	 ecx
  00395	8b ce		 mov	 ecx, esi
  00397	ff 52 30	 call	 DWORD PTR [edx+48]

; 1536 : 			if( bSuccess )

  0039a	85 c0		 test	 eax, eax
  0039c	74 1a		 je	 SHORT $L269602

; 1537 : 				DoApplySkill( this, pSkillProp, pAddSkillProp , false );

  0039e	8b 54 24 24	 mov	 edx, DWORD PTR _pAddSkillProp$269592[esp+24]
  003a2	8b 44 24 20	 mov	 eax, DWORD PTR _pSkillProp$269591[esp+24]
  003a6	6a 00		 push	 0
  003a8	6a 00		 push	 0
  003aa	6a 00		 push	 0
  003ac	6a 00		 push	 0
  003ae	52		 push	 edx
  003af	50		 push	 eax
  003b0	56		 push	 esi
  003b1	8b ce		 mov	 ecx, esi
  003b3	e8 00 00 00 00	 call	 ?DoApplySkill@CCtrl@@QAEHPAV1@PAUItemProp@@PAUAddSkillProp@@_NHHH@Z ; CCtrl::DoApplySkill
$L269602:

; 1538 : 
; 1539 : 			//
; 1540 : 			bSuccess = GetSkillProp( &pSkillProp, &pAddSkillProp, SI_ASS_CHEER_HASTE, 1, "OnAttackMelee_BigMuscle" );

  003b8	8b 16		 mov	 edx, DWORD PTR [esi]
  003ba	68 00 00 00 00	 push	 OFFSET FLAT:??_C@_0BI@NKGAIBCK@OnAttackMelee_BigMuscle?$AA@
  003bf	6a 01		 push	 1
  003c1	6a 14		 push	 20			; 00000014H
  003c3	8d 44 24 30	 lea	 eax, DWORD PTR _pAddSkillProp$269592[esp+36]
  003c7	50		 push	 eax
  003c8	8d 4c 24 30	 lea	 ecx, DWORD PTR _pSkillProp$269591[esp+40]
  003cc	51		 push	 ecx
  003cd	8b ce		 mov	 ecx, esi
  003cf	ff 52 30	 call	 DWORD PTR [edx+48]

; 1541 : 			if( bSuccess )

  003d2	85 c0		 test	 eax, eax
  003d4	74 1a		 je	 SHORT $L269603

; 1542 : 				DoApplySkill( this, pSkillProp, pAddSkillProp , false );

  003d6	8b 54 24 24	 mov	 edx, DWORD PTR _pAddSkillProp$269592[esp+24]
  003da	8b 44 24 20	 mov	 eax, DWORD PTR _pSkillProp$269591[esp+24]
  003de	6a 00		 push	 0
  003e0	6a 00		 push	 0
  003e2	6a 00		 push	 0
  003e4	6a 00		 push	 0
  003e6	52		 push	 edx
  003e7	50		 push	 eax
  003e8	56		 push	 esi
  003e9	8b ce		 mov	 ecx, esi
  003eb	e8 00 00 00 00	 call	 ?DoApplySkill@CCtrl@@QAEHPAV1@PAUItemProp@@PAUAddSkillProp@@_NHHH@Z ; CCtrl::DoApplySkill
$L269603:

; 1543 : 			
; 1544 : 
; 1545 : 			//   .
; 1546 : 			D3DXVECTOR3 vScale = GetScale();

  003f0	8d 4e 0c	 lea	 ecx, DWORD PTR [esi+12]
  003f3	8b 11		 mov	 edx, DWORD PTR [ecx]
  003f5	8b 41 04	 mov	 eax, DWORD PTR [ecx+4]
  003f8	8b 49 08	 mov	 ecx, DWORD PTR [ecx+8]
  003fb	89 54 24 10	 mov	 DWORD PTR _vScale$269604[esp+28], edx

; 1547 : 
; 1548 : 			vScale *= 1.3f;

  003ff	d9 44 24 10	 fld	 DWORD PTR _vScale$269604[esp+28]
  00403	d8 0d 00 00 00
	00		 fmul	 DWORD PTR __real@3fa66666
  00409	89 44 24 14	 mov	 DWORD PTR _vScale$269604[esp+32], eax
  0040d	89 4c 24 18	 mov	 DWORD PTR _vScale$269604[esp+36], ecx
  00411	d9 54 24 10	 fst	 DWORD PTR _vScale$269604[esp+28]
  00415	d9 44 24 14	 fld	 DWORD PTR _vScale$269604[esp+32]
  00419	d8 0d 00 00 00
	00		 fmul	 DWORD PTR __real@3fa66666
  0041f	d9 5c 24 14	 fstp	 DWORD PTR _vScale$269604[esp+32]
  00423	d9 44 24 18	 fld	 DWORD PTR _vScale$269604[esp+36]
  00427	d8 0d 00 00 00
	00		 fmul	 DWORD PTR __real@3fa66666
  0042d	d9 5c 24 18	 fstp	 DWORD PTR _vScale$269604[esp+36]

; 1549 : 
; 1550 : 			if( vScale.x < 10.0f )

  00431	d8 1d 00 00 00
	00		 fcomp	 DWORD PTR __real@41200000
  00437	df e0		 fnstsw	 ax
  00439	f6 c4 05	 test	 ah, 5
  0043c	7a 2e		 jp	 SHORT $L269606

; 1551 : 			{
; 1552 : 				SetScale( vScale );

  0043e	8d 54 24 10	 lea	 edx, DWORD PTR _vScale$269604[esp+28]
  00442	52		 push	 edx
  00443	8b ce		 mov	 ecx, esi
  00445	e8 00 00 00 00	 call	 ?SetScale@CObj@@QAEXABUD3DXVECTOR3@@@Z ; CObj::SetScale

; 1553 : 				g_UserMng.AddSetScale( this, (vScale.x / m_pModel->m_pModelElem->m_fScale)  );

  0044a	d9 44 24 10	 fld	 DWORD PTR _vScale$269604[esp+28]
  0044e	8b 86 78 01 00
	00		 mov	 eax, DWORD PTR [esi+376]
  00454	8b 88 90 00 00
	00		 mov	 ecx, DWORD PTR [eax+144]
  0045a	d8 71 74	 fdiv	 DWORD PTR [ecx+116]
  0045d	51		 push	 ecx
  0045e	b9 00 00 00 00	 mov	 ecx, OFFSET FLAT:?g_UserMng@@3VCUserMng@@A
  00463	d9 1c 24	 fstp	 DWORD PTR [esp]
  00466	56		 push	 esi
  00467	e8 00 00 00 00	 call	 ?AddSetScale@CUserMng@@QAEXPAVCMover@@M@Z ; CUserMng::AddSetScale
$L269606:
  0046c	5f		 pop	 edi
  0046d	5e		 pop	 esi
  0046e	5b		 pop	 ebx

; 1554 : 			}
; 1555 : 			
; 1556 : #endif //__WORLDSERVER			
; 1557 : 		}
; 1558 : 		break;
; 1559 : 	}
; 1560 : }

  0046f	83 c4 10	 add	 esp, 16			; 00000010H
  00472	c2 08 00	 ret	 8
?OnAttackMelee_Bear@CMover@@QAEXKPAV1@@Z ENDP		; CMover::OnAttackMelee_Bear
_TEXT	ENDS
PUBLIC	?OnAttackMelee@CMover@@QAEHKPAV1@@Z		; CMover::OnAttackMelee
EXTRN	?IsRangeObj@CObj@@QAEHPAV1@M@Z:NEAR		; CObj::IsRangeObj
; Function compile flags: /Ogty
;	COMDAT ?OnAttackMelee@CMover@@QAEHKPAV1@@Z
_TEXT	SEGMENT
_dwState$ = 8						; size = 4
_pHitObj$ = 12						; size = 4
?OnAttackMelee@CMover@@QAEHKPAV1@@Z PROC NEAR		; CMover::OnAttackMelee, COMDAT
; _this$ = ecx

; 1653 : {

  00000	53		 push	 ebx
  00001	56		 push	 esi

; 1654 : 	CModelObject	*pModel = (CModelObject *)m_pModel;
; 1655 : 	int		nItemID = GetActParam( 1 );	//   
; 1656 : 
; 1657 : #ifdef __WORLDSERVER
; 1658 : 	PostAIMsg( AIMSG_ATTACK_MELEE );

  00002	6a 00		 push	 0
  00004	6a 00		 push	 0
  00006	6a 00		 push	 0
  00008	8b f1		 mov	 esi, ecx
  0000a	8b 9e a8 12 00
	00		 mov	 ebx, DWORD PTR [esi+4776]
  00010	6a 0e		 push	 14			; 0000000eH
  00012	e8 00 00 00 00	 call	 ?PostAIMsg@CMover@@QAEXKKKK@Z ; CMover::PostAIMsg

; 1659 : #endif
; 1660 : 	
; 1661 :  	if( m_dwIndex == MI_CLOCKWORK1 )	//    .

  00017	8b 86 74 01 00
	00		 mov	 eax, DWORD PTR [esi+372]
  0001d	3d a4 00 00 00	 cmp	 eax, 164		; 000000a4H
  00022	75 1b		 jne	 SHORT $L269654

; 1662 : 	{
; 1663 : 		OnAttackMelee_ClockWorks( dwState, pHitObj );

  00024	8b 44 24 10	 mov	 eax, DWORD PTR _pHitObj$[esp+4]
  00028	8b 4c 24 0c	 mov	 ecx, DWORD PTR _dwState$[esp+4]
  0002c	50		 push	 eax
  0002d	51		 push	 ecx
  0002e	8b ce		 mov	 ecx, esi
  00030	e8 00 00 00 00	 call	 ?OnAttackMelee_ClockWorks@CMover@@QAEXKPAV1@@Z ; CMover::OnAttackMelee_ClockWorks
  00035	5e		 pop	 esi

; 1694 : 		return TRUE;

  00036	b8 01 00 00 00	 mov	 eax, 1
  0003b	5b		 pop	 ebx

; 1786 : }

  0003c	c2 08 00	 ret	 8
$L269654:

; 1664 : 		return TRUE;
; 1665 : 	}
; 1666 : 	
; 1667 : 	if( m_dwIndex == MI_BIGMUSCLE )	//    .

  0003f	3d a5 00 00 00	 cmp	 eax, 165		; 000000a5H
  00044	75 16		 jne	 SHORT $L269655

; 1668 : 	{
; 1669 : 		OnAttackMelee_BigMuscle( dwState, pHitObj );

  00046	8b 54 24 10	 mov	 edx, DWORD PTR _pHitObj$[esp+4]
  0004a	8b 44 24 0c	 mov	 eax, DWORD PTR _dwState$[esp+4]
  0004e	52		 push	 edx
  0004f	50		 push	 eax
  00050	8b ce		 mov	 ecx, esi
  00052	e8 00 00 00 00	 call	 ?OnAttackMelee_BigMuscle@CMover@@QAEXKPAV1@@Z ; CMover::OnAttackMelee_BigMuscle

; 1670 : 		m_pActMover->m_nMotionHitCount++;		
; 1671 : 		return TRUE;

  00057	e9 04 01 00 00	 jmp	 $L277397
$L269655:

; 1672 : 	}
; 1673 : 
; 1674 : 	if( m_dwIndex == MI_KRRR )	//    .

  0005c	3d a6 00 00 00	 cmp	 eax, 166		; 000000a6H
  00061	75 16		 jne	 SHORT $L269656

; 1675 : 	{
; 1676 : 		OnAttackMelee_Krrr( dwState, pHitObj );

  00063	8b 4c 24 10	 mov	 ecx, DWORD PTR _pHitObj$[esp+4]
  00067	8b 54 24 0c	 mov	 edx, DWORD PTR _dwState$[esp+4]
  0006b	51		 push	 ecx
  0006c	52		 push	 edx
  0006d	8b ce		 mov	 ecx, esi
  0006f	e8 00 00 00 00	 call	 ?OnAttackMelee_Krrr@CMover@@QAEXKPAV1@@Z ; CMover::OnAttackMelee_Krrr

; 1677 : 		m_pActMover->m_nMotionHitCount++;		
; 1678 : 		return TRUE;

  00074	e9 e7 00 00 00	 jmp	 $L277397
$L269656:

; 1679 : 	}	
; 1680 : 
; 1681 : 	if( m_dwIndex == MI_MUSHMOOT )	//    .

  00079	3d a7 00 00 00	 cmp	 eax, 167		; 000000a7H
  0007e	75 16		 jne	 SHORT $L269657

; 1682 : 	{
; 1683 : 		OnAttackMelee_Bear( dwState, pHitObj );

  00080	8b 44 24 10	 mov	 eax, DWORD PTR _pHitObj$[esp+4]
  00084	8b 4c 24 0c	 mov	 ecx, DWORD PTR _dwState$[esp+4]
  00088	50		 push	 eax
  00089	51		 push	 ecx
  0008a	8b ce		 mov	 ecx, esi
  0008c	e8 00 00 00 00	 call	 ?OnAttackMelee_Bear@CMover@@QAEXKPAV1@@Z ; CMover::OnAttackMelee_Bear

; 1684 : 		m_pActMover->m_nMotionHitCount++;		
; 1685 : 		return TRUE;

  00091	e9 ca 00 00 00	 jmp	 $L277397
$L269657:

; 1686 : 	}	
; 1687 : 
; 1688 : #if __VER >= 10 // __Y_DRAGON_FIRE
; 1689 : 	if( m_dwIndex == MI_DU_METEONYKER || m_dwIndex == MI_DU_METEONYKER2 || m_dwIndex == MI_DU_METEONYKER3 ||
; 1690 : 		m_dwIndex == MI_DU_METEONYKER4 )

  00096	3d cb 02 00 00	 cmp	 eax, 715		; 000002cbH
  0009b	0f 84 ae 00 00
	00		 je	 $L269659
  000a1	3d f1 02 00 00	 cmp	 eax, 753		; 000002f1H
  000a6	0f 84 a3 00 00
	00		 je	 $L269659
  000ac	3d f2 02 00 00	 cmp	 eax, 754		; 000002f2H
  000b1	0f 84 98 00 00
	00		 je	 $L269659
  000b7	3d f3 02 00 00	 cmp	 eax, 755		; 000002f3H
  000bc	0f 84 8d 00 00
	00		 je	 $L269659

; 1695 : 	}
; 1696 : #endif //__Y_DRAGON_FIRE
; 1697 : 
; 1698 : #ifdef __WORLDSERVER
; 1699 : #if __VER >= 12 // __MONSTER_SKILL
; 1700 : 	if( IsNPC() && CMonsterSkill::GetInstance()->ApplySkill( this, pHitObj, ATK_MELEE ) )

  000c2	8b 86 34 02 00
	00		 mov	 eax, DWORD PTR [esi+564]
  000c8	85 c0		 test	 eax, eax
  000ca	57		 push	 edi
  000cb	8b 7c 24 14	 mov	 edi, DWORD PTR _pHitObj$[esp+8]
  000cf	75 39		 jne	 SHORT $L277394
  000d1	6a 01		 push	 1
  000d3	57		 push	 edi
  000d4	56		 push	 esi
  000d5	e8 00 00 00 00	 call	 ?GetInstance@CMonsterSkill@@SAPAV1@XZ ; CMonsterSkill::GetInstance
  000da	8b c8		 mov	 ecx, eax
  000dc	e8 00 00 00 00	 call	 ?ApplySkill@CMonsterSkill@@QAEHPAVCMover@@0K@Z ; CMonsterSkill::ApplySkill
  000e1	85 c0		 test	 eax, eax

; 1701 : 	{
; 1702 : 		//m_pActMover->m_nMotionHitCount++;
; 1703 : 		return TRUE;

  000e3	75 5f		 jne	 SHORT $L269668

; 1704 : 	}
; 1705 : #endif // __MONSTER_SKILL
; 1706 : #endif // __WORLDSERVER
; 1707 : 
; 1708 : 	BOOL bSuccess = FALSE;
; 1709 : 	BOOL bDamage = TRUE;
; 1710 : 
; 1711 : #ifdef __WORLDSERVER
; 1712 : 	if( IsNPC() && pHitObj->IsPlayer() && pHitObj->IsRangeObj( this, 10.0f ) == FALSE )		//   . -> 10   .

  000e5	8b 86 34 02 00
	00		 mov	 eax, DWORD PTR [esi+564]
  000eb	85 c0		 test	 eax, eax
  000ed	75 1b		 jne	 SHORT $L277394
  000ef	8b 87 34 02 00
	00		 mov	 eax, DWORD PTR [edi+564]
  000f5	85 c0		 test	 eax, eax
  000f7	74 11		 je	 SHORT $L277394
  000f9	68 00 00 20 41	 push	 1092616192		; 41200000H
  000fe	56		 push	 esi
  000ff	8b cf		 mov	 ecx, edi
  00101	e8 00 00 00 00	 call	 ?IsRangeObj@CObj@@QAEHPAV1@M@Z ; CObj::IsRangeObj
  00106	85 c0		 test	 eax, eax

; 1713 : 		bDamage = FALSE;
; 1714 : #endif
; 1715 : 	if( bDamage )

  00108	74 3a		 je	 SHORT $L269668
$L277394:

; 1716 : 	{
; 1717 : 		bSuccess = OnDamage( nItemID, dwState, pHitObj );	//  .

  0010a	6a 01		 push	 1
  0010c	6a 00		 push	 0
  0010e	57		 push	 edi
  0010f	8b 7c 24 1c	 mov	 edi, DWORD PTR _dwState$[esp+20]
  00113	57		 push	 edi
  00114	53		 push	 ebx
  00115	8b ce		 mov	 ecx, esi
  00117	e8 00 00 00 00	 call	 ?OnDamage@CMover@@QAEHHKPAV1@PBUD3DXVECTOR3@@K@Z ; CMover::OnDamage

; 1718 : 	}
; 1719 : 
; 1720 : #ifdef __WORLDSERVER
; 1721 : 	if( bSuccess )

  0011c	85 c0		 test	 eax, eax
  0011e	74 24		 je	 SHORT $L269668

; 1722 : 	{
; 1723 : 		if( IsPlayer() )

  00120	8b 86 34 02 00
	00		 mov	 eax, DWORD PTR [esi+564]
  00126	85 c0		 test	 eax, eax
  00128	74 1a		 je	 SHORT $L269668

; 1724 : 		{
; 1725 : 			if( dwState == OBJSTA_ATK1 && ((CUser*)this)->m_playTaskBar.m_nActionPoint < 100 )	// 2   .

  0012a	81 ff 00 00 01
	00		 cmp	 edi, 65536		; 00010000H
  00130	75 12		 jne	 SHORT $L269668
  00132	8b 86 40 95 00
	00		 mov	 eax, DWORD PTR [esi+38208]
  00138	83 f8 64	 cmp	 eax, 100		; 00000064H
  0013b	7d 07		 jge	 SHORT $L269668

; 1726 : 				((CUser*)this)->m_playTaskBar.m_nActionPoint ++;

  0013d	40		 inc	 eax
  0013e	89 86 40 95 00
	00		 mov	 DWORD PTR [esi+38208], eax
$L269668:
  00144	5f		 pop	 edi
  00145	5e		 pop	 esi

; 1727 : 		}
; 1728 : 	}
; 1729 : #endif	// worldserver
; 1730 : 
; 1731 : #ifdef __CLIENT
; 1732 : 	if( bSuccess )		//    .
; 1733 : 	{
; 1734 : 		if( CMover::GetActiveMover() == this )
; 1735 : 		{
; 1736 : 			if( dwState == OBJSTA_ATK1 && g_WndMng.m_pWndTaskBar->m_nActionPoint < 100 )	// 2   .
; 1737 : 				g_WndMng.m_pWndTaskBar->m_nActionPoint ++;
; 1738 : 		}
; 1739 : 		//         .
; 1740 : 		ItemProp* pItemProp = GetActiveHandItemProp();
; 1741 : 		if( pItemProp )
; 1742 : 		{
; 1743 : /*		#ifndef __Y_DRAGON_FIRE
; 1744 : 			if( pItemProp->dwSfxObj2 != NULL_ID )
; 1745 : 			{
; 1746 : 				CSfx *pSfx = CreateSfx( D3DDEVICE, pItemProp->dwSfxObj2,  GetPos(), GetId(), this->GetPos(), this->GetId(), 0 ); 
; 1747 : 			}
; 1748 : 		#endif //__Y_DRAGON_FIRE
; 1749 : */
; 1750 : 			PLAYSND( pItemProp->dwSndAttack1, &GetPos() );
; 1751 : 		}
; 1752 : 		
; 1753 : 		if( IsPlayer() )
; 1754 : 		{
; 1755 : 			pModel->m_nPause = 5;	// frame 
; 1756 : 		}
; 1757 : 		else
; 1758 : 		{
; 1759 : 			pModel->m_nPause = 0;	//   
; 1760 : 			pHitObj->m_pModel->m_nPause = 0;
; 1761 : 		}
; 1762 : 
; 1763 : #if defined(__CLIENT)
; 1764 : 		{
; 1765 : 			if( IsValidObj( pHitObj ) )
; 1766 : 			{
; 1767 : 				pModel->m_SparkInfo.m_bUsed  = TRUE;
; 1768 : 				pModel->m_SparkInfo.m_v3Color.x = 2.0f;
; 1769 : 				pModel->m_SparkInfo.m_v3Color.y = 2.0f;
; 1770 : 				pModel->m_SparkInfo.m_v3Color.z = 2.0f;
; 1771 : 				pModel->m_SparkInfo.m_nCnt = 0;
; 1772 : 				pModel->m_SparkInfo.m_fLerp= 1.0f;
; 1773 : 				
; 1774 : 				D3DXVECTOR3 vDir = GetPos() - pHitObj->GetPos();
; 1775 : 				D3DXVec3Normalize( &pModel->m_SparkInfo.m_v3SparkDir, &vDir );
; 1776 : 			}
; 1777 : 		}
; 1778 : #endif //defined(__CLIENT)
; 1779 : 		
; 1780 : 		
; 1781 : 	}
; 1782 : #endif // client
; 1783 : 	
; 1784 : 	
; 1785 : 	return TRUE;

  00146	b8 01 00 00 00	 mov	 eax, 1
  0014b	5b		 pop	 ebx

; 1786 : }

  0014c	c2 08 00	 ret	 8
$L269659:

; 1691 : 	{
; 1692 : 		OnAttackMelee_Meteonyker( dwState, pHitObj );

  0014f	8b 54 24 10	 mov	 edx, DWORD PTR _pHitObj$[esp+4]
  00153	8b 44 24 0c	 mov	 eax, DWORD PTR _dwState$[esp+4]
  00157	52		 push	 edx
  00158	50		 push	 eax
  00159	8b ce		 mov	 ecx, esi
  0015b	e8 00 00 00 00	 call	 ?OnAttackMelee_Meteonyker@CMover@@QAEXKPAV1@@Z ; CMover::OnAttackMelee_Meteonyker
$L277397:

; 1693 : 		m_pActMover->m_nMotionHitCount++;		

  00160	8b b6 3c 02 00
	00		 mov	 esi, DWORD PTR [esi+572]
  00166	ff 86 9c 00 00
	00		 inc	 DWORD PTR [esi+156]
  0016c	5e		 pop	 esi

; 1694 : 		return TRUE;

  0016d	b8 01 00 00 00	 mov	 eax, 1
  00172	5b		 pop	 ebx

; 1786 : }

  00173	c2 08 00	 ret	 8
?OnAttackMelee@CMover@@QAEHKPAV1@@Z ENDP		; CMover::OnAttackMelee
_TEXT	ENDS
END
