; Listing generated by Microsoft (R) Optimizing Compiler Version 13.10.6030 

	TITLE	\Documents and Settings\test\Mes documents\Source\Virtuos_v17\Build\Program\_Common\Obj.cpp
	.386P
include listing.inc
if @Version gt 510
.model FLAT
else
_TEXT	SEGMENT PARA USE32 PUBLIC 'CODE'
_TEXT	ENDS
_DATA	SEGMENT DWORD USE32 PUBLIC 'DATA'
_DATA	ENDS
CONST	SEGMENT DWORD USE32 PUBLIC 'CONST'
CONST	ENDS
_BSS	SEGMENT DWORD USE32 PUBLIC 'BSS'
_BSS	ENDS
$$SYMBOLS	SEGMENT BYTE USE32 'DEBSYM'
$$SYMBOLS	ENDS
$$TYPES	SEGMENT BYTE USE32 'DEBTYP'
$$TYPES	ENDS
_TLS	SEGMENT DWORD USE32 PUBLIC 'TLS'
_TLS	ENDS
;	COMDAT ??_C@_0BE@NPFKIOKI@MODIFYLINK?1?1MAX?1?1?$CFd?$AA@
CONST	SEGMENT DWORD USE32 PUBLIC 'CONST'
CONST	ENDS
xdata$x	SEGMENT DWORD USE32 PUBLIC 'CONST'
xdata$x	ENDS
text$AFX_COL1	SEGMENT PARA USE32 PUBLIC ''
text$AFX_COL1	ENDS
;	COMDAT ??0CObj@@QAE@XZ
_TEXT	SEGMENT PARA USE32 PUBLIC 'CODE'
_TEXT	ENDS
;	COMDAT ??_GCObj@@UAEPAXI@Z
_TEXT	SEGMENT PARA USE32 PUBLIC 'CODE'
_TEXT	ENDS
;	COMDAT ??0BBOX@@QAE@XZ
_TEXT	SEGMENT PARA USE32 PUBLIC 'CODE'
_TEXT	ENDS
;	COMDAT ??1CObj@@UAE@XZ
_TEXT	SEGMENT PARA USE32 PUBLIC 'CODE'
_TEXT	ENDS
;	COMDAT ?InitProp@CObj@@UAEXH@Z
_TEXT	SEGMENT PARA USE32 PUBLIC 'CODE'
_TEXT	ENDS
;	COMDAT ?GetPropA@CObj@@QAEPAUObjProp@@XZ
_TEXT	SEGMENT PARA USE32 PUBLIC 'CODE'
_TEXT	ENDS
;	COMDAT ?UpdateLocalMatrix@CObj@@QAEXXZ
_TEXT	SEGMENT PARA USE32 PUBLIC 'CODE'
_TEXT	ENDS
;	COMDAT ?UpdateMatrix@CObj@@QAEXXZ
_TEXT	SEGMENT PARA USE32 PUBLIC 'CODE'
_TEXT	ENDS
;	COMDAT ?InsPrevNode@CObj@@QAEXPAV1@@Z
_TEXT	SEGMENT PARA USE32 PUBLIC 'CODE'
_TEXT	ENDS
;	COMDAT ?InsNextNode@CObj@@QAEXPAV1@@Z
_TEXT	SEGMENT PARA USE32 PUBLIC 'CODE'
_TEXT	ENDS
;	COMDAT ?DelNode@CObj@@QAEXXZ
_TEXT	SEGMENT PARA USE32 PUBLIC 'CODE'
_TEXT	ENDS
;	COMDAT ?Process@CObj@@UAEXXZ
_TEXT	SEGMENT PARA USE32 PUBLIC 'CODE'
_TEXT	ENDS
;	COMDAT ?ProcessAI@CObj@@QAEXXZ
_TEXT	SEGMENT PARA USE32 PUBLIC 'CODE'
_TEXT	ENDS
;	COMDAT ?SetOnLand@CObj@@QAEXXZ
_TEXT	SEGMENT PARA USE32 PUBLIC 'CODE'
_TEXT	ENDS
;	COMDAT ?Render@CObj@@UAEXPAUIDirect3DDevice9@@@Z
_TEXT	SEGMENT PARA USE32 PUBLIC 'CODE'
_TEXT	ENDS
;	COMDAT ?LoadModel@CObj@@UAEPAVCModel@@PAUIDirect3DDevice9@@KK@Z
_TEXT	SEGMENT PARA USE32 PUBLIC 'CODE'
_TEXT	ENDS
;	COMDAT ?ResetScale@CObj@@QAEXXZ
_TEXT	SEGMENT PARA USE32 PUBLIC 'CODE'
_TEXT	ENDS
;	COMDAT ?SetTypeIndex@CObj@@QAEHPAUIDirect3DDevice9@@KKH@Z
_TEXT	SEGMENT PARA USE32 PUBLIC 'CODE'
_TEXT	ENDS
;	COMDAT ?UpdateBoundBox@CObj@@QAEHXZ
_TEXT	SEGMENT PARA USE32 PUBLIC 'CODE'
_TEXT	ENDS
;	COMDAT ?Read@CObj@@UAEHPAVCFileIO@@@Z
_TEXT	SEGMENT PARA USE32 PUBLIC 'CODE'
_TEXT	ENDS
;	COMDAT ?SetPos@CObj@@QAEXABUD3DXVECTOR3@@@Z
_TEXT	SEGMENT PARA USE32 PUBLIC 'CODE'
_TEXT	ENDS
;	COMDAT ?AddAngle@CObj@@QAEXM@Z
_TEXT	SEGMENT PARA USE32 PUBLIC 'CODE'
_TEXT	ENDS
;	COMDAT ?SetAngle@CObj@@QAEXM@Z
_TEXT	SEGMENT PARA USE32 PUBLIC 'CODE'
_TEXT	ENDS
;	COMDAT ?AddAngleX@CObj@@QAEXM@Z
_TEXT	SEGMENT PARA USE32 PUBLIC 'CODE'
_TEXT	ENDS
;	COMDAT ?SetAngleX@CObj@@QAEXM@Z
_TEXT	SEGMENT PARA USE32 PUBLIC 'CODE'
_TEXT	ENDS
;	COMDAT ?SetScale@CObj@@QAEXABUD3DXVECTOR3@@@Z
_TEXT	SEGMENT PARA USE32 PUBLIC 'CODE'
_TEXT	ENDS
;	COMDAT ?SetAIInterface@CObj@@QAEXKK@Z
_TEXT	SEGMENT PARA USE32 PUBLIC 'CODE'
_TEXT	ENDS
;	COMDAT ?Delete@CObj@@QAEXXZ
_TEXT	SEGMENT PARA USE32 PUBLIC 'CODE'
_TEXT	ENDS
;	COMDAT ?GetRadiusXZ@CObj@@QAEMXZ
_TEXT	SEGMENT PARA USE32 PUBLIC 'CODE'
_TEXT	ENDS
;	COMDAT ?GetRadius@CObj@@QAEMXZ
_TEXT	SEGMENT PARA USE32 PUBLIC 'CODE'
_TEXT	ENDS
;	COMDAT ?IsRangeObj@CObj@@QAEHPAV1@M@Z
_TEXT	SEGMENT PARA USE32 PUBLIC 'CODE'
_TEXT	ENDS
;	COMDAT ?IsRangeObj@CObj@@QAEHABUD3DXVECTOR3@@M@Z
_TEXT	SEGMENT PARA USE32 PUBLIC 'CODE'
_TEXT	ENDS
;	COMDAT ?ProcessAirShip@CObj@@QAEXXZ
_TEXT	SEGMENT PARA USE32 PUBLIC 'CODE'
_TEXT	ENDS
;	COMDAT ?GetLinkType@CObj@@QAEKXZ
_TEXT	SEGMENT PARA USE32 PUBLIC 'CODE'
_TEXT	ENDS
;	COMDAT ?RenderName@CObj@@UAEXPAUIDirect3DDevice9@@PAVCD3DFont@@K@Z
_TEXT	SEGMENT PARA USE32 PUBLIC 'CODE'
_TEXT	ENDS
;	COMDAT ?SetWorld@CObj@@QAEXPAVCWorld@@@Z
_TEXT	SEGMENT PARA USE32 PUBLIC 'CODE'
_TEXT	ENDS
;	COMDAT ?CalcLinkLevel@CObj@@AAEXXZ
_TEXT	SEGMENT PARA USE32 PUBLIC 'CODE'
_TEXT	ENDS
;	COMDAT ?compare@?$basic_string@DU?$char_traits@D@std@@V?$allocator@D@2@@std@@QBEHABV12@@Z
_TEXT	SEGMENT PARA USE32 PUBLIC 'CODE'
_TEXT	ENDS
;	COMDAT ?IsFull@?$CStack@K@@QAEHXZ
_TEXT	SEGMENT PARA USE32 PUBLIC 'CODE'
_TEXT	ENDS
;	COMDAT ??0?$pair@KPAVCCtrl@@@std@@QAE@ABKABQAVCCtrl@@@Z
_TEXT	SEGMENT PARA USE32 PUBLIC 'CODE'
_TEXT	ENDS
;	COMDAT ?GetMax@?$CItemContainer@VCItemElem@@@@QAEHXZ
_TEXT	SEGMENT PARA USE32 PUBLIC 'CODE'
_TEXT	ENDS
;	COMDAT ??0?$deque@PAUtagACTMSG@@V?$allocator@PAUtagACTMSG@@@std@@@std@@QAE@XZ
_TEXT	SEGMENT PARA USE32 PUBLIC 'CODE'
_TEXT	ENDS
;	COMDAT ??1?$deque@PAUtagACTMSG@@V?$allocator@PAUtagACTMSG@@@std@@@std@@QAE@XZ
_TEXT	SEGMENT PARA USE32 PUBLIC 'CODE'
_TEXT	ENDS
;	COMDAT ?begin@?$deque@PAUtagACTMSG@@V?$allocator@PAUtagACTMSG@@@std@@@std@@QAE?AViterator@12@XZ
_TEXT	SEGMENT PARA USE32 PUBLIC 'CODE'
_TEXT	ENDS
;	COMDAT ?end@?$deque@PAUtagACTMSG@@V?$allocator@PAUtagACTMSG@@@std@@@std@@QAE?AViterator@12@XZ
_TEXT	SEGMENT PARA USE32 PUBLIC 'CODE'
_TEXT	ENDS
;	COMDAT ?empty@?$deque@PAUtagACTMSG@@V?$allocator@PAUtagACTMSG@@@std@@@std@@QBE_NXZ
_TEXT	SEGMENT PARA USE32 PUBLIC 'CODE'
_TEXT	ENDS
;	COMDAT ?clear@?$deque@PAUtagACTMSG@@V?$allocator@PAUtagACTMSG@@@std@@@std@@QAEXXZ
_TEXT	SEGMENT PARA USE32 PUBLIC 'CODE'
_TEXT	ENDS
;	COMDAT ??0?$deque@PAUtagMAGICATKMSG@@V?$allocator@PAUtagMAGICATKMSG@@@std@@@std@@QAE@XZ
_TEXT	SEGMENT PARA USE32 PUBLIC 'CODE'
_TEXT	ENDS
;	COMDAT ??1?$deque@PAUtagMAGICATKMSG@@V?$allocator@PAUtagMAGICATKMSG@@@std@@@std@@QAE@XZ
_TEXT	SEGMENT PARA USE32 PUBLIC 'CODE'
_TEXT	ENDS
;	COMDAT ?begin@?$deque@PAUtagMAGICATKMSG@@V?$allocator@PAUtagMAGICATKMSG@@@std@@@std@@QAE?AViterator@12@XZ
_TEXT	SEGMENT PARA USE32 PUBLIC 'CODE'
_TEXT	ENDS
;	COMDAT ?end@?$deque@PAUtagMAGICATKMSG@@V?$allocator@PAUtagMAGICATKMSG@@@std@@@std@@QAE?AViterator@12@XZ
_TEXT	SEGMENT PARA USE32 PUBLIC 'CODE'
_TEXT	ENDS
;	COMDAT ?empty@?$deque@PAUtagMAGICATKMSG@@V?$allocator@PAUtagMAGICATKMSG@@@std@@@std@@QBE_NXZ
_TEXT	SEGMENT PARA USE32 PUBLIC 'CODE'
_TEXT	ENDS
;	COMDAT ?clear@?$deque@PAUtagMAGICATKMSG@@V?$allocator@PAUtagMAGICATKMSG@@@std@@@std@@QAEXXZ
_TEXT	SEGMENT PARA USE32 PUBLIC 'CODE'
_TEXT	ENDS
;	COMDAT ??Diterator@?$deque@PAUtagACTMSG@@V?$allocator@PAUtagACTMSG@@@std@@@std@@QBEAAPAUtagACTMSG@@XZ
_TEXT	SEGMENT PARA USE32 PUBLIC 'CODE'
_TEXT	ENDS
;	COMDAT ??Eiterator@?$deque@PAUtagACTMSG@@V?$allocator@PAUtagACTMSG@@@std@@@std@@QAEAAV012@XZ
_TEXT	SEGMENT PARA USE32 PUBLIC 'CODE'
_TEXT	ENDS
;	COMDAT ??9const_iterator@?$deque@PAUtagACTMSG@@V?$allocator@PAUtagACTMSG@@@std@@@std@@QBE_NABV012@@Z
_TEXT	SEGMENT PARA USE32 PUBLIC 'CODE'
_TEXT	ENDS
;	COMDAT ??Diterator@?$deque@PAUtagMAGICATKMSG@@V?$allocator@PAUtagMAGICATKMSG@@@std@@@std@@QBEAAPAUtagMAGICATKMSG@@XZ
_TEXT	SEGMENT PARA USE32 PUBLIC 'CODE'
_TEXT	ENDS
;	COMDAT ??Eiterator@?$deque@PAUtagMAGICATKMSG@@V?$allocator@PAUtagMAGICATKMSG@@@std@@@std@@QAEAAV012@XZ
_TEXT	SEGMENT PARA USE32 PUBLIC 'CODE'
_TEXT	ENDS
;	COMDAT ??9const_iterator@?$deque@PAUtagMAGICATKMSG@@V?$allocator@PAUtagMAGICATKMSG@@@std@@@std@@QBE_NABV012@@Z
_TEXT	SEGMENT PARA USE32 PUBLIC 'CODE'
_TEXT	ENDS
;	COMDAT ?compare@?$basic_string@DU?$char_traits@D@std@@V?$allocator@D@2@@std@@QBEHIIPBDI@Z
_TEXT	SEGMENT PARA USE32 PUBLIC 'CODE'
_TEXT	ENDS
;	COMDAT ?_Tidy@?$deque@PAUtagACTMSG@@V?$allocator@PAUtagACTMSG@@@std@@@std@@IAEXXZ
_TEXT	SEGMENT PARA USE32 PUBLIC 'CODE'
_TEXT	ENDS
;	COMDAT ??0?$_Deque_val@PAUtagACTMSG@@V?$allocator@PAUtagACTMSG@@@std@@@std@@IAE@V?$allocator@PAUtagACTMSG@@@1@@Z
_TEXT	SEGMENT PARA USE32 PUBLIC 'CODE'
_TEXT	ENDS
;	COMDAT ??0?$allocator@PAUtagACTMSG@@@std@@QAE@XZ
_TEXT	SEGMENT PARA USE32 PUBLIC 'CODE'
_TEXT	ENDS
;	COMDAT ?_Tidy@?$deque@PAUtagMAGICATKMSG@@V?$allocator@PAUtagMAGICATKMSG@@@std@@@std@@IAEXXZ
_TEXT	SEGMENT PARA USE32 PUBLIC 'CODE'
_TEXT	ENDS
;	COMDAT ??0?$_Deque_val@PAUtagMAGICATKMSG@@V?$allocator@PAUtagMAGICATKMSG@@@std@@@std@@IAE@V?$allocator@PAUtagMAGICATKMSG@@@1@@Z
_TEXT	SEGMENT PARA USE32 PUBLIC 'CODE'
_TEXT	ENDS
;	COMDAT ??0?$allocator@PAUtagMAGICATKMSG@@@std@@QAE@XZ
_TEXT	SEGMENT PARA USE32 PUBLIC 'CODE'
_TEXT	ENDS
;	COMDAT ??0iterator@?$deque@PAUtagACTMSG@@V?$allocator@PAUtagACTMSG@@@std@@@std@@QAE@IPBV12@@Z
_TEXT	SEGMENT PARA USE32 PUBLIC 'CODE'
_TEXT	ENDS
;	COMDAT ??Dconst_iterator@?$deque@PAUtagACTMSG@@V?$allocator@PAUtagACTMSG@@@std@@@std@@QBEABQAUtagACTMSG@@XZ
_TEXT	SEGMENT PARA USE32 PUBLIC 'CODE'
_TEXT	ENDS
;	COMDAT ??8const_iterator@?$deque@PAUtagACTMSG@@V?$allocator@PAUtagACTMSG@@@std@@@std@@QBE_NABV012@@Z
_TEXT	SEGMENT PARA USE32 PUBLIC 'CODE'
_TEXT	ENDS
;	COMDAT ??0iterator@?$deque@PAUtagMAGICATKMSG@@V?$allocator@PAUtagMAGICATKMSG@@@std@@@std@@QAE@IPBV12@@Z
_TEXT	SEGMENT PARA USE32 PUBLIC 'CODE'
_TEXT	ENDS
;	COMDAT ??Dconst_iterator@?$deque@PAUtagMAGICATKMSG@@V?$allocator@PAUtagMAGICATKMSG@@@std@@@std@@QBEABQAUtagMAGICATKMSG@@XZ
_TEXT	SEGMENT PARA USE32 PUBLIC 'CODE'
_TEXT	ENDS
;	COMDAT ??8const_iterator@?$deque@PAUtagMAGICATKMSG@@V?$allocator@PAUtagMAGICATKMSG@@@std@@@std@@QBE_NABV012@@Z
_TEXT	SEGMENT PARA USE32 PUBLIC 'CODE'
_TEXT	ENDS
;	COMDAT ?pop_back@?$deque@PAUtagACTMSG@@V?$allocator@PAUtagACTMSG@@@std@@@std@@QAEXXZ
_TEXT	SEGMENT PARA USE32 PUBLIC 'CODE'
_TEXT	ENDS
;	COMDAT ??0?$_Deque_map@PAUtagACTMSG@@V?$allocator@PAUtagACTMSG@@@std@@@std@@IAE@V?$allocator@PAUtagACTMSG@@@1@@Z
_TEXT	SEGMENT PARA USE32 PUBLIC 'CODE'
_TEXT	ENDS
;	COMDAT ??0?$allocator@PAUtagACTMSG@@@std@@QAE@ABV01@@Z
_TEXT	SEGMENT PARA USE32 PUBLIC 'CODE'
_TEXT	ENDS
;	COMDAT ?deallocate@?$allocator@PAUtagACTMSG@@@std@@QAEXPAPAUtagACTMSG@@I@Z
_TEXT	SEGMENT PARA USE32 PUBLIC 'CODE'
_TEXT	ENDS
;	COMDAT ?deallocate@?$allocator@PAPAUtagACTMSG@@@std@@QAEXPAPAPAUtagACTMSG@@I@Z
_TEXT	SEGMENT PARA USE32 PUBLIC 'CODE'
_TEXT	ENDS
;	COMDAT ?destroy@?$allocator@PAPAUtagACTMSG@@@std@@QAEXPAPAPAUtagACTMSG@@@Z
_TEXT	SEGMENT PARA USE32 PUBLIC 'CODE'
_TEXT	ENDS
;	COMDAT ?pop_back@?$deque@PAUtagMAGICATKMSG@@V?$allocator@PAUtagMAGICATKMSG@@@std@@@std@@QAEXXZ
_TEXT	SEGMENT PARA USE32 PUBLIC 'CODE'
_TEXT	ENDS
;	COMDAT ??0?$_Deque_map@PAUtagMAGICATKMSG@@V?$allocator@PAUtagMAGICATKMSG@@@std@@@std@@IAE@V?$allocator@PAUtagMAGICATKMSG@@@1@@Z
_TEXT	SEGMENT PARA USE32 PUBLIC 'CODE'
_TEXT	ENDS
;	COMDAT ??0?$allocator@PAUtagMAGICATKMSG@@@std@@QAE@ABV01@@Z
_TEXT	SEGMENT PARA USE32 PUBLIC 'CODE'
_TEXT	ENDS
;	COMDAT ?deallocate@?$allocator@PAUtagMAGICATKMSG@@@std@@QAEXPAPAUtagMAGICATKMSG@@I@Z
_TEXT	SEGMENT PARA USE32 PUBLIC 'CODE'
_TEXT	ENDS
;	COMDAT ?deallocate@?$allocator@PAPAUtagMAGICATKMSG@@@std@@QAEXPAPAPAUtagMAGICATKMSG@@I@Z
_TEXT	SEGMENT PARA USE32 PUBLIC 'CODE'
_TEXT	ENDS
;	COMDAT ?destroy@?$allocator@PAPAUtagMAGICATKMSG@@@std@@QAEXPAPAPAUtagMAGICATKMSG@@@Z
_TEXT	SEGMENT PARA USE32 PUBLIC 'CODE'
_TEXT	ENDS
;	COMDAT ??0const_iterator@?$deque@PAUtagACTMSG@@V?$allocator@PAUtagACTMSG@@@std@@@std@@QAE@IPBV12@@Z
_TEXT	SEGMENT PARA USE32 PUBLIC 'CODE'
_TEXT	ENDS
;	COMDAT ??0const_iterator@?$deque@PAUtagMAGICATKMSG@@V?$allocator@PAUtagMAGICATKMSG@@@std@@@std@@QAE@IPBV12@@Z
_TEXT	SEGMENT PARA USE32 PUBLIC 'CODE'
_TEXT	ENDS
;	COMDAT ?destroy@?$allocator@PAUtagACTMSG@@@std@@QAEXPAPAUtagACTMSG@@@Z
_TEXT	SEGMENT PARA USE32 PUBLIC 'CODE'
_TEXT	ENDS
;	COMDAT ?destroy@?$allocator@PAUtagMAGICATKMSG@@@std@@QAEXPAPAUtagMAGICATKMSG@@@Z
_TEXT	SEGMENT PARA USE32 PUBLIC 'CODE'
_TEXT	ENDS
;	COMDAT ??$_Iter_cat@Vconst_iterator@?$vector@EV?$allocator@E@std@@@std@@@std@@YA?AUrandom_access_iterator_tag@0@ABVconst_iterator@?$vector@EV?$allocator@E@std@@@0@@Z
_TEXT	SEGMENT PARA USE32 PUBLIC 'CODE'
_TEXT	ENDS
;	COMDAT ??$_Assign@Vconst_iterator@?$vector@EV?$allocator@E@std@@@std@@@?$vector@EV?$allocator@E@std@@@std@@QAEXVconst_iterator@01@0Uinput_iterator_tag@1@@Z
_TEXT	SEGMENT PARA USE32 PUBLIC 'CODE'
_TEXT	ENDS
;	COMDAT ??$_Iter_cat@Viterator@?$_Tree@V?$_Tmap_traits@KPAVCUser@@U?$less@K@std@@V?$allocator@U?$pair@$$CBKPAVCUser@@@std@@@3@$0A@@std@@@std@@@std@@YA?AUbidirectional_iterator_tag@0@ABViterator@?$_Tree@V?$_Tmap_traits@KPAVCUser@@U?$less@K@std@@V?$allocator@U?$pair@$$CBKPAVCUser@@@std@@@3@$0A@@std@@@0@@Z
_TEXT	SEGMENT PARA USE32 PUBLIC 'CODE'
_TEXT	ENDS
;	COMDAT ??$_Distance2@Viterator@?$_Tree@V?$_Tmap_traits@KPAVCUser@@U?$less@K@std@@V?$allocator@U?$pair@$$CBKPAVCUser@@@std@@@3@$0A@@std@@@std@@I@std@@YAXViterator@?$_Tree@V?$_Tmap_traits@KPAVCUser@@U?$less@K@std@@V?$allocator@U?$pair@$$CBKPAVCUser@@@std@@@3@$0A@@std@@@0@0AAIUbidirectional_iterator_tag@0@@Z
_TEXT	SEGMENT PARA USE32 PUBLIC 'CODE'
_TEXT	ENDS
;	COMDAT ??$_Iter_cat@Viterator@?$_Tree@V?$_Tmap_traits@KPAVCCtrl@@U?$less@K@std@@V?$allocator@U?$pair@$$CBKPAVCCtrl@@@std@@@3@$0A@@std@@@std@@@std@@YA?AUbidirectional_iterator_tag@0@ABViterator@?$_Tree@V?$_Tmap_traits@KPAVCCtrl@@U?$less@K@std@@V?$allocator@U?$pair@$$CBKPAVCCtrl@@@std@@@3@$0A@@std@@@0@@Z
_TEXT	SEGMENT PARA USE32 PUBLIC 'CODE'
_TEXT	ENDS
;	COMDAT ??$_Distance2@Viterator@?$_Tree@V?$_Tmap_traits@KPAVCCtrl@@U?$less@K@std@@V?$allocator@U?$pair@$$CBKPAVCCtrl@@@std@@@3@$0A@@std@@@std@@I@std@@YAXViterator@?$_Tree@V?$_Tmap_traits@KPAVCCtrl@@U?$less@K@std@@V?$allocator@U?$pair@$$CBKPAVCCtrl@@@std@@@3@$0A@@std@@@0@0AAIUbidirectional_iterator_tag@0@@Z
_TEXT	SEGMENT PARA USE32 PUBLIC 'CODE'
_TEXT	ENDS
;	COMDAT ??$_Uninitialized_copy@Vconst_iterator@?$vector@EV?$allocator@E@std@@@std@@PAEV?$allocator@E@3@@std@@YAPAEVconst_iterator@?$vector@EV?$allocator@E@std@@@0@0PAEAAV?$allocator@E@0@@Z
_TEXT	SEGMENT PARA USE32 PUBLIC 'CODE'
_TEXT	ENDS
;	COMDAT ??$_Iter_cat@Viterator@?$_Tree@V?$_Tmap_traits@KEU?$less@K@std@@V?$allocator@U?$pair@$$CBKE@std@@@2@$0A@@std@@@std@@@std@@YA?AUbidirectional_iterator_tag@0@ABViterator@?$_Tree@V?$_Tmap_traits@KEU?$less@K@std@@V?$allocator@U?$pair@$$CBKE@std@@@2@$0A@@std@@@0@@Z
_TEXT	SEGMENT PARA USE32 PUBLIC 'CODE'
_TEXT	ENDS
;	COMDAT ??$_Distance2@Viterator@?$_Tree@V?$_Tmap_traits@KEU?$less@K@std@@V?$allocator@U?$pair@$$CBKE@std@@@2@$0A@@std@@@std@@I@std@@YAXViterator@?$_Tree@V?$_Tmap_traits@KEU?$less@K@std@@V?$allocator@U?$pair@$$CBKE@std@@@2@$0A@@std@@@0@0AAIUbidirectional_iterator_tag@0@@Z
_TEXT	SEGMENT PARA USE32 PUBLIC 'CODE'
_TEXT	ENDS
;	COMDAT ??$_Ptr_cat@PAU__SPAWNREGION@CEventLua@@PAU12@@std@@YA?AU_Nonscalar_ptr_iterator_tag@0@AAPAU__SPAWNREGION@CEventLua@@0@Z
_TEXT	SEGMENT PARA USE32 PUBLIC 'CODE'
_TEXT	ENDS
;	COMDAT ??$_Uninit_fill_n@PAU__SPAWNREGION@CEventLua@@IU12@V?$allocator@U__SPAWNREGION@CEventLua@@@std@@@std@@YAXPAU__SPAWNREGION@CEventLua@@IABU12@AAV?$allocator@U__SPAWNREGION@CEventLua@@@0@U_Nonscalar_ptr_iterator_tag@0@@Z
_TEXT	SEGMENT PARA USE32 PUBLIC 'CODE'
_TEXT	ENDS
;	COMDAT ??$_Copy_opt@PAJPAJ@std@@YAPAJPAJ00U_Scalar_ptr_iterator_tag@0@@Z
_TEXT	SEGMENT PARA USE32 PUBLIC 'CODE'
_TEXT	ENDS
;	COMDAT ??$_Uninitialized_copy@PAJPAJV?$allocator@J@std@@@std@@YAPAJPAJ00AAV?$allocator@J@0@@Z
_TEXT	SEGMENT PARA USE32 PUBLIC 'CODE'
_TEXT	ENDS
;	COMDAT ??$_Copy_backward_opt@PAJPAJ@std@@YAPAJPAJ00U_Scalar_ptr_iterator_tag@0@@Z
_TEXT	SEGMENT PARA USE32 PUBLIC 'CODE'
_TEXT	ENDS
;	COMDAT ??$_Ptr_cat@PAUtagDROPITEM@@PAU1@@std@@YA?AU_Nonscalar_ptr_iterator_tag@0@AAPAUtagDROPITEM@@0@Z
_TEXT	SEGMENT PARA USE32 PUBLIC 'CODE'
_TEXT	ENDS
;	COMDAT ??$_Destroy_range@UtagDROPITEM@@V?$allocator@UtagDROPITEM@@@std@@@std@@YAXPAUtagDROPITEM@@0AAV?$allocator@UtagDROPITEM@@@0@U_Nonscalar_ptr_iterator_tag@0@@Z
_TEXT	SEGMENT PARA USE32 PUBLIC 'CODE'
_TEXT	ENDS
;	COMDAT ??$_Ptr_cat@PAUWORMON@@PAU1@@std@@YA?AU_Nonscalar_ptr_iterator_tag@0@AAPAUWORMON@@0@Z
_TEXT	SEGMENT PARA USE32 PUBLIC 'CODE'
_TEXT	ENDS
;	COMDAT ??$_Destroy_range@UWORMON@@V?$allocator@UWORMON@@@std@@@std@@YAXPAUWORMON@@0AAV?$allocator@UWORMON@@@0@U_Nonscalar_ptr_iterator_tag@0@@Z
_TEXT	SEGMENT PARA USE32 PUBLIC 'CODE'
_TEXT	ENDS
;	COMDAT ??$_Ptr_cat@PAU__ITEMGAME@CMiniGame@@PAU12@@std@@YA?AU_Nonscalar_ptr_iterator_tag@0@AAPAU__ITEMGAME@CMiniGame@@0@Z
_TEXT	SEGMENT PARA USE32 PUBLIC 'CODE'
_TEXT	ENDS
;	COMDAT ??$_Destroy_range@U__ITEMGAME@CMiniGame@@V?$allocator@U__ITEMGAME@CMiniGame@@@std@@@std@@YAXPAU__ITEMGAME@CMiniGame@@0AAV?$allocator@U__ITEMGAME@CMiniGame@@@0@U_Nonscalar_ptr_iterator_tag@0@@Z
_TEXT	SEGMENT PARA USE32 PUBLIC 'CODE'
_TEXT	ENDS
;	COMDAT ??$_Destroy_range@KV?$allocator@K@std@@@std@@YAXPAK0AAV?$allocator@K@0@U_Scalar_ptr_iterator_tag@0@@Z
_TEXT	SEGMENT PARA USE32 PUBLIC 'CODE'
_TEXT	ENDS
;	COMDAT ??$_Destroy_range@HV?$allocator@H@std@@@std@@YAXPAH0AAV?$allocator@H@0@U_Scalar_ptr_iterator_tag@0@@Z
_TEXT	SEGMENT PARA USE32 PUBLIC 'CODE'
_TEXT	ENDS
;	COMDAT ??$_Ptr_cat@PAU__ITEM@CExchange@@PAU12@@std@@YA?AU_Nonscalar_ptr_iterator_tag@0@AAPAU__ITEM@CExchange@@0@Z
_TEXT	SEGMENT PARA USE32 PUBLIC 'CODE'
_TEXT	ENDS
;	COMDAT ??$_Destroy_range@U__ITEM@CExchange@@V?$allocator@U__ITEM@CExchange@@@std@@@std@@YAXPAU__ITEM@CExchange@@0AAV?$allocator@U__ITEM@CExchange@@@0@U_Nonscalar_ptr_iterator_tag@0@@Z
_TEXT	SEGMENT PARA USE32 PUBLIC 'CODE'
_TEXT	ENDS
;	COMDAT ??$_Ptr_cat@PAU__POINT@CExchange@@PAU12@@std@@YA?AU_Nonscalar_ptr_iterator_tag@0@AAPAU__POINT@CExchange@@0@Z
_TEXT	SEGMENT PARA USE32 PUBLIC 'CODE'
_TEXT	ENDS
;	COMDAT ??$_Destroy_range@U__POINT@CExchange@@V?$allocator@U__POINT@CExchange@@@std@@@std@@YAXPAU__POINT@CExchange@@0AAV?$allocator@U__POINT@CExchange@@@0@U_Nonscalar_ptr_iterator_tag@0@@Z
_TEXT	SEGMENT PARA USE32 PUBLIC 'CODE'
_TEXT	ENDS
;	COMDAT ??$_Destroy_range@EV?$allocator@E@std@@@std@@YAXPAE0AAV?$allocator@E@0@U_Scalar_ptr_iterator_tag@0@@Z
_TEXT	SEGMENT PARA USE32 PUBLIC 'CODE'
_TEXT	ENDS
;	COMDAT ??$_Uninitialized_copy@PAU__SPAWNREGION@CEventLua@@PAU12@V?$allocator@U__SPAWNREGION@CEventLua@@@std@@@std@@YAPAU__SPAWNREGION@CEventLua@@PAU12@00AAV?$allocator@U__SPAWNREGION@CEventLua@@@0@@Z
_TEXT	SEGMENT PARA USE32 PUBLIC 'CODE'
_TEXT	ENDS
;	COMDAT ??$_Copy_backward_opt@PAU__SPAWNREGION@CEventLua@@PAU12@@std@@YAPAU__SPAWNREGION@CEventLua@@PAU12@00U_Nonscalar_ptr_iterator_tag@0@@Z
_TEXT	SEGMENT PARA USE32 PUBLIC 'CODE'
_TEXT	ENDS
;	COMDAT ??$_Ptr_cat@PAUD3DXVECTOR3@@PAU1@@std@@YA?AU_Nonscalar_ptr_iterator_tag@0@AAPAUD3DXVECTOR3@@0@Z
_TEXT	SEGMENT PARA USE32 PUBLIC 'CODE'
_TEXT	ENDS
;	COMDAT ??$_Destroy_range@UD3DXVECTOR3@@V?$allocator@UD3DXVECTOR3@@@std@@@std@@YAXPAUD3DXVECTOR3@@0AAV?$allocator@UD3DXVECTOR3@@@0@U_Nonscalar_ptr_iterator_tag@0@@Z
_TEXT	SEGMENT PARA USE32 PUBLIC 'CODE'
_TEXT	ENDS
;	COMDAT ??$_Ptr_cat@PAU_GIFTBOX@@PAU1@@std@@YA?AU_Nonscalar_ptr_iterator_tag@0@AAPAU_GIFTBOX@@0@Z
_TEXT	SEGMENT PARA USE32 PUBLIC 'CODE'
_TEXT	ENDS
;	COMDAT ??$_Destroy_range@U_GIFTBOX@@V?$allocator@U_GIFTBOX@@@std@@@std@@YAXPAU_GIFTBOX@@0AAV?$allocator@U_GIFTBOX@@@0@U_Nonscalar_ptr_iterator_tag@0@@Z
_TEXT	SEGMENT PARA USE32 PUBLIC 'CODE'
_TEXT	ENDS
;	COMDAT ??$_Destroy_range@JV?$allocator@J@std@@@std@@YAXPAJ0AAV?$allocator@J@0@U_Scalar_ptr_iterator_tag@0@@Z
_TEXT	SEGMENT PARA USE32 PUBLIC 'CODE'
_TEXT	ENDS
;	COMDAT ??$_Uninit_fill_n@JIJ@std@@YAXPAJIABJAAV?$allocator@J@0@U_Scalar_ptr_iterator_tag@0@@Z
_TEXT	SEGMENT PARA USE32 PUBLIC 'CODE'
_TEXT	ENDS
;	COMDAT ??$_Destroy_range@U__SPAWNREGION@CEventLua@@V?$allocator@U__SPAWNREGION@CEventLua@@@std@@@std@@YAXPAU__SPAWNREGION@CEventLua@@0AAV?$allocator@U__SPAWNREGION@CEventLua@@@0@U_Nonscalar_ptr_iterator_tag@0@@Z
_TEXT	SEGMENT PARA USE32 PUBLIC 'CODE'
_TEXT	ENDS
;	COMDAT ??$?0PAUtagACTMSG@@@?$allocator@PAPAUtagACTMSG@@@std@@QAE@ABV?$allocator@PAUtagACTMSG@@@1@@Z
_TEXT	SEGMENT PARA USE32 PUBLIC 'CODE'
_TEXT	ENDS
;	COMDAT ??$_Destroy@PAPAUtagACTMSG@@@std@@YAXPAPAPAUtagACTMSG@@@Z
_TEXT	SEGMENT PARA USE32 PUBLIC 'CODE'
_TEXT	ENDS
;	COMDAT ??$?0PAUtagMAGICATKMSG@@@?$allocator@PAPAUtagMAGICATKMSG@@@std@@QAE@ABV?$allocator@PAUtagMAGICATKMSG@@@1@@Z
_TEXT	SEGMENT PARA USE32 PUBLIC 'CODE'
_TEXT	ENDS
;	COMDAT ??$_Destroy@PAPAUtagMAGICATKMSG@@@std@@YAXPAPAPAUtagMAGICATKMSG@@@Z
_TEXT	SEGMENT PARA USE32 PUBLIC 'CODE'
_TEXT	ENDS
;	COMDAT ??$_Destroy@PAUtagACTMSG@@@std@@YAXPAPAUtagACTMSG@@@Z
_TEXT	SEGMENT PARA USE32 PUBLIC 'CODE'
_TEXT	ENDS
;	COMDAT ??$_Destroy@PAUtagMAGICATKMSG@@@std@@YAXPAPAUtagMAGICATKMSG@@@Z
_TEXT	SEGMENT PARA USE32 PUBLIC 'CODE'
_TEXT	ENDS
;	COMDAT ?destroy@?$allocator@UtagDROPITEM@@@std@@QAEXPAUtagDROPITEM@@@Z
_TEXT	SEGMENT PARA USE32 PUBLIC 'CODE'
_TEXT	ENDS
;	COMDAT ?destroy@?$allocator@UWORMON@@@std@@QAEXPAUWORMON@@@Z
_TEXT	SEGMENT PARA USE32 PUBLIC 'CODE'
_TEXT	ENDS
;	COMDAT ?destroy@?$allocator@U__ITEMGAME@CMiniGame@@@std@@QAEXPAU__ITEMGAME@CMiniGame@@@Z
_TEXT	SEGMENT PARA USE32 PUBLIC 'CODE'
_TEXT	ENDS
;	COMDAT ?destroy@?$allocator@U__ITEM@CExchange@@@std@@QAEXPAU__ITEM@CExchange@@@Z
_TEXT	SEGMENT PARA USE32 PUBLIC 'CODE'
_TEXT	ENDS
;	COMDAT ?destroy@?$allocator@U__POINT@CExchange@@@std@@QAEXPAU__POINT@CExchange@@@Z
_TEXT	SEGMENT PARA USE32 PUBLIC 'CODE'
_TEXT	ENDS
;	COMDAT ?begin@?$vector@EV?$allocator@E@std@@@std@@QAE?AViterator@12@XZ
_TEXT	SEGMENT PARA USE32 PUBLIC 'CODE'
_TEXT	ENDS
;	COMDAT ?end@?$vector@EV?$allocator@E@std@@@std@@QAE?AViterator@12@XZ
_TEXT	SEGMENT PARA USE32 PUBLIC 'CODE'
_TEXT	ENDS
;	COMDAT ?erase@?$vector@EV?$allocator@E@std@@@std@@QAE?AViterator@12@V312@0@Z
_TEXT	SEGMENT PARA USE32 PUBLIC 'CODE'
_TEXT	ENDS
;	COMDAT ?construct@?$allocator@U__SPAWNREGION@CEventLua@@@std@@QAEXPAU__SPAWNREGION@CEventLua@@ABU34@@Z
_TEXT	SEGMENT PARA USE32 PUBLIC 'CODE'
_TEXT	ENDS
;	COMDAT ?destroy@?$allocator@U__SPAWNREGION@CEventLua@@@std@@QAEXPAU__SPAWNREGION@CEventLua@@@Z
_TEXT	SEGMENT PARA USE32 PUBLIC 'CODE'
_TEXT	ENDS
;	COMDAT ?destroy@?$allocator@UD3DXVECTOR3@@@std@@QAEXPAUD3DXVECTOR3@@@Z
_TEXT	SEGMENT PARA USE32 PUBLIC 'CODE'
_TEXT	ENDS
;	COMDAT ?destroy@?$allocator@U_GIFTBOX@@@std@@QAEXPAU_GIFTBOX@@@Z
_TEXT	SEGMENT PARA USE32 PUBLIC 'CODE'
_TEXT	ENDS
;	COMDAT ??9const_iterator@?$vector@EV?$allocator@E@std@@@std@@QBE_NABV012@@Z
_TEXT	SEGMENT PARA USE32 PUBLIC 'CODE'
_TEXT	ENDS
;	COMDAT ??0iterator@?$vector@EV?$allocator@E@std@@@std@@QAE@PAE@Z
_TEXT	SEGMENT PARA USE32 PUBLIC 'CODE'
_TEXT	ENDS
;	COMDAT ??8const_iterator@?$vector@EV?$allocator@E@std@@@std@@QBE_NABV012@@Z
_TEXT	SEGMENT PARA USE32 PUBLIC 'CODE'
_TEXT	ENDS
;	COMDAT ??$insert@Vconst_iterator@?$vector@EV?$allocator@E@std@@@std@@@?$vector@EV?$allocator@E@std@@@std@@QAEXViterator@01@Vconst_iterator@01@1@Z
_TEXT	SEGMENT PARA USE32 PUBLIC 'CODE'
_TEXT	ENDS
;	COMDAT ??$_Ptr_cat@Vconst_iterator@?$vector@EV?$allocator@E@std@@@std@@PAE@std@@YA?AU_Nonscalar_ptr_iterator_tag@0@AAVconst_iterator@?$vector@EV?$allocator@E@std@@@0@AAPAE@Z
_TEXT	SEGMENT PARA USE32 PUBLIC 'CODE'
_TEXT	ENDS
;	COMDAT ??$_Uninit_copy@Vconst_iterator@?$vector@EV?$allocator@E@std@@@std@@PAEV?$allocator@E@3@@std@@YAPAEVconst_iterator@?$vector@EV?$allocator@E@std@@@0@0PAEAAV?$allocator@E@0@U_Nonscalar_ptr_iterator_tag@0@@Z
_TEXT	SEGMENT PARA USE32 PUBLIC 'CODE'
_TEXT	ENDS
;	COMDAT ??$_Uninit_copy@JJ@std@@YAPAJPAJ00AAV?$allocator@J@0@U_Scalar_ptr_iterator_tag@0@@Z
_TEXT	SEGMENT PARA USE32 PUBLIC 'CODE'
_TEXT	ENDS
;	COMDAT ??$_Uninit_copy@PAU__SPAWNREGION@CEventLua@@PAU12@V?$allocator@U__SPAWNREGION@CEventLua@@@std@@@std@@YAPAU__SPAWNREGION@CEventLua@@PAU12@00AAV?$allocator@U__SPAWNREGION@CEventLua@@@0@U_Nonscalar_ptr_iterator_tag@0@@Z
_TEXT	SEGMENT PARA USE32 PUBLIC 'CODE'
_TEXT	ENDS
;	COMDAT ??$fill_n@PAJIJ@std@@YAXPAJIABJ@Z
_TEXT	SEGMENT PARA USE32 PUBLIC 'CODE'
_TEXT	ENDS
;	COMDAT ??$_Destroy@UtagDROPITEM@@@std@@YAXPAUtagDROPITEM@@@Z
_TEXT	SEGMENT PARA USE32 PUBLIC 'CODE'
_TEXT	ENDS
;	COMDAT ??$_Destroy@UWORMON@@@std@@YAXPAUWORMON@@@Z
_TEXT	SEGMENT PARA USE32 PUBLIC 'CODE'
_TEXT	ENDS
;	COMDAT ??$_Destroy@U__ITEMGAME@CMiniGame@@@std@@YAXPAU__ITEMGAME@CMiniGame@@@Z
_TEXT	SEGMENT PARA USE32 PUBLIC 'CODE'
_TEXT	ENDS
;	COMDAT ??$_Destroy@U__ITEM@CExchange@@@std@@YAXPAU__ITEM@CExchange@@@Z
_TEXT	SEGMENT PARA USE32 PUBLIC 'CODE'
_TEXT	ENDS
;	COMDAT ??$_Destroy@U__POINT@CExchange@@@std@@YAXPAU__POINT@CExchange@@@Z
_TEXT	SEGMENT PARA USE32 PUBLIC 'CODE'
_TEXT	ENDS
;	COMDAT ??$copy@PAEPAE@std@@YAPAEPAE00@Z
_TEXT	SEGMENT PARA USE32 PUBLIC 'CODE'
_TEXT	ENDS
;	COMDAT ??$_Construct@U__SPAWNREGION@CEventLua@@U12@@std@@YAXPAU__SPAWNREGION@CEventLua@@ABU12@@Z
_TEXT	SEGMENT PARA USE32 PUBLIC 'CODE'
_TEXT	ENDS
;	COMDAT ??$_Destroy@U__SPAWNREGION@CEventLua@@@std@@YAXPAU__SPAWNREGION@CEventLua@@@Z
_TEXT	SEGMENT PARA USE32 PUBLIC 'CODE'
_TEXT	ENDS
;	COMDAT ??$_Destroy@UD3DXVECTOR3@@@std@@YAXPAUD3DXVECTOR3@@@Z
_TEXT	SEGMENT PARA USE32 PUBLIC 'CODE'
_TEXT	ENDS
;	COMDAT ??$_Destroy@U_GIFTBOX@@@std@@YAXPAU_GIFTBOX@@@Z
_TEXT	SEGMENT PARA USE32 PUBLIC 'CODE'
_TEXT	ENDS
;	COMDAT ?construct@?$allocator@E@std@@QAEXPAEABE@Z
_TEXT	SEGMENT PARA USE32 PUBLIC 'CODE'
_TEXT	ENDS
;	COMDAT ?destroy@?$allocator@E@std@@QAEXPAE@Z
_TEXT	SEGMENT PARA USE32 PUBLIC 'CODE'
_TEXT	ENDS
;	COMDAT ??Dconst_iterator@?$vector@EV?$allocator@E@std@@@std@@QBEABEXZ
_TEXT	SEGMENT PARA USE32 PUBLIC 'CODE'
_TEXT	ENDS
;	COMDAT ??Econst_iterator@?$vector@EV?$allocator@E@std@@@std@@QAEAAV012@XZ
_TEXT	SEGMENT PARA USE32 PUBLIC 'CODE'
_TEXT	ENDS
;	COMDAT ??$_Insert@Vconst_iterator@?$vector@EV?$allocator@E@std@@@std@@@?$vector@EV?$allocator@E@std@@@std@@QAEXViterator@01@Vconst_iterator@01@1Uforward_iterator_tag@1@@Z
_TEXT	SEGMENT PARA USE32 PUBLIC 'CODE'
_TEXT	ENDS
;	COMDAT ??$_Copy_opt@PAEPAE@std@@YAPAEPAE00U_Scalar_ptr_iterator_tag@0@@Z
_TEXT	SEGMENT PARA USE32 PUBLIC 'CODE'
_TEXT	ENDS
;	COMDAT ??$_Construct@EE@std@@YAXPAEABE@Z
_TEXT	SEGMENT PARA USE32 PUBLIC 'CODE'
_TEXT	ENDS
;	COMDAT ??$_Destroy@E@std@@YAXPAE@Z
_TEXT	SEGMENT PARA USE32 PUBLIC 'CODE'
_TEXT	ENDS
;	COMDAT ?capacity@?$vector@EV?$allocator@E@std@@@std@@QBEIXZ
_TEXT	SEGMENT PARA USE32 PUBLIC 'CODE'
_TEXT	ENDS
;	COMDAT ??Giterator@?$vector@EV?$allocator@E@std@@@std@@QBEHABVconst_iterator@12@@Z
_TEXT	SEGMENT PARA USE32 PUBLIC 'CODE'
_TEXT	ENDS
;	COMDAT ??Gconst_iterator@?$vector@EV?$allocator@E@std@@@std@@QBEHABV012@@Z
_TEXT	SEGMENT PARA USE32 PUBLIC 'CODE'
_TEXT	ENDS
;	COMDAT ??$_Distance@Vconst_iterator@?$vector@EV?$allocator@E@std@@@std@@I@std@@YAXVconst_iterator@?$vector@EV?$allocator@E@std@@@0@0AAI@Z
_TEXT	SEGMENT PARA USE32 PUBLIC 'CODE'
_TEXT	ENDS
;	COMDAT ??$_Ucopy@PAE@?$vector@EV?$allocator@E@std@@@std@@IAEPAEPAE00@Z
_TEXT	SEGMENT PARA USE32 PUBLIC 'CODE'
_TEXT	ENDS
;	COMDAT ??$advance@Vconst_iterator@?$vector@EV?$allocator@E@std@@@std@@H@std@@YAXAAVconst_iterator@?$vector@EV?$allocator@E@std@@@0@H@Z
_TEXT	SEGMENT PARA USE32 PUBLIC 'CODE'
_TEXT	ENDS
;	COMDAT ??$copy@Vconst_iterator@?$vector@EV?$allocator@E@std@@@std@@PAE@std@@YAPAEVconst_iterator@?$vector@EV?$allocator@E@std@@@0@0PAE@Z
_TEXT	SEGMENT PARA USE32 PUBLIC 'CODE'
_TEXT	ENDS
;	COMDAT ??$copy_backward@PAEPAE@std@@YAPAEPAE00@Z
_TEXT	SEGMENT PARA USE32 PUBLIC 'CODE'
_TEXT	ENDS
;	COMDAT ??$_Distance2@Vconst_iterator@?$vector@EV?$allocator@E@std@@@std@@I@std@@YAXVconst_iterator@?$vector@EV?$allocator@E@std@@@0@0AAIUrandom_access_iterator_tag@0@@Z
_TEXT	SEGMENT PARA USE32 PUBLIC 'CODE'
_TEXT	ENDS
;	COMDAT ??$_Uninitialized_copy@PAEPAEV?$allocator@E@std@@@std@@YAPAEPAE00AAV?$allocator@E@0@@Z
_TEXT	SEGMENT PARA USE32 PUBLIC 'CODE'
_TEXT	ENDS
;	COMDAT ??$_Advance@Vconst_iterator@?$vector@EV?$allocator@E@std@@@std@@H@std@@YAXAAVconst_iterator@?$vector@EV?$allocator@E@std@@@0@HUrandom_access_iterator_tag@0@@Z
_TEXT	SEGMENT PARA USE32 PUBLIC 'CODE'
_TEXT	ENDS
;	COMDAT ??$_Copy_opt@Vconst_iterator@?$vector@EV?$allocator@E@std@@@std@@PAE@std@@YAPAEVconst_iterator@?$vector@EV?$allocator@E@std@@@0@0PAEU_Nonscalar_ptr_iterator_tag@0@@Z
_TEXT	SEGMENT PARA USE32 PUBLIC 'CODE'
_TEXT	ENDS
;	COMDAT ??$_Copy_backward_opt@PAEPAE@std@@YAPAEPAE00U_Scalar_ptr_iterator_tag@0@@Z
_TEXT	SEGMENT PARA USE32 PUBLIC 'CODE'
_TEXT	ENDS
;	COMDAT ??Yconst_iterator@?$vector@EV?$allocator@E@std@@@std@@QAEAAV012@H@Z
_TEXT	SEGMENT PARA USE32 PUBLIC 'CODE'
_TEXT	ENDS
;	COMDAT ??$_Uninit_copy@EE@std@@YAPAEPAE00AAV?$allocator@E@0@U_Scalar_ptr_iterator_tag@0@@Z
_TEXT	SEGMENT PARA USE32 PUBLIC 'CODE'
_TEXT	ENDS
;	COMDAT ?SetIndex@CObj@@UAEHPAUIDirect3DDevice9@@KH@Z
_TEXT	SEGMENT PARA USE32 PUBLIC 'CODE'
_TEXT	ENDS
;	COMDAT ?GetName@CObj@@UAEPBDXZ
_TEXT	SEGMENT PARA USE32 PUBLIC 'CODE'
_TEXT	ENDS
;	COMDAT ??_C@_05CJBACGMB@hello?$AA@
CONST	SEGMENT DWORD USE32 PUBLIC 'CONST'
CONST	ENDS
;	COMDAT ?InitMotion@CObj@@UAEHK@Z
_TEXT	SEGMENT PARA USE32 PUBLIC 'CODE'
_TEXT	ENDS
;	COMDAT ?SetMotion@CObj@@UAEHKHK@Z
_TEXT	SEGMENT PARA USE32 PUBLIC 'CODE'
_TEXT	ENDS
;	COMDAT ?deallocate@?$allocator@E@std@@QAEXPAEI@Z
_TEXT	SEGMENT PARA USE32 PUBLIC 'CODE'
_TEXT	ENDS
;	COMDAT ??$_Ucopy@Vconst_iterator@?$vector@EV?$allocator@E@std@@@std@@@?$vector@EV?$allocator@E@std@@@std@@IAEPAEVconst_iterator@01@0PAE@Z
_TEXT	SEGMENT PARA USE32 PUBLIC 'CODE'
_TEXT	ENDS
;	COMDAT ?allocate@?$allocator@E@std@@QAEPAEI@Z
_TEXT	SEGMENT PARA USE32 PUBLIC 'CODE'
_TEXT	ENDS
;	COMDAT ??$_Allocate@E@std@@YAPAEIPAE@Z
_TEXT	SEGMENT PARA USE32 PUBLIC 'CODE'
_TEXT	ENDS
;	COMDAT ?_Xlen@?$vector@EV?$allocator@E@std@@@std@@IBEXXZ
_TEXT	SEGMENT PARA USE32 PUBLIC 'CODE'
_TEXT	ENDS
;	COMDAT ??0length_error@std@@QAE@ABV?$basic_string@DU?$char_traits@D@std@@V?$allocator@D@2@@1@@Z
_TEXT	SEGMENT PARA USE32 PUBLIC 'CODE'
_TEXT	ENDS
;	COMDAT ??0logic_error@std@@QAE@ABV?$basic_string@DU?$char_traits@D@std@@V?$allocator@D@2@@1@@Z
_TEXT	SEGMENT PARA USE32 PUBLIC 'CODE'
_TEXT	ENDS
;	COMDAT ??_7logic_error@std@@6B@
CONST	SEGMENT DWORD USE32 PUBLIC 'CONST'
CONST	ENDS
;	COMDAT ??_Glogic_error@std@@UAEPAXI@Z
_TEXT	SEGMENT PARA USE32 PUBLIC 'CODE'
_TEXT	ENDS
;	COMDAT ?what@logic_error@std@@UBEPBDXZ
_TEXT	SEGMENT PARA USE32 PUBLIC 'CODE'
_TEXT	ENDS
;	COMDAT ?c_str@?$basic_string@DU?$char_traits@D@std@@V?$allocator@D@2@@std@@QBEPBDXZ
_TEXT	SEGMENT PARA USE32 PUBLIC 'CODE'
_TEXT	ENDS
;	COMDAT ??0?$basic_string@DU?$char_traits@D@std@@V?$allocator@D@2@@std@@QAE@ABV01@@Z
_TEXT	SEGMENT PARA USE32 PUBLIC 'CODE'
_TEXT	ENDS
;	COMDAT ??0?$_String_val@DV?$allocator@D@std@@@std@@IAE@V?$allocator@D@1@@Z
_TEXT	SEGMENT PARA USE32 PUBLIC 'CODE'
_TEXT	ENDS
;	COMDAT ??0?$allocator@D@std@@QAE@ABV01@@Z
_TEXT	SEGMENT PARA USE32 PUBLIC 'CODE'
_TEXT	ENDS
;	COMDAT ?_Tidy@?$basic_string@DU?$char_traits@D@std@@V?$allocator@D@2@@std@@IAEX_NI@Z
_TEXT	SEGMENT PARA USE32 PUBLIC 'CODE'
_TEXT	ENDS
;	COMDAT ?copy@?$char_traits@D@std@@SAPADPADPBDI@Z
_TEXT	SEGMENT PARA USE32 PUBLIC 'CODE'
_TEXT	ENDS
;	COMDAT ?deallocate@?$allocator@D@std@@QAEXPADI@Z
_TEXT	SEGMENT PARA USE32 PUBLIC 'CODE'
_TEXT	ENDS
;	COMDAT ?_Eos@?$basic_string@DU?$char_traits@D@std@@V?$allocator@D@2@@std@@IAEXI@Z
_TEXT	SEGMENT PARA USE32 PUBLIC 'CODE'
_TEXT	ENDS
;	COMDAT ?assign@?$char_traits@D@std@@SAXAADABD@Z
_TEXT	SEGMENT PARA USE32 PUBLIC 'CODE'
_TEXT	ENDS
;	COMDAT ?_Myptr@?$basic_string@DU?$char_traits@D@std@@V?$allocator@D@2@@std@@QAEPADXZ
_TEXT	SEGMENT PARA USE32 PUBLIC 'CODE'
_TEXT	ENDS
;	COMDAT ?assign@?$basic_string@DU?$char_traits@D@std@@V?$allocator@D@2@@std@@QAEAAV12@ABV12@II@Z
_TEXT	SEGMENT PARA USE32 PUBLIC 'CODE'
_TEXT	ENDS
;	COMDAT ?erase@?$basic_string@DU?$char_traits@D@std@@V?$allocator@D@2@@std@@QAEAAV12@II@Z
_TEXT	SEGMENT PARA USE32 PUBLIC 'CODE'
_TEXT	ENDS
;	COMDAT ?move@?$char_traits@D@std@@SAPADPADPBDI@Z
_TEXT	SEGMENT PARA USE32 PUBLIC 'CODE'
_TEXT	ENDS
;	COMDAT ?_Grow@?$basic_string@DU?$char_traits@D@std@@V?$allocator@D@2@@std@@IAE_NI_N@Z
_TEXT	SEGMENT PARA USE32 PUBLIC 'CODE'
_TEXT	ENDS
;	COMDAT ?max_size@?$basic_string@DU?$char_traits@D@std@@V?$allocator@D@2@@std@@QBEIXZ
_TEXT	SEGMENT PARA USE32 PUBLIC 'CODE'
_TEXT	ENDS
;	COMDAT ?max_size@?$allocator@D@std@@QBEIXZ
_TEXT	SEGMENT PARA USE32 PUBLIC 'CODE'
_TEXT	ENDS
;	COMDAT ?_Copy@?$basic_string@DU?$char_traits@D@std@@V?$allocator@D@2@@std@@IAEXII@Z
_TEXT	SEGMENT PARA USE32 PUBLIC 'CODE'
_TEXT	ENDS
;	COMDAT ?allocate@?$allocator@D@std@@QAEPADI@Z
_TEXT	SEGMENT PARA USE32 PUBLIC 'CODE'
_TEXT	ENDS
;	COMDAT ??$_Allocate@D@std@@YAPADIPAD@Z
_TEXT	SEGMENT PARA USE32 PUBLIC 'CODE'
_TEXT	ENDS
;	COMDAT ?npos@?$basic_string@DU?$char_traits@D@std@@V?$allocator@D@2@@std@@2IB
CONST	SEGMENT DWORD USE32 PUBLIC 'CONST'
CONST	ENDS
;	COMDAT ??1logic_error@std@@UAE@XZ
_TEXT	SEGMENT PARA USE32 PUBLIC 'CODE'
_TEXT	ENDS
;	COMDAT ??_7length_error@std@@6B@
CONST	SEGMENT DWORD USE32 PUBLIC 'CONST'
CONST	ENDS
;	COMDAT ??_Glength_error@std@@UAEPAXI@Z
_TEXT	SEGMENT PARA USE32 PUBLIC 'CODE'
_TEXT	ENDS
;	COMDAT ??1length_error@std@@UAE@XZ
_TEXT	SEGMENT PARA USE32 PUBLIC 'CODE'
_TEXT	ENDS
;	COMDAT ??0?$basic_string@DU?$char_traits@D@std@@V?$allocator@D@2@@std@@QAE@PBD@Z
_TEXT	SEGMENT PARA USE32 PUBLIC 'CODE'
_TEXT	ENDS
;	COMDAT ??0?$allocator@D@std@@QAE@XZ
_TEXT	SEGMENT PARA USE32 PUBLIC 'CODE'
_TEXT	ENDS
;	COMDAT ?assign@?$basic_string@DU?$char_traits@D@std@@V?$allocator@D@2@@std@@QAEAAV12@PBD@Z
_TEXT	SEGMENT PARA USE32 PUBLIC 'CODE'
_TEXT	ENDS
;	COMDAT ?assign@?$basic_string@DU?$char_traits@D@std@@V?$allocator@D@2@@std@@QAEAAV12@PBDI@Z
_TEXT	SEGMENT PARA USE32 PUBLIC 'CODE'
_TEXT	ENDS
;	COMDAT ?_Inside@?$basic_string@DU?$char_traits@D@std@@V?$allocator@D@2@@std@@IAE_NPBD@Z
_TEXT	SEGMENT PARA USE32 PUBLIC 'CODE'
_TEXT	ENDS
;	COMDAT ?length@?$char_traits@D@std@@SAIPBD@Z
_TEXT	SEGMENT PARA USE32 PUBLIC 'CODE'
_TEXT	ENDS
;	COMDAT ??_C@_0BD@OLBABOEK@vector?$DMT?$DO?5too?5long?$AA@
CONST	SEGMENT DWORD USE32 PUBLIC 'CONST'
CONST	ENDS
;	COMDAT ??1?$basic_string@DU?$char_traits@D@std@@V?$allocator@D@2@@std@@QAE@XZ
_TEXT	SEGMENT PARA USE32 PUBLIC 'CODE'
_TEXT	ENDS
;	COMDAT __TI3?AVlength_error@std@@
xdata$x	SEGMENT DWORD USE32 PUBLIC 'CONST'
xdata$x	ENDS
;	COMDAT __CTA3?AVlength_error@std@@
xdata$x	SEGMENT DWORD USE32 PUBLIC 'CONST'
xdata$x	ENDS
;	COMDAT __CT??_R0?AVlength_error@std@@@8??0length_error@std@@QAE@ABV01@@Z40
xdata$x	SEGMENT DWORD USE32 PUBLIC 'CONST'
xdata$x	ENDS
;	COMDAT ??_R0?AVlength_error@std@@@8
_DATA	SEGMENT DWORD USE32 PUBLIC 'DATA'
_DATA	ENDS
;	COMDAT ??0length_error@std@@QAE@ABV01@@Z
_TEXT	SEGMENT PARA USE32 PUBLIC 'CODE'
_TEXT	ENDS
;	COMDAT ??0logic_error@std@@QAE@ABV01@@Z
_TEXT	SEGMENT PARA USE32 PUBLIC 'CODE'
_TEXT	ENDS
;	COMDAT __CT??_R0?AVlogic_error@std@@@8??0logic_error@std@@QAE@ABV01@@Z40
xdata$x	SEGMENT DWORD USE32 PUBLIC 'CONST'
xdata$x	ENDS
;	COMDAT ??_R0?AVlogic_error@std@@@8
_DATA	SEGMENT DWORD USE32 PUBLIC 'DATA'
_DATA	ENDS
;	COMDAT __CT??_R0?AVexception@@@8??0exception@@QAE@ABV0@@Z12
xdata$x	SEGMENT DWORD USE32 PUBLIC 'CONST'
xdata$x	ENDS
;	COMDAT ??_R0?AVexception@@@8
_DATA	SEGMENT DWORD USE32 PUBLIC 'DATA'
_DATA	ENDS
;	COMDAT ?size@?$vector@EV?$allocator@E@std@@@std@@QBEIXZ
_TEXT	SEGMENT PARA USE32 PUBLIC 'CODE'
_TEXT	ENDS
;	COMDAT ?max_size@?$vector@EV?$allocator@E@std@@@std@@QBEIXZ
_TEXT	SEGMENT PARA USE32 PUBLIC 'CODE'
_TEXT	ENDS
;	COMDAT ?max_size@?$allocator@E@std@@QBEIXZ
_TEXT	SEGMENT PARA USE32 PUBLIC 'CODE'
_TEXT	ENDS
;	COMDAT ??2@YAPAXIPAX@Z
_TEXT	SEGMENT PARA USE32 PUBLIC 'CODE'
_TEXT	ENDS
;	COMDAT ?_Ptr_cat@std@@YA?AU_Scalar_ptr_iterator_tag@1@PAE0@Z
_TEXT	SEGMENT PARA USE32 PUBLIC 'CODE'
_TEXT	ENDS
;	COMDAT ??0const_iterator@?$vector@EV?$allocator@E@std@@@std@@QAE@PAE@Z
_TEXT	SEGMENT PARA USE32 PUBLIC 'CODE'
_TEXT	ENDS
;	COMDAT ?_Destroy@?$vector@EV?$allocator@E@std@@@std@@IAEXPAE0@Z
_TEXT	SEGMENT PARA USE32 PUBLIC 'CODE'
_TEXT	ENDS
;	COMDAT ??$_Destroy_range@EV?$allocator@E@std@@@std@@YAXPAE0AAV?$allocator@E@0@@Z
_TEXT	SEGMENT PARA USE32 PUBLIC 'CODE'
_TEXT	ENDS
;	COMDAT ?_Ptr_cat@std@@YA?AU_Scalar_ptr_iterator_tag@1@PAJ0@Z
_TEXT	SEGMENT PARA USE32 PUBLIC 'CODE'
_TEXT	ENDS
;	COMDAT ??9const_iterator@?$_Tree@V?$_Tmap_traits@KEU?$less@K@std@@V?$allocator@U?$pair@$$CBKE@std@@@2@$0A@@std@@@std@@QBE_NABV012@@Z
_TEXT	SEGMENT PARA USE32 PUBLIC 'CODE'
_TEXT	ENDS
;	COMDAT ??8const_iterator@?$_Tree@V?$_Tmap_traits@KEU?$less@K@std@@V?$allocator@U?$pair@$$CBKE@std@@@2@$0A@@std@@@std@@QBE_NABV012@@Z
_TEXT	SEGMENT PARA USE32 PUBLIC 'CODE'
_TEXT	ENDS
;	COMDAT ??Eiterator@?$_Tree@V?$_Tmap_traits@KEU?$less@K@std@@V?$allocator@U?$pair@$$CBKE@std@@@2@$0A@@std@@@std@@QAEAAV012@XZ
_TEXT	SEGMENT PARA USE32 PUBLIC 'CODE'
_TEXT	ENDS
;	COMDAT ??Econst_iterator@?$_Tree@V?$_Tmap_traits@KEU?$less@K@std@@V?$allocator@U?$pair@$$CBKE@std@@@2@$0A@@std@@@std@@QAEAAV012@XZ
_TEXT	SEGMENT PARA USE32 PUBLIC 'CODE'
_TEXT	ENDS
;	COMDAT ?_Inc@const_iterator@?$_Tree@V?$_Tmap_traits@KEU?$less@K@std@@V?$allocator@U?$pair@$$CBKE@std@@@2@$0A@@std@@@std@@QAEXXZ
_TEXT	SEGMENT PARA USE32 PUBLIC 'CODE'
_TEXT	ENDS
;	COMDAT ?_Min@?$_Tree@V?$_Tmap_traits@KEU?$less@K@std@@V?$allocator@U?$pair@$$CBKE@std@@@2@$0A@@std@@@std@@KAPAU_Node@?$_Tree_nod@V?$_Tmap_traits@KEU?$less@K@std@@V?$allocator@U?$pair@$$CBKE@std@@@2@$0A@@std@@@2@PAU342@@Z
_TEXT	SEGMENT PARA USE32 PUBLIC 'CODE'
_TEXT	ENDS
;	COMDAT ?_Left@?$_Tree@V?$_Tmap_traits@KEU?$less@K@std@@V?$allocator@U?$pair@$$CBKE@std@@@2@$0A@@std@@@std@@KAAAPAU_Node@?$_Tree_nod@V?$_Tmap_traits@KEU?$less@K@std@@V?$allocator@U?$pair@$$CBKE@std@@@2@$0A@@std@@@2@PAU342@@Z
_TEXT	SEGMENT PARA USE32 PUBLIC 'CODE'
_TEXT	ENDS
;	COMDAT ?_Isnil@?$_Tree@V?$_Tmap_traits@KEU?$less@K@std@@V?$allocator@U?$pair@$$CBKE@std@@@2@$0A@@std@@@std@@KAAADPAU_Node@?$_Tree_nod@V?$_Tmap_traits@KEU?$less@K@std@@V?$allocator@U?$pair@$$CBKE@std@@@2@$0A@@std@@@2@@Z
_TEXT	SEGMENT PARA USE32 PUBLIC 'CODE'
_TEXT	ENDS
;	COMDAT ?_Parent@?$_Tree@V?$_Tmap_traits@KEU?$less@K@std@@V?$allocator@U?$pair@$$CBKE@std@@@2@$0A@@std@@@std@@KAAAPAU_Node@?$_Tree_nod@V?$_Tmap_traits@KEU?$less@K@std@@V?$allocator@U?$pair@$$CBKE@std@@@2@$0A@@std@@@2@PAU342@@Z
_TEXT	SEGMENT PARA USE32 PUBLIC 'CODE'
_TEXT	ENDS
;	COMDAT ?_Right@?$_Tree@V?$_Tmap_traits@KEU?$less@K@std@@V?$allocator@U?$pair@$$CBKE@std@@@2@$0A@@std@@@std@@KAAAPAU_Node@?$_Tree_nod@V?$_Tmap_traits@KEU?$less@K@std@@V?$allocator@U?$pair@$$CBKE@std@@@2@$0A@@std@@@2@PAU342@@Z
_TEXT	SEGMENT PARA USE32 PUBLIC 'CODE'
_TEXT	ENDS
;	COMDAT ??9const_iterator@?$_Tree@V?$_Tmap_traits@KPAVCCtrl@@U?$less@K@std@@V?$allocator@U?$pair@$$CBKPAVCCtrl@@@std@@@3@$0A@@std@@@std@@QBE_NABV012@@Z
_TEXT	SEGMENT PARA USE32 PUBLIC 'CODE'
_TEXT	ENDS
;	COMDAT ??8const_iterator@?$_Tree@V?$_Tmap_traits@KPAVCCtrl@@U?$less@K@std@@V?$allocator@U?$pair@$$CBKPAVCCtrl@@@std@@@3@$0A@@std@@@std@@QBE_NABV012@@Z
_TEXT	SEGMENT PARA USE32 PUBLIC 'CODE'
_TEXT	ENDS
;	COMDAT ??Eiterator@?$_Tree@V?$_Tmap_traits@KPAVCCtrl@@U?$less@K@std@@V?$allocator@U?$pair@$$CBKPAVCCtrl@@@std@@@3@$0A@@std@@@std@@QAEAAV012@XZ
_TEXT	SEGMENT PARA USE32 PUBLIC 'CODE'
_TEXT	ENDS
;	COMDAT ??Econst_iterator@?$_Tree@V?$_Tmap_traits@KPAVCCtrl@@U?$less@K@std@@V?$allocator@U?$pair@$$CBKPAVCCtrl@@@std@@@3@$0A@@std@@@std@@QAEAAV012@XZ
_TEXT	SEGMENT PARA USE32 PUBLIC 'CODE'
_TEXT	ENDS
;	COMDAT ?_Inc@const_iterator@?$_Tree@V?$_Tmap_traits@KPAVCCtrl@@U?$less@K@std@@V?$allocator@U?$pair@$$CBKPAVCCtrl@@@std@@@3@$0A@@std@@@std@@QAEXXZ
_TEXT	SEGMENT PARA USE32 PUBLIC 'CODE'
_TEXT	ENDS
;	COMDAT ?_Min@?$_Tree@V?$_Tmap_traits@KPAVCCtrl@@U?$less@K@std@@V?$allocator@U?$pair@$$CBKPAVCCtrl@@@std@@@3@$0A@@std@@@std@@KAPAU_Node@?$_Tree_nod@V?$_Tmap_traits@KPAVCCtrl@@U?$less@K@std@@V?$allocator@U?$pair@$$CBKPAVCCtrl@@@std@@@3@$0A@@std@@@2@PAU342@@Z
_TEXT	SEGMENT PARA USE32 PUBLIC 'CODE'
_TEXT	ENDS
;	COMDAT ?_Left@?$_Tree@V?$_Tmap_traits@KPAVCCtrl@@U?$less@K@std@@V?$allocator@U?$pair@$$CBKPAVCCtrl@@@std@@@3@$0A@@std@@@std@@KAAAPAU_Node@?$_Tree_nod@V?$_Tmap_traits@KPAVCCtrl@@U?$less@K@std@@V?$allocator@U?$pair@$$CBKPAVCCtrl@@@std@@@3@$0A@@std@@@2@PAU342@@Z
_TEXT	SEGMENT PARA USE32 PUBLIC 'CODE'
_TEXT	ENDS
;	COMDAT ?_Isnil@?$_Tree@V?$_Tmap_traits@KPAVCCtrl@@U?$less@K@std@@V?$allocator@U?$pair@$$CBKPAVCCtrl@@@std@@@3@$0A@@std@@@std@@KAAADPAU_Node@?$_Tree_nod@V?$_Tmap_traits@KPAVCCtrl@@U?$less@K@std@@V?$allocator@U?$pair@$$CBKPAVCCtrl@@@std@@@3@$0A@@std@@@2@@Z
_TEXT	SEGMENT PARA USE32 PUBLIC 'CODE'
_TEXT	ENDS
;	COMDAT ?_Parent@?$_Tree@V?$_Tmap_traits@KPAVCCtrl@@U?$less@K@std@@V?$allocator@U?$pair@$$CBKPAVCCtrl@@@std@@@3@$0A@@std@@@std@@KAAAPAU_Node@?$_Tree_nod@V?$_Tmap_traits@KPAVCCtrl@@U?$less@K@std@@V?$allocator@U?$pair@$$CBKPAVCCtrl@@@std@@@3@$0A@@std@@@2@PAU342@@Z
_TEXT	SEGMENT PARA USE32 PUBLIC 'CODE'
_TEXT	ENDS
;	COMDAT ?_Right@?$_Tree@V?$_Tmap_traits@KPAVCCtrl@@U?$less@K@std@@V?$allocator@U?$pair@$$CBKPAVCCtrl@@@std@@@3@$0A@@std@@@std@@KAAAPAU_Node@?$_Tree_nod@V?$_Tmap_traits@KPAVCCtrl@@U?$less@K@std@@V?$allocator@U?$pair@$$CBKPAVCCtrl@@@std@@@3@$0A@@std@@@2@PAU342@@Z
_TEXT	SEGMENT PARA USE32 PUBLIC 'CODE'
_TEXT	ENDS
;	COMDAT ??9const_iterator@?$_Tree@V?$_Tmap_traits@KPAVCUser@@U?$less@K@std@@V?$allocator@U?$pair@$$CBKPAVCUser@@@std@@@3@$0A@@std@@@std@@QBE_NABV012@@Z
_TEXT	SEGMENT PARA USE32 PUBLIC 'CODE'
_TEXT	ENDS
;	COMDAT ??8const_iterator@?$_Tree@V?$_Tmap_traits@KPAVCUser@@U?$less@K@std@@V?$allocator@U?$pair@$$CBKPAVCUser@@@std@@@3@$0A@@std@@@std@@QBE_NABV012@@Z
_TEXT	SEGMENT PARA USE32 PUBLIC 'CODE'
_TEXT	ENDS
;	COMDAT ??Eiterator@?$_Tree@V?$_Tmap_traits@KPAVCUser@@U?$less@K@std@@V?$allocator@U?$pair@$$CBKPAVCUser@@@std@@@3@$0A@@std@@@std@@QAEAAV012@XZ
_TEXT	SEGMENT PARA USE32 PUBLIC 'CODE'
_TEXT	ENDS
;	COMDAT ??Econst_iterator@?$_Tree@V?$_Tmap_traits@KPAVCUser@@U?$less@K@std@@V?$allocator@U?$pair@$$CBKPAVCUser@@@std@@@3@$0A@@std@@@std@@QAEAAV012@XZ
_TEXT	SEGMENT PARA USE32 PUBLIC 'CODE'
_TEXT	ENDS
;	COMDAT ?_Inc@const_iterator@?$_Tree@V?$_Tmap_traits@KPAVCUser@@U?$less@K@std@@V?$allocator@U?$pair@$$CBKPAVCUser@@@std@@@3@$0A@@std@@@std@@QAEXXZ
_TEXT	SEGMENT PARA USE32 PUBLIC 'CODE'
_TEXT	ENDS
;	COMDAT ?_Min@?$_Tree@V?$_Tmap_traits@KPAVCUser@@U?$less@K@std@@V?$allocator@U?$pair@$$CBKPAVCUser@@@std@@@3@$0A@@std@@@std@@KAPAU_Node@?$_Tree_nod@V?$_Tmap_traits@KPAVCUser@@U?$less@K@std@@V?$allocator@U?$pair@$$CBKPAVCUser@@@std@@@3@$0A@@std@@@2@PAU342@@Z
_TEXT	SEGMENT PARA USE32 PUBLIC 'CODE'
_TEXT	ENDS
;	COMDAT ?_Left@?$_Tree@V?$_Tmap_traits@KPAVCUser@@U?$less@K@std@@V?$allocator@U?$pair@$$CBKPAVCUser@@@std@@@3@$0A@@std@@@std@@KAAAPAU_Node@?$_Tree_nod@V?$_Tmap_traits@KPAVCUser@@U?$less@K@std@@V?$allocator@U?$pair@$$CBKPAVCUser@@@std@@@3@$0A@@std@@@2@PAU342@@Z
_TEXT	SEGMENT PARA USE32 PUBLIC 'CODE'
_TEXT	ENDS
;	COMDAT ?_Isnil@?$_Tree@V?$_Tmap_traits@KPAVCUser@@U?$less@K@std@@V?$allocator@U?$pair@$$CBKPAVCUser@@@std@@@3@$0A@@std@@@std@@KAAADPAU_Node@?$_Tree_nod@V?$_Tmap_traits@KPAVCUser@@U?$less@K@std@@V?$allocator@U?$pair@$$CBKPAVCUser@@@std@@@3@$0A@@std@@@2@@Z
_TEXT	SEGMENT PARA USE32 PUBLIC 'CODE'
_TEXT	ENDS
;	COMDAT ?_Parent@?$_Tree@V?$_Tmap_traits@KPAVCUser@@U?$less@K@std@@V?$allocator@U?$pair@$$CBKPAVCUser@@@std@@@3@$0A@@std@@@std@@KAAAPAU_Node@?$_Tree_nod@V?$_Tmap_traits@KPAVCUser@@U?$less@K@std@@V?$allocator@U?$pair@$$CBKPAVCUser@@@std@@@3@$0A@@std@@@2@PAU342@@Z
_TEXT	SEGMENT PARA USE32 PUBLIC 'CODE'
_TEXT	ENDS
;	COMDAT ?_Right@?$_Tree@V?$_Tmap_traits@KPAVCUser@@U?$less@K@std@@V?$allocator@U?$pair@$$CBKPAVCUser@@@std@@@3@$0A@@std@@@std@@KAAAPAU_Node@?$_Tree_nod@V?$_Tmap_traits@KPAVCUser@@U?$less@K@std@@V?$allocator@U?$pair@$$CBKPAVCUser@@@std@@@3@$0A@@std@@@2@PAU342@@Z
_TEXT	SEGMENT PARA USE32 PUBLIC 'CODE'
_TEXT	ENDS
;	COMDAT ?_Psave@?$_Facetptr@V?$ctype@G@std@@@std@@2PBVfacet@locale@2@B
_DATA	SEGMENT DWORD USE32 PUBLIC 'DATA'
_DATA	ENDS
;	COMDAT ?_Psave@?$_Facetptr@V?$ctype@D@std@@@std@@2PBVfacet@locale@2@B
_DATA	SEGMENT DWORD USE32 PUBLIC 'DATA'
_DATA	ENDS
;	COMDAT ?compare@?$char_traits@D@std@@SAHPBD0I@Z
_TEXT	SEGMENT PARA USE32 PUBLIC 'CODE'
_TEXT	ENDS
;	COMDAT ?_Myptr@?$basic_string@DU?$char_traits@D@std@@V?$allocator@D@2@@std@@QBEPBDXZ
_TEXT	SEGMENT PARA USE32 PUBLIC 'CODE'
_TEXT	ENDS
;	COMDAT ?size@?$basic_string@DU?$char_traits@D@std@@V?$allocator@D@2@@std@@QBEIXZ
_TEXT	SEGMENT PARA USE32 PUBLIC 'CODE'
_TEXT	ENDS
;	COMDAT ?GetLayer@CObj@@QAEHXZ
_TEXT	SEGMENT PARA USE32 PUBLIC 'CODE'
_TEXT	ENDS
;	COMDAT ??0D3DXVECTOR4@@QAE@XZ
_TEXT	SEGMENT PARA USE32 PUBLIC 'CODE'
_TEXT	ENDS
;	COMDAT ?GetMatrixWorld@CObj@@QBE?AUD3DXMATRIX@@XZ
_TEXT	SEGMENT PARA USE32 PUBLIC 'CODE'
_TEXT	ENDS
;	COMDAT ?IsNullBoundBox@CModel@@QAEHXZ
_TEXT	SEGMENT PARA USE32 PUBLIC 'CODE'
_TEXT	ENDS
;	COMDAT ?IsPlayer@CMover@@QAEHXZ
_TEXT	SEGMENT PARA USE32 PUBLIC 'CODE'
_TEXT	ENDS
;	COMDAT ?D3DXVec3LengthSq@@YAMPBUD3DXVECTOR3@@@Z
_TEXT	SEGMENT PARA USE32 PUBLIC 'CODE'
_TEXT	ENDS
;	COMDAT ??GD3DXVECTOR3@@QBE?AU0@ABU0@@Z
_TEXT	SEGMENT PARA USE32 PUBLIC 'CODE'
_TEXT	ENDS
;	COMDAT ?fabs@@YAMM@Z
_TEXT	SEGMENT PARA USE32 PUBLIC 'CODE'
_TEXT	ENDS
;	COMDAT _fabsf
_TEXT	SEGMENT PARA USE32 PUBLIC 'CODE'
_TEXT	ENDS
;	COMDAT ??9D3DXVECTOR3@@QBEHABU0@@Z
_TEXT	SEGMENT PARA USE32 PUBLIC 'CODE'
_TEXT	ENDS
;	COMDAT ?GetLinkPos@CObj@@QAE?AUD3DXVECTOR3@@XZ
_TEXT	SEGMENT PARA USE32 PUBLIC 'CODE'
_TEXT	ENDS
;	COMDAT ??KD3DXVECTOR3@@QBE?AU0@M@Z
_TEXT	SEGMENT PARA USE32 PUBLIC 'CODE'
_TEXT	ENDS
;	COMDAT ?VecInWorld@CWorld@@QAEHABUD3DXVECTOR3@@@Z
_TEXT	SEGMENT PARA USE32 PUBLIC 'CODE'
_TEXT	ENDS
;	COMDAT ?VecInWorld@CWorld@@QAEHMM@Z
_TEXT	SEGMENT PARA USE32 PUBLIC 'CODE'
_TEXT	ENDS
;	COMDAT ?GetWorld@CObj@@QAEPAVCWorld@@XZ
_TEXT	SEGMENT PARA USE32 PUBLIC 'CODE'
_TEXT	ENDS
;	COMDAT ??8D3DXVECTOR3@@QBEHABU0@@Z
_TEXT	SEGMENT PARA USE32 PUBLIC 'CODE'
_TEXT	ENDS
;	COMDAT ?GetBBVector@CModel@@QAEPBUBOUND_BOX@@XZ
_TEXT	SEGMENT PARA USE32 PUBLIC 'CODE'
_TEXT	ENDS
;	COMDAT ?GetPos@CObj@@QAE?AUD3DXVECTOR3@@XZ
_TEXT	SEGMENT PARA USE32 PUBLIC 'CODE'
_TEXT	ENDS
;	COMDAT ?GetModel@CObj@@QAEPAVCModel@@XZ
_TEXT	SEGMENT PARA USE32 PUBLIC 'CODE'
_TEXT	ENDS
;	COMDAT ?GetType@CObj@@QAEKXZ
_TEXT	SEGMENT PARA USE32 PUBLIC 'CODE'
_TEXT	ENDS
;	COMDAT ??_H@YGXPAXIHP6EPAX0@Z@Z
_TEXT	SEGMENT PARA USE32 PUBLIC 'CODE'
_TEXT	ENDS
;	COMDAT ?SetVirtual@CObj@@QAEXH@Z
_TEXT	SEGMENT PARA USE32 PUBLIC 'CODE'
_TEXT	ENDS
;	COMDAT ?SetFlag@CObj@@AAEXHK@Z
_TEXT	SEGMENT PARA USE32 PUBLIC 'CODE'
_TEXT	ENDS
;	COMDAT ?D3DXMatrixIdentity@@YAPAUD3DXMATRIX@@PAU1@@Z
_TEXT	SEGMENT PARA USE32 PUBLIC 'CODE'
_TEXT	ENDS
;	COMDAT ?SetDelete@CObj@@QAEXH@Z
_TEXT	SEGMENT PARA USE32 PUBLIC 'CODE'
_TEXT	ENDS
;	COMDAT ?SetPosChanged@CObj@@QAEXH@Z
_TEXT	SEGMENT PARA USE32 PUBLIC 'CODE'
_TEXT	ENDS
;	COMDAT ?SetUpdateMatrix@CObj@@QAEXH@Z
_TEXT	SEGMENT PARA USE32 PUBLIC 'CODE'
_TEXT	ENDS
;	COMDAT ??0D3DXVECTOR3@@QAE@MMM@Z
_TEXT	SEGMENT PARA USE32 PUBLIC 'CODE'
_TEXT	ENDS
;	COMDAT ??0D3DXMATRIX@@QAE@XZ
_TEXT	SEGMENT PARA USE32 PUBLIC 'CODE'
_TEXT	ENDS
;	COMDAT ??0D3DXVECTOR3@@QAE@XZ
_TEXT	SEGMENT PARA USE32 PUBLIC 'CODE'
_TEXT	ENDS
;	COMDAT ??_7CObj@@6B@
CONST	SEGMENT DWORD USE32 PUBLIC 'CONST'
CONST	ENDS
;	COMDAT ?GetMover@CAIInterface@@IAEPAVCMover@@XZ
_TEXT	SEGMENT PARA USE32 PUBLIC 'CODE'
_TEXT	ENDS
;	COMDAT ?IsMove@CAction@@QAEHXZ
_TEXT	SEGMENT PARA USE32 PUBLIC 'CODE'
_TEXT	ENDS
;	COMDAT ?GetMoveState@CAction@@QAEKXZ
_TEXT	SEGMENT PARA USE32 PUBLIC 'CODE'
_TEXT	ENDS
sxdata	SEGMENT DWORD USE32 'SXDATA'
sxdata	ENDS
FLAT	GROUP _DATA, CONST, _BSS
	ASSUME	CS: FLAT, DS: FLAT, SS: FLAT
endif

INCLUDELIB LIBCMT
INCLUDELIB OLDNAMES

PUBLIC	?m_nMethod@CObj@@2HA				; CObj::m_nMethod
PUBLIC	?m_pObjHighlight@CObj@@2PAV1@A			; CObj::m_pObjHighlight
PUBLIC	?m_pObjActive@CObj@@2PAV1@A			; CObj::m_pObjActive
PUBLIC	?m_bCollision@CObj@@2HA				; CObj::m_bCollision
PUBLIC	?m_bAnimate@CObj@@2HA				; CObj::m_bAnimate
_BSS	SEGMENT
?m_nMethod@CObj@@2HA DD 01H DUP (?)			; CObj::m_nMethod
?m_pObjHighlight@CObj@@2PAV1@A DD 01H DUP (?)		; CObj::m_pObjHighlight
?m_pObjActive@CObj@@2PAV1@A DD 01H DUP (?)		; CObj::m_pObjActive
_BSS	ENDS
_DATA	SEGMENT
?m_bCollision@CObj@@2HA DD 01H				; CObj::m_bCollision
?m_bAnimate@CObj@@2HA DD 01H				; CObj::m_bAnimate
_DATA	ENDS
CONST	SEGMENT
_INV_6	DD	03e2aaaabr			; 0.166667
CONST	ENDS
PUBLIC	??1CObj@@UAE@XZ					; CObj::~CObj
PUBLIC	?SetMotion@CObj@@UAEHKHK@Z			; CObj::SetMotion
PUBLIC	?InitMotion@CObj@@UAEHK@Z			; CObj::InitMotion
PUBLIC	?LoadModel@CObj@@UAEPAVCModel@@PAUIDirect3DDevice9@@KK@Z ; CObj::LoadModel
PUBLIC	?InitProp@CObj@@UAEXH@Z				; CObj::InitProp
PUBLIC	?GetName@CObj@@UAEPBDXZ				; CObj::GetName
PUBLIC	?Process@CObj@@UAEXXZ				; CObj::Process
PUBLIC	?Read@CObj@@UAEHPAVCFileIO@@@Z			; CObj::Read
PUBLIC	?Render@CObj@@UAEXPAUIDirect3DDevice9@@@Z	; CObj::Render
PUBLIC	?RenderName@CObj@@UAEXPAUIDirect3DDevice9@@PAVCD3DFont@@K@Z ; CObj::RenderName
PUBLIC	?SetIndex@CObj@@UAEHPAUIDirect3DDevice9@@KH@Z	; CObj::SetIndex
PUBLIC	??_7CObj@@6B@					; CObj::`vftable'
PUBLIC	??_GCObj@@UAEPAXI@Z				; CObj::`scalar deleting destructor'
EXTRN	?Serialize@CObj@@UAEXAAVCAr@@@Z:NEAR		; CObj::Serialize
EXTRN	??_ECObj@@UAEPAXI@Z:NEAR			; CObj::`vector deleting destructor'
EXTRN	?IsAniable@CModel@@QAEHXZ:NEAR			; CModel::IsAniable
;	COMDAT ??_7CObj@@6B@
; File c:\documents and settings\test\mes documents\source\virtuos_v17\build\program\_common\obj.cpp
CONST	SEGMENT
??_7CObj@@6B@ DD FLAT:??_ECObj@@UAEPAXI@Z		; CObj::`vftable'
	DD	FLAT:?SetMotion@CObj@@UAEHKHK@Z
	DD	FLAT:?InitMotion@CObj@@UAEHK@Z
	DD	FLAT:?LoadModel@CObj@@UAEPAVCModel@@PAUIDirect3DDevice9@@KK@Z
	DD	FLAT:?InitProp@CObj@@UAEXH@Z
	DD	FLAT:?GetName@CObj@@UAEPBDXZ
	DD	FLAT:?Process@CObj@@UAEXXZ
	DD	FLAT:?Read@CObj@@UAEHPAVCFileIO@@@Z
	DD	FLAT:?Serialize@CObj@@UAEXAAVCAr@@@Z
	DD	FLAT:?Render@CObj@@UAEXPAUIDirect3DDevice9@@@Z
	DD	FLAT:?RenderName@CObj@@UAEXPAUIDirect3DDevice9@@PAVCD3DFont@@K@Z
	DD	FLAT:?SetIndex@CObj@@UAEHPAUIDirect3DDevice9@@KH@Z
; Function compile flags: /Ogty
CONST	ENDS
;	COMDAT ??1CObj@@UAE@XZ
_TEXT	SEGMENT
??1CObj@@UAE@XZ PROC NEAR				; CObj::~CObj, COMDAT
; _this$ = ecx

; 114  : {

  00000	56		 push	 esi
  00001	8b f1		 mov	 esi, ecx

; 115  : 	// 애니메이션이 가능한 것만 여기서 파괴가 가능하다.
; 116  : 	// 애니메이션이 불가능한 것은 CModelMng에서 관리하고 파괴한다.
; 117  : 	if( m_pModel && m_pModel->IsAniable() )

  00003	8b 8e 78 01 00
	00		 mov	 ecx, DWORD PTR [esi+376]
  00009	85 c9		 test	 ecx, ecx
  0000b	c7 06 00 00 00
	00		 mov	 DWORD PTR [esi], OFFSET FLAT:??_7CObj@@6B@
  00011	74 23		 je	 SHORT $L226264
  00013	e8 00 00 00 00	 call	 ?IsAniable@CModel@@QAEHXZ ; CModel::IsAniable
  00018	85 c0		 test	 eax, eax
  0001a	74 1a		 je	 SHORT $L226264

; 118  : 		SAFE_DELETE( m_pModel );

  0001c	8b 8e 78 01 00
	00		 mov	 ecx, DWORD PTR [esi+376]
  00022	85 c9		 test	 ecx, ecx
  00024	74 10		 je	 SHORT $L226264
  00026	8b 01		 mov	 eax, DWORD PTR [ecx]
  00028	6a 01		 push	 1
  0002a	ff 10		 call	 DWORD PTR [eax]
  0002c	c7 86 78 01 00
	00 00 00 00 00	 mov	 DWORD PTR [esi+376], 0
$L226264:

; 119  : 
; 120  : 	SAFE_DELETE( m_pAIInterface );

  00036	8b 8e 88 01 00
	00		 mov	 ecx, DWORD PTR [esi+392]
  0003c	85 c9		 test	 ecx, ecx
  0003e	74 11		 je	 SHORT $L226268
  00040	8b 11		 mov	 edx, DWORD PTR [ecx]
  00042	6a 01		 push	 1
  00044	ff 52 04	 call	 DWORD PTR [edx+4]
  00047	c7 86 88 01 00
	00 00 00 00 00	 mov	 DWORD PTR [esi+392], 0
$L226268:
  00051	5e		 pop	 esi

; 121  : #ifndef __WORLDSERVER
; 122  : 	SAFE_DELETE( m_pCamera );
; 123  : #endif	// __WORLDSERVER
; 124  : }

  00052	c3		 ret	 0
??1CObj@@UAE@XZ ENDP					; CObj::~CObj
; Function compile flags: /Ogty
_TEXT	ENDS
;	COMDAT ?InitProp@CObj@@UAEXH@Z
_TEXT	SEGMENT
_bInitAI$ = 8						; size = 4
?InitProp@CObj@@UAEXH@Z PROC NEAR			; CObj::InitProp, COMDAT
; _this$ = ecx

; 128  : }

  00000	c2 04 00	 ret	 4
?InitProp@CObj@@UAEXH@Z ENDP				; CObj::InitProp
_TEXT	ENDS
PUBLIC	?GetPropA@CObj@@QAEPAUObjProp@@XZ		; CObj::GetPropA
EXTRN	?GetPropA@CProject@@QAEPAUObjProp@@HH@Z:NEAR	; CProject::GetPropA
EXTRN	?prj@@3VCProject@@A:BYTE			; prj
; Function compile flags: /Ogty
;	COMDAT ?GetPropA@CObj@@QAEPAUObjProp@@XZ
_TEXT	SEGMENT
?GetPropA@CObj@@QAEPAUObjProp@@XZ PROC NEAR		; CObj::GetPropA, COMDAT
; _this$ = ecx

; 132  : 	return prj.GetProp( m_dwType, m_dwIndex ); 

  00000	8b 81 74 01 00
	00		 mov	 eax, DWORD PTR [ecx+372]
  00006	8b 89 70 01 00
	00		 mov	 ecx, DWORD PTR [ecx+368]
  0000c	50		 push	 eax
  0000d	51		 push	 ecx
  0000e	b9 00 00 00 00	 mov	 ecx, OFFSET FLAT:?prj@@3VCProject@@A
  00013	e8 00 00 00 00	 call	 ?GetPropA@CProject@@QAEPAUObjProp@@HH@Z ; CProject::GetPropA

; 133  : }

  00018	c3		 ret	 0
?GetPropA@CObj@@QAEPAUObjProp@@XZ ENDP			; CObj::GetPropA
_TEXT	ENDS
PUBLIC	?InsPrevNode@CObj@@QAEXPAV1@@Z			; CObj::InsPrevNode
; Function compile flags: /Ogty
;	COMDAT ?InsPrevNode@CObj@@QAEXPAV1@@Z
_TEXT	SEGMENT
_pObj$ = 8						; size = 4
?InsPrevNode@CObj@@QAEXPAV1@@Z PROC NEAR		; CObj::InsPrevNode, COMDAT
; _this$ = ecx

; 195  : 	pObj->m_pNext = this;

  00000	8b 44 24 04	 mov	 eax, DWORD PTR _pObj$[esp-4]
  00004	89 88 80 01 00
	00		 mov	 DWORD PTR [eax+384], ecx

; 196  : 	pObj->m_pPrev = m_pPrev;

  0000a	8b 91 7c 01 00
	00		 mov	 edx, DWORD PTR [ecx+380]
  00010	89 90 7c 01 00
	00		 mov	 DWORD PTR [eax+380], edx

; 197  : 	if(m_pPrev)

  00016	8b 91 7c 01 00
	00		 mov	 edx, DWORD PTR [ecx+380]
  0001c	85 d2		 test	 edx, edx
  0001e	74 06		 je	 SHORT $L227856

; 198  : 		m_pPrev->m_pNext = pObj;

  00020	89 82 80 01 00
	00		 mov	 DWORD PTR [edx+384], eax
$L227856:

; 199  : 	m_pPrev = pObj;

  00026	89 81 7c 01 00
	00		 mov	 DWORD PTR [ecx+380], eax

; 200  : }

  0002c	c2 04 00	 ret	 4
?InsPrevNode@CObj@@QAEXPAV1@@Z ENDP			; CObj::InsPrevNode
_TEXT	ENDS
PUBLIC	?InsNextNode@CObj@@QAEXPAV1@@Z			; CObj::InsNextNode
; Function compile flags: /Ogty
;	COMDAT ?InsNextNode@CObj@@QAEXPAV1@@Z
_TEXT	SEGMENT
_pObj$ = 8						; size = 4
?InsNextNode@CObj@@QAEXPAV1@@Z PROC NEAR		; CObj::InsNextNode, COMDAT
; _this$ = ecx

; 210  : 	pObj->m_pNext = m_pNext;

  00000	8b 91 80 01 00
	00		 mov	 edx, DWORD PTR [ecx+384]
  00006	8b 44 24 04	 mov	 eax, DWORD PTR _pObj$[esp-4]
  0000a	89 90 80 01 00
	00		 mov	 DWORD PTR [eax+384], edx

; 211  : 	pObj->m_pPrev = this;

  00010	89 88 7c 01 00
	00		 mov	 DWORD PTR [eax+380], ecx

; 212  : 	if(m_pNext)

  00016	8b 91 80 01 00
	00		 mov	 edx, DWORD PTR [ecx+384]
  0001c	85 d2		 test	 edx, edx
  0001e	74 06		 je	 SHORT $L227860

; 213  : 		m_pNext->m_pPrev = pObj;

  00020	89 82 7c 01 00
	00		 mov	 DWORD PTR [edx+380], eax
$L227860:

; 214  : 	m_pNext = pObj;

  00026	89 81 80 01 00
	00		 mov	 DWORD PTR [ecx+384], eax

; 215  : }

  0002c	c2 04 00	 ret	 4
?InsNextNode@CObj@@QAEXPAV1@@Z ENDP			; CObj::InsNextNode
_TEXT	ENDS
PUBLIC	?DelNode@CObj@@QAEXXZ				; CObj::DelNode
; Function compile flags: /Ogty
;	COMDAT ?DelNode@CObj@@QAEXXZ
_TEXT	SEGMENT
?DelNode@CObj@@QAEXXZ PROC NEAR				; CObj::DelNode, COMDAT
; _this$ = ecx

; 222  : 	if(m_pPrev)

  00000	8b 81 7c 01 00
	00		 mov	 eax, DWORD PTR [ecx+380]
  00006	33 d2		 xor	 edx, edx
  00008	3b c2		 cmp	 eax, edx
  0000a	56		 push	 esi
  0000b	74 20		 je	 SHORT $L226304

; 223  : 	{	
; 224  : 		m_pPrev->m_pNext = m_pNext;

  0000d	8b b1 80 01 00
	00		 mov	 esi, DWORD PTR [ecx+384]
  00013	89 b0 80 01 00
	00		 mov	 DWORD PTR [eax+384], esi

; 225  : 		if(m_pPrev->m_pNext == this)

  00019	8b 81 7c 01 00
	00		 mov	 eax, DWORD PTR [ecx+380]
  0001f	39 88 80 01 00
	00		 cmp	 DWORD PTR [eax+384], ecx
  00025	75 06		 jne	 SHORT $L226304

; 226  : 			m_pPrev->m_pNext = NULL;

  00027	89 90 80 01 00
	00		 mov	 DWORD PTR [eax+384], edx
$L226304:

; 227  : 	}
; 228  : 	if(m_pNext)

  0002d	8b 81 80 01 00
	00		 mov	 eax, DWORD PTR [ecx+384]
  00033	3b c2		 cmp	 eax, edx
  00035	74 20		 je	 SHORT $L227865

; 229  : 	{
; 230  : 		m_pNext->m_pPrev = m_pPrev;

  00037	8b b1 7c 01 00
	00		 mov	 esi, DWORD PTR [ecx+380]
  0003d	89 b0 7c 01 00
	00		 mov	 DWORD PTR [eax+380], esi

; 231  : 		if(m_pNext->m_pPrev == this)

  00043	8b 81 80 01 00
	00		 mov	 eax, DWORD PTR [ecx+384]
  00049	39 88 7c 01 00
	00		 cmp	 DWORD PTR [eax+380], ecx
  0004f	75 06		 jne	 SHORT $L227865

; 232  : 			m_pNext->m_pPrev = NULL;

  00051	89 90 7c 01 00
	00		 mov	 DWORD PTR [eax+380], edx
$L227865:

; 233  : 	}
; 234  : 	m_pNext = m_pPrev = NULL;

  00057	89 91 7c 01 00
	00		 mov	 DWORD PTR [ecx+380], edx
  0005d	89 91 80 01 00
	00		 mov	 DWORD PTR [ecx+384], edx
  00063	5e		 pop	 esi

; 235  : }

  00064	c3		 ret	 0
?DelNode@CObj@@QAEXXZ ENDP				; CObj::DelNode
; Function compile flags: /Ogty
_TEXT	ENDS
;	COMDAT ?Process@CObj@@UAEXXZ
_TEXT	SEGMENT
?Process@CObj@@UAEXXZ PROC NEAR				; CObj::Process, COMDAT
; _this$ = ecx

; 239  : #ifdef __CLIENT
; 240  : 	LPMODELELEM lpModelElem = prj.m_modelMng.GetModelElem( m_dwType, m_dwIndex );
; 241  : 	if( lpModelElem == NULL )
; 242  : 		return;					// Model이 없으면 출력하지 않음 
; 243  : 
; 244  : 	if( lpModelElem->m_dwModelType == MODELTYPE_SFX )
; 245  : 	{
; 246  : 		if( ((CSfxModel*)m_pModel)->Process() )
; 247  : 			((CSfxModel*)m_pModel)->m_nCurFrame = 0;
; 248  : 	}
; 249  : 	else
; 250  : 	{
; 251  : 		D3DXVECTOR3 vPos = GetPos();
; 252  : 		m_pModel->FrameMove( &vPos );		// 월드서버에선 CObj::m_pModel의 FrameMove를 돌릴필요 없다.
; 253  : 	}
; 254  : 
; 255  : 	if( m_pModel->m_pModelElem->m_bTrans )
; 256  : 	{
; 257  : 		D3DXVECTOR3 vPosObj, vPosAct, vPosCam;
; 258  : 		float fLengthObj, fLengthAct;
; 259  : 		if( GetActiveObj() != NULL )
; 260  : 		{
; 261  : 			vPosCam = m_pWorld->m_pCamera->m_vPos;
; 262  : 			vPosObj = GetPos() - vPosCam;
; 263  : 			vPosAct = GetActiveObj()->GetPos() - vPosCam;
; 264  : 			fLengthObj = D3DXVec3LengthSq( &vPosObj );	// Length를 LengthSq로 바꿈. xuzhu
; 265  : 			fLengthAct = D3DXVec3LengthSq( &vPosAct );
; 266  : 		}		
; 267  : 		// 카메라와 졸라 근접한 경우  
; 268  : 		if( fLengthObj < fLengthAct )
; 269  : 		{
; 270  : 			// 나와 카메라 사이에 있는 오브젝트를 레이체크하여 걸리면 사라지게 한다.
; 271  : 			FLOAT fDist;
; 272  : 			D3DXVECTOR3 vIntersect;
; 273  : 			D3DXVECTOR3 vPickRayDir = vPosAct;
; 274  : 			D3DXVec3Normalize( &( vPickRayDir ), &( vPickRayDir ) );
; 275  : 			if( Pick( &vPosCam, &vPickRayDir, &vIntersect, &fDist, FALSE, FALSE ) )
; 276  : 			{
; 277  : 				m_wBlendFactor-=10;
; 278  : 				if( m_wBlendFactor < 64 ) m_wBlendFactor = 64;
; 279  : 			}
; 280  : 			else
; 281  : 			{
; 282  : 				m_wBlendFactor+=10;
; 283  : 				if( m_wBlendFactor > 255 ) m_wBlendFactor = 255;
; 284  : 			}
; 285  : 		}
; 286  : 		else
; 287  : 		{
; 288  : 			m_wBlendFactor+=5;
; 289  : 			if( m_wBlendFactor > 255 ) m_wBlendFactor = 255;
; 290  : 		}
; 291  : 	} 
; 292  : #endif // __CLIENT
; 293  : }

  00000	c3		 ret	 0
?Process@CObj@@UAEXXZ ENDP				; CObj::Process
; Function compile flags: /Ogty
_TEXT	ENDS
;	COMDAT ?Render@CObj@@UAEXPAUIDirect3DDevice9@@@Z
_TEXT	SEGMENT
_pd3dDevice$ = 8					; size = 4
?Render@CObj@@UAEXPAUIDirect3DDevice9@@@Z PROC NEAR	; CObj::Render, COMDAT
; _this$ = ecx

; 314  : #ifndef __WORLDSERVER
; 315  : 	if( !IsVisible() || ( IsCull() && GetType() != 1 ))
; 316  : 		return;
; 317  : 
; 318  : 	if( IsUpdateMatrix() )
; 319  : 		UpdateMatrix();
; 320  : 
; 321  : 	// Model이 없으면 출력하지 않음 
; 322  : 	LPMODELELEM lpModelElem = prj.m_modelMng.GetModelElem( m_dwType, m_dwIndex );
; 323  : 	if( lpModelElem == NULL )
; 324  : 		return;
; 325  : 	if( lpModelElem->m_dwModelType == MODELTYPE_SFX )
; 326  : 	{
; 327  : 		((CSfxModel*)m_pModel)->m_vPos = GetPos();
; 328  : 		((CSfxModel*)m_pModel)->m_vPos.y += 0.2f;
; 329  : 		((CSfxModel*)m_pModel)->m_vRotate.y = GetAngle();
; 330  : 		((CSfxModel*)m_pModel)->m_vScale = GetScale();
; 331  : 		((CSfxModel*)m_pModel)->m_matScale = m_matScale;
; 332  : 		((CSfxModel*)m_pModel)->Render( pd3dDevice, NULL );
; 333  : 		return;
; 334  : 	}
; 335  : 
; 336  : 	CModel* pModel = m_pModel;
; 337  : 	DWORD dwModelType = pModel->GetModelType();
; 338  : 	
; 339  : 	pd3dDevice->SetTransform( D3DTS_WORLD, &m_matWorld );
; 340  : 	pd3dDevice->SetRenderState( D3DRS_ALPHABLENDENABLE, FALSE );
; 341  : 	pd3dDevice->SetRenderState( D3DRS_ALPHATESTENABLE, FALSE );
; 342  : 	pd3dDevice->SetSamplerState ( 0, D3DSAMP_MINFILTER, D3DTEXF_LINEAR );
; 343  : 	pd3dDevice->SetSamplerState ( 0, D3DSAMP_MAGFILTER, D3DTEXF_LINEAR );
; 344  : 	pd3dDevice->SetRenderState(D3DRS_SRCBLEND,D3DBLEND_SRCALPHA);
; 345  : 	pd3dDevice->SetRenderState(D3DRS_DESTBLEND,D3DBLEND_INVSRCALPHA);
; 346  : 	int wBlendFactor = m_wBlendFactor;
; 347  : 	if( m_pModel->m_nNoEffect )
; 348  : 		wBlendFactor = 255;
; 349  : 
; 350  : 	m_pModel->SetBlendFactor( wBlendFactor );
; 351  : 	
; 352  : 	if( pModel->m_nNoEffect == 0 )
; 353  : 	{
; 354  : 		if( m_pWorld->m_bIsIndoor == 1 )
; 355  : 			pModel->SetGroup( 0 );
; 356  : 		else
; 357  : 		{
; 358  : 			int fDist = (int)( 50.0f );
; 359  : 			switch( g_Option.m_nObjectDetail )
; 360  : 			{
; 361  : 			case 0 :	fDist = (int)( 50.0f );	break;
; 362  : 			case 1 :	fDist = (int)( 30.0f );	break;
; 363  : 			case 2 :	fDist = (int)( 15.0f );	break;
; 364  : 			}
; 365  : 			int nLevel = (int)( m_fDistCamera / fDist );
; 366  : 			if( nLevel >= 2 )	nLevel = 2;
; 367  : 			if( nLevel < 0 )	
; 368  : 			{
; 369  : 				Error( "CObj::Render : %d, lod lv=%d %f", m_dwIndex, nLevel, m_fDistCamera );
; 370  : 				nLevel = 0;
; 371  : 			}
; 372  : 			
; 373  : 			pModel->SetGroup( nLevel );
; 374  : 		}
; 375  : 	} 
; 376  : 	else
; 377  : 	{	
; 378  : 		pModel->SetGroup( 2 );		// 그림자 찍을땐 가장 낮은 단계로 찍는다.
; 379  : 	}
; 380  : 
; 381  : 	if( pModel->GetType() == MODELTYPE_MESH || pModel->GetType() == MODELTYPE_ANIMATED_MESH )
; 382  : 	{
; 383  : 		if( ((CModelObject*)pModel)->m_pModelElem->m_nTextureEx > 0 )		// 확장텍스쳐 쓰는넘인가?
; 384  : 			((CModelObject*)pModel)->SetTextureEx( ((CModelObject*)pModel)->m_pModelElem->m_nTextureEx );
; 385  : 		else
; 386  : 			((CModelObject*)pModel)->SetTextureEx( 0 );
; 387  : 	}
; 388  : 	
; 389  : 	pModel->Render( pd3dDevice, &m_matWorld ); 
; 390  : #endif
; 391  : }

  00000	c2 04 00	 ret	 4
?Render@CObj@@UAEXPAUIDirect3DDevice9@@@Z ENDP		; CObj::Render
_TEXT	ENDS
EXTRN	?LoadModel@CModelMng@@QAEPAVCModel@@PAUIDirect3DDevice9@@HHH@Z:NEAR ; CModelMng::LoadModel
; Function compile flags: /Ogty
;	COMDAT ?LoadModel@CObj@@UAEPAVCModel@@PAUIDirect3DDevice9@@KK@Z
_TEXT	SEGMENT
_pd3dDevice$ = 8					; size = 4
_dwType$ = 12						; size = 4
_dwIndex$ = 16						; size = 4
?LoadModel@CObj@@UAEPAVCModel@@PAUIDirect3DDevice9@@KK@Z PROC NEAR ; CObj::LoadModel, COMDAT
; _this$ = ecx

; 396  : 	return prj.m_modelMng.LoadModel( pd3dDevice, dwType, dwIndex );

  00000	8b 44 24 0c	 mov	 eax, DWORD PTR _dwIndex$[esp-4]
  00004	8b 4c 24 08	 mov	 ecx, DWORD PTR _dwType$[esp-4]
  00008	8b 54 24 04	 mov	 edx, DWORD PTR _pd3dDevice$[esp-4]
  0000c	6a 00		 push	 0
  0000e	50		 push	 eax
  0000f	51		 push	 ecx
  00010	52		 push	 edx
  00011	b9 80 00 00 00	 mov	 ecx, OFFSET FLAT:?prj@@3VCProject@@A+128
  00016	e8 00 00 00 00	 call	 ?LoadModel@CModelMng@@QAEPAVCModel@@PAUIDirect3DDevice9@@HHH@Z ; CModelMng::LoadModel

; 397  : }

  0001b	c2 0c 00	 ret	 12			; 0000000cH
?LoadModel@CObj@@UAEPAVCModel@@PAUIDirect3DDevice9@@KK@Z ENDP ; CObj::LoadModel
_TEXT	ENDS
PUBLIC	?ResetScale@CObj@@QAEXXZ			; CObj::ResetScale
EXTRN	__fltused:NEAR
; Function compile flags: /Ogty
;	COMDAT ?ResetScale@CObj@@QAEXXZ
_TEXT	SEGMENT
?ResetScale@CObj@@QAEXXZ PROC NEAR			; CObj::ResetScale, COMDAT
; _this$ = ecx

; 401  : 	m_vScale.x = m_pModel->m_pModelElem->m_fScale;

  00000	8b 81 78 01 00
	00		 mov	 eax, DWORD PTR [ecx+376]
  00006	8b 90 90 00 00
	00		 mov	 edx, DWORD PTR [eax+144]
  0000c	8b 52 74	 mov	 edx, DWORD PTR [edx+116]
  0000f	89 51 0c	 mov	 DWORD PTR [ecx+12], edx

; 402  : 	m_vScale.y = m_pModel->m_pModelElem->m_fScale;

  00012	8b 90 90 00 00
	00		 mov	 edx, DWORD PTR [eax+144]
  00018	8b 52 74	 mov	 edx, DWORD PTR [edx+116]
  0001b	89 51 10	 mov	 DWORD PTR [ecx+16], edx

; 403  : 	m_vScale.z = m_pModel->m_pModelElem->m_fScale;

  0001e	8b 80 90 00 00
	00		 mov	 eax, DWORD PTR [eax+144]
  00024	8b 50 74	 mov	 edx, DWORD PTR [eax+116]
  00027	89 51 14	 mov	 DWORD PTR [ecx+20], edx

; 404  : }

  0002a	c3		 ret	 0
?ResetScale@CObj@@QAEXXZ ENDP				; CObj::ResetScale
_TEXT	ENDS
PUBLIC	?SetAIInterface@CObj@@QAEXKK@Z			; CObj::SetAIInterface
EXTRN	??2@YAPAXI@Z:NEAR				; operator new
EXTRN	??3@YAXPAX@Z:NEAR				; operator delete
EXTRN	??0CAIMonster2@@QAE@PAVCObj@@@Z:NEAR		; CAIMonster2::CAIMonster2
EXTRN	??0CAIClockWorks@@QAE@PAVCObj@@@Z:NEAR		; CAIClockWorks::CAIClockWorks
EXTRN	??0CAIPet@@QAE@PAVCObj@@@Z:NEAR			; CAIPet::CAIPet
EXTRN	??0CAIBigMuscle@@QAE@PAVCObj@@@Z:NEAR		; CAIBigMuscle::CAIBigMuscle
EXTRN	__except_list:DWORD
EXTRN	___CxxFrameHandler:NEAR
EXTRN	??0CAIKrrr@@QAE@PAVCObj@@@Z:NEAR		; CAIKrrr::CAIKrrr
EXTRN	??0CAIBear@@QAE@PAVCObj@@@Z:NEAR		; CAIBear::CAIBear
EXTRN	??0CAIMeteonyker@@QAE@PAVCObj@@@Z:NEAR		; CAIMeteonyker::CAIMeteonyker
EXTRN	??0CAIAggro@@QAE@PAVCObj@@K@Z:NEAR		; CAIAggro::CAIAggro
EXTRN	??0CAIMonster@@QAE@PAVCObj@@@Z:NEAR		; CAIMonster::CAIMonster
;	COMDAT xdata$x
xdata$x	SEGMENT
$T227955 DD	0ffffffffH
	DD	FLAT:$L227934
	DD	0ffffffffH
	DD	FLAT:$L227935
	DD	0ffffffffH
	DD	FLAT:$L227936
	DD	0ffffffffH
	DD	FLAT:$L227937
	DD	0ffffffffH
	DD	FLAT:$L227938
	DD	0ffffffffH
	DD	FLAT:$L227939
	DD	0ffffffffH
	DD	FLAT:$L227940
	DD	0ffffffffH
	DD	FLAT:$L227941
	DD	0ffffffffH
	DD	FLAT:$L227942
	DD	0ffffffffH
	DD	FLAT:$L227943
	DD	0ffffffffH
	DD	FLAT:$L227944
	DD	0ffffffffH
	DD	FLAT:$L227945
$T227949 DD	019930520H
	DD	0cH
	DD	FLAT:$T227955
	DD	2 DUP(00H)
	DD	2 DUP(00H)
; Function compile flags: /Ogty
xdata$x	ENDS
;	COMDAT ?SetAIInterface@CObj@@QAEXKK@Z
_TEXT	SEGMENT
__$EHRec$ = -12						; size = 12
$T227931 = 8						; size = 4
$T227927 = 8						; size = 4
$T227923 = 8						; size = 4
$T227919 = 8						; size = 4
$T227915 = 8						; size = 4
$T227911 = 8						; size = 4
$T227907 = 8						; size = 4
$T227903 = 8						; size = 4
$T227899 = 8						; size = 4
$T227895 = 8						; size = 4
$T227891 = 8						; size = 4
$T227887 = 8						; size = 4
_dwAIInterface$ = 8					; size = 4
_dwState$ = 12						; size = 4
?SetAIInterface@CObj@@QAEXKK@Z PROC NEAR		; CObj::SetAIInterface, COMDAT
; _this$ = ecx

; 728  : {

  00000	64 a1 00 00 00
	00		 mov	 eax, DWORD PTR fs:__except_list
  00006	6a ff		 push	 -1
  00008	68 00 00 00 00	 push	 __ehhandler$?SetAIInterface@CObj@@QAEXKK@Z
  0000d	50		 push	 eax
  0000e	64 89 25 00 00
	00 00		 mov	 DWORD PTR fs:__except_list, esp
  00015	53		 push	 ebx

; 729  : 	if( m_dwAIInterface == dwAIInterface && m_dwAIInterfaceState == dwState )

  00016	8b 5c 24 14	 mov	 ebx, DWORD PTR _dwAIInterface$[esp+12]
  0001a	55		 push	 ebp
  0001b	8b 6c 24 1c	 mov	 ebp, DWORD PTR _dwState$[esp+16]
  0001f	56		 push	 esi
  00020	8b f1		 mov	 esi, ecx
  00022	39 9e 8c 01 00
	00		 cmp	 DWORD PTR [esi+396], ebx
  00028	75 0c		 jne	 SHORT $L226431
  0002a	39 ae 90 01 00
	00		 cmp	 DWORD PTR [esi+400], ebp
  00030	0f 84 1e 02 00
	00		 je	 $L226430
$L226431:

; 730  : 		return;
; 731  : 	
; 732  : 	SAFE_DELETE( m_pAIInterface );

  00036	8b 8e 88 01 00
	00		 mov	 ecx, DWORD PTR [esi+392]
  0003c	85 c9		 test	 ecx, ecx
  0003e	74 11		 je	 SHORT $L226432
  00040	8b 01		 mov	 eax, DWORD PTR [ecx]
  00042	6a 01		 push	 1
  00044	ff 50 04	 call	 DWORD PTR [eax+4]
  00047	c7 86 88 01 00
	00 00 00 00 00	 mov	 DWORD PTR [esi+392], 0
$L226432:

; 733  : 	m_pAIInterface = NULL;
; 734  : 
; 735  : 
; 736  : 	switch( dwAIInterface )

  00051	8d 43 fe	 lea	 eax, DWORD PTR [ebx-2]
  00054	83 f8 62	 cmp	 eax, 98			; 00000062H
  00057	c7 86 88 01 00
	00 00 00 00 00	 mov	 DWORD PTR [esi+392], 0
  00061	0f 87 e1 01 00
	00		 ja	 $L226437
  00067	0f b6 88 00 00
	00 00		 movzx	 ecx, BYTE PTR $L227950[eax]
  0006e	ff 24 8d 00 00
	00 00		 jmp	 DWORD PTR $L227954[ecx*4]
$L226440:

; 737  : 	{
; 738  : #ifdef __AI_AGGRO
; 739  : 		case AII_AGGRO_NORMAL:         m_pAIInterface = new CAIAggro( this, dwAIInterface ); break;

  00075	68 00 01 00 00	 push	 256			; 00000100H
  0007a	e8 00 00 00 00	 call	 ??2@YAPAXI@Z		; operator new
  0007f	83 c4 04	 add	 esp, 4
  00082	89 44 24 1c	 mov	 DWORD PTR $T227887[esp+20], eax
  00086	c7 44 24 14 00
	00 00 00	 mov	 DWORD PTR __$EHRec$[esp+32], 0
  0008e	eb 4f		 jmp	 SHORT $L227953
$L226445:

; 740  : 		case AII_PARTY_AGGRO_LEADER:   m_pAIInterface = new CAIAggro( this, dwAIInterface ); break;

  00090	68 00 01 00 00	 push	 256			; 00000100H
  00095	e8 00 00 00 00	 call	 ??2@YAPAXI@Z		; operator new
  0009a	83 c4 04	 add	 esp, 4
  0009d	89 44 24 1c	 mov	 DWORD PTR $T227891[esp+20], eax
  000a1	c7 44 24 14 01
	00 00 00	 mov	 DWORD PTR __$EHRec$[esp+32], 1
  000a9	eb 34		 jmp	 SHORT $L227953
$L226450:

; 741  : 		case AII_PARTY_AGGRO_SUB:      m_pAIInterface = new CAIAggro( this, dwAIInterface ); break;

  000ab	68 00 01 00 00	 push	 256			; 00000100H
  000b0	e8 00 00 00 00	 call	 ??2@YAPAXI@Z		; operator new
  000b5	83 c4 04	 add	 esp, 4
  000b8	89 44 24 1c	 mov	 DWORD PTR $T227895[esp+20], eax
  000bc	c7 44 24 14 02
	00 00 00	 mov	 DWORD PTR __$EHRec$[esp+32], 2
  000c4	eb 19		 jmp	 SHORT $L227953
$L226455:

; 742  : 		case AII_ARENA_REAPER:         m_pAIInterface = new CAIAggro( this, dwAIInterface ); break;

  000c6	68 00 01 00 00	 push	 256			; 00000100H
  000cb	e8 00 00 00 00	 call	 ??2@YAPAXI@Z		; operator new
  000d0	83 c4 04	 add	 esp, 4
  000d3	89 44 24 1c	 mov	 DWORD PTR $T227899[esp+20], eax
  000d7	c7 44 24 14 03
	00 00 00	 mov	 DWORD PTR __$EHRec$[esp+32], 3
$L227953:
  000df	85 c0		 test	 eax, eax
  000e1	0f 84 59 01 00
	00		 je	 $L227932
  000e7	53		 push	 ebx
  000e8	56		 push	 esi
  000e9	8b c8		 mov	 ecx, eax
  000eb	e8 00 00 00 00	 call	 ??0CAIAggro@@QAE@PAVCObj@@K@Z ; CAIAggro::CAIAggro
  000f0	e9 4d 01 00 00	 jmp	 $L227933
$L226460:

; 743  : #endif
; 744  : 		case AII_MONSTER:		m_pAIInterface = new CAIMonster( this );	break;

  000f5	68 f8 00 00 00	 push	 248			; 000000f8H
  000fa	e8 00 00 00 00	 call	 ??2@YAPAXI@Z		; operator new
  000ff	83 c4 04	 add	 esp, 4
  00102	89 44 24 1c	 mov	 DWORD PTR $T227903[esp+20], eax
  00106	85 c0		 test	 eax, eax
  00108	c7 44 24 14 04
	00 00 00	 mov	 DWORD PTR __$EHRec$[esp+32], 4
  00110	0f 84 2a 01 00
	00		 je	 $L227932
  00116	56		 push	 esi
  00117	8b c8		 mov	 ecx, eax
  00119	e8 00 00 00 00	 call	 ??0CAIMonster@@QAE@PAVCObj@@@Z ; CAIMonster::CAIMonster
  0011e	e9 1f 01 00 00	 jmp	 $L227933
$L226465:

; 745  : 		case AII_CLOCKWORKS:	m_pAIInterface = new CAIClockWorks( this );	break;

  00123	6a 78		 push	 120			; 00000078H
  00125	e8 00 00 00 00	 call	 ??2@YAPAXI@Z		; operator new
  0012a	83 c4 04	 add	 esp, 4
  0012d	89 44 24 1c	 mov	 DWORD PTR $T227907[esp+20], eax
  00131	85 c0		 test	 eax, eax
  00133	c7 44 24 14 05
	00 00 00	 mov	 DWORD PTR __$EHRec$[esp+32], 5
  0013b	0f 84 ff 00 00
	00		 je	 $L227932
  00141	56		 push	 esi
  00142	8b c8		 mov	 ecx, eax
  00144	e8 00 00 00 00	 call	 ??0CAIClockWorks@@QAE@PAVCObj@@@Z ; CAIClockWorks::CAIClockWorks
  00149	e9 f4 00 00 00	 jmp	 $L227933
$L226470:

; 746  : 		case AII_PET:			m_pAIInterface = new CAIPet( this );		break;

  0014e	6a 50		 push	 80			; 00000050H
  00150	e8 00 00 00 00	 call	 ??2@YAPAXI@Z		; operator new
  00155	83 c4 04	 add	 esp, 4
  00158	89 44 24 1c	 mov	 DWORD PTR $T227911[esp+20], eax
  0015c	85 c0		 test	 eax, eax
  0015e	c7 44 24 14 06
	00 00 00	 mov	 DWORD PTR __$EHRec$[esp+32], 6
  00166	0f 84 d4 00 00
	00		 je	 $L227932
  0016c	56		 push	 esi
  0016d	8b c8		 mov	 ecx, eax
  0016f	e8 00 00 00 00	 call	 ??0CAIPet@@QAE@PAVCObj@@@Z ; CAIPet::CAIPet
  00174	e9 c9 00 00 00	 jmp	 $L227933
$L226475:

; 747  : 		case AII_BIGMUSCLE:		m_pAIInterface = new CAIBigMuscle( this );	break;

  00179	68 90 00 00 00	 push	 144			; 00000090H
  0017e	e8 00 00 00 00	 call	 ??2@YAPAXI@Z		; operator new
  00183	83 c4 04	 add	 esp, 4
  00186	89 44 24 1c	 mov	 DWORD PTR $T227915[esp+20], eax
  0018a	85 c0		 test	 eax, eax
  0018c	c7 44 24 14 07
	00 00 00	 mov	 DWORD PTR __$EHRec$[esp+32], 7
  00194	0f 84 a6 00 00
	00		 je	 $L227932
  0019a	56		 push	 esi
  0019b	8b c8		 mov	 ecx, eax
  0019d	e8 00 00 00 00	 call	 ??0CAIBigMuscle@@QAE@PAVCObj@@@Z ; CAIBigMuscle::CAIBigMuscle
  001a2	e9 9b 00 00 00	 jmp	 $L227933
$L226480:

; 748  : 		case AII_KRRR:			m_pAIInterface = new CAIKrrr( this );		break;

  001a7	68 98 00 00 00	 push	 152			; 00000098H
  001ac	e8 00 00 00 00	 call	 ??2@YAPAXI@Z		; operator new
  001b1	83 c4 04	 add	 esp, 4
  001b4	89 44 24 1c	 mov	 DWORD PTR $T227919[esp+20], eax
  001b8	85 c0		 test	 eax, eax
  001ba	c7 44 24 14 08
	00 00 00	 mov	 DWORD PTR __$EHRec$[esp+32], 8
  001c2	74 7c		 je	 SHORT $L227932
  001c4	56		 push	 esi
  001c5	8b c8		 mov	 ecx, eax
  001c7	e8 00 00 00 00	 call	 ??0CAIKrrr@@QAE@PAVCObj@@@Z ; CAIKrrr::CAIKrrr
  001cc	eb 74		 jmp	 SHORT $L227933
$L226485:

; 749  : 		case AII_BEAR:			m_pAIInterface = new CAIBear( this );		break;

  001ce	68 b0 00 00 00	 push	 176			; 000000b0H
  001d3	e8 00 00 00 00	 call	 ??2@YAPAXI@Z		; operator new
  001d8	83 c4 04	 add	 esp, 4
  001db	89 44 24 1c	 mov	 DWORD PTR $T227923[esp+20], eax
  001df	85 c0		 test	 eax, eax
  001e1	c7 44 24 14 09
	00 00 00	 mov	 DWORD PTR __$EHRec$[esp+32], 9
  001e9	74 55		 je	 SHORT $L227932
  001eb	56		 push	 esi
  001ec	8b c8		 mov	 ecx, eax
  001ee	e8 00 00 00 00	 call	 ??0CAIBear@@QAE@PAVCObj@@@Z ; CAIBear::CAIBear
  001f3	eb 4d		 jmp	 SHORT $L227933
$L226490:

; 750  : 		case AII_VER2_TYPE0:	m_pAIInterface = new CAIMonster2( this );	break;

  001f5	6a 70		 push	 112			; 00000070H
  001f7	e8 00 00 00 00	 call	 ??2@YAPAXI@Z		; operator new
  001fc	83 c4 04	 add	 esp, 4
  001ff	89 44 24 1c	 mov	 DWORD PTR $T227927[esp+20], eax
  00203	85 c0		 test	 eax, eax
  00205	c7 44 24 14 0a
	00 00 00	 mov	 DWORD PTR __$EHRec$[esp+32], 10 ; 0000000aH
  0020d	74 31		 je	 SHORT $L227932
  0020f	56		 push	 esi
  00210	8b c8		 mov	 ecx, eax
  00212	e8 00 00 00 00	 call	 ??0CAIMonster2@@QAE@PAVCObj@@@Z ; CAIMonster2::CAIMonster2
  00217	eb 29		 jmp	 SHORT $L227933
$L226495:

; 751  : #if __VER >= 10	// __METEONYKER_0608
; 752  : 		case AII_METEONYKER:	m_pAIInterface	= new CAIMeteonyker( this );	break;

  00219	68 a8 00 00 00	 push	 168			; 000000a8H
  0021e	e8 00 00 00 00	 call	 ??2@YAPAXI@Z		; operator new
  00223	83 c4 04	 add	 esp, 4
  00226	89 44 24 1c	 mov	 DWORD PTR $T227931[esp+20], eax
  0022a	85 c0		 test	 eax, eax
  0022c	c7 44 24 14 0b
	00 00 00	 mov	 DWORD PTR __$EHRec$[esp+32], 11 ; 0000000bH
  00234	74 0a		 je	 SHORT $L227932
  00236	56		 push	 esi
  00237	8b c8		 mov	 ecx, eax
  00239	e8 00 00 00 00	 call	 ??0CAIMeteonyker@@QAE@PAVCObj@@@Z ; CAIMeteonyker::CAIMeteonyker
  0023e	eb 02		 jmp	 SHORT $L227933
$L227932:
  00240	33 c0		 xor	 eax, eax
$L227933:
  00242	89 86 88 01 00
	00		 mov	 DWORD PTR [esi+392], eax
$L226437:

; 753  : #endif	// __METEONYKER_0608
; 754  : /*#ifdef __INSTANCE_AGGRO_SYSTEM
; 755  : 		case AII_AGGRO_NORMAL:		m_pAIInterface = new CAIAggroNormal( this );	break;
; 756  : 		case AII_PARTY_AGGRO_LEADER:m_pAIInterface = new CAIAggroNormal( this );	break;
; 757  : 		case AII_PARTY_AGGRO_SUB:	m_pAIInterface = new CAIAggroNormal( this );	break;
; 758  : #endif // __INSTANCE_AGGRO_SYSTEM*/
; 759  : 	}
; 760  : 
; 761  : 	m_dwAIInterface		 = dwAIInterface;

  00248	89 9e 8c 01 00
	00		 mov	 DWORD PTR [esi+396], ebx

; 762  : 	m_dwAIInterfaceState = dwState;

  0024e	89 ae 90 01 00
	00		 mov	 DWORD PTR [esi+400], ebp
$L226430:

; 763  : }

  00254	8b 4c 24 0c	 mov	 ecx, DWORD PTR __$EHRec$[esp+24]
  00258	5e		 pop	 esi
  00259	5d		 pop	 ebp
  0025a	64 89 0d 00 00
	00 00		 mov	 DWORD PTR fs:__except_list, ecx
  00261	5b		 pop	 ebx
  00262	83 c4 0c	 add	 esp, 12			; 0000000cH
  00265	c2 08 00	 ret	 8
$L227954:
  00268	00 00 00 00	 DD	 $L226460
  0026c	00 00 00 00	 DD	 $L226465
  00270	00 00 00 00	 DD	 $L226470
  00274	00 00 00 00	 DD	 $L226475
  00278	00 00 00 00	 DD	 $L226480
  0027c	00 00 00 00	 DD	 $L226485
  00280	00 00 00 00	 DD	 $L226495
  00284	00 00 00 00	 DD	 $L226440
  00288	00 00 00 00	 DD	 $L226445
  0028c	00 00 00 00	 DD	 $L226450
  00290	00 00 00 00	 DD	 $L226455
  00294	00 00 00 00	 DD	 $L226490
  00298	00 00 00 00	 DD	 $L226437
$L227950:
  0029c	00		 DB	 0
  0029d	0c		 DB	 12			; 0000000cH
  0029e	01		 DB	 1
  0029f	02		 DB	 2
  002a0	03		 DB	 3
  002a1	04		 DB	 4
  002a2	05		 DB	 5
  002a3	0c		 DB	 12			; 0000000cH
  002a4	06		 DB	 6
  002a5	07		 DB	 7
  002a6	08		 DB	 8
  002a7	09		 DB	 9
  002a8	0a		 DB	 10			; 0000000aH
  002a9	0c		 DB	 12			; 0000000cH
  002aa	0c		 DB	 12			; 0000000cH
  002ab	0c		 DB	 12			; 0000000cH
  002ac	0c		 DB	 12			; 0000000cH
  002ad	0c		 DB	 12			; 0000000cH
  002ae	0c		 DB	 12			; 0000000cH
  002af	0c		 DB	 12			; 0000000cH
  002b0	0c		 DB	 12			; 0000000cH
  002b1	0c		 DB	 12			; 0000000cH
  002b2	0c		 DB	 12			; 0000000cH
  002b3	0c		 DB	 12			; 0000000cH
  002b4	0c		 DB	 12			; 0000000cH
  002b5	0c		 DB	 12			; 0000000cH
  002b6	0c		 DB	 12			; 0000000cH
  002b7	0c		 DB	 12			; 0000000cH
  002b8	0c		 DB	 12			; 0000000cH
  002b9	0c		 DB	 12			; 0000000cH
  002ba	0c		 DB	 12			; 0000000cH
  002bb	0c		 DB	 12			; 0000000cH
  002bc	0c		 DB	 12			; 0000000cH
  002bd	0c		 DB	 12			; 0000000cH
  002be	0c		 DB	 12			; 0000000cH
  002bf	0c		 DB	 12			; 0000000cH
  002c0	0c		 DB	 12			; 0000000cH
  002c1	0c		 DB	 12			; 0000000cH
  002c2	0c		 DB	 12			; 0000000cH
  002c3	0c		 DB	 12			; 0000000cH
  002c4	0c		 DB	 12			; 0000000cH
  002c5	0c		 DB	 12			; 0000000cH
  002c6	0c		 DB	 12			; 0000000cH
  002c7	0c		 DB	 12			; 0000000cH
  002c8	0c		 DB	 12			; 0000000cH
  002c9	0c		 DB	 12			; 0000000cH
  002ca	0c		 DB	 12			; 0000000cH
  002cb	0c		 DB	 12			; 0000000cH
  002cc	0c		 DB	 12			; 0000000cH
  002cd	0c		 DB	 12			; 0000000cH
  002ce	0c		 DB	 12			; 0000000cH
  002cf	0c		 DB	 12			; 0000000cH
  002d0	0c		 DB	 12			; 0000000cH
  002d1	0c		 DB	 12			; 0000000cH
  002d2	0c		 DB	 12			; 0000000cH
  002d3	0c		 DB	 12			; 0000000cH
  002d4	0c		 DB	 12			; 0000000cH
  002d5	0c		 DB	 12			; 0000000cH
  002d6	0c		 DB	 12			; 0000000cH
  002d7	0c		 DB	 12			; 0000000cH
  002d8	0c		 DB	 12			; 0000000cH
  002d9	0c		 DB	 12			; 0000000cH
  002da	0c		 DB	 12			; 0000000cH
  002db	0c		 DB	 12			; 0000000cH
  002dc	0c		 DB	 12			; 0000000cH
  002dd	0c		 DB	 12			; 0000000cH
  002de	0c		 DB	 12			; 0000000cH
  002df	0c		 DB	 12			; 0000000cH
  002e0	0c		 DB	 12			; 0000000cH
  002e1	0c		 DB	 12			; 0000000cH
  002e2	0c		 DB	 12			; 0000000cH
  002e3	0c		 DB	 12			; 0000000cH
  002e4	0c		 DB	 12			; 0000000cH
  002e5	0c		 DB	 12			; 0000000cH
  002e6	0c		 DB	 12			; 0000000cH
  002e7	0c		 DB	 12			; 0000000cH
  002e8	0c		 DB	 12			; 0000000cH
  002e9	0c		 DB	 12			; 0000000cH
  002ea	0c		 DB	 12			; 0000000cH
  002eb	0c		 DB	 12			; 0000000cH
  002ec	0c		 DB	 12			; 0000000cH
  002ed	0c		 DB	 12			; 0000000cH
  002ee	0c		 DB	 12			; 0000000cH
  002ef	0c		 DB	 12			; 0000000cH
  002f0	0c		 DB	 12			; 0000000cH
  002f1	0c		 DB	 12			; 0000000cH
  002f2	0c		 DB	 12			; 0000000cH
  002f3	0c		 DB	 12			; 0000000cH
  002f4	0c		 DB	 12			; 0000000cH
  002f5	0c		 DB	 12			; 0000000cH
  002f6	0c		 DB	 12			; 0000000cH
  002f7	0c		 DB	 12			; 0000000cH
  002f8	0c		 DB	 12			; 0000000cH
  002f9	0c		 DB	 12			; 0000000cH
  002fa	0c		 DB	 12			; 0000000cH
  002fb	0c		 DB	 12			; 0000000cH
  002fc	0c		 DB	 12			; 0000000cH
  002fd	0c		 DB	 12			; 0000000cH
  002fe	0b		 DB	 11			; 0000000bH
_TEXT	ENDS
;	COMDAT text$x
text$x	SEGMENT
$L227934:
  00000	8b 45 04	 mov	 eax, DWORD PTR $T227887[ebp-4]
  00003	50		 push	 eax
  00004	e8 00 00 00 00	 call	 ??3@YAXPAX@Z		; operator delete
  00009	59		 pop	 ecx
  0000a	c3		 ret	 0
$L227935:
  0000b	8b 45 04	 mov	 eax, DWORD PTR $T227891[ebp-4]
  0000e	50		 push	 eax
  0000f	e8 00 00 00 00	 call	 ??3@YAXPAX@Z		; operator delete
  00014	59		 pop	 ecx
  00015	c3		 ret	 0
$L227936:
  00016	8b 45 04	 mov	 eax, DWORD PTR $T227895[ebp-4]
  00019	50		 push	 eax
  0001a	e8 00 00 00 00	 call	 ??3@YAXPAX@Z		; operator delete
  0001f	59		 pop	 ecx
  00020	c3		 ret	 0
$L227937:
  00021	8b 45 04	 mov	 eax, DWORD PTR $T227899[ebp-4]
  00024	50		 push	 eax
  00025	e8 00 00 00 00	 call	 ??3@YAXPAX@Z		; operator delete
  0002a	59		 pop	 ecx
  0002b	c3		 ret	 0
$L227938:
  0002c	8b 45 04	 mov	 eax, DWORD PTR $T227903[ebp-4]
  0002f	50		 push	 eax
  00030	e8 00 00 00 00	 call	 ??3@YAXPAX@Z		; operator delete
  00035	59		 pop	 ecx
  00036	c3		 ret	 0
$L227939:
  00037	8b 45 04	 mov	 eax, DWORD PTR $T227907[ebp-4]
  0003a	50		 push	 eax
  0003b	e8 00 00 00 00	 call	 ??3@YAXPAX@Z		; operator delete
  00040	59		 pop	 ecx
  00041	c3		 ret	 0
$L227940:
  00042	8b 45 04	 mov	 eax, DWORD PTR $T227911[ebp-4]
  00045	50		 push	 eax
  00046	e8 00 00 00 00	 call	 ??3@YAXPAX@Z		; operator delete
  0004b	59		 pop	 ecx
  0004c	c3		 ret	 0
$L227941:
  0004d	8b 45 04	 mov	 eax, DWORD PTR $T227915[ebp-4]
  00050	50		 push	 eax
  00051	e8 00 00 00 00	 call	 ??3@YAXPAX@Z		; operator delete
  00056	59		 pop	 ecx
  00057	c3		 ret	 0
$L227942:
  00058	8b 45 04	 mov	 eax, DWORD PTR $T227919[ebp-4]
  0005b	50		 push	 eax
  0005c	e8 00 00 00 00	 call	 ??3@YAXPAX@Z		; operator delete
  00061	59		 pop	 ecx
  00062	c3		 ret	 0
$L227943:
  00063	8b 45 04	 mov	 eax, DWORD PTR $T227923[ebp-4]
  00066	50		 push	 eax
  00067	e8 00 00 00 00	 call	 ??3@YAXPAX@Z		; operator delete
  0006c	59		 pop	 ecx
  0006d	c3		 ret	 0
$L227944:
  0006e	8b 45 04	 mov	 eax, DWORD PTR $T227927[ebp-4]
  00071	50		 push	 eax
  00072	e8 00 00 00 00	 call	 ??3@YAXPAX@Z		; operator delete
  00077	59		 pop	 ecx
  00078	c3		 ret	 0
$L227945:
  00079	8b 45 04	 mov	 eax, DWORD PTR $T227931[ebp-4]
  0007c	50		 push	 eax
  0007d	e8 00 00 00 00	 call	 ??3@YAXPAX@Z		; operator delete
  00082	59		 pop	 ecx
  00083	c3		 ret	 0
__ehhandler$?SetAIInterface@CObj@@QAEXKK@Z:
  00084	b8 00 00 00 00	 mov	 eax, OFFSET FLAT:$T227949
  00089	e9 00 00 00 00	 jmp	 ___CxxFrameHandler
text$x	ENDS
?SetAIInterface@CObj@@QAEXKK@Z ENDP			; CObj::SetAIInterface
PUBLIC	?Delete@CObj@@QAEXXZ				; CObj::Delete
EXTRN	?DeleteObj@CWorld@@QAEXPAVCObj@@@Z:NEAR		; CWorld::DeleteObj
; Function compile flags: /Ogty
;	COMDAT ?Delete@CObj@@QAEXXZ
_TEXT	SEGMENT
?Delete@CObj@@QAEXXZ PROC NEAR				; CObj::Delete, COMDAT
; _this$ = ecx

; 769  : 	m_pWorld->DeleteObj( this );

  00000	51		 push	 ecx
  00001	8b 89 6c 01 00
	00		 mov	 ecx, DWORD PTR [ecx+364]
  00007	e8 00 00 00 00	 call	 ?DeleteObj@CWorld@@QAEXPAVCObj@@@Z ; CWorld::DeleteObj

; 770  : }

  0000c	c3		 ret	 0
?Delete@CObj@@QAEXXZ ENDP				; CObj::Delete
_TEXT	ENDS
PUBLIC	?ProcessAirShip@CObj@@QAEXXZ			; CObj::ProcessAirShip
; Function compile flags: /Ogty
;	COMDAT ?ProcessAirShip@CObj@@QAEXXZ
_TEXT	SEGMENT
?ProcessAirShip@CObj@@QAEXXZ PROC NEAR			; CObj::ProcessAirShip, COMDAT
; _this$ = ecx

; 871  : #ifdef __CLIENT
; 872  : 	D3DXVECTOR3	vPos = GetPos();
; 873  : 
; 874  : 	switch( m_nEvent )
; 875  : 	{
; 876  : 	case 0:		// 대기 상태
; 877  : 		if( g_ShipExp == TRUE )
; 878  : 		{
; 879  : 			g_vPosShip = m_vPos;
; 880  : 			m_nEvent ++;
; 881  : 			m_nCnt = 0;
; 882  : 		}
; 883  : 		break;
; 884  : 	case 1:		// 폭발 시작
; 885  : 		{
; 886  : 			int		i;
; 887  : 			D3DXVECTOR3 vPos = GetPos();
; 888  : 			for( i = 0; i < 10; i ++ )
; 889  : 			{
; 890  : 				CObj* pObj = new CObj;
; 891  : 				vPos = GetPos();
; 892  : 				vPos.x += (10 - xRandom(20));
; 893  : 				vPos.y += (xRandom(20));
; 894  : 				vPos.z += (10 - xRandom(20));
; 895  : 				pObj->m_dwType = 1;
; 896  : 				pObj->SetScale( D3DXVECTOR3(50, 50, 50) );
; 897  : 				pObj->SetPos( vPos );
; 898  : 				pObj->SetIndex( g_Neuz.m_pd3dDevice, 22 );
; 899  : 				pObj->UpdateLocalMatrix();
; 900  : 				m_pWorld->AddObj( pObj );
; 901  : 			}
; 902  : 			PLAYSND( "CtrlCraftCrash.wav" , NULL );// 맞으면 사운드 플레이
; 903  : 		}
; 904  : 		m_nEvent ++;
; 905  : 		break;
; 906  : 	case 2:	// 떨어짐.
; 907  : 		{
; 908  : 			float	h = m_pWorld->GetLandHeight( vPos.x, vPos.z );
; 909  : 			m_fAngX += 0.1f;
; 910  : 			SetAngleX( m_fAngX );
; 911  : 			if( m_dy > -2.0f )	m_dy -= 0.001f;
; 912  : 			vPos.y += m_dy;
; 913  : 			if( vPos.y - 10.0f < h )		// 바닥에 처박힘
; 914  : 			{
; 915  : 				m_nEvent ++;
; 916  : 				m_pWorld->m_pCamera->SetQuake( 60 );
; 917  : 				PLAYSND( "CtrlCraftCrash.wav" );	// 맞으면 사운드 플레이
; 918  : 			}
; 919  : 			SetPos( vPos );
; 920  : 			if( (m_nCnt & 7) == 0 )
; 921  : 			{
; 922  : 				CObj* pObj = new CObj;
; 923  : 				vPos = GetPos();
; 924  : 				vPos.x += (FLOAT)(160 - xRandom(320)) / 10.0f;
; 925  : 				vPos.y += (FLOAT)(xRandom(20)) + 10;
; 926  : 				vPos.z += (FLOAT)(160 - xRandom(320)) / 10.0f;
; 927  : 				pObj->m_dwType = 1;
; 928  : 				pObj->SetScale( D3DXVECTOR3(50, 50, 50) );
; 929  : 				pObj->SetPos( vPos );
; 930  : 				pObj->SetIndex( g_Neuz.m_pd3dDevice, 22 );
; 931  : 				pObj->UpdateLocalMatrix();
; 932  : 				m_pWorld->AddObj( pObj );
; 933  : 			}
; 934  : 			if( (m_nCnt & 15) == 0 && m_nCnt < 100 )
; 935  : 			{
; 936  : 				PLAYSND( "CtrlAirmine.wav", NULL );// 맞으면 사운드 플레이
; 937  : 			}
; 938  : 
; 939  : 		}
; 940  : 		break;
; 941  : 	case 3:	// 바닥에 처박힘
; 942  : 		if( g_ShipExp == 0 )
; 943  : 		{
; 944  : 			m_nEvent = 0;
; 945  : 			SetPos( g_vPosShip );
; 946  : 			SetAngleX( 0 );
; 947  : 			m_dy = 0;
; 948  : 		}
; 949  : 		break;
; 950  : 	}
; 951  : 	m_nCnt ++;
; 952  : #endif
; 953  : }

  00000	c3		 ret	 0
?ProcessAirShip@CObj@@QAEXXZ ENDP			; CObj::ProcessAirShip
; Function compile flags: /Ogty
_TEXT	ENDS
;	COMDAT ?RenderName@CObj@@UAEXPAUIDirect3DDevice9@@PAVCD3DFont@@K@Z
_TEXT	SEGMENT
_pd3dDevice$ = 8					; size = 4
_pFont$ = 12						; size = 4
_dwColor$ = 16						; size = 4
?RenderName@CObj@@UAEXPAUIDirect3DDevice9@@PAVCD3DFont@@K@Z PROC NEAR ; CObj::RenderName, COMDAT
; _this$ = ecx

; 980  : 	return;
; 981  : }

  00000	c2 0c 00	 ret	 12			; 0000000cH
?RenderName@CObj@@UAEXPAUIDirect3DDevice9@@PAVCD3DFont@@K@Z ENDP ; CObj::RenderName
_TEXT	ENDS
PUBLIC	_fabsf
; Function compile flags: /Ogty
; File c:\program files\microsoft visual studio .net 2003\vc7\include\math.h
;	COMDAT _fabsf
_TEXT	SEGMENT
__X$ = 8						; size = 4
_fabsf	PROC NEAR					; COMDAT

; 450  :         {return ((float)fabs((double)_X)); }

  00000	d9 44 24 04	 fld	 DWORD PTR __X$[esp-4]
  00004	d9 e1		 fabs
  00006	c3		 ret	 0
_fabsf	ENDP
_TEXT	ENDS
PUBLIC	?fabs@@YAMM@Z					; fabs
; Function compile flags: /Ogty
;	COMDAT ?fabs@@YAMM@Z
_TEXT	SEGMENT
__X$ = 8						; size = 4
?fabs@@YAMM@Z PROC NEAR					; fabs, COMDAT

; 555  :         {return (fabsf(_X)); }

  00000	d9 44 24 04	 fld	 DWORD PTR __X$[esp-4]
  00004	d9 e1		 fabs
  00006	c3		 ret	 0
?fabs@@YAMM@Z ENDP					; fabs
_TEXT	ENDS
PUBLIC	??0D3DXVECTOR3@@QAE@XZ				; D3DXVECTOR3::D3DXVECTOR3
; Function compile flags: /Ogty
; File c:\documents and settings\test\mes documents\source\virtuos_v17\build\program\dx_sdk\d3dx9math.h
;	COMDAT ??0D3DXVECTOR3@@QAE@XZ
_TEXT	SEGMENT
??0D3DXVECTOR3@@QAE@XZ PROC NEAR			; D3DXVECTOR3::D3DXVECTOR3, COMDAT
; _this$ = ecx

; 165  :     D3DXVECTOR3() {};

  00000	8b c1		 mov	 eax, ecx
  00002	c3		 ret	 0
??0D3DXVECTOR3@@QAE@XZ ENDP				; D3DXVECTOR3::D3DXVECTOR3
_TEXT	ENDS
PUBLIC	??0D3DXVECTOR4@@QAE@XZ				; D3DXVECTOR4::D3DXVECTOR4
; Function compile flags: /Ogty
;	COMDAT ??0D3DXVECTOR4@@QAE@XZ
_TEXT	SEGMENT
??0D3DXVECTOR4@@QAE@XZ PROC NEAR			; D3DXVECTOR4::D3DXVECTOR4, COMDAT
; _this$ = ecx

; 240  :     D3DXVECTOR4() {};

  00000	8b c1		 mov	 eax, ecx
  00002	c3		 ret	 0
??0D3DXVECTOR4@@QAE@XZ ENDP				; D3DXVECTOR4::D3DXVECTOR4
_TEXT	ENDS
PUBLIC	??0D3DXMATRIX@@QAE@XZ				; D3DXMATRIX::D3DXMATRIX
; Function compile flags: /Ogty
;	COMDAT ??0D3DXMATRIX@@QAE@XZ
_TEXT	SEGMENT
??0D3DXMATRIX@@QAE@XZ PROC NEAR				; D3DXMATRIX::D3DXMATRIX, COMDAT
; _this$ = ecx

; 313  :     D3DXMATRIX() {};

  00000	8b c1		 mov	 eax, ecx
  00002	c3		 ret	 0
??0D3DXMATRIX@@QAE@XZ ENDP				; D3DXMATRIX::D3DXMATRIX
_TEXT	ENDS
PUBLIC	??0D3DXVECTOR3@@QAE@MMM@Z			; D3DXVECTOR3::D3DXVECTOR3
; Function compile flags: /Ogty
; File c:\documents and settings\test\mes documents\source\virtuos_v17\build\program\dx_sdk\d3dx9math.inl
;	COMDAT ??0D3DXVECTOR3@@QAE@MMM@Z
_TEXT	SEGMENT
_fx$ = 8						; size = 4
_fy$ = 12						; size = 4
_fz$ = 16						; size = 4
??0D3DXVECTOR3@@QAE@MMM@Z PROC NEAR			; D3DXVECTOR3::D3DXVECTOR3, COMDAT
; _this$ = ecx

; 300  :     x = fx;
; 301  :     y = fy;

  00000	8b 54 24 08	 mov	 edx, DWORD PTR _fy$[esp-4]
  00004	8b c1		 mov	 eax, ecx
  00006	8b 4c 24 04	 mov	 ecx, DWORD PTR _fx$[esp-4]
  0000a	89 08		 mov	 DWORD PTR [eax], ecx

; 302  :     z = fz;

  0000c	8b 4c 24 0c	 mov	 ecx, DWORD PTR _fz$[esp-4]
  00010	89 50 04	 mov	 DWORD PTR [eax+4], edx
  00013	89 48 08	 mov	 DWORD PTR [eax+8], ecx

; 303  : }

  00016	c2 0c 00	 ret	 12			; 0000000cH
??0D3DXVECTOR3@@QAE@MMM@Z ENDP				; D3DXVECTOR3::D3DXVECTOR3
_TEXT	ENDS
PUBLIC	??GD3DXVECTOR3@@QBE?AU0@ABU0@@Z			; D3DXVECTOR3::operator-
; Function compile flags: /Ogty
;	COMDAT ??GD3DXVECTOR3@@QBE?AU0@ABU0@@Z
_TEXT	SEGMENT
___$ReturnUdt$ = 8					; size = 4
_v$ = 12						; size = 4
??GD3DXVECTOR3@@QBE?AU0@ABU0@@Z PROC NEAR		; D3DXVECTOR3::operator-, COMDAT
; _this$ = ecx

; 383  :     return D3DXVECTOR3(x - v.x, y - v.y, z - v.z);

  00000	d9 41 08	 fld	 DWORD PTR [ecx+8]
  00003	8b 44 24 08	 mov	 eax, DWORD PTR _v$[esp-4]
  00007	d8 60 08	 fsub	 DWORD PTR [eax+8]
  0000a	d9 41 04	 fld	 DWORD PTR [ecx+4]
  0000d	d8 60 04	 fsub	 DWORD PTR [eax+4]
  00010	d9 01		 fld	 DWORD PTR [ecx]
  00012	d8 20		 fsub	 DWORD PTR [eax]
  00014	8b 44 24 04	 mov	 eax, DWORD PTR ___$ReturnUdt$[esp-4]
  00018	d9 18		 fstp	 DWORD PTR [eax]
  0001a	d9 58 04	 fstp	 DWORD PTR [eax+4]
  0001d	d9 58 08	 fstp	 DWORD PTR [eax+8]

; 384  : }

  00020	c2 08 00	 ret	 8
??GD3DXVECTOR3@@QBE?AU0@ABU0@@Z ENDP			; D3DXVECTOR3::operator-
_TEXT	ENDS
PUBLIC	__real@3f800000
PUBLIC	??KD3DXVECTOR3@@QBE?AU0@M@Z			; D3DXVECTOR3::operator/
;	COMDAT __real@3f800000
CONST	SEGMENT
__real@3f800000 DD 03f800000r			; 1
; Function compile flags: /Ogty
CONST	ENDS
;	COMDAT ??KD3DXVECTOR3@@QBE?AU0@M@Z
_TEXT	SEGMENT
___$ReturnUdt$ = 8					; size = 4
_fInv$ = 12						; size = 4
_f$ = 12						; size = 4
??KD3DXVECTOR3@@QBE?AU0@M@Z PROC NEAR			; D3DXVECTOR3::operator/, COMDAT
; _this$ = ecx

; 395  :     FLOAT fInv = 1.0f / f;

  00000	d9 05 00 00 00
	00		 fld	 DWORD PTR __real@3f800000

; 396  :     return D3DXVECTOR3(x * fInv, y * fInv, z * fInv);

  00006	8b 44 24 04	 mov	 eax, DWORD PTR ___$ReturnUdt$[esp-4]
  0000a	d8 74 24 08	 fdiv	 DWORD PTR _f$[esp-4]
  0000e	d9 54 24 08	 fst	 DWORD PTR _fInv$[esp-4]
  00012	d8 49 08	 fmul	 DWORD PTR [ecx+8]
  00015	d9 44 24 08	 fld	 DWORD PTR _fInv$[esp-4]
  00019	d8 49 04	 fmul	 DWORD PTR [ecx+4]
  0001c	d9 44 24 08	 fld	 DWORD PTR _fInv$[esp-4]
  00020	d8 09		 fmul	 DWORD PTR [ecx]
  00022	d9 18		 fstp	 DWORD PTR [eax]
  00024	d9 58 04	 fstp	 DWORD PTR [eax+4]
  00027	d9 58 08	 fstp	 DWORD PTR [eax+8]

; 397  : }

  0002a	c2 08 00	 ret	 8
??KD3DXVECTOR3@@QBE?AU0@M@Z ENDP			; D3DXVECTOR3::operator/
_TEXT	ENDS
PUBLIC	??8D3DXVECTOR3@@QBEHABU0@@Z			; D3DXVECTOR3::operator==
; Function compile flags: /Ogty
;	COMDAT ??8D3DXVECTOR3@@QBEHABU0@@Z
_TEXT	SEGMENT
_v$ = 8							; size = 4
??8D3DXVECTOR3@@QBEHABU0@@Z PROC NEAR			; D3DXVECTOR3::operator==, COMDAT
; _this$ = ecx

; 410  :     return x == v.x && y == v.y && z == v.z;

  00000	8b 54 24 04	 mov	 edx, DWORD PTR _v$[esp-4]
  00004	d9 02		 fld	 DWORD PTR [edx]
  00006	d9 01		 fld	 DWORD PTR [ecx]
  00008	da e9		 fucompp
  0000a	df e0		 fnstsw	 ax
  0000c	f6 c4 44	 test	 ah, 68			; 00000044H
  0000f	7a 26		 jp	 SHORT $L228012
  00011	d9 42 04	 fld	 DWORD PTR [edx+4]
  00014	d9 41 04	 fld	 DWORD PTR [ecx+4]
  00017	da e9		 fucompp
  00019	df e0		 fnstsw	 ax
  0001b	f6 c4 44	 test	 ah, 68			; 00000044H
  0001e	7a 17		 jp	 SHORT $L228012
  00020	d9 42 08	 fld	 DWORD PTR [edx+8]
  00023	d9 41 08	 fld	 DWORD PTR [ecx+8]
  00026	da e9		 fucompp
  00028	df e0		 fnstsw	 ax
  0002a	f6 c4 44	 test	 ah, 68			; 00000044H
  0002d	7a 08		 jp	 SHORT $L228012
  0002f	b8 01 00 00 00	 mov	 eax, 1

; 411  : }

  00034	c2 04 00	 ret	 4
$L228012:

; 410  :     return x == v.x && y == v.y && z == v.z;

  00037	33 c0		 xor	 eax, eax

; 411  : }

  00039	c2 04 00	 ret	 4
??8D3DXVECTOR3@@QBEHABU0@@Z ENDP			; D3DXVECTOR3::operator==
_TEXT	ENDS
PUBLIC	??9D3DXVECTOR3@@QBEHABU0@@Z			; D3DXVECTOR3::operator!=
; Function compile flags: /Ogty
;	COMDAT ??9D3DXVECTOR3@@QBEHABU0@@Z
_TEXT	SEGMENT
_v$ = 8							; size = 4
??9D3DXVECTOR3@@QBEHABU0@@Z PROC NEAR			; D3DXVECTOR3::operator!=, COMDAT
; _this$ = ecx

; 416  :     return x != v.x || y != v.y || z != v.z;

  00000	8b 54 24 04	 mov	 edx, DWORD PTR _v$[esp-4]
  00004	d9 02		 fld	 DWORD PTR [edx]
  00006	d9 01		 fld	 DWORD PTR [ecx]
  00008	da e9		 fucompp
  0000a	df e0		 fnstsw	 ax
  0000c	f6 c4 44	 test	 ah, 68			; 00000044H
  0000f	7a 23		 jp	 SHORT $L228017
  00011	d9 42 04	 fld	 DWORD PTR [edx+4]
  00014	d9 41 04	 fld	 DWORD PTR [ecx+4]
  00017	da e9		 fucompp
  00019	df e0		 fnstsw	 ax
  0001b	f6 c4 44	 test	 ah, 68			; 00000044H
  0001e	7a 14		 jp	 SHORT $L228017
  00020	d9 42 08	 fld	 DWORD PTR [edx+8]
  00023	d9 41 08	 fld	 DWORD PTR [ecx+8]
  00026	da e9		 fucompp
  00028	df e0		 fnstsw	 ax
  0002a	f6 c4 44	 test	 ah, 68			; 00000044H
  0002d	7a 05		 jp	 SHORT $L228017
  0002f	33 c0		 xor	 eax, eax

; 417  : }

  00031	c2 04 00	 ret	 4
$L228017:

; 416  :     return x != v.x || y != v.y || z != v.z;

  00034	b8 01 00 00 00	 mov	 eax, 1

; 417  : }

  00039	c2 04 00	 ret	 4
??9D3DXVECTOR3@@QBEHABU0@@Z ENDP			; D3DXVECTOR3::operator!=
_TEXT	ENDS
PUBLIC	?D3DXVec3LengthSq@@YAMPBUD3DXVECTOR3@@@Z	; D3DXVec3LengthSq
; Function compile flags: /Ogty
;	COMDAT ?D3DXVec3LengthSq@@YAMPBUD3DXVECTOR3@@@Z
_TEXT	SEGMENT
_pV$ = 8						; size = 4
?D3DXVec3LengthSq@@YAMPBUD3DXVECTOR3@@@Z PROC NEAR	; D3DXVec3LengthSq, COMDAT

; 1693 : #ifdef D3DX_DEBUG
; 1694 :     if(!pV)
; 1695 :         return 0.0f;
; 1696 : #endif
; 1697 : 
; 1698 :     return pV->x * pV->x + pV->y * pV->y + pV->z * pV->z;

  00000	8b 44 24 04	 mov	 eax, DWORD PTR _pV$[esp-4]
  00004	d9 40 08	 fld	 DWORD PTR [eax+8]
  00007	d9 40 04	 fld	 DWORD PTR [eax+4]
  0000a	d9 00		 fld	 DWORD PTR [eax]
  0000c	d9 c0		 fld	 ST(0)
  0000e	d8 c9		 fmul	 ST(0), ST(1)
  00010	d9 c2		 fld	 ST(2)
  00012	d8 cb		 fmul	 ST(0), ST(3)
  00014	de c1		 faddp	 ST(1), ST(0)
  00016	d9 c3		 fld	 ST(3)
  00018	d8 cc		 fmul	 ST(0), ST(4)
  0001a	de c1		 faddp	 ST(1), ST(0)
  0001c	dd db		 fstp	 ST(3)
  0001e	dd d8		 fstp	 ST(0)
  00020	dd d8		 fstp	 ST(0)

; 1699 : }

  00022	c3		 ret	 0
?D3DXVec3LengthSq@@YAMPBUD3DXVECTOR3@@@Z ENDP		; D3DXVec3LengthSq
_TEXT	ENDS
PUBLIC	?D3DXMatrixIdentity@@YAPAUD3DXMATRIX@@PAU1@@Z	; D3DXMatrixIdentity
; Function compile flags: /Ogty
;	COMDAT ?D3DXMatrixIdentity@@YAPAUD3DXMATRIX@@PAU1@@Z
_TEXT	SEGMENT
_pOut$ = 8						; size = 4
?D3DXMatrixIdentity@@YAPAUD3DXMATRIX@@PAU1@@Z PROC NEAR	; D3DXMatrixIdentity, COMDAT

; 1956 : #ifdef D3DX_DEBUG
; 1957 :     if(!pOut)
; 1958 :         return NULL;
; 1959 : #endif
; 1960 : 
; 1961 :     pOut->m[0][1] = pOut->m[0][2] = pOut->m[0][3] =
; 1962 :     pOut->m[1][0] = pOut->m[1][2] = pOut->m[1][3] =
; 1963 :     pOut->m[2][0] = pOut->m[2][1] = pOut->m[2][3] =
; 1964 :     pOut->m[3][0] = pOut->m[3][1] = pOut->m[3][2] = 0.0f;

  00000	8b 44 24 04	 mov	 eax, DWORD PTR _pOut$[esp-4]
  00004	33 c9		 xor	 ecx, ecx
  00006	89 48 38	 mov	 DWORD PTR [eax+56], ecx
  00009	89 48 34	 mov	 DWORD PTR [eax+52], ecx
  0000c	89 48 30	 mov	 DWORD PTR [eax+48], ecx
  0000f	89 48 2c	 mov	 DWORD PTR [eax+44], ecx
  00012	89 48 24	 mov	 DWORD PTR [eax+36], ecx
  00015	89 48 20	 mov	 DWORD PTR [eax+32], ecx
  00018	89 48 1c	 mov	 DWORD PTR [eax+28], ecx
  0001b	89 48 18	 mov	 DWORD PTR [eax+24], ecx
  0001e	89 48 10	 mov	 DWORD PTR [eax+16], ecx
  00021	89 48 0c	 mov	 DWORD PTR [eax+12], ecx
  00024	89 48 08	 mov	 DWORD PTR [eax+8], ecx
  00027	89 48 04	 mov	 DWORD PTR [eax+4], ecx

; 1965 : 
; 1966 :     pOut->m[0][0] = pOut->m[1][1] = pOut->m[2][2] = pOut->m[3][3] = 1.0f;

  0002a	b9 00 00 80 3f	 mov	 ecx, 1065353216		; 3f800000H
  0002f	89 48 3c	 mov	 DWORD PTR [eax+60], ecx
  00032	89 48 28	 mov	 DWORD PTR [eax+40], ecx
  00035	89 48 14	 mov	 DWORD PTR [eax+20], ecx
  00038	89 08		 mov	 DWORD PTR [eax], ecx

; 1967 :     return pOut;
; 1968 : }

  0003a	c3		 ret	 0
?D3DXMatrixIdentity@@YAPAUD3DXMATRIX@@PAU1@@Z ENDP	; D3DXMatrixIdentity
_TEXT	ENDS
PUBLIC	??_H@YGXPAXIHP6EPAX0@Z@Z			; `vector constructor iterator'
; Function compile flags: /Ogty
;	COMDAT ??_H@YGXPAXIHP6EPAX0@Z@Z
_TEXT	SEGMENT
___t$ = 8						; size = 4
___s$ = 12						; size = 4
___n$ = 16						; size = 4
___f$ = 20						; size = 4
??_H@YGXPAXIHP6EPAX0@Z@Z PROC NEAR			; `vector constructor iterator', COMDAT
  00000	8b 44 24 0c	 mov	 eax, DWORD PTR ___n$[esp-4]
  00004	48		 dec	 eax
  00005	78 26		 js	 SHORT $L171564
  00007	53		 push	 ebx
  00008	8b 5c 24 14	 mov	 ebx, DWORD PTR ___f$[esp]
  0000c	55		 push	 ebp
  0000d	8b 6c 24 10	 mov	 ebp, DWORD PTR ___s$[esp+4]
  00011	56		 push	 esi
  00012	8b 74 24 10	 mov	 esi, DWORD PTR ___t$[esp+8]
  00016	57		 push	 edi
  00017	8d 78 01	 lea	 edi, DWORD PTR [eax+1]
  0001a	8d 9b 00 00 00
	00		 npad	 6
$L171563:
  00020	8b ce		 mov	 ecx, esi
  00022	ff d3		 call	 ebx
  00024	03 f5		 add	 esi, ebp
  00026	4f		 dec	 edi
  00027	75 f7		 jne	 SHORT $L171563
  00029	5f		 pop	 edi
  0002a	5e		 pop	 esi
  0002b	5d		 pop	 ebp
  0002c	5b		 pop	 ebx
$L171564:
  0002d	c2 10 00	 ret	 16			; 00000010H
??_H@YGXPAXIHP6EPAX0@Z@Z ENDP				; `vector constructor iterator'
; Function compile flags: /Ogty
; File c:\documents and settings\test\mes documents\source\virtuos_v17\build\program\_common\obj.h
_TEXT	ENDS
;	COMDAT ?SetMotion@CObj@@UAEHKHK@Z
_TEXT	SEGMENT
_dwMotion$ = 8						; size = 4
_nLoop$ = 12						; size = 4
_dwOption$ = 16						; size = 4
?SetMotion@CObj@@UAEHKHK@Z PROC NEAR			; CObj::SetMotion, COMDAT
; _this$ = ecx

; 162  : 	virtual	BOOL	SetMotion(DWORD dwMotion, int nLoop = ANILOOP_LOOP, DWORD dwOption = 0 ) { return FALSE; }

  00000	33 c0		 xor	 eax, eax
  00002	c2 0c 00	 ret	 12			; 0000000cH
?SetMotion@CObj@@UAEHKHK@Z ENDP				; CObj::SetMotion
; Function compile flags: /Ogty
_TEXT	ENDS
;	COMDAT ?InitMotion@CObj@@UAEHK@Z
_TEXT	SEGMENT
_dwMotion$ = 8						; size = 4
?InitMotion@CObj@@UAEHK@Z PROC NEAR			; CObj::InitMotion, COMDAT
; _this$ = ecx

; 163  : 	virtual	BOOL	InitMotion(DWORD dwMotion) { return FALSE; }

  00000	33 c0		 xor	 eax, eax
  00002	c2 04 00	 ret	 4
?InitMotion@CObj@@UAEHK@Z ENDP				; CObj::InitMotion
_TEXT	ENDS
PUBLIC	??_C@_05CJBACGMB@hello?$AA@			; `string'
;	COMDAT ??_C@_05CJBACGMB@hello?$AA@
CONST	SEGMENT
??_C@_05CJBACGMB@hello?$AA@ DB 'hello', 00H		; `string'
; Function compile flags: /Ogty
CONST	ENDS
;	COMDAT ?GetName@CObj@@UAEPBDXZ
_TEXT	SEGMENT
?GetName@CObj@@UAEPBDXZ PROC NEAR			; CObj::GetName, COMDAT
; _this$ = ecx

; 166  : 	virtual	LPCTSTR GetName() { return _T( "hello" ); }

  00000	b8 00 00 00 00	 mov	 eax, OFFSET FLAT:??_C@_05CJBACGMB@hello?$AA@
  00005	c3		 ret	 0
?GetName@CObj@@UAEPBDXZ ENDP				; CObj::GetName
_TEXT	ENDS
PUBLIC	?GetType@CObj@@QAEKXZ				; CObj::GetType
; Function compile flags: /Ogty
;	COMDAT ?GetType@CObj@@QAEKXZ
_TEXT	SEGMENT
?GetType@CObj@@QAEKXZ PROC NEAR				; CObj::GetType, COMDAT
; _this$ = ecx

; 206  : 	DWORD			GetType() { return m_dwType; }

  00000	8b 81 70 01 00
	00		 mov	 eax, DWORD PTR [ecx+368]
  00006	c3		 ret	 0
?GetType@CObj@@QAEKXZ ENDP				; CObj::GetType
_TEXT	ENDS
PUBLIC	?GetPos@CObj@@QAE?AUD3DXVECTOR3@@XZ		; CObj::GetPos
; Function compile flags: /Ogty
;	COMDAT ?GetPos@CObj@@QAE?AUD3DXVECTOR3@@XZ
_TEXT	SEGMENT
___$ReturnUdt$ = 8					; size = 4
?GetPos@CObj@@QAE?AUD3DXVECTOR3@@XZ PROC NEAR		; CObj::GetPos, COMDAT
; _this$ = ecx

; 215  : 	D3DXVECTOR3		GetPos()	{ return m_vPos; }

  00000	8b 44 24 04	 mov	 eax, DWORD PTR ___$ReturnUdt$[esp-4]
  00004	81 c1 60 01 00
	00		 add	 ecx, 352		; 00000160H
  0000a	56		 push	 esi
  0000b	8b 31		 mov	 esi, DWORD PTR [ecx]
  0000d	8b d0		 mov	 edx, eax
  0000f	89 32		 mov	 DWORD PTR [edx], esi
  00011	8b 71 04	 mov	 esi, DWORD PTR [ecx+4]
  00014	89 72 04	 mov	 DWORD PTR [edx+4], esi
  00017	8b 49 08	 mov	 ecx, DWORD PTR [ecx+8]
  0001a	89 4a 08	 mov	 DWORD PTR [edx+8], ecx
  0001d	5e		 pop	 esi
  0001e	c2 04 00	 ret	 4
?GetPos@CObj@@QAE?AUD3DXVECTOR3@@XZ ENDP		; CObj::GetPos
_TEXT	ENDS
PUBLIC	?GetWorld@CObj@@QAEPAVCWorld@@XZ		; CObj::GetWorld
; Function compile flags: /Ogty
;	COMDAT ?GetWorld@CObj@@QAEPAVCWorld@@XZ
_TEXT	SEGMENT
?GetWorld@CObj@@QAEPAVCWorld@@XZ PROC NEAR		; CObj::GetWorld, COMDAT
; _this$ = ecx

; 221  : 	CWorld*			GetWorld()	{ return m_pWorld; }

  00000	8b 81 6c 01 00
	00		 mov	 eax, DWORD PTR [ecx+364]
  00006	c3		 ret	 0
?GetWorld@CObj@@QAEPAVCWorld@@XZ ENDP			; CObj::GetWorld
_TEXT	ENDS
PUBLIC	?GetModel@CObj@@QAEPAVCModel@@XZ		; CObj::GetModel
; Function compile flags: /Ogty
;	COMDAT ?GetModel@CObj@@QAEPAVCModel@@XZ
_TEXT	SEGMENT
?GetModel@CObj@@QAEPAVCModel@@XZ PROC NEAR		; CObj::GetModel, COMDAT
; _this$ = ecx

; 223  : 	CModel*			GetModel()	{ return m_pModel; }

  00000	8b 81 78 01 00
	00		 mov	 eax, DWORD PTR [ecx+376]
  00006	c3		 ret	 0
?GetModel@CObj@@QAEPAVCModel@@XZ ENDP			; CObj::GetModel
_TEXT	ENDS
PUBLIC	?GetMatrixWorld@CObj@@QBE?AUD3DXMATRIX@@XZ	; CObj::GetMatrixWorld
; Function compile flags: /Ogty
;	COMDAT ?GetMatrixWorld@CObj@@QBE?AUD3DXMATRIX@@XZ
_TEXT	SEGMENT
___$ReturnUdt$ = 8					; size = 4
?GetMatrixWorld@CObj@@QBE?AUD3DXMATRIX@@XZ PROC NEAR	; CObj::GetMatrixWorld, COMDAT
; _this$ = ecx

; 231  : 	D3DXMATRIX		GetMatrixWorld() const		{ return m_matWorld; } // 모든 매트릭스가 곱해진 결과 

  00000	8b 44 24 04	 mov	 eax, DWORD PTR ___$ReturnUdt$[esp-4]
  00004	56		 push	 esi
  00005	57		 push	 edi
  00006	8d b1 e4 00 00
	00		 lea	 esi, DWORD PTR [ecx+228]
  0000c	b9 10 00 00 00	 mov	 ecx, 16			; 00000010H
  00011	8b f8		 mov	 edi, eax
  00013	f3 a5		 rep movsd
  00015	5f		 pop	 edi
  00016	5e		 pop	 esi
  00017	c2 04 00	 ret	 4
?GetMatrixWorld@CObj@@QBE?AUD3DXMATRIX@@XZ ENDP		; CObj::GetMatrixWorld
_TEXT	ENDS
PUBLIC	?GetLinkPos@CObj@@QAE?AUD3DXVECTOR3@@XZ		; CObj::GetLinkPos
; Function compile flags: /Ogty
;	COMDAT ?GetLinkPos@CObj@@QAE?AUD3DXVECTOR3@@XZ
_TEXT	SEGMENT
___$ReturnUdt$ = 8					; size = 4
?GetLinkPos@CObj@@QAE?AUD3DXVECTOR3@@XZ PROC NEAR	; CObj::GetLinkPos, COMDAT
; _this$ = ecx

; 238  : 	D3DXVECTOR3		GetLinkPos()							{	return m_vLink;	}

  00000	8b 44 24 04	 mov	 eax, DWORD PTR ___$ReturnUdt$[esp-4]
  00004	81 c1 ac 01 00
	00		 add	 ecx, 428		; 000001acH
  0000a	56		 push	 esi
  0000b	8b 31		 mov	 esi, DWORD PTR [ecx]
  0000d	8b d0		 mov	 edx, eax
  0000f	89 32		 mov	 DWORD PTR [edx], esi
  00011	8b 71 04	 mov	 esi, DWORD PTR [ecx+4]
  00014	89 72 04	 mov	 DWORD PTR [edx+4], esi
  00017	8b 49 08	 mov	 ecx, DWORD PTR [ecx+8]
  0001a	89 4a 08	 mov	 DWORD PTR [edx+8], ecx
  0001d	5e		 pop	 esi
  0001e	c2 04 00	 ret	 4
?GetLinkPos@CObj@@QAE?AUD3DXVECTOR3@@XZ ENDP		; CObj::GetLinkPos
_TEXT	ENDS
PUBLIC	?GetLayer@CObj@@QAEHXZ				; CObj::GetLayer
; Function compile flags: /Ogty
;	COMDAT ?GetLayer@CObj@@QAEHXZ
_TEXT	SEGMENT
?GetLayer@CObj@@QAEHXZ PROC NEAR			; CObj::GetLayer, COMDAT
; _this$ = ecx

; 247  : 	int		GetLayer()	{	return m_nLayer;	}

  00000	8b 81 b8 01 00
	00		 mov	 eax, DWORD PTR [ecx+440]
  00006	c3		 ret	 0
?GetLayer@CObj@@QAEHXZ ENDP				; CObj::GetLayer
_TEXT	ENDS
PUBLIC	?SetFlag@CObj@@AAEXHK@Z				; CObj::SetFlag
; Function compile flags: /Ogty
;	COMDAT ?SetFlag@CObj@@AAEXHK@Z
_TEXT	SEGMENT
_bUpdate$ = 8						; size = 4
_dwValue$ = 12						; size = 4
?SetFlag@CObj@@AAEXHK@Z PROC NEAR			; CObj::SetFlag, COMDAT
; _this$ = ecx

; 272  : 	if( bUpdate )

  00000	8b 44 24 04	 mov	 eax, DWORD PTR _bUpdate$[esp-4]
  00004	85 c0		 test	 eax, eax
  00006	74 0f		 je	 SHORT $L176539

; 273  : 		m_dwFlags |= dwValue;

  00008	8b 51 04	 mov	 edx, DWORD PTR [ecx+4]
  0000b	8b 44 24 08	 mov	 eax, DWORD PTR _dwValue$[esp-4]
  0000f	0b d0		 or	 edx, eax
  00011	89 51 04	 mov	 DWORD PTR [ecx+4], edx

; 276  : }

  00014	c2 08 00	 ret	 8
$L176539:

; 274  : 	else
; 275  : 		m_dwFlags &= (~dwValue);

  00017	8b 54 24 08	 mov	 edx, DWORD PTR _dwValue$[esp-4]
  0001b	8b 41 04	 mov	 eax, DWORD PTR [ecx+4]
  0001e	f7 d2		 not	 edx
  00020	23 c2		 and	 eax, edx
  00022	89 41 04	 mov	 DWORD PTR [ecx+4], eax

; 276  : }

  00025	c2 08 00	 ret	 8
?SetFlag@CObj@@AAEXHK@Z ENDP				; CObj::SetFlag
_TEXT	ENDS
PUBLIC	__real@477fff00
PUBLIC	?IsNullBoundBox@CModel@@QAEHXZ			; CModel::IsNullBoundBox
;	COMDAT __real@477fff00
; File c:\documents and settings\test\mes documents\source\virtuos_v17\build\program\dx_sdk\d3dx9math.inl
CONST	SEGMENT
__real@477fff00 DD 0477fff00r			; 65535
; Function compile flags: /Ogty
; File c:\documents and settings\test\mes documents\source\virtuos_v17\build\program\_common\model.h
CONST	ENDS
;	COMDAT ?IsNullBoundBox@CModel@@QAEHXZ
_TEXT	SEGMENT
?IsNullBoundBox@CModel@@QAEHXZ PROC NEAR		; CModel::IsNullBoundBox, COMDAT
; _this$ = ecx

; 138  : 	BOOL	IsNullBoundBox() { if( m_vMin == m_vMax || m_vMin.x == 65535.0f ) return TRUE; return FALSE; }

  00000	d9 81 84 00 00
	00		 fld	 DWORD PTR [ecx+132]
  00006	d9 41 78	 fld	 DWORD PTR [ecx+120]
  00009	da e9		 fucompp
  0000b	df e0		 fnstsw	 ax
  0000d	f6 c4 44	 test	 ah, 68			; 00000044H
  00010	7a 27		 jp	 SHORT $L228071
  00012	d9 81 88 00 00
	00		 fld	 DWORD PTR [ecx+136]
  00018	d9 41 7c	 fld	 DWORD PTR [ecx+124]
  0001b	da e9		 fucompp
  0001d	df e0		 fnstsw	 ax
  0001f	f6 c4 44	 test	 ah, 68			; 00000044H
  00022	7a 15		 jp	 SHORT $L228071
  00024	d9 81 8c 00 00
	00		 fld	 DWORD PTR [ecx+140]
  0002a	d9 81 80 00 00
	00		 fld	 DWORD PTR [ecx+128]
  00030	da e9		 fucompp
  00032	df e0		 fnstsw	 ax
  00034	f6 c4 44	 test	 ah, 68			; 00000044H
  00037	7b 15		 jnp	 SHORT $L199740
$L228071:
  00039	d9 05 00 00 00
	00		 fld	 DWORD PTR __real@477fff00
  0003f	d9 41 78	 fld	 DWORD PTR [ecx+120]
  00042	da e9		 fucompp
  00044	df e0		 fnstsw	 ax
  00046	f6 c4 44	 test	 ah, 68			; 00000044H
  00049	7b 03		 jnp	 SHORT $L199740
  0004b	33 c0		 xor	 eax, eax
  0004d	c3		 ret	 0
$L199740:
  0004e	b8 01 00 00 00	 mov	 eax, 1
  00053	c3		 ret	 0
?IsNullBoundBox@CModel@@QAEHXZ ENDP			; CModel::IsNullBoundBox
_TEXT	ENDS
PUBLIC	?GetBBVector@CModel@@QAEPBUBOUND_BOX@@XZ	; CModel::GetBBVector
; Function compile flags: /Ogty
;	COMDAT ?GetBBVector@CModel@@QAEPBUBOUND_BOX@@XZ
_TEXT	SEGMENT
?GetBBVector@CModel@@QAEPBUBOUND_BOX@@XZ PROC NEAR	; CModel::GetBBVector, COMDAT
; _this$ = ecx

; 148  : 	const BOUND_BOX*	GetBBVector( void ) { return &m_BB; } // 바운딩박스의 8귀퉁이 좌표를 리턴

  00000	8d 41 0c	 lea	 eax, DWORD PTR [ecx+12]
  00003	c3		 ret	 0
?GetBBVector@CModel@@QAEPBUBOUND_BOX@@XZ ENDP		; CModel::GetBBVector
_TEXT	ENDS
PUBLIC	?IsPlayer@CMover@@QAEHXZ			; CMover::IsPlayer
; Function compile flags: /Ogty
; File c:\documents and settings\test\mes documents\source\virtuos_v17\build\program\_common\mover.h
;	COMDAT ?IsPlayer@CMover@@QAEHXZ
_TEXT	SEGMENT
?IsPlayer@CMover@@QAEHXZ PROC NEAR			; CMover::IsPlayer, COMDAT
; _this$ = ecx

; 1042 : 	BOOL			IsPlayer()			{ return m_bPlayer; }

  00000	8b 81 34 02 00
	00		 mov	 eax, DWORD PTR [ecx+564]
  00006	c3		 ret	 0
?IsPlayer@CMover@@QAEHXZ ENDP				; CMover::IsPlayer
_TEXT	ENDS
PUBLIC	?VecInWorld@CWorld@@QAEHMM@Z			; CWorld::VecInWorld
PUBLIC	__real@00000000
EXTRN	__isnan:NEAR
;	COMDAT __real@00000000
; File c:\documents and settings\test\mes documents\source\virtuos_v17\build\program\_common\world.h
CONST	SEGMENT
__real@00000000 DD 000000000r			; 0
; Function compile flags: /Ogty
CONST	ENDS
;	COMDAT ?VecInWorld@CWorld@@QAEHMM@Z
_TEXT	SEGMENT
_inv_mpu$ = -4						; size = 4
tv178 = 8						; size = 4
tv164 = 8						; size = 4
_x$ = 8							; size = 4
_z$ = 12						; size = 4
?VecInWorld@CWorld@@QAEHMM@Z PROC NEAR			; CWorld::VecInWorld, COMDAT
; _this$ = ecx

; 729  : {

  00000	51		 push	 ecx
  00001	56		 push	 esi
  00002	8b f1		 mov	 esi, ecx

; 730  : //	if( x < 0 || z < 0 || (int)x >= m_nLandWidth * ( MAP_SIZE * MPU ) - 4 || 
; 731  : //	(int)z >= m_nLandHeight * ( MAP_SIZE * MPU ) - 4 )
; 732  : //		return FALSE;
; 733  : 
; 734  : 	float inv_mpu = 1.0f / (float)m_iMPU;

  00004	db 46 14	 fild	 DWORD PTR [esi+20]

; 735  : 
; 736  : 	if( _isnan( x ) )

  00007	83 ec 08	 sub	 esp, 8
  0000a	d8 3d 00 00 00
	00		 fdivr	 DWORD PTR __real@3f800000
  00010	d9 5c 24 0c	 fstp	 DWORD PTR _inv_mpu$[esp+16]
  00014	d9 44 24 14	 fld	 DWORD PTR _x$[esp+12]
  00018	dd 1c 24	 fstp	 QWORD PTR [esp]
  0001b	e8 00 00 00 00	 call	 __isnan
  00020	83 c4 08	 add	 esp, 8
  00023	85 c0		 test	 eax, eax

; 737  : 		return FALSE;

  00025	75 72		 jne	 SHORT $L228089

; 738  : 	if( x < 0.0f )

  00027	d9 44 24 0c	 fld	 DWORD PTR _x$[esp+4]
  0002b	d8 1d 00 00 00
	00		 fcomp	 DWORD PTR __real@00000000
  00031	df e0		 fnstsw	 ax
  00033	f6 c4 05	 test	 ah, 5

; 739  : 		return FALSE;

  00036	7b 61		 jnp	 SHORT $L228089

; 740  : 	if( (x * inv_mpu) >= ( WORLD_WIDTH-1 ) )	

  00038	8b 46 0c	 mov	 eax, DWORD PTR [esi+12]
  0003b	d9 44 24 04	 fld	 DWORD PTR _inv_mpu$[esp+8]
  0003f	d8 4c 24 0c	 fmul	 DWORD PTR _x$[esp+4]
  00043	48		 dec	 eax
  00044	89 44 24 0c	 mov	 DWORD PTR tv178[esp+4], eax
  00048	db 44 24 0c	 fild	 DWORD PTR tv178[esp+4]
  0004c	de d9		 fcompp
  0004e	df e0		 fnstsw	 ax
  00050	f6 c4 41	 test	 ah, 65			; 00000041H

; 741  : 	{
; 742  : 		return FALSE;

  00053	7b 44		 jnp	 SHORT $L228089

; 743  : 	}
; 744  : 
; 745  : 	if( _isnan( z ) )

  00055	d9 44 24 10	 fld	 DWORD PTR _z$[esp+4]
  00059	83 ec 08	 sub	 esp, 8
  0005c	dd 1c 24	 fstp	 QWORD PTR [esp]
  0005f	e8 00 00 00 00	 call	 __isnan
  00064	83 c4 08	 add	 esp, 8
  00067	85 c0		 test	 eax, eax

; 746  : 		return FALSE;

  00069	75 2e		 jne	 SHORT $L228089

; 747  : 	if( z < 0.0f )

  0006b	d9 44 24 10	 fld	 DWORD PTR _z$[esp+4]
  0006f	d8 1d 00 00 00
	00		 fcomp	 DWORD PTR __real@00000000
  00075	df e0		 fnstsw	 ax
  00077	f6 c4 05	 test	 ah, 5

; 748  : 		return FALSE;

  0007a	7b 1d		 jnp	 SHORT $L228089

; 749  : 	if( (z * inv_mpu) >= ( WORLD_HEIGHT-1 ) )		

  0007c	8b 4e 10	 mov	 ecx, DWORD PTR [esi+16]
  0007f	d9 44 24 04	 fld	 DWORD PTR _inv_mpu$[esp+8]
  00083	d8 4c 24 10	 fmul	 DWORD PTR _z$[esp+4]
  00087	49		 dec	 ecx
  00088	89 4c 24 0c	 mov	 DWORD PTR tv164[esp+4], ecx
  0008c	db 44 24 0c	 fild	 DWORD PTR tv164[esp+4]
  00090	de d9		 fcompp
  00092	df e0		 fnstsw	 ax
  00094	f6 c4 41	 test	 ah, 65			; 00000041H
  00097	7a 07		 jp	 SHORT $L216362
$L228089:

; 750  : 		return FALSE;

  00099	33 c0		 xor	 eax, eax
  0009b	5e		 pop	 esi

; 753  : }

  0009c	59		 pop	 ecx
  0009d	c2 08 00	 ret	 8
$L216362:

; 751  : 
; 752  : 	return TRUE;

  000a0	b8 01 00 00 00	 mov	 eax, 1
  000a5	5e		 pop	 esi

; 753  : }

  000a6	59		 pop	 ecx
  000a7	c2 08 00	 ret	 8
?VecInWorld@CWorld@@QAEHMM@Z ENDP			; CWorld::VecInWorld
_TEXT	ENDS
PUBLIC	?VecInWorld@CWorld@@QAEHABUD3DXVECTOR3@@@Z	; CWorld::VecInWorld
; Function compile flags: /Ogty
;	COMDAT ?VecInWorld@CWorld@@QAEHABUD3DXVECTOR3@@@Z
_TEXT	SEGMENT
_vPos$ = 8						; size = 4
?VecInWorld@CWorld@@QAEHABUD3DXVECTOR3@@@Z PROC NEAR	; CWorld::VecInWorld, COMDAT
; _this$ = ecx

; 756  : {

  00000	56		 push	 esi

; 757  : 	if( _isnan( (double)vPos.y ) )

  00001	8b 74 24 08	 mov	 esi, DWORD PTR _vPos$[esp]
  00005	d9 46 04	 fld	 DWORD PTR [esi+4]
  00008	57		 push	 edi
  00009	83 ec 08	 sub	 esp, 8
  0000c	dd 1c 24	 fstp	 QWORD PTR [esp]
  0000f	8b f9		 mov	 edi, ecx
  00011	e8 00 00 00 00	 call	 __isnan
  00016	83 c4 08	 add	 esp, 8
  00019	85 c0		 test	 eax, eax
  0001b	74 07		 je	 SHORT $L216368
  0001d	5f		 pop	 edi

; 758  : 		return FALSE;

  0001e	33 c0		 xor	 eax, eax
  00020	5e		 pop	 esi

; 761  : }

  00021	c2 04 00	 ret	 4
$L216368:

; 759  : 
; 760  : 	return VecInWorld( vPos.x, vPos.z );

  00024	8b 46 08	 mov	 eax, DWORD PTR [esi+8]
  00027	8b 0e		 mov	 ecx, DWORD PTR [esi]
  00029	50		 push	 eax
  0002a	51		 push	 ecx
  0002b	8b cf		 mov	 ecx, edi
  0002d	e8 00 00 00 00	 call	 ?VecInWorld@CWorld@@QAEHMM@Z ; CWorld::VecInWorld
  00032	5f		 pop	 edi
  00033	5e		 pop	 esi

; 761  : }

  00034	c2 04 00	 ret	 4
?VecInWorld@CWorld@@QAEHABUD3DXVECTOR3@@@Z ENDP		; CWorld::VecInWorld
; Function compile flags: /Ogty
_TEXT	ENDS
;	COMDAT ??_GCObj@@UAEPAXI@Z
_TEXT	SEGMENT
___flags$ = 8						; size = 4
??_GCObj@@UAEPAXI@Z PROC NEAR				; CObj::`scalar deleting destructor', COMDAT
; _this$ = ecx
  00000	56		 push	 esi
  00001	8b f1		 mov	 esi, ecx
  00003	e8 00 00 00 00	 call	 ??1CObj@@UAE@XZ		; CObj::~CObj
  00008	f6 44 24 08 01	 test	 BYTE PTR ___flags$[esp], 1
  0000d	74 09		 je	 SHORT $L228096
  0000f	56		 push	 esi
  00010	e8 00 00 00 00	 call	 ??3@YAXPAX@Z		; operator delete
  00015	83 c4 04	 add	 esp, 4
$L228096:
  00018	8b c6		 mov	 eax, esi
  0001a	5e		 pop	 esi
  0001b	c2 04 00	 ret	 4
??_GCObj@@UAEPAXI@Z ENDP				; CObj::`scalar deleting destructor'
_TEXT	ENDS
PUBLIC	??0BBOX@@QAE@XZ					; BBOX::BBOX
; Function compile flags: /Ogty
;	COMDAT ??0BBOX@@QAE@XZ
_TEXT	SEGMENT
??0BBOX@@QAE@XZ PROC NEAR				; BBOX::BBOX, COMDAT
; _this$ = ecx
  00000	8b c1		 mov	 eax, ecx
  00002	c3		 ret	 0
??0BBOX@@QAE@XZ ENDP					; BBOX::BBOX
_TEXT	ENDS
PUBLIC	?ProcessAI@CObj@@QAEXXZ				; CObj::ProcessAI
; Function compile flags: /Ogty
; File c:\documents and settings\test\mes documents\source\virtuos_v17\build\program\_common\obj.cpp
;	COMDAT ?ProcessAI@CObj@@QAEXXZ
_TEXT	SEGMENT
?ProcessAI@CObj@@QAEXXZ PROC NEAR			; CObj::ProcessAI, COMDAT
; _this$ = ecx

; 297  : 	if( m_pAIInterface && GetType() == OT_MOVER )

  00000	8b 81 88 01 00
	00		 mov	 eax, DWORD PTR [ecx+392]
  00006	85 c0		 test	 eax, eax
  00008	74 14		 je	 SHORT $L226313
  0000a	83 b9 70 01 00
	00 05		 cmp	 DWORD PTR [ecx+368], 5
  00011	75 0b		 jne	 SHORT $L226313

; 298  : 		m_pAIInterface->RouteMessage();

  00013	8b 89 88 01 00
	00		 mov	 ecx, DWORD PTR [ecx+392]
  00019	8b 01		 mov	 eax, DWORD PTR [ecx]
  0001b	ff 60 08	 jmp	 DWORD PTR [eax+8]
$L226313:

; 299  : }

  0001e	c3		 ret	 0
?ProcessAI@CObj@@QAEXXZ ENDP				; CObj::ProcessAI
_TEXT	ENDS
EXTRN	?OLD_MPU@@3HB:DWORD				; OLD_MPU
; Function compile flags: /Ogty
;	COMDAT ?Read@CObj@@UAEHPAVCFileIO@@@Z
_TEXT	SEGMENT
_dwAI2$ = -20						; size = 4
_dwAIIntreface$ = -16					; size = 4
_vAxis$ = -12						; size = 12
_dwMotion$ = 8						; size = 4
_pFile$ = 8						; size = 4
?Read@CObj@@UAEHPAVCFileIO@@@Z PROC NEAR		; CObj::Read, COMDAT
; _this$ = ecx

; 481  : {

  00000	83 ec 14	 sub	 esp, 20			; 00000014H
  00003	53		 push	 ebx
  00004	55		 push	 ebp
  00005	56		 push	 esi

; 482  : 	D3DXVECTOR3		vAxis;  // 사용하지 않는다.
; 483  : 	DWORD			dwMotion;			
; 484  : 	DWORD			dwAIIntreface;
; 485  : 	DWORD			dwAI2;
; 486  : 
; 487  : 	pFile->Read( &m_fAngle,      sizeof( m_fAngle ) );

  00006	8b 74 24 24	 mov	 esi, DWORD PTR _pFile$[esp+28]
  0000a	8b 06		 mov	 eax, DWORD PTR [esi]
  0000c	57		 push	 edi
  0000d	8b f9		 mov	 edi, ecx
  0000f	6a 01		 push	 1
  00011	6a 04		 push	 4
  00013	8d 4f 18	 lea	 ecx, DWORD PTR [edi+24]
  00016	51		 push	 ecx
  00017	8b ce		 mov	 ecx, esi
  00019	ff 50 2c	 call	 DWORD PTR [eax+44]

; 488  : 	pFile->Read( &vAxis,         sizeof( vAxis ) );

  0001c	8b 16		 mov	 edx, DWORD PTR [esi]
  0001e	6a 01		 push	 1
  00020	6a 0c		 push	 12			; 0000000cH
  00022	8d 44 24 20	 lea	 eax, DWORD PTR _vAxis$[esp+44]
  00026	50		 push	 eax
  00027	8b ce		 mov	 ecx, esi
  00029	ff 52 2c	 call	 DWORD PTR [edx+44]

; 489  : 	pFile->Read( &m_vPos,        sizeof( m_vPos ) );

  0002c	8b 16		 mov	 edx, DWORD PTR [esi]
  0002e	6a 01		 push	 1
  00030	6a 0c		 push	 12			; 0000000cH
  00032	8d 9f 60 01 00
	00		 lea	 ebx, DWORD PTR [edi+352]
  00038	53		 push	 ebx
  00039	8b ce		 mov	 ecx, esi
  0003b	ff 52 2c	 call	 DWORD PTR [edx+44]

; 490  : 	pFile->Read( &m_vScale,      sizeof( m_vScale ) );

  0003e	8b 06		 mov	 eax, DWORD PTR [esi]
  00040	6a 01		 push	 1
  00042	6a 0c		 push	 12			; 0000000cH
  00044	8d 4f 0c	 lea	 ecx, DWORD PTR [edi+12]
  00047	51		 push	 ecx
  00048	8b ce		 mov	 ecx, esi
  0004a	ff 50 2c	 call	 DWORD PTR [eax+44]

; 491  : 	pFile->Read( &m_dwType,      sizeof( m_dwType ) ); 

  0004d	8b 16		 mov	 edx, DWORD PTR [esi]
  0004f	6a 01		 push	 1
  00051	6a 04		 push	 4
  00053	8d af 70 01 00
	00		 lea	 ebp, DWORD PTR [edi+368]
  00059	55		 push	 ebp
  0005a	8b ce		 mov	 ecx, esi
  0005c	ff 52 2c	 call	 DWORD PTR [edx+44]

; 492  : 
; 493  : 	//gmpbigsun: m_dwType에 추가적으로 Invisible collision 속성이 추가됐다 ( since 2009_08_13 ), 기존데이터와 호환 
; 494  : 
; 495  : #ifdef __BS_ADDOBJATTR_INVISIBLE
; 496  : 	if( m_dwType & FOA_Invisible_Collision )		// 속성이 추가된 경우만!!
; 497  : 	{
; 498  : 		m_dwType &= ~FOA_Invisible_Collision;
; 499  : 		SetVisible( FALSE );
; 500  : 	}
; 501  : 
; 502  : 	if( m_dwType & FOA_Invisible )
; 503  : 	{
; 504  : 		m_dwType &= ~FOA_Invisible;
; 505  : 		SetVisible( FALSE );
; 506  : 	}
; 507  : #endif
; 508  : 
; 509  : 	pFile->Read( &m_dwIndex,     sizeof( m_dwIndex ) );

  0005f	8b 06		 mov	 eax, DWORD PTR [esi]
  00061	6a 01		 push	 1
  00063	6a 04		 push	 4
  00065	8d 8f 74 01 00
	00		 lea	 ecx, DWORD PTR [edi+372]
  0006b	51		 push	 ecx
  0006c	8b ce		 mov	 ecx, esi
  0006e	ff 50 2c	 call	 DWORD PTR [eax+44]

; 510  : 	pFile->Read( &dwMotion,      sizeof( dwMotion ) );

  00071	8b 16		 mov	 edx, DWORD PTR [esi]
  00073	6a 01		 push	 1
  00075	6a 04		 push	 4
  00077	8d 44 24 30	 lea	 eax, DWORD PTR _dwMotion$[esp+40]
  0007b	50		 push	 eax
  0007c	8b ce		 mov	 ecx, esi
  0007e	ff 52 2c	 call	 DWORD PTR [edx+44]

; 511  : 	pFile->Read( &dwAIIntreface, sizeof( dwAIIntreface ) );

  00081	8b 16		 mov	 edx, DWORD PTR [esi]
  00083	6a 01		 push	 1
  00085	6a 04		 push	 4
  00087	8d 44 24 1c	 lea	 eax, DWORD PTR _dwAIIntreface$[esp+44]
  0008b	50		 push	 eax
  0008c	8b ce		 mov	 ecx, esi
  0008e	ff 52 2c	 call	 DWORD PTR [edx+44]

; 512  : 	pFile->Read( &dwAI2,         sizeof( dwAI2 ) );

  00091	8b 16		 mov	 edx, DWORD PTR [esi]
  00093	6a 01		 push	 1
  00095	6a 04		 push	 4
  00097	8d 44 24 18	 lea	 eax, DWORD PTR _dwAI2$[esp+44]
  0009b	50		 push	 eax
  0009c	8b ce		 mov	 ecx, esi
  0009e	ff 52 2c	 call	 DWORD PTR [edx+44]

; 513  : 
; 514  : 	m_fAngX = vAxis.x;

  000a1	8b 4c 24 18	 mov	 ecx, DWORD PTR _vAxis$[esp+36]

; 515  : 	m_fAngZ = vAxis.z;

  000a5	8b 54 24 20	 mov	 edx, DWORD PTR _vAxis$[esp+44]

; 516  : 	
; 517  : 	InitProp( FALSE );		// FALSE - AI설정안함  SetAIInterface( pProp->dwAI );

  000a9	8b 07		 mov	 eax, DWORD PTR [edi]
  000ab	89 4f 1c	 mov	 DWORD PTR [edi+28], ecx
  000ae	6a 00		 push	 0
  000b0	8b cf		 mov	 ecx, edi
  000b2	89 57 20	 mov	 DWORD PTR [edi+32], edx
  000b5	ff 50 10	 call	 DWORD PTR [eax+16]

; 518  : 	if( m_dwType == OT_MOVER )

  000b8	83 7d 00 05	 cmp	 DWORD PTR [ebp], 5
  000bc	75 1b		 jne	 SHORT $L226359

; 519  : 	{
; 520  : 		((CMover* )this)->m_dwMotion = dwMotion;

  000be	8b 4c 24 28	 mov	 ecx, DWORD PTR _dwMotion$[esp+32]

; 521  : 	#ifdef __WORLDSERVER
; 522  : 		SetAIInterface( dwAIIntreface, dwAI2 );

  000c2	8b 54 24 10	 mov	 edx, DWORD PTR _dwAI2$[esp+36]
  000c6	8b 44 24 14	 mov	 eax, DWORD PTR _dwAIIntreface$[esp+36]
  000ca	52		 push	 edx
  000cb	89 8f dc 02 00
	00		 mov	 DWORD PTR [edi+732], ecx
  000d1	50		 push	 eax
  000d2	8b cf		 mov	 ecx, edi
  000d4	e8 00 00 00 00	 call	 ?SetAIInterface@CObj@@QAEXKK@Z ; CObj::SetAIInterface
$L226359:

; 523  : 	#endif 
; 524  : 	}
; 525  : 
; 526  : 	// 비율 적용을 위해서 읽을 때 복원한다. 이는 MPU를 바꿔을 때 오브젝트들이
; 527  : 	// 바뀐 맵이 좌표 비율이 재조정되게 하기 위한 것이다. 오즉 디스크 저장시에만 필요하다.
; 528  : 
; 529  : 	// gmpbigsun : 이미만들어진 맵에 대해서 비율적용의 꿈을 접자 위에서 말한대로 원본스케일까지 제대로 구현하지 않을꺼면 ...말이다.
; 530  : 	//				이제 툴에서 절대상수 OLD_MPU로 나눈값을 단순히 원본으로 복구한다.
; 531  : 	m_vPos.x	*= FLOAT( OLD_MPU );

  000d9	db 05 00 00 00
	00		 fild	 DWORD PTR ?OLD_MPU@@3HB	; OLD_MPU

; 532  : 	m_vPos.z	*= FLOAT( OLD_MPU );
; 533  : 
; 534  : #ifdef __WORLDSERVER
; 535  : 	m_vLink		= m_vPos;

  000df	81 c7 ac 01 00
	00		 add	 edi, 428		; 000001acH
  000e5	d8 0b		 fmul	 DWORD PTR [ebx]
  000e7	d9 1b		 fstp	 DWORD PTR [ebx]
  000e9	db 05 00 00 00
	00		 fild	 DWORD PTR ?OLD_MPU@@3HB	; OLD_MPU
  000ef	d8 4f bc	 fmul	 DWORD PTR [edi-68]
  000f2	d9 5f bc	 fstp	 DWORD PTR [edi-68]
  000f5	8b 0b		 mov	 ecx, DWORD PTR [ebx]
  000f7	8b 53 04	 mov	 edx, DWORD PTR [ebx+4]
  000fa	8b 43 08	 mov	 eax, DWORD PTR [ebx+8]
  000fd	89 0f		 mov	 DWORD PTR [edi], ecx
  000ff	89 57 04	 mov	 DWORD PTR [edi+4], edx
  00102	89 47 08	 mov	 DWORD PTR [edi+8], eax
  00105	5f		 pop	 edi
  00106	5e		 pop	 esi
  00107	5d		 pop	 ebp

; 536  : #endif	// __WORLDSERVER
; 537  : 
; 538  : 	return TRUE;

  00108	b8 01 00 00 00	 mov	 eax, 1
  0010d	5b		 pop	 ebx

; 539  : }

  0010e	83 c4 14	 add	 esp, 20			; 00000014H
  00111	c2 04 00	 ret	 4
?Read@CObj@@UAEHPAVCFileIO@@@Z ENDP			; CObj::Read
_TEXT	ENDS
PUBLIC	?GetRadiusXZ@CObj@@QAEMXZ			; CObj::GetRadiusXZ
PUBLIC	__real@3f000000
;	COMDAT __real@3f000000
; File c:\program files\microsoft visual studio .net 2003\vc7\include\math.h
CONST	SEGMENT
__real@3f000000 DD 03f000000r			; 0.5
; Function compile flags: /Ogty
; File c:\documents and settings\test\mes documents\source\virtuos_v17\build\program\_common\obj.cpp
CONST	ENDS
;	COMDAT ?GetRadiusXZ@CObj@@QAEMXZ
_TEXT	SEGMENT
?GetRadiusXZ@CObj@@QAEMXZ PROC NEAR			; CObj::GetRadiusXZ, COMDAT
; _this$ = ecx

; 790  : 	float	fLenX = fabs(m_pModel->m_vMax.x - m_pModel->m_vMin.x);
; 791  : 	float	fLenZ = fabs(m_pModel->m_vMax.z - m_pModel->m_vMin.z);

  00000	8b 81 78 01 00
	00		 mov	 eax, DWORD PTR [ecx+376]
  00006	8b d0		 mov	 edx, eax
  00008	d9 82 84 00 00
	00		 fld	 DWORD PTR [edx+132]
  0000e	d8 62 78	 fsub	 DWORD PTR [edx+120]
  00011	d9 e1		 fabs
  00013	d9 80 8c 00 00
	00		 fld	 DWORD PTR [eax+140]
  00019	d8 a0 80 00 00
	00		 fsub	 DWORD PTR [eax+128]

; 792  : 	
; 793  : 	float	fRadius = ((fLenX + fLenZ) / 2.0f) / 2.0f;		// this(Dest)모델의 평균(!) 반지름.

  0001f	d9 e1		 fabs

; 794  : 	fRadius *= m_vScale.x;		// 스케일 조정.
; 795  : 	
; 796  : 	return fRadius;

  00021	d9 c9		 fxch	 ST(1)
  00023	d9 c9		 fxch	 ST(1)
  00025	de c1		 faddp	 ST(1), ST(0)
  00027	d8 0d 00 00 00
	00		 fmul	 DWORD PTR __real@3f000000
  0002d	d8 0d 00 00 00
	00		 fmul	 DWORD PTR __real@3f000000
  00033	d8 49 0c	 fmul	 DWORD PTR [ecx+12]

; 797  : }

  00036	c3		 ret	 0
?GetRadiusXZ@CObj@@QAEMXZ ENDP				; CObj::GetRadiusXZ
_TEXT	ENDS
PUBLIC	?GetRadius@CObj@@QAEMXZ				; CObj::GetRadius
; Function compile flags: /Ogty
;	COMDAT ?GetRadius@CObj@@QAEMXZ
_TEXT	SEGMENT
tv244 = -4						; size = 4
?GetRadius@CObj@@QAEMXZ PROC NEAR			; CObj::GetRadius, COMDAT
; _this$ = ecx

; 803  : {

  00000	51		 push	 ecx

; 804  : 	float fRadius = fabs(m_pModel->m_vMax.x - m_pModel->m_vMin.x);

  00001	8b 81 78 01 00
	00		 mov	 eax, DWORD PTR [ecx+376]
  00007	d9 80 84 00 00
	00		 fld	 DWORD PTR [eax+132]

; 805  : 	fRadius      += fabs(m_pModel->m_vMax.y - m_pModel->m_vMin.y);

  0000d	8b d0		 mov	 edx, eax
  0000f	d8 60 78	 fsub	 DWORD PTR [eax+120]
  00012	56		 push	 esi

; 806  : 	fRadius      += fabs(m_pModel->m_vMax.z - m_pModel->m_vMin.z);

  00013	8b f0		 mov	 esi, eax
  00015	d9 e1		 fabs
  00017	d9 82 88 00 00
	00		 fld	 DWORD PTR [edx+136]
  0001d	d8 62 7c	 fsub	 DWORD PTR [edx+124]
  00020	d9 e1		 fabs

; 807  : 	
; 808  : 	fRadius *= INV_6;			// 3면 평균의 반이 반지름 = ((x + y + z) / 3.0f) / 2.0f 
; 809  : 	fRadius *= m_vScale.x;		// 스케일 조정.
; 810  : 
; 811  : 	return fRadius;

  00022	d9 c9		 fxch	 ST(1)
  00024	d9 c9		 fxch	 ST(1)
  00026	de c1		 faddp	 ST(1), ST(0)
  00028	d9 86 8c 00 00
	00		 fld	 DWORD PTR [esi+140]
  0002e	d8 a6 80 00 00
	00		 fsub	 DWORD PTR [esi+128]
  00034	5e		 pop	 esi
  00035	d9 e1		 fabs
  00037	d9 14 24	 fst	 DWORD PTR tv244[esp+4]
  0003a	de c1		 faddp	 ST(1), ST(0)
  0003c	d8 0d 00 00 00
	00		 fmul	 DWORD PTR _INV_6
  00042	d8 49 0c	 fmul	 DWORD PTR [ecx+12]

; 812  : }

  00045	59		 pop	 ecx
  00046	c3		 ret	 0
?GetRadius@CObj@@QAEMXZ ENDP				; CObj::GetRadius
_TEXT	ENDS
PUBLIC	?IsRangeObj@CObj@@QAEHPAV1@M@Z			; CObj::IsRangeObj
PUBLIC	__real@3f4ccccd
;	COMDAT __real@3f4ccccd
; File c:\documents and settings\test\mes documents\source\virtuos_v17\build\program\dx_sdk\d3dx9math.inl
CONST	SEGMENT
__real@3f4ccccd DD 03f4ccccdr			; 0.8
; Function compile flags: /Ogty
; File c:\documents and settings\test\mes documents\source\virtuos_v17\build\program\_common\obj.cpp
CONST	ENDS
;	COMDAT ?IsRangeObj@CObj@@QAEHPAV1@M@Z
_TEXT	SEGMENT
$T228187 = -24						; size = 12
$T228188 = -12						; size = 12
tv453 = 8						; size = 4
_pOther$ = 8						; size = 4
tv450 = 12						; size = 4
tv447 = 12						; size = 4
tv444 = 12						; size = 4
_fRange$ = 12						; size = 4
?IsRangeObj@CObj@@QAEHPAV1@M@Z PROC NEAR		; CObj::IsRangeObj, COMDAT
; _this$ = ecx

; 817  : 	if( m_pModel == NULL )	

  00000	8b 81 78 01 00
	00		 mov	 eax, DWORD PTR [ecx+376]
  00006	83 ec 18	 sub	 esp, 24			; 00000018H
  00009	85 c0		 test	 eax, eax

; 818  : 		return FALSE;

  0000b	0f 84 41 01 00
	00		 je	 $L226530

; 819  : 
; 820  : 	if( fRange == 0.0f )

  00011	d9 05 00 00 00
	00		 fld	 DWORD PTR __real@00000000
  00017	d9 44 24 20	 fld	 DWORD PTR _fRange$[esp+20]
  0001b	da e9		 fucompp
  0001d	df e0		 fnstsw	 ax
  0001f	f6 c4 44	 test	 ah, 68			; 00000044H
  00022	7a 08		 jp	 SHORT $L226522

; 821  : 		fRange = 1.0f;		

  00024	c7 44 24 20 00
	00 80 3f	 mov	 DWORD PTR _fRange$[esp+20], 1065353216 ; 3f800000H
$L226522:

; 822  : 
; 823  : 	float fRadius = GetRadius();
; 824  : 	fRadius *= 0.8f;							// 삼면 평균으로만 하니까 넘 커서 조금 줄였다.
; 825  : 
; 826  : 	float fOther = pOther->GetRadius();

  0002c	8b 44 24 1c	 mov	 eax, DWORD PTR _pOther$[esp+20]
  00030	8b 90 78 01 00
	00		 mov	 edx, DWORD PTR [eax+376]
  00036	d9 82 84 00 00
	00		 fld	 DWORD PTR [edx+132]
  0003c	53		 push	 ebx
  0003d	d8 62 78	 fsub	 DWORD PTR [edx+120]
  00040	55		 push	 ebp
  00041	56		 push	 esi
  00042	8b f2		 mov	 esi, edx
  00044	d9 e1		 fabs
  00046	d9 86 88 00 00
	00		 fld	 DWORD PTR [esi+136]
  0004c	d8 66 7c	 fsub	 DWORD PTR [esi+124]
  0004f	8b 99 78 01 00
	00		 mov	 ebx, DWORD PTR [ecx+376]
  00055	57		 push	 edi
  00056	8b fa		 mov	 edi, edx
  00058	d9 e1		 fabs

; 827  : 	fOther *= 0.8f;								// 삼면 평균으로만 하니까 넘 커서 조금 줄였다.
; 828  : 
; 829  : 	fRadius += (fOther + fRange);

  0005a	d9 c9		 fxch	 ST(1)
  0005c	d9 c9		 fxch	 ST(1)
  0005e	8b d3		 mov	 edx, ebx
  00060	de c1		 faddp	 ST(1), ST(0)
  00062	d9 87 8c 00 00
	00		 fld	 DWORD PTR [edi+140]
  00068	8b eb		 mov	 ebp, ebx
  0006a	d8 a7 80 00 00
	00		 fsub	 DWORD PTR [edi+128]

; 830  : 
; 831  : 	D3DXVECTOR3 vDist = GetPos() - pOther->GetPos();	// 두좌표간 벡터

  00070	05 60 01 00 00	 add	 eax, 352		; 00000160H
  00075	d9 e1		 fabs
  00077	d9 54 24 2c	 fst	 DWORD PTR tv453[esp+36]
  0007b	de c1		 faddp	 ST(1), ST(0)
  0007d	d8 0d 00 00 00
	00		 fmul	 DWORD PTR _INV_6
  00083	d8 88 ac fe ff
	ff		 fmul	 DWORD PTR [eax-340]
  00089	d8 0d 00 00 00
	00		 fmul	 DWORD PTR __real@3f4ccccd
  0008f	d8 44 24 30	 fadd	 DWORD PTR _fRange$[esp+36]
  00093	d9 83 84 00 00
	00		 fld	 DWORD PTR [ebx+132]
  00099	d8 63 78	 fsub	 DWORD PTR [ebx+120]
  0009c	d9 e1		 fabs
  0009e	d9 54 24 30	 fst	 DWORD PTR tv450[esp+36]
  000a2	d9 82 88 00 00
	00		 fld	 DWORD PTR [edx+136]
  000a8	d8 62 7c	 fsub	 DWORD PTR [edx+124]
  000ab	8b 10		 mov	 edx, DWORD PTR [eax]
  000ad	89 54 24 1c	 mov	 DWORD PTR $T228188[esp+40], edx
  000b1	d9 e1		 fabs
  000b3	d9 54 24 30	 fst	 DWORD PTR tv447[esp+36]
  000b7	de c1		 faddp	 ST(1), ST(0)
  000b9	d9 85 8c 00 00
	00		 fld	 DWORD PTR [ebp+140]
  000bf	d8 a5 80 00 00
	00		 fsub	 DWORD PTR [ebp+128]
  000c5	d9 e1		 fabs
  000c7	d9 54 24 30	 fst	 DWORD PTR tv444[esp+36]
  000cb	de c1		 faddp	 ST(1), ST(0)
  000cd	d8 0d 00 00 00
	00		 fmul	 DWORD PTR _INV_6
  000d3	d8 49 0c	 fmul	 DWORD PTR [ecx+12]
  000d6	d8 0d 00 00 00
	00		 fmul	 DWORD PTR __real@3f4ccccd
  000dc	de c1		 faddp	 ST(1), ST(0)
  000de	8b 50 04	 mov	 edx, DWORD PTR [eax+4]
  000e1	8b 40 08	 mov	 eax, DWORD PTR [eax+8]
  000e4	81 c1 60 01 00
	00		 add	 ecx, 352		; 00000160H
  000ea	89 54 24 20	 mov	 DWORD PTR $T228188[esp+44], edx
  000ee	8b 11		 mov	 edx, DWORD PTR [ecx]
  000f0	89 44 24 24	 mov	 DWORD PTR $T228188[esp+48], eax
  000f4	8b 41 04	 mov	 eax, DWORD PTR [ecx+4]
  000f7	8b 49 08	 mov	 ecx, DWORD PTR [ecx+8]
  000fa	89 54 24 10	 mov	 DWORD PTR $T228187[esp+40], edx
  000fe	d9 44 24 10	 fld	 DWORD PTR $T228187[esp+40]
  00102	d8 64 24 1c	 fsub	 DWORD PTR $T228188[esp+40]
  00106	89 44 24 14	 mov	 DWORD PTR $T228187[esp+44], eax
  0010a	d9 44 24 14	 fld	 DWORD PTR $T228187[esp+44]
  0010e	89 4c 24 18	 mov	 DWORD PTR $T228187[esp+48], ecx
  00112	d8 64 24 20	 fsub	 DWORD PTR $T228188[esp+44]
  00116	5f		 pop	 edi
  00117	d9 44 24 14	 fld	 DWORD PTR $T228187[esp+44]
  0011b	5e		 pop	 esi
  0011c	d8 64 24 1c	 fsub	 DWORD PTR $T228188[esp+40]
  00120	5d		 pop	 ebp
  00121	5b		 pop	 ebx

; 832  : 	float fDistSq = D3DXVec3LengthSq( &vDist );			// 두오브젝트간의 거리Sq

  00122	d9 c0		 fld	 ST(0)
  00124	d8 c9		 fmul	 ST(0), ST(1)
  00126	d9 c2		 fld	 ST(2)
  00128	d8 cb		 fmul	 ST(0), ST(3)

; 836  : 	
; 837  : 	return FALSE;

  0012a	de c1		 faddp	 ST(1), ST(0)
  0012c	d9 c3		 fld	 ST(3)
  0012e	d8 cc		 fmul	 ST(0), ST(4)
  00130	de c1		 faddp	 ST(1), ST(0)
  00132	d9 c4		 fld	 ST(4)
  00134	d8 cd		 fmul	 ST(0), ST(5)
  00136	de d9		 fcompp
  00138	dd d8		 fstp	 ST(0)
  0013a	dd d8		 fstp	 ST(0)
  0013c	df e0		 fnstsw	 ax
  0013e	dd d8		 fstp	 ST(0)
  00140	f6 c4 41	 test	 ah, 65			; 00000041H
  00143	dd d8		 fstp	 ST(0)
  00145	75 0b		 jne	 SHORT $L226530

; 833  : 	
; 834  : 	if( fDistSq < (fRadius * fRadius) )					// 두점간의 거리가 범위보다 작으면 충돌
; 835  : 		return TRUE;

  00147	b8 01 00 00 00	 mov	 eax, 1

; 838  : }

  0014c	83 c4 18	 add	 esp, 24			; 00000018H
  0014f	c2 08 00	 ret	 8
$L226530:

; 836  : 	
; 837  : 	return FALSE;

  00152	33 c0		 xor	 eax, eax

; 838  : }

  00154	83 c4 18	 add	 esp, 24			; 00000018H
  00157	c2 08 00	 ret	 8
?IsRangeObj@CObj@@QAEHPAV1@M@Z ENDP			; CObj::IsRangeObj
_TEXT	ENDS
PUBLIC	?IsRangeObj@CObj@@QAEHABUD3DXVECTOR3@@M@Z	; CObj::IsRangeObj
; Function compile flags: /Ogty
;	COMDAT ?IsRangeObj@CObj@@QAEHABUD3DXVECTOR3@@M@Z
_TEXT	SEGMENT
tv313 = -16						; size = 4
$T228300 = -12						; size = 12
_vDest$ = 8						; size = 4
_fRange$ = 12						; size = 4
?IsRangeObj@CObj@@QAEHABUD3DXVECTOR3@@M@Z PROC NEAR	; CObj::IsRangeObj, COMDAT
; _this$ = ecx

; 845  : 	if( m_pModel == NULL )	return FALSE;

  00000	8b 81 78 01 00
	00		 mov	 eax, DWORD PTR [ecx+376]
  00006	83 ec 10	 sub	 esp, 16			; 00000010H
  00009	85 c0		 test	 eax, eax
  0000b	0f 84 b3 00 00
	00		 je	 $L226543

; 846  : 
; 847  : 	float	fRadius = 1.0f;
; 848  : 	fRadius *= 0.8f;							// 삼면 평균으로만 하니까 넘 커서 조금 줄였다.
; 849  : 
; 850  : 	float fRadiusSrc = GetRadius();

  00011	d9 80 84 00 00
	00		 fld	 DWORD PTR [eax+132]
  00017	8b d0		 mov	 edx, eax
  00019	d8 60 78	 fsub	 DWORD PTR [eax+120]
  0001c	56		 push	 esi
  0001d	8b f0		 mov	 esi, eax

; 851  : 	fRadiusSrc *= 0.8f;	
; 852  : 
; 853  : 	fRadiusSrc += fRange;						// pSrc측반지름에다 m_nArrivalRange를 더함.
; 854  : 	fRadius += fRadiusSrc;
; 855  : 	
; 856  : 	D3DXVECTOR3 vDist = vDest - GetPos();				// 두좌표간 벡터

  0001f	81 c1 60 01 00
	00		 add	 ecx, 352		; 00000160H
  00025	d9 e1		 fabs
  00027	d9 82 88 00 00
	00		 fld	 DWORD PTR [edx+136]
  0002d	d8 62 7c	 fsub	 DWORD PTR [edx+124]
  00030	d9 e1		 fabs
  00032	d9 c9		 fxch	 ST(1)
  00034	d9 c9		 fxch	 ST(1)
  00036	de c1		 faddp	 ST(1), ST(0)
  00038	d9 86 8c 00 00
	00		 fld	 DWORD PTR [esi+140]
  0003e	d8 a6 80 00 00
	00		 fsub	 DWORD PTR [esi+128]
  00044	5e		 pop	 esi
  00045	d9 e1		 fabs
  00047	d9 14 24	 fst	 DWORD PTR tv313[esp+16]
  0004a	de c1		 faddp	 ST(1), ST(0)
  0004c	d8 0d 00 00 00
	00		 fmul	 DWORD PTR _INV_6
  00052	d8 89 ac fe ff
	ff		 fmul	 DWORD PTR [ecx-340]
  00058	8b 01		 mov	 eax, DWORD PTR [ecx]
  0005a	8b 51 04	 mov	 edx, DWORD PTR [ecx+4]
  0005d	d8 0d 00 00 00
	00		 fmul	 DWORD PTR __real@3f4ccccd
  00063	89 44 24 04	 mov	 DWORD PTR $T228300[esp+16], eax
  00067	8b 41 08	 mov	 eax, DWORD PTR [ecx+8]
  0006a	d8 44 24 18	 fadd	 DWORD PTR _fRange$[esp+12]
  0006e	89 44 24 0c	 mov	 DWORD PTR $T228300[esp+24], eax
  00072	8b 44 24 14	 mov	 eax, DWORD PTR _vDest$[esp+12]
  00076	d8 05 00 00 00
	00		 fadd	 DWORD PTR __real@3f4ccccd
  0007c	d9 00		 fld	 DWORD PTR [eax]
  0007e	89 54 24 08	 mov	 DWORD PTR $T228300[esp+20], edx
  00082	d8 64 24 04	 fsub	 DWORD PTR $T228300[esp+16]
  00086	d9 40 04	 fld	 DWORD PTR [eax+4]
  00089	d8 64 24 08	 fsub	 DWORD PTR $T228300[esp+20]
  0008d	d9 40 08	 fld	 DWORD PTR [eax+8]
  00090	d8 64 24 0c	 fsub	 DWORD PTR $T228300[esp+24]

; 857  : 	float fDistSq = D3DXVec3LengthSq( &vDist );			// 두오브젝트간의 거리Sq

  00094	d9 c0		 fld	 ST(0)
  00096	d8 c9		 fmul	 ST(0), ST(1)
  00098	d9 c2		 fld	 ST(2)
  0009a	d8 cb		 fmul	 ST(0), ST(3)

; 861  : 	
; 862  : 	return FALSE;

  0009c	de c1		 faddp	 ST(1), ST(0)
  0009e	d9 c3		 fld	 ST(3)
  000a0	d8 cc		 fmul	 ST(0), ST(4)
  000a2	de c1		 faddp	 ST(1), ST(0)
  000a4	d9 c4		 fld	 ST(4)
  000a6	d8 cd		 fmul	 ST(0), ST(5)
  000a8	de d9		 fcompp
  000aa	dd d8		 fstp	 ST(0)
  000ac	dd d8		 fstp	 ST(0)
  000ae	df e0		 fnstsw	 ax
  000b0	dd d8		 fstp	 ST(0)
  000b2	f6 c4 41	 test	 ah, 65			; 00000041H
  000b5	dd d8		 fstp	 ST(0)
  000b7	75 0b		 jne	 SHORT $L226543

; 858  : 	
; 859  : 	if( fDistSq < fRadius * fRadius )					// 두점간의 거리가 범위보다 작으면 충돌
; 860  : 		return TRUE;

  000b9	b8 01 00 00 00	 mov	 eax, 1

; 863  : }

  000be	83 c4 10	 add	 esp, 16			; 00000010H
  000c1	c2 08 00	 ret	 8
$L226543:

; 861  : 	
; 862  : 	return FALSE;

  000c4	33 c0		 xor	 eax, eax

; 863  : }

  000c6	83 c4 10	 add	 esp, 16			; 00000010H
  000c9	c2 08 00	 ret	 8
?IsRangeObj@CObj@@QAEHABUD3DXVECTOR3@@M@Z ENDP		; CObj::IsRangeObj
_TEXT	ENDS
PUBLIC	?GetLinkType@CObj@@QAEKXZ			; CObj::GetLinkType
; Function compile flags: /Ogty
;	COMDAT ?GetLinkType@CObj@@QAEKXZ
_TEXT	SEGMENT
?GetLinkType@CObj@@QAEKXZ PROC NEAR			; CObj::GetLinkType, COMDAT
; _this$ = ecx

; 960  : 	switch( m_dwType )

  00000	8b 81 70 01 00
	00		 mov	 eax, DWORD PTR [ecx+368]
  00006	83 f8 07	 cmp	 eax, 7
  00009	77 25		 ja	 SHORT $L226553
  0000b	ff 24 85 00 00
	00 00		 jmp	 DWORD PTR $L228368[eax*4]
$L226556:

; 961  : 	{
; 962  : 		case OT_OBJ:
; 963  : 			return CObj::linkStatic;

  00012	33 c0		 xor	 eax, eax

; 976  : }

  00014	c3		 ret	 0
$L226557:

; 964  : 		case OT_SHIP:
; 965  : 			return CObj::linkAirShip;

  00015	b8 03 00 00 00	 mov	 eax, 3

; 976  : }

  0001a	c3		 ret	 0
$L226558:

; 966  : 		case OT_MOVER:
; 967  : 			if( ( (CMover*)this )->IsPlayer() == TRUE )

  0001b	83 b9 34 02 00
	00 01		 cmp	 DWORD PTR [ecx+564], 1
  00022	75 06		 jne	 SHORT $L226560

; 968  : 				return CObj::linkPlayer;

  00024	b8 02 00 00 00	 mov	 eax, 2

; 976  : }

  00029	c3		 ret	 0
$L226560:

; 969  : 		case OT_CTRL:
; 970  : 		case OT_SFX:
; 971  : 		case OT_ITEM:
; 972  : 			return CObj::linkDynamic;

  0002a	b8 01 00 00 00	 mov	 eax, 1

; 976  : }

  0002f	c3		 ret	 0
$L226553:

; 973  : 	}
; 974  : 	ASSERT( 0 );
; 975  : 	return( -1 );

  00030	83 c8 ff	 or	 eax, -1

; 976  : }

  00033	c3		 ret	 0
$L228368:
  00034	00 00 00 00	 DD	 $L226556
  00038	00 00 00 00	 DD	 $L226553
  0003c	00 00 00 00	 DD	 $L226560
  00040	00 00 00 00	 DD	 $L226560
  00044	00 00 00 00	 DD	 $L226560
  00048	00 00 00 00	 DD	 $L226558
  0004c	00 00 00 00	 DD	 $L226553
  00050	00 00 00 00	 DD	 $L226557
?GetLinkType@CObj@@QAEKXZ ENDP				; CObj::GetLinkType
_TEXT	ENDS
PUBLIC	?CalcLinkLevel@CObj@@AAEXXZ			; CObj::CalcLinkLevel
EXTRN	_D3DXVec3Transform@12:NEAR
EXTRN	?CalcLinkLevel@CLayeredLinkMap@@QAEKPAVCObj@@MH@Z:NEAR ; CLayeredLinkMap::CalcLinkLevel
; Function compile flags: /Ogty
;	COMDAT ?CalcLinkLevel@CObj@@AAEXXZ
_TEXT	SEGMENT
tv211 = -100						; size = 4
_fThisWidth$ = -100					; size = 4
_vMax$226583 = -96					; size = 16
_vMin$226582 = -80					; size = 16
_mWorld$226580 = -64					; size = 64
?CalcLinkLevel@CObj@@AAEXXZ PROC NEAR			; CObj::CalcLinkLevel, COMDAT
; _this$ = ecx

; 996  : {

  00000	83 ec 64	 sub	 esp, 100		; 00000064H
  00003	53		 push	 ebx
  00004	8b d9		 mov	 ebx, ecx
  00006	55		 push	 ebp

; 997  : 	if( m_pModel == NULL )		// 스킬에서 쓰는 가상오브젝트때문에 모델이 없는 오브젝트도 생겼다.

  00007	8b ab 78 01 00
	00		 mov	 ebp, DWORD PTR [ebx+376]
  0000d	85 ed		 test	 ebp, ebp
  0000f	75 09		 jne	 SHORT $L226577

; 998  : 	{
; 999  : 		m_dwLinkLevel = 0;

  00011	89 6b 08	 mov	 DWORD PTR [ebx+8], ebp
  00014	5d		 pop	 ebp
  00015	5b		 pop	 ebx

; 1017 : 	#else	// __LAYER_1015
; 1018 : 		m_dwLinkLevel = m_pWorld->m_linkMap.CalcLinkLevel( this, fThisWidth );
; 1019 : 	#endif	// __LAYER_1015
; 1020 : #else
; 1021 : 
; 1022 : 	int nWidthLink, nWidthPerGrid;
; 1023 : 	nWidthLink	= MAP_SIZE * 2;
; 1024 : 	for( int i = 0; i < MAX_LINKLEVEL; i++ )
; 1025 : 	{
; 1026 : 		// 16	// 8	// 4	// 2	// 1	// 1	-	// 32	// 64	// 128	// 256	// 512	// 1024
; 1027 : 		// 128	// 64	// 32	// 16	-	// 4	// 8	// 16	// 32
; 1028 : 		nWidthLink	/= 2;
; 1029 : 		if( nWidthLink == 0 )	
; 1030 : 			nWidthLink	= 1;
; 1031 : 
; 1032 : 		nWidthPerGrid	= MAP_SIZE * MPU / nWidthLink;
; 1033 : 		if( fThisWidth < (float)nWidthPerGrid )
; 1034 : 			break;
; 1035 : 	}
; 1036 : 
; 1037 : 	if( i == MAX_LINKLEVEL )
; 1038 : 		i = MAX_LINKLEVEL - 1;
; 1039 : 
; 1040 : 	m_dwLinkLevel	= i;
; 1041 : #endif // !__WORLDSERVER
; 1042 : }

  00016	83 c4 64	 add	 esp, 100		; 00000064H
  00019	c3		 ret	 0
$L226577:

; 1000 : 		return;
; 1001 : 	}
; 1002 : 
; 1003 : 	float fThisWidth = 0.0f;
; 1004 : 	if( m_pModel->IsNullBoundBox() == FALSE )

  0001a	8b cd		 mov	 ecx, ebp
  0001c	c7 44 24 08 00
	00 00 00	 mov	 DWORD PTR _fThisWidth$[esp+108], 0
  00024	e8 00 00 00 00	 call	 ?IsNullBoundBox@CModel@@QAEHXZ ; CModel::IsNullBoundBox
  00029	85 c0		 test	 eax, eax
  0002b	75 7a		 jne	 SHORT $L226579
  0002d	56		 push	 esi
  0002e	57		 push	 edi

; 1005 : 	{
; 1006 : 		D3DXMATRIX mWorld = GetMatrixWorld();
; 1007 : 		D3DXVECTOR4 vMin, vMax;
; 1008 : 		D3DXVec3Transform( &vMin, &m_pModel->m_vMin, &mWorld );	

  0002f	8d 44 24 34	 lea	 eax, DWORD PTR _mWorld$226580[esp+116]
  00033	50		 push	 eax
  00034	8d b3 e4 00 00
	00		 lea	 esi, DWORD PTR [ebx+228]
  0003a	b9 10 00 00 00	 mov	 ecx, 16			; 00000010H
  0003f	8d 7c 24 38	 lea	 edi, DWORD PTR _mWorld$226580[esp+120]
  00043	f3 a5		 rep movsd
  00045	83 c5 78	 add	 ebp, 120		; 00000078H
  00048	55		 push	 ebp
  00049	8d 4c 24 2c	 lea	 ecx, DWORD PTR _vMin$226582[esp+124]
  0004d	51		 push	 ecx
  0004e	e8 00 00 00 00	 call	 _D3DXVec3Transform@12

; 1009 : 		D3DXVec3Transform( &vMax, &m_pModel->m_vMax, &mWorld );	

  00053	8b 83 78 01 00
	00		 mov	 eax, DWORD PTR [ebx+376]
  00059	8d 54 24 34	 lea	 edx, DWORD PTR _mWorld$226580[esp+116]
  0005d	52		 push	 edx
  0005e	05 84 00 00 00	 add	 eax, 132		; 00000084H
  00063	50		 push	 eax
  00064	8d 4c 24 1c	 lea	 ecx, DWORD PTR _vMax$226583[esp+124]
  00068	51		 push	 ecx
  00069	e8 00 00 00 00	 call	 _D3DXVec3Transform@12

; 1010 : 		fThisWidth =( fabs(vMax.x - vMin.x) > fabs(vMax.z - vMin.z) ) ? vMax.x - vMin.x : vMax.z - vMin.z; 

  0006e	d9 44 24 14	 fld	 DWORD PTR _vMax$226583[esp+116]
  00072	5f		 pop	 edi
  00073	d8 64 24 20	 fsub	 DWORD PTR _vMin$226582[esp+112]
  00077	5e		 pop	 esi
  00078	d9 44 24 14	 fld	 DWORD PTR _vMax$226583[esp+116]
  0007c	d8 64 24 24	 fsub	 DWORD PTR _vMin$226582[esp+116]
  00080	d9 5c 24 08	 fstp	 DWORD PTR tv211[esp+108]
  00084	d9 c0		 fld	 ST(0)
  00086	d9 e1		 fabs
  00088	d9 44 24 08	 fld	 DWORD PTR tv211[esp+108]
  0008c	d9 e1		 fabs
  0008e	d9 c9		 fxch	 ST(1)
  00090	d9 c9		 fxch	 ST(1)
  00092	de d9		 fcompp
  00094	df e0		 fnstsw	 ax
  00096	f6 c4 05	 test	 ah, 5
  00099	7b 06		 jnp	 SHORT $L228373
  0009b	dd d8		 fstp	 ST(0)
  0009d	d9 44 24 08	 fld	 DWORD PTR tv211[esp+108]
$L228373:

; 1011 : 		fThisWidth = fabs( fThisWidth );

  000a1	d9 e1		 fabs
  000a3	d9 5c 24 08	 fstp	 DWORD PTR _fThisWidth$[esp+108]
$L226579:

; 1012 : 	}
; 1013 : 
; 1014 : #ifdef __WORLDSERVER
; 1015 : 	#ifdef __LAYER_1015
; 1016 : 		m_dwLinkLevel = m_pWorld->m_linkMap.CalcLinkLevel( this, fThisWidth, GetLayer() );

  000a7	8b 83 b8 01 00
	00		 mov	 eax, DWORD PTR [ebx+440]
  000ad	8b 54 24 08	 mov	 edx, DWORD PTR _fThisWidth$[esp+108]
  000b1	8b 8b 6c 01 00
	00		 mov	 ecx, DWORD PTR [ebx+364]
  000b7	50		 push	 eax
  000b8	52		 push	 edx
  000b9	53		 push	 ebx
  000ba	83 c1 24	 add	 ecx, 36			; 00000024H
  000bd	e8 00 00 00 00	 call	 ?CalcLinkLevel@CLayeredLinkMap@@QAEKPAVCObj@@MH@Z ; CLayeredLinkMap::CalcLinkLevel
  000c2	5d		 pop	 ebp
  000c3	89 43 08	 mov	 DWORD PTR [ebx+8], eax
  000c6	5b		 pop	 ebx

; 1017 : 	#else	// __LAYER_1015
; 1018 : 		m_dwLinkLevel = m_pWorld->m_linkMap.CalcLinkLevel( this, fThisWidth );
; 1019 : 	#endif	// __LAYER_1015
; 1020 : #else
; 1021 : 
; 1022 : 	int nWidthLink, nWidthPerGrid;
; 1023 : 	nWidthLink	= MAP_SIZE * 2;
; 1024 : 	for( int i = 0; i < MAX_LINKLEVEL; i++ )
; 1025 : 	{
; 1026 : 		// 16	// 8	// 4	// 2	// 1	// 1	-	// 32	// 64	// 128	// 256	// 512	// 1024
; 1027 : 		// 128	// 64	// 32	// 16	-	// 4	// 8	// 16	// 32
; 1028 : 		nWidthLink	/= 2;
; 1029 : 		if( nWidthLink == 0 )	
; 1030 : 			nWidthLink	= 1;
; 1031 : 
; 1032 : 		nWidthPerGrid	= MAP_SIZE * MPU / nWidthLink;
; 1033 : 		if( fThisWidth < (float)nWidthPerGrid )
; 1034 : 			break;
; 1035 : 	}
; 1036 : 
; 1037 : 	if( i == MAX_LINKLEVEL )
; 1038 : 		i = MAX_LINKLEVEL - 1;
; 1039 : 
; 1040 : 	m_dwLinkLevel	= i;
; 1041 : #endif // !__WORLDSERVER
; 1042 : }

  000c7	83 c4 64	 add	 esp, 100		; 00000064H
  000ca	c3		 ret	 0
?CalcLinkLevel@CObj@@AAEXXZ ENDP			; CObj::CalcLinkLevel
_TEXT	ENDS
PUBLIC	?SetUpdateMatrix@CObj@@QAEXH@Z			; CObj::SetUpdateMatrix
; Function compile flags: /Ogty
; File c:\documents and settings\test\mes documents\source\virtuos_v17\build\program\_common\obj.h
;	COMDAT ?SetUpdateMatrix@CObj@@QAEXH@Z
_TEXT	SEGMENT
_bUpdate$ = 8						; size = 4
?SetUpdateMatrix@CObj@@QAEXH@Z PROC NEAR		; CObj::SetUpdateMatrix, COMDAT
; _this$ = ecx

; 175  : 	void			SetUpdateMatrix( BOOL bUpdate ) { SetFlag( bUpdate, OBJ_FLAG_UPDATEMATRIX ); }

  00000	8b 44 24 04	 mov	 eax, DWORD PTR _bUpdate$[esp-4]
  00004	85 c0		 test	 eax, eax
  00006	8b 41 04	 mov	 eax, DWORD PTR [ecx+4]
  00009	74 09		 je	 SHORT $L228420
  0000b	83 c8 08	 or	 eax, 8
  0000e	89 41 04	 mov	 DWORD PTR [ecx+4], eax
  00011	c2 04 00	 ret	 4
$L228420:
  00014	83 e0 f7	 and	 eax, -9			; fffffff7H
  00017	89 41 04	 mov	 DWORD PTR [ecx+4], eax
  0001a	c2 04 00	 ret	 4
?SetUpdateMatrix@CObj@@QAEXH@Z ENDP			; CObj::SetUpdateMatrix
_TEXT	ENDS
PUBLIC	?SetVirtual@CObj@@QAEXH@Z			; CObj::SetVirtual
; Function compile flags: /Ogty
;	COMDAT ?SetVirtual@CObj@@QAEXH@Z
_TEXT	SEGMENT
_bUpdate$ = 8						; size = 4
?SetVirtual@CObj@@QAEXH@Z PROC NEAR			; CObj::SetVirtual, COMDAT
; _this$ = ecx

; 179  : 	void			SetVirtual( BOOL bUpdate ) { SetFlag( bUpdate, OBJ_FLAG_VIRTUAL ); }

  00000	8b 44 24 04	 mov	 eax, DWORD PTR _bUpdate$[esp-4]
  00004	85 c0		 test	 eax, eax
  00006	8b 41 04	 mov	 eax, DWORD PTR [ecx+4]
  00009	74 09		 je	 SHORT $L228429
  0000b	83 c8 04	 or	 eax, 4
  0000e	89 41 04	 mov	 DWORD PTR [ecx+4], eax
  00011	c2 04 00	 ret	 4
$L228429:
  00014	83 e0 fb	 and	 eax, -5			; fffffffbH
  00017	89 41 04	 mov	 DWORD PTR [ecx+4], eax
  0001a	c2 04 00	 ret	 4
?SetVirtual@CObj@@QAEXH@Z ENDP				; CObj::SetVirtual
_TEXT	ENDS
PUBLIC	?SetDelete@CObj@@QAEXH@Z			; CObj::SetDelete
; Function compile flags: /Ogty
;	COMDAT ?SetDelete@CObj@@QAEXH@Z
_TEXT	SEGMENT
_bUpdate$ = 8						; size = 4
?SetDelete@CObj@@QAEXH@Z PROC NEAR			; CObj::SetDelete, COMDAT
; _this$ = ecx

; 181  : 	void			SetDelete( BOOL bUpdate ) { SetFlag( bUpdate, OBJ_FLAG_DELETE ); }

  00000	8b 44 24 04	 mov	 eax, DWORD PTR _bUpdate$[esp-4]
  00004	85 c0		 test	 eax, eax
  00006	8b 41 04	 mov	 eax, DWORD PTR [ecx+4]
  00009	74 09		 je	 SHORT $L228438
  0000b	83 c8 01	 or	 eax, 1
  0000e	89 41 04	 mov	 DWORD PTR [ecx+4], eax
  00011	c2 04 00	 ret	 4
$L228438:
  00014	83 e0 fe	 and	 eax, -2			; fffffffeH
  00017	89 41 04	 mov	 DWORD PTR [ecx+4], eax
  0001a	c2 04 00	 ret	 4
?SetDelete@CObj@@QAEXH@Z ENDP				; CObj::SetDelete
_TEXT	ENDS
PUBLIC	?SetPosChanged@CObj@@QAEXH@Z			; CObj::SetPosChanged
; Function compile flags: /Ogty
;	COMDAT ?SetPosChanged@CObj@@QAEXH@Z
_TEXT	SEGMENT
_bUpdate$ = 8						; size = 4
?SetPosChanged@CObj@@QAEXH@Z PROC NEAR			; CObj::SetPosChanged, COMDAT
; _this$ = ecx

; 183  : 	void			SetPosChanged( BOOL bUpdate) { SetFlag( bUpdate, OBJ_FLAG_POSCHANGED ); }

  00000	8b 44 24 04	 mov	 eax, DWORD PTR _bUpdate$[esp-4]
  00004	85 c0		 test	 eax, eax
  00006	8b 41 04	 mov	 eax, DWORD PTR [ecx+4]
  00009	74 09		 je	 SHORT $L228447
  0000b	83 c8 10	 or	 eax, 16			; 00000010H
  0000e	89 41 04	 mov	 DWORD PTR [ecx+4], eax
  00011	c2 04 00	 ret	 4
$L228447:
  00014	83 e0 ef	 and	 eax, -17		; ffffffefH
  00017	89 41 04	 mov	 DWORD PTR [ecx+4], eax
  0001a	c2 04 00	 ret	 4
?SetPosChanged@CObj@@QAEXH@Z ENDP			; CObj::SetPosChanged
_TEXT	ENDS
PUBLIC	??0CObj@@QAE@XZ					; CObj::CObj
PUBLIC	__real@3c8efa35
EXTRN	_D3DXMatrixScaling@16:NEAR
EXTRN	_D3DXMatrixTranslation@16:NEAR
EXTRN	_D3DXMatrixRotationY@8:NEAR
;	COMDAT __real@3c8efa35
CONST	SEGMENT
__real@3c8efa35 DD 03c8efa35r			; 0.0174533
; Function compile flags: /Ogty
; File c:\documents and settings\test\mes documents\source\virtuos_v17\build\program\_common\obj.cpp
CONST	ENDS
;	COMDAT ??0CObj@@QAE@XZ
_TEXT	SEGMENT
$T228455 = -12						; size = 12
$T228454 = -12						; size = 12
$T228453 = -12						; size = 12
??0CObj@@QAE@XZ PROC NEAR				; CObj::CObj, COMDAT
; _this$ = ecx

; 52   : {

  00000	83 ec 0c	 sub	 esp, 12			; 0000000cH
  00003	53		 push	 ebx
  00004	55		 push	 ebp
  00005	56		 push	 esi
  00006	8b f1		 mov	 esi, ecx
  00008	57		 push	 edi
  00009	33 ff		 xor	 edi, edi

; 53   : 	m_dwType		= OT_OBJ;
; 54   : 	m_dwIndex		= 0;
; 55   : 	m_dwFlags       = 0;
; 56   : 	m_dwObjAryIdx	= 0xffffffff;
; 57   : 	m_pModel		= NULL;
; 58   : 	m_fAngle		= 0.0f;
; 59   : 	m_fAngX			= 0.0f;
; 60   : 	m_fAngZ			= 0.0f;				// Z축 각도
; 61   : 	
; 62   : 	m_vPos			= D3DXVECTOR3(0.0f,0.0f,0.0f);

  0000b	8b d7		 mov	 edx, edi
  0000d	8d 9e 60 01 00
	00		 lea	 ebx, DWORD PTR [esi+352]
  00013	8b c3		 mov	 eax, ebx
  00015	89 10		 mov	 DWORD PTR [eax], edx
  00017	89 50 04	 mov	 DWORD PTR [eax+4], edx
  0001a	89 50 08	 mov	 DWORD PTR [eax+8], edx
  0001d	83 c9 ff	 or	 ecx, -1

; 63   : 	m_vScale		= D3DXVECTOR3(1.0f,1.0f,1.0f);

  00020	8d 46 0c	 lea	 eax, DWORD PTR [esi+12]
  00023	89 7c 24 10	 mov	 DWORD PTR $T228453[esp+28], edi
  00027	8b d0		 mov	 edx, eax
  00029	89 8e 84 01 00
	00		 mov	 DWORD PTR [esi+388], ecx
  0002f	c7 44 24 10 00
	00 80 3f	 mov	 DWORD PTR $T228454[esp+28], 1065353216 ; 3f800000H
  00037	8b 6c 24 10	 mov	 ebp, DWORD PTR $T228454[esp+28]
  0003b	89 2a		 mov	 DWORD PTR [edx], ebp

; 64   : 	m_pPrev			= NULL; // 이전 노드 
; 65   : 	m_pNext			= NULL; // 다음 노드 
; 66   : 	m_pWorld		= NULL;
; 67   : 	
; 68   : 	m_dwAIInterface      = 0;
; 69   : 	m_pAIInterface	     = NULL;
; 70   : 	m_dwAIInterfaceState = 2;
; 71   : 
; 72   : #ifdef __WORLDSERVER
; 73   : 	m_dwPatrolIndex      = NULL_ID;

  0003d	89 8e 94 01 00
	00		 mov	 DWORD PTR [esi+404], ecx

; 74   : 	m_nPatrolIndexCount	 = 0;
; 75   : 	m_bPatrolCycle		 = 0;			// 전체 순환이냐? 끝->처음->끝 방향이냐
; 76   : 	m_bPatrolReverse	 = 0;		// 현재 진행방향	

  00043	8a 8e 9c 01 00
	00		 mov	 cl, BYTE PTR [esi+412]
  00049	89 7c 24 14	 mov	 DWORD PTR $T228453[esp+32], edi
  0004d	c7 44 24 14 00
	00 80 3f	 mov	 DWORD PTR $T228454[esp+32], 1065353216 ; 3f800000H
  00055	8b 6c 24 14	 mov	 ebp, DWORD PTR $T228454[esp+32]
  00059	89 6a 04	 mov	 DWORD PTR [edx+4], ebp
  0005c	80 e1 fc	 and	 cl, 252			; 000000fcH
  0005f	89 7c 24 18	 mov	 DWORD PTR $T228453[esp+36], edi
  00063	c7 44 24 18 00
	00 80 3f	 mov	 DWORD PTR $T228454[esp+36], 1065353216 ; 3f800000H
  0006b	8b 6c 24 18	 mov	 ebp, DWORD PTR $T228454[esp+36]
  0006f	89 6a 08	 mov	 DWORD PTR [edx+8], ebp

; 77   : #endif	
; 78   : 
; 79   : 	SetUpdateMatrix( TRUE );
; 80   : 	SetPosChanged( TRUE );
; 81   : 
; 82   : 	m_dwLinkLevel	= 0;
; 83   : 	SetDelete( FALSE );
; 84   : 
; 85   : 	D3DXMatrixScaling( &m_matScale, m_vScale.x, m_vScale.y, m_vScale.z );

  00072	8b 56 10	 mov	 edx, DWORD PTR [esi+16]
  00075	8b 00		 mov	 eax, DWORD PTR [eax]
  00077	88 8e 9c 01 00
	00		 mov	 BYTE PTR [esi+412], cl
  0007d	8b 4e 14	 mov	 ecx, DWORD PTR [esi+20]
  00080	51		 push	 ecx
  00081	52		 push	 edx
  00082	50		 push	 eax
  00083	8d 4e 64	 lea	 ecx, DWORD PTR [esi+100]
  00086	51		 push	 ecx
  00087	c7 06 00 00 00
	00		 mov	 DWORD PTR [esi], OFFSET FLAT:??_7CObj@@6B@
  0008d	89 be b8 01 00
	00		 mov	 DWORD PTR [esi+440], edi
  00093	89 be 70 01 00
	00		 mov	 DWORD PTR [esi+368], edi
  00099	89 be 74 01 00
	00		 mov	 DWORD PTR [esi+372], edi
  0009f	89 be 78 01 00
	00		 mov	 DWORD PTR [esi+376], edi
  000a5	89 7e 18	 mov	 DWORD PTR [esi+24], edi
  000a8	89 7e 1c	 mov	 DWORD PTR [esi+28], edi
  000ab	89 7e 20	 mov	 DWORD PTR [esi+32], edi
  000ae	89 be 7c 01 00
	00		 mov	 DWORD PTR [esi+380], edi
  000b4	89 be 80 01 00
	00		 mov	 DWORD PTR [esi+384], edi
  000ba	89 be 6c 01 00
	00		 mov	 DWORD PTR [esi+364], edi
  000c0	89 be 8c 01 00
	00		 mov	 DWORD PTR [esi+396], edi
  000c6	89 be 88 01 00
	00		 mov	 DWORD PTR [esi+392], edi
  000cc	c7 86 90 01 00
	00 02 00 00 00	 mov	 DWORD PTR [esi+400], 2
  000d6	89 be 98 01 00
	00		 mov	 DWORD PTR [esi+408], edi
  000dc	89 7e 08	 mov	 DWORD PTR [esi+8], edi
  000df	c7 46 04 18 00
	00 00		 mov	 DWORD PTR [esi+4], 24	; 00000018H
  000e6	e8 00 00 00 00	 call	 _D3DXMatrixScaling@16

; 86   : 	D3DXMatrixRotationY( &m_matRotation, D3DXToRadian( -m_fAngle ) );

  000eb	d9 46 18	 fld	 DWORD PTR [esi+24]
  000ee	d9 e0		 fchs
  000f0	51		 push	 ecx
  000f1	d8 0d 00 00 00
	00		 fmul	 DWORD PTR __real@3c8efa35
  000f7	8d 96 a4 00 00
	00		 lea	 edx, DWORD PTR [esi+164]
  000fd	d9 1c 24	 fstp	 DWORD PTR [esp]
  00100	52		 push	 edx
  00101	e8 00 00 00 00	 call	 _D3DXMatrixRotationY@8

; 87   : 	D3DXMatrixTranslation( &m_matTrans, m_vPos.x, m_vPos.y, m_vPos.z);

  00106	8b 86 68 01 00
	00		 mov	 eax, DWORD PTR [esi+360]
  0010c	8b 8e 64 01 00
	00		 mov	 ecx, DWORD PTR [esi+356]
  00112	8b 13		 mov	 edx, DWORD PTR [ebx]
  00114	50		 push	 eax
  00115	51		 push	 ecx
  00116	52		 push	 edx
  00117	8d 46 24	 lea	 eax, DWORD PTR [esi+36]
  0011a	50		 push	 eax
  0011b	e8 00 00 00 00	 call	 _D3DXMatrixTranslation@16

; 88   : 	D3DXMatrixIdentity( &m_matWorld );

  00120	89 be 1c 01 00
	00		 mov	 DWORD PTR [esi+284], edi
  00126	89 be 18 01 00
	00		 mov	 DWORD PTR [esi+280], edi
  0012c	89 be 14 01 00
	00		 mov	 DWORD PTR [esi+276], edi
  00132	89 be 10 01 00
	00		 mov	 DWORD PTR [esi+272], edi
  00138	89 be 08 01 00
	00		 mov	 DWORD PTR [esi+264], edi
  0013e	89 be 04 01 00
	00		 mov	 DWORD PTR [esi+260], edi
  00144	89 be 00 01 00
	00		 mov	 DWORD PTR [esi+256], edi
  0014a	89 be fc 00 00
	00		 mov	 DWORD PTR [esi+252], edi
  00150	89 be f4 00 00
	00		 mov	 DWORD PTR [esi+244], edi
  00156	89 be f0 00 00
	00		 mov	 DWORD PTR [esi+240], edi
  0015c	89 be ec 00 00
	00		 mov	 DWORD PTR [esi+236], edi
  00162	89 be e8 00 00
	00		 mov	 DWORD PTR [esi+232], edi

; 89   : 
; 90   : #ifdef __WORLDSERVER
; 91   : 	m_vRemoval		= m_vLink	= D3DXVECTOR3(0.0f,0.0f,0.0f);

  00168	89 7c 24 10	 mov	 DWORD PTR $T228455[esp+28], edi
  0016c	89 7c 24 14	 mov	 DWORD PTR $T228455[esp+32], edi
  00170	89 7c 24 18	 mov	 DWORD PTR $T228455[esp+36], edi
  00174	8b 54 24 18	 mov	 edx, DWORD PTR $T228455[esp+36]
  00178	b8 00 00 80 3f	 mov	 eax, 1065353216		; 3f800000H
  0017d	89 86 20 01 00
	00		 mov	 DWORD PTR [esi+288], eax
  00183	89 86 0c 01 00
	00		 mov	 DWORD PTR [esi+268], eax
  00189	89 86 f8 00 00
	00		 mov	 DWORD PTR [esi+248], eax
  0018f	89 86 e4 00 00
	00		 mov	 DWORD PTR [esi+228], eax
  00195	8b 44 24 10	 mov	 eax, DWORD PTR $T228455[esp+28]
  00199	8d 8e ac 01 00
	00		 lea	 ecx, DWORD PTR [esi+428]
  0019f	8b f9		 mov	 edi, ecx
  001a1	8b 4c 24 14	 mov	 ecx, DWORD PTR $T228455[esp+32]
  001a5	89 07		 mov	 DWORD PTR [edi], eax
  001a7	89 4f 04	 mov	 DWORD PTR [edi+4], ecx
  001aa	89 57 08	 mov	 DWORD PTR [edi+8], edx
  001ad	8d be a0 01 00
	00		 lea	 edi, DWORD PTR [esi+416]
  001b3	89 07		 mov	 DWORD PTR [edi], eax

; 92   : 	SetVirtual( FALSE );

  001b5	8b 46 04	 mov	 eax, DWORD PTR [esi+4]
  001b8	89 4f 04	 mov	 DWORD PTR [edi+4], ecx
  001bb	83 e0 fb	 and	 eax, -5			; fffffffbH
  001be	89 57 08	 mov	 DWORD PTR [edi+8], edx
  001c1	5f		 pop	 edi
  001c2	89 46 04	 mov	 DWORD PTR [esi+4], eax

; 93   : #else	// !__WORLDSERVER
; 94   : 	m_fScrAngle		= 0.0f;
; 95   : 	m_fScrAngleX	= 0.0f;
; 96   : 	m_ppViewPtr		= NULL;
; 97   :     m_cullstate		= CS_UNKNOWN;
; 98   : 	m_wBlendFactor	= 255;
; 99   : 	m_pCamera		= NULL;
; 100  : 	m_fDistCamera	= 0.0f;
; 101  : 	m_dy			= 0.0f;
; 102  : 	m_nEvent		= 0;
; 103  : 	SetVisible( TRUE );
; 104  : 	
; 105  : 	#ifdef __YSMOOTH_OBJ	
; 106  : 		m_bSmooth       = FALSE;
; 107  : 		m_bSmoothOld    = FALSE;
; 108  : 		m_nSmoothCount  = 0;
; 109  : 	#endif //__YSMOOTH_OBJ
; 110  : #endif	// !__WORLDSERVER
; 111  : }

  001c5	8b c6		 mov	 eax, esi
  001c7	5e		 pop	 esi
  001c8	5d		 pop	 ebp
  001c9	5b		 pop	 ebx
  001ca	83 c4 0c	 add	 esp, 12			; 0000000cH
  001cd	c3		 ret	 0
??0CObj@@QAE@XZ ENDP					; CObj::CObj
_TEXT	ENDS
PUBLIC	?UpdateMatrix@CObj@@QAEXXZ			; CObj::UpdateMatrix
EXTRN	?UpdateMartix@BBOX@@QAEXABUD3DXVECTOR3@@0ABUD3DXMATRIX@@11@Z:NEAR ; BBOX::UpdateMartix
EXTRN	_D3DXMatrixMultiply@12:NEAR
; Function compile flags: /Ogty
;	COMDAT ?UpdateMatrix@CObj@@QAEXXZ
_TEXT	SEGMENT
?UpdateMatrix@CObj@@QAEXXZ PROC NEAR			; CObj::UpdateMatrix, COMDAT
; _this$ = ecx

; 149  : {

  00000	53		 push	 ebx
  00001	55		 push	 ebp
  00002	56		 push	 esi
  00003	57		 push	 edi

; 150  :     // Recompute m_mat, m_vecBoundsWorld, and m_planeBoundsWorld 
; 151  :     // when the thing's position, orientation, or bounding box has changed
; 152  : 
; 153  : 	D3DXMatrixIdentity( &m_matWorld );

  00004	33 db		 xor	 ebx, ebx
  00006	8b f9		 mov	 edi, ecx
  00008	8d b7 e4 00 00
	00		 lea	 esi, DWORD PTR [edi+228]

; 154  : 	D3DXMatrixMultiply( &m_matWorld, &m_matWorld, &m_matScale );

  0000e	8d 6f 64	 lea	 ebp, DWORD PTR [edi+100]
  00011	55		 push	 ebp
  00012	b8 00 00 80 3f	 mov	 eax, 1065353216		; 3f800000H
  00017	56		 push	 esi
  00018	56		 push	 esi
  00019	89 5e 38	 mov	 DWORD PTR [esi+56], ebx
  0001c	89 5e 34	 mov	 DWORD PTR [esi+52], ebx
  0001f	89 5e 30	 mov	 DWORD PTR [esi+48], ebx
  00022	89 5e 2c	 mov	 DWORD PTR [esi+44], ebx
  00025	89 5e 24	 mov	 DWORD PTR [esi+36], ebx
  00028	89 5e 20	 mov	 DWORD PTR [esi+32], ebx
  0002b	89 5e 1c	 mov	 DWORD PTR [esi+28], ebx
  0002e	89 5e 18	 mov	 DWORD PTR [esi+24], ebx
  00031	89 5e 10	 mov	 DWORD PTR [esi+16], ebx
  00034	89 5e 0c	 mov	 DWORD PTR [esi+12], ebx
  00037	89 5e 08	 mov	 DWORD PTR [esi+8], ebx
  0003a	89 5e 04	 mov	 DWORD PTR [esi+4], ebx
  0003d	89 46 3c	 mov	 DWORD PTR [esi+60], eax
  00040	89 46 28	 mov	 DWORD PTR [esi+40], eax
  00043	89 46 14	 mov	 DWORD PTR [esi+20], eax
  00046	89 06		 mov	 DWORD PTR [esi], eax
  00048	e8 00 00 00 00	 call	 _D3DXMatrixMultiply@12

; 155  : 	D3DXMatrixMultiply( &m_matWorld, &m_matWorld, &m_matRotation );

  0004d	8d 87 a4 00 00
	00		 lea	 eax, DWORD PTR [edi+164]
  00053	50		 push	 eax
  00054	56		 push	 esi
  00055	56		 push	 esi
  00056	e8 00 00 00 00	 call	 _D3DXMatrixMultiply@12

; 156  : 	D3DXMatrixMultiply( &m_matWorld, &m_matWorld, &m_matTrans );

  0005b	8d 47 24	 lea	 eax, DWORD PTR [edi+36]
  0005e	50		 push	 eax
  0005f	56		 push	 esi
  00060	56		 push	 esi
  00061	e8 00 00 00 00	 call	 _D3DXMatrixMultiply@12

; 157  : 
; 158  : 	if( m_pModel )

  00066	8b 87 78 01 00
	00		 mov	 eax, DWORD PTR [edi+376]
  0006c	3b c3		 cmp	 eax, ebx
  0006e	74 1f		 je	 SHORT $L228562

; 159  : 	{
; 160  : 		// OBB의 중점과 축을 재계산한다.
; 161  : 		m_OBB.UpdateMartix( m_pModel->m_vMin, m_pModel->m_vMax, m_matScale, m_matRotation, m_matWorld );

  00070	56		 push	 esi
  00071	8d 8f a4 00 00
	00		 lea	 ecx, DWORD PTR [edi+164]
  00077	51		 push	 ecx
  00078	8d 88 84 00 00
	00		 lea	 ecx, DWORD PTR [eax+132]
  0007e	55		 push	 ebp
  0007f	51		 push	 ecx
  00080	83 c0 78	 add	 eax, 120		; 00000078H
  00083	50		 push	 eax
  00084	8d 8f 24 01 00
	00		 lea	 ecx, DWORD PTR [edi+292]
  0008a	e8 00 00 00 00	 call	 ?UpdateMartix@BBOX@@QAEXABUD3DXVECTOR3@@0ABUD3DXMATRIX@@11@Z ; BBOX::UpdateMartix
$L228562:

; 162  : 	}
; 163  : 
; 164  : #ifdef __CLIENT
; 165  : 	// Transform bounding box coords from local space to world space
; 166  : 	for( int i = 0; i < 8; i++ )
; 167  : 		D3DXVec3TransformCoord( &m_vecBoundsWorld[i], &m_vecBoundsLocal[i], &m_matWorld );
; 168  : 
; 169  : 	// Determine planes of the bounding box
; 170  : 	D3DXPlaneFromPoints( &m_planeBoundsWorld[0], &m_vecBoundsWorld[0], 
; 171  : 		&m_vecBoundsWorld[1], &m_vecBoundsWorld[2] ); // Near
; 172  : 	D3DXPlaneFromPoints( &m_planeBoundsWorld[1], &m_vecBoundsWorld[6], 
; 173  : 		&m_vecBoundsWorld[7], &m_vecBoundsWorld[5] ); // Far
; 174  : 	D3DXPlaneFromPoints( &m_planeBoundsWorld[2], &m_vecBoundsWorld[2], 
; 175  : 		&m_vecBoundsWorld[6], &m_vecBoundsWorld[4] ); // Left
; 176  : 	D3DXPlaneFromPoints( &m_planeBoundsWorld[3], &m_vecBoundsWorld[7], 
; 177  : 		&m_vecBoundsWorld[3], &m_vecBoundsWorld[5] ); // Right
; 178  : 	D3DXPlaneFromPoints( &m_planeBoundsWorld[4], &m_vecBoundsWorld[2], 
; 179  : 		&m_vecBoundsWorld[3], &m_vecBoundsWorld[6] ); // Top
; 180  : 	D3DXPlaneFromPoints( &m_planeBoundsWorld[5], &m_vecBoundsWorld[1], 
; 181  : 		&m_vecBoundsWorld[0], &m_vecBoundsWorld[4] ); // Bottom
; 182  : #endif // __CLIENT
; 183  : 
; 184  : 	SetUpdateMatrix( FALSE );

  0008f	83 67 04 f7	 and	 DWORD PTR [edi+4], -9	; fffffff7H
  00093	5f		 pop	 edi
  00094	5e		 pop	 esi
  00095	5d		 pop	 ebp
  00096	5b		 pop	 ebx

; 185  : }

  00097	c3		 ret	 0
?UpdateMatrix@CObj@@QAEXXZ ENDP				; CObj::UpdateMatrix
_TEXT	ENDS
PUBLIC	??_C@_0BE@NPFKIOKI@MODIFYLINK?1?1MAX?1?1?$CFd?$AA@ ; `string'
PUBLIC	?SetPos@CObj@@QAEXABUD3DXVECTOR3@@@Z		; CObj::SetPos
EXTRN	?Error@@YAPBDPBDZZ:NEAR				; Error
EXTRN	__ftol2:NEAR
;	COMDAT ??_C@_0BE@NPFKIOKI@MODIFYLINK?1?1MAX?1?1?$CFd?$AA@
; File c:\documents and settings\test\mes documents\source\virtuos_v17\build\program\_common\obj.h
CONST	SEGMENT
??_C@_0BE@NPFKIOKI@MODIFYLINK?1?1MAX?1?1?$CFd?$AA@ DB 'MODIFYLINK//MAX//%'
	DB	'd', 00H					; `string'
; Function compile flags: /Ogty
; File c:\documents and settings\test\mes documents\source\virtuos_v17\build\program\_common\obj.cpp
CONST	ENDS
;	COMDAT ?SetPos@CObj@@QAEXABUD3DXVECTOR3@@@Z
_TEXT	SEGMENT
$T228569 = -24						; size = 12
_vCur$226373 = -24					; size = 12
$T228566 = -24						; size = 12
_vOld$226369 = -12					; size = 12
_vPos$ = 8						; size = 4
?SetPos@CObj@@QAEXABUD3DXVECTOR3@@@Z PROC NEAR		; CObj::SetPos, COMDAT
; _this$ = ecx

; 542  : { 

  00000	83 ec 18	 sub	 esp, 24			; 00000018H
  00003	53		 push	 ebx
  00004	56		 push	 esi

; 543  : 	if( m_vPos == vPos )

  00005	8b 74 24 24	 mov	 esi, DWORD PTR _vPos$[esp+28]
  00009	d9 06		 fld	 DWORD PTR [esi]
  0000b	8b d9		 mov	 ebx, ecx
  0000d	d9 83 60 01 00
	00		 fld	 DWORD PTR [ebx+352]
  00013	8d 8b 60 01 00
	00		 lea	 ecx, DWORD PTR [ebx+352]
  00019	da e9		 fucompp
  0001b	df e0		 fnstsw	 ax
  0001d	f6 c4 44	 test	 ah, 68			; 00000044H
  00020	7a 22		 jp	 SHORT $L228575
  00022	d9 46 04	 fld	 DWORD PTR [esi+4]
  00025	d9 41 04	 fld	 DWORD PTR [ecx+4]
  00028	da e9		 fucompp
  0002a	df e0		 fnstsw	 ax
  0002c	f6 c4 44	 test	 ah, 68			; 00000044H
  0002f	7a 13		 jp	 SHORT $L228575
  00031	d9 46 08	 fld	 DWORD PTR [esi+8]
  00034	d9 41 08	 fld	 DWORD PTR [ecx+8]
  00037	da e9		 fucompp
  00039	df e0		 fnstsw	 ax
  0003b	f6 c4 44	 test	 ah, 68			; 00000044H
  0003e	0f 8b 8d 02 00
	00		 jnp	 $L228663
$L228575:

; 544  : 		return;
; 545  : 
; 546  : 	SetPosChanged( TRUE );		// 좌표가 변경되었음을 세팅 

  00044	8b 53 04	 mov	 edx, DWORD PTR [ebx+4]
  00047	55		 push	 ebp
  00048	57		 push	 edi

; 547  : 
; 548  : 	CWorld* pWorld = GetWorld();

  00049	8b bb 6c 01 00
	00		 mov	 edi, DWORD PTR [ebx+364]
  0004f	83 ca 10	 or	 edx, 16			; 00000010H

; 549  : #ifdef __WORLDSERVER
; 550  : 	if( pWorld )

  00052	85 ff		 test	 edi, edi
  00054	89 53 04	 mov	 DWORD PTR [ebx+4], edx
  00057	0f 84 28 02 00
	00		 je	 $L226367

; 551  : 	{
; 552  : 		if( pWorld->VecInWorld( vPos ) == FALSE )

  0005d	d9 46 04	 fld	 DWORD PTR [esi+4]
  00060	83 ec 08	 sub	 esp, 8
  00063	dd 1c 24	 fstp	 QWORD PTR [esp]
  00066	e8 00 00 00 00	 call	 __isnan
  0006b	83 c4 08	 add	 esp, 8
  0006e	85 c0		 test	 eax, eax
  00070	0f 85 59 02 00
	00		 jne	 $L228671
  00076	8b 46 08	 mov	 eax, DWORD PTR [esi+8]
  00079	8b 0e		 mov	 ecx, DWORD PTR [esi]
  0007b	50		 push	 eax
  0007c	51		 push	 ecx
  0007d	8b cf		 mov	 ecx, edi
  0007f	e8 00 00 00 00	 call	 ?VecInWorld@CWorld@@QAEHMM@Z ; CWorld::VecInWorld
  00084	85 c0		 test	 eax, eax
  00086	0f 84 43 02 00
	00		 je	 $L228671

; 553  : 			return;
; 554  : 
; 555  : 		D3DXVECTOR3	vOld	= GetLinkPos() / (float)( pWorld->m_iMPU );

  0008c	db 47 14	 fild	 DWORD PTR [edi+20]
  0008f	8d 83 ac 01 00
	00		 lea	 eax, DWORD PTR [ebx+428]
  00095	8b 10		 mov	 edx, DWORD PTR [eax]
  00097	8b 48 04	 mov	 ecx, DWORD PTR [eax+4]
  0009a	d8 3d 00 00 00
	00		 fdivr	 DWORD PTR __real@3f800000
  000a0	89 54 24 10	 mov	 DWORD PTR $T228566[esp+40], edx
  000a4	8b 50 08	 mov	 edx, DWORD PTR [eax+8]
  000a7	89 54 24 18	 mov	 DWORD PTR $T228566[esp+48], edx
  000ab	89 4c 24 14	 mov	 DWORD PTR $T228566[esp+44], ecx
  000af	d9 c0		 fld	 ST(0)
  000b1	d9 44 24 10	 fld	 DWORD PTR $T228566[esp+40]
  000b5	d8 c9		 fmul	 ST(0), ST(1)
  000b7	d9 5c 24 1c	 fstp	 DWORD PTR _vOld$226369[esp+40]
  000bb	d9 44 24 18	 fld	 DWORD PTR $T228566[esp+48]
  000bf	d8 c9		 fmul	 ST(0), ST(1)
  000c1	d9 5c 24 24	 fstp	 DWORD PTR _vOld$226369[esp+48]
  000c5	dd d8		 fstp	 ST(0)

; 556  : 		D3DXVECTOR3 vCur	= vPos / (float)( pWorld->m_iMPU );

  000c7	d9 c0		 fld	 ST(0)
  000c9	d8 0e		 fmul	 DWORD PTR [esi]
  000cb	d9 c9		 fxch	 ST(1)
  000cd	d8 4e 08	 fmul	 DWORD PTR [esi+8]
  000d0	d9 5c 24 18	 fstp	 DWORD PTR _vCur$226373[esp+48]

; 557  : 		if( (int)vOld.x != (int)vCur.x || (int)vOld.z != (int)vCur.z )

  000d4	e8 00 00 00 00	 call	 __ftol2
  000d9	d9 44 24 1c	 fld	 DWORD PTR _vOld$226369[esp+40]
  000dd	8b e8		 mov	 ebp, eax
  000df	e8 00 00 00 00	 call	 __ftol2
  000e4	3b c5		 cmp	 eax, ebp
  000e6	0f 85 04 01 00
	00		 jne	 $L226381
  000ec	d9 44 24 18	 fld	 DWORD PTR _vCur$226373[esp+48]
  000f0	e8 00 00 00 00	 call	 __ftol2
  000f5	d9 44 24 24	 fld	 DWORD PTR _vOld$226369[esp+48]
  000f9	8b e8		 mov	 ebp, eax
  000fb	e8 00 00 00 00	 call	 __ftol2
  00100	3b c5		 cmp	 eax, ebp
  00102	0f 85 e8 00 00
	00		 jne	 $L226381

; 568  : 		}
; 569  : 		else 
; 570  : 		{
; 571  : 			m_vPos  = vPos;
; 572  : 			m_vLink	= vPos;
; 573  : 
; 574  : 			if( m_vRemoval != D3DXVECTOR3( 0, 0, 0 ) )

  00108	d9 05 00 00 00
	00		 fld	 DWORD PTR __real@00000000
  0010e	8b ce		 mov	 ecx, esi
  00110	8b 11		 mov	 edx, DWORD PTR [ecx]
  00112	8d 83 60 01 00
	00		 lea	 eax, DWORD PTR [ebx+352]
  00118	89 10		 mov	 DWORD PTR [eax], edx
  0011a	8b 51 04	 mov	 edx, DWORD PTR [ecx+4]
  0011d	89 50 04	 mov	 DWORD PTR [eax+4], edx
  00120	8b 49 08	 mov	 ecx, DWORD PTR [ecx+8]
  00123	89 48 08	 mov	 DWORD PTR [eax+8], ecx
  00126	8b 16		 mov	 edx, DWORD PTR [esi]
  00128	89 93 ac 01 00
	00		 mov	 DWORD PTR [ebx+428], edx
  0012e	8b 46 04	 mov	 eax, DWORD PTR [esi+4]
  00131	89 83 b0 01 00
	00		 mov	 DWORD PTR [ebx+432], eax
  00137	8b 4e 08	 mov	 ecx, DWORD PTR [esi+8]
  0013a	89 8b b4 01 00
	00		 mov	 DWORD PTR [ebx+436], ecx
  00140	d9 83 a0 01 00
	00		 fld	 DWORD PTR [ebx+416]
  00146	da e9		 fucompp
  00148	df e0		 fnstsw	 ax
  0014a	f6 c4 44	 test	 ah, 68			; 00000044H
  0014d	7a 2e		 jp	 SHORT $L228646
  0014f	d9 05 00 00 00
	00		 fld	 DWORD PTR __real@00000000
  00155	d9 83 a4 01 00
	00		 fld	 DWORD PTR [ebx+420]
  0015b	da e9		 fucompp
  0015d	df e0		 fnstsw	 ax
  0015f	f6 c4 44	 test	 ah, 68			; 00000044H
  00162	7a 19		 jp	 SHORT $L228646
  00164	d9 05 00 00 00
	00		 fld	 DWORD PTR __real@00000000
  0016a	d9 83 a8 01 00
	00		 fld	 DWORD PTR [ebx+424]
  00170	da e9		 fucompp
  00172	df e0		 fnstsw	 ax
  00174	f6 c4 44	 test	 ah, 68			; 00000044H
  00177	0f 8b 30 01 00
	00		 jnp	 $L226395
$L228646:

; 575  : 			{
; 576  : 				for( int i = 0; i < pWorld->m_cbModifyLink; i++ )

  0017d	8b 8f 58 00 05
	00		 mov	 ecx, DWORD PTR [edi+327768]
  00183	33 c0		 xor	 eax, eax
  00185	85 c9		 test	 ecx, ecx
  00187	0f 8e 20 01 00
	00		 jle	 $L226395
  0018d	8d 8f 5c 00 05
	00		 lea	 ecx, DWORD PTR [edi+327772]
$L226390:

; 577  : 				{
; 578  : 					if( pWorld->m_apModifyLink[i] == this )

  00193	39 19		 cmp	 DWORD PTR [ecx], ebx
  00195	74 13		 je	 SHORT $L228665
  00197	8b 97 58 00 05
	00		 mov	 edx, DWORD PTR [edi+327768]
  0019d	40		 inc	 eax
  0019e	83 c1 04	 add	 ecx, 4
  001a1	3b c2		 cmp	 eax, edx
  001a3	7c ee		 jl	 SHORT $L226390
  001a5	e9 03 01 00 00	 jmp	 $L226395
$L228665:

; 579  : 					{
; 580  : 						pWorld->m_apModifyLink[i]	= NULL;

  001aa	c7 84 87 5c 00
	05 00 00 00 00
	00		 mov	 DWORD PTR [edi+eax*4+327772], 0

; 581  : 						m_vRemoval	= D3DXVECTOR3( 0.0f, 0.0f, 0.0f );

  001b5	c7 44 24 10 00
	00 00 00	 mov	 DWORD PTR $T228569[esp+40], 0
  001bd	8b 54 24 10	 mov	 edx, DWORD PTR $T228569[esp+40]
  001c1	c7 44 24 14 00
	00 00 00	 mov	 DWORD PTR $T228569[esp+44], 0
  001c9	8b 44 24 14	 mov	 eax, DWORD PTR $T228569[esp+44]
  001cd	c7 44 24 18 00
	00 00 00	 mov	 DWORD PTR $T228569[esp+48], 0
  001d5	8b 4c 24 18	 mov	 ecx, DWORD PTR $T228569[esp+48]
  001d9	89 93 a0 01 00
	00		 mov	 DWORD PTR [ebx+416], edx
  001df	89 83 a4 01 00
	00		 mov	 DWORD PTR [ebx+420], eax
  001e5	89 8b a8 01 00
	00		 mov	 DWORD PTR [ebx+424], ecx

; 582  : 						break;

  001eb	e9 bd 00 00 00	 jmp	 $L226395
$L226381:

; 558  : 		{
; 559  : 			if( m_vRemoval == D3DXVECTOR3( 0, 0, 0 ) )

  001f0	d9 05 00 00 00
	00		 fld	 DWORD PTR __real@00000000
  001f6	d9 83 a0 01 00
	00		 fld	 DWORD PTR [ebx+416]
  001fc	da e9		 fucompp
  001fe	df e0		 fnstsw	 ax
  00200	f6 c4 44	 test	 ah, 68			; 00000044H
  00203	7a 5c		 jp	 SHORT $L226384
  00205	d9 05 00 00 00
	00		 fld	 DWORD PTR __real@00000000
  0020b	d9 83 a4 01 00
	00		 fld	 DWORD PTR [ebx+420]
  00211	da e9		 fucompp
  00213	df e0		 fnstsw	 ax
  00215	f6 c4 44	 test	 ah, 68			; 00000044H
  00218	7a 47		 jp	 SHORT $L226384
  0021a	d9 05 00 00 00
	00		 fld	 DWORD PTR __real@00000000
  00220	d9 83 a8 01 00
	00		 fld	 DWORD PTR [ebx+424]
  00226	da e9		 fucompp
  00228	df e0		 fnstsw	 ax
  0022a	f6 c4 44	 test	 ah, 68			; 00000044H
  0022d	7a 32		 jp	 SHORT $L226384

; 560  : 			{
; 561  : 				pWorld->m_apModifyLink[pWorld->m_cbModifyLink++]	= this;

  0022f	8b 97 58 00 05
	00		 mov	 edx, DWORD PTR [edi+327768]
  00235	89 9c 97 5c 00
	05 00		 mov	 DWORD PTR [edi+edx*4+327772], ebx
  0023c	8b 8f 58 00 05
	00		 mov	 ecx, DWORD PTR [edi+327768]
  00242	41		 inc	 ecx
  00243	89 8f 58 00 05
	00		 mov	 DWORD PTR [edi+327768], ecx
  00249	8b f9		 mov	 edi, ecx

; 562  : 				if( pWorld->m_cbModifyLink >= MAX_MODIFYLINK )

  0024b	81 ff 00 10 00
	00		 cmp	 edi, 4096		; 00001000H
  00251	7c 0e		 jl	 SHORT $L226384

; 563  : 					Error( "MODIFYLINK//MAX//%d", pWorld->m_cbModifyLink ); 

  00253	57		 push	 edi
  00254	68 00 00 00 00	 push	 OFFSET FLAT:??_C@_0BE@NPFKIOKI@MODIFYLINK?1?1MAX?1?1?$CFd?$AA@
  00259	e8 00 00 00 00	 call	 ?Error@@YAPBDPBDZZ	; Error
  0025e	83 c4 08	 add	 esp, 8
$L226384:

; 564  : 			}
; 565  : 
; 566  : 			m_vRemoval = vPos;

  00261	8b c6		 mov	 eax, esi
  00263	8b 08		 mov	 ecx, DWORD PTR [eax]
  00265	89 8b a0 01 00
	00		 mov	 DWORD PTR [ebx+416], ecx
  0026b	8b 50 04	 mov	 edx, DWORD PTR [eax+4]
  0026e	89 93 a4 01 00
	00		 mov	 DWORD PTR [ebx+420], edx
  00274	8b 40 08	 mov	 eax, DWORD PTR [eax+8]
  00277	89 83 a8 01 00
	00		 mov	 DWORD PTR [ebx+424], eax

; 567  : 			m_vPos	= vPos;

  0027d	8d 83 60 01 00
	00		 lea	 eax, DWORD PTR [ebx+352]

; 583  : 					}
; 584  : 				}
; 585  : 			}
; 586  : 		}
; 587  : 	}
; 588  : 	else 

  00283	eb 18		 jmp	 SHORT $L228673
$L226367:

; 589  : 	{
; 590  : 		m_vPos	= vPos;

  00285	8b d6		 mov	 edx, esi
  00287	8b 02		 mov	 eax, DWORD PTR [edx]
  00289	89 01		 mov	 DWORD PTR [ecx], eax
  0028b	8b 42 04	 mov	 eax, DWORD PTR [edx+4]
  0028e	89 41 04	 mov	 DWORD PTR [ecx+4], eax
  00291	8b 52 08	 mov	 edx, DWORD PTR [edx+8]
  00294	89 51 08	 mov	 DWORD PTR [ecx+8], edx

; 591  : 		m_vLink	= m_vPos;

  00297	8d 83 ac 01 00
	00		 lea	 eax, DWORD PTR [ebx+428]
$L228673:
  0029d	8b 0e		 mov	 ecx, DWORD PTR [esi]
  0029f	89 08		 mov	 DWORD PTR [eax], ecx
  002a1	8b 56 04	 mov	 edx, DWORD PTR [esi+4]
  002a4	89 50 04	 mov	 DWORD PTR [eax+4], edx
  002a7	8b 4e 08	 mov	 ecx, DWORD PTR [esi+8]
  002aa	89 48 08	 mov	 DWORD PTR [eax+8], ecx
$L226395:

; 592  : 	}
; 593  : #else	// __WORLDSERVER
; 594  : 	if( pWorld )
; 595  : 	{
; 596  : 		if( pWorld->VecInWorld( vPos ) == FALSE )
; 597  : 			return;
; 598  : 
; 599  : 		D3DXVECTOR3	vOld	= GetPos() / (FLOAT)( MPU );
; 600  : 		D3DXVECTOR3 vCur	= vPos / (FLOAT)( MPU );
; 601  : 		if( (int)vOld.x != (int)vCur.x || (int)vOld.z != (int)vCur.z )
; 602  : 		{
; 603  : 			int nOldX = int( vOld.x / MAP_SIZE );
; 604  : 			int nOldZ = int( vOld.z / MAP_SIZE );
; 605  : 			int nCurX = int( vCur.x / MAP_SIZE );
; 606  : 			int nCurZ = int( vCur.z / MAP_SIZE );   
; 607  : 			if( nOldX != nCurX || nOldZ != nCurZ )
; 608  : 			{
; 609  : 				CLandscape* pOldLandscape	= pWorld->m_apLand[ nOldX + nOldZ * pWorld->m_nLandWidth ];
; 610  : 				if( NULL != pOldLandscape )
; 611  : 				{
; 612  : 					pOldLandscape->RemoveObjLink( this );
; 613  : 					pOldLandscape->RemoveObjArray( this );
; 614  : 				}
; 615  : 				m_vPos = vPos;
; 616  : 				CLandscape* pCurLandscape	= pWorld->m_apLand[ nCurX + nCurZ * pWorld->m_nLandWidth ];
; 617  : 				if( NULL != pCurLandscape )
; 618  : 				{
; 619  : 					pCurLandscape->InsertObjLink( this );
; 620  : 					pCurLandscape->AddObjArray( this );
; 621  : 				}
; 622  : 			}
; 623  : 			else
; 624  : 			{
; 625  : 				// 같은 Landscape 안에서의 이동 
; 626  : 				int nWidth = 0;
; 627  : 				if(m_pModel) 
; 628  : 					nWidth	= (int)( m_pModel->GetMaxWidth() );
; 629  : 				DWORD dwLinkType	= GetLinkType();
; 630  : 				if( pWorld->GetObjInLinkMap( m_vPos, dwLinkType, m_dwLinkLevel ) == this )
; 631  : 					pWorld->SetObjInLinkMap( m_vPos, dwLinkType, m_dwLinkLevel, m_pNext );
; 632  : 				DelNode();
; 633  : 				CObj* pObj	= pWorld->GetObjInLinkMap( vPos, dwLinkType, m_dwLinkLevel );
; 634  : 				if( pObj )
; 635  : 					pObj->InsNextNode( this );
; 636  : 				else
; 637  : 					pWorld->SetObjInLinkMap( vPos, dwLinkType, m_dwLinkLevel, this );
; 638  : 				m_vPos	= vPos; 
; 639  : 			}
; 640  : 		}
; 641  : 		else 
; 642  : 		{
; 643  : 			m_vPos	= vPos;
; 644  : 		}
; 645  : 	}
; 646  : 	else 
; 647  : 	{
; 648  : 		m_vPos	= vPos;
; 649  : 	}
; 650  : #endif	// __WORLDSERVER
; 651  : 
; 652  : #ifndef __CLIENT
; 653  : 	D3DXMatrixTranslation( &m_matTrans, m_vPos.x, m_vPos.y, m_vPos.z );

  002ad	8b 93 68 01 00
	00		 mov	 edx, DWORD PTR [ebx+360]
  002b3	8b 83 64 01 00
	00		 mov	 eax, DWORD PTR [ebx+356]
  002b9	8b 8b 60 01 00
	00		 mov	 ecx, DWORD PTR [ebx+352]
  002bf	52		 push	 edx
  002c0	50		 push	 eax
  002c1	51		 push	 ecx
  002c2	8d 53 24	 lea	 edx, DWORD PTR [ebx+36]
  002c5	52		 push	 edx
  002c6	e8 00 00 00 00	 call	 _D3DXMatrixTranslation@16

; 654  : 	SetUpdateMatrix( TRUE );

  002cb	83 4b 04 08	 or	 DWORD PTR [ebx+4], 8
$L228671:
  002cf	5f		 pop	 edi
  002d0	5d		 pop	 ebp
$L228663:
  002d1	5e		 pop	 esi
  002d2	5b		 pop	 ebx

; 655  : #else	// !__CLIENT
; 656  : 	if( GetType() != OT_MOVER )
; 657  : 	{
; 658  : 		D3DXMatrixTranslation( &m_matTrans, m_vPos.x, m_vPos.y, m_vPos.z );
; 659  : 		SetUpdateMatrix( TRUE );
; 660  : 	}
; 661  : #endif	// __CLIENT
; 662  : 
; 663  : 	return;
; 664  : }

  002d3	83 c4 18	 add	 esp, 24			; 00000018H
  002d6	c2 04 00	 ret	 4
?SetPos@CObj@@QAEXABUD3DXVECTOR3@@@Z ENDP		; CObj::SetPos
_TEXT	ENDS
PUBLIC	?SetAngle@CObj@@QAEXM@Z				; CObj::SetAngle
PUBLIC	__real@4066c16c16c16c17
PUBLIC	__real@3f76800000000000
EXTRN	_D3DXMatrixRotationYawPitchRoll@16:NEAR
;	COMDAT __real@4066c16c16c16c17
; File c:\documents and settings\test\mes documents\source\virtuos_v17\build\program\_common\obj.h
CONST	SEGMENT
__real@4066c16c16c16c17 DQ 04066c16c16c16c17r	; 182.044
CONST	ENDS
;	COMDAT __real@3f76800000000000
CONST	SEGMENT
__real@3f76800000000000 DQ 03f76800000000000r	; 0.00549316
; Function compile flags: /Ogty
; File c:\documents and settings\test\mes documents\source\virtuos_v17\build\program\_common\obj.cpp
CONST	ENDS
;	COMDAT ?SetAngle@CObj@@QAEXM@Z
_TEXT	SEGMENT
tv196 = 8						; size = 4
_fAngle$ = 8						; size = 4
?SetAngle@CObj@@QAEXM@Z PROC NEAR			; CObj::SetAngle, COMDAT
; _this$ = ecx

; 673  : 	m_fAngle = (float)( (360.0/65536) * ((int)(fAngle*(65536/360.0)) & 65535) );

  00000	d9 44 24 04	 fld	 DWORD PTR _fAngle$[esp-4]
  00004	56		 push	 esi
  00005	dc 0d 00 00 00
	00		 fmul	 QWORD PTR __real@4066c16c16c16c17
  0000b	8b f1		 mov	 esi, ecx
  0000d	e8 00 00 00 00	 call	 __ftol2
  00012	25 ff ff 00 00	 and	 eax, 65535		; 0000ffffH
  00017	89 44 24 08	 mov	 DWORD PTR tv196[esp], eax
  0001b	db 44 24 08	 fild	 DWORD PTR tv196[esp]

; 674  : 
; 675  : 	FLOAT fAngZ = 0.0f;
; 676  : 	fAngZ = -m_fAngZ;
; 677  : 
; 678  : #if !defined(__CLIENT)
; 679  : 	D3DXMatrixRotationYawPitchRoll( &m_matRotation, D3DXToRadian( -m_fAngle ), D3DXToRadian( -m_fAngX ), D3DXToRadian( fAngZ ) );

  0001f	83 ec 0c	 sub	 esp, 12			; 0000000cH
  00022	8d 86 a4 00 00
	00		 lea	 eax, DWORD PTR [esi+164]
  00028	dc 0d 00 00 00
	00		 fmul	 QWORD PTR __real@3f76800000000000
  0002e	d9 56 18	 fst	 DWORD PTR [esi+24]
  00031	d9 46 20	 fld	 DWORD PTR [esi+32]
  00034	d9 e0		 fchs
  00036	d8 0d 00 00 00
	00		 fmul	 DWORD PTR __real@3c8efa35
  0003c	d9 5c 24 08	 fstp	 DWORD PTR [esp+8]
  00040	d9 46 1c	 fld	 DWORD PTR [esi+28]
  00043	d9 e0		 fchs
  00045	d8 0d 00 00 00
	00		 fmul	 DWORD PTR __real@3c8efa35
  0004b	d9 5c 24 04	 fstp	 DWORD PTR [esp+4]
  0004f	d9 e0		 fchs
  00051	d8 0d 00 00 00
	00		 fmul	 DWORD PTR __real@3c8efa35
  00057	d9 1c 24	 fstp	 DWORD PTR [esp]
  0005a	50		 push	 eax
  0005b	e8 00 00 00 00	 call	 _D3DXMatrixRotationYawPitchRoll@16

; 680  : 	SetUpdateMatrix( TRUE );

  00060	83 4e 04 08	 or	 DWORD PTR [esi+4], 8
  00064	5e		 pop	 esi

; 681  : #else	// not __CLIENT
; 682  : 	
; 683  : 	// OT_MOVER는 interpolate에서 
; 684  : 	if( GetType() != OT_MOVER )
; 685  : 	{
; 686  : 		D3DXMatrixRotationYawPitchRoll( &m_matRotation, D3DXToRadian( -m_fAngle ), D3DXToRadian( -m_fAngX ), D3DXToRadian( fAngZ ) );
; 687  : 		SetUpdateMatrix( TRUE );
; 688  : 	}
; 689  : #endif	// __CLIENT
; 690  : }

  00065	c2 04 00	 ret	 4
?SetAngle@CObj@@QAEXM@Z ENDP				; CObj::SetAngle
_TEXT	ENDS
PUBLIC	?SetAngleX@CObj@@QAEXM@Z			; CObj::SetAngleX
; Function compile flags: /Ogty
;	COMDAT ?SetAngleX@CObj@@QAEXM@Z
_TEXT	SEGMENT
_fAngX$ = 8						; size = 4
?SetAngleX@CObj@@QAEXM@Z PROC NEAR			; CObj::SetAngleX, COMDAT
; _this$ = ecx

; 700  : { 

  00000	56		 push	 esi
  00001	8b f1		 mov	 esi, ecx

; 701  : 	m_fAngX	= fAngX;
; 702  : 	
; 703  : 	FLOAT fAngZ = 0.0f;
; 704  : 	fAngZ = -m_fAngZ;

  00003	d9 46 20	 fld	 DWORD PTR [esi+32]
  00006	8b 44 24 08	 mov	 eax, DWORD PTR _fAngX$[esp]
  0000a	d9 e0		 fchs

; 705  : 		
; 706  : #if !defined(__CLIENT)
; 707  : 	D3DXMatrixRotationYawPitchRoll( &m_matRotation, D3DXToRadian( -m_fAngle ), D3DXToRadian( -m_fAngX ), D3DXToRadian( fAngZ ) );

  0000c	83 ec 0c	 sub	 esp, 12			; 0000000cH
  0000f	d8 0d 00 00 00
	00		 fmul	 DWORD PTR __real@3c8efa35
  00015	8d 8e a4 00 00
	00		 lea	 ecx, DWORD PTR [esi+164]
  0001b	89 46 1c	 mov	 DWORD PTR [esi+28], eax
  0001e	d9 5c 24 08	 fstp	 DWORD PTR [esp+8]
  00022	d9 44 24 14	 fld	 DWORD PTR _fAngX$[esp+12]
  00026	d9 e0		 fchs
  00028	d8 0d 00 00 00
	00		 fmul	 DWORD PTR __real@3c8efa35
  0002e	d9 5c 24 04	 fstp	 DWORD PTR [esp+4]
  00032	d9 46 18	 fld	 DWORD PTR [esi+24]
  00035	d9 e0		 fchs
  00037	d8 0d 00 00 00
	00		 fmul	 DWORD PTR __real@3c8efa35
  0003d	d9 1c 24	 fstp	 DWORD PTR [esp]
  00040	51		 push	 ecx
  00041	e8 00 00 00 00	 call	 _D3DXMatrixRotationYawPitchRoll@16

; 708  : 	SetUpdateMatrix( TRUE );

  00046	83 4e 04 08	 or	 DWORD PTR [esi+4], 8
  0004a	5e		 pop	 esi

; 709  : #else	// not __CLIENT
; 710  : 	if( GetType() != OT_MOVER )
; 711  : 	{
; 712  : 		D3DXMatrixRotationYawPitchRoll( &m_matRotation, D3DXToRadian( -m_fAngle ), D3DXToRadian( -m_fAngX ), D3DXToRadian( fAngZ ) );
; 713  : 		SetUpdateMatrix( TRUE );
; 714  : 	}
; 715  : #endif	// __CLIENT
; 716  : }

  0004b	c2 04 00	 ret	 4
?SetAngleX@CObj@@QAEXM@Z ENDP				; CObj::SetAngleX
_TEXT	ENDS
PUBLIC	?SetScale@CObj@@QAEXABUD3DXVECTOR3@@@Z		; CObj::SetScale
; Function compile flags: /Ogty
;	COMDAT ?SetScale@CObj@@QAEXABUD3DXVECTOR3@@@Z
_TEXT	SEGMENT
_vScale$ = 8						; size = 4
?SetScale@CObj@@QAEXABUD3DXVECTOR3@@@Z PROC NEAR	; CObj::SetScale, COMDAT
; _this$ = ecx

; 719  : { 

  00000	56		 push	 esi
  00001	8b f1		 mov	 esi, ecx

; 720  : 	m_vScale = vScale;

  00003	8b 4c 24 08	 mov	 ecx, DWORD PTR _vScale$[esp]
  00007	57		 push	 edi
  00008	8b 39		 mov	 edi, DWORD PTR [ecx]
  0000a	8d 46 0c	 lea	 eax, DWORD PTR [esi+12]
  0000d	8b d0		 mov	 edx, eax
  0000f	89 3a		 mov	 DWORD PTR [edx], edi
  00011	8b 79 04	 mov	 edi, DWORD PTR [ecx+4]
  00014	89 7a 04	 mov	 DWORD PTR [edx+4], edi
  00017	8b 49 08	 mov	 ecx, DWORD PTR [ecx+8]
  0001a	89 4a 08	 mov	 DWORD PTR [edx+8], ecx

; 721  : 	D3DXMatrixScaling( &m_matScale, m_vScale.x, m_vScale.y, m_vScale.z );

  0001d	8b 56 14	 mov	 edx, DWORD PTR [esi+20]
  00020	8b 4e 10	 mov	 ecx, DWORD PTR [esi+16]
  00023	52		 push	 edx
  00024	8b 10		 mov	 edx, DWORD PTR [eax]
  00026	51		 push	 ecx
  00027	52		 push	 edx
  00028	8d 46 64	 lea	 eax, DWORD PTR [esi+100]
  0002b	50		 push	 eax
  0002c	e8 00 00 00 00	 call	 _D3DXMatrixScaling@16

; 722  : 	SetUpdateMatrix( TRUE );

  00031	8b 46 04	 mov	 eax, DWORD PTR [esi+4]
  00034	83 c8 08	 or	 eax, 8
  00037	5f		 pop	 edi
  00038	89 46 04	 mov	 DWORD PTR [esi+4], eax
  0003b	5e		 pop	 esi

; 723  : }

  0003c	c2 04 00	 ret	 4
?SetScale@CObj@@QAEXABUD3DXVECTOR3@@@Z ENDP		; CObj::SetScale
_TEXT	ENDS
PUBLIC	?SetWorld@CObj@@QAEXPAVCWorld@@@Z		; CObj::SetWorld
; Function compile flags: /Ogty
;	COMDAT ?SetWorld@CObj@@QAEXPAVCWorld@@@Z
_TEXT	SEGMENT
_pWorld$ = 8						; size = 4
?SetWorld@CObj@@QAEXPAVCWorld@@@Z PROC NEAR		; CObj::SetWorld, COMDAT
; _this$ = ecx

; 985  : 	m_pWorld = pWorld; 

  00000	8b 44 24 04	 mov	 eax, DWORD PTR _pWorld$[esp-4]

; 986  : #ifdef __WORLDSERVER
; 987  : 	if( m_pWorld == NULL )

  00004	85 c0		 test	 eax, eax
  00006	89 81 6c 01 00
	00		 mov	 DWORD PTR [ecx+364], eax
  0000c	74 05		 je	 SHORT $L226572

; 988  : 		return;
; 989  : 
; 990  : 	CalcLinkLevel();	

  0000e	e8 00 00 00 00	 call	 ?CalcLinkLevel@CObj@@AAEXXZ ; CObj::CalcLinkLevel
$L226572:

; 991  : #endif //  __WORLDSERVER	
; 992  : }

  00013	c2 04 00	 ret	 4
?SetWorld@CObj@@QAEXPAVCWorld@@@Z ENDP			; CObj::SetWorld
_TEXT	ENDS
PUBLIC	?UpdateLocalMatrix@CObj@@QAEXXZ			; CObj::UpdateLocalMatrix
; Function compile flags: /Ogty
;	COMDAT ?UpdateLocalMatrix@CObj@@QAEXXZ
_TEXT	SEGMENT
?UpdateLocalMatrix@CObj@@QAEXXZ PROC NEAR		; CObj::UpdateLocalMatrix, COMDAT
; _this$ = ecx

; 136  : {

  00000	56		 push	 esi
  00001	8b f1		 mov	 esi, ecx

; 137  : 	D3DXMatrixScaling( &m_matScale, m_vScale.x, m_vScale.y, m_vScale.z );

  00003	8b 46 14	 mov	 eax, DWORD PTR [esi+20]
  00006	8b 4e 10	 mov	 ecx, DWORD PTR [esi+16]
  00009	8b 56 0c	 mov	 edx, DWORD PTR [esi+12]
  0000c	50		 push	 eax
  0000d	51		 push	 ecx
  0000e	52		 push	 edx
  0000f	8d 46 64	 lea	 eax, DWORD PTR [esi+100]
  00012	50		 push	 eax
  00013	e8 00 00 00 00	 call	 _D3DXMatrixScaling@16

; 138  : #if __VER >= 11 // __FIX_ROTATE
; 139  : 	D3DXMatrixRotationYawPitchRoll( &m_matRotation, D3DXToRadian( -m_fAngle ), D3DXToRadian( -m_fAngX ), D3DXToRadian( m_fAngZ ) );

  00018	d9 46 20	 fld	 DWORD PTR [esi+32]
  0001b	d8 0d 00 00 00
	00		 fmul	 DWORD PTR __real@3c8efa35
  00021	83 ec 0c	 sub	 esp, 12			; 0000000cH
  00024	8d 8e a4 00 00
	00		 lea	 ecx, DWORD PTR [esi+164]
  0002a	d9 5c 24 08	 fstp	 DWORD PTR [esp+8]
  0002e	d9 46 1c	 fld	 DWORD PTR [esi+28]
  00031	d9 e0		 fchs
  00033	d8 0d 00 00 00
	00		 fmul	 DWORD PTR __real@3c8efa35
  00039	d9 5c 24 04	 fstp	 DWORD PTR [esp+4]
  0003d	d9 46 18	 fld	 DWORD PTR [esi+24]
  00040	d9 e0		 fchs
  00042	d8 0d 00 00 00
	00		 fmul	 DWORD PTR __real@3c8efa35
  00048	d9 1c 24	 fstp	 DWORD PTR [esp]
  0004b	51		 push	 ecx
  0004c	e8 00 00 00 00	 call	 _D3DXMatrixRotationYawPitchRoll@16

; 140  : #else
; 141  : 	D3DXMatrixRotationYawPitchRoll( &m_matRotation, D3DXToRadian( -m_fAngle ), D3DXToRadian( -m_fAngX ), D3DXToRadian( -m_fAngZ ) );
; 142  : #endif
; 143  : 	
; 144  : 	D3DXMatrixTranslation( &m_matTrans, m_vPos.x, m_vPos.y, m_vPos.z );

  00051	8b 96 68 01 00
	00		 mov	 edx, DWORD PTR [esi+360]
  00057	8b 86 64 01 00
	00		 mov	 eax, DWORD PTR [esi+356]
  0005d	8b 8e 60 01 00
	00		 mov	 ecx, DWORD PTR [esi+352]
  00063	52		 push	 edx
  00064	50		 push	 eax
  00065	51		 push	 ecx
  00066	8d 56 24	 lea	 edx, DWORD PTR [esi+36]
  00069	52		 push	 edx
  0006a	e8 00 00 00 00	 call	 _D3DXMatrixTranslation@16

; 145  : 	UpdateMatrix();

  0006f	8b ce		 mov	 ecx, esi
  00071	5e		 pop	 esi
  00072	e9 00 00 00 00	 jmp	 ?UpdateMatrix@CObj@@QAEXXZ ; CObj::UpdateMatrix
?UpdateLocalMatrix@CObj@@QAEXXZ ENDP			; CObj::UpdateLocalMatrix
_TEXT	ENDS
PUBLIC	?SetOnLand@CObj@@QAEXXZ				; CObj::SetOnLand
EXTRN	?GetLandHeight@CWorld@@QAEMABUD3DXVECTOR3@@@Z:NEAR ; CWorld::GetLandHeight
; Function compile flags: /Ogty
;	COMDAT ?SetOnLand@CObj@@QAEXXZ
_TEXT	SEGMENT
_vPos$226318 = -24					; size = 12
$T228733 = -12						; size = 12
?SetOnLand@CObj@@QAEXXZ PROC NEAR			; CObj::SetOnLand, COMDAT
; _this$ = ecx

; 302  : {  

  00000	83 ec 18	 sub	 esp, 24			; 00000018H
  00003	56		 push	 esi
  00004	8b f1		 mov	 esi, ecx

; 303  : 	if( GetModel()->m_pModelElem->m_bFly == FALSE )

  00006	8b 86 78 01 00
	00		 mov	 eax, DWORD PTR [esi+376]
  0000c	8b 88 90 00 00
	00		 mov	 ecx, DWORD PTR [eax+144]
  00012	f6 81 81 00 00
	00 01		 test	 BYTE PTR [ecx+129], 1
  00019	75 50		 jne	 SHORT $L226317

; 304  : 	{
; 305  : 		D3DXVECTOR3 vPos = GetPos();

  0001b	8d 86 60 01 00
	00		 lea	 eax, DWORD PTR [esi+352]
  00021	8b d0		 mov	 edx, eax
  00023	8b 0a		 mov	 ecx, DWORD PTR [edx]
  00025	89 4c 24 04	 mov	 DWORD PTR _vPos$226318[esp+28], ecx
  00029	8b 4a 04	 mov	 ecx, DWORD PTR [edx+4]
  0002c	8b 52 08	 mov	 edx, DWORD PTR [edx+8]
  0002f	89 4c 24 08	 mov	 DWORD PTR _vPos$226318[esp+32], ecx

; 306  : 		vPos.y = m_pWorld->GetLandHeight( GetPos() );

  00033	8b 08		 mov	 ecx, DWORD PTR [eax]
  00035	89 4c 24 10	 mov	 DWORD PTR $T228733[esp+28], ecx
  00039	89 54 24 0c	 mov	 DWORD PTR _vPos$226318[esp+36], edx
  0003d	8b 50 04	 mov	 edx, DWORD PTR [eax+4]
  00040	8b 40 08	 mov	 eax, DWORD PTR [eax+8]
  00043	8d 4c 24 10	 lea	 ecx, DWORD PTR $T228733[esp+28]
  00047	51		 push	 ecx
  00048	8b 8e 6c 01 00
	00		 mov	 ecx, DWORD PTR [esi+364]
  0004e	89 54 24 18	 mov	 DWORD PTR $T228733[esp+36], edx
  00052	89 44 24 1c	 mov	 DWORD PTR $T228733[esp+40], eax
  00056	e8 00 00 00 00	 call	 ?GetLandHeight@CWorld@@QAEMABUD3DXVECTOR3@@@Z ; CWorld::GetLandHeight
  0005b	d9 5c 24 08	 fstp	 DWORD PTR _vPos$226318[esp+32]

; 307  : 		SetPos( vPos );

  0005f	8d 54 24 04	 lea	 edx, DWORD PTR _vPos$226318[esp+28]
  00063	52		 push	 edx
  00064	8b ce		 mov	 ecx, esi
  00066	e8 00 00 00 00	 call	 ?SetPos@CObj@@QAEXABUD3DXVECTOR3@@@Z ; CObj::SetPos
$L226317:
  0006b	5e		 pop	 esi

; 308  : 	}
; 309  : }

  0006c	83 c4 18	 add	 esp, 24			; 00000018H
  0006f	c3		 ret	 0
?SetOnLand@CObj@@QAEXXZ ENDP				; CObj::SetOnLand
_TEXT	ENDS
PUBLIC	?UpdateBoundBox@CObj@@QAEHXZ			; CObj::UpdateBoundBox
; Function compile flags: /Ogty
;	COMDAT ?UpdateBoundBox@CObj@@QAEHXZ
_TEXT	SEGMENT
?UpdateBoundBox@CObj@@QAEHXZ PROC NEAR			; CObj::UpdateBoundBox, COMDAT
; _this$ = ecx

; 437  : 	if( m_pModel == NULL ) 

  00000	8b 81 78 01 00
	00		 mov	 eax, DWORD PTR [ecx+376]
  00006	85 c0		 test	 eax, eax
  00008	75 01		 jne	 SHORT $L226348

; 469  : }

  0000a	c3		 ret	 0
$L226348:

; 438  : 		return FALSE;
; 439  : 
; 440  : 	const BOUND_BOX* pBB = m_pModel->GetBBVector();

  0000b	83 c0 0c	 add	 eax, 12			; 0000000cH

; 441  : 	if( pBB )

  0000e	74 05		 je	 SHORT $L226350

; 442  : 	{
; 443  : 		//     - z
; 444  : 		//   3 | 2
; 445  : 		// - --+-- + x
; 446  : 		//   0 | 1
; 447  : 		//
; 448  : 		//   7 | 6
; 449  : 		// - --+-- + x
; 450  : 		//   4 | 5
; 451  : 	#ifdef __CLIENT
; 452  : 		m_vecBoundsLocal[0] = D3DXVECTOR3( m_pModel->m_vMax.x, m_pModel->m_vMax.y, m_pModel->m_vMax.z );
; 453  : 		m_vecBoundsLocal[1] = D3DXVECTOR3( m_pModel->m_vMax.x, m_pModel->m_vMax.y, m_pModel->m_vMin.z );
; 454  : 		m_vecBoundsLocal[2] = D3DXVECTOR3( m_pModel->m_vMax.x, m_pModel->m_vMin.y, m_pModel->m_vMax.z );
; 455  : 		m_vecBoundsLocal[3] = D3DXVECTOR3( m_pModel->m_vMax.x, m_pModel->m_vMin.y, m_pModel->m_vMin.z );
; 456  : 		m_vecBoundsLocal[4] = D3DXVECTOR3( m_pModel->m_vMin.x, m_pModel->m_vMax.y, m_pModel->m_vMax.z );
; 457  : 		m_vecBoundsLocal[5] = D3DXVECTOR3( m_pModel->m_vMin.x, m_pModel->m_vMax.y, m_pModel->m_vMin.z );
; 458  : 		m_vecBoundsLocal[6] = D3DXVECTOR3( m_pModel->m_vMin.x, m_pModel->m_vMin.y, m_pModel->m_vMin.z );
; 459  : 		m_vecBoundsLocal[7] = D3DXVECTOR3( m_pModel->m_vMin.x, m_pModel->m_vMin.y, m_pModel->m_vMax.z );
; 460  : 	#endif // __CLIENT
; 461  : 		UpdateLocalMatrix();

  00010	e8 00 00 00 00	 call	 ?UpdateLocalMatrix@CObj@@QAEXXZ ; CObj::UpdateLocalMatrix
$L226350:

; 462  : 	}
; 463  : 
; 464  : #if !defined(__WORLDSERVER)
; 465  : 	CalcLinkLevel();
; 466  : #endif	// !defined(__WORLDSERVER)
; 467  : 
; 468  : 	return TRUE;

  00015	b8 01 00 00 00	 mov	 eax, 1

; 469  : }

  0001a	c3		 ret	 0
?UpdateBoundBox@CObj@@QAEHXZ ENDP			; CObj::UpdateBoundBox
_TEXT	ENDS
PUBLIC	?AddAngle@CObj@@QAEXM@Z				; CObj::AddAngle
; Function compile flags: /Ogty
;	COMDAT ?AddAngle@CObj@@QAEXM@Z
_TEXT	SEGMENT
_fAngle$ = 8						; size = 4
?AddAngle@CObj@@QAEXM@Z PROC NEAR			; CObj::AddAngle, COMDAT
; _this$ = ecx

; 668  : 	SetAngle( m_fAngle + fAngle );

  00000	d9 44 24 04	 fld	 DWORD PTR _fAngle$[esp-4]
  00004	51		 push	 ecx
  00005	d8 41 18	 fadd	 DWORD PTR [ecx+24]
  00008	d9 1c 24	 fstp	 DWORD PTR [esp]
  0000b	e8 00 00 00 00	 call	 ?SetAngle@CObj@@QAEXM@Z	; CObj::SetAngle

; 669  : }

  00010	c2 04 00	 ret	 4
?AddAngle@CObj@@QAEXM@Z ENDP				; CObj::AddAngle
_TEXT	ENDS
PUBLIC	?AddAngleX@CObj@@QAEXM@Z			; CObj::AddAngleX
; Function compile flags: /Ogty
;	COMDAT ?AddAngleX@CObj@@QAEXM@Z
_TEXT	SEGMENT
_fAngle$ = 8						; size = 4
?AddAngleX@CObj@@QAEXM@Z PROC NEAR			; CObj::AddAngleX, COMDAT
; _this$ = ecx

; 695  : 	m_fAngX += fAngle;

  00000	d9 44 24 04	 fld	 DWORD PTR _fAngle$[esp-4]
  00004	56		 push	 esi
  00005	8b f1		 mov	 esi, ecx
  00007	d8 46 1c	 fadd	 DWORD PTR [esi+28]

; 696  : 	SetAngleX( m_fAngX ); 

  0000a	83 ec 0c	 sub	 esp, 12			; 0000000cH
  0000d	8d 86 a4 00 00
	00		 lea	 eax, DWORD PTR [esi+164]
  00013	d9 56 1c	 fst	 DWORD PTR [esi+28]
  00016	d9 46 20	 fld	 DWORD PTR [esi+32]
  00019	d9 e0		 fchs
  0001b	d8 0d 00 00 00
	00		 fmul	 DWORD PTR __real@3c8efa35
  00021	d9 5c 24 08	 fstp	 DWORD PTR [esp+8]
  00025	d9 e0		 fchs
  00027	d8 0d 00 00 00
	00		 fmul	 DWORD PTR __real@3c8efa35
  0002d	d9 5c 24 04	 fstp	 DWORD PTR [esp+4]
  00031	d9 46 18	 fld	 DWORD PTR [esi+24]
  00034	d9 e0		 fchs
  00036	d8 0d 00 00 00
	00		 fmul	 DWORD PTR __real@3c8efa35
  0003c	d9 1c 24	 fstp	 DWORD PTR [esp]
  0003f	50		 push	 eax
  00040	e8 00 00 00 00	 call	 _D3DXMatrixRotationYawPitchRoll@16
  00045	83 4e 04 08	 or	 DWORD PTR [esi+4], 8
  00049	5e		 pop	 esi

; 697  : }

  0004a	c2 04 00	 ret	 4
?AddAngleX@CObj@@QAEXM@Z ENDP				; CObj::AddAngleX
_TEXT	ENDS
PUBLIC	?SetTypeIndex@CObj@@QAEHPAUIDirect3DDevice9@@KKH@Z ; CObj::SetTypeIndex
; Function compile flags: /Ogty
;	COMDAT ?SetTypeIndex@CObj@@QAEHPAUIDirect3DDevice9@@KKH@Z
_TEXT	SEGMENT
_pd3dDevice$ = 8					; size = 4
_dwType$ = 12						; size = 4
_dwIndex$ = 16						; size = 4
_bInitProp$ = 20					; size = 4
?SetTypeIndex@CObj@@QAEHPAUIDirect3DDevice9@@KKH@Z PROC NEAR ; CObj::SetTypeIndex, COMDAT
; _this$ = ecx

; 408  : 	m_dwIndex = dwIndex;

  00000	8b 44 24 0c	 mov	 eax, DWORD PTR _dwIndex$[esp-4]
  00004	56		 push	 esi
  00005	57		 push	 edi

; 409  : 	m_pModel = LoadModel( pd3dDevice, dwType, dwIndex );

  00006	8b 7c 24 10	 mov	 edi, DWORD PTR _dwType$[esp+4]
  0000a	8b f1		 mov	 esi, ecx
  0000c	8b 16		 mov	 edx, DWORD PTR [esi]
  0000e	50		 push	 eax
  0000f	89 86 74 01 00
	00		 mov	 DWORD PTR [esi+372], eax
  00015	8b 44 24 10	 mov	 eax, DWORD PTR _pd3dDevice$[esp+8]
  00019	57		 push	 edi
  0001a	50		 push	 eax
  0001b	ff 52 0c	 call	 DWORD PTR [edx+12]

; 410  : 	if( m_pModel ) 

  0001e	85 c0		 test	 eax, eax
  00020	89 86 78 01 00
	00		 mov	 DWORD PTR [esi+376], eax
  00026	0f 84 89 00 00
	00		 je	 $L226341

; 411  : 	{ 
; 412  : 		if( bInitProp )

  0002c	8b 4c 24 18	 mov	 ecx, DWORD PTR _bInitProp$[esp+4]
  00030	85 c9		 test	 ecx, ecx
  00032	74 43		 je	 SHORT $L226342

; 413  : 		{
; 414  : 			ResetScale();
; 415  : 			UpdateBoundBox();

  00034	83 c0 0c	 add	 eax, 12			; 0000000cH
  00037	8b 88 84 00 00
	00		 mov	 ecx, DWORD PTR [eax+132]
  0003d	8b 51 74	 mov	 edx, DWORD PTR [ecx+116]
  00040	89 56 0c	 mov	 DWORD PTR [esi+12], edx
  00043	8b 88 84 00 00
	00		 mov	 ecx, DWORD PTR [eax+132]
  00049	8b 51 74	 mov	 edx, DWORD PTR [ecx+116]
  0004c	89 56 10	 mov	 DWORD PTR [esi+16], edx
  0004f	8b 88 84 00 00
	00		 mov	 ecx, DWORD PTR [eax+132]
  00055	8b 51 74	 mov	 edx, DWORD PTR [ecx+116]
  00058	89 56 14	 mov	 DWORD PTR [esi+20], edx
  0005b	74 07		 je	 SHORT $L228792
  0005d	8b ce		 mov	 ecx, esi
  0005f	e8 00 00 00 00	 call	 ?UpdateLocalMatrix@CObj@@QAEXXZ ; CObj::UpdateLocalMatrix
$L228792:

; 416  : 			InitProp();

  00064	8b 06		 mov	 eax, DWORD PTR [esi]
  00066	6a 01		 push	 1
  00068	8b ce		 mov	 ecx, esi
  0006a	ff 50 10	 call	 DWORD PTR [eax+16]
  0006d	5f		 pop	 edi

; 427  : 		}
; 428  : 
; 429  : 		return TRUE; 

  0006e	b8 01 00 00 00	 mov	 eax, 1
  00073	5e		 pop	 esi

; 433  : }

  00074	c2 10 00	 ret	 16			; 00000010H
$L226342:

; 417  : 		}
; 418  : 		else
; 419  : 		{
; 420  : #ifdef __WORLDSERVER
; 421  : #if __VER >= 11 // __FIX_COLLISION
; 422  : 			if(dwType != OT_OBJ)

  00077	85 ff		 test	 edi, edi
  00079	74 24		 je	 SHORT $L228797

; 423  : #endif
; 424  : 			ResetScale();

  0007b	8b 88 90 00 00
	00		 mov	 ecx, DWORD PTR [eax+144]
  00081	8b 51 74	 mov	 edx, DWORD PTR [ecx+116]
  00084	89 56 0c	 mov	 DWORD PTR [esi+12], edx
  00087	8b 88 90 00 00
	00		 mov	 ecx, DWORD PTR [eax+144]
  0008d	8b 51 74	 mov	 edx, DWORD PTR [ecx+116]
  00090	89 56 10	 mov	 DWORD PTR [esi+16], edx
  00093	8b 88 90 00 00
	00		 mov	 ecx, DWORD PTR [eax+144]
  00099	8b 51 74	 mov	 edx, DWORD PTR [ecx+116]
  0009c	89 56 14	 mov	 DWORD PTR [esi+20], edx
$L228797:

; 425  : #endif //__WORLDSERVER
; 426  : 			UpdateBoundBox();

  0009f	83 c0 0c	 add	 eax, 12			; 0000000cH
  000a2	74 07		 je	 SHORT $L228806
  000a4	8b ce		 mov	 ecx, esi
  000a6	e8 00 00 00 00	 call	 ?UpdateLocalMatrix@CObj@@QAEXXZ ; CObj::UpdateLocalMatrix
$L228806:
  000ab	5f		 pop	 edi

; 427  : 		}
; 428  : 
; 429  : 		return TRUE; 

  000ac	b8 01 00 00 00	 mov	 eax, 1
  000b1	5e		 pop	 esi

; 433  : }

  000b2	c2 10 00	 ret	 16			; 00000010H
$L226341:
  000b5	5f		 pop	 edi

; 430  : 	} 
; 431  : 
; 432  : 	return FALSE;

  000b6	33 c0		 xor	 eax, eax
  000b8	5e		 pop	 esi

; 433  : }

  000b9	c2 10 00	 ret	 16			; 00000010H
?SetTypeIndex@CObj@@QAEHPAUIDirect3DDevice9@@KKH@Z ENDP	; CObj::SetTypeIndex
; Function compile flags: /Ogty
; File c:\documents and settings\test\mes documents\source\virtuos_v17\build\program\_common\obj.h
_TEXT	ENDS
;	COMDAT ?SetIndex@CObj@@UAEHPAUIDirect3DDevice9@@KH@Z
_TEXT	SEGMENT
_pd3dDevice$ = 8					; size = 4
_dwIndex$ = 12						; size = 4
_bInitProp$ = 16					; size = 4
?SetIndex@CObj@@UAEHPAUIDirect3DDevice9@@KH@Z PROC NEAR	; CObj::SetIndex, COMDAT
; _this$ = ecx

; 172  : 	virtual	BOOL	SetIndex( LPDIRECT3DDEVICE9 pd3dDevice, DWORD dwIndex, BOOL bInitProp = FALSE ) { return SetTypeIndex( pd3dDevice, m_dwType, dwIndex, bInitProp ); }

  00000	8b 44 24 0c	 mov	 eax, DWORD PTR _bInitProp$[esp-4]
  00004	8b 54 24 08	 mov	 edx, DWORD PTR _dwIndex$[esp-4]
  00008	50		 push	 eax
  00009	8b 81 70 01 00
	00		 mov	 eax, DWORD PTR [ecx+368]
  0000f	52		 push	 edx
  00010	8b 54 24 0c	 mov	 edx, DWORD PTR _pd3dDevice$[esp+4]
  00014	50		 push	 eax
  00015	52		 push	 edx
  00016	e8 00 00 00 00	 call	 ?SetTypeIndex@CObj@@QAEHPAUIDirect3DDevice9@@KKH@Z ; CObj::SetTypeIndex
  0001b	c2 0c 00	 ret	 12			; 0000000cH
?SetIndex@CObj@@UAEHPAUIDirect3DDevice9@@KH@Z ENDP	; CObj::SetIndex
_TEXT	ENDS
END
