; Listing generated by Microsoft (R) Optimizing Compiler Version 13.10.6030 

	TITLE	\Documents and Settings\test\Mes documents\Source\Virtuos_v17\Build\Program\_Common\Object3D.cpp
	.386P
include listing.inc
if @Version gt 510
.model FLAT
else
_TEXT	SEGMENT PARA USE32 PUBLIC 'CODE'
_TEXT	ENDS
_DATA	SEGMENT DWORD USE32 PUBLIC 'DATA'
_DATA	ENDS
CONST	SEGMENT DWORD USE32 PUBLIC 'CONST'
CONST	ENDS
_BSS	SEGMENT DWORD USE32 PUBLIC 'BSS'
_BSS	ENDS
$$SYMBOLS	SEGMENT BYTE USE32 'DEBSYM'
$$SYMBOLS	ENDS
$$TYPES	SEGMENT BYTE USE32 'DEBTYP'
$$TYPES	ENDS
_TLS	SEGMENT DWORD USE32 PUBLIC 'TLS'
_TLS	ENDS
;	COMDAT ??_C@_02JDPG@rb?$AA@
CONST	SEGMENT DWORD USE32 PUBLIC 'CONST'
CONST	ENDS
;	COMDAT ??_C@_0BN@MFAGAFAH@IsAnimateFile?5?3?5?$CFs?5?$MA?P?$LB?b?5?$LN?G?F?P?$AA@
CONST	SEGMENT DWORD USE32 PUBLIC 'CONST'
CONST	ENDS
;	COMDAT ??_C@_06IJGEHPBH@Model?2?$AA@
CONST	SEGMENT DWORD USE32 PUBLIC 'CONST'
CONST	ENDS
;	COMDAT ??_C@_0BK@COFPOJE@LoadObject?5?3?5?$CFs?5?$MA?P?$LB?b?5?$LN?G?F?P?$AA@
CONST	SEGMENT DWORD USE32 PUBLIC 'CONST'
CONST	ENDS
;	COMDAT ??_C@_0CI@PCDMIADN@LoadObject3D?5?3?5?$CFs?5?F?D?$MA?O?$LI?m?$MA?L?5?$LD?J?$LJ?$KL?5@
CONST	SEGMENT DWORD USE32 PUBLIC 'CONST'
CONST	ENDS
;	COMDAT ??_C@_0BJ@FJAKFGFC@?$MA?$NP?$LI?x?$LF?H?5?F?D?$MA?O?5?3?5?$CFs?0?5?$CFs?0?5?$CFs?$AA@
CONST	SEGMENT DWORD USE32 PUBLIC 'CONST'
CONST	ENDS
;	COMDAT ??_C@_0BP@GIAEKCLE@?$CFs?$MA?G?5?$LJ?v?$MA?$PM?$MA?$LK?5?$CFd?4?5?5?C?V?$LN?E?$LJ?v?$MA?$PM?$MA?$LK?5?$CFd?$AA@
CONST	SEGMENT DWORD USE32 PUBLIC 'CONST'
CONST	ENDS
;	COMDAT ??_C@_0DA@ENKKKOBI@?$LI?$NO?$LI?p?$LI?$KO?5?G?R?$LE?g?5?$LN?G?F?P?3CObject3D?3?3Load@
CONST	SEGMENT DWORD USE32 PUBLIC 'CONST'
CONST	ENDS
;	COMDAT ??_C@_0CG@LLHAJNGA@LoadObject?5?3?5?$LI?$NO?$LI?p?$LI?$KO?5?$LP?$MA?$LJ?v?G?C?$LH?N?$LP?l?5?$CF@
CONST	SEGMENT DWORD USE32 PUBLIC 'CONST'
CONST	ENDS
;	COMDAT ??_C@_0EC@CMDBPBHJ@CObject3D?3?3LoadGMObject?5?3?5?$CFs?5?E?X?$LN@
CONST	SEGMENT DWORD USE32 PUBLIC 'CONST'
CONST	ENDS
;	COMDAT ??_C@_0DB@PHDAAFJC@CObject3D?3?3LoadGeoMesh?$CI?$CJ?5?3?5?$CFs?$MA?G?5@
CONST	SEGMENT DWORD USE32 PUBLIC 'CONST'
CONST	ENDS
;	COMDAT ??_C@_0CC@OPJGNFFN@?$LI?E?E?M?$LI?$KO?$LO?s?5?$LA?$LJ?$LM?v?$LA?$KB?532?$LA?$LD?$LI?$KG?5?$LD?Q?$LO?z?$LE?Y?4?5?$CF@
CONST	SEGMENT DWORD USE32 PUBLIC 'CONST'
CONST	ENDS
;	COMDAT ??_C@_0CI@INGEON@SlideVectorXZ?3?$LN?$LK?E?$LC?$LP?$MA?$LK?j?A?$KH?F?$KO?5?$LJ?$NP?$LA?$NP?4@
CONST	SEGMENT DWORD USE32 PUBLIC 'CONST'
CONST	ENDS
;	COMDAT ??_C@_0EI@DEOEDIHF@CActionMover?3?3ProcessCollisionGr@
CONST	SEGMENT DWORD USE32 PUBLIC 'CONST'
CONST	ENDS
;	COMDAT ??_C@_0CL@FLBENPCM@FindTouchTriLine?3?$LN?$LK?E?$LC?$LP?$MA?$LK?j?A?$KH?F?$KO?5?$LJ?$NP@
CONST	SEGMENT DWORD USE32 PUBLIC 'CONST'
CONST	ENDS
;	COMDAT ??_C@_0DD@CLBMDIFP@IntersectRayTri?5?3?5?$LJ?v?E?X?$LN?$LK?$LJ?v?F?$NL?$MA?G?5?$LA@
CONST	SEGMENT DWORD USE32 PUBLIC 'CONST'
CONST	ENDS
text$yd	SEGMENT PARA USE32 PUBLIC 'CODE'
text$yd	ENDS
text$yc	SEGMENT PARA USE32 PUBLIC 'CODE'
text$yc	ENDS
CRT$XCA	SEGMENT DWORD USE32 PUBLIC 'DATA'
CRT$XCA	ENDS
CRT$XCU	SEGMENT DWORD USE32 PUBLIC 'DATA'
CRT$XCU	ENDS
CRT$XCL	SEGMENT DWORD USE32 PUBLIC 'DATA'
CRT$XCL	ENDS
CRT$XCC	SEGMENT DWORD USE32 PUBLIC 'DATA'
CRT$XCC	ENDS
CRT$XCZ	SEGMENT DWORD USE32 PUBLIC 'DATA'
CRT$XCZ	ENDS
xdata$x	SEGMENT DWORD USE32 PUBLIC 'CONST'
xdata$x	ENDS
text$AFX_COL1	SEGMENT PARA USE32 PUBLIC ''
text$AFX_COL1	ENDS
;	COMDAT _$E1
text$yc	SEGMENT PARA USE32 PUBLIC 'CODE'
text$yc	ENDS
;	COMDAT _$E3
text$yc	SEGMENT PARA USE32 PUBLIC 'CODE'
text$yc	ENDS
;	COMDAT _$E4
text$yd	SEGMENT PARA USE32 PUBLIC 'CODE'
text$yd	ENDS
;	COMDAT ??0CObject3DMng@@QAE@XZ
_TEXT	SEGMENT PARA USE32 PUBLIC 'CODE'
_TEXT	ENDS
;	COMDAT ??1?$map@V?$basic_string@DU?$char_traits@D@std@@V?$allocator@D@2@@std@@PAVCObject3D@@U?$less@V?$basic_string@DU?$char_traits@D@std@@V?$allocator@D@2@@std@@@2@V?$allocator@U?$pair@$$CBV?$basic_string@DU?$char_traits@D@std@@V?$allocator@D@2@@std@@PAVCObject3D@@@std@@@2@@std@@QAE@XZ
_TEXT	SEGMENT PARA USE32 PUBLIC 'CODE'
_TEXT	ENDS
;	COMDAT ??1CObject3DMng@@QAE@XZ
_TEXT	SEGMENT PARA USE32 PUBLIC 'CODE'
_TEXT	ENDS
;	COMDAT ?Init@CObject3DMng@@AAEXXZ
_TEXT	SEGMENT PARA USE32 PUBLIC 'CODE'
_TEXT	ENDS
;	COMDAT ?Destroy@CObject3DMng@@QAEXXZ
_TEXT	SEGMENT PARA USE32 PUBLIC 'CODE'
_TEXT	ENDS
;	COMDAT ??_GCObject3D@@QAEPAXI@Z
_TEXT	SEGMENT PARA USE32 PUBLIC 'CODE'
_TEXT	ENDS
;	COMDAT ?InvalidateDeviceObjects@CObject3DMng@@QAEJXZ
_TEXT	SEGMENT PARA USE32 PUBLIC 'CODE'
_TEXT	ENDS
;	COMDAT ?DeleteDeviceObjects@CObject3DMng@@QAEJXZ
_TEXT	SEGMENT PARA USE32 PUBLIC 'CODE'
_TEXT	ENDS
;	COMDAT ?DeleteObject3D@CObject3DMng@@QAEHPAVCObject3D@@@Z
_TEXT	SEGMENT PARA USE32 PUBLIC 'CODE'
_TEXT	ENDS
;	COMDAT ?LoadObject3D@CObject3DMng@@QAEPAVCObject3D@@PAUIDirect3DDevice9@@PBD@Z
_TEXT	SEGMENT PARA USE32 PUBLIC 'CODE'
_TEXT	ENDS
;	COMDAT ??1?$pair@$$CBV?$basic_string@DU?$char_traits@D@std@@V?$allocator@D@2@@std@@PAVCObject3D@@@std@@QAE@XZ
_TEXT	SEGMENT PARA USE32 PUBLIC 'CODE'
_TEXT	ENDS
;	COMDAT ?Process@CObject3DMng@@QAEXXZ
_TEXT	SEGMENT PARA USE32 PUBLIC 'CODE'
_TEXT	ENDS
;	COMDAT ??0CObject3D@@QAE@XZ
_TEXT	SEGMENT PARA USE32 PUBLIC 'CODE'
_TEXT	ENDS
;	COMDAT ??0GMOBJECT@@QAE@XZ
_TEXT	SEGMENT PARA USE32 PUBLIC 'CODE'
_TEXT	ENDS
;	COMDAT ??1CObject3D@@QAE@XZ
_TEXT	SEGMENT PARA USE32 PUBLIC 'CODE'
_TEXT	ENDS
;	COMDAT ?Init@CObject3D@@AAEXXZ
_TEXT	SEGMENT PARA USE32 PUBLIC 'CODE'
_TEXT	ENDS
;	COMDAT ?Destroy@CObject3D@@AAEXXZ
_TEXT	SEGMENT PARA USE32 PUBLIC 'CODE'
_TEXT	ENDS
;	COMDAT ??_GCMotion@@QAEPAXI@Z
_TEXT	SEGMENT PARA USE32 PUBLIC 'CODE'
_TEXT	ENDS
;	COMDAT ?GetMaxVertex@CObject3D@@QAEHXZ
_TEXT	SEGMENT PARA USE32 PUBLIC 'CODE'
_TEXT	ENDS
;	COMDAT ?GetMaxFace@CObject3D@@QAEHXZ
_TEXT	SEGMENT PARA USE32 PUBLIC 'CODE'
_TEXT	ENDS
;	COMDAT ?GetMaxMtrlBlk@CObject3D@@QAEHXZ
_TEXT	SEGMENT PARA USE32 PUBLIC 'CODE'
_TEXT	ENDS
;	COMDAT ?RestoreDeviceObjects@CObject3D@@QAEJPAPAUIDirect3DVertexBuffer9@@W4_D3DPOOL@@@Z
_TEXT	SEGMENT PARA USE32 PUBLIC 'CODE'
_TEXT	ENDS
;	COMDAT ?InvalidateDeviceObjects@CObject3D@@QAEJXZ
_TEXT	SEGMENT PARA USE32 PUBLIC 'CODE'
_TEXT	ENDS
;	COMDAT ?DeleteDeviceObjects@CObject3D@@QAEJXZ
_TEXT	SEGMENT PARA USE32 PUBLIC 'CODE'
_TEXT	ENDS
;	COMDAT ?CreateDeviceBuffer@CObject3D@@QAEJPAUGMOBJECT@@PAPAUIDirect3DVertexBuffer9@@W4_D3DPOOL@@@Z
_TEXT	SEGMENT PARA USE32 PUBLIC 'CODE'
_TEXT	ENDS
;	COMDAT ?IsAnimateFile@CObject3D@@SAHPBD@Z
_TEXT	SEGMENT PARA USE32 PUBLIC 'CODE'
_TEXT	ENDS
;	COMDAT ?LoadObject@CObject3D@@QAEHPBD@Z
_TEXT	SEGMENT PARA USE32 PUBLIC 'CODE'
_TEXT	ENDS
;	COMDAT ?SaveObject@CObject3D@@QAEHPBD@Z
_TEXT	SEGMENT PARA USE32 PUBLIC 'CODE'
_TEXT	ENDS
;	COMDAT ?LoadGMObject@CObject3D@@AAEHPAVCFileIO@@PAUGMOBJECT@@@Z
_TEXT	SEGMENT PARA USE32 PUBLIC 'CODE'
_TEXT	ENDS
;	COMDAT ??0SKINVERTEX@@QAE@XZ
_TEXT	SEGMENT PARA USE32 PUBLIC 'CODE'
_TEXT	ENDS
;	COMDAT ??0NORMALVERTEX@@QAE@XZ
_TEXT	SEGMENT PARA USE32 PUBLIC 'CODE'
_TEXT	ENDS
;	COMDAT ?LoadTMAni@CObject3D@@AAEHPAVCFileIO@@PAUGMOBJECT@@@Z
_TEXT	SEGMENT PARA USE32 PUBLIC 'CODE'
_TEXT	ENDS
;	COMDAT ??0TM_ANIMATION@@QAE@XZ
_TEXT	SEGMENT PARA USE32 PUBLIC 'CODE'
_TEXT	ENDS
;	COMDAT ?ChangeTexture@CObject3D@@QAEXPBD0@Z
_TEXT	SEGMENT PARA USE32 PUBLIC 'CODE'
_TEXT	ENDS
;	COMDAT ?SaveGMObject@CObject3D@@AAEHPAU_iobuf@@PAUGMOBJECT@@@Z
_TEXT	SEGMENT PARA USE32 PUBLIC 'CODE'
_TEXT	ENDS
;	COMDAT ?SaveTMAni@CObject3D@@AAEHPAU_iobuf@@PAUGMOBJECT@@@Z
_TEXT	SEGMENT PARA USE32 PUBLIC 'CODE'
_TEXT	ENDS
;	COMDAT ?SlideVectorXZ@CObject3D@@QAEHPAUD3DXVECTOR3@@ABU2@1ABUD3DXMATRIX@@HH@Z
_TEXT	SEGMENT PARA USE32 PUBLIC 'CODE'
_TEXT	ENDS
;	COMDAT ?SlideVectorXZ2@CObject3D@@QAEHPAUD3DXVECTOR3@@0ABU2@1ABUD3DXMATRIX@@H@Z
_TEXT	SEGMENT PARA USE32 PUBLIC 'CODE'
_TEXT	ENDS
;	COMDAT ?SlideVectorUnder@CObject3D@@QAEHPAUD3DXVECTOR3@@ABU2@1ABUD3DXMATRIX@@0@Z
_TEXT	SEGMENT PARA USE32 PUBLIC 'CODE'
_TEXT	ENDS
;	COMDAT ?FindTouchTriLine@CObject3D@@QAEXPAPAUD3DXVECTOR3@@ABU2@1ABUD3DXMATRIX@@PAMH@Z
_TEXT	SEGMENT PARA USE32 PUBLIC 'CODE'
_TEXT	ENDS
;	COMDAT _$E6
text$yc	SEGMENT PARA USE32 PUBLIC 'CODE'
text$yc	ENDS
;	COMDAT ?ComputeInterval@CObject3D@@QAEXMMMMMMMMAAM0000@Z
_TEXT	SEGMENT PARA USE32 PUBLIC 'CODE'
_TEXT	ENDS
;	COMDAT ?SimpleTriIntersect@CObject3D@@QAEHUD3DXMATRIX@@PAUGMOBJECT@@0@Z
_TEXT	SEGMENT PARA USE32 PUBLIC 'CODE'
_TEXT	ENDS
;	COMDAT ?IntersectRayTri@CObject3D@@QAEPAUD3DXVECTOR3@@ABU2@0ABUD3DXMATRIX@@PAU2@PAMH@Z
_TEXT	SEGMENT PARA USE32 PUBLIC 'CODE'
_TEXT	ENDS
;	COMDAT ?SetTexture@CObject3D@@QAEXPBD@Z
_TEXT	SEGMENT PARA USE32 PUBLIC 'CODE'
_TEXT	ENDS
;	COMDAT ?SetTexture@CObject3D@@QAEXPAUIDirect3DTexture9@@@Z
_TEXT	SEGMENT PARA USE32 PUBLIC 'CODE'
_TEXT	ENDS
;	COMDAT ?LoadTextureEx@CObject3D@@QAEXHPAUGMOBJECT@@QAPAUMATERIAL@@@Z
_TEXT	SEGMENT PARA USE32 PUBLIC 'CODE'
_TEXT	ENDS
;	COMDAT ?SetTextureEx@CObject3D@@QAEXPAUGMOBJECT@@H@Z
_TEXT	SEGMENT PARA USE32 PUBLIC 'CODE'
_TEXT	ENDS
;	COMDAT ?ClearNormal@CObject3D@@QAEXXZ
_TEXT	SEGMENT PARA USE32 PUBLIC 'CODE'
_TEXT	ENDS
;	COMDAT ?Animate@CObject3D@@QAEXMH@Z
_TEXT	SEGMENT PARA USE32 PUBLIC 'CODE'
_TEXT	ENDS
;	COMDAT ?Skining@CObject3D@@QAEXPAUGMOBJECT@@PBUD3DXMATRIX@@@Z
_TEXT	SEGMENT PARA USE32 PUBLIC 'CODE'
_TEXT	ENDS
;	COMDAT ?SetVertexBuffer@CObject3D@@QAEJPAUGMOBJECT@@@Z
_TEXT	SEGMENT PARA USE32 PUBLIC 'CODE'
_TEXT	ENDS
;	COMDAT ?SendVertexBuffer@CObject3D@@QAEJPAUGMOBJECT@@PAUIDirect3DVertexBuffer9@@@Z
_TEXT	SEGMENT PARA USE32 PUBLIC 'CODE'
_TEXT	ENDS
;	COMDAT ?SendIndexBuffer@CObject3D@@QAEJPAUGMOBJECT@@@Z
_TEXT	SEGMENT PARA USE32 PUBLIC 'CODE'
_TEXT	ENDS
;	COMDAT ?compare@?$basic_string@DU?$char_traits@D@std@@V?$allocator@D@2@@std@@QBEHABV12@@Z
_TEXT	SEGMENT PARA USE32 PUBLIC 'CODE'
_TEXT	ENDS
;	COMDAT ?IsFull@?$CStack@K@@QAEHXZ
_TEXT	SEGMENT PARA USE32 PUBLIC 'CODE'
_TEXT	ENDS
;	COMDAT ??0?$pair@KPAVCCtrl@@@std@@QAE@ABKABQAVCCtrl@@@Z
_TEXT	SEGMENT PARA USE32 PUBLIC 'CODE'
_TEXT	ENDS
;	COMDAT ??0?$map@V?$basic_string@DU?$char_traits@D@std@@V?$allocator@D@2@@std@@PAVCObject3D@@U?$less@V?$basic_string@DU?$char_traits@D@std@@V?$allocator@D@2@@std@@@2@V?$allocator@U?$pair@$$CBV?$basic_string@DU?$char_traits@D@std@@V?$allocator@D@2@@std@@PAVCObject3D@@@std@@@2@@std@@QAE@XZ
_TEXT	SEGMENT PARA USE32 PUBLIC 'CODE'
_TEXT	ENDS
;	COMDAT ??1?$_Tree@V?$_Tmap_traits@V?$basic_string@DU?$char_traits@D@std@@V?$allocator@D@2@@std@@PAVCObject3D@@U?$less@V?$basic_string@DU?$char_traits@D@std@@V?$allocator@D@2@@std@@@2@V?$allocator@U?$pair@$$CBV?$basic_string@DU?$char_traits@D@std@@V?$allocator@D@2@@std@@PAVCObject3D@@@std@@@2@$0A@@std@@@std@@QAE@XZ
_TEXT	SEGMENT PARA USE32 PUBLIC 'CODE'
_TEXT	ENDS
;	COMDAT ?begin@?$_Tree@V?$_Tmap_traits@V?$basic_string@DU?$char_traits@D@std@@V?$allocator@D@2@@std@@PAVCObject3D@@U?$less@V?$basic_string@DU?$char_traits@D@std@@V?$allocator@D@2@@std@@@2@V?$allocator@U?$pair@$$CBV?$basic_string@DU?$char_traits@D@std@@V?$allocator@D@2@@std@@PAVCObject3D@@@std@@@2@$0A@@std@@@std@@QAE?AViterator@12@XZ
_TEXT	SEGMENT PARA USE32 PUBLIC 'CODE'
_TEXT	ENDS
;	COMDAT ?end@?$_Tree@V?$_Tmap_traits@V?$basic_string@DU?$char_traits@D@std@@V?$allocator@D@2@@std@@PAVCObject3D@@U?$less@V?$basic_string@DU?$char_traits@D@std@@V?$allocator@D@2@@std@@@2@V?$allocator@U?$pair@$$CBV?$basic_string@DU?$char_traits@D@std@@V?$allocator@D@2@@std@@PAVCObject3D@@@std@@@2@$0A@@std@@@std@@QAE?AViterator@12@XZ
_TEXT	SEGMENT PARA USE32 PUBLIC 'CODE'
_TEXT	ENDS
;	COMDAT ?size@?$_Tree@V?$_Tmap_traits@V?$basic_string@DU?$char_traits@D@std@@V?$allocator@D@2@@std@@PAVCObject3D@@U?$less@V?$basic_string@DU?$char_traits@D@std@@V?$allocator@D@2@@std@@@2@V?$allocator@U?$pair@$$CBV?$basic_string@DU?$char_traits@D@std@@V?$allocator@D@2@@std@@PAVCObject3D@@@std@@@2@$0A@@std@@@std@@QBEIXZ
_TEXT	SEGMENT PARA USE32 PUBLIC 'CODE'
_TEXT	ENDS
;	COMDAT ?insert@?$_Tree@V?$_Tmap_traits@V?$basic_string@DU?$char_traits@D@std@@V?$allocator@D@2@@std@@PAVCObject3D@@U?$less@V?$basic_string@DU?$char_traits@D@std@@V?$allocator@D@2@@std@@@2@V?$allocator@U?$pair@$$CBV?$basic_string@DU?$char_traits@D@std@@V?$allocator@D@2@@std@@PAVCObject3D@@@std@@@2@$0A@@std@@@std@@QAE?AU?$pair@Viterator@?$_Tree@V?$_Tmap_traits@V?$basic_string@DU?$char_traits@D@std@@V?$allocator@D@2@@std@@PAVCObject3D@@U?$less@V?$basic_string@DU?$char_traits@D@std@@V?$allocator@D@2@@std@@@2@V?$allocator@U?$pair@$$CBV?$basic_string@DU?$char_traits@D@std@@V?$allocator@D@2@@std@@PAVCObject3D@@@std@@@2@$0A@@std@@@std@@_N@2@ABU?$pair@$$CBV?$basic_string@DU?$char_traits@D@std@@V?$allocator@D@2@@std@@PAVCObject3D@@@2@@Z
_TEXT	SEGMENT PARA USE32 PUBLIC 'CODE'
_TEXT	ENDS
;	COMDAT ?erase@?$_Tree@V?$_Tmap_traits@V?$basic_string@DU?$char_traits@D@std@@V?$allocator@D@2@@std@@PAVCObject3D@@U?$less@V?$basic_string@DU?$char_traits@D@std@@V?$allocator@D@2@@std@@@2@V?$allocator@U?$pair@$$CBV?$basic_string@DU?$char_traits@D@std@@V?$allocator@D@2@@std@@PAVCObject3D@@@std@@@2@$0A@@std@@@std@@QAEIABV?$basic_string@DU?$char_traits@D@std@@V?$allocator@D@2@@2@@Z
_TEXT	SEGMENT PARA USE32 PUBLIC 'CODE'
_TEXT	ENDS
;	COMDAT ?clear@?$_Tree@V?$_Tmap_traits@V?$basic_string@DU?$char_traits@D@std@@V?$allocator@D@2@@std@@PAVCObject3D@@U?$less@V?$basic_string@DU?$char_traits@D@std@@V?$allocator@D@2@@std@@@2@V?$allocator@U?$pair@$$CBV?$basic_string@DU?$char_traits@D@std@@V?$allocator@D@2@@std@@PAVCObject3D@@@std@@@2@$0A@@std@@@std@@QAEXXZ
_TEXT	SEGMENT PARA USE32 PUBLIC 'CODE'
_TEXT	ENDS
;	COMDAT ?find@?$_Tree@V?$_Tmap_traits@V?$basic_string@DU?$char_traits@D@std@@V?$allocator@D@2@@std@@PAVCObject3D@@U?$less@V?$basic_string@DU?$char_traits@D@std@@V?$allocator@D@2@@std@@@2@V?$allocator@U?$pair@$$CBV?$basic_string@DU?$char_traits@D@std@@V?$allocator@D@2@@std@@PAVCObject3D@@@std@@@2@$0A@@std@@@std@@QAE?AViterator@12@ABV?$basic_string@DU?$char_traits@D@std@@V?$allocator@D@2@@2@@Z
_TEXT	SEGMENT PARA USE32 PUBLIC 'CODE'
_TEXT	ENDS
;	COMDAT ?GetMax@?$CItemContainer@VCItemElem@@@@QAEHXZ
_TEXT	SEGMENT PARA USE32 PUBLIC 'CODE'
_TEXT	ENDS
;	COMDAT ??0?$deque@PAUtagACTMSG@@V?$allocator@PAUtagACTMSG@@@std@@@std@@QAE@XZ
_TEXT	SEGMENT PARA USE32 PUBLIC 'CODE'
_TEXT	ENDS
;	COMDAT ??1?$deque@PAUtagACTMSG@@V?$allocator@PAUtagACTMSG@@@std@@@std@@QAE@XZ
_TEXT	SEGMENT PARA USE32 PUBLIC 'CODE'
_TEXT	ENDS
;	COMDAT ?begin@?$deque@PAUtagACTMSG@@V?$allocator@PAUtagACTMSG@@@std@@@std@@QAE?AViterator@12@XZ
_TEXT	SEGMENT PARA USE32 PUBLIC 'CODE'
_TEXT	ENDS
;	COMDAT ?end@?$deque@PAUtagACTMSG@@V?$allocator@PAUtagACTMSG@@@std@@@std@@QAE?AViterator@12@XZ
_TEXT	SEGMENT PARA USE32 PUBLIC 'CODE'
_TEXT	ENDS
;	COMDAT ?empty@?$deque@PAUtagACTMSG@@V?$allocator@PAUtagACTMSG@@@std@@@std@@QBE_NXZ
_TEXT	SEGMENT PARA USE32 PUBLIC 'CODE'
_TEXT	ENDS
;	COMDAT ?clear@?$deque@PAUtagACTMSG@@V?$allocator@PAUtagACTMSG@@@std@@@std@@QAEXXZ
_TEXT	SEGMENT PARA USE32 PUBLIC 'CODE'
_TEXT	ENDS
;	COMDAT ??0?$deque@PAUtagMAGICATKMSG@@V?$allocator@PAUtagMAGICATKMSG@@@std@@@std@@QAE@XZ
_TEXT	SEGMENT PARA USE32 PUBLIC 'CODE'
_TEXT	ENDS
;	COMDAT ??1?$deque@PAUtagMAGICATKMSG@@V?$allocator@PAUtagMAGICATKMSG@@@std@@@std@@QAE@XZ
_TEXT	SEGMENT PARA USE32 PUBLIC 'CODE'
_TEXT	ENDS
;	COMDAT ?begin@?$deque@PAUtagMAGICATKMSG@@V?$allocator@PAUtagMAGICATKMSG@@@std@@@std@@QAE?AViterator@12@XZ
_TEXT	SEGMENT PARA USE32 PUBLIC 'CODE'
_TEXT	ENDS
;	COMDAT ?end@?$deque@PAUtagMAGICATKMSG@@V?$allocator@PAUtagMAGICATKMSG@@@std@@@std@@QAE?AViterator@12@XZ
_TEXT	SEGMENT PARA USE32 PUBLIC 'CODE'
_TEXT	ENDS
;	COMDAT ?empty@?$deque@PAUtagMAGICATKMSG@@V?$allocator@PAUtagMAGICATKMSG@@@std@@@std@@QBE_NXZ
_TEXT	SEGMENT PARA USE32 PUBLIC 'CODE'
_TEXT	ENDS
;	COMDAT ?clear@?$deque@PAUtagMAGICATKMSG@@V?$allocator@PAUtagMAGICATKMSG@@@std@@@std@@QAEXXZ
_TEXT	SEGMENT PARA USE32 PUBLIC 'CODE'
_TEXT	ENDS
;	COMDAT ??Diterator@?$deque@PAUtagACTMSG@@V?$allocator@PAUtagACTMSG@@@std@@@std@@QBEAAPAUtagACTMSG@@XZ
_TEXT	SEGMENT PARA USE32 PUBLIC 'CODE'
_TEXT	ENDS
;	COMDAT ??Eiterator@?$deque@PAUtagACTMSG@@V?$allocator@PAUtagACTMSG@@@std@@@std@@QAEAAV012@XZ
_TEXT	SEGMENT PARA USE32 PUBLIC 'CODE'
_TEXT	ENDS
;	COMDAT ??9const_iterator@?$deque@PAUtagACTMSG@@V?$allocator@PAUtagACTMSG@@@std@@@std@@QBE_NABV012@@Z
_TEXT	SEGMENT PARA USE32 PUBLIC 'CODE'
_TEXT	ENDS
;	COMDAT ??Diterator@?$deque@PAUtagMAGICATKMSG@@V?$allocator@PAUtagMAGICATKMSG@@@std@@@std@@QBEAAPAUtagMAGICATKMSG@@XZ
_TEXT	SEGMENT PARA USE32 PUBLIC 'CODE'
_TEXT	ENDS
;	COMDAT ??Eiterator@?$deque@PAUtagMAGICATKMSG@@V?$allocator@PAUtagMAGICATKMSG@@@std@@@std@@QAEAAV012@XZ
_TEXT	SEGMENT PARA USE32 PUBLIC 'CODE'
_TEXT	ENDS
;	COMDAT ??9const_iterator@?$deque@PAUtagMAGICATKMSG@@V?$allocator@PAUtagMAGICATKMSG@@@std@@@std@@QBE_NABV012@@Z
_TEXT	SEGMENT PARA USE32 PUBLIC 'CODE'
_TEXT	ENDS
;	COMDAT ??Citerator@?$_Tree@V?$_Tmap_traits@V?$basic_string@DU?$char_traits@D@std@@V?$allocator@D@2@@std@@PAVCObject3D@@U?$less@V?$basic_string@DU?$char_traits@D@std@@V?$allocator@D@2@@std@@@2@V?$allocator@U?$pair@$$CBV?$basic_string@DU?$char_traits@D@std@@V?$allocator@D@2@@std@@PAVCObject3D@@@std@@@2@$0A@@std@@@std@@QBEPAU?$pair@$$CBV?$basic_string@DU?$char_traits@D@std@@V?$allocator@D@2@@std@@PAVCObject3D@@@2@XZ
_TEXT	SEGMENT PARA USE32 PUBLIC 'CODE'
_TEXT	ENDS
;	COMDAT ??Eiterator@?$_Tree@V?$_Tmap_traits@V?$basic_string@DU?$char_traits@D@std@@V?$allocator@D@2@@std@@PAVCObject3D@@U?$less@V?$basic_string@DU?$char_traits@D@std@@V?$allocator@D@2@@std@@@2@V?$allocator@U?$pair@$$CBV?$basic_string@DU?$char_traits@D@std@@V?$allocator@D@2@@std@@PAVCObject3D@@@std@@@2@$0A@@std@@@std@@QAEAAV012@XZ
_TEXT	SEGMENT PARA USE32 PUBLIC 'CODE'
_TEXT	ENDS
;	COMDAT ??9const_iterator@?$_Tree@V?$_Tmap_traits@V?$basic_string@DU?$char_traits@D@std@@V?$allocator@D@2@@std@@PAVCObject3D@@U?$less@V?$basic_string@DU?$char_traits@D@std@@V?$allocator@D@2@@std@@@2@V?$allocator@U?$pair@$$CBV?$basic_string@DU?$char_traits@D@std@@V?$allocator@D@2@@std@@PAVCObject3D@@@std@@@2@$0A@@std@@@std@@QBE_NABV012@@Z
_TEXT	SEGMENT PARA USE32 PUBLIC 'CODE'
_TEXT	ENDS
;	COMDAT ??0?$pair@$$CBV?$basic_string@DU?$char_traits@D@std@@V?$allocator@D@2@@std@@PAVCObject3D@@@std@@QAE@ABV?$basic_string@DU?$char_traits@D@std@@V?$allocator@D@2@@1@ABQAVCObject3D@@@Z
_TEXT	SEGMENT PARA USE32 PUBLIC 'CODE'
_TEXT	ENDS
;	COMDAT ?compare@?$basic_string@DU?$char_traits@D@std@@V?$allocator@D@2@@std@@QBEHIIPBDI@Z
_TEXT	SEGMENT PARA USE32 PUBLIC 'CODE'
_TEXT	ENDS
;	COMDAT ?_Isnil@?$_Tree@V?$_Tmap_traits@V?$basic_string@DU?$char_traits@D@std@@V?$allocator@D@2@@std@@PAVCObject3D@@U?$less@V?$basic_string@DU?$char_traits@D@std@@V?$allocator@D@2@@std@@@2@V?$allocator@U?$pair@$$CBV?$basic_string@DU?$char_traits@D@std@@V?$allocator@D@2@@std@@PAVCObject3D@@@std@@@2@$0A@@std@@@std@@KAAADPAU_Node@?$_Tree_nod@V?$_Tmap_traits@V?$basic_string@DU?$char_traits@D@std@@V?$allocator@D@2@@std@@PAVCObject3D@@U?$less@V?$basic_string@DU?$char_traits@D@std@@V?$allocator@D@2@@std@@@2@V?$allocator@U?$pair@$$CBV?$basic_string@DU?$char_traits@D@std@@V?$allocator@D@2@@std@@PAVCObject3D@@@std@@@2@$0A@@std@@@2@@Z
_TEXT	SEGMENT PARA USE32 PUBLIC 'CODE'
_TEXT	ENDS
;	COMDAT ?_Key@?$_Tree@V?$_Tmap_traits@V?$basic_string@DU?$char_traits@D@std@@V?$allocator@D@2@@std@@PAVCObject3D@@U?$less@V?$basic_string@DU?$char_traits@D@std@@V?$allocator@D@2@@std@@@2@V?$allocator@U?$pair@$$CBV?$basic_string@DU?$char_traits@D@std@@V?$allocator@D@2@@std@@PAVCObject3D@@@std@@@2@$0A@@std@@@std@@KAABV?$basic_string@DU?$char_traits@D@std@@V?$allocator@D@2@@2@PAU_Node@?$_Tree_nod@V?$_Tmap_traits@V?$basic_string@DU?$char_traits@D@std@@V?$allocator@D@2@@std@@PAVCObject3D@@U?$less@V?$basic_string@DU?$char_traits@D@std@@V?$allocator@D@2@@std@@@2@V?$allocator@U?$pair@$$CBV?$basic_string@DU?$char_traits@D@std@@V?$allocator@D@2@@std@@PAVCObject3D@@@std@@@2@$0A@@std@@@2@@Z
_TEXT	SEGMENT PARA USE32 PUBLIC 'CODE'
_TEXT	ENDS
;	COMDAT ?_Left@?$_Tree@V?$_Tmap_traits@V?$basic_string@DU?$char_traits@D@std@@V?$allocator@D@2@@std@@PAVCObject3D@@U?$less@V?$basic_string@DU?$char_traits@D@std@@V?$allocator@D@2@@std@@@2@V?$allocator@U?$pair@$$CBV?$basic_string@DU?$char_traits@D@std@@V?$allocator@D@2@@std@@PAVCObject3D@@@std@@@2@$0A@@std@@@std@@KAAAPAU_Node@?$_Tree_nod@V?$_Tmap_traits@V?$basic_string@DU?$char_traits@D@std@@V?$allocator@D@2@@std@@PAVCObject3D@@U?$less@V?$basic_string@DU?$char_traits@D@std@@V?$allocator@D@2@@std@@@2@V?$allocator@U?$pair@$$CBV?$basic_string@DU?$char_traits@D@std@@V?$allocator@D@2@@std@@PAVCObject3D@@@std@@@2@$0A@@std@@@2@PAU342@@Z
_TEXT	SEGMENT PARA USE32 PUBLIC 'CODE'
_TEXT	ENDS
;	COMDAT ?_Right@?$_Tree@V?$_Tmap_traits@V?$basic_string@DU?$char_traits@D@std@@V?$allocator@D@2@@std@@PAVCObject3D@@U?$less@V?$basic_string@DU?$char_traits@D@std@@V?$allocator@D@2@@std@@@2@V?$allocator@U?$pair@$$CBV?$basic_string@DU?$char_traits@D@std@@V?$allocator@D@2@@std@@PAVCObject3D@@@std@@@2@$0A@@std@@@std@@KAAAPAU_Node@?$_Tree_nod@V?$_Tmap_traits@V?$basic_string@DU?$char_traits@D@std@@V?$allocator@D@2@@std@@PAVCObject3D@@U?$less@V?$basic_string@DU?$char_traits@D@std@@V?$allocator@D@2@@std@@@2@V?$allocator@U?$pair@$$CBV?$basic_string@DU?$char_traits@D@std@@V?$allocator@D@2@@std@@PAVCObject3D@@@std@@@2@$0A@@std@@@2@PAU342@@Z
_TEXT	SEGMENT PARA USE32 PUBLIC 'CODE'
_TEXT	ENDS
;	COMDAT ??0?$_Tree@V?$_Tmap_traits@V?$basic_string@DU?$char_traits@D@std@@V?$allocator@D@2@@std@@PAVCObject3D@@U?$less@V?$basic_string@DU?$char_traits@D@std@@V?$allocator@D@2@@std@@@2@V?$allocator@U?$pair@$$CBV?$basic_string@DU?$char_traits@D@std@@V?$allocator@D@2@@std@@PAVCObject3D@@@std@@@2@$0A@@std@@@std@@QAE@ABU?$less@V?$basic_string@DU?$char_traits@D@std@@V?$allocator@D@2@@std@@@1@ABV?$allocator@U?$pair@$$CBV?$basic_string@DU?$char_traits@D@std@@V?$allocator@D@2@@std@@PAVCObject3D@@@std@@@1@@Z
_TEXT	SEGMENT PARA USE32 PUBLIC 'CODE'
_TEXT	ENDS
;	COMDAT ?erase@?$_Tree@V?$_Tmap_traits@V?$basic_string@DU?$char_traits@D@std@@V?$allocator@D@2@@std@@PAVCObject3D@@U?$less@V?$basic_string@DU?$char_traits@D@std@@V?$allocator@D@2@@std@@@2@V?$allocator@U?$pair@$$CBV?$basic_string@DU?$char_traits@D@std@@V?$allocator@D@2@@std@@PAVCObject3D@@@std@@@2@$0A@@std@@@std@@QAE?AViterator@12@V312@0@Z
_TEXT	SEGMENT PARA USE32 PUBLIC 'CODE'
_TEXT	ENDS
;	COMDAT ?lower_bound@?$_Tree@V?$_Tmap_traits@V?$basic_string@DU?$char_traits@D@std@@V?$allocator@D@2@@std@@PAVCObject3D@@U?$less@V?$basic_string@DU?$char_traits@D@std@@V?$allocator@D@2@@std@@@2@V?$allocator@U?$pair@$$CBV?$basic_string@DU?$char_traits@D@std@@V?$allocator@D@2@@std@@PAVCObject3D@@@std@@@2@$0A@@std@@@std@@QAE?AViterator@12@ABV?$basic_string@DU?$char_traits@D@std@@V?$allocator@D@2@@2@@Z
_TEXT	SEGMENT PARA USE32 PUBLIC 'CODE'
_TEXT	ENDS
;	COMDAT ?equal_range@?$_Tree@V?$_Tmap_traits@V?$basic_string@DU?$char_traits@D@std@@V?$allocator@D@2@@std@@PAVCObject3D@@U?$less@V?$basic_string@DU?$char_traits@D@std@@V?$allocator@D@2@@std@@@2@V?$allocator@U?$pair@$$CBV?$basic_string@DU?$char_traits@D@std@@V?$allocator@D@2@@std@@PAVCObject3D@@@std@@@2@$0A@@std@@@std@@QAE?AU?$pair@Viterator@?$_Tree@V?$_Tmap_traits@V?$basic_string@DU?$char_traits@D@std@@V?$allocator@D@2@@std@@PAVCObject3D@@U?$less@V?$basic_string@DU?$char_traits@D@std@@V?$allocator@D@2@@std@@@2@V?$allocator@U?$pair@$$CBV?$basic_string@DU?$char_traits@D@std@@V?$allocator@D@2@@std@@PAVCObject3D@@@std@@@2@$0A@@std@@@std@@V123@@2@ABV?$basic_string@DU?$char_traits@D@std@@V?$allocator@D@2@@2@@Z
_TEXT	SEGMENT PARA USE32 PUBLIC 'CODE'
_TEXT	ENDS
;	COMDAT ?_Erase@?$_Tree@V?$_Tmap_traits@V?$basic_string@DU?$char_traits@D@std@@V?$allocator@D@2@@std@@PAVCObject3D@@U?$less@V?$basic_string@DU?$char_traits@D@std@@V?$allocator@D@2@@std@@@2@V?$allocator@U?$pair@$$CBV?$basic_string@DU?$char_traits@D@std@@V?$allocator@D@2@@std@@PAVCObject3D@@@std@@@2@$0A@@std@@@std@@IAEXPAU_Node@?$_Tree_nod@V?$_Tmap_traits@V?$basic_string@DU?$char_traits@D@std@@V?$allocator@D@2@@std@@PAVCObject3D@@U?$less@V?$basic_string@DU?$char_traits@D@std@@V?$allocator@D@2@@std@@@2@V?$allocator@U?$pair@$$CBV?$basic_string@DU?$char_traits@D@std@@V?$allocator@D@2@@std@@PAVCObject3D@@@std@@@2@$0A@@std@@@2@@Z
_TEXT	SEGMENT PARA USE32 PUBLIC 'CODE'
_TEXT	ENDS
;	COMDAT ?_Insert@?$_Tree@V?$_Tmap_traits@V?$basic_string@DU?$char_traits@D@std@@V?$allocator@D@2@@std@@PAVCObject3D@@U?$less@V?$basic_string@DU?$char_traits@D@std@@V?$allocator@D@2@@std@@@2@V?$allocator@U?$pair@$$CBV?$basic_string@DU?$char_traits@D@std@@V?$allocator@D@2@@std@@PAVCObject3D@@@std@@@2@$0A@@std@@@std@@IAE?AViterator@12@_NPAU_Node@?$_Tree_nod@V?$_Tmap_traits@V?$basic_string@DU?$char_traits@D@std@@V?$allocator@D@2@@std@@PAVCObject3D@@U?$less@V?$basic_string@DU?$char_traits@D@std@@V?$allocator@D@2@@std@@@2@V?$allocator@U?$pair@$$CBV?$basic_string@DU?$char_traits@D@std@@V?$allocator@D@2@@std@@PAVCObject3D@@@std@@@2@$0A@@std@@@2@ABU?$pair@$$CBV?$basic_string@DU?$char_traits@D@std@@V?$allocator@D@2@@std@@PAVCObject3D@@@2@@Z
_TEXT	SEGMENT PARA USE32 PUBLIC 'CODE'
_TEXT	ENDS
;	COMDAT ?_Lmost@?$_Tree@V?$_Tmap_traits@V?$basic_string@DU?$char_traits@D@std@@V?$allocator@D@2@@std@@PAVCObject3D@@U?$less@V?$basic_string@DU?$char_traits@D@std@@V?$allocator@D@2@@std@@@2@V?$allocator@U?$pair@$$CBV?$basic_string@DU?$char_traits@D@std@@V?$allocator@D@2@@std@@PAVCObject3D@@@std@@@2@$0A@@std@@@std@@IAEAAPAU_Node@?$_Tree_nod@V?$_Tmap_traits@V?$basic_string@DU?$char_traits@D@std@@V?$allocator@D@2@@std@@PAVCObject3D@@U?$less@V?$basic_string@DU?$char_traits@D@std@@V?$allocator@D@2@@std@@@2@V?$allocator@U?$pair@$$CBV?$basic_string@DU?$char_traits@D@std@@V?$allocator@D@2@@std@@PAVCObject3D@@@std@@@2@$0A@@std@@@2@XZ
_TEXT	SEGMENT PARA USE32 PUBLIC 'CODE'
_TEXT	ENDS
;	COMDAT ?_Rmost@?$_Tree@V?$_Tmap_traits@V?$basic_string@DU?$char_traits@D@std@@V?$allocator@D@2@@std@@PAVCObject3D@@U?$less@V?$basic_string@DU?$char_traits@D@std@@V?$allocator@D@2@@std@@@2@V?$allocator@U?$pair@$$CBV?$basic_string@DU?$char_traits@D@std@@V?$allocator@D@2@@std@@PAVCObject3D@@@std@@@2@$0A@@std@@@std@@IAEAAPAU_Node@?$_Tree_nod@V?$_Tmap_traits@V?$basic_string@DU?$char_traits@D@std@@V?$allocator@D@2@@std@@PAVCObject3D@@U?$less@V?$basic_string@DU?$char_traits@D@std@@V?$allocator@D@2@@std@@@2@V?$allocator@U?$pair@$$CBV?$basic_string@DU?$char_traits@D@std@@V?$allocator@D@2@@std@@PAVCObject3D@@@std@@@2@$0A@@std@@@2@XZ
_TEXT	SEGMENT PARA USE32 PUBLIC 'CODE'
_TEXT	ENDS
;	COMDAT ?_Root@?$_Tree@V?$_Tmap_traits@V?$basic_string@DU?$char_traits@D@std@@V?$allocator@D@2@@std@@PAVCObject3D@@U?$less@V?$basic_string@DU?$char_traits@D@std@@V?$allocator@D@2@@std@@@2@V?$allocator@U?$pair@$$CBV?$basic_string@DU?$char_traits@D@std@@V?$allocator@D@2@@std@@PAVCObject3D@@@std@@@2@$0A@@std@@@std@@IAEAAPAU_Node@?$_Tree_nod@V?$_Tmap_traits@V?$basic_string@DU?$char_traits@D@std@@V?$allocator@D@2@@std@@PAVCObject3D@@U?$less@V?$basic_string@DU?$char_traits@D@std@@V?$allocator@D@2@@std@@@2@V?$allocator@U?$pair@$$CBV?$basic_string@DU?$char_traits@D@std@@V?$allocator@D@2@@std@@PAVCObject3D@@@std@@@2@$0A@@std@@@2@XZ
_TEXT	SEGMENT PARA USE32 PUBLIC 'CODE'
_TEXT	ENDS
;	COMDAT ?_Tidy@?$_Tree@V?$_Tmap_traits@V?$basic_string@DU?$char_traits@D@std@@V?$allocator@D@2@@std@@PAVCObject3D@@U?$less@V?$basic_string@DU?$char_traits@D@std@@V?$allocator@D@2@@std@@@2@V?$allocator@U?$pair@$$CBV?$basic_string@DU?$char_traits@D@std@@V?$allocator@D@2@@std@@PAVCObject3D@@@std@@@2@$0A@@std@@@std@@IAEXXZ
_TEXT	SEGMENT PARA USE32 PUBLIC 'CODE'
_TEXT	ENDS
;	COMDAT ?_Kfn@?$_Tmap_traits@V?$basic_string@DU?$char_traits@D@std@@V?$allocator@D@2@@std@@PAVCObject3D@@U?$less@V?$basic_string@DU?$char_traits@D@std@@V?$allocator@D@2@@std@@@2@V?$allocator@U?$pair@$$CBV?$basic_string@DU?$char_traits@D@std@@V?$allocator@D@2@@std@@PAVCObject3D@@@std@@@2@$0A@@std@@SAABV?$basic_string@DU?$char_traits@D@std@@V?$allocator@D@2@@2@ABU?$pair@$$CBV?$basic_string@DU?$char_traits@D@std@@V?$allocator@D@2@@std@@PAVCObject3D@@@2@@Z
_TEXT	SEGMENT PARA USE32 PUBLIC 'CODE'
_TEXT	ENDS
;	COMDAT ??0?$allocator@U?$pair@$$CBV?$basic_string@DU?$char_traits@D@std@@V?$allocator@D@2@@std@@PAVCObject3D@@@std@@@std@@QAE@XZ
_TEXT	SEGMENT PARA USE32 PUBLIC 'CODE'
_TEXT	ENDS
;	COMDAT ?_Tidy@?$deque@PAUtagACTMSG@@V?$allocator@PAUtagACTMSG@@@std@@@std@@IAEXXZ
_TEXT	SEGMENT PARA USE32 PUBLIC 'CODE'
_TEXT	ENDS
;	COMDAT ??0?$_Deque_val@PAUtagACTMSG@@V?$allocator@PAUtagACTMSG@@@std@@@std@@IAE@V?$allocator@PAUtagACTMSG@@@1@@Z
_TEXT	SEGMENT PARA USE32 PUBLIC 'CODE'
_TEXT	ENDS
;	COMDAT ??0?$allocator@PAUtagACTMSG@@@std@@QAE@XZ
_TEXT	SEGMENT PARA USE32 PUBLIC 'CODE'
_TEXT	ENDS
;	COMDAT ?_Tidy@?$deque@PAUtagMAGICATKMSG@@V?$allocator@PAUtagMAGICATKMSG@@@std@@@std@@IAEXXZ
_TEXT	SEGMENT PARA USE32 PUBLIC 'CODE'
_TEXT	ENDS
;	COMDAT ??0?$_Deque_val@PAUtagMAGICATKMSG@@V?$allocator@PAUtagMAGICATKMSG@@@std@@@std@@IAE@V?$allocator@PAUtagMAGICATKMSG@@@1@@Z
_TEXT	SEGMENT PARA USE32 PUBLIC 'CODE'
_TEXT	ENDS
;	COMDAT ??0?$allocator@PAUtagMAGICATKMSG@@@std@@QAE@XZ
_TEXT	SEGMENT PARA USE32 PUBLIC 'CODE'
_TEXT	ENDS
;	COMDAT ??0iterator@?$deque@PAUtagACTMSG@@V?$allocator@PAUtagACTMSG@@@std@@@std@@QAE@IPBV12@@Z
_TEXT	SEGMENT PARA USE32 PUBLIC 'CODE'
_TEXT	ENDS
;	COMDAT ??Dconst_iterator@?$deque@PAUtagACTMSG@@V?$allocator@PAUtagACTMSG@@@std@@@std@@QBEABQAUtagACTMSG@@XZ
_TEXT	SEGMENT PARA USE32 PUBLIC 'CODE'
_TEXT	ENDS
;	COMDAT ??8const_iterator@?$deque@PAUtagACTMSG@@V?$allocator@PAUtagACTMSG@@@std@@@std@@QBE_NABV012@@Z
_TEXT	SEGMENT PARA USE32 PUBLIC 'CODE'
_TEXT	ENDS
;	COMDAT ??0iterator@?$deque@PAUtagMAGICATKMSG@@V?$allocator@PAUtagMAGICATKMSG@@@std@@@std@@QAE@IPBV12@@Z
_TEXT	SEGMENT PARA USE32 PUBLIC 'CODE'
_TEXT	ENDS
;	COMDAT ??Dconst_iterator@?$deque@PAUtagMAGICATKMSG@@V?$allocator@PAUtagMAGICATKMSG@@@std@@@std@@QBEABQAUtagMAGICATKMSG@@XZ
_TEXT	SEGMENT PARA USE32 PUBLIC 'CODE'
_TEXT	ENDS
;	COMDAT ??8const_iterator@?$deque@PAUtagMAGICATKMSG@@V?$allocator@PAUtagMAGICATKMSG@@@std@@@std@@QBE_NABV012@@Z
_TEXT	SEGMENT PARA USE32 PUBLIC 'CODE'
_TEXT	ENDS
;	COMDAT ??0iterator@?$_Tree@V?$_Tmap_traits@V?$basic_string@DU?$char_traits@D@std@@V?$allocator@D@2@@std@@PAVCObject3D@@U?$less@V?$basic_string@DU?$char_traits@D@std@@V?$allocator@D@2@@std@@@2@V?$allocator@U?$pair@$$CBV?$basic_string@DU?$char_traits@D@std@@V?$allocator@D@2@@std@@PAVCObject3D@@@std@@@2@$0A@@std@@@std@@QAE@PAU_Node@?$_Tree_nod@V?$_Tmap_traits@V?$basic_string@DU?$char_traits@D@std@@V?$allocator@D@2@@std@@PAVCObject3D@@U?$less@V?$basic_string@DU?$char_traits@D@std@@V?$allocator@D@2@@std@@@2@V?$allocator@U?$pair@$$CBV?$basic_string@DU?$char_traits@D@std@@V?$allocator@D@2@@std@@PAVCObject3D@@@std@@@2@$0A@@std@@@2@@Z
_TEXT	SEGMENT PARA USE32 PUBLIC 'CODE'
_TEXT	ENDS
;	COMDAT ??Diterator@?$_Tree@V?$_Tmap_traits@V?$basic_string@DU?$char_traits@D@std@@V?$allocator@D@2@@std@@PAVCObject3D@@U?$less@V?$basic_string@DU?$char_traits@D@std@@V?$allocator@D@2@@std@@@2@V?$allocator@U?$pair@$$CBV?$basic_string@DU?$char_traits@D@std@@V?$allocator@D@2@@std@@PAVCObject3D@@@std@@@2@$0A@@std@@@std@@QBEAAU?$pair@$$CBV?$basic_string@DU?$char_traits@D@std@@V?$allocator@D@2@@std@@PAVCObject3D@@@2@XZ
_TEXT	SEGMENT PARA USE32 PUBLIC 'CODE'
_TEXT	ENDS
;	COMDAT ??Fiterator@?$_Tree@V?$_Tmap_traits@V?$basic_string@DU?$char_traits@D@std@@V?$allocator@D@2@@std@@PAVCObject3D@@U?$less@V?$basic_string@DU?$char_traits@D@std@@V?$allocator@D@2@@std@@@2@V?$allocator@U?$pair@$$CBV?$basic_string@DU?$char_traits@D@std@@V?$allocator@D@2@@std@@PAVCObject3D@@@std@@@2@$0A@@std@@@std@@QAEAAV012@XZ
_TEXT	SEGMENT PARA USE32 PUBLIC 'CODE'
_TEXT	ENDS
;	COMDAT ??Econst_iterator@?$_Tree@V?$_Tmap_traits@V?$basic_string@DU?$char_traits@D@std@@V?$allocator@D@2@@std@@PAVCObject3D@@U?$less@V?$basic_string@DU?$char_traits@D@std@@V?$allocator@D@2@@std@@@2@V?$allocator@U?$pair@$$CBV?$basic_string@DU?$char_traits@D@std@@V?$allocator@D@2@@std@@PAVCObject3D@@@std@@@2@$0A@@std@@@std@@QAEAAV012@XZ
_TEXT	SEGMENT PARA USE32 PUBLIC 'CODE'
_TEXT	ENDS
;	COMDAT ??8const_iterator@?$_Tree@V?$_Tmap_traits@V?$basic_string@DU?$char_traits@D@std@@V?$allocator@D@2@@std@@PAVCObject3D@@U?$less@V?$basic_string@DU?$char_traits@D@std@@V?$allocator@D@2@@std@@@2@V?$allocator@U?$pair@$$CBV?$basic_string@DU?$char_traits@D@std@@V?$allocator@D@2@@std@@PAVCObject3D@@@std@@@2@$0A@@std@@@std@@QBE_NABV012@@Z
_TEXT	SEGMENT PARA USE32 PUBLIC 'CODE'
_TEXT	ENDS
;	COMDAT ?_Mynode@const_iterator@?$_Tree@V?$_Tmap_traits@V?$basic_string@DU?$char_traits@D@std@@V?$allocator@D@2@@std@@PAVCObject3D@@U?$less@V?$basic_string@DU?$char_traits@D@std@@V?$allocator@D@2@@std@@@2@V?$allocator@U?$pair@$$CBV?$basic_string@DU?$char_traits@D@std@@V?$allocator@D@2@@std@@PAVCObject3D@@@std@@@2@$0A@@std@@@std@@QBEPAU_Node@?$_Tree_nod@V?$_Tmap_traits@V?$basic_string@DU?$char_traits@D@std@@V?$allocator@D@2@@std@@PAVCObject3D@@U?$less@V?$basic_string@DU?$char_traits@D@std@@V?$allocator@D@2@@std@@@2@V?$allocator@U?$pair@$$CBV?$basic_string@DU?$char_traits@D@std@@V?$allocator@D@2@@std@@PAVCObject3D@@@std@@@2@$0A@@std@@@3@XZ
_TEXT	SEGMENT PARA USE32 PUBLIC 'CODE'
_TEXT	ENDS
;	COMDAT ??0?$pair@Viterator@?$_Tree@V?$_Tmap_traits@V?$basic_string@DU?$char_traits@D@std@@V?$allocator@D@2@@std@@PAVCObject3D@@U?$less@V?$basic_string@DU?$char_traits@D@std@@V?$allocator@D@2@@std@@@2@V?$allocator@U?$pair@$$CBV?$basic_string@DU?$char_traits@D@std@@V?$allocator@D@2@@std@@PAVCObject3D@@@std@@@2@$0A@@std@@@std@@_N@std@@QAE@ABViterator@?$_Tree@V?$_Tmap_traits@V?$basic_string@DU?$char_traits@D@std@@V?$allocator@D@2@@std@@PAVCObject3D@@U?$less@V?$basic_string@DU?$char_traits@D@std@@V?$allocator@D@2@@std@@@2@V?$allocator@U?$pair@$$CBV?$basic_string@DU?$char_traits@D@std@@V?$allocator@D@2@@std@@PAVCObject3D@@@std@@@2@$0A@@std@@@1@AB_N@Z
_TEXT	SEGMENT PARA USE32 PUBLIC 'CODE'
_TEXT	ENDS
;	COMDAT ?_Color@?$_Tree@V?$_Tmap_traits@V?$basic_string@DU?$char_traits@D@std@@V?$allocator@D@2@@std@@PAVCObject3D@@U?$less@V?$basic_string@DU?$char_traits@D@std@@V?$allocator@D@2@@std@@@2@V?$allocator@U?$pair@$$CBV?$basic_string@DU?$char_traits@D@std@@V?$allocator@D@2@@std@@PAVCObject3D@@@std@@@2@$0A@@std@@@std@@KAAADPAU_Node@?$_Tree_nod@V?$_Tmap_traits@V?$basic_string@DU?$char_traits@D@std@@V?$allocator@D@2@@std@@PAVCObject3D@@U?$less@V?$basic_string@DU?$char_traits@D@std@@V?$allocator@D@2@@std@@@2@V?$allocator@U?$pair@$$CBV?$basic_string@DU?$char_traits@D@std@@V?$allocator@D@2@@std@@PAVCObject3D@@@std@@@2@$0A@@std@@@2@@Z
_TEXT	SEGMENT PARA USE32 PUBLIC 'CODE'
_TEXT	ENDS
;	COMDAT ?_Parent@?$_Tree@V?$_Tmap_traits@V?$basic_string@DU?$char_traits@D@std@@V?$allocator@D@2@@std@@PAVCObject3D@@U?$less@V?$basic_string@DU?$char_traits@D@std@@V?$allocator@D@2@@std@@@2@V?$allocator@U?$pair@$$CBV?$basic_string@DU?$char_traits@D@std@@V?$allocator@D@2@@std@@PAVCObject3D@@@std@@@2@$0A@@std@@@std@@KAAAPAU_Node@?$_Tree_nod@V?$_Tmap_traits@V?$basic_string@DU?$char_traits@D@std@@V?$allocator@D@2@@std@@PAVCObject3D@@U?$less@V?$basic_string@DU?$char_traits@D@std@@V?$allocator@D@2@@std@@@2@V?$allocator@U?$pair@$$CBV?$basic_string@DU?$char_traits@D@std@@V?$allocator@D@2@@std@@PAVCObject3D@@@std@@@2@$0A@@std@@@2@PAU342@@Z
_TEXT	SEGMENT PARA USE32 PUBLIC 'CODE'
_TEXT	ENDS
;	COMDAT ?_Myval@?$_Tree@V?$_Tmap_traits@V?$basic_string@DU?$char_traits@D@std@@V?$allocator@D@2@@std@@PAVCObject3D@@U?$less@V?$basic_string@DU?$char_traits@D@std@@V?$allocator@D@2@@std@@@2@V?$allocator@U?$pair@$$CBV?$basic_string@DU?$char_traits@D@std@@V?$allocator@D@2@@std@@PAVCObject3D@@@std@@@2@$0A@@std@@@std@@KAAAU?$pair@$$CBV?$basic_string@DU?$char_traits@D@std@@V?$allocator@D@2@@std@@PAVCObject3D@@@2@PAU_Node@?$_Tree_nod@V?$_Tmap_traits@V?$basic_string@DU?$char_traits@D@std@@V?$allocator@D@2@@std@@PAVCObject3D@@U?$less@V?$basic_string@DU?$char_traits@D@std@@V?$allocator@D@2@@std@@@2@V?$allocator@U?$pair@$$CBV?$basic_string@DU?$char_traits@D@std@@V?$allocator@D@2@@std@@PAVCObject3D@@@std@@@2@$0A@@std@@@2@@Z
_TEXT	SEGMENT PARA USE32 PUBLIC 'CODE'
_TEXT	ENDS
;	COMDAT ?max_size@?$_Tree@V?$_Tmap_traits@V?$basic_string@DU?$char_traits@D@std@@V?$allocator@D@2@@std@@PAVCObject3D@@U?$less@V?$basic_string@DU?$char_traits@D@std@@V?$allocator@D@2@@std@@@2@V?$allocator@U?$pair@$$CBV?$basic_string@DU?$char_traits@D@std@@V?$allocator@D@2@@std@@PAVCObject3D@@@std@@@2@$0A@@std@@@std@@QBEIXZ
_TEXT	SEGMENT PARA USE32 PUBLIC 'CODE'
_TEXT	ENDS
;	COMDAT ?erase@?$_Tree@V?$_Tmap_traits@V?$basic_string@DU?$char_traits@D@std@@V?$allocator@D@2@@std@@PAVCObject3D@@U?$less@V?$basic_string@DU?$char_traits@D@std@@V?$allocator@D@2@@std@@@2@V?$allocator@U?$pair@$$CBV?$basic_string@DU?$char_traits@D@std@@V?$allocator@D@2@@std@@PAVCObject3D@@@std@@@2@$0A@@std@@@std@@QAE?AViterator@12@V312@@Z
_TEXT	SEGMENT PARA USE32 PUBLIC 'CODE'
_TEXT	ENDS
;	COMDAT ?upper_bound@?$_Tree@V?$_Tmap_traits@V?$basic_string@DU?$char_traits@D@std@@V?$allocator@D@2@@std@@PAVCObject3D@@U?$less@V?$basic_string@DU?$char_traits@D@std@@V?$allocator@D@2@@std@@@2@V?$allocator@U?$pair@$$CBV?$basic_string@DU?$char_traits@D@std@@V?$allocator@D@2@@std@@PAVCObject3D@@@std@@@2@$0A@@std@@@std@@QAE?AViterator@12@ABV?$basic_string@DU?$char_traits@D@std@@V?$allocator@D@2@@2@@Z
_TEXT	SEGMENT PARA USE32 PUBLIC 'CODE'
_TEXT	ENDS
;	COMDAT ?_Init@?$_Tree@V?$_Tmap_traits@V?$basic_string@DU?$char_traits@D@std@@V?$allocator@D@2@@std@@PAVCObject3D@@U?$less@V?$basic_string@DU?$char_traits@D@std@@V?$allocator@D@2@@std@@@2@V?$allocator@U?$pair@$$CBV?$basic_string@DU?$char_traits@D@std@@V?$allocator@D@2@@std@@PAVCObject3D@@@std@@@2@$0A@@std@@@std@@IAEXXZ
_TEXT	SEGMENT PARA USE32 PUBLIC 'CODE'
_TEXT	ENDS
;	COMDAT ?_Lbound@?$_Tree@V?$_Tmap_traits@V?$basic_string@DU?$char_traits@D@std@@V?$allocator@D@2@@std@@PAVCObject3D@@U?$less@V?$basic_string@DU?$char_traits@D@std@@V?$allocator@D@2@@std@@@2@V?$allocator@U?$pair@$$CBV?$basic_string@DU?$char_traits@D@std@@V?$allocator@D@2@@std@@PAVCObject3D@@@std@@@2@$0A@@std@@@std@@IBEPAU_Node@?$_Tree_nod@V?$_Tmap_traits@V?$basic_string@DU?$char_traits@D@std@@V?$allocator@D@2@@std@@PAVCObject3D@@U?$less@V?$basic_string@DU?$char_traits@D@std@@V?$allocator@D@2@@std@@@2@V?$allocator@U?$pair@$$CBV?$basic_string@DU?$char_traits@D@std@@V?$allocator@D@2@@std@@PAVCObject3D@@@std@@@2@$0A@@std@@@2@ABV?$basic_string@DU?$char_traits@D@std@@V?$allocator@D@2@@2@@Z
_TEXT	SEGMENT PARA USE32 PUBLIC 'CODE'
_TEXT	ENDS
;	COMDAT ?_Lrotate@?$_Tree@V?$_Tmap_traits@V?$basic_string@DU?$char_traits@D@std@@V?$allocator@D@2@@std@@PAVCObject3D@@U?$less@V?$basic_string@DU?$char_traits@D@std@@V?$allocator@D@2@@std@@@2@V?$allocator@U?$pair@$$CBV?$basic_string@DU?$char_traits@D@std@@V?$allocator@D@2@@std@@PAVCObject3D@@@std@@@2@$0A@@std@@@std@@IAEXPAU_Node@?$_Tree_nod@V?$_Tmap_traits@V?$basic_string@DU?$char_traits@D@std@@V?$allocator@D@2@@std@@PAVCObject3D@@U?$less@V?$basic_string@DU?$char_traits@D@std@@V?$allocator@D@2@@std@@@2@V?$allocator@U?$pair@$$CBV?$basic_string@DU?$char_traits@D@std@@V?$allocator@D@2@@std@@PAVCObject3D@@@std@@@2@$0A@@std@@@2@@Z
_TEXT	SEGMENT PARA USE32 PUBLIC 'CODE'
_TEXT	ENDS
;	COMDAT ?_Rrotate@?$_Tree@V?$_Tmap_traits@V?$basic_string@DU?$char_traits@D@std@@V?$allocator@D@2@@std@@PAVCObject3D@@U?$less@V?$basic_string@DU?$char_traits@D@std@@V?$allocator@D@2@@std@@@2@V?$allocator@U?$pair@$$CBV?$basic_string@DU?$char_traits@D@std@@V?$allocator@D@2@@std@@PAVCObject3D@@@std@@@2@$0A@@std@@@std@@IAEXPAU_Node@?$_Tree_nod@V?$_Tmap_traits@V?$basic_string@DU?$char_traits@D@std@@V?$allocator@D@2@@std@@PAVCObject3D@@U?$less@V?$basic_string@DU?$char_traits@D@std@@V?$allocator@D@2@@std@@@2@V?$allocator@U?$pair@$$CBV?$basic_string@DU?$char_traits@D@std@@V?$allocator@D@2@@std@@PAVCObject3D@@@std@@@2@$0A@@std@@@2@@Z
_TEXT	SEGMENT PARA USE32 PUBLIC 'CODE'
_TEXT	ENDS
;	COMDAT ?_Buynode@?$_Tree@V?$_Tmap_traits@V?$basic_string@DU?$char_traits@D@std@@V?$allocator@D@2@@std@@PAVCObject3D@@U?$less@V?$basic_string@DU?$char_traits@D@std@@V?$allocator@D@2@@std@@@2@V?$allocator@U?$pair@$$CBV?$basic_string@DU?$char_traits@D@std@@V?$allocator@D@2@@std@@PAVCObject3D@@@std@@@2@$0A@@std@@@std@@IAEPAU_Node@?$_Tree_nod@V?$_Tmap_traits@V?$basic_string@DU?$char_traits@D@std@@V?$allocator@D@2@@std@@PAVCObject3D@@U?$less@V?$basic_string@DU?$char_traits@D@std@@V?$allocator@D@2@@std@@@2@V?$allocator@U?$pair@$$CBV?$basic_string@DU?$char_traits@D@std@@V?$allocator@D@2@@std@@PAVCObject3D@@@std@@@2@$0A@@std@@@2@PAU342@00ABU?$pair@$$CBV?$basic_string@DU?$char_traits@D@std@@V?$allocator@D@2@@std@@PAVCObject3D@@@2@D@Z
_TEXT	SEGMENT PARA USE32 PUBLIC 'CODE'
_TEXT	ENDS
;	COMDAT ??0?$_Tree_val@V?$_Tmap_traits@V?$basic_string@DU?$char_traits@D@std@@V?$allocator@D@2@@std@@PAVCObject3D@@U?$less@V?$basic_string@DU?$char_traits@D@std@@V?$allocator@D@2@@std@@@2@V?$allocator@U?$pair@$$CBV?$basic_string@DU?$char_traits@D@std@@V?$allocator@D@2@@std@@PAVCObject3D@@@std@@@2@$0A@@std@@@std@@IAE@ABU?$less@V?$basic_string@DU?$char_traits@D@std@@V?$allocator@D@2@@std@@@1@V?$allocator@U?$pair@$$CBV?$basic_string@DU?$char_traits@D@std@@V?$allocator@D@2@@std@@PAVCObject3D@@@std@@@1@@Z
_TEXT	SEGMENT PARA USE32 PUBLIC 'CODE'
_TEXT	ENDS
;	COMDAT ??0?$allocator@U?$pair@$$CBV?$basic_string@DU?$char_traits@D@std@@V?$allocator@D@2@@std@@PAVCObject3D@@@std@@@std@@QAE@ABV01@@Z
_TEXT	SEGMENT PARA USE32 PUBLIC 'CODE'
_TEXT	ENDS
;	COMDAT ?deallocate@?$allocator@U_Node@?$_Tree_nod@V?$_Tmap_traits@V?$basic_string@DU?$char_traits@D@std@@V?$allocator@D@2@@std@@PAVCObject3D@@U?$less@V?$basic_string@DU?$char_traits@D@std@@V?$allocator@D@2@@std@@@2@V?$allocator@U?$pair@$$CBV?$basic_string@DU?$char_traits@D@std@@V?$allocator@D@2@@std@@PAVCObject3D@@@std@@@2@$0A@@std@@@std@@@std@@QAEXPAU_Node@?$_Tree_nod@V?$_Tmap_traits@V?$basic_string@DU?$char_traits@D@std@@V?$allocator@D@2@@std@@PAVCObject3D@@U?$less@V?$basic_string@DU?$char_traits@D@std@@V?$allocator@D@2@@std@@@2@V?$allocator@U?$pair@$$CBV?$basic_string@DU?$char_traits@D@std@@V?$allocator@D@2@@std@@PAVCObject3D@@@std@@@2@$0A@@std@@@2@I@Z
_TEXT	SEGMENT PARA USE32 PUBLIC 'CODE'
_TEXT	ENDS
;	COMDAT ?destroy@?$allocator@U_Node@?$_Tree_nod@V?$_Tmap_traits@V?$basic_string@DU?$char_traits@D@std@@V?$allocator@D@2@@std@@PAVCObject3D@@U?$less@V?$basic_string@DU?$char_traits@D@std@@V?$allocator@D@2@@std@@@2@V?$allocator@U?$pair@$$CBV?$basic_string@DU?$char_traits@D@std@@V?$allocator@D@2@@std@@PAVCObject3D@@@std@@@2@$0A@@std@@@std@@@std@@QAEXPAU_Node@?$_Tree_nod@V?$_Tmap_traits@V?$basic_string@DU?$char_traits@D@std@@V?$allocator@D@2@@std@@PAVCObject3D@@U?$less@V?$basic_string@DU?$char_traits@D@std@@V?$allocator@D@2@@std@@@2@V?$allocator@U?$pair@$$CBV?$basic_string@DU?$char_traits@D@std@@V?$allocator@D@2@@std@@PAVCObject3D@@@std@@@2@$0A@@std@@@2@@Z
_TEXT	SEGMENT PARA USE32 PUBLIC 'CODE'
_TEXT	ENDS
;	COMDAT ?destroy@?$allocator@PAU_Node@?$_Tree_nod@V?$_Tmap_traits@V?$basic_string@DU?$char_traits@D@std@@V?$allocator@D@2@@std@@PAVCObject3D@@U?$less@V?$basic_string@DU?$char_traits@D@std@@V?$allocator@D@2@@std@@@2@V?$allocator@U?$pair@$$CBV?$basic_string@DU?$char_traits@D@std@@V?$allocator@D@2@@std@@PAVCObject3D@@@std@@@2@$0A@@std@@@std@@@std@@QAEXPAPAU_Node@?$_Tree_nod@V?$_Tmap_traits@V?$basic_string@DU?$char_traits@D@std@@V?$allocator@D@2@@std@@PAVCObject3D@@U?$less@V?$basic_string@DU?$char_traits@D@std@@V?$allocator@D@2@@std@@@2@V?$allocator@U?$pair@$$CBV?$basic_string@DU?$char_traits@D@std@@V?$allocator@D@2@@std@@PAVCObject3D@@@std@@@2@$0A@@std@@@2@@Z
_TEXT	SEGMENT PARA USE32 PUBLIC 'CODE'
_TEXT	ENDS
;	COMDAT ?pop_back@?$deque@PAUtagACTMSG@@V?$allocator@PAUtagACTMSG@@@std@@@std@@QAEXXZ
_TEXT	SEGMENT PARA USE32 PUBLIC 'CODE'
_TEXT	ENDS
;	COMDAT ??0?$_Deque_map@PAUtagACTMSG@@V?$allocator@PAUtagACTMSG@@@std@@@std@@IAE@V?$allocator@PAUtagACTMSG@@@1@@Z
_TEXT	SEGMENT PARA USE32 PUBLIC 'CODE'
_TEXT	ENDS
;	COMDAT ??0?$allocator@PAUtagACTMSG@@@std@@QAE@ABV01@@Z
_TEXT	SEGMENT PARA USE32 PUBLIC 'CODE'
_TEXT	ENDS
;	COMDAT ?deallocate@?$allocator@PAUtagACTMSG@@@std@@QAEXPAPAUtagACTMSG@@I@Z
_TEXT	SEGMENT PARA USE32 PUBLIC 'CODE'
_TEXT	ENDS
;	COMDAT ?deallocate@?$allocator@PAPAUtagACTMSG@@@std@@QAEXPAPAPAUtagACTMSG@@I@Z
_TEXT	SEGMENT PARA USE32 PUBLIC 'CODE'
_TEXT	ENDS
;	COMDAT ?destroy@?$allocator@PAPAUtagACTMSG@@@std@@QAEXPAPAPAUtagACTMSG@@@Z
_TEXT	SEGMENT PARA USE32 PUBLIC 'CODE'
_TEXT	ENDS
;	COMDAT ?pop_back@?$deque@PAUtagMAGICATKMSG@@V?$allocator@PAUtagMAGICATKMSG@@@std@@@std@@QAEXXZ
_TEXT	SEGMENT PARA USE32 PUBLIC 'CODE'
_TEXT	ENDS
;	COMDAT ??0?$_Deque_map@PAUtagMAGICATKMSG@@V?$allocator@PAUtagMAGICATKMSG@@@std@@@std@@IAE@V?$allocator@PAUtagMAGICATKMSG@@@1@@Z
_TEXT	SEGMENT PARA USE32 PUBLIC 'CODE'
_TEXT	ENDS
;	COMDAT ??0?$allocator@PAUtagMAGICATKMSG@@@std@@QAE@ABV01@@Z
_TEXT	SEGMENT PARA USE32 PUBLIC 'CODE'
_TEXT	ENDS
;	COMDAT ?deallocate@?$allocator@PAUtagMAGICATKMSG@@@std@@QAEXPAPAUtagMAGICATKMSG@@I@Z
_TEXT	SEGMENT PARA USE32 PUBLIC 'CODE'
_TEXT	ENDS
;	COMDAT ?deallocate@?$allocator@PAPAUtagMAGICATKMSG@@@std@@QAEXPAPAPAUtagMAGICATKMSG@@I@Z
_TEXT	SEGMENT PARA USE32 PUBLIC 'CODE'
_TEXT	ENDS
;	COMDAT ?destroy@?$allocator@PAPAUtagMAGICATKMSG@@@std@@QAEXPAPAPAUtagMAGICATKMSG@@@Z
_TEXT	SEGMENT PARA USE32 PUBLIC 'CODE'
_TEXT	ENDS
;	COMDAT ??0const_iterator@?$deque@PAUtagACTMSG@@V?$allocator@PAUtagACTMSG@@@std@@@std@@QAE@IPBV12@@Z
_TEXT	SEGMENT PARA USE32 PUBLIC 'CODE'
_TEXT	ENDS
;	COMDAT ??0const_iterator@?$deque@PAUtagMAGICATKMSG@@V?$allocator@PAUtagMAGICATKMSG@@@std@@@std@@QAE@IPBV12@@Z
_TEXT	SEGMENT PARA USE32 PUBLIC 'CODE'
_TEXT	ENDS
;	COMDAT ??Eiterator@?$_Tree@V?$_Tmap_traits@V?$basic_string@DU?$char_traits@D@std@@V?$allocator@D@2@@std@@PAVCObject3D@@U?$less@V?$basic_string@DU?$char_traits@D@std@@V?$allocator@D@2@@std@@@2@V?$allocator@U?$pair@$$CBV?$basic_string@DU?$char_traits@D@std@@V?$allocator@D@2@@std@@PAVCObject3D@@@std@@@2@$0A@@std@@@std@@QAE?AV012@H@Z
_TEXT	SEGMENT PARA USE32 PUBLIC 'CODE'
_TEXT	ENDS
;	COMDAT ??0const_iterator@?$_Tree@V?$_Tmap_traits@V?$basic_string@DU?$char_traits@D@std@@V?$allocator@D@2@@std@@PAVCObject3D@@U?$less@V?$basic_string@DU?$char_traits@D@std@@V?$allocator@D@2@@std@@@2@V?$allocator@U?$pair@$$CBV?$basic_string@DU?$char_traits@D@std@@V?$allocator@D@2@@std@@PAVCObject3D@@@std@@@2@$0A@@std@@@std@@QAE@PAU_Node@?$_Tree_nod@V?$_Tmap_traits@V?$basic_string@DU?$char_traits@D@std@@V?$allocator@D@2@@std@@PAVCObject3D@@U?$less@V?$basic_string@DU?$char_traits@D@std@@V?$allocator@D@2@@std@@@2@V?$allocator@U?$pair@$$CBV?$basic_string@DU?$char_traits@D@std@@V?$allocator@D@2@@std@@PAVCObject3D@@@std@@@2@$0A@@std@@@2@@Z
_TEXT	SEGMENT PARA USE32 PUBLIC 'CODE'
_TEXT	ENDS
;	COMDAT ??Dconst_iterator@?$_Tree@V?$_Tmap_traits@V?$basic_string@DU?$char_traits@D@std@@V?$allocator@D@2@@std@@PAVCObject3D@@U?$less@V?$basic_string@DU?$char_traits@D@std@@V?$allocator@D@2@@std@@@2@V?$allocator@U?$pair@$$CBV?$basic_string@DU?$char_traits@D@std@@V?$allocator@D@2@@std@@PAVCObject3D@@@std@@@2@$0A@@std@@@std@@QBEABU?$pair@$$CBV?$basic_string@DU?$char_traits@D@std@@V?$allocator@D@2@@std@@PAVCObject3D@@@2@XZ
_TEXT	SEGMENT PARA USE32 PUBLIC 'CODE'
_TEXT	ENDS
;	COMDAT ??Fconst_iterator@?$_Tree@V?$_Tmap_traits@V?$basic_string@DU?$char_traits@D@std@@V?$allocator@D@2@@std@@PAVCObject3D@@U?$less@V?$basic_string@DU?$char_traits@D@std@@V?$allocator@D@2@@std@@@2@V?$allocator@U?$pair@$$CBV?$basic_string@DU?$char_traits@D@std@@V?$allocator@D@2@@std@@PAVCObject3D@@@std@@@2@$0A@@std@@@std@@QAEAAV012@XZ
_TEXT	SEGMENT PARA USE32 PUBLIC 'CODE'
_TEXT	ENDS
;	COMDAT ?_Inc@const_iterator@?$_Tree@V?$_Tmap_traits@V?$basic_string@DU?$char_traits@D@std@@V?$allocator@D@2@@std@@PAVCObject3D@@U?$less@V?$basic_string@DU?$char_traits@D@std@@V?$allocator@D@2@@std@@@2@V?$allocator@U?$pair@$$CBV?$basic_string@DU?$char_traits@D@std@@V?$allocator@D@2@@std@@PAVCObject3D@@@std@@@2@$0A@@std@@@std@@QAEXXZ
_TEXT	SEGMENT PARA USE32 PUBLIC 'CODE'
_TEXT	ENDS
;	COMDAT ??0?$pair@Viterator@?$_Tree@V?$_Tmap_traits@V?$basic_string@DU?$char_traits@D@std@@V?$allocator@D@2@@std@@PAVCObject3D@@U?$less@V?$basic_string@DU?$char_traits@D@std@@V?$allocator@D@2@@std@@@2@V?$allocator@U?$pair@$$CBV?$basic_string@DU?$char_traits@D@std@@V?$allocator@D@2@@std@@PAVCObject3D@@@std@@@2@$0A@@std@@@std@@V123@@std@@QAE@ABViterator@?$_Tree@V?$_Tmap_traits@V?$basic_string@DU?$char_traits@D@std@@V?$allocator@D@2@@std@@PAVCObject3D@@U?$less@V?$basic_string@DU?$char_traits@D@std@@V?$allocator@D@2@@std@@@2@V?$allocator@U?$pair@$$CBV?$basic_string@DU?$char_traits@D@std@@V?$allocator@D@2@@std@@PAVCObject3D@@@std@@@2@$0A@@std@@@1@0@Z
_TEXT	SEGMENT PARA USE32 PUBLIC 'CODE'
_TEXT	ENDS
;	COMDAT ?_Max@?$_Tree@V?$_Tmap_traits@V?$basic_string@DU?$char_traits@D@std@@V?$allocator@D@2@@std@@PAVCObject3D@@U?$less@V?$basic_string@DU?$char_traits@D@std@@V?$allocator@D@2@@std@@@2@V?$allocator@U?$pair@$$CBV?$basic_string@DU?$char_traits@D@std@@V?$allocator@D@2@@std@@PAVCObject3D@@@std@@@2@$0A@@std@@@std@@KAPAU_Node@?$_Tree_nod@V?$_Tmap_traits@V?$basic_string@DU?$char_traits@D@std@@V?$allocator@D@2@@std@@PAVCObject3D@@U?$less@V?$basic_string@DU?$char_traits@D@std@@V?$allocator@D@2@@std@@@2@V?$allocator@U?$pair@$$CBV?$basic_string@DU?$char_traits@D@std@@V?$allocator@D@2@@std@@PAVCObject3D@@@std@@@2@$0A@@std@@@2@PAU342@@Z
_TEXT	SEGMENT PARA USE32 PUBLIC 'CODE'
_TEXT	ENDS
;	COMDAT ?_Min@?$_Tree@V?$_Tmap_traits@V?$basic_string@DU?$char_traits@D@std@@V?$allocator@D@2@@std@@PAVCObject3D@@U?$less@V?$basic_string@DU?$char_traits@D@std@@V?$allocator@D@2@@std@@@2@V?$allocator@U?$pair@$$CBV?$basic_string@DU?$char_traits@D@std@@V?$allocator@D@2@@std@@PAVCObject3D@@@std@@@2@$0A@@std@@@std@@KAPAU_Node@?$_Tree_nod@V?$_Tmap_traits@V?$basic_string@DU?$char_traits@D@std@@V?$allocator@D@2@@std@@PAVCObject3D@@U?$less@V?$basic_string@DU?$char_traits@D@std@@V?$allocator@D@2@@std@@@2@V?$allocator@U?$pair@$$CBV?$basic_string@DU?$char_traits@D@std@@V?$allocator@D@2@@std@@PAVCObject3D@@@std@@@2@$0A@@std@@@2@PAU342@@Z
_TEXT	SEGMENT PARA USE32 PUBLIC 'CODE'
_TEXT	ENDS
;	COMDAT ?_Root@?$_Tree@V?$_Tmap_traits@V?$basic_string@DU?$char_traits@D@std@@V?$allocator@D@2@@std@@PAVCObject3D@@U?$less@V?$basic_string@DU?$char_traits@D@std@@V?$allocator@D@2@@std@@@2@V?$allocator@U?$pair@$$CBV?$basic_string@DU?$char_traits@D@std@@V?$allocator@D@2@@std@@PAVCObject3D@@@std@@@2@$0A@@std@@@std@@IBEAAPAU_Node@?$_Tree_nod@V?$_Tmap_traits@V?$basic_string@DU?$char_traits@D@std@@V?$allocator@D@2@@std@@PAVCObject3D@@U?$less@V?$basic_string@DU?$char_traits@D@std@@V?$allocator@D@2@@std@@@2@V?$allocator@U?$pair@$$CBV?$basic_string@DU?$char_traits@D@std@@V?$allocator@D@2@@std@@PAVCObject3D@@@std@@@2@$0A@@std@@@2@XZ
_TEXT	SEGMENT PARA USE32 PUBLIC 'CODE'
_TEXT	ENDS
;	COMDAT ?_Ubound@?$_Tree@V?$_Tmap_traits@V?$basic_string@DU?$char_traits@D@std@@V?$allocator@D@2@@std@@PAVCObject3D@@U?$less@V?$basic_string@DU?$char_traits@D@std@@V?$allocator@D@2@@std@@@2@V?$allocator@U?$pair@$$CBV?$basic_string@DU?$char_traits@D@std@@V?$allocator@D@2@@std@@PAVCObject3D@@@std@@@2@$0A@@std@@@std@@IBEPAU_Node@?$_Tree_nod@V?$_Tmap_traits@V?$basic_string@DU?$char_traits@D@std@@V?$allocator@D@2@@std@@PAVCObject3D@@U?$less@V?$basic_string@DU?$char_traits@D@std@@V?$allocator@D@2@@std@@@2@V?$allocator@U?$pair@$$CBV?$basic_string@DU?$char_traits@D@std@@V?$allocator@D@2@@std@@PAVCObject3D@@@std@@@2@$0A@@std@@@2@ABV?$basic_string@DU?$char_traits@D@std@@V?$allocator@D@2@@2@@Z
_TEXT	SEGMENT PARA USE32 PUBLIC 'CODE'
_TEXT	ENDS
;	COMDAT ?_Buynode@?$_Tree@V?$_Tmap_traits@V?$basic_string@DU?$char_traits@D@std@@V?$allocator@D@2@@std@@PAVCObject3D@@U?$less@V?$basic_string@DU?$char_traits@D@std@@V?$allocator@D@2@@std@@@2@V?$allocator@U?$pair@$$CBV?$basic_string@DU?$char_traits@D@std@@V?$allocator@D@2@@std@@PAVCObject3D@@@std@@@2@$0A@@std@@@std@@IAEPAU_Node@?$_Tree_nod@V?$_Tmap_traits@V?$basic_string@DU?$char_traits@D@std@@V?$allocator@D@2@@std@@PAVCObject3D@@U?$less@V?$basic_string@DU?$char_traits@D@std@@V?$allocator@D@2@@std@@@2@V?$allocator@U?$pair@$$CBV?$basic_string@DU?$char_traits@D@std@@V?$allocator@D@2@@std@@PAVCObject3D@@@std@@@2@$0A@@std@@@2@XZ
_TEXT	SEGMENT PARA USE32 PUBLIC 'CODE'
_TEXT	ENDS
;	COMDAT ??0?$_Tree_ptr@V?$_Tmap_traits@V?$basic_string@DU?$char_traits@D@std@@V?$allocator@D@2@@std@@PAVCObject3D@@U?$less@V?$basic_string@DU?$char_traits@D@std@@V?$allocator@D@2@@std@@@2@V?$allocator@U?$pair@$$CBV?$basic_string@DU?$char_traits@D@std@@V?$allocator@D@2@@std@@PAVCObject3D@@@std@@@2@$0A@@std@@@std@@IAE@ABU?$less@V?$basic_string@DU?$char_traits@D@std@@V?$allocator@D@2@@std@@@1@V?$allocator@U?$pair@$$CBV?$basic_string@DU?$char_traits@D@std@@V?$allocator@D@2@@std@@PAVCObject3D@@@std@@@1@@Z
_TEXT	SEGMENT PARA USE32 PUBLIC 'CODE'
_TEXT	ENDS
;	COMDAT ?max_size@?$allocator@U?$pair@$$CBV?$basic_string@DU?$char_traits@D@std@@V?$allocator@D@2@@std@@PAVCObject3D@@@std@@@std@@QBEIXZ
_TEXT	SEGMENT PARA USE32 PUBLIC 'CODE'
_TEXT	ENDS
;	COMDAT ?allocate@?$allocator@U_Node@?$_Tree_nod@V?$_Tmap_traits@V?$basic_string@DU?$char_traits@D@std@@V?$allocator@D@2@@std@@PAVCObject3D@@U?$less@V?$basic_string@DU?$char_traits@D@std@@V?$allocator@D@2@@std@@@2@V?$allocator@U?$pair@$$CBV?$basic_string@DU?$char_traits@D@std@@V?$allocator@D@2@@std@@PAVCObject3D@@@std@@@2@$0A@@std@@@std@@@std@@QAEPAU_Node@?$_Tree_nod@V?$_Tmap_traits@V?$basic_string@DU?$char_traits@D@std@@V?$allocator@D@2@@std@@PAVCObject3D@@U?$less@V?$basic_string@DU?$char_traits@D@std@@V?$allocator@D@2@@std@@@2@V?$allocator@U?$pair@$$CBV?$basic_string@DU?$char_traits@D@std@@V?$allocator@D@2@@std@@PAVCObject3D@@@std@@@2@$0A@@std@@@2@I@Z
_TEXT	SEGMENT PARA USE32 PUBLIC 'CODE'
_TEXT	ENDS
;	COMDAT ?destroy@?$allocator@PAUtagACTMSG@@@std@@QAEXPAPAUtagACTMSG@@@Z
_TEXT	SEGMENT PARA USE32 PUBLIC 'CODE'
_TEXT	ENDS
;	COMDAT ?destroy@?$allocator@PAUtagMAGICATKMSG@@@std@@QAEXPAPAUtagMAGICATKMSG@@@Z
_TEXT	SEGMENT PARA USE32 PUBLIC 'CODE'
_TEXT	ENDS
;	COMDAT ?_Dec@const_iterator@?$_Tree@V?$_Tmap_traits@V?$basic_string@DU?$char_traits@D@std@@V?$allocator@D@2@@std@@PAVCObject3D@@U?$less@V?$basic_string@DU?$char_traits@D@std@@V?$allocator@D@2@@std@@@2@V?$allocator@U?$pair@$$CBV?$basic_string@DU?$char_traits@D@std@@V?$allocator@D@2@@std@@PAVCObject3D@@@std@@@2@$0A@@std@@@std@@QAEXXZ
_TEXT	SEGMENT PARA USE32 PUBLIC 'CODE'
_TEXT	ENDS
;	COMDAT ??0_Node@?$_Tree_nod@V?$_Tmap_traits@V?$basic_string@DU?$char_traits@D@std@@V?$allocator@D@2@@std@@PAVCObject3D@@U?$less@V?$basic_string@DU?$char_traits@D@std@@V?$allocator@D@2@@std@@@2@V?$allocator@U?$pair@$$CBV?$basic_string@DU?$char_traits@D@std@@V?$allocator@D@2@@std@@PAVCObject3D@@@std@@@2@$0A@@std@@@std@@QAE@PAU012@00ABU?$pair@$$CBV?$basic_string@DU?$char_traits@D@std@@V?$allocator@D@2@@std@@PAVCObject3D@@@2@D@Z
_TEXT	SEGMENT PARA USE32 PUBLIC 'CODE'
_TEXT	ENDS
;	COMDAT ??0?$pair@$$CBV?$basic_string@DU?$char_traits@D@std@@V?$allocator@D@2@@std@@PAVCObject3D@@@std@@QAE@ABU01@@Z
_TEXT	SEGMENT PARA USE32 PUBLIC 'CODE'
_TEXT	ENDS
;	COMDAT ??0?$_Tree_nod@V?$_Tmap_traits@V?$basic_string@DU?$char_traits@D@std@@V?$allocator@D@2@@std@@PAVCObject3D@@U?$less@V?$basic_string@DU?$char_traits@D@std@@V?$allocator@D@2@@std@@@2@V?$allocator@U?$pair@$$CBV?$basic_string@DU?$char_traits@D@std@@V?$allocator@D@2@@std@@PAVCObject3D@@@std@@@2@$0A@@std@@@std@@IAE@ABU?$less@V?$basic_string@DU?$char_traits@D@std@@V?$allocator@D@2@@std@@@1@V?$allocator@U?$pair@$$CBV?$basic_string@DU?$char_traits@D@std@@V?$allocator@D@2@@std@@PAVCObject3D@@@std@@@1@@Z
_TEXT	SEGMENT PARA USE32 PUBLIC 'CODE'
_TEXT	ENDS
;	COMDAT ?construct@?$allocator@PAU_Node@?$_Tree_nod@V?$_Tmap_traits@V?$basic_string@DU?$char_traits@D@std@@V?$allocator@D@2@@std@@PAVCObject3D@@U?$less@V?$basic_string@DU?$char_traits@D@std@@V?$allocator@D@2@@std@@@2@V?$allocator@U?$pair@$$CBV?$basic_string@DU?$char_traits@D@std@@V?$allocator@D@2@@std@@PAVCObject3D@@@std@@@2@$0A@@std@@@std@@@std@@QAEXPAPAU_Node@?$_Tree_nod@V?$_Tmap_traits@V?$basic_string@DU?$char_traits@D@std@@V?$allocator@D@2@@std@@PAVCObject3D@@U?$less@V?$basic_string@DU?$char_traits@D@std@@V?$allocator@D@2@@std@@@2@V?$allocator@U?$pair@$$CBV?$basic_string@DU?$char_traits@D@std@@V?$allocator@D@2@@std@@PAVCObject3D@@@std@@@2@$0A@@std@@@2@ABQAU342@@Z
_TEXT	SEGMENT PARA USE32 PUBLIC 'CODE'
_TEXT	ENDS
;	COMDAT ??0?$_Tmap_traits@V?$basic_string@DU?$char_traits@D@std@@V?$allocator@D@2@@std@@PAVCObject3D@@U?$less@V?$basic_string@DU?$char_traits@D@std@@V?$allocator@D@2@@std@@@2@V?$allocator@U?$pair@$$CBV?$basic_string@DU?$char_traits@D@std@@V?$allocator@D@2@@std@@PAVCObject3D@@@std@@@2@$0A@@std@@QAE@U?$less@V?$basic_string@DU?$char_traits@D@std@@V?$allocator@D@2@@std@@@1@@Z
_TEXT	SEGMENT PARA USE32 PUBLIC 'CODE'
_TEXT	ENDS
;	COMDAT ??$_Iter_cat@Vconst_iterator@?$vector@EV?$allocator@E@std@@@std@@@std@@YA?AUrandom_access_iterator_tag@0@ABVconst_iterator@?$vector@EV?$allocator@E@std@@@0@@Z
_TEXT	SEGMENT PARA USE32 PUBLIC 'CODE'
_TEXT	ENDS
;	COMDAT ??$_Assign@Vconst_iterator@?$vector@EV?$allocator@E@std@@@std@@@?$vector@EV?$allocator@E@std@@@std@@QAEXVconst_iterator@01@0Uinput_iterator_tag@1@@Z
_TEXT	SEGMENT PARA USE32 PUBLIC 'CODE'
_TEXT	ENDS
;	COMDAT ??$_Iter_cat@Viterator@?$_Tree@V?$_Tmap_traits@KPAVCUser@@U?$less@K@std@@V?$allocator@U?$pair@$$CBKPAVCUser@@@std@@@3@$0A@@std@@@std@@@std@@YA?AUbidirectional_iterator_tag@0@ABViterator@?$_Tree@V?$_Tmap_traits@KPAVCUser@@U?$less@K@std@@V?$allocator@U?$pair@$$CBKPAVCUser@@@std@@@3@$0A@@std@@@0@@Z
_TEXT	SEGMENT PARA USE32 PUBLIC 'CODE'
_TEXT	ENDS
;	COMDAT ??$_Distance2@Viterator@?$_Tree@V?$_Tmap_traits@KPAVCUser@@U?$less@K@std@@V?$allocator@U?$pair@$$CBKPAVCUser@@@std@@@3@$0A@@std@@@std@@I@std@@YAXViterator@?$_Tree@V?$_Tmap_traits@KPAVCUser@@U?$less@K@std@@V?$allocator@U?$pair@$$CBKPAVCUser@@@std@@@3@$0A@@std@@@0@0AAIUbidirectional_iterator_tag@0@@Z
_TEXT	SEGMENT PARA USE32 PUBLIC 'CODE'
_TEXT	ENDS
;	COMDAT ??$_Iter_cat@Viterator@?$_Tree@V?$_Tmap_traits@KPAVCCtrl@@U?$less@K@std@@V?$allocator@U?$pair@$$CBKPAVCCtrl@@@std@@@3@$0A@@std@@@std@@@std@@YA?AUbidirectional_iterator_tag@0@ABViterator@?$_Tree@V?$_Tmap_traits@KPAVCCtrl@@U?$less@K@std@@V?$allocator@U?$pair@$$CBKPAVCCtrl@@@std@@@3@$0A@@std@@@0@@Z
_TEXT	SEGMENT PARA USE32 PUBLIC 'CODE'
_TEXT	ENDS
;	COMDAT ??$_Distance2@Viterator@?$_Tree@V?$_Tmap_traits@KPAVCCtrl@@U?$less@K@std@@V?$allocator@U?$pair@$$CBKPAVCCtrl@@@std@@@3@$0A@@std@@@std@@I@std@@YAXViterator@?$_Tree@V?$_Tmap_traits@KPAVCCtrl@@U?$less@K@std@@V?$allocator@U?$pair@$$CBKPAVCCtrl@@@std@@@3@$0A@@std@@@0@0AAIUbidirectional_iterator_tag@0@@Z
_TEXT	SEGMENT PARA USE32 PUBLIC 'CODE'
_TEXT	ENDS
;	COMDAT ??$_Uninitialized_copy@Vconst_iterator@?$vector@EV?$allocator@E@std@@@std@@PAEV?$allocator@E@3@@std@@YAPAEVconst_iterator@?$vector@EV?$allocator@E@std@@@0@0PAEAAV?$allocator@E@0@@Z
_TEXT	SEGMENT PARA USE32 PUBLIC 'CODE'
_TEXT	ENDS
;	COMDAT ??$_Iter_cat@Viterator@?$_Tree@V?$_Tmap_traits@KEU?$less@K@std@@V?$allocator@U?$pair@$$CBKE@std@@@2@$0A@@std@@@std@@@std@@YA?AUbidirectional_iterator_tag@0@ABViterator@?$_Tree@V?$_Tmap_traits@KEU?$less@K@std@@V?$allocator@U?$pair@$$CBKE@std@@@2@$0A@@std@@@0@@Z
_TEXT	SEGMENT PARA USE32 PUBLIC 'CODE'
_TEXT	ENDS
;	COMDAT ??$_Distance2@Viterator@?$_Tree@V?$_Tmap_traits@KEU?$less@K@std@@V?$allocator@U?$pair@$$CBKE@std@@@2@$0A@@std@@@std@@I@std@@YAXViterator@?$_Tree@V?$_Tmap_traits@KEU?$less@K@std@@V?$allocator@U?$pair@$$CBKE@std@@@2@$0A@@std@@@0@0AAIUbidirectional_iterator_tag@0@@Z
_TEXT	SEGMENT PARA USE32 PUBLIC 'CODE'
_TEXT	ENDS
;	COMDAT ??$_Ptr_cat@PAU__SPAWNREGION@CEventLua@@PAU12@@std@@YA?AU_Nonscalar_ptr_iterator_tag@0@AAPAU__SPAWNREGION@CEventLua@@0@Z
_TEXT	SEGMENT PARA USE32 PUBLIC 'CODE'
_TEXT	ENDS
;	COMDAT ??$_Uninit_fill_n@PAU__SPAWNREGION@CEventLua@@IU12@V?$allocator@U__SPAWNREGION@CEventLua@@@std@@@std@@YAXPAU__SPAWNREGION@CEventLua@@IABU12@AAV?$allocator@U__SPAWNREGION@CEventLua@@@0@U_Nonscalar_ptr_iterator_tag@0@@Z
_TEXT	SEGMENT PARA USE32 PUBLIC 'CODE'
_TEXT	ENDS
;	COMDAT ??$_Copy_opt@PAJPAJ@std@@YAPAJPAJ00U_Scalar_ptr_iterator_tag@0@@Z
_TEXT	SEGMENT PARA USE32 PUBLIC 'CODE'
_TEXT	ENDS
;	COMDAT ??$_Uninitialized_copy@PAJPAJV?$allocator@J@std@@@std@@YAPAJPAJ00AAV?$allocator@J@0@@Z
_TEXT	SEGMENT PARA USE32 PUBLIC 'CODE'
_TEXT	ENDS
;	COMDAT ??$_Copy_backward_opt@PAJPAJ@std@@YAPAJPAJ00U_Scalar_ptr_iterator_tag@0@@Z
_TEXT	SEGMENT PARA USE32 PUBLIC 'CODE'
_TEXT	ENDS
;	COMDAT ??$_Ptr_cat@PAUtagDROPITEM@@PAU1@@std@@YA?AU_Nonscalar_ptr_iterator_tag@0@AAPAUtagDROPITEM@@0@Z
_TEXT	SEGMENT PARA USE32 PUBLIC 'CODE'
_TEXT	ENDS
;	COMDAT ??$_Destroy_range@UtagDROPITEM@@V?$allocator@UtagDROPITEM@@@std@@@std@@YAXPAUtagDROPITEM@@0AAV?$allocator@UtagDROPITEM@@@0@U_Nonscalar_ptr_iterator_tag@0@@Z
_TEXT	SEGMENT PARA USE32 PUBLIC 'CODE'
_TEXT	ENDS
;	COMDAT ??$_Ptr_cat@PAUWORMON@@PAU1@@std@@YA?AU_Nonscalar_ptr_iterator_tag@0@AAPAUWORMON@@0@Z
_TEXT	SEGMENT PARA USE32 PUBLIC 'CODE'
_TEXT	ENDS
;	COMDAT ??$_Destroy_range@UWORMON@@V?$allocator@UWORMON@@@std@@@std@@YAXPAUWORMON@@0AAV?$allocator@UWORMON@@@0@U_Nonscalar_ptr_iterator_tag@0@@Z
_TEXT	SEGMENT PARA USE32 PUBLIC 'CODE'
_TEXT	ENDS
;	COMDAT ??$_Ptr_cat@PAU__ITEMGAME@CMiniGame@@PAU12@@std@@YA?AU_Nonscalar_ptr_iterator_tag@0@AAPAU__ITEMGAME@CMiniGame@@0@Z
_TEXT	SEGMENT PARA USE32 PUBLIC 'CODE'
_TEXT	ENDS
;	COMDAT ??$_Destroy_range@U__ITEMGAME@CMiniGame@@V?$allocator@U__ITEMGAME@CMiniGame@@@std@@@std@@YAXPAU__ITEMGAME@CMiniGame@@0AAV?$allocator@U__ITEMGAME@CMiniGame@@@0@U_Nonscalar_ptr_iterator_tag@0@@Z
_TEXT	SEGMENT PARA USE32 PUBLIC 'CODE'
_TEXT	ENDS
;	COMDAT ??$_Destroy_range@KV?$allocator@K@std@@@std@@YAXPAK0AAV?$allocator@K@0@U_Scalar_ptr_iterator_tag@0@@Z
_TEXT	SEGMENT PARA USE32 PUBLIC 'CODE'
_TEXT	ENDS
;	COMDAT ??$_Destroy_range@HV?$allocator@H@std@@@std@@YAXPAH0AAV?$allocator@H@0@U_Scalar_ptr_iterator_tag@0@@Z
_TEXT	SEGMENT PARA USE32 PUBLIC 'CODE'
_TEXT	ENDS
;	COMDAT ??$_Ptr_cat@PAU__ITEM@CExchange@@PAU12@@std@@YA?AU_Nonscalar_ptr_iterator_tag@0@AAPAU__ITEM@CExchange@@0@Z
_TEXT	SEGMENT PARA USE32 PUBLIC 'CODE'
_TEXT	ENDS
;	COMDAT ??$_Destroy_range@U__ITEM@CExchange@@V?$allocator@U__ITEM@CExchange@@@std@@@std@@YAXPAU__ITEM@CExchange@@0AAV?$allocator@U__ITEM@CExchange@@@0@U_Nonscalar_ptr_iterator_tag@0@@Z
_TEXT	SEGMENT PARA USE32 PUBLIC 'CODE'
_TEXT	ENDS
;	COMDAT ??$_Ptr_cat@PAU__POINT@CExchange@@PAU12@@std@@YA?AU_Nonscalar_ptr_iterator_tag@0@AAPAU__POINT@CExchange@@0@Z
_TEXT	SEGMENT PARA USE32 PUBLIC 'CODE'
_TEXT	ENDS
;	COMDAT ??$_Destroy_range@U__POINT@CExchange@@V?$allocator@U__POINT@CExchange@@@std@@@std@@YAXPAU__POINT@CExchange@@0AAV?$allocator@U__POINT@CExchange@@@0@U_Nonscalar_ptr_iterator_tag@0@@Z
_TEXT	SEGMENT PARA USE32 PUBLIC 'CODE'
_TEXT	ENDS
;	COMDAT ??$_Destroy_range@EV?$allocator@E@std@@@std@@YAXPAE0AAV?$allocator@E@0@U_Scalar_ptr_iterator_tag@0@@Z
_TEXT	SEGMENT PARA USE32 PUBLIC 'CODE'
_TEXT	ENDS
;	COMDAT ??$_Uninitialized_copy@PAU__SPAWNREGION@CEventLua@@PAU12@V?$allocator@U__SPAWNREGION@CEventLua@@@std@@@std@@YAPAU__SPAWNREGION@CEventLua@@PAU12@00AAV?$allocator@U__SPAWNREGION@CEventLua@@@0@@Z
_TEXT	SEGMENT PARA USE32 PUBLIC 'CODE'
_TEXT	ENDS
;	COMDAT ??$_Copy_backward_opt@PAU__SPAWNREGION@CEventLua@@PAU12@@std@@YAPAU__SPAWNREGION@CEventLua@@PAU12@00U_Nonscalar_ptr_iterator_tag@0@@Z
_TEXT	SEGMENT PARA USE32 PUBLIC 'CODE'
_TEXT	ENDS
;	COMDAT ??$_Ptr_cat@PAUD3DXVECTOR3@@PAU1@@std@@YA?AU_Nonscalar_ptr_iterator_tag@0@AAPAUD3DXVECTOR3@@0@Z
_TEXT	SEGMENT PARA USE32 PUBLIC 'CODE'
_TEXT	ENDS
;	COMDAT ??$_Destroy_range@UD3DXVECTOR3@@V?$allocator@UD3DXVECTOR3@@@std@@@std@@YAXPAUD3DXVECTOR3@@0AAV?$allocator@UD3DXVECTOR3@@@0@U_Nonscalar_ptr_iterator_tag@0@@Z
_TEXT	SEGMENT PARA USE32 PUBLIC 'CODE'
_TEXT	ENDS
;	COMDAT ??$_Ptr_cat@PAU_GIFTBOX@@PAU1@@std@@YA?AU_Nonscalar_ptr_iterator_tag@0@AAPAU_GIFTBOX@@0@Z
_TEXT	SEGMENT PARA USE32 PUBLIC 'CODE'
_TEXT	ENDS
;	COMDAT ??$_Destroy_range@U_GIFTBOX@@V?$allocator@U_GIFTBOX@@@std@@@std@@YAXPAU_GIFTBOX@@0AAV?$allocator@U_GIFTBOX@@@0@U_Nonscalar_ptr_iterator_tag@0@@Z
_TEXT	SEGMENT PARA USE32 PUBLIC 'CODE'
_TEXT	ENDS
;	COMDAT ??$_Destroy_range@JV?$allocator@J@std@@@std@@YAXPAJ0AAV?$allocator@J@0@U_Scalar_ptr_iterator_tag@0@@Z
_TEXT	SEGMENT PARA USE32 PUBLIC 'CODE'
_TEXT	ENDS
;	COMDAT ??$_Uninit_fill_n@JIJ@std@@YAXPAJIABJAAV?$allocator@J@0@U_Scalar_ptr_iterator_tag@0@@Z
_TEXT	SEGMENT PARA USE32 PUBLIC 'CODE'
_TEXT	ENDS
;	COMDAT ??$_Destroy_range@U__SPAWNREGION@CEventLua@@V?$allocator@U__SPAWNREGION@CEventLua@@@std@@@std@@YAXPAU__SPAWNREGION@CEventLua@@0AAV?$allocator@U__SPAWNREGION@CEventLua@@@0@U_Nonscalar_ptr_iterator_tag@0@@Z
_TEXT	SEGMENT PARA USE32 PUBLIC 'CODE'
_TEXT	ENDS
;	COMDAT ??$_Distance@Viterator@?$_Tree@V?$_Tmap_traits@V?$basic_string@DU?$char_traits@D@std@@V?$allocator@D@2@@std@@PAVCObject3D@@U?$less@V?$basic_string@DU?$char_traits@D@std@@V?$allocator@D@2@@std@@@2@V?$allocator@U?$pair@$$CBV?$basic_string@DU?$char_traits@D@std@@V?$allocator@D@2@@std@@PAVCObject3D@@@std@@@2@$0A@@std@@@std@@I@std@@YAXViterator@?$_Tree@V?$_Tmap_traits@V?$basic_string@DU?$char_traits@D@std@@V?$allocator@D@2@@std@@PAVCObject3D@@U?$less@V?$basic_string@DU?$char_traits@D@std@@V?$allocator@D@2@@std@@@2@V?$allocator@U?$pair@$$CBV?$basic_string@DU?$char_traits@D@std@@V?$allocator@D@2@@std@@PAVCObject3D@@@std@@@2@$0A@@std@@@0@0AAI@Z
_TEXT	SEGMENT PARA USE32 PUBLIC 'CODE'
_TEXT	ENDS
;	COMDAT ??$_Destroy@U_Node@?$_Tree_nod@V?$_Tmap_traits@V?$basic_string@DU?$char_traits@D@std@@V?$allocator@D@2@@std@@PAVCObject3D@@U?$less@V?$basic_string@DU?$char_traits@D@std@@V?$allocator@D@2@@std@@@2@V?$allocator@U?$pair@$$CBV?$basic_string@DU?$char_traits@D@std@@V?$allocator@D@2@@std@@PAVCObject3D@@@std@@@2@$0A@@std@@@std@@@std@@YAXPAU_Node@?$_Tree_nod@V?$_Tmap_traits@V?$basic_string@DU?$char_traits@D@std@@V?$allocator@D@2@@std@@PAVCObject3D@@U?$less@V?$basic_string@DU?$char_traits@D@std@@V?$allocator@D@2@@std@@@2@V?$allocator@U?$pair@$$CBV?$basic_string@DU?$char_traits@D@std@@V?$allocator@D@2@@std@@PAVCObject3D@@@std@@@2@$0A@@std@@@0@@Z
_TEXT	SEGMENT PARA USE32 PUBLIC 'CODE'
_TEXT	ENDS
;	COMDAT ??$_Destroy@PAU_Node@?$_Tree_nod@V?$_Tmap_traits@V?$basic_string@DU?$char_traits@D@std@@V?$allocator@D@2@@std@@PAVCObject3D@@U?$less@V?$basic_string@DU?$char_traits@D@std@@V?$allocator@D@2@@std@@@2@V?$allocator@U?$pair@$$CBV?$basic_string@DU?$char_traits@D@std@@V?$allocator@D@2@@std@@PAVCObject3D@@@std@@@2@$0A@@std@@@std@@@std@@YAXPAPAU_Node@?$_Tree_nod@V?$_Tmap_traits@V?$basic_string@DU?$char_traits@D@std@@V?$allocator@D@2@@std@@PAVCObject3D@@U?$less@V?$basic_string@DU?$char_traits@D@std@@V?$allocator@D@2@@std@@@2@V?$allocator@U?$pair@$$CBV?$basic_string@DU?$char_traits@D@std@@V?$allocator@D@2@@std@@PAVCObject3D@@@std@@@2@$0A@@std@@@0@@Z
_TEXT	SEGMENT PARA USE32 PUBLIC 'CODE'
_TEXT	ENDS
;	COMDAT ??$?0PAUtagACTMSG@@@?$allocator@PAPAUtagACTMSG@@@std@@QAE@ABV?$allocator@PAUtagACTMSG@@@1@@Z
_TEXT	SEGMENT PARA USE32 PUBLIC 'CODE'
_TEXT	ENDS
;	COMDAT ??$_Destroy@PAPAUtagACTMSG@@@std@@YAXPAPAPAUtagACTMSG@@@Z
_TEXT	SEGMENT PARA USE32 PUBLIC 'CODE'
_TEXT	ENDS
;	COMDAT ??$?0PAUtagMAGICATKMSG@@@?$allocator@PAPAUtagMAGICATKMSG@@@std@@QAE@ABV?$allocator@PAUtagMAGICATKMSG@@@1@@Z
_TEXT	SEGMENT PARA USE32 PUBLIC 'CODE'
_TEXT	ENDS
;	COMDAT ??$_Destroy@PAPAUtagMAGICATKMSG@@@std@@YAXPAPAPAUtagMAGICATKMSG@@@Z
_TEXT	SEGMENT PARA USE32 PUBLIC 'CODE'
_TEXT	ENDS
;	COMDAT ??$?0U?$pair@$$CBV?$basic_string@DU?$char_traits@D@std@@V?$allocator@D@2@@std@@PAVCObject3D@@@std@@@?$allocator@PAU_Node@?$_Tree_nod@V?$_Tmap_traits@V?$basic_string@DU?$char_traits@D@std@@V?$allocator@D@2@@std@@PAVCObject3D@@U?$less@V?$basic_string@DU?$char_traits@D@std@@V?$allocator@D@2@@std@@@2@V?$allocator@U?$pair@$$CBV?$basic_string@DU?$char_traits@D@std@@V?$allocator@D@2@@std@@PAVCObject3D@@@std@@@2@$0A@@std@@@std@@@std@@QAE@ABV?$allocator@U?$pair@$$CBV?$basic_string@DU?$char_traits@D@std@@V?$allocator@D@2@@std@@PAVCObject3D@@@std@@@1@@Z
_TEXT	SEGMENT PARA USE32 PUBLIC 'CODE'
_TEXT	ENDS
;	COMDAT ??$_Allocate@U_Node@?$_Tree_nod@V?$_Tmap_traits@V?$basic_string@DU?$char_traits@D@std@@V?$allocator@D@2@@std@@PAVCObject3D@@U?$less@V?$basic_string@DU?$char_traits@D@std@@V?$allocator@D@2@@std@@@2@V?$allocator@U?$pair@$$CBV?$basic_string@DU?$char_traits@D@std@@V?$allocator@D@2@@std@@PAVCObject3D@@@std@@@2@$0A@@std@@@std@@@std@@YAPAU_Node@?$_Tree_nod@V?$_Tmap_traits@V?$basic_string@DU?$char_traits@D@std@@V?$allocator@D@2@@std@@PAVCObject3D@@U?$less@V?$basic_string@DU?$char_traits@D@std@@V?$allocator@D@2@@std@@@2@V?$allocator@U?$pair@$$CBV?$basic_string@DU?$char_traits@D@std@@V?$allocator@D@2@@std@@PAVCObject3D@@@std@@@2@$0A@@std@@@0@IPAU120@@Z
_TEXT	SEGMENT PARA USE32 PUBLIC 'CODE'
_TEXT	ENDS
;	COMDAT ??$_Destroy@PAUtagACTMSG@@@std@@YAXPAPAUtagACTMSG@@@Z
_TEXT	SEGMENT PARA USE32 PUBLIC 'CODE'
_TEXT	ENDS
;	COMDAT ??$_Destroy@PAUtagMAGICATKMSG@@@std@@YAXPAPAUtagMAGICATKMSG@@@Z
_TEXT	SEGMENT PARA USE32 PUBLIC 'CODE'
_TEXT	ENDS
;	COMDAT ??$?0U?$pair@$$CBV?$basic_string@DU?$char_traits@D@std@@V?$allocator@D@2@@std@@PAVCObject3D@@@std@@@?$allocator@U_Node@?$_Tree_nod@V?$_Tmap_traits@V?$basic_string@DU?$char_traits@D@std@@V?$allocator@D@2@@std@@PAVCObject3D@@U?$less@V?$basic_string@DU?$char_traits@D@std@@V?$allocator@D@2@@std@@@2@V?$allocator@U?$pair@$$CBV?$basic_string@DU?$char_traits@D@std@@V?$allocator@D@2@@std@@PAVCObject3D@@@std@@@2@$0A@@std@@@std@@@std@@QAE@ABV?$allocator@U?$pair@$$CBV?$basic_string@DU?$char_traits@D@std@@V?$allocator@D@2@@std@@PAVCObject3D@@@std@@@1@@Z
_TEXT	SEGMENT PARA USE32 PUBLIC 'CODE'
_TEXT	ENDS
;	COMDAT ??$_Construct@PAU_Node@?$_Tree_nod@V?$_Tmap_traits@V?$basic_string@DU?$char_traits@D@std@@V?$allocator@D@2@@std@@PAVCObject3D@@U?$less@V?$basic_string@DU?$char_traits@D@std@@V?$allocator@D@2@@std@@@2@V?$allocator@U?$pair@$$CBV?$basic_string@DU?$char_traits@D@std@@V?$allocator@D@2@@std@@PAVCObject3D@@@std@@@2@$0A@@std@@@std@@PAU123@@std@@YAXPAPAU_Node@?$_Tree_nod@V?$_Tmap_traits@V?$basic_string@DU?$char_traits@D@std@@V?$allocator@D@2@@std@@PAVCObject3D@@U?$less@V?$basic_string@DU?$char_traits@D@std@@V?$allocator@D@2@@std@@@2@V?$allocator@U?$pair@$$CBV?$basic_string@DU?$char_traits@D@std@@V?$allocator@D@2@@std@@PAVCObject3D@@@std@@@2@$0A@@std@@@0@ABQAU120@@Z
_TEXT	SEGMENT PARA USE32 PUBLIC 'CODE'
_TEXT	ENDS
;	COMDAT ??_G_Node@?$_Tree_nod@V?$_Tmap_traits@V?$basic_string@DU?$char_traits@D@std@@V?$allocator@D@2@@std@@PAVCObject3D@@U?$less@V?$basic_string@DU?$char_traits@D@std@@V?$allocator@D@2@@std@@@2@V?$allocator@U?$pair@$$CBV?$basic_string@DU?$char_traits@D@std@@V?$allocator@D@2@@std@@PAVCObject3D@@@std@@@2@$0A@@std@@@std@@QAEPAXI@Z
_TEXT	SEGMENT PARA USE32 PUBLIC 'CODE'
_TEXT	ENDS
;	COMDAT ??1_Node@?$_Tree_nod@V?$_Tmap_traits@V?$basic_string@DU?$char_traits@D@std@@V?$allocator@D@2@@std@@PAVCObject3D@@U?$less@V?$basic_string@DU?$char_traits@D@std@@V?$allocator@D@2@@std@@@2@V?$allocator@U?$pair@$$CBV?$basic_string@DU?$char_traits@D@std@@V?$allocator@D@2@@std@@PAVCObject3D@@@std@@@2@$0A@@std@@@std@@QAE@XZ
_TEXT	SEGMENT PARA USE32 PUBLIC 'CODE'
_TEXT	ENDS
;	COMDAT ?destroy@?$allocator@UtagDROPITEM@@@std@@QAEXPAUtagDROPITEM@@@Z
_TEXT	SEGMENT PARA USE32 PUBLIC 'CODE'
_TEXT	ENDS
;	COMDAT ?destroy@?$allocator@UWORMON@@@std@@QAEXPAUWORMON@@@Z
_TEXT	SEGMENT PARA USE32 PUBLIC 'CODE'
_TEXT	ENDS
;	COMDAT ?destroy@?$allocator@U__ITEMGAME@CMiniGame@@@std@@QAEXPAU__ITEMGAME@CMiniGame@@@Z
_TEXT	SEGMENT PARA USE32 PUBLIC 'CODE'
_TEXT	ENDS
;	COMDAT ?destroy@?$allocator@U__ITEM@CExchange@@@std@@QAEXPAU__ITEM@CExchange@@@Z
_TEXT	SEGMENT PARA USE32 PUBLIC 'CODE'
_TEXT	ENDS
;	COMDAT ?destroy@?$allocator@U__POINT@CExchange@@@std@@QAEXPAU__POINT@CExchange@@@Z
_TEXT	SEGMENT PARA USE32 PUBLIC 'CODE'
_TEXT	ENDS
;	COMDAT ?begin@?$vector@EV?$allocator@E@std@@@std@@QAE?AViterator@12@XZ
_TEXT	SEGMENT PARA USE32 PUBLIC 'CODE'
_TEXT	ENDS
;	COMDAT ?end@?$vector@EV?$allocator@E@std@@@std@@QAE?AViterator@12@XZ
_TEXT	SEGMENT PARA USE32 PUBLIC 'CODE'
_TEXT	ENDS
;	COMDAT ?erase@?$vector@EV?$allocator@E@std@@@std@@QAE?AViterator@12@V312@0@Z
_TEXT	SEGMENT PARA USE32 PUBLIC 'CODE'
_TEXT	ENDS
;	COMDAT ?construct@?$allocator@U__SPAWNREGION@CEventLua@@@std@@QAEXPAU__SPAWNREGION@CEventLua@@ABU34@@Z
_TEXT	SEGMENT PARA USE32 PUBLIC 'CODE'
_TEXT	ENDS
;	COMDAT ?destroy@?$allocator@U__SPAWNREGION@CEventLua@@@std@@QAEXPAU__SPAWNREGION@CEventLua@@@Z
_TEXT	SEGMENT PARA USE32 PUBLIC 'CODE'
_TEXT	ENDS
;	COMDAT ?destroy@?$allocator@UD3DXVECTOR3@@@std@@QAEXPAUD3DXVECTOR3@@@Z
_TEXT	SEGMENT PARA USE32 PUBLIC 'CODE'
_TEXT	ENDS
;	COMDAT ?destroy@?$allocator@U_GIFTBOX@@@std@@QAEXPAU_GIFTBOX@@@Z
_TEXT	SEGMENT PARA USE32 PUBLIC 'CODE'
_TEXT	ENDS
;	COMDAT ??9const_iterator@?$vector@EV?$allocator@E@std@@@std@@QBE_NABV012@@Z
_TEXT	SEGMENT PARA USE32 PUBLIC 'CODE'
_TEXT	ENDS
;	COMDAT ??0iterator@?$vector@EV?$allocator@E@std@@@std@@QAE@PAE@Z
_TEXT	SEGMENT PARA USE32 PUBLIC 'CODE'
_TEXT	ENDS
;	COMDAT ??8const_iterator@?$vector@EV?$allocator@E@std@@@std@@QBE_NABV012@@Z
_TEXT	SEGMENT PARA USE32 PUBLIC 'CODE'
_TEXT	ENDS
;	COMDAT ??$insert@Vconst_iterator@?$vector@EV?$allocator@E@std@@@std@@@?$vector@EV?$allocator@E@std@@@std@@QAEXViterator@01@Vconst_iterator@01@1@Z
_TEXT	SEGMENT PARA USE32 PUBLIC 'CODE'
_TEXT	ENDS
;	COMDAT ??$_Ptr_cat@Vconst_iterator@?$vector@EV?$allocator@E@std@@@std@@PAE@std@@YA?AU_Nonscalar_ptr_iterator_tag@0@AAVconst_iterator@?$vector@EV?$allocator@E@std@@@0@AAPAE@Z
_TEXT	SEGMENT PARA USE32 PUBLIC 'CODE'
_TEXT	ENDS
;	COMDAT ??$_Uninit_copy@Vconst_iterator@?$vector@EV?$allocator@E@std@@@std@@PAEV?$allocator@E@3@@std@@YAPAEVconst_iterator@?$vector@EV?$allocator@E@std@@@0@0PAEAAV?$allocator@E@0@U_Nonscalar_ptr_iterator_tag@0@@Z
_TEXT	SEGMENT PARA USE32 PUBLIC 'CODE'
_TEXT	ENDS
;	COMDAT ??$_Uninit_copy@JJ@std@@YAPAJPAJ00AAV?$allocator@J@0@U_Scalar_ptr_iterator_tag@0@@Z
_TEXT	SEGMENT PARA USE32 PUBLIC 'CODE'
_TEXT	ENDS
;	COMDAT ??$_Uninit_copy@PAU__SPAWNREGION@CEventLua@@PAU12@V?$allocator@U__SPAWNREGION@CEventLua@@@std@@@std@@YAPAU__SPAWNREGION@CEventLua@@PAU12@00AAV?$allocator@U__SPAWNREGION@CEventLua@@@0@U_Nonscalar_ptr_iterator_tag@0@@Z
_TEXT	SEGMENT PARA USE32 PUBLIC 'CODE'
_TEXT	ENDS
;	COMDAT ??$fill_n@PAJIJ@std@@YAXPAJIABJ@Z
_TEXT	SEGMENT PARA USE32 PUBLIC 'CODE'
_TEXT	ENDS
;	COMDAT ??$_Iter_cat@Viterator@?$_Tree@V?$_Tmap_traits@V?$basic_string@DU?$char_traits@D@std@@V?$allocator@D@2@@std@@PAVCObject3D@@U?$less@V?$basic_string@DU?$char_traits@D@std@@V?$allocator@D@2@@std@@@2@V?$allocator@U?$pair@$$CBV?$basic_string@DU?$char_traits@D@std@@V?$allocator@D@2@@std@@PAVCObject3D@@@std@@@2@$0A@@std@@@std@@@std@@YA?AUbidirectional_iterator_tag@0@ABViterator@?$_Tree@V?$_Tmap_traits@V?$basic_string@DU?$char_traits@D@std@@V?$allocator@D@2@@std@@PAVCObject3D@@U?$less@V?$basic_string@DU?$char_traits@D@std@@V?$allocator@D@2@@std@@@2@V?$allocator@U?$pair@$$CBV?$basic_string@DU?$char_traits@D@std@@V?$allocator@D@2@@std@@PAVCObject3D@@@std@@@2@$0A@@std@@@0@@Z
_TEXT	SEGMENT PARA USE32 PUBLIC 'CODE'
_TEXT	ENDS
;	COMDAT ??$_Distance2@Viterator@?$_Tree@V?$_Tmap_traits@V?$basic_string@DU?$char_traits@D@std@@V?$allocator@D@2@@std@@PAVCObject3D@@U?$less@V?$basic_string@DU?$char_traits@D@std@@V?$allocator@D@2@@std@@@2@V?$allocator@U?$pair@$$CBV?$basic_string@DU?$char_traits@D@std@@V?$allocator@D@2@@std@@PAVCObject3D@@@std@@@2@$0A@@std@@@std@@I@std@@YAXViterator@?$_Tree@V?$_Tmap_traits@V?$basic_string@DU?$char_traits@D@std@@V?$allocator@D@2@@std@@PAVCObject3D@@U?$less@V?$basic_string@DU?$char_traits@D@std@@V?$allocator@D@2@@std@@@2@V?$allocator@U?$pair@$$CBV?$basic_string@DU?$char_traits@D@std@@V?$allocator@D@2@@std@@PAVCObject3D@@@std@@@2@$0A@@std@@@0@0AAIUbidirectional_iterator_tag@0@@Z
_TEXT	SEGMENT PARA USE32 PUBLIC 'CODE'
_TEXT	ENDS
;	COMDAT ??$_Destroy@UtagDROPITEM@@@std@@YAXPAUtagDROPITEM@@@Z
_TEXT	SEGMENT PARA USE32 PUBLIC 'CODE'
_TEXT	ENDS
;	COMDAT ??$_Destroy@UWORMON@@@std@@YAXPAUWORMON@@@Z
_TEXT	SEGMENT PARA USE32 PUBLIC 'CODE'
_TEXT	ENDS
;	COMDAT ??$_Destroy@U__ITEMGAME@CMiniGame@@@std@@YAXPAU__ITEMGAME@CMiniGame@@@Z
_TEXT	SEGMENT PARA USE32 PUBLIC 'CODE'
_TEXT	ENDS
;	COMDAT ??$_Destroy@U__ITEM@CExchange@@@std@@YAXPAU__ITEM@CExchange@@@Z
_TEXT	SEGMENT PARA USE32 PUBLIC 'CODE'
_TEXT	ENDS
;	COMDAT ??$_Destroy@U__POINT@CExchange@@@std@@YAXPAU__POINT@CExchange@@@Z
_TEXT	SEGMENT PARA USE32 PUBLIC 'CODE'
_TEXT	ENDS
;	COMDAT ??$copy@PAEPAE@std@@YAPAEPAE00@Z
_TEXT	SEGMENT PARA USE32 PUBLIC 'CODE'
_TEXT	ENDS
;	COMDAT ??$_Construct@U__SPAWNREGION@CEventLua@@U12@@std@@YAXPAU__SPAWNREGION@CEventLua@@ABU12@@Z
_TEXT	SEGMENT PARA USE32 PUBLIC 'CODE'
_TEXT	ENDS
;	COMDAT ??$_Destroy@U__SPAWNREGION@CEventLua@@@std@@YAXPAU__SPAWNREGION@CEventLua@@@Z
_TEXT	SEGMENT PARA USE32 PUBLIC 'CODE'
_TEXT	ENDS
;	COMDAT ??$_Destroy@UD3DXVECTOR3@@@std@@YAXPAUD3DXVECTOR3@@@Z
_TEXT	SEGMENT PARA USE32 PUBLIC 'CODE'
_TEXT	ENDS
;	COMDAT ??$_Destroy@U_GIFTBOX@@@std@@YAXPAU_GIFTBOX@@@Z
_TEXT	SEGMENT PARA USE32 PUBLIC 'CODE'
_TEXT	ENDS
;	COMDAT ?construct@?$allocator@E@std@@QAEXPAEABE@Z
_TEXT	SEGMENT PARA USE32 PUBLIC 'CODE'
_TEXT	ENDS
;	COMDAT ?destroy@?$allocator@E@std@@QAEXPAE@Z
_TEXT	SEGMENT PARA USE32 PUBLIC 'CODE'
_TEXT	ENDS
;	COMDAT ??Dconst_iterator@?$vector@EV?$allocator@E@std@@@std@@QBEABEXZ
_TEXT	SEGMENT PARA USE32 PUBLIC 'CODE'
_TEXT	ENDS
;	COMDAT ??Econst_iterator@?$vector@EV?$allocator@E@std@@@std@@QAEAAV012@XZ
_TEXT	SEGMENT PARA USE32 PUBLIC 'CODE'
_TEXT	ENDS
;	COMDAT ??$_Insert@Vconst_iterator@?$vector@EV?$allocator@E@std@@@std@@@?$vector@EV?$allocator@E@std@@@std@@QAEXViterator@01@Vconst_iterator@01@1Uforward_iterator_tag@1@@Z
_TEXT	SEGMENT PARA USE32 PUBLIC 'CODE'
_TEXT	ENDS
;	COMDAT ??$_Copy_opt@PAEPAE@std@@YAPAEPAE00U_Scalar_ptr_iterator_tag@0@@Z
_TEXT	SEGMENT PARA USE32 PUBLIC 'CODE'
_TEXT	ENDS
;	COMDAT ??$_Construct@EE@std@@YAXPAEABE@Z
_TEXT	SEGMENT PARA USE32 PUBLIC 'CODE'
_TEXT	ENDS
;	COMDAT ??$_Destroy@E@std@@YAXPAE@Z
_TEXT	SEGMENT PARA USE32 PUBLIC 'CODE'
_TEXT	ENDS
;	COMDAT ?capacity@?$vector@EV?$allocator@E@std@@@std@@QBEIXZ
_TEXT	SEGMENT PARA USE32 PUBLIC 'CODE'
_TEXT	ENDS
;	COMDAT ??Giterator@?$vector@EV?$allocator@E@std@@@std@@QBEHABVconst_iterator@12@@Z
_TEXT	SEGMENT PARA USE32 PUBLIC 'CODE'
_TEXT	ENDS
;	COMDAT ??Gconst_iterator@?$vector@EV?$allocator@E@std@@@std@@QBEHABV012@@Z
_TEXT	SEGMENT PARA USE32 PUBLIC 'CODE'
_TEXT	ENDS
;	COMDAT ??$_Distance@Vconst_iterator@?$vector@EV?$allocator@E@std@@@std@@I@std@@YAXVconst_iterator@?$vector@EV?$allocator@E@std@@@0@0AAI@Z
_TEXT	SEGMENT PARA USE32 PUBLIC 'CODE'
_TEXT	ENDS
;	COMDAT ??$_Ucopy@PAE@?$vector@EV?$allocator@E@std@@@std@@IAEPAEPAE00@Z
_TEXT	SEGMENT PARA USE32 PUBLIC 'CODE'
_TEXT	ENDS
;	COMDAT ??$advance@Vconst_iterator@?$vector@EV?$allocator@E@std@@@std@@H@std@@YAXAAVconst_iterator@?$vector@EV?$allocator@E@std@@@0@H@Z
_TEXT	SEGMENT PARA USE32 PUBLIC 'CODE'
_TEXT	ENDS
;	COMDAT ??$copy@Vconst_iterator@?$vector@EV?$allocator@E@std@@@std@@PAE@std@@YAPAEVconst_iterator@?$vector@EV?$allocator@E@std@@@0@0PAE@Z
_TEXT	SEGMENT PARA USE32 PUBLIC 'CODE'
_TEXT	ENDS
;	COMDAT ??$copy_backward@PAEPAE@std@@YAPAEPAE00@Z
_TEXT	SEGMENT PARA USE32 PUBLIC 'CODE'
_TEXT	ENDS
;	COMDAT ??$_Distance2@Vconst_iterator@?$vector@EV?$allocator@E@std@@@std@@I@std@@YAXVconst_iterator@?$vector@EV?$allocator@E@std@@@0@0AAIUrandom_access_iterator_tag@0@@Z
_TEXT	SEGMENT PARA USE32 PUBLIC 'CODE'
_TEXT	ENDS
;	COMDAT ??$_Uninitialized_copy@PAEPAEV?$allocator@E@std@@@std@@YAPAEPAE00AAV?$allocator@E@0@@Z
_TEXT	SEGMENT PARA USE32 PUBLIC 'CODE'
_TEXT	ENDS
;	COMDAT ??$_Advance@Vconst_iterator@?$vector@EV?$allocator@E@std@@@std@@H@std@@YAXAAVconst_iterator@?$vector@EV?$allocator@E@std@@@0@HUrandom_access_iterator_tag@0@@Z
_TEXT	SEGMENT PARA USE32 PUBLIC 'CODE'
_TEXT	ENDS
;	COMDAT ??$_Copy_opt@Vconst_iterator@?$vector@EV?$allocator@E@std@@@std@@PAE@std@@YAPAEVconst_iterator@?$vector@EV?$allocator@E@std@@@0@0PAEU_Nonscalar_ptr_iterator_tag@0@@Z
_TEXT	SEGMENT PARA USE32 PUBLIC 'CODE'
_TEXT	ENDS
;	COMDAT ??$_Copy_backward_opt@PAEPAE@std@@YAPAEPAE00U_Scalar_ptr_iterator_tag@0@@Z
_TEXT	SEGMENT PARA USE32 PUBLIC 'CODE'
_TEXT	ENDS
;	COMDAT ??Yconst_iterator@?$vector@EV?$allocator@E@std@@@std@@QAEAAV012@H@Z
_TEXT	SEGMENT PARA USE32 PUBLIC 'CODE'
_TEXT	ENDS
;	COMDAT ??$_Uninit_copy@EE@std@@YAPAEPAE00AAV?$allocator@E@0@U_Scalar_ptr_iterator_tag@0@@Z
_TEXT	SEGMENT PARA USE32 PUBLIC 'CODE'
_TEXT	ENDS
;	COMDAT ?deallocate@?$allocator@E@std@@QAEXPAEI@Z
_TEXT	SEGMENT PARA USE32 PUBLIC 'CODE'
_TEXT	ENDS
;	COMDAT ??$_Ucopy@Vconst_iterator@?$vector@EV?$allocator@E@std@@@std@@@?$vector@EV?$allocator@E@std@@@std@@IAEPAEVconst_iterator@01@0PAE@Z
_TEXT	SEGMENT PARA USE32 PUBLIC 'CODE'
_TEXT	ENDS
;	COMDAT ?allocate@?$allocator@E@std@@QAEPAEI@Z
_TEXT	SEGMENT PARA USE32 PUBLIC 'CODE'
_TEXT	ENDS
;	COMDAT ??$_Allocate@E@std@@YAPAEIPAE@Z
_TEXT	SEGMENT PARA USE32 PUBLIC 'CODE'
_TEXT	ENDS
;	COMDAT ?_Xlen@?$vector@EV?$allocator@E@std@@@std@@IBEXXZ
_TEXT	SEGMENT PARA USE32 PUBLIC 'CODE'
_TEXT	ENDS
;	COMDAT ??_C@_0BD@OLBABOEK@vector?$DMT?$DO?5too?5long?$AA@
CONST	SEGMENT DWORD USE32 PUBLIC 'CONST'
CONST	ENDS
;	COMDAT ?size@?$vector@EV?$allocator@E@std@@@std@@QBEIXZ
_TEXT	SEGMENT PARA USE32 PUBLIC 'CODE'
_TEXT	ENDS
;	COMDAT ?max_size@?$vector@EV?$allocator@E@std@@@std@@QBEIXZ
_TEXT	SEGMENT PARA USE32 PUBLIC 'CODE'
_TEXT	ENDS
;	COMDAT ?max_size@?$allocator@E@std@@QBEIXZ
_TEXT	SEGMENT PARA USE32 PUBLIC 'CODE'
_TEXT	ENDS
;	COMDAT ?_Ptr_cat@std@@YA?AU_Scalar_ptr_iterator_tag@1@PAE0@Z
_TEXT	SEGMENT PARA USE32 PUBLIC 'CODE'
_TEXT	ENDS
;	COMDAT ??0const_iterator@?$vector@EV?$allocator@E@std@@@std@@QAE@PAE@Z
_TEXT	SEGMENT PARA USE32 PUBLIC 'CODE'
_TEXT	ENDS
;	COMDAT ?_Destroy@?$vector@EV?$allocator@E@std@@@std@@IAEXPAE0@Z
_TEXT	SEGMENT PARA USE32 PUBLIC 'CODE'
_TEXT	ENDS
;	COMDAT ??$_Destroy_range@EV?$allocator@E@std@@@std@@YAXPAE0AAV?$allocator@E@0@@Z
_TEXT	SEGMENT PARA USE32 PUBLIC 'CODE'
_TEXT	ENDS
;	COMDAT ?_Ptr_cat@std@@YA?AU_Scalar_ptr_iterator_tag@1@PAJ0@Z
_TEXT	SEGMENT PARA USE32 PUBLIC 'CODE'
_TEXT	ENDS
;	COMDAT ??9const_iterator@?$_Tree@V?$_Tmap_traits@KEU?$less@K@std@@V?$allocator@U?$pair@$$CBKE@std@@@2@$0A@@std@@@std@@QBE_NABV012@@Z
_TEXT	SEGMENT PARA USE32 PUBLIC 'CODE'
_TEXT	ENDS
;	COMDAT ??8const_iterator@?$_Tree@V?$_Tmap_traits@KEU?$less@K@std@@V?$allocator@U?$pair@$$CBKE@std@@@2@$0A@@std@@@std@@QBE_NABV012@@Z
_TEXT	SEGMENT PARA USE32 PUBLIC 'CODE'
_TEXT	ENDS
;	COMDAT ??Eiterator@?$_Tree@V?$_Tmap_traits@KEU?$less@K@std@@V?$allocator@U?$pair@$$CBKE@std@@@2@$0A@@std@@@std@@QAEAAV012@XZ
_TEXT	SEGMENT PARA USE32 PUBLIC 'CODE'
_TEXT	ENDS
;	COMDAT ??Econst_iterator@?$_Tree@V?$_Tmap_traits@KEU?$less@K@std@@V?$allocator@U?$pair@$$CBKE@std@@@2@$0A@@std@@@std@@QAEAAV012@XZ
_TEXT	SEGMENT PARA USE32 PUBLIC 'CODE'
_TEXT	ENDS
;	COMDAT ?_Inc@const_iterator@?$_Tree@V?$_Tmap_traits@KEU?$less@K@std@@V?$allocator@U?$pair@$$CBKE@std@@@2@$0A@@std@@@std@@QAEXXZ
_TEXT	SEGMENT PARA USE32 PUBLIC 'CODE'
_TEXT	ENDS
;	COMDAT ?_Min@?$_Tree@V?$_Tmap_traits@KEU?$less@K@std@@V?$allocator@U?$pair@$$CBKE@std@@@2@$0A@@std@@@std@@KAPAU_Node@?$_Tree_nod@V?$_Tmap_traits@KEU?$less@K@std@@V?$allocator@U?$pair@$$CBKE@std@@@2@$0A@@std@@@2@PAU342@@Z
_TEXT	SEGMENT PARA USE32 PUBLIC 'CODE'
_TEXT	ENDS
;	COMDAT ?_Left@?$_Tree@V?$_Tmap_traits@KEU?$less@K@std@@V?$allocator@U?$pair@$$CBKE@std@@@2@$0A@@std@@@std@@KAAAPAU_Node@?$_Tree_nod@V?$_Tmap_traits@KEU?$less@K@std@@V?$allocator@U?$pair@$$CBKE@std@@@2@$0A@@std@@@2@PAU342@@Z
_TEXT	SEGMENT PARA USE32 PUBLIC 'CODE'
_TEXT	ENDS
;	COMDAT ?_Isnil@?$_Tree@V?$_Tmap_traits@KEU?$less@K@std@@V?$allocator@U?$pair@$$CBKE@std@@@2@$0A@@std@@@std@@KAAADPAU_Node@?$_Tree_nod@V?$_Tmap_traits@KEU?$less@K@std@@V?$allocator@U?$pair@$$CBKE@std@@@2@$0A@@std@@@2@@Z
_TEXT	SEGMENT PARA USE32 PUBLIC 'CODE'
_TEXT	ENDS
;	COMDAT ?_Parent@?$_Tree@V?$_Tmap_traits@KEU?$less@K@std@@V?$allocator@U?$pair@$$CBKE@std@@@2@$0A@@std@@@std@@KAAAPAU_Node@?$_Tree_nod@V?$_Tmap_traits@KEU?$less@K@std@@V?$allocator@U?$pair@$$CBKE@std@@@2@$0A@@std@@@2@PAU342@@Z
_TEXT	SEGMENT PARA USE32 PUBLIC 'CODE'
_TEXT	ENDS
;	COMDAT ?_Right@?$_Tree@V?$_Tmap_traits@KEU?$less@K@std@@V?$allocator@U?$pair@$$CBKE@std@@@2@$0A@@std@@@std@@KAAAPAU_Node@?$_Tree_nod@V?$_Tmap_traits@KEU?$less@K@std@@V?$allocator@U?$pair@$$CBKE@std@@@2@$0A@@std@@@2@PAU342@@Z
_TEXT	SEGMENT PARA USE32 PUBLIC 'CODE'
_TEXT	ENDS
;	COMDAT ??9const_iterator@?$_Tree@V?$_Tmap_traits@KPAVCCtrl@@U?$less@K@std@@V?$allocator@U?$pair@$$CBKPAVCCtrl@@@std@@@3@$0A@@std@@@std@@QBE_NABV012@@Z
_TEXT	SEGMENT PARA USE32 PUBLIC 'CODE'
_TEXT	ENDS
;	COMDAT ??8const_iterator@?$_Tree@V?$_Tmap_traits@KPAVCCtrl@@U?$less@K@std@@V?$allocator@U?$pair@$$CBKPAVCCtrl@@@std@@@3@$0A@@std@@@std@@QBE_NABV012@@Z
_TEXT	SEGMENT PARA USE32 PUBLIC 'CODE'
_TEXT	ENDS
;	COMDAT ??Eiterator@?$_Tree@V?$_Tmap_traits@KPAVCCtrl@@U?$less@K@std@@V?$allocator@U?$pair@$$CBKPAVCCtrl@@@std@@@3@$0A@@std@@@std@@QAEAAV012@XZ
_TEXT	SEGMENT PARA USE32 PUBLIC 'CODE'
_TEXT	ENDS
;	COMDAT ??Econst_iterator@?$_Tree@V?$_Tmap_traits@KPAVCCtrl@@U?$less@K@std@@V?$allocator@U?$pair@$$CBKPAVCCtrl@@@std@@@3@$0A@@std@@@std@@QAEAAV012@XZ
_TEXT	SEGMENT PARA USE32 PUBLIC 'CODE'
_TEXT	ENDS
;	COMDAT ?_Inc@const_iterator@?$_Tree@V?$_Tmap_traits@KPAVCCtrl@@U?$less@K@std@@V?$allocator@U?$pair@$$CBKPAVCCtrl@@@std@@@3@$0A@@std@@@std@@QAEXXZ
_TEXT	SEGMENT PARA USE32 PUBLIC 'CODE'
_TEXT	ENDS
;	COMDAT ?_Min@?$_Tree@V?$_Tmap_traits@KPAVCCtrl@@U?$less@K@std@@V?$allocator@U?$pair@$$CBKPAVCCtrl@@@std@@@3@$0A@@std@@@std@@KAPAU_Node@?$_Tree_nod@V?$_Tmap_traits@KPAVCCtrl@@U?$less@K@std@@V?$allocator@U?$pair@$$CBKPAVCCtrl@@@std@@@3@$0A@@std@@@2@PAU342@@Z
_TEXT	SEGMENT PARA USE32 PUBLIC 'CODE'
_TEXT	ENDS
;	COMDAT ?_Left@?$_Tree@V?$_Tmap_traits@KPAVCCtrl@@U?$less@K@std@@V?$allocator@U?$pair@$$CBKPAVCCtrl@@@std@@@3@$0A@@std@@@std@@KAAAPAU_Node@?$_Tree_nod@V?$_Tmap_traits@KPAVCCtrl@@U?$less@K@std@@V?$allocator@U?$pair@$$CBKPAVCCtrl@@@std@@@3@$0A@@std@@@2@PAU342@@Z
_TEXT	SEGMENT PARA USE32 PUBLIC 'CODE'
_TEXT	ENDS
;	COMDAT ?_Isnil@?$_Tree@V?$_Tmap_traits@KPAVCCtrl@@U?$less@K@std@@V?$allocator@U?$pair@$$CBKPAVCCtrl@@@std@@@3@$0A@@std@@@std@@KAAADPAU_Node@?$_Tree_nod@V?$_Tmap_traits@KPAVCCtrl@@U?$less@K@std@@V?$allocator@U?$pair@$$CBKPAVCCtrl@@@std@@@3@$0A@@std@@@2@@Z
_TEXT	SEGMENT PARA USE32 PUBLIC 'CODE'
_TEXT	ENDS
;	COMDAT ?_Parent@?$_Tree@V?$_Tmap_traits@KPAVCCtrl@@U?$less@K@std@@V?$allocator@U?$pair@$$CBKPAVCCtrl@@@std@@@3@$0A@@std@@@std@@KAAAPAU_Node@?$_Tree_nod@V?$_Tmap_traits@KPAVCCtrl@@U?$less@K@std@@V?$allocator@U?$pair@$$CBKPAVCCtrl@@@std@@@3@$0A@@std@@@2@PAU342@@Z
_TEXT	SEGMENT PARA USE32 PUBLIC 'CODE'
_TEXT	ENDS
;	COMDAT ?_Right@?$_Tree@V?$_Tmap_traits@KPAVCCtrl@@U?$less@K@std@@V?$allocator@U?$pair@$$CBKPAVCCtrl@@@std@@@3@$0A@@std@@@std@@KAAAPAU_Node@?$_Tree_nod@V?$_Tmap_traits@KPAVCCtrl@@U?$less@K@std@@V?$allocator@U?$pair@$$CBKPAVCCtrl@@@std@@@3@$0A@@std@@@2@PAU342@@Z
_TEXT	SEGMENT PARA USE32 PUBLIC 'CODE'
_TEXT	ENDS
;	COMDAT ??9const_iterator@?$_Tree@V?$_Tmap_traits@KPAVCUser@@U?$less@K@std@@V?$allocator@U?$pair@$$CBKPAVCUser@@@std@@@3@$0A@@std@@@std@@QBE_NABV012@@Z
_TEXT	SEGMENT PARA USE32 PUBLIC 'CODE'
_TEXT	ENDS
;	COMDAT ??8const_iterator@?$_Tree@V?$_Tmap_traits@KPAVCUser@@U?$less@K@std@@V?$allocator@U?$pair@$$CBKPAVCUser@@@std@@@3@$0A@@std@@@std@@QBE_NABV012@@Z
_TEXT	SEGMENT PARA USE32 PUBLIC 'CODE'
_TEXT	ENDS
;	COMDAT ??Eiterator@?$_Tree@V?$_Tmap_traits@KPAVCUser@@U?$less@K@std@@V?$allocator@U?$pair@$$CBKPAVCUser@@@std@@@3@$0A@@std@@@std@@QAEAAV012@XZ
_TEXT	SEGMENT PARA USE32 PUBLIC 'CODE'
_TEXT	ENDS
;	COMDAT ??Econst_iterator@?$_Tree@V?$_Tmap_traits@KPAVCUser@@U?$less@K@std@@V?$allocator@U?$pair@$$CBKPAVCUser@@@std@@@3@$0A@@std@@@std@@QAEAAV012@XZ
_TEXT	SEGMENT PARA USE32 PUBLIC 'CODE'
_TEXT	ENDS
;	COMDAT ?_Inc@const_iterator@?$_Tree@V?$_Tmap_traits@KPAVCUser@@U?$less@K@std@@V?$allocator@U?$pair@$$CBKPAVCUser@@@std@@@3@$0A@@std@@@std@@QAEXXZ
_TEXT	SEGMENT PARA USE32 PUBLIC 'CODE'
_TEXT	ENDS
;	COMDAT ?_Min@?$_Tree@V?$_Tmap_traits@KPAVCUser@@U?$less@K@std@@V?$allocator@U?$pair@$$CBKPAVCUser@@@std@@@3@$0A@@std@@@std@@KAPAU_Node@?$_Tree_nod@V?$_Tmap_traits@KPAVCUser@@U?$less@K@std@@V?$allocator@U?$pair@$$CBKPAVCUser@@@std@@@3@$0A@@std@@@2@PAU342@@Z
_TEXT	SEGMENT PARA USE32 PUBLIC 'CODE'
_TEXT	ENDS
;	COMDAT ?_Left@?$_Tree@V?$_Tmap_traits@KPAVCUser@@U?$less@K@std@@V?$allocator@U?$pair@$$CBKPAVCUser@@@std@@@3@$0A@@std@@@std@@KAAAPAU_Node@?$_Tree_nod@V?$_Tmap_traits@KPAVCUser@@U?$less@K@std@@V?$allocator@U?$pair@$$CBKPAVCUser@@@std@@@3@$0A@@std@@@2@PAU342@@Z
_TEXT	SEGMENT PARA USE32 PUBLIC 'CODE'
_TEXT	ENDS
;	COMDAT ?_Isnil@?$_Tree@V?$_Tmap_traits@KPAVCUser@@U?$less@K@std@@V?$allocator@U?$pair@$$CBKPAVCUser@@@std@@@3@$0A@@std@@@std@@KAAADPAU_Node@?$_Tree_nod@V?$_Tmap_traits@KPAVCUser@@U?$less@K@std@@V?$allocator@U?$pair@$$CBKPAVCUser@@@std@@@3@$0A@@std@@@2@@Z
_TEXT	SEGMENT PARA USE32 PUBLIC 'CODE'
_TEXT	ENDS
;	COMDAT ?_Parent@?$_Tree@V?$_Tmap_traits@KPAVCUser@@U?$less@K@std@@V?$allocator@U?$pair@$$CBKPAVCUser@@@std@@@3@$0A@@std@@@std@@KAAAPAU_Node@?$_Tree_nod@V?$_Tmap_traits@KPAVCUser@@U?$less@K@std@@V?$allocator@U?$pair@$$CBKPAVCUser@@@std@@@3@$0A@@std@@@2@PAU342@@Z
_TEXT	SEGMENT PARA USE32 PUBLIC 'CODE'
_TEXT	ENDS
;	COMDAT ?_Right@?$_Tree@V?$_Tmap_traits@KPAVCUser@@U?$less@K@std@@V?$allocator@U?$pair@$$CBKPAVCUser@@@std@@@3@$0A@@std@@@std@@KAAAPAU_Node@?$_Tree_nod@V?$_Tmap_traits@KPAVCUser@@U?$less@K@std@@V?$allocator@U?$pair@$$CBKPAVCUser@@@std@@@3@$0A@@std@@@2@PAU342@@Z
_TEXT	SEGMENT PARA USE32 PUBLIC 'CODE'
_TEXT	ENDS
;	COMDAT ?_Psave@?$_Facetptr@V?$ctype@G@std@@@std@@2PBVfacet@locale@2@B
_DATA	SEGMENT DWORD USE32 PUBLIC 'DATA'
_DATA	ENDS
;	COMDAT ?_Psave@?$_Facetptr@V?$ctype@D@std@@@std@@2PBVfacet@locale@2@B
_DATA	SEGMENT DWORD USE32 PUBLIC 'DATA'
_DATA	ENDS
;	COMDAT ??3@YAXPAX0@Z
_TEXT	SEGMENT PARA USE32 PUBLIC 'CODE'
_TEXT	ENDS
;	COMDAT ??2@YAPAXIPAX@Z
_TEXT	SEGMENT PARA USE32 PUBLIC 'CODE'
_TEXT	ENDS
;	COMDAT ??$swap@D@std@@YAXAAD0@Z
_TEXT	SEGMENT PARA USE32 PUBLIC 'CODE'
_TEXT	ENDS
;	COMDAT __TI3?AVout_of_range@std@@
xdata$x	SEGMENT DWORD USE32 PUBLIC 'CONST'
xdata$x	ENDS
;	COMDAT ??1out_of_range@std@@UAE@XZ
_TEXT	SEGMENT PARA USE32 PUBLIC 'CODE'
_TEXT	ENDS
;	COMDAT ??_7out_of_range@std@@6B@
CONST	SEGMENT DWORD USE32 PUBLIC 'CONST'
CONST	ENDS
;	COMDAT ??_Gout_of_range@std@@UAEPAXI@Z
_TEXT	SEGMENT PARA USE32 PUBLIC 'CODE'
_TEXT	ENDS
;	COMDAT ?what@logic_error@std@@UBEPBDXZ
_TEXT	SEGMENT PARA USE32 PUBLIC 'CODE'
_TEXT	ENDS
;	COMDAT ?c_str@?$basic_string@DU?$char_traits@D@std@@V?$allocator@D@2@@std@@QBEPBDXZ
_TEXT	SEGMENT PARA USE32 PUBLIC 'CODE'
_TEXT	ENDS
;	COMDAT ??1logic_error@std@@UAE@XZ
_TEXT	SEGMENT PARA USE32 PUBLIC 'CODE'
_TEXT	ENDS
;	COMDAT ??_7logic_error@std@@6B@
CONST	SEGMENT DWORD USE32 PUBLIC 'CONST'
CONST	ENDS
;	COMDAT ??_Glogic_error@std@@UAEPAXI@Z
_TEXT	SEGMENT PARA USE32 PUBLIC 'CODE'
_TEXT	ENDS
;	COMDAT __CTA3?AVout_of_range@std@@
xdata$x	SEGMENT DWORD USE32 PUBLIC 'CONST'
xdata$x	ENDS
;	COMDAT __CT??_R0?AVout_of_range@std@@@8??0out_of_range@std@@QAE@ABV01@@Z40
xdata$x	SEGMENT DWORD USE32 PUBLIC 'CONST'
xdata$x	ENDS
;	COMDAT ??_R0?AVout_of_range@std@@@8
_DATA	SEGMENT DWORD USE32 PUBLIC 'DATA'
_DATA	ENDS
;	COMDAT ??0out_of_range@std@@QAE@ABV01@@Z
_TEXT	SEGMENT PARA USE32 PUBLIC 'CODE'
_TEXT	ENDS
;	COMDAT ??0logic_error@std@@QAE@ABV01@@Z
_TEXT	SEGMENT PARA USE32 PUBLIC 'CODE'
_TEXT	ENDS
;	COMDAT __CT??_R0?AVlogic_error@std@@@8??0logic_error@std@@QAE@ABV01@@Z40
xdata$x	SEGMENT DWORD USE32 PUBLIC 'CONST'
xdata$x	ENDS
;	COMDAT ??_R0?AVlogic_error@std@@@8
_DATA	SEGMENT DWORD USE32 PUBLIC 'DATA'
_DATA	ENDS
;	COMDAT __CT??_R0?AVexception@@@8??0exception@@QAE@ABV0@@Z12
xdata$x	SEGMENT DWORD USE32 PUBLIC 'CONST'
xdata$x	ENDS
;	COMDAT ??_R0?AVexception@@@8
_DATA	SEGMENT DWORD USE32 PUBLIC 'DATA'
_DATA	ENDS
;	COMDAT ??_C@_0BM@PAPJHAGI@invalid?5map?1set?$DMT?$DO?5iterator?$AA@
CONST	SEGMENT DWORD USE32 PUBLIC 'CONST'
CONST	ENDS
;	COMDAT ??0out_of_range@std@@QAE@ABV?$basic_string@DU?$char_traits@D@std@@V?$allocator@D@2@@1@@Z
_TEXT	SEGMENT PARA USE32 PUBLIC 'CODE'
_TEXT	ENDS
;	COMDAT ??0logic_error@std@@QAE@ABV?$basic_string@DU?$char_traits@D@std@@V?$allocator@D@2@@1@@Z
_TEXT	SEGMENT PARA USE32 PUBLIC 'CODE'
_TEXT	ENDS
;	COMDAT __TI3?AVlength_error@std@@
xdata$x	SEGMENT DWORD USE32 PUBLIC 'CONST'
xdata$x	ENDS
;	COMDAT ??1length_error@std@@UAE@XZ
_TEXT	SEGMENT PARA USE32 PUBLIC 'CODE'
_TEXT	ENDS
;	COMDAT ??_7length_error@std@@6B@
CONST	SEGMENT DWORD USE32 PUBLIC 'CONST'
CONST	ENDS
;	COMDAT ??_Glength_error@std@@UAEPAXI@Z
_TEXT	SEGMENT PARA USE32 PUBLIC 'CODE'
_TEXT	ENDS
;	COMDAT __CTA3?AVlength_error@std@@
xdata$x	SEGMENT DWORD USE32 PUBLIC 'CONST'
xdata$x	ENDS
;	COMDAT __CT??_R0?AVlength_error@std@@@8??0length_error@std@@QAE@ABV01@@Z40
xdata$x	SEGMENT DWORD USE32 PUBLIC 'CONST'
xdata$x	ENDS
;	COMDAT ??_R0?AVlength_error@std@@@8
_DATA	SEGMENT DWORD USE32 PUBLIC 'DATA'
_DATA	ENDS
;	COMDAT ??0length_error@std@@QAE@ABV01@@Z
_TEXT	SEGMENT PARA USE32 PUBLIC 'CODE'
_TEXT	ENDS
;	COMDAT ??_C@_0BE@JONHPENG@map?1set?$DMT?$DO?5too?5long?$AA@
CONST	SEGMENT DWORD USE32 PUBLIC 'CONST'
CONST	ENDS
;	COMDAT ??0length_error@std@@QAE@ABV?$basic_string@DU?$char_traits@D@std@@V?$allocator@D@2@@1@@Z
_TEXT	SEGMENT PARA USE32 PUBLIC 'CODE'
_TEXT	ENDS
;	COMDAT ?compare@?$char_traits@D@std@@SAHPBD0I@Z
_TEXT	SEGMENT PARA USE32 PUBLIC 'CODE'
_TEXT	ENDS
;	COMDAT ??0?$basic_string@DU?$char_traits@D@std@@V?$allocator@D@2@@std@@QAE@ABV01@@Z
_TEXT	SEGMENT PARA USE32 PUBLIC 'CODE'
_TEXT	ENDS
;	COMDAT ??0?$_String_val@DV?$allocator@D@std@@@std@@IAE@V?$allocator@D@1@@Z
_TEXT	SEGMENT PARA USE32 PUBLIC 'CODE'
_TEXT	ENDS
;	COMDAT ??0?$allocator@D@std@@QAE@ABV01@@Z
_TEXT	SEGMENT PARA USE32 PUBLIC 'CODE'
_TEXT	ENDS
;	COMDAT ?_Tidy@?$basic_string@DU?$char_traits@D@std@@V?$allocator@D@2@@std@@IAEX_NI@Z
_TEXT	SEGMENT PARA USE32 PUBLIC 'CODE'
_TEXT	ENDS
;	COMDAT ?copy@?$char_traits@D@std@@SAPADPADPBDI@Z
_TEXT	SEGMENT PARA USE32 PUBLIC 'CODE'
_TEXT	ENDS
;	COMDAT ?deallocate@?$allocator@D@std@@QAEXPADI@Z
_TEXT	SEGMENT PARA USE32 PUBLIC 'CODE'
_TEXT	ENDS
;	COMDAT ?_Eos@?$basic_string@DU?$char_traits@D@std@@V?$allocator@D@2@@std@@IAEXI@Z
_TEXT	SEGMENT PARA USE32 PUBLIC 'CODE'
_TEXT	ENDS
;	COMDAT ?assign@?$char_traits@D@std@@SAXAADABD@Z
_TEXT	SEGMENT PARA USE32 PUBLIC 'CODE'
_TEXT	ENDS
;	COMDAT ?_Myptr@?$basic_string@DU?$char_traits@D@std@@V?$allocator@D@2@@std@@QAEPADXZ
_TEXT	SEGMENT PARA USE32 PUBLIC 'CODE'
_TEXT	ENDS
;	COMDAT ?assign@?$basic_string@DU?$char_traits@D@std@@V?$allocator@D@2@@std@@QAEAAV12@ABV12@II@Z
_TEXT	SEGMENT PARA USE32 PUBLIC 'CODE'
_TEXT	ENDS
;	COMDAT ?erase@?$basic_string@DU?$char_traits@D@std@@V?$allocator@D@2@@std@@QAEAAV12@II@Z
_TEXT	SEGMENT PARA USE32 PUBLIC 'CODE'
_TEXT	ENDS
;	COMDAT ?move@?$char_traits@D@std@@SAPADPADPBDI@Z
_TEXT	SEGMENT PARA USE32 PUBLIC 'CODE'
_TEXT	ENDS
;	COMDAT ?_Grow@?$basic_string@DU?$char_traits@D@std@@V?$allocator@D@2@@std@@IAE_NI_N@Z
_TEXT	SEGMENT PARA USE32 PUBLIC 'CODE'
_TEXT	ENDS
;	COMDAT ?max_size@?$basic_string@DU?$char_traits@D@std@@V?$allocator@D@2@@std@@QBEIXZ
_TEXT	SEGMENT PARA USE32 PUBLIC 'CODE'
_TEXT	ENDS
;	COMDAT ?max_size@?$allocator@D@std@@QBEIXZ
_TEXT	SEGMENT PARA USE32 PUBLIC 'CODE'
_TEXT	ENDS
;	COMDAT ?_Copy@?$basic_string@DU?$char_traits@D@std@@V?$allocator@D@2@@std@@IAEXII@Z
_TEXT	SEGMENT PARA USE32 PUBLIC 'CODE'
_TEXT	ENDS
;	COMDAT ?allocate@?$allocator@D@std@@QAEPADI@Z
_TEXT	SEGMENT PARA USE32 PUBLIC 'CODE'
_TEXT	ENDS
;	COMDAT ??$_Allocate@D@std@@YAPADIPAD@Z
_TEXT	SEGMENT PARA USE32 PUBLIC 'CODE'
_TEXT	ENDS
;	COMDAT ?npos@?$basic_string@DU?$char_traits@D@std@@V?$allocator@D@2@@std@@2IB
CONST	SEGMENT DWORD USE32 PUBLIC 'CONST'
CONST	ENDS
;	COMDAT ??R?$less@V?$basic_string@DU?$char_traits@D@std@@V?$allocator@D@2@@std@@@std@@QBE_NABV?$basic_string@DU?$char_traits@D@std@@V?$allocator@D@2@@1@0@Z
_TEXT	SEGMENT PARA USE32 PUBLIC 'CODE'
_TEXT	ENDS
;	COMDAT ??$?MDU?$char_traits@D@std@@V?$allocator@D@1@@std@@YA_NABV?$basic_string@DU?$char_traits@D@std@@V?$allocator@D@2@@0@0@Z
_TEXT	SEGMENT PARA USE32 PUBLIC 'CODE'
_TEXT	ENDS
;	COMDAT ?_Myptr@?$basic_string@DU?$char_traits@D@std@@V?$allocator@D@2@@std@@QBEPBDXZ
_TEXT	SEGMENT PARA USE32 PUBLIC 'CODE'
_TEXT	ENDS
;	COMDAT ?size@?$basic_string@DU?$char_traits@D@std@@V?$allocator@D@2@@std@@QBEIXZ
_TEXT	SEGMENT PARA USE32 PUBLIC 'CODE'
_TEXT	ENDS
;	COMDAT ?D3DXVec3Subtract@@YAPAUD3DXVECTOR3@@PAU1@PBU1@1@Z
_TEXT	SEGMENT PARA USE32 PUBLIC 'CODE'
_TEXT	ENDS
;	COMDAT ??0D3DXVECTOR3@@QAE@MMM@Z
_TEXT	SEGMENT PARA USE32 PUBLIC 'CODE'
_TEXT	ENDS
;	COMDAT ?D3DXVec3Scale@@YAPAUD3DXVECTOR3@@PAU1@PBU1@M@Z
_TEXT	SEGMENT PARA USE32 PUBLIC 'CODE'
_TEXT	ENDS
;	COMDAT ??XD3DXVECTOR3@@QAEAAU0@M@Z
_TEXT	SEGMENT PARA USE32 PUBLIC 'CODE'
_TEXT	ENDS
;	COMDAT ?D3DXVec3Dot@@YAMPBUD3DXVECTOR3@@0@Z
_TEXT	SEGMENT PARA USE32 PUBLIC 'CODE'
_TEXT	ENDS
;	COMDAT ?fabs@@YAMM@Z
_TEXT	SEGMENT PARA USE32 PUBLIC 'CODE'
_TEXT	ENDS
;	COMDAT _fabsf
_TEXT	SEGMENT PARA USE32 PUBLIC 'CODE'
_TEXT	ENDS
;	COMDAT ?D3DXVec3Length@@YAMPBUD3DXVECTOR3@@@Z
_TEXT	SEGMENT PARA USE32 PUBLIC 'CODE'
_TEXT	ENDS
;	COMDAT _sqrtf
_TEXT	SEGMENT PARA USE32 PUBLIC 'CODE'
_TEXT	ENDS
;	COMDAT ??YD3DXVECTOR3@@QAEAAU0@ABU0@@Z
_TEXT	SEGMENT PARA USE32 PUBLIC 'CODE'
_TEXT	ENDS
;	COMDAT ?D3DXVec3Cross@@YAPAUD3DXVECTOR3@@PAU1@PBU1@1@Z
_TEXT	SEGMENT PARA USE32 PUBLIC 'CODE'
_TEXT	ENDS
;	COMDAT ??D@YA?AUD3DXVECTOR3@@MABU0@@Z
_TEXT	SEGMENT PARA USE32 PUBLIC 'CODE'
_TEXT	ENDS
;	COMDAT ??HD3DXVECTOR3@@QBE?AU0@ABU0@@Z
_TEXT	SEGMENT PARA USE32 PUBLIC 'CODE'
_TEXT	ENDS
;	COMDAT ??GD3DXVECTOR3@@QBE?AU0@ABU0@@Z
_TEXT	SEGMENT PARA USE32 PUBLIC 'CODE'
_TEXT	ENDS
;	COMDAT ??DD3DXMATRIX@@QBE?AU0@ABU0@@Z
_TEXT	SEGMENT PARA USE32 PUBLIC 'CODE'
_TEXT	ENDS
;	COMDAT ??0D3DXQUATERNION@@QAE@XZ
_TEXT	SEGMENT PARA USE32 PUBLIC 'CODE'
_TEXT	ENDS
;	COMDAT ?D3DXMatrixIdentity@@YAPAUD3DXMATRIX@@PAU1@@Z
_TEXT	SEGMENT PARA USE32 PUBLIC 'CODE'
_TEXT	ENDS
;	COMDAT ??1?$CStringT@DV?$StrTraitMFC@DV?$ChTraitsCRT@D@ATL@@@@@ATL@@QAE@XZ
_TEXT	SEGMENT PARA USE32 PUBLIC 'CODE'
_TEXT	ENDS
;	COMDAT ??1?$CSimpleStringT@D$0A@@ATL@@QAE@XZ
_TEXT	SEGMENT PARA USE32 PUBLIC 'CODE'
_TEXT	ENDS
;	COMDAT ?GetData@?$CSimpleStringT@D$0A@@ATL@@ABEPAUCStringData@2@XZ
_TEXT	SEGMENT PARA USE32 PUBLIC 'CODE'
_TEXT	ENDS
;	COMDAT ?Release@CStringData@ATL@@QAEXXZ
_TEXT	SEGMENT PARA USE32 PUBLIC 'CODE'
_TEXT	ENDS
;	COMDAT ??B?$CSimpleStringT@D$0A@@ATL@@QBEPBDXZ
_TEXT	SEGMENT PARA USE32 PUBLIC 'CODE'
_TEXT	ENDS
;	COMDAT ?Seek@CFileIO@@UAEHJH@Z
_TEXT	SEGMENT PARA USE32 PUBLIC 'CODE'
_TEXT	ENDS
;	COMDAT ?Read@CFileIO@@UAEIPAXII@Z
_TEXT	SEGMENT PARA USE32 PUBLIC 'CODE'
_TEXT	ENDS
;	COMDAT ??1CFileIO@@UAE@XZ
_TEXT	SEGMENT PARA USE32 PUBLIC 'CODE'
_TEXT	ENDS
;	COMDAT ??_7CFileIO@@6B@
CONST	SEGMENT DWORD USE32 PUBLIC 'CONST'
CONST	ENDS
;	COMDAT ??_GCFileIO@@UAEPAXI@Z
_TEXT	SEGMENT PARA USE32 PUBLIC 'CODE'
_TEXT	ENDS
;	COMDAT ?Flush@CFileIO@@UAEHXZ
_TEXT	SEGMENT PARA USE32 PUBLIC 'CODE'
_TEXT	ENDS
;	COMDAT ?GetC@CFileIO@@UAEDXZ
_TEXT	SEGMENT PARA USE32 PUBLIC 'CODE'
_TEXT	ENDS
;	COMDAT ?GetW@CFileIO@@UAEGXZ
_TEXT	SEGMENT PARA USE32 PUBLIC 'CODE'
_TEXT	ENDS
;	COMDAT ?GetDW@CFileIO@@UAEKXZ
_TEXT	SEGMENT PARA USE32 PUBLIC 'CODE'
_TEXT	ENDS
;	COMDAT ?Tell@CFileIO@@UAEJXZ
_TEXT	SEGMENT PARA USE32 PUBLIC 'CODE'
_TEXT	ENDS
;	COMDAT ?GetLength@CFileIO@@UAEJXZ
_TEXT	SEGMENT PARA USE32 PUBLIC 'CODE'
_TEXT	ENDS
;	COMDAT ?Handle@CFileIO@@QAEHXZ
_TEXT	SEGMENT PARA USE32 PUBLIC 'CODE'
_TEXT	ENDS
;	COMDAT ??0CFileIO@@QAE@XZ
_TEXT	SEGMENT PARA USE32 PUBLIC 'CODE'
_TEXT	ENDS
;	COMDAT ??0D3DXMATRIX@@QAE@XZ
_TEXT	SEGMENT PARA USE32 PUBLIC 'CODE'
_TEXT	ENDS
;	COMDAT ??0D3DXVECTOR3@@QAE@XZ
_TEXT	SEGMENT PARA USE32 PUBLIC 'CODE'
_TEXT	ENDS
;	COMDAT ??_H@YGXPAXIHP6EPAX0@Z@Z
_TEXT	SEGMENT PARA USE32 PUBLIC 'CODE'
_TEXT	ENDS
;	COMDAT ?InitDeviceObjects@CObject3D@@QAEJPAUIDirect3DDevice9@@@Z
_TEXT	SEGMENT PARA USE32 PUBLIC 'CODE'
_TEXT	ENDS
;	COMDAT ??1?$basic_string@DU?$char_traits@D@std@@V?$allocator@D@2@@std@@QAE@XZ
_TEXT	SEGMENT PARA USE32 PUBLIC 'CODE'
_TEXT	ENDS
;	COMDAT ??0?$basic_string@DU?$char_traits@D@std@@V?$allocator@D@2@@std@@QAE@PBD@Z
_TEXT	SEGMENT PARA USE32 PUBLIC 'CODE'
_TEXT	ENDS
;	COMDAT ??0?$allocator@D@std@@QAE@XZ
_TEXT	SEGMENT PARA USE32 PUBLIC 'CODE'
_TEXT	ENDS
;	COMDAT ?assign@?$basic_string@DU?$char_traits@D@std@@V?$allocator@D@2@@std@@QAEAAV12@PBD@Z
_TEXT	SEGMENT PARA USE32 PUBLIC 'CODE'
_TEXT	ENDS
;	COMDAT ?assign@?$basic_string@DU?$char_traits@D@std@@V?$allocator@D@2@@std@@QAEAAV12@PBDI@Z
_TEXT	SEGMENT PARA USE32 PUBLIC 'CODE'
_TEXT	ENDS
;	COMDAT ?_Inside@?$basic_string@DU?$char_traits@D@std@@V?$allocator@D@2@@std@@IAE_NPBD@Z
_TEXT	SEGMENT PARA USE32 PUBLIC 'CODE'
_TEXT	ENDS
;	COMDAT ?length@?$char_traits@D@std@@SAIPBD@Z
_TEXT	SEGMENT PARA USE32 PUBLIC 'CODE'
_TEXT	ENDS
;	COMDAT ??0D3DXMATRIX@@QAE@MMMMMMMMMMMMMMMM@Z
_TEXT	SEGMENT PARA USE32 PUBLIC 'CODE'
_TEXT	ENDS
sxdata	SEGMENT DWORD USE32 'SXDATA'
sxdata	ENDS
FLAT	GROUP _DATA, CONST, _BSS
	ASSUME	CS: FLAT, DS: FLAT, SS: FLAT
endif

INCLUDELIB LIBCMT
INCLUDELIB OLDNAMES

PUBLIC	?g_pReflectMap@@3PAUIDirect3DTexture9@@A	; g_pReflectMap
PUBLIC	?g_pSkinVertexDeclaration@@3PAUIDirect3DVertexDeclaration9@@A ; g_pSkinVertexDeclaration
PUBLIC	?g_pShadowVertexDeclaration@@3PAUIDirect3DVertexDeclaration9@@A ; g_pShadowVertexDeclaration
PUBLIC	?g_pSkiningVS@@3PAUIDirect3DVertexShader9@@A	; g_pSkiningVS
PUBLIC	?g_pShadowVS@@3PAUIDirect3DVertexShader9@@A	; g_pShadowVS
PUBLIC	?g_MaxVB@@3HA					; g_MaxVB
_BSS	SEGMENT
?g_pReflectMap@@3PAUIDirect3DTexture9@@A DD 01H DUP (?)	; g_pReflectMap
?g_pSkinVertexDeclaration@@3PAUIDirect3DVertexDeclaration9@@A DD 01H DUP (?) ; g_pSkinVertexDeclaration
?g_pShadowVertexDeclaration@@3PAUIDirect3DVertexDeclaration9@@A DD 01H DUP (?) ; g_pShadowVertexDeclaration
?g_pSkiningVS@@3PAUIDirect3DVertexShader9@@A DD 01H DUP (?) ; g_pSkiningVS
?g_pShadowVS@@3PAUIDirect3DVertexShader9@@A DD 01H DUP (?) ; g_pShadowVS
?g_MaxVB@@3HA DD 01H DUP (?)				; g_MaxVB
_BSS	ENDS
PUBLIC	??2@YAPAXIPAX@Z					; operator new
; Function compile flags: /Ogty
; File c:\program files\microsoft visual studio .net 2003\vc7\include\new.h
;	COMDAT ??2@YAPAXIPAX@Z
_TEXT	SEGMENT
___formal$ = 8						; size = 4
__P$ = 12						; size = 4
??2@YAPAXIPAX@Z PROC NEAR				; operator new, COMDAT

; 109  :         {return (_P); }

  00000	8b 44 24 08	 mov	 eax, DWORD PTR __P$[esp-4]
  00004	c3		 ret	 0
??2@YAPAXIPAX@Z ENDP					; operator new
_TEXT	ENDS
PUBLIC	??3@YAXPAX0@Z					; operator delete
; Function compile flags: /Ogty
;	COMDAT ??3@YAXPAX0@Z
_TEXT	SEGMENT
___formal$ = 8						; size = 4
___formal$ = 12						; size = 4
??3@YAXPAX0@Z PROC NEAR					; operator delete, COMDAT

; 112  :         {return; }

  00000	c3		 ret	 0
??3@YAXPAX0@Z ENDP					; operator delete
_TEXT	ENDS
PUBLIC	?Process@CObject3DMng@@QAEXXZ			; CObject3DMng::Process
; Function compile flags: /Ogty
; File c:\documents and settings\test\mes documents\source\virtuos_v17\build\program\_common\object3d.cpp
;	COMDAT ?Process@CObject3DMng@@QAEXXZ
_TEXT	SEGMENT
?Process@CObject3DMng@@QAEXXZ PROC NEAR			; CObject3DMng::Process, COMDAT
; _this$ = ecx

; 466  : }

  00000	c3		 ret	 0
?Process@CObject3DMng@@QAEXXZ ENDP			; CObject3DMng::Process
_TEXT	ENDS
PUBLIC	?Init@CObject3D@@AAEXXZ				; CObject3D::Init
EXTRN	__fltused:NEAR
; Function compile flags: /Ogty
;	COMDAT ?Init@CObject3D@@AAEXXZ
_TEXT	SEGMENT
?Init@CObject3D@@AAEXXZ PROC NEAR			; CObject3D::Init, COMDAT
; _this$ = ecx

; 492  : {

  00000	8b d1		 mov	 edx, ecx

; 493  : 	m_pGroup	  = &m_Group[0];
; 494  : 	memset( m_Group, 0, sizeof(LOD_GROUP) * MAX_GROUP );

  00002	33 c9		 xor	 ecx, ecx
  00004	8d 42 04	 lea	 eax, DWORD PTR [edx+4]
  00007	89 02		 mov	 DWORD PTR [edx], eax
  00009	89 08		 mov	 DWORD PTR [eax], ecx
  0000b	89 48 04	 mov	 DWORD PTR [eax+4], ecx
  0000e	89 48 08	 mov	 DWORD PTR [eax+8], ecx
  00011	89 48 0c	 mov	 DWORD PTR [eax+12], ecx
  00014	89 48 10	 mov	 DWORD PTR [eax+16], ecx
  00017	89 48 14	 mov	 DWORD PTR [eax+20], ecx
  0001a	89 48 18	 mov	 DWORD PTR [eax+24], ecx
  0001d	89 48 1c	 mov	 DWORD PTR [eax+28], ecx
  00020	89 48 20	 mov	 DWORD PTR [eax+32], ecx
  00023	53		 push	 ebx
  00024	56		 push	 esi

; 495  : //	m_pObject	  = NULL;
; 496  : //	_mUpdate	  = NULL;
; 497  : 	m_pmExternBone = m_pmExternBoneInv = NULL;

  00025	33 f6		 xor	 esi, esi
  00027	57		 push	 edi

; 498  : 	m_pBaseBone	   = NULL;
; 499  : 	m_pBaseBoneInv = NULL;
; 500  : 	m_pMotion = NULL;
; 501  : 	memset( &m_CollObject, 0, sizeof(GMOBJECT) );

  00028	33 c0		 xor	 eax, eax
  0002a	8d 9a 00 01 00
	00		 lea	 ebx, DWORD PTR [edx+256]
  00030	89 72 2c	 mov	 DWORD PTR [edx+44], esi
  00033	89 72 28	 mov	 DWORD PTR [edx+40], esi
  00036	89 72 34	 mov	 DWORD PTR [edx+52], esi
  00039	89 72 38	 mov	 DWORD PTR [edx+56], esi
  0003c	89 72 3c	 mov	 DWORD PTR [edx+60], esi
  0003f	8b fb		 mov	 edi, ebx
  00041	b9 af 02 00 00	 mov	 ecx, 687		; 000002afH
  00046	f3 ab		 rep stosd

; 502  : 	m_CollObject.m_Type = GMT_ERROR;

  00048	c7 03 ff ff ff
	ff		 mov	 DWORD PTR [ebx], -1

; 503  : 	m_nID = 0;

  0004e	89 b2 b8 00 00
	00		 mov	 DWORD PTR [edx+184], esi

; 504  : 	m_nHavePhysique = FALSE;

  00054	89 b2 bc 00 00
	00		 mov	 DWORD PTR [edx+188], esi

; 505  : //	m_nMaxObject = 0;
; 506  : 	m_nMaxBone = 0;

  0005a	89 72 30	 mov	 DWORD PTR [edx+48], esi

; 507  : 	m_bSendVS = 0;

  0005d	89 b2 b0 00 00
	00		 mov	 DWORD PTR [edx+176], esi

; 508  : 	m_bLOD = 0;

  00063	89 b2 b4 00 00
	00		 mov	 DWORD PTR [edx+180], esi

; 509  : 	memset( m_szFileName, 0, sizeof(m_szFileName) );

  00069	b9 10 00 00 00	 mov	 ecx, 16			; 00000010H
  0006e	8d ba c0 00 00
	00		 lea	 edi, DWORD PTR [edx+192]
  00074	f3 ab		 rep stosd

; 510  : 
; 511  : 	m_vForce1.x = m_vForce1.y = m_vForce1.z = 0;
; 512  : 	m_vForce2.x = m_vForce2.y = m_vForce2.z = 0;
; 513  : #if __VER >= 9 // __CSC_VER9_5
; 514  : 	m_vForce3.x = m_vForce3.y = m_vForce3.z = 0;
; 515  : 	m_vForce4.x = m_vForce4.y = m_vForce4.z = 0;
; 516  : #endif //__CSC_VER9_5
; 517  : 	m_vBBMin.x = m_vBBMin.y = m_vBBMin.z = 65535.0;

  00076	b8 00 ff 7f 47	 mov	 eax, 1199570688		; 477fff00H
  0007b	89 82 c4 0b 00
	00		 mov	 DWORD PTR [edx+3012], eax
  00081	89 82 c0 0b 00
	00		 mov	 DWORD PTR [edx+3008], eax
  00087	89 82 bc 0b 00
	00		 mov	 DWORD PTR [edx+3004], eax

; 518  : 	m_vBBMax.x = m_vBBMax.y = m_vBBMax.z = -65535.0;

  0008d	b8 00 ff 7f c7	 mov	 eax, -947912960		; c77fff00H
  00092	89 82 d0 0b 00
	00		 mov	 DWORD PTR [edx+3024], eax
  00098	89 82 cc 0b 00
	00		 mov	 DWORD PTR [edx+3020], eax
  0009e	89 82 c8 0b 00
	00		 mov	 DWORD PTR [edx+3016], eax

; 519  : 	m_nMaxFace = 0;
; 520  : 	m_nNoTexture = 0;
; 521  : 	m_nNoEffect = 0;
; 522  : 
; 523  : 	m_nMaxEvent = 0;
; 524  : 	memset( m_vEvent, 0, sizeof(m_vEvent) );

  000a4	33 c0		 xor	 eax, eax
  000a6	89 b2 dc 0b 00
	00		 mov	 DWORD PTR [edx+3036], esi
  000ac	89 b2 d8 0b 00
	00		 mov	 DWORD PTR [edx+3032], esi
  000b2	89 b2 d4 0b 00
	00		 mov	 DWORD PTR [edx+3028], esi
  000b8	89 b2 e8 0b 00
	00		 mov	 DWORD PTR [edx+3048], esi
  000be	89 b2 e4 0b 00
	00		 mov	 DWORD PTR [edx+3044], esi
  000c4	89 b2 e0 0b 00
	00		 mov	 DWORD PTR [edx+3040], esi
  000ca	89 b2 f4 0b 00
	00		 mov	 DWORD PTR [edx+3060], esi
  000d0	89 b2 f0 0b 00
	00		 mov	 DWORD PTR [edx+3056], esi
  000d6	89 b2 ec 0b 00
	00		 mov	 DWORD PTR [edx+3052], esi
  000dc	89 b2 00 0c 00
	00		 mov	 DWORD PTR [edx+3072], esi
  000e2	89 b2 fc 0b 00
	00		 mov	 DWORD PTR [edx+3068], esi
  000e8	89 b2 f8 0b 00
	00		 mov	 DWORD PTR [edx+3064], esi
  000ee	89 b2 0c 0c 00
	00		 mov	 DWORD PTR [edx+3084], esi
  000f4	89 b2 10 0c 00
	00		 mov	 DWORD PTR [edx+3088], esi
  000fa	89 b2 14 0c 00
	00		 mov	 DWORD PTR [edx+3092], esi
  00100	89 72 40	 mov	 DWORD PTR [edx+64], esi
  00103	b9 18 00 00 00	 mov	 ecx, 24			; 00000018H
  00108	8d 7a 4c	 lea	 edi, DWORD PTR [edx+76]
  0010b	f3 ab		 rep stosd
  0010d	5f		 pop	 edi

; 525  : 
; 526  : 	m_fScrlU = m_fScrlV = 0.0f;
; 527  : 
; 528  : 	m_nUseCnt = 0;	//   0
; 529  : 	
; 530  : 	m_fAmbient[0] = 1.0f;

  0010e	b8 00 00 80 3f	 mov	 eax, 1065353216		; 3f800000H
  00113	89 b2 08 0c 00
	00		 mov	 DWORD PTR [edx+3080], esi
  00119	89 b2 04 0c 00
	00		 mov	 DWORD PTR [edx+3076], esi
  0011f	89 b2 20 0c 00
	00		 mov	 DWORD PTR [edx+3104], esi

; 531  : 	m_fAmbient[1] = 1.0f;
; 532  : 	m_fAmbient[2] = 1.0f;
; 533  : 
; 534  : 	m_nTextureEx = 0;

  00125	89 72 44	 mov	 DWORD PTR [edx+68], esi

; 535  : 	m_pAttr = NULL;

  00128	89 72 48	 mov	 DWORD PTR [edx+72], esi
  0012b	5e		 pop	 esi
  0012c	89 82 24 0c 00
	00		 mov	 DWORD PTR [edx+3108], eax
  00132	89 82 28 0c 00
	00		 mov	 DWORD PTR [edx+3112], eax
  00138	89 82 2c 0c 00
	00		 mov	 DWORD PTR [edx+3116], eax
  0013e	5b		 pop	 ebx

; 536  : #ifdef __YENV
; 537  : 	m_pNormalDecl	= NULL;
; 538  : #endif //__YENV	
; 539  : 
; 540  : #ifdef __BS_EFFECT_LUA
; 541  : 	m_dwEffect_EX = 0;
; 542  : 
; 543  : 	m_pMteData = NULL;
; 544  : #endif;
; 545  : }

  0013f	c3		 ret	 0
?Init@CObject3D@@AAEXXZ ENDP				; CObject3D::Init
_TEXT	ENDS
PUBLIC	??_GCMotion@@QAEPAXI@Z				; CMotion::`scalar deleting destructor'
EXTRN	??3@YAXPAX@Z:NEAR				; operator delete
EXTRN	??1CMotion@@QAE@XZ:NEAR				; CMotion::~CMotion
; Function compile flags: /Ogty
;	COMDAT ??_GCMotion@@QAEPAXI@Z
_TEXT	SEGMENT
___flags$ = 8						; size = 4
??_GCMotion@@QAEPAXI@Z PROC NEAR			; CMotion::`scalar deleting destructor', COMDAT
; _this$ = ecx
  00000	56		 push	 esi
  00001	8b f1		 mov	 esi, ecx
  00003	e8 00 00 00 00	 call	 ??1CMotion@@QAE@XZ	; CMotion::~CMotion
  00008	f6 44 24 08 01	 test	 BYTE PTR ___flags$[esp], 1
  0000d	74 09		 je	 SHORT $L228752
  0000f	56		 push	 esi
  00010	e8 00 00 00 00	 call	 ??3@YAXPAX@Z		; operator delete
  00015	83 c4 04	 add	 esp, 4
$L228752:
  00018	8b c6		 mov	 eax, esi
  0001a	5e		 pop	 esi
  0001b	c2 04 00	 ret	 4
??_GCMotion@@QAEPAXI@Z ENDP				; CMotion::`scalar deleting destructor'
_TEXT	ENDS
PUBLIC	?GetMaxVertex@CObject3D@@QAEHXZ			; CObject3D::GetMaxVertex
; Function compile flags: /Ogty
;	COMDAT ?GetMaxVertex@CObject3D@@QAEHXZ
_TEXT	SEGMENT
?GetMaxVertex@CObject3D@@QAEHXZ PROC NEAR		; CObject3D::GetMaxVertex, COMDAT
; _this$ = ecx

; 630  : 	int		i, nMax = 0;
; 631  : 	for( i = 0; i < m_pGroup->m_nMaxObject; i ++ )

  00000	8b 09		 mov	 ecx, DWORD PTR [ecx]

; 632  : 		nMax += m_pGroup->m_pObject[i].m_nMaxVertexList;
; 633  : 	return nMax;

  00002	8b 11		 mov	 edx, DWORD PTR [ecx]
  00004	33 c0		 xor	 eax, eax
  00006	85 d2		 test	 edx, edx
  00008	7e 14		 jle	 SHORT $L225989
  0000a	8b 49 04	 mov	 ecx, DWORD PTR [ecx+4]
  0000d	81 c1 94 00 00
	00		 add	 ecx, 148		; 00000094H
$L225987:
  00013	03 01		 add	 eax, DWORD PTR [ecx]
  00015	81 c1 bc 0a 00
	00		 add	 ecx, 2748		; 00000abcH
  0001b	4a		 dec	 edx
  0001c	75 f5		 jne	 SHORT $L225987
$L225989:

; 634  : }

  0001e	c3		 ret	 0
?GetMaxVertex@CObject3D@@QAEHXZ ENDP			; CObject3D::GetMaxVertex
_TEXT	ENDS
PUBLIC	?GetMaxFace@CObject3D@@QAEHXZ			; CObject3D::GetMaxFace
; Function compile flags: /Ogty
;	COMDAT ?GetMaxFace@CObject3D@@QAEHXZ
_TEXT	SEGMENT
?GetMaxFace@CObject3D@@QAEHXZ PROC NEAR			; CObject3D::GetMaxFace, COMDAT
; _this$ = ecx

; 638  : 	int		i, nMax = 0;
; 639  : 	for( i = 0; i < m_pGroup->m_nMaxObject; i ++ )

  00000	8b 09		 mov	 ecx, DWORD PTR [ecx]

; 640  : 		nMax += m_pGroup->m_pObject[i].m_nMaxFaceList;
; 641  : 	return nMax;

  00002	8b 11		 mov	 edx, DWORD PTR [ecx]
  00004	33 c0		 xor	 eax, eax
  00006	85 d2		 test	 edx, edx
  00008	7e 14		 jle	 SHORT $L225998
  0000a	8b 49 04	 mov	 ecx, DWORD PTR [ecx+4]
  0000d	81 c1 98 00 00
	00		 add	 ecx, 152		; 00000098H
$L225996:
  00013	03 01		 add	 eax, DWORD PTR [ecx]
  00015	81 c1 bc 0a 00
	00		 add	 ecx, 2748		; 00000abcH
  0001b	4a		 dec	 edx
  0001c	75 f5		 jne	 SHORT $L225996
$L225998:

; 642  : }

  0001e	c3		 ret	 0
?GetMaxFace@CObject3D@@QAEHXZ ENDP			; CObject3D::GetMaxFace
_TEXT	ENDS
PUBLIC	?GetMaxMtrlBlk@CObject3D@@QAEHXZ		; CObject3D::GetMaxMtrlBlk
; Function compile flags: /Ogty
;	COMDAT ?GetMaxMtrlBlk@CObject3D@@QAEHXZ
_TEXT	SEGMENT
?GetMaxMtrlBlk@CObject3D@@QAEHXZ PROC NEAR		; CObject3D::GetMaxMtrlBlk, COMDAT
; _this$ = ecx

; 646  : 	int		i, nMax = 0;
; 647  : 	for( i = 0; i < m_pGroup->m_nMaxObject; i ++ )

  00000	8b 09		 mov	 ecx, DWORD PTR [ecx]

; 648  : 		nMax += m_pGroup->m_pObject[i].m_nMaxMtrlBlk;
; 649  : 	return nMax;

  00002	8b 11		 mov	 edx, DWORD PTR [ecx]
  00004	33 c0		 xor	 eax, eax
  00006	85 d2		 test	 edx, edx
  00008	7e 14		 jle	 SHORT $L226007
  0000a	8b 49 04	 mov	 ecx, DWORD PTR [ecx+4]
  0000d	81 c1 9c 00 00
	00		 add	 ecx, 156		; 0000009cH
$L226005:
  00013	03 01		 add	 eax, DWORD PTR [ecx]
  00015	81 c1 bc 0a 00
	00		 add	 ecx, 2748		; 00000abcH
  0001b	4a		 dec	 edx
  0001c	75 f5		 jne	 SHORT $L226005
$L226007:

; 650  : }

  0001e	c3		 ret	 0
?GetMaxMtrlBlk@CObject3D@@QAEHXZ ENDP			; CObject3D::GetMaxMtrlBlk
_TEXT	ENDS
PUBLIC	?DeleteDeviceObjects@CObject3D@@QAEJXZ		; CObject3D::DeleteDeviceObjects
; Function compile flags: /Ogty
;	COMDAT ?DeleteDeviceObjects@CObject3D@@QAEJXZ
_TEXT	SEGMENT
tv344 = -4						; size = 4
?DeleteDeviceObjects@CObject3D@@QAEJXZ PROC NEAR	; CObject3D::DeleteDeviceObjects, COMDAT
; _this$ = ecx

; 709  : {

  00000	51		 push	 ecx
  00001	53		 push	 ebx
  00002	55		 push	 ebp
  00003	56		 push	 esi
  00004	57		 push	 edi

; 710  : 	int		i, j;
; 711  : 	GMOBJECT	*pObj;
; 712  : 	
; 713  : 	for( j = 0; j < MAX_GROUP; j ++ )

  00005	8d 69 04	 lea	 ebp, DWORD PTR [ecx+4]
  00008	c7 44 24 10 03
	00 00 00	 mov	 DWORD PTR tv344[esp+20], 3
  00010	33 db		 xor	 ebx, ebx
$L226038:

; 714  : 	{
; 715  : 		GMOBJECT	*pObject = m_Group[j].m_pObject;
; 716  : 		int			nMaxObject = m_Group[j].m_nMaxObject;

  00012	8b 45 00	 mov	 eax, DWORD PTR [ebp]

; 717  : 		for( i = 0; i < nMaxObject; i ++ )

  00015	3b c3		 cmp	 eax, ebx
  00017	8b 4d 04	 mov	 ecx, DWORD PTR [ebp+4]
  0001a	7e 2f		 jle	 SHORT $L226039
  0001c	8d b1 b8 0a 00
	00		 lea	 esi, DWORD PTR [ecx+2744]
  00022	8b f8		 mov	 edi, eax
$L226043:

; 718  : 		{
; 719  : 			pObj = &pObject[i];
; 720  : 			SAFE_RELEASE( pObj->m_pd3d_VB );

  00024	8b 46 fc	 mov	 eax, DWORD PTR [esi-4]
  00027	3b c3		 cmp	 eax, ebx
  00029	74 09		 je	 SHORT $L226046
  0002b	8b 08		 mov	 ecx, DWORD PTR [eax]
  0002d	50		 push	 eax
  0002e	ff 51 08	 call	 DWORD PTR [ecx+8]
  00031	89 5e fc	 mov	 DWORD PTR [esi-4], ebx
$L226046:

; 721  : 			SAFE_RELEASE( pObj->m_pd3d_IB );

  00034	8b 06		 mov	 eax, DWORD PTR [esi]
  00036	3b c3		 cmp	 eax, ebx
  00038	74 08		 je	 SHORT $L226044
  0003a	8b 10		 mov	 edx, DWORD PTR [eax]
  0003c	50		 push	 eax
  0003d	ff 52 08	 call	 DWORD PTR [edx+8]
  00040	89 1e		 mov	 DWORD PTR [esi], ebx
$L226044:
  00042	81 c6 bc 0a 00
	00		 add	 esi, 2748		; 00000abcH
  00048	4f		 dec	 edi
  00049	75 d9		 jne	 SHORT $L226043
$L226039:

; 710  : 	int		i, j;
; 711  : 	GMOBJECT	*pObj;
; 712  : 	
; 713  : 	for( j = 0; j < MAX_GROUP; j ++ )

  0004b	8b 44 24 10	 mov	 eax, DWORD PTR tv344[esp+20]
  0004f	83 c5 0c	 add	 ebp, 12			; 0000000cH
  00052	48		 dec	 eax
  00053	89 44 24 10	 mov	 DWORD PTR tv344[esp+20], eax
  00057	75 b9		 jne	 SHORT $L226038
  00059	5f		 pop	 edi
  0005a	5e		 pop	 esi
  0005b	5d		 pop	 ebp

; 722  : 			
; 723  : #ifdef __YENV
; 724  : 			if( g_Option.m_bSpecBump )
; 725  : 			{
; 726  : 				for( int k=0; k < pObj->m_nMaxMtrlBlk; k++ )
; 727  : 				{
; 728  : 					if( pObj->m_pNormalTexture )
; 729  : 						SAFE_RELEASE( pObj->m_pNormalTexture[k] );
; 730  : 					
; 731  : 					if( pObj->m_pNoSpecTexture )
; 732  : 						SAFE_RELEASE( pObj->m_pNoSpecTexture[k] );
; 733  : 				}
; 734  : 			}
; 735  : #endif //__YENV
; 736  : 			
; 737  : 			
; 738  : 			// MtrlBlk m_pTexture   .
; 739  : 		}
; 740  : 	}
; 741  : 
; 742  : #ifdef __YENV	
; 743  : 	SAFE_RELEASE( m_pNormalDecl );		// 
; 744  : #endif //__YENV
; 745  : 
; 746  : 	return  S_OK;

  0005c	33 c0		 xor	 eax, eax
  0005e	5b		 pop	 ebx

; 747  : }	

  0005f	59		 pop	 ecx
  00060	c3		 ret	 0
?DeleteDeviceObjects@CObject3D@@QAEJXZ ENDP		; CObject3D::DeleteDeviceObjects
_TEXT	ENDS
PUBLIC	?CreateDeviceBuffer@CObject3D@@QAEJPAUGMOBJECT@@PAPAUIDirect3DVertexBuffer9@@W4_D3DPOOL@@@Z ; CObject3D::CreateDeviceBuffer
; Function compile flags: /Ogty
;	COMDAT ?CreateDeviceBuffer@CObject3D@@QAEJPAUGMOBJECT@@PAPAUIDirect3DVertexBuffer9@@W4_D3DPOOL@@@Z
_TEXT	SEGMENT
_pObject$ = 8						; size = 4
_ppd3d_VB$ = 12						; size = 4
_pool$ = 16						; size = 4
?CreateDeviceBuffer@CObject3D@@QAEJPAUGMOBJECT@@PAPAUIDirect3DVertexBuffer9@@W4_D3DPOOL@@@Z PROC NEAR ; CObject3D::CreateDeviceBuffer, COMDAT
; _this$ = ecx

; 755  : #ifdef	__WORLDSERVER
; 756  : 	return S_OK;

  00000	33 c0		 xor	 eax, eax

; 757  : #else
; 758  : //	pool = D3DPOOL_MANAGED;
; 759  : 	
; 760  : 	HRESULT		hr;
; 761  : 	int			nVertexSize;
; 762  : 	DWORD		dwFVF;
; 763  : 	DWORD		dwUsage = D3DUSAGE_WRITEONLY;
; 764  : 
; 765  : 	if( g_bUsableVS == FALSE && pObject->m_pPhysiqueVertex )	//     
; 766  : 		dwUsage |= D3DUSAGE_SOFTWAREPROCESSING;		//   .
; 767  : 
; 768  : 	nVertexSize = pObject->m_nVertexSize;
; 769  : 	dwFVF		= pObject->m_dwFVF;
; 770  : 
; 771  : 	if( ppd3d_VB == NULL )		// ppd3d_VB  ... this->m_pd3d_VB  .
; 772  : 	{
; 773  : 		// create vertexbuffer
; 774  : 		if( pObject->m_pd3d_VB == NULL )
; 775  : 		{
; 776  : 			// for Indexed Primitive
; 777  : 			g_MaxVB += (pObject->m_nMaxVB * nVertexSize);
; 778  : 
; 779  : 	#ifdef __YENV_WITHOUT_BUMP
; 780  : 			hr = m_pd3dDevice->CreateVertexBuffer(  pObject->m_nMaxVB * nVertexSize,
; 781  : 													dwUsage, dwFVF,
; 782  : 													pool, &pObject->m_pd3d_VB, NULL );
; 783  : 	#else //__YENV_WITHOUT_BUMP
; 784  : 			hr = m_pd3dDevice->CreateVertexBuffer(  pObject->m_nMaxVB * nVertexSize,
; 785  : 				dwUsage, dwFVF,
; 786  : 				pool, &pObject->m_pd3d_VB, NULL );
; 787  : 	#endif //__YENV_WITHOUT_BUMP
; 788  : 
; 789  : 			if( FAILED(hr) )
; 790  : 			{
; 791  : 				LPCTSTR szError = Error( "1 %s Object3D    (%s) : m_nMaxVB=%d, nVertexSize=%d, dwFVF=%d, dwUsage=%d, pool=%d %08x", 
; 792  : 																		  m_szFileName, DXGetErrorString9(hr), pObject->m_nMaxVB, 
; 793  : 																		  nVertexSize, dwFVF, dwUsage, (int)pool, (int)m_pd3dDevice );
; 794  : 				ADDERRORMSG( szError );
; 795  : 				// Object3D       .
; 796  : 				if( FAILED( hr = m_pd3dDevice->TestCooperativeLevel() ) )		//   .
; 797  : 				{
; 798  : 					LPCTSTR szErr = Error( "%s CObject3D  %08x", m_szFileName, (int)hr );
; 799  : 					ADDERRORMSG( szErr );
; 800  : 				}
; 801  : 				int *p = NULL;
; 802  : 				*p = 1;
; 803  : 				return E_FAIL;
; 804  : 			}
; 805  : 			SendVertexBuffer( pObject, pObject->m_pd3d_VB );
; 806  : 		}
; 807  : 	} else
; 808  : 	{
; 809  : 		if( *ppd3d_VB == NULL )		//    
; 810  : 		{
; 811  : 			// for Indexed Primitive
; 812  : 			g_MaxVB += (pObject->m_nMaxVB * nVertexSize);
; 813  : 
; 814  : 	#ifdef __YENV_WITHOUT_BUMP
; 815  : 			hr = m_pd3dDevice->CreateVertexBuffer(  pObject->m_nMaxVB * nVertexSize,
; 816  : 													dwUsage, dwFVF,
; 817  : 													pool, ppd3d_VB, NULL );
; 818  : 	#else //__YENV_WITHOUT_BUMP
; 819  : 			hr = m_pd3dDevice->CreateVertexBuffer(  pObject->m_nMaxVB * nVertexSize,
; 820  : 				dwUsage, dwFVF,
; 821  : 				pool, ppd3d_VB, NULL );			
; 822  : 	#endif //__YENV_WITHOUT_BUMP
; 823  : 
; 824  : 			if( FAILED(hr) )
; 825  : 			{
; 826  : 				LPCTSTR szError = Error( "2 %s Object3D    (%s) : m_nMaxVB=%d, nVertexSize=%d, dwFVF=%d, dwUsage=%d, pool=%d %08x", 
; 827  : 																		  m_szFileName, DXGetErrorString9(hr), pObject->m_nMaxVB, 
; 828  : 																		  nVertexSize, dwFVF, dwUsage, (int)pool, (int)m_pd3dDevice );
; 829  : 				ADDERRORMSG( szError );
; 830  : 				if( FAILED( hr = m_pd3dDevice->TestCooperativeLevel() ) )		//   .
; 831  : 				{
; 832  : 					LPCTSTR szErr = Error( "%s CObject3D  %08x", m_szFileName, (int)hr );
; 833  : 					ADDERRORMSG( szErr );
; 834  : 				}
; 835  : 				int *p = NULL;
; 836  : 				*p = 1;
; 837  : 				return E_FAIL;
; 838  : 			}
; 839  : 			SendVertexBuffer( pObject, *ppd3d_VB );
; 840  : 		}
; 841  : 	}
; 842  : 	
; 843  : 	// create indexbuffer
; 844  : 	if( pObject->m_pd3d_IB == NULL )
; 845  : 	{
; 846  : 		g_MaxVB += (pObject->m_nMaxIB * sizeof(WORD));
; 847  : 
; 848  : 		hr = m_pd3dDevice->CreateIndexBuffer(	pObject->m_nMaxIB * sizeof(WORD),
; 849  : 												dwUsage, D3DFMT_INDEX16,
; 850  : 												D3DPOOL_MANAGED, &pObject->m_pd3d_IB, NULL );
; 851  : 		if( FAILED(hr) )
; 852  : 		{
; 853  : 			Error( "%s Object3D    (%s) : m_nMaxIB=%d", 
; 854  : 													m_szFileName, DXGetErrorString9(hr), pObject->m_nMaxIB );
; 855  : 			int *p = NULL;
; 856  : 			*p = 1;
; 857  : 			return E_FAIL;
; 858  : 		}
; 859  : 		SendIndexBuffer( pObject );
; 860  : 	}
; 861  : 	
; 862  : 	
; 863  : 	return S_OK;
; 864  : #endif // !__WORLDSERVER
; 865  : }

  00002	c2 0c 00	 ret	 12			; 0000000cH
?CreateDeviceBuffer@CObject3D@@QAEJPAUGMOBJECT@@PAPAUIDirect3DVertexBuffer9@@W4_D3DPOOL@@@Z ENDP ; CObject3D::CreateDeviceBuffer
_TEXT	ENDS
PUBLIC	?SaveObject@CObject3D@@QAEHPBD@Z		; CObject3D::SaveObject
; Function compile flags: /Ogty
;	COMDAT ?SaveObject@CObject3D@@QAEHPBD@Z
_TEXT	SEGMENT
_szFileName$ = 8					; size = 4
?SaveObject@CObject3D@@QAEHPBD@Z PROC NEAR		; CObject3D::SaveObject, COMDAT
; _this$ = ecx

; 1195 : /*
; 1196 : 	FILE	*fp = fopen( szFileName, "wb" );
; 1197 : 	int		nTemp;
; 1198 : 	char	reserved[32];
; 1199 : 	int		i;
; 1200 : 
; 1201 : 	if( fp == NULL )
; 1202 : 	{
; 1203 : 		Error( "CObject3D::SaveMesh() : %   .\r\n  Check Out  !.", szFileName );
; 1204 : 		return FAIL;
; 1205 : 	}
; 1206 : 	// common header
; 1207 : 	memset( reserved, 0, 32 );
; 1208 : 	nTemp = VER_MESH;
; 1209 : 	fwrite( &nTemp, 4, 1, fp );		// version
; 1210 : 	fwrite( &m_nID, 4, 1, fp );		// Serial ID
; 1211 : 	fwrite( &m_fScrlU, sizeof(float), 1, fp );
; 1212 : 	fwrite( &m_fScrlV, sizeof(float), 1, fp );
; 1213 : 	fwrite( reserved, 16, 1, fp );			// reserved
; 1214 : 
; 1215 : 	fwrite( &m_vBBMin, sizeof(D3DXVECTOR3), 1, fp );	// bounding box
; 1216 : 	fwrite( &m_vBBMax, sizeof(D3DXVECTOR3), 1, fp );
; 1217 : 	fwrite( &m_fPerSlerp, sizeof(float), 1, fp );	// 
; 1218 : 
; 1219 : 	fwrite( &m_nMaxFrame,	4, 1, fp );					// ani frame    0
; 1220 : 
; 1221 : 	fwrite( &m_nMaxObject, 4, 1, fp );	// geometry 
; 1222 : 
; 1223 : 	GMOBJECT		*pObject;
; 1224 : 	//------  Geometry Object
; 1225 : 	for( i = 0; i < m_nMaxObject; i ++ )
; 1226 : 	{
; 1227 : 		pObject = &m_pObject[i];
; 1228 : 		
; 1229 : 		fwrite( &pObject->m_Type,	 4, 1, fp );	
; 1230 : 		fwrite( &pObject->m_nID, 4, 1, fp );			// Object ID
; 1231 : 		fwrite( &pObject->m_nParentIdx, 4, 1, fp );	// parent Idx
; 1232 : 
; 1233 : 		fwrite( &pObject->m_mLocalTM, sizeof(D3DXMATRIX), 1, fp );	// LocalTM
; 1234 : 
; 1235 : 		// save geometry
; 1236 : 		SaveGMObject( fp, pObject );
; 1237 : 
; 1238 : 		// save TM animation -  TMAni 
; 1239 : 		SaveTMAni( fp, pObject );
; 1240 : 	}
; 1241 : 
; 1242 : 	fclose(fp);
; 1243 : */
; 1244 : 	return SUCCESS;

  00000	b8 01 00 00 00	 mov	 eax, 1

; 1245 : }

  00005	c2 04 00	 ret	 4
?SaveObject@CObject3D@@QAEHPBD@Z ENDP			; CObject3D::SaveObject
_TEXT	ENDS
PUBLIC	?ChangeTexture@CObject3D@@QAEXPBD0@Z		; CObject3D::ChangeTexture
; Function compile flags: /Ogty
;	COMDAT ?ChangeTexture@CObject3D@@QAEXPBD0@Z
_TEXT	SEGMENT
_szSrc$ = 8						; size = 4
_szDest$ = 12						; size = 4
?ChangeTexture@CObject3D@@QAEXPBD0@Z PROC NEAR		; CObject3D::ChangeTexture, COMDAT
; _this$ = ecx

; 1513 : #ifdef __WORLDSERVER
; 1514 : 	return;
; 1515 : #else
; 1516 : 	int		i, j, k;
; 1517 : 	GMOBJECT	*pObject;
; 1518 : 	char	szBuff[128];
; 1519 : 
; 1520 : 	strcpy( szBuff, szSrc );
; 1521 : 	strlwr( szBuff );
; 1522 : 	TCHAR szBitMapFileName[ 16 ][ 128 ];
; 1523 : 	for( k = 0; k < MAX_GROUP; k++ )
; 1524 : 	{
; 1525 : 		for( i = 0; i < m_Group[k].m_nMaxObject; i ++ )
; 1526 : 		{
; 1527 : 			pObject = &m_Group[k].m_pObject[i];
; 1528 : 
; 1529 : 			//     .   
; 1530 : 			// pObject->m_MaterialAry[ nID ].strBitMapFileName     
; 1531 : 			//      .
; 1532 : 			for( j = 0; j < pObject->m_nMaxMtrlBlk; j ++ )		//   
; 1533 : 			{
; 1534 : 				int nID = pObject->m_pMtrlBlk[j].m_nTextureID;
; 1535 : 				_tcscpy( szBitMapFileName[ j ], pObject->m_MaterialAry[ nID ].strBitMapFileName );
; 1536 : 			}
; 1537 : 			for( j = 0; j < pObject->m_nMaxMtrlBlk; j ++ )		//   
; 1538 : 			{
; 1539 : 				int nID = pObject->m_pMtrlBlk[j].m_nTextureID;
; 1540 : 				if( strcmp( szBitMapFileName[j], szBuff ) == 0 )	// szSrc   
; 1541 : 				{
; 1542 : 					MATERIAL	*pMtrl;
; 1543 : 					D3DMATERIAL9	mMtrl;
; 1544 : 					pMtrl = g_TextureMng.AddMaterial( m_pd3dDevice, &mMtrl, szDest );		// szDest 
; 1545 : 					pObject->m_pMtrlBlkTexture[j] = pMtrl->m_pTexture;	//  
; 1546 : 					strcpy( pObject->m_MaterialAry[ nID ].strBitMapFileName, szDest );	//  .
; 1547 : 				}
; 1548 : 			}
; 1549 : 		}
; 1550 : 	} // LOD_GROUP
; 1551 : #endif //!__WORLDSERVER
; 1552 : }

  00000	c2 08 00	 ret	 8
?ChangeTexture@CObject3D@@QAEXPBD0@Z ENDP		; CObject3D::ChangeTexture
_TEXT	ENDS
PUBLIC	?SaveGMObject@CObject3D@@AAEHPAU_iobuf@@PAUGMOBJECT@@@Z ; CObject3D::SaveGMObject
; Function compile flags: /Ogty
;	COMDAT ?SaveGMObject@CObject3D@@AAEHPAU_iobuf@@PAUGMOBJECT@@@Z
_TEXT	SEGMENT
_fp$ = 8						; size = 4
_pObject$ = 12						; size = 4
?SaveGMObject@CObject3D@@AAEHPAU_iobuf@@PAUGMOBJECT@@@Z PROC NEAR ; CObject3D::SaveGMObject, COMDAT
; _this$ = ecx

; 1559 : 	return SUCCESS;

  00000	b8 01 00 00 00	 mov	 eax, 1

; 1560 : }

  00005	c2 08 00	 ret	 8
?SaveGMObject@CObject3D@@AAEHPAU_iobuf@@PAUGMOBJECT@@@Z ENDP ; CObject3D::SaveGMObject
_TEXT	ENDS
PUBLIC	?SaveTMAni@CObject3D@@AAEHPAU_iobuf@@PAUGMOBJECT@@@Z ; CObject3D::SaveTMAni
EXTRN	_fwrite:NEAR
; Function compile flags: /Ogty
;	COMDAT ?SaveTMAni@CObject3D@@AAEHPAU_iobuf@@PAUGMOBJECT@@@Z
_TEXT	SEGMENT
_fp$ = 8						; size = 4
_bFrame$ = 12						; size = 4
_pObject$ = 12						; size = 4
?SaveTMAni@CObject3D@@AAEHPAU_iobuf@@PAUGMOBJECT@@@Z PROC NEAR ; CObject3D::SaveTMAni, COMDAT
; _this$ = ecx

; 1568 : {

  00000	53		 push	 ebx
  00001	56		 push	 esi
  00002	57		 push	 edi

; 1569 : 	int		bFrame;
; 1570 : 	if( pObject->m_pFrame )	bFrame = 1;

  00003	8b 7c 24 14	 mov	 edi, DWORD PTR _pObject$[esp+8]
  00007	8b 9f 40 01 00
	00		 mov	 ebx, DWORD PTR [edi+320]
  0000d	33 c0		 xor	 eax, eax
  0000f	85 db		 test	 ebx, ebx

; 1571 : 	else					bFrame = 0;
; 1572 : 	fwrite( &bFrame, 4, 1, fp );

  00011	8b 5c 24 10	 mov	 ebx, DWORD PTR _fp$[esp+8]
  00015	0f 95 c0	 setne	 al
  00018	53		 push	 ebx
  00019	6a 01		 push	 1
  0001b	8b f1		 mov	 esi, ecx
  0001d	8d 4c 24 1c	 lea	 ecx, DWORD PTR _bFrame$[esp+16]
  00021	6a 04		 push	 4
  00023	51		 push	 ecx
  00024	89 44 24 24	 mov	 DWORD PTR _bFrame$[esp+24], eax
  00028	e8 00 00 00 00	 call	 _fwrite

; 1573 : 	if( bFrame == 0 )	return FAIL;	//    .

  0002d	8b 44 24 24	 mov	 eax, DWORD PTR _bFrame$[esp+24]
  00031	83 c4 10	 add	 esp, 16			; 00000010H
  00034	85 c0		 test	 eax, eax
  00036	75 09		 jne	 SHORT $L226336
  00038	5f		 pop	 edi
  00039	5e		 pop	 esi
  0003a	83 c8 ff	 or	 eax, -1
  0003d	5b		 pop	 ebx

; 1581 : }

  0003e	c2 08 00	 ret	 8
$L226336:

; 1574 : 
; 1575 : 	if( m_nMaxFrame > 0 )

  00041	8b 86 1c 0c 00
	00		 mov	 eax, DWORD PTR [esi+3100]
  00047	85 c0		 test	 eax, eax
  00049	7e 16		 jle	 SHORT $L226337

; 1576 : 	{
; 1577 : 		fwrite( pObject->m_pFrame, sizeof(TM_ANIMATION) * m_nMaxFrame, 1, fp );

  0004b	8b 97 40 01 00
	00		 mov	 edx, DWORD PTR [edi+320]
  00051	6b c0 1c	 imul	 eax, 28			; 0000001cH
  00054	53		 push	 ebx
  00055	6a 01		 push	 1
  00057	50		 push	 eax
  00058	52		 push	 edx
  00059	e8 00 00 00 00	 call	 _fwrite
  0005e	83 c4 10	 add	 esp, 16			; 00000010H
$L226337:
  00061	5f		 pop	 edi
  00062	5e		 pop	 esi

; 1578 : 	}
; 1579 : 
; 1580 : 	return SUCCESS;

  00063	b8 01 00 00 00	 mov	 eax, 1
  00068	5b		 pop	 ebx

; 1581 : }

  00069	c2 08 00	 ret	 8
?SaveTMAni@CObject3D@@AAEHPAU_iobuf@@PAUGMOBJECT@@@Z ENDP ; CObject3D::SaveTMAni
_TEXT	ENDS
PUBLIC	?Release@CStringData@ATL@@QAEXXZ		; ATL::CStringData::Release
; Function compile flags: /Ogty
; File c:\program files\microsoft visual studio .net 2003\vc7\atlmfc\include\atlsimpstr.h
;	COMDAT ?Release@CStringData@ATL@@QAEXXZ
_TEXT	SEGMENT
?Release@CStringData@ATL@@QAEXXZ PROC NEAR		; ATL::CStringData::Release, COMDAT
; _this$ = ecx

; 93   : 		ATLASSERT( nRefs != 0 );
; 94   : 
; 95   : 		if( _InterlockedDecrement( &nRefs ) <= 0 )

  00000	8d 41 0c	 lea	 eax, DWORD PTR [ecx+12]
  00003	83 ca ff	 or	 edx, -1
  00006	f0 0f c1 10	 lock	  xadd	 DWORD PTR [eax], edx
  0000a	4a		 dec	 edx
  0000b	85 d2		 test	 edx, edx
  0000d	7f 0a		 jg	 SHORT $L39885

; 96   : 		{
; 97   : 			pStringMgr->Free( this );

  0000f	8b 01		 mov	 eax, DWORD PTR [ecx]
  00011	8b 10		 mov	 edx, DWORD PTR [eax]
  00013	51		 push	 ecx
  00014	8b c8		 mov	 ecx, eax
  00016	ff 52 04	 call	 DWORD PTR [edx+4]
$L39885:

; 98   : 		}
; 99   : 	}

  00019	c3		 ret	 0
?Release@CStringData@ATL@@QAEXXZ ENDP			; ATL::CStringData::Release
_TEXT	ENDS
PUBLIC	__real@00000000
PUBLIC	?ComputeInterval@CObject3D@@QAEXMMMMMMMMAAM0000@Z ; CObject3D::ComputeInterval
;	COMDAT __real@00000000
; File c:\documents and settings\test\mes documents\source\virtuos_v17\build\program\_common\object3d.cpp
CONST	SEGMENT
__real@00000000 DD 000000000r			; 0
; Function compile flags: /Ogty
CONST	ENDS
;	COMDAT ?ComputeInterval@CObject3D@@QAEXMMMMMMMMAAM0000@Z
_TEXT	SEGMENT
_fVV0$ = 8						; size = 4
_fVV1$ = 12						; size = 4
_fVV2$ = 16						; size = 4
_fD0$ = 20						; size = 4
_fD1$ = 24						; size = 4
_fD2$ = 28						; size = 4
_fD0D1$ = 32						; size = 4
_fD0D2$ = 36						; size = 4
_fA$ = 40						; size = 4
_fB$ = 44						; size = 4
_fC$ = 48						; size = 4
_fX0$ = 52						; size = 4
_fX1$ = 56						; size = 4
?ComputeInterval@CObject3D@@QAEXMMMMMMMMAAM0000@Z PROC NEAR ; CObject3D::ComputeInterval, COMDAT
; _this$ = ecx

; 2130 : 	if(fD0D1 > 0.0f) 

  00000	d9 44 24 1c	 fld	 DWORD PTR _fD0D1$[esp-4]
  00004	d8 1d 00 00 00
	00		 fcomp	 DWORD PTR __real@00000000
  0000a	df e0		 fnstsw	 ax
  0000c	f6 c4 41	 test	 ah, 65			; 00000041H

; 2131 : 	{ 
; 2132 : 		fA = fVV2; fB = (fVV0 - fVV2) * fD2; fC = (fVV1 - fVV2) * fD2; fX0 = fD2 - fD0; fX1 = fD2 - fD1; 
; 2133 : 	}
; 2134 : 	else if(fD0D2 > 0.0f)

  0000f	0f 84 05 01 00
	00		 je	 $L228805
  00015	d9 44 24 20	 fld	 DWORD PTR _fD0D2$[esp-4]
  00019	d8 1d 00 00 00
	00		 fcomp	 DWORD PTR __real@00000000
  0001f	df e0		 fnstsw	 ax
  00021	f6 c4 41	 test	 ah, 65			; 00000041H
  00024	75 4d		 jne	 SHORT $L226589

; 2135 : 	{
; 2136 : 		fA = fVV1; fB = (fVV0 - fVV1) * fD1; fC = (fVV2 - fVV1) * fD1; fX0 = fD1 - fD0; fX1 = fD1 - fD2;

  00026	8b 54 24 24	 mov	 edx, DWORD PTR _fA$[esp-4]
  0002a	d9 44 24 08	 fld	 DWORD PTR _fVV1$[esp-4]
  0002e	8b 44 24 28	 mov	 eax, DWORD PTR _fB$[esp-4]
  00032	d9 1a		 fstp	 DWORD PTR [edx]
  00034	d9 44 24 04	 fld	 DWORD PTR _fVV0$[esp-4]
  00038	8b 4c 24 2c	 mov	 ecx, DWORD PTR _fC$[esp-4]
  0003c	d8 64 24 08	 fsub	 DWORD PTR _fVV1$[esp-4]
  00040	8b 54 24 30	 mov	 edx, DWORD PTR _fX0$[esp-4]
  00044	d8 4c 24 14	 fmul	 DWORD PTR _fD1$[esp-4]
  00048	d9 18		 fstp	 DWORD PTR [eax]

; 2139 : 	{
; 2140 : 		fA = fVV0; fB = (fVV1 - fVV0) * fD0; fC = (fVV2 - fVV0) * fD0; fX0 = fD0 - fD1; fX1 = fD0 - fD2;

  0004a	8b 44 24 34	 mov	 eax, DWORD PTR _fX1$[esp-4]
  0004e	d9 44 24 0c	 fld	 DWORD PTR _fVV2$[esp-4]
  00052	d8 64 24 08	 fsub	 DWORD PTR _fVV1$[esp-4]
  00056	d8 4c 24 14	 fmul	 DWORD PTR _fD1$[esp-4]
  0005a	d9 19		 fstp	 DWORD PTR [ecx]
  0005c	d9 44 24 14	 fld	 DWORD PTR _fD1$[esp-4]
  00060	d8 64 24 10	 fsub	 DWORD PTR _fD0$[esp-4]
  00064	d9 1a		 fstp	 DWORD PTR [edx]
  00066	d9 44 24 14	 fld	 DWORD PTR _fD1$[esp-4]
  0006a	d8 64 24 18	 fsub	 DWORD PTR _fD2$[esp-4]
  0006e	d9 18		 fstp	 DWORD PTR [eax]

; 2149 : 	}
; 2150 : 	else
; 2151 : 	{
; 2152 : 		return;
; 2153 : 	}
; 2154 : 
; 2155 : }

  00070	c2 34 00	 ret	 52			; 00000034H
$L226589:

; 2137 : 	}
; 2138 : 	else if(fD1 * fD2 > 0.0f || fD0 != 0.0f)

  00073	d9 44 24 14	 fld	 DWORD PTR _fD1$[esp-4]
  00077	d8 4c 24 18	 fmul	 DWORD PTR _fD2$[esp-4]
  0007b	d8 1d 00 00 00
	00		 fcomp	 DWORD PTR __real@00000000
  00081	df e0		 fnstsw	 ax
  00083	f6 c4 41	 test	 ah, 65			; 00000041H
  00086	0f 84 db 00 00
	00		 je	 $L226592
  0008c	d9 05 00 00 00
	00		 fld	 DWORD PTR __real@00000000
  00092	d9 44 24 10	 fld	 DWORD PTR _fD0$[esp-4]
  00096	da e9		 fucompp
  00098	df e0		 fnstsw	 ax
  0009a	f6 c4 44	 test	 ah, 68			; 00000044H
  0009d	0f 8a c4 00 00
	00		 jp	 $L226592

; 2141 : 	}
; 2142 : 	else if(fD1 != 0.0f) 

  000a3	d9 05 00 00 00
	00		 fld	 DWORD PTR __real@00000000
  000a9	d9 44 24 14	 fld	 DWORD PTR _fD1$[esp-4]
  000ad	da e9		 fucompp
  000af	df e0		 fnstsw	 ax
  000b1	f6 c4 44	 test	 ah, 68			; 00000044H
  000b4	7b 4d		 jnp	 SHORT $L226594

; 2143 : 	{
; 2144 : 		fA = fVV1; fB = (fVV0 - fVV1) * fD1; fC = ( fVV2 - fVV1) * fD1; fX0 = fD1 - fD0; fX1 = fD1 - fD2;

  000b6	8b 4c 24 24	 mov	 ecx, DWORD PTR _fA$[esp-4]
  000ba	d9 44 24 08	 fld	 DWORD PTR _fVV1$[esp-4]
  000be	8b 54 24 28	 mov	 edx, DWORD PTR _fB$[esp-4]
  000c2	d9 19		 fstp	 DWORD PTR [ecx]
  000c4	d9 44 24 04	 fld	 DWORD PTR _fVV0$[esp-4]
  000c8	8b 44 24 2c	 mov	 eax, DWORD PTR _fC$[esp-4]
  000cc	d8 64 24 08	 fsub	 DWORD PTR _fVV1$[esp-4]
  000d0	8b 4c 24 30	 mov	 ecx, DWORD PTR _fX0$[esp-4]
  000d4	d8 4c 24 14	 fmul	 DWORD PTR _fD1$[esp-4]
  000d8	d9 1a		 fstp	 DWORD PTR [edx]
  000da	8b 54 24 34	 mov	 edx, DWORD PTR _fX1$[esp-4]
  000de	d9 44 24 0c	 fld	 DWORD PTR _fVV2$[esp-4]
  000e2	d8 64 24 08	 fsub	 DWORD PTR _fVV1$[esp-4]
  000e6	d8 4c 24 14	 fmul	 DWORD PTR _fD1$[esp-4]
  000ea	d9 18		 fstp	 DWORD PTR [eax]
  000ec	d9 44 24 14	 fld	 DWORD PTR _fD1$[esp-4]
  000f0	d8 64 24 10	 fsub	 DWORD PTR _fD0$[esp-4]
  000f4	d9 19		 fstp	 DWORD PTR [ecx]
  000f6	d9 44 24 14	 fld	 DWORD PTR _fD1$[esp-4]
  000fa	d8 64 24 18	 fsub	 DWORD PTR _fD2$[esp-4]
  000fe	d9 1a		 fstp	 DWORD PTR [edx]

; 2149 : 	}
; 2150 : 	else
; 2151 : 	{
; 2152 : 		return;
; 2153 : 	}
; 2154 : 
; 2155 : }

  00100	c2 34 00	 ret	 52			; 00000034H
$L226594:

; 2145 : 	}
; 2146 : 	else if(fD2 != 0.0f)

  00103	d9 05 00 00 00
	00		 fld	 DWORD PTR __real@00000000
  00109	d9 44 24 18	 fld	 DWORD PTR _fD2$[esp-4]
  0010d	da e9		 fucompp
  0010f	df e0		 fnstsw	 ax
  00111	f6 c4 44	 test	 ah, 68			; 00000044H
  00114	0f 8b 97 00 00
	00		 jnp	 $L226597
$L228805:

; 2147 : 	{
; 2148 : 		fA = fVV2; fB = (fVV0 - fVV2) * fD2; fC = (fVV1 - fVV2) * fD2; fX0 = fD2 - fD0; fX1 = fD2 - fD1;

  0011a	8b 44 24 24	 mov	 eax, DWORD PTR _fA$[esp-4]
  0011e	d9 44 24 0c	 fld	 DWORD PTR _fVV2$[esp-4]
  00122	8b 4c 24 28	 mov	 ecx, DWORD PTR _fB$[esp-4]
  00126	d9 18		 fstp	 DWORD PTR [eax]
  00128	d9 44 24 04	 fld	 DWORD PTR _fVV0$[esp-4]
  0012c	8b 54 24 2c	 mov	 edx, DWORD PTR _fC$[esp-4]
  00130	d8 64 24 0c	 fsub	 DWORD PTR _fVV2$[esp-4]
  00134	8b 44 24 30	 mov	 eax, DWORD PTR _fX0$[esp-4]
  00138	d8 4c 24 18	 fmul	 DWORD PTR _fD2$[esp-4]
  0013c	d9 19		 fstp	 DWORD PTR [ecx]
  0013e	8b 4c 24 34	 mov	 ecx, DWORD PTR _fX1$[esp-4]
  00142	d9 44 24 08	 fld	 DWORD PTR _fVV1$[esp-4]
  00146	d8 64 24 0c	 fsub	 DWORD PTR _fVV2$[esp-4]
  0014a	d8 4c 24 18	 fmul	 DWORD PTR _fD2$[esp-4]
  0014e	d9 1a		 fstp	 DWORD PTR [edx]
  00150	d9 44 24 18	 fld	 DWORD PTR _fD2$[esp-4]
  00154	d8 64 24 10	 fsub	 DWORD PTR _fD0$[esp-4]
  00158	d9 18		 fstp	 DWORD PTR [eax]
  0015a	d9 44 24 18	 fld	 DWORD PTR _fD2$[esp-4]
  0015e	d8 64 24 14	 fsub	 DWORD PTR _fD1$[esp-4]
  00162	d9 19		 fstp	 DWORD PTR [ecx]

; 2149 : 	}
; 2150 : 	else
; 2151 : 	{
; 2152 : 		return;
; 2153 : 	}
; 2154 : 
; 2155 : }

  00164	c2 34 00	 ret	 52			; 00000034H
$L226592:

; 2139 : 	{
; 2140 : 		fA = fVV0; fB = (fVV1 - fVV0) * fD0; fC = (fVV2 - fVV0) * fD0; fX0 = fD0 - fD1; fX1 = fD0 - fD2;

  00167	8b 54 24 24	 mov	 edx, DWORD PTR _fA$[esp-4]
  0016b	d9 44 24 04	 fld	 DWORD PTR _fVV0$[esp-4]
  0016f	8b 44 24 28	 mov	 eax, DWORD PTR _fB$[esp-4]
  00173	d9 1a		 fstp	 DWORD PTR [edx]
  00175	d9 44 24 08	 fld	 DWORD PTR _fVV1$[esp-4]
  00179	8b 4c 24 2c	 mov	 ecx, DWORD PTR _fC$[esp-4]
  0017d	d8 64 24 04	 fsub	 DWORD PTR _fVV0$[esp-4]
  00181	8b 54 24 30	 mov	 edx, DWORD PTR _fX0$[esp-4]
  00185	d8 4c 24 10	 fmul	 DWORD PTR _fD0$[esp-4]
  00189	d9 18		 fstp	 DWORD PTR [eax]
  0018b	8b 44 24 34	 mov	 eax, DWORD PTR _fX1$[esp-4]
  0018f	d9 44 24 0c	 fld	 DWORD PTR _fVV2$[esp-4]
  00193	d8 64 24 04	 fsub	 DWORD PTR _fVV0$[esp-4]
  00197	d8 4c 24 10	 fmul	 DWORD PTR _fD0$[esp-4]
  0019b	d9 19		 fstp	 DWORD PTR [ecx]
  0019d	d9 44 24 10	 fld	 DWORD PTR _fD0$[esp-4]
  001a1	d8 64 24 14	 fsub	 DWORD PTR _fD1$[esp-4]
  001a5	d9 1a		 fstp	 DWORD PTR [edx]
  001a7	d9 44 24 10	 fld	 DWORD PTR _fD0$[esp-4]
  001ab	d8 64 24 18	 fsub	 DWORD PTR _fD2$[esp-4]
  001af	d9 18		 fstp	 DWORD PTR [eax]
$L226597:

; 2149 : 	}
; 2150 : 	else
; 2151 : 	{
; 2152 : 		return;
; 2153 : 	}
; 2154 : 
; 2155 : }

  001b1	c2 34 00	 ret	 52			; 00000034H
?ComputeInterval@CObject3D@@QAEXMMMMMMMMAAM0000@Z ENDP	; CObject3D::ComputeInterval
_TEXT	ENDS
PUBLIC	?SetTexture@CObject3D@@QAEXPBD@Z		; CObject3D::SetTexture
; Function compile flags: /Ogty
;	COMDAT ?SetTexture@CObject3D@@QAEXPBD@Z
_TEXT	SEGMENT
_szTexture$ = 8						; size = 4
?SetTexture@CObject3D@@QAEXPBD@Z PROC NEAR		; CObject3D::SetTexture, COMDAT
; _this$ = ecx

; 2462 : #if !defined(__WORLDSERVER)
; 2463 : 	MATERIAL	*pMtrl;
; 2464 : 	D3DMATERIAL9	mMtrl;
; 2465 : 
; 2466 : 	pMtrl = g_TextureMng.AddMaterial( m_pd3dDevice, &mMtrl, szTexture );
; 2467 : 	m_Group[0].m_pObject[0].m_pMtrlBlkTexture[0] = pMtrl->m_pTexture;
; 2468 : #endif
; 2469 : }

  00000	c2 04 00	 ret	 4
?SetTexture@CObject3D@@QAEXPBD@Z ENDP			; CObject3D::SetTexture
_TEXT	ENDS
PUBLIC	?SetTexture@CObject3D@@QAEXPAUIDirect3DTexture9@@@Z ; CObject3D::SetTexture
; Function compile flags: /Ogty
;	COMDAT ?SetTexture@CObject3D@@QAEXPAUIDirect3DTexture9@@@Z
_TEXT	SEGMENT
_pTexture$ = 8						; size = 4
?SetTexture@CObject3D@@QAEXPAUIDirect3DTexture9@@@Z PROC NEAR ; CObject3D::SetTexture, COMDAT
; _this$ = ecx

; 2473 : #if !defined(__WORLDSERVER)
; 2474 : 	m_Group[0].m_pObject[0].m_pMtrlBlkTexture[0] = pTexture;
; 2475 : #endif
; 2476 : }

  00000	c2 04 00	 ret	 4
?SetTexture@CObject3D@@QAEXPAUIDirect3DTexture9@@@Z ENDP ; CObject3D::SetTexture
_TEXT	ENDS
PUBLIC	?LoadTextureEx@CObject3D@@QAEXHPAUGMOBJECT@@QAPAUMATERIAL@@@Z ; CObject3D::LoadTextureEx
; Function compile flags: /Ogty
;	COMDAT ?LoadTextureEx@CObject3D@@QAEXHPAUGMOBJECT@@QAPAUMATERIAL@@@Z
_TEXT	SEGMENT
_nNumEx$ = 8						; size = 4
_pObj$ = 12						; size = 4
_pmMaterial$ = 16					; size = 4
?LoadTextureEx@CObject3D@@QAEXHPAUGMOBJECT@@QAPAUMATERIAL@@@Z PROC NEAR ; CObject3D::LoadTextureEx, COMDAT
; _this$ = ecx

; 2480 : #if !defined(__WORLDSERVER)
; 2481 : 	int		i;
; 2482 : 	char	szTexture[MAX_PATH];
; 2483 : 	char	szFileExt[MAX_PATH];
; 2484 : 	char	szNum[16];
; 2485 : 	D3DMATERIAL9	mMaterial;
; 2486 : 
; 2487 : 	memset( &mMaterial, 0, sizeof(mMaterial) );
; 2488 : 
; 2489 : 	//   -et    .
; 2490 : 	for( i = 0; i < pObj->m_nMaxMaterial; i ++ )
; 2491 : 	{
; 2492 : 		if( IsEmpty( pObj->m_MaterialAry[i].strBitMapFileName ) )	continue;
; 2493 : 		strcpy( szTexture, pObj->m_MaterialAry[i].strBitMapFileName );		// mvr_bang.dds
; 2494 : //		strcpy( szTexture, ::GetFileTitle( pObj->m_MaterialAry[i].strBitMapFileName ) );	// mvr_bang
; 2495 : 		GetFileTitle( pObj->m_MaterialAry[i].strBitMapFileName, szTexture );	// mvr_bang
; 2496 : 		strcat( szTexture, "-et" );		// -et.  .  mvr_bang-et.
; 2497 : 		sprintf( szNum, "%02d.", nNumEx );	
; 2498 : 		strcat( szTexture, szNum );			// -et01 ~ 07
; 2499 : //		strcat( szTexture, ::GetFileExt( pObj->m_MaterialAry[i].strBitMapFileName ) );		// mvr_bang-et.dds
; 2500 : 		GetFileExt( pObj->m_MaterialAry[i].strBitMapFileName, szFileExt );	// mvr_bang-et.dds
; 2501 : 		lstrcat( szTexture, szFileExt );
; 2502 : 
; 2503 : 		if( IsEmpty(szTexture) == FALSE )
; 2504 : 			pmMaterial[i] = g_TextureMng.AddMaterial( m_pd3dDevice, &mMaterial, szTexture );
; 2505 : 	}
; 2506 : #endif // !__WORLDSERVER
; 2507 : }

  00000	c2 0c 00	 ret	 12			; 0000000cH
?LoadTextureEx@CObject3D@@QAEXHPAUGMOBJECT@@QAPAUMATERIAL@@@Z ENDP ; CObject3D::LoadTextureEx
_TEXT	ENDS
PUBLIC	?SetTextureEx@CObject3D@@QAEXPAUGMOBJECT@@H@Z	; CObject3D::SetTextureEx
; Function compile flags: /Ogty
;	COMDAT ?SetTextureEx@CObject3D@@QAEXPAUGMOBJECT@@H@Z
_TEXT	SEGMENT
_pObj$ = 8						; size = 4
_nNumEx$ = 12						; size = 4
?SetTextureEx@CObject3D@@QAEXPAUGMOBJECT@@H@Z PROC NEAR	; CObject3D::SetTextureEx, COMDAT
; _this$ = ecx

; 2514 : #if !defined(__WORLDSERVER)
; 2515 : 	LPDIRECT3DTEXTURE9	*pTextureEx;		//   
; 2516 : 	int		i;
; 2517 : 	MATERIAL	*mMaterial[16];
; 2518 : 	int		nID;
; 2519 : 	
; 2520 : 	if( nNumEx >= 8 )
; 2521 : 	{
; 2522 : 		Error( "CObject3D::SetTextureEx : nNumEx = %d", nNumEx );
; 2523 : 		return;
; 2524 : 	}
; 2525 : 	pTextureEx = pObj->m_pMtrlBlkTexture + (pObj->m_nMaxMtrlBlk * nNumEx);		//  .
; 2526 : 	
; 2527 : //	if( bUse )
; 2528 : 	if( 1 )
; 2529 : 	{
; 2530 : 		memset( mMaterial, 0, sizeof(mMaterial) );
; 2531 : 		
; 2532 : 		if( pTextureEx[0] == NULL )		//    .
; 2533 : 		{
; 2534 : 			LoadTextureEx( nNumEx, pObj, mMaterial );		//  .
; 2535 : 			for( i = 0; i < pObj->m_nMaxMtrlBlk; i ++ )
; 2536 : 			{
; 2537 : 				nID = pObj->m_pMtrlBlk[i].m_nTextureID;
; 2538 : 				if( mMaterial[ nID ] )
; 2539 : 					pTextureEx[i] = mMaterial[ nID ]->m_pTexture;		//  .
; 2540 : 			}
; 2541 : 		}
; 2542 : 	}
; 2543 : 	else
; 2544 : 	{
; 2545 : 		for( i = 0; i < pObj->m_nMaxMtrlBlk; i ++ )
; 2546 : 			pTextureEx[i] = NULL;
; 2547 : 	}
; 2548 : 	
; 2549 : 	m_nTextureEx = nNumEx;
; 2550 : #endif
; 2551 : }

  00000	c2 08 00	 ret	 8
?SetTextureEx@CObject3D@@QAEXPAUGMOBJECT@@H@Z ENDP	; CObject3D::SetTextureEx
_TEXT	ENDS
PUBLIC	?ClearNormal@CObject3D@@QAEXXZ			; CObject3D::ClearNormal
; Function compile flags: /Ogty
;	COMDAT ?ClearNormal@CObject3D@@QAEXXZ
_TEXT	SEGMENT
?ClearNormal@CObject3D@@QAEXXZ PROC NEAR		; CObject3D::ClearNormal, COMDAT
; _this$ = ecx

; 2555 : /*	int		i;
; 2556 : 	D3DXVECTOR3		n = D3DXVECTOR3( 0.0f, 1.0f, 0.0f );
; 2557 : 
; 2558 : 	for( int j = 0; j < m_nMaxObject; j++ )
; 2559 : 	{
; 2560 : 		GMOBJECT* pObject = &m_pObject[j];
; 2561 : 		if( pObject->m_Type == GMT_SKIN )
; 2562 : 		{
; 2563 : 			SKINVERTEX *pVB = (SKINVERTEX*)(pObject->m_pVB);
; 2564 : 			for( i = 0; i < pObject->m_nMaxVB; i ++ )		pVB[i].normal = n;
; 2565 : 		}
; 2566 : 		else
; 2567 : 		{
; 2568 : 			NORMALVERTEX *pVB = (NORMALVERTEX*)(pObject->m_pVB);
; 2569 : 			for( i = 0; i < pObject->m_nMaxVB; i ++ )		pVB[i].normal = n;
; 2570 : 		}
; 2571 : 
; 2572 : 		SendVertexBuffer( pObject, NULL );
; 2573 : 	}
; 2574 : 	*/
; 2575 : }

  00000	c3		 ret	 0
?ClearNormal@CObject3D@@QAEXXZ ENDP			; CObject3D::ClearNormal
_TEXT	ENDS
PUBLIC	?Animate@CObject3D@@QAEXMH@Z			; CObject3D::Animate
; Function compile flags: /Ogty
;	COMDAT ?Animate@CObject3D@@QAEXMH@Z
_TEXT	SEGMENT
_fFrameCurrent$ = 8					; size = 4
_nNextFrame$ = 12					; size = 4
?Animate@CObject3D@@QAEXMH@Z PROC NEAR			; CObject3D::Animate, COMDAT
; _this$ = ecx

; 2585 : #if !defined(__WORLDSERVER)
; 2586 : 	int		i;
; 2587 : 	TM_ANIMATION	*pFrame = NULL;					//  
; 2588 : 	TM_ANIMATION	*pNext = NULL;					//  
; 2589 : 	D3DXQUATERNION	qSlerp;
; 2590 : 	D3DXVECTOR3		vSlerp;
; 2591 : 	int		nCurrFrame;
; 2592 : 	float	fSlp;
; 2593 : 	D3DXMATRIX	m1, m2;
; 2594 : 	D3DXMATRIX *mUpdate = m_pGroup->_mUpdate;
; 2595 : 	D3DXMATRIX *mParent;
; 2596 : 
; 2597 : 	GMOBJECT	*pObj;
; 2598 : 	int nMaxObj = m_pGroup->m_nMaxObject;
; 2599 : 	for( i = 0; i < nMaxObj; i ++ )
; 2600 : 	{
; 2601 : 		pObj = &m_pGroup->m_pObject[i];
; 2602 : 		if( pObj->m_ParentType == GMT_BONE )
; 2603 : 		{
; 2604 : 			if( m_pmExternBone )	mParent = m_pmExternBone;
; 2605 : 			else					mParent = m_pBaseBone;
; 2606 : 		} else
; 2607 : 			mParent = m_pGroup->_mUpdate;
; 2608 : 		if( m_nMaxFrame > 0 )	//  
; 2609 : 		{
; 2610 : 			if( pObj->m_pFrame )
; 2611 : 			{
; 2612 : 				//   Slerp .
; 2613 : 				nCurrFrame = (int)fFrameCurrent;			//   ..
; 2614 : 				fSlp = fFrameCurrent - (float)nCurrFrame;	//   
; 2615 : 
; 2616 : 				pFrame = &pObj->m_pFrame[ nCurrFrame ];		//    
; 2617 : 				pNext  = &pObj->m_pFrame[ nNextFrame ];		//    
; 2618 : 
; 2619 : 				D3DXQuaternionSlerp( &qSlerp, &pFrame->m_qRot, &pNext->m_qRot, fSlp );		//  
; 2620 : 				D3DXVec3Lerp( &vSlerp, &pFrame->m_vPos, &pNext->m_vPos, fSlp );					//  
; 2621 : 
; 2622 : 				// matAniTM
; 2623 : 				//  
; 2624 : 				D3DXMatrixTranslation( &m1,	 vSlerp.x,  vSlerp.y,  vSlerp.z );
; 2625 : 			
; 2626 : 				//     
; 2627 : 				D3DXMatrixRotationQuaternion( &m2, &qSlerp );
; 2628 : 				mUpdate[i] = m2 * m1;		//  X  = 
; 2629 : 
; 2630 : 				if( pObj->m_nParentIdx != -1 )
; 2631 : 					mUpdate[i] *= mParent[ pObj->m_nParentIdx ];
; 2632 : //				else
; 2633 : //					mUpdate[i] *= *mCenter;		//    .
; 2634 : 					
; 2635 : 			} else
; 2636 : 			//    
; 2637 : 			{
; 2638 : 				if( pObj->m_nParentIdx != -1 )	//   
; 2639 : 					mUpdate[i] = pObj->m_mLocalTM * mParent[ pObj->m_nParentIdx ];
; 2640 : 				else
; 2641 : 					mUpdate[i] = pObj->m_mLocalTM;					//   .
; 2642 : //					mUpdate[i] = pObj->m_mLocalTM * *mCenter;		//   .    .
; 2643 : 			}
; 2644 : 		} else
; 2645 : 		//  .
; 2646 : 		{
; 2647 : 			if( pObj->m_nParentIdx != -1 )
; 2648 : 				mUpdate[i] = pObj->m_mLocalTM * mParent[ pObj->m_nParentIdx ];
; 2649 : 			else
; 2650 : 				mUpdate[i] = pObj->m_mLocalTM;		//   . 
; 2651 : //				mUpdate[i] = pObj->m_mLocalTM * *mCenter;		//   .    .
; 2652 : 		}
; 2653 : 
; 2654 : 		// mUpdate[i]   WorldTM
; 2655 : 	}
; 2656 : #endif // __WORLDSERVER
; 2657 : }

  00000	c2 08 00	 ret	 8
?Animate@CObject3D@@QAEXMH@Z ENDP			; CObject3D::Animate
_TEXT	ENDS
PUBLIC	?Skining@CObject3D@@QAEXPAUGMOBJECT@@PBUD3DXMATRIX@@@Z ; CObject3D::Skining
; Function compile flags: /Ogty
;	COMDAT ?Skining@CObject3D@@QAEXPAUGMOBJECT@@PBUD3DXMATRIX@@@Z
_TEXT	SEGMENT
_pObj$ = 8						; size = 4
_mBones$ = 12						; size = 4
?Skining@CObject3D@@QAEXPAUGMOBJECT@@PBUD3DXMATRIX@@@Z PROC NEAR ; CObject3D::Skining, COMDAT
; _this$ = ecx

; 2666 : /*
; 2667 : 	D3DXVECTOR3	*vLocal, *vWorld;
; 2668 : 	int			*pPhysique;
; 2669 : 	int			nMax;
; 2670 : 
; 2671 : 	//   .
; 2672 : 	//      BONE     
; 2673 : 	//   .
; 2674 : 	vLocal	  = pObj->m_pVertexList;
; 2675 : 	pPhysique = pObj->m_pPhysiqueVertex;
; 2676 : 	nMax	  = pObj->m_nMaxVertexList;
; 2677 : 	vWorld	  = pObj->_pVertexUpdate;
; 2678 : 	while( nMax-- )
; 2679 : 	{
; 2680 : 		D3DXVec3TransformCoord( vWorld, vLocal, &mBones[ *pPhysique ] );		//   bone  .
; 2681 : 		//     .
; 2682 : 		vLocal ++;
; 2683 : 		vWorld ++;
; 2684 : 		pPhysique ++;
; 2685 : 	}
; 2686 : */
; 2687 : }

  00000	c2 08 00	 ret	 8
?Skining@CObject3D@@QAEXPAUGMOBJECT@@PBUD3DXMATRIX@@@Z ENDP ; CObject3D::Skining
_TEXT	ENDS
PUBLIC	?SetVertexBuffer@CObject3D@@QAEJPAUGMOBJECT@@@Z	; CObject3D::SetVertexBuffer
; Function compile flags: /Ogty
;	COMDAT ?SetVertexBuffer@CObject3D@@QAEJPAUGMOBJECT@@@Z
_TEXT	SEGMENT
_pObj$ = 8						; size = 4
?SetVertexBuffer@CObject3D@@QAEJPAUGMOBJECT@@@Z PROC NEAR ; CObject3D::SetVertexBuffer, COMDAT
; _this$ = ecx

; 2694 : /*
; 2695 : 	CUSTOMVERTEX	*_pVB = pObj->_pVB;			//   
; 2696 : 	WORD			*pIB;
; 2697 : 	D3DXVECTOR3		*pVList;
; 2698 : 	int				nMax = pObj->m_nMaxVB;		// 
; 2699 : 
; 2700 : 	// WorldPos   
; 2701 : 	// Skining()  WorldPos  .
; 2702 : 	pIB    = pObj->m_pIIB;
; 2703 : 	pVList = pObj->_pVertexUpdate;
; 2704 : 	while( nMax-- )
; 2705 : 	{
; 2706 : 		_pVB->position = pVList[ *pIB ];
; 2707 : 		_pVB ++;
; 2708 : 		pIB ++;
; 2709 : 	}
; 2710 : */
; 2711 : 	return S_OK;

  00000	33 c0		 xor	 eax, eax

; 2712 : }

  00002	c2 04 00	 ret	 4
?SetVertexBuffer@CObject3D@@QAEJPAUGMOBJECT@@@Z ENDP	; CObject3D::SetVertexBuffer
_TEXT	ENDS
PUBLIC	?SendVertexBuffer@CObject3D@@QAEJPAUGMOBJECT@@PAUIDirect3DVertexBuffer9@@@Z ; CObject3D::SendVertexBuffer
; Function compile flags: /Ogty
;	COMDAT ?SendVertexBuffer@CObject3D@@QAEJPAUGMOBJECT@@PAUIDirect3DVertexBuffer9@@@Z
_TEXT	SEGMENT
_pVertices$ = 8						; size = 4
_pObj$ = 8						; size = 4
_pd3d_VB$ = 12						; size = 4
?SendVertexBuffer@CObject3D@@QAEJPAUGMOBJECT@@PAUIDirect3DVertexBuffer9@@@Z PROC NEAR ; CObject3D::SendVertexBuffer, COMDAT
; _this$ = ecx

; 2717 : {

  00000	53		 push	 ebx

; 2718 : 	LPDIRECT3DDEVICE9 pd3dDevice = m_pd3dDevice;
; 2719 : 	HRESULT	hr;
; 2720 : 	VOID*	pVertices;
; 2721 : 	int		nMax;
; 2722 : 	int		nVertexSize;
; 2723 : 	
; 2724 : 	nVertexSize = pObj->m_nVertexSize;
; 2725 : 	
; 2726 : 	//   
; 2727 : 	nMax = pObj->m_nMaxVB * nVertexSize;
; 2728 : /*
; 2729 : 	char buff[256] = { 0 };
; 2730 : 	sprintf( buff, "%s\t%d,%d : TYPE : %d\n", m_szFileName, pObj->m_nMaxVB, pObj->m_nVertexSize, pObj->m_VBType );
; 2731 : 	OutputDebugString( buff );
; 2732 : */				
; 2733 : 				
; 2734 : 	if( FAILED( hr = pd3d_VB->Lock( 0, nMax, (void**)&pVertices, 0 ) ) )		// send vertex buffer

  00001	8b 5c 24 0c	 mov	 ebx, DWORD PTR _pd3d_VB$[esp]
  00005	8b 03		 mov	 eax, DWORD PTR [ebx]
  00007	56		 push	 esi
  00008	57		 push	 edi
  00009	8b 7c 24 10	 mov	 edi, DWORD PTR _pObj$[esp+8]
  0000d	8b b7 ac 0a 00
	00		 mov	 esi, DWORD PTR [edi+2732]
  00013	0f af 77 04	 imul	 esi, DWORD PTR [edi+4]
  00017	6a 00		 push	 0
  00019	8d 4c 24 14	 lea	 ecx, DWORD PTR _pVertices$[esp+12]
  0001d	51		 push	 ecx
  0001e	56		 push	 esi
  0001f	6a 00		 push	 0
  00021	53		 push	 ebx
  00022	ff 50 2c	 call	 DWORD PTR [eax+44]
  00025	85 c0		 test	 eax, eax

; 2735 : 		return hr;

  00027	7c 22		 jl	 SHORT $L226800

; 2736 : 	memcpy( pVertices, pObj->m_pVB, nMax );	

  00029	8b ce		 mov	 ecx, esi
  0002b	8b b7 a0 0a 00
	00		 mov	 esi, DWORD PTR [edi+2720]
  00031	8b 7c 24 10	 mov	 edi, DWORD PTR _pVertices$[esp+8]
  00035	8b d1		 mov	 edx, ecx
  00037	c1 e9 02	 shr	 ecx, 2
  0003a	f3 a5		 rep movsd
  0003c	8b ca		 mov	 ecx, edx
  0003e	83 e1 03	 and	 ecx, 3
  00041	f3 a4		 rep movsb

; 2737 : 	
; 2738 : 	pd3d_VB->Unlock();

  00043	8b 03		 mov	 eax, DWORD PTR [ebx]
  00045	53		 push	 ebx
  00046	ff 50 30	 call	 DWORD PTR [eax+48]

; 2739 : 	
; 2740 : 	return S_OK;

  00049	33 c0		 xor	 eax, eax
$L226800:
  0004b	5f		 pop	 edi
  0004c	5e		 pop	 esi
  0004d	5b		 pop	 ebx

; 2741 : }

  0004e	c2 08 00	 ret	 8
?SendVertexBuffer@CObject3D@@QAEJPAUGMOBJECT@@PAUIDirect3DVertexBuffer9@@@Z ENDP ; CObject3D::SendVertexBuffer
_TEXT	ENDS
PUBLIC	?SendIndexBuffer@CObject3D@@QAEJPAUGMOBJECT@@@Z	; CObject3D::SendIndexBuffer
; Function compile flags: /Ogty
;	COMDAT ?SendIndexBuffer@CObject3D@@QAEJPAUGMOBJECT@@@Z
_TEXT	SEGMENT
_pVertices$ = 8						; size = 4
_pObj$ = 8						; size = 4
?SendIndexBuffer@CObject3D@@QAEJPAUGMOBJECT@@@Z PROC NEAR ; CObject3D::SendIndexBuffer, COMDAT
; _this$ = ecx

; 2747 : {

  00000	53		 push	 ebx

; 2748 : 	LPDIRECT3DDEVICE9 pd3dDevice = m_pd3dDevice;
; 2749 : 	VOID*	pVertices;
; 2750 : 	int		nMax;
; 2751 : 
; 2752 : 	//   
; 2753 : 	nMax = pObj->m_nMaxIB * sizeof(WORD);

  00001	8b 5c 24 08	 mov	 ebx, DWORD PTR _pObj$[esp]

; 2754 : 	if( FAILED(	pObj->m_pd3d_IB->Lock( 0, nMax, (void**)&pVertices, 0 ) ) )	// send index buffer

  00005	8b 83 b8 0a 00
	00		 mov	 eax, DWORD PTR [ebx+2744]
  0000b	8b 08		 mov	 ecx, DWORD PTR [eax]
  0000d	56		 push	 esi
  0000e	8b b3 b0 0a 00
	00		 mov	 esi, DWORD PTR [ebx+2736]
  00014	6a 00		 push	 0
  00016	8d 54 24 10	 lea	 edx, DWORD PTR _pVertices$[esp+8]
  0001a	52		 push	 edx
  0001b	d1 e6		 shl	 esi, 1
  0001d	56		 push	 esi
  0001e	6a 00		 push	 0
  00020	50		 push	 eax
  00021	ff 51 2c	 call	 DWORD PTR [ecx+44]
  00024	85 c0		 test	 eax, eax
  00026	7d 08		 jge	 SHORT $L226820
  00028	5e		 pop	 esi

; 2755 : 		return FAIL;

  00029	83 c8 ff	 or	 eax, -1
  0002c	5b		 pop	 ebx

; 2761 : }

  0002d	c2 04 00	 ret	 4
$L226820:

; 2756 : 	
; 2757 : 	memcpy( pVertices, pObj->m_pIB, nMax );	

  00030	8b ce		 mov	 ecx, esi
  00032	8b b3 a4 0a 00
	00		 mov	 esi, DWORD PTR [ebx+2724]
  00038	8b c1		 mov	 eax, ecx
  0003a	57		 push	 edi
  0003b	8b 7c 24 10	 mov	 edi, DWORD PTR _pVertices$[esp+8]
  0003f	c1 e9 02	 shr	 ecx, 2
  00042	f3 a5		 rep movsd
  00044	8b c8		 mov	 ecx, eax
  00046	83 e1 03	 and	 ecx, 3
  00049	f3 a4		 rep movsb

; 2758 : 	pObj->m_pd3d_IB->Unlock();

  0004b	8b 9b b8 0a 00
	00		 mov	 ebx, DWORD PTR [ebx+2744]
  00051	8b 0b		 mov	 ecx, DWORD PTR [ebx]
  00053	53		 push	 ebx
  00054	ff 51 30	 call	 DWORD PTR [ecx+48]
  00057	5f		 pop	 edi
  00058	5e		 pop	 esi

; 2759 : 
; 2760 : 	return S_OK;

  00059	33 c0		 xor	 eax, eax
  0005b	5b		 pop	 ebx

; 2761 : }

  0005c	c2 04 00	 ret	 4
?SendIndexBuffer@CObject3D@@QAEJPAUGMOBJECT@@@Z ENDP	; CObject3D::SendIndexBuffer
_TEXT	ENDS
PUBLIC	?size@?$_Tree@V?$_Tmap_traits@V?$basic_string@DU?$char_traits@D@std@@V?$allocator@D@2@@std@@PAVCObject3D@@U?$less@V?$basic_string@DU?$char_traits@D@std@@V?$allocator@D@2@@std@@@2@V?$allocator@U?$pair@$$CBV?$basic_string@DU?$char_traits@D@std@@V?$allocator@D@2@@std@@PAVCObject3D@@@std@@@2@$0A@@std@@@std@@QBEIXZ ; std::_Tree<std::_Tmap_traits<std::basic_string<char,std::char_traits<char>,std::allocator<char> >,CObject3D *,std::less<std::basic_string<char,std::char_traits<char>,std::allocator<char> > >,std::allocator<std::pair<std::basic_string<char,std::char_traits<char>,std::allocator<char> > const ,CObject3D *> >,0> >::size
; Function compile flags: /Ogty
; File c:\program files\microsoft visual studio .net 2003\vc7\include\xtree
;	COMDAT ?size@?$_Tree@V?$_Tmap_traits@V?$basic_string@DU?$char_traits@D@std@@V?$allocator@D@2@@std@@PAVCObject3D@@U?$less@V?$basic_string@DU?$char_traits@D@std@@V?$allocator@D@2@@std@@@2@V?$allocator@U?$pair@$$CBV?$basic_string@DU?$char_traits@D@std@@V?$allocator@D@2@@std@@PAVCObject3D@@@std@@@2@$0A@@std@@@std@@QBEIXZ
_TEXT	SEGMENT
?size@?$_Tree@V?$_Tmap_traits@V?$basic_string@DU?$char_traits@D@std@@V?$allocator@D@2@@std@@PAVCObject3D@@U?$less@V?$basic_string@DU?$char_traits@D@std@@V?$allocator@D@2@@std@@@2@V?$allocator@U?$pair@$$CBV?$basic_string@DU?$char_traits@D@std@@V?$allocator@D@2@@std@@PAVCObject3D@@@std@@@2@$0A@@std@@@std@@QBEIXZ PROC NEAR ; std::_Tree<std::_Tmap_traits<std::basic_string<char,std::char_traits<char>,std::allocator<char> >,CObject3D *,std::less<std::basic_string<char,std::char_traits<char>,std::allocator<char> > >,std::allocator<std::pair<std::basic_string<char,std::char_traits<char>,std::allocator<char> > const ,CObject3D *> >,0> >::size, COMDAT
; _this$ = ecx

; 448  : 		return (_Mysize);

  00000	8b 41 08	 mov	 eax, DWORD PTR [ecx+8]

; 449  : 		}

  00003	c3		 ret	 0
?size@?$_Tree@V?$_Tmap_traits@V?$basic_string@DU?$char_traits@D@std@@V?$allocator@D@2@@std@@PAVCObject3D@@U?$less@V?$basic_string@DU?$char_traits@D@std@@V?$allocator@D@2@@std@@@2@V?$allocator@U?$pair@$$CBV?$basic_string@DU?$char_traits@D@std@@V?$allocator@D@2@@std@@PAVCObject3D@@@std@@@2@$0A@@std@@@std@@QBEIXZ ENDP ; std::_Tree<std::_Tmap_traits<std::basic_string<char,std::char_traits<char>,std::allocator<char> >,CObject3D *,std::less<std::basic_string<char,std::char_traits<char>,std::allocator<char> > >,std::allocator<std::pair<std::basic_string<char,std::char_traits<char>,std::allocator<char> > const ,CObject3D *> >,0> >::size
_TEXT	ENDS
PUBLIC	?_Isnil@?$_Tree@V?$_Tmap_traits@V?$basic_string@DU?$char_traits@D@std@@V?$allocator@D@2@@std@@PAVCObject3D@@U?$less@V?$basic_string@DU?$char_traits@D@std@@V?$allocator@D@2@@std@@@2@V?$allocator@U?$pair@$$CBV?$basic_string@DU?$char_traits@D@std@@V?$allocator@D@2@@std@@PAVCObject3D@@@std@@@2@$0A@@std@@@std@@KAAADPAU_Node@?$_Tree_nod@V?$_Tmap_traits@V?$basic_string@DU?$char_traits@D@std@@V?$allocator@D@2@@std@@PAVCObject3D@@U?$less@V?$basic_string@DU?$char_traits@D@std@@V?$allocator@D@2@@std@@@2@V?$allocator@U?$pair@$$CBV?$basic_string@DU?$char_traits@D@std@@V?$allocator@D@2@@std@@PAVCObject3D@@@std@@@2@$0A@@std@@@2@@Z ; std::_Tree<std::_Tmap_traits<std::basic_string<char,std::char_traits<char>,std::allocator<char> >,CObject3D *,std::less<std::basic_string<char,std::char_traits<char>,std::allocator<char> > >,std::allocator<std::pair<std::basic_string<char,std::char_traits<char>,std::allocator<char> > const ,CObject3D *> >,0> >::_Isnil
; Function compile flags: /Ogty
;	COMDAT ?_Isnil@?$_Tree@V?$_Tmap_traits@V?$basic_string@DU?$char_traits@D@std@@V?$allocator@D@2@@std@@PAVCObject3D@@U?$less@V?$basic_string@DU?$char_traits@D@std@@V?$allocator@D@2@@std@@@2@V?$allocator@U?$pair@$$CBV?$basic_string@DU?$char_traits@D@std@@V?$allocator@D@2@@std@@PAVCObject3D@@@std@@@2@$0A@@std@@@std@@KAAADPAU_Node@?$_Tree_nod@V?$_Tmap_traits@V?$basic_string@DU?$char_traits@D@std@@V?$allocator@D@2@@std@@PAVCObject3D@@U?$less@V?$basic_string@DU?$char_traits@D@std@@V?$allocator@D@2@@std@@@2@V?$allocator@U?$pair@$$CBV?$basic_string@DU?$char_traits@D@std@@V?$allocator@D@2@@std@@PAVCObject3D@@@std@@@2@$0A@@std@@@2@@Z
_TEXT	SEGMENT
__Pnode$ = 8						; size = 4
?_Isnil@?$_Tree@V?$_Tmap_traits@V?$basic_string@DU?$char_traits@D@std@@V?$allocator@D@2@@std@@PAVCObject3D@@U?$less@V?$basic_string@DU?$char_traits@D@std@@V?$allocator@D@2@@std@@@2@V?$allocator@U?$pair@$$CBV?$basic_string@DU?$char_traits@D@std@@V?$allocator@D@2@@std@@PAVCObject3D@@@std@@@2@$0A@@std@@@std@@KAAADPAU_Node@?$_Tree_nod@V?$_Tmap_traits@V?$basic_string@DU?$char_traits@D@std@@V?$allocator@D@2@@std@@PAVCObject3D@@U?$less@V?$basic_string@DU?$char_traits@D@std@@V?$allocator@D@2@@std@@@2@V?$allocator@U?$pair@$$CBV?$basic_string@DU?$char_traits@D@std@@V?$allocator@D@2@@std@@PAVCObject3D@@@std@@@2@$0A@@std@@@2@@Z PROC NEAR ; std::_Tree<std::_Tmap_traits<std::basic_string<char,std::char_traits<char>,std::allocator<char> >,CObject3D *,std::less<std::basic_string<char,std::char_traits<char>,std::allocator<char> > >,std::allocator<std::pair<std::basic_string<char,std::char_traits<char>,std::allocator<char> > const ,CObject3D *> >,0> >::_Isnil, COMDAT

; 137  : 		return ((_Charref)(*_Pnode)._Isnil);

  00000	8b 44 24 04	 mov	 eax, DWORD PTR __Pnode$[esp-4]
  00004	83 c0 2d	 add	 eax, 45			; 0000002dH

; 138  : 		}

  00007	c3		 ret	 0
?_Isnil@?$_Tree@V?$_Tmap_traits@V?$basic_string@DU?$char_traits@D@std@@V?$allocator@D@2@@std@@PAVCObject3D@@U?$less@V?$basic_string@DU?$char_traits@D@std@@V?$allocator@D@2@@std@@@2@V?$allocator@U?$pair@$$CBV?$basic_string@DU?$char_traits@D@std@@V?$allocator@D@2@@std@@PAVCObject3D@@@std@@@2@$0A@@std@@@std@@KAAADPAU_Node@?$_Tree_nod@V?$_Tmap_traits@V?$basic_string@DU?$char_traits@D@std@@V?$allocator@D@2@@std@@PAVCObject3D@@U?$less@V?$basic_string@DU?$char_traits@D@std@@V?$allocator@D@2@@std@@@2@V?$allocator@U?$pair@$$CBV?$basic_string@DU?$char_traits@D@std@@V?$allocator@D@2@@std@@PAVCObject3D@@@std@@@2@$0A@@std@@@2@@Z ENDP ; std::_Tree<std::_Tmap_traits<std::basic_string<char,std::char_traits<char>,std::allocator<char> >,CObject3D *,std::less<std::basic_string<char,std::char_traits<char>,std::allocator<char> > >,std::allocator<std::pair<std::basic_string<char,std::char_traits<char>,std::allocator<char> > const ,CObject3D *> >,0> >::_Isnil
_TEXT	ENDS
PUBLIC	?_Left@?$_Tree@V?$_Tmap_traits@V?$basic_string@DU?$char_traits@D@std@@V?$allocator@D@2@@std@@PAVCObject3D@@U?$less@V?$basic_string@DU?$char_traits@D@std@@V?$allocator@D@2@@std@@@2@V?$allocator@U?$pair@$$CBV?$basic_string@DU?$char_traits@D@std@@V?$allocator@D@2@@std@@PAVCObject3D@@@std@@@2@$0A@@std@@@std@@KAAAPAU_Node@?$_Tree_nod@V?$_Tmap_traits@V?$basic_string@DU?$char_traits@D@std@@V?$allocator@D@2@@std@@PAVCObject3D@@U?$less@V?$basic_string@DU?$char_traits@D@std@@V?$allocator@D@2@@std@@@2@V?$allocator@U?$pair@$$CBV?$basic_string@DU?$char_traits@D@std@@V?$allocator@D@2@@std@@PAVCObject3D@@@std@@@2@$0A@@std@@@2@PAU342@@Z ; std::_Tree<std::_Tmap_traits<std::basic_string<char,std::char_traits<char>,std::allocator<char> >,CObject3D *,std::less<std::basic_string<char,std::char_traits<char>,std::allocator<char> > >,std::allocator<std::pair<std::basic_string<char,std::char_traits<char>,std::allocator<char> > const ,CObject3D *> >,0> >::_Left
; Function compile flags: /Ogty
;	COMDAT ?_Left@?$_Tree@V?$_Tmap_traits@V?$basic_string@DU?$char_traits@D@std@@V?$allocator@D@2@@std@@PAVCObject3D@@U?$less@V?$basic_string@DU?$char_traits@D@std@@V?$allocator@D@2@@std@@@2@V?$allocator@U?$pair@$$CBV?$basic_string@DU?$char_traits@D@std@@V?$allocator@D@2@@std@@PAVCObject3D@@@std@@@2@$0A@@std@@@std@@KAAAPAU_Node@?$_Tree_nod@V?$_Tmap_traits@V?$basic_string@DU?$char_traits@D@std@@V?$allocator@D@2@@std@@PAVCObject3D@@U?$less@V?$basic_string@DU?$char_traits@D@std@@V?$allocator@D@2@@std@@@2@V?$allocator@U?$pair@$$CBV?$basic_string@DU?$char_traits@D@std@@V?$allocator@D@2@@std@@PAVCObject3D@@@std@@@2@$0A@@std@@@2@PAU342@@Z
_TEXT	SEGMENT
__Pnode$ = 8						; size = 4
?_Left@?$_Tree@V?$_Tmap_traits@V?$basic_string@DU?$char_traits@D@std@@V?$allocator@D@2@@std@@PAVCObject3D@@U?$less@V?$basic_string@DU?$char_traits@D@std@@V?$allocator@D@2@@std@@@2@V?$allocator@U?$pair@$$CBV?$basic_string@DU?$char_traits@D@std@@V?$allocator@D@2@@std@@PAVCObject3D@@@std@@@2@$0A@@std@@@std@@KAAAPAU_Node@?$_Tree_nod@V?$_Tmap_traits@V?$basic_string@DU?$char_traits@D@std@@V?$allocator@D@2@@std@@PAVCObject3D@@U?$less@V?$basic_string@DU?$char_traits@D@std@@V?$allocator@D@2@@std@@@2@V?$allocator@U?$pair@$$CBV?$basic_string@DU?$char_traits@D@std@@V?$allocator@D@2@@std@@PAVCObject3D@@@std@@@2@$0A@@std@@@2@PAU342@@Z PROC NEAR ; std::_Tree<std::_Tmap_traits<std::basic_string<char,std::char_traits<char>,std::allocator<char> >,CObject3D *,std::less<std::basic_string<char,std::char_traits<char>,std::allocator<char> > >,std::allocator<std::pair<std::basic_string<char,std::char_traits<char>,std::allocator<char> > const ,CObject3D *> >,0> >::_Left, COMDAT

; 147  : 		return ((_Nodepref)(*_Pnode)._Left);

  00000	8b 44 24 04	 mov	 eax, DWORD PTR __Pnode$[esp-4]

; 148  : 		}

  00004	c3		 ret	 0
?_Left@?$_Tree@V?$_Tmap_traits@V?$basic_string@DU?$char_traits@D@std@@V?$allocator@D@2@@std@@PAVCObject3D@@U?$less@V?$basic_string@DU?$char_traits@D@std@@V?$allocator@D@2@@std@@@2@V?$allocator@U?$pair@$$CBV?$basic_string@DU?$char_traits@D@std@@V?$allocator@D@2@@std@@PAVCObject3D@@@std@@@2@$0A@@std@@@std@@KAAAPAU_Node@?$_Tree_nod@V?$_Tmap_traits@V?$basic_string@DU?$char_traits@D@std@@V?$allocator@D@2@@std@@PAVCObject3D@@U?$less@V?$basic_string@DU?$char_traits@D@std@@V?$allocator@D@2@@std@@@2@V?$allocator@U?$pair@$$CBV?$basic_string@DU?$char_traits@D@std@@V?$allocator@D@2@@std@@PAVCObject3D@@@std@@@2@$0A@@std@@@2@PAU342@@Z ENDP ; std::_Tree<std::_Tmap_traits<std::basic_string<char,std::char_traits<char>,std::allocator<char> >,CObject3D *,std::less<std::basic_string<char,std::char_traits<char>,std::allocator<char> > >,std::allocator<std::pair<std::basic_string<char,std::char_traits<char>,std::allocator<char> > const ,CObject3D *> >,0> >::_Left
_TEXT	ENDS
PUBLIC	?_Right@?$_Tree@V?$_Tmap_traits@V?$basic_string@DU?$char_traits@D@std@@V?$allocator@D@2@@std@@PAVCObject3D@@U?$less@V?$basic_string@DU?$char_traits@D@std@@V?$allocator@D@2@@std@@@2@V?$allocator@U?$pair@$$CBV?$basic_string@DU?$char_traits@D@std@@V?$allocator@D@2@@std@@PAVCObject3D@@@std@@@2@$0A@@std@@@std@@KAAAPAU_Node@?$_Tree_nod@V?$_Tmap_traits@V?$basic_string@DU?$char_traits@D@std@@V?$allocator@D@2@@std@@PAVCObject3D@@U?$less@V?$basic_string@DU?$char_traits@D@std@@V?$allocator@D@2@@std@@@2@V?$allocator@U?$pair@$$CBV?$basic_string@DU?$char_traits@D@std@@V?$allocator@D@2@@std@@PAVCObject3D@@@std@@@2@$0A@@std@@@2@PAU342@@Z ; std::_Tree<std::_Tmap_traits<std::basic_string<char,std::char_traits<char>,std::allocator<char> >,CObject3D *,std::less<std::basic_string<char,std::char_traits<char>,std::allocator<char> > >,std::allocator<std::pair<std::basic_string<char,std::char_traits<char>,std::allocator<char> > const ,CObject3D *> >,0> >::_Right
; Function compile flags: /Ogty
;	COMDAT ?_Right@?$_Tree@V?$_Tmap_traits@V?$basic_string@DU?$char_traits@D@std@@V?$allocator@D@2@@std@@PAVCObject3D@@U?$less@V?$basic_string@DU?$char_traits@D@std@@V?$allocator@D@2@@std@@@2@V?$allocator@U?$pair@$$CBV?$basic_string@DU?$char_traits@D@std@@V?$allocator@D@2@@std@@PAVCObject3D@@@std@@@2@$0A@@std@@@std@@KAAAPAU_Node@?$_Tree_nod@V?$_Tmap_traits@V?$basic_string@DU?$char_traits@D@std@@V?$allocator@D@2@@std@@PAVCObject3D@@U?$less@V?$basic_string@DU?$char_traits@D@std@@V?$allocator@D@2@@std@@@2@V?$allocator@U?$pair@$$CBV?$basic_string@DU?$char_traits@D@std@@V?$allocator@D@2@@std@@PAVCObject3D@@@std@@@2@$0A@@std@@@2@PAU342@@Z
_TEXT	SEGMENT
__Pnode$ = 8						; size = 4
?_Right@?$_Tree@V?$_Tmap_traits@V?$basic_string@DU?$char_traits@D@std@@V?$allocator@D@2@@std@@PAVCObject3D@@U?$less@V?$basic_string@DU?$char_traits@D@std@@V?$allocator@D@2@@std@@@2@V?$allocator@U?$pair@$$CBV?$basic_string@DU?$char_traits@D@std@@V?$allocator@D@2@@std@@PAVCObject3D@@@std@@@2@$0A@@std@@@std@@KAAAPAU_Node@?$_Tree_nod@V?$_Tmap_traits@V?$basic_string@DU?$char_traits@D@std@@V?$allocator@D@2@@std@@PAVCObject3D@@U?$less@V?$basic_string@DU?$char_traits@D@std@@V?$allocator@D@2@@std@@@2@V?$allocator@U?$pair@$$CBV?$basic_string@DU?$char_traits@D@std@@V?$allocator@D@2@@std@@PAVCObject3D@@@std@@@2@$0A@@std@@@2@PAU342@@Z PROC NEAR ; std::_Tree<std::_Tmap_traits<std::basic_string<char,std::char_traits<char>,std::allocator<char> >,CObject3D *,std::less<std::basic_string<char,std::char_traits<char>,std::allocator<char> > >,std::allocator<std::pair<std::basic_string<char,std::char_traits<char>,std::allocator<char> > const ,CObject3D *> >,0> >::_Right, COMDAT

; 157  : 		return ((_Nodepref)(*_Pnode)._Right);

  00000	8b 44 24 04	 mov	 eax, DWORD PTR __Pnode$[esp-4]
  00004	83 c0 08	 add	 eax, 8

; 158  : 		}

  00007	c3		 ret	 0
?_Right@?$_Tree@V?$_Tmap_traits@V?$basic_string@DU?$char_traits@D@std@@V?$allocator@D@2@@std@@PAVCObject3D@@U?$less@V?$basic_string@DU?$char_traits@D@std@@V?$allocator@D@2@@std@@@2@V?$allocator@U?$pair@$$CBV?$basic_string@DU?$char_traits@D@std@@V?$allocator@D@2@@std@@PAVCObject3D@@@std@@@2@$0A@@std@@@std@@KAAAPAU_Node@?$_Tree_nod@V?$_Tmap_traits@V?$basic_string@DU?$char_traits@D@std@@V?$allocator@D@2@@std@@PAVCObject3D@@U?$less@V?$basic_string@DU?$char_traits@D@std@@V?$allocator@D@2@@std@@@2@V?$allocator@U?$pair@$$CBV?$basic_string@DU?$char_traits@D@std@@V?$allocator@D@2@@std@@PAVCObject3D@@@std@@@2@$0A@@std@@@2@PAU342@@Z ENDP ; std::_Tree<std::_Tmap_traits<std::basic_string<char,std::char_traits<char>,std::allocator<char> >,CObject3D *,std::less<std::basic_string<char,std::char_traits<char>,std::allocator<char> > >,std::allocator<std::pair<std::basic_string<char,std::char_traits<char>,std::allocator<char> > const ,CObject3D *> >,0> >::_Right
_TEXT	ENDS
PUBLIC	?_Lmost@?$_Tree@V?$_Tmap_traits@V?$basic_string@DU?$char_traits@D@std@@V?$allocator@D@2@@std@@PAVCObject3D@@U?$less@V?$basic_string@DU?$char_traits@D@std@@V?$allocator@D@2@@std@@@2@V?$allocator@U?$pair@$$CBV?$basic_string@DU?$char_traits@D@std@@V?$allocator@D@2@@std@@PAVCObject3D@@@std@@@2@$0A@@std@@@std@@IAEAAPAU_Node@?$_Tree_nod@V?$_Tmap_traits@V?$basic_string@DU?$char_traits@D@std@@V?$allocator@D@2@@std@@PAVCObject3D@@U?$less@V?$basic_string@DU?$char_traits@D@std@@V?$allocator@D@2@@std@@@2@V?$allocator@U?$pair@$$CBV?$basic_string@DU?$char_traits@D@std@@V?$allocator@D@2@@std@@PAVCObject3D@@@std@@@2@$0A@@std@@@2@XZ ; std::_Tree<std::_Tmap_traits<std::basic_string<char,std::char_traits<char>,std::allocator<char> >,CObject3D *,std::less<std::basic_string<char,std::char_traits<char>,std::allocator<char> > >,std::allocator<std::pair<std::basic_string<char,std::char_traits<char>,std::allocator<char> > const ,CObject3D *> >,0> >::_Lmost
; Function compile flags: /Ogty
;	COMDAT ?_Lmost@?$_Tree@V?$_Tmap_traits@V?$basic_string@DU?$char_traits@D@std@@V?$allocator@D@2@@std@@PAVCObject3D@@U?$less@V?$basic_string@DU?$char_traits@D@std@@V?$allocator@D@2@@std@@@2@V?$allocator@U?$pair@$$CBV?$basic_string@DU?$char_traits@D@std@@V?$allocator@D@2@@std@@PAVCObject3D@@@std@@@2@$0A@@std@@@std@@IAEAAPAU_Node@?$_Tree_nod@V?$_Tmap_traits@V?$basic_string@DU?$char_traits@D@std@@V?$allocator@D@2@@std@@PAVCObject3D@@U?$less@V?$basic_string@DU?$char_traits@D@std@@V?$allocator@D@2@@std@@@2@V?$allocator@U?$pair@$$CBV?$basic_string@DU?$char_traits@D@std@@V?$allocator@D@2@@std@@PAVCObject3D@@@std@@@2@$0A@@std@@@2@XZ
_TEXT	SEGMENT
?_Lmost@?$_Tree@V?$_Tmap_traits@V?$basic_string@DU?$char_traits@D@std@@V?$allocator@D@2@@std@@PAVCObject3D@@U?$less@V?$basic_string@DU?$char_traits@D@std@@V?$allocator@D@2@@std@@@2@V?$allocator@U?$pair@$$CBV?$basic_string@DU?$char_traits@D@std@@V?$allocator@D@2@@std@@PAVCObject3D@@@std@@@2@$0A@@std@@@std@@IAEAAPAU_Node@?$_Tree_nod@V?$_Tmap_traits@V?$basic_string@DU?$char_traits@D@std@@V?$allocator@D@2@@std@@PAVCObject3D@@U?$less@V?$basic_string@DU?$char_traits@D@std@@V?$allocator@D@2@@std@@@2@V?$allocator@U?$pair@$$CBV?$basic_string@DU?$char_traits@D@std@@V?$allocator@D@2@@std@@PAVCObject3D@@@std@@@2@$0A@@std@@@2@XZ PROC NEAR ; std::_Tree<std::_Tmap_traits<std::basic_string<char,std::char_traits<char>,std::allocator<char> >,CObject3D *,std::less<std::basic_string<char,std::char_traits<char>,std::allocator<char> > >,std::allocator<std::pair<std::basic_string<char,std::char_traits<char>,std::allocator<char> > const ,CObject3D *> >,0> >::_Lmost, COMDAT
; _this$ = ecx

; 1005 : 		return (_Left(_Myhead));

  00000	8b 41 04	 mov	 eax, DWORD PTR [ecx+4]

; 1006 : 		}

  00003	c3		 ret	 0
?_Lmost@?$_Tree@V?$_Tmap_traits@V?$basic_string@DU?$char_traits@D@std@@V?$allocator@D@2@@std@@PAVCObject3D@@U?$less@V?$basic_string@DU?$char_traits@D@std@@V?$allocator@D@2@@std@@@2@V?$allocator@U?$pair@$$CBV?$basic_string@DU?$char_traits@D@std@@V?$allocator@D@2@@std@@PAVCObject3D@@@std@@@2@$0A@@std@@@std@@IAEAAPAU_Node@?$_Tree_nod@V?$_Tmap_traits@V?$basic_string@DU?$char_traits@D@std@@V?$allocator@D@2@@std@@PAVCObject3D@@U?$less@V?$basic_string@DU?$char_traits@D@std@@V?$allocator@D@2@@std@@@2@V?$allocator@U?$pair@$$CBV?$basic_string@DU?$char_traits@D@std@@V?$allocator@D@2@@std@@PAVCObject3D@@@std@@@2@$0A@@std@@@2@XZ ENDP ; std::_Tree<std::_Tmap_traits<std::basic_string<char,std::char_traits<char>,std::allocator<char> >,CObject3D *,std::less<std::basic_string<char,std::char_traits<char>,std::allocator<char> > >,std::allocator<std::pair<std::basic_string<char,std::char_traits<char>,std::allocator<char> > const ,CObject3D *> >,0> >::_Lmost
_TEXT	ENDS
PUBLIC	?_Rmost@?$_Tree@V?$_Tmap_traits@V?$basic_string@DU?$char_traits@D@std@@V?$allocator@D@2@@std@@PAVCObject3D@@U?$less@V?$basic_string@DU?$char_traits@D@std@@V?$allocator@D@2@@std@@@2@V?$allocator@U?$pair@$$CBV?$basic_string@DU?$char_traits@D@std@@V?$allocator@D@2@@std@@PAVCObject3D@@@std@@@2@$0A@@std@@@std@@IAEAAPAU_Node@?$_Tree_nod@V?$_Tmap_traits@V?$basic_string@DU?$char_traits@D@std@@V?$allocator@D@2@@std@@PAVCObject3D@@U?$less@V?$basic_string@DU?$char_traits@D@std@@V?$allocator@D@2@@std@@@2@V?$allocator@U?$pair@$$CBV?$basic_string@DU?$char_traits@D@std@@V?$allocator@D@2@@std@@PAVCObject3D@@@std@@@2@$0A@@std@@@2@XZ ; std::_Tree<std::_Tmap_traits<std::basic_string<char,std::char_traits<char>,std::allocator<char> >,CObject3D *,std::less<std::basic_string<char,std::char_traits<char>,std::allocator<char> > >,std::allocator<std::pair<std::basic_string<char,std::char_traits<char>,std::allocator<char> > const ,CObject3D *> >,0> >::_Rmost
; Function compile flags: /Ogty
;	COMDAT ?_Rmost@?$_Tree@V?$_Tmap_traits@V?$basic_string@DU?$char_traits@D@std@@V?$allocator@D@2@@std@@PAVCObject3D@@U?$less@V?$basic_string@DU?$char_traits@D@std@@V?$allocator@D@2@@std@@@2@V?$allocator@U?$pair@$$CBV?$basic_string@DU?$char_traits@D@std@@V?$allocator@D@2@@std@@PAVCObject3D@@@std@@@2@$0A@@std@@@std@@IAEAAPAU_Node@?$_Tree_nod@V?$_Tmap_traits@V?$basic_string@DU?$char_traits@D@std@@V?$allocator@D@2@@std@@PAVCObject3D@@U?$less@V?$basic_string@DU?$char_traits@D@std@@V?$allocator@D@2@@std@@@2@V?$allocator@U?$pair@$$CBV?$basic_string@DU?$char_traits@D@std@@V?$allocator@D@2@@std@@PAVCObject3D@@@std@@@2@$0A@@std@@@2@XZ
_TEXT	SEGMENT
?_Rmost@?$_Tree@V?$_Tmap_traits@V?$basic_string@DU?$char_traits@D@std@@V?$allocator@D@2@@std@@PAVCObject3D@@U?$less@V?$basic_string@DU?$char_traits@D@std@@V?$allocator@D@2@@std@@@2@V?$allocator@U?$pair@$$CBV?$basic_string@DU?$char_traits@D@std@@V?$allocator@D@2@@std@@PAVCObject3D@@@std@@@2@$0A@@std@@@std@@IAEAAPAU_Node@?$_Tree_nod@V?$_Tmap_traits@V?$basic_string@DU?$char_traits@D@std@@V?$allocator@D@2@@std@@PAVCObject3D@@U?$less@V?$basic_string@DU?$char_traits@D@std@@V?$allocator@D@2@@std@@@2@V?$allocator@U?$pair@$$CBV?$basic_string@DU?$char_traits@D@std@@V?$allocator@D@2@@std@@PAVCObject3D@@@std@@@2@$0A@@std@@@2@XZ PROC NEAR ; std::_Tree<std::_Tmap_traits<std::basic_string<char,std::char_traits<char>,std::allocator<char> >,CObject3D *,std::less<std::basic_string<char,std::char_traits<char>,std::allocator<char> > >,std::allocator<std::pair<std::basic_string<char,std::char_traits<char>,std::allocator<char> > const ,CObject3D *> >,0> >::_Rmost, COMDAT
; _this$ = ecx

; 1049 : 		return (_Right(_Myhead));

  00000	8b 41 04	 mov	 eax, DWORD PTR [ecx+4]
  00003	83 c0 08	 add	 eax, 8

; 1050 : 		}

  00006	c3		 ret	 0
?_Rmost@?$_Tree@V?$_Tmap_traits@V?$basic_string@DU?$char_traits@D@std@@V?$allocator@D@2@@std@@PAVCObject3D@@U?$less@V?$basic_string@DU?$char_traits@D@std@@V?$allocator@D@2@@std@@@2@V?$allocator@U?$pair@$$CBV?$basic_string@DU?$char_traits@D@std@@V?$allocator@D@2@@std@@PAVCObject3D@@@std@@@2@$0A@@std@@@std@@IAEAAPAU_Node@?$_Tree_nod@V?$_Tmap_traits@V?$basic_string@DU?$char_traits@D@std@@V?$allocator@D@2@@std@@PAVCObject3D@@U?$less@V?$basic_string@DU?$char_traits@D@std@@V?$allocator@D@2@@std@@@2@V?$allocator@U?$pair@$$CBV?$basic_string@DU?$char_traits@D@std@@V?$allocator@D@2@@std@@PAVCObject3D@@@std@@@2@$0A@@std@@@2@XZ ENDP ; std::_Tree<std::_Tmap_traits<std::basic_string<char,std::char_traits<char>,std::allocator<char> >,CObject3D *,std::less<std::basic_string<char,std::char_traits<char>,std::allocator<char> > >,std::allocator<std::pair<std::basic_string<char,std::char_traits<char>,std::allocator<char> > const ,CObject3D *> >,0> >::_Rmost
_TEXT	ENDS
PUBLIC	?_Kfn@?$_Tmap_traits@V?$basic_string@DU?$char_traits@D@std@@V?$allocator@D@2@@std@@PAVCObject3D@@U?$less@V?$basic_string@DU?$char_traits@D@std@@V?$allocator@D@2@@std@@@2@V?$allocator@U?$pair@$$CBV?$basic_string@DU?$char_traits@D@std@@V?$allocator@D@2@@std@@PAVCObject3D@@@std@@@2@$0A@@std@@SAABV?$basic_string@DU?$char_traits@D@std@@V?$allocator@D@2@@2@ABU?$pair@$$CBV?$basic_string@DU?$char_traits@D@std@@V?$allocator@D@2@@std@@PAVCObject3D@@@2@@Z ; std::_Tmap_traits<std::basic_string<char,std::char_traits<char>,std::allocator<char> >,CObject3D *,std::less<std::basic_string<char,std::char_traits<char>,std::allocator<char> > >,std::allocator<std::pair<std::basic_string<char,std::char_traits<char>,std::allocator<char> > const ,CObject3D *> >,0>::_Kfn
; Function compile flags: /Ogty
; File c:\program files\microsoft visual studio .net 2003\vc7\include\map
;	COMDAT ?_Kfn@?$_Tmap_traits@V?$basic_string@DU?$char_traits@D@std@@V?$allocator@D@2@@std@@PAVCObject3D@@U?$less@V?$basic_string@DU?$char_traits@D@std@@V?$allocator@D@2@@std@@@2@V?$allocator@U?$pair@$$CBV?$basic_string@DU?$char_traits@D@std@@V?$allocator@D@2@@std@@PAVCObject3D@@@std@@@2@$0A@@std@@SAABV?$basic_string@DU?$char_traits@D@std@@V?$allocator@D@2@@2@ABU?$pair@$$CBV?$basic_string@DU?$char_traits@D@std@@V?$allocator@D@2@@std@@PAVCObject3D@@@2@@Z
_TEXT	SEGMENT
__Val$ = 8						; size = 4
?_Kfn@?$_Tmap_traits@V?$basic_string@DU?$char_traits@D@std@@V?$allocator@D@2@@std@@PAVCObject3D@@U?$less@V?$basic_string@DU?$char_traits@D@std@@V?$allocator@D@2@@std@@@2@V?$allocator@U?$pair@$$CBV?$basic_string@DU?$char_traits@D@std@@V?$allocator@D@2@@std@@PAVCObject3D@@@std@@@2@$0A@@std@@SAABV?$basic_string@DU?$char_traits@D@std@@V?$allocator@D@2@@2@ABU?$pair@$$CBV?$basic_string@DU?$char_traits@D@std@@V?$allocator@D@2@@std@@PAVCObject3D@@@2@@Z PROC NEAR ; std::_Tmap_traits<std::basic_string<char,std::char_traits<char>,std::allocator<char> >,CObject3D *,std::less<std::basic_string<char,std::char_traits<char>,std::allocator<char> > >,std::allocator<std::pair<std::basic_string<char,std::char_traits<char>,std::allocator<char> > const ,CObject3D *> >,0>::_Kfn, COMDAT

; 64   : 		return (_Val.first);

  00000	8b 44 24 04	 mov	 eax, DWORD PTR __Val$[esp-4]

; 65   : 		}

  00004	c3		 ret	 0
?_Kfn@?$_Tmap_traits@V?$basic_string@DU?$char_traits@D@std@@V?$allocator@D@2@@std@@PAVCObject3D@@U?$less@V?$basic_string@DU?$char_traits@D@std@@V?$allocator@D@2@@std@@@2@V?$allocator@U?$pair@$$CBV?$basic_string@DU?$char_traits@D@std@@V?$allocator@D@2@@std@@PAVCObject3D@@@std@@@2@$0A@@std@@SAABV?$basic_string@DU?$char_traits@D@std@@V?$allocator@D@2@@2@ABU?$pair@$$CBV?$basic_string@DU?$char_traits@D@std@@V?$allocator@D@2@@std@@PAVCObject3D@@@2@@Z ENDP ; std::_Tmap_traits<std::basic_string<char,std::char_traits<char>,std::allocator<char> >,CObject3D *,std::less<std::basic_string<char,std::char_traits<char>,std::allocator<char> > >,std::allocator<std::pair<std::basic_string<char,std::char_traits<char>,std::allocator<char> > const ,CObject3D *> >,0>::_Kfn
_TEXT	ENDS
PUBLIC	??0?$allocator@U?$pair@$$CBV?$basic_string@DU?$char_traits@D@std@@V?$allocator@D@2@@std@@PAVCObject3D@@@std@@@std@@QAE@XZ ; std::allocator<std::pair<std::basic_string<char,std::char_traits<char>,std::allocator<char> > const ,CObject3D *> >::allocator<std::pair<std::basic_string<char,std::char_traits<char>,std::allocator<char> > const ,CObject3D *> >
; Function compile flags: /Ogty
; File c:\program files\microsoft visual studio .net 2003\vc7\include\xmemory
;	COMDAT ??0?$allocator@U?$pair@$$CBV?$basic_string@DU?$char_traits@D@std@@V?$allocator@D@2@@std@@PAVCObject3D@@@std@@@std@@QAE@XZ
_TEXT	SEGMENT
??0?$allocator@U?$pair@$$CBV?$basic_string@DU?$char_traits@D@std@@V?$allocator@D@2@@std@@PAVCObject3D@@@std@@@std@@QAE@XZ PROC NEAR ; std::allocator<std::pair<std::basic_string<char,std::char_traits<char>,std::allocator<char> > const ,CObject3D *> >::allocator<std::pair<std::basic_string<char,std::char_traits<char>,std::allocator<char> > const ,CObject3D *> >, COMDAT
; _this$ = ecx

; 111  : 	allocator()

  00000	8b c1		 mov	 eax, ecx

; 112  : 		{	// construct default allocator (do nothing)
; 113  : 		}

  00002	c3		 ret	 0
??0?$allocator@U?$pair@$$CBV?$basic_string@DU?$char_traits@D@std@@V?$allocator@D@2@@std@@PAVCObject3D@@@std@@@std@@QAE@XZ ENDP ; std::allocator<std::pair<std::basic_string<char,std::char_traits<char>,std::allocator<char> > const ,CObject3D *> >::allocator<std::pair<std::basic_string<char,std::char_traits<char>,std::allocator<char> > const ,CObject3D *> >
_TEXT	ENDS
PUBLIC	??8const_iterator@?$_Tree@V?$_Tmap_traits@V?$basic_string@DU?$char_traits@D@std@@V?$allocator@D@2@@std@@PAVCObject3D@@U?$less@V?$basic_string@DU?$char_traits@D@std@@V?$allocator@D@2@@std@@@2@V?$allocator@U?$pair@$$CBV?$basic_string@DU?$char_traits@D@std@@V?$allocator@D@2@@std@@PAVCObject3D@@@std@@@2@$0A@@std@@@std@@QBE_NABV012@@Z ; std::_Tree<std::_Tmap_traits<std::basic_string<char,std::char_traits<char>,std::allocator<char> >,CObject3D *,std::less<std::basic_string<char,std::char_traits<char>,std::allocator<char> > >,std::allocator<std::pair<std::basic_string<char,std::char_traits<char>,std::allocator<char> > const ,CObject3D *> >,0> >::const_iterator::operator==
; Function compile flags: /Ogty
; File c:\program files\microsoft visual studio .net 2003\vc7\include\xtree
;	COMDAT ??8const_iterator@?$_Tree@V?$_Tmap_traits@V?$basic_string@DU?$char_traits@D@std@@V?$allocator@D@2@@std@@PAVCObject3D@@U?$less@V?$basic_string@DU?$char_traits@D@std@@V?$allocator@D@2@@std@@@2@V?$allocator@U?$pair@$$CBV?$basic_string@DU?$char_traits@D@std@@V?$allocator@D@2@@std@@PAVCObject3D@@@std@@@2@$0A@@std@@@std@@QBE_NABV012@@Z
_TEXT	SEGMENT
__Right$ = 8						; size = 4
??8const_iterator@?$_Tree@V?$_Tmap_traits@V?$basic_string@DU?$char_traits@D@std@@V?$allocator@D@2@@std@@PAVCObject3D@@U?$less@V?$basic_string@DU?$char_traits@D@std@@V?$allocator@D@2@@std@@@2@V?$allocator@U?$pair@$$CBV?$basic_string@DU?$char_traits@D@std@@V?$allocator@D@2@@std@@PAVCObject3D@@@std@@@2@$0A@@std@@@std@@QBE_NABV012@@Z PROC NEAR ; std::_Tree<std::_Tmap_traits<std::basic_string<char,std::char_traits<char>,std::allocator<char> >,CObject3D *,std::less<std::basic_string<char,std::char_traits<char>,std::allocator<char> > >,std::allocator<std::pair<std::basic_string<char,std::char_traits<char>,std::allocator<char> > const ,CObject3D *> >,0> >::const_iterator::operator==, COMDAT
; _this$ = ecx

; 241  : 			return (_Ptr == _Right._Ptr);

  00000	8b 01		 mov	 eax, DWORD PTR [ecx]
  00002	8b 4c 24 04	 mov	 ecx, DWORD PTR __Right$[esp-4]
  00006	2b 01		 sub	 eax, DWORD PTR [ecx]
  00008	f7 d8		 neg	 eax
  0000a	1b c0		 sbb	 eax, eax
  0000c	40		 inc	 eax

; 242  : 			}

  0000d	c2 04 00	 ret	 4
??8const_iterator@?$_Tree@V?$_Tmap_traits@V?$basic_string@DU?$char_traits@D@std@@V?$allocator@D@2@@std@@PAVCObject3D@@U?$less@V?$basic_string@DU?$char_traits@D@std@@V?$allocator@D@2@@std@@@2@V?$allocator@U?$pair@$$CBV?$basic_string@DU?$char_traits@D@std@@V?$allocator@D@2@@std@@PAVCObject3D@@@std@@@2@$0A@@std@@@std@@QBE_NABV012@@Z ENDP ; std::_Tree<std::_Tmap_traits<std::basic_string<char,std::char_traits<char>,std::allocator<char> >,CObject3D *,std::less<std::basic_string<char,std::char_traits<char>,std::allocator<char> > >,std::allocator<std::pair<std::basic_string<char,std::char_traits<char>,std::allocator<char> > const ,CObject3D *> >,0> >::const_iterator::operator==
_TEXT	ENDS
PUBLIC	?_Mynode@const_iterator@?$_Tree@V?$_Tmap_traits@V?$basic_string@DU?$char_traits@D@std@@V?$allocator@D@2@@std@@PAVCObject3D@@U?$less@V?$basic_string@DU?$char_traits@D@std@@V?$allocator@D@2@@std@@@2@V?$allocator@U?$pair@$$CBV?$basic_string@DU?$char_traits@D@std@@V?$allocator@D@2@@std@@PAVCObject3D@@@std@@@2@$0A@@std@@@std@@QBEPAU_Node@?$_Tree_nod@V?$_Tmap_traits@V?$basic_string@DU?$char_traits@D@std@@V?$allocator@D@2@@std@@PAVCObject3D@@U?$less@V?$basic_string@DU?$char_traits@D@std@@V?$allocator@D@2@@std@@@2@V?$allocator@U?$pair@$$CBV?$basic_string@DU?$char_traits@D@std@@V?$allocator@D@2@@std@@PAVCObject3D@@@std@@@2@$0A@@std@@@3@XZ ; std::_Tree<std::_Tmap_traits<std::basic_string<char,std::char_traits<char>,std::allocator<char> >,CObject3D *,std::less<std::basic_string<char,std::char_traits<char>,std::allocator<char> > >,std::allocator<std::pair<std::basic_string<char,std::char_traits<char>,std::allocator<char> > const ,CObject3D *> >,0> >::const_iterator::_Mynode
; Function compile flags: /Ogty
;	COMDAT ?_Mynode@const_iterator@?$_Tree@V?$_Tmap_traits@V?$basic_string@DU?$char_traits@D@std@@V?$allocator@D@2@@std@@PAVCObject3D@@U?$less@V?$basic_string@DU?$char_traits@D@std@@V?$allocator@D@2@@std@@@2@V?$allocator@U?$pair@$$CBV?$basic_string@DU?$char_traits@D@std@@V?$allocator@D@2@@std@@PAVCObject3D@@@std@@@2@$0A@@std@@@std@@QBEPAU_Node@?$_Tree_nod@V?$_Tmap_traits@V?$basic_string@DU?$char_traits@D@std@@V?$allocator@D@2@@std@@PAVCObject3D@@U?$less@V?$basic_string@DU?$char_traits@D@std@@V?$allocator@D@2@@std@@@2@V?$allocator@U?$pair@$$CBV?$basic_string@DU?$char_traits@D@std@@V?$allocator@D@2@@std@@PAVCObject3D@@@std@@@2@$0A@@std@@@3@XZ
_TEXT	SEGMENT
?_Mynode@const_iterator@?$_Tree@V?$_Tmap_traits@V?$basic_string@DU?$char_traits@D@std@@V?$allocator@D@2@@std@@PAVCObject3D@@U?$less@V?$basic_string@DU?$char_traits@D@std@@V?$allocator@D@2@@std@@@2@V?$allocator@U?$pair@$$CBV?$basic_string@DU?$char_traits@D@std@@V?$allocator@D@2@@std@@PAVCObject3D@@@std@@@2@$0A@@std@@@std@@QBEPAU_Node@?$_Tree_nod@V?$_Tmap_traits@V?$basic_string@DU?$char_traits@D@std@@V?$allocator@D@2@@std@@PAVCObject3D@@U?$less@V?$basic_string@DU?$char_traits@D@std@@V?$allocator@D@2@@std@@@2@V?$allocator@U?$pair@$$CBV?$basic_string@DU?$char_traits@D@std@@V?$allocator@D@2@@std@@PAVCObject3D@@@std@@@2@$0A@@std@@@3@XZ PROC NEAR ; std::_Tree<std::_Tmap_traits<std::basic_string<char,std::char_traits<char>,std::allocator<char> >,CObject3D *,std::less<std::basic_string<char,std::char_traits<char>,std::allocator<char> > >,std::allocator<std::pair<std::basic_string<char,std::char_traits<char>,std::allocator<char> > const ,CObject3D *> >,0> >::const_iterator::_Mynode, COMDAT
; _this$ = ecx

; 284  : 			return (_Ptr);

  00000	8b 01		 mov	 eax, DWORD PTR [ecx]

; 285  : 			}

  00002	c3		 ret	 0
?_Mynode@const_iterator@?$_Tree@V?$_Tmap_traits@V?$basic_string@DU?$char_traits@D@std@@V?$allocator@D@2@@std@@PAVCObject3D@@U?$less@V?$basic_string@DU?$char_traits@D@std@@V?$allocator@D@2@@std@@@2@V?$allocator@U?$pair@$$CBV?$basic_string@DU?$char_traits@D@std@@V?$allocator@D@2@@std@@PAVCObject3D@@@std@@@2@$0A@@std@@@std@@QBEPAU_Node@?$_Tree_nod@V?$_Tmap_traits@V?$basic_string@DU?$char_traits@D@std@@V?$allocator@D@2@@std@@PAVCObject3D@@U?$less@V?$basic_string@DU?$char_traits@D@std@@V?$allocator@D@2@@std@@@2@V?$allocator@U?$pair@$$CBV?$basic_string@DU?$char_traits@D@std@@V?$allocator@D@2@@std@@PAVCObject3D@@@std@@@2@$0A@@std@@@3@XZ ENDP ; std::_Tree<std::_Tmap_traits<std::basic_string<char,std::char_traits<char>,std::allocator<char> >,CObject3D *,std::less<std::basic_string<char,std::char_traits<char>,std::allocator<char> > >,std::allocator<std::pair<std::basic_string<char,std::char_traits<char>,std::allocator<char> > const ,CObject3D *> >,0> >::const_iterator::_Mynode
_TEXT	ENDS
PUBLIC	??0?$pair@Viterator@?$_Tree@V?$_Tmap_traits@V?$basic_string@DU?$char_traits@D@std@@V?$allocator@D@2@@std@@PAVCObject3D@@U?$less@V?$basic_string@DU?$char_traits@D@std@@V?$allocator@D@2@@std@@@2@V?$allocator@U?$pair@$$CBV?$basic_string@DU?$char_traits@D@std@@V?$allocator@D@2@@std@@PAVCObject3D@@@std@@@2@$0A@@std@@@std@@_N@std@@QAE@ABViterator@?$_Tree@V?$_Tmap_traits@V?$basic_string@DU?$char_traits@D@std@@V?$allocator@D@2@@std@@PAVCObject3D@@U?$less@V?$basic_string@DU?$char_traits@D@std@@V?$allocator@D@2@@std@@@2@V?$allocator@U?$pair@$$CBV?$basic_string@DU?$char_traits@D@std@@V?$allocator@D@2@@std@@PAVCObject3D@@@std@@@2@$0A@@std@@@1@AB_N@Z ; std::pair<std::_Tree<std::_Tmap_traits<std::basic_string<char,std::char_traits<char>,std::allocator<char> >,CObject3D *,std::less<std::basic_string<char,std::char_traits<char>,std::allocator<char> > >,std::allocator<std::pair<std::basic_string<char,std::char_traits<char>,std::allocator<char> > const ,CObject3D *> >,0> >::iterator,bool>::pair<std::_Tree<std::_Tmap_traits<std::basic_string<char,std::char_traits<char>,std::allocator<char> >,CObject3D *,std::less<std::basic_string<char,std::char_traits<char>,std::allocator<char> > >,std::allocator<std::pair<std::basic_string<char,std::char_traits<char>,std::allocator<char> > const ,CObject3D *> >,0> >::iterator,bool>
; Function compile flags: /Ogty
; File c:\program files\microsoft visual studio .net 2003\vc7\include\utility
;	COMDAT ??0?$pair@Viterator@?$_Tree@V?$_Tmap_traits@V?$basic_string@DU?$char_traits@D@std@@V?$allocator@D@2@@std@@PAVCObject3D@@U?$less@V?$basic_string@DU?$char_traits@D@std@@V?$allocator@D@2@@std@@@2@V?$allocator@U?$pair@$$CBV?$basic_string@DU?$char_traits@D@std@@V?$allocator@D@2@@std@@PAVCObject3D@@@std@@@2@$0A@@std@@@std@@_N@std@@QAE@ABViterator@?$_Tree@V?$_Tmap_traits@V?$basic_string@DU?$char_traits@D@std@@V?$allocator@D@2@@std@@PAVCObject3D@@U?$less@V?$basic_string@DU?$char_traits@D@std@@V?$allocator@D@2@@std@@@2@V?$allocator@U?$pair@$$CBV?$basic_string@DU?$char_traits@D@std@@V?$allocator@D@2@@std@@PAVCObject3D@@@std@@@2@$0A@@std@@@1@AB_N@Z
_TEXT	SEGMENT
__Val1$ = 8						; size = 4
__Val2$ = 12						; size = 4
??0?$pair@Viterator@?$_Tree@V?$_Tmap_traits@V?$basic_string@DU?$char_traits@D@std@@V?$allocator@D@2@@std@@PAVCObject3D@@U?$less@V?$basic_string@DU?$char_traits@D@std@@V?$allocator@D@2@@std@@@2@V?$allocator@U?$pair@$$CBV?$basic_string@DU?$char_traits@D@std@@V?$allocator@D@2@@std@@PAVCObject3D@@@std@@@2@$0A@@std@@@std@@_N@std@@QAE@ABViterator@?$_Tree@V?$_Tmap_traits@V?$basic_string@DU?$char_traits@D@std@@V?$allocator@D@2@@std@@PAVCObject3D@@U?$less@V?$basic_string@DU?$char_traits@D@std@@V?$allocator@D@2@@std@@@2@V?$allocator@U?$pair@$$CBV?$basic_string@DU?$char_traits@D@std@@V?$allocator@D@2@@std@@PAVCObject3D@@@std@@@2@$0A@@std@@@1@AB_N@Z PROC NEAR ; std::pair<std::_Tree<std::_Tmap_traits<std::basic_string<char,std::char_traits<char>,std::allocator<char> >,CObject3D *,std::less<std::basic_string<char,std::char_traits<char>,std::allocator<char> > >,std::allocator<std::pair<std::basic_string<char,std::char_traits<char>,std::allocator<char> > const ,CObject3D *> >,0> >::iterator,bool>::pair<std::_Tree<std::_Tmap_traits<std::basic_string<char,std::char_traits<char>,std::allocator<char> >,CObject3D *,std::less<std::basic_string<char,std::char_traits<char>,std::allocator<char> > >,std::allocator<std::pair<std::basic_string<char,std::char_traits<char>,std::allocator<char> > const ,CObject3D *> >,0> >::iterator,bool>, COMDAT
; _this$ = ecx

; 34   : 		{	// construct from specified values

  00000	8b c1		 mov	 eax, ecx
  00002	8b 4c 24 04	 mov	 ecx, DWORD PTR __Val1$[esp-4]
  00006	8b 11		 mov	 edx, DWORD PTR [ecx]
  00008	8b 4c 24 08	 mov	 ecx, DWORD PTR __Val2$[esp-4]
  0000c	89 10		 mov	 DWORD PTR [eax], edx
  0000e	8a 11		 mov	 dl, BYTE PTR [ecx]
  00010	88 50 04	 mov	 BYTE PTR [eax+4], dl

; 35   : 		}

  00013	c2 08 00	 ret	 8
??0?$pair@Viterator@?$_Tree@V?$_Tmap_traits@V?$basic_string@DU?$char_traits@D@std@@V?$allocator@D@2@@std@@PAVCObject3D@@U?$less@V?$basic_string@DU?$char_traits@D@std@@V?$allocator@D@2@@std@@@2@V?$allocator@U?$pair@$$CBV?$basic_string@DU?$char_traits@D@std@@V?$allocator@D@2@@std@@PAVCObject3D@@@std@@@2@$0A@@std@@@std@@_N@std@@QAE@ABViterator@?$_Tree@V?$_Tmap_traits@V?$basic_string@DU?$char_traits@D@std@@V?$allocator@D@2@@std@@PAVCObject3D@@U?$less@V?$basic_string@DU?$char_traits@D@std@@V?$allocator@D@2@@std@@@2@V?$allocator@U?$pair@$$CBV?$basic_string@DU?$char_traits@D@std@@V?$allocator@D@2@@std@@PAVCObject3D@@@std@@@2@$0A@@std@@@1@AB_N@Z ENDP ; std::pair<std::_Tree<std::_Tmap_traits<std::basic_string<char,std::char_traits<char>,std::allocator<char> >,CObject3D *,std::less<std::basic_string<char,std::char_traits<char>,std::allocator<char> > >,std::allocator<std::pair<std::basic_string<char,std::char_traits<char>,std::allocator<char> > const ,CObject3D *> >,0> >::iterator,bool>::pair<std::_Tree<std::_Tmap_traits<std::basic_string<char,std::char_traits<char>,std::allocator<char> >,CObject3D *,std::less<std::basic_string<char,std::char_traits<char>,std::allocator<char> > >,std::allocator<std::pair<std::basic_string<char,std::char_traits<char>,std::allocator<char> > const ,CObject3D *> >,0> >::iterator,bool>
_TEXT	ENDS
PUBLIC	?_Color@?$_Tree@V?$_Tmap_traits@V?$basic_string@DU?$char_traits@D@std@@V?$allocator@D@2@@std@@PAVCObject3D@@U?$less@V?$basic_string@DU?$char_traits@D@std@@V?$allocator@D@2@@std@@@2@V?$allocator@U?$pair@$$CBV?$basic_string@DU?$char_traits@D@std@@V?$allocator@D@2@@std@@PAVCObject3D@@@std@@@2@$0A@@std@@@std@@KAAADPAU_Node@?$_Tree_nod@V?$_Tmap_traits@V?$basic_string@DU?$char_traits@D@std@@V?$allocator@D@2@@std@@PAVCObject3D@@U?$less@V?$basic_string@DU?$char_traits@D@std@@V?$allocator@D@2@@std@@@2@V?$allocator@U?$pair@$$CBV?$basic_string@DU?$char_traits@D@std@@V?$allocator@D@2@@std@@PAVCObject3D@@@std@@@2@$0A@@std@@@2@@Z ; std::_Tree<std::_Tmap_traits<std::basic_string<char,std::char_traits<char>,std::allocator<char> >,CObject3D *,std::less<std::basic_string<char,std::char_traits<char>,std::allocator<char> > >,std::allocator<std::pair<std::basic_string<char,std::char_traits<char>,std::allocator<char> > const ,CObject3D *> >,0> >::_Color
; Function compile flags: /Ogty
; File c:\program files\microsoft visual studio .net 2003\vc7\include\xtree
;	COMDAT ?_Color@?$_Tree@V?$_Tmap_traits@V?$basic_string@DU?$char_traits@D@std@@V?$allocator@D@2@@std@@PAVCObject3D@@U?$less@V?$basic_string@DU?$char_traits@D@std@@V?$allocator@D@2@@std@@@2@V?$allocator@U?$pair@$$CBV?$basic_string@DU?$char_traits@D@std@@V?$allocator@D@2@@std@@PAVCObject3D@@@std@@@2@$0A@@std@@@std@@KAAADPAU_Node@?$_Tree_nod@V?$_Tmap_traits@V?$basic_string@DU?$char_traits@D@std@@V?$allocator@D@2@@std@@PAVCObject3D@@U?$less@V?$basic_string@DU?$char_traits@D@std@@V?$allocator@D@2@@std@@@2@V?$allocator@U?$pair@$$CBV?$basic_string@DU?$char_traits@D@std@@V?$allocator@D@2@@std@@PAVCObject3D@@@std@@@2@$0A@@std@@@2@@Z
_TEXT	SEGMENT
__Pnode$ = 8						; size = 4
?_Color@?$_Tree@V?$_Tmap_traits@V?$basic_string@DU?$char_traits@D@std@@V?$allocator@D@2@@std@@PAVCObject3D@@U?$less@V?$basic_string@DU?$char_traits@D@std@@V?$allocator@D@2@@std@@@2@V?$allocator@U?$pair@$$CBV?$basic_string@DU?$char_traits@D@std@@V?$allocator@D@2@@std@@PAVCObject3D@@@std@@@2@$0A@@std@@@std@@KAAADPAU_Node@?$_Tree_nod@V?$_Tmap_traits@V?$basic_string@DU?$char_traits@D@std@@V?$allocator@D@2@@std@@PAVCObject3D@@U?$less@V?$basic_string@DU?$char_traits@D@std@@V?$allocator@D@2@@std@@@2@V?$allocator@U?$pair@$$CBV?$basic_string@DU?$char_traits@D@std@@V?$allocator@D@2@@std@@PAVCObject3D@@@std@@@2@$0A@@std@@@2@@Z PROC NEAR ; std::_Tree<std::_Tmap_traits<std::basic_string<char,std::char_traits<char>,std::allocator<char> >,CObject3D *,std::less<std::basic_string<char,std::char_traits<char>,std::allocator<char> > >,std::allocator<std::pair<std::basic_string<char,std::char_traits<char>,std::allocator<char> > const ,CObject3D *> >,0> >::_Color, COMDAT

; 132  : 		return ((_Charref)(*_Pnode)._Color);

  00000	8b 44 24 04	 mov	 eax, DWORD PTR __Pnode$[esp-4]
  00004	83 c0 2c	 add	 eax, 44			; 0000002cH

; 133  : 		}

  00007	c3		 ret	 0
?_Color@?$_Tree@V?$_Tmap_traits@V?$basic_string@DU?$char_traits@D@std@@V?$allocator@D@2@@std@@PAVCObject3D@@U?$less@V?$basic_string@DU?$char_traits@D@std@@V?$allocator@D@2@@std@@@2@V?$allocator@U?$pair@$$CBV?$basic_string@DU?$char_traits@D@std@@V?$allocator@D@2@@std@@PAVCObject3D@@@std@@@2@$0A@@std@@@std@@KAAADPAU_Node@?$_Tree_nod@V?$_Tmap_traits@V?$basic_string@DU?$char_traits@D@std@@V?$allocator@D@2@@std@@PAVCObject3D@@U?$less@V?$basic_string@DU?$char_traits@D@std@@V?$allocator@D@2@@std@@@2@V?$allocator@U?$pair@$$CBV?$basic_string@DU?$char_traits@D@std@@V?$allocator@D@2@@std@@PAVCObject3D@@@std@@@2@$0A@@std@@@2@@Z ENDP ; std::_Tree<std::_Tmap_traits<std::basic_string<char,std::char_traits<char>,std::allocator<char> >,CObject3D *,std::less<std::basic_string<char,std::char_traits<char>,std::allocator<char> > >,std::allocator<std::pair<std::basic_string<char,std::char_traits<char>,std::allocator<char> > const ,CObject3D *> >,0> >::_Color
_TEXT	ENDS
PUBLIC	?_Parent@?$_Tree@V?$_Tmap_traits@V?$basic_string@DU?$char_traits@D@std@@V?$allocator@D@2@@std@@PAVCObject3D@@U?$less@V?$basic_string@DU?$char_traits@D@std@@V?$allocator@D@2@@std@@@2@V?$allocator@U?$pair@$$CBV?$basic_string@DU?$char_traits@D@std@@V?$allocator@D@2@@std@@PAVCObject3D@@@std@@@2@$0A@@std@@@std@@KAAAPAU_Node@?$_Tree_nod@V?$_Tmap_traits@V?$basic_string@DU?$char_traits@D@std@@V?$allocator@D@2@@std@@PAVCObject3D@@U?$less@V?$basic_string@DU?$char_traits@D@std@@V?$allocator@D@2@@std@@@2@V?$allocator@U?$pair@$$CBV?$basic_string@DU?$char_traits@D@std@@V?$allocator@D@2@@std@@PAVCObject3D@@@std@@@2@$0A@@std@@@2@PAU342@@Z ; std::_Tree<std::_Tmap_traits<std::basic_string<char,std::char_traits<char>,std::allocator<char> >,CObject3D *,std::less<std::basic_string<char,std::char_traits<char>,std::allocator<char> > >,std::allocator<std::pair<std::basic_string<char,std::char_traits<char>,std::allocator<char> > const ,CObject3D *> >,0> >::_Parent
; Function compile flags: /Ogty
;	COMDAT ?_Parent@?$_Tree@V?$_Tmap_traits@V?$basic_string@DU?$char_traits@D@std@@V?$allocator@D@2@@std@@PAVCObject3D@@U?$less@V?$basic_string@DU?$char_traits@D@std@@V?$allocator@D@2@@std@@@2@V?$allocator@U?$pair@$$CBV?$basic_string@DU?$char_traits@D@std@@V?$allocator@D@2@@std@@PAVCObject3D@@@std@@@2@$0A@@std@@@std@@KAAAPAU_Node@?$_Tree_nod@V?$_Tmap_traits@V?$basic_string@DU?$char_traits@D@std@@V?$allocator@D@2@@std@@PAVCObject3D@@U?$less@V?$basic_string@DU?$char_traits@D@std@@V?$allocator@D@2@@std@@@2@V?$allocator@U?$pair@$$CBV?$basic_string@DU?$char_traits@D@std@@V?$allocator@D@2@@std@@PAVCObject3D@@@std@@@2@$0A@@std@@@2@PAU342@@Z
_TEXT	SEGMENT
__Pnode$ = 8						; size = 4
?_Parent@?$_Tree@V?$_Tmap_traits@V?$basic_string@DU?$char_traits@D@std@@V?$allocator@D@2@@std@@PAVCObject3D@@U?$less@V?$basic_string@DU?$char_traits@D@std@@V?$allocator@D@2@@std@@@2@V?$allocator@U?$pair@$$CBV?$basic_string@DU?$char_traits@D@std@@V?$allocator@D@2@@std@@PAVCObject3D@@@std@@@2@$0A@@std@@@std@@KAAAPAU_Node@?$_Tree_nod@V?$_Tmap_traits@V?$basic_string@DU?$char_traits@D@std@@V?$allocator@D@2@@std@@PAVCObject3D@@U?$less@V?$basic_string@DU?$char_traits@D@std@@V?$allocator@D@2@@std@@@2@V?$allocator@U?$pair@$$CBV?$basic_string@DU?$char_traits@D@std@@V?$allocator@D@2@@std@@PAVCObject3D@@@std@@@2@$0A@@std@@@2@PAU342@@Z PROC NEAR ; std::_Tree<std::_Tmap_traits<std::basic_string<char,std::char_traits<char>,std::allocator<char> >,CObject3D *,std::less<std::basic_string<char,std::char_traits<char>,std::allocator<char> > >,std::allocator<std::pair<std::basic_string<char,std::char_traits<char>,std::allocator<char> > const ,CObject3D *> >,0> >::_Parent, COMDAT

; 152  : 		return ((_Nodepref)(*_Pnode)._Parent);

  00000	8b 44 24 04	 mov	 eax, DWORD PTR __Pnode$[esp-4]
  00004	83 c0 04	 add	 eax, 4

; 153  : 		}

  00007	c3		 ret	 0
?_Parent@?$_Tree@V?$_Tmap_traits@V?$basic_string@DU?$char_traits@D@std@@V?$allocator@D@2@@std@@PAVCObject3D@@U?$less@V?$basic_string@DU?$char_traits@D@std@@V?$allocator@D@2@@std@@@2@V?$allocator@U?$pair@$$CBV?$basic_string@DU?$char_traits@D@std@@V?$allocator@D@2@@std@@PAVCObject3D@@@std@@@2@$0A@@std@@@std@@KAAAPAU_Node@?$_Tree_nod@V?$_Tmap_traits@V?$basic_string@DU?$char_traits@D@std@@V?$allocator@D@2@@std@@PAVCObject3D@@U?$less@V?$basic_string@DU?$char_traits@D@std@@V?$allocator@D@2@@std@@@2@V?$allocator@U?$pair@$$CBV?$basic_string@DU?$char_traits@D@std@@V?$allocator@D@2@@std@@PAVCObject3D@@@std@@@2@$0A@@std@@@2@PAU342@@Z ENDP ; std::_Tree<std::_Tmap_traits<std::basic_string<char,std::char_traits<char>,std::allocator<char> >,CObject3D *,std::less<std::basic_string<char,std::char_traits<char>,std::allocator<char> > >,std::allocator<std::pair<std::basic_string<char,std::char_traits<char>,std::allocator<char> > const ,CObject3D *> >,0> >::_Parent
_TEXT	ENDS
PUBLIC	?_Myval@?$_Tree@V?$_Tmap_traits@V?$basic_string@DU?$char_traits@D@std@@V?$allocator@D@2@@std@@PAVCObject3D@@U?$less@V?$basic_string@DU?$char_traits@D@std@@V?$allocator@D@2@@std@@@2@V?$allocator@U?$pair@$$CBV?$basic_string@DU?$char_traits@D@std@@V?$allocator@D@2@@std@@PAVCObject3D@@@std@@@2@$0A@@std@@@std@@KAAAU?$pair@$$CBV?$basic_string@DU?$char_traits@D@std@@V?$allocator@D@2@@std@@PAVCObject3D@@@2@PAU_Node@?$_Tree_nod@V?$_Tmap_traits@V?$basic_string@DU?$char_traits@D@std@@V?$allocator@D@2@@std@@PAVCObject3D@@U?$less@V?$basic_string@DU?$char_traits@D@std@@V?$allocator@D@2@@std@@@2@V?$allocator@U?$pair@$$CBV?$basic_string@DU?$char_traits@D@std@@V?$allocator@D@2@@std@@PAVCObject3D@@@std@@@2@$0A@@std@@@2@@Z ; std::_Tree<std::_Tmap_traits<std::basic_string<char,std::char_traits<char>,std::allocator<char> >,CObject3D *,std::less<std::basic_string<char,std::char_traits<char>,std::allocator<char> > >,std::allocator<std::pair<std::basic_string<char,std::char_traits<char>,std::allocator<char> > const ,CObject3D *> >,0> >::_Myval
; Function compile flags: /Ogty
;	COMDAT ?_Myval@?$_Tree@V?$_Tmap_traits@V?$basic_string@DU?$char_traits@D@std@@V?$allocator@D@2@@std@@PAVCObject3D@@U?$less@V?$basic_string@DU?$char_traits@D@std@@V?$allocator@D@2@@std@@@2@V?$allocator@U?$pair@$$CBV?$basic_string@DU?$char_traits@D@std@@V?$allocator@D@2@@std@@PAVCObject3D@@@std@@@2@$0A@@std@@@std@@KAAAU?$pair@$$CBV?$basic_string@DU?$char_traits@D@std@@V?$allocator@D@2@@std@@PAVCObject3D@@@2@PAU_Node@?$_Tree_nod@V?$_Tmap_traits@V?$basic_string@DU?$char_traits@D@std@@V?$allocator@D@2@@std@@PAVCObject3D@@U?$less@V?$basic_string@DU?$char_traits@D@std@@V?$allocator@D@2@@std@@@2@V?$allocator@U?$pair@$$CBV?$basic_string@DU?$char_traits@D@std@@V?$allocator@D@2@@std@@PAVCObject3D@@@std@@@2@$0A@@std@@@2@@Z
_TEXT	SEGMENT
__Pnode$ = 8						; size = 4
?_Myval@?$_Tree@V?$_Tmap_traits@V?$basic_string@DU?$char_traits@D@std@@V?$allocator@D@2@@std@@PAVCObject3D@@U?$less@V?$basic_string@DU?$char_traits@D@std@@V?$allocator@D@2@@std@@@2@V?$allocator@U?$pair@$$CBV?$basic_string@DU?$char_traits@D@std@@V?$allocator@D@2@@std@@PAVCObject3D@@@std@@@2@$0A@@std@@@std@@KAAAU?$pair@$$CBV?$basic_string@DU?$char_traits@D@std@@V?$allocator@D@2@@std@@PAVCObject3D@@@2@PAU_Node@?$_Tree_nod@V?$_Tmap_traits@V?$basic_string@DU?$char_traits@D@std@@V?$allocator@D@2@@std@@PAVCObject3D@@U?$less@V?$basic_string@DU?$char_traits@D@std@@V?$allocator@D@2@@std@@@2@V?$allocator@U?$pair@$$CBV?$basic_string@DU?$char_traits@D@std@@V?$allocator@D@2@@std@@PAVCObject3D@@@std@@@2@$0A@@std@@@2@@Z PROC NEAR ; std::_Tree<std::_Tmap_traits<std::basic_string<char,std::char_traits<char>,std::allocator<char> >,CObject3D *,std::less<std::basic_string<char,std::char_traits<char>,std::allocator<char> > >,std::allocator<std::pair<std::basic_string<char,std::char_traits<char>,std::allocator<char> > const ,CObject3D *> >,0> >::_Myval, COMDAT

; 162  : 		return ((_Vref)(*_Pnode)._Myval);

  00000	8b 44 24 04	 mov	 eax, DWORD PTR __Pnode$[esp-4]
  00004	83 c0 0c	 add	 eax, 12			; 0000000cH

; 163  : 		}

  00007	c3		 ret	 0
?_Myval@?$_Tree@V?$_Tmap_traits@V?$basic_string@DU?$char_traits@D@std@@V?$allocator@D@2@@std@@PAVCObject3D@@U?$less@V?$basic_string@DU?$char_traits@D@std@@V?$allocator@D@2@@std@@@2@V?$allocator@U?$pair@$$CBV?$basic_string@DU?$char_traits@D@std@@V?$allocator@D@2@@std@@PAVCObject3D@@@std@@@2@$0A@@std@@@std@@KAAAU?$pair@$$CBV?$basic_string@DU?$char_traits@D@std@@V?$allocator@D@2@@std@@PAVCObject3D@@@2@PAU_Node@?$_Tree_nod@V?$_Tmap_traits@V?$basic_string@DU?$char_traits@D@std@@V?$allocator@D@2@@std@@PAVCObject3D@@U?$less@V?$basic_string@DU?$char_traits@D@std@@V?$allocator@D@2@@std@@@2@V?$allocator@U?$pair@$$CBV?$basic_string@DU?$char_traits@D@std@@V?$allocator@D@2@@std@@PAVCObject3D@@@std@@@2@$0A@@std@@@2@@Z ENDP ; std::_Tree<std::_Tmap_traits<std::basic_string<char,std::char_traits<char>,std::allocator<char> >,CObject3D *,std::less<std::basic_string<char,std::char_traits<char>,std::allocator<char> > >,std::allocator<std::pair<std::basic_string<char,std::char_traits<char>,std::allocator<char> > const ,CObject3D *> >,0> >::_Myval
_TEXT	ENDS
PUBLIC	??0?$allocator@U?$pair@$$CBV?$basic_string@DU?$char_traits@D@std@@V?$allocator@D@2@@std@@PAVCObject3D@@@std@@@std@@QAE@ABV01@@Z ; std::allocator<std::pair<std::basic_string<char,std::char_traits<char>,std::allocator<char> > const ,CObject3D *> >::allocator<std::pair<std::basic_string<char,std::char_traits<char>,std::allocator<char> > const ,CObject3D *> >
; Function compile flags: /Ogty
; File c:\program files\microsoft visual studio .net 2003\vc7\include\xmemory
;	COMDAT ??0?$allocator@U?$pair@$$CBV?$basic_string@DU?$char_traits@D@std@@V?$allocator@D@2@@std@@PAVCObject3D@@@std@@@std@@QAE@ABV01@@Z
_TEXT	SEGMENT
___formal$ = 8						; size = 4
??0?$allocator@U?$pair@$$CBV?$basic_string@DU?$char_traits@D@std@@V?$allocator@D@2@@std@@PAVCObject3D@@@std@@@std@@QAE@ABV01@@Z PROC NEAR ; std::allocator<std::pair<std::basic_string<char,std::char_traits<char>,std::allocator<char> > const ,CObject3D *> >::allocator<std::pair<std::basic_string<char,std::char_traits<char>,std::allocator<char> > const ,CObject3D *> >, COMDAT
; _this$ = ecx

; 115  : 	allocator(const allocator<_Ty>&)

  00000	8b c1		 mov	 eax, ecx

; 116  : 		{	// construct by copying (do nothing)
; 117  : 		}

  00002	c2 04 00	 ret	 4
??0?$allocator@U?$pair@$$CBV?$basic_string@DU?$char_traits@D@std@@V?$allocator@D@2@@std@@PAVCObject3D@@@std@@@std@@QAE@ABV01@@Z ENDP ; std::allocator<std::pair<std::basic_string<char,std::char_traits<char>,std::allocator<char> > const ,CObject3D *> >::allocator<std::pair<std::basic_string<char,std::char_traits<char>,std::allocator<char> > const ,CObject3D *> >
_TEXT	ENDS
PUBLIC	?deallocate@?$allocator@U_Node@?$_Tree_nod@V?$_Tmap_traits@V?$basic_string@DU?$char_traits@D@std@@V?$allocator@D@2@@std@@PAVCObject3D@@U?$less@V?$basic_string@DU?$char_traits@D@std@@V?$allocator@D@2@@std@@@2@V?$allocator@U?$pair@$$CBV?$basic_string@DU?$char_traits@D@std@@V?$allocator@D@2@@std@@PAVCObject3D@@@std@@@2@$0A@@std@@@std@@@std@@QAEXPAU_Node@?$_Tree_nod@V?$_Tmap_traits@V?$basic_string@DU?$char_traits@D@std@@V?$allocator@D@2@@std@@PAVCObject3D@@U?$less@V?$basic_string@DU?$char_traits@D@std@@V?$allocator@D@2@@std@@@2@V?$allocator@U?$pair@$$CBV?$basic_string@DU?$char_traits@D@std@@V?$allocator@D@2@@std@@PAVCObject3D@@@std@@@2@$0A@@std@@@2@I@Z ; std::allocator<std::_Tree_nod<std::_Tmap_traits<std::basic_string<char,std::char_traits<char>,std::allocator<char> >,CObject3D *,std::less<std::basic_string<char,std::char_traits<char>,std::allocator<char> > >,std::allocator<std::pair<std::basic_string<char,std::char_traits<char>,std::allocator<char> > const ,CObject3D *> >,0> >::_Node>::deallocate
; Function compile flags: /Ogty
;	COMDAT ?deallocate@?$allocator@U_Node@?$_Tree_nod@V?$_Tmap_traits@V?$basic_string@DU?$char_traits@D@std@@V?$allocator@D@2@@std@@PAVCObject3D@@U?$less@V?$basic_string@DU?$char_traits@D@std@@V?$allocator@D@2@@std@@@2@V?$allocator@U?$pair@$$CBV?$basic_string@DU?$char_traits@D@std@@V?$allocator@D@2@@std@@PAVCObject3D@@@std@@@2@$0A@@std@@@std@@@std@@QAEXPAU_Node@?$_Tree_nod@V?$_Tmap_traits@V?$basic_string@DU?$char_traits@D@std@@V?$allocator@D@2@@std@@PAVCObject3D@@U?$less@V?$basic_string@DU?$char_traits@D@std@@V?$allocator@D@2@@std@@@2@V?$allocator@U?$pair@$$CBV?$basic_string@DU?$char_traits@D@std@@V?$allocator@D@2@@std@@PAVCObject3D@@@std@@@2@$0A@@std@@@2@I@Z
_TEXT	SEGMENT
__Ptr$ = 8						; size = 4
___formal$ = 12						; size = 4
?deallocate@?$allocator@U_Node@?$_Tree_nod@V?$_Tmap_traits@V?$basic_string@DU?$char_traits@D@std@@V?$allocator@D@2@@std@@PAVCObject3D@@U?$less@V?$basic_string@DU?$char_traits@D@std@@V?$allocator@D@2@@std@@@2@V?$allocator@U?$pair@$$CBV?$basic_string@DU?$char_traits@D@std@@V?$allocator@D@2@@std@@PAVCObject3D@@@std@@@2@$0A@@std@@@std@@@std@@QAEXPAU_Node@?$_Tree_nod@V?$_Tmap_traits@V?$basic_string@DU?$char_traits@D@std@@V?$allocator@D@2@@std@@PAVCObject3D@@U?$less@V?$basic_string@DU?$char_traits@D@std@@V?$allocator@D@2@@std@@@2@V?$allocator@U?$pair@$$CBV?$basic_string@DU?$char_traits@D@std@@V?$allocator@D@2@@std@@PAVCObject3D@@@std@@@2@$0A@@std@@@2@I@Z PROC NEAR ; std::allocator<std::_Tree_nod<std::_Tmap_traits<std::basic_string<char,std::char_traits<char>,std::allocator<char> >,CObject3D *,std::less<std::basic_string<char,std::char_traits<char>,std::allocator<char> > >,std::allocator<std::pair<std::basic_string<char,std::char_traits<char>,std::allocator<char> > const ,CObject3D *> >,0> >::_Node>::deallocate, COMDAT
; _this$ = ecx

; 132  : 		operator delete(_Ptr);

  00000	8b 44 24 04	 mov	 eax, DWORD PTR __Ptr$[esp-4]
  00004	50		 push	 eax
  00005	e8 00 00 00 00	 call	 ??3@YAXPAX@Z		; operator delete
  0000a	59		 pop	 ecx

; 133  : 		}

  0000b	c2 08 00	 ret	 8
?deallocate@?$allocator@U_Node@?$_Tree_nod@V?$_Tmap_traits@V?$basic_string@DU?$char_traits@D@std@@V?$allocator@D@2@@std@@PAVCObject3D@@U?$less@V?$basic_string@DU?$char_traits@D@std@@V?$allocator@D@2@@std@@@2@V?$allocator@U?$pair@$$CBV?$basic_string@DU?$char_traits@D@std@@V?$allocator@D@2@@std@@PAVCObject3D@@@std@@@2@$0A@@std@@@std@@@std@@QAEXPAU_Node@?$_Tree_nod@V?$_Tmap_traits@V?$basic_string@DU?$char_traits@D@std@@V?$allocator@D@2@@std@@PAVCObject3D@@U?$less@V?$basic_string@DU?$char_traits@D@std@@V?$allocator@D@2@@std@@@2@V?$allocator@U?$pair@$$CBV?$basic_string@DU?$char_traits@D@std@@V?$allocator@D@2@@std@@PAVCObject3D@@@std@@@2@$0A@@std@@@2@I@Z ENDP ; std::allocator<std::_Tree_nod<std::_Tmap_traits<std::basic_string<char,std::char_traits<char>,std::allocator<char> >,CObject3D *,std::less<std::basic_string<char,std::char_traits<char>,std::allocator<char> > >,std::allocator<std::pair<std::basic_string<char,std::char_traits<char>,std::allocator<char> > const ,CObject3D *> >,0> >::_Node>::deallocate
_TEXT	ENDS
PUBLIC	??0const_iterator@?$_Tree@V?$_Tmap_traits@V?$basic_string@DU?$char_traits@D@std@@V?$allocator@D@2@@std@@PAVCObject3D@@U?$less@V?$basic_string@DU?$char_traits@D@std@@V?$allocator@D@2@@std@@@2@V?$allocator@U?$pair@$$CBV?$basic_string@DU?$char_traits@D@std@@V?$allocator@D@2@@std@@PAVCObject3D@@@std@@@2@$0A@@std@@@std@@QAE@PAU_Node@?$_Tree_nod@V?$_Tmap_traits@V?$basic_string@DU?$char_traits@D@std@@V?$allocator@D@2@@std@@PAVCObject3D@@U?$less@V?$basic_string@DU?$char_traits@D@std@@V?$allocator@D@2@@std@@@2@V?$allocator@U?$pair@$$CBV?$basic_string@DU?$char_traits@D@std@@V?$allocator@D@2@@std@@PAVCObject3D@@@std@@@2@$0A@@std@@@2@@Z ; std::_Tree<std::_Tmap_traits<std::basic_string<char,std::char_traits<char>,std::allocator<char> >,CObject3D *,std::less<std::basic_string<char,std::char_traits<char>,std::allocator<char> > >,std::allocator<std::pair<std::basic_string<char,std::char_traits<char>,std::allocator<char> > const ,CObject3D *> >,0> >::const_iterator::const_iterator
; Function compile flags: /Ogty
; File c:\program files\microsoft visual studio .net 2003\vc7\include\xtree
;	COMDAT ??0const_iterator@?$_Tree@V?$_Tmap_traits@V?$basic_string@DU?$char_traits@D@std@@V?$allocator@D@2@@std@@PAVCObject3D@@U?$less@V?$basic_string@DU?$char_traits@D@std@@V?$allocator@D@2@@std@@@2@V?$allocator@U?$pair@$$CBV?$basic_string@DU?$char_traits@D@std@@V?$allocator@D@2@@std@@PAVCObject3D@@@std@@@2@$0A@@std@@@std@@QAE@PAU_Node@?$_Tree_nod@V?$_Tmap_traits@V?$basic_string@DU?$char_traits@D@std@@V?$allocator@D@2@@std@@PAVCObject3D@@U?$less@V?$basic_string@DU?$char_traits@D@std@@V?$allocator@D@2@@std@@@2@V?$allocator@U?$pair@$$CBV?$basic_string@DU?$char_traits@D@std@@V?$allocator@D@2@@std@@PAVCObject3D@@@std@@@2@$0A@@std@@@2@@Z
_TEXT	SEGMENT
__Pnode$ = 8						; size = 4
??0const_iterator@?$_Tree@V?$_Tmap_traits@V?$basic_string@DU?$char_traits@D@std@@V?$allocator@D@2@@std@@PAVCObject3D@@U?$less@V?$basic_string@DU?$char_traits@D@std@@V?$allocator@D@2@@std@@@2@V?$allocator@U?$pair@$$CBV?$basic_string@DU?$char_traits@D@std@@V?$allocator@D@2@@std@@PAVCObject3D@@@std@@@2@$0A@@std@@@std@@QAE@PAU_Node@?$_Tree_nod@V?$_Tmap_traits@V?$basic_string@DU?$char_traits@D@std@@V?$allocator@D@2@@std@@PAVCObject3D@@U?$less@V?$basic_string@DU?$char_traits@D@std@@V?$allocator@D@2@@std@@@2@V?$allocator@U?$pair@$$CBV?$basic_string@DU?$char_traits@D@std@@V?$allocator@D@2@@std@@PAVCObject3D@@@std@@@2@$0A@@std@@@2@@Z PROC NEAR ; std::_Tree<std::_Tmap_traits<std::basic_string<char,std::char_traits<char>,std::allocator<char> >,CObject3D *,std::less<std::basic_string<char,std::char_traits<char>,std::allocator<char> > >,std::allocator<std::pair<std::basic_string<char,std::char_traits<char>,std::allocator<char> > const ,CObject3D *> >,0> >::const_iterator::const_iterator, COMDAT
; _this$ = ecx

; 200  : 			{	// construct with node pointer _Pnode

  00000	8b c1		 mov	 eax, ecx
  00002	8b 4c 24 04	 mov	 ecx, DWORD PTR __Pnode$[esp-4]
  00006	89 08		 mov	 DWORD PTR [eax], ecx

; 201  : 			}

  00008	c2 04 00	 ret	 4
??0const_iterator@?$_Tree@V?$_Tmap_traits@V?$basic_string@DU?$char_traits@D@std@@V?$allocator@D@2@@std@@PAVCObject3D@@U?$less@V?$basic_string@DU?$char_traits@D@std@@V?$allocator@D@2@@std@@@2@V?$allocator@U?$pair@$$CBV?$basic_string@DU?$char_traits@D@std@@V?$allocator@D@2@@std@@PAVCObject3D@@@std@@@2@$0A@@std@@@std@@QAE@PAU_Node@?$_Tree_nod@V?$_Tmap_traits@V?$basic_string@DU?$char_traits@D@std@@V?$allocator@D@2@@std@@PAVCObject3D@@U?$less@V?$basic_string@DU?$char_traits@D@std@@V?$allocator@D@2@@std@@@2@V?$allocator@U?$pair@$$CBV?$basic_string@DU?$char_traits@D@std@@V?$allocator@D@2@@std@@PAVCObject3D@@@std@@@2@$0A@@std@@@2@@Z ENDP ; std::_Tree<std::_Tmap_traits<std::basic_string<char,std::char_traits<char>,std::allocator<char> >,CObject3D *,std::less<std::basic_string<char,std::char_traits<char>,std::allocator<char> > >,std::allocator<std::pair<std::basic_string<char,std::char_traits<char>,std::allocator<char> > const ,CObject3D *> >,0> >::const_iterator::const_iterator
_TEXT	ENDS
PUBLIC	??Dconst_iterator@?$_Tree@V?$_Tmap_traits@V?$basic_string@DU?$char_traits@D@std@@V?$allocator@D@2@@std@@PAVCObject3D@@U?$less@V?$basic_string@DU?$char_traits@D@std@@V?$allocator@D@2@@std@@@2@V?$allocator@U?$pair@$$CBV?$basic_string@DU?$char_traits@D@std@@V?$allocator@D@2@@std@@PAVCObject3D@@@std@@@2@$0A@@std@@@std@@QBEABU?$pair@$$CBV?$basic_string@DU?$char_traits@D@std@@V?$allocator@D@2@@std@@PAVCObject3D@@@2@XZ ; std::_Tree<std::_Tmap_traits<std::basic_string<char,std::char_traits<char>,std::allocator<char> >,CObject3D *,std::less<std::basic_string<char,std::char_traits<char>,std::allocator<char> > >,std::allocator<std::pair<std::basic_string<char,std::char_traits<char>,std::allocator<char> > const ,CObject3D *> >,0> >::const_iterator::operator*
; Function compile flags: /Ogty
;	COMDAT ??Dconst_iterator@?$_Tree@V?$_Tmap_traits@V?$basic_string@DU?$char_traits@D@std@@V?$allocator@D@2@@std@@PAVCObject3D@@U?$less@V?$basic_string@DU?$char_traits@D@std@@V?$allocator@D@2@@std@@@2@V?$allocator@U?$pair@$$CBV?$basic_string@DU?$char_traits@D@std@@V?$allocator@D@2@@std@@PAVCObject3D@@@std@@@2@$0A@@std@@@std@@QBEABU?$pair@$$CBV?$basic_string@DU?$char_traits@D@std@@V?$allocator@D@2@@std@@PAVCObject3D@@@2@XZ
_TEXT	SEGMENT
??Dconst_iterator@?$_Tree@V?$_Tmap_traits@V?$basic_string@DU?$char_traits@D@std@@V?$allocator@D@2@@std@@PAVCObject3D@@U?$less@V?$basic_string@DU?$char_traits@D@std@@V?$allocator@D@2@@std@@@2@V?$allocator@U?$pair@$$CBV?$basic_string@DU?$char_traits@D@std@@V?$allocator@D@2@@std@@PAVCObject3D@@@std@@@2@$0A@@std@@@std@@QBEABU?$pair@$$CBV?$basic_string@DU?$char_traits@D@std@@V?$allocator@D@2@@std@@PAVCObject3D@@@2@XZ PROC NEAR ; std::_Tree<std::_Tmap_traits<std::basic_string<char,std::char_traits<char>,std::allocator<char> >,CObject3D *,std::less<std::basic_string<char,std::char_traits<char>,std::allocator<char> > >,std::allocator<std::pair<std::basic_string<char,std::char_traits<char>,std::allocator<char> > const ,CObject3D *> >,0> >::const_iterator::operator*, COMDAT
; _this$ = ecx

; 205  : 			return (_Myval(_Ptr));

  00000	8b 01		 mov	 eax, DWORD PTR [ecx]
  00002	83 c0 0c	 add	 eax, 12			; 0000000cH

; 206  : 			}

  00005	c3		 ret	 0
??Dconst_iterator@?$_Tree@V?$_Tmap_traits@V?$basic_string@DU?$char_traits@D@std@@V?$allocator@D@2@@std@@PAVCObject3D@@U?$less@V?$basic_string@DU?$char_traits@D@std@@V?$allocator@D@2@@std@@@2@V?$allocator@U?$pair@$$CBV?$basic_string@DU?$char_traits@D@std@@V?$allocator@D@2@@std@@PAVCObject3D@@@std@@@2@$0A@@std@@@std@@QBEABU?$pair@$$CBV?$basic_string@DU?$char_traits@D@std@@V?$allocator@D@2@@std@@PAVCObject3D@@@2@XZ ENDP ; std::_Tree<std::_Tmap_traits<std::basic_string<char,std::char_traits<char>,std::allocator<char> >,CObject3D *,std::less<std::basic_string<char,std::char_traits<char>,std::allocator<char> > >,std::allocator<std::pair<std::basic_string<char,std::char_traits<char>,std::allocator<char> > const ,CObject3D *> >,0> >::const_iterator::operator*
_TEXT	ENDS
PUBLIC	??0?$pair@Viterator@?$_Tree@V?$_Tmap_traits@V?$basic_string@DU?$char_traits@D@std@@V?$allocator@D@2@@std@@PAVCObject3D@@U?$less@V?$basic_string@DU?$char_traits@D@std@@V?$allocator@D@2@@std@@@2@V?$allocator@U?$pair@$$CBV?$basic_string@DU?$char_traits@D@std@@V?$allocator@D@2@@std@@PAVCObject3D@@@std@@@2@$0A@@std@@@std@@V123@@std@@QAE@ABViterator@?$_Tree@V?$_Tmap_traits@V?$basic_string@DU?$char_traits@D@std@@V?$allocator@D@2@@std@@PAVCObject3D@@U?$less@V?$basic_string@DU?$char_traits@D@std@@V?$allocator@D@2@@std@@@2@V?$allocator@U?$pair@$$CBV?$basic_string@DU?$char_traits@D@std@@V?$allocator@D@2@@std@@PAVCObject3D@@@std@@@2@$0A@@std@@@1@0@Z ; std::pair<std::_Tree<std::_Tmap_traits<std::basic_string<char,std::char_traits<char>,std::allocator<char> >,CObject3D *,std::less<std::basic_string<char,std::char_traits<char>,std::allocator<char> > >,std::allocator<std::pair<std::basic_string<char,std::char_traits<char>,std::allocator<char> > const ,CObject3D *> >,0> >::iterator,std::_Tree<std::_Tmap_traits<std::basic_string<char,std::char_traits<char>,std::allocator<char> >,CObject3D *,std::less<std::basic_string<char,std::char_traits<char>,std::allocator<char> > >,std::allocator<std::pair<std::basic_string<char,std::char_traits<char>,std::allocator<char> > const ,CObject3D *> >,0> >::iterator>::pair<std::_Tree<std::_Tmap_traits<std::basic_string<char,std::char_traits<char>,std::allocator<char> >,CObject3D *,std::less<std::basic_string<char,std::char_traits<char>,std::allocator<char> > >,std::allocator<std::pair<std::basic_string<char,std::char_traits<char>,std::allocator<char> > const ,CObject3D *> >,0> >::iterator,std::_Tree<std::_Tmap_traits<std::basic_string<char,std::char_traits<char>,std::allocator<char> >,CObject3D *,std::less<std::basic_string<char,std::char_traits<char>,std::allocator<char> > >,std::allocator<std::pair<std::basic_string<char,std::char_traits<char>,std::allocator<char> > const ,CObject3D *> >,0> >::iterator>
; Function compile flags: /Ogty
; File c:\program files\microsoft visual studio .net 2003\vc7\include\utility
;	COMDAT ??0?$pair@Viterator@?$_Tree@V?$_Tmap_traits@V?$basic_string@DU?$char_traits@D@std@@V?$allocator@D@2@@std@@PAVCObject3D@@U?$less@V?$basic_string@DU?$char_traits@D@std@@V?$allocator@D@2@@std@@@2@V?$allocator@U?$pair@$$CBV?$basic_string@DU?$char_traits@D@std@@V?$allocator@D@2@@std@@PAVCObject3D@@@std@@@2@$0A@@std@@@std@@V123@@std@@QAE@ABViterator@?$_Tree@V?$_Tmap_traits@V?$basic_string@DU?$char_traits@D@std@@V?$allocator@D@2@@std@@PAVCObject3D@@U?$less@V?$basic_string@DU?$char_traits@D@std@@V?$allocator@D@2@@std@@@2@V?$allocator@U?$pair@$$CBV?$basic_string@DU?$char_traits@D@std@@V?$allocator@D@2@@std@@PAVCObject3D@@@std@@@2@$0A@@std@@@1@0@Z
_TEXT	SEGMENT
__Val1$ = 8						; size = 4
__Val2$ = 12						; size = 4
??0?$pair@Viterator@?$_Tree@V?$_Tmap_traits@V?$basic_string@DU?$char_traits@D@std@@V?$allocator@D@2@@std@@PAVCObject3D@@U?$less@V?$basic_string@DU?$char_traits@D@std@@V?$allocator@D@2@@std@@@2@V?$allocator@U?$pair@$$CBV?$basic_string@DU?$char_traits@D@std@@V?$allocator@D@2@@std@@PAVCObject3D@@@std@@@2@$0A@@std@@@std@@V123@@std@@QAE@ABViterator@?$_Tree@V?$_Tmap_traits@V?$basic_string@DU?$char_traits@D@std@@V?$allocator@D@2@@std@@PAVCObject3D@@U?$less@V?$basic_string@DU?$char_traits@D@std@@V?$allocator@D@2@@std@@@2@V?$allocator@U?$pair@$$CBV?$basic_string@DU?$char_traits@D@std@@V?$allocator@D@2@@std@@PAVCObject3D@@@std@@@2@$0A@@std@@@1@0@Z PROC NEAR ; std::pair<std::_Tree<std::_Tmap_traits<std::basic_string<char,std::char_traits<char>,std::allocator<char> >,CObject3D *,std::less<std::basic_string<char,std::char_traits<char>,std::allocator<char> > >,std::allocator<std::pair<std::basic_string<char,std::char_traits<char>,std::allocator<char> > const ,CObject3D *> >,0> >::iterator,std::_Tree<std::_Tmap_traits<std::basic_string<char,std::char_traits<char>,std::allocator<char> >,CObject3D *,std::less<std::basic_string<char,std::char_traits<char>,std::allocator<char> > >,std::allocator<std::pair<std::basic_string<char,std::char_traits<char>,std::allocator<char> > const ,CObject3D *> >,0> >::iterator>::pair<std::_Tree<std::_Tmap_traits<std::basic_string<char,std::char_traits<char>,std::allocator<char> >,CObject3D *,std::less<std::basic_string<char,std::char_traits<char>,std::allocator<char> > >,std::allocator<std::pair<std::basic_string<char,std::char_traits<char>,std::allocator<char> > const ,CObject3D *> >,0> >::iterator,std::_Tree<std::_Tmap_traits<std::basic_string<char,std::char_traits<char>,std::allocator<char> >,CObject3D *,std::less<std::basic_string<char,std::char_traits<char>,std::allocator<char> > >,std::allocator<std::pair<std::basic_string<char,std::char_traits<char>,std::allocator<char> > const ,CObject3D *> >,0> >::iterator>, COMDAT
; _this$ = ecx

; 34   : 		{	// construct from specified values

  00000	8b c1		 mov	 eax, ecx
  00002	8b 4c 24 04	 mov	 ecx, DWORD PTR __Val1$[esp-4]
  00006	8b 11		 mov	 edx, DWORD PTR [ecx]
  00008	8b 4c 24 08	 mov	 ecx, DWORD PTR __Val2$[esp-4]
  0000c	89 10		 mov	 DWORD PTR [eax], edx
  0000e	8b 11		 mov	 edx, DWORD PTR [ecx]
  00010	89 50 04	 mov	 DWORD PTR [eax+4], edx

; 35   : 		}

  00013	c2 08 00	 ret	 8
??0?$pair@Viterator@?$_Tree@V?$_Tmap_traits@V?$basic_string@DU?$char_traits@D@std@@V?$allocator@D@2@@std@@PAVCObject3D@@U?$less@V?$basic_string@DU?$char_traits@D@std@@V?$allocator@D@2@@std@@@2@V?$allocator@U?$pair@$$CBV?$basic_string@DU?$char_traits@D@std@@V?$allocator@D@2@@std@@PAVCObject3D@@@std@@@2@$0A@@std@@@std@@V123@@std@@QAE@ABViterator@?$_Tree@V?$_Tmap_traits@V?$basic_string@DU?$char_traits@D@std@@V?$allocator@D@2@@std@@PAVCObject3D@@U?$less@V?$basic_string@DU?$char_traits@D@std@@V?$allocator@D@2@@std@@@2@V?$allocator@U?$pair@$$CBV?$basic_string@DU?$char_traits@D@std@@V?$allocator@D@2@@std@@PAVCObject3D@@@std@@@2@$0A@@std@@@1@0@Z ENDP ; std::pair<std::_Tree<std::_Tmap_traits<std::basic_string<char,std::char_traits<char>,std::allocator<char> >,CObject3D *,std::less<std::basic_string<char,std::char_traits<char>,std::allocator<char> > >,std::allocator<std::pair<std::basic_string<char,std::char_traits<char>,std::allocator<char> > const ,CObject3D *> >,0> >::iterator,std::_Tree<std::_Tmap_traits<std::basic_string<char,std::char_traits<char>,std::allocator<char> >,CObject3D *,std::less<std::basic_string<char,std::char_traits<char>,std::allocator<char> > >,std::allocator<std::pair<std::basic_string<char,std::char_traits<char>,std::allocator<char> > const ,CObject3D *> >,0> >::iterator>::pair<std::_Tree<std::_Tmap_traits<std::basic_string<char,std::char_traits<char>,std::allocator<char> >,CObject3D *,std::less<std::basic_string<char,std::char_traits<char>,std::allocator<char> > >,std::allocator<std::pair<std::basic_string<char,std::char_traits<char>,std::allocator<char> > const ,CObject3D *> >,0> >::iterator,std::_Tree<std::_Tmap_traits<std::basic_string<char,std::char_traits<char>,std::allocator<char> >,CObject3D *,std::less<std::basic_string<char,std::char_traits<char>,std::allocator<char> > >,std::allocator<std::pair<std::basic_string<char,std::char_traits<char>,std::allocator<char> > const ,CObject3D *> >,0> >::iterator>
_TEXT	ENDS
PUBLIC	?_Max@?$_Tree@V?$_Tmap_traits@V?$basic_string@DU?$char_traits@D@std@@V?$allocator@D@2@@std@@PAVCObject3D@@U?$less@V?$basic_string@DU?$char_traits@D@std@@V?$allocator@D@2@@std@@@2@V?$allocator@U?$pair@$$CBV?$basic_string@DU?$char_traits@D@std@@V?$allocator@D@2@@std@@PAVCObject3D@@@std@@@2@$0A@@std@@@std@@KAPAU_Node@?$_Tree_nod@V?$_Tmap_traits@V?$basic_string@DU?$char_traits@D@std@@V?$allocator@D@2@@std@@PAVCObject3D@@U?$less@V?$basic_string@DU?$char_traits@D@std@@V?$allocator@D@2@@std@@@2@V?$allocator@U?$pair@$$CBV?$basic_string@DU?$char_traits@D@std@@V?$allocator@D@2@@std@@PAVCObject3D@@@std@@@2@$0A@@std@@@2@PAU342@@Z ; std::_Tree<std::_Tmap_traits<std::basic_string<char,std::char_traits<char>,std::allocator<char> >,CObject3D *,std::less<std::basic_string<char,std::char_traits<char>,std::allocator<char> > >,std::allocator<std::pair<std::basic_string<char,std::char_traits<char>,std::allocator<char> > const ,CObject3D *> >,0> >::_Max
; Function compile flags: /Ogty
; File c:\program files\microsoft visual studio .net 2003\vc7\include\xtree
;	COMDAT ?_Max@?$_Tree@V?$_Tmap_traits@V?$basic_string@DU?$char_traits@D@std@@V?$allocator@D@2@@std@@PAVCObject3D@@U?$less@V?$basic_string@DU?$char_traits@D@std@@V?$allocator@D@2@@std@@@2@V?$allocator@U?$pair@$$CBV?$basic_string@DU?$char_traits@D@std@@V?$allocator@D@2@@std@@PAVCObject3D@@@std@@@2@$0A@@std@@@std@@KAPAU_Node@?$_Tree_nod@V?$_Tmap_traits@V?$basic_string@DU?$char_traits@D@std@@V?$allocator@D@2@@std@@PAVCObject3D@@U?$less@V?$basic_string@DU?$char_traits@D@std@@V?$allocator@D@2@@std@@@2@V?$allocator@U?$pair@$$CBV?$basic_string@DU?$char_traits@D@std@@V?$allocator@D@2@@std@@PAVCObject3D@@@std@@@2@$0A@@std@@@2@PAU342@@Z
_TEXT	SEGMENT
__Pnode$ = 8						; size = 4
?_Max@?$_Tree@V?$_Tmap_traits@V?$basic_string@DU?$char_traits@D@std@@V?$allocator@D@2@@std@@PAVCObject3D@@U?$less@V?$basic_string@DU?$char_traits@D@std@@V?$allocator@D@2@@std@@@2@V?$allocator@U?$pair@$$CBV?$basic_string@DU?$char_traits@D@std@@V?$allocator@D@2@@std@@PAVCObject3D@@@std@@@2@$0A@@std@@@std@@KAPAU_Node@?$_Tree_nod@V?$_Tmap_traits@V?$basic_string@DU?$char_traits@D@std@@V?$allocator@D@2@@std@@PAVCObject3D@@U?$less@V?$basic_string@DU?$char_traits@D@std@@V?$allocator@D@2@@std@@@2@V?$allocator@U?$pair@$$CBV?$basic_string@DU?$char_traits@D@std@@V?$allocator@D@2@@std@@PAVCObject3D@@@std@@@2@$0A@@std@@@2@PAU342@@Z PROC NEAR ; std::_Tree<std::_Tmap_traits<std::basic_string<char,std::char_traits<char>,std::allocator<char> >,CObject3D *,std::less<std::basic_string<char,std::char_traits<char>,std::allocator<char> > >,std::allocator<std::pair<std::basic_string<char,std::char_traits<char>,std::allocator<char> > const ,CObject3D *> >,0> >::_Max, COMDAT

; 1035 : 		while (!_Isnil(_Right(_Pnode)))

  00000	8b 44 24 04	 mov	 eax, DWORD PTR __Pnode$[esp-4]
  00004	8b 48 08	 mov	 ecx, DWORD PTR [eax+8]
  00007	8a 51 2d	 mov	 dl, BYTE PTR [ecx+45]
  0000a	84 d2		 test	 dl, dl
  0000c	75 0e		 jne	 SHORT $L227368
  0000e	8b ff		 npad	 2
$L227367:

; 1036 : 			_Pnode = _Right(_Pnode);

  00010	8b c1		 mov	 eax, ecx
  00012	8b 48 08	 mov	 ecx, DWORD PTR [eax+8]
  00015	8a 51 2d	 mov	 dl, BYTE PTR [ecx+45]
  00018	84 d2		 test	 dl, dl
  0001a	74 f4		 je	 SHORT $L227367
$L227368:

; 1037 : 		return (_Pnode);
; 1038 : 		}

  0001c	c3		 ret	 0
?_Max@?$_Tree@V?$_Tmap_traits@V?$basic_string@DU?$char_traits@D@std@@V?$allocator@D@2@@std@@PAVCObject3D@@U?$less@V?$basic_string@DU?$char_traits@D@std@@V?$allocator@D@2@@std@@@2@V?$allocator@U?$pair@$$CBV?$basic_string@DU?$char_traits@D@std@@V?$allocator@D@2@@std@@PAVCObject3D@@@std@@@2@$0A@@std@@@std@@KAPAU_Node@?$_Tree_nod@V?$_Tmap_traits@V?$basic_string@DU?$char_traits@D@std@@V?$allocator@D@2@@std@@PAVCObject3D@@U?$less@V?$basic_string@DU?$char_traits@D@std@@V?$allocator@D@2@@std@@@2@V?$allocator@U?$pair@$$CBV?$basic_string@DU?$char_traits@D@std@@V?$allocator@D@2@@std@@PAVCObject3D@@@std@@@2@$0A@@std@@@2@PAU342@@Z ENDP ; std::_Tree<std::_Tmap_traits<std::basic_string<char,std::char_traits<char>,std::allocator<char> >,CObject3D *,std::less<std::basic_string<char,std::char_traits<char>,std::allocator<char> > >,std::allocator<std::pair<std::basic_string<char,std::char_traits<char>,std::allocator<char> > const ,CObject3D *> >,0> >::_Max
_TEXT	ENDS
PUBLIC	?_Min@?$_Tree@V?$_Tmap_traits@V?$basic_string@DU?$char_traits@D@std@@V?$allocator@D@2@@std@@PAVCObject3D@@U?$less@V?$basic_string@DU?$char_traits@D@std@@V?$allocator@D@2@@std@@@2@V?$allocator@U?$pair@$$CBV?$basic_string@DU?$char_traits@D@std@@V?$allocator@D@2@@std@@PAVCObject3D@@@std@@@2@$0A@@std@@@std@@KAPAU_Node@?$_Tree_nod@V?$_Tmap_traits@V?$basic_string@DU?$char_traits@D@std@@V?$allocator@D@2@@std@@PAVCObject3D@@U?$less@V?$basic_string@DU?$char_traits@D@std@@V?$allocator@D@2@@std@@@2@V?$allocator@U?$pair@$$CBV?$basic_string@DU?$char_traits@D@std@@V?$allocator@D@2@@std@@PAVCObject3D@@@std@@@2@$0A@@std@@@2@PAU342@@Z ; std::_Tree<std::_Tmap_traits<std::basic_string<char,std::char_traits<char>,std::allocator<char> >,CObject3D *,std::less<std::basic_string<char,std::char_traits<char>,std::allocator<char> > >,std::allocator<std::pair<std::basic_string<char,std::char_traits<char>,std::allocator<char> > const ,CObject3D *> >,0> >::_Min
; Function compile flags: /Ogty
;	COMDAT ?_Min@?$_Tree@V?$_Tmap_traits@V?$basic_string@DU?$char_traits@D@std@@V?$allocator@D@2@@std@@PAVCObject3D@@U?$less@V?$basic_string@DU?$char_traits@D@std@@V?$allocator@D@2@@std@@@2@V?$allocator@U?$pair@$$CBV?$basic_string@DU?$char_traits@D@std@@V?$allocator@D@2@@std@@PAVCObject3D@@@std@@@2@$0A@@std@@@std@@KAPAU_Node@?$_Tree_nod@V?$_Tmap_traits@V?$basic_string@DU?$char_traits@D@std@@V?$allocator@D@2@@std@@PAVCObject3D@@U?$less@V?$basic_string@DU?$char_traits@D@std@@V?$allocator@D@2@@std@@@2@V?$allocator@U?$pair@$$CBV?$basic_string@DU?$char_traits@D@std@@V?$allocator@D@2@@std@@PAVCObject3D@@@std@@@2@$0A@@std@@@2@PAU342@@Z
_TEXT	SEGMENT
__Pnode$ = 8						; size = 4
?_Min@?$_Tree@V?$_Tmap_traits@V?$basic_string@DU?$char_traits@D@std@@V?$allocator@D@2@@std@@PAVCObject3D@@U?$less@V?$basic_string@DU?$char_traits@D@std@@V?$allocator@D@2@@std@@@2@V?$allocator@U?$pair@$$CBV?$basic_string@DU?$char_traits@D@std@@V?$allocator@D@2@@std@@PAVCObject3D@@@std@@@2@$0A@@std@@@std@@KAPAU_Node@?$_Tree_nod@V?$_Tmap_traits@V?$basic_string@DU?$char_traits@D@std@@V?$allocator@D@2@@std@@PAVCObject3D@@U?$less@V?$basic_string@DU?$char_traits@D@std@@V?$allocator@D@2@@std@@@2@V?$allocator@U?$pair@$$CBV?$basic_string@DU?$char_traits@D@std@@V?$allocator@D@2@@std@@PAVCObject3D@@@std@@@2@$0A@@std@@@2@PAU342@@Z PROC NEAR ; std::_Tree<std::_Tmap_traits<std::basic_string<char,std::char_traits<char>,std::allocator<char> >,CObject3D *,std::less<std::basic_string<char,std::char_traits<char>,std::allocator<char> > >,std::allocator<std::pair<std::basic_string<char,std::char_traits<char>,std::allocator<char> > const ,CObject3D *> >,0> >::_Min, COMDAT

; 1042 : 		while (!_Isnil(_Left(_Pnode)))

  00000	8b 44 24 04	 mov	 eax, DWORD PTR __Pnode$[esp-4]
  00004	8b 08		 mov	 ecx, DWORD PTR [eax]
  00006	8a 51 2d	 mov	 dl, BYTE PTR [ecx+45]
  00009	84 d2		 test	 dl, dl
  0000b	75 0e		 jne	 SHORT $L227372
  0000d	8d 49 00	 npad	 3
$L227371:

; 1043 : 			_Pnode = _Left(_Pnode);

  00010	8b c1		 mov	 eax, ecx
  00012	8b 08		 mov	 ecx, DWORD PTR [eax]
  00014	8a 51 2d	 mov	 dl, BYTE PTR [ecx+45]
  00017	84 d2		 test	 dl, dl
  00019	74 f5		 je	 SHORT $L227371
$L227372:

; 1044 : 		return (_Pnode);
; 1045 : 		}

  0001b	c3		 ret	 0
?_Min@?$_Tree@V?$_Tmap_traits@V?$basic_string@DU?$char_traits@D@std@@V?$allocator@D@2@@std@@PAVCObject3D@@U?$less@V?$basic_string@DU?$char_traits@D@std@@V?$allocator@D@2@@std@@@2@V?$allocator@U?$pair@$$CBV?$basic_string@DU?$char_traits@D@std@@V?$allocator@D@2@@std@@PAVCObject3D@@@std@@@2@$0A@@std@@@std@@KAPAU_Node@?$_Tree_nod@V?$_Tmap_traits@V?$basic_string@DU?$char_traits@D@std@@V?$allocator@D@2@@std@@PAVCObject3D@@U?$less@V?$basic_string@DU?$char_traits@D@std@@V?$allocator@D@2@@std@@@2@V?$allocator@U?$pair@$$CBV?$basic_string@DU?$char_traits@D@std@@V?$allocator@D@2@@std@@PAVCObject3D@@@std@@@2@$0A@@std@@@2@PAU342@@Z ENDP ; std::_Tree<std::_Tmap_traits<std::basic_string<char,std::char_traits<char>,std::allocator<char> >,CObject3D *,std::less<std::basic_string<char,std::char_traits<char>,std::allocator<char> > >,std::allocator<std::pair<std::basic_string<char,std::char_traits<char>,std::allocator<char> > const ,CObject3D *> >,0> >::_Min
_TEXT	ENDS
PUBLIC	?_Root@?$_Tree@V?$_Tmap_traits@V?$basic_string@DU?$char_traits@D@std@@V?$allocator@D@2@@std@@PAVCObject3D@@U?$less@V?$basic_string@DU?$char_traits@D@std@@V?$allocator@D@2@@std@@@2@V?$allocator@U?$pair@$$CBV?$basic_string@DU?$char_traits@D@std@@V?$allocator@D@2@@std@@PAVCObject3D@@@std@@@2@$0A@@std@@@std@@IBEAAPAU_Node@?$_Tree_nod@V?$_Tmap_traits@V?$basic_string@DU?$char_traits@D@std@@V?$allocator@D@2@@std@@PAVCObject3D@@U?$less@V?$basic_string@DU?$char_traits@D@std@@V?$allocator@D@2@@std@@@2@V?$allocator@U?$pair@$$CBV?$basic_string@DU?$char_traits@D@std@@V?$allocator@D@2@@std@@PAVCObject3D@@@std@@@2@$0A@@std@@@2@XZ ; std::_Tree<std::_Tmap_traits<std::basic_string<char,std::char_traits<char>,std::allocator<char> >,CObject3D *,std::less<std::basic_string<char,std::char_traits<char>,std::allocator<char> > >,std::allocator<std::pair<std::basic_string<char,std::char_traits<char>,std::allocator<char> > const ,CObject3D *> >,0> >::_Root
; Function compile flags: /Ogty
;	COMDAT ?_Root@?$_Tree@V?$_Tmap_traits@V?$basic_string@DU?$char_traits@D@std@@V?$allocator@D@2@@std@@PAVCObject3D@@U?$less@V?$basic_string@DU?$char_traits@D@std@@V?$allocator@D@2@@std@@@2@V?$allocator@U?$pair@$$CBV?$basic_string@DU?$char_traits@D@std@@V?$allocator@D@2@@std@@PAVCObject3D@@@std@@@2@$0A@@std@@@std@@IBEAAPAU_Node@?$_Tree_nod@V?$_Tmap_traits@V?$basic_string@DU?$char_traits@D@std@@V?$allocator@D@2@@std@@PAVCObject3D@@U?$less@V?$basic_string@DU?$char_traits@D@std@@V?$allocator@D@2@@std@@@2@V?$allocator@U?$pair@$$CBV?$basic_string@DU?$char_traits@D@std@@V?$allocator@D@2@@std@@PAVCObject3D@@@std@@@2@$0A@@std@@@2@XZ
_TEXT	SEGMENT
?_Root@?$_Tree@V?$_Tmap_traits@V?$basic_string@DU?$char_traits@D@std@@V?$allocator@D@2@@std@@PAVCObject3D@@U?$less@V?$basic_string@DU?$char_traits@D@std@@V?$allocator@D@2@@std@@@2@V?$allocator@U?$pair@$$CBV?$basic_string@DU?$char_traits@D@std@@V?$allocator@D@2@@std@@PAVCObject3D@@@std@@@2@$0A@@std@@@std@@IBEAAPAU_Node@?$_Tree_nod@V?$_Tmap_traits@V?$basic_string@DU?$char_traits@D@std@@V?$allocator@D@2@@std@@PAVCObject3D@@U?$less@V?$basic_string@DU?$char_traits@D@std@@V?$allocator@D@2@@std@@@2@V?$allocator@U?$pair@$$CBV?$basic_string@DU?$char_traits@D@std@@V?$allocator@D@2@@std@@PAVCObject3D@@@std@@@2@$0A@@std@@@2@XZ PROC NEAR ; std::_Tree<std::_Tmap_traits<std::basic_string<char,std::char_traits<char>,std::allocator<char> >,CObject3D *,std::less<std::basic_string<char,std::char_traits<char>,std::allocator<char> > >,std::allocator<std::pair<std::basic_string<char,std::char_traits<char>,std::allocator<char> > const ,CObject3D *> >,0> >::_Root, COMDAT
; _this$ = ecx

; 1064 : 		return (_Parent(_Myhead));

  00000	8b 41 04	 mov	 eax, DWORD PTR [ecx+4]
  00003	83 c0 04	 add	 eax, 4

; 1065 : 		}

  00006	c3		 ret	 0
?_Root@?$_Tree@V?$_Tmap_traits@V?$basic_string@DU?$char_traits@D@std@@V?$allocator@D@2@@std@@PAVCObject3D@@U?$less@V?$basic_string@DU?$char_traits@D@std@@V?$allocator@D@2@@std@@@2@V?$allocator@U?$pair@$$CBV?$basic_string@DU?$char_traits@D@std@@V?$allocator@D@2@@std@@PAVCObject3D@@@std@@@2@$0A@@std@@@std@@IBEAAPAU_Node@?$_Tree_nod@V?$_Tmap_traits@V?$basic_string@DU?$char_traits@D@std@@V?$allocator@D@2@@std@@PAVCObject3D@@U?$less@V?$basic_string@DU?$char_traits@D@std@@V?$allocator@D@2@@std@@@2@V?$allocator@U?$pair@$$CBV?$basic_string@DU?$char_traits@D@std@@V?$allocator@D@2@@std@@PAVCObject3D@@@std@@@2@$0A@@std@@@2@XZ ENDP ; std::_Tree<std::_Tmap_traits<std::basic_string<char,std::char_traits<char>,std::allocator<char> >,CObject3D *,std::less<std::basic_string<char,std::char_traits<char>,std::allocator<char> > >,std::allocator<std::pair<std::basic_string<char,std::char_traits<char>,std::allocator<char> > const ,CObject3D *> >,0> >::_Root
_TEXT	ENDS
PUBLIC	?max_size@?$allocator@U?$pair@$$CBV?$basic_string@DU?$char_traits@D@std@@V?$allocator@D@2@@std@@PAVCObject3D@@@std@@@std@@QBEIXZ ; std::allocator<std::pair<std::basic_string<char,std::char_traits<char>,std::allocator<char> > const ,CObject3D *> >::max_size
; Function compile flags: /Ogty
; File c:\program files\microsoft visual studio .net 2003\vc7\include\xmemory
;	COMDAT ?max_size@?$allocator@U?$pair@$$CBV?$basic_string@DU?$char_traits@D@std@@V?$allocator@D@2@@std@@PAVCObject3D@@@std@@@std@@QBEIXZ
_TEXT	SEGMENT
?max_size@?$allocator@U?$pair@$$CBV?$basic_string@DU?$char_traits@D@std@@V?$allocator@D@2@@std@@PAVCObject3D@@@std@@@std@@QBEIXZ PROC NEAR ; std::allocator<std::pair<std::basic_string<char,std::char_traits<char>,std::allocator<char> > const ,CObject3D *> >::max_size, COMDAT
; _this$ = ecx

; 157  : 		_SIZT _Count = (_SIZT)(-1) / sizeof (_Ty);
; 158  : 		return (0 < _Count ? _Count : 1);

  00000	b8 ff ff ff 07	 mov	 eax, 134217727		; 07ffffffH

; 159  : 		}

  00005	c3		 ret	 0
?max_size@?$allocator@U?$pair@$$CBV?$basic_string@DU?$char_traits@D@std@@V?$allocator@D@2@@std@@PAVCObject3D@@@std@@@std@@QBEIXZ ENDP ; std::allocator<std::pair<std::basic_string<char,std::char_traits<char>,std::allocator<char> > const ,CObject3D *> >::max_size
_TEXT	ENDS
PUBLIC	?_Dec@const_iterator@?$_Tree@V?$_Tmap_traits@V?$basic_string@DU?$char_traits@D@std@@V?$allocator@D@2@@std@@PAVCObject3D@@U?$less@V?$basic_string@DU?$char_traits@D@std@@V?$allocator@D@2@@std@@@2@V?$allocator@U?$pair@$$CBV?$basic_string@DU?$char_traits@D@std@@V?$allocator@D@2@@std@@PAVCObject3D@@@std@@@2@$0A@@std@@@std@@QAEXXZ ; std::_Tree<std::_Tmap_traits<std::basic_string<char,std::char_traits<char>,std::allocator<char> >,CObject3D *,std::less<std::basic_string<char,std::char_traits<char>,std::allocator<char> > >,std::allocator<std::pair<std::basic_string<char,std::char_traits<char>,std::allocator<char> > const ,CObject3D *> >,0> >::const_iterator::_Dec
; Function compile flags: /Ogty
; File c:\program files\microsoft visual studio .net 2003\vc7\include\xtree
;	COMDAT ?_Dec@const_iterator@?$_Tree@V?$_Tmap_traits@V?$basic_string@DU?$char_traits@D@std@@V?$allocator@D@2@@std@@PAVCObject3D@@U?$less@V?$basic_string@DU?$char_traits@D@std@@V?$allocator@D@2@@std@@@2@V?$allocator@U?$pair@$$CBV?$basic_string@DU?$char_traits@D@std@@V?$allocator@D@2@@std@@PAVCObject3D@@@std@@@2@$0A@@std@@@std@@QAEXXZ
_TEXT	SEGMENT
?_Dec@const_iterator@?$_Tree@V?$_Tmap_traits@V?$basic_string@DU?$char_traits@D@std@@V?$allocator@D@2@@std@@PAVCObject3D@@U?$less@V?$basic_string@DU?$char_traits@D@std@@V?$allocator@D@2@@std@@@2@V?$allocator@U?$pair@$$CBV?$basic_string@DU?$char_traits@D@std@@V?$allocator@D@2@@std@@PAVCObject3D@@@std@@@2@$0A@@std@@@std@@QAEXXZ PROC NEAR ; std::_Tree<std::_Tmap_traits<std::basic_string<char,std::char_traits<char>,std::allocator<char> >,CObject3D *,std::less<std::basic_string<char,std::char_traits<char>,std::allocator<char> > >,std::allocator<std::pair<std::basic_string<char,std::char_traits<char>,std::allocator<char> > const ,CObject3D *> >,0> >::const_iterator::_Dec, COMDAT
; _this$ = ecx

; 251  : 			if (_Isnil(_Ptr))

  00000	8b 01		 mov	 eax, DWORD PTR [ecx]
  00002	8a 50 2d	 mov	 dl, BYTE PTR [eax+45]
  00005	84 d2		 test	 dl, dl
  00007	74 06		 je	 SHORT $L227427

; 252  : 				_Ptr = _Right(_Ptr);	// end() ==> rightmost

  00009	8b 40 08	 mov	 eax, DWORD PTR [eax+8]
  0000c	89 01		 mov	 DWORD PTR [ecx], eax

; 263  : 				}
; 264  : 			}

  0000e	c3		 ret	 0
$L227427:

; 253  : 			else if (!_Isnil(_Left(_Ptr)))

  0000f	8b 10		 mov	 edx, DWORD PTR [eax]
  00011	53		 push	 ebx
  00012	8a 5a 2d	 mov	 bl, BYTE PTR [edx+45]
  00015	84 db		 test	 bl, bl
  00017	75 1a		 jne	 SHORT $L228998

; 254  : 				_Ptr = _Max(_Left(_Ptr));	// ==> largest of left subtree

  00019	8b 42 08	 mov	 eax, DWORD PTR [edx+8]
  0001c	8a 58 2d	 mov	 bl, BYTE PTR [eax+45]
  0001f	84 db		 test	 bl, bl
  00021	75 0c		 jne	 SHORT $L228976
$L228975:
  00023	8b d0		 mov	 edx, eax
  00025	8b 42 08	 mov	 eax, DWORD PTR [edx+8]
  00028	8a 58 2d	 mov	 bl, BYTE PTR [eax+45]
  0002b	84 db		 test	 bl, bl
  0002d	74 f4		 je	 SHORT $L228975
$L228976:
  0002f	89 11		 mov	 DWORD PTR [ecx], edx
  00031	5b		 pop	 ebx

; 263  : 				}
; 264  : 			}

  00032	c3		 ret	 0
$L228998:

; 255  : 			else
; 256  : 				{	// climb looking for left subtree
; 257  : 				_Nodeptr _Pnode;
; 258  : 				while (!_Isnil(_Pnode = _Parent(_Ptr))
; 259  : 					&& _Ptr == _Left(_Pnode))

  00033	8b 40 04	 mov	 eax, DWORD PTR [eax+4]
  00036	8a 50 2d	 mov	 dl, BYTE PTR [eax+45]
  00039	84 d2		 test	 dl, dl
  0003b	75 1e		 jne	 SHORT $L229001
  0003d	8d 49 00	 npad	 3
$L227433:
  00040	8b 11		 mov	 edx, DWORD PTR [ecx]
  00042	3b 10		 cmp	 edx, DWORD PTR [eax]
  00044	75 0c		 jne	 SHORT $L227434

; 260  : 					_Ptr = _Pnode;	// ==> parent while left subtree

  00046	89 01		 mov	 DWORD PTR [ecx], eax
  00048	8b 40 04	 mov	 eax, DWORD PTR [eax+4]
  0004b	8a 50 2d	 mov	 dl, BYTE PTR [eax+45]
  0004e	84 d2		 test	 dl, dl
  00050	74 ee		 je	 SHORT $L227433
$L227434:

; 261  : 				if (!_Isnil(_Pnode))

  00052	8a 50 2d	 mov	 dl, BYTE PTR [eax+45]
  00055	84 d2		 test	 dl, dl
  00057	75 02		 jne	 SHORT $L229001

; 262  : 					_Ptr = _Pnode;	// ==> parent if not head

  00059	89 01		 mov	 DWORD PTR [ecx], eax
$L229001:
  0005b	5b		 pop	 ebx

; 263  : 				}
; 264  : 			}

  0005c	c3		 ret	 0
?_Dec@const_iterator@?$_Tree@V?$_Tmap_traits@V?$basic_string@DU?$char_traits@D@std@@V?$allocator@D@2@@std@@PAVCObject3D@@U?$less@V?$basic_string@DU?$char_traits@D@std@@V?$allocator@D@2@@std@@@2@V?$allocator@U?$pair@$$CBV?$basic_string@DU?$char_traits@D@std@@V?$allocator@D@2@@std@@PAVCObject3D@@@std@@@2@$0A@@std@@@std@@QAEXXZ ENDP ; std::_Tree<std::_Tmap_traits<std::basic_string<char,std::char_traits<char>,std::allocator<char> >,CObject3D *,std::less<std::basic_string<char,std::char_traits<char>,std::allocator<char> > >,std::allocator<std::pair<std::basic_string<char,std::char_traits<char>,std::allocator<char> > const ,CObject3D *> >,0> >::const_iterator::_Dec
_TEXT	ENDS
PUBLIC	??0?$_Tmap_traits@V?$basic_string@DU?$char_traits@D@std@@V?$allocator@D@2@@std@@PAVCObject3D@@U?$less@V?$basic_string@DU?$char_traits@D@std@@V?$allocator@D@2@@std@@@2@V?$allocator@U?$pair@$$CBV?$basic_string@DU?$char_traits@D@std@@V?$allocator@D@2@@std@@PAVCObject3D@@@std@@@2@$0A@@std@@QAE@U?$less@V?$basic_string@DU?$char_traits@D@std@@V?$allocator@D@2@@std@@@1@@Z ; std::_Tmap_traits<std::basic_string<char,std::char_traits<char>,std::allocator<char> >,CObject3D *,std::less<std::basic_string<char,std::char_traits<char>,std::allocator<char> > >,std::allocator<std::pair<std::basic_string<char,std::char_traits<char>,std::allocator<char> > const ,CObject3D *> >,0>::_Tmap_traits<std::basic_string<char,std::char_traits<char>,std::allocator<char> >,CObject3D *,std::less<std::basic_string<char,std::char_traits<char>,std::allocator<char> > >,std::allocator<std::pair<std::basic_string<char,std::char_traits<char>,std::allocator<char> > const ,CObject3D *> >,0>
; Function compile flags: /Ogty
; File c:\program files\microsoft visual studio .net 2003\vc7\include\map
;	COMDAT ??0?$_Tmap_traits@V?$basic_string@DU?$char_traits@D@std@@V?$allocator@D@2@@std@@PAVCObject3D@@U?$less@V?$basic_string@DU?$char_traits@D@std@@V?$allocator@D@2@@std@@@2@V?$allocator@U?$pair@$$CBV?$basic_string@DU?$char_traits@D@std@@V?$allocator@D@2@@std@@PAVCObject3D@@@std@@@2@$0A@@std@@QAE@U?$less@V?$basic_string@DU?$char_traits@D@std@@V?$allocator@D@2@@std@@@1@@Z
_TEXT	SEGMENT
__Parg$ = 8						; size = 1
??0?$_Tmap_traits@V?$basic_string@DU?$char_traits@D@std@@V?$allocator@D@2@@std@@PAVCObject3D@@U?$less@V?$basic_string@DU?$char_traits@D@std@@V?$allocator@D@2@@std@@@2@V?$allocator@U?$pair@$$CBV?$basic_string@DU?$char_traits@D@std@@V?$allocator@D@2@@std@@PAVCObject3D@@@std@@@2@$0A@@std@@QAE@U?$less@V?$basic_string@DU?$char_traits@D@std@@V?$allocator@D@2@@std@@@1@@Z PROC NEAR ; std::_Tmap_traits<std::basic_string<char,std::char_traits<char>,std::allocator<char> >,CObject3D *,std::less<std::basic_string<char,std::char_traits<char>,std::allocator<char> > >,std::allocator<std::pair<std::basic_string<char,std::char_traits<char>,std::allocator<char> > const ,CObject3D *> >,0>::_Tmap_traits<std::basic_string<char,std::char_traits<char>,std::allocator<char> >,CObject3D *,std::less<std::basic_string<char,std::char_traits<char>,std::allocator<char> > >,std::allocator<std::pair<std::basic_string<char,std::char_traits<char>,std::allocator<char> > const ,CObject3D *> >,0>, COMDAT
; _this$ = ecx

; 38   : 		{	// construct with specified comparator

  00000	8b c1		 mov	 eax, ecx

; 39   : 		}

  00002	c2 04 00	 ret	 4
??0?$_Tmap_traits@V?$basic_string@DU?$char_traits@D@std@@V?$allocator@D@2@@std@@PAVCObject3D@@U?$less@V?$basic_string@DU?$char_traits@D@std@@V?$allocator@D@2@@std@@@2@V?$allocator@U?$pair@$$CBV?$basic_string@DU?$char_traits@D@std@@V?$allocator@D@2@@std@@PAVCObject3D@@@std@@@2@$0A@@std@@QAE@U?$less@V?$basic_string@DU?$char_traits@D@std@@V?$allocator@D@2@@std@@@1@@Z ENDP ; std::_Tmap_traits<std::basic_string<char,std::char_traits<char>,std::allocator<char> >,CObject3D *,std::less<std::basic_string<char,std::char_traits<char>,std::allocator<char> > >,std::allocator<std::pair<std::basic_string<char,std::char_traits<char>,std::allocator<char> > const ,CObject3D *> >,0>::_Tmap_traits<std::basic_string<char,std::char_traits<char>,std::allocator<char> >,CObject3D *,std::less<std::basic_string<char,std::char_traits<char>,std::allocator<char> > >,std::allocator<std::pair<std::basic_string<char,std::char_traits<char>,std::allocator<char> > const ,CObject3D *> >,0>
_TEXT	ENDS
PUBLIC	??$_Destroy@PAU_Node@?$_Tree_nod@V?$_Tmap_traits@V?$basic_string@DU?$char_traits@D@std@@V?$allocator@D@2@@std@@PAVCObject3D@@U?$less@V?$basic_string@DU?$char_traits@D@std@@V?$allocator@D@2@@std@@@2@V?$allocator@U?$pair@$$CBV?$basic_string@DU?$char_traits@D@std@@V?$allocator@D@2@@std@@PAVCObject3D@@@std@@@2@$0A@@std@@@std@@@std@@YAXPAPAU_Node@?$_Tree_nod@V?$_Tmap_traits@V?$basic_string@DU?$char_traits@D@std@@V?$allocator@D@2@@std@@PAVCObject3D@@U?$less@V?$basic_string@DU?$char_traits@D@std@@V?$allocator@D@2@@std@@@2@V?$allocator@U?$pair@$$CBV?$basic_string@DU?$char_traits@D@std@@V?$allocator@D@2@@std@@PAVCObject3D@@@std@@@2@$0A@@std@@@0@@Z ; std::_Destroy<std::_Tree_nod<std::_Tmap_traits<std::basic_string<char,std::char_traits<char>,std::allocator<char> >,CObject3D *,std::less<std::basic_string<char,std::char_traits<char>,std::allocator<char> > >,std::allocator<std::pair<std::basic_string<char,std::char_traits<char>,std::allocator<char> > const ,CObject3D *> >,0> >::_Node *>
; Function compile flags: /Ogty
; File c:\program files\microsoft visual studio .net 2003\vc7\include\xmemory
;	COMDAT ??$_Destroy@PAU_Node@?$_Tree_nod@V?$_Tmap_traits@V?$basic_string@DU?$char_traits@D@std@@V?$allocator@D@2@@std@@PAVCObject3D@@U?$less@V?$basic_string@DU?$char_traits@D@std@@V?$allocator@D@2@@std@@@2@V?$allocator@U?$pair@$$CBV?$basic_string@DU?$char_traits@D@std@@V?$allocator@D@2@@std@@PAVCObject3D@@@std@@@2@$0A@@std@@@std@@@std@@YAXPAPAU_Node@?$_Tree_nod@V?$_Tmap_traits@V?$basic_string@DU?$char_traits@D@std@@V?$allocator@D@2@@std@@PAVCObject3D@@U?$less@V?$basic_string@DU?$char_traits@D@std@@V?$allocator@D@2@@std@@@2@V?$allocator@U?$pair@$$CBV?$basic_string@DU?$char_traits@D@std@@V?$allocator@D@2@@std@@PAVCObject3D@@@std@@@2@$0A@@std@@@0@@Z
_TEXT	SEGMENT
__Ptr$ = 8						; size = 4
??$_Destroy@PAU_Node@?$_Tree_nod@V?$_Tmap_traits@V?$basic_string@DU?$char_traits@D@std@@V?$allocator@D@2@@std@@PAVCObject3D@@U?$less@V?$basic_string@DU?$char_traits@D@std@@V?$allocator@D@2@@std@@@2@V?$allocator@U?$pair@$$CBV?$basic_string@DU?$char_traits@D@std@@V?$allocator@D@2@@std@@PAVCObject3D@@@std@@@2@$0A@@std@@@std@@@std@@YAXPAPAU_Node@?$_Tree_nod@V?$_Tmap_traits@V?$basic_string@DU?$char_traits@D@std@@V?$allocator@D@2@@std@@PAVCObject3D@@U?$less@V?$basic_string@DU?$char_traits@D@std@@V?$allocator@D@2@@std@@@2@V?$allocator@U?$pair@$$CBV?$basic_string@DU?$char_traits@D@std@@V?$allocator@D@2@@std@@PAVCObject3D@@@std@@@2@$0A@@std@@@0@@Z PROC NEAR ; std::_Destroy<std::_Tree_nod<std::_Tmap_traits<std::basic_string<char,std::char_traits<char>,std::allocator<char> >,CObject3D *,std::less<std::basic_string<char,std::char_traits<char>,std::allocator<char> > >,std::allocator<std::pair<std::basic_string<char,std::char_traits<char>,std::allocator<char> > const ,CObject3D *> >,0> >::_Node *>, COMDAT

; 49   : 	_DESTRUCTOR(_Ty, _Ptr);
; 50   : 	}

  00000	c3		 ret	 0
??$_Destroy@PAU_Node@?$_Tree_nod@V?$_Tmap_traits@V?$basic_string@DU?$char_traits@D@std@@V?$allocator@D@2@@std@@PAVCObject3D@@U?$less@V?$basic_string@DU?$char_traits@D@std@@V?$allocator@D@2@@std@@@2@V?$allocator@U?$pair@$$CBV?$basic_string@DU?$char_traits@D@std@@V?$allocator@D@2@@std@@PAVCObject3D@@@std@@@2@$0A@@std@@@std@@@std@@YAXPAPAU_Node@?$_Tree_nod@V?$_Tmap_traits@V?$basic_string@DU?$char_traits@D@std@@V?$allocator@D@2@@std@@PAVCObject3D@@U?$less@V?$basic_string@DU?$char_traits@D@std@@V?$allocator@D@2@@std@@@2@V?$allocator@U?$pair@$$CBV?$basic_string@DU?$char_traits@D@std@@V?$allocator@D@2@@std@@PAVCObject3D@@@std@@@2@$0A@@std@@@0@@Z ENDP ; std::_Destroy<std::_Tree_nod<std::_Tmap_traits<std::basic_string<char,std::char_traits<char>,std::allocator<char> >,CObject3D *,std::less<std::basic_string<char,std::char_traits<char>,std::allocator<char> > >,std::allocator<std::pair<std::basic_string<char,std::char_traits<char>,std::allocator<char> > const ,CObject3D *> >,0> >::_Node *>
_TEXT	ENDS
PUBLIC	??$?0U?$pair@$$CBV?$basic_string@DU?$char_traits@D@std@@V?$allocator@D@2@@std@@PAVCObject3D@@@std@@@?$allocator@PAU_Node@?$_Tree_nod@V?$_Tmap_traits@V?$basic_string@DU?$char_traits@D@std@@V?$allocator@D@2@@std@@PAVCObject3D@@U?$less@V?$basic_string@DU?$char_traits@D@std@@V?$allocator@D@2@@std@@@2@V?$allocator@U?$pair@$$CBV?$basic_string@DU?$char_traits@D@std@@V?$allocator@D@2@@std@@PAVCObject3D@@@std@@@2@$0A@@std@@@std@@@std@@QAE@ABV?$allocator@U?$pair@$$CBV?$basic_string@DU?$char_traits@D@std@@V?$allocator@D@2@@std@@PAVCObject3D@@@std@@@1@@Z ; std::allocator<std::_Tree_nod<std::_Tmap_traits<std::basic_string<char,std::char_traits<char>,std::allocator<char> >,CObject3D *,std::less<std::basic_string<char,std::char_traits<char>,std::allocator<char> > >,std::allocator<std::pair<std::basic_string<char,std::char_traits<char>,std::allocator<char> > const ,CObject3D *> >,0> >::_Node *>::allocator<std::_Tree_nod<std::_Tmap_traits<std::basic_string<char,std::char_traits<char>,std::allocator<char> >,CObject3D *,std::less<std::basic_string<char,std::char_traits<char>,std::allocator<char> > >,std::allocator<std::pair<std::basic_string<char,std::char_traits<char>,std::allocator<char> > const ,CObject3D *> >,0> >::_Node *><std::pair<std::basic_string<char,std::char_traits<char>,std::allocator<char> > const ,CObject3D *> >
; Function compile flags: /Ogty
;	COMDAT ??$?0U?$pair@$$CBV?$basic_string@DU?$char_traits@D@std@@V?$allocator@D@2@@std@@PAVCObject3D@@@std@@@?$allocator@PAU_Node@?$_Tree_nod@V?$_Tmap_traits@V?$basic_string@DU?$char_traits@D@std@@V?$allocator@D@2@@std@@PAVCObject3D@@U?$less@V?$basic_string@DU?$char_traits@D@std@@V?$allocator@D@2@@std@@@2@V?$allocator@U?$pair@$$CBV?$basic_string@DU?$char_traits@D@std@@V?$allocator@D@2@@std@@PAVCObject3D@@@std@@@2@$0A@@std@@@std@@@std@@QAE@ABV?$allocator@U?$pair@$$CBV?$basic_string@DU?$char_traits@D@std@@V?$allocator@D@2@@std@@PAVCObject3D@@@std@@@1@@Z
_TEXT	SEGMENT
___formal$ = 8						; size = 4
??$?0U?$pair@$$CBV?$basic_string@DU?$char_traits@D@std@@V?$allocator@D@2@@std@@PAVCObject3D@@@std@@@?$allocator@PAU_Node@?$_Tree_nod@V?$_Tmap_traits@V?$basic_string@DU?$char_traits@D@std@@V?$allocator@D@2@@std@@PAVCObject3D@@U?$less@V?$basic_string@DU?$char_traits@D@std@@V?$allocator@D@2@@std@@@2@V?$allocator@U?$pair@$$CBV?$basic_string@DU?$char_traits@D@std@@V?$allocator@D@2@@std@@PAVCObject3D@@@std@@@2@$0A@@std@@@std@@@std@@QAE@ABV?$allocator@U?$pair@$$CBV?$basic_string@DU?$char_traits@D@std@@V?$allocator@D@2@@std@@PAVCObject3D@@@std@@@1@@Z PROC NEAR ; std::allocator<std::_Tree_nod<std::_Tmap_traits<std::basic_string<char,std::char_traits<char>,std::allocator<char> >,CObject3D *,std::less<std::basic_string<char,std::char_traits<char>,std::allocator<char> > >,std::allocator<std::pair<std::basic_string<char,std::char_traits<char>,std::allocator<char> > const ,CObject3D *> >,0> >::_Node *>::allocator<std::_Tree_nod<std::_Tmap_traits<std::basic_string<char,std::char_traits<char>,std::allocator<char> >,CObject3D *,std::less<std::basic_string<char,std::char_traits<char>,std::allocator<char> > >,std::allocator<std::pair<std::basic_string<char,std::char_traits<char>,std::allocator<char> > const ,CObject3D *> >,0> >::_Node *><std::pair<std::basic_string<char,std::char_traits<char>,std::allocator<char> > const ,CObject3D *> >, COMDAT
; _this$ = ecx

; 120  : 		allocator(const allocator<_Other>&)

  00000	8b c1		 mov	 eax, ecx

; 121  : 		{	// construct from a related allocator (do nothing)
; 122  : 		}

  00002	c2 04 00	 ret	 4
??$?0U?$pair@$$CBV?$basic_string@DU?$char_traits@D@std@@V?$allocator@D@2@@std@@PAVCObject3D@@@std@@@?$allocator@PAU_Node@?$_Tree_nod@V?$_Tmap_traits@V?$basic_string@DU?$char_traits@D@std@@V?$allocator@D@2@@std@@PAVCObject3D@@U?$less@V?$basic_string@DU?$char_traits@D@std@@V?$allocator@D@2@@std@@@2@V?$allocator@U?$pair@$$CBV?$basic_string@DU?$char_traits@D@std@@V?$allocator@D@2@@std@@PAVCObject3D@@@std@@@2@$0A@@std@@@std@@@std@@QAE@ABV?$allocator@U?$pair@$$CBV?$basic_string@DU?$char_traits@D@std@@V?$allocator@D@2@@std@@PAVCObject3D@@@std@@@1@@Z ENDP ; std::allocator<std::_Tree_nod<std::_Tmap_traits<std::basic_string<char,std::char_traits<char>,std::allocator<char> >,CObject3D *,std::less<std::basic_string<char,std::char_traits<char>,std::allocator<char> > >,std::allocator<std::pair<std::basic_string<char,std::char_traits<char>,std::allocator<char> > const ,CObject3D *> >,0> >::_Node *>::allocator<std::_Tree_nod<std::_Tmap_traits<std::basic_string<char,std::char_traits<char>,std::allocator<char> >,CObject3D *,std::less<std::basic_string<char,std::char_traits<char>,std::allocator<char> > >,std::allocator<std::pair<std::basic_string<char,std::char_traits<char>,std::allocator<char> > const ,CObject3D *> >,0> >::_Node *><std::pair<std::basic_string<char,std::char_traits<char>,std::allocator<char> > const ,CObject3D *> >
_TEXT	ENDS
PUBLIC	??$_Allocate@U_Node@?$_Tree_nod@V?$_Tmap_traits@V?$basic_string@DU?$char_traits@D@std@@V?$allocator@D@2@@std@@PAVCObject3D@@U?$less@V?$basic_string@DU?$char_traits@D@std@@V?$allocator@D@2@@std@@@2@V?$allocator@U?$pair@$$CBV?$basic_string@DU?$char_traits@D@std@@V?$allocator@D@2@@std@@PAVCObject3D@@@std@@@2@$0A@@std@@@std@@@std@@YAPAU_Node@?$_Tree_nod@V?$_Tmap_traits@V?$basic_string@DU?$char_traits@D@std@@V?$allocator@D@2@@std@@PAVCObject3D@@U?$less@V?$basic_string@DU?$char_traits@D@std@@V?$allocator@D@2@@std@@@2@V?$allocator@U?$pair@$$CBV?$basic_string@DU?$char_traits@D@std@@V?$allocator@D@2@@std@@PAVCObject3D@@@std@@@2@$0A@@std@@@0@IPAU120@@Z ; std::_Allocate<std::_Tree_nod<std::_Tmap_traits<std::basic_string<char,std::char_traits<char>,std::allocator<char> >,CObject3D *,std::less<std::basic_string<char,std::char_traits<char>,std::allocator<char> > >,std::allocator<std::pair<std::basic_string<char,std::char_traits<char>,std::allocator<char> > const ,CObject3D *> >,0> >::_Node>
EXTRN	??2@YAPAXI@Z:NEAR				; operator new
; Function compile flags: /Ogty
;	COMDAT ??$_Allocate@U_Node@?$_Tree_nod@V?$_Tmap_traits@V?$basic_string@DU?$char_traits@D@std@@V?$allocator@D@2@@std@@PAVCObject3D@@U?$less@V?$basic_string@DU?$char_traits@D@std@@V?$allocator@D@2@@std@@@2@V?$allocator@U?$pair@$$CBV?$basic_string@DU?$char_traits@D@std@@V?$allocator@D@2@@std@@PAVCObject3D@@@std@@@2@$0A@@std@@@std@@@std@@YAPAU_Node@?$_Tree_nod@V?$_Tmap_traits@V?$basic_string@DU?$char_traits@D@std@@V?$allocator@D@2@@std@@PAVCObject3D@@U?$less@V?$basic_string@DU?$char_traits@D@std@@V?$allocator@D@2@@std@@@2@V?$allocator@U?$pair@$$CBV?$basic_string@DU?$char_traits@D@std@@V?$allocator@D@2@@std@@PAVCObject3D@@@std@@@2@$0A@@std@@@0@IPAU120@@Z
_TEXT	SEGMENT
__Count$ = 8						; size = 4
___formal$ = 12						; size = 4
??$_Allocate@U_Node@?$_Tree_nod@V?$_Tmap_traits@V?$basic_string@DU?$char_traits@D@std@@V?$allocator@D@2@@std@@PAVCObject3D@@U?$less@V?$basic_string@DU?$char_traits@D@std@@V?$allocator@D@2@@std@@@2@V?$allocator@U?$pair@$$CBV?$basic_string@DU?$char_traits@D@std@@V?$allocator@D@2@@std@@PAVCObject3D@@@std@@@2@$0A@@std@@@std@@@std@@YAPAU_Node@?$_Tree_nod@V?$_Tmap_traits@V?$basic_string@DU?$char_traits@D@std@@V?$allocator@D@2@@std@@PAVCObject3D@@U?$less@V?$basic_string@DU?$char_traits@D@std@@V?$allocator@D@2@@std@@@2@V?$allocator@U?$pair@$$CBV?$basic_string@DU?$char_traits@D@std@@V?$allocator@D@2@@std@@PAVCObject3D@@@std@@@2@$0A@@std@@@0@IPAU120@@Z PROC NEAR ; std::_Allocate<std::_Tree_nod<std::_Tmap_traits<std::basic_string<char,std::char_traits<char>,std::allocator<char> >,CObject3D *,std::less<std::basic_string<char,std::char_traits<char>,std::allocator<char> > >,std::allocator<std::pair<std::basic_string<char,std::char_traits<char>,std::allocator<char> > const ,CObject3D *> >,0> >::_Node>, COMDAT

; 34   : 	return ((_Ty _FARQ *)operator new(_Count * sizeof (_Ty)));

  00000	8b 44 24 04	 mov	 eax, DWORD PTR __Count$[esp-4]
  00004	8d 04 40	 lea	 eax, DWORD PTR [eax+eax*2]
  00007	c1 e0 04	 shl	 eax, 4
  0000a	50		 push	 eax
  0000b	e8 00 00 00 00	 call	 ??2@YAPAXI@Z		; operator new
  00010	83 c4 04	 add	 esp, 4

; 35   : 	}

  00013	c3		 ret	 0
??$_Allocate@U_Node@?$_Tree_nod@V?$_Tmap_traits@V?$basic_string@DU?$char_traits@D@std@@V?$allocator@D@2@@std@@PAVCObject3D@@U?$less@V?$basic_string@DU?$char_traits@D@std@@V?$allocator@D@2@@std@@@2@V?$allocator@U?$pair@$$CBV?$basic_string@DU?$char_traits@D@std@@V?$allocator@D@2@@std@@PAVCObject3D@@@std@@@2@$0A@@std@@@std@@@std@@YAPAU_Node@?$_Tree_nod@V?$_Tmap_traits@V?$basic_string@DU?$char_traits@D@std@@V?$allocator@D@2@@std@@PAVCObject3D@@U?$less@V?$basic_string@DU?$char_traits@D@std@@V?$allocator@D@2@@std@@@2@V?$allocator@U?$pair@$$CBV?$basic_string@DU?$char_traits@D@std@@V?$allocator@D@2@@std@@PAVCObject3D@@@std@@@2@$0A@@std@@@0@IPAU120@@Z ENDP ; std::_Allocate<std::_Tree_nod<std::_Tmap_traits<std::basic_string<char,std::char_traits<char>,std::allocator<char> >,CObject3D *,std::less<std::basic_string<char,std::char_traits<char>,std::allocator<char> > >,std::allocator<std::pair<std::basic_string<char,std::char_traits<char>,std::allocator<char> > const ,CObject3D *> >,0> >::_Node>
_TEXT	ENDS
PUBLIC	??$?0U?$pair@$$CBV?$basic_string@DU?$char_traits@D@std@@V?$allocator@D@2@@std@@PAVCObject3D@@@std@@@?$allocator@U_Node@?$_Tree_nod@V?$_Tmap_traits@V?$basic_string@DU?$char_traits@D@std@@V?$allocator@D@2@@std@@PAVCObject3D@@U?$less@V?$basic_string@DU?$char_traits@D@std@@V?$allocator@D@2@@std@@@2@V?$allocator@U?$pair@$$CBV?$basic_string@DU?$char_traits@D@std@@V?$allocator@D@2@@std@@PAVCObject3D@@@std@@@2@$0A@@std@@@std@@@std@@QAE@ABV?$allocator@U?$pair@$$CBV?$basic_string@DU?$char_traits@D@std@@V?$allocator@D@2@@std@@PAVCObject3D@@@std@@@1@@Z ; std::allocator<std::_Tree_nod<std::_Tmap_traits<std::basic_string<char,std::char_traits<char>,std::allocator<char> >,CObject3D *,std::less<std::basic_string<char,std::char_traits<char>,std::allocator<char> > >,std::allocator<std::pair<std::basic_string<char,std::char_traits<char>,std::allocator<char> > const ,CObject3D *> >,0> >::_Node>::allocator<std::_Tree_nod<std::_Tmap_traits<std::basic_string<char,std::char_traits<char>,std::allocator<char> >,CObject3D *,std::less<std::basic_string<char,std::char_traits<char>,std::allocator<char> > >,std::allocator<std::pair<std::basic_string<char,std::char_traits<char>,std::allocator<char> > const ,CObject3D *> >,0> >::_Node><std::pair<std::basic_string<char,std::char_traits<char>,std::allocator<char> > const ,CObject3D *> >
; Function compile flags: /Ogty
;	COMDAT ??$?0U?$pair@$$CBV?$basic_string@DU?$char_traits@D@std@@V?$allocator@D@2@@std@@PAVCObject3D@@@std@@@?$allocator@U_Node@?$_Tree_nod@V?$_Tmap_traits@V?$basic_string@DU?$char_traits@D@std@@V?$allocator@D@2@@std@@PAVCObject3D@@U?$less@V?$basic_string@DU?$char_traits@D@std@@V?$allocator@D@2@@std@@@2@V?$allocator@U?$pair@$$CBV?$basic_string@DU?$char_traits@D@std@@V?$allocator@D@2@@std@@PAVCObject3D@@@std@@@2@$0A@@std@@@std@@@std@@QAE@ABV?$allocator@U?$pair@$$CBV?$basic_string@DU?$char_traits@D@std@@V?$allocator@D@2@@std@@PAVCObject3D@@@std@@@1@@Z
_TEXT	SEGMENT
___formal$ = 8						; size = 4
??$?0U?$pair@$$CBV?$basic_string@DU?$char_traits@D@std@@V?$allocator@D@2@@std@@PAVCObject3D@@@std@@@?$allocator@U_Node@?$_Tree_nod@V?$_Tmap_traits@V?$basic_string@DU?$char_traits@D@std@@V?$allocator@D@2@@std@@PAVCObject3D@@U?$less@V?$basic_string@DU?$char_traits@D@std@@V?$allocator@D@2@@std@@@2@V?$allocator@U?$pair@$$CBV?$basic_string@DU?$char_traits@D@std@@V?$allocator@D@2@@std@@PAVCObject3D@@@std@@@2@$0A@@std@@@std@@@std@@QAE@ABV?$allocator@U?$pair@$$CBV?$basic_string@DU?$char_traits@D@std@@V?$allocator@D@2@@std@@PAVCObject3D@@@std@@@1@@Z PROC NEAR ; std::allocator<std::_Tree_nod<std::_Tmap_traits<std::basic_string<char,std::char_traits<char>,std::allocator<char> >,CObject3D *,std::less<std::basic_string<char,std::char_traits<char>,std::allocator<char> > >,std::allocator<std::pair<std::basic_string<char,std::char_traits<char>,std::allocator<char> > const ,CObject3D *> >,0> >::_Node>::allocator<std::_Tree_nod<std::_Tmap_traits<std::basic_string<char,std::char_traits<char>,std::allocator<char> >,CObject3D *,std::less<std::basic_string<char,std::char_traits<char>,std::allocator<char> > >,std::allocator<std::pair<std::basic_string<char,std::char_traits<char>,std::allocator<char> > const ,CObject3D *> >,0> >::_Node><std::pair<std::basic_string<char,std::char_traits<char>,std::allocator<char> > const ,CObject3D *> >, COMDAT
; _this$ = ecx

; 120  : 		allocator(const allocator<_Other>&)

  00000	8b c1		 mov	 eax, ecx

; 121  : 		{	// construct from a related allocator (do nothing)
; 122  : 		}

  00002	c2 04 00	 ret	 4
??$?0U?$pair@$$CBV?$basic_string@DU?$char_traits@D@std@@V?$allocator@D@2@@std@@PAVCObject3D@@@std@@@?$allocator@U_Node@?$_Tree_nod@V?$_Tmap_traits@V?$basic_string@DU?$char_traits@D@std@@V?$allocator@D@2@@std@@PAVCObject3D@@U?$less@V?$basic_string@DU?$char_traits@D@std@@V?$allocator@D@2@@std@@@2@V?$allocator@U?$pair@$$CBV?$basic_string@DU?$char_traits@D@std@@V?$allocator@D@2@@std@@PAVCObject3D@@@std@@@2@$0A@@std@@@std@@@std@@QAE@ABV?$allocator@U?$pair@$$CBV?$basic_string@DU?$char_traits@D@std@@V?$allocator@D@2@@std@@PAVCObject3D@@@std@@@1@@Z ENDP ; std::allocator<std::_Tree_nod<std::_Tmap_traits<std::basic_string<char,std::char_traits<char>,std::allocator<char> >,CObject3D *,std::less<std::basic_string<char,std::char_traits<char>,std::allocator<char> > >,std::allocator<std::pair<std::basic_string<char,std::char_traits<char>,std::allocator<char> > const ,CObject3D *> >,0> >::_Node>::allocator<std::_Tree_nod<std::_Tmap_traits<std::basic_string<char,std::char_traits<char>,std::allocator<char> >,CObject3D *,std::less<std::basic_string<char,std::char_traits<char>,std::allocator<char> > >,std::allocator<std::pair<std::basic_string<char,std::char_traits<char>,std::allocator<char> > const ,CObject3D *> >,0> >::_Node><std::pair<std::basic_string<char,std::char_traits<char>,std::allocator<char> > const ,CObject3D *> >
_TEXT	ENDS
PUBLIC	??$_Construct@PAU_Node@?$_Tree_nod@V?$_Tmap_traits@V?$basic_string@DU?$char_traits@D@std@@V?$allocator@D@2@@std@@PAVCObject3D@@U?$less@V?$basic_string@DU?$char_traits@D@std@@V?$allocator@D@2@@std@@@2@V?$allocator@U?$pair@$$CBV?$basic_string@DU?$char_traits@D@std@@V?$allocator@D@2@@std@@PAVCObject3D@@@std@@@2@$0A@@std@@@std@@PAU123@@std@@YAXPAPAU_Node@?$_Tree_nod@V?$_Tmap_traits@V?$basic_string@DU?$char_traits@D@std@@V?$allocator@D@2@@std@@PAVCObject3D@@U?$less@V?$basic_string@DU?$char_traits@D@std@@V?$allocator@D@2@@std@@@2@V?$allocator@U?$pair@$$CBV?$basic_string@DU?$char_traits@D@std@@V?$allocator@D@2@@std@@PAVCObject3D@@@std@@@2@$0A@@std@@@0@ABQAU120@@Z ; std::_Construct<std::_Tree_nod<std::_Tmap_traits<std::basic_string<char,std::char_traits<char>,std::allocator<char> >,CObject3D *,std::less<std::basic_string<char,std::char_traits<char>,std::allocator<char> > >,std::allocator<std::pair<std::basic_string<char,std::char_traits<char>,std::allocator<char> > const ,CObject3D *> >,0> >::_Node *,std::_Tree_nod<std::_Tmap_traits<std::basic_string<char,std::char_traits<char>,std::allocator<char> >,CObject3D *,std::less<std::basic_string<char,std::char_traits<char>,std::allocator<char> > >,std::allocator<std::pair<std::basic_string<char,std::char_traits<char>,std::allocator<char> > const ,CObject3D *> >,0> >::_Node *>
; Function compile flags: /Ogty
;	COMDAT ??$_Construct@PAU_Node@?$_Tree_nod@V?$_Tmap_traits@V?$basic_string@DU?$char_traits@D@std@@V?$allocator@D@2@@std@@PAVCObject3D@@U?$less@V?$basic_string@DU?$char_traits@D@std@@V?$allocator@D@2@@std@@@2@V?$allocator@U?$pair@$$CBV?$basic_string@DU?$char_traits@D@std@@V?$allocator@D@2@@std@@PAVCObject3D@@@std@@@2@$0A@@std@@@std@@PAU123@@std@@YAXPAPAU_Node@?$_Tree_nod@V?$_Tmap_traits@V?$basic_string@DU?$char_traits@D@std@@V?$allocator@D@2@@std@@PAVCObject3D@@U?$less@V?$basic_string@DU?$char_traits@D@std@@V?$allocator@D@2@@std@@@2@V?$allocator@U?$pair@$$CBV?$basic_string@DU?$char_traits@D@std@@V?$allocator@D@2@@std@@PAVCObject3D@@@std@@@2@$0A@@std@@@0@ABQAU120@@Z
_TEXT	SEGMENT
__Ptr$ = 8						; size = 4
__Val$ = 12						; size = 4
??$_Construct@PAU_Node@?$_Tree_nod@V?$_Tmap_traits@V?$basic_string@DU?$char_traits@D@std@@V?$allocator@D@2@@std@@PAVCObject3D@@U?$less@V?$basic_string@DU?$char_traits@D@std@@V?$allocator@D@2@@std@@@2@V?$allocator@U?$pair@$$CBV?$basic_string@DU?$char_traits@D@std@@V?$allocator@D@2@@std@@PAVCObject3D@@@std@@@2@$0A@@std@@@std@@PAU123@@std@@YAXPAPAU_Node@?$_Tree_nod@V?$_Tmap_traits@V?$basic_string@DU?$char_traits@D@std@@V?$allocator@D@2@@std@@PAVCObject3D@@U?$less@V?$basic_string@DU?$char_traits@D@std@@V?$allocator@D@2@@std@@@2@V?$allocator@U?$pair@$$CBV?$basic_string@DU?$char_traits@D@std@@V?$allocator@D@2@@std@@PAVCObject3D@@@std@@@2@$0A@@std@@@0@ABQAU120@@Z PROC NEAR ; std::_Construct<std::_Tree_nod<std::_Tmap_traits<std::basic_string<char,std::char_traits<char>,std::allocator<char> >,CObject3D *,std::less<std::basic_string<char,std::char_traits<char>,std::allocator<char> > >,std::allocator<std::pair<std::basic_string<char,std::char_traits<char>,std::allocator<char> > const ,CObject3D *> >,0> >::_Node *,std::_Tree_nod<std::_Tmap_traits<std::basic_string<char,std::char_traits<char>,std::allocator<char> >,CObject3D *,std::less<std::basic_string<char,std::char_traits<char>,std::allocator<char> > >,std::allocator<std::pair<std::basic_string<char,std::char_traits<char>,std::allocator<char> > const ,CObject3D *> >,0> >::_Node *>, COMDAT

; 42   : 	new ((void _FARQ *)_Ptr) _T1(_Val);

  00000	8b 44 24 04	 mov	 eax, DWORD PTR __Ptr$[esp-4]
  00004	85 c0		 test	 eax, eax
  00006	74 08		 je	 SHORT $L229022
  00008	8b 4c 24 08	 mov	 ecx, DWORD PTR __Val$[esp-4]
  0000c	8b 11		 mov	 edx, DWORD PTR [ecx]
  0000e	89 10		 mov	 DWORD PTR [eax], edx
$L229022:

; 43   : 	}

  00010	c3		 ret	 0
??$_Construct@PAU_Node@?$_Tree_nod@V?$_Tmap_traits@V?$basic_string@DU?$char_traits@D@std@@V?$allocator@D@2@@std@@PAVCObject3D@@U?$less@V?$basic_string@DU?$char_traits@D@std@@V?$allocator@D@2@@std@@@2@V?$allocator@U?$pair@$$CBV?$basic_string@DU?$char_traits@D@std@@V?$allocator@D@2@@std@@PAVCObject3D@@@std@@@2@$0A@@std@@@std@@PAU123@@std@@YAXPAPAU_Node@?$_Tree_nod@V?$_Tmap_traits@V?$basic_string@DU?$char_traits@D@std@@V?$allocator@D@2@@std@@PAVCObject3D@@U?$less@V?$basic_string@DU?$char_traits@D@std@@V?$allocator@D@2@@std@@@2@V?$allocator@U?$pair@$$CBV?$basic_string@DU?$char_traits@D@std@@V?$allocator@D@2@@std@@PAVCObject3D@@@std@@@2@$0A@@std@@@0@ABQAU120@@Z ENDP ; std::_Construct<std::_Tree_nod<std::_Tmap_traits<std::basic_string<char,std::char_traits<char>,std::allocator<char> >,CObject3D *,std::less<std::basic_string<char,std::char_traits<char>,std::allocator<char> > >,std::allocator<std::pair<std::basic_string<char,std::char_traits<char>,std::allocator<char> > const ,CObject3D *> >,0> >::_Node *,std::_Tree_nod<std::_Tmap_traits<std::basic_string<char,std::char_traits<char>,std::allocator<char> >,CObject3D *,std::less<std::basic_string<char,std::char_traits<char>,std::allocator<char> > >,std::allocator<std::pair<std::basic_string<char,std::char_traits<char>,std::allocator<char> > const ,CObject3D *> >,0> >::_Node *>
_TEXT	ENDS
PUBLIC	??$_Iter_cat@Viterator@?$_Tree@V?$_Tmap_traits@V?$basic_string@DU?$char_traits@D@std@@V?$allocator@D@2@@std@@PAVCObject3D@@U?$less@V?$basic_string@DU?$char_traits@D@std@@V?$allocator@D@2@@std@@@2@V?$allocator@U?$pair@$$CBV?$basic_string@DU?$char_traits@D@std@@V?$allocator@D@2@@std@@PAVCObject3D@@@std@@@2@$0A@@std@@@std@@@std@@YA?AUbidirectional_iterator_tag@0@ABViterator@?$_Tree@V?$_Tmap_traits@V?$basic_string@DU?$char_traits@D@std@@V?$allocator@D@2@@std@@PAVCObject3D@@U?$less@V?$basic_string@DU?$char_traits@D@std@@V?$allocator@D@2@@std@@@2@V?$allocator@U?$pair@$$CBV?$basic_string@DU?$char_traits@D@std@@V?$allocator@D@2@@std@@PAVCObject3D@@@std@@@2@$0A@@std@@@0@@Z ; std::_Iter_cat<std::_Tree<std::_Tmap_traits<std::basic_string<char,std::char_traits<char>,std::allocator<char> >,CObject3D *,std::less<std::basic_string<char,std::char_traits<char>,std::allocator<char> > >,std::allocator<std::pair<std::basic_string<char,std::char_traits<char>,std::allocator<char> > const ,CObject3D *> >,0> >::iterator>
; Function compile flags: /Ogty
; File c:\program files\microsoft visual studio .net 2003\vc7\include\xutility
;	COMDAT ??$_Iter_cat@Viterator@?$_Tree@V?$_Tmap_traits@V?$basic_string@DU?$char_traits@D@std@@V?$allocator@D@2@@std@@PAVCObject3D@@U?$less@V?$basic_string@DU?$char_traits@D@std@@V?$allocator@D@2@@std@@@2@V?$allocator@U?$pair@$$CBV?$basic_string@DU?$char_traits@D@std@@V?$allocator@D@2@@std@@PAVCObject3D@@@std@@@2@$0A@@std@@@std@@@std@@YA?AUbidirectional_iterator_tag@0@ABViterator@?$_Tree@V?$_Tmap_traits@V?$basic_string@DU?$char_traits@D@std@@V?$allocator@D@2@@std@@PAVCObject3D@@U?$less@V?$basic_string@DU?$char_traits@D@std@@V?$allocator@D@2@@std@@@2@V?$allocator@U?$pair@$$CBV?$basic_string@DU?$char_traits@D@std@@V?$allocator@D@2@@std@@PAVCObject3D@@@std@@@2@$0A@@std@@@0@@Z
_TEXT	SEGMENT
___$ReturnUdt$ = 8					; size = 4
___formal$ = 12						; size = 4
??$_Iter_cat@Viterator@?$_Tree@V?$_Tmap_traits@V?$basic_string@DU?$char_traits@D@std@@V?$allocator@D@2@@std@@PAVCObject3D@@U?$less@V?$basic_string@DU?$char_traits@D@std@@V?$allocator@D@2@@std@@@2@V?$allocator@U?$pair@$$CBV?$basic_string@DU?$char_traits@D@std@@V?$allocator@D@2@@std@@PAVCObject3D@@@std@@@2@$0A@@std@@@std@@@std@@YA?AUbidirectional_iterator_tag@0@ABViterator@?$_Tree@V?$_Tmap_traits@V?$basic_string@DU?$char_traits@D@std@@V?$allocator@D@2@@std@@PAVCObject3D@@U?$less@V?$basic_string@DU?$char_traits@D@std@@V?$allocator@D@2@@std@@@2@V?$allocator@U?$pair@$$CBV?$basic_string@DU?$char_traits@D@std@@V?$allocator@D@2@@std@@PAVCObject3D@@@std@@@2@$0A@@std@@@0@@Z PROC NEAR ; std::_Iter_cat<std::_Tree<std::_Tmap_traits<std::basic_string<char,std::char_traits<char>,std::allocator<char> >,CObject3D *,std::less<std::basic_string<char,std::char_traits<char>,std::allocator<char> > >,std::allocator<std::pair<std::basic_string<char,std::char_traits<char>,std::allocator<char> > const ,CObject3D *> >,0> >::iterator>, COMDAT

; 202  : 	typename iterator_traits<_Iter>::iterator_category _Cat;
; 203  : 	return (_Cat);

  00000	8b 44 24 04	 mov	 eax, DWORD PTR ___$ReturnUdt$[esp-4]

; 204  : 	}

  00004	c3		 ret	 0
??$_Iter_cat@Viterator@?$_Tree@V?$_Tmap_traits@V?$basic_string@DU?$char_traits@D@std@@V?$allocator@D@2@@std@@PAVCObject3D@@U?$less@V?$basic_string@DU?$char_traits@D@std@@V?$allocator@D@2@@std@@@2@V?$allocator@U?$pair@$$CBV?$basic_string@DU?$char_traits@D@std@@V?$allocator@D@2@@std@@PAVCObject3D@@@std@@@2@$0A@@std@@@std@@@std@@YA?AUbidirectional_iterator_tag@0@ABViterator@?$_Tree@V?$_Tmap_traits@V?$basic_string@DU?$char_traits@D@std@@V?$allocator@D@2@@std@@PAVCObject3D@@U?$less@V?$basic_string@DU?$char_traits@D@std@@V?$allocator@D@2@@std@@@2@V?$allocator@U?$pair@$$CBV?$basic_string@DU?$char_traits@D@std@@V?$allocator@D@2@@std@@PAVCObject3D@@@std@@@2@$0A@@std@@@0@@Z ENDP ; std::_Iter_cat<std::_Tree<std::_Tmap_traits<std::basic_string<char,std::char_traits<char>,std::allocator<char> >,CObject3D *,std::less<std::basic_string<char,std::char_traits<char>,std::allocator<char> > >,std::allocator<std::pair<std::basic_string<char,std::char_traits<char>,std::allocator<char> > const ,CObject3D *> >,0> >::iterator>
_TEXT	ENDS
PUBLIC	?assign@?$char_traits@D@std@@SAXAADABD@Z	; std::char_traits<char>::assign
; Function compile flags: /Ogty
; File c:\program files\microsoft visual studio .net 2003\vc7\include\iosfwd
;	COMDAT ?assign@?$char_traits@D@std@@SAXAADABD@Z
_TEXT	SEGMENT
__Left$ = 8						; size = 4
__Right$ = 12						; size = 4
?assign@?$char_traits@D@std@@SAXAADABD@Z PROC NEAR	; std::char_traits<char>::assign, COMDAT

; 331  : 		_Left = _Right;

  00000	8b 44 24 08	 mov	 eax, DWORD PTR __Right$[esp-4]
  00004	8a 08		 mov	 cl, BYTE PTR [eax]
  00006	8b 54 24 04	 mov	 edx, DWORD PTR __Left$[esp-4]
  0000a	88 0a		 mov	 BYTE PTR [edx], cl

; 332  : 		}

  0000c	c3		 ret	 0
?assign@?$char_traits@D@std@@SAXAADABD@Z ENDP		; std::char_traits<char>::assign
_TEXT	ENDS
PUBLIC	?compare@?$char_traits@D@std@@SAHPBD0I@Z	; std::char_traits<char>::compare
; Function compile flags: /Ogty
;	COMDAT ?compare@?$char_traits@D@std@@SAHPBD0I@Z
_TEXT	SEGMENT
__First1$ = 8						; size = 4
__First2$ = 12						; size = 4
__Count$ = 16						; size = 4
?compare@?$char_traits@D@std@@SAHPBD0I@Z PROC NEAR	; std::char_traits<char>::compare, COMDAT

; 347  : 		return (::memcmp(_First1, _First2, _Count));

  00000	8b 4c 24 0c	 mov	 ecx, DWORD PTR __Count$[esp-4]
  00004	56		 push	 esi
  00005	8b 74 24 08	 mov	 esi, DWORD PTR __First1$[esp]
  00009	57		 push	 edi
  0000a	8b 7c 24 10	 mov	 edi, DWORD PTR __First2$[esp+4]
  0000e	33 c0		 xor	 eax, eax
  00010	f3 a6		 repe cmpsb
  00012	5f		 pop	 edi
  00013	5e		 pop	 esi
  00014	74 05		 je	 SHORT $L229036
  00016	1b c0		 sbb	 eax, eax
  00018	83 d8 ff	 sbb	 eax, -1
$L229036:

; 348  : 		}

  0001b	c3		 ret	 0
?compare@?$char_traits@D@std@@SAHPBD0I@Z ENDP		; std::char_traits<char>::compare
_TEXT	ENDS
PUBLIC	?length@?$char_traits@D@std@@SAIPBD@Z		; std::char_traits<char>::length
; Function compile flags: /Ogty
;	COMDAT ?length@?$char_traits@D@std@@SAIPBD@Z
_TEXT	SEGMENT
__First$ = 8						; size = 4
?length@?$char_traits@D@std@@SAIPBD@Z PROC NEAR		; std::char_traits<char>::length, COMDAT

; 352  : 		return (::strlen(_First));

  00000	8b 44 24 04	 mov	 eax, DWORD PTR __First$[esp-4]
  00004	8d 50 01	 lea	 edx, DWORD PTR [eax+1]
$L229041:
  00007	8a 08		 mov	 cl, BYTE PTR [eax]
  00009	40		 inc	 eax
  0000a	84 c9		 test	 cl, cl
  0000c	75 f9		 jne	 SHORT $L229041
  0000e	2b c2		 sub	 eax, edx

; 353  : 		}

  00010	c3		 ret	 0
?length@?$char_traits@D@std@@SAIPBD@Z ENDP		; std::char_traits<char>::length
_TEXT	ENDS
PUBLIC	?copy@?$char_traits@D@std@@SAPADPADPBDI@Z	; std::char_traits<char>::copy
; Function compile flags: /Ogty
;	COMDAT ?copy@?$char_traits@D@std@@SAPADPADPBDI@Z
_TEXT	SEGMENT
__First1$ = 8						; size = 4
__First2$ = 12						; size = 4
__Count$ = 16						; size = 4
?copy@?$char_traits@D@std@@SAPADPADPBDI@Z PROC NEAR	; std::char_traits<char>::copy, COMDAT

; 358  : 		return ((_Elem *)::memcpy(_First1, _First2, _Count));

  00000	8b 4c 24 0c	 mov	 ecx, DWORD PTR __Count$[esp-4]
  00004	56		 push	 esi
  00005	8b 74 24 0c	 mov	 esi, DWORD PTR __First2$[esp]
  00009	57		 push	 edi
  0000a	8b 7c 24 0c	 mov	 edi, DWORD PTR __First1$[esp+4]
  0000e	8b c1		 mov	 eax, ecx
  00010	8b d7		 mov	 edx, edi
  00012	c1 e9 02	 shr	 ecx, 2
  00015	f3 a5		 rep movsd
  00017	8b c8		 mov	 ecx, eax
  00019	83 e1 03	 and	 ecx, 3
  0001c	f3 a4		 rep movsb
  0001e	5f		 pop	 edi
  0001f	8b c2		 mov	 eax, edx
  00021	5e		 pop	 esi

; 359  : 		}

  00022	c3		 ret	 0
?copy@?$char_traits@D@std@@SAPADPADPBDI@Z ENDP		; std::char_traits<char>::copy
_TEXT	ENDS
PUBLIC	?move@?$char_traits@D@std@@SAPADPADPBDI@Z	; std::char_traits<char>::move
EXTRN	_memmove:NEAR
; Function compile flags: /Ogty
;	COMDAT ?move@?$char_traits@D@std@@SAPADPADPBDI@Z
_TEXT	SEGMENT
__First1$ = 8						; size = 4
__First2$ = 12						; size = 4
__Count$ = 16						; size = 4
?move@?$char_traits@D@std@@SAPADPADPBDI@Z PROC NEAR	; std::char_traits<char>::move, COMDAT

; 370  : 		return ((_Elem *)::memmove(_First1, _First2, _Count));

  00000	e9 00 00 00 00	 jmp	 _memmove
?move@?$char_traits@D@std@@SAPADPADPBDI@Z ENDP		; std::char_traits<char>::move
_TEXT	ENDS
PUBLIC	_fabsf
; Function compile flags: /Ogty
; File c:\program files\microsoft visual studio .net 2003\vc7\include\math.h
;	COMDAT _fabsf
_TEXT	SEGMENT
__X$ = 8						; size = 4
_fabsf	PROC NEAR					; COMDAT

; 450  :         {return ((float)fabs((double)_X)); }

  00000	d9 44 24 04	 fld	 DWORD PTR __X$[esp-4]
  00004	d9 e1		 fabs
  00006	c3		 ret	 0
_fabsf	ENDP
_TEXT	ENDS
PUBLIC	_sqrtf
; Function compile flags: /Ogty
;	COMDAT _sqrtf
_TEXT	SEGMENT
__X$ = 8						; size = 4
_sqrtf	PROC NEAR					; COMDAT

; 470  :         {return ((float)sqrt((double)_X)); }

  00000	d9 44 24 04	 fld	 DWORD PTR __X$[esp-4]
  00004	d9 fa		 fsqrt
  00006	c3		 ret	 0
_sqrtf	ENDP
_TEXT	ENDS
PUBLIC	?fabs@@YAMM@Z					; fabs
; Function compile flags: /Ogty
;	COMDAT ?fabs@@YAMM@Z
_TEXT	SEGMENT
__X$ = 8						; size = 4
?fabs@@YAMM@Z PROC NEAR					; fabs, COMDAT

; 555  :         {return (fabsf(_X)); }

  00000	d9 44 24 04	 fld	 DWORD PTR __X$[esp-4]
  00004	d9 e1		 fabs
  00006	c3		 ret	 0
?fabs@@YAMM@Z ENDP					; fabs
_TEXT	ENDS
PUBLIC	??0D3DXVECTOR3@@QAE@XZ				; D3DXVECTOR3::D3DXVECTOR3
; Function compile flags: /Ogty
; File c:\documents and settings\test\mes documents\source\virtuos_v17\build\program\dx_sdk\d3dx9math.h
;	COMDAT ??0D3DXVECTOR3@@QAE@XZ
_TEXT	SEGMENT
??0D3DXVECTOR3@@QAE@XZ PROC NEAR			; D3DXVECTOR3::D3DXVECTOR3, COMDAT
; _this$ = ecx

; 165  :     D3DXVECTOR3() {};

  00000	8b c1		 mov	 eax, ecx
  00002	c3		 ret	 0
??0D3DXVECTOR3@@QAE@XZ ENDP				; D3DXVECTOR3::D3DXVECTOR3
_TEXT	ENDS
PUBLIC	??0D3DXMATRIX@@QAE@XZ				; D3DXMATRIX::D3DXMATRIX
; Function compile flags: /Ogty
;	COMDAT ??0D3DXMATRIX@@QAE@XZ
_TEXT	SEGMENT
??0D3DXMATRIX@@QAE@XZ PROC NEAR				; D3DXMATRIX::D3DXMATRIX, COMDAT
; _this$ = ecx

; 313  :     D3DXMATRIX() {};

  00000	8b c1		 mov	 eax, ecx
  00002	c3		 ret	 0
??0D3DXMATRIX@@QAE@XZ ENDP				; D3DXMATRIX::D3DXMATRIX
_TEXT	ENDS
PUBLIC	??0D3DXQUATERNION@@QAE@XZ			; D3DXQUATERNION::D3DXQUATERNION
; Function compile flags: /Ogty
;	COMDAT ??0D3DXQUATERNION@@QAE@XZ
_TEXT	SEGMENT
??0D3DXQUATERNION@@QAE@XZ PROC NEAR			; D3DXQUATERNION::D3DXQUATERNION, COMDAT
; _this$ = ecx

; 427  :     D3DXQUATERNION() {}

  00000	8b c1		 mov	 eax, ecx
  00002	c3		 ret	 0
??0D3DXQUATERNION@@QAE@XZ ENDP				; D3DXQUATERNION::D3DXQUATERNION
_TEXT	ENDS
PUBLIC	??0D3DXVECTOR3@@QAE@MMM@Z			; D3DXVECTOR3::D3DXVECTOR3
; Function compile flags: /Ogty
; File c:\documents and settings\test\mes documents\source\virtuos_v17\build\program\dx_sdk\d3dx9math.inl
;	COMDAT ??0D3DXVECTOR3@@QAE@MMM@Z
_TEXT	SEGMENT
_fx$ = 8						; size = 4
_fy$ = 12						; size = 4
_fz$ = 16						; size = 4
??0D3DXVECTOR3@@QAE@MMM@Z PROC NEAR			; D3DXVECTOR3::D3DXVECTOR3, COMDAT
; _this$ = ecx

; 300  :     x = fx;
; 301  :     y = fy;

  00000	8b 54 24 08	 mov	 edx, DWORD PTR _fy$[esp-4]
  00004	8b c1		 mov	 eax, ecx
  00006	8b 4c 24 04	 mov	 ecx, DWORD PTR _fx$[esp-4]
  0000a	89 08		 mov	 DWORD PTR [eax], ecx

; 302  :     z = fz;

  0000c	8b 4c 24 0c	 mov	 ecx, DWORD PTR _fz$[esp-4]
  00010	89 50 04	 mov	 DWORD PTR [eax+4], edx
  00013	89 48 08	 mov	 DWORD PTR [eax+8], ecx

; 303  : }

  00016	c2 0c 00	 ret	 12			; 0000000cH
??0D3DXVECTOR3@@QAE@MMM@Z ENDP				; D3DXVECTOR3::D3DXVECTOR3
_TEXT	ENDS
PUBLIC	??YD3DXVECTOR3@@QAEAAU0@ABU0@@Z			; D3DXVECTOR3::operator+=
; Function compile flags: /Ogty
;	COMDAT ??YD3DXVECTOR3@@QAEAAU0@ABU0@@Z
_TEXT	SEGMENT
_v$ = 8							; size = 4
??YD3DXVECTOR3@@QAEAAU0@ABU0@@Z PROC NEAR		; D3DXVECTOR3::operator+=, COMDAT
; _this$ = ecx

; 323  : {

  00000	8b c1		 mov	 eax, ecx

; 324  :     x += v.x;

  00002	8b 4c 24 04	 mov	 ecx, DWORD PTR _v$[esp-4]
  00006	d9 01		 fld	 DWORD PTR [ecx]
  00008	d8 00		 fadd	 DWORD PTR [eax]
  0000a	d9 18		 fstp	 DWORD PTR [eax]

; 325  :     y += v.y;

  0000c	d9 41 04	 fld	 DWORD PTR [ecx+4]
  0000f	d8 40 04	 fadd	 DWORD PTR [eax+4]
  00012	d9 58 04	 fstp	 DWORD PTR [eax+4]

; 326  :     z += v.z;

  00015	d9 41 08	 fld	 DWORD PTR [ecx+8]
  00018	d8 40 08	 fadd	 DWORD PTR [eax+8]
  0001b	d9 58 08	 fstp	 DWORD PTR [eax+8]

; 327  :     return *this;
; 328  : }

  0001e	c2 04 00	 ret	 4
??YD3DXVECTOR3@@QAEAAU0@ABU0@@Z ENDP			; D3DXVECTOR3::operator+=
_TEXT	ENDS
PUBLIC	??XD3DXVECTOR3@@QAEAAU0@M@Z			; D3DXVECTOR3::operator*=
; Function compile flags: /Ogty
;	COMDAT ??XD3DXVECTOR3@@QAEAAU0@M@Z
_TEXT	SEGMENT
_f$ = 8							; size = 4
??XD3DXVECTOR3@@QAEAAU0@M@Z PROC NEAR			; D3DXVECTOR3::operator*=, COMDAT
; _this$ = ecx

; 342  :     x *= f;

  00000	d9 44 24 04	 fld	 DWORD PTR _f$[esp-4]
  00004	8b c1		 mov	 eax, ecx
  00006	d8 08		 fmul	 DWORD PTR [eax]
  00008	d9 18		 fstp	 DWORD PTR [eax]

; 343  :     y *= f;

  0000a	d9 44 24 04	 fld	 DWORD PTR _f$[esp-4]
  0000e	d8 48 04	 fmul	 DWORD PTR [eax+4]
  00011	d9 58 04	 fstp	 DWORD PTR [eax+4]

; 344  :     z *= f;

  00014	d9 44 24 04	 fld	 DWORD PTR _f$[esp-4]
  00018	d8 48 08	 fmul	 DWORD PTR [eax+8]
  0001b	d9 58 08	 fstp	 DWORD PTR [eax+8]

; 345  :     return *this;
; 346  : }

  0001e	c2 04 00	 ret	 4
??XD3DXVECTOR3@@QAEAAU0@M@Z ENDP			; D3DXVECTOR3::operator*=
_TEXT	ENDS
PUBLIC	??HD3DXVECTOR3@@QBE?AU0@ABU0@@Z			; D3DXVECTOR3::operator+
; Function compile flags: /Ogty
;	COMDAT ??HD3DXVECTOR3@@QBE?AU0@ABU0@@Z
_TEXT	SEGMENT
___$ReturnUdt$ = 8					; size = 4
_v$ = 12						; size = 4
??HD3DXVECTOR3@@QBE?AU0@ABU0@@Z PROC NEAR		; D3DXVECTOR3::operator+, COMDAT
; _this$ = ecx

; 377  :     return D3DXVECTOR3(x + v.x, y + v.y, z + v.z);

  00000	8b 44 24 08	 mov	 eax, DWORD PTR _v$[esp-4]
  00004	d9 40 08	 fld	 DWORD PTR [eax+8]
  00007	d8 41 08	 fadd	 DWORD PTR [ecx+8]
  0000a	d9 40 04	 fld	 DWORD PTR [eax+4]
  0000d	d8 41 04	 fadd	 DWORD PTR [ecx+4]
  00010	d9 00		 fld	 DWORD PTR [eax]
  00012	8b 44 24 04	 mov	 eax, DWORD PTR ___$ReturnUdt$[esp-4]
  00016	d8 01		 fadd	 DWORD PTR [ecx]
  00018	d9 18		 fstp	 DWORD PTR [eax]
  0001a	d9 58 04	 fstp	 DWORD PTR [eax+4]
  0001d	d9 58 08	 fstp	 DWORD PTR [eax+8]

; 378  : }

  00020	c2 08 00	 ret	 8
??HD3DXVECTOR3@@QBE?AU0@ABU0@@Z ENDP			; D3DXVECTOR3::operator+
_TEXT	ENDS
PUBLIC	??GD3DXVECTOR3@@QBE?AU0@ABU0@@Z			; D3DXVECTOR3::operator-
; Function compile flags: /Ogty
;	COMDAT ??GD3DXVECTOR3@@QBE?AU0@ABU0@@Z
_TEXT	SEGMENT
___$ReturnUdt$ = 8					; size = 4
_v$ = 12						; size = 4
??GD3DXVECTOR3@@QBE?AU0@ABU0@@Z PROC NEAR		; D3DXVECTOR3::operator-, COMDAT
; _this$ = ecx

; 383  :     return D3DXVECTOR3(x - v.x, y - v.y, z - v.z);

  00000	d9 41 08	 fld	 DWORD PTR [ecx+8]
  00003	8b 44 24 08	 mov	 eax, DWORD PTR _v$[esp-4]
  00007	d8 60 08	 fsub	 DWORD PTR [eax+8]
  0000a	d9 41 04	 fld	 DWORD PTR [ecx+4]
  0000d	d8 60 04	 fsub	 DWORD PTR [eax+4]
  00010	d9 01		 fld	 DWORD PTR [ecx]
  00012	d8 20		 fsub	 DWORD PTR [eax]
  00014	8b 44 24 04	 mov	 eax, DWORD PTR ___$ReturnUdt$[esp-4]
  00018	d9 18		 fstp	 DWORD PTR [eax]
  0001a	d9 58 04	 fstp	 DWORD PTR [eax+4]
  0001d	d9 58 08	 fstp	 DWORD PTR [eax+8]

; 384  : }

  00020	c2 08 00	 ret	 8
??GD3DXVECTOR3@@QBE?AU0@ABU0@@Z ENDP			; D3DXVECTOR3::operator-
_TEXT	ENDS
PUBLIC	??D@YA?AUD3DXVECTOR3@@MABU0@@Z			; operator*
; Function compile flags: /Ogty
;	COMDAT ??D@YA?AUD3DXVECTOR3@@MABU0@@Z
_TEXT	SEGMENT
___$ReturnUdt$ = 8					; size = 4
_f$ = 12						; size = 4
_v$ = 16						; size = 4
??D@YA?AUD3DXVECTOR3@@MABU0@@Z PROC NEAR		; operator*, COMDAT

; 403  :     return D3DXVECTOR3(f * v.x, f * v.y, f * v.z);

  00000	8b 44 24 0c	 mov	 eax, DWORD PTR _v$[esp-4]
  00004	d9 44 24 08	 fld	 DWORD PTR _f$[esp-4]
  00008	d8 48 08	 fmul	 DWORD PTR [eax+8]
  0000b	d9 44 24 08	 fld	 DWORD PTR _f$[esp-4]
  0000f	d8 48 04	 fmul	 DWORD PTR [eax+4]
  00012	d9 44 24 08	 fld	 DWORD PTR _f$[esp-4]
  00016	d8 08		 fmul	 DWORD PTR [eax]
  00018	8b 44 24 04	 mov	 eax, DWORD PTR ___$ReturnUdt$[esp-4]
  0001c	d9 18		 fstp	 DWORD PTR [eax]
  0001e	d9 58 04	 fstp	 DWORD PTR [eax+4]
  00021	d9 58 08	 fstp	 DWORD PTR [eax+8]

; 404  : }

  00024	c3		 ret	 0
??D@YA?AUD3DXVECTOR3@@MABU0@@Z ENDP			; operator*
_TEXT	ENDS
PUBLIC	??0D3DXMATRIX@@QAE@MMMMMMMMMMMMMMMM@Z		; D3DXMATRIX::D3DXMATRIX
; Function compile flags: /Ogty
;	COMDAT ??0D3DXMATRIX@@QAE@MMMMMMMMMMMMMMMM@Z
_TEXT	SEGMENT
_f11$ = 8						; size = 4
_f12$ = 12						; size = 4
_f13$ = 16						; size = 4
_f14$ = 20						; size = 4
_f21$ = 24						; size = 4
_f22$ = 28						; size = 4
_f23$ = 32						; size = 4
_f24$ = 36						; size = 4
_f31$ = 40						; size = 4
_f32$ = 44						; size = 4
_f33$ = 48						; size = 4
_f34$ = 52						; size = 4
_f41$ = 56						; size = 4
_f42$ = 60						; size = 4
_f43$ = 64						; size = 4
_f44$ = 68						; size = 4
??0D3DXMATRIX@@QAE@MMMMMMMMMMMMMMMM@Z PROC NEAR		; D3DXMATRIX::D3DXMATRIX, COMDAT
; _this$ = ecx

; 752  :     _11 = f11; _12 = f12; _13 = f13; _14 = f14;

  00000	8b 54 24 08	 mov	 edx, DWORD PTR _f12$[esp-4]
  00004	8b c1		 mov	 eax, ecx
  00006	8b 4c 24 04	 mov	 ecx, DWORD PTR _f11$[esp-4]
  0000a	89 08		 mov	 DWORD PTR [eax], ecx
  0000c	8b 4c 24 0c	 mov	 ecx, DWORD PTR _f13$[esp-4]
  00010	89 50 04	 mov	 DWORD PTR [eax+4], edx
  00013	8b 54 24 10	 mov	 edx, DWORD PTR _f14$[esp-4]
  00017	89 48 08	 mov	 DWORD PTR [eax+8], ecx

; 753  :     _21 = f21; _22 = f22; _23 = f23; _24 = f24;

  0001a	8b 4c 24 14	 mov	 ecx, DWORD PTR _f21$[esp-4]
  0001e	89 50 0c	 mov	 DWORD PTR [eax+12], edx
  00021	8b 54 24 18	 mov	 edx, DWORD PTR _f22$[esp-4]
  00025	89 48 10	 mov	 DWORD PTR [eax+16], ecx
  00028	8b 4c 24 1c	 mov	 ecx, DWORD PTR _f23$[esp-4]
  0002c	89 50 14	 mov	 DWORD PTR [eax+20], edx
  0002f	8b 54 24 20	 mov	 edx, DWORD PTR _f24$[esp-4]
  00033	89 48 18	 mov	 DWORD PTR [eax+24], ecx

; 754  :     _31 = f31; _32 = f32; _33 = f33; _34 = f34;

  00036	8b 4c 24 24	 mov	 ecx, DWORD PTR _f31$[esp-4]
  0003a	89 50 1c	 mov	 DWORD PTR [eax+28], edx
  0003d	8b 54 24 28	 mov	 edx, DWORD PTR _f32$[esp-4]
  00041	89 48 20	 mov	 DWORD PTR [eax+32], ecx
  00044	8b 4c 24 2c	 mov	 ecx, DWORD PTR _f33$[esp-4]
  00048	89 50 24	 mov	 DWORD PTR [eax+36], edx
  0004b	8b 54 24 30	 mov	 edx, DWORD PTR _f34$[esp-4]
  0004f	89 48 28	 mov	 DWORD PTR [eax+40], ecx

; 755  :     _41 = f41; _42 = f42; _43 = f43; _44 = f44;

  00052	8b 4c 24 34	 mov	 ecx, DWORD PTR _f41$[esp-4]
  00056	89 50 2c	 mov	 DWORD PTR [eax+44], edx
  00059	8b 54 24 38	 mov	 edx, DWORD PTR _f42$[esp-4]
  0005d	89 48 30	 mov	 DWORD PTR [eax+48], ecx
  00060	8b 4c 24 3c	 mov	 ecx, DWORD PTR _f43$[esp-4]
  00064	89 50 34	 mov	 DWORD PTR [eax+52], edx
  00067	8b 54 24 40	 mov	 edx, DWORD PTR _f44$[esp-4]
  0006b	89 48 38	 mov	 DWORD PTR [eax+56], ecx
  0006e	89 50 3c	 mov	 DWORD PTR [eax+60], edx

; 756  : }

  00071	c2 40 00	 ret	 64			; 00000040H
??0D3DXMATRIX@@QAE@MMMMMMMMMMMMMMMM@Z ENDP		; D3DXMATRIX::D3DXMATRIX
_TEXT	ENDS
PUBLIC	??DD3DXMATRIX@@QBE?AU0@ABU0@@Z			; D3DXMATRIX::operator*
EXTRN	_D3DXMatrixMultiply@12:NEAR
; Function compile flags: /Ogty
;	COMDAT ??DD3DXMATRIX@@QBE?AU0@ABU0@@Z
_TEXT	SEGMENT
_matT$ = -64						; size = 64
___$ReturnUdt$ = 8					; size = 4
_mat$ = 12						; size = 4
??DD3DXMATRIX@@QBE?AU0@ABU0@@Z PROC NEAR		; D3DXMATRIX::operator*, COMDAT
; _this$ = ecx

; 859  :     D3DXMATRIX matT;
; 860  :     D3DXMatrixMultiply(&matT, this, &mat);

  00000	8b 44 24 08	 mov	 eax, DWORD PTR _mat$[esp-4]
  00004	83 ec 40	 sub	 esp, 64			; 00000040H
  00007	56		 push	 esi
  00008	57		 push	 edi
  00009	50		 push	 eax
  0000a	51		 push	 ecx
  0000b	8d 4c 24 10	 lea	 ecx, DWORD PTR _matT$[esp+80]
  0000f	51		 push	 ecx
  00010	e8 00 00 00 00	 call	 _D3DXMatrixMultiply@12

; 861  :     return matT;

  00015	8b 44 24 4c	 mov	 eax, DWORD PTR ___$ReturnUdt$[esp+68]
  00019	b9 10 00 00 00	 mov	 ecx, 16			; 00000010H
  0001e	8d 74 24 08	 lea	 esi, DWORD PTR _matT$[esp+72]
  00022	8b f8		 mov	 edi, eax
  00024	f3 a5		 rep movsd
  00026	5f		 pop	 edi
  00027	5e		 pop	 esi

; 862  : }

  00028	83 c4 40	 add	 esp, 64			; 00000040H
  0002b	c2 08 00	 ret	 8
??DD3DXMATRIX@@QBE?AU0@ABU0@@Z ENDP			; D3DXMATRIX::operator*
_TEXT	ENDS
PUBLIC	?D3DXVec3Length@@YAMPBUD3DXVECTOR3@@@Z		; D3DXVec3Length
; Function compile flags: /Ogty
;	COMDAT ?D3DXVec3Length@@YAMPBUD3DXVECTOR3@@@Z
_TEXT	SEGMENT
_pV$ = 8						; size = 4
?D3DXVec3Length@@YAMPBUD3DXVECTOR3@@@Z PROC NEAR	; D3DXVec3Length, COMDAT

; 1678 : #ifdef D3DX_DEBUG
; 1679 :     if(!pV)
; 1680 :         return 0.0f;
; 1681 : #endif
; 1682 : 
; 1683 : #ifdef __cplusplus
; 1684 :     return sqrtf(pV->x * pV->x + pV->y * pV->y + pV->z * pV->z);

  00000	8b 44 24 04	 mov	 eax, DWORD PTR _pV$[esp-4]
  00004	d9 40 08	 fld	 DWORD PTR [eax+8]
  00007	d9 40 04	 fld	 DWORD PTR [eax+4]
  0000a	d9 00		 fld	 DWORD PTR [eax]
  0000c	d9 c0		 fld	 ST(0)
  0000e	d8 c9		 fmul	 ST(0), ST(1)
  00010	d9 c2		 fld	 ST(2)
  00012	d8 cb		 fmul	 ST(0), ST(3)
  00014	de c1		 faddp	 ST(1), ST(0)
  00016	d9 c3		 fld	 ST(3)
  00018	d8 cc		 fmul	 ST(0), ST(4)
  0001a	de c1		 faddp	 ST(1), ST(0)
  0001c	d9 fa		 fsqrt
  0001e	dd db		 fstp	 ST(3)
  00020	dd d8		 fstp	 ST(0)
  00022	dd d8		 fstp	 ST(0)

; 1685 : #else
; 1686 :     return (FLOAT) sqrt(pV->x * pV->x + pV->y * pV->y + pV->z * pV->z);
; 1687 : #endif
; 1688 : }

  00024	c3		 ret	 0
?D3DXVec3Length@@YAMPBUD3DXVECTOR3@@@Z ENDP		; D3DXVec3Length
_TEXT	ENDS
PUBLIC	?D3DXVec3Dot@@YAMPBUD3DXVECTOR3@@0@Z		; D3DXVec3Dot
; Function compile flags: /Ogty
;	COMDAT ?D3DXVec3Dot@@YAMPBUD3DXVECTOR3@@0@Z
_TEXT	SEGMENT
_pV1$ = 8						; size = 4
_pV2$ = 12						; size = 4
?D3DXVec3Dot@@YAMPBUD3DXVECTOR3@@0@Z PROC NEAR		; D3DXVec3Dot, COMDAT

; 1704 : #ifdef D3DX_DEBUG
; 1705 :     if(!pV1 || !pV2)
; 1706 :         return 0.0f;
; 1707 : #endif
; 1708 : 
; 1709 :     return pV1->x * pV2->x + pV1->y * pV2->y + pV1->z * pV2->z;

  00000	8b 44 24 04	 mov	 eax, DWORD PTR _pV1$[esp-4]
  00004	8b 4c 24 08	 mov	 ecx, DWORD PTR _pV2$[esp-4]
  00008	d9 40 08	 fld	 DWORD PTR [eax+8]
  0000b	d8 49 08	 fmul	 DWORD PTR [ecx+8]
  0000e	d9 40 04	 fld	 DWORD PTR [eax+4]
  00011	d8 49 04	 fmul	 DWORD PTR [ecx+4]
  00014	de c1		 faddp	 ST(1), ST(0)
  00016	d9 00		 fld	 DWORD PTR [eax]
  00018	d8 09		 fmul	 DWORD PTR [ecx]
  0001a	de c1		 faddp	 ST(1), ST(0)

; 1710 : }

  0001c	c3		 ret	 0
?D3DXVec3Dot@@YAMPBUD3DXVECTOR3@@0@Z ENDP		; D3DXVec3Dot
_TEXT	ENDS
PUBLIC	?D3DXVec3Cross@@YAPAUD3DXVECTOR3@@PAU1@PBU1@1@Z	; D3DXVec3Cross
; Function compile flags: /Ogty
;	COMDAT ?D3DXVec3Cross@@YAPAUD3DXVECTOR3@@PAU1@PBU1@1@Z
_TEXT	SEGMENT
_v$ = -12						; size = 12
_pOut$ = 8						; size = 4
_pV1$ = 12						; size = 4
_pV2$ = 16						; size = 4
?D3DXVec3Cross@@YAPAUD3DXVECTOR3@@PAU1@PBU1@1@Z PROC NEAR ; D3DXVec3Cross, COMDAT

; 1714 : {

  00000	83 ec 0c	 sub	 esp, 12			; 0000000cH

; 1715 :     D3DXVECTOR3 v;
; 1716 : 
; 1717 : #ifdef D3DX_DEBUG
; 1718 :     if(!pOut || !pV1 || !pV2)
; 1719 :         return NULL;
; 1720 : #endif
; 1721 : 
; 1722 :     v.x = pV1->y * pV2->z - pV1->z * pV2->y;

  00003	8b 4c 24 18	 mov	 ecx, DWORD PTR _pV2$[esp+8]
  00007	8b 44 24 14	 mov	 eax, DWORD PTR _pV1$[esp+8]
  0000b	d9 41 08	 fld	 DWORD PTR [ecx+8]
  0000e	d8 48 04	 fmul	 DWORD PTR [eax+4]
  00011	d9 40 08	 fld	 DWORD PTR [eax+8]
  00014	d8 49 04	 fmul	 DWORD PTR [ecx+4]
  00017	de e9		 fsubp	 ST(1), ST(0)
  00019	d9 1c 24	 fstp	 DWORD PTR _v$[esp+12]

; 1723 :     v.y = pV1->z * pV2->x - pV1->x * pV2->z;
; 1724 :     v.z = pV1->x * pV2->y - pV1->y * pV2->x;
; 1725 : 
; 1726 :     *pOut = v;

  0001c	8b 14 24	 mov	 edx, DWORD PTR _v$[esp+12]
  0001f	d9 40 08	 fld	 DWORD PTR [eax+8]
  00022	d8 09		 fmul	 DWORD PTR [ecx]
  00024	d9 41 08	 fld	 DWORD PTR [ecx+8]
  00027	d8 08		 fmul	 DWORD PTR [eax]
  00029	de e9		 fsubp	 ST(1), ST(0)
  0002b	d9 5c 24 04	 fstp	 DWORD PTR _v$[esp+16]
  0002f	d9 00		 fld	 DWORD PTR [eax]
  00031	d8 49 04	 fmul	 DWORD PTR [ecx+4]
  00034	d9 01		 fld	 DWORD PTR [ecx]
  00036	d8 48 04	 fmul	 DWORD PTR [eax+4]
  00039	8b 44 24 10	 mov	 eax, DWORD PTR _pOut$[esp+8]
  0003d	8b c8		 mov	 ecx, eax
  0003f	89 11		 mov	 DWORD PTR [ecx], edx
  00041	8b 54 24 04	 mov	 edx, DWORD PTR _v$[esp+16]
  00045	de e9		 fsubp	 ST(1), ST(0)
  00047	89 51 04	 mov	 DWORD PTR [ecx+4], edx
  0004a	d9 5c 24 08	 fstp	 DWORD PTR _v$[esp+20]
  0004e	8b 54 24 08	 mov	 edx, DWORD PTR _v$[esp+20]
  00052	89 51 08	 mov	 DWORD PTR [ecx+8], edx

; 1727 :     return pOut;
; 1728 : }

  00055	83 c4 0c	 add	 esp, 12			; 0000000cH
  00058	c3		 ret	 0
?D3DXVec3Cross@@YAPAUD3DXVECTOR3@@PAU1@PBU1@1@Z ENDP	; D3DXVec3Cross
_TEXT	ENDS
PUBLIC	?D3DXVec3Subtract@@YAPAUD3DXVECTOR3@@PAU1@PBU1@1@Z ; D3DXVec3Subtract
; Function compile flags: /Ogty
;	COMDAT ?D3DXVec3Subtract@@YAPAUD3DXVECTOR3@@PAU1@PBU1@1@Z
_TEXT	SEGMENT
_pOut$ = 8						; size = 4
_pV1$ = 12						; size = 4
_pV2$ = 16						; size = 4
?D3DXVec3Subtract@@YAPAUD3DXVECTOR3@@PAU1@PBU1@1@Z PROC NEAR ; D3DXVec3Subtract, COMDAT

; 1747 : #ifdef D3DX_DEBUG
; 1748 :     if(!pOut || !pV1 || !pV2)
; 1749 :         return NULL;
; 1750 : #endif
; 1751 : 
; 1752 :     pOut->x = pV1->x - pV2->x;

  00000	8b 4c 24 08	 mov	 ecx, DWORD PTR _pV1$[esp-4]
  00004	d9 01		 fld	 DWORD PTR [ecx]
  00006	8b 54 24 0c	 mov	 edx, DWORD PTR _pV2$[esp-4]
  0000a	d8 22		 fsub	 DWORD PTR [edx]
  0000c	8b 44 24 04	 mov	 eax, DWORD PTR _pOut$[esp-4]
  00010	d9 18		 fstp	 DWORD PTR [eax]

; 1753 :     pOut->y = pV1->y - pV2->y;

  00012	d9 41 04	 fld	 DWORD PTR [ecx+4]
  00015	d8 62 04	 fsub	 DWORD PTR [edx+4]
  00018	d9 58 04	 fstp	 DWORD PTR [eax+4]

; 1754 :     pOut->z = pV1->z - pV2->z;

  0001b	d9 41 08	 fld	 DWORD PTR [ecx+8]
  0001e	d8 62 08	 fsub	 DWORD PTR [edx+8]
  00021	d9 58 08	 fstp	 DWORD PTR [eax+8]

; 1755 :     return pOut;
; 1756 : }

  00024	c3		 ret	 0
?D3DXVec3Subtract@@YAPAUD3DXVECTOR3@@PAU1@PBU1@1@Z ENDP	; D3DXVec3Subtract
_TEXT	ENDS
PUBLIC	?D3DXVec3Scale@@YAPAUD3DXVECTOR3@@PAU1@PBU1@M@Z	; D3DXVec3Scale
; Function compile flags: /Ogty
;	COMDAT ?D3DXVec3Scale@@YAPAUD3DXVECTOR3@@PAU1@PBU1@M@Z
_TEXT	SEGMENT
_pOut$ = 8						; size = 4
_pV$ = 12						; size = 4
_s$ = 16						; size = 4
?D3DXVec3Scale@@YAPAUD3DXVECTOR3@@PAU1@PBU1@M@Z PROC NEAR ; D3DXVec3Scale, COMDAT

; 1789 : #ifdef D3DX_DEBUG
; 1790 :     if(!pOut || !pV)
; 1791 :         return NULL;
; 1792 : #endif
; 1793 : 
; 1794 :     pOut->x = pV->x * s;

  00000	8b 4c 24 08	 mov	 ecx, DWORD PTR _pV$[esp-4]
  00004	d9 44 24 0c	 fld	 DWORD PTR _s$[esp-4]
  00008	d8 09		 fmul	 DWORD PTR [ecx]
  0000a	8b 44 24 04	 mov	 eax, DWORD PTR _pOut$[esp-4]
  0000e	d9 18		 fstp	 DWORD PTR [eax]

; 1795 :     pOut->y = pV->y * s;

  00010	d9 44 24 0c	 fld	 DWORD PTR _s$[esp-4]
  00014	d8 49 04	 fmul	 DWORD PTR [ecx+4]
  00017	d9 58 04	 fstp	 DWORD PTR [eax+4]

; 1796 :     pOut->z = pV->z * s;

  0001a	d9 44 24 0c	 fld	 DWORD PTR _s$[esp-4]
  0001e	d8 49 08	 fmul	 DWORD PTR [ecx+8]
  00021	d9 58 08	 fstp	 DWORD PTR [eax+8]

; 1797 :     return pOut;
; 1798 : }

  00024	c3		 ret	 0
?D3DXVec3Scale@@YAPAUD3DXVECTOR3@@PAU1@PBU1@M@Z ENDP	; D3DXVec3Scale
_TEXT	ENDS
PUBLIC	?D3DXMatrixIdentity@@YAPAUD3DXMATRIX@@PAU1@@Z	; D3DXMatrixIdentity
; Function compile flags: /Ogty
;	COMDAT ?D3DXMatrixIdentity@@YAPAUD3DXMATRIX@@PAU1@@Z
_TEXT	SEGMENT
_pOut$ = 8						; size = 4
?D3DXMatrixIdentity@@YAPAUD3DXMATRIX@@PAU1@@Z PROC NEAR	; D3DXMatrixIdentity, COMDAT

; 1956 : #ifdef D3DX_DEBUG
; 1957 :     if(!pOut)
; 1958 :         return NULL;
; 1959 : #endif
; 1960 : 
; 1961 :     pOut->m[0][1] = pOut->m[0][2] = pOut->m[0][3] =
; 1962 :     pOut->m[1][0] = pOut->m[1][2] = pOut->m[1][3] =
; 1963 :     pOut->m[2][0] = pOut->m[2][1] = pOut->m[2][3] =
; 1964 :     pOut->m[3][0] = pOut->m[3][1] = pOut->m[3][2] = 0.0f;

  00000	8b 44 24 04	 mov	 eax, DWORD PTR _pOut$[esp-4]
  00004	33 c9		 xor	 ecx, ecx
  00006	89 48 38	 mov	 DWORD PTR [eax+56], ecx
  00009	89 48 34	 mov	 DWORD PTR [eax+52], ecx
  0000c	89 48 30	 mov	 DWORD PTR [eax+48], ecx
  0000f	89 48 2c	 mov	 DWORD PTR [eax+44], ecx
  00012	89 48 24	 mov	 DWORD PTR [eax+36], ecx
  00015	89 48 20	 mov	 DWORD PTR [eax+32], ecx
  00018	89 48 1c	 mov	 DWORD PTR [eax+28], ecx
  0001b	89 48 18	 mov	 DWORD PTR [eax+24], ecx
  0001e	89 48 10	 mov	 DWORD PTR [eax+16], ecx
  00021	89 48 0c	 mov	 DWORD PTR [eax+12], ecx
  00024	89 48 08	 mov	 DWORD PTR [eax+8], ecx
  00027	89 48 04	 mov	 DWORD PTR [eax+4], ecx

; 1965 : 
; 1966 :     pOut->m[0][0] = pOut->m[1][1] = pOut->m[2][2] = pOut->m[3][3] = 1.0f;

  0002a	b9 00 00 80 3f	 mov	 ecx, 1065353216		; 3f800000H
  0002f	89 48 3c	 mov	 DWORD PTR [eax+60], ecx
  00032	89 48 28	 mov	 DWORD PTR [eax+40], ecx
  00035	89 48 14	 mov	 DWORD PTR [eax+20], ecx
  00038	89 08		 mov	 DWORD PTR [eax], ecx

; 1967 :     return pOut;
; 1968 : }

  0003a	c3		 ret	 0
?D3DXMatrixIdentity@@YAPAUD3DXMATRIX@@PAU1@@Z ENDP	; D3DXMatrixIdentity
_TEXT	ENDS
PUBLIC	??0CFileIO@@QAE@XZ				; CFileIO::CFileIO
PUBLIC	?Flush@CFileIO@@UAEHXZ				; CFileIO::Flush
PUBLIC	?GetC@CFileIO@@UAEDXZ				; CFileIO::GetC
PUBLIC	?GetW@CFileIO@@UAEGXZ				; CFileIO::GetW
PUBLIC	?GetDW@CFileIO@@UAEKXZ				; CFileIO::GetDW
PUBLIC	?Tell@CFileIO@@UAEJXZ				; CFileIO::Tell
PUBLIC	?Seek@CFileIO@@UAEHJH@Z				; CFileIO::Seek
PUBLIC	?GetLength@CFileIO@@UAEJXZ			; CFileIO::GetLength
PUBLIC	?Read@CFileIO@@UAEIPAXII@Z			; CFileIO::Read
PUBLIC	??_7CFileIO@@6B@				; CFileIO::`vftable'
PUBLIC	??_GCFileIO@@UAEPAXI@Z				; CFileIO::`scalar deleting destructor'
EXTRN	?Open@CFileIO@@UAEHPBDPAD@Z:NEAR		; CFileIO::Open
EXTRN	?Close@CFileIO@@UAEHXZ:NEAR			; CFileIO::Close
EXTRN	?Read@CFileIO@@UAEPAXXZ:NEAR			; CFileIO::Read
EXTRN	??_ECFileIO@@UAEPAXI@Z:NEAR			; CFileIO::`vector deleting destructor'
;	COMDAT ??_7CFileIO@@6B@
; File c:\documents and settings\test\mes documents\source\virtuos_v17\build\program\_common\file.h
CONST	SEGMENT
??_7CFileIO@@6B@ DD FLAT:??_ECFileIO@@UAEPAXI@Z		; CFileIO::`vftable'
	DD	FLAT:?Open@CFileIO@@UAEHPBDPAD@Z
	DD	FLAT:?Close@CFileIO@@UAEHXZ
	DD	FLAT:?Flush@CFileIO@@UAEHXZ
	DD	FLAT:?GetC@CFileIO@@UAEDXZ
	DD	FLAT:?GetW@CFileIO@@UAEGXZ
	DD	FLAT:?GetDW@CFileIO@@UAEKXZ
	DD	FLAT:?Tell@CFileIO@@UAEJXZ
	DD	FLAT:?Seek@CFileIO@@UAEHJH@Z
	DD	FLAT:?GetLength@CFileIO@@UAEJXZ
	DD	FLAT:?Read@CFileIO@@UAEPAXXZ
	DD	FLAT:?Read@CFileIO@@UAEIPAXII@Z
; Function compile flags: /Ogty
CONST	ENDS
;	COMDAT ??0CFileIO@@QAE@XZ
_TEXT	SEGMENT
??0CFileIO@@QAE@XZ PROC NEAR				; CFileIO::CFileIO, COMDAT
; _this$ = ecx

; 15   : 	CFileIO() { fp = NULL; } 

  00000	8b c1		 mov	 eax, ecx
  00002	c7 00 00 00 00
	00		 mov	 DWORD PTR [eax], OFFSET FLAT:??_7CFileIO@@6B@
  00008	c7 40 04 00 00
	00 00		 mov	 DWORD PTR [eax+4], 0
  0000f	c3		 ret	 0
??0CFileIO@@QAE@XZ ENDP					; CFileIO::CFileIO
_TEXT	ENDS
PUBLIC	??1CFileIO@@UAE@XZ				; CFileIO::~CFileIO
; Function compile flags: /Ogty
;	COMDAT ??1CFileIO@@UAE@XZ
_TEXT	SEGMENT
??1CFileIO@@UAE@XZ PROC NEAR				; CFileIO::~CFileIO, COMDAT
; _this$ = ecx

; 17   : 	virtual ~CFileIO() { Close(); }

  00000	c7 01 00 00 00
	00		 mov	 DWORD PTR [ecx], OFFSET FLAT:??_7CFileIO@@6B@
  00006	e9 00 00 00 00	 jmp	 ?Close@CFileIO@@UAEHXZ	; CFileIO::Close
??1CFileIO@@UAE@XZ ENDP					; CFileIO::~CFileIO
_TEXT	ENDS
EXTRN	_fflush:NEAR
; Function compile flags: /Ogty
;	COMDAT ?Flush@CFileIO@@UAEHXZ
_TEXT	SEGMENT
?Flush@CFileIO@@UAEHXZ PROC NEAR			; CFileIO::Flush, COMDAT
; _this$ = ecx

; 20   : 	virtual int	 Flush()  { return fflush( fp ); }

  00000	8b 41 04	 mov	 eax, DWORD PTR [ecx+4]
  00003	50		 push	 eax
  00004	e8 00 00 00 00	 call	 _fflush
  00009	83 c4 04	 add	 esp, 4
  0000c	c3		 ret	 0
?Flush@CFileIO@@UAEHXZ ENDP				; CFileIO::Flush
_TEXT	ENDS
EXTRN	_getc:NEAR
; Function compile flags: /Ogty
;	COMDAT ?GetC@CFileIO@@UAEDXZ
_TEXT	SEGMENT
?GetC@CFileIO@@UAEDXZ PROC NEAR				; CFileIO::GetC, COMDAT
; _this$ = ecx

; 21   : 	virtual char  GetC()  { return (char)getc( fp ); }

  00000	8b 41 04	 mov	 eax, DWORD PTR [ecx+4]
  00003	50		 push	 eax
  00004	e8 00 00 00 00	 call	 _getc
  00009	83 c4 04	 add	 esp, 4
  0000c	c3		 ret	 0
?GetC@CFileIO@@UAEDXZ ENDP				; CFileIO::GetC
_TEXT	ENDS
EXTRN	_fgetwc:NEAR
; Function compile flags: /Ogty
;	COMDAT ?GetW@CFileIO@@UAEGXZ
_TEXT	SEGMENT
?GetW@CFileIO@@UAEGXZ PROC NEAR				; CFileIO::GetW, COMDAT
; _this$ = ecx

; 22   : 	virtual WORD  GetW()  { return getwc( fp ); } 

  00000	8b 41 04	 mov	 eax, DWORD PTR [ecx+4]
  00003	50		 push	 eax
  00004	e8 00 00 00 00	 call	 _fgetwc
  00009	83 c4 04	 add	 esp, 4
  0000c	c3		 ret	 0
?GetW@CFileIO@@UAEGXZ ENDP				; CFileIO::GetW
_TEXT	ENDS
EXTRN	_fread:NEAR
; Function compile flags: /Ogty
;	COMDAT ?GetDW@CFileIO@@UAEKXZ
_TEXT	SEGMENT
_dw$ = -4						; size = 4
?GetDW@CFileIO@@UAEKXZ PROC NEAR			; CFileIO::GetDW, COMDAT
; _this$ = ecx

; 23   : 	virtual DWORD GetDW() { DWORD dw; fread( &dw, sizeof( dw ), 1, fp ); return dw; }

  00000	51		 push	 ecx
  00001	8b 41 04	 mov	 eax, DWORD PTR [ecx+4]
  00004	50		 push	 eax
  00005	6a 01		 push	 1
  00007	8d 4c 24 08	 lea	 ecx, DWORD PTR _dw$[esp+12]
  0000b	6a 04		 push	 4
  0000d	51		 push	 ecx
  0000e	e8 00 00 00 00	 call	 _fread
  00013	8b 44 24 10	 mov	 eax, DWORD PTR _dw$[esp+20]
  00017	83 c4 14	 add	 esp, 20			; 00000014H
  0001a	c3		 ret	 0
?GetDW@CFileIO@@UAEKXZ ENDP				; CFileIO::GetDW
_TEXT	ENDS
EXTRN	_ftell:NEAR
; Function compile flags: /Ogty
;	COMDAT ?Tell@CFileIO@@UAEJXZ
_TEXT	SEGMENT
?Tell@CFileIO@@UAEJXZ PROC NEAR				; CFileIO::Tell, COMDAT
; _this$ = ecx

; 24   : 	virtual long Tell()   { return ftell(fp); }

  00000	8b 41 04	 mov	 eax, DWORD PTR [ecx+4]
  00003	50		 push	 eax
  00004	e8 00 00 00 00	 call	 _ftell
  00009	83 c4 04	 add	 esp, 4
  0000c	c3		 ret	 0
?Tell@CFileIO@@UAEJXZ ENDP				; CFileIO::Tell
_TEXT	ENDS
EXTRN	_fseek:NEAR
; Function compile flags: /Ogty
;	COMDAT ?Seek@CFileIO@@UAEHJH@Z
_TEXT	SEGMENT
_offset$ = 8						; size = 4
_whence$ = 12						; size = 4
?Seek@CFileIO@@UAEHJH@Z PROC NEAR			; CFileIO::Seek, COMDAT
; _this$ = ecx

; 25   : 	virtual int  Seek( long offset, int whence ) { return fseek( fp, offset, whence ); }

  00000	8b 44 24 08	 mov	 eax, DWORD PTR _whence$[esp-4]
  00004	8b 54 24 04	 mov	 edx, DWORD PTR _offset$[esp-4]
  00008	50		 push	 eax
  00009	8b 41 04	 mov	 eax, DWORD PTR [ecx+4]
  0000c	52		 push	 edx
  0000d	50		 push	 eax
  0000e	e8 00 00 00 00	 call	 _fseek
  00013	83 c4 0c	 add	 esp, 12			; 0000000cH
  00016	c2 08 00	 ret	 8
?Seek@CFileIO@@UAEHJH@Z ENDP				; CFileIO::Seek
; Function compile flags: /Ogty
_TEXT	ENDS
;	COMDAT ?Read@CFileIO@@UAEIPAXII@Z
_TEXT	SEGMENT
_ptr$ = 8						; size = 4
_size$ = 12						; size = 4
_n$ = 16						; size = 4
?Read@CFileIO@@UAEIPAXII@Z PROC NEAR			; CFileIO::Read, COMDAT
; _this$ = ecx

; 27   : 	virtual size_t Read( void *ptr, size_t size, size_t n = 1 )	{ return fread( ptr, size, n, fp ); }

  00000	8b 41 04	 mov	 eax, DWORD PTR [ecx+4]
  00003	8b 4c 24 0c	 mov	 ecx, DWORD PTR _n$[esp-4]
  00007	8b 54 24 08	 mov	 edx, DWORD PTR _size$[esp-4]
  0000b	50		 push	 eax
  0000c	8b 44 24 08	 mov	 eax, DWORD PTR _ptr$[esp]
  00010	51		 push	 ecx
  00011	52		 push	 edx
  00012	50		 push	 eax
  00013	e8 00 00 00 00	 call	 _fread
  00018	83 c4 10	 add	 esp, 16			; 00000010H
  0001b	c2 0c 00	 ret	 12			; 0000000cH
?Read@CFileIO@@UAEIPAXII@Z ENDP				; CFileIO::Read
; Function compile flags: /Ogty
_TEXT	ENDS
;	COMDAT ??_GCFileIO@@UAEPAXI@Z
_TEXT	SEGMENT
___flags$ = 8						; size = 4
??_GCFileIO@@UAEPAXI@Z PROC NEAR			; CFileIO::`scalar deleting destructor', COMDAT
; _this$ = ecx
  00000	56		 push	 esi
  00001	8b f1		 mov	 esi, ecx
  00003	c7 06 00 00 00
	00		 mov	 DWORD PTR [esi], OFFSET FLAT:??_7CFileIO@@6B@
  00009	e8 00 00 00 00	 call	 ?Close@CFileIO@@UAEHXZ	; CFileIO::Close
  0000e	f6 44 24 08 01	 test	 BYTE PTR ___flags$[esp], 1
  00013	74 09		 je	 SHORT $L229173
  00015	56		 push	 esi
  00016	e8 00 00 00 00	 call	 ??3@YAXPAX@Z		; operator delete
  0001b	83 c4 04	 add	 esp, 4
$L229173:
  0001e	8b c6		 mov	 eax, esi
  00020	5e		 pop	 esi
  00021	c2 04 00	 ret	 4
??_GCFileIO@@UAEPAXI@Z ENDP				; CFileIO::`scalar deleting destructor'
_TEXT	ENDS
PUBLIC	??_H@YGXPAXIHP6EPAX0@Z@Z			; `vector constructor iterator'
; Function compile flags: /Ogty
;	COMDAT ??_H@YGXPAXIHP6EPAX0@Z@Z
_TEXT	SEGMENT
___t$ = 8						; size = 4
___s$ = 12						; size = 4
___n$ = 16						; size = 4
___f$ = 20						; size = 4
??_H@YGXPAXIHP6EPAX0@Z@Z PROC NEAR			; `vector constructor iterator', COMDAT
  00000	8b 44 24 0c	 mov	 eax, DWORD PTR ___n$[esp-4]
  00004	48		 dec	 eax
  00005	78 26		 js	 SHORT $L171564
  00007	53		 push	 ebx
  00008	8b 5c 24 14	 mov	 ebx, DWORD PTR ___f$[esp]
  0000c	55		 push	 ebp
  0000d	8b 6c 24 10	 mov	 ebp, DWORD PTR ___s$[esp+4]
  00011	56		 push	 esi
  00012	8b 74 24 10	 mov	 esi, DWORD PTR ___t$[esp+8]
  00016	57		 push	 edi
  00017	8d 78 01	 lea	 edi, DWORD PTR [eax+1]
  0001a	8d 9b 00 00 00
	00		 npad	 6
$L171563:
  00020	8b ce		 mov	 ecx, esi
  00022	ff d3		 call	 ebx
  00024	03 f5		 add	 esi, ebp
  00026	4f		 dec	 edi
  00027	75 f7		 jne	 SHORT $L171563
  00029	5f		 pop	 edi
  0002a	5e		 pop	 esi
  0002b	5d		 pop	 ebp
  0002c	5b		 pop	 ebx
$L171564:
  0002d	c2 10 00	 ret	 16			; 00000010H
??_H@YGXPAXIHP6EPAX0@Z@Z ENDP				; `vector constructor iterator'
_TEXT	ENDS
PUBLIC	?InitDeviceObjects@CObject3D@@QAEJPAUIDirect3DDevice9@@@Z ; CObject3D::InitDeviceObjects
; Function compile flags: /Ogty
; File c:\documents and settings\test\mes documents\source\virtuos_v17\build\program\_common\object3d.h
;	COMDAT ?InitDeviceObjects@CObject3D@@QAEJPAUIDirect3DDevice9@@@Z
_TEXT	SEGMENT
_pd3dDevice$ = 8					; size = 4
?InitDeviceObjects@CObject3D@@QAEJPAUIDirect3DDevice9@@@Z PROC NEAR ; CObject3D::InitDeviceObjects, COMDAT
; _this$ = ecx

; 385  : 	HRESULT InitDeviceObjects( LPDIRECT3DDEVICE9 pd3dDevice ) { m_pd3dDevice = pd3dDevice;  return S_OK; }

  00000	8b 44 24 04	 mov	 eax, DWORD PTR _pd3dDevice$[esp-4]
  00004	89 81 ac 00 00
	00		 mov	 DWORD PTR [ecx+172], eax
  0000a	33 c0		 xor	 eax, eax
  0000c	c2 04 00	 ret	 4
?InitDeviceObjects@CObject3D@@QAEJPAUIDirect3DDevice9@@@Z ENDP ; CObject3D::InitDeviceObjects
_TEXT	ENDS
PUBLIC	??B?$CSimpleStringT@D$0A@@ATL@@QBEPBDXZ		; ATL::CSimpleStringT<char,0>::operator char const *
; Function compile flags: /Ogty
; File c:\program files\microsoft visual studio .net 2003\vc7\atlmfc\include\atlsimpstr.h
;	COMDAT ??B?$CSimpleStringT@D$0A@@ATL@@QBEPBDXZ
_TEXT	SEGMENT
??B?$CSimpleStringT@D$0A@@ATL@@QBEPBDXZ PROC NEAR	; ATL::CSimpleStringT<char,0>::operator char const *, COMDAT
; _this$ = ecx

; 379  : 		return( m_pszData );

  00000	8b 01		 mov	 eax, DWORD PTR [ecx]

; 380  : 	}

  00002	c3		 ret	 0
??B?$CSimpleStringT@D$0A@@ATL@@QBEPBDXZ ENDP		; ATL::CSimpleStringT<char,0>::operator char const *
_TEXT	ENDS
PUBLIC	?size@?$basic_string@DU?$char_traits@D@std@@V?$allocator@D@2@@std@@QBEIXZ ; std::basic_string<char,std::char_traits<char>,std::allocator<char> >::size
; Function compile flags: /Ogty
; File c:\program files\microsoft visual studio .net 2003\vc7\include\xstring
;	COMDAT ?size@?$basic_string@DU?$char_traits@D@std@@V?$allocator@D@2@@std@@QBEIXZ
_TEXT	SEGMENT
?size@?$basic_string@DU?$char_traits@D@std@@V?$allocator@D@2@@std@@QBEIXZ PROC NEAR ; std::basic_string<char,std::char_traits<char>,std::allocator<char> >::size, COMDAT
; _this$ = ecx

; 1109 : 		return (_Mysize);

  00000	8b 41 14	 mov	 eax, DWORD PTR [ecx+20]

; 1110 : 		}

  00003	c3		 ret	 0
?size@?$basic_string@DU?$char_traits@D@std@@V?$allocator@D@2@@std@@QBEIXZ ENDP ; std::basic_string<char,std::char_traits<char>,std::allocator<char> >::size
_TEXT	ENDS
PUBLIC	?GetData@?$CSimpleStringT@D$0A@@ATL@@ABEPAUCStringData@2@XZ ; ATL::CSimpleStringT<char,0>::GetData
; Function compile flags: /Ogty
; File c:\program files\microsoft visual studio .net 2003\vc7\atlmfc\include\atlsimpstr.h
;	COMDAT ?GetData@?$CSimpleStringT@D$0A@@ATL@@ABEPAUCStringData@2@XZ
_TEXT	SEGMENT
?GetData@?$CSimpleStringT@D$0A@@ATL@@ABEPAUCStringData@2@XZ PROC NEAR ; ATL::CSimpleStringT<char,0>::GetData, COMDAT
; _this$ = ecx

; 731  : 		return( reinterpret_cast< CStringData* >( m_pszData )-1 );

  00000	8b 01		 mov	 eax, DWORD PTR [ecx]
  00002	83 e8 10	 sub	 eax, 16			; 00000010H

; 732  : 	}

  00005	c3		 ret	 0
?GetData@?$CSimpleStringT@D$0A@@ATL@@ABEPAUCStringData@2@XZ ENDP ; ATL::CSimpleStringT<char,0>::GetData
_TEXT	ENDS
PUBLIC	?_Myptr@?$basic_string@DU?$char_traits@D@std@@V?$allocator@D@2@@std@@QBEPBDXZ ; std::basic_string<char,std::char_traits<char>,std::allocator<char> >::_Myptr
; Function compile flags: /Ogty
; File c:\program files\microsoft visual studio .net 2003\vc7\include\xstring
;	COMDAT ?_Myptr@?$basic_string@DU?$char_traits@D@std@@V?$allocator@D@2@@std@@QBEPBDXZ
_TEXT	SEGMENT
?_Myptr@?$basic_string@DU?$char_traits@D@std@@V?$allocator@D@2@@std@@QBEPBDXZ PROC NEAR ; std::basic_string<char,std::char_traits<char>,std::allocator<char> >::_Myptr, COMDAT
; _this$ = ecx

; 1537 : 		return (_BUF_SIZE <= _Myres ? _Bx._Ptr : _Bx._Buf);

  00000	83 79 18 10	 cmp	 DWORD PTR [ecx+24], 16	; 00000010H
  00004	72 04		 jb	 SHORT $L229194
  00006	8b 41 04	 mov	 eax, DWORD PTR [ecx+4]

; 1538 : 		}

  00009	c3		 ret	 0
$L229194:

; 1537 : 		return (_BUF_SIZE <= _Myres ? _Bx._Ptr : _Bx._Buf);

  0000a	8d 41 04	 lea	 eax, DWORD PTR [ecx+4]

; 1538 : 		}

  0000d	c3		 ret	 0
?_Myptr@?$basic_string@DU?$char_traits@D@std@@V?$allocator@D@2@@std@@QBEPBDXZ ENDP ; std::basic_string<char,std::char_traits<char>,std::allocator<char> >::_Myptr
_TEXT	ENDS
PUBLIC	??0?$allocator@D@std@@QAE@XZ			; std::allocator<char>::allocator<char>
; Function compile flags: /Ogty
; File c:\program files\microsoft visual studio .net 2003\vc7\include\xmemory
;	COMDAT ??0?$allocator@D@std@@QAE@XZ
_TEXT	SEGMENT
??0?$allocator@D@std@@QAE@XZ PROC NEAR			; std::allocator<char>::allocator<char>, COMDAT
; _this$ = ecx

; 111  : 	allocator()

  00000	8b c1		 mov	 eax, ecx

; 112  : 		{	// construct default allocator (do nothing)
; 113  : 		}

  00002	c3		 ret	 0
??0?$allocator@D@std@@QAE@XZ ENDP			; std::allocator<char>::allocator<char>
_TEXT	ENDS
PUBLIC	??0?$allocator@D@std@@QAE@ABV01@@Z		; std::allocator<char>::allocator<char>
; Function compile flags: /Ogty
;	COMDAT ??0?$allocator@D@std@@QAE@ABV01@@Z
_TEXT	SEGMENT
___formal$ = 8						; size = 4
??0?$allocator@D@std@@QAE@ABV01@@Z PROC NEAR		; std::allocator<char>::allocator<char>, COMDAT
; _this$ = ecx

; 115  : 	allocator(const allocator<_Ty>&)

  00000	8b c1		 mov	 eax, ecx

; 116  : 		{	// construct by copying (do nothing)
; 117  : 		}

  00002	c2 04 00	 ret	 4
??0?$allocator@D@std@@QAE@ABV01@@Z ENDP			; std::allocator<char>::allocator<char>
_TEXT	ENDS
PUBLIC	?_Myptr@?$basic_string@DU?$char_traits@D@std@@V?$allocator@D@2@@std@@QAEPADXZ ; std::basic_string<char,std::char_traits<char>,std::allocator<char> >::_Myptr
; Function compile flags: /Ogty
; File c:\program files\microsoft visual studio .net 2003\vc7\include\xstring
;	COMDAT ?_Myptr@?$basic_string@DU?$char_traits@D@std@@V?$allocator@D@2@@std@@QAEPADXZ
_TEXT	SEGMENT
?_Myptr@?$basic_string@DU?$char_traits@D@std@@V?$allocator@D@2@@std@@QAEPADXZ PROC NEAR ; std::basic_string<char,std::char_traits<char>,std::allocator<char> >::_Myptr, COMDAT
; _this$ = ecx

; 1532 : 		return (_BUF_SIZE <= _Myres ? _Bx._Ptr : _Bx._Buf);

  00000	83 79 18 10	 cmp	 DWORD PTR [ecx+24], 16	; 00000010H
  00004	72 04		 jb	 SHORT $L229205
  00006	8b 41 04	 mov	 eax, DWORD PTR [ecx+4]

; 1533 : 		}

  00009	c3		 ret	 0
$L229205:

; 1532 : 		return (_BUF_SIZE <= _Myres ? _Bx._Ptr : _Bx._Buf);

  0000a	8d 41 04	 lea	 eax, DWORD PTR [ecx+4]

; 1533 : 		}

  0000d	c3		 ret	 0
?_Myptr@?$basic_string@DU?$char_traits@D@std@@V?$allocator@D@2@@std@@QAEPADXZ ENDP ; std::basic_string<char,std::char_traits<char>,std::allocator<char> >::_Myptr
_TEXT	ENDS
PUBLIC	?deallocate@?$allocator@D@std@@QAEXPADI@Z	; std::allocator<char>::deallocate
; Function compile flags: /Ogty
; File c:\program files\microsoft visual studio .net 2003\vc7\include\xmemory
;	COMDAT ?deallocate@?$allocator@D@std@@QAEXPADI@Z
_TEXT	SEGMENT
__Ptr$ = 8						; size = 4
___formal$ = 12						; size = 4
?deallocate@?$allocator@D@std@@QAEXPADI@Z PROC NEAR	; std::allocator<char>::deallocate, COMDAT
; _this$ = ecx

; 132  : 		operator delete(_Ptr);

  00000	8b 44 24 04	 mov	 eax, DWORD PTR __Ptr$[esp-4]
  00004	50		 push	 eax
  00005	e8 00 00 00 00	 call	 ??3@YAXPAX@Z		; operator delete
  0000a	59		 pop	 ecx

; 133  : 		}

  0000b	c2 08 00	 ret	 8
?deallocate@?$allocator@D@std@@QAEXPADI@Z ENDP		; std::allocator<char>::deallocate
_TEXT	ENDS
PUBLIC	?_Inside@?$basic_string@DU?$char_traits@D@std@@V?$allocator@D@2@@std@@IAE_NPBD@Z ; std::basic_string<char,std::char_traits<char>,std::allocator<char> >::_Inside
; Function compile flags: /Ogty
; File c:\program files\microsoft visual studio .net 2003\vc7\include\xstring
;	COMDAT ?_Inside@?$basic_string@DU?$char_traits@D@std@@V?$allocator@D@2@@std@@IAE_NPBD@Z
_TEXT	SEGMENT
__Ptr$ = 8						; size = 4
?_Inside@?$basic_string@DU?$char_traits@D@std@@V?$allocator@D@2@@std@@IAE_NPBD@Z PROC NEAR ; std::basic_string<char,std::char_traits<char>,std::allocator<char> >::_Inside, COMDAT
; _this$ = ecx

; 1494 : 		{	// test if _Ptr points inside string

  00000	56		 push	 esi

; 1495 : 		if (_Ptr < _Myptr() || _Myptr() + _Mysize <= _Ptr)

  00001	8b 71 18	 mov	 esi, DWORD PTR [ecx+24]
  00004	83 fe 10	 cmp	 esi, 16			; 00000010H
  00007	57		 push	 edi
  00008	8d 41 04	 lea	 eax, DWORD PTR [ecx+4]
  0000b	72 04		 jb	 SHORT $L229218
  0000d	8b 10		 mov	 edx, DWORD PTR [eax]
  0000f	eb 02		 jmp	 SHORT $L229219
$L229218:
  00011	8b d0		 mov	 edx, eax
$L229219:
  00013	8b 7c 24 0c	 mov	 edi, DWORD PTR __Ptr$[esp+4]
  00017	3b fa		 cmp	 edi, edx
  00019	72 17		 jb	 SHORT $L222788
  0001b	83 fe 10	 cmp	 esi, 16			; 00000010H
  0001e	72 02		 jb	 SHORT $L229226
  00020	8b 00		 mov	 eax, DWORD PTR [eax]
$L229226:
  00022	8b 49 14	 mov	 ecx, DWORD PTR [ecx+20]
  00025	03 c8		 add	 ecx, eax
  00027	3b cf		 cmp	 ecx, edi
  00029	76 07		 jbe	 SHORT $L222788
  0002b	5f		 pop	 edi

; 1497 : 		else
; 1498 : 			return (true);

  0002c	b0 01		 mov	 al, 1
  0002e	5e		 pop	 esi

; 1499 : 		}

  0002f	c2 04 00	 ret	 4
$L222788:
  00032	5f		 pop	 edi

; 1496 : 			return (false);	// don't ask

  00033	32 c0		 xor	 al, al
  00035	5e		 pop	 esi

; 1499 : 		}

  00036	c2 04 00	 ret	 4
?_Inside@?$basic_string@DU?$char_traits@D@std@@V?$allocator@D@2@@std@@IAE_NPBD@Z ENDP ; std::basic_string<char,std::char_traits<char>,std::allocator<char> >::_Inside
_TEXT	ENDS
PUBLIC	?max_size@?$allocator@D@std@@QBEIXZ		; std::allocator<char>::max_size
; Function compile flags: /Ogty
; File c:\program files\microsoft visual studio .net 2003\vc7\include\xmemory
;	COMDAT ?max_size@?$allocator@D@std@@QBEIXZ
_TEXT	SEGMENT
?max_size@?$allocator@D@std@@QBEIXZ PROC NEAR		; std::allocator<char>::max_size, COMDAT
; _this$ = ecx

; 157  : 		_SIZT _Count = (_SIZT)(-1) / sizeof (_Ty);
; 158  : 		return (0 < _Count ? _Count : 1);

  00000	83 c8 ff	 or	 eax, -1

; 159  : 		}

  00003	c3		 ret	 0
?max_size@?$allocator@D@std@@QBEIXZ ENDP		; std::allocator<char>::max_size
_TEXT	ENDS
PUBLIC	??$swap@D@std@@YAXAAD0@Z			; std::swap<char>
; Function compile flags: /Ogty
; File c:\program files\microsoft visual studio .net 2003\vc7\include\utility
;	COMDAT ??$swap@D@std@@YAXAAD0@Z
_TEXT	SEGMENT
__Left$ = 8						; size = 4
__Right$ = 12						; size = 4
??$swap@D@std@@YAXAAD0@Z PROC NEAR			; std::swap<char>, COMDAT

; 15   : 	_Ty _Tmp = _Left;

  00000	8b 44 24 04	 mov	 eax, DWORD PTR __Left$[esp-4]
  00004	8a 08		 mov	 cl, BYTE PTR [eax]
  00006	56		 push	 esi

; 16   : 	_Left = _Right, _Right = _Tmp;

  00007	8b 74 24 0c	 mov	 esi, DWORD PTR __Right$[esp]
  0000b	8a 16		 mov	 dl, BYTE PTR [esi]
  0000d	88 10		 mov	 BYTE PTR [eax], dl
  0000f	88 0e		 mov	 BYTE PTR [esi], cl
  00011	5e		 pop	 esi

; 17   : 	}

  00012	c3		 ret	 0
??$swap@D@std@@YAXAAD0@Z ENDP				; std::swap<char>
_TEXT	ENDS
PUBLIC	??$_Allocate@D@std@@YAPADIPAD@Z			; std::_Allocate<char>
; Function compile flags: /Ogty
; File c:\program files\microsoft visual studio .net 2003\vc7\include\xmemory
;	COMDAT ??$_Allocate@D@std@@YAPADIPAD@Z
_TEXT	SEGMENT
__Count$ = 8						; size = 4
___formal$ = 12						; size = 4
??$_Allocate@D@std@@YAPADIPAD@Z PROC NEAR		; std::_Allocate<char>, COMDAT

; 34   : 	return ((_Ty _FARQ *)operator new(_Count * sizeof (_Ty)));

  00000	8b 44 24 04	 mov	 eax, DWORD PTR __Count$[esp-4]
  00004	50		 push	 eax
  00005	e8 00 00 00 00	 call	 ??2@YAPAXI@Z		; operator new
  0000a	83 c4 04	 add	 esp, 4

; 35   : 	}

  0000d	c3		 ret	 0
??$_Allocate@D@std@@YAPADIPAD@Z ENDP			; std::_Allocate<char>
_TEXT	ENDS
PUBLIC	??0GMOBJECT@@QAE@XZ				; GMOBJECT::GMOBJECT
; Function compile flags: /Ogty
;	COMDAT ??0GMOBJECT@@QAE@XZ
_TEXT	SEGMENT
??0GMOBJECT@@QAE@XZ PROC NEAR				; GMOBJECT::GMOBJECT, COMDAT
; _this$ = ecx
  00000	8b c1		 mov	 eax, ecx
  00002	c3		 ret	 0
??0GMOBJECT@@QAE@XZ ENDP				; GMOBJECT::GMOBJECT
_TEXT	ENDS
PUBLIC	?Destroy@CObject3D@@AAEXXZ			; CObject3D::Destroy
EXTRN	??_V@YAXPAX@Z:NEAR				; operator delete[]
; Function compile flags: /Ogty
; File c:\documents and settings\test\mes documents\source\virtuos_v17\build\program\_common\object3d.cpp
;	COMDAT ?Destroy@CObject3D@@AAEXXZ
_TEXT	SEGMENT
tv772 = -8						; size = 4
tv348 = -4						; size = 4
?Destroy@CObject3D@@AAEXXZ PROC NEAR			; CObject3D::Destroy, COMDAT
; _this$ = ecx

; 548  : {

  00000	83 ec 08	 sub	 esp, 8
  00003	53		 push	 ebx
  00004	56		 push	 esi
  00005	8b d9		 mov	 ebx, ecx
  00007	57		 push	 edi

; 549  : 	int		i, j, k;
; 550  : 
; 551  : 	for( j = 0; j < MAX_GROUP; j ++ )

  00008	8d 4b 04	 lea	 ecx, DWORD PTR [ebx+4]
  0000b	89 4c 24 0c	 mov	 DWORD PTR tv772[esp+20], ecx
  0000f	c7 44 24 10 03
	00 00 00	 mov	 DWORD PTR tv348[esp+20], 3
  00017	33 ff		 xor	 edi, edi
  00019	55		 push	 ebp
  0001a	8d 9b 00 00 00
	00		 npad	 6
$L225909:

; 554  : 		for( i = 0; i < m_Group[j].m_nMaxObject; i ++ )

  00020	8b 11		 mov	 edx, DWORD PTR [ecx]
  00022	8b 41 04	 mov	 eax, DWORD PTR [ecx+4]
  00025	33 ed		 xor	 ebp, ebp
  00027	3b d7		 cmp	 edx, edi
  00029	0f 8e b0 00 00
	00		 jle	 $L225910

; 552  : 	{
; 553  : 		GMOBJECT *pObject = m_Group[j].m_pObject;

  0002f	8d b0 34 01 00
	00		 lea	 esi, DWORD PTR [eax+308]
$L225913:

; 555  : 		{
; 556  : 			SAFE_DELETE_ARRAY( pObject[i].m_pVertexList );

  00035	8b 46 fc	 mov	 eax, DWORD PTR [esi-4]
  00038	3b c7		 cmp	 eax, edi
  0003a	74 0c		 je	 SHORT $L225916
  0003c	50		 push	 eax
  0003d	e8 00 00 00 00	 call	 ??_V@YAXPAX@Z		; operator delete[]
  00042	83 c4 04	 add	 esp, 4
  00045	89 7e fc	 mov	 DWORD PTR [esi-4], edi
$L225916:

; 557  : 			SAFE_DELETE_ARRAY( pObject[i].m_pPhysiqueVertex );

  00048	8b 06		 mov	 eax, DWORD PTR [esi]
  0004a	3b c7		 cmp	 eax, edi
  0004c	74 0b		 je	 SHORT $L225919
  0004e	50		 push	 eax
  0004f	e8 00 00 00 00	 call	 ??_V@YAXPAX@Z		; operator delete[]
  00054	83 c4 04	 add	 esp, 4
  00057	89 3e		 mov	 DWORD PTR [esi], edi
$L225919:

; 558  : 			for( k = 0; k < pObject[i].m_nMaxMtrlBlk; k ++ )
; 559  : 			{
; 560  : 			#if !defined(__WORLDSERVER) 
; 561  : 				g_TextureMng.DeleteMaterial( pObject[i].m_pMtrlBlkTexture[k] );	//   .   .
; 562  : 			#endif // !__WORLDSERVER
; 563  : 
; 564  : #ifdef __YENV
; 565  : 				if( g_Option.m_bSpecBump )
; 566  : 				{
; 567  : 					SAFE_RELEASE( pObject[i].m_pNormalTexture[k] );
; 568  : 					SAFE_RELEASE( pObject[i].m_pNoSpecTexture[k] );
; 569  : 				}
; 570  : #endif //__YENV
; 571  : 			}
; 572  : 			SAFE_DELETE_ARRAY( pObject[i].m_pMtrlBlk );

  00059	8b 46 04	 mov	 eax, DWORD PTR [esi+4]
  0005c	3b c7		 cmp	 eax, edi
  0005e	74 0c		 je	 SHORT $L225925
  00060	50		 push	 eax
  00061	e8 00 00 00 00	 call	 ??_V@YAXPAX@Z		; operator delete[]
  00066	83 c4 04	 add	 esp, 4
  00069	89 7e 04	 mov	 DWORD PTR [esi+4], edi
$L225925:

; 573  : 			SAFE_DELETE_ARRAY( pObject[i].m_pMtrlBlkTexture );

  0006c	8b 46 08	 mov	 eax, DWORD PTR [esi+8]
  0006f	3b c7		 cmp	 eax, edi
  00071	74 0c		 je	 SHORT $L225928
  00073	50		 push	 eax
  00074	e8 00 00 00 00	 call	 ??_V@YAXPAX@Z		; operator delete[]
  00079	83 c4 04	 add	 esp, 4
  0007c	89 7e 08	 mov	 DWORD PTR [esi+8], edi
$L225928:

; 574  : 			SAFE_DELETE_ARRAY( pObject[i].m_pFrame );

  0007f	8b 46 0c	 mov	 eax, DWORD PTR [esi+12]
  00082	3b c7		 cmp	 eax, edi
  00084	74 0c		 je	 SHORT $L225931
  00086	50		 push	 eax
  00087	e8 00 00 00 00	 call	 ??_V@YAXPAX@Z		; operator delete[]
  0008c	83 c4 04	 add	 esp, 4
  0008f	89 7e 0c	 mov	 DWORD PTR [esi+12], edi
$L225931:

; 575  : 
; 576  : #ifdef __YENV
; 577  : 			SAFE_DELETE_ARRAY( pObject[i].m_pNormalTexture );		
; 578  : 			SAFE_DELETE_ARRAY( pObject[i].m_pNoSpecTexture );		
; 579  : #endif //__YENV
; 580  : 
; 581  : 			SAFE_DELETE_ARRAY( pObject[i].m_pVB );

  00092	8b 86 6c 09 00
	00		 mov	 eax, DWORD PTR [esi+2412]
  00098	3b c7		 cmp	 eax, edi
  0009a	74 0f		 je	 SHORT $L225934
  0009c	50		 push	 eax
  0009d	e8 00 00 00 00	 call	 ??_V@YAXPAX@Z		; operator delete[]
  000a2	83 c4 04	 add	 esp, 4
  000a5	89 be 6c 09 00
	00		 mov	 DWORD PTR [esi+2412], edi
$L225934:

; 582  : 			SAFE_DELETE_ARRAY( pObject[i].m_pIB );

  000ab	8b 86 70 09 00
	00		 mov	 eax, DWORD PTR [esi+2416]
  000b1	3b c7		 cmp	 eax, edi
  000b3	74 0f		 je	 SHORT $L225937
  000b5	50		 push	 eax
  000b6	e8 00 00 00 00	 call	 ??_V@YAXPAX@Z		; operator delete[]
  000bb	83 c4 04	 add	 esp, 4
  000be	89 be 70 09 00
	00		 mov	 DWORD PTR [esi+2416], edi
$L225937:
  000c4	8b 4c 24 10	 mov	 ecx, DWORD PTR tv772[esp+24]

; 583  : 			pObject[i].m_pIIB = NULL;		// IIB IB    delete .

  000c8	89 be 74 09 00
	00		 mov	 DWORD PTR [esi+2420], edi
  000ce	8b 01		 mov	 eax, DWORD PTR [ecx]
  000d0	45		 inc	 ebp
  000d1	81 c6 bc 0a 00
	00		 add	 esi, 2748		; 00000abcH
  000d7	3b e8		 cmp	 ebp, eax
  000d9	0f 8c 56 ff ff
	ff		 jl	 $L225913
$L225910:

; 549  : 	int		i, j, k;
; 550  : 
; 551  : 	for( j = 0; j < MAX_GROUP; j ++ )

  000df	8b 44 24 14	 mov	 eax, DWORD PTR tv348[esp+24]
  000e3	83 c1 0c	 add	 ecx, 12			; 0000000cH
  000e6	48		 dec	 eax
  000e7	89 4c 24 10	 mov	 DWORD PTR tv772[esp+24], ecx
  000eb	89 44 24 14	 mov	 DWORD PTR tv348[esp+24], eax
  000ef	0f 85 2b ff ff
	ff		 jne	 $L225909

; 584  : 		}
; 585  : 	}
; 586  : 	
; 587  : 	SAFE_DELETE_ARRAY( m_CollObject.m_pVertexList );

  000f5	8b 83 30 02 00
	00		 mov	 eax, DWORD PTR [ebx+560]
  000fb	3b c7		 cmp	 eax, edi
  000fd	5d		 pop	 ebp
  000fe	74 0f		 je	 SHORT $L225940
  00100	50		 push	 eax
  00101	e8 00 00 00 00	 call	 ??_V@YAXPAX@Z		; operator delete[]
  00106	83 c4 04	 add	 esp, 4
  00109	89 bb 30 02 00
	00		 mov	 DWORD PTR [ebx+560], edi
$L225940:

; 588  : 	SAFE_DELETE_ARRAY( m_CollObject.m_pPhysiqueVertex );

  0010f	8b 83 34 02 00
	00		 mov	 eax, DWORD PTR [ebx+564]
  00115	3b c7		 cmp	 eax, edi
  00117	74 0f		 je	 SHORT $L225943
  00119	50		 push	 eax
  0011a	e8 00 00 00 00	 call	 ??_V@YAXPAX@Z		; operator delete[]
  0011f	83 c4 04	 add	 esp, 4
  00122	89 bb 34 02 00
	00		 mov	 DWORD PTR [ebx+564], edi
$L225943:

; 589  : 	SAFE_DELETE_ARRAY( m_CollObject.m_pMtrlBlk );

  00128	8b 83 38 02 00
	00		 mov	 eax, DWORD PTR [ebx+568]
  0012e	3b c7		 cmp	 eax, edi
  00130	74 0f		 je	 SHORT $L225946
  00132	50		 push	 eax
  00133	e8 00 00 00 00	 call	 ??_V@YAXPAX@Z		; operator delete[]
  00138	83 c4 04	 add	 esp, 4
  0013b	89 bb 38 02 00
	00		 mov	 DWORD PTR [ebx+568], edi
$L225946:

; 590  : 	SAFE_DELETE_ARRAY( m_CollObject.m_pMtrlBlkTexture );

  00141	8b 83 3c 02 00
	00		 mov	 eax, DWORD PTR [ebx+572]
  00147	3b c7		 cmp	 eax, edi
  00149	74 0f		 je	 SHORT $L225949
  0014b	50		 push	 eax
  0014c	e8 00 00 00 00	 call	 ??_V@YAXPAX@Z		; operator delete[]
  00151	83 c4 04	 add	 esp, 4
  00154	89 bb 3c 02 00
	00		 mov	 DWORD PTR [ebx+572], edi
$L225949:

; 591  : 	SAFE_DELETE_ARRAY( m_CollObject.m_pFrame );

  0015a	8b 83 40 02 00
	00		 mov	 eax, DWORD PTR [ebx+576]
  00160	3b c7		 cmp	 eax, edi
  00162	74 0f		 je	 SHORT $L225952
  00164	50		 push	 eax
  00165	e8 00 00 00 00	 call	 ??_V@YAXPAX@Z		; operator delete[]
  0016a	83 c4 04	 add	 esp, 4
  0016d	89 bb 40 02 00
	00		 mov	 DWORD PTR [ebx+576], edi
$L225952:

; 592  : 
; 593  : 	
; 594  : 	SAFE_DELETE_ARRAY( m_pAttr );

  00173	8b 43 48	 mov	 eax, DWORD PTR [ebx+72]
  00176	3b c7		 cmp	 eax, edi
  00178	74 0c		 je	 SHORT $L225955
  0017a	50		 push	 eax
  0017b	e8 00 00 00 00	 call	 ??_V@YAXPAX@Z		; operator delete[]
  00180	83 c4 04	 add	 esp, 4
  00183	89 7b 48	 mov	 DWORD PTR [ebx+72], edi
$L225955:

; 595  : 	
; 596  : 	SAFE_DELETE_ARRAY( m_CollObject.m_pVB );

  00186	8b 83 a0 0b 00
	00		 mov	 eax, DWORD PTR [ebx+2976]
  0018c	3b c7		 cmp	 eax, edi
  0018e	74 0f		 je	 SHORT $L225958
  00190	50		 push	 eax
  00191	e8 00 00 00 00	 call	 ??_V@YAXPAX@Z		; operator delete[]
  00196	83 c4 04	 add	 esp, 4
  00199	89 bb a0 0b 00
	00		 mov	 DWORD PTR [ebx+2976], edi
$L225958:

; 597  : 	SAFE_DELETE_ARRAY( m_CollObject.m_pIB );

  0019f	8b 83 a4 0b 00
	00		 mov	 eax, DWORD PTR [ebx+2980]
  001a5	3b c7		 cmp	 eax, edi
  001a7	74 0f		 je	 SHORT $L225961
  001a9	50		 push	 eax
  001aa	e8 00 00 00 00	 call	 ??_V@YAXPAX@Z		; operator delete[]
  001af	83 c4 04	 add	 esp, 4
  001b2	89 bb a4 0b 00
	00		 mov	 DWORD PTR [ebx+2980], edi
$L225961:

; 598  : 	m_CollObject.m_pIIB = NULL;		// IIB IB    delete .
; 599  : 
; 600  : 	DeleteDeviceObjects();	// m_pObject[].m_pd3d_VB

  001b8	8b cb		 mov	 ecx, ebx
  001ba	89 bb a8 0b 00
	00		 mov	 DWORD PTR [ebx+2984], edi
  001c0	e8 00 00 00 00	 call	 ?DeleteDeviceObjects@CObject3D@@QAEJXZ ; CObject3D::DeleteDeviceObjects

; 601  : 	// m_pObject  DeleteDeviceObjets()  .
; 602  : 
; 603  : #ifdef __YENV
; 604  : 	SAFE_DELETE_ARRAY( m_CollObject.m_pNormalTexture );		
; 605  : 	SAFE_DELETE_ARRAY( m_CollObject.m_pNoSpecTexture );		
; 606  : #endif //__YENV
; 607  : 	
; 608  : 	
; 609  : 	SAFE_DELETE_ARRAY( m_Group[0].m_pObject );		//    [0]  .

  001c5	8b 43 08	 mov	 eax, DWORD PTR [ebx+8]
  001c8	3b c7		 cmp	 eax, edi
  001ca	74 0c		 je	 SHORT $L225964
  001cc	50		 push	 eax
  001cd	e8 00 00 00 00	 call	 ??_V@YAXPAX@Z		; operator delete[]
  001d2	83 c4 04	 add	 esp, 4
  001d5	89 7b 08	 mov	 DWORD PTR [ebx+8], edi
$L225964:

; 610  : 	m_Group[1].m_pObject = NULL;
; 611  : 	m_Group[2].m_pObject = NULL;
; 612  : 	SAFE_DELETE_ARRAY( m_Group[0]._mUpdate );		//    [0]  .

  001d8	8b 43 0c	 mov	 eax, DWORD PTR [ebx+12]
  001db	3b c7		 cmp	 eax, edi
  001dd	89 7b 14	 mov	 DWORD PTR [ebx+20], edi
  001e0	89 7b 20	 mov	 DWORD PTR [ebx+32], edi
  001e3	74 0c		 je	 SHORT $L225967
  001e5	50		 push	 eax
  001e6	e8 00 00 00 00	 call	 ??_V@YAXPAX@Z		; operator delete[]
  001eb	83 c4 04	 add	 esp, 4
  001ee	89 7b 0c	 mov	 DWORD PTR [ebx+12], edi
$L225967:

; 613  : 	m_Group[1]._mUpdate = NULL;
; 614  : 	m_Group[2]._mUpdate = NULL;
; 615  : 	//   d3d_VB   DeleteDevice  .
; 616  : 	SAFE_DELETE_ARRAY( m_pBaseBone );

  001f1	8b 43 34	 mov	 eax, DWORD PTR [ebx+52]
  001f4	3b c7		 cmp	 eax, edi
  001f6	89 7b 18	 mov	 DWORD PTR [ebx+24], edi
  001f9	89 7b 24	 mov	 DWORD PTR [ebx+36], edi
  001fc	74 0c		 je	 SHORT $L225970
  001fe	50		 push	 eax
  001ff	e8 00 00 00 00	 call	 ??_V@YAXPAX@Z		; operator delete[]
  00204	83 c4 04	 add	 esp, 4
  00207	89 7b 34	 mov	 DWORD PTR [ebx+52], edi
$L225970:

; 617  : 	SAFE_DELETE( m_pMotion );

  0020a	8b 73 3c	 mov	 esi, DWORD PTR [ebx+60]
  0020d	3b f7		 cmp	 esi, edi
  0020f	74 13		 je	 SHORT $L225973
  00211	8b ce		 mov	 ecx, esi
  00213	e8 00 00 00 00	 call	 ??1CMotion@@QAE@XZ	; CMotion::~CMotion
  00218	56		 push	 esi
  00219	e8 00 00 00 00	 call	 ??3@YAXPAX@Z		; operator delete
  0021e	83 c4 04	 add	 esp, 4
  00221	89 7b 3c	 mov	 DWORD PTR [ebx+60], edi
$L225973:
  00224	5f		 pop	 edi
  00225	5e		 pop	 esi

; 618  : 
; 619  : #ifdef __BS_EFFECT_LUA
; 620  : 	m_dwEffect_EX = 0;
; 621  : 
; 622  : 	SAFE_DELETE( m_pMteData );
; 623  : #endif;
; 624  : 
; 625  : 	Init();

  00226	8b cb		 mov	 ecx, ebx
  00228	5b		 pop	 ebx

; 626  : }

  00229	83 c4 08	 add	 esp, 8

; 618  : 
; 619  : #ifdef __BS_EFFECT_LUA
; 620  : 	m_dwEffect_EX = 0;
; 621  : 
; 622  : 	SAFE_DELETE( m_pMteData );
; 623  : #endif;
; 624  : 
; 625  : 	Init();

  0022c	e9 00 00 00 00	 jmp	 ?Init@CObject3D@@AAEXXZ	; CObject3D::Init
?Destroy@CObject3D@@AAEXXZ ENDP				; CObject3D::Destroy
_TEXT	ENDS
PUBLIC	?RestoreDeviceObjects@CObject3D@@QAEJPAPAUIDirect3DVertexBuffer9@@W4_D3DPOOL@@@Z ; CObject3D::RestoreDeviceObjects
; Function compile flags: /Ogty
;	COMDAT ?RestoreDeviceObjects@CObject3D@@QAEJPAPAUIDirect3DVertexBuffer9@@W4_D3DPOOL@@@Z
_TEXT	SEGMENT
_ppd3d_VB$ = 8						; size = 4
_pool$ = 12						; size = 4
?RestoreDeviceObjects@CObject3D@@QAEJPAPAUIDirect3DVertexBuffer9@@W4_D3DPOOL@@@Z PROC NEAR ; CObject3D::RestoreDeviceObjects, COMDAT
; _this$ = ecx

; 658  : 	int		i, j;
; 659  : 	GMOBJECT	*pObj;
; 660  : 
; 661  : 	for( j = 0; j < MAX_GROUP; j ++ )
; 662  : 	{
; 663  : 		GMOBJECT	*pObject = m_Group[j].m_pObject;
; 664  : 		int			nMaxObject = m_Group[j].m_nMaxObject;
; 665  : 		for( i = 0; i < nMaxObject; i ++ )
; 666  : 		{
; 667  : 			pObj = &pObject[i];
; 668  : 			if( pObj->m_Type == GMT_SKIN )	
; 669  : 			{
; 670  : 
; 671  : 				#ifdef __YENV
; 672  : 				if( pObj->m_bBump && g_Option.m_bSpecBump )
; 673  : 				{
; 674  : 					ExtractBuffers( GMT_SKIN, &ppd3d_VB[i], pObj );
; 675  : 				}
; 676  : 				#endif //__YENV
; 677  : 
; 678  : 				//          .
; 679  : 				CreateDeviceBuffer( pObj, &ppd3d_VB[i], pool );
; 680  : 
; 681  : 			} else
; 682  : 			{
; 683  : 				if( pObj->m_pd3d_VB )	
; 684  : 					continue;
; 685  : 
; 686  : 				#ifdef __YENV
; 687  : 				if( pObj->m_bBump && g_Option.m_bSpecBump )
; 688  : 					ExtractBuffers( GMT_NORMAL, NULL, pObj );
; 689  : 				#endif //__YENV
; 690  : 
; 691  : 				CreateDeviceBuffer( pObj, NULL, pool );
; 692  : 
; 693  : 			}
; 694  : 		}
; 695  : 		ppd3d_VB += m_Group[j].m_nMaxObject;
; 696  : 	}
; 697  : 
; 698  : 
; 699  : 	return S_OK;

  00000	33 c0		 xor	 eax, eax

; 700  : }	

  00002	c2 08 00	 ret	 8
?RestoreDeviceObjects@CObject3D@@QAEJPAPAUIDirect3DVertexBuffer9@@W4_D3DPOOL@@@Z ENDP ; CObject3D::RestoreDeviceObjects
_TEXT	ENDS
PUBLIC	?InvalidateDeviceObjects@CObject3D@@QAEJXZ	; CObject3D::InvalidateDeviceObjects
; Function compile flags: /Ogty
;	COMDAT ?InvalidateDeviceObjects@CObject3D@@QAEJXZ
_TEXT	SEGMENT
?InvalidateDeviceObjects@CObject3D@@QAEJXZ PROC NEAR	; CObject3D::InvalidateDeviceObjects, COMDAT
; _this$ = ecx

; 704  : 	DeleteDeviceObjects();

  00000	e8 00 00 00 00	 call	 ?DeleteDeviceObjects@CObject3D@@QAEJXZ ; CObject3D::DeleteDeviceObjects

; 705  : 	return  S_OK;

  00005	33 c0		 xor	 eax, eax

; 706  : }	

  00007	c3		 ret	 0
?InvalidateDeviceObjects@CObject3D@@QAEJXZ ENDP		; CObject3D::InvalidateDeviceObjects
_TEXT	ENDS
PUBLIC	?IsAnimateFile@CObject3D@@SAHPBD@Z		; CObject3D::IsAnimateFile
PUBLIC	??_C@_02JDPG@rb?$AA@				; `string'
PUBLIC	??_C@_0BN@MFAGAFAH@IsAnimateFile?5?3?5?$CFs?5?$MA?P?$LB?b?5?$LN?G?F?P?$AA@ ; `string'
EXTRN	?Error@@YAPBDPBDZZ:NEAR				; Error
EXTRN	__except_list:DWORD
EXTRN	___security_cookie:DWORD
EXTRN	@__security_check_cookie@4:NEAR
EXTRN	___CxxFrameHandler:NEAR
;	COMDAT xdata$x
; File c:\documents and settings\test\mes documents\source\virtuos_v17\build\program\_common\file.h
xdata$x	SEGMENT
$T229374 DD	0ffffffffH
	DD	FLAT:$L229311
$T229368 DD	019930520H
	DD	01H
	DD	FLAT:$T229374
	DD	2 DUP(00H)
	DD	2 DUP(00H)
xdata$x	ENDS
;	COMDAT ??_C@_02JDPG@rb?$AA@
CONST	SEGMENT
??_C@_02JDPG@rb?$AA@ DB 'rb', 00H			; `string'
CONST	ENDS
;	COMDAT ??_C@_0BN@MFAGAFAH@IsAnimateFile?5?3?5?$CFs?5?$MA?P?$LB?b?5?$LN?G?F?P?$AA@
CONST	SEGMENT
??_C@_0BN@MFAGAFAH@IsAnimateFile?5?3?5?$CFs?5?$MA?P?$LB?b?5?$LN?G?F?P?$AA@ DB 'I'
	DB	'sAnimateFile : %s ', 0c0H, 0d0H, 0b1H, 0e2H, ' ', 0bdH, 0c7H, 0c6H
	DB	0d0H, 00H					; `string'
; Function compile flags: /Ogty
; File c:\documents and settings\test\mes documents\source\virtuos_v17\build\program\_common\object3d.cpp
CONST	ENDS
;	COMDAT ?IsAnimateFile@CObject3D@@SAHPBD@Z
_TEXT	SEGMENT
_resFp$ = -112						; size = 8
_c0$ = -101						; size = 1
_d0$ = -100						; size = 4
_f0$ = -96						; size = 4
_v$ = -92						; size = 12
_buff$ = -80						; size = 64
__$ArrayPad$ = -16					; size = 4
__$EHRec$ = -12						; size = 12
__$ReturnAddr$ = 4					; size = 4
_szFileName$ = 8					; size = 4
?IsAnimateFile@CObject3D@@SAHPBD@Z PROC NEAR		; CObject3D::IsAnimateFile, COMDAT

; 869  : {

  00000	6a ff		 push	 -1
  00002	68 00 00 00 00	 push	 __ehhandler$?IsAnimateFile@CObject3D@@SAHPBD@Z
  00007	64 a1 00 00 00
	00		 mov	 eax, DWORD PTR fs:__except_list
  0000d	50		 push	 eax
  0000e	64 89 25 00 00
	00 00		 mov	 DWORD PTR fs:__except_list, esp
  00015	83 ec 64	 sub	 esp, 100		; 00000064H
  00018	a1 00 00 00 00	 mov	 eax, DWORD PTR ___security_cookie
  0001d	33 c4		 xor	 eax, esp
  0001f	56		 push	 esi
  00020	8b 74 24 78	 mov	 esi, DWORD PTR _szFileName$[esp+112]
  00024	89 44 24 64	 mov	 DWORD PTR __$ArrayPad$[esp+116], eax

; 870  : 	CResFile resFp;

  00028	c7 44 24 04 00
	00 00 00	 mov	 DWORD PTR _resFp$[esp+116], OFFSET FLAT:??_7CFileIO@@6B@
  00030	c7 44 24 08 00
	00 00 00	 mov	 DWORD PTR _resFp$[esp+120], 0

; 871  : 
; 872  : 	BOOL bRet = resFp.Open( szFileName, "rb" );

  00038	68 00 00 00 00	 push	 OFFSET FLAT:??_C@_02JDPG@rb?$AA@
  0003d	56		 push	 esi
  0003e	8d 4c 24 0c	 lea	 ecx, DWORD PTR _resFp$[esp+124]
  00042	c7 44 24 78 00
	00 00 00	 mov	 DWORD PTR __$EHRec$[esp+132], 0
  0004a	e8 00 00 00 00	 call	 ?Open@CFileIO@@UAEHPBDPAD@Z ; CFileIO::Open

; 873  : 	if( bRet == FALSE )	

  0004f	85 c0		 test	 eax, eax
  00051	75 2f		 jne	 SHORT $L226063

; 874  : 	{
; 875  : 		Error( "IsAnimateFile : %s  ", szFileName );

  00053	56		 push	 esi
  00054	68 00 00 00 00	 push	 OFFSET FLAT:??_C@_0BN@MFAGAFAH@IsAnimateFile?5?3?5?$CFs?5?$MA?P?$LB?b?5?$LN?G?F?P?$AA@
  00059	e8 00 00 00 00	 call	 ?Error@@YAPBDPBDZZ	; Error
  0005e	83 c4 08	 add	 esp, 8

; 876  : 		return FAIL;

  00061	8d 4c 24 04	 lea	 ecx, DWORD PTR _resFp$[esp+116]
  00065	c7 44 24 70 ff
	ff ff ff	 mov	 DWORD PTR __$EHRec$[esp+124], -1
  0006d	c7 44 24 04 00
	00 00 00	 mov	 DWORD PTR _resFp$[esp+116], OFFSET FLAT:??_7CFileIO@@6B@
  00075	e8 00 00 00 00	 call	 ?Close@CFileIO@@UAEHXZ	; CFileIO::Close
  0007a	83 c8 ff	 or	 eax, -1
  0007d	e9 30 01 00 00	 jmp	 $L226059
$L226063:

; 877  : 	}
; 878  : 	char c0;
; 879  : 	int d0;
; 880  : 	char buff[64];
; 881  : 	D3DXVECTOR3 v;
; 882  : 	float f0;
; 883  : 
; 884  : 	resFp.Read( &c0, 1, 1 );		//    .

  00082	8b 44 24 08	 mov	 eax, DWORD PTR _resFp$[esp+120]
  00086	50		 push	 eax
  00087	6a 01		 push	 1
  00089	8d 4c 24 17	 lea	 ecx, DWORD PTR _c0$[esp+124]
  0008d	6a 01		 push	 1
  0008f	51		 push	 ecx
  00090	e8 00 00 00 00	 call	 _fread

; 885  : 	resFp.Read( buff, c0, 1 );	//  .

  00095	8b 54 24 18	 mov	 edx, DWORD PTR _resFp$[esp+136]
  00099	0f be 44 24 1f	 movsx	 eax, BYTE PTR _c0$[esp+132]
  0009e	52		 push	 edx
  0009f	6a 01		 push	 1
  000a1	50		 push	 eax
  000a2	8d 44 24 40	 lea	 eax, DWORD PTR _buff$[esp+144]
  000a6	50		 push	 eax
  000a7	e8 00 00 00 00	 call	 _fread

; 886  : 	resFp.Read( &d0, 4, 1 );		// 

  000ac	8b 4c 24 28	 mov	 ecx, DWORD PTR _resFp$[esp+152]
  000b0	51		 push	 ecx
  000b1	6a 01		 push	 1
  000b3	8d 54 24 38	 lea	 edx, DWORD PTR _d0$[esp+156]
  000b7	6a 04		 push	 4
  000b9	52		 push	 edx
  000ba	e8 00 00 00 00	 call	 _fread

; 887  : 	
; 888  : 	resFp.Read( &d0, 4, 1 );		// Serial ID

  000bf	8b 44 24 38	 mov	 eax, DWORD PTR _resFp$[esp+168]
  000c3	50		 push	 eax
  000c4	6a 01		 push	 1
  000c6	8d 4c 24 48	 lea	 ecx, DWORD PTR _d0$[esp+172]
  000ca	6a 04		 push	 4
  000cc	51		 push	 ecx
  000cd	e8 00 00 00 00	 call	 _fread

; 889  : 	resFp.Read( &v, sizeof(D3DXVECTOR3), 1 );		// 1,2    .

  000d2	8b 54 24 48	 mov	 edx, DWORD PTR _resFp$[esp+184]
  000d6	83 c4 40	 add	 esp, 64			; 00000040H
  000d9	52		 push	 edx
  000da	6a 01		 push	 1
  000dc	8d 44 24 20	 lea	 eax, DWORD PTR _v$[esp+124]
  000e0	6a 0c		 push	 12			; 0000000cH
  000e2	50		 push	 eax
  000e3	e8 00 00 00 00	 call	 _fread

; 890  : 	resFp.Read( &v, sizeof(D3DXVECTOR3), 1 );

  000e8	8b 4c 24 18	 mov	 ecx, DWORD PTR _resFp$[esp+136]
  000ec	51		 push	 ecx
  000ed	6a 01		 push	 1
  000ef	8d 54 24 30	 lea	 edx, DWORD PTR _v$[esp+140]
  000f3	6a 0c		 push	 12			; 0000000cH
  000f5	52		 push	 edx
  000f6	e8 00 00 00 00	 call	 _fread

; 891  : 	resFp.Read( &f0, sizeof(float), 1 );

  000fb	8b 44 24 28	 mov	 eax, DWORD PTR _resFp$[esp+152]
  000ff	50		 push	 eax
  00100	6a 01		 push	 1
  00102	8d 4c 24 3c	 lea	 ecx, DWORD PTR _f0$[esp+156]
  00106	6a 04		 push	 4
  00108	51		 push	 ecx
  00109	e8 00 00 00 00	 call	 _fread

; 892  : 	resFp.Read( &f0, sizeof(float), 1 );

  0010e	8b 54 24 38	 mov	 edx, DWORD PTR _resFp$[esp+168]
  00112	52		 push	 edx
  00113	6a 01		 push	 1
  00115	8d 44 24 4c	 lea	 eax, DWORD PTR _f0$[esp+172]
  00119	6a 04		 push	 4
  0011b	50		 push	 eax
  0011c	e8 00 00 00 00	 call	 _fread

; 893  : 	resFp.Seek( 16, SEEK_CUR );		// reserved

  00121	8b 4c 24 48	 mov	 ecx, DWORD PTR _resFp$[esp+184]
  00125	83 c4 40	 add	 esp, 64			; 00000040H
  00128	6a 01		 push	 1
  0012a	6a 10		 push	 16			; 00000010H
  0012c	51		 push	 ecx
  0012d	e8 00 00 00 00	 call	 _fseek

; 894  : 	
; 895  : 	resFp.Read( &v, sizeof(D3DXVECTOR3), 1 );		//   

  00132	8b 54 24 14	 mov	 edx, DWORD PTR _resFp$[esp+132]
  00136	52		 push	 edx
  00137	6a 01		 push	 1
  00139	8d 44 24 2c	 lea	 eax, DWORD PTR _v$[esp+136]
  0013d	6a 0c		 push	 12			; 0000000cH
  0013f	50		 push	 eax
  00140	e8 00 00 00 00	 call	 _fread

; 896  : 	resFp.Read( &v, sizeof(D3DXVECTOR3), 1 );

  00145	8b 4c 24 24	 mov	 ecx, DWORD PTR _resFp$[esp+148]
  00149	51		 push	 ecx
  0014a	6a 01		 push	 1
  0014c	8d 54 24 3c	 lea	 edx, DWORD PTR _v$[esp+152]
  00150	6a 0c		 push	 12			; 0000000cH
  00152	52		 push	 edx
  00153	e8 00 00 00 00	 call	 _fread

; 897  : 	resFp.Read( &f0, sizeof(float), 1 );		// per slerp

  00158	8b 44 24 34	 mov	 eax, DWORD PTR _resFp$[esp+164]
  0015c	50		 push	 eax
  0015d	6a 01		 push	 1
  0015f	8d 4c 24 48	 lea	 ecx, DWORD PTR _f0$[esp+168]
  00163	6a 04		 push	 4
  00165	51		 push	 ecx
  00166	e8 00 00 00 00	 call	 _fread

; 898  : 	resFp.Read( &d0, 4, 1 );					// ani frame .    0 .

  0016b	8b 54 24 44	 mov	 edx, DWORD PTR _resFp$[esp+180]
  0016f	52		 push	 edx
  00170	6a 01		 push	 1
  00172	8d 44 24 54	 lea	 eax, DWORD PTR _d0$[esp+184]
  00176	6a 04		 push	 4
  00178	50		 push	 eax
  00179	e8 00 00 00 00	 call	 _fread

; 899  : 
; 900  : 	BOOL bAnimate = FALSE;
; 901  : 	if( d0 > 0 )			// MaxFrame ?

  0017e	8b 44 24 5c	 mov	 eax, DWORD PTR _d0$[esp+192]
  00182	33 c9		 xor	 ecx, ecx
  00184	83 c4 4c	 add	 esp, 76			; 0000004cH
  00187	85 c0		 test	 eax, eax
  00189	0f 9f c1	 setg	 cl
  0018c	8b f1		 mov	 esi, ecx

; 902  : 		bAnimate = TRUE;
; 903  : 	else
; 904  : 		bAnimate = FALSE;
; 905  : 
; 906  : 	resFp.Close();

  0018e	8d 4c 24 04	 lea	 ecx, DWORD PTR _resFp$[esp+116]
  00192	e8 00 00 00 00	 call	 ?Close@CFileIO@@UAEHXZ	; CFileIO::Close

; 907  : 
; 908  : 	return bAnimate;

  00197	8d 4c 24 04	 lea	 ecx, DWORD PTR _resFp$[esp+116]
  0019b	c7 44 24 70 ff
	ff ff ff	 mov	 DWORD PTR __$EHRec$[esp+124], -1
  001a3	c7 44 24 04 00
	00 00 00	 mov	 DWORD PTR _resFp$[esp+116], OFFSET FLAT:??_7CFileIO@@6B@
  001ab	e8 00 00 00 00	 call	 ?Close@CFileIO@@UAEHXZ	; CFileIO::Close
  001b0	8b c6		 mov	 eax, esi
$L226059:

; 909  : }

  001b2	8b 4c 24 68	 mov	 ecx, DWORD PTR __$EHRec$[esp+116]
  001b6	64 89 0d 00 00
	00 00		 mov	 DWORD PTR fs:__except_list, ecx
  001bd	8b 4c 24 64	 mov	 ecx, DWORD PTR __$ArrayPad$[esp+116]
  001c1	5e		 pop	 esi
  001c2	33 cc		 xor	 ecx, esp
  001c4	e8 00 00 00 00	 call	 @__security_check_cookie@4
  001c9	83 c4 70	 add	 esp, 112		; 00000070H
  001cc	c3		 ret	 0
_TEXT	ENDS
;	COMDAT text$x
text$x	SEGMENT
$L229311:
  00000	8d 4d 90	 lea	 ecx, DWORD PTR _resFp$[ebp]
  00003	e9 00 00 00 00	 jmp	 ??1CFileIO@@UAE@XZ	; CFileIO::~CFileIO
__ehhandler$?IsAnimateFile@CObject3D@@SAHPBD@Z:
  00008	b8 00 00 00 00	 mov	 eax, OFFSET FLAT:$T229368
  0000d	e9 00 00 00 00	 jmp	 ___CxxFrameHandler
text$x	ENDS
?IsAnimateFile@CObject3D@@SAHPBD@Z ENDP			; CObject3D::IsAnimateFile
PUBLIC	??0SKINVERTEX@@QAE@XZ				; SKINVERTEX::SKINVERTEX
; Function compile flags: /Ogty
;	COMDAT ??0SKINVERTEX@@QAE@XZ
_TEXT	SEGMENT
??0SKINVERTEX@@QAE@XZ PROC NEAR				; SKINVERTEX::SKINVERTEX, COMDAT
; _this$ = ecx
  00000	8b c1		 mov	 eax, ecx
  00002	c3		 ret	 0
??0SKINVERTEX@@QAE@XZ ENDP				; SKINVERTEX::SKINVERTEX
_TEXT	ENDS
PUBLIC	??0NORMALVERTEX@@QAE@XZ				; NORMALVERTEX::NORMALVERTEX
; Function compile flags: /Ogty
;	COMDAT ??0NORMALVERTEX@@QAE@XZ
_TEXT	SEGMENT
??0NORMALVERTEX@@QAE@XZ PROC NEAR			; NORMALVERTEX::NORMALVERTEX, COMDAT
; _this$ = ecx
  00000	8b c1		 mov	 eax, ecx
  00002	c3		 ret	 0
??0NORMALVERTEX@@QAE@XZ ENDP				; NORMALVERTEX::NORMALVERTEX
_TEXT	ENDS
PUBLIC	??0TM_ANIMATION@@QAE@XZ				; TM_ANIMATION::TM_ANIMATION
; Function compile flags: /Ogty
;	COMDAT ??0TM_ANIMATION@@QAE@XZ
_TEXT	SEGMENT
??0TM_ANIMATION@@QAE@XZ PROC NEAR			; TM_ANIMATION::TM_ANIMATION, COMDAT
; _this$ = ecx
  00000	8b c1		 mov	 eax, ecx
  00002	c3		 ret	 0
??0TM_ANIMATION@@QAE@XZ ENDP				; TM_ANIMATION::TM_ANIMATION
_TEXT	ENDS
PUBLIC	??_C@_0CI@INGEON@SlideVectorXZ?3?$LN?$LK?E?$LC?$LP?$MA?$LK?j?A?$KH?F?$KO?5?$LJ?$NP?$LA?$NP?4@ ; `string'
PUBLIC	??_C@_0EI@DEOEDIHF@CActionMover?3?3ProcessCollisionGr@ ; `string'
PUBLIC	__real@3f800000
PUBLIC	__real@3f000000
PUBLIC	?SlideVectorXZ@CObject3D@@QAEHPAUD3DXVECTOR3@@ABU2@1ABUD3DXMATRIX@@HH@Z ; CObject3D::SlideVectorXZ
EXTRN	?IsTouchRayTri@@YAHPBUD3DXVECTOR3@@0000PAM@Z:NEAR ; IsTouchRayTri
EXTRN	?CalcSlideVec@@YAXPAUD3DXVECTOR3@@ABU1@1@Z:NEAR	; CalcSlideVec
EXTRN	_D3DXVec3Normalize@8:NEAR
EXTRN	_D3DXVec3TransformCoord@12:NEAR
EXTRN	_D3DXMatrixInverse@12:NEAR
;	COMDAT ??_C@_0CI@INGEON@SlideVectorXZ?3?$LN?$LK?E?$LC?$LP?$MA?$LK?j?A?$KH?F?$KO?5?$LJ?$NP?$LA?$NP?4@
; File c:\documents and settings\test\mes documents\source\virtuos_v17\build\program\dx_sdk\d3dx9math.inl
CONST	SEGMENT
??_C@_0CI@INGEON@SlideVectorXZ?3?$LN?$LK?E?$LC?$LP?$MA?$LK?j?A?$KH?F?$KO?5?$LJ?$NP?$LA?$NP?4@ DB 'S'
	DB	'lideVectorXZ:', 0bdH, 0baH, 0c5H, 0b2H, 0bfH, 0c0H, 0baH, 0eaH
	DB	0c1H, 0a7H, 0c6H, 0aeH, ' ', 0b9H, 0dfH, 0b0H, 0dfH, '. ', 0bfH
	DB	0a1H, 0b7H, 0afH, '%s', 00H			; `string'
CONST	ENDS
;	COMDAT __real@3f800000
CONST	SEGMENT
__real@3f800000 DD 03f800000r			; 1
CONST	ENDS
;	COMDAT __real@3f000000
CONST	SEGMENT
__real@3f000000 DD 03f000000r			; 0.5
CONST	ENDS
;	COMDAT ??_C@_0EI@DEOEDIHF@CActionMover?3?3ProcessCollisionGr@
CONST	SEGMENT
??_C@_0EI@DEOEDIHF@CActionMover?3?3ProcessCollisionGr@ DB 'CActionMover::'
	DB	'ProcessCollisionGround : ', 0c3H, 0e6H, 0b5H, 0b9H, 0c7H, 0d1H
	DB	' ', 0b8H, 0e9H, 0c0H, 0c7H, ' ', 0b3H, 0ebH, 0b8H, 0bbH, 0c0H
	DB	0ccH, ' ', 0bfH, 0cfH, 0c0H, 0fcH, ' ', 0bcH, 0f6H, 0c1H, 0f7H
	DB	0c0H, 0ccH, 0b4H, 0d9H, 00H			; `string'
; Function compile flags: /Ogty
; File c:\documents and settings\test\mes documents\source\virtuos_v17\build\program\_common\object3d.cpp
CONST	ENDS
;	COMDAT ?SlideVectorXZ@CObject3D@@QAEHPAUD3DXVECTOR3@@ABU2@1ABUD3DXMATRIX@@HH@Z
_TEXT	SEGMENT
$T229413 = -336						; size = 12
$T229412 = -336						; size = 12
$T229410 = -336						; size = 12
$T229409 = -336						; size = 12
_vB$ = -336						; size = 12
_fDist$ = -324						; size = 4
_v$229534 = -320					; size = 12
$T229415 = -320						; size = 12
$T229414 = -320						; size = 12
_pObject$ = -308					; size = 4
_vTemp$ = -304						; size = 12
_vA$ = -292						; size = 12
_vDir$ = -292						; size = 12
_nMaxObj$ = -280					; size = 4
tv675 = -276						; size = 4
_vN$ = -272						; size = 12
_nMaxFace$ = -260					; size = 4
_pVB$ = -256						; size = 4
_i$ = -252						; size = 4
_j$ = -248						; size = 4
_this$ = -244						; size = 4
$T229411 = -240						; size = 12
_vIntersect$ = -240					; size = 12
_vInvPos$ = -228					; size = 12
_vInvDir$ = -216					; size = 12
_vInvEnd$ = -204					; size = 12
_mInv$ = -192						; size = 64
_mTM$ = -128						; size = 64
_matT$229457 = -64					; size = 64
_pOut$ = 8						; size = 4
_vPos$ = 12						; size = 4
_vEnd$ = 16						; size = 4
_mWorld$ = 20						; size = 4
_bCollObj$ = 24						; size = 4
_nSlideCnt$ = 28					; size = 4
?SlideVectorXZ@CObject3D@@QAEHPAUD3DXVECTOR3@@ABU2@1ABUD3DXMATRIX@@HH@Z PROC NEAR ; CObject3D::SlideVectorXZ, COMDAT
; _this$ = ecx

; 1592 : {

  00000	81 ec 50 01 00
	00		 sub	 esp, 336		; 00000150H
  00006	56		 push	 esi
  00007	57		 push	 edi
  00008	8b f9		 mov	 edi, ecx

; 1593 : 	D3DXVECTOR3	*v1, *v2, *v3;
; 1594 : 	D3DXVECTOR3	vInvPos, vInvEnd, vInvDir, vDir, vIntersect;
; 1595 : 	D3DXVECTOR3 vA, vB, vN, vTemp;
; 1596 : 	D3DXMATRIX	mTM, mInv;
; 1597 : 	int		nMaxFace;
; 1598 : 	GMOBJECT* pObject = &m_CollObject;		//  .
; 1599 : //	GMOBJECT* pObject = m_Group[0].m_pObject;
; 1600 : 	NORMALVERTEX *pVB;
; 1601 : 	WORD		*pIB;
; 1602 : 	int		j;
; 1603 : 	FLOAT	fDist;
; 1604 : 	BOOL	bRet;
; 1605 : 
; 1606 : 	int i;
; 1607 : 	LOD_GROUP *pGroup = &m_Group[0];
; 1608 : 	int		nMaxObj = 1;
; 1609 : 	if( bCollObj == FALSE )		//   .

  0000a	8b 8c 24 6c 01
	00 00		 mov	 ecx, DWORD PTR _bCollObj$[esp+340]
  00011	33 c0		 xor	 eax, eax
  00013	3b c8		 cmp	 ecx, eax
  00015	8d b7 00 01 00
	00		 lea	 esi, DWORD PTR [edi+256]
  0001b	89 7c 24 64	 mov	 DWORD PTR _this$[esp+344], edi
  0001f	89 74 24 24	 mov	 DWORD PTR _pObject$[esp+344], esi
  00023	c7 44 24 40 01
	00 00 00	 mov	 DWORD PTR _nMaxObj$[esp+344], 1
  0002b	75 25		 jne	 SHORT $L226373

; 1610 : 	{
; 1611 : 		pObject = pGroup->m_pObject;

  0002d	8b 4f 08	 mov	 ecx, DWORD PTR [edi+8]

; 1612 : 		nMaxObj = pGroup->m_nMaxObject;

  00030	8b 57 04	 mov	 edx, DWORD PTR [edi+4]
  00033	89 4c 24 24	 mov	 DWORD PTR _pObject$[esp+344], ecx

; 1613 : 		if( pGroup->_mUpdate == NULL )		

  00037	39 47 0c	 cmp	 DWORD PTR [edi+12], eax
  0003a	89 54 24 40	 mov	 DWORD PTR _nMaxObj$[esp+344], edx
  0003e	75 0e		 jne	 SHORT $L229558
  00040	5f		 pop	 edi

; 1614 : 			return FAIL;

  00041	83 c8 ff	 or	 eax, -1
  00044	5e		 pop	 esi

; 1691 : }

  00045	81 c4 50 01 00
	00		 add	 esp, 336		; 00000150H
  0004b	c2 18 00	 ret	 24			; 00000018H
$L229558:

; 1613 : 		if( pGroup->_mUpdate == NULL )		

  0004e	8b 74 24 24	 mov	 esi, DWORD PTR _pObject$[esp+344]
$L226373:

; 1615 : 	}
; 1616 : 	
; 1617 : 	if( pObject->m_Type == GMT_ERROR )		return 0;

  00052	83 3e ff	 cmp	 DWORD PTR [esi], -1
  00055	75 0d		 jne	 SHORT $L226374
  00057	5f		 pop	 edi
  00058	33 c0		 xor	 eax, eax
  0005a	5e		 pop	 esi

; 1691 : }

  0005b	81 c4 50 01 00
	00		 add	 esp, 336		; 00000150H
  00061	c2 18 00	 ret	 24			; 00000018H
$L226374:

; 1618 : 
; 1619 : 	for( i = 0; i < nMaxObj; i++ )

  00064	39 44 24 40	 cmp	 DWORD PTR _nMaxObj$[esp+344], eax
  00068	53		 push	 ebx
  00069	55		 push	 ebp
  0006a	89 44 24 64	 mov	 DWORD PTR _i$[esp+352], eax
  0006e	0f 8e fe 01 00
	00		 jle	 $L226377
  00074	89 44 24 4c	 mov	 DWORD PTR tv675[esp+352], eax
  00078	eb 08		 jmp	 SHORT $L226375
$L229560:
  0007a	8b 74 24 2c	 mov	 esi, DWORD PTR _pObject$[esp+352]
  0007e	8b 7c 24 6c	 mov	 edi, DWORD PTR _this$[esp+352]
$L226375:

; 1620 : 	{
; 1621 : 		if( pObject->m_Type == GMT_SKIN )	

  00082	83 3e 01	 cmp	 DWORD PTR [esi], 1
  00085	75 14		 jne	 SHORT $L226378

; 1622 : 			Error( "SlideVectorXZ: . %s", m_szFileName ); 

  00087	8d 87 c0 00 00
	00		 lea	 eax, DWORD PTR [edi+192]
  0008d	50		 push	 eax
  0008e	68 00 00 00 00	 push	 OFFSET FLAT:??_C@_0CI@INGEON@SlideVectorXZ?3?$LN?$LK?E?$LC?$LP?$MA?$LK?j?A?$KH?F?$KO?5?$LJ?$NP?$LA?$NP?4@
  00093	e8 00 00 00 00	 call	 ?Error@@YAPBDPBDZZ	; Error
  00098	83 c4 08	 add	 esp, 8
$L226378:

; 1623 : 		nMaxFace = pObject->m_nMaxFaceList;
; 1624 : 		pIB = pObject->m_pIB;
; 1625 : 		pVB = (NORMALVERTEX*)(pObject->m_pVB);
; 1626 : 
; 1627 : 		if( bCollObj == FALSE )

  0009b	8b 84 24 74 01
	00 00		 mov	 eax, DWORD PTR _bCollObj$[esp+348]
  000a2	85 c0		 test	 eax, eax
  000a4	8b 8e 98 00 00
	00		 mov	 ecx, DWORD PTR [esi+152]
  000aa	8b ae a0 0a 00
	00		 mov	 ebp, DWORD PTR [esi+2720]
  000b0	8b 9e a4 0a 00
	00		 mov	 ebx, DWORD PTR [esi+2724]
  000b6	89 4c 24 5c	 mov	 DWORD PTR _nMaxFace$[esp+352], ecx
  000ba	89 6c 24 60	 mov	 DWORD PTR _pVB$[esp+352], ebp
  000be	75 26		 jne	 SHORT $L226381

; 1628 : 			mTM = pGroup->_mUpdate[i] * mWorld;

  000c0	8b 94 24 70 01
	00 00		 mov	 edx, DWORD PTR _mWorld$[esp+348]
  000c7	8b 47 0c	 mov	 eax, DWORD PTR [edi+12]
  000ca	52		 push	 edx
  000cb	03 44 24 50	 add	 eax, DWORD PTR tv675[esp+356]
  000cf	50		 push	 eax
  000d0	8d 8c 24 28 01
	00 00		 lea	 ecx, DWORD PTR _matT$229457[esp+360]
  000d7	51		 push	 ecx
  000d8	e8 00 00 00 00	 call	 _D3DXMatrixMultiply@12
  000dd	8d b4 24 20 01
	00 00		 lea	 esi, DWORD PTR _matT$229457[esp+352]

; 1629 : 		else

  000e4	eb 07		 jmp	 SHORT $L229563
$L226381:

; 1630 : 			mTM = mWorld;

  000e6	8b b4 24 70 01
	00 00		 mov	 esi, DWORD PTR _mWorld$[esp+348]
$L229563:

; 1631 : 
; 1632 : 		pObject++;
; 1633 : 		D3DXMatrixInverse( &mInv, NULL, &mTM );

  000ed	8d 94 24 e0 00
	00 00		 lea	 edx, DWORD PTR _mTM$[esp+352]
  000f4	8d bc 24 e0 00
	00 00		 lea	 edi, DWORD PTR _mTM$[esp+352]
  000fb	b9 10 00 00 00	 mov	 ecx, 16			; 00000010H
  00100	f3 a5		 rep movsd
  00102	8b 7c 24 2c	 mov	 edi, DWORD PTR _pObject$[esp+352]
  00106	52		 push	 edx
  00107	6a 00		 push	 0
  00109	8d 84 24 a8 00
	00 00		 lea	 eax, DWORD PTR _mInv$[esp+360]
  00110	81 c7 bc 0a 00
	00		 add	 edi, 2748		; 00000abcH
  00116	50		 push	 eax
  00117	89 7c 24 38	 mov	 DWORD PTR _pObject$[esp+364], edi
  0011b	e8 00 00 00 00	 call	 _D3DXMatrixInverse@12

; 1634 : 		D3DXVec3TransformCoord( &vInvPos, &vPos, &mInv );	// Line Geometry 

  00120	8b 94 24 68 01
	00 00		 mov	 edx, DWORD PTR _vPos$[esp+348]
  00127	8d 8c 24 a0 00
	00 00		 lea	 ecx, DWORD PTR _mInv$[esp+352]
  0012e	51		 push	 ecx
  0012f	52		 push	 edx
  00130	8d 84 24 84 00
	00 00		 lea	 eax, DWORD PTR _vInvPos$[esp+360]
  00137	50		 push	 eax
  00138	e8 00 00 00 00	 call	 _D3DXVec3TransformCoord@12

; 1635 : 		D3DXVec3TransformCoord( &vInvEnd, &vEnd, &mInv );	// Line  

  0013d	8b 94 24 6c 01
	00 00		 mov	 edx, DWORD PTR _vEnd$[esp+348]
  00144	8d 8c 24 a0 00
	00 00		 lea	 ecx, DWORD PTR _mInv$[esp+352]
  0014b	51		 push	 ecx
  0014c	52		 push	 edx
  0014d	8d 84 24 9c 00
	00 00		 lea	 eax, DWORD PTR _vInvEnd$[esp+360]
  00154	50		 push	 eax
  00155	e8 00 00 00 00	 call	 _D3DXVec3TransformCoord@12

; 1636 : 		vInvDir = vInvEnd - vInvPos;

  0015a	d9 84 24 94 00
	00 00		 fld	 DWORD PTR _vInvEnd$[esp+352]
  00161	d8 64 24 7c	 fsub	 DWORD PTR _vInvPos$[esp+352]

; 1637 : 		for( j = 0; j < nMaxFace; j++ )

  00165	c7 44 24 68 00
	00 00 00	 mov	 DWORD PTR _j$[esp+352], 0
  0016d	d9 5c 24 10	 fstp	 DWORD PTR $T229409[esp+352]
  00171	8b 4c 24 10	 mov	 ecx, DWORD PTR $T229409[esp+352]
  00175	d9 84 24 98 00
	00 00		 fld	 DWORD PTR _vInvEnd$[esp+356]
  0017c	89 8c 24 88 00
	00 00		 mov	 DWORD PTR _vInvDir$[esp+352], ecx
  00183	d8 a4 24 80 00
	00 00		 fsub	 DWORD PTR _vInvPos$[esp+356]
  0018a	d9 5c 24 14	 fstp	 DWORD PTR $T229409[esp+356]
  0018e	8b 54 24 14	 mov	 edx, DWORD PTR $T229409[esp+356]
  00192	d9 84 24 9c 00
	00 00		 fld	 DWORD PTR _vInvEnd$[esp+360]
  00199	89 94 24 8c 00
	00 00		 mov	 DWORD PTR _vInvDir$[esp+356], edx
  001a0	d8 a4 24 84 00
	00 00		 fsub	 DWORD PTR _vInvPos$[esp+360]
  001a7	d9 5c 24 18	 fstp	 DWORD PTR $T229409[esp+360]
  001ab	8b 44 24 18	 mov	 eax, DWORD PTR $T229409[esp+360]
  001af	89 84 24 90 00
	00 00		 mov	 DWORD PTR _vInvDir$[esp+360], eax
  001b6	8b 44 24 5c	 mov	 eax, DWORD PTR _nMaxFace$[esp+352]
  001ba	85 c0		 test	 eax, eax
  001bc	0f 8e 90 00 00
	00		 jle	 $L226376
  001c2	eb 0c		 jmp	 SHORT $L226385
$L229559:
  001c4	8b 6c 24 60	 mov	 ebp, DWORD PTR _pVB$[esp+352]
  001c8	eb 06 8d 9b 00
	00 00 00	 npad	 8
$L226385:

; 1638 : 		{
; 1639 : 			v1 = &pVB[ *pIB++ ].position;

  001d0	0f b7 33	 movzx	 esi, WORD PTR [ebx]

; 1640 : 			v2 = &pVB[ *pIB++ ].position;

  001d3	0f b7 7b 02	 movzx	 edi, WORD PTR [ebx+2]

; 1641 : 			v3 = &pVB[ *pIB++ ].position;

  001d7	8b 4c 24 60	 mov	 ecx, DWORD PTR _pVB$[esp+352]
  001db	83 c3 02	 add	 ebx, 2
  001de	c1 e6 05	 shl	 esi, 5
  001e1	03 f5		 add	 esi, ebp
  001e3	c1 e7 05	 shl	 edi, 5
  001e6	03 fd		 add	 edi, ebp
  001e8	0f b7 6b 02	 movzx	 ebp, WORD PTR [ebx+2]
  001ec	83 c3 02	 add	 ebx, 2
  001ef	c1 e5 05	 shl	 ebp, 5
  001f2	03 e9		 add	 ebp, ecx

; 1642 : 
; 1643 : //			FLOAT fU, fV;
; 1644 : //			bRet = D3DXIntersectTri( v1, v2, v3, &vInvPos, &vInvDir, &fU, &fV, &fDist );
; 1645 : 			bRet = IsTouchRayTri( v1, v2, v3, &vInvPos, &vInvDir, &fDist );

  001f4	8d 4c 24 1c	 lea	 ecx, DWORD PTR _fDist$[esp+352]
  001f8	51		 push	 ecx
  001f9	8d 94 24 8c 00
	00 00		 lea	 edx, DWORD PTR _vInvDir$[esp+356]
  00200	52		 push	 edx
  00201	8d 84 24 84 00
	00 00		 lea	 eax, DWORD PTR _vInvPos$[esp+360]
  00208	50		 push	 eax
  00209	55		 push	 ebp
  0020a	57		 push	 edi
  0020b	56		 push	 esi
  0020c	83 c3 02	 add	 ebx, 2
  0020f	e8 00 00 00 00	 call	 ?IsTouchRayTri@@YAHPBUD3DXVECTOR3@@0000PAM@Z ; IsTouchRayTri
  00214	83 c4 18	 add	 esp, 24			; 00000018H

; 1646 : 
; 1647 : 			if( bRet && fDist >= 0.0f )	//    .

  00217	85 c0		 test	 eax, eax
  00219	74 22		 je	 SHORT $L226386
  0021b	d9 44 24 1c	 fld	 DWORD PTR _fDist$[esp+352]
  0021f	d8 1d 00 00 00
	00		 fcomp	 DWORD PTR __real@00000000
  00225	df e0		 fnstsw	 ax
  00227	f6 c4 01	 test	 ah, 1
  0022a	75 11		 jne	 SHORT $L226386

; 1648 : 			{
; 1649 : 				//          
; 1650 : 				// S       .
; 1651 : 				if( fDist < 1.0f )

  0022c	d9 44 24 1c	 fld	 DWORD PTR _fDist$[esp+352]
  00230	d8 1d 00 00 00
	00		 fcomp	 DWORD PTR __real@3f800000
  00236	df e0		 fnstsw	 ax
  00238	f6 c4 05	 test	 ah, 5
  0023b	7b 44		 jnp	 SHORT $L229551
$L226386:

; 1637 : 		for( j = 0; j < nMaxFace; j++ )

  0023d	8b 44 24 68	 mov	 eax, DWORD PTR _j$[esp+352]
  00241	8b 4c 24 5c	 mov	 ecx, DWORD PTR _nMaxFace$[esp+352]
  00245	40		 inc	 eax
  00246	3b c1		 cmp	 eax, ecx
  00248	89 44 24 68	 mov	 DWORD PTR _j$[esp+352], eax
  0024c	0f 8c 72 ff ff
	ff		 jl	 $L229559
$L226376:

; 1618 : 
; 1619 : 	for( i = 0; i < nMaxObj; i++ )

  00252	8b 44 24 64	 mov	 eax, DWORD PTR _i$[esp+352]
  00256	8b 54 24 4c	 mov	 edx, DWORD PTR tv675[esp+352]
  0025a	8b 4c 24 48	 mov	 ecx, DWORD PTR _nMaxObj$[esp+352]
  0025e	40		 inc	 eax
  0025f	83 c2 40	 add	 edx, 64			; 00000040H
  00262	3b c1		 cmp	 eax, ecx
  00264	89 44 24 64	 mov	 DWORD PTR _i$[esp+352], eax
  00268	89 54 24 4c	 mov	 DWORD PTR tv675[esp+352], edx
  0026c	0f 8c 08 fe ff
	ff		 jl	 $L229560
$L226377:
  00272	5d		 pop	 ebp
  00273	5b		 pop	 ebx
  00274	5f		 pop	 edi

; 1685 : 				}
; 1686 : 			}
; 1687 : 		}
; 1688 : 	}
; 1689 : //	_nSlideCnt = 0;
; 1690 : 	return 0;

  00275	33 c0		 xor	 eax, eax
  00277	5e		 pop	 esi

; 1691 : }

  00278	81 c4 50 01 00
	00		 add	 esp, 336		; 00000150H
  0027e	c2 18 00	 ret	 24			; 00000018H
$L229551:

; 1652 : 				{
; 1653 : 					// Line   .
; 1654 : 					vDir = vEnd - vPos;

  00281	8b 84 24 6c 01
	00 00		 mov	 eax, DWORD PTR _vEnd$[esp+348]
  00288	8b 9c 24 68 01
	00 00		 mov	 ebx, DWORD PTR _vPos$[esp+348]
  0028f	d9 00		 fld	 DWORD PTR [eax]
  00291	d8 23		 fsub	 DWORD PTR [ebx]
  00293	d9 5c 24 10	 fstp	 DWORD PTR $T229410[esp+352]
  00297	8b 4c 24 10	 mov	 ecx, DWORD PTR $T229410[esp+352]
  0029b	d9 40 04	 fld	 DWORD PTR [eax+4]
  0029e	89 4c 24 3c	 mov	 DWORD PTR _vDir$[esp+352], ecx
  002a2	d8 63 04	 fsub	 DWORD PTR [ebx+4]
  002a5	d9 5c 24 14	 fstp	 DWORD PTR $T229410[esp+356]
  002a9	8b 54 24 14	 mov	 edx, DWORD PTR $T229410[esp+356]
  002ad	d9 40 08	 fld	 DWORD PTR [eax+8]
  002b0	89 54 24 40	 mov	 DWORD PTR _vDir$[esp+356], edx
  002b4	d8 63 08	 fsub	 DWORD PTR [ebx+8]
  002b7	d9 5c 24 18	 fstp	 DWORD PTR $T229410[esp+360]
  002bb	8b 44 24 18	 mov	 eax, DWORD PTR $T229410[esp+360]

; 1655 : 					fDist *= 0.5f;

  002bf	d9 44 24 1c	 fld	 DWORD PTR _fDist$[esp+352]
  002c3	89 44 24 44	 mov	 DWORD PTR _vDir$[esp+360], eax
  002c7	d8 0d 00 00 00
	00		 fmul	 DWORD PTR __real@3f000000
  002cd	d9 5c 24 1c	 fstp	 DWORD PTR _fDist$[esp+352]

; 1656 : 					vIntersect = vPos + fDist * vDir;	//  .

  002d1	d9 44 24 3c	 fld	 DWORD PTR _vDir$[esp+352]
  002d5	d8 4c 24 1c	 fmul	 DWORD PTR _fDist$[esp+352]
  002d9	d9 44 24 40	 fld	 DWORD PTR _vDir$[esp+356]
  002dd	d8 4c 24 1c	 fmul	 DWORD PTR _fDist$[esp+352]
  002e1	d9 44 24 44	 fld	 DWORD PTR _vDir$[esp+360]
  002e5	d8 4c 24 1c	 fmul	 DWORD PTR _fDist$[esp+352]
  002e9	d9 5c 24 78	 fstp	 DWORD PTR $T229411[esp+360]
  002ed	d9 c9		 fxch	 ST(1)
  002ef	d8 03		 fadd	 DWORD PTR [ebx]
  002f1	d9 5c 24 10	 fstp	 DWORD PTR $T229412[esp+352]
  002f5	8b 4c 24 10	 mov	 ecx, DWORD PTR $T229412[esp+352]
  002f9	89 4c 24 70	 mov	 DWORD PTR _vIntersect$[esp+352], ecx
  002fd	d8 43 04	 fadd	 DWORD PTR [ebx+4]
  00300	d9 5c 24 14	 fstp	 DWORD PTR $T229412[esp+356]
  00304	8b 54 24 14	 mov	 edx, DWORD PTR $T229412[esp+356]
  00308	d9 44 24 78	 fld	 DWORD PTR $T229411[esp+360]
  0030c	89 54 24 74	 mov	 DWORD PTR _vIntersect$[esp+356], edx
  00310	d8 43 08	 fadd	 DWORD PTR [ebx+8]
  00313	d9 5c 24 18	 fstp	 DWORD PTR $T229412[esp+360]
  00317	8b 44 24 18	 mov	 eax, DWORD PTR $T229412[esp+360]

; 1657 : 
; 1658 : 					vA = *v2 - *v1;

  0031b	d9 07		 fld	 DWORD PTR [edi]
  0031d	89 44 24 78	 mov	 DWORD PTR _vIntersect$[esp+360], eax
  00321	d8 26		 fsub	 DWORD PTR [esi]
  00323	d9 5c 24 10	 fstp	 DWORD PTR $T229413[esp+352]
  00327	8b 4c 24 10	 mov	 ecx, DWORD PTR $T229413[esp+352]
  0032b	d9 47 04	 fld	 DWORD PTR [edi+4]
  0032e	89 4c 24 3c	 mov	 DWORD PTR _vA$[esp+352], ecx
  00332	d8 66 04	 fsub	 DWORD PTR [esi+4]
  00335	d9 5c 24 14	 fstp	 DWORD PTR $T229413[esp+356]
  00339	8b 54 24 14	 mov	 edx, DWORD PTR $T229413[esp+356]
  0033d	d9 47 08	 fld	 DWORD PTR [edi+8]
  00340	89 54 24 40	 mov	 DWORD PTR _vA$[esp+356], edx
  00344	d8 66 08	 fsub	 DWORD PTR [esi+8]
  00347	d9 5c 24 18	 fstp	 DWORD PTR $T229413[esp+360]
  0034b	8b 44 24 18	 mov	 eax, DWORD PTR $T229413[esp+360]

; 1659 : 					vB = *v3 - *v1;

  0034f	d9 45 00	 fld	 DWORD PTR [ebp]
  00352	89 44 24 44	 mov	 DWORD PTR _vA$[esp+360], eax
  00356	d8 26		 fsub	 DWORD PTR [esi]
  00358	d9 5c 24 20	 fstp	 DWORD PTR $T229414[esp+352]
  0035c	8b 4c 24 20	 mov	 ecx, DWORD PTR $T229414[esp+352]
  00360	d9 45 04	 fld	 DWORD PTR [ebp+4]
  00363	89 4c 24 10	 mov	 DWORD PTR _vB$[esp+352], ecx
  00367	d8 66 04	 fsub	 DWORD PTR [esi+4]
  0036a	d9 5c 24 24	 fstp	 DWORD PTR $T229414[esp+356]
  0036e	8b 54 24 24	 mov	 edx, DWORD PTR $T229414[esp+356]
  00372	d9 45 08	 fld	 DWORD PTR [ebp+8]
  00375	89 54 24 14	 mov	 DWORD PTR _vB$[esp+356], edx
  00379	d8 66 08	 fsub	 DWORD PTR [esi+8]
  0037c	d9 5c 24 28	 fstp	 DWORD PTR $T229414[esp+360]
  00380	8b 44 24 28	 mov	 eax, DWORD PTR $T229414[esp+360]
  00384	89 44 24 18	 mov	 DWORD PTR _vB$[esp+360], eax

; 1660 : 					D3DXVec3Cross( &vN, &vA, &vB );		//    .    .

  00388	d9 44 24 18	 fld	 DWORD PTR _vB$[esp+360]
  0038c	d8 4c 24 40	 fmul	 DWORD PTR _vA$[esp+356]
  00390	d9 44 24 14	 fld	 DWORD PTR _vB$[esp+356]
  00394	d8 4c 24 44	 fmul	 DWORD PTR _vA$[esp+360]
  00398	de e9		 fsubp	 ST(1), ST(0)
  0039a	d9 5c 24 20	 fstp	 DWORD PTR _v$229534[esp+352]
  0039e	d9 44 24 44	 fld	 DWORD PTR _vA$[esp+360]
  003a2	d8 4c 24 10	 fmul	 DWORD PTR _vB$[esp+352]
  003a6	d9 44 24 18	 fld	 DWORD PTR _vB$[esp+360]
  003aa	d8 4c 24 3c	 fmul	 DWORD PTR _vA$[esp+352]
  003ae	8b 4c 24 20	 mov	 ecx, DWORD PTR _v$229534[esp+352]
  003b2	de e9		 fsubp	 ST(1), ST(0)
  003b4	89 4c 24 50	 mov	 DWORD PTR _vN$[esp+352], ecx

; 1661 : 					mInv = mTM;

  003b8	b9 10 00 00 00	 mov	 ecx, 16			; 00000010H
  003bd	d9 5c 24 24	 fstp	 DWORD PTR _v$229534[esp+356]
  003c1	8b 54 24 24	 mov	 edx, DWORD PTR _v$229534[esp+356]
  003c5	d9 44 24 14	 fld	 DWORD PTR _vB$[esp+356]
  003c9	8d b4 24 e0 00
	00 00		 lea	 esi, DWORD PTR _mTM$[esp+352]
  003d0	d8 4c 24 3c	 fmul	 DWORD PTR _vA$[esp+352]
  003d4	8d bc 24 a0 00
	00 00		 lea	 edi, DWORD PTR _mInv$[esp+352]
  003db	d9 44 24 40	 fld	 DWORD PTR _vA$[esp+356]
  003df	f3 a5		 rep movsd
  003e1	d8 4c 24 10	 fmul	 DWORD PTR _vB$[esp+352]
  003e5	de e9		 fsubp	 ST(1), ST(0)
  003e7	d9 5c 24 28	 fstp	 DWORD PTR _v$229534[esp+360]
  003eb	8b 44 24 28	 mov	 eax, DWORD PTR _v$229534[esp+360]

; 1662 : 					mInv._41 = mInv._42 = mInv._43 = 0;
; 1663 : 					D3DXVec3TransformCoord( &vN, &vN, &mInv );	//   (mWorld).

  003ef	8d 8c 24 a0 00
	00 00		 lea	 ecx, DWORD PTR _mInv$[esp+352]
  003f6	89 54 24 54	 mov	 DWORD PTR _vN$[esp+356], edx
  003fa	51		 push	 ecx
  003fb	8d 54 24 54	 lea	 edx, DWORD PTR _vN$[esp+356]
  003ff	89 44 24 5c	 mov	 DWORD PTR _vN$[esp+364], eax
  00403	52		 push	 edx
  00404	8b c2		 mov	 eax, edx
  00406	50		 push	 eax
  00407	c7 84 24 e4 00
	00 00 00 00 00
	00		 mov	 DWORD PTR _mInv$[esp+420], 0
  00412	c7 84 24 e0 00
	00 00 00 00 00
	00		 mov	 DWORD PTR _mInv$[esp+416], 0
  0041d	c7 84 24 dc 00
	00 00 00 00 00
	00		 mov	 DWORD PTR _mInv$[esp+412], 0
  00428	e8 00 00 00 00	 call	 _D3DXVec3TransformCoord@12

; 1664 : 
; 1665 : 					if( vN.x == 0 && vN.z == 0 )

  0042d	d9 05 00 00 00
	00		 fld	 DWORD PTR __real@00000000
  00433	d9 44 24 50	 fld	 DWORD PTR _vN$[esp+352]
  00437	da e9		 fucompp
  00439	df e0		 fnstsw	 ax
  0043b	f6 c4 44	 test	 ah, 68			; 00000044H
  0043e	7a 20		 jp	 SHORT $L226395
  00440	d9 05 00 00 00
	00		 fld	 DWORD PTR __real@00000000
  00446	d9 44 24 58	 fld	 DWORD PTR _vN$[esp+360]
  0044a	da e9		 fucompp
  0044c	df e0		 fnstsw	 ax
  0044e	f6 c4 44	 test	 ah, 68			; 00000044H
  00451	7a 0d		 jp	 SHORT $L226395

; 1666 : 						Error( "CActionMover::ProcessCollisionGround :     " );

  00453	68 00 00 00 00	 push	 OFFSET FLAT:??_C@_0EI@DEOEDIHF@CActionMover?3?3ProcessCollisionGr@
  00458	e8 00 00 00 00	 call	 ?Error@@YAPBDPBDZZ	; Error
  0045d	83 c4 04	 add	 esp, 4
$L226395:

; 1667 : 
; 1668 : 					vN.y = 0;	// y    
; 1669 : 					D3DXVec3Normalize( &vN, &vN );		//   

  00460	8d 4c 24 50	 lea	 ecx, DWORD PTR _vN$[esp+352]
  00464	51		 push	 ecx
  00465	8b d1		 mov	 edx, ecx
  00467	52		 push	 edx
  00468	c7 44 24 5c 00
	00 00 00	 mov	 DWORD PTR _vN$[esp+364], 0
  00470	e8 00 00 00 00	 call	 _D3DXVec3Normalize@8

; 1670 : 					
; 1671 : 					// ,  vIntersect vN   .
; 1672 : 					vTemp = vEnd - vIntersect;		//  -  vector V 

  00475	8b 84 24 6c 01
	00 00		 mov	 eax, DWORD PTR _vEnd$[esp+348]
  0047c	d9 00		 fld	 DWORD PTR [eax]
  0047e	d8 64 24 70	 fsub	 DWORD PTR _vIntersect$[esp+352]
  00482	d9 5c 24 20	 fstp	 DWORD PTR $T229415[esp+352]
  00486	d9 40 04	 fld	 DWORD PTR [eax+4]
  00489	d8 64 24 74	 fsub	 DWORD PTR _vIntersect$[esp+356]
  0048d	d9 5c 24 24	 fstp	 DWORD PTR $T229415[esp+356]
  00491	8b 4c 24 24	 mov	 ecx, DWORD PTR $T229415[esp+356]
  00495	d9 40 08	 fld	 DWORD PTR [eax+8]
  00498	8b 44 24 20	 mov	 eax, DWORD PTR $T229415[esp+352]
  0049c	d8 64 24 78	 fsub	 DWORD PTR _vIntersect$[esp+360]
  004a0	89 44 24 30	 mov	 DWORD PTR _vTemp$[esp+352], eax

; 1673 : 					CalcSlideVec( &vTemp, vTemp, vN );

  004a4	8d 44 24 50	 lea	 eax, DWORD PTR _vN$[esp+352]
  004a8	89 4c 24 34	 mov	 DWORD PTR _vTemp$[esp+356], ecx
  004ac	d9 5c 24 28	 fstp	 DWORD PTR $T229415[esp+360]
  004b0	8b 54 24 28	 mov	 edx, DWORD PTR $T229415[esp+360]
  004b4	50		 push	 eax
  004b5	8d 4c 24 34	 lea	 ecx, DWORD PTR _vTemp$[esp+356]
  004b9	89 54 24 3c	 mov	 DWORD PTR _vTemp$[esp+364], edx
  004bd	51		 push	 ecx
  004be	8b d1		 mov	 edx, ecx
  004c0	52		 push	 edx
  004c1	e8 00 00 00 00	 call	 ?CalcSlideVec@@YAXPAUD3DXVECTOR3@@ABU1@1@Z ; CalcSlideVec

; 1674 : //					vTemp += vIntersect;
; 1675 : //					*pOut = vTemp - vPos;
; 1676 : 					*pOut = vTemp;
; 1677 : 
; 1678 : 					vTemp += vPos;

  004c6	d9 44 24 3c	 fld	 DWORD PTR _vTemp$[esp+364]
  004ca	8b 8c 24 70 01
	00 00		 mov	 ecx, DWORD PTR _pOut$[esp+360]
  004d1	8b 54 24 3c	 mov	 edx, DWORD PTR _vTemp$[esp+364]
  004d5	8b c1		 mov	 eax, ecx
  004d7	89 10		 mov	 DWORD PTR [eax], edx
  004d9	8b 54 24 40	 mov	 edx, DWORD PTR _vTemp$[esp+368]
  004dd	89 50 04	 mov	 DWORD PTR [eax+4], edx
  004e0	8b 54 24 44	 mov	 edx, DWORD PTR _vTemp$[esp+372]
  004e4	89 50 08	 mov	 DWORD PTR [eax+8], edx
  004e7	d8 03		 fadd	 DWORD PTR [ebx]

; 1679 : 					
; 1680 : 					if( ++nSlideCnt < 3 )  //   

  004e9	8b 84 24 84 01
	00 00		 mov	 eax, DWORD PTR _nSlideCnt$[esp+360]
  004f0	83 c4 0c	 add	 esp, 12			; 0000000cH
  004f3	d9 5c 24 30	 fstp	 DWORD PTR _vTemp$[esp+352]
  004f7	40		 inc	 eax
  004f8	83 f8 03	 cmp	 eax, 3
  004fb	d9 44 24 34	 fld	 DWORD PTR _vTemp$[esp+356]
  004ff	d8 43 04	 fadd	 DWORD PTR [ebx+4]
  00502	d9 5c 24 34	 fstp	 DWORD PTR _vTemp$[esp+356]
  00506	d9 44 24 38	 fld	 DWORD PTR _vTemp$[esp+360]
  0050a	d8 43 08	 fadd	 DWORD PTR [ebx+8]
  0050d	d9 5c 24 38	 fstp	 DWORD PTR _vTemp$[esp+360]
  00511	7d 24		 jge	 SHORT $L226398

; 1681 : 						SlideVectorXZ( pOut, vPos, vTemp, mWorld, bCollObj, nSlideCnt );		//   vPos -.-;;;

  00513	8b 94 24 70 01
	00 00		 mov	 edx, DWORD PTR _mWorld$[esp+348]
  0051a	50		 push	 eax
  0051b	8b 84 24 78 01
	00 00		 mov	 eax, DWORD PTR _bCollObj$[esp+352]
  00522	50		 push	 eax
  00523	52		 push	 edx
  00524	8d 44 24 3c	 lea	 eax, DWORD PTR _vTemp$[esp+364]
  00528	50		 push	 eax
  00529	53		 push	 ebx
  0052a	51		 push	 ecx
  0052b	8b 8c 24 84 00
	00 00		 mov	 ecx, DWORD PTR _this$[esp+376]
  00532	e8 00 00 00 00	 call	 ?SlideVectorXZ@CObject3D@@QAEHPAUD3DXVECTOR3@@ABU2@1ABUD3DXMATRIX@@HH@Z ; CObject3D::SlideVectorXZ
$L226398:
  00537	5d		 pop	 ebp
  00538	5b		 pop	 ebx
  00539	5f		 pop	 edi

; 1682 : 					
; 1683 : //					nSlideCnt = 0;
; 1684 : 					return 1;

  0053a	b8 01 00 00 00	 mov	 eax, 1
  0053f	5e		 pop	 esi

; 1691 : }

  00540	81 c4 50 01 00
	00		 add	 esp, 336		; 00000150H
  00546	c2 18 00	 ret	 24			; 00000018H
?SlideVectorXZ@CObject3D@@QAEHPAUD3DXVECTOR3@@ABU2@1ABUD3DXMATRIX@@HH@Z ENDP ; CObject3D::SlideVectorXZ
_TEXT	ENDS
PUBLIC	?SlideVectorXZ2@CObject3D@@QAEHPAUD3DXVECTOR3@@0ABU2@1ABUD3DXMATRIX@@H@Z ; CObject3D::SlideVectorXZ2
PUBLIC	__real@40400000
PUBLIC	__real@3e4ccccd
;	COMDAT __real@40400000
; File c:\documents and settings\test\mes documents\source\virtuos_v17\build\program\dx_sdk\d3dx9math.inl
CONST	SEGMENT
__real@40400000 DD 040400000r			; 3
CONST	ENDS
;	COMDAT __real@3e4ccccd
CONST	SEGMENT
__real@3e4ccccd DD 03e4ccccdr			; 0.2
; Function compile flags: /Ogty
; File c:\documents and settings\test\mes documents\source\virtuos_v17\build\program\_common\object3d.cpp
CONST	ENDS
;	COMDAT ?SlideVectorXZ2@CObject3D@@QAEHPAUD3DXVECTOR3@@0ABU2@1ABUD3DXMATRIX@@H@Z
_TEXT	SEGMENT
_v$229840 = -348					; size = 12
_v$229743 = -348					; size = 12
$T229583 = -348						; size = 12
$T229582 = -348						; size = 12
$T229581 = -348						; size = 12
$T229579 = -348						; size = 12
$T229578 = -348						; size = 12
$T229577 = -348						; size = 12
$T229575 = -348						; size = 12
$T229572 = -348						; size = 12
$T229570 = -348						; size = 12
_fDist$ = -336						; size = 4
$T229574 = -332						; size = 12
$T229573 = -332						; size = 12
$T229571 = -332						; size = 12
$T229569 = -332						; size = 12
_vB$ = -332						; size = 12
$T229580 = -320						; size = 12
_vDir$ = -320						; size = 12
_vN$ = -308						; size = 12
_vTemp$ = -296						; size = 12
_vA$ = -284						; size = 12
$T229568 = -272						; size = 12
_vIntersect$ = -272					; size = 12
_pObject$ = -260					; size = 4
_nMaxObj$ = -256					; size = 4
tv1033 = -252						; size = 4
_i$ = -248						; size = 4
_j$ = -244						; size = 4
_nMaxFace$ = -240					; size = 4
_pVB$ = -236						; size = 4
_this$ = -232						; size = 4
_vInvPos$ = -228					; size = 12
_vInvEnd$ = -216					; size = 12
_vInvDir$ = -204					; size = 12
_mInv$ = -192						; size = 64
_mTM$ = -128						; size = 64
_matT$229625 = -64					; size = 64
_pOut$ = 8						; size = 4
_pIntersect$ = 12					; size = 4
_vPos$ = 16						; size = 4
_vEnd$ = 20						; size = 4
_mWorld$ = 24						; size = 4
_bCollObj$ = 28						; size = 4
?SlideVectorXZ2@CObject3D@@QAEHPAUD3DXVECTOR3@@0ABU2@1ABUD3DXMATRIX@@H@Z PROC NEAR ; CObject3D::SlideVectorXZ2, COMDAT
; _this$ = ecx

; 1697 : {

  00000	81 ec 5c 01 00
	00		 sub	 esp, 348		; 0000015cH
  00006	56		 push	 esi
  00007	57		 push	 edi
  00008	8b f9		 mov	 edi, ecx

; 1698 : 	D3DXVECTOR3	*v1, *v2, *v3;
; 1699 : 	D3DXVECTOR3	vInvPos, vInvEnd, vInvDir, vDir, vIntersect;
; 1700 : 	D3DXVECTOR3 vA, vB, vN, vTemp;
; 1701 : 	D3DXMATRIX	mTM, mInv;
; 1702 : 	int		nMaxFace;
; 1703 : 	GMOBJECT* pObject = &m_CollObject;		//  .
; 1704 : 	NORMALVERTEX *pVB;
; 1705 : 	WORD		*pIB;
; 1706 : 	int		j;
; 1707 : 	FLOAT	fDist;
; 1708 : 	BOOL	bRet;
; 1709 : 
; 1710 : 	int i;
; 1711 : 	LOD_GROUP *pGroup = &m_Group[0];
; 1712 : 	int		nMaxObj = 1;
; 1713 : 	if( bCollObj == FALSE )		//   .

  0000a	8b 8c 24 7c 01
	00 00		 mov	 ecx, DWORD PTR _bCollObj$[esp+352]
  00011	33 c0		 xor	 eax, eax
  00013	3b c8		 cmp	 ecx, eax
  00015	8d b7 00 01 00
	00		 lea	 esi, DWORD PTR [edi+256]
  0001b	89 7c 24 7c	 mov	 DWORD PTR _this$[esp+356], edi
  0001f	89 74 24 60	 mov	 DWORD PTR _pObject$[esp+356], esi
  00023	c7 44 24 64 01
	00 00 00	 mov	 DWORD PTR _nMaxObj$[esp+356], 1
  0002b	75 25		 jne	 SHORT $L226433

; 1714 : 	{
; 1715 : 		pObject = pGroup->m_pObject;

  0002d	8b 4f 08	 mov	 ecx, DWORD PTR [edi+8]

; 1716 : 		nMaxObj = pGroup->m_nMaxObject;

  00030	8b 57 04	 mov	 edx, DWORD PTR [edi+4]
  00033	89 4c 24 60	 mov	 DWORD PTR _pObject$[esp+356], ecx

; 1717 : 		if( pGroup->_mUpdate == NULL )		return FAIL;

  00037	39 47 0c	 cmp	 DWORD PTR [edi+12], eax
  0003a	89 54 24 64	 mov	 DWORD PTR _nMaxObj$[esp+356], edx
  0003e	75 0e		 jne	 SHORT $L229864
  00040	5f		 pop	 edi
  00041	83 c8 ff	 or	 eax, -1
  00044	5e		 pop	 esi

; 1833 : #else
; 1834 : 			if( bRet && fDist >= 0.0f )	//    .
; 1835 : 			{
; 1836 : 				//          
; 1837 : 				// S       .
; 1838 : 				if( fDist < 1.0f )
; 1839 : 				{
; 1840 : 					// Line   .
; 1841 : 					vDir = vEnd - vPos;
; 1842 : //					fDist *= 0.5f;
; 1843 : 					vIntersect = vPos + fDist * vDir;	//  .
; 1844 : 					vA = *v2 - *v1;
; 1845 : 					vB = *v3 - *v1;
; 1846 : 					D3DXVec3Cross( &vN, &vA, &vB );		//    .    .
; 1847 : 					mInv = mTM;
; 1848 : 					mInv._41 = mInv._42 = mInv._43 = 0;
; 1849 : 					D3DXVec3TransformCoord( &vN, &vN, &mInv );	//   (mWorld).
; 1850 : 
; 1851 : 					if( vN.x == 0 && vN.z == 0 )
; 1852 : 						Error( "CActionMover::ProcessCollisionGround :     " );
; 1853 : 
; 1854 : 					vN.y = 0;	// y    
; 1855 : 					D3DXVec3Normalize( &vN, &vN );		//   
; 1856 : 					
; 1857 : 					// ,  vIntersect vN   .
; 1858 : 					vTemp = vEnd - vIntersect;		//  -  vector V 
; 1859 : 					*pIntersect = vIntersect;		//  
; 1860 : 					CalcSlideVec( &vTemp, vTemp, vN );
; 1861 : 					
; 1862 : 					*pOut = vTemp;		//     .
; 1863 : //					*pOut = vTemp;
; 1864 : 					
; 1865 : 					return 1;
; 1866 : 				}
; 1867 : 			}
; 1868 : 		}
; 1869 : 	}
; 1870 : 	return 0;
; 1871 : #endif		
; 1872 : 			
; 1873 : 					
; 1874 : 
; 1875 : 					
; 1876 : }

  00045	81 c4 5c 01 00
	00		 add	 esp, 348		; 0000015cH
  0004b	c2 18 00	 ret	 24			; 00000018H
$L229864:

; 1717 : 		if( pGroup->_mUpdate == NULL )		return FAIL;

  0004e	8b 74 24 60	 mov	 esi, DWORD PTR _pObject$[esp+356]
$L226433:

; 1718 : 	}
; 1719 : 
; 1720 : 	
; 1721 : 	if( pObject->m_Type == GMT_ERROR )		return 0;

  00052	83 3e ff	 cmp	 DWORD PTR [esi], -1
  00055	75 0d		 jne	 SHORT $L226434
  00057	5f		 pop	 edi
  00058	33 c0		 xor	 eax, eax
  0005a	5e		 pop	 esi

; 1833 : #else
; 1834 : 			if( bRet && fDist >= 0.0f )	//    .
; 1835 : 			{
; 1836 : 				//          
; 1837 : 				// S       .
; 1838 : 				if( fDist < 1.0f )
; 1839 : 				{
; 1840 : 					// Line   .
; 1841 : 					vDir = vEnd - vPos;
; 1842 : //					fDist *= 0.5f;
; 1843 : 					vIntersect = vPos + fDist * vDir;	//  .
; 1844 : 					vA = *v2 - *v1;
; 1845 : 					vB = *v3 - *v1;
; 1846 : 					D3DXVec3Cross( &vN, &vA, &vB );		//    .    .
; 1847 : 					mInv = mTM;
; 1848 : 					mInv._41 = mInv._42 = mInv._43 = 0;
; 1849 : 					D3DXVec3TransformCoord( &vN, &vN, &mInv );	//   (mWorld).
; 1850 : 
; 1851 : 					if( vN.x == 0 && vN.z == 0 )
; 1852 : 						Error( "CActionMover::ProcessCollisionGround :     " );
; 1853 : 
; 1854 : 					vN.y = 0;	// y    
; 1855 : 					D3DXVec3Normalize( &vN, &vN );		//   
; 1856 : 					
; 1857 : 					// ,  vIntersect vN   .
; 1858 : 					vTemp = vEnd - vIntersect;		//  -  vector V 
; 1859 : 					*pIntersect = vIntersect;		//  
; 1860 : 					CalcSlideVec( &vTemp, vTemp, vN );
; 1861 : 					
; 1862 : 					*pOut = vTemp;		//     .
; 1863 : //					*pOut = vTemp;
; 1864 : 					
; 1865 : 					return 1;
; 1866 : 				}
; 1867 : 			}
; 1868 : 		}
; 1869 : 	}
; 1870 : 	return 0;
; 1871 : #endif		
; 1872 : 			
; 1873 : 					
; 1874 : 
; 1875 : 					
; 1876 : }

  0005b	81 c4 5c 01 00
	00		 add	 esp, 348		; 0000015cH
  00061	c2 18 00	 ret	 24			; 00000018H
$L226434:

; 1722 : 
; 1723 : 	for( i = 0; i < nMaxObj; i++ )

  00064	39 44 24 64	 cmp	 DWORD PTR _nMaxObj$[esp+356], eax
  00068	53		 push	 ebx
  00069	55		 push	 ebp
  0006a	89 44 24 74	 mov	 DWORD PTR _i$[esp+364], eax
  0006e	0f 8e 04 03 00
	00		 jle	 $L226437
  00074	89 44 24 70	 mov	 DWORD PTR tv1033[esp+364], eax
  00078	eb 0b		 jmp	 SHORT $L226435
$L229866:
  0007a	8b 74 24 68	 mov	 esi, DWORD PTR _pObject$[esp+364]
  0007e	8b bc 24 84 00
	00 00		 mov	 edi, DWORD PTR _this$[esp+364]
$L226435:

; 1724 : 	{
; 1725 : 		if( pObject->m_Type == GMT_SKIN )	

  00085	83 3e 01	 cmp	 DWORD PTR [esi], 1
  00088	75 14		 jne	 SHORT $L226438

; 1726 : 			Error( "SlideVectorXZ: . %s", m_szFileName ); 

  0008a	8d 87 c0 00 00
	00		 lea	 eax, DWORD PTR [edi+192]
  00090	50		 push	 eax
  00091	68 00 00 00 00	 push	 OFFSET FLAT:??_C@_0CI@INGEON@SlideVectorXZ?3?$LN?$LK?E?$LC?$LP?$MA?$LK?j?A?$KH?F?$KO?5?$LJ?$NP?$LA?$NP?4@
  00096	e8 00 00 00 00	 call	 ?Error@@YAPBDPBDZZ	; Error
  0009b	83 c4 08	 add	 esp, 8
$L226438:

; 1727 : 
; 1728 : 		nMaxFace = pObject->m_nMaxFaceList;
; 1729 : 		pIB = pObject->m_pIB;
; 1730 : 		pVB = (NORMALVERTEX*)(pObject->m_pVB);
; 1731 : 		if( bCollObj == FALSE )

  0009e	8b 84 24 84 01
	00 00		 mov	 eax, DWORD PTR _bCollObj$[esp+360]
  000a5	85 c0		 test	 eax, eax
  000a7	8b 8e 98 00 00
	00		 mov	 ecx, DWORD PTR [esi+152]
  000ad	8b 9e a0 0a 00
	00		 mov	 ebx, DWORD PTR [esi+2720]
  000b3	8b ae a4 0a 00
	00		 mov	 ebp, DWORD PTR [esi+2724]
  000b9	89 4c 24 7c	 mov	 DWORD PTR _nMaxFace$[esp+364], ecx
  000bd	89 9c 24 80 00
	00 00		 mov	 DWORD PTR _pVB$[esp+364], ebx
  000c4	75 26		 jne	 SHORT $L226440

; 1732 : 			mTM = pGroup->_mUpdate[i] * mWorld;

  000c6	8b 94 24 80 01
	00 00		 mov	 edx, DWORD PTR _mWorld$[esp+360]
  000cd	8b 47 0c	 mov	 eax, DWORD PTR [edi+12]
  000d0	52		 push	 edx
  000d1	03 44 24 74	 add	 eax, DWORD PTR tv1033[esp+368]
  000d5	50		 push	 eax
  000d6	8d 8c 24 34 01
	00 00		 lea	 ecx, DWORD PTR _matT$229625[esp+372]
  000dd	51		 push	 ecx
  000de	e8 00 00 00 00	 call	 _D3DXMatrixMultiply@12
  000e3	8d b4 24 2c 01
	00 00		 lea	 esi, DWORD PTR _matT$229625[esp+364]

; 1733 : 		else

  000ea	eb 07		 jmp	 SHORT $L229869
$L226440:

; 1734 : 			mTM = mWorld;

  000ec	8b b4 24 80 01
	00 00		 mov	 esi, DWORD PTR _mWorld$[esp+360]
$L229869:

; 1735 : 
; 1736 : 		pObject++;
; 1737 : 		D3DXMatrixInverse( &mInv, NULL, &mTM );

  000f3	8d 94 24 ec 00
	00 00		 lea	 edx, DWORD PTR _mTM$[esp+364]
  000fa	8d bc 24 ec 00
	00 00		 lea	 edi, DWORD PTR _mTM$[esp+364]
  00101	b9 10 00 00 00	 mov	 ecx, 16			; 00000010H
  00106	f3 a5		 rep movsd
  00108	8b 7c 24 68	 mov	 edi, DWORD PTR _pObject$[esp+364]
  0010c	52		 push	 edx
  0010d	6a 00		 push	 0
  0010f	8d 84 24 b4 00
	00 00		 lea	 eax, DWORD PTR _mInv$[esp+372]
  00116	81 c7 bc 0a 00
	00		 add	 edi, 2748		; 00000abcH
  0011c	50		 push	 eax
  0011d	89 7c 24 74	 mov	 DWORD PTR _pObject$[esp+376], edi
  00121	e8 00 00 00 00	 call	 _D3DXMatrixInverse@12

; 1738 : 		D3DXVec3TransformCoord( &vInvPos, &vPos, &mInv );	// Line Geometry 

  00126	8b 94 24 78 01
	00 00		 mov	 edx, DWORD PTR _vPos$[esp+360]
  0012d	8d 8c 24 ac 00
	00 00		 lea	 ecx, DWORD PTR _mInv$[esp+364]
  00134	51		 push	 ecx
  00135	52		 push	 edx
  00136	8d 84 24 90 00
	00 00		 lea	 eax, DWORD PTR _vInvPos$[esp+372]
  0013d	50		 push	 eax
  0013e	e8 00 00 00 00	 call	 _D3DXVec3TransformCoord@12

; 1739 : 		D3DXVec3TransformCoord( &vInvEnd, &vEnd, &mInv );	// Line  

  00143	8b 94 24 7c 01
	00 00		 mov	 edx, DWORD PTR _vEnd$[esp+360]
  0014a	8d 8c 24 ac 00
	00 00		 lea	 ecx, DWORD PTR _mInv$[esp+364]
  00151	51		 push	 ecx
  00152	52		 push	 edx
  00153	8d 84 24 9c 00
	00 00		 lea	 eax, DWORD PTR _vInvEnd$[esp+372]
  0015a	50		 push	 eax
  0015b	e8 00 00 00 00	 call	 _D3DXVec3TransformCoord@12

; 1740 : 		vInvDir = vInvEnd - vInvPos;

  00160	d9 84 24 94 00
	00 00		 fld	 DWORD PTR _vInvEnd$[esp+364]
  00167	d8 a4 24 88 00
	00 00		 fsub	 DWORD PTR _vInvPos$[esp+364]

; 1741 : 		for( j = 0; j < nMaxFace; j++ )

  0016e	c7 44 24 78 00
	00 00 00	 mov	 DWORD PTR _j$[esp+364], 0
  00176	d9 5c 24 5c	 fstp	 DWORD PTR $T229568[esp+364]
  0017a	8b 4c 24 5c	 mov	 ecx, DWORD PTR $T229568[esp+364]
  0017e	d9 84 24 98 00
	00 00		 fld	 DWORD PTR _vInvEnd$[esp+368]
  00185	89 8c 24 a0 00
	00 00		 mov	 DWORD PTR _vInvDir$[esp+364], ecx
  0018c	d8 a4 24 8c 00
	00 00		 fsub	 DWORD PTR _vInvPos$[esp+368]
  00193	d9 5c 24 60	 fstp	 DWORD PTR $T229568[esp+368]
  00197	8b 54 24 60	 mov	 edx, DWORD PTR $T229568[esp+368]
  0019b	d9 84 24 9c 00
	00 00		 fld	 DWORD PTR _vInvEnd$[esp+372]
  001a2	89 94 24 a4 00
	00 00		 mov	 DWORD PTR _vInvDir$[esp+368], edx
  001a9	d8 a4 24 90 00
	00 00		 fsub	 DWORD PTR _vInvPos$[esp+372]
  001b0	d9 5c 24 64	 fstp	 DWORD PTR $T229568[esp+372]
  001b4	8b 44 24 64	 mov	 eax, DWORD PTR $T229568[esp+372]
  001b8	89 84 24 a8 00
	00 00		 mov	 DWORD PTR _vInvDir$[esp+372], eax
  001bf	8b 44 24 7c	 mov	 eax, DWORD PTR _nMaxFace$[esp+364]
  001c3	85 c0		 test	 eax, eax
  001c5	0f 8e 8d 01 00
	00		 jle	 $L226436
  001cb	eb 13		 jmp	 SHORT $L226444
$L229865:
  001cd	8b 9c 24 80 00
	00 00		 mov	 ebx, DWORD PTR _pVB$[esp+364]
  001d4	eb 0a 8d a4 24
	00 00 00 00 8d
	49 00		 npad	 12
$L226444:

; 1742 : 		{
; 1743 : 			v1 = &pVB[ *pIB++ ].position;

  001e0	0f b7 75 00	 movzx	 esi, WORD PTR [ebp]

; 1744 : 			v2 = &pVB[ *pIB++ ].position;

  001e4	0f b7 7d 02	 movzx	 edi, WORD PTR [ebp+2]

; 1745 : 			v3 = &pVB[ *pIB++ ].position;

  001e8	8b 8c 24 80 00
	00 00		 mov	 ecx, DWORD PTR _pVB$[esp+364]
  001ef	83 c5 02	 add	 ebp, 2
  001f2	c1 e6 05	 shl	 esi, 5
  001f5	03 f3		 add	 esi, ebx
  001f7	c1 e7 05	 shl	 edi, 5
  001fa	03 fb		 add	 edi, ebx
  001fc	0f b7 5d 02	 movzx	 ebx, WORD PTR [ebp+2]
  00200	83 c5 02	 add	 ebp, 2
  00203	c1 e3 05	 shl	 ebx, 5
  00206	03 d9		 add	 ebx, ecx

; 1746 : 
; 1747 : 			bRet = IsTouchRayTri( v1, v2, v3, &vInvPos, &vInvDir, &fDist );

  00208	8d 4c 24 1c	 lea	 ecx, DWORD PTR _fDist$[esp+364]
  0020c	51		 push	 ecx
  0020d	8d 94 24 a4 00
	00 00		 lea	 edx, DWORD PTR _vInvDir$[esp+368]
  00214	52		 push	 edx
  00215	8d 84 24 90 00
	00 00		 lea	 eax, DWORD PTR _vInvPos$[esp+372]
  0021c	50		 push	 eax
  0021d	53		 push	 ebx
  0021e	57		 push	 edi
  0021f	56		 push	 esi
  00220	83 c5 02	 add	 ebp, 2
  00223	e8 00 00 00 00	 call	 ?IsTouchRayTri@@YAHPBUD3DXVECTOR3@@0000PAM@Z ; IsTouchRayTri
  00228	83 c4 18	 add	 esp, 24			; 00000018H

; 1748 : #if __VER >= 11 //  __FIX_COLLISION
; 1749 : 			if(bRet)

  0022b	85 c0		 test	 eax, eax
  0022d	0f 84 10 01 00
	00		 je	 $L226445

; 1750 : 			{
; 1751 : 				vDir = vEnd - vPos;

  00233	8b 94 24 7c 01
	00 00		 mov	 edx, DWORD PTR _vEnd$[esp+360]
  0023a	8b 8c 24 78 01
	00 00		 mov	 ecx, DWORD PTR _vPos$[esp+360]
  00241	d9 02		 fld	 DWORD PTR [edx]
  00243	d8 21		 fsub	 DWORD PTR [ecx]
  00245	d9 5c 24 20	 fstp	 DWORD PTR $T229569[esp+364]
  00249	8b 44 24 20	 mov	 eax, DWORD PTR $T229569[esp+364]
  0024d	d9 42 04	 fld	 DWORD PTR [edx+4]
  00250	89 44 24 2c	 mov	 DWORD PTR _vDir$[esp+364], eax
  00254	d8 61 04	 fsub	 DWORD PTR [ecx+4]
  00257	d9 5c 24 24	 fstp	 DWORD PTR $T229569[esp+368]
  0025b	8b 44 24 24	 mov	 eax, DWORD PTR $T229569[esp+368]
  0025f	d9 42 08	 fld	 DWORD PTR [edx+8]
  00262	89 44 24 30	 mov	 DWORD PTR _vDir$[esp+368], eax
  00266	d8 61 08	 fsub	 DWORD PTR [ecx+8]
  00269	d9 5c 24 28	 fstp	 DWORD PTR $T229569[esp+372]
  0026d	8b 44 24 28	 mov	 eax, DWORD PTR $T229569[esp+372]
  00271	89 44 24 34	 mov	 DWORD PTR _vDir$[esp+372], eax

; 1752 : 				float fDirLength = D3DXVec3Length(&vDir);

  00275	d9 44 24 34	 fld	 DWORD PTR _vDir$[esp+372]
  00279	d8 4c 24 34	 fmul	 DWORD PTR _vDir$[esp+372]
  0027d	d9 44 24 30	 fld	 DWORD PTR _vDir$[esp+368]
  00281	d8 4c 24 30	 fmul	 DWORD PTR _vDir$[esp+368]

; 1825 : 						}
; 1826 : 					}
; 1827 : 				}
; 1828 : 				
; 1829 : 			}
; 1830 : 		}
; 1831 : 	}
; 1832 : 	return 0;

  00285	de c1		 faddp	 ST(1), ST(0)
  00287	d9 44 24 2c	 fld	 DWORD PTR _vDir$[esp+364]
  0028b	d8 4c 24 2c	 fmul	 DWORD PTR _vDir$[esp+364]
  0028f	de c1		 faddp	 ST(1), ST(0)
  00291	d9 fa		 fsqrt
  00293	d8 15 00 00 00
	00		 fcom	 DWORD PTR __real@40400000
  00299	df e0		 fnstsw	 ax
  0029b	f6 c4 41	 test	 ah, 65			; 00000041H
  0029e	75 7b		 jne	 SHORT $L226450
  002a0	d9 44 24 1c	 fld	 DWORD PTR _fDist$[esp+364]
  002a4	d9 e1		 fabs
  002a6	d8 d9		 fcomp	 ST(1)
  002a8	df e0		 fnstsw	 ax
  002aa	dd d8		 fstp	 ST(0)
  002ac	f6 c4 05	 test	 ah, 5
  002af	0f 8a 8e 00 00
	00		 jp	 $L226445
  002b5	d9 44 24 1c	 fld	 DWORD PTR _fDist$[esp+364]
  002b9	d8 1d 00 00 00
	00		 fcomp	 DWORD PTR __real@00000000
  002bf	d9 44 24 2c	 fld	 DWORD PTR _vDir$[esp+364]
  002c3	d8 4c 24 1c	 fmul	 DWORD PTR _fDist$[esp+364]
  002c7	d9 44 24 30	 fld	 DWORD PTR _vDir$[esp+368]
  002cb	d8 4c 24 1c	 fmul	 DWORD PTR _fDist$[esp+364]
  002cf	d9 44 24 34	 fld	 DWORD PTR _vDir$[esp+372]
  002d3	d8 4c 24 1c	 fmul	 DWORD PTR _fDist$[esp+364]
  002d7	df e0		 fnstsw	 ax
  002d9	d9 5c 24 18	 fstp	 DWORD PTR $T229570[esp+372]
  002dd	f6 c4 05	 test	 ah, 5
  002e0	0f 8a a1 00 00
	00		 jp	 $L226452
  002e6	d9 01		 fld	 DWORD PTR [ecx]
  002e8	d8 e2		 fsub	 ST(0), ST(2)
  002ea	d9 5c 24 20	 fstp	 DWORD PTR $T229571[esp+364]
  002ee	d9 41 04	 fld	 DWORD PTR [ecx+4]
  002f1	d8 e1		 fsub	 ST(0), ST(1)
  002f3	d9 5c 24 24	 fstp	 DWORD PTR $T229571[esp+368]
  002f7	dd d8		 fstp	 ST(0)
  002f9	dd d8		 fstp	 ST(0)
  002fb	d9 41 08	 fld	 DWORD PTR [ecx+8]
  002fe	8b 4c 24 24	 mov	 ecx, DWORD PTR $T229571[esp+368]
  00302	d8 64 24 18	 fsub	 DWORD PTR $T229570[esp+372]
  00306	89 4c 24 60	 mov	 DWORD PTR _vIntersect$[esp+368], ecx
  0030a	d9 5c 24 28	 fstp	 DWORD PTR $T229571[esp+372]
  0030e	8b 54 24 28	 mov	 edx, DWORD PTR $T229571[esp+372]
  00312	89 54 24 64	 mov	 DWORD PTR _vIntersect$[esp+372], edx
  00316	e9 96 00 00 00	 jmp	 $L229870
$L226450:

; 1753 : 				//          
; 1754 : 				// S       .
; 1755 : 				if(fDirLength > 3.0f)

  0031b	dd d8		 fstp	 ST(0)

; 1785 : 						vN *= (fLenN * 2.0f);							// (-D dot N) * 2   N  .
; 1786 : 						vTemp = vDir + vN;								//  .
; 1787 : 						D3DXVec3Scale(&vTemp, &vTemp, 0.2f);					
; 1788 : 						
; 1789 : 						*pOut = vTemp;		//     .
; 1790 : 						
; 1791 : 						return 1;
; 1792 : 					}
; 1793 : 				}
; 1794 : 				else
; 1795 : 				{
; 1796 : 					if(fDist >= 0.0f)

  0031d	d9 44 24 1c	 fld	 DWORD PTR _fDist$[esp+364]
  00321	d8 1d 00 00 00
	00		 fcomp	 DWORD PTR __real@00000000
  00327	df e0		 fnstsw	 ax
  00329	f6 c4 01	 test	 ah, 1
  0032c	75 15		 jne	 SHORT $L226445

; 1797 : 					{
; 1798 : 						if( fDist < 1.0f )

  0032e	d9 44 24 1c	 fld	 DWORD PTR _fDist$[esp+364]
  00332	d8 1d 00 00 00
	00		 fcomp	 DWORD PTR __real@3f800000
  00338	df e0		 fnstsw	 ax
  0033a	f6 c4 05	 test	 ah, 5
  0033d	0f 8b b3 02 00
	00		 jnp	 $L229855
$L226445:

; 1741 : 		for( j = 0; j < nMaxFace; j++ )

  00343	8b 44 24 78	 mov	 eax, DWORD PTR _j$[esp+364]
  00347	8b 4c 24 7c	 mov	 ecx, DWORD PTR _nMaxFace$[esp+364]
  0034b	40		 inc	 eax
  0034c	3b c1		 cmp	 eax, ecx
  0034e	89 44 24 78	 mov	 DWORD PTR _j$[esp+364], eax
  00352	0f 8c 75 fe ff
	ff		 jl	 $L229865
$L226436:

; 1722 : 
; 1723 : 	for( i = 0; i < nMaxObj; i++ )

  00358	8b 44 24 74	 mov	 eax, DWORD PTR _i$[esp+364]
  0035c	8b 54 24 70	 mov	 edx, DWORD PTR tv1033[esp+364]
  00360	8b 4c 24 6c	 mov	 ecx, DWORD PTR _nMaxObj$[esp+364]
  00364	40		 inc	 eax
  00365	83 c2 40	 add	 edx, 64			; 00000040H
  00368	3b c1		 cmp	 eax, ecx
  0036a	89 44 24 74	 mov	 DWORD PTR _i$[esp+364], eax
  0036e	89 54 24 70	 mov	 DWORD PTR tv1033[esp+364], edx
  00372	0f 8c 02 fd ff
	ff		 jl	 $L229866
$L226437:
  00378	5d		 pop	 ebp
  00379	5b		 pop	 ebx
  0037a	5f		 pop	 edi

; 1825 : 						}
; 1826 : 					}
; 1827 : 				}
; 1828 : 				
; 1829 : 			}
; 1830 : 		}
; 1831 : 	}
; 1832 : 	return 0;

  0037b	33 c0		 xor	 eax, eax
  0037d	5e		 pop	 esi

; 1833 : #else
; 1834 : 			if( bRet && fDist >= 0.0f )	//    .
; 1835 : 			{
; 1836 : 				//          
; 1837 : 				// S       .
; 1838 : 				if( fDist < 1.0f )
; 1839 : 				{
; 1840 : 					// Line   .
; 1841 : 					vDir = vEnd - vPos;
; 1842 : //					fDist *= 0.5f;
; 1843 : 					vIntersect = vPos + fDist * vDir;	//  .
; 1844 : 					vA = *v2 - *v1;
; 1845 : 					vB = *v3 - *v1;
; 1846 : 					D3DXVec3Cross( &vN, &vA, &vB );		//    .    .
; 1847 : 					mInv = mTM;
; 1848 : 					mInv._41 = mInv._42 = mInv._43 = 0;
; 1849 : 					D3DXVec3TransformCoord( &vN, &vN, &mInv );	//   (mWorld).
; 1850 : 
; 1851 : 					if( vN.x == 0 && vN.z == 0 )
; 1852 : 						Error( "CActionMover::ProcessCollisionGround :     " );
; 1853 : 
; 1854 : 					vN.y = 0;	// y    
; 1855 : 					D3DXVec3Normalize( &vN, &vN );		//   
; 1856 : 					
; 1857 : 					// ,  vIntersect vN   .
; 1858 : 					vTemp = vEnd - vIntersect;		//  -  vector V 
; 1859 : 					*pIntersect = vIntersect;		//  
; 1860 : 					CalcSlideVec( &vTemp, vTemp, vN );
; 1861 : 					
; 1862 : 					*pOut = vTemp;		//     .
; 1863 : //					*pOut = vTemp;
; 1864 : 					
; 1865 : 					return 1;
; 1866 : 				}
; 1867 : 			}
; 1868 : 		}
; 1869 : 	}
; 1870 : 	return 0;
; 1871 : #endif		
; 1872 : 			
; 1873 : 					
; 1874 : 
; 1875 : 					
; 1876 : }

  0037e	81 c4 5c 01 00
	00		 add	 esp, 348		; 0000015cH
  00384	c2 18 00	 ret	 24			; 00000018H
$L226452:

; 1756 : 				{
; 1757 : 					if( fabs(fDist) < fDirLength)
; 1758 : 					{
; 1759 : 						// Line   .
; 1760 : 						
; 1761 : 	//					fDist *= 0.5f;
; 1762 : 						if(fDist < 0.0f)
; 1763 : 							vIntersect = vPos - fDist * vDir;	//  .
; 1764 : 						else 
; 1765 : 							vIntersect = vPos + fDist * vDir;	//  .

  00387	d9 c9		 fxch	 ST(1)
  00389	d8 01		 fadd	 DWORD PTR [ecx]
  0038b	d9 5c 24 20	 fstp	 DWORD PTR $T229573[esp+364]
  0038f	d8 41 04	 fadd	 DWORD PTR [ecx+4]
  00392	d9 5c 24 24	 fstp	 DWORD PTR $T229573[esp+368]
  00396	8b 44 24 24	 mov	 eax, DWORD PTR $T229573[esp+368]
  0039a	d9 44 24 18	 fld	 DWORD PTR $T229572[esp+372]
  0039e	89 44 24 60	 mov	 DWORD PTR _vIntersect$[esp+368], eax
  003a2	d8 41 08	 fadd	 DWORD PTR [ecx+8]
  003a5	d9 5c 24 28	 fstp	 DWORD PTR $T229573[esp+372]
  003a9	8b 4c 24 28	 mov	 ecx, DWORD PTR $T229573[esp+372]
  003ad	89 4c 24 64	 mov	 DWORD PTR _vIntersect$[esp+372], ecx
$L229870:

; 1766 : 						vA = *v2 - *v1;

  003b1	d9 07		 fld	 DWORD PTR [edi]
  003b3	8b 6c 24 20	 mov	 ebp, DWORD PTR $T229573[esp+364]
  003b7	d8 26		 fsub	 DWORD PTR [esi]
  003b9	d9 5c 24 20	 fstp	 DWORD PTR $T229574[esp+364]
  003bd	8b 54 24 20	 mov	 edx, DWORD PTR $T229574[esp+364]
  003c1	d9 47 04	 fld	 DWORD PTR [edi+4]
  003c4	89 54 24 50	 mov	 DWORD PTR _vA$[esp+364], edx
  003c8	d8 66 04	 fsub	 DWORD PTR [esi+4]
  003cb	d9 5c 24 24	 fstp	 DWORD PTR $T229574[esp+368]
  003cf	8b 44 24 24	 mov	 eax, DWORD PTR $T229574[esp+368]
  003d3	d9 47 08	 fld	 DWORD PTR [edi+8]
  003d6	89 44 24 54	 mov	 DWORD PTR _vA$[esp+368], eax
  003da	d8 66 08	 fsub	 DWORD PTR [esi+8]

; 1767 : 						vB = *v3 - *v1;
; 1768 : 						D3DXVec3Cross( &vN, &vA, &vB );		//    .    .
; 1769 : 						mInv = mTM;

  003dd	8d bc 24 ac 00
	00 00		 lea	 edi, DWORD PTR _mInv$[esp+364]
  003e4	d9 5c 24 28	 fstp	 DWORD PTR $T229574[esp+372]
  003e8	8b 4c 24 28	 mov	 ecx, DWORD PTR $T229574[esp+372]
  003ec	d9 03		 fld	 DWORD PTR [ebx]
  003ee	89 4c 24 58	 mov	 DWORD PTR _vA$[esp+372], ecx
  003f2	d8 26		 fsub	 DWORD PTR [esi]
  003f4	d9 5c 24 10	 fstp	 DWORD PTR $T229575[esp+364]
  003f8	8b 54 24 10	 mov	 edx, DWORD PTR $T229575[esp+364]
  003fc	d9 43 04	 fld	 DWORD PTR [ebx+4]
  003ff	89 54 24 20	 mov	 DWORD PTR _vB$[esp+364], edx
  00403	d8 66 04	 fsub	 DWORD PTR [esi+4]
  00406	d9 5c 24 14	 fstp	 DWORD PTR $T229575[esp+368]
  0040a	8b 44 24 14	 mov	 eax, DWORD PTR $T229575[esp+368]
  0040e	d9 43 08	 fld	 DWORD PTR [ebx+8]
  00411	89 44 24 24	 mov	 DWORD PTR _vB$[esp+368], eax
  00415	d8 66 08	 fsub	 DWORD PTR [esi+8]
  00418	8d b4 24 ec 00
	00 00		 lea	 esi, DWORD PTR _mTM$[esp+364]
  0041f	d9 5c 24 18	 fstp	 DWORD PTR $T229575[esp+372]
  00423	8b 4c 24 18	 mov	 ecx, DWORD PTR $T229575[esp+372]
  00427	89 4c 24 28	 mov	 DWORD PTR _vB$[esp+372], ecx
  0042b	d9 44 24 28	 fld	 DWORD PTR _vB$[esp+372]
  0042f	d8 4c 24 54	 fmul	 DWORD PTR _vA$[esp+368]
  00433	d9 44 24 24	 fld	 DWORD PTR _vB$[esp+368]
  00437	d8 4c 24 58	 fmul	 DWORD PTR _vA$[esp+372]
  0043b	de e9		 fsubp	 ST(1), ST(0)
  0043d	d9 5c 24 10	 fstp	 DWORD PTR _v$229743[esp+364]
  00441	8b 54 24 10	 mov	 edx, DWORD PTR _v$229743[esp+364]
  00445	d9 44 24 58	 fld	 DWORD PTR _vA$[esp+372]
  00449	89 54 24 38	 mov	 DWORD PTR _vN$[esp+364], edx
  0044d	d8 4c 24 20	 fmul	 DWORD PTR _vB$[esp+364]

; 1770 : 						mInv._41 = mInv._42 = mInv._43 = 0;
; 1771 : 						D3DXVec3TransformCoord( &vN, &vN, &mInv );	//   (mWorld).

  00451	8d 94 24 ac 00
	00 00		 lea	 edx, DWORD PTR _mInv$[esp+364]
  00458	d9 44 24 28	 fld	 DWORD PTR _vB$[esp+372]
  0045c	52		 push	 edx
  0045d	d8 4c 24 54	 fmul	 DWORD PTR _vA$[esp+368]
  00461	de e9		 fsubp	 ST(1), ST(0)
  00463	d9 5c 24 18	 fstp	 DWORD PTR _v$229743[esp+372]
  00467	8b 44 24 18	 mov	 eax, DWORD PTR _v$229743[esp+372]
  0046b	d9 44 24 28	 fld	 DWORD PTR _vB$[esp+372]
  0046f	89 44 24 40	 mov	 DWORD PTR _vN$[esp+372], eax
  00473	d8 4c 24 54	 fmul	 DWORD PTR _vA$[esp+368]
  00477	8d 44 24 3c	 lea	 eax, DWORD PTR _vN$[esp+368]
  0047b	d9 44 24 58	 fld	 DWORD PTR _vA$[esp+372]
  0047f	50		 push	 eax
  00480	d8 4c 24 28	 fmul	 DWORD PTR _vB$[esp+372]
  00484	de e9		 fsubp	 ST(1), ST(0)
  00486	d9 5c 24 20	 fstp	 DWORD PTR _v$229743[esp+380]
  0048a	8b 4c 24 20	 mov	 ecx, DWORD PTR _v$229743[esp+380]
  0048e	89 4c 24 48	 mov	 DWORD PTR _vN$[esp+380], ecx
  00492	b9 10 00 00 00	 mov	 ecx, 16			; 00000010H
  00497	f3 a5		 rep movsd
  00499	8b c8		 mov	 ecx, eax
  0049b	51		 push	 ecx
  0049c	c7 84 24 f0 00
	00 00 00 00 00
	00		 mov	 DWORD PTR _mInv$[esp+432], 0
  004a7	c7 84 24 ec 00
	00 00 00 00 00
	00		 mov	 DWORD PTR _mInv$[esp+428], 0
  004b2	c7 84 24 e8 00
	00 00 00 00 00
	00		 mov	 DWORD PTR _mInv$[esp+424], 0
  004bd	e8 00 00 00 00	 call	 _D3DXVec3TransformCoord@12

; 1772 : 
; 1773 : 						if( vN.x == 0 && vN.z == 0 )

  004c2	d9 05 00 00 00
	00		 fld	 DWORD PTR __real@00000000
  004c8	d9 44 24 38	 fld	 DWORD PTR _vN$[esp+364]
  004cc	da e9		 fucompp
  004ce	df e0		 fnstsw	 ax
  004d0	f6 c4 44	 test	 ah, 68			; 00000044H
  004d3	7a 20		 jp	 SHORT $L226460
  004d5	d9 05 00 00 00
	00		 fld	 DWORD PTR __real@00000000
  004db	d9 44 24 40	 fld	 DWORD PTR _vN$[esp+372]
  004df	da e9		 fucompp
  004e1	df e0		 fnstsw	 ax
  004e3	f6 c4 44	 test	 ah, 68			; 00000044H
  004e6	7a 0d		 jp	 SHORT $L226460

; 1774 : 							Error( "CActionMover::ProcessCollisionGround :     " );

  004e8	68 00 00 00 00	 push	 OFFSET FLAT:??_C@_0EI@DEOEDIHF@CActionMover?3?3ProcessCollisionGr@
  004ed	e8 00 00 00 00	 call	 ?Error@@YAPBDPBDZZ	; Error
  004f2	83 c4 04	 add	 esp, 4
$L226460:

; 1775 : 
; 1776 : 						vN.y = 0;	// y    
; 1777 : 						D3DXVec3Normalize( &vN, &vN );		//   

  004f5	8d 54 24 38	 lea	 edx, DWORD PTR _vN$[esp+364]
  004f9	52		 push	 edx
  004fa	8b c2		 mov	 eax, edx
  004fc	50		 push	 eax
  004fd	c7 44 24 44 00
	00 00 00	 mov	 DWORD PTR _vN$[esp+376], 0
  00505	e8 00 00 00 00	 call	 _D3DXVec3Normalize@8

; 1778 : 						
; 1779 : 						// ,  vIntersect vN   .
; 1780 : 						vTemp = vEnd - vIntersect;		//  -  vector V 
; 1781 : 						*pIntersect = vIntersect;		//  
; 1782 : 					
; 1783 : 						vInvDir.x = -vDir.x;	vInvDir.y = -vDir.y;	vInvDir.z = -vDir.z;	// -D

  0050a	d9 44 24 2c	 fld	 DWORD PTR _vDir$[esp+364]
  0050e	d9 e0		 fchs
  00510	8b 8c 24 74 01
	00 00		 mov	 ecx, DWORD PTR _pIntersect$[esp+360]
  00517	d9 44 24 30	 fld	 DWORD PTR _vDir$[esp+368]
  0051b	8b 54 24 60	 mov	 edx, DWORD PTR _vIntersect$[esp+368]
  0051f	d9 e0		 fchs
  00521	8b 44 24 64	 mov	 eax, DWORD PTR _vIntersect$[esp+372]
  00525	d9 44 24 34	 fld	 DWORD PTR _vDir$[esp+372]
  00529	89 29		 mov	 DWORD PTR [ecx], ebp
  0052b	d9 e0		 fchs
  0052d	89 51 04	 mov	 DWORD PTR [ecx+4], edx

; 1784 : 						FLOAT fLenN = D3DXVec3Dot( &vInvDir, &vN );		// -D dot N

  00530	d9 c9		 fxch	 ST(1)
  00532	89 41 08	 mov	 DWORD PTR [ecx+8], eax
  00535	d8 4c 24 3c	 fmul	 DWORD PTR _vN$[esp+368]
  00539	5d		 pop	 ebp
  0053a	d9 c9		 fxch	 ST(1)
  0053c	5b		 pop	 ebx
  0053d	d8 4c 24 38	 fmul	 DWORD PTR _vN$[esp+364]
  00541	5f		 pop	 edi
  00542	5e		 pop	 esi

; 1825 : 						}
; 1826 : 					}
; 1827 : 				}
; 1828 : 				
; 1829 : 			}
; 1830 : 		}
; 1831 : 	}
; 1832 : 	return 0;

  00543	de c1		 faddp	 ST(1), ST(0)
  00545	d9 c9		 fxch	 ST(1)
  00547	d8 4c 24 28	 fmul	 DWORD PTR _vN$[esp+348]
  0054b	de c1		 faddp	 ST(1), ST(0)
  0054d	dc c0		 fadd	 ST(0), ST(0)
  0054f	d9 44 24 28	 fld	 DWORD PTR _vN$[esp+348]
  00553	d8 c9		 fmul	 ST(0), ST(1)
  00555	d9 c1		 fld	 ST(1)
  00557	d8 4c 24 2c	 fmul	 DWORD PTR _vN$[esp+352]
  0055b	d9 5c 24 2c	 fstp	 DWORD PTR _vN$[esp+352]
  0055f	d9 c9		 fxch	 ST(1)
  00561	d8 4c 24 30	 fmul	 DWORD PTR _vN$[esp+356]
  00565	d9 5c 24 30	 fstp	 DWORD PTR _vN$[esp+356]
  00569	d9 44 24 1c	 fld	 DWORD PTR _vDir$[esp+348]
  0056d	d8 c1		 fadd	 ST(0), ST(1)
  0056f	d9 1c 24	 fstp	 DWORD PTR $T229577[esp+348]
  00572	8b 0c 24	 mov	 ecx, DWORD PTR $T229577[esp+348]
  00575	89 4c 24 34	 mov	 DWORD PTR _vTemp$[esp+348], ecx
  00579	dd d8		 fstp	 ST(0)
  0057b	8b 8c 24 60 01
	00 00		 mov	 ecx, DWORD PTR _pOut$[esp+344]
  00582	d9 44 24 20	 fld	 DWORD PTR _vDir$[esp+352]
  00586	d8 44 24 2c	 fadd	 DWORD PTR _vN$[esp+352]
  0058a	d9 5c 24 04	 fstp	 DWORD PTR $T229577[esp+352]
  0058e	8b 54 24 04	 mov	 edx, DWORD PTR $T229577[esp+352]
  00592	d9 44 24 24	 fld	 DWORD PTR _vDir$[esp+356]
  00596	89 54 24 38	 mov	 DWORD PTR _vTemp$[esp+352], edx
  0059a	d8 44 24 30	 fadd	 DWORD PTR _vN$[esp+356]
  0059e	d9 5c 24 08	 fstp	 DWORD PTR $T229577[esp+356]
  005a2	8b 44 24 08	 mov	 eax, DWORD PTR $T229577[esp+356]
  005a6	d9 44 24 34	 fld	 DWORD PTR _vTemp$[esp+348]
  005aa	89 44 24 3c	 mov	 DWORD PTR _vTemp$[esp+356], eax
  005ae	d8 0d 00 00 00
	00		 fmul	 DWORD PTR __real@3e4ccccd
  005b4	d9 5c 24 34	 fstp	 DWORD PTR _vTemp$[esp+348]
  005b8	8b 54 24 34	 mov	 edx, DWORD PTR _vTemp$[esp+348]
  005bc	d9 44 24 38	 fld	 DWORD PTR _vTemp$[esp+352]
  005c0	89 11		 mov	 DWORD PTR [ecx], edx
  005c2	d8 0d 00 00 00
	00		 fmul	 DWORD PTR __real@3e4ccccd
  005c8	d9 5c 24 38	 fstp	 DWORD PTR _vTemp$[esp+352]
  005cc	8b 44 24 38	 mov	 eax, DWORD PTR _vTemp$[esp+352]
  005d0	d9 44 24 3c	 fld	 DWORD PTR _vTemp$[esp+356]
  005d4	89 41 04	 mov	 DWORD PTR [ecx+4], eax
  005d7	d8 0d 00 00 00
	00		 fmul	 DWORD PTR __real@3e4ccccd
  005dd	b8 01 00 00 00	 mov	 eax, 1
  005e2	d9 5c 24 3c	 fstp	 DWORD PTR _vTemp$[esp+356]
  005e6	8b 54 24 3c	 mov	 edx, DWORD PTR _vTemp$[esp+356]
  005ea	89 51 08	 mov	 DWORD PTR [ecx+8], edx

; 1833 : #else
; 1834 : 			if( bRet && fDist >= 0.0f )	//    .
; 1835 : 			{
; 1836 : 				//          
; 1837 : 				// S       .
; 1838 : 				if( fDist < 1.0f )
; 1839 : 				{
; 1840 : 					// Line   .
; 1841 : 					vDir = vEnd - vPos;
; 1842 : //					fDist *= 0.5f;
; 1843 : 					vIntersect = vPos + fDist * vDir;	//  .
; 1844 : 					vA = *v2 - *v1;
; 1845 : 					vB = *v3 - *v1;
; 1846 : 					D3DXVec3Cross( &vN, &vA, &vB );		//    .    .
; 1847 : 					mInv = mTM;
; 1848 : 					mInv._41 = mInv._42 = mInv._43 = 0;
; 1849 : 					D3DXVec3TransformCoord( &vN, &vN, &mInv );	//   (mWorld).
; 1850 : 
; 1851 : 					if( vN.x == 0 && vN.z == 0 )
; 1852 : 						Error( "CActionMover::ProcessCollisionGround :     " );
; 1853 : 
; 1854 : 					vN.y = 0;	// y    
; 1855 : 					D3DXVec3Normalize( &vN, &vN );		//   
; 1856 : 					
; 1857 : 					// ,  vIntersect vN   .
; 1858 : 					vTemp = vEnd - vIntersect;		//  -  vector V 
; 1859 : 					*pIntersect = vIntersect;		//  
; 1860 : 					CalcSlideVec( &vTemp, vTemp, vN );
; 1861 : 					
; 1862 : 					*pOut = vTemp;		//     .
; 1863 : //					*pOut = vTemp;
; 1864 : 					
; 1865 : 					return 1;
; 1866 : 				}
; 1867 : 			}
; 1868 : 		}
; 1869 : 	}
; 1870 : 	return 0;
; 1871 : #endif		
; 1872 : 			
; 1873 : 					
; 1874 : 
; 1875 : 					
; 1876 : }

  005ed	81 c4 5c 01 00
	00		 add	 esp, 348		; 0000015cH
  005f3	c2 18 00	 ret	 24			; 00000018H
$L229855:

; 1799 : 						{
; 1800 : 							// Line   .
; 1801 : 							vDir = vEnd - vPos;

  005f6	d9 02		 fld	 DWORD PTR [edx]
  005f8	d8 21		 fsub	 DWORD PTR [ecx]
  005fa	d9 5c 24 10	 fstp	 DWORD PTR $T229578[esp+364]
  005fe	8b 44 24 10	 mov	 eax, DWORD PTR $T229578[esp+364]
  00602	d9 42 04	 fld	 DWORD PTR [edx+4]
  00605	89 44 24 2c	 mov	 DWORD PTR _vDir$[esp+364], eax
  00609	d8 61 04	 fsub	 DWORD PTR [ecx+4]
  0060c	d9 5c 24 14	 fstp	 DWORD PTR $T229578[esp+368]
  00610	d9 42 08	 fld	 DWORD PTR [edx+8]
  00613	8b 54 24 14	 mov	 edx, DWORD PTR $T229578[esp+368]
  00617	d8 61 08	 fsub	 DWORD PTR [ecx+8]
  0061a	89 54 24 30	 mov	 DWORD PTR _vDir$[esp+368], edx
  0061e	d9 5c 24 18	 fstp	 DWORD PTR $T229578[esp+372]
  00622	8b 44 24 18	 mov	 eax, DWORD PTR $T229578[esp+372]

; 1802 : 							vIntersect = vPos + fDist * vDir;	//  .

  00626	d9 44 24 2c	 fld	 DWORD PTR _vDir$[esp+364]
  0062a	89 44 24 34	 mov	 DWORD PTR _vDir$[esp+372], eax
  0062e	d8 4c 24 1c	 fmul	 DWORD PTR _fDist$[esp+364]
  00632	d9 44 24 30	 fld	 DWORD PTR _vDir$[esp+368]
  00636	d8 4c 24 1c	 fmul	 DWORD PTR _fDist$[esp+364]
  0063a	d9 44 24 34	 fld	 DWORD PTR _vDir$[esp+372]
  0063e	d8 4c 24 1c	 fmul	 DWORD PTR _fDist$[esp+364]
  00642	d9 5c 24 18	 fstp	 DWORD PTR $T229579[esp+372]
  00646	d9 c9		 fxch	 ST(1)
  00648	d8 01		 fadd	 DWORD PTR [ecx]
  0064a	d9 5c 24 2c	 fstp	 DWORD PTR $T229580[esp+364]
  0064e	8b 6c 24 2c	 mov	 ebp, DWORD PTR $T229580[esp+364]
  00652	89 6c 24 5c	 mov	 DWORD PTR _vIntersect$[esp+364], ebp
  00656	d8 41 04	 fadd	 DWORD PTR [ecx+4]
  00659	d9 5c 24 30	 fstp	 DWORD PTR $T229580[esp+368]
  0065d	d9 44 24 18	 fld	 DWORD PTR $T229579[esp+372]
  00661	d8 41 08	 fadd	 DWORD PTR [ecx+8]
  00664	8b 4c 24 30	 mov	 ecx, DWORD PTR $T229580[esp+368]
  00668	89 4c 24 60	 mov	 DWORD PTR _vIntersect$[esp+368], ecx
  0066c	d9 5c 24 34	 fstp	 DWORD PTR $T229580[esp+372]
  00670	8b 54 24 34	 mov	 edx, DWORD PTR $T229580[esp+372]

; 1803 : 
; 1804 : 							vA = *v2 - *v1;

  00674	d9 07		 fld	 DWORD PTR [edi]
  00676	89 54 24 64	 mov	 DWORD PTR _vIntersect$[esp+372], edx
  0067a	d8 26		 fsub	 DWORD PTR [esi]
  0067c	d9 5c 24 10	 fstp	 DWORD PTR $T229581[esp+364]
  00680	8b 44 24 10	 mov	 eax, DWORD PTR $T229581[esp+364]
  00684	d9 47 04	 fld	 DWORD PTR [edi+4]
  00687	89 44 24 50	 mov	 DWORD PTR _vA$[esp+364], eax
  0068b	d8 66 04	 fsub	 DWORD PTR [esi+4]
  0068e	d9 5c 24 14	 fstp	 DWORD PTR $T229581[esp+368]
  00692	8b 4c 24 14	 mov	 ecx, DWORD PTR $T229581[esp+368]
  00696	d9 47 08	 fld	 DWORD PTR [edi+8]
  00699	89 4c 24 54	 mov	 DWORD PTR _vA$[esp+368], ecx
  0069d	d8 66 08	 fsub	 DWORD PTR [esi+8]
  006a0	d9 5c 24 18	 fstp	 DWORD PTR $T229581[esp+372]
  006a4	8b 54 24 18	 mov	 edx, DWORD PTR $T229581[esp+372]

; 1805 : 							vB = *v3 - *v1;

  006a8	d9 03		 fld	 DWORD PTR [ebx]
  006aa	89 54 24 58	 mov	 DWORD PTR _vA$[esp+372], edx
  006ae	d8 26		 fsub	 DWORD PTR [esi]
  006b0	d9 5c 24 10	 fstp	 DWORD PTR $T229582[esp+364]
  006b4	8b 44 24 10	 mov	 eax, DWORD PTR $T229582[esp+364]
  006b8	d9 43 04	 fld	 DWORD PTR [ebx+4]
  006bb	89 44 24 20	 mov	 DWORD PTR _vB$[esp+364], eax
  006bf	d8 66 04	 fsub	 DWORD PTR [esi+4]
  006c2	d9 5c 24 14	 fstp	 DWORD PTR $T229582[esp+368]
  006c6	8b 4c 24 14	 mov	 ecx, DWORD PTR $T229582[esp+368]
  006ca	d9 43 08	 fld	 DWORD PTR [ebx+8]
  006cd	89 4c 24 24	 mov	 DWORD PTR _vB$[esp+368], ecx
  006d1	d8 66 08	 fsub	 DWORD PTR [esi+8]
  006d4	d9 5c 24 18	 fstp	 DWORD PTR $T229582[esp+372]
  006d8	8b 54 24 18	 mov	 edx, DWORD PTR $T229582[esp+372]
  006dc	89 54 24 28	 mov	 DWORD PTR _vB$[esp+372], edx

; 1806 : 							D3DXVec3Cross( &vN, &vA, &vB );		//    .    .

  006e0	d9 44 24 28	 fld	 DWORD PTR _vB$[esp+372]
  006e4	d8 4c 24 54	 fmul	 DWORD PTR _vA$[esp+368]
  006e8	d9 44 24 24	 fld	 DWORD PTR _vB$[esp+368]
  006ec	d8 4c 24 58	 fmul	 DWORD PTR _vA$[esp+372]
  006f0	de e9		 fsubp	 ST(1), ST(0)
  006f2	d9 5c 24 10	 fstp	 DWORD PTR _v$229840[esp+364]
  006f6	d9 44 24 58	 fld	 DWORD PTR _vA$[esp+372]
  006fa	d8 4c 24 20	 fmul	 DWORD PTR _vB$[esp+364]
  006fe	d9 44 24 28	 fld	 DWORD PTR _vB$[esp+372]
  00702	d8 4c 24 50	 fmul	 DWORD PTR _vA$[esp+364]
  00706	de e9		 fsubp	 ST(1), ST(0)
  00708	d9 5c 24 14	 fstp	 DWORD PTR _v$229840[esp+368]
  0070c	d9 44 24 24	 fld	 DWORD PTR _vB$[esp+368]
  00710	d8 4c 24 50	 fmul	 DWORD PTR _vA$[esp+364]
  00714	d9 44 24 54	 fld	 DWORD PTR _vA$[esp+368]
  00718	d8 4c 24 20	 fmul	 DWORD PTR _vB$[esp+364]
  0071c	8b 4c 24 14	 mov	 ecx, DWORD PTR _v$229840[esp+368]
  00720	8b 44 24 10	 mov	 eax, DWORD PTR _v$229840[esp+364]
  00724	89 4c 24 3c	 mov	 DWORD PTR _vN$[esp+368], ecx
  00728	de e9		 fsubp	 ST(1), ST(0)
  0072a	89 44 24 38	 mov	 DWORD PTR _vN$[esp+364], eax

; 1807 : 							mInv = mTM;

  0072e	b9 10 00 00 00	 mov	 ecx, 16			; 00000010H
  00733	8d b4 24 ec 00
	00 00		 lea	 esi, DWORD PTR _mTM$[esp+364]
  0073a	8d bc 24 ac 00
	00 00		 lea	 edi, DWORD PTR _mInv$[esp+364]
  00741	d9 5c 24 18	 fstp	 DWORD PTR _v$229840[esp+372]
  00745	8b 54 24 18	 mov	 edx, DWORD PTR _v$229840[esp+372]
  00749	f3 a5		 rep movsd

; 1808 : 							mInv._41 = mInv._42 = mInv._43 = 0;
; 1809 : 							D3DXVec3TransformCoord( &vN, &vN, &mInv );	//   (mWorld).

  0074b	8d 84 24 ac 00
	00 00		 lea	 eax, DWORD PTR _mInv$[esp+364]
  00752	50		 push	 eax
  00753	8d 4c 24 3c	 lea	 ecx, DWORD PTR _vN$[esp+368]
  00757	89 54 24 44	 mov	 DWORD PTR _vN$[esp+376], edx
  0075b	51		 push	 ecx
  0075c	8b d1		 mov	 edx, ecx
  0075e	52		 push	 edx
  0075f	c7 84 24 f0 00
	00 00 00 00 00
	00		 mov	 DWORD PTR _mInv$[esp+432], 0
  0076a	c7 84 24 ec 00
	00 00 00 00 00
	00		 mov	 DWORD PTR _mInv$[esp+428], 0
  00775	c7 84 24 e8 00
	00 00 00 00 00
	00		 mov	 DWORD PTR _mInv$[esp+424], 0
  00780	e8 00 00 00 00	 call	 _D3DXVec3TransformCoord@12

; 1810 : 
; 1811 : 							if( vN.x == 0 && vN.z == 0 )

  00785	d9 05 00 00 00
	00		 fld	 DWORD PTR __real@00000000
  0078b	d9 44 24 38	 fld	 DWORD PTR _vN$[esp+364]
  0078f	da e9		 fucompp
  00791	df e0		 fnstsw	 ax
  00793	f6 c4 44	 test	 ah, 68			; 00000044H
  00796	7a 20		 jp	 SHORT $L226472
  00798	d9 05 00 00 00
	00		 fld	 DWORD PTR __real@00000000
  0079e	d9 44 24 40	 fld	 DWORD PTR _vN$[esp+372]
  007a2	da e9		 fucompp
  007a4	df e0		 fnstsw	 ax
  007a6	f6 c4 44	 test	 ah, 68			; 00000044H
  007a9	7a 0d		 jp	 SHORT $L226472

; 1812 : 								Error( "CActionMover::ProcessCollisionGround :     " );

  007ab	68 00 00 00 00	 push	 OFFSET FLAT:??_C@_0EI@DEOEDIHF@CActionMover?3?3ProcessCollisionGr@
  007b0	e8 00 00 00 00	 call	 ?Error@@YAPBDPBDZZ	; Error
  007b5	83 c4 04	 add	 esp, 4
$L226472:

; 1813 : 
; 1814 : 							vN.y = 0;	// y    
; 1815 : 							D3DXVec3Normalize( &vN, &vN );		//   

  007b8	8d 44 24 38	 lea	 eax, DWORD PTR _vN$[esp+364]
  007bc	50		 push	 eax
  007bd	8b c8		 mov	 ecx, eax
  007bf	51		 push	 ecx
  007c0	c7 44 24 44 00
	00 00 00	 mov	 DWORD PTR _vN$[esp+376], 0
  007c8	e8 00 00 00 00	 call	 _D3DXVec3Normalize@8

; 1816 : 							
; 1817 : 							// ,  vIntersect vN   .
; 1818 : 							vTemp = vEnd - vIntersect;		//  -  vector V 

  007cd	8b 84 24 7c 01
	00 00		 mov	 eax, DWORD PTR _vEnd$[esp+360]
  007d4	d9 00		 fld	 DWORD PTR [eax]
  007d6	d8 64 24 5c	 fsub	 DWORD PTR _vIntersect$[esp+364]
  007da	d9 5c 24 10	 fstp	 DWORD PTR $T229583[esp+364]
  007de	8b 54 24 10	 mov	 edx, DWORD PTR $T229583[esp+364]
  007e2	d9 40 04	 fld	 DWORD PTR [eax+4]
  007e5	89 54 24 44	 mov	 DWORD PTR _vTemp$[esp+364], edx
  007e9	d8 64 24 60	 fsub	 DWORD PTR _vIntersect$[esp+368]

; 1819 : 							*pIntersect = vIntersect;		//  

  007ed	8b 94 24 74 01
	00 00		 mov	 edx, DWORD PTR _pIntersect$[esp+360]
  007f4	d9 5c 24 14	 fstp	 DWORD PTR $T229583[esp+368]
  007f8	d9 40 08	 fld	 DWORD PTR [eax+8]
  007fb	8b 44 24 14	 mov	 eax, DWORD PTR $T229583[esp+368]
  007ff	d8 64 24 64	 fsub	 DWORD PTR _vIntersect$[esp+372]
  00803	89 44 24 48	 mov	 DWORD PTR _vTemp$[esp+368], eax
  00807	8b 44 24 30	 mov	 eax, DWORD PTR $T229580[esp+368]
  0080b	89 2a		 mov	 DWORD PTR [edx], ebp
  0080d	d9 5c 24 18	 fstp	 DWORD PTR $T229583[esp+372]
  00811	8b 4c 24 18	 mov	 ecx, DWORD PTR $T229583[esp+372]
  00815	89 4c 24 4c	 mov	 DWORD PTR _vTemp$[esp+372], ecx
  00819	8b 4c 24 34	 mov	 ecx, DWORD PTR $T229580[esp+372]
  0081d	89 42 04	 mov	 DWORD PTR [edx+4], eax
  00820	89 4a 08	 mov	 DWORD PTR [edx+8], ecx

; 1820 : 							CalcSlideVec( &vTemp, vTemp, vN );

  00823	8d 54 24 38	 lea	 edx, DWORD PTR _vN$[esp+364]
  00827	52		 push	 edx
  00828	8d 44 24 48	 lea	 eax, DWORD PTR _vTemp$[esp+368]
  0082c	50		 push	 eax
  0082d	8b c8		 mov	 ecx, eax
  0082f	51		 push	 ecx
  00830	e8 00 00 00 00	 call	 ?CalcSlideVec@@YAXPAUD3DXVECTOR3@@ABU1@1@Z ; CalcSlideVec

; 1821 : 							
; 1822 : 							*pOut = vTemp;		//     .

  00835	8b 44 24 50	 mov	 eax, DWORD PTR _vTemp$[esp+376]
  00839	8b 94 24 7c 01
	00 00		 mov	 edx, DWORD PTR _pOut$[esp+372]
  00840	8b 4c 24 54	 mov	 ecx, DWORD PTR _vTemp$[esp+380]
  00844	83 c4 0c	 add	 esp, 12			; 0000000cH
  00847	89 02		 mov	 DWORD PTR [edx], eax
  00849	8b 44 24 4c	 mov	 eax, DWORD PTR _vTemp$[esp+372]
  0084d	5d		 pop	 ebp
  0084e	5b		 pop	 ebx
  0084f	89 4a 04	 mov	 DWORD PTR [edx+4], ecx
  00852	5f		 pop	 edi
  00853	89 42 08	 mov	 DWORD PTR [edx+8], eax

; 1823 : 							
; 1824 : 							return 1;

  00856	b8 01 00 00 00	 mov	 eax, 1
  0085b	5e		 pop	 esi

; 1833 : #else
; 1834 : 			if( bRet && fDist >= 0.0f )	//    .
; 1835 : 			{
; 1836 : 				//          
; 1837 : 				// S       .
; 1838 : 				if( fDist < 1.0f )
; 1839 : 				{
; 1840 : 					// Line   .
; 1841 : 					vDir = vEnd - vPos;
; 1842 : //					fDist *= 0.5f;
; 1843 : 					vIntersect = vPos + fDist * vDir;	//  .
; 1844 : 					vA = *v2 - *v1;
; 1845 : 					vB = *v3 - *v1;
; 1846 : 					D3DXVec3Cross( &vN, &vA, &vB );		//    .    .
; 1847 : 					mInv = mTM;
; 1848 : 					mInv._41 = mInv._42 = mInv._43 = 0;
; 1849 : 					D3DXVec3TransformCoord( &vN, &vN, &mInv );	//   (mWorld).
; 1850 : 
; 1851 : 					if( vN.x == 0 && vN.z == 0 )
; 1852 : 						Error( "CActionMover::ProcessCollisionGround :     " );
; 1853 : 
; 1854 : 					vN.y = 0;	// y    
; 1855 : 					D3DXVec3Normalize( &vN, &vN );		//   
; 1856 : 					
; 1857 : 					// ,  vIntersect vN   .
; 1858 : 					vTemp = vEnd - vIntersect;		//  -  vector V 
; 1859 : 					*pIntersect = vIntersect;		//  
; 1860 : 					CalcSlideVec( &vTemp, vTemp, vN );
; 1861 : 					
; 1862 : 					*pOut = vTemp;		//     .
; 1863 : //					*pOut = vTemp;
; 1864 : 					
; 1865 : 					return 1;
; 1866 : 				}
; 1867 : 			}
; 1868 : 		}
; 1869 : 	}
; 1870 : 	return 0;
; 1871 : #endif		
; 1872 : 			
; 1873 : 					
; 1874 : 
; 1875 : 					
; 1876 : }

  0085c	81 c4 5c 01 00
	00		 add	 esp, 348		; 0000015cH
  00862	c2 18 00	 ret	 24			; 00000018H
?SlideVectorXZ2@CObject3D@@QAEHPAUD3DXVECTOR3@@0ABU2@1ABUD3DXMATRIX@@H@Z ENDP ; CObject3D::SlideVectorXZ2
_TEXT	ENDS
PUBLIC	?SlideVectorUnder@CObject3D@@QAEHPAUD3DXVECTOR3@@ABU2@1ABUD3DXMATRIX@@0@Z ; CObject3D::SlideVectorUnder
EXTRN	?CanSlide@@YAHABUD3DXVECTOR3@@00MPAU1@@Z:NEAR	; CanSlide
EXTRN	_D3DXVec3TransformNormal@12:NEAR
; Function compile flags: /Ogty
;	COMDAT ?SlideVectorUnder@CObject3D@@QAEHPAUD3DXVECTOR3@@ABU2@1ABUD3DXMATRIX@@0@Z
_TEXT	SEGMENT
$T229877 = -140						; size = 12
_vSlide$226513 = -140					; size = 12
$T229876 = -140						; size = 12
_vDir$226509 = -140					; size = 12
$T229874 = -140						; size = 12
_fDist$ = -128						; size = 4
$T229878 = -124						; size = 12
_vInvPos$ = -124					; size = 12
_j$226503 = -112					; size = 4
_pVB$ = -108						; size = 4
_this$ = -104						; size = 4
_vInvEnd$ = -100					; size = 12
_vInvDir$ = -88						; size = 12
$T229875 = -76						; size = 12
_mInv$ = -64						; size = 64
_pOut$ = 8						; size = 4
_vPos$ = 12						; size = 4
_vEnd$ = 16						; size = 4
_mWorld$ = 20						; size = 4
_pIntersect$ = 24					; size = 4
?SlideVectorUnder@CObject3D@@QAEHPAUD3DXVECTOR3@@ABU2@1ABUD3DXMATRIX@@0@Z PROC NEAR ; CObject3D::SlideVectorUnder, COMDAT
; _this$ = ecx

; 1891 : {

  00000	81 ec 8c 00 00
	00		 sub	 esp, 140		; 0000008cH
  00006	57		 push	 edi
  00007	8b f9		 mov	 edi, ecx

; 1892 : 	D3DXVECTOR3	*v1, *v2, *v3;
; 1893 : 	D3DXVECTOR3	vInvPos, vInvEnd, vInvDir;
; 1894 : 	D3DXMATRIX	mInv;
; 1895 : 	FLOAT	    fDist;
; 1896 : 	BOOL	    bRet;
; 1897 : 	NORMALVERTEX *pVB;
; 1898 : 	WORD		 *pIB;
; 1899 : 
; 1900 : 	GMOBJECT* pObject = &m_CollObject;
; 1901 : 	if( pObject->m_Type != GMT_NORMAL )

  00009	8b 87 00 01 00
	00		 mov	 eax, DWORD PTR [edi+256]
  0000f	85 c0		 test	 eax, eax
  00011	89 7c 24 28	 mov	 DWORD PTR _this$[esp+144], edi
  00015	74 0c		 je	 SHORT $L226500

; 1902 : 		return 0;

  00017	33 c0		 xor	 eax, eax
  00019	5f		 pop	 edi

; 1945 : }

  0001a	81 c4 8c 00 00
	00		 add	 esp, 140		; 0000008cH
  00020	c2 14 00	 ret	 20			; 00000014H
$L226500:

; 1903 : 
; 1904 : 	pIB = pObject->m_pIB;
; 1905 : 	pVB = (NORMALVERTEX*)(pObject->m_pVB);
; 1906 : 
; 1907 : 	D3DXMatrixInverse( &mInv, NULL, &mWorld );

  00023	8b 84 24 a0 00
	00 00		 mov	 eax, DWORD PTR _mWorld$[esp+140]
  0002a	53		 push	 ebx
  0002b	55		 push	 ebp
  0002c	8b af a0 0b 00
	00		 mov	 ebp, DWORD PTR [edi+2976]
  00032	56		 push	 esi
  00033	8b b7 a4 0b 00
	00		 mov	 esi, DWORD PTR [edi+2980]
  00039	50		 push	 eax
  0003a	6a 00		 push	 0
  0003c	8d 4c 24 64	 lea	 ecx, DWORD PTR _mInv$[esp+164]
  00040	51		 push	 ecx
  00041	89 6c 24 3c	 mov	 DWORD PTR _pVB$[esp+168], ebp
  00045	e8 00 00 00 00	 call	 _D3DXMatrixInverse@12

; 1908 : 	D3DXVec3TransformCoord( &vInvPos, &vPos, &mInv );	// Line Geometry 

  0004a	8b 84 24 a4 00
	00 00		 mov	 eax, DWORD PTR _vPos$[esp+152]
  00051	8d 54 24 5c	 lea	 edx, DWORD PTR _mInv$[esp+156]
  00055	52		 push	 edx
  00056	50		 push	 eax
  00057	8d 4c 24 28	 lea	 ecx, DWORD PTR _vInvPos$[esp+164]
  0005b	51		 push	 ecx
  0005c	e8 00 00 00 00	 call	 _D3DXVec3TransformCoord@12

; 1909 : 	D3DXVec3TransformCoord( &vInvEnd, &vEnd, &mInv );	// Line  

  00061	8b 84 24 a8 00
	00 00		 mov	 eax, DWORD PTR _vEnd$[esp+152]
  00068	8d 54 24 5c	 lea	 edx, DWORD PTR _mInv$[esp+156]
  0006c	52		 push	 edx
  0006d	50		 push	 eax
  0006e	8d 4c 24 40	 lea	 ecx, DWORD PTR _vInvEnd$[esp+164]
  00072	51		 push	 ecx
  00073	e8 00 00 00 00	 call	 _D3DXVec3TransformCoord@12

; 1910 : 	vInvDir = vInvEnd - vInvPos;

  00078	d9 44 24 38	 fld	 DWORD PTR _vInvEnd$[esp+156]
  0007c	d8 64 24 20	 fsub	 DWORD PTR _vInvPos$[esp+156]

; 1911 : 
; 1912 : 	for( int j = 0; j < pObject->m_nMaxFaceList; ++j )

  00080	c7 44 24 2c 00
	00 00 00	 mov	 DWORD PTR _j$226503[esp+156], 0
  00088	d9 5c 24 10	 fstp	 DWORD PTR $T229874[esp+156]
  0008c	8b 54 24 10	 mov	 edx, DWORD PTR $T229874[esp+156]
  00090	d9 44 24 3c	 fld	 DWORD PTR _vInvEnd$[esp+160]
  00094	89 54 24 44	 mov	 DWORD PTR _vInvDir$[esp+156], edx
  00098	d8 64 24 24	 fsub	 DWORD PTR _vInvPos$[esp+160]
  0009c	d9 5c 24 14	 fstp	 DWORD PTR $T229874[esp+160]
  000a0	8b 44 24 14	 mov	 eax, DWORD PTR $T229874[esp+160]
  000a4	d9 44 24 40	 fld	 DWORD PTR _vInvEnd$[esp+164]
  000a8	89 44 24 48	 mov	 DWORD PTR _vInvDir$[esp+160], eax
  000ac	d8 64 24 28	 fsub	 DWORD PTR _vInvPos$[esp+164]
  000b0	8b 87 98 01 00
	00		 mov	 eax, DWORD PTR [edi+408]
  000b6	85 c0		 test	 eax, eax
  000b8	d9 5c 24 18	 fstp	 DWORD PTR $T229874[esp+164]
  000bc	8b 4c 24 18	 mov	 ecx, DWORD PTR $T229874[esp+164]
  000c0	89 4c 24 4c	 mov	 DWORD PTR _vInvDir$[esp+164], ecx
  000c4	7f 1a		 jg	 SHORT $L226504
  000c6	5e		 pop	 esi
  000c7	5d		 pop	 ebp
  000c8	5b		 pop	 ebx

; 1941 : 			}
; 1942 : 		}
; 1943 : 	}
; 1944 : 	return 0;

  000c9	33 c0		 xor	 eax, eax
  000cb	5f		 pop	 edi

; 1945 : }

  000cc	81 c4 8c 00 00
	00		 add	 esp, 140		; 0000008cH
  000d2	c2 14 00	 ret	 20			; 00000014H
$L229956:

; 1911 : 
; 1912 : 	for( int j = 0; j < pObject->m_nMaxFaceList; ++j )

  000d5	8b 6c 24 30	 mov	 ebp, DWORD PTR _pVB$[esp+156]
  000d9	8d a4 24 00 00
	00 00		 npad	 7
$L226504:

; 1913 : 	{
; 1914 : 		v1 = &pVB[ *pIB++ ].position;

  000e0	0f b7 3e	 movzx	 edi, WORD PTR [esi]

; 1915 : 		v2 = &pVB[ *pIB++ ].position;

  000e3	0f b7 5e 02	 movzx	 ebx, WORD PTR [esi+2]

; 1916 : 		v3 = &pVB[ *pIB++ ].position;

  000e7	8b 54 24 30	 mov	 edx, DWORD PTR _pVB$[esp+156]
  000eb	83 c6 02	 add	 esi, 2
  000ee	c1 e7 05	 shl	 edi, 5
  000f1	03 fd		 add	 edi, ebp
  000f3	c1 e3 05	 shl	 ebx, 5
  000f6	03 dd		 add	 ebx, ebp
  000f8	0f b7 6e 02	 movzx	 ebp, WORD PTR [esi+2]
  000fc	83 c6 02	 add	 esi, 2
  000ff	c1 e5 05	 shl	 ebp, 5
  00102	03 ea		 add	 ebp, edx

; 1917 : 
; 1918 : 		bRet = IsTouchRayTri( v1, v2, v3, &vInvPos, &vInvDir, &fDist );

  00104	8d 54 24 1c	 lea	 edx, DWORD PTR _fDist$[esp+156]
  00108	52		 push	 edx
  00109	8d 44 24 48	 lea	 eax, DWORD PTR _vInvDir$[esp+160]
  0010d	50		 push	 eax
  0010e	8d 4c 24 28	 lea	 ecx, DWORD PTR _vInvPos$[esp+164]
  00112	51		 push	 ecx
  00113	55		 push	 ebp
  00114	53		 push	 ebx
  00115	57		 push	 edi
  00116	83 c6 02	 add	 esi, 2
  00119	e8 00 00 00 00	 call	 ?IsTouchRayTri@@YAHPBUD3DXVECTOR3@@0000PAM@Z ; IsTouchRayTri
  0011e	83 c4 18	 add	 esp, 24			; 00000018H

; 1919 : 		if( bRet && fDist >= 0.0f )	//    .

  00121	85 c0		 test	 eax, eax
  00123	74 22		 je	 SHORT $L226505
  00125	d9 44 24 1c	 fld	 DWORD PTR _fDist$[esp+156]
  00129	d8 1d 00 00 00
	00		 fcomp	 DWORD PTR __real@00000000
  0012f	df e0		 fnstsw	 ax
  00131	f6 c4 01	 test	 ah, 1
  00134	75 11		 jne	 SHORT $L226505

; 1920 : 		{
; 1921 : 			//          
; 1922 : 			// S       .
; 1923 : 			if( fDist < 1.0f )

  00136	d9 44 24 1c	 fld	 DWORD PTR _fDist$[esp+156]
  0013a	d8 1d 00 00 00
	00		 fcomp	 DWORD PTR __real@3f800000
  00140	df e0		 fnstsw	 ax
  00142	f6 c4 05	 test	 ah, 5
  00145	7b 2a		 jnp	 SHORT $L229954
$L226505:

; 1911 : 
; 1912 : 	for( int j = 0; j < pObject->m_nMaxFaceList; ++j )

  00147	8b 44 24 2c	 mov	 eax, DWORD PTR _j$226503[esp+156]
  0014b	8b 54 24 34	 mov	 edx, DWORD PTR _this$[esp+156]
  0014f	8b 8a 98 01 00
	00		 mov	 ecx, DWORD PTR [edx+408]
  00155	40		 inc	 eax
  00156	3b c1		 cmp	 eax, ecx
  00158	89 44 24 2c	 mov	 DWORD PTR _j$226503[esp+156], eax
  0015c	0f 8c 73 ff ff
	ff		 jl	 $L229956
  00162	5e		 pop	 esi
  00163	5d		 pop	 ebp
  00164	5b		 pop	 ebx

; 1941 : 			}
; 1942 : 		}
; 1943 : 	}
; 1944 : 	return 0;

  00165	33 c0		 xor	 eax, eax
  00167	5f		 pop	 edi

; 1945 : }

  00168	81 c4 8c 00 00
	00		 add	 esp, 140		; 0000008cH
  0016e	c2 14 00	 ret	 20			; 00000014H
$L229954:

; 1924 : 			{
; 1925 : 				// Line   .
; 1926 : 				D3DXVECTOR3 vDir = vEnd - vPos;

  00171	8b 84 24 a4 00
	00 00		 mov	 eax, DWORD PTR _vPos$[esp+152]
  00178	8b 8c 24 a8 00
	00 00		 mov	 ecx, DWORD PTR _vEnd$[esp+152]
  0017f	d9 01		 fld	 DWORD PTR [ecx]

; 1927 : 				*pIntersect = vPos + fDist * vDir;	//  .

  00181	8b b4 24 b0 00
	00 00		 mov	 esi, DWORD PTR _pIntersect$[esp+152]
  00188	d8 20		 fsub	 DWORD PTR [eax]
  0018a	d9 41 04	 fld	 DWORD PTR [ecx+4]
  0018d	d8 60 04	 fsub	 DWORD PTR [eax+4]
  00190	d9 41 08	 fld	 DWORD PTR [ecx+8]
  00193	d8 60 08	 fsub	 DWORD PTR [eax+8]
  00196	d9 5c 24 18	 fstp	 DWORD PTR _vDir$226509[esp+164]
  0019a	d9 c9		 fxch	 ST(1)
  0019c	d8 4c 24 1c	 fmul	 DWORD PTR _fDist$[esp+156]
  001a0	d9 5c 24 50	 fstp	 DWORD PTR $T229875[esp+156]
  001a4	d8 4c 24 1c	 fmul	 DWORD PTR _fDist$[esp+156]
  001a8	d9 44 24 18	 fld	 DWORD PTR _vDir$226509[esp+164]
  001ac	d8 4c 24 1c	 fmul	 DWORD PTR _fDist$[esp+156]
  001b0	d9 44 24 50	 fld	 DWORD PTR $T229875[esp+156]
  001b4	d8 00		 fadd	 DWORD PTR [eax]
  001b6	d9 5c 24 10	 fstp	 DWORD PTR $T229876[esp+156]
  001ba	8b 4c 24 10	 mov	 ecx, DWORD PTR $T229876[esp+156]
  001be	d9 c9		 fxch	 ST(1)
  001c0	d8 40 04	 fadd	 DWORD PTR [eax+4]
  001c3	d9 5c 24 14	 fstp	 DWORD PTR $T229876[esp+160]
  001c7	8b 54 24 14	 mov	 edx, DWORD PTR $T229876[esp+160]
  001cb	d8 40 08	 fadd	 DWORD PTR [eax+8]
  001ce	8b c6		 mov	 eax, esi
  001d0	89 08		 mov	 DWORD PTR [eax], ecx
  001d2	89 50 04	 mov	 DWORD PTR [eax+4], edx

; 1928 : 
; 1929 : 				// 101   .
; 1930 : 				D3DXVECTOR3 vSlide;
; 1931 : 				if( CanSlide( *v1, *v2, *v3, -0.19080f, &vSlide ) == FALSE )	// -0.19080f = cos(101)

  001d5	8d 54 24 10	 lea	 edx, DWORD PTR _vSlide$226513[esp+156]
  001d9	d9 5c 24 18	 fstp	 DWORD PTR $T229876[esp+164]
  001dd	8b 4c 24 18	 mov	 ecx, DWORD PTR $T229876[esp+164]
  001e1	52		 push	 edx
  001e2	68 13 61 43 be	 push	 -1102880493		; be436113H
  001e7	55		 push	 ebp
  001e8	53		 push	 ebx
  001e9	57		 push	 edi
  001ea	89 48 08	 mov	 DWORD PTR [eax+8], ecx
  001ed	e8 00 00 00 00	 call	 ?CanSlide@@YAHABUD3DXVECTOR3@@00MPAU1@@Z ; CanSlide
  001f2	83 c4 14	 add	 esp, 20			; 00000014H
  001f5	85 c0		 test	 eax, eax
  001f7	75 39		 jne	 SHORT $L226514

; 1932 : 				{
; 1933 : 					*pOut = D3DXVECTOR3( 0.0f, 0.0f, 0.0f );

  001f9	89 44 24 10	 mov	 DWORD PTR $T229877[esp+156], eax
  001fd	8b 4c 24 10	 mov	 ecx, DWORD PTR $T229877[esp+156]
  00201	89 44 24 14	 mov	 DWORD PTR $T229877[esp+160], eax
  00205	8b 54 24 14	 mov	 edx, DWORD PTR $T229877[esp+160]
  00209	89 44 24 18	 mov	 DWORD PTR $T229877[esp+164], eax
  0020d	8b 84 24 a0 00
	00 00		 mov	 eax, DWORD PTR _pOut$[esp+152]
  00214	89 08		 mov	 DWORD PTR [eax], ecx
  00216	8b 4c 24 18	 mov	 ecx, DWORD PTR $T229877[esp+164]
  0021a	5e		 pop	 esi
  0021b	5d		 pop	 ebp
  0021c	89 50 04	 mov	 DWORD PTR [eax+4], edx
  0021f	5b		 pop	 ebx
  00220	89 48 08	 mov	 DWORD PTR [eax+8], ecx

; 1934 : 					return 1;

  00223	b8 01 00 00 00	 mov	 eax, 1
  00228	5f		 pop	 edi

; 1945 : }

  00229	81 c4 8c 00 00
	00		 add	 esp, 140		; 0000008cH
  0022f	c2 14 00	 ret	 20			; 00000014H
$L226514:

; 1935 : 				}
; 1936 : 				
; 1937 : 				//   .
; 1938 : 				D3DXVec3TransformNormal( &vSlide, &vSlide, &mWorld );

  00232	8b 94 24 ac 00
	00 00		 mov	 edx, DWORD PTR _mWorld$[esp+152]
  00239	52		 push	 edx
  0023a	8d 44 24 14	 lea	 eax, DWORD PTR _vSlide$226513[esp+160]
  0023e	50		 push	 eax
  0023f	8b c8		 mov	 ecx, eax
  00241	51		 push	 ecx
  00242	e8 00 00 00 00	 call	 _D3DXVec3TransformNormal@12

; 1939 : 				*pOut = *pIntersect + vSlide;

  00247	d9 44 24 10	 fld	 DWORD PTR _vSlide$226513[esp+156]
  0024b	d8 06		 fadd	 DWORD PTR [esi]
  0024d	8b 94 24 a0 00
	00 00		 mov	 edx, DWORD PTR _pOut$[esp+152]
  00254	d9 5c 24 20	 fstp	 DWORD PTR $T229878[esp+156]
  00258	8b 44 24 20	 mov	 eax, DWORD PTR $T229878[esp+156]
  0025c	d9 44 24 14	 fld	 DWORD PTR _vSlide$226513[esp+160]
  00260	d8 46 04	 fadd	 DWORD PTR [esi+4]
  00263	d9 5c 24 24	 fstp	 DWORD PTR $T229878[esp+160]
  00267	8b 4c 24 24	 mov	 ecx, DWORD PTR $T229878[esp+160]
  0026b	d9 44 24 18	 fld	 DWORD PTR _vSlide$226513[esp+164]
  0026f	d8 46 08	 fadd	 DWORD PTR [esi+8]
  00272	89 02		 mov	 DWORD PTR [edx], eax
  00274	5e		 pop	 esi
  00275	5d		 pop	 ebp
  00276	d9 5c 24 20	 fstp	 DWORD PTR $T229878[esp+156]
  0027a	8b 44 24 20	 mov	 eax, DWORD PTR $T229878[esp+156]
  0027e	89 4a 04	 mov	 DWORD PTR [edx+4], ecx
  00281	5b		 pop	 ebx
  00282	89 42 08	 mov	 DWORD PTR [edx+8], eax

; 1940 : 				return 1;

  00285	b8 01 00 00 00	 mov	 eax, 1
  0028a	5f		 pop	 edi

; 1945 : }

  0028b	81 c4 8c 00 00
	00		 add	 esp, 140		; 0000008cH
  00291	c2 14 00	 ret	 20			; 00000014H
?SlideVectorUnder@CObject3D@@QAEHPAUD3DXVECTOR3@@ABU2@1ABUD3DXMATRIX@@0@Z ENDP ; CObject3D::SlideVectorUnder
_TEXT	ENDS
PUBLIC	??_C@_0CL@FLBENPCM@FindTouchTriLine?3?$LN?$LK?E?$LC?$LP?$MA?$LK?j?A?$KH?F?$KO?5?$LJ?$NP@ ; `string'
PUBLIC	?FindTouchTriLine@CObject3D@@QAEXPAPAUD3DXVECTOR3@@ABU2@1ABUD3DXMATRIX@@PAMH@Z ; CObject3D::FindTouchTriLine
;	COMDAT ??_C@_0CL@FLBENPCM@FindTouchTriLine?3?$LN?$LK?E?$LC?$LP?$MA?$LK?j?A?$KH?F?$KO?5?$LJ?$NP@
; File c:\documents and settings\test\mes documents\source\virtuos_v17\build\program\dx_sdk\d3dx9math.inl
CONST	SEGMENT
??_C@_0CL@FLBENPCM@FindTouchTriLine?3?$LN?$LK?E?$LC?$LP?$MA?$LK?j?A?$KH?F?$KO?5?$LJ?$NP@ DB 'F'
	DB	'indTouchTriLine:', 0bdH, 0baH, 0c5H, 0b2H, 0bfH, 0c0H, 0baH, 0eaH
	DB	0c1H, 0a7H, 0c6H, 0aeH, ' ', 0b9H, 0dfH, 0b0H, 0dfH, '. ', 0bfH
	DB	0a1H, 0b7H, 0afH, '%s', 00H			; `string'
; Function compile flags: /Ogty
; File c:\documents and settings\test\mes documents\source\virtuos_v17\build\program\_common\object3d.cpp
CONST	ENDS
;	COMDAT ?FindTouchTriLine@CObject3D@@QAEXPAPAUD3DXVECTOR3@@ABU2@1ABUD3DXMATRIX@@PAMH@Z
_TEXT	SEGMENT
tv327 = -272						; size = 4
_pObject$ = -268					; size = 4
_nMaxObj$ = -264					; size = 4
_pVB$ = -260						; size = 4
_nMaxFace$ = -256					; size = 4
_j$ = -252						; size = 4
_i$ = -248						; size = 4
_this$ = -244						; size = 4
$T229964 = -240						; size = 12
_vInvPos$ = -228					; size = 12
_vInvDir$ = -216					; size = 12
_vInvEnd$ = -204					; size = 12
_mTM$ = -192						; size = 64
_mInv$ = -128						; size = 64
_matT$230000 = -64					; size = 64
_pTriOut$ = 8						; size = 4
_vPos$ = 12						; size = 4
_vEnd$ = 16						; size = 4
_mWorld$ = 20						; size = 4
_pDist$ = 24						; size = 4
_bCollObj$ = 28						; size = 4
?FindTouchTriLine@CObject3D@@QAEXPAPAUD3DXVECTOR3@@ABU2@1ABUD3DXMATRIX@@PAMH@Z PROC NEAR ; CObject3D::FindTouchTriLine, COMDAT
; _this$ = ecx

; 2037 : {

  00000	81 ec 10 01 00
	00		 sub	 esp, 272		; 00000110H
  00006	56		 push	 esi
  00007	57		 push	 edi
  00008	8b f9		 mov	 edi, ecx

; 2038 : 	D3DXVECTOR3	*v1, *v2, *v3;
; 2039 : 	D3DXVECTOR3	vInvPos, vInvEnd, vInvDir, vDir;
; 2040 : 	D3DXVECTOR3 vA, vB, vN, vTemp;
; 2041 : 	D3DXMATRIX	mTM, mInv;
; 2042 : 	int		nMaxFace;
; 2043 : 	GMOBJECT* pObject = &m_CollObject;
; 2044 : 	NORMALVERTEX *pVB;
; 2045 : 
; 2046 : 	int i;
; 2047 : 	LOD_GROUP *pGroup = &m_Group[0];
; 2048 : 	int		nMaxObj = 1;
; 2049 : 	if( bCollObj == FALSE )		//   .

  0000a	8b 8c 24 30 01
	00 00		 mov	 ecx, DWORD PTR _bCollObj$[esp+276]
  00011	33 c0		 xor	 eax, eax
  00013	3b c8		 cmp	 ecx, eax
  00015	89 7c 24 24	 mov	 DWORD PTR _this$[esp+280], edi
  00019	8d b7 00 01 00
	00		 lea	 esi, DWORD PTR [edi+256]
  0001f	c7 44 24 10 01
	00 00 00	 mov	 DWORD PTR _nMaxObj$[esp+280], 1
  00027	75 1b		 jne	 SHORT $L226546

; 2050 : 	{
; 2051 : 		pObject = pGroup->m_pObject;

  00029	8b 4f 08	 mov	 ecx, DWORD PTR [edi+8]

; 2052 : 		nMaxObj = pGroup->m_nMaxObject;

  0002c	8b 57 04	 mov	 edx, DWORD PTR [edi+4]
  0002f	89 4c 24 0c	 mov	 DWORD PTR _pObject$[esp+280], ecx

; 2053 : 		if( pGroup->_mUpdate == NULL )		

  00033	39 47 0c	 cmp	 DWORD PTR [edi+12], eax
  00036	89 54 24 10	 mov	 DWORD PTR _nMaxObj$[esp+280], edx
  0003a	0f 84 11 02 00
	00		 je	 $L226525
  00040	8b 74 24 0c	 mov	 esi, DWORD PTR _pObject$[esp+280]
$L226546:

; 2054 : 			return;
; 2055 : 	}
; 2056 : 	
; 2057 : 	if( pObject->m_Type == GMT_ERROR )

  00044	83 3e ff	 cmp	 DWORD PTR [esi], -1
  00047	75 14		 jne	 SHORT $L226547

; 2058 : 	{
; 2059 : 		*pTriOut = NULL;

  00049	8b 8c 24 1c 01
	00 00		 mov	 ecx, DWORD PTR _pTriOut$[esp+276]
  00050	5f		 pop	 edi
  00051	89 01		 mov	 DWORD PTR [ecx], eax
  00053	5e		 pop	 esi

; 2111 : }

  00054	81 c4 10 01 00
	00		 add	 esp, 272		; 00000110H
  0005a	c2 18 00	 ret	 24			; 00000018H
$L226547:

; 2060 : 		return;
; 2061 : 	}
; 2062 : 
; 2063 : 	WORD	*pIB;
; 2064 : 	int		j;
; 2065 : 	BOOL	bRet;
; 2066 : 
; 2067 : 	for( i = 0; i < nMaxObj; i++ )

  0005d	39 44 24 10	 cmp	 DWORD PTR _nMaxObj$[esp+280], eax
  00061	53		 push	 ebx
  00062	55		 push	 ebp
  00063	89 44 24 28	 mov	 DWORD PTR _i$[esp+288], eax
  00067	0f 8e d5 01 00
	00		 jle	 $L226553
  0006d	89 44 24 10	 mov	 DWORD PTR tv327[esp+288], eax
  00071	eb 0d		 jmp	 SHORT $L226551
$L230022:
  00073	8b 74 24 14	 mov	 esi, DWORD PTR _pObject$[esp+288]
  00077	8b 7c 24 2c	 mov	 edi, DWORD PTR _this$[esp+288]
  0007b	eb 03 8d 49 00	 npad	 5
$L226551:

; 2068 : 	{
; 2069 : 		if( pObject->m_Type == GMT_SKIN )	

  00080	83 3e 01	 cmp	 DWORD PTR [esi], 1
  00083	75 14		 jne	 SHORT $L226554

; 2070 : 			Error( "FindTouchTriLine: . %s", m_szFileName );

  00085	8d 97 c0 00 00
	00		 lea	 edx, DWORD PTR [edi+192]
  0008b	52		 push	 edx
  0008c	68 00 00 00 00	 push	 OFFSET FLAT:??_C@_0CL@FLBENPCM@FindTouchTriLine?3?$LN?$LK?E?$LC?$LP?$MA?$LK?j?A?$KH?F?$KO?5?$LJ?$NP@
  00091	e8 00 00 00 00	 call	 ?Error@@YAPBDPBDZZ	; Error
  00096	83 c4 08	 add	 esp, 8
$L226554:

; 2071 : 
; 2072 : 		nMaxFace = pObject->m_nMaxFaceList;

  00099	8b 86 98 00 00
	00		 mov	 eax, DWORD PTR [esi+152]

; 2073 : 		pVB = (NORMALVERTEX*)(pObject->m_pVB);

  0009f	8b ae a0 0a 00
	00		 mov	 ebp, DWORD PTR [esi+2720]

; 2074 : 		pIB	= pObject->m_pIB;

  000a5	8b 9e a4 0a 00
	00		 mov	 ebx, DWORD PTR [esi+2724]
  000ab	89 44 24 20	 mov	 DWORD PTR _nMaxFace$[esp+288], eax

; 2075 : 		pObject++;
; 2076 : 		if( bCollObj == FALSE )

  000af	8b 84 24 38 01
	00 00		 mov	 eax, DWORD PTR _bCollObj$[esp+284]
  000b6	81 c6 bc 0a 00
	00		 add	 esi, 2748		; 00000abcH
  000bc	85 c0		 test	 eax, eax
  000be	89 6c 24 1c	 mov	 DWORD PTR _pVB$[esp+288], ebp
  000c2	89 74 24 14	 mov	 DWORD PTR _pObject$[esp+288], esi
  000c6	75 28		 jne	 SHORT $L226557
  000c8	8b 57 0c	 mov	 edx, DWORD PTR [edi+12]

; 2077 : 			mTM = pGroup->_mUpdate[i] * mWorld;

  000cb	8b 8c 24 30 01
	00 00		 mov	 ecx, DWORD PTR _mWorld$[esp+284]
  000d2	8b 7c 24 10	 mov	 edi, DWORD PTR tv327[esp+288]
  000d6	51		 push	 ecx
  000d7	03 d7		 add	 edx, edi
  000d9	52		 push	 edx
  000da	8d 84 24 e8 00
	00 00		 lea	 eax, DWORD PTR _matT$230000[esp+296]
  000e1	50		 push	 eax
  000e2	e8 00 00 00 00	 call	 _D3DXMatrixMultiply@12
  000e7	8d b4 24 e0 00
	00 00		 lea	 esi, DWORD PTR _matT$230000[esp+288]

; 2078 : 		else

  000ee	eb 07		 jmp	 SHORT $L230025
$L226557:

; 2079 : 			mTM = mWorld;		//   LocalTM .

  000f0	8b b4 24 30 01
	00 00		 mov	 esi, DWORD PTR _mWorld$[esp+284]
$L230025:
  000f7	8d 7c 24 60	 lea	 edi, DWORD PTR _mTM$[esp+288]
  000fb	b9 10 00 00 00	 mov	 ecx, 16			; 00000010H
  00100	f3 a5		 rep movsd

; 2080 : 
; 2081 : 		D3DXMatrixInverse( &mInv, NULL, &mTM );

  00102	8d 4c 24 60	 lea	 ecx, DWORD PTR _mTM$[esp+288]
  00106	51		 push	 ecx
  00107	6a 00		 push	 0
  00109	8d 94 24 a8 00
	00 00		 lea	 edx, DWORD PTR _mInv$[esp+296]
  00110	52		 push	 edx
  00111	e8 00 00 00 00	 call	 _D3DXMatrixInverse@12

; 2082 : 		D3DXVec3TransformCoord( &vInvPos, &vPos, &mInv );	// Line Geometry 

  00116	8b 8c 24 28 01
	00 00		 mov	 ecx, DWORD PTR _vPos$[esp+284]
  0011d	8d 84 24 a0 00
	00 00		 lea	 eax, DWORD PTR _mInv$[esp+288]
  00124	50		 push	 eax
  00125	51		 push	 ecx
  00126	8d 54 24 44	 lea	 edx, DWORD PTR _vInvPos$[esp+296]
  0012a	52		 push	 edx
  0012b	e8 00 00 00 00	 call	 _D3DXVec3TransformCoord@12

; 2083 : 		D3DXVec3TransformCoord( &vInvEnd, &vEnd, &mInv );	// Line  

  00130	8b 8c 24 2c 01
	00 00		 mov	 ecx, DWORD PTR _vEnd$[esp+284]
  00137	8d 84 24 a0 00
	00 00		 lea	 eax, DWORD PTR _mInv$[esp+288]
  0013e	50		 push	 eax
  0013f	51		 push	 ecx
  00140	8d 54 24 5c	 lea	 edx, DWORD PTR _vInvEnd$[esp+296]
  00144	52		 push	 edx
  00145	e8 00 00 00 00	 call	 _D3DXVec3TransformCoord@12

; 2084 : 		vInvDir = vInvEnd - vInvPos;

  0014a	d9 44 24 54	 fld	 DWORD PTR _vInvEnd$[esp+288]
  0014e	d8 64 24 3c	 fsub	 DWORD PTR _vInvPos$[esp+288]

; 2085 : 		for( j = 0; j < nMaxFace; j++ )

  00152	c7 44 24 24 00
	00 00 00	 mov	 DWORD PTR _j$[esp+288], 0
  0015a	d9 5c 24 30	 fstp	 DWORD PTR $T229964[esp+288]
  0015e	8b 44 24 30	 mov	 eax, DWORD PTR $T229964[esp+288]
  00162	d9 44 24 58	 fld	 DWORD PTR _vInvEnd$[esp+292]
  00166	89 44 24 48	 mov	 DWORD PTR _vInvDir$[esp+288], eax
  0016a	d8 64 24 40	 fsub	 DWORD PTR _vInvPos$[esp+292]
  0016e	8b 44 24 20	 mov	 eax, DWORD PTR _nMaxFace$[esp+288]
  00172	85 c0		 test	 eax, eax
  00174	d9 5c 24 34	 fstp	 DWORD PTR $T229964[esp+292]
  00178	8b 4c 24 34	 mov	 ecx, DWORD PTR $T229964[esp+292]
  0017c	d9 44 24 5c	 fld	 DWORD PTR _vInvEnd$[esp+296]
  00180	89 4c 24 4c	 mov	 DWORD PTR _vInvDir$[esp+292], ecx
  00184	d8 64 24 44	 fsub	 DWORD PTR _vInvPos$[esp+296]
  00188	d9 5c 24 38	 fstp	 DWORD PTR $T229964[esp+296]
  0018c	8b 54 24 38	 mov	 edx, DWORD PTR $T229964[esp+296]
  00190	89 54 24 50	 mov	 DWORD PTR _vInvDir$[esp+296], edx
  00194	0f 8e 88 00 00
	00		 jle	 $L226552
  0019a	eb 04		 jmp	 SHORT $L226561
$L230021:
  0019c	8b 6c 24 1c	 mov	 ebp, DWORD PTR _pVB$[esp+288]
$L226561:

; 2086 : 		{
; 2087 : 			v1 = &pVB[ *pIB++ ].position;

  001a0	0f b7 33	 movzx	 esi, WORD PTR [ebx]

; 2088 : 			v2 = &pVB[ *pIB++ ].position;

  001a3	0f b7 7b 02	 movzx	 edi, WORD PTR [ebx+2]

; 2089 : 			v3 = &pVB[ *pIB++ ].position;

  001a7	8b 44 24 1c	 mov	 eax, DWORD PTR _pVB$[esp+288]
  001ab	83 c3 02	 add	 ebx, 2
  001ae	c1 e6 05	 shl	 esi, 5
  001b1	03 f5		 add	 esi, ebp
  001b3	c1 e7 05	 shl	 edi, 5
  001b6	03 fd		 add	 edi, ebp
  001b8	0f b7 6b 02	 movzx	 ebp, WORD PTR [ebx+2]
  001bc	83 c3 02	 add	 ebx, 2
  001bf	c1 e5 05	 shl	 ebp, 5
  001c2	03 e8		 add	 ebp, eax

; 2090 : 
; 2091 : 			bRet = IsTouchRayTri( v1, v2, v3, &vInvPos, &vInvDir, pDist );

  001c4	8b 84 24 34 01
	00 00		 mov	 eax, DWORD PTR _pDist$[esp+284]
  001cb	50		 push	 eax
  001cc	8d 4c 24 4c	 lea	 ecx, DWORD PTR _vInvDir$[esp+292]
  001d0	51		 push	 ecx
  001d1	8d 54 24 44	 lea	 edx, DWORD PTR _vInvPos$[esp+296]
  001d5	52		 push	 edx
  001d6	55		 push	 ebp
  001d7	57		 push	 edi
  001d8	56		 push	 esi
  001d9	83 c3 02	 add	 ebx, 2
  001dc	e8 00 00 00 00	 call	 ?IsTouchRayTri@@YAHPBUD3DXVECTOR3@@0000PAM@Z ; IsTouchRayTri
  001e1	83 c4 18	 add	 esp, 24			; 00000018H

; 2092 : 
; 2093 : 			if( bRet && *pDist >= 0.0f )	//    .

  001e4	85 c0		 test	 eax, eax
  001e6	74 25		 je	 SHORT $L226562
  001e8	8b 8c 24 34 01
	00 00		 mov	 ecx, DWORD PTR _pDist$[esp+284]
  001ef	d9 01		 fld	 DWORD PTR [ecx]
  001f1	d8 1d 00 00 00
	00		 fcomp	 DWORD PTR __real@00000000
  001f7	df e0		 fnstsw	 ax
  001f9	f6 c4 01	 test	 ah, 1
  001fc	75 0f		 jne	 SHORT $L226562

; 2094 : 			{
; 2095 : 				//          
; 2096 : 				// S       .
; 2097 : 				if( *pDist < 1.0f )

  001fe	d9 01		 fld	 DWORD PTR [ecx]
  00200	d8 1d 00 00 00
	00		 fcomp	 DWORD PTR __real@3f800000
  00206	df e0		 fnstsw	 ax
  00208	f6 c4 05	 test	 ah, 5
  0020b	7b 4f		 jnp	 SHORT $L230018
$L226562:

; 2085 : 		for( j = 0; j < nMaxFace; j++ )

  0020d	8b 44 24 24	 mov	 eax, DWORD PTR _j$[esp+288]
  00211	8b 4c 24 20	 mov	 ecx, DWORD PTR _nMaxFace$[esp+288]
  00215	40		 inc	 eax
  00216	3b c1		 cmp	 eax, ecx
  00218	89 44 24 24	 mov	 DWORD PTR _j$[esp+288], eax
  0021c	0f 8c 7a ff ff
	ff		 jl	 $L230021
$L226552:

; 2060 : 		return;
; 2061 : 	}
; 2062 : 
; 2063 : 	WORD	*pIB;
; 2064 : 	int		j;
; 2065 : 	BOOL	bRet;
; 2066 : 
; 2067 : 	for( i = 0; i < nMaxObj; i++ )

  00222	8b 44 24 28	 mov	 eax, DWORD PTR _i$[esp+288]
  00226	8b 54 24 10	 mov	 edx, DWORD PTR tv327[esp+288]
  0022a	8b 4c 24 18	 mov	 ecx, DWORD PTR _nMaxObj$[esp+288]
  0022e	40		 inc	 eax
  0022f	83 c2 40	 add	 edx, 64			; 00000040H
  00232	3b c1		 cmp	 eax, ecx
  00234	89 44 24 28	 mov	 DWORD PTR _i$[esp+288], eax
  00238	89 54 24 10	 mov	 DWORD PTR tv327[esp+288], edx
  0023c	0f 8c 31 fe ff
	ff		 jl	 $L230022
$L226553:

; 2104 : 					return;
; 2105 : 				}
; 2106 : 			}
; 2107 : 		}
; 2108 : 	}
; 2109 : 
; 2110 : 	*pTriOut = NULL;

  00242	8b 84 24 24 01
	00 00		 mov	 eax, DWORD PTR _pTriOut$[esp+284]
  00249	5d		 pop	 ebp
  0024a	c7 00 00 00 00
	00		 mov	 DWORD PTR [eax], 0
  00250	5b		 pop	 ebx
$L226525:
  00251	5f		 pop	 edi
  00252	5e		 pop	 esi

; 2111 : }

  00253	81 c4 10 01 00
	00		 add	 esp, 272		; 00000110H
  00259	c2 18 00	 ret	 24			; 00000018H
$L230018:

; 2098 : 				{
; 2099 : 					// Line   .
; 2100 : 					//   mTM    ?.
; 2101 : 					pTriOut[0] = v1;

  0025c	8b 84 24 24 01
	00 00		 mov	 eax, DWORD PTR _pTriOut$[esp+284]

; 2102 : 					pTriOut[1] = v2;
; 2103 : 					pTriOut[2] = v3;

  00263	89 68 08	 mov	 DWORD PTR [eax+8], ebp
  00266	5d		 pop	 ebp
  00267	5b		 pop	 ebx
  00268	89 78 04	 mov	 DWORD PTR [eax+4], edi
  0026b	5f		 pop	 edi
  0026c	89 30		 mov	 DWORD PTR [eax], esi
  0026e	5e		 pop	 esi

; 2111 : }

  0026f	81 c4 10 01 00
	00		 add	 esp, 272		; 00000110H
  00275	c2 18 00	 ret	 24			; 00000018H
?FindTouchTriLine@CObject3D@@QAEXPAPAUD3DXVECTOR3@@ABU2@1ABUD3DXMATRIX@@PAMH@Z ENDP ; CObject3D::FindTouchTriLine
_TEXT	ENDS
PUBLIC	?SimpleTriIntersect@CObject3D@@QAEHUD3DXMATRIX@@PAUGMOBJECT@@0@Z ; CObject3D::SimpleTriIntersect
; Function compile flags: /Ogty
;	COMDAT ?SimpleTriIntersect@CObject3D@@QAEHUD3DXMATRIX@@PAUGMOBJECT@@0@Z
_TEXT	SEGMENT
_xx$226678 = -456					; size = 4
_ftdu0$226642 = -456					; size = 4
_vtNormal$226651 = -452					; size = 12
_vNormal$226633 = -440					; size = 12
_xxyy$226680 = -428					; size = 4
_ftdu1$226643 = -428					; size = 4
_tv1$ = -424						; size = 12
_isect1$226682 = -412					; size = 8
_v1$ = -404						; size = 12
_nMaxObj$ = -392					; size = 4
_fdu0$226639 = -388					; size = 4
_this$ = -384						; size = 4
tv954 = -380						; size = 4
_fD$226634 = -376					; size = 4
_ftCood1$226660 = -372					; size = 4
tv950 = -368						; size = 4
_ftdu2$226644 = -364					; size = 4
_i$ = -360						; size = 4
_ftCood3$226662 = -356					; size = 4
_fdu2$226641 = -352					; size = 4
_tv3$ = -348						; size = 12
_fdu1$226640 = -336					; size = 4
_x0$226671 = -332					; size = 4
_isect2$226683 = -328					; size = 8
_y0$226676 = -320					; size = 4
_fCood3$226659 = -316					; size = 4
_j$ = -312						; size = 4
_fCood2$226658 = -308					; size = 4
_ftCood2$226661 = -304					; size = 4
_fCood1$226657 = -300					; size = 4
_y1$226677 = -296					; size = 4
_ftdu02$226648 = -292					; size = 4
_fdu02$226646 = -288					; size = 4
_v2$ = -284						; size = 12
_k$ = -272						; size = 4
_v3$ = -268						; size = 12
_x1$226672 = -256					; size = 4
_tv2$ = -252						; size = 12
_fdu01$226645 = -240					; size = 4
_ftdu01$226647 = -236					; size = 4
_a$226668 = -232					; size = 4
_vw2$226632 = -228					; size = 12
_c$226670 = -216					; size = 4
_v$230084 = -212					; size = 12
_e$226674 = -200					; size = 4
_vtw2$226650 = -196					; size = 12
_nMax2$ = -184						; size = 4
_v$230123 = -180					; size = 12
_b$226669 = -168					; size = 4
_v$230144 = -164					; size = 12
_f$226675 = -152					; size = 4
_vCross$226652 = -148					; size = 12
_d$226673 = -136					; size = 4
_nMax$ = -132						; size = 4
_mTM$ = -128						; size = 64
_matT$230056 = -64					; size = 64
_mWorld$ = 8						; size = 64
_pTargetObj$ = 72					; size = 4
_mTargetWorld$ = 76					; size = 64
?SimpleTriIntersect@CObject3D@@QAEHUD3DXMATRIX@@PAUGMOBJECT@@0@Z PROC NEAR ; CObject3D::SimpleTriIntersect, COMDAT
; _this$ = ecx

; 2158 : {

  00000	81 ec c8 01 00
	00		 sub	 esp, 456		; 000001c8H

; 2159 : 
; 2160 : 	D3DXVECTOR3	v1, v2, v3, tv1, tv2, tv3;
; 2161 : 	D3DXMATRIX	mTM;
; 2162 : 	int			nMax, nMax2;
; 2163 : 	int			nMaxObj = m_Group[0].m_nMaxObject;

  00006	8b 41 04	 mov	 eax, DWORD PTR [ecx+4]

; 2164 : 	GMOBJECT*	pObj = &m_Group[0].m_pObject[0];
; 2165 : 	WORD		*pIB, *pIB2;
; 2166 : 	int			i, j, k;
; 2167 : 	NORMALVERTEX *pVB, *pVB2;
; 2168 : 	
; 2169 : 	if( m_CollObject.m_Type != GMT_ERROR )	//    .

  00009	8b 91 00 01 00
	00		 mov	 edx, DWORD PTR [ecx+256]
  0000f	83 fa ff	 cmp	 edx, -1
  00012	53		 push	 ebx
  00013	8b 59 08	 mov	 ebx, DWORD PTR [ecx+8]
  00016	89 44 24 44	 mov	 DWORD PTR _nMaxObj$[esp+460], eax
  0001a	55		 push	 ebp
  0001b	8d 81 00 01 00
	00		 lea	 eax, DWORD PTR [ecx+256]
  00021	56		 push	 esi
  00022	57		 push	 edi
  00023	89 4c 24 58	 mov	 DWORD PTR _this$[esp+472], ecx
  00027	74 0a		 je	 SHORT $L226622

; 2170 : 	{
; 2171 : 		pObj = &m_CollObject;

  00029	8b d8		 mov	 ebx, eax

; 2172 : 		nMaxObj = 1;	//   1.

  0002b	c7 44 24 50 01
	00 00 00	 mov	 DWORD PTR _nMaxObj$[esp+472], 1
$L226622:

; 2173 : 	}
; 2174 : 
; 2175 : 	//     ...
; 2176 : 	for( i = 0; i < nMaxObj; i++ )

  00033	8b 54 24 50	 mov	 edx, DWORD PTR _nMaxObj$[esp+472]
  00037	33 c0		 xor	 eax, eax
  00039	3b d0		 cmp	 edx, eax
  0003b	89 44 24 70	 mov	 DWORD PTR _i$[esp+472], eax
  0003f	0f 8e 25 08 00
	00		 jle	 $L226625
  00045	81 c3 a0 0a 00
	00		 add	 ebx, 2720		; 00000aa0H
  0004b	89 5c 24 68	 mov	 DWORD PTR tv950[esp+472], ebx
  0004f	89 44 24 5c	 mov	 DWORD PTR tv954[esp+472], eax
  00053	eb 0b		 jmp	 SHORT $L226623
$L230180:
  00055	8b 4c 24 58	 mov	 ecx, DWORD PTR _this$[esp+472]
  00059	8d a4 24 00 00
	00 00		 npad	 7
$L226623:
  00060	8b 41 0c	 mov	 eax, DWORD PTR [ecx+12]
  00063	8b 7c 24 5c	 mov	 edi, DWORD PTR tv954[esp+472]

; 2177 : 	{
; 2178 : 		
; 2179 : 		mTM = m_Group[0]._mUpdate[i] * mWorld;

  00067	8d 94 24 dc 01
	00 00		 lea	 edx, DWORD PTR _mWorld$[esp+468]
  0006e	52		 push	 edx
  0006f	03 c7		 add	 eax, edi
  00071	50		 push	 eax
  00072	8d 8c 24 a0 01
	00 00		 lea	 ecx, DWORD PTR _matT$230056[esp+480]
  00079	51		 push	 ecx
  0007a	e8 00 00 00 00	 call	 _D3DXMatrixMultiply@12
  0007f	b9 10 00 00 00	 mov	 ecx, 16			; 00000010H
  00084	8d b4 24 98 01
	00 00		 lea	 esi, DWORD PTR _matT$230056[esp+472]
  0008b	8d bc 24 58 01
	00 00		 lea	 edi, DWORD PTR _mTM$[esp+472]
  00092	f3 a5		 rep movsd

; 2180 : 		
; 2181 : 		nMax = pObj->m_nMaxFaceList;

  00094	8b 83 f8 f5 ff
	ff		 mov	 eax, DWORD PTR [ebx-2568]

; 2182 : 		pVB	= (NORMALVERTEX*)(pObj->m_pVB);
; 2183 : 		pIB	= pObj->m_pIB;
; 2184 : 		for( j = 0; j < nMax; j++ )

  0009a	85 c0		 test	 eax, eax
  0009c	8b 2b		 mov	 ebp, DWORD PTR [ebx]
  0009e	8b 7b 04	 mov	 edi, DWORD PTR [ebx+4]
  000a1	89 84 24 54 01
	00 00		 mov	 DWORD PTR _nMax$[esp+472], eax
  000a8	c7 84 24 a0 00
	00 00 00 00 00
	00		 mov	 DWORD PTR _j$[esp+472], 0
  000b3	0f 8e 87 07 00
	00		 jle	 $L226630
  000b9	8d a4 24 00 00
	00 00		 npad	 7
$L226628:

; 2185 : 		{
; 2186 : 			//   ..
; 2187 : 			D3DXVec3TransformCoord( &v1, &pVB[ *pIB++ ].position, &mTM );

  000c0	0f b7 07	 movzx	 eax, WORD PTR [edi]
  000c3	c1 e0 05	 shl	 eax, 5
  000c6	8d 94 24 58 01
	00 00		 lea	 edx, DWORD PTR _mTM$[esp+472]
  000cd	03 c5		 add	 eax, ebp
  000cf	52		 push	 edx
  000d0	50		 push	 eax
  000d1	8d 44 24 4c	 lea	 eax, DWORD PTR _v1$[esp+480]
  000d5	50		 push	 eax
  000d6	e8 00 00 00 00	 call	 _D3DXVec3TransformCoord@12

; 2188 : 			D3DXVec3TransformCoord( &v2, &pVB[ *pIB++ ].position, &mTM );

  000db	0f b7 47 02	 movzx	 eax, WORD PTR [edi+2]
  000df	83 c7 02	 add	 edi, 2
  000e2	c1 e0 05	 shl	 eax, 5
  000e5	8d 8c 24 58 01
	00 00		 lea	 ecx, DWORD PTR _mTM$[esp+472]
  000ec	51		 push	 ecx
  000ed	03 c5		 add	 eax, ebp
  000ef	50		 push	 eax
  000f0	8d 94 24 c4 00
	00 00		 lea	 edx, DWORD PTR _v2$[esp+480]
  000f7	52		 push	 edx
  000f8	e8 00 00 00 00	 call	 _D3DXVec3TransformCoord@12

; 2189 : 			D3DXVec3TransformCoord( &v3, &pVB[ *pIB++ ].position, &mTM );

  000fd	0f b7 47 02	 movzx	 eax, WORD PTR [edi+2]
  00101	83 c7 02	 add	 edi, 2
  00104	c1 e0 05	 shl	 eax, 5
  00107	8d 8c 24 58 01
	00 00		 lea	 ecx, DWORD PTR _mTM$[esp+472]
  0010e	51		 push	 ecx
  0010f	03 c5		 add	 eax, ebp
  00111	50		 push	 eax
  00112	8d 94 24 d4 00
	00 00		 lea	 edx, DWORD PTR _v3$[esp+480]
  00119	52		 push	 edx
  0011a	e8 00 00 00 00	 call	 _D3DXVec3TransformCoord@12
  0011f	83 c7 02	 add	 edi, 2

; 2190 : 			
; 2191 : 			D3DXVECTOR3	vw1, vw2, vNormal;
; 2192 : 			float		fD;
; 2193 : 			//    
; 2194 : 			D3DXVec3Subtract(&vw1, &v2, &v1);

  00122	d9 84 24 bc 00
	00 00		 fld	 DWORD PTR _v2$[esp+472]
  00129	d8 64 24 44	 fsub	 DWORD PTR _v1$[esp+472]
  0012d	d9 84 24 c0 00
	00 00		 fld	 DWORD PTR _v2$[esp+476]
  00134	d8 64 24 48	 fsub	 DWORD PTR _v1$[esp+476]
  00138	d9 84 24 c4 00
	00 00		 fld	 DWORD PTR _v2$[esp+480]
  0013f	d8 64 24 4c	 fsub	 DWORD PTR _v1$[esp+480]

; 2195 : 			D3DXVec3Subtract(&vw2, &v3, &v1);

  00143	d9 84 24 cc 00
	00 00		 fld	 DWORD PTR _v3$[esp+472]
  0014a	d8 64 24 44	 fsub	 DWORD PTR _v1$[esp+472]
  0014e	d9 9c 24 f4 00
	00 00		 fstp	 DWORD PTR _vw2$226632[esp+472]
  00155	d9 84 24 d0 00
	00 00		 fld	 DWORD PTR _v3$[esp+476]
  0015c	d8 64 24 48	 fsub	 DWORD PTR _v1$[esp+476]
  00160	d9 9c 24 f8 00
	00 00		 fstp	 DWORD PTR _vw2$226632[esp+476]
  00167	d9 84 24 d4 00
	00 00		 fld	 DWORD PTR _v3$[esp+480]
  0016e	d8 64 24 4c	 fsub	 DWORD PTR _v1$[esp+480]

; 2196 : 			D3DXVec3Cross(&vNormal, &vw1, &vw2);

  00172	d9 c0		 fld	 ST(0)
  00174	d8 cb		 fmul	 ST(0), ST(3)
  00176	d9 84 24 f8 00
	00 00		 fld	 DWORD PTR _vw2$226632[esp+476]
  0017d	d8 cb		 fmul	 ST(0), ST(3)
  0017f	de e9		 fsubp	 ST(1), ST(0)
  00181	d9 9c 24 04 01
	00 00		 fstp	 DWORD PTR _v$230084[esp+472]
  00188	8b 84 24 04 01
	00 00		 mov	 eax, DWORD PTR _v$230084[esp+472]
  0018f	d9 c9		 fxch	 ST(1)
  00191	89 44 24 20	 mov	 DWORD PTR _vNormal$226633[esp+472], eax
  00195	d8 8c 24 f4 00
	00 00		 fmul	 DWORD PTR _vw2$226632[esp+472]

; 2197 : 			//   1: N1.X+d1=0 
; 2198 : 			fD = -D3DXVec3Dot(&vNormal, &v1);	//   D 
; 2199 : 			
; 2200 : 			//   ..
; 2201 : 			nMax2 = pTargetObj->m_nMaxFaceList;

  0019c	8b 84 24 1c 02
	00 00		 mov	 eax, DWORD PTR _pTargetObj$[esp+468]
  001a3	d9 c9		 fxch	 ST(1)
  001a5	d8 cb		 fmul	 ST(0), ST(3)
  001a7	de e9		 fsubp	 ST(1), ST(0)
  001a9	d9 9c 24 08 01
	00 00		 fstp	 DWORD PTR _v$230084[esp+476]
  001b0	8b 8c 24 08 01
	00 00		 mov	 ecx, DWORD PTR _v$230084[esp+476]
  001b7	d9 84 24 f8 00
	00 00		 fld	 DWORD PTR _vw2$226632[esp+476]
  001be	89 4c 24 24	 mov	 DWORD PTR _vNormal$226633[esp+476], ecx
  001c2	d8 ca		 fmul	 ST(0), ST(2)
  001c4	8b 88 98 00 00
	00		 mov	 ecx, DWORD PTR [eax+152]
  001ca	d9 c9		 fxch	 ST(1)
  001cc	d8 8c 24 f4 00
	00 00		 fmul	 DWORD PTR _vw2$226632[esp+472]
  001d3	de e9		 fsubp	 ST(1), ST(0)
  001d5	d9 9c 24 0c 01
	00 00		 fstp	 DWORD PTR _v$230084[esp+480]
  001dc	8b 94 24 0c 01
	00 00		 mov	 edx, DWORD PTR _v$230084[esp+480]
  001e3	89 54 24 28	 mov	 DWORD PTR _vNormal$226633[esp+480], edx
  001e7	dd d8		 fstp	 ST(0)
  001e9	d9 44 24 28	 fld	 DWORD PTR _vNormal$226633[esp+480]
  001ed	d8 4c 24 4c	 fmul	 DWORD PTR _v1$[esp+480]
  001f1	d9 44 24 24	 fld	 DWORD PTR _vNormal$226633[esp+476]
  001f5	d8 4c 24 48	 fmul	 DWORD PTR _v1$[esp+476]
  001f9	de c1		 faddp	 ST(1), ST(0)
  001fb	d9 44 24 20	 fld	 DWORD PTR _vNormal$226633[esp+472]
  001ff	d8 4c 24 44	 fmul	 DWORD PTR _v1$[esp+472]
  00203	de c1		 faddp	 ST(1), ST(0)
  00205	d9 e0		 fchs
  00207	d9 5c 24 60	 fstp	 DWORD PTR _fD$226634[esp+472]

; 2202 : 			pVB2  = (NORMALVERTEX*)(pTargetObj->m_pVB);
; 2203 : 			pIB2  = pTargetObj->m_pIB;
; 2204 : 			for( k = 0; k < nMax2; k++ )

  0020b	85 c9		 test	 ecx, ecx
  0020d	8b 98 a0 0a 00
	00		 mov	 ebx, DWORD PTR [eax+2720]
  00213	8b b0 a4 0a 00
	00		 mov	 esi, DWORD PTR [eax+2724]
  00219	89 8c 24 20 01
	00 00		 mov	 DWORD PTR _nMax2$[esp+472], ecx
  00220	c7 84 24 c8 00
	00 00 00 00 00
	00		 mov	 DWORD PTR _k$[esp+472], 0
  0022b	0f 8e ed 05 00
	00		 jle	 $L226629
$L226636:

; 2205 : 			{
; 2206 : 				// !     ..       
; 2207 : 				//   ..
; 2208 : 				float fdu0, fdu1, fdu2, ftdu0, ftdu1, ftdu2, fdu01, fdu02, ftdu01, ftdu02; 
; 2209 : 				D3DXVECTOR3	vtw1, vtw2, vtNormal, vCross;
; 2210 : 				float		fD2;
; 2211 : 				// 
; 2212 : 				float		fXLen, fYLen, fZLen, fCood1, fCood2, fCood3, ftCood1, ftCood2, ftCood3;
; 2213 : 
; 2214 : 				D3DXVec3TransformCoord( &tv1, &pVB2[ *pIB2++ ].position, &mTargetWorld );

  00231	0f b7 06	 movzx	 eax, WORD PTR [esi]
  00234	c1 e0 05	 shl	 eax, 5
  00237	8d 8c 24 20 02
	00 00		 lea	 ecx, DWORD PTR _mTargetWorld$[esp+468]
  0023e	51		 push	 ecx
  0023f	03 c3		 add	 eax, ebx
  00241	50		 push	 eax
  00242	8d 54 24 38	 lea	 edx, DWORD PTR _tv1$[esp+480]
  00246	52		 push	 edx
  00247	e8 00 00 00 00	 call	 _D3DXVec3TransformCoord@12

; 2215 : 				D3DXVec3TransformCoord( &tv2, &pVB2[ *pIB2++ ].position, &mTargetWorld );

  0024c	0f b7 46 02	 movzx	 eax, WORD PTR [esi+2]
  00250	83 c6 02	 add	 esi, 2
  00253	c1 e0 05	 shl	 eax, 5
  00256	8d 8c 24 20 02
	00 00		 lea	 ecx, DWORD PTR _mTargetWorld$[esp+468]
  0025d	51		 push	 ecx
  0025e	03 c3		 add	 eax, ebx
  00260	50		 push	 eax
  00261	8d 94 24 e4 00
	00 00		 lea	 edx, DWORD PTR _tv2$[esp+480]
  00268	52		 push	 edx
  00269	e8 00 00 00 00	 call	 _D3DXVec3TransformCoord@12

; 2216 : 				D3DXVec3TransformCoord( &tv3, &pVB2[ *pIB2++ ].position, &mTargetWorld );

  0026e	0f b7 46 02	 movzx	 eax, WORD PTR [esi+2]
  00272	83 c6 02	 add	 esi, 2
  00275	c1 e0 05	 shl	 eax, 5
  00278	8d 8c 24 20 02
	00 00		 lea	 ecx, DWORD PTR _mTargetWorld$[esp+468]
  0027f	51		 push	 ecx
  00280	03 c3		 add	 eax, ebx
  00282	50		 push	 eax
  00283	8d 94 24 84 00
	00 00		 lea	 edx, DWORD PTR _tv3$[esp+480]
  0028a	52		 push	 edx
  0028b	e8 00 00 00 00	 call	 _D3DXVec3TransformCoord@12
  00290	83 c6 02	 add	 esi, 2

; 2217 : 				
; 2218 : 				//         
; 2219 : 				fdu0 = D3DXVec3Dot(&vNormal, &tv1) + fD;

  00293	d9 44 24 28	 fld	 DWORD PTR _vNormal$226633[esp+480]
  00297	d8 4c 24 38	 fmul	 DWORD PTR _tv1$[esp+480]
  0029b	d9 44 24 24	 fld	 DWORD PTR _vNormal$226633[esp+476]
  0029f	d8 4c 24 34	 fmul	 DWORD PTR _tv1$[esp+476]
  002a3	de c1		 faddp	 ST(1), ST(0)
  002a5	d9 44 24 20	 fld	 DWORD PTR _vNormal$226633[esp+472]
  002a9	d8 4c 24 30	 fmul	 DWORD PTR _tv1$[esp+472]
  002ad	de c1		 faddp	 ST(1), ST(0)
  002af	d8 44 24 60	 fadd	 DWORD PTR _fD$226634[esp+472]
  002b3	d9 5c 24 54	 fstp	 DWORD PTR _fdu0$226639[esp+472]

; 2220 : 				fdu1 = D3DXVec3Dot(&vNormal, &tv2) + fD;

  002b7	d9 44 24 28	 fld	 DWORD PTR _vNormal$226633[esp+480]
  002bb	d8 8c 24 e4 00
	00 00		 fmul	 DWORD PTR _tv2$[esp+480]
  002c2	d9 44 24 24	 fld	 DWORD PTR _vNormal$226633[esp+476]
  002c6	d8 8c 24 e0 00
	00 00		 fmul	 DWORD PTR _tv2$[esp+476]
  002cd	de c1		 faddp	 ST(1), ST(0)
  002cf	d9 44 24 20	 fld	 DWORD PTR _vNormal$226633[esp+472]
  002d3	d8 8c 24 dc 00
	00 00		 fmul	 DWORD PTR _tv2$[esp+472]
  002da	de c1		 faddp	 ST(1), ST(0)
  002dc	d8 44 24 60	 fadd	 DWORD PTR _fD$226634[esp+472]
  002e0	d9 9c 24 88 00
	00 00		 fstp	 DWORD PTR _fdu1$226640[esp+472]

; 2221 : 				fdu2 = D3DXVec3Dot(&vNormal, &tv3) + fD;

  002e7	d9 44 24 28	 fld	 DWORD PTR _vNormal$226633[esp+480]
  002eb	d8 8c 24 84 00
	00 00		 fmul	 DWORD PTR _tv3$[esp+480]
  002f2	d9 44 24 24	 fld	 DWORD PTR _vNormal$226633[esp+476]
  002f6	d8 8c 24 80 00
	00 00		 fmul	 DWORD PTR _tv3$[esp+476]
  002fd	de c1		 faddp	 ST(1), ST(0)
  002ff	d9 44 24 20	 fld	 DWORD PTR _vNormal$226633[esp+472]
  00303	d8 4c 24 7c	 fmul	 DWORD PTR _tv3$[esp+472]
  00307	de c1		 faddp	 ST(1), ST(0)
  00309	d8 44 24 60	 fadd	 DWORD PTR _fD$226634[esp+472]
  0030d	d9 5c 24 78	 fstp	 DWORD PTR _fdu2$226641[esp+472]

; 2222 : 
; 2223 : 				fdu01 = fdu0*fdu1;

  00311	d9 84 24 88 00
	00 00		 fld	 DWORD PTR _fdu1$226640[esp+472]
  00318	d8 4c 24 54	 fmul	 DWORD PTR _fdu0$226639[esp+472]
  0031c	d9 94 24 e8 00
	00 00		 fst	 DWORD PTR _fdu01$226645[esp+472]

; 2224 : 				fdu02 = fdu0*fdu2;

  00323	d9 44 24 78	 fld	 DWORD PTR _fdu2$226641[esp+472]
  00327	d8 4c 24 54	 fmul	 DWORD PTR _fdu0$226639[esp+472]
  0032b	d9 9c 24 b8 00
	00 00		 fstp	 DWORD PTR _fdu02$226646[esp+472]

; 2225 : 				if(fdu01  > 0.0f && fdu02 > 0.0f) 

  00332	d8 1d 00 00 00
	00		 fcomp	 DWORD PTR __real@00000000
  00338	df e0		 fnstsw	 ax
  0033a	f6 c4 41	 test	 ah, 65			; 00000041H
  0033d	75 18		 jne	 SHORT $L226663
  0033f	d9 84 24 b8 00
	00 00		 fld	 DWORD PTR _fdu02$226646[esp+472]
  00346	d8 1d 00 00 00
	00		 fcomp	 DWORD PTR __real@00000000
  0034c	df e0		 fnstsw	 ax
  0034e	f6 c4 41	 test	 ah, 65			; 00000041H
  00351	0f 84 a9 04 00
	00		 je	 $L226637
$L226663:

; 2226 : 					continue;                    //      
; 2227 : 				
; 2228 : 				D3DXVec3Subtract(&vtw1, &tv2, &tv1);

  00357	d9 84 24 dc 00
	00 00		 fld	 DWORD PTR _tv2$[esp+472]
  0035e	d8 64 24 30	 fsub	 DWORD PTR _tv1$[esp+472]
  00362	d9 84 24 e0 00
	00 00		 fld	 DWORD PTR _tv2$[esp+476]
  00369	d8 64 24 34	 fsub	 DWORD PTR _tv1$[esp+476]
  0036d	d9 84 24 e4 00
	00 00		 fld	 DWORD PTR _tv2$[esp+480]
  00374	d8 64 24 38	 fsub	 DWORD PTR _tv1$[esp+480]

; 2229 : 				D3DXVec3Subtract(&vtw2, &tv3, &tv1);

  00378	d9 44 24 7c	 fld	 DWORD PTR _tv3$[esp+472]
  0037c	d8 64 24 30	 fsub	 DWORD PTR _tv1$[esp+472]
  00380	d9 9c 24 14 01
	00 00		 fstp	 DWORD PTR _vtw2$226650[esp+472]
  00387	d9 84 24 80 00
	00 00		 fld	 DWORD PTR _tv3$[esp+476]
  0038e	d8 64 24 34	 fsub	 DWORD PTR _tv1$[esp+476]
  00392	d9 9c 24 18 01
	00 00		 fstp	 DWORD PTR _vtw2$226650[esp+476]
  00399	d9 84 24 84 00
	00 00		 fld	 DWORD PTR _tv3$[esp+480]
  003a0	d8 64 24 38	 fsub	 DWORD PTR _tv1$[esp+480]

; 2230 : 				D3DXVec3Cross(&vtNormal, &vtw1, &vtw2);

  003a4	d9 c0		 fld	 ST(0)
  003a6	d8 cb		 fmul	 ST(0), ST(3)
  003a8	d9 84 24 18 01
	00 00		 fld	 DWORD PTR _vtw2$226650[esp+476]
  003af	d8 cb		 fmul	 ST(0), ST(3)
  003b1	de e9		 fsubp	 ST(1), ST(0)
  003b3	d9 9c 24 24 01
	00 00		 fstp	 DWORD PTR _v$230123[esp+472]
  003ba	8b 84 24 24 01
	00 00		 mov	 eax, DWORD PTR _v$230123[esp+472]
  003c1	d9 c9		 fxch	 ST(1)
  003c3	89 44 24 14	 mov	 DWORD PTR _vtNormal$226651[esp+472], eax
  003c7	d8 8c 24 14 01
	00 00		 fmul	 DWORD PTR _vtw2$226650[esp+472]
  003ce	d9 c9		 fxch	 ST(1)
  003d0	d8 cb		 fmul	 ST(0), ST(3)
  003d2	de e9		 fsubp	 ST(1), ST(0)
  003d4	d9 9c 24 28 01
	00 00		 fstp	 DWORD PTR _v$230123[esp+476]
  003db	8b 8c 24 28 01
	00 00		 mov	 ecx, DWORD PTR _v$230123[esp+476]
  003e2	d9 84 24 18 01
	00 00		 fld	 DWORD PTR _vtw2$226650[esp+476]
  003e9	89 4c 24 18	 mov	 DWORD PTR _vtNormal$226651[esp+476], ecx
  003ed	d8 ca		 fmul	 ST(0), ST(2)
  003ef	d9 c9		 fxch	 ST(1)
  003f1	d8 8c 24 14 01
	00 00		 fmul	 DWORD PTR _vtw2$226650[esp+472]
  003f8	de e9		 fsubp	 ST(1), ST(0)
  003fa	d9 9c 24 2c 01
	00 00		 fstp	 DWORD PTR _v$230123[esp+480]
  00401	8b 94 24 2c 01
	00 00		 mov	 edx, DWORD PTR _v$230123[esp+480]
  00408	89 54 24 1c	 mov	 DWORD PTR _vtNormal$226651[esp+480], edx
  0040c	dd d8		 fstp	 ST(0)

; 2231 : 				//   1: N1.X+d1=0 
; 2232 : 				fD2 = -D3DXVec3Dot(&vtNormal, &tv1);	//   D 

  0040e	d9 44 24 1c	 fld	 DWORD PTR _vtNormal$226651[esp+480]
  00412	d8 4c 24 38	 fmul	 DWORD PTR _tv1$[esp+480]
  00416	d9 44 24 18	 fld	 DWORD PTR _vtNormal$226651[esp+476]
  0041a	d8 4c 24 34	 fmul	 DWORD PTR _tv1$[esp+476]
  0041e	de c1		 faddp	 ST(1), ST(0)
  00420	d9 44 24 14	 fld	 DWORD PTR _vtNormal$226651[esp+472]
  00424	d8 4c 24 30	 fmul	 DWORD PTR _tv1$[esp+472]
  00428	de c1		 faddp	 ST(1), ST(0)
  0042a	d9 e0		 fchs

; 2233 : 
; 2234 : 				//         
; 2235 : 				ftdu0 = D3DXVec3Dot(&vtNormal, &v1) + fD2;

  0042c	d9 44 24 1c	 fld	 DWORD PTR _vtNormal$226651[esp+480]
  00430	d8 4c 24 4c	 fmul	 DWORD PTR _v1$[esp+480]
  00434	d9 44 24 18	 fld	 DWORD PTR _vtNormal$226651[esp+476]
  00438	d8 4c 24 48	 fmul	 DWORD PTR _v1$[esp+476]
  0043c	de c1		 faddp	 ST(1), ST(0)
  0043e	d9 44 24 14	 fld	 DWORD PTR _vtNormal$226651[esp+472]
  00442	d8 4c 24 44	 fmul	 DWORD PTR _v1$[esp+472]
  00446	de c1		 faddp	 ST(1), ST(0)
  00448	d8 c1		 fadd	 ST(0), ST(1)
  0044a	d9 5c 24 10	 fstp	 DWORD PTR _ftdu0$226642[esp+472]

; 2236 : 				ftdu1 = D3DXVec3Dot(&vtNormal, &v2) + fD2;

  0044e	d9 44 24 1c	 fld	 DWORD PTR _vtNormal$226651[esp+480]
  00452	d8 8c 24 c4 00
	00 00		 fmul	 DWORD PTR _v2$[esp+480]
  00459	d9 44 24 18	 fld	 DWORD PTR _vtNormal$226651[esp+476]
  0045d	d8 8c 24 c0 00
	00 00		 fmul	 DWORD PTR _v2$[esp+476]
  00464	de c1		 faddp	 ST(1), ST(0)
  00466	d9 44 24 14	 fld	 DWORD PTR _vtNormal$226651[esp+472]
  0046a	d8 8c 24 bc 00
	00 00		 fmul	 DWORD PTR _v2$[esp+472]
  00471	de c1		 faddp	 ST(1), ST(0)
  00473	d8 c1		 fadd	 ST(0), ST(1)
  00475	d9 5c 24 2c	 fstp	 DWORD PTR _ftdu1$226643[esp+472]

; 2237 : 				ftdu2 = D3DXVec3Dot(&vtNormal, &v3) + fD2;

  00479	d9 44 24 1c	 fld	 DWORD PTR _vtNormal$226651[esp+480]
  0047d	d8 8c 24 d4 00
	00 00		 fmul	 DWORD PTR _v3$[esp+480]
  00484	d9 44 24 18	 fld	 DWORD PTR _vtNormal$226651[esp+476]
  00488	d8 8c 24 d0 00
	00 00		 fmul	 DWORD PTR _v3$[esp+476]
  0048f	de c1		 faddp	 ST(1), ST(0)
  00491	d9 44 24 14	 fld	 DWORD PTR _vtNormal$226651[esp+472]
  00495	d8 8c 24 cc 00
	00 00		 fmul	 DWORD PTR _v3$[esp+472]
  0049c	de c1		 faddp	 ST(1), ST(0)
  0049e	d8 c1		 fadd	 ST(0), ST(1)
  004a0	d9 5c 24 6c	 fstp	 DWORD PTR _ftdu2$226644[esp+472]
  004a4	dd d8		 fstp	 ST(0)

; 2238 : 
; 2239 : 				ftdu01 = ftdu0*ftdu1;

  004a6	d9 44 24 2c	 fld	 DWORD PTR _ftdu1$226643[esp+472]
  004aa	d8 4c 24 10	 fmul	 DWORD PTR _ftdu0$226642[esp+472]
  004ae	d9 94 24 ec 00
	00 00		 fst	 DWORD PTR _ftdu01$226647[esp+472]

; 2240 : 				ftdu02 = ftdu0*ftdu2;

  004b5	d9 44 24 6c	 fld	 DWORD PTR _ftdu2$226644[esp+472]
  004b9	d8 4c 24 10	 fmul	 DWORD PTR _ftdu0$226642[esp+472]
  004bd	d9 9c 24 b4 00
	00 00		 fstp	 DWORD PTR _ftdu02$226648[esp+472]

; 2241 : 				if(ftdu01  > 0.0f && ftdu02 > 0.0f) 

  004c4	d8 1d 00 00 00
	00		 fcomp	 DWORD PTR __real@00000000
  004ca	df e0		 fnstsw	 ax
  004cc	f6 c4 41	 test	 ah, 65			; 00000041H
  004cf	75 18		 jne	 SHORT $L226664
  004d1	d9 84 24 b4 00
	00 00		 fld	 DWORD PTR _ftdu02$226648[esp+472]
  004d8	d8 1d 00 00 00
	00		 fcomp	 DWORD PTR __real@00000000
  004de	df e0		 fnstsw	 ax
  004e0	f6 c4 41	 test	 ah, 65			; 00000041H
  004e3	0f 84 17 03 00
	00		 je	 $L226637
$L226664:

; 2242 : 					continue;                    //      
; 2243 : 				
; 2244 : 				//    
; 2245 : 				D3DXVec3Cross(&vCross,&vNormal,&vtNormal);

  004e9	d9 44 24 1c	 fld	 DWORD PTR _vtNormal$226651[esp+480]
  004ed	d8 4c 24 24	 fmul	 DWORD PTR _vNormal$226633[esp+476]
  004f1	d9 44 24 18	 fld	 DWORD PTR _vtNormal$226651[esp+476]
  004f5	d8 4c 24 28	 fmul	 DWORD PTR _vNormal$226633[esp+480]
  004f9	de e9		 fsubp	 ST(1), ST(0)
  004fb	d9 9c 24 34 01
	00 00		 fstp	 DWORD PTR _v$230144[esp+472]
  00502	8b 84 24 34 01
	00 00		 mov	 eax, DWORD PTR _v$230144[esp+472]
  00509	d9 44 24 28	 fld	 DWORD PTR _vNormal$226633[esp+480]
  0050d	89 84 24 44 01
	00 00		 mov	 DWORD PTR _vCross$226652[esp+472], eax
  00514	d8 4c 24 14	 fmul	 DWORD PTR _vtNormal$226651[esp+472]
  00518	d9 44 24 1c	 fld	 DWORD PTR _vtNormal$226651[esp+480]
  0051c	d8 4c 24 20	 fmul	 DWORD PTR _vNormal$226633[esp+472]
  00520	de e9		 fsubp	 ST(1), ST(0)
  00522	d9 9c 24 38 01
	00 00		 fstp	 DWORD PTR _v$230144[esp+476]
  00529	8b 8c 24 38 01
	00 00		 mov	 ecx, DWORD PTR _v$230144[esp+476]
  00530	d9 44 24 18	 fld	 DWORD PTR _vtNormal$226651[esp+476]
  00534	89 8c 24 48 01
	00 00		 mov	 DWORD PTR _vCross$226652[esp+476], ecx
  0053b	d8 4c 24 20	 fmul	 DWORD PTR _vNormal$226633[esp+472]
  0053f	d9 44 24 24	 fld	 DWORD PTR _vNormal$226633[esp+476]
  00543	d8 4c 24 14	 fmul	 DWORD PTR _vtNormal$226651[esp+472]
  00547	de e9		 fsubp	 ST(1), ST(0)
  00549	d9 9c 24 3c 01
	00 00		 fstp	 DWORD PTR _v$230144[esp+480]
  00550	8b 94 24 3c 01
	00 00		 mov	 edx, DWORD PTR _v$230144[esp+480]
  00557	89 94 24 4c 01
	00 00		 mov	 DWORD PTR _vCross$226652[esp+480], edx

; 2246 : 
; 2247 : 				//      
; 2248 : 				fXLen = fabs(vCross.x);
; 2249 : 				fYLen = fabs(vCross.y);
; 2250 : 				fZLen = fabs(vCross.z);

  0055e	d9 84 24 4c 01
	00 00		 fld	 DWORD PTR _vCross$226652[esp+480]
  00565	d9 e1		 fabs

; 2251 : 
; 2252 : 				//    
; 2253 : 				if(fYLen > fXLen && fYLen > fZLen) // y
; 2254 : 				{
; 2255 : 					fCood1 = v1.y;
; 2256 : 					fCood2 = v2.y;
; 2257 : 					fCood3 = v3.y;
; 2258 : 					ftCood1 = tv1.y;
; 2259 : 					ftCood2 = tv2.y;
; 2260 : 					ftCood3 = tv3.y;
; 2261 : 				}
; 2262 : 				if(fZLen > fXLen && fZLen > fYLen) // z

  00567	d9 84 24 44 01
	00 00		 fld	 DWORD PTR _vCross$226652[esp+472]
  0056e	d9 e1		 fabs
  00570	d9 c1		 fld	 ST(1)
  00572	de d9		 fcompp
  00574	df e0		 fnstsw	 ax
  00576	f6 c4 41	 test	 ah, 65			; 00000041H
  00579	75 4f		 jne	 SHORT $L230179
  0057b	d9 84 24 48 01
	00 00		 fld	 DWORD PTR _vCross$226652[esp+476]
  00582	d9 e1		 fabs
  00584	d9 c9		 fxch	 ST(1)
  00586	de d9		 fcompp
  00588	df e0		 fnstsw	 ax
  0058a	f6 c4 41	 test	 ah, 65			; 00000041H
  0058d	75 3d		 jne	 SHORT $L226666

; 2263 : 				{
; 2264 : 					fCood1 = v1.z;

  0058f	8b 44 24 4c	 mov	 eax, DWORD PTR _v1$[esp+480]

; 2265 : 					fCood2 = v2.z;

  00593	8b 8c 24 c4 00
	00 00		 mov	 ecx, DWORD PTR _v2$[esp+480]

; 2266 : 					fCood3 = v3.z;

  0059a	8b 94 24 d4 00
	00 00		 mov	 edx, DWORD PTR _v3$[esp+480]
  005a1	89 84 24 ac 00
	00 00		 mov	 DWORD PTR _fCood1$226657[esp+472], eax

; 2267 : 					ftCood1 = tv1.z;

  005a8	8b 44 24 38	 mov	 eax, DWORD PTR _tv1$[esp+480]
  005ac	89 8c 24 a4 00
	00 00		 mov	 DWORD PTR _fCood2$226658[esp+472], ecx

; 2268 : 					ftCood2 = tv2.z;

  005b3	8b 8c 24 e4 00
	00 00		 mov	 ecx, DWORD PTR _tv2$[esp+480]
  005ba	89 94 24 9c 00
	00 00		 mov	 DWORD PTR _fCood3$226659[esp+472], edx

; 2269 : 					ftCood3 = tv3.z;

  005c1	8b 94 24 84 00
	00 00		 mov	 edx, DWORD PTR _tv3$[esp+480]

; 2270 : 				}
; 2271 : 				else								// x

  005c8	eb 38		 jmp	 SHORT $L230181
$L230179:

; 2251 : 
; 2252 : 				//    
; 2253 : 				if(fYLen > fXLen && fYLen > fZLen) // y
; 2254 : 				{
; 2255 : 					fCood1 = v1.y;
; 2256 : 					fCood2 = v2.y;
; 2257 : 					fCood3 = v3.y;
; 2258 : 					ftCood1 = tv1.y;
; 2259 : 					ftCood2 = tv2.y;
; 2260 : 					ftCood3 = tv3.y;
; 2261 : 				}
; 2262 : 				if(fZLen > fXLen && fZLen > fYLen) // z

  005ca	dd d8		 fstp	 ST(0)
$L226666:

; 2272 : 				{
; 2273 : 					fCood1 = v1.x;

  005cc	8b 44 24 44	 mov	 eax, DWORD PTR _v1$[esp+472]

; 2274 : 					fCood2 = v2.x;

  005d0	8b 8c 24 bc 00
	00 00		 mov	 ecx, DWORD PTR _v2$[esp+472]

; 2275 : 					fCood3 = v3.x;

  005d7	8b 94 24 cc 00
	00 00		 mov	 edx, DWORD PTR _v3$[esp+472]
  005de	89 84 24 ac 00
	00 00		 mov	 DWORD PTR _fCood1$226657[esp+472], eax

; 2276 : 					ftCood1 = tv1.x;

  005e5	8b 44 24 30	 mov	 eax, DWORD PTR _tv1$[esp+472]
  005e9	89 8c 24 a4 00
	00 00		 mov	 DWORD PTR _fCood2$226658[esp+472], ecx

; 2277 : 					ftCood2 = tv2.x;

  005f0	8b 8c 24 dc 00
	00 00		 mov	 ecx, DWORD PTR _tv2$[esp+472]
  005f7	89 94 24 9c 00
	00 00		 mov	 DWORD PTR _fCood3$226659[esp+472], edx

; 2278 : 					ftCood3 = tv3.x;

  005fe	8b 54 24 7c	 mov	 edx, DWORD PTR _tv3$[esp+472]
$L230181:
  00602	89 44 24 64	 mov	 DWORD PTR _ftCood1$226660[esp+472], eax
  00606	89 8c 24 a8 00
	00 00		 mov	 DWORD PTR _ftCood2$226661[esp+472], ecx
  0060d	89 54 24 74	 mov	 DWORD PTR _ftCood3$226662[esp+472], edx

; 2279 : 				}
; 2280 : 
; 2281 : 				float a,b,c,x0,x1, d,e,f,y0,y1;
; 2282 : 				float xx,yy,xxyy,tmp;
; 2283 : 				float isect1[2], isect2[2];
; 2284 : 
; 2285 : 				// 1  
; 2286 : 				ComputeInterval(fCood1,fCood2,fCood3,fdu0,fdu1,fdu2,fdu01,fdu02,a,b,c,x0,x1);

  00611	8d 84 24 d8 00
	00 00		 lea	 eax, DWORD PTR _x1$226672[esp+472]
  00618	50		 push	 eax
  00619	8d 8c 24 90 00
	00 00		 lea	 ecx, DWORD PTR _x0$226671[esp+476]
  00620	51		 push	 ecx
  00621	8d 94 24 08 01
	00 00		 lea	 edx, DWORD PTR _c$226670[esp+480]
  00628	52		 push	 edx
  00629	8b 94 24 c4 00
	00 00		 mov	 edx, DWORD PTR _fdu02$226646[esp+484]
  00630	8d 84 24 3c 01
	00 00		 lea	 eax, DWORD PTR _b$226669[esp+484]
  00637	50		 push	 eax
  00638	8b 84 24 f8 00
	00 00		 mov	 eax, DWORD PTR _fdu01$226645[esp+488]
  0063f	8d 8c 24 00 01
	00 00		 lea	 ecx, DWORD PTR _a$226668[esp+488]
  00646	51		 push	 ecx
  00647	8b 8c 24 8c 00
	00 00		 mov	 ecx, DWORD PTR _fdu2$226641[esp+492]
  0064e	52		 push	 edx
  0064f	8b 94 24 a0 00
	00 00		 mov	 edx, DWORD PTR _fdu1$226640[esp+496]
  00656	50		 push	 eax
  00657	8b 44 24 70	 mov	 eax, DWORD PTR _fdu0$226639[esp+500]
  0065b	51		 push	 ecx
  0065c	8b 8c 24 bc 00
	00 00		 mov	 ecx, DWORD PTR _fCood3$226659[esp+504]
  00663	52		 push	 edx
  00664	8b 94 24 c8 00
	00 00		 mov	 edx, DWORD PTR _fCood2$226658[esp+508]
  0066b	50		 push	 eax
  0066c	8b 84 24 d4 00
	00 00		 mov	 eax, DWORD PTR _fCood1$226657[esp+512]
  00673	51		 push	 ecx
  00674	8b 8c 24 84 00
	00 00		 mov	 ecx, DWORD PTR _this$[esp+516]
  0067b	52		 push	 edx
  0067c	50		 push	 eax
  0067d	e8 00 00 00 00	 call	 ?ComputeInterval@CObject3D@@QAEXMMMMMMMMAAM0000@Z ; CObject3D::ComputeInterval

; 2287 : 
; 2288 : 				// 2  
; 2289 : 				ComputeInterval(ftCood1,ftCood2,ftCood3,ftdu0,ftdu1,ftdu2,ftdu01,ftdu02,d,e,f,y0,y1);

  00682	8d 8c 24 b0 00
	00 00		 lea	 ecx, DWORD PTR _y1$226677[esp+472]
  00689	51		 push	 ecx
  0068a	8d 94 24 9c 00
	00 00		 lea	 edx, DWORD PTR _y0$226676[esp+476]
  00691	52		 push	 edx
  00692	8d 84 24 48 01
	00 00		 lea	 eax, DWORD PTR _f$226675[esp+480]
  00699	50		 push	 eax
  0069a	8b 84 24 c0 00
	00 00		 mov	 eax, DWORD PTR _ftdu02$226648[esp+484]
  006a1	8d 8c 24 1c 01
	00 00		 lea	 ecx, DWORD PTR _e$226674[esp+484]
  006a8	51		 push	 ecx
  006a9	8b 8c 24 fc 00
	00 00		 mov	 ecx, DWORD PTR _ftdu01$226647[esp+488]
  006b0	8d 94 24 60 01
	00 00		 lea	 edx, DWORD PTR _d$226673[esp+488]
  006b7	52		 push	 edx
  006b8	8b 94 24 80 00
	00 00		 mov	 edx, DWORD PTR _ftdu2$226644[esp+492]
  006bf	50		 push	 eax
  006c0	8b 44 24 44	 mov	 eax, DWORD PTR _ftdu1$226643[esp+496]
  006c4	51		 push	 ecx
  006c5	8b 4c 24 2c	 mov	 ecx, DWORD PTR _ftdu0$226642[esp+500]
  006c9	52		 push	 edx
  006ca	8b 94 24 94 00
	00 00		 mov	 edx, DWORD PTR _ftCood3$226662[esp+504]
  006d1	50		 push	 eax
  006d2	8b 84 24 cc 00
	00 00		 mov	 eax, DWORD PTR _ftCood2$226661[esp+508]
  006d9	51		 push	 ecx
  006da	8b 8c 24 8c 00
	00 00		 mov	 ecx, DWORD PTR _ftCood1$226660[esp+512]
  006e1	52		 push	 edx
  006e2	50		 push	 eax
  006e3	51		 push	 ecx
  006e4	8b 8c 24 8c 00
	00 00		 mov	 ecx, DWORD PTR _this$[esp+524]
  006eb	e8 00 00 00 00	 call	 ?ComputeInterval@CObject3D@@QAEXMMMMMMMMAAM0000@Z ; CObject3D::ComputeInterval

; 2290 : 
; 2291 : 				xx = x0 * x1;

  006f0	d9 84 24 8c 00
	00 00		 fld	 DWORD PTR _x0$226671[esp+472]
  006f7	d8 8c 24 d8 00
	00 00		 fmul	 DWORD PTR _x1$226672[esp+472]
  006fe	d9 5c 24 10	 fstp	 DWORD PTR _xx$226678[esp+472]

; 2292 : 				yy = y0 * y1;

  00702	d9 84 24 98 00
	00 00		 fld	 DWORD PTR _y0$226676[esp+472]
  00709	d8 8c 24 b0 00
	00 00		 fmul	 DWORD PTR _y1$226677[esp+472]

; 2293 : 				xxyy = xx * yy;

  00710	d9 44 24 10	 fld	 DWORD PTR _xx$226678[esp+472]
  00714	d8 c9		 fmul	 ST(0), ST(1)
  00716	d9 54 24 2c	 fst	 DWORD PTR _xxyy$226680[esp+472]

; 2294 : 
; 2295 : 				tmp = a * xxyy;

  0071a	d8 8c 24 f0 00
	00 00		 fmul	 DWORD PTR _a$226668[esp+472]

; 2296 : 				isect1[0] = tmp + b * x1 * yy;

  00721	d9 c1		 fld	 ST(1)
  00723	d8 8c 24 30 01
	00 00		 fmul	 DWORD PTR _b$226669[esp+472]
  0072a	d8 8c 24 d8 00
	00 00		 fmul	 DWORD PTR _x1$226672[esp+472]
  00731	d8 c1		 fadd	 ST(0), ST(1)
  00733	d9 5c 24 3c	 fstp	 DWORD PTR _isect1$226682[esp+472]

; 2297 : 				isect1[1] = tmp + c * x0 * yy;

  00737	d9 c9		 fxch	 ST(1)
  00739	d8 8c 24 00 01
	00 00		 fmul	 DWORD PTR _c$226670[esp+472]
  00740	d8 8c 24 8c 00
	00 00		 fmul	 DWORD PTR _x0$226671[esp+472]
  00747	d8 c1		 fadd	 ST(0), ST(1)
  00749	d9 5c 24 40	 fstp	 DWORD PTR _isect1$226682[esp+476]
  0074d	dd d8		 fstp	 ST(0)

; 2298 : 
; 2299 : 				tmp = d * xxyy;

  0074f	d9 44 24 2c	 fld	 DWORD PTR _xxyy$226680[esp+472]
  00753	d8 8c 24 50 01
	00 00		 fmul	 DWORD PTR _d$226673[esp+472]

; 2300 : 				isect2[0] = tmp + e * xx * y1;

  0075a	d9 44 24 10	 fld	 DWORD PTR _xx$226678[esp+472]
  0075e	d8 8c 24 10 01
	00 00		 fmul	 DWORD PTR _e$226674[esp+472]
  00765	d8 8c 24 b0 00
	00 00		 fmul	 DWORD PTR _y1$226677[esp+472]
  0076c	d8 c1		 fadd	 ST(0), ST(1)
  0076e	d9 9c 24 90 00
	00 00		 fstp	 DWORD PTR _isect2$226683[esp+472]

; 2301 : 				isect2[1] = tmp + f * xx * y0;

  00775	d9 44 24 10	 fld	 DWORD PTR _xx$226678[esp+472]
  00779	d8 8c 24 40 01
	00 00		 fmul	 DWORD PTR _f$226675[esp+472]
  00780	d8 8c 24 98 00
	00 00		 fmul	 DWORD PTR _y0$226676[esp+472]
  00787	d8 c1		 fadd	 ST(0), ST(1)
  00789	d9 9c 24 94 00
	00 00		 fstp	 DWORD PTR _isect2$226683[esp+476]

; 2302 : 
; 2303 : 				if(isect1[0] > isect1[1])

  00790	d9 44 24 3c	 fld	 DWORD PTR _isect1$226682[esp+472]
  00794	d8 5c 24 40	 fcomp	 DWORD PTR _isect1$226682[esp+476]
  00798	df e0		 fnstsw	 ax
  0079a	f6 c4 41	 test	 ah, 65			; 00000041H
  0079d	75 06		 jne	 SHORT $L226684
  0079f	dd d8		 fstp	 ST(0)

; 2304 : 				 tmp = isect1[0];

  007a1	d9 44 24 3c	 fld	 DWORD PTR _isect1$226682[esp+472]
$L226684:

; 2305 : 				 isect1[0] = isect1[1];

  007a5	8b 54 24 40	 mov	 edx, DWORD PTR _isect1$226682[esp+476]

; 2306 : 				 isect1[1] = tmp;

  007a9	d9 54 24 40	 fst	 DWORD PTR _isect1$226682[esp+476]

; 2307 :                
; 2308 : 				if(isect2[0] > isect2[1])

  007ad	d9 84 24 90 00
	00 00		 fld	 DWORD PTR _isect2$226683[esp+472]
  007b4	89 54 24 3c	 mov	 DWORD PTR _isect1$226682[esp+472], edx
  007b8	d8 9c 24 94 00
	00 00		 fcomp	 DWORD PTR _isect2$226683[esp+476]
  007bf	df e0		 fnstsw	 ax
  007c1	f6 c4 41	 test	 ah, 65			; 00000041H
  007c4	75 09		 jne	 SHORT $L226685
  007c6	dd d8		 fstp	 ST(0)

; 2309 : 				 tmp = isect2[0];

  007c8	d9 84 24 90 00
	00 00		 fld	 DWORD PTR _isect2$226683[esp+472]
$L226685:

; 2310 : 				 isect2[0] = isect2[1];
; 2311 : 				 isect2[1] = tmp;
; 2312 : 
; 2313 : 				if(isect1[1] < isect2[0] || isect2[1] < isect1[0]) continue;

  007cf	d9 44 24 40	 fld	 DWORD PTR _isect1$226682[esp+476]
  007d3	d8 9c 24 94 00
	00 00		 fcomp	 DWORD PTR _isect2$226683[esp+476]
  007da	df e0		 fnstsw	 ax
  007dc	f6 c4 05	 test	 ah, 5
  007df	7b 1d		 jnp	 SHORT $L230178
  007e1	d8 5c 24 3c	 fcomp	 DWORD PTR _isect1$226682[esp+472]
  007e5	df e0		 fnstsw	 ax
  007e7	f6 c4 05	 test	 ah, 5
  007ea	7b 14		 jnp	 SHORT $L226637
  007ec	5f		 pop	 edi
  007ed	5e		 pop	 esi
  007ee	5d		 pop	 ebp

; 2314 : 			
; 2315 : 				return TRUE;

  007ef	b8 01 00 00 00	 mov	 eax, 1
  007f4	5b		 pop	 ebx

; 2322 : }

  007f5	81 c4 c8 01 00
	00		 add	 esp, 456		; 000001c8H
  007fb	c2 84 00	 ret	 132			; 00000084H
$L230178:

; 2310 : 				 isect2[0] = isect2[1];
; 2311 : 				 isect2[1] = tmp;
; 2312 : 
; 2313 : 				if(isect1[1] < isect2[0] || isect2[1] < isect1[0]) continue;

  007fe	dd d8		 fstp	 ST(0)
$L226637:

; 2202 : 			pVB2  = (NORMALVERTEX*)(pTargetObj->m_pVB);
; 2203 : 			pIB2  = pTargetObj->m_pIB;
; 2204 : 			for( k = 0; k < nMax2; k++ )

  00800	8b 84 24 c8 00
	00 00		 mov	 eax, DWORD PTR _k$[esp+472]
  00807	8b 8c 24 20 01
	00 00		 mov	 ecx, DWORD PTR _nMax2$[esp+472]
  0080e	40		 inc	 eax
  0080f	3b c1		 cmp	 eax, ecx
  00811	89 84 24 c8 00
	00 00		 mov	 DWORD PTR _k$[esp+472], eax
  00818	0f 8c 13 fa ff
	ff		 jl	 $L226636
$L226629:

; 2182 : 		pVB	= (NORMALVERTEX*)(pObj->m_pVB);
; 2183 : 		pIB	= pObj->m_pIB;
; 2184 : 		for( j = 0; j < nMax; j++ )

  0081e	8b 84 24 a0 00
	00 00		 mov	 eax, DWORD PTR _j$[esp+472]
  00825	8b 8c 24 54 01
	00 00		 mov	 ecx, DWORD PTR _nMax$[esp+472]
  0082c	40		 inc	 eax
  0082d	3b c1		 cmp	 eax, ecx
  0082f	89 84 24 a0 00
	00 00		 mov	 DWORD PTR _j$[esp+472], eax
  00836	0f 8c 84 f8 ff
	ff		 jl	 $L226628
  0083c	8b 5c 24 68	 mov	 ebx, DWORD PTR tv950[esp+472]
$L226630:

; 2173 : 	}
; 2174 : 
; 2175 : 	//     ...
; 2176 : 	for( i = 0; i < nMaxObj; i++ )

  00840	8b 44 24 70	 mov	 eax, DWORD PTR _i$[esp+472]
  00844	8b 54 24 5c	 mov	 edx, DWORD PTR tv954[esp+472]
  00848	8b 4c 24 50	 mov	 ecx, DWORD PTR _nMaxObj$[esp+472]

; 2316 : 			}
; 2317 : 		}	
; 2318 : 		pObj++;

  0084c	81 c3 bc 0a 00
	00		 add	 ebx, 2748		; 00000abcH
  00852	40		 inc	 eax
  00853	83 c2 40	 add	 edx, 64			; 00000040H
  00856	3b c1		 cmp	 eax, ecx
  00858	89 5c 24 68	 mov	 DWORD PTR tv950[esp+472], ebx
  0085c	89 44 24 70	 mov	 DWORD PTR _i$[esp+472], eax
  00860	89 54 24 5c	 mov	 DWORD PTR tv954[esp+472], edx
  00864	0f 8c eb f7 ff
	ff		 jl	 $L230180
$L226625:
  0086a	5f		 pop	 edi
  0086b	5e		 pop	 esi
  0086c	5d		 pop	 ebp

; 2319 : 	}
; 2320 : 	
; 2321 : 	return FALSE;

  0086d	33 c0		 xor	 eax, eax
  0086f	5b		 pop	 ebx

; 2322 : }

  00870	81 c4 c8 01 00
	00		 add	 esp, 456		; 000001c8H
  00876	c2 84 00	 ret	 132			; 00000084H
?SimpleTriIntersect@CObject3D@@QAEHUD3DXMATRIX@@PAUGMOBJECT@@0@Z ENDP ; CObject3D::SimpleTriIntersect
_TEXT	ENDS
PUBLIC	??_C@_0DD@CLBMDIFP@IntersectRayTri?5?3?5?$LJ?v?E?X?$LN?$LK?$LJ?v?F?$NL?$MA?G?5?$LA@ ; `string'
PUBLIC	?IntersectRayTri@CObject3D@@QAEPAUD3DXVECTOR3@@ABU2@0ABUD3DXMATRIX@@PAU2@PAMH@Z ; CObject3D::IntersectRayTri
;	COMDAT ??_C@_0DD@CLBMDIFP@IntersectRayTri?5?3?5?$LJ?v?E?X?$LN?$LK?$LJ?v?F?$NL?$MA?G?5?$LA@
; File c:\documents and settings\test\mes documents\source\virtuos_v17\build\program\dx_sdk\d3dx9math.inl
CONST	SEGMENT
??_C@_0DD@CLBMDIFP@IntersectRayTri?5?3?5?$LJ?v?E?X?$LN?$LK?$LJ?v?F?$NL?$MA?G?5?$LA@ DB 'I'
	DB	'ntersectRayTri : ', 0b9H, 0f6H, 0c5H, 0d8H, 0bdH, 0baH, 0b9H, 0f6H
	DB	0c6H, 0dbH, 0c0H, 0c7H, ' ', 0b0H, 0b3H, 0bcH, 0f6H, 0b0H, 0a1H
	DB	' ', 0b3H, 0caH, 0b9H, 0abH, ' ', 0c5H, 0a9H, 0b4H, 0d9H, ' %d'
	DB	00H						; `string'
; Function compile flags: /Ogty
; File c:\documents and settings\test\mes documents\source\virtuos_v17\build\program\_common\object3d.cpp
CONST	ENDS
;	COMDAT ?IntersectRayTri@CObject3D@@QAEPAUD3DXVECTOR3@@ABU2@0ABUD3DXMATRIX@@PAU2@PAMH@Z
_TEXT	SEGMENT
tv245 = -332						; size = 4
tv194 = -332						; size = 4
_pVB$226727 = -332					; size = 4
_fDist$ = -328						; size = 4
_fMinDist$ = -324					; size = 4
_pObj$ = -320						; size = 4
_bFlag$ = -316						; size = 4
tv576 = -312						; size = 4
$T230188 = -308						; size = 12
_vInvRayDir$ = -308					; size = 12
tv698 = -296						; size = 4
_pBoneInv$ = -292					; size = 4
_v4$ = -288						; size = 4
_pBone$ = -284						; size = 4
_this$ = -280						; size = 4
$T230187 = -276						; size = 12
_vInvRayOrig$ = -276					; size = 12
_pIIB$ = -264						; size = 4
_pPhysique$226728 = -260				; size = 4
_mInv$ = -256						; size = 64
_mTM$ = -192						; size = 64
_matT$230212 = -128					; size = 64
_matT$230221 = -64					; size = 64
_vRayOrig$ = 8						; size = 4
_vRayDir$ = 12						; size = 4
_mWorld$ = 16						; size = 4
_pvIntersect$ = 20					; size = 4
_pfDist$ = 24						; size = 4
_bColl$ = 28						; size = 4
?IntersectRayTri@CObject3D@@QAEPAUD3DXVECTOR3@@ABU2@0ABUD3DXMATRIX@@PAU2@PAMH@Z PROC NEAR ; CObject3D::IntersectRayTri, COMDAT
; _this$ = ecx

; 2329 : {

  00000	81 ec 4c 01 00
	00		 sub	 esp, 332		; 0000014cH
  00006	55		 push	 ebp
  00007	8b d1		 mov	 edx, ecx

; 2330 : 	D3DXVECTOR3	*v1, *v2, *v3, *v4;
; 2331 : 	D3DXVECTOR3	vInvRayOrig, vInvRayDir, vw1, vw2;
; 2332 : 	D3DXMATRIX	mTM, mInv, *pBone, *pBoneInv;
; 2333 : 	int		nMax;
; 2334 : 	int		nMaxObj = m_Group[0].m_nMaxObject;
; 2335 : 	GMOBJECT* pObj = &m_Group[0].m_pObject[0];
; 2336 : 	WORD		*pIB, *pIIB;
; 2337 : 	int		i, j, nVIdx;
; 2338 : 	FLOAT	fDist, fMinDist = 65535.0f;
; 2339 : 	BOOL	bRet, bFlag = FALSE;
; 2340 : 
; 2341 : 	if( bColl )		//    

  00009	8b 8c 24 68 01
	00 00		 mov	 ecx, DWORD PTR _bColl$[esp+332]
  00010	8b 6a 08	 mov	 ebp, DWORD PTR [edx+8]
  00013	8b 42 04	 mov	 eax, DWORD PTR [edx+4]
  00016	56		 push	 esi
  00017	33 f6		 xor	 esi, esi
  00019	3b ce		 cmp	 ecx, esi
  0001b	57		 push	 edi
  0001c	89 54 24 40	 mov	 DWORD PTR _this$[esp+344], edx
  00020	89 6c 24 18	 mov	 DWORD PTR _pObj$[esp+344], ebp
  00024	c7 44 24 14 00
	ff 7f 47	 mov	 DWORD PTR _fMinDist$[esp+344], 1199570688 ; 477fff00H
  0002c	89 74 24 1c	 mov	 DWORD PTR _bFlag$[esp+344], esi
  00030	74 1c		 je	 SHORT $L230261

; 2342 : 	{
; 2343 : 		if( m_CollObject.m_Type != GMT_ERROR )	//    .

  00032	8b ba 00 01 00
	00		 mov	 edi, DWORD PTR [edx+256]
  00038	83 ff ff	 cmp	 edi, -1
  0003b	8d 8a 00 01 00
	00		 lea	 ecx, DWORD PTR [edx+256]
  00041	74 0b		 je	 SHORT $L230261

; 2344 : 		{
; 2345 : 			pObj = &m_CollObject;

  00043	89 4c 24 18	 mov	 DWORD PTR _pObj$[esp+344], ecx

; 2346 : 			nMaxObj = 1;	//   1.

  00047	b8 01 00 00 00	 mov	 eax, 1
  0004c	8b e9		 mov	 ebp, ecx
$L230261:

; 2347 : 		}
; 2348 : 	}
; 2349 : 
; 2350 : 	for( i = 0; i < nMaxObj; i++ )

  0004e	3b c6		 cmp	 eax, esi
  00050	0f 8e ea 03 00
	00		 jle	 $L226755
  00056	53		 push	 ebx
  00057	89 74 24 24	 mov	 DWORD PTR tv576[esp+348], esi
  0005b	89 44 24 34	 mov	 DWORD PTR tv698[esp+348], eax
  0005f	eb 04		 jmp	 SHORT $L226723
$L230264:
  00061	8b 54 24 44	 mov	 edx, DWORD PTR _this$[esp+348]
$L226723:

; 2351 : 	{
; 2352 : 		if( pObj->m_Type == GMT_SKIN )	

  00065	83 7d 00 01	 cmp	 DWORD PTR [ebp], 1
  00069	0f 85 0e 02 00
	00		 jne	 $L226726

; 2353 : 		{
; 2354 : 			SKINVERTEX *pVB;
; 2355 : 			mTM = /*_mUpdate[i] * */mWorld;

  0006f	8b b4 24 68 01
	00 00		 mov	 esi, DWORD PTR _mWorld$[esp+344]

; 2356 : 			D3DXMatrixInverse( &mInv, NULL, &mTM );

  00076	8d 84 24 9c 00
	00 00		 lea	 eax, DWORD PTR _mTM$[esp+348]
  0007d	50		 push	 eax
  0007e	b9 10 00 00 00	 mov	 ecx, 16			; 00000010H
  00083	8d bc 24 a0 00
	00 00		 lea	 edi, DWORD PTR _mTM$[esp+352]
  0008a	f3 a5		 rep movsd
  0008c	6a 00		 push	 0
  0008e	8d 4c 24 64	 lea	 ecx, DWORD PTR _mInv$[esp+356]
  00092	51		 push	 ecx
  00093	e8 00 00 00 00	 call	 _D3DXMatrixInverse@12

; 2357 : 			D3DXVec3TransformCoord( &vInvRayOrig, &vRayOrig, &mInv );

  00098	8b 84 24 60 01
	00 00		 mov	 eax, DWORD PTR _vRayOrig$[esp+344]
  0009f	8d 54 24 5c	 lea	 edx, DWORD PTR _mInv$[esp+348]
  000a3	52		 push	 edx
  000a4	50		 push	 eax
  000a5	8d 4c 24 50	 lea	 ecx, DWORD PTR _vInvRayOrig$[esp+356]
  000a9	51		 push	 ecx
  000aa	e8 00 00 00 00	 call	 _D3DXVec3TransformCoord@12

; 2358 : 			
; 2359 : 			mInv._41 = 0;	mInv._42 = 0;	mInv._43 = 0;	// vRayDir    .
; 2360 : 			D3DXVec3TransformCoord( &vInvRayDir, &vRayDir, &mInv );

  000af	8b 84 24 64 01
	00 00		 mov	 eax, DWORD PTR _vRayDir$[esp+344]
  000b6	8d 54 24 5c	 lea	 edx, DWORD PTR _mInv$[esp+348]
  000ba	52		 push	 edx
  000bb	50		 push	 eax
  000bc	8d 4c 24 30	 lea	 ecx, DWORD PTR _vInvRayDir$[esp+356]
  000c0	51		 push	 ecx
  000c1	c7 84 24 98 00
	00 00 00 00 00
	00		 mov	 DWORD PTR _mInv$[esp+408], 0
  000cc	c7 84 24 9c 00
	00 00 00 00 00
	00		 mov	 DWORD PTR _mInv$[esp+412], 0
  000d7	c7 84 24 a0 00
	00 00 00 00 00
	00		 mov	 DWORD PTR _mInv$[esp+416], 0
  000e2	e8 00 00 00 00	 call	 _D3DXVec3TransformCoord@12

; 2361 : 			int *pPhysique = pObj->m_pPhysiqueVertex;
; 2362 : 			D3DXVECTOR3	*pVList = pObj->m_pVertexList;
; 2363 : 			pIB	= pObj->m_pIB;
; 2364 : 			pIIB = pObj->m_pIIB;
; 2365 : 			pVB = (SKINVERTEX *)pObj->m_pVB;

  000e7	8b 85 a0 0a 00
	00		 mov	 eax, DWORD PTR [ebp+2720]

; 2366 : 			if( m_pmExternBone )	

  000ed	8b 4c 24 44	 mov	 ecx, DWORD PTR _this$[esp+348]
  000f1	8b 95 34 01 00
	00		 mov	 edx, DWORD PTR [ebp+308]
  000f7	8b 9d a4 0a 00
	00		 mov	 ebx, DWORD PTR [ebp+2724]
  000fd	8b b5 a8 0a 00
	00		 mov	 esi, DWORD PTR [ebp+2728]
  00103	89 44 24 10	 mov	 DWORD PTR _pVB$226727[esp+348], eax
  00107	8b 41 28	 mov	 eax, DWORD PTR [ecx+40]
  0010a	85 c0		 test	 eax, eax
  0010c	89 54 24 58	 mov	 DWORD PTR _pPhysique$226728[esp+348], edx
  00110	74 0d		 je	 SHORT $L226731

; 2367 : 			{
; 2368 : 				pBone = m_pmExternBone;		//     
; 2369 : 				pBoneInv = m_pmExternBoneInv;

  00112	8b 49 2c	 mov	 ecx, DWORD PTR [ecx+44]
  00115	89 44 24 40	 mov	 DWORD PTR _pBone$[esp+348], eax
  00119	89 4c 24 38	 mov	 DWORD PTR _pBoneInv$[esp+348], ecx

; 2370 : 			}
; 2371 : 			else					

  0011d	eb 0e		 jmp	 SHORT $L226732
$L226731:

; 2372 : 			{
; 2373 : 				pBone = m_pBaseBone;		//   .

  0011f	8b 51 34	 mov	 edx, DWORD PTR [ecx+52]

; 2374 : 				pBoneInv = m_pBaseBoneInv;

  00122	8b 41 38	 mov	 eax, DWORD PTR [ecx+56]
  00125	89 54 24 40	 mov	 DWORD PTR _pBone$[esp+348], edx
  00129	89 44 24 38	 mov	 DWORD PTR _pBoneInv$[esp+348], eax
$L226732:

; 2375 : 			}
; 2376 : 			nMax = pObj->m_nMaxVB;

  0012d	8b bd ac 0a 00
	00		 mov	 edi, DWORD PTR [ebp+2732]

; 2377 : 
; 2378 : 			if( nMax > sizeof(_vPool) / sizeof(D3DXVECTOR3) )

  00133	81 ff 58 12 00
	00		 cmp	 edi, 4696		; 00001258H
  00139	76 0e		 jbe	 SHORT $L226734

; 2379 : 				Error( "IntersectRayTri :     %d", nMax );

  0013b	57		 push	 edi
  0013c	68 00 00 00 00	 push	 OFFSET FLAT:??_C@_0DD@CLBMDIFP@IntersectRayTri?5?3?5?$LJ?v?E?X?$LN?$LK?$LJ?v?F?$NL?$MA?G?5?$LA@
  00141	e8 00 00 00 00	 call	 ?Error@@YAPBDPBDZZ	; Error
  00146	83 c4 08	 add	 esp, 8
$L226734:

; 2383 : 			for( j = 0; j < nMax; j ++ )

  00149	85 ff		 test	 edi, edi
  0014b	c7 44 24 3c 00
	00 00 00	 mov	 DWORD PTR _v4$[esp+348], OFFSET FLAT:__vPool
  00153	0f 8e 88 00 00
	00		 jle	 $L226739
  00159	8b 6c 24 10	 mov	 ebp, DWORD PTR _pVB$226727[esp+348]
  0015d	89 7c 24 10	 mov	 DWORD PTR tv245[esp+348], edi
  00161	eb 0d		 jmp	 SHORT $L226737
$L230262:

; 2380 : 
; 2381 : 			int	matIdx;
; 2382 : 			v4 = _vPool;

  00163	8b 74 24 54	 mov	 esi, DWORD PTR _pIIB$[esp+348]
  00167	eb 07 8d a4 24
	00 00 00 00	 npad	 9
$L226737:

; 2384 : 			{
; 2385 : 				nVIdx = *pIIB++;

  00170	0f b7 06	 movzx	 eax, WORD PTR [esi]

; 2386 : //				D3DXVec3TransformCoord( v4, &pVList[nVIdx], &pBone[ pPhysique[nVIdx] ] );
; 2387 : 				matIdx = pPhysique[ nVIdx ];	// 2link    .      ,.

  00173	8b 4c 24 58	 mov	 ecx, DWORD PTR _pPhysique$226728[esp+348]
  00177	8b 04 81	 mov	 eax, DWORD PTR [ecx+eax*4]

; 2388 : 				mTM = pBoneInv[ matIdx ] * pBone[ matIdx ];

  0017a	8b 54 24 40	 mov	 edx, DWORD PTR _pBone$[esp+348]
  0017e	c1 e0 06	 shl	 eax, 6
  00181	8d 0c 10	 lea	 ecx, DWORD PTR [eax+edx]
  00184	8b 54 24 38	 mov	 edx, DWORD PTR _pBoneInv$[esp+348]
  00188	51		 push	 ecx
  00189	03 c2		 add	 eax, edx
  0018b	50		 push	 eax
  0018c	8d 84 24 e4 00
	00 00		 lea	 eax, DWORD PTR _matT$230212[esp+356]
  00193	83 c6 02	 add	 esi, 2
  00196	50		 push	 eax
  00197	89 74 24 60	 mov	 DWORD PTR _pIIB$[esp+360], esi
  0019b	e8 00 00 00 00	 call	 _D3DXMatrixMultiply@12
  001a0	b9 10 00 00 00	 mov	 ecx, 16			; 00000010H
  001a5	8d b4 24 dc 00
	00 00		 lea	 esi, DWORD PTR _matT$230212[esp+348]
  001ac	8d bc 24 9c 00
	00 00		 lea	 edi, DWORD PTR _mTM$[esp+348]
  001b3	f3 a5		 rep movsd

; 2389 : 				D3DXVec3TransformCoord( v4, &pVB[j].position, &mTM );

  001b5	8b 74 24 3c	 mov	 esi, DWORD PTR _v4$[esp+348]
  001b9	8d 8c 24 9c 00
	00 00		 lea	 ecx, DWORD PTR _mTM$[esp+348]
  001c0	51		 push	 ecx
  001c1	55		 push	 ebp
  001c2	56		 push	 esi
  001c3	e8 00 00 00 00	 call	 _D3DXVec3TransformCoord@12
  001c8	8b 44 24 10	 mov	 eax, DWORD PTR tv245[esp+348]

; 2390 : 				v4 ++;

  001cc	83 c6 0c	 add	 esi, 12			; 0000000cH
  001cf	83 c5 2c	 add	 ebp, 44			; 0000002cH
  001d2	48		 dec	 eax
  001d3	89 74 24 3c	 mov	 DWORD PTR _v4$[esp+348], esi
  001d7	89 44 24 10	 mov	 DWORD PTR tv245[esp+348], eax
  001db	75 86		 jne	 SHORT $L230262

; 2383 : 			for( j = 0; j < nMax; j ++ )

  001dd	8b 6c 24 1c	 mov	 ebp, DWORD PTR _pObj$[esp+348]
$L226739:

; 2391 : 			}
; 2392 : 			nMax = pObj->m_nMaxFaceList;

  001e1	8b 85 98 00 00
	00		 mov	 eax, DWORD PTR [ebp+152]

; 2393 : 			v4 = _vPool;	// pVB
; 2394 : 			for( j = 0; j < nMax; j++ )

  001e7	85 c0		 test	 eax, eax
  001e9	0f 8e b8 01 00
	00		 jle	 $L230263

; 2391 : 			}
; 2392 : 			nMax = pObj->m_nMaxFaceList;

  001ef	8b f0		 mov	 esi, eax
$L226741:

; 2395 : 			{
; 2396 : 				v1 = &v4[ *pIB++ ];

  001f1	0f b7 03	 movzx	 eax, WORD PTR [ebx]
  001f4	8d 0c 40	 lea	 ecx, DWORD PTR [eax+eax*2]

; 2397 : 				v2 = &v4[ *pIB++ ];

  001f7	0f b7 43 02	 movzx	 eax, WORD PTR [ebx+2]
  001fb	83 c3 02	 add	 ebx, 2
  001fe	8d 14 40	 lea	 edx, DWORD PTR [eax+eax*2]

; 2398 : 				v3 = &v4[ *pIB++ ];

  00201	0f b7 43 02	 movzx	 eax, WORD PTR [ebx+2]
  00205	83 c3 02	 add	 ebx, 2

; 2399 : 
; 2400 : 				bRet = IsTouchRayTri( v1, v2, v3, &vInvRayOrig, &vInvRayDir, &fDist );

  00208	8d 7c 24 14	 lea	 edi, DWORD PTR _fDist$[esp+348]
  0020c	57		 push	 edi
  0020d	8d 7c 24 2c	 lea	 edi, DWORD PTR _vInvRayDir$[esp+352]
  00211	57		 push	 edi
  00212	8d 04 40	 lea	 eax, DWORD PTR [eax+eax*2]
  00215	8d 7c 24 50	 lea	 edi, DWORD PTR _vInvRayOrig$[esp+356]
  00219	57		 push	 edi
  0021a	8d 04 85 00 00
	00 00		 lea	 eax, DWORD PTR __vPool[eax*4]
  00221	50		 push	 eax
  00222	8d 14 95 00 00
	00 00		 lea	 edx, DWORD PTR __vPool[edx*4]
  00229	8d 0c 8d 00 00
	00 00		 lea	 ecx, DWORD PTR __vPool[ecx*4]
  00230	52		 push	 edx
  00231	51		 push	 ecx
  00232	83 c3 02	 add	 ebx, 2
  00235	e8 00 00 00 00	 call	 ?IsTouchRayTri@@YAHPBUD3DXVECTOR3@@0000PAM@Z ; IsTouchRayTri
  0023a	83 c4 18	 add	 esp, 24			; 00000018H

; 2401 : 				if( bRet && fDist >= 0.0f )	//  (-)  .

  0023d	85 c0		 test	 eax, eax
  0023f	74 30		 je	 SHORT $L226742
  00241	d9 44 24 14	 fld	 DWORD PTR _fDist$[esp+348]
  00245	d8 1d 00 00 00
	00		 fcomp	 DWORD PTR __real@00000000
  0024b	df e0		 fnstsw	 ax
  0024d	f6 c4 01	 test	 ah, 1
  00250	75 1f		 jne	 SHORT $L226742

; 2402 : 				{
; 2403 : 					if( fDist < fMinDist )	//     .

  00252	d9 44 24 14	 fld	 DWORD PTR _fDist$[esp+348]
  00256	d8 5c 24 18	 fcomp	 DWORD PTR _fMinDist$[esp+348]
  0025a	df e0		 fnstsw	 ax
  0025c	f6 c4 05	 test	 ah, 5
  0025f	7a 10		 jp	 SHORT $L226742

; 2404 : 					{
; 2405 : 						fMinDist = fDist;

  00261	8b 54 24 14	 mov	 edx, DWORD PTR _fDist$[esp+348]
  00265	89 54 24 18	 mov	 DWORD PTR _fMinDist$[esp+348], edx

; 2406 : 						bFlag = TRUE;

  00269	c7 44 24 20 01
	00 00 00	 mov	 DWORD PTR _bFlag$[esp+348], 1
$L226742:

; 2393 : 			v4 = _vPool;	// pVB
; 2394 : 			for( j = 0; j < nMax; j++ )

  00271	4e		 dec	 esi
  00272	0f 85 79 ff ff
	ff		 jne	 $L226741

; 2407 : 					#ifdef __CLIENT
; 2408 : 						s_vLastPickTri[0] = *v1;	s_vLastPickTri[1] = *v2;	s_vLastPickTri[2] = *v3;
; 2409 : 					#endif
; 2410 : 					}
; 2411 : 				}
; 2412 : 			}

  00278	e9 2a 01 00 00	 jmp	 $L230263
$L226726:

; 2347 : 		}
; 2348 : 	}
; 2349 : 
; 2350 : 	for( i = 0; i < nMaxObj; i++ )

  0027d	8b 4a 0c	 mov	 ecx, DWORD PTR [edx+12]

; 2413 : 		} else
; 2414 : 		{  // non-skin object
; 2415 : 			NORMALVERTEX *pVB;
; 2416 : 			mTM = m_Group[0]._mUpdate[i] * mWorld;

  00280	8b 84 24 68 01
	00 00		 mov	 eax, DWORD PTR _mWorld$[esp+344]
  00287	8b 5c 24 24	 mov	 ebx, DWORD PTR tv576[esp+348]
  0028b	50		 push	 eax
  0028c	03 cb		 add	 ecx, ebx
  0028e	51		 push	 ecx
  0028f	8d 94 24 24 01
	00 00		 lea	 edx, DWORD PTR _matT$230221[esp+356]
  00296	52		 push	 edx
  00297	e8 00 00 00 00	 call	 _D3DXMatrixMultiply@12

; 2417 : 			D3DXMatrixInverse( &mInv, NULL, &mTM );

  0029c	8d 84 24 9c 00
	00 00		 lea	 eax, DWORD PTR _mTM$[esp+348]
  002a3	50		 push	 eax
  002a4	b9 10 00 00 00	 mov	 ecx, 16			; 00000010H
  002a9	8d b4 24 20 01
	00 00		 lea	 esi, DWORD PTR _matT$230221[esp+352]
  002b0	8d bc 24 a0 00
	00 00		 lea	 edi, DWORD PTR _mTM$[esp+352]
  002b7	f3 a5		 rep movsd
  002b9	6a 00		 push	 0
  002bb	8d 4c 24 64	 lea	 ecx, DWORD PTR _mInv$[esp+356]
  002bf	51		 push	 ecx
  002c0	e8 00 00 00 00	 call	 _D3DXMatrixInverse@12

; 2418 : 			D3DXVec3TransformCoord( &vInvRayOrig, &vRayOrig, &mInv );

  002c5	8b 84 24 60 01
	00 00		 mov	 eax, DWORD PTR _vRayOrig$[esp+344]
  002cc	8d 54 24 5c	 lea	 edx, DWORD PTR _mInv$[esp+348]
  002d0	52		 push	 edx
  002d1	50		 push	 eax
  002d2	8d 4c 24 50	 lea	 ecx, DWORD PTR _vInvRayOrig$[esp+356]
  002d6	51		 push	 ecx
  002d7	e8 00 00 00 00	 call	 _D3DXVec3TransformCoord@12

; 2419 : 			
; 2420 : 			mInv._41 = 0;	mInv._42 = 0;	mInv._43 = 0;	// vRayDir    .
; 2421 : 			D3DXVec3TransformCoord( &vInvRayDir, &vRayDir, &mInv );

  002dc	8b 84 24 64 01
	00 00		 mov	 eax, DWORD PTR _vRayDir$[esp+344]
  002e3	8d 54 24 5c	 lea	 edx, DWORD PTR _mInv$[esp+348]
  002e7	52		 push	 edx
  002e8	50		 push	 eax
  002e9	8d 4c 24 30	 lea	 ecx, DWORD PTR _vInvRayDir$[esp+356]
  002ed	51		 push	 ecx
  002ee	c7 84 24 98 00
	00 00 00 00 00
	00		 mov	 DWORD PTR _mInv$[esp+408], 0
  002f9	c7 84 24 9c 00
	00 00 00 00 00
	00		 mov	 DWORD PTR _mInv$[esp+412], 0
  00304	c7 84 24 a0 00
	00 00 00 00 00
	00		 mov	 DWORD PTR _mInv$[esp+416], 0
  0030f	e8 00 00 00 00	 call	 _D3DXVec3TransformCoord@12

; 2422 : 			nMax = pObj->m_nMaxFaceList;

  00314	8b 85 98 00 00
	00		 mov	 eax, DWORD PTR [ebp+152]

; 2423 : 			pVB	= (NORMALVERTEX*)(pObj->m_pVB);
; 2424 : 			pIB	= pObj->m_pIB;
; 2425 : 			for( j = 0; j < nMax; j++ )

  0031a	85 c0		 test	 eax, eax
  0031c	8b bd a0 0a 00
	00		 mov	 edi, DWORD PTR [ebp+2720]
  00322	8b b5 a4 0a 00
	00		 mov	 esi, DWORD PTR [ebp+2724]
  00328	7e 7d		 jle	 SHORT $L230263

; 2413 : 		} else
; 2414 : 		{  // non-skin object
; 2415 : 			NORMALVERTEX *pVB;
; 2416 : 			mTM = m_Group[0]._mUpdate[i] * mWorld;

  0032a	89 44 24 10	 mov	 DWORD PTR tv194[esp+348], eax
  0032e	8b ff		 npad	 2
$L226750:

; 2426 : 			{
; 2427 : 				v1 = &pVB[ *pIB++ ].position;

  00330	0f b7 06	 movzx	 eax, WORD PTR [esi]

; 2428 : 				v2 = &pVB[ *pIB++ ].position;

  00333	0f b7 4e 02	 movzx	 ecx, WORD PTR [esi+2]
  00337	83 c6 02	 add	 esi, 2

; 2429 : 				v3 = &pVB[ *pIB++ ].position;

  0033a	0f b7 56 02	 movzx	 edx, WORD PTR [esi+2]
  0033e	83 c6 02	 add	 esi, 2

; 2430 : 
; 2431 : 				bRet = IsTouchRayTri( v1, v2, v3, &vInvRayOrig, &vInvRayDir, &fDist );

  00341	8d 5c 24 14	 lea	 ebx, DWORD PTR _fDist$[esp+348]
  00345	53		 push	 ebx
  00346	8d 5c 24 2c	 lea	 ebx, DWORD PTR _vInvRayDir$[esp+352]
  0034a	53		 push	 ebx
  0034b	c1 e2 05	 shl	 edx, 5
  0034e	8d 5c 24 50	 lea	 ebx, DWORD PTR _vInvRayOrig$[esp+356]
  00352	53		 push	 ebx
  00353	c1 e1 05	 shl	 ecx, 5
  00356	03 d7		 add	 edx, edi
  00358	52		 push	 edx
  00359	c1 e0 05	 shl	 eax, 5
  0035c	03 cf		 add	 ecx, edi
  0035e	03 c7		 add	 eax, edi
  00360	51		 push	 ecx
  00361	50		 push	 eax
  00362	83 c6 02	 add	 esi, 2
  00365	e8 00 00 00 00	 call	 ?IsTouchRayTri@@YAHPBUD3DXVECTOR3@@0000PAM@Z ; IsTouchRayTri
  0036a	83 c4 18	 add	 esp, 24			; 00000018H

; 2432 : 
; 2433 : 				if( bRet && fDist >= 0.0f )	//  (-)  .

  0036d	85 c0		 test	 eax, eax
  0036f	74 30		 je	 SHORT $L226751
  00371	d9 44 24 14	 fld	 DWORD PTR _fDist$[esp+348]
  00375	d8 1d 00 00 00
	00		 fcomp	 DWORD PTR __real@00000000
  0037b	df e0		 fnstsw	 ax
  0037d	f6 c4 01	 test	 ah, 1
  00380	75 1f		 jne	 SHORT $L226751

; 2434 : 				{
; 2435 : 					if( fDist < fMinDist )	//     .

  00382	d9 44 24 14	 fld	 DWORD PTR _fDist$[esp+348]
  00386	d8 5c 24 18	 fcomp	 DWORD PTR _fMinDist$[esp+348]
  0038a	df e0		 fnstsw	 ax
  0038c	f6 c4 05	 test	 ah, 5
  0038f	7a 10		 jp	 SHORT $L226751

; 2436 : 					{
; 2437 : 						fMinDist = fDist;

  00391	8b 54 24 14	 mov	 edx, DWORD PTR _fDist$[esp+348]
  00395	89 54 24 18	 mov	 DWORD PTR _fMinDist$[esp+348], edx

; 2438 : 						bFlag = TRUE;

  00399	c7 44 24 20 01
	00 00 00	 mov	 DWORD PTR _bFlag$[esp+348], 1
$L226751:
  003a1	ff 4c 24 10	 dec	 DWORD PTR tv194[esp+348]
  003a5	75 89		 jne	 SHORT $L226750
$L230263:

; 2347 : 		}
; 2348 : 	}
; 2349 : 
; 2350 : 	for( i = 0; i < nMaxObj; i++ )

  003a7	8b 4c 24 24	 mov	 ecx, DWORD PTR tv576[esp+348]
  003ab	8b 44 24 34	 mov	 eax, DWORD PTR tv698[esp+348]

; 2439 : 					#ifdef __CLIENT
; 2440 : 						D3DXVec3TransformCoord( &s_vLastPickTri[0], v1, &m_Group[0]._mUpdate[i] );
; 2441 : 						D3DXVec3TransformCoord( &s_vLastPickTri[1], v2, &m_Group[0]._mUpdate[i] );
; 2442 : 						D3DXVec3TransformCoord( &s_vLastPickTri[2], v3, &m_Group[0]._mUpdate[i] );
; 2443 : 					#endif	// __CLIENT
; 2444 : 					}
; 2445 : 				}
; 2446 : 			}
; 2447 : 		}
; 2448 : 		pObj++;

  003af	81 c5 bc 0a 00
	00		 add	 ebp, 2748		; 00000abcH
  003b5	83 c1 40	 add	 ecx, 64			; 00000040H
  003b8	48		 dec	 eax
  003b9	89 6c 24 1c	 mov	 DWORD PTR _pObj$[esp+348], ebp
  003bd	89 4c 24 24	 mov	 DWORD PTR tv576[esp+348], ecx
  003c1	89 44 24 34	 mov	 DWORD PTR tv698[esp+348], eax
  003c5	0f 85 96 fc ff
	ff		 jne	 $L230264

; 2449 : 
; 2450 : 	}
; 2451 : 	if( bFlag )	//    .

  003cb	8b 44 24 20	 mov	 eax, DWORD PTR _bFlag$[esp+348]
  003cf	85 c0		 test	 eax, eax
  003d1	5b		 pop	 ebx
  003d2	74 6c		 je	 SHORT $L226755

; 2452 : 	{
; 2453 : 		*pvIntersect = vRayOrig + fMinDist * vRayDir;		//     .

  003d4	8b 84 24 60 01
	00 00		 mov	 eax, DWORD PTR _vRayDir$[esp+340]
  003db	d9 44 24 14	 fld	 DWORD PTR _fMinDist$[esp+344]
  003df	d8 08		 fmul	 DWORD PTR [eax]
  003e1	5f		 pop	 edi
  003e2	d9 44 24 10	 fld	 DWORD PTR _fMinDist$[esp+340]
  003e6	5e		 pop	 esi
  003e7	d8 48 04	 fmul	 DWORD PTR [eax+4]
  003ea	5d		 pop	 ebp
  003eb	d9 44 24 08	 fld	 DWORD PTR _fMinDist$[esp+332]
  003ef	d8 48 08	 fmul	 DWORD PTR [eax+8]
  003f2	8b 84 24 50 01
	00 00		 mov	 eax, DWORD PTR _vRayOrig$[esp+328]
  003f9	d9 5c 24 40	 fstp	 DWORD PTR $T230187[esp+340]
  003fd	d9 c9		 fxch	 ST(1)
  003ff	d8 00		 fadd	 DWORD PTR [eax]
  00401	d9 5c 24 18	 fstp	 DWORD PTR $T230188[esp+332]
  00405	8b 4c 24 18	 mov	 ecx, DWORD PTR $T230188[esp+332]
  00409	d8 40 04	 fadd	 DWORD PTR [eax+4]
  0040c	d9 5c 24 1c	 fstp	 DWORD PTR $T230188[esp+336]
  00410	8b 54 24 1c	 mov	 edx, DWORD PTR $T230188[esp+336]
  00414	d9 44 24 40	 fld	 DWORD PTR $T230187[esp+340]
  00418	d8 40 08	 fadd	 DWORD PTR [eax+8]
  0041b	8b 84 24 5c 01
	00 00		 mov	 eax, DWORD PTR _pvIntersect$[esp+328]
  00422	89 08		 mov	 DWORD PTR [eax], ecx
  00424	89 50 04	 mov	 DWORD PTR [eax+4], edx
  00427	d9 5c 24 20	 fstp	 DWORD PTR $T230188[esp+340]
  0042b	8b 4c 24 20	 mov	 ecx, DWORD PTR $T230188[esp+340]
  0042f	89 48 08	 mov	 DWORD PTR [eax+8], ecx

; 2454 : 		return _vPool;		//    

  00432	b8 00 00 00 00	 mov	 eax, OFFSET FLAT:__vPool

; 2458 : }

  00437	81 c4 4c 01 00
	00		 add	 esp, 332		; 0000014cH
  0043d	c2 18 00	 ret	 24			; 00000018H
$L226755:
  00440	5f		 pop	 edi
  00441	5e		 pop	 esi

; 2455 : 	}
; 2456 : 	
; 2457 : 	return NULL;

  00442	33 c0		 xor	 eax, eax
  00444	5d		 pop	 ebp

; 2458 : }

  00445	81 c4 4c 01 00
	00		 add	 esp, 332		; 0000014cH
  0044b	c2 18 00	 ret	 24			; 00000018H
?IntersectRayTri@CObject3D@@QAEPAUD3DXVECTOR3@@ABU2@0ABUD3DXMATRIX@@PAU2@PAMH@Z ENDP ; CObject3D::IntersectRayTri
_TEXT	ENDS
PUBLIC	??9const_iterator@?$_Tree@V?$_Tmap_traits@V?$basic_string@DU?$char_traits@D@std@@V?$allocator@D@2@@std@@PAVCObject3D@@U?$less@V?$basic_string@DU?$char_traits@D@std@@V?$allocator@D@2@@std@@@2@V?$allocator@U?$pair@$$CBV?$basic_string@DU?$char_traits@D@std@@V?$allocator@D@2@@std@@PAVCObject3D@@@std@@@2@$0A@@std@@@std@@QBE_NABV012@@Z ; std::_Tree<std::_Tmap_traits<std::basic_string<char,std::char_traits<char>,std::allocator<char> >,CObject3D *,std::less<std::basic_string<char,std::char_traits<char>,std::allocator<char> > >,std::allocator<std::pair<std::basic_string<char,std::char_traits<char>,std::allocator<char> > const ,CObject3D *> >,0> >::const_iterator::operator!=
; Function compile flags: /Ogty
; File c:\program files\microsoft visual studio .net 2003\vc7\include\xtree
;	COMDAT ??9const_iterator@?$_Tree@V?$_Tmap_traits@V?$basic_string@DU?$char_traits@D@std@@V?$allocator@D@2@@std@@PAVCObject3D@@U?$less@V?$basic_string@DU?$char_traits@D@std@@V?$allocator@D@2@@std@@@2@V?$allocator@U?$pair@$$CBV?$basic_string@DU?$char_traits@D@std@@V?$allocator@D@2@@std@@PAVCObject3D@@@std@@@2@$0A@@std@@@std@@QBE_NABV012@@Z
_TEXT	SEGMENT
__Right$ = 8						; size = 4
??9const_iterator@?$_Tree@V?$_Tmap_traits@V?$basic_string@DU?$char_traits@D@std@@V?$allocator@D@2@@std@@PAVCObject3D@@U?$less@V?$basic_string@DU?$char_traits@D@std@@V?$allocator@D@2@@std@@@2@V?$allocator@U?$pair@$$CBV?$basic_string@DU?$char_traits@D@std@@V?$allocator@D@2@@std@@PAVCObject3D@@@std@@@2@$0A@@std@@@std@@QBE_NABV012@@Z PROC NEAR ; std::_Tree<std::_Tmap_traits<std::basic_string<char,std::char_traits<char>,std::allocator<char> >,CObject3D *,std::less<std::basic_string<char,std::char_traits<char>,std::allocator<char> > >,std::allocator<std::pair<std::basic_string<char,std::char_traits<char>,std::allocator<char> > const ,CObject3D *> >,0> >::const_iterator::operator!=, COMDAT
; _this$ = ecx

; 246  : 			return (!(*this == _Right));

  00000	8b 01		 mov	 eax, DWORD PTR [ecx]
  00002	8b 54 24 04	 mov	 edx, DWORD PTR __Right$[esp-4]
  00006	56		 push	 esi
  00007	8b 32		 mov	 esi, DWORD PTR [edx]
  00009	33 c9		 xor	 ecx, ecx
  0000b	3b c6		 cmp	 eax, esi
  0000d	0f 95 c1	 setne	 cl
  00010	8a c1		 mov	 al, cl
  00012	5e		 pop	 esi

; 247  : 			}

  00013	c2 04 00	 ret	 4
??9const_iterator@?$_Tree@V?$_Tmap_traits@V?$basic_string@DU?$char_traits@D@std@@V?$allocator@D@2@@std@@PAVCObject3D@@U?$less@V?$basic_string@DU?$char_traits@D@std@@V?$allocator@D@2@@std@@@2@V?$allocator@U?$pair@$$CBV?$basic_string@DU?$char_traits@D@std@@V?$allocator@D@2@@std@@PAVCObject3D@@@std@@@2@$0A@@std@@@std@@QBE_NABV012@@Z ENDP ; std::_Tree<std::_Tmap_traits<std::basic_string<char,std::char_traits<char>,std::allocator<char> >,CObject3D *,std::less<std::basic_string<char,std::char_traits<char>,std::allocator<char> > >,std::allocator<std::pair<std::basic_string<char,std::char_traits<char>,std::allocator<char> > const ,CObject3D *> >,0> >::const_iterator::operator!=
_TEXT	ENDS
PUBLIC	?compare@?$basic_string@DU?$char_traits@D@std@@V?$allocator@D@2@@std@@QBEHIIPBDI@Z ; std::basic_string<char,std::char_traits<char>,std::allocator<char> >::compare
EXTRN	?_Xran@_String_base@std@@QBEXXZ:NEAR		; std::_String_base::_Xran
; Function compile flags: /Ogty
; File c:\program files\microsoft visual studio .net 2003\vc7\include\xstring
;	COMDAT ?compare@?$basic_string@DU?$char_traits@D@std@@V?$allocator@D@2@@std@@QBEHIIPBDI@Z
_TEXT	SEGMENT
__Off$ = 8						; size = 4
__N0$ = 12						; size = 4
__Ptr$ = 16						; size = 4
__Count$ = 20						; size = 4
?compare@?$basic_string@DU?$char_traits@D@std@@V?$allocator@D@2@@std@@QBEHIIPBDI@Z PROC NEAR ; std::basic_string<char,std::char_traits<char>,std::allocator<char> >::compare, COMDAT
; _this$ = ecx

; 1412 : 		{	// compare [_Off, _Off + _N0) with [_Ptr, _Ptr + _Count)

  00000	53		 push	 ebx
  00001	55		 push	 ebp

; 1413 : 		if (_Mysize < _Off)

  00002	8b 6c 24 0c	 mov	 ebp, DWORD PTR __Off$[esp+4]
  00006	56		 push	 esi
  00007	8b f1		 mov	 esi, ecx
  00009	39 6e 14	 cmp	 DWORD PTR [esi+20], ebp
  0000c	73 05		 jae	 SHORT $L227001

; 1414 : 			_String_base::_Xran();	// _Off off end

  0000e	e8 00 00 00 00	 call	 ?_Xran@_String_base@std@@QBEXXZ ; std::_String_base::_Xran
$L227001:

; 1415 : 		if (_Mysize - _Off < _N0)

  00013	8b 46 14	 mov	 eax, DWORD PTR [esi+20]
  00016	8b 54 24 14	 mov	 edx, DWORD PTR __N0$[esp+8]
  0001a	2b c5		 sub	 eax, ebp
  0001c	3b c2		 cmp	 eax, edx
  0001e	73 02		 jae	 SHORT $L227002

; 1416 : 			_N0 = _Mysize - _Off;	// trim _N0 to size

  00020	8b d0		 mov	 edx, eax
$L227002:

; 1417 : 
; 1418 : 		size_type _Ans = _N0 == 0 ? 0
; 1419 : 			: _Traits::compare(_Myptr() + _Off, _Ptr,
; 1420 : 				_N0 < _Count ? _N0 : _Count);

  00022	85 d2		 test	 edx, edx
  00024	8b 5c 24 1c	 mov	 ebx, DWORD PTR __Count$[esp+8]
  00028	74 2e		 je	 SHORT $L230295
  0002a	3b d3		 cmp	 edx, ebx
  0002c	8b ca		 mov	 ecx, edx
  0002e	72 02		 jb	 SHORT $L230275
  00030	8b cb		 mov	 ecx, ebx
$L230275:
  00032	83 7e 18 10	 cmp	 DWORD PTR [esi+24], 16	; 00000010H
  00036	72 05		 jb	 SHORT $L230286
  00038	8b 46 04	 mov	 eax, DWORD PTR [esi+4]
  0003b	eb 03		 jmp	 SHORT $L230287
$L230286:
  0003d	8d 46 04	 lea	 eax, DWORD PTR [esi+4]
$L230287:
  00040	57		 push	 edi
  00041	8b 7c 24 1c	 mov	 edi, DWORD PTR __Ptr$[esp+12]
  00045	8d 34 28	 lea	 esi, DWORD PTR [eax+ebp]
  00048	33 c0		 xor	 eax, eax
  0004a	f3 a6		 repe cmpsb
  0004c	5f		 pop	 edi
  0004d	74 05		 je	 SHORT $L230294
  0004f	1b c0		 sbb	 eax, eax
  00051	83 d8 ff	 sbb	 eax, -1
$L230294:

; 1421 : 		return (_Ans != 0 ? (int)_Ans : _N0 < _Count ? -1
; 1422 : 			: _N0 == _Count ? 0 : +1);

  00054	85 c0		 test	 eax, eax
  00056	75 14		 jne	 SHORT $L230279
$L230295:
  00058	3b d3		 cmp	 edx, ebx
  0005a	73 09		 jae	 SHORT $L230278
  0005c	5e		 pop	 esi
  0005d	5d		 pop	 ebp
  0005e	83 c8 ff	 or	 eax, -1
  00061	5b		 pop	 ebx

; 1423 : 		}

  00062	c2 10 00	 ret	 16			; 00000010H
$L230278:

; 1421 : 		return (_Ans != 0 ? (int)_Ans : _N0 < _Count ? -1
; 1422 : 			: _N0 == _Count ? 0 : +1);

  00065	33 c0		 xor	 eax, eax
  00067	3b d3		 cmp	 edx, ebx
  00069	0f 95 c0	 setne	 al
$L230279:
  0006c	5e		 pop	 esi
  0006d	5d		 pop	 ebp
  0006e	5b		 pop	 ebx

; 1423 : 		}

  0006f	c2 10 00	 ret	 16			; 00000010H
?compare@?$basic_string@DU?$char_traits@D@std@@V?$allocator@D@2@@std@@QBEHIIPBDI@Z ENDP ; std::basic_string<char,std::char_traits<char>,std::allocator<char> >::compare
_TEXT	ENDS
PUBLIC	?_Key@?$_Tree@V?$_Tmap_traits@V?$basic_string@DU?$char_traits@D@std@@V?$allocator@D@2@@std@@PAVCObject3D@@U?$less@V?$basic_string@DU?$char_traits@D@std@@V?$allocator@D@2@@std@@@2@V?$allocator@U?$pair@$$CBV?$basic_string@DU?$char_traits@D@std@@V?$allocator@D@2@@std@@PAVCObject3D@@@std@@@2@$0A@@std@@@std@@KAABV?$basic_string@DU?$char_traits@D@std@@V?$allocator@D@2@@2@PAU_Node@?$_Tree_nod@V?$_Tmap_traits@V?$basic_string@DU?$char_traits@D@std@@V?$allocator@D@2@@std@@PAVCObject3D@@U?$less@V?$basic_string@DU?$char_traits@D@std@@V?$allocator@D@2@@std@@@2@V?$allocator@U?$pair@$$CBV?$basic_string@DU?$char_traits@D@std@@V?$allocator@D@2@@std@@PAVCObject3D@@@std@@@2@$0A@@std@@@2@@Z ; std::_Tree<std::_Tmap_traits<std::basic_string<char,std::char_traits<char>,std::allocator<char> >,CObject3D *,std::less<std::basic_string<char,std::char_traits<char>,std::allocator<char> > >,std::allocator<std::pair<std::basic_string<char,std::char_traits<char>,std::allocator<char> > const ,CObject3D *> >,0> >::_Key
; Function compile flags: /Ogty
; File c:\program files\microsoft visual studio .net 2003\vc7\include\xtree
;	COMDAT ?_Key@?$_Tree@V?$_Tmap_traits@V?$basic_string@DU?$char_traits@D@std@@V?$allocator@D@2@@std@@PAVCObject3D@@U?$less@V?$basic_string@DU?$char_traits@D@std@@V?$allocator@D@2@@std@@@2@V?$allocator@U?$pair@$$CBV?$basic_string@DU?$char_traits@D@std@@V?$allocator@D@2@@std@@PAVCObject3D@@@std@@@2@$0A@@std@@@std@@KAABV?$basic_string@DU?$char_traits@D@std@@V?$allocator@D@2@@2@PAU_Node@?$_Tree_nod@V?$_Tmap_traits@V?$basic_string@DU?$char_traits@D@std@@V?$allocator@D@2@@std@@PAVCObject3D@@U?$less@V?$basic_string@DU?$char_traits@D@std@@V?$allocator@D@2@@std@@@2@V?$allocator@U?$pair@$$CBV?$basic_string@DU?$char_traits@D@std@@V?$allocator@D@2@@std@@PAVCObject3D@@@std@@@2@$0A@@std@@@2@@Z
_TEXT	SEGMENT
__Pnode$ = 8						; size = 4
?_Key@?$_Tree@V?$_Tmap_traits@V?$basic_string@DU?$char_traits@D@std@@V?$allocator@D@2@@std@@PAVCObject3D@@U?$less@V?$basic_string@DU?$char_traits@D@std@@V?$allocator@D@2@@std@@@2@V?$allocator@U?$pair@$$CBV?$basic_string@DU?$char_traits@D@std@@V?$allocator@D@2@@std@@PAVCObject3D@@@std@@@2@$0A@@std@@@std@@KAABV?$basic_string@DU?$char_traits@D@std@@V?$allocator@D@2@@2@PAU_Node@?$_Tree_nod@V?$_Tmap_traits@V?$basic_string@DU?$char_traits@D@std@@V?$allocator@D@2@@std@@PAVCObject3D@@U?$less@V?$basic_string@DU?$char_traits@D@std@@V?$allocator@D@2@@std@@@2@V?$allocator@U?$pair@$$CBV?$basic_string@DU?$char_traits@D@std@@V?$allocator@D@2@@std@@PAVCObject3D@@@std@@@2@$0A@@std@@@2@@Z PROC NEAR ; std::_Tree<std::_Tmap_traits<std::basic_string<char,std::char_traits<char>,std::allocator<char> >,CObject3D *,std::less<std::basic_string<char,std::char_traits<char>,std::allocator<char> > >,std::allocator<std::pair<std::basic_string<char,std::char_traits<char>,std::allocator<char> > const ,CObject3D *> >,0> >::_Key, COMDAT

; 142  : 		return (_Mybase::_Kfn(_Myval(_Pnode)));

  00000	8b 44 24 04	 mov	 eax, DWORD PTR __Pnode$[esp-4]
  00004	83 c0 0c	 add	 eax, 12			; 0000000cH

; 143  : 		}

  00007	c3		 ret	 0
?_Key@?$_Tree@V?$_Tmap_traits@V?$basic_string@DU?$char_traits@D@std@@V?$allocator@D@2@@std@@PAVCObject3D@@U?$less@V?$basic_string@DU?$char_traits@D@std@@V?$allocator@D@2@@std@@@2@V?$allocator@U?$pair@$$CBV?$basic_string@DU?$char_traits@D@std@@V?$allocator@D@2@@std@@PAVCObject3D@@@std@@@2@$0A@@std@@@std@@KAABV?$basic_string@DU?$char_traits@D@std@@V?$allocator@D@2@@2@PAU_Node@?$_Tree_nod@V?$_Tmap_traits@V?$basic_string@DU?$char_traits@D@std@@V?$allocator@D@2@@std@@PAVCObject3D@@U?$less@V?$basic_string@DU?$char_traits@D@std@@V?$allocator@D@2@@std@@@2@V?$allocator@U?$pair@$$CBV?$basic_string@DU?$char_traits@D@std@@V?$allocator@D@2@@std@@PAVCObject3D@@@std@@@2@$0A@@std@@@2@@Z ENDP ; std::_Tree<std::_Tmap_traits<std::basic_string<char,std::char_traits<char>,std::allocator<char> >,CObject3D *,std::less<std::basic_string<char,std::char_traits<char>,std::allocator<char> > >,std::allocator<std::pair<std::basic_string<char,std::char_traits<char>,std::allocator<char> > const ,CObject3D *> >,0> >::_Key
_TEXT	ENDS
PUBLIC	?_Root@?$_Tree@V?$_Tmap_traits@V?$basic_string@DU?$char_traits@D@std@@V?$allocator@D@2@@std@@PAVCObject3D@@U?$less@V?$basic_string@DU?$char_traits@D@std@@V?$allocator@D@2@@std@@@2@V?$allocator@U?$pair@$$CBV?$basic_string@DU?$char_traits@D@std@@V?$allocator@D@2@@std@@PAVCObject3D@@@std@@@2@$0A@@std@@@std@@IAEAAPAU_Node@?$_Tree_nod@V?$_Tmap_traits@V?$basic_string@DU?$char_traits@D@std@@V?$allocator@D@2@@std@@PAVCObject3D@@U?$less@V?$basic_string@DU?$char_traits@D@std@@V?$allocator@D@2@@std@@@2@V?$allocator@U?$pair@$$CBV?$basic_string@DU?$char_traits@D@std@@V?$allocator@D@2@@std@@PAVCObject3D@@@std@@@2@$0A@@std@@@2@XZ ; std::_Tree<std::_Tmap_traits<std::basic_string<char,std::char_traits<char>,std::allocator<char> >,CObject3D *,std::less<std::basic_string<char,std::char_traits<char>,std::allocator<char> > >,std::allocator<std::pair<std::basic_string<char,std::char_traits<char>,std::allocator<char> > const ,CObject3D *> >,0> >::_Root
; Function compile flags: /Ogty
;	COMDAT ?_Root@?$_Tree@V?$_Tmap_traits@V?$basic_string@DU?$char_traits@D@std@@V?$allocator@D@2@@std@@PAVCObject3D@@U?$less@V?$basic_string@DU?$char_traits@D@std@@V?$allocator@D@2@@std@@@2@V?$allocator@U?$pair@$$CBV?$basic_string@DU?$char_traits@D@std@@V?$allocator@D@2@@std@@PAVCObject3D@@@std@@@2@$0A@@std@@@std@@IAEAAPAU_Node@?$_Tree_nod@V?$_Tmap_traits@V?$basic_string@DU?$char_traits@D@std@@V?$allocator@D@2@@std@@PAVCObject3D@@U?$less@V?$basic_string@DU?$char_traits@D@std@@V?$allocator@D@2@@std@@@2@V?$allocator@U?$pair@$$CBV?$basic_string@DU?$char_traits@D@std@@V?$allocator@D@2@@std@@PAVCObject3D@@@std@@@2@$0A@@std@@@2@XZ
_TEXT	SEGMENT
?_Root@?$_Tree@V?$_Tmap_traits@V?$basic_string@DU?$char_traits@D@std@@V?$allocator@D@2@@std@@PAVCObject3D@@U?$less@V?$basic_string@DU?$char_traits@D@std@@V?$allocator@D@2@@std@@@2@V?$allocator@U?$pair@$$CBV?$basic_string@DU?$char_traits@D@std@@V?$allocator@D@2@@std@@PAVCObject3D@@@std@@@2@$0A@@std@@@std@@IAEAAPAU_Node@?$_Tree_nod@V?$_Tmap_traits@V?$basic_string@DU?$char_traits@D@std@@V?$allocator@D@2@@std@@PAVCObject3D@@U?$less@V?$basic_string@DU?$char_traits@D@std@@V?$allocator@D@2@@std@@@2@V?$allocator@U?$pair@$$CBV?$basic_string@DU?$char_traits@D@std@@V?$allocator@D@2@@std@@PAVCObject3D@@@std@@@2@$0A@@std@@@2@XZ PROC NEAR ; std::_Tree<std::_Tmap_traits<std::basic_string<char,std::char_traits<char>,std::allocator<char> >,CObject3D *,std::less<std::basic_string<char,std::char_traits<char>,std::allocator<char> > >,std::allocator<std::pair<std::basic_string<char,std::char_traits<char>,std::allocator<char> > const ,CObject3D *> >,0> >::_Root, COMDAT
; _this$ = ecx

; 1059 : 		return (_Parent(_Myhead));

  00000	8b 41 04	 mov	 eax, DWORD PTR [ecx+4]
  00003	83 c0 04	 add	 eax, 4

; 1060 : 		}

  00006	c3		 ret	 0
?_Root@?$_Tree@V?$_Tmap_traits@V?$basic_string@DU?$char_traits@D@std@@V?$allocator@D@2@@std@@PAVCObject3D@@U?$less@V?$basic_string@DU?$char_traits@D@std@@V?$allocator@D@2@@std@@@2@V?$allocator@U?$pair@$$CBV?$basic_string@DU?$char_traits@D@std@@V?$allocator@D@2@@std@@PAVCObject3D@@@std@@@2@$0A@@std@@@std@@IAEAAPAU_Node@?$_Tree_nod@V?$_Tmap_traits@V?$basic_string@DU?$char_traits@D@std@@V?$allocator@D@2@@std@@PAVCObject3D@@U?$less@V?$basic_string@DU?$char_traits@D@std@@V?$allocator@D@2@@std@@@2@V?$allocator@U?$pair@$$CBV?$basic_string@DU?$char_traits@D@std@@V?$allocator@D@2@@std@@PAVCObject3D@@@std@@@2@$0A@@std@@@2@XZ ENDP ; std::_Tree<std::_Tmap_traits<std::basic_string<char,std::char_traits<char>,std::allocator<char> >,CObject3D *,std::less<std::basic_string<char,std::char_traits<char>,std::allocator<char> > >,std::allocator<std::pair<std::basic_string<char,std::char_traits<char>,std::allocator<char> > const ,CObject3D *> >,0> >::_Root
_TEXT	ENDS
PUBLIC	??0iterator@?$_Tree@V?$_Tmap_traits@V?$basic_string@DU?$char_traits@D@std@@V?$allocator@D@2@@std@@PAVCObject3D@@U?$less@V?$basic_string@DU?$char_traits@D@std@@V?$allocator@D@2@@std@@@2@V?$allocator@U?$pair@$$CBV?$basic_string@DU?$char_traits@D@std@@V?$allocator@D@2@@std@@PAVCObject3D@@@std@@@2@$0A@@std@@@std@@QAE@PAU_Node@?$_Tree_nod@V?$_Tmap_traits@V?$basic_string@DU?$char_traits@D@std@@V?$allocator@D@2@@std@@PAVCObject3D@@U?$less@V?$basic_string@DU?$char_traits@D@std@@V?$allocator@D@2@@std@@@2@V?$allocator@U?$pair@$$CBV?$basic_string@DU?$char_traits@D@std@@V?$allocator@D@2@@std@@PAVCObject3D@@@std@@@2@$0A@@std@@@2@@Z ; std::_Tree<std::_Tmap_traits<std::basic_string<char,std::char_traits<char>,std::allocator<char> >,CObject3D *,std::less<std::basic_string<char,std::char_traits<char>,std::allocator<char> > >,std::allocator<std::pair<std::basic_string<char,std::char_traits<char>,std::allocator<char> > const ,CObject3D *> >,0> >::iterator::iterator
; Function compile flags: /Ogty
;	COMDAT ??0iterator@?$_Tree@V?$_Tmap_traits@V?$basic_string@DU?$char_traits@D@std@@V?$allocator@D@2@@std@@PAVCObject3D@@U?$less@V?$basic_string@DU?$char_traits@D@std@@V?$allocator@D@2@@std@@@2@V?$allocator@U?$pair@$$CBV?$basic_string@DU?$char_traits@D@std@@V?$allocator@D@2@@std@@PAVCObject3D@@@std@@@2@$0A@@std@@@std@@QAE@PAU_Node@?$_Tree_nod@V?$_Tmap_traits@V?$basic_string@DU?$char_traits@D@std@@V?$allocator@D@2@@std@@PAVCObject3D@@U?$less@V?$basic_string@DU?$char_traits@D@std@@V?$allocator@D@2@@std@@@2@V?$allocator@U?$pair@$$CBV?$basic_string@DU?$char_traits@D@std@@V?$allocator@D@2@@std@@PAVCObject3D@@@std@@@2@$0A@@std@@@2@@Z
_TEXT	SEGMENT
__Pnode$ = 8						; size = 4
??0iterator@?$_Tree@V?$_Tmap_traits@V?$basic_string@DU?$char_traits@D@std@@V?$allocator@D@2@@std@@PAVCObject3D@@U?$less@V?$basic_string@DU?$char_traits@D@std@@V?$allocator@D@2@@std@@@2@V?$allocator@U?$pair@$$CBV?$basic_string@DU?$char_traits@D@std@@V?$allocator@D@2@@std@@PAVCObject3D@@@std@@@2@$0A@@std@@@std@@QAE@PAU_Node@?$_Tree_nod@V?$_Tmap_traits@V?$basic_string@DU?$char_traits@D@std@@V?$allocator@D@2@@std@@PAVCObject3D@@U?$less@V?$basic_string@DU?$char_traits@D@std@@V?$allocator@D@2@@std@@@2@V?$allocator@U?$pair@$$CBV?$basic_string@DU?$char_traits@D@std@@V?$allocator@D@2@@std@@PAVCObject3D@@@std@@@2@$0A@@std@@@2@@Z PROC NEAR ; std::_Tree<std::_Tmap_traits<std::basic_string<char,std::char_traits<char>,std::allocator<char> >,CObject3D *,std::less<std::basic_string<char,std::char_traits<char>,std::allocator<char> > >,std::allocator<std::pair<std::basic_string<char,std::char_traits<char>,std::allocator<char> > const ,CObject3D *> >,0> >::iterator::iterator, COMDAT
; _this$ = ecx

; 312  : 			{	// construct with node pointer _Pnode

  00000	8b c1		 mov	 eax, ecx
  00002	8b 4c 24 04	 mov	 ecx, DWORD PTR __Pnode$[esp-4]
  00006	89 08		 mov	 DWORD PTR [eax], ecx

; 313  : 			}

  00008	c2 04 00	 ret	 4
??0iterator@?$_Tree@V?$_Tmap_traits@V?$basic_string@DU?$char_traits@D@std@@V?$allocator@D@2@@std@@PAVCObject3D@@U?$less@V?$basic_string@DU?$char_traits@D@std@@V?$allocator@D@2@@std@@@2@V?$allocator@U?$pair@$$CBV?$basic_string@DU?$char_traits@D@std@@V?$allocator@D@2@@std@@PAVCObject3D@@@std@@@2@$0A@@std@@@std@@QAE@PAU_Node@?$_Tree_nod@V?$_Tmap_traits@V?$basic_string@DU?$char_traits@D@std@@V?$allocator@D@2@@std@@PAVCObject3D@@U?$less@V?$basic_string@DU?$char_traits@D@std@@V?$allocator@D@2@@std@@@2@V?$allocator@U?$pair@$$CBV?$basic_string@DU?$char_traits@D@std@@V?$allocator@D@2@@std@@PAVCObject3D@@@std@@@2@$0A@@std@@@2@@Z ENDP ; std::_Tree<std::_Tmap_traits<std::basic_string<char,std::char_traits<char>,std::allocator<char> >,CObject3D *,std::less<std::basic_string<char,std::char_traits<char>,std::allocator<char> > >,std::allocator<std::pair<std::basic_string<char,std::char_traits<char>,std::allocator<char> > const ,CObject3D *> >,0> >::iterator::iterator
_TEXT	ENDS
PUBLIC	??Diterator@?$_Tree@V?$_Tmap_traits@V?$basic_string@DU?$char_traits@D@std@@V?$allocator@D@2@@std@@PAVCObject3D@@U?$less@V?$basic_string@DU?$char_traits@D@std@@V?$allocator@D@2@@std@@@2@V?$allocator@U?$pair@$$CBV?$basic_string@DU?$char_traits@D@std@@V?$allocator@D@2@@std@@PAVCObject3D@@@std@@@2@$0A@@std@@@std@@QBEAAU?$pair@$$CBV?$basic_string@DU?$char_traits@D@std@@V?$allocator@D@2@@std@@PAVCObject3D@@@2@XZ ; std::_Tree<std::_Tmap_traits<std::basic_string<char,std::char_traits<char>,std::allocator<char> >,CObject3D *,std::less<std::basic_string<char,std::char_traits<char>,std::allocator<char> > >,std::allocator<std::pair<std::basic_string<char,std::char_traits<char>,std::allocator<char> > const ,CObject3D *> >,0> >::iterator::operator*
; Function compile flags: /Ogty
;	COMDAT ??Diterator@?$_Tree@V?$_Tmap_traits@V?$basic_string@DU?$char_traits@D@std@@V?$allocator@D@2@@std@@PAVCObject3D@@U?$less@V?$basic_string@DU?$char_traits@D@std@@V?$allocator@D@2@@std@@@2@V?$allocator@U?$pair@$$CBV?$basic_string@DU?$char_traits@D@std@@V?$allocator@D@2@@std@@PAVCObject3D@@@std@@@2@$0A@@std@@@std@@QBEAAU?$pair@$$CBV?$basic_string@DU?$char_traits@D@std@@V?$allocator@D@2@@std@@PAVCObject3D@@@2@XZ
_TEXT	SEGMENT
??Diterator@?$_Tree@V?$_Tmap_traits@V?$basic_string@DU?$char_traits@D@std@@V?$allocator@D@2@@std@@PAVCObject3D@@U?$less@V?$basic_string@DU?$char_traits@D@std@@V?$allocator@D@2@@std@@@2@V?$allocator@U?$pair@$$CBV?$basic_string@DU?$char_traits@D@std@@V?$allocator@D@2@@std@@PAVCObject3D@@@std@@@2@$0A@@std@@@std@@QBEAAU?$pair@$$CBV?$basic_string@DU?$char_traits@D@std@@V?$allocator@D@2@@std@@PAVCObject3D@@@2@XZ PROC NEAR ; std::_Tree<std::_Tmap_traits<std::basic_string<char,std::char_traits<char>,std::allocator<char> >,CObject3D *,std::less<std::basic_string<char,std::char_traits<char>,std::allocator<char> > >,std::allocator<std::pair<std::basic_string<char,std::char_traits<char>,std::allocator<char> > const ,CObject3D *> >,0> >::iterator::operator*, COMDAT
; _this$ = ecx

; 317  : 			return ((reference)**(const_iterator *)this);

  00000	8b 01		 mov	 eax, DWORD PTR [ecx]
  00002	83 c0 0c	 add	 eax, 12			; 0000000cH

; 318  : 			}

  00005	c3		 ret	 0
??Diterator@?$_Tree@V?$_Tmap_traits@V?$basic_string@DU?$char_traits@D@std@@V?$allocator@D@2@@std@@PAVCObject3D@@U?$less@V?$basic_string@DU?$char_traits@D@std@@V?$allocator@D@2@@std@@@2@V?$allocator@U?$pair@$$CBV?$basic_string@DU?$char_traits@D@std@@V?$allocator@D@2@@std@@PAVCObject3D@@@std@@@2@$0A@@std@@@std@@QBEAAU?$pair@$$CBV?$basic_string@DU?$char_traits@D@std@@V?$allocator@D@2@@std@@PAVCObject3D@@@2@XZ ENDP ; std::_Tree<std::_Tmap_traits<std::basic_string<char,std::char_traits<char>,std::allocator<char> >,CObject3D *,std::less<std::basic_string<char,std::char_traits<char>,std::allocator<char> > >,std::allocator<std::pair<std::basic_string<char,std::char_traits<char>,std::allocator<char> > const ,CObject3D *> >,0> >::iterator::operator*
_TEXT	ENDS
PUBLIC	?max_size@?$_Tree@V?$_Tmap_traits@V?$basic_string@DU?$char_traits@D@std@@V?$allocator@D@2@@std@@PAVCObject3D@@U?$less@V?$basic_string@DU?$char_traits@D@std@@V?$allocator@D@2@@std@@@2@V?$allocator@U?$pair@$$CBV?$basic_string@DU?$char_traits@D@std@@V?$allocator@D@2@@std@@PAVCObject3D@@@std@@@2@$0A@@std@@@std@@QBEIXZ ; std::_Tree<std::_Tmap_traits<std::basic_string<char,std::char_traits<char>,std::allocator<char> >,CObject3D *,std::less<std::basic_string<char,std::char_traits<char>,std::allocator<char> > >,std::allocator<std::pair<std::basic_string<char,std::char_traits<char>,std::allocator<char> > const ,CObject3D *> >,0> >::max_size
; Function compile flags: /Ogty
;	COMDAT ?max_size@?$_Tree@V?$_Tmap_traits@V?$basic_string@DU?$char_traits@D@std@@V?$allocator@D@2@@std@@PAVCObject3D@@U?$less@V?$basic_string@DU?$char_traits@D@std@@V?$allocator@D@2@@std@@@2@V?$allocator@U?$pair@$$CBV?$basic_string@DU?$char_traits@D@std@@V?$allocator@D@2@@std@@PAVCObject3D@@@std@@@2@$0A@@std@@@std@@QBEIXZ
_TEXT	SEGMENT
?max_size@?$_Tree@V?$_Tmap_traits@V?$basic_string@DU?$char_traits@D@std@@V?$allocator@D@2@@std@@PAVCObject3D@@U?$less@V?$basic_string@DU?$char_traits@D@std@@V?$allocator@D@2@@std@@@2@V?$allocator@U?$pair@$$CBV?$basic_string@DU?$char_traits@D@std@@V?$allocator@D@2@@std@@PAVCObject3D@@@std@@@2@$0A@@std@@@std@@QBEIXZ PROC NEAR ; std::_Tree<std::_Tmap_traits<std::basic_string<char,std::char_traits<char>,std::allocator<char> >,CObject3D *,std::less<std::basic_string<char,std::char_traits<char>,std::allocator<char> > >,std::allocator<std::pair<std::basic_string<char,std::char_traits<char>,std::allocator<char> > const ,CObject3D *> >,0> >::max_size, COMDAT
; _this$ = ecx

; 453  : 		return (this->_Alval.max_size());

  00000	b8 ff ff ff 07	 mov	 eax, 134217727		; 07ffffffH

; 454  : 		}

  00005	c3		 ret	 0
?max_size@?$_Tree@V?$_Tmap_traits@V?$basic_string@DU?$char_traits@D@std@@V?$allocator@D@2@@std@@PAVCObject3D@@U?$less@V?$basic_string@DU?$char_traits@D@std@@V?$allocator@D@2@@std@@@2@V?$allocator@U?$pair@$$CBV?$basic_string@DU?$char_traits@D@std@@V?$allocator@D@2@@std@@PAVCObject3D@@@std@@@2@$0A@@std@@@std@@QBEIXZ ENDP ; std::_Tree<std::_Tmap_traits<std::basic_string<char,std::char_traits<char>,std::allocator<char> >,CObject3D *,std::less<std::basic_string<char,std::char_traits<char>,std::allocator<char> > >,std::allocator<std::pair<std::basic_string<char,std::char_traits<char>,std::allocator<char> > const ,CObject3D *> >,0> >::max_size
_TEXT	ENDS
PUBLIC	?_Lrotate@?$_Tree@V?$_Tmap_traits@V?$basic_string@DU?$char_traits@D@std@@V?$allocator@D@2@@std@@PAVCObject3D@@U?$less@V?$basic_string@DU?$char_traits@D@std@@V?$allocator@D@2@@std@@@2@V?$allocator@U?$pair@$$CBV?$basic_string@DU?$char_traits@D@std@@V?$allocator@D@2@@std@@PAVCObject3D@@@std@@@2@$0A@@std@@@std@@IAEXPAU_Node@?$_Tree_nod@V?$_Tmap_traits@V?$basic_string@DU?$char_traits@D@std@@V?$allocator@D@2@@std@@PAVCObject3D@@U?$less@V?$basic_string@DU?$char_traits@D@std@@V?$allocator@D@2@@std@@@2@V?$allocator@U?$pair@$$CBV?$basic_string@DU?$char_traits@D@std@@V?$allocator@D@2@@std@@PAVCObject3D@@@std@@@2@$0A@@std@@@2@@Z ; std::_Tree<std::_Tmap_traits<std::basic_string<char,std::char_traits<char>,std::allocator<char> >,CObject3D *,std::less<std::basic_string<char,std::char_traits<char>,std::allocator<char> > >,std::allocator<std::pair<std::basic_string<char,std::char_traits<char>,std::allocator<char> > const ,CObject3D *> >,0> >::_Lrotate
; Function compile flags: /Ogty
;	COMDAT ?_Lrotate@?$_Tree@V?$_Tmap_traits@V?$basic_string@DU?$char_traits@D@std@@V?$allocator@D@2@@std@@PAVCObject3D@@U?$less@V?$basic_string@DU?$char_traits@D@std@@V?$allocator@D@2@@std@@@2@V?$allocator@U?$pair@$$CBV?$basic_string@DU?$char_traits@D@std@@V?$allocator@D@2@@std@@PAVCObject3D@@@std@@@2@$0A@@std@@@std@@IAEXPAU_Node@?$_Tree_nod@V?$_Tmap_traits@V?$basic_string@DU?$char_traits@D@std@@V?$allocator@D@2@@std@@PAVCObject3D@@U?$less@V?$basic_string@DU?$char_traits@D@std@@V?$allocator@D@2@@std@@@2@V?$allocator@U?$pair@$$CBV?$basic_string@DU?$char_traits@D@std@@V?$allocator@D@2@@std@@PAVCObject3D@@@std@@@2@$0A@@std@@@2@@Z
_TEXT	SEGMENT
__Wherenode$ = 8					; size = 4
?_Lrotate@?$_Tree@V?$_Tmap_traits@V?$basic_string@DU?$char_traits@D@std@@V?$allocator@D@2@@std@@PAVCObject3D@@U?$less@V?$basic_string@DU?$char_traits@D@std@@V?$allocator@D@2@@std@@@2@V?$allocator@U?$pair@$$CBV?$basic_string@DU?$char_traits@D@std@@V?$allocator@D@2@@std@@PAVCObject3D@@@std@@@2@$0A@@std@@@std@@IAEXPAU_Node@?$_Tree_nod@V?$_Tmap_traits@V?$basic_string@DU?$char_traits@D@std@@V?$allocator@D@2@@std@@PAVCObject3D@@U?$less@V?$basic_string@DU?$char_traits@D@std@@V?$allocator@D@2@@std@@@2@V?$allocator@U?$pair@$$CBV?$basic_string@DU?$char_traits@D@std@@V?$allocator@D@2@@std@@PAVCObject3D@@@std@@@2@$0A@@std@@@2@@Z PROC NEAR ; std::_Tree<std::_Tmap_traits<std::basic_string<char,std::char_traits<char>,std::allocator<char> >,CObject3D *,std::less<std::basic_string<char,std::char_traits<char>,std::allocator<char> > >,std::allocator<std::pair<std::basic_string<char,std::char_traits<char>,std::allocator<char> > const ,CObject3D *> >,0> >::_Lrotate, COMDAT
; _this$ = ecx

; 1015 : 		_Nodeptr _Pnode = _Right(_Wherenode);

  00000	8b 54 24 04	 mov	 edx, DWORD PTR __Wherenode$[esp-4]
  00004	8b 42 08	 mov	 eax, DWORD PTR [edx+8]
  00007	53		 push	 ebx
  00008	56		 push	 esi

; 1016 : 		_Right(_Wherenode) = _Left(_Pnode);

  00009	8b 30		 mov	 esi, DWORD PTR [eax]
  0000b	89 72 08	 mov	 DWORD PTR [edx+8], esi

; 1017 : 
; 1018 : 		if (!_Isnil(_Left(_Pnode)))

  0000e	8b 30		 mov	 esi, DWORD PTR [eax]
  00010	8a 5e 2d	 mov	 bl, BYTE PTR [esi+45]
  00013	84 db		 test	 bl, bl
  00015	75 03		 jne	 SHORT $L227250

; 1019 : 			_Parent(_Left(_Pnode)) = _Wherenode;

  00017	89 56 04	 mov	 DWORD PTR [esi+4], edx
$L227250:

; 1020 : 		_Parent(_Pnode) = _Parent(_Wherenode);

  0001a	8b 72 04	 mov	 esi, DWORD PTR [edx+4]
  0001d	89 70 04	 mov	 DWORD PTR [eax+4], esi

; 1021 : 
; 1022 : 		if (_Wherenode == _Root())

  00020	8b 49 04	 mov	 ecx, DWORD PTR [ecx+4]
  00023	3b 51 04	 cmp	 edx, DWORD PTR [ecx+4]
  00026	75 0d		 jne	 SHORT $L227251

; 1023 : 			_Root() = _Pnode;

  00028	89 41 04	 mov	 DWORD PTR [ecx+4], eax
  0002b	5e		 pop	 esi

; 1028 : 
; 1029 : 		_Left(_Pnode) = _Wherenode;

  0002c	89 10		 mov	 DWORD PTR [eax], edx

; 1030 : 		_Parent(_Wherenode) = _Pnode;

  0002e	89 42 04	 mov	 DWORD PTR [edx+4], eax
  00031	5b		 pop	 ebx

; 1031 : 		}

  00032	c2 04 00	 ret	 4
$L227251:

; 1024 : 		else if (_Wherenode == _Left(_Parent(_Wherenode)))

  00035	8b 4a 04	 mov	 ecx, DWORD PTR [edx+4]
  00038	3b 11		 cmp	 edx, DWORD PTR [ecx]
  0003a	75 0c		 jne	 SHORT $L227253

; 1025 : 			_Left(_Parent(_Wherenode)) = _Pnode;

  0003c	89 01		 mov	 DWORD PTR [ecx], eax
  0003e	5e		 pop	 esi

; 1028 : 
; 1029 : 		_Left(_Pnode) = _Wherenode;

  0003f	89 10		 mov	 DWORD PTR [eax], edx

; 1030 : 		_Parent(_Wherenode) = _Pnode;

  00041	89 42 04	 mov	 DWORD PTR [edx+4], eax
  00044	5b		 pop	 ebx

; 1031 : 		}

  00045	c2 04 00	 ret	 4
$L227253:

; 1026 : 		else
; 1027 : 			_Right(_Parent(_Wherenode)) = _Pnode;

  00048	89 41 08	 mov	 DWORD PTR [ecx+8], eax
  0004b	5e		 pop	 esi

; 1028 : 
; 1029 : 		_Left(_Pnode) = _Wherenode;

  0004c	89 10		 mov	 DWORD PTR [eax], edx

; 1030 : 		_Parent(_Wherenode) = _Pnode;

  0004e	89 42 04	 mov	 DWORD PTR [edx+4], eax
  00051	5b		 pop	 ebx

; 1031 : 		}

  00052	c2 04 00	 ret	 4
?_Lrotate@?$_Tree@V?$_Tmap_traits@V?$basic_string@DU?$char_traits@D@std@@V?$allocator@D@2@@std@@PAVCObject3D@@U?$less@V?$basic_string@DU?$char_traits@D@std@@V?$allocator@D@2@@std@@@2@V?$allocator@U?$pair@$$CBV?$basic_string@DU?$char_traits@D@std@@V?$allocator@D@2@@std@@PAVCObject3D@@@std@@@2@$0A@@std@@@std@@IAEXPAU_Node@?$_Tree_nod@V?$_Tmap_traits@V?$basic_string@DU?$char_traits@D@std@@V?$allocator@D@2@@std@@PAVCObject3D@@U?$less@V?$basic_string@DU?$char_traits@D@std@@V?$allocator@D@2@@std@@@2@V?$allocator@U?$pair@$$CBV?$basic_string@DU?$char_traits@D@std@@V?$allocator@D@2@@std@@PAVCObject3D@@@std@@@2@$0A@@std@@@2@@Z ENDP ; std::_Tree<std::_Tmap_traits<std::basic_string<char,std::char_traits<char>,std::allocator<char> >,CObject3D *,std::less<std::basic_string<char,std::char_traits<char>,std::allocator<char> > >,std::allocator<std::pair<std::basic_string<char,std::char_traits<char>,std::allocator<char> > const ,CObject3D *> >,0> >::_Lrotate
_TEXT	ENDS
PUBLIC	?_Rrotate@?$_Tree@V?$_Tmap_traits@V?$basic_string@DU?$char_traits@D@std@@V?$allocator@D@2@@std@@PAVCObject3D@@U?$less@V?$basic_string@DU?$char_traits@D@std@@V?$allocator@D@2@@std@@@2@V?$allocator@U?$pair@$$CBV?$basic_string@DU?$char_traits@D@std@@V?$allocator@D@2@@std@@PAVCObject3D@@@std@@@2@$0A@@std@@@std@@IAEXPAU_Node@?$_Tree_nod@V?$_Tmap_traits@V?$basic_string@DU?$char_traits@D@std@@V?$allocator@D@2@@std@@PAVCObject3D@@U?$less@V?$basic_string@DU?$char_traits@D@std@@V?$allocator@D@2@@std@@@2@V?$allocator@U?$pair@$$CBV?$basic_string@DU?$char_traits@D@std@@V?$allocator@D@2@@std@@PAVCObject3D@@@std@@@2@$0A@@std@@@2@@Z ; std::_Tree<std::_Tmap_traits<std::basic_string<char,std::char_traits<char>,std::allocator<char> >,CObject3D *,std::less<std::basic_string<char,std::char_traits<char>,std::allocator<char> > >,std::allocator<std::pair<std::basic_string<char,std::char_traits<char>,std::allocator<char> > const ,CObject3D *> >,0> >::_Rrotate
; Function compile flags: /Ogty
;	COMDAT ?_Rrotate@?$_Tree@V?$_Tmap_traits@V?$basic_string@DU?$char_traits@D@std@@V?$allocator@D@2@@std@@PAVCObject3D@@U?$less@V?$basic_string@DU?$char_traits@D@std@@V?$allocator@D@2@@std@@@2@V?$allocator@U?$pair@$$CBV?$basic_string@DU?$char_traits@D@std@@V?$allocator@D@2@@std@@PAVCObject3D@@@std@@@2@$0A@@std@@@std@@IAEXPAU_Node@?$_Tree_nod@V?$_Tmap_traits@V?$basic_string@DU?$char_traits@D@std@@V?$allocator@D@2@@std@@PAVCObject3D@@U?$less@V?$basic_string@DU?$char_traits@D@std@@V?$allocator@D@2@@std@@@2@V?$allocator@U?$pair@$$CBV?$basic_string@DU?$char_traits@D@std@@V?$allocator@D@2@@std@@PAVCObject3D@@@std@@@2@$0A@@std@@@2@@Z
_TEXT	SEGMENT
__Wherenode$ = 8					; size = 4
?_Rrotate@?$_Tree@V?$_Tmap_traits@V?$basic_string@DU?$char_traits@D@std@@V?$allocator@D@2@@std@@PAVCObject3D@@U?$less@V?$basic_string@DU?$char_traits@D@std@@V?$allocator@D@2@@std@@@2@V?$allocator@U?$pair@$$CBV?$basic_string@DU?$char_traits@D@std@@V?$allocator@D@2@@std@@PAVCObject3D@@@std@@@2@$0A@@std@@@std@@IAEXPAU_Node@?$_Tree_nod@V?$_Tmap_traits@V?$basic_string@DU?$char_traits@D@std@@V?$allocator@D@2@@std@@PAVCObject3D@@U?$less@V?$basic_string@DU?$char_traits@D@std@@V?$allocator@D@2@@std@@@2@V?$allocator@U?$pair@$$CBV?$basic_string@DU?$char_traits@D@std@@V?$allocator@D@2@@std@@PAVCObject3D@@@std@@@2@$0A@@std@@@2@@Z PROC NEAR ; std::_Tree<std::_Tmap_traits<std::basic_string<char,std::char_traits<char>,std::allocator<char> >,CObject3D *,std::less<std::basic_string<char,std::char_traits<char>,std::allocator<char> > >,std::allocator<std::pair<std::basic_string<char,std::char_traits<char>,std::allocator<char> > const ,CObject3D *> >,0> >::_Rrotate, COMDAT
; _this$ = ecx

; 1069 : 		_Nodeptr _Pnode = _Left(_Wherenode);

  00000	8b 54 24 04	 mov	 edx, DWORD PTR __Wherenode$[esp-4]
  00004	8b 02		 mov	 eax, DWORD PTR [edx]
  00006	53		 push	 ebx
  00007	56		 push	 esi

; 1070 : 		_Left(_Wherenode) = _Right(_Pnode);

  00008	8b 70 08	 mov	 esi, DWORD PTR [eax+8]
  0000b	89 32		 mov	 DWORD PTR [edx], esi

; 1071 : 
; 1072 : 		if (!_Isnil(_Right(_Pnode)))

  0000d	8b 70 08	 mov	 esi, DWORD PTR [eax+8]
  00010	8a 5e 2d	 mov	 bl, BYTE PTR [esi+45]
  00013	84 db		 test	 bl, bl
  00015	75 03		 jne	 SHORT $L227258

; 1073 : 			_Parent(_Right(_Pnode)) = _Wherenode;

  00017	89 56 04	 mov	 DWORD PTR [esi+4], edx
$L227258:

; 1074 : 		_Parent(_Pnode) = _Parent(_Wherenode);

  0001a	8b 72 04	 mov	 esi, DWORD PTR [edx+4]
  0001d	89 70 04	 mov	 DWORD PTR [eax+4], esi

; 1075 : 
; 1076 : 		if (_Wherenode == _Root())

  00020	8b 49 04	 mov	 ecx, DWORD PTR [ecx+4]
  00023	3b 51 04	 cmp	 edx, DWORD PTR [ecx+4]
  00026	75 0e		 jne	 SHORT $L227259

; 1077 : 			_Root() = _Pnode;

  00028	89 41 04	 mov	 DWORD PTR [ecx+4], eax
  0002b	5e		 pop	 esi

; 1082 : 
; 1083 : 		_Right(_Pnode) = _Wherenode;

  0002c	89 50 08	 mov	 DWORD PTR [eax+8], edx

; 1084 : 		_Parent(_Wherenode) = _Pnode;

  0002f	89 42 04	 mov	 DWORD PTR [edx+4], eax
  00032	5b		 pop	 ebx

; 1085 : 		}

  00033	c2 04 00	 ret	 4
$L227259:

; 1078 : 		else if (_Wherenode == _Right(_Parent(_Wherenode)))

  00036	8b 4a 04	 mov	 ecx, DWORD PTR [edx+4]
  00039	3b 51 08	 cmp	 edx, DWORD PTR [ecx+8]
  0003c	75 0e		 jne	 SHORT $L227261

; 1079 : 			_Right(_Parent(_Wherenode)) = _Pnode;

  0003e	89 41 08	 mov	 DWORD PTR [ecx+8], eax
  00041	5e		 pop	 esi

; 1082 : 
; 1083 : 		_Right(_Pnode) = _Wherenode;

  00042	89 50 08	 mov	 DWORD PTR [eax+8], edx

; 1084 : 		_Parent(_Wherenode) = _Pnode;

  00045	89 42 04	 mov	 DWORD PTR [edx+4], eax
  00048	5b		 pop	 ebx

; 1085 : 		}

  00049	c2 04 00	 ret	 4
$L227261:

; 1080 : 		else
; 1081 : 			_Left(_Parent(_Wherenode)) = _Pnode;

  0004c	89 01		 mov	 DWORD PTR [ecx], eax
  0004e	5e		 pop	 esi

; 1082 : 
; 1083 : 		_Right(_Pnode) = _Wherenode;

  0004f	89 50 08	 mov	 DWORD PTR [eax+8], edx

; 1084 : 		_Parent(_Wherenode) = _Pnode;

  00052	89 42 04	 mov	 DWORD PTR [edx+4], eax
  00055	5b		 pop	 ebx

; 1085 : 		}

  00056	c2 04 00	 ret	 4
?_Rrotate@?$_Tree@V?$_Tmap_traits@V?$basic_string@DU?$char_traits@D@std@@V?$allocator@D@2@@std@@PAVCObject3D@@U?$less@V?$basic_string@DU?$char_traits@D@std@@V?$allocator@D@2@@std@@@2@V?$allocator@U?$pair@$$CBV?$basic_string@DU?$char_traits@D@std@@V?$allocator@D@2@@std@@PAVCObject3D@@@std@@@2@$0A@@std@@@std@@IAEXPAU_Node@?$_Tree_nod@V?$_Tmap_traits@V?$basic_string@DU?$char_traits@D@std@@V?$allocator@D@2@@std@@PAVCObject3D@@U?$less@V?$basic_string@DU?$char_traits@D@std@@V?$allocator@D@2@@std@@@2@V?$allocator@U?$pair@$$CBV?$basic_string@DU?$char_traits@D@std@@V?$allocator@D@2@@std@@PAVCObject3D@@@std@@@2@$0A@@std@@@2@@Z ENDP ; std::_Tree<std::_Tmap_traits<std::basic_string<char,std::char_traits<char>,std::allocator<char> >,CObject3D *,std::less<std::basic_string<char,std::char_traits<char>,std::allocator<char> > >,std::allocator<std::pair<std::basic_string<char,std::char_traits<char>,std::allocator<char> > const ,CObject3D *> >,0> >::_Rrotate
_TEXT	ENDS
PUBLIC	?destroy@?$allocator@PAU_Node@?$_Tree_nod@V?$_Tmap_traits@V?$basic_string@DU?$char_traits@D@std@@V?$allocator@D@2@@std@@PAVCObject3D@@U?$less@V?$basic_string@DU?$char_traits@D@std@@V?$allocator@D@2@@std@@@2@V?$allocator@U?$pair@$$CBV?$basic_string@DU?$char_traits@D@std@@V?$allocator@D@2@@std@@PAVCObject3D@@@std@@@2@$0A@@std@@@std@@@std@@QAEXPAPAU_Node@?$_Tree_nod@V?$_Tmap_traits@V?$basic_string@DU?$char_traits@D@std@@V?$allocator@D@2@@std@@PAVCObject3D@@U?$less@V?$basic_string@DU?$char_traits@D@std@@V?$allocator@D@2@@std@@@2@V?$allocator@U?$pair@$$CBV?$basic_string@DU?$char_traits@D@std@@V?$allocator@D@2@@std@@PAVCObject3D@@@std@@@2@$0A@@std@@@2@@Z ; std::allocator<std::_Tree_nod<std::_Tmap_traits<std::basic_string<char,std::char_traits<char>,std::allocator<char> >,CObject3D *,std::less<std::basic_string<char,std::char_traits<char>,std::allocator<char> > >,std::allocator<std::pair<std::basic_string<char,std::char_traits<char>,std::allocator<char> > const ,CObject3D *> >,0> >::_Node *>::destroy
; Function compile flags: /Ogty
; File c:\program files\microsoft visual studio .net 2003\vc7\include\xmemory
;	COMDAT ?destroy@?$allocator@PAU_Node@?$_Tree_nod@V?$_Tmap_traits@V?$basic_string@DU?$char_traits@D@std@@V?$allocator@D@2@@std@@PAVCObject3D@@U?$less@V?$basic_string@DU?$char_traits@D@std@@V?$allocator@D@2@@std@@@2@V?$allocator@U?$pair@$$CBV?$basic_string@DU?$char_traits@D@std@@V?$allocator@D@2@@std@@PAVCObject3D@@@std@@@2@$0A@@std@@@std@@@std@@QAEXPAPAU_Node@?$_Tree_nod@V?$_Tmap_traits@V?$basic_string@DU?$char_traits@D@std@@V?$allocator@D@2@@std@@PAVCObject3D@@U?$less@V?$basic_string@DU?$char_traits@D@std@@V?$allocator@D@2@@std@@@2@V?$allocator@U?$pair@$$CBV?$basic_string@DU?$char_traits@D@std@@V?$allocator@D@2@@std@@PAVCObject3D@@@std@@@2@$0A@@std@@@2@@Z
_TEXT	SEGMENT
__Ptr$ = 8						; size = 4
?destroy@?$allocator@PAU_Node@?$_Tree_nod@V?$_Tmap_traits@V?$basic_string@DU?$char_traits@D@std@@V?$allocator@D@2@@std@@PAVCObject3D@@U?$less@V?$basic_string@DU?$char_traits@D@std@@V?$allocator@D@2@@std@@@2@V?$allocator@U?$pair@$$CBV?$basic_string@DU?$char_traits@D@std@@V?$allocator@D@2@@std@@PAVCObject3D@@@std@@@2@$0A@@std@@@std@@@std@@QAEXPAPAU_Node@?$_Tree_nod@V?$_Tmap_traits@V?$basic_string@DU?$char_traits@D@std@@V?$allocator@D@2@@std@@PAVCObject3D@@U?$less@V?$basic_string@DU?$char_traits@D@std@@V?$allocator@D@2@@std@@@2@V?$allocator@U?$pair@$$CBV?$basic_string@DU?$char_traits@D@std@@V?$allocator@D@2@@std@@PAVCObject3D@@@std@@@2@$0A@@std@@@2@@Z PROC NEAR ; std::allocator<std::_Tree_nod<std::_Tmap_traits<std::basic_string<char,std::char_traits<char>,std::allocator<char> >,CObject3D *,std::less<std::basic_string<char,std::char_traits<char>,std::allocator<char> > >,std::allocator<std::pair<std::basic_string<char,std::char_traits<char>,std::allocator<char> > const ,CObject3D *> >,0> >::_Node *>::destroy, COMDAT
; _this$ = ecx

; 152  : 		_Destroy(_Ptr);
; 153  : 		}

  00000	c2 04 00	 ret	 4
?destroy@?$allocator@PAU_Node@?$_Tree_nod@V?$_Tmap_traits@V?$basic_string@DU?$char_traits@D@std@@V?$allocator@D@2@@std@@PAVCObject3D@@U?$less@V?$basic_string@DU?$char_traits@D@std@@V?$allocator@D@2@@std@@@2@V?$allocator@U?$pair@$$CBV?$basic_string@DU?$char_traits@D@std@@V?$allocator@D@2@@std@@PAVCObject3D@@@std@@@2@$0A@@std@@@std@@@std@@QAEXPAPAU_Node@?$_Tree_nod@V?$_Tmap_traits@V?$basic_string@DU?$char_traits@D@std@@V?$allocator@D@2@@std@@PAVCObject3D@@U?$less@V?$basic_string@DU?$char_traits@D@std@@V?$allocator@D@2@@std@@@2@V?$allocator@U?$pair@$$CBV?$basic_string@DU?$char_traits@D@std@@V?$allocator@D@2@@std@@PAVCObject3D@@@std@@@2@$0A@@std@@@2@@Z ENDP ; std::allocator<std::_Tree_nod<std::_Tmap_traits<std::basic_string<char,std::char_traits<char>,std::allocator<char> >,CObject3D *,std::less<std::basic_string<char,std::char_traits<char>,std::allocator<char> > >,std::allocator<std::pair<std::basic_string<char,std::char_traits<char>,std::allocator<char> > const ,CObject3D *> >,0> >::_Node *>::destroy
_TEXT	ENDS
PUBLIC	??Fconst_iterator@?$_Tree@V?$_Tmap_traits@V?$basic_string@DU?$char_traits@D@std@@V?$allocator@D@2@@std@@PAVCObject3D@@U?$less@V?$basic_string@DU?$char_traits@D@std@@V?$allocator@D@2@@std@@@2@V?$allocator@U?$pair@$$CBV?$basic_string@DU?$char_traits@D@std@@V?$allocator@D@2@@std@@PAVCObject3D@@@std@@@2@$0A@@std@@@std@@QAEAAV012@XZ ; std::_Tree<std::_Tmap_traits<std::basic_string<char,std::char_traits<char>,std::allocator<char> >,CObject3D *,std::less<std::basic_string<char,std::char_traits<char>,std::allocator<char> > >,std::allocator<std::pair<std::basic_string<char,std::char_traits<char>,std::allocator<char> > const ,CObject3D *> >,0> >::const_iterator::operator--
; Function compile flags: /Ogty
; File c:\program files\microsoft visual studio .net 2003\vc7\include\xtree
;	COMDAT ??Fconst_iterator@?$_Tree@V?$_Tmap_traits@V?$basic_string@DU?$char_traits@D@std@@V?$allocator@D@2@@std@@PAVCObject3D@@U?$less@V?$basic_string@DU?$char_traits@D@std@@V?$allocator@D@2@@std@@@2@V?$allocator@U?$pair@$$CBV?$basic_string@DU?$char_traits@D@std@@V?$allocator@D@2@@std@@PAVCObject3D@@@std@@@2@$0A@@std@@@std@@QAEAAV012@XZ
_TEXT	SEGMENT
??Fconst_iterator@?$_Tree@V?$_Tmap_traits@V?$basic_string@DU?$char_traits@D@std@@V?$allocator@D@2@@std@@PAVCObject3D@@U?$less@V?$basic_string@DU?$char_traits@D@std@@V?$allocator@D@2@@std@@@2@V?$allocator@U?$pair@$$CBV?$basic_string@DU?$char_traits@D@std@@V?$allocator@D@2@@std@@PAVCObject3D@@@std@@@2@$0A@@std@@@std@@QAEAAV012@XZ PROC NEAR ; std::_Tree<std::_Tmap_traits<std::basic_string<char,std::char_traits<char>,std::allocator<char> >,CObject3D *,std::less<std::basic_string<char,std::char_traits<char>,std::allocator<char> > >,std::allocator<std::pair<std::basic_string<char,std::char_traits<char>,std::allocator<char> > const ,CObject3D *> >,0> >::const_iterator::operator--, COMDAT
; _this$ = ecx

; 227  : 			{	// predecrement

  00000	56		 push	 esi
  00001	8b f1		 mov	 esi, ecx

; 228  : 			_Dec();

  00003	e8 00 00 00 00	 call	 ?_Dec@const_iterator@?$_Tree@V?$_Tmap_traits@V?$basic_string@DU?$char_traits@D@std@@V?$allocator@D@2@@std@@PAVCObject3D@@U?$less@V?$basic_string@DU?$char_traits@D@std@@V?$allocator@D@2@@std@@@2@V?$allocator@U?$pair@$$CBV?$basic_string@DU?$char_traits@D@std@@V?$allocator@D@2@@std@@PAVCObject3D@@@std@@@2@$0A@@std@@@std@@QAEXXZ ; std::_Tree<std::_Tmap_traits<std::basic_string<char,std::char_traits<char>,std::allocator<char> >,CObject3D *,std::less<std::basic_string<char,std::char_traits<char>,std::allocator<char> > >,std::allocator<std::pair<std::basic_string<char,std::char_traits<char>,std::allocator<char> > const ,CObject3D *> >,0> >::const_iterator::_Dec

; 229  : 			return (*this);

  00008	8b c6		 mov	 eax, esi
  0000a	5e		 pop	 esi

; 230  : 			}

  0000b	c3		 ret	 0
??Fconst_iterator@?$_Tree@V?$_Tmap_traits@V?$basic_string@DU?$char_traits@D@std@@V?$allocator@D@2@@std@@PAVCObject3D@@U?$less@V?$basic_string@DU?$char_traits@D@std@@V?$allocator@D@2@@std@@@2@V?$allocator@U?$pair@$$CBV?$basic_string@DU?$char_traits@D@std@@V?$allocator@D@2@@std@@PAVCObject3D@@@std@@@2@$0A@@std@@@std@@QAEAAV012@XZ ENDP ; std::_Tree<std::_Tmap_traits<std::basic_string<char,std::char_traits<char>,std::allocator<char> >,CObject3D *,std::less<std::basic_string<char,std::char_traits<char>,std::allocator<char> > >,std::allocator<std::pair<std::basic_string<char,std::char_traits<char>,std::allocator<char> > const ,CObject3D *> >,0> >::const_iterator::operator--
_TEXT	ENDS
PUBLIC	?_Inc@const_iterator@?$_Tree@V?$_Tmap_traits@V?$basic_string@DU?$char_traits@D@std@@V?$allocator@D@2@@std@@PAVCObject3D@@U?$less@V?$basic_string@DU?$char_traits@D@std@@V?$allocator@D@2@@std@@@2@V?$allocator@U?$pair@$$CBV?$basic_string@DU?$char_traits@D@std@@V?$allocator@D@2@@std@@PAVCObject3D@@@std@@@2@$0A@@std@@@std@@QAEXXZ ; std::_Tree<std::_Tmap_traits<std::basic_string<char,std::char_traits<char>,std::allocator<char> >,CObject3D *,std::less<std::basic_string<char,std::char_traits<char>,std::allocator<char> > >,std::allocator<std::pair<std::basic_string<char,std::char_traits<char>,std::allocator<char> > const ,CObject3D *> >,0> >::const_iterator::_Inc
; Function compile flags: /Ogty
;	COMDAT ?_Inc@const_iterator@?$_Tree@V?$_Tmap_traits@V?$basic_string@DU?$char_traits@D@std@@V?$allocator@D@2@@std@@PAVCObject3D@@U?$less@V?$basic_string@DU?$char_traits@D@std@@V?$allocator@D@2@@std@@@2@V?$allocator@U?$pair@$$CBV?$basic_string@DU?$char_traits@D@std@@V?$allocator@D@2@@std@@PAVCObject3D@@@std@@@2@$0A@@std@@@std@@QAEXXZ
_TEXT	SEGMENT
?_Inc@const_iterator@?$_Tree@V?$_Tmap_traits@V?$basic_string@DU?$char_traits@D@std@@V?$allocator@D@2@@std@@PAVCObject3D@@U?$less@V?$basic_string@DU?$char_traits@D@std@@V?$allocator@D@2@@std@@@2@V?$allocator@U?$pair@$$CBV?$basic_string@DU?$char_traits@D@std@@V?$allocator@D@2@@std@@PAVCObject3D@@@std@@@2@$0A@@std@@@std@@QAEXXZ PROC NEAR ; std::_Tree<std::_Tmap_traits<std::basic_string<char,std::char_traits<char>,std::allocator<char> >,CObject3D *,std::less<std::basic_string<char,std::char_traits<char>,std::allocator<char> > >,std::allocator<std::pair<std::basic_string<char,std::char_traits<char>,std::allocator<char> > const ,CObject3D *> >,0> >::const_iterator::_Inc, COMDAT
; _this$ = ecx

; 268  : 			if (_Isnil(_Ptr))

  00000	8b 01		 mov	 eax, DWORD PTR [ecx]
  00002	8a 50 2d	 mov	 dl, BYTE PTR [eax+45]
  00005	84 d2		 test	 dl, dl
  00007	75 4d		 jne	 SHORT $L227358

; 269  : 				;	// end() shouldn't be incremented, don't move
; 270  : 			else if (!_Isnil(_Right(_Ptr)))

  00009	8b 50 08	 mov	 edx, DWORD PTR [eax+8]
  0000c	53		 push	 ebx
  0000d	8a 5a 2d	 mov	 bl, BYTE PTR [edx+45]
  00010	84 db		 test	 bl, bl
  00012	75 1b		 jne	 SHORT $L230539

; 271  : 				_Ptr = _Min(_Right(_Ptr));	// ==> smallest of right subtree

  00014	8b 02		 mov	 eax, DWORD PTR [edx]
  00016	8a 58 2d	 mov	 bl, BYTE PTR [eax+45]
  00019	84 db		 test	 bl, bl
  0001b	75 0e		 jne	 SHORT $L230520
  0001d	8d 49 00	 npad	 3
$L230519:
  00020	8b d0		 mov	 edx, eax
  00022	8b 02		 mov	 eax, DWORD PTR [edx]
  00024	8a 58 2d	 mov	 bl, BYTE PTR [eax+45]
  00027	84 db		 test	 bl, bl
  00029	74 f5		 je	 SHORT $L230519
$L230520:
  0002b	89 11		 mov	 DWORD PTR [ecx], edx
  0002d	5b		 pop	 ebx

; 279  : 				}
; 280  : 			}

  0002e	c3		 ret	 0
$L230539:

; 272  : 			else
; 273  : 				{	// climb looking for right subtree
; 274  : 				_Nodeptr _Pnode;
; 275  : 				while (!_Isnil(_Pnode = _Parent(_Ptr))
; 276  : 					&& _Ptr == _Right(_Pnode))

  0002f	8b 40 04	 mov	 eax, DWORD PTR [eax+4]
  00032	8a 50 2d	 mov	 dl, BYTE PTR [eax+45]
  00035	84 d2		 test	 dl, dl
  00037	75 1a		 jne	 SHORT $L227362
  00039	8d a4 24 00 00
	00 00		 npad	 7
$L227361:
  00040	8b 11		 mov	 edx, DWORD PTR [ecx]
  00042	3b 50 08	 cmp	 edx, DWORD PTR [eax+8]
  00045	75 0c		 jne	 SHORT $L227362

; 277  : 					_Ptr = _Pnode;	// ==> parent while right subtree

  00047	89 01		 mov	 DWORD PTR [ecx], eax
  00049	8b 40 04	 mov	 eax, DWORD PTR [eax+4]
  0004c	8a 50 2d	 mov	 dl, BYTE PTR [eax+45]
  0004f	84 d2		 test	 dl, dl
  00051	74 ed		 je	 SHORT $L227361
$L227362:

; 278  : 				_Ptr = _Pnode;	// ==> parent (head if end())

  00053	89 01		 mov	 DWORD PTR [ecx], eax
  00055	5b		 pop	 ebx
$L227358:

; 279  : 				}
; 280  : 			}

  00056	c3		 ret	 0
?_Inc@const_iterator@?$_Tree@V?$_Tmap_traits@V?$basic_string@DU?$char_traits@D@std@@V?$allocator@D@2@@std@@PAVCObject3D@@U?$less@V?$basic_string@DU?$char_traits@D@std@@V?$allocator@D@2@@std@@@2@V?$allocator@U?$pair@$$CBV?$basic_string@DU?$char_traits@D@std@@V?$allocator@D@2@@std@@PAVCObject3D@@@std@@@2@$0A@@std@@@std@@QAEXXZ ENDP ; std::_Tree<std::_Tmap_traits<std::basic_string<char,std::char_traits<char>,std::allocator<char> >,CObject3D *,std::less<std::basic_string<char,std::char_traits<char>,std::allocator<char> > >,std::allocator<std::pair<std::basic_string<char,std::char_traits<char>,std::allocator<char> > const ,CObject3D *> >,0> >::const_iterator::_Inc
_TEXT	ENDS
PUBLIC	?allocate@?$allocator@U_Node@?$_Tree_nod@V?$_Tmap_traits@V?$basic_string@DU?$char_traits@D@std@@V?$allocator@D@2@@std@@PAVCObject3D@@U?$less@V?$basic_string@DU?$char_traits@D@std@@V?$allocator@D@2@@std@@@2@V?$allocator@U?$pair@$$CBV?$basic_string@DU?$char_traits@D@std@@V?$allocator@D@2@@std@@PAVCObject3D@@@std@@@2@$0A@@std@@@std@@@std@@QAEPAU_Node@?$_Tree_nod@V?$_Tmap_traits@V?$basic_string@DU?$char_traits@D@std@@V?$allocator@D@2@@std@@PAVCObject3D@@U?$less@V?$basic_string@DU?$char_traits@D@std@@V?$allocator@D@2@@std@@@2@V?$allocator@U?$pair@$$CBV?$basic_string@DU?$char_traits@D@std@@V?$allocator@D@2@@std@@PAVCObject3D@@@std@@@2@$0A@@std@@@2@I@Z ; std::allocator<std::_Tree_nod<std::_Tmap_traits<std::basic_string<char,std::char_traits<char>,std::allocator<char> >,CObject3D *,std::less<std::basic_string<char,std::char_traits<char>,std::allocator<char> > >,std::allocator<std::pair<std::basic_string<char,std::char_traits<char>,std::allocator<char> > const ,CObject3D *> >,0> >::_Node>::allocate
; Function compile flags: /Ogty
; File c:\program files\microsoft visual studio .net 2003\vc7\include\xmemory
;	COMDAT ?allocate@?$allocator@U_Node@?$_Tree_nod@V?$_Tmap_traits@V?$basic_string@DU?$char_traits@D@std@@V?$allocator@D@2@@std@@PAVCObject3D@@U?$less@V?$basic_string@DU?$char_traits@D@std@@V?$allocator@D@2@@std@@@2@V?$allocator@U?$pair@$$CBV?$basic_string@DU?$char_traits@D@std@@V?$allocator@D@2@@std@@PAVCObject3D@@@std@@@2@$0A@@std@@@std@@@std@@QAEPAU_Node@?$_Tree_nod@V?$_Tmap_traits@V?$basic_string@DU?$char_traits@D@std@@V?$allocator@D@2@@std@@PAVCObject3D@@U?$less@V?$basic_string@DU?$char_traits@D@std@@V?$allocator@D@2@@std@@@2@V?$allocator@U?$pair@$$CBV?$basic_string@DU?$char_traits@D@std@@V?$allocator@D@2@@std@@PAVCObject3D@@@std@@@2@$0A@@std@@@2@I@Z
_TEXT	SEGMENT
__Count$ = 8						; size = 4
?allocate@?$allocator@U_Node@?$_Tree_nod@V?$_Tmap_traits@V?$basic_string@DU?$char_traits@D@std@@V?$allocator@D@2@@std@@PAVCObject3D@@U?$less@V?$basic_string@DU?$char_traits@D@std@@V?$allocator@D@2@@std@@@2@V?$allocator@U?$pair@$$CBV?$basic_string@DU?$char_traits@D@std@@V?$allocator@D@2@@std@@PAVCObject3D@@@std@@@2@$0A@@std@@@std@@@std@@QAEPAU_Node@?$_Tree_nod@V?$_Tmap_traits@V?$basic_string@DU?$char_traits@D@std@@V?$allocator@D@2@@std@@PAVCObject3D@@U?$less@V?$basic_string@DU?$char_traits@D@std@@V?$allocator@D@2@@std@@@2@V?$allocator@U?$pair@$$CBV?$basic_string@DU?$char_traits@D@std@@V?$allocator@D@2@@std@@PAVCObject3D@@@std@@@2@$0A@@std@@@2@I@Z PROC NEAR ; std::allocator<std::_Tree_nod<std::_Tmap_traits<std::basic_string<char,std::char_traits<char>,std::allocator<char> >,CObject3D *,std::less<std::basic_string<char,std::char_traits<char>,std::allocator<char> > >,std::allocator<std::pair<std::basic_string<char,std::char_traits<char>,std::allocator<char> > const ,CObject3D *> >,0> >::_Node>::allocate, COMDAT
; _this$ = ecx

; 137  : 		return (_Allocate(_Count, (pointer)0));

  00000	8b 44 24 04	 mov	 eax, DWORD PTR __Count$[esp-4]
  00004	8d 04 40	 lea	 eax, DWORD PTR [eax+eax*2]
  00007	c1 e0 04	 shl	 eax, 4
  0000a	50		 push	 eax
  0000b	e8 00 00 00 00	 call	 ??2@YAPAXI@Z		; operator new
  00010	83 c4 04	 add	 esp, 4

; 138  : 		}

  00013	c2 04 00	 ret	 4
?allocate@?$allocator@U_Node@?$_Tree_nod@V?$_Tmap_traits@V?$basic_string@DU?$char_traits@D@std@@V?$allocator@D@2@@std@@PAVCObject3D@@U?$less@V?$basic_string@DU?$char_traits@D@std@@V?$allocator@D@2@@std@@@2@V?$allocator@U?$pair@$$CBV?$basic_string@DU?$char_traits@D@std@@V?$allocator@D@2@@std@@PAVCObject3D@@@std@@@2@$0A@@std@@@std@@@std@@QAEPAU_Node@?$_Tree_nod@V?$_Tmap_traits@V?$basic_string@DU?$char_traits@D@std@@V?$allocator@D@2@@std@@PAVCObject3D@@U?$less@V?$basic_string@DU?$char_traits@D@std@@V?$allocator@D@2@@std@@@2@V?$allocator@U?$pair@$$CBV?$basic_string@DU?$char_traits@D@std@@V?$allocator@D@2@@std@@PAVCObject3D@@@std@@@2@$0A@@std@@@2@I@Z ENDP ; std::allocator<std::_Tree_nod<std::_Tmap_traits<std::basic_string<char,std::char_traits<char>,std::allocator<char> >,CObject3D *,std::less<std::basic_string<char,std::char_traits<char>,std::allocator<char> > >,std::allocator<std::pair<std::basic_string<char,std::char_traits<char>,std::allocator<char> > const ,CObject3D *> >,0> >::_Node>::allocate
_TEXT	ENDS
PUBLIC	??0?$_Tree_nod@V?$_Tmap_traits@V?$basic_string@DU?$char_traits@D@std@@V?$allocator@D@2@@std@@PAVCObject3D@@U?$less@V?$basic_string@DU?$char_traits@D@std@@V?$allocator@D@2@@std@@@2@V?$allocator@U?$pair@$$CBV?$basic_string@DU?$char_traits@D@std@@V?$allocator@D@2@@std@@PAVCObject3D@@@std@@@2@$0A@@std@@@std@@IAE@ABU?$less@V?$basic_string@DU?$char_traits@D@std@@V?$allocator@D@2@@std@@@1@V?$allocator@U?$pair@$$CBV?$basic_string@DU?$char_traits@D@std@@V?$allocator@D@2@@std@@PAVCObject3D@@@std@@@1@@Z ; std::_Tree_nod<std::_Tmap_traits<std::basic_string<char,std::char_traits<char>,std::allocator<char> >,CObject3D *,std::less<std::basic_string<char,std::char_traits<char>,std::allocator<char> > >,std::allocator<std::pair<std::basic_string<char,std::char_traits<char>,std::allocator<char> > const ,CObject3D *> >,0> >::_Tree_nod<std::_Tmap_traits<std::basic_string<char,std::char_traits<char>,std::allocator<char> >,CObject3D *,std::less<std::basic_string<char,std::char_traits<char>,std::allocator<char> > >,std::allocator<std::pair<std::basic_string<char,std::char_traits<char>,std::allocator<char> > const ,CObject3D *> >,0> >
; Function compile flags: /Ogty
; File c:\program files\microsoft visual studio .net 2003\vc7\include\xtree
;	COMDAT ??0?$_Tree_nod@V?$_Tmap_traits@V?$basic_string@DU?$char_traits@D@std@@V?$allocator@D@2@@std@@PAVCObject3D@@U?$less@V?$basic_string@DU?$char_traits@D@std@@V?$allocator@D@2@@std@@@2@V?$allocator@U?$pair@$$CBV?$basic_string@DU?$char_traits@D@std@@V?$allocator@D@2@@std@@PAVCObject3D@@@std@@@2@$0A@@std@@@std@@IAE@ABU?$less@V?$basic_string@DU?$char_traits@D@std@@V?$allocator@D@2@@std@@@1@V?$allocator@U?$pair@$$CBV?$basic_string@DU?$char_traits@D@std@@V?$allocator@D@2@@std@@PAVCObject3D@@@std@@@1@@Z
_TEXT	SEGMENT
__Parg$ = 8						; size = 4
__Al$ = 12						; size = 1
??0?$_Tree_nod@V?$_Tmap_traits@V?$basic_string@DU?$char_traits@D@std@@V?$allocator@D@2@@std@@PAVCObject3D@@U?$less@V?$basic_string@DU?$char_traits@D@std@@V?$allocator@D@2@@std@@@2@V?$allocator@U?$pair@$$CBV?$basic_string@DU?$char_traits@D@std@@V?$allocator@D@2@@std@@PAVCObject3D@@@std@@@2@$0A@@std@@@std@@IAE@ABU?$less@V?$basic_string@DU?$char_traits@D@std@@V?$allocator@D@2@@std@@@1@V?$allocator@U?$pair@$$CBV?$basic_string@DU?$char_traits@D@std@@V?$allocator@D@2@@std@@PAVCObject3D@@@std@@@1@@Z PROC NEAR ; std::_Tree_nod<std::_Tmap_traits<std::basic_string<char,std::char_traits<char>,std::allocator<char> >,CObject3D *,std::less<std::basic_string<char,std::char_traits<char>,std::allocator<char> > >,std::allocator<std::pair<std::basic_string<char,std::char_traits<char>,std::allocator<char> > const ,CObject3D *> >,0> >::_Tree_nod<std::_Tmap_traits<std::basic_string<char,std::char_traits<char>,std::allocator<char> >,CObject3D *,std::less<std::basic_string<char,std::char_traits<char>,std::allocator<char> > >,std::allocator<std::pair<std::basic_string<char,std::char_traits<char>,std::allocator<char> > const ,CObject3D *> >,0> >, COMDAT
; _this$ = ecx

; 54   : 		{	// construct traits from _Parg and allocator from _Al

  00000	8b c1		 mov	 eax, ecx

; 55   : 		}

  00002	c2 08 00	 ret	 8
??0?$_Tree_nod@V?$_Tmap_traits@V?$basic_string@DU?$char_traits@D@std@@V?$allocator@D@2@@std@@PAVCObject3D@@U?$less@V?$basic_string@DU?$char_traits@D@std@@V?$allocator@D@2@@std@@@2@V?$allocator@U?$pair@$$CBV?$basic_string@DU?$char_traits@D@std@@V?$allocator@D@2@@std@@PAVCObject3D@@@std@@@2@$0A@@std@@@std@@IAE@ABU?$less@V?$basic_string@DU?$char_traits@D@std@@V?$allocator@D@2@@std@@@1@V?$allocator@U?$pair@$$CBV?$basic_string@DU?$char_traits@D@std@@V?$allocator@D@2@@std@@PAVCObject3D@@@std@@@1@@Z ENDP ; std::_Tree_nod<std::_Tmap_traits<std::basic_string<char,std::char_traits<char>,std::allocator<char> >,CObject3D *,std::less<std::basic_string<char,std::char_traits<char>,std::allocator<char> > >,std::allocator<std::pair<std::basic_string<char,std::char_traits<char>,std::allocator<char> > const ,CObject3D *> >,0> >::_Tree_nod<std::_Tmap_traits<std::basic_string<char,std::char_traits<char>,std::allocator<char> >,CObject3D *,std::less<std::basic_string<char,std::char_traits<char>,std::allocator<char> > >,std::allocator<std::pair<std::basic_string<char,std::char_traits<char>,std::allocator<char> > const ,CObject3D *> >,0> >
_TEXT	ENDS
PUBLIC	?construct@?$allocator@PAU_Node@?$_Tree_nod@V?$_Tmap_traits@V?$basic_string@DU?$char_traits@D@std@@V?$allocator@D@2@@std@@PAVCObject3D@@U?$less@V?$basic_string@DU?$char_traits@D@std@@V?$allocator@D@2@@std@@@2@V?$allocator@U?$pair@$$CBV?$basic_string@DU?$char_traits@D@std@@V?$allocator@D@2@@std@@PAVCObject3D@@@std@@@2@$0A@@std@@@std@@@std@@QAEXPAPAU_Node@?$_Tree_nod@V?$_Tmap_traits@V?$basic_string@DU?$char_traits@D@std@@V?$allocator@D@2@@std@@PAVCObject3D@@U?$less@V?$basic_string@DU?$char_traits@D@std@@V?$allocator@D@2@@std@@@2@V?$allocator@U?$pair@$$CBV?$basic_string@DU?$char_traits@D@std@@V?$allocator@D@2@@std@@PAVCObject3D@@@std@@@2@$0A@@std@@@2@ABQAU342@@Z ; std::allocator<std::_Tree_nod<std::_Tmap_traits<std::basic_string<char,std::char_traits<char>,std::allocator<char> >,CObject3D *,std::less<std::basic_string<char,std::char_traits<char>,std::allocator<char> > >,std::allocator<std::pair<std::basic_string<char,std::char_traits<char>,std::allocator<char> > const ,CObject3D *> >,0> >::_Node *>::construct
; Function compile flags: /Ogty
; File c:\program files\microsoft visual studio .net 2003\vc7\include\xmemory
;	COMDAT ?construct@?$allocator@PAU_Node@?$_Tree_nod@V?$_Tmap_traits@V?$basic_string@DU?$char_traits@D@std@@V?$allocator@D@2@@std@@PAVCObject3D@@U?$less@V?$basic_string@DU?$char_traits@D@std@@V?$allocator@D@2@@std@@@2@V?$allocator@U?$pair@$$CBV?$basic_string@DU?$char_traits@D@std@@V?$allocator@D@2@@std@@PAVCObject3D@@@std@@@2@$0A@@std@@@std@@@std@@QAEXPAPAU_Node@?$_Tree_nod@V?$_Tmap_traits@V?$basic_string@DU?$char_traits@D@std@@V?$allocator@D@2@@std@@PAVCObject3D@@U?$less@V?$basic_string@DU?$char_traits@D@std@@V?$allocator@D@2@@std@@@2@V?$allocator@U?$pair@$$CBV?$basic_string@DU?$char_traits@D@std@@V?$allocator@D@2@@std@@PAVCObject3D@@@std@@@2@$0A@@std@@@2@ABQAU342@@Z
_TEXT	SEGMENT
__Ptr$ = 8						; size = 4
__Val$ = 12						; size = 4
?construct@?$allocator@PAU_Node@?$_Tree_nod@V?$_Tmap_traits@V?$basic_string@DU?$char_traits@D@std@@V?$allocator@D@2@@std@@PAVCObject3D@@U?$less@V?$basic_string@DU?$char_traits@D@std@@V?$allocator@D@2@@std@@@2@V?$allocator@U?$pair@$$CBV?$basic_string@DU?$char_traits@D@std@@V?$allocator@D@2@@std@@PAVCObject3D@@@std@@@2@$0A@@std@@@std@@@std@@QAEXPAPAU_Node@?$_Tree_nod@V?$_Tmap_traits@V?$basic_string@DU?$char_traits@D@std@@V?$allocator@D@2@@std@@PAVCObject3D@@U?$less@V?$basic_string@DU?$char_traits@D@std@@V?$allocator@D@2@@std@@@2@V?$allocator@U?$pair@$$CBV?$basic_string@DU?$char_traits@D@std@@V?$allocator@D@2@@std@@PAVCObject3D@@@std@@@2@$0A@@std@@@2@ABQAU342@@Z PROC NEAR ; std::allocator<std::_Tree_nod<std::_Tmap_traits<std::basic_string<char,std::char_traits<char>,std::allocator<char> >,CObject3D *,std::less<std::basic_string<char,std::char_traits<char>,std::allocator<char> > >,std::allocator<std::pair<std::basic_string<char,std::char_traits<char>,std::allocator<char> > const ,CObject3D *> >,0> >::_Node *>::construct, COMDAT
; _this$ = ecx

; 147  : 		_Construct(_Ptr, _Val);

  00000	8b 44 24 04	 mov	 eax, DWORD PTR __Ptr$[esp-4]
  00004	85 c0		 test	 eax, eax
  00006	74 08		 je	 SHORT $L230570
  00008	8b 4c 24 08	 mov	 ecx, DWORD PTR __Val$[esp-4]
  0000c	8b 11		 mov	 edx, DWORD PTR [ecx]
  0000e	89 10		 mov	 DWORD PTR [eax], edx
$L230570:

; 148  : 		}

  00010	c2 08 00	 ret	 8
?construct@?$allocator@PAU_Node@?$_Tree_nod@V?$_Tmap_traits@V?$basic_string@DU?$char_traits@D@std@@V?$allocator@D@2@@std@@PAVCObject3D@@U?$less@V?$basic_string@DU?$char_traits@D@std@@V?$allocator@D@2@@std@@@2@V?$allocator@U?$pair@$$CBV?$basic_string@DU?$char_traits@D@std@@V?$allocator@D@2@@std@@PAVCObject3D@@@std@@@2@$0A@@std@@@std@@@std@@QAEXPAPAU_Node@?$_Tree_nod@V?$_Tmap_traits@V?$basic_string@DU?$char_traits@D@std@@V?$allocator@D@2@@std@@PAVCObject3D@@U?$less@V?$basic_string@DU?$char_traits@D@std@@V?$allocator@D@2@@std@@@2@V?$allocator@U?$pair@$$CBV?$basic_string@DU?$char_traits@D@std@@V?$allocator@D@2@@std@@PAVCObject3D@@@std@@@2@$0A@@std@@@2@ABQAU342@@Z ENDP ; std::allocator<std::_Tree_nod<std::_Tmap_traits<std::basic_string<char,std::char_traits<char>,std::allocator<char> >,CObject3D *,std::less<std::basic_string<char,std::char_traits<char>,std::allocator<char> > >,std::allocator<std::pair<std::basic_string<char,std::char_traits<char>,std::allocator<char> > const ,CObject3D *> >,0> >::_Node *>::construct
_TEXT	ENDS
EXTRN	_fileno:NEAR
EXTRN	__filelength:NEAR
; Function compile flags: /Ogty
; File c:\documents and settings\test\mes documents\source\virtuos_v17\build\program\_common\file.h
;	COMDAT ?GetLength@CFileIO@@UAEJXZ
_TEXT	SEGMENT
?GetLength@CFileIO@@UAEJXZ PROC NEAR			; CFileIO::GetLength, COMDAT
; _this$ = ecx

; 26   : 	virtual long GetLength() { return _filelength( Handle() ); }

  00000	8b 41 04	 mov	 eax, DWORD PTR [ecx+4]
  00003	50		 push	 eax
  00004	e8 00 00 00 00	 call	 _fileno
  00009	50		 push	 eax
  0000a	e8 00 00 00 00	 call	 __filelength
  0000f	83 c4 08	 add	 esp, 8
  00012	c3		 ret	 0
?GetLength@CFileIO@@UAEJXZ ENDP				; CFileIO::GetLength
_TEXT	ENDS
PUBLIC	??1?$CSimpleStringT@D$0A@@ATL@@QAE@XZ		; ATL::CSimpleStringT<char,0>::~CSimpleStringT<char,0>
; Function compile flags: /Ogty
; File c:\program files\microsoft visual studio .net 2003\vc7\atlmfc\include\atlsimpstr.h
;	COMDAT ??1?$CSimpleStringT@D$0A@@ATL@@QAE@XZ
_TEXT	SEGMENT
??1?$CSimpleStringT@D$0A@@ATL@@QAE@XZ PROC NEAR		; ATL::CSimpleStringT<char,0>::~CSimpleStringT<char,0>, COMDAT
; _this$ = ecx

; 263  : 		CStringData* pData = GetData();

  00000	8b 01		 mov	 eax, DWORD PTR [ecx]
  00002	83 e8 10	 sub	 eax, 16			; 00000010H

; 264  : 		pData->Release();

  00005	8d 48 0c	 lea	 ecx, DWORD PTR [eax+12]
  00008	83 ca ff	 or	 edx, -1
  0000b	f0 0f c1 11	 lock	  xadd	 DWORD PTR [ecx], edx
  0000f	4a		 dec	 edx
  00010	85 d2		 test	 edx, edx
  00012	7f 08		 jg	 SHORT $L230591
  00014	8b 08		 mov	 ecx, DWORD PTR [eax]
  00016	8b 11		 mov	 edx, DWORD PTR [ecx]
  00018	50		 push	 eax
  00019	ff 52 04	 call	 DWORD PTR [edx+4]
$L230591:

; 265  : 	}

  0001c	c3		 ret	 0
??1?$CSimpleStringT@D$0A@@ATL@@QAE@XZ ENDP		; ATL::CSimpleStringT<char,0>::~CSimpleStringT<char,0>
_TEXT	ENDS
PUBLIC	??0?$_String_val@DV?$allocator@D@std@@@std@@IAE@V?$allocator@D@1@@Z ; std::_String_val<char,std::allocator<char> >::_String_val<char,std::allocator<char> >
; Function compile flags: /Ogty
; File c:\program files\microsoft visual studio .net 2003\vc7\include\xstring
;	COMDAT ??0?$_String_val@DV?$allocator@D@std@@@std@@IAE@V?$allocator@D@1@@Z
_TEXT	SEGMENT
__Al$ = 8						; size = 1
??0?$_String_val@DV?$allocator@D@std@@@std@@IAE@V?$allocator@D@1@@Z PROC NEAR ; std::_String_val<char,std::allocator<char> >::_String_val<char,std::allocator<char> >, COMDAT
; _this$ = ecx

; 34   : 		{	// construct allocator from _Al

  00000	8b c1		 mov	 eax, ecx

; 35   : 		}

  00002	c2 04 00	 ret	 4
??0?$_String_val@DV?$allocator@D@std@@@std@@IAE@V?$allocator@D@1@@Z ENDP ; std::_String_val<char,std::allocator<char> >::_String_val<char,std::allocator<char> >
_TEXT	ENDS
PUBLIC	?_Eos@?$basic_string@DU?$char_traits@D@std@@V?$allocator@D@2@@std@@IAEXI@Z ; std::basic_string<char,std::char_traits<char>,std::allocator<char> >::_Eos
; Function compile flags: /Ogty
;	COMDAT ?_Eos@?$basic_string@DU?$char_traits@D@std@@V?$allocator@D@2@@std@@IAEXI@Z
_TEXT	SEGMENT
__Newsize$ = 8						; size = 4
?_Eos@?$basic_string@DU?$char_traits@D@std@@V?$allocator@D@2@@std@@IAEXI@Z PROC NEAR ; std::basic_string<char,std::char_traits<char>,std::allocator<char> >::_Eos, COMDAT
; _this$ = ecx

; 1475 : 		_Traits::assign(_Myptr()[_Mysize = _Newsize], _Elem());

  00000	83 79 18 10	 cmp	 DWORD PTR [ecx+24], 16	; 00000010H
  00004	8b 44 24 04	 mov	 eax, DWORD PTR __Newsize$[esp-4]
  00008	89 41 14	 mov	 DWORD PTR [ecx+20], eax
  0000b	72 0a		 jb	 SHORT $L230606
  0000d	8b 49 04	 mov	 ecx, DWORD PTR [ecx+4]
  00010	c6 04 01 00	 mov	 BYTE PTR [ecx+eax], 0

; 1476 : 		}

  00014	c2 04 00	 ret	 4

; 1475 : 		_Traits::assign(_Myptr()[_Mysize = _Newsize], _Elem());

$L230606:
  00017	c6 44 01 04 00	 mov	 BYTE PTR [ecx+eax+4], 0

; 1476 : 		}

  0001c	c2 04 00	 ret	 4
?_Eos@?$basic_string@DU?$char_traits@D@std@@V?$allocator@D@2@@std@@IAEXI@Z ENDP ; std::basic_string<char,std::char_traits<char>,std::allocator<char> >::_Eos
_TEXT	ENDS
PUBLIC	?max_size@?$basic_string@DU?$char_traits@D@std@@V?$allocator@D@2@@std@@QBEIXZ ; std::basic_string<char,std::char_traits<char>,std::allocator<char> >::max_size
; Function compile flags: /Ogty
;	COMDAT ?max_size@?$basic_string@DU?$char_traits@D@std@@V?$allocator@D@2@@std@@QBEIXZ
_TEXT	SEGMENT
?max_size@?$basic_string@DU?$char_traits@D@std@@V?$allocator@D@2@@std@@QBEIXZ PROC NEAR ; std::basic_string<char,std::char_traits<char>,std::allocator<char> >::max_size, COMDAT
; _this$ = ecx

; 1114 : 		size_type _Num = _Mybase::_Alval.max_size();
; 1115 : 		return (_Num <= 1 ? 1 : _Num - 1);

  00000	b8 fe ff ff ff	 mov	 eax, -2			; fffffffeH

; 1116 : 		}

  00005	c3		 ret	 0
?max_size@?$basic_string@DU?$char_traits@D@std@@V?$allocator@D@2@@std@@QBEIXZ ENDP ; std::basic_string<char,std::char_traits<char>,std::allocator<char> >::max_size
_TEXT	ENDS
PUBLIC	?allocate@?$allocator@D@std@@QAEPADI@Z		; std::allocator<char>::allocate
; Function compile flags: /Ogty
; File c:\program files\microsoft visual studio .net 2003\vc7\include\xmemory
;	COMDAT ?allocate@?$allocator@D@std@@QAEPADI@Z
_TEXT	SEGMENT
__Count$ = 8						; size = 4
?allocate@?$allocator@D@std@@QAEPADI@Z PROC NEAR	; std::allocator<char>::allocate, COMDAT
; _this$ = ecx

; 137  : 		return (_Allocate(_Count, (pointer)0));

  00000	8b 44 24 04	 mov	 eax, DWORD PTR __Count$[esp-4]
  00004	50		 push	 eax
  00005	e8 00 00 00 00	 call	 ??2@YAPAXI@Z		; operator new
  0000a	83 c4 04	 add	 esp, 4

; 138  : 		}

  0000d	c2 04 00	 ret	 4
?allocate@?$allocator@D@std@@QAEPADI@Z ENDP		; std::allocator<char>::allocate
_TEXT	ENDS
PUBLIC	??0CObject3D@@QAE@XZ				; CObject3D::CObject3D
; Function compile flags: /Ogty
; File c:\documents and settings\test\mes documents\source\virtuos_v17\build\program\_common\object3d.cpp
;	COMDAT ??0CObject3D@@QAE@XZ
_TEXT	SEGMENT
??0CObject3D@@QAE@XZ PROC NEAR				; CObject3D::CObject3D, COMDAT
; _this$ = ecx

; 482  : {

  00000	56		 push	 esi
  00001	8b f1		 mov	 esi, ecx

; 483  : 	Init();

  00003	e8 00 00 00 00	 call	 ?Init@CObject3D@@AAEXXZ	; CObject3D::Init

; 484  : }

  00008	8b c6		 mov	 eax, esi
  0000a	5e		 pop	 esi
  0000b	c3		 ret	 0
??0CObject3D@@QAE@XZ ENDP				; CObject3D::CObject3D
_TEXT	ENDS
PUBLIC	??1CObject3D@@QAE@XZ				; CObject3D::~CObject3D
; Function compile flags: /Ogty
;	COMDAT ??1CObject3D@@QAE@XZ
_TEXT	SEGMENT
??1CObject3D@@QAE@XZ PROC NEAR				; CObject3D::~CObject3D, COMDAT
; _this$ = ecx

; 488  : 	Destroy();

  00000	e9 00 00 00 00	 jmp	 ?Destroy@CObject3D@@AAEXXZ ; CObject3D::Destroy
??1CObject3D@@QAE@XZ ENDP				; CObject3D::~CObject3D
_TEXT	ENDS
PUBLIC	?LoadGMObject@CObject3D@@AAEHPAVCFileIO@@PAUGMOBJECT@@@Z ; CObject3D::LoadGMObject
PUBLIC	??_C@_0EC@CMDBPBHJ@CObject3D?3?3LoadGMObject?5?3?5?$CFs?5?E?X?$LN@ ; `string'
PUBLIC	??_C@_0DB@PHDAAFJC@CObject3D?3?3LoadGeoMesh?$CI?$CJ?5?3?5?$CFs?$MA?G?5@ ; `string'
PUBLIC	??_C@_0CC@OPJGNFFN@?$LI?E?E?M?$LI?$KO?$LO?s?5?$LA?$LJ?$LM?v?$LA?$KB?532?$LA?$LD?$LI?$KG?5?$LD?Q?$LO?z?$LE?Y?4?5?$CF@ ; `string'
EXTRN	_strlwr:NEAR
EXTRN	??_U@YAPAXI@Z:NEAR				; operator new[]
;	COMDAT xdata$x
xdata$x	SEGMENT
$T230716 DD	0ffffffffH
	DD	FLAT:$L230699
	DD	0ffffffffH
	DD	FLAT:$L230700
	DD	0ffffffffH
	DD	FLAT:$L230701
	DD	0ffffffffH
	DD	FLAT:$L230702
$T230707 DD	019930520H
	DD	04H
	DD	FLAT:$T230716
	DD	2 DUP(00H)
	DD	2 DUP(00H)
xdata$x	ENDS
;	COMDAT ??_C@_0EC@CMDBPBHJ@CObject3D?3?3LoadGMObject?5?3?5?$CFs?5?E?X?$LN@
CONST	SEGMENT
??_C@_0EC@CMDBPBHJ@CObject3D?3?3LoadGMObject?5?3?5?$CFs?5?E?X?$LN@ DB 'CO'
	DB	'bject3D::LoadGMObject : %s ', 0c5H, 0d8H, 0bdH, 0baH, 0c3H, 0c4H
	DB	' ', 0c6H, 0c4H, 0c0H, 0cfH, 0b8H, 0edH, 0c0H, 0ccH, ' ', 0b3H
	DB	0caH, 0b9H, 0abH, 0b1H, 0e6H, 0b4H, 0d9H, ' : ', 0b1H, 0e6H, 0c0H
	DB	0ccH, ' = %d', 00H				; `string'
CONST	ENDS
;	COMDAT ??_C@_0DB@PHDAAFJC@CObject3D?3?3LoadGeoMesh?$CI?$CJ?5?3?5?$CFs?$MA?G?5@
CONST	SEGMENT
??_C@_0DB@PHDAAFJC@CObject3D?3?3LoadGeoMesh?$CI?$CJ?5?3?5?$CFs?$MA?G?5@ DB 'C'
	DB	'Object3D::LoadGeoMesh() : %s', 0c0H, 0c7H, ' ', 0b1H, 0e6H, 0c0H
	DB	0ccH, 0b0H, 0a1H, ' ', 0b3H, 0caH, 0b9H, 0abH, ' ', 0b1H, 0e6H
	DB	0b4H, 0d9H, 00H				; `string'
CONST	ENDS
;	COMDAT ??_C@_0CC@OPJGNFFN@?$LI?E?E?M?$LI?$KO?$LO?s?5?$LA?$LJ?$LM?v?$LA?$KB?532?$LA?$LD?$LI?$KG?5?$LD?Q?$LO?z?$LE?Y?4?5?$CF@
CONST	SEGMENT
??_C@_0CC@OPJGNFFN@?$LI?E?E?M?$LI?$KO?$LO?s?5?$LA?$LJ?$LM?v?$LA?$KB?532?$LA?$LD?$LI?$KG?5?$LD?Q?$LO?z?$LE?Y?4?5?$CF@ DB 0b8H
	DB	0c5H, 0c5H, 0cdH, 0b8H, 0aeH, 0beH, 0f3H, ' ', 0b0H, 0b9H, 0bcH
	DB	0f6H, 0b0H, 0a1H, ' 32', 0b0H, 0b3H, 0b8H, 0a6H, ' ', 0b3H, 0d1H
	DB	0beH, 0faH, 0b4H, 0d9H, '. %s', 00H		; `string'
; Function compile flags: /Ogty
CONST	ENDS
;	COMDAT ?LoadGMObject@CObject3D@@AAEHPAVCFileIO@@PAUGMOBJECT@@@Z
_TEXT	SEGMENT
_i$ = -368						; size = 4
$T230689 = -368						; size = 4
$T230686 = -368						; size = 4
$T230679 = -368						; size = 4
$T230676 = -368						; size = 4
tv730 = -364						; size = 4
$T230703 = -360						; size = 4
tv741 = -356						; size = 4
$T230691 = -356						; size = 4
$T230681 = -356						; size = 4
_nLen$ = -352						; size = 4
_dwTemp$ = -348						; size = 4
_bIsMaterial$ = -344					; size = 4
_mMaterial$ = -340					; size = 68
_szBitmap$ = -272					; size = 256
__$ArrayPad$ = -16					; size = 4
__$EHRec$ = -12						; size = 12
__$ReturnAddr$ = 4					; size = 4
_file$ = 8						; size = 4
_pObject$ = 12						; size = 4
?LoadGMObject@CObject3D@@AAEHPAVCFileIO@@PAUGMOBJECT@@@Z PROC NEAR ; CObject3D::LoadGMObject, COMDAT
; _this$ = ecx

; 1268 : {

  00000	6a ff		 push	 -1
  00002	68 00 00 00 00	 push	 __ehhandler$?LoadGMObject@CObject3D@@AAEHPAVCFileIO@@PAUGMOBJECT@@@Z
  00007	64 a1 00 00 00
	00		 mov	 eax, DWORD PTR fs:__except_list
  0000d	50		 push	 eax
  0000e	64 89 25 00 00
	00 00		 mov	 DWORD PTR fs:__except_list, esp
  00015	81 ec 64 01 00
	00		 sub	 esp, 356		; 00000164H
  0001b	a1 00 00 00 00	 mov	 eax, DWORD PTR ___security_cookie
  00020	33 c4		 xor	 eax, esp
  00022	53		 push	 ebx
  00023	8b 9c 24 78 01
	00 00		 mov	 ebx, DWORD PTR _file$[esp+368]
  0002a	55		 push	 ebp
  0002b	8b ac 24 80 01
	00 00		 mov	 ebp, DWORD PTR _pObject$[esp+372]
  00032	56		 push	 esi
  00033	57		 push	 edi

; 1269 : 	DWORD	dwTemp;
; 1270 : 	int		i;
; 1271 : 	
; 1272 : 	file->Read( &pObject->m_vBBMin, sizeof(D3DXVECTOR3), 1 );

  00034	6a 01		 push	 1
  00036	89 4c 24 1c	 mov	 DWORD PTR $T230703[esp+388], ecx
  0003a	6a 0c		 push	 12			; 0000000cH
  0003c	8d 8d 44 01 00
	00		 lea	 ecx, DWORD PTR [ebp+324]
  00042	89 84 24 78 01
	00 00		 mov	 DWORD PTR __$ArrayPad$[esp+392], eax
  00049	8b 03		 mov	 eax, DWORD PTR [ebx]
  0004b	51		 push	 ecx
  0004c	8b cb		 mov	 ecx, ebx
  0004e	ff 50 2c	 call	 DWORD PTR [eax+44]

; 1273 : 	file->Read( &pObject->m_vBBMax, sizeof(D3DXVECTOR3), 1 );

  00051	8b 13		 mov	 edx, DWORD PTR [ebx]
  00053	6a 01		 push	 1
  00055	6a 0c		 push	 12			; 0000000cH
  00057	8d 85 50 01 00
	00		 lea	 eax, DWORD PTR [ebp+336]
  0005d	50		 push	 eax
  0005e	8b cb		 mov	 ecx, ebx
  00060	ff 52 2c	 call	 DWORD PTR [edx+44]

; 1274 : 	
; 1275 : 	file->Read( &pObject->m_bOpacity,    4, 1 );

  00063	8b 13		 mov	 edx, DWORD PTR [ebx]
  00065	6a 01		 push	 1
  00067	6a 04		 push	 4
  00069	8d 85 84 00 00
	00		 lea	 eax, DWORD PTR [ebp+132]
  0006f	50		 push	 eax
  00070	8b cb		 mov	 ecx, ebx
  00072	ff 52 2c	 call	 DWORD PTR [edx+44]

; 1276 : 	file->Read( &pObject->m_bBump, 4, 1 );

  00075	8b 13		 mov	 edx, DWORD PTR [ebx]
  00077	6a 01		 push	 1
  00079	6a 04		 push	 4
  0007b	8d 85 88 00 00
	00		 lea	 eax, DWORD PTR [ebp+136]
  00081	50		 push	 eax
  00082	8b cb		 mov	 ecx, ebx
  00084	ff 52 2c	 call	 DWORD PTR [edx+44]

; 1277 : 	file->Read( &pObject->m_bRigid,		4, 1 );

  00087	8b 13		 mov	 edx, DWORD PTR [ebx]
  00089	6a 01		 push	 1
  0008b	6a 04		 push	 4
  0008d	8d 85 8c 00 00
	00		 lea	 eax, DWORD PTR [ebp+140]
  00093	50		 push	 eax
  00094	8b cb		 mov	 ecx, ebx
  00096	ff 52 2c	 call	 DWORD PTR [edx+44]

; 1278 : 	file->Seek( 28, SEEK_CUR );		// reserved

  00099	8b 13		 mov	 edx, DWORD PTR [ebx]
  0009b	6a 01		 push	 1
  0009d	6a 1c		 push	 28			; 0000001cH
  0009f	8b cb		 mov	 ecx, ebx
  000a1	ff 52 20	 call	 DWORD PTR [edx+32]

; 1279 : 	
; 1280 : #ifdef __YENV_WITHOUT_BUMP
; 1281 : 	pObject->m_bBump = TRUE;
; 1282 : #endif //__YENV_WITHOUT_BUMP
; 1283 : 
; 1284 : 	// size of list
; 1285 : 	file->Read( &pObject->m_nMaxVertexList,	4, 1 );		//  

  000a4	8b 13		 mov	 edx, DWORD PTR [ebx]
  000a6	6a 01		 push	 1
  000a8	8d 85 94 00 00
	00		 lea	 eax, DWORD PTR [ebp+148]
  000ae	6a 04		 push	 4
  000b0	50		 push	 eax
  000b1	8b cb		 mov	 ecx, ebx
  000b3	ff 52 2c	 call	 DWORD PTR [edx+44]

; 1286 : 	file->Read( &pObject->m_nMaxVB,			4, 1 );		//   

  000b6	8b 03		 mov	 eax, DWORD PTR [ebx]
  000b8	6a 01		 push	 1
  000ba	6a 04		 push	 4
  000bc	8d b5 ac 0a 00
	00		 lea	 esi, DWORD PTR [ebp+2732]
  000c2	56		 push	 esi
  000c3	8b cb		 mov	 ecx, ebx
  000c5	ff 50 2c	 call	 DWORD PTR [eax+44]

; 1287 : 	file->Read( &pObject->m_nMaxFaceList,	4, 1 );		//  

  000c8	8b 13		 mov	 edx, DWORD PTR [ebx]
  000ca	6a 01		 push	 1
  000cc	6a 04		 push	 4
  000ce	8d bd 98 00 00
	00		 lea	 edi, DWORD PTR [ebp+152]
  000d4	57		 push	 edi
  000d5	8b cb		 mov	 ecx, ebx
  000d7	ff 52 2c	 call	 DWORD PTR [edx+44]

; 1288 : 	file->Read( &pObject->m_nMaxIB,		4, 1 );		// indexed  

  000da	8b 13		 mov	 edx, DWORD PTR [ebx]
  000dc	6a 01		 push	 1
  000de	8d 85 b0 0a 00
	00		 lea	 eax, DWORD PTR [ebp+2736]
  000e4	6a 04		 push	 4
  000e6	50		 push	 eax
  000e7	8b cb		 mov	 ecx, ebx
  000e9	ff 52 2c	 call	 DWORD PTR [edx+44]

; 1289 : 
; 1290 : 	m_nMaxFace += pObject->m_nMaxFaceList;

  000ec	8b 44 24 18	 mov	 eax, DWORD PTR $T230703[esp+384]
  000f0	8b 0f		 mov	 ecx, DWORD PTR [edi]
  000f2	01 88 0c 0c 00
	00		 add	 DWORD PTR [eax+3084], ecx

; 1291 : 
; 1292 : 	//      
; 1293 : 	// Vertex list
; 1294 : 	if( pObject->m_Type == GMT_SKIN )	//  LoadObject()   .

  000f8	83 7d 00 01	 cmp	 DWORD PTR [ebp], 1

; 1295 : 	{
; 1296 : 		pObject->m_pVertexList	= new D3DXVECTOR3[ pObject->m_nMaxVertexList ];

  000fc	8b bd 94 00 00
	00		 mov	 edi, DWORD PTR [ebp+148]
  00102	0f 85 8b 00 00
	00		 jne	 $L226233
  00108	8d 14 7f	 lea	 edx, DWORD PTR [edi+edi*2]
  0010b	c1 e2 02	 shl	 edx, 2
  0010e	52		 push	 edx
  0010f	e8 00 00 00 00	 call	 ??_U@YAPAXI@Z		; operator new[]
  00114	83 c4 04	 add	 esp, 4
  00117	89 44 24 10	 mov	 DWORD PTR $T230676[esp+384], eax
  0011b	85 c0		 test	 eax, eax
  0011d	c7 84 24 7c 01
	00 00 00 00 00
	00		 mov	 DWORD PTR __$EHRec$[esp+392], 0
  00128	74 14		 je	 SHORT $L230677
  0012a	68 00 00 00 00	 push	 OFFSET FLAT:??0D3DXVECTOR3@@QAE@XZ ; D3DXVECTOR3::D3DXVECTOR3
  0012f	57		 push	 edi
  00130	6a 0c		 push	 12			; 0000000cH
  00132	50		 push	 eax
  00133	e8 00 00 00 00	 call	 ??_H@YGXPAXIHP6EPAX0@Z@Z
  00138	8b 44 24 10	 mov	 eax, DWORD PTR $T230676[esp+384]
  0013c	eb 02		 jmp	 SHORT $L230678
$L230677:
  0013e	33 c0		 xor	 eax, eax
$L230678:
  00140	89 85 30 01 00
	00		 mov	 DWORD PTR [ebp+304], eax

; 1297 : 		SKINVERTEX *pVB			= new SKINVERTEX[ pObject->m_nMaxVB ];	// Indexed Vertex buffer -

  00146	8b 06		 mov	 eax, DWORD PTR [esi]
  00148	89 44 24 10	 mov	 DWORD PTR $T230679[esp+384], eax
  0014c	6b c0 2c	 imul	 eax, 44			; 0000002cH
  0014f	50		 push	 eax
  00150	c7 84 24 80 01
	00 00 ff ff ff
	ff		 mov	 DWORD PTR __$EHRec$[esp+396], -1
  0015b	e8 00 00 00 00	 call	 ??_U@YAPAXI@Z		; operator new[]
  00160	8b f8		 mov	 edi, eax
  00162	83 c4 04	 add	 esp, 4
  00165	89 7c 24 1c	 mov	 DWORD PTR $T230681[esp+384], edi
  00169	85 ff		 test	 edi, edi
  0016b	c7 84 24 7c 01
	00 00 01 00 00
	00		 mov	 DWORD PTR __$EHRec$[esp+392], 1
  00176	0f 84 9b 00 00
	00		 je	 $L230692
  0017c	8b 44 24 10	 mov	 eax, DWORD PTR $T230679[esp+384]
  00180	68 00 00 00 00	 push	 OFFSET FLAT:??0SKINVERTEX@@QAE@XZ
  00185	50		 push	 eax
  00186	6a 2c		 push	 44			; 0000002cH
  00188	57		 push	 edi
  00189	e8 00 00 00 00	 call	 ??_H@YGXPAXIHP6EPAX0@Z@Z
  0018e	e9 86 00 00 00	 jmp	 $L230693
$L226233:

; 1298 : 		pObject->m_pVB = pVB;
; 1299 : //		pObject->_pVB			= new SKINVERTEX[ pObject->m_nMaxVB ];
; 1300 : 	} else
; 1301 : 	{
; 1302 : 		pObject->m_pVertexList	= new D3DXVECTOR3[ pObject->m_nMaxVertexList ];

  00193	8d 0c 7f	 lea	 ecx, DWORD PTR [edi+edi*2]
  00196	c1 e1 02	 shl	 ecx, 2
  00199	51		 push	 ecx
  0019a	e8 00 00 00 00	 call	 ??_U@YAPAXI@Z		; operator new[]
  0019f	83 c4 04	 add	 esp, 4
  001a2	89 44 24 10	 mov	 DWORD PTR $T230686[esp+384], eax
  001a6	85 c0		 test	 eax, eax
  001a8	c7 84 24 7c 01
	00 00 02 00 00
	00		 mov	 DWORD PTR __$EHRec$[esp+392], 2
  001b3	74 14		 je	 SHORT $L230687
  001b5	68 00 00 00 00	 push	 OFFSET FLAT:??0D3DXVECTOR3@@QAE@XZ ; D3DXVECTOR3::D3DXVECTOR3
  001ba	57		 push	 edi
  001bb	6a 0c		 push	 12			; 0000000cH
  001bd	50		 push	 eax
  001be	e8 00 00 00 00	 call	 ??_H@YGXPAXIHP6EPAX0@Z@Z
  001c3	8b 44 24 10	 mov	 eax, DWORD PTR $T230686[esp+384]
  001c7	eb 02		 jmp	 SHORT $L230688
$L230687:
  001c9	33 c0		 xor	 eax, eax
$L230688:
  001cb	89 85 30 01 00
	00		 mov	 DWORD PTR [ebp+304], eax

; 1303 : 		NORMALVERTEX *pVB		= new NORMALVERTEX[ pObject->m_nMaxVB ];	// Indexed Vertex buffer

  001d1	8b 06		 mov	 eax, DWORD PTR [esi]
  001d3	89 44 24 10	 mov	 DWORD PTR $T230689[esp+384], eax
  001d7	c1 e0 05	 shl	 eax, 5
  001da	50		 push	 eax
  001db	c7 84 24 80 01
	00 00 ff ff ff
	ff		 mov	 DWORD PTR __$EHRec$[esp+396], -1
  001e6	e8 00 00 00 00	 call	 ??_U@YAPAXI@Z		; operator new[]
  001eb	8b f8		 mov	 edi, eax
  001ed	83 c4 04	 add	 esp, 4
  001f0	89 7c 24 1c	 mov	 DWORD PTR $T230691[esp+384], edi
  001f4	85 ff		 test	 edi, edi
  001f6	c7 84 24 7c 01
	00 00 03 00 00
	00		 mov	 DWORD PTR __$EHRec$[esp+392], 3
  00201	74 14		 je	 SHORT $L230692
  00203	8b 54 24 10	 mov	 edx, DWORD PTR $T230689[esp+384]
  00207	68 00 00 00 00	 push	 OFFSET FLAT:??0NORMALVERTEX@@QAE@XZ
  0020c	52		 push	 edx
  0020d	6a 20		 push	 32			; 00000020H
  0020f	57		 push	 edi
  00210	e8 00 00 00 00	 call	 ??_H@YGXPAXIHP6EPAX0@Z@Z
  00215	eb 02		 jmp	 SHORT $L230693
$L230692:
  00217	33 ff		 xor	 edi, edi
$L230693:

; 1304 : 
; 1305 : 		pObject->m_pVB = pVB;
; 1306 : 	}
; 1307 : 	pObject->m_pIB  = new WORD[ pObject->m_nMaxIB + pObject->m_nMaxVB ];		// m_pIIB WORD     .

  00219	8b 06		 mov	 eax, DWORD PTR [esi]
  0021b	03 85 b0 0a 00
	00		 add	 eax, DWORD PTR [ebp+2736]
  00221	d1 e0		 shl	 eax, 1
  00223	50		 push	 eax
  00224	c7 84 24 80 01
	00 00 ff ff ff
	ff		 mov	 DWORD PTR __$EHRec$[esp+396], -1
  0022f	89 bd a0 0a 00
	00		 mov	 DWORD PTR [ebp+2720], edi
  00235	e8 00 00 00 00	 call	 ??_U@YAPAXI@Z		; operator new[]

; 1308 : 	pObject->m_pIIB = pObject->m_pIB + pObject->m_nMaxIB;

  0023a	8b 8d b0 0a 00
	00		 mov	 ecx, DWORD PTR [ebp+2736]
  00240	8d 14 48	 lea	 edx, DWORD PTR [eax+ecx*2]

; 1309 : 
; 1310 : 	file->Read( pObject->m_pVertexList, sizeof(D3DXVECTOR3) * pObject->m_nMaxVertexList, 1 );

  00243	8b 8d 30 01 00
	00		 mov	 ecx, DWORD PTR [ebp+304]
  00249	89 85 a4 0a 00
	00		 mov	 DWORD PTR [ebp+2724], eax
  0024f	8b 85 94 00 00
	00		 mov	 eax, DWORD PTR [ebp+148]
  00255	83 c4 04	 add	 esp, 4
  00258	8d 04 40	 lea	 eax, DWORD PTR [eax+eax*2]
  0025b	6a 01		 push	 1
  0025d	c1 e0 02	 shl	 eax, 2
  00260	50		 push	 eax
  00261	89 95 a8 0a 00
	00		 mov	 DWORD PTR [ebp+2728], edx
  00267	8b 13		 mov	 edx, DWORD PTR [ebx]
  00269	51		 push	 ecx
  0026a	8b cb		 mov	 ecx, ebx
  0026c	ff 52 2c	 call	 DWORD PTR [edx+44]

; 1311 : 	if( pObject->m_Type == GMT_SKIN )

  0026f	8b 45 00	 mov	 eax, DWORD PTR [ebp]

; 1312 : 		file->Read( pObject->m_pVB,  sizeof(SKINVERTEX) * pObject->m_nMaxVB, 1 );		//   

  00272	8b 8d a0 0a 00
	00		 mov	 ecx, DWORD PTR [ebp+2720]
  00278	8b 13		 mov	 edx, DWORD PTR [ebx]
  0027a	83 f8 01	 cmp	 eax, 1
  0027d	8b 06		 mov	 eax, DWORD PTR [esi]
  0027f	6a 01		 push	 1
  00281	75 05		 jne	 SHORT $L226264
  00283	6b c0 2c	 imul	 eax, 44			; 0000002cH

; 1313 : 	else

  00286	eb 03		 jmp	 SHORT $L230715
$L226264:

; 1314 : 		file->Read( pObject->m_pVB,  sizeof(NORMALVERTEX) * pObject->m_nMaxVB, 1 );		//   

  00288	c1 e0 05	 shl	 eax, 5
$L230715:
  0028b	50		 push	 eax
  0028c	51		 push	 ecx
  0028d	8b cb		 mov	 ecx, ebx
  0028f	ff 52 2c	 call	 DWORD PTR [edx+44]

; 1315 : 
; 1316 : 
; 1317 : 	file->Read( pObject->m_pIB,  sizeof(WORD) * pObject->m_nMaxIB, 1 );			//   

  00292	8b 85 b0 0a 00
	00		 mov	 eax, DWORD PTR [ebp+2736]
  00298	8b 8d a4 0a 00
	00		 mov	 ecx, DWORD PTR [ebp+2724]
  0029e	8b 13		 mov	 edx, DWORD PTR [ebx]
  002a0	6a 01		 push	 1
  002a2	d1 e0		 shl	 eax, 1
  002a4	50		 push	 eax
  002a5	51		 push	 ecx
  002a6	8b cb		 mov	 ecx, ebx
  002a8	ff 52 2c	 call	 DWORD PTR [edx+44]

; 1318 : 	file->Read( pObject->m_pIIB, sizeof(WORD) * pObject->m_nMaxVB, 1 );

  002ab	8b 06		 mov	 eax, DWORD PTR [esi]
  002ad	8b 8d a8 0a 00
	00		 mov	 ecx, DWORD PTR [ebp+2728]
  002b3	8b 13		 mov	 edx, DWORD PTR [ebx]
  002b5	6a 01		 push	 1
  002b7	d1 e0		 shl	 eax, 1
  002b9	50		 push	 eax
  002ba	51		 push	 ecx
  002bb	8b cb		 mov	 ecx, ebx
  002bd	ff 52 2c	 call	 DWORD PTR [edx+44]

; 1319 : 
; 1320 : 	file->Read( &dwTemp, 4, 1 );			//   

  002c0	8b 13		 mov	 edx, DWORD PTR [ebx]
  002c2	6a 01		 push	 1
  002c4	6a 04		 push	 4
  002c6	8d 44 24 2c	 lea	 eax, DWORD PTR _dwTemp$[esp+392]
  002ca	50		 push	 eax
  002cb	8b cb		 mov	 ecx, ebx
  002cd	ff 52 2c	 call	 DWORD PTR [edx+44]

; 1321 : 	if( dwTemp )

  002d0	8b 44 24 24	 mov	 eax, DWORD PTR _dwTemp$[esp+384]
  002d4	85 c0		 test	 eax, eax
  002d6	74 2c		 je	 SHORT $L226270

; 1322 : 	{
; 1323 : 		// Physique
; 1324 : 		pObject->m_pPhysiqueVertex = new int[ pObject->m_nMaxVertexList ];

  002d8	8b 8d 94 00 00
	00		 mov	 ecx, DWORD PTR [ebp+148]
  002de	c1 e1 02	 shl	 ecx, 2
  002e1	51		 push	 ecx
  002e2	e8 00 00 00 00	 call	 ??_U@YAPAXI@Z		; operator new[]

; 1325 : 		file->Read( pObject->m_pPhysiqueVertex, sizeof(int) * pObject->m_nMaxVertexList, 1 );	//    

  002e7	8b 8d 94 00 00
	00		 mov	 ecx, DWORD PTR [ebp+148]
  002ed	83 c4 04	 add	 esp, 4
  002f0	6a 01		 push	 1
  002f2	c1 e1 02	 shl	 ecx, 2
  002f5	51		 push	 ecx
  002f6	89 85 34 01 00
	00		 mov	 DWORD PTR [ebp+308], eax
  002fc	8b 13		 mov	 edx, DWORD PTR [ebx]
  002fe	50		 push	 eax
  002ff	8b cb		 mov	 ecx, ebx
  00301	ff 52 2c	 call	 DWORD PTR [edx+44]
$L226270:

; 1326 : 
; 1327 : 		// m_pVB world    
; 1328 : 		// _pVB     .
; 1329 : 		//   intersect  m_pVB  .
; 1330 : 	}
; 1331 : 
; 1332 : 
; 1333 : 	// Material
; 1334 : 	D3DMATERIAL9	mMaterial;
; 1335 : 	char			szBitmap[256];
; 1336 : 	int				nLen;
; 1337 : 	MATERIAL		*mMaterialAry[16];
; 1338 : //nt				nIdx = 0;
; 1339 : 	int				bIsMaterial;
; 1340 : 
; 1341 : 	file->Read( &bIsMaterial, 4, 1 );		// ASE Main MaxMaterial .   0   .

  00304	8b 13		 mov	 edx, DWORD PTR [ebx]
  00306	6a 01		 push	 1
  00308	6a 04		 push	 4
  0030a	8d 44 24 30	 lea	 eax, DWORD PTR _bIsMaterial$[esp+392]
  0030e	50		 push	 eax
  0030f	8b cb		 mov	 ecx, ebx
  00311	ff 52 2c	 call	 DWORD PTR [edx+44]

; 1342 : 	pObject->m_bMaterial = bIsMaterial;				//    .

  00314	8b 44 24 28	 mov	 eax, DWORD PTR _bIsMaterial$[esp+384]

; 1343 : 	if( bIsMaterial )

  00318	85 c0		 test	 eax, eax
  0031a	89 85 5c 01 00
	00		 mov	 DWORD PTR [ebp+348], eax
  00320	0f 84 29 01 00
	00		 je	 $L226283

; 1344 : 	{
; 1345 : 		memset( mMaterialAry, 0, sizeof(mMaterialAry) );
; 1346 : //		for( i = 0; i < 16; i ++ )	mMaterialAry[i] = NULL;
; 1347 : 		
; 1348 : 		file->Read( &pObject->m_nMaxMaterial, 4, 1 );				//    

  00326	8b 13		 mov	 edx, DWORD PTR [ebx]
  00328	6a 01		 push	 1
  0032a	6a 04		 push	 4
  0032c	8d b5 a0 00 00
	00		 lea	 esi, DWORD PTR [ebp+160]
  00332	56		 push	 esi
  00333	8b cb		 mov	 ecx, ebx
  00335	ff 52 2c	 call	 DWORD PTR [edx+44]

; 1349 : 
; 1350 : 		if( pObject->m_nMaxMaterial == 0 )	pObject->m_nMaxMaterial = 1;	// CASEMesh Save .

  00338	83 3e 00	 cmp	 DWORD PTR [esi], 0
  0033b	75 06		 jne	 SHORT $L226280
  0033d	c7 06 01 00 00
	00		 mov	 DWORD PTR [esi], 1
$L226280:

; 1351 : 
; 1352 : 		for( i = 0; i < pObject->m_nMaxMaterial; i ++ )

  00343	83 3e 00	 cmp	 DWORD PTR [esi], 0
  00346	c7 44 24 10 00
	00 00 00	 mov	 DWORD PTR _i$[esp+384], 0
  0034e	0f 8e fb 00 00
	00		 jle	 $L226283
  00354	8d 85 60 01 00
	00		 lea	 eax, DWORD PTR [ebp+352]
  0035a	89 44 24 14	 mov	 DWORD PTR tv730[esp+384], eax
  0035e	b8 48 00 00 00	 mov	 eax, 72			; 00000048H
  00363	8d 4c 24 70	 lea	 ecx, DWORD PTR _szBitmap$[esp+384]
  00367	2b c1		 sub	 eax, ecx
  00369	89 44 24 1c	 mov	 DWORD PTR tv741[esp+384], eax
  0036d	8d 49 00	 npad	 3
$L230712:

; 1353 : 		{
; 1354 : 			file->Read( &mMaterial, sizeof(D3DMATERIAL9), 1 );

  00370	8b 13		 mov	 edx, DWORD PTR [ebx]
  00372	6a 01		 push	 1
  00374	6a 44		 push	 68			; 00000044H
  00376	8d 44 24 34	 lea	 eax, DWORD PTR _mMaterial$[esp+392]
  0037a	50		 push	 eax
  0037b	8b cb		 mov	 ecx, ebx
  0037d	ff 52 2c	 call	 DWORD PTR [edx+44]

; 1355 : 			file->Read( &nLen, 4, 1 );		// bitmap filename length;  null 

  00380	8b 13		 mov	 edx, DWORD PTR [ebx]
  00382	6a 01		 push	 1
  00384	6a 04		 push	 4
  00386	8d 44 24 28	 lea	 eax, DWORD PTR _nLen$[esp+392]
  0038a	50		 push	 eax
  0038b	8b cb		 mov	 ecx, ebx
  0038d	ff 52 2c	 call	 DWORD PTR [edx+44]

; 1356 : 			if( nLen > sizeof(szBitmap) )		

  00390	8b 44 24 20	 mov	 eax, DWORD PTR _nLen$[esp+384]
  00394	3d 00 01 00 00	 cmp	 eax, 256		; 00000100H
  00399	76 1d		 jbe	 SHORT $L226285

; 1357 : 				Error( "CObject3D::LoadGMObject : %s    :  = %d", m_szFileName, nLen );

  0039b	8b 4c 24 18	 mov	 ecx, DWORD PTR $T230703[esp+384]
  0039f	50		 push	 eax
  003a0	81 c1 c0 00 00
	00		 add	 ecx, 192		; 000000c0H
  003a6	51		 push	 ecx
  003a7	68 00 00 00 00	 push	 OFFSET FLAT:??_C@_0EC@CMDBPBHJ@CObject3D?3?3LoadGMObject?5?3?5?$CFs?5?E?X?$LN@
  003ac	e8 00 00 00 00	 call	 ?Error@@YAPBDPBDZZ	; Error
  003b1	8b 44 24 2c	 mov	 eax, DWORD PTR _nLen$[esp+396]
  003b5	83 c4 0c	 add	 esp, 12			; 0000000cH
$L226285:

; 1358 : 			file->Read( szBitmap, nLen, 1 );

  003b8	8b 13		 mov	 edx, DWORD PTR [ebx]
  003ba	6a 01		 push	 1
  003bc	50		 push	 eax
  003bd	8d 44 24 78	 lea	 eax, DWORD PTR _szBitmap$[esp+392]
  003c1	50		 push	 eax
  003c2	8b cb		 mov	 ecx, ebx
  003c4	ff 52 2c	 call	 DWORD PTR [edx+44]

; 1359 : 			strlwr( szBitmap );		//  

  003c7	8d 4c 24 70	 lea	 ecx, DWORD PTR _szBitmap$[esp+384]
  003cb	51		 push	 ecx
  003cc	e8 00 00 00 00	 call	 _strlwr

; 1360 : 			
; 1361 : 			pObject->m_MaterialAry[i].m_Material = mMaterial;

  003d1	8b 7c 24 18	 mov	 edi, DWORD PTR tv730[esp+388]
  003d5	b9 11 00 00 00	 mov	 ecx, 17			; 00000011H
  003da	8d 74 24 30	 lea	 esi, DWORD PTR _mMaterial$[esp+388]

; 1362 : 
; 1363 : 			if( strlen(szBitmap)+1 > sizeof(pObject->m_MaterialAry[i].strBitMapFileName) )

  003de	8d 44 24 74	 lea	 eax, DWORD PTR _szBitmap$[esp+388]
  003e2	83 c4 04	 add	 esp, 4
  003e5	f3 a5		 rep movsd
  003e7	8d 50 01	 lea	 edx, DWORD PTR [eax+1]
  003ea	8d 9b 00 00 00
	00		 npad	 6
$L230711:
  003f0	8a 08		 mov	 cl, BYTE PTR [eax]
  003f2	40		 inc	 eax
  003f3	84 c9		 test	 cl, cl
  003f5	75 f9		 jne	 SHORT $L230711
  003f7	2b c2		 sub	 eax, edx
  003f9	40		 inc	 eax
  003fa	83 f8 40	 cmp	 eax, 64			; 00000040H
  003fd	76 12		 jbe	 SHORT $L226287

; 1364 : 				Error( "CObject3D::LoadGeoMesh() : %s   ", szBitmap );

  003ff	8d 54 24 70	 lea	 edx, DWORD PTR _szBitmap$[esp+384]
  00403	52		 push	 edx
  00404	68 00 00 00 00	 push	 OFFSET FLAT:??_C@_0DB@PHDAAFJC@CObject3D?3?3LoadGeoMesh?$CI?$CJ?5?3?5?$CFs?$MA?G?5@
  00409	e8 00 00 00 00	 call	 ?Error@@YAPBDPBDZZ	; Error
  0040e	83 c4 08	 add	 esp, 8
$L226287:

; 1365 : 
; 1366 : 			strcpy( pObject->m_MaterialAry[i].strBitMapFileName, szBitmap );

  00411	8b 4c 24 1c	 mov	 ecx, DWORD PTR tv741[esp+384]
  00415	8b 54 24 14	 mov	 edx, DWORD PTR tv730[esp+384]
  00419	8d 44 24 70	 lea	 eax, DWORD PTR _szBitmap$[esp+384]
  0041d	03 d1		 add	 edx, ecx
  0041f	90		 npad	 1
$L230696:
  00420	8a 08		 mov	 cl, BYTE PTR [eax]
  00422	88 0c 02	 mov	 BYTE PTR [edx+eax], cl
  00425	40		 inc	 eax
  00426	84 c9		 test	 cl, cl
  00428	75 f6		 jne	 SHORT $L230696
  0042a	8b 44 24 10	 mov	 eax, DWORD PTR _i$[esp+384]
  0042e	8b 54 24 14	 mov	 edx, DWORD PTR tv730[esp+384]
  00432	8b 8d a0 00 00
	00		 mov	 ecx, DWORD PTR [ebp+160]
  00438	40		 inc	 eax
  00439	81 c2 94 00 00
	00		 add	 edx, 148		; 00000094H
  0043f	3b c1		 cmp	 eax, ecx
  00441	89 44 24 10	 mov	 DWORD PTR _i$[esp+384], eax
  00445	89 54 24 14	 mov	 DWORD PTR tv730[esp+384], edx
  00449	0f 8c 21 ff ff
	ff		 jl	 $L230712
$L226283:

; 1367 : 		#if	!defined(__WORLDSERVER)
; 1368 : 			if( IsEmpty(szBitmap) == FALSE )
; 1369 : 				mMaterialAry[i] = g_TextureMng.AddMaterial( m_pd3dDevice, &mMaterial, szBitmap );
; 1370 : 		#endif
; 1371 : 		}
; 1372 : 	}
; 1373 : 
; 1374 : 	// vertex buffer Material block
; 1375 : 	file->Read( &pObject->m_nMaxMtrlBlk, 4, 1 );

  0044f	8b 03		 mov	 eax, DWORD PTR [ebx]
  00451	6a 01		 push	 1
  00453	6a 04		 push	 4
  00455	8d b5 9c 00 00
	00		 lea	 esi, DWORD PTR [ebp+156]
  0045b	56		 push	 esi
  0045c	8b cb		 mov	 ecx, ebx
  0045e	ff 50 2c	 call	 DWORD PTR [eax+44]

; 1376 : 
; 1377 : 	if( pObject->m_nMaxMtrlBlk >= 32 )

  00461	8b 06		 mov	 eax, DWORD PTR [esi]
  00463	83 f8 20	 cmp	 eax, 32			; 00000020H
  00466	7c 1d		 jl	 SHORT $L226289

; 1378 : 	{
; 1379 : 		Error( "  32 . %s", m_szFileName );

  00468	8b 4c 24 18	 mov	 ecx, DWORD PTR $T230703[esp+384]
  0046c	81 c1 c0 00 00
	00		 add	 ecx, 192		; 000000c0H
  00472	51		 push	 ecx
  00473	68 00 00 00 00	 push	 OFFSET FLAT:??_C@_0CC@OPJGNFFN@?$LI?E?E?M?$LI?$KO?$LO?s?5?$LA?$LJ?$LM?v?$LA?$KB?532?$LA?$LD?$LI?$KG?5?$LD?Q?$LO?z?$LE?Y?4?5?$CF@
  00478	e8 00 00 00 00	 call	 ?Error@@YAPBDPBDZZ	; Error
  0047d	83 c4 08	 add	 esp, 8

; 1380 : 		return FAIL;

  00480	83 c8 ff	 or	 eax, -1
  00483	eb 5f		 jmp	 SHORT $L226228
$L226289:

; 1381 : 	}
; 1382 : 	if( pObject->m_nMaxMtrlBlk > 0 )

  00485	85 c0		 test	 eax, eax
  00487	7e 56		 jle	 SHORT $L226291

; 1383 : 	{
; 1384 : 		pObject->m_pMtrlBlk = new MATERIAL_BLOCK[ pObject->m_nMaxMtrlBlk ];		//    

  00489	69 c0 88 00 00
	00		 imul	 eax, 136		; 00000088H
  0048f	50		 push	 eax
  00490	e8 00 00 00 00	 call	 ??_U@YAPAXI@Z		; operator new[]

; 1385 : 		pObject->m_pMtrlBlkTexture = new LPDIRECT3DTEXTURE9[ pObject->m_nMaxMtrlBlk * 8 ];	// (8)  .   .

  00495	8b 16		 mov	 edx, DWORD PTR [esi]
  00497	c1 e2 05	 shl	 edx, 5
  0049a	52		 push	 edx
  0049b	89 85 38 01 00
	00		 mov	 DWORD PTR [ebp+312], eax
  004a1	e8 00 00 00 00	 call	 ??_U@YAPAXI@Z		; operator new[]

; 1386 : 		memset( pObject->m_pMtrlBlkTexture, 0, sizeof(LPDIRECT3DTEXTURE9) * (pObject->m_nMaxMtrlBlk * 8) );

  004a6	8b 0e		 mov	 ecx, DWORD PTR [esi]
  004a8	c1 e1 05	 shl	 ecx, 5
  004ab	8b d1		 mov	 edx, ecx
  004ad	c1 e9 02	 shr	 ecx, 2
  004b0	8b f8		 mov	 edi, eax
  004b2	89 bd 3c 01 00
	00		 mov	 DWORD PTR [ebp+316], edi
  004b8	33 c0		 xor	 eax, eax
  004ba	f3 ab		 rep stosd
  004bc	8b ca		 mov	 ecx, edx
  004be	83 e1 03	 and	 ecx, 3
  004c1	f3 aa		 rep stosb

; 1387 : 
; 1388 : 		file->Read( pObject->m_pMtrlBlk, sizeof(MATERIAL_BLOCK) * pObject->m_nMaxMtrlBlk, 1 );

  004c3	8b 0e		 mov	 ecx, DWORD PTR [esi]
  004c5	8b 95 38 01 00
	00		 mov	 edx, DWORD PTR [ebp+312]
  004cb	69 c9 88 00 00
	00		 imul	 ecx, 136		; 00000088H
  004d1	8b 03		 mov	 eax, DWORD PTR [ebx]
  004d3	83 c4 08	 add	 esp, 8
  004d6	6a 01		 push	 1
  004d8	51		 push	 ecx
  004d9	52		 push	 edx
  004da	8b cb		 mov	 ecx, ebx
  004dc	ff 50 2c	 call	 DWORD PTR [eax+44]
$L226291:

; 1389 : #ifndef __WORLDSERVER
; 1390 : 
; 1391 : #ifdef __YENV
; 1392 : 		if( g_Option.m_bSpecBump )
; 1393 : 		{
; 1394 : 			// 	
; 1395 : 			pObject->m_pNormalTexture = new LPDIRECT3DTEXTURE9[ pObject->m_nMaxMtrlBlk ];
; 1396 : 			memset( pObject->m_pNormalTexture, 0, sizeof(LPDIRECT3DTEXTURE9) * (pObject->m_nMaxMtrlBlk) );
; 1397 : 
; 1398 : 			// 	
; 1399 : 			pObject->m_pNoSpecTexture = new LPDIRECT3DTEXTURE9[ pObject->m_nMaxMtrlBlk ];
; 1400 : 			memset( pObject->m_pNoSpecTexture, 0, sizeof(LPDIRECT3DTEXTURE9) * (pObject->m_nMaxMtrlBlk) );
; 1401 : 		}
; 1402 : #endif //__YENV
; 1403 : 		
; 1404 : 		
; 1405 : 		for( i = 0; i < pObject->m_nMaxMtrlBlk; i ++ )
; 1406 : 		{
; 1407 : 			if( bIsMaterial )
; 1408 : 			{
; 1409 : 				if( mMaterialAry[ pObject->m_pMtrlBlk[i].m_nTextureID ] )
; 1410 : 				{
; 1411 : 					pObject->m_pMtrlBlkTexture[i] = mMaterialAry[ pObject->m_pMtrlBlk[i].m_nTextureID ]->m_pTexture;
; 1412 : 						
; 1413 : 			#ifdef __YENV
; 1414 : 				#ifdef __YENV_WITHOUT_BUMP
; 1415 : 					if( g_Option.m_bSpecBump )
; 1416 : 				#else //__YENV_WITHOUT_BUMP
; 1417 : 					if( pObject->m_pMtrlBlk[i].m_dwEffect & XE_BUMP && g_Option.m_bSpecBump )
; 1418 : 				#endif //__YENV_WITHOUT_BUMP
; 1419 : 					{
; 1420 : 						char	szTexture[MAX_PATH], szFileExt[MAX_PATH];
; 1421 : 						char*	strFileName = mMaterialAry[ pObject->m_pMtrlBlk[i].m_nTextureID ]->strBitMapFileName;
; 1422 : 
; 1423 : 						::GetFileTitle( strFileName, szTexture );
; 1424 : 						lstrcat( szTexture, "-n." );
; 1425 : 						::GetFileExt( strFileName, szFileExt );
; 1426 : 						lstrcat( szTexture, szFileExt );
; 1427 : 							
; 1428 : 						if( IsEmpty(szTexture) == FALSE )
; 1429 : 						{
; 1430 : 							 CreateNormalMap( pObject->m_Type, m_pd3dDevice, &(pObject->m_pNormalTexture[i]), szTexture );
; 1431 : 						}
; 1432 : 					}
; 1433 : 
; 1434 : 				#ifdef __YENV_WITHOUT_BUMP
; 1435 : 					if( g_Option.m_bSpecBump )
; 1436 : 				#else //__YENV_WITHOUT_BUMP
; 1437 : 					// 
; 1438 : 					if( pObject->m_pMtrlBlk[i].m_dwEffect & XE_BUMP && g_Option.m_bSpecBump )
; 1439 : 				#endif //__YENV_WITHOUT_BUMP
; 1440 : 					{
; 1441 : 						char	szTexture[MAX_PATH], szFileExt[MAX_PATH];
; 1442 : 						char*	strFileName		= mMaterialAry[ pObject->m_pMtrlBlk[i].m_nTextureID ]->strBitMapFileName;
; 1443 : 						
; 1444 : 						::GetFileTitle( strFileName, szTexture );
; 1445 : 						lstrcat( szTexture, "-s." );
; 1446 : 						::GetFileExt( strFileName, szFileExt );
; 1447 : 						lstrcat( szTexture, szFileExt );
; 1448 : 	
; 1449 : 						if( IsEmpty(szTexture) == FALSE )
; 1450 : 						{
; 1451 : 					#ifdef _DEBUG
; 1452 : 							if( (_access( MakePath( DIR_MODELTEX, szTexture ), 0 )) != -1 )
; 1453 : 								LoadTextureFromRes( m_pd3dDevice, MakePath( DIR_MODELTEX, szTexture ), &(pObject->m_pNoSpecTexture[i] ) );
; 1454 : 					#else //_DEBUG
; 1455 : 							char szSerchPath[MAX_PATH];
; 1456 : 							GetCurrentDirectory( sizeof( szSerchPath ), szSerchPath );
; 1457 : 							TCHAR drive[_MAX_DRIVE], dir[_MAX_DIR], name[ _MAX_FNAME ], ext[_MAX_EXT];
; 1458 : 							_splitpath( szTexture, drive, dir, name, ext );
; 1459 : 							
; 1460 : 							TCHAR szFileName[ _MAX_PATH ];
; 1461 : 							RESOURCE* lpRes;
; 1462 : 							strcpy( szFileName, MakePath( DIR_MODELTEX, szTexture ) );
; 1463 : 							strlwr( szFileName );
; 1464 : 							
; 1465 : 							if( CResFile::m_mapResource.Lookup( szFileName, (void*&) lpRes ) )
; 1466 : 							{								
; 1467 : 								LoadTextureFromRes( m_pd3dDevice, MakePath( DIR_MODELTEX, szTexture ), &(pObject->m_pNoSpecTexture[i] ) );
; 1468 : 							}							
; 1469 : 					#endif //_DEBUG
; 1470 : 						}
; 1471 : 					}
; 1472 : 					
; 1473 : 			#endif //__YENV
; 1474 : 				}
; 1475 : //				if( (pObject->m_pMtrlBlk[i].m_nReflect & 0xfffffffe) == 0 )	//  1      .
; 1476 : //				{
; 1477 : //					//  .
; 1478 : //					if( pObject->m_pMtrlBlk[i].m_n2Side )			pObject->m_pMtrlBlk[i].m_nReflect |= XE_2SIDE;
; 1479 : //					if( pObject->m_pMtrlBlk[i].m_nOpacity )			pObject->m_pMtrlBlk[i].m_nReflect |= XE_OPACITY;
; 1480 : //					// XE_REFLECT m_nReflect      .
; 1481 : //				}
; 1482 : 
; 1483 : 
; 1484 : 			}
; 1485 : 		}
; 1486 : #endif	// __WORLDSERVER
; 1487 : 	}
; 1488 : 
; 1489 : 	return SUCCESS;

  004df	b8 01 00 00 00	 mov	 eax, 1
$L226228:

; 1490 : }

  004e4	8b 8c 24 74 01
	00 00		 mov	 ecx, DWORD PTR __$EHRec$[esp+384]
  004eb	5f		 pop	 edi
  004ec	5e		 pop	 esi
  004ed	5d		 pop	 ebp
  004ee	64 89 0d 00 00
	00 00		 mov	 DWORD PTR fs:__except_list, ecx
  004f5	8b 8c 24 64 01
	00 00		 mov	 ecx, DWORD PTR __$ArrayPad$[esp+372]
  004fc	5b		 pop	 ebx
  004fd	33 cc		 xor	 ecx, esp
  004ff	e8 00 00 00 00	 call	 @__security_check_cookie@4
  00504	81 c4 70 01 00
	00		 add	 esp, 368		; 00000170H
  0050a	c2 08 00	 ret	 8
_TEXT	ENDS
;	COMDAT text$x
text$x	SEGMENT
$L230699:
  00000	8b 85 90 fe ff
	ff		 mov	 eax, DWORD PTR $T230676[ebp]
  00006	50		 push	 eax
  00007	e8 00 00 00 00	 call	 ??_V@YAXPAX@Z		; operator delete[]
  0000c	59		 pop	 ecx
  0000d	c3		 ret	 0
$L230700:
  0000e	8b 85 9c fe ff
	ff		 mov	 eax, DWORD PTR $T230681[ebp]
  00014	50		 push	 eax
  00015	e8 00 00 00 00	 call	 ??_V@YAXPAX@Z		; operator delete[]
  0001a	59		 pop	 ecx
  0001b	c3		 ret	 0
$L230701:
  0001c	8b 85 90 fe ff
	ff		 mov	 eax, DWORD PTR $T230686[ebp]
  00022	50		 push	 eax
  00023	e8 00 00 00 00	 call	 ??_V@YAXPAX@Z		; operator delete[]
  00028	59		 pop	 ecx
  00029	c3		 ret	 0
$L230702:
  0002a	8b 85 9c fe ff
	ff		 mov	 eax, DWORD PTR $T230691[ebp]
  00030	50		 push	 eax
  00031	e8 00 00 00 00	 call	 ??_V@YAXPAX@Z		; operator delete[]
  00036	59		 pop	 ecx
  00037	c3		 ret	 0
__ehhandler$?LoadGMObject@CObject3D@@AAEHPAVCFileIO@@PAUGMOBJECT@@@Z:
  00038	b8 00 00 00 00	 mov	 eax, OFFSET FLAT:$T230707
  0003d	e9 00 00 00 00	 jmp	 ___CxxFrameHandler
text$x	ENDS
?LoadGMObject@CObject3D@@AAEHPAVCFileIO@@PAUGMOBJECT@@@Z ENDP ; CObject3D::LoadGMObject
PUBLIC	?LoadTMAni@CObject3D@@AAEHPAVCFileIO@@PAUGMOBJECT@@@Z ; CObject3D::LoadTMAni
;	COMDAT xdata$x
xdata$x	SEGMENT
$T230731 DD	0ffffffffH
	DD	FLAT:$L230727
$T230729 DD	019930520H
	DD	01H
	DD	FLAT:$T230731
	DD	2 DUP(00H)
	DD	2 DUP(00H)
; Function compile flags: /Ogty
xdata$x	ENDS
;	COMDAT ?LoadTMAni@CObject3D@@AAEHPAVCFileIO@@PAUGMOBJECT@@@Z
_TEXT	SEGMENT
$T230724 = -16						; size = 4
__$EHRec$ = -12						; size = 12
_bFrame$ = 8						; size = 4
_file$ = 8						; size = 4
_pObject$ = 12						; size = 4
?LoadTMAni@CObject3D@@AAEHPAVCFileIO@@PAUGMOBJECT@@@Z PROC NEAR ; CObject3D::LoadTMAni, COMDAT
; _this$ = ecx

; 1496 : {

  00000	6a ff		 push	 -1
  00002	68 00 00 00 00	 push	 __ehhandler$?LoadTMAni@CObject3D@@AAEHPAVCFileIO@@PAUGMOBJECT@@@Z
  00007	64 a1 00 00 00
	00		 mov	 eax, DWORD PTR fs:__except_list
  0000d	50		 push	 eax
  0000e	64 89 25 00 00
	00 00		 mov	 DWORD PTR fs:__except_list, esp
  00015	51		 push	 ecx
  00016	55		 push	 ebp
  00017	57		 push	 edi

; 1497 : 	int	bFrame;
; 1498 : 	file->Read( &bFrame, 4, 1 );

  00018	8b 7c 24 1c	 mov	 edi, DWORD PTR _file$[esp+20]
  0001c	8b 07		 mov	 eax, DWORD PTR [edi]
  0001e	6a 01		 push	 1
  00020	8b e9		 mov	 ebp, ecx
  00022	6a 04		 push	 4
  00024	8d 4c 24 24	 lea	 ecx, DWORD PTR _bFrame$[esp+28]
  00028	51		 push	 ecx
  00029	8b cf		 mov	 ecx, edi
  0002b	ff 50 2c	 call	 DWORD PTR [eax+44]

; 1499 : 	if( bFrame == 0 )	return FAIL;	//    .

  0002e	8b 44 24 1c	 mov	 eax, DWORD PTR _bFrame$[esp+20]
  00032	85 c0		 test	 eax, eax
  00034	75 16		 jne	 SHORT $L226308
  00036	5f		 pop	 edi
  00037	83 c8 ff	 or	 eax, -1
  0003a	5d		 pop	 ebp

; 1503 : 
; 1504 : 	return SUCCESS;
; 1505 : } 

  0003b	8b 4c 24 04	 mov	 ecx, DWORD PTR __$EHRec$[esp+16]
  0003f	64 89 0d 00 00
	00 00		 mov	 DWORD PTR fs:__except_list, ecx
  00046	83 c4 10	 add	 esp, 16			; 00000010H
  00049	c2 08 00	 ret	 8
$L226308:
  0004c	53		 push	 ebx

; 1500 : 
; 1501 : 	pObject->m_pFrame = new TM_ANIMATION[ m_nMaxFrame ];

  0004d	8b 9d 1c 0c 00
	00		 mov	 ebx, DWORD PTR [ebp+3100]
  00053	8b d3		 mov	 edx, ebx
  00055	6b d2 1c	 imul	 edx, 28			; 0000001cH
  00058	56		 push	 esi
  00059	52		 push	 edx
  0005a	e8 00 00 00 00	 call	 ??_U@YAPAXI@Z		; operator new[]
  0005f	8b f0		 mov	 esi, eax
  00061	83 c4 04	 add	 esp, 4
  00064	89 74 24 10	 mov	 DWORD PTR $T230724[esp+32], esi
  00068	85 f6		 test	 esi, esi
  0006a	c7 44 24 1c 00
	00 00 00	 mov	 DWORD PTR __$EHRec$[esp+40], 0
  00072	74 10		 je	 SHORT $L230725
  00074	68 00 00 00 00	 push	 OFFSET FLAT:??0TM_ANIMATION@@QAE@XZ
  00079	53		 push	 ebx
  0007a	6a 1c		 push	 28			; 0000001cH
  0007c	56		 push	 esi
  0007d	e8 00 00 00 00	 call	 ??_H@YGXPAXIHP6EPAX0@Z@Z
  00082	eb 02		 jmp	 SHORT $L230726
$L230725:
  00084	33 f6		 xor	 esi, esi
$L230726:
  00086	8b 44 24 28	 mov	 eax, DWORD PTR _pObject$[esp+28]
  0008a	89 b0 40 01 00
	00		 mov	 DWORD PTR [eax+320], esi

; 1502 : 	file->Read( pObject->m_pFrame, sizeof(TM_ANIMATION) * m_nMaxFrame, 1 );

  00090	8b 85 1c 0c 00
	00		 mov	 eax, DWORD PTR [ebp+3100]
  00096	8b 17		 mov	 edx, DWORD PTR [edi]
  00098	6b c0 1c	 imul	 eax, 28			; 0000001cH
  0009b	6a 01		 push	 1
  0009d	50		 push	 eax
  0009e	56		 push	 esi
  0009f	8b cf		 mov	 ecx, edi
  000a1	c7 44 24 28 ff
	ff ff ff	 mov	 DWORD PTR __$EHRec$[esp+52], -1
  000a9	ff 52 2c	 call	 DWORD PTR [edx+44]

; 1503 : 
; 1504 : 	return SUCCESS;
; 1505 : } 

  000ac	8b 4c 24 14	 mov	 ecx, DWORD PTR __$EHRec$[esp+32]
  000b0	5e		 pop	 esi
  000b1	5b		 pop	 ebx
  000b2	5f		 pop	 edi
  000b3	b8 01 00 00 00	 mov	 eax, 1
  000b8	5d		 pop	 ebp
  000b9	64 89 0d 00 00
	00 00		 mov	 DWORD PTR fs:__except_list, ecx
  000c0	83 c4 10	 add	 esp, 16			; 00000010H
  000c3	c2 08 00	 ret	 8
_TEXT	ENDS
;	COMDAT text$x
text$x	SEGMENT
$L230727:
  00000	8b 45 f0	 mov	 eax, DWORD PTR $T230724[ebp]
  00003	50		 push	 eax
  00004	e8 00 00 00 00	 call	 ??_V@YAXPAX@Z		; operator delete[]
  00009	59		 pop	 ecx
  0000a	c3		 ret	 0
__ehhandler$?LoadTMAni@CObject3D@@AAEHPAVCFileIO@@PAUGMOBJECT@@@Z:
  0000b	b8 00 00 00 00	 mov	 eax, OFFSET FLAT:$T230729
  00010	e9 00 00 00 00	 jmp	 ___CxxFrameHandler
text$x	ENDS
?LoadTMAni@CObject3D@@AAEHPAVCFileIO@@PAUGMOBJECT@@@Z ENDP ; CObject3D::LoadTMAni
PUBLIC	?compare@?$basic_string@DU?$char_traits@D@std@@V?$allocator@D@2@@std@@QBEHABV12@@Z ; std::basic_string<char,std::char_traits<char>,std::allocator<char> >::compare
; Function compile flags: /Ogty
; File c:\program files\microsoft visual studio .net 2003\vc7\include\xstring
;	COMDAT ?compare@?$basic_string@DU?$char_traits@D@std@@V?$allocator@D@2@@std@@QBEHABV12@@Z
_TEXT	SEGMENT
__Right$ = 8						; size = 4
?compare@?$basic_string@DU?$char_traits@D@std@@V?$allocator@D@2@@std@@QBEHABV12@@Z PROC NEAR ; std::basic_string<char,std::char_traits<char>,std::allocator<char> >::compare, COMDAT
; _this$ = ecx

; 1380 : 		return (compare(0, _Mysize, _Right._Myptr(), _Right.size()));

  00000	8b 44 24 04	 mov	 eax, DWORD PTR __Right$[esp-4]
  00004	8b 50 14	 mov	 edx, DWORD PTR [eax+20]
  00007	83 78 18 10	 cmp	 DWORD PTR [eax+24], 16	; 00000010H
  0000b	72 13		 jb	 SHORT $L230745
  0000d	8b 40 04	 mov	 eax, DWORD PTR [eax+4]
  00010	52		 push	 edx
  00011	50		 push	 eax
  00012	8b 41 14	 mov	 eax, DWORD PTR [ecx+20]
  00015	50		 push	 eax
  00016	6a 00		 push	 0
  00018	e8 00 00 00 00	 call	 ?compare@?$basic_string@DU?$char_traits@D@std@@V?$allocator@D@2@@std@@QBEHIIPBDI@Z ; std::basic_string<char,std::char_traits<char>,std::allocator<char> >::compare

; 1381 : 		}

  0001d	c2 04 00	 ret	 4

; 1380 : 		return (compare(0, _Mysize, _Right._Myptr(), _Right.size()));

$L230745:
  00020	52		 push	 edx
  00021	83 c0 04	 add	 eax, 4
  00024	50		 push	 eax
  00025	8b 41 14	 mov	 eax, DWORD PTR [ecx+20]
  00028	50		 push	 eax
  00029	6a 00		 push	 0
  0002b	e8 00 00 00 00	 call	 ?compare@?$basic_string@DU?$char_traits@D@std@@V?$allocator@D@2@@std@@QBEHIIPBDI@Z ; std::basic_string<char,std::char_traits<char>,std::allocator<char> >::compare

; 1381 : 		}

  00030	c2 04 00	 ret	 4
?compare@?$basic_string@DU?$char_traits@D@std@@V?$allocator@D@2@@std@@QBEHABV12@@Z ENDP ; std::basic_string<char,std::char_traits<char>,std::allocator<char> >::compare
_TEXT	ENDS
PUBLIC	?begin@?$_Tree@V?$_Tmap_traits@V?$basic_string@DU?$char_traits@D@std@@V?$allocator@D@2@@std@@PAVCObject3D@@U?$less@V?$basic_string@DU?$char_traits@D@std@@V?$allocator@D@2@@std@@@2@V?$allocator@U?$pair@$$CBV?$basic_string@DU?$char_traits@D@std@@V?$allocator@D@2@@std@@PAVCObject3D@@@std@@@2@$0A@@std@@@std@@QAE?AViterator@12@XZ ; std::_Tree<std::_Tmap_traits<std::basic_string<char,std::char_traits<char>,std::allocator<char> >,CObject3D *,std::less<std::basic_string<char,std::char_traits<char>,std::allocator<char> > >,std::allocator<std::pair<std::basic_string<char,std::char_traits<char>,std::allocator<char> > const ,CObject3D *> >,0> >::begin
; Function compile flags: /Ogty
; File c:\program files\microsoft visual studio .net 2003\vc7\include\xtree
;	COMDAT ?begin@?$_Tree@V?$_Tmap_traits@V?$basic_string@DU?$char_traits@D@std@@V?$allocator@D@2@@std@@PAVCObject3D@@U?$less@V?$basic_string@DU?$char_traits@D@std@@V?$allocator@D@2@@std@@@2@V?$allocator@U?$pair@$$CBV?$basic_string@DU?$char_traits@D@std@@V?$allocator@D@2@@std@@PAVCObject3D@@@std@@@2@$0A@@std@@@std@@QAE?AViterator@12@XZ
_TEXT	SEGMENT
___$ReturnUdt$ = 8					; size = 4
?begin@?$_Tree@V?$_Tmap_traits@V?$basic_string@DU?$char_traits@D@std@@V?$allocator@D@2@@std@@PAVCObject3D@@U?$less@V?$basic_string@DU?$char_traits@D@std@@V?$allocator@D@2@@std@@@2@V?$allocator@U?$pair@$$CBV?$basic_string@DU?$char_traits@D@std@@V?$allocator@D@2@@std@@PAVCObject3D@@@std@@@2@$0A@@std@@@std@@QAE?AViterator@12@XZ PROC NEAR ; std::_Tree<std::_Tmap_traits<std::basic_string<char,std::char_traits<char>,std::allocator<char> >,CObject3D *,std::less<std::basic_string<char,std::char_traits<char>,std::allocator<char> > >,std::allocator<std::pair<std::basic_string<char,std::char_traits<char>,std::allocator<char> > const ,CObject3D *> >,0> >::begin, COMDAT
; _this$ = ecx

; 408  : 		return (_TREE_ITERATOR(_Lmost()));

  00000	8b 41 04	 mov	 eax, DWORD PTR [ecx+4]
  00003	8b 08		 mov	 ecx, DWORD PTR [eax]
  00005	8b 44 24 04	 mov	 eax, DWORD PTR ___$ReturnUdt$[esp-4]
  00009	89 08		 mov	 DWORD PTR [eax], ecx

; 409  : 		}

  0000b	c2 04 00	 ret	 4
?begin@?$_Tree@V?$_Tmap_traits@V?$basic_string@DU?$char_traits@D@std@@V?$allocator@D@2@@std@@PAVCObject3D@@U?$less@V?$basic_string@DU?$char_traits@D@std@@V?$allocator@D@2@@std@@@2@V?$allocator@U?$pair@$$CBV?$basic_string@DU?$char_traits@D@std@@V?$allocator@D@2@@std@@PAVCObject3D@@@std@@@2@$0A@@std@@@std@@QAE?AViterator@12@XZ ENDP ; std::_Tree<std::_Tmap_traits<std::basic_string<char,std::char_traits<char>,std::allocator<char> >,CObject3D *,std::less<std::basic_string<char,std::char_traits<char>,std::allocator<char> > >,std::allocator<std::pair<std::basic_string<char,std::char_traits<char>,std::allocator<char> > const ,CObject3D *> >,0> >::begin
_TEXT	ENDS
PUBLIC	?end@?$_Tree@V?$_Tmap_traits@V?$basic_string@DU?$char_traits@D@std@@V?$allocator@D@2@@std@@PAVCObject3D@@U?$less@V?$basic_string@DU?$char_traits@D@std@@V?$allocator@D@2@@std@@@2@V?$allocator@U?$pair@$$CBV?$basic_string@DU?$char_traits@D@std@@V?$allocator@D@2@@std@@PAVCObject3D@@@std@@@2@$0A@@std@@@std@@QAE?AViterator@12@XZ ; std::_Tree<std::_Tmap_traits<std::basic_string<char,std::char_traits<char>,std::allocator<char> >,CObject3D *,std::less<std::basic_string<char,std::char_traits<char>,std::allocator<char> > >,std::allocator<std::pair<std::basic_string<char,std::char_traits<char>,std::allocator<char> > const ,CObject3D *> >,0> >::end
; Function compile flags: /Ogty
;	COMDAT ?end@?$_Tree@V?$_Tmap_traits@V?$basic_string@DU?$char_traits@D@std@@V?$allocator@D@2@@std@@PAVCObject3D@@U?$less@V?$basic_string@DU?$char_traits@D@std@@V?$allocator@D@2@@std@@@2@V?$allocator@U?$pair@$$CBV?$basic_string@DU?$char_traits@D@std@@V?$allocator@D@2@@std@@PAVCObject3D@@@std@@@2@$0A@@std@@@std@@QAE?AViterator@12@XZ
_TEXT	SEGMENT
___$ReturnUdt$ = 8					; size = 4
?end@?$_Tree@V?$_Tmap_traits@V?$basic_string@DU?$char_traits@D@std@@V?$allocator@D@2@@std@@PAVCObject3D@@U?$less@V?$basic_string@DU?$char_traits@D@std@@V?$allocator@D@2@@std@@@2@V?$allocator@U?$pair@$$CBV?$basic_string@DU?$char_traits@D@std@@V?$allocator@D@2@@std@@PAVCObject3D@@@std@@@2@$0A@@std@@@std@@QAE?AViterator@12@XZ PROC NEAR ; std::_Tree<std::_Tmap_traits<std::basic_string<char,std::char_traits<char>,std::allocator<char> >,CObject3D *,std::less<std::basic_string<char,std::char_traits<char>,std::allocator<char> > >,std::allocator<std::pair<std::basic_string<char,std::char_traits<char>,std::allocator<char> > const ,CObject3D *> >,0> >::end, COMDAT
; _this$ = ecx

; 418  : 		return (_TREE_ITERATOR(_Myhead));

  00000	8b 49 04	 mov	 ecx, DWORD PTR [ecx+4]
  00003	8b 44 24 04	 mov	 eax, DWORD PTR ___$ReturnUdt$[esp-4]
  00007	89 08		 mov	 DWORD PTR [eax], ecx

; 419  : 		}

  00009	c2 04 00	 ret	 4
?end@?$_Tree@V?$_Tmap_traits@V?$basic_string@DU?$char_traits@D@std@@V?$allocator@D@2@@std@@PAVCObject3D@@U?$less@V?$basic_string@DU?$char_traits@D@std@@V?$allocator@D@2@@std@@@2@V?$allocator@U?$pair@$$CBV?$basic_string@DU?$char_traits@D@std@@V?$allocator@D@2@@std@@PAVCObject3D@@@std@@@2@$0A@@std@@@std@@QAE?AViterator@12@XZ ENDP ; std::_Tree<std::_Tmap_traits<std::basic_string<char,std::char_traits<char>,std::allocator<char> >,CObject3D *,std::less<std::basic_string<char,std::char_traits<char>,std::allocator<char> > >,std::allocator<std::pair<std::basic_string<char,std::char_traits<char>,std::allocator<char> > const ,CObject3D *> >,0> >::end
_TEXT	ENDS
PUBLIC	??Citerator@?$_Tree@V?$_Tmap_traits@V?$basic_string@DU?$char_traits@D@std@@V?$allocator@D@2@@std@@PAVCObject3D@@U?$less@V?$basic_string@DU?$char_traits@D@std@@V?$allocator@D@2@@std@@@2@V?$allocator@U?$pair@$$CBV?$basic_string@DU?$char_traits@D@std@@V?$allocator@D@2@@std@@PAVCObject3D@@@std@@@2@$0A@@std@@@std@@QBEPAU?$pair@$$CBV?$basic_string@DU?$char_traits@D@std@@V?$allocator@D@2@@std@@PAVCObject3D@@@2@XZ ; std::_Tree<std::_Tmap_traits<std::basic_string<char,std::char_traits<char>,std::allocator<char> >,CObject3D *,std::less<std::basic_string<char,std::char_traits<char>,std::allocator<char> > >,std::allocator<std::pair<std::basic_string<char,std::char_traits<char>,std::allocator<char> > const ,CObject3D *> >,0> >::iterator::operator->
; Function compile flags: /Ogty
;	COMDAT ??Citerator@?$_Tree@V?$_Tmap_traits@V?$basic_string@DU?$char_traits@D@std@@V?$allocator@D@2@@std@@PAVCObject3D@@U?$less@V?$basic_string@DU?$char_traits@D@std@@V?$allocator@D@2@@std@@@2@V?$allocator@U?$pair@$$CBV?$basic_string@DU?$char_traits@D@std@@V?$allocator@D@2@@std@@PAVCObject3D@@@std@@@2@$0A@@std@@@std@@QBEPAU?$pair@$$CBV?$basic_string@DU?$char_traits@D@std@@V?$allocator@D@2@@std@@PAVCObject3D@@@2@XZ
_TEXT	SEGMENT
??Citerator@?$_Tree@V?$_Tmap_traits@V?$basic_string@DU?$char_traits@D@std@@V?$allocator@D@2@@std@@PAVCObject3D@@U?$less@V?$basic_string@DU?$char_traits@D@std@@V?$allocator@D@2@@std@@@2@V?$allocator@U?$pair@$$CBV?$basic_string@DU?$char_traits@D@std@@V?$allocator@D@2@@std@@PAVCObject3D@@@std@@@2@$0A@@std@@@std@@QBEPAU?$pair@$$CBV?$basic_string@DU?$char_traits@D@std@@V?$allocator@D@2@@std@@PAVCObject3D@@@2@XZ PROC NEAR ; std::_Tree<std::_Tmap_traits<std::basic_string<char,std::char_traits<char>,std::allocator<char> >,CObject3D *,std::less<std::basic_string<char,std::char_traits<char>,std::allocator<char> > >,std::allocator<std::pair<std::basic_string<char,std::char_traits<char>,std::allocator<char> > const ,CObject3D *> >,0> >::iterator::operator->, COMDAT
; _this$ = ecx

; 322  : 			return (&**this);

  00000	8b 01		 mov	 eax, DWORD PTR [ecx]
  00002	83 c0 0c	 add	 eax, 12			; 0000000cH

; 323  : 			}

  00005	c3		 ret	 0
??Citerator@?$_Tree@V?$_Tmap_traits@V?$basic_string@DU?$char_traits@D@std@@V?$allocator@D@2@@std@@PAVCObject3D@@U?$less@V?$basic_string@DU?$char_traits@D@std@@V?$allocator@D@2@@std@@@2@V?$allocator@U?$pair@$$CBV?$basic_string@DU?$char_traits@D@std@@V?$allocator@D@2@@std@@PAVCObject3D@@@std@@@2@$0A@@std@@@std@@QBEPAU?$pair@$$CBV?$basic_string@DU?$char_traits@D@std@@V?$allocator@D@2@@std@@PAVCObject3D@@@2@XZ ENDP ; std::_Tree<std::_Tmap_traits<std::basic_string<char,std::char_traits<char>,std::allocator<char> >,CObject3D *,std::less<std::basic_string<char,std::char_traits<char>,std::allocator<char> > >,std::allocator<std::pair<std::basic_string<char,std::char_traits<char>,std::allocator<char> > const ,CObject3D *> >,0> >::iterator::operator->
_TEXT	ENDS
PUBLIC	??Fiterator@?$_Tree@V?$_Tmap_traits@V?$basic_string@DU?$char_traits@D@std@@V?$allocator@D@2@@std@@PAVCObject3D@@U?$less@V?$basic_string@DU?$char_traits@D@std@@V?$allocator@D@2@@std@@@2@V?$allocator@U?$pair@$$CBV?$basic_string@DU?$char_traits@D@std@@V?$allocator@D@2@@std@@PAVCObject3D@@@std@@@2@$0A@@std@@@std@@QAEAAV012@XZ ; std::_Tree<std::_Tmap_traits<std::basic_string<char,std::char_traits<char>,std::allocator<char> >,CObject3D *,std::less<std::basic_string<char,std::char_traits<char>,std::allocator<char> > >,std::allocator<std::pair<std::basic_string<char,std::char_traits<char>,std::allocator<char> > const ,CObject3D *> >,0> >::iterator::operator--
; Function compile flags: /Ogty
;	COMDAT ??Fiterator@?$_Tree@V?$_Tmap_traits@V?$basic_string@DU?$char_traits@D@std@@V?$allocator@D@2@@std@@PAVCObject3D@@U?$less@V?$basic_string@DU?$char_traits@D@std@@V?$allocator@D@2@@std@@@2@V?$allocator@U?$pair@$$CBV?$basic_string@DU?$char_traits@D@std@@V?$allocator@D@2@@std@@PAVCObject3D@@@std@@@2@$0A@@std@@@std@@QAEAAV012@XZ
_TEXT	SEGMENT
??Fiterator@?$_Tree@V?$_Tmap_traits@V?$basic_string@DU?$char_traits@D@std@@V?$allocator@D@2@@std@@PAVCObject3D@@U?$less@V?$basic_string@DU?$char_traits@D@std@@V?$allocator@D@2@@std@@@2@V?$allocator@U?$pair@$$CBV?$basic_string@DU?$char_traits@D@std@@V?$allocator@D@2@@std@@PAVCObject3D@@@std@@@2@$0A@@std@@@std@@QAEAAV012@XZ PROC NEAR ; std::_Tree<std::_Tmap_traits<std::basic_string<char,std::char_traits<char>,std::allocator<char> >,CObject3D *,std::less<std::basic_string<char,std::char_traits<char>,std::allocator<char> > >,std::allocator<std::pair<std::basic_string<char,std::char_traits<char>,std::allocator<char> > const ,CObject3D *> >,0> >::iterator::operator--, COMDAT
; _this$ = ecx

; 339  : 			{	// predecrement

  00000	56		 push	 esi
  00001	8b f1		 mov	 esi, ecx

; 340  : 			--(*(const_iterator *)this);

  00003	e8 00 00 00 00	 call	 ?_Dec@const_iterator@?$_Tree@V?$_Tmap_traits@V?$basic_string@DU?$char_traits@D@std@@V?$allocator@D@2@@std@@PAVCObject3D@@U?$less@V?$basic_string@DU?$char_traits@D@std@@V?$allocator@D@2@@std@@@2@V?$allocator@U?$pair@$$CBV?$basic_string@DU?$char_traits@D@std@@V?$allocator@D@2@@std@@PAVCObject3D@@@std@@@2@$0A@@std@@@std@@QAEXXZ ; std::_Tree<std::_Tmap_traits<std::basic_string<char,std::char_traits<char>,std::allocator<char> >,CObject3D *,std::less<std::basic_string<char,std::char_traits<char>,std::allocator<char> > >,std::allocator<std::pair<std::basic_string<char,std::char_traits<char>,std::allocator<char> > const ,CObject3D *> >,0> >::const_iterator::_Dec

; 341  : 			return (*this);

  00008	8b c6		 mov	 eax, esi
  0000a	5e		 pop	 esi

; 342  : 			}

  0000b	c3		 ret	 0
??Fiterator@?$_Tree@V?$_Tmap_traits@V?$basic_string@DU?$char_traits@D@std@@V?$allocator@D@2@@std@@PAVCObject3D@@U?$less@V?$basic_string@DU?$char_traits@D@std@@V?$allocator@D@2@@std@@@2@V?$allocator@U?$pair@$$CBV?$basic_string@DU?$char_traits@D@std@@V?$allocator@D@2@@std@@PAVCObject3D@@@std@@@2@$0A@@std@@@std@@QAEAAV012@XZ ENDP ; std::_Tree<std::_Tmap_traits<std::basic_string<char,std::char_traits<char>,std::allocator<char> >,CObject3D *,std::less<std::basic_string<char,std::char_traits<char>,std::allocator<char> > >,std::allocator<std::pair<std::basic_string<char,std::char_traits<char>,std::allocator<char> > const ,CObject3D *> >,0> >::iterator::operator--
_TEXT	ENDS
PUBLIC	??Econst_iterator@?$_Tree@V?$_Tmap_traits@V?$basic_string@DU?$char_traits@D@std@@V?$allocator@D@2@@std@@PAVCObject3D@@U?$less@V?$basic_string@DU?$char_traits@D@std@@V?$allocator@D@2@@std@@@2@V?$allocator@U?$pair@$$CBV?$basic_string@DU?$char_traits@D@std@@V?$allocator@D@2@@std@@PAVCObject3D@@@std@@@2@$0A@@std@@@std@@QAEAAV012@XZ ; std::_Tree<std::_Tmap_traits<std::basic_string<char,std::char_traits<char>,std::allocator<char> >,CObject3D *,std::less<std::basic_string<char,std::char_traits<char>,std::allocator<char> > >,std::allocator<std::pair<std::basic_string<char,std::char_traits<char>,std::allocator<char> > const ,CObject3D *> >,0> >::const_iterator::operator++
; Function compile flags: /Ogty
;	COMDAT ??Econst_iterator@?$_Tree@V?$_Tmap_traits@V?$basic_string@DU?$char_traits@D@std@@V?$allocator@D@2@@std@@PAVCObject3D@@U?$less@V?$basic_string@DU?$char_traits@D@std@@V?$allocator@D@2@@std@@@2@V?$allocator@U?$pair@$$CBV?$basic_string@DU?$char_traits@D@std@@V?$allocator@D@2@@std@@PAVCObject3D@@@std@@@2@$0A@@std@@@std@@QAEAAV012@XZ
_TEXT	SEGMENT
??Econst_iterator@?$_Tree@V?$_Tmap_traits@V?$basic_string@DU?$char_traits@D@std@@V?$allocator@D@2@@std@@PAVCObject3D@@U?$less@V?$basic_string@DU?$char_traits@D@std@@V?$allocator@D@2@@std@@@2@V?$allocator@U?$pair@$$CBV?$basic_string@DU?$char_traits@D@std@@V?$allocator@D@2@@std@@PAVCObject3D@@@std@@@2@$0A@@std@@@std@@QAEAAV012@XZ PROC NEAR ; std::_Tree<std::_Tmap_traits<std::basic_string<char,std::char_traits<char>,std::allocator<char> >,CObject3D *,std::less<std::basic_string<char,std::char_traits<char>,std::allocator<char> > >,std::allocator<std::pair<std::basic_string<char,std::char_traits<char>,std::allocator<char> > const ,CObject3D *> >,0> >::const_iterator::operator++, COMDAT
; _this$ = ecx

; 214  : 			{	// preincrement

  00000	56		 push	 esi
  00001	8b f1		 mov	 esi, ecx

; 215  : 			_Inc();

  00003	e8 00 00 00 00	 call	 ?_Inc@const_iterator@?$_Tree@V?$_Tmap_traits@V?$basic_string@DU?$char_traits@D@std@@V?$allocator@D@2@@std@@PAVCObject3D@@U?$less@V?$basic_string@DU?$char_traits@D@std@@V?$allocator@D@2@@std@@@2@V?$allocator@U?$pair@$$CBV?$basic_string@DU?$char_traits@D@std@@V?$allocator@D@2@@std@@PAVCObject3D@@@std@@@2@$0A@@std@@@std@@QAEXXZ ; std::_Tree<std::_Tmap_traits<std::basic_string<char,std::char_traits<char>,std::allocator<char> >,CObject3D *,std::less<std::basic_string<char,std::char_traits<char>,std::allocator<char> > >,std::allocator<std::pair<std::basic_string<char,std::char_traits<char>,std::allocator<char> > const ,CObject3D *> >,0> >::const_iterator::_Inc

; 216  : 			return (*this);

  00008	8b c6		 mov	 eax, esi
  0000a	5e		 pop	 esi

; 217  : 			}

  0000b	c3		 ret	 0
??Econst_iterator@?$_Tree@V?$_Tmap_traits@V?$basic_string@DU?$char_traits@D@std@@V?$allocator@D@2@@std@@PAVCObject3D@@U?$less@V?$basic_string@DU?$char_traits@D@std@@V?$allocator@D@2@@std@@@2@V?$allocator@U?$pair@$$CBV?$basic_string@DU?$char_traits@D@std@@V?$allocator@D@2@@std@@PAVCObject3D@@@std@@@2@$0A@@std@@@std@@QAEAAV012@XZ ENDP ; std::_Tree<std::_Tmap_traits<std::basic_string<char,std::char_traits<char>,std::allocator<char> >,CObject3D *,std::less<std::basic_string<char,std::char_traits<char>,std::allocator<char> > >,std::allocator<std::pair<std::basic_string<char,std::char_traits<char>,std::allocator<char> > const ,CObject3D *> >,0> >::const_iterator::operator++
_TEXT	ENDS
PUBLIC	?_Buynode@?$_Tree@V?$_Tmap_traits@V?$basic_string@DU?$char_traits@D@std@@V?$allocator@D@2@@std@@PAVCObject3D@@U?$less@V?$basic_string@DU?$char_traits@D@std@@V?$allocator@D@2@@std@@@2@V?$allocator@U?$pair@$$CBV?$basic_string@DU?$char_traits@D@std@@V?$allocator@D@2@@std@@PAVCObject3D@@@std@@@2@$0A@@std@@@std@@IAEPAU_Node@?$_Tree_nod@V?$_Tmap_traits@V?$basic_string@DU?$char_traits@D@std@@V?$allocator@D@2@@std@@PAVCObject3D@@U?$less@V?$basic_string@DU?$char_traits@D@std@@V?$allocator@D@2@@std@@@2@V?$allocator@U?$pair@$$CBV?$basic_string@DU?$char_traits@D@std@@V?$allocator@D@2@@std@@PAVCObject3D@@@std@@@2@$0A@@std@@@2@XZ ; std::_Tree<std::_Tmap_traits<std::basic_string<char,std::char_traits<char>,std::allocator<char> >,CObject3D *,std::less<std::basic_string<char,std::char_traits<char>,std::allocator<char> > >,std::allocator<std::pair<std::basic_string<char,std::char_traits<char>,std::allocator<char> > const ,CObject3D *> >,0> >::_Buynode
EXTRN	__CxxThrowException@8:NEAR
; Function compile flags: /Ogty
;	COMDAT ?_Buynode@?$_Tree@V?$_Tmap_traits@V?$basic_string@DU?$char_traits@D@std@@V?$allocator@D@2@@std@@PAVCObject3D@@U?$less@V?$basic_string@DU?$char_traits@D@std@@V?$allocator@D@2@@std@@@2@V?$allocator@U?$pair@$$CBV?$basic_string@DU?$char_traits@D@std@@V?$allocator@D@2@@std@@PAVCObject3D@@@std@@@2@$0A@@std@@@std@@IAEPAU_Node@?$_Tree_nod@V?$_Tmap_traits@V?$basic_string@DU?$char_traits@D@std@@V?$allocator@D@2@@std@@PAVCObject3D@@U?$less@V?$basic_string@DU?$char_traits@D@std@@V?$allocator@D@2@@std@@@2@V?$allocator@U?$pair@$$CBV?$basic_string@DU?$char_traits@D@std@@V?$allocator@D@2@@std@@PAVCObject3D@@@std@@@2@$0A@@std@@@2@XZ
_TEXT	SEGMENT
?_Buynode@?$_Tree@V?$_Tmap_traits@V?$basic_string@DU?$char_traits@D@std@@V?$allocator@D@2@@std@@PAVCObject3D@@U?$less@V?$basic_string@DU?$char_traits@D@std@@V?$allocator@D@2@@std@@@2@V?$allocator@U?$pair@$$CBV?$basic_string@DU?$char_traits@D@std@@V?$allocator@D@2@@std@@PAVCObject3D@@@std@@@2@$0A@@std@@@std@@IAEPAU_Node@?$_Tree_nod@V?$_Tmap_traits@V?$basic_string@DU?$char_traits@D@std@@V?$allocator@D@2@@std@@PAVCObject3D@@U?$less@V?$basic_string@DU?$char_traits@D@std@@V?$allocator@D@2@@std@@@2@V?$allocator@U?$pair@$$CBV?$basic_string@DU?$char_traits@D@std@@V?$allocator@D@2@@std@@PAVCObject3D@@@std@@@2@$0A@@std@@@2@XZ PROC NEAR ; std::_Tree<std::_Tmap_traits<std::basic_string<char,std::char_traits<char>,std::allocator<char> >,CObject3D *,std::less<std::basic_string<char,std::char_traits<char>,std::allocator<char> > >,std::allocator<std::pair<std::basic_string<char,std::char_traits<char>,std::allocator<char> > const ,CObject3D *> >,0> >::_Buynode, COMDAT
; _this$ = ecx

; 1106 : 		_Nodeptr _Wherenode = this->_Alnod.allocate(1);

  00000	6a 30		 push	 48			; 00000030H
  00002	e8 00 00 00 00	 call	 ??2@YAPAXI@Z		; operator new
  00007	83 c4 04	 add	 esp, 4

; 1107 : 		int _Linkcnt = 0;
; 1108 : 
; 1109 : 		_TRY_BEGIN
; 1110 : 		this->_Alptr.construct(&_Left(_Wherenode), 0);

  0000a	85 c0		 test	 eax, eax
  0000c	74 06		 je	 SHORT $L230847
  0000e	c7 00 00 00 00
	00		 mov	 DWORD PTR [eax], 0
$L230847:

; 1111 : 		++_Linkcnt;
; 1112 : 		this->_Alptr.construct(&_Parent(_Wherenode), 0);

  00014	8d 48 04	 lea	 ecx, DWORD PTR [eax+4]
  00017	85 c9		 test	 ecx, ecx
  00019	74 06		 je	 SHORT $L230874
  0001b	c7 01 00 00 00
	00		 mov	 DWORD PTR [ecx], 0
$L230874:

; 1113 : 		++_Linkcnt;
; 1114 : 		this->_Alptr.construct(&_Right(_Wherenode), 0);

  00021	8d 48 08	 lea	 ecx, DWORD PTR [eax+8]
  00024	85 c9		 test	 ecx, ecx
  00026	74 06		 je	 SHORT $L230902
  00028	c7 01 00 00 00
	00		 mov	 DWORD PTR [ecx], 0
$L230902:

; 1115 : 		_CATCH_ALL
; 1116 : 		if (1 < _Linkcnt)
; 1117 : 			this->_Alptr.destroy(&_Parent(_Wherenode));
; 1118 : 		if (0 < _Linkcnt)
; 1119 : 			this->_Alptr.destroy(&_Left(_Wherenode));
; 1120 : 		this->_Alnod.deallocate(_Wherenode, 1);
; 1121 : 		_RERAISE;
; 1122 : 		_CATCH_END
; 1123 : 		_Color(_Wherenode) = _Black;

  0002e	c6 40 2c 01	 mov	 BYTE PTR [eax+44], 1

; 1124 : 		_Isnil(_Wherenode) = false;

  00032	c6 40 2d 00	 mov	 BYTE PTR [eax+45], 0

; 1125 : 		return (_Wherenode);
; 1126 : 		}

  00036	c3		 ret	 0
?_Buynode@?$_Tree@V?$_Tmap_traits@V?$basic_string@DU?$char_traits@D@std@@V?$allocator@D@2@@std@@PAVCObject3D@@U?$less@V?$basic_string@DU?$char_traits@D@std@@V?$allocator@D@2@@std@@@2@V?$allocator@U?$pair@$$CBV?$basic_string@DU?$char_traits@D@std@@V?$allocator@D@2@@std@@PAVCObject3D@@@std@@@2@$0A@@std@@@std@@IAEPAU_Node@?$_Tree_nod@V?$_Tmap_traits@V?$basic_string@DU?$char_traits@D@std@@V?$allocator@D@2@@std@@PAVCObject3D@@U?$less@V?$basic_string@DU?$char_traits@D@std@@V?$allocator@D@2@@std@@@2@V?$allocator@U?$pair@$$CBV?$basic_string@DU?$char_traits@D@std@@V?$allocator@D@2@@std@@PAVCObject3D@@@std@@@2@$0A@@std@@@2@XZ ENDP ; std::_Tree<std::_Tmap_traits<std::basic_string<char,std::char_traits<char>,std::allocator<char> >,CObject3D *,std::less<std::basic_string<char,std::char_traits<char>,std::allocator<char> > >,std::allocator<std::pair<std::basic_string<char,std::char_traits<char>,std::allocator<char> > const ,CObject3D *> >,0> >::_Buynode
_TEXT	ENDS
PUBLIC	??0?$_Tree_ptr@V?$_Tmap_traits@V?$basic_string@DU?$char_traits@D@std@@V?$allocator@D@2@@std@@PAVCObject3D@@U?$less@V?$basic_string@DU?$char_traits@D@std@@V?$allocator@D@2@@std@@@2@V?$allocator@U?$pair@$$CBV?$basic_string@DU?$char_traits@D@std@@V?$allocator@D@2@@std@@PAVCObject3D@@@std@@@2@$0A@@std@@@std@@IAE@ABU?$less@V?$basic_string@DU?$char_traits@D@std@@V?$allocator@D@2@@std@@@1@V?$allocator@U?$pair@$$CBV?$basic_string@DU?$char_traits@D@std@@V?$allocator@D@2@@std@@PAVCObject3D@@@std@@@1@@Z ; std::_Tree_ptr<std::_Tmap_traits<std::basic_string<char,std::char_traits<char>,std::allocator<char> >,CObject3D *,std::less<std::basic_string<char,std::char_traits<char>,std::allocator<char> > >,std::allocator<std::pair<std::basic_string<char,std::char_traits<char>,std::allocator<char> > const ,CObject3D *> >,0> >::_Tree_ptr<std::_Tmap_traits<std::basic_string<char,std::char_traits<char>,std::allocator<char> >,CObject3D *,std::less<std::basic_string<char,std::char_traits<char>,std::allocator<char> > >,std::allocator<std::pair<std::basic_string<char,std::char_traits<char>,std::allocator<char> > const ,CObject3D *> >,0> >
; Function compile flags: /Ogty
;	COMDAT ??0?$_Tree_ptr@V?$_Tmap_traits@V?$basic_string@DU?$char_traits@D@std@@V?$allocator@D@2@@std@@PAVCObject3D@@U?$less@V?$basic_string@DU?$char_traits@D@std@@V?$allocator@D@2@@std@@@2@V?$allocator@U?$pair@$$CBV?$basic_string@DU?$char_traits@D@std@@V?$allocator@D@2@@std@@PAVCObject3D@@@std@@@2@$0A@@std@@@std@@IAE@ABU?$less@V?$basic_string@DU?$char_traits@D@std@@V?$allocator@D@2@@std@@@1@V?$allocator@U?$pair@$$CBV?$basic_string@DU?$char_traits@D@std@@V?$allocator@D@2@@std@@PAVCObject3D@@@std@@@1@@Z
_TEXT	SEGMENT
__Parg$ = 8						; size = 4
__Al$ = 12						; size = 1
??0?$_Tree_ptr@V?$_Tmap_traits@V?$basic_string@DU?$char_traits@D@std@@V?$allocator@D@2@@std@@PAVCObject3D@@U?$less@V?$basic_string@DU?$char_traits@D@std@@V?$allocator@D@2@@std@@@2@V?$allocator@U?$pair@$$CBV?$basic_string@DU?$char_traits@D@std@@V?$allocator@D@2@@std@@PAVCObject3D@@@std@@@2@$0A@@std@@@std@@IAE@ABU?$less@V?$basic_string@DU?$char_traits@D@std@@V?$allocator@D@2@@std@@@1@V?$allocator@U?$pair@$$CBV?$basic_string@DU?$char_traits@D@std@@V?$allocator@D@2@@std@@PAVCObject3D@@@std@@@1@@Z PROC NEAR ; std::_Tree_ptr<std::_Tmap_traits<std::basic_string<char,std::char_traits<char>,std::allocator<char> >,CObject3D *,std::less<std::basic_string<char,std::char_traits<char>,std::allocator<char> > >,std::allocator<std::pair<std::basic_string<char,std::char_traits<char>,std::allocator<char> > const ,CObject3D *> >,0> >::_Tree_ptr<std::_Tmap_traits<std::basic_string<char,std::char_traits<char>,std::allocator<char> >,CObject3D *,std::less<std::basic_string<char,std::char_traits<char>,std::allocator<char> > >,std::allocator<std::pair<std::basic_string<char,std::char_traits<char>,std::allocator<char> > const ,CObject3D *> >,0> >, COMDAT
; _this$ = ecx

; 76   : 		{	// construct base, and allocator from _Al

  00000	8b c1		 mov	 eax, ecx

; 77   : 		}

  00002	c2 08 00	 ret	 8
??0?$_Tree_ptr@V?$_Tmap_traits@V?$basic_string@DU?$char_traits@D@std@@V?$allocator@D@2@@std@@PAVCObject3D@@U?$less@V?$basic_string@DU?$char_traits@D@std@@V?$allocator@D@2@@std@@@2@V?$allocator@U?$pair@$$CBV?$basic_string@DU?$char_traits@D@std@@V?$allocator@D@2@@std@@PAVCObject3D@@@std@@@2@$0A@@std@@@std@@IAE@ABU?$less@V?$basic_string@DU?$char_traits@D@std@@V?$allocator@D@2@@std@@@1@V?$allocator@U?$pair@$$CBV?$basic_string@DU?$char_traits@D@std@@V?$allocator@D@2@@std@@PAVCObject3D@@@std@@@1@@Z ENDP ; std::_Tree_ptr<std::_Tmap_traits<std::basic_string<char,std::char_traits<char>,std::allocator<char> >,CObject3D *,std::less<std::basic_string<char,std::char_traits<char>,std::allocator<char> > >,std::allocator<std::pair<std::basic_string<char,std::char_traits<char>,std::allocator<char> > const ,CObject3D *> >,0> >::_Tree_ptr<std::_Tmap_traits<std::basic_string<char,std::char_traits<char>,std::allocator<char> >,CObject3D *,std::less<std::basic_string<char,std::char_traits<char>,std::allocator<char> > >,std::allocator<std::pair<std::basic_string<char,std::char_traits<char>,std::allocator<char> > const ,CObject3D *> >,0> >
_TEXT	ENDS
PUBLIC	??1?$CStringT@DV?$StrTraitMFC@DV?$ChTraitsCRT@D@ATL@@@@@ATL@@QAE@XZ ; ATL::CStringT<char,StrTraitMFC<char,ATL::ChTraitsCRT<char> > >::~CStringT<char,StrTraitMFC<char,ATL::ChTraitsCRT<char> > >
; Function compile flags: /Ogty
; File c:\program files\microsoft visual studio .net 2003\vc7\atlmfc\include\cstringt.h
;	COMDAT ??1?$CStringT@DV?$StrTraitMFC@DV?$ChTraitsCRT@D@ATL@@@@@ATL@@QAE@XZ
_TEXT	SEGMENT
??1?$CStringT@DV?$StrTraitMFC@DV?$ChTraitsCRT@D@ATL@@@@@ATL@@QAE@XZ PROC NEAR ; ATL::CStringT<char,StrTraitMFC<char,ATL::ChTraitsCRT<char> > >::~CStringT<char,StrTraitMFC<char,ATL::ChTraitsCRT<char> > >, COMDAT
; _this$ = ecx

; 963  : 	}

  00000	8b 01		 mov	 eax, DWORD PTR [ecx]
  00002	83 e8 10	 sub	 eax, 16			; 00000010H
  00005	8d 48 0c	 lea	 ecx, DWORD PTR [eax+12]
  00008	83 ca ff	 or	 edx, -1
  0000b	f0 0f c1 11	 lock	  xadd	 DWORD PTR [ecx], edx
  0000f	4a		 dec	 edx
  00010	85 d2		 test	 edx, edx
  00012	7f 08		 jg	 SHORT $L230964
  00014	8b 08		 mov	 ecx, DWORD PTR [eax]
  00016	8b 11		 mov	 edx, DWORD PTR [ecx]
  00018	50		 push	 eax
  00019	ff 52 04	 call	 DWORD PTR [edx+4]
$L230964:
  0001c	c3		 ret	 0
??1?$CStringT@DV?$StrTraitMFC@DV?$ChTraitsCRT@D@ATL@@@@@ATL@@QAE@XZ ENDP ; ATL::CStringT<char,StrTraitMFC<char,ATL::ChTraitsCRT<char> > >::~CStringT<char,StrTraitMFC<char,ATL::ChTraitsCRT<char> > >
_TEXT	ENDS
PUBLIC	?_Tidy@?$basic_string@DU?$char_traits@D@std@@V?$allocator@D@2@@std@@IAEX_NI@Z ; std::basic_string<char,std::char_traits<char>,std::allocator<char> >::_Tidy
; Function compile flags: /Ogty
; File c:\program files\microsoft visual studio .net 2003\vc7\include\xstring
;	COMDAT ?_Tidy@?$basic_string@DU?$char_traits@D@std@@V?$allocator@D@2@@std@@IAEX_NI@Z
_TEXT	SEGMENT
__Built$ = 8						; size = 1
__Newsize$ = 12						; size = 4
?_Tidy@?$basic_string@DU?$char_traits@D@std@@V?$allocator@D@2@@std@@IAEX_NI@Z PROC NEAR ; std::basic_string<char,std::char_traits<char>,std::allocator<char> >::_Tidy, COMDAT
; _this$ = ecx

; 1510 : 		if (!_Built)

  00000	8a 44 24 04	 mov	 al, BYTE PTR __Built$[esp-4]
  00004	84 c0		 test	 al, al
  00006	53		 push	 ebx
  00007	55		 push	 ebp
  00008	8b 6c 24 10	 mov	 ebp, DWORD PTR __Newsize$[esp+4]
  0000c	8b d9		 mov	 ebx, ecx
  0000e	74 2f		 je	 SHORT $L230974

; 1511 : 			;
; 1512 : 		else if (_BUF_SIZE <= _Myres)

  00010	83 7b 18 10	 cmp	 DWORD PTR [ebx+24], 16	; 00000010H
  00014	72 29		 jb	 SHORT $L230974

; 1513 : 			{	// copy any leftovers to small buffer and deallocate
; 1514 : 			_Elem *_Ptr = _Bx._Ptr;
; 1515 : 			if (0 < _Newsize)

  00016	85 ed		 test	 ebp, ebp
  00018	8b 43 04	 mov	 eax, DWORD PTR [ebx+4]
  0001b	57		 push	 edi
  0001c	8d 7b 04	 lea	 edi, DWORD PTR [ebx+4]
  0001f	76 14		 jbe	 SHORT $L230971
  00021	56		 push	 esi

; 1516 : 				_Traits::copy(_Bx._Buf, _Ptr, _Newsize);

  00022	8b cd		 mov	 ecx, ebp
  00024	8b d1		 mov	 edx, ecx
  00026	c1 e9 02	 shr	 ecx, 2
  00029	8b f0		 mov	 esi, eax
  0002b	f3 a5		 rep movsd
  0002d	8b ca		 mov	 ecx, edx
  0002f	83 e1 03	 and	 ecx, 3
  00032	f3 a4		 rep movsb
  00034	5e		 pop	 esi
$L230971:

; 1517 : 			_Mybase::_Alval.deallocate(_Ptr, _Myres + 1);

  00035	50		 push	 eax
  00036	e8 00 00 00 00	 call	 ??3@YAXPAX@Z		; operator delete
  0003b	83 c4 04	 add	 esp, 4
  0003e	5f		 pop	 edi
$L230974:

; 1518 : 			}
; 1519 : 		_Myres = _BUF_SIZE - 1;
; 1520 : 		_Eos(_Newsize);

  0003f	89 6b 14	 mov	 DWORD PTR [ebx+20], ebp
  00042	c7 43 18 0f 00
	00 00		 mov	 DWORD PTR [ebx+24], 15	; 0000000fH
  00049	c6 44 2b 04 00	 mov	 BYTE PTR [ebx+ebp+4], 0
  0004e	5d		 pop	 ebp
  0004f	5b		 pop	 ebx

; 1521 : 		}

  00050	c2 08 00	 ret	 8
?_Tidy@?$basic_string@DU?$char_traits@D@std@@V?$allocator@D@2@@std@@IAEX_NI@Z ENDP ; std::basic_string<char,std::char_traits<char>,std::allocator<char> >::_Tidy
_TEXT	ENDS
PUBLIC	?erase@?$basic_string@DU?$char_traits@D@std@@V?$allocator@D@2@@std@@QAEAAV12@II@Z ; std::basic_string<char,std::char_traits<char>,std::allocator<char> >::erase
; Function compile flags: /Ogty
;	COMDAT ?erase@?$basic_string@DU?$char_traits@D@std@@V?$allocator@D@2@@std@@QAEAAV12@II@Z
_TEXT	SEGMENT
__Off$ = 8						; size = 4
__Count$ = 12						; size = 4
?erase@?$basic_string@DU?$char_traits@D@std@@V?$allocator@D@2@@std@@QAEAAV12@II@Z PROC NEAR ; std::basic_string<char,std::char_traits<char>,std::allocator<char> >::erase, COMDAT
; _this$ = ecx

; 792  : 		{	// erase elements [_Off, _Off + _Count)

  00000	55		 push	 ebp

; 793  : 		if (_Mysize < _Off)

  00001	8b 6c 24 08	 mov	 ebp, DWORD PTR __Off$[esp]
  00005	56		 push	 esi
  00006	8b f1		 mov	 esi, ecx
  00008	39 6e 14	 cmp	 DWORD PTR [esi+20], ebp
  0000b	57		 push	 edi
  0000c	73 05		 jae	 SHORT $L221371

; 794  : 			_String_base::_Xran();	// _Off off end

  0000e	e8 00 00 00 00	 call	 ?_Xran@_String_base@std@@QBEXXZ ; std::_String_base::_Xran
$L221371:

; 795  : 		if (_Mysize - _Off < _Count)

  00013	8b 46 14	 mov	 eax, DWORD PTR [esi+20]
  00016	8b 7c 24 14	 mov	 edi, DWORD PTR __Count$[esp+8]
  0001a	2b c5		 sub	 eax, ebp
  0001c	3b c7		 cmp	 eax, edi
  0001e	73 02		 jae	 SHORT $L221372

; 796  : 			_Count = _Mysize - _Off;	// trim _Count

  00020	8b f8		 mov	 edi, eax
$L221372:

; 797  : 		if (0 < _Count)

  00022	85 ff		 test	 edi, edi
  00024	76 47		 jbe	 SHORT $L231040

; 798  : 			{	// move elements down
; 799  : 			_Traits::move(_Myptr() + _Off, _Myptr() + _Off + _Count,
; 800  : 				_Mysize - _Off - _Count);

  00026	8b 4e 18	 mov	 ecx, DWORD PTR [esi+24]
  00029	83 f9 10	 cmp	 ecx, 16			; 00000010H
  0002c	53		 push	 ebx
  0002d	8d 5e 04	 lea	 ebx, DWORD PTR [esi+4]
  00030	72 04		 jb	 SHORT $L231006
  00032	8b 13		 mov	 edx, DWORD PTR [ebx]
  00034	eb 02		 jmp	 SHORT $L231007
$L231006:
  00036	8b d3		 mov	 edx, ebx
$L231007:
  00038	83 f9 10	 cmp	 ecx, 16			; 00000010H
  0003b	72 04		 jb	 SHORT $L231013
  0003d	8b 0b		 mov	 ecx, DWORD PTR [ebx]
  0003f	eb 02		 jmp	 SHORT $L231014
$L231013:
  00041	8b cb		 mov	 ecx, ebx
$L231014:
  00043	2b c7		 sub	 eax, edi

; 803  : 			}
; 804  : 		return (*this);

  00045	03 d5		 add	 edx, ebp
  00047	50		 push	 eax
  00048	03 d7		 add	 edx, edi
  0004a	52		 push	 edx
  0004b	03 cd		 add	 ecx, ebp
  0004d	51		 push	 ecx
  0004e	e8 00 00 00 00	 call	 _memmove
  00053	8b 46 14	 mov	 eax, DWORD PTR [esi+20]
  00056	8b 4e 18	 mov	 ecx, DWORD PTR [esi+24]
  00059	2b c7		 sub	 eax, edi
  0005b	83 c4 0c	 add	 esp, 12			; 0000000cH
  0005e	83 f9 10	 cmp	 ecx, 16			; 00000010H
  00061	89 46 14	 mov	 DWORD PTR [esi+20], eax
  00064	72 02		 jb	 SHORT $L231037

; 801  : 			size_type _Newsize = _Mysize - _Count;
; 802  : 			_Eos(_Newsize);

  00066	8b 1b		 mov	 ebx, DWORD PTR [ebx]
$L231037:
  00068	c6 04 03 00	 mov	 BYTE PTR [ebx+eax], 0
  0006c	5b		 pop	 ebx
$L231040:
  0006d	5f		 pop	 edi

; 803  : 			}
; 804  : 		return (*this);

  0006e	8b c6		 mov	 eax, esi
  00070	5e		 pop	 esi
  00071	5d		 pop	 ebp

; 805  : 		}

  00072	c2 08 00	 ret	 8
?erase@?$basic_string@DU?$char_traits@D@std@@V?$allocator@D@2@@std@@QAEAAV12@II@Z ENDP ; std::basic_string<char,std::char_traits<char>,std::allocator<char> >::erase
_TEXT	ENDS
PUBLIC	?_Copy@?$basic_string@DU?$char_traits@D@std@@V?$allocator@D@2@@std@@IAEXII@Z ; std::basic_string<char,std::char_traits<char>,std::allocator<char> >::_Copy
;	COMDAT xdata$x
; File c:\program files\microsoft visual studio .net 2003\vc7\include\iosfwd
xdata$x	SEGMENT
$T231244 DD	0ffffffffH
	DD	00H
	DD	0ffffffffH
	DD	00H
	DD	01H
	DD	00H
	DD	01H
	DD	00H
$T231246 DD	00H
	DD	00H
	DD	00H
	DD	FLAT:$L231047
$T231247 DD	00H
	DD	00H
	DD	00H
	DD	FLAT:$L231045
$T231245 DD	02H
	DD	02H
	DD	03H
	DD	01H
	DD	FLAT:$T231246
	DD	00H
	DD	00H
	DD	03H
	DD	01H
	DD	FLAT:$T231247
$T231239 DD	019930520H
	DD	04H
	DD	FLAT:$T231244
	DD	02H
	DD	FLAT:$T231245
	DD	2 DUP(00H)
; Function compile flags: /Ogty
; File c:\program files\microsoft visual studio .net 2003\vc7\include\xstring
xdata$x	ENDS
;	COMDAT ?_Copy@?$basic_string@DU?$char_traits@D@std@@V?$allocator@D@2@@std@@IAEXII@Z
_TEXT	SEGMENT
__Newres$ = -24						; size = 4
_this$ = -20						; size = 4
__$EHRec$ = -16						; size = 16
__Ptr$ = 8						; size = 4
__Newsize$ = 8						; size = 4
__Oldlen$ = 12						; size = 4
?_Copy@?$basic_string@DU?$char_traits@D@std@@V?$allocator@D@2@@std@@IAEXII@Z PROC NEAR ; std::basic_string<char,std::char_traits<char>,std::allocator<char> >::_Copy, COMDAT
; _this$ = ecx

; 1444 : 		{	// copy _Oldlen elements to newly allocated buffer

  00000	55		 push	 ebp
  00001	8b ec		 mov	 ebp, esp
  00003	6a ff		 push	 -1
  00005	68 00 00 00 00	 push	 __ehhandler$?_Copy@?$basic_string@DU?$char_traits@D@std@@V?$allocator@D@2@@std@@IAEXII@Z
  0000a	64 a1 00 00 00
	00		 mov	 eax, DWORD PTR fs:__except_list
  00010	50		 push	 eax
  00011	64 89 25 00 00
	00 00		 mov	 DWORD PTR fs:__except_list, esp
  00018	83 ec 0c	 sub	 esp, 12			; 0000000cH

; 1445 : 		size_type _Newres = _Newsize | _ALLOC_MASK;

  0001b	8b 45 08	 mov	 eax, DWORD PTR __Newsize$[ebp]
  0001e	53		 push	 ebx
  0001f	56		 push	 esi
  00020	8b d8		 mov	 ebx, eax
  00022	83 cb 0f	 or	 ebx, 15			; 0000000fH

; 1446 : 		if (max_size() < _Newres)

  00025	83 fb fe	 cmp	 ebx, -2			; fffffffeH
  00028	57		 push	 edi
  00029	8b f1		 mov	 esi, ecx
  0002b	89 65 f0	 mov	 DWORD PTR __$EHRec$[ebp], esp
  0002e	89 75 ec	 mov	 DWORD PTR _this$[ebp], esi
  00031	76 04		 jbe	 SHORT $L222778

; 1447 : 			_Newres = _Newsize;	// undo roundup if too big

  00033	8b d8		 mov	 ebx, eax

; 1448 : 		else if (_Newres / 3 < _Myres / 2

  00035	eb 22		 jmp	 SHORT $L222780
$L222778:

; 1449 : 			&& _Myres <= max_size() - _Myres / 2)

  00037	8b 7e 18	 mov	 edi, DWORD PTR [esi+24]
  0003a	b8 ab aa aa aa	 mov	 eax, -1431655765	; aaaaaaabH
  0003f	f7 e3		 mul	 ebx
  00041	8b cf		 mov	 ecx, edi
  00043	d1 e9		 shr	 ecx, 1
  00045	d1 ea		 shr	 edx, 1
  00047	3b d1		 cmp	 edx, ecx
  00049	73 0e		 jae	 SHORT $L222780
  0004b	b8 fe ff ff ff	 mov	 eax, -2			; fffffffeH
  00050	2b c1		 sub	 eax, ecx
  00052	3b f8		 cmp	 edi, eax
  00054	77 03		 ja	 SHORT $L222780

; 1450 : 			_Newres = _Myres + _Myres / 2;	// grow exponentially if possible

  00056	8d 1c 39	 lea	 ebx, DWORD PTR [ecx+edi]
$L222780:

; 1451 : 		_Elem *_Ptr;
; 1452 : 
; 1453 : 		_TRY_BEGIN
; 1454 : 			_Ptr = _Mybase::_Alval.allocate(_Newres + 1);

  00059	8d 4b 01	 lea	 ecx, DWORD PTR [ebx+1]
  0005c	51		 push	 ecx
  0005d	c7 45 fc 00 00
	00 00		 mov	 DWORD PTR __$EHRec$[ebp+12], 0
  00064	e8 00 00 00 00	 call	 ??2@YAPAXI@Z		; operator new
  00069	8b d0		 mov	 edx, eax
  0006b	83 c4 04	 add	 esp, 4
  0006e	89 55 08	 mov	 DWORD PTR __Ptr$[ebp], edx
  00071	eb 29		 jmp	 SHORT $L222782
$L231045:

; 1455 : 		_CATCH_ALL
; 1456 : 			_Newres = _Newsize;	// allocation failed, undo roundup and retry

  00073	8b 45 08	 mov	 eax, DWORD PTR __Newsize$[ebp]
  00076	89 45 e8	 mov	 DWORD PTR __Newres$[ebp], eax

; 1457 : 			_TRY_BEGIN
; 1458 : 				_Ptr = _Mybase::_Alval.allocate(_Newres + 1);

  00079	40		 inc	 eax
  0007a	89 65 f0	 mov	 DWORD PTR __$EHRec$[ebp], esp
  0007d	50		 push	 eax
  0007e	c6 45 fc 02	 mov	 BYTE PTR __$EHRec$[ebp+12], 2
  00082	e8 00 00 00 00	 call	 ??2@YAPAXI@Z		; operator new
  00087	89 45 08	 mov	 DWORD PTR __Ptr$[ebp], eax
  0008a	83 c4 04	 add	 esp, 4

; 1462 : 			_CATCH_END
; 1463 : 		_CATCH_END

  0008d	b8 00 00 00 00	 mov	 eax, $L231240
  00092	c3		 ret	 0
$L231240:
  00093	8b 5d e8	 mov	 ebx, DWORD PTR __Newres$[ebp]
  00096	8b 75 ec	 mov	 esi, DWORD PTR _this$[ebp]
  00099	8b 55 08	 mov	 edx, DWORD PTR __Ptr$[ebp]
$L222782:

; 1464 : 
; 1465 : 		if (0 < _Oldlen)

  0009c	8b 4d 0c	 mov	 ecx, DWORD PTR __Oldlen$[ebp]
  0009f	85 c9		 test	 ecx, ecx
  000a1	76 24		 jbe	 SHORT $L231164

; 1466 : 			_Traits::copy(_Ptr, _Myptr(), _Oldlen);	// copy existing elements

  000a3	83 7e 18 10	 cmp	 DWORD PTR [esi+24], 16	; 00000010H
  000a7	72 05		 jb	 SHORT $L231161
  000a9	8b 76 04	 mov	 esi, DWORD PTR [esi+4]
  000ac	eb 03		 jmp	 SHORT $L231162
$L231161:
  000ae	83 c6 04	 add	 esi, 4
$L231162:
  000b1	8b c1		 mov	 eax, ecx
  000b3	c1 e9 02	 shr	 ecx, 2
  000b6	8b fa		 mov	 edi, edx
  000b8	f3 a5		 rep movsd
  000ba	8b c8		 mov	 ecx, eax
  000bc	83 e1 03	 and	 ecx, 3
  000bf	f3 a4		 rep movsb
  000c1	8b 75 ec	 mov	 esi, DWORD PTR _this$[ebp]
  000c4	8b 4d 0c	 mov	 ecx, DWORD PTR __Oldlen$[ebp]
$L231164:

; 1467 : 		_Tidy(true);

  000c7	83 7e 18 10	 cmp	 DWORD PTR [esi+24], 16	; 00000010H
  000cb	72 12		 jb	 SHORT $L231200
  000cd	8b 4e 04	 mov	 ecx, DWORD PTR [esi+4]
  000d0	51		 push	 ecx
  000d1	e8 00 00 00 00	 call	 ??3@YAXPAX@Z		; operator delete
  000d6	8b 55 08	 mov	 edx, DWORD PTR __Ptr$[ebp]
  000d9	8b 4d 0c	 mov	 ecx, DWORD PTR __Oldlen$[ebp]
  000dc	83 c4 04	 add	 esp, 4
$L231200:

; 1468 : 		_Bx._Ptr = _Ptr;
; 1469 : 		_Myres = _Newres;
; 1470 : 		_Eos(_Oldlen);

  000df	83 fb 10	 cmp	 ebx, 16			; 00000010H
  000e2	8d 46 04	 lea	 eax, DWORD PTR [esi+4]
  000e5	c6 00 00	 mov	 BYTE PTR [eax], 0
  000e8	89 10		 mov	 DWORD PTR [eax], edx
  000ea	89 5e 18	 mov	 DWORD PTR [esi+24], ebx
  000ed	89 4e 14	 mov	 DWORD PTR [esi+20], ecx
  000f0	72 02		 jb	 SHORT $L231235
  000f2	8b c2		 mov	 eax, edx
$L231235:

; 1471 : 		}

  000f4	5f		 pop	 edi
  000f5	c6 04 08 00	 mov	 BYTE PTR [eax+ecx], 0
  000f9	8b 4d f4	 mov	 ecx, DWORD PTR __$EHRec$[ebp+4]
  000fc	5e		 pop	 esi
  000fd	64 89 0d 00 00
	00 00		 mov	 DWORD PTR fs:__except_list, ecx
  00104	5b		 pop	 ebx
  00105	8b e5		 mov	 esp, ebp
  00107	5d		 pop	 ebp
  00108	c2 08 00	 ret	 8
$L231047:

; 1459 : 			_CATCH_ALL
; 1460 : 			_Tidy(true);	// failed again, discard storage and reraise

  0010b	8b 75 ec	 mov	 esi, DWORD PTR _this$[ebp]
  0010e	83 7e 18 10	 cmp	 DWORD PTR [esi+24], 16	; 00000010H
  00112	72 0c		 jb	 SHORT $L231139
  00114	8b 56 04	 mov	 edx, DWORD PTR [esi+4]
  00117	52		 push	 edx
  00118	e8 00 00 00 00	 call	 ??3@YAXPAX@Z		; operator delete
  0011d	83 c4 04	 add	 esp, 4
$L231139:

; 1461 : 			_RERAISE;

  00120	6a 00		 push	 0
  00122	c7 46 18 0f 00
	00 00		 mov	 DWORD PTR [esi+24], 15	; 0000000fH
  00129	c7 46 14 00 00
	00 00		 mov	 DWORD PTR [esi+20], 0
  00130	6a 00		 push	 0
  00132	c6 46 04 00	 mov	 BYTE PTR [esi+4], 0
  00136	e8 00 00 00 00	 call	 __CxxThrowException@8
$L231248:
$L231243:
  0013b	cc		 int	 3
_TEXT	ENDS
;	COMDAT text$x
text$x	SEGMENT
__ehhandler$?_Copy@?$basic_string@DU?$char_traits@D@std@@V?$allocator@D@2@@std@@IAEXII@Z:
  00000	b8 00 00 00 00	 mov	 eax, OFFSET FLAT:$T231239
  00005	e9 00 00 00 00	 jmp	 ___CxxFrameHandler
text$x	ENDS
?_Copy@?$basic_string@DU?$char_traits@D@std@@V?$allocator@D@2@@std@@IAEXII@Z ENDP ; std::basic_string<char,std::char_traits<char>,std::allocator<char> >::_Copy
PUBLIC	??$?MDU?$char_traits@D@std@@V?$allocator@D@1@@std@@YA_NABV?$basic_string@DU?$char_traits@D@std@@V?$allocator@D@2@@0@0@Z ; std::operator<<char,std::char_traits<char>,std::allocator<char> >
; Function compile flags: /Ogty
; File c:\documents and settings\test\mes documents\source\virtuos_v17\build\program\dx_sdk\string
;	COMDAT ??$?MDU?$char_traits@D@std@@V?$allocator@D@1@@std@@YA_NABV?$basic_string@DU?$char_traits@D@std@@V?$allocator@D@2@@0@0@Z
_TEXT	SEGMENT
__Left$ = 8						; size = 4
__Right$ = 12						; size = 4
??$?MDU?$char_traits@D@std@@V?$allocator@D@1@@std@@YA_NABV?$basic_string@DU?$char_traits@D@std@@V?$allocator@D@2@@0@0@Z PROC NEAR ; std::operator<<char,std::char_traits<char>,std::allocator<char> >, COMDAT

; 132  : 	return (_Left.compare(_Right) < 0);

  00000	8b 44 24 08	 mov	 eax, DWORD PTR __Right$[esp-4]
  00004	83 78 18 10	 cmp	 DWORD PTR [eax+24], 16	; 00000010H
  00008	8b 48 14	 mov	 ecx, DWORD PTR [eax+20]
  0000b	72 05		 jb	 SHORT $L231270
  0000d	8b 40 04	 mov	 eax, DWORD PTR [eax+4]
  00010	eb 03		 jmp	 SHORT $L231271
$L231270:
  00012	83 c0 04	 add	 eax, 4
$L231271:
  00015	51		 push	 ecx
  00016	8b 4c 24 08	 mov	 ecx, DWORD PTR __Left$[esp]
  0001a	50		 push	 eax
  0001b	8b 41 14	 mov	 eax, DWORD PTR [ecx+20]
  0001e	50		 push	 eax
  0001f	6a 00		 push	 0
  00021	e8 00 00 00 00	 call	 ?compare@?$basic_string@DU?$char_traits@D@std@@V?$allocator@D@2@@std@@QBEHIIPBDI@Z ; std::basic_string<char,std::char_traits<char>,std::allocator<char> >::compare
  00026	33 c9		 xor	 ecx, ecx
  00028	85 c0		 test	 eax, eax
  0002a	0f 9c c1	 setl	 cl
  0002d	8a c1		 mov	 al, cl

; 133  : 	}

  0002f	c3		 ret	 0
??$?MDU?$char_traits@D@std@@V?$allocator@D@1@@std@@YA_NABV?$basic_string@DU?$char_traits@D@std@@V?$allocator@D@2@@0@0@Z ENDP ; std::operator<<char,std::char_traits<char>,std::allocator<char> >
_TEXT	ENDS
PUBLIC	??_GCObject3D@@QAEPAXI@Z			; CObject3D::`scalar deleting destructor'
; Function compile flags: /Ogty
;	COMDAT ??_GCObject3D@@QAEPAXI@Z
_TEXT	SEGMENT
___flags$ = 8						; size = 4
??_GCObject3D@@QAEPAXI@Z PROC NEAR			; CObject3D::`scalar deleting destructor', COMDAT
; _this$ = ecx
  00000	56		 push	 esi
  00001	8b f1		 mov	 esi, ecx
  00003	e8 00 00 00 00	 call	 ?Destroy@CObject3D@@AAEXXZ ; CObject3D::Destroy
  00008	f6 44 24 08 01	 test	 BYTE PTR ___flags$[esp], 1
  0000d	74 09		 je	 SHORT $L231279
  0000f	56		 push	 esi
  00010	e8 00 00 00 00	 call	 ??3@YAXPAX@Z		; operator delete
  00015	83 c4 04	 add	 esp, 4
$L231279:
  00018	8b c6		 mov	 eax, esi
  0001a	5e		 pop	 esi
  0001b	c2 04 00	 ret	 4
??_GCObject3D@@QAEPAXI@Z ENDP				; CObject3D::`scalar deleting destructor'
_TEXT	ENDS
PUBLIC	?LoadObject@CObject3D@@QAEHPBD@Z		; CObject3D::LoadObject
PUBLIC	??_C@_06IJGEHPBH@Model?2?$AA@			; `string'
PUBLIC	??_C@_0BK@COFPOJE@LoadObject?5?3?5?$CFs?5?$MA?P?$LB?b?5?$LN?G?F?P?$AA@ ; `string'
PUBLIC	??_C@_0CI@PCDMIADN@LoadObject3D?5?3?5?$CFs?5?F?D?$MA?O?$LI?m?$MA?L?5?$LD?J?$LJ?$KL?5@ ; `string'
PUBLIC	??_C@_0BJ@FJAKFGFC@?$MA?$NP?$LI?x?$LF?H?5?F?D?$MA?O?5?3?5?$CFs?0?5?$CFs?0?5?$CFs?$AA@ ; `string'
PUBLIC	??_C@_0BP@GIAEKCLE@?$CFs?$MA?G?5?$LJ?v?$MA?$PM?$MA?$LK?5?$CFd?4?5?5?C?V?$LN?E?$LJ?v?$MA?$PM?$MA?$LK?5?$CFd?$AA@ ; `string'
PUBLIC	??_C@_0DA@ENKKKOBI@?$LI?$NO?$LI?p?$LI?$KO?5?G?R?$LE?g?5?$LN?G?F?P?3CObject3D?3?3Load@ ; `string'
PUBLIC	??_C@_0CG@LLHAJNGA@LoadObject?5?3?5?$LI?$NO?$LI?p?$LI?$KO?5?$LP?$MA?$LJ?v?G?C?$LH?N?$LP?l?5?$CF@ ; `string'
EXTRN	_strcmpi:NEAR
EXTRN	?GetFileName@@YAXPBDPAD@Z:NEAR			; GetFileName
EXTRN	??0CMotion@@QAE@XZ:NEAR				; CMotion::CMotion
EXTRN	?ReadTM@CMotion@@QAEXPAVCFileIO@@HH@Z:NEAR	; CMotion::ReadTM
EXTRN	?MakePath@@YA?AV?$CStringT@DV?$StrTraitMFC@DV?$ChTraitsCRT@D@ATL@@@@@ATL@@PBD0@Z:NEAR ; MakePath
;	COMDAT xdata$x
; File c:\documents and settings\test\mes documents\source\virtuos_v17\build\program\_common\file.h
xdata$x	SEGMENT
$T231526 DD	0ffffffffH
	DD	FLAT:$L231311
	DD	00H
	DD	FLAT:$L231312
	DD	00H
	DD	FLAT:$L231313
	DD	00H
	DD	FLAT:$L231314
	DD	00H
	DD	FLAT:$L231315
$T231501 DD	019930520H
	DD	05H
	DD	FLAT:$T231526
	DD	2 DUP(00H)
	DD	2 DUP(00H)
xdata$x	ENDS
;	COMDAT ??_C@_06IJGEHPBH@Model?2?$AA@
CONST	SEGMENT
??_C@_06IJGEHPBH@Model?2?$AA@ DB 'Model\', 00H		; `string'
CONST	ENDS
;	COMDAT ??_C@_0BK@COFPOJE@LoadObject?5?3?5?$CFs?5?$MA?P?$LB?b?5?$LN?G?F?P?$AA@
CONST	SEGMENT
??_C@_0BK@COFPOJE@LoadObject?5?3?5?$CFs?5?$MA?P?$LB?b?5?$LN?G?F?P?$AA@ DB 'L'
	DB	'oadObject : %s ', 0c0H, 0d0H, 0b1H, 0e2H, ' ', 0bdH, 0c7H, 0c6H
	DB	0d0H, 00H					; `string'
CONST	ENDS
;	COMDAT ??_C@_0CI@PCDMIADN@LoadObject3D?5?3?5?$CFs?5?F?D?$MA?O?$LI?m?$MA?L?5?$LD?J?$LJ?$KL?5@
CONST	SEGMENT
??_C@_0CI@PCDMIADN@LoadObject3D?5?3?5?$CFs?5?F?D?$MA?O?$LI?m?$MA?L?5?$LD?J?$LJ?$KL?5@ DB 'L'
	DB	'oadObject3D : %s ', 0c6H, 0c4H, 0c0H, 0cfH, 0b8H, 0edH, 0c0H, 0ccH
	DB	' ', 0b3H, 0caH, 0b9H, 0abH, ' ', 0b1H, 0e6H, 0b4H, 0d9H, ' %d'
	DB	00H						; `string'
CONST	ENDS
;	COMDAT ??_C@_0BJ@FJAKFGFC@?$MA?$NP?$LI?x?$LF?H?5?F?D?$MA?O?5?3?5?$CFs?0?5?$CFs?0?5?$CFs?$AA@
CONST	SEGMENT
??_C@_0BJ@FJAKFGFC@?$MA?$NP?$LI?x?$LF?H?5?F?D?$MA?O?5?3?5?$CFs?0?5?$CFs?0?5?$CFs?$AA@ DB 0c0H
	DB	0dfH, 0b8H, 0f8H, 0b5H, 0c8H, ' ', 0c6H, 0c4H, 0c0H, 0cfH, ' :'
	DB	' %s, %s, %s', 00H				; `string'
CONST	ENDS
;	COMDAT ??_C@_0BP@GIAEKCLE@?$CFs?$MA?G?5?$LJ?v?$MA?$PM?$MA?$LK?5?$CFd?4?5?5?C?V?$LN?E?$LJ?v?$MA?$PM?$MA?$LK?5?$CFd?$AA@
CONST	SEGMENT
??_C@_0BP@GIAEKCLE@?$CFs?$MA?G?5?$LJ?v?$MA?$PM?$MA?$LK?5?$CFd?4?5?5?C?V?$LN?E?$LJ?v?$MA?$PM?$MA?$LK?5?$CFd?$AA@ DB '%'
	DB	's', 0c0H, 0c7H, ' ', 0b9H, 0f6H, 0c0H, 0fcH, 0c0H, 0baH, ' %d'
	DB	'.  ', 0c3H, 0d6H, 0bdH, 0c5H, 0b9H, 0f6H, 0c0H, 0fcH, 0c0H, 0baH
	DB	' %d', 00H					; `string'
CONST	ENDS
;	COMDAT ??_C@_0DA@ENKKKOBI@?$LI?$NO?$LI?p?$LI?$KO?5?G?R?$LE?g?5?$LN?G?F?P?3CObject3D?3?3Load@
CONST	SEGMENT
??_C@_0DA@ENKKKOBI@?$LI?$NO?$LI?p?$LI?$KO?5?G?R?$LE?g?5?$LN?G?F?P?3CObject3D?3?3Load@ DB 0b8H
	DB	0deH, 0b8H, 0f0H, 0b8H, 0aeH, ' ', 0c7H, 0d2H, 0b4H, 0e7H, ' ', 0bdH
	DB	0c7H, 0c6H, 0d0H, ':CObject3D::LoadObject( %s ) %d', 00H ; `string'
CONST	ENDS
;	COMDAT ??_C@_0CG@LLHAJNGA@LoadObject?5?3?5?$LI?$NO?$LI?p?$LI?$KO?5?$LP?$MA?$LJ?v?G?C?$LH?N?$LP?l?5?$CF@
CONST	SEGMENT
??_C@_0CG@LLHAJNGA@LoadObject?5?3?5?$LI?$NO?$LI?p?$LI?$KO?5?$LP?$MA?$LJ?v?G?C?$LH?N?$LP?l?5?$CF@ DB 'L'
	DB	'oadObject : ', 0b8H, 0deH, 0b8H, 0f0H, 0b8H, 0aeH, ' ', 0bfH, 0c0H
	DB	0b9H, 0f6H, 0c7H, 0c3H, 0b7H, 0ceH, 0bfH, 0ecH, ' %d, %d', 00H ; `string'
; Function compile flags: /Ogty
; File c:\documents and settings\test\mes documents\source\virtuos_v17\build\program\_common\object3d.cpp
CONST	ENDS
;	COMDAT ?LoadObject@CObject3D@@QAEHPBD@Z
_TEXT	SEGMENT
_resFp$ = -608						; size = 8
tv514 = -600						; size = 4
_nAttr$226212 = -600					; size = 4
_nMaxGroup$ = -600					; size = 4
$T231296 = -600						; size = 4
$T231292 = -600						; size = 4
$T231284 = -600						; size = 4
_cLen$ = -593						; size = 1
_nPoolSize$ = -592					; size = 4
tv761 = -588						; size = 4
$T231498 = -584						; size = 4
tv1084 = -580						; size = 4
_nParentIdx$226167 = -576				; size = 4
$T231301 = -572						; size = 4
tv143 = -572						; size = 4
_nVer$ = -568						; size = 4
tv1107 = -564						; size = 4
_nDebugSize$ = -560					; size = 4
_bNormalObj$ = -556					; size = 4
_nType$226169 = -552					; size = 4
_j$ = -548						; size = 4
_pPool$ = -544						; size = 4
_nTemp$ = -540						; size = 4
_buff$ = -536						; size = 260
_szName$ = -276						; size = 260
__$ArrayPad$ = -16					; size = 4
__$EHRec$ = -12						; size = 12
__$ReturnAddr$ = 4					; size = 4
_szFileName$ = 8					; size = 4
?LoadObject@CObject3D@@QAEHPBD@Z PROC NEAR		; CObject3D::LoadObject, COMDAT
; _this$ = ecx

; 915  : {

  00000	6a ff		 push	 -1
  00002	68 00 00 00 00	 push	 __ehhandler$?LoadObject@CObject3D@@QAEHPBD@Z
  00007	64 a1 00 00 00
	00		 mov	 eax, DWORD PTR fs:__except_list
  0000d	50		 push	 eax
  0000e	64 89 25 00 00
	00 00		 mov	 DWORD PTR fs:__except_list, esp
  00015	81 ec 54 02 00
	00		 sub	 esp, 596		; 00000254H
  0001b	a1 00 00 00 00	 mov	 eax, DWORD PTR ___security_cookie
  00020	33 c4		 xor	 eax, esp
  00022	53		 push	 ebx
  00023	55		 push	 ebp
  00024	56		 push	 esi
  00025	8b b4 24 70 02
	00 00		 mov	 esi, DWORD PTR _szFileName$[esp+616]

; 916  : 	int		j, nTemp;
; 917  : 	int		nVer;
; 918  : 	D3DXVECTOR3	vTemp;
; 919  : 	BOOL	bNormalObj = FALSE;

  0002c	33 db		 xor	 ebx, ebx
  0002e	8b e9		 mov	 ebp, ecx
  00030	89 84 24 5c 02
	00 00		 mov	 DWORD PTR __$ArrayPad$[esp+620], eax
  00037	57		 push	 edi
  00038	89 6c 24 28	 mov	 DWORD PTR $T231498[esp+624], ebp
  0003c	89 5c 24 44	 mov	 DWORD PTR _bNormalObj$[esp+624], ebx

; 920  : 
; 921  : 	CResFile resFp;

  00040	c7 44 24 10 00
	00 00 00	 mov	 DWORD PTR _resFp$[esp+624], OFFSET FLAT:??_7CFileIO@@6B@
  00048	89 5c 24 14	 mov	 DWORD PTR _resFp$[esp+628], ebx

; 922  : 
; 923  : 	BOOL bRet = resFp.Open( MakePath( DIR_MODEL, szFileName ), "rb" );

  0004c	56		 push	 esi
  0004d	8d 44 24 1c	 lea	 eax, DWORD PTR $T231284[esp+628]
  00051	68 00 00 00 00	 push	 OFFSET FLAT:??_C@_06IJGEHPBH@Model?2?$AA@
  00056	50		 push	 eax
  00057	89 9c 24 78 02
	00 00		 mov	 DWORD PTR __$EHRec$[esp+644], ebx
  0005e	e8 00 00 00 00	 call	 ?MakePath@@YA?AV?$CStringT@DV?$StrTraitMFC@DV?$ChTraitsCRT@D@ATL@@@@@ATL@@PBD0@Z ; MakePath
  00063	83 c4 0c	 add	 esp, 12			; 0000000cH
  00066	8b 00		 mov	 eax, DWORD PTR [eax]
  00068	68 00 00 00 00	 push	 OFFSET FLAT:??_C@_02JDPG@rb?$AA@
  0006d	50		 push	 eax
  0006e	8d 4c 24 18	 lea	 ecx, DWORD PTR _resFp$[esp+632]
  00072	c6 84 24 74 02
	00 00 01	 mov	 BYTE PTR __$EHRec$[esp+640], 1
  0007a	e8 00 00 00 00	 call	 ?Open@CFileIO@@UAEHPBDPAD@Z ; CFileIO::Open
  0007f	8b f8		 mov	 edi, eax
  00081	8b 44 24 18	 mov	 eax, DWORD PTR $T231284[esp+624]
  00085	83 c0 f0	 add	 eax, -16		; fffffff0H
  00088	88 9c 24 6c 02
	00 00		 mov	 BYTE PTR __$EHRec$[esp+632], bl
  0008f	8d 48 0c	 lea	 ecx, DWORD PTR [eax+12]
  00092	83 ca ff	 or	 edx, -1
  00095	f0 0f c1 11	 lock	  xadd	 DWORD PTR [ecx], edx
  00099	4a		 dec	 edx
  0009a	85 d2		 test	 edx, edx
  0009c	7f 08		 jg	 SHORT $L231354
  0009e	8b 08		 mov	 ecx, DWORD PTR [eax]
  000a0	8b 11		 mov	 edx, DWORD PTR [ecx]
  000a2	50		 push	 eax
  000a3	ff 52 04	 call	 DWORD PTR [edx+4]
$L231354:

; 924  : 	if( bRet == FALSE )	

  000a6	3b fb		 cmp	 edi, ebx
  000a8	75 13		 jne	 SHORT $L226095

; 925  : 	{
; 926  : 		Error( "LoadObject : %s  ", szFileName );

  000aa	56		 push	 esi
  000ab	68 00 00 00 00	 push	 OFFSET FLAT:??_C@_0BK@COFPOJE@LoadObject?5?3?5?$CFs?5?$MA?P?$LB?b?5?$LN?G?F?P?$AA@
  000b0	e8 00 00 00 00	 call	 ?Error@@YAPBDPBDZZ	; Error
  000b5	83 c4 08	 add	 esp, 8

; 927  : 		return FAIL;

  000b8	e9 28 01 00 00	 jmp	 $L231524
$L226095:

; 928  : 	}
; 929  : 	Init();

  000bd	8b cd		 mov	 ecx, ebp
  000bf	e8 00 00 00 00	 call	 ?Init@CObject3D@@AAEXXZ	; CObject3D::Init

; 930  : 
; 931  : 	//  
; 932  : 	char szName[MAX_PATH];
; 933  : 	strcpy( m_szFileName, szFileName );

  000c4	8d 95 c0 00 00
	00		 lea	 edx, DWORD PTR [ebp+192]
  000ca	8b c6		 mov	 eax, esi
  000cc	2b d6		 sub	 edx, esi
  000ce	8b ff		 npad	 2
$L231286:
  000d0	8a 08		 mov	 cl, BYTE PTR [eax]
  000d2	88 0c 10	 mov	 BYTE PTR [eax+edx], cl
  000d5	40		 inc	 eax
  000d6	3a cb		 cmp	 cl, bl
  000d8	75 f6		 jne	 SHORT $L231286

; 934  : 	strlwr( m_szFileName );

  000da	8d 85 c0 00 00
	00		 lea	 eax, DWORD PTR [ebp+192]
  000e0	50		 push	 eax
  000e1	e8 00 00 00 00	 call	 _strlwr

; 935  : //	strcpy( szName, GetFileName(szFileName) );
; 936  : 	GetFileName( szFileName, szName );

  000e6	8d 84 24 60 01
	00 00		 lea	 eax, DWORD PTR _szName$[esp+628]
  000ed	50		 push	 eax
  000ee	56		 push	 esi
  000ef	e8 00 00 00 00	 call	 ?GetFileName@@YAXPBDPAD@Z ; GetFileName

; 937  : 
; 938  : 	char buff[MAX_PATH];
; 939  : 	char cLen;
; 940  : 	resFp.Read( &cLen, 1, 1 );		//    .

  000f4	8b 4c 24 20	 mov	 ecx, DWORD PTR _resFp$[esp+640]
  000f8	51		 push	 ecx
  000f9	6a 01		 push	 1
  000fb	8d 54 24 33	 lea	 edx, DWORD PTR _cLen$[esp+644]
  000ff	6a 01		 push	 1
  00101	52		 push	 edx
  00102	e8 00 00 00 00	 call	 _fread

; 941  : 	resFp.Read( buff, cLen, 1 );	//  .

  00107	8b 4c 24 30	 mov	 ecx, DWORD PTR _resFp$[esp+656]
  0010b	0f be 44 24 3b	 movsx	 eax, BYTE PTR _cLen$[esp+652]
  00110	51		 push	 ecx
  00111	6a 01		 push	 1
  00113	50		 push	 eax
  00114	8d 94 24 80 00
	00 00		 lea	 edx, DWORD PTR _buff$[esp+664]
  0011b	52		 push	 edx
  0011c	e8 00 00 00 00	 call	 _fread

; 942  : 	for( j = 0; j < cLen; j ++ )

  00121	8a 54 24 4b	 mov	 dl, BYTE PTR _cLen$[esp+668]
  00125	0f be ca	 movsx	 ecx, dl
  00128	83 c4 2c	 add	 esp, 44			; 0000002cH
  0012b	33 c0		 xor	 eax, eax
  0012d	3b cb		 cmp	 ecx, ebx
  0012f	7e 0a		 jle	 SHORT $L226103
$L226101:

; 943  : 		buff[j] = buff[j] ^ (char)0xcd;	//  

  00131	80 74 04 58 cd	 xor	 BYTE PTR _buff$[esp+eax+624], -51 ; ffffffcdH
  00136	40		 inc	 eax
  00137	3b c1		 cmp	 eax, ecx
  00139	7c f6		 jl	 SHORT $L226101
$L226103:

; 944  : 
; 945  : 	if( cLen >= 64 )

  0013b	80 fa 40	 cmp	 dl, 64			; 00000040H
  0013e	7c 11		 jl	 SHORT $L226105

; 946  : 	{
; 947  : 		Error( "LoadObject3D : %s    %d", szFileName, (int)cLen );

  00140	51		 push	 ecx
  00141	56		 push	 esi
  00142	68 00 00 00 00	 push	 OFFSET FLAT:??_C@_0CI@PCDMIADN@LoadObject3D?5?3?5?$CFs?5?F?D?$MA?O?$LI?m?$MA?L?5?$LD?J?$LJ?$KL?5@
  00147	e8 00 00 00 00	 call	 ?Error@@YAPBDPBDZZ	; Error
  0014c	83 c4 0c	 add	 esp, 12			; 0000000cH

; 948  : 		return 0;

  0014f	eb 38		 jmp	 SHORT $L231525
$L226105:

; 949  : 	}
; 950  : 
; 951  : 	buff[cLen] = 0;	//   .
; 952  : 	if( strcmpi( szName, buff ) != 0 )	//     .

  00151	8d 44 24 58	 lea	 eax, DWORD PTR _buff$[esp+624]
  00155	88 5c 0c 58	 mov	 BYTE PTR _buff$[esp+ecx+624], bl
  00159	50		 push	 eax
  0015a	8d 8c 24 60 01
	00 00		 lea	 ecx, DWORD PTR _szName$[esp+628]
  00161	51		 push	 ecx
  00162	e8 00 00 00 00	 call	 _strcmpi
  00167	83 c4 08	 add	 esp, 8
  0016a	85 c0		 test	 eax, eax
  0016c	74 3e		 je	 SHORT $L226109

; 953  : 	{
; 954  : 		Error( "  : %s, %s, %s", szFileName, szName, buff );

  0016e	8d 54 24 58	 lea	 edx, DWORD PTR _buff$[esp+624]
  00172	52		 push	 edx
  00173	8d 84 24 60 01
	00 00		 lea	 eax, DWORD PTR _szName$[esp+628]
  0017a	50		 push	 eax
  0017b	56		 push	 esi
  0017c	68 00 00 00 00	 push	 OFFSET FLAT:??_C@_0BJ@FJAKFGFC@?$MA?$NP?$LI?x?$LF?H?5?F?D?$MA?O?5?3?5?$CFs?0?5?$CFs?0?5?$CFs?$AA@
  00181	e8 00 00 00 00	 call	 ?Error@@YAPBDPBDZZ	; Error
  00186	83 c4 10	 add	 esp, 16			; 00000010H
$L231525:

; 955  : 		return 0;

  00189	8d 4c 24 10	 lea	 ecx, DWORD PTR _resFp$[esp+624]
  0018d	c7 84 24 6c 02
	00 00 ff ff ff
	ff		 mov	 DWORD PTR __$EHRec$[esp+632], -1
  00198	c7 44 24 10 00
	00 00 00	 mov	 DWORD PTR _resFp$[esp+624], OFFSET FLAT:??_7CFileIO@@6B@
  001a0	e8 00 00 00 00	 call	 ?Close@CFileIO@@UAEHXZ	; CFileIO::Close
  001a5	33 c0		 xor	 eax, eax
  001a7	e9 4c 07 00 00	 jmp	 $L226085
$L226109:

; 956  : 	}
; 957  : 
; 958  : 	//---  
; 959  : 	resFp.Read( &nVer, 4, 1 );		// 

  001ac	8b 4c 24 14	 mov	 ecx, DWORD PTR _resFp$[esp+628]
  001b0	51		 push	 ecx
  001b1	6a 01		 push	 1
  001b3	8d 54 24 40	 lea	 edx, DWORD PTR _nVer$[esp+632]
  001b7	6a 04		 push	 4
  001b9	52		 push	 edx
  001ba	e8 00 00 00 00	 call	 _fread

; 960  : 	if( nVer < VER_MESH )

  001bf	8b 44 24 48	 mov	 eax, DWORD PTR _nVer$[esp+640]
  001c3	83 c4 10	 add	 esp, 16			; 00000010H
  001c6	83 f8 14	 cmp	 eax, 20			; 00000014H
  001c9	7d 3e		 jge	 SHORT $L226112

; 961  : 	{
; 962  : 		Error( "%s  %d.   %d", szFileName, nVer, VER_MESH );

  001cb	6a 14		 push	 20			; 00000014H
  001cd	50		 push	 eax
  001ce	56		 push	 esi
  001cf	68 00 00 00 00	 push	 OFFSET FLAT:??_C@_0BP@GIAEKCLE@?$CFs?$MA?G?5?$LJ?v?$MA?$PM?$MA?$LK?5?$CFd?4?5?5?C?V?$LN?E?$LJ?v?$MA?$PM?$MA?$LK?5?$CFd?$AA@
  001d4	e8 00 00 00 00	 call	 ?Error@@YAPBDPBDZZ	; Error
  001d9	83 c4 10	 add	 esp, 16			; 00000010H

; 963  : 		resFp.Close();

  001dc	8d 4c 24 10	 lea	 ecx, DWORD PTR _resFp$[esp+624]
  001e0	e8 00 00 00 00	 call	 ?Close@CFileIO@@UAEHXZ	; CFileIO::Close
$L231524:

; 964  : 		return FAIL;

  001e5	8d 4c 24 10	 lea	 ecx, DWORD PTR _resFp$[esp+624]
  001e9	c7 84 24 6c 02
	00 00 ff ff ff
	ff		 mov	 DWORD PTR __$EHRec$[esp+632], -1
  001f4	c7 44 24 10 00
	00 00 00	 mov	 DWORD PTR _resFp$[esp+624], OFFSET FLAT:??_7CFileIO@@6B@
  001fc	e8 00 00 00 00	 call	 ?Close@CFileIO@@UAEHXZ	; CFileIO::Close
  00201	83 c8 ff	 or	 eax, -1
  00204	e9 ef 06 00 00	 jmp	 $L226085
$L226112:

; 965  : 	}
; 966  : 		
; 967  : 	resFp.Read( &m_nID, 4, 1 );		// Serial ID

  00209	8b 44 24 14	 mov	 eax, DWORD PTR _resFp$[esp+628]
  0020d	50		 push	 eax
  0020e	6a 01		 push	 1
  00210	8d 8d b8 00 00
	00		 lea	 ecx, DWORD PTR [ebp+184]
  00216	6a 04		 push	 4
  00218	51		 push	 ecx
  00219	e8 00 00 00 00	 call	 _fread

; 968  : 	resFp.Read( &m_vForce1, sizeof(D3DXVECTOR3), 1 );		// 1,2    .

  0021e	8b 54 24 24	 mov	 edx, DWORD PTR _resFp$[esp+644]
  00222	52		 push	 edx
  00223	6a 01		 push	 1
  00225	8d 85 d4 0b 00
	00		 lea	 eax, DWORD PTR [ebp+3028]
  0022b	6a 0c		 push	 12			; 0000000cH
  0022d	50		 push	 eax
  0022e	e8 00 00 00 00	 call	 _fread

; 969  : 	resFp.Read( &m_vForce2, sizeof(D3DXVECTOR3), 1 );

  00233	8b 4c 24 34	 mov	 ecx, DWORD PTR _resFp$[esp+660]
  00237	51		 push	 ecx
  00238	6a 01		 push	 1
  0023a	8d 95 e0 0b 00
	00		 lea	 edx, DWORD PTR [ebp+3040]
  00240	6a 0c		 push	 12			; 0000000cH
  00242	52		 push	 edx
  00243	e8 00 00 00 00	 call	 _fread

; 970  : #if __VER >= 9 // __CSC_VER9_5
; 971  : 	if(nVer >= 22)

  00248	8b 44 24 68	 mov	 eax, DWORD PTR _nVer$[esp+672]
  0024c	83 c4 30	 add	 esp, 48			; 00000030H
  0024f	83 f8 16	 cmp	 eax, 22			; 00000016H
  00252	7c 2d		 jl	 SHORT $L231390

; 972  : 	{
; 973  : 		resFp.Read( &m_vForce3, sizeof(D3DXVECTOR3), 1 );		// 3,4    .

  00254	8b 44 24 14	 mov	 eax, DWORD PTR _resFp$[esp+628]
  00258	50		 push	 eax
  00259	6a 01		 push	 1
  0025b	8d 8d ec 0b 00
	00		 lea	 ecx, DWORD PTR [ebp+3052]
  00261	6a 0c		 push	 12			; 0000000cH
  00263	51		 push	 ecx
  00264	e8 00 00 00 00	 call	 _fread

; 974  : 		resFp.Read( &m_vForce4, sizeof(D3DXVECTOR3), 1 );

  00269	8b 54 24 24	 mov	 edx, DWORD PTR _resFp$[esp+644]
  0026d	52		 push	 edx
  0026e	6a 01		 push	 1
  00270	8d 85 f8 0b 00
	00		 lea	 eax, DWORD PTR [ebp+3064]
  00276	6a 0c		 push	 12			; 0000000cH
  00278	50		 push	 eax
  00279	e8 00 00 00 00	 call	 _fread
  0027e	83 c4 20	 add	 esp, 32			; 00000020H
$L231390:

; 975  : 	}
; 976  : #endif //__CSC_VER9_5
; 977  : 	resFp.Read( &m_fScrlU, sizeof(float), 1 );

  00281	8b 4c 24 14	 mov	 ecx, DWORD PTR _resFp$[esp+628]
  00285	51		 push	 ecx
  00286	6a 01		 push	 1
  00288	8d 95 04 0c 00
	00		 lea	 edx, DWORD PTR [ebp+3076]
  0028e	6a 04		 push	 4
  00290	52		 push	 edx
  00291	e8 00 00 00 00	 call	 _fread

; 978  : 	resFp.Read( &m_fScrlV, sizeof(float), 1 );

  00296	8b 44 24 24	 mov	 eax, DWORD PTR _resFp$[esp+644]
  0029a	50		 push	 eax
  0029b	6a 01		 push	 1
  0029d	8d 8d 08 0c 00
	00		 lea	 ecx, DWORD PTR [ebp+3080]
  002a3	6a 04		 push	 4
  002a5	51		 push	 ecx
  002a6	e8 00 00 00 00	 call	 _fread

; 979  : 	resFp.Seek( 16, SEEK_CUR );		// reserved

  002ab	8b 54 24 34	 mov	 edx, DWORD PTR _resFp$[esp+660]
  002af	6a 01		 push	 1
  002b1	6a 10		 push	 16			; 00000010H
  002b3	52		 push	 edx
  002b4	e8 00 00 00 00	 call	 _fseek

; 980  : 
; 981  : 	resFp.Read( &m_vBBMin, sizeof(D3DXVECTOR3), 1 );		//   

  002b9	8b 44 24 40	 mov	 eax, DWORD PTR _resFp$[esp+672]
  002bd	50		 push	 eax
  002be	6a 01		 push	 1
  002c0	8d 8d bc 0b 00
	00		 lea	 ecx, DWORD PTR [ebp+3004]
  002c6	6a 0c		 push	 12			; 0000000cH
  002c8	51		 push	 ecx
  002c9	e8 00 00 00 00	 call	 _fread

; 982  : 	resFp.Read( &m_vBBMax, sizeof(D3DXVECTOR3), 1 );

  002ce	8b 54 24 50	 mov	 edx, DWORD PTR _resFp$[esp+688]
  002d2	52		 push	 edx
  002d3	6a 01		 push	 1
  002d5	8d 85 c8 0b 00
	00		 lea	 eax, DWORD PTR [ebp+3016]
  002db	6a 0c		 push	 12			; 0000000cH
  002dd	50		 push	 eax
  002de	e8 00 00 00 00	 call	 _fread

; 983  : 	resFp.Read( &m_fPerSlerp, sizeof(float), 1 );		// per slerp

  002e3	8b 4c 24 60	 mov	 ecx, DWORD PTR _resFp$[esp+704]
  002e7	83 c4 4c	 add	 esp, 76			; 0000004cH
  002ea	51		 push	 ecx
  002eb	6a 01		 push	 1
  002ed	8d 95 18 0c 00
	00		 lea	 edx, DWORD PTR [ebp+3096]
  002f3	6a 04		 push	 4
  002f5	52		 push	 edx
  002f6	e8 00 00 00 00	 call	 _fread

; 984  : 	resFp.Read( &m_nMaxFrame, 4, 1 );					// ani frame .    0 .

  002fb	8b 4c 24 24	 mov	 ecx, DWORD PTR _resFp$[esp+644]
  002ff	51		 push	 ecx
  00300	6a 01		 push	 1
  00302	8d 85 1c 0c 00
	00		 lea	 eax, DWORD PTR [ebp+3100]
  00308	6a 04		 push	 4
  0030a	50		 push	 eax
  0030b	e8 00 00 00 00	 call	 _fread

; 985  : 
; 986  : 	resFp.Read( &m_nMaxEvent, 4, 1 );	//  

  00310	8b 54 24 34	 mov	 edx, DWORD PTR _resFp$[esp+660]
  00314	52		 push	 edx
  00315	6a 01		 push	 1
  00317	8d 75 40	 lea	 esi, DWORD PTR [ebp+64]
  0031a	6a 04		 push	 4
  0031c	56		 push	 esi
  0031d	e8 00 00 00 00	 call	 _fread

; 987  : 	if( m_nMaxEvent > 0 )

  00322	8b 36		 mov	 esi, DWORD PTR [esi]
  00324	83 c4 30	 add	 esp, 48			; 00000030H
  00327	3b f3		 cmp	 esi, ebx
  00329	7e 1a		 jle	 SHORT $L231417

; 988  : 		resFp.Read( m_vEvent, sizeof(D3DXVECTOR3) * m_nMaxEvent, 1 );

  0032b	8b 4c 24 14	 mov	 ecx, DWORD PTR _resFp$[esp+628]
  0032f	51		 push	 ecx
  00330	8d 04 76	 lea	 eax, DWORD PTR [esi+esi*2]
  00333	c1 e0 02	 shl	 eax, 2
  00336	6a 01		 push	 1
  00338	50		 push	 eax
  00339	8d 55 4c	 lea	 edx, DWORD PTR [ebp+76]
  0033c	52		 push	 edx
  0033d	e8 00 00 00 00	 call	 _fread
  00342	83 c4 10	 add	 esp, 16			; 00000010H
$L231417:

; 989  : 
; 990  : 	resFp.Read( &nTemp, 4, 1 );

  00345	8b 44 24 14	 mov	 eax, DWORD PTR _resFp$[esp+628]
  00349	50		 push	 eax
  0034a	6a 01		 push	 1
  0034c	8d 4c 24 5c	 lea	 ecx, DWORD PTR _nTemp$[esp+632]
  00350	6a 04		 push	 4
  00352	51		 push	 ecx
  00353	e8 00 00 00 00	 call	 _fread

; 991  : 	if( nTemp )

  00358	8b 44 24 64	 mov	 eax, DWORD PTR _nTemp$[esp+640]
  0035c	83 c4 10	 add	 esp, 16			; 00000010H
  0035f	3b c3		 cmp	 eax, ebx
  00361	74 15		 je	 SHORT $L226127

; 992  : 	{
; 993  : 		m_CollObject.m_Type = GMT_NORMAL;

  00363	8d 85 00 01 00
	00		 lea	 eax, DWORD PTR [ebp+256]

; 994  : 		LoadGMObject( &resFp, &m_CollObject );		//  

  00369	50		 push	 eax
  0036a	8d 54 24 14	 lea	 edx, DWORD PTR _resFp$[esp+628]
  0036e	52		 push	 edx
  0036f	8b cd		 mov	 ecx, ebp
  00371	89 18		 mov	 DWORD PTR [eax], ebx
  00373	e8 00 00 00 00	 call	 ?LoadGMObject@CObject3D@@AAEHPAVCFileIO@@PAUGMOBJECT@@@Z ; CObject3D::LoadGMObject
$L226127:

; 995  : 	}
; 996  : 	resFp.Read( &m_bLOD, 4, 1 );					// LOD ?

  00378	8b 4c 24 14	 mov	 ecx, DWORD PTR _resFp$[esp+628]
  0037c	51		 push	 ecx
  0037d	6a 01		 push	 1
  0037f	8d 85 b4 00 00
	00		 lea	 eax, DWORD PTR [ebp+180]
  00385	6a 04		 push	 4
  00387	50		 push	 eax
  00388	e8 00 00 00 00	 call	 _fread

; 997  : 
; 998  : 	//---       .  ex) Obj_.o3d    parts_female.o3d, mvr_.o3d   .
; 999  : 	resFp.Read( &m_nMaxBone, 4, 1 );

  0038d	8b 54 24 24	 mov	 edx, DWORD PTR _resFp$[esp+644]
  00391	52		 push	 edx
  00392	6a 01		 push	 1
  00394	8d 75 30	 lea	 esi, DWORD PTR [ebp+48]
  00397	6a 04		 push	 4
  00399	56		 push	 esi
  0039a	e8 00 00 00 00	 call	 _fread

; 1000 : 
; 1001 : 	if( m_nMaxBone > 0 )

  0039f	8b 06		 mov	 eax, DWORD PTR [esi]
  003a1	83 c4 20	 add	 esp, 32			; 00000020H
  003a4	3b c3		 cmp	 eax, ebx
  003a6	0f 8e e5 00 00
	00		 jle	 $L231517

; 1002 : 	{
; 1003 : 		m_pBaseBone = new D3DXMATRIX[ m_nMaxBone * 2 ];

  003ac	8d 2c 00	 lea	 ebp, DWORD PTR [eax+eax]
  003af	8b c5		 mov	 eax, ebp
  003b1	c1 e0 06	 shl	 eax, 6
  003b4	50		 push	 eax
  003b5	e8 00 00 00 00	 call	 ??_U@YAPAXI@Z		; operator new[]
  003ba	8b f8		 mov	 edi, eax
  003bc	83 c4 04	 add	 esp, 4
  003bf	89 7c 24 18	 mov	 DWORD PTR $T231292[esp+624], edi
  003c3	3b fb		 cmp	 edi, ebx
  003c5	c6 84 24 6c 02
	00 00 02	 mov	 BYTE PTR __$EHRec$[esp+632], 2
  003cd	74 12		 je	 SHORT $L231293
  003cf	68 00 00 00 00	 push	 OFFSET FLAT:??0D3DXMATRIX@@QAE@XZ ; D3DXMATRIX::D3DXMATRIX
  003d4	55		 push	 ebp
  003d5	6a 40		 push	 64			; 00000040H
  003d7	57		 push	 edi
  003d8	e8 00 00 00 00	 call	 ??_H@YGXPAXIHP6EPAX0@Z@Z
  003dd	8b cf		 mov	 ecx, edi
  003df	eb 02		 jmp	 SHORT $L231294
$L231293:
  003e1	33 c9		 xor	 ecx, ecx
$L231294:

; 1004 : 		m_pBaseBoneInv = m_pBaseBone + m_nMaxBone;		// InverseTM  .

  003e3	8b 06		 mov	 eax, DWORD PTR [esi]
  003e5	8b 7c 24 28	 mov	 edi, DWORD PTR $T231498[esp+624]
  003e9	c1 e0 06	 shl	 eax, 6
  003ec	8d 14 08	 lea	 edx, DWORD PTR [eax+ecx]
  003ef	89 57 38	 mov	 DWORD PTR [edi+56], edx

; 1005 : 		resFp.Read( m_pBaseBone,	   sizeof(D3DXMATRIX) * m_nMaxBone, 1 );		//    

  003f2	8b 54 24 14	 mov	 edx, DWORD PTR _resFp$[esp+628]
  003f6	52		 push	 edx
  003f7	6a 01		 push	 1
  003f9	50		 push	 eax
  003fa	51		 push	 ecx
  003fb	88 9c 24 7c 02
	00 00		 mov	 BYTE PTR __$EHRec$[esp+648], bl
  00402	89 4f 34	 mov	 DWORD PTR [edi+52], ecx
  00405	e8 00 00 00 00	 call	 _fread

; 1006 : 		resFp.Read( m_pBaseBoneInv, sizeof(D3DXMATRIX) * m_nMaxBone, 1 );		// InverseTM 

  0040a	8b 54 24 24	 mov	 edx, DWORD PTR _resFp$[esp+644]
  0040e	8b 06		 mov	 eax, DWORD PTR [esi]
  00410	8b 4f 38	 mov	 ecx, DWORD PTR [edi+56]
  00413	52		 push	 edx
  00414	c1 e0 06	 shl	 eax, 6
  00417	6a 01		 push	 1
  00419	50		 push	 eax
  0041a	51		 push	 ecx
  0041b	e8 00 00 00 00	 call	 _fread

; 1007 : 		if( m_nMaxFrame > 0 )	//   MaxFrame    .

  00420	8b 87 1c 0c 00
	00		 mov	 eax, DWORD PTR [edi+3100]
  00426	83 c4 20	 add	 esp, 32			; 00000020H
  00429	3b c3		 cmp	 eax, ebx
  0042b	7e 48		 jle	 SHORT $L226137

; 1008 : 		{
; 1009 : 			m_pMotion = new CMotion;

  0042d	68 a4 00 00 00	 push	 164			; 000000a4H
  00432	e8 00 00 00 00	 call	 ??2@YAPAXI@Z		; operator new
  00437	83 c4 04	 add	 esp, 4
  0043a	89 44 24 18	 mov	 DWORD PTR $T231296[esp+624], eax
  0043e	3b c3		 cmp	 eax, ebx
  00440	c6 84 24 6c 02
	00 00 03	 mov	 BYTE PTR __$EHRec$[esp+632], 3
  00448	74 09		 je	 SHORT $L231297
  0044a	8b c8		 mov	 ecx, eax
  0044c	e8 00 00 00 00	 call	 ??0CMotion@@QAE@XZ	; CMotion::CMotion
  00451	eb 02		 jmp	 SHORT $L231298
$L231297:
  00453	33 c0		 xor	 eax, eax
$L231298:

; 1010 : 			m_pMotion->ReadTM( &resFp, m_nMaxBone, m_nMaxFrame );		//   .

  00455	8b 8f 1c 0c 00
	00		 mov	 ecx, DWORD PTR [edi+3100]
  0045b	8b 16		 mov	 edx, DWORD PTR [esi]
  0045d	51		 push	 ecx
  0045e	52		 push	 edx
  0045f	8d 4c 24 18	 lea	 ecx, DWORD PTR _resFp$[esp+632]
  00463	51		 push	 ecx
  00464	8b c8		 mov	 ecx, eax
  00466	88 9c 24 78 02
	00 00		 mov	 BYTE PTR __$EHRec$[esp+644], bl
  0046d	89 47 3c	 mov	 DWORD PTR [edi+60], eax
  00470	e8 00 00 00 00	 call	 ?ReadTM@CMotion@@QAEXPAVCFileIO@@HH@Z ; CMotion::ReadTM
$L226137:

; 1011 : 		}
; 1012 : 		resFp.Read( &m_bSendVS, 4, 1 );		//  MAX_VS_BONE  VS   ?

  00475	8b 54 24 14	 mov	 edx, DWORD PTR _resFp$[esp+628]
  00479	52		 push	 edx
  0047a	6a 01		 push	 1
  0047c	6a 04		 push	 4
  0047e	81 c7 b0 00 00
	00		 add	 edi, 176		; 000000b0H
  00484	57		 push	 edi
  00485	e8 00 00 00 00	 call	 _fread
  0048a	8b 6c 24 38	 mov	 ebp, DWORD PTR $T231498[esp+640]
  0048e	83 c4 10	 add	 esp, 16			; 00000010H
$L231517:

; 1013 : 	}
; 1014 : 
; 1015 : 	int nMaxGroup = (m_bLOD) ? MAX_GROUP : 1;	// LOD  3 .  1 .

  00491	8b b5 b4 00 00
	00		 mov	 esi, DWORD PTR [ebp+180]

; 1016 : 	LOD_GROUP *pGroup;
; 1017 : 	int nPoolSize, nDebugSize = 0;
; 1018 : 	resFp.Read( &nPoolSize, 4, 1 );		//   .

  00497	8b 4c 24 14	 mov	 ecx, DWORD PTR _resFp$[esp+628]
  0049b	33 c0		 xor	 eax, eax
  0049d	3b f3		 cmp	 esi, ebx
  0049f	0f 95 c0	 setne	 al
  004a2	51		 push	 ecx
  004a3	6a 01		 push	 1
  004a5	8d 54 24 28	 lea	 edx, DWORD PTR _nPoolSize$[esp+632]
  004a9	6a 04		 push	 4
  004ab	52		 push	 edx
  004ac	89 5c 24 50	 mov	 DWORD PTR _nDebugSize$[esp+640], ebx
  004b0	8d 44 00 01	 lea	 eax, DWORD PTR [eax+eax+1]
  004b4	89 44 24 28	 mov	 DWORD PTR _nMaxGroup$[esp+640], eax
  004b8	e8 00 00 00 00	 call	 _fread

; 1019 : 	GMOBJECT *pPool = new GMOBJECT[ nPoolSize ];	//  .

  004bd	8b 44 24 30	 mov	 eax, DWORD PTR _nPoolSize$[esp+640]
  004c1	8b f8		 mov	 edi, eax
  004c3	69 c0 bc 0a 00
	00		 imul	 eax, 2748		; 00000abcH
  004c9	50		 push	 eax
  004ca	e8 00 00 00 00	 call	 ??_U@YAPAXI@Z		; operator new[]
  004cf	8b f0		 mov	 esi, eax
  004d1	83 c4 14	 add	 esp, 20			; 00000014H
  004d4	89 74 24 34	 mov	 DWORD PTR $T231301[esp+624], esi
  004d8	3b f3		 cmp	 esi, ebx
  004da	c6 84 24 6c 02
	00 00 04	 mov	 BYTE PTR __$EHRec$[esp+632], 4
  004e2	74 13		 je	 SHORT $L231302
  004e4	68 00 00 00 00	 push	 OFFSET FLAT:??0GMOBJECT@@QAE@XZ
  004e9	57		 push	 edi
  004ea	68 bc 0a 00 00	 push	 2748			; 00000abcH
  004ef	56		 push	 esi
  004f0	e8 00 00 00 00	 call	 ??_H@YGXPAXIHP6EPAX0@Z@Z
  004f5	eb 02		 jmp	 SHORT $L231303
$L231302:
  004f7	33 f6		 xor	 esi, esi
$L231303:

; 1020 : 	if( pPool == NULL )

  004f9	3b f3		 cmp	 esi, ebx
  004fb	88 9c 24 6c 02
	00 00		 mov	 BYTE PTR __$EHRec$[esp+632], bl
  00502	89 74 24 50	 mov	 DWORD PTR _pPool$[esp+624], esi
  00506	75 19		 jne	 SHORT $L226153

; 1021 : 		Error( "  :CObject3D::LoadObject( %s ) %d", m_szFileName, nPoolSize );

  00508	8b 44 24 20	 mov	 eax, DWORD PTR _nPoolSize$[esp+624]
  0050c	50		 push	 eax
  0050d	8d 85 c0 00 00
	00		 lea	 eax, DWORD PTR [ebp+192]
  00513	50		 push	 eax
  00514	68 00 00 00 00	 push	 OFFSET FLAT:??_C@_0DA@ENKKKOBI@?$LI?$NO?$LI?p?$LI?$KO?5?G?R?$LE?g?5?$LN?G?F?P?3CObject3D?3?3Load@
  00519	e8 00 00 00 00	 call	 ?Error@@YAPBDPBDZZ	; Error
  0051e	83 c4 0c	 add	 esp, 12			; 0000000cH
$L226153:

; 1022 : 	memset( pPool, 0, sizeof(GMOBJECT) * nPoolSize );

  00521	8b 4c 24 20	 mov	 ecx, DWORD PTR _nPoolSize$[esp+624]
  00525	69 c9 bc 0a 00
	00		 imul	 ecx, 2748		; 00000abcH
  0052b	8b d1		 mov	 edx, ecx
  0052d	c1 e9 02	 shr	 ecx, 2
  00530	33 c0		 xor	 eax, eax
  00532	8b fe		 mov	 edi, esi
  00534	f3 ab		 rep stosd
  00536	8b ca		 mov	 ecx, edx
  00538	83 e1 03	 and	 ecx, 3
  0053b	f3 aa		 rep stosb

; 1023 : 	for( int i = 0; i < nMaxGroup; i ++ )

  0053d	8b 44 24 18	 mov	 eax, DWORD PTR _nMaxGroup$[esp+624]
  00541	3b c3		 cmp	 eax, ebx
  00543	0f 8e 1b 03 00
	00		 jle	 $L231520
  00549	8d 75 04	 lea	 esi, DWORD PTR [ebp+4]
  0054c	89 74 24 3c	 mov	 DWORD PTR tv1107[esp+624], esi
  00550	89 44 24 34	 mov	 DWORD PTR tv143[esp+624], eax
$L226157:

; 1024 : 	{
; 1025 : 		pGroup = &m_Group[i];
; 1026 : 		resFp.Read( &pGroup->m_nMaxObject, 4, 1 );		// geometry 

  00554	8b 44 24 14	 mov	 eax, DWORD PTR _resFp$[esp+628]
  00558	50		 push	 eax
  00559	6a 01		 push	 1
  0055b	6a 04		 push	 4
  0055d	56		 push	 esi
  0055e	e8 00 00 00 00	 call	 _fread

; 1027 : 
; 1028 : 		pGroup->m_pObject = pPool;		//   .
; 1029 : 		pPool += pGroup->m_nMaxObject;

  00563	8b 06		 mov	 eax, DWORD PTR [esi]
  00565	8b 4c 24 60	 mov	 ecx, DWORD PTR _pPool$[esp+640]
  00569	8b d0		 mov	 edx, eax
  0056b	69 d2 bc 0a 00
	00		 imul	 edx, 2748		; 00000abcH
  00571	8d 7e 04	 lea	 edi, DWORD PTR [esi+4]
  00574	89 0f		 mov	 DWORD PTR [edi], ecx
  00576	03 ca		 add	 ecx, edx
  00578	89 4c 24 60	 mov	 DWORD PTR _pPool$[esp+640], ecx

; 1030 : 
; 1031 : 		nDebugSize += pGroup->m_nMaxObject;

  0057c	8b 4c 24 50	 mov	 ecx, DWORD PTR _nDebugSize$[esp+640]
  00580	03 c8		 add	 ecx, eax

; 1032 : 		if( nDebugSize > nPoolSize )

  00582	8b 44 24 30	 mov	 eax, DWORD PTR _nPoolSize$[esp+640]
  00586	83 c4 10	 add	 esp, 16			; 00000010H
  00589	3b c8		 cmp	 ecx, eax
  0058b	89 7c 24 24	 mov	 DWORD PTR tv761[esp+624], edi
  0058f	89 4c 24 40	 mov	 DWORD PTR _nDebugSize$[esp+624], ecx
  00593	7e 0f		 jle	 SHORT $L226160

; 1033 : 			Error( "LoadObject :   %d, %d", nPoolSize, nDebugSize );

  00595	51		 push	 ecx
  00596	50		 push	 eax
  00597	68 00 00 00 00	 push	 OFFSET FLAT:??_C@_0CG@LLHAJNGA@LoadObject?5?3?5?$LI?$NO?$LI?p?$LI?$KO?5?$LP?$MA?$LJ?v?G?C?$LH?N?$LP?l?5?$CF@
  0059c	e8 00 00 00 00	 call	 ?Error@@YAPBDPBDZZ	; Error
  005a1	83 c4 0c	 add	 esp, 12			; 0000000cH
$L226160:

; 1034 : 
; 1035 : 		memset( pGroup->m_pObject, 0, sizeof(GMOBJECT) * pGroup->m_nMaxObject );

  005a4	8b 0e		 mov	 ecx, DWORD PTR [esi]
  005a6	8b 3f		 mov	 edi, DWORD PTR [edi]
  005a8	69 c9 bc 0a 00
	00		 imul	 ecx, 2748		; 00000abcH
  005ae	8b d1		 mov	 edx, ecx
  005b0	c1 e9 02	 shr	 ecx, 2
  005b3	33 c0		 xor	 eax, eax
  005b5	f3 ab		 rep stosd
  005b7	8b ca		 mov	 ecx, edx
  005b9	83 e1 03	 and	 ecx, 3
  005bc	f3 aa		 rep stosb

; 1036 : 		for( j = 0; j < pGroup->m_nMaxObject; j ++ )		pGroup->m_pObject[j].m_nID = -1;

  005be	8b 0e		 mov	 ecx, DWORD PTR [esi]
  005c0	33 c0		 xor	 eax, eax
  005c2	3b cb		 cmp	 ecx, ebx
  005c4	7e 24		 jle	 SHORT $L226165
  005c6	8b 54 24 24	 mov	 edx, DWORD PTR tv761[esp+624]
  005ca	89 54 24 24	 mov	 DWORD PTR tv761[esp+624], edx
  005ce	33 c9		 xor	 ecx, ecx
$L226163:
  005d0	8b 3a		 mov	 edi, DWORD PTR [edx]
  005d2	c7 84 0f 80 00
	00 00 ff ff ff
	ff		 mov	 DWORD PTR [edi+ecx+128], -1
  005dd	8b 3e		 mov	 edi, DWORD PTR [esi]
  005df	40		 inc	 eax
  005e0	81 c1 bc 0a 00
	00		 add	 ecx, 2748		; 00000abcH
  005e6	3b c7		 cmp	 eax, edi
  005e8	7c e6		 jl	 SHORT $L226163
$L226165:

; 1037 : 		
; 1038 : 		GMOBJECT	*pObject;
; 1039 : 		int		nParentIdx;
; 1040 : 		BOOL	bAnimate = FALSE;
; 1041 : 		int		nType;
; 1042 : 		//------  Geometry Object
; 1043 : 		for( j = 0; j < pGroup->m_nMaxObject; j ++ )

  005ea	39 1e		 cmp	 DWORD PTR [esi], ebx
  005ec	89 5c 24 4c	 mov	 DWORD PTR _j$[esp+624], ebx
  005f0	0f 8e bc 01 00
	00		 jle	 $L226158
  005f6	89 5c 24 2c	 mov	 DWORD PTR tv1084[esp+624], ebx
  005fa	8d 9b 00 00 00
	00		 npad	 6
$L231518:

; 1044 : 		{
; 1045 : 			pObject = &pGroup->m_pObject[j];
; 1046 : 
; 1047 : 			resFp.Read( &nType, 4, 1 );	// Type

  00600	8b 4c 24 14	 mov	 ecx, DWORD PTR _resFp$[esp+628]
  00604	8b 44 24 24	 mov	 eax, DWORD PTR tv761[esp+624]
  00608	8b 30		 mov	 esi, DWORD PTR [eax]
  0060a	8b 7c 24 2c	 mov	 edi, DWORD PTR tv1084[esp+624]
  0060e	51		 push	 ecx
  0060f	6a 01		 push	 1
  00611	8d 54 24 50	 lea	 edx, DWORD PTR _nType$226169[esp+632]
  00615	6a 04		 push	 4
  00617	52		 push	 edx
  00618	03 f7		 add	 esi, edi
  0061a	e8 00 00 00 00	 call	 _fread

; 1048 : 			pObject->m_Type = (GMTYPE)(nType & 0xffff);

  0061f	8b 44 24 58	 mov	 eax, DWORD PTR _nType$226169[esp+640]
  00623	25 ff ff 00 00	 and	 eax, 65535		; 0000ffffH
  00628	89 06		 mov	 DWORD PTR [esi], eax

; 1049 : 			if( nType & 0x80000000 )

  0062a	8b 44 24 58	 mov	 eax, DWORD PTR _nType$226169[esp+640]
  0062e	83 c4 10	 add	 esp, 16			; 00000010H
  00631	85 c0		 test	 eax, eax
  00633	79 0a		 jns	 SHORT $L226174

; 1050 : 				pObject->m_bLight = TRUE;

  00635	c7 86 90 00 00
	00 01 00 00 00	 mov	 DWORD PTR [esi+144], 1
$L226174:

; 1051 : 
; 1052 : 			resFp.Read( &pObject->m_nMaxUseBone, 4, 1 );

  0063f	8b 4c 24 14	 mov	 ecx, DWORD PTR _resFp$[esp+628]
  00643	51		 push	 ecx
  00644	6a 01		 push	 1
  00646	8d 7e 0c	 lea	 edi, DWORD PTR [esi+12]
  00649	6a 04		 push	 4
  0064b	57		 push	 edi
  0064c	e8 00 00 00 00	 call	 _fread

; 1053 : 			if( pObject->m_nMaxUseBone > 0 )

  00651	8b 3f		 mov	 edi, DWORD PTR [edi]
  00653	83 c4 10	 add	 esp, 16			; 00000010H
  00656	3b fb		 cmp	 edi, ebx
  00658	7e 17		 jle	 SHORT $L231456

; 1054 : 				resFp.Read( pObject->m_UseBone, sizeof(int) * pObject->m_nMaxUseBone, 1 );	//   

  0065a	8b 54 24 14	 mov	 edx, DWORD PTR _resFp$[esp+628]
  0065e	52		 push	 edx
  0065f	6a 01		 push	 1
  00661	c1 e7 02	 shl	 edi, 2
  00664	8d 46 10	 lea	 eax, DWORD PTR [esi+16]
  00667	57		 push	 edi
  00668	50		 push	 eax
  00669	e8 00 00 00 00	 call	 _fread
  0066e	83 c4 10	 add	 esp, 16			; 00000010H
$L231456:

; 1055 : 			
; 1056 : #if !defined(__YENV)
; 1057 : 			if( pObject->m_Type == GMT_SKIN )

  00671	83 3e 01	 cmp	 DWORD PTR [esi], 1
  00674	75 10		 jne	 SHORT $L226177

; 1058 : 			{
; 1059 : 				pObject->m_nVertexSize = sizeof(SKINVERTEX);

  00676	c7 46 04 2c 00
	00 00		 mov	 DWORD PTR [esi+4], 44	; 0000002cH

; 1060 : 				pObject->m_dwFVF	   = D3DFVF_SKINVERTEX;

  0067d	c7 46 08 1a 11
	00 00		 mov	 DWORD PTR [esi+8], 4378	; 0000111aH

; 1061 : 			} else

  00684	eb 0e		 jmp	 SHORT $L226179
$L226177:

; 1062 : 			{
; 1063 : 				pObject->m_nVertexSize = sizeof(NORMALVERTEX);

  00686	c7 46 04 20 00
	00 00		 mov	 DWORD PTR [esi+4], 32	; 00000020H

; 1064 : 				pObject->m_dwFVF	   = D3DFVF_NORMALVERTEX;

  0068d	c7 46 08 12 01
	00 00		 mov	 DWORD PTR [esi+8], 274	; 00000112H
$L226179:

; 1065 : 			}
; 1066 : #endif //__YENV
; 1067 : 
; 1068 : 			resFp.Read( &pObject->m_nID, 4, 1 );	// Object ID

  00694	8b 4c 24 14	 mov	 ecx, DWORD PTR _resFp$[esp+628]
  00698	51		 push	 ecx
  00699	6a 01		 push	 1
  0069b	8d 96 80 00 00
	00		 lea	 edx, DWORD PTR [esi+128]
  006a1	6a 04		 push	 4
  006a3	52		 push	 edx
  006a4	e8 00 00 00 00	 call	 _fread

; 1069 : 			resFp.Read( &nParentIdx, 4, 1 );			// parent idx

  006a9	8b 44 24 24	 mov	 eax, DWORD PTR _resFp$[esp+644]
  006ad	50		 push	 eax
  006ae	6a 01		 push	 1
  006b0	8d 4c 24 48	 lea	 ecx, DWORD PTR _nParentIdx$226167[esp+648]
  006b4	6a 04		 push	 4
  006b6	51		 push	 ecx
  006b7	e8 00 00 00 00	 call	 _fread

; 1070 : 			pObject->m_nParentIdx = nParentIdx;		// save   

  006bc	8b 54 24 50	 mov	 edx, DWORD PTR _nParentIdx$226167[esp+656]
  006c0	89 96 a8 00 00
	00		 mov	 DWORD PTR [esi+168], edx

; 1071 : 			
; 1072 : 			//     
; 1073 : 			if( nParentIdx != -1 )

  006c6	8b 44 24 50	 mov	 eax, DWORD PTR _nParentIdx$226167[esp+656]
  006ca	83 c4 20	 add	 esp, 32			; 00000020H
  006cd	83 f8 ff	 cmp	 eax, -1
  006d0	74 41		 je	 SHORT $L231519

; 1074 : 			{
; 1075 : 				resFp.Read( &pObject->m_ParentType, 4, 1 );		//   .

  006d2	8b 44 24 14	 mov	 eax, DWORD PTR _resFp$[esp+628]
  006d6	50		 push	 eax
  006d7	6a 01		 push	 1
  006d9	8d be a4 00 00
	00		 lea	 edi, DWORD PTR [esi+164]
  006df	6a 04		 push	 4
  006e1	57		 push	 edi
  006e2	e8 00 00 00 00	 call	 _fread

; 1076 : 				//   
; 1077 : 				switch( pObject->m_ParentType )

  006e7	8b 3f		 mov	 edi, DWORD PTR [edi]
  006e9	83 c4 10	 add	 esp, 16			; 00000010H
  006ec	2b fb		 sub	 edi, ebx
  006ee	74 0d		 je	 SHORT $L226187
  006f0	83 ef 02	 sub	 edi, 2
  006f3	75 1e		 jne	 SHORT $L231519

; 1078 : 				{
; 1079 : 				case GMT_BONE:		pObject->m_pParent = NULL;	break;		//   m_pParent  .

  006f5	89 9e ac 00 00
	00		 mov	 DWORD PTR [esi+172], ebx
  006fb	eb 16		 jmp	 SHORT $L231519
$L226187:

; 1080 : 				case GMT_NORMAL:	pObject->m_pParent = &pGroup->m_pObject[ nParentIdx ];		break;	//     .

  006fd	8b 4c 24 30	 mov	 ecx, DWORD PTR _nParentIdx$226167[esp+624]
  00701	8b 54 24 24	 mov	 edx, DWORD PTR tv761[esp+624]
  00705	69 c9 bc 0a 00
	00		 imul	 ecx, 2748		; 00000abcH
  0070b	03 0a		 add	 ecx, DWORD PTR [edx]
  0070d	89 8e ac 00 00
	00		 mov	 DWORD PTR [esi+172], ecx
$L231519:

; 1081 : 					break;
; 1082 : 				}
; 1083 : 			}
; 1084 : 
; 1085 : 			//  LocalTM.      .
; 1086 : 			resFp.Read( &pObject->m_mLocalTM, sizeof(D3DXMATRIX), 1 );

  00713	8b 44 24 14	 mov	 eax, DWORD PTR _resFp$[esp+628]
  00717	50		 push	 eax
  00718	bf 01 00 00 00	 mov	 edi, 1
  0071d	57		 push	 edi
  0071e	8d 8e b0 00 00
	00		 lea	 ecx, DWORD PTR [esi+176]
  00724	6a 40		 push	 64			; 00000040H
  00726	51		 push	 ecx
  00727	e8 00 00 00 00	 call	 _fread
  0072c	83 c4 10	 add	 esp, 16			; 00000010H

; 1087 : 
; 1088 : 			// load geometry
; 1089 : 			LoadGMObject( &resFp, pObject );			// Mesh 

  0072f	56		 push	 esi
  00730	8d 54 24 14	 lea	 edx, DWORD PTR _resFp$[esp+628]
  00734	52		 push	 edx
  00735	8b cd		 mov	 ecx, ebp
  00737	e8 00 00 00 00	 call	 ?LoadGMObject@CObject3D@@AAEHPAVCFileIO@@PAUGMOBJECT@@@Z ; CObject3D::LoadGMObject

; 1090 : 
; 1091 : #ifdef __YENV
; 1092 : 			//    ..
; 1093 : 			//   ExtractBuffers   
; 1094 : 			if( g_Option.m_bSpecBump )
; 1095 : 				pObject->m_VBType = VBT_NORMAL;
; 1096 : #endif //__YENV
; 1097 : 			
; 1098 : 			if( pObject->m_Type == GMT_SKIN )

  0073c	39 3e		 cmp	 DWORD PTR [esi], edi
  0073e	75 10		 jne	 SHORT $L226189

; 1099 : 			{
; 1100 : #ifdef __YENV
; 1101 : 				if( pObject->m_bBump && g_Option.m_bSpecBump )
; 1102 : 				{
; 1103 : 	#ifdef __YENV_WITHOUT_BUMP
; 1104 : 					pObject->m_nVertexSize = sizeof(SKINVERTEX);
; 1105 : 					pObject->m_dwFVF	   = D3DFVF_SKINVERTEX;
; 1106 : 	#else //__YENV_WITHOUT_BUMP
; 1107 : 					pObject->m_nVertexSize = sizeof(SKINVERTEX_BUMP);
; 1108 : 					pObject->m_dwFVF	   = D3DFVF_SKINVERTEX_BUMP;
; 1109 : 	#endif //__YENV_WITHOUT_BUMP
; 1110 : 				}
; 1111 : 				else
; 1112 : #endif //__YENV
; 1113 : 				{
; 1114 : 					pObject->m_nVertexSize = sizeof(SKINVERTEX);

  00740	c7 46 04 2c 00
	00 00		 mov	 DWORD PTR [esi+4], 44	; 0000002cH

; 1115 : 					pObject->m_dwFVF	   = D3DFVF_SKINVERTEX;

  00747	c7 46 08 1a 11
	00 00		 mov	 DWORD PTR [esi+8], 4378	; 0000111aH

; 1116 : 				}
; 1117 : 			} else

  0074e	eb 0e		 jmp	 SHORT $L226191
$L226189:

; 1118 : 			{
; 1119 : #ifdef __YENV
; 1120 : 				if( pObject->m_bBump && g_Option.m_bSpecBump )
; 1121 : 				{
; 1122 : 	#ifdef __YENV_WITHOUT_BUMP
; 1123 : 					pObject->m_nVertexSize = sizeof(NORMALVERTEX);
; 1124 : 					pObject->m_dwFVF	   = D3DFVF_NORMALVERTEX;
; 1125 : 	#else //__YENV_WITHOUT_BUMP
; 1126 : 					pObject->m_nVertexSize = sizeof(NORMALVERTEX_BUMP);
; 1127 : 					pObject->m_dwFVF	   = D3DFVF_NORMALVERTEX_BUMP;
; 1128 : 	#endif //__YENV_WITHOUT_BUMP
; 1129 : 				}
; 1130 : 				else
; 1131 : #endif //__YENV
; 1132 : 				{
; 1133 : 					pObject->m_nVertexSize = sizeof(NORMALVERTEX);

  00750	c7 46 04 20 00
	00 00		 mov	 DWORD PTR [esi+4], 32	; 00000020H

; 1134 : 					pObject->m_dwFVF	   = D3DFVF_NORMALVERTEX;

  00757	c7 46 08 12 01
	00 00		 mov	 DWORD PTR [esi+8], 274	; 00000112H
$L226191:

; 1135 : 				}
; 1136 : 			}
; 1137 : 			
; 1138 : 			if( pObject->m_pPhysiqueVertex == NULL )	bNormalObj = TRUE;	//   .

  0075e	39 9e 34 01 00
	00		 cmp	 DWORD PTR [esi+308], ebx
  00764	75 06		 jne	 SHORT $L226193
  00766	89 7c 24 44	 mov	 DWORD PTR _bNormalObj$[esp+624], edi

; 1139 : 			else										m_nHavePhysique = TRUE;		//     TRUE .

  0076a	eb 06		 jmp	 SHORT $L226194
$L226193:
  0076c	89 bd bc 00 00
	00		 mov	 DWORD PTR [ebp+188], edi
$L226194:

; 1140 : 
; 1141 : 			// load TM animation - 
; 1142 : 			if( pObject->m_Type == GMT_NORMAL )	//  m_pFrame  .

  00772	39 1e		 cmp	 DWORD PTR [esi], ebx
  00774	75 15		 jne	 SHORT $L226171

; 1143 : 			{
; 1144 : 				if( m_nMaxFrame > 0 )	LoadTMAni( &resFp, pObject );			// TM Animation  .  maxframe0   .

  00776	39 9d 1c 0c 00
	00		 cmp	 DWORD PTR [ebp+3100], ebx
  0077c	7e 0d		 jle	 SHORT $L226171
  0077e	56		 push	 esi
  0077f	8d 44 24 14	 lea	 eax, DWORD PTR _resFp$[esp+628]
  00783	50		 push	 eax
  00784	8b cd		 mov	 ecx, ebp
  00786	e8 00 00 00 00	 call	 ?LoadTMAni@CObject3D@@AAEHPAVCFileIO@@PAUGMOBJECT@@@Z ; CObject3D::LoadTMAni
$L226171:
  0078b	8b 44 24 4c	 mov	 eax, DWORD PTR _j$[esp+624]
  0078f	8b 74 24 2c	 mov	 esi, DWORD PTR tv1084[esp+624]
  00793	8b 4c 24 3c	 mov	 ecx, DWORD PTR tv1107[esp+624]
  00797	8b 11		 mov	 edx, DWORD PTR [ecx]
  00799	40		 inc	 eax
  0079a	81 c6 bc 0a 00
	00		 add	 esi, 2748		; 00000abcH
  007a0	3b c2		 cmp	 eax, edx
  007a2	89 44 24 4c	 mov	 DWORD PTR _j$[esp+624], eax
  007a6	89 74 24 2c	 mov	 DWORD PTR tv1084[esp+624], esi
  007aa	0f 8c 50 fe ff
	ff		 jl	 $L231518

; 1037 : 		
; 1038 : 		GMOBJECT	*pObject;
; 1039 : 		int		nParentIdx;
; 1040 : 		BOOL	bAnimate = FALSE;
; 1041 : 		int		nType;
; 1042 : 		//------  Geometry Object
; 1043 : 		for( j = 0; j < pGroup->m_nMaxObject; j ++ )

  007b0	8b f1		 mov	 esi, ecx
$L226158:

; 1023 : 	for( int i = 0; i < nMaxGroup; i ++ )

  007b2	8b 44 24 34	 mov	 eax, DWORD PTR tv143[esp+624]
  007b6	83 c6 0c	 add	 esi, 12			; 0000000cH
  007b9	48		 dec	 eax
  007ba	89 74 24 3c	 mov	 DWORD PTR tv1107[esp+624], esi
  007be	89 44 24 34	 mov	 DWORD PTR tv143[esp+624], eax
  007c2	0f 85 8c fd ff
	ff		 jne	 $L226157

; 1145 : 			}
; 1146 : 
; 1147 : 		}
; 1148 : 	} // LOD_GROUP
; 1149 : 	// boudbox vMin, vMax  8  
; 1150 : //	SetBB( m_vBBVList, m_vBBMin, m_vBBMax );
; 1151 : 
; 1152 : 	//    . -    .
; 1153 : 	if( bNormalObj == TRUE )

  007c8	83 7c 24 44 01	 cmp	 DWORD PTR _bNormalObj$[esp+624], 1
  007cd	0f 85 91 00 00
	00		 jne	 $L231520

; 1154 : 	{
; 1155 : 		D3DXMATRIX *pmPool = new D3DXMATRIX[ nPoolSize ];

  007d3	8b 54 24 20	 mov	 edx, DWORD PTR _nPoolSize$[esp+624]
  007d7	c1 e2 06	 shl	 edx, 6
  007da	52		 push	 edx
  007db	e8 00 00 00 00	 call	 ??_U@YAPAXI@Z		; operator new[]
  007e0	8b 54 24 2c	 mov	 edx, DWORD PTR $T231498[esp+628]
  007e4	8b e8		 mov	 ebp, eax
  007e6	8b 44 24 1c	 mov	 eax, DWORD PTR _nMaxGroup$[esp+628]
  007ea	83 c4 04	 add	 esp, 4
  007ed	89 44 24 18	 mov	 DWORD PTR tv514[esp+624], eax
  007f1	83 c2 04	 add	 edx, 4
  007f4	b8 00 00 80 3f	 mov	 eax, 1065353216		; 3f800000H
  007f9	8d a4 24 00 00
	00 00		 npad	 7
$L226205:

; 1159 : 			pmPool += m_Group[i].m_nMaxObject;

  00800	8b 0a		 mov	 ecx, DWORD PTR [edx]
  00802	8b f1		 mov	 esi, ecx
  00804	c1 e6 06	 shl	 esi, 6
  00807	89 6a 08	 mov	 DWORD PTR [edx+8], ebp
  0080a	03 ee		 add	 ebp, esi

; 1160 : 			for( j = 0; j < m_Group[i].m_nMaxObject; j ++ )

  0080c	33 f6		 xor	 esi, esi
  0080e	3b cb		 cmp	 ecx, ebx
  00810	7e 40		 jle	 SHORT $L226206

; 1157 : 		{
; 1158 : 			m_Group[i]._mUpdate = pmPool;

  00812	33 ff		 xor	 edi, edi
$L226208:

; 1160 : 			for( j = 0; j < m_Group[i].m_nMaxObject; j ++ )

  00814	8b 4a 08	 mov	 ecx, DWORD PTR [edx+8]
  00817	03 cf		 add	 ecx, edi

; 1161 : 				D3DXMatrixIdentity( &m_Group[i]._mUpdate[j] );

  00819	89 59 38	 mov	 DWORD PTR [ecx+56], ebx
  0081c	89 59 34	 mov	 DWORD PTR [ecx+52], ebx
  0081f	89 59 30	 mov	 DWORD PTR [ecx+48], ebx
  00822	89 59 2c	 mov	 DWORD PTR [ecx+44], ebx
  00825	89 59 24	 mov	 DWORD PTR [ecx+36], ebx
  00828	89 59 20	 mov	 DWORD PTR [ecx+32], ebx
  0082b	89 59 1c	 mov	 DWORD PTR [ecx+28], ebx
  0082e	89 59 18	 mov	 DWORD PTR [ecx+24], ebx
  00831	89 59 10	 mov	 DWORD PTR [ecx+16], ebx
  00834	89 59 0c	 mov	 DWORD PTR [ecx+12], ebx
  00837	89 59 08	 mov	 DWORD PTR [ecx+8], ebx
  0083a	89 59 04	 mov	 DWORD PTR [ecx+4], ebx
  0083d	89 41 3c	 mov	 DWORD PTR [ecx+60], eax
  00840	89 41 28	 mov	 DWORD PTR [ecx+40], eax
  00843	89 41 14	 mov	 DWORD PTR [ecx+20], eax
  00846	89 01		 mov	 DWORD PTR [ecx], eax
  00848	8b 0a		 mov	 ecx, DWORD PTR [edx]
  0084a	46		 inc	 esi
  0084b	83 c7 40	 add	 edi, 64			; 00000040H
  0084e	3b f1		 cmp	 esi, ecx
  00850	7c c2		 jl	 SHORT $L226208
$L226206:

; 1156 : 		for( i = 0; i < nMaxGroup; i ++ )

  00852	8b 4c 24 18	 mov	 ecx, DWORD PTR tv514[esp+624]
  00856	83 c2 0c	 add	 edx, 12			; 0000000cH
  00859	49		 dec	 ecx
  0085a	89 4c 24 18	 mov	 DWORD PTR tv514[esp+624], ecx
  0085e	75 a0		 jne	 SHORT $L226205
  00860	8b 6c 24 28	 mov	 ebp, DWORD PTR $T231498[esp+624]
$L231520:

; 1162 : 		}
; 1163 : 	}
; 1164 : 
; 1165 : 	// version 21  .
; 1166 : 	if( nVer >= 21 )

  00864	83 7c 24 38 15	 cmp	 DWORD PTR _nVer$[esp+624], 21 ; 00000015H
  00869	7c 63		 jl	 SHORT $L231521

; 1167 : 	{
; 1168 : 		int nAttr = 0;
; 1169 : 		
; 1170 : 		resFp.Read( &nAttr, 4, 1 );

  0086b	8b 4c 24 14	 mov	 ecx, DWORD PTR _resFp$[esp+628]
  0086f	51		 push	 ecx
  00870	6a 01		 push	 1
  00872	8d 54 24 20	 lea	 edx, DWORD PTR _nAttr$226212[esp+632]
  00876	6a 04		 push	 4
  00878	52		 push	 edx
  00879	89 5c 24 28	 mov	 DWORD PTR _nAttr$226212[esp+640], ebx
  0087d	e8 00 00 00 00	 call	 _fread

; 1171 : 		if( nAttr == m_nMaxFrame )		//    

  00882	8b 85 1c 0c 00
	00		 mov	 eax, DWORD PTR [ebp+3100]
  00888	8b 4c 24 28	 mov	 ecx, DWORD PTR _nAttr$226212[esp+640]
  0088c	83 c4 10	 add	 esp, 16			; 00000010H
  0088f	3b c8		 cmp	 ecx, eax
  00891	75 3b		 jne	 SHORT $L231521

; 1172 : 		{
; 1173 : 			//   .
; 1174 : 			if(m_nMaxFrame > 0)

  00893	3b c3		 cmp	 eax, ebx
  00895	7e 14		 jle	 SHORT $L226214

; 1175 : 				m_pAttr	= new MOTION_ATTR[ m_nMaxFrame ];

  00897	8d 04 40	 lea	 eax, DWORD PTR [eax+eax*2]
  0089a	c1 e0 02	 shl	 eax, 2
  0089d	50		 push	 eax
  0089e	e8 00 00 00 00	 call	 ??_U@YAPAXI@Z		; operator new[]
  008a3	83 c4 04	 add	 esp, 4
  008a6	89 45 48	 mov	 DWORD PTR [ebp+72], eax

; 1176 : 			else

  008a9	eb 03		 jmp	 SHORT $L226217
$L226214:

; 1177 : 				m_pAttr = NULL;

  008ab	89 5d 48	 mov	 DWORD PTR [ebp+72], ebx
$L226217:

; 1178 : 
; 1179 : 			resFp.Read( m_pAttr, sizeof(MOTION_ATTR) * m_nMaxFrame, 1 );

  008ae	8b 85 1c 0c 00
	00		 mov	 eax, DWORD PTR [ebp+3100]
  008b4	8b 54 24 14	 mov	 edx, DWORD PTR _resFp$[esp+628]
  008b8	8b 4d 48	 mov	 ecx, DWORD PTR [ebp+72]
  008bb	52		 push	 edx
  008bc	8d 04 40	 lea	 eax, DWORD PTR [eax+eax*2]
  008bf	c1 e0 02	 shl	 eax, 2
  008c2	6a 01		 push	 1
  008c4	50		 push	 eax
  008c5	51		 push	 ecx
  008c6	e8 00 00 00 00	 call	 _fread
  008cb	83 c4 10	 add	 esp, 16			; 00000010H
$L231521:

; 1180 : 		}
; 1181 : 	}
; 1182 : 	
; 1183 : 
; 1184 : 	resFp.Close();

  008ce	8d 4c 24 10	 lea	 ecx, DWORD PTR _resFp$[esp+624]
  008d2	e8 00 00 00 00	 call	 ?Close@CFileIO@@UAEHXZ	; CFileIO::Close

; 1185 : 
; 1186 : 	return SUCCESS;

  008d7	8d 4c 24 10	 lea	 ecx, DWORD PTR _resFp$[esp+624]
  008db	c7 84 24 6c 02
	00 00 ff ff ff
	ff		 mov	 DWORD PTR __$EHRec$[esp+632], -1
  008e6	c7 44 24 10 00
	00 00 00	 mov	 DWORD PTR _resFp$[esp+624], OFFSET FLAT:??_7CFileIO@@6B@
  008ee	e8 00 00 00 00	 call	 ?Close@CFileIO@@UAEHXZ	; CFileIO::Close
  008f3	b8 01 00 00 00	 mov	 eax, 1
$L226085:

; 1187 : }

  008f8	8b 8c 24 64 02
	00 00		 mov	 ecx, DWORD PTR __$EHRec$[esp+624]
  008ff	5f		 pop	 edi
  00900	5e		 pop	 esi
  00901	5d		 pop	 ebp
  00902	64 89 0d 00 00
	00 00		 mov	 DWORD PTR fs:__except_list, ecx
  00909	8b 8c 24 54 02
	00 00		 mov	 ecx, DWORD PTR __$ArrayPad$[esp+612]
  00910	5b		 pop	 ebx
  00911	33 cc		 xor	 ecx, esp
  00913	e8 00 00 00 00	 call	 @__security_check_cookie@4
  00918	81 c4 60 02 00
	00		 add	 esp, 608		; 00000260H
  0091e	c2 04 00	 ret	 4
_TEXT	ENDS
;	COMDAT text$x
text$x	SEGMENT
$L231311:
  00000	8d 8d a0 fd ff
	ff		 lea	 ecx, DWORD PTR _resFp$[ebp]
  00006	e9 00 00 00 00	 jmp	 ??1CFileIO@@UAE@XZ	; CFileIO::~CFileIO
$L231312:
  0000b	8d 8d a8 fd ff
	ff		 lea	 ecx, DWORD PTR $T231284[ebp]
  00011	e9 00 00 00 00	 jmp	 ??1?$CStringT@DV?$StrTraitMFC@DV?$ChTraitsCRT@D@ATL@@@@@ATL@@QAE@XZ ; ATL::CStringT<char,StrTraitMFC<char,ATL::ChTraitsCRT<char> > >::~CStringT<char,StrTraitMFC<char,ATL::ChTraitsCRT<char> > >
$L231313:
  00016	8b 85 a8 fd ff
	ff		 mov	 eax, DWORD PTR $T231292[ebp]
  0001c	50		 push	 eax
  0001d	e8 00 00 00 00	 call	 ??_V@YAXPAX@Z		; operator delete[]
  00022	59		 pop	 ecx
  00023	c3		 ret	 0
$L231314:
  00024	8b 85 a8 fd ff
	ff		 mov	 eax, DWORD PTR $T231296[ebp]
  0002a	50		 push	 eax
  0002b	e8 00 00 00 00	 call	 ??3@YAXPAX@Z		; operator delete
  00030	59		 pop	 ecx
  00031	c3		 ret	 0
$L231315:
  00032	8b 85 c4 fd ff
	ff		 mov	 eax, DWORD PTR $T231301[ebp]
  00038	50		 push	 eax
  00039	e8 00 00 00 00	 call	 ??_V@YAXPAX@Z		; operator delete[]
  0003e	59		 pop	 ecx
  0003f	c3		 ret	 0
__ehhandler$?LoadObject@CObject3D@@QAEHPBD@Z:
  00040	b8 00 00 00 00	 mov	 eax, OFFSET FLAT:$T231501
  00045	e9 00 00 00 00	 jmp	 ___CxxFrameHandler
text$x	ENDS
?LoadObject@CObject3D@@QAEHPBD@Z ENDP			; CObject3D::LoadObject
PUBLIC	??Eiterator@?$_Tree@V?$_Tmap_traits@V?$basic_string@DU?$char_traits@D@std@@V?$allocator@D@2@@std@@PAVCObject3D@@U?$less@V?$basic_string@DU?$char_traits@D@std@@V?$allocator@D@2@@std@@@2@V?$allocator@U?$pair@$$CBV?$basic_string@DU?$char_traits@D@std@@V?$allocator@D@2@@std@@PAVCObject3D@@@std@@@2@$0A@@std@@@std@@QAEAAV012@XZ ; std::_Tree<std::_Tmap_traits<std::basic_string<char,std::char_traits<char>,std::allocator<char> >,CObject3D *,std::less<std::basic_string<char,std::char_traits<char>,std::allocator<char> > >,std::allocator<std::pair<std::basic_string<char,std::char_traits<char>,std::allocator<char> > const ,CObject3D *> >,0> >::iterator::operator++
; Function compile flags: /Ogty
; File c:\program files\microsoft visual studio .net 2003\vc7\include\xtree
;	COMDAT ??Eiterator@?$_Tree@V?$_Tmap_traits@V?$basic_string@DU?$char_traits@D@std@@V?$allocator@D@2@@std@@PAVCObject3D@@U?$less@V?$basic_string@DU?$char_traits@D@std@@V?$allocator@D@2@@std@@@2@V?$allocator@U?$pair@$$CBV?$basic_string@DU?$char_traits@D@std@@V?$allocator@D@2@@std@@PAVCObject3D@@@std@@@2@$0A@@std@@@std@@QAEAAV012@XZ
_TEXT	SEGMENT
??Eiterator@?$_Tree@V?$_Tmap_traits@V?$basic_string@DU?$char_traits@D@std@@V?$allocator@D@2@@std@@PAVCObject3D@@U?$less@V?$basic_string@DU?$char_traits@D@std@@V?$allocator@D@2@@std@@@2@V?$allocator@U?$pair@$$CBV?$basic_string@DU?$char_traits@D@std@@V?$allocator@D@2@@std@@PAVCObject3D@@@std@@@2@$0A@@std@@@std@@QAEAAV012@XZ PROC NEAR ; std::_Tree<std::_Tmap_traits<std::basic_string<char,std::char_traits<char>,std::allocator<char> >,CObject3D *,std::less<std::basic_string<char,std::char_traits<char>,std::allocator<char> > >,std::allocator<std::pair<std::basic_string<char,std::char_traits<char>,std::allocator<char> > const ,CObject3D *> >,0> >::iterator::operator++, COMDAT
; _this$ = ecx

; 326  : 			{	// preincrement

  00000	56		 push	 esi
  00001	8b f1		 mov	 esi, ecx

; 327  : 			++(*(const_iterator *)this);

  00003	e8 00 00 00 00	 call	 ?_Inc@const_iterator@?$_Tree@V?$_Tmap_traits@V?$basic_string@DU?$char_traits@D@std@@V?$allocator@D@2@@std@@PAVCObject3D@@U?$less@V?$basic_string@DU?$char_traits@D@std@@V?$allocator@D@2@@std@@@2@V?$allocator@U?$pair@$$CBV?$basic_string@DU?$char_traits@D@std@@V?$allocator@D@2@@std@@PAVCObject3D@@@std@@@2@$0A@@std@@@std@@QAEXXZ ; std::_Tree<std::_Tmap_traits<std::basic_string<char,std::char_traits<char>,std::allocator<char> >,CObject3D *,std::less<std::basic_string<char,std::char_traits<char>,std::allocator<char> > >,std::allocator<std::pair<std::basic_string<char,std::char_traits<char>,std::allocator<char> > const ,CObject3D *> >,0> >::const_iterator::_Inc

; 328  : 			return (*this);

  00008	8b c6		 mov	 eax, esi
  0000a	5e		 pop	 esi

; 329  : 			}

  0000b	c3		 ret	 0
??Eiterator@?$_Tree@V?$_Tmap_traits@V?$basic_string@DU?$char_traits@D@std@@V?$allocator@D@2@@std@@PAVCObject3D@@U?$less@V?$basic_string@DU?$char_traits@D@std@@V?$allocator@D@2@@std@@@2@V?$allocator@U?$pair@$$CBV?$basic_string@DU?$char_traits@D@std@@V?$allocator@D@2@@std@@PAVCObject3D@@@std@@@2@$0A@@std@@@std@@QAEAAV012@XZ ENDP ; std::_Tree<std::_Tmap_traits<std::basic_string<char,std::char_traits<char>,std::allocator<char> >,CObject3D *,std::less<std::basic_string<char,std::char_traits<char>,std::allocator<char> > >,std::allocator<std::pair<std::basic_string<char,std::char_traits<char>,std::allocator<char> > const ,CObject3D *> >,0> >::iterator::operator++
_TEXT	ENDS
PUBLIC	?_Init@?$_Tree@V?$_Tmap_traits@V?$basic_string@DU?$char_traits@D@std@@V?$allocator@D@2@@std@@PAVCObject3D@@U?$less@V?$basic_string@DU?$char_traits@D@std@@V?$allocator@D@2@@std@@@2@V?$allocator@U?$pair@$$CBV?$basic_string@DU?$char_traits@D@std@@V?$allocator@D@2@@std@@PAVCObject3D@@@std@@@2@$0A@@std@@@std@@IAEXXZ ; std::_Tree<std::_Tmap_traits<std::basic_string<char,std::char_traits<char>,std::allocator<char> >,CObject3D *,std::less<std::basic_string<char,std::char_traits<char>,std::allocator<char> > >,std::allocator<std::pair<std::basic_string<char,std::char_traits<char>,std::allocator<char> > const ,CObject3D *> >,0> >::_Init
; Function compile flags: /Ogty
;	COMDAT ?_Init@?$_Tree@V?$_Tmap_traits@V?$basic_string@DU?$char_traits@D@std@@V?$allocator@D@2@@std@@PAVCObject3D@@U?$less@V?$basic_string@DU?$char_traits@D@std@@V?$allocator@D@2@@std@@@2@V?$allocator@U?$pair@$$CBV?$basic_string@DU?$char_traits@D@std@@V?$allocator@D@2@@std@@PAVCObject3D@@@std@@@2@$0A@@std@@@std@@IAEXXZ
_TEXT	SEGMENT
?_Init@?$_Tree@V?$_Tmap_traits@V?$basic_string@DU?$char_traits@D@std@@V?$allocator@D@2@@std@@PAVCObject3D@@U?$less@V?$basic_string@DU?$char_traits@D@std@@V?$allocator@D@2@@std@@@2@V?$allocator@U?$pair@$$CBV?$basic_string@DU?$char_traits@D@std@@V?$allocator@D@2@@std@@PAVCObject3D@@@std@@@2@$0A@@std@@@std@@IAEXXZ PROC NEAR ; std::_Tree<std::_Tmap_traits<std::basic_string<char,std::char_traits<char>,std::allocator<char> >,CObject3D *,std::less<std::basic_string<char,std::char_traits<char>,std::allocator<char> > >,std::allocator<std::pair<std::basic_string<char,std::char_traits<char>,std::allocator<char> > const ,CObject3D *> >,0> >::_Init, COMDAT
; _this$ = ecx

; 901  : 		{	// create head/nil node and make tree empty

  00000	56		 push	 esi
  00001	8b f1		 mov	 esi, ecx

; 902  : 		_Myhead = _Buynode();

  00003	e8 00 00 00 00	 call	 ?_Buynode@?$_Tree@V?$_Tmap_traits@V?$basic_string@DU?$char_traits@D@std@@V?$allocator@D@2@@std@@PAVCObject3D@@U?$less@V?$basic_string@DU?$char_traits@D@std@@V?$allocator@D@2@@std@@@2@V?$allocator@U?$pair@$$CBV?$basic_string@DU?$char_traits@D@std@@V?$allocator@D@2@@std@@PAVCObject3D@@@std@@@2@$0A@@std@@@std@@IAEPAU_Node@?$_Tree_nod@V?$_Tmap_traits@V?$basic_string@DU?$char_traits@D@std@@V?$allocator@D@2@@std@@PAVCObject3D@@U?$less@V?$basic_string@DU?$char_traits@D@std@@V?$allocator@D@2@@std@@@2@V?$allocator@U?$pair@$$CBV?$basic_string@DU?$char_traits@D@std@@V?$allocator@D@2@@std@@PAVCObject3D@@@std@@@2@$0A@@std@@@2@XZ ; std::_Tree<std::_Tmap_traits<std::basic_string<char,std::char_traits<char>,std::allocator<char> >,CObject3D *,std::less<std::basic_string<char,std::char_traits<char>,std::allocator<char> > >,std::allocator<std::pair<std::basic_string<char,std::char_traits<char>,std::allocator<char> > const ,CObject3D *> >,0> >::_Buynode
  00008	89 46 04	 mov	 DWORD PTR [esi+4], eax

; 903  : 		_Isnil(_Myhead) = true;

  0000b	c6 40 2d 01	 mov	 BYTE PTR [eax+45], 1

; 904  : 		_Root() = _Myhead;

  0000f	8b 46 04	 mov	 eax, DWORD PTR [esi+4]
  00012	89 40 04	 mov	 DWORD PTR [eax+4], eax

; 905  : 		_Lmost() = _Myhead, _Rmost() = _Myhead;

  00015	8b 46 04	 mov	 eax, DWORD PTR [esi+4]
  00018	89 00		 mov	 DWORD PTR [eax], eax
  0001a	8b 46 04	 mov	 eax, DWORD PTR [esi+4]
  0001d	89 40 08	 mov	 DWORD PTR [eax+8], eax

; 906  : 		_Mysize = 0;

  00020	c7 46 08 00 00
	00 00		 mov	 DWORD PTR [esi+8], 0
  00027	5e		 pop	 esi

; 907  : 		}

  00028	c3		 ret	 0
?_Init@?$_Tree@V?$_Tmap_traits@V?$basic_string@DU?$char_traits@D@std@@V?$allocator@D@2@@std@@PAVCObject3D@@U?$less@V?$basic_string@DU?$char_traits@D@std@@V?$allocator@D@2@@std@@@2@V?$allocator@U?$pair@$$CBV?$basic_string@DU?$char_traits@D@std@@V?$allocator@D@2@@std@@PAVCObject3D@@@std@@@2@$0A@@std@@@std@@IAEXXZ ENDP ; std::_Tree<std::_Tmap_traits<std::basic_string<char,std::char_traits<char>,std::allocator<char> >,CObject3D *,std::less<std::basic_string<char,std::char_traits<char>,std::allocator<char> > >,std::allocator<std::pair<std::basic_string<char,std::char_traits<char>,std::allocator<char> > const ,CObject3D *> >,0> >::_Init
_TEXT	ENDS
PUBLIC	??0?$_Tree_val@V?$_Tmap_traits@V?$basic_string@DU?$char_traits@D@std@@V?$allocator@D@2@@std@@PAVCObject3D@@U?$less@V?$basic_string@DU?$char_traits@D@std@@V?$allocator@D@2@@std@@@2@V?$allocator@U?$pair@$$CBV?$basic_string@DU?$char_traits@D@std@@V?$allocator@D@2@@std@@PAVCObject3D@@@std@@@2@$0A@@std@@@std@@IAE@ABU?$less@V?$basic_string@DU?$char_traits@D@std@@V?$allocator@D@2@@std@@@1@V?$allocator@U?$pair@$$CBV?$basic_string@DU?$char_traits@D@std@@V?$allocator@D@2@@std@@PAVCObject3D@@@std@@@1@@Z ; std::_Tree_val<std::_Tmap_traits<std::basic_string<char,std::char_traits<char>,std::allocator<char> >,CObject3D *,std::less<std::basic_string<char,std::char_traits<char>,std::allocator<char> > >,std::allocator<std::pair<std::basic_string<char,std::char_traits<char>,std::allocator<char> > const ,CObject3D *> >,0> >::_Tree_val<std::_Tmap_traits<std::basic_string<char,std::char_traits<char>,std::allocator<char> >,CObject3D *,std::less<std::basic_string<char,std::char_traits<char>,std::allocator<char> > >,std::allocator<std::pair<std::basic_string<char,std::char_traits<char>,std::allocator<char> > const ,CObject3D *> >,0> >
; Function compile flags: /Ogty
;	COMDAT ??0?$_Tree_val@V?$_Tmap_traits@V?$basic_string@DU?$char_traits@D@std@@V?$allocator@D@2@@std@@PAVCObject3D@@U?$less@V?$basic_string@DU?$char_traits@D@std@@V?$allocator@D@2@@std@@@2@V?$allocator@U?$pair@$$CBV?$basic_string@DU?$char_traits@D@std@@V?$allocator@D@2@@std@@PAVCObject3D@@@std@@@2@$0A@@std@@@std@@IAE@ABU?$less@V?$basic_string@DU?$char_traits@D@std@@V?$allocator@D@2@@std@@@1@V?$allocator@U?$pair@$$CBV?$basic_string@DU?$char_traits@D@std@@V?$allocator@D@2@@std@@PAVCObject3D@@@std@@@1@@Z
_TEXT	SEGMENT
__Parg$ = 8						; size = 4
__Al$ = 12						; size = 1
??0?$_Tree_val@V?$_Tmap_traits@V?$basic_string@DU?$char_traits@D@std@@V?$allocator@D@2@@std@@PAVCObject3D@@U?$less@V?$basic_string@DU?$char_traits@D@std@@V?$allocator@D@2@@std@@@2@V?$allocator@U?$pair@$$CBV?$basic_string@DU?$char_traits@D@std@@V?$allocator@D@2@@std@@PAVCObject3D@@@std@@@2@$0A@@std@@@std@@IAE@ABU?$less@V?$basic_string@DU?$char_traits@D@std@@V?$allocator@D@2@@std@@@1@V?$allocator@U?$pair@$$CBV?$basic_string@DU?$char_traits@D@std@@V?$allocator@D@2@@std@@PAVCObject3D@@@std@@@1@@Z PROC NEAR ; std::_Tree_val<std::_Tmap_traits<std::basic_string<char,std::char_traits<char>,std::allocator<char> >,CObject3D *,std::less<std::basic_string<char,std::char_traits<char>,std::allocator<char> > >,std::allocator<std::pair<std::basic_string<char,std::char_traits<char>,std::allocator<char> > const ,CObject3D *> >,0> >::_Tree_val<std::_Tmap_traits<std::basic_string<char,std::char_traits<char>,std::allocator<char> >,CObject3D *,std::less<std::basic_string<char,std::char_traits<char>,std::allocator<char> > >,std::allocator<std::pair<std::basic_string<char,std::char_traits<char>,std::allocator<char> > const ,CObject3D *> >,0> >, COMDAT
; _this$ = ecx

; 95   : 		{	// construct base, and allocator from _Al

  00000	8b c1		 mov	 eax, ecx

; 96   : 		}

  00002	c2 08 00	 ret	 8
??0?$_Tree_val@V?$_Tmap_traits@V?$basic_string@DU?$char_traits@D@std@@V?$allocator@D@2@@std@@PAVCObject3D@@U?$less@V?$basic_string@DU?$char_traits@D@std@@V?$allocator@D@2@@std@@@2@V?$allocator@U?$pair@$$CBV?$basic_string@DU?$char_traits@D@std@@V?$allocator@D@2@@std@@PAVCObject3D@@@std@@@2@$0A@@std@@@std@@IAE@ABU?$less@V?$basic_string@DU?$char_traits@D@std@@V?$allocator@D@2@@std@@@1@V?$allocator@U?$pair@$$CBV?$basic_string@DU?$char_traits@D@std@@V?$allocator@D@2@@std@@PAVCObject3D@@@std@@@1@@Z ENDP ; std::_Tree_val<std::_Tmap_traits<std::basic_string<char,std::char_traits<char>,std::allocator<char> >,CObject3D *,std::less<std::basic_string<char,std::char_traits<char>,std::allocator<char> > >,std::allocator<std::pair<std::basic_string<char,std::char_traits<char>,std::allocator<char> > const ,CObject3D *> >,0> >::_Tree_val<std::_Tmap_traits<std::basic_string<char,std::char_traits<char>,std::allocator<char> >,CObject3D *,std::less<std::basic_string<char,std::char_traits<char>,std::allocator<char> > >,std::allocator<std::pair<std::basic_string<char,std::char_traits<char>,std::allocator<char> > const ,CObject3D *> >,0> >
_TEXT	ENDS
PUBLIC	??Eiterator@?$_Tree@V?$_Tmap_traits@V?$basic_string@DU?$char_traits@D@std@@V?$allocator@D@2@@std@@PAVCObject3D@@U?$less@V?$basic_string@DU?$char_traits@D@std@@V?$allocator@D@2@@std@@@2@V?$allocator@U?$pair@$$CBV?$basic_string@DU?$char_traits@D@std@@V?$allocator@D@2@@std@@PAVCObject3D@@@std@@@2@$0A@@std@@@std@@QAE?AV012@H@Z ; std::_Tree<std::_Tmap_traits<std::basic_string<char,std::char_traits<char>,std::allocator<char> >,CObject3D *,std::less<std::basic_string<char,std::char_traits<char>,std::allocator<char> > >,std::allocator<std::pair<std::basic_string<char,std::char_traits<char>,std::allocator<char> > const ,CObject3D *> >,0> >::iterator::operator++
; Function compile flags: /Ogty
;	COMDAT ??Eiterator@?$_Tree@V?$_Tmap_traits@V?$basic_string@DU?$char_traits@D@std@@V?$allocator@D@2@@std@@PAVCObject3D@@U?$less@V?$basic_string@DU?$char_traits@D@std@@V?$allocator@D@2@@std@@@2@V?$allocator@U?$pair@$$CBV?$basic_string@DU?$char_traits@D@std@@V?$allocator@D@2@@std@@PAVCObject3D@@@std@@@2@$0A@@std@@@std@@QAE?AV012@H@Z
_TEXT	SEGMENT
___$ReturnUdt$ = 8					; size = 4
___formal$ = 12						; size = 4
??Eiterator@?$_Tree@V?$_Tmap_traits@V?$basic_string@DU?$char_traits@D@std@@V?$allocator@D@2@@std@@PAVCObject3D@@U?$less@V?$basic_string@DU?$char_traits@D@std@@V?$allocator@D@2@@std@@@2@V?$allocator@U?$pair@$$CBV?$basic_string@DU?$char_traits@D@std@@V?$allocator@D@2@@std@@PAVCObject3D@@@std@@@2@$0A@@std@@@std@@QAE?AV012@H@Z PROC NEAR ; std::_Tree<std::_Tmap_traits<std::basic_string<char,std::char_traits<char>,std::allocator<char> >,CObject3D *,std::less<std::basic_string<char,std::char_traits<char>,std::allocator<char> > >,std::allocator<std::pair<std::basic_string<char,std::char_traits<char>,std::allocator<char> > const ,CObject3D *> >,0> >::iterator::operator++, COMDAT
; _this$ = ecx

; 332  : 			{	// postincrement

  00000	56		 push	 esi

; 333  : 			iterator _Tmp = *this;

  00001	8b 31		 mov	 esi, DWORD PTR [ecx]

; 334  : 			++*this;

  00003	e8 00 00 00 00	 call	 ?_Inc@const_iterator@?$_Tree@V?$_Tmap_traits@V?$basic_string@DU?$char_traits@D@std@@V?$allocator@D@2@@std@@PAVCObject3D@@U?$less@V?$basic_string@DU?$char_traits@D@std@@V?$allocator@D@2@@std@@@2@V?$allocator@U?$pair@$$CBV?$basic_string@DU?$char_traits@D@std@@V?$allocator@D@2@@std@@PAVCObject3D@@@std@@@2@$0A@@std@@@std@@QAEXXZ ; std::_Tree<std::_Tmap_traits<std::basic_string<char,std::char_traits<char>,std::allocator<char> >,CObject3D *,std::less<std::basic_string<char,std::char_traits<char>,std::allocator<char> > >,std::allocator<std::pair<std::basic_string<char,std::char_traits<char>,std::allocator<char> > const ,CObject3D *> >,0> >::const_iterator::_Inc

; 335  : 			return (_Tmp);

  00008	8b 44 24 08	 mov	 eax, DWORD PTR ___$ReturnUdt$[esp]
  0000c	89 30		 mov	 DWORD PTR [eax], esi
  0000e	5e		 pop	 esi

; 336  : 			}

  0000f	c2 08 00	 ret	 8
??Eiterator@?$_Tree@V?$_Tmap_traits@V?$basic_string@DU?$char_traits@D@std@@V?$allocator@D@2@@std@@PAVCObject3D@@U?$less@V?$basic_string@DU?$char_traits@D@std@@V?$allocator@D@2@@std@@@2@V?$allocator@U?$pair@$$CBV?$basic_string@DU?$char_traits@D@std@@V?$allocator@D@2@@std@@PAVCObject3D@@@std@@@2@$0A@@std@@@std@@QAE?AV012@H@Z ENDP ; std::_Tree<std::_Tmap_traits<std::basic_string<char,std::char_traits<char>,std::allocator<char> >,CObject3D *,std::less<std::basic_string<char,std::char_traits<char>,std::allocator<char> > >,std::allocator<std::pair<std::basic_string<char,std::char_traits<char>,std::allocator<char> > const ,CObject3D *> >,0> >::iterator::operator++
_TEXT	ENDS
PUBLIC	??$_Distance2@Viterator@?$_Tree@V?$_Tmap_traits@V?$basic_string@DU?$char_traits@D@std@@V?$allocator@D@2@@std@@PAVCObject3D@@U?$less@V?$basic_string@DU?$char_traits@D@std@@V?$allocator@D@2@@std@@@2@V?$allocator@U?$pair@$$CBV?$basic_string@DU?$char_traits@D@std@@V?$allocator@D@2@@std@@PAVCObject3D@@@std@@@2@$0A@@std@@@std@@I@std@@YAXViterator@?$_Tree@V?$_Tmap_traits@V?$basic_string@DU?$char_traits@D@std@@V?$allocator@D@2@@std@@PAVCObject3D@@U?$less@V?$basic_string@DU?$char_traits@D@std@@V?$allocator@D@2@@std@@@2@V?$allocator@U?$pair@$$CBV?$basic_string@DU?$char_traits@D@std@@V?$allocator@D@2@@std@@PAVCObject3D@@@std@@@2@$0A@@std@@@0@0AAIUbidirectional_iterator_tag@0@@Z ; std::_Distance2<std::_Tree<std::_Tmap_traits<std::basic_string<char,std::char_traits<char>,std::allocator<char> >,CObject3D *,std::less<std::basic_string<char,std::char_traits<char>,std::allocator<char> > >,std::allocator<std::pair<std::basic_string<char,std::char_traits<char>,std::allocator<char> > const ,CObject3D *> >,0> >::iterator,unsigned int>
; Function compile flags: /Ogty
; File c:\program files\microsoft visual studio .net 2003\vc7\include\xutility
;	COMDAT ??$_Distance2@Viterator@?$_Tree@V?$_Tmap_traits@V?$basic_string@DU?$char_traits@D@std@@V?$allocator@D@2@@std@@PAVCObject3D@@U?$less@V?$basic_string@DU?$char_traits@D@std@@V?$allocator@D@2@@std@@@2@V?$allocator@U?$pair@$$CBV?$basic_string@DU?$char_traits@D@std@@V?$allocator@D@2@@std@@PAVCObject3D@@@std@@@2@$0A@@std@@@std@@I@std@@YAXViterator@?$_Tree@V?$_Tmap_traits@V?$basic_string@DU?$char_traits@D@std@@V?$allocator@D@2@@std@@PAVCObject3D@@U?$less@V?$basic_string@DU?$char_traits@D@std@@V?$allocator@D@2@@std@@@2@V?$allocator@U?$pair@$$CBV?$basic_string@DU?$char_traits@D@std@@V?$allocator@D@2@@std@@PAVCObject3D@@@std@@@2@$0A@@std@@@0@0AAIUbidirectional_iterator_tag@0@@Z
_TEXT	SEGMENT
__First$ = 8						; size = 4
__Last$ = 12						; size = 4
__Off$ = 16						; size = 4
___formal$ = 20						; size = 1
??$_Distance2@Viterator@?$_Tree@V?$_Tmap_traits@V?$basic_string@DU?$char_traits@D@std@@V?$allocator@D@2@@std@@PAVCObject3D@@U?$less@V?$basic_string@DU?$char_traits@D@std@@V?$allocator@D@2@@std@@@2@V?$allocator@U?$pair@$$CBV?$basic_string@DU?$char_traits@D@std@@V?$allocator@D@2@@std@@PAVCObject3D@@@std@@@2@$0A@@std@@@std@@I@std@@YAXViterator@?$_Tree@V?$_Tmap_traits@V?$basic_string@DU?$char_traits@D@std@@V?$allocator@D@2@@std@@PAVCObject3D@@U?$less@V?$basic_string@DU?$char_traits@D@std@@V?$allocator@D@2@@std@@@2@V?$allocator@U?$pair@$$CBV?$basic_string@DU?$char_traits@D@std@@V?$allocator@D@2@@std@@PAVCObject3D@@@std@@@2@$0A@@std@@@0@0AAIUbidirectional_iterator_tag@0@@Z PROC NEAR ; std::_Distance2<std::_Tree<std::_Tmap_traits<std::basic_string<char,std::char_traits<char>,std::allocator<char> >,CObject3D *,std::less<std::basic_string<char,std::char_traits<char>,std::allocator<char> > >,std::allocator<std::pair<std::basic_string<char,std::char_traits<char>,std::allocator<char> > const ,CObject3D *> >,0> >::iterator,unsigned int>, COMDAT

; 470  : 	for (; _First != _Last; ++_First)

  00000	8b 44 24 04	 mov	 eax, DWORD PTR __First$[esp-4]
  00004	57		 push	 edi
  00005	8b 7c 24 0c	 mov	 edi, DWORD PTR __Last$[esp]
  00009	3b c7		 cmp	 eax, edi
  0000b	74 17		 je	 SHORT $L227940
  0000d	56		 push	 esi
  0000e	8b 74 24 14	 mov	 esi, DWORD PTR __Off$[esp+4]
$L231635:

; 471  : 		++_Off;

  00012	ff 06		 inc	 DWORD PTR [esi]
  00014	8d 4c 24 0c	 lea	 ecx, DWORD PTR __First$[esp+4]
  00018	e8 00 00 00 00	 call	 ?_Inc@const_iterator@?$_Tree@V?$_Tmap_traits@V?$basic_string@DU?$char_traits@D@std@@V?$allocator@D@2@@std@@PAVCObject3D@@U?$less@V?$basic_string@DU?$char_traits@D@std@@V?$allocator@D@2@@std@@@2@V?$allocator@U?$pair@$$CBV?$basic_string@DU?$char_traits@D@std@@V?$allocator@D@2@@std@@PAVCObject3D@@@std@@@2@$0A@@std@@@std@@QAEXXZ ; std::_Tree<std::_Tmap_traits<std::basic_string<char,std::char_traits<char>,std::allocator<char> >,CObject3D *,std::less<std::basic_string<char,std::char_traits<char>,std::allocator<char> > >,std::allocator<std::pair<std::basic_string<char,std::char_traits<char>,std::allocator<char> > const ,CObject3D *> >,0> >::const_iterator::_Inc
  0001d	39 7c 24 0c	 cmp	 DWORD PTR __First$[esp+4], edi
  00021	75 ef		 jne	 SHORT $L231635
  00023	5e		 pop	 esi
$L227940:
  00024	5f		 pop	 edi

; 472  : 	}

  00025	c3		 ret	 0
??$_Distance2@Viterator@?$_Tree@V?$_Tmap_traits@V?$basic_string@DU?$char_traits@D@std@@V?$allocator@D@2@@std@@PAVCObject3D@@U?$less@V?$basic_string@DU?$char_traits@D@std@@V?$allocator@D@2@@std@@@2@V?$allocator@U?$pair@$$CBV?$basic_string@DU?$char_traits@D@std@@V?$allocator@D@2@@std@@PAVCObject3D@@@std@@@2@$0A@@std@@@std@@I@std@@YAXViterator@?$_Tree@V?$_Tmap_traits@V?$basic_string@DU?$char_traits@D@std@@V?$allocator@D@2@@std@@PAVCObject3D@@U?$less@V?$basic_string@DU?$char_traits@D@std@@V?$allocator@D@2@@std@@@2@V?$allocator@U?$pair@$$CBV?$basic_string@DU?$char_traits@D@std@@V?$allocator@D@2@@std@@PAVCObject3D@@@std@@@2@$0A@@std@@@0@0AAIUbidirectional_iterator_tag@0@@Z ENDP ; std::_Distance2<std::_Tree<std::_Tmap_traits<std::basic_string<char,std::char_traits<char>,std::allocator<char> >,CObject3D *,std::less<std::basic_string<char,std::char_traits<char>,std::allocator<char> > >,std::allocator<std::pair<std::basic_string<char,std::char_traits<char>,std::allocator<char> > const ,CObject3D *> >,0> >::iterator,unsigned int>
_TEXT	ENDS
PUBLIC	??1?$basic_string@DU?$char_traits@D@std@@V?$allocator@D@2@@std@@QAE@XZ ; std::basic_string<char,std::char_traits<char>,std::allocator<char> >::~basic_string<char,std::char_traits<char>,std::allocator<char> >
; Function compile flags: /Ogty
; File c:\program files\microsoft visual studio .net 2003\vc7\include\xstring
;	COMDAT ??1?$basic_string@DU?$char_traits@D@std@@V?$allocator@D@2@@std@@QAE@XZ
_TEXT	SEGMENT
??1?$basic_string@DU?$char_traits@D@std@@V?$allocator@D@2@@std@@QAE@XZ PROC NEAR ; std::basic_string<char,std::char_traits<char>,std::allocator<char> >::~basic_string<char,std::char_traits<char>,std::allocator<char> >, COMDAT
; _this$ = ecx

; 456  : 		{	// destroy the string

  00000	56		 push	 esi
  00001	8b f1		 mov	 esi, ecx

; 457  : 		_Tidy(true);

  00003	83 7e 18 10	 cmp	 DWORD PTR [esi+24], 16	; 00000010H
  00007	72 0c		 jb	 SHORT $L231681
  00009	8b 46 04	 mov	 eax, DWORD PTR [esi+4]
  0000c	50		 push	 eax
  0000d	e8 00 00 00 00	 call	 ??3@YAXPAX@Z		; operator delete
  00012	83 c4 04	 add	 esp, 4
$L231681:
  00015	33 c0		 xor	 eax, eax
  00017	c7 46 18 0f 00
	00 00		 mov	 DWORD PTR [esi+24], 15	; 0000000fH
  0001e	89 46 14	 mov	 DWORD PTR [esi+20], eax
  00021	88 46 04	 mov	 BYTE PTR [esi+4], al
  00024	5e		 pop	 esi

; 458  : 		}

  00025	c3		 ret	 0
??1?$basic_string@DU?$char_traits@D@std@@V?$allocator@D@2@@std@@QAE@XZ ENDP ; std::basic_string<char,std::char_traits<char>,std::allocator<char> >::~basic_string<char,std::char_traits<char>,std::allocator<char> >
_TEXT	ENDS
PUBLIC	??R?$less@V?$basic_string@DU?$char_traits@D@std@@V?$allocator@D@2@@std@@@std@@QBE_NABV?$basic_string@DU?$char_traits@D@std@@V?$allocator@D@2@@1@0@Z ; std::less<std::basic_string<char,std::char_traits<char>,std::allocator<char> > >::operator()
; Function compile flags: /Ogty
; File c:\program files\microsoft visual studio .net 2003\vc7\include\functional
;	COMDAT ??R?$less@V?$basic_string@DU?$char_traits@D@std@@V?$allocator@D@2@@std@@@std@@QBE_NABV?$basic_string@DU?$char_traits@D@std@@V?$allocator@D@2@@1@0@Z
_TEXT	SEGMENT
__Left$ = 8						; size = 4
__Right$ = 12						; size = 4
??R?$less@V?$basic_string@DU?$char_traits@D@std@@V?$allocator@D@2@@std@@@std@@QBE_NABV?$basic_string@DU?$char_traits@D@std@@V?$allocator@D@2@@1@0@Z PROC NEAR ; std::less<std::basic_string<char,std::char_traits<char>,std::allocator<char> > >::operator(), COMDAT
; _this$ = ecx

; 139  : 		return (_Left < _Right);

  00000	8b 44 24 08	 mov	 eax, DWORD PTR __Right$[esp-4]
  00004	83 78 18 10	 cmp	 DWORD PTR [eax+24], 16	; 00000010H
  00008	8b 48 14	 mov	 ecx, DWORD PTR [eax+20]
  0000b	72 05		 jb	 SHORT $L231727
  0000d	8b 40 04	 mov	 eax, DWORD PTR [eax+4]
  00010	eb 03		 jmp	 SHORT $L231728
$L231727:
  00012	83 c0 04	 add	 eax, 4
$L231728:
  00015	51		 push	 ecx
  00016	8b 4c 24 08	 mov	 ecx, DWORD PTR __Left$[esp]
  0001a	50		 push	 eax
  0001b	8b 41 14	 mov	 eax, DWORD PTR [ecx+20]
  0001e	50		 push	 eax
  0001f	6a 00		 push	 0
  00021	e8 00 00 00 00	 call	 ?compare@?$basic_string@DU?$char_traits@D@std@@V?$allocator@D@2@@std@@QBEHIIPBDI@Z ; std::basic_string<char,std::char_traits<char>,std::allocator<char> >::compare
  00026	33 c9		 xor	 ecx, ecx
  00028	85 c0		 test	 eax, eax
  0002a	0f 9c c1	 setl	 cl
  0002d	8a c1		 mov	 al, cl

; 140  : 		}

  0002f	c2 08 00	 ret	 8
??R?$less@V?$basic_string@DU?$char_traits@D@std@@V?$allocator@D@2@@std@@@std@@QBE_NABV?$basic_string@DU?$char_traits@D@std@@V?$allocator@D@2@@1@0@Z ENDP ; std::less<std::basic_string<char,std::char_traits<char>,std::allocator<char> > >::operator()
_TEXT	ENDS
PUBLIC	?_Grow@?$basic_string@DU?$char_traits@D@std@@V?$allocator@D@2@@std@@IAE_NI_N@Z ; std::basic_string<char,std::char_traits<char>,std::allocator<char> >::_Grow
EXTRN	?_Xlen@_String_base@std@@QBEXXZ:NEAR		; std::_String_base::_Xlen
; Function compile flags: /Ogty
; File c:\program files\microsoft visual studio .net 2003\vc7\include\xstring
;	COMDAT ?_Grow@?$basic_string@DU?$char_traits@D@std@@V?$allocator@D@2@@std@@IAE_NI_N@Z
_TEXT	SEGMENT
__Newsize$ = 8						; size = 4
__Trim$ = 12						; size = 1
?_Grow@?$basic_string@DU?$char_traits@D@std@@V?$allocator@D@2@@std@@IAE_NI_N@Z PROC NEAR ; std::basic_string<char,std::char_traits<char>,std::allocator<char> >::_Grow, COMDAT
; _this$ = ecx

; 1480 : 		{	// ensure buffer is big enough, trim to size if _Trim is true

  00000	55		 push	 ebp
  00001	56		 push	 esi

; 1481 : 		if (max_size() < _Newsize)

  00002	8b 74 24 0c	 mov	 esi, DWORD PTR __Newsize$[esp+4]
  00006	83 fe fe	 cmp	 esi, -2			; fffffffeH
  00009	8b e9		 mov	 ebp, ecx
  0000b	76 05		 jbe	 SHORT $L221380

; 1482 : 			_String_base::_Xlen();	// result too long

  0000d	e8 00 00 00 00	 call	 ?_Xlen@_String_base@std@@QBEXXZ ; std::_String_base::_Xlen
$L221380:

; 1483 : 		if (_Myres < _Newsize)

  00012	8b 45 18	 mov	 eax, DWORD PTR [ebp+24]
  00015	3b c6		 cmp	 eax, esi
  00017	73 19		 jae	 SHORT $L221381

; 1484 : 			_Copy(_Newsize, _Mysize);	// reallocate to grow

  00019	8b 45 14	 mov	 eax, DWORD PTR [ebp+20]
  0001c	50		 push	 eax
  0001d	56		 push	 esi
  0001e	8b cd		 mov	 ecx, ebp
  00020	e8 00 00 00 00	 call	 ?_Copy@?$basic_string@DU?$char_traits@D@std@@V?$allocator@D@2@@std@@IAEXII@Z ; std::basic_string<char,std::char_traits<char>,std::allocator<char> >::_Copy

; 1490 : 		return (0 < _Newsize);	// return true only if more work to do

  00025	33 c0		 xor	 eax, eax
  00027	3b c6		 cmp	 eax, esi
  00029	1b c0		 sbb	 eax, eax
  0002b	5e		 pop	 esi
  0002c	f7 d8		 neg	 eax
  0002e	5d		 pop	 ebp

; 1491 : 		}

  0002f	c2 08 00	 ret	 8
$L221381:

; 1485 : 		else if (_Trim && _Newsize < _BUF_SIZE)

  00032	8a 4c 24 10	 mov	 cl, BYTE PTR __Trim$[esp+4]
  00036	84 c9		 test	 cl, cl
  00038	74 5c		 je	 SHORT $L221383
  0003a	83 fe 10	 cmp	 esi, 16			; 00000010H
  0003d	73 57		 jae	 SHORT $L221383
  0003f	53		 push	 ebx

; 1486 : 			_Tidy(true,	// copy and deallocate if trimming to small string
; 1487 : 				_Newsize < _Mysize ? _Newsize : _Mysize);

  00040	8b 5d 14	 mov	 ebx, DWORD PTR [ebp+20]
  00043	3b f3		 cmp	 esi, ebx
  00045	73 02		 jae	 SHORT $L231736
  00047	8b de		 mov	 ebx, esi
$L231736:
  00049	83 f8 10	 cmp	 eax, 16			; 00000010H
  0004c	72 2b		 jb	 SHORT $L231790
  0004e	85 db		 test	 ebx, ebx
  00050	8b 45 04	 mov	 eax, DWORD PTR [ebp+4]
  00053	57		 push	 edi
  00054	8d 7d 04	 lea	 edi, DWORD PTR [ebp+4]
  00057	76 16		 jbe	 SHORT $L231788
  00059	8b cb		 mov	 ecx, ebx
  0005b	8b d1		 mov	 edx, ecx
  0005d	c1 e9 02	 shr	 ecx, 2
  00060	8b f0		 mov	 esi, eax
  00062	f3 a5		 rep movsd
  00064	8b ca		 mov	 ecx, edx
  00066	83 e1 03	 and	 ecx, 3
  00069	f3 a4		 rep movsb
  0006b	8b 74 24 14	 mov	 esi, DWORD PTR __Newsize$[esp+12]
$L231788:
  0006f	50		 push	 eax
  00070	e8 00 00 00 00	 call	 ??3@YAXPAX@Z		; operator delete
  00075	83 c4 04	 add	 esp, 4
  00078	5f		 pop	 edi
$L231790:
  00079	89 5d 14	 mov	 DWORD PTR [ebp+20], ebx

; 1490 : 		return (0 < _Newsize);	// return true only if more work to do

  0007c	33 c0		 xor	 eax, eax
  0007e	c7 45 18 0f 00
	00 00		 mov	 DWORD PTR [ebp+24], 15	; 0000000fH
  00085	c6 44 2b 04 00	 mov	 BYTE PTR [ebx+ebp+4], 0
  0008a	3b c6		 cmp	 eax, esi
  0008c	5b		 pop	 ebx
  0008d	1b c0		 sbb	 eax, eax
  0008f	5e		 pop	 esi
  00090	f7 d8		 neg	 eax
  00092	5d		 pop	 ebp

; 1491 : 		}

  00093	c2 08 00	 ret	 8
$L221383:

; 1488 : 		else if (_Newsize == 0)

  00096	85 f6		 test	 esi, esi
  00098	75 23		 jne	 SHORT $L231827

; 1489 : 			_Eos(0);	// new size is zero, just null terminate

  0009a	83 f8 10	 cmp	 eax, 16			; 00000010H
  0009d	89 75 14	 mov	 DWORD PTR [ebp+20], esi
  000a0	72 14		 jb	 SHORT $L231825
  000a2	8b 6d 04	 mov	 ebp, DWORD PTR [ebp+4]

; 1490 : 		return (0 < _Newsize);	// return true only if more work to do

  000a5	33 c0		 xor	 eax, eax
  000a7	3b c6		 cmp	 eax, esi
  000a9	1b c0		 sbb	 eax, eax
  000ab	5e		 pop	 esi
  000ac	c6 45 00 00	 mov	 BYTE PTR [ebp], 0
  000b0	f7 d8		 neg	 eax
  000b2	5d		 pop	 ebp

; 1491 : 		}

  000b3	c2 08 00	 ret	 8

; 1489 : 			_Eos(0);	// new size is zero, just null terminate

$L231825:
  000b6	83 c5 04	 add	 ebp, 4
  000b9	c6 45 00 00	 mov	 BYTE PTR [ebp], 0
$L231827:

; 1490 : 		return (0 < _Newsize);	// return true only if more work to do

  000bd	33 c0		 xor	 eax, eax
  000bf	3b c6		 cmp	 eax, esi
  000c1	1b c0		 sbb	 eax, eax
  000c3	5e		 pop	 esi
  000c4	f7 d8		 neg	 eax
  000c6	5d		 pop	 ebp

; 1491 : 		}

  000c7	c2 08 00	 ret	 8
?_Grow@?$basic_string@DU?$char_traits@D@std@@V?$allocator@D@2@@std@@IAE_NI_N@Z ENDP ; std::basic_string<char,std::char_traits<char>,std::allocator<char> >::_Grow
_TEXT	ENDS
PUBLIC	?DeleteDeviceObjects@CObject3DMng@@QAEJXZ	; CObject3DMng::DeleteDeviceObjects
; Function compile flags: /Ogty
; File c:\documents and settings\test\mes documents\source\virtuos_v17\build\program\_common\object3d.cpp
;	COMDAT ?DeleteDeviceObjects@CObject3DMng@@QAEJXZ
_TEXT	SEGMENT
_i$225804 = -4						; size = 4
?DeleteDeviceObjects@CObject3DMng@@QAEJXZ PROC NEAR	; CObject3DMng::DeleteDeviceObjects, COMDAT
; _this$ = ecx

; 292  : {

  00000	51		 push	 ecx
  00001	56		 push	 esi
  00002	8b f1		 mov	 esi, ecx

; 293  : #ifdef __JEFF_11_5
; 294  : 	for( map<string, CObject3D*>::iterator i = m_mapObject3D.begin(); i != m_mapObject3D.end(); ++i )

  00004	8b 4e 04	 mov	 ecx, DWORD PTR [esi+4]
  00007	8b 01		 mov	 eax, DWORD PTR [ecx]
  00009	3b c1		 cmp	 eax, ecx
  0000b	89 44 24 04	 mov	 DWORD PTR _i$225804[esp+8], eax
  0000f	74 1a		 je	 SHORT $L231920
$L231870:

; 295  : 		i->second->DeleteDeviceObjects();

  00011	8b 48 28	 mov	 ecx, DWORD PTR [eax+40]
  00014	e8 00 00 00 00	 call	 ?DeleteDeviceObjects@CObject3D@@QAEJXZ ; CObject3D::DeleteDeviceObjects
  00019	8d 4c 24 04	 lea	 ecx, DWORD PTR _i$225804[esp+8]
  0001d	e8 00 00 00 00	 call	 ?_Inc@const_iterator@?$_Tree@V?$_Tmap_traits@V?$basic_string@DU?$char_traits@D@std@@V?$allocator@D@2@@std@@PAVCObject3D@@U?$less@V?$basic_string@DU?$char_traits@D@std@@V?$allocator@D@2@@std@@@2@V?$allocator@U?$pair@$$CBV?$basic_string@DU?$char_traits@D@std@@V?$allocator@D@2@@std@@PAVCObject3D@@@std@@@2@$0A@@std@@@std@@QAEXXZ ; std::_Tree<std::_Tmap_traits<std::basic_string<char,std::char_traits<char>,std::allocator<char> >,CObject3D *,std::less<std::basic_string<char,std::char_traits<char>,std::allocator<char> > >,std::allocator<std::pair<std::basic_string<char,std::char_traits<char>,std::allocator<char> > const ,CObject3D *> >,0> >::const_iterator::_Inc
  00022	8b 44 24 04	 mov	 eax, DWORD PTR _i$225804[esp+8]
  00026	3b 46 04	 cmp	 eax, DWORD PTR [esi+4]
  00029	75 e6		 jne	 SHORT $L231870
$L231920:

; 296  : #else	// __JEFF_11_5
; 297  : 	int		i;
; 298  : 	CObject3D		**pAry = m_pObject3DAry;
; 299  : 	CObject3D		*pObject3D;
; 300  : 	
; 301  : 	for( i = 0; i < MAX_OBJECT3D; i ++ )
; 302  : 	{
; 303  : 		pObject3D = *pAry++;
; 304  : 		if( pObject3D )
; 305  : 		{
; 306  : 			pObject3D->DeleteDeviceObjects();
; 307  : 		}
; 308  : 	}
; 309  : #endif	// __JEFF_11_5
; 310  : 	return S_OK;

  0002b	33 c0		 xor	 eax, eax
  0002d	5e		 pop	 esi

; 311  : }

  0002e	59		 pop	 ecx
  0002f	c3		 ret	 0
?DeleteDeviceObjects@CObject3DMng@@QAEJXZ ENDP		; CObject3DMng::DeleteDeviceObjects
_TEXT	ENDS
PUBLIC	??1?$pair@$$CBV?$basic_string@DU?$char_traits@D@std@@V?$allocator@D@2@@std@@PAVCObject3D@@@std@@QAE@XZ ; std::pair<std::basic_string<char,std::char_traits<char>,std::allocator<char> > const ,CObject3D *>::~pair<std::basic_string<char,std::char_traits<char>,std::allocator<char> > const ,CObject3D *>
; Function compile flags: /Ogty
;	COMDAT ??1?$pair@$$CBV?$basic_string@DU?$char_traits@D@std@@V?$allocator@D@2@@std@@PAVCObject3D@@@std@@QAE@XZ
_TEXT	SEGMENT
??1?$pair@$$CBV?$basic_string@DU?$char_traits@D@std@@V?$allocator@D@2@@std@@PAVCObject3D@@@std@@QAE@XZ PROC NEAR ; std::pair<std::basic_string<char,std::char_traits<char>,std::allocator<char> > const ,CObject3D *>::~pair<std::basic_string<char,std::char_traits<char>,std::allocator<char> > const ,CObject3D *>, COMDAT
; _this$ = ecx
  00000	56		 push	 esi
  00001	8b f1		 mov	 esi, ecx
  00003	83 7e 18 10	 cmp	 DWORD PTR [esi+24], 16	; 00000010H
  00007	72 0c		 jb	 SHORT $L231981
  00009	8b 46 04	 mov	 eax, DWORD PTR [esi+4]
  0000c	50		 push	 eax
  0000d	e8 00 00 00 00	 call	 ??3@YAXPAX@Z		; operator delete
  00012	83 c4 04	 add	 esp, 4
$L231981:
  00015	33 c0		 xor	 eax, eax
  00017	c7 46 18 0f 00
	00 00		 mov	 DWORD PTR [esi+24], 15	; 0000000fH
  0001e	89 46 14	 mov	 DWORD PTR [esi+20], eax
  00021	88 46 04	 mov	 BYTE PTR [esi+4], al
  00024	5e		 pop	 esi
  00025	c3		 ret	 0
??1?$pair@$$CBV?$basic_string@DU?$char_traits@D@std@@V?$allocator@D@2@@std@@PAVCObject3D@@@std@@QAE@XZ ENDP ; std::pair<std::basic_string<char,std::char_traits<char>,std::allocator<char> > const ,CObject3D *>::~pair<std::basic_string<char,std::char_traits<char>,std::allocator<char> > const ,CObject3D *>
_TEXT	ENDS
PUBLIC	??0?$_Tree@V?$_Tmap_traits@V?$basic_string@DU?$char_traits@D@std@@V?$allocator@D@2@@std@@PAVCObject3D@@U?$less@V?$basic_string@DU?$char_traits@D@std@@V?$allocator@D@2@@std@@@2@V?$allocator@U?$pair@$$CBV?$basic_string@DU?$char_traits@D@std@@V?$allocator@D@2@@std@@PAVCObject3D@@@std@@@2@$0A@@std@@@std@@QAE@ABU?$less@V?$basic_string@DU?$char_traits@D@std@@V?$allocator@D@2@@std@@@1@ABV?$allocator@U?$pair@$$CBV?$basic_string@DU?$char_traits@D@std@@V?$allocator@D@2@@std@@PAVCObject3D@@@std@@@1@@Z ; std::_Tree<std::_Tmap_traits<std::basic_string<char,std::char_traits<char>,std::allocator<char> >,CObject3D *,std::less<std::basic_string<char,std::char_traits<char>,std::allocator<char> > >,std::allocator<std::pair<std::basic_string<char,std::char_traits<char>,std::allocator<char> > const ,CObject3D *> >,0> >::_Tree<std::_Tmap_traits<std::basic_string<char,std::char_traits<char>,std::allocator<char> >,CObject3D *,std::less<std::basic_string<char,std::char_traits<char>,std::allocator<char> > >,std::allocator<std::pair<std::basic_string<char,std::char_traits<char>,std::allocator<char> > const ,CObject3D *> >,0> >
; Function compile flags: /Ogty
; File c:\program files\microsoft visual studio .net 2003\vc7\include\xtree
;	COMDAT ??0?$_Tree@V?$_Tmap_traits@V?$basic_string@DU?$char_traits@D@std@@V?$allocator@D@2@@std@@PAVCObject3D@@U?$less@V?$basic_string@DU?$char_traits@D@std@@V?$allocator@D@2@@std@@@2@V?$allocator@U?$pair@$$CBV?$basic_string@DU?$char_traits@D@std@@V?$allocator@D@2@@std@@PAVCObject3D@@@std@@@2@$0A@@std@@@std@@QAE@ABU?$less@V?$basic_string@DU?$char_traits@D@std@@V?$allocator@D@2@@std@@@1@ABV?$allocator@U?$pair@$$CBV?$basic_string@DU?$char_traits@D@std@@V?$allocator@D@2@@std@@PAVCObject3D@@@std@@@1@@Z
_TEXT	SEGMENT
__Parg$ = 8						; size = 4
__Al$ = 12						; size = 4
??0?$_Tree@V?$_Tmap_traits@V?$basic_string@DU?$char_traits@D@std@@V?$allocator@D@2@@std@@PAVCObject3D@@U?$less@V?$basic_string@DU?$char_traits@D@std@@V?$allocator@D@2@@std@@@2@V?$allocator@U?$pair@$$CBV?$basic_string@DU?$char_traits@D@std@@V?$allocator@D@2@@std@@PAVCObject3D@@@std@@@2@$0A@@std@@@std@@QAE@ABU?$less@V?$basic_string@DU?$char_traits@D@std@@V?$allocator@D@2@@std@@@1@ABV?$allocator@U?$pair@$$CBV?$basic_string@DU?$char_traits@D@std@@V?$allocator@D@2@@std@@PAVCObject3D@@@std@@@1@@Z PROC NEAR ; std::_Tree<std::_Tmap_traits<std::basic_string<char,std::char_traits<char>,std::allocator<char> >,CObject3D *,std::less<std::basic_string<char,std::char_traits<char>,std::allocator<char> > >,std::allocator<std::pair<std::basic_string<char,std::char_traits<char>,std::allocator<char> > const ,CObject3D *> >,0> >::_Tree<std::_Tmap_traits<std::basic_string<char,std::char_traits<char>,std::allocator<char> >,CObject3D *,std::less<std::basic_string<char,std::char_traits<char>,std::allocator<char> > >,std::allocator<std::pair<std::basic_string<char,std::char_traits<char>,std::allocator<char> > const ,CObject3D *> >,0> >, COMDAT
; _this$ = ecx

; 361  : 		{	// construct empty tree

  00000	56		 push	 esi
  00001	8b f1		 mov	 esi, ecx

; 362  : 		_Init();

  00003	e8 00 00 00 00	 call	 ?_Buynode@?$_Tree@V?$_Tmap_traits@V?$basic_string@DU?$char_traits@D@std@@V?$allocator@D@2@@std@@PAVCObject3D@@U?$less@V?$basic_string@DU?$char_traits@D@std@@V?$allocator@D@2@@std@@@2@V?$allocator@U?$pair@$$CBV?$basic_string@DU?$char_traits@D@std@@V?$allocator@D@2@@std@@PAVCObject3D@@@std@@@2@$0A@@std@@@std@@IAEPAU_Node@?$_Tree_nod@V?$_Tmap_traits@V?$basic_string@DU?$char_traits@D@std@@V?$allocator@D@2@@std@@PAVCObject3D@@U?$less@V?$basic_string@DU?$char_traits@D@std@@V?$allocator@D@2@@std@@@2@V?$allocator@U?$pair@$$CBV?$basic_string@DU?$char_traits@D@std@@V?$allocator@D@2@@std@@PAVCObject3D@@@std@@@2@$0A@@std@@@2@XZ ; std::_Tree<std::_Tmap_traits<std::basic_string<char,std::char_traits<char>,std::allocator<char> >,CObject3D *,std::less<std::basic_string<char,std::char_traits<char>,std::allocator<char> > >,std::allocator<std::pair<std::basic_string<char,std::char_traits<char>,std::allocator<char> > const ,CObject3D *> >,0> >::_Buynode
  00008	89 46 04	 mov	 DWORD PTR [esi+4], eax
  0000b	c6 40 2d 01	 mov	 BYTE PTR [eax+45], 1
  0000f	8b 46 04	 mov	 eax, DWORD PTR [esi+4]
  00012	89 40 04	 mov	 DWORD PTR [eax+4], eax
  00015	8b 46 04	 mov	 eax, DWORD PTR [esi+4]
  00018	89 00		 mov	 DWORD PTR [eax], eax
  0001a	8b 46 04	 mov	 eax, DWORD PTR [esi+4]
  0001d	89 40 08	 mov	 DWORD PTR [eax+8], eax
  00020	c7 46 08 00 00
	00 00		 mov	 DWORD PTR [esi+8], 0

; 363  : 		}

  00027	8b c6		 mov	 eax, esi
  00029	5e		 pop	 esi
  0002a	c2 08 00	 ret	 8
??0?$_Tree@V?$_Tmap_traits@V?$basic_string@DU?$char_traits@D@std@@V?$allocator@D@2@@std@@PAVCObject3D@@U?$less@V?$basic_string@DU?$char_traits@D@std@@V?$allocator@D@2@@std@@@2@V?$allocator@U?$pair@$$CBV?$basic_string@DU?$char_traits@D@std@@V?$allocator@D@2@@std@@PAVCObject3D@@@std@@@2@$0A@@std@@@std@@QAE@ABU?$less@V?$basic_string@DU?$char_traits@D@std@@V?$allocator@D@2@@std@@@1@ABV?$allocator@U?$pair@$$CBV?$basic_string@DU?$char_traits@D@std@@V?$allocator@D@2@@std@@PAVCObject3D@@@std@@@1@@Z ENDP ; std::_Tree<std::_Tmap_traits<std::basic_string<char,std::char_traits<char>,std::allocator<char> >,CObject3D *,std::less<std::basic_string<char,std::char_traits<char>,std::allocator<char> > >,std::allocator<std::pair<std::basic_string<char,std::char_traits<char>,std::allocator<char> > const ,CObject3D *> >,0> >::_Tree<std::_Tmap_traits<std::basic_string<char,std::char_traits<char>,std::allocator<char> >,CObject3D *,std::less<std::basic_string<char,std::char_traits<char>,std::allocator<char> > >,std::allocator<std::pair<std::basic_string<char,std::char_traits<char>,std::allocator<char> > const ,CObject3D *> >,0> >
_TEXT	ENDS
PUBLIC	?_Lbound@?$_Tree@V?$_Tmap_traits@V?$basic_string@DU?$char_traits@D@std@@V?$allocator@D@2@@std@@PAVCObject3D@@U?$less@V?$basic_string@DU?$char_traits@D@std@@V?$allocator@D@2@@std@@@2@V?$allocator@U?$pair@$$CBV?$basic_string@DU?$char_traits@D@std@@V?$allocator@D@2@@std@@PAVCObject3D@@@std@@@2@$0A@@std@@@std@@IBEPAU_Node@?$_Tree_nod@V?$_Tmap_traits@V?$basic_string@DU?$char_traits@D@std@@V?$allocator@D@2@@std@@PAVCObject3D@@U?$less@V?$basic_string@DU?$char_traits@D@std@@V?$allocator@D@2@@std@@@2@V?$allocator@U?$pair@$$CBV?$basic_string@DU?$char_traits@D@std@@V?$allocator@D@2@@std@@PAVCObject3D@@@std@@@2@$0A@@std@@@2@ABV?$basic_string@DU?$char_traits@D@std@@V?$allocator@D@2@@2@@Z ; std::_Tree<std::_Tmap_traits<std::basic_string<char,std::char_traits<char>,std::allocator<char> >,CObject3D *,std::less<std::basic_string<char,std::char_traits<char>,std::allocator<char> > >,std::allocator<std::pair<std::basic_string<char,std::char_traits<char>,std::allocator<char> > const ,CObject3D *> >,0> >::_Lbound
; Function compile flags: /Ogty
;	COMDAT ?_Lbound@?$_Tree@V?$_Tmap_traits@V?$basic_string@DU?$char_traits@D@std@@V?$allocator@D@2@@std@@PAVCObject3D@@U?$less@V?$basic_string@DU?$char_traits@D@std@@V?$allocator@D@2@@std@@@2@V?$allocator@U?$pair@$$CBV?$basic_string@DU?$char_traits@D@std@@V?$allocator@D@2@@std@@PAVCObject3D@@@std@@@2@$0A@@std@@@std@@IBEPAU_Node@?$_Tree_nod@V?$_Tmap_traits@V?$basic_string@DU?$char_traits@D@std@@V?$allocator@D@2@@std@@PAVCObject3D@@U?$less@V?$basic_string@DU?$char_traits@D@std@@V?$allocator@D@2@@std@@@2@V?$allocator@U?$pair@$$CBV?$basic_string@DU?$char_traits@D@std@@V?$allocator@D@2@@std@@PAVCObject3D@@@std@@@2@$0A@@std@@@2@ABV?$basic_string@DU?$char_traits@D@std@@V?$allocator@D@2@@2@@Z
_TEXT	SEGMENT
__Wherenode$ = -8					; size = 4
tv208 = -4						; size = 4
tv210 = 8						; size = 4
__Keyval$ = 8						; size = 4
?_Lbound@?$_Tree@V?$_Tmap_traits@V?$basic_string@DU?$char_traits@D@std@@V?$allocator@D@2@@std@@PAVCObject3D@@U?$less@V?$basic_string@DU?$char_traits@D@std@@V?$allocator@D@2@@std@@@2@V?$allocator@U?$pair@$$CBV?$basic_string@DU?$char_traits@D@std@@V?$allocator@D@2@@std@@PAVCObject3D@@@std@@@2@$0A@@std@@@std@@IBEPAU_Node@?$_Tree_nod@V?$_Tmap_traits@V?$basic_string@DU?$char_traits@D@std@@V?$allocator@D@2@@std@@PAVCObject3D@@U?$less@V?$basic_string@DU?$char_traits@D@std@@V?$allocator@D@2@@std@@@2@V?$allocator@U?$pair@$$CBV?$basic_string@DU?$char_traits@D@std@@V?$allocator@D@2@@std@@PAVCObject3D@@@std@@@2@$0A@@std@@@2@ABV?$basic_string@DU?$char_traits@D@std@@V?$allocator@D@2@@2@@Z PROC NEAR ; std::_Tree<std::_Tmap_traits<std::basic_string<char,std::char_traits<char>,std::allocator<char> >,CObject3D *,std::less<std::basic_string<char,std::char_traits<char>,std::allocator<char> > >,std::allocator<std::pair<std::basic_string<char,std::char_traits<char>,std::allocator<char> > const ,CObject3D *> >,0> >::_Lbound, COMDAT
; _this$ = ecx

; 987  : 		{	// find leftmost node not less than _Keyval

  00000	83 ec 08	 sub	 esp, 8

; 988  : 		_Nodeptr _Pnode = _Root();

  00003	8b 41 04	 mov	 eax, DWORD PTR [ecx+4]
  00006	55		 push	 ebp
  00007	8b 68 04	 mov	 ebp, DWORD PTR [eax+4]

; 990  : 
; 991  : 		while (!_Isnil(_Pnode))

  0000a	8a 4d 2d	 mov	 cl, BYTE PTR [ebp+45]
  0000d	84 c9		 test	 cl, cl
  0000f	89 44 24 04	 mov	 DWORD PTR __Wherenode$[esp+12], eax
  00013	0f 85 94 00 00
	00		 jne	 $L227244

; 992  : 			if (this->comp(_Key(_Pnode), _Keyval))

  00019	8b 4c 24 10	 mov	 ecx, DWORD PTR __Keyval$[esp+8]
  0001d	8b 51 18	 mov	 edx, DWORD PTR [ecx+24]
  00020	8b 41 14	 mov	 eax, DWORD PTR [ecx+20]
  00023	53		 push	 ebx
  00024	56		 push	 esi
  00025	83 c1 04	 add	 ecx, 4
  00028	57		 push	 edi
  00029	89 54 24 14	 mov	 DWORD PTR tv208[esp+24], edx
  0002d	89 4c 24 1c	 mov	 DWORD PTR tv210[esp+20], ecx
  00031	eb 0d		 jmp	 SHORT $L227243
$L232300:

; 989  : 		_Nodeptr _Wherenode = _Myhead;	// end() if search fails

  00033	8b 4c 24 1c	 mov	 ecx, DWORD PTR tv210[esp+20]
  00037	eb 07 8d a4 24
	00 00 00 00	 npad	 9
$L227243:

; 992  : 			if (this->comp(_Key(_Pnode), _Keyval))

  00040	8b 74 24 14	 mov	 esi, DWORD PTR tv208[esp+24]
  00044	ba 10 00 00 00	 mov	 edx, 16			; 00000010H
  00049	3b f2		 cmp	 esi, edx
  0004b	72 04		 jb	 SHORT $L232266
  0004d	8b 39		 mov	 edi, DWORD PTR [ecx]
  0004f	eb 02		 jmp	 SHORT $L232267
$L232266:
  00051	8b f9		 mov	 edi, ecx
$L232267:
  00053	8b 5d 20	 mov	 ebx, DWORD PTR [ebp+32]
  00056	8b cb		 mov	 ecx, ebx
  00058	3b cb		 cmp	 ecx, ebx
  0005a	73 00		 jae	 SHORT $L232271
$L232271:
  0005c	85 db		 test	 ebx, ebx
  0005e	74 24		 je	 SHORT $L232299
  00060	3b d8		 cmp	 ebx, eax
  00062	8b cb		 mov	 ecx, ebx
  00064	72 02		 jb	 SHORT $L232275
  00066	8b c8		 mov	 ecx, eax
$L232275:
  00068	39 55 24	 cmp	 DWORD PTR [ebp+36], edx
  0006b	72 05		 jb	 SHORT $L232283
  0006d	8b 75 10	 mov	 esi, DWORD PTR [ebp+16]
  00070	eb 03		 jmp	 SHORT $L232284
$L232283:
  00072	8d 75 10	 lea	 esi, DWORD PTR [ebp+16]
$L232284:
  00075	33 d2		 xor	 edx, edx
  00077	f3 a6		 repe cmpsb
  00079	74 05		 je	 SHORT $L232297
  0007b	1b d2		 sbb	 edx, edx
  0007d	83 da ff	 sbb	 edx, -1
$L232297:
  00080	85 d2		 test	 edx, edx
  00082	75 0d		 jne	 SHORT $L232301
$L232299:
  00084	3b d8		 cmp	 ebx, eax
  00086	72 0b		 jb	 SHORT $L232296
  00088	33 d2		 xor	 edx, edx
  0008a	3b d8		 cmp	 ebx, eax
  0008c	0f 95 c2	 setne	 dl
  0008f	85 d2		 test	 edx, edx
$L232301:
  00091	7d 05		 jge	 SHORT $L227245
$L232296:

; 993  : 				_Pnode = _Right(_Pnode);	// descend right subtree

  00093	8b 6d 08	 mov	 ebp, DWORD PTR [ebp+8]

; 994  : 			else

  00096	eb 07		 jmp	 SHORT $L227246
$L227245:

; 995  : 				{	// _Pnode not less than _Keyval, remember it
; 996  : 				_Wherenode = _Pnode;

  00098	89 6c 24 10	 mov	 DWORD PTR __Wherenode$[esp+24], ebp

; 997  : 				_Pnode = _Left(_Pnode);	// descend left subtree

  0009c	8b 6d 00	 mov	 ebp, DWORD PTR [ebp]
$L227246:
  0009f	8a 4d 2d	 mov	 cl, BYTE PTR [ebp+45]
  000a2	84 c9		 test	 cl, cl
  000a4	74 8d		 je	 SHORT $L232300

; 998  : 				}
; 999  : 
; 1000 : 		return (_Wherenode);	// return best remembered candidate

  000a6	8b 44 24 10	 mov	 eax, DWORD PTR __Wherenode$[esp+24]
  000aa	5f		 pop	 edi
  000ab	5e		 pop	 esi
  000ac	5b		 pop	 ebx
$L227244:
  000ad	5d		 pop	 ebp

; 1001 : 		}

  000ae	83 c4 08	 add	 esp, 8
  000b1	c2 04 00	 ret	 4
?_Lbound@?$_Tree@V?$_Tmap_traits@V?$basic_string@DU?$char_traits@D@std@@V?$allocator@D@2@@std@@PAVCObject3D@@U?$less@V?$basic_string@DU?$char_traits@D@std@@V?$allocator@D@2@@std@@@2@V?$allocator@U?$pair@$$CBV?$basic_string@DU?$char_traits@D@std@@V?$allocator@D@2@@std@@PAVCObject3D@@@std@@@2@$0A@@std@@@std@@IBEPAU_Node@?$_Tree_nod@V?$_Tmap_traits@V?$basic_string@DU?$char_traits@D@std@@V?$allocator@D@2@@std@@PAVCObject3D@@U?$less@V?$basic_string@DU?$char_traits@D@std@@V?$allocator@D@2@@std@@@2@V?$allocator@U?$pair@$$CBV?$basic_string@DU?$char_traits@D@std@@V?$allocator@D@2@@std@@PAVCObject3D@@@std@@@2@$0A@@std@@@2@ABV?$basic_string@DU?$char_traits@D@std@@V?$allocator@D@2@@2@@Z ENDP ; std::_Tree<std::_Tmap_traits<std::basic_string<char,std::char_traits<char>,std::allocator<char> >,CObject3D *,std::less<std::basic_string<char,std::char_traits<char>,std::allocator<char> > >,std::allocator<std::pair<std::basic_string<char,std::char_traits<char>,std::allocator<char> > const ,CObject3D *> >,0> >::_Lbound
_TEXT	ENDS
PUBLIC	?_Ubound@?$_Tree@V?$_Tmap_traits@V?$basic_string@DU?$char_traits@D@std@@V?$allocator@D@2@@std@@PAVCObject3D@@U?$less@V?$basic_string@DU?$char_traits@D@std@@V?$allocator@D@2@@std@@@2@V?$allocator@U?$pair@$$CBV?$basic_string@DU?$char_traits@D@std@@V?$allocator@D@2@@std@@PAVCObject3D@@@std@@@2@$0A@@std@@@std@@IBEPAU_Node@?$_Tree_nod@V?$_Tmap_traits@V?$basic_string@DU?$char_traits@D@std@@V?$allocator@D@2@@std@@PAVCObject3D@@U?$less@V?$basic_string@DU?$char_traits@D@std@@V?$allocator@D@2@@std@@@2@V?$allocator@U?$pair@$$CBV?$basic_string@DU?$char_traits@D@std@@V?$allocator@D@2@@std@@PAVCObject3D@@@std@@@2@$0A@@std@@@2@ABV?$basic_string@DU?$char_traits@D@std@@V?$allocator@D@2@@2@@Z ; std::_Tree<std::_Tmap_traits<std::basic_string<char,std::char_traits<char>,std::allocator<char> >,CObject3D *,std::less<std::basic_string<char,std::char_traits<char>,std::allocator<char> > >,std::allocator<std::pair<std::basic_string<char,std::char_traits<char>,std::allocator<char> > const ,CObject3D *> >,0> >::_Ubound
; Function compile flags: /Ogty
;	COMDAT ?_Ubound@?$_Tree@V?$_Tmap_traits@V?$basic_string@DU?$char_traits@D@std@@V?$allocator@D@2@@std@@PAVCObject3D@@U?$less@V?$basic_string@DU?$char_traits@D@std@@V?$allocator@D@2@@std@@@2@V?$allocator@U?$pair@$$CBV?$basic_string@DU?$char_traits@D@std@@V?$allocator@D@2@@std@@PAVCObject3D@@@std@@@2@$0A@@std@@@std@@IBEPAU_Node@?$_Tree_nod@V?$_Tmap_traits@V?$basic_string@DU?$char_traits@D@std@@V?$allocator@D@2@@std@@PAVCObject3D@@U?$less@V?$basic_string@DU?$char_traits@D@std@@V?$allocator@D@2@@std@@@2@V?$allocator@U?$pair@$$CBV?$basic_string@DU?$char_traits@D@std@@V?$allocator@D@2@@std@@PAVCObject3D@@@std@@@2@$0A@@std@@@2@ABV?$basic_string@DU?$char_traits@D@std@@V?$allocator@D@2@@2@@Z
_TEXT	SEGMENT
__Wherenode$ = -12					; size = 4
tv278 = -8						; size = 4
tv215 = -4						; size = 4
__Keyval$ = 8						; size = 4
?_Ubound@?$_Tree@V?$_Tmap_traits@V?$basic_string@DU?$char_traits@D@std@@V?$allocator@D@2@@std@@PAVCObject3D@@U?$less@V?$basic_string@DU?$char_traits@D@std@@V?$allocator@D@2@@std@@@2@V?$allocator@U?$pair@$$CBV?$basic_string@DU?$char_traits@D@std@@V?$allocator@D@2@@std@@PAVCObject3D@@@std@@@2@$0A@@std@@@std@@IBEPAU_Node@?$_Tree_nod@V?$_Tmap_traits@V?$basic_string@DU?$char_traits@D@std@@V?$allocator@D@2@@std@@PAVCObject3D@@U?$less@V?$basic_string@DU?$char_traits@D@std@@V?$allocator@D@2@@std@@@2@V?$allocator@U?$pair@$$CBV?$basic_string@DU?$char_traits@D@std@@V?$allocator@D@2@@std@@PAVCObject3D@@@std@@@2@$0A@@std@@@2@ABV?$basic_string@DU?$char_traits@D@std@@V?$allocator@D@2@@2@@Z PROC NEAR ; std::_Tree<std::_Tmap_traits<std::basic_string<char,std::char_traits<char>,std::allocator<char> >,CObject3D *,std::less<std::basic_string<char,std::char_traits<char>,std::allocator<char> > >,std::allocator<std::pair<std::basic_string<char,std::char_traits<char>,std::allocator<char> > const ,CObject3D *> >,0> >::_Ubound, COMDAT
; _this$ = ecx

; 1088 : 		{	// find leftmost node greater than _Keyval

  00000	83 ec 0c	 sub	 esp, 12			; 0000000cH

; 1089 : 		_Nodeptr _Pnode = _Root();

  00003	8b 41 04	 mov	 eax, DWORD PTR [ecx+4]
  00006	55		 push	 ebp
  00007	8b 68 04	 mov	 ebp, DWORD PTR [eax+4]

; 1090 : 		_Nodeptr _Wherenode = _Myhead;	// end() if search fails
; 1091 : 
; 1092 : 		while (!_Isnil(_Pnode))

  0000a	8a 4d 2d	 mov	 cl, BYTE PTR [ebp+45]
  0000d	84 c9		 test	 cl, cl
  0000f	89 44 24 04	 mov	 DWORD PTR __Wherenode$[esp+16], eax
  00013	0f 85 90 00 00
	00		 jne	 $L227381
  00019	53		 push	 ebx
  0001a	56		 push	 esi
  0001b	8b 74 24 1c	 mov	 esi, DWORD PTR __Keyval$[esp+20]

; 1093 : 			if (this->comp(_Keyval, _Key(_Pnode)))

  0001f	8b 46 14	 mov	 eax, DWORD PTR [esi+20]
  00022	8b c8		 mov	 ecx, eax
  00024	57		 push	 edi
  00025	89 44 24 18	 mov	 DWORD PTR tv215[esp+28], eax
  00029	89 4c 24 14	 mov	 DWORD PTR tv278[esp+28], ecx
  0002d	eb 04		 jmp	 SHORT $L227380
$L232485:
  0002f	8b 4c 24 14	 mov	 ecx, DWORD PTR tv278[esp+28]
$L227380:
  00033	8b 7d 24	 mov	 edi, DWORD PTR [ebp+36]
  00036	8b 45 20	 mov	 eax, DWORD PTR [ebp+32]
  00039	ba 10 00 00 00	 mov	 edx, 16			; 00000010H
  0003e	3b fa		 cmp	 edi, edx
  00040	72 05		 jb	 SHORT $L232450
  00042	8b 7d 10	 mov	 edi, DWORD PTR [ebp+16]
  00045	eb 03		 jmp	 SHORT $L232451
$L232450:
  00047	8d 7d 10	 lea	 edi, DWORD PTR [ebp+16]
$L232451:
  0004a	8b 5c 24 18	 mov	 ebx, DWORD PTR tv215[esp+28]
  0004e	3b cb		 cmp	 ecx, ebx
  00050	73 02		 jae	 SHORT $L232455
  00052	8b d9		 mov	 ebx, ecx
$L232455:
  00054	85 db		 test	 ebx, ebx
  00056	74 28		 je	 SHORT $L232484
  00058	3b d8		 cmp	 ebx, eax
  0005a	8b cb		 mov	 ecx, ebx
  0005c	72 02		 jb	 SHORT $L232459
  0005e	8b c8		 mov	 ecx, eax
$L232459:
  00060	39 56 18	 cmp	 DWORD PTR [esi+24], edx
  00063	72 05		 jb	 SHORT $L232467
  00065	8b 76 04	 mov	 esi, DWORD PTR [esi+4]
  00068	eb 03		 jmp	 SHORT $L232468
$L232467:
  0006a	83 c6 04	 add	 esi, 4
$L232468:
  0006d	33 d2		 xor	 edx, edx
  0006f	f3 a6		 repe cmpsb
  00071	74 05		 je	 SHORT $L232481
  00073	1b d2		 sbb	 edx, edx
  00075	83 da ff	 sbb	 edx, -1
$L232481:
  00078	85 d2		 test	 edx, edx
  0007a	8b 74 24 20	 mov	 esi, DWORD PTR __Keyval$[esp+24]
  0007e	75 0d		 jne	 SHORT $L232486
$L232484:
  00080	3b d8		 cmp	 ebx, eax
  00082	72 0b		 jb	 SHORT $L232480
  00084	33 d2		 xor	 edx, edx
  00086	3b d8		 cmp	 ebx, eax
  00088	0f 95 c2	 setne	 dl
  0008b	85 d2		 test	 edx, edx
$L232486:
  0008d	7d 09		 jge	 SHORT $L227382
$L232480:

; 1094 : 				{	// _Pnode greater than _Keyval, remember it
; 1095 : 				_Wherenode = _Pnode;

  0008f	89 6c 24 10	 mov	 DWORD PTR __Wherenode$[esp+28], ebp

; 1096 : 				_Pnode = _Left(_Pnode);	// descend left subtree

  00093	8b 6d 00	 mov	 ebp, DWORD PTR [ebp]

; 1097 : 				}
; 1098 : 			else

  00096	eb 03		 jmp	 SHORT $L227383
$L227382:

; 1099 : 				_Pnode = _Right(_Pnode);	// descend right subtree

  00098	8b 6d 08	 mov	 ebp, DWORD PTR [ebp+8]
$L227383:

; 1090 : 		_Nodeptr _Wherenode = _Myhead;	// end() if search fails
; 1091 : 
; 1092 : 		while (!_Isnil(_Pnode))

  0009b	8a 45 2d	 mov	 al, BYTE PTR [ebp+45]
  0009e	84 c0		 test	 al, al
  000a0	74 8d		 je	 SHORT $L232485

; 1100 : 
; 1101 : 		return (_Wherenode);	// return best remembered candidate

  000a2	8b 44 24 10	 mov	 eax, DWORD PTR __Wherenode$[esp+28]
  000a6	5f		 pop	 edi
  000a7	5e		 pop	 esi
  000a8	5b		 pop	 ebx
$L227381:
  000a9	5d		 pop	 ebp

; 1102 : 		}

  000aa	83 c4 0c	 add	 esp, 12			; 0000000cH
  000ad	c2 04 00	 ret	 4
?_Ubound@?$_Tree@V?$_Tmap_traits@V?$basic_string@DU?$char_traits@D@std@@V?$allocator@D@2@@std@@PAVCObject3D@@U?$less@V?$basic_string@DU?$char_traits@D@std@@V?$allocator@D@2@@std@@@2@V?$allocator@U?$pair@$$CBV?$basic_string@DU?$char_traits@D@std@@V?$allocator@D@2@@std@@PAVCObject3D@@@std@@@2@$0A@@std@@@std@@IBEPAU_Node@?$_Tree_nod@V?$_Tmap_traits@V?$basic_string@DU?$char_traits@D@std@@V?$allocator@D@2@@std@@PAVCObject3D@@U?$less@V?$basic_string@DU?$char_traits@D@std@@V?$allocator@D@2@@std@@@2@V?$allocator@U?$pair@$$CBV?$basic_string@DU?$char_traits@D@std@@V?$allocator@D@2@@std@@PAVCObject3D@@@std@@@2@$0A@@std@@@2@ABV?$basic_string@DU?$char_traits@D@std@@V?$allocator@D@2@@2@@Z ENDP ; std::_Tree<std::_Tmap_traits<std::basic_string<char,std::char_traits<char>,std::allocator<char> >,CObject3D *,std::less<std::basic_string<char,std::char_traits<char>,std::allocator<char> > >,std::allocator<std::pair<std::basic_string<char,std::char_traits<char>,std::allocator<char> > const ,CObject3D *> >,0> >::_Ubound
_TEXT	ENDS
PUBLIC	??$_Distance@Viterator@?$_Tree@V?$_Tmap_traits@V?$basic_string@DU?$char_traits@D@std@@V?$allocator@D@2@@std@@PAVCObject3D@@U?$less@V?$basic_string@DU?$char_traits@D@std@@V?$allocator@D@2@@std@@@2@V?$allocator@U?$pair@$$CBV?$basic_string@DU?$char_traits@D@std@@V?$allocator@D@2@@std@@PAVCObject3D@@@std@@@2@$0A@@std@@@std@@I@std@@YAXViterator@?$_Tree@V?$_Tmap_traits@V?$basic_string@DU?$char_traits@D@std@@V?$allocator@D@2@@std@@PAVCObject3D@@U?$less@V?$basic_string@DU?$char_traits@D@std@@V?$allocator@D@2@@std@@@2@V?$allocator@U?$pair@$$CBV?$basic_string@DU?$char_traits@D@std@@V?$allocator@D@2@@std@@PAVCObject3D@@@std@@@2@$0A@@std@@@0@0AAI@Z ; std::_Distance<std::_Tree<std::_Tmap_traits<std::basic_string<char,std::char_traits<char>,std::allocator<char> >,CObject3D *,std::less<std::basic_string<char,std::char_traits<char>,std::allocator<char> > >,std::allocator<std::pair<std::basic_string<char,std::char_traits<char>,std::allocator<char> > const ,CObject3D *> >,0> >::iterator,unsigned int>
; Function compile flags: /Ogty
; File c:\program files\microsoft visual studio .net 2003\vc7\include\xutility
;	COMDAT ??$_Distance@Viterator@?$_Tree@V?$_Tmap_traits@V?$basic_string@DU?$char_traits@D@std@@V?$allocator@D@2@@std@@PAVCObject3D@@U?$less@V?$basic_string@DU?$char_traits@D@std@@V?$allocator@D@2@@std@@@2@V?$allocator@U?$pair@$$CBV?$basic_string@DU?$char_traits@D@std@@V?$allocator@D@2@@std@@PAVCObject3D@@@std@@@2@$0A@@std@@@std@@I@std@@YAXViterator@?$_Tree@V?$_Tmap_traits@V?$basic_string@DU?$char_traits@D@std@@V?$allocator@D@2@@std@@PAVCObject3D@@U?$less@V?$basic_string@DU?$char_traits@D@std@@V?$allocator@D@2@@std@@@2@V?$allocator@U?$pair@$$CBV?$basic_string@DU?$char_traits@D@std@@V?$allocator@D@2@@std@@PAVCObject3D@@@std@@@2@$0A@@std@@@0@0AAI@Z
_TEXT	SEGMENT
$T232527 = 8						; size = 4
__First$ = 8						; size = 4
__Last$ = 12						; size = 4
__Off$ = 16						; size = 4
??$_Distance@Viterator@?$_Tree@V?$_Tmap_traits@V?$basic_string@DU?$char_traits@D@std@@V?$allocator@D@2@@std@@PAVCObject3D@@U?$less@V?$basic_string@DU?$char_traits@D@std@@V?$allocator@D@2@@std@@@2@V?$allocator@U?$pair@$$CBV?$basic_string@DU?$char_traits@D@std@@V?$allocator@D@2@@std@@PAVCObject3D@@@std@@@2@$0A@@std@@@std@@I@std@@YAXViterator@?$_Tree@V?$_Tmap_traits@V?$basic_string@DU?$char_traits@D@std@@V?$allocator@D@2@@std@@PAVCObject3D@@U?$less@V?$basic_string@DU?$char_traits@D@std@@V?$allocator@D@2@@std@@@2@V?$allocator@U?$pair@$$CBV?$basic_string@DU?$char_traits@D@std@@V?$allocator@D@2@@std@@PAVCObject3D@@@std@@@2@$0A@@std@@@0@0AAI@Z PROC NEAR ; std::_Distance<std::_Tree<std::_Tmap_traits<std::basic_string<char,std::char_traits<char>,std::allocator<char> >,CObject3D *,std::less<std::basic_string<char,std::char_traits<char>,std::allocator<char> > >,std::allocator<std::pair<std::basic_string<char,std::char_traits<char>,std::allocator<char> > const ,CObject3D *> >,0> >::iterator,unsigned int>, COMDAT

; 498  : 	_Distance2(_First, _Last, _Off, _Iter_cat(_First));

  00000	8b 44 24 04	 mov	 eax, DWORD PTR __First$[esp-4]
  00004	57		 push	 edi
  00005	8b 7c 24 0c	 mov	 edi, DWORD PTR __Last$[esp]
  00009	3b c7		 cmp	 eax, edi
  0000b	89 44 24 08	 mov	 DWORD PTR $T232527[esp], eax
  0000f	74 21		 je	 SHORT $L232524
  00011	56		 push	 esi
  00012	8b 74 24 14	 mov	 esi, DWORD PTR __Off$[esp+4]
  00016	eb 08 8d a4 24
	00 00 00 00 90	 npad	 10
$L232516:
  00020	ff 06		 inc	 DWORD PTR [esi]
  00022	8d 4c 24 0c	 lea	 ecx, DWORD PTR $T232527[esp+4]
  00026	e8 00 00 00 00	 call	 ?_Inc@const_iterator@?$_Tree@V?$_Tmap_traits@V?$basic_string@DU?$char_traits@D@std@@V?$allocator@D@2@@std@@PAVCObject3D@@U?$less@V?$basic_string@DU?$char_traits@D@std@@V?$allocator@D@2@@std@@@2@V?$allocator@U?$pair@$$CBV?$basic_string@DU?$char_traits@D@std@@V?$allocator@D@2@@std@@PAVCObject3D@@@std@@@2@$0A@@std@@@std@@QAEXXZ ; std::_Tree<std::_Tmap_traits<std::basic_string<char,std::char_traits<char>,std::allocator<char> >,CObject3D *,std::less<std::basic_string<char,std::char_traits<char>,std::allocator<char> > >,std::allocator<std::pair<std::basic_string<char,std::char_traits<char>,std::allocator<char> > const ,CObject3D *> >,0> >::const_iterator::_Inc
  0002b	39 7c 24 0c	 cmp	 DWORD PTR $T232527[esp+4], edi
  0002f	75 ef		 jne	 SHORT $L232516
  00031	5e		 pop	 esi
$L232524:
  00032	5f		 pop	 edi

; 499  : 	}

  00033	c3		 ret	 0
??$_Distance@Viterator@?$_Tree@V?$_Tmap_traits@V?$basic_string@DU?$char_traits@D@std@@V?$allocator@D@2@@std@@PAVCObject3D@@U?$less@V?$basic_string@DU?$char_traits@D@std@@V?$allocator@D@2@@std@@@2@V?$allocator@U?$pair@$$CBV?$basic_string@DU?$char_traits@D@std@@V?$allocator@D@2@@std@@PAVCObject3D@@@std@@@2@$0A@@std@@@std@@I@std@@YAXViterator@?$_Tree@V?$_Tmap_traits@V?$basic_string@DU?$char_traits@D@std@@V?$allocator@D@2@@std@@PAVCObject3D@@U?$less@V?$basic_string@DU?$char_traits@D@std@@V?$allocator@D@2@@std@@@2@V?$allocator@U?$pair@$$CBV?$basic_string@DU?$char_traits@D@std@@V?$allocator@D@2@@std@@PAVCObject3D@@@std@@@2@$0A@@std@@@0@0AAI@Z ENDP ; std::_Distance<std::_Tree<std::_Tmap_traits<std::basic_string<char,std::char_traits<char>,std::allocator<char> >,CObject3D *,std::less<std::basic_string<char,std::char_traits<char>,std::allocator<char> > >,std::allocator<std::pair<std::basic_string<char,std::char_traits<char>,std::allocator<char> > const ,CObject3D *> >,0> >::iterator,unsigned int>
_TEXT	ENDS
PUBLIC	??1_Node@?$_Tree_nod@V?$_Tmap_traits@V?$basic_string@DU?$char_traits@D@std@@V?$allocator@D@2@@std@@PAVCObject3D@@U?$less@V?$basic_string@DU?$char_traits@D@std@@V?$allocator@D@2@@std@@@2@V?$allocator@U?$pair@$$CBV?$basic_string@DU?$char_traits@D@std@@V?$allocator@D@2@@std@@PAVCObject3D@@@std@@@2@$0A@@std@@@std@@QAE@XZ ; std::_Tree_nod<std::_Tmap_traits<std::basic_string<char,std::char_traits<char>,std::allocator<char> >,CObject3D *,std::less<std::basic_string<char,std::char_traits<char>,std::allocator<char> > >,std::allocator<std::pair<std::basic_string<char,std::char_traits<char>,std::allocator<char> > const ,CObject3D *> >,0> >::_Node::~_Node
; Function compile flags: /Ogty
;	COMDAT ??1_Node@?$_Tree_nod@V?$_Tmap_traits@V?$basic_string@DU?$char_traits@D@std@@V?$allocator@D@2@@std@@PAVCObject3D@@U?$less@V?$basic_string@DU?$char_traits@D@std@@V?$allocator@D@2@@std@@@2@V?$allocator@U?$pair@$$CBV?$basic_string@DU?$char_traits@D@std@@V?$allocator@D@2@@std@@PAVCObject3D@@@std@@@2@$0A@@std@@@std@@QAE@XZ
_TEXT	SEGMENT
??1_Node@?$_Tree_nod@V?$_Tmap_traits@V?$basic_string@DU?$char_traits@D@std@@V?$allocator@D@2@@std@@PAVCObject3D@@U?$less@V?$basic_string@DU?$char_traits@D@std@@V?$allocator@D@2@@std@@@2@V?$allocator@U?$pair@$$CBV?$basic_string@DU?$char_traits@D@std@@V?$allocator@D@2@@std@@PAVCObject3D@@@std@@@2@$0A@@std@@@std@@QAE@XZ PROC NEAR ; std::_Tree_nod<std::_Tmap_traits<std::basic_string<char,std::char_traits<char>,std::allocator<char> >,CObject3D *,std::less<std::basic_string<char,std::char_traits<char>,std::allocator<char> > >,std::allocator<std::pair<std::basic_string<char,std::char_traits<char>,std::allocator<char> > const ,CObject3D *> >,0> >::_Node::~_Node, COMDAT
; _this$ = ecx
  00000	56		 push	 esi
  00001	8b f1		 mov	 esi, ecx
  00003	83 7e 24 10	 cmp	 DWORD PTR [esi+36], 16	; 00000010H
  00007	72 0c		 jb	 SHORT $L232613
  00009	8b 46 10	 mov	 eax, DWORD PTR [esi+16]
  0000c	50		 push	 eax
  0000d	e8 00 00 00 00	 call	 ??3@YAXPAX@Z		; operator delete
  00012	83 c4 04	 add	 esp, 4
$L232613:
  00015	33 c0		 xor	 eax, eax
  00017	c7 46 24 0f 00
	00 00		 mov	 DWORD PTR [esi+36], 15	; 0000000fH
  0001e	89 46 20	 mov	 DWORD PTR [esi+32], eax
  00021	88 46 10	 mov	 BYTE PTR [esi+16], al
  00024	5e		 pop	 esi
  00025	c3		 ret	 0
??1_Node@?$_Tree_nod@V?$_Tmap_traits@V?$basic_string@DU?$char_traits@D@std@@V?$allocator@D@2@@std@@PAVCObject3D@@U?$less@V?$basic_string@DU?$char_traits@D@std@@V?$allocator@D@2@@std@@@2@V?$allocator@U?$pair@$$CBV?$basic_string@DU?$char_traits@D@std@@V?$allocator@D@2@@std@@PAVCObject3D@@@std@@@2@$0A@@std@@@std@@QAE@XZ ENDP ; std::_Tree_nod<std::_Tmap_traits<std::basic_string<char,std::char_traits<char>,std::allocator<char> >,CObject3D *,std::less<std::basic_string<char,std::char_traits<char>,std::allocator<char> > >,std::allocator<std::pair<std::basic_string<char,std::char_traits<char>,std::allocator<char> > const ,CObject3D *> >,0> >::_Node::~_Node
_TEXT	ENDS
PUBLIC	??1logic_error@std@@UAE@XZ			; std::logic_error::~logic_error
PUBLIC	?what@logic_error@std@@UBEPBDXZ			; std::logic_error::what
PUBLIC	??_7logic_error@std@@6B@			; std::logic_error::`vftable'
PUBLIC	??_Glogic_error@std@@UAEPAXI@Z			; std::logic_error::`scalar deleting destructor'
EXTRN	??1exception@@UAE@XZ:NEAR			; exception::~exception
EXTRN	??_Elogic_error@std@@UAEPAXI@Z:NEAR		; std::logic_error::`vector deleting destructor'
;	COMDAT ??_7logic_error@std@@6B@
; File c:\program files\microsoft visual studio .net 2003\vc7\include\iosfwd
CONST	SEGMENT
??_7logic_error@std@@6B@ DD FLAT:??_Elogic_error@std@@UAEPAXI@Z ; std::logic_error::`vftable'
	DD	FLAT:?what@logic_error@std@@UBEPBDXZ
; Function compile flags: /Ogty
; File c:\program files\microsoft visual studio .net 2003\vc7\include\stdexcept
CONST	ENDS
;	COMDAT ??1logic_error@std@@UAE@XZ
_TEXT	SEGMENT
??1logic_error@std@@UAE@XZ PROC NEAR			; std::logic_error::~logic_error, COMDAT
; _this$ = ecx

; 23   : 		{}	// destroy the object

  00000	56		 push	 esi
  00001	8b f1		 mov	 esi, ecx
  00003	c7 06 00 00 00
	00		 mov	 DWORD PTR [esi], OFFSET FLAT:??_7logic_error@std@@6B@
  00009	83 7e 24 10	 cmp	 DWORD PTR [esi+36], 16	; 00000010H
  0000d	72 0c		 jb	 SHORT $L232693
  0000f	8b 46 10	 mov	 eax, DWORD PTR [esi+16]
  00012	50		 push	 eax
  00013	e8 00 00 00 00	 call	 ??3@YAXPAX@Z		; operator delete
  00018	83 c4 04	 add	 esp, 4
$L232693:
  0001b	33 c0		 xor	 eax, eax
  0001d	c7 46 24 0f 00
	00 00		 mov	 DWORD PTR [esi+36], 15	; 0000000fH
  00024	89 46 20	 mov	 DWORD PTR [esi+32], eax
  00027	88 46 10	 mov	 BYTE PTR [esi+16], al
  0002a	8b ce		 mov	 ecx, esi
  0002c	5e		 pop	 esi
  0002d	e9 00 00 00 00	 jmp	 ??1exception@@UAE@XZ	; exception::~exception
??1logic_error@std@@UAE@XZ ENDP				; std::logic_error::~logic_error
; Function compile flags: /Ogty
_TEXT	ENDS
;	COMDAT ?what@logic_error@std@@UBEPBDXZ
_TEXT	SEGMENT
?what@logic_error@std@@UBEPBDXZ PROC NEAR		; std::logic_error::what, COMDAT
; _this$ = ecx

; 27   : 		return (_Str.c_str());

  00000	83 79 24 10	 cmp	 DWORD PTR [ecx+36], 16	; 00000010H
  00004	72 04		 jb	 SHORT $L232725
  00006	8b 41 10	 mov	 eax, DWORD PTR [ecx+16]

; 28   : 		}

  00009	c3		 ret	 0

; 27   : 		return (_Str.c_str());

$L232725:
  0000a	8d 41 10	 lea	 eax, DWORD PTR [ecx+16]

; 28   : 		}

  0000d	c3		 ret	 0
?what@logic_error@std@@UBEPBDXZ ENDP			; std::logic_error::what
; Function compile flags: /Ogty
_TEXT	ENDS
;	COMDAT ??_Glogic_error@std@@UAEPAXI@Z
_TEXT	SEGMENT
___flags$ = 8						; size = 4
??_Glogic_error@std@@UAEPAXI@Z PROC NEAR		; std::logic_error::`scalar deleting destructor', COMDAT
; _this$ = ecx
  00000	56		 push	 esi
  00001	8b f1		 mov	 esi, ecx
  00003	e8 00 00 00 00	 call	 ??1logic_error@std@@UAE@XZ ; std::logic_error::~logic_error
  00008	f6 44 24 08 01	 test	 BYTE PTR ___flags$[esp], 1
  0000d	74 09		 je	 SHORT $L232733
  0000f	56		 push	 esi
  00010	e8 00 00 00 00	 call	 ??3@YAXPAX@Z		; operator delete
  00015	83 c4 04	 add	 esp, 4
$L232733:
  00018	8b c6		 mov	 eax, esi
  0001a	5e		 pop	 esi
  0001b	c2 04 00	 ret	 4
??_Glogic_error@std@@UAEPAXI@Z ENDP			; std::logic_error::`scalar deleting destructor'
_TEXT	ENDS
PUBLIC	?assign@?$basic_string@DU?$char_traits@D@std@@V?$allocator@D@2@@std@@QAEAAV12@ABV12@II@Z ; std::basic_string<char,std::char_traits<char>,std::allocator<char> >::assign
; Function compile flags: /Ogty
; File c:\program files\microsoft visual studio .net 2003\vc7\include\xstring
;	COMDAT ?assign@?$basic_string@DU?$char_traits@D@std@@V?$allocator@D@2@@std@@QAEAAV12@ABV12@II@Z
_TEXT	SEGMENT
__Right$ = 8						; size = 4
__Roff$ = 12						; size = 4
__Count$ = 16						; size = 4
?assign@?$basic_string@DU?$char_traits@D@std@@V?$allocator@D@2@@std@@QAEAAV12@ABV12@II@Z PROC NEAR ; std::basic_string<char,std::char_traits<char>,std::allocator<char> >::assign, COMDAT
; _this$ = ecx

; 590  : 		{	// assign _Right [_Roff, _Roff + _Count)

  00000	53		 push	 ebx
  00001	55		 push	 ebp
  00002	56		 push	 esi

; 591  : 		if (_Right.size() < _Roff)

  00003	8b 74 24 14	 mov	 esi, DWORD PTR __Roff$[esp+8]
  00007	57		 push	 edi
  00008	8b 7c 24 14	 mov	 edi, DWORD PTR __Right$[esp+12]
  0000c	39 77 14	 cmp	 DWORD PTR [edi+20], esi
  0000f	8b d9		 mov	 ebx, ecx
  00011	73 05		 jae	 SHORT $L220001

; 592  : 			_String_base::_Xran();	// _Roff off end

  00013	e8 00 00 00 00	 call	 ?_Xran@_String_base@std@@QBEXXZ ; std::_String_base::_Xran
$L220001:

; 593  : 		size_type _Num = _Right.size() - _Roff;

  00018	8b 6f 14	 mov	 ebp, DWORD PTR [edi+20]

; 594  : 		if (_Count < _Num)

  0001b	8b 44 24 1c	 mov	 eax, DWORD PTR __Count$[esp+12]
  0001f	2b ee		 sub	 ebp, esi
  00021	3b c5		 cmp	 eax, ebp
  00023	73 02		 jae	 SHORT $L220003

; 595  : 			_Num = _Count;	// trim _Num to size

  00025	8b e8		 mov	 ebp, eax
$L220003:

; 596  : 
; 597  : 		if (this == &_Right)

  00027	3b df		 cmp	 ebx, edi
  00029	75 1f		 jne	 SHORT $L220004

; 598  : 			erase((size_type)(_Roff + _Num)), erase(0, _Roff);	// substring

  0002b	6a ff		 push	 -1
  0002d	03 ee		 add	 ebp, esi
  0002f	55		 push	 ebp
  00030	8b cb		 mov	 ecx, ebx
  00032	e8 00 00 00 00	 call	 ?erase@?$basic_string@DU?$char_traits@D@std@@V?$allocator@D@2@@std@@QAEAAV12@II@Z ; std::basic_string<char,std::char_traits<char>,std::allocator<char> >::erase
  00037	56		 push	 esi
  00038	6a 00		 push	 0
  0003a	8b cb		 mov	 ecx, ebx
  0003c	e8 00 00 00 00	 call	 ?erase@?$basic_string@DU?$char_traits@D@std@@V?$allocator@D@2@@std@@QAEAAV12@II@Z ; std::basic_string<char,std::char_traits<char>,std::allocator<char> >::erase
  00041	5f		 pop	 edi
  00042	5e		 pop	 esi
  00043	5d		 pop	 ebp

; 603  : 			}
; 604  : 		return (*this);

  00044	8b c3		 mov	 eax, ebx
  00046	5b		 pop	 ebx

; 605  : 		}

  00047	c2 0c 00	 ret	 12			; 0000000cH
$L220004:

; 599  : 		else if (_Grow(_Num))

  0004a	83 fd fe	 cmp	 ebp, -2			; fffffffeH
  0004d	76 07		 jbe	 SHORT $L232842
  0004f	8b cb		 mov	 ecx, ebx
  00051	e8 00 00 00 00	 call	 ?_Xlen@_String_base@std@@QBEXXZ ; std::_String_base::_Xlen
$L232842:
  00056	8b 43 18	 mov	 eax, DWORD PTR [ebx+24]
  00059	3b c5		 cmp	 eax, ebp
  0005b	73 21		 jae	 SHORT $L232843
  0005d	8b 43 14	 mov	 eax, DWORD PTR [ebx+20]
  00060	50		 push	 eax
  00061	55		 push	 ebp
  00062	8b cb		 mov	 ecx, ebx
  00064	e8 00 00 00 00	 call	 ?_Copy@?$basic_string@DU?$char_traits@D@std@@V?$allocator@D@2@@std@@IAEXII@Z ; std::basic_string<char,std::char_traits<char>,std::allocator<char> >::_Copy
  00069	85 ed		 test	 ebp, ebp
$L232930:
  0006b	76 6d		 jbe	 SHORT $L232929

; 600  : 			{	// make room and assign new stuff
; 601  : 			_Traits::copy(_Myptr(), _Right._Myptr() + _Roff, _Num);

  0006d	8b 4f 18	 mov	 ecx, DWORD PTR [edi+24]
  00070	b8 10 00 00 00	 mov	 eax, 16			; 00000010H
  00075	3b c8		 cmp	 ecx, eax
  00077	72 2f		 jb	 SHORT $L232894
  00079	8b 57 04	 mov	 edx, DWORD PTR [edi+4]
  0007c	eb 2d		 jmp	 SHORT $L232895

; 599  : 		else if (_Grow(_Num))

$L232843:
  0007e	85 ed		 test	 ebp, ebp
  00080	75 e9		 jne	 SHORT $L232930
  00082	83 f8 10	 cmp	 eax, 16			; 00000010H
  00085	89 6b 14	 mov	 DWORD PTR [ebx+20], ebp
  00088	72 0f		 jb	 SHORT $L232886
  0008a	8b 43 04	 mov	 eax, DWORD PTR [ebx+4]
  0008d	5f		 pop	 edi
  0008e	5e		 pop	 esi
  0008f	c6 00 00	 mov	 BYTE PTR [eax], 0
  00092	5d		 pop	 ebp

; 603  : 			}
; 604  : 		return (*this);

  00093	8b c3		 mov	 eax, ebx
  00095	5b		 pop	 ebx

; 605  : 		}

  00096	c2 0c 00	 ret	 12			; 0000000cH

; 599  : 		else if (_Grow(_Num))

$L232886:
  00099	5f		 pop	 edi
  0009a	8d 43 04	 lea	 eax, DWORD PTR [ebx+4]
  0009d	5e		 pop	 esi
  0009e	c6 00 00	 mov	 BYTE PTR [eax], 0
  000a1	5d		 pop	 ebp

; 603  : 			}
; 604  : 		return (*this);

  000a2	8b c3		 mov	 eax, ebx
  000a4	5b		 pop	 ebx

; 605  : 		}

  000a5	c2 0c 00	 ret	 12			; 0000000cH

; 600  : 			{	// make room and assign new stuff
; 601  : 			_Traits::copy(_Myptr(), _Right._Myptr() + _Roff, _Num);

$L232894:
  000a8	8d 57 04	 lea	 edx, DWORD PTR [edi+4]
$L232895:
  000ab	39 43 18	 cmp	 DWORD PTR [ebx+24], eax
  000ae	8d 43 04	 lea	 eax, DWORD PTR [ebx+4]
  000b1	72 04		 jb	 SHORT $L232902
  000b3	8b 38		 mov	 edi, DWORD PTR [eax]
  000b5	eb 02		 jmp	 SHORT $L232903
$L232902:
  000b7	8b f8		 mov	 edi, eax
$L232903:
  000b9	03 f2		 add	 esi, edx
  000bb	8b cd		 mov	 ecx, ebp
  000bd	8b d1		 mov	 edx, ecx
  000bf	c1 e9 02	 shr	 ecx, 2
  000c2	f3 a5		 rep movsd
  000c4	8b ca		 mov	 ecx, edx
  000c6	83 e1 03	 and	 ecx, 3
  000c9	f3 a4		 rep movsb

; 602  : 			_Eos(_Num);

  000cb	83 7b 18 10	 cmp	 DWORD PTR [ebx+24], 16	; 00000010H
  000cf	89 6b 14	 mov	 DWORD PTR [ebx+20], ebp
  000d2	72 02		 jb	 SHORT $L232926
  000d4	8b 00		 mov	 eax, DWORD PTR [eax]
$L232926:
  000d6	c6 04 28 00	 mov	 BYTE PTR [eax+ebp], 0
$L232929:
  000da	5f		 pop	 edi
  000db	5e		 pop	 esi
  000dc	5d		 pop	 ebp

; 603  : 			}
; 604  : 		return (*this);

  000dd	8b c3		 mov	 eax, ebx
  000df	5b		 pop	 ebx

; 605  : 		}

  000e0	c2 0c 00	 ret	 12			; 0000000cH
?assign@?$basic_string@DU?$char_traits@D@std@@V?$allocator@D@2@@std@@QAEAAV12@ABV12@II@Z ENDP ; std::basic_string<char,std::char_traits<char>,std::allocator<char> >::assign
_TEXT	ENDS
PUBLIC	?assign@?$basic_string@DU?$char_traits@D@std@@V?$allocator@D@2@@std@@QAEAAV12@PBDI@Z ; std::basic_string<char,std::char_traits<char>,std::allocator<char> >::assign
; Function compile flags: /Ogty
;	COMDAT ?assign@?$basic_string@DU?$char_traits@D@std@@V?$allocator@D@2@@std@@QAEAAV12@PBDI@Z
_TEXT	SEGMENT
__Ptr$ = 8						; size = 4
__Num$ = 12						; size = 4
?assign@?$basic_string@DU?$char_traits@D@std@@V?$allocator@D@2@@std@@QAEAAV12@PBDI@Z PROC NEAR ; std::basic_string<char,std::char_traits<char>,std::allocator<char> >::assign, COMDAT
; _this$ = ecx

; 608  : 		{	// assign [_Ptr, _Ptr + _Num)

  00000	53		 push	 ebx
  00001	8b d9		 mov	 ebx, ecx

; 609  : 		if (_Inside(_Ptr))

  00003	8b 53 18	 mov	 edx, DWORD PTR [ebx+24]
  00006	83 fa 10	 cmp	 edx, 16			; 00000010H
  00009	56		 push	 esi
  0000a	57		 push	 edi
  0000b	72 05		 jb	 SHORT $L232952
  0000d	8b 43 04	 mov	 eax, DWORD PTR [ebx+4]
  00010	eb 03		 jmp	 SHORT $L232953
$L232952:
  00012	8d 43 04	 lea	 eax, DWORD PTR [ebx+4]
$L232953:
  00015	8b 74 24 10	 mov	 esi, DWORD PTR __Ptr$[esp+8]
  00019	3b f0		 cmp	 esi, eax
  0001b	72 34		 jb	 SHORT $L221367
  0001d	83 fa 10	 cmp	 edx, 16			; 00000010H
  00020	8d 43 04	 lea	 eax, DWORD PTR [ebx+4]
  00023	72 04		 jb	 SHORT $L232956
  00025	8b 08		 mov	 ecx, DWORD PTR [eax]
  00027	eb 02		 jmp	 SHORT $L232957
$L232956:
  00029	8b c8		 mov	 ecx, eax
$L232957:
  0002b	8b 7b 14	 mov	 edi, DWORD PTR [ebx+20]
  0002e	03 f9		 add	 edi, ecx
  00030	3b fe		 cmp	 edi, esi
  00032	76 1d		 jbe	 SHORT $L221367

; 610  : 			return (assign(*this, _Ptr - _Myptr(), _Num));	// substring

  00034	83 fa 10	 cmp	 edx, 16			; 00000010H
  00037	72 02		 jb	 SHORT $L232969
  00039	8b 00		 mov	 eax, DWORD PTR [eax]
$L232969:
  0003b	8b 4c 24 14	 mov	 ecx, DWORD PTR __Num$[esp+8]
  0003f	51		 push	 ecx
  00040	2b f0		 sub	 esi, eax
  00042	56		 push	 esi
  00043	53		 push	 ebx
  00044	8b cb		 mov	 ecx, ebx
  00046	e8 00 00 00 00	 call	 ?assign@?$basic_string@DU?$char_traits@D@std@@V?$allocator@D@2@@std@@QAEAAV12@ABV12@II@Z ; std::basic_string<char,std::char_traits<char>,std::allocator<char> >::assign
  0004b	5f		 pop	 edi
  0004c	5e		 pop	 esi
  0004d	5b		 pop	 ebx

; 618  : 		}

  0004e	c2 08 00	 ret	 8
$L221367:
  00051	55		 push	 ebp

; 611  : 
; 612  : 		if (_Grow(_Num))

  00052	8b 6c 24 18	 mov	 ebp, DWORD PTR __Num$[esp+12]
  00056	83 fd fe	 cmp	 ebp, -2			; fffffffeH
  00059	76 07		 jbe	 SHORT $L233067
  0005b	8b cb		 mov	 ecx, ebx
  0005d	e8 00 00 00 00	 call	 ?_Xlen@_String_base@std@@QBEXXZ ; std::_String_base::_Xlen
$L233067:
  00062	8b 43 18	 mov	 eax, DWORD PTR [ebx+24]
  00065	3b c5		 cmp	 eax, ebp
  00067	73 1b		 jae	 SHORT $L233068
  00069	8b 53 14	 mov	 edx, DWORD PTR [ebx+20]
  0006c	52		 push	 edx
  0006d	55		 push	 ebp
  0006e	8b cb		 mov	 ecx, ebx
  00070	e8 00 00 00 00	 call	 ?_Copy@?$basic_string@DU?$char_traits@D@std@@V?$allocator@D@2@@std@@IAEXII@Z ; std::basic_string<char,std::char_traits<char>,std::allocator<char> >::_Copy
  00075	85 ed		 test	 ebp, ebp
$L233148:
  00077	76 68		 jbe	 SHORT $L233145

; 613  : 			{	// make room and assign new stuff
; 614  : 			_Traits::copy(_Myptr(), _Ptr, _Num);

  00079	83 7b 18 10	 cmp	 DWORD PTR [ebx+24], 16	; 00000010H
  0007d	72 2f		 jb	 SHORT $L233120
  0007f	8b 7b 04	 mov	 edi, DWORD PTR [ebx+4]
  00082	eb 2d		 jmp	 SHORT $L233121

; 611  : 
; 612  : 		if (_Grow(_Num))

$L233068:
  00084	85 ed		 test	 ebp, ebp
  00086	75 ef		 jne	 SHORT $L233148
  00088	83 f8 10	 cmp	 eax, 16			; 00000010H
  0008b	89 6b 14	 mov	 DWORD PTR [ebx+20], ebp
  0008e	72 0f		 jb	 SHORT $L233111
  00090	8b 43 04	 mov	 eax, DWORD PTR [ebx+4]
  00093	5d		 pop	 ebp
  00094	5f		 pop	 edi
  00095	c6 00 00	 mov	 BYTE PTR [eax], 0
  00098	5e		 pop	 esi

; 616  : 			}
; 617  : 		return (*this);

  00099	8b c3		 mov	 eax, ebx
  0009b	5b		 pop	 ebx

; 618  : 		}

  0009c	c2 08 00	 ret	 8

; 611  : 
; 612  : 		if (_Grow(_Num))

$L233111:
  0009f	5d		 pop	 ebp
  000a0	8d 43 04	 lea	 eax, DWORD PTR [ebx+4]
  000a3	5f		 pop	 edi
  000a4	c6 00 00	 mov	 BYTE PTR [eax], 0
  000a7	5e		 pop	 esi

; 616  : 			}
; 617  : 		return (*this);

  000a8	8b c3		 mov	 eax, ebx
  000aa	5b		 pop	 ebx

; 618  : 		}

  000ab	c2 08 00	 ret	 8

; 613  : 			{	// make room and assign new stuff
; 614  : 			_Traits::copy(_Myptr(), _Ptr, _Num);

$L233120:
  000ae	8d 7b 04	 lea	 edi, DWORD PTR [ebx+4]
$L233121:
  000b1	8b cd		 mov	 ecx, ebp
  000b3	8b c1		 mov	 eax, ecx
  000b5	c1 e9 02	 shr	 ecx, 2
  000b8	f3 a5		 rep movsd
  000ba	8b c8		 mov	 ecx, eax
  000bc	83 e1 03	 and	 ecx, 3
  000bf	f3 a4		 rep movsb

; 615  : 			_Eos(_Num);

  000c1	83 7b 18 10	 cmp	 DWORD PTR [ebx+24], 16	; 00000010H
  000c5	89 6b 14	 mov	 DWORD PTR [ebx+20], ebp
  000c8	72 10		 jb	 SHORT $L233143
  000ca	8b 43 04	 mov	 eax, DWORD PTR [ebx+4]
  000cd	c6 04 28 00	 mov	 BYTE PTR [eax+ebp], 0
  000d1	5d		 pop	 ebp
  000d2	5f		 pop	 edi
  000d3	5e		 pop	 esi

; 616  : 			}
; 617  : 		return (*this);

  000d4	8b c3		 mov	 eax, ebx
  000d6	5b		 pop	 ebx

; 618  : 		}

  000d7	c2 08 00	 ret	 8

; 615  : 			_Eos(_Num);

$L233143:
  000da	8d 43 04	 lea	 eax, DWORD PTR [ebx+4]
  000dd	c6 04 28 00	 mov	 BYTE PTR [eax+ebp], 0
$L233145:
  000e1	5d		 pop	 ebp
  000e2	5f		 pop	 edi
  000e3	5e		 pop	 esi

; 616  : 			}
; 617  : 		return (*this);

  000e4	8b c3		 mov	 eax, ebx
  000e6	5b		 pop	 ebx

; 618  : 		}

  000e7	c2 08 00	 ret	 8
?assign@?$basic_string@DU?$char_traits@D@std@@V?$allocator@D@2@@std@@QAEAAV12@PBDI@Z ENDP ; std::basic_string<char,std::char_traits<char>,std::allocator<char> >::assign
_TEXT	ENDS
PUBLIC	?InvalidateDeviceObjects@CObject3DMng@@QAEJXZ	; CObject3DMng::InvalidateDeviceObjects
; Function compile flags: /Ogty
; File c:\documents and settings\test\mes documents\source\virtuos_v17\build\program\_common\object3d.cpp
;	COMDAT ?InvalidateDeviceObjects@CObject3DMng@@QAEJXZ
_TEXT	SEGMENT
_i$233240 = -4						; size = 4
?InvalidateDeviceObjects@CObject3DMng@@QAEJXZ PROC NEAR	; CObject3DMng::InvalidateDeviceObjects, COMDAT
; _this$ = ecx

; 285  : {

  00000	51		 push	 ecx
  00001	56		 push	 esi
  00002	8b f1		 mov	 esi, ecx

; 286  : 	DeleteDeviceObjects();

  00004	8b 4e 04	 mov	 ecx, DWORD PTR [esi+4]
  00007	8b 01		 mov	 eax, DWORD PTR [ecx]
  00009	3b c1		 cmp	 eax, ecx
  0000b	89 44 24 04	 mov	 DWORD PTR _i$233240[esp+8], eax
  0000f	74 1a		 je	 SHORT $L233279
$L233256:
  00011	8b 48 28	 mov	 ecx, DWORD PTR [eax+40]
  00014	e8 00 00 00 00	 call	 ?DeleteDeviceObjects@CObject3D@@QAEJXZ ; CObject3D::DeleteDeviceObjects
  00019	8d 4c 24 04	 lea	 ecx, DWORD PTR _i$233240[esp+8]
  0001d	e8 00 00 00 00	 call	 ?_Inc@const_iterator@?$_Tree@V?$_Tmap_traits@V?$basic_string@DU?$char_traits@D@std@@V?$allocator@D@2@@std@@PAVCObject3D@@U?$less@V?$basic_string@DU?$char_traits@D@std@@V?$allocator@D@2@@std@@@2@V?$allocator@U?$pair@$$CBV?$basic_string@DU?$char_traits@D@std@@V?$allocator@D@2@@std@@PAVCObject3D@@@std@@@2@$0A@@std@@@std@@QAEXXZ ; std::_Tree<std::_Tmap_traits<std::basic_string<char,std::char_traits<char>,std::allocator<char> >,CObject3D *,std::less<std::basic_string<char,std::char_traits<char>,std::allocator<char> > >,std::allocator<std::pair<std::basic_string<char,std::char_traits<char>,std::allocator<char> > const ,CObject3D *> >,0> >::const_iterator::_Inc
  00022	8b 44 24 04	 mov	 eax, DWORD PTR _i$233240[esp+8]
  00026	3b 46 04	 cmp	 eax, DWORD PTR [esi+4]
  00029	75 e6		 jne	 SHORT $L233256
$L233279:

; 287  : 	return  S_OK;

  0002b	33 c0		 xor	 eax, eax
  0002d	5e		 pop	 esi

; 288  : }

  0002e	59		 pop	 ecx
  0002f	c3		 ret	 0
?InvalidateDeviceObjects@CObject3DMng@@QAEJXZ ENDP	; CObject3DMng::InvalidateDeviceObjects
_TEXT	ENDS
PUBLIC	?lower_bound@?$_Tree@V?$_Tmap_traits@V?$basic_string@DU?$char_traits@D@std@@V?$allocator@D@2@@std@@PAVCObject3D@@U?$less@V?$basic_string@DU?$char_traits@D@std@@V?$allocator@D@2@@std@@@2@V?$allocator@U?$pair@$$CBV?$basic_string@DU?$char_traits@D@std@@V?$allocator@D@2@@std@@PAVCObject3D@@@std@@@2@$0A@@std@@@std@@QAE?AViterator@12@ABV?$basic_string@DU?$char_traits@D@std@@V?$allocator@D@2@@2@@Z ; std::_Tree<std::_Tmap_traits<std::basic_string<char,std::char_traits<char>,std::allocator<char> >,CObject3D *,std::less<std::basic_string<char,std::char_traits<char>,std::allocator<char> > >,std::allocator<std::pair<std::basic_string<char,std::char_traits<char>,std::allocator<char> > const ,CObject3D *> >,0> >::lower_bound
; Function compile flags: /Ogty
; File c:\program files\microsoft visual studio .net 2003\vc7\include\xtree
;	COMDAT ?lower_bound@?$_Tree@V?$_Tmap_traits@V?$basic_string@DU?$char_traits@D@std@@V?$allocator@D@2@@std@@PAVCObject3D@@U?$less@V?$basic_string@DU?$char_traits@D@std@@V?$allocator@D@2@@std@@@2@V?$allocator@U?$pair@$$CBV?$basic_string@DU?$char_traits@D@std@@V?$allocator@D@2@@std@@PAVCObject3D@@@std@@@2@$0A@@std@@@std@@QAE?AViterator@12@ABV?$basic_string@DU?$char_traits@D@std@@V?$allocator@D@2@@2@@Z
_TEXT	SEGMENT
___$ReturnUdt$ = 8					; size = 4
__Keyval$ = 12						; size = 4
?lower_bound@?$_Tree@V?$_Tmap_traits@V?$basic_string@DU?$char_traits@D@std@@V?$allocator@D@2@@std@@PAVCObject3D@@U?$less@V?$basic_string@DU?$char_traits@D@std@@V?$allocator@D@2@@std@@@2@V?$allocator@U?$pair@$$CBV?$basic_string@DU?$char_traits@D@std@@V?$allocator@D@2@@std@@PAVCObject3D@@@std@@@2@$0A@@std@@@std@@QAE?AViterator@12@ABV?$basic_string@DU?$char_traits@D@std@@V?$allocator@D@2@@2@@Z PROC NEAR ; std::_Tree<std::_Tmap_traits<std::basic_string<char,std::char_traits<char>,std::allocator<char> >,CObject3D *,std::less<std::basic_string<char,std::char_traits<char>,std::allocator<char> > >,std::allocator<std::pair<std::basic_string<char,std::char_traits<char>,std::allocator<char> > const ,CObject3D *> >,0> >::lower_bound, COMDAT
; _this$ = ecx

; 810  : 		return (_TREE_ITERATOR(_Lbound(_Keyval)));

  00000	8b 44 24 08	 mov	 eax, DWORD PTR __Keyval$[esp-4]
  00004	50		 push	 eax
  00005	e8 00 00 00 00	 call	 ?_Lbound@?$_Tree@V?$_Tmap_traits@V?$basic_string@DU?$char_traits@D@std@@V?$allocator@D@2@@std@@PAVCObject3D@@U?$less@V?$basic_string@DU?$char_traits@D@std@@V?$allocator@D@2@@std@@@2@V?$allocator@U?$pair@$$CBV?$basic_string@DU?$char_traits@D@std@@V?$allocator@D@2@@std@@PAVCObject3D@@@std@@@2@$0A@@std@@@std@@IBEPAU_Node@?$_Tree_nod@V?$_Tmap_traits@V?$basic_string@DU?$char_traits@D@std@@V?$allocator@D@2@@std@@PAVCObject3D@@U?$less@V?$basic_string@DU?$char_traits@D@std@@V?$allocator@D@2@@std@@@2@V?$allocator@U?$pair@$$CBV?$basic_string@DU?$char_traits@D@std@@V?$allocator@D@2@@std@@PAVCObject3D@@@std@@@2@$0A@@std@@@2@ABV?$basic_string@DU?$char_traits@D@std@@V?$allocator@D@2@@2@@Z ; std::_Tree<std::_Tmap_traits<std::basic_string<char,std::char_traits<char>,std::allocator<char> >,CObject3D *,std::less<std::basic_string<char,std::char_traits<char>,std::allocator<char> > >,std::allocator<std::pair<std::basic_string<char,std::char_traits<char>,std::allocator<char> > const ,CObject3D *> >,0> >::_Lbound
  0000a	8b 4c 24 04	 mov	 ecx, DWORD PTR ___$ReturnUdt$[esp-4]
  0000e	89 01		 mov	 DWORD PTR [ecx], eax
  00010	8b c1		 mov	 eax, ecx

; 811  : 		}

  00012	c2 08 00	 ret	 8
?lower_bound@?$_Tree@V?$_Tmap_traits@V?$basic_string@DU?$char_traits@D@std@@V?$allocator@D@2@@std@@PAVCObject3D@@U?$less@V?$basic_string@DU?$char_traits@D@std@@V?$allocator@D@2@@std@@@2@V?$allocator@U?$pair@$$CBV?$basic_string@DU?$char_traits@D@std@@V?$allocator@D@2@@std@@PAVCObject3D@@@std@@@2@$0A@@std@@@std@@QAE?AViterator@12@ABV?$basic_string@DU?$char_traits@D@std@@V?$allocator@D@2@@2@@Z ENDP ; std::_Tree<std::_Tmap_traits<std::basic_string<char,std::char_traits<char>,std::allocator<char> >,CObject3D *,std::less<std::basic_string<char,std::char_traits<char>,std::allocator<char> > >,std::allocator<std::pair<std::basic_string<char,std::char_traits<char>,std::allocator<char> > const ,CObject3D *> >,0> >::lower_bound
_TEXT	ENDS
PUBLIC	?upper_bound@?$_Tree@V?$_Tmap_traits@V?$basic_string@DU?$char_traits@D@std@@V?$allocator@D@2@@std@@PAVCObject3D@@U?$less@V?$basic_string@DU?$char_traits@D@std@@V?$allocator@D@2@@std@@@2@V?$allocator@U?$pair@$$CBV?$basic_string@DU?$char_traits@D@std@@V?$allocator@D@2@@std@@PAVCObject3D@@@std@@@2@$0A@@std@@@std@@QAE?AViterator@12@ABV?$basic_string@DU?$char_traits@D@std@@V?$allocator@D@2@@2@@Z ; std::_Tree<std::_Tmap_traits<std::basic_string<char,std::char_traits<char>,std::allocator<char> >,CObject3D *,std::less<std::basic_string<char,std::char_traits<char>,std::allocator<char> > >,std::allocator<std::pair<std::basic_string<char,std::char_traits<char>,std::allocator<char> > const ,CObject3D *> >,0> >::upper_bound
; Function compile flags: /Ogty
;	COMDAT ?upper_bound@?$_Tree@V?$_Tmap_traits@V?$basic_string@DU?$char_traits@D@std@@V?$allocator@D@2@@std@@PAVCObject3D@@U?$less@V?$basic_string@DU?$char_traits@D@std@@V?$allocator@D@2@@std@@@2@V?$allocator@U?$pair@$$CBV?$basic_string@DU?$char_traits@D@std@@V?$allocator@D@2@@std@@PAVCObject3D@@@std@@@2@$0A@@std@@@std@@QAE?AViterator@12@ABV?$basic_string@DU?$char_traits@D@std@@V?$allocator@D@2@@2@@Z
_TEXT	SEGMENT
___$ReturnUdt$ = 8					; size = 4
__Keyval$ = 12						; size = 4
?upper_bound@?$_Tree@V?$_Tmap_traits@V?$basic_string@DU?$char_traits@D@std@@V?$allocator@D@2@@std@@PAVCObject3D@@U?$less@V?$basic_string@DU?$char_traits@D@std@@V?$allocator@D@2@@std@@@2@V?$allocator@U?$pair@$$CBV?$basic_string@DU?$char_traits@D@std@@V?$allocator@D@2@@std@@PAVCObject3D@@@std@@@2@$0A@@std@@@std@@QAE?AViterator@12@ABV?$basic_string@DU?$char_traits@D@std@@V?$allocator@D@2@@2@@Z PROC NEAR ; std::_Tree<std::_Tmap_traits<std::basic_string<char,std::char_traits<char>,std::allocator<char> >,CObject3D *,std::less<std::basic_string<char,std::char_traits<char>,std::allocator<char> > >,std::allocator<std::pair<std::basic_string<char,std::char_traits<char>,std::allocator<char> > const ,CObject3D *> >,0> >::upper_bound, COMDAT
; _this$ = ecx

; 820  : 		return (_TREE_ITERATOR(_Ubound(_Keyval)));

  00000	8b 44 24 08	 mov	 eax, DWORD PTR __Keyval$[esp-4]
  00004	50		 push	 eax
  00005	e8 00 00 00 00	 call	 ?_Ubound@?$_Tree@V?$_Tmap_traits@V?$basic_string@DU?$char_traits@D@std@@V?$allocator@D@2@@std@@PAVCObject3D@@U?$less@V?$basic_string@DU?$char_traits@D@std@@V?$allocator@D@2@@std@@@2@V?$allocator@U?$pair@$$CBV?$basic_string@DU?$char_traits@D@std@@V?$allocator@D@2@@std@@PAVCObject3D@@@std@@@2@$0A@@std@@@std@@IBEPAU_Node@?$_Tree_nod@V?$_Tmap_traits@V?$basic_string@DU?$char_traits@D@std@@V?$allocator@D@2@@std@@PAVCObject3D@@U?$less@V?$basic_string@DU?$char_traits@D@std@@V?$allocator@D@2@@std@@@2@V?$allocator@U?$pair@$$CBV?$basic_string@DU?$char_traits@D@std@@V?$allocator@D@2@@std@@PAVCObject3D@@@std@@@2@$0A@@std@@@2@ABV?$basic_string@DU?$char_traits@D@std@@V?$allocator@D@2@@2@@Z ; std::_Tree<std::_Tmap_traits<std::basic_string<char,std::char_traits<char>,std::allocator<char> >,CObject3D *,std::less<std::basic_string<char,std::char_traits<char>,std::allocator<char> > >,std::allocator<std::pair<std::basic_string<char,std::char_traits<char>,std::allocator<char> > const ,CObject3D *> >,0> >::_Ubound
  0000a	8b 4c 24 04	 mov	 ecx, DWORD PTR ___$ReturnUdt$[esp-4]
  0000e	89 01		 mov	 DWORD PTR [ecx], eax
  00010	8b c1		 mov	 eax, ecx

; 821  : 		}

  00012	c2 08 00	 ret	 8
?upper_bound@?$_Tree@V?$_Tmap_traits@V?$basic_string@DU?$char_traits@D@std@@V?$allocator@D@2@@std@@PAVCObject3D@@U?$less@V?$basic_string@DU?$char_traits@D@std@@V?$allocator@D@2@@std@@@2@V?$allocator@U?$pair@$$CBV?$basic_string@DU?$char_traits@D@std@@V?$allocator@D@2@@std@@PAVCObject3D@@@std@@@2@$0A@@std@@@std@@QAE?AViterator@12@ABV?$basic_string@DU?$char_traits@D@std@@V?$allocator@D@2@@2@@Z ENDP ; std::_Tree<std::_Tmap_traits<std::basic_string<char,std::char_traits<char>,std::allocator<char> >,CObject3D *,std::less<std::basic_string<char,std::char_traits<char>,std::allocator<char> > >,std::allocator<std::pair<std::basic_string<char,std::char_traits<char>,std::allocator<char> > const ,CObject3D *> >,0> >::upper_bound
_TEXT	ENDS
PUBLIC	??_G_Node@?$_Tree_nod@V?$_Tmap_traits@V?$basic_string@DU?$char_traits@D@std@@V?$allocator@D@2@@std@@PAVCObject3D@@U?$less@V?$basic_string@DU?$char_traits@D@std@@V?$allocator@D@2@@std@@@2@V?$allocator@U?$pair@$$CBV?$basic_string@DU?$char_traits@D@std@@V?$allocator@D@2@@std@@PAVCObject3D@@@std@@@2@$0A@@std@@@std@@QAEPAXI@Z ; std::_Tree_nod<std::_Tmap_traits<std::basic_string<char,std::char_traits<char>,std::allocator<char> >,CObject3D *,std::less<std::basic_string<char,std::char_traits<char>,std::allocator<char> > >,std::allocator<std::pair<std::basic_string<char,std::char_traits<char>,std::allocator<char> > const ,CObject3D *> >,0> >::_Node::`scalar deleting destructor'
; Function compile flags: /Ogty
;	COMDAT ??_G_Node@?$_Tree_nod@V?$_Tmap_traits@V?$basic_string@DU?$char_traits@D@std@@V?$allocator@D@2@@std@@PAVCObject3D@@U?$less@V?$basic_string@DU?$char_traits@D@std@@V?$allocator@D@2@@std@@@2@V?$allocator@U?$pair@$$CBV?$basic_string@DU?$char_traits@D@std@@V?$allocator@D@2@@std@@PAVCObject3D@@@std@@@2@$0A@@std@@@std@@QAEPAXI@Z
_TEXT	SEGMENT
___flags$ = 8						; size = 4
??_G_Node@?$_Tree_nod@V?$_Tmap_traits@V?$basic_string@DU?$char_traits@D@std@@V?$allocator@D@2@@std@@PAVCObject3D@@U?$less@V?$basic_string@DU?$char_traits@D@std@@V?$allocator@D@2@@std@@@2@V?$allocator@U?$pair@$$CBV?$basic_string@DU?$char_traits@D@std@@V?$allocator@D@2@@std@@PAVCObject3D@@@std@@@2@$0A@@std@@@std@@QAEPAXI@Z PROC NEAR ; std::_Tree_nod<std::_Tmap_traits<std::basic_string<char,std::char_traits<char>,std::allocator<char> >,CObject3D *,std::less<std::basic_string<char,std::char_traits<char>,std::allocator<char> > >,std::allocator<std::pair<std::basic_string<char,std::char_traits<char>,std::allocator<char> > const ,CObject3D *> >,0> >::_Node::`scalar deleting destructor', COMDAT
; _this$ = ecx
  00000	56		 push	 esi
  00001	8b f1		 mov	 esi, ecx
  00003	e8 00 00 00 00	 call	 ??1_Node@?$_Tree_nod@V?$_Tmap_traits@V?$basic_string@DU?$char_traits@D@std@@V?$allocator@D@2@@std@@PAVCObject3D@@U?$less@V?$basic_string@DU?$char_traits@D@std@@V?$allocator@D@2@@std@@@2@V?$allocator@U?$pair@$$CBV?$basic_string@DU?$char_traits@D@std@@V?$allocator@D@2@@std@@PAVCObject3D@@@std@@@2@$0A@@std@@@std@@QAE@XZ
  00008	f6 44 24 08 01	 test	 BYTE PTR ___flags$[esp], 1
  0000d	74 09		 je	 SHORT $L233307
  0000f	56		 push	 esi
  00010	e8 00 00 00 00	 call	 ??3@YAXPAX@Z		; operator delete
  00015	83 c4 04	 add	 esp, 4
$L233307:
  00018	8b c6		 mov	 eax, esi
  0001a	5e		 pop	 esi
  0001b	c2 04 00	 ret	 4
??_G_Node@?$_Tree_nod@V?$_Tmap_traits@V?$basic_string@DU?$char_traits@D@std@@V?$allocator@D@2@@std@@PAVCObject3D@@U?$less@V?$basic_string@DU?$char_traits@D@std@@V?$allocator@D@2@@std@@@2@V?$allocator@U?$pair@$$CBV?$basic_string@DU?$char_traits@D@std@@V?$allocator@D@2@@std@@PAVCObject3D@@@std@@@2@$0A@@std@@@std@@QAEPAXI@Z ENDP ; std::_Tree_nod<std::_Tmap_traits<std::basic_string<char,std::char_traits<char>,std::allocator<char> >,CObject3D *,std::less<std::basic_string<char,std::char_traits<char>,std::allocator<char> > >,std::allocator<std::pair<std::basic_string<char,std::char_traits<char>,std::allocator<char> > const ,CObject3D *> >,0> >::_Node::`scalar deleting destructor'
_TEXT	ENDS
PUBLIC	??0?$basic_string@DU?$char_traits@D@std@@V?$allocator@D@2@@std@@QAE@ABV01@@Z ; std::basic_string<char,std::char_traits<char>,std::allocator<char> >::basic_string<char,std::char_traits<char>,std::allocator<char> >
; Function compile flags: /Ogty
; File c:\program files\microsoft visual studio .net 2003\vc7\include\xstring
;	COMDAT ??0?$basic_string@DU?$char_traits@D@std@@V?$allocator@D@2@@std@@QAE@ABV01@@Z
_TEXT	SEGMENT
__Right$ = 8						; size = 4
??0?$basic_string@DU?$char_traits@D@std@@V?$allocator@D@2@@std@@QAE@ABV01@@Z PROC NEAR ; std::basic_string<char,std::char_traits<char>,std::allocator<char> >::basic_string<char,std::char_traits<char>,std::allocator<char> >, COMDAT
; _this$ = ecx

; 323  : 		{	// construct by copying _Right

  00000	56		 push	 esi

; 324  : 		_Tidy();

  00001	33 c0		 xor	 eax, eax
  00003	8b f1		 mov	 esi, ecx

; 325  : 		assign(_Right, 0, npos);

  00005	6a ff		 push	 -1
  00007	89 46 14	 mov	 DWORD PTR [esi+20], eax
  0000a	c7 46 18 0f 00
	00 00		 mov	 DWORD PTR [esi+24], 15	; 0000000fH
  00011	50		 push	 eax
  00012	88 46 04	 mov	 BYTE PTR [esi+4], al
  00015	8b 44 24 10	 mov	 eax, DWORD PTR __Right$[esp+8]
  00019	50		 push	 eax
  0001a	e8 00 00 00 00	 call	 ?assign@?$basic_string@DU?$char_traits@D@std@@V?$allocator@D@2@@std@@QAEAAV12@ABV12@II@Z ; std::basic_string<char,std::char_traits<char>,std::allocator<char> >::assign

; 326  : 		}

  0001f	8b c6		 mov	 eax, esi
  00021	5e		 pop	 esi
  00022	c2 04 00	 ret	 4
??0?$basic_string@DU?$char_traits@D@std@@V?$allocator@D@2@@std@@QAE@ABV01@@Z ENDP ; std::basic_string<char,std::char_traits<char>,std::allocator<char> >::basic_string<char,std::char_traits<char>,std::allocator<char> >
_TEXT	ENDS
PUBLIC	?assign@?$basic_string@DU?$char_traits@D@std@@V?$allocator@D@2@@std@@QAEAAV12@PBD@Z ; std::basic_string<char,std::char_traits<char>,std::allocator<char> >::assign
; Function compile flags: /Ogty
;	COMDAT ?assign@?$basic_string@DU?$char_traits@D@std@@V?$allocator@D@2@@std@@QAEAAV12@PBD@Z
_TEXT	SEGMENT
__Ptr$ = 8						; size = 4
?assign@?$basic_string@DU?$char_traits@D@std@@V?$allocator@D@2@@std@@QAEAAV12@PBD@Z PROC NEAR ; std::basic_string<char,std::char_traits<char>,std::allocator<char> >::assign, COMDAT
; _this$ = ecx

; 621  : 		{	// assign [_Ptr, <null>)

  00000	56		 push	 esi

; 622  : 		return (assign(_Ptr, _Traits::length(_Ptr)));

  00001	8b 74 24 08	 mov	 esi, DWORD PTR __Ptr$[esp]
  00005	8b c6		 mov	 eax, esi
  00007	57		 push	 edi
  00008	8d 78 01	 lea	 edi, DWORD PTR [eax+1]
  0000b	eb 03 8d 49 00	 npad	 5
$L233381:
  00010	8a 10		 mov	 dl, BYTE PTR [eax]
  00012	40		 inc	 eax
  00013	84 d2		 test	 dl, dl
  00015	75 f9		 jne	 SHORT $L233381
  00017	2b c7		 sub	 eax, edi
  00019	50		 push	 eax
  0001a	56		 push	 esi
  0001b	e8 00 00 00 00	 call	 ?assign@?$basic_string@DU?$char_traits@D@std@@V?$allocator@D@2@@std@@QAEAAV12@PBDI@Z ; std::basic_string<char,std::char_traits<char>,std::allocator<char> >::assign
  00020	5f		 pop	 edi
  00021	5e		 pop	 esi

; 623  : 		}

  00022	c2 04 00	 ret	 4
?assign@?$basic_string@DU?$char_traits@D@std@@V?$allocator@D@2@@std@@QAEAAV12@PBD@Z ENDP ; std::basic_string<char,std::char_traits<char>,std::allocator<char> >::assign
_TEXT	ENDS
PUBLIC	?find@?$_Tree@V?$_Tmap_traits@V?$basic_string@DU?$char_traits@D@std@@V?$allocator@D@2@@std@@PAVCObject3D@@U?$less@V?$basic_string@DU?$char_traits@D@std@@V?$allocator@D@2@@std@@@2@V?$allocator@U?$pair@$$CBV?$basic_string@DU?$char_traits@D@std@@V?$allocator@D@2@@std@@PAVCObject3D@@@std@@@2@$0A@@std@@@std@@QAE?AViterator@12@ABV?$basic_string@DU?$char_traits@D@std@@V?$allocator@D@2@@2@@Z ; std::_Tree<std::_Tmap_traits<std::basic_string<char,std::char_traits<char>,std::allocator<char> >,CObject3D *,std::less<std::basic_string<char,std::char_traits<char>,std::allocator<char> > >,std::allocator<std::pair<std::basic_string<char,std::char_traits<char>,std::allocator<char> > const ,CObject3D *> >,0> >::find
; Function compile flags: /Ogty
; File c:\program files\microsoft visual studio .net 2003\vc7\include\xtree
;	COMDAT ?find@?$_Tree@V?$_Tmap_traits@V?$basic_string@DU?$char_traits@D@std@@V?$allocator@D@2@@std@@PAVCObject3D@@U?$less@V?$basic_string@DU?$char_traits@D@std@@V?$allocator@D@2@@std@@@2@V?$allocator@U?$pair@$$CBV?$basic_string@DU?$char_traits@D@std@@V?$allocator@D@2@@std@@PAVCObject3D@@@std@@@2@$0A@@std@@@std@@QAE?AViterator@12@ABV?$basic_string@DU?$char_traits@D@std@@V?$allocator@D@2@@2@@Z
_TEXT	SEGMENT
$T233388 = -4						; size = 4
___$ReturnUdt$ = 8					; size = 4
__Where$ = 12						; size = 4
__Keyval$ = 12						; size = 4
?find@?$_Tree@V?$_Tmap_traits@V?$basic_string@DU?$char_traits@D@std@@V?$allocator@D@2@@std@@PAVCObject3D@@U?$less@V?$basic_string@DU?$char_traits@D@std@@V?$allocator@D@2@@std@@@2@V?$allocator@U?$pair@$$CBV?$basic_string@DU?$char_traits@D@std@@V?$allocator@D@2@@std@@PAVCObject3D@@@std@@@2@$0A@@std@@@std@@QAE?AViterator@12@ABV?$basic_string@DU?$char_traits@D@std@@V?$allocator@D@2@@2@@Z PROC NEAR ; std::_Tree<std::_Tmap_traits<std::basic_string<char,std::char_traits<char>,std::allocator<char> >,CObject3D *,std::less<std::basic_string<char,std::char_traits<char>,std::allocator<char> > >,std::allocator<std::pair<std::basic_string<char,std::char_traits<char>,std::allocator<char> > const ,CObject3D *> >,0> >::find, COMDAT
; _this$ = ecx

; 787  : 		{	// find an element in mutable sequence that matches _Keyval

  00000	51		 push	 ecx
  00001	56		 push	 esi
  00002	57		 push	 edi

; 788  : 		iterator _Where = lower_bound(_Keyval);

  00003	8b 7c 24 14	 mov	 edi, DWORD PTR __Keyval$[esp+8]
  00007	57		 push	 edi
  00008	8b f1		 mov	 esi, ecx
  0000a	e8 00 00 00 00	 call	 ?_Lbound@?$_Tree@V?$_Tmap_traits@V?$basic_string@DU?$char_traits@D@std@@V?$allocator@D@2@@std@@PAVCObject3D@@U?$less@V?$basic_string@DU?$char_traits@D@std@@V?$allocator@D@2@@std@@@2@V?$allocator@U?$pair@$$CBV?$basic_string@DU?$char_traits@D@std@@V?$allocator@D@2@@std@@PAVCObject3D@@@std@@@2@$0A@@std@@@std@@IBEPAU_Node@?$_Tree_nod@V?$_Tmap_traits@V?$basic_string@DU?$char_traits@D@std@@V?$allocator@D@2@@std@@PAVCObject3D@@U?$less@V?$basic_string@DU?$char_traits@D@std@@V?$allocator@D@2@@std@@@2@V?$allocator@U?$pair@$$CBV?$basic_string@DU?$char_traits@D@std@@V?$allocator@D@2@@std@@PAVCObject3D@@@std@@@2@$0A@@std@@@2@ABV?$basic_string@DU?$char_traits@D@std@@V?$allocator@D@2@@2@@Z ; std::_Tree<std::_Tmap_traits<std::basic_string<char,std::char_traits<char>,std::allocator<char> >,CObject3D *,std::less<std::basic_string<char,std::char_traits<char>,std::allocator<char> > >,std::allocator<std::pair<std::basic_string<char,std::char_traits<char>,std::allocator<char> > const ,CObject3D *> >,0> >::_Lbound

; 789  : 		return (_Where == end() || this->comp(_Keyval, _Key(_Where._Mynode()))
; 790  : 			? end() : _Where);

  0000f	3b 46 04	 cmp	 eax, DWORD PTR [esi+4]
  00012	89 44 24 14	 mov	 DWORD PTR __Where$[esp+8], eax
  00016	74 36		 je	 SHORT $L233387
  00018	83 78 24 10	 cmp	 DWORD PTR [eax+36], 16	; 00000010H
  0001c	8b 48 20	 mov	 ecx, DWORD PTR [eax+32]
  0001f	72 05		 jb	 SHORT $L233474
  00021	8b 40 10	 mov	 eax, DWORD PTR [eax+16]
  00024	eb 03		 jmp	 SHORT $L233475
$L233474:
  00026	83 c0 10	 add	 eax, 16			; 00000010H
$L233475:
  00029	51		 push	 ecx
  0002a	50		 push	 eax
  0002b	8b 47 14	 mov	 eax, DWORD PTR [edi+20]
  0002e	50		 push	 eax
  0002f	6a 00		 push	 0
  00031	8b cf		 mov	 ecx, edi
  00033	e8 00 00 00 00	 call	 ?compare@?$basic_string@DU?$char_traits@D@std@@V?$allocator@D@2@@std@@QBEHIIPBDI@Z ; std::basic_string<char,std::char_traits<char>,std::allocator<char> >::compare
  00038	85 c0		 test	 eax, eax
  0003a	7c 12		 jl	 SHORT $L233387
  0003c	8d 44 24 14	 lea	 eax, DWORD PTR __Where$[esp+8]
  00040	8b 10		 mov	 edx, DWORD PTR [eax]
  00042	8b 44 24 10	 mov	 eax, DWORD PTR ___$ReturnUdt$[esp+8]
  00046	5f		 pop	 edi
  00047	89 10		 mov	 DWORD PTR [eax], edx
  00049	5e		 pop	 esi

; 791  : 		}

  0004a	59		 pop	 ecx
  0004b	c2 08 00	 ret	 8
$L233387:

; 789  : 		return (_Where == end() || this->comp(_Keyval, _Key(_Where._Mynode()))
; 790  : 			? end() : _Where);

  0004e	8b 4e 04	 mov	 ecx, DWORD PTR [esi+4]
  00051	8d 44 24 08	 lea	 eax, DWORD PTR $T233388[esp+12]
  00055	89 4c 24 08	 mov	 DWORD PTR $T233388[esp+12], ecx
  00059	8b 10		 mov	 edx, DWORD PTR [eax]
  0005b	8b 44 24 10	 mov	 eax, DWORD PTR ___$ReturnUdt$[esp+8]
  0005f	5f		 pop	 edi
  00060	89 10		 mov	 DWORD PTR [eax], edx
  00062	5e		 pop	 esi

; 791  : 		}

  00063	59		 pop	 ecx
  00064	c2 08 00	 ret	 8
?find@?$_Tree@V?$_Tmap_traits@V?$basic_string@DU?$char_traits@D@std@@V?$allocator@D@2@@std@@PAVCObject3D@@U?$less@V?$basic_string@DU?$char_traits@D@std@@V?$allocator@D@2@@std@@@2@V?$allocator@U?$pair@$$CBV?$basic_string@DU?$char_traits@D@std@@V?$allocator@D@2@@std@@PAVCObject3D@@@std@@@2@$0A@@std@@@std@@QAE?AViterator@12@ABV?$basic_string@DU?$char_traits@D@std@@V?$allocator@D@2@@2@@Z ENDP ; std::_Tree<std::_Tmap_traits<std::basic_string<char,std::char_traits<char>,std::allocator<char> >,CObject3D *,std::less<std::basic_string<char,std::char_traits<char>,std::allocator<char> > >,std::allocator<std::pair<std::basic_string<char,std::char_traits<char>,std::allocator<char> > const ,CObject3D *> >,0> >::find
_TEXT	ENDS
PUBLIC	??0?$pair@$$CBV?$basic_string@DU?$char_traits@D@std@@V?$allocator@D@2@@std@@PAVCObject3D@@@std@@QAE@ABV?$basic_string@DU?$char_traits@D@std@@V?$allocator@D@2@@1@ABQAVCObject3D@@@Z ; std::pair<std::basic_string<char,std::char_traits<char>,std::allocator<char> > const ,CObject3D *>::pair<std::basic_string<char,std::char_traits<char>,std::allocator<char> > const ,CObject3D *>
; Function compile flags: /Ogty
; File c:\program files\microsoft visual studio .net 2003\vc7\include\utility
;	COMDAT ??0?$pair@$$CBV?$basic_string@DU?$char_traits@D@std@@V?$allocator@D@2@@std@@PAVCObject3D@@@std@@QAE@ABV?$basic_string@DU?$char_traits@D@std@@V?$allocator@D@2@@1@ABQAVCObject3D@@@Z
_TEXT	SEGMENT
__Val1$ = 8						; size = 4
__Val2$ = 12						; size = 4
??0?$pair@$$CBV?$basic_string@DU?$char_traits@D@std@@V?$allocator@D@2@@std@@PAVCObject3D@@@std@@QAE@ABV?$basic_string@DU?$char_traits@D@std@@V?$allocator@D@2@@1@ABQAVCObject3D@@@Z PROC NEAR ; std::pair<std::basic_string<char,std::char_traits<char>,std::allocator<char> > const ,CObject3D *>::pair<std::basic_string<char,std::char_traits<char>,std::allocator<char> > const ,CObject3D *>, COMDAT
; _this$ = ecx

; 34   : 		{	// construct from specified values

  00000	56		 push	 esi
  00001	33 c0		 xor	 eax, eax
  00003	8b f1		 mov	 esi, ecx
  00005	6a ff		 push	 -1
  00007	89 46 14	 mov	 DWORD PTR [esi+20], eax
  0000a	c7 46 18 0f 00
	00 00		 mov	 DWORD PTR [esi+24], 15	; 0000000fH
  00011	50		 push	 eax
  00012	88 46 04	 mov	 BYTE PTR [esi+4], al
  00015	8b 44 24 10	 mov	 eax, DWORD PTR __Val1$[esp+8]
  00019	50		 push	 eax
  0001a	e8 00 00 00 00	 call	 ?assign@?$basic_string@DU?$char_traits@D@std@@V?$allocator@D@2@@std@@QAEAAV12@ABV12@II@Z ; std::basic_string<char,std::char_traits<char>,std::allocator<char> >::assign
  0001f	8b 4c 24 0c	 mov	 ecx, DWORD PTR __Val2$[esp]
  00023	8b 11		 mov	 edx, DWORD PTR [ecx]
  00025	89 56 1c	 mov	 DWORD PTR [esi+28], edx

; 35   : 		}

  00028	8b c6		 mov	 eax, esi
  0002a	5e		 pop	 esi
  0002b	c2 08 00	 ret	 8
??0?$pair@$$CBV?$basic_string@DU?$char_traits@D@std@@V?$allocator@D@2@@std@@PAVCObject3D@@@std@@QAE@ABV?$basic_string@DU?$char_traits@D@std@@V?$allocator@D@2@@1@ABQAVCObject3D@@@Z ENDP ; std::pair<std::basic_string<char,std::char_traits<char>,std::allocator<char> > const ,CObject3D *>::pair<std::basic_string<char,std::char_traits<char>,std::allocator<char> > const ,CObject3D *>
_TEXT	ENDS
PUBLIC	?equal_range@?$_Tree@V?$_Tmap_traits@V?$basic_string@DU?$char_traits@D@std@@V?$allocator@D@2@@std@@PAVCObject3D@@U?$less@V?$basic_string@DU?$char_traits@D@std@@V?$allocator@D@2@@std@@@2@V?$allocator@U?$pair@$$CBV?$basic_string@DU?$char_traits@D@std@@V?$allocator@D@2@@std@@PAVCObject3D@@@std@@@2@$0A@@std@@@std@@QAE?AU?$pair@Viterator@?$_Tree@V?$_Tmap_traits@V?$basic_string@DU?$char_traits@D@std@@V?$allocator@D@2@@std@@PAVCObject3D@@U?$less@V?$basic_string@DU?$char_traits@D@std@@V?$allocator@D@2@@std@@@2@V?$allocator@U?$pair@$$CBV?$basic_string@DU?$char_traits@D@std@@V?$allocator@D@2@@std@@PAVCObject3D@@@std@@@2@$0A@@std@@@std@@V123@@2@ABV?$basic_string@DU?$char_traits@D@std@@V?$allocator@D@2@@2@@Z ; std::_Tree<std::_Tmap_traits<std::basic_string<char,std::char_traits<char>,std::allocator<char> >,CObject3D *,std::less<std::basic_string<char,std::char_traits<char>,std::allocator<char> > >,std::allocator<std::pair<std::basic_string<char,std::char_traits<char>,std::allocator<char> > const ,CObject3D *> >,0> >::equal_range
; Function compile flags: /Ogty
; File c:\program files\microsoft visual studio .net 2003\vc7\include\xtree
;	COMDAT ?equal_range@?$_Tree@V?$_Tmap_traits@V?$basic_string@DU?$char_traits@D@std@@V?$allocator@D@2@@std@@PAVCObject3D@@U?$less@V?$basic_string@DU?$char_traits@D@std@@V?$allocator@D@2@@std@@@2@V?$allocator@U?$pair@$$CBV?$basic_string@DU?$char_traits@D@std@@V?$allocator@D@2@@std@@PAVCObject3D@@@std@@@2@$0A@@std@@@std@@QAE?AU?$pair@Viterator@?$_Tree@V?$_Tmap_traits@V?$basic_string@DU?$char_traits@D@std@@V?$allocator@D@2@@std@@PAVCObject3D@@U?$less@V?$basic_string@DU?$char_traits@D@std@@V?$allocator@D@2@@std@@@2@V?$allocator@U?$pair@$$CBV?$basic_string@DU?$char_traits@D@std@@V?$allocator@D@2@@std@@PAVCObject3D@@@std@@@2@$0A@@std@@@std@@V123@@2@ABV?$basic_string@DU?$char_traits@D@std@@V?$allocator@D@2@@2@@Z
_TEXT	SEGMENT
___$ReturnUdt$ = 8					; size = 4
__Keyval$ = 12						; size = 4
?equal_range@?$_Tree@V?$_Tmap_traits@V?$basic_string@DU?$char_traits@D@std@@V?$allocator@D@2@@std@@PAVCObject3D@@U?$less@V?$basic_string@DU?$char_traits@D@std@@V?$allocator@D@2@@std@@@2@V?$allocator@U?$pair@$$CBV?$basic_string@DU?$char_traits@D@std@@V?$allocator@D@2@@std@@PAVCObject3D@@@std@@@2@$0A@@std@@@std@@QAE?AU?$pair@Viterator@?$_Tree@V?$_Tmap_traits@V?$basic_string@DU?$char_traits@D@std@@V?$allocator@D@2@@std@@PAVCObject3D@@U?$less@V?$basic_string@DU?$char_traits@D@std@@V?$allocator@D@2@@std@@@2@V?$allocator@U?$pair@$$CBV?$basic_string@DU?$char_traits@D@std@@V?$allocator@D@2@@std@@PAVCObject3D@@@std@@@2@$0A@@std@@@std@@V123@@2@ABV?$basic_string@DU?$char_traits@D@std@@V?$allocator@D@2@@2@@Z PROC NEAR ; std::_Tree<std::_Tmap_traits<std::basic_string<char,std::char_traits<char>,std::allocator<char> >,CObject3D *,std::less<std::basic_string<char,std::char_traits<char>,std::allocator<char> > >,std::allocator<std::pair<std::basic_string<char,std::char_traits<char>,std::allocator<char> > const ,CObject3D *> >,0> >::equal_range, COMDAT
; _this$ = ecx

; 829  : 		{	// find range equivalent to _Keyval in mutable tree

  00000	53		 push	 ebx
  00001	56		 push	 esi
  00002	57		 push	 edi

; 830  : 		return (_Pairii(lower_bound(_Keyval), upper_bound(_Keyval)));

  00003	8b 7c 24 14	 mov	 edi, DWORD PTR __Keyval$[esp+8]
  00007	57		 push	 edi
  00008	8b f1		 mov	 esi, ecx
  0000a	e8 00 00 00 00	 call	 ?_Ubound@?$_Tree@V?$_Tmap_traits@V?$basic_string@DU?$char_traits@D@std@@V?$allocator@D@2@@std@@PAVCObject3D@@U?$less@V?$basic_string@DU?$char_traits@D@std@@V?$allocator@D@2@@std@@@2@V?$allocator@U?$pair@$$CBV?$basic_string@DU?$char_traits@D@std@@V?$allocator@D@2@@std@@PAVCObject3D@@@std@@@2@$0A@@std@@@std@@IBEPAU_Node@?$_Tree_nod@V?$_Tmap_traits@V?$basic_string@DU?$char_traits@D@std@@V?$allocator@D@2@@std@@PAVCObject3D@@U?$less@V?$basic_string@DU?$char_traits@D@std@@V?$allocator@D@2@@std@@@2@V?$allocator@U?$pair@$$CBV?$basic_string@DU?$char_traits@D@std@@V?$allocator@D@2@@std@@PAVCObject3D@@@std@@@2@$0A@@std@@@2@ABV?$basic_string@DU?$char_traits@D@std@@V?$allocator@D@2@@2@@Z ; std::_Tree<std::_Tmap_traits<std::basic_string<char,std::char_traits<char>,std::allocator<char> >,CObject3D *,std::less<std::basic_string<char,std::char_traits<char>,std::allocator<char> > >,std::allocator<std::pair<std::basic_string<char,std::char_traits<char>,std::allocator<char> > const ,CObject3D *> >,0> >::_Ubound
  0000f	57		 push	 edi
  00010	8b ce		 mov	 ecx, esi
  00012	8b d8		 mov	 ebx, eax
  00014	e8 00 00 00 00	 call	 ?_Lbound@?$_Tree@V?$_Tmap_traits@V?$basic_string@DU?$char_traits@D@std@@V?$allocator@D@2@@std@@PAVCObject3D@@U?$less@V?$basic_string@DU?$char_traits@D@std@@V?$allocator@D@2@@std@@@2@V?$allocator@U?$pair@$$CBV?$basic_string@DU?$char_traits@D@std@@V?$allocator@D@2@@std@@PAVCObject3D@@@std@@@2@$0A@@std@@@std@@IBEPAU_Node@?$_Tree_nod@V?$_Tmap_traits@V?$basic_string@DU?$char_traits@D@std@@V?$allocator@D@2@@std@@PAVCObject3D@@U?$less@V?$basic_string@DU?$char_traits@D@std@@V?$allocator@D@2@@std@@@2@V?$allocator@U?$pair@$$CBV?$basic_string@DU?$char_traits@D@std@@V?$allocator@D@2@@std@@PAVCObject3D@@@std@@@2@$0A@@std@@@2@ABV?$basic_string@DU?$char_traits@D@std@@V?$allocator@D@2@@2@@Z ; std::_Tree<std::_Tmap_traits<std::basic_string<char,std::char_traits<char>,std::allocator<char> >,CObject3D *,std::less<std::basic_string<char,std::char_traits<char>,std::allocator<char> > >,std::allocator<std::pair<std::basic_string<char,std::char_traits<char>,std::allocator<char> > const ,CObject3D *> >,0> >::_Lbound
  00019	8b 4c 24 10	 mov	 ecx, DWORD PTR ___$ReturnUdt$[esp+8]
  0001d	5f		 pop	 edi
  0001e	5e		 pop	 esi
  0001f	89 01		 mov	 DWORD PTR [ecx], eax
  00021	89 59 04	 mov	 DWORD PTR [ecx+4], ebx
  00024	8b c1		 mov	 eax, ecx
  00026	5b		 pop	 ebx

; 831  : 		}

  00027	c2 08 00	 ret	 8
?equal_range@?$_Tree@V?$_Tmap_traits@V?$basic_string@DU?$char_traits@D@std@@V?$allocator@D@2@@std@@PAVCObject3D@@U?$less@V?$basic_string@DU?$char_traits@D@std@@V?$allocator@D@2@@std@@@2@V?$allocator@U?$pair@$$CBV?$basic_string@DU?$char_traits@D@std@@V?$allocator@D@2@@std@@PAVCObject3D@@@std@@@2@$0A@@std@@@std@@QAE?AU?$pair@Viterator@?$_Tree@V?$_Tmap_traits@V?$basic_string@DU?$char_traits@D@std@@V?$allocator@D@2@@std@@PAVCObject3D@@U?$less@V?$basic_string@DU?$char_traits@D@std@@V?$allocator@D@2@@std@@@2@V?$allocator@U?$pair@$$CBV?$basic_string@DU?$char_traits@D@std@@V?$allocator@D@2@@std@@PAVCObject3D@@@std@@@2@$0A@@std@@@std@@V123@@2@ABV?$basic_string@DU?$char_traits@D@std@@V?$allocator@D@2@@2@@Z ENDP ; std::_Tree<std::_Tmap_traits<std::basic_string<char,std::char_traits<char>,std::allocator<char> >,CObject3D *,std::less<std::basic_string<char,std::char_traits<char>,std::allocator<char> > >,std::allocator<std::pair<std::basic_string<char,std::char_traits<char>,std::allocator<char> > const ,CObject3D *> >,0> >::equal_range
_TEXT	ENDS
PUBLIC	??0?$pair@$$CBV?$basic_string@DU?$char_traits@D@std@@V?$allocator@D@2@@std@@PAVCObject3D@@@std@@QAE@ABU01@@Z ; std::pair<std::basic_string<char,std::char_traits<char>,std::allocator<char> > const ,CObject3D *>::pair<std::basic_string<char,std::char_traits<char>,std::allocator<char> > const ,CObject3D *>
; Function compile flags: /Ogty
;	COMDAT ??0?$pair@$$CBV?$basic_string@DU?$char_traits@D@std@@V?$allocator@D@2@@std@@PAVCObject3D@@@std@@QAE@ABU01@@Z
_TEXT	SEGMENT
___that$ = 8						; size = 4
??0?$pair@$$CBV?$basic_string@DU?$char_traits@D@std@@V?$allocator@D@2@@std@@PAVCObject3D@@@std@@QAE@ABU01@@Z PROC NEAR ; std::pair<std::basic_string<char,std::char_traits<char>,std::allocator<char> > const ,CObject3D *>::pair<std::basic_string<char,std::char_traits<char>,std::allocator<char> > const ,CObject3D *>, COMDAT
; _this$ = ecx
  00000	56		 push	 esi
  00001	57		 push	 edi
  00002	8b 7c 24 0c	 mov	 edi, DWORD PTR ___that$[esp+4]
  00006	33 c0		 xor	 eax, eax
  00008	6a ff		 push	 -1
  0000a	8b f1		 mov	 esi, ecx
  0000c	50		 push	 eax
  0000d	c7 46 18 0f 00
	00 00		 mov	 DWORD PTR [esi+24], 15	; 0000000fH
  00014	89 46 14	 mov	 DWORD PTR [esi+20], eax
  00017	57		 push	 edi
  00018	88 46 04	 mov	 BYTE PTR [esi+4], al
  0001b	e8 00 00 00 00	 call	 ?assign@?$basic_string@DU?$char_traits@D@std@@V?$allocator@D@2@@std@@QAEAAV12@ABV12@II@Z ; std::basic_string<char,std::char_traits<char>,std::allocator<char> >::assign
  00020	8b 47 1c	 mov	 eax, DWORD PTR [edi+28]
  00023	89 46 1c	 mov	 DWORD PTR [esi+28], eax
  00026	5f		 pop	 edi
  00027	8b c6		 mov	 eax, esi
  00029	5e		 pop	 esi
  0002a	c2 04 00	 ret	 4
??0?$pair@$$CBV?$basic_string@DU?$char_traits@D@std@@V?$allocator@D@2@@std@@PAVCObject3D@@@std@@QAE@ABU01@@Z ENDP ; std::pair<std::basic_string<char,std::char_traits<char>,std::allocator<char> > const ,CObject3D *>::pair<std::basic_string<char,std::char_traits<char>,std::allocator<char> > const ,CObject3D *>
_TEXT	ENDS
PUBLIC	??$_Destroy@U_Node@?$_Tree_nod@V?$_Tmap_traits@V?$basic_string@DU?$char_traits@D@std@@V?$allocator@D@2@@std@@PAVCObject3D@@U?$less@V?$basic_string@DU?$char_traits@D@std@@V?$allocator@D@2@@std@@@2@V?$allocator@U?$pair@$$CBV?$basic_string@DU?$char_traits@D@std@@V?$allocator@D@2@@std@@PAVCObject3D@@@std@@@2@$0A@@std@@@std@@@std@@YAXPAU_Node@?$_Tree_nod@V?$_Tmap_traits@V?$basic_string@DU?$char_traits@D@std@@V?$allocator@D@2@@std@@PAVCObject3D@@U?$less@V?$basic_string@DU?$char_traits@D@std@@V?$allocator@D@2@@std@@@2@V?$allocator@U?$pair@$$CBV?$basic_string@DU?$char_traits@D@std@@V?$allocator@D@2@@std@@PAVCObject3D@@@std@@@2@$0A@@std@@@0@@Z ; std::_Destroy<std::_Tree_nod<std::_Tmap_traits<std::basic_string<char,std::char_traits<char>,std::allocator<char> >,CObject3D *,std::less<std::basic_string<char,std::char_traits<char>,std::allocator<char> > >,std::allocator<std::pair<std::basic_string<char,std::char_traits<char>,std::allocator<char> > const ,CObject3D *> >,0> >::_Node>
; Function compile flags: /Ogty
; File c:\program files\microsoft visual studio .net 2003\vc7\include\xmemory
;	COMDAT ??$_Destroy@U_Node@?$_Tree_nod@V?$_Tmap_traits@V?$basic_string@DU?$char_traits@D@std@@V?$allocator@D@2@@std@@PAVCObject3D@@U?$less@V?$basic_string@DU?$char_traits@D@std@@V?$allocator@D@2@@std@@@2@V?$allocator@U?$pair@$$CBV?$basic_string@DU?$char_traits@D@std@@V?$allocator@D@2@@std@@PAVCObject3D@@@std@@@2@$0A@@std@@@std@@@std@@YAXPAU_Node@?$_Tree_nod@V?$_Tmap_traits@V?$basic_string@DU?$char_traits@D@std@@V?$allocator@D@2@@std@@PAVCObject3D@@U?$less@V?$basic_string@DU?$char_traits@D@std@@V?$allocator@D@2@@std@@@2@V?$allocator@U?$pair@$$CBV?$basic_string@DU?$char_traits@D@std@@V?$allocator@D@2@@std@@PAVCObject3D@@@std@@@2@$0A@@std@@@0@@Z
_TEXT	SEGMENT
__Ptr$ = 8						; size = 4
??$_Destroy@U_Node@?$_Tree_nod@V?$_Tmap_traits@V?$basic_string@DU?$char_traits@D@std@@V?$allocator@D@2@@std@@PAVCObject3D@@U?$less@V?$basic_string@DU?$char_traits@D@std@@V?$allocator@D@2@@std@@@2@V?$allocator@U?$pair@$$CBV?$basic_string@DU?$char_traits@D@std@@V?$allocator@D@2@@std@@PAVCObject3D@@@std@@@2@$0A@@std@@@std@@@std@@YAXPAU_Node@?$_Tree_nod@V?$_Tmap_traits@V?$basic_string@DU?$char_traits@D@std@@V?$allocator@D@2@@std@@PAVCObject3D@@U?$less@V?$basic_string@DU?$char_traits@D@std@@V?$allocator@D@2@@std@@@2@V?$allocator@U?$pair@$$CBV?$basic_string@DU?$char_traits@D@std@@V?$allocator@D@2@@std@@PAVCObject3D@@@std@@@2@$0A@@std@@@0@@Z PROC NEAR ; std::_Destroy<std::_Tree_nod<std::_Tmap_traits<std::basic_string<char,std::char_traits<char>,std::allocator<char> >,CObject3D *,std::less<std::basic_string<char,std::char_traits<char>,std::allocator<char> > >,std::allocator<std::pair<std::basic_string<char,std::char_traits<char>,std::allocator<char> > const ,CObject3D *> >,0> >::_Node>, COMDAT

; 49   : 	_DESTRUCTOR(_Ty, _Ptr);

  00000	8b 4c 24 04	 mov	 ecx, DWORD PTR __Ptr$[esp-4]
  00004	e9 00 00 00 00	 jmp	 ??1_Node@?$_Tree_nod@V?$_Tmap_traits@V?$basic_string@DU?$char_traits@D@std@@V?$allocator@D@2@@std@@PAVCObject3D@@U?$less@V?$basic_string@DU?$char_traits@D@std@@V?$allocator@D@2@@std@@@2@V?$allocator@U?$pair@$$CBV?$basic_string@DU?$char_traits@D@std@@V?$allocator@D@2@@std@@PAVCObject3D@@@std@@@2@$0A@@std@@@std@@QAE@XZ
??$_Destroy@U_Node@?$_Tree_nod@V?$_Tmap_traits@V?$basic_string@DU?$char_traits@D@std@@V?$allocator@D@2@@std@@PAVCObject3D@@U?$less@V?$basic_string@DU?$char_traits@D@std@@V?$allocator@D@2@@std@@@2@V?$allocator@U?$pair@$$CBV?$basic_string@DU?$char_traits@D@std@@V?$allocator@D@2@@std@@PAVCObject3D@@@std@@@2@$0A@@std@@@std@@@std@@YAXPAU_Node@?$_Tree_nod@V?$_Tmap_traits@V?$basic_string@DU?$char_traits@D@std@@V?$allocator@D@2@@std@@PAVCObject3D@@U?$less@V?$basic_string@DU?$char_traits@D@std@@V?$allocator@D@2@@std@@@2@V?$allocator@U?$pair@$$CBV?$basic_string@DU?$char_traits@D@std@@V?$allocator@D@2@@std@@PAVCObject3D@@@std@@@2@$0A@@std@@@0@@Z ENDP ; std::_Destroy<std::_Tree_nod<std::_Tmap_traits<std::basic_string<char,std::char_traits<char>,std::allocator<char> >,CObject3D *,std::less<std::basic_string<char,std::char_traits<char>,std::allocator<char> > >,std::allocator<std::pair<std::basic_string<char,std::char_traits<char>,std::allocator<char> > const ,CObject3D *> >,0> >::_Node>
_TEXT	ENDS
PUBLIC	??0logic_error@std@@QAE@ABV?$basic_string@DU?$char_traits@D@std@@V?$allocator@D@2@@1@@Z ; std::logic_error::logic_error
EXTRN	??0exception@@QAE@XZ:NEAR			; exception::exception
;	COMDAT xdata$x
; File c:\program files\microsoft visual studio .net 2003\vc7\include\iosfwd
xdata$x	SEGMENT
$T233848 DD	0ffffffffH
	DD	FLAT:$L233748
$T233846 DD	019930520H
	DD	01H
	DD	FLAT:$T233848
	DD	2 DUP(00H)
	DD	2 DUP(00H)
; Function compile flags: /Ogty
; File c:\program files\microsoft visual studio .net 2003\vc7\include\stdexcept
xdata$x	ENDS
;	COMDAT ??0logic_error@std@@QAE@ABV?$basic_string@DU?$char_traits@D@std@@V?$allocator@D@2@@1@@Z
_TEXT	SEGMENT
_this$ = -16						; size = 4
__$EHRec$ = -12						; size = 12
__Message$ = 8						; size = 4
??0logic_error@std@@QAE@ABV?$basic_string@DU?$char_traits@D@std@@V?$allocator@D@2@@1@@Z PROC NEAR ; std::logic_error::logic_error, COMDAT
; _this$ = ecx

; 19   : 		{	// construct from message string

  00000	6a ff		 push	 -1
  00002	68 00 00 00 00	 push	 __ehhandler$??0logic_error@std@@QAE@ABV?$basic_string@DU?$char_traits@D@std@@V?$allocator@D@2@@1@@Z
  00007	64 a1 00 00 00
	00		 mov	 eax, DWORD PTR fs:__except_list
  0000d	50		 push	 eax
  0000e	64 89 25 00 00
	00 00		 mov	 DWORD PTR fs:__except_list, esp
  00015	51		 push	 ecx
  00016	56		 push	 esi
  00017	8b f1		 mov	 esi, ecx
  00019	89 74 24 04	 mov	 DWORD PTR _this$[esp+20], esi
  0001d	e8 00 00 00 00	 call	 ??0exception@@QAE@XZ	; exception::exception
  00022	33 c0		 xor	 eax, eax
  00024	8d 4e 0c	 lea	 ecx, DWORD PTR [esi+12]
  00027	c7 06 00 00 00
	00		 mov	 DWORD PTR [esi], OFFSET FLAT:??_7logic_error@std@@6B@
  0002d	6a ff		 push	 -1
  0002f	89 41 14	 mov	 DWORD PTR [ecx+20], eax
  00032	c7 41 18 0f 00
	00 00		 mov	 DWORD PTR [ecx+24], 15	; 0000000fH
  00039	50		 push	 eax
  0003a	89 44 24 18	 mov	 DWORD PTR __$EHRec$[esp+36], eax
  0003e	88 41 04	 mov	 BYTE PTR [ecx+4], al
  00041	8b 44 24 20	 mov	 eax, DWORD PTR __Message$[esp+24]
  00045	50		 push	 eax
  00046	e8 00 00 00 00	 call	 ?assign@?$basic_string@DU?$char_traits@D@std@@V?$allocator@D@2@@std@@QAEAAV12@ABV12@II@Z ; std::basic_string<char,std::char_traits<char>,std::allocator<char> >::assign

; 20   : 		}

  0004b	8b 4c 24 08	 mov	 ecx, DWORD PTR __$EHRec$[esp+20]
  0004f	8b c6		 mov	 eax, esi
  00051	5e		 pop	 esi
  00052	64 89 0d 00 00
	00 00		 mov	 DWORD PTR fs:__except_list, ecx
  00059	83 c4 10	 add	 esp, 16			; 00000010H
  0005c	c2 04 00	 ret	 4
_TEXT	ENDS
;	COMDAT text$x
text$x	SEGMENT
$L233748:
  00000	8b 4d f0	 mov	 ecx, DWORD PTR _this$[ebp]
  00003	e9 00 00 00 00	 jmp	 ??1exception@@UAE@XZ	; exception::~exception
__ehhandler$??0logic_error@std@@QAE@ABV?$basic_string@DU?$char_traits@D@std@@V?$allocator@D@2@@1@@Z:
  00008	b8 00 00 00 00	 mov	 eax, OFFSET FLAT:$T233846
  0000d	e9 00 00 00 00	 jmp	 ___CxxFrameHandler
text$x	ENDS
??0logic_error@std@@QAE@ABV?$basic_string@DU?$char_traits@D@std@@V?$allocator@D@2@@1@@Z ENDP ; std::logic_error::logic_error
PUBLIC	??0length_error@std@@QAE@ABV?$basic_string@DU?$char_traits@D@std@@V?$allocator@D@2@@1@@Z ; std::length_error::length_error
PUBLIC	??_7length_error@std@@6B@			; std::length_error::`vftable'
PUBLIC	??_Glength_error@std@@UAEPAXI@Z			; std::length_error::`scalar deleting destructor'
EXTRN	??_Elength_error@std@@UAEPAXI@Z:NEAR		; std::length_error::`vector deleting destructor'
;	COMDAT ??_7length_error@std@@6B@
CONST	SEGMENT
??_7length_error@std@@6B@ DD FLAT:??_Elength_error@std@@UAEPAXI@Z ; std::length_error::`vftable'
	DD	FLAT:?what@logic_error@std@@UBEPBDXZ
; Function compile flags: /Ogty
CONST	ENDS
;	COMDAT ??0length_error@std@@QAE@ABV?$basic_string@DU?$char_traits@D@std@@V?$allocator@D@2@@1@@Z
_TEXT	SEGMENT
__Message$ = 8						; size = 4
??0length_error@std@@QAE@ABV?$basic_string@DU?$char_traits@D@std@@V?$allocator@D@2@@1@@Z PROC NEAR ; std::length_error::length_error, COMDAT
; _this$ = ecx

; 95   : 		{	// construct from message string

  00000	8b 44 24 04	 mov	 eax, DWORD PTR __Message$[esp-4]
  00004	56		 push	 esi
  00005	50		 push	 eax
  00006	8b f1		 mov	 esi, ecx
  00008	e8 00 00 00 00	 call	 ??0logic_error@std@@QAE@ABV?$basic_string@DU?$char_traits@D@std@@V?$allocator@D@2@@1@@Z ; std::logic_error::logic_error
  0000d	c7 06 00 00 00
	00		 mov	 DWORD PTR [esi], OFFSET FLAT:??_7length_error@std@@6B@

; 96   : 		}

  00013	8b c6		 mov	 eax, esi
  00015	5e		 pop	 esi
  00016	c2 04 00	 ret	 4
??0length_error@std@@QAE@ABV?$basic_string@DU?$char_traits@D@std@@V?$allocator@D@2@@1@@Z ENDP ; std::length_error::length_error
_TEXT	ENDS
PUBLIC	??1length_error@std@@UAE@XZ			; std::length_error::~length_error
; Function compile flags: /Ogty
;	COMDAT ??_Glength_error@std@@UAEPAXI@Z
_TEXT	SEGMENT
___flags$ = 8						; size = 4
??_Glength_error@std@@UAEPAXI@Z PROC NEAR		; std::length_error::`scalar deleting destructor', COMDAT
; _this$ = ecx
  00000	56		 push	 esi
  00001	8b f1		 mov	 esi, ecx
  00003	e8 00 00 00 00	 call	 ??1length_error@std@@UAE@XZ ; std::length_error::~length_error
  00008	f6 44 24 08 01	 test	 BYTE PTR ___flags$[esp], 1
  0000d	74 09		 je	 SHORT $L233858
  0000f	56		 push	 esi
  00010	e8 00 00 00 00	 call	 ??3@YAXPAX@Z		; operator delete
  00015	83 c4 04	 add	 esp, 4
$L233858:
  00018	8b c6		 mov	 eax, esi
  0001a	5e		 pop	 esi
  0001b	c2 04 00	 ret	 4
??_Glength_error@std@@UAEPAXI@Z ENDP			; std::length_error::`scalar deleting destructor'
; Function compile flags: /Ogty
_TEXT	ENDS
;	COMDAT ??1length_error@std@@UAE@XZ
_TEXT	SEGMENT
??1length_error@std@@UAE@XZ PROC NEAR			; std::length_error::~length_error, COMDAT
; _this$ = ecx

; 99   : 		{}	// destroy the object

  00000	56		 push	 esi
  00001	8b f1		 mov	 esi, ecx
  00003	c7 06 00 00 00
	00		 mov	 DWORD PTR [esi], OFFSET FLAT:??_7logic_error@std@@6B@
  00009	83 7e 24 10	 cmp	 DWORD PTR [esi+36], 16	; 00000010H
  0000d	72 0c		 jb	 SHORT $L233945
  0000f	8b 46 10	 mov	 eax, DWORD PTR [esi+16]
  00012	50		 push	 eax
  00013	e8 00 00 00 00	 call	 ??3@YAXPAX@Z		; operator delete
  00018	83 c4 04	 add	 esp, 4
$L233945:
  0001b	33 c0		 xor	 eax, eax
  0001d	c7 46 24 0f 00
	00 00		 mov	 DWORD PTR [esi+36], 15	; 0000000fH
  00024	89 46 20	 mov	 DWORD PTR [esi+32], eax
  00027	88 46 10	 mov	 BYTE PTR [esi+16], al
  0002a	8b ce		 mov	 ecx, esi
  0002c	5e		 pop	 esi
  0002d	e9 00 00 00 00	 jmp	 ??1exception@@UAE@XZ	; exception::~exception
??1length_error@std@@UAE@XZ ENDP			; std::length_error::~length_error
_TEXT	ENDS
PUBLIC	??0out_of_range@std@@QAE@ABV?$basic_string@DU?$char_traits@D@std@@V?$allocator@D@2@@1@@Z ; std::out_of_range::out_of_range
PUBLIC	??_7out_of_range@std@@6B@			; std::out_of_range::`vftable'
PUBLIC	??_Gout_of_range@std@@UAEPAXI@Z			; std::out_of_range::`scalar deleting destructor'
EXTRN	??_Eout_of_range@std@@UAEPAXI@Z:NEAR		; std::out_of_range::`vector deleting destructor'
;	COMDAT ??_7out_of_range@std@@6B@
CONST	SEGMENT
??_7out_of_range@std@@6B@ DD FLAT:??_Eout_of_range@std@@UAEPAXI@Z ; std::out_of_range::`vftable'
	DD	FLAT:?what@logic_error@std@@UBEPBDXZ
; Function compile flags: /Ogty
CONST	ENDS
;	COMDAT ??0out_of_range@std@@QAE@ABV?$basic_string@DU?$char_traits@D@std@@V?$allocator@D@2@@1@@Z
_TEXT	SEGMENT
__Message$ = 8						; size = 4
??0out_of_range@std@@QAE@ABV?$basic_string@DU?$char_traits@D@std@@V?$allocator@D@2@@1@@Z PROC NEAR ; std::out_of_range::out_of_range, COMDAT
; _this$ = ecx

; 118  : 		{	// construct from message string

  00000	8b 44 24 04	 mov	 eax, DWORD PTR __Message$[esp-4]
  00004	56		 push	 esi
  00005	50		 push	 eax
  00006	8b f1		 mov	 esi, ecx
  00008	e8 00 00 00 00	 call	 ??0logic_error@std@@QAE@ABV?$basic_string@DU?$char_traits@D@std@@V?$allocator@D@2@@1@@Z ; std::logic_error::logic_error
  0000d	c7 06 00 00 00
	00		 mov	 DWORD PTR [esi], OFFSET FLAT:??_7out_of_range@std@@6B@

; 119  : 		}

  00013	8b c6		 mov	 eax, esi
  00015	5e		 pop	 esi
  00016	c2 04 00	 ret	 4
??0out_of_range@std@@QAE@ABV?$basic_string@DU?$char_traits@D@std@@V?$allocator@D@2@@1@@Z ENDP ; std::out_of_range::out_of_range
_TEXT	ENDS
PUBLIC	??1out_of_range@std@@UAE@XZ			; std::out_of_range::~out_of_range
; Function compile flags: /Ogty
;	COMDAT ??_Gout_of_range@std@@UAEPAXI@Z
_TEXT	SEGMENT
___flags$ = 8						; size = 4
??_Gout_of_range@std@@UAEPAXI@Z PROC NEAR		; std::out_of_range::`scalar deleting destructor', COMDAT
; _this$ = ecx
  00000	56		 push	 esi
  00001	8b f1		 mov	 esi, ecx
  00003	e8 00 00 00 00	 call	 ??1out_of_range@std@@UAE@XZ ; std::out_of_range::~out_of_range
  00008	f6 44 24 08 01	 test	 BYTE PTR ___flags$[esp], 1
  0000d	74 09		 je	 SHORT $L233972
  0000f	56		 push	 esi
  00010	e8 00 00 00 00	 call	 ??3@YAXPAX@Z		; operator delete
  00015	83 c4 04	 add	 esp, 4
$L233972:
  00018	8b c6		 mov	 eax, esi
  0001a	5e		 pop	 esi
  0001b	c2 04 00	 ret	 4
??_Gout_of_range@std@@UAEPAXI@Z ENDP			; std::out_of_range::`scalar deleting destructor'
; Function compile flags: /Ogty
_TEXT	ENDS
;	COMDAT ??1out_of_range@std@@UAE@XZ
_TEXT	SEGMENT
??1out_of_range@std@@UAE@XZ PROC NEAR			; std::out_of_range::~out_of_range, COMDAT
; _this$ = ecx

; 122  : 		{}	// destroy the object

  00000	56		 push	 esi
  00001	8b f1		 mov	 esi, ecx
  00003	c7 06 00 00 00
	00		 mov	 DWORD PTR [esi], OFFSET FLAT:??_7logic_error@std@@6B@
  00009	83 7e 24 10	 cmp	 DWORD PTR [esi+36], 16	; 00000010H
  0000d	72 0c		 jb	 SHORT $L234060
  0000f	8b 46 10	 mov	 eax, DWORD PTR [esi+16]
  00012	50		 push	 eax
  00013	e8 00 00 00 00	 call	 ??3@YAXPAX@Z		; operator delete
  00018	83 c4 04	 add	 esp, 4
$L234060:
  0001b	33 c0		 xor	 eax, eax
  0001d	c7 46 24 0f 00
	00 00		 mov	 DWORD PTR [esi+36], 15	; 0000000fH
  00024	89 46 20	 mov	 DWORD PTR [esi+32], eax
  00027	88 46 10	 mov	 BYTE PTR [esi+16], al
  0002a	8b ce		 mov	 ecx, esi
  0002c	5e		 pop	 esi
  0002d	e9 00 00 00 00	 jmp	 ??1exception@@UAE@XZ	; exception::~exception
??1out_of_range@std@@UAE@XZ ENDP			; std::out_of_range::~out_of_range
_TEXT	ENDS
PUBLIC	??0?$basic_string@DU?$char_traits@D@std@@V?$allocator@D@2@@std@@QAE@PBD@Z ; std::basic_string<char,std::char_traits<char>,std::allocator<char> >::basic_string<char,std::char_traits<char>,std::allocator<char> >
; Function compile flags: /Ogty
; File c:\program files\microsoft visual studio .net 2003\vc7\include\xstring
;	COMDAT ??0?$basic_string@DU?$char_traits@D@std@@V?$allocator@D@2@@std@@QAE@PBD@Z
_TEXT	SEGMENT
__Ptr$ = 8						; size = 4
??0?$basic_string@DU?$char_traits@D@std@@V?$allocator@D@2@@std@@QAE@PBD@Z PROC NEAR ; std::basic_string<char,std::char_traits<char>,std::allocator<char> >::basic_string<char,std::char_traits<char>,std::allocator<char> >, COMDAT
; _this$ = ecx

; 361  : 		_Tidy();
; 362  : 		assign(_Ptr);

  00000	8b 54 24 04	 mov	 edx, DWORD PTR __Ptr$[esp-4]
  00004	56		 push	 esi
  00005	8b f1		 mov	 esi, ecx
  00007	8b c2		 mov	 eax, edx
  00009	57		 push	 edi
  0000a	c7 46 18 0f 00
	00 00		 mov	 DWORD PTR [esi+24], 15	; 0000000fH
  00011	c7 46 14 00 00
	00 00		 mov	 DWORD PTR [esi+20], 0
  00018	c6 46 04 00	 mov	 BYTE PTR [esi+4], 0
  0001c	8d 78 01	 lea	 edi, DWORD PTR [eax+1]
  0001f	90		 npad	 1
$L234154:
  00020	8a 08		 mov	 cl, BYTE PTR [eax]
  00022	40		 inc	 eax
  00023	84 c9		 test	 cl, cl
  00025	75 f9		 jne	 SHORT $L234154
  00027	2b c7		 sub	 eax, edi
  00029	50		 push	 eax
  0002a	52		 push	 edx
  0002b	8b ce		 mov	 ecx, esi
  0002d	e8 00 00 00 00	 call	 ?assign@?$basic_string@DU?$char_traits@D@std@@V?$allocator@D@2@@std@@QAEAAV12@PBDI@Z ; std::basic_string<char,std::char_traits<char>,std::allocator<char> >::assign
  00032	5f		 pop	 edi

; 363  : 		}

  00033	8b c6		 mov	 eax, esi
  00035	5e		 pop	 esi
  00036	c2 04 00	 ret	 4
??0?$basic_string@DU?$char_traits@D@std@@V?$allocator@D@2@@std@@QAE@PBD@Z ENDP ; std::basic_string<char,std::char_traits<char>,std::allocator<char> >::basic_string<char,std::char_traits<char>,std::allocator<char> >
_TEXT	ENDS
PUBLIC	?destroy@?$allocator@U_Node@?$_Tree_nod@V?$_Tmap_traits@V?$basic_string@DU?$char_traits@D@std@@V?$allocator@D@2@@std@@PAVCObject3D@@U?$less@V?$basic_string@DU?$char_traits@D@std@@V?$allocator@D@2@@std@@@2@V?$allocator@U?$pair@$$CBV?$basic_string@DU?$char_traits@D@std@@V?$allocator@D@2@@std@@PAVCObject3D@@@std@@@2@$0A@@std@@@std@@@std@@QAEXPAU_Node@?$_Tree_nod@V?$_Tmap_traits@V?$basic_string@DU?$char_traits@D@std@@V?$allocator@D@2@@std@@PAVCObject3D@@U?$less@V?$basic_string@DU?$char_traits@D@std@@V?$allocator@D@2@@std@@@2@V?$allocator@U?$pair@$$CBV?$basic_string@DU?$char_traits@D@std@@V?$allocator@D@2@@std@@PAVCObject3D@@@std@@@2@$0A@@std@@@2@@Z ; std::allocator<std::_Tree_nod<std::_Tmap_traits<std::basic_string<char,std::char_traits<char>,std::allocator<char> >,CObject3D *,std::less<std::basic_string<char,std::char_traits<char>,std::allocator<char> > >,std::allocator<std::pair<std::basic_string<char,std::char_traits<char>,std::allocator<char> > const ,CObject3D *> >,0> >::_Node>::destroy
; Function compile flags: /Ogty
; File c:\program files\microsoft visual studio .net 2003\vc7\include\xmemory
;	COMDAT ?destroy@?$allocator@U_Node@?$_Tree_nod@V?$_Tmap_traits@V?$basic_string@DU?$char_traits@D@std@@V?$allocator@D@2@@std@@PAVCObject3D@@U?$less@V?$basic_string@DU?$char_traits@D@std@@V?$allocator@D@2@@std@@@2@V?$allocator@U?$pair@$$CBV?$basic_string@DU?$char_traits@D@std@@V?$allocator@D@2@@std@@PAVCObject3D@@@std@@@2@$0A@@std@@@std@@@std@@QAEXPAU_Node@?$_Tree_nod@V?$_Tmap_traits@V?$basic_string@DU?$char_traits@D@std@@V?$allocator@D@2@@std@@PAVCObject3D@@U?$less@V?$basic_string@DU?$char_traits@D@std@@V?$allocator@D@2@@std@@@2@V?$allocator@U?$pair@$$CBV?$basic_string@DU?$char_traits@D@std@@V?$allocator@D@2@@std@@PAVCObject3D@@@std@@@2@$0A@@std@@@2@@Z
_TEXT	SEGMENT
__Ptr$ = 8						; size = 4
?destroy@?$allocator@U_Node@?$_Tree_nod@V?$_Tmap_traits@V?$basic_string@DU?$char_traits@D@std@@V?$allocator@D@2@@std@@PAVCObject3D@@U?$less@V?$basic_string@DU?$char_traits@D@std@@V?$allocator@D@2@@std@@@2@V?$allocator@U?$pair@$$CBV?$basic_string@DU?$char_traits@D@std@@V?$allocator@D@2@@std@@PAVCObject3D@@@std@@@2@$0A@@std@@@std@@@std@@QAEXPAU_Node@?$_Tree_nod@V?$_Tmap_traits@V?$basic_string@DU?$char_traits@D@std@@V?$allocator@D@2@@std@@PAVCObject3D@@U?$less@V?$basic_string@DU?$char_traits@D@std@@V?$allocator@D@2@@std@@@2@V?$allocator@U?$pair@$$CBV?$basic_string@DU?$char_traits@D@std@@V?$allocator@D@2@@std@@PAVCObject3D@@@std@@@2@$0A@@std@@@2@@Z PROC NEAR ; std::allocator<std::_Tree_nod<std::_Tmap_traits<std::basic_string<char,std::char_traits<char>,std::allocator<char> >,CObject3D *,std::less<std::basic_string<char,std::char_traits<char>,std::allocator<char> > >,std::allocator<std::pair<std::basic_string<char,std::char_traits<char>,std::allocator<char> > const ,CObject3D *> >,0> >::_Node>::destroy, COMDAT
; _this$ = ecx

; 152  : 		_Destroy(_Ptr);

  00000	8b 4c 24 04	 mov	 ecx, DWORD PTR __Ptr$[esp-4]
  00004	e8 00 00 00 00	 call	 ??1_Node@?$_Tree_nod@V?$_Tmap_traits@V?$basic_string@DU?$char_traits@D@std@@V?$allocator@D@2@@std@@PAVCObject3D@@U?$less@V?$basic_string@DU?$char_traits@D@std@@V?$allocator@D@2@@std@@@2@V?$allocator@U?$pair@$$CBV?$basic_string@DU?$char_traits@D@std@@V?$allocator@D@2@@std@@PAVCObject3D@@@std@@@2@$0A@@std@@@std@@QAE@XZ

; 153  : 		}

  00009	c2 04 00	 ret	 4
?destroy@?$allocator@U_Node@?$_Tree_nod@V?$_Tmap_traits@V?$basic_string@DU?$char_traits@D@std@@V?$allocator@D@2@@std@@PAVCObject3D@@U?$less@V?$basic_string@DU?$char_traits@D@std@@V?$allocator@D@2@@std@@@2@V?$allocator@U?$pair@$$CBV?$basic_string@DU?$char_traits@D@std@@V?$allocator@D@2@@std@@PAVCObject3D@@@std@@@2@$0A@@std@@@std@@@std@@QAEXPAU_Node@?$_Tree_nod@V?$_Tmap_traits@V?$basic_string@DU?$char_traits@D@std@@V?$allocator@D@2@@std@@PAVCObject3D@@U?$less@V?$basic_string@DU?$char_traits@D@std@@V?$allocator@D@2@@std@@@2@V?$allocator@U?$pair@$$CBV?$basic_string@DU?$char_traits@D@std@@V?$allocator@D@2@@std@@PAVCObject3D@@@std@@@2@$0A@@std@@@2@@Z ENDP ; std::allocator<std::_Tree_nod<std::_Tmap_traits<std::basic_string<char,std::char_traits<char>,std::allocator<char> >,CObject3D *,std::less<std::basic_string<char,std::char_traits<char>,std::allocator<char> > >,std::allocator<std::pair<std::basic_string<char,std::char_traits<char>,std::allocator<char> > const ,CObject3D *> >,0> >::_Node>::destroy
_TEXT	ENDS
PUBLIC	??0_Node@?$_Tree_nod@V?$_Tmap_traits@V?$basic_string@DU?$char_traits@D@std@@V?$allocator@D@2@@std@@PAVCObject3D@@U?$less@V?$basic_string@DU?$char_traits@D@std@@V?$allocator@D@2@@std@@@2@V?$allocator@U?$pair@$$CBV?$basic_string@DU?$char_traits@D@std@@V?$allocator@D@2@@std@@PAVCObject3D@@@std@@@2@$0A@@std@@@std@@QAE@PAU012@00ABU?$pair@$$CBV?$basic_string@DU?$char_traits@D@std@@V?$allocator@D@2@@std@@PAVCObject3D@@@2@D@Z ; std::_Tree_nod<std::_Tmap_traits<std::basic_string<char,std::char_traits<char>,std::allocator<char> >,CObject3D *,std::less<std::basic_string<char,std::char_traits<char>,std::allocator<char> > >,std::allocator<std::pair<std::basic_string<char,std::char_traits<char>,std::allocator<char> > const ,CObject3D *> >,0> >::_Node::_Node
; Function compile flags: /Ogty
; File c:\program files\microsoft visual studio .net 2003\vc7\include\xtree
;	COMDAT ??0_Node@?$_Tree_nod@V?$_Tmap_traits@V?$basic_string@DU?$char_traits@D@std@@V?$allocator@D@2@@std@@PAVCObject3D@@U?$less@V?$basic_string@DU?$char_traits@D@std@@V?$allocator@D@2@@std@@@2@V?$allocator@U?$pair@$$CBV?$basic_string@DU?$char_traits@D@std@@V?$allocator@D@2@@std@@PAVCObject3D@@@std@@@2@$0A@@std@@@std@@QAE@PAU012@00ABU?$pair@$$CBV?$basic_string@DU?$char_traits@D@std@@V?$allocator@D@2@@std@@PAVCObject3D@@@2@D@Z
_TEXT	SEGMENT
__Larg$ = 8						; size = 4
__Parg$ = 12						; size = 4
__Rarg$ = 16						; size = 4
__Val$ = 20						; size = 4
__Carg$ = 24						; size = 1
??0_Node@?$_Tree_nod@V?$_Tmap_traits@V?$basic_string@DU?$char_traits@D@std@@V?$allocator@D@2@@std@@PAVCObject3D@@U?$less@V?$basic_string@DU?$char_traits@D@std@@V?$allocator@D@2@@std@@@2@V?$allocator@U?$pair@$$CBV?$basic_string@DU?$char_traits@D@std@@V?$allocator@D@2@@std@@PAVCObject3D@@@std@@@2@$0A@@std@@@std@@QAE@PAU012@00ABU?$pair@$$CBV?$basic_string@DU?$char_traits@D@std@@V?$allocator@D@2@@std@@PAVCObject3D@@@2@D@Z PROC NEAR ; std::_Tree_nod<std::_Tmap_traits<std::basic_string<char,std::char_traits<char>,std::allocator<char> >,CObject3D *,std::less<std::basic_string<char,std::char_traits<char>,std::allocator<char> > >,std::allocator<std::pair<std::basic_string<char,std::char_traits<char>,std::allocator<char> > const ,CObject3D *> >,0> >::_Node::_Node, COMDAT
; _this$ = ecx

; 40   : 			{	// construct a node with value

  00000	8b 44 24 04	 mov	 eax, DWORD PTR __Larg$[esp-4]
  00004	8b 54 24 0c	 mov	 edx, DWORD PTR __Rarg$[esp-4]
  00008	55		 push	 ebp
  00009	8b 6c 24 14	 mov	 ebp, DWORD PTR __Val$[esp]
  0000d	56		 push	 esi
  0000e	57		 push	 edi
  0000f	8b f1		 mov	 esi, ecx
  00011	8b 4c 24 14	 mov	 ecx, DWORD PTR __Parg$[esp+8]
  00015	6a ff		 push	 -1
  00017	89 4e 04	 mov	 DWORD PTR [esi+4], ecx
  0001a	8d 7e 0c	 lea	 edi, DWORD PTR [esi+12]
  0001d	89 06		 mov	 DWORD PTR [esi], eax
  0001f	89 56 08	 mov	 DWORD PTR [esi+8], edx
  00022	6a 00		 push	 0
  00024	c7 47 18 0f 00
	00 00		 mov	 DWORD PTR [edi+24], 15	; 0000000fH
  0002b	c7 47 14 00 00
	00 00		 mov	 DWORD PTR [edi+20], 0
  00032	55		 push	 ebp
  00033	8b cf		 mov	 ecx, edi
  00035	c6 47 04 00	 mov	 BYTE PTR [edi+4], 0
  00039	e8 00 00 00 00	 call	 ?assign@?$basic_string@DU?$char_traits@D@std@@V?$allocator@D@2@@std@@QAEAAV12@ABV12@II@Z ; std::basic_string<char,std::char_traits<char>,std::allocator<char> >::assign
  0003e	8b 45 1c	 mov	 eax, DWORD PTR [ebp+28]
  00041	8a 4c 24 20	 mov	 cl, BYTE PTR __Carg$[esp+8]
  00045	89 47 1c	 mov	 DWORD PTR [edi+28], eax
  00048	5f		 pop	 edi
  00049	88 4e 2c	 mov	 BYTE PTR [esi+44], cl
  0004c	c6 46 2d 00	 mov	 BYTE PTR [esi+45], 0

; 41   : 			}

  00050	8b c6		 mov	 eax, esi
  00052	5e		 pop	 esi
  00053	5d		 pop	 ebp
  00054	c2 14 00	 ret	 20			; 00000014H
??0_Node@?$_Tree_nod@V?$_Tmap_traits@V?$basic_string@DU?$char_traits@D@std@@V?$allocator@D@2@@std@@PAVCObject3D@@U?$less@V?$basic_string@DU?$char_traits@D@std@@V?$allocator@D@2@@std@@@2@V?$allocator@U?$pair@$$CBV?$basic_string@DU?$char_traits@D@std@@V?$allocator@D@2@@std@@PAVCObject3D@@@std@@@2@$0A@@std@@@std@@QAE@PAU012@00ABU?$pair@$$CBV?$basic_string@DU?$char_traits@D@std@@V?$allocator@D@2@@std@@PAVCObject3D@@@2@D@Z ENDP ; std::_Tree_nod<std::_Tmap_traits<std::basic_string<char,std::char_traits<char>,std::allocator<char> >,CObject3D *,std::less<std::basic_string<char,std::char_traits<char>,std::allocator<char> > >,std::allocator<std::pair<std::basic_string<char,std::char_traits<char>,std::allocator<char> > const ,CObject3D *> >,0> >::_Node::_Node
_TEXT	ENDS
PUBLIC	?_Erase@?$_Tree@V?$_Tmap_traits@V?$basic_string@DU?$char_traits@D@std@@V?$allocator@D@2@@std@@PAVCObject3D@@U?$less@V?$basic_string@DU?$char_traits@D@std@@V?$allocator@D@2@@std@@@2@V?$allocator@U?$pair@$$CBV?$basic_string@DU?$char_traits@D@std@@V?$allocator@D@2@@std@@PAVCObject3D@@@std@@@2@$0A@@std@@@std@@IAEXPAU_Node@?$_Tree_nod@V?$_Tmap_traits@V?$basic_string@DU?$char_traits@D@std@@V?$allocator@D@2@@std@@PAVCObject3D@@U?$less@V?$basic_string@DU?$char_traits@D@std@@V?$allocator@D@2@@std@@@2@V?$allocator@U?$pair@$$CBV?$basic_string@DU?$char_traits@D@std@@V?$allocator@D@2@@std@@PAVCObject3D@@@std@@@2@$0A@@std@@@2@@Z ; std::_Tree<std::_Tmap_traits<std::basic_string<char,std::char_traits<char>,std::allocator<char> >,CObject3D *,std::less<std::basic_string<char,std::char_traits<char>,std::allocator<char> > >,std::allocator<std::pair<std::basic_string<char,std::char_traits<char>,std::allocator<char> > const ,CObject3D *> >,0> >::_Erase
; Function compile flags: /Ogty
;	COMDAT ?_Erase@?$_Tree@V?$_Tmap_traits@V?$basic_string@DU?$char_traits@D@std@@V?$allocator@D@2@@std@@PAVCObject3D@@U?$less@V?$basic_string@DU?$char_traits@D@std@@V?$allocator@D@2@@std@@@2@V?$allocator@U?$pair@$$CBV?$basic_string@DU?$char_traits@D@std@@V?$allocator@D@2@@std@@PAVCObject3D@@@std@@@2@$0A@@std@@@std@@IAEXPAU_Node@?$_Tree_nod@V?$_Tmap_traits@V?$basic_string@DU?$char_traits@D@std@@V?$allocator@D@2@@std@@PAVCObject3D@@U?$less@V?$basic_string@DU?$char_traits@D@std@@V?$allocator@D@2@@std@@@2@V?$allocator@U?$pair@$$CBV?$basic_string@DU?$char_traits@D@std@@V?$allocator@D@2@@std@@PAVCObject3D@@@std@@@2@$0A@@std@@@2@@Z
_TEXT	SEGMENT
__Rootnode$ = 8						; size = 4
?_Erase@?$_Tree@V?$_Tmap_traits@V?$basic_string@DU?$char_traits@D@std@@V?$allocator@D@2@@std@@PAVCObject3D@@U?$less@V?$basic_string@DU?$char_traits@D@std@@V?$allocator@D@2@@std@@@2@V?$allocator@U?$pair@$$CBV?$basic_string@DU?$char_traits@D@std@@V?$allocator@D@2@@std@@PAVCObject3D@@@std@@@2@$0A@@std@@@std@@IAEXPAU_Node@?$_Tree_nod@V?$_Tmap_traits@V?$basic_string@DU?$char_traits@D@std@@V?$allocator@D@2@@std@@PAVCObject3D@@U?$less@V?$basic_string@DU?$char_traits@D@std@@V?$allocator@D@2@@std@@@2@V?$allocator@U?$pair@$$CBV?$basic_string@DU?$char_traits@D@std@@V?$allocator@D@2@@std@@PAVCObject3D@@@std@@@2@$0A@@std@@@2@@Z PROC NEAR ; std::_Tree<std::_Tmap_traits<std::basic_string<char,std::char_traits<char>,std::allocator<char> >,CObject3D *,std::less<std::basic_string<char,std::char_traits<char>,std::allocator<char> > >,std::allocator<std::pair<std::basic_string<char,std::char_traits<char>,std::allocator<char> > const ,CObject3D *> >,0> >::_Erase, COMDAT
; _this$ = ecx

; 890  : 		{	// free entire subtree, recursively

  00000	53		 push	 ebx
  00001	56		 push	 esi
  00002	57		 push	 edi

; 891  : 		for (_Nodeptr _Pnode = _Rootnode; !_Isnil(_Pnode); _Rootnode = _Pnode)

  00003	8b 7c 24 10	 mov	 edi, DWORD PTR __Rootnode$[esp+8]
  00007	8a 47 2d	 mov	 al, BYTE PTR [edi+45]
  0000a	84 c0		 test	 al, al
  0000c	8b d9		 mov	 ebx, ecx
  0000e	8b f7		 mov	 esi, edi
  00010	75 26		 jne	 SHORT $L227065
$L227063:

; 892  : 			{	// free subtrees, then node
; 893  : 			_Erase(_Right(_Pnode));

  00012	8b 46 08	 mov	 eax, DWORD PTR [esi+8]
  00015	50		 push	 eax
  00016	8b cb		 mov	 ecx, ebx
  00018	e8 00 00 00 00	 call	 ?_Erase@?$_Tree@V?$_Tmap_traits@V?$basic_string@DU?$char_traits@D@std@@V?$allocator@D@2@@std@@PAVCObject3D@@U?$less@V?$basic_string@DU?$char_traits@D@std@@V?$allocator@D@2@@std@@@2@V?$allocator@U?$pair@$$CBV?$basic_string@DU?$char_traits@D@std@@V?$allocator@D@2@@std@@PAVCObject3D@@@std@@@2@$0A@@std@@@std@@IAEXPAU_Node@?$_Tree_nod@V?$_Tmap_traits@V?$basic_string@DU?$char_traits@D@std@@V?$allocator@D@2@@std@@PAVCObject3D@@U?$less@V?$basic_string@DU?$char_traits@D@std@@V?$allocator@D@2@@std@@@2@V?$allocator@U?$pair@$$CBV?$basic_string@DU?$char_traits@D@std@@V?$allocator@D@2@@std@@PAVCObject3D@@@std@@@2@$0A@@std@@@2@@Z ; std::_Tree<std::_Tmap_traits<std::basic_string<char,std::char_traits<char>,std::allocator<char> >,CObject3D *,std::less<std::basic_string<char,std::char_traits<char>,std::allocator<char> > >,std::allocator<std::pair<std::basic_string<char,std::char_traits<char>,std::allocator<char> > const ,CObject3D *> >,0> >::_Erase

; 894  : 			_Pnode = _Left(_Pnode);

  0001d	8b 36		 mov	 esi, DWORD PTR [esi]

; 895  : 			this->_Alnod.destroy(_Rootnode);	// destroy, free erased node

  0001f	8b cf		 mov	 ecx, edi
  00021	e8 00 00 00 00	 call	 ??1_Node@?$_Tree_nod@V?$_Tmap_traits@V?$basic_string@DU?$char_traits@D@std@@V?$allocator@D@2@@std@@PAVCObject3D@@U?$less@V?$basic_string@DU?$char_traits@D@std@@V?$allocator@D@2@@std@@@2@V?$allocator@U?$pair@$$CBV?$basic_string@DU?$char_traits@D@std@@V?$allocator@D@2@@std@@PAVCObject3D@@@std@@@2@$0A@@std@@@std@@QAE@XZ

; 896  : 			this->_Alnod.deallocate(_Rootnode, 1);

  00026	57		 push	 edi
  00027	e8 00 00 00 00	 call	 ??3@YAXPAX@Z		; operator delete
  0002c	8a 46 2d	 mov	 al, BYTE PTR [esi+45]
  0002f	83 c4 04	 add	 esp, 4
  00032	84 c0		 test	 al, al
  00034	8b fe		 mov	 edi, esi
  00036	74 da		 je	 SHORT $L227063
$L227065:
  00038	5f		 pop	 edi
  00039	5e		 pop	 esi
  0003a	5b		 pop	 ebx

; 897  : 			}
; 898  : 		}

  0003b	c2 04 00	 ret	 4
?_Erase@?$_Tree@V?$_Tmap_traits@V?$basic_string@DU?$char_traits@D@std@@V?$allocator@D@2@@std@@PAVCObject3D@@U?$less@V?$basic_string@DU?$char_traits@D@std@@V?$allocator@D@2@@std@@@2@V?$allocator@U?$pair@$$CBV?$basic_string@DU?$char_traits@D@std@@V?$allocator@D@2@@std@@PAVCObject3D@@@std@@@2@$0A@@std@@@std@@IAEXPAU_Node@?$_Tree_nod@V?$_Tmap_traits@V?$basic_string@DU?$char_traits@D@std@@V?$allocator@D@2@@std@@PAVCObject3D@@U?$less@V?$basic_string@DU?$char_traits@D@std@@V?$allocator@D@2@@std@@@2@V?$allocator@U?$pair@$$CBV?$basic_string@DU?$char_traits@D@std@@V?$allocator@D@2@@std@@PAVCObject3D@@@std@@@2@$0A@@std@@@2@@Z ENDP ; std::_Tree<std::_Tmap_traits<std::basic_string<char,std::char_traits<char>,std::allocator<char> >,CObject3D *,std::less<std::basic_string<char,std::char_traits<char>,std::allocator<char> > >,std::allocator<std::pair<std::basic_string<char,std::char_traits<char>,std::allocator<char> > const ,CObject3D *> >,0> >::_Erase
_TEXT	ENDS
PUBLIC	??_R0?AVlogic_error@std@@@8			; std::logic_error `RTTI Type Descriptor'
PUBLIC	__CT??_R0?AVlogic_error@std@@@8??0logic_error@std@@QAE@ABV01@@Z40
PUBLIC	??_R0?AVexception@@@8				; exception `RTTI Type Descriptor'
PUBLIC	__CT??_R0?AVexception@@@8??0exception@@QAE@ABV0@@Z12
PUBLIC	__TI3?AVout_of_range@std@@
PUBLIC	__CTA3?AVout_of_range@std@@
PUBLIC	??_R0?AVout_of_range@std@@@8			; std::out_of_range `RTTI Type Descriptor'
PUBLIC	__CT??_R0?AVout_of_range@std@@@8??0out_of_range@std@@QAE@ABV01@@Z40
PUBLIC	??_C@_0BM@PAPJHAGI@invalid?5map?1set?$DMT?$DO?5iterator?$AA@ ; `string'
PUBLIC	??0logic_error@std@@QAE@ABV01@@Z		; std::logic_error::logic_error
PUBLIC	?erase@?$_Tree@V?$_Tmap_traits@V?$basic_string@DU?$char_traits@D@std@@V?$allocator@D@2@@std@@PAVCObject3D@@U?$less@V?$basic_string@DU?$char_traits@D@std@@V?$allocator@D@2@@std@@@2@V?$allocator@U?$pair@$$CBV?$basic_string@DU?$char_traits@D@std@@V?$allocator@D@2@@std@@PAVCObject3D@@@std@@@2@$0A@@std@@@std@@QAE?AViterator@12@V312@@Z ; std::_Tree<std::_Tmap_traits<std::basic_string<char,std::char_traits<char>,std::allocator<char> >,CObject3D *,std::less<std::basic_string<char,std::char_traits<char>,std::allocator<char> > >,std::allocator<std::pair<std::basic_string<char,std::char_traits<char>,std::allocator<char> > const ,CObject3D *> >,0> >::erase
PUBLIC	??0out_of_range@std@@QAE@ABV01@@Z		; std::out_of_range::out_of_range
EXTRN	??0exception@@QAE@ABV0@@Z:NEAR			; exception::exception
EXTRN	??_7type_info@@6B@:DWORD			; type_info::`vftable'
;	COMDAT xdata$x
; File c:\program files\microsoft visual studio .net 2003\vc7\include\xmemory
xdata$x	SEGMENT
$T235052 DD	0ffffffffH
	DD	FLAT:$L234344
$T235044 DD	019930520H
	DD	01H
	DD	FLAT:$T235052
	DD	2 DUP(00H)
	DD	2 DUP(00H)
xdata$x	ENDS
;	COMDAT ??_C@_0BM@PAPJHAGI@invalid?5map?1set?$DMT?$DO?5iterator?$AA@
CONST	SEGMENT
??_C@_0BM@PAPJHAGI@invalid?5map?1set?$DMT?$DO?5iterator?$AA@ DB 'invalid '
	DB	'map/set<T> iterator', 00H			; `string'
CONST	ENDS
;	COMDAT __TI3?AVout_of_range@std@@
xdata$x	SEGMENT
__TI3?AVout_of_range@std@@ DD 00H
	DD	FLAT:??1out_of_range@std@@UAE@XZ
	DD	00H
	DD	FLAT:__CTA3?AVout_of_range@std@@
xdata$x	ENDS
;	COMDAT __CTA3?AVout_of_range@std@@
xdata$x	SEGMENT
__CTA3?AVout_of_range@std@@ DD 03H
	DD	FLAT:__CT??_R0?AVout_of_range@std@@@8??0out_of_range@std@@QAE@ABV01@@Z40
	DD	FLAT:__CT??_R0?AVlogic_error@std@@@8??0logic_error@std@@QAE@ABV01@@Z40
	DD	FLAT:__CT??_R0?AVexception@@@8??0exception@@QAE@ABV0@@Z12
xdata$x	ENDS
;	COMDAT __CT??_R0?AVout_of_range@std@@@8??0out_of_range@std@@QAE@ABV01@@Z40
xdata$x	SEGMENT
__CT??_R0?AVout_of_range@std@@@8??0out_of_range@std@@QAE@ABV01@@Z40 DD 00H
	DD	FLAT:??_R0?AVout_of_range@std@@@8
	DD	00H
	DD	0ffffffffH
	ORG $+4
	DD	028H
	DD	FLAT:??0out_of_range@std@@QAE@ABV01@@Z
xdata$x	ENDS
;	COMDAT ??_R0?AVout_of_range@std@@@8
_DATA	SEGMENT
??_R0?AVout_of_range@std@@@8 DD FLAT:??_7type_info@@6B@	; std::out_of_range `RTTI Type Descriptor'
	DD	00H
	DB	'.?AVout_of_range@std@@', 00H
_DATA	ENDS
;	COMDAT __CT??_R0?AVlogic_error@std@@@8??0logic_error@std@@QAE@ABV01@@Z40
xdata$x	SEGMENT
__CT??_R0?AVlogic_error@std@@@8??0logic_error@std@@QAE@ABV01@@Z40 DD 00H
	DD	FLAT:??_R0?AVlogic_error@std@@@8
	DD	00H
	DD	0ffffffffH
	ORG $+4
	DD	028H
	DD	FLAT:??0logic_error@std@@QAE@ABV01@@Z
xdata$x	ENDS
;	COMDAT ??_R0?AVlogic_error@std@@@8
_DATA	SEGMENT
??_R0?AVlogic_error@std@@@8 DD FLAT:??_7type_info@@6B@	; std::logic_error `RTTI Type Descriptor'
	DD	00H
	DB	'.?AVlogic_error@std@@', 00H
_DATA	ENDS
;	COMDAT __CT??_R0?AVexception@@@8??0exception@@QAE@ABV0@@Z12
xdata$x	SEGMENT
__CT??_R0?AVexception@@@8??0exception@@QAE@ABV0@@Z12 DD 00H
	DD	FLAT:??_R0?AVexception@@@8
	DD	00H
	DD	0ffffffffH
	ORG $+4
	DD	0cH
	DD	FLAT:??0exception@@QAE@ABV0@@Z
xdata$x	ENDS
;	COMDAT ??_R0?AVexception@@@8
_DATA	SEGMENT
??_R0?AVexception@@@8 DD FLAT:??_7type_info@@6B@	; exception `RTTI Type Descriptor'
	DD	00H
	DB	'.?AVexception@@', 00H
; Function compile flags: /Ogty
; File c:\program files\microsoft visual studio .net 2003\vc7\include\xtree
_DATA	ENDS
;	COMDAT ?erase@?$_Tree@V?$_Tmap_traits@V?$basic_string@DU?$char_traits@D@std@@V?$allocator@D@2@@std@@PAVCObject3D@@U?$less@V?$basic_string@DU?$char_traits@D@std@@V?$allocator@D@2@@std@@@2@V?$allocator@U?$pair@$$CBV?$basic_string@DU?$char_traits@D@std@@V?$allocator@D@2@@std@@PAVCObject3D@@@std@@@2@$0A@@std@@@std@@QAE?AViterator@12@V312@@Z
_TEXT	SEGMENT
_this$ = -84						; size = 4
$T234339 = -80						; size = 28
$T234338 = -52						; size = 40
__$EHRec$ = -12						; size = 12
___$ReturnUdt$ = 8					; size = 4
__Where$ = 12						; size = 4
?erase@?$_Tree@V?$_Tmap_traits@V?$basic_string@DU?$char_traits@D@std@@V?$allocator@D@2@@std@@PAVCObject3D@@U?$less@V?$basic_string@DU?$char_traits@D@std@@V?$allocator@D@2@@std@@@2@V?$allocator@U?$pair@$$CBV?$basic_string@DU?$char_traits@D@std@@V?$allocator@D@2@@std@@PAVCObject3D@@@std@@@2@$0A@@std@@@std@@QAE?AViterator@12@V312@@Z PROC NEAR ; std::_Tree<std::_Tmap_traits<std::basic_string<char,std::char_traits<char>,std::allocator<char> >,CObject3D *,std::less<std::basic_string<char,std::char_traits<char>,std::allocator<char> > >,std::allocator<std::pair<std::basic_string<char,std::char_traits<char>,std::allocator<char> > const ,CObject3D *> >,0> >::erase, COMDAT
; _this$ = ecx

; 590  : 		{	// erase element at _Where

  00000	6a ff		 push	 -1
  00002	68 00 00 00 00	 push	 __ehhandler$?erase@?$_Tree@V?$_Tmap_traits@V?$basic_string@DU?$char_traits@D@std@@V?$allocator@D@2@@std@@PAVCObject3D@@U?$less@V?$basic_string@DU?$char_traits@D@std@@V?$allocator@D@2@@std@@@2@V?$allocator@U?$pair@$$CBV?$basic_string@DU?$char_traits@D@std@@V?$allocator@D@2@@std@@PAVCObject3D@@@std@@@2@$0A@@std@@@std@@QAE?AViterator@12@V312@@Z
  00007	64 a1 00 00 00
	00		 mov	 eax, DWORD PTR fs:__except_list
  0000d	50		 push	 eax
  0000e	64 89 25 00 00
	00 00		 mov	 DWORD PTR fs:__except_list, esp
  00015	83 ec 48	 sub	 esp, 72			; 00000048H

; 591  : 		if (_Isnil(_Where._Mynode()))

  00018	8b 44 24 5c	 mov	 eax, DWORD PTR __Where$[esp+80]
  0001c	53		 push	 ebx
  0001d	8b d9		 mov	 ebx, ecx
  0001f	8a 48 2d	 mov	 cl, BYTE PTR [eax+45]
  00022	84 c9		 test	 cl, cl
  00024	56		 push	 esi
  00025	89 5c 24 08	 mov	 DWORD PTR _this$[esp+92], ebx
  00029	74 4c		 je	 SHORT $L227185

; 592  : 			_THROW(out_of_range, "invalid map/set<T> iterator");

  0002b	6a 1b		 push	 27			; 0000001bH
  0002d	33 f6		 xor	 esi, esi
  0002f	68 00 00 00 00	 push	 OFFSET FLAT:??_C@_0BM@PAPJHAGI@invalid?5map?1set?$DMT?$DO?5iterator?$AA@
  00034	8d 4c 24 14	 lea	 ecx, DWORD PTR $T234339[esp+100]
  00038	c7 44 24 2c 0f
	00 00 00	 mov	 DWORD PTR $T234339[esp+124], 15 ; 0000000fH
  00040	89 74 24 28	 mov	 DWORD PTR $T234339[esp+120], esi
  00044	c6 44 24 18 00	 mov	 BYTE PTR $T234339[esp+104], 0
  00049	e8 00 00 00 00	 call	 ?assign@?$basic_string@DU?$char_traits@D@std@@V?$allocator@D@2@@std@@QAEAAV12@PBDI@Z ; std::basic_string<char,std::char_traits<char>,std::allocator<char> >::assign
  0004e	8d 44 24 0c	 lea	 eax, DWORD PTR $T234339[esp+92]
  00052	50		 push	 eax
  00053	8d 4c 24 2c	 lea	 ecx, DWORD PTR $T234338[esp+96]
  00057	89 74 24 5c	 mov	 DWORD PTR __$EHRec$[esp+104], esi
  0005b	e8 00 00 00 00	 call	 ??0logic_error@std@@QAE@ABV?$basic_string@DU?$char_traits@D@std@@V?$allocator@D@2@@1@@Z ; std::logic_error::logic_error
  00060	68 00 00 00 00	 push	 OFFSET FLAT:__TI3?AVout_of_range@std@@
  00065	8d 4c 24 2c	 lea	 ecx, DWORD PTR $T234338[esp+96]
  00069	51		 push	 ecx
  0006a	c7 44 24 30 00
	00 00 00	 mov	 DWORD PTR $T234338[esp+100], OFFSET FLAT:??_7out_of_range@std@@6B@
  00072	e8 00 00 00 00	 call	 __CxxThrowException@8
$L235053:
$L227185:
  00077	55		 push	 ebp
  00078	57		 push	 edi

; 593  : 		_Nodeptr _Erasednode = _Where._Mynode();	// node to erase
; 594  : 		++_Where;	// save successor iterator for return

  00079	8d 4c 24 6c	 lea	 ecx, DWORD PTR __Where$[esp+96]
  0007d	8b e8		 mov	 ebp, eax
  0007f	e8 00 00 00 00	 call	 ?_Inc@const_iterator@?$_Tree@V?$_Tmap_traits@V?$basic_string@DU?$char_traits@D@std@@V?$allocator@D@2@@std@@PAVCObject3D@@U?$less@V?$basic_string@DU?$char_traits@D@std@@V?$allocator@D@2@@std@@@2@V?$allocator@U?$pair@$$CBV?$basic_string@DU?$char_traits@D@std@@V?$allocator@D@2@@std@@PAVCObject3D@@@std@@@2@$0A@@std@@@std@@QAEXXZ ; std::_Tree<std::_Tmap_traits<std::basic_string<char,std::char_traits<char>,std::allocator<char> >,CObject3D *,std::less<std::basic_string<char,std::char_traits<char>,std::allocator<char> > >,std::allocator<std::pair<std::basic_string<char,std::char_traits<char>,std::allocator<char> > const ,CObject3D *> >,0> >::const_iterator::_Inc

; 595  : 
; 596  : 		_Nodeptr _Fixnode;	// the node to recolor as needed
; 597  : 		_Nodeptr _Fixnodeparent;	// parent of _Fixnode (which may be nil)
; 598  : 		_Nodeptr _Pnode = _Erasednode;
; 599  : 
; 600  : 		if (_Isnil(_Left(_Pnode)))

  00084	8b 45 00	 mov	 eax, DWORD PTR [ebp]
  00087	8a 48 2d	 mov	 cl, BYTE PTR [eax+45]
  0008a	84 c9		 test	 cl, cl
  0008c	74 05		 je	 SHORT $L227193

; 601  : 			_Fixnode = _Right(_Pnode);	// must stitch up right subtree

  0008e	8b 7d 08	 mov	 edi, DWORD PTR [ebp+8]

; 602  : 		else if (_Isnil(_Right(_Pnode)))

  00091	eb 19		 jmp	 SHORT $L235047
$L227193:
  00093	8b 55 08	 mov	 edx, DWORD PTR [ebp+8]
  00096	8a 4a 2d	 mov	 cl, BYTE PTR [edx+45]
  00099	84 c9		 test	 cl, cl
  0009b	74 04		 je	 SHORT $L227195

; 603  : 			_Fixnode = _Left(_Pnode);	// must stitch up left subtree

  0009d	8b f8		 mov	 edi, eax

; 604  : 		else

  0009f	eb 0b		 jmp	 SHORT $L235047
$L227195:

; 605  : 			{	// two subtrees, must lift successor node to replace erased
; 606  : 			_Pnode = _Where._Mynode();	// _Pnode is successor node
; 607  : 			_Fixnode = _Right(_Pnode);	// _Fixnode is its only subtree

  000a1	8b 4c 24 6c	 mov	 ecx, DWORD PTR __Where$[esp+96]

; 608  : 			}
; 609  : 
; 610  : 		if (_Pnode == _Erasednode)

  000a5	3b cd		 cmp	 ecx, ebp
  000a7	8b 79 08	 mov	 edi, DWORD PTR [ecx+8]
  000aa	75 6a		 jne	 SHORT $L227197
$L235047:

; 611  : 			{	// at most one subtree, relink it
; 612  : 			_Fixnodeparent = _Parent(_Erasednode);
; 613  : 			if (!_Isnil(_Fixnode))

  000ac	8a 47 2d	 mov	 al, BYTE PTR [edi+45]
  000af	84 c0		 test	 al, al
  000b1	8b 75 04	 mov	 esi, DWORD PTR [ebp+4]
  000b4	75 03		 jne	 SHORT $L227198

; 614  : 				_Parent(_Fixnode) = _Fixnodeparent;	// link up

  000b6	89 77 04	 mov	 DWORD PTR [edi+4], esi
$L227198:

; 615  : 
; 616  : 			if (_Root() == _Erasednode)

  000b9	8b 43 04	 mov	 eax, DWORD PTR [ebx+4]
  000bc	39 68 04	 cmp	 DWORD PTR [eax+4], ebp
  000bf	75 05		 jne	 SHORT $L227199

; 617  : 				_Root() = _Fixnode;	// link down from root

  000c1	89 78 04	 mov	 DWORD PTR [eax+4], edi

; 618  : 			else if (_Left(_Fixnodeparent) == _Erasednode)

  000c4	eb 0b		 jmp	 SHORT $L227202
$L227199:
  000c6	39 2e		 cmp	 DWORD PTR [esi], ebp
  000c8	75 04		 jne	 SHORT $L227201

; 619  : 				_Left(_Fixnodeparent) = _Fixnode;	// link down to left

  000ca	89 3e		 mov	 DWORD PTR [esi], edi

; 620  : 			else

  000cc	eb 03		 jmp	 SHORT $L227202
$L227201:

; 621  : 				_Right(_Fixnodeparent) = _Fixnode;	// link down to right

  000ce	89 7e 08	 mov	 DWORD PTR [esi+8], edi
$L227202:

; 622  : 
; 623  : 			if (_Lmost() == _Erasednode)

  000d1	8b 5b 04	 mov	 ebx, DWORD PTR [ebx+4]
  000d4	39 2b		 cmp	 DWORD PTR [ebx], ebp
  000d6	75 16		 jne	 SHORT $L227203

; 624  : 				_Lmost() = _Isnil(_Fixnode)
; 625  : 					? _Fixnodeparent	// smallest is parent of erased node
; 626  : 					: _Min(_Fixnode);	// smallest in relinked subtree

  000d8	8a 47 2d	 mov	 al, BYTE PTR [edi+45]
  000db	84 c0		 test	 al, al
  000dd	74 04		 je	 SHORT $L234340
  000df	8b c6		 mov	 eax, esi
  000e1	eb 09		 jmp	 SHORT $L234341
$L234340:
  000e3	57		 push	 edi
  000e4	e8 00 00 00 00	 call	 ?_Min@?$_Tree@V?$_Tmap_traits@V?$basic_string@DU?$char_traits@D@std@@V?$allocator@D@2@@std@@PAVCObject3D@@U?$less@V?$basic_string@DU?$char_traits@D@std@@V?$allocator@D@2@@std@@@2@V?$allocator@U?$pair@$$CBV?$basic_string@DU?$char_traits@D@std@@V?$allocator@D@2@@std@@PAVCObject3D@@@std@@@2@$0A@@std@@@std@@KAPAU_Node@?$_Tree_nod@V?$_Tmap_traits@V?$basic_string@DU?$char_traits@D@std@@V?$allocator@D@2@@std@@PAVCObject3D@@U?$less@V?$basic_string@DU?$char_traits@D@std@@V?$allocator@D@2@@std@@@2@V?$allocator@U?$pair@$$CBV?$basic_string@DU?$char_traits@D@std@@V?$allocator@D@2@@std@@PAVCObject3D@@@std@@@2@$0A@@std@@@2@PAU342@@Z ; std::_Tree<std::_Tmap_traits<std::basic_string<char,std::char_traits<char>,std::allocator<char> >,CObject3D *,std::less<std::basic_string<char,std::char_traits<char>,std::allocator<char> > >,std::allocator<std::pair<std::basic_string<char,std::char_traits<char>,std::allocator<char> > const ,CObject3D *> >,0> >::_Min
  000e9	83 c4 04	 add	 esp, 4
$L234341:
  000ec	89 03		 mov	 DWORD PTR [ebx], eax
$L227203:

; 627  : 
; 628  : 			if (_Rmost() == _Erasednode)

  000ee	8b 44 24 10	 mov	 eax, DWORD PTR _this$[esp+100]
  000f2	8b 58 04	 mov	 ebx, DWORD PTR [eax+4]
  000f5	39 6b 08	 cmp	 DWORD PTR [ebx+8], ebp
  000f8	75 75		 jne	 SHORT $L234659

; 629  : 				_Rmost() = _Isnil(_Fixnode)
; 630  : 					? _Fixnodeparent	// largest is parent of erased node
; 631  : 					: _Max(_Fixnode);	// largest in relinked subtree

  000fa	8a 47 2d	 mov	 al, BYTE PTR [edi+45]
  000fd	84 c0		 test	 al, al
  000ff	74 07		 je	 SHORT $L234342
  00101	8b c6		 mov	 eax, esi
  00103	89 43 08	 mov	 DWORD PTR [ebx+8], eax

; 632  : 			}
; 633  : 		else

  00106	eb 67		 jmp	 SHORT $L234659
$L234342:

; 629  : 				_Rmost() = _Isnil(_Fixnode)
; 630  : 					? _Fixnodeparent	// largest is parent of erased node
; 631  : 					: _Max(_Fixnode);	// largest in relinked subtree

  00108	57		 push	 edi
  00109	e8 00 00 00 00	 call	 ?_Max@?$_Tree@V?$_Tmap_traits@V?$basic_string@DU?$char_traits@D@std@@V?$allocator@D@2@@std@@PAVCObject3D@@U?$less@V?$basic_string@DU?$char_traits@D@std@@V?$allocator@D@2@@std@@@2@V?$allocator@U?$pair@$$CBV?$basic_string@DU?$char_traits@D@std@@V?$allocator@D@2@@std@@PAVCObject3D@@@std@@@2@$0A@@std@@@std@@KAPAU_Node@?$_Tree_nod@V?$_Tmap_traits@V?$basic_string@DU?$char_traits@D@std@@V?$allocator@D@2@@std@@PAVCObject3D@@U?$less@V?$basic_string@DU?$char_traits@D@std@@V?$allocator@D@2@@std@@@2@V?$allocator@U?$pair@$$CBV?$basic_string@DU?$char_traits@D@std@@V?$allocator@D@2@@std@@PAVCObject3D@@@std@@@2@$0A@@std@@@2@PAU342@@Z ; std::_Tree<std::_Tmap_traits<std::basic_string<char,std::char_traits<char>,std::allocator<char> >,CObject3D *,std::less<std::basic_string<char,std::char_traits<char>,std::allocator<char> > >,std::allocator<std::pair<std::basic_string<char,std::char_traits<char>,std::allocator<char> > const ,CObject3D *> >,0> >::_Max
  0010e	83 c4 04	 add	 esp, 4
  00111	89 43 08	 mov	 DWORD PTR [ebx+8], eax

; 632  : 			}
; 633  : 		else

  00114	eb 59		 jmp	 SHORT $L234659
$L227197:

; 634  : 			{	// erased has two subtrees, _Pnode is successor to erased
; 635  : 			_Parent(_Left(_Erasednode)) = _Pnode;	// link left up

  00116	89 48 04	 mov	 DWORD PTR [eax+4], ecx

; 636  : 			_Left(_Pnode) = _Left(_Erasednode);	// link successor down

  00119	8b 55 00	 mov	 edx, DWORD PTR [ebp]
  0011c	89 11		 mov	 DWORD PTR [ecx], edx

; 637  : 
; 638  : 			if (_Pnode == _Right(_Erasednode))

  0011e	3b 4d 08	 cmp	 ecx, DWORD PTR [ebp+8]
  00121	75 04		 jne	 SHORT $L227206

; 639  : 				_Fixnodeparent = _Pnode;	// successor is next to erased

  00123	8b f1		 mov	 esi, ecx

; 640  : 			else

  00125	eb 1b		 jmp	 SHORT $L227207
$L227206:

; 641  : 				{	// successor further down, link in place of erased
; 642  : 				_Fixnodeparent = _Parent(_Pnode);	// parent is successor's
; 643  : 				if (!_Isnil(_Fixnode))

  00127	8a 47 2d	 mov	 al, BYTE PTR [edi+45]
  0012a	84 c0		 test	 al, al
  0012c	8b 71 04	 mov	 esi, DWORD PTR [ecx+4]
  0012f	75 03		 jne	 SHORT $L227208

; 644  : 					_Parent(_Fixnode) = _Fixnodeparent;	// link fix up

  00131	89 77 04	 mov	 DWORD PTR [edi+4], esi
$L227208:

; 645  : 				_Left(_Fixnodeparent) = _Fixnode;	// link fix down

  00134	89 3e		 mov	 DWORD PTR [esi], edi

; 646  : 				_Right(_Pnode) = _Right(_Erasednode);	// link successor down

  00136	8b 45 08	 mov	 eax, DWORD PTR [ebp+8]
  00139	89 41 08	 mov	 DWORD PTR [ecx+8], eax

; 647  : 				_Parent(_Right(_Erasednode)) = _Pnode;	// link right up

  0013c	8b 55 08	 mov	 edx, DWORD PTR [ebp+8]
  0013f	89 4a 04	 mov	 DWORD PTR [edx+4], ecx
$L227207:

; 648  : 				}
; 649  : 
; 650  : 			if (_Root() == _Erasednode)

  00142	8b 43 04	 mov	 eax, DWORD PTR [ebx+4]
  00145	39 68 04	 cmp	 DWORD PTR [eax+4], ebp
  00148	75 05		 jne	 SHORT $L227209

; 651  : 				_Root() = _Pnode;	// link down from root

  0014a	89 48 04	 mov	 DWORD PTR [eax+4], ecx

; 652  : 			else if (_Left(_Parent(_Erasednode)) == _Erasednode)

  0014d	eb 0e		 jmp	 SHORT $L227212
$L227209:
  0014f	8b 45 04	 mov	 eax, DWORD PTR [ebp+4]
  00152	39 28		 cmp	 DWORD PTR [eax], ebp
  00154	75 04		 jne	 SHORT $L227211

; 653  : 				_Left(_Parent(_Erasednode)) = _Pnode;	// link down to left

  00156	89 08		 mov	 DWORD PTR [eax], ecx

; 654  : 			else

  00158	eb 03		 jmp	 SHORT $L227212
$L227211:

; 655  : 				_Right(_Parent(_Erasednode)) = _Pnode;	// link down to right

  0015a	89 48 08	 mov	 DWORD PTR [eax+8], ecx
$L227212:

; 656  : 
; 657  : 			_Parent(_Pnode) = _Parent(_Erasednode);	// link successor up

  0015d	8b 45 04	 mov	 eax, DWORD PTR [ebp+4]
  00160	89 41 04	 mov	 DWORD PTR [ecx+4], eax

; 658  : 			std::swap(_Color(_Pnode), _Color(_Erasednode));	// recolor it

  00163	8a 55 2c	 mov	 dl, BYTE PTR [ebp+44]
  00166	8a 41 2c	 mov	 al, BYTE PTR [ecx+44]
  00169	88 51 2c	 mov	 BYTE PTR [ecx+44], dl
  0016c	88 45 2c	 mov	 BYTE PTR [ebp+44], al
$L234659:

; 659  : 			}
; 660  : 
; 661  : 		if (_Color(_Erasednode) == _Black)

  0016f	8a 45 2c	 mov	 al, BYTE PTR [ebp+44]
  00172	b3 01		 mov	 bl, 1
  00174	3a c3		 cmp	 al, bl
  00176	0f 85 09 01 00
	00		 jne	 $L227213

; 662  : 			{	// erasing black link, must recolor/rebalance tree
; 663  : 			for (; _Fixnode != _Root() && _Color(_Fixnode) == _Black;
; 664  : 				_Fixnodeparent = _Parent(_Fixnode))

  0017c	8b 4c 24 10	 mov	 ecx, DWORD PTR _this$[esp+100]
  00180	8b 41 04	 mov	 eax, DWORD PTR [ecx+4]
  00183	3b 78 04	 cmp	 edi, DWORD PTR [eax+4]
  00186	0f 84 f6 00 00
	00		 je	 $L227216
  0018c	8d 64 24 00	 npad	 4
$L227214:
  00190	38 5f 2c	 cmp	 BYTE PTR [edi+44], bl
  00193	0f 85 e9 00 00
	00		 jne	 $L227216

; 665  : 				if (_Fixnode == _Left(_Fixnodeparent))

  00199	8b 06		 mov	 eax, DWORD PTR [esi]
  0019b	3b f8		 cmp	 edi, eax
  0019d	75 69		 jne	 SHORT $L227217

; 666  : 					{	// fixup left subtree
; 667  : 					_Pnode = _Right(_Fixnodeparent);

  0019f	8b 46 08	 mov	 eax, DWORD PTR [esi+8]

; 668  : 					if (_Color(_Pnode) == _Red)

  001a2	8a 50 2c	 mov	 dl, BYTE PTR [eax+44]
  001a5	84 d2		 test	 dl, dl
  001a7	75 14		 jne	 SHORT $L227218

; 669  : 						{	// rotate red up from right subtree
; 670  : 						_Color(_Pnode) = _Black;

  001a9	88 58 2c	 mov	 BYTE PTR [eax+44], bl

; 671  : 						_Color(_Fixnodeparent) = _Red;
; 672  : 						_Lrotate(_Fixnodeparent);

  001ac	56		 push	 esi
  001ad	c6 46 2c 00	 mov	 BYTE PTR [esi+44], 0
  001b1	e8 00 00 00 00	 call	 ?_Lrotate@?$_Tree@V?$_Tmap_traits@V?$basic_string@DU?$char_traits@D@std@@V?$allocator@D@2@@std@@PAVCObject3D@@U?$less@V?$basic_string@DU?$char_traits@D@std@@V?$allocator@D@2@@std@@@2@V?$allocator@U?$pair@$$CBV?$basic_string@DU?$char_traits@D@std@@V?$allocator@D@2@@std@@PAVCObject3D@@@std@@@2@$0A@@std@@@std@@IAEXPAU_Node@?$_Tree_nod@V?$_Tmap_traits@V?$basic_string@DU?$char_traits@D@std@@V?$allocator@D@2@@std@@PAVCObject3D@@U?$less@V?$basic_string@DU?$char_traits@D@std@@V?$allocator@D@2@@std@@@2@V?$allocator@U?$pair@$$CBV?$basic_string@DU?$char_traits@D@std@@V?$allocator@D@2@@std@@PAVCObject3D@@@std@@@2@$0A@@std@@@2@@Z ; std::_Tree<std::_Tmap_traits<std::basic_string<char,std::char_traits<char>,std::allocator<char> >,CObject3D *,std::less<std::basic_string<char,std::char_traits<char>,std::allocator<char> > >,std::allocator<std::pair<std::basic_string<char,std::char_traits<char>,std::allocator<char> > const ,CObject3D *> >,0> >::_Lrotate

; 673  : 						_Pnode = _Right(_Fixnodeparent);

  001b6	8b 46 08	 mov	 eax, DWORD PTR [esi+8]
  001b9	8b 4c 24 10	 mov	 ecx, DWORD PTR _this$[esp+100]
$L227218:

; 674  : 						}
; 675  : 
; 676  : 					if (_Isnil(_Pnode))

  001bd	8a 50 2d	 mov	 dl, BYTE PTR [eax+45]
  001c0	84 d2		 test	 dl, dl

; 677  : 						_Fixnode = _Fixnodeparent;	// shouldn't happen
; 678  : 					else if (_Color(_Left(_Pnode)) == _Black

  001c2	75 78		 jne	 SHORT $L235050

; 679  : 						&& _Color(_Right(_Pnode)) == _Black)

  001c4	8b 10		 mov	 edx, DWORD PTR [eax]
  001c6	38 5a 2c	 cmp	 BYTE PTR [edx+44], bl
  001c9	75 08		 jne	 SHORT $L227221
  001cb	8b 50 08	 mov	 edx, DWORD PTR [eax+8]
  001ce	38 5a 2c	 cmp	 BYTE PTR [edx+44], bl
  001d1	74 65		 je	 SHORT $L235051
$L227221:

; 680  : 						{	// redden right subtree with black children
; 681  : 						_Color(_Pnode) = _Red;
; 682  : 						_Fixnode = _Fixnodeparent;
; 683  : 						}
; 684  : 					else
; 685  : 						{	// must rearrange right subtree
; 686  : 						if (_Color(_Right(_Pnode)) == _Black)

  001d3	8b 50 08	 mov	 edx, DWORD PTR [eax+8]
  001d6	38 5a 2c	 cmp	 BYTE PTR [edx+44], bl
  001d9	75 16		 jne	 SHORT $L227223

; 687  : 							{	// rotate red up from left sub-subtree
; 688  : 							_Color(_Left(_Pnode)) = _Black;

  001db	8b 10		 mov	 edx, DWORD PTR [eax]
  001dd	88 5a 2c	 mov	 BYTE PTR [edx+44], bl

; 689  : 							_Color(_Pnode) = _Red;
; 690  : 							_Rrotate(_Pnode);

  001e0	50		 push	 eax
  001e1	c6 40 2c 00	 mov	 BYTE PTR [eax+44], 0
  001e5	e8 00 00 00 00	 call	 ?_Rrotate@?$_Tree@V?$_Tmap_traits@V?$basic_string@DU?$char_traits@D@std@@V?$allocator@D@2@@std@@PAVCObject3D@@U?$less@V?$basic_string@DU?$char_traits@D@std@@V?$allocator@D@2@@std@@@2@V?$allocator@U?$pair@$$CBV?$basic_string@DU?$char_traits@D@std@@V?$allocator@D@2@@std@@PAVCObject3D@@@std@@@2@$0A@@std@@@std@@IAEXPAU_Node@?$_Tree_nod@V?$_Tmap_traits@V?$basic_string@DU?$char_traits@D@std@@V?$allocator@D@2@@std@@PAVCObject3D@@U?$less@V?$basic_string@DU?$char_traits@D@std@@V?$allocator@D@2@@std@@@2@V?$allocator@U?$pair@$$CBV?$basic_string@DU?$char_traits@D@std@@V?$allocator@D@2@@std@@PAVCObject3D@@@std@@@2@$0A@@std@@@2@@Z ; std::_Tree<std::_Tmap_traits<std::basic_string<char,std::char_traits<char>,std::allocator<char> >,CObject3D *,std::less<std::basic_string<char,std::char_traits<char>,std::allocator<char> > >,std::allocator<std::pair<std::basic_string<char,std::char_traits<char>,std::allocator<char> > const ,CObject3D *> >,0> >::_Rrotate

; 691  : 							_Pnode = _Right(_Fixnodeparent);

  001ea	8b 46 08	 mov	 eax, DWORD PTR [esi+8]
  001ed	8b 4c 24 10	 mov	 ecx, DWORD PTR _this$[esp+100]
$L227223:

; 692  : 							}
; 693  : 
; 694  : 						_Color(_Pnode) = _Color(_Fixnodeparent);

  001f1	8a 56 2c	 mov	 dl, BYTE PTR [esi+44]
  001f4	88 50 2c	 mov	 BYTE PTR [eax+44], dl

; 695  : 						_Color(_Fixnodeparent) = _Black;

  001f7	88 5e 2c	 mov	 BYTE PTR [esi+44], bl

; 696  : 						_Color(_Right(_Pnode)) = _Black;

  001fa	8b 40 08	 mov	 eax, DWORD PTR [eax+8]

; 697  : 						_Lrotate(_Fixnodeparent);

  001fd	56		 push	 esi
  001fe	88 58 2c	 mov	 BYTE PTR [eax+44], bl
  00201	e8 00 00 00 00	 call	 ?_Lrotate@?$_Tree@V?$_Tmap_traits@V?$basic_string@DU?$char_traits@D@std@@V?$allocator@D@2@@std@@PAVCObject3D@@U?$less@V?$basic_string@DU?$char_traits@D@std@@V?$allocator@D@2@@std@@@2@V?$allocator@U?$pair@$$CBV?$basic_string@DU?$char_traits@D@std@@V?$allocator@D@2@@std@@PAVCObject3D@@@std@@@2@$0A@@std@@@std@@IAEXPAU_Node@?$_Tree_nod@V?$_Tmap_traits@V?$basic_string@DU?$char_traits@D@std@@V?$allocator@D@2@@std@@PAVCObject3D@@U?$less@V?$basic_string@DU?$char_traits@D@std@@V?$allocator@D@2@@std@@@2@V?$allocator@U?$pair@$$CBV?$basic_string@DU?$char_traits@D@std@@V?$allocator@D@2@@std@@PAVCObject3D@@@std@@@2@$0A@@std@@@2@@Z ; std::_Tree<std::_Tmap_traits<std::basic_string<char,std::char_traits<char>,std::allocator<char> >,CObject3D *,std::less<std::basic_string<char,std::char_traits<char>,std::allocator<char> > >,std::allocator<std::pair<std::basic_string<char,std::char_traits<char>,std::allocator<char> > const ,CObject3D *> >,0> >::_Lrotate

; 698  : 						break;	// tree now recolored/rebalanced

  00206	eb 7a		 jmp	 SHORT $L227216
$L227217:

; 699  : 						}
; 700  : 					}
; 701  : 				else
; 702  : 					{	// fixup right subtree
; 703  : 					_Pnode = _Left(_Fixnodeparent);
; 704  : 					if (_Color(_Pnode) == _Red)

  00208	8a 50 2c	 mov	 dl, BYTE PTR [eax+44]
  0020b	84 d2		 test	 dl, dl
  0020d	75 13		 jne	 SHORT $L227225

; 705  : 						{	// rotate red up from left subtree
; 706  : 						_Color(_Pnode) = _Black;

  0020f	88 58 2c	 mov	 BYTE PTR [eax+44], bl

; 707  : 						_Color(_Fixnodeparent) = _Red;
; 708  : 						_Rrotate(_Fixnodeparent);

  00212	56		 push	 esi
  00213	c6 46 2c 00	 mov	 BYTE PTR [esi+44], 0
  00217	e8 00 00 00 00	 call	 ?_Rrotate@?$_Tree@V?$_Tmap_traits@V?$basic_string@DU?$char_traits@D@std@@V?$allocator@D@2@@std@@PAVCObject3D@@U?$less@V?$basic_string@DU?$char_traits@D@std@@V?$allocator@D@2@@std@@@2@V?$allocator@U?$pair@$$CBV?$basic_string@DU?$char_traits@D@std@@V?$allocator@D@2@@std@@PAVCObject3D@@@std@@@2@$0A@@std@@@std@@IAEXPAU_Node@?$_Tree_nod@V?$_Tmap_traits@V?$basic_string@DU?$char_traits@D@std@@V?$allocator@D@2@@std@@PAVCObject3D@@U?$less@V?$basic_string@DU?$char_traits@D@std@@V?$allocator@D@2@@std@@@2@V?$allocator@U?$pair@$$CBV?$basic_string@DU?$char_traits@D@std@@V?$allocator@D@2@@std@@PAVCObject3D@@@std@@@2@$0A@@std@@@2@@Z ; std::_Tree<std::_Tmap_traits<std::basic_string<char,std::char_traits<char>,std::allocator<char> >,CObject3D *,std::less<std::basic_string<char,std::char_traits<char>,std::allocator<char> > >,std::allocator<std::pair<std::basic_string<char,std::char_traits<char>,std::allocator<char> > const ,CObject3D *> >,0> >::_Rrotate

; 709  : 						_Pnode = _Left(_Fixnodeparent);

  0021c	8b 06		 mov	 eax, DWORD PTR [esi]
  0021e	8b 4c 24 10	 mov	 ecx, DWORD PTR _this$[esp+100]
$L227225:

; 710  : 						}
; 711  : 					if (_Isnil(_Pnode))

  00222	8a 50 2d	 mov	 dl, BYTE PTR [eax+45]
  00225	84 d2		 test	 dl, dl

; 712  : 						_Fixnode = _Fixnodeparent;	// shouldn't happen
; 713  : 					else if (_Color(_Right(_Pnode)) == _Black

  00227	75 13		 jne	 SHORT $L235050

; 714  : 						&& _Color(_Left(_Pnode)) == _Black)

  00229	8b 50 08	 mov	 edx, DWORD PTR [eax+8]
  0022c	38 5a 2c	 cmp	 BYTE PTR [edx+44], bl
  0022f	75 20		 jne	 SHORT $L227228
  00231	8b 10		 mov	 edx, DWORD PTR [eax]
  00233	38 5a 2c	 cmp	 BYTE PTR [edx+44], bl
  00236	75 19		 jne	 SHORT $L227228
$L235051:

; 715  : 						{	// redden left subtree with black children
; 716  : 						_Color(_Pnode) = _Red;

  00238	c6 40 2c 00	 mov	 BYTE PTR [eax+44], 0
$L235050:

; 662  : 			{	// erasing black link, must recolor/rebalance tree
; 663  : 			for (; _Fixnode != _Root() && _Color(_Fixnode) == _Black;
; 664  : 				_Fixnodeparent = _Parent(_Fixnode))

  0023c	8b 41 04	 mov	 eax, DWORD PTR [ecx+4]
  0023f	8b 50 04	 mov	 edx, DWORD PTR [eax+4]

; 717  : 						_Fixnode = _Fixnodeparent;

  00242	8b fe		 mov	 edi, esi
  00244	3b fa		 cmp	 edi, edx
  00246	8b 76 04	 mov	 esi, DWORD PTR [esi+4]
  00249	0f 85 41 ff ff
	ff		 jne	 $L227214

; 662  : 			{	// erasing black link, must recolor/rebalance tree
; 663  : 			for (; _Fixnode != _Root() && _Color(_Fixnode) == _Black;
; 664  : 				_Fixnodeparent = _Parent(_Fixnode))

  0024f	eb 31		 jmp	 SHORT $L227216
$L227228:

; 718  : 						}
; 719  : 					else
; 720  : 						{	// must rearrange left subtree
; 721  : 						if (_Color(_Left(_Pnode)) == _Black)

  00251	8b 10		 mov	 edx, DWORD PTR [eax]
  00253	38 5a 2c	 cmp	 BYTE PTR [edx+44], bl
  00256	75 16		 jne	 SHORT $L227230

; 722  : 							{	// rotate red up from right sub-subtree
; 723  : 							_Color(_Right(_Pnode)) = _Black;

  00258	8b 50 08	 mov	 edx, DWORD PTR [eax+8]
  0025b	88 5a 2c	 mov	 BYTE PTR [edx+44], bl

; 724  : 							_Color(_Pnode) = _Red;
; 725  : 							_Lrotate(_Pnode);

  0025e	50		 push	 eax
  0025f	c6 40 2c 00	 mov	 BYTE PTR [eax+44], 0
  00263	e8 00 00 00 00	 call	 ?_Lrotate@?$_Tree@V?$_Tmap_traits@V?$basic_string@DU?$char_traits@D@std@@V?$allocator@D@2@@std@@PAVCObject3D@@U?$less@V?$basic_string@DU?$char_traits@D@std@@V?$allocator@D@2@@std@@@2@V?$allocator@U?$pair@$$CBV?$basic_string@DU?$char_traits@D@std@@V?$allocator@D@2@@std@@PAVCObject3D@@@std@@@2@$0A@@std@@@std@@IAEXPAU_Node@?$_Tree_nod@V?$_Tmap_traits@V?$basic_string@DU?$char_traits@D@std@@V?$allocator@D@2@@std@@PAVCObject3D@@U?$less@V?$basic_string@DU?$char_traits@D@std@@V?$allocator@D@2@@std@@@2@V?$allocator@U?$pair@$$CBV?$basic_string@DU?$char_traits@D@std@@V?$allocator@D@2@@std@@PAVCObject3D@@@std@@@2@$0A@@std@@@2@@Z ; std::_Tree<std::_Tmap_traits<std::basic_string<char,std::char_traits<char>,std::allocator<char> >,CObject3D *,std::less<std::basic_string<char,std::char_traits<char>,std::allocator<char> > >,std::allocator<std::pair<std::basic_string<char,std::char_traits<char>,std::allocator<char> > const ,CObject3D *> >,0> >::_Lrotate

; 726  : 							_Pnode = _Left(_Fixnodeparent);

  00268	8b 06		 mov	 eax, DWORD PTR [esi]
  0026a	8b 4c 24 10	 mov	 ecx, DWORD PTR _this$[esp+100]
$L227230:

; 727  : 							}
; 728  : 
; 729  : 						_Color(_Pnode) = _Color(_Fixnodeparent);

  0026e	8a 56 2c	 mov	 dl, BYTE PTR [esi+44]
  00271	88 50 2c	 mov	 BYTE PTR [eax+44], dl

; 730  : 						_Color(_Fixnodeparent) = _Black;

  00274	88 5e 2c	 mov	 BYTE PTR [esi+44], bl

; 731  : 						_Color(_Left(_Pnode)) = _Black;

  00277	8b 00		 mov	 eax, DWORD PTR [eax]

; 732  : 						_Rrotate(_Fixnodeparent);

  00279	56		 push	 esi
  0027a	88 58 2c	 mov	 BYTE PTR [eax+44], bl
  0027d	e8 00 00 00 00	 call	 ?_Rrotate@?$_Tree@V?$_Tmap_traits@V?$basic_string@DU?$char_traits@D@std@@V?$allocator@D@2@@std@@PAVCObject3D@@U?$less@V?$basic_string@DU?$char_traits@D@std@@V?$allocator@D@2@@std@@@2@V?$allocator@U?$pair@$$CBV?$basic_string@DU?$char_traits@D@std@@V?$allocator@D@2@@std@@PAVCObject3D@@@std@@@2@$0A@@std@@@std@@IAEXPAU_Node@?$_Tree_nod@V?$_Tmap_traits@V?$basic_string@DU?$char_traits@D@std@@V?$allocator@D@2@@std@@PAVCObject3D@@U?$less@V?$basic_string@DU?$char_traits@D@std@@V?$allocator@D@2@@std@@@2@V?$allocator@U?$pair@$$CBV?$basic_string@DU?$char_traits@D@std@@V?$allocator@D@2@@std@@PAVCObject3D@@@std@@@2@$0A@@std@@@2@@Z ; std::_Tree<std::_Tmap_traits<std::basic_string<char,std::char_traits<char>,std::allocator<char> >,CObject3D *,std::less<std::basic_string<char,std::char_traits<char>,std::allocator<char> > >,std::allocator<std::pair<std::basic_string<char,std::char_traits<char>,std::allocator<char> > const ,CObject3D *> >,0> >::_Rrotate
$L227216:

; 733  : 						break;	// tree now recolored/rebalanced
; 734  : 						}
; 735  : 					}
; 736  : 
; 737  : 			_Color(_Fixnode) = _Black;	// ensure stopping node is black

  00282	88 5f 2c	 mov	 BYTE PTR [edi+44], bl
$L227213:

; 738  : 			}
; 739  : 
; 740  : 		this->_Alnod.destroy(_Erasednode);	// destroy, free erased node

  00285	83 7d 24 10	 cmp	 DWORD PTR [ebp+36], 16	; 00000010H
  00289	72 0c		 jb	 SHORT $L235017
  0028b	8b 4d 10	 mov	 ecx, DWORD PTR [ebp+16]
  0028e	51		 push	 ecx
  0028f	e8 00 00 00 00	 call	 ??3@YAXPAX@Z		; operator delete
  00294	83 c4 04	 add	 esp, 4
$L235017:
  00297	c7 45 24 0f 00
	00 00		 mov	 DWORD PTR [ebp+36], 15	; 0000000fH
  0029e	c7 45 20 00 00
	00 00		 mov	 DWORD PTR [ebp+32], 0

; 741  : 		this->_Alnod.deallocate(_Erasednode, 1);

  002a5	55		 push	 ebp
  002a6	c6 45 10 00	 mov	 BYTE PTR [ebp+16], 0
  002aa	e8 00 00 00 00	 call	 ??3@YAXPAX@Z		; operator delete

; 742  : 
; 743  : 		if (0 < _Mysize)

  002af	8b 4c 24 14	 mov	 ecx, DWORD PTR _this$[esp+104]
  002b3	8b 41 08	 mov	 eax, DWORD PTR [ecx+8]
  002b6	83 c4 04	 add	 esp, 4
  002b9	85 c0		 test	 eax, eax
  002bb	5f		 pop	 edi
  002bc	5d		 pop	 ebp
  002bd	76 04		 jbe	 SHORT $L227231

; 744  : 			--_Mysize;

  002bf	48		 dec	 eax
  002c0	89 41 08	 mov	 DWORD PTR [ecx+8], eax
$L227231:

; 745  : 
; 746  : 		return (_Where);	// return successor iterator

  002c3	8b 44 24 60	 mov	 eax, DWORD PTR ___$ReturnUdt$[esp+88]
  002c7	8b 54 24 64	 mov	 edx, DWORD PTR __Where$[esp+88]

; 747  : 		}

  002cb	8b 4c 24 50	 mov	 ecx, DWORD PTR __$EHRec$[esp+92]
  002cf	5e		 pop	 esi
  002d0	89 10		 mov	 DWORD PTR [eax], edx
  002d2	5b		 pop	 ebx
  002d3	64 89 0d 00 00
	00 00		 mov	 DWORD PTR fs:__except_list, ecx
  002da	83 c4 54	 add	 esp, 84			; 00000054H
  002dd	c2 08 00	 ret	 8
$L235049:
_TEXT	ENDS
;	COMDAT text$x
text$x	SEGMENT
$L234344:
  00000	8d 4d b0	 lea	 ecx, DWORD PTR $T234339[ebp]
  00003	e9 00 00 00 00	 jmp	 ??1?$basic_string@DU?$char_traits@D@std@@V?$allocator@D@2@@std@@QAE@XZ ; std::basic_string<char,std::char_traits<char>,std::allocator<char> >::~basic_string<char,std::char_traits<char>,std::allocator<char> >
__ehhandler$?erase@?$_Tree@V?$_Tmap_traits@V?$basic_string@DU?$char_traits@D@std@@V?$allocator@D@2@@std@@PAVCObject3D@@U?$less@V?$basic_string@DU?$char_traits@D@std@@V?$allocator@D@2@@std@@@2@V?$allocator@U?$pair@$$CBV?$basic_string@DU?$char_traits@D@std@@V?$allocator@D@2@@std@@PAVCObject3D@@@std@@@2@$0A@@std@@@std@@QAE?AViterator@12@V312@@Z:
  00008	b8 00 00 00 00	 mov	 eax, OFFSET FLAT:$T235044
  0000d	e9 00 00 00 00	 jmp	 ___CxxFrameHandler
text$x	ENDS
?erase@?$_Tree@V?$_Tmap_traits@V?$basic_string@DU?$char_traits@D@std@@V?$allocator@D@2@@std@@PAVCObject3D@@U?$less@V?$basic_string@DU?$char_traits@D@std@@V?$allocator@D@2@@std@@@2@V?$allocator@U?$pair@$$CBV?$basic_string@DU?$char_traits@D@std@@V?$allocator@D@2@@std@@PAVCObject3D@@@std@@@2@$0A@@std@@@std@@QAE?AViterator@12@V312@@Z ENDP ; std::_Tree<std::_Tmap_traits<std::basic_string<char,std::char_traits<char>,std::allocator<char> >,CObject3D *,std::less<std::basic_string<char,std::char_traits<char>,std::allocator<char> > >,std::allocator<std::pair<std::basic_string<char,std::char_traits<char>,std::allocator<char> > const ,CObject3D *> >,0> >::erase
;	COMDAT xdata$x
xdata$x	SEGMENT
$T235159 DD	0ffffffffH
	DD	FLAT:$L235059
$T235157 DD	019930520H
	DD	01H
	DD	FLAT:$T235159
	DD	2 DUP(00H)
	DD	2 DUP(00H)
; Function compile flags: /Ogty
xdata$x	ENDS
;	COMDAT ??0logic_error@std@@QAE@ABV01@@Z
_TEXT	SEGMENT
_this$ = -16						; size = 4
__$EHRec$ = -12						; size = 12
___that$ = 8						; size = 4
??0logic_error@std@@QAE@ABV01@@Z PROC NEAR		; std::logic_error::logic_error, COMDAT
; _this$ = ecx
  00000	6a ff		 push	 -1
  00002	68 00 00 00 00	 push	 __ehhandler$??0logic_error@std@@QAE@ABV01@@Z
  00007	64 a1 00 00 00
	00		 mov	 eax, DWORD PTR fs:__except_list
  0000d	50		 push	 eax
  0000e	64 89 25 00 00
	00 00		 mov	 DWORD PTR fs:__except_list, esp
  00015	51		 push	 ecx
  00016	56		 push	 esi
  00017	57		 push	 edi
  00018	8b 7c 24 1c	 mov	 edi, DWORD PTR ___that$[esp+20]
  0001c	8b f1		 mov	 esi, ecx
  0001e	57		 push	 edi
  0001f	89 74 24 0c	 mov	 DWORD PTR _this$[esp+28], esi
  00023	e8 00 00 00 00	 call	 ??0exception@@QAE@ABV0@@Z ; exception::exception
  00028	33 c0		 xor	 eax, eax
  0002a	6a ff		 push	 -1
  0002c	8d 4e 0c	 lea	 ecx, DWORD PTR [esi+12]
  0002f	c7 06 00 00 00
	00		 mov	 DWORD PTR [esi], OFFSET FLAT:??_7logic_error@std@@6B@
  00035	50		 push	 eax
  00036	83 c7 0c	 add	 edi, 12			; 0000000cH
  00039	c7 41 18 0f 00
	00 00		 mov	 DWORD PTR [ecx+24], 15	; 0000000fH
  00040	89 41 14	 mov	 DWORD PTR [ecx+20], eax
  00043	57		 push	 edi
  00044	89 44 24 20	 mov	 DWORD PTR __$EHRec$[esp+44], eax
  00048	88 41 04	 mov	 BYTE PTR [ecx+4], al
  0004b	e8 00 00 00 00	 call	 ?assign@?$basic_string@DU?$char_traits@D@std@@V?$allocator@D@2@@std@@QAEAAV12@ABV12@II@Z ; std::basic_string<char,std::char_traits<char>,std::allocator<char> >::assign
  00050	8b 4c 24 0c	 mov	 ecx, DWORD PTR __$EHRec$[esp+24]
  00054	5f		 pop	 edi
  00055	8b c6		 mov	 eax, esi
  00057	5e		 pop	 esi
  00058	64 89 0d 00 00
	00 00		 mov	 DWORD PTR fs:__except_list, ecx
  0005f	83 c4 10	 add	 esp, 16			; 00000010H
  00062	c2 04 00	 ret	 4
_TEXT	ENDS
;	COMDAT text$x
text$x	SEGMENT
$L235059:
  00000	8b 4d f0	 mov	 ecx, DWORD PTR _this$[ebp]
  00003	e9 00 00 00 00	 jmp	 ??1exception@@UAE@XZ	; exception::~exception
__ehhandler$??0logic_error@std@@QAE@ABV01@@Z:
  00008	b8 00 00 00 00	 mov	 eax, OFFSET FLAT:$T235157
  0000d	e9 00 00 00 00	 jmp	 ___CxxFrameHandler
text$x	ENDS
??0logic_error@std@@QAE@ABV01@@Z ENDP			; std::logic_error::logic_error
; Function compile flags: /Ogty
;	COMDAT ??0out_of_range@std@@QAE@ABV01@@Z
_TEXT	SEGMENT
___that$ = 8						; size = 4
??0out_of_range@std@@QAE@ABV01@@Z PROC NEAR		; std::out_of_range::out_of_range, COMDAT
; _this$ = ecx
  00000	8b 44 24 04	 mov	 eax, DWORD PTR ___that$[esp-4]
  00004	56		 push	 esi
  00005	50		 push	 eax
  00006	8b f1		 mov	 esi, ecx
  00008	e8 00 00 00 00	 call	 ??0logic_error@std@@QAE@ABV01@@Z
  0000d	c7 06 00 00 00
	00		 mov	 DWORD PTR [esi], OFFSET FLAT:??_7out_of_range@std@@6B@
  00013	8b c6		 mov	 eax, esi
  00015	5e		 pop	 esi
  00016	c2 04 00	 ret	 4
??0out_of_range@std@@QAE@ABV01@@Z ENDP			; std::out_of_range::out_of_range
_TEXT	ENDS
PUBLIC	?_Buynode@?$_Tree@V?$_Tmap_traits@V?$basic_string@DU?$char_traits@D@std@@V?$allocator@D@2@@std@@PAVCObject3D@@U?$less@V?$basic_string@DU?$char_traits@D@std@@V?$allocator@D@2@@std@@@2@V?$allocator@U?$pair@$$CBV?$basic_string@DU?$char_traits@D@std@@V?$allocator@D@2@@std@@PAVCObject3D@@@std@@@2@$0A@@std@@@std@@IAEPAU_Node@?$_Tree_nod@V?$_Tmap_traits@V?$basic_string@DU?$char_traits@D@std@@V?$allocator@D@2@@std@@PAVCObject3D@@U?$less@V?$basic_string@DU?$char_traits@D@std@@V?$allocator@D@2@@std@@@2@V?$allocator@U?$pair@$$CBV?$basic_string@DU?$char_traits@D@std@@V?$allocator@D@2@@std@@PAVCObject3D@@@std@@@2@$0A@@std@@@2@PAU342@00ABU?$pair@$$CBV?$basic_string@DU?$char_traits@D@std@@V?$allocator@D@2@@std@@PAVCObject3D@@@2@D@Z ; std::_Tree<std::_Tmap_traits<std::basic_string<char,std::char_traits<char>,std::allocator<char> >,CObject3D *,std::less<std::basic_string<char,std::char_traits<char>,std::allocator<char> > >,std::allocator<std::pair<std::basic_string<char,std::char_traits<char>,std::allocator<char> > const ,CObject3D *> >,0> >::_Buynode
;	COMDAT xdata$x
; File c:\program files\microsoft visual studio .net 2003\vc7\include\xmemory
xdata$x	SEGMENT
$T235194 DD	0ffffffffH
	DD	00H
	DD	00H
	DD	FLAT:$L235175
	DD	0ffffffffH
	DD	00H
$T235196 DD	00H
	DD	00H
	DD	00H
	DD	FLAT:$L235174
$T235195 DD	00H
	DD	01H
	DD	02H
	DD	01H
	DD	FLAT:$T235196
$T235191 DD	019930520H
	DD	03H
	DD	FLAT:$T235194
	DD	01H
	DD	FLAT:$T235195
	DD	2 DUP(00H)
; Function compile flags: /Ogty
; File c:\program files\microsoft visual studio .net 2003\vc7\include\xtree
xdata$x	ENDS
;	COMDAT ?_Buynode@?$_Tree@V?$_Tmap_traits@V?$basic_string@DU?$char_traits@D@std@@V?$allocator@D@2@@std@@PAVCObject3D@@U?$less@V?$basic_string@DU?$char_traits@D@std@@V?$allocator@D@2@@std@@@2@V?$allocator@U?$pair@$$CBV?$basic_string@DU?$char_traits@D@std@@V?$allocator@D@2@@std@@PAVCObject3D@@@std@@@2@$0A@@std@@@std@@IAEPAU_Node@?$_Tree_nod@V?$_Tmap_traits@V?$basic_string@DU?$char_traits@D@std@@V?$allocator@D@2@@std@@PAVCObject3D@@U?$less@V?$basic_string@DU?$char_traits@D@std@@V?$allocator@D@2@@std@@@2@V?$allocator@U?$pair@$$CBV?$basic_string@DU?$char_traits@D@std@@V?$allocator@D@2@@std@@PAVCObject3D@@@std@@@2@$0A@@std@@@2@PAU342@00ABU?$pair@$$CBV?$basic_string@DU?$char_traits@D@std@@V?$allocator@D@2@@std@@PAVCObject3D@@@2@D@Z
_TEXT	SEGMENT
$T235170 = -24						; size = 4
__Wherenode$ = -20					; size = 4
__$EHRec$ = -16						; size = 16
__Larg$ = 8						; size = 4
__Parg$ = 12						; size = 4
__Rarg$ = 16						; size = 4
__Val$ = 20						; size = 4
__Carg$ = 24						; size = 1
?_Buynode@?$_Tree@V?$_Tmap_traits@V?$basic_string@DU?$char_traits@D@std@@V?$allocator@D@2@@std@@PAVCObject3D@@U?$less@V?$basic_string@DU?$char_traits@D@std@@V?$allocator@D@2@@std@@@2@V?$allocator@U?$pair@$$CBV?$basic_string@DU?$char_traits@D@std@@V?$allocator@D@2@@std@@PAVCObject3D@@@std@@@2@$0A@@std@@@std@@IAEPAU_Node@?$_Tree_nod@V?$_Tmap_traits@V?$basic_string@DU?$char_traits@D@std@@V?$allocator@D@2@@std@@PAVCObject3D@@U?$less@V?$basic_string@DU?$char_traits@D@std@@V?$allocator@D@2@@std@@@2@V?$allocator@U?$pair@$$CBV?$basic_string@DU?$char_traits@D@std@@V?$allocator@D@2@@std@@PAVCObject3D@@@std@@@2@$0A@@std@@@2@PAU342@00ABU?$pair@$$CBV?$basic_string@DU?$char_traits@D@std@@V?$allocator@D@2@@std@@PAVCObject3D@@@2@D@Z PROC NEAR ; std::_Tree<std::_Tmap_traits<std::basic_string<char,std::char_traits<char>,std::allocator<char> >,CObject3D *,std::less<std::basic_string<char,std::char_traits<char>,std::allocator<char> > >,std::allocator<std::pair<std::basic_string<char,std::char_traits<char>,std::allocator<char> > const ,CObject3D *> >,0> >::_Buynode, COMDAT
; _this$ = ecx

; 1130 : 		{	// allocate a node with pointers, value, and color

  00000	55		 push	 ebp
  00001	8b ec		 mov	 ebp, esp
  00003	6a ff		 push	 -1
  00005	68 00 00 00 00	 push	 __ehhandler$?_Buynode@?$_Tree@V?$_Tmap_traits@V?$basic_string@DU?$char_traits@D@std@@V?$allocator@D@2@@std@@PAVCObject3D@@U?$less@V?$basic_string@DU?$char_traits@D@std@@V?$allocator@D@2@@std@@@2@V?$allocator@U?$pair@$$CBV?$basic_string@DU?$char_traits@D@std@@V?$allocator@D@2@@std@@PAVCObject3D@@@std@@@2@$0A@@std@@@std@@IAEPAU_Node@?$_Tree_nod@V?$_Tmap_traits@V?$basic_string@DU?$char_traits@D@std@@V?$allocator@D@2@@std@@PAVCObject3D@@U?$less@V?$basic_string@DU?$char_traits@D@std@@V?$allocator@D@2@@std@@@2@V?$allocator@U?$pair@$$CBV?$basic_string@DU?$char_traits@D@std@@V?$allocator@D@2@@std@@PAVCObject3D@@@std@@@2@$0A@@std@@@2@PAU342@00ABU?$pair@$$CBV?$basic_string@DU?$char_traits@D@std@@V?$allocator@D@2@@std@@PAVCObject3D@@@2@D@Z
  0000a	64 a1 00 00 00
	00		 mov	 eax, DWORD PTR fs:__except_list
  00010	50		 push	 eax
  00011	64 89 25 00 00
	00 00		 mov	 DWORD PTR fs:__except_list, esp
  00018	83 ec 0c	 sub	 esp, 12			; 0000000cH
  0001b	53		 push	 ebx
  0001c	56		 push	 esi
  0001d	57		 push	 edi
  0001e	89 65 f0	 mov	 DWORD PTR __$EHRec$[ebp], esp

; 1131 : 		_Nodeptr _Wherenode = this->_Alnod.allocate(1);

  00021	6a 30		 push	 48			; 00000030H
  00023	e8 00 00 00 00	 call	 ??2@YAPAXI@Z		; operator new
  00028	8b f0		 mov	 esi, eax
  0002a	83 c4 04	 add	 esp, 4
  0002d	89 75 ec	 mov	 DWORD PTR __Wherenode$[ebp], esi

; 1132 : 		_TRY_BEGIN

  00030	c7 45 fc 00 00
	00 00		 mov	 DWORD PTR __$EHRec$[ebp+12], 0

; 1133 : 		new (_Wherenode) _Node(_Larg, _Parg, _Rarg, _Val, _Carg);

  00037	89 75 e8	 mov	 DWORD PTR $T235170[ebp], esi
  0003a	85 f6		 test	 esi, esi
  0003c	c6 45 fc 01	 mov	 BYTE PTR __$EHRec$[ebp+12], 1
  00040	74 1b		 je	 SHORT $L235171
  00042	8b 45 18	 mov	 eax, DWORD PTR __Carg$[ebp]
  00045	8b 4d 14	 mov	 ecx, DWORD PTR __Val$[ebp]
  00048	8b 55 10	 mov	 edx, DWORD PTR __Rarg$[ebp]
  0004b	50		 push	 eax
  0004c	8b 45 0c	 mov	 eax, DWORD PTR __Parg$[ebp]
  0004f	51		 push	 ecx
  00050	8b 4d 08	 mov	 ecx, DWORD PTR __Larg$[ebp]
  00053	52		 push	 edx
  00054	50		 push	 eax
  00055	51		 push	 ecx
  00056	8b ce		 mov	 ecx, esi
  00058	e8 00 00 00 00	 call	 ??0_Node@?$_Tree_nod@V?$_Tmap_traits@V?$basic_string@DU?$char_traits@D@std@@V?$allocator@D@2@@std@@PAVCObject3D@@U?$less@V?$basic_string@DU?$char_traits@D@std@@V?$allocator@D@2@@std@@@2@V?$allocator@U?$pair@$$CBV?$basic_string@DU?$char_traits@D@std@@V?$allocator@D@2@@std@@PAVCObject3D@@@std@@@2@$0A@@std@@@std@@QAE@PAU012@00ABU?$pair@$$CBV?$basic_string@DU?$char_traits@D@std@@V?$allocator@D@2@@std@@PAVCObject3D@@@2@D@Z ; std::_Tree_nod<std::_Tmap_traits<std::basic_string<char,std::char_traits<char>,std::allocator<char> >,CObject3D *,std::less<std::basic_string<char,std::char_traits<char>,std::allocator<char> > >,std::allocator<std::pair<std::basic_string<char,std::char_traits<char>,std::allocator<char> > const ,CObject3D *> >,0> >::_Node::_Node
$L235171:

; 1137 : 		_CATCH_END
; 1138 : 		return (_Wherenode);
; 1139 : 		}

  0005d	8b 4d f4	 mov	 ecx, DWORD PTR __$EHRec$[ebp+4]
  00060	5f		 pop	 edi
  00061	8b c6		 mov	 eax, esi
  00063	5e		 pop	 esi
  00064	64 89 0d 00 00
	00 00		 mov	 DWORD PTR fs:__except_list, ecx
  0006b	5b		 pop	 ebx
  0006c	8b e5		 mov	 esp, ebp
  0006e	5d		 pop	 ebp
  0006f	c2 14 00	 ret	 20			; 00000014H
$L235174:

; 1134 : 		_CATCH_ALL
; 1135 : 		this->_Alnod.deallocate(_Wherenode, 1);

  00072	8b 55 ec	 mov	 edx, DWORD PTR __Wherenode$[ebp]
  00075	52		 push	 edx
  00076	e8 00 00 00 00	 call	 ??3@YAXPAX@Z		; operator delete
  0007b	83 c4 04	 add	 esp, 4

; 1136 : 		_RERAISE;

  0007e	6a 00		 push	 0
  00080	6a 00		 push	 0
  00082	e8 00 00 00 00	 call	 __CxxThrowException@8
$L235197:
$L235193:
  00087	cc		 int	 3
_TEXT	ENDS
;	COMDAT text$x
text$x	SEGMENT
$L235175:
  00000	8b 45 ec	 mov	 eax, DWORD PTR __Wherenode$[ebp]
  00003	50		 push	 eax
  00004	8b 4d e8	 mov	 ecx, DWORD PTR $T235170[ebp]
  00007	51		 push	 ecx
  00008	e8 00 00 00 00	 call	 ??3@YAXPAX0@Z		; operator delete
  0000d	83 c4 08	 add	 esp, 8
  00010	c3		 ret	 0
__ehhandler$?_Buynode@?$_Tree@V?$_Tmap_traits@V?$basic_string@DU?$char_traits@D@std@@V?$allocator@D@2@@std@@PAVCObject3D@@U?$less@V?$basic_string@DU?$char_traits@D@std@@V?$allocator@D@2@@std@@@2@V?$allocator@U?$pair@$$CBV?$basic_string@DU?$char_traits@D@std@@V?$allocator@D@2@@std@@PAVCObject3D@@@std@@@2@$0A@@std@@@std@@IAEPAU_Node@?$_Tree_nod@V?$_Tmap_traits@V?$basic_string@DU?$char_traits@D@std@@V?$allocator@D@2@@std@@PAVCObject3D@@U?$less@V?$basic_string@DU?$char_traits@D@std@@V?$allocator@D@2@@std@@@2@V?$allocator@U?$pair@$$CBV?$basic_string@DU?$char_traits@D@std@@V?$allocator@D@2@@std@@PAVCObject3D@@@std@@@2@$0A@@std@@@2@PAU342@00ABU?$pair@$$CBV?$basic_string@DU?$char_traits@D@std@@V?$allocator@D@2@@std@@PAVCObject3D@@@2@D@Z:
  00011	b8 00 00 00 00	 mov	 eax, OFFSET FLAT:$T235191
  00016	e9 00 00 00 00	 jmp	 ___CxxFrameHandler
text$x	ENDS
?_Buynode@?$_Tree@V?$_Tmap_traits@V?$basic_string@DU?$char_traits@D@std@@V?$allocator@D@2@@std@@PAVCObject3D@@U?$less@V?$basic_string@DU?$char_traits@D@std@@V?$allocator@D@2@@std@@@2@V?$allocator@U?$pair@$$CBV?$basic_string@DU?$char_traits@D@std@@V?$allocator@D@2@@std@@PAVCObject3D@@@std@@@2@$0A@@std@@@std@@IAEPAU_Node@?$_Tree_nod@V?$_Tmap_traits@V?$basic_string@DU?$char_traits@D@std@@V?$allocator@D@2@@std@@PAVCObject3D@@U?$less@V?$basic_string@DU?$char_traits@D@std@@V?$allocator@D@2@@std@@@2@V?$allocator@U?$pair@$$CBV?$basic_string@DU?$char_traits@D@std@@V?$allocator@D@2@@std@@PAVCObject3D@@@std@@@2@$0A@@std@@@2@PAU342@00ABU?$pair@$$CBV?$basic_string@DU?$char_traits@D@std@@V?$allocator@D@2@@std@@PAVCObject3D@@@2@D@Z ENDP ; std::_Tree<std::_Tmap_traits<std::basic_string<char,std::char_traits<char>,std::allocator<char> >,CObject3D *,std::less<std::basic_string<char,std::char_traits<char>,std::allocator<char> > >,std::allocator<std::pair<std::basic_string<char,std::char_traits<char>,std::allocator<char> > const ,CObject3D *> >,0> >::_Buynode
PUBLIC	?clear@?$_Tree@V?$_Tmap_traits@V?$basic_string@DU?$char_traits@D@std@@V?$allocator@D@2@@std@@PAVCObject3D@@U?$less@V?$basic_string@DU?$char_traits@D@std@@V?$allocator@D@2@@std@@@2@V?$allocator@U?$pair@$$CBV?$basic_string@DU?$char_traits@D@std@@V?$allocator@D@2@@std@@PAVCObject3D@@@std@@@2@$0A@@std@@@std@@QAEXXZ ; std::_Tree<std::_Tmap_traits<std::basic_string<char,std::char_traits<char>,std::allocator<char> >,CObject3D *,std::less<std::basic_string<char,std::char_traits<char>,std::allocator<char> > >,std::allocator<std::pair<std::basic_string<char,std::char_traits<char>,std::allocator<char> > const ,CObject3D *> >,0> >::clear
; Function compile flags: /Ogty
;	COMDAT ?clear@?$_Tree@V?$_Tmap_traits@V?$basic_string@DU?$char_traits@D@std@@V?$allocator@D@2@@std@@PAVCObject3D@@U?$less@V?$basic_string@DU?$char_traits@D@std@@V?$allocator@D@2@@std@@@2@V?$allocator@U?$pair@$$CBV?$basic_string@DU?$char_traits@D@std@@V?$allocator@D@2@@std@@PAVCObject3D@@@std@@@2@$0A@@std@@@std@@QAEXXZ
_TEXT	SEGMENT
?clear@?$_Tree@V?$_Tmap_traits@V?$basic_string@DU?$char_traits@D@std@@V?$allocator@D@2@@std@@PAVCObject3D@@U?$less@V?$basic_string@DU?$char_traits@D@std@@V?$allocator@D@2@@std@@@2@V?$allocator@U?$pair@$$CBV?$basic_string@DU?$char_traits@D@std@@V?$allocator@D@2@@std@@PAVCObject3D@@@std@@@2@$0A@@std@@@std@@QAEXXZ PROC NEAR ; std::_Tree<std::_Tmap_traits<std::basic_string<char,std::char_traits<char>,std::allocator<char> >,CObject3D *,std::less<std::basic_string<char,std::char_traits<char>,std::allocator<char> > >,std::allocator<std::pair<std::basic_string<char,std::char_traits<char>,std::allocator<char> > const ,CObject3D *> >,0> >::clear, COMDAT
; _this$ = ecx

; 780  : 		{	// erase all

  00000	56		 push	 esi
  00001	8b f1		 mov	 esi, ecx

; 781  : 		_Erase(_Root());

  00003	8b 46 04	 mov	 eax, DWORD PTR [esi+4]
  00006	8b 48 04	 mov	 ecx, DWORD PTR [eax+4]
  00009	51		 push	 ecx
  0000a	8b ce		 mov	 ecx, esi
  0000c	e8 00 00 00 00	 call	 ?_Erase@?$_Tree@V?$_Tmap_traits@V?$basic_string@DU?$char_traits@D@std@@V?$allocator@D@2@@std@@PAVCObject3D@@U?$less@V?$basic_string@DU?$char_traits@D@std@@V?$allocator@D@2@@std@@@2@V?$allocator@U?$pair@$$CBV?$basic_string@DU?$char_traits@D@std@@V?$allocator@D@2@@std@@PAVCObject3D@@@std@@@2@$0A@@std@@@std@@IAEXPAU_Node@?$_Tree_nod@V?$_Tmap_traits@V?$basic_string@DU?$char_traits@D@std@@V?$allocator@D@2@@std@@PAVCObject3D@@U?$less@V?$basic_string@DU?$char_traits@D@std@@V?$allocator@D@2@@std@@@2@V?$allocator@U?$pair@$$CBV?$basic_string@DU?$char_traits@D@std@@V?$allocator@D@2@@std@@PAVCObject3D@@@std@@@2@$0A@@std@@@2@@Z ; std::_Tree<std::_Tmap_traits<std::basic_string<char,std::char_traits<char>,std::allocator<char> >,CObject3D *,std::less<std::basic_string<char,std::char_traits<char>,std::allocator<char> > >,std::allocator<std::pair<std::basic_string<char,std::char_traits<char>,std::allocator<char> > const ,CObject3D *> >,0> >::_Erase

; 782  : 		_Root() = _Myhead, _Mysize = 0;

  00011	8b 46 04	 mov	 eax, DWORD PTR [esi+4]
  00014	89 40 04	 mov	 DWORD PTR [eax+4], eax

; 783  : 		_Lmost() = _Myhead, _Rmost() = _Myhead;

  00017	8b 46 04	 mov	 eax, DWORD PTR [esi+4]
  0001a	c7 46 08 00 00
	00 00		 mov	 DWORD PTR [esi+8], 0
  00021	89 00		 mov	 DWORD PTR [eax], eax
  00023	8b 76 04	 mov	 esi, DWORD PTR [esi+4]
  00026	89 76 08	 mov	 DWORD PTR [esi+8], esi
  00029	5e		 pop	 esi

; 784  : 		}

  0002a	c3		 ret	 0
?clear@?$_Tree@V?$_Tmap_traits@V?$basic_string@DU?$char_traits@D@std@@V?$allocator@D@2@@std@@PAVCObject3D@@U?$less@V?$basic_string@DU?$char_traits@D@std@@V?$allocator@D@2@@std@@@2@V?$allocator@U?$pair@$$CBV?$basic_string@DU?$char_traits@D@std@@V?$allocator@D@2@@std@@PAVCObject3D@@@std@@@2@$0A@@std@@@std@@QAEXXZ ENDP ; std::_Tree<std::_Tmap_traits<std::basic_string<char,std::char_traits<char>,std::allocator<char> >,CObject3D *,std::less<std::basic_string<char,std::char_traits<char>,std::allocator<char> > >,std::allocator<std::pair<std::basic_string<char,std::char_traits<char>,std::allocator<char> > const ,CObject3D *> >,0> >::clear
_TEXT	ENDS
PUBLIC	?erase@?$_Tree@V?$_Tmap_traits@V?$basic_string@DU?$char_traits@D@std@@V?$allocator@D@2@@std@@PAVCObject3D@@U?$less@V?$basic_string@DU?$char_traits@D@std@@V?$allocator@D@2@@std@@@2@V?$allocator@U?$pair@$$CBV?$basic_string@DU?$char_traits@D@std@@V?$allocator@D@2@@std@@PAVCObject3D@@@std@@@2@$0A@@std@@@std@@QAE?AViterator@12@V312@0@Z ; std::_Tree<std::_Tmap_traits<std::basic_string<char,std::char_traits<char>,std::allocator<char> >,CObject3D *,std::less<std::basic_string<char,std::char_traits<char>,std::allocator<char> > >,std::allocator<std::pair<std::basic_string<char,std::char_traits<char>,std::allocator<char> > const ,CObject3D *> >,0> >::erase
; Function compile flags: /Ogty
;	COMDAT ?erase@?$_Tree@V?$_Tmap_traits@V?$basic_string@DU?$char_traits@D@std@@V?$allocator@D@2@@std@@PAVCObject3D@@U?$less@V?$basic_string@DU?$char_traits@D@std@@V?$allocator@D@2@@std@@@2@V?$allocator@U?$pair@$$CBV?$basic_string@DU?$char_traits@D@std@@V?$allocator@D@2@@std@@PAVCObject3D@@@std@@@2@$0A@@std@@@std@@QAE?AViterator@12@V312@0@Z
_TEXT	SEGMENT
___$ReturnUdt$ = 8					; size = 4
$T235241 = 12						; size = 4
__First$ = 12						; size = 4
__Last$ = 16						; size = 4
?erase@?$_Tree@V?$_Tmap_traits@V?$basic_string@DU?$char_traits@D@std@@V?$allocator@D@2@@std@@PAVCObject3D@@U?$less@V?$basic_string@DU?$char_traits@D@std@@V?$allocator@D@2@@std@@@2@V?$allocator@U?$pair@$$CBV?$basic_string@DU?$char_traits@D@std@@V?$allocator@D@2@@std@@PAVCObject3D@@@std@@@2@$0A@@std@@@std@@QAE?AViterator@12@V312@0@Z PROC NEAR ; std::_Tree<std::_Tmap_traits<std::basic_string<char,std::char_traits<char>,std::allocator<char> >,CObject3D *,std::less<std::basic_string<char,std::char_traits<char>,std::allocator<char> > >,std::allocator<std::pair<std::basic_string<char,std::char_traits<char>,std::allocator<char> > const ,CObject3D *> >,0> >::erase, COMDAT
; _this$ = ecx

; 750  : 		{	// erase [_First, _Last)

  00000	53		 push	 ebx

; 751  : 		if (_First == begin() && _Last == end())

  00001	8b 5c 24 10	 mov	 ebx, DWORD PTR __Last$[esp]
  00005	56		 push	 esi
  00006	8b 74 24 10	 mov	 esi, DWORD PTR __First$[esp+4]
  0000a	57		 push	 edi
  0000b	8b f9		 mov	 edi, ecx
  0000d	8b 47 04	 mov	 eax, DWORD PTR [edi+4]
  00010	3b 30		 cmp	 esi, DWORD PTR [eax]
  00012	75 38		 jne	 SHORT $L235573
  00014	3b d8		 cmp	 ebx, eax
  00016	75 34		 jne	 SHORT $L235573

; 752  : 			{	// erase all
; 753  : 			clear();

  00018	8b 40 04	 mov	 eax, DWORD PTR [eax+4]
  0001b	50		 push	 eax
  0001c	8b cf		 mov	 ecx, edi
  0001e	e8 00 00 00 00	 call	 ?_Erase@?$_Tree@V?$_Tmap_traits@V?$basic_string@DU?$char_traits@D@std@@V?$allocator@D@2@@std@@PAVCObject3D@@U?$less@V?$basic_string@DU?$char_traits@D@std@@V?$allocator@D@2@@std@@@2@V?$allocator@U?$pair@$$CBV?$basic_string@DU?$char_traits@D@std@@V?$allocator@D@2@@std@@PAVCObject3D@@@std@@@2@$0A@@std@@@std@@IAEXPAU_Node@?$_Tree_nod@V?$_Tmap_traits@V?$basic_string@DU?$char_traits@D@std@@V?$allocator@D@2@@std@@PAVCObject3D@@U?$less@V?$basic_string@DU?$char_traits@D@std@@V?$allocator@D@2@@std@@@2@V?$allocator@U?$pair@$$CBV?$basic_string@DU?$char_traits@D@std@@V?$allocator@D@2@@std@@PAVCObject3D@@@std@@@2@$0A@@std@@@2@@Z ; std::_Tree<std::_Tmap_traits<std::basic_string<char,std::char_traits<char>,std::allocator<char> >,CObject3D *,std::less<std::basic_string<char,std::char_traits<char>,std::allocator<char> > >,std::allocator<std::pair<std::basic_string<char,std::char_traits<char>,std::allocator<char> > const ,CObject3D *> >,0> >::_Erase
  00023	8b 47 04	 mov	 eax, DWORD PTR [edi+4]
  00026	89 40 04	 mov	 DWORD PTR [eax+4], eax
  00029	8b 47 04	 mov	 eax, DWORD PTR [edi+4]
  0002c	c7 47 08 00 00
	00 00		 mov	 DWORD PTR [edi+8], 0
  00033	89 00		 mov	 DWORD PTR [eax], eax
  00035	8b 47 04	 mov	 eax, DWORD PTR [edi+4]
  00038	89 40 08	 mov	 DWORD PTR [eax+8], eax

; 754  : 			return (begin());

  0003b	8b 4f 04	 mov	 ecx, DWORD PTR [edi+4]
  0003e	8b 11		 mov	 edx, DWORD PTR [ecx]
  00040	8b 44 24 10	 mov	 eax, DWORD PTR ___$ReturnUdt$[esp+8]
  00044	5f		 pop	 edi
  00045	5e		 pop	 esi
  00046	89 10		 mov	 DWORD PTR [eax], edx
  00048	5b		 pop	 ebx

; 761  : 			}
; 762  : 		}

  00049	c2 0c 00	 ret	 12			; 0000000cH
$L235573:

; 755  : 			}
; 756  : 		else
; 757  : 			{	// partial erase, one at a time
; 758  : 			while (_First != _Last)

  0004c	3b f3		 cmp	 esi, ebx
  0004e	74 5b		 je	 SHORT $L227047
$L227046:

; 759  : 				erase(_First++);

  00050	8a 46 2d	 mov	 al, BYTE PTR [esi+45]
  00053	84 c0		 test	 al, al
  00055	8b ce		 mov	 ecx, esi
  00057	75 41		 jne	 SHORT $L235557
  00059	8b 46 08	 mov	 eax, DWORD PTR [esi+8]
  0005c	8a 50 2d	 mov	 dl, BYTE PTR [eax+45]
  0005f	84 d2		 test	 dl, dl
  00061	75 1a		 jne	 SHORT $L235575
  00063	8b f0		 mov	 esi, eax
  00065	8b 06		 mov	 eax, DWORD PTR [esi]
  00067	8a 50 2d	 mov	 dl, BYTE PTR [eax+45]
  0006a	84 d2		 test	 dl, dl
  0006c	75 2c		 jne	 SHORT $L235557
  0006e	8b ff		 npad	 2
$L235571:
  00070	8b f0		 mov	 esi, eax
  00072	8b 06		 mov	 eax, DWORD PTR [esi]
  00074	8a 50 2d	 mov	 dl, BYTE PTR [eax+45]
  00077	84 d2		 test	 dl, dl
  00079	74 f5		 je	 SHORT $L235571
  0007b	eb 1d		 jmp	 SHORT $L235557
$L235575:
  0007d	8b 46 04	 mov	 eax, DWORD PTR [esi+4]
  00080	8a 50 2d	 mov	 dl, BYTE PTR [eax+45]
  00083	84 d2		 test	 dl, dl
  00085	75 11		 jne	 SHORT $L235560
$L235559:
  00087	3b 70 08	 cmp	 esi, DWORD PTR [eax+8]
  0008a	75 0c		 jne	 SHORT $L235560
  0008c	8b f0		 mov	 esi, eax
  0008e	8b 40 04	 mov	 eax, DWORD PTR [eax+4]
  00091	8a 50 2d	 mov	 dl, BYTE PTR [eax+45]
  00094	84 d2		 test	 dl, dl
  00096	74 ef		 je	 SHORT $L235559
$L235560:
  00098	8b f0		 mov	 esi, eax
$L235557:
  0009a	51		 push	 ecx
  0009b	8d 44 24 18	 lea	 eax, DWORD PTR $T235241[esp+12]
  0009f	50		 push	 eax
  000a0	8b cf		 mov	 ecx, edi
  000a2	e8 00 00 00 00	 call	 ?erase@?$_Tree@V?$_Tmap_traits@V?$basic_string@DU?$char_traits@D@std@@V?$allocator@D@2@@std@@PAVCObject3D@@U?$less@V?$basic_string@DU?$char_traits@D@std@@V?$allocator@D@2@@std@@@2@V?$allocator@U?$pair@$$CBV?$basic_string@DU?$char_traits@D@std@@V?$allocator@D@2@@std@@PAVCObject3D@@@std@@@2@$0A@@std@@@std@@QAE?AViterator@12@V312@@Z ; std::_Tree<std::_Tmap_traits<std::basic_string<char,std::char_traits<char>,std::allocator<char> >,CObject3D *,std::less<std::basic_string<char,std::char_traits<char>,std::allocator<char> > >,std::allocator<std::pair<std::basic_string<char,std::char_traits<char>,std::allocator<char> > const ,CObject3D *> >,0> >::erase
  000a7	3b f3		 cmp	 esi, ebx
  000a9	75 a5		 jne	 SHORT $L227046
$L227047:

; 760  : 			return (_First);

  000ab	8b 44 24 10	 mov	 eax, DWORD PTR ___$ReturnUdt$[esp+8]
  000af	5f		 pop	 edi
  000b0	89 30		 mov	 DWORD PTR [eax], esi
  000b2	5e		 pop	 esi
  000b3	5b		 pop	 ebx

; 761  : 			}
; 762  : 		}

  000b4	c2 0c 00	 ret	 12			; 0000000cH
?erase@?$_Tree@V?$_Tmap_traits@V?$basic_string@DU?$char_traits@D@std@@V?$allocator@D@2@@std@@PAVCObject3D@@U?$less@V?$basic_string@DU?$char_traits@D@std@@V?$allocator@D@2@@std@@@2@V?$allocator@U?$pair@$$CBV?$basic_string@DU?$char_traits@D@std@@V?$allocator@D@2@@std@@PAVCObject3D@@@std@@@2@$0A@@std@@@std@@QAE?AViterator@12@V312@0@Z ENDP ; std::_Tree<std::_Tmap_traits<std::basic_string<char,std::char_traits<char>,std::allocator<char> >,CObject3D *,std::less<std::basic_string<char,std::char_traits<char>,std::allocator<char> > >,std::allocator<std::pair<std::basic_string<char,std::char_traits<char>,std::allocator<char> > const ,CObject3D *> >,0> >::erase
_TEXT	ENDS
PUBLIC	__TI3?AVlength_error@std@@
PUBLIC	__CTA3?AVlength_error@std@@
PUBLIC	??_R0?AVlength_error@std@@@8			; std::length_error `RTTI Type Descriptor'
PUBLIC	__CT??_R0?AVlength_error@std@@@8??0length_error@std@@QAE@ABV01@@Z40
PUBLIC	??_C@_0BE@JONHPENG@map?1set?$DMT?$DO?5too?5long?$AA@ ; `string'
PUBLIC	??0length_error@std@@QAE@ABV01@@Z		; std::length_error::length_error
PUBLIC	?_Insert@?$_Tree@V?$_Tmap_traits@V?$basic_string@DU?$char_traits@D@std@@V?$allocator@D@2@@std@@PAVCObject3D@@U?$less@V?$basic_string@DU?$char_traits@D@std@@V?$allocator@D@2@@std@@@2@V?$allocator@U?$pair@$$CBV?$basic_string@DU?$char_traits@D@std@@V?$allocator@D@2@@std@@PAVCObject3D@@@std@@@2@$0A@@std@@@std@@IAE?AViterator@12@_NPAU_Node@?$_Tree_nod@V?$_Tmap_traits@V?$basic_string@DU?$char_traits@D@std@@V?$allocator@D@2@@std@@PAVCObject3D@@U?$less@V?$basic_string@DU?$char_traits@D@std@@V?$allocator@D@2@@std@@@2@V?$allocator@U?$pair@$$CBV?$basic_string@DU?$char_traits@D@std@@V?$allocator@D@2@@std@@PAVCObject3D@@@std@@@2@$0A@@std@@@2@ABU?$pair@$$CBV?$basic_string@DU?$char_traits@D@std@@V?$allocator@D@2@@std@@PAVCObject3D@@@2@@Z ; std::_Tree<std::_Tmap_traits<std::basic_string<char,std::char_traits<char>,std::allocator<char> >,CObject3D *,std::less<std::basic_string<char,std::char_traits<char>,std::allocator<char> > >,std::allocator<std::pair<std::basic_string<char,std::char_traits<char>,std::allocator<char> > const ,CObject3D *> >,0> >::_Insert
;	COMDAT xdata$x
xdata$x	SEGMENT
$T235954 DD	0ffffffffH
	DD	FLAT:$L235584
$T235949 DD	019930520H
	DD	01H
	DD	FLAT:$T235954
	DD	2 DUP(00H)
	DD	2 DUP(00H)
xdata$x	ENDS
;	COMDAT ??_C@_0BE@JONHPENG@map?1set?$DMT?$DO?5too?5long?$AA@
CONST	SEGMENT
??_C@_0BE@JONHPENG@map?1set?$DMT?$DO?5too?5long?$AA@ DB 'map/set<T> too l'
	DB	'ong', 00H					; `string'
CONST	ENDS
;	COMDAT __TI3?AVlength_error@std@@
xdata$x	SEGMENT
__TI3?AVlength_error@std@@ DD 00H
	DD	FLAT:??1length_error@std@@UAE@XZ
	DD	00H
	DD	FLAT:__CTA3?AVlength_error@std@@
xdata$x	ENDS
;	COMDAT __CTA3?AVlength_error@std@@
xdata$x	SEGMENT
__CTA3?AVlength_error@std@@ DD 03H
	DD	FLAT:__CT??_R0?AVlength_error@std@@@8??0length_error@std@@QAE@ABV01@@Z40
	DD	FLAT:__CT??_R0?AVlogic_error@std@@@8??0logic_error@std@@QAE@ABV01@@Z40
	DD	FLAT:__CT??_R0?AVexception@@@8??0exception@@QAE@ABV0@@Z12
xdata$x	ENDS
;	COMDAT __CT??_R0?AVlength_error@std@@@8??0length_error@std@@QAE@ABV01@@Z40
xdata$x	SEGMENT
__CT??_R0?AVlength_error@std@@@8??0length_error@std@@QAE@ABV01@@Z40 DD 00H
	DD	FLAT:??_R0?AVlength_error@std@@@8
	DD	00H
	DD	0ffffffffH
	ORG $+4
	DD	028H
	DD	FLAT:??0length_error@std@@QAE@ABV01@@Z
xdata$x	ENDS
;	COMDAT ??_R0?AVlength_error@std@@@8
_DATA	SEGMENT
??_R0?AVlength_error@std@@@8 DD FLAT:??_7type_info@@6B@	; std::length_error `RTTI Type Descriptor'
	DD	00H
	DB	'.?AVlength_error@std@@', 00H
; Function compile flags: /Ogty
_DATA	ENDS
;	COMDAT ?_Insert@?$_Tree@V?$_Tmap_traits@V?$basic_string@DU?$char_traits@D@std@@V?$allocator@D@2@@std@@PAVCObject3D@@U?$less@V?$basic_string@DU?$char_traits@D@std@@V?$allocator@D@2@@std@@@2@V?$allocator@U?$pair@$$CBV?$basic_string@DU?$char_traits@D@std@@V?$allocator@D@2@@std@@PAVCObject3D@@@std@@@2@$0A@@std@@@std@@IAE?AViterator@12@_NPAU_Node@?$_Tree_nod@V?$_Tmap_traits@V?$basic_string@DU?$char_traits@D@std@@V?$allocator@D@2@@std@@PAVCObject3D@@U?$less@V?$basic_string@DU?$char_traits@D@std@@V?$allocator@D@2@@std@@@2@V?$allocator@U?$pair@$$CBV?$basic_string@DU?$char_traits@D@std@@V?$allocator@D@2@@std@@PAVCObject3D@@@std@@@2@$0A@@std@@@2@ABU?$pair@$$CBV?$basic_string@DU?$char_traits@D@std@@V?$allocator@D@2@@std@@PAVCObject3D@@@2@@Z
_TEXT	SEGMENT
$T235583 = -80						; size = 28
$T235582 = -52						; size = 40
__$EHRec$ = -12						; size = 12
___$ReturnUdt$ = 8					; size = 4
__Addleft$ = 12						; size = 1
__Wherenode$ = 16					; size = 4
__Newnode$ = 20						; size = 4
__Val$ = 20						; size = 4
?_Insert@?$_Tree@V?$_Tmap_traits@V?$basic_string@DU?$char_traits@D@std@@V?$allocator@D@2@@std@@PAVCObject3D@@U?$less@V?$basic_string@DU?$char_traits@D@std@@V?$allocator@D@2@@std@@@2@V?$allocator@U?$pair@$$CBV?$basic_string@DU?$char_traits@D@std@@V?$allocator@D@2@@std@@PAVCObject3D@@@std@@@2@$0A@@std@@@std@@IAE?AViterator@12@_NPAU_Node@?$_Tree_nod@V?$_Tmap_traits@V?$basic_string@DU?$char_traits@D@std@@V?$allocator@D@2@@std@@PAVCObject3D@@U?$less@V?$basic_string@DU?$char_traits@D@std@@V?$allocator@D@2@@std@@@2@V?$allocator@U?$pair@$$CBV?$basic_string@DU?$char_traits@D@std@@V?$allocator@D@2@@std@@PAVCObject3D@@@std@@@2@$0A@@std@@@2@ABU?$pair@$$CBV?$basic_string@DU?$char_traits@D@std@@V?$allocator@D@2@@std@@PAVCObject3D@@@2@@Z PROC NEAR ; std::_Tree<std::_Tmap_traits<std::basic_string<char,std::char_traits<char>,std::allocator<char> >,CObject3D *,std::less<std::basic_string<char,std::char_traits<char>,std::allocator<char> > >,std::allocator<std::pair<std::basic_string<char,std::char_traits<char>,std::allocator<char> > const ,CObject3D *> >,0> >::_Insert, COMDAT
; _this$ = ecx

; 911  : 		{	// add node with value next to _Wherenode, to left if _Addnode

  00000	64 a1 00 00 00
	00		 mov	 eax, DWORD PTR fs:__except_list
  00006	6a ff		 push	 -1
  00008	68 00 00 00 00	 push	 __ehhandler$?_Insert@?$_Tree@V?$_Tmap_traits@V?$basic_string@DU?$char_traits@D@std@@V?$allocator@D@2@@std@@PAVCObject3D@@U?$less@V?$basic_string@DU?$char_traits@D@std@@V?$allocator@D@2@@std@@@2@V?$allocator@U?$pair@$$CBV?$basic_string@DU?$char_traits@D@std@@V?$allocator@D@2@@std@@PAVCObject3D@@@std@@@2@$0A@@std@@@std@@IAE?AViterator@12@_NPAU_Node@?$_Tree_nod@V?$_Tmap_traits@V?$basic_string@DU?$char_traits@D@std@@V?$allocator@D@2@@std@@PAVCObject3D@@U?$less@V?$basic_string@DU?$char_traits@D@std@@V?$allocator@D@2@@std@@@2@V?$allocator@U?$pair@$$CBV?$basic_string@DU?$char_traits@D@std@@V?$allocator@D@2@@std@@PAVCObject3D@@@std@@@2@$0A@@std@@@2@ABU?$pair@$$CBV?$basic_string@DU?$char_traits@D@std@@V?$allocator@D@2@@std@@PAVCObject3D@@@2@@Z
  0000d	50		 push	 eax
  0000e	64 89 25 00 00
	00 00		 mov	 DWORD PTR fs:__except_list, esp
  00015	83 ec 44	 sub	 esp, 68			; 00000044H
  00018	56		 push	 esi
  00019	57		 push	 edi
  0001a	8b f9		 mov	 edi, ecx

; 912  : 		if (max_size() - 1 <= _Mysize)

  0001c	81 7f 08 fe ff
	ff 07		 cmp	 DWORD PTR [edi+8], 134217726 ; 07fffffeH
  00023	72 4c		 jb	 SHORT $L227069

; 913  : 			_THROW(length_error, "map/set<T> too long");

  00025	6a 13		 push	 19			; 00000013H
  00027	33 f6		 xor	 esi, esi
  00029	68 00 00 00 00	 push	 OFFSET FLAT:??_C@_0BE@JONHPENG@map?1set?$DMT?$DO?5too?5long?$AA@
  0002e	8d 4c 24 10	 lea	 ecx, DWORD PTR $T235583[esp+96]
  00032	c7 44 24 28 0f
	00 00 00	 mov	 DWORD PTR $T235583[esp+120], 15 ; 0000000fH
  0003a	89 74 24 24	 mov	 DWORD PTR $T235583[esp+116], esi
  0003e	c6 44 24 14 00	 mov	 BYTE PTR $T235583[esp+100], 0
  00043	e8 00 00 00 00	 call	 ?assign@?$basic_string@DU?$char_traits@D@std@@V?$allocator@D@2@@std@@QAEAAV12@PBDI@Z ; std::basic_string<char,std::char_traits<char>,std::allocator<char> >::assign
  00048	8d 44 24 08	 lea	 eax, DWORD PTR $T235583[esp+88]
  0004c	50		 push	 eax
  0004d	8d 4c 24 28	 lea	 ecx, DWORD PTR $T235582[esp+92]
  00051	89 74 24 58	 mov	 DWORD PTR __$EHRec$[esp+100], esi
  00055	e8 00 00 00 00	 call	 ??0logic_error@std@@QAE@ABV?$basic_string@DU?$char_traits@D@std@@V?$allocator@D@2@@1@@Z ; std::logic_error::logic_error
  0005a	68 00 00 00 00	 push	 OFFSET FLAT:__TI3?AVlength_error@std@@
  0005f	8d 4c 24 28	 lea	 ecx, DWORD PTR $T235582[esp+92]
  00063	51		 push	 ecx
  00064	c7 44 24 2c 00
	00 00 00	 mov	 DWORD PTR $T235582[esp+96], OFFSET FLAT:??_7length_error@std@@6B@
  0006c	e8 00 00 00 00	 call	 __CxxThrowException@8
$L235955:
$L227069:

; 914  : 		_Nodeptr _Newnode = _Buynode(_Myhead, _Wherenode, _Myhead,
; 915  : 			_Val, _Red);

  00071	8b 54 24 68	 mov	 edx, DWORD PTR __Val$[esp+84]
  00075	8b 47 04	 mov	 eax, DWORD PTR [edi+4]
  00078	8b 74 24 64	 mov	 esi, DWORD PTR __Wherenode$[esp+84]
  0007c	53		 push	 ebx
  0007d	6a 00		 push	 0
  0007f	52		 push	 edx
  00080	50		 push	 eax
  00081	56		 push	 esi
  00082	50		 push	 eax
  00083	8b cf		 mov	 ecx, edi
  00085	e8 00 00 00 00	 call	 ?_Buynode@?$_Tree@V?$_Tmap_traits@V?$basic_string@DU?$char_traits@D@std@@V?$allocator@D@2@@std@@PAVCObject3D@@U?$less@V?$basic_string@DU?$char_traits@D@std@@V?$allocator@D@2@@std@@@2@V?$allocator@U?$pair@$$CBV?$basic_string@DU?$char_traits@D@std@@V?$allocator@D@2@@std@@PAVCObject3D@@@std@@@2@$0A@@std@@@std@@IAEPAU_Node@?$_Tree_nod@V?$_Tmap_traits@V?$basic_string@DU?$char_traits@D@std@@V?$allocator@D@2@@std@@PAVCObject3D@@U?$less@V?$basic_string@DU?$char_traits@D@std@@V?$allocator@D@2@@std@@@2@V?$allocator@U?$pair@$$CBV?$basic_string@DU?$char_traits@D@std@@V?$allocator@D@2@@std@@PAVCObject3D@@@std@@@2@$0A@@std@@@2@PAU342@00ABU?$pair@$$CBV?$basic_string@DU?$char_traits@D@std@@V?$allocator@D@2@@std@@PAVCObject3D@@@2@D@Z ; std::_Tree<std::_Tmap_traits<std::basic_string<char,std::char_traits<char>,std::allocator<char> >,CObject3D *,std::less<std::basic_string<char,std::char_traits<char>,std::allocator<char> > >,std::allocator<std::pair<std::basic_string<char,std::char_traits<char>,std::allocator<char> > const ,CObject3D *> >,0> >::_Buynode

; 916  : 
; 917  : 		++_Mysize;

  0008a	8b 5f 08	 mov	 ebx, DWORD PTR [edi+8]
  0008d	8b c8		 mov	 ecx, eax

; 918  : 		if (_Wherenode == _Myhead)

  0008f	8b 47 04	 mov	 eax, DWORD PTR [edi+4]
  00092	43		 inc	 ebx
  00093	3b f0		 cmp	 esi, eax
  00095	89 4c 24 6c	 mov	 DWORD PTR __Newnode$[esp+88], ecx
  00099	89 5f 08	 mov	 DWORD PTR [edi+8], ebx
  0009c	75 10		 jne	 SHORT $L227074

; 919  : 			{	// first node in tree, just set head values
; 920  : 			_Root() = _Newnode;

  0009e	89 48 04	 mov	 DWORD PTR [eax+4], ecx

; 921  : 			_Lmost() = _Newnode, _Rmost() = _Newnode;

  000a1	8b 47 04	 mov	 eax, DWORD PTR [edi+4]
  000a4	89 08		 mov	 DWORD PTR [eax], ecx
  000a6	8b 57 04	 mov	 edx, DWORD PTR [edi+4]
  000a9	89 4a 08	 mov	 DWORD PTR [edx+8], ecx

; 922  : 			}
; 923  : 		else if (_Addleft)

  000ac	eb 23		 jmp	 SHORT $L227079
$L227074:
  000ae	8a 44 24 64	 mov	 al, BYTE PTR __Addleft$[esp+88]
  000b2	84 c0		 test	 al, al
  000b4	74 0d		 je	 SHORT $L227076

; 924  : 			{	// add to left of _Wherenode
; 925  : 			_Left(_Wherenode) = _Newnode;

  000b6	89 0e		 mov	 DWORD PTR [esi], ecx

; 926  : 			if (_Wherenode == _Lmost())

  000b8	8b 47 04	 mov	 eax, DWORD PTR [edi+4]
  000bb	3b 30		 cmp	 esi, DWORD PTR [eax]
  000bd	75 12		 jne	 SHORT $L227079

; 927  : 				_Lmost() = _Newnode;

  000bf	89 08		 mov	 DWORD PTR [eax], ecx

; 928  : 			}
; 929  : 		else

  000c1	eb 0e		 jmp	 SHORT $L227079
$L227076:

; 930  : 			{	// add to right of _Wherenode
; 931  : 			_Right(_Wherenode) = _Newnode;

  000c3	89 4e 08	 mov	 DWORD PTR [esi+8], ecx

; 932  : 			if (_Wherenode == _Rmost())

  000c6	8b 47 04	 mov	 eax, DWORD PTR [edi+4]
  000c9	3b 70 08	 cmp	 esi, DWORD PTR [eax+8]
  000cc	75 03		 jne	 SHORT $L227079

; 933  : 				_Rmost() = _Newnode;

  000ce	89 48 08	 mov	 DWORD PTR [eax+8], ecx
$L227079:

; 934  : 			}
; 935  : 
; 936  : 		for (_Nodeptr _Pnode = _Newnode; _Color(_Parent(_Pnode)) == _Red; )

  000d1	8b 51 04	 mov	 edx, DWORD PTR [ecx+4]
  000d4	80 7a 2c 00	 cmp	 BYTE PTR [edx+44], 0
  000d8	8d 41 04	 lea	 eax, DWORD PTR [ecx+4]
  000db	8b f1		 mov	 esi, ecx
  000dd	b3 01		 mov	 bl, 1
  000df	0f 85 a5 00 00
	00		 jne	 $L227083
  000e5	55		 push	 ebp
$L227082:

; 937  : 			if (_Parent(_Pnode) == _Left(_Parent(_Parent(_Pnode))))

  000e6	8b 08		 mov	 ecx, DWORD PTR [eax]
  000e8	8b 69 04	 mov	 ebp, DWORD PTR [ecx+4]
  000eb	8b 55 00	 mov	 edx, DWORD PTR [ebp]
  000ee	3b ca		 cmp	 ecx, edx
  000f0	75 50		 jne	 SHORT $L227084

; 938  : 				{	// fixup red-red in left subtree
; 939  : 				_Wherenode = _Right(_Parent(_Parent(_Pnode)));

  000f2	8b 55 08	 mov	 edx, DWORD PTR [ebp+8]

; 940  : 				if (_Color(_Wherenode) == _Red)

  000f5	80 7a 2c 00	 cmp	 BYTE PTR [edx+44], 0
  000f9	75 18		 jne	 SHORT $L227085
$L235953:

; 941  : 					{	// parent has two red children, blacken both
; 942  : 					_Color(_Parent(_Pnode)) = _Black;

  000fb	8b 08		 mov	 ecx, DWORD PTR [eax]
  000fd	88 59 2c	 mov	 BYTE PTR [ecx+44], bl

; 943  : 					_Color(_Wherenode) = _Black;

  00100	88 5a 2c	 mov	 BYTE PTR [edx+44], bl

; 944  : 					_Color(_Parent(_Parent(_Pnode))) = _Red;

  00103	8b 10		 mov	 edx, DWORD PTR [eax]
  00105	8b 4a 04	 mov	 ecx, DWORD PTR [edx+4]
  00108	c6 41 2c 00	 mov	 BYTE PTR [ecx+44], 0

; 945  : 					_Pnode = _Parent(_Parent(_Pnode));

  0010c	8b 10		 mov	 edx, DWORD PTR [eax]
  0010e	8b 72 04	 mov	 esi, DWORD PTR [edx+4]

; 946  : 					}
; 947  : 				else

  00111	eb 61		 jmp	 SHORT $L227090
$L227085:

; 948  : 					{	// parent has red and black children
; 949  : 					if (_Pnode == _Right(_Parent(_Pnode)))

  00113	3b 71 08	 cmp	 esi, DWORD PTR [ecx+8]
  00116	75 0a		 jne	 SHORT $L227087

; 950  : 						{	// rotate right child to left
; 951  : 						_Pnode = _Parent(_Pnode);

  00118	8b f1		 mov	 esi, ecx

; 952  : 						_Lrotate(_Pnode);

  0011a	56		 push	 esi
  0011b	8b cf		 mov	 ecx, edi
  0011d	e8 00 00 00 00	 call	 ?_Lrotate@?$_Tree@V?$_Tmap_traits@V?$basic_string@DU?$char_traits@D@std@@V?$allocator@D@2@@std@@PAVCObject3D@@U?$less@V?$basic_string@DU?$char_traits@D@std@@V?$allocator@D@2@@std@@@2@V?$allocator@U?$pair@$$CBV?$basic_string@DU?$char_traits@D@std@@V?$allocator@D@2@@std@@PAVCObject3D@@@std@@@2@$0A@@std@@@std@@IAEXPAU_Node@?$_Tree_nod@V?$_Tmap_traits@V?$basic_string@DU?$char_traits@D@std@@V?$allocator@D@2@@std@@PAVCObject3D@@U?$less@V?$basic_string@DU?$char_traits@D@std@@V?$allocator@D@2@@std@@@2@V?$allocator@U?$pair@$$CBV?$basic_string@DU?$char_traits@D@std@@V?$allocator@D@2@@std@@PAVCObject3D@@@std@@@2@$0A@@std@@@2@@Z ; std::_Tree<std::_Tmap_traits<std::basic_string<char,std::char_traits<char>,std::allocator<char> >,CObject3D *,std::less<std::basic_string<char,std::char_traits<char>,std::allocator<char> > >,std::allocator<std::pair<std::basic_string<char,std::char_traits<char>,std::allocator<char> > const ,CObject3D *> >,0> >::_Lrotate
$L227087:

; 953  : 						}
; 954  : 					_Color(_Parent(_Pnode)) = _Black;	// propagate red up

  00122	8b 46 04	 mov	 eax, DWORD PTR [esi+4]
  00125	88 58 2c	 mov	 BYTE PTR [eax+44], bl

; 955  : 					_Color(_Parent(_Parent(_Pnode))) = _Red;

  00128	8b 4e 04	 mov	 ecx, DWORD PTR [esi+4]
  0012b	8b 51 04	 mov	 edx, DWORD PTR [ecx+4]
  0012e	c6 42 2c 00	 mov	 BYTE PTR [edx+44], 0

; 956  : 					_Rrotate(_Parent(_Parent(_Pnode)));

  00132	8b 46 04	 mov	 eax, DWORD PTR [esi+4]
  00135	8b 48 04	 mov	 ecx, DWORD PTR [eax+4]
  00138	51		 push	 ecx
  00139	8b cf		 mov	 ecx, edi
  0013b	e8 00 00 00 00	 call	 ?_Rrotate@?$_Tree@V?$_Tmap_traits@V?$basic_string@DU?$char_traits@D@std@@V?$allocator@D@2@@std@@PAVCObject3D@@U?$less@V?$basic_string@DU?$char_traits@D@std@@V?$allocator@D@2@@std@@@2@V?$allocator@U?$pair@$$CBV?$basic_string@DU?$char_traits@D@std@@V?$allocator@D@2@@std@@PAVCObject3D@@@std@@@2@$0A@@std@@@std@@IAEXPAU_Node@?$_Tree_nod@V?$_Tmap_traits@V?$basic_string@DU?$char_traits@D@std@@V?$allocator@D@2@@std@@PAVCObject3D@@U?$less@V?$basic_string@DU?$char_traits@D@std@@V?$allocator@D@2@@std@@@2@V?$allocator@U?$pair@$$CBV?$basic_string@DU?$char_traits@D@std@@V?$allocator@D@2@@std@@PAVCObject3D@@@std@@@2@$0A@@std@@@2@@Z ; std::_Tree<std::_Tmap_traits<std::basic_string<char,std::char_traits<char>,std::allocator<char> >,CObject3D *,std::less<std::basic_string<char,std::char_traits<char>,std::allocator<char> > >,std::allocator<std::pair<std::basic_string<char,std::char_traits<char>,std::allocator<char> > const ,CObject3D *> >,0> >::_Rrotate

; 957  : 					}
; 958  : 				}
; 959  : 			else

  00140	eb 32		 jmp	 SHORT $L227090
$L227084:

; 960  : 				{	// fixup red-red in right subtree
; 961  : 				_Wherenode = _Left(_Parent(_Parent(_Pnode)));
; 962  : 				if (_Color(_Wherenode) == _Red)

  00142	80 7a 2c 00	 cmp	 BYTE PTR [edx+44], 0

; 963  : 					{	// parent has two red children, blacken both
; 964  : 					_Color(_Parent(_Pnode)) = _Black;
; 965  : 					_Color(_Wherenode) = _Black;
; 966  : 					_Color(_Parent(_Parent(_Pnode))) = _Red;
; 967  : 					_Pnode = _Parent(_Parent(_Pnode));
; 968  : 					}
; 969  : 				else

  00146	74 b3		 je	 SHORT $L235953

; 970  : 					{	// parent has red and black children
; 971  : 					if (_Pnode == _Left(_Parent(_Pnode)))

  00148	3b 31		 cmp	 esi, DWORD PTR [ecx]
  0014a	75 0a		 jne	 SHORT $L227091

; 972  : 						{	// rotate left child to right
; 973  : 						_Pnode = _Parent(_Pnode);

  0014c	8b f1		 mov	 esi, ecx

; 974  : 						_Rrotate(_Pnode);

  0014e	56		 push	 esi
  0014f	8b cf		 mov	 ecx, edi
  00151	e8 00 00 00 00	 call	 ?_Rrotate@?$_Tree@V?$_Tmap_traits@V?$basic_string@DU?$char_traits@D@std@@V?$allocator@D@2@@std@@PAVCObject3D@@U?$less@V?$basic_string@DU?$char_traits@D@std@@V?$allocator@D@2@@std@@@2@V?$allocator@U?$pair@$$CBV?$basic_string@DU?$char_traits@D@std@@V?$allocator@D@2@@std@@PAVCObject3D@@@std@@@2@$0A@@std@@@std@@IAEXPAU_Node@?$_Tree_nod@V?$_Tmap_traits@V?$basic_string@DU?$char_traits@D@std@@V?$allocator@D@2@@std@@PAVCObject3D@@U?$less@V?$basic_string@DU?$char_traits@D@std@@V?$allocator@D@2@@std@@@2@V?$allocator@U?$pair@$$CBV?$basic_string@DU?$char_traits@D@std@@V?$allocator@D@2@@std@@PAVCObject3D@@@std@@@2@$0A@@std@@@2@@Z ; std::_Tree<std::_Tmap_traits<std::basic_string<char,std::char_traits<char>,std::allocator<char> >,CObject3D *,std::less<std::basic_string<char,std::char_traits<char>,std::allocator<char> > >,std::allocator<std::pair<std::basic_string<char,std::char_traits<char>,std::allocator<char> > const ,CObject3D *> >,0> >::_Rrotate
$L227091:

; 975  : 						}
; 976  : 					_Color(_Parent(_Pnode)) = _Black;	// propagate red up

  00156	8b 46 04	 mov	 eax, DWORD PTR [esi+4]
  00159	88 58 2c	 mov	 BYTE PTR [eax+44], bl

; 977  : 					_Color(_Parent(_Parent(_Pnode))) = _Red;

  0015c	8b 4e 04	 mov	 ecx, DWORD PTR [esi+4]
  0015f	8b 51 04	 mov	 edx, DWORD PTR [ecx+4]
  00162	c6 42 2c 00	 mov	 BYTE PTR [edx+44], 0

; 978  : 					_Lrotate(_Parent(_Parent(_Pnode)));

  00166	8b 46 04	 mov	 eax, DWORD PTR [esi+4]
  00169	8b 48 04	 mov	 ecx, DWORD PTR [eax+4]
  0016c	51		 push	 ecx
  0016d	8b cf		 mov	 ecx, edi
  0016f	e8 00 00 00 00	 call	 ?_Lrotate@?$_Tree@V?$_Tmap_traits@V?$basic_string@DU?$char_traits@D@std@@V?$allocator@D@2@@std@@PAVCObject3D@@U?$less@V?$basic_string@DU?$char_traits@D@std@@V?$allocator@D@2@@std@@@2@V?$allocator@U?$pair@$$CBV?$basic_string@DU?$char_traits@D@std@@V?$allocator@D@2@@std@@PAVCObject3D@@@std@@@2@$0A@@std@@@std@@IAEXPAU_Node@?$_Tree_nod@V?$_Tmap_traits@V?$basic_string@DU?$char_traits@D@std@@V?$allocator@D@2@@std@@PAVCObject3D@@U?$less@V?$basic_string@DU?$char_traits@D@std@@V?$allocator@D@2@@std@@@2@V?$allocator@U?$pair@$$CBV?$basic_string@DU?$char_traits@D@std@@V?$allocator@D@2@@std@@PAVCObject3D@@@std@@@2@$0A@@std@@@2@@Z ; std::_Tree<std::_Tmap_traits<std::basic_string<char,std::char_traits<char>,std::allocator<char> >,CObject3D *,std::less<std::basic_string<char,std::char_traits<char>,std::allocator<char> > >,std::allocator<std::pair<std::basic_string<char,std::char_traits<char>,std::allocator<char> > const ,CObject3D *> >,0> >::_Lrotate
$L227090:
  00174	8b 56 04	 mov	 edx, DWORD PTR [esi+4]
  00177	8a 4a 2c	 mov	 cl, BYTE PTR [edx+44]
  0017a	84 c9		 test	 cl, cl
  0017c	8d 46 04	 lea	 eax, DWORD PTR [esi+4]
  0017f	0f 84 61 ff ff
	ff		 je	 $L227082
  00185	8b 4c 24 70	 mov	 ecx, DWORD PTR __Newnode$[esp+92]
  00189	5d		 pop	 ebp
$L227083:

; 979  : 					}
; 980  : 				}
; 981  : 
; 982  : 		_Color(_Root()) = _Black;	// root is always black

  0018a	8b 47 04	 mov	 eax, DWORD PTR [edi+4]
  0018d	8b 50 04	 mov	 edx, DWORD PTR [eax+4]

; 983  : 		return (_TREE_ITERATOR(_Newnode));

  00190	8b 44 24 60	 mov	 eax, DWORD PTR ___$ReturnUdt$[esp+88]
  00194	88 5a 2c	 mov	 BYTE PTR [edx+44], bl
  00197	5b		 pop	 ebx
  00198	89 08		 mov	 DWORD PTR [eax], ecx

; 984  : 		}

  0019a	8b 4c 24 4c	 mov	 ecx, DWORD PTR __$EHRec$[esp+88]
  0019e	5f		 pop	 edi
  0019f	5e		 pop	 esi
  001a0	64 89 0d 00 00
	00 00		 mov	 DWORD PTR fs:__except_list, ecx
  001a7	83 c4 50	 add	 esp, 80			; 00000050H
  001aa	c2 10 00	 ret	 16			; 00000010H
$L235952:
_TEXT	ENDS
;	COMDAT text$x
text$x	SEGMENT
$L235584:
  00000	8d 4d b0	 lea	 ecx, DWORD PTR $T235583[ebp]
  00003	e9 00 00 00 00	 jmp	 ??1?$basic_string@DU?$char_traits@D@std@@V?$allocator@D@2@@std@@QAE@XZ ; std::basic_string<char,std::char_traits<char>,std::allocator<char> >::~basic_string<char,std::char_traits<char>,std::allocator<char> >
__ehhandler$?_Insert@?$_Tree@V?$_Tmap_traits@V?$basic_string@DU?$char_traits@D@std@@V?$allocator@D@2@@std@@PAVCObject3D@@U?$less@V?$basic_string@DU?$char_traits@D@std@@V?$allocator@D@2@@std@@@2@V?$allocator@U?$pair@$$CBV?$basic_string@DU?$char_traits@D@std@@V?$allocator@D@2@@std@@PAVCObject3D@@@std@@@2@$0A@@std@@@std@@IAE?AViterator@12@_NPAU_Node@?$_Tree_nod@V?$_Tmap_traits@V?$basic_string@DU?$char_traits@D@std@@V?$allocator@D@2@@std@@PAVCObject3D@@U?$less@V?$basic_string@DU?$char_traits@D@std@@V?$allocator@D@2@@std@@@2@V?$allocator@U?$pair@$$CBV?$basic_string@DU?$char_traits@D@std@@V?$allocator@D@2@@std@@PAVCObject3D@@@std@@@2@$0A@@std@@@2@ABU?$pair@$$CBV?$basic_string@DU?$char_traits@D@std@@V?$allocator@D@2@@std@@PAVCObject3D@@@2@@Z:
  00008	b8 00 00 00 00	 mov	 eax, OFFSET FLAT:$T235949
  0000d	e9 00 00 00 00	 jmp	 ___CxxFrameHandler
text$x	ENDS
?_Insert@?$_Tree@V?$_Tmap_traits@V?$basic_string@DU?$char_traits@D@std@@V?$allocator@D@2@@std@@PAVCObject3D@@U?$less@V?$basic_string@DU?$char_traits@D@std@@V?$allocator@D@2@@std@@@2@V?$allocator@U?$pair@$$CBV?$basic_string@DU?$char_traits@D@std@@V?$allocator@D@2@@std@@PAVCObject3D@@@std@@@2@$0A@@std@@@std@@IAE?AViterator@12@_NPAU_Node@?$_Tree_nod@V?$_Tmap_traits@V?$basic_string@DU?$char_traits@D@std@@V?$allocator@D@2@@std@@PAVCObject3D@@U?$less@V?$basic_string@DU?$char_traits@D@std@@V?$allocator@D@2@@std@@@2@V?$allocator@U?$pair@$$CBV?$basic_string@DU?$char_traits@D@std@@V?$allocator@D@2@@std@@PAVCObject3D@@@std@@@2@$0A@@std@@@2@ABU?$pair@$$CBV?$basic_string@DU?$char_traits@D@std@@V?$allocator@D@2@@std@@PAVCObject3D@@@2@@Z ENDP ; std::_Tree<std::_Tmap_traits<std::basic_string<char,std::char_traits<char>,std::allocator<char> >,CObject3D *,std::less<std::basic_string<char,std::char_traits<char>,std::allocator<char> > >,std::allocator<std::pair<std::basic_string<char,std::char_traits<char>,std::allocator<char> > const ,CObject3D *> >,0> >::_Insert
; Function compile flags: /Ogty
;	COMDAT ??0length_error@std@@QAE@ABV01@@Z
_TEXT	SEGMENT
___that$ = 8						; size = 4
??0length_error@std@@QAE@ABV01@@Z PROC NEAR		; std::length_error::length_error, COMDAT
; _this$ = ecx
  00000	8b 44 24 04	 mov	 eax, DWORD PTR ___that$[esp-4]
  00004	56		 push	 esi
  00005	50		 push	 eax
  00006	8b f1		 mov	 esi, ecx
  00008	e8 00 00 00 00	 call	 ??0logic_error@std@@QAE@ABV01@@Z
  0000d	c7 06 00 00 00
	00		 mov	 DWORD PTR [esi], OFFSET FLAT:??_7length_error@std@@6B@
  00013	8b c6		 mov	 eax, esi
  00015	5e		 pop	 esi
  00016	c2 04 00	 ret	 4
??0length_error@std@@QAE@ABV01@@Z ENDP			; std::length_error::length_error
_TEXT	ENDS
PUBLIC	?_Tidy@?$_Tree@V?$_Tmap_traits@V?$basic_string@DU?$char_traits@D@std@@V?$allocator@D@2@@std@@PAVCObject3D@@U?$less@V?$basic_string@DU?$char_traits@D@std@@V?$allocator@D@2@@std@@@2@V?$allocator@U?$pair@$$CBV?$basic_string@DU?$char_traits@D@std@@V?$allocator@D@2@@std@@PAVCObject3D@@@std@@@2@$0A@@std@@@std@@IAEXXZ ; std::_Tree<std::_Tmap_traits<std::basic_string<char,std::char_traits<char>,std::allocator<char> >,CObject3D *,std::less<std::basic_string<char,std::char_traits<char>,std::allocator<char> > >,std::allocator<std::pair<std::basic_string<char,std::char_traits<char>,std::allocator<char> > const ,CObject3D *> >,0> >::_Tidy
; Function compile flags: /Ogty
;	COMDAT ?_Tidy@?$_Tree@V?$_Tmap_traits@V?$basic_string@DU?$char_traits@D@std@@V?$allocator@D@2@@std@@PAVCObject3D@@U?$less@V?$basic_string@DU?$char_traits@D@std@@V?$allocator@D@2@@std@@@2@V?$allocator@U?$pair@$$CBV?$basic_string@DU?$char_traits@D@std@@V?$allocator@D@2@@std@@PAVCObject3D@@@std@@@2@$0A@@std@@@std@@IAEXXZ
_TEXT	SEGMENT
$T235967 = -4						; size = 4
?_Tidy@?$_Tree@V?$_Tmap_traits@V?$basic_string@DU?$char_traits@D@std@@V?$allocator@D@2@@std@@PAVCObject3D@@U?$less@V?$basic_string@DU?$char_traits@D@std@@V?$allocator@D@2@@std@@@2@V?$allocator@U?$pair@$$CBV?$basic_string@DU?$char_traits@D@std@@V?$allocator@D@2@@std@@PAVCObject3D@@@std@@@2@$0A@@std@@@std@@IAEXXZ PROC NEAR ; std::_Tree<std::_Tmap_traits<std::basic_string<char,std::char_traits<char>,std::allocator<char> >,CObject3D *,std::less<std::basic_string<char,std::char_traits<char>,std::allocator<char> > >,std::allocator<std::pair<std::basic_string<char,std::char_traits<char>,std::allocator<char> > const ,CObject3D *> >,0> >::_Tidy, COMDAT
; _this$ = ecx

; 1142 : 		{	// free all storage

  00000	51		 push	 ecx
  00001	56		 push	 esi
  00002	8b f1		 mov	 esi, ecx

; 1143 : 		erase(begin(), end());

  00004	8b 46 04	 mov	 eax, DWORD PTR [esi+4]
  00007	8b 08		 mov	 ecx, DWORD PTR [eax]
  00009	50		 push	 eax
  0000a	51		 push	 ecx
  0000b	8d 44 24 0c	 lea	 eax, DWORD PTR $T235967[esp+16]
  0000f	50		 push	 eax
  00010	8b ce		 mov	 ecx, esi
  00012	e8 00 00 00 00	 call	 ?erase@?$_Tree@V?$_Tmap_traits@V?$basic_string@DU?$char_traits@D@std@@V?$allocator@D@2@@std@@PAVCObject3D@@U?$less@V?$basic_string@DU?$char_traits@D@std@@V?$allocator@D@2@@std@@@2@V?$allocator@U?$pair@$$CBV?$basic_string@DU?$char_traits@D@std@@V?$allocator@D@2@@std@@PAVCObject3D@@@std@@@2@$0A@@std@@@std@@QAE?AViterator@12@V312@0@Z ; std::_Tree<std::_Tmap_traits<std::basic_string<char,std::char_traits<char>,std::allocator<char> >,CObject3D *,std::less<std::basic_string<char,std::char_traits<char>,std::allocator<char> > >,std::allocator<std::pair<std::basic_string<char,std::char_traits<char>,std::allocator<char> > const ,CObject3D *> >,0> >::erase

; 1144 : 		this->_Alptr.destroy(&_Left(_Myhead));
; 1145 : 		this->_Alptr.destroy(&_Parent(_Myhead));
; 1146 : 		this->_Alptr.destroy(&_Right(_Myhead));
; 1147 : 		this->_Alnod.deallocate(_Myhead, 1);

  00017	8b 4e 04	 mov	 ecx, DWORD PTR [esi+4]
  0001a	51		 push	 ecx
  0001b	e8 00 00 00 00	 call	 ??3@YAXPAX@Z		; operator delete
  00020	83 c4 04	 add	 esp, 4

; 1148 : 		_Myhead = 0, _Mysize = 0;

  00023	33 c0		 xor	 eax, eax
  00025	89 46 04	 mov	 DWORD PTR [esi+4], eax
  00028	89 46 08	 mov	 DWORD PTR [esi+8], eax
  0002b	5e		 pop	 esi

; 1149 : 		}

  0002c	59		 pop	 ecx
  0002d	c3		 ret	 0
?_Tidy@?$_Tree@V?$_Tmap_traits@V?$basic_string@DU?$char_traits@D@std@@V?$allocator@D@2@@std@@PAVCObject3D@@U?$less@V?$basic_string@DU?$char_traits@D@std@@V?$allocator@D@2@@std@@@2@V?$allocator@U?$pair@$$CBV?$basic_string@DU?$char_traits@D@std@@V?$allocator@D@2@@std@@PAVCObject3D@@@std@@@2@$0A@@std@@@std@@IAEXXZ ENDP ; std::_Tree<std::_Tmap_traits<std::basic_string<char,std::char_traits<char>,std::allocator<char> >,CObject3D *,std::less<std::basic_string<char,std::char_traits<char>,std::allocator<char> > >,std::allocator<std::pair<std::basic_string<char,std::char_traits<char>,std::allocator<char> > const ,CObject3D *> >,0> >::_Tidy
_TEXT	ENDS
PUBLIC	?Init@CObject3DMng@@AAEXXZ			; CObject3DMng::Init
; Function compile flags: /Ogty
; File c:\documents and settings\test\mes documents\source\virtuos_v17\build\program\_common\object3d.cpp
;	COMDAT ?Init@CObject3DMng@@AAEXXZ
_TEXT	SEGMENT
?Init@CObject3DMng@@AAEXXZ PROC NEAR			; CObject3DMng::Init, COMDAT
; _this$ = ecx

; 240  : {

  00000	56		 push	 esi
  00001	8b f1		 mov	 esi, ecx

; 241  : #ifdef __JEFF_11_5
; 242  : 	m_mapObject3D.clear();

  00003	8b 46 04	 mov	 eax, DWORD PTR [esi+4]
  00006	8b 48 04	 mov	 ecx, DWORD PTR [eax+4]
  00009	51		 push	 ecx
  0000a	8b ce		 mov	 ecx, esi
  0000c	e8 00 00 00 00	 call	 ?_Erase@?$_Tree@V?$_Tmap_traits@V?$basic_string@DU?$char_traits@D@std@@V?$allocator@D@2@@std@@PAVCObject3D@@U?$less@V?$basic_string@DU?$char_traits@D@std@@V?$allocator@D@2@@std@@@2@V?$allocator@U?$pair@$$CBV?$basic_string@DU?$char_traits@D@std@@V?$allocator@D@2@@std@@PAVCObject3D@@@std@@@2@$0A@@std@@@std@@IAEXPAU_Node@?$_Tree_nod@V?$_Tmap_traits@V?$basic_string@DU?$char_traits@D@std@@V?$allocator@D@2@@std@@PAVCObject3D@@U?$less@V?$basic_string@DU?$char_traits@D@std@@V?$allocator@D@2@@std@@@2@V?$allocator@U?$pair@$$CBV?$basic_string@DU?$char_traits@D@std@@V?$allocator@D@2@@std@@PAVCObject3D@@@std@@@2@$0A@@std@@@2@@Z ; std::_Tree<std::_Tmap_traits<std::basic_string<char,std::char_traits<char>,std::allocator<char> >,CObject3D *,std::less<std::basic_string<char,std::char_traits<char>,std::allocator<char> > >,std::allocator<std::pair<std::basic_string<char,std::char_traits<char>,std::allocator<char> > const ,CObject3D *> >,0> >::_Erase
  00011	8b 46 04	 mov	 eax, DWORD PTR [esi+4]
  00014	89 40 04	 mov	 DWORD PTR [eax+4], eax
  00017	8b 46 04	 mov	 eax, DWORD PTR [esi+4]
  0001a	c7 46 08 00 00
	00 00		 mov	 DWORD PTR [esi+8], 0
  00021	89 00		 mov	 DWORD PTR [eax], eax
  00023	8b 76 04	 mov	 esi, DWORD PTR [esi+4]
  00026	89 76 08	 mov	 DWORD PTR [esi+8], esi
  00029	5e		 pop	 esi

; 243  : #else	// __JEFF_11_5
; 244  : 	int		i;
; 245  : 	m_nSize = 0;
; 246  : 	m_nMax = 0;
; 247  : 	m_nCachePos = 0;
; 248  : 
; 249  : 	for( i = 0; i < MAX_OBJECT3D; i ++ )	m_pObject3DAry[i] = NULL;
; 250  : 	for( i = 0; i < MAX_OBJECT3D_CACHE; i ++ )	m_pCache[i] = NULL;
; 251  : //	m_tmTimer	= timeGetTime();
; 252  : #endif	// __JEFF_11_5
; 253  : }

  0002a	c3		 ret	 0
?Init@CObject3DMng@@AAEXXZ ENDP				; CObject3DMng::Init
_TEXT	ENDS
PUBLIC	?Destroy@CObject3DMng@@QAEXXZ			; CObject3DMng::Destroy
; Function compile flags: /Ogty
;	COMDAT ?Destroy@CObject3DMng@@QAEXXZ
_TEXT	SEGMENT
_i$225754 = -4						; size = 4
?Destroy@CObject3DMng@@QAEXXZ PROC NEAR			; CObject3DMng::Destroy, COMDAT
; _this$ = ecx

; 257  : {

  00000	51		 push	 ecx
  00001	56		 push	 esi
  00002	8b f1		 mov	 esi, ecx

; 258  : #ifdef __JEFF_11_5
; 259  : 	for( map<string, CObject3D*>::iterator i = m_mapObject3D.begin(); i != m_mapObject3D.end(); ++i )

  00004	8b 46 04	 mov	 eax, DWORD PTR [esi+4]
  00007	57		 push	 edi
  00008	8b 38		 mov	 edi, DWORD PTR [eax]
  0000a	3b f8		 cmp	 edi, eax
  0000c	89 7c 24 08	 mov	 DWORD PTR _i$225754[esp+12], edi
  00010	74 3a		 je	 SHORT $L225759
  00012	53		 push	 ebx
$L236126:

; 260  : 	{
; 261  : 		i->second->DeleteDeviceObjects();

  00013	8b 4f 28	 mov	 ecx, DWORD PTR [edi+40]
  00016	e8 00 00 00 00	 call	 ?DeleteDeviceObjects@CObject3D@@QAEJXZ ; CObject3D::DeleteDeviceObjects

; 262  : 		SAFE_DELETE( i->second );

  0001b	8b 5f 28	 mov	 ebx, DWORD PTR [edi+40]
  0001e	85 db		 test	 ebx, ebx
  00020	74 17		 je	 SHORT $L225758
  00022	8b cb		 mov	 ecx, ebx
  00024	e8 00 00 00 00	 call	 ?Destroy@CObject3D@@AAEXXZ ; CObject3D::Destroy
  00029	53		 push	 ebx
  0002a	e8 00 00 00 00	 call	 ??3@YAXPAX@Z		; operator delete
  0002f	83 c4 04	 add	 esp, 4
  00032	c7 47 28 00 00
	00 00		 mov	 DWORD PTR [edi+40], 0
$L225758:
  00039	8d 4c 24 0c	 lea	 ecx, DWORD PTR _i$225754[esp+16]
  0003d	e8 00 00 00 00	 call	 ?_Inc@const_iterator@?$_Tree@V?$_Tmap_traits@V?$basic_string@DU?$char_traits@D@std@@V?$allocator@D@2@@std@@PAVCObject3D@@U?$less@V?$basic_string@DU?$char_traits@D@std@@V?$allocator@D@2@@std@@@2@V?$allocator@U?$pair@$$CBV?$basic_string@DU?$char_traits@D@std@@V?$allocator@D@2@@std@@PAVCObject3D@@@std@@@2@$0A@@std@@@std@@QAEXXZ ; std::_Tree<std::_Tmap_traits<std::basic_string<char,std::char_traits<char>,std::allocator<char> >,CObject3D *,std::less<std::basic_string<char,std::char_traits<char>,std::allocator<char> > >,std::allocator<std::pair<std::basic_string<char,std::char_traits<char>,std::allocator<char> > const ,CObject3D *> >,0> >::const_iterator::_Inc
  00042	8b 7c 24 0c	 mov	 edi, DWORD PTR _i$225754[esp+16]
  00046	3b 7e 04	 cmp	 edi, DWORD PTR [esi+4]
  00049	75 c8		 jne	 SHORT $L236126
  0004b	5b		 pop	 ebx
$L225759:

; 263  : 	}
; 264  : #else	// __JEFF_11_5
; 265  : 	int		i;
; 266  : 	CObject3D		**pAry = m_pObject3DAry;
; 267  : 	CObject3D		*pObject3D;
; 268  : 
; 269  : 	for( i = 0; i < MAX_OBJECT3D; i ++ )
; 270  : 	{
; 271  : 		pObject3D = *pAry++;
; 272  : 		if( pObject3D )
; 273  : 		{
; 274  : 			pObject3D->DeleteDeviceObjects();
; 275  : 			SAFE_DELETE( pObject3D );
; 276  : 			//TRACE( "Delete Object 3D%p\n", pObject3D);
; 277  : 		}
; 278  : 	}
; 279  : #endif	// __JEFF_11_5
; 280  : 
; 281  : 	Init();

  0004c	8b 46 04	 mov	 eax, DWORD PTR [esi+4]
  0004f	8b 48 04	 mov	 ecx, DWORD PTR [eax+4]
  00052	51		 push	 ecx
  00053	8b ce		 mov	 ecx, esi
  00055	e8 00 00 00 00	 call	 ?_Erase@?$_Tree@V?$_Tmap_traits@V?$basic_string@DU?$char_traits@D@std@@V?$allocator@D@2@@std@@PAVCObject3D@@U?$less@V?$basic_string@DU?$char_traits@D@std@@V?$allocator@D@2@@std@@@2@V?$allocator@U?$pair@$$CBV?$basic_string@DU?$char_traits@D@std@@V?$allocator@D@2@@std@@PAVCObject3D@@@std@@@2@$0A@@std@@@std@@IAEXPAU_Node@?$_Tree_nod@V?$_Tmap_traits@V?$basic_string@DU?$char_traits@D@std@@V?$allocator@D@2@@std@@PAVCObject3D@@U?$less@V?$basic_string@DU?$char_traits@D@std@@V?$allocator@D@2@@std@@@2@V?$allocator@U?$pair@$$CBV?$basic_string@DU?$char_traits@D@std@@V?$allocator@D@2@@std@@PAVCObject3D@@@std@@@2@$0A@@std@@@2@@Z ; std::_Tree<std::_Tmap_traits<std::basic_string<char,std::char_traits<char>,std::allocator<char> >,CObject3D *,std::less<std::basic_string<char,std::char_traits<char>,std::allocator<char> > >,std::allocator<std::pair<std::basic_string<char,std::char_traits<char>,std::allocator<char> > const ,CObject3D *> >,0> >::_Erase
  0005a	8b 46 04	 mov	 eax, DWORD PTR [esi+4]
  0005d	89 40 04	 mov	 DWORD PTR [eax+4], eax
  00060	8b 46 04	 mov	 eax, DWORD PTR [esi+4]
  00063	c7 46 08 00 00
	00 00		 mov	 DWORD PTR [esi+8], 0
  0006a	89 00		 mov	 DWORD PTR [eax], eax
  0006c	8b 76 04	 mov	 esi, DWORD PTR [esi+4]
  0006f	5f		 pop	 edi
  00070	89 76 08	 mov	 DWORD PTR [esi+8], esi
  00073	5e		 pop	 esi

; 282  : }

  00074	59		 pop	 ecx
  00075	c3		 ret	 0
?Destroy@CObject3DMng@@QAEXXZ ENDP			; CObject3DMng::Destroy
_TEXT	ENDS
PUBLIC	??1?$_Tree@V?$_Tmap_traits@V?$basic_string@DU?$char_traits@D@std@@V?$allocator@D@2@@std@@PAVCObject3D@@U?$less@V?$basic_string@DU?$char_traits@D@std@@V?$allocator@D@2@@std@@@2@V?$allocator@U?$pair@$$CBV?$basic_string@DU?$char_traits@D@std@@V?$allocator@D@2@@std@@PAVCObject3D@@@std@@@2@$0A@@std@@@std@@QAE@XZ ; std::_Tree<std::_Tmap_traits<std::basic_string<char,std::char_traits<char>,std::allocator<char> >,CObject3D *,std::less<std::basic_string<char,std::char_traits<char>,std::allocator<char> > >,std::allocator<std::pair<std::basic_string<char,std::char_traits<char>,std::allocator<char> > const ,CObject3D *> >,0> >::~_Tree<std::_Tmap_traits<std::basic_string<char,std::char_traits<char>,std::allocator<char> >,CObject3D *,std::less<std::basic_string<char,std::char_traits<char>,std::allocator<char> > >,std::allocator<std::pair<std::basic_string<char,std::char_traits<char>,std::allocator<char> > const ,CObject3D *> >,0> >
; Function compile flags: /Ogty
; File c:\program files\microsoft visual studio .net 2003\vc7\include\xtree
;	COMDAT ??1?$_Tree@V?$_Tmap_traits@V?$basic_string@DU?$char_traits@D@std@@V?$allocator@D@2@@std@@PAVCObject3D@@U?$less@V?$basic_string@DU?$char_traits@D@std@@V?$allocator@D@2@@std@@@2@V?$allocator@U?$pair@$$CBV?$basic_string@DU?$char_traits@D@std@@V?$allocator@D@2@@std@@PAVCObject3D@@@std@@@2@$0A@@std@@@std@@QAE@XZ
_TEXT	SEGMENT
$T236400 = -4						; size = 4
??1?$_Tree@V?$_Tmap_traits@V?$basic_string@DU?$char_traits@D@std@@V?$allocator@D@2@@std@@PAVCObject3D@@U?$less@V?$basic_string@DU?$char_traits@D@std@@V?$allocator@D@2@@std@@@2@V?$allocator@U?$pair@$$CBV?$basic_string@DU?$char_traits@D@std@@V?$allocator@D@2@@std@@PAVCObject3D@@@std@@@2@$0A@@std@@@std@@QAE@XZ PROC NEAR ; std::_Tree<std::_Tmap_traits<std::basic_string<char,std::char_traits<char>,std::allocator<char> >,CObject3D *,std::less<std::basic_string<char,std::char_traits<char>,std::allocator<char> > >,std::allocator<std::pair<std::basic_string<char,std::char_traits<char>,std::allocator<char> > const ,CObject3D *> >,0> >::~_Tree<std::_Tmap_traits<std::basic_string<char,std::char_traits<char>,std::allocator<char> >,CObject3D *,std::less<std::basic_string<char,std::char_traits<char>,std::allocator<char> > >,std::allocator<std::pair<std::basic_string<char,std::char_traits<char>,std::allocator<char> > const ,CObject3D *> >,0> >, COMDAT
; _this$ = ecx

; 391  : 		{	// destroy tree

  00000	51		 push	 ecx
  00001	56		 push	 esi
  00002	8b f1		 mov	 esi, ecx

; 392  : 		_Tidy();

  00004	8b 46 04	 mov	 eax, DWORD PTR [esi+4]
  00007	8b 08		 mov	 ecx, DWORD PTR [eax]
  00009	50		 push	 eax
  0000a	51		 push	 ecx
  0000b	8d 44 24 0c	 lea	 eax, DWORD PTR $T236400[esp+16]
  0000f	50		 push	 eax
  00010	8b ce		 mov	 ecx, esi
  00012	e8 00 00 00 00	 call	 ?erase@?$_Tree@V?$_Tmap_traits@V?$basic_string@DU?$char_traits@D@std@@V?$allocator@D@2@@std@@PAVCObject3D@@U?$less@V?$basic_string@DU?$char_traits@D@std@@V?$allocator@D@2@@std@@@2@V?$allocator@U?$pair@$$CBV?$basic_string@DU?$char_traits@D@std@@V?$allocator@D@2@@std@@PAVCObject3D@@@std@@@2@$0A@@std@@@std@@QAE?AViterator@12@V312@0@Z ; std::_Tree<std::_Tmap_traits<std::basic_string<char,std::char_traits<char>,std::allocator<char> >,CObject3D *,std::less<std::basic_string<char,std::char_traits<char>,std::allocator<char> > >,std::allocator<std::pair<std::basic_string<char,std::char_traits<char>,std::allocator<char> > const ,CObject3D *> >,0> >::erase
  00017	8b 4e 04	 mov	 ecx, DWORD PTR [esi+4]
  0001a	51		 push	 ecx
  0001b	e8 00 00 00 00	 call	 ??3@YAXPAX@Z		; operator delete
  00020	83 c4 04	 add	 esp, 4
  00023	33 c0		 xor	 eax, eax
  00025	89 46 04	 mov	 DWORD PTR [esi+4], eax
  00028	89 46 08	 mov	 DWORD PTR [esi+8], eax
  0002b	5e		 pop	 esi

; 393  : 		}

  0002c	59		 pop	 ecx
  0002d	c3		 ret	 0
??1?$_Tree@V?$_Tmap_traits@V?$basic_string@DU?$char_traits@D@std@@V?$allocator@D@2@@std@@PAVCObject3D@@U?$less@V?$basic_string@DU?$char_traits@D@std@@V?$allocator@D@2@@std@@@2@V?$allocator@U?$pair@$$CBV?$basic_string@DU?$char_traits@D@std@@V?$allocator@D@2@@std@@PAVCObject3D@@@std@@@2@$0A@@std@@@std@@QAE@XZ ENDP ; std::_Tree<std::_Tmap_traits<std::basic_string<char,std::char_traits<char>,std::allocator<char> >,CObject3D *,std::less<std::basic_string<char,std::char_traits<char>,std::allocator<char> > >,std::allocator<std::pair<std::basic_string<char,std::char_traits<char>,std::allocator<char> > const ,CObject3D *> >,0> >::~_Tree<std::_Tmap_traits<std::basic_string<char,std::char_traits<char>,std::allocator<char> >,CObject3D *,std::less<std::basic_string<char,std::char_traits<char>,std::allocator<char> > >,std::allocator<std::pair<std::basic_string<char,std::char_traits<char>,std::allocator<char> > const ,CObject3D *> >,0> >
_TEXT	ENDS
PUBLIC	?insert@?$_Tree@V?$_Tmap_traits@V?$basic_string@DU?$char_traits@D@std@@V?$allocator@D@2@@std@@PAVCObject3D@@U?$less@V?$basic_string@DU?$char_traits@D@std@@V?$allocator@D@2@@std@@@2@V?$allocator@U?$pair@$$CBV?$basic_string@DU?$char_traits@D@std@@V?$allocator@D@2@@std@@PAVCObject3D@@@std@@@2@$0A@@std@@@std@@QAE?AU?$pair@Viterator@?$_Tree@V?$_Tmap_traits@V?$basic_string@DU?$char_traits@D@std@@V?$allocator@D@2@@std@@PAVCObject3D@@U?$less@V?$basic_string@DU?$char_traits@D@std@@V?$allocator@D@2@@std@@@2@V?$allocator@U?$pair@$$CBV?$basic_string@DU?$char_traits@D@std@@V?$allocator@D@2@@std@@PAVCObject3D@@@std@@@2@$0A@@std@@@std@@_N@2@ABU?$pair@$$CBV?$basic_string@DU?$char_traits@D@std@@V?$allocator@D@2@@std@@PAVCObject3D@@@2@@Z ; std::_Tree<std::_Tmap_traits<std::basic_string<char,std::char_traits<char>,std::allocator<char> >,CObject3D *,std::less<std::basic_string<char,std::char_traits<char>,std::allocator<char> > >,std::allocator<std::pair<std::basic_string<char,std::char_traits<char>,std::allocator<char> > const ,CObject3D *> >,0> >::insert
; Function compile flags: /Ogty
;	COMDAT ?insert@?$_Tree@V?$_Tmap_traits@V?$basic_string@DU?$char_traits@D@std@@V?$allocator@D@2@@std@@PAVCObject3D@@U?$less@V?$basic_string@DU?$char_traits@D@std@@V?$allocator@D@2@@std@@@2@V?$allocator@U?$pair@$$CBV?$basic_string@DU?$char_traits@D@std@@V?$allocator@D@2@@std@@PAVCObject3D@@@std@@@2@$0A@@std@@@std@@QAE?AU?$pair@Viterator@?$_Tree@V?$_Tmap_traits@V?$basic_string@DU?$char_traits@D@std@@V?$allocator@D@2@@std@@PAVCObject3D@@U?$less@V?$basic_string@DU?$char_traits@D@std@@V?$allocator@D@2@@std@@@2@V?$allocator@U?$pair@$$CBV?$basic_string@DU?$char_traits@D@std@@V?$allocator@D@2@@std@@PAVCObject3D@@@std@@@2@$0A@@std@@@std@@_N@2@ABU?$pair@$$CBV?$basic_string@DU?$char_traits@D@std@@V?$allocator@D@2@@std@@PAVCObject3D@@@2@@Z
_TEXT	SEGMENT
__Addleft$ = -20					; size = 1
_this$ = -16						; size = 4
tv412 = -12						; size = 4
tv311 = -8						; size = 4
__Wherenode$ = -4					; size = 4
___$ReturnUdt$ = 8					; size = 4
$T236436 = 12						; size = 4
$T236434 = 12						; size = 4
__Where$226862 = 12					; size = 4
__Val$ = 12						; size = 4
?insert@?$_Tree@V?$_Tmap_traits@V?$basic_string@DU?$char_traits@D@std@@V?$allocator@D@2@@std@@PAVCObject3D@@U?$less@V?$basic_string@DU?$char_traits@D@std@@V?$allocator@D@2@@std@@@2@V?$allocator@U?$pair@$$CBV?$basic_string@DU?$char_traits@D@std@@V?$allocator@D@2@@std@@PAVCObject3D@@@std@@@2@$0A@@std@@@std@@QAE?AU?$pair@Viterator@?$_Tree@V?$_Tmap_traits@V?$basic_string@DU?$char_traits@D@std@@V?$allocator@D@2@@std@@PAVCObject3D@@U?$less@V?$basic_string@DU?$char_traits@D@std@@V?$allocator@D@2@@std@@@2@V?$allocator@U?$pair@$$CBV?$basic_string@DU?$char_traits@D@std@@V?$allocator@D@2@@std@@PAVCObject3D@@@std@@@2@$0A@@std@@@std@@_N@2@ABU?$pair@$$CBV?$basic_string@DU?$char_traits@D@std@@V?$allocator@D@2@@std@@PAVCObject3D@@@2@@Z PROC NEAR ; std::_Tree<std::_Tmap_traits<std::basic_string<char,std::char_traits<char>,std::allocator<char> >,CObject3D *,std::less<std::basic_string<char,std::char_traits<char>,std::allocator<char> > >,std::allocator<std::pair<std::basic_string<char,std::char_traits<char>,std::allocator<char> > const ,CObject3D *> >,0> >::insert, COMDAT
; _this$ = ecx

; 477  : 		{	// try to insert node with value _Val

  00000	83 ec 14	 sub	 esp, 20			; 00000014H

; 478  : 		_Nodeptr _Trynode = _Root();

  00003	8b 41 04	 mov	 eax, DWORD PTR [ecx+4]
  00006	53		 push	 ebx
  00007	55		 push	 ebp
  00008	8b 68 04	 mov	 ebp, DWORD PTR [eax+4]

; 479  : 		_Nodeptr _Wherenode = _Myhead;
; 480  : 		bool _Addleft = true;	// add to left of head if tree empty
; 481  : 		while (!_Isnil(_Trynode))

  0000b	8a 55 2d	 mov	 dl, BYTE PTR [ebp+45]
  0000e	84 d2		 test	 dl, dl
  00010	56		 push	 esi
  00011	8b d8		 mov	 ebx, eax
  00013	b0 01		 mov	 al, 1
  00015	57		 push	 edi
  00016	8b 7c 24 2c	 mov	 edi, DWORD PTR __Val$[esp+32]
  0001a	89 4c 24 14	 mov	 DWORD PTR _this$[esp+36], ecx
  0001e	88 44 24 10	 mov	 BYTE PTR __Addleft$[esp+36], al
  00022	0f 85 a3 00 00
	00		 jne	 $L226852

; 484  : 			_Addleft = this->comp(this->_Kfn(_Val), _Key(_Trynode));

  00028	8b 47 14	 mov	 eax, DWORD PTR [edi+20]
  0002b	8b c8		 mov	 ecx, eax
  0002d	89 44 24 1c	 mov	 DWORD PTR tv311[esp+36], eax
  00031	89 4c 24 18	 mov	 DWORD PTR tv412[esp+36], ecx
  00035	eb 09		 jmp	 SHORT $L226851
$L236749:

; 482  : 			{	// look for leaf to insert before (_Addleft) or after
; 483  : 			_Wherenode = _Trynode;

  00037	8b 4c 24 18	 mov	 ecx, DWORD PTR tv412[esp+36]
  0003b	eb 03 8d 49 00	 npad	 5
$L226851:

; 484  : 			_Addleft = this->comp(this->_Kfn(_Val), _Key(_Trynode));

  00040	8b 45 24	 mov	 eax, DWORD PTR [ebp+36]
  00043	8b 5d 20	 mov	 ebx, DWORD PTR [ebp+32]
  00046	be 10 00 00 00	 mov	 esi, 16			; 00000010H
  0004b	3b c6		 cmp	 eax, esi
  0004d	89 6c 24 20	 mov	 DWORD PTR __Wherenode$[esp+36], ebp
  00051	72 05		 jb	 SHORT $L236588
  00053	8b 45 10	 mov	 eax, DWORD PTR [ebp+16]
  00056	eb 03		 jmp	 SHORT $L236589
$L236588:
  00058	8d 45 10	 lea	 eax, DWORD PTR [ebp+16]
$L236589:
  0005b	8b 54 24 1c	 mov	 edx, DWORD PTR tv311[esp+36]
  0005f	3b ca		 cmp	 ecx, edx
  00061	73 02		 jae	 SHORT $L236593
  00063	8b d1		 mov	 edx, ecx
$L236593:
  00065	85 d2		 test	 edx, edx
  00067	74 2a		 je	 SHORT $L236747
  00069	3b d3		 cmp	 edx, ebx
  0006b	8b ca		 mov	 ecx, edx
  0006d	72 02		 jb	 SHORT $L236597
  0006f	8b cb		 mov	 ecx, ebx
$L236597:
  00071	39 77 18	 cmp	 DWORD PTR [edi+24], esi
  00074	72 05		 jb	 SHORT $L236605
  00076	8b 77 04	 mov	 esi, DWORD PTR [edi+4]
  00079	eb 03		 jmp	 SHORT $L236577
$L236605:
  0007b	8d 77 04	 lea	 esi, DWORD PTR [edi+4]
$L236577:
  0007e	8b f8		 mov	 edi, eax
  00080	33 c0		 xor	 eax, eax
  00082	f3 a6		 repe cmpsb
  00084	74 05		 je	 SHORT $L236745
  00086	1b c0		 sbb	 eax, eax
  00088	83 d8 ff	 sbb	 eax, -1
$L236745:
  0008b	85 c0		 test	 eax, eax
  0008d	8b 7c 24 2c	 mov	 edi, DWORD PTR __Val$[esp+32]
  00091	75 12		 jne	 SHORT $L236750
$L236747:
  00093	3b d3		 cmp	 edx, ebx
  00095	73 05		 jae	 SHORT $L236600
  00097	83 c8 ff	 or	 eax, -1
  0009a	eb 07		 jmp	 SHORT $L236601
$L236600:
  0009c	33 c0		 xor	 eax, eax
  0009e	3b d3		 cmp	 edx, ebx
  000a0	0f 95 c0	 setne	 al
$L236601:
  000a3	85 c0		 test	 eax, eax
$L236750:
  000a5	0f 9c c0	 setl	 al

; 485  : 			_Trynode = _Addleft ? _Left(_Trynode) : _Right(_Trynode);

  000a8	84 c0		 test	 al, al
  000aa	88 44 24 10	 mov	 BYTE PTR __Addleft$[esp+36], al
  000ae	74 05		 je	 SHORT $L236428
  000b0	8b 6d 00	 mov	 ebp, DWORD PTR [ebp]
  000b3	eb 03		 jmp	 SHORT $L236429
$L236428:
  000b5	8b 6d 08	 mov	 ebp, DWORD PTR [ebp+8]
$L236429:

; 479  : 		_Nodeptr _Wherenode = _Myhead;
; 480  : 		bool _Addleft = true;	// add to left of head if tree empty
; 481  : 		while (!_Isnil(_Trynode))

  000b8	8a 4d 2d	 mov	 cl, BYTE PTR [ebp+45]
  000bb	84 c9		 test	 cl, cl
  000bd	0f 84 74 ff ff
	ff		 je	 $L236749
  000c3	8b 5c 24 20	 mov	 ebx, DWORD PTR __Wherenode$[esp+36]
  000c7	8b 4c 24 14	 mov	 ecx, DWORD PTR _this$[esp+36]
$L226852:

; 486  : 			}
; 487  : 
; 488  : 		if (this->_Multi)
; 489  : 			return (_Pairib(_Insert(_Addleft, _Wherenode, _Val), true));
; 490  : 		else
; 491  : 			{	// insert only if unique
; 492  : 			iterator _Where = _TREE_ITERATOR(_Wherenode);
; 493  : 			if (!_Addleft)

  000cb	84 c0		 test	 al, al
  000cd	8b f3		 mov	 esi, ebx
  000cf	89 74 24 2c	 mov	 DWORD PTR __Where$226862[esp+32], esi
  000d3	74 38		 je	 SHORT $L236668

; 494  : 				;	// need to test if insert after is okay
; 495  : 			else if (_Where == begin())

  000d5	8b 51 04	 mov	 edx, DWORD PTR [ecx+4]
  000d8	3b 1a		 cmp	 ebx, DWORD PTR [edx]
  000da	75 24		 jne	 SHORT $L226867

; 496  : 				return (_Pairib(_Insert(true, _Wherenode, _Val), true));

  000dc	57		 push	 edi
  000dd	53		 push	 ebx
  000de	6a 01		 push	 1
  000e0	8d 44 24 38	 lea	 eax, DWORD PTR $T236434[esp+44]
  000e4	50		 push	 eax
  000e5	e8 00 00 00 00	 call	 ?_Insert@?$_Tree@V?$_Tmap_traits@V?$basic_string@DU?$char_traits@D@std@@V?$allocator@D@2@@std@@PAVCObject3D@@U?$less@V?$basic_string@DU?$char_traits@D@std@@V?$allocator@D@2@@std@@@2@V?$allocator@U?$pair@$$CBV?$basic_string@DU?$char_traits@D@std@@V?$allocator@D@2@@std@@PAVCObject3D@@@std@@@2@$0A@@std@@@std@@IAE?AViterator@12@_NPAU_Node@?$_Tree_nod@V?$_Tmap_traits@V?$basic_string@DU?$char_traits@D@std@@V?$allocator@D@2@@std@@PAVCObject3D@@U?$less@V?$basic_string@DU?$char_traits@D@std@@V?$allocator@D@2@@std@@@2@V?$allocator@U?$pair@$$CBV?$basic_string@DU?$char_traits@D@std@@V?$allocator@D@2@@std@@PAVCObject3D@@@std@@@2@$0A@@std@@@2@ABU?$pair@$$CBV?$basic_string@DU?$char_traits@D@std@@V?$allocator@D@2@@std@@PAVCObject3D@@@2@@Z ; std::_Tree<std::_Tmap_traits<std::basic_string<char,std::char_traits<char>,std::allocator<char> >,CObject3D *,std::less<std::basic_string<char,std::char_traits<char>,std::allocator<char> > >,std::allocator<std::pair<std::basic_string<char,std::char_traits<char>,std::allocator<char> > const ,CObject3D *> >,0> >::_Insert
  000ea	8b 08		 mov	 ecx, DWORD PTR [eax]
  000ec	8b 44 24 28	 mov	 eax, DWORD PTR ___$ReturnUdt$[esp+32]
  000f0	5f		 pop	 edi
  000f1	5e		 pop	 esi
  000f2	5d		 pop	 ebp
  000f3	89 08		 mov	 DWORD PTR [eax], ecx
  000f5	c6 40 04 01	 mov	 BYTE PTR [eax+4], 1
  000f9	5b		 pop	 ebx

; 504  : 			}
; 505  : 		}

  000fa	83 c4 14	 add	 esp, 20			; 00000014H
  000fd	c2 08 00	 ret	 8
$L226867:

; 497  : 			else
; 498  : 				--_Where;	// need to test if insert before is okay

  00100	8d 4c 24 2c	 lea	 ecx, DWORD PTR __Where$226862[esp+32]
  00104	e8 00 00 00 00	 call	 ?_Dec@const_iterator@?$_Tree@V?$_Tmap_traits@V?$basic_string@DU?$char_traits@D@std@@V?$allocator@D@2@@std@@PAVCObject3D@@U?$less@V?$basic_string@DU?$char_traits@D@std@@V?$allocator@D@2@@std@@@2@V?$allocator@U?$pair@$$CBV?$basic_string@DU?$char_traits@D@std@@V?$allocator@D@2@@std@@PAVCObject3D@@@std@@@2@$0A@@std@@@std@@QAEXXZ ; std::_Tree<std::_Tmap_traits<std::basic_string<char,std::char_traits<char>,std::allocator<char> >,CObject3D *,std::less<std::basic_string<char,std::char_traits<char>,std::allocator<char> > >,std::allocator<std::pair<std::basic_string<char,std::char_traits<char>,std::allocator<char> > const ,CObject3D *> >,0> >::const_iterator::_Dec
  00109	8b 74 24 2c	 mov	 esi, DWORD PTR __Where$226862[esp+32]
$L236668:

; 499  : 
; 500  : 			if (this->comp(_Key(_Where._Mynode()), this->_Kfn(_Val)))

  0010d	83 7f 18 10	 cmp	 DWORD PTR [edi+24], 16	; 00000010H
  00111	8b 57 14	 mov	 edx, DWORD PTR [edi+20]
  00114	8d 4e 0c	 lea	 ecx, DWORD PTR [esi+12]
  00117	72 05		 jb	 SHORT $L236730
  00119	8b 47 04	 mov	 eax, DWORD PTR [edi+4]
  0011c	eb 03		 jmp	 SHORT $L236731
$L236730:
  0011e	8d 47 04	 lea	 eax, DWORD PTR [edi+4]
$L236731:
  00121	52		 push	 edx
  00122	8b 51 14	 mov	 edx, DWORD PTR [ecx+20]
  00125	50		 push	 eax
  00126	52		 push	 edx
  00127	6a 00		 push	 0
  00129	e8 00 00 00 00	 call	 ?compare@?$basic_string@DU?$char_traits@D@std@@V?$allocator@D@2@@std@@QBEHIIPBDI@Z ; std::basic_string<char,std::char_traits<char>,std::allocator<char> >::compare
  0012e	85 c0		 test	 eax, eax
  00130	7d 2b		 jge	 SHORT $L226872

; 501  : 				return (_Pairib(_Insert(_Addleft, _Wherenode, _Val), true));

  00132	8b 44 24 10	 mov	 eax, DWORD PTR __Addleft$[esp+36]
  00136	57		 push	 edi
  00137	53		 push	 ebx
  00138	50		 push	 eax
  00139	8d 4c 24 38	 lea	 ecx, DWORD PTR $T236436[esp+44]
  0013d	51		 push	 ecx
  0013e	8b 4c 24 24	 mov	 ecx, DWORD PTR _this$[esp+52]
  00142	e8 00 00 00 00	 call	 ?_Insert@?$_Tree@V?$_Tmap_traits@V?$basic_string@DU?$char_traits@D@std@@V?$allocator@D@2@@std@@PAVCObject3D@@U?$less@V?$basic_string@DU?$char_traits@D@std@@V?$allocator@D@2@@std@@@2@V?$allocator@U?$pair@$$CBV?$basic_string@DU?$char_traits@D@std@@V?$allocator@D@2@@std@@PAVCObject3D@@@std@@@2@$0A@@std@@@std@@IAE?AViterator@12@_NPAU_Node@?$_Tree_nod@V?$_Tmap_traits@V?$basic_string@DU?$char_traits@D@std@@V?$allocator@D@2@@std@@PAVCObject3D@@U?$less@V?$basic_string@DU?$char_traits@D@std@@V?$allocator@D@2@@std@@@2@V?$allocator@U?$pair@$$CBV?$basic_string@DU?$char_traits@D@std@@V?$allocator@D@2@@std@@PAVCObject3D@@@std@@@2@$0A@@std@@@2@ABU?$pair@$$CBV?$basic_string@DU?$char_traits@D@std@@V?$allocator@D@2@@std@@PAVCObject3D@@@2@@Z ; std::_Tree<std::_Tmap_traits<std::basic_string<char,std::char_traits<char>,std::allocator<char> >,CObject3D *,std::less<std::basic_string<char,std::char_traits<char>,std::allocator<char> > >,std::allocator<std::pair<std::basic_string<char,std::char_traits<char>,std::allocator<char> > const ,CObject3D *> >,0> >::_Insert
  00147	8b 10		 mov	 edx, DWORD PTR [eax]
  00149	8b 44 24 28	 mov	 eax, DWORD PTR ___$ReturnUdt$[esp+32]
  0014d	5f		 pop	 edi
  0014e	5e		 pop	 esi
  0014f	5d		 pop	 ebp
  00150	89 10		 mov	 DWORD PTR [eax], edx
  00152	c6 40 04 01	 mov	 BYTE PTR [eax+4], 1
  00156	5b		 pop	 ebx

; 504  : 			}
; 505  : 		}

  00157	83 c4 14	 add	 esp, 20			; 00000014H
  0015a	c2 08 00	 ret	 8
$L226872:

; 502  : 			else
; 503  : 				return (_Pairib(_Where, false));

  0015d	8b 44 24 28	 mov	 eax, DWORD PTR ___$ReturnUdt$[esp+32]
  00161	5f		 pop	 edi
  00162	89 30		 mov	 DWORD PTR [eax], esi
  00164	5e		 pop	 esi
  00165	5d		 pop	 ebp
  00166	c6 40 04 00	 mov	 BYTE PTR [eax+4], 0
  0016a	5b		 pop	 ebx

; 504  : 			}
; 505  : 		}

  0016b	83 c4 14	 add	 esp, 20			; 00000014H
  0016e	c2 08 00	 ret	 8
?insert@?$_Tree@V?$_Tmap_traits@V?$basic_string@DU?$char_traits@D@std@@V?$allocator@D@2@@std@@PAVCObject3D@@U?$less@V?$basic_string@DU?$char_traits@D@std@@V?$allocator@D@2@@std@@@2@V?$allocator@U?$pair@$$CBV?$basic_string@DU?$char_traits@D@std@@V?$allocator@D@2@@std@@PAVCObject3D@@@std@@@2@$0A@@std@@@std@@QAE?AU?$pair@Viterator@?$_Tree@V?$_Tmap_traits@V?$basic_string@DU?$char_traits@D@std@@V?$allocator@D@2@@std@@PAVCObject3D@@U?$less@V?$basic_string@DU?$char_traits@D@std@@V?$allocator@D@2@@std@@@2@V?$allocator@U?$pair@$$CBV?$basic_string@DU?$char_traits@D@std@@V?$allocator@D@2@@std@@PAVCObject3D@@@std@@@2@$0A@@std@@@std@@_N@2@ABU?$pair@$$CBV?$basic_string@DU?$char_traits@D@std@@V?$allocator@D@2@@std@@PAVCObject3D@@@2@@Z ENDP ; std::_Tree<std::_Tmap_traits<std::basic_string<char,std::char_traits<char>,std::allocator<char> >,CObject3D *,std::less<std::basic_string<char,std::char_traits<char>,std::allocator<char> > >,std::allocator<std::pair<std::basic_string<char,std::char_traits<char>,std::allocator<char> > const ,CObject3D *> >,0> >::insert
_TEXT	ENDS
PUBLIC	?erase@?$_Tree@V?$_Tmap_traits@V?$basic_string@DU?$char_traits@D@std@@V?$allocator@D@2@@std@@PAVCObject3D@@U?$less@V?$basic_string@DU?$char_traits@D@std@@V?$allocator@D@2@@std@@@2@V?$allocator@U?$pair@$$CBV?$basic_string@DU?$char_traits@D@std@@V?$allocator@D@2@@std@@PAVCObject3D@@@std@@@2@$0A@@std@@@std@@QAEIABV?$basic_string@DU?$char_traits@D@std@@V?$allocator@D@2@@2@@Z ; std::_Tree<std::_Tmap_traits<std::basic_string<char,std::char_traits<char>,std::allocator<char> >,CObject3D *,std::less<std::basic_string<char,std::char_traits<char>,std::allocator<char> > >,std::allocator<std::pair<std::basic_string<char,std::char_traits<char>,std::allocator<char> > const ,CObject3D *> >,0> >::erase
; Function compile flags: /Ogty
;	COMDAT ?erase@?$_Tree@V?$_Tmap_traits@V?$basic_string@DU?$char_traits@D@std@@V?$allocator@D@2@@std@@PAVCObject3D@@U?$less@V?$basic_string@DU?$char_traits@D@std@@V?$allocator@D@2@@std@@@2@V?$allocator@U?$pair@$$CBV?$basic_string@DU?$char_traits@D@std@@V?$allocator@D@2@@std@@PAVCObject3D@@@std@@@2@$0A@@std@@@std@@QAEIABV?$basic_string@DU?$char_traits@D@std@@V?$allocator@D@2@@2@@Z
_TEXT	SEGMENT
$T236754 = -4						; size = 4
__Num$ = 8						; size = 4
__Keyval$ = 8						; size = 4
?erase@?$_Tree@V?$_Tmap_traits@V?$basic_string@DU?$char_traits@D@std@@V?$allocator@D@2@@std@@PAVCObject3D@@U?$less@V?$basic_string@DU?$char_traits@D@std@@V?$allocator@D@2@@std@@@2@V?$allocator@U?$pair@$$CBV?$basic_string@DU?$char_traits@D@std@@V?$allocator@D@2@@std@@PAVCObject3D@@@std@@@2@$0A@@std@@@std@@QAEIABV?$basic_string@DU?$char_traits@D@std@@V?$allocator@D@2@@2@@Z PROC NEAR ; std::_Tree<std::_Tmap_traits<std::basic_string<char,std::char_traits<char>,std::allocator<char> >,CObject3D *,std::less<std::basic_string<char,std::char_traits<char>,std::allocator<char> > >,std::allocator<std::pair<std::basic_string<char,std::char_traits<char>,std::allocator<char> > const ,CObject3D *> >,0> >::erase, COMDAT
; _this$ = ecx

; 765  : 		{	// erase and count all that match _Keyval

  00000	51		 push	 ecx
  00001	53		 push	 ebx

; 766  : 		_Pairii _Where = equal_range(_Keyval);

  00002	8b 5c 24 0c	 mov	 ebx, DWORD PTR __Keyval$[esp+4]
  00006	56		 push	 esi
  00007	57		 push	 edi
  00008	53		 push	 ebx
  00009	8b f1		 mov	 esi, ecx
  0000b	e8 00 00 00 00	 call	 ?_Ubound@?$_Tree@V?$_Tmap_traits@V?$basic_string@DU?$char_traits@D@std@@V?$allocator@D@2@@std@@PAVCObject3D@@U?$less@V?$basic_string@DU?$char_traits@D@std@@V?$allocator@D@2@@std@@@2@V?$allocator@U?$pair@$$CBV?$basic_string@DU?$char_traits@D@std@@V?$allocator@D@2@@std@@PAVCObject3D@@@std@@@2@$0A@@std@@@std@@IBEPAU_Node@?$_Tree_nod@V?$_Tmap_traits@V?$basic_string@DU?$char_traits@D@std@@V?$allocator@D@2@@std@@PAVCObject3D@@U?$less@V?$basic_string@DU?$char_traits@D@std@@V?$allocator@D@2@@std@@@2@V?$allocator@U?$pair@$$CBV?$basic_string@DU?$char_traits@D@std@@V?$allocator@D@2@@std@@PAVCObject3D@@@std@@@2@$0A@@std@@@2@ABV?$basic_string@DU?$char_traits@D@std@@V?$allocator@D@2@@2@@Z ; std::_Tree<std::_Tmap_traits<std::basic_string<char,std::char_traits<char>,std::allocator<char> >,CObject3D *,std::less<std::basic_string<char,std::char_traits<char>,std::allocator<char> > >,std::allocator<std::pair<std::basic_string<char,std::char_traits<char>,std::allocator<char> > const ,CObject3D *> >,0> >::_Ubound
  00010	53		 push	 ebx
  00011	8b ce		 mov	 ecx, esi
  00013	8b f8		 mov	 edi, eax
  00015	e8 00 00 00 00	 call	 ?_Lbound@?$_Tree@V?$_Tmap_traits@V?$basic_string@DU?$char_traits@D@std@@V?$allocator@D@2@@std@@PAVCObject3D@@U?$less@V?$basic_string@DU?$char_traits@D@std@@V?$allocator@D@2@@std@@@2@V?$allocator@U?$pair@$$CBV?$basic_string@DU?$char_traits@D@std@@V?$allocator@D@2@@std@@PAVCObject3D@@@std@@@2@$0A@@std@@@std@@IBEPAU_Node@?$_Tree_nod@V?$_Tmap_traits@V?$basic_string@DU?$char_traits@D@std@@V?$allocator@D@2@@std@@PAVCObject3D@@U?$less@V?$basic_string@DU?$char_traits@D@std@@V?$allocator@D@2@@std@@@2@V?$allocator@U?$pair@$$CBV?$basic_string@DU?$char_traits@D@std@@V?$allocator@D@2@@std@@PAVCObject3D@@@std@@@2@$0A@@std@@@2@ABV?$basic_string@DU?$char_traits@D@std@@V?$allocator@D@2@@2@@Z ; std::_Tree<std::_Tmap_traits<std::basic_string<char,std::char_traits<char>,std::allocator<char> >,CObject3D *,std::less<std::basic_string<char,std::char_traits<char>,std::allocator<char> > >,std::allocator<std::pair<std::basic_string<char,std::char_traits<char>,std::allocator<char> > const ,CObject3D *> >,0> >::_Lbound
  0001a	8b d8		 mov	 ebx, eax

; 767  : 		size_type _Num = 0;
; 768  : 		_Distance(_Where.first, _Where.second, _Num);

  0001c	8d 44 24 14	 lea	 eax, DWORD PTR __Num$[esp+12]
  00020	50		 push	 eax
  00021	57		 push	 edi
  00022	53		 push	 ebx
  00023	c7 44 24 20 00
	00 00 00	 mov	 DWORD PTR __Num$[esp+24], 0
  0002b	e8 00 00 00 00	 call	 ??$_Distance@Viterator@?$_Tree@V?$_Tmap_traits@V?$basic_string@DU?$char_traits@D@std@@V?$allocator@D@2@@std@@PAVCObject3D@@U?$less@V?$basic_string@DU?$char_traits@D@std@@V?$allocator@D@2@@std@@@2@V?$allocator@U?$pair@$$CBV?$basic_string@DU?$char_traits@D@std@@V?$allocator@D@2@@std@@PAVCObject3D@@@std@@@2@$0A@@std@@@std@@I@std@@YAXViterator@?$_Tree@V?$_Tmap_traits@V?$basic_string@DU?$char_traits@D@std@@V?$allocator@D@2@@std@@PAVCObject3D@@U?$less@V?$basic_string@DU?$char_traits@D@std@@V?$allocator@D@2@@std@@@2@V?$allocator@U?$pair@$$CBV?$basic_string@DU?$char_traits@D@std@@V?$allocator@D@2@@std@@PAVCObject3D@@@std@@@2@$0A@@std@@@0@0AAI@Z ; std::_Distance<std::_Tree<std::_Tmap_traits<std::basic_string<char,std::char_traits<char>,std::allocator<char> >,CObject3D *,std::less<std::basic_string<char,std::char_traits<char>,std::allocator<char> > >,std::allocator<std::pair<std::basic_string<char,std::char_traits<char>,std::allocator<char> > const ,CObject3D *> >,0> >::iterator,unsigned int>
  00030	83 c4 0c	 add	 esp, 12			; 0000000cH

; 769  : 		erase(_Where.first, _Where.second);

  00033	57		 push	 edi
  00034	53		 push	 ebx
  00035	8d 4c 24 14	 lea	 ecx, DWORD PTR $T236754[esp+24]
  00039	51		 push	 ecx
  0003a	8b ce		 mov	 ecx, esi
  0003c	e8 00 00 00 00	 call	 ?erase@?$_Tree@V?$_Tmap_traits@V?$basic_string@DU?$char_traits@D@std@@V?$allocator@D@2@@std@@PAVCObject3D@@U?$less@V?$basic_string@DU?$char_traits@D@std@@V?$allocator@D@2@@std@@@2@V?$allocator@U?$pair@$$CBV?$basic_string@DU?$char_traits@D@std@@V?$allocator@D@2@@std@@PAVCObject3D@@@std@@@2@$0A@@std@@@std@@QAE?AViterator@12@V312@0@Z ; std::_Tree<std::_Tmap_traits<std::basic_string<char,std::char_traits<char>,std::allocator<char> >,CObject3D *,std::less<std::basic_string<char,std::char_traits<char>,std::allocator<char> > >,std::allocator<std::pair<std::basic_string<char,std::char_traits<char>,std::allocator<char> > const ,CObject3D *> >,0> >::erase

; 770  : 		return (_Num);

  00041	8b 44 24 14	 mov	 eax, DWORD PTR __Num$[esp+12]
  00045	5f		 pop	 edi
  00046	5e		 pop	 esi
  00047	5b		 pop	 ebx

; 771  : 		}

  00048	59		 pop	 ecx
  00049	c2 04 00	 ret	 4
?erase@?$_Tree@V?$_Tmap_traits@V?$basic_string@DU?$char_traits@D@std@@V?$allocator@D@2@@std@@PAVCObject3D@@U?$less@V?$basic_string@DU?$char_traits@D@std@@V?$allocator@D@2@@std@@@2@V?$allocator@U?$pair@$$CBV?$basic_string@DU?$char_traits@D@std@@V?$allocator@D@2@@std@@PAVCObject3D@@@std@@@2@$0A@@std@@@std@@QAEIABV?$basic_string@DU?$char_traits@D@std@@V?$allocator@D@2@@2@@Z ENDP ; std::_Tree<std::_Tmap_traits<std::basic_string<char,std::char_traits<char>,std::allocator<char> >,CObject3D *,std::less<std::basic_string<char,std::char_traits<char>,std::allocator<char> > >,std::allocator<std::pair<std::basic_string<char,std::char_traits<char>,std::allocator<char> > const ,CObject3D *> >,0> >::erase
_TEXT	ENDS
PUBLIC	??1?$map@V?$basic_string@DU?$char_traits@D@std@@V?$allocator@D@2@@std@@PAVCObject3D@@U?$less@V?$basic_string@DU?$char_traits@D@std@@V?$allocator@D@2@@std@@@2@V?$allocator@U?$pair@$$CBV?$basic_string@DU?$char_traits@D@std@@V?$allocator@D@2@@std@@PAVCObject3D@@@std@@@2@@std@@QAE@XZ ; std::map<std::basic_string<char,std::char_traits<char>,std::allocator<char> >,CObject3D *,std::less<std::basic_string<char,std::char_traits<char>,std::allocator<char> > >,std::allocator<std::pair<std::basic_string<char,std::char_traits<char>,std::allocator<char> > const ,CObject3D *> > >::~map<std::basic_string<char,std::char_traits<char>,std::allocator<char> >,CObject3D *,std::less<std::basic_string<char,std::char_traits<char>,std::allocator<char> > >,std::allocator<std::pair<std::basic_string<char,std::char_traits<char>,std::allocator<char> > const ,CObject3D *> > >
; Function compile flags: /Ogty
;	COMDAT ??1?$map@V?$basic_string@DU?$char_traits@D@std@@V?$allocator@D@2@@std@@PAVCObject3D@@U?$less@V?$basic_string@DU?$char_traits@D@std@@V?$allocator@D@2@@std@@@2@V?$allocator@U?$pair@$$CBV?$basic_string@DU?$char_traits@D@std@@V?$allocator@D@2@@std@@PAVCObject3D@@@std@@@2@@std@@QAE@XZ
_TEXT	SEGMENT
$T236912 = -4						; size = 4
??1?$map@V?$basic_string@DU?$char_traits@D@std@@V?$allocator@D@2@@std@@PAVCObject3D@@U?$less@V?$basic_string@DU?$char_traits@D@std@@V?$allocator@D@2@@std@@@2@V?$allocator@U?$pair@$$CBV?$basic_string@DU?$char_traits@D@std@@V?$allocator@D@2@@std@@PAVCObject3D@@@std@@@2@@std@@QAE@XZ PROC NEAR ; std::map<std::basic_string<char,std::char_traits<char>,std::allocator<char> >,CObject3D *,std::less<std::basic_string<char,std::char_traits<char>,std::allocator<char> > >,std::allocator<std::pair<std::basic_string<char,std::char_traits<char>,std::allocator<char> > const ,CObject3D *> > >::~map<std::basic_string<char,std::char_traits<char>,std::allocator<char> >,CObject3D *,std::less<std::basic_string<char,std::char_traits<char>,std::allocator<char> > >,std::allocator<std::pair<std::basic_string<char,std::char_traits<char>,std::allocator<char> > const ,CObject3D *> > >, COMDAT
; _this$ = ecx
  00000	51		 push	 ecx
  00001	56		 push	 esi
  00002	8b f1		 mov	 esi, ecx
  00004	8b 46 04	 mov	 eax, DWORD PTR [esi+4]
  00007	8b 08		 mov	 ecx, DWORD PTR [eax]
  00009	50		 push	 eax
  0000a	51		 push	 ecx
  0000b	8d 44 24 0c	 lea	 eax, DWORD PTR $T236912[esp+16]
  0000f	50		 push	 eax
  00010	8b ce		 mov	 ecx, esi
  00012	e8 00 00 00 00	 call	 ?erase@?$_Tree@V?$_Tmap_traits@V?$basic_string@DU?$char_traits@D@std@@V?$allocator@D@2@@std@@PAVCObject3D@@U?$less@V?$basic_string@DU?$char_traits@D@std@@V?$allocator@D@2@@std@@@2@V?$allocator@U?$pair@$$CBV?$basic_string@DU?$char_traits@D@std@@V?$allocator@D@2@@std@@PAVCObject3D@@@std@@@2@$0A@@std@@@std@@QAE?AViterator@12@V312@0@Z ; std::_Tree<std::_Tmap_traits<std::basic_string<char,std::char_traits<char>,std::allocator<char> >,CObject3D *,std::less<std::basic_string<char,std::char_traits<char>,std::allocator<char> > >,std::allocator<std::pair<std::basic_string<char,std::char_traits<char>,std::allocator<char> > const ,CObject3D *> >,0> >::erase
  00017	8b 4e 04	 mov	 ecx, DWORD PTR [esi+4]
  0001a	51		 push	 ecx
  0001b	e8 00 00 00 00	 call	 ??3@YAXPAX@Z		; operator delete
  00020	83 c4 04	 add	 esp, 4
  00023	33 c0		 xor	 eax, eax
  00025	89 46 04	 mov	 DWORD PTR [esi+4], eax
  00028	89 46 08	 mov	 DWORD PTR [esi+8], eax
  0002b	5e		 pop	 esi
  0002c	59		 pop	 ecx
  0002d	c3		 ret	 0
??1?$map@V?$basic_string@DU?$char_traits@D@std@@V?$allocator@D@2@@std@@PAVCObject3D@@U?$less@V?$basic_string@DU?$char_traits@D@std@@V?$allocator@D@2@@std@@@2@V?$allocator@U?$pair@$$CBV?$basic_string@DU?$char_traits@D@std@@V?$allocator@D@2@@std@@PAVCObject3D@@@std@@@2@@std@@QAE@XZ ENDP ; std::map<std::basic_string<char,std::char_traits<char>,std::allocator<char> >,CObject3D *,std::less<std::basic_string<char,std::char_traits<char>,std::allocator<char> > >,std::allocator<std::pair<std::basic_string<char,std::char_traits<char>,std::allocator<char> > const ,CObject3D *> > >::~map<std::basic_string<char,std::char_traits<char>,std::allocator<char> >,CObject3D *,std::less<std::basic_string<char,std::char_traits<char>,std::allocator<char> > >,std::allocator<std::pair<std::basic_string<char,std::char_traits<char>,std::allocator<char> > const ,CObject3D *> > >
_TEXT	ENDS
PUBLIC	??1CObject3DMng@@QAE@XZ				; CObject3DMng::~CObject3DMng
;	COMDAT xdata$x
; File c:\program files\microsoft visual studio .net 2003\vc7\include\xmemory
xdata$x	SEGMENT
$T237105 DD	0ffffffffH
	DD	FLAT:$L236942
$T237103 DD	019930520H
	DD	01H
	DD	FLAT:$T237105
	DD	2 DUP(00H)
	DD	2 DUP(00H)
; Function compile flags: /Ogty
; File c:\documents and settings\test\mes documents\source\virtuos_v17\build\program\_common\object3d.cpp
xdata$x	ENDS
;	COMDAT ??1CObject3DMng@@QAE@XZ
_TEXT	SEGMENT
$T237075 = -16						; size = 4
_this$ = -16						; size = 4
__$EHRec$ = -12						; size = 12
??1CObject3DMng@@QAE@XZ PROC NEAR			; CObject3DMng::~CObject3DMng, COMDAT
; _this$ = ecx

; 235  : {

  00000	6a ff		 push	 -1
  00002	68 00 00 00 00	 push	 __ehhandler$??1CObject3DMng@@QAE@XZ
  00007	64 a1 00 00 00
	00		 mov	 eax, DWORD PTR fs:__except_list
  0000d	50		 push	 eax
  0000e	64 89 25 00 00
	00 00		 mov	 DWORD PTR fs:__except_list, esp
  00015	51		 push	 ecx
  00016	56		 push	 esi
  00017	8b f1		 mov	 esi, ecx
  00019	89 74 24 04	 mov	 DWORD PTR _this$[esp+20], esi
  0001d	c7 44 24 10 00
	00 00 00	 mov	 DWORD PTR __$EHRec$[esp+28], 0

; 236  : 	Destroy();

  00025	e8 00 00 00 00	 call	 ?Destroy@CObject3DMng@@QAEXXZ ; CObject3DMng::Destroy

; 237  : }

  0002a	8b 46 04	 mov	 eax, DWORD PTR [esi+4]
  0002d	8b 08		 mov	 ecx, DWORD PTR [eax]
  0002f	50		 push	 eax
  00030	51		 push	 ecx
  00031	8d 44 24 0c	 lea	 eax, DWORD PTR $T237075[esp+28]
  00035	50		 push	 eax
  00036	8b ce		 mov	 ecx, esi
  00038	c7 44 24 1c ff
	ff ff ff	 mov	 DWORD PTR __$EHRec$[esp+40], -1
  00040	e8 00 00 00 00	 call	 ?erase@?$_Tree@V?$_Tmap_traits@V?$basic_string@DU?$char_traits@D@std@@V?$allocator@D@2@@std@@PAVCObject3D@@U?$less@V?$basic_string@DU?$char_traits@D@std@@V?$allocator@D@2@@std@@@2@V?$allocator@U?$pair@$$CBV?$basic_string@DU?$char_traits@D@std@@V?$allocator@D@2@@std@@PAVCObject3D@@@std@@@2@$0A@@std@@@std@@QAE?AViterator@12@V312@0@Z ; std::_Tree<std::_Tmap_traits<std::basic_string<char,std::char_traits<char>,std::allocator<char> >,CObject3D *,std::less<std::basic_string<char,std::char_traits<char>,std::allocator<char> > >,std::allocator<std::pair<std::basic_string<char,std::char_traits<char>,std::allocator<char> > const ,CObject3D *> >,0> >::erase
  00045	8b 4e 04	 mov	 ecx, DWORD PTR [esi+4]
  00048	51		 push	 ecx
  00049	e8 00 00 00 00	 call	 ??3@YAXPAX@Z		; operator delete
  0004e	8b 4c 24 0c	 mov	 ecx, DWORD PTR __$EHRec$[esp+24]
  00052	83 c4 04	 add	 esp, 4
  00055	c7 46 04 00 00
	00 00		 mov	 DWORD PTR [esi+4], 0
  0005c	c7 46 08 00 00
	00 00		 mov	 DWORD PTR [esi+8], 0
  00063	5e		 pop	 esi
  00064	64 89 0d 00 00
	00 00		 mov	 DWORD PTR fs:__except_list, ecx
  0006b	83 c4 10	 add	 esp, 16			; 00000010H
  0006e	c3		 ret	 0
_TEXT	ENDS
;	COMDAT text$x
text$x	SEGMENT
$L236942:
  00000	8b 4d f0	 mov	 ecx, DWORD PTR _this$[ebp]
  00003	e9 00 00 00 00	 jmp	 ??1?$map@V?$basic_string@DU?$char_traits@D@std@@V?$allocator@D@2@@std@@PAVCObject3D@@U?$less@V?$basic_string@DU?$char_traits@D@std@@V?$allocator@D@2@@std@@@2@V?$allocator@U?$pair@$$CBV?$basic_string@DU?$char_traits@D@std@@V?$allocator@D@2@@std@@PAVCObject3D@@@std@@@2@@std@@QAE@XZ
__ehhandler$??1CObject3DMng@@QAE@XZ:
  00008	b8 00 00 00 00	 mov	 eax, OFFSET FLAT:$T237103
  0000d	e9 00 00 00 00	 jmp	 ___CxxFrameHandler
text$x	ENDS
??1CObject3DMng@@QAE@XZ ENDP				; CObject3DMng::~CObject3DMng
PUBLIC	?DeleteObject3D@CObject3DMng@@QAEHPAVCObject3D@@@Z ; CObject3DMng::DeleteObject3D
;	COMDAT xdata$x
xdata$x	SEGMENT
$T237207 DD	0ffffffffH
	DD	FLAT:$L237116
$T237204 DD	019930520H
	DD	01H
	DD	FLAT:$T237207
	DD	2 DUP(00H)
	DD	2 DUP(00H)
; Function compile flags: /Ogty
xdata$x	ENDS
;	COMDAT ?DeleteObject3D@CObject3DMng@@QAEHPAVCObject3D@@@Z
_TEXT	SEGMENT
$T237111 = -40						; size = 28
__$EHRec$ = -12						; size = 12
_pObject3D$ = 8						; size = 4
?DeleteObject3D@CObject3DMng@@QAEHPAVCObject3D@@@Z PROC NEAR ; CObject3DMng::DeleteObject3D, COMDAT
; _this$ = ecx

; 316  : {

  00000	64 a1 00 00 00
	00		 mov	 eax, DWORD PTR fs:__except_list
  00006	6a ff		 push	 -1
  00008	68 00 00 00 00	 push	 __ehhandler$?DeleteObject3D@CObject3DMng@@QAEHPAVCObject3D@@@Z
  0000d	50		 push	 eax
  0000e	64 89 25 00 00
	00 00		 mov	 DWORD PTR fs:__except_list, esp
  00015	83 ec 1c	 sub	 esp, 28			; 0000001cH
  00018	56		 push	 esi

; 317  : #ifdef __JEFF_11_5
; 318  : 	if( !pObject3D )

  00019	8b 74 24 30	 mov	 esi, DWORD PTR _pObject3D$[esp+40]
  0001d	85 f6		 test	 esi, esi
  0001f	57		 push	 edi
  00020	8b f9		 mov	 edi, ecx

; 319  : 		return FALSE;

  00022	74 19		 je	 SHORT $L237206

; 320  : 	if( m_mapObject3D.size() == 0 )

  00024	8b 47 08	 mov	 eax, DWORD PTR [edi+8]
  00027	85 c0		 test	 eax, eax

; 321  : 		return FALSE;

  00029	74 12		 je	 SHORT $L237206

; 322  : 	if( pObject3D->m_nUseCnt > 1 )

  0002b	8b 86 20 0c 00
	00		 mov	 eax, DWORD PTR [esi+3104]
  00031	83 f8 01	 cmp	 eax, 1
  00034	7e 1c		 jle	 SHORT $L225817

; 323  : 		pObject3D->m_nUseCnt--;

  00036	48		 dec	 eax
  00037	89 86 20 0c 00
	00		 mov	 DWORD PTR [esi+3104], eax
$L237206:
  0003d	5f		 pop	 edi

; 328  : 		return TRUE;
; 329  : 	}
; 330  : 	return FALSE;

  0003e	33 c0		 xor	 eax, eax
  00040	5e		 pop	 esi

; 331  : #else	// __JEFF_11_5
; 332  : 	if( pObject3D == NULL )	return FALSE;
; 333  : 	if( m_nMax == 0 )	return FALSE;
; 334  : 	
; 335  : 	int	i, j;
; 336  : 
; 337  : 	for( i = 0; i < MAX_OBJECT3D; i ++ )
; 338  : 	{
; 339  : 		if( m_pObject3DAry[i] )
; 340  : 		{
; 341  : 			if( m_pObject3DAry[i] == pObject3D )		// pObject3D .
; 342  : 			{
; 343  : 				if( m_pObject3DAry[i]->m_nUseCnt == 1 )			//  (usecnt == 1)
; 344  : 				{
; 345  : 					for( j = 0; j < MAX_OBJECT3D_CACHE; j ++ )
; 346  : 					{
; 347  : 						if( m_pCache[j] == pObject3D )
; 348  : 						{
; 349  : 							m_pCache[j] = NULL;			//       .
; 350  : 							break;
; 351  : 						}
; 352  : 					}
; 353  : 					SAFE_DELETE( m_pObject3DAry[i] );			//      .
; 354  : 					m_nMax --;
; 355  : 					return TRUE;
; 356  : 				}
; 357  : 			}
; 358  : 		}
; 359  : 	}
; 360  : 
; 361  : 	return FALSE;
; 362  : #endif	// __JEFF_11_5
; 363  : }

  00041	8b 4c 24 1c	 mov	 ecx, DWORD PTR __$EHRec$[esp+40]
  00045	64 89 0d 00 00
	00 00		 mov	 DWORD PTR fs:__except_list, ecx
  0004c	83 c4 28	 add	 esp, 40			; 00000028H
  0004f	c2 04 00	 ret	 4
$L225817:

; 324  : 	else
; 325  : 	{
; 326  : 		m_mapObject3D.erase( pObject3D->m_szFileName );

  00052	8d 86 c0 00 00
	00		 lea	 eax, DWORD PTR [esi+192]
  00058	50		 push	 eax
  00059	8d 4c 24 0c	 lea	 ecx, DWORD PTR $T237111[esp+52]
  0005d	e8 00 00 00 00	 call	 ??0?$basic_string@DU?$char_traits@D@std@@V?$allocator@D@2@@std@@QAE@PBD@Z ; std::basic_string<char,std::char_traits<char>,std::allocator<char> >::basic_string<char,std::char_traits<char>,std::allocator<char> >
  00062	8d 4c 24 08	 lea	 ecx, DWORD PTR $T237111[esp+48]
  00066	51		 push	 ecx
  00067	8b cf		 mov	 ecx, edi
  00069	c7 44 24 30 00
	00 00 00	 mov	 DWORD PTR __$EHRec$[esp+60], 0
  00071	e8 00 00 00 00	 call	 ?erase@?$_Tree@V?$_Tmap_traits@V?$basic_string@DU?$char_traits@D@std@@V?$allocator@D@2@@std@@PAVCObject3D@@U?$less@V?$basic_string@DU?$char_traits@D@std@@V?$allocator@D@2@@std@@@2@V?$allocator@U?$pair@$$CBV?$basic_string@DU?$char_traits@D@std@@V?$allocator@D@2@@std@@PAVCObject3D@@@std@@@2@$0A@@std@@@std@@QAEIABV?$basic_string@DU?$char_traits@D@std@@V?$allocator@D@2@@2@@Z ; std::_Tree<std::_Tmap_traits<std::basic_string<char,std::char_traits<char>,std::allocator<char> >,CObject3D *,std::less<std::basic_string<char,std::char_traits<char>,std::allocator<char> > >,std::allocator<std::pair<std::basic_string<char,std::char_traits<char>,std::allocator<char> > const ,CObject3D *> >,0> >::erase
  00076	83 7c 24 20 10	 cmp	 DWORD PTR $T237111[esp+72], 16 ; 00000010H
  0007b	c7 44 24 2c ff
	ff ff ff	 mov	 DWORD PTR __$EHRec$[esp+56], -1
  00083	72 0d		 jb	 SHORT $L237177
  00085	8b 54 24 0c	 mov	 edx, DWORD PTR $T237111[esp+52]
  00089	52		 push	 edx
  0008a	e8 00 00 00 00	 call	 ??3@YAXPAX@Z		; operator delete
  0008f	83 c4 04	 add	 esp, 4
$L237177:

; 327  : 		SAFE_DELETE( pObject3D );

  00092	8b ce		 mov	 ecx, esi
  00094	c7 44 24 20 0f
	00 00 00	 mov	 DWORD PTR $T237111[esp+72], 15 ; 0000000fH
  0009c	c7 44 24 1c 00
	00 00 00	 mov	 DWORD PTR $T237111[esp+68], 0
  000a4	c6 44 24 0c 00	 mov	 BYTE PTR $T237111[esp+52], 0
  000a9	e8 00 00 00 00	 call	 ?Destroy@CObject3D@@AAEXXZ ; CObject3D::Destroy
  000ae	56		 push	 esi
  000af	e8 00 00 00 00	 call	 ??3@YAXPAX@Z		; operator delete

; 331  : #else	// __JEFF_11_5
; 332  : 	if( pObject3D == NULL )	return FALSE;
; 333  : 	if( m_nMax == 0 )	return FALSE;
; 334  : 	
; 335  : 	int	i, j;
; 336  : 
; 337  : 	for( i = 0; i < MAX_OBJECT3D; i ++ )
; 338  : 	{
; 339  : 		if( m_pObject3DAry[i] )
; 340  : 		{
; 341  : 			if( m_pObject3DAry[i] == pObject3D )		// pObject3D .
; 342  : 			{
; 343  : 				if( m_pObject3DAry[i]->m_nUseCnt == 1 )			//  (usecnt == 1)
; 344  : 				{
; 345  : 					for( j = 0; j < MAX_OBJECT3D_CACHE; j ++ )
; 346  : 					{
; 347  : 						if( m_pCache[j] == pObject3D )
; 348  : 						{
; 349  : 							m_pCache[j] = NULL;			//       .
; 350  : 							break;
; 351  : 						}
; 352  : 					}
; 353  : 					SAFE_DELETE( m_pObject3DAry[i] );			//      .
; 354  : 					m_nMax --;
; 355  : 					return TRUE;
; 356  : 				}
; 357  : 			}
; 358  : 		}
; 359  : 	}
; 360  : 
; 361  : 	return FALSE;
; 362  : #endif	// __JEFF_11_5
; 363  : }

  000b4	8b 4c 24 28	 mov	 ecx, DWORD PTR __$EHRec$[esp+52]
  000b8	83 c4 04	 add	 esp, 4
  000bb	5f		 pop	 edi
  000bc	b8 01 00 00 00	 mov	 eax, 1
  000c1	5e		 pop	 esi
  000c2	64 89 0d 00 00
	00 00		 mov	 DWORD PTR fs:__except_list, ecx
  000c9	83 c4 28	 add	 esp, 40			; 00000028H
  000cc	c2 04 00	 ret	 4
_TEXT	ENDS
;	COMDAT text$x
text$x	SEGMENT
$L237116:
  00000	8d 4d d8	 lea	 ecx, DWORD PTR $T237111[ebp]
  00003	e9 00 00 00 00	 jmp	 ??1?$basic_string@DU?$char_traits@D@std@@V?$allocator@D@2@@std@@QAE@XZ ; std::basic_string<char,std::char_traits<char>,std::allocator<char> >::~basic_string<char,std::char_traits<char>,std::allocator<char> >
__ehhandler$?DeleteObject3D@CObject3DMng@@QAEHPAVCObject3D@@@Z:
  00008	b8 00 00 00 00	 mov	 eax, OFFSET FLAT:$T237204
  0000d	e9 00 00 00 00	 jmp	 ___CxxFrameHandler
text$x	ENDS
?DeleteObject3D@CObject3DMng@@QAEHPAVCObject3D@@@Z ENDP	; CObject3DMng::DeleteObject3D
PUBLIC	?LoadObject3D@CObject3DMng@@QAEPAVCObject3D@@PAUIDirect3DDevice9@@PBD@Z ; CObject3DMng::LoadObject3D
;	COMDAT xdata$x
; File c:\program files\microsoft visual studio .net 2003\vc7\include\iosfwd
xdata$x	SEGMENT
$T237963 DD	0ffffffffH
	DD	FLAT:$L237228
	DD	0ffffffffH
	DD	FLAT:$L237230
	DD	01H
	DD	FLAT:$L237231
$T237955 DD	019930520H
	DD	03H
	DD	FLAT:$T237963
	DD	2 DUP(00H)
	DD	2 DUP(00H)
; Function compile flags: /Ogty
; File c:\documents and settings\test\mes documents\source\virtuos_v17\build\program\_common\object3d.cpp
xdata$x	ENDS
;	COMDAT ?LoadObject3D@CObject3DMng@@QAEPAVCObject3D@@PAUIDirect3DDevice9@@PBD@Z
_TEXT	SEGMENT
$T237953 = -392						; size = 4
$T237952 = -388						; size = 4
$T237227 = -384						; size = 8
_i$ = -384						; size = 4
$T237225 = -376						; size = 32
$T237215 = -344						; size = 28
$T237226 = -316						; size = 28
_sFile$ = -288						; size = 260
__$ArrayPad$ = -20					; size = 4
__$EHRec$ = -12						; size = 12
__$ReturnAddr$ = 4					; size = 4
_pd3dDevice$ = 8					; size = 4
_szFileName$ = 12					; size = 4
?LoadObject3D@CObject3DMng@@QAEPAVCObject3D@@PAUIDirect3DDevice9@@PBD@Z PROC NEAR ; CObject3DMng::LoadObject3D, COMDAT
; _this$ = ecx

; 371  : {

  00000	55		 push	 ebp
  00001	8b ec		 mov	 ebp, esp
  00003	83 e4 f8	 and	 esp, -8			; fffffff8H
  00006	6a ff		 push	 -1
  00008	68 00 00 00 00	 push	 __ehhandler$?LoadObject3D@CObject3DMng@@QAEPAVCObject3D@@PAUIDirect3DDevice9@@PBD@Z
  0000d	64 a1 00 00 00
	00		 mov	 eax, DWORD PTR fs:__except_list
  00013	50		 push	 eax
  00014	64 89 25 00 00
	00 00		 mov	 DWORD PTR fs:__except_list, esp
  0001b	81 ec 80 01 00
	00		 sub	 esp, 384		; 00000180H
  00021	a1 00 00 00 00	 mov	 eax, DWORD PTR ___security_cookie
  00026	8b 55 0c	 mov	 edx, DWORD PTR _szFileName$[ebp]
  00029	33 c5		 xor	 eax, ebp
  0002b	53		 push	 ebx
  0002c	89 84 24 7c 01
	00 00		 mov	 DWORD PTR __$ArrayPad$[esp+400], eax
  00033	56		 push	 esi
  00034	57		 push	 edi
  00035	8b f1		 mov	 esi, ecx

; 372  : #ifdef __JEFF_11_5
; 373  : 	char sFile[MAX_PATH]	= { 0,};

  00037	33 c0		 xor	 eax, eax
  00039	33 db		 xor	 ebx, ebx
  0003b	88 5c 24 78	 mov	 BYTE PTR _sFile$[esp+408], bl
  0003f	b9 40 00 00 00	 mov	 ecx, 64			; 00000040H
  00044	8d 7c 24 79	 lea	 edi, DWORD PTR _sFile$[esp+409]
  00048	f3 ab		 rep stosd
  0004a	66 ab		 stosw
  0004c	aa		 stosb

; 374  : 	strcpy( sFile, szFileName );

  0004d	8b c2		 mov	 eax, edx

; 375  : 	strlwr( sFile );
; 376  : 
; 377  : 	map<string, CObject3D*>::iterator i		= m_mapObject3D.find( sFile );
; 378  : 	if( i != m_mapObject3D.end() )

  0004f	89 54 24 10	 mov	 DWORD PTR $T237953[esp+408], edx
  00053	8d 54 24 78	 lea	 edx, DWORD PTR _sFile$[esp+408]
  00057	8b c8		 mov	 ecx, eax

; 389  : 	}
; 390  : 	pObject3D->m_nUseCnt	= 1;
; 391  : 	bool bResult	= m_mapObject3D.insert( map<string, CObject3D*>::value_type( sFile, pObject3D ) ).second;

  00059	89 74 24 14	 mov	 DWORD PTR $T237952[esp+408], esi
  0005d	2b d1		 sub	 edx, ecx
  0005f	90		 npad	 1
$L237214:
  00060	8a 08		 mov	 cl, BYTE PTR [eax]
  00062	88 0c 02	 mov	 BYTE PTR [edx+eax], cl
  00065	40		 inc	 eax
  00066	3a cb		 cmp	 cl, bl
  00068	75 f6		 jne	 SHORT $L237214
  0006a	8d 44 24 78	 lea	 eax, DWORD PTR _sFile$[esp+408]
  0006e	50		 push	 eax
  0006f	e8 00 00 00 00	 call	 _strlwr
  00074	8d 44 24 7c	 lea	 eax, DWORD PTR _sFile$[esp+412]
  00078	83 c4 04	 add	 esp, 4
  0007b	c7 44 24 58 0f
	00 00 00	 mov	 DWORD PTR $T237215[esp+432], 15 ; 0000000fH
  00083	89 5c 24 54	 mov	 DWORD PTR $T237215[esp+428], ebx
  00087	88 5c 24 44	 mov	 BYTE PTR $T237215[esp+412], bl
  0008b	8d 50 01	 lea	 edx, DWORD PTR [eax+1]
  0008e	8b ff		 npad	 2
$L237959:
  00090	8a 08		 mov	 cl, BYTE PTR [eax]
  00092	40		 inc	 eax
  00093	3a cb		 cmp	 cl, bl
  00095	75 f9		 jne	 SHORT $L237959
  00097	2b c2		 sub	 eax, edx
  00099	50		 push	 eax
  0009a	8d 4c 24 7c	 lea	 ecx, DWORD PTR _sFile$[esp+412]
  0009e	51		 push	 ecx
  0009f	8d 4c 24 48	 lea	 ecx, DWORD PTR $T237215[esp+416]
  000a3	e8 00 00 00 00	 call	 ?assign@?$basic_string@DU?$char_traits@D@std@@V?$allocator@D@2@@std@@QAEAAV12@PBDI@Z ; std::basic_string<char,std::char_traits<char>,std::allocator<char> >::assign
  000a8	8d 54 24 40	 lea	 edx, DWORD PTR $T237215[esp+408]
  000ac	52		 push	 edx
  000ad	8d 44 24 1c	 lea	 eax, DWORD PTR _i$[esp+412]
  000b1	50		 push	 eax
  000b2	8b ce		 mov	 ecx, esi
  000b4	89 9c 24 9c 01
	00 00		 mov	 DWORD PTR __$EHRec$[esp+424], ebx
  000bb	e8 00 00 00 00	 call	 ?find@?$_Tree@V?$_Tmap_traits@V?$basic_string@DU?$char_traits@D@std@@V?$allocator@D@2@@std@@PAVCObject3D@@U?$less@V?$basic_string@DU?$char_traits@D@std@@V?$allocator@D@2@@std@@@2@V?$allocator@U?$pair@$$CBV?$basic_string@DU?$char_traits@D@std@@V?$allocator@D@2@@std@@PAVCObject3D@@@std@@@2@$0A@@std@@@std@@QAE?AViterator@12@ABV?$basic_string@DU?$char_traits@D@std@@V?$allocator@D@2@@2@@Z ; std::_Tree<std::_Tmap_traits<std::basic_string<char,std::char_traits<char>,std::allocator<char> >,CObject3D *,std::less<std::basic_string<char,std::char_traits<char>,std::allocator<char> > >,std::allocator<std::pair<std::basic_string<char,std::char_traits<char>,std::allocator<char> > const ,CObject3D *> >,0> >::find
  000c0	83 7c 24 58 10	 cmp	 DWORD PTR $T237215[esp+432], 16 ; 00000010H
  000c5	c7 84 24 94 01
	00 00 ff ff ff
	ff		 mov	 DWORD PTR __$EHRec$[esp+416], -1
  000d0	72 0d		 jb	 SHORT $L237394
  000d2	8b 4c 24 44	 mov	 ecx, DWORD PTR $T237215[esp+412]
  000d6	51		 push	 ecx
  000d7	e8 00 00 00 00	 call	 ??3@YAXPAX@Z		; operator delete
  000dc	83 c4 04	 add	 esp, 4
$L237394:
  000df	8b 4e 04	 mov	 ecx, DWORD PTR [esi+4]
  000e2	8b 44 24 18	 mov	 eax, DWORD PTR _i$[esp+408]
  000e6	3b c1		 cmp	 eax, ecx
  000e8	74 11		 je	 SHORT $L225839
  000ea	8b 48 28	 mov	 ecx, DWORD PTR [eax+40]
  000ed	ff 81 20 0c 00
	00		 inc	 DWORD PTR [ecx+3104]
  000f3	8b 40 28	 mov	 eax, DWORD PTR [eax+40]
  000f6	e9 17 01 00 00	 jmp	 $L225828
$L225839:

; 379  : 	{
; 380  : 		i->second->m_nUseCnt++;
; 381  : 		return i->second;
; 382  : 	}
; 383  : 	CObject3D* pObject3D	= new CObject3D;

  000fb	68 30 0c 00 00	 push	 3120			; 00000c30H
  00100	e8 00 00 00 00	 call	 ??2@YAPAXI@Z		; operator new
  00105	8b f8		 mov	 edi, eax
  00107	83 c4 04	 add	 esp, 4
  0010a	3b fb		 cmp	 edi, ebx
  0010c	74 09		 je	 SHORT $L237219
  0010e	8b cf		 mov	 ecx, edi
  00110	e8 00 00 00 00	 call	 ?Init@CObject3D@@AAEXXZ	; CObject3D::Init
  00115	eb 02		 jmp	 SHORT $L237220
$L237219:
  00117	33 ff		 xor	 edi, edi
$L237220:

; 384  : 	pObject3D->InitDeviceObjects( pd3dDevice );
; 385  : 	if( pObject3D->LoadObject( szFileName ) == FAIL )

  00119	8b 44 24 10	 mov	 eax, DWORD PTR $T237953[esp+408]
  0011d	8b 55 08	 mov	 edx, DWORD PTR _pd3dDevice$[ebp]
  00120	50		 push	 eax
  00121	8b cf		 mov	 ecx, edi
  00123	89 97 ac 00 00
	00		 mov	 DWORD PTR [edi+172], edx
  00129	e8 00 00 00 00	 call	 ?LoadObject@CObject3D@@QAEHPBD@Z ; CObject3D::LoadObject
  0012e	83 f8 ff	 cmp	 eax, -1
  00131	75 17		 jne	 SHORT $L225845

; 386  : 	{
; 387  : 		SAFE_DELETE( pObject3D );

  00133	8b cf		 mov	 ecx, edi
  00135	e8 00 00 00 00	 call	 ?Destroy@CObject3D@@AAEXXZ ; CObject3D::Destroy
  0013a	57		 push	 edi
  0013b	e8 00 00 00 00	 call	 ??3@YAXPAX@Z		; operator delete
  00140	83 c4 04	 add	 esp, 4

; 388  : 		return NULL;

  00143	33 c0		 xor	 eax, eax
  00145	e9 c8 00 00 00	 jmp	 $L225828
$L225845:

; 389  : 	}
; 390  : 	pObject3D->m_nUseCnt	= 1;
; 391  : 	bool bResult	= m_mapObject3D.insert( map<string, CObject3D*>::value_type( sFile, pObject3D ) ).second;

  0014a	8d 44 24 78	 lea	 eax, DWORD PTR _sFile$[esp+408]
  0014e	c7 87 20 0c 00
	00 01 00 00 00	 mov	 DWORD PTR [edi+3104], 1
  00158	c7 44 24 74 0f
	00 00 00	 mov	 DWORD PTR $T237226[esp+432], 15 ; 0000000fH
  00160	89 5c 24 70	 mov	 DWORD PTR $T237226[esp+428], ebx
  00164	88 5c 24 60	 mov	 BYTE PTR $T237226[esp+412], bl
  00168	8d 70 01	 lea	 esi, DWORD PTR [eax+1]
  0016b	eb 03 8d 49 00	 npad	 5
$L237960:
  00170	8a 08		 mov	 cl, BYTE PTR [eax]
  00172	40		 inc	 eax
  00173	3a cb		 cmp	 cl, bl
  00175	75 f9		 jne	 SHORT $L237960
  00177	2b c6		 sub	 eax, esi
  00179	50		 push	 eax
  0017a	8d 4c 24 7c	 lea	 ecx, DWORD PTR _sFile$[esp+412]
  0017e	51		 push	 ecx
  0017f	8d 4c 24 64	 lea	 ecx, DWORD PTR $T237226[esp+416]
  00183	e8 00 00 00 00	 call	 ?assign@?$basic_string@DU?$char_traits@D@std@@V?$allocator@D@2@@std@@QAEAAV12@PBDI@Z ; std::basic_string<char,std::char_traits<char>,std::allocator<char> >::assign
  00188	6a ff		 push	 -1
  0018a	53		 push	 ebx
  0018b	8d 54 24 64	 lea	 edx, DWORD PTR $T237226[esp+416]
  0018f	52		 push	 edx
  00190	8d 4c 24 2c	 lea	 ecx, DWORD PTR $T237225[esp+420]
  00194	c7 84 24 a0 01
	00 00 01 00 00
	00		 mov	 DWORD PTR __$EHRec$[esp+428], 1
  0019f	c7 44 24 44 0f
	00 00 00	 mov	 DWORD PTR $T237225[esp+444], 15 ; 0000000fH
  001a7	89 5c 24 40	 mov	 DWORD PTR $T237225[esp+440], ebx
  001ab	88 5c 24 30	 mov	 BYTE PTR $T237225[esp+424], bl
  001af	e8 00 00 00 00	 call	 ?assign@?$basic_string@DU?$char_traits@D@std@@V?$allocator@D@2@@std@@QAEAAV12@ABV12@II@Z ; std::basic_string<char,std::char_traits<char>,std::allocator<char> >::assign
  001b4	89 7c 24 3c	 mov	 DWORD PTR $T237225[esp+436], edi
  001b8	8d 44 24 20	 lea	 eax, DWORD PTR $T237225[esp+408]
  001bc	50		 push	 eax
  001bd	8d 4c 24 1c	 lea	 ecx, DWORD PTR $T237227[esp+412]
  001c1	51		 push	 ecx
  001c2	8b 4c 24 1c	 mov	 ecx, DWORD PTR $T237952[esp+416]
  001c6	c6 84 24 9c 01
	00 00 02	 mov	 BYTE PTR __$EHRec$[esp+424], 2
  001ce	e8 00 00 00 00	 call	 ?insert@?$_Tree@V?$_Tmap_traits@V?$basic_string@DU?$char_traits@D@std@@V?$allocator@D@2@@std@@PAVCObject3D@@U?$less@V?$basic_string@DU?$char_traits@D@std@@V?$allocator@D@2@@std@@@2@V?$allocator@U?$pair@$$CBV?$basic_string@DU?$char_traits@D@std@@V?$allocator@D@2@@std@@PAVCObject3D@@@std@@@2@$0A@@std@@@std@@QAE?AU?$pair@Viterator@?$_Tree@V?$_Tmap_traits@V?$basic_string@DU?$char_traits@D@std@@V?$allocator@D@2@@std@@PAVCObject3D@@U?$less@V?$basic_string@DU?$char_traits@D@std@@V?$allocator@D@2@@std@@@2@V?$allocator@U?$pair@$$CBV?$basic_string@DU?$char_traits@D@std@@V?$allocator@D@2@@std@@PAVCObject3D@@@std@@@2@$0A@@std@@@std@@_N@2@ABU?$pair@$$CBV?$basic_string@DU?$char_traits@D@std@@V?$allocator@D@2@@std@@PAVCObject3D@@@2@@Z ; std::_Tree<std::_Tmap_traits<std::basic_string<char,std::char_traits<char>,std::allocator<char> >,CObject3D *,std::less<std::basic_string<char,std::char_traits<char>,std::allocator<char> > >,std::allocator<std::pair<std::basic_string<char,std::char_traits<char>,std::allocator<char> > const ,CObject3D *> >,0> >::insert
  001d3	8b 44 24 38	 mov	 eax, DWORD PTR $T237225[esp+432]
  001d7	be 10 00 00 00	 mov	 esi, 16			; 00000010H
  001dc	3b c6		 cmp	 eax, esi
  001de	72 0d		 jb	 SHORT $L237860
  001e0	8b 54 24 24	 mov	 edx, DWORD PTR $T237225[esp+412]
  001e4	52		 push	 edx
  001e5	e8 00 00 00 00	 call	 ??3@YAXPAX@Z		; operator delete
  001ea	83 c4 04	 add	 esp, 4
$L237860:
  001ed	39 74 24 74	 cmp	 DWORD PTR $T237226[esp+432], esi
  001f1	c7 44 24 38 0f
	00 00 00	 mov	 DWORD PTR $T237225[esp+432], 15 ; 0000000fH
  001f9	89 5c 24 34	 mov	 DWORD PTR $T237225[esp+428], ebx
  001fd	88 5c 24 24	 mov	 BYTE PTR $T237225[esp+412], bl
  00201	72 0d		 jb	 SHORT $L237934
  00203	8b 44 24 60	 mov	 eax, DWORD PTR $T237226[esp+412]
  00207	50		 push	 eax
  00208	e8 00 00 00 00	 call	 ??3@YAXPAX@Z		; operator delete
  0020d	83 c4 04	 add	 esp, 4
$L237934:

; 392  : 
; 393  : 	return pObject3D;

  00210	8b c7		 mov	 eax, edi
$L225828:

; 394  : #else	// __JEFF_11_5
; 395  : 	int			i;
; 396  : 	CObject3D	**pAry;
; 397  : 	CObject3D	*pObject3D;
; 398  : 	int			nIdx = -1;
; 399  : 
; 400  : 	//     ,   
; 401  : 	//   
; 402  : 	pAry = m_pCache;
; 403  : 	for( i = 0; i < MAX_OBJECT3D_CACHE; i ++ )
; 404  : 	{
; 405  : 		pObject3D = *pAry++;
; 406  : 		if( pObject3D )
; 407  : 		{
; 408  : 			if( strcmpi(pObject3D->m_szFileName, szFileName) == 0 && pObject3D->m_pd3dDevice == pd3dDevice )		//    
; 409  : 			{
; 410  : 				pObject3D->m_nUseCnt ++;	//    .
; 411  : 				return pObject3D;
; 412  : 			}
; 413  : 		}
; 414  : 	}
; 415  : 	//     ,   
; 416  : 	pAry = m_pObject3DAry;
; 417  : 	for( i = 0; i < MAX_OBJECT3D; i ++ )
; 418  : 	{
; 419  : 		pObject3D = *pAry++;
; 420  : 		if( pObject3D )				//       
; 421  : 		{
; 422  : 			if( strcmpi(pObject3D->m_szFileName, szFileName) == 0 && pObject3D->m_pd3dDevice == pd3dDevice )		//    
; 423  : 			{
; 424  : 				pObject3D->m_nUseCnt ++;	//    .
; 425  : 				return pObject3D;
; 426  : 			}
; 427  : 		} else
; 428  : 		{
; 429  : 			if( nIdx == -1 )		nIdx = i;			//      
; 430  : 		}
; 431  : 	}
; 432  : 	if( nIdx == -1 )	
; 433  : 	{
; 434  : 		Error( "%s :     ", szFileName );
; 435  : 	}
; 436  : 
; 437  : 	pObject3D = new CObject3D;
; 438  : //	pObject3D->m_tmCreate = timeGetTime();		//    
; 439  : 	pObject3D->InitDeviceObjects( pd3dDevice );
; 440  : 
; 441  : 	//  .    .
; 442  : 	if( pObject3D->LoadObject( szFileName ) == FAIL )
; 443  : 	{
; 444  : 		SAFE_DELETE( pObject3D );
; 445  : 		return NULL;
; 446  : 	}
; 447  : 
; 448  : 	pObject3D->m_nUseCnt = 1;	//   1
; 449  : 	//    
; 450  : 	m_pObject3DAry[ nIdx ] = pObject3D;
; 451  : 	
; 452  : 	//  
; 453  : 	m_pCache[ m_nCachePos++ ] = pObject3D;
; 454  : 	if( m_nCachePos >= MAX_OBJECT3D_CACHE )		m_nCachePos = 0;
; 455  : 
; 456  : 	m_nMax ++;			//    
; 457  : 
; 458  : 	return pObject3D;		//    
; 459  : #endif	// __JEFF_11_5
; 460  : }

  00212	8b 8c 24 8c 01
	00 00		 mov	 ecx, DWORD PTR __$EHRec$[esp+408]
  00219	64 89 0d 00 00
	00 00		 mov	 DWORD PTR fs:__except_list, ecx
  00220	8b 8c 24 84 01
	00 00		 mov	 ecx, DWORD PTR __$ArrayPad$[esp+408]
  00227	5f		 pop	 edi
  00228	5e		 pop	 esi
  00229	33 cd		 xor	 ecx, ebp
  0022b	5b		 pop	 ebx
  0022c	e8 00 00 00 00	 call	 @__security_check_cookie@4
  00231	8b e5		 mov	 esp, ebp
  00233	5d		 pop	 ebp
  00234	c2 08 00	 ret	 8
_TEXT	ENDS
;	COMDAT text$x
text$x	SEGMENT
$L237228:
  00000	8d 8d a8 fe ff
	ff		 lea	 ecx, DWORD PTR $T237215[ebp]
  00006	e9 00 00 00 00	 jmp	 ??1?$basic_string@DU?$char_traits@D@std@@V?$allocator@D@2@@std@@QAE@XZ ; std::basic_string<char,std::char_traits<char>,std::allocator<char> >::~basic_string<char,std::char_traits<char>,std::allocator<char> >
$L237230:
  0000b	8d 8d c4 fe ff
	ff		 lea	 ecx, DWORD PTR $T237226[ebp]
  00011	e9 00 00 00 00	 jmp	 ??1?$basic_string@DU?$char_traits@D@std@@V?$allocator@D@2@@std@@QAE@XZ ; std::basic_string<char,std::char_traits<char>,std::allocator<char> >::~basic_string<char,std::char_traits<char>,std::allocator<char> >
$L237231:
  00016	8d 8d 88 fe ff
	ff		 lea	 ecx, DWORD PTR $T237225[ebp]
  0001c	e9 00 00 00 00	 jmp	 ??1?$pair@$$CBV?$basic_string@DU?$char_traits@D@std@@V?$allocator@D@2@@std@@PAVCObject3D@@@std@@QAE@XZ
__ehhandler$?LoadObject3D@CObject3DMng@@QAEPAVCObject3D@@PAUIDirect3DDevice9@@PBD@Z:
  00021	b8 00 00 00 00	 mov	 eax, OFFSET FLAT:$T237955
  00026	e9 00 00 00 00	 jmp	 ___CxxFrameHandler
text$x	ENDS
?LoadObject3D@CObject3DMng@@QAEPAVCObject3D@@PAUIDirect3DDevice9@@PBD@Z ENDP ; CObject3DMng::LoadObject3D
PUBLIC	??0?$map@V?$basic_string@DU?$char_traits@D@std@@V?$allocator@D@2@@std@@PAVCObject3D@@U?$less@V?$basic_string@DU?$char_traits@D@std@@V?$allocator@D@2@@std@@@2@V?$allocator@U?$pair@$$CBV?$basic_string@DU?$char_traits@D@std@@V?$allocator@D@2@@std@@PAVCObject3D@@@std@@@2@@std@@QAE@XZ ; std::map<std::basic_string<char,std::char_traits<char>,std::allocator<char> >,CObject3D *,std::less<std::basic_string<char,std::char_traits<char>,std::allocator<char> > >,std::allocator<std::pair<std::basic_string<char,std::char_traits<char>,std::allocator<char> > const ,CObject3D *> > >::map<std::basic_string<char,std::char_traits<char>,std::allocator<char> >,CObject3D *,std::less<std::basic_string<char,std::char_traits<char>,std::allocator<char> > >,std::allocator<std::pair<std::basic_string<char,std::char_traits<char>,std::allocator<char> > const ,CObject3D *> > >
; Function compile flags: /Ogty
; File c:\program files\microsoft visual studio .net 2003\vc7\include\map
;	COMDAT ??0?$map@V?$basic_string@DU?$char_traits@D@std@@V?$allocator@D@2@@std@@PAVCObject3D@@U?$less@V?$basic_string@DU?$char_traits@D@std@@V?$allocator@D@2@@std@@@2@V?$allocator@U?$pair@$$CBV?$basic_string@DU?$char_traits@D@std@@V?$allocator@D@2@@std@@PAVCObject3D@@@std@@@2@@std@@QAE@XZ
_TEXT	SEGMENT
??0?$map@V?$basic_string@DU?$char_traits@D@std@@V?$allocator@D@2@@std@@PAVCObject3D@@U?$less@V?$basic_string@DU?$char_traits@D@std@@V?$allocator@D@2@@std@@@2@V?$allocator@U?$pair@$$CBV?$basic_string@DU?$char_traits@D@std@@V?$allocator@D@2@@std@@PAVCObject3D@@@std@@@2@@std@@QAE@XZ PROC NEAR ; std::map<std::basic_string<char,std::char_traits<char>,std::allocator<char> >,CObject3D *,std::less<std::basic_string<char,std::char_traits<char>,std::allocator<char> > >,std::allocator<std::pair<std::basic_string<char,std::char_traits<char>,std::allocator<char> > const ,CObject3D *> > >::map<std::basic_string<char,std::char_traits<char>,std::allocator<char> >,CObject3D *,std::less<std::basic_string<char,std::char_traits<char>,std::allocator<char> > >,std::allocator<std::pair<std::basic_string<char,std::char_traits<char>,std::allocator<char> > const ,CObject3D *> > >, COMDAT
; _this$ = ecx

; 102  : 		{	// construct empty map from defaults

  00000	56		 push	 esi
  00001	8b f1		 mov	 esi, ecx
  00003	e8 00 00 00 00	 call	 ?_Buynode@?$_Tree@V?$_Tmap_traits@V?$basic_string@DU?$char_traits@D@std@@V?$allocator@D@2@@std@@PAVCObject3D@@U?$less@V?$basic_string@DU?$char_traits@D@std@@V?$allocator@D@2@@std@@@2@V?$allocator@U?$pair@$$CBV?$basic_string@DU?$char_traits@D@std@@V?$allocator@D@2@@std@@PAVCObject3D@@@std@@@2@$0A@@std@@@std@@IAEPAU_Node@?$_Tree_nod@V?$_Tmap_traits@V?$basic_string@DU?$char_traits@D@std@@V?$allocator@D@2@@std@@PAVCObject3D@@U?$less@V?$basic_string@DU?$char_traits@D@std@@V?$allocator@D@2@@std@@@2@V?$allocator@U?$pair@$$CBV?$basic_string@DU?$char_traits@D@std@@V?$allocator@D@2@@std@@PAVCObject3D@@@std@@@2@$0A@@std@@@2@XZ ; std::_Tree<std::_Tmap_traits<std::basic_string<char,std::char_traits<char>,std::allocator<char> >,CObject3D *,std::less<std::basic_string<char,std::char_traits<char>,std::allocator<char> > >,std::allocator<std::pair<std::basic_string<char,std::char_traits<char>,std::allocator<char> > const ,CObject3D *> >,0> >::_Buynode
  00008	89 46 04	 mov	 DWORD PTR [esi+4], eax
  0000b	c6 40 2d 01	 mov	 BYTE PTR [eax+45], 1
  0000f	8b 46 04	 mov	 eax, DWORD PTR [esi+4]
  00012	89 40 04	 mov	 DWORD PTR [eax+4], eax
  00015	8b 46 04	 mov	 eax, DWORD PTR [esi+4]
  00018	89 00		 mov	 DWORD PTR [eax], eax
  0001a	8b 46 04	 mov	 eax, DWORD PTR [esi+4]
  0001d	89 40 08	 mov	 DWORD PTR [eax+8], eax
  00020	c7 46 08 00 00
	00 00		 mov	 DWORD PTR [esi+8], 0

; 103  : 		}

  00027	8b c6		 mov	 eax, esi
  00029	5e		 pop	 esi
  0002a	c3		 ret	 0
??0?$map@V?$basic_string@DU?$char_traits@D@std@@V?$allocator@D@2@@std@@PAVCObject3D@@U?$less@V?$basic_string@DU?$char_traits@D@std@@V?$allocator@D@2@@std@@@2@V?$allocator@U?$pair@$$CBV?$basic_string@DU?$char_traits@D@std@@V?$allocator@D@2@@std@@PAVCObject3D@@@std@@@2@@std@@QAE@XZ ENDP ; std::map<std::basic_string<char,std::char_traits<char>,std::allocator<char> >,CObject3D *,std::less<std::basic_string<char,std::char_traits<char>,std::allocator<char> > >,std::allocator<std::pair<std::basic_string<char,std::char_traits<char>,std::allocator<char> > const ,CObject3D *> > >::map<std::basic_string<char,std::char_traits<char>,std::allocator<char> >,CObject3D *,std::less<std::basic_string<char,std::char_traits<char>,std::allocator<char> > >,std::allocator<std::pair<std::basic_string<char,std::char_traits<char>,std::allocator<char> > const ,CObject3D *> > >
_TEXT	ENDS
PUBLIC	??0CObject3DMng@@QAE@XZ				; CObject3DMng::CObject3DMng
;	COMDAT xdata$x
; File c:\program files\microsoft visual studio .net 2003\vc7\include\xtree
xdata$x	SEGMENT
$T238426 DD	0ffffffffH
	DD	FLAT:$L238136
$T238424 DD	019930520H
	DD	01H
	DD	FLAT:$T238426
	DD	2 DUP(00H)
	DD	2 DUP(00H)
; Function compile flags: /Ogty
; File c:\documents and settings\test\mes documents\source\virtuos_v17\build\program\_common\object3d.cpp
xdata$x	ENDS
;	COMDAT ??0CObject3DMng@@QAE@XZ
_TEXT	SEGMENT
_this$ = -16						; size = 4
__$EHRec$ = -12						; size = 12
??0CObject3DMng@@QAE@XZ PROC NEAR			; CObject3DMng::CObject3DMng, COMDAT
; _this$ = ecx

; 230  : {

  00000	6a ff		 push	 -1
  00002	68 00 00 00 00	 push	 __ehhandler$??0CObject3DMng@@QAE@XZ
  00007	64 a1 00 00 00
	00		 mov	 eax, DWORD PTR fs:__except_list
  0000d	50		 push	 eax
  0000e	64 89 25 00 00
	00 00		 mov	 DWORD PTR fs:__except_list, esp
  00015	51		 push	 ecx
  00016	56		 push	 esi
  00017	8b f1		 mov	 esi, ecx
  00019	89 74 24 04	 mov	 DWORD PTR _this$[esp+20], esi
  0001d	e8 00 00 00 00	 call	 ?_Buynode@?$_Tree@V?$_Tmap_traits@V?$basic_string@DU?$char_traits@D@std@@V?$allocator@D@2@@std@@PAVCObject3D@@U?$less@V?$basic_string@DU?$char_traits@D@std@@V?$allocator@D@2@@std@@@2@V?$allocator@U?$pair@$$CBV?$basic_string@DU?$char_traits@D@std@@V?$allocator@D@2@@std@@PAVCObject3D@@@std@@@2@$0A@@std@@@std@@IAEPAU_Node@?$_Tree_nod@V?$_Tmap_traits@V?$basic_string@DU?$char_traits@D@std@@V?$allocator@D@2@@std@@PAVCObject3D@@U?$less@V?$basic_string@DU?$char_traits@D@std@@V?$allocator@D@2@@std@@@2@V?$allocator@U?$pair@$$CBV?$basic_string@DU?$char_traits@D@std@@V?$allocator@D@2@@std@@PAVCObject3D@@@std@@@2@$0A@@std@@@2@XZ ; std::_Tree<std::_Tmap_traits<std::basic_string<char,std::char_traits<char>,std::allocator<char> >,CObject3D *,std::less<std::basic_string<char,std::char_traits<char>,std::allocator<char> > >,std::allocator<std::pair<std::basic_string<char,std::char_traits<char>,std::allocator<char> > const ,CObject3D *> >,0> >::_Buynode
  00022	89 46 04	 mov	 DWORD PTR [esi+4], eax
  00025	c6 40 2d 01	 mov	 BYTE PTR [eax+45], 1
  00029	8b 46 04	 mov	 eax, DWORD PTR [esi+4]
  0002c	89 40 04	 mov	 DWORD PTR [eax+4], eax
  0002f	8b 46 04	 mov	 eax, DWORD PTR [esi+4]
  00032	89 00		 mov	 DWORD PTR [eax], eax
  00034	8b 46 04	 mov	 eax, DWORD PTR [esi+4]
  00037	89 40 08	 mov	 DWORD PTR [eax+8], eax
  0003a	c7 46 08 00 00
	00 00		 mov	 DWORD PTR [esi+8], 0

; 231  : 	Init();

  00041	8b 46 04	 mov	 eax, DWORD PTR [esi+4]
  00044	8b 48 04	 mov	 ecx, DWORD PTR [eax+4]
  00047	51		 push	 ecx
  00048	8b ce		 mov	 ecx, esi
  0004a	c7 44 24 14 00
	00 00 00	 mov	 DWORD PTR __$EHRec$[esp+32], 0
  00052	e8 00 00 00 00	 call	 ?_Erase@?$_Tree@V?$_Tmap_traits@V?$basic_string@DU?$char_traits@D@std@@V?$allocator@D@2@@std@@PAVCObject3D@@U?$less@V?$basic_string@DU?$char_traits@D@std@@V?$allocator@D@2@@std@@@2@V?$allocator@U?$pair@$$CBV?$basic_string@DU?$char_traits@D@std@@V?$allocator@D@2@@std@@PAVCObject3D@@@std@@@2@$0A@@std@@@std@@IAEXPAU_Node@?$_Tree_nod@V?$_Tmap_traits@V?$basic_string@DU?$char_traits@D@std@@V?$allocator@D@2@@std@@PAVCObject3D@@U?$less@V?$basic_string@DU?$char_traits@D@std@@V?$allocator@D@2@@std@@@2@V?$allocator@U?$pair@$$CBV?$basic_string@DU?$char_traits@D@std@@V?$allocator@D@2@@std@@PAVCObject3D@@@std@@@2@$0A@@std@@@2@@Z ; std::_Tree<std::_Tmap_traits<std::basic_string<char,std::char_traits<char>,std::allocator<char> >,CObject3D *,std::less<std::basic_string<char,std::char_traits<char>,std::allocator<char> > >,std::allocator<std::pair<std::basic_string<char,std::char_traits<char>,std::allocator<char> > const ,CObject3D *> >,0> >::_Erase
  00057	8b 46 04	 mov	 eax, DWORD PTR [esi+4]

; 232  : }

  0005a	8b 4c 24 08	 mov	 ecx, DWORD PTR __$EHRec$[esp+20]
  0005e	89 40 04	 mov	 DWORD PTR [eax+4], eax
  00061	8b 46 04	 mov	 eax, DWORD PTR [esi+4]
  00064	c7 46 08 00 00
	00 00		 mov	 DWORD PTR [esi+8], 0
  0006b	89 00		 mov	 DWORD PTR [eax], eax
  0006d	8b 46 04	 mov	 eax, DWORD PTR [esi+4]
  00070	89 40 08	 mov	 DWORD PTR [eax+8], eax
  00073	8b c6		 mov	 eax, esi
  00075	5e		 pop	 esi
  00076	64 89 0d 00 00
	00 00		 mov	 DWORD PTR fs:__except_list, ecx
  0007d	83 c4 10	 add	 esp, 16			; 00000010H
  00080	c3		 ret	 0
_TEXT	ENDS
;	COMDAT text$x
text$x	SEGMENT
$L238136:
  00000	8b 4d f0	 mov	 ecx, DWORD PTR _this$[ebp]
  00003	e9 00 00 00 00	 jmp	 ??1?$map@V?$basic_string@DU?$char_traits@D@std@@V?$allocator@D@2@@std@@PAVCObject3D@@U?$less@V?$basic_string@DU?$char_traits@D@std@@V?$allocator@D@2@@std@@@2@V?$allocator@U?$pair@$$CBV?$basic_string@DU?$char_traits@D@std@@V?$allocator@D@2@@std@@PAVCObject3D@@@std@@@2@@std@@QAE@XZ
__ehhandler$??0CObject3DMng@@QAE@XZ:
  00008	b8 00 00 00 00	 mov	 eax, OFFSET FLAT:$T238424
  0000d	e9 00 00 00 00	 jmp	 ___CxxFrameHandler
text$x	ENDS
??0CObject3DMng@@QAE@XZ ENDP				; CObject3DMng::CObject3DMng
PUBLIC	?g_mReflect@@3UD3DXMATRIX@@A			; g_mReflect
_DATA	SEGMENT
?g_mReflect@@3UD3DXMATRIX@@A DD 03f000000r	; 0.5	; g_mReflect
	DD	000000000r			; 0
	DD	000000000r			; 0
	DD	000000000r			; 0
	DD	000000000r			; 0
	DD	0bf000000r			; -0.5
	DD	000000000r			; 0
	DD	000000000r			; 0
	DD	000000000r			; 0
	DD	000000000r			; 0
	DD	03f800000r			; 1
	DD	000000000r			; 0
	DD	03f000000r			; 0.5
	DD	03f000000r			; 0.5
	DD	000000000r			; 0
	DD	03f800000r			; 1
_DATA	ENDS
EXTRN	_atexit:NEAR
CRT$XCU	SEGMENT
_$S5	DD	FLAT:_$E3
; Function compile flags: /Ogty
CRT$XCU	ENDS
;	COMDAT _$E3
text$yc	SEGMENT
_$E3	PROC NEAR					; COMDAT

; 227  : CObject3DMng		g_Object3DMng;

  00000	b9 00 00 00 00	 mov	 ecx, OFFSET FLAT:?g_Object3DMng@@3VCObject3DMng@@A
  00005	e8 00 00 00 00	 call	 ??0CObject3DMng@@QAE@XZ	; CObject3DMng::CObject3DMng
  0000a	68 00 00 00 00	 push	 OFFSET FLAT:_$E4
  0000f	e8 00 00 00 00	 call	 _atexit
  00014	59		 pop	 ecx
  00015	c3		 ret	 0
_$E3	ENDP
; Function compile flags: /Ogty
text$yc	ENDS
;	COMDAT _$E4
text$yd	SEGMENT
_$E4	PROC NEAR					; COMDAT
  00000	b9 00 00 00 00	 mov	 ecx, OFFSET FLAT:?g_Object3DMng@@3VCObject3DMng@@A
  00005	e9 00 00 00 00	 jmp	 ??1CObject3DMng@@QAE@XZ	; CObject3DMng::~CObject3DMng
_$E4	ENDP
text$yd	ENDS
PUBLIC	?g_Object3DMng@@3VCObject3DMng@@A		; g_Object3DMng
_BSS	SEGMENT
?g_Object3DMng@@3VCObject3DMng@@A DB 0cH DUP (?)	; g_Object3DMng
__vPool	DB	0dc20H DUP (?)
_BSS	ENDS
END
