; Listing generated by Microsoft (R) Optimizing Compiler Version 13.10.6030 

	TITLE	\Documents and Settings\test\Mes documents\Source\Virtuos_v17\Build\Program\_Common\ObjSerialize.cpp
	.386P
include listing.inc
if @Version gt 510
.model FLAT
else
_TEXT	SEGMENT PARA USE32 PUBLIC 'CODE'
_TEXT	ENDS
_DATA	SEGMENT DWORD USE32 PUBLIC 'DATA'
_DATA	ENDS
CONST	SEGMENT DWORD USE32 PUBLIC 'CONST'
CONST	ENDS
_BSS	SEGMENT DWORD USE32 PUBLIC 'BSS'
_BSS	ENDS
$$SYMBOLS	SEGMENT BYTE USE32 'DEBSYM'
$$SYMBOLS	ENDS
$$TYPES	SEGMENT BYTE USE32 'DEBTYP'
$$TYPES	ENDS
_TLS	SEGMENT DWORD USE32 PUBLIC 'TLS'
_TLS	ENDS
xdata$x	SEGMENT DWORD USE32 PUBLIC 'CONST'
xdata$x	ENDS
text$AFX_COL1	SEGMENT PARA USE32 PUBLIC ''
text$AFX_COL1	ENDS
;	COMDAT ?Serialize@CCtrl@@UAEXAAVCAr@@@Z
_TEXT	SEGMENT PARA USE32 PUBLIC 'CODE'
_TEXT	ENDS
;	COMDAT ?Serialize@CItemBase@@UAEXAAVCAr@@@Z
_TEXT	SEGMENT PARA USE32 PUBLIC 'CODE'
_TEXT	ENDS
;	COMDAT ?Serialize@CItemElem@@UAEXAAVCAr@@@Z
_TEXT	SEGMENT PARA USE32 PUBLIC 'CODE'
_TEXT	ENDS
;	COMDAT ?Serialize@CItem@@UAEXAAVCAr@@@Z
_TEXT	SEGMENT PARA USE32 PUBLIC 'CODE'
_TEXT	ENDS
;	COMDAT ?compare@?$basic_string@DU?$char_traits@D@std@@V?$allocator@D@2@@std@@QBEHABV12@@Z
_TEXT	SEGMENT PARA USE32 PUBLIC 'CODE'
_TEXT	ENDS
;	COMDAT ?IsFull@?$CStack@K@@QAEHXZ
_TEXT	SEGMENT PARA USE32 PUBLIC 'CODE'
_TEXT	ENDS
;	COMDAT ??0?$pair@KPAVCCtrl@@@std@@QAE@ABKABQAVCCtrl@@@Z
_TEXT	SEGMENT PARA USE32 PUBLIC 'CODE'
_TEXT	ENDS
;	COMDAT ?GetMax@?$CItemContainer@VCItemElem@@@@QAEHXZ
_TEXT	SEGMENT PARA USE32 PUBLIC 'CODE'
_TEXT	ENDS
;	COMDAT ??0?$deque@PAUtagACTMSG@@V?$allocator@PAUtagACTMSG@@@std@@@std@@QAE@XZ
_TEXT	SEGMENT PARA USE32 PUBLIC 'CODE'
_TEXT	ENDS
;	COMDAT ??1?$deque@PAUtagACTMSG@@V?$allocator@PAUtagACTMSG@@@std@@@std@@QAE@XZ
_TEXT	SEGMENT PARA USE32 PUBLIC 'CODE'
_TEXT	ENDS
;	COMDAT ?begin@?$deque@PAUtagACTMSG@@V?$allocator@PAUtagACTMSG@@@std@@@std@@QAE?AViterator@12@XZ
_TEXT	SEGMENT PARA USE32 PUBLIC 'CODE'
_TEXT	ENDS
;	COMDAT ?end@?$deque@PAUtagACTMSG@@V?$allocator@PAUtagACTMSG@@@std@@@std@@QAE?AViterator@12@XZ
_TEXT	SEGMENT PARA USE32 PUBLIC 'CODE'
_TEXT	ENDS
;	COMDAT ?empty@?$deque@PAUtagACTMSG@@V?$allocator@PAUtagACTMSG@@@std@@@std@@QBE_NXZ
_TEXT	SEGMENT PARA USE32 PUBLIC 'CODE'
_TEXT	ENDS
;	COMDAT ?clear@?$deque@PAUtagACTMSG@@V?$allocator@PAUtagACTMSG@@@std@@@std@@QAEXXZ
_TEXT	SEGMENT PARA USE32 PUBLIC 'CODE'
_TEXT	ENDS
;	COMDAT ??0?$deque@PAUtagMAGICATKMSG@@V?$allocator@PAUtagMAGICATKMSG@@@std@@@std@@QAE@XZ
_TEXT	SEGMENT PARA USE32 PUBLIC 'CODE'
_TEXT	ENDS
;	COMDAT ??1?$deque@PAUtagMAGICATKMSG@@V?$allocator@PAUtagMAGICATKMSG@@@std@@@std@@QAE@XZ
_TEXT	SEGMENT PARA USE32 PUBLIC 'CODE'
_TEXT	ENDS
;	COMDAT ?begin@?$deque@PAUtagMAGICATKMSG@@V?$allocator@PAUtagMAGICATKMSG@@@std@@@std@@QAE?AViterator@12@XZ
_TEXT	SEGMENT PARA USE32 PUBLIC 'CODE'
_TEXT	ENDS
;	COMDAT ?end@?$deque@PAUtagMAGICATKMSG@@V?$allocator@PAUtagMAGICATKMSG@@@std@@@std@@QAE?AViterator@12@XZ
_TEXT	SEGMENT PARA USE32 PUBLIC 'CODE'
_TEXT	ENDS
;	COMDAT ?empty@?$deque@PAUtagMAGICATKMSG@@V?$allocator@PAUtagMAGICATKMSG@@@std@@@std@@QBE_NXZ
_TEXT	SEGMENT PARA USE32 PUBLIC 'CODE'
_TEXT	ENDS
;	COMDAT ?clear@?$deque@PAUtagMAGICATKMSG@@V?$allocator@PAUtagMAGICATKMSG@@@std@@@std@@QAEXXZ
_TEXT	SEGMENT PARA USE32 PUBLIC 'CODE'
_TEXT	ENDS
;	COMDAT ??Diterator@?$deque@PAUtagACTMSG@@V?$allocator@PAUtagACTMSG@@@std@@@std@@QBEAAPAUtagACTMSG@@XZ
_TEXT	SEGMENT PARA USE32 PUBLIC 'CODE'
_TEXT	ENDS
;	COMDAT ??Eiterator@?$deque@PAUtagACTMSG@@V?$allocator@PAUtagACTMSG@@@std@@@std@@QAEAAV012@XZ
_TEXT	SEGMENT PARA USE32 PUBLIC 'CODE'
_TEXT	ENDS
;	COMDAT ??9const_iterator@?$deque@PAUtagACTMSG@@V?$allocator@PAUtagACTMSG@@@std@@@std@@QBE_NABV012@@Z
_TEXT	SEGMENT PARA USE32 PUBLIC 'CODE'
_TEXT	ENDS
;	COMDAT ??Diterator@?$deque@PAUtagMAGICATKMSG@@V?$allocator@PAUtagMAGICATKMSG@@@std@@@std@@QBEAAPAUtagMAGICATKMSG@@XZ
_TEXT	SEGMENT PARA USE32 PUBLIC 'CODE'
_TEXT	ENDS
;	COMDAT ??Eiterator@?$deque@PAUtagMAGICATKMSG@@V?$allocator@PAUtagMAGICATKMSG@@@std@@@std@@QAEAAV012@XZ
_TEXT	SEGMENT PARA USE32 PUBLIC 'CODE'
_TEXT	ENDS
;	COMDAT ??9const_iterator@?$deque@PAUtagMAGICATKMSG@@V?$allocator@PAUtagMAGICATKMSG@@@std@@@std@@QBE_NABV012@@Z
_TEXT	SEGMENT PARA USE32 PUBLIC 'CODE'
_TEXT	ENDS
;	COMDAT ?compare@?$basic_string@DU?$char_traits@D@std@@V?$allocator@D@2@@std@@QBEHIIPBDI@Z
_TEXT	SEGMENT PARA USE32 PUBLIC 'CODE'
_TEXT	ENDS
;	COMDAT ?_Tidy@?$deque@PAUtagACTMSG@@V?$allocator@PAUtagACTMSG@@@std@@@std@@IAEXXZ
_TEXT	SEGMENT PARA USE32 PUBLIC 'CODE'
_TEXT	ENDS
;	COMDAT ??0?$_Deque_val@PAUtagACTMSG@@V?$allocator@PAUtagACTMSG@@@std@@@std@@IAE@V?$allocator@PAUtagACTMSG@@@1@@Z
_TEXT	SEGMENT PARA USE32 PUBLIC 'CODE'
_TEXT	ENDS
;	COMDAT ??0?$allocator@PAUtagACTMSG@@@std@@QAE@XZ
_TEXT	SEGMENT PARA USE32 PUBLIC 'CODE'
_TEXT	ENDS
;	COMDAT ?_Tidy@?$deque@PAUtagMAGICATKMSG@@V?$allocator@PAUtagMAGICATKMSG@@@std@@@std@@IAEXXZ
_TEXT	SEGMENT PARA USE32 PUBLIC 'CODE'
_TEXT	ENDS
;	COMDAT ??0?$_Deque_val@PAUtagMAGICATKMSG@@V?$allocator@PAUtagMAGICATKMSG@@@std@@@std@@IAE@V?$allocator@PAUtagMAGICATKMSG@@@1@@Z
_TEXT	SEGMENT PARA USE32 PUBLIC 'CODE'
_TEXT	ENDS
;	COMDAT ??0?$allocator@PAUtagMAGICATKMSG@@@std@@QAE@XZ
_TEXT	SEGMENT PARA USE32 PUBLIC 'CODE'
_TEXT	ENDS
;	COMDAT ??0iterator@?$deque@PAUtagACTMSG@@V?$allocator@PAUtagACTMSG@@@std@@@std@@QAE@IPBV12@@Z
_TEXT	SEGMENT PARA USE32 PUBLIC 'CODE'
_TEXT	ENDS
;	COMDAT ??Dconst_iterator@?$deque@PAUtagACTMSG@@V?$allocator@PAUtagACTMSG@@@std@@@std@@QBEABQAUtagACTMSG@@XZ
_TEXT	SEGMENT PARA USE32 PUBLIC 'CODE'
_TEXT	ENDS
;	COMDAT ??8const_iterator@?$deque@PAUtagACTMSG@@V?$allocator@PAUtagACTMSG@@@std@@@std@@QBE_NABV012@@Z
_TEXT	SEGMENT PARA USE32 PUBLIC 'CODE'
_TEXT	ENDS
;	COMDAT ??0iterator@?$deque@PAUtagMAGICATKMSG@@V?$allocator@PAUtagMAGICATKMSG@@@std@@@std@@QAE@IPBV12@@Z
_TEXT	SEGMENT PARA USE32 PUBLIC 'CODE'
_TEXT	ENDS
;	COMDAT ??Dconst_iterator@?$deque@PAUtagMAGICATKMSG@@V?$allocator@PAUtagMAGICATKMSG@@@std@@@std@@QBEABQAUtagMAGICATKMSG@@XZ
_TEXT	SEGMENT PARA USE32 PUBLIC 'CODE'
_TEXT	ENDS
;	COMDAT ??8const_iterator@?$deque@PAUtagMAGICATKMSG@@V?$allocator@PAUtagMAGICATKMSG@@@std@@@std@@QBE_NABV012@@Z
_TEXT	SEGMENT PARA USE32 PUBLIC 'CODE'
_TEXT	ENDS
;	COMDAT ?pop_back@?$deque@PAUtagACTMSG@@V?$allocator@PAUtagACTMSG@@@std@@@std@@QAEXXZ
_TEXT	SEGMENT PARA USE32 PUBLIC 'CODE'
_TEXT	ENDS
;	COMDAT ??0?$_Deque_map@PAUtagACTMSG@@V?$allocator@PAUtagACTMSG@@@std@@@std@@IAE@V?$allocator@PAUtagACTMSG@@@1@@Z
_TEXT	SEGMENT PARA USE32 PUBLIC 'CODE'
_TEXT	ENDS
;	COMDAT ??0?$allocator@PAUtagACTMSG@@@std@@QAE@ABV01@@Z
_TEXT	SEGMENT PARA USE32 PUBLIC 'CODE'
_TEXT	ENDS
;	COMDAT ?deallocate@?$allocator@PAUtagACTMSG@@@std@@QAEXPAPAUtagACTMSG@@I@Z
_TEXT	SEGMENT PARA USE32 PUBLIC 'CODE'
_TEXT	ENDS
;	COMDAT ?deallocate@?$allocator@PAPAUtagACTMSG@@@std@@QAEXPAPAPAUtagACTMSG@@I@Z
_TEXT	SEGMENT PARA USE32 PUBLIC 'CODE'
_TEXT	ENDS
;	COMDAT ?destroy@?$allocator@PAPAUtagACTMSG@@@std@@QAEXPAPAPAUtagACTMSG@@@Z
_TEXT	SEGMENT PARA USE32 PUBLIC 'CODE'
_TEXT	ENDS
;	COMDAT ?pop_back@?$deque@PAUtagMAGICATKMSG@@V?$allocator@PAUtagMAGICATKMSG@@@std@@@std@@QAEXXZ
_TEXT	SEGMENT PARA USE32 PUBLIC 'CODE'
_TEXT	ENDS
;	COMDAT ??0?$_Deque_map@PAUtagMAGICATKMSG@@V?$allocator@PAUtagMAGICATKMSG@@@std@@@std@@IAE@V?$allocator@PAUtagMAGICATKMSG@@@1@@Z
_TEXT	SEGMENT PARA USE32 PUBLIC 'CODE'
_TEXT	ENDS
;	COMDAT ??0?$allocator@PAUtagMAGICATKMSG@@@std@@QAE@ABV01@@Z
_TEXT	SEGMENT PARA USE32 PUBLIC 'CODE'
_TEXT	ENDS
;	COMDAT ?deallocate@?$allocator@PAUtagMAGICATKMSG@@@std@@QAEXPAPAUtagMAGICATKMSG@@I@Z
_TEXT	SEGMENT PARA USE32 PUBLIC 'CODE'
_TEXT	ENDS
;	COMDAT ?deallocate@?$allocator@PAPAUtagMAGICATKMSG@@@std@@QAEXPAPAPAUtagMAGICATKMSG@@I@Z
_TEXT	SEGMENT PARA USE32 PUBLIC 'CODE'
_TEXT	ENDS
;	COMDAT ?destroy@?$allocator@PAPAUtagMAGICATKMSG@@@std@@QAEXPAPAPAUtagMAGICATKMSG@@@Z
_TEXT	SEGMENT PARA USE32 PUBLIC 'CODE'
_TEXT	ENDS
;	COMDAT ??0const_iterator@?$deque@PAUtagACTMSG@@V?$allocator@PAUtagACTMSG@@@std@@@std@@QAE@IPBV12@@Z
_TEXT	SEGMENT PARA USE32 PUBLIC 'CODE'
_TEXT	ENDS
;	COMDAT ??0const_iterator@?$deque@PAUtagMAGICATKMSG@@V?$allocator@PAUtagMAGICATKMSG@@@std@@@std@@QAE@IPBV12@@Z
_TEXT	SEGMENT PARA USE32 PUBLIC 'CODE'
_TEXT	ENDS
;	COMDAT ?destroy@?$allocator@PAUtagACTMSG@@@std@@QAEXPAPAUtagACTMSG@@@Z
_TEXT	SEGMENT PARA USE32 PUBLIC 'CODE'
_TEXT	ENDS
;	COMDAT ?destroy@?$allocator@PAUtagMAGICATKMSG@@@std@@QAEXPAPAUtagMAGICATKMSG@@@Z
_TEXT	SEGMENT PARA USE32 PUBLIC 'CODE'
_TEXT	ENDS
;	COMDAT ??$_Iter_cat@Vconst_iterator@?$vector@EV?$allocator@E@std@@@std@@@std@@YA?AUrandom_access_iterator_tag@0@ABVconst_iterator@?$vector@EV?$allocator@E@std@@@0@@Z
_TEXT	SEGMENT PARA USE32 PUBLIC 'CODE'
_TEXT	ENDS
;	COMDAT ??$_Assign@Vconst_iterator@?$vector@EV?$allocator@E@std@@@std@@@?$vector@EV?$allocator@E@std@@@std@@QAEXVconst_iterator@01@0Uinput_iterator_tag@1@@Z
_TEXT	SEGMENT PARA USE32 PUBLIC 'CODE'
_TEXT	ENDS
;	COMDAT ??$_Iter_cat@Viterator@?$_Tree@V?$_Tmap_traits@KPAVCUser@@U?$less@K@std@@V?$allocator@U?$pair@$$CBKPAVCUser@@@std@@@3@$0A@@std@@@std@@@std@@YA?AUbidirectional_iterator_tag@0@ABViterator@?$_Tree@V?$_Tmap_traits@KPAVCUser@@U?$less@K@std@@V?$allocator@U?$pair@$$CBKPAVCUser@@@std@@@3@$0A@@std@@@0@@Z
_TEXT	SEGMENT PARA USE32 PUBLIC 'CODE'
_TEXT	ENDS
;	COMDAT ??$_Distance2@Viterator@?$_Tree@V?$_Tmap_traits@KPAVCUser@@U?$less@K@std@@V?$allocator@U?$pair@$$CBKPAVCUser@@@std@@@3@$0A@@std@@@std@@I@std@@YAXViterator@?$_Tree@V?$_Tmap_traits@KPAVCUser@@U?$less@K@std@@V?$allocator@U?$pair@$$CBKPAVCUser@@@std@@@3@$0A@@std@@@0@0AAIUbidirectional_iterator_tag@0@@Z
_TEXT	SEGMENT PARA USE32 PUBLIC 'CODE'
_TEXT	ENDS
;	COMDAT ??$_Iter_cat@Viterator@?$_Tree@V?$_Tmap_traits@KPAVCCtrl@@U?$less@K@std@@V?$allocator@U?$pair@$$CBKPAVCCtrl@@@std@@@3@$0A@@std@@@std@@@std@@YA?AUbidirectional_iterator_tag@0@ABViterator@?$_Tree@V?$_Tmap_traits@KPAVCCtrl@@U?$less@K@std@@V?$allocator@U?$pair@$$CBKPAVCCtrl@@@std@@@3@$0A@@std@@@0@@Z
_TEXT	SEGMENT PARA USE32 PUBLIC 'CODE'
_TEXT	ENDS
;	COMDAT ??$_Distance2@Viterator@?$_Tree@V?$_Tmap_traits@KPAVCCtrl@@U?$less@K@std@@V?$allocator@U?$pair@$$CBKPAVCCtrl@@@std@@@3@$0A@@std@@@std@@I@std@@YAXViterator@?$_Tree@V?$_Tmap_traits@KPAVCCtrl@@U?$less@K@std@@V?$allocator@U?$pair@$$CBKPAVCCtrl@@@std@@@3@$0A@@std@@@0@0AAIUbidirectional_iterator_tag@0@@Z
_TEXT	SEGMENT PARA USE32 PUBLIC 'CODE'
_TEXT	ENDS
;	COMDAT ??$_Uninitialized_copy@Vconst_iterator@?$vector@EV?$allocator@E@std@@@std@@PAEV?$allocator@E@3@@std@@YAPAEVconst_iterator@?$vector@EV?$allocator@E@std@@@0@0PAEAAV?$allocator@E@0@@Z
_TEXT	SEGMENT PARA USE32 PUBLIC 'CODE'
_TEXT	ENDS
;	COMDAT ??$_Iter_cat@Viterator@?$_Tree@V?$_Tmap_traits@KEU?$less@K@std@@V?$allocator@U?$pair@$$CBKE@std@@@2@$0A@@std@@@std@@@std@@YA?AUbidirectional_iterator_tag@0@ABViterator@?$_Tree@V?$_Tmap_traits@KEU?$less@K@std@@V?$allocator@U?$pair@$$CBKE@std@@@2@$0A@@std@@@0@@Z
_TEXT	SEGMENT PARA USE32 PUBLIC 'CODE'
_TEXT	ENDS
;	COMDAT ??$_Distance2@Viterator@?$_Tree@V?$_Tmap_traits@KEU?$less@K@std@@V?$allocator@U?$pair@$$CBKE@std@@@2@$0A@@std@@@std@@I@std@@YAXViterator@?$_Tree@V?$_Tmap_traits@KEU?$less@K@std@@V?$allocator@U?$pair@$$CBKE@std@@@2@$0A@@std@@@0@0AAIUbidirectional_iterator_tag@0@@Z
_TEXT	SEGMENT PARA USE32 PUBLIC 'CODE'
_TEXT	ENDS
;	COMDAT ??$_Ptr_cat@PAU__SPAWNREGION@CEventLua@@PAU12@@std@@YA?AU_Nonscalar_ptr_iterator_tag@0@AAPAU__SPAWNREGION@CEventLua@@0@Z
_TEXT	SEGMENT PARA USE32 PUBLIC 'CODE'
_TEXT	ENDS
;	COMDAT ??$_Uninit_fill_n@PAU__SPAWNREGION@CEventLua@@IU12@V?$allocator@U__SPAWNREGION@CEventLua@@@std@@@std@@YAXPAU__SPAWNREGION@CEventLua@@IABU12@AAV?$allocator@U__SPAWNREGION@CEventLua@@@0@U_Nonscalar_ptr_iterator_tag@0@@Z
_TEXT	SEGMENT PARA USE32 PUBLIC 'CODE'
_TEXT	ENDS
;	COMDAT ??$_Copy_opt@PAJPAJ@std@@YAPAJPAJ00U_Scalar_ptr_iterator_tag@0@@Z
_TEXT	SEGMENT PARA USE32 PUBLIC 'CODE'
_TEXT	ENDS
;	COMDAT ??$_Uninitialized_copy@PAJPAJV?$allocator@J@std@@@std@@YAPAJPAJ00AAV?$allocator@J@0@@Z
_TEXT	SEGMENT PARA USE32 PUBLIC 'CODE'
_TEXT	ENDS
;	COMDAT ??$_Copy_backward_opt@PAJPAJ@std@@YAPAJPAJ00U_Scalar_ptr_iterator_tag@0@@Z
_TEXT	SEGMENT PARA USE32 PUBLIC 'CODE'
_TEXT	ENDS
;	COMDAT ??$_Ptr_cat@PAUtagDROPITEM@@PAU1@@std@@YA?AU_Nonscalar_ptr_iterator_tag@0@AAPAUtagDROPITEM@@0@Z
_TEXT	SEGMENT PARA USE32 PUBLIC 'CODE'
_TEXT	ENDS
;	COMDAT ??$_Destroy_range@UtagDROPITEM@@V?$allocator@UtagDROPITEM@@@std@@@std@@YAXPAUtagDROPITEM@@0AAV?$allocator@UtagDROPITEM@@@0@U_Nonscalar_ptr_iterator_tag@0@@Z
_TEXT	SEGMENT PARA USE32 PUBLIC 'CODE'
_TEXT	ENDS
;	COMDAT ??$_Ptr_cat@PAUWORMON@@PAU1@@std@@YA?AU_Nonscalar_ptr_iterator_tag@0@AAPAUWORMON@@0@Z
_TEXT	SEGMENT PARA USE32 PUBLIC 'CODE'
_TEXT	ENDS
;	COMDAT ??$_Destroy_range@UWORMON@@V?$allocator@UWORMON@@@std@@@std@@YAXPAUWORMON@@0AAV?$allocator@UWORMON@@@0@U_Nonscalar_ptr_iterator_tag@0@@Z
_TEXT	SEGMENT PARA USE32 PUBLIC 'CODE'
_TEXT	ENDS
;	COMDAT ??$_Ptr_cat@PAU__ITEMGAME@CMiniGame@@PAU12@@std@@YA?AU_Nonscalar_ptr_iterator_tag@0@AAPAU__ITEMGAME@CMiniGame@@0@Z
_TEXT	SEGMENT PARA USE32 PUBLIC 'CODE'
_TEXT	ENDS
;	COMDAT ??$_Destroy_range@U__ITEMGAME@CMiniGame@@V?$allocator@U__ITEMGAME@CMiniGame@@@std@@@std@@YAXPAU__ITEMGAME@CMiniGame@@0AAV?$allocator@U__ITEMGAME@CMiniGame@@@0@U_Nonscalar_ptr_iterator_tag@0@@Z
_TEXT	SEGMENT PARA USE32 PUBLIC 'CODE'
_TEXT	ENDS
;	COMDAT ??$_Destroy_range@KV?$allocator@K@std@@@std@@YAXPAK0AAV?$allocator@K@0@U_Scalar_ptr_iterator_tag@0@@Z
_TEXT	SEGMENT PARA USE32 PUBLIC 'CODE'
_TEXT	ENDS
;	COMDAT ??$_Destroy_range@HV?$allocator@H@std@@@std@@YAXPAH0AAV?$allocator@H@0@U_Scalar_ptr_iterator_tag@0@@Z
_TEXT	SEGMENT PARA USE32 PUBLIC 'CODE'
_TEXT	ENDS
;	COMDAT ??$_Ptr_cat@PAU__ITEM@CExchange@@PAU12@@std@@YA?AU_Nonscalar_ptr_iterator_tag@0@AAPAU__ITEM@CExchange@@0@Z
_TEXT	SEGMENT PARA USE32 PUBLIC 'CODE'
_TEXT	ENDS
;	COMDAT ??$_Destroy_range@U__ITEM@CExchange@@V?$allocator@U__ITEM@CExchange@@@std@@@std@@YAXPAU__ITEM@CExchange@@0AAV?$allocator@U__ITEM@CExchange@@@0@U_Nonscalar_ptr_iterator_tag@0@@Z
_TEXT	SEGMENT PARA USE32 PUBLIC 'CODE'
_TEXT	ENDS
;	COMDAT ??$_Ptr_cat@PAU__POINT@CExchange@@PAU12@@std@@YA?AU_Nonscalar_ptr_iterator_tag@0@AAPAU__POINT@CExchange@@0@Z
_TEXT	SEGMENT PARA USE32 PUBLIC 'CODE'
_TEXT	ENDS
;	COMDAT ??$_Destroy_range@U__POINT@CExchange@@V?$allocator@U__POINT@CExchange@@@std@@@std@@YAXPAU__POINT@CExchange@@0AAV?$allocator@U__POINT@CExchange@@@0@U_Nonscalar_ptr_iterator_tag@0@@Z
_TEXT	SEGMENT PARA USE32 PUBLIC 'CODE'
_TEXT	ENDS
;	COMDAT ??$_Destroy_range@EV?$allocator@E@std@@@std@@YAXPAE0AAV?$allocator@E@0@U_Scalar_ptr_iterator_tag@0@@Z
_TEXT	SEGMENT PARA USE32 PUBLIC 'CODE'
_TEXT	ENDS
;	COMDAT ??$_Uninitialized_copy@PAU__SPAWNREGION@CEventLua@@PAU12@V?$allocator@U__SPAWNREGION@CEventLua@@@std@@@std@@YAPAU__SPAWNREGION@CEventLua@@PAU12@00AAV?$allocator@U__SPAWNREGION@CEventLua@@@0@@Z
_TEXT	SEGMENT PARA USE32 PUBLIC 'CODE'
_TEXT	ENDS
;	COMDAT ??$_Copy_backward_opt@PAU__SPAWNREGION@CEventLua@@PAU12@@std@@YAPAU__SPAWNREGION@CEventLua@@PAU12@00U_Nonscalar_ptr_iterator_tag@0@@Z
_TEXT	SEGMENT PARA USE32 PUBLIC 'CODE'
_TEXT	ENDS
;	COMDAT ??$_Ptr_cat@PAUD3DXVECTOR3@@PAU1@@std@@YA?AU_Nonscalar_ptr_iterator_tag@0@AAPAUD3DXVECTOR3@@0@Z
_TEXT	SEGMENT PARA USE32 PUBLIC 'CODE'
_TEXT	ENDS
;	COMDAT ??$_Destroy_range@UD3DXVECTOR3@@V?$allocator@UD3DXVECTOR3@@@std@@@std@@YAXPAUD3DXVECTOR3@@0AAV?$allocator@UD3DXVECTOR3@@@0@U_Nonscalar_ptr_iterator_tag@0@@Z
_TEXT	SEGMENT PARA USE32 PUBLIC 'CODE'
_TEXT	ENDS
;	COMDAT ??$_Ptr_cat@PAU_GIFTBOX@@PAU1@@std@@YA?AU_Nonscalar_ptr_iterator_tag@0@AAPAU_GIFTBOX@@0@Z
_TEXT	SEGMENT PARA USE32 PUBLIC 'CODE'
_TEXT	ENDS
;	COMDAT ??$_Destroy_range@U_GIFTBOX@@V?$allocator@U_GIFTBOX@@@std@@@std@@YAXPAU_GIFTBOX@@0AAV?$allocator@U_GIFTBOX@@@0@U_Nonscalar_ptr_iterator_tag@0@@Z
_TEXT	SEGMENT PARA USE32 PUBLIC 'CODE'
_TEXT	ENDS
;	COMDAT ??$_Destroy_range@JV?$allocator@J@std@@@std@@YAXPAJ0AAV?$allocator@J@0@U_Scalar_ptr_iterator_tag@0@@Z
_TEXT	SEGMENT PARA USE32 PUBLIC 'CODE'
_TEXT	ENDS
;	COMDAT ??$_Uninit_fill_n@JIJ@std@@YAXPAJIABJAAV?$allocator@J@0@U_Scalar_ptr_iterator_tag@0@@Z
_TEXT	SEGMENT PARA USE32 PUBLIC 'CODE'
_TEXT	ENDS
;	COMDAT ??$_Destroy_range@U__SPAWNREGION@CEventLua@@V?$allocator@U__SPAWNREGION@CEventLua@@@std@@@std@@YAXPAU__SPAWNREGION@CEventLua@@0AAV?$allocator@U__SPAWNREGION@CEventLua@@@0@U_Nonscalar_ptr_iterator_tag@0@@Z
_TEXT	SEGMENT PARA USE32 PUBLIC 'CODE'
_TEXT	ENDS
;	COMDAT ??$?0PAUtagACTMSG@@@?$allocator@PAPAUtagACTMSG@@@std@@QAE@ABV?$allocator@PAUtagACTMSG@@@1@@Z
_TEXT	SEGMENT PARA USE32 PUBLIC 'CODE'
_TEXT	ENDS
;	COMDAT ??$_Destroy@PAPAUtagACTMSG@@@std@@YAXPAPAPAUtagACTMSG@@@Z
_TEXT	SEGMENT PARA USE32 PUBLIC 'CODE'
_TEXT	ENDS
;	COMDAT ??$?0PAUtagMAGICATKMSG@@@?$allocator@PAPAUtagMAGICATKMSG@@@std@@QAE@ABV?$allocator@PAUtagMAGICATKMSG@@@1@@Z
_TEXT	SEGMENT PARA USE32 PUBLIC 'CODE'
_TEXT	ENDS
;	COMDAT ??$_Destroy@PAPAUtagMAGICATKMSG@@@std@@YAXPAPAPAUtagMAGICATKMSG@@@Z
_TEXT	SEGMENT PARA USE32 PUBLIC 'CODE'
_TEXT	ENDS
;	COMDAT ??$_Destroy@PAUtagACTMSG@@@std@@YAXPAPAUtagACTMSG@@@Z
_TEXT	SEGMENT PARA USE32 PUBLIC 'CODE'
_TEXT	ENDS
;	COMDAT ??$_Destroy@PAUtagMAGICATKMSG@@@std@@YAXPAPAUtagMAGICATKMSG@@@Z
_TEXT	SEGMENT PARA USE32 PUBLIC 'CODE'
_TEXT	ENDS
;	COMDAT ?destroy@?$allocator@UtagDROPITEM@@@std@@QAEXPAUtagDROPITEM@@@Z
_TEXT	SEGMENT PARA USE32 PUBLIC 'CODE'
_TEXT	ENDS
;	COMDAT ?destroy@?$allocator@UWORMON@@@std@@QAEXPAUWORMON@@@Z
_TEXT	SEGMENT PARA USE32 PUBLIC 'CODE'
_TEXT	ENDS
;	COMDAT ?destroy@?$allocator@U__ITEMGAME@CMiniGame@@@std@@QAEXPAU__ITEMGAME@CMiniGame@@@Z
_TEXT	SEGMENT PARA USE32 PUBLIC 'CODE'
_TEXT	ENDS
;	COMDAT ?destroy@?$allocator@U__ITEM@CExchange@@@std@@QAEXPAU__ITEM@CExchange@@@Z
_TEXT	SEGMENT PARA USE32 PUBLIC 'CODE'
_TEXT	ENDS
;	COMDAT ?destroy@?$allocator@U__POINT@CExchange@@@std@@QAEXPAU__POINT@CExchange@@@Z
_TEXT	SEGMENT PARA USE32 PUBLIC 'CODE'
_TEXT	ENDS
;	COMDAT ?begin@?$vector@EV?$allocator@E@std@@@std@@QAE?AViterator@12@XZ
_TEXT	SEGMENT PARA USE32 PUBLIC 'CODE'
_TEXT	ENDS
;	COMDAT ?end@?$vector@EV?$allocator@E@std@@@std@@QAE?AViterator@12@XZ
_TEXT	SEGMENT PARA USE32 PUBLIC 'CODE'
_TEXT	ENDS
;	COMDAT ?erase@?$vector@EV?$allocator@E@std@@@std@@QAE?AViterator@12@V312@0@Z
_TEXT	SEGMENT PARA USE32 PUBLIC 'CODE'
_TEXT	ENDS
;	COMDAT ?construct@?$allocator@U__SPAWNREGION@CEventLua@@@std@@QAEXPAU__SPAWNREGION@CEventLua@@ABU34@@Z
_TEXT	SEGMENT PARA USE32 PUBLIC 'CODE'
_TEXT	ENDS
;	COMDAT ?destroy@?$allocator@U__SPAWNREGION@CEventLua@@@std@@QAEXPAU__SPAWNREGION@CEventLua@@@Z
_TEXT	SEGMENT PARA USE32 PUBLIC 'CODE'
_TEXT	ENDS
;	COMDAT ?destroy@?$allocator@UD3DXVECTOR3@@@std@@QAEXPAUD3DXVECTOR3@@@Z
_TEXT	SEGMENT PARA USE32 PUBLIC 'CODE'
_TEXT	ENDS
;	COMDAT ?destroy@?$allocator@U_GIFTBOX@@@std@@QAEXPAU_GIFTBOX@@@Z
_TEXT	SEGMENT PARA USE32 PUBLIC 'CODE'
_TEXT	ENDS
;	COMDAT ??9const_iterator@?$vector@EV?$allocator@E@std@@@std@@QBE_NABV012@@Z
_TEXT	SEGMENT PARA USE32 PUBLIC 'CODE'
_TEXT	ENDS
;	COMDAT ??0iterator@?$vector@EV?$allocator@E@std@@@std@@QAE@PAE@Z
_TEXT	SEGMENT PARA USE32 PUBLIC 'CODE'
_TEXT	ENDS
;	COMDAT ??8const_iterator@?$vector@EV?$allocator@E@std@@@std@@QBE_NABV012@@Z
_TEXT	SEGMENT PARA USE32 PUBLIC 'CODE'
_TEXT	ENDS
;	COMDAT ??$insert@Vconst_iterator@?$vector@EV?$allocator@E@std@@@std@@@?$vector@EV?$allocator@E@std@@@std@@QAEXViterator@01@Vconst_iterator@01@1@Z
_TEXT	SEGMENT PARA USE32 PUBLIC 'CODE'
_TEXT	ENDS
;	COMDAT ??$_Ptr_cat@Vconst_iterator@?$vector@EV?$allocator@E@std@@@std@@PAE@std@@YA?AU_Nonscalar_ptr_iterator_tag@0@AAVconst_iterator@?$vector@EV?$allocator@E@std@@@0@AAPAE@Z
_TEXT	SEGMENT PARA USE32 PUBLIC 'CODE'
_TEXT	ENDS
;	COMDAT ??$_Uninit_copy@Vconst_iterator@?$vector@EV?$allocator@E@std@@@std@@PAEV?$allocator@E@3@@std@@YAPAEVconst_iterator@?$vector@EV?$allocator@E@std@@@0@0PAEAAV?$allocator@E@0@U_Nonscalar_ptr_iterator_tag@0@@Z
_TEXT	SEGMENT PARA USE32 PUBLIC 'CODE'
_TEXT	ENDS
;	COMDAT ??$_Uninit_copy@JJ@std@@YAPAJPAJ00AAV?$allocator@J@0@U_Scalar_ptr_iterator_tag@0@@Z
_TEXT	SEGMENT PARA USE32 PUBLIC 'CODE'
_TEXT	ENDS
;	COMDAT ??$_Uninit_copy@PAU__SPAWNREGION@CEventLua@@PAU12@V?$allocator@U__SPAWNREGION@CEventLua@@@std@@@std@@YAPAU__SPAWNREGION@CEventLua@@PAU12@00AAV?$allocator@U__SPAWNREGION@CEventLua@@@0@U_Nonscalar_ptr_iterator_tag@0@@Z
_TEXT	SEGMENT PARA USE32 PUBLIC 'CODE'
_TEXT	ENDS
;	COMDAT ??$fill_n@PAJIJ@std@@YAXPAJIABJ@Z
_TEXT	SEGMENT PARA USE32 PUBLIC 'CODE'
_TEXT	ENDS
;	COMDAT ??$_Destroy@UtagDROPITEM@@@std@@YAXPAUtagDROPITEM@@@Z
_TEXT	SEGMENT PARA USE32 PUBLIC 'CODE'
_TEXT	ENDS
;	COMDAT ??$_Destroy@UWORMON@@@std@@YAXPAUWORMON@@@Z
_TEXT	SEGMENT PARA USE32 PUBLIC 'CODE'
_TEXT	ENDS
;	COMDAT ??$_Destroy@U__ITEMGAME@CMiniGame@@@std@@YAXPAU__ITEMGAME@CMiniGame@@@Z
_TEXT	SEGMENT PARA USE32 PUBLIC 'CODE'
_TEXT	ENDS
;	COMDAT ??$_Destroy@U__ITEM@CExchange@@@std@@YAXPAU__ITEM@CExchange@@@Z
_TEXT	SEGMENT PARA USE32 PUBLIC 'CODE'
_TEXT	ENDS
;	COMDAT ??$_Destroy@U__POINT@CExchange@@@std@@YAXPAU__POINT@CExchange@@@Z
_TEXT	SEGMENT PARA USE32 PUBLIC 'CODE'
_TEXT	ENDS
;	COMDAT ??$copy@PAEPAE@std@@YAPAEPAE00@Z
_TEXT	SEGMENT PARA USE32 PUBLIC 'CODE'
_TEXT	ENDS
;	COMDAT ??$_Construct@U__SPAWNREGION@CEventLua@@U12@@std@@YAXPAU__SPAWNREGION@CEventLua@@ABU12@@Z
_TEXT	SEGMENT PARA USE32 PUBLIC 'CODE'
_TEXT	ENDS
;	COMDAT ??$_Destroy@U__SPAWNREGION@CEventLua@@@std@@YAXPAU__SPAWNREGION@CEventLua@@@Z
_TEXT	SEGMENT PARA USE32 PUBLIC 'CODE'
_TEXT	ENDS
;	COMDAT ??$_Destroy@UD3DXVECTOR3@@@std@@YAXPAUD3DXVECTOR3@@@Z
_TEXT	SEGMENT PARA USE32 PUBLIC 'CODE'
_TEXT	ENDS
;	COMDAT ??$_Destroy@U_GIFTBOX@@@std@@YAXPAU_GIFTBOX@@@Z
_TEXT	SEGMENT PARA USE32 PUBLIC 'CODE'
_TEXT	ENDS
;	COMDAT ?construct@?$allocator@E@std@@QAEXPAEABE@Z
_TEXT	SEGMENT PARA USE32 PUBLIC 'CODE'
_TEXT	ENDS
;	COMDAT ?destroy@?$allocator@E@std@@QAEXPAE@Z
_TEXT	SEGMENT PARA USE32 PUBLIC 'CODE'
_TEXT	ENDS
;	COMDAT ??Dconst_iterator@?$vector@EV?$allocator@E@std@@@std@@QBEABEXZ
_TEXT	SEGMENT PARA USE32 PUBLIC 'CODE'
_TEXT	ENDS
;	COMDAT ??Econst_iterator@?$vector@EV?$allocator@E@std@@@std@@QAEAAV012@XZ
_TEXT	SEGMENT PARA USE32 PUBLIC 'CODE'
_TEXT	ENDS
;	COMDAT ??$_Insert@Vconst_iterator@?$vector@EV?$allocator@E@std@@@std@@@?$vector@EV?$allocator@E@std@@@std@@QAEXViterator@01@Vconst_iterator@01@1Uforward_iterator_tag@1@@Z
_TEXT	SEGMENT PARA USE32 PUBLIC 'CODE'
_TEXT	ENDS
;	COMDAT ??$_Copy_opt@PAEPAE@std@@YAPAEPAE00U_Scalar_ptr_iterator_tag@0@@Z
_TEXT	SEGMENT PARA USE32 PUBLIC 'CODE'
_TEXT	ENDS
;	COMDAT ??$_Construct@EE@std@@YAXPAEABE@Z
_TEXT	SEGMENT PARA USE32 PUBLIC 'CODE'
_TEXT	ENDS
;	COMDAT ??$_Destroy@E@std@@YAXPAE@Z
_TEXT	SEGMENT PARA USE32 PUBLIC 'CODE'
_TEXT	ENDS
;	COMDAT ?capacity@?$vector@EV?$allocator@E@std@@@std@@QBEIXZ
_TEXT	SEGMENT PARA USE32 PUBLIC 'CODE'
_TEXT	ENDS
;	COMDAT ??Giterator@?$vector@EV?$allocator@E@std@@@std@@QBEHABVconst_iterator@12@@Z
_TEXT	SEGMENT PARA USE32 PUBLIC 'CODE'
_TEXT	ENDS
;	COMDAT ??Gconst_iterator@?$vector@EV?$allocator@E@std@@@std@@QBEHABV012@@Z
_TEXT	SEGMENT PARA USE32 PUBLIC 'CODE'
_TEXT	ENDS
;	COMDAT ??$_Distance@Vconst_iterator@?$vector@EV?$allocator@E@std@@@std@@I@std@@YAXVconst_iterator@?$vector@EV?$allocator@E@std@@@0@0AAI@Z
_TEXT	SEGMENT PARA USE32 PUBLIC 'CODE'
_TEXT	ENDS
;	COMDAT ??$_Ucopy@PAE@?$vector@EV?$allocator@E@std@@@std@@IAEPAEPAE00@Z
_TEXT	SEGMENT PARA USE32 PUBLIC 'CODE'
_TEXT	ENDS
;	COMDAT ??$advance@Vconst_iterator@?$vector@EV?$allocator@E@std@@@std@@H@std@@YAXAAVconst_iterator@?$vector@EV?$allocator@E@std@@@0@H@Z
_TEXT	SEGMENT PARA USE32 PUBLIC 'CODE'
_TEXT	ENDS
;	COMDAT ??$copy@Vconst_iterator@?$vector@EV?$allocator@E@std@@@std@@PAE@std@@YAPAEVconst_iterator@?$vector@EV?$allocator@E@std@@@0@0PAE@Z
_TEXT	SEGMENT PARA USE32 PUBLIC 'CODE'
_TEXT	ENDS
;	COMDAT ??$copy_backward@PAEPAE@std@@YAPAEPAE00@Z
_TEXT	SEGMENT PARA USE32 PUBLIC 'CODE'
_TEXT	ENDS
;	COMDAT ??$_Distance2@Vconst_iterator@?$vector@EV?$allocator@E@std@@@std@@I@std@@YAXVconst_iterator@?$vector@EV?$allocator@E@std@@@0@0AAIUrandom_access_iterator_tag@0@@Z
_TEXT	SEGMENT PARA USE32 PUBLIC 'CODE'
_TEXT	ENDS
;	COMDAT ??$_Uninitialized_copy@PAEPAEV?$allocator@E@std@@@std@@YAPAEPAE00AAV?$allocator@E@0@@Z
_TEXT	SEGMENT PARA USE32 PUBLIC 'CODE'
_TEXT	ENDS
;	COMDAT ??$_Advance@Vconst_iterator@?$vector@EV?$allocator@E@std@@@std@@H@std@@YAXAAVconst_iterator@?$vector@EV?$allocator@E@std@@@0@HUrandom_access_iterator_tag@0@@Z
_TEXT	SEGMENT PARA USE32 PUBLIC 'CODE'
_TEXT	ENDS
;	COMDAT ??$_Copy_opt@Vconst_iterator@?$vector@EV?$allocator@E@std@@@std@@PAE@std@@YAPAEVconst_iterator@?$vector@EV?$allocator@E@std@@@0@0PAEU_Nonscalar_ptr_iterator_tag@0@@Z
_TEXT	SEGMENT PARA USE32 PUBLIC 'CODE'
_TEXT	ENDS
;	COMDAT ??$_Copy_backward_opt@PAEPAE@std@@YAPAEPAE00U_Scalar_ptr_iterator_tag@0@@Z
_TEXT	SEGMENT PARA USE32 PUBLIC 'CODE'
_TEXT	ENDS
;	COMDAT ??Yconst_iterator@?$vector@EV?$allocator@E@std@@@std@@QAEAAV012@H@Z
_TEXT	SEGMENT PARA USE32 PUBLIC 'CODE'
_TEXT	ENDS
;	COMDAT ??$_Uninit_copy@EE@std@@YAPAEPAE00AAV?$allocator@E@0@U_Scalar_ptr_iterator_tag@0@@Z
_TEXT	SEGMENT PARA USE32 PUBLIC 'CODE'
_TEXT	ENDS
;	COMDAT ?deallocate@?$allocator@E@std@@QAEXPAEI@Z
_TEXT	SEGMENT PARA USE32 PUBLIC 'CODE'
_TEXT	ENDS
;	COMDAT ??$_Ucopy@Vconst_iterator@?$vector@EV?$allocator@E@std@@@std@@@?$vector@EV?$allocator@E@std@@@std@@IAEPAEVconst_iterator@01@0PAE@Z
_TEXT	SEGMENT PARA USE32 PUBLIC 'CODE'
_TEXT	ENDS
;	COMDAT ?allocate@?$allocator@E@std@@QAEPAEI@Z
_TEXT	SEGMENT PARA USE32 PUBLIC 'CODE'
_TEXT	ENDS
;	COMDAT ??$_Allocate@E@std@@YAPAEIPAE@Z
_TEXT	SEGMENT PARA USE32 PUBLIC 'CODE'
_TEXT	ENDS
;	COMDAT ?_Xlen@?$vector@EV?$allocator@E@std@@@std@@IBEXXZ
_TEXT	SEGMENT PARA USE32 PUBLIC 'CODE'
_TEXT	ENDS
;	COMDAT ??0length_error@std@@QAE@ABV?$basic_string@DU?$char_traits@D@std@@V?$allocator@D@2@@1@@Z
_TEXT	SEGMENT PARA USE32 PUBLIC 'CODE'
_TEXT	ENDS
;	COMDAT ??0logic_error@std@@QAE@ABV?$basic_string@DU?$char_traits@D@std@@V?$allocator@D@2@@1@@Z
_TEXT	SEGMENT PARA USE32 PUBLIC 'CODE'
_TEXT	ENDS
;	COMDAT ??_7logic_error@std@@6B@
CONST	SEGMENT DWORD USE32 PUBLIC 'CONST'
CONST	ENDS
;	COMDAT ??_Glogic_error@std@@UAEPAXI@Z
_TEXT	SEGMENT PARA USE32 PUBLIC 'CODE'
_TEXT	ENDS
;	COMDAT ?what@logic_error@std@@UBEPBDXZ
_TEXT	SEGMENT PARA USE32 PUBLIC 'CODE'
_TEXT	ENDS
;	COMDAT ?c_str@?$basic_string@DU?$char_traits@D@std@@V?$allocator@D@2@@std@@QBEPBDXZ
_TEXT	SEGMENT PARA USE32 PUBLIC 'CODE'
_TEXT	ENDS
;	COMDAT ??0?$basic_string@DU?$char_traits@D@std@@V?$allocator@D@2@@std@@QAE@ABV01@@Z
_TEXT	SEGMENT PARA USE32 PUBLIC 'CODE'
_TEXT	ENDS
;	COMDAT ??0?$_String_val@DV?$allocator@D@std@@@std@@IAE@V?$allocator@D@1@@Z
_TEXT	SEGMENT PARA USE32 PUBLIC 'CODE'
_TEXT	ENDS
;	COMDAT ??0?$allocator@D@std@@QAE@ABV01@@Z
_TEXT	SEGMENT PARA USE32 PUBLIC 'CODE'
_TEXT	ENDS
;	COMDAT ?_Tidy@?$basic_string@DU?$char_traits@D@std@@V?$allocator@D@2@@std@@IAEX_NI@Z
_TEXT	SEGMENT PARA USE32 PUBLIC 'CODE'
_TEXT	ENDS
;	COMDAT ?copy@?$char_traits@D@std@@SAPADPADPBDI@Z
_TEXT	SEGMENT PARA USE32 PUBLIC 'CODE'
_TEXT	ENDS
;	COMDAT ?deallocate@?$allocator@D@std@@QAEXPADI@Z
_TEXT	SEGMENT PARA USE32 PUBLIC 'CODE'
_TEXT	ENDS
;	COMDAT ?_Eos@?$basic_string@DU?$char_traits@D@std@@V?$allocator@D@2@@std@@IAEXI@Z
_TEXT	SEGMENT PARA USE32 PUBLIC 'CODE'
_TEXT	ENDS
;	COMDAT ?assign@?$char_traits@D@std@@SAXAADABD@Z
_TEXT	SEGMENT PARA USE32 PUBLIC 'CODE'
_TEXT	ENDS
;	COMDAT ?_Myptr@?$basic_string@DU?$char_traits@D@std@@V?$allocator@D@2@@std@@QAEPADXZ
_TEXT	SEGMENT PARA USE32 PUBLIC 'CODE'
_TEXT	ENDS
;	COMDAT ?assign@?$basic_string@DU?$char_traits@D@std@@V?$allocator@D@2@@std@@QAEAAV12@ABV12@II@Z
_TEXT	SEGMENT PARA USE32 PUBLIC 'CODE'
_TEXT	ENDS
;	COMDAT ?erase@?$basic_string@DU?$char_traits@D@std@@V?$allocator@D@2@@std@@QAEAAV12@II@Z
_TEXT	SEGMENT PARA USE32 PUBLIC 'CODE'
_TEXT	ENDS
;	COMDAT ?move@?$char_traits@D@std@@SAPADPADPBDI@Z
_TEXT	SEGMENT PARA USE32 PUBLIC 'CODE'
_TEXT	ENDS
;	COMDAT ?_Grow@?$basic_string@DU?$char_traits@D@std@@V?$allocator@D@2@@std@@IAE_NI_N@Z
_TEXT	SEGMENT PARA USE32 PUBLIC 'CODE'
_TEXT	ENDS
;	COMDAT ?max_size@?$basic_string@DU?$char_traits@D@std@@V?$allocator@D@2@@std@@QBEIXZ
_TEXT	SEGMENT PARA USE32 PUBLIC 'CODE'
_TEXT	ENDS
;	COMDAT ?max_size@?$allocator@D@std@@QBEIXZ
_TEXT	SEGMENT PARA USE32 PUBLIC 'CODE'
_TEXT	ENDS
;	COMDAT ?_Copy@?$basic_string@DU?$char_traits@D@std@@V?$allocator@D@2@@std@@IAEXII@Z
_TEXT	SEGMENT PARA USE32 PUBLIC 'CODE'
_TEXT	ENDS
;	COMDAT ?allocate@?$allocator@D@std@@QAEPADI@Z
_TEXT	SEGMENT PARA USE32 PUBLIC 'CODE'
_TEXT	ENDS
;	COMDAT ??$_Allocate@D@std@@YAPADIPAD@Z
_TEXT	SEGMENT PARA USE32 PUBLIC 'CODE'
_TEXT	ENDS
;	COMDAT ?npos@?$basic_string@DU?$char_traits@D@std@@V?$allocator@D@2@@std@@2IB
CONST	SEGMENT DWORD USE32 PUBLIC 'CONST'
CONST	ENDS
;	COMDAT ??1logic_error@std@@UAE@XZ
_TEXT	SEGMENT PARA USE32 PUBLIC 'CODE'
_TEXT	ENDS
;	COMDAT ??_7length_error@std@@6B@
CONST	SEGMENT DWORD USE32 PUBLIC 'CONST'
CONST	ENDS
;	COMDAT ??_Glength_error@std@@UAEPAXI@Z
_TEXT	SEGMENT PARA USE32 PUBLIC 'CODE'
_TEXT	ENDS
;	COMDAT ??1length_error@std@@UAE@XZ
_TEXT	SEGMENT PARA USE32 PUBLIC 'CODE'
_TEXT	ENDS
;	COMDAT ??0?$basic_string@DU?$char_traits@D@std@@V?$allocator@D@2@@std@@QAE@PBD@Z
_TEXT	SEGMENT PARA USE32 PUBLIC 'CODE'
_TEXT	ENDS
;	COMDAT ??0?$allocator@D@std@@QAE@XZ
_TEXT	SEGMENT PARA USE32 PUBLIC 'CODE'
_TEXT	ENDS
;	COMDAT ?assign@?$basic_string@DU?$char_traits@D@std@@V?$allocator@D@2@@std@@QAEAAV12@PBD@Z
_TEXT	SEGMENT PARA USE32 PUBLIC 'CODE'
_TEXT	ENDS
;	COMDAT ?assign@?$basic_string@DU?$char_traits@D@std@@V?$allocator@D@2@@std@@QAEAAV12@PBDI@Z
_TEXT	SEGMENT PARA USE32 PUBLIC 'CODE'
_TEXT	ENDS
;	COMDAT ?_Inside@?$basic_string@DU?$char_traits@D@std@@V?$allocator@D@2@@std@@IAE_NPBD@Z
_TEXT	SEGMENT PARA USE32 PUBLIC 'CODE'
_TEXT	ENDS
;	COMDAT ?length@?$char_traits@D@std@@SAIPBD@Z
_TEXT	SEGMENT PARA USE32 PUBLIC 'CODE'
_TEXT	ENDS
;	COMDAT ??_C@_0BD@OLBABOEK@vector?$DMT?$DO?5too?5long?$AA@
CONST	SEGMENT DWORD USE32 PUBLIC 'CONST'
CONST	ENDS
;	COMDAT ??1?$basic_string@DU?$char_traits@D@std@@V?$allocator@D@2@@std@@QAE@XZ
_TEXT	SEGMENT PARA USE32 PUBLIC 'CODE'
_TEXT	ENDS
;	COMDAT __TI3?AVlength_error@std@@
xdata$x	SEGMENT DWORD USE32 PUBLIC 'CONST'
xdata$x	ENDS
;	COMDAT __CTA3?AVlength_error@std@@
xdata$x	SEGMENT DWORD USE32 PUBLIC 'CONST'
xdata$x	ENDS
;	COMDAT __CT??_R0?AVlength_error@std@@@8??0length_error@std@@QAE@ABV01@@Z40
xdata$x	SEGMENT DWORD USE32 PUBLIC 'CONST'
xdata$x	ENDS
;	COMDAT ??_R0?AVlength_error@std@@@8
_DATA	SEGMENT DWORD USE32 PUBLIC 'DATA'
_DATA	ENDS
;	COMDAT ??0length_error@std@@QAE@ABV01@@Z
_TEXT	SEGMENT PARA USE32 PUBLIC 'CODE'
_TEXT	ENDS
;	COMDAT ??0logic_error@std@@QAE@ABV01@@Z
_TEXT	SEGMENT PARA USE32 PUBLIC 'CODE'
_TEXT	ENDS
;	COMDAT __CT??_R0?AVlogic_error@std@@@8??0logic_error@std@@QAE@ABV01@@Z40
xdata$x	SEGMENT DWORD USE32 PUBLIC 'CONST'
xdata$x	ENDS
;	COMDAT ??_R0?AVlogic_error@std@@@8
_DATA	SEGMENT DWORD USE32 PUBLIC 'DATA'
_DATA	ENDS
;	COMDAT __CT??_R0?AVexception@@@8??0exception@@QAE@ABV0@@Z12
xdata$x	SEGMENT DWORD USE32 PUBLIC 'CONST'
xdata$x	ENDS
;	COMDAT ??_R0?AVexception@@@8
_DATA	SEGMENT DWORD USE32 PUBLIC 'DATA'
_DATA	ENDS
;	COMDAT ?size@?$vector@EV?$allocator@E@std@@@std@@QBEIXZ
_TEXT	SEGMENT PARA USE32 PUBLIC 'CODE'
_TEXT	ENDS
;	COMDAT ?max_size@?$vector@EV?$allocator@E@std@@@std@@QBEIXZ
_TEXT	SEGMENT PARA USE32 PUBLIC 'CODE'
_TEXT	ENDS
;	COMDAT ?max_size@?$allocator@E@std@@QBEIXZ
_TEXT	SEGMENT PARA USE32 PUBLIC 'CODE'
_TEXT	ENDS
;	COMDAT ??2@YAPAXIPAX@Z
_TEXT	SEGMENT PARA USE32 PUBLIC 'CODE'
_TEXT	ENDS
;	COMDAT ?_Ptr_cat@std@@YA?AU_Scalar_ptr_iterator_tag@1@PAE0@Z
_TEXT	SEGMENT PARA USE32 PUBLIC 'CODE'
_TEXT	ENDS
;	COMDAT ??0const_iterator@?$vector@EV?$allocator@E@std@@@std@@QAE@PAE@Z
_TEXT	SEGMENT PARA USE32 PUBLIC 'CODE'
_TEXT	ENDS
;	COMDAT ?_Destroy@?$vector@EV?$allocator@E@std@@@std@@IAEXPAE0@Z
_TEXT	SEGMENT PARA USE32 PUBLIC 'CODE'
_TEXT	ENDS
;	COMDAT ??$_Destroy_range@EV?$allocator@E@std@@@std@@YAXPAE0AAV?$allocator@E@0@@Z
_TEXT	SEGMENT PARA USE32 PUBLIC 'CODE'
_TEXT	ENDS
;	COMDAT ?_Ptr_cat@std@@YA?AU_Scalar_ptr_iterator_tag@1@PAJ0@Z
_TEXT	SEGMENT PARA USE32 PUBLIC 'CODE'
_TEXT	ENDS
;	COMDAT ??9const_iterator@?$_Tree@V?$_Tmap_traits@KEU?$less@K@std@@V?$allocator@U?$pair@$$CBKE@std@@@2@$0A@@std@@@std@@QBE_NABV012@@Z
_TEXT	SEGMENT PARA USE32 PUBLIC 'CODE'
_TEXT	ENDS
;	COMDAT ??8const_iterator@?$_Tree@V?$_Tmap_traits@KEU?$less@K@std@@V?$allocator@U?$pair@$$CBKE@std@@@2@$0A@@std@@@std@@QBE_NABV012@@Z
_TEXT	SEGMENT PARA USE32 PUBLIC 'CODE'
_TEXT	ENDS
;	COMDAT ??Eiterator@?$_Tree@V?$_Tmap_traits@KEU?$less@K@std@@V?$allocator@U?$pair@$$CBKE@std@@@2@$0A@@std@@@std@@QAEAAV012@XZ
_TEXT	SEGMENT PARA USE32 PUBLIC 'CODE'
_TEXT	ENDS
;	COMDAT ??Econst_iterator@?$_Tree@V?$_Tmap_traits@KEU?$less@K@std@@V?$allocator@U?$pair@$$CBKE@std@@@2@$0A@@std@@@std@@QAEAAV012@XZ
_TEXT	SEGMENT PARA USE32 PUBLIC 'CODE'
_TEXT	ENDS
;	COMDAT ?_Inc@const_iterator@?$_Tree@V?$_Tmap_traits@KEU?$less@K@std@@V?$allocator@U?$pair@$$CBKE@std@@@2@$0A@@std@@@std@@QAEXXZ
_TEXT	SEGMENT PARA USE32 PUBLIC 'CODE'
_TEXT	ENDS
;	COMDAT ?_Min@?$_Tree@V?$_Tmap_traits@KEU?$less@K@std@@V?$allocator@U?$pair@$$CBKE@std@@@2@$0A@@std@@@std@@KAPAU_Node@?$_Tree_nod@V?$_Tmap_traits@KEU?$less@K@std@@V?$allocator@U?$pair@$$CBKE@std@@@2@$0A@@std@@@2@PAU342@@Z
_TEXT	SEGMENT PARA USE32 PUBLIC 'CODE'
_TEXT	ENDS
;	COMDAT ?_Left@?$_Tree@V?$_Tmap_traits@KEU?$less@K@std@@V?$allocator@U?$pair@$$CBKE@std@@@2@$0A@@std@@@std@@KAAAPAU_Node@?$_Tree_nod@V?$_Tmap_traits@KEU?$less@K@std@@V?$allocator@U?$pair@$$CBKE@std@@@2@$0A@@std@@@2@PAU342@@Z
_TEXT	SEGMENT PARA USE32 PUBLIC 'CODE'
_TEXT	ENDS
;	COMDAT ?_Isnil@?$_Tree@V?$_Tmap_traits@KEU?$less@K@std@@V?$allocator@U?$pair@$$CBKE@std@@@2@$0A@@std@@@std@@KAAADPAU_Node@?$_Tree_nod@V?$_Tmap_traits@KEU?$less@K@std@@V?$allocator@U?$pair@$$CBKE@std@@@2@$0A@@std@@@2@@Z
_TEXT	SEGMENT PARA USE32 PUBLIC 'CODE'
_TEXT	ENDS
;	COMDAT ?_Parent@?$_Tree@V?$_Tmap_traits@KEU?$less@K@std@@V?$allocator@U?$pair@$$CBKE@std@@@2@$0A@@std@@@std@@KAAAPAU_Node@?$_Tree_nod@V?$_Tmap_traits@KEU?$less@K@std@@V?$allocator@U?$pair@$$CBKE@std@@@2@$0A@@std@@@2@PAU342@@Z
_TEXT	SEGMENT PARA USE32 PUBLIC 'CODE'
_TEXT	ENDS
;	COMDAT ?_Right@?$_Tree@V?$_Tmap_traits@KEU?$less@K@std@@V?$allocator@U?$pair@$$CBKE@std@@@2@$0A@@std@@@std@@KAAAPAU_Node@?$_Tree_nod@V?$_Tmap_traits@KEU?$less@K@std@@V?$allocator@U?$pair@$$CBKE@std@@@2@$0A@@std@@@2@PAU342@@Z
_TEXT	SEGMENT PARA USE32 PUBLIC 'CODE'
_TEXT	ENDS
;	COMDAT ??9const_iterator@?$_Tree@V?$_Tmap_traits@KPAVCCtrl@@U?$less@K@std@@V?$allocator@U?$pair@$$CBKPAVCCtrl@@@std@@@3@$0A@@std@@@std@@QBE_NABV012@@Z
_TEXT	SEGMENT PARA USE32 PUBLIC 'CODE'
_TEXT	ENDS
;	COMDAT ??8const_iterator@?$_Tree@V?$_Tmap_traits@KPAVCCtrl@@U?$less@K@std@@V?$allocator@U?$pair@$$CBKPAVCCtrl@@@std@@@3@$0A@@std@@@std@@QBE_NABV012@@Z
_TEXT	SEGMENT PARA USE32 PUBLIC 'CODE'
_TEXT	ENDS
;	COMDAT ??Eiterator@?$_Tree@V?$_Tmap_traits@KPAVCCtrl@@U?$less@K@std@@V?$allocator@U?$pair@$$CBKPAVCCtrl@@@std@@@3@$0A@@std@@@std@@QAEAAV012@XZ
_TEXT	SEGMENT PARA USE32 PUBLIC 'CODE'
_TEXT	ENDS
;	COMDAT ??Econst_iterator@?$_Tree@V?$_Tmap_traits@KPAVCCtrl@@U?$less@K@std@@V?$allocator@U?$pair@$$CBKPAVCCtrl@@@std@@@3@$0A@@std@@@std@@QAEAAV012@XZ
_TEXT	SEGMENT PARA USE32 PUBLIC 'CODE'
_TEXT	ENDS
;	COMDAT ?_Inc@const_iterator@?$_Tree@V?$_Tmap_traits@KPAVCCtrl@@U?$less@K@std@@V?$allocator@U?$pair@$$CBKPAVCCtrl@@@std@@@3@$0A@@std@@@std@@QAEXXZ
_TEXT	SEGMENT PARA USE32 PUBLIC 'CODE'
_TEXT	ENDS
;	COMDAT ?_Min@?$_Tree@V?$_Tmap_traits@KPAVCCtrl@@U?$less@K@std@@V?$allocator@U?$pair@$$CBKPAVCCtrl@@@std@@@3@$0A@@std@@@std@@KAPAU_Node@?$_Tree_nod@V?$_Tmap_traits@KPAVCCtrl@@U?$less@K@std@@V?$allocator@U?$pair@$$CBKPAVCCtrl@@@std@@@3@$0A@@std@@@2@PAU342@@Z
_TEXT	SEGMENT PARA USE32 PUBLIC 'CODE'
_TEXT	ENDS
;	COMDAT ?_Left@?$_Tree@V?$_Tmap_traits@KPAVCCtrl@@U?$less@K@std@@V?$allocator@U?$pair@$$CBKPAVCCtrl@@@std@@@3@$0A@@std@@@std@@KAAAPAU_Node@?$_Tree_nod@V?$_Tmap_traits@KPAVCCtrl@@U?$less@K@std@@V?$allocator@U?$pair@$$CBKPAVCCtrl@@@std@@@3@$0A@@std@@@2@PAU342@@Z
_TEXT	SEGMENT PARA USE32 PUBLIC 'CODE'
_TEXT	ENDS
;	COMDAT ?_Isnil@?$_Tree@V?$_Tmap_traits@KPAVCCtrl@@U?$less@K@std@@V?$allocator@U?$pair@$$CBKPAVCCtrl@@@std@@@3@$0A@@std@@@std@@KAAADPAU_Node@?$_Tree_nod@V?$_Tmap_traits@KPAVCCtrl@@U?$less@K@std@@V?$allocator@U?$pair@$$CBKPAVCCtrl@@@std@@@3@$0A@@std@@@2@@Z
_TEXT	SEGMENT PARA USE32 PUBLIC 'CODE'
_TEXT	ENDS
;	COMDAT ?_Parent@?$_Tree@V?$_Tmap_traits@KPAVCCtrl@@U?$less@K@std@@V?$allocator@U?$pair@$$CBKPAVCCtrl@@@std@@@3@$0A@@std@@@std@@KAAAPAU_Node@?$_Tree_nod@V?$_Tmap_traits@KPAVCCtrl@@U?$less@K@std@@V?$allocator@U?$pair@$$CBKPAVCCtrl@@@std@@@3@$0A@@std@@@2@PAU342@@Z
_TEXT	SEGMENT PARA USE32 PUBLIC 'CODE'
_TEXT	ENDS
;	COMDAT ?_Right@?$_Tree@V?$_Tmap_traits@KPAVCCtrl@@U?$less@K@std@@V?$allocator@U?$pair@$$CBKPAVCCtrl@@@std@@@3@$0A@@std@@@std@@KAAAPAU_Node@?$_Tree_nod@V?$_Tmap_traits@KPAVCCtrl@@U?$less@K@std@@V?$allocator@U?$pair@$$CBKPAVCCtrl@@@std@@@3@$0A@@std@@@2@PAU342@@Z
_TEXT	SEGMENT PARA USE32 PUBLIC 'CODE'
_TEXT	ENDS
;	COMDAT ??9const_iterator@?$_Tree@V?$_Tmap_traits@KPAVCUser@@U?$less@K@std@@V?$allocator@U?$pair@$$CBKPAVCUser@@@std@@@3@$0A@@std@@@std@@QBE_NABV012@@Z
_TEXT	SEGMENT PARA USE32 PUBLIC 'CODE'
_TEXT	ENDS
;	COMDAT ??8const_iterator@?$_Tree@V?$_Tmap_traits@KPAVCUser@@U?$less@K@std@@V?$allocator@U?$pair@$$CBKPAVCUser@@@std@@@3@$0A@@std@@@std@@QBE_NABV012@@Z
_TEXT	SEGMENT PARA USE32 PUBLIC 'CODE'
_TEXT	ENDS
;	COMDAT ??Eiterator@?$_Tree@V?$_Tmap_traits@KPAVCUser@@U?$less@K@std@@V?$allocator@U?$pair@$$CBKPAVCUser@@@std@@@3@$0A@@std@@@std@@QAEAAV012@XZ
_TEXT	SEGMENT PARA USE32 PUBLIC 'CODE'
_TEXT	ENDS
;	COMDAT ??Econst_iterator@?$_Tree@V?$_Tmap_traits@KPAVCUser@@U?$less@K@std@@V?$allocator@U?$pair@$$CBKPAVCUser@@@std@@@3@$0A@@std@@@std@@QAEAAV012@XZ
_TEXT	SEGMENT PARA USE32 PUBLIC 'CODE'
_TEXT	ENDS
;	COMDAT ?_Inc@const_iterator@?$_Tree@V?$_Tmap_traits@KPAVCUser@@U?$less@K@std@@V?$allocator@U?$pair@$$CBKPAVCUser@@@std@@@3@$0A@@std@@@std@@QAEXXZ
_TEXT	SEGMENT PARA USE32 PUBLIC 'CODE'
_TEXT	ENDS
;	COMDAT ?_Min@?$_Tree@V?$_Tmap_traits@KPAVCUser@@U?$less@K@std@@V?$allocator@U?$pair@$$CBKPAVCUser@@@std@@@3@$0A@@std@@@std@@KAPAU_Node@?$_Tree_nod@V?$_Tmap_traits@KPAVCUser@@U?$less@K@std@@V?$allocator@U?$pair@$$CBKPAVCUser@@@std@@@3@$0A@@std@@@2@PAU342@@Z
_TEXT	SEGMENT PARA USE32 PUBLIC 'CODE'
_TEXT	ENDS
;	COMDAT ?_Left@?$_Tree@V?$_Tmap_traits@KPAVCUser@@U?$less@K@std@@V?$allocator@U?$pair@$$CBKPAVCUser@@@std@@@3@$0A@@std@@@std@@KAAAPAU_Node@?$_Tree_nod@V?$_Tmap_traits@KPAVCUser@@U?$less@K@std@@V?$allocator@U?$pair@$$CBKPAVCUser@@@std@@@3@$0A@@std@@@2@PAU342@@Z
_TEXT	SEGMENT PARA USE32 PUBLIC 'CODE'
_TEXT	ENDS
;	COMDAT ?_Isnil@?$_Tree@V?$_Tmap_traits@KPAVCUser@@U?$less@K@std@@V?$allocator@U?$pair@$$CBKPAVCUser@@@std@@@3@$0A@@std@@@std@@KAAADPAU_Node@?$_Tree_nod@V?$_Tmap_traits@KPAVCUser@@U?$less@K@std@@V?$allocator@U?$pair@$$CBKPAVCUser@@@std@@@3@$0A@@std@@@2@@Z
_TEXT	SEGMENT PARA USE32 PUBLIC 'CODE'
_TEXT	ENDS
;	COMDAT ?_Parent@?$_Tree@V?$_Tmap_traits@KPAVCUser@@U?$less@K@std@@V?$allocator@U?$pair@$$CBKPAVCUser@@@std@@@3@$0A@@std@@@std@@KAAAPAU_Node@?$_Tree_nod@V?$_Tmap_traits@KPAVCUser@@U?$less@K@std@@V?$allocator@U?$pair@$$CBKPAVCUser@@@std@@@3@$0A@@std@@@2@PAU342@@Z
_TEXT	SEGMENT PARA USE32 PUBLIC 'CODE'
_TEXT	ENDS
;	COMDAT ?_Right@?$_Tree@V?$_Tmap_traits@KPAVCUser@@U?$less@K@std@@V?$allocator@U?$pair@$$CBKPAVCUser@@@std@@@3@$0A@@std@@@std@@KAAAPAU_Node@?$_Tree_nod@V?$_Tmap_traits@KPAVCUser@@U?$less@K@std@@V?$allocator@U?$pair@$$CBKPAVCUser@@@std@@@3@$0A@@std@@@2@PAU342@@Z
_TEXT	SEGMENT PARA USE32 PUBLIC 'CODE'
_TEXT	ENDS
;	COMDAT ?_Psave@?$_Facetptr@V?$ctype@G@std@@@std@@2PBVfacet@locale@2@B
_DATA	SEGMENT DWORD USE32 PUBLIC 'DATA'
_DATA	ENDS
;	COMDAT ?_Psave@?$_Facetptr@V?$ctype@D@std@@@std@@2PBVfacet@locale@2@B
_DATA	SEGMENT DWORD USE32 PUBLIC 'DATA'
_DATA	ENDS
;	COMDAT ?compare@?$char_traits@D@std@@SAHPBD0I@Z
_TEXT	SEGMENT PARA USE32 PUBLIC 'CODE'
_TEXT	ENDS
;	COMDAT ?_Myptr@?$basic_string@DU?$char_traits@D@std@@V?$allocator@D@2@@std@@QBEPBDXZ
_TEXT	SEGMENT PARA USE32 PUBLIC 'CODE'
_TEXT	ENDS
;	COMDAT ?size@?$basic_string@DU?$char_traits@D@std@@V?$allocator@D@2@@std@@QBEIXZ
_TEXT	SEGMENT PARA USE32 PUBLIC 'CODE'
_TEXT	ENDS
;	COMDAT ??5CAr@@QAEAAV0@AAJ@Z
_TEXT	SEGMENT PARA USE32 PUBLIC 'CODE'
_TEXT	ENDS
;	COMDAT ??5@YAAAVCAr@@AAV0@AA_J@Z
_TEXT	SEGMENT PARA USE32 PUBLIC 'CODE'
_TEXT	ENDS
;	COMDAT ??5CAr@@QAEAAV0@AAH@Z
_TEXT	SEGMENT PARA USE32 PUBLIC 'CODE'
_TEXT	ENDS
;	COMDAT ??5CAr@@QAEAAV0@AAE@Z
_TEXT	SEGMENT PARA USE32 PUBLIC 'CODE'
_TEXT	ENDS
;	COMDAT ??5CAr@@QAEAAV0@AAF@Z
_TEXT	SEGMENT PARA USE32 PUBLIC 'CODE'
_TEXT	ENDS
;	COMDAT ??5CAr@@QAEAAV0@AAG@Z
_TEXT	SEGMENT PARA USE32 PUBLIC 'CODE'
_TEXT	ENDS
;	COMDAT ??6CAr@@QAEAAV0@J@Z
_TEXT	SEGMENT PARA USE32 PUBLIC 'CODE'
_TEXT	ENDS
;	COMDAT ?time_null@@YAJXZ
_TEXT	SEGMENT PARA USE32 PUBLIC 'CODE'
_TEXT	ENDS
;	COMDAT ??6@YAAAVCAr@@AAV0@_J@Z
_TEXT	SEGMENT PARA USE32 PUBLIC 'CODE'
_TEXT	ENDS
;	COMDAT ??6CAr@@QAEAAV0@E@Z
_TEXT	SEGMENT PARA USE32 PUBLIC 'CODE'
_TEXT	ENDS
;	COMDAT ??6CAr@@QAEAAV0@H@Z
_TEXT	SEGMENT PARA USE32 PUBLIC 'CODE'
_TEXT	ENDS
;	COMDAT ??6CAr@@QAEAAV0@F@Z
_TEXT	SEGMENT PARA USE32 PUBLIC 'CODE'
_TEXT	ENDS
;	COMDAT ??6CAr@@QAEAAV0@G@Z
_TEXT	SEGMENT PARA USE32 PUBLIC 'CODE'
_TEXT	ENDS
;	COMDAT ??5CAr@@QAEAAV0@AAK@Z
_TEXT	SEGMENT PARA USE32 PUBLIC 'CODE'
_TEXT	ENDS
;	COMDAT ??6CAr@@QAEAAV0@K@Z
_TEXT	SEGMENT PARA USE32 PUBLIC 'CODE'
_TEXT	ENDS
;	COMDAT ?IsStoring@CAr@@QBEHXZ
_TEXT	SEGMENT PARA USE32 PUBLIC 'CODE'
_TEXT	ENDS
sxdata	SEGMENT DWORD USE32 'SXDATA'
sxdata	ENDS
FLAT	GROUP _DATA, CONST, _BSS
	ASSUME	CS: FLAT, DS: FLAT, SS: FLAT
endif

INCLUDELIB LIBCMT
INCLUDELIB OLDNAMES

PUBLIC	?time_null@@YAJXZ				; time_null
EXTRN	?g_tCurrent@@3JA:DWORD				; g_tCurrent
; Function compile flags: /Ogty
; File c:\documents and settings\test\mes documents\source\virtuos_v17\build\program\_network\cmnhdr.h
;	COMDAT ?time_null@@YAJXZ
_TEXT	SEGMENT
?time_null@@YAJXZ PROC NEAR				; time_null, COMDAT

; 702  : #if defined(__WORLDSERVER) || defined(__CLIENT)
; 703  : 	return	g_tCurrent;

  00000	a1 00 00 00 00	 mov	 eax, DWORD PTR ?g_tCurrent@@3JA ; g_tCurrent

; 704  : #else	//
; 705  : 	return time( NULL );
; 706  : #endif	//
; 707  : }

  00005	c3		 ret	 0
?time_null@@YAJXZ ENDP					; time_null
_TEXT	ENDS
PUBLIC	?IsStoring@CAr@@QBEHXZ				; CAr::IsStoring
; Function compile flags: /Ogty
; File c:\documents and settings\test\mes documents\source\virtuos_v17\build\program\_network\misc\include\ar.h
;	COMDAT ?IsStoring@CAr@@QBEHXZ
_TEXT	SEGMENT
?IsStoring@CAr@@QBEHXZ PROC NEAR			; CAr::IsStoring, COMDAT
; _this$ = ecx

; 96   : 	{ return (m_nMode & CAr::load) == 0; }

  00000	33 c0		 xor	 eax, eax
  00002	8a 01		 mov	 al, BYTE PTR [ecx]
  00004	f7 d0		 not	 eax
  00006	83 e0 01	 and	 eax, 1
  00009	c3		 ret	 0
?IsStoring@CAr@@QBEHXZ ENDP				; CAr::IsStoring
_TEXT	ENDS
PUBLIC	??6CAr@@QAEAAV0@E@Z				; CAr::operator<<
EXTRN	?CheckBuf@CAr@@QAEXI@Z:NEAR			; CAr::CheckBuf
; Function compile flags: /Ogty
;	COMDAT ??6CAr@@QAEAAV0@E@Z
_TEXT	SEGMENT
_by$ = 8						; size = 1
??6CAr@@QAEAAV0@E@Z PROC NEAR				; CAr::operator<<, COMDAT
; _this$ = ecx

; 107  : 	{ CheckBuf( sizeof(BYTE) );

  00000	56		 push	 esi
  00001	6a 01		 push	 1
  00003	8b f1		 mov	 esi, ecx
  00005	e8 00 00 00 00	 call	 ?CheckBuf@CAr@@QAEXI@Z	; CAr::CheckBuf

; 108  : 		*(UNALIGNED BYTE*)m_lpBufCur = by; m_lpBufCur += sizeof(BYTE); return *this; }

  0000a	8b 46 08	 mov	 eax, DWORD PTR [esi+8]
  0000d	8a 4c 24 08	 mov	 cl, BYTE PTR _by$[esp]
  00011	88 08		 mov	 BYTE PTR [eax], cl
  00013	ff 46 08	 inc	 DWORD PTR [esi+8]
  00016	8b c6		 mov	 eax, esi
  00018	5e		 pop	 esi
  00019	c2 04 00	 ret	 4
??6CAr@@QAEAAV0@E@Z ENDP				; CAr::operator<<
_TEXT	ENDS
PUBLIC	??6CAr@@QAEAAV0@G@Z				; CAr::operator<<
; Function compile flags: /Ogty
;	COMDAT ??6CAr@@QAEAAV0@G@Z
_TEXT	SEGMENT
_w$ = 8							; size = 2
??6CAr@@QAEAAV0@G@Z PROC NEAR				; CAr::operator<<, COMDAT
; _this$ = ecx

; 110  : 	{ CheckBuf( sizeof( WORD ) );

  00000	56		 push	 esi
  00001	6a 02		 push	 2
  00003	8b f1		 mov	 esi, ecx
  00005	e8 00 00 00 00	 call	 ?CheckBuf@CAr@@QAEXI@Z	; CAr::CheckBuf

; 111  : 		*(UNALIGNED WORD*)m_lpBufCur = w; m_lpBufCur += sizeof(WORD); return *this; }

  0000a	8b 46 08	 mov	 eax, DWORD PTR [esi+8]
  0000d	66 8b 4c 24 08	 mov	 cx, WORD PTR _w$[esp]
  00012	66 89 08	 mov	 WORD PTR [eax], cx
  00015	83 46 08 02	 add	 DWORD PTR [esi+8], 2
  00019	8b c6		 mov	 eax, esi
  0001b	5e		 pop	 esi
  0001c	c2 04 00	 ret	 4
??6CAr@@QAEAAV0@G@Z ENDP				; CAr::operator<<
_TEXT	ENDS
PUBLIC	??6CAr@@QAEAAV0@J@Z				; CAr::operator<<
; Function compile flags: /Ogty
;	COMDAT ??6CAr@@QAEAAV0@J@Z
_TEXT	SEGMENT
_l$ = 8							; size = 4
??6CAr@@QAEAAV0@J@Z PROC NEAR				; CAr::operator<<, COMDAT
; _this$ = ecx

; 113  : 	{ CheckBuf( sizeof(LONG) );

  00000	56		 push	 esi
  00001	6a 04		 push	 4
  00003	8b f1		 mov	 esi, ecx
  00005	e8 00 00 00 00	 call	 ?CheckBuf@CAr@@QAEXI@Z	; CAr::CheckBuf

; 114  : 		*(UNALIGNED LONG*)m_lpBufCur = l; m_lpBufCur += sizeof(LONG); return *this; }

  0000a	8b 46 08	 mov	 eax, DWORD PTR [esi+8]
  0000d	8b 4c 24 08	 mov	 ecx, DWORD PTR _l$[esp]
  00011	89 08		 mov	 DWORD PTR [eax], ecx
  00013	83 46 08 04	 add	 DWORD PTR [esi+8], 4
  00017	8b c6		 mov	 eax, esi
  00019	5e		 pop	 esi
  0001a	c2 04 00	 ret	 4
??6CAr@@QAEAAV0@J@Z ENDP				; CAr::operator<<
_TEXT	ENDS
PUBLIC	??6CAr@@QAEAAV0@K@Z				; CAr::operator<<
; Function compile flags: /Ogty
;	COMDAT ??6CAr@@QAEAAV0@K@Z
_TEXT	SEGMENT
_dw$ = 8						; size = 4
??6CAr@@QAEAAV0@K@Z PROC NEAR				; CAr::operator<<, COMDAT
; _this$ = ecx

; 116  : 	{ CheckBuf( sizeof(DWORD) );

  00000	56		 push	 esi
  00001	6a 04		 push	 4
  00003	8b f1		 mov	 esi, ecx
  00005	e8 00 00 00 00	 call	 ?CheckBuf@CAr@@QAEXI@Z	; CAr::CheckBuf

; 117  : 		*(UNALIGNED DWORD*)m_lpBufCur = dw; m_lpBufCur += sizeof(DWORD); return *this; }

  0000a	8b 46 08	 mov	 eax, DWORD PTR [esi+8]
  0000d	8b 4c 24 08	 mov	 ecx, DWORD PTR _dw$[esp]
  00011	89 08		 mov	 DWORD PTR [eax], ecx
  00013	83 46 08 04	 add	 DWORD PTR [esi+8], 4
  00017	8b c6		 mov	 eax, esi
  00019	5e		 pop	 esi
  0001a	c2 04 00	 ret	 4
??6CAr@@QAEAAV0@K@Z ENDP				; CAr::operator<<
_TEXT	ENDS
PUBLIC	??5CAr@@QAEAAV0@AAE@Z				; CAr::operator>>
; Function compile flags: /Ogty
;	COMDAT ??5CAr@@QAEAAV0@AAE@Z
_TEXT	SEGMENT
_by$ = 8						; size = 4
??5CAr@@QAEAAV0@AAE@Z PROC NEAR				; CAr::operator>>, COMDAT
; _this$ = ecx

; 142  : 	{	CAR_SAFE_READ( BYTE, by );	}

  00000	8b c1		 mov	 eax, ecx
  00002	8b 48 08	 mov	 ecx, DWORD PTR [eax+8]
  00005	56		 push	 esi
  00006	8b 70 0c	 mov	 esi, DWORD PTR [eax+12]
  00009	8d 51 01	 lea	 edx, DWORD PTR [ecx+1]
  0000c	3b d6		 cmp	 edx, esi
  0000e	5e		 pop	 esi
  0000f	77 0e		 ja	 SHORT $L205448
  00011	8a 09		 mov	 cl, BYTE PTR [ecx]
  00013	8b 54 24 04	 mov	 edx, DWORD PTR _by$[esp-4]
  00017	88 0a		 mov	 BYTE PTR [edx], cl
  00019	ff 40 08	 inc	 DWORD PTR [eax+8]
  0001c	c2 04 00	 ret	 4
$L205448:
  0001f	8b 4c 24 04	 mov	 ecx, DWORD PTR _by$[esp-4]
  00023	c6 01 00	 mov	 BYTE PTR [ecx], 0
  00026	8b 50 0c	 mov	 edx, DWORD PTR [eax+12]
  00029	89 50 08	 mov	 DWORD PTR [eax+8], edx
  0002c	c2 04 00	 ret	 4
??5CAr@@QAEAAV0@AAE@Z ENDP				; CAr::operator>>
_TEXT	ENDS
PUBLIC	??5CAr@@QAEAAV0@AAG@Z				; CAr::operator>>
; Function compile flags: /Ogty
;	COMDAT ??5CAr@@QAEAAV0@AAG@Z
_TEXT	SEGMENT
_w$ = 8							; size = 4
??5CAr@@QAEAAV0@AAG@Z PROC NEAR				; CAr::operator>>, COMDAT
; _this$ = ecx

; 144  : 	{	CAR_SAFE_READ( WORD, w );	}

  00000	8b c1		 mov	 eax, ecx
  00002	8b 48 08	 mov	 ecx, DWORD PTR [eax+8]
  00005	56		 push	 esi
  00006	8b 70 0c	 mov	 esi, DWORD PTR [eax+12]
  00009	8d 51 02	 lea	 edx, DWORD PTR [ecx+2]
  0000c	3b d6		 cmp	 edx, esi
  0000e	5e		 pop	 esi
  0000f	77 11		 ja	 SHORT $L205458
  00011	66 8b 09	 mov	 cx, WORD PTR [ecx]
  00014	8b 54 24 04	 mov	 edx, DWORD PTR _w$[esp-4]
  00018	66 89 0a	 mov	 WORD PTR [edx], cx
  0001b	83 40 08 02	 add	 DWORD PTR [eax+8], 2
  0001f	c2 04 00	 ret	 4
$L205458:
  00022	8b 4c 24 04	 mov	 ecx, DWORD PTR _w$[esp-4]
  00026	66 c7 01 00 00	 mov	 WORD PTR [ecx], 0
  0002b	8b 50 0c	 mov	 edx, DWORD PTR [eax+12]
  0002e	89 50 08	 mov	 DWORD PTR [eax+8], edx
  00031	c2 04 00	 ret	 4
??5CAr@@QAEAAV0@AAG@Z ENDP				; CAr::operator>>
_TEXT	ENDS
PUBLIC	??5CAr@@QAEAAV0@AAK@Z				; CAr::operator>>
; Function compile flags: /Ogty
;	COMDAT ??5CAr@@QAEAAV0@AAK@Z
_TEXT	SEGMENT
_dw$ = 8						; size = 4
??5CAr@@QAEAAV0@AAK@Z PROC NEAR				; CAr::operator>>, COMDAT
; _this$ = ecx

; 146  : 	{	CAR_SAFE_READ( DWORD, dw );	}

  00000	8b c1		 mov	 eax, ecx
  00002	8b 48 08	 mov	 ecx, DWORD PTR [eax+8]
  00005	56		 push	 esi
  00006	8b 70 0c	 mov	 esi, DWORD PTR [eax+12]
  00009	8d 51 04	 lea	 edx, DWORD PTR [ecx+4]
  0000c	3b d6		 cmp	 edx, esi
  0000e	5e		 pop	 esi
  0000f	77 0f		 ja	 SHORT $L205468
  00011	8b 09		 mov	 ecx, DWORD PTR [ecx]
  00013	8b 54 24 04	 mov	 edx, DWORD PTR _dw$[esp-4]
  00017	89 0a		 mov	 DWORD PTR [edx], ecx
  00019	83 40 08 04	 add	 DWORD PTR [eax+8], 4
  0001d	c2 04 00	 ret	 4
$L205468:
  00020	8b 4c 24 04	 mov	 ecx, DWORD PTR _dw$[esp-4]
  00024	c7 01 00 00 00
	00		 mov	 DWORD PTR [ecx], 0
  0002a	8b 50 0c	 mov	 edx, DWORD PTR [eax+12]
  0002d	89 50 08	 mov	 DWORD PTR [eax+8], edx
  00030	c2 04 00	 ret	 4
??5CAr@@QAEAAV0@AAK@Z ENDP				; CAr::operator>>
_TEXT	ENDS
PUBLIC	??5CAr@@QAEAAV0@AAJ@Z				; CAr::operator>>
; Function compile flags: /Ogty
;	COMDAT ??5CAr@@QAEAAV0@AAJ@Z
_TEXT	SEGMENT
_l$ = 8							; size = 4
??5CAr@@QAEAAV0@AAJ@Z PROC NEAR				; CAr::operator>>, COMDAT
; _this$ = ecx

; 152  : 	{	CAR_SAFE_READ( LONG, l );	}

  00000	8b c1		 mov	 eax, ecx
  00002	8b 48 08	 mov	 ecx, DWORD PTR [eax+8]
  00005	56		 push	 esi
  00006	8b 70 0c	 mov	 esi, DWORD PTR [eax+12]
  00009	8d 51 04	 lea	 edx, DWORD PTR [ecx+4]
  0000c	3b d6		 cmp	 edx, esi
  0000e	5e		 pop	 esi
  0000f	77 0f		 ja	 SHORT $L205498
  00011	8b 09		 mov	 ecx, DWORD PTR [ecx]
  00013	8b 54 24 04	 mov	 edx, DWORD PTR _l$[esp-4]
  00017	89 0a		 mov	 DWORD PTR [edx], ecx
  00019	83 40 08 04	 add	 DWORD PTR [eax+8], 4
  0001d	c2 04 00	 ret	 4
$L205498:
  00020	8b 4c 24 04	 mov	 ecx, DWORD PTR _l$[esp-4]
  00024	c7 01 00 00 00
	00		 mov	 DWORD PTR [ecx], 0
  0002a	8b 50 0c	 mov	 edx, DWORD PTR [eax+12]
  0002d	89 50 08	 mov	 DWORD PTR [eax+8], edx
  00030	c2 04 00	 ret	 4
??5CAr@@QAEAAV0@AAJ@Z ENDP				; CAr::operator>>
_TEXT	ENDS
PUBLIC	??6@YAAAVCAr@@AAV0@_J@Z				; operator<<
EXTRN	?Write@CAr@@QAEXPBXI@Z:NEAR			; CAr::Write
; Function compile flags: /Ogty
;	COMDAT ??6@YAAAVCAr@@AAV0@_J@Z
_TEXT	SEGMENT
_ar$ = 8						; size = 4
_i$ = 12						; size = 8
??6@YAAAVCAr@@AAV0@_J@Z PROC NEAR			; operator<<, COMDAT

; 163  : 	{	ar.Write( &i, sizeof(__int64) );	return ar;	}

  00000	56		 push	 esi
  00001	8b 74 24 08	 mov	 esi, DWORD PTR _ar$[esp]
  00005	6a 08		 push	 8
  00007	8d 44 24 10	 lea	 eax, DWORD PTR _i$[esp+4]
  0000b	50		 push	 eax
  0000c	8b ce		 mov	 ecx, esi
  0000e	e8 00 00 00 00	 call	 ?Write@CAr@@QAEXPBXI@Z	; CAr::Write
  00013	8b c6		 mov	 eax, esi
  00015	5e		 pop	 esi
  00016	c3		 ret	 0
??6@YAAAVCAr@@AAV0@_J@Z ENDP				; operator<<
_TEXT	ENDS
PUBLIC	??5@YAAAVCAr@@AAV0@AA_J@Z			; operator>>
EXTRN	?Read@CAr@@QAEXPAXI@Z:NEAR			; CAr::Read
; Function compile flags: /Ogty
;	COMDAT ??5@YAAAVCAr@@AAV0@AA_J@Z
_TEXT	SEGMENT
_ar$ = 8						; size = 4
_i$ = 12						; size = 4
??5@YAAAVCAr@@AAV0@AA_J@Z PROC NEAR			; operator>>, COMDAT

; 166  : 	{	ar.Read( &i, sizeof(__int64) );	return ar;	}

  00000	8b 44 24 08	 mov	 eax, DWORD PTR _i$[esp-4]
  00004	56		 push	 esi
  00005	8b 74 24 08	 mov	 esi, DWORD PTR _ar$[esp]
  00009	6a 08		 push	 8
  0000b	50		 push	 eax
  0000c	8b ce		 mov	 ecx, esi
  0000e	e8 00 00 00 00	 call	 ?Read@CAr@@QAEXPAXI@Z	; CAr::Read
  00013	8b c6		 mov	 eax, esi
  00015	5e		 pop	 esi
  00016	c3		 ret	 0
??5@YAAAVCAr@@AAV0@AA_J@Z ENDP				; operator>>
_TEXT	ENDS
PUBLIC	?Serialize@CCtrl@@UAEXAAVCAr@@@Z		; CCtrl::Serialize
EXTRN	?Serialize@CObj@@UAEXAAVCAr@@@Z:NEAR		; CObj::Serialize
; Function compile flags: /Ogty
; File c:\documents and settings\test\mes documents\source\virtuos_v17\build\program\_common\objserialize.cpp
;	COMDAT ?Serialize@CCtrl@@UAEXAAVCAr@@@Z
_TEXT	SEGMENT
_ar$ = 8						; size = 4
?Serialize@CCtrl@@UAEXAAVCAr@@@Z PROC NEAR		; CCtrl::Serialize, COMDAT
; _this$ = ecx

; 16   : {

  00000	56		 push	 esi

; 17   : 	CObj::Serialize( ar );

  00001	8b 74 24 08	 mov	 esi, DWORD PTR _ar$[esp]
  00005	57		 push	 edi
  00006	56		 push	 esi
  00007	8b f9		 mov	 edi, ecx
  00009	e8 00 00 00 00	 call	 ?Serialize@CObj@@UAEXAAVCAr@@@Z ; CObj::Serialize

; 18   : 
; 19   : 	if( ar.IsStoring() )

  0000e	33 c0		 xor	 eax, eax
  00010	8a 06		 mov	 al, BYTE PTR [esi]
  00012	f7 d0		 not	 eax
  00014	a8 01		 test	 al, 1
  00016	74 22		 je	 SHORT $L225599

; 20   : 	{
; 21   : 		ar << m_objid;

  00018	8b bf bc 01 00
	00		 mov	 edi, DWORD PTR [edi+444]
  0001e	6a 04		 push	 4
  00020	8b ce		 mov	 ecx, esi
  00022	e8 00 00 00 00	 call	 ?CheckBuf@CAr@@QAEXI@Z	; CAr::CheckBuf
  00027	8b 4e 08	 mov	 ecx, DWORD PTR [esi+8]
  0002a	89 39		 mov	 DWORD PTR [ecx], edi
  0002c	8b 46 08	 mov	 eax, DWORD PTR [esi+8]
  0002f	83 c0 04	 add	 eax, 4
  00032	5f		 pop	 edi
  00033	89 46 08	 mov	 DWORD PTR [esi+8], eax
  00036	5e		 pop	 esi

; 26   : 	}
; 27   : }

  00037	c2 04 00	 ret	 4
$L225599:

; 22   : 	}
; 23   : 	else
; 24   : 	{
; 25   : 		ar >> m_objid;

  0003a	8b 46 08	 mov	 eax, DWORD PTR [esi+8]
  0003d	8b 4e 0c	 mov	 ecx, DWORD PTR [esi+12]
  00040	8d 50 04	 lea	 edx, DWORD PTR [eax+4]
  00043	3b d1		 cmp	 edx, ecx
  00045	77 16		 ja	 SHORT $L226889
  00047	8b 00		 mov	 eax, DWORD PTR [eax]
  00049	89 87 bc 01 00
	00		 mov	 DWORD PTR [edi+444], eax
  0004f	8b 46 08	 mov	 eax, DWORD PTR [esi+8]
  00052	83 c0 04	 add	 eax, 4
  00055	5f		 pop	 edi
  00056	89 46 08	 mov	 DWORD PTR [esi+8], eax
  00059	5e		 pop	 esi

; 26   : 	}
; 27   : }

  0005a	c2 04 00	 ret	 4

; 22   : 	}
; 23   : 	else
; 24   : 	{
; 25   : 		ar >> m_objid;

$L226889:
  0005d	c7 87 bc 01 00
	00 00 00 00 00	 mov	 DWORD PTR [edi+444], 0
  00067	8b 4e 0c	 mov	 ecx, DWORD PTR [esi+12]
  0006a	5f		 pop	 edi
  0006b	89 4e 08	 mov	 DWORD PTR [esi+8], ecx
  0006e	5e		 pop	 esi

; 26   : 	}
; 27   : }

  0006f	c2 04 00	 ret	 4
?Serialize@CCtrl@@UAEXAAVCAr@@@Z ENDP			; CCtrl::Serialize
_TEXT	ENDS
PUBLIC	?Serialize@CItemBase@@UAEXAAVCAr@@@Z		; CItemBase::Serialize
EXTRN	?WriteString@CAr@@QAEXPBD@Z:NEAR		; CAr::WriteString
EXTRN	?ReadString@CAr@@QAEPADPADH@Z:NEAR		; CAr::ReadString
; Function compile flags: /Ogty
;	COMDAT ?Serialize@CItemBase@@UAEXAAVCAr@@@Z
_TEXT	SEGMENT
_ar$ = 8						; size = 4
?Serialize@CItemBase@@UAEXAAVCAr@@@Z PROC NEAR		; CItemBase::Serialize, COMDAT
; _this$ = ecx

; 32   : {

  00000	53		 push	 ebx
  00001	55		 push	 ebp
  00002	56		 push	 esi

; 33   : 	if( ar.IsStoring() )

  00003	8b 74 24 10	 mov	 esi, DWORD PTR _ar$[esp+8]
  00007	33 c0		 xor	 eax, eax
  00009	8a 06		 mov	 al, BYTE PTR [esi]
  0000b	57		 push	 edi
  0000c	8b f9		 mov	 edi, ecx

; 34   : 	{
; 35   : 		ar << m_dwObjId << m_dwItemId;

  0000e	bd 04 00 00 00	 mov	 ebp, 4
  00013	f7 d0		 not	 eax
  00015	a8 01		 test	 al, 1
  00017	74 50		 je	 SHORT $L225605
  00019	8b 5f 04	 mov	 ebx, DWORD PTR [edi+4]
  0001c	55		 push	 ebp
  0001d	8b ce		 mov	 ecx, esi
  0001f	e8 00 00 00 00	 call	 ?CheckBuf@CAr@@QAEXI@Z	; CAr::CheckBuf
  00024	8b 4e 08	 mov	 ecx, DWORD PTR [esi+8]
  00027	89 19		 mov	 DWORD PTR [ecx], ebx
  00029	01 6e 08	 add	 DWORD PTR [esi+8], ebp
  0002c	8b 5f 0c	 mov	 ebx, DWORD PTR [edi+12]
  0002f	55		 push	 ebp
  00030	8b ce		 mov	 ecx, esi
  00032	e8 00 00 00 00	 call	 ?CheckBuf@CAr@@QAEXI@Z	; CAr::CheckBuf
  00037	8b 56 08	 mov	 edx, DWORD PTR [esi+8]
  0003a	89 1a		 mov	 DWORD PTR [edx], ebx
  0003c	01 6e 08	 add	 DWORD PTR [esi+8], ebp

; 36   : 		ar << m_liSerialNumber;

  0003f	8b 5f 38	 mov	 ebx, DWORD PTR [edi+56]
  00042	55		 push	 ebp
  00043	8b ce		 mov	 ecx, esi
  00045	e8 00 00 00 00	 call	 ?CheckBuf@CAr@@QAEXI@Z	; CAr::CheckBuf
  0004a	8b 46 08	 mov	 eax, DWORD PTR [esi+8]
  0004d	89 18		 mov	 DWORD PTR [eax], ebx
  0004f	8b 4e 08	 mov	 ecx, DWORD PTR [esi+8]
  00052	03 cd		 add	 ecx, ebp

; 37   : 		ar.WriteString( m_szItemText );

  00054	83 c7 14	 add	 edi, 20			; 00000014H
  00057	89 4e 08	 mov	 DWORD PTR [esi+8], ecx
  0005a	57		 push	 edi
  0005b	8b ce		 mov	 ecx, esi
  0005d	e8 00 00 00 00	 call	 ?WriteString@CAr@@QAEXPBD@Z ; CAr::WriteString
  00062	5f		 pop	 edi
  00063	5e		 pop	 esi
  00064	5d		 pop	 ebp
  00065	5b		 pop	 ebx

; 44   : 	}
; 45   : }

  00066	c2 04 00	 ret	 4
$L225605:

; 38   : 	}
; 39   : 	else
; 40   : 	{
; 41   : 		ar >> m_dwObjId >> m_dwItemId;

  00069	8b 46 08	 mov	 eax, DWORD PTR [esi+8]
  0006c	8b 5e 0c	 mov	 ebx, DWORD PTR [esi+12]
  0006f	8d 50 04	 lea	 edx, DWORD PTR [eax+4]
  00072	33 c9		 xor	 ecx, ecx
  00074	3b d3		 cmp	 edx, ebx
  00076	77 0a		 ja	 SHORT $L226913
  00078	8b 00		 mov	 eax, DWORD PTR [eax]
  0007a	89 47 04	 mov	 DWORD PTR [edi+4], eax
  0007d	01 6e 08	 add	 DWORD PTR [esi+8], ebp
  00080	eb 09		 jmp	 SHORT $L226914
$L226913:
  00082	89 4f 04	 mov	 DWORD PTR [edi+4], ecx
  00085	8b 56 0c	 mov	 edx, DWORD PTR [esi+12]
  00088	89 56 08	 mov	 DWORD PTR [esi+8], edx
$L226914:
  0008b	8b 46 08	 mov	 eax, DWORD PTR [esi+8]
  0008e	8b 5e 0c	 mov	 ebx, DWORD PTR [esi+12]
  00091	8d 50 04	 lea	 edx, DWORD PTR [eax+4]
  00094	3b d3		 cmp	 edx, ebx
  00096	77 0a		 ja	 SHORT $L226919
  00098	8b 00		 mov	 eax, DWORD PTR [eax]
  0009a	89 47 0c	 mov	 DWORD PTR [edi+12], eax
  0009d	01 6e 08	 add	 DWORD PTR [esi+8], ebp
  000a0	eb 09		 jmp	 SHORT $L226920
$L226919:
  000a2	89 4f 0c	 mov	 DWORD PTR [edi+12], ecx
  000a5	8b 56 0c	 mov	 edx, DWORD PTR [esi+12]
  000a8	89 56 08	 mov	 DWORD PTR [esi+8], edx
$L226920:

; 42   : 		ar >> m_liSerialNumber;

  000ab	8b 46 08	 mov	 eax, DWORD PTR [esi+8]
  000ae	8b 5e 0c	 mov	 ebx, DWORD PTR [esi+12]
  000b1	8d 50 04	 lea	 edx, DWORD PTR [eax+4]
  000b4	3b d3		 cmp	 edx, ebx
  000b6	77 21		 ja	 SHORT $L226925
  000b8	8b 00		 mov	 eax, DWORD PTR [eax]
  000ba	89 47 38	 mov	 DWORD PTR [edi+56], eax
  000bd	8b 46 08	 mov	 eax, DWORD PTR [esi+8]

; 43   : 		ar.ReadString( m_szItemText, 32 );

  000c0	6a 20		 push	 32			; 00000020H
  000c2	83 c7 14	 add	 edi, 20			; 00000014H
  000c5	03 c5		 add	 eax, ebp
  000c7	57		 push	 edi
  000c8	8b ce		 mov	 ecx, esi
  000ca	89 46 08	 mov	 DWORD PTR [esi+8], eax
  000cd	e8 00 00 00 00	 call	 ?ReadString@CAr@@QAEPADPADH@Z ; CAr::ReadString
  000d2	5f		 pop	 edi
  000d3	5e		 pop	 esi
  000d4	5d		 pop	 ebp
  000d5	5b		 pop	 ebx

; 44   : 	}
; 45   : }

  000d6	c2 04 00	 ret	 4

; 42   : 		ar >> m_liSerialNumber;

$L226925:
  000d9	89 4f 38	 mov	 DWORD PTR [edi+56], ecx
  000dc	8b 4e 0c	 mov	 ecx, DWORD PTR [esi+12]

; 43   : 		ar.ReadString( m_szItemText, 32 );

  000df	6a 20		 push	 32			; 00000020H
  000e1	89 4e 08	 mov	 DWORD PTR [esi+8], ecx
  000e4	83 c7 14	 add	 edi, 20			; 00000014H
  000e7	57		 push	 edi
  000e8	8b ce		 mov	 ecx, esi
  000ea	e8 00 00 00 00	 call	 ?ReadString@CAr@@QAEPADPADH@Z ; CAr::ReadString
  000ef	5f		 pop	 edi
  000f0	5e		 pop	 esi
  000f1	5d		 pop	 ebp
  000f2	5b		 pop	 ebx

; 44   : 	}
; 45   : }

  000f3	c2 04 00	 ret	 4
?Serialize@CItemBase@@UAEXAAVCAr@@@Z ENDP		; CItemBase::Serialize
_TEXT	ENDS
PUBLIC	?Serialize@CItem@@UAEXAAVCAr@@@Z		; CItem::Serialize
EXTRN	??2@YAPAXI@Z:NEAR				; operator new
EXTRN	??3@YAXPAX@Z:NEAR				; operator delete
EXTRN	__except_list:DWORD
EXTRN	___CxxFrameHandler:NEAR
EXTRN	??0CItemElem@@QAE@XZ:NEAR			; CItemElem::CItemElem
;	COMDAT xdata$x
; File c:\documents and settings\test\mes documents\source\virtuos_v17\build\program\_network\misc\include\ar.h
xdata$x	SEGMENT
$T226949 DD	0ffffffffH
	DD	FLAT:$L226939
$T226946 DD	019930520H
	DD	01H
	DD	FLAT:$T226949
	DD	2 DUP(00H)
	DD	2 DUP(00H)
; Function compile flags: /Ogty
; File c:\documents and settings\test\mes documents\source\virtuos_v17\build\program\_common\objserialize.cpp
xdata$x	ENDS
;	COMDAT ?Serialize@CItem@@UAEXAAVCAr@@@Z
_TEXT	SEGMENT
__$EHRec$ = -12						; size = 12
$T226936 = 8						; size = 4
_ar$ = 8						; size = 4
?Serialize@CItem@@UAEXAAVCAr@@@Z PROC NEAR		; CItem::Serialize, COMDAT
; _this$ = ecx

; 159  : {

  00000	64 a1 00 00 00
	00		 mov	 eax, DWORD PTR fs:__except_list
  00006	6a ff		 push	 -1
  00008	68 00 00 00 00	 push	 __ehhandler$?Serialize@CItem@@UAEXAAVCAr@@@Z
  0000d	50		 push	 eax
  0000e	64 89 25 00 00
	00 00		 mov	 DWORD PTR fs:__except_list, esp
  00015	53		 push	 ebx

; 160  : 	CCtrl::Serialize( ar );		// 33

  00016	8b 5c 24 14	 mov	 ebx, DWORD PTR _ar$[esp+12]
  0001a	56		 push	 esi
  0001b	53		 push	 ebx
  0001c	8b f1		 mov	 esi, ecx
  0001e	e8 00 00 00 00	 call	 ?Serialize@CCtrl@@UAEXAAVCAr@@@Z ; CCtrl::Serialize

; 161  : 	
; 162  : 	if( ar.IsStoring() )

  00023	33 c0		 xor	 eax, eax
  00025	8a 03		 mov	 al, BYTE PTR [ebx]
  00027	f7 d0		 not	 eax
  00029	a8 01		 test	 al, 1
  0002b	75 50		 jne	 SHORT $L225636

; 163  : 	{
; 164  : 	}
; 165  : 	else
; 166  : 	{
; 167  : 		SAFE_DELETE( m_pItemBase );

  0002d	8b 8e 34 02 00
	00		 mov	 ecx, DWORD PTR [esi+564]
  00033	85 c9		 test	 ecx, ecx
  00035	74 10		 je	 SHORT $L225637
  00037	8b 11		 mov	 edx, DWORD PTR [ecx]
  00039	6a 01		 push	 1
  0003b	ff 12		 call	 DWORD PTR [edx]
  0003d	c7 86 34 02 00
	00 00 00 00 00	 mov	 DWORD PTR [esi+564], 0
$L225637:

; 168  : 		m_pItemBase	= new CItemElem;

  00047	68 b8 00 00 00	 push	 184			; 000000b8H
  0004c	e8 00 00 00 00	 call	 ??2@YAPAXI@Z		; operator new
  00051	83 c4 04	 add	 esp, 4
  00054	89 44 24 18	 mov	 DWORD PTR $T226936[esp+16], eax
  00058	85 c0		 test	 eax, eax
  0005a	c7 44 24 10 00
	00 00 00	 mov	 DWORD PTR __$EHRec$[esp+28], 0
  00062	74 09		 je	 SHORT $L226937
  00064	8b c8		 mov	 ecx, eax
  00066	e8 00 00 00 00	 call	 ??0CItemElem@@QAE@XZ	; CItemElem::CItemElem
  0006b	eb 02		 jmp	 SHORT $L226938
$L226937:
  0006d	33 c0		 xor	 eax, eax
$L226938:
  0006f	c7 44 24 10 ff
	ff ff ff	 mov	 DWORD PTR __$EHRec$[esp+28], -1
  00077	89 86 34 02 00
	00		 mov	 DWORD PTR [esi+564], eax
$L225636:

; 169  : 	}
; 170  : 
; 171  : 	m_pItemBase->Serialize( ar );	// 11

  0007d	8b 8e 34 02 00
	00		 mov	 ecx, DWORD PTR [esi+564]
  00083	8b 01		 mov	 eax, DWORD PTR [ecx]
  00085	53		 push	 ebx
  00086	ff 50 08	 call	 DWORD PTR [eax+8]

; 172  : }

  00089	8b 4c 24 08	 mov	 ecx, DWORD PTR __$EHRec$[esp+20]
  0008d	5e		 pop	 esi
  0008e	64 89 0d 00 00
	00 00		 mov	 DWORD PTR fs:__except_list, ecx
  00095	5b		 pop	 ebx
  00096	83 c4 0c	 add	 esp, 12			; 0000000cH
  00099	c2 04 00	 ret	 4
_TEXT	ENDS
;	COMDAT text$x
text$x	SEGMENT
$L226939:
  00000	8b 45 04	 mov	 eax, DWORD PTR $T226936[ebp-4]
  00003	50		 push	 eax
  00004	e8 00 00 00 00	 call	 ??3@YAXPAX@Z		; operator delete
  00009	59		 pop	 ecx
  0000a	c3		 ret	 0
__ehhandler$?Serialize@CItem@@UAEXAAVCAr@@@Z:
  0000b	b8 00 00 00 00	 mov	 eax, OFFSET FLAT:$T226946
  00010	e9 00 00 00 00	 jmp	 ___CxxFrameHandler
text$x	ENDS
?Serialize@CItem@@UAEXAAVCAr@@@Z ENDP			; CItem::Serialize
PUBLIC	??6CAr@@QAEAAV0@H@Z				; CAr::operator<<
; Function compile flags: /Ogty
; File c:\documents and settings\test\mes documents\source\virtuos_v17\build\program\_network\misc\include\ar.h
;	COMDAT ??6CAr@@QAEAAV0@H@Z
_TEXT	SEGMENT
_i$ = 8							; size = 4
??6CAr@@QAEAAV0@H@Z PROC NEAR				; CAr::operator<<, COMDAT
; _this$ = ecx

; 99   : 	{ return CAr::operator<<((LONG)i); }

  00000	56		 push	 esi
  00001	6a 04		 push	 4
  00003	8b f1		 mov	 esi, ecx
  00005	e8 00 00 00 00	 call	 ?CheckBuf@CAr@@QAEXI@Z	; CAr::CheckBuf
  0000a	8b 46 08	 mov	 eax, DWORD PTR [esi+8]
  0000d	8b 4c 24 08	 mov	 ecx, DWORD PTR _i$[esp]
  00011	89 08		 mov	 DWORD PTR [eax], ecx
  00013	83 46 08 04	 add	 DWORD PTR [esi+8], 4
  00017	8b c6		 mov	 eax, esi
  00019	5e		 pop	 esi
  0001a	c2 04 00	 ret	 4
??6CAr@@QAEAAV0@H@Z ENDP				; CAr::operator<<
_TEXT	ENDS
PUBLIC	??6CAr@@QAEAAV0@F@Z				; CAr::operator<<
; Function compile flags: /Ogty
;	COMDAT ??6CAr@@QAEAAV0@F@Z
_TEXT	SEGMENT
_w$ = 8							; size = 2
??6CAr@@QAEAAV0@F@Z PROC NEAR				; CAr::operator<<, COMDAT
; _this$ = ecx

; 103  : 	{ return CAr::operator<<((WORD)w); }

  00000	56		 push	 esi
  00001	6a 02		 push	 2
  00003	8b f1		 mov	 esi, ecx
  00005	e8 00 00 00 00	 call	 ?CheckBuf@CAr@@QAEXI@Z	; CAr::CheckBuf
  0000a	8b 46 08	 mov	 eax, DWORD PTR [esi+8]
  0000d	66 8b 4c 24 08	 mov	 cx, WORD PTR _w$[esp]
  00012	66 89 08	 mov	 WORD PTR [eax], cx
  00015	83 46 08 02	 add	 DWORD PTR [esi+8], 2
  00019	8b c6		 mov	 eax, esi
  0001b	5e		 pop	 esi
  0001c	c2 04 00	 ret	 4
??6CAr@@QAEAAV0@F@Z ENDP				; CAr::operator<<
_TEXT	ENDS
PUBLIC	??5CAr@@QAEAAV0@AAH@Z				; CAr::operator>>
; Function compile flags: /Ogty
;	COMDAT ??5CAr@@QAEAAV0@AAH@Z
_TEXT	SEGMENT
_i$ = 8							; size = 4
??5CAr@@QAEAAV0@AAH@Z PROC NEAR				; CAr::operator>>, COMDAT
; _this$ = ecx

; 126  : 	{ return CAr::operator>>((LONG&)i); }

  00000	8b c1		 mov	 eax, ecx
  00002	8b 48 08	 mov	 ecx, DWORD PTR [eax+8]
  00005	56		 push	 esi
  00006	8b 70 0c	 mov	 esi, DWORD PTR [eax+12]
  00009	8d 51 04	 lea	 edx, DWORD PTR [ecx+4]
  0000c	3b d6		 cmp	 edx, esi
  0000e	5e		 pop	 esi
  0000f	77 0f		 ja	 SHORT $L226971
  00011	8b 09		 mov	 ecx, DWORD PTR [ecx]
  00013	8b 54 24 04	 mov	 edx, DWORD PTR _i$[esp-4]
  00017	89 0a		 mov	 DWORD PTR [edx], ecx
  00019	83 40 08 04	 add	 DWORD PTR [eax+8], 4
  0001d	c2 04 00	 ret	 4
$L226971:
  00020	8b 4c 24 04	 mov	 ecx, DWORD PTR _i$[esp-4]
  00024	c7 01 00 00 00
	00		 mov	 DWORD PTR [ecx], 0
  0002a	8b 50 0c	 mov	 edx, DWORD PTR [eax+12]
  0002d	89 50 08	 mov	 DWORD PTR [eax+8], edx
  00030	c2 04 00	 ret	 4
??5CAr@@QAEAAV0@AAH@Z ENDP				; CAr::operator>>
_TEXT	ENDS
PUBLIC	??5CAr@@QAEAAV0@AAF@Z				; CAr::operator>>
; Function compile flags: /Ogty
;	COMDAT ??5CAr@@QAEAAV0@AAF@Z
_TEXT	SEGMENT
_w$ = 8							; size = 4
??5CAr@@QAEAAV0@AAF@Z PROC NEAR				; CAr::operator>>, COMDAT
; _this$ = ecx

; 130  : 	{ return CAr::operator>>((WORD&)w); }

  00000	8b c1		 mov	 eax, ecx
  00002	8b 48 08	 mov	 ecx, DWORD PTR [eax+8]
  00005	56		 push	 esi
  00006	8b 70 0c	 mov	 esi, DWORD PTR [eax+12]
  00009	8d 51 02	 lea	 edx, DWORD PTR [ecx+2]
  0000c	3b d6		 cmp	 edx, esi
  0000e	5e		 pop	 esi
  0000f	77 11		 ja	 SHORT $L226978
  00011	66 8b 09	 mov	 cx, WORD PTR [ecx]
  00014	8b 54 24 04	 mov	 edx, DWORD PTR _w$[esp-4]
  00018	66 89 0a	 mov	 WORD PTR [edx], cx
  0001b	83 40 08 02	 add	 DWORD PTR [eax+8], 2
  0001f	c2 04 00	 ret	 4
$L226978:
  00022	8b 4c 24 04	 mov	 ecx, DWORD PTR _w$[esp-4]
  00026	66 c7 01 00 00	 mov	 WORD PTR [ecx], 0
  0002b	8b 50 0c	 mov	 edx, DWORD PTR [eax+12]
  0002e	89 50 08	 mov	 DWORD PTR [eax+8], edx
  00031	c2 04 00	 ret	 4
??5CAr@@QAEAAV0@AAF@Z ENDP				; CAr::operator>>
_TEXT	ENDS
PUBLIC	?Serialize@CItemElem@@UAEXAAVCAr@@@Z		; CItemElem::Serialize
EXTRN	??0CPet@@QAE@XZ:NEAR				; CPet::CPet
EXTRN	?Serialize@CPet@@QAEXAAVCAr@@@Z:NEAR		; CPet::Serialize
;	COMDAT xdata$x
xdata$x	SEGMENT
$T227266 DD	0ffffffffH
	DD	FLAT:$L226992
$T227252 DD	019930520H
	DD	01H
	DD	FLAT:$T227266
	DD	2 DUP(00H)
	DD	2 DUP(00H)
; Function compile flags: /Ogty
; File c:\documents and settings\test\mes documents\source\virtuos_v17\build\program\_common\objserialize.cpp
xdata$x	ENDS
;	COMDAT ?Serialize@CItemElem@@UAEXAAVCAr@@@Z
_TEXT	SEGMENT
$T227078 = -20						; size = 8
__$EHRec$ = -12						; size = 12
$T226989 = 8						; size = 4
_ar$ = 8						; size = 4
?Serialize@CItemElem@@UAEXAAVCAr@@@Z PROC NEAR		; CItemElem::Serialize, COMDAT
; _this$ = ecx

; 49   : {

  00000	6a ff		 push	 -1
  00002	64 a1 00 00 00
	00		 mov	 eax, DWORD PTR fs:__except_list
  00008	68 00 00 00 00	 push	 __ehhandler$?Serialize@CItemElem@@UAEXAAVCAr@@@Z
  0000d	50		 push	 eax
  0000e	64 89 25 00 00
	00 00		 mov	 DWORD PTR fs:__except_list, esp
  00015	83 ec 08	 sub	 esp, 8
  00018	53		 push	 ebx
  00019	55		 push	 ebp
  0001a	56		 push	 esi

; 50   : 	CItemBase::Serialize( ar );

  0001b	8b 74 24 24	 mov	 esi, DWORD PTR _ar$[esp+28]
  0001f	57		 push	 edi
  00020	56		 push	 esi
  00021	8b f9		 mov	 edi, ecx
  00023	e8 00 00 00 00	 call	 ?Serialize@CItemBase@@UAEXAAVCAr@@@Z ; CItemBase::Serialize

; 51   : 	if( ar.IsStoring() )

  00028	33 c0		 xor	 eax, eax
  0002a	8a 06		 mov	 al, BYTE PTR [esi]
  0002c	f7 d0		 not	 eax
  0002e	a8 01		 test	 al, 1
  00030	0f 84 af 01 00
	00		 je	 $L225611

; 52   : 	{
; 53   : 		ar << m_nItemNum;

  00036	66 8b 9f 80 00
	00 00		 mov	 bx, WORD PTR [edi+128]
  0003d	6a 02		 push	 2
  0003f	8b ce		 mov	 ecx, esi
  00041	e8 00 00 00 00	 call	 ?CheckBuf@CAr@@QAEXI@Z	; CAr::CheckBuf
  00046	8b 4e 08	 mov	 ecx, DWORD PTR [esi+8]
  00049	66 89 19	 mov	 WORD PTR [ecx], bx
  0004c	83 46 08 02	 add	 DWORD PTR [esi+8], 2

; 54   : 		ar << m_nRepairNumber << m_nHitPoint;

  00050	8a 5f 78	 mov	 bl, BYTE PTR [edi+120]
  00053	6a 01		 push	 1
  00055	8b ce		 mov	 ecx, esi
  00057	e8 00 00 00 00	 call	 ?CheckBuf@CAr@@QAEXI@Z	; CAr::CheckBuf
  0005c	8b 56 08	 mov	 edx, DWORD PTR [esi+8]
  0005f	88 1a		 mov	 BYTE PTR [edx], bl
  00061	ff 46 08	 inc	 DWORD PTR [esi+8]
  00064	8b 5f 7c	 mov	 ebx, DWORD PTR [edi+124]
  00067	bd 04 00 00 00	 mov	 ebp, 4
  0006c	55		 push	 ebp
  0006d	8b ce		 mov	 ecx, esi
  0006f	e8 00 00 00 00	 call	 ?CheckBuf@CAr@@QAEXI@Z	; CAr::CheckBuf
  00074	8b 46 08	 mov	 eax, DWORD PTR [esi+8]
  00077	89 18		 mov	 DWORD PTR [eax], ebx
  00079	01 6e 08	 add	 DWORD PTR [esi+8], ebp

; 55   : 		ar << m_nRepair;

  0007c	8b 5f 74	 mov	 ebx, DWORD PTR [edi+116]
  0007f	55		 push	 ebp
  00080	8b ce		 mov	 ecx, esi
  00082	e8 00 00 00 00	 call	 ?CheckBuf@CAr@@QAEXI@Z	; CAr::CheckBuf
  00087	8b 4e 08	 mov	 ecx, DWORD PTR [esi+8]
  0008a	89 19		 mov	 DWORD PTR [ecx], ebx
  0008c	01 6e 08	 add	 DWORD PTR [esi+8], ebp

; 56   : 		ar << m_byFlag;

  0008f	8a 9f 82 00 00
	00		 mov	 bl, BYTE PTR [edi+130]
  00095	6a 01		 push	 1
  00097	8b ce		 mov	 ecx, esi
  00099	e8 00 00 00 00	 call	 ?CheckBuf@CAr@@QAEXI@Z	; CAr::CheckBuf
  0009e	8b 56 08	 mov	 edx, DWORD PTR [esi+8]
  000a1	88 1a		 mov	 BYTE PTR [edx], bl
  000a3	ff 46 08	 inc	 DWORD PTR [esi+8]

; 57   : 		ar << m_nAbilityOption;

  000a6	8b 5f 70	 mov	 ebx, DWORD PTR [edi+112]
  000a9	55		 push	 ebp
  000aa	8b ce		 mov	 ecx, esi
  000ac	e8 00 00 00 00	 call	 ?CheckBuf@CAr@@QAEXI@Z	; CAr::CheckBuf
  000b1	8b 46 08	 mov	 eax, DWORD PTR [esi+8]
  000b4	89 18		 mov	 DWORD PTR [eax], ebx
  000b6	01 6e 08	 add	 DWORD PTR [esi+8], ebp

; 58   : 		ar << m_idGuild;				//  .

  000b9	8b 9f 84 00 00
	00		 mov	 ebx, DWORD PTR [edi+132]
  000bf	55		 push	 ebp
  000c0	8b ce		 mov	 ecx, esi
  000c2	e8 00 00 00 00	 call	 ?CheckBuf@CAr@@QAEXI@Z	; CAr::CheckBuf
  000c7	8b 4e 08	 mov	 ecx, DWORD PTR [esi+8]
  000ca	89 19		 mov	 DWORD PTR [ecx], ebx
  000cc	01 6e 08	 add	 DWORD PTR [esi+8], ebp

; 59   : 		ar << m_bItemResist;			//   ?

  000cf	8a 9f 88 00 00
	00		 mov	 bl, BYTE PTR [edi+136]
  000d5	6a 01		 push	 1
  000d7	8b ce		 mov	 ecx, esi
  000d9	e8 00 00 00 00	 call	 ?CheckBuf@CAr@@QAEXI@Z	; CAr::CheckBuf
  000de	8b 56 08	 mov	 edx, DWORD PTR [esi+8]
  000e1	88 1a		 mov	 BYTE PTR [edx], bl
  000e3	ff 46 08	 inc	 DWORD PTR [esi+8]

; 60   : 		ar << m_nResistAbilityOption ;	//     

  000e6	8b 9f 8c 00 00
	00		 mov	 ebx, DWORD PTR [edi+140]
  000ec	55		 push	 ebp
  000ed	8b ce		 mov	 ecx, esi
  000ef	e8 00 00 00 00	 call	 ?CheckBuf@CAr@@QAEXI@Z	; CAr::CheckBuf
  000f4	8b 46 08	 mov	 eax, DWORD PTR [esi+8]
  000f7	89 18		 mov	 DWORD PTR [eax], ebx
  000f9	01 6e 08	 add	 DWORD PTR [esi+8], ebp

; 61   : 		ar << m_nResistSMItemId;

  000fc	8b 9f 90 00 00
	00		 mov	 ebx, DWORD PTR [edi+144]
  00102	55		 push	 ebp
  00103	8b ce		 mov	 ecx, esi
  00105	e8 00 00 00 00	 call	 ?CheckBuf@CAr@@QAEXI@Z	; CAr::CheckBuf
  0010a	8b 4e 08	 mov	 ecx, DWORD PTR [esi+8]
  0010d	89 19		 mov	 DWORD PTR [ecx], ebx
  0010f	8b 46 08	 mov	 eax, DWORD PTR [esi+8]
  00112	03 c5		 add	 eax, ebp

; 62   : 		m_piercing.Serialize( ar );

  00114	8d 4f 3c	 lea	 ecx, DWORD PTR [edi+60]
  00117	89 46 08	 mov	 DWORD PTR [esi+8], eax
  0011a	8b 11		 mov	 edx, DWORD PTR [ecx]
  0011c	56		 push	 esi
  0011d	ff 52 04	 call	 DWORD PTR [edx+4]

; 63   : 		ar << m_bCharged;

  00120	8b 9f ac 00 00
	00		 mov	 ebx, DWORD PTR [edi+172]
  00126	55		 push	 ebp
  00127	8b ce		 mov	 ecx, esi
  00129	e8 00 00 00 00	 call	 ?CheckBuf@CAr@@QAEXI@Z	; CAr::CheckBuf
  0012e	8b 46 08	 mov	 eax, DWORD PTR [esi+8]
  00131	89 18		 mov	 DWORD PTR [eax], ebx
  00133	01 6e 08	 add	 DWORD PTR [esi+8], ebp

; 64   : #if __VER >= 11 // __SYS_IDENTIFY
; 65   : 		ar << m_iRandomOptItemId;

  00136	8b 8f 98 00 00
	00		 mov	 ecx, DWORD PTR [edi+152]
  0013c	8b 97 9c 00 00
	00		 mov	 edx, DWORD PTR [edi+156]
  00142	6a 08		 push	 8
  00144	8d 44 24 14	 lea	 eax, DWORD PTR $T227078[esp+40]
  00148	89 4c 24 14	 mov	 DWORD PTR $T227078[esp+40], ecx
  0014c	50		 push	 eax
  0014d	8b ce		 mov	 ecx, esi
  0014f	89 54 24 1c	 mov	 DWORD PTR $T227078[esp+48], edx
  00153	e8 00 00 00 00	 call	 ?Write@CAr@@QAEXPBXI@Z	; CAr::Write

; 66   : #else	// __SYS_IDENTIFY
; 67   : 		ar << m_nRandomOptItemId;
; 68   : #endif	// __SYS_IDENTIFY
; 69   : 		ar << m_dwKeepTime;

  00158	8b 9f b0 00 00
	00		 mov	 ebx, DWORD PTR [edi+176]
  0015e	55		 push	 ebp
  0015f	8b ce		 mov	 ecx, esi
  00161	e8 00 00 00 00	 call	 ?CheckBuf@CAr@@QAEXI@Z	; CAr::CheckBuf
  00166	8b 4e 08	 mov	 ecx, DWORD PTR [esi+8]
  00169	89 19		 mov	 DWORD PTR [ecx], ebx
  0016b	01 6e 08	 add	 DWORD PTR [esi+8], ebp

; 70   : 		if( m_dwKeepTime )

  0016e	8b 87 b0 00 00
	00		 mov	 eax, DWORD PTR [edi+176]
  00174	85 c0		 test	 eax, eax
  00176	74 18		 je	 SHORT $L227087

; 71   : 		{
; 72   : 			time_t t	= m_dwKeepTime - time_null();

  00178	2b 05 00 00 00
	00		 sub	 eax, DWORD PTR ?g_tCurrent@@3JA ; g_tCurrent

; 73   : 			ar << t;

  0017e	55		 push	 ebp
  0017f	8b ce		 mov	 ecx, esi
  00181	8b d8		 mov	 ebx, eax
  00183	e8 00 00 00 00	 call	 ?CheckBuf@CAr@@QAEXI@Z	; CAr::CheckBuf
  00188	8b 56 08	 mov	 edx, DWORD PTR [esi+8]
  0018b	89 1a		 mov	 DWORD PTR [edx], ebx
  0018d	01 6e 08	 add	 DWORD PTR [esi+8], ebp
$L227087:

; 74   : 		}
; 75   : #if __VER >= 9	// __PET_0410
; 76   : 		if( m_pPet )

  00190	8b 87 a8 00 00
	00		 mov	 eax, DWORD PTR [edi+168]
  00196	85 c0		 test	 eax, eax

; 77   : 		{
; 78   : 			ar << (BYTE)0x01;

  00198	8b ce		 mov	 ecx, esi
  0019a	6a 01		 push	 1
  0019c	74 1c		 je	 SHORT $L225614
  0019e	e8 00 00 00 00	 call	 ?CheckBuf@CAr@@QAEXI@Z	; CAr::CheckBuf
  001a3	8b 46 08	 mov	 eax, DWORD PTR [esi+8]
  001a6	c6 00 01	 mov	 BYTE PTR [eax], 1
  001a9	ff 46 08	 inc	 DWORD PTR [esi+8]

; 79   : 			m_pPet->Serialize( ar );

  001ac	8b 8f a8 00 00
	00		 mov	 ecx, DWORD PTR [edi+168]
  001b2	56		 push	 esi
  001b3	e8 00 00 00 00	 call	 ?Serialize@CPet@@QAEXAAVCAr@@@Z ; CPet::Serialize

; 80   : 		}
; 81   : 		else

  001b8	eb 0e		 jmp	 SHORT $L227093
$L225614:

; 82   : 		{
; 83   : 			ar << (BYTE)0x00;

  001ba	e8 00 00 00 00	 call	 ?CheckBuf@CAr@@QAEXI@Z	; CAr::CheckBuf
  001bf	8b 4e 08	 mov	 ecx, DWORD PTR [esi+8]
  001c2	c6 01 00	 mov	 BYTE PTR [ecx], 0
  001c5	ff 46 08	 inc	 DWORD PTR [esi+8]
$L227093:

; 84   : 		}
; 85   : #endif	// __PET_0410
; 86   : #if __VER >= 15 // __PETVIS
; 87   : 		ar << m_bTranformVisPet;

  001c8	8b bf b4 00 00
	00		 mov	 edi, DWORD PTR [edi+180]
  001ce	55		 push	 ebp
  001cf	8b ce		 mov	 ecx, esi
  001d1	e8 00 00 00 00	 call	 ?CheckBuf@CAr@@QAEXI@Z	; CAr::CheckBuf
  001d6	8b 56 08	 mov	 edx, DWORD PTR [esi+8]
  001d9	89 3a		 mov	 DWORD PTR [edx], edi
  001db	8b 46 08	 mov	 eax, DWORD PTR [esi+8]
  001de	03 c5		 add	 eax, ebp

; 88   : #endif // __PETVIS
; 89   : 	}
; 90   : 	else

  001e0	e9 7b 02 00 00	 jmp	 $L227254
$L225611:

; 91   : 	{
; 92   : 		ar >> m_nItemNum;

  001e5	8b 46 08	 mov	 eax, DWORD PTR [esi+8]
  001e8	8b 56 0c	 mov	 edx, DWORD PTR [esi+12]
  001eb	8d 48 02	 lea	 ecx, DWORD PTR [eax+2]
  001ee	3b ca		 cmp	 ecx, edx
  001f0	77 14		 ja	 SHORT $L227113
  001f2	66 8b 10	 mov	 dx, WORD PTR [eax]
  001f5	66 89 97 80 00
	00 00		 mov	 WORD PTR [edi+128], dx
  001fc	8b 46 08	 mov	 eax, DWORD PTR [esi+8]
  001ff	83 c0 02	 add	 eax, 2
  00202	33 db		 xor	 ebx, ebx
  00204	eb 0c		 jmp	 SHORT $L227255
$L227113:
  00206	33 db		 xor	 ebx, ebx
  00208	66 89 9f 80 00
	00 00		 mov	 WORD PTR [edi+128], bx
  0020f	8b 46 0c	 mov	 eax, DWORD PTR [esi+12]
$L227255:

; 93   : 		ar >> m_nRepairNumber ;

  00212	8b 56 0c	 mov	 edx, DWORD PTR [esi+12]
  00215	8d 48 01	 lea	 ecx, DWORD PTR [eax+1]
  00218	3b ca		 cmp	 ecx, edx
  0021a	89 46 08	 mov	 DWORD PTR [esi+8], eax
  0021d	77 0b		 ja	 SHORT $L227119
  0021f	8a 10		 mov	 dl, BYTE PTR [eax]
  00221	88 57 78	 mov	 BYTE PTR [edi+120], dl
  00224	8b 46 08	 mov	 eax, DWORD PTR [esi+8]
  00227	40		 inc	 eax
  00228	eb 07		 jmp	 SHORT $L227256
$L227119:
  0022a	c6 47 78 00	 mov	 BYTE PTR [edi+120], 0
  0022e	8b 46 0c	 mov	 eax, DWORD PTR [esi+12]
$L227256:

; 94   : 		ar >> m_nHitPoint;

  00231	8b 56 0c	 mov	 edx, DWORD PTR [esi+12]
  00234	8d 48 04	 lea	 ecx, DWORD PTR [eax+4]
  00237	3b ca		 cmp	 ecx, edx
  00239	89 46 08	 mov	 DWORD PTR [esi+8], eax
  0023c	bd 04 00 00 00	 mov	 ebp, 4
  00241	77 0c		 ja	 SHORT $L227132
  00243	8b 10		 mov	 edx, DWORD PTR [eax]
  00245	89 57 7c	 mov	 DWORD PTR [edi+124], edx
  00248	8b 46 08	 mov	 eax, DWORD PTR [esi+8]
  0024b	03 c5		 add	 eax, ebp
  0024d	eb 06		 jmp	 SHORT $L227257
$L227132:
  0024f	89 5f 7c	 mov	 DWORD PTR [edi+124], ebx
  00252	8b 46 0c	 mov	 eax, DWORD PTR [esi+12]
$L227257:

; 95   : 		ar >> m_nRepair;

  00255	8b 56 0c	 mov	 edx, DWORD PTR [esi+12]
  00258	8d 48 04	 lea	 ecx, DWORD PTR [eax+4]
  0025b	3b ca		 cmp	 ecx, edx
  0025d	89 46 08	 mov	 DWORD PTR [esi+8], eax
  00260	77 0c		 ja	 SHORT $L227145
  00262	8b 10		 mov	 edx, DWORD PTR [eax]
  00264	89 57 74	 mov	 DWORD PTR [edi+116], edx
  00267	8b 46 08	 mov	 eax, DWORD PTR [esi+8]
  0026a	03 c5		 add	 eax, ebp
  0026c	eb 06		 jmp	 SHORT $L227258
$L227145:
  0026e	89 5f 74	 mov	 DWORD PTR [edi+116], ebx
  00271	8b 46 0c	 mov	 eax, DWORD PTR [esi+12]
$L227258:

; 96   : 		ar >> m_byFlag;

  00274	8b 56 0c	 mov	 edx, DWORD PTR [esi+12]
  00277	8d 48 01	 lea	 ecx, DWORD PTR [eax+1]
  0027a	3b ca		 cmp	 ecx, edx
  0027c	89 46 08	 mov	 DWORD PTR [esi+8], eax
  0027f	77 0e		 ja	 SHORT $L227151
  00281	8a 10		 mov	 dl, BYTE PTR [eax]
  00283	88 97 82 00 00
	00		 mov	 BYTE PTR [edi+130], dl
  00289	8b 46 08	 mov	 eax, DWORD PTR [esi+8]
  0028c	40		 inc	 eax
  0028d	eb 0a		 jmp	 SHORT $L227259
$L227151:
  0028f	c6 87 82 00 00
	00 00		 mov	 BYTE PTR [edi+130], 0
  00296	8b 46 0c	 mov	 eax, DWORD PTR [esi+12]
$L227259:

; 97   : 		ar >> m_nAbilityOption;

  00299	8b 56 0c	 mov	 edx, DWORD PTR [esi+12]
  0029c	8d 48 04	 lea	 ecx, DWORD PTR [eax+4]
  0029f	3b ca		 cmp	 ecx, edx
  002a1	89 46 08	 mov	 DWORD PTR [esi+8], eax
  002a4	77 0c		 ja	 SHORT $L227164
  002a6	8b 10		 mov	 edx, DWORD PTR [eax]
  002a8	89 57 70	 mov	 DWORD PTR [edi+112], edx
  002ab	8b 46 08	 mov	 eax, DWORD PTR [esi+8]
  002ae	03 c5		 add	 eax, ebp
  002b0	eb 06		 jmp	 SHORT $L227260
$L227164:
  002b2	89 5f 70	 mov	 DWORD PTR [edi+112], ebx
  002b5	8b 46 0c	 mov	 eax, DWORD PTR [esi+12]
$L227260:

; 98   : 		ar >> m_idGuild;		

  002b8	8b 56 0c	 mov	 edx, DWORD PTR [esi+12]
  002bb	8d 48 04	 lea	 ecx, DWORD PTR [eax+4]
  002be	3b ca		 cmp	 ecx, edx
  002c0	89 46 08	 mov	 DWORD PTR [esi+8], eax
  002c3	77 0f		 ja	 SHORT $L227170
  002c5	8b 10		 mov	 edx, DWORD PTR [eax]
  002c7	89 97 84 00 00
	00		 mov	 DWORD PTR [edi+132], edx
  002cd	8b 46 08	 mov	 eax, DWORD PTR [esi+8]
  002d0	03 c5		 add	 eax, ebp
  002d2	eb 09		 jmp	 SHORT $L227261
$L227170:
  002d4	89 9f 84 00 00
	00		 mov	 DWORD PTR [edi+132], ebx
  002da	8b 46 0c	 mov	 eax, DWORD PTR [esi+12]
$L227261:

; 99   : 		ar >> m_bItemResist;	

  002dd	8b 56 0c	 mov	 edx, DWORD PTR [esi+12]
  002e0	8d 48 01	 lea	 ecx, DWORD PTR [eax+1]
  002e3	3b ca		 cmp	 ecx, edx
  002e5	89 46 08	 mov	 DWORD PTR [esi+8], eax
  002e8	77 0e		 ja	 SHORT $L227176
  002ea	8a 10		 mov	 dl, BYTE PTR [eax]
  002ec	88 97 88 00 00
	00		 mov	 BYTE PTR [edi+136], dl
  002f2	8b 46 08	 mov	 eax, DWORD PTR [esi+8]
  002f5	40		 inc	 eax
  002f6	eb 0a		 jmp	 SHORT $L227262
$L227176:
  002f8	c6 87 88 00 00
	00 00		 mov	 BYTE PTR [edi+136], 0
  002ff	8b 46 0c	 mov	 eax, DWORD PTR [esi+12]
$L227262:

; 100  : 		ar >> m_nResistAbilityOption ;	

  00302	8b 56 0c	 mov	 edx, DWORD PTR [esi+12]
  00305	8d 48 04	 lea	 ecx, DWORD PTR [eax+4]
  00308	3b ca		 cmp	 ecx, edx
  0030a	89 46 08	 mov	 DWORD PTR [esi+8], eax
  0030d	77 0f		 ja	 SHORT $L227189
  0030f	8b 10		 mov	 edx, DWORD PTR [eax]
  00311	89 97 8c 00 00
	00		 mov	 DWORD PTR [edi+140], edx
  00317	8b 46 08	 mov	 eax, DWORD PTR [esi+8]
  0031a	03 c5		 add	 eax, ebp
  0031c	eb 09		 jmp	 SHORT $L227263
$L227189:
  0031e	89 9f 8c 00 00
	00		 mov	 DWORD PTR [edi+140], ebx
  00324	8b 46 0c	 mov	 eax, DWORD PTR [esi+12]
$L227263:

; 101  : 		ar >> m_nResistSMItemId;

  00327	8b 56 0c	 mov	 edx, DWORD PTR [esi+12]
  0032a	8d 48 04	 lea	 ecx, DWORD PTR [eax+4]
  0032d	3b ca		 cmp	 ecx, edx
  0032f	89 46 08	 mov	 DWORD PTR [esi+8], eax
  00332	77 0f		 ja	 SHORT $L227202
  00334	8b 10		 mov	 edx, DWORD PTR [eax]
  00336	89 97 90 00 00
	00		 mov	 DWORD PTR [edi+144], edx
  0033c	8b 46 08	 mov	 eax, DWORD PTR [esi+8]
  0033f	03 c5		 add	 eax, ebp
  00341	eb 09		 jmp	 SHORT $L227264
$L227202:
  00343	89 9f 90 00 00
	00		 mov	 DWORD PTR [edi+144], ebx
  00349	8b 46 0c	 mov	 eax, DWORD PTR [esi+12]
$L227264:

; 102  : //		memset( &m_piercingInfo, 0, sizeof(m_piercingInfo) );
; 103  : 		m_piercing.Serialize( ar );

  0034c	8d 4f 3c	 lea	 ecx, DWORD PTR [edi+60]
  0034f	89 46 08	 mov	 DWORD PTR [esi+8], eax
  00352	8b 11		 mov	 edx, DWORD PTR [ecx]
  00354	56		 push	 esi
  00355	ff 52 04	 call	 DWORD PTR [edx+4]

; 104  : 		ar >> m_bCharged;

  00358	8b 46 08	 mov	 eax, DWORD PTR [esi+8]
  0035b	8b 56 0c	 mov	 edx, DWORD PTR [esi+12]
  0035e	8d 48 04	 lea	 ecx, DWORD PTR [eax+4]
  00361	3b ca		 cmp	 ecx, edx
  00363	77 0f		 ja	 SHORT $L227215
  00365	8b 10		 mov	 edx, DWORD PTR [eax]
  00367	89 97 ac 00 00
	00		 mov	 DWORD PTR [edi+172], edx
  0036d	8b 46 08	 mov	 eax, DWORD PTR [esi+8]
  00370	03 c5		 add	 eax, ebp
  00372	eb 09		 jmp	 SHORT $L227265
$L227215:
  00374	89 9f ac 00 00
	00		 mov	 DWORD PTR [edi+172], ebx
  0037a	8b 46 0c	 mov	 eax, DWORD PTR [esi+12]
$L227265:

; 105  : #if __VER >= 11 // __SYS_IDENTIFY
; 106  : 		ar >> m_iRandomOptItemId;

  0037d	6a 08		 push	 8
  0037f	8d 8f 98 00 00
	00		 lea	 ecx, DWORD PTR [edi+152]
  00385	51		 push	 ecx
  00386	8b ce		 mov	 ecx, esi
  00388	89 46 08	 mov	 DWORD PTR [esi+8], eax
  0038b	e8 00 00 00 00	 call	 ?Read@CAr@@QAEXPAXI@Z	; CAr::Read

; 107  : #else	// __SYS_IDENTIFY
; 108  : 		ar >> m_nRandomOptItemId;
; 109  : #endif	// __SYS_IDENTIFY
; 110  : 		ar >> m_dwKeepTime;

  00390	8b 46 08	 mov	 eax, DWORD PTR [esi+8]
  00393	8b 4e 0c	 mov	 ecx, DWORD PTR [esi+12]
  00396	8d 50 04	 lea	 edx, DWORD PTR [eax+4]
  00399	3b d1		 cmp	 edx, ecx
  0039b	77 0d		 ja	 SHORT $L227224
  0039d	8b 00		 mov	 eax, DWORD PTR [eax]
  0039f	89 87 b0 00 00
	00		 mov	 DWORD PTR [edi+176], eax
  003a5	01 6e 08	 add	 DWORD PTR [esi+8], ebp
  003a8	eb 0c		 jmp	 SHORT $L227225
$L227224:
  003aa	89 9f b0 00 00
	00		 mov	 DWORD PTR [edi+176], ebx
  003b0	8b 4e 0c	 mov	 ecx, DWORD PTR [esi+12]
  003b3	89 4e 08	 mov	 DWORD PTR [esi+8], ecx
$L227225:

; 111  : 
; 112  : 		if( m_dwKeepTime ) 

  003b6	39 9f b0 00 00
	00		 cmp	 DWORD PTR [edi+176], ebx
  003bc	74 15		 je	 SHORT $L227231

; 113  : 		{
; 114  : 			time_t t;
; 115  : 			ar >> t;

  003be	8b 46 08	 mov	 eax, DWORD PTR [esi+8]
  003c1	8b 4e 0c	 mov	 ecx, DWORD PTR [esi+12]
  003c4	83 c0 04	 add	 eax, 4
  003c7	3b c1		 cmp	 eax, ecx
  003c9	77 05		 ja	 SHORT $L227230
  003cb	89 46 08	 mov	 DWORD PTR [esi+8], eax
  003ce	eb 03		 jmp	 SHORT $L227231
$L227230:
  003d0	89 4e 08	 mov	 DWORD PTR [esi+8], ecx
$L227231:

; 116  : 		#ifdef __CLIENT
; 117  : 			m_dwKeepTime	= time_null() + t;
; 118  : 		#endif	// __CLIENT
; 119  : 		}
; 120  : #if __VER >= 9	// __PET_0410
; 121  : 		SAFE_DELETE( m_pPet );

  003d3	8b 8f a8 00 00
	00		 mov	 ecx, DWORD PTR [edi+168]
  003d9	3b cb		 cmp	 ecx, ebx
  003db	74 0c		 je	 SHORT $L225621
  003dd	8b 11		 mov	 edx, DWORD PTR [ecx]
  003df	6a 01		 push	 1
  003e1	ff 12		 call	 DWORD PTR [edx]
  003e3	89 9f a8 00 00
	00		 mov	 DWORD PTR [edi+168], ebx
$L225621:

; 122  : 		BYTE bPet;
; 123  : 		ar >> bPet;

  003e9	8b 46 08	 mov	 eax, DWORD PTR [esi+8]
  003ec	8b 56 0c	 mov	 edx, DWORD PTR [esi+12]
  003ef	8d 48 01	 lea	 ecx, DWORD PTR [eax+1]
  003f2	3b ca		 cmp	 ecx, edx
  003f4	77 28		 ja	 SHORT $L227235
  003f6	8a 00		 mov	 al, BYTE PTR [eax]

; 124  : 		if( bPet )

  003f8	84 c0		 test	 al, al
  003fa	89 4e 08	 mov	 DWORD PTR [esi+8], ecx
  003fd	74 3c		 je	 SHORT $L225626

; 125  : 		{
; 126  : 			m_pPet	= new CPet;

  003ff	6a 28		 push	 40			; 00000028H
  00401	e8 00 00 00 00	 call	 ??2@YAPAXI@Z		; operator new
  00406	83 c4 04	 add	 esp, 4
  00409	89 44 24 28	 mov	 DWORD PTR $T226989[esp+32], eax
  0040d	3b c3		 cmp	 eax, ebx
  0040f	89 5c 24 20	 mov	 DWORD PTR __$EHRec$[esp+44], ebx
  00413	74 0e		 je	 SHORT $L226990
  00415	8b c8		 mov	 ecx, eax
  00417	e8 00 00 00 00	 call	 ??0CPet@@QAE@XZ		; CPet::CPet
  0041c	eb 07		 jmp	 SHORT $L226991

; 122  : 		BYTE bPet;
; 123  : 		ar >> bPet;

$L227235:
  0041e	89 56 08	 mov	 DWORD PTR [esi+8], edx

; 124  : 		if( bPet )

  00421	eb 18		 jmp	 SHORT $L225626
$L226990:

; 125  : 		{
; 126  : 			m_pPet	= new CPet;

  00423	33 c0		 xor	 eax, eax
$L226991:

; 127  : 			m_pPet->Serialize( ar );

  00425	56		 push	 esi
  00426	8b c8		 mov	 ecx, eax
  00428	c7 44 24 24 ff
	ff ff ff	 mov	 DWORD PTR __$EHRec$[esp+48], -1
  00430	89 87 a8 00 00
	00		 mov	 DWORD PTR [edi+168], eax
  00436	e8 00 00 00 00	 call	 ?Serialize@CPet@@QAEXAAVCAr@@@Z ; CPet::Serialize
$L225626:

; 128  : 		}
; 129  : #endif	// __PET_0410
; 130  : #if __VER >= 15 // __PETVIS
; 131  : 		ar >> m_bTranformVisPet;

  0043b	8b 46 08	 mov	 eax, DWORD PTR [esi+8]
  0043e	8b 56 0c	 mov	 edx, DWORD PTR [esi+12]
  00441	8d 48 04	 lea	 ecx, DWORD PTR [eax+4]
  00444	3b ca		 cmp	 ecx, edx
  00446	77 0f		 ja	 SHORT $L227247
  00448	8b 10		 mov	 edx, DWORD PTR [eax]
  0044a	89 97 b4 00 00
	00		 mov	 DWORD PTR [edi+180], edx
  00450	8b 46 08	 mov	 eax, DWORD PTR [esi+8]
  00453	03 c5		 add	 eax, ebp
  00455	eb 09		 jmp	 SHORT $L227254
$L227247:
  00457	89 9f b4 00 00
	00		 mov	 DWORD PTR [edi+180], ebx
  0045d	8b 46 0c	 mov	 eax, DWORD PTR [esi+12]
$L227254:

; 132  : #endif // __PETVIS
; 133  : 
; 134  : #ifdef __CLIENT
; 135  : 		SetTexture();
; 136  : #endif
; 137  : 	}
; 138  : }

  00460	8b 4c 24 18	 mov	 ecx, DWORD PTR __$EHRec$[esp+36]
  00464	5f		 pop	 edi
  00465	89 46 08	 mov	 DWORD PTR [esi+8], eax
  00468	5e		 pop	 esi
  00469	5d		 pop	 ebp
  0046a	5b		 pop	 ebx
  0046b	64 89 0d 00 00
	00 00		 mov	 DWORD PTR fs:__except_list, ecx
  00472	83 c4 14	 add	 esp, 20			; 00000014H
  00475	c2 04 00	 ret	 4
_TEXT	ENDS
;	COMDAT text$x
text$x	SEGMENT
$L226992:
  00000	8b 45 04	 mov	 eax, DWORD PTR $T226989[ebp-4]
  00003	50		 push	 eax
  00004	e8 00 00 00 00	 call	 ??3@YAXPAX@Z		; operator delete
  00009	59		 pop	 ecx
  0000a	c3		 ret	 0
__ehhandler$?Serialize@CItemElem@@UAEXAAVCAr@@@Z:
  0000b	b8 00 00 00 00	 mov	 eax, OFFSET FLAT:$T227252
  00010	e9 00 00 00 00	 jmp	 ___CxxFrameHandler
text$x	ENDS
?Serialize@CItemElem@@UAEXAAVCAr@@@Z ENDP		; CItemElem::Serialize
END
