; Listing generated by Microsoft (R) Optimizing Compiler Version 13.10.6030 

	TITLE	\Documents and Settings\test\Mes documents\Source\Virtuos_v17\Build\Program\_Common\partyquest.cpp
	.386P
include listing.inc
if @Version gt 510
.model FLAT
else
_TEXT	SEGMENT PARA USE32 PUBLIC 'CODE'
_TEXT	ENDS
_DATA	SEGMENT DWORD USE32 PUBLIC 'DATA'
_DATA	ENDS
CONST	SEGMENT DWORD USE32 PUBLIC 'CONST'
CONST	ENDS
_BSS	SEGMENT DWORD USE32 PUBLIC 'BSS'
_BSS	ENDS
$$SYMBOLS	SEGMENT BYTE USE32 'DEBSYM'
$$SYMBOLS	ENDS
$$TYPES	SEGMENT BYTE USE32 'DEBTYP'
$$TYPES	ENDS
_TLS	SEGMENT DWORD USE32 PUBLIC 'TLS'
_TLS	ENDS
;	COMDAT ??_C@_0BI@MGKOPPCK@StartPartyQuestInfo?4txt?$AA@
CONST	SEGMENT DWORD USE32 PUBLIC 'CONST'
CONST	ENDS
;	COMDAT ??_C@_0CF@ECCMBMMP@DATE?5?3?5?$CFd?$CF?42d?$CF?42d?6TIME?5?3?5?$CFd?3?3?$CFd?3@
CONST	SEGMENT DWORD USE32 PUBLIC 'CONST'
CONST	ENDS
;	COMDAT ??_C@_0CO@DHJCABDL@QUEST?5ID?5?$DN?5?$CFd?0?5PARTY?5ID?5?$DN?5?$CFd?0?5WO@
CONST	SEGMENT DWORD USE32 PUBLIC 'CONST'
CONST	ENDS
;	COMDAT ??_C@_01EEMJAFIK@?6?$AA@
CONST	SEGMENT DWORD USE32 PUBLIC 'CONST'
CONST	ENDS
;	COMDAT ??_C@_07CEGMOJAH@?$CFs?$CFs?$CFs?6?$AA@
CONST	SEGMENT DWORD USE32 PUBLIC 'CONST'
CONST	ENDS
text$yd	SEGMENT PARA USE32 PUBLIC 'CODE'
text$yd	ENDS
xdata$x	SEGMENT DWORD USE32 PUBLIC 'CONST'
xdata$x	ENDS
text$AFX_COL1	SEGMENT PARA USE32 PUBLIC ''
text$AFX_COL1	ENDS
;	COMDAT ?GetSizeofMember@CParty@@QAEHXZ
_TEXT	SEGMENT PARA USE32 PUBLIC 'CODE'
_TEXT	ENDS
;	COMDAT ?GetPlayerId@CParty@@QAEKH@Z
_TEXT	SEGMENT PARA USE32 PUBLIC 'CODE'
_TEXT	ENDS
;	COMDAT ?SelectMemberClear@__GuildCombatMember@CGuildCombat@@QAEXXZ
_TEXT	SEGMENT PARA USE32 PUBLIC 'CODE'
_TEXT	ENDS
;	COMDAT ??0__MINIGAME_PACKET@@QAE@GHHH@Z
_TEXT	SEGMENT PARA USE32 PUBLIC 'CODE'
_TEXT	ENDS
;	COMDAT ?Serialize@__MINIGAME_PACKET@@UAEXAAVCAr@@@Z
_TEXT	SEGMENT PARA USE32 PUBLIC 'CODE'
_TEXT	ENDS
;	COMDAT ?Serialize@__MINIGAME_EXT_PACKET@@UAEXAAVCAr@@@Z
_TEXT	SEGMENT PARA USE32 PUBLIC 'CODE'
_TEXT	ENDS
;	COMDAT ??0MINIGMAME_PRIZE_LIST@CRainbowRaceMng@@QAE@KHK@Z
_TEXT	SEGMENT PARA USE32 PUBLIC 'CODE'
_TEXT	ENDS
;	COMDAT ?RemovePlayerId2CampusId@CCampusMng@@QAEXK@Z
_TEXT	SEGMENT PARA USE32 PUBLIC 'CODE'
_TEXT	ENDS
;	COMDAT ?GetPacketSize@CBuffer2@@UAEKPAE@Z
_TEXT	SEGMENT PARA USE32 PUBLIC 'CODE'
_TEXT	ENDS
;	COMDAT ?SetHeader@CBuffer2@@UAEXK@Z
_TEXT	SEGMENT PARA USE32 PUBLIC 'CODE'
_TEXT	ENDS
;	COMDAT ??_GCBuffer2@@UAEPAXI@Z
_TEXT	SEGMENT PARA USE32 PUBLIC 'CODE'
_TEXT	ENDS
;	COMDAT ??1CBuffer2@@UAE@XZ
_TEXT	SEGMENT PARA USE32 PUBLIC 'CODE'
_TEXT	ENDS
;	COMDAT ?IsEmpty@CBufferQueue@@QAEHXZ
_TEXT	SEGMENT PARA USE32 PUBLIC 'CODE'
_TEXT	ENDS
;	COMDAT ??1CMapChild@@UAE@XZ
_TEXT	SEGMENT PARA USE32 PUBLIC 'CODE'
_TEXT	ENDS
;	COMDAT ??_GCMapChild@@UAEPAXI@Z
_TEXT	SEGMENT PARA USE32 PUBLIC 'CODE'
_TEXT	ENDS
;	COMDAT ??1?$map@KPAVCClientSock@@U?$less@K@std@@V?$allocator@U?$pair@$$CBKPAVCClientSock@@@std@@@3@@std@@QAE@XZ
_TEXT	SEGMENT PARA USE32 PUBLIC 'CODE'
_TEXT	ENDS
;	COMDAT ??1CMapChildE@@UAE@XZ
_TEXT	SEGMENT PARA USE32 PUBLIC 'CODE'
_TEXT	ENDS
;	COMDAT ??_GCMapChildE@@UAEPAXI@Z
_TEXT	SEGMENT PARA USE32 PUBLIC 'CODE'
_TEXT	ENDS
;	COMDAT ??1?$map@KPAVCClientSockE@@U?$less@K@std@@V?$allocator@U?$pair@$$CBKPAVCClientSockE@@@std@@@3@@std@@QAE@XZ
_TEXT	SEGMENT PARA USE32 PUBLIC 'CODE'
_TEXT	ENDS
;	COMDAT ?GetRecvHandle@CDPSock@@QAEPAXXZ
_TEXT	SEGMENT PARA USE32 PUBLIC 'CODE'
_TEXT	ENDS
;	COMDAT ??0CPartyQuestProcessor@@QAE@XZ
_TEXT	SEGMENT PARA USE32 PUBLIC 'CODE'
_TEXT	ENDS
;	COMDAT ??0__PARTYQUESTRECT@@QAE@XZ
_TEXT	SEGMENT PARA USE32 PUBLIC 'CODE'
_TEXT	ENDS
;	COMDAT ??1CPartyQuestProcessor@@QAE@XZ
_TEXT	SEGMENT PARA USE32 PUBLIC 'CODE'
_TEXT	ENDS
;	COMDAT ?Process@CPartyQuestProcessor@@QAEXXZ
_TEXT	SEGMENT PARA USE32 PUBLIC 'CODE'
_TEXT	ENDS
;	COMDAT ?RemoveAllDynamicObj@CPartyQuestProcessor@@QAEXKUD3DXVECTOR3@@H@Z
_TEXT	SEGMENT PARA USE32 PUBLIC 'CODE'
_TEXT	ENDS
;	COMDAT ?SetPartyQuest@CPartyQuestProcessor@@QAEXHHHHKK@Z
_TEXT	SEGMENT PARA USE32 PUBLIC 'CODE'
_TEXT	ENDS
;	COMDAT ?SendQuestLimitTime@CPartyQuestProcessor@@QAEXHKK@Z
_TEXT	SEGMENT PARA USE32 PUBLIC 'CODE'
_TEXT	ENDS
;	COMDAT ?GetPartyQuest@CPartyQuestProcessor@@QAEPAU_PARTYQUESTELEM@@H@Z
_TEXT	SEGMENT PARA USE32 PUBLIC 'CODE'
_TEXT	ENDS
;	COMDAT ?GetPartyQuestRect@CPartyQuestProcessor@@QAEPAU__PARTYQUESTRECT@@H@Z
_TEXT	SEGMENT PARA USE32 PUBLIC 'CODE'
_TEXT	ENDS
;	COMDAT ?RemovePartyQuest@CPartyQuestProcessor@@QAEXH@Z
_TEXT	SEGMENT PARA USE32 PUBLIC 'CODE'
_TEXT	ENDS
;	COMDAT ?IsQuesting@CPartyQuestProcessor@@QAEHH@Z
_TEXT	SEGMENT PARA USE32 PUBLIC 'CODE'
_TEXT	ENDS
;	COMDAT ?GetInstance@CPartyQuestProcessor@@SAPAV1@XZ
_TEXT	SEGMENT PARA USE32 PUBLIC 'CODE'
_TEXT	ENDS
;	COMDAT _$E2
text$yd	SEGMENT PARA USE32 PUBLIC 'CODE'
text$yd	ENDS
;	COMDAT ?AddQuestRect@CPartyQuestProcessor@@QAEXHKHHHH@Z
_TEXT	SEGMENT PARA USE32 PUBLIC 'CODE'
_TEXT	ENDS
;	COMDAT ?PtInQuestRect@CPartyQuestProcessor@@QAEHKABUD3DXVECTOR3@@@Z
_TEXT	SEGMENT PARA USE32 PUBLIC 'CODE'
_TEXT	ENDS
;	COMDAT ??Y?$CStringT@DV?$StrTraitMFC@DV?$ChTraitsCRT@D@ATL@@@@@ATL@@QAEAAV01@PBD@Z
_TEXT	SEGMENT PARA USE32 PUBLIC 'CODE'
_TEXT	ENDS
;	COMDAT ?Format@?$CStringT@DV?$StrTraitMFC@DV?$ChTraitsCRT@D@ATL@@@@@ATL@@QAAXPBDZZ
_TEXT	SEGMENT PARA USE32 PUBLIC 'CODE'
_TEXT	ENDS
;	COMDAT ?compare@?$basic_string@DU?$char_traits@D@std@@V?$allocator@D@2@@std@@QBEHABV12@@Z
_TEXT	SEGMENT PARA USE32 PUBLIC 'CODE'
_TEXT	ENDS
;	COMDAT ?IsFull@?$CStack@K@@QAEHXZ
_TEXT	SEGMENT PARA USE32 PUBLIC 'CODE'
_TEXT	ENDS
;	COMDAT ??A?$map@KPAVCCtrl@@U?$less@K@std@@V?$allocator@U?$pair@$$CBKPAVCCtrl@@@std@@@3@@std@@QAEAAPAVCCtrl@@ABK@Z
_TEXT	SEGMENT PARA USE32 PUBLIC 'CODE'
_TEXT	ENDS
;	COMDAT ??0?$pair@KPAVCCtrl@@@std@@QAE@ABKABQAVCCtrl@@@Z
_TEXT	SEGMENT PARA USE32 PUBLIC 'CODE'
_TEXT	ENDS
;	COMDAT ?GetMax@?$CItemContainer@VCItemElem@@@@QAEHXZ
_TEXT	SEGMENT PARA USE32 PUBLIC 'CODE'
_TEXT	ENDS
;	COMDAT ??0?$deque@PAUtagACTMSG@@V?$allocator@PAUtagACTMSG@@@std@@@std@@QAE@XZ
_TEXT	SEGMENT PARA USE32 PUBLIC 'CODE'
_TEXT	ENDS
;	COMDAT ??1?$deque@PAUtagACTMSG@@V?$allocator@PAUtagACTMSG@@@std@@@std@@QAE@XZ
_TEXT	SEGMENT PARA USE32 PUBLIC 'CODE'
_TEXT	ENDS
;	COMDAT ?begin@?$deque@PAUtagACTMSG@@V?$allocator@PAUtagACTMSG@@@std@@@std@@QAE?AViterator@12@XZ
_TEXT	SEGMENT PARA USE32 PUBLIC 'CODE'
_TEXT	ENDS
;	COMDAT ?end@?$deque@PAUtagACTMSG@@V?$allocator@PAUtagACTMSG@@@std@@@std@@QAE?AViterator@12@XZ
_TEXT	SEGMENT PARA USE32 PUBLIC 'CODE'
_TEXT	ENDS
;	COMDAT ?empty@?$deque@PAUtagACTMSG@@V?$allocator@PAUtagACTMSG@@@std@@@std@@QBE_NXZ
_TEXT	SEGMENT PARA USE32 PUBLIC 'CODE'
_TEXT	ENDS
;	COMDAT ?clear@?$deque@PAUtagACTMSG@@V?$allocator@PAUtagACTMSG@@@std@@@std@@QAEXXZ
_TEXT	SEGMENT PARA USE32 PUBLIC 'CODE'
_TEXT	ENDS
;	COMDAT ??0?$deque@PAUtagMAGICATKMSG@@V?$allocator@PAUtagMAGICATKMSG@@@std@@@std@@QAE@XZ
_TEXT	SEGMENT PARA USE32 PUBLIC 'CODE'
_TEXT	ENDS
;	COMDAT ??1?$deque@PAUtagMAGICATKMSG@@V?$allocator@PAUtagMAGICATKMSG@@@std@@@std@@QAE@XZ
_TEXT	SEGMENT PARA USE32 PUBLIC 'CODE'
_TEXT	ENDS
;	COMDAT ?begin@?$deque@PAUtagMAGICATKMSG@@V?$allocator@PAUtagMAGICATKMSG@@@std@@@std@@QAE?AViterator@12@XZ
_TEXT	SEGMENT PARA USE32 PUBLIC 'CODE'
_TEXT	ENDS
;	COMDAT ?end@?$deque@PAUtagMAGICATKMSG@@V?$allocator@PAUtagMAGICATKMSG@@@std@@@std@@QAE?AViterator@12@XZ
_TEXT	SEGMENT PARA USE32 PUBLIC 'CODE'
_TEXT	ENDS
;	COMDAT ?empty@?$deque@PAUtagMAGICATKMSG@@V?$allocator@PAUtagMAGICATKMSG@@@std@@@std@@QBE_NXZ
_TEXT	SEGMENT PARA USE32 PUBLIC 'CODE'
_TEXT	ENDS
;	COMDAT ?clear@?$deque@PAUtagMAGICATKMSG@@V?$allocator@PAUtagMAGICATKMSG@@@std@@@std@@QAEXXZ
_TEXT	SEGMENT PARA USE32 PUBLIC 'CODE'
_TEXT	ENDS
;	COMDAT ??Diterator@?$deque@PAUtagACTMSG@@V?$allocator@PAUtagACTMSG@@@std@@@std@@QBEAAPAUtagACTMSG@@XZ
_TEXT	SEGMENT PARA USE32 PUBLIC 'CODE'
_TEXT	ENDS
;	COMDAT ??Eiterator@?$deque@PAUtagACTMSG@@V?$allocator@PAUtagACTMSG@@@std@@@std@@QAEAAV012@XZ
_TEXT	SEGMENT PARA USE32 PUBLIC 'CODE'
_TEXT	ENDS
;	COMDAT ??9const_iterator@?$deque@PAUtagACTMSG@@V?$allocator@PAUtagACTMSG@@@std@@@std@@QBE_NABV012@@Z
_TEXT	SEGMENT PARA USE32 PUBLIC 'CODE'
_TEXT	ENDS
;	COMDAT ??Diterator@?$deque@PAUtagMAGICATKMSG@@V?$allocator@PAUtagMAGICATKMSG@@@std@@@std@@QBEAAPAUtagMAGICATKMSG@@XZ
_TEXT	SEGMENT PARA USE32 PUBLIC 'CODE'
_TEXT	ENDS
;	COMDAT ??Eiterator@?$deque@PAUtagMAGICATKMSG@@V?$allocator@PAUtagMAGICATKMSG@@@std@@@std@@QAEAAV012@XZ
_TEXT	SEGMENT PARA USE32 PUBLIC 'CODE'
_TEXT	ENDS
;	COMDAT ??9const_iterator@?$deque@PAUtagMAGICATKMSG@@V?$allocator@PAUtagMAGICATKMSG@@@std@@@std@@QBE_NABV012@@Z
_TEXT	SEGMENT PARA USE32 PUBLIC 'CODE'
_TEXT	ENDS
;	COMDAT ?erase@?$_Tree@V?$_Tmap_traits@KU_Friend@@U?$less@K@std@@V?$allocator@U?$pair@$$CBKU_Friend@@@std@@@3@$0A@@std@@@std@@QAEIABK@Z
_TEXT	SEGMENT PARA USE32 PUBLIC 'CODE'
_TEXT	ENDS
;	COMDAT ?size@?$_Tree@V?$_Tmap_traits@KPAVCGuildMember@@U?$less@K@std@@V?$allocator@U?$pair@$$CBKPAVCGuildMember@@@std@@@3@$0A@@std@@@std@@QBEIXZ
_TEXT	SEGMENT PARA USE32 PUBLIC 'CODE'
_TEXT	ENDS
;	COMDAT ?size@?$_Tree@V?$_Tmap_traits@KPAVCGuild@@U?$less@K@std@@V?$allocator@U?$pair@$$CBKPAVCGuild@@@std@@@3@$0A@@std@@@std@@QBEIXZ
_TEXT	SEGMENT PARA USE32 PUBLIC 'CODE'
_TEXT	ENDS
;	COMDAT ?size@?$vector@PAU__JOINPLAYER@CGuildCombat@@V?$allocator@PAU__JOINPLAYER@CGuildCombat@@@std@@@std@@QBEIXZ
_TEXT	SEGMENT PARA USE32 PUBLIC 'CODE'
_TEXT	ENDS
;	COMDAT ??A?$vector@PAU__JOINPLAYER@CGuildCombat@@V?$allocator@PAU__JOINPLAYER@CGuildCombat@@@std@@@std@@QAEAAPAU__JOINPLAYER@CGuildCombat@@I@Z
_TEXT	SEGMENT PARA USE32 PUBLIC 'CODE'
_TEXT	ENDS
;	COMDAT ?clear@?$vector@PAU__JOINPLAYER@CGuildCombat@@V?$allocator@PAU__JOINPLAYER@CGuildCombat@@@std@@@std@@QAEXXZ
_TEXT	SEGMENT PARA USE32 PUBLIC 'CODE'
_TEXT	ENDS
;	COMDAT ?clear@?$list@PAU__JOINPLAYER@CGuildCombat@@V?$allocator@PAU__JOINPLAYER@CGuildCombat@@@std@@@std@@QAEXXZ
_TEXT	SEGMENT PARA USE32 PUBLIC 'CODE'
_TEXT	ENDS
;	COMDAT ?size@?$_Tree@V?$_Tmap_traits@KPAU_PlayerData@@U?$less@K@std@@V?$allocator@U?$pair@$$CBKPAU_PlayerData@@@std@@@3@$0A@@std@@@std@@QBEIXZ
_TEXT	SEGMENT PARA USE32 PUBLIC 'CODE'
_TEXT	ENDS
;	COMDAT ??0?$vector@U__SECRETROOM_MONSTER@@V?$allocator@U__SECRETROOM_MONSTER@@@std@@@std@@QAE@XZ
_TEXT	SEGMENT PARA USE32 PUBLIC 'CODE'
_TEXT	ENDS
;	COMDAT ??1?$vector@U__SECRETROOM_MONSTER@@V?$allocator@U__SECRETROOM_MONSTER@@@std@@@std@@QAE@XZ
_TEXT	SEGMENT PARA USE32 PUBLIC 'CODE'
_TEXT	ENDS
;	COMDAT ??0?$vector@V?$basic_string@DU?$char_traits@D@std@@V?$allocator@D@2@@std@@V?$allocator@V?$basic_string@DU?$char_traits@D@std@@V?$allocator@D@2@@std@@@2@@std@@QAE@XZ
_TEXT	SEGMENT PARA USE32 PUBLIC 'CODE'
_TEXT	ENDS
;	COMDAT ??1?$vector@V?$basic_string@DU?$char_traits@D@std@@V?$allocator@D@2@@std@@V?$allocator@V?$basic_string@DU?$char_traits@D@std@@V?$allocator@D@2@@std@@@2@@std@@QAE@XZ
_TEXT	SEGMENT PARA USE32 PUBLIC 'CODE'
_TEXT	ENDS
;	COMDAT ?size@?$vector@V?$basic_string@DU?$char_traits@D@std@@V?$allocator@D@2@@std@@V?$allocator@V?$basic_string@DU?$char_traits@D@std@@V?$allocator@D@2@@std@@@2@@std@@QBEIXZ
_TEXT	SEGMENT PARA USE32 PUBLIC 'CODE'
_TEXT	ENDS
;	COMDAT ??A?$vector@V?$basic_string@DU?$char_traits@D@std@@V?$allocator@D@2@@std@@V?$allocator@V?$basic_string@DU?$char_traits@D@std@@V?$allocator@D@2@@std@@@2@@std@@QAEAAV?$basic_string@DU?$char_traits@D@std@@V?$allocator@D@2@@1@I@Z
_TEXT	SEGMENT PARA USE32 PUBLIC 'CODE'
_TEXT	ENDS
;	COMDAT ?push_back@?$vector@V?$basic_string@DU?$char_traits@D@std@@V?$allocator@D@2@@std@@V?$allocator@V?$basic_string@DU?$char_traits@D@std@@V?$allocator@D@2@@std@@@2@@std@@QAEXABV?$basic_string@DU?$char_traits@D@std@@V?$allocator@D@2@@2@@Z
_TEXT	SEGMENT PARA USE32 PUBLIC 'CODE'
_TEXT	ENDS
;	COMDAT ?clear@?$vector@V?$basic_string@DU?$char_traits@D@std@@V?$allocator@D@2@@std@@V?$allocator@V?$basic_string@DU?$char_traits@D@std@@V?$allocator@D@2@@std@@@2@@std@@QAEXXZ
_TEXT	SEGMENT PARA USE32 PUBLIC 'CODE'
_TEXT	ENDS
;	COMDAT ?push_back@?$vector@UMINIGMAME_PRIZE_LIST@CRainbowRaceMng@@V?$allocator@UMINIGMAME_PRIZE_LIST@CRainbowRaceMng@@@std@@@std@@QAEXABUMINIGMAME_PRIZE_LIST@CRainbowRaceMng@@@Z
_TEXT	SEGMENT PARA USE32 PUBLIC 'CODE'
_TEXT	ENDS
;	COMDAT ?size@?$_Tree@V?$_Tmap_traits@KPAVCRainbowRace@@U?$less@K@std@@V?$allocator@U?$pair@$$CBKPAVCRainbowRace@@@std@@@3@$0A@@std@@@std@@QBEIXZ
_TEXT	SEGMENT PARA USE32 PUBLIC 'CODE'
_TEXT	ENDS
;	COMDAT ?size@?$vector@PAVCMiniGameBase@@V?$allocator@PAVCMiniGameBase@@@std@@@std@@QBEIXZ
_TEXT	SEGMENT PARA USE32 PUBLIC 'CODE'
_TEXT	ENDS
;	COMDAT ??A?$vector@PAVCMiniGameBase@@V?$allocator@PAVCMiniGameBase@@@std@@@std@@QAEAAPAVCMiniGameBase@@I@Z
_TEXT	SEGMENT PARA USE32 PUBLIC 'CODE'
_TEXT	ENDS
;	COMDAT ?size@?$vector@UGuildHouse_Furniture_Info@CGuildHouseBase@@V?$allocator@UGuildHouse_Furniture_Info@CGuildHouseBase@@@std@@@std@@QBEIXZ
_TEXT	SEGMENT PARA USE32 PUBLIC 'CODE'
_TEXT	ENDS
;	COMDAT ??A?$vector@UGuildHouse_Furniture_Info@CGuildHouseBase@@V?$allocator@UGuildHouse_Furniture_Info@CGuildHouseBase@@@std@@@std@@QAEAAUGuildHouse_Furniture_Info@CGuildHouseBase@@I@Z
_TEXT	SEGMENT PARA USE32 PUBLIC 'CODE'
_TEXT	ENDS
;	COMDAT ?empty@?$_Tree@V?$_Tmap_traits@KPAVCGuildHouseBase@@U?$less@K@std@@V?$allocator@U?$pair@$$CBKPAVCGuildHouseBase@@@std@@@3@$0A@@std@@@std@@QBE_NXZ
_TEXT	SEGMENT PARA USE32 PUBLIC 'CODE'
_TEXT	ENDS
;	COMDAT ?insert@?$_Tree@V?$_Tmap_traits@KPAVCGuildHouseBase@@U?$less@K@std@@V?$allocator@U?$pair@$$CBKPAVCGuildHouseBase@@@std@@@3@$0A@@std@@@std@@QAE?AU?$pair@Viterator@?$_Tree@V?$_Tmap_traits@KPAVCGuildHouseBase@@U?$less@K@std@@V?$allocator@U?$pair@$$CBKPAVCGuildHouseBase@@@std@@@3@$0A@@std@@@std@@_N@2@ABU?$pair@$$CBKPAVCGuildHouseBase@@@2@@Z
_TEXT	SEGMENT PARA USE32 PUBLIC 'CODE'
_TEXT	ENDS
;	COMDAT ?size@?$_Tree@V?$_Tmap_traits@KPAVCCampusMember@@U?$less@K@std@@V?$allocator@U?$pair@$$CBKPAVCCampusMember@@@std@@@3@$0A@@std@@@std@@QBEIXZ
_TEXT	SEGMENT PARA USE32 PUBLIC 'CODE'
_TEXT	ENDS
;	COMDAT ?empty@?$_Tree@V?$_Tmap_traits@KPAVCCampus@@U?$less@K@std@@V?$allocator@U?$pair@$$CBKPAVCCampus@@@std@@@3@$0A@@std@@@std@@QBE_NXZ
_TEXT	SEGMENT PARA USE32 PUBLIC 'CODE'
_TEXT	ENDS
;	COMDAT ?erase@?$_Tree@V?$_Tmap_traits@KKU?$less@K@std@@V?$allocator@U?$pair@$$CBKK@std@@@2@$0A@@std@@@std@@QAEIABK@Z
_TEXT	SEGMENT PARA USE32 PUBLIC 'CODE'
_TEXT	ENDS
;	COMDAT ??0?$map@KPAVCClientSock@@U?$less@K@std@@V?$allocator@U?$pair@$$CBKPAVCClientSock@@@std@@@3@@std@@QAE@XZ
_TEXT	SEGMENT PARA USE32 PUBLIC 'CODE'
_TEXT	ENDS
;	COMDAT ??1?$_Tree@V?$_Tmap_traits@KPAVCClientSock@@U?$less@K@std@@V?$allocator@U?$pair@$$CBKPAVCClientSock@@@std@@@3@$0A@@std@@@std@@QAE@XZ
_TEXT	SEGMENT PARA USE32 PUBLIC 'CODE'
_TEXT	ENDS
;	COMDAT ?end@?$_Tree@V?$_Tmap_traits@KPAVCClientSock@@U?$less@K@std@@V?$allocator@U?$pair@$$CBKPAVCClientSock@@@std@@@3@$0A@@std@@@std@@QAE?AViterator@12@XZ
_TEXT	SEGMENT PARA USE32 PUBLIC 'CODE'
_TEXT	ENDS
;	COMDAT ?find@?$_Tree@V?$_Tmap_traits@KPAVCClientSock@@U?$less@K@std@@V?$allocator@U?$pair@$$CBKPAVCClientSock@@@std@@@3@$0A@@std@@@std@@QAE?AViterator@12@ABK@Z
_TEXT	SEGMENT PARA USE32 PUBLIC 'CODE'
_TEXT	ENDS
;	COMDAT ??Citerator@?$_Tree@V?$_Tmap_traits@KPAVCClientSock@@U?$less@K@std@@V?$allocator@U?$pair@$$CBKPAVCClientSock@@@std@@@3@$0A@@std@@@std@@QBEPAU?$pair@$$CBKPAVCClientSock@@@2@XZ
_TEXT	SEGMENT PARA USE32 PUBLIC 'CODE'
_TEXT	ENDS
;	COMDAT ??9const_iterator@?$_Tree@V?$_Tmap_traits@KPAVCClientSock@@U?$less@K@std@@V?$allocator@U?$pair@$$CBKPAVCClientSock@@@std@@@3@$0A@@std@@@std@@QBE_NABV012@@Z
_TEXT	SEGMENT PARA USE32 PUBLIC 'CODE'
_TEXT	ENDS
;	COMDAT ??0?$map@KPAVCClientSockE@@U?$less@K@std@@V?$allocator@U?$pair@$$CBKPAVCClientSockE@@@std@@@3@@std@@QAE@XZ
_TEXT	SEGMENT PARA USE32 PUBLIC 'CODE'
_TEXT	ENDS
;	COMDAT ??1?$_Tree@V?$_Tmap_traits@KPAVCClientSockE@@U?$less@K@std@@V?$allocator@U?$pair@$$CBKPAVCClientSockE@@@std@@@3@$0A@@std@@@std@@QAE@XZ
_TEXT	SEGMENT PARA USE32 PUBLIC 'CODE'
_TEXT	ENDS
;	COMDAT ?end@?$_Tree@V?$_Tmap_traits@KPAVCClientSockE@@U?$less@K@std@@V?$allocator@U?$pair@$$CBKPAVCClientSockE@@@std@@@3@$0A@@std@@@std@@QAE?AViterator@12@XZ
_TEXT	SEGMENT PARA USE32 PUBLIC 'CODE'
_TEXT	ENDS
;	COMDAT ?find@?$_Tree@V?$_Tmap_traits@KPAVCClientSockE@@U?$less@K@std@@V?$allocator@U?$pair@$$CBKPAVCClientSockE@@@std@@@3@$0A@@std@@@std@@QAE?AViterator@12@ABK@Z
_TEXT	SEGMENT PARA USE32 PUBLIC 'CODE'
_TEXT	ENDS
;	COMDAT ??Citerator@?$_Tree@V?$_Tmap_traits@KPAVCClientSockE@@U?$less@K@std@@V?$allocator@U?$pair@$$CBKPAVCClientSockE@@@std@@@3@$0A@@std@@@std@@QBEPAU?$pair@$$CBKPAVCClientSockE@@@2@XZ
_TEXT	SEGMENT PARA USE32 PUBLIC 'CODE'
_TEXT	ENDS
;	COMDAT ??9const_iterator@?$_Tree@V?$_Tmap_traits@KPAVCClientSockE@@U?$less@K@std@@V?$allocator@U?$pair@$$CBKPAVCClientSockE@@@std@@@3@$0A@@std@@@std@@QBE_NABV012@@Z
_TEXT	SEGMENT PARA USE32 PUBLIC 'CODE'
_TEXT	ENDS
;	COMDAT ?end@?$_Tree@V?$_Tmap_traits@KP8CDPDatabaseClient@@AEXAAVCAr@@KK@ZU?$less@K@std@@V?$allocator@U?$pair@$$CBKP8CDPDatabaseClient@@AEXAAVCAr@@KK@Z@std@@@4@$0A@@std@@@std@@QAE?AViterator@12@XZ
_TEXT	SEGMENT PARA USE32 PUBLIC 'CODE'
_TEXT	ENDS
;	COMDAT ?find@?$_Tree@V?$_Tmap_traits@KP8CDPDatabaseClient@@AEXAAVCAr@@KK@ZU?$less@K@std@@V?$allocator@U?$pair@$$CBKP8CDPDatabaseClient@@AEXAAVCAr@@KK@Z@std@@@4@$0A@@std@@@std@@QAE?AViterator@12@ABK@Z
_TEXT	SEGMENT PARA USE32 PUBLIC 'CODE'
_TEXT	ENDS
;	COMDAT ??Citerator@?$_Tree@V?$_Tmap_traits@KP8CDPDatabaseClient@@AEXAAVCAr@@KK@ZU?$less@K@std@@V?$allocator@U?$pair@$$CBKP8CDPDatabaseClient@@AEXAAVCAr@@KK@Z@std@@@4@$0A@@std@@@std@@QBEPAU?$pair@$$CBKP8CDPDatabaseClient@@AEXAAVCAr@@KK@Z@2@XZ
_TEXT	SEGMENT PARA USE32 PUBLIC 'CODE'
_TEXT	ENDS
;	COMDAT ??9const_iterator@?$_Tree@V?$_Tmap_traits@KP8CDPDatabaseClient@@AEXAAVCAr@@KK@ZU?$less@K@std@@V?$allocator@U?$pair@$$CBKP8CDPDatabaseClient@@AEXAAVCAr@@KK@Z@std@@@4@$0A@@std@@@std@@QBE_NABV012@@Z
_TEXT	SEGMENT PARA USE32 PUBLIC 'CODE'
_TEXT	ENDS
;	COMDAT ?FormatV@?$CStringT@DV?$StrTraitMFC@DV?$ChTraitsCRT@D@ATL@@@@@ATL@@QAEXPBDPAD@Z
_TEXT	SEGMENT PARA USE32 PUBLIC 'CODE'
_TEXT	ENDS
;	COMDAT ??Y?$CSimpleStringT@D$0A@@ATL@@QAEAAV01@PBD@Z
_TEXT	SEGMENT PARA USE32 PUBLIC 'CODE'
_TEXT	ENDS
;	COMDAT ?compare@?$basic_string@DU?$char_traits@D@std@@V?$allocator@D@2@@std@@QBEHIIPBDI@Z
_TEXT	SEGMENT PARA USE32 PUBLIC 'CODE'
_TEXT	ENDS
;	COMDAT ??0?$allocator@V?$basic_string@DU?$char_traits@D@std@@V?$allocator@D@2@@std@@@std@@QAE@XZ
_TEXT	SEGMENT PARA USE32 PUBLIC 'CODE'
_TEXT	ENDS
;	COMDAT ?insert@?$_Tree@V?$_Tmap_traits@KPAVCCtrl@@U?$less@K@std@@V?$allocator@U?$pair@$$CBKPAVCCtrl@@@std@@@3@$0A@@std@@@std@@QAE?AViterator@12@V312@ABU?$pair@$$CBKPAVCCtrl@@@2@@Z
_TEXT	SEGMENT PARA USE32 PUBLIC 'CODE'
_TEXT	ENDS
;	COMDAT ??0?$pair@$$CBKPAVCCtrl@@@std@@QAE@ABKABQAVCCtrl@@@Z
_TEXT	SEGMENT PARA USE32 PUBLIC 'CODE'
_TEXT	ENDS
;	COMDAT ?_Tidy@?$deque@PAUtagACTMSG@@V?$allocator@PAUtagACTMSG@@@std@@@std@@IAEXXZ
_TEXT	SEGMENT PARA USE32 PUBLIC 'CODE'
_TEXT	ENDS
;	COMDAT ??0?$_Deque_val@PAUtagACTMSG@@V?$allocator@PAUtagACTMSG@@@std@@@std@@IAE@V?$allocator@PAUtagACTMSG@@@1@@Z
_TEXT	SEGMENT PARA USE32 PUBLIC 'CODE'
_TEXT	ENDS
;	COMDAT ??0?$allocator@PAUtagACTMSG@@@std@@QAE@XZ
_TEXT	SEGMENT PARA USE32 PUBLIC 'CODE'
_TEXT	ENDS
;	COMDAT ?_Tidy@?$deque@PAUtagMAGICATKMSG@@V?$allocator@PAUtagMAGICATKMSG@@@std@@@std@@IAEXXZ
_TEXT	SEGMENT PARA USE32 PUBLIC 'CODE'
_TEXT	ENDS
;	COMDAT ??0?$_Deque_val@PAUtagMAGICATKMSG@@V?$allocator@PAUtagMAGICATKMSG@@@std@@@std@@IAE@V?$allocator@PAUtagMAGICATKMSG@@@1@@Z
_TEXT	SEGMENT PARA USE32 PUBLIC 'CODE'
_TEXT	ENDS
;	COMDAT ??0?$allocator@PAUtagMAGICATKMSG@@@std@@QAE@XZ
_TEXT	SEGMENT PARA USE32 PUBLIC 'CODE'
_TEXT	ENDS
;	COMDAT ??0iterator@?$deque@PAUtagACTMSG@@V?$allocator@PAUtagACTMSG@@@std@@@std@@QAE@IPBV12@@Z
_TEXT	SEGMENT PARA USE32 PUBLIC 'CODE'
_TEXT	ENDS
;	COMDAT ??Dconst_iterator@?$deque@PAUtagACTMSG@@V?$allocator@PAUtagACTMSG@@@std@@@std@@QBEABQAUtagACTMSG@@XZ
_TEXT	SEGMENT PARA USE32 PUBLIC 'CODE'
_TEXT	ENDS
;	COMDAT ??8const_iterator@?$deque@PAUtagACTMSG@@V?$allocator@PAUtagACTMSG@@@std@@@std@@QBE_NABV012@@Z
_TEXT	SEGMENT PARA USE32 PUBLIC 'CODE'
_TEXT	ENDS
;	COMDAT ??0iterator@?$deque@PAUtagMAGICATKMSG@@V?$allocator@PAUtagMAGICATKMSG@@@std@@@std@@QAE@IPBV12@@Z
_TEXT	SEGMENT PARA USE32 PUBLIC 'CODE'
_TEXT	ENDS
;	COMDAT ??Dconst_iterator@?$deque@PAUtagMAGICATKMSG@@V?$allocator@PAUtagMAGICATKMSG@@@std@@@std@@QBEABQAUtagMAGICATKMSG@@XZ
_TEXT	SEGMENT PARA USE32 PUBLIC 'CODE'
_TEXT	ENDS
;	COMDAT ??8const_iterator@?$deque@PAUtagMAGICATKMSG@@V?$allocator@PAUtagMAGICATKMSG@@@std@@@std@@QBE_NABV012@@Z
_TEXT	SEGMENT PARA USE32 PUBLIC 'CODE'
_TEXT	ENDS
;	COMDAT ?erase@?$_Tree@V?$_Tmap_traits@KU_Friend@@U?$less@K@std@@V?$allocator@U?$pair@$$CBKU_Friend@@@std@@@3@$0A@@std@@@std@@QAE?AViterator@12@V312@0@Z
_TEXT	SEGMENT PARA USE32 PUBLIC 'CODE'
_TEXT	ENDS
;	COMDAT ?equal_range@?$_Tree@V?$_Tmap_traits@KU_Friend@@U?$less@K@std@@V?$allocator@U?$pair@$$CBKU_Friend@@@std@@@3@$0A@@std@@@std@@QAE?AU?$pair@Viterator@?$_Tree@V?$_Tmap_traits@KU_Friend@@U?$less@K@std@@V?$allocator@U?$pair@$$CBKU_Friend@@@std@@@3@$0A@@std@@@std@@V123@@2@ABK@Z
_TEXT	SEGMENT PARA USE32 PUBLIC 'CODE'
_TEXT	ENDS
;	COMDAT ?begin@?$vector@PAU__JOINPLAYER@CGuildCombat@@V?$allocator@PAU__JOINPLAYER@CGuildCombat@@@std@@@std@@QAE?AViterator@12@XZ
_TEXT	SEGMENT PARA USE32 PUBLIC 'CODE'
_TEXT	ENDS
;	COMDAT ?_Tidy@?$vector@PAU__JOINPLAYER@CGuildCombat@@V?$allocator@PAU__JOINPLAYER@CGuildCombat@@@std@@@std@@IAEXXZ
_TEXT	SEGMENT PARA USE32 PUBLIC 'CODE'
_TEXT	ENDS
;	COMDAT ?_Nextnode@?$list@PAU__JOINPLAYER@CGuildCombat@@V?$allocator@PAU__JOINPLAYER@CGuildCombat@@@std@@@std@@KAAAPAU_Node@?$_List_nod@PAU__JOINPLAYER@CGuildCombat@@V?$allocator@PAU__JOINPLAYER@CGuildCombat@@@std@@@2@PAU342@@Z
_TEXT	SEGMENT PARA USE32 PUBLIC 'CODE'
_TEXT	ENDS
;	COMDAT ?_Prevnode@?$list@PAU__JOINPLAYER@CGuildCombat@@V?$allocator@PAU__JOINPLAYER@CGuildCombat@@@std@@@std@@KAAAPAU_Node@?$_List_nod@PAU__JOINPLAYER@CGuildCombat@@V?$allocator@PAU__JOINPLAYER@CGuildCombat@@@std@@@2@PAU342@@Z
_TEXT	SEGMENT PARA USE32 PUBLIC 'CODE'
_TEXT	ENDS
;	COMDAT ?deallocate@?$allocator@U_Node@?$_List_nod@PAU__JOINPLAYER@CGuildCombat@@V?$allocator@PAU__JOINPLAYER@CGuildCombat@@@std@@@std@@@std@@QAEXPAU_Node@?$_List_nod@PAU__JOINPLAYER@CGuildCombat@@V?$allocator@PAU__JOINPLAYER@CGuildCombat@@@std@@@2@I@Z
_TEXT	SEGMENT PARA USE32 PUBLIC 'CODE'
_TEXT	ENDS
;	COMDAT ?destroy@?$allocator@U_Node@?$_List_nod@PAU__JOINPLAYER@CGuildCombat@@V?$allocator@PAU__JOINPLAYER@CGuildCombat@@@std@@@std@@@std@@QAEXPAU_Node@?$_List_nod@PAU__JOINPLAYER@CGuildCombat@@V?$allocator@PAU__JOINPLAYER@CGuildCombat@@@std@@@2@@Z
_TEXT	SEGMENT PARA USE32 PUBLIC 'CODE'
_TEXT	ENDS
;	COMDAT ?_Buy@?$vector@U__SECRETROOM_MONSTER@@V?$allocator@U__SECRETROOM_MONSTER@@@std@@@std@@IAE_NI@Z
_TEXT	SEGMENT PARA USE32 PUBLIC 'CODE'
_TEXT	ENDS
;	COMDAT ?_Tidy@?$vector@U__SECRETROOM_MONSTER@@V?$allocator@U__SECRETROOM_MONSTER@@@std@@@std@@IAEXXZ
_TEXT	SEGMENT PARA USE32 PUBLIC 'CODE'
_TEXT	ENDS
;	COMDAT ??0?$_Vector_val@U__SECRETROOM_MONSTER@@V?$allocator@U__SECRETROOM_MONSTER@@@std@@@std@@IAE@V?$allocator@U__SECRETROOM_MONSTER@@@1@@Z
_TEXT	SEGMENT PARA USE32 PUBLIC 'CODE'
_TEXT	ENDS
;	COMDAT ??0?$allocator@U__SECRETROOM_MONSTER@@@std@@QAE@XZ
_TEXT	SEGMENT PARA USE32 PUBLIC 'CODE'
_TEXT	ENDS
;	COMDAT ?capacity@?$vector@V?$basic_string@DU?$char_traits@D@std@@V?$allocator@D@2@@std@@V?$allocator@V?$basic_string@DU?$char_traits@D@std@@V?$allocator@D@2@@std@@@2@@std@@QBEIXZ
_TEXT	SEGMENT PARA USE32 PUBLIC 'CODE'
_TEXT	ENDS
;	COMDAT ?begin@?$vector@V?$basic_string@DU?$char_traits@D@std@@V?$allocator@D@2@@std@@V?$allocator@V?$basic_string@DU?$char_traits@D@std@@V?$allocator@D@2@@std@@@2@@std@@QAE?AViterator@12@XZ
_TEXT	SEGMENT PARA USE32 PUBLIC 'CODE'
_TEXT	ENDS
;	COMDAT ?end@?$vector@V?$basic_string@DU?$char_traits@D@std@@V?$allocator@D@2@@std@@V?$allocator@V?$basic_string@DU?$char_traits@D@std@@V?$allocator@D@2@@std@@@2@@std@@QAE?AViterator@12@XZ
_TEXT	SEGMENT PARA USE32 PUBLIC 'CODE'
_TEXT	ENDS
;	COMDAT ?insert@?$vector@V?$basic_string@DU?$char_traits@D@std@@V?$allocator@D@2@@std@@V?$allocator@V?$basic_string@DU?$char_traits@D@std@@V?$allocator@D@2@@std@@@2@@std@@QAE?AViterator@12@V312@ABV?$basic_string@DU?$char_traits@D@std@@V?$allocator@D@2@@2@@Z
_TEXT	SEGMENT PARA USE32 PUBLIC 'CODE'
_TEXT	ENDS
;	COMDAT ?_Buy@?$vector@V?$basic_string@DU?$char_traits@D@std@@V?$allocator@D@2@@std@@V?$allocator@V?$basic_string@DU?$char_traits@D@std@@V?$allocator@D@2@@std@@@2@@std@@IAE_NI@Z
_TEXT	SEGMENT PARA USE32 PUBLIC 'CODE'
_TEXT	ENDS
;	COMDAT ?_Tidy@?$vector@V?$basic_string@DU?$char_traits@D@std@@V?$allocator@D@2@@std@@V?$allocator@V?$basic_string@DU?$char_traits@D@std@@V?$allocator@D@2@@std@@@2@@std@@IAEXXZ
_TEXT	SEGMENT PARA USE32 PUBLIC 'CODE'
_TEXT	ENDS
;	COMDAT ?_Ufill@?$vector@V?$basic_string@DU?$char_traits@D@std@@V?$allocator@D@2@@std@@V?$allocator@V?$basic_string@DU?$char_traits@D@std@@V?$allocator@D@2@@std@@@2@@std@@IAEPAV?$basic_string@DU?$char_traits@D@std@@V?$allocator@D@2@@2@PAV32@IABV32@@Z
_TEXT	SEGMENT PARA USE32 PUBLIC 'CODE'
_TEXT	ENDS
;	COMDAT ??0?$_Vector_val@V?$basic_string@DU?$char_traits@D@std@@V?$allocator@D@2@@std@@V?$allocator@V?$basic_string@DU?$char_traits@D@std@@V?$allocator@D@2@@std@@@2@@std@@IAE@V?$allocator@V?$basic_string@DU?$char_traits@D@std@@V?$allocator@D@2@@std@@@1@@Z
_TEXT	SEGMENT PARA USE32 PUBLIC 'CODE'
_TEXT	ENDS
;	COMDAT ?capacity@?$vector@UMINIGMAME_PRIZE_LIST@CRainbowRaceMng@@V?$allocator@UMINIGMAME_PRIZE_LIST@CRainbowRaceMng@@@std@@@std@@QBEIXZ
_TEXT	SEGMENT PARA USE32 PUBLIC 'CODE'
_TEXT	ENDS
;	COMDAT ?end@?$vector@UMINIGMAME_PRIZE_LIST@CRainbowRaceMng@@V?$allocator@UMINIGMAME_PRIZE_LIST@CRainbowRaceMng@@@std@@@std@@QAE?AViterator@12@XZ
_TEXT	SEGMENT PARA USE32 PUBLIC 'CODE'
_TEXT	ENDS
;	COMDAT ?size@?$vector@UMINIGMAME_PRIZE_LIST@CRainbowRaceMng@@V?$allocator@UMINIGMAME_PRIZE_LIST@CRainbowRaceMng@@@std@@@std@@QBEIXZ
_TEXT	SEGMENT PARA USE32 PUBLIC 'CODE'
_TEXT	ENDS
;	COMDAT ?insert@?$vector@UMINIGMAME_PRIZE_LIST@CRainbowRaceMng@@V?$allocator@UMINIGMAME_PRIZE_LIST@CRainbowRaceMng@@@std@@@std@@QAE?AViterator@12@V312@ABUMINIGMAME_PRIZE_LIST@CRainbowRaceMng@@@Z
_TEXT	SEGMENT PARA USE32 PUBLIC 'CODE'
_TEXT	ENDS
;	COMDAT ?_Ufill@?$vector@UMINIGMAME_PRIZE_LIST@CRainbowRaceMng@@V?$allocator@UMINIGMAME_PRIZE_LIST@CRainbowRaceMng@@@std@@@std@@IAEPAUMINIGMAME_PRIZE_LIST@CRainbowRaceMng@@PAU34@IABU34@@Z
_TEXT	SEGMENT PARA USE32 PUBLIC 'CODE'
_TEXT	ENDS
;	COMDAT ?begin@?$vector@PAVCMiniGameBase@@V?$allocator@PAVCMiniGameBase@@@std@@@std@@QAE?AViterator@12@XZ
_TEXT	SEGMENT PARA USE32 PUBLIC 'CODE'
_TEXT	ENDS
;	COMDAT ?begin@?$vector@UGuildHouse_Furniture_Info@CGuildHouseBase@@V?$allocator@UGuildHouse_Furniture_Info@CGuildHouseBase@@@std@@@std@@QAE?AViterator@12@XZ
_TEXT	SEGMENT PARA USE32 PUBLIC 'CODE'
_TEXT	ENDS
;	COMDAT ?_Isnil@?$_Tree@V?$_Tmap_traits@KPAVCGuildHouseBase@@U?$less@K@std@@V?$allocator@U?$pair@$$CBKPAVCGuildHouseBase@@@std@@@3@$0A@@std@@@std@@KAAADPAU_Node@?$_Tree_nod@V?$_Tmap_traits@KPAVCGuildHouseBase@@U?$less@K@std@@V?$allocator@U?$pair@$$CBKPAVCGuildHouseBase@@@std@@@3@$0A@@std@@@2@@Z
_TEXT	SEGMENT PARA USE32 PUBLIC 'CODE'
_TEXT	ENDS
;	COMDAT ?_Key@?$_Tree@V?$_Tmap_traits@KPAVCGuildHouseBase@@U?$less@K@std@@V?$allocator@U?$pair@$$CBKPAVCGuildHouseBase@@@std@@@3@$0A@@std@@@std@@KAABKPAU_Node@?$_Tree_nod@V?$_Tmap_traits@KPAVCGuildHouseBase@@U?$less@K@std@@V?$allocator@U?$pair@$$CBKPAVCGuildHouseBase@@@std@@@3@$0A@@std@@@2@@Z
_TEXT	SEGMENT PARA USE32 PUBLIC 'CODE'
_TEXT	ENDS
;	COMDAT ?_Left@?$_Tree@V?$_Tmap_traits@KPAVCGuildHouseBase@@U?$less@K@std@@V?$allocator@U?$pair@$$CBKPAVCGuildHouseBase@@@std@@@3@$0A@@std@@@std@@KAAAPAU_Node@?$_Tree_nod@V?$_Tmap_traits@KPAVCGuildHouseBase@@U?$less@K@std@@V?$allocator@U?$pair@$$CBKPAVCGuildHouseBase@@@std@@@3@$0A@@std@@@2@PAU342@@Z
_TEXT	SEGMENT PARA USE32 PUBLIC 'CODE'
_TEXT	ENDS
;	COMDAT ?_Right@?$_Tree@V?$_Tmap_traits@KPAVCGuildHouseBase@@U?$less@K@std@@V?$allocator@U?$pair@$$CBKPAVCGuildHouseBase@@@std@@@3@$0A@@std@@@std@@KAAAPAU_Node@?$_Tree_nod@V?$_Tmap_traits@KPAVCGuildHouseBase@@U?$less@K@std@@V?$allocator@U?$pair@$$CBKPAVCGuildHouseBase@@@std@@@3@$0A@@std@@@2@PAU342@@Z
_TEXT	SEGMENT PARA USE32 PUBLIC 'CODE'
_TEXT	ENDS
;	COMDAT ?begin@?$_Tree@V?$_Tmap_traits@KPAVCGuildHouseBase@@U?$less@K@std@@V?$allocator@U?$pair@$$CBKPAVCGuildHouseBase@@@std@@@3@$0A@@std@@@std@@QAE?AViterator@12@XZ
_TEXT	SEGMENT PARA USE32 PUBLIC 'CODE'
_TEXT	ENDS
;	COMDAT ?size@?$_Tree@V?$_Tmap_traits@KPAVCGuildHouseBase@@U?$less@K@std@@V?$allocator@U?$pair@$$CBKPAVCGuildHouseBase@@@std@@@3@$0A@@std@@@std@@QBEIXZ
_TEXT	SEGMENT PARA USE32 PUBLIC 'CODE'
_TEXT	ENDS
;	COMDAT ?_Insert@?$_Tree@V?$_Tmap_traits@KPAVCGuildHouseBase@@U?$less@K@std@@V?$allocator@U?$pair@$$CBKPAVCGuildHouseBase@@@std@@@3@$0A@@std@@@std@@IAE?AViterator@12@_NPAU_Node@?$_Tree_nod@V?$_Tmap_traits@KPAVCGuildHouseBase@@U?$less@K@std@@V?$allocator@U?$pair@$$CBKPAVCGuildHouseBase@@@std@@@3@$0A@@std@@@2@ABU?$pair@$$CBKPAVCGuildHouseBase@@@2@@Z
_TEXT	SEGMENT PARA USE32 PUBLIC 'CODE'
_TEXT	ENDS
;	COMDAT ?_Root@?$_Tree@V?$_Tmap_traits@KPAVCGuildHouseBase@@U?$less@K@std@@V?$allocator@U?$pair@$$CBKPAVCGuildHouseBase@@@std@@@3@$0A@@std@@@std@@IAEAAPAU_Node@?$_Tree_nod@V?$_Tmap_traits@KPAVCGuildHouseBase@@U?$less@K@std@@V?$allocator@U?$pair@$$CBKPAVCGuildHouseBase@@@std@@@3@$0A@@std@@@2@XZ
_TEXT	SEGMENT PARA USE32 PUBLIC 'CODE'
_TEXT	ENDS
;	COMDAT ?_Kfn@?$_Tmap_traits@KPAVCGuildHouseBase@@U?$less@K@std@@V?$allocator@U?$pair@$$CBKPAVCGuildHouseBase@@@std@@@3@$0A@@std@@SAABKABU?$pair@$$CBKPAVCGuildHouseBase@@@2@@Z
_TEXT	SEGMENT PARA USE32 PUBLIC 'CODE'
_TEXT	ENDS
;	COMDAT ??0?$pair@Viterator@?$_Tree@V?$_Tmap_traits@KPAVCGuildHouseBase@@U?$less@K@std@@V?$allocator@U?$pair@$$CBKPAVCGuildHouseBase@@@std@@@3@$0A@@std@@@std@@_N@std@@QAE@ABViterator@?$_Tree@V?$_Tmap_traits@KPAVCGuildHouseBase@@U?$less@K@std@@V?$allocator@U?$pair@$$CBKPAVCGuildHouseBase@@@std@@@3@$0A@@std@@@1@AB_N@Z
_TEXT	SEGMENT PARA USE32 PUBLIC 'CODE'
_TEXT	ENDS
;	COMDAT ??0iterator@?$_Tree@V?$_Tmap_traits@KPAVCGuildHouseBase@@U?$less@K@std@@V?$allocator@U?$pair@$$CBKPAVCGuildHouseBase@@@std@@@3@$0A@@std@@@std@@QAE@PAU_Node@?$_Tree_nod@V?$_Tmap_traits@KPAVCGuildHouseBase@@U?$less@K@std@@V?$allocator@U?$pair@$$CBKPAVCGuildHouseBase@@@std@@@3@$0A@@std@@@2@@Z
_TEXT	SEGMENT PARA USE32 PUBLIC 'CODE'
_TEXT	ENDS
;	COMDAT ??Fiterator@?$_Tree@V?$_Tmap_traits@KPAVCGuildHouseBase@@U?$less@K@std@@V?$allocator@U?$pair@$$CBKPAVCGuildHouseBase@@@std@@@3@$0A@@std@@@std@@QAEAAV012@XZ
_TEXT	SEGMENT PARA USE32 PUBLIC 'CODE'
_TEXT	ENDS
;	COMDAT ??8const_iterator@?$_Tree@V?$_Tmap_traits@KPAVCGuildHouseBase@@U?$less@K@std@@V?$allocator@U?$pair@$$CBKPAVCGuildHouseBase@@@std@@@3@$0A@@std@@@std@@QBE_NABV012@@Z
_TEXT	SEGMENT PARA USE32 PUBLIC 'CODE'
_TEXT	ENDS
;	COMDAT ?_Mynode@const_iterator@?$_Tree@V?$_Tmap_traits@KPAVCGuildHouseBase@@U?$less@K@std@@V?$allocator@U?$pair@$$CBKPAVCGuildHouseBase@@@std@@@3@$0A@@std@@@std@@QBEPAU_Node@?$_Tree_nod@V?$_Tmap_traits@KPAVCGuildHouseBase@@U?$less@K@std@@V?$allocator@U?$pair@$$CBKPAVCGuildHouseBase@@@std@@@3@$0A@@std@@@3@XZ
_TEXT	SEGMENT PARA USE32 PUBLIC 'CODE'
_TEXT	ENDS
;	COMDAT ?size@?$_Tree@V?$_Tmap_traits@KPAVCCampus@@U?$less@K@std@@V?$allocator@U?$pair@$$CBKPAVCCampus@@@std@@@3@$0A@@std@@@std@@QBEIXZ
_TEXT	SEGMENT PARA USE32 PUBLIC 'CODE'
_TEXT	ENDS
;	COMDAT ?erase@?$_Tree@V?$_Tmap_traits@KKU?$less@K@std@@V?$allocator@U?$pair@$$CBKK@std@@@2@$0A@@std@@@std@@QAE?AViterator@12@V312@0@Z
_TEXT	SEGMENT PARA USE32 PUBLIC 'CODE'
_TEXT	ENDS
;	COMDAT ?equal_range@?$_Tree@V?$_Tmap_traits@KKU?$less@K@std@@V?$allocator@U?$pair@$$CBKK@std@@@2@$0A@@std@@@std@@QAE?AU?$pair@Viterator@?$_Tree@V?$_Tmap_traits@KKU?$less@K@std@@V?$allocator@U?$pair@$$CBKK@std@@@2@$0A@@std@@@std@@V123@@2@ABK@Z
_TEXT	SEGMENT PARA USE32 PUBLIC 'CODE'
_TEXT	ENDS
;	COMDAT ?_Key@?$_Tree@V?$_Tmap_traits@KPAVCClientSock@@U?$less@K@std@@V?$allocator@U?$pair@$$CBKPAVCClientSock@@@std@@@3@$0A@@std@@@std@@KAABKPAU_Node@?$_Tree_nod@V?$_Tmap_traits@KPAVCClientSock@@U?$less@K@std@@V?$allocator@U?$pair@$$CBKPAVCClientSock@@@std@@@3@$0A@@std@@@2@@Z
_TEXT	SEGMENT PARA USE32 PUBLIC 'CODE'
_TEXT	ENDS
;	COMDAT ??0?$_Tree@V?$_Tmap_traits@KPAVCClientSock@@U?$less@K@std@@V?$allocator@U?$pair@$$CBKPAVCClientSock@@@std@@@3@$0A@@std@@@std@@QAE@ABU?$less@K@1@ABV?$allocator@U?$pair@$$CBKPAVCClientSock@@@std@@@1@@Z
_TEXT	SEGMENT PARA USE32 PUBLIC 'CODE'
_TEXT	ENDS
;	COMDAT ?lower_bound@?$_Tree@V?$_Tmap_traits@KPAVCClientSock@@U?$less@K@std@@V?$allocator@U?$pair@$$CBKPAVCClientSock@@@std@@@3@$0A@@std@@@std@@QAE?AViterator@12@ABK@Z
_TEXT	SEGMENT PARA USE32 PUBLIC 'CODE'
_TEXT	ENDS
;	COMDAT ?_Tidy@?$_Tree@V?$_Tmap_traits@KPAVCClientSock@@U?$less@K@std@@V?$allocator@U?$pair@$$CBKPAVCClientSock@@@std@@@3@$0A@@std@@@std@@IAEXXZ
_TEXT	SEGMENT PARA USE32 PUBLIC 'CODE'
_TEXT	ENDS
;	COMDAT ??0?$allocator@U?$pair@$$CBKPAVCClientSock@@@std@@@std@@QAE@XZ
_TEXT	SEGMENT PARA USE32 PUBLIC 'CODE'
_TEXT	ENDS
;	COMDAT ??0iterator@?$_Tree@V?$_Tmap_traits@KPAVCClientSock@@U?$less@K@std@@V?$allocator@U?$pair@$$CBKPAVCClientSock@@@std@@@3@$0A@@std@@@std@@QAE@PAU_Node@?$_Tree_nod@V?$_Tmap_traits@KPAVCClientSock@@U?$less@K@std@@V?$allocator@U?$pair@$$CBKPAVCClientSock@@@std@@@3@$0A@@std@@@2@@Z
_TEXT	SEGMENT PARA USE32 PUBLIC 'CODE'
_TEXT	ENDS
;	COMDAT ??Diterator@?$_Tree@V?$_Tmap_traits@KPAVCClientSock@@U?$less@K@std@@V?$allocator@U?$pair@$$CBKPAVCClientSock@@@std@@@3@$0A@@std@@@std@@QBEAAU?$pair@$$CBKPAVCClientSock@@@2@XZ
_TEXT	SEGMENT PARA USE32 PUBLIC 'CODE'
_TEXT	ENDS
;	COMDAT ??8const_iterator@?$_Tree@V?$_Tmap_traits@KPAVCClientSock@@U?$less@K@std@@V?$allocator@U?$pair@$$CBKPAVCClientSock@@@std@@@3@$0A@@std@@@std@@QBE_NABV012@@Z
_TEXT	SEGMENT PARA USE32 PUBLIC 'CODE'
_TEXT	ENDS
;	COMDAT ?_Mynode@const_iterator@?$_Tree@V?$_Tmap_traits@KPAVCClientSock@@U?$less@K@std@@V?$allocator@U?$pair@$$CBKPAVCClientSock@@@std@@@3@$0A@@std@@@std@@QBEPAU_Node@?$_Tree_nod@V?$_Tmap_traits@KPAVCClientSock@@U?$less@K@std@@V?$allocator@U?$pair@$$CBKPAVCClientSock@@@std@@@3@$0A@@std@@@3@XZ
_TEXT	SEGMENT PARA USE32 PUBLIC 'CODE'
_TEXT	ENDS
;	COMDAT ?_Key@?$_Tree@V?$_Tmap_traits@KPAVCClientSockE@@U?$less@K@std@@V?$allocator@U?$pair@$$CBKPAVCClientSockE@@@std@@@3@$0A@@std@@@std@@KAABKPAU_Node@?$_Tree_nod@V?$_Tmap_traits@KPAVCClientSockE@@U?$less@K@std@@V?$allocator@U?$pair@$$CBKPAVCClientSockE@@@std@@@3@$0A@@std@@@2@@Z
_TEXT	SEGMENT PARA USE32 PUBLIC 'CODE'
_TEXT	ENDS
;	COMDAT ??0?$_Tree@V?$_Tmap_traits@KPAVCClientSockE@@U?$less@K@std@@V?$allocator@U?$pair@$$CBKPAVCClientSockE@@@std@@@3@$0A@@std@@@std@@QAE@ABU?$less@K@1@ABV?$allocator@U?$pair@$$CBKPAVCClientSockE@@@std@@@1@@Z
_TEXT	SEGMENT PARA USE32 PUBLIC 'CODE'
_TEXT	ENDS
;	COMDAT ?lower_bound@?$_Tree@V?$_Tmap_traits@KPAVCClientSockE@@U?$less@K@std@@V?$allocator@U?$pair@$$CBKPAVCClientSockE@@@std@@@3@$0A@@std@@@std@@QAE?AViterator@12@ABK@Z
_TEXT	SEGMENT PARA USE32 PUBLIC 'CODE'
_TEXT	ENDS
;	COMDAT ?_Tidy@?$_Tree@V?$_Tmap_traits@KPAVCClientSockE@@U?$less@K@std@@V?$allocator@U?$pair@$$CBKPAVCClientSockE@@@std@@@3@$0A@@std@@@std@@IAEXXZ
_TEXT	SEGMENT PARA USE32 PUBLIC 'CODE'
_TEXT	ENDS
;	COMDAT ??0?$allocator@U?$pair@$$CBKPAVCClientSockE@@@std@@@std@@QAE@XZ
_TEXT	SEGMENT PARA USE32 PUBLIC 'CODE'
_TEXT	ENDS
;	COMDAT ??0iterator@?$_Tree@V?$_Tmap_traits@KPAVCClientSockE@@U?$less@K@std@@V?$allocator@U?$pair@$$CBKPAVCClientSockE@@@std@@@3@$0A@@std@@@std@@QAE@PAU_Node@?$_Tree_nod@V?$_Tmap_traits@KPAVCClientSockE@@U?$less@K@std@@V?$allocator@U?$pair@$$CBKPAVCClientSockE@@@std@@@3@$0A@@std@@@2@@Z
_TEXT	SEGMENT PARA USE32 PUBLIC 'CODE'
_TEXT	ENDS
;	COMDAT ??Diterator@?$_Tree@V?$_Tmap_traits@KPAVCClientSockE@@U?$less@K@std@@V?$allocator@U?$pair@$$CBKPAVCClientSockE@@@std@@@3@$0A@@std@@@std@@QBEAAU?$pair@$$CBKPAVCClientSockE@@@2@XZ
_TEXT	SEGMENT PARA USE32 PUBLIC 'CODE'
_TEXT	ENDS
;	COMDAT ??8const_iterator@?$_Tree@V?$_Tmap_traits@KPAVCClientSockE@@U?$less@K@std@@V?$allocator@U?$pair@$$CBKPAVCClientSockE@@@std@@@3@$0A@@std@@@std@@QBE_NABV012@@Z
_TEXT	SEGMENT PARA USE32 PUBLIC 'CODE'
_TEXT	ENDS
;	COMDAT ?_Mynode@const_iterator@?$_Tree@V?$_Tmap_traits@KPAVCClientSockE@@U?$less@K@std@@V?$allocator@U?$pair@$$CBKPAVCClientSockE@@@std@@@3@$0A@@std@@@std@@QBEPAU_Node@?$_Tree_nod@V?$_Tmap_traits@KPAVCClientSockE@@U?$less@K@std@@V?$allocator@U?$pair@$$CBKPAVCClientSockE@@@std@@@3@$0A@@std@@@3@XZ
_TEXT	SEGMENT PARA USE32 PUBLIC 'CODE'
_TEXT	ENDS
;	COMDAT ?_Key@?$_Tree@V?$_Tmap_traits@KP8CDPDatabaseClient@@AEXAAVCAr@@KK@ZU?$less@K@std@@V?$allocator@U?$pair@$$CBKP8CDPDatabaseClient@@AEXAAVCAr@@KK@Z@std@@@4@$0A@@std@@@std@@KAABKPAU_Node@?$_Tree_nod@V?$_Tmap_traits@KP8CDPDatabaseClient@@AEXAAVCAr@@KK@ZU?$less@K@std@@V?$allocator@U?$pair@$$CBKP8CDPDatabaseClient@@AEXAAVCAr@@KK@Z@std@@@4@$0A@@std@@@2@@Z
_TEXT	SEGMENT PARA USE32 PUBLIC 'CODE'
_TEXT	ENDS
;	COMDAT ?lower_bound@?$_Tree@V?$_Tmap_traits@KP8CDPDatabaseClient@@AEXAAVCAr@@KK@ZU?$less@K@std@@V?$allocator@U?$pair@$$CBKP8CDPDatabaseClient@@AEXAAVCAr@@KK@Z@std@@@4@$0A@@std@@@std@@QAE?AViterator@12@ABK@Z
_TEXT	SEGMENT PARA USE32 PUBLIC 'CODE'
_TEXT	ENDS
;	COMDAT ??0iterator@?$_Tree@V?$_Tmap_traits@KP8CDPDatabaseClient@@AEXAAVCAr@@KK@ZU?$less@K@std@@V?$allocator@U?$pair@$$CBKP8CDPDatabaseClient@@AEXAAVCAr@@KK@Z@std@@@4@$0A@@std@@@std@@QAE@PAU_Node@?$_Tree_nod@V?$_Tmap_traits@KP8CDPDatabaseClient@@AEXAAVCAr@@KK@ZU?$less@K@std@@V?$allocator@U?$pair@$$CBKP8CDPDatabaseClient@@AEXAAVCAr@@KK@Z@std@@@4@$0A@@std@@@2@@Z
_TEXT	SEGMENT PARA USE32 PUBLIC 'CODE'
_TEXT	ENDS
;	COMDAT ??Diterator@?$_Tree@V?$_Tmap_traits@KP8CDPDatabaseClient@@AEXAAVCAr@@KK@ZU?$less@K@std@@V?$allocator@U?$pair@$$CBKP8CDPDatabaseClient@@AEXAAVCAr@@KK@Z@std@@@4@$0A@@std@@@std@@QBEAAU?$pair@$$CBKP8CDPDatabaseClient@@AEXAAVCAr@@KK@Z@2@XZ
_TEXT	SEGMENT PARA USE32 PUBLIC 'CODE'
_TEXT	ENDS
;	COMDAT ??8const_iterator@?$_Tree@V?$_Tmap_traits@KP8CDPDatabaseClient@@AEXAAVCAr@@KK@ZU?$less@K@std@@V?$allocator@U?$pair@$$CBKP8CDPDatabaseClient@@AEXAAVCAr@@KK@Z@std@@@4@$0A@@std@@@std@@QBE_NABV012@@Z
_TEXT	SEGMENT PARA USE32 PUBLIC 'CODE'
_TEXT	ENDS
;	COMDAT ?_Mynode@const_iterator@?$_Tree@V?$_Tmap_traits@KP8CDPDatabaseClient@@AEXAAVCAr@@KK@ZU?$less@K@std@@V?$allocator@U?$pair@$$CBKP8CDPDatabaseClient@@AEXAAVCAr@@KK@Z@std@@@4@$0A@@std@@@std@@QBEPAU_Node@?$_Tree_nod@V?$_Tmap_traits@KP8CDPDatabaseClient@@AEXAAVCAr@@KK@ZU?$less@K@std@@V?$allocator@U?$pair@$$CBKP8CDPDatabaseClient@@AEXAAVCAr@@KK@Z@std@@@4@$0A@@std@@@3@XZ
_TEXT	SEGMENT PARA USE32 PUBLIC 'CODE'
_TEXT	ENDS
;	COMDAT ??Diterator@?$vector@PAU__JOINPLAYER@CGuildCombat@@V?$allocator@PAU__JOINPLAYER@CGuildCombat@@@std@@@std@@QBEAAPAU__JOINPLAYER@CGuildCombat@@XZ
_TEXT	SEGMENT PARA USE32 PUBLIC 'CODE'
_TEXT	ENDS
;	COMDAT ??Hiterator@?$vector@PAU__JOINPLAYER@CGuildCombat@@V?$allocator@PAU__JOINPLAYER@CGuildCombat@@@std@@@std@@QBE?AV012@H@Z
_TEXT	SEGMENT PARA USE32 PUBLIC 'CODE'
_TEXT	ENDS
;	COMDAT ??Diterator@?$vector@V?$basic_string@DU?$char_traits@D@std@@V?$allocator@D@2@@std@@V?$allocator@V?$basic_string@DU?$char_traits@D@std@@V?$allocator@D@2@@std@@@2@@std@@QBEAAV?$basic_string@DU?$char_traits@D@std@@V?$allocator@D@2@@2@XZ
_TEXT	SEGMENT PARA USE32 PUBLIC 'CODE'
_TEXT	ENDS
;	COMDAT ??Hiterator@?$vector@V?$basic_string@DU?$char_traits@D@std@@V?$allocator@D@2@@std@@V?$allocator@V?$basic_string@DU?$char_traits@D@std@@V?$allocator@D@2@@std@@@2@@std@@QBE?AV012@H@Z
_TEXT	SEGMENT PARA USE32 PUBLIC 'CODE'
_TEXT	ENDS
;	COMDAT ??Diterator@?$vector@PAVCMiniGameBase@@V?$allocator@PAVCMiniGameBase@@@std@@@std@@QBEAAPAVCMiniGameBase@@XZ
_TEXT	SEGMENT PARA USE32 PUBLIC 'CODE'
_TEXT	ENDS
;	COMDAT ??Hiterator@?$vector@PAVCMiniGameBase@@V?$allocator@PAVCMiniGameBase@@@std@@@std@@QBE?AV012@H@Z
_TEXT	SEGMENT PARA USE32 PUBLIC 'CODE'
_TEXT	ENDS
;	COMDAT ??Diterator@?$vector@UGuildHouse_Furniture_Info@CGuildHouseBase@@V?$allocator@UGuildHouse_Furniture_Info@CGuildHouseBase@@@std@@@std@@QBEAAUGuildHouse_Furniture_Info@CGuildHouseBase@@XZ
_TEXT	SEGMENT PARA USE32 PUBLIC 'CODE'
_TEXT	ENDS
;	COMDAT ??Hiterator@?$vector@UGuildHouse_Furniture_Info@CGuildHouseBase@@V?$allocator@UGuildHouse_Furniture_Info@CGuildHouseBase@@@std@@@std@@QBE?AV012@H@Z
_TEXT	SEGMENT PARA USE32 PUBLIC 'CODE'
_TEXT	ENDS
;	COMDAT ?Append@?$CSimpleStringT@D$0A@@ATL@@QAEXPBD@Z
_TEXT	SEGMENT PARA USE32 PUBLIC 'CODE'
_TEXT	ENDS
;	COMDAT ??0?$allocator@V?$basic_string@DU?$char_traits@D@std@@V?$allocator@D@2@@std@@@std@@QAE@ABV01@@Z
_TEXT	SEGMENT PARA USE32 PUBLIC 'CODE'
_TEXT	ENDS
;	COMDAT ?deallocate@?$allocator@V?$basic_string@DU?$char_traits@D@std@@V?$allocator@D@2@@std@@@std@@QAEXPAV?$basic_string@DU?$char_traits@D@std@@V?$allocator@D@2@@2@I@Z
_TEXT	SEGMENT PARA USE32 PUBLIC 'CODE'
_TEXT	ENDS
;	COMDAT ?allocate@?$allocator@V?$basic_string@DU?$char_traits@D@std@@V?$allocator@D@2@@std@@@std@@QAEPAV?$basic_string@DU?$char_traits@D@std@@V?$allocator@D@2@@2@I@Z
_TEXT	SEGMENT PARA USE32 PUBLIC 'CODE'
_TEXT	ENDS
;	COMDAT ?size@?$_Tree@V?$_Tmap_traits@KPAVCCtrl@@U?$less@K@std@@V?$allocator@U?$pair@$$CBKPAVCCtrl@@@std@@@3@$0A@@std@@@std@@QBEIXZ
_TEXT	SEGMENT PARA USE32 PUBLIC 'CODE'
_TEXT	ENDS
;	COMDAT ??0iterator@?$_Tree@V?$_Tmap_traits@KPAVCCtrl@@U?$less@K@std@@V?$allocator@U?$pair@$$CBKPAVCCtrl@@@std@@@3@$0A@@std@@@std@@QAE@XZ
_TEXT	SEGMENT PARA USE32 PUBLIC 'CODE'
_TEXT	ENDS
;	COMDAT ?pop_back@?$deque@PAUtagACTMSG@@V?$allocator@PAUtagACTMSG@@@std@@@std@@QAEXXZ
_TEXT	SEGMENT PARA USE32 PUBLIC 'CODE'
_TEXT	ENDS
;	COMDAT ??0?$_Deque_map@PAUtagACTMSG@@V?$allocator@PAUtagACTMSG@@@std@@@std@@IAE@V?$allocator@PAUtagACTMSG@@@1@@Z
_TEXT	SEGMENT PARA USE32 PUBLIC 'CODE'
_TEXT	ENDS
;	COMDAT ??0?$allocator@PAUtagACTMSG@@@std@@QAE@ABV01@@Z
_TEXT	SEGMENT PARA USE32 PUBLIC 'CODE'
_TEXT	ENDS
;	COMDAT ?deallocate@?$allocator@PAUtagACTMSG@@@std@@QAEXPAPAUtagACTMSG@@I@Z
_TEXT	SEGMENT PARA USE32 PUBLIC 'CODE'
_TEXT	ENDS
;	COMDAT ?deallocate@?$allocator@PAPAUtagACTMSG@@@std@@QAEXPAPAPAUtagACTMSG@@I@Z
_TEXT	SEGMENT PARA USE32 PUBLIC 'CODE'
_TEXT	ENDS
;	COMDAT ?destroy@?$allocator@PAPAUtagACTMSG@@@std@@QAEXPAPAPAUtagACTMSG@@@Z
_TEXT	SEGMENT PARA USE32 PUBLIC 'CODE'
_TEXT	ENDS
;	COMDAT ?pop_back@?$deque@PAUtagMAGICATKMSG@@V?$allocator@PAUtagMAGICATKMSG@@@std@@@std@@QAEXXZ
_TEXT	SEGMENT PARA USE32 PUBLIC 'CODE'
_TEXT	ENDS
;	COMDAT ??0?$_Deque_map@PAUtagMAGICATKMSG@@V?$allocator@PAUtagMAGICATKMSG@@@std@@@std@@IAE@V?$allocator@PAUtagMAGICATKMSG@@@1@@Z
_TEXT	SEGMENT PARA USE32 PUBLIC 'CODE'
_TEXT	ENDS
;	COMDAT ??0?$allocator@PAUtagMAGICATKMSG@@@std@@QAE@ABV01@@Z
_TEXT	SEGMENT PARA USE32 PUBLIC 'CODE'
_TEXT	ENDS
;	COMDAT ?deallocate@?$allocator@PAUtagMAGICATKMSG@@@std@@QAEXPAPAUtagMAGICATKMSG@@I@Z
_TEXT	SEGMENT PARA USE32 PUBLIC 'CODE'
_TEXT	ENDS
;	COMDAT ?deallocate@?$allocator@PAPAUtagMAGICATKMSG@@@std@@QAEXPAPAPAUtagMAGICATKMSG@@I@Z
_TEXT	SEGMENT PARA USE32 PUBLIC 'CODE'
_TEXT	ENDS
;	COMDAT ?destroy@?$allocator@PAPAUtagMAGICATKMSG@@@std@@QAEXPAPAPAUtagMAGICATKMSG@@@Z
_TEXT	SEGMENT PARA USE32 PUBLIC 'CODE'
_TEXT	ENDS
;	COMDAT ??0const_iterator@?$deque@PAUtagACTMSG@@V?$allocator@PAUtagACTMSG@@@std@@@std@@QAE@IPBV12@@Z
_TEXT	SEGMENT PARA USE32 PUBLIC 'CODE'
_TEXT	ENDS
;	COMDAT ??0const_iterator@?$deque@PAUtagMAGICATKMSG@@V?$allocator@PAUtagMAGICATKMSG@@@std@@@std@@QAE@IPBV12@@Z
_TEXT	SEGMENT PARA USE32 PUBLIC 'CODE'
_TEXT	ENDS
;	COMDAT ?begin@?$_Tree@V?$_Tmap_traits@KU_Friend@@U?$less@K@std@@V?$allocator@U?$pair@$$CBKU_Friend@@@std@@@3@$0A@@std@@@std@@QAE?AViterator@12@XZ
_TEXT	SEGMENT PARA USE32 PUBLIC 'CODE'
_TEXT	ENDS
;	COMDAT ?end@?$_Tree@V?$_Tmap_traits@KU_Friend@@U?$less@K@std@@V?$allocator@U?$pair@$$CBKU_Friend@@@std@@@3@$0A@@std@@@std@@QAE?AViterator@12@XZ
_TEXT	SEGMENT PARA USE32 PUBLIC 'CODE'
_TEXT	ENDS
;	COMDAT ?erase@?$_Tree@V?$_Tmap_traits@KU_Friend@@U?$less@K@std@@V?$allocator@U?$pair@$$CBKU_Friend@@@std@@@3@$0A@@std@@@std@@QAE?AViterator@12@V312@@Z
_TEXT	SEGMENT PARA USE32 PUBLIC 'CODE'
_TEXT	ENDS
;	COMDAT ?clear@?$_Tree@V?$_Tmap_traits@KU_Friend@@U?$less@K@std@@V?$allocator@U?$pair@$$CBKU_Friend@@@std@@@3@$0A@@std@@@std@@QAEXXZ
_TEXT	SEGMENT PARA USE32 PUBLIC 'CODE'
_TEXT	ENDS
;	COMDAT ?lower_bound@?$_Tree@V?$_Tmap_traits@KU_Friend@@U?$less@K@std@@V?$allocator@U?$pair@$$CBKU_Friend@@@std@@@3@$0A@@std@@@std@@QAE?AViterator@12@ABK@Z
_TEXT	SEGMENT PARA USE32 PUBLIC 'CODE'
_TEXT	ENDS
;	COMDAT ?upper_bound@?$_Tree@V?$_Tmap_traits@KU_Friend@@U?$less@K@std@@V?$allocator@U?$pair@$$CBKU_Friend@@@std@@@3@$0A@@std@@@std@@QAE?AViterator@12@ABK@Z
_TEXT	SEGMENT PARA USE32 PUBLIC 'CODE'
_TEXT	ENDS
;	COMDAT ??Eiterator@?$_Tree@V?$_Tmap_traits@KU_Friend@@U?$less@K@std@@V?$allocator@U?$pair@$$CBKU_Friend@@@std@@@3@$0A@@std@@@std@@QAE?AV012@H@Z
_TEXT	SEGMENT PARA USE32 PUBLIC 'CODE'
_TEXT	ENDS
;	COMDAT ??8const_iterator@?$_Tree@V?$_Tmap_traits@KU_Friend@@U?$less@K@std@@V?$allocator@U?$pair@$$CBKU_Friend@@@std@@@3@$0A@@std@@@std@@QBE_NABV012@@Z
_TEXT	SEGMENT PARA USE32 PUBLIC 'CODE'
_TEXT	ENDS
;	COMDAT ??9const_iterator@?$_Tree@V?$_Tmap_traits@KU_Friend@@U?$less@K@std@@V?$allocator@U?$pair@$$CBKU_Friend@@@std@@@3@$0A@@std@@@std@@QBE_NABV012@@Z
_TEXT	SEGMENT PARA USE32 PUBLIC 'CODE'
_TEXT	ENDS
;	COMDAT ?_Destroy@?$vector@PAU__JOINPLAYER@CGuildCombat@@V?$allocator@PAU__JOINPLAYER@CGuildCombat@@@std@@@std@@IAEXPAPAU__JOINPLAYER@CGuildCombat@@0@Z
_TEXT	SEGMENT PARA USE32 PUBLIC 'CODE'
_TEXT	ENDS
;	COMDAT ?deallocate@?$allocator@PAU__JOINPLAYER@CGuildCombat@@@std@@QAEXPAPAU__JOINPLAYER@CGuildCombat@@I@Z
_TEXT	SEGMENT PARA USE32 PUBLIC 'CODE'
_TEXT	ENDS
;	COMDAT ?max_size@?$vector@U__SECRETROOM_MONSTER@@V?$allocator@U__SECRETROOM_MONSTER@@@std@@@std@@QBEIXZ
_TEXT	SEGMENT PARA USE32 PUBLIC 'CODE'
_TEXT	ENDS
;	COMDAT ?_Destroy@?$vector@U__SECRETROOM_MONSTER@@V?$allocator@U__SECRETROOM_MONSTER@@@std@@@std@@IAEXPAU__SECRETROOM_MONSTER@@0@Z
_TEXT	SEGMENT PARA USE32 PUBLIC 'CODE'
_TEXT	ENDS
;	COMDAT ?_Xlen@?$vector@U__SECRETROOM_MONSTER@@V?$allocator@U__SECRETROOM_MONSTER@@@std@@@std@@IBEXXZ
_TEXT	SEGMENT PARA USE32 PUBLIC 'CODE'
_TEXT	ENDS
;	COMDAT ??0?$allocator@U__SECRETROOM_MONSTER@@@std@@QAE@ABV01@@Z
_TEXT	SEGMENT PARA USE32 PUBLIC 'CODE'
_TEXT	ENDS
;	COMDAT ?deallocate@?$allocator@U__SECRETROOM_MONSTER@@@std@@QAEXPAU__SECRETROOM_MONSTER@@I@Z
_TEXT	SEGMENT PARA USE32 PUBLIC 'CODE'
_TEXT	ENDS
;	COMDAT ?allocate@?$allocator@U__SECRETROOM_MONSTER@@@std@@QAEPAU__SECRETROOM_MONSTER@@I@Z
_TEXT	SEGMENT PARA USE32 PUBLIC 'CODE'
_TEXT	ENDS
;	COMDAT ?max_size@?$vector@V?$basic_string@DU?$char_traits@D@std@@V?$allocator@D@2@@std@@V?$allocator@V?$basic_string@DU?$char_traits@D@std@@V?$allocator@D@2@@std@@@2@@std@@QBEIXZ
_TEXT	SEGMENT PARA USE32 PUBLIC 'CODE'
_TEXT	ENDS
;	COMDAT ?_Destroy@?$vector@V?$basic_string@DU?$char_traits@D@std@@V?$allocator@D@2@@std@@V?$allocator@V?$basic_string@DU?$char_traits@D@std@@V?$allocator@D@2@@std@@@2@@std@@IAEXPAV?$basic_string@DU?$char_traits@D@std@@V?$allocator@D@2@@2@0@Z
_TEXT	SEGMENT PARA USE32 PUBLIC 'CODE'
_TEXT	ENDS
;	COMDAT ?_Insert_n@?$vector@V?$basic_string@DU?$char_traits@D@std@@V?$allocator@D@2@@std@@V?$allocator@V?$basic_string@DU?$char_traits@D@std@@V?$allocator@D@2@@std@@@2@@std@@IAEXViterator@12@IABV?$basic_string@DU?$char_traits@D@std@@V?$allocator@D@2@@2@@Z
_TEXT	SEGMENT PARA USE32 PUBLIC 'CODE'
_TEXT	ENDS
;	COMDAT ?_Xlen@?$vector@V?$basic_string@DU?$char_traits@D@std@@V?$allocator@D@2@@std@@V?$allocator@V?$basic_string@DU?$char_traits@D@std@@V?$allocator@D@2@@std@@@2@@std@@IBEXXZ
_TEXT	SEGMENT PARA USE32 PUBLIC 'CODE'
_TEXT	ENDS
;	COMDAT ?begin@?$vector@UMINIGMAME_PRIZE_LIST@CRainbowRaceMng@@V?$allocator@UMINIGMAME_PRIZE_LIST@CRainbowRaceMng@@@std@@@std@@QAE?AViterator@12@XZ
_TEXT	SEGMENT PARA USE32 PUBLIC 'CODE'
_TEXT	ENDS
;	COMDAT ?_Insert_n@?$vector@UMINIGMAME_PRIZE_LIST@CRainbowRaceMng@@V?$allocator@UMINIGMAME_PRIZE_LIST@CRainbowRaceMng@@@std@@@std@@IAEXViterator@12@IABUMINIGMAME_PRIZE_LIST@CRainbowRaceMng@@@Z
_TEXT	SEGMENT PARA USE32 PUBLIC 'CODE'
_TEXT	ENDS
;	COMDAT ?_Color@?$_Tree@V?$_Tmap_traits@KPAVCGuildHouseBase@@U?$less@K@std@@V?$allocator@U?$pair@$$CBKPAVCGuildHouseBase@@@std@@@3@$0A@@std@@@std@@KAAADPAU_Node@?$_Tree_nod@V?$_Tmap_traits@KPAVCGuildHouseBase@@U?$less@K@std@@V?$allocator@U?$pair@$$CBKPAVCGuildHouseBase@@@std@@@3@$0A@@std@@@2@@Z
_TEXT	SEGMENT PARA USE32 PUBLIC 'CODE'
_TEXT	ENDS
;	COMDAT ?_Parent@?$_Tree@V?$_Tmap_traits@KPAVCGuildHouseBase@@U?$less@K@std@@V?$allocator@U?$pair@$$CBKPAVCGuildHouseBase@@@std@@@3@$0A@@std@@@std@@KAAAPAU_Node@?$_Tree_nod@V?$_Tmap_traits@KPAVCGuildHouseBase@@U?$less@K@std@@V?$allocator@U?$pair@$$CBKPAVCGuildHouseBase@@@std@@@3@$0A@@std@@@2@PAU342@@Z
_TEXT	SEGMENT PARA USE32 PUBLIC 'CODE'
_TEXT	ENDS
;	COMDAT ?_Myval@?$_Tree@V?$_Tmap_traits@KPAVCGuildHouseBase@@U?$less@K@std@@V?$allocator@U?$pair@$$CBKPAVCGuildHouseBase@@@std@@@3@$0A@@std@@@std@@KAAAU?$pair@$$CBKPAVCGuildHouseBase@@@2@PAU_Node@?$_Tree_nod@V?$_Tmap_traits@KPAVCGuildHouseBase@@U?$less@K@std@@V?$allocator@U?$pair@$$CBKPAVCGuildHouseBase@@@std@@@3@$0A@@std@@@2@@Z
_TEXT	SEGMENT PARA USE32 PUBLIC 'CODE'
_TEXT	ENDS
;	COMDAT ?max_size@?$_Tree@V?$_Tmap_traits@KPAVCGuildHouseBase@@U?$less@K@std@@V?$allocator@U?$pair@$$CBKPAVCGuildHouseBase@@@std@@@3@$0A@@std@@@std@@QBEIXZ
_TEXT	SEGMENT PARA USE32 PUBLIC 'CODE'
_TEXT	ENDS
;	COMDAT ?_Lmost@?$_Tree@V?$_Tmap_traits@KPAVCGuildHouseBase@@U?$less@K@std@@V?$allocator@U?$pair@$$CBKPAVCGuildHouseBase@@@std@@@3@$0A@@std@@@std@@IAEAAPAU_Node@?$_Tree_nod@V?$_Tmap_traits@KPAVCGuildHouseBase@@U?$less@K@std@@V?$allocator@U?$pair@$$CBKPAVCGuildHouseBase@@@std@@@3@$0A@@std@@@2@XZ
_TEXT	SEGMENT PARA USE32 PUBLIC 'CODE'
_TEXT	ENDS
;	COMDAT ?_Lrotate@?$_Tree@V?$_Tmap_traits@KPAVCGuildHouseBase@@U?$less@K@std@@V?$allocator@U?$pair@$$CBKPAVCGuildHouseBase@@@std@@@3@$0A@@std@@@std@@IAEXPAU_Node@?$_Tree_nod@V?$_Tmap_traits@KPAVCGuildHouseBase@@U?$less@K@std@@V?$allocator@U?$pair@$$CBKPAVCGuildHouseBase@@@std@@@3@$0A@@std@@@2@@Z
_TEXT	SEGMENT PARA USE32 PUBLIC 'CODE'
_TEXT	ENDS
;	COMDAT ?_Rmost@?$_Tree@V?$_Tmap_traits@KPAVCGuildHouseBase@@U?$less@K@std@@V?$allocator@U?$pair@$$CBKPAVCGuildHouseBase@@@std@@@3@$0A@@std@@@std@@IAEAAPAU_Node@?$_Tree_nod@V?$_Tmap_traits@KPAVCGuildHouseBase@@U?$less@K@std@@V?$allocator@U?$pair@$$CBKPAVCGuildHouseBase@@@std@@@3@$0A@@std@@@2@XZ
_TEXT	SEGMENT PARA USE32 PUBLIC 'CODE'
_TEXT	ENDS
;	COMDAT ?_Rrotate@?$_Tree@V?$_Tmap_traits@KPAVCGuildHouseBase@@U?$less@K@std@@V?$allocator@U?$pair@$$CBKPAVCGuildHouseBase@@@std@@@3@$0A@@std@@@std@@IAEXPAU_Node@?$_Tree_nod@V?$_Tmap_traits@KPAVCGuildHouseBase@@U?$less@K@std@@V?$allocator@U?$pair@$$CBKPAVCGuildHouseBase@@@std@@@3@$0A@@std@@@2@@Z
_TEXT	SEGMENT PARA USE32 PUBLIC 'CODE'
_TEXT	ENDS
;	COMDAT ?_Buynode@?$_Tree@V?$_Tmap_traits@KPAVCGuildHouseBase@@U?$less@K@std@@V?$allocator@U?$pair@$$CBKPAVCGuildHouseBase@@@std@@@3@$0A@@std@@@std@@IAEPAU_Node@?$_Tree_nod@V?$_Tmap_traits@KPAVCGuildHouseBase@@U?$less@K@std@@V?$allocator@U?$pair@$$CBKPAVCGuildHouseBase@@@std@@@3@$0A@@std@@@2@PAU342@00ABU?$pair@$$CBKPAVCGuildHouseBase@@@2@D@Z
_TEXT	SEGMENT PARA USE32 PUBLIC 'CODE'
_TEXT	ENDS
;	COMDAT ??0const_iterator@?$_Tree@V?$_Tmap_traits@KPAVCGuildHouseBase@@U?$less@K@std@@V?$allocator@U?$pair@$$CBKPAVCGuildHouseBase@@@std@@@3@$0A@@std@@@std@@QAE@PAU_Node@?$_Tree_nod@V?$_Tmap_traits@KPAVCGuildHouseBase@@U?$less@K@std@@V?$allocator@U?$pair@$$CBKPAVCGuildHouseBase@@@std@@@3@$0A@@std@@@2@@Z
_TEXT	SEGMENT PARA USE32 PUBLIC 'CODE'
_TEXT	ENDS
;	COMDAT ??Fconst_iterator@?$_Tree@V?$_Tmap_traits@KPAVCGuildHouseBase@@U?$less@K@std@@V?$allocator@U?$pair@$$CBKPAVCGuildHouseBase@@@std@@@3@$0A@@std@@@std@@QAEAAV012@XZ
_TEXT	SEGMENT PARA USE32 PUBLIC 'CODE'
_TEXT	ENDS
;	COMDAT ?begin@?$_Tree@V?$_Tmap_traits@KKU?$less@K@std@@V?$allocator@U?$pair@$$CBKK@std@@@2@$0A@@std@@@std@@QAE?AViterator@12@XZ
_TEXT	SEGMENT PARA USE32 PUBLIC 'CODE'
_TEXT	ENDS
;	COMDAT ?end@?$_Tree@V?$_Tmap_traits@KKU?$less@K@std@@V?$allocator@U?$pair@$$CBKK@std@@@2@$0A@@std@@@std@@QAE?AViterator@12@XZ
_TEXT	SEGMENT PARA USE32 PUBLIC 'CODE'
_TEXT	ENDS
;	COMDAT ?erase@?$_Tree@V?$_Tmap_traits@KKU?$less@K@std@@V?$allocator@U?$pair@$$CBKK@std@@@2@$0A@@std@@@std@@QAE?AViterator@12@V312@@Z
_TEXT	SEGMENT PARA USE32 PUBLIC 'CODE'
_TEXT	ENDS
;	COMDAT ?clear@?$_Tree@V?$_Tmap_traits@KKU?$less@K@std@@V?$allocator@U?$pair@$$CBKK@std@@@2@$0A@@std@@@std@@QAEXXZ
_TEXT	SEGMENT PARA USE32 PUBLIC 'CODE'
_TEXT	ENDS
;	COMDAT ?lower_bound@?$_Tree@V?$_Tmap_traits@KKU?$less@K@std@@V?$allocator@U?$pair@$$CBKK@std@@@2@$0A@@std@@@std@@QAE?AViterator@12@ABK@Z
_TEXT	SEGMENT PARA USE32 PUBLIC 'CODE'
_TEXT	ENDS
;	COMDAT ?upper_bound@?$_Tree@V?$_Tmap_traits@KKU?$less@K@std@@V?$allocator@U?$pair@$$CBKK@std@@@2@$0A@@std@@@std@@QAE?AViterator@12@ABK@Z
_TEXT	SEGMENT PARA USE32 PUBLIC 'CODE'
_TEXT	ENDS
;	COMDAT ??Eiterator@?$_Tree@V?$_Tmap_traits@KKU?$less@K@std@@V?$allocator@U?$pair@$$CBKK@std@@@2@$0A@@std@@@std@@QAE?AV012@H@Z
_TEXT	SEGMENT PARA USE32 PUBLIC 'CODE'
_TEXT	ENDS
;	COMDAT ??8const_iterator@?$_Tree@V?$_Tmap_traits@KKU?$less@K@std@@V?$allocator@U?$pair@$$CBKK@std@@@2@$0A@@std@@@std@@QBE_NABV012@@Z
_TEXT	SEGMENT PARA USE32 PUBLIC 'CODE'
_TEXT	ENDS
;	COMDAT ??9const_iterator@?$_Tree@V?$_Tmap_traits@KKU?$less@K@std@@V?$allocator@U?$pair@$$CBKK@std@@@2@$0A@@std@@@std@@QBE_NABV012@@Z
_TEXT	SEGMENT PARA USE32 PUBLIC 'CODE'
_TEXT	ENDS
;	COMDAT ?_Left@?$_Tree@V?$_Tmap_traits@KPAVCClientSock@@U?$less@K@std@@V?$allocator@U?$pair@$$CBKPAVCClientSock@@@std@@@3@$0A@@std@@@std@@KAAAPAU_Node@?$_Tree_nod@V?$_Tmap_traits@KPAVCClientSock@@U?$less@K@std@@V?$allocator@U?$pair@$$CBKPAVCClientSock@@@std@@@3@$0A@@std@@@2@PAU342@@Z
_TEXT	SEGMENT PARA USE32 PUBLIC 'CODE'
_TEXT	ENDS
;	COMDAT ?_Parent@?$_Tree@V?$_Tmap_traits@KPAVCClientSock@@U?$less@K@std@@V?$allocator@U?$pair@$$CBKPAVCClientSock@@@std@@@3@$0A@@std@@@std@@KAAAPAU_Node@?$_Tree_nod@V?$_Tmap_traits@KPAVCClientSock@@U?$less@K@std@@V?$allocator@U?$pair@$$CBKPAVCClientSock@@@std@@@3@$0A@@std@@@2@PAU342@@Z
_TEXT	SEGMENT PARA USE32 PUBLIC 'CODE'
_TEXT	ENDS
;	COMDAT ?_Right@?$_Tree@V?$_Tmap_traits@KPAVCClientSock@@U?$less@K@std@@V?$allocator@U?$pair@$$CBKPAVCClientSock@@@std@@@3@$0A@@std@@@std@@KAAAPAU_Node@?$_Tree_nod@V?$_Tmap_traits@KPAVCClientSock@@U?$less@K@std@@V?$allocator@U?$pair@$$CBKPAVCClientSock@@@std@@@3@$0A@@std@@@2@PAU342@@Z
_TEXT	SEGMENT PARA USE32 PUBLIC 'CODE'
_TEXT	ENDS
;	COMDAT ?_Myval@?$_Tree@V?$_Tmap_traits@KPAVCClientSock@@U?$less@K@std@@V?$allocator@U?$pair@$$CBKPAVCClientSock@@@std@@@3@$0A@@std@@@std@@KAAAU?$pair@$$CBKPAVCClientSock@@@2@PAU_Node@?$_Tree_nod@V?$_Tmap_traits@KPAVCClientSock@@U?$less@K@std@@V?$allocator@U?$pair@$$CBKPAVCClientSock@@@std@@@3@$0A@@std@@@2@@Z
_TEXT	SEGMENT PARA USE32 PUBLIC 'CODE'
_TEXT	ENDS
;	COMDAT ?begin@?$_Tree@V?$_Tmap_traits@KPAVCClientSock@@U?$less@K@std@@V?$allocator@U?$pair@$$CBKPAVCClientSock@@@std@@@3@$0A@@std@@@std@@QAE?AViterator@12@XZ
_TEXT	SEGMENT PARA USE32 PUBLIC 'CODE'
_TEXT	ENDS
;	COMDAT ?erase@?$_Tree@V?$_Tmap_traits@KPAVCClientSock@@U?$less@K@std@@V?$allocator@U?$pair@$$CBKPAVCClientSock@@@std@@@3@$0A@@std@@@std@@QAE?AViterator@12@V312@0@Z
_TEXT	SEGMENT PARA USE32 PUBLIC 'CODE'
_TEXT	ENDS
;	COMDAT ?_Init@?$_Tree@V?$_Tmap_traits@KPAVCClientSock@@U?$less@K@std@@V?$allocator@U?$pair@$$CBKPAVCClientSock@@@std@@@3@$0A@@std@@@std@@IAEXXZ
_TEXT	SEGMENT PARA USE32 PUBLIC 'CODE'
_TEXT	ENDS
;	COMDAT ?_Lbound@?$_Tree@V?$_Tmap_traits@KPAVCClientSock@@U?$less@K@std@@V?$allocator@U?$pair@$$CBKPAVCClientSock@@@std@@@3@$0A@@std@@@std@@IBEPAU_Node@?$_Tree_nod@V?$_Tmap_traits@KPAVCClientSock@@U?$less@K@std@@V?$allocator@U?$pair@$$CBKPAVCClientSock@@@std@@@3@$0A@@std@@@2@ABK@Z
_TEXT	SEGMENT PARA USE32 PUBLIC 'CODE'
_TEXT	ENDS
;	COMDAT ??0?$_Tree_val@V?$_Tmap_traits@KPAVCClientSock@@U?$less@K@std@@V?$allocator@U?$pair@$$CBKPAVCClientSock@@@std@@@3@$0A@@std@@@std@@IAE@ABU?$less@K@1@V?$allocator@U?$pair@$$CBKPAVCClientSock@@@std@@@1@@Z
_TEXT	SEGMENT PARA USE32 PUBLIC 'CODE'
_TEXT	ENDS
;	COMDAT ?_Kfn@?$_Tmap_traits@KPAVCClientSock@@U?$less@K@std@@V?$allocator@U?$pair@$$CBKPAVCClientSock@@@std@@@3@$0A@@std@@SAABKABU?$pair@$$CBKPAVCClientSock@@@2@@Z
_TEXT	SEGMENT PARA USE32 PUBLIC 'CODE'
_TEXT	ENDS
;	COMDAT ??0?$allocator@U?$pair@$$CBKPAVCClientSock@@@std@@@std@@QAE@ABV01@@Z
_TEXT	SEGMENT PARA USE32 PUBLIC 'CODE'
_TEXT	ENDS
;	COMDAT ?deallocate@?$allocator@U_Node@?$_Tree_nod@V?$_Tmap_traits@KPAVCClientSock@@U?$less@K@std@@V?$allocator@U?$pair@$$CBKPAVCClientSock@@@std@@@3@$0A@@std@@@std@@@std@@QAEXPAU_Node@?$_Tree_nod@V?$_Tmap_traits@KPAVCClientSock@@U?$less@K@std@@V?$allocator@U?$pair@$$CBKPAVCClientSock@@@std@@@3@$0A@@std@@@2@I@Z
_TEXT	SEGMENT PARA USE32 PUBLIC 'CODE'
_TEXT	ENDS
;	COMDAT ?destroy@?$allocator@PAU_Node@?$_Tree_nod@V?$_Tmap_traits@KPAVCClientSock@@U?$less@K@std@@V?$allocator@U?$pair@$$CBKPAVCClientSock@@@std@@@3@$0A@@std@@@std@@@std@@QAEXPAPAU_Node@?$_Tree_nod@V?$_Tmap_traits@KPAVCClientSock@@U?$less@K@std@@V?$allocator@U?$pair@$$CBKPAVCClientSock@@@std@@@3@$0A@@std@@@2@@Z
_TEXT	SEGMENT PARA USE32 PUBLIC 'CODE'
_TEXT	ENDS
;	COMDAT ??0const_iterator@?$_Tree@V?$_Tmap_traits@KPAVCClientSock@@U?$less@K@std@@V?$allocator@U?$pair@$$CBKPAVCClientSock@@@std@@@3@$0A@@std@@@std@@QAE@PAU_Node@?$_Tree_nod@V?$_Tmap_traits@KPAVCClientSock@@U?$less@K@std@@V?$allocator@U?$pair@$$CBKPAVCClientSock@@@std@@@3@$0A@@std@@@2@@Z
_TEXT	SEGMENT PARA USE32 PUBLIC 'CODE'
_TEXT	ENDS
;	COMDAT ??Dconst_iterator@?$_Tree@V?$_Tmap_traits@KPAVCClientSock@@U?$less@K@std@@V?$allocator@U?$pair@$$CBKPAVCClientSock@@@std@@@3@$0A@@std@@@std@@QBEABU?$pair@$$CBKPAVCClientSock@@@2@XZ
_TEXT	SEGMENT PARA USE32 PUBLIC 'CODE'
_TEXT	ENDS
;	COMDAT ?_Left@?$_Tree@V?$_Tmap_traits@KPAVCClientSockE@@U?$less@K@std@@V?$allocator@U?$pair@$$CBKPAVCClientSockE@@@std@@@3@$0A@@std@@@std@@KAAAPAU_Node@?$_Tree_nod@V?$_Tmap_traits@KPAVCClientSockE@@U?$less@K@std@@V?$allocator@U?$pair@$$CBKPAVCClientSockE@@@std@@@3@$0A@@std@@@2@PAU342@@Z
_TEXT	SEGMENT PARA USE32 PUBLIC 'CODE'
_TEXT	ENDS
;	COMDAT ?_Parent@?$_Tree@V?$_Tmap_traits@KPAVCClientSockE@@U?$less@K@std@@V?$allocator@U?$pair@$$CBKPAVCClientSockE@@@std@@@3@$0A@@std@@@std@@KAAAPAU_Node@?$_Tree_nod@V?$_Tmap_traits@KPAVCClientSockE@@U?$less@K@std@@V?$allocator@U?$pair@$$CBKPAVCClientSockE@@@std@@@3@$0A@@std@@@2@PAU342@@Z
_TEXT	SEGMENT PARA USE32 PUBLIC 'CODE'
_TEXT	ENDS
;	COMDAT ?_Right@?$_Tree@V?$_Tmap_traits@KPAVCClientSockE@@U?$less@K@std@@V?$allocator@U?$pair@$$CBKPAVCClientSockE@@@std@@@3@$0A@@std@@@std@@KAAAPAU_Node@?$_Tree_nod@V?$_Tmap_traits@KPAVCClientSockE@@U?$less@K@std@@V?$allocator@U?$pair@$$CBKPAVCClientSockE@@@std@@@3@$0A@@std@@@2@PAU342@@Z
_TEXT	SEGMENT PARA USE32 PUBLIC 'CODE'
_TEXT	ENDS
;	COMDAT ?_Myval@?$_Tree@V?$_Tmap_traits@KPAVCClientSockE@@U?$less@K@std@@V?$allocator@U?$pair@$$CBKPAVCClientSockE@@@std@@@3@$0A@@std@@@std@@KAAAU?$pair@$$CBKPAVCClientSockE@@@2@PAU_Node@?$_Tree_nod@V?$_Tmap_traits@KPAVCClientSockE@@U?$less@K@std@@V?$allocator@U?$pair@$$CBKPAVCClientSockE@@@std@@@3@$0A@@std@@@2@@Z
_TEXT	SEGMENT PARA USE32 PUBLIC 'CODE'
_TEXT	ENDS
;	COMDAT ?begin@?$_Tree@V?$_Tmap_traits@KPAVCClientSockE@@U?$less@K@std@@V?$allocator@U?$pair@$$CBKPAVCClientSockE@@@std@@@3@$0A@@std@@@std@@QAE?AViterator@12@XZ
_TEXT	SEGMENT PARA USE32 PUBLIC 'CODE'
_TEXT	ENDS
;	COMDAT ?erase@?$_Tree@V?$_Tmap_traits@KPAVCClientSockE@@U?$less@K@std@@V?$allocator@U?$pair@$$CBKPAVCClientSockE@@@std@@@3@$0A@@std@@@std@@QAE?AViterator@12@V312@0@Z
_TEXT	SEGMENT PARA USE32 PUBLIC 'CODE'
_TEXT	ENDS
;	COMDAT ?_Init@?$_Tree@V?$_Tmap_traits@KPAVCClientSockE@@U?$less@K@std@@V?$allocator@U?$pair@$$CBKPAVCClientSockE@@@std@@@3@$0A@@std@@@std@@IAEXXZ
_TEXT	SEGMENT PARA USE32 PUBLIC 'CODE'
_TEXT	ENDS
;	COMDAT ?_Lbound@?$_Tree@V?$_Tmap_traits@KPAVCClientSockE@@U?$less@K@std@@V?$allocator@U?$pair@$$CBKPAVCClientSockE@@@std@@@3@$0A@@std@@@std@@IBEPAU_Node@?$_Tree_nod@V?$_Tmap_traits@KPAVCClientSockE@@U?$less@K@std@@V?$allocator@U?$pair@$$CBKPAVCClientSockE@@@std@@@3@$0A@@std@@@2@ABK@Z
_TEXT	SEGMENT PARA USE32 PUBLIC 'CODE'
_TEXT	ENDS
;	COMDAT ??0?$_Tree_val@V?$_Tmap_traits@KPAVCClientSockE@@U?$less@K@std@@V?$allocator@U?$pair@$$CBKPAVCClientSockE@@@std@@@3@$0A@@std@@@std@@IAE@ABU?$less@K@1@V?$allocator@U?$pair@$$CBKPAVCClientSockE@@@std@@@1@@Z
_TEXT	SEGMENT PARA USE32 PUBLIC 'CODE'
_TEXT	ENDS
;	COMDAT ?_Kfn@?$_Tmap_traits@KPAVCClientSockE@@U?$less@K@std@@V?$allocator@U?$pair@$$CBKPAVCClientSockE@@@std@@@3@$0A@@std@@SAABKABU?$pair@$$CBKPAVCClientSockE@@@2@@Z
_TEXT	SEGMENT PARA USE32 PUBLIC 'CODE'
_TEXT	ENDS
;	COMDAT ??0?$allocator@U?$pair@$$CBKPAVCClientSockE@@@std@@@std@@QAE@ABV01@@Z
_TEXT	SEGMENT PARA USE32 PUBLIC 'CODE'
_TEXT	ENDS
;	COMDAT ?deallocate@?$allocator@U_Node@?$_Tree_nod@V?$_Tmap_traits@KPAVCClientSockE@@U?$less@K@std@@V?$allocator@U?$pair@$$CBKPAVCClientSockE@@@std@@@3@$0A@@std@@@std@@@std@@QAEXPAU_Node@?$_Tree_nod@V?$_Tmap_traits@KPAVCClientSockE@@U?$less@K@std@@V?$allocator@U?$pair@$$CBKPAVCClientSockE@@@std@@@3@$0A@@std@@@2@I@Z
_TEXT	SEGMENT PARA USE32 PUBLIC 'CODE'
_TEXT	ENDS
;	COMDAT ?destroy@?$allocator@PAU_Node@?$_Tree_nod@V?$_Tmap_traits@KPAVCClientSockE@@U?$less@K@std@@V?$allocator@U?$pair@$$CBKPAVCClientSockE@@@std@@@3@$0A@@std@@@std@@@std@@QAEXPAPAU_Node@?$_Tree_nod@V?$_Tmap_traits@KPAVCClientSockE@@U?$less@K@std@@V?$allocator@U?$pair@$$CBKPAVCClientSockE@@@std@@@3@$0A@@std@@@2@@Z
_TEXT	SEGMENT PARA USE32 PUBLIC 'CODE'
_TEXT	ENDS
;	COMDAT ??0const_iterator@?$_Tree@V?$_Tmap_traits@KPAVCClientSockE@@U?$less@K@std@@V?$allocator@U?$pair@$$CBKPAVCClientSockE@@@std@@@3@$0A@@std@@@std@@QAE@PAU_Node@?$_Tree_nod@V?$_Tmap_traits@KPAVCClientSockE@@U?$less@K@std@@V?$allocator@U?$pair@$$CBKPAVCClientSockE@@@std@@@3@$0A@@std@@@2@@Z
_TEXT	SEGMENT PARA USE32 PUBLIC 'CODE'
_TEXT	ENDS
;	COMDAT ??Dconst_iterator@?$_Tree@V?$_Tmap_traits@KPAVCClientSockE@@U?$less@K@std@@V?$allocator@U?$pair@$$CBKPAVCClientSockE@@@std@@@3@$0A@@std@@@std@@QBEABU?$pair@$$CBKPAVCClientSockE@@@2@XZ
_TEXT	SEGMENT PARA USE32 PUBLIC 'CODE'
_TEXT	ENDS
;	COMDAT ?_Myval@?$_Tree@V?$_Tmap_traits@KP8CDPDatabaseClient@@AEXAAVCAr@@KK@ZU?$less@K@std@@V?$allocator@U?$pair@$$CBKP8CDPDatabaseClient@@AEXAAVCAr@@KK@Z@std@@@4@$0A@@std@@@std@@KAAAU?$pair@$$CBKP8CDPDatabaseClient@@AEXAAVCAr@@KK@Z@2@PAU_Node@?$_Tree_nod@V?$_Tmap_traits@KP8CDPDatabaseClient@@AEXAAVCAr@@KK@ZU?$less@K@std@@V?$allocator@U?$pair@$$CBKP8CDPDatabaseClient@@AEXAAVCAr@@KK@Z@std@@@4@$0A@@std@@@2@@Z
_TEXT	SEGMENT PARA USE32 PUBLIC 'CODE'
_TEXT	ENDS
;	COMDAT ?_Lbound@?$_Tree@V?$_Tmap_traits@KP8CDPDatabaseClient@@AEXAAVCAr@@KK@ZU?$less@K@std@@V?$allocator@U?$pair@$$CBKP8CDPDatabaseClient@@AEXAAVCAr@@KK@Z@std@@@4@$0A@@std@@@std@@IBEPAU_Node@?$_Tree_nod@V?$_Tmap_traits@KP8CDPDatabaseClient@@AEXAAVCAr@@KK@ZU?$less@K@std@@V?$allocator@U?$pair@$$CBKP8CDPDatabaseClient@@AEXAAVCAr@@KK@Z@std@@@4@$0A@@std@@@2@ABK@Z
_TEXT	SEGMENT PARA USE32 PUBLIC 'CODE'
_TEXT	ENDS
;	COMDAT ?_Kfn@?$_Tmap_traits@KP8CDPDatabaseClient@@AEXAAVCAr@@KK@ZU?$less@K@std@@V?$allocator@U?$pair@$$CBKP8CDPDatabaseClient@@AEXAAVCAr@@KK@Z@std@@@4@$0A@@std@@SAABKABU?$pair@$$CBKP8CDPDatabaseClient@@AEXAAVCAr@@KK@Z@2@@Z
_TEXT	SEGMENT PARA USE32 PUBLIC 'CODE'
_TEXT	ENDS
;	COMDAT ??0const_iterator@?$_Tree@V?$_Tmap_traits@KP8CDPDatabaseClient@@AEXAAVCAr@@KK@ZU?$less@K@std@@V?$allocator@U?$pair@$$CBKP8CDPDatabaseClient@@AEXAAVCAr@@KK@Z@std@@@4@$0A@@std@@@std@@QAE@PAU_Node@?$_Tree_nod@V?$_Tmap_traits@KP8CDPDatabaseClient@@AEXAAVCAr@@KK@ZU?$less@K@std@@V?$allocator@U?$pair@$$CBKP8CDPDatabaseClient@@AEXAAVCAr@@KK@Z@std@@@4@$0A@@std@@@2@@Z
_TEXT	SEGMENT PARA USE32 PUBLIC 'CODE'
_TEXT	ENDS
;	COMDAT ??Dconst_iterator@?$_Tree@V?$_Tmap_traits@KP8CDPDatabaseClient@@AEXAAVCAr@@KK@ZU?$less@K@std@@V?$allocator@U?$pair@$$CBKP8CDPDatabaseClient@@AEXAAVCAr@@KK@Z@std@@@4@$0A@@std@@@std@@QBEABU?$pair@$$CBKP8CDPDatabaseClient@@AEXAAVCAr@@KK@Z@2@XZ
_TEXT	SEGMENT PARA USE32 PUBLIC 'CODE'
_TEXT	ENDS
;	COMDAT ??0?$pair@Viterator@?$_Tree@V?$_Tmap_traits@KU_Friend@@U?$less@K@std@@V?$allocator@U?$pair@$$CBKU_Friend@@@std@@@3@$0A@@std@@@std@@V123@@std@@QAE@ABViterator@?$_Tree@V?$_Tmap_traits@KU_Friend@@U?$less@K@std@@V?$allocator@U?$pair@$$CBKU_Friend@@@std@@@3@$0A@@std@@@1@0@Z
_TEXT	SEGMENT PARA USE32 PUBLIC 'CODE'
_TEXT	ENDS
;	COMDAT ??0iterator@?$vector@PAU__JOINPLAYER@CGuildCombat@@V?$allocator@PAU__JOINPLAYER@CGuildCombat@@@std@@@std@@QAE@PAPAU__JOINPLAYER@CGuildCombat@@@Z
_TEXT	SEGMENT PARA USE32 PUBLIC 'CODE'
_TEXT	ENDS
;	COMDAT ??Yiterator@?$vector@PAU__JOINPLAYER@CGuildCombat@@V?$allocator@PAU__JOINPLAYER@CGuildCombat@@@std@@@std@@QAEAAV012@H@Z
_TEXT	SEGMENT PARA USE32 PUBLIC 'CODE'
_TEXT	ENDS
;	COMDAT ??Dconst_iterator@?$vector@PAU__JOINPLAYER@CGuildCombat@@V?$allocator@PAU__JOINPLAYER@CGuildCombat@@@std@@@std@@QBEABQAU__JOINPLAYER@CGuildCombat@@XZ
_TEXT	SEGMENT PARA USE32 PUBLIC 'CODE'
_TEXT	ENDS
;	COMDAT ??0iterator@?$vector@V?$basic_string@DU?$char_traits@D@std@@V?$allocator@D@2@@std@@V?$allocator@V?$basic_string@DU?$char_traits@D@std@@V?$allocator@D@2@@std@@@2@@std@@QAE@PAV?$basic_string@DU?$char_traits@D@std@@V?$allocator@D@2@@2@@Z
_TEXT	SEGMENT PARA USE32 PUBLIC 'CODE'
_TEXT	ENDS
;	COMDAT ??Yiterator@?$vector@V?$basic_string@DU?$char_traits@D@std@@V?$allocator@D@2@@std@@V?$allocator@V?$basic_string@DU?$char_traits@D@std@@V?$allocator@D@2@@std@@@2@@std@@QAEAAV012@H@Z
_TEXT	SEGMENT PARA USE32 PUBLIC 'CODE'
_TEXT	ENDS
;	COMDAT ??Giterator@?$vector@V?$basic_string@DU?$char_traits@D@std@@V?$allocator@D@2@@std@@V?$allocator@V?$basic_string@DU?$char_traits@D@std@@V?$allocator@D@2@@std@@@2@@std@@QBEHABVconst_iterator@12@@Z
_TEXT	SEGMENT PARA USE32 PUBLIC 'CODE'
_TEXT	ENDS
;	COMDAT ??Dconst_iterator@?$vector@V?$basic_string@DU?$char_traits@D@std@@V?$allocator@D@2@@std@@V?$allocator@V?$basic_string@DU?$char_traits@D@std@@V?$allocator@D@2@@std@@@2@@std@@QBEABV?$basic_string@DU?$char_traits@D@std@@V?$allocator@D@2@@2@XZ
_TEXT	SEGMENT PARA USE32 PUBLIC 'CODE'
_TEXT	ENDS
;	COMDAT ??0iterator@?$vector@UMINIGMAME_PRIZE_LIST@CRainbowRaceMng@@V?$allocator@UMINIGMAME_PRIZE_LIST@CRainbowRaceMng@@@std@@@std@@QAE@PAUMINIGMAME_PRIZE_LIST@CRainbowRaceMng@@@Z
_TEXT	SEGMENT PARA USE32 PUBLIC 'CODE'
_TEXT	ENDS
;	COMDAT ??Hiterator@?$vector@UMINIGMAME_PRIZE_LIST@CRainbowRaceMng@@V?$allocator@UMINIGMAME_PRIZE_LIST@CRainbowRaceMng@@@std@@@std@@QBE?AV012@H@Z
_TEXT	SEGMENT PARA USE32 PUBLIC 'CODE'
_TEXT	ENDS
;	COMDAT ??Giterator@?$vector@UMINIGMAME_PRIZE_LIST@CRainbowRaceMng@@V?$allocator@UMINIGMAME_PRIZE_LIST@CRainbowRaceMng@@@std@@@std@@QBEHABVconst_iterator@12@@Z
_TEXT	SEGMENT PARA USE32 PUBLIC 'CODE'
_TEXT	ENDS
;	COMDAT ??0iterator@?$vector@PAVCMiniGameBase@@V?$allocator@PAVCMiniGameBase@@@std@@@std@@QAE@PAPAVCMiniGameBase@@@Z
_TEXT	SEGMENT PARA USE32 PUBLIC 'CODE'
_TEXT	ENDS
;	COMDAT ??Yiterator@?$vector@PAVCMiniGameBase@@V?$allocator@PAVCMiniGameBase@@@std@@@std@@QAEAAV012@H@Z
_TEXT	SEGMENT PARA USE32 PUBLIC 'CODE'
_TEXT	ENDS
;	COMDAT ??Dconst_iterator@?$vector@PAVCMiniGameBase@@V?$allocator@PAVCMiniGameBase@@@std@@@std@@QBEABQAVCMiniGameBase@@XZ
_TEXT	SEGMENT PARA USE32 PUBLIC 'CODE'
_TEXT	ENDS
;	COMDAT ??0iterator@?$vector@UGuildHouse_Furniture_Info@CGuildHouseBase@@V?$allocator@UGuildHouse_Furniture_Info@CGuildHouseBase@@@std@@@std@@QAE@PAUGuildHouse_Furniture_Info@CGuildHouseBase@@@Z
_TEXT	SEGMENT PARA USE32 PUBLIC 'CODE'
_TEXT	ENDS
;	COMDAT ??Yiterator@?$vector@UGuildHouse_Furniture_Info@CGuildHouseBase@@V?$allocator@UGuildHouse_Furniture_Info@CGuildHouseBase@@@std@@@std@@QAEAAV012@H@Z
_TEXT	SEGMENT PARA USE32 PUBLIC 'CODE'
_TEXT	ENDS
;	COMDAT ??Dconst_iterator@?$vector@UGuildHouse_Furniture_Info@CGuildHouseBase@@V?$allocator@UGuildHouse_Furniture_Info@CGuildHouseBase@@@std@@@std@@QBEABUGuildHouse_Furniture_Info@CGuildHouseBase@@XZ
_TEXT	SEGMENT PARA USE32 PUBLIC 'CODE'
_TEXT	ENDS
;	COMDAT ??0?$pair@Viterator@?$_Tree@V?$_Tmap_traits@KKU?$less@K@std@@V?$allocator@U?$pair@$$CBKK@std@@@2@$0A@@std@@@std@@V123@@std@@QAE@ABViterator@?$_Tree@V?$_Tmap_traits@KKU?$less@K@std@@V?$allocator@U?$pair@$$CBKK@std@@@2@$0A@@std@@@1@0@Z
_TEXT	SEGMENT PARA USE32 PUBLIC 'CODE'
_TEXT	ENDS
;	COMDAT ?Append@?$CSimpleStringT@D$0A@@ATL@@QAEXPBDH@Z
_TEXT	SEGMENT PARA USE32 PUBLIC 'CODE'
_TEXT	ENDS
;	COMDAT ?max_size@?$allocator@V?$basic_string@DU?$char_traits@D@std@@V?$allocator@D@2@@std@@@std@@QBEIXZ
_TEXT	SEGMENT PARA USE32 PUBLIC 'CODE'
_TEXT	ENDS
;	COMDAT ??0const_iterator@?$_Tree@V?$_Tmap_traits@KPAVCCtrl@@U?$less@K@std@@V?$allocator@U?$pair@$$CBKPAVCCtrl@@@std@@@3@$0A@@std@@@std@@QAE@XZ
_TEXT	SEGMENT PARA USE32 PUBLIC 'CODE'
_TEXT	ENDS
;	COMDAT ?destroy@?$allocator@PAUtagACTMSG@@@std@@QAEXPAPAUtagACTMSG@@@Z
_TEXT	SEGMENT PARA USE32 PUBLIC 'CODE'
_TEXT	ENDS
;	COMDAT ?destroy@?$allocator@PAUtagMAGICATKMSG@@@std@@QAEXPAPAUtagMAGICATKMSG@@@Z
_TEXT	SEGMENT PARA USE32 PUBLIC 'CODE'
_TEXT	ENDS
;	COMDAT ?_Color@?$_Tree@V?$_Tmap_traits@KU_Friend@@U?$less@K@std@@V?$allocator@U?$pair@$$CBKU_Friend@@@std@@@3@$0A@@std@@@std@@KAAADPAU_Node@?$_Tree_nod@V?$_Tmap_traits@KU_Friend@@U?$less@K@std@@V?$allocator@U?$pair@$$CBKU_Friend@@@std@@@3@$0A@@std@@@2@@Z
_TEXT	SEGMENT PARA USE32 PUBLIC 'CODE'
_TEXT	ENDS
;	COMDAT ?_Isnil@?$_Tree@V?$_Tmap_traits@KU_Friend@@U?$less@K@std@@V?$allocator@U?$pair@$$CBKU_Friend@@@std@@@3@$0A@@std@@@std@@KAAADPAU_Node@?$_Tree_nod@V?$_Tmap_traits@KU_Friend@@U?$less@K@std@@V?$allocator@U?$pair@$$CBKU_Friend@@@std@@@3@$0A@@std@@@2@@Z
_TEXT	SEGMENT PARA USE32 PUBLIC 'CODE'
_TEXT	ENDS
;	COMDAT ?_Left@?$_Tree@V?$_Tmap_traits@KU_Friend@@U?$less@K@std@@V?$allocator@U?$pair@$$CBKU_Friend@@@std@@@3@$0A@@std@@@std@@KAAAPAU_Node@?$_Tree_nod@V?$_Tmap_traits@KU_Friend@@U?$less@K@std@@V?$allocator@U?$pair@$$CBKU_Friend@@@std@@@3@$0A@@std@@@2@PAU342@@Z
_TEXT	SEGMENT PARA USE32 PUBLIC 'CODE'
_TEXT	ENDS
;	COMDAT ?_Parent@?$_Tree@V?$_Tmap_traits@KU_Friend@@U?$less@K@std@@V?$allocator@U?$pair@$$CBKU_Friend@@@std@@@3@$0A@@std@@@std@@KAAAPAU_Node@?$_Tree_nod@V?$_Tmap_traits@KU_Friend@@U?$less@K@std@@V?$allocator@U?$pair@$$CBKU_Friend@@@std@@@3@$0A@@std@@@2@PAU342@@Z
_TEXT	SEGMENT PARA USE32 PUBLIC 'CODE'
_TEXT	ENDS
;	COMDAT ?_Right@?$_Tree@V?$_Tmap_traits@KU_Friend@@U?$less@K@std@@V?$allocator@U?$pair@$$CBKU_Friend@@@std@@@3@$0A@@std@@@std@@KAAAPAU_Node@?$_Tree_nod@V?$_Tmap_traits@KU_Friend@@U?$less@K@std@@V?$allocator@U?$pair@$$CBKU_Friend@@@std@@@3@$0A@@std@@@2@PAU342@@Z
_TEXT	SEGMENT PARA USE32 PUBLIC 'CODE'
_TEXT	ENDS
;	COMDAT ?_Erase@?$_Tree@V?$_Tmap_traits@KU_Friend@@U?$less@K@std@@V?$allocator@U?$pair@$$CBKU_Friend@@@std@@@3@$0A@@std@@@std@@IAEXPAU_Node@?$_Tree_nod@V?$_Tmap_traits@KU_Friend@@U?$less@K@std@@V?$allocator@U?$pair@$$CBKU_Friend@@@std@@@3@$0A@@std@@@2@@Z
_TEXT	SEGMENT PARA USE32 PUBLIC 'CODE'
_TEXT	ENDS
;	COMDAT ?_Lbound@?$_Tree@V?$_Tmap_traits@KU_Friend@@U?$less@K@std@@V?$allocator@U?$pair@$$CBKU_Friend@@@std@@@3@$0A@@std@@@std@@IBEPAU_Node@?$_Tree_nod@V?$_Tmap_traits@KU_Friend@@U?$less@K@std@@V?$allocator@U?$pair@$$CBKU_Friend@@@std@@@3@$0A@@std@@@2@ABK@Z
_TEXT	SEGMENT PARA USE32 PUBLIC 'CODE'
_TEXT	ENDS
;	COMDAT ?_Lmost@?$_Tree@V?$_Tmap_traits@KU_Friend@@U?$less@K@std@@V?$allocator@U?$pair@$$CBKU_Friend@@@std@@@3@$0A@@std@@@std@@IAEAAPAU_Node@?$_Tree_nod@V?$_Tmap_traits@KU_Friend@@U?$less@K@std@@V?$allocator@U?$pair@$$CBKU_Friend@@@std@@@3@$0A@@std@@@2@XZ
_TEXT	SEGMENT PARA USE32 PUBLIC 'CODE'
_TEXT	ENDS
;	COMDAT ?_Lrotate@?$_Tree@V?$_Tmap_traits@KU_Friend@@U?$less@K@std@@V?$allocator@U?$pair@$$CBKU_Friend@@@std@@@3@$0A@@std@@@std@@IAEXPAU_Node@?$_Tree_nod@V?$_Tmap_traits@KU_Friend@@U?$less@K@std@@V?$allocator@U?$pair@$$CBKU_Friend@@@std@@@3@$0A@@std@@@2@@Z
_TEXT	SEGMENT PARA USE32 PUBLIC 'CODE'
_TEXT	ENDS
;	COMDAT ?_Max@?$_Tree@V?$_Tmap_traits@KU_Friend@@U?$less@K@std@@V?$allocator@U?$pair@$$CBKU_Friend@@@std@@@3@$0A@@std@@@std@@KAPAU_Node@?$_Tree_nod@V?$_Tmap_traits@KU_Friend@@U?$less@K@std@@V?$allocator@U?$pair@$$CBKU_Friend@@@std@@@3@$0A@@std@@@2@PAU342@@Z
_TEXT	SEGMENT PARA USE32 PUBLIC 'CODE'
_TEXT	ENDS
;	COMDAT ?_Min@?$_Tree@V?$_Tmap_traits@KU_Friend@@U?$less@K@std@@V?$allocator@U?$pair@$$CBKU_Friend@@@std@@@3@$0A@@std@@@std@@KAPAU_Node@?$_Tree_nod@V?$_Tmap_traits@KU_Friend@@U?$less@K@std@@V?$allocator@U?$pair@$$CBKU_Friend@@@std@@@3@$0A@@std@@@2@PAU342@@Z
_TEXT	SEGMENT PARA USE32 PUBLIC 'CODE'
_TEXT	ENDS
;	COMDAT ?_Rmost@?$_Tree@V?$_Tmap_traits@KU_Friend@@U?$less@K@std@@V?$allocator@U?$pair@$$CBKU_Friend@@@std@@@3@$0A@@std@@@std@@IAEAAPAU_Node@?$_Tree_nod@V?$_Tmap_traits@KU_Friend@@U?$less@K@std@@V?$allocator@U?$pair@$$CBKU_Friend@@@std@@@3@$0A@@std@@@2@XZ
_TEXT	SEGMENT PARA USE32 PUBLIC 'CODE'
_TEXT	ENDS
;	COMDAT ?_Root@?$_Tree@V?$_Tmap_traits@KU_Friend@@U?$less@K@std@@V?$allocator@U?$pair@$$CBKU_Friend@@@std@@@3@$0A@@std@@@std@@IAEAAPAU_Node@?$_Tree_nod@V?$_Tmap_traits@KU_Friend@@U?$less@K@std@@V?$allocator@U?$pair@$$CBKU_Friend@@@std@@@3@$0A@@std@@@2@XZ
_TEXT	SEGMENT PARA USE32 PUBLIC 'CODE'
_TEXT	ENDS
;	COMDAT ?_Rrotate@?$_Tree@V?$_Tmap_traits@KU_Friend@@U?$less@K@std@@V?$allocator@U?$pair@$$CBKU_Friend@@@std@@@3@$0A@@std@@@std@@IAEXPAU_Node@?$_Tree_nod@V?$_Tmap_traits@KU_Friend@@U?$less@K@std@@V?$allocator@U?$pair@$$CBKU_Friend@@@std@@@3@$0A@@std@@@2@@Z
_TEXT	SEGMENT PARA USE32 PUBLIC 'CODE'
_TEXT	ENDS
;	COMDAT ?_Ubound@?$_Tree@V?$_Tmap_traits@KU_Friend@@U?$less@K@std@@V?$allocator@U?$pair@$$CBKU_Friend@@@std@@@3@$0A@@std@@@std@@IBEPAU_Node@?$_Tree_nod@V?$_Tmap_traits@KU_Friend@@U?$less@K@std@@V?$allocator@U?$pair@$$CBKU_Friend@@@std@@@3@$0A@@std@@@2@ABK@Z
_TEXT	SEGMENT PARA USE32 PUBLIC 'CODE'
_TEXT	ENDS
;	COMDAT ?deallocate@?$allocator@U_Node@?$_Tree_nod@V?$_Tmap_traits@KU_Friend@@U?$less@K@std@@V?$allocator@U?$pair@$$CBKU_Friend@@@std@@@3@$0A@@std@@@std@@@std@@QAEXPAU_Node@?$_Tree_nod@V?$_Tmap_traits@KU_Friend@@U?$less@K@std@@V?$allocator@U?$pair@$$CBKU_Friend@@@std@@@3@$0A@@std@@@2@I@Z
_TEXT	SEGMENT PARA USE32 PUBLIC 'CODE'
_TEXT	ENDS
;	COMDAT ?destroy@?$allocator@U_Node@?$_Tree_nod@V?$_Tmap_traits@KU_Friend@@U?$less@K@std@@V?$allocator@U?$pair@$$CBKU_Friend@@@std@@@3@$0A@@std@@@std@@@std@@QAEXPAU_Node@?$_Tree_nod@V?$_Tmap_traits@KU_Friend@@U?$less@K@std@@V?$allocator@U?$pair@$$CBKU_Friend@@@std@@@3@$0A@@std@@@2@@Z
_TEXT	SEGMENT PARA USE32 PUBLIC 'CODE'
_TEXT	ENDS
;	COMDAT ??0iterator@?$_Tree@V?$_Tmap_traits@KU_Friend@@U?$less@K@std@@V?$allocator@U?$pair@$$CBKU_Friend@@@std@@@3@$0A@@std@@@std@@QAE@PAU_Node@?$_Tree_nod@V?$_Tmap_traits@KU_Friend@@U?$less@K@std@@V?$allocator@U?$pair@$$CBKU_Friend@@@std@@@3@$0A@@std@@@2@@Z
_TEXT	SEGMENT PARA USE32 PUBLIC 'CODE'
_TEXT	ENDS
;	COMDAT ??Eiterator@?$_Tree@V?$_Tmap_traits@KU_Friend@@U?$less@K@std@@V?$allocator@U?$pair@$$CBKU_Friend@@@std@@@3@$0A@@std@@@std@@QAEAAV012@XZ
_TEXT	SEGMENT PARA USE32 PUBLIC 'CODE'
_TEXT	ENDS
;	COMDAT ?_Mynode@const_iterator@?$_Tree@V?$_Tmap_traits@KU_Friend@@U?$less@K@std@@V?$allocator@U?$pair@$$CBKU_Friend@@@std@@@3@$0A@@std@@@std@@QBEPAU_Node@?$_Tree_nod@V?$_Tmap_traits@KU_Friend@@U?$less@K@std@@V?$allocator@U?$pair@$$CBKU_Friend@@@std@@@3@$0A@@std@@@3@XZ
_TEXT	SEGMENT PARA USE32 PUBLIC 'CODE'
_TEXT	ENDS
;	COMDAT ?max_size@?$allocator@U__SECRETROOM_MONSTER@@@std@@QBEIXZ
_TEXT	SEGMENT PARA USE32 PUBLIC 'CODE'
_TEXT	ENDS
;	COMDAT ?max_size@?$vector@UMINIGMAME_PRIZE_LIST@CRainbowRaceMng@@V?$allocator@UMINIGMAME_PRIZE_LIST@CRainbowRaceMng@@@std@@@std@@QBEIXZ
_TEXT	SEGMENT PARA USE32 PUBLIC 'CODE'
_TEXT	ENDS
;	COMDAT ?_Destroy@?$vector@UMINIGMAME_PRIZE_LIST@CRainbowRaceMng@@V?$allocator@UMINIGMAME_PRIZE_LIST@CRainbowRaceMng@@@std@@@std@@IAEXPAUMINIGMAME_PRIZE_LIST@CRainbowRaceMng@@0@Z
_TEXT	SEGMENT PARA USE32 PUBLIC 'CODE'
_TEXT	ENDS
;	COMDAT ?_Xlen@?$vector@UMINIGMAME_PRIZE_LIST@CRainbowRaceMng@@V?$allocator@UMINIGMAME_PRIZE_LIST@CRainbowRaceMng@@@std@@@std@@IBEXXZ
_TEXT	SEGMENT PARA USE32 PUBLIC 'CODE'
_TEXT	ENDS
;	COMDAT ?deallocate@?$allocator@UMINIGMAME_PRIZE_LIST@CRainbowRaceMng@@@std@@QAEXPAUMINIGMAME_PRIZE_LIST@CRainbowRaceMng@@I@Z
_TEXT	SEGMENT PARA USE32 PUBLIC 'CODE'
_TEXT	ENDS
;	COMDAT ?allocate@?$allocator@UMINIGMAME_PRIZE_LIST@CRainbowRaceMng@@@std@@QAEPAUMINIGMAME_PRIZE_LIST@CRainbowRaceMng@@I@Z
_TEXT	SEGMENT PARA USE32 PUBLIC 'CODE'
_TEXT	ENDS
;	COMDAT ?max_size@?$allocator@U?$pair@$$CBKPAVCGuildHouseBase@@@std@@@std@@QBEIXZ
_TEXT	SEGMENT PARA USE32 PUBLIC 'CODE'
_TEXT	ENDS
;	COMDAT ?deallocate@?$allocator@U_Node@?$_Tree_nod@V?$_Tmap_traits@KPAVCGuildHouseBase@@U?$less@K@std@@V?$allocator@U?$pair@$$CBKPAVCGuildHouseBase@@@std@@@3@$0A@@std@@@std@@@std@@QAEXPAU_Node@?$_Tree_nod@V?$_Tmap_traits@KPAVCGuildHouseBase@@U?$less@K@std@@V?$allocator@U?$pair@$$CBKPAVCGuildHouseBase@@@std@@@3@$0A@@std@@@2@I@Z
_TEXT	SEGMENT PARA USE32 PUBLIC 'CODE'
_TEXT	ENDS
;	COMDAT ?allocate@?$allocator@U_Node@?$_Tree_nod@V?$_Tmap_traits@KPAVCGuildHouseBase@@U?$less@K@std@@V?$allocator@U?$pair@$$CBKPAVCGuildHouseBase@@@std@@@3@$0A@@std@@@std@@@std@@QAEPAU_Node@?$_Tree_nod@V?$_Tmap_traits@KPAVCGuildHouseBase@@U?$less@K@std@@V?$allocator@U?$pair@$$CBKPAVCGuildHouseBase@@@std@@@3@$0A@@std@@@2@I@Z
_TEXT	SEGMENT PARA USE32 PUBLIC 'CODE'
_TEXT	ENDS
;	COMDAT ?_Dec@const_iterator@?$_Tree@V?$_Tmap_traits@KPAVCGuildHouseBase@@U?$less@K@std@@V?$allocator@U?$pair@$$CBKPAVCGuildHouseBase@@@std@@@3@$0A@@std@@@std@@QAEXXZ
_TEXT	SEGMENT PARA USE32 PUBLIC 'CODE'
_TEXT	ENDS
;	COMDAT ?_Color@?$_Tree@V?$_Tmap_traits@KKU?$less@K@std@@V?$allocator@U?$pair@$$CBKK@std@@@2@$0A@@std@@@std@@KAAADPAU_Node@?$_Tree_nod@V?$_Tmap_traits@KKU?$less@K@std@@V?$allocator@U?$pair@$$CBKK@std@@@2@$0A@@std@@@2@@Z
_TEXT	SEGMENT PARA USE32 PUBLIC 'CODE'
_TEXT	ENDS
;	COMDAT ?_Isnil@?$_Tree@V?$_Tmap_traits@KKU?$less@K@std@@V?$allocator@U?$pair@$$CBKK@std@@@2@$0A@@std@@@std@@KAAADPAU_Node@?$_Tree_nod@V?$_Tmap_traits@KKU?$less@K@std@@V?$allocator@U?$pair@$$CBKK@std@@@2@$0A@@std@@@2@@Z
_TEXT	SEGMENT PARA USE32 PUBLIC 'CODE'
_TEXT	ENDS
;	COMDAT ?_Left@?$_Tree@V?$_Tmap_traits@KKU?$less@K@std@@V?$allocator@U?$pair@$$CBKK@std@@@2@$0A@@std@@@std@@KAAAPAU_Node@?$_Tree_nod@V?$_Tmap_traits@KKU?$less@K@std@@V?$allocator@U?$pair@$$CBKK@std@@@2@$0A@@std@@@2@PAU342@@Z
_TEXT	SEGMENT PARA USE32 PUBLIC 'CODE'
_TEXT	ENDS
;	COMDAT ?_Parent@?$_Tree@V?$_Tmap_traits@KKU?$less@K@std@@V?$allocator@U?$pair@$$CBKK@std@@@2@$0A@@std@@@std@@KAAAPAU_Node@?$_Tree_nod@V?$_Tmap_traits@KKU?$less@K@std@@V?$allocator@U?$pair@$$CBKK@std@@@2@$0A@@std@@@2@PAU342@@Z
_TEXT	SEGMENT PARA USE32 PUBLIC 'CODE'
_TEXT	ENDS
;	COMDAT ?_Right@?$_Tree@V?$_Tmap_traits@KKU?$less@K@std@@V?$allocator@U?$pair@$$CBKK@std@@@2@$0A@@std@@@std@@KAAAPAU_Node@?$_Tree_nod@V?$_Tmap_traits@KKU?$less@K@std@@V?$allocator@U?$pair@$$CBKK@std@@@2@$0A@@std@@@2@PAU342@@Z
_TEXT	SEGMENT PARA USE32 PUBLIC 'CODE'
_TEXT	ENDS
;	COMDAT ?_Erase@?$_Tree@V?$_Tmap_traits@KKU?$less@K@std@@V?$allocator@U?$pair@$$CBKK@std@@@2@$0A@@std@@@std@@IAEXPAU_Node@?$_Tree_nod@V?$_Tmap_traits@KKU?$less@K@std@@V?$allocator@U?$pair@$$CBKK@std@@@2@$0A@@std@@@2@@Z
_TEXT	SEGMENT PARA USE32 PUBLIC 'CODE'
_TEXT	ENDS
;	COMDAT ?_Lbound@?$_Tree@V?$_Tmap_traits@KKU?$less@K@std@@V?$allocator@U?$pair@$$CBKK@std@@@2@$0A@@std@@@std@@IBEPAU_Node@?$_Tree_nod@V?$_Tmap_traits@KKU?$less@K@std@@V?$allocator@U?$pair@$$CBKK@std@@@2@$0A@@std@@@2@ABK@Z
_TEXT	SEGMENT PARA USE32 PUBLIC 'CODE'
_TEXT	ENDS
;	COMDAT ?_Lmost@?$_Tree@V?$_Tmap_traits@KKU?$less@K@std@@V?$allocator@U?$pair@$$CBKK@std@@@2@$0A@@std@@@std@@IAEAAPAU_Node@?$_Tree_nod@V?$_Tmap_traits@KKU?$less@K@std@@V?$allocator@U?$pair@$$CBKK@std@@@2@$0A@@std@@@2@XZ
_TEXT	SEGMENT PARA USE32 PUBLIC 'CODE'
_TEXT	ENDS
;	COMDAT ?_Lrotate@?$_Tree@V?$_Tmap_traits@KKU?$less@K@std@@V?$allocator@U?$pair@$$CBKK@std@@@2@$0A@@std@@@std@@IAEXPAU_Node@?$_Tree_nod@V?$_Tmap_traits@KKU?$less@K@std@@V?$allocator@U?$pair@$$CBKK@std@@@2@$0A@@std@@@2@@Z
_TEXT	SEGMENT PARA USE32 PUBLIC 'CODE'
_TEXT	ENDS
;	COMDAT ?_Max@?$_Tree@V?$_Tmap_traits@KKU?$less@K@std@@V?$allocator@U?$pair@$$CBKK@std@@@2@$0A@@std@@@std@@KAPAU_Node@?$_Tree_nod@V?$_Tmap_traits@KKU?$less@K@std@@V?$allocator@U?$pair@$$CBKK@std@@@2@$0A@@std@@@2@PAU342@@Z
_TEXT	SEGMENT PARA USE32 PUBLIC 'CODE'
_TEXT	ENDS
;	COMDAT ?_Min@?$_Tree@V?$_Tmap_traits@KKU?$less@K@std@@V?$allocator@U?$pair@$$CBKK@std@@@2@$0A@@std@@@std@@KAPAU_Node@?$_Tree_nod@V?$_Tmap_traits@KKU?$less@K@std@@V?$allocator@U?$pair@$$CBKK@std@@@2@$0A@@std@@@2@PAU342@@Z
_TEXT	SEGMENT PARA USE32 PUBLIC 'CODE'
_TEXT	ENDS
;	COMDAT ?_Rmost@?$_Tree@V?$_Tmap_traits@KKU?$less@K@std@@V?$allocator@U?$pair@$$CBKK@std@@@2@$0A@@std@@@std@@IAEAAPAU_Node@?$_Tree_nod@V?$_Tmap_traits@KKU?$less@K@std@@V?$allocator@U?$pair@$$CBKK@std@@@2@$0A@@std@@@2@XZ
_TEXT	SEGMENT PARA USE32 PUBLIC 'CODE'
_TEXT	ENDS
;	COMDAT ?_Root@?$_Tree@V?$_Tmap_traits@KKU?$less@K@std@@V?$allocator@U?$pair@$$CBKK@std@@@2@$0A@@std@@@std@@IAEAAPAU_Node@?$_Tree_nod@V?$_Tmap_traits@KKU?$less@K@std@@V?$allocator@U?$pair@$$CBKK@std@@@2@$0A@@std@@@2@XZ
_TEXT	SEGMENT PARA USE32 PUBLIC 'CODE'
_TEXT	ENDS
;	COMDAT ?_Rrotate@?$_Tree@V?$_Tmap_traits@KKU?$less@K@std@@V?$allocator@U?$pair@$$CBKK@std@@@2@$0A@@std@@@std@@IAEXPAU_Node@?$_Tree_nod@V?$_Tmap_traits@KKU?$less@K@std@@V?$allocator@U?$pair@$$CBKK@std@@@2@$0A@@std@@@2@@Z
_TEXT	SEGMENT PARA USE32 PUBLIC 'CODE'
_TEXT	ENDS
;	COMDAT ?_Ubound@?$_Tree@V?$_Tmap_traits@KKU?$less@K@std@@V?$allocator@U?$pair@$$CBKK@std@@@2@$0A@@std@@@std@@IBEPAU_Node@?$_Tree_nod@V?$_Tmap_traits@KKU?$less@K@std@@V?$allocator@U?$pair@$$CBKK@std@@@2@$0A@@std@@@2@ABK@Z
_TEXT	SEGMENT PARA USE32 PUBLIC 'CODE'
_TEXT	ENDS
;	COMDAT ?deallocate@?$allocator@U_Node@?$_Tree_nod@V?$_Tmap_traits@KKU?$less@K@std@@V?$allocator@U?$pair@$$CBKK@std@@@2@$0A@@std@@@std@@@std@@QAEXPAU_Node@?$_Tree_nod@V?$_Tmap_traits@KKU?$less@K@std@@V?$allocator@U?$pair@$$CBKK@std@@@2@$0A@@std@@@2@I@Z
_TEXT	SEGMENT PARA USE32 PUBLIC 'CODE'
_TEXT	ENDS
;	COMDAT ?destroy@?$allocator@U_Node@?$_Tree_nod@V?$_Tmap_traits@KKU?$less@K@std@@V?$allocator@U?$pair@$$CBKK@std@@@2@$0A@@std@@@std@@@std@@QAEXPAU_Node@?$_Tree_nod@V?$_Tmap_traits@KKU?$less@K@std@@V?$allocator@U?$pair@$$CBKK@std@@@2@$0A@@std@@@2@@Z
_TEXT	SEGMENT PARA USE32 PUBLIC 'CODE'
_TEXT	ENDS
;	COMDAT ??0iterator@?$_Tree@V?$_Tmap_traits@KKU?$less@K@std@@V?$allocator@U?$pair@$$CBKK@std@@@2@$0A@@std@@@std@@QAE@PAU_Node@?$_Tree_nod@V?$_Tmap_traits@KKU?$less@K@std@@V?$allocator@U?$pair@$$CBKK@std@@@2@$0A@@std@@@2@@Z
_TEXT	SEGMENT PARA USE32 PUBLIC 'CODE'
_TEXT	ENDS
;	COMDAT ??Eiterator@?$_Tree@V?$_Tmap_traits@KKU?$less@K@std@@V?$allocator@U?$pair@$$CBKK@std@@@2@$0A@@std@@@std@@QAEAAV012@XZ
_TEXT	SEGMENT PARA USE32 PUBLIC 'CODE'
_TEXT	ENDS
;	COMDAT ?_Mynode@const_iterator@?$_Tree@V?$_Tmap_traits@KKU?$less@K@std@@V?$allocator@U?$pair@$$CBKK@std@@@2@$0A@@std@@@std@@QBEPAU_Node@?$_Tree_nod@V?$_Tmap_traits@KKU?$less@K@std@@V?$allocator@U?$pair@$$CBKK@std@@@2@$0A@@std@@@3@XZ
_TEXT	SEGMENT PARA USE32 PUBLIC 'CODE'
_TEXT	ENDS
;	COMDAT ?_Isnil@?$_Tree@V?$_Tmap_traits@KPAVCClientSock@@U?$less@K@std@@V?$allocator@U?$pair@$$CBKPAVCClientSock@@@std@@@3@$0A@@std@@@std@@KAAADPAU_Node@?$_Tree_nod@V?$_Tmap_traits@KPAVCClientSock@@U?$less@K@std@@V?$allocator@U?$pair@$$CBKPAVCClientSock@@@std@@@3@$0A@@std@@@2@@Z
_TEXT	SEGMENT PARA USE32 PUBLIC 'CODE'
_TEXT	ENDS
;	COMDAT ?erase@?$_Tree@V?$_Tmap_traits@KPAVCClientSock@@U?$less@K@std@@V?$allocator@U?$pair@$$CBKPAVCClientSock@@@std@@@3@$0A@@std@@@std@@QAE?AViterator@12@V312@@Z
_TEXT	SEGMENT PARA USE32 PUBLIC 'CODE'
_TEXT	ENDS
;	COMDAT ?clear@?$_Tree@V?$_Tmap_traits@KPAVCClientSock@@U?$less@K@std@@V?$allocator@U?$pair@$$CBKPAVCClientSock@@@std@@@3@$0A@@std@@@std@@QAEXXZ
_TEXT	SEGMENT PARA USE32 PUBLIC 'CODE'
_TEXT	ENDS
;	COMDAT ?_Lmost@?$_Tree@V?$_Tmap_traits@KPAVCClientSock@@U?$less@K@std@@V?$allocator@U?$pair@$$CBKPAVCClientSock@@@std@@@3@$0A@@std@@@std@@IAEAAPAU_Node@?$_Tree_nod@V?$_Tmap_traits@KPAVCClientSock@@U?$less@K@std@@V?$allocator@U?$pair@$$CBKPAVCClientSock@@@std@@@3@$0A@@std@@@2@XZ
_TEXT	SEGMENT PARA USE32 PUBLIC 'CODE'
_TEXT	ENDS
;	COMDAT ?_Rmost@?$_Tree@V?$_Tmap_traits@KPAVCClientSock@@U?$less@K@std@@V?$allocator@U?$pair@$$CBKPAVCClientSock@@@std@@@3@$0A@@std@@@std@@IAEAAPAU_Node@?$_Tree_nod@V?$_Tmap_traits@KPAVCClientSock@@U?$less@K@std@@V?$allocator@U?$pair@$$CBKPAVCClientSock@@@std@@@3@$0A@@std@@@2@XZ
_TEXT	SEGMENT PARA USE32 PUBLIC 'CODE'
_TEXT	ENDS
;	COMDAT ?_Root@?$_Tree@V?$_Tmap_traits@KPAVCClientSock@@U?$less@K@std@@V?$allocator@U?$pair@$$CBKPAVCClientSock@@@std@@@3@$0A@@std@@@std@@IAEAAPAU_Node@?$_Tree_nod@V?$_Tmap_traits@KPAVCClientSock@@U?$less@K@std@@V?$allocator@U?$pair@$$CBKPAVCClientSock@@@std@@@3@$0A@@std@@@2@XZ
_TEXT	SEGMENT PARA USE32 PUBLIC 'CODE'
_TEXT	ENDS
;	COMDAT ?_Root@?$_Tree@V?$_Tmap_traits@KPAVCClientSock@@U?$less@K@std@@V?$allocator@U?$pair@$$CBKPAVCClientSock@@@std@@@3@$0A@@std@@@std@@IBEAAPAU_Node@?$_Tree_nod@V?$_Tmap_traits@KPAVCClientSock@@U?$less@K@std@@V?$allocator@U?$pair@$$CBKPAVCClientSock@@@std@@@3@$0A@@std@@@2@XZ
_TEXT	SEGMENT PARA USE32 PUBLIC 'CODE'
_TEXT	ENDS
;	COMDAT ?_Buynode@?$_Tree@V?$_Tmap_traits@KPAVCClientSock@@U?$less@K@std@@V?$allocator@U?$pair@$$CBKPAVCClientSock@@@std@@@3@$0A@@std@@@std@@IAEPAU_Node@?$_Tree_nod@V?$_Tmap_traits@KPAVCClientSock@@U?$less@K@std@@V?$allocator@U?$pair@$$CBKPAVCClientSock@@@std@@@3@$0A@@std@@@2@XZ
_TEXT	SEGMENT PARA USE32 PUBLIC 'CODE'
_TEXT	ENDS
;	COMDAT ??0?$_Tree_ptr@V?$_Tmap_traits@KPAVCClientSock@@U?$less@K@std@@V?$allocator@U?$pair@$$CBKPAVCClientSock@@@std@@@3@$0A@@std@@@std@@IAE@ABU?$less@K@1@V?$allocator@U?$pair@$$CBKPAVCClientSock@@@std@@@1@@Z
_TEXT	SEGMENT PARA USE32 PUBLIC 'CODE'
_TEXT	ENDS
;	COMDAT ??Eiterator@?$_Tree@V?$_Tmap_traits@KPAVCClientSock@@U?$less@K@std@@V?$allocator@U?$pair@$$CBKPAVCClientSock@@@std@@@3@$0A@@std@@@std@@QAE?AV012@H@Z
_TEXT	SEGMENT PARA USE32 PUBLIC 'CODE'
_TEXT	ENDS
;	COMDAT ?_Isnil@?$_Tree@V?$_Tmap_traits@KPAVCClientSockE@@U?$less@K@std@@V?$allocator@U?$pair@$$CBKPAVCClientSockE@@@std@@@3@$0A@@std@@@std@@KAAADPAU_Node@?$_Tree_nod@V?$_Tmap_traits@KPAVCClientSockE@@U?$less@K@std@@V?$allocator@U?$pair@$$CBKPAVCClientSockE@@@std@@@3@$0A@@std@@@2@@Z
_TEXT	SEGMENT PARA USE32 PUBLIC 'CODE'
_TEXT	ENDS
;	COMDAT ?erase@?$_Tree@V?$_Tmap_traits@KPAVCClientSockE@@U?$less@K@std@@V?$allocator@U?$pair@$$CBKPAVCClientSockE@@@std@@@3@$0A@@std@@@std@@QAE?AViterator@12@V312@@Z
_TEXT	SEGMENT PARA USE32 PUBLIC 'CODE'
_TEXT	ENDS
;	COMDAT ?clear@?$_Tree@V?$_Tmap_traits@KPAVCClientSockE@@U?$less@K@std@@V?$allocator@U?$pair@$$CBKPAVCClientSockE@@@std@@@3@$0A@@std@@@std@@QAEXXZ
_TEXT	SEGMENT PARA USE32 PUBLIC 'CODE'
_TEXT	ENDS
;	COMDAT ?_Lmost@?$_Tree@V?$_Tmap_traits@KPAVCClientSockE@@U?$less@K@std@@V?$allocator@U?$pair@$$CBKPAVCClientSockE@@@std@@@3@$0A@@std@@@std@@IAEAAPAU_Node@?$_Tree_nod@V?$_Tmap_traits@KPAVCClientSockE@@U?$less@K@std@@V?$allocator@U?$pair@$$CBKPAVCClientSockE@@@std@@@3@$0A@@std@@@2@XZ
_TEXT	SEGMENT PARA USE32 PUBLIC 'CODE'
_TEXT	ENDS
;	COMDAT ?_Rmost@?$_Tree@V?$_Tmap_traits@KPAVCClientSockE@@U?$less@K@std@@V?$allocator@U?$pair@$$CBKPAVCClientSockE@@@std@@@3@$0A@@std@@@std@@IAEAAPAU_Node@?$_Tree_nod@V?$_Tmap_traits@KPAVCClientSockE@@U?$less@K@std@@V?$allocator@U?$pair@$$CBKPAVCClientSockE@@@std@@@3@$0A@@std@@@2@XZ
_TEXT	SEGMENT PARA USE32 PUBLIC 'CODE'
_TEXT	ENDS
;	COMDAT ?_Root@?$_Tree@V?$_Tmap_traits@KPAVCClientSockE@@U?$less@K@std@@V?$allocator@U?$pair@$$CBKPAVCClientSockE@@@std@@@3@$0A@@std@@@std@@IAEAAPAU_Node@?$_Tree_nod@V?$_Tmap_traits@KPAVCClientSockE@@U?$less@K@std@@V?$allocator@U?$pair@$$CBKPAVCClientSockE@@@std@@@3@$0A@@std@@@2@XZ
_TEXT	SEGMENT PARA USE32 PUBLIC 'CODE'
_TEXT	ENDS
;	COMDAT ?_Root@?$_Tree@V?$_Tmap_traits@KPAVCClientSockE@@U?$less@K@std@@V?$allocator@U?$pair@$$CBKPAVCClientSockE@@@std@@@3@$0A@@std@@@std@@IBEAAPAU_Node@?$_Tree_nod@V?$_Tmap_traits@KPAVCClientSockE@@U?$less@K@std@@V?$allocator@U?$pair@$$CBKPAVCClientSockE@@@std@@@3@$0A@@std@@@2@XZ
_TEXT	SEGMENT PARA USE32 PUBLIC 'CODE'
_TEXT	ENDS
;	COMDAT ?_Buynode@?$_Tree@V?$_Tmap_traits@KPAVCClientSockE@@U?$less@K@std@@V?$allocator@U?$pair@$$CBKPAVCClientSockE@@@std@@@3@$0A@@std@@@std@@IAEPAU_Node@?$_Tree_nod@V?$_Tmap_traits@KPAVCClientSockE@@U?$less@K@std@@V?$allocator@U?$pair@$$CBKPAVCClientSockE@@@std@@@3@$0A@@std@@@2@XZ
_TEXT	SEGMENT PARA USE32 PUBLIC 'CODE'
_TEXT	ENDS
;	COMDAT ??0?$_Tree_ptr@V?$_Tmap_traits@KPAVCClientSockE@@U?$less@K@std@@V?$allocator@U?$pair@$$CBKPAVCClientSockE@@@std@@@3@$0A@@std@@@std@@IAE@ABU?$less@K@1@V?$allocator@U?$pair@$$CBKPAVCClientSockE@@@std@@@1@@Z
_TEXT	SEGMENT PARA USE32 PUBLIC 'CODE'
_TEXT	ENDS
;	COMDAT ??Eiterator@?$_Tree@V?$_Tmap_traits@KPAVCClientSockE@@U?$less@K@std@@V?$allocator@U?$pair@$$CBKPAVCClientSockE@@@std@@@3@$0A@@std@@@std@@QAE?AV012@H@Z
_TEXT	SEGMENT PARA USE32 PUBLIC 'CODE'
_TEXT	ENDS
;	COMDAT ?_Isnil@?$_Tree@V?$_Tmap_traits@KP8CDPDatabaseClient@@AEXAAVCAr@@KK@ZU?$less@K@std@@V?$allocator@U?$pair@$$CBKP8CDPDatabaseClient@@AEXAAVCAr@@KK@Z@std@@@4@$0A@@std@@@std@@KAAADPAU_Node@?$_Tree_nod@V?$_Tmap_traits@KP8CDPDatabaseClient@@AEXAAVCAr@@KK@ZU?$less@K@std@@V?$allocator@U?$pair@$$CBKP8CDPDatabaseClient@@AEXAAVCAr@@KK@Z@std@@@4@$0A@@std@@@2@@Z
_TEXT	SEGMENT PARA USE32 PUBLIC 'CODE'
_TEXT	ENDS
;	COMDAT ?_Left@?$_Tree@V?$_Tmap_traits@KP8CDPDatabaseClient@@AEXAAVCAr@@KK@ZU?$less@K@std@@V?$allocator@U?$pair@$$CBKP8CDPDatabaseClient@@AEXAAVCAr@@KK@Z@std@@@4@$0A@@std@@@std@@KAAAPAU_Node@?$_Tree_nod@V?$_Tmap_traits@KP8CDPDatabaseClient@@AEXAAVCAr@@KK@ZU?$less@K@std@@V?$allocator@U?$pair@$$CBKP8CDPDatabaseClient@@AEXAAVCAr@@KK@Z@std@@@4@$0A@@std@@@2@PAU342@@Z
_TEXT	SEGMENT PARA USE32 PUBLIC 'CODE'
_TEXT	ENDS
;	COMDAT ?_Right@?$_Tree@V?$_Tmap_traits@KP8CDPDatabaseClient@@AEXAAVCAr@@KK@ZU?$less@K@std@@V?$allocator@U?$pair@$$CBKP8CDPDatabaseClient@@AEXAAVCAr@@KK@Z@std@@@4@$0A@@std@@@std@@KAAAPAU_Node@?$_Tree_nod@V?$_Tmap_traits@KP8CDPDatabaseClient@@AEXAAVCAr@@KK@ZU?$less@K@std@@V?$allocator@U?$pair@$$CBKP8CDPDatabaseClient@@AEXAAVCAr@@KK@Z@std@@@4@$0A@@std@@@2@PAU342@@Z
_TEXT	SEGMENT PARA USE32 PUBLIC 'CODE'
_TEXT	ENDS
;	COMDAT ?_Root@?$_Tree@V?$_Tmap_traits@KP8CDPDatabaseClient@@AEXAAVCAr@@KK@ZU?$less@K@std@@V?$allocator@U?$pair@$$CBKP8CDPDatabaseClient@@AEXAAVCAr@@KK@Z@std@@@4@$0A@@std@@@std@@IBEAAPAU_Node@?$_Tree_nod@V?$_Tmap_traits@KP8CDPDatabaseClient@@AEXAAVCAr@@KK@ZU?$less@K@std@@V?$allocator@U?$pair@$$CBKP8CDPDatabaseClient@@AEXAAVCAr@@KK@Z@std@@@4@$0A@@std@@@2@XZ
_TEXT	SEGMENT PARA USE32 PUBLIC 'CODE'
_TEXT	ENDS
;	COMDAT ??0const_iterator@?$vector@PAU__JOINPLAYER@CGuildCombat@@V?$allocator@PAU__JOINPLAYER@CGuildCombat@@@std@@@std@@QAE@PAPAU__JOINPLAYER@CGuildCombat@@@Z
_TEXT	SEGMENT PARA USE32 PUBLIC 'CODE'
_TEXT	ENDS
;	COMDAT ??0const_iterator@?$vector@V?$basic_string@DU?$char_traits@D@std@@V?$allocator@D@2@@std@@V?$allocator@V?$basic_string@DU?$char_traits@D@std@@V?$allocator@D@2@@std@@@2@@std@@QAE@PAV?$basic_string@DU?$char_traits@D@std@@V?$allocator@D@2@@2@@Z
_TEXT	SEGMENT PARA USE32 PUBLIC 'CODE'
_TEXT	ENDS
;	COMDAT ??Gconst_iterator@?$vector@V?$basic_string@DU?$char_traits@D@std@@V?$allocator@D@2@@std@@V?$allocator@V?$basic_string@DU?$char_traits@D@std@@V?$allocator@D@2@@std@@@2@@std@@QBEHABV012@@Z
_TEXT	SEGMENT PARA USE32 PUBLIC 'CODE'
_TEXT	ENDS
;	COMDAT ??Yiterator@?$vector@UMINIGMAME_PRIZE_LIST@CRainbowRaceMng@@V?$allocator@UMINIGMAME_PRIZE_LIST@CRainbowRaceMng@@@std@@@std@@QAEAAV012@H@Z
_TEXT	SEGMENT PARA USE32 PUBLIC 'CODE'
_TEXT	ENDS
;	COMDAT ??0const_iterator@?$vector@UMINIGMAME_PRIZE_LIST@CRainbowRaceMng@@V?$allocator@UMINIGMAME_PRIZE_LIST@CRainbowRaceMng@@@std@@@std@@QAE@PAUMINIGMAME_PRIZE_LIST@CRainbowRaceMng@@@Z
_TEXT	SEGMENT PARA USE32 PUBLIC 'CODE'
_TEXT	ENDS
;	COMDAT ??Gconst_iterator@?$vector@UMINIGMAME_PRIZE_LIST@CRainbowRaceMng@@V?$allocator@UMINIGMAME_PRIZE_LIST@CRainbowRaceMng@@@std@@@std@@QBEHABV012@@Z
_TEXT	SEGMENT PARA USE32 PUBLIC 'CODE'
_TEXT	ENDS
;	COMDAT ??0const_iterator@?$vector@PAVCMiniGameBase@@V?$allocator@PAVCMiniGameBase@@@std@@@std@@QAE@PAPAVCMiniGameBase@@@Z
_TEXT	SEGMENT PARA USE32 PUBLIC 'CODE'
_TEXT	ENDS
;	COMDAT ??0const_iterator@?$vector@UGuildHouse_Furniture_Info@CGuildHouseBase@@V?$allocator@UGuildHouse_Furniture_Info@CGuildHouseBase@@@std@@@std@@QAE@PAUGuildHouse_Furniture_Info@CGuildHouseBase@@@Z
_TEXT	SEGMENT PARA USE32 PUBLIC 'CODE'
_TEXT	ENDS
;	COMDAT ??0_Node@?$_Tree_nod@V?$_Tmap_traits@KPAVCGuildHouseBase@@U?$less@K@std@@V?$allocator@U?$pair@$$CBKPAVCGuildHouseBase@@@std@@@3@$0A@@std@@@std@@QAE@PAU012@00ABU?$pair@$$CBKPAVCGuildHouseBase@@@2@D@Z
_TEXT	SEGMENT PARA USE32 PUBLIC 'CODE'
_TEXT	ENDS
;	COMDAT ?_Key@?$_Tree@V?$_Tmap_traits@KU_Friend@@U?$less@K@std@@V?$allocator@U?$pair@$$CBKU_Friend@@@std@@@3@$0A@@std@@@std@@KAABKPAU_Node@?$_Tree_nod@V?$_Tmap_traits@KU_Friend@@U?$less@K@std@@V?$allocator@U?$pair@$$CBKU_Friend@@@std@@@3@$0A@@std@@@2@@Z
_TEXT	SEGMENT PARA USE32 PUBLIC 'CODE'
_TEXT	ENDS
;	COMDAT ?_Root@?$_Tree@V?$_Tmap_traits@KU_Friend@@U?$less@K@std@@V?$allocator@U?$pair@$$CBKU_Friend@@@std@@@3@$0A@@std@@@std@@IBEAAPAU_Node@?$_Tree_nod@V?$_Tmap_traits@KU_Friend@@U?$less@K@std@@V?$allocator@U?$pair@$$CBKU_Friend@@@std@@@3@$0A@@std@@@2@XZ
_TEXT	SEGMENT PARA USE32 PUBLIC 'CODE'
_TEXT	ENDS
;	COMDAT ??0const_iterator@?$_Tree@V?$_Tmap_traits@KU_Friend@@U?$less@K@std@@V?$allocator@U?$pair@$$CBKU_Friend@@@std@@@3@$0A@@std@@@std@@QAE@PAU_Node@?$_Tree_nod@V?$_Tmap_traits@KU_Friend@@U?$less@K@std@@V?$allocator@U?$pair@$$CBKU_Friend@@@std@@@3@$0A@@std@@@2@@Z
_TEXT	SEGMENT PARA USE32 PUBLIC 'CODE'
_TEXT	ENDS
;	COMDAT ??Econst_iterator@?$_Tree@V?$_Tmap_traits@KU_Friend@@U?$less@K@std@@V?$allocator@U?$pair@$$CBKU_Friend@@@std@@@3@$0A@@std@@@std@@QAEAAV012@XZ
_TEXT	SEGMENT PARA USE32 PUBLIC 'CODE'
_TEXT	ENDS
;	COMDAT ?max_size@?$allocator@UMINIGMAME_PRIZE_LIST@CRainbowRaceMng@@@std@@QBEIXZ
_TEXT	SEGMENT PARA USE32 PUBLIC 'CODE'
_TEXT	ENDS
;	COMDAT ?_Max@?$_Tree@V?$_Tmap_traits@KPAVCGuildHouseBase@@U?$less@K@std@@V?$allocator@U?$pair@$$CBKPAVCGuildHouseBase@@@std@@@3@$0A@@std@@@std@@KAPAU_Node@?$_Tree_nod@V?$_Tmap_traits@KPAVCGuildHouseBase@@U?$less@K@std@@V?$allocator@U?$pair@$$CBKPAVCGuildHouseBase@@@std@@@3@$0A@@std@@@2@PAU342@@Z
_TEXT	SEGMENT PARA USE32 PUBLIC 'CODE'
_TEXT	ENDS
;	COMDAT ?_Key@?$_Tree@V?$_Tmap_traits@KKU?$less@K@std@@V?$allocator@U?$pair@$$CBKK@std@@@2@$0A@@std@@@std@@KAABKPAU_Node@?$_Tree_nod@V?$_Tmap_traits@KKU?$less@K@std@@V?$allocator@U?$pair@$$CBKK@std@@@2@$0A@@std@@@2@@Z
_TEXT	SEGMENT PARA USE32 PUBLIC 'CODE'
_TEXT	ENDS
;	COMDAT ?_Root@?$_Tree@V?$_Tmap_traits@KKU?$less@K@std@@V?$allocator@U?$pair@$$CBKK@std@@@2@$0A@@std@@@std@@IBEAAPAU_Node@?$_Tree_nod@V?$_Tmap_traits@KKU?$less@K@std@@V?$allocator@U?$pair@$$CBKK@std@@@2@$0A@@std@@@2@XZ
_TEXT	SEGMENT PARA USE32 PUBLIC 'CODE'
_TEXT	ENDS
;	COMDAT ??0const_iterator@?$_Tree@V?$_Tmap_traits@KKU?$less@K@std@@V?$allocator@U?$pair@$$CBKK@std@@@2@$0A@@std@@@std@@QAE@PAU_Node@?$_Tree_nod@V?$_Tmap_traits@KKU?$less@K@std@@V?$allocator@U?$pair@$$CBKK@std@@@2@$0A@@std@@@2@@Z
_TEXT	SEGMENT PARA USE32 PUBLIC 'CODE'
_TEXT	ENDS
;	COMDAT ??Econst_iterator@?$_Tree@V?$_Tmap_traits@KKU?$less@K@std@@V?$allocator@U?$pair@$$CBKK@std@@@2@$0A@@std@@@std@@QAEAAV012@XZ
_TEXT	SEGMENT PARA USE32 PUBLIC 'CODE'
_TEXT	ENDS
;	COMDAT ?_Color@?$_Tree@V?$_Tmap_traits@KPAVCClientSock@@U?$less@K@std@@V?$allocator@U?$pair@$$CBKPAVCClientSock@@@std@@@3@$0A@@std@@@std@@KAAADPAU_Node@?$_Tree_nod@V?$_Tmap_traits@KPAVCClientSock@@U?$less@K@std@@V?$allocator@U?$pair@$$CBKPAVCClientSock@@@std@@@3@$0A@@std@@@2@@Z
_TEXT	SEGMENT PARA USE32 PUBLIC 'CODE'
_TEXT	ENDS
;	COMDAT ?_Erase@?$_Tree@V?$_Tmap_traits@KPAVCClientSock@@U?$less@K@std@@V?$allocator@U?$pair@$$CBKPAVCClientSock@@@std@@@3@$0A@@std@@@std@@IAEXPAU_Node@?$_Tree_nod@V?$_Tmap_traits@KPAVCClientSock@@U?$less@K@std@@V?$allocator@U?$pair@$$CBKPAVCClientSock@@@std@@@3@$0A@@std@@@2@@Z
_TEXT	SEGMENT PARA USE32 PUBLIC 'CODE'
_TEXT	ENDS
;	COMDAT ?_Lrotate@?$_Tree@V?$_Tmap_traits@KPAVCClientSock@@U?$less@K@std@@V?$allocator@U?$pair@$$CBKPAVCClientSock@@@std@@@3@$0A@@std@@@std@@IAEXPAU_Node@?$_Tree_nod@V?$_Tmap_traits@KPAVCClientSock@@U?$less@K@std@@V?$allocator@U?$pair@$$CBKPAVCClientSock@@@std@@@3@$0A@@std@@@2@@Z
_TEXT	SEGMENT PARA USE32 PUBLIC 'CODE'
_TEXT	ENDS
;	COMDAT ?_Max@?$_Tree@V?$_Tmap_traits@KPAVCClientSock@@U?$less@K@std@@V?$allocator@U?$pair@$$CBKPAVCClientSock@@@std@@@3@$0A@@std@@@std@@KAPAU_Node@?$_Tree_nod@V?$_Tmap_traits@KPAVCClientSock@@U?$less@K@std@@V?$allocator@U?$pair@$$CBKPAVCClientSock@@@std@@@3@$0A@@std@@@2@PAU342@@Z
_TEXT	SEGMENT PARA USE32 PUBLIC 'CODE'
_TEXT	ENDS
;	COMDAT ?_Min@?$_Tree@V?$_Tmap_traits@KPAVCClientSock@@U?$less@K@std@@V?$allocator@U?$pair@$$CBKPAVCClientSock@@@std@@@3@$0A@@std@@@std@@KAPAU_Node@?$_Tree_nod@V?$_Tmap_traits@KPAVCClientSock@@U?$less@K@std@@V?$allocator@U?$pair@$$CBKPAVCClientSock@@@std@@@3@$0A@@std@@@2@PAU342@@Z
_TEXT	SEGMENT PARA USE32 PUBLIC 'CODE'
_TEXT	ENDS
;	COMDAT ?_Rrotate@?$_Tree@V?$_Tmap_traits@KPAVCClientSock@@U?$less@K@std@@V?$allocator@U?$pair@$$CBKPAVCClientSock@@@std@@@3@$0A@@std@@@std@@IAEXPAU_Node@?$_Tree_nod@V?$_Tmap_traits@KPAVCClientSock@@U?$less@K@std@@V?$allocator@U?$pair@$$CBKPAVCClientSock@@@std@@@3@$0A@@std@@@2@@Z
_TEXT	SEGMENT PARA USE32 PUBLIC 'CODE'
_TEXT	ENDS
;	COMDAT ??0?$_Tree_nod@V?$_Tmap_traits@KPAVCClientSock@@U?$less@K@std@@V?$allocator@U?$pair@$$CBKPAVCClientSock@@@std@@@3@$0A@@std@@@std@@IAE@ABU?$less@K@1@V?$allocator@U?$pair@$$CBKPAVCClientSock@@@std@@@1@@Z
_TEXT	SEGMENT PARA USE32 PUBLIC 'CODE'
_TEXT	ENDS
;	COMDAT ?allocate@?$allocator@U_Node@?$_Tree_nod@V?$_Tmap_traits@KPAVCClientSock@@U?$less@K@std@@V?$allocator@U?$pair@$$CBKPAVCClientSock@@@std@@@3@$0A@@std@@@std@@@std@@QAEPAU_Node@?$_Tree_nod@V?$_Tmap_traits@KPAVCClientSock@@U?$less@K@std@@V?$allocator@U?$pair@$$CBKPAVCClientSock@@@std@@@3@$0A@@std@@@2@I@Z
_TEXT	SEGMENT PARA USE32 PUBLIC 'CODE'
_TEXT	ENDS
;	COMDAT ?destroy@?$allocator@U_Node@?$_Tree_nod@V?$_Tmap_traits@KPAVCClientSock@@U?$less@K@std@@V?$allocator@U?$pair@$$CBKPAVCClientSock@@@std@@@3@$0A@@std@@@std@@@std@@QAEXPAU_Node@?$_Tree_nod@V?$_Tmap_traits@KPAVCClientSock@@U?$less@K@std@@V?$allocator@U?$pair@$$CBKPAVCClientSock@@@std@@@3@$0A@@std@@@2@@Z
_TEXT	SEGMENT PARA USE32 PUBLIC 'CODE'
_TEXT	ENDS
;	COMDAT ?construct@?$allocator@PAU_Node@?$_Tree_nod@V?$_Tmap_traits@KPAVCClientSock@@U?$less@K@std@@V?$allocator@U?$pair@$$CBKPAVCClientSock@@@std@@@3@$0A@@std@@@std@@@std@@QAEXPAPAU_Node@?$_Tree_nod@V?$_Tmap_traits@KPAVCClientSock@@U?$less@K@std@@V?$allocator@U?$pair@$$CBKPAVCClientSock@@@std@@@3@$0A@@std@@@2@ABQAU342@@Z
_TEXT	SEGMENT PARA USE32 PUBLIC 'CODE'
_TEXT	ENDS
;	COMDAT ??Eiterator@?$_Tree@V?$_Tmap_traits@KPAVCClientSock@@U?$less@K@std@@V?$allocator@U?$pair@$$CBKPAVCClientSock@@@std@@@3@$0A@@std@@@std@@QAEAAV012@XZ
_TEXT	SEGMENT PARA USE32 PUBLIC 'CODE'
_TEXT	ENDS
;	COMDAT ?_Color@?$_Tree@V?$_Tmap_traits@KPAVCClientSockE@@U?$less@K@std@@V?$allocator@U?$pair@$$CBKPAVCClientSockE@@@std@@@3@$0A@@std@@@std@@KAAADPAU_Node@?$_Tree_nod@V?$_Tmap_traits@KPAVCClientSockE@@U?$less@K@std@@V?$allocator@U?$pair@$$CBKPAVCClientSockE@@@std@@@3@$0A@@std@@@2@@Z
_TEXT	SEGMENT PARA USE32 PUBLIC 'CODE'
_TEXT	ENDS
;	COMDAT ?_Erase@?$_Tree@V?$_Tmap_traits@KPAVCClientSockE@@U?$less@K@std@@V?$allocator@U?$pair@$$CBKPAVCClientSockE@@@std@@@3@$0A@@std@@@std@@IAEXPAU_Node@?$_Tree_nod@V?$_Tmap_traits@KPAVCClientSockE@@U?$less@K@std@@V?$allocator@U?$pair@$$CBKPAVCClientSockE@@@std@@@3@$0A@@std@@@2@@Z
_TEXT	SEGMENT PARA USE32 PUBLIC 'CODE'
_TEXT	ENDS
;	COMDAT ?_Lrotate@?$_Tree@V?$_Tmap_traits@KPAVCClientSockE@@U?$less@K@std@@V?$allocator@U?$pair@$$CBKPAVCClientSockE@@@std@@@3@$0A@@std@@@std@@IAEXPAU_Node@?$_Tree_nod@V?$_Tmap_traits@KPAVCClientSockE@@U?$less@K@std@@V?$allocator@U?$pair@$$CBKPAVCClientSockE@@@std@@@3@$0A@@std@@@2@@Z
_TEXT	SEGMENT PARA USE32 PUBLIC 'CODE'
_TEXT	ENDS
;	COMDAT ?_Max@?$_Tree@V?$_Tmap_traits@KPAVCClientSockE@@U?$less@K@std@@V?$allocator@U?$pair@$$CBKPAVCClientSockE@@@std@@@3@$0A@@std@@@std@@KAPAU_Node@?$_Tree_nod@V?$_Tmap_traits@KPAVCClientSockE@@U?$less@K@std@@V?$allocator@U?$pair@$$CBKPAVCClientSockE@@@std@@@3@$0A@@std@@@2@PAU342@@Z
_TEXT	SEGMENT PARA USE32 PUBLIC 'CODE'
_TEXT	ENDS
;	COMDAT ?_Min@?$_Tree@V?$_Tmap_traits@KPAVCClientSockE@@U?$less@K@std@@V?$allocator@U?$pair@$$CBKPAVCClientSockE@@@std@@@3@$0A@@std@@@std@@KAPAU_Node@?$_Tree_nod@V?$_Tmap_traits@KPAVCClientSockE@@U?$less@K@std@@V?$allocator@U?$pair@$$CBKPAVCClientSockE@@@std@@@3@$0A@@std@@@2@PAU342@@Z
_TEXT	SEGMENT PARA USE32 PUBLIC 'CODE'
_TEXT	ENDS
;	COMDAT ?_Rrotate@?$_Tree@V?$_Tmap_traits@KPAVCClientSockE@@U?$less@K@std@@V?$allocator@U?$pair@$$CBKPAVCClientSockE@@@std@@@3@$0A@@std@@@std@@IAEXPAU_Node@?$_Tree_nod@V?$_Tmap_traits@KPAVCClientSockE@@U?$less@K@std@@V?$allocator@U?$pair@$$CBKPAVCClientSockE@@@std@@@3@$0A@@std@@@2@@Z
_TEXT	SEGMENT PARA USE32 PUBLIC 'CODE'
_TEXT	ENDS
;	COMDAT ??0?$_Tree_nod@V?$_Tmap_traits@KPAVCClientSockE@@U?$less@K@std@@V?$allocator@U?$pair@$$CBKPAVCClientSockE@@@std@@@3@$0A@@std@@@std@@IAE@ABU?$less@K@1@V?$allocator@U?$pair@$$CBKPAVCClientSockE@@@std@@@1@@Z
_TEXT	SEGMENT PARA USE32 PUBLIC 'CODE'
_TEXT	ENDS
;	COMDAT ?allocate@?$allocator@U_Node@?$_Tree_nod@V?$_Tmap_traits@KPAVCClientSockE@@U?$less@K@std@@V?$allocator@U?$pair@$$CBKPAVCClientSockE@@@std@@@3@$0A@@std@@@std@@@std@@QAEPAU_Node@?$_Tree_nod@V?$_Tmap_traits@KPAVCClientSockE@@U?$less@K@std@@V?$allocator@U?$pair@$$CBKPAVCClientSockE@@@std@@@3@$0A@@std@@@2@I@Z
_TEXT	SEGMENT PARA USE32 PUBLIC 'CODE'
_TEXT	ENDS
;	COMDAT ?destroy@?$allocator@U_Node@?$_Tree_nod@V?$_Tmap_traits@KPAVCClientSockE@@U?$less@K@std@@V?$allocator@U?$pair@$$CBKPAVCClientSockE@@@std@@@3@$0A@@std@@@std@@@std@@QAEXPAU_Node@?$_Tree_nod@V?$_Tmap_traits@KPAVCClientSockE@@U?$less@K@std@@V?$allocator@U?$pair@$$CBKPAVCClientSockE@@@std@@@3@$0A@@std@@@2@@Z
_TEXT	SEGMENT PARA USE32 PUBLIC 'CODE'
_TEXT	ENDS
;	COMDAT ?construct@?$allocator@PAU_Node@?$_Tree_nod@V?$_Tmap_traits@KPAVCClientSockE@@U?$less@K@std@@V?$allocator@U?$pair@$$CBKPAVCClientSockE@@@std@@@3@$0A@@std@@@std@@@std@@QAEXPAPAU_Node@?$_Tree_nod@V?$_Tmap_traits@KPAVCClientSockE@@U?$less@K@std@@V?$allocator@U?$pair@$$CBKPAVCClientSockE@@@std@@@3@$0A@@std@@@2@ABQAU342@@Z
_TEXT	SEGMENT PARA USE32 PUBLIC 'CODE'
_TEXT	ENDS
;	COMDAT ??Eiterator@?$_Tree@V?$_Tmap_traits@KPAVCClientSockE@@U?$less@K@std@@V?$allocator@U?$pair@$$CBKPAVCClientSockE@@@std@@@3@$0A@@std@@@std@@QAEAAV012@XZ
_TEXT	SEGMENT PARA USE32 PUBLIC 'CODE'
_TEXT	ENDS
;	COMDAT ?_Parent@?$_Tree@V?$_Tmap_traits@KP8CDPDatabaseClient@@AEXAAVCAr@@KK@ZU?$less@K@std@@V?$allocator@U?$pair@$$CBKP8CDPDatabaseClient@@AEXAAVCAr@@KK@Z@std@@@4@$0A@@std@@@std@@KAAAPAU_Node@?$_Tree_nod@V?$_Tmap_traits@KP8CDPDatabaseClient@@AEXAAVCAr@@KK@ZU?$less@K@std@@V?$allocator@U?$pair@$$CBKP8CDPDatabaseClient@@AEXAAVCAr@@KK@Z@std@@@4@$0A@@std@@@2@PAU342@@Z
_TEXT	SEGMENT PARA USE32 PUBLIC 'CODE'
_TEXT	ENDS
;	COMDAT ?_Myval@?$_Tree@V?$_Tmap_traits@KU_Friend@@U?$less@K@std@@V?$allocator@U?$pair@$$CBKU_Friend@@@std@@@3@$0A@@std@@@std@@KAAAU?$pair@$$CBKU_Friend@@@2@PAU_Node@?$_Tree_nod@V?$_Tmap_traits@KU_Friend@@U?$less@K@std@@V?$allocator@U?$pair@$$CBKU_Friend@@@std@@@3@$0A@@std@@@2@@Z
_TEXT	SEGMENT PARA USE32 PUBLIC 'CODE'
_TEXT	ENDS
;	COMDAT ?_Kfn@?$_Tmap_traits@KU_Friend@@U?$less@K@std@@V?$allocator@U?$pair@$$CBKU_Friend@@@std@@@3@$0A@@std@@SAABKABU?$pair@$$CBKU_Friend@@@2@@Z
_TEXT	SEGMENT PARA USE32 PUBLIC 'CODE'
_TEXT	ENDS
;	COMDAT ?_Inc@const_iterator@?$_Tree@V?$_Tmap_traits@KU_Friend@@U?$less@K@std@@V?$allocator@U?$pair@$$CBKU_Friend@@@std@@@3@$0A@@std@@@std@@QAEXXZ
_TEXT	SEGMENT PARA USE32 PUBLIC 'CODE'
_TEXT	ENDS
;	COMDAT ?_Myval@?$_Tree@V?$_Tmap_traits@KKU?$less@K@std@@V?$allocator@U?$pair@$$CBKK@std@@@2@$0A@@std@@@std@@KAAAU?$pair@$$CBKK@2@PAU_Node@?$_Tree_nod@V?$_Tmap_traits@KKU?$less@K@std@@V?$allocator@U?$pair@$$CBKK@std@@@2@$0A@@std@@@2@@Z
_TEXT	SEGMENT PARA USE32 PUBLIC 'CODE'
_TEXT	ENDS
;	COMDAT ?_Kfn@?$_Tmap_traits@KKU?$less@K@std@@V?$allocator@U?$pair@$$CBKK@std@@@2@$0A@@std@@SAABKABU?$pair@$$CBKK@2@@Z
_TEXT	SEGMENT PARA USE32 PUBLIC 'CODE'
_TEXT	ENDS
;	COMDAT ?_Inc@const_iterator@?$_Tree@V?$_Tmap_traits@KKU?$less@K@std@@V?$allocator@U?$pair@$$CBKK@std@@@2@$0A@@std@@@std@@QAEXXZ
_TEXT	SEGMENT PARA USE32 PUBLIC 'CODE'
_TEXT	ENDS
;	COMDAT ??0?$_Tmap_traits@KPAVCClientSock@@U?$less@K@std@@V?$allocator@U?$pair@$$CBKPAVCClientSock@@@std@@@3@$0A@@std@@QAE@U?$less@K@1@@Z
_TEXT	SEGMENT PARA USE32 PUBLIC 'CODE'
_TEXT	ENDS
;	COMDAT ??Econst_iterator@?$_Tree@V?$_Tmap_traits@KPAVCClientSock@@U?$less@K@std@@V?$allocator@U?$pair@$$CBKPAVCClientSock@@@std@@@3@$0A@@std@@@std@@QAEAAV012@XZ
_TEXT	SEGMENT PARA USE32 PUBLIC 'CODE'
_TEXT	ENDS
;	COMDAT ??0?$_Tmap_traits@KPAVCClientSockE@@U?$less@K@std@@V?$allocator@U?$pair@$$CBKPAVCClientSockE@@@std@@@3@$0A@@std@@QAE@U?$less@K@1@@Z
_TEXT	SEGMENT PARA USE32 PUBLIC 'CODE'
_TEXT	ENDS
;	COMDAT ??Econst_iterator@?$_Tree@V?$_Tmap_traits@KPAVCClientSockE@@U?$less@K@std@@V?$allocator@U?$pair@$$CBKPAVCClientSockE@@@std@@@3@$0A@@std@@@std@@QAEAAV012@XZ
_TEXT	SEGMENT PARA USE32 PUBLIC 'CODE'
_TEXT	ENDS
;	COMDAT ?_Inc@const_iterator@?$_Tree@V?$_Tmap_traits@KPAVCClientSock@@U?$less@K@std@@V?$allocator@U?$pair@$$CBKPAVCClientSock@@@std@@@3@$0A@@std@@@std@@QAEXXZ
_TEXT	SEGMENT PARA USE32 PUBLIC 'CODE'
_TEXT	ENDS
;	COMDAT ?_Inc@const_iterator@?$_Tree@V?$_Tmap_traits@KPAVCClientSockE@@U?$less@K@std@@V?$allocator@U?$pair@$$CBKPAVCClientSockE@@@std@@@3@$0A@@std@@@std@@QAEXXZ
_TEXT	SEGMENT PARA USE32 PUBLIC 'CODE'
_TEXT	ENDS
;	COMDAT ??$_Iter_cat@Vconst_iterator@?$vector@EV?$allocator@E@std@@@std@@@std@@YA?AUrandom_access_iterator_tag@0@ABVconst_iterator@?$vector@EV?$allocator@E@std@@@0@@Z
_TEXT	SEGMENT PARA USE32 PUBLIC 'CODE'
_TEXT	ENDS
;	COMDAT ??$_Assign@Vconst_iterator@?$vector@EV?$allocator@E@std@@@std@@@?$vector@EV?$allocator@E@std@@@std@@QAEXVconst_iterator@01@0Uinput_iterator_tag@1@@Z
_TEXT	SEGMENT PARA USE32 PUBLIC 'CODE'
_TEXT	ENDS
;	COMDAT ??$_Iter_cat@Viterator@?$_Tree@V?$_Tmap_traits@KPAVCUser@@U?$less@K@std@@V?$allocator@U?$pair@$$CBKPAVCUser@@@std@@@3@$0A@@std@@@std@@@std@@YA?AUbidirectional_iterator_tag@0@ABViterator@?$_Tree@V?$_Tmap_traits@KPAVCUser@@U?$less@K@std@@V?$allocator@U?$pair@$$CBKPAVCUser@@@std@@@3@$0A@@std@@@0@@Z
_TEXT	SEGMENT PARA USE32 PUBLIC 'CODE'
_TEXT	ENDS
;	COMDAT ??$_Distance2@Viterator@?$_Tree@V?$_Tmap_traits@KPAVCUser@@U?$less@K@std@@V?$allocator@U?$pair@$$CBKPAVCUser@@@std@@@3@$0A@@std@@@std@@I@std@@YAXViterator@?$_Tree@V?$_Tmap_traits@KPAVCUser@@U?$less@K@std@@V?$allocator@U?$pair@$$CBKPAVCUser@@@std@@@3@$0A@@std@@@0@0AAIUbidirectional_iterator_tag@0@@Z
_TEXT	SEGMENT PARA USE32 PUBLIC 'CODE'
_TEXT	ENDS
;	COMDAT ??$_Iter_cat@Viterator@?$_Tree@V?$_Tmap_traits@KPAVCCtrl@@U?$less@K@std@@V?$allocator@U?$pair@$$CBKPAVCCtrl@@@std@@@3@$0A@@std@@@std@@@std@@YA?AUbidirectional_iterator_tag@0@ABViterator@?$_Tree@V?$_Tmap_traits@KPAVCCtrl@@U?$less@K@std@@V?$allocator@U?$pair@$$CBKPAVCCtrl@@@std@@@3@$0A@@std@@@0@@Z
_TEXT	SEGMENT PARA USE32 PUBLIC 'CODE'
_TEXT	ENDS
;	COMDAT ??$_Distance2@Viterator@?$_Tree@V?$_Tmap_traits@KPAVCCtrl@@U?$less@K@std@@V?$allocator@U?$pair@$$CBKPAVCCtrl@@@std@@@3@$0A@@std@@@std@@I@std@@YAXViterator@?$_Tree@V?$_Tmap_traits@KPAVCCtrl@@U?$less@K@std@@V?$allocator@U?$pair@$$CBKPAVCCtrl@@@std@@@3@$0A@@std@@@0@0AAIUbidirectional_iterator_tag@0@@Z
_TEXT	SEGMENT PARA USE32 PUBLIC 'CODE'
_TEXT	ENDS
;	COMDAT ??$_Uninitialized_copy@Vconst_iterator@?$vector@EV?$allocator@E@std@@@std@@PAEV?$allocator@E@3@@std@@YAPAEVconst_iterator@?$vector@EV?$allocator@E@std@@@0@0PAEAAV?$allocator@E@0@@Z
_TEXT	SEGMENT PARA USE32 PUBLIC 'CODE'
_TEXT	ENDS
;	COMDAT ??$_Iter_cat@Viterator@?$_Tree@V?$_Tmap_traits@KEU?$less@K@std@@V?$allocator@U?$pair@$$CBKE@std@@@2@$0A@@std@@@std@@@std@@YA?AUbidirectional_iterator_tag@0@ABViterator@?$_Tree@V?$_Tmap_traits@KEU?$less@K@std@@V?$allocator@U?$pair@$$CBKE@std@@@2@$0A@@std@@@0@@Z
_TEXT	SEGMENT PARA USE32 PUBLIC 'CODE'
_TEXT	ENDS
;	COMDAT ??$_Distance2@Viterator@?$_Tree@V?$_Tmap_traits@KEU?$less@K@std@@V?$allocator@U?$pair@$$CBKE@std@@@2@$0A@@std@@@std@@I@std@@YAXViterator@?$_Tree@V?$_Tmap_traits@KEU?$less@K@std@@V?$allocator@U?$pair@$$CBKE@std@@@2@$0A@@std@@@0@0AAIUbidirectional_iterator_tag@0@@Z
_TEXT	SEGMENT PARA USE32 PUBLIC 'CODE'
_TEXT	ENDS
;	COMDAT ??$_Ptr_cat@PAU__SPAWNREGION@CEventLua@@PAU12@@std@@YA?AU_Nonscalar_ptr_iterator_tag@0@AAPAU__SPAWNREGION@CEventLua@@0@Z
_TEXT	SEGMENT PARA USE32 PUBLIC 'CODE'
_TEXT	ENDS
;	COMDAT ??$_Uninit_fill_n@PAU__SPAWNREGION@CEventLua@@IU12@V?$allocator@U__SPAWNREGION@CEventLua@@@std@@@std@@YAXPAU__SPAWNREGION@CEventLua@@IABU12@AAV?$allocator@U__SPAWNREGION@CEventLua@@@0@U_Nonscalar_ptr_iterator_tag@0@@Z
_TEXT	SEGMENT PARA USE32 PUBLIC 'CODE'
_TEXT	ENDS
;	COMDAT ??$_Copy_opt@PAJPAJ@std@@YAPAJPAJ00U_Scalar_ptr_iterator_tag@0@@Z
_TEXT	SEGMENT PARA USE32 PUBLIC 'CODE'
_TEXT	ENDS
;	COMDAT ??$_Uninitialized_copy@PAJPAJV?$allocator@J@std@@@std@@YAPAJPAJ00AAV?$allocator@J@0@@Z
_TEXT	SEGMENT PARA USE32 PUBLIC 'CODE'
_TEXT	ENDS
;	COMDAT ??$_Copy_backward_opt@PAJPAJ@std@@YAPAJPAJ00U_Scalar_ptr_iterator_tag@0@@Z
_TEXT	SEGMENT PARA USE32 PUBLIC 'CODE'
_TEXT	ENDS
;	COMDAT ??$_Ptr_cat@PAUtagDROPITEM@@PAU1@@std@@YA?AU_Nonscalar_ptr_iterator_tag@0@AAPAUtagDROPITEM@@0@Z
_TEXT	SEGMENT PARA USE32 PUBLIC 'CODE'
_TEXT	ENDS
;	COMDAT ??$_Destroy_range@UtagDROPITEM@@V?$allocator@UtagDROPITEM@@@std@@@std@@YAXPAUtagDROPITEM@@0AAV?$allocator@UtagDROPITEM@@@0@U_Nonscalar_ptr_iterator_tag@0@@Z
_TEXT	SEGMENT PARA USE32 PUBLIC 'CODE'
_TEXT	ENDS
;	COMDAT ??$_Ptr_cat@PAUWORMON@@PAU1@@std@@YA?AU_Nonscalar_ptr_iterator_tag@0@AAPAUWORMON@@0@Z
_TEXT	SEGMENT PARA USE32 PUBLIC 'CODE'
_TEXT	ENDS
;	COMDAT ??$_Destroy_range@UWORMON@@V?$allocator@UWORMON@@@std@@@std@@YAXPAUWORMON@@0AAV?$allocator@UWORMON@@@0@U_Nonscalar_ptr_iterator_tag@0@@Z
_TEXT	SEGMENT PARA USE32 PUBLIC 'CODE'
_TEXT	ENDS
;	COMDAT ??$_Ptr_cat@PAU__ITEMGAME@CMiniGame@@PAU12@@std@@YA?AU_Nonscalar_ptr_iterator_tag@0@AAPAU__ITEMGAME@CMiniGame@@0@Z
_TEXT	SEGMENT PARA USE32 PUBLIC 'CODE'
_TEXT	ENDS
;	COMDAT ??$_Destroy_range@U__ITEMGAME@CMiniGame@@V?$allocator@U__ITEMGAME@CMiniGame@@@std@@@std@@YAXPAU__ITEMGAME@CMiniGame@@0AAV?$allocator@U__ITEMGAME@CMiniGame@@@0@U_Nonscalar_ptr_iterator_tag@0@@Z
_TEXT	SEGMENT PARA USE32 PUBLIC 'CODE'
_TEXT	ENDS
;	COMDAT ??$_Destroy_range@KV?$allocator@K@std@@@std@@YAXPAK0AAV?$allocator@K@0@U_Scalar_ptr_iterator_tag@0@@Z
_TEXT	SEGMENT PARA USE32 PUBLIC 'CODE'
_TEXT	ENDS
;	COMDAT ??$_Destroy_range@HV?$allocator@H@std@@@std@@YAXPAH0AAV?$allocator@H@0@U_Scalar_ptr_iterator_tag@0@@Z
_TEXT	SEGMENT PARA USE32 PUBLIC 'CODE'
_TEXT	ENDS
;	COMDAT ??$_Ptr_cat@PAU__ITEM@CExchange@@PAU12@@std@@YA?AU_Nonscalar_ptr_iterator_tag@0@AAPAU__ITEM@CExchange@@0@Z
_TEXT	SEGMENT PARA USE32 PUBLIC 'CODE'
_TEXT	ENDS
;	COMDAT ??$_Destroy_range@U__ITEM@CExchange@@V?$allocator@U__ITEM@CExchange@@@std@@@std@@YAXPAU__ITEM@CExchange@@0AAV?$allocator@U__ITEM@CExchange@@@0@U_Nonscalar_ptr_iterator_tag@0@@Z
_TEXT	SEGMENT PARA USE32 PUBLIC 'CODE'
_TEXT	ENDS
;	COMDAT ??$_Ptr_cat@PAU__POINT@CExchange@@PAU12@@std@@YA?AU_Nonscalar_ptr_iterator_tag@0@AAPAU__POINT@CExchange@@0@Z
_TEXT	SEGMENT PARA USE32 PUBLIC 'CODE'
_TEXT	ENDS
;	COMDAT ??$_Destroy_range@U__POINT@CExchange@@V?$allocator@U__POINT@CExchange@@@std@@@std@@YAXPAU__POINT@CExchange@@0AAV?$allocator@U__POINT@CExchange@@@0@U_Nonscalar_ptr_iterator_tag@0@@Z
_TEXT	SEGMENT PARA USE32 PUBLIC 'CODE'
_TEXT	ENDS
;	COMDAT ??$_Destroy_range@EV?$allocator@E@std@@@std@@YAXPAE0AAV?$allocator@E@0@U_Scalar_ptr_iterator_tag@0@@Z
_TEXT	SEGMENT PARA USE32 PUBLIC 'CODE'
_TEXT	ENDS
;	COMDAT ??$_Uninitialized_copy@PAU__SPAWNREGION@CEventLua@@PAU12@V?$allocator@U__SPAWNREGION@CEventLua@@@std@@@std@@YAPAU__SPAWNREGION@CEventLua@@PAU12@00AAV?$allocator@U__SPAWNREGION@CEventLua@@@0@@Z
_TEXT	SEGMENT PARA USE32 PUBLIC 'CODE'
_TEXT	ENDS
;	COMDAT ??$_Copy_backward_opt@PAU__SPAWNREGION@CEventLua@@PAU12@@std@@YAPAU__SPAWNREGION@CEventLua@@PAU12@00U_Nonscalar_ptr_iterator_tag@0@@Z
_TEXT	SEGMENT PARA USE32 PUBLIC 'CODE'
_TEXT	ENDS
;	COMDAT ??$_Ptr_cat@PAUD3DXVECTOR3@@PAU1@@std@@YA?AU_Nonscalar_ptr_iterator_tag@0@AAPAUD3DXVECTOR3@@0@Z
_TEXT	SEGMENT PARA USE32 PUBLIC 'CODE'
_TEXT	ENDS
;	COMDAT ??$_Destroy_range@UD3DXVECTOR3@@V?$allocator@UD3DXVECTOR3@@@std@@@std@@YAXPAUD3DXVECTOR3@@0AAV?$allocator@UD3DXVECTOR3@@@0@U_Nonscalar_ptr_iterator_tag@0@@Z
_TEXT	SEGMENT PARA USE32 PUBLIC 'CODE'
_TEXT	ENDS
;	COMDAT ??$_Ptr_cat@PAU_GIFTBOX@@PAU1@@std@@YA?AU_Nonscalar_ptr_iterator_tag@0@AAPAU_GIFTBOX@@0@Z
_TEXT	SEGMENT PARA USE32 PUBLIC 'CODE'
_TEXT	ENDS
;	COMDAT ??$_Destroy_range@U_GIFTBOX@@V?$allocator@U_GIFTBOX@@@std@@@std@@YAXPAU_GIFTBOX@@0AAV?$allocator@U_GIFTBOX@@@0@U_Nonscalar_ptr_iterator_tag@0@@Z
_TEXT	SEGMENT PARA USE32 PUBLIC 'CODE'
_TEXT	ENDS
;	COMDAT ??$_Destroy_range@JV?$allocator@J@std@@@std@@YAXPAJ0AAV?$allocator@J@0@U_Scalar_ptr_iterator_tag@0@@Z
_TEXT	SEGMENT PARA USE32 PUBLIC 'CODE'
_TEXT	ENDS
;	COMDAT ??$_Uninit_fill_n@JIJ@std@@YAXPAJIABJAAV?$allocator@J@0@U_Scalar_ptr_iterator_tag@0@@Z
_TEXT	SEGMENT PARA USE32 PUBLIC 'CODE'
_TEXT	ENDS
;	COMDAT ??$_Destroy_range@U__SPAWNREGION@CEventLua@@V?$allocator@U__SPAWNREGION@CEventLua@@@std@@@std@@YAXPAU__SPAWNREGION@CEventLua@@0AAV?$allocator@U__SPAWNREGION@CEventLua@@@0@U_Nonscalar_ptr_iterator_tag@0@@Z
_TEXT	SEGMENT PARA USE32 PUBLIC 'CODE'
_TEXT	ENDS
;	COMDAT ??$make_pair@KPAVCGuildHouseBase@@@std@@YA?AU?$pair@KPAVCGuildHouseBase@@@0@KPAVCGuildHouseBase@@@Z
_TEXT	SEGMENT PARA USE32 PUBLIC 'CODE'
_TEXT	ENDS
;	COMDAT ??$?0KPAVCGuildHouseBase@@@?$pair@$$CBKPAVCGuildHouseBase@@@std@@QAE@ABU?$pair@KPAVCGuildHouseBase@@@1@@Z
_TEXT	SEGMENT PARA USE32 PUBLIC 'CODE'
_TEXT	ENDS
;	COMDAT ??1?$CFixedArray@UtagWORLD@@@@UAE@XZ
_TEXT	SEGMENT PARA USE32 PUBLIC 'CODE'
_TEXT	ENDS
;	COMDAT ?GetAt@?$CFixedArray@UtagWORLD@@@@QAEPAUtagWORLD@@K@Z
_TEXT	SEGMENT PARA USE32 PUBLIC 'CODE'
_TEXT	ENDS
;	COMDAT ??$_Distance@Viterator@?$_Tree@V?$_Tmap_traits@KU_Friend@@U?$less@K@std@@V?$allocator@U?$pair@$$CBKU_Friend@@@std@@@3@$0A@@std@@@std@@I@std@@YAXViterator@?$_Tree@V?$_Tmap_traits@KU_Friend@@U?$less@K@std@@V?$allocator@U?$pair@$$CBKU_Friend@@@std@@@3@$0A@@std@@@0@0AAI@Z
_TEXT	SEGMENT PARA USE32 PUBLIC 'CODE'
_TEXT	ENDS
;	COMDAT ??$_Distance@Viterator@?$_Tree@V?$_Tmap_traits@KKU?$less@K@std@@V?$allocator@U?$pair@$$CBKK@std@@@2@$0A@@std@@@std@@I@std@@YAXViterator@?$_Tree@V?$_Tmap_traits@KKU?$less@K@std@@V?$allocator@U?$pair@$$CBKK@std@@@2@$0A@@std@@@0@0AAI@Z
_TEXT	SEGMENT PARA USE32 PUBLIC 'CODE'
_TEXT	ENDS
;	COMDAT ??$_Destroy@U_Node@?$_List_nod@PAU__JOINPLAYER@CGuildCombat@@V?$allocator@PAU__JOINPLAYER@CGuildCombat@@@std@@@std@@@std@@YAXPAU_Node@?$_List_nod@PAU__JOINPLAYER@CGuildCombat@@V?$allocator@PAU__JOINPLAYER@CGuildCombat@@@std@@@0@@Z
_TEXT	SEGMENT PARA USE32 PUBLIC 'CODE'
_TEXT	ENDS
;	COMDAT ??$_Uninitialized_fill_n@PAV?$basic_string@DU?$char_traits@D@std@@V?$allocator@D@2@@std@@IV12@V?$allocator@V?$basic_string@DU?$char_traits@D@std@@V?$allocator@D@2@@std@@@2@@std@@YAXPAV?$basic_string@DU?$char_traits@D@std@@V?$allocator@D@2@@0@IABV10@AAV?$allocator@V?$basic_string@DU?$char_traits@D@std@@V?$allocator@D@2@@std@@@0@@Z
_TEXT	SEGMENT PARA USE32 PUBLIC 'CODE'
_TEXT	ENDS
;	COMDAT ??$_Uninitialized_fill_n@PAUMINIGMAME_PRIZE_LIST@CRainbowRaceMng@@IU12@V?$allocator@UMINIGMAME_PRIZE_LIST@CRainbowRaceMng@@@std@@@std@@YAXPAUMINIGMAME_PRIZE_LIST@CRainbowRaceMng@@IABU12@AAV?$allocator@UMINIGMAME_PRIZE_LIST@CRainbowRaceMng@@@0@@Z
_TEXT	SEGMENT PARA USE32 PUBLIC 'CODE'
_TEXT	ENDS
;	COMDAT ??$_Allocate@V?$basic_string@DU?$char_traits@D@std@@V?$allocator@D@2@@std@@@std@@YAPAV?$basic_string@DU?$char_traits@D@std@@V?$allocator@D@2@@0@IPAV10@@Z
_TEXT	SEGMENT PARA USE32 PUBLIC 'CODE'
_TEXT	ENDS
;	COMDAT ??$?0PAUtagACTMSG@@@?$allocator@PAPAUtagACTMSG@@@std@@QAE@ABV?$allocator@PAUtagACTMSG@@@1@@Z
_TEXT	SEGMENT PARA USE32 PUBLIC 'CODE'
_TEXT	ENDS
;	COMDAT ??$_Destroy@PAPAUtagACTMSG@@@std@@YAXPAPAPAUtagACTMSG@@@Z
_TEXT	SEGMENT PARA USE32 PUBLIC 'CODE'
_TEXT	ENDS
;	COMDAT ??$?0PAUtagMAGICATKMSG@@@?$allocator@PAPAUtagMAGICATKMSG@@@std@@QAE@ABV?$allocator@PAUtagMAGICATKMSG@@@1@@Z
_TEXT	SEGMENT PARA USE32 PUBLIC 'CODE'
_TEXT	ENDS
;	COMDAT ??$_Destroy@PAPAUtagMAGICATKMSG@@@std@@YAXPAPAPAUtagMAGICATKMSG@@@Z
_TEXT	SEGMENT PARA USE32 PUBLIC 'CODE'
_TEXT	ENDS
;	COMDAT ??$_Destroy_range@PAU__JOINPLAYER@CGuildCombat@@V?$allocator@PAU__JOINPLAYER@CGuildCombat@@@std@@@std@@YAXPAPAU__JOINPLAYER@CGuildCombat@@0AAV?$allocator@PAU__JOINPLAYER@CGuildCombat@@@0@@Z
_TEXT	SEGMENT PARA USE32 PUBLIC 'CODE'
_TEXT	ENDS
;	COMDAT ??$_Destroy_range@U__SECRETROOM_MONSTER@@V?$allocator@U__SECRETROOM_MONSTER@@@std@@@std@@YAXPAU__SECRETROOM_MONSTER@@0AAV?$allocator@U__SECRETROOM_MONSTER@@@0@@Z
_TEXT	SEGMENT PARA USE32 PUBLIC 'CODE'
_TEXT	ENDS
;	COMDAT ??$_Allocate@U__SECRETROOM_MONSTER@@@std@@YAPAU__SECRETROOM_MONSTER@@IPAU1@@Z
_TEXT	SEGMENT PARA USE32 PUBLIC 'CODE'
_TEXT	ENDS
;	COMDAT ??$_Destroy_range@V?$basic_string@DU?$char_traits@D@std@@V?$allocator@D@2@@std@@V?$allocator@V?$basic_string@DU?$char_traits@D@std@@V?$allocator@D@2@@std@@@2@@std@@YAXPAV?$basic_string@DU?$char_traits@D@std@@V?$allocator@D@2@@0@0AAV?$allocator@V?$basic_string@DU?$char_traits@D@std@@V?$allocator@D@2@@std@@@0@@Z
_TEXT	SEGMENT PARA USE32 PUBLIC 'CODE'
_TEXT	ENDS
;	COMDAT ??$_Ucopy@PAV?$basic_string@DU?$char_traits@D@std@@V?$allocator@D@2@@std@@@?$vector@V?$basic_string@DU?$char_traits@D@std@@V?$allocator@D@2@@std@@V?$allocator@V?$basic_string@DU?$char_traits@D@std@@V?$allocator@D@2@@std@@@2@@std@@IAEPAV?$basic_string@DU?$char_traits@D@std@@V?$allocator@D@2@@1@PAV21@00@Z
_TEXT	SEGMENT PARA USE32 PUBLIC 'CODE'
_TEXT	ENDS
;	COMDAT ??$fill@PAV?$basic_string@DU?$char_traits@D@std@@V?$allocator@D@2@@std@@V12@@std@@YAXPAV?$basic_string@DU?$char_traits@D@std@@V?$allocator@D@2@@0@0ABV10@@Z
_TEXT	SEGMENT PARA USE32 PUBLIC 'CODE'
_TEXT	ENDS
;	COMDAT ??$copy_backward@PAV?$basic_string@DU?$char_traits@D@std@@V?$allocator@D@2@@std@@PAV12@@std@@YAPAV?$basic_string@DU?$char_traits@D@std@@V?$allocator@D@2@@0@PAV10@00@Z
_TEXT	SEGMENT PARA USE32 PUBLIC 'CODE'
_TEXT	ENDS
;	COMDAT ??$_Ucopy@PAUMINIGMAME_PRIZE_LIST@CRainbowRaceMng@@@?$vector@UMINIGMAME_PRIZE_LIST@CRainbowRaceMng@@V?$allocator@UMINIGMAME_PRIZE_LIST@CRainbowRaceMng@@@std@@@std@@IAEPAUMINIGMAME_PRIZE_LIST@CRainbowRaceMng@@PAU23@00@Z
_TEXT	SEGMENT PARA USE32 PUBLIC 'CODE'
_TEXT	ENDS
;	COMDAT ??$fill@PAUMINIGMAME_PRIZE_LIST@CRainbowRaceMng@@U12@@std@@YAXPAUMINIGMAME_PRIZE_LIST@CRainbowRaceMng@@0ABU12@@Z
_TEXT	SEGMENT PARA USE32 PUBLIC 'CODE'
_TEXT	ENDS
;	COMDAT ??$copy_backward@PAUMINIGMAME_PRIZE_LIST@CRainbowRaceMng@@PAU12@@std@@YAPAUMINIGMAME_PRIZE_LIST@CRainbowRaceMng@@PAU12@00@Z
_TEXT	SEGMENT PARA USE32 PUBLIC 'CODE'
_TEXT	ENDS
;	COMDAT ??$_Destroy@PAU_Node@?$_Tree_nod@V?$_Tmap_traits@KPAVCClientSock@@U?$less@K@std@@V?$allocator@U?$pair@$$CBKPAVCClientSock@@@std@@@3@$0A@@std@@@std@@@std@@YAXPAPAU_Node@?$_Tree_nod@V?$_Tmap_traits@KPAVCClientSock@@U?$less@K@std@@V?$allocator@U?$pair@$$CBKPAVCClientSock@@@std@@@3@$0A@@std@@@0@@Z
_TEXT	SEGMENT PARA USE32 PUBLIC 'CODE'
_TEXT	ENDS
;	COMDAT ??$_Destroy@PAU_Node@?$_Tree_nod@V?$_Tmap_traits@KPAVCClientSockE@@U?$less@K@std@@V?$allocator@U?$pair@$$CBKPAVCClientSockE@@@std@@@3@$0A@@std@@@std@@@std@@YAXPAPAU_Node@?$_Tree_nod@V?$_Tmap_traits@KPAVCClientSockE@@U?$less@K@std@@V?$allocator@U?$pair@$$CBKPAVCClientSockE@@@std@@@3@$0A@@std@@@0@@Z
_TEXT	SEGMENT PARA USE32 PUBLIC 'CODE'
_TEXT	ENDS
;	COMDAT ??$_Destroy@PAUtagACTMSG@@@std@@YAXPAPAUtagACTMSG@@@Z
_TEXT	SEGMENT PARA USE32 PUBLIC 'CODE'
_TEXT	ENDS
;	COMDAT ??$_Destroy@PAUtagMAGICATKMSG@@@std@@YAXPAPAUtagMAGICATKMSG@@@Z
_TEXT	SEGMENT PARA USE32 PUBLIC 'CODE'
_TEXT	ENDS
;	COMDAT ??$_Destroy@U_Node@?$_Tree_nod@V?$_Tmap_traits@KU_Friend@@U?$less@K@std@@V?$allocator@U?$pair@$$CBKU_Friend@@@std@@@3@$0A@@std@@@std@@@std@@YAXPAU_Node@?$_Tree_nod@V?$_Tmap_traits@KU_Friend@@U?$less@K@std@@V?$allocator@U?$pair@$$CBKU_Friend@@@std@@@3@$0A@@std@@@0@@Z
_TEXT	SEGMENT PARA USE32 PUBLIC 'CODE'
_TEXT	ENDS
;	COMDAT ??$_Destroy_range@UMINIGMAME_PRIZE_LIST@CRainbowRaceMng@@V?$allocator@UMINIGMAME_PRIZE_LIST@CRainbowRaceMng@@@std@@@std@@YAXPAUMINIGMAME_PRIZE_LIST@CRainbowRaceMng@@0AAV?$allocator@UMINIGMAME_PRIZE_LIST@CRainbowRaceMng@@@0@@Z
_TEXT	SEGMENT PARA USE32 PUBLIC 'CODE'
_TEXT	ENDS
;	COMDAT ??$_Allocate@UMINIGMAME_PRIZE_LIST@CRainbowRaceMng@@@std@@YAPAUMINIGMAME_PRIZE_LIST@CRainbowRaceMng@@IPAU12@@Z
_TEXT	SEGMENT PARA USE32 PUBLIC 'CODE'
_TEXT	ENDS
;	COMDAT ??$_Allocate@U_Node@?$_Tree_nod@V?$_Tmap_traits@KPAVCGuildHouseBase@@U?$less@K@std@@V?$allocator@U?$pair@$$CBKPAVCGuildHouseBase@@@std@@@3@$0A@@std@@@std@@@std@@YAPAU_Node@?$_Tree_nod@V?$_Tmap_traits@KPAVCGuildHouseBase@@U?$less@K@std@@V?$allocator@U?$pair@$$CBKPAVCGuildHouseBase@@@std@@@3@$0A@@std@@@0@IPAU120@@Z
_TEXT	SEGMENT PARA USE32 PUBLIC 'CODE'
_TEXT	ENDS
;	COMDAT ??$_Destroy@U_Node@?$_Tree_nod@V?$_Tmap_traits@KKU?$less@K@std@@V?$allocator@U?$pair@$$CBKK@std@@@2@$0A@@std@@@std@@@std@@YAXPAU_Node@?$_Tree_nod@V?$_Tmap_traits@KKU?$less@K@std@@V?$allocator@U?$pair@$$CBKK@std@@@2@$0A@@std@@@0@@Z
_TEXT	SEGMENT PARA USE32 PUBLIC 'CODE'
_TEXT	ENDS
;	COMDAT ??$?0U?$pair@$$CBKPAVCClientSock@@@std@@@?$allocator@PAU_Node@?$_Tree_nod@V?$_Tmap_traits@KPAVCClientSock@@U?$less@K@std@@V?$allocator@U?$pair@$$CBKPAVCClientSock@@@std@@@3@$0A@@std@@@std@@@std@@QAE@ABV?$allocator@U?$pair@$$CBKPAVCClientSock@@@std@@@1@@Z
_TEXT	SEGMENT PARA USE32 PUBLIC 'CODE'
_TEXT	ENDS
;	COMDAT ??$?0U?$pair@$$CBKPAVCClientSockE@@@std@@@?$allocator@PAU_Node@?$_Tree_nod@V?$_Tmap_traits@KPAVCClientSockE@@U?$less@K@std@@V?$allocator@U?$pair@$$CBKPAVCClientSockE@@@std@@@3@$0A@@std@@@std@@@std@@QAE@ABV?$allocator@U?$pair@$$CBKPAVCClientSockE@@@std@@@1@@Z
_TEXT	SEGMENT PARA USE32 PUBLIC 'CODE'
_TEXT	ENDS
;	COMDAT ??$?0U?$pair@$$CBKPAVCClientSock@@@std@@@?$allocator@U_Node@?$_Tree_nod@V?$_Tmap_traits@KPAVCClientSock@@U?$less@K@std@@V?$allocator@U?$pair@$$CBKPAVCClientSock@@@std@@@3@$0A@@std@@@std@@@std@@QAE@ABV?$allocator@U?$pair@$$CBKPAVCClientSock@@@std@@@1@@Z
_TEXT	SEGMENT PARA USE32 PUBLIC 'CODE'
_TEXT	ENDS
;	COMDAT ??$_Allocate@U_Node@?$_Tree_nod@V?$_Tmap_traits@KPAVCClientSock@@U?$less@K@std@@V?$allocator@U?$pair@$$CBKPAVCClientSock@@@std@@@3@$0A@@std@@@std@@@std@@YAPAU_Node@?$_Tree_nod@V?$_Tmap_traits@KPAVCClientSock@@U?$less@K@std@@V?$allocator@U?$pair@$$CBKPAVCClientSock@@@std@@@3@$0A@@std@@@0@IPAU120@@Z
_TEXT	SEGMENT PARA USE32 PUBLIC 'CODE'
_TEXT	ENDS
;	COMDAT ??$_Destroy@U_Node@?$_Tree_nod@V?$_Tmap_traits@KPAVCClientSock@@U?$less@K@std@@V?$allocator@U?$pair@$$CBKPAVCClientSock@@@std@@@3@$0A@@std@@@std@@@std@@YAXPAU_Node@?$_Tree_nod@V?$_Tmap_traits@KPAVCClientSock@@U?$less@K@std@@V?$allocator@U?$pair@$$CBKPAVCClientSock@@@std@@@3@$0A@@std@@@0@@Z
_TEXT	SEGMENT PARA USE32 PUBLIC 'CODE'
_TEXT	ENDS
;	COMDAT ??$_Construct@PAU_Node@?$_Tree_nod@V?$_Tmap_traits@KPAVCClientSock@@U?$less@K@std@@V?$allocator@U?$pair@$$CBKPAVCClientSock@@@std@@@3@$0A@@std@@@std@@PAU123@@std@@YAXPAPAU_Node@?$_Tree_nod@V?$_Tmap_traits@KPAVCClientSock@@U?$less@K@std@@V?$allocator@U?$pair@$$CBKPAVCClientSock@@@std@@@3@$0A@@std@@@0@ABQAU120@@Z
_TEXT	SEGMENT PARA USE32 PUBLIC 'CODE'
_TEXT	ENDS
;	COMDAT ??$?0U?$pair@$$CBKPAVCClientSockE@@@std@@@?$allocator@U_Node@?$_Tree_nod@V?$_Tmap_traits@KPAVCClientSockE@@U?$less@K@std@@V?$allocator@U?$pair@$$CBKPAVCClientSockE@@@std@@@3@$0A@@std@@@std@@@std@@QAE@ABV?$allocator@U?$pair@$$CBKPAVCClientSockE@@@std@@@1@@Z
_TEXT	SEGMENT PARA USE32 PUBLIC 'CODE'
_TEXT	ENDS
;	COMDAT ??$_Allocate@U_Node@?$_Tree_nod@V?$_Tmap_traits@KPAVCClientSockE@@U?$less@K@std@@V?$allocator@U?$pair@$$CBKPAVCClientSockE@@@std@@@3@$0A@@std@@@std@@@std@@YAPAU_Node@?$_Tree_nod@V?$_Tmap_traits@KPAVCClientSockE@@U?$less@K@std@@V?$allocator@U?$pair@$$CBKPAVCClientSockE@@@std@@@3@$0A@@std@@@0@IPAU120@@Z
_TEXT	SEGMENT PARA USE32 PUBLIC 'CODE'
_TEXT	ENDS
;	COMDAT ??$_Destroy@U_Node@?$_Tree_nod@V?$_Tmap_traits@KPAVCClientSockE@@U?$less@K@std@@V?$allocator@U?$pair@$$CBKPAVCClientSockE@@@std@@@3@$0A@@std@@@std@@@std@@YAXPAU_Node@?$_Tree_nod@V?$_Tmap_traits@KPAVCClientSockE@@U?$less@K@std@@V?$allocator@U?$pair@$$CBKPAVCClientSockE@@@std@@@3@$0A@@std@@@0@@Z
_TEXT	SEGMENT PARA USE32 PUBLIC 'CODE'
_TEXT	ENDS
;	COMDAT ??$_Construct@PAU_Node@?$_Tree_nod@V?$_Tmap_traits@KPAVCClientSockE@@U?$less@K@std@@V?$allocator@U?$pair@$$CBKPAVCClientSockE@@@std@@@3@$0A@@std@@@std@@PAU123@@std@@YAXPAPAU_Node@?$_Tree_nod@V?$_Tmap_traits@KPAVCClientSockE@@U?$less@K@std@@V?$allocator@U?$pair@$$CBKPAVCClientSockE@@@std@@@3@$0A@@std@@@0@ABQAU120@@Z
_TEXT	SEGMENT PARA USE32 PUBLIC 'CODE'
_TEXT	ENDS
;	COMDAT ??_G?$CFixedArray@UtagWORLD@@@@UAEPAXI@Z
_TEXT	SEGMENT PARA USE32 PUBLIC 'CODE'
_TEXT	ENDS
;	COMDAT ?destroy@?$allocator@UtagDROPITEM@@@std@@QAEXPAUtagDROPITEM@@@Z
_TEXT	SEGMENT PARA USE32 PUBLIC 'CODE'
_TEXT	ENDS
;	COMDAT ?destroy@?$allocator@UWORMON@@@std@@QAEXPAUWORMON@@@Z
_TEXT	SEGMENT PARA USE32 PUBLIC 'CODE'
_TEXT	ENDS
;	COMDAT ?destroy@?$allocator@U__ITEMGAME@CMiniGame@@@std@@QAEXPAU__ITEMGAME@CMiniGame@@@Z
_TEXT	SEGMENT PARA USE32 PUBLIC 'CODE'
_TEXT	ENDS
;	COMDAT ?destroy@?$allocator@U__ITEM@CExchange@@@std@@QAEXPAU__ITEM@CExchange@@@Z
_TEXT	SEGMENT PARA USE32 PUBLIC 'CODE'
_TEXT	ENDS
;	COMDAT ?destroy@?$allocator@U__POINT@CExchange@@@std@@QAEXPAU__POINT@CExchange@@@Z
_TEXT	SEGMENT PARA USE32 PUBLIC 'CODE'
_TEXT	ENDS
;	COMDAT ?begin@?$vector@EV?$allocator@E@std@@@std@@QAE?AViterator@12@XZ
_TEXT	SEGMENT PARA USE32 PUBLIC 'CODE'
_TEXT	ENDS
;	COMDAT ?end@?$vector@EV?$allocator@E@std@@@std@@QAE?AViterator@12@XZ
_TEXT	SEGMENT PARA USE32 PUBLIC 'CODE'
_TEXT	ENDS
;	COMDAT ?erase@?$vector@EV?$allocator@E@std@@@std@@QAE?AViterator@12@V312@0@Z
_TEXT	SEGMENT PARA USE32 PUBLIC 'CODE'
_TEXT	ENDS
;	COMDAT ?construct@?$allocator@U__SPAWNREGION@CEventLua@@@std@@QAEXPAU__SPAWNREGION@CEventLua@@ABU34@@Z
_TEXT	SEGMENT PARA USE32 PUBLIC 'CODE'
_TEXT	ENDS
;	COMDAT ?destroy@?$allocator@U__SPAWNREGION@CEventLua@@@std@@QAEXPAU__SPAWNREGION@CEventLua@@@Z
_TEXT	SEGMENT PARA USE32 PUBLIC 'CODE'
_TEXT	ENDS
;	COMDAT ?destroy@?$allocator@UD3DXVECTOR3@@@std@@QAEXPAUD3DXVECTOR3@@@Z
_TEXT	SEGMENT PARA USE32 PUBLIC 'CODE'
_TEXT	ENDS
;	COMDAT ?destroy@?$allocator@U_GIFTBOX@@@std@@QAEXPAU_GIFTBOX@@@Z
_TEXT	SEGMENT PARA USE32 PUBLIC 'CODE'
_TEXT	ENDS
;	COMDAT ??0?$pair@KPAVCGuildHouseBase@@@std@@QAE@ABKABQAVCGuildHouseBase@@@Z
_TEXT	SEGMENT PARA USE32 PUBLIC 'CODE'
_TEXT	ENDS
;	COMDAT ??9const_iterator@?$vector@EV?$allocator@E@std@@@std@@QBE_NABV012@@Z
_TEXT	SEGMENT PARA USE32 PUBLIC 'CODE'
_TEXT	ENDS
;	COMDAT ??0iterator@?$vector@EV?$allocator@E@std@@@std@@QAE@PAE@Z
_TEXT	SEGMENT PARA USE32 PUBLIC 'CODE'
_TEXT	ENDS
;	COMDAT ??8const_iterator@?$vector@EV?$allocator@E@std@@@std@@QBE_NABV012@@Z
_TEXT	SEGMENT PARA USE32 PUBLIC 'CODE'
_TEXT	ENDS
;	COMDAT ??$insert@Vconst_iterator@?$vector@EV?$allocator@E@std@@@std@@@?$vector@EV?$allocator@E@std@@@std@@QAEXViterator@01@Vconst_iterator@01@1@Z
_TEXT	SEGMENT PARA USE32 PUBLIC 'CODE'
_TEXT	ENDS
;	COMDAT ??$_Ptr_cat@Vconst_iterator@?$vector@EV?$allocator@E@std@@@std@@PAE@std@@YA?AU_Nonscalar_ptr_iterator_tag@0@AAVconst_iterator@?$vector@EV?$allocator@E@std@@@0@AAPAE@Z
_TEXT	SEGMENT PARA USE32 PUBLIC 'CODE'
_TEXT	ENDS
;	COMDAT ??$_Uninit_copy@Vconst_iterator@?$vector@EV?$allocator@E@std@@@std@@PAEV?$allocator@E@3@@std@@YAPAEVconst_iterator@?$vector@EV?$allocator@E@std@@@0@0PAEAAV?$allocator@E@0@U_Nonscalar_ptr_iterator_tag@0@@Z
_TEXT	SEGMENT PARA USE32 PUBLIC 'CODE'
_TEXT	ENDS
;	COMDAT ??$_Uninit_copy@JJ@std@@YAPAJPAJ00AAV?$allocator@J@0@U_Scalar_ptr_iterator_tag@0@@Z
_TEXT	SEGMENT PARA USE32 PUBLIC 'CODE'
_TEXT	ENDS
;	COMDAT ??$_Uninit_copy@PAU__SPAWNREGION@CEventLua@@PAU12@V?$allocator@U__SPAWNREGION@CEventLua@@@std@@@std@@YAPAU__SPAWNREGION@CEventLua@@PAU12@00AAV?$allocator@U__SPAWNREGION@CEventLua@@@0@U_Nonscalar_ptr_iterator_tag@0@@Z
_TEXT	SEGMENT PARA USE32 PUBLIC 'CODE'
_TEXT	ENDS
;	COMDAT ??$fill_n@PAJIJ@std@@YAXPAJIABJ@Z
_TEXT	SEGMENT PARA USE32 PUBLIC 'CODE'
_TEXT	ENDS
;	COMDAT ??$_Iter_cat@Viterator@?$_Tree@V?$_Tmap_traits@KU_Friend@@U?$less@K@std@@V?$allocator@U?$pair@$$CBKU_Friend@@@std@@@3@$0A@@std@@@std@@@std@@YA?AUbidirectional_iterator_tag@0@ABViterator@?$_Tree@V?$_Tmap_traits@KU_Friend@@U?$less@K@std@@V?$allocator@U?$pair@$$CBKU_Friend@@@std@@@3@$0A@@std@@@0@@Z
_TEXT	SEGMENT PARA USE32 PUBLIC 'CODE'
_TEXT	ENDS
;	COMDAT ??$_Distance2@Viterator@?$_Tree@V?$_Tmap_traits@KU_Friend@@U?$less@K@std@@V?$allocator@U?$pair@$$CBKU_Friend@@@std@@@3@$0A@@std@@@std@@I@std@@YAXViterator@?$_Tree@V?$_Tmap_traits@KU_Friend@@U?$less@K@std@@V?$allocator@U?$pair@$$CBKU_Friend@@@std@@@3@$0A@@std@@@0@0AAIUbidirectional_iterator_tag@0@@Z
_TEXT	SEGMENT PARA USE32 PUBLIC 'CODE'
_TEXT	ENDS
;	COMDAT ??$_Iter_cat@Viterator@?$_Tree@V?$_Tmap_traits@KKU?$less@K@std@@V?$allocator@U?$pair@$$CBKK@std@@@2@$0A@@std@@@std@@@std@@YA?AUbidirectional_iterator_tag@0@ABViterator@?$_Tree@V?$_Tmap_traits@KKU?$less@K@std@@V?$allocator@U?$pair@$$CBKK@std@@@2@$0A@@std@@@0@@Z
_TEXT	SEGMENT PARA USE32 PUBLIC 'CODE'
_TEXT	ENDS
;	COMDAT ??$_Distance2@Viterator@?$_Tree@V?$_Tmap_traits@KKU?$less@K@std@@V?$allocator@U?$pair@$$CBKK@std@@@2@$0A@@std@@@std@@I@std@@YAXViterator@?$_Tree@V?$_Tmap_traits@KKU?$less@K@std@@V?$allocator@U?$pair@$$CBKK@std@@@2@$0A@@std@@@0@0AAIUbidirectional_iterator_tag@0@@Z
_TEXT	SEGMENT PARA USE32 PUBLIC 'CODE'
_TEXT	ENDS
;	COMDAT ??$_Ptr_cat@PAV?$basic_string@DU?$char_traits@D@std@@V?$allocator@D@2@@std@@PAV12@@std@@YA?AU_Nonscalar_ptr_iterator_tag@0@AAPAV?$basic_string@DU?$char_traits@D@std@@V?$allocator@D@2@@0@0@Z
_TEXT	SEGMENT PARA USE32 PUBLIC 'CODE'
_TEXT	ENDS
;	COMDAT ??$_Uninit_fill_n@PAV?$basic_string@DU?$char_traits@D@std@@V?$allocator@D@2@@std@@IV12@V?$allocator@V?$basic_string@DU?$char_traits@D@std@@V?$allocator@D@2@@std@@@2@@std@@YAXPAV?$basic_string@DU?$char_traits@D@std@@V?$allocator@D@2@@0@IABV10@AAV?$allocator@V?$basic_string@DU?$char_traits@D@std@@V?$allocator@D@2@@std@@@0@U_Nonscalar_ptr_iterator_tag@0@@Z
_TEXT	SEGMENT PARA USE32 PUBLIC 'CODE'
_TEXT	ENDS
;	COMDAT ??$_Ptr_cat@PAUMINIGMAME_PRIZE_LIST@CRainbowRaceMng@@PAU12@@std@@YA?AU_Nonscalar_ptr_iterator_tag@0@AAPAUMINIGMAME_PRIZE_LIST@CRainbowRaceMng@@0@Z
_TEXT	SEGMENT PARA USE32 PUBLIC 'CODE'
_TEXT	ENDS
;	COMDAT ??$_Uninit_fill_n@PAUMINIGMAME_PRIZE_LIST@CRainbowRaceMng@@IU12@V?$allocator@UMINIGMAME_PRIZE_LIST@CRainbowRaceMng@@@std@@@std@@YAXPAUMINIGMAME_PRIZE_LIST@CRainbowRaceMng@@IABU12@AAV?$allocator@UMINIGMAME_PRIZE_LIST@CRainbowRaceMng@@@0@U_Nonscalar_ptr_iterator_tag@0@@Z
_TEXT	SEGMENT PARA USE32 PUBLIC 'CODE'
_TEXT	ENDS
;	COMDAT ??$_Ptr_cat@U__JOINPLAYER@CGuildCombat@@@std@@YA?AU_Scalar_ptr_iterator_tag@0@PAPAU__JOINPLAYER@CGuildCombat@@0@Z
_TEXT	SEGMENT PARA USE32 PUBLIC 'CODE'
_TEXT	ENDS
;	COMDAT ??$_Destroy_range@PAU__JOINPLAYER@CGuildCombat@@V?$allocator@PAU__JOINPLAYER@CGuildCombat@@@std@@@std@@YAXPAPAU__JOINPLAYER@CGuildCombat@@0AAV?$allocator@PAU__JOINPLAYER@CGuildCombat@@@0@U_Scalar_ptr_iterator_tag@0@@Z
_TEXT	SEGMENT PARA USE32 PUBLIC 'CODE'
_TEXT	ENDS
;	COMDAT ??$_Ptr_cat@PAU__SECRETROOM_MONSTER@@PAU1@@std@@YA?AU_Nonscalar_ptr_iterator_tag@0@AAPAU__SECRETROOM_MONSTER@@0@Z
_TEXT	SEGMENT PARA USE32 PUBLIC 'CODE'
_TEXT	ENDS
;	COMDAT ??$_Destroy_range@U__SECRETROOM_MONSTER@@V?$allocator@U__SECRETROOM_MONSTER@@@std@@@std@@YAXPAU__SECRETROOM_MONSTER@@0AAV?$allocator@U__SECRETROOM_MONSTER@@@0@U_Nonscalar_ptr_iterator_tag@0@@Z
_TEXT	SEGMENT PARA USE32 PUBLIC 'CODE'
_TEXT	ENDS
;	COMDAT ??$_Destroy_range@V?$basic_string@DU?$char_traits@D@std@@V?$allocator@D@2@@std@@V?$allocator@V?$basic_string@DU?$char_traits@D@std@@V?$allocator@D@2@@std@@@2@@std@@YAXPAV?$basic_string@DU?$char_traits@D@std@@V?$allocator@D@2@@0@0AAV?$allocator@V?$basic_string@DU?$char_traits@D@std@@V?$allocator@D@2@@std@@@0@U_Nonscalar_ptr_iterator_tag@0@@Z
_TEXT	SEGMENT PARA USE32 PUBLIC 'CODE'
_TEXT	ENDS
;	COMDAT ??$_Uninitialized_copy@PAV?$basic_string@DU?$char_traits@D@std@@V?$allocator@D@2@@std@@PAV12@V?$allocator@V?$basic_string@DU?$char_traits@D@std@@V?$allocator@D@2@@std@@@2@@std@@YAPAV?$basic_string@DU?$char_traits@D@std@@V?$allocator@D@2@@0@PAV10@00AAV?$allocator@V?$basic_string@DU?$char_traits@D@std@@V?$allocator@D@2@@std@@@0@@Z
_TEXT	SEGMENT PARA USE32 PUBLIC 'CODE'
_TEXT	ENDS
;	COMDAT ??$_Copy_backward_opt@PAV?$basic_string@DU?$char_traits@D@std@@V?$allocator@D@2@@std@@PAV12@@std@@YAPAV?$basic_string@DU?$char_traits@D@std@@V?$allocator@D@2@@0@PAV10@00U_Nonscalar_ptr_iterator_tag@0@@Z
_TEXT	SEGMENT PARA USE32 PUBLIC 'CODE'
_TEXT	ENDS
;	COMDAT ??$_Uninitialized_copy@PAUMINIGMAME_PRIZE_LIST@CRainbowRaceMng@@PAU12@V?$allocator@UMINIGMAME_PRIZE_LIST@CRainbowRaceMng@@@std@@@std@@YAPAUMINIGMAME_PRIZE_LIST@CRainbowRaceMng@@PAU12@00AAV?$allocator@UMINIGMAME_PRIZE_LIST@CRainbowRaceMng@@@0@@Z
_TEXT	SEGMENT PARA USE32 PUBLIC 'CODE'
_TEXT	ENDS
;	COMDAT ??$_Copy_backward_opt@PAUMINIGMAME_PRIZE_LIST@CRainbowRaceMng@@PAU12@@std@@YAPAUMINIGMAME_PRIZE_LIST@CRainbowRaceMng@@PAU12@00U_Nonscalar_ptr_iterator_tag@0@@Z
_TEXT	SEGMENT PARA USE32 PUBLIC 'CODE'
_TEXT	ENDS
;	COMDAT ??$_Destroy_range@UMINIGMAME_PRIZE_LIST@CRainbowRaceMng@@V?$allocator@UMINIGMAME_PRIZE_LIST@CRainbowRaceMng@@@std@@@std@@YAXPAUMINIGMAME_PRIZE_LIST@CRainbowRaceMng@@0AAV?$allocator@UMINIGMAME_PRIZE_LIST@CRainbowRaceMng@@@0@U_Nonscalar_ptr_iterator_tag@0@@Z
_TEXT	SEGMENT PARA USE32 PUBLIC 'CODE'
_TEXT	ENDS
;	COMDAT ??$_Destroy@UtagDROPITEM@@@std@@YAXPAUtagDROPITEM@@@Z
_TEXT	SEGMENT PARA USE32 PUBLIC 'CODE'
_TEXT	ENDS
;	COMDAT ??$_Destroy@UWORMON@@@std@@YAXPAUWORMON@@@Z
_TEXT	SEGMENT PARA USE32 PUBLIC 'CODE'
_TEXT	ENDS
;	COMDAT ??$_Destroy@U__ITEMGAME@CMiniGame@@@std@@YAXPAU__ITEMGAME@CMiniGame@@@Z
_TEXT	SEGMENT PARA USE32 PUBLIC 'CODE'
_TEXT	ENDS
;	COMDAT ??$_Destroy@U__ITEM@CExchange@@@std@@YAXPAU__ITEM@CExchange@@@Z
_TEXT	SEGMENT PARA USE32 PUBLIC 'CODE'
_TEXT	ENDS
;	COMDAT ??$_Destroy@U__POINT@CExchange@@@std@@YAXPAU__POINT@CExchange@@@Z
_TEXT	SEGMENT PARA USE32 PUBLIC 'CODE'
_TEXT	ENDS
;	COMDAT ??$copy@PAEPAE@std@@YAPAEPAE00@Z
_TEXT	SEGMENT PARA USE32 PUBLIC 'CODE'
_TEXT	ENDS
;	COMDAT ??$_Construct@U__SPAWNREGION@CEventLua@@U12@@std@@YAXPAU__SPAWNREGION@CEventLua@@ABU12@@Z
_TEXT	SEGMENT PARA USE32 PUBLIC 'CODE'
_TEXT	ENDS
;	COMDAT ??$_Destroy@U__SPAWNREGION@CEventLua@@@std@@YAXPAU__SPAWNREGION@CEventLua@@@Z
_TEXT	SEGMENT PARA USE32 PUBLIC 'CODE'
_TEXT	ENDS
;	COMDAT ??$_Destroy@UD3DXVECTOR3@@@std@@YAXPAUD3DXVECTOR3@@@Z
_TEXT	SEGMENT PARA USE32 PUBLIC 'CODE'
_TEXT	ENDS
;	COMDAT ??$_Destroy@U_GIFTBOX@@@std@@YAXPAU_GIFTBOX@@@Z
_TEXT	SEGMENT PARA USE32 PUBLIC 'CODE'
_TEXT	ENDS
;	COMDAT ?construct@?$allocator@V?$basic_string@DU?$char_traits@D@std@@V?$allocator@D@2@@std@@@std@@QAEXPAV?$basic_string@DU?$char_traits@D@std@@V?$allocator@D@2@@2@ABV32@@Z
_TEXT	SEGMENT PARA USE32 PUBLIC 'CODE'
_TEXT	ENDS
;	COMDAT ?destroy@?$allocator@V?$basic_string@DU?$char_traits@D@std@@V?$allocator@D@2@@std@@@std@@QAEXPAV?$basic_string@DU?$char_traits@D@std@@V?$allocator@D@2@@2@@Z
_TEXT	SEGMENT PARA USE32 PUBLIC 'CODE'
_TEXT	ENDS
;	COMDAT ?construct@?$allocator@E@std@@QAEXPAEABE@Z
_TEXT	SEGMENT PARA USE32 PUBLIC 'CODE'
_TEXT	ENDS
;	COMDAT ?destroy@?$allocator@E@std@@QAEXPAE@Z
_TEXT	SEGMENT PARA USE32 PUBLIC 'CODE'
_TEXT	ENDS
;	COMDAT ??Dconst_iterator@?$vector@EV?$allocator@E@std@@@std@@QBEABEXZ
_TEXT	SEGMENT PARA USE32 PUBLIC 'CODE'
_TEXT	ENDS
;	COMDAT ??Econst_iterator@?$vector@EV?$allocator@E@std@@@std@@QAEAAV012@XZ
_TEXT	SEGMENT PARA USE32 PUBLIC 'CODE'
_TEXT	ENDS
;	COMDAT ?destroy@?$allocator@U__SECRETROOM_MONSTER@@@std@@QAEXPAU__SECRETROOM_MONSTER@@@Z
_TEXT	SEGMENT PARA USE32 PUBLIC 'CODE'
_TEXT	ENDS
;	COMDAT ?construct@?$allocator@UMINIGMAME_PRIZE_LIST@CRainbowRaceMng@@@std@@QAEXPAUMINIGMAME_PRIZE_LIST@CRainbowRaceMng@@ABU34@@Z
_TEXT	SEGMENT PARA USE32 PUBLIC 'CODE'
_TEXT	ENDS
;	COMDAT ?destroy@?$allocator@UMINIGMAME_PRIZE_LIST@CRainbowRaceMng@@@std@@QAEXPAUMINIGMAME_PRIZE_LIST@CRainbowRaceMng@@@Z
_TEXT	SEGMENT PARA USE32 PUBLIC 'CODE'
_TEXT	ENDS
;	COMDAT ??$_Insert@Vconst_iterator@?$vector@EV?$allocator@E@std@@@std@@@?$vector@EV?$allocator@E@std@@@std@@QAEXViterator@01@Vconst_iterator@01@1Uforward_iterator_tag@1@@Z
_TEXT	SEGMENT PARA USE32 PUBLIC 'CODE'
_TEXT	ENDS
;	COMDAT ??$_Uninit_copy@PAV?$basic_string@DU?$char_traits@D@std@@V?$allocator@D@2@@std@@PAV12@V?$allocator@V?$basic_string@DU?$char_traits@D@std@@V?$allocator@D@2@@std@@@2@@std@@YAPAV?$basic_string@DU?$char_traits@D@std@@V?$allocator@D@2@@0@PAV10@00AAV?$allocator@V?$basic_string@DU?$char_traits@D@std@@V?$allocator@D@2@@std@@@0@U_Nonscalar_ptr_iterator_tag@0@@Z
_TEXT	SEGMENT PARA USE32 PUBLIC 'CODE'
_TEXT	ENDS
;	COMDAT ??$_Uninit_copy@PAUMINIGMAME_PRIZE_LIST@CRainbowRaceMng@@PAU12@V?$allocator@UMINIGMAME_PRIZE_LIST@CRainbowRaceMng@@@std@@@std@@YAPAUMINIGMAME_PRIZE_LIST@CRainbowRaceMng@@PAU12@00AAV?$allocator@UMINIGMAME_PRIZE_LIST@CRainbowRaceMng@@@0@U_Nonscalar_ptr_iterator_tag@0@@Z
_TEXT	SEGMENT PARA USE32 PUBLIC 'CODE'
_TEXT	ENDS
;	COMDAT ??$_Copy_opt@PAEPAE@std@@YAPAEPAE00U_Scalar_ptr_iterator_tag@0@@Z
_TEXT	SEGMENT PARA USE32 PUBLIC 'CODE'
_TEXT	ENDS
;	COMDAT ??$_Construct@V?$basic_string@DU?$char_traits@D@std@@V?$allocator@D@2@@std@@V12@@std@@YAXPAV?$basic_string@DU?$char_traits@D@std@@V?$allocator@D@2@@0@ABV10@@Z
_TEXT	SEGMENT PARA USE32 PUBLIC 'CODE'
_TEXT	ENDS
;	COMDAT ??$_Destroy@V?$basic_string@DU?$char_traits@D@std@@V?$allocator@D@2@@std@@@std@@YAXPAV?$basic_string@DU?$char_traits@D@std@@V?$allocator@D@2@@0@@Z
_TEXT	SEGMENT PARA USE32 PUBLIC 'CODE'
_TEXT	ENDS
;	COMDAT ??$_Construct@EE@std@@YAXPAEABE@Z
_TEXT	SEGMENT PARA USE32 PUBLIC 'CODE'
_TEXT	ENDS
;	COMDAT ??$_Destroy@E@std@@YAXPAE@Z
_TEXT	SEGMENT PARA USE32 PUBLIC 'CODE'
_TEXT	ENDS
;	COMDAT ??$_Destroy@U__SECRETROOM_MONSTER@@@std@@YAXPAU__SECRETROOM_MONSTER@@@Z
_TEXT	SEGMENT PARA USE32 PUBLIC 'CODE'
_TEXT	ENDS
;	COMDAT ??$_Construct@UMINIGMAME_PRIZE_LIST@CRainbowRaceMng@@U12@@std@@YAXPAUMINIGMAME_PRIZE_LIST@CRainbowRaceMng@@ABU12@@Z
_TEXT	SEGMENT PARA USE32 PUBLIC 'CODE'
_TEXT	ENDS
;	COMDAT ??$_Destroy@UMINIGMAME_PRIZE_LIST@CRainbowRaceMng@@@std@@YAXPAUMINIGMAME_PRIZE_LIST@CRainbowRaceMng@@@Z
_TEXT	SEGMENT PARA USE32 PUBLIC 'CODE'
_TEXT	ENDS
;	COMDAT ??_G?$basic_string@DU?$char_traits@D@std@@V?$allocator@D@2@@std@@QAEPAXI@Z
_TEXT	SEGMENT PARA USE32 PUBLIC 'CODE'
_TEXT	ENDS
;	COMDAT ?capacity@?$vector@EV?$allocator@E@std@@@std@@QBEIXZ
_TEXT	SEGMENT PARA USE32 PUBLIC 'CODE'
_TEXT	ENDS
;	COMDAT ??Giterator@?$vector@EV?$allocator@E@std@@@std@@QBEHABVconst_iterator@12@@Z
_TEXT	SEGMENT PARA USE32 PUBLIC 'CODE'
_TEXT	ENDS
;	COMDAT ??Gconst_iterator@?$vector@EV?$allocator@E@std@@@std@@QBEHABV012@@Z
_TEXT	SEGMENT PARA USE32 PUBLIC 'CODE'
_TEXT	ENDS
;	COMDAT ??$_Distance@Vconst_iterator@?$vector@EV?$allocator@E@std@@@std@@I@std@@YAXVconst_iterator@?$vector@EV?$allocator@E@std@@@0@0AAI@Z
_TEXT	SEGMENT PARA USE32 PUBLIC 'CODE'
_TEXT	ENDS
;	COMDAT ??$_Ucopy@PAE@?$vector@EV?$allocator@E@std@@@std@@IAEPAEPAE00@Z
_TEXT	SEGMENT PARA USE32 PUBLIC 'CODE'
_TEXT	ENDS
;	COMDAT ??$advance@Vconst_iterator@?$vector@EV?$allocator@E@std@@@std@@H@std@@YAXAAVconst_iterator@?$vector@EV?$allocator@E@std@@@0@H@Z
_TEXT	SEGMENT PARA USE32 PUBLIC 'CODE'
_TEXT	ENDS
;	COMDAT ??$copy@Vconst_iterator@?$vector@EV?$allocator@E@std@@@std@@PAE@std@@YAPAEVconst_iterator@?$vector@EV?$allocator@E@std@@@0@0PAE@Z
_TEXT	SEGMENT PARA USE32 PUBLIC 'CODE'
_TEXT	ENDS
;	COMDAT ??$copy_backward@PAEPAE@std@@YAPAEPAE00@Z
_TEXT	SEGMENT PARA USE32 PUBLIC 'CODE'
_TEXT	ENDS
;	COMDAT ??$_Distance2@Vconst_iterator@?$vector@EV?$allocator@E@std@@@std@@I@std@@YAXVconst_iterator@?$vector@EV?$allocator@E@std@@@0@0AAIUrandom_access_iterator_tag@0@@Z
_TEXT	SEGMENT PARA USE32 PUBLIC 'CODE'
_TEXT	ENDS
;	COMDAT ??$_Uninitialized_copy@PAEPAEV?$allocator@E@std@@@std@@YAPAEPAE00AAV?$allocator@E@0@@Z
_TEXT	SEGMENT PARA USE32 PUBLIC 'CODE'
_TEXT	ENDS
;	COMDAT ??$_Advance@Vconst_iterator@?$vector@EV?$allocator@E@std@@@std@@H@std@@YAXAAVconst_iterator@?$vector@EV?$allocator@E@std@@@0@HUrandom_access_iterator_tag@0@@Z
_TEXT	SEGMENT PARA USE32 PUBLIC 'CODE'
_TEXT	ENDS
;	COMDAT ??$_Copy_opt@Vconst_iterator@?$vector@EV?$allocator@E@std@@@std@@PAE@std@@YAPAEVconst_iterator@?$vector@EV?$allocator@E@std@@@0@0PAEU_Nonscalar_ptr_iterator_tag@0@@Z
_TEXT	SEGMENT PARA USE32 PUBLIC 'CODE'
_TEXT	ENDS
;	COMDAT ??$_Copy_backward_opt@PAEPAE@std@@YAPAEPAE00U_Scalar_ptr_iterator_tag@0@@Z
_TEXT	SEGMENT PARA USE32 PUBLIC 'CODE'
_TEXT	ENDS
;	COMDAT ??Yconst_iterator@?$vector@EV?$allocator@E@std@@@std@@QAEAAV012@H@Z
_TEXT	SEGMENT PARA USE32 PUBLIC 'CODE'
_TEXT	ENDS
;	COMDAT ??$_Uninit_copy@EE@std@@YAPAEPAE00AAV?$allocator@E@0@U_Scalar_ptr_iterator_tag@0@@Z
_TEXT	SEGMENT PARA USE32 PUBLIC 'CODE'
_TEXT	ENDS
;	COMDAT ?deallocate@?$allocator@E@std@@QAEXPAEI@Z
_TEXT	SEGMENT PARA USE32 PUBLIC 'CODE'
_TEXT	ENDS
;	COMDAT ??$_Ucopy@Vconst_iterator@?$vector@EV?$allocator@E@std@@@std@@@?$vector@EV?$allocator@E@std@@@std@@IAEPAEVconst_iterator@01@0PAE@Z
_TEXT	SEGMENT PARA USE32 PUBLIC 'CODE'
_TEXT	ENDS
;	COMDAT ?allocate@?$allocator@E@std@@QAEPAEI@Z
_TEXT	SEGMENT PARA USE32 PUBLIC 'CODE'
_TEXT	ENDS
;	COMDAT ??$_Allocate@E@std@@YAPAEIPAE@Z
_TEXT	SEGMENT PARA USE32 PUBLIC 'CODE'
_TEXT	ENDS
;	COMDAT ?_Xlen@?$vector@EV?$allocator@E@std@@@std@@IBEXXZ
_TEXT	SEGMENT PARA USE32 PUBLIC 'CODE'
_TEXT	ENDS
;	COMDAT ?size@?$vector@EV?$allocator@E@std@@@std@@QBEIXZ
_TEXT	SEGMENT PARA USE32 PUBLIC 'CODE'
_TEXT	ENDS
;	COMDAT ?max_size@?$vector@EV?$allocator@E@std@@@std@@QBEIXZ
_TEXT	SEGMENT PARA USE32 PUBLIC 'CODE'
_TEXT	ENDS
;	COMDAT ?max_size@?$allocator@E@std@@QBEIXZ
_TEXT	SEGMENT PARA USE32 PUBLIC 'CODE'
_TEXT	ENDS
;	COMDAT ?_Ptr_cat@std@@YA?AU_Scalar_ptr_iterator_tag@1@PAE0@Z
_TEXT	SEGMENT PARA USE32 PUBLIC 'CODE'
_TEXT	ENDS
;	COMDAT ??0const_iterator@?$vector@EV?$allocator@E@std@@@std@@QAE@PAE@Z
_TEXT	SEGMENT PARA USE32 PUBLIC 'CODE'
_TEXT	ENDS
;	COMDAT ?_Destroy@?$vector@EV?$allocator@E@std@@@std@@IAEXPAE0@Z
_TEXT	SEGMENT PARA USE32 PUBLIC 'CODE'
_TEXT	ENDS
;	COMDAT ??$_Destroy_range@EV?$allocator@E@std@@@std@@YAXPAE0AAV?$allocator@E@0@@Z
_TEXT	SEGMENT PARA USE32 PUBLIC 'CODE'
_TEXT	ENDS
;	COMDAT ??4?$basic_string@DU?$char_traits@D@std@@V?$allocator@D@2@@std@@QAEAAV01@ABV01@@Z
_TEXT	SEGMENT PARA USE32 PUBLIC 'CODE'
_TEXT	ENDS
;	COMDAT ?assign@?$basic_string@DU?$char_traits@D@std@@V?$allocator@D@2@@std@@QAEAAV12@ABV12@@Z
_TEXT	SEGMENT PARA USE32 PUBLIC 'CODE'
_TEXT	ENDS
;	COMDAT ?assign@?$basic_string@DU?$char_traits@D@std@@V?$allocator@D@2@@std@@QAEAAV12@ABV12@II@Z
_TEXT	SEGMENT PARA USE32 PUBLIC 'CODE'
_TEXT	ENDS
;	COMDAT ?erase@?$basic_string@DU?$char_traits@D@std@@V?$allocator@D@2@@std@@QAEAAV12@II@Z
_TEXT	SEGMENT PARA USE32 PUBLIC 'CODE'
_TEXT	ENDS
;	COMDAT ?move@?$char_traits@D@std@@SAPADPADPBDI@Z
_TEXT	SEGMENT PARA USE32 PUBLIC 'CODE'
_TEXT	ENDS
;	COMDAT ?_Grow@?$basic_string@DU?$char_traits@D@std@@V?$allocator@D@2@@std@@IAE_NI_N@Z
_TEXT	SEGMENT PARA USE32 PUBLIC 'CODE'
_TEXT	ENDS
;	COMDAT ?max_size@?$basic_string@DU?$char_traits@D@std@@V?$allocator@D@2@@std@@QBEIXZ
_TEXT	SEGMENT PARA USE32 PUBLIC 'CODE'
_TEXT	ENDS
;	COMDAT ?max_size@?$allocator@D@std@@QBEIXZ
_TEXT	SEGMENT PARA USE32 PUBLIC 'CODE'
_TEXT	ENDS
;	COMDAT ?_Copy@?$basic_string@DU?$char_traits@D@std@@V?$allocator@D@2@@std@@IAEXII@Z
_TEXT	SEGMENT PARA USE32 PUBLIC 'CODE'
_TEXT	ENDS
;	COMDAT ?allocate@?$allocator@D@std@@QAEPADI@Z
_TEXT	SEGMENT PARA USE32 PUBLIC 'CODE'
_TEXT	ENDS
;	COMDAT ??$_Allocate@D@std@@YAPADIPAD@Z
_TEXT	SEGMENT PARA USE32 PUBLIC 'CODE'
_TEXT	ENDS
;	COMDAT ?_Tidy@?$basic_string@DU?$char_traits@D@std@@V?$allocator@D@2@@std@@IAEX_NI@Z
_TEXT	SEGMENT PARA USE32 PUBLIC 'CODE'
_TEXT	ENDS
;	COMDAT ?deallocate@?$allocator@D@std@@QAEXPADI@Z
_TEXT	SEGMENT PARA USE32 PUBLIC 'CODE'
_TEXT	ENDS
;	COMDAT ?copy@?$char_traits@D@std@@SAPADPADPBDI@Z
_TEXT	SEGMENT PARA USE32 PUBLIC 'CODE'
_TEXT	ENDS
;	COMDAT ?_Myptr@?$basic_string@DU?$char_traits@D@std@@V?$allocator@D@2@@std@@QAEPADXZ
_TEXT	SEGMENT PARA USE32 PUBLIC 'CODE'
_TEXT	ENDS
;	COMDAT ?_Eos@?$basic_string@DU?$char_traits@D@std@@V?$allocator@D@2@@std@@IAEXI@Z
_TEXT	SEGMENT PARA USE32 PUBLIC 'CODE'
_TEXT	ENDS
;	COMDAT ?assign@?$char_traits@D@std@@SAXAADABD@Z
_TEXT	SEGMENT PARA USE32 PUBLIC 'CODE'
_TEXT	ENDS
;	COMDAT ?npos@?$basic_string@DU?$char_traits@D@std@@V?$allocator@D@2@@std@@2IB
CONST	SEGMENT DWORD USE32 PUBLIC 'CONST'
CONST	ENDS
;	COMDAT ??_7?$CFixedArray@UtagWORLD@@@@6B@
CONST	SEGMENT DWORD USE32 PUBLIC 'CONST'
CONST	ENDS
;	COMDAT ?_Ptr_cat@std@@YA?AU_Scalar_ptr_iterator_tag@1@PAJ0@Z
_TEXT	SEGMENT PARA USE32 PUBLIC 'CODE'
_TEXT	ENDS
;	COMDAT ??9const_iterator@?$_Tree@V?$_Tmap_traits@KEU?$less@K@std@@V?$allocator@U?$pair@$$CBKE@std@@@2@$0A@@std@@@std@@QBE_NABV012@@Z
_TEXT	SEGMENT PARA USE32 PUBLIC 'CODE'
_TEXT	ENDS
;	COMDAT ??8const_iterator@?$_Tree@V?$_Tmap_traits@KEU?$less@K@std@@V?$allocator@U?$pair@$$CBKE@std@@@2@$0A@@std@@@std@@QBE_NABV012@@Z
_TEXT	SEGMENT PARA USE32 PUBLIC 'CODE'
_TEXT	ENDS
;	COMDAT ??Eiterator@?$_Tree@V?$_Tmap_traits@KEU?$less@K@std@@V?$allocator@U?$pair@$$CBKE@std@@@2@$0A@@std@@@std@@QAEAAV012@XZ
_TEXT	SEGMENT PARA USE32 PUBLIC 'CODE'
_TEXT	ENDS
;	COMDAT ??Econst_iterator@?$_Tree@V?$_Tmap_traits@KEU?$less@K@std@@V?$allocator@U?$pair@$$CBKE@std@@@2@$0A@@std@@@std@@QAEAAV012@XZ
_TEXT	SEGMENT PARA USE32 PUBLIC 'CODE'
_TEXT	ENDS
;	COMDAT ?_Inc@const_iterator@?$_Tree@V?$_Tmap_traits@KEU?$less@K@std@@V?$allocator@U?$pair@$$CBKE@std@@@2@$0A@@std@@@std@@QAEXXZ
_TEXT	SEGMENT PARA USE32 PUBLIC 'CODE'
_TEXT	ENDS
;	COMDAT ?_Min@?$_Tree@V?$_Tmap_traits@KEU?$less@K@std@@V?$allocator@U?$pair@$$CBKE@std@@@2@$0A@@std@@@std@@KAPAU_Node@?$_Tree_nod@V?$_Tmap_traits@KEU?$less@K@std@@V?$allocator@U?$pair@$$CBKE@std@@@2@$0A@@std@@@2@PAU342@@Z
_TEXT	SEGMENT PARA USE32 PUBLIC 'CODE'
_TEXT	ENDS
;	COMDAT ?_Left@?$_Tree@V?$_Tmap_traits@KEU?$less@K@std@@V?$allocator@U?$pair@$$CBKE@std@@@2@$0A@@std@@@std@@KAAAPAU_Node@?$_Tree_nod@V?$_Tmap_traits@KEU?$less@K@std@@V?$allocator@U?$pair@$$CBKE@std@@@2@$0A@@std@@@2@PAU342@@Z
_TEXT	SEGMENT PARA USE32 PUBLIC 'CODE'
_TEXT	ENDS
;	COMDAT ?_Isnil@?$_Tree@V?$_Tmap_traits@KEU?$less@K@std@@V?$allocator@U?$pair@$$CBKE@std@@@2@$0A@@std@@@std@@KAAADPAU_Node@?$_Tree_nod@V?$_Tmap_traits@KEU?$less@K@std@@V?$allocator@U?$pair@$$CBKE@std@@@2@$0A@@std@@@2@@Z
_TEXT	SEGMENT PARA USE32 PUBLIC 'CODE'
_TEXT	ENDS
;	COMDAT ?_Parent@?$_Tree@V?$_Tmap_traits@KEU?$less@K@std@@V?$allocator@U?$pair@$$CBKE@std@@@2@$0A@@std@@@std@@KAAAPAU_Node@?$_Tree_nod@V?$_Tmap_traits@KEU?$less@K@std@@V?$allocator@U?$pair@$$CBKE@std@@@2@$0A@@std@@@2@PAU342@@Z
_TEXT	SEGMENT PARA USE32 PUBLIC 'CODE'
_TEXT	ENDS
;	COMDAT ?_Right@?$_Tree@V?$_Tmap_traits@KEU?$less@K@std@@V?$allocator@U?$pair@$$CBKE@std@@@2@$0A@@std@@@std@@KAAAPAU_Node@?$_Tree_nod@V?$_Tmap_traits@KEU?$less@K@std@@V?$allocator@U?$pair@$$CBKE@std@@@2@$0A@@std@@@2@PAU342@@Z
_TEXT	SEGMENT PARA USE32 PUBLIC 'CODE'
_TEXT	ENDS
;	COMDAT ??9const_iterator@?$_Tree@V?$_Tmap_traits@KPAVCCtrl@@U?$less@K@std@@V?$allocator@U?$pair@$$CBKPAVCCtrl@@@std@@@3@$0A@@std@@@std@@QBE_NABV012@@Z
_TEXT	SEGMENT PARA USE32 PUBLIC 'CODE'
_TEXT	ENDS
;	COMDAT ??9const_iterator@?$_Tree@V?$_Tmap_traits@KPAVCUser@@U?$less@K@std@@V?$allocator@U?$pair@$$CBKPAVCUser@@@std@@@3@$0A@@std@@@std@@QBE_NABV012@@Z
_TEXT	SEGMENT PARA USE32 PUBLIC 'CODE'
_TEXT	ENDS
;	COMDAT ??8const_iterator@?$_Tree@V?$_Tmap_traits@KPAVCUser@@U?$less@K@std@@V?$allocator@U?$pair@$$CBKPAVCUser@@@std@@@3@$0A@@std@@@std@@QBE_NABV012@@Z
_TEXT	SEGMENT PARA USE32 PUBLIC 'CODE'
_TEXT	ENDS
;	COMDAT ??Eiterator@?$_Tree@V?$_Tmap_traits@KPAVCUser@@U?$less@K@std@@V?$allocator@U?$pair@$$CBKPAVCUser@@@std@@@3@$0A@@std@@@std@@QAEAAV012@XZ
_TEXT	SEGMENT PARA USE32 PUBLIC 'CODE'
_TEXT	ENDS
;	COMDAT ??Econst_iterator@?$_Tree@V?$_Tmap_traits@KPAVCUser@@U?$less@K@std@@V?$allocator@U?$pair@$$CBKPAVCUser@@@std@@@3@$0A@@std@@@std@@QAEAAV012@XZ
_TEXT	SEGMENT PARA USE32 PUBLIC 'CODE'
_TEXT	ENDS
;	COMDAT ?_Inc@const_iterator@?$_Tree@V?$_Tmap_traits@KPAVCUser@@U?$less@K@std@@V?$allocator@U?$pair@$$CBKPAVCUser@@@std@@@3@$0A@@std@@@std@@QAEXXZ
_TEXT	SEGMENT PARA USE32 PUBLIC 'CODE'
_TEXT	ENDS
;	COMDAT ?_Min@?$_Tree@V?$_Tmap_traits@KPAVCUser@@U?$less@K@std@@V?$allocator@U?$pair@$$CBKPAVCUser@@@std@@@3@$0A@@std@@@std@@KAPAU_Node@?$_Tree_nod@V?$_Tmap_traits@KPAVCUser@@U?$less@K@std@@V?$allocator@U?$pair@$$CBKPAVCUser@@@std@@@3@$0A@@std@@@2@PAU342@@Z
_TEXT	SEGMENT PARA USE32 PUBLIC 'CODE'
_TEXT	ENDS
;	COMDAT ?_Left@?$_Tree@V?$_Tmap_traits@KPAVCUser@@U?$less@K@std@@V?$allocator@U?$pair@$$CBKPAVCUser@@@std@@@3@$0A@@std@@@std@@KAAAPAU_Node@?$_Tree_nod@V?$_Tmap_traits@KPAVCUser@@U?$less@K@std@@V?$allocator@U?$pair@$$CBKPAVCUser@@@std@@@3@$0A@@std@@@2@PAU342@@Z
_TEXT	SEGMENT PARA USE32 PUBLIC 'CODE'
_TEXT	ENDS
;	COMDAT ?_Isnil@?$_Tree@V?$_Tmap_traits@KPAVCUser@@U?$less@K@std@@V?$allocator@U?$pair@$$CBKPAVCUser@@@std@@@3@$0A@@std@@@std@@KAAADPAU_Node@?$_Tree_nod@V?$_Tmap_traits@KPAVCUser@@U?$less@K@std@@V?$allocator@U?$pair@$$CBKPAVCUser@@@std@@@3@$0A@@std@@@2@@Z
_TEXT	SEGMENT PARA USE32 PUBLIC 'CODE'
_TEXT	ENDS
;	COMDAT ?_Parent@?$_Tree@V?$_Tmap_traits@KPAVCUser@@U?$less@K@std@@V?$allocator@U?$pair@$$CBKPAVCUser@@@std@@@3@$0A@@std@@@std@@KAAAPAU_Node@?$_Tree_nod@V?$_Tmap_traits@KPAVCUser@@U?$less@K@std@@V?$allocator@U?$pair@$$CBKPAVCUser@@@std@@@3@$0A@@std@@@2@PAU342@@Z
_TEXT	SEGMENT PARA USE32 PUBLIC 'CODE'
_TEXT	ENDS
;	COMDAT ?_Right@?$_Tree@V?$_Tmap_traits@KPAVCUser@@U?$less@K@std@@V?$allocator@U?$pair@$$CBKPAVCUser@@@std@@@3@$0A@@std@@@std@@KAAAPAU_Node@?$_Tree_nod@V?$_Tmap_traits@KPAVCUser@@U?$less@K@std@@V?$allocator@U?$pair@$$CBKPAVCUser@@@std@@@3@$0A@@std@@@2@PAU342@@Z
_TEXT	SEGMENT PARA USE32 PUBLIC 'CODE'
_TEXT	ENDS
;	COMDAT ?_Psave@?$_Facetptr@V?$ctype@G@std@@@std@@2PBVfacet@locale@2@B
_DATA	SEGMENT DWORD USE32 PUBLIC 'DATA'
_DATA	ENDS
;	COMDAT ?_Psave@?$_Facetptr@V?$ctype@D@std@@@std@@2PBVfacet@locale@2@B
_DATA	SEGMENT DWORD USE32 PUBLIC 'DATA'
_DATA	ENDS
;	COMDAT ?CopyChars@?$CSimpleStringT@D$0A@@ATL@@SAXPADPBDH@Z
_TEXT	SEGMENT PARA USE32 PUBLIC 'CODE'
_TEXT	ENDS
;	COMDAT ?GetLength@?$CSimpleStringT@D$0A@@ATL@@QBEHXZ
_TEXT	SEGMENT PARA USE32 PUBLIC 'CODE'
_TEXT	ENDS
;	COMDAT ?GetData@?$CSimpleStringT@D$0A@@ATL@@ABEPAUCStringData@2@XZ
_TEXT	SEGMENT PARA USE32 PUBLIC 'CODE'
_TEXT	ENDS
;	COMDAT ?GetString@?$CSimpleStringT@D$0A@@ATL@@QBEPBDXZ
_TEXT	SEGMENT PARA USE32 PUBLIC 'CODE'
_TEXT	ENDS
;	COMDAT ??3@YAXPAX0@Z
_TEXT	SEGMENT PARA USE32 PUBLIC 'CODE'
_TEXT	ENDS
;	COMDAT ??2@YAPAXIPAX@Z
_TEXT	SEGMENT PARA USE32 PUBLIC 'CODE'
_TEXT	ENDS
;	COMDAT ??0?$basic_string@DU?$char_traits@D@std@@V?$allocator@D@2@@std@@QAE@ABV01@@Z
_TEXT	SEGMENT PARA USE32 PUBLIC 'CODE'
_TEXT	ENDS
;	COMDAT ??0?$_String_val@DV?$allocator@D@std@@@std@@IAE@V?$allocator@D@1@@Z
_TEXT	SEGMENT PARA USE32 PUBLIC 'CODE'
_TEXT	ENDS
;	COMDAT ??0?$allocator@D@std@@QAE@ABV01@@Z
_TEXT	SEGMENT PARA USE32 PUBLIC 'CODE'
_TEXT	ENDS
;	COMDAT ??_C@_0BD@OLBABOEK@vector?$DMT?$DO?5too?5long?$AA@
CONST	SEGMENT DWORD USE32 PUBLIC 'CONST'
CONST	ENDS
;	COMDAT ??$swap@D@std@@YAXAAD0@Z
_TEXT	SEGMENT PARA USE32 PUBLIC 'CODE'
_TEXT	ENDS
;	COMDAT __TI3?AVout_of_range@std@@
xdata$x	SEGMENT DWORD USE32 PUBLIC 'CONST'
xdata$x	ENDS
;	COMDAT ??1out_of_range@std@@UAE@XZ
_TEXT	SEGMENT PARA USE32 PUBLIC 'CODE'
_TEXT	ENDS
;	COMDAT ??_7out_of_range@std@@6B@
CONST	SEGMENT DWORD USE32 PUBLIC 'CONST'
CONST	ENDS
;	COMDAT ??_Gout_of_range@std@@UAEPAXI@Z
_TEXT	SEGMENT PARA USE32 PUBLIC 'CODE'
_TEXT	ENDS
;	COMDAT ?what@logic_error@std@@UBEPBDXZ
_TEXT	SEGMENT PARA USE32 PUBLIC 'CODE'
_TEXT	ENDS
;	COMDAT ??1logic_error@std@@UAE@XZ
_TEXT	SEGMENT PARA USE32 PUBLIC 'CODE'
_TEXT	ENDS
;	COMDAT ??_7logic_error@std@@6B@
CONST	SEGMENT DWORD USE32 PUBLIC 'CONST'
CONST	ENDS
;	COMDAT ??_Glogic_error@std@@UAEPAXI@Z
_TEXT	SEGMENT PARA USE32 PUBLIC 'CODE'
_TEXT	ENDS
;	COMDAT __CTA3?AVout_of_range@std@@
xdata$x	SEGMENT DWORD USE32 PUBLIC 'CONST'
xdata$x	ENDS
;	COMDAT __CT??_R0?AVout_of_range@std@@@8??0out_of_range@std@@QAE@ABV01@@Z40
xdata$x	SEGMENT DWORD USE32 PUBLIC 'CONST'
xdata$x	ENDS
;	COMDAT ??_R0?AVout_of_range@std@@@8
_DATA	SEGMENT DWORD USE32 PUBLIC 'DATA'
_DATA	ENDS
;	COMDAT ??0out_of_range@std@@QAE@ABV01@@Z
_TEXT	SEGMENT PARA USE32 PUBLIC 'CODE'
_TEXT	ENDS
;	COMDAT ??0logic_error@std@@QAE@ABV01@@Z
_TEXT	SEGMENT PARA USE32 PUBLIC 'CODE'
_TEXT	ENDS
;	COMDAT __CT??_R0?AVlogic_error@std@@@8??0logic_error@std@@QAE@ABV01@@Z40
xdata$x	SEGMENT DWORD USE32 PUBLIC 'CONST'
xdata$x	ENDS
;	COMDAT ??_R0?AVlogic_error@std@@@8
_DATA	SEGMENT DWORD USE32 PUBLIC 'DATA'
_DATA	ENDS
;	COMDAT __CT??_R0?AVexception@@@8??0exception@@QAE@ABV0@@Z12
xdata$x	SEGMENT DWORD USE32 PUBLIC 'CONST'
xdata$x	ENDS
;	COMDAT ??_R0?AVexception@@@8
_DATA	SEGMENT DWORD USE32 PUBLIC 'DATA'
_DATA	ENDS
;	COMDAT ??_C@_0BM@PAPJHAGI@invalid?5map?1set?$DMT?$DO?5iterator?$AA@
CONST	SEGMENT DWORD USE32 PUBLIC 'CONST'
CONST	ENDS
;	COMDAT ??0out_of_range@std@@QAE@ABV?$basic_string@DU?$char_traits@D@std@@V?$allocator@D@2@@1@@Z
_TEXT	SEGMENT PARA USE32 PUBLIC 'CODE'
_TEXT	ENDS
;	COMDAT ??0logic_error@std@@QAE@ABV?$basic_string@DU?$char_traits@D@std@@V?$allocator@D@2@@1@@Z
_TEXT	SEGMENT PARA USE32 PUBLIC 'CODE'
_TEXT	ENDS
;	COMDAT ?StringLength@?$CSimpleStringT@D$0A@@ATL@@SAHPBD@Z
_TEXT	SEGMENT PARA USE32 PUBLIC 'CODE'
_TEXT	ENDS
;	COMDAT __TI3?AVlength_error@std@@
xdata$x	SEGMENT DWORD USE32 PUBLIC 'CONST'
xdata$x	ENDS
;	COMDAT ??1length_error@std@@UAE@XZ
_TEXT	SEGMENT PARA USE32 PUBLIC 'CODE'
_TEXT	ENDS
;	COMDAT ??_7length_error@std@@6B@
CONST	SEGMENT DWORD USE32 PUBLIC 'CONST'
CONST	ENDS
;	COMDAT ??_Glength_error@std@@UAEPAXI@Z
_TEXT	SEGMENT PARA USE32 PUBLIC 'CODE'
_TEXT	ENDS
;	COMDAT __CTA3?AVlength_error@std@@
xdata$x	SEGMENT DWORD USE32 PUBLIC 'CONST'
xdata$x	ENDS
;	COMDAT __CT??_R0?AVlength_error@std@@@8??0length_error@std@@QAE@ABV01@@Z40
xdata$x	SEGMENT DWORD USE32 PUBLIC 'CONST'
xdata$x	ENDS
;	COMDAT ??_R0?AVlength_error@std@@@8
_DATA	SEGMENT DWORD USE32 PUBLIC 'DATA'
_DATA	ENDS
;	COMDAT ??0length_error@std@@QAE@ABV01@@Z
_TEXT	SEGMENT PARA USE32 PUBLIC 'CODE'
_TEXT	ENDS
;	COMDAT ??_C@_0BE@JONHPENG@map?1set?$DMT?$DO?5too?5long?$AA@
CONST	SEGMENT DWORD USE32 PUBLIC 'CONST'
CONST	ENDS
;	COMDAT ??0length_error@std@@QAE@ABV?$basic_string@DU?$char_traits@D@std@@V?$allocator@D@2@@1@@Z
_TEXT	SEGMENT PARA USE32 PUBLIC 'CODE'
_TEXT	ENDS
;	COMDAT ?insert@?$_Tree@V?$_Tmap_traits@KPAVCCtrl@@U?$less@K@std@@V?$allocator@U?$pair@$$CBKPAVCCtrl@@@std@@@3@$0A@@std@@@std@@QAE?AU?$pair@Viterator@?$_Tree@V?$_Tmap_traits@KPAVCCtrl@@U?$less@K@std@@V?$allocator@U?$pair@$$CBKPAVCCtrl@@@std@@@3@$0A@@std@@@std@@_N@2@ABU?$pair@$$CBKPAVCCtrl@@@2@@Z
_TEXT	SEGMENT PARA USE32 PUBLIC 'CODE'
_TEXT	ENDS
;	COMDAT ?_Root@?$_Tree@V?$_Tmap_traits@KPAVCCtrl@@U?$less@K@std@@V?$allocator@U?$pair@$$CBKPAVCCtrl@@@std@@@3@$0A@@std@@@std@@IAEAAPAU_Node@?$_Tree_nod@V?$_Tmap_traits@KPAVCCtrl@@U?$less@K@std@@V?$allocator@U?$pair@$$CBKPAVCCtrl@@@std@@@3@$0A@@std@@@2@XZ
_TEXT	SEGMENT PARA USE32 PUBLIC 'CODE'
_TEXT	ENDS
;	COMDAT ?_Parent@?$_Tree@V?$_Tmap_traits@KPAVCCtrl@@U?$less@K@std@@V?$allocator@U?$pair@$$CBKPAVCCtrl@@@std@@@3@$0A@@std@@@std@@KAAAPAU_Node@?$_Tree_nod@V?$_Tmap_traits@KPAVCCtrl@@U?$less@K@std@@V?$allocator@U?$pair@$$CBKPAVCCtrl@@@std@@@3@$0A@@std@@@2@PAU342@@Z
_TEXT	SEGMENT PARA USE32 PUBLIC 'CODE'
_TEXT	ENDS
;	COMDAT ?_Left@?$_Tree@V?$_Tmap_traits@KPAVCCtrl@@U?$less@K@std@@V?$allocator@U?$pair@$$CBKPAVCCtrl@@@std@@@3@$0A@@std@@@std@@KAAAPAU_Node@?$_Tree_nod@V?$_Tmap_traits@KPAVCCtrl@@U?$less@K@std@@V?$allocator@U?$pair@$$CBKPAVCCtrl@@@std@@@3@$0A@@std@@@2@PAU342@@Z
_TEXT	SEGMENT PARA USE32 PUBLIC 'CODE'
_TEXT	ENDS
;	COMDAT ??0iterator@?$_Tree@V?$_Tmap_traits@KPAVCCtrl@@U?$less@K@std@@V?$allocator@U?$pair@$$CBKPAVCCtrl@@@std@@@3@$0A@@std@@@std@@QAE@PAU_Node@?$_Tree_nod@V?$_Tmap_traits@KPAVCCtrl@@U?$less@K@std@@V?$allocator@U?$pair@$$CBKPAVCCtrl@@@std@@@3@$0A@@std@@@2@@Z
_TEXT	SEGMENT PARA USE32 PUBLIC 'CODE'
_TEXT	ENDS
;	COMDAT ??0const_iterator@?$_Tree@V?$_Tmap_traits@KPAVCCtrl@@U?$less@K@std@@V?$allocator@U?$pair@$$CBKPAVCCtrl@@@std@@@3@$0A@@std@@@std@@QAE@PAU_Node@?$_Tree_nod@V?$_Tmap_traits@KPAVCCtrl@@U?$less@K@std@@V?$allocator@U?$pair@$$CBKPAVCCtrl@@@std@@@3@$0A@@std@@@2@@Z
_TEXT	SEGMENT PARA USE32 PUBLIC 'CODE'
_TEXT	ENDS
;	COMDAT ??0?$pair@Viterator@?$_Tree@V?$_Tmap_traits@KPAVCCtrl@@U?$less@K@std@@V?$allocator@U?$pair@$$CBKPAVCCtrl@@@std@@@3@$0A@@std@@@std@@_N@std@@QAE@ABViterator@?$_Tree@V?$_Tmap_traits@KPAVCCtrl@@U?$less@K@std@@V?$allocator@U?$pair@$$CBKPAVCCtrl@@@std@@@3@$0A@@std@@@1@AB_N@Z
_TEXT	SEGMENT PARA USE32 PUBLIC 'CODE'
_TEXT	ENDS
;	COMDAT ??Eiterator@?$_Tree@V?$_Tmap_traits@KPAVCCtrl@@U?$less@K@std@@V?$allocator@U?$pair@$$CBKPAVCCtrl@@@std@@@3@$0A@@std@@@std@@QAEAAV012@XZ
_TEXT	SEGMENT PARA USE32 PUBLIC 'CODE'
_TEXT	ENDS
;	COMDAT ??Econst_iterator@?$_Tree@V?$_Tmap_traits@KPAVCCtrl@@U?$less@K@std@@V?$allocator@U?$pair@$$CBKPAVCCtrl@@@std@@@3@$0A@@std@@@std@@QAEAAV012@XZ
_TEXT	SEGMENT PARA USE32 PUBLIC 'CODE'
_TEXT	ENDS
;	COMDAT ?_Inc@const_iterator@?$_Tree@V?$_Tmap_traits@KPAVCCtrl@@U?$less@K@std@@V?$allocator@U?$pair@$$CBKPAVCCtrl@@@std@@@3@$0A@@std@@@std@@QAEXXZ
_TEXT	SEGMENT PARA USE32 PUBLIC 'CODE'
_TEXT	ENDS
;	COMDAT ?_Min@?$_Tree@V?$_Tmap_traits@KPAVCCtrl@@U?$less@K@std@@V?$allocator@U?$pair@$$CBKPAVCCtrl@@@std@@@3@$0A@@std@@@std@@KAPAU_Node@?$_Tree_nod@V?$_Tmap_traits@KPAVCCtrl@@U?$less@K@std@@V?$allocator@U?$pair@$$CBKPAVCCtrl@@@std@@@3@$0A@@std@@@2@PAU342@@Z
_TEXT	SEGMENT PARA USE32 PUBLIC 'CODE'
_TEXT	ENDS
;	COMDAT ?_Right@?$_Tree@V?$_Tmap_traits@KPAVCCtrl@@U?$less@K@std@@V?$allocator@U?$pair@$$CBKPAVCCtrl@@@std@@@3@$0A@@std@@@std@@KAAAPAU_Node@?$_Tree_nod@V?$_Tmap_traits@KPAVCCtrl@@U?$less@K@std@@V?$allocator@U?$pair@$$CBKPAVCCtrl@@@std@@@3@$0A@@std@@@2@PAU342@@Z
_TEXT	SEGMENT PARA USE32 PUBLIC 'CODE'
_TEXT	ENDS
;	COMDAT ?_Isnil@?$_Tree@V?$_Tmap_traits@KPAVCCtrl@@U?$less@K@std@@V?$allocator@U?$pair@$$CBKPAVCCtrl@@@std@@@3@$0A@@std@@@std@@KAAADPAU_Node@?$_Tree_nod@V?$_Tmap_traits@KPAVCCtrl@@U?$less@K@std@@V?$allocator@U?$pair@$$CBKPAVCCtrl@@@std@@@3@$0A@@std@@@2@@Z
_TEXT	SEGMENT PARA USE32 PUBLIC 'CODE'
_TEXT	ENDS
;	COMDAT ??Fiterator@?$_Tree@V?$_Tmap_traits@KPAVCCtrl@@U?$less@K@std@@V?$allocator@U?$pair@$$CBKPAVCCtrl@@@std@@@3@$0A@@std@@@std@@QAEAAV012@XZ
_TEXT	SEGMENT PARA USE32 PUBLIC 'CODE'
_TEXT	ENDS
;	COMDAT ??Fconst_iterator@?$_Tree@V?$_Tmap_traits@KPAVCCtrl@@U?$less@K@std@@V?$allocator@U?$pair@$$CBKPAVCCtrl@@@std@@@3@$0A@@std@@@std@@QAEAAV012@XZ
_TEXT	SEGMENT PARA USE32 PUBLIC 'CODE'
_TEXT	ENDS
;	COMDAT ?_Dec@const_iterator@?$_Tree@V?$_Tmap_traits@KPAVCCtrl@@U?$less@K@std@@V?$allocator@U?$pair@$$CBKPAVCCtrl@@@std@@@3@$0A@@std@@@std@@QAEXXZ
_TEXT	SEGMENT PARA USE32 PUBLIC 'CODE'
_TEXT	ENDS
;	COMDAT ?_Max@?$_Tree@V?$_Tmap_traits@KPAVCCtrl@@U?$less@K@std@@V?$allocator@U?$pair@$$CBKPAVCCtrl@@@std@@@3@$0A@@std@@@std@@KAPAU_Node@?$_Tree_nod@V?$_Tmap_traits@KPAVCCtrl@@U?$less@K@std@@V?$allocator@U?$pair@$$CBKPAVCCtrl@@@std@@@3@$0A@@std@@@2@PAU342@@Z
_TEXT	SEGMENT PARA USE32 PUBLIC 'CODE'
_TEXT	ENDS
;	COMDAT ?_Rmost@?$_Tree@V?$_Tmap_traits@KPAVCCtrl@@U?$less@K@std@@V?$allocator@U?$pair@$$CBKPAVCCtrl@@@std@@@3@$0A@@std@@@std@@IAEAAPAU_Node@?$_Tree_nod@V?$_Tmap_traits@KPAVCCtrl@@U?$less@K@std@@V?$allocator@U?$pair@$$CBKPAVCCtrl@@@std@@@3@$0A@@std@@@2@XZ
_TEXT	SEGMENT PARA USE32 PUBLIC 'CODE'
_TEXT	ENDS
;	COMDAT ?_Kfn@?$_Tmap_traits@KPAVCCtrl@@U?$less@K@std@@V?$allocator@U?$pair@$$CBKPAVCCtrl@@@std@@@3@$0A@@std@@SAABKABU?$pair@$$CBKPAVCCtrl@@@2@@Z
_TEXT	SEGMENT PARA USE32 PUBLIC 'CODE'
_TEXT	ENDS
;	COMDAT ?begin@?$_Tree@V?$_Tmap_traits@KPAVCCtrl@@U?$less@K@std@@V?$allocator@U?$pair@$$CBKPAVCCtrl@@@std@@@3@$0A@@std@@@std@@QAE?AViterator@12@XZ
_TEXT	SEGMENT PARA USE32 PUBLIC 'CODE'
_TEXT	ENDS
;	COMDAT ?_Lmost@?$_Tree@V?$_Tmap_traits@KPAVCCtrl@@U?$less@K@std@@V?$allocator@U?$pair@$$CBKPAVCCtrl@@@std@@@3@$0A@@std@@@std@@IAEAAPAU_Node@?$_Tree_nod@V?$_Tmap_traits@KPAVCCtrl@@U?$less@K@std@@V?$allocator@U?$pair@$$CBKPAVCCtrl@@@std@@@3@$0A@@std@@@2@XZ
_TEXT	SEGMENT PARA USE32 PUBLIC 'CODE'
_TEXT	ENDS
;	COMDAT ?_Insert@?$_Tree@V?$_Tmap_traits@KPAVCCtrl@@U?$less@K@std@@V?$allocator@U?$pair@$$CBKPAVCCtrl@@@std@@@3@$0A@@std@@@std@@IAE?AViterator@12@_NPAU_Node@?$_Tree_nod@V?$_Tmap_traits@KPAVCCtrl@@U?$less@K@std@@V?$allocator@U?$pair@$$CBKPAVCCtrl@@@std@@@3@$0A@@std@@@2@ABU?$pair@$$CBKPAVCCtrl@@@2@@Z
_TEXT	SEGMENT PARA USE32 PUBLIC 'CODE'
_TEXT	ENDS
;	COMDAT ?max_size@?$_Tree@V?$_Tmap_traits@KPAVCCtrl@@U?$less@K@std@@V?$allocator@U?$pair@$$CBKPAVCCtrl@@@std@@@3@$0A@@std@@@std@@QBEIXZ
_TEXT	SEGMENT PARA USE32 PUBLIC 'CODE'
_TEXT	ENDS
;	COMDAT ?max_size@?$allocator@U?$pair@$$CBKPAVCCtrl@@@std@@@std@@QBEIXZ
_TEXT	SEGMENT PARA USE32 PUBLIC 'CODE'
_TEXT	ENDS
;	COMDAT ?_Buynode@?$_Tree@V?$_Tmap_traits@KPAVCCtrl@@U?$less@K@std@@V?$allocator@U?$pair@$$CBKPAVCCtrl@@@std@@@3@$0A@@std@@@std@@IAEPAU_Node@?$_Tree_nod@V?$_Tmap_traits@KPAVCCtrl@@U?$less@K@std@@V?$allocator@U?$pair@$$CBKPAVCCtrl@@@std@@@3@$0A@@std@@@2@PAU342@00ABU?$pair@$$CBKPAVCCtrl@@@2@D@Z
_TEXT	SEGMENT PARA USE32 PUBLIC 'CODE'
_TEXT	ENDS
;	COMDAT ?allocate@?$allocator@U_Node@?$_Tree_nod@V?$_Tmap_traits@KPAVCCtrl@@U?$less@K@std@@V?$allocator@U?$pair@$$CBKPAVCCtrl@@@std@@@3@$0A@@std@@@std@@@std@@QAEPAU_Node@?$_Tree_nod@V?$_Tmap_traits@KPAVCCtrl@@U?$less@K@std@@V?$allocator@U?$pair@$$CBKPAVCCtrl@@@std@@@3@$0A@@std@@@2@I@Z
_TEXT	SEGMENT PARA USE32 PUBLIC 'CODE'
_TEXT	ENDS
;	COMDAT ??$_Allocate@U_Node@?$_Tree_nod@V?$_Tmap_traits@KPAVCCtrl@@U?$less@K@std@@V?$allocator@U?$pair@$$CBKPAVCCtrl@@@std@@@3@$0A@@std@@@std@@@std@@YAPAU_Node@?$_Tree_nod@V?$_Tmap_traits@KPAVCCtrl@@U?$less@K@std@@V?$allocator@U?$pair@$$CBKPAVCCtrl@@@std@@@3@$0A@@std@@@0@IPAU120@@Z
_TEXT	SEGMENT PARA USE32 PUBLIC 'CODE'
_TEXT	ENDS
;	COMDAT ??0_Node@?$_Tree_nod@V?$_Tmap_traits@KPAVCCtrl@@U?$less@K@std@@V?$allocator@U?$pair@$$CBKPAVCCtrl@@@std@@@3@$0A@@std@@@std@@QAE@PAU012@00ABU?$pair@$$CBKPAVCCtrl@@@2@D@Z
_TEXT	SEGMENT PARA USE32 PUBLIC 'CODE'
_TEXT	ENDS
;	COMDAT ?deallocate@?$allocator@U_Node@?$_Tree_nod@V?$_Tmap_traits@KPAVCCtrl@@U?$less@K@std@@V?$allocator@U?$pair@$$CBKPAVCCtrl@@@std@@@3@$0A@@std@@@std@@@std@@QAEXPAU_Node@?$_Tree_nod@V?$_Tmap_traits@KPAVCCtrl@@U?$less@K@std@@V?$allocator@U?$pair@$$CBKPAVCCtrl@@@std@@@3@$0A@@std@@@2@I@Z
_TEXT	SEGMENT PARA USE32 PUBLIC 'CODE'
_TEXT	ENDS
;	COMDAT ?_Rrotate@?$_Tree@V?$_Tmap_traits@KPAVCCtrl@@U?$less@K@std@@V?$allocator@U?$pair@$$CBKPAVCCtrl@@@std@@@3@$0A@@std@@@std@@IAEXPAU_Node@?$_Tree_nod@V?$_Tmap_traits@KPAVCCtrl@@U?$less@K@std@@V?$allocator@U?$pair@$$CBKPAVCCtrl@@@std@@@3@$0A@@std@@@2@@Z
_TEXT	SEGMENT PARA USE32 PUBLIC 'CODE'
_TEXT	ENDS
;	COMDAT ?_Lrotate@?$_Tree@V?$_Tmap_traits@KPAVCCtrl@@U?$less@K@std@@V?$allocator@U?$pair@$$CBKPAVCCtrl@@@std@@@3@$0A@@std@@@std@@IAEXPAU_Node@?$_Tree_nod@V?$_Tmap_traits@KPAVCCtrl@@U?$less@K@std@@V?$allocator@U?$pair@$$CBKPAVCCtrl@@@std@@@3@$0A@@std@@@2@@Z
_TEXT	SEGMENT PARA USE32 PUBLIC 'CODE'
_TEXT	ENDS
;	COMDAT ?_Color@?$_Tree@V?$_Tmap_traits@KPAVCCtrl@@U?$less@K@std@@V?$allocator@U?$pair@$$CBKPAVCCtrl@@@std@@@3@$0A@@std@@@std@@KAAADPAU_Node@?$_Tree_nod@V?$_Tmap_traits@KPAVCCtrl@@U?$less@K@std@@V?$allocator@U?$pair@$$CBKPAVCCtrl@@@std@@@3@$0A@@std@@@2@@Z
_TEXT	SEGMENT PARA USE32 PUBLIC 'CODE'
_TEXT	ENDS
;	COMDAT ?compare@?$char_traits@D@std@@SAHPBD0I@Z
_TEXT	SEGMENT PARA USE32 PUBLIC 'CODE'
_TEXT	ENDS
;	COMDAT ?ReleaseBufferSetLength@?$CSimpleStringT@D$0A@@ATL@@QAEXH@Z
_TEXT	SEGMENT PARA USE32 PUBLIC 'CODE'
_TEXT	ENDS
;	COMDAT ?SetLength@?$CSimpleStringT@D$0A@@ATL@@AAEXH@Z
_TEXT	SEGMENT PARA USE32 PUBLIC 'CODE'
_TEXT	ENDS
;	COMDAT ?Format@?$ChTraitsCRT@D@ATL@@SAHPADPBD0@Z
_TEXT	SEGMENT PARA USE32 PUBLIC 'CODE'
_TEXT	ENDS
;	COMDAT ?GetBuffer@?$CSimpleStringT@D$0A@@ATL@@QAEPADH@Z
_TEXT	SEGMENT PARA USE32 PUBLIC 'CODE'
_TEXT	ENDS
;	COMDAT ?PrepareWrite@?$CSimpleStringT@D$0A@@ATL@@AAEPADH@Z
_TEXT	SEGMENT PARA USE32 PUBLIC 'CODE'
_TEXT	ENDS
;	COMDAT ?PrepareWrite2@?$CSimpleStringT@D$0A@@ATL@@AAEXH@Z
_TEXT	SEGMENT PARA USE32 PUBLIC 'CODE'
_TEXT	ENDS
;	COMDAT ?IsShared@CStringData@ATL@@QBE_NXZ
_TEXT	SEGMENT PARA USE32 PUBLIC 'CODE'
_TEXT	ENDS
;	COMDAT ?Fork@?$CSimpleStringT@D$0A@@ATL@@AAEXH@Z
_TEXT	SEGMENT PARA USE32 PUBLIC 'CODE'
_TEXT	ENDS
;	COMDAT ?ThrowMemoryException@?$CSimpleStringT@D$0A@@ATL@@KAXXZ
_TEXT	SEGMENT PARA USE32 PUBLIC 'CODE'
_TEXT	ENDS
;	COMDAT ?data@CStringData@ATL@@QAEPAXXZ
_TEXT	SEGMENT PARA USE32 PUBLIC 'CODE'
_TEXT	ENDS
;	COMDAT ?Release@CStringData@ATL@@QAEXXZ
_TEXT	SEGMENT PARA USE32 PUBLIC 'CODE'
_TEXT	ENDS
;	COMDAT ?Attach@?$CSimpleStringT@D$0A@@ATL@@AAEXPAUCStringData@2@@Z
_TEXT	SEGMENT PARA USE32 PUBLIC 'CODE'
_TEXT	ENDS
;	COMDAT ?Reallocate@?$CSimpleStringT@D$0A@@ATL@@AAEXH@Z
_TEXT	SEGMENT PARA USE32 PUBLIC 'CODE'
_TEXT	ENDS
;	COMDAT ?GetFormattedLength@?$ChTraitsCRT@D@ATL@@SAHPBDPAD@Z
_TEXT	SEGMENT PARA USE32 PUBLIC 'CODE'
_TEXT	ENDS
;	COMDAT ?AtlThrow@ATL@@YGXJ@Z
_TEXT	SEGMENT PARA USE32 PUBLIC 'CODE'
_TEXT	ENDS
;	COMDAT ??Diterator@?$_Tree@V?$_Tmap_traits@KPAVCCtrl@@U?$less@K@std@@V?$allocator@U?$pair@$$CBKPAVCCtrl@@@std@@@3@$0A@@std@@@std@@QBEAAU?$pair@$$CBKPAVCCtrl@@@2@XZ
_TEXT	SEGMENT PARA USE32 PUBLIC 'CODE'
_TEXT	ENDS
;	COMDAT ??Dconst_iterator@?$_Tree@V?$_Tmap_traits@KPAVCCtrl@@U?$less@K@std@@V?$allocator@U?$pair@$$CBKPAVCCtrl@@@std@@@3@$0A@@std@@@std@@QBEABU?$pair@$$CBKPAVCCtrl@@@2@XZ
_TEXT	SEGMENT PARA USE32 PUBLIC 'CODE'
_TEXT	ENDS
;	COMDAT ?_Myval@?$_Tree@V?$_Tmap_traits@KPAVCCtrl@@U?$less@K@std@@V?$allocator@U?$pair@$$CBKPAVCCtrl@@@std@@@3@$0A@@std@@@std@@KAAAU?$pair@$$CBKPAVCCtrl@@@2@PAU_Node@?$_Tree_nod@V?$_Tmap_traits@KPAVCCtrl@@U?$less@K@std@@V?$allocator@U?$pair@$$CBKPAVCCtrl@@@std@@@3@$0A@@std@@@2@@Z
_TEXT	SEGMENT PARA USE32 PUBLIC 'CODE'
_TEXT	ENDS
;	COMDAT ?_Mynode@const_iterator@?$_Tree@V?$_Tmap_traits@KPAVCCtrl@@U?$less@K@std@@V?$allocator@U?$pair@$$CBKPAVCCtrl@@@std@@@3@$0A@@std@@@std@@QBEPAU_Node@?$_Tree_nod@V?$_Tmap_traits@KPAVCCtrl@@U?$less@K@std@@V?$allocator@U?$pair@$$CBKPAVCCtrl@@@std@@@3@$0A@@std@@@3@XZ
_TEXT	SEGMENT PARA USE32 PUBLIC 'CODE'
_TEXT	ENDS
;	COMDAT ?_Key@?$_Tree@V?$_Tmap_traits@KPAVCCtrl@@U?$less@K@std@@V?$allocator@U?$pair@$$CBKPAVCCtrl@@@std@@@3@$0A@@std@@@std@@KAABKPAU_Node@?$_Tree_nod@V?$_Tmap_traits@KPAVCCtrl@@U?$less@K@std@@V?$allocator@U?$pair@$$CBKPAVCCtrl@@@std@@@3@$0A@@std@@@2@@Z
_TEXT	SEGMENT PARA USE32 PUBLIC 'CODE'
_TEXT	ENDS
;	COMDAT ??R?$less@K@std@@QBE_NABK0@Z
_TEXT	SEGMENT PARA USE32 PUBLIC 'CODE'
_TEXT	ENDS
;	COMDAT ?end@?$_Tree@V?$_Tmap_traits@KPAVCCtrl@@U?$less@K@std@@V?$allocator@U?$pair@$$CBKPAVCCtrl@@@std@@@3@$0A@@std@@@std@@QAE?AViterator@12@XZ
_TEXT	SEGMENT PARA USE32 PUBLIC 'CODE'
_TEXT	ENDS
;	COMDAT ??8const_iterator@?$_Tree@V?$_Tmap_traits@KPAVCCtrl@@U?$less@K@std@@V?$allocator@U?$pair@$$CBKPAVCCtrl@@@std@@@3@$0A@@std@@@std@@QBE_NABV012@@Z
_TEXT	SEGMENT PARA USE32 PUBLIC 'CODE'
_TEXT	ENDS
;	COMDAT ?lower_bound@?$_Tree@V?$_Tmap_traits@KPAVCCtrl@@U?$less@K@std@@V?$allocator@U?$pair@$$CBKPAVCCtrl@@@std@@@3@$0A@@std@@@std@@QAE?AViterator@12@ABK@Z
_TEXT	SEGMENT PARA USE32 PUBLIC 'CODE'
_TEXT	ENDS
;	COMDAT ?_Lbound@?$_Tree@V?$_Tmap_traits@KPAVCCtrl@@U?$less@K@std@@V?$allocator@U?$pair@$$CBKPAVCCtrl@@@std@@@3@$0A@@std@@@std@@IBEPAU_Node@?$_Tree_nod@V?$_Tmap_traits@KPAVCCtrl@@U?$less@K@std@@V?$allocator@U?$pair@$$CBKPAVCCtrl@@@std@@@3@$0A@@std@@@2@ABK@Z
_TEXT	SEGMENT PARA USE32 PUBLIC 'CODE'
_TEXT	ENDS
;	COMDAT ?_Root@?$_Tree@V?$_Tmap_traits@KPAVCCtrl@@U?$less@K@std@@V?$allocator@U?$pair@$$CBKPAVCCtrl@@@std@@@3@$0A@@std@@@std@@IBEAAPAU_Node@?$_Tree_nod@V?$_Tmap_traits@KPAVCCtrl@@U?$less@K@std@@V?$allocator@U?$pair@$$CBKPAVCCtrl@@@std@@@3@$0A@@std@@@2@XZ
_TEXT	SEGMENT PARA USE32 PUBLIC 'CODE'
_TEXT	ENDS
;	COMDAT ?_Myptr@?$basic_string@DU?$char_traits@D@std@@V?$allocator@D@2@@std@@QBEPBDXZ
_TEXT	SEGMENT PARA USE32 PUBLIC 'CODE'
_TEXT	ENDS
;	COMDAT ?size@?$basic_string@DU?$char_traits@D@std@@V?$allocator@D@2@@std@@QBEIXZ
_TEXT	SEGMENT PARA USE32 PUBLIC 'CODE'
_TEXT	ENDS
;	COMDAT ?sPartyQuestProcessor@?1??GetInstance@CPartyQuestProcessor@@SAPAV2@XZ@4V2@A
_BSS	SEGMENT DWORD USE32 PUBLIC 'BSS'
_BSS	ENDS
;	COMDAT ?$S1@?1??GetInstance@CPartyQuestProcessor@@SAPAV2@XZ@4IA
_BSS	SEGMENT DWORD USE32 PUBLIC 'BSS'
_BSS	ENDS
;	COMDAT ??B?$CSimpleStringT@D$0A@@ATL@@QBEPBDXZ
_TEXT	SEGMENT PARA USE32 PUBLIC 'CODE'
_TEXT	ENDS
;	COMDAT ?GetYear@CTime@ATL@@QBEHXZ
_TEXT	SEGMENT PARA USE32 PUBLIC 'CODE'
_TEXT	ENDS
;	COMDAT ?GetLocalTm@CTime@ATL@@QBEPAUtm@@PAU3@@Z
_TEXT	SEGMENT PARA USE32 PUBLIC 'CODE'
_TEXT	ENDS
;	COMDAT ?GetMonth@CTime@ATL@@QBEHXZ
_TEXT	SEGMENT PARA USE32 PUBLIC 'CODE'
_TEXT	ENDS
;	COMDAT ?GetDay@CTime@ATL@@QBEHXZ
_TEXT	SEGMENT PARA USE32 PUBLIC 'CODE'
_TEXT	ENDS
;	COMDAT ?GetHour@CTime@ATL@@QBEHXZ
_TEXT	SEGMENT PARA USE32 PUBLIC 'CODE'
_TEXT	ENDS
;	COMDAT ?GetMinute@CTime@ATL@@QBEHXZ
_TEXT	SEGMENT PARA USE32 PUBLIC 'CODE'
_TEXT	ENDS
;	COMDAT ?GetSecond@CTime@ATL@@QBEHXZ
_TEXT	SEGMENT PARA USE32 PUBLIC 'CODE'
_TEXT	ENDS
;	COMDAT ??0?$CStringT@DV?$StrTraitMFC@DV?$ChTraitsCRT@D@ATL@@@@@ATL@@QAE@XZ
_TEXT	SEGMENT PARA USE32 PUBLIC 'CODE'
_TEXT	ENDS
;	COMDAT ??0?$CSimpleStringT@D$0A@@ATL@@QAE@PAUIAtlStringMgr@1@@Z
_TEXT	SEGMENT PARA USE32 PUBLIC 'CODE'
_TEXT	ENDS
;	COMDAT ?GetDefaultManager@?$StrTraitMFC@DV?$ChTraitsCRT@D@ATL@@@@SAPAUIAtlStringMgr@ATL@@XZ
_TEXT	SEGMENT PARA USE32 PUBLIC 'CODE'
_TEXT	ENDS
;	COMDAT ??1?$CSimpleStringT@D$0A@@ATL@@QAE@XZ
_TEXT	SEGMENT PARA USE32 PUBLIC 'CODE'
_TEXT	ENDS
;	COMDAT ??1?$CStringT@DV?$StrTraitMFC@DV?$ChTraitsCRT@D@ATL@@@@@ATL@@QAE@XZ
_TEXT	SEGMENT PARA USE32 PUBLIC 'CODE'
_TEXT	ENDS
;	COMDAT ??0?$CStringT@DV?$StrTraitMFC@DV?$ChTraitsCRT@D@ATL@@@@@ATL@@QAE@PBD@Z
_TEXT	SEGMENT PARA USE32 PUBLIC 'CODE'
_TEXT	ENDS
;	COMDAT ?CheckImplicitLoad@?$CStringT@DV?$StrTraitMFC@DV?$ChTraitsCRT@D@ATL@@@@@ATL@@AAE_NPBX@Z
_TEXT	SEGMENT PARA USE32 PUBLIC 'CODE'
_TEXT	ENDS
;	COMDAT ?LoadStringA@?$CStringT@DV?$StrTraitMFC@DV?$ChTraitsCRT@D@ATL@@@@@ATL@@QAEHI@Z
_TEXT	SEGMENT PARA USE32 PUBLIC 'CODE'
_TEXT	ENDS
;	COMDAT ?FindStringResourceInstance@?$StrTraitMFC@DV?$ChTraitsCRT@D@ATL@@@@SAPAUHINSTANCE__@@I@Z
_TEXT	SEGMENT PARA USE32 PUBLIC 'CODE'
_TEXT	ENDS
;	COMDAT ?LoadStringA@?$CStringT@DV?$StrTraitMFC@DV?$ChTraitsCRT@D@ATL@@@@@ATL@@QAEHPAUHINSTANCE__@@I@Z
_TEXT	SEGMENT PARA USE32 PUBLIC 'CODE'
_TEXT	ENDS
;	COMDAT ?AtlGetStringResourceImage@ATL@@YAPBUATLSTRINGRESOURCEIMAGE@1@PAUHINSTANCE__@@I@Z
_TEXT	SEGMENT PARA USE32 PUBLIC 'CODE'
_TEXT	ENDS
;	COMDAT ?_AtlGetStringResourceImage@ATL@@YAPBUATLSTRINGRESOURCEIMAGE@1@PAUHINSTANCE__@@PAUHRSRC__@@I@Z
_TEXT	SEGMENT PARA USE32 PUBLIC 'CODE'
_TEXT	ENDS
;	COMDAT ?GetBaseTypeLength@?$ChTraitsCRT@D@ATL@@SAHPBGH@Z
_TEXT	SEGMENT PARA USE32 PUBLIC 'CODE'
_TEXT	ENDS
;	COMDAT ?_AtlGetConversionACP@ATL@@YGIXZ
_TEXT	SEGMENT PARA USE32 PUBLIC 'CODE'
_TEXT	ENDS
;	COMDAT ?g_pfnGetThreadACP@ATL@@3P6GIXZA
_DATA	SEGMENT DWORD USE32 PUBLIC 'DATA'
_DATA	ENDS
;	COMDAT ?_AtlGetThreadACPThunk@ATL@@YGIXZ
_TEXT	SEGMENT PARA USE32 PUBLIC 'CODE'
_TEXT	ENDS
;	COMDAT ?_AtlGetThreadACPReal@ATL@@YGIXZ
_TEXT	SEGMENT PARA USE32 PUBLIC 'CODE'
_TEXT	ENDS
;	COMDAT ?_AtlGetThreadACPFake@ATL@@YGIXZ
_TEXT	SEGMENT PARA USE32 PUBLIC 'CODE'
_TEXT	ENDS
;	COMDAT ?InterlockedExchangePointer@@YGPAXPAPAXPAX@Z
_TEXT	SEGMENT PARA USE32 PUBLIC 'CODE'
_TEXT	ENDS
;	COMDAT ?ConvertToBaseType@?$ChTraitsCRT@D@ATL@@SAXPADHPBGH@Z
_TEXT	SEGMENT PARA USE32 PUBLIC 'CODE'
_TEXT	ENDS
;	COMDAT ??4?$CStringT@DV?$StrTraitMFC@DV?$ChTraitsCRT@D@ATL@@@@@ATL@@QAEAAV01@PBD@Z
_TEXT	SEGMENT PARA USE32 PUBLIC 'CODE'
_TEXT	ENDS
;	COMDAT ??4?$CSimpleStringT@D$0A@@ATL@@QAEAAV01@PBD@Z
_TEXT	SEGMENT PARA USE32 PUBLIC 'CODE'
_TEXT	ENDS
;	COMDAT ?SetString@?$CSimpleStringT@D$0A@@ATL@@QAEXPBD@Z
_TEXT	SEGMENT PARA USE32 PUBLIC 'CODE'
_TEXT	ENDS
;	COMDAT ?SetString@?$CSimpleStringT@D$0A@@ATL@@QAEXPBDH@Z
_TEXT	SEGMENT PARA USE32 PUBLIC 'CODE'
_TEXT	ENDS
;	COMDAT ?Empty@?$CSimpleStringT@D$0A@@ATL@@QAEXXZ
_TEXT	SEGMENT PARA USE32 PUBLIC 'CODE'
_TEXT	ENDS
;	COMDAT ?IsLocked@CStringData@ATL@@QBE_NXZ
_TEXT	SEGMENT PARA USE32 PUBLIC 'CODE'
_TEXT	ENDS
;	COMDAT ?CopyCharsOverlapped@?$CSimpleStringT@D$0A@@ATL@@SAXPADPBDH@Z
_TEXT	SEGMENT PARA USE32 PUBLIC 'CODE'
_TEXT	ENDS
;	COMDAT ??_C@_00CNPNBAHC@?$AA@
CONST	SEGMENT DWORD USE32 PUBLIC 'CONST'
CONST	ENDS
;	COMDAT ?GetNextNode@CObj@@QAEPAV1@XZ
_TEXT	SEGMENT PARA USE32 PUBLIC 'CODE'
_TEXT	ENDS
;	COMDAT ?IsPeaceful@CMover@@QAEHXZ
_TEXT	SEGMENT PARA USE32 PUBLIC 'CODE'
_TEXT	ENDS
;	COMDAT ?GetType@CObj@@QAEKXZ
_TEXT	SEGMENT PARA USE32 PUBLIC 'CODE'
_TEXT	ENDS
;	COMDAT ?IsLive@CMover@@QAEHXZ
_TEXT	SEGMENT PARA USE32 PUBLIC 'CODE'
_TEXT	ENDS
;	COMDAT ?IsDie@CAction@@QAEHXZ
_TEXT	SEGMENT PARA USE32 PUBLIC 'CODE'
_TEXT	ENDS
;	COMDAT ?PtInRect@CRect@@QBEHUtagPOINT@@@Z
_TEXT	SEGMENT PARA USE32 PUBLIC 'CODE'
_TEXT	ENDS
;	COMDAT ?GetPos@CObj@@QAE?AUD3DXVECTOR3@@XZ
_TEXT	SEGMENT PARA USE32 PUBLIC 'CODE'
_TEXT	ENDS
;	COMDAT ?IsValidObj@@YAHPAVCObj@@@Z
_TEXT	SEGMENT PARA USE32 PUBLIC 'CODE'
_TEXT	ENDS
;	COMDAT ?IsDelete@CObj@@QAEHXZ
_TEXT	SEGMENT PARA USE32 PUBLIC 'CODE'
_TEXT	ENDS
;	COMDAT ?GetUserByID@CProject@@QAEPAVCMover@@K@Z
_TEXT	SEGMENT PARA USE32 PUBLIC 'CODE'
_TEXT	ENDS
;	COMDAT ?find@?$_Tree@V?$_Tmap_traits@KPAVCMover@@U?$less@K@std@@V?$allocator@U?$pair@$$CBKPAVCMover@@@std@@@3@$0A@@std@@@std@@QAE?AViterator@12@ABK@Z
_TEXT	SEGMENT PARA USE32 PUBLIC 'CODE'
_TEXT	ENDS
;	COMDAT ?lower_bound@?$_Tree@V?$_Tmap_traits@KPAVCMover@@U?$less@K@std@@V?$allocator@U?$pair@$$CBKPAVCMover@@@std@@@3@$0A@@std@@@std@@QAE?AViterator@12@ABK@Z
_TEXT	SEGMENT PARA USE32 PUBLIC 'CODE'
_TEXT	ENDS
;	COMDAT ??0iterator@?$_Tree@V?$_Tmap_traits@KPAVCMover@@U?$less@K@std@@V?$allocator@U?$pair@$$CBKPAVCMover@@@std@@@3@$0A@@std@@@std@@QAE@PAU_Node@?$_Tree_nod@V?$_Tmap_traits@KPAVCMover@@U?$less@K@std@@V?$allocator@U?$pair@$$CBKPAVCMover@@@std@@@3@$0A@@std@@@2@@Z
_TEXT	SEGMENT PARA USE32 PUBLIC 'CODE'
_TEXT	ENDS
;	COMDAT ??0const_iterator@?$_Tree@V?$_Tmap_traits@KPAVCMover@@U?$less@K@std@@V?$allocator@U?$pair@$$CBKPAVCMover@@@std@@@3@$0A@@std@@@std@@QAE@PAU_Node@?$_Tree_nod@V?$_Tmap_traits@KPAVCMover@@U?$less@K@std@@V?$allocator@U?$pair@$$CBKPAVCMover@@@std@@@3@$0A@@std@@@2@@Z
_TEXT	SEGMENT PARA USE32 PUBLIC 'CODE'
_TEXT	ENDS
;	COMDAT ?_Lbound@?$_Tree@V?$_Tmap_traits@KPAVCMover@@U?$less@K@std@@V?$allocator@U?$pair@$$CBKPAVCMover@@@std@@@3@$0A@@std@@@std@@IBEPAU_Node@?$_Tree_nod@V?$_Tmap_traits@KPAVCMover@@U?$less@K@std@@V?$allocator@U?$pair@$$CBKPAVCMover@@@std@@@3@$0A@@std@@@2@ABK@Z
_TEXT	SEGMENT PARA USE32 PUBLIC 'CODE'
_TEXT	ENDS
;	COMDAT ?_Root@?$_Tree@V?$_Tmap_traits@KPAVCMover@@U?$less@K@std@@V?$allocator@U?$pair@$$CBKPAVCMover@@@std@@@3@$0A@@std@@@std@@IBEAAPAU_Node@?$_Tree_nod@V?$_Tmap_traits@KPAVCMover@@U?$less@K@std@@V?$allocator@U?$pair@$$CBKPAVCMover@@@std@@@3@$0A@@std@@@2@XZ
_TEXT	SEGMENT PARA USE32 PUBLIC 'CODE'
_TEXT	ENDS
;	COMDAT ?_Parent@?$_Tree@V?$_Tmap_traits@KPAVCMover@@U?$less@K@std@@V?$allocator@U?$pair@$$CBKPAVCMover@@@std@@@3@$0A@@std@@@std@@KAAAPAU_Node@?$_Tree_nod@V?$_Tmap_traits@KPAVCMover@@U?$less@K@std@@V?$allocator@U?$pair@$$CBKPAVCMover@@@std@@@3@$0A@@std@@@2@PAU342@@Z
_TEXT	SEGMENT PARA USE32 PUBLIC 'CODE'
_TEXT	ENDS
;	COMDAT ?_Isnil@?$_Tree@V?$_Tmap_traits@KPAVCMover@@U?$less@K@std@@V?$allocator@U?$pair@$$CBKPAVCMover@@@std@@@3@$0A@@std@@@std@@KAAADPAU_Node@?$_Tree_nod@V?$_Tmap_traits@KPAVCMover@@U?$less@K@std@@V?$allocator@U?$pair@$$CBKPAVCMover@@@std@@@3@$0A@@std@@@2@@Z
_TEXT	SEGMENT PARA USE32 PUBLIC 'CODE'
_TEXT	ENDS
;	COMDAT ?_Right@?$_Tree@V?$_Tmap_traits@KPAVCMover@@U?$less@K@std@@V?$allocator@U?$pair@$$CBKPAVCMover@@@std@@@3@$0A@@std@@@std@@KAAAPAU_Node@?$_Tree_nod@V?$_Tmap_traits@KPAVCMover@@U?$less@K@std@@V?$allocator@U?$pair@$$CBKPAVCMover@@@std@@@3@$0A@@std@@@2@PAU342@@Z
_TEXT	SEGMENT PARA USE32 PUBLIC 'CODE'
_TEXT	ENDS
;	COMDAT ?_Left@?$_Tree@V?$_Tmap_traits@KPAVCMover@@U?$less@K@std@@V?$allocator@U?$pair@$$CBKPAVCMover@@@std@@@3@$0A@@std@@@std@@KAAAPAU_Node@?$_Tree_nod@V?$_Tmap_traits@KPAVCMover@@U?$less@K@std@@V?$allocator@U?$pair@$$CBKPAVCMover@@@std@@@3@$0A@@std@@@2@PAU342@@Z
_TEXT	SEGMENT PARA USE32 PUBLIC 'CODE'
_TEXT	ENDS
;	COMDAT ??8const_iterator@?$_Tree@V?$_Tmap_traits@KPAVCMover@@U?$less@K@std@@V?$allocator@U?$pair@$$CBKPAVCMover@@@std@@@3@$0A@@std@@@std@@QBE_NABV012@@Z
_TEXT	SEGMENT PARA USE32 PUBLIC 'CODE'
_TEXT	ENDS
;	COMDAT ?_Key@?$_Tree@V?$_Tmap_traits@KPAVCMover@@U?$less@K@std@@V?$allocator@U?$pair@$$CBKPAVCMover@@@std@@@3@$0A@@std@@@std@@KAABKPAU_Node@?$_Tree_nod@V?$_Tmap_traits@KPAVCMover@@U?$less@K@std@@V?$allocator@U?$pair@$$CBKPAVCMover@@@std@@@3@$0A@@std@@@2@@Z
_TEXT	SEGMENT PARA USE32 PUBLIC 'CODE'
_TEXT	ENDS
;	COMDAT ?_Kfn@?$_Tmap_traits@KPAVCMover@@U?$less@K@std@@V?$allocator@U?$pair@$$CBKPAVCMover@@@std@@@3@$0A@@std@@SAABKABU?$pair@$$CBKPAVCMover@@@2@@Z
_TEXT	SEGMENT PARA USE32 PUBLIC 'CODE'
_TEXT	ENDS
;	COMDAT ?_Myval@?$_Tree@V?$_Tmap_traits@KPAVCMover@@U?$less@K@std@@V?$allocator@U?$pair@$$CBKPAVCMover@@@std@@@3@$0A@@std@@@std@@KAAAU?$pair@$$CBKPAVCMover@@@2@PAU_Node@?$_Tree_nod@V?$_Tmap_traits@KPAVCMover@@U?$less@K@std@@V?$allocator@U?$pair@$$CBKPAVCMover@@@std@@@3@$0A@@std@@@2@@Z
_TEXT	SEGMENT PARA USE32 PUBLIC 'CODE'
_TEXT	ENDS
;	COMDAT ?_Mynode@const_iterator@?$_Tree@V?$_Tmap_traits@KPAVCMover@@U?$less@K@std@@V?$allocator@U?$pair@$$CBKPAVCMover@@@std@@@3@$0A@@std@@@std@@QBEPAU_Node@?$_Tree_nod@V?$_Tmap_traits@KPAVCMover@@U?$less@K@std@@V?$allocator@U?$pair@$$CBKPAVCMover@@@std@@@3@$0A@@std@@@3@XZ
_TEXT	SEGMENT PARA USE32 PUBLIC 'CODE'
_TEXT	ENDS
;	COMDAT ??9const_iterator@?$_Tree@V?$_Tmap_traits@KPAVCMover@@U?$less@K@std@@V?$allocator@U?$pair@$$CBKPAVCMover@@@std@@@3@$0A@@std@@@std@@QBE_NABV012@@Z
_TEXT	SEGMENT PARA USE32 PUBLIC 'CODE'
_TEXT	ENDS
;	COMDAT ?end@?$_Tree@V?$_Tmap_traits@KPAVCMover@@U?$less@K@std@@V?$allocator@U?$pair@$$CBKPAVCMover@@@std@@@3@$0A@@std@@@std@@QAE?AViterator@12@XZ
_TEXT	SEGMENT PARA USE32 PUBLIC 'CODE'
_TEXT	ENDS
;	COMDAT ??Citerator@?$_Tree@V?$_Tmap_traits@KPAVCMover@@U?$less@K@std@@V?$allocator@U?$pair@$$CBKPAVCMover@@@std@@@3@$0A@@std@@@std@@QBEPAU?$pair@$$CBKPAVCMover@@@2@XZ
_TEXT	SEGMENT PARA USE32 PUBLIC 'CODE'
_TEXT	ENDS
;	COMDAT ??Diterator@?$_Tree@V?$_Tmap_traits@KPAVCMover@@U?$less@K@std@@V?$allocator@U?$pair@$$CBKPAVCMover@@@std@@@3@$0A@@std@@@std@@QBEAAU?$pair@$$CBKPAVCMover@@@2@XZ
_TEXT	SEGMENT PARA USE32 PUBLIC 'CODE'
_TEXT	ENDS
;	COMDAT ??Dconst_iterator@?$_Tree@V?$_Tmap_traits@KPAVCMover@@U?$less@K@std@@V?$allocator@U?$pair@$$CBKPAVCMover@@@std@@@3@$0A@@std@@@std@@QBEABU?$pair@$$CBKPAVCMover@@@2@XZ
_TEXT	SEGMENT PARA USE32 PUBLIC 'CODE'
_TEXT	ENDS
;	COMDAT ?CenterPoint@CRect@@QBE?AVCPoint@@XZ
_TEXT	SEGMENT PARA USE32 PUBLIC 'CODE'
_TEXT	ENDS
;	COMDAT ??0CPoint@@QAE@HH@Z
_TEXT	SEGMENT PARA USE32 PUBLIC 'CODE'
_TEXT	ENDS
;	COMDAT ??0CPoint@@QAE@XZ
_TEXT	SEGMENT PARA USE32 PUBLIC 'CODE'
_TEXT	ENDS
;	COMDAT ?SetRect@CRect@@QAEXHHHH@Z
_TEXT	SEGMENT PARA USE32 PUBLIC 'CODE'
_TEXT	ENDS
;	COMDAT ??0CRect@@QAE@XZ
_TEXT	SEGMENT PARA USE32 PUBLIC 'CODE'
_TEXT	ENDS
;	COMDAT ??0_PARTYQUESTELEM@@QAE@XZ
_TEXT	SEGMENT PARA USE32 PUBLIC 'CODE'
_TEXT	ENDS
;	COMDAT ??0_PARTYQUEST@@QAE@XZ
_TEXT	SEGMENT PARA USE32 PUBLIC 'CODE'
_TEXT	ENDS
;	COMDAT ??_H@YGXPAXIHP6EPAX0@Z@Z
_TEXT	SEGMENT PARA USE32 PUBLIC 'CODE'
_TEXT	ENDS
;	COMDAT ??_7CMapChildE@@6B@
CONST	SEGMENT DWORD USE32 PUBLIC 'CONST'
CONST	ENDS
;	COMDAT ?Leave@CMclCritSec@@QAEXXZ
_TEXT	SEGMENT PARA USE32 PUBLIC 'CODE'
_TEXT	ENDS
;	COMDAT ?Enter@CMclCritSec@@QAEXXZ
_TEXT	SEGMENT PARA USE32 PUBLIC 'CODE'
_TEXT	ENDS
;	COMDAT ??1CMclCritSec@@UAE@XZ
_TEXT	SEGMENT PARA USE32 PUBLIC 'CODE'
_TEXT	ENDS
;	COMDAT ??_7CMclCritSec@@6B@
CONST	SEGMENT DWORD USE32 PUBLIC 'CONST'
CONST	ENDS
;	COMDAT ??_GCMclCritSec@@UAEPAXI@Z
_TEXT	SEGMENT PARA USE32 PUBLIC 'CODE'
_TEXT	ENDS
;	COMDAT ??0CMclCritSec@@QAE@XZ
_TEXT	SEGMENT PARA USE32 PUBLIC 'CODE'
_TEXT	ENDS
;	COMDAT ??_7CMapChild@@6B@
CONST	SEGMENT DWORD USE32 PUBLIC 'CONST'
CONST	ENDS
;	COMDAT ??1CMclAutoLock@@QAE@XZ
_TEXT	SEGMENT PARA USE32 PUBLIC 'CODE'
_TEXT	ENDS
;	COMDAT ??0CMclAutoLock@@QAE@AAVCMclCritSec@@@Z
_TEXT	SEGMENT PARA USE32 PUBLIC 'CODE'
_TEXT	ENDS
;	COMDAT ??_7CBuffer2@@6B@
CONST	SEGMENT DWORD USE32 PUBLIC 'CONST'
CONST	ENDS
;	COMDAT ?erase@?$_Tree@V?$_Tmap_traits@KPAVCCtrl@@U?$less@K@std@@V?$allocator@U?$pair@$$CBKPAVCCtrl@@@std@@@3@$0A@@std@@@std@@QAEIABK@Z
_TEXT	SEGMENT PARA USE32 PUBLIC 'CODE'
_TEXT	ENDS
;	COMDAT ?equal_range@?$_Tree@V?$_Tmap_traits@KPAVCCtrl@@U?$less@K@std@@V?$allocator@U?$pair@$$CBKPAVCCtrl@@@std@@@3@$0A@@std@@@std@@QAE?AU?$pair@Viterator@?$_Tree@V?$_Tmap_traits@KPAVCCtrl@@U?$less@K@std@@V?$allocator@U?$pair@$$CBKPAVCCtrl@@@std@@@3@$0A@@std@@@std@@V123@@2@ABK@Z
_TEXT	SEGMENT PARA USE32 PUBLIC 'CODE'
_TEXT	ENDS
;	COMDAT ??0?$pair@Viterator@?$_Tree@V?$_Tmap_traits@KPAVCCtrl@@U?$less@K@std@@V?$allocator@U?$pair@$$CBKPAVCCtrl@@@std@@@3@$0A@@std@@@std@@V123@@std@@QAE@ABViterator@?$_Tree@V?$_Tmap_traits@KPAVCCtrl@@U?$less@K@std@@V?$allocator@U?$pair@$$CBKPAVCCtrl@@@std@@@3@$0A@@std@@@1@0@Z
_TEXT	SEGMENT PARA USE32 PUBLIC 'CODE'
_TEXT	ENDS
;	COMDAT ?upper_bound@?$_Tree@V?$_Tmap_traits@KPAVCCtrl@@U?$less@K@std@@V?$allocator@U?$pair@$$CBKPAVCCtrl@@@std@@@3@$0A@@std@@@std@@QAE?AViterator@12@ABK@Z
_TEXT	SEGMENT PARA USE32 PUBLIC 'CODE'
_TEXT	ENDS
;	COMDAT ?_Ubound@?$_Tree@V?$_Tmap_traits@KPAVCCtrl@@U?$less@K@std@@V?$allocator@U?$pair@$$CBKPAVCCtrl@@@std@@@3@$0A@@std@@@std@@IBEPAU_Node@?$_Tree_nod@V?$_Tmap_traits@KPAVCCtrl@@U?$less@K@std@@V?$allocator@U?$pair@$$CBKPAVCCtrl@@@std@@@3@$0A@@std@@@2@ABK@Z
_TEXT	SEGMENT PARA USE32 PUBLIC 'CODE'
_TEXT	ENDS
;	COMDAT ??$_Distance@Viterator@?$_Tree@V?$_Tmap_traits@KPAVCCtrl@@U?$less@K@std@@V?$allocator@U?$pair@$$CBKPAVCCtrl@@@std@@@3@$0A@@std@@@std@@I@std@@YAXViterator@?$_Tree@V?$_Tmap_traits@KPAVCCtrl@@U?$less@K@std@@V?$allocator@U?$pair@$$CBKPAVCCtrl@@@std@@@3@$0A@@std@@@0@0AAI@Z
_TEXT	SEGMENT PARA USE32 PUBLIC 'CODE'
_TEXT	ENDS
;	COMDAT ?erase@?$_Tree@V?$_Tmap_traits@KPAVCCtrl@@U?$less@K@std@@V?$allocator@U?$pair@$$CBKPAVCCtrl@@@std@@@3@$0A@@std@@@std@@QAE?AViterator@12@V312@0@Z
_TEXT	SEGMENT PARA USE32 PUBLIC 'CODE'
_TEXT	ENDS
;	COMDAT ?clear@?$_Tree@V?$_Tmap_traits@KPAVCCtrl@@U?$less@K@std@@V?$allocator@U?$pair@$$CBKPAVCCtrl@@@std@@@3@$0A@@std@@@std@@QAEXXZ
_TEXT	SEGMENT PARA USE32 PUBLIC 'CODE'
_TEXT	ENDS
;	COMDAT ?_Erase@?$_Tree@V?$_Tmap_traits@KPAVCCtrl@@U?$less@K@std@@V?$allocator@U?$pair@$$CBKPAVCCtrl@@@std@@@3@$0A@@std@@@std@@IAEXPAU_Node@?$_Tree_nod@V?$_Tmap_traits@KPAVCCtrl@@U?$less@K@std@@V?$allocator@U?$pair@$$CBKPAVCCtrl@@@std@@@3@$0A@@std@@@2@@Z
_TEXT	SEGMENT PARA USE32 PUBLIC 'CODE'
_TEXT	ENDS
;	COMDAT ?destroy@?$allocator@U_Node@?$_Tree_nod@V?$_Tmap_traits@KPAVCCtrl@@U?$less@K@std@@V?$allocator@U?$pair@$$CBKPAVCCtrl@@@std@@@3@$0A@@std@@@std@@@std@@QAEXPAU_Node@?$_Tree_nod@V?$_Tmap_traits@KPAVCCtrl@@U?$less@K@std@@V?$allocator@U?$pair@$$CBKPAVCCtrl@@@std@@@3@$0A@@std@@@2@@Z
_TEXT	SEGMENT PARA USE32 PUBLIC 'CODE'
_TEXT	ENDS
;	COMDAT ??$_Destroy@U_Node@?$_Tree_nod@V?$_Tmap_traits@KPAVCCtrl@@U?$less@K@std@@V?$allocator@U?$pair@$$CBKPAVCCtrl@@@std@@@3@$0A@@std@@@std@@@std@@YAXPAU_Node@?$_Tree_nod@V?$_Tmap_traits@KPAVCCtrl@@U?$less@K@std@@V?$allocator@U?$pair@$$CBKPAVCCtrl@@@std@@@3@$0A@@std@@@0@@Z
_TEXT	SEGMENT PARA USE32 PUBLIC 'CODE'
_TEXT	ENDS
;	COMDAT ?erase@?$_Tree@V?$_Tmap_traits@KPAVCCtrl@@U?$less@K@std@@V?$allocator@U?$pair@$$CBKPAVCCtrl@@@std@@@3@$0A@@std@@@std@@QAE?AViterator@12@V312@@Z
_TEXT	SEGMENT PARA USE32 PUBLIC 'CODE'
_TEXT	ENDS
;	COMDAT ??Eiterator@?$_Tree@V?$_Tmap_traits@KPAVCCtrl@@U?$less@K@std@@V?$allocator@U?$pair@$$CBKPAVCCtrl@@@std@@@3@$0A@@std@@@std@@QAE?AV012@H@Z
_TEXT	SEGMENT PARA USE32 PUBLIC 'CODE'
_TEXT	ENDS
;	COMDAT ??5@YAAAVCAr@@AAV0@AAUD3DXVECTOR3@@@Z
_TEXT	SEGMENT PARA USE32 PUBLIC 'CODE'
_TEXT	ENDS
;	COMDAT ??5CAr@@QAEAAV0@AAM@Z
_TEXT	SEGMENT PARA USE32 PUBLIC 'CODE'
_TEXT	ENDS
;	COMDAT ??5CAr@@QAEAAV0@AAJ@Z
_TEXT	SEGMENT PARA USE32 PUBLIC 'CODE'
_TEXT	ENDS
;	COMDAT ?time_null@@YAJXZ
_TEXT	SEGMENT PARA USE32 PUBLIC 'CODE'
_TEXT	ENDS
;	COMDAT ??6CAr@@QAEAAV0@J@Z
_TEXT	SEGMENT PARA USE32 PUBLIC 'CODE'
_TEXT	ENDS
;	COMDAT ??6@YAAAVCAr@@AAV0@UD3DXVECTOR3@@@Z
_TEXT	SEGMENT PARA USE32 PUBLIC 'CODE'
_TEXT	ENDS
;	COMDAT ??6CAr@@QAEAAV0@M@Z
_TEXT	SEGMENT PARA USE32 PUBLIC 'CODE'
_TEXT	ENDS
;	COMDAT ??1?$basic_string@DU?$char_traits@D@std@@V?$allocator@D@2@@std@@QAE@XZ
_TEXT	SEGMENT PARA USE32 PUBLIC 'CODE'
_TEXT	ENDS
;	COMDAT ??0?$basic_string@DU?$char_traits@D@std@@V?$allocator@D@2@@std@@QAE@PBD@Z
_TEXT	SEGMENT PARA USE32 PUBLIC 'CODE'
_TEXT	ENDS
;	COMDAT ??0?$allocator@D@std@@QAE@XZ
_TEXT	SEGMENT PARA USE32 PUBLIC 'CODE'
_TEXT	ENDS
;	COMDAT ?assign@?$basic_string@DU?$char_traits@D@std@@V?$allocator@D@2@@std@@QAEAAV12@PBD@Z
_TEXT	SEGMENT PARA USE32 PUBLIC 'CODE'
_TEXT	ENDS
;	COMDAT ?assign@?$basic_string@DU?$char_traits@D@std@@V?$allocator@D@2@@std@@QAEAAV12@PBDI@Z
_TEXT	SEGMENT PARA USE32 PUBLIC 'CODE'
_TEXT	ENDS
;	COMDAT ?_Inside@?$basic_string@DU?$char_traits@D@std@@V?$allocator@D@2@@std@@IAE_NPBD@Z
_TEXT	SEGMENT PARA USE32 PUBLIC 'CODE'
_TEXT	ENDS
;	COMDAT ?length@?$char_traits@D@std@@SAIPBD@Z
_TEXT	SEGMENT PARA USE32 PUBLIC 'CODE'
_TEXT	ENDS
;	COMDAT ?c_str@?$basic_string@DU?$char_traits@D@std@@V?$allocator@D@2@@std@@QBEPBDXZ
_TEXT	SEGMENT PARA USE32 PUBLIC 'CODE'
_TEXT	ENDS
;	COMDAT ??6CAr@@QAEAAV0@I@Z
_TEXT	SEGMENT PARA USE32 PUBLIC 'CODE'
_TEXT	ENDS
;	COMDAT ??_7__MINIGAME_EXT_PACKET@@6B@
CONST	SEGMENT DWORD USE32 PUBLIC 'CONST'
CONST	ENDS
;	COMDAT ??5CAr@@QAEAAV0@AAG@Z
_TEXT	SEGMENT PARA USE32 PUBLIC 'CODE'
_TEXT	ENDS
;	COMDAT ??5CAr@@QAEAAV0@AAH@Z
_TEXT	SEGMENT PARA USE32 PUBLIC 'CODE'
_TEXT	ENDS
;	COMDAT ??6CAr@@QAEAAV0@G@Z
_TEXT	SEGMENT PARA USE32 PUBLIC 'CODE'
_TEXT	ENDS
;	COMDAT ??6CAr@@QAEAAV0@H@Z
_TEXT	SEGMENT PARA USE32 PUBLIC 'CODE'
_TEXT	ENDS
;	COMDAT ??_7__MINIGAME_PACKET@@6B@
CONST	SEGMENT DWORD USE32 PUBLIC 'CONST'
CONST	ENDS
;	COMDAT ??1?$vector@KV?$allocator@K@std@@@std@@QAE@XZ
_TEXT	SEGMENT PARA USE32 PUBLIC 'CODE'
_TEXT	ENDS
;	COMDAT ?_Tidy@?$vector@KV?$allocator@K@std@@@std@@IAEXXZ
_TEXT	SEGMENT PARA USE32 PUBLIC 'CODE'
_TEXT	ENDS
;	COMDAT ?_Destroy@?$vector@KV?$allocator@K@std@@@std@@IAEXPAK0@Z
_TEXT	SEGMENT PARA USE32 PUBLIC 'CODE'
_TEXT	ENDS
;	COMDAT ??$_Destroy_range@KV?$allocator@K@std@@@std@@YAXPAK0AAV?$allocator@K@0@@Z
_TEXT	SEGMENT PARA USE32 PUBLIC 'CODE'
_TEXT	ENDS
;	COMDAT ?_Ptr_cat@std@@YA?AU_Scalar_ptr_iterator_tag@1@PAK0@Z
_TEXT	SEGMENT PARA USE32 PUBLIC 'CODE'
_TEXT	ENDS
;	COMDAT ?deallocate@?$allocator@K@std@@QAEXPAKI@Z
_TEXT	SEGMENT PARA USE32 PUBLIC 'CODE'
_TEXT	ENDS
;	COMDAT ??0?$vector@KV?$allocator@K@std@@@std@@QAE@XZ
_TEXT	SEGMENT PARA USE32 PUBLIC 'CODE'
_TEXT	ENDS
;	COMDAT ??0?$_Vector_val@KV?$allocator@K@std@@@std@@IAE@V?$allocator@K@1@@Z
_TEXT	SEGMENT PARA USE32 PUBLIC 'CODE'
_TEXT	ENDS
;	COMDAT ??0?$allocator@K@std@@QAE@ABV01@@Z
_TEXT	SEGMENT PARA USE32 PUBLIC 'CODE'
_TEXT	ENDS
;	COMDAT ??0?$allocator@K@std@@QAE@XZ
_TEXT	SEGMENT PARA USE32 PUBLIC 'CODE'
_TEXT	ENDS
;	COMDAT ?_Buy@?$vector@KV?$allocator@K@std@@@std@@IAE_NI@Z
_TEXT	SEGMENT PARA USE32 PUBLIC 'CODE'
_TEXT	ENDS
;	COMDAT ?max_size@?$vector@KV?$allocator@K@std@@@std@@QBEIXZ
_TEXT	SEGMENT PARA USE32 PUBLIC 'CODE'
_TEXT	ENDS
;	COMDAT ?max_size@?$allocator@K@std@@QBEIXZ
_TEXT	SEGMENT PARA USE32 PUBLIC 'CODE'
_TEXT	ENDS
;	COMDAT ?_Xlen@?$vector@KV?$allocator@K@std@@@std@@IBEXXZ
_TEXT	SEGMENT PARA USE32 PUBLIC 'CODE'
_TEXT	ENDS
;	COMDAT ?allocate@?$allocator@K@std@@QAEPAKI@Z
_TEXT	SEGMENT PARA USE32 PUBLIC 'CODE'
_TEXT	ENDS
;	COMDAT ??$_Allocate@K@std@@YAPAKIPAK@Z
_TEXT	SEGMENT PARA USE32 PUBLIC 'CODE'
_TEXT	ENDS
;	COMDAT ??5CAr@@QAEAAV0@AAK@Z
_TEXT	SEGMENT PARA USE32 PUBLIC 'CODE'
_TEXT	ENDS
;	COMDAT ??6CAr@@QAEAAV0@K@Z
_TEXT	SEGMENT PARA USE32 PUBLIC 'CODE'
_TEXT	ENDS
;	COMDAT ?IsStoring@CAr@@QBEHXZ
_TEXT	SEGMENT PARA USE32 PUBLIC 'CODE'
_TEXT	ENDS
;	COMDAT ??0D3DXVECTOR3@@QAE@MMM@Z
_TEXT	SEGMENT PARA USE32 PUBLIC 'CODE'
_TEXT	ENDS
;	COMDAT ?GetTickCount@CTime@ATL@@SG?AV12@XZ
_TEXT	SEGMENT PARA USE32 PUBLIC 'CODE'
_TEXT	ENDS
;	COMDAT ??0CTime@ATL@@QAE@_J@Z
_TEXT	SEGMENT PARA USE32 PUBLIC 'CODE'
_TEXT	ENDS
;	COMDAT ??0D3DXVECTOR3@@QAE@XZ
_TEXT	SEGMENT PARA USE32 PUBLIC 'CODE'
_TEXT	ENDS
;	COMDAT ??0CTime@ATL@@QAE@XZ
_TEXT	SEGMENT PARA USE32 PUBLIC 'CODE'
_TEXT	ENDS
sxdata	SEGMENT DWORD USE32 'SXDATA'
sxdata	ENDS
FLAT	GROUP _DATA, CONST, _BSS
	ASSUME	CS: FLAT, DS: FLAT, SS: FLAT
endif

INCLUDELIB LIBCMT
INCLUDELIB OLDNAMES

PUBLIC	?g_pfnGetThreadACP@ATL@@3P6GIXZA		; ATL::g_pfnGetThreadACP
PUBLIC	?_AtlGetThreadACPThunk@ATL@@YGIXZ		; ATL::_AtlGetThreadACPThunk
;	COMDAT ?g_pfnGetThreadACP@ATL@@3P6GIXZA
_DATA	SEGMENT
?g_pfnGetThreadACP@ATL@@3P6GIXZA DD FLAT:?_AtlGetThreadACPThunk@ATL@@YGIXZ ; ATL::g_pfnGetThreadACP
_DATA	ENDS
PUBLIC	?GetSizeofMember@CParty@@QAEHXZ			; CParty::GetSizeofMember
; Function compile flags: /Ogty
; File c:\documents and settings\test\mes documents\source\virtuos_v17\build\program\_common\party.h
;	COMDAT ?GetSizeofMember@CParty@@QAEHXZ
_TEXT	SEGMENT
?GetSizeofMember@CParty@@QAEHXZ PROC NEAR		; CParty::GetSizeofMember, COMDAT
; _this$ = ecx

; 121  : 	int		GetSizeofMember()					{	return m_nSizeofMember;		}

  00000	8b 81 cc 01 00
	00		 mov	 eax, DWORD PTR [ecx+460]
  00006	c3		 ret	 0
?GetSizeofMember@CParty@@QAEHXZ ENDP			; CParty::GetSizeofMember
_TEXT	ENDS
PUBLIC	?GetPlayerId@CParty@@QAEKH@Z			; CParty::GetPlayerId
; Function compile flags: /Ogty
;	COMDAT ?GetPlayerId@CParty@@QAEKH@Z
_TEXT	SEGMENT
_i$ = 8							; size = 4
?GetPlayerId@CParty@@QAEKH@Z PROC NEAR			; CParty::GetPlayerId, COMDAT
; _this$ = ecx

; 125  : 	u_long	GetPlayerId( int i )	{	return m_aMember[i].m_uPlayerId;	}

  00000	8b 44 24 04	 mov	 eax, DWORD PTR _i$[esp-4]
  00004	6b c0 1c	 imul	 eax, 28			; 0000001cH
  00007	8b 44 08 28	 mov	 eax, DWORD PTR [eax+ecx+40]
  0000b	c2 04 00	 ret	 4
?GetPlayerId@CParty@@QAEKH@Z ENDP			; CParty::GetPlayerId
_TEXT	ENDS
PUBLIC	?InterlockedExchangePointer@@YGPAXPAPAXPAX@Z	; InterlockedExchangePointer
EXTRN	__imp__InterlockedExchange@8:NEAR
; Function compile flags: /Ogty
; File c:\program files\microsoft visual studio .net 2003\vc7\atlmfc\include\atlconv.h
;	COMDAT ?InterlockedExchangePointer@@YGPAXPAPAXPAX@Z
_TEXT	SEGMENT
_pp$ = 8						; size = 4
_pNew$ = 12						; size = 4
?InterlockedExchangePointer@@YGPAXPAPAXPAX@Z PROC NEAR	; InterlockedExchangePointer, COMDAT

; 92   : 	return( reinterpret_cast<void*>(static_cast<LONG_PTR>(::InterlockedExchange(reinterpret_cast<LONG*>(pp), static_cast<LONG>(reinterpret_cast<LONG_PTR>(pNew))))) );

  00000	ff 25 00 00 00
	00		 jmp	 DWORD PTR __imp__InterlockedExchange@8
?InterlockedExchangePointer@@YGPAXPAPAXPAX@Z ENDP	; InterlockedExchangePointer
_TEXT	ENDS
PUBLIC	?_AtlGetThreadACPFake@ATL@@YGIXZ		; ATL::_AtlGetThreadACPFake
EXTRN	__imp__GetThreadLocale@0:NEAR
EXTRN	__imp__GetACP@0:NEAR
EXTRN	__imp__GetLocaleInfoA@16:NEAR
EXTRN	___security_cookie:DWORD
EXTRN	@__security_check_cookie@4:NEAR
; Function compile flags: /Ogty
;	COMDAT ?_AtlGetThreadACPFake@ATL@@YGIXZ
_TEXT	SEGMENT
_szACP$ = -12						; size = 7
__$ArrayPad$ = -4					; size = 4
__$ReturnAddr$ = 4					; size = 4
?_AtlGetThreadACPFake@ATL@@YGIXZ PROC NEAR		; ATL::_AtlGetThreadACPFake, COMDAT

; 101  : {

  00000	83 ec 0c	 sub	 esp, 12			; 0000000cH
  00003	a1 00 00 00 00	 mov	 eax, DWORD PTR ___security_cookie
  00008	33 c4		 xor	 eax, esp
  0000a	56		 push	 esi
  0000b	89 44 24 0c	 mov	 DWORD PTR __$ArrayPad$[esp+16], eax

; 102  : 	UINT nACP = 0;

  0000f	33 f6		 xor	 esi, esi

; 103  : 
; 104  : 	LCID lcidThread = ::GetThreadLocale();

  00011	ff 15 00 00 00
	00		 call	 DWORD PTR __imp__GetThreadLocale@0

; 105  : 
; 106  : 	char szACP[7];
; 107  : 	// GetLocaleInfoA will fail for a Unicode-only LCID, but those are only supported on 
; 108  : 	// Windows 2000.  Since Windows 2000 supports CP_THREAD_ACP, this code path is never
; 109  : 	// executed on Windows 2000.
; 110  : 	if (::GetLocaleInfoA(lcidThread, LOCALE_IDEFAULTANSICODEPAGE, szACP, 7) != 0)

  00017	6a 07		 push	 7
  00019	8d 4c 24 08	 lea	 ecx, DWORD PTR _szACP$[esp+20]
  0001d	51		 push	 ecx
  0001e	68 04 10 00 00	 push	 4100			; 00001004H
  00023	50		 push	 eax
  00024	ff 15 00 00 00
	00		 call	 DWORD PTR __imp__GetLocaleInfoA@16
  0002a	85 c0		 test	 eax, eax
  0002c	74 27		 je	 SHORT $L258027

; 111  : 	{
; 112  : 		char* pch = szACP;
; 113  : 		while (*pch != '\0')

  0002e	8a 44 24 04	 mov	 al, BYTE PTR _szACP$[esp+16]
  00032	84 c0		 test	 al, al
  00034	8d 4c 24 04	 lea	 ecx, DWORD PTR _szACP$[esp+16]
  00038	74 1b		 je	 SHORT $L258027
  0003a	8d 9b 00 00 00
	00		 npad	 6
$L38556:

; 114  : 		{
; 115  : 			nACP *= 10;
; 116  : 			nACP += *pch++ - '0';

  00040	0f be c0	 movsx	 eax, al
  00043	8d 14 b6	 lea	 edx, DWORD PTR [esi+esi*4]
  00046	41		 inc	 ecx
  00047	8d 74 50 d0	 lea	 esi, DWORD PTR [eax+edx*2-48]
  0004b	8a 01		 mov	 al, BYTE PTR [ecx]
  0004d	84 c0		 test	 al, al
  0004f	75 ef		 jne	 SHORT $L38556

; 117  : 		}
; 118  : 	}
; 119  : 	// Use the Default ANSI Code Page if we were unable to get the thread ACP or if one does not exist.
; 120  : 	if (nACP == 0)

  00051	85 f6		 test	 esi, esi
  00053	75 16		 jne	 SHORT $L258028
$L258027:

; 121  : 		nACP = ::GetACP();

  00055	ff 15 00 00 00
	00		 call	 DWORD PTR __imp__GetACP@0
  0005b	5e		 pop	 esi

; 122  : 
; 123  : 	return nACP;
; 124  : }

  0005c	8b 4c 24 08	 mov	 ecx, DWORD PTR __$ArrayPad$[esp+12]
  00060	33 cc		 xor	 ecx, esp
  00062	e8 00 00 00 00	 call	 @__security_check_cookie@4
  00067	83 c4 0c	 add	 esp, 12			; 0000000cH
  0006a	c3		 ret	 0
$L258028:
  0006b	8b 4c 24 0c	 mov	 ecx, DWORD PTR __$ArrayPad$[esp+16]
  0006f	8b c6		 mov	 eax, esi
  00071	5e		 pop	 esi
  00072	33 cc		 xor	 ecx, esp
  00074	e8 00 00 00 00	 call	 @__security_check_cookie@4
  00079	83 c4 0c	 add	 esp, 12			; 0000000cH
  0007c	c3		 ret	 0
?_AtlGetThreadACPFake@ATL@@YGIXZ ENDP			; ATL::_AtlGetThreadACPFake
_TEXT	ENDS
PUBLIC	?_AtlGetThreadACPReal@ATL@@YGIXZ		; ATL::_AtlGetThreadACPReal
; Function compile flags: /Ogty
;	COMDAT ?_AtlGetThreadACPReal@ATL@@YGIXZ
_TEXT	SEGMENT
?_AtlGetThreadACPReal@ATL@@YGIXZ PROC NEAR		; ATL::_AtlGetThreadACPReal, COMDAT

; 128  : 	return( CP_THREAD_ACP );

  00000	b8 03 00 00 00	 mov	 eax, 3

; 129  : }

  00005	c3		 ret	 0
?_AtlGetThreadACPReal@ATL@@YGIXZ ENDP			; ATL::_AtlGetThreadACPReal
_TEXT	ENDS
EXTRN	__imp__GetVersionExA@4:NEAR
; Function compile flags: /Ogty
;	COMDAT ?_AtlGetThreadACPThunk@ATL@@YGIXZ
_TEXT	SEGMENT
_ver$ = -152						; size = 148
__$ArrayPad$ = -4					; size = 4
__$ReturnAddr$ = 4					; size = 4
?_AtlGetThreadACPThunk@ATL@@YGIXZ PROC NEAR		; ATL::_AtlGetThreadACPThunk, COMDAT

; 134  : {

  00000	81 ec 98 00 00
	00		 sub	 esp, 152		; 00000098H
  00006	a1 00 00 00 00	 mov	 eax, DWORD PTR ___security_cookie
  0000b	33 c4		 xor	 eax, esp
  0000d	89 84 24 94 00
	00 00		 mov	 DWORD PTR __$ArrayPad$[esp+152], eax

; 135  : 	OSVERSIONINFO ver;
; 136  : 	ATLGETTHREADACP pfnGetThreadACP;
; 137  : 
; 138  : 	ver.dwOSVersionInfoSize = sizeof( ver );
; 139  : 	::GetVersionEx( &ver );

  00014	8d 04 24	 lea	 eax, DWORD PTR _ver$[esp+152]
  00017	50		 push	 eax
  00018	c7 44 24 04 94
	00 00 00	 mov	 DWORD PTR _ver$[esp+156], 148 ; 00000094H
  00020	ff 15 00 00 00
	00		 call	 DWORD PTR __imp__GetVersionExA@4

; 140  : 	if( (ver.dwPlatformId == VER_PLATFORM_WIN32_NT) && (ver.dwMajorVersion >= 5) )

  00026	83 7c 24 10 02	 cmp	 DWORD PTR _ver$[esp+168], 2
  0002b	75 0c		 jne	 SHORT $L38566
  0002d	83 7c 24 04 05	 cmp	 DWORD PTR _ver$[esp+156], 5

; 141  : 	{
; 142  : 		// On Win2K, CP_THREAD_ACP is supported
; 143  : 		pfnGetThreadACP = _AtlGetThreadACPReal;

  00032	b8 00 00 00 00	 mov	 eax, OFFSET FLAT:?_AtlGetThreadACPReal@ATL@@YGIXZ ; ATL::_AtlGetThreadACPReal
  00037	73 05		 jae	 SHORT $L38567
$L38566:

; 144  : 	}
; 145  : 	else
; 146  : 	{
; 147  : 		pfnGetThreadACP = _AtlGetThreadACPFake;

  00039	b8 00 00 00 00	 mov	 eax, OFFSET FLAT:?_AtlGetThreadACPFake@ATL@@YGIXZ ; ATL::_AtlGetThreadACPFake
$L38567:

; 148  : 	}
; 149  : 	InterlockedExchangePointer( reinterpret_cast< void** >(&g_pfnGetThreadACP), pfnGetThreadACP );

  0003e	50		 push	 eax
  0003f	68 00 00 00 00	 push	 OFFSET FLAT:?g_pfnGetThreadACP@ATL@@3P6GIXZA ; ATL::g_pfnGetThreadACP
  00044	ff 15 00 00 00
	00		 call	 DWORD PTR __imp__InterlockedExchange@8

; 150  : 
; 151  : 	return( g_pfnGetThreadACP() );

  0004a	ff 15 00 00 00
	00		 call	 DWORD PTR ?g_pfnGetThreadACP@ATL@@3P6GIXZA ; ATL::g_pfnGetThreadACP

; 152  : }

  00050	8b 8c 24 94 00
	00 00		 mov	 ecx, DWORD PTR __$ArrayPad$[esp+152]
  00057	33 cc		 xor	 ecx, esp
  00059	e8 00 00 00 00	 call	 @__security_check_cookie@4
  0005e	81 c4 98 00 00
	00		 add	 esp, 152		; 00000098H
  00064	c3		 ret	 0
?_AtlGetThreadACPThunk@ATL@@YGIXZ ENDP			; ATL::_AtlGetThreadACPThunk
_TEXT	ENDS
PUBLIC	?_AtlGetConversionACP@ATL@@YGIXZ		; ATL::_AtlGetConversionACP
; Function compile flags: /Ogty
;	COMDAT ?_AtlGetConversionACP@ATL@@YGIXZ
_TEXT	SEGMENT
?_AtlGetConversionACP@ATL@@YGIXZ PROC NEAR		; ATL::_AtlGetConversionACP, COMDAT

; 158  : 	return( g_pfnGetThreadACP() );

  00000	ff 25 00 00 00
	00		 jmp	 DWORD PTR ?g_pfnGetThreadACP@ATL@@3P6GIXZA ; ATL::g_pfnGetThreadACP
?_AtlGetConversionACP@ATL@@YGIXZ ENDP			; ATL::_AtlGetConversionACP
_TEXT	ENDS
PUBLIC	?AtlThrow@ATL@@YGXJ@Z				; ATL::AtlThrow
EXTRN	?AfxThrowMemoryException@@YGXXZ:NEAR		; AfxThrowMemoryException
EXTRN	?AfxThrowOleException@@YGXJ@Z:NEAR		; AfxThrowOleException
; Function compile flags: /Ogty
; File c:\program files\microsoft visual studio .net 2003\vc7\atlmfc\include\atlexcept.h
;	COMDAT ?AtlThrow@ATL@@YGXJ@Z
_TEXT	SEGMENT
_hr$ = 8						; size = 4
?AtlThrow@ATL@@YGXJ@Z PROC NEAR				; ATL::AtlThrow, COMDAT

; 62   : 	ATLTRACE(atlTraceException, 0, _T("AtlThrow: hr = 0x%x\n"), hr );
; 63   : #ifdef _AFX
; 64   : 	if( hr == E_OUTOFMEMORY )

  00000	8b 44 24 04	 mov	 eax, DWORD PTR _hr$[esp-4]
  00004	3d 0e 00 07 80	 cmp	 eax, -2147024882	; 8007000eH
  00009	75 05		 jne	 SHORT $L39168

; 65   : 	{
; 66   : 		AfxThrowMemoryException();

  0000b	e8 00 00 00 00	 call	 ?AfxThrowMemoryException@@YGXXZ ; AfxThrowMemoryException
$L258051:
$L39168:

; 67   : 	}
; 68   : 	else
; 69   : 	{
; 70   : 		AfxThrowOleException( hr );

  00010	50		 push	 eax
  00011	e8 00 00 00 00	 call	 ?AfxThrowOleException@@YGXJ@Z ; AfxThrowOleException
$L258052:
$L258050:
  00016	cc		 int	 3
?AtlThrow@ATL@@YGXJ@Z ENDP				; ATL::AtlThrow
_TEXT	ENDS
PUBLIC	?_AtlGetStringResourceImage@ATL@@YAPBUATLSTRINGRESOURCEIMAGE@1@PAUHINSTANCE__@@PAUHRSRC__@@I@Z ; ATL::_AtlGetStringResourceImage
EXTRN	__imp__LoadResource@8:NEAR
EXTRN	__imp__SizeofResource@8:NEAR
EXTRN	__imp__LockResource@4:NEAR
; Function compile flags: /Ogty
; File c:\program files\microsoft visual studio .net 2003\vc7\atlmfc\include\atlcore.h
;	COMDAT ?_AtlGetStringResourceImage@ATL@@YAPBUATLSTRINGRESOURCEIMAGE@1@PAUHINSTANCE__@@PAUHRSRC__@@I@Z
_TEXT	SEGMENT
_hInstance$ = 8						; size = 4
_hResource$ = 12					; size = 4
_id$ = 16						; size = 4
?_AtlGetStringResourceImage@ATL@@YAPBUATLSTRINGRESOURCEIMAGE@1@PAUHINSTANCE__@@PAUHRSRC__@@I@Z PROC NEAR ; ATL::_AtlGetStringResourceImage, COMDAT

; 239  : {

  00000	53		 push	 ebx

; 240  : 	const ATLSTRINGRESOURCEIMAGE* pImage;
; 241  : 	const ATLSTRINGRESOURCEIMAGE* pImageEnd;
; 242  : 	ULONG nResourceSize;
; 243  : 	HGLOBAL hGlobal;
; 244  : 	UINT iIndex;
; 245  : 
; 246  : 	hGlobal = ::LoadResource( hInstance, hResource );

  00001	8b 5c 24 08	 mov	 ebx, DWORD PTR _hInstance$[esp]
  00005	57		 push	 edi
  00006	8b 7c 24 10	 mov	 edi, DWORD PTR _hResource$[esp+4]
  0000a	57		 push	 edi
  0000b	53		 push	 ebx
  0000c	ff 15 00 00 00
	00		 call	 DWORD PTR __imp__LoadResource@8

; 247  : 	if( hGlobal == NULL )

  00012	85 c0		 test	 eax, eax
  00014	75 03		 jne	 SHORT $L39522
  00016	5f		 pop	 edi
  00017	5b		 pop	 ebx

; 272  : 	{
; 273  : 		return( NULL );
; 274  : 	}
; 275  : 
; 276  : 	return( pImage );
; 277  : }

  00018	c3		 ret	 0
$L39522:
  00019	56		 push	 esi

; 248  : 	{
; 249  : 		return( NULL );
; 250  : 	}
; 251  : 
; 252  : 	pImage = (const ATLSTRINGRESOURCEIMAGE*)::LockResource( hGlobal );

  0001a	50		 push	 eax
  0001b	ff 15 00 00 00
	00		 call	 DWORD PTR __imp__LockResource@4
  00021	8b f0		 mov	 esi, eax

; 253  : 	if( pImage == NULL )

  00023	85 f6		 test	 esi, esi
  00025	75 06		 jne	 SHORT $L39524
$L258058:
  00027	5e		 pop	 esi
  00028	5f		 pop	 edi

; 254  : 	{
; 255  : 		return( NULL );

  00029	33 c0		 xor	 eax, eax
  0002b	5b		 pop	 ebx

; 272  : 	{
; 273  : 		return( NULL );
; 274  : 	}
; 275  : 
; 276  : 	return( pImage );
; 277  : }

  0002c	c3		 ret	 0
$L39524:

; 256  : 	}
; 257  : 
; 258  : 	nResourceSize = ::SizeofResource( hInstance, hResource );

  0002d	57		 push	 edi
  0002e	53		 push	 ebx
  0002f	ff 15 00 00 00
	00		 call	 DWORD PTR __imp__SizeofResource@8

; 259  : 	pImageEnd = (const ATLSTRINGRESOURCEIMAGE*)(LPBYTE( pImage )+nResourceSize);
; 260  : 	iIndex = id&0x000f;

  00035	8b 4c 24 18	 mov	 ecx, DWORD PTR _id$[esp+8]
  00039	03 c6		 add	 eax, esi
  0003b	83 e1 0f	 and	 ecx, 15			; 0000000fH

; 261  : 
; 262  : 	while( (iIndex > 0) && (pImage < pImageEnd) )

  0003e	76 0e		 jbe	 SHORT $L39528
$L39527:
  00040	3b f0		 cmp	 esi, eax
  00042	73 e3		 jae	 SHORT $L258058

; 263  : 	{
; 264  : 		pImage = (const ATLSTRINGRESOURCEIMAGE*)(LPBYTE( pImage )+(sizeof( ATLSTRINGRESOURCEIMAGE )+(pImage->nLength*sizeof( WCHAR ))));
; 265  : 		iIndex--;

  00044	49		 dec	 ecx
  00045	0f b7 16	 movzx	 edx, WORD PTR [esi]
  00048	8d 74 56 02	 lea	 esi, DWORD PTR [esi+edx*2+2]
  0004c	75 f2		 jne	 SHORT $L39527
$L39528:

; 266  : 	}
; 267  : 	if( pImage >= pImageEnd )

  0004e	3b f0		 cmp	 esi, eax

; 268  : 	{
; 269  : 		return( NULL );

  00050	73 d5		 jae	 SHORT $L258058

; 270  : 	}
; 271  : 	if( pImage->nLength == 0 )

  00052	66 8b 06	 mov	 ax, WORD PTR [esi]
  00055	66 f7 d8	 neg	 ax
  00058	1b c0		 sbb	 eax, eax
  0005a	23 c6		 and	 eax, esi
  0005c	5e		 pop	 esi
  0005d	5f		 pop	 edi
  0005e	5b		 pop	 ebx

; 272  : 	{
; 273  : 		return( NULL );
; 274  : 	}
; 275  : 
; 276  : 	return( pImage );
; 277  : }

  0005f	c3		 ret	 0
?_AtlGetStringResourceImage@ATL@@YAPBUATLSTRINGRESOURCEIMAGE@1@PAUHINSTANCE__@@PAUHRSRC__@@I@Z ENDP ; ATL::_AtlGetStringResourceImage
_TEXT	ENDS
PUBLIC	?AtlGetStringResourceImage@ATL@@YAPBUATLSTRINGRESOURCEIMAGE@1@PAUHINSTANCE__@@I@Z ; ATL::AtlGetStringResourceImage
EXTRN	__imp__FindResourceA@12:NEAR
; Function compile flags: /Ogty
;	COMDAT ?AtlGetStringResourceImage@ATL@@YAPBUATLSTRINGRESOURCEIMAGE@1@PAUHINSTANCE__@@I@Z
_TEXT	SEGMENT
_hInstance$ = 8						; size = 4
_id$ = 12						; size = 4
?AtlGetStringResourceImage@ATL@@YAPBUATLSTRINGRESOURCEIMAGE@1@PAUHINSTANCE__@@I@Z PROC NEAR ; ATL::AtlGetStringResourceImage, COMDAT

; 280  : {

  00000	56		 push	 esi

; 281  : 	HRSRC hResource;
; 282  : 
; 283  : 	hResource = ::FindResource( hInstance, MAKEINTRESOURCE( ((id>>4)+1) ), RT_STRING );

  00001	8b 74 24 0c	 mov	 esi, DWORD PTR _id$[esp]
  00005	8b c6		 mov	 eax, esi
  00007	c1 e8 04	 shr	 eax, 4
  0000a	57		 push	 edi
  0000b	8b 7c 24 0c	 mov	 edi, DWORD PTR _hInstance$[esp+4]
  0000f	40		 inc	 eax
  00010	0f b7 c8	 movzx	 ecx, ax
  00013	6a 06		 push	 6
  00015	51		 push	 ecx
  00016	57		 push	 edi
  00017	ff 15 00 00 00
	00		 call	 DWORD PTR __imp__FindResourceA@12

; 284  : 	if( hResource == NULL )

  0001d	85 c0		 test	 eax, eax
  0001f	75 03		 jne	 SHORT $L39545
  00021	5f		 pop	 edi
  00022	5e		 pop	 esi

; 290  : }

  00023	c3		 ret	 0
$L39545:

; 285  : 	{
; 286  : 		return( NULL );
; 287  : 	}
; 288  : 
; 289  : 	return _AtlGetStringResourceImage( hInstance, hResource, id );

  00024	56		 push	 esi
  00025	50		 push	 eax
  00026	57		 push	 edi
  00027	e8 00 00 00 00	 call	 ?_AtlGetStringResourceImage@ATL@@YAPBUATLSTRINGRESOURCEIMAGE@1@PAUHINSTANCE__@@PAUHRSRC__@@I@Z ; ATL::_AtlGetStringResourceImage
  0002c	83 c4 0c	 add	 esp, 12			; 0000000cH
  0002f	5f		 pop	 edi
  00030	5e		 pop	 esi

; 290  : }

  00031	c3		 ret	 0
?AtlGetStringResourceImage@ATL@@YAPBUATLSTRINGRESOURCEIMAGE@1@PAUHINSTANCE__@@I@Z ENDP ; ATL::AtlGetStringResourceImage
_TEXT	ENDS
PUBLIC	?data@CStringData@ATL@@QAEPAXXZ			; ATL::CStringData::data
; Function compile flags: /Ogty
; File c:\program files\microsoft visual studio .net 2003\vc7\atlmfc\include\atlsimpstr.h
;	COMDAT ?data@CStringData@ATL@@QAEPAXXZ
_TEXT	SEGMENT
?data@CStringData@ATL@@QAEPAXXZ PROC NEAR		; ATL::CStringData::data, COMDAT
; _this$ = ecx

; 66   : 		return (this+1);

  00000	8d 41 10	 lea	 eax, DWORD PTR [ecx+16]

; 67   : 	}

  00003	c3		 ret	 0
?data@CStringData@ATL@@QAEPAXXZ ENDP			; ATL::CStringData::data
_TEXT	ENDS
PUBLIC	?IsLocked@CStringData@ATL@@QBE_NXZ		; ATL::CStringData::IsLocked
; Function compile flags: /Ogty
;	COMDAT ?IsLocked@CStringData@ATL@@QBE_NXZ
_TEXT	SEGMENT
?IsLocked@CStringData@ATL@@QBE_NXZ PROC NEAR		; ATL::CStringData::IsLocked, COMDAT
; _this$ = ecx

; 76   : 		return nRefs < 0;

  00000	8b 51 0c	 mov	 edx, DWORD PTR [ecx+12]
  00003	33 c0		 xor	 eax, eax
  00005	85 d2		 test	 edx, edx
  00007	0f 9c c0	 setl	 al

; 77   : 	}

  0000a	c3		 ret	 0
?IsLocked@CStringData@ATL@@QBE_NXZ ENDP			; ATL::CStringData::IsLocked
_TEXT	ENDS
PUBLIC	?IsShared@CStringData@ATL@@QBE_NXZ		; ATL::CStringData::IsShared
; Function compile flags: /Ogty
;	COMDAT ?IsShared@CStringData@ATL@@QBE_NXZ
_TEXT	SEGMENT
?IsShared@CStringData@ATL@@QBE_NXZ PROC NEAR		; ATL::CStringData::IsShared, COMDAT
; _this$ = ecx

; 80   : 		return( nRefs > 1 ); 

  00000	8b 51 0c	 mov	 edx, DWORD PTR [ecx+12]
  00003	33 c0		 xor	 eax, eax
  00005	83 fa 01	 cmp	 edx, 1
  00008	0f 9f c0	 setg	 al

; 81   : 	}

  0000b	c3		 ret	 0
?IsShared@CStringData@ATL@@QBE_NXZ ENDP			; ATL::CStringData::IsShared
_TEXT	ENDS
PUBLIC	?Release@CStringData@ATL@@QAEXXZ		; ATL::CStringData::Release
; Function compile flags: /Ogty
;	COMDAT ?Release@CStringData@ATL@@QAEXXZ
_TEXT	SEGMENT
?Release@CStringData@ATL@@QAEXXZ PROC NEAR		; ATL::CStringData::Release, COMDAT
; _this$ = ecx

; 93   : 		ATLASSERT( nRefs != 0 );
; 94   : 
; 95   : 		if( _InterlockedDecrement( &nRefs ) <= 0 )

  00000	8d 41 0c	 lea	 eax, DWORD PTR [ecx+12]
  00003	83 ca ff	 or	 edx, -1
  00006	f0 0f c1 10	 lock	  xadd	 DWORD PTR [eax], edx
  0000a	4a		 dec	 edx
  0000b	85 d2		 test	 edx, edx
  0000d	7f 0a		 jg	 SHORT $L39885

; 96   : 		{
; 97   : 			pStringMgr->Free( this );

  0000f	8b 01		 mov	 eax, DWORD PTR [ecx]
  00011	8b 10		 mov	 edx, DWORD PTR [eax]
  00013	51		 push	 ecx
  00014	8b c8		 mov	 ecx, eax
  00016	ff 52 04	 call	 DWORD PTR [edx+4]
$L39885:

; 98   : 		}
; 99   : 	}

  00019	c3		 ret	 0
?Release@CStringData@ATL@@QAEXXZ ENDP			; ATL::CStringData::Release
_TEXT	ENDS
PUBLIC	??1CPartyQuestProcessor@@QAE@XZ			; CPartyQuestProcessor::~CPartyQuestProcessor
; Function compile flags: /Ogty
; File c:\documents and settings\test\mes documents\source\virtuos_v17\build\program\_common\partyquest.cpp
;	COMDAT ??1CPartyQuestProcessor@@QAE@XZ
_TEXT	SEGMENT
??1CPartyQuestProcessor@@QAE@XZ PROC NEAR		; CPartyQuestProcessor::~CPartyQuestProcessor, COMDAT
; _this$ = ecx

; 21   : 
; 22   : }

  00000	c3		 ret	 0
??1CPartyQuestProcessor@@QAE@XZ ENDP			; CPartyQuestProcessor::~CPartyQuestProcessor
_TEXT	ENDS
PUBLIC	?GetPartyQuest@CPartyQuestProcessor@@QAEPAU_PARTYQUESTELEM@@H@Z ; CPartyQuestProcessor::GetPartyQuest
PUBLIC	??_C@_00CNPNBAHC@?$AA@				; `string'
EXTRN	?Error@@YAPBDPBDZZ:NEAR				; Error
;	COMDAT ??_C@_00CNPNBAHC@?$AA@
CONST	SEGMENT
??_C@_00CNPNBAHC@?$AA@ DB 00H				; `string'
; Function compile flags: /Ogty
CONST	ENDS
;	COMDAT ?GetPartyQuest@CPartyQuestProcessor@@QAEPAU_PARTYQUESTELEM@@H@Z
_TEXT	SEGMENT
_nQuestId$ = 8						; size = 4
?GetPartyQuest@CPartyQuestProcessor@@QAEPAU_PARTYQUESTELEM@@H@Z PROC NEAR ; CPartyQuestProcessor::GetPartyQuest, COMDAT
; _this$ = ecx

; 355  : 	if( nQuestId >= MAX_PARTY_QUEST )

  00000	8b 44 24 04	 mov	 eax, DWORD PTR _nQuestId$[esp-4]
  00004	3d 00 01 00 00	 cmp	 eax, 256		; 00000100H
  00009	7c 12		 jl	 SHORT $L252806

; 356  : 	{
; 357  : 		Error( "" );

  0000b	68 00 00 00 00	 push	 OFFSET FLAT:??_C@_00CNPNBAHC@?$AA@
  00010	e8 00 00 00 00	 call	 ?Error@@YAPBDPBDZZ	; Error
  00015	83 c4 04	 add	 esp, 4

; 358  : 		return NULL;

  00018	33 c0		 xor	 eax, eax

; 361  : 		return NULL;
; 362  : 
; 363  : 	return &m_pElem[nQuestId];
; 364  : }

  0001a	c2 04 00	 ret	 4
$L252806:

; 359  : 	}
; 360  : 	if( m_pElem[nQuestId].nId == -1 )

  0001d	6b c0 1c	 imul	 eax, 28			; 0000001cH
  00020	8b 14 08	 mov	 edx, DWORD PTR [eax+ecx]
  00023	03 c1		 add	 eax, ecx
  00025	33 c9		 xor	 ecx, ecx
  00027	83 fa ff	 cmp	 edx, -1
  0002a	0f 94 c1	 sete	 cl
  0002d	49		 dec	 ecx
  0002e	23 c1		 and	 eax, ecx

; 361  : 		return NULL;
; 362  : 
; 363  : 	return &m_pElem[nQuestId];
; 364  : }

  00030	c2 04 00	 ret	 4
?GetPartyQuest@CPartyQuestProcessor@@QAEPAU_PARTYQUESTELEM@@H@Z ENDP ; CPartyQuestProcessor::GetPartyQuest
_TEXT	ENDS
PUBLIC	?GetPartyQuestRect@CPartyQuestProcessor@@QAEPAU__PARTYQUESTRECT@@H@Z ; CPartyQuestProcessor::GetPartyQuestRect
; Function compile flags: /Ogty
;	COMDAT ?GetPartyQuestRect@CPartyQuestProcessor@@QAEPAU__PARTYQUESTRECT@@H@Z
_TEXT	SEGMENT
_nQuestId$ = 8						; size = 4
?GetPartyQuestRect@CPartyQuestProcessor@@QAEPAU__PARTYQUESTRECT@@H@Z PROC NEAR ; CPartyQuestProcessor::GetPartyQuestRect, COMDAT
; _this$ = ecx

; 368  : {

  00000	57		 push	 edi

; 369  : 	if( nQuestId >= MAX_PARTY_QUEST )

  00001	8b 7c 24 08	 mov	 edi, DWORD PTR _nQuestId$[esp]
  00005	81 ff 00 01 00
	00		 cmp	 edi, 256		; 00000100H
  0000b	7c 06		 jl	 SHORT $L252812

; 370  : 		return NULL;

  0000d	33 c0		 xor	 eax, eax
  0000f	5f		 pop	 edi

; 379  : //	return &m_pRect[nQuestId];
; 380  : }

  00010	c2 04 00	 ret	 4
$L252812:

; 371  : 	if( m_pElem[nQuestId].nId == -1 )

  00013	8b c7		 mov	 eax, edi
  00015	6b c0 1c	 imul	 eax, 28			; 0000001cH
  00018	8b 14 08	 mov	 edx, DWORD PTR [eax+ecx]

; 372  : 		return NULL;

  0001b	33 c0		 xor	 eax, eax
  0001d	83 fa ff	 cmp	 edx, -1
  00020	74 20		 je	 SHORT $L252811
  00022	56		 push	 esi

; 377  : 	}
; 378  : 	return NULL;

  00023	8b b1 00 34 00
	00		 mov	 esi, DWORD PTR [ecx+13312]
  00029	85 f6		 test	 esi, esi
  0002b	7e 12		 jle	 SHORT $L252817

; 373  : 	for( int i = 0; i < m_nRect; i++ )

  0002d	8d 91 00 1c 00
	00		 lea	 edx, DWORD PTR [ecx+7168]
$L252815:

; 374  : 	{
; 375  : 		if( m_pRect[i].nId == nQuestId )

  00033	39 3a		 cmp	 DWORD PTR [edx], edi
  00035	74 0f		 je	 SHORT $L258085
  00037	40		 inc	 eax
  00038	83 c2 18	 add	 edx, 24			; 00000018H
  0003b	3b c6		 cmp	 eax, esi
  0003d	7c f4		 jl	 SHORT $L252815
$L252817:
  0003f	5e		 pop	 esi

; 377  : 	}
; 378  : 	return NULL;

  00040	33 c0		 xor	 eax, eax
$L252811:
  00042	5f		 pop	 edi

; 379  : //	return &m_pRect[nQuestId];
; 380  : }

  00043	c2 04 00	 ret	 4
$L258085:
  00046	5e		 pop	 esi

; 376  : 			return &m_pRect[i];

  00047	8d 14 40	 lea	 edx, DWORD PTR [eax+eax*2]
  0004a	8d 84 d1 00 1c
	00 00		 lea	 eax, DWORD PTR [ecx+edx*8+7168]
  00051	5f		 pop	 edi

; 379  : //	return &m_pRect[nQuestId];
; 380  : }

  00052	c2 04 00	 ret	 4
?GetPartyQuestRect@CPartyQuestProcessor@@QAEPAU__PARTYQUESTRECT@@H@Z ENDP ; CPartyQuestProcessor::GetPartyQuestRect
_TEXT	ENDS
PUBLIC	?RemovePartyQuest@CPartyQuestProcessor@@QAEXH@Z	; CPartyQuestProcessor::RemovePartyQuest
; Function compile flags: /Ogty
;	COMDAT ?RemovePartyQuest@CPartyQuestProcessor@@QAEXH@Z
_TEXT	SEGMENT
_nQuestId$ = 8						; size = 4
?RemovePartyQuest@CPartyQuestProcessor@@QAEXH@Z PROC NEAR ; CPartyQuestProcessor::RemovePartyQuest, COMDAT
; _this$ = ecx

; 385  : 	if( nQuestId >= MAX_PARTY_QUEST )

  00000	8b 44 24 04	 mov	 eax, DWORD PTR _nQuestId$[esp-4]
  00004	3d 00 01 00 00	 cmp	 eax, 256		; 00000100H
  00009	7c 10		 jl	 SHORT $L252823

; 386  : 	{
; 387  : 		Error( "" );

  0000b	68 00 00 00 00	 push	 OFFSET FLAT:??_C@_00CNPNBAHC@?$AA@
  00010	e8 00 00 00 00	 call	 ?Error@@YAPBDPBDZZ	; Error
  00015	83 c4 04	 add	 esp, 4

; 400  : }

  00018	c2 04 00	 ret	 4
$L252823:

; 388  : 		return;
; 389  : 	}
; 390  : 
; 391  : 	TRACE( "REMOVE_PARTY_QUEST, %d\n", nQuestId );
; 392  : 
; 393  : 	PPARTYQUESTELEM pElem	= &m_pElem[nQuestId];

  0001b	6b c0 1c	 imul	 eax, 28			; 0000001cH
  0001e	03 c1		 add	 eax, ecx

; 394  : 	pElem->nId		= -1;
; 395  : 	pElem->nState	= 0;

  00020	33 c9		 xor	 ecx, ecx
  00022	c7 00 ff ff ff
	ff		 mov	 DWORD PTR [eax], -1
  00028	89 48 04	 mov	 DWORD PTR [eax+4], ecx

; 396  : 	pElem->idParty		= 0;

  0002b	89 48 08	 mov	 DWORD PTR [eax+8], ecx

; 397  : 	pElem->nProcess	= PQP_READY;

  0002e	88 48 10	 mov	 BYTE PTR [eax+16], cl

; 398  : 	pElem->dwEndTime	= 0;

  00031	89 48 0c	 mov	 DWORD PTR [eax+12], ecx

; 399  : 	pElem->nCount	= 0;

  00034	66 89 48 18	 mov	 WORD PTR [eax+24], cx

; 400  : }

  00038	c2 04 00	 ret	 4
?RemovePartyQuest@CPartyQuestProcessor@@QAEXH@Z ENDP	; CPartyQuestProcessor::RemovePartyQuest
_TEXT	ENDS
PUBLIC	?IsQuesting@CPartyQuestProcessor@@QAEHH@Z	; CPartyQuestProcessor::IsQuesting
; Function compile flags: /Ogty
;	COMDAT ?IsQuesting@CPartyQuestProcessor@@QAEHH@Z
_TEXT	SEGMENT
_nQuestId$ = 8						; size = 4
?IsQuesting@CPartyQuestProcessor@@QAEHH@Z PROC NEAR	; CPartyQuestProcessor::IsQuesting, COMDAT
; _this$ = ecx

; 404  : 	if( nQuestId >= MAX_PARTY_QUEST )

  00000	8b 44 24 04	 mov	 eax, DWORD PTR _nQuestId$[esp-4]
  00004	3d 00 01 00 00	 cmp	 eax, 256		; 00000100H
  00009	7c 12		 jl	 SHORT $L252829

; 405  : 	{
; 406  : 		Error( "" );

  0000b	68 00 00 00 00	 push	 OFFSET FLAT:??_C@_00CNPNBAHC@?$AA@
  00010	e8 00 00 00 00	 call	 ?Error@@YAPBDPBDZZ	; Error
  00015	83 c4 04	 add	 esp, 4

; 407  : 		return FALSE;

  00018	33 c0		 xor	 eax, eax

; 411  : 		return TRUE;
; 412  : 	return FALSE;
; 413  : }

  0001a	c2 04 00	 ret	 4
$L252829:

; 408  : 	}
; 409  : 
; 410  : 	if( m_pElem[nQuestId].nId != -1 )

  0001d	6b c0 1c	 imul	 eax, 28			; 0000001cH
  00020	56		 push	 esi
  00021	8b 34 08	 mov	 esi, DWORD PTR [eax+ecx]
  00024	33 d2		 xor	 edx, edx
  00026	83 fe ff	 cmp	 esi, -1
  00029	0f 95 c2	 setne	 dl
  0002c	5e		 pop	 esi
  0002d	8b c2		 mov	 eax, edx

; 411  : 		return TRUE;
; 412  : 	return FALSE;
; 413  : }

  0002f	c2 04 00	 ret	 4
?IsQuesting@CPartyQuestProcessor@@QAEHH@Z ENDP		; CPartyQuestProcessor::IsQuesting
_TEXT	ENDS
PUBLIC	??0CTime@ATL@@QAE@_J@Z				; ATL::CTime::CTime
; Function compile flags: /Ogty
; File c:\program files\microsoft visual studio .net 2003\vc7\atlmfc\include\atltime.inl
;	COMDAT ??0CTime@ATL@@QAE@_J@Z
_TEXT	SEGMENT
_time$ = 8						; size = 8
??0CTime@ATL@@QAE@_J@Z PROC NEAR			; ATL::CTime::CTime, COMDAT
; _this$ = ecx

; 167  : {

  00000	8b 54 24 08	 mov	 edx, DWORD PTR _time$[esp]
  00004	8b c1		 mov	 eax, ecx
  00006	8b 4c 24 04	 mov	 ecx, DWORD PTR _time$[esp-4]
  0000a	89 08		 mov	 DWORD PTR [eax], ecx
  0000c	89 50 04	 mov	 DWORD PTR [eax+4], edx

; 168  : }

  0000f	c2 08 00	 ret	 8
??0CTime@ATL@@QAE@_J@Z ENDP				; ATL::CTime::CTime
_TEXT	ENDS
PUBLIC	?GetLocalTm@CTime@ATL@@QBEPAUtm@@PAU3@@Z	; ATL::CTime::GetLocalTm
EXTRN	__localtime64:NEAR
; Function compile flags: /Ogty
;	COMDAT ?GetLocalTm@CTime@ATL@@QBEPAUtm@@PAU3@@Z
_TEXT	SEGMENT
_ptm$ = 8						; size = 4
?GetLocalTm@CTime@ATL@@QBEPAUtm@@PAU3@@Z PROC NEAR	; ATL::CTime::GetLocalTm, COMDAT
; _this$ = ecx

; 338  : {

  00000	53		 push	 ebx

; 339  : 	if (ptm != NULL)

  00001	8b 5c 24 08	 mov	 ebx, DWORD PTR _ptm$[esp]

; 340  : 	{
; 341  : 		struct tm* ptmTemp = _localtime64(&m_time);

  00005	51		 push	 ecx
  00006	e8 00 00 00 00	 call	 __localtime64
  0000b	83 c4 04	 add	 esp, 4
  0000e	85 db		 test	 ebx, ebx
  00010	74 19		 je	 SHORT $L42721

; 342  : 		if (ptmTemp == NULL)

  00012	85 c0		 test	 eax, eax
  00014	75 04		 jne	 SHORT $L42720
  00016	5b		 pop	 ebx

; 347  : 	}
; 348  : 	else
; 349  : 		return _localtime64(&m_time);
; 350  : }

  00017	c2 04 00	 ret	 4
$L42720:
  0001a	56		 push	 esi
  0001b	57		 push	 edi

; 343  : 			return NULL;    // indicates the m_time was not initialized!
; 344  : 
; 345  : 		*ptm = *ptmTemp;

  0001c	8b f0		 mov	 esi, eax
  0001e	b9 09 00 00 00	 mov	 ecx, 9
  00023	8b fb		 mov	 edi, ebx
  00025	f3 a5		 rep movsd
  00027	5f		 pop	 edi

; 346  : 		return ptm;

  00028	8b c3		 mov	 eax, ebx
  0002a	5e		 pop	 esi
$L42721:
  0002b	5b		 pop	 ebx

; 347  : 	}
; 348  : 	else
; 349  : 		return _localtime64(&m_time);
; 350  : }

  0002c	c2 04 00	 ret	 4
?GetLocalTm@CTime@ATL@@QBEPAUtm@@PAU3@@Z ENDP		; ATL::CTime::GetLocalTm
_TEXT	ENDS
PUBLIC	?GetYear@CTime@ATL@@QBEHXZ			; ATL::CTime::GetYear
; Function compile flags: /Ogty
;	COMDAT ?GetYear@CTime@ATL@@QBEHXZ
_TEXT	SEGMENT
?GetYear@CTime@ATL@@QBEHXZ PROC NEAR			; ATL::CTime::GetYear, COMDAT
; _this$ = ecx

; 377  : 	struct tm * ptm;
; 378  : 	ptm = GetLocalTm();

  00000	51		 push	 ecx
  00001	e8 00 00 00 00	 call	 __localtime64
  00006	83 c4 04	 add	 esp, 4

; 379  : 	return ptm ? (ptm->tm_year) + 1900 : 0 ; 

  00009	85 c0		 test	 eax, eax
  0000b	74 09		 je	 SHORT $L258105
  0000d	8b 40 14	 mov	 eax, DWORD PTR [eax+20]
  00010	05 6c 07 00 00	 add	 eax, 1900		; 0000076cH

; 380  : }

  00015	c3		 ret	 0
$L258105:

; 379  : 	return ptm ? (ptm->tm_year) + 1900 : 0 ; 

  00016	33 c0		 xor	 eax, eax

; 380  : }

  00018	c3		 ret	 0
?GetYear@CTime@ATL@@QBEHXZ ENDP				; ATL::CTime::GetYear
_TEXT	ENDS
PUBLIC	?GetMonth@CTime@ATL@@QBEHXZ			; ATL::CTime::GetMonth
; Function compile flags: /Ogty
;	COMDAT ?GetMonth@CTime@ATL@@QBEHXZ
_TEXT	SEGMENT
?GetMonth@CTime@ATL@@QBEHXZ PROC NEAR			; ATL::CTime::GetMonth, COMDAT
; _this$ = ecx

; 384  : 	struct tm * ptm;
; 385  : 	ptm = GetLocalTm();

  00000	51		 push	 ecx
  00001	e8 00 00 00 00	 call	 __localtime64
  00006	83 c4 04	 add	 esp, 4

; 386  : 	return ptm ? ptm->tm_mon + 1 : 0;

  00009	85 c0		 test	 eax, eax
  0000b	74 05		 je	 SHORT $L258118
  0000d	8b 40 10	 mov	 eax, DWORD PTR [eax+16]
  00010	40		 inc	 eax

; 387  : }

  00011	c3		 ret	 0
$L258118:

; 386  : 	return ptm ? ptm->tm_mon + 1 : 0;

  00012	33 c0		 xor	 eax, eax

; 387  : }

  00014	c3		 ret	 0
?GetMonth@CTime@ATL@@QBEHXZ ENDP			; ATL::CTime::GetMonth
_TEXT	ENDS
PUBLIC	?GetDay@CTime@ATL@@QBEHXZ			; ATL::CTime::GetDay
; Function compile flags: /Ogty
;	COMDAT ?GetDay@CTime@ATL@@QBEHXZ
_TEXT	SEGMENT
?GetDay@CTime@ATL@@QBEHXZ PROC NEAR			; ATL::CTime::GetDay, COMDAT
; _this$ = ecx

; 391  : 	struct tm * ptm;
; 392  : 	ptm = GetLocalTm();

  00000	51		 push	 ecx
  00001	e8 00 00 00 00	 call	 __localtime64
  00006	83 c4 04	 add	 esp, 4

; 393  : 	return ptm ? ptm->tm_mday : 0 ; 

  00009	85 c0		 test	 eax, eax
  0000b	74 04		 je	 SHORT $L258131
  0000d	8b 40 0c	 mov	 eax, DWORD PTR [eax+12]

; 394  : }

  00010	c3		 ret	 0
$L258131:

; 393  : 	return ptm ? ptm->tm_mday : 0 ; 

  00011	33 c0		 xor	 eax, eax

; 394  : }

  00013	c3		 ret	 0
?GetDay@CTime@ATL@@QBEHXZ ENDP				; ATL::CTime::GetDay
_TEXT	ENDS
PUBLIC	?GetHour@CTime@ATL@@QBEHXZ			; ATL::CTime::GetHour
; Function compile flags: /Ogty
;	COMDAT ?GetHour@CTime@ATL@@QBEHXZ
_TEXT	SEGMENT
?GetHour@CTime@ATL@@QBEHXZ PROC NEAR			; ATL::CTime::GetHour, COMDAT
; _this$ = ecx

; 398  : 	struct tm * ptm;
; 399  : 	ptm = GetLocalTm();

  00000	51		 push	 ecx
  00001	e8 00 00 00 00	 call	 __localtime64
  00006	83 c4 04	 add	 esp, 4

; 400  : 	return ptm ? ptm->tm_hour : -1 ; 

  00009	85 c0		 test	 eax, eax
  0000b	74 04		 je	 SHORT $L258144
  0000d	8b 40 08	 mov	 eax, DWORD PTR [eax+8]

; 401  : }

  00010	c3		 ret	 0
$L258144:

; 400  : 	return ptm ? ptm->tm_hour : -1 ; 

  00011	83 c8 ff	 or	 eax, -1

; 401  : }

  00014	c3		 ret	 0
?GetHour@CTime@ATL@@QBEHXZ ENDP				; ATL::CTime::GetHour
_TEXT	ENDS
PUBLIC	?GetMinute@CTime@ATL@@QBEHXZ			; ATL::CTime::GetMinute
; Function compile flags: /Ogty
;	COMDAT ?GetMinute@CTime@ATL@@QBEHXZ
_TEXT	SEGMENT
?GetMinute@CTime@ATL@@QBEHXZ PROC NEAR			; ATL::CTime::GetMinute, COMDAT
; _this$ = ecx

; 405  : 	struct tm * ptm;
; 406  : 	ptm = GetLocalTm();

  00000	51		 push	 ecx
  00001	e8 00 00 00 00	 call	 __localtime64
  00006	83 c4 04	 add	 esp, 4

; 407  : 	return ptm ? ptm->tm_min : -1 ; 

  00009	85 c0		 test	 eax, eax
  0000b	74 04		 je	 SHORT $L258157
  0000d	8b 40 04	 mov	 eax, DWORD PTR [eax+4]

; 408  : }

  00010	c3		 ret	 0
$L258157:

; 407  : 	return ptm ? ptm->tm_min : -1 ; 

  00011	83 c8 ff	 or	 eax, -1

; 408  : }

  00014	c3		 ret	 0
?GetMinute@CTime@ATL@@QBEHXZ ENDP			; ATL::CTime::GetMinute
_TEXT	ENDS
PUBLIC	?GetSecond@CTime@ATL@@QBEHXZ			; ATL::CTime::GetSecond
; Function compile flags: /Ogty
;	COMDAT ?GetSecond@CTime@ATL@@QBEHXZ
_TEXT	SEGMENT
?GetSecond@CTime@ATL@@QBEHXZ PROC NEAR			; ATL::CTime::GetSecond, COMDAT
; _this$ = ecx

; 412  : 	struct tm * ptm;
; 413  : 	ptm = GetLocalTm();

  00000	51		 push	 ecx
  00001	e8 00 00 00 00	 call	 __localtime64
  00006	83 c4 04	 add	 esp, 4

; 414  : 	return ptm ? ptm->tm_sec : -1 ;

  00009	85 c0		 test	 eax, eax
  0000b	74 03		 je	 SHORT $L258170
  0000d	8b 00		 mov	 eax, DWORD PTR [eax]

; 415  : }

  0000f	c3		 ret	 0
$L258170:

; 414  : 	return ptm ? ptm->tm_sec : -1 ;

  00010	83 c8 ff	 or	 eax, -1

; 415  : }

  00013	c3		 ret	 0
?GetSecond@CTime@ATL@@QBEHXZ ENDP			; ATL::CTime::GetSecond
_TEXT	ENDS
PUBLIC	??0CPoint@@QAE@XZ				; CPoint::CPoint
; Function compile flags: /Ogty
; File c:\program files\microsoft visual studio .net 2003\vc7\atlmfc\include\atltypes.inl
;	COMDAT ??0CPoint@@QAE@XZ
_TEXT	SEGMENT
??0CPoint@@QAE@XZ PROC NEAR				; CPoint::CPoint, COMDAT
; _this$ = ecx

; 61   : 	{ /* random filled */ }

  00000	8b c1		 mov	 eax, ecx
  00002	c3		 ret	 0
??0CPoint@@QAE@XZ ENDP					; CPoint::CPoint
_TEXT	ENDS
PUBLIC	??0CPoint@@QAE@HH@Z				; CPoint::CPoint
; Function compile flags: /Ogty
;	COMDAT ??0CPoint@@QAE@HH@Z
_TEXT	SEGMENT
_initX$ = 8						; size = 4
_initY$ = 12						; size = 4
??0CPoint@@QAE@HH@Z PROC NEAR				; CPoint::CPoint, COMDAT
; _this$ = ecx

; 63   : 	{ x = initX; y = initY; }

  00000	8b 54 24 08	 mov	 edx, DWORD PTR _initY$[esp-4]
  00004	8b c1		 mov	 eax, ecx
  00006	8b 4c 24 04	 mov	 ecx, DWORD PTR _initX$[esp-4]
  0000a	89 08		 mov	 DWORD PTR [eax], ecx
  0000c	89 50 04	 mov	 DWORD PTR [eax+4], edx
  0000f	c2 08 00	 ret	 8
??0CPoint@@QAE@HH@Z ENDP				; CPoint::CPoint
_TEXT	ENDS
PUBLIC	??0CRect@@QAE@XZ				; CRect::CRect
; Function compile flags: /Ogty
;	COMDAT ??0CRect@@QAE@XZ
_TEXT	SEGMENT
??0CRect@@QAE@XZ PROC NEAR				; CRect::CRect, COMDAT
; _this$ = ecx

; 110  : 	{ /* random filled */ }

  00000	8b c1		 mov	 eax, ecx
  00002	c3		 ret	 0
??0CRect@@QAE@XZ ENDP					; CRect::CRect
_TEXT	ENDS
PUBLIC	?CenterPoint@CRect@@QBE?AVCPoint@@XZ		; CRect::CenterPoint
; Function compile flags: /Ogty
;	COMDAT ?CenterPoint@CRect@@QBE?AVCPoint@@XZ
_TEXT	SEGMENT
___$ReturnUdt$ = 8					; size = 4
?CenterPoint@CRect@@QBE?AVCPoint@@XZ PROC NEAR		; CRect::CenterPoint, COMDAT
; _this$ = ecx

; 137  : 	{ return CPoint((left+right)/2, (top+bottom)/2); }

  00000	8b 51 04	 mov	 edx, DWORD PTR [ecx+4]
  00003	8b 41 0c	 mov	 eax, DWORD PTR [ecx+12]
  00006	03 c2		 add	 eax, edx
  00008	99		 cdq
  00009	2b c2		 sub	 eax, edx
  0000b	8b 11		 mov	 edx, DWORD PTR [ecx]
  0000d	56		 push	 esi
  0000e	8b f0		 mov	 esi, eax
  00010	8b 41 08	 mov	 eax, DWORD PTR [ecx+8]
  00013	03 c2		 add	 eax, edx
  00015	99		 cdq
  00016	2b c2		 sub	 eax, edx
  00018	8b c8		 mov	 ecx, eax
  0001a	8b 44 24 08	 mov	 eax, DWORD PTR ___$ReturnUdt$[esp]
  0001e	d1 fe		 sar	 esi, 1
  00020	d1 f9		 sar	 ecx, 1
  00022	89 70 04	 mov	 DWORD PTR [eax+4], esi
  00025	89 08		 mov	 DWORD PTR [eax], ecx
  00027	5e		 pop	 esi
  00028	c2 04 00	 ret	 4
?CenterPoint@CRect@@QBE?AVCPoint@@XZ ENDP		; CRect::CenterPoint
_TEXT	ENDS
PUBLIC	?PtInRect@CRect@@QBEHUtagPOINT@@@Z		; CRect::PtInRect
EXTRN	__imp__PtInRect@12:NEAR
; Function compile flags: /Ogty
;	COMDAT ?PtInRect@CRect@@QBEHUtagPOINT@@@Z
_TEXT	SEGMENT
_point$ = 8						; size = 8
?PtInRect@CRect@@QBEHUtagPOINT@@@Z PROC NEAR		; CRect::PtInRect, COMDAT
; _this$ = ecx

; 151  : 	{ return ::PtInRect(this, point); }

  00000	8b 44 24 08	 mov	 eax, DWORD PTR _point$[esp]
  00004	8b 54 24 04	 mov	 edx, DWORD PTR _point$[esp-4]
  00008	50		 push	 eax
  00009	52		 push	 edx
  0000a	51		 push	 ecx
  0000b	ff 15 00 00 00
	00		 call	 DWORD PTR __imp__PtInRect@12
  00011	c2 08 00	 ret	 8
?PtInRect@CRect@@QBEHUtagPOINT@@@Z ENDP			; CRect::PtInRect
_TEXT	ENDS
PUBLIC	?SetRect@CRect@@QAEXHHHH@Z			; CRect::SetRect
EXTRN	__imp__SetRect@20:NEAR
; Function compile flags: /Ogty
;	COMDAT ?SetRect@CRect@@QAEXHHHH@Z
_TEXT	SEGMENT
_x1$ = 8						; size = 4
_y1$ = 12						; size = 4
_x2$ = 16						; size = 4
_y2$ = 20						; size = 4
?SetRect@CRect@@QAEXHHHH@Z PROC NEAR			; CRect::SetRect, COMDAT
; _this$ = ecx

; 153  : 	{ ::SetRect(this, x1, y1, x2, y2); }

  00000	8b 44 24 10	 mov	 eax, DWORD PTR _y2$[esp-4]
  00004	8b 54 24 0c	 mov	 edx, DWORD PTR _x2$[esp-4]
  00008	50		 push	 eax
  00009	8b 44 24 0c	 mov	 eax, DWORD PTR _y1$[esp]
  0000d	52		 push	 edx
  0000e	8b 54 24 0c	 mov	 edx, DWORD PTR _x1$[esp+4]
  00012	50		 push	 eax
  00013	52		 push	 edx
  00014	51		 push	 ecx
  00015	ff 15 00 00 00
	00		 call	 DWORD PTR __imp__SetRect@20
  0001b	c2 10 00	 ret	 16			; 00000010H
?SetRect@CRect@@QAEXHHHH@Z ENDP				; CRect::SetRect
_TEXT	ENDS
PUBLIC	??0D3DXVECTOR3@@QAE@XZ				; D3DXVECTOR3::D3DXVECTOR3
; Function compile flags: /Ogty
; File c:\documents and settings\test\mes documents\source\virtuos_v17\build\program\dx_sdk\d3dx9math.h
;	COMDAT ??0D3DXVECTOR3@@QAE@XZ
_TEXT	SEGMENT
??0D3DXVECTOR3@@QAE@XZ PROC NEAR			; D3DXVECTOR3::D3DXVECTOR3, COMDAT
; _this$ = ecx

; 165  :     D3DXVECTOR3() {};

  00000	8b c1		 mov	 eax, ecx
  00002	c3		 ret	 0
??0D3DXVECTOR3@@QAE@XZ ENDP				; D3DXVECTOR3::D3DXVECTOR3
_TEXT	ENDS
PUBLIC	??0D3DXVECTOR3@@QAE@MMM@Z			; D3DXVECTOR3::D3DXVECTOR3
EXTRN	__fltused:NEAR
; Function compile flags: /Ogty
; File c:\documents and settings\test\mes documents\source\virtuos_v17\build\program\dx_sdk\d3dx9math.inl
;	COMDAT ??0D3DXVECTOR3@@QAE@MMM@Z
_TEXT	SEGMENT
_fx$ = 8						; size = 4
_fy$ = 12						; size = 4
_fz$ = 16						; size = 4
??0D3DXVECTOR3@@QAE@MMM@Z PROC NEAR			; D3DXVECTOR3::D3DXVECTOR3, COMDAT
; _this$ = ecx

; 300  :     x = fx;
; 301  :     y = fy;

  00000	8b 54 24 08	 mov	 edx, DWORD PTR _fy$[esp-4]
  00004	8b c1		 mov	 eax, ecx
  00006	8b 4c 24 04	 mov	 ecx, DWORD PTR _fx$[esp-4]
  0000a	89 08		 mov	 DWORD PTR [eax], ecx

; 302  :     z = fz;

  0000c	8b 4c 24 0c	 mov	 ecx, DWORD PTR _fz$[esp-4]
  00010	89 50 04	 mov	 DWORD PTR [eax+4], edx
  00013	89 48 08	 mov	 DWORD PTR [eax+8], ecx

; 303  : }

  00016	c2 0c 00	 ret	 12			; 0000000cH
??0D3DXVECTOR3@@QAE@MMM@Z ENDP				; D3DXVECTOR3::D3DXVECTOR3
_TEXT	ENDS
PUBLIC	??_H@YGXPAXIHP6EPAX0@Z@Z			; `vector constructor iterator'
; Function compile flags: /Ogty
;	COMDAT ??_H@YGXPAXIHP6EPAX0@Z@Z
_TEXT	SEGMENT
___t$ = 8						; size = 4
___s$ = 12						; size = 4
___n$ = 16						; size = 4
___f$ = 20						; size = 4
??_H@YGXPAXIHP6EPAX0@Z@Z PROC NEAR			; `vector constructor iterator', COMDAT
  00000	8b 44 24 0c	 mov	 eax, DWORD PTR ___n$[esp-4]
  00004	48		 dec	 eax
  00005	78 26		 js	 SHORT $L171564
  00007	53		 push	 ebx
  00008	8b 5c 24 14	 mov	 ebx, DWORD PTR ___f$[esp]
  0000c	55		 push	 ebp
  0000d	8b 6c 24 10	 mov	 ebp, DWORD PTR ___s$[esp+4]
  00011	56		 push	 esi
  00012	8b 74 24 10	 mov	 esi, DWORD PTR ___t$[esp+8]
  00016	57		 push	 edi
  00017	8d 78 01	 lea	 edi, DWORD PTR [eax+1]
  0001a	8d 9b 00 00 00
	00		 npad	 6
$L171563:
  00020	8b ce		 mov	 ecx, esi
  00022	ff d3		 call	 ebx
  00024	03 f5		 add	 esi, ebp
  00026	4f		 dec	 edi
  00027	75 f7		 jne	 SHORT $L171563
  00029	5f		 pop	 edi
  0002a	5e		 pop	 esi
  0002b	5d		 pop	 ebp
  0002c	5b		 pop	 ebx
$L171564:
  0002d	c2 10 00	 ret	 16			; 00000010H
??_H@YGXPAXIHP6EPAX0@Z@Z ENDP				; `vector constructor iterator'
_TEXT	ENDS
PUBLIC	?IsDelete@CObj@@QAEHXZ				; CObj::IsDelete
; Function compile flags: /Ogty
; File c:\documents and settings\test\mes documents\source\virtuos_v17\build\program\_common\obj.h
;	COMDAT ?IsDelete@CObj@@QAEHXZ
_TEXT	SEGMENT
?IsDelete@CObj@@QAEHXZ PROC NEAR			; CObj::IsDelete, COMDAT
; _this$ = ecx

; 180  : 	BOOL			IsDelete()	{ return (m_dwFlags & OBJ_FLAG_DELETE);  }

  00000	8b 41 04	 mov	 eax, DWORD PTR [ecx+4]
  00003	83 e0 01	 and	 eax, 1
  00006	c3		 ret	 0
?IsDelete@CObj@@QAEHXZ ENDP				; CObj::IsDelete
_TEXT	ENDS
PUBLIC	?GetNextNode@CObj@@QAEPAV1@XZ			; CObj::GetNextNode
; Function compile flags: /Ogty
;	COMDAT ?GetNextNode@CObj@@QAEPAV1@XZ
_TEXT	SEGMENT
?GetNextNode@CObj@@QAEPAV1@XZ PROC NEAR			; CObj::GetNextNode, COMDAT
; _this$ = ecx

; 195  : 	CObj*			GetNextNode() { return m_pNext; }

  00000	8b 81 80 01 00
	00		 mov	 eax, DWORD PTR [ecx+384]
  00006	c3		 ret	 0
?GetNextNode@CObj@@QAEPAV1@XZ ENDP			; CObj::GetNextNode
_TEXT	ENDS
PUBLIC	?GetType@CObj@@QAEKXZ				; CObj::GetType
; Function compile flags: /Ogty
;	COMDAT ?GetType@CObj@@QAEKXZ
_TEXT	SEGMENT
?GetType@CObj@@QAEKXZ PROC NEAR				; CObj::GetType, COMDAT
; _this$ = ecx

; 206  : 	DWORD			GetType() { return m_dwType; }

  00000	8b 81 70 01 00
	00		 mov	 eax, DWORD PTR [ecx+368]
  00006	c3		 ret	 0
?GetType@CObj@@QAEKXZ ENDP				; CObj::GetType
_TEXT	ENDS
PUBLIC	?GetPos@CObj@@QAE?AUD3DXVECTOR3@@XZ		; CObj::GetPos
; Function compile flags: /Ogty
;	COMDAT ?GetPos@CObj@@QAE?AUD3DXVECTOR3@@XZ
_TEXT	SEGMENT
___$ReturnUdt$ = 8					; size = 4
?GetPos@CObj@@QAE?AUD3DXVECTOR3@@XZ PROC NEAR		; CObj::GetPos, COMDAT
; _this$ = ecx

; 215  : 	D3DXVECTOR3		GetPos()	{ return m_vPos; }

  00000	8b 44 24 04	 mov	 eax, DWORD PTR ___$ReturnUdt$[esp-4]
  00004	81 c1 60 01 00
	00		 add	 ecx, 352		; 00000160H
  0000a	56		 push	 esi
  0000b	8b 31		 mov	 esi, DWORD PTR [ecx]
  0000d	8b d0		 mov	 edx, eax
  0000f	89 32		 mov	 DWORD PTR [edx], esi
  00011	8b 71 04	 mov	 esi, DWORD PTR [ecx+4]
  00014	89 72 04	 mov	 DWORD PTR [edx+4], esi
  00017	8b 49 08	 mov	 ecx, DWORD PTR [ecx+8]
  0001a	89 4a 08	 mov	 DWORD PTR [edx+8], ecx
  0001d	5e		 pop	 esi
  0001e	c2 04 00	 ret	 4
?GetPos@CObj@@QAE?AUD3DXVECTOR3@@XZ ENDP		; CObj::GetPos
_TEXT	ENDS
PUBLIC	?IsValidObj@@YAHPAVCObj@@@Z			; IsValidObj
; Function compile flags: /Ogty
;	COMDAT ?IsValidObj@@YAHPAVCObj@@@Z
_TEXT	SEGMENT
_pObj$ = 8						; size = 4
?IsValidObj@@YAHPAVCObj@@@Z PROC NEAR			; IsValidObj, COMDAT

; 327  : 	return pObj && ( pObj->IsDelete() == FALSE ); 

  00000	8b 44 24 04	 mov	 eax, DWORD PTR _pObj$[esp-4]
  00004	85 c0		 test	 eax, eax
  00006	74 0c		 je	 SHORT $L258230
  00008	f6 40 04 01	 test	 BYTE PTR [eax+4], 1
  0000c	75 06		 jne	 SHORT $L258230
  0000e	b8 01 00 00 00	 mov	 eax, 1

; 328  : }

  00013	c3		 ret	 0
$L258230:

; 327  : 	return pObj && ( pObj->IsDelete() == FALSE ); 

  00014	33 c0		 xor	 eax, eax

; 328  : }

  00016	c3		 ret	 0
?IsValidObj@@YAHPAVCObj@@@Z ENDP			; IsValidObj
_TEXT	ENDS
PUBLIC	??0_PARTYQUEST@@QAE@XZ				; _PARTYQUEST::_PARTYQUEST
; Function compile flags: /Ogty
; File c:\documents and settings\test\mes documents\source\virtuos_v17\build\program\_common\partyquest.h
;	COMDAT ??0_PARTYQUEST@@QAE@XZ
_TEXT	SEGMENT
??0_PARTYQUEST@@QAE@XZ PROC NEAR			; _PARTYQUEST::_PARTYQUEST, COMDAT
; _this$ = ecx

; 59   : 	_PARTYQUEST()

  00000	8b c1		 mov	 eax, ecx

; 60   : 		{
; 61   : 			nId		= -1;
; 62   : 			nState	= 0;

  00002	33 c9		 xor	 ecx, ecx
  00004	c7 00 ff ff ff
	ff		 mov	 DWORD PTR [eax], -1
  0000a	89 48 04	 mov	 DWORD PTR [eax+4], ecx

; 63   : 			idParty		= 0;

  0000d	89 48 08	 mov	 DWORD PTR [eax+8], ecx

; 64   : 		};

  00010	c3		 ret	 0
??0_PARTYQUEST@@QAE@XZ ENDP				; _PARTYQUEST::_PARTYQUEST
_TEXT	ENDS
PUBLIC	??0_PARTYQUESTELEM@@QAE@XZ			; _PARTYQUESTELEM::_PARTYQUESTELEM
; Function compile flags: /Ogty
;	COMDAT ??0_PARTYQUESTELEM@@QAE@XZ
_TEXT	SEGMENT
??0_PARTYQUESTELEM@@QAE@XZ PROC NEAR			; _PARTYQUESTELEM::_PARTYQUESTELEM, COMDAT
; _this$ = ecx

; 83   : 	{

  00000	8b c1		 mov	 eax, ecx
  00002	33 c9		 xor	 ecx, ecx
  00004	c7 00 ff ff ff
	ff		 mov	 DWORD PTR [eax], -1
  0000a	89 48 04	 mov	 DWORD PTR [eax+4], ecx
  0000d	89 48 08	 mov	 DWORD PTR [eax+8], ecx

; 84   : 		dwEndTime	= 0;

  00010	89 48 0c	 mov	 DWORD PTR [eax+12], ecx

; 85   : 		nProcess	= PQP_READY;

  00013	88 48 10	 mov	 BYTE PTR [eax+16], cl

; 86   : 		ns	= nf	= 0;

  00016	88 48 12	 mov	 BYTE PTR [eax+18], cl
  00019	88 48 11	 mov	 BYTE PTR [eax+17], cl

; 87   : 		objidWormon		= NULL_ID;

  0001c	c7 40 14 ff ff
	ff ff		 mov	 DWORD PTR [eax+20], -1

; 88   : 		nCount	= 0;

  00023	66 89 48 18	 mov	 WORD PTR [eax+24], cx

; 89   : 	};

  00027	c3		 ret	 0
??0_PARTYQUESTELEM@@QAE@XZ ENDP				; _PARTYQUESTELEM::_PARTYQUESTELEM
_TEXT	ENDS
PUBLIC	?IsDie@CAction@@QAEHXZ				; CAction::IsDie
; Function compile flags: /Ogty
; File c:\documents and settings\test\mes documents\source\virtuos_v17\build\program\_aiinterface\action.h
;	COMDAT ?IsDie@CAction@@QAEHXZ
_TEXT	SEGMENT
?IsDie@CAction@@QAEHXZ PROC NEAR			; CAction::IsDie, COMDAT
; _this$ = ecx

; 310  : 	BOOL			IsDie() { return (m_dwState & OBJSTA_DIE_ALL) ? TRUE : FALSE; }

  00000	8b 41 04	 mov	 eax, DWORD PTR [ecx+4]
  00003	c1 e8 1b	 shr	 eax, 27			; 0000001bH
  00006	83 e0 01	 and	 eax, 1
  00009	c3		 ret	 0
?IsDie@CAction@@QAEHXZ ENDP				; CAction::IsDie
_TEXT	ENDS
PUBLIC	?IsPeaceful@CMover@@QAEHXZ			; CMover::IsPeaceful
; Function compile flags: /Ogty
; File c:\documents and settings\test\mes documents\source\virtuos_v17\build\program\_common\mover.h
;	COMDAT ?IsPeaceful@CMover@@QAEHXZ
_TEXT	SEGMENT
?IsPeaceful@CMover@@QAEHXZ PROC NEAR			; CMover::IsPeaceful, COMDAT
; _this$ = ecx

; 1146 : 	BOOL			IsPeaceful() { return m_dwBelligerence == BELLI_PEACEFUL; }

  00000	8b 91 6c 06 00
	00		 mov	 edx, DWORD PTR [ecx+1644]
  00006	33 c0		 xor	 eax, eax
  00008	83 fa 01	 cmp	 edx, 1
  0000b	0f 94 c0	 sete	 al
  0000e	c3		 ret	 0
?IsPeaceful@CMover@@QAEHXZ ENDP				; CMover::IsPeaceful
_TEXT	ENDS
PUBLIC	?IsLive@CMover@@QAEHXZ				; CMover::IsLive
; Function compile flags: /Ogty
;	COMDAT ?IsLive@CMover@@QAEHXZ
_TEXT	SEGMENT
?IsLive@CMover@@QAEHXZ PROC NEAR			; CMover::IsLive, COMDAT
; _this$ = ecx

; 1277 : 	BOOL			IsLive() { return m_pActMover->IsDie() == FALSE || m_nHitPoint > 0; }		// &&   || .  != > 

  00000	8b 81 3c 02 00
	00		 mov	 eax, DWORD PTR [ecx+572]
  00006	f7 40 04 00 00
	00 08		 test	 DWORD PTR [eax+4], 134217728 ; 08000000H
  0000d	74 0d		 je	 SHORT $L258253
  0000f	8b 81 00 06 00
	00		 mov	 eax, DWORD PTR [ecx+1536]
  00015	85 c0		 test	 eax, eax
  00017	7f 03		 jg	 SHORT $L258253
  00019	33 c0		 xor	 eax, eax
  0001b	c3		 ret	 0
$L258253:
  0001c	b8 01 00 00 00	 mov	 eax, 1
  00021	c3		 ret	 0
?IsLive@CMover@@QAEHXZ ENDP				; CMover::IsLive
_TEXT	ENDS
PUBLIC	??B?$CSimpleStringT@D$0A@@ATL@@QBEPBDXZ		; ATL::CSimpleStringT<char,0>::operator char const *
; Function compile flags: /Ogty
; File c:\program files\microsoft visual studio .net 2003\vc7\atlmfc\include\atlsimpstr.h
;	COMDAT ??B?$CSimpleStringT@D$0A@@ATL@@QBEPBDXZ
_TEXT	SEGMENT
??B?$CSimpleStringT@D$0A@@ATL@@QBEPBDXZ PROC NEAR	; ATL::CSimpleStringT<char,0>::operator char const *, COMDAT
; _this$ = ecx

; 379  : 		return( m_pszData );

  00000	8b 01		 mov	 eax, DWORD PTR [ecx]

; 380  : 	}

  00002	c3		 ret	 0
??B?$CSimpleStringT@D$0A@@ATL@@QBEPBDXZ ENDP		; ATL::CSimpleStringT<char,0>::operator char const *
_TEXT	ENDS
PUBLIC	?GetString@?$CSimpleStringT@D$0A@@ATL@@QBEPBDXZ	; ATL::CSimpleStringT<char,0>::GetString
; Function compile flags: /Ogty
;	COMDAT ?GetString@?$CSimpleStringT@D$0A@@ATL@@QBEPBDXZ
_TEXT	SEGMENT
?GetString@?$CSimpleStringT@D$0A@@ATL@@QBEPBDXZ PROC NEAR ; ATL::CSimpleStringT<char,0>::GetString, COMDAT
; _this$ = ecx

; 510  : 		return( m_pszData );

  00000	8b 01		 mov	 eax, DWORD PTR [ecx]

; 511  : 	}

  00002	c3		 ret	 0
?GetString@?$CSimpleStringT@D$0A@@ATL@@QBEPBDXZ ENDP	; ATL::CSimpleStringT<char,0>::GetString
_TEXT	ENDS
PUBLIC	?StringLength@?$CSimpleStringT@D$0A@@ATL@@SAHPBD@Z ; ATL::CSimpleStringT<char,0>::StringLength
; Function compile flags: /Ogty
;	COMDAT ?StringLength@?$CSimpleStringT@D$0A@@ATL@@SAHPBD@Z
_TEXT	SEGMENT
_psz$ = 8						; size = 4
?StringLength@?$CSimpleStringT@D$0A@@ATL@@SAHPBD@Z PROC NEAR ; ATL::CSimpleStringT<char,0>::StringLength, COMDAT

; 678  : 		if( psz == NULL )

  00000	8b 44 24 04	 mov	 eax, DWORD PTR _psz$[esp-4]
  00004	85 c0		 test	 eax, eax
  00006	75 01		 jne	 SHORT $L219971

; 683  : 	}

  00008	c3		 ret	 0
$L219971:

; 679  : 		{
; 680  : 			return( 0 );
; 681  : 		}
; 682  : 		return( int( strlen( psz ) ) );

  00009	8d 50 01	 lea	 edx, DWORD PTR [eax+1]
  0000c	8d 64 24 00	 npad	 4
$L258267:
  00010	8a 08		 mov	 cl, BYTE PTR [eax]
  00012	40		 inc	 eax
  00013	84 c9		 test	 cl, cl
  00015	75 f9		 jne	 SHORT $L258267
  00017	2b c2		 sub	 eax, edx

; 683  : 	}

  00019	c3		 ret	 0
?StringLength@?$CSimpleStringT@D$0A@@ATL@@SAHPBD@Z ENDP	; ATL::CSimpleStringT<char,0>::StringLength
_TEXT	ENDS
PUBLIC	?GetData@?$CSimpleStringT@D$0A@@ATL@@ABEPAUCStringData@2@XZ ; ATL::CSimpleStringT<char,0>::GetData
; Function compile flags: /Ogty
;	COMDAT ?GetData@?$CSimpleStringT@D$0A@@ATL@@ABEPAUCStringData@2@XZ
_TEXT	SEGMENT
?GetData@?$CSimpleStringT@D$0A@@ATL@@ABEPAUCStringData@2@XZ PROC NEAR ; ATL::CSimpleStringT<char,0>::GetData, COMDAT
; _this$ = ecx

; 731  : 		return( reinterpret_cast< CStringData* >( m_pszData )-1 );

  00000	8b 01		 mov	 eax, DWORD PTR [ecx]
  00002	83 e8 10	 sub	 eax, 16			; 00000010H

; 732  : 	}

  00005	c3		 ret	 0
?GetData@?$CSimpleStringT@D$0A@@ATL@@ABEPAUCStringData@2@XZ ENDP ; ATL::CSimpleStringT<char,0>::GetData
_TEXT	ENDS
PUBLIC	?SetLength@?$CSimpleStringT@D$0A@@ATL@@AAEXH@Z	; ATL::CSimpleStringT<char,0>::SetLength
; Function compile flags: /Ogty
;	COMDAT ?SetLength@?$CSimpleStringT@D$0A@@ATL@@AAEXH@Z
_TEXT	SEGMENT
_nLength$ = 8						; size = 4
?SetLength@?$CSimpleStringT@D$0A@@ATL@@AAEXH@Z PROC NEAR ; ATL::CSimpleStringT<char,0>::SetLength, COMDAT
; _this$ = ecx

; 790  : 		ATLASSERT( nLength >= 0 );
; 791  : 		ATLASSERT( nLength <= GetData()->nAllocLength );
; 792  : 
; 793  : 		if( nLength < 0 || nLength > GetData()->nAllocLength)

  00000	8b 44 24 04	 mov	 eax, DWORD PTR _nLength$[esp-4]
  00004	85 c0		 test	 eax, eax
  00006	7c 13		 jl	 SHORT $L219986
  00008	8b 11		 mov	 edx, DWORD PTR [ecx]
  0000a	3b 42 f8	 cmp	 eax, DWORD PTR [edx-8]
  0000d	7f 0c		 jg	 SHORT $L219986

; 794  : 			AtlThrow(E_INVALIDARG);
; 795  : 			
; 796  : 		GetData()->nDataLength = nLength;

  0000f	89 42 f4	 mov	 DWORD PTR [edx-12], eax

; 797  : 		m_pszData[nLength] = 0;

  00012	8b 09		 mov	 ecx, DWORD PTR [ecx]
  00014	c6 04 08 00	 mov	 BYTE PTR [eax+ecx], 0

; 798  : 	}

  00018	c2 04 00	 ret	 4
$L219986:
  0001b	68 57 00 07 80	 push	 -2147024809		; 80070057H
  00020	e8 00 00 00 00	 call	 ?AtlThrow@ATL@@YGXJ@Z	; ATL::AtlThrow
$L258281:
$L258280:
  00025	cc		 int	 3
?SetLength@?$CSimpleStringT@D$0A@@ATL@@AAEXH@Z ENDP	; ATL::CSimpleStringT<char,0>::SetLength
_TEXT	ENDS
PUBLIC	?FindStringResourceInstance@?$StrTraitMFC@DV?$ChTraitsCRT@D@ATL@@@@SAPAUHINSTANCE__@@I@Z ; StrTraitMFC<char,ATL::ChTraitsCRT<char> >::FindStringResourceInstance
EXTRN	?AfxFindStringResourceHandle@@YGPAUHINSTANCE__@@I@Z:NEAR ; AfxFindStringResourceHandle
; Function compile flags: /Ogty
; File c:\program files\microsoft visual studio .net 2003\vc7\atlmfc\include\afxstr.h
;	COMDAT ?FindStringResourceInstance@?$StrTraitMFC@DV?$ChTraitsCRT@D@ATL@@@@SAPAUHINSTANCE__@@I@Z
_TEXT	SEGMENT
_nID$ = 8						; size = 4
?FindStringResourceInstance@?$StrTraitMFC@DV?$ChTraitsCRT@D@ATL@@@@SAPAUHINSTANCE__@@I@Z PROC NEAR ; StrTraitMFC<char,ATL::ChTraitsCRT<char> >::FindStringResourceInstance, COMDAT

; 45   : 		return( AfxFindStringResourceHandle( nID ) );

  00000	8b 44 24 04	 mov	 eax, DWORD PTR _nID$[esp-4]
  00004	50		 push	 eax
  00005	e8 00 00 00 00	 call	 ?AfxFindStringResourceHandle@@YGPAUHINSTANCE__@@I@Z ; AfxFindStringResourceHandle

; 46   : 	}

  0000a	c3		 ret	 0
?FindStringResourceInstance@?$StrTraitMFC@DV?$ChTraitsCRT@D@ATL@@@@SAPAUHINSTANCE__@@I@Z ENDP ; StrTraitMFC<char,ATL::ChTraitsCRT<char> >::FindStringResourceInstance
_TEXT	ENDS
PUBLIC	?GetDefaultManager@?$StrTraitMFC@DV?$ChTraitsCRT@D@ATL@@@@SAPAUIAtlStringMgr@ATL@@XZ ; StrTraitMFC<char,ATL::ChTraitsCRT<char> >::GetDefaultManager
EXTRN	?AfxGetStringManager@@YGPAUIAtlStringMgr@ATL@@XZ:NEAR ; AfxGetStringManager
; Function compile flags: /Ogty
;	COMDAT ?GetDefaultManager@?$StrTraitMFC@DV?$ChTraitsCRT@D@ATL@@@@SAPAUIAtlStringMgr@ATL@@XZ
_TEXT	SEGMENT
?GetDefaultManager@?$StrTraitMFC@DV?$ChTraitsCRT@D@ATL@@@@SAPAUIAtlStringMgr@ATL@@XZ PROC NEAR ; StrTraitMFC<char,ATL::ChTraitsCRT<char> >::GetDefaultManager, COMDAT

; 50   : 		return( AfxGetStringManager() );

  00000	e9 00 00 00 00	 jmp	 ?AfxGetStringManager@@YGPAUIAtlStringMgr@ATL@@XZ ; AfxGetStringManager
?GetDefaultManager@?$StrTraitMFC@DV?$ChTraitsCRT@D@ATL@@@@SAPAUIAtlStringMgr@ATL@@XZ ENDP ; StrTraitMFC<char,ATL::ChTraitsCRT<char> >::GetDefaultManager
_TEXT	ENDS
PUBLIC	??R?$less@K@std@@QBE_NABK0@Z			; std::less<unsigned long>::operator()
; Function compile flags: /Ogty
; File c:\program files\microsoft visual studio .net 2003\vc7\include\functional
;	COMDAT ??R?$less@K@std@@QBE_NABK0@Z
_TEXT	SEGMENT
__Left$ = 8						; size = 4
__Right$ = 12						; size = 4
??R?$less@K@std@@QBE_NABK0@Z PROC NEAR			; std::less<unsigned long>::operator(), COMDAT
; _this$ = ecx

; 139  : 		return (_Left < _Right);

  00000	8b 44 24 04	 mov	 eax, DWORD PTR __Left$[esp-4]
  00004	8b 08		 mov	 ecx, DWORD PTR [eax]
  00006	8b 54 24 08	 mov	 edx, DWORD PTR __Right$[esp-4]
  0000a	3b 0a		 cmp	 ecx, DWORD PTR [edx]
  0000c	1b c0		 sbb	 eax, eax
  0000e	f7 d8		 neg	 eax

; 140  : 		}

  00010	c2 08 00	 ret	 8
??R?$less@K@std@@QBE_NABK0@Z ENDP			; std::less<unsigned long>::operator()
_TEXT	ENDS
PUBLIC	??8const_iterator@?$_Tree@V?$_Tmap_traits@KPAVCMover@@U?$less@K@std@@V?$allocator@U?$pair@$$CBKPAVCMover@@@std@@@3@$0A@@std@@@std@@QBE_NABV012@@Z ; std::_Tree<std::_Tmap_traits<unsigned long,CMover *,std::less<unsigned long>,std::allocator<std::pair<unsigned long const ,CMover *> >,0> >::const_iterator::operator==
; Function compile flags: /Ogty
; File c:\program files\microsoft visual studio .net 2003\vc7\include\xtree
;	COMDAT ??8const_iterator@?$_Tree@V?$_Tmap_traits@KPAVCMover@@U?$less@K@std@@V?$allocator@U?$pair@$$CBKPAVCMover@@@std@@@3@$0A@@std@@@std@@QBE_NABV012@@Z
_TEXT	SEGMENT
__Right$ = 8						; size = 4
??8const_iterator@?$_Tree@V?$_Tmap_traits@KPAVCMover@@U?$less@K@std@@V?$allocator@U?$pair@$$CBKPAVCMover@@@std@@@3@$0A@@std@@@std@@QBE_NABV012@@Z PROC NEAR ; std::_Tree<std::_Tmap_traits<unsigned long,CMover *,std::less<unsigned long>,std::allocator<std::pair<unsigned long const ,CMover *> >,0> >::const_iterator::operator==, COMDAT
; _this$ = ecx

; 241  : 			return (_Ptr == _Right._Ptr);

  00000	8b 01		 mov	 eax, DWORD PTR [ecx]
  00002	8b 4c 24 04	 mov	 ecx, DWORD PTR __Right$[esp-4]
  00006	2b 01		 sub	 eax, DWORD PTR [ecx]
  00008	f7 d8		 neg	 eax
  0000a	1b c0		 sbb	 eax, eax
  0000c	40		 inc	 eax

; 242  : 			}

  0000d	c2 04 00	 ret	 4
??8const_iterator@?$_Tree@V?$_Tmap_traits@KPAVCMover@@U?$less@K@std@@V?$allocator@U?$pair@$$CBKPAVCMover@@@std@@@3@$0A@@std@@@std@@QBE_NABV012@@Z ENDP ; std::_Tree<std::_Tmap_traits<unsigned long,CMover *,std::less<unsigned long>,std::allocator<std::pair<unsigned long const ,CMover *> >,0> >::const_iterator::operator==
_TEXT	ENDS
PUBLIC	?_Mynode@const_iterator@?$_Tree@V?$_Tmap_traits@KPAVCMover@@U?$less@K@std@@V?$allocator@U?$pair@$$CBKPAVCMover@@@std@@@3@$0A@@std@@@std@@QBEPAU_Node@?$_Tree_nod@V?$_Tmap_traits@KPAVCMover@@U?$less@K@std@@V?$allocator@U?$pair@$$CBKPAVCMover@@@std@@@3@$0A@@std@@@3@XZ ; std::_Tree<std::_Tmap_traits<unsigned long,CMover *,std::less<unsigned long>,std::allocator<std::pair<unsigned long const ,CMover *> >,0> >::const_iterator::_Mynode
; Function compile flags: /Ogty
;	COMDAT ?_Mynode@const_iterator@?$_Tree@V?$_Tmap_traits@KPAVCMover@@U?$less@K@std@@V?$allocator@U?$pair@$$CBKPAVCMover@@@std@@@3@$0A@@std@@@std@@QBEPAU_Node@?$_Tree_nod@V?$_Tmap_traits@KPAVCMover@@U?$less@K@std@@V?$allocator@U?$pair@$$CBKPAVCMover@@@std@@@3@$0A@@std@@@3@XZ
_TEXT	SEGMENT
?_Mynode@const_iterator@?$_Tree@V?$_Tmap_traits@KPAVCMover@@U?$less@K@std@@V?$allocator@U?$pair@$$CBKPAVCMover@@@std@@@3@$0A@@std@@@std@@QBEPAU_Node@?$_Tree_nod@V?$_Tmap_traits@KPAVCMover@@U?$less@K@std@@V?$allocator@U?$pair@$$CBKPAVCMover@@@std@@@3@$0A@@std@@@3@XZ PROC NEAR ; std::_Tree<std::_Tmap_traits<unsigned long,CMover *,std::less<unsigned long>,std::allocator<std::pair<unsigned long const ,CMover *> >,0> >::const_iterator::_Mynode, COMDAT
; _this$ = ecx

; 284  : 			return (_Ptr);

  00000	8b 01		 mov	 eax, DWORD PTR [ecx]

; 285  : 			}

  00002	c3		 ret	 0
?_Mynode@const_iterator@?$_Tree@V?$_Tmap_traits@KPAVCMover@@U?$less@K@std@@V?$allocator@U?$pair@$$CBKPAVCMover@@@std@@@3@$0A@@std@@@std@@QBEPAU_Node@?$_Tree_nod@V?$_Tmap_traits@KPAVCMover@@U?$less@K@std@@V?$allocator@U?$pair@$$CBKPAVCMover@@@std@@@3@$0A@@std@@@3@XZ ENDP ; std::_Tree<std::_Tmap_traits<unsigned long,CMover *,std::less<unsigned long>,std::allocator<std::pair<unsigned long const ,CMover *> >,0> >::const_iterator::_Mynode
_TEXT	ENDS
PUBLIC	?Attach@?$CSimpleStringT@D$0A@@ATL@@AAEXPAUCStringData@2@@Z ; ATL::CSimpleStringT<char,0>::Attach
; Function compile flags: /Ogty
; File c:\program files\microsoft visual studio .net 2003\vc7\atlmfc\include\atlsimpstr.h
;	COMDAT ?Attach@?$CSimpleStringT@D$0A@@ATL@@AAEXPAUCStringData@2@@Z
_TEXT	SEGMENT
_pData$ = 8						; size = 4
?Attach@?$CSimpleStringT@D$0A@@ATL@@AAEXPAUCStringData@2@@Z PROC NEAR ; ATL::CSimpleStringT<char,0>::Attach, COMDAT
; _this$ = ecx

; 712  : 		m_pszData = static_cast< PXSTR >( pData->data() );

  00000	8b 44 24 04	 mov	 eax, DWORD PTR _pData$[esp-4]
  00004	83 c0 10	 add	 eax, 16			; 00000010H
  00007	89 01		 mov	 DWORD PTR [ecx], eax

; 713  : 	}

  00009	c2 04 00	 ret	 4
?Attach@?$CSimpleStringT@D$0A@@ATL@@AAEXPAUCStringData@2@@Z ENDP ; ATL::CSimpleStringT<char,0>::Attach
_TEXT	ENDS
PUBLIC	?GetFormattedLength@?$ChTraitsCRT@D@ATL@@SAHPBDPAD@Z ; ATL::ChTraitsCRT<char>::GetFormattedLength
EXTRN	__vscprintf:NEAR
; Function compile flags: /Ogty
; File c:\program files\microsoft visual studio .net 2003\vc7\atlmfc\include\cstringt.h
;	COMDAT ?GetFormattedLength@?$ChTraitsCRT@D@ATL@@SAHPBDPAD@Z
_TEXT	SEGMENT
_pszFormat$ = 8						; size = 4
_args$ = 12						; size = 4
?GetFormattedLength@?$ChTraitsCRT@D@ATL@@SAHPBDPAD@Z PROC NEAR ; ATL::ChTraitsCRT<char>::GetFormattedLength, COMDAT

; 408  : 		return _vscprintf( pszFormat, args );

  00000	e9 00 00 00 00	 jmp	 __vscprintf
?GetFormattedLength@?$ChTraitsCRT@D@ATL@@SAHPBDPAD@Z ENDP ; ATL::ChTraitsCRT<char>::GetFormattedLength
_TEXT	ENDS
PUBLIC	?Format@?$ChTraitsCRT@D@ATL@@SAHPADPBD0@Z	; ATL::ChTraitsCRT<char>::Format
EXTRN	_vsprintf:NEAR
; Function compile flags: /Ogty
;	COMDAT ?Format@?$ChTraitsCRT@D@ATL@@SAHPADPBD0@Z
_TEXT	SEGMENT
_pszBuffer$ = 8						; size = 4
_pszFormat$ = 12					; size = 4
_args$ = 16						; size = 4
?Format@?$ChTraitsCRT@D@ATL@@SAHPADPBD0@Z PROC NEAR	; ATL::ChTraitsCRT<char>::Format, COMDAT

; 413  : 		return vsprintf( pszBuffer, pszFormat, args );

  00000	e9 00 00 00 00	 jmp	 _vsprintf
?Format@?$ChTraitsCRT@D@ATL@@SAHPADPBD0@Z ENDP		; ATL::ChTraitsCRT<char>::Format
_TEXT	ENDS
PUBLIC	?GetBaseTypeLength@?$ChTraitsCRT@D@ATL@@SAHPBGH@Z ; ATL::ChTraitsCRT<char>::GetBaseTypeLength
EXTRN	__imp__WideCharToMultiByte@32:NEAR
; Function compile flags: /Ogty
;	COMDAT ?GetBaseTypeLength@?$ChTraitsCRT@D@ATL@@SAHPBGH@Z
_TEXT	SEGMENT
_pszSource$ = 8						; size = 4
_nLength$ = 12						; size = 4
?GetBaseTypeLength@?$ChTraitsCRT@D@ATL@@SAHPBGH@Z PROC NEAR ; ATL::ChTraitsCRT<char>::GetBaseTypeLength, COMDAT

; 437  : 		// Returns required buffer length in XCHARs
; 438  : 		return ::WideCharToMultiByte( _AtlGetConversionACP(), 0, pszSource, nLength, NULL, 0, NULL, NULL );

  00000	ff 15 00 00 00
	00		 call	 DWORD PTR ?g_pfnGetThreadACP@ATL@@3P6GIXZA ; ATL::g_pfnGetThreadACP
  00006	8b 4c 24 08	 mov	 ecx, DWORD PTR _nLength$[esp-4]
  0000a	8b 54 24 04	 mov	 edx, DWORD PTR _pszSource$[esp-4]
  0000e	6a 00		 push	 0
  00010	6a 00		 push	 0
  00012	6a 00		 push	 0
  00014	6a 00		 push	 0
  00016	51		 push	 ecx
  00017	52		 push	 edx
  00018	6a 00		 push	 0
  0001a	50		 push	 eax
  0001b	ff 15 00 00 00
	00		 call	 DWORD PTR __imp__WideCharToMultiByte@32

; 439  : 	}

  00021	c3		 ret	 0
?GetBaseTypeLength@?$ChTraitsCRT@D@ATL@@SAHPBGH@Z ENDP	; ATL::ChTraitsCRT<char>::GetBaseTypeLength
_TEXT	ENDS
PUBLIC	?ConvertToBaseType@?$ChTraitsCRT@D@ATL@@SAXPADHPBGH@Z ; ATL::ChTraitsCRT<char>::ConvertToBaseType
; Function compile flags: /Ogty
;	COMDAT ?ConvertToBaseType@?$ChTraitsCRT@D@ATL@@SAXPADHPBGH@Z
_TEXT	SEGMENT
_pszDest$ = 8						; size = 4
_nDestLength$ = 12					; size = 4
_pszSrc$ = 16						; size = 4
_nSrcLength$ = 20					; size = 4
?ConvertToBaseType@?$ChTraitsCRT@D@ATL@@SAXPADHPBGH@Z PROC NEAR ; ATL::ChTraitsCRT<char>::ConvertToBaseType, COMDAT

; 452  : 		// nLen is in XCHARs
; 453  : 		::WideCharToMultiByte( _AtlGetConversionACP(), 0, pszSrc, nSrcLength, pszDest, nDestLength, NULL, NULL );

  00000	8b 44 24 08	 mov	 eax, DWORD PTR _nDestLength$[esp-4]
  00004	8b 4c 24 04	 mov	 ecx, DWORD PTR _pszDest$[esp-4]
  00008	8b 54 24 10	 mov	 edx, DWORD PTR _nSrcLength$[esp-4]
  0000c	6a 00		 push	 0
  0000e	6a 00		 push	 0
  00010	50		 push	 eax
  00011	8b 44 24 18	 mov	 eax, DWORD PTR _pszSrc$[esp+8]
  00015	51		 push	 ecx
  00016	52		 push	 edx
  00017	50		 push	 eax
  00018	6a 00		 push	 0
  0001a	ff 15 00 00 00
	00		 call	 DWORD PTR ?g_pfnGetThreadACP@ATL@@3P6GIXZA ; ATL::g_pfnGetThreadACP
  00020	50		 push	 eax
  00021	ff 15 00 00 00
	00		 call	 DWORD PTR __imp__WideCharToMultiByte@32

; 454  : 	}

  00027	c3		 ret	 0
?ConvertToBaseType@?$ChTraitsCRT@D@ATL@@SAXPADHPBGH@Z ENDP ; ATL::ChTraitsCRT<char>::ConvertToBaseType
_TEXT	ENDS
PUBLIC	?_Myval@?$_Tree@V?$_Tmap_traits@KPAVCMover@@U?$less@K@std@@V?$allocator@U?$pair@$$CBKPAVCMover@@@std@@@3@$0A@@std@@@std@@KAAAU?$pair@$$CBKPAVCMover@@@2@PAU_Node@?$_Tree_nod@V?$_Tmap_traits@KPAVCMover@@U?$less@K@std@@V?$allocator@U?$pair@$$CBKPAVCMover@@@std@@@3@$0A@@std@@@2@@Z ; std::_Tree<std::_Tmap_traits<unsigned long,CMover *,std::less<unsigned long>,std::allocator<std::pair<unsigned long const ,CMover *> >,0> >::_Myval
; Function compile flags: /Ogty
; File c:\program files\microsoft visual studio .net 2003\vc7\include\xtree
;	COMDAT ?_Myval@?$_Tree@V?$_Tmap_traits@KPAVCMover@@U?$less@K@std@@V?$allocator@U?$pair@$$CBKPAVCMover@@@std@@@3@$0A@@std@@@std@@KAAAU?$pair@$$CBKPAVCMover@@@2@PAU_Node@?$_Tree_nod@V?$_Tmap_traits@KPAVCMover@@U?$less@K@std@@V?$allocator@U?$pair@$$CBKPAVCMover@@@std@@@3@$0A@@std@@@2@@Z
_TEXT	SEGMENT
__Pnode$ = 8						; size = 4
?_Myval@?$_Tree@V?$_Tmap_traits@KPAVCMover@@U?$less@K@std@@V?$allocator@U?$pair@$$CBKPAVCMover@@@std@@@3@$0A@@std@@@std@@KAAAU?$pair@$$CBKPAVCMover@@@2@PAU_Node@?$_Tree_nod@V?$_Tmap_traits@KPAVCMover@@U?$less@K@std@@V?$allocator@U?$pair@$$CBKPAVCMover@@@std@@@3@$0A@@std@@@2@@Z PROC NEAR ; std::_Tree<std::_Tmap_traits<unsigned long,CMover *,std::less<unsigned long>,std::allocator<std::pair<unsigned long const ,CMover *> >,0> >::_Myval, COMDAT

; 162  : 		return ((_Vref)(*_Pnode)._Myval);

  00000	8b 44 24 04	 mov	 eax, DWORD PTR __Pnode$[esp-4]
  00004	83 c0 0c	 add	 eax, 12			; 0000000cH

; 163  : 		}

  00007	c3		 ret	 0
?_Myval@?$_Tree@V?$_Tmap_traits@KPAVCMover@@U?$less@K@std@@V?$allocator@U?$pair@$$CBKPAVCMover@@@std@@@3@$0A@@std@@@std@@KAAAU?$pair@$$CBKPAVCMover@@@2@PAU_Node@?$_Tree_nod@V?$_Tmap_traits@KPAVCMover@@U?$less@K@std@@V?$allocator@U?$pair@$$CBKPAVCMover@@@std@@@3@$0A@@std@@@2@@Z ENDP ; std::_Tree<std::_Tmap_traits<unsigned long,CMover *,std::less<unsigned long>,std::allocator<std::pair<unsigned long const ,CMover *> >,0> >::_Myval
_TEXT	ENDS
PUBLIC	?_Kfn@?$_Tmap_traits@KPAVCMover@@U?$less@K@std@@V?$allocator@U?$pair@$$CBKPAVCMover@@@std@@@3@$0A@@std@@SAABKABU?$pair@$$CBKPAVCMover@@@2@@Z ; std::_Tmap_traits<unsigned long,CMover *,std::less<unsigned long>,std::allocator<std::pair<unsigned long const ,CMover *> >,0>::_Kfn
; Function compile flags: /Ogty
; File c:\program files\microsoft visual studio .net 2003\vc7\include\map
;	COMDAT ?_Kfn@?$_Tmap_traits@KPAVCMover@@U?$less@K@std@@V?$allocator@U?$pair@$$CBKPAVCMover@@@std@@@3@$0A@@std@@SAABKABU?$pair@$$CBKPAVCMover@@@2@@Z
_TEXT	SEGMENT
__Val$ = 8						; size = 4
?_Kfn@?$_Tmap_traits@KPAVCMover@@U?$less@K@std@@V?$allocator@U?$pair@$$CBKPAVCMover@@@std@@@3@$0A@@std@@SAABKABU?$pair@$$CBKPAVCMover@@@2@@Z PROC NEAR ; std::_Tmap_traits<unsigned long,CMover *,std::less<unsigned long>,std::allocator<std::pair<unsigned long const ,CMover *> >,0>::_Kfn, COMDAT

; 64   : 		return (_Val.first);

  00000	8b 44 24 04	 mov	 eax, DWORD PTR __Val$[esp-4]

; 65   : 		}

  00004	c3		 ret	 0
?_Kfn@?$_Tmap_traits@KPAVCMover@@U?$less@K@std@@V?$allocator@U?$pair@$$CBKPAVCMover@@@std@@@3@$0A@@std@@SAABKABU?$pair@$$CBKPAVCMover@@@2@@Z ENDP ; std::_Tmap_traits<unsigned long,CMover *,std::less<unsigned long>,std::allocator<std::pair<unsigned long const ,CMover *> >,0>::_Kfn
_TEXT	ENDS
PUBLIC	??0const_iterator@?$_Tree@V?$_Tmap_traits@KPAVCMover@@U?$less@K@std@@V?$allocator@U?$pair@$$CBKPAVCMover@@@std@@@3@$0A@@std@@@std@@QAE@PAU_Node@?$_Tree_nod@V?$_Tmap_traits@KPAVCMover@@U?$less@K@std@@V?$allocator@U?$pair@$$CBKPAVCMover@@@std@@@3@$0A@@std@@@2@@Z ; std::_Tree<std::_Tmap_traits<unsigned long,CMover *,std::less<unsigned long>,std::allocator<std::pair<unsigned long const ,CMover *> >,0> >::const_iterator::const_iterator
; Function compile flags: /Ogty
; File c:\program files\microsoft visual studio .net 2003\vc7\include\xtree
;	COMDAT ??0const_iterator@?$_Tree@V?$_Tmap_traits@KPAVCMover@@U?$less@K@std@@V?$allocator@U?$pair@$$CBKPAVCMover@@@std@@@3@$0A@@std@@@std@@QAE@PAU_Node@?$_Tree_nod@V?$_Tmap_traits@KPAVCMover@@U?$less@K@std@@V?$allocator@U?$pair@$$CBKPAVCMover@@@std@@@3@$0A@@std@@@2@@Z
_TEXT	SEGMENT
__Pnode$ = 8						; size = 4
??0const_iterator@?$_Tree@V?$_Tmap_traits@KPAVCMover@@U?$less@K@std@@V?$allocator@U?$pair@$$CBKPAVCMover@@@std@@@3@$0A@@std@@@std@@QAE@PAU_Node@?$_Tree_nod@V?$_Tmap_traits@KPAVCMover@@U?$less@K@std@@V?$allocator@U?$pair@$$CBKPAVCMover@@@std@@@3@$0A@@std@@@2@@Z PROC NEAR ; std::_Tree<std::_Tmap_traits<unsigned long,CMover *,std::less<unsigned long>,std::allocator<std::pair<unsigned long const ,CMover *> >,0> >::const_iterator::const_iterator, COMDAT
; _this$ = ecx

; 200  : 			{	// construct with node pointer _Pnode

  00000	8b c1		 mov	 eax, ecx
  00002	8b 4c 24 04	 mov	 ecx, DWORD PTR __Pnode$[esp-4]
  00006	89 08		 mov	 DWORD PTR [eax], ecx

; 201  : 			}

  00008	c2 04 00	 ret	 4
??0const_iterator@?$_Tree@V?$_Tmap_traits@KPAVCMover@@U?$less@K@std@@V?$allocator@U?$pair@$$CBKPAVCMover@@@std@@@3@$0A@@std@@@std@@QAE@PAU_Node@?$_Tree_nod@V?$_Tmap_traits@KPAVCMover@@U?$less@K@std@@V?$allocator@U?$pair@$$CBKPAVCMover@@@std@@@3@$0A@@std@@@2@@Z ENDP ; std::_Tree<std::_Tmap_traits<unsigned long,CMover *,std::less<unsigned long>,std::allocator<std::pair<unsigned long const ,CMover *> >,0> >::const_iterator::const_iterator
_TEXT	ENDS
PUBLIC	??Dconst_iterator@?$_Tree@V?$_Tmap_traits@KPAVCMover@@U?$less@K@std@@V?$allocator@U?$pair@$$CBKPAVCMover@@@std@@@3@$0A@@std@@@std@@QBEABU?$pair@$$CBKPAVCMover@@@2@XZ ; std::_Tree<std::_Tmap_traits<unsigned long,CMover *,std::less<unsigned long>,std::allocator<std::pair<unsigned long const ,CMover *> >,0> >::const_iterator::operator*
; Function compile flags: /Ogty
;	COMDAT ??Dconst_iterator@?$_Tree@V?$_Tmap_traits@KPAVCMover@@U?$less@K@std@@V?$allocator@U?$pair@$$CBKPAVCMover@@@std@@@3@$0A@@std@@@std@@QBEABU?$pair@$$CBKPAVCMover@@@2@XZ
_TEXT	SEGMENT
??Dconst_iterator@?$_Tree@V?$_Tmap_traits@KPAVCMover@@U?$less@K@std@@V?$allocator@U?$pair@$$CBKPAVCMover@@@std@@@3@$0A@@std@@@std@@QBEABU?$pair@$$CBKPAVCMover@@@2@XZ PROC NEAR ; std::_Tree<std::_Tmap_traits<unsigned long,CMover *,std::less<unsigned long>,std::allocator<std::pair<unsigned long const ,CMover *> >,0> >::const_iterator::operator*, COMDAT
; _this$ = ecx

; 205  : 			return (_Myval(_Ptr));

  00000	8b 01		 mov	 eax, DWORD PTR [ecx]
  00002	83 c0 0c	 add	 eax, 12			; 0000000cH

; 206  : 			}

  00005	c3		 ret	 0
??Dconst_iterator@?$_Tree@V?$_Tmap_traits@KPAVCMover@@U?$less@K@std@@V?$allocator@U?$pair@$$CBKPAVCMover@@@std@@@3@$0A@@std@@@std@@QBEABU?$pair@$$CBKPAVCMover@@@2@XZ ENDP ; std::_Tree<std::_Tmap_traits<unsigned long,CMover *,std::less<unsigned long>,std::allocator<std::pair<unsigned long const ,CMover *> >,0> >::const_iterator::operator*
_TEXT	ENDS
PUBLIC	?CopyChars@?$CSimpleStringT@D$0A@@ATL@@SAXPADPBDH@Z ; ATL::CSimpleStringT<char,0>::CopyChars
; Function compile flags: /Ogty
; File c:\program files\microsoft visual studio .net 2003\vc7\atlmfc\include\atlsimpstr.h
;	COMDAT ?CopyChars@?$CSimpleStringT@D$0A@@ATL@@SAXPADPBDH@Z
_TEXT	SEGMENT
_pchDest$ = 8						; size = 4
_pchSrc$ = 12						; size = 4
_nChars$ = 16						; size = 4
?CopyChars@?$CSimpleStringT@D$0A@@ATL@@SAXPADPBDH@Z PROC NEAR ; ATL::CSimpleStringT<char,0>::CopyChars, COMDAT

; 653  : 		memcpy( pchDest, pchSrc, nChars*sizeof( XCHAR ) );

  00000	8b 4c 24 0c	 mov	 ecx, DWORD PTR _nChars$[esp-4]
  00004	56		 push	 esi
  00005	8b 74 24 0c	 mov	 esi, DWORD PTR _pchSrc$[esp]
  00009	8b c1		 mov	 eax, ecx
  0000b	57		 push	 edi
  0000c	8b 7c 24 0c	 mov	 edi, DWORD PTR _pchDest$[esp+4]
  00010	c1 e9 02	 shr	 ecx, 2
  00013	f3 a5		 rep movsd
  00015	8b c8		 mov	 ecx, eax
  00017	83 e1 03	 and	 ecx, 3
  0001a	f3 a4		 rep movsb
  0001c	5f		 pop	 edi
  0001d	5e		 pop	 esi

; 654  : 	}

  0001e	c3		 ret	 0
?CopyChars@?$CSimpleStringT@D$0A@@ATL@@SAXPADPBDH@Z ENDP ; ATL::CSimpleStringT<char,0>::CopyChars
_TEXT	ENDS
PUBLIC	?CopyCharsOverlapped@?$CSimpleStringT@D$0A@@ATL@@SAXPADPBDH@Z ; ATL::CSimpleStringT<char,0>::CopyCharsOverlapped
EXTRN	_memmove:NEAR
; Function compile flags: /Ogty
;	COMDAT ?CopyCharsOverlapped@?$CSimpleStringT@D$0A@@ATL@@SAXPADPBDH@Z
_TEXT	SEGMENT
_pchDest$ = 8						; size = 4
_pchSrc$ = 12						; size = 4
_nChars$ = 16						; size = 4
?CopyCharsOverlapped@?$CSimpleStringT@D$0A@@ATL@@SAXPADPBDH@Z PROC NEAR ; ATL::CSimpleStringT<char,0>::CopyCharsOverlapped, COMDAT

; 657  : 		memmove( pchDest, pchSrc, nChars*sizeof( XCHAR ) );

  00000	e9 00 00 00 00	 jmp	 _memmove
?CopyCharsOverlapped@?$CSimpleStringT@D$0A@@ATL@@SAXPADPBDH@Z ENDP ; ATL::CSimpleStringT<char,0>::CopyCharsOverlapped
_TEXT	ENDS
PUBLIC	?ThrowMemoryException@?$CSimpleStringT@D$0A@@ATL@@KAXXZ ; ATL::CSimpleStringT<char,0>::ThrowMemoryException
; Function compile flags: /Ogty
;	COMDAT ?ThrowMemoryException@?$CSimpleStringT@D$0A@@ATL@@KAXXZ
_TEXT	SEGMENT
?ThrowMemoryException@?$CSimpleStringT@D$0A@@ATL@@KAXXZ PROC NEAR ; ATL::CSimpleStringT<char,0>::ThrowMemoryException, COMDAT

; 705  : 		AtlThrow( E_OUTOFMEMORY );

  00000	68 0e 00 07 80	 push	 -2147024882		; 8007000eH
  00005	e8 00 00 00 00	 call	 ?AtlThrow@ATL@@YGXJ@Z	; ATL::AtlThrow
$L258350:
$L258349:
  0000a	cc		 int	 3
?ThrowMemoryException@?$CSimpleStringT@D$0A@@ATL@@KAXXZ ENDP ; ATL::CSimpleStringT<char,0>::ThrowMemoryException
_TEXT	ENDS
PUBLIC	?Fork@?$CSimpleStringT@D$0A@@ATL@@AAEXH@Z	; ATL::CSimpleStringT<char,0>::Fork
; Function compile flags: /Ogty
;	COMDAT ?Fork@?$CSimpleStringT@D$0A@@ATL@@AAEXH@Z
_TEXT	SEGMENT
_this$ = -4						; size = 4
tv181 = 8						; size = 4
_nLength$ = 8						; size = 4
?Fork@?$CSimpleStringT@D$0A@@ATL@@AAEXH@Z PROC NEAR	; ATL::CSimpleStringT<char,0>::Fork, COMDAT
; _this$ = ecx

; 715  : 	{

  00000	51		 push	 ecx
  00001	53		 push	 ebx

; 716  : 		CStringData* pOldData = GetData();

  00002	8b 19		 mov	 ebx, DWORD PTR [ecx]
  00004	83 eb 10	 sub	 ebx, 16			; 00000010H
  00007	55		 push	 ebp

; 717  : 		int nOldLength = pOldData->nDataLength;

  00008	8b 6b 04	 mov	 ebp, DWORD PTR [ebx+4]
  0000b	89 4c 24 08	 mov	 DWORD PTR _this$[esp+12], ecx

; 718  : 		CStringData* pNewData = pOldData->pStringMgr->Clone()->Allocate( nLength, sizeof( XCHAR ) );

  0000f	8b 0b		 mov	 ecx, DWORD PTR [ebx]
  00011	8b 01		 mov	 eax, DWORD PTR [ecx]
  00013	56		 push	 esi
  00014	ff 50 10	 call	 DWORD PTR [eax+16]
  00017	8b 74 24 14	 mov	 esi, DWORD PTR _nLength$[esp+12]
  0001b	8b 10		 mov	 edx, DWORD PTR [eax]
  0001d	6a 01		 push	 1
  0001f	56		 push	 esi
  00020	8b c8		 mov	 ecx, eax
  00022	ff 12		 call	 DWORD PTR [edx]

; 719  : 		if( pNewData == NULL )

  00024	85 c0		 test	 eax, eax
  00026	75 05		 jne	 SHORT $L222762

; 720  : 		{
; 721  : 			ThrowMemoryException();

  00028	e8 00 00 00 00	 call	 ?ThrowMemoryException@?$CSimpleStringT@D$0A@@ATL@@KAXXZ ; ATL::CSimpleStringT<char,0>::ThrowMemoryException
$L258381:
$L222762:

; 722  : 		}
; 723  : 		int nCharsToCopy = ((nOldLength < nLength) ? nOldLength : nLength)+1;  // Copy '\0'

  0002d	3b ee		 cmp	 ebp, esi
  0002f	7d 02		 jge	 SHORT $L258355
  00031	8b f5		 mov	 esi, ebp
$L258355:
  00033	8d 4e 01	 lea	 ecx, DWORD PTR [esi+1]

; 724  : 		CopyChars( PXSTR( pNewData->data() ), PCXSTR( pOldData->data() ), nCharsToCopy );

  00036	8b d1		 mov	 edx, ecx
  00038	57		 push	 edi
  00039	c1 e9 02	 shr	 ecx, 2
  0003c	8d 78 10	 lea	 edi, DWORD PTR [eax+16]
  0003f	89 7c 24 18	 mov	 DWORD PTR tv181[esp+16], edi
  00043	8d 73 10	 lea	 esi, DWORD PTR [ebx+16]
  00046	f3 a5		 rep movsd
  00048	8b ca		 mov	 ecx, edx
  0004a	83 e1 03	 and	 ecx, 3
  0004d	f3 a4		 rep movsb

; 725  : 		pNewData->nDataLength = nOldLength;

  0004f	89 68 04	 mov	 DWORD PTR [eax+4], ebp

; 726  : 		pOldData->Release();

  00052	8d 43 0c	 lea	 eax, DWORD PTR [ebx+12]
  00055	83 c9 ff	 or	 ecx, -1
  00058	f0 0f c1 08	 lock	  xadd	 DWORD PTR [eax], ecx
  0005c	49		 dec	 ecx
  0005d	85 c9		 test	 ecx, ecx
  0005f	5f		 pop	 edi
  00060	7f 08		 jg	 SHORT $L258371
  00062	8b 0b		 mov	 ecx, DWORD PTR [ebx]
  00064	8b 11		 mov	 edx, DWORD PTR [ecx]
  00066	53		 push	 ebx
  00067	ff 52 04	 call	 DWORD PTR [edx+4]
$L258371:

; 727  : 		Attach( pNewData );

  0006a	8b 44 24 14	 mov	 eax, DWORD PTR tv181[esp+12]
  0006e	8b 4c 24 0c	 mov	 ecx, DWORD PTR _this$[esp+16]
  00072	5e		 pop	 esi
  00073	5d		 pop	 ebp
  00074	89 01		 mov	 DWORD PTR [ecx], eax
  00076	5b		 pop	 ebx

; 728  : 	}

  00077	59		 pop	 ecx
  00078	c2 04 00	 ret	 4
$L258380:
?Fork@?$CSimpleStringT@D$0A@@ATL@@AAEXH@Z ENDP		; ATL::CSimpleStringT<char,0>::Fork
_TEXT	ENDS
PUBLIC	?Reallocate@?$CSimpleStringT@D$0A@@ATL@@AAEXH@Z	; ATL::CSimpleStringT<char,0>::Reallocate
; Function compile flags: /Ogty
;	COMDAT ?Reallocate@?$CSimpleStringT@D$0A@@ATL@@AAEXH@Z
_TEXT	SEGMENT
_nLength$ = 8						; size = 4
?Reallocate@?$CSimpleStringT@D$0A@@ATL@@AAEXH@Z PROC NEAR ; ATL::CSimpleStringT<char,0>::Reallocate, COMDAT
; _this$ = ecx

; 776  : 	{

  00000	56		 push	 esi
  00001	57		 push	 edi

; 777  : 		CStringData* pOldData = GetData();
; 778  : 		ATLASSERT( pOldData->nAllocLength < nLength );
; 779  : 		IAtlStringMgr* pStringMgr = pOldData->pStringMgr;
; 780  : 		CStringData* pNewData = pStringMgr->Reallocate( pOldData, nLength, sizeof( XCHAR ) );

  00002	8b 7c 24 0c	 mov	 edi, DWORD PTR _nLength$[esp+4]
  00006	8b f1		 mov	 esi, ecx
  00008	8b 06		 mov	 eax, DWORD PTR [esi]
  0000a	8b 48 f0	 mov	 ecx, DWORD PTR [eax-16]
  0000d	8b 11		 mov	 edx, DWORD PTR [ecx]
  0000f	83 e8 10	 sub	 eax, 16			; 00000010H
  00012	6a 01		 push	 1
  00014	57		 push	 edi
  00015	50		 push	 eax
  00016	ff 52 08	 call	 DWORD PTR [edx+8]

; 781  : 		if( pNewData == NULL )

  00019	85 c0		 test	 eax, eax
  0001b	75 05		 jne	 SHORT $L222771

; 782  : 		{
; 783  : 			ThrowMemoryException();

  0001d	e8 00 00 00 00	 call	 ?ThrowMemoryException@?$CSimpleStringT@D$0A@@ATL@@KAXXZ ; ATL::CSimpleStringT<char,0>::ThrowMemoryException
$L258397:
$L222771:

; 784  : 		}
; 785  : 		Attach( pNewData );

  00022	83 c0 10	 add	 eax, 16			; 00000010H
  00025	5f		 pop	 edi
  00026	89 06		 mov	 DWORD PTR [esi], eax
  00028	5e		 pop	 esi

; 786  : 	}

  00029	c2 04 00	 ret	 4
$L258396:
?Reallocate@?$CSimpleStringT@D$0A@@ATL@@AAEXH@Z ENDP	; ATL::CSimpleStringT<char,0>::Reallocate
_TEXT	ENDS
PUBLIC	?_Isnil@?$_Tree@V?$_Tmap_traits@KPAVCMover@@U?$less@K@std@@V?$allocator@U?$pair@$$CBKPAVCMover@@@std@@@3@$0A@@std@@@std@@KAAADPAU_Node@?$_Tree_nod@V?$_Tmap_traits@KPAVCMover@@U?$less@K@std@@V?$allocator@U?$pair@$$CBKPAVCMover@@@std@@@3@$0A@@std@@@2@@Z ; std::_Tree<std::_Tmap_traits<unsigned long,CMover *,std::less<unsigned long>,std::allocator<std::pair<unsigned long const ,CMover *> >,0> >::_Isnil
; Function compile flags: /Ogty
; File c:\program files\microsoft visual studio .net 2003\vc7\include\xtree
;	COMDAT ?_Isnil@?$_Tree@V?$_Tmap_traits@KPAVCMover@@U?$less@K@std@@V?$allocator@U?$pair@$$CBKPAVCMover@@@std@@@3@$0A@@std@@@std@@KAAADPAU_Node@?$_Tree_nod@V?$_Tmap_traits@KPAVCMover@@U?$less@K@std@@V?$allocator@U?$pair@$$CBKPAVCMover@@@std@@@3@$0A@@std@@@2@@Z
_TEXT	SEGMENT
__Pnode$ = 8						; size = 4
?_Isnil@?$_Tree@V?$_Tmap_traits@KPAVCMover@@U?$less@K@std@@V?$allocator@U?$pair@$$CBKPAVCMover@@@std@@@3@$0A@@std@@@std@@KAAADPAU_Node@?$_Tree_nod@V?$_Tmap_traits@KPAVCMover@@U?$less@K@std@@V?$allocator@U?$pair@$$CBKPAVCMover@@@std@@@3@$0A@@std@@@2@@Z PROC NEAR ; std::_Tree<std::_Tmap_traits<unsigned long,CMover *,std::less<unsigned long>,std::allocator<std::pair<unsigned long const ,CMover *> >,0> >::_Isnil, COMDAT

; 137  : 		return ((_Charref)(*_Pnode)._Isnil);

  00000	8b 44 24 04	 mov	 eax, DWORD PTR __Pnode$[esp-4]
  00004	83 c0 15	 add	 eax, 21			; 00000015H

; 138  : 		}

  00007	c3		 ret	 0
?_Isnil@?$_Tree@V?$_Tmap_traits@KPAVCMover@@U?$less@K@std@@V?$allocator@U?$pair@$$CBKPAVCMover@@@std@@@3@$0A@@std@@@std@@KAAADPAU_Node@?$_Tree_nod@V?$_Tmap_traits@KPAVCMover@@U?$less@K@std@@V?$allocator@U?$pair@$$CBKPAVCMover@@@std@@@3@$0A@@std@@@2@@Z ENDP ; std::_Tree<std::_Tmap_traits<unsigned long,CMover *,std::less<unsigned long>,std::allocator<std::pair<unsigned long const ,CMover *> >,0> >::_Isnil
_TEXT	ENDS
PUBLIC	?_Left@?$_Tree@V?$_Tmap_traits@KPAVCMover@@U?$less@K@std@@V?$allocator@U?$pair@$$CBKPAVCMover@@@std@@@3@$0A@@std@@@std@@KAAAPAU_Node@?$_Tree_nod@V?$_Tmap_traits@KPAVCMover@@U?$less@K@std@@V?$allocator@U?$pair@$$CBKPAVCMover@@@std@@@3@$0A@@std@@@2@PAU342@@Z ; std::_Tree<std::_Tmap_traits<unsigned long,CMover *,std::less<unsigned long>,std::allocator<std::pair<unsigned long const ,CMover *> >,0> >::_Left
; Function compile flags: /Ogty
;	COMDAT ?_Left@?$_Tree@V?$_Tmap_traits@KPAVCMover@@U?$less@K@std@@V?$allocator@U?$pair@$$CBKPAVCMover@@@std@@@3@$0A@@std@@@std@@KAAAPAU_Node@?$_Tree_nod@V?$_Tmap_traits@KPAVCMover@@U?$less@K@std@@V?$allocator@U?$pair@$$CBKPAVCMover@@@std@@@3@$0A@@std@@@2@PAU342@@Z
_TEXT	SEGMENT
__Pnode$ = 8						; size = 4
?_Left@?$_Tree@V?$_Tmap_traits@KPAVCMover@@U?$less@K@std@@V?$allocator@U?$pair@$$CBKPAVCMover@@@std@@@3@$0A@@std@@@std@@KAAAPAU_Node@?$_Tree_nod@V?$_Tmap_traits@KPAVCMover@@U?$less@K@std@@V?$allocator@U?$pair@$$CBKPAVCMover@@@std@@@3@$0A@@std@@@2@PAU342@@Z PROC NEAR ; std::_Tree<std::_Tmap_traits<unsigned long,CMover *,std::less<unsigned long>,std::allocator<std::pair<unsigned long const ,CMover *> >,0> >::_Left, COMDAT

; 147  : 		return ((_Nodepref)(*_Pnode)._Left);

  00000	8b 44 24 04	 mov	 eax, DWORD PTR __Pnode$[esp-4]

; 148  : 		}

  00004	c3		 ret	 0
?_Left@?$_Tree@V?$_Tmap_traits@KPAVCMover@@U?$less@K@std@@V?$allocator@U?$pair@$$CBKPAVCMover@@@std@@@3@$0A@@std@@@std@@KAAAPAU_Node@?$_Tree_nod@V?$_Tmap_traits@KPAVCMover@@U?$less@K@std@@V?$allocator@U?$pair@$$CBKPAVCMover@@@std@@@3@$0A@@std@@@2@PAU342@@Z ENDP ; std::_Tree<std::_Tmap_traits<unsigned long,CMover *,std::less<unsigned long>,std::allocator<std::pair<unsigned long const ,CMover *> >,0> >::_Left
_TEXT	ENDS
PUBLIC	?_Right@?$_Tree@V?$_Tmap_traits@KPAVCMover@@U?$less@K@std@@V?$allocator@U?$pair@$$CBKPAVCMover@@@std@@@3@$0A@@std@@@std@@KAAAPAU_Node@?$_Tree_nod@V?$_Tmap_traits@KPAVCMover@@U?$less@K@std@@V?$allocator@U?$pair@$$CBKPAVCMover@@@std@@@3@$0A@@std@@@2@PAU342@@Z ; std::_Tree<std::_Tmap_traits<unsigned long,CMover *,std::less<unsigned long>,std::allocator<std::pair<unsigned long const ,CMover *> >,0> >::_Right
; Function compile flags: /Ogty
;	COMDAT ?_Right@?$_Tree@V?$_Tmap_traits@KPAVCMover@@U?$less@K@std@@V?$allocator@U?$pair@$$CBKPAVCMover@@@std@@@3@$0A@@std@@@std@@KAAAPAU_Node@?$_Tree_nod@V?$_Tmap_traits@KPAVCMover@@U?$less@K@std@@V?$allocator@U?$pair@$$CBKPAVCMover@@@std@@@3@$0A@@std@@@2@PAU342@@Z
_TEXT	SEGMENT
__Pnode$ = 8						; size = 4
?_Right@?$_Tree@V?$_Tmap_traits@KPAVCMover@@U?$less@K@std@@V?$allocator@U?$pair@$$CBKPAVCMover@@@std@@@3@$0A@@std@@@std@@KAAAPAU_Node@?$_Tree_nod@V?$_Tmap_traits@KPAVCMover@@U?$less@K@std@@V?$allocator@U?$pair@$$CBKPAVCMover@@@std@@@3@$0A@@std@@@2@PAU342@@Z PROC NEAR ; std::_Tree<std::_Tmap_traits<unsigned long,CMover *,std::less<unsigned long>,std::allocator<std::pair<unsigned long const ,CMover *> >,0> >::_Right, COMDAT

; 157  : 		return ((_Nodepref)(*_Pnode)._Right);

  00000	8b 44 24 04	 mov	 eax, DWORD PTR __Pnode$[esp-4]
  00004	83 c0 08	 add	 eax, 8

; 158  : 		}

  00007	c3		 ret	 0
?_Right@?$_Tree@V?$_Tmap_traits@KPAVCMover@@U?$less@K@std@@V?$allocator@U?$pair@$$CBKPAVCMover@@@std@@@3@$0A@@std@@@std@@KAAAPAU_Node@?$_Tree_nod@V?$_Tmap_traits@KPAVCMover@@U?$less@K@std@@V?$allocator@U?$pair@$$CBKPAVCMover@@@std@@@3@$0A@@std@@@2@PAU342@@Z ENDP ; std::_Tree<std::_Tmap_traits<unsigned long,CMover *,std::less<unsigned long>,std::allocator<std::pair<unsigned long const ,CMover *> >,0> >::_Right
_TEXT	ENDS
PUBLIC	?_Parent@?$_Tree@V?$_Tmap_traits@KPAVCMover@@U?$less@K@std@@V?$allocator@U?$pair@$$CBKPAVCMover@@@std@@@3@$0A@@std@@@std@@KAAAPAU_Node@?$_Tree_nod@V?$_Tmap_traits@KPAVCMover@@U?$less@K@std@@V?$allocator@U?$pair@$$CBKPAVCMover@@@std@@@3@$0A@@std@@@2@PAU342@@Z ; std::_Tree<std::_Tmap_traits<unsigned long,CMover *,std::less<unsigned long>,std::allocator<std::pair<unsigned long const ,CMover *> >,0> >::_Parent
; Function compile flags: /Ogty
;	COMDAT ?_Parent@?$_Tree@V?$_Tmap_traits@KPAVCMover@@U?$less@K@std@@V?$allocator@U?$pair@$$CBKPAVCMover@@@std@@@3@$0A@@std@@@std@@KAAAPAU_Node@?$_Tree_nod@V?$_Tmap_traits@KPAVCMover@@U?$less@K@std@@V?$allocator@U?$pair@$$CBKPAVCMover@@@std@@@3@$0A@@std@@@2@PAU342@@Z
_TEXT	SEGMENT
__Pnode$ = 8						; size = 4
?_Parent@?$_Tree@V?$_Tmap_traits@KPAVCMover@@U?$less@K@std@@V?$allocator@U?$pair@$$CBKPAVCMover@@@std@@@3@$0A@@std@@@std@@KAAAPAU_Node@?$_Tree_nod@V?$_Tmap_traits@KPAVCMover@@U?$less@K@std@@V?$allocator@U?$pair@$$CBKPAVCMover@@@std@@@3@$0A@@std@@@2@PAU342@@Z PROC NEAR ; std::_Tree<std::_Tmap_traits<unsigned long,CMover *,std::less<unsigned long>,std::allocator<std::pair<unsigned long const ,CMover *> >,0> >::_Parent, COMDAT

; 152  : 		return ((_Nodepref)(*_Pnode)._Parent);

  00000	8b 44 24 04	 mov	 eax, DWORD PTR __Pnode$[esp-4]
  00004	83 c0 04	 add	 eax, 4

; 153  : 		}

  00007	c3		 ret	 0
?_Parent@?$_Tree@V?$_Tmap_traits@KPAVCMover@@U?$less@K@std@@V?$allocator@U?$pair@$$CBKPAVCMover@@@std@@@3@$0A@@std@@@std@@KAAAPAU_Node@?$_Tree_nod@V?$_Tmap_traits@KPAVCMover@@U?$less@K@std@@V?$allocator@U?$pair@$$CBKPAVCMover@@@std@@@3@$0A@@std@@@2@PAU342@@Z ENDP ; std::_Tree<std::_Tmap_traits<unsigned long,CMover *,std::less<unsigned long>,std::allocator<std::pair<unsigned long const ,CMover *> >,0> >::_Parent
_TEXT	ENDS
PUBLIC	??0__PARTYQUESTRECT@@QAE@XZ			; __PARTYQUESTRECT::__PARTYQUESTRECT
; Function compile flags: /Ogty
;	COMDAT ??0__PARTYQUESTRECT@@QAE@XZ
_TEXT	SEGMENT
??0__PARTYQUESTRECT@@QAE@XZ PROC NEAR			; __PARTYQUESTRECT::__PARTYQUESTRECT, COMDAT
; _this$ = ecx
  00000	8b c1		 mov	 eax, ecx
  00002	c3		 ret	 0
??0__PARTYQUESTRECT@@QAE@XZ ENDP			; __PARTYQUESTRECT::__PARTYQUESTRECT
_TEXT	ENDS
PUBLIC	?RemoveAllDynamicObj@CPartyQuestProcessor@@QAEXKUD3DXVECTOR3@@H@Z ; CPartyQuestProcessor::RemoveAllDynamicObj
PUBLIC	__real@3f800000
EXTRN	?AddQuestTextTime@CUser@@QAEXHHK@Z:NEAR		; CUser::AddQuestTextTime
EXTRN	?Replace@CMover@@QAEHKKAAUD3DXVECTOR3@@W4REPLACE_TYPE@@H@Z:NEAR ; CMover::Replace
EXTRN	?Delete@CObj@@QAEXXZ:NEAR			; CObj::Delete
EXTRN	__ftol2:NEAR
EXTRN	?GetWorld@CWorldMng@@QAEPAVCWorld@@K@Z:NEAR	; CWorldMng::GetWorld
EXTRN	?g_WorldMng@@3VCWorldMng@@A:BYTE		; g_WorldMng
EXTRN	?g_uIdofMulti@@3KA:DWORD			; g_uIdofMulti
EXTRN	?GetLinkWidth@CLayeredLinkMap@@QAEHKHH@Z:NEAR	; CLayeredLinkMap::GetLinkWidth
EXTRN	?GetObj@CLayeredLinkMap@@QAEPAPAVCObj@@KKH@Z:NEAR ; CLayeredLinkMap::GetObj
EXTRN	?GetMaxLinkLevel@CLayeredLinkMap@@QAEHKH@Z:NEAR	; CLayeredLinkMap::GetMaxLinkLevel
;	COMDAT __real@3f800000
; File c:\documents and settings\test\mes documents\source\virtuos_v17\build\program\_common\obj.h
CONST	SEGMENT
__real@3f800000 DD 03f800000r			; 1
; Function compile flags: /Ogty
; File c:\documents and settings\test\mes documents\source\virtuos_v17\build\program\_common\partyquest.cpp
CONST	ENDS
;	COMDAT ?RemoveAllDynamicObj@CPartyQuestProcessor@@QAEXKUD3DXVECTOR3@@H@Z
_TEXT	SEGMENT
__nLinkXMin$252671 = -68				; size = 4
__i$252724 = -64					; size = 4
__i$252679 = -64					; size = 4
tv445 = -60						; size = 4
tv451 = -56						; size = 4
tv840 = -52						; size = 4
__nLinkZ$252665 = -52					; size = 4
tv396 = -48						; size = 4
__nLinkXMax$252673 = -48				; size = 4
__nX$252675 = -48					; size = 4
tv836 = -44						; size = 4
tv732 = -44						; size = 4
__nLinkZ$252710 = -40					; size = 4
tv185 = -40						; size = 4
__pObjs$252683 = -40					; size = 4
__pObjs$252728 = -36					; size = 4
__nLinkX$252663 = -36					; size = 4
tv547 = -32						; size = 4
tv454 = -32						; size = 4
tv542 = -28						; size = 4
tv459 = -28						; size = 4
tv537 = -24						; size = 4
tv464 = -24						; size = 4
tv532 = -20						; size = 4
tv469 = -20						; size = 4
tv736 = -16						; size = 4
__nLinkX$252708 = -16					; size = 4
_vPos2$ = -12						; size = 12
_pWorld$ = 8						; size = 4
_dwWorldID$ = 8						; size = 4
__nLinkXMax$252718 = 12					; size = 4
__nX$252720 = 12					; size = 4
_vPos$ = 12						; size = 12
__nLinkXMin$252716 = 24					; size = 4
_nRange$ = 24						; size = 4
?RemoveAllDynamicObj@CPartyQuestProcessor@@QAEXKUD3DXVECTOR3@@H@Z PROC NEAR ; CPartyQuestProcessor::RemoveAllDynamicObj, COMDAT
; _this$ = ecx

; 244  : {

  00000	83 ec 44	 sub	 esp, 68			; 00000044H

; 245  : 	CWorld* pWorld	= g_WorldMng.GetWorld( dwWorldID );

  00003	8b 44 24 48	 mov	 eax, DWORD PTR _dwWorldID$[esp+64]
  00007	53		 push	 ebx
  00008	50		 push	 eax
  00009	b9 00 00 00 00	 mov	 ecx, OFFSET FLAT:?g_WorldMng@@3VCWorldMng@@A
  0000e	e8 00 00 00 00	 call	 ?GetWorld@CWorldMng@@QAEPAVCWorld@@K@Z ; CWorldMng::GetWorld
  00013	8b d8		 mov	 ebx, eax

; 246  : 
; 247  : 	if( !pWorld )

  00015	85 db		 test	 ebx, ebx
  00017	89 5c 24 4c	 mov	 DWORD PTR _pWorld$[esp+68], ebx
  0001b	0f 84 71 04 00
	00		 je	 $L252727

; 248  : 		return;
; 249  : 
; 250  : 	CObj*		pObj;
; 251  : 	D3DXVECTOR3 vDist;
; 252  : 
; 253  : 	FOR_LINKMAP( pWorld, vPos, pObj, nRange, CObj::linkDynamic, nTempLayer )

  00021	db 43 14	 fild	 DWORD PTR [ebx+20]
  00024	55		 push	 ebp
  00025	56		 push	 esi
  00026	57		 push	 edi
  00027	d8 3d 00 00 00
	00		 fdivr	 DWORD PTR __real@3f800000
  0002d	d9 44 24 5c	 fld	 DWORD PTR _vPos$[esp+80]
  00031	d8 c9		 fmul	 ST(0), ST(1)
  00033	e8 00 00 00 00	 call	 __ftol2
  00038	d8 4c 24 64	 fmul	 DWORD PTR _vPos$[esp+88]
  0003c	8b f0		 mov	 esi, eax
  0003e	89 74 24 30	 mov	 DWORD PTR __nLinkX$252663[esp+84], esi
  00042	e8 00 00 00 00	 call	 __ftol2
  00047	33 ed		 xor	 ebp, ebp
  00049	55		 push	 ebp
  0004a	8d 7b 24	 lea	 edi, DWORD PTR [ebx+36]
  0004d	6a 01		 push	 1
  0004f	8b cf		 mov	 ecx, edi
  00051	89 44 24 28	 mov	 DWORD PTR __nLinkZ$252665[esp+92], eax
  00055	89 6c 24 1c	 mov	 DWORD PTR __i$252679[esp+92], ebp
  00059	e8 00 00 00 00	 call	 ?GetMaxLinkLevel@CLayeredLinkMap@@QAEHKH@Z ; CLayeredLinkMap::GetMaxLinkLevel
  0005e	85 c0		 test	 eax, eax
  00060	0f 8e e2 01 00
	00		 jle	 $L252682
  00066	d9 44 24 5c	 fld	 DWORD PTR _vPos$[esp+80]
  0006a	e8 00 00 00 00	 call	 __ftol2
  0006f	d9 44 24 64	 fld	 DWORD PTR _vPos$[esp+88]
  00073	89 44 24 18	 mov	 DWORD PTR tv445[esp+84], eax
  00077	e8 00 00 00 00	 call	 __ftol2
  0007c	8b 54 24 20	 mov	 edx, DWORD PTR __nLinkZ$252665[esp+84]
  00080	89 44 24 1c	 mov	 DWORD PTR tv451[esp+84], eax
  00084	8b 44 24 68	 mov	 eax, DWORD PTR _nRange$[esp+80]
  00088	8b ce		 mov	 ecx, esi
  0008a	2b c8		 sub	 ecx, eax
  0008c	89 4c 24 34	 mov	 DWORD PTR tv454[esp+84], ecx
  00090	8b ca		 mov	 ecx, edx
  00092	2b c8		 sub	 ecx, eax
  00094	03 f0		 add	 esi, eax
  00096	03 d0		 add	 edx, eax
  00098	89 4c 24 38	 mov	 DWORD PTR tv459[esp+84], ecx
  0009c	89 74 24 3c	 mov	 DWORD PTR tv464[esp+84], esi
  000a0	89 54 24 40	 mov	 DWORD PTR tv469[esp+84], edx
  000a4	eb 0a		 jmp	 SHORT $L252680
$L258462:
  000a6	8b 6c 24 14	 mov	 ebp, DWORD PTR __i$252679[esp+84]
  000aa	8d 9b 00 00 00
	00		 npad	 6
$L252680:
  000b0	6a 00		 push	 0
  000b2	55		 push	 ebp
  000b3	6a 01		 push	 1
  000b5	8b cf		 mov	 ecx, edi
  000b7	e8 00 00 00 00	 call	 ?GetLinkWidth@CLayeredLinkMap@@QAEHKHH@Z ; CLayeredLinkMap::GetLinkWidth
  000bc	6a 00		 push	 0
  000be	55		 push	 ebp
  000bf	6a 01		 push	 1
  000c1	8b cf		 mov	 ecx, edi
  000c3	8b f0		 mov	 esi, eax
  000c5	e8 00 00 00 00	 call	 ?GetObj@CLayeredLinkMap@@QAEPAPAVCObj@@KKH@Z ; CLayeredLinkMap::GetObj
  000ca	89 44 24 2c	 mov	 DWORD PTR __pObjs$252683[esp+84], eax
  000ce	8b 43 04	 mov	 eax, DWORD PTR [ebx+4]
  000d1	8b f8		 mov	 edi, eax
  000d3	c1 e0 07	 shl	 eax, 7
  000d6	0f af fe	 imul	 edi, esi
  000d9	99		 cdq
  000da	f7 ff		 idiv	 edi
  000dc	8b 6b 08	 mov	 ebp, DWORD PTR [ebx+8]
  000df	8b 5b 14	 mov	 ebx, DWORD PTR [ebx+20]
  000e2	0f af ee	 imul	 ebp, esi
  000e5	8b c8		 mov	 ecx, eax
  000e7	8b c3		 mov	 eax, ebx
  000e9	0f af c1	 imul	 eax, ecx
  000ec	99		 cdq
  000ed	2b c2		 sub	 eax, edx
  000ef	8b f0		 mov	 esi, eax
  000f1	8b 44 24 30	 mov	 eax, DWORD PTR __nLinkX$252663[esp+84]
  000f5	99		 cdq
  000f6	f7 f9		 idiv	 ecx
  000f8	8b 54 24 18	 mov	 edx, DWORD PTR tv445[esp+84]
  000fc	d1 fe		 sar	 esi, 1
  000fe	0f af c3	 imul	 eax, ebx
  00101	0f af c1	 imul	 eax, ecx
  00104	2b d0		 sub	 edx, eax
  00106	33 c0		 xor	 eax, eax
  00108	3b d6		 cmp	 edx, esi
  0010a	0f 9f c0	 setg	 al
  0010d	89 44 24 24	 mov	 DWORD PTR __nX$252675[esp+84], eax
  00111	8b 44 24 20	 mov	 eax, DWORD PTR __nLinkZ$252665[esp+84]
  00115	99		 cdq
  00116	f7 f9		 idiv	 ecx
  00118	8b 54 24 1c	 mov	 edx, DWORD PTR tv451[esp+84]
  0011c	0f af c3	 imul	 eax, ebx
  0011f	0f af c1	 imul	 eax, ecx
  00122	2b d0		 sub	 edx, eax
  00124	33 c0		 xor	 eax, eax
  00126	3b d6		 cmp	 edx, esi
  00128	0f 9f c0	 setg	 al
  0012b	8b f0		 mov	 esi, eax
  0012d	8b 44 24 34	 mov	 eax, DWORD PTR tv454[esp+84]
  00131	99		 cdq
  00132	f7 f9		 idiv	 ecx
  00134	8b 54 24 24	 mov	 edx, DWORD PTR __nX$252675[esp+84]
  00138	8d 44 10 ff	 lea	 eax, DWORD PTR [eax+edx-1]
  0013c	85 c0		 test	 eax, eax
  0013e	89 44 24 10	 mov	 DWORD PTR __nLinkXMin$252671[esp+84], eax
  00142	7d 08		 jge	 SHORT $L252687
  00144	c7 44 24 10 00
	00 00 00	 mov	 DWORD PTR __nLinkXMin$252671[esp+84], 0
$L252687:
  0014c	8b 44 24 38	 mov	 eax, DWORD PTR tv459[esp+84]
  00150	99		 cdq
  00151	f7 f9		 idiv	 ecx
  00153	8d 5c 30 ff	 lea	 ebx, DWORD PTR [eax+esi-1]
  00157	85 db		 test	 ebx, ebx
  00159	7d 02		 jge	 SHORT $L252688
  0015b	33 db		 xor	 ebx, ebx
$L252688:
  0015d	8b 44 24 3c	 mov	 eax, DWORD PTR tv464[esp+84]
  00161	99		 cdq
  00162	f7 f9		 idiv	 ecx
  00164	03 44 24 24	 add	 eax, DWORD PTR __nX$252675[esp+84]
  00168	3b c7		 cmp	 eax, edi
  0016a	89 44 24 24	 mov	 DWORD PTR __nLinkXMax$252673[esp+84], eax
  0016e	7c 07		 jl	 SHORT $L252689
  00170	8d 47 ff	 lea	 eax, DWORD PTR [edi-1]
  00173	89 44 24 24	 mov	 DWORD PTR __nLinkXMax$252673[esp+84], eax
$L252689:
  00177	8b 44 24 40	 mov	 eax, DWORD PTR tv469[esp+84]
  0017b	99		 cdq
  0017c	f7 f9		 idiv	 ecx
  0017e	03 c6		 add	 eax, esi
  00180	3b c5		 cmp	 eax, ebp
  00182	7c 03		 jl	 SHORT $L252690
  00184	8d 45 ff	 lea	 eax, DWORD PTR [ebp-1]
$L252690:
  00187	3b d8		 cmp	 ebx, eax
  00189	0f 8f 92 00 00
	00		 jg	 $L252681
  0018f	8b 74 24 2c	 mov	 esi, DWORD PTR __pObjs$252683[esp+84]
  00193	8b d3		 mov	 edx, ebx
  00195	0f af d7	 imul	 edx, edi
  00198	8d 0c bd 00 00
	00 00		 lea	 ecx, DWORD PTR [edi*4]
  0019f	89 4c 24 44	 mov	 DWORD PTR tv736[esp+84], ecx
  001a3	8b 4c 24 10	 mov	 ecx, DWORD PTR __nLinkXMin$252671[esp+84]
  001a7	03 d1		 add	 edx, ecx
  001a9	2b c3		 sub	 eax, ebx
  001ab	8d 3c 96	 lea	 edi, DWORD PTR [esi+edx*4]
  001ae	40		 inc	 eax
  001af	89 7c 24 28	 mov	 DWORD PTR tv732[esp+84], edi
  001b3	89 44 24 2c	 mov	 DWORD PTR tv185[esp+84], eax
$L252692:
  001b7	8b 44 24 24	 mov	 eax, DWORD PTR __nLinkXMax$252673[esp+84]
  001bb	3b c8		 cmp	 ecx, eax
  001bd	7f 49		 jg	 SHORT $L252693
  001bf	8b d8		 mov	 ebx, eax
  001c1	2b d9		 sub	 ebx, ecx
  001c3	43		 inc	 ebx
$L252696:
  001c4	8b 37		 mov	 esi, DWORD PTR [edi]
  001c6	85 f6		 test	 esi, esi
  001c8	bd e8 03 00 00	 mov	 ebp, 1000		; 000003e8H
  001cd	74 2f		 je	 SHORT $L252697
  001cf	90		 npad	 1
$L252701:
  001d0	8b c5		 mov	 eax, ebp
  001d2	4d		 dec	 ebp
  001d3	85 c0		 test	 eax, eax
  001d5	74 27		 je	 SHORT $L252697

; 254  : 	{
; 255  : 		if( pObj )

  001d7	85 f6		 test	 esi, esi
  001d9	74 19		 je	 SHORT $L252705

; 256  : 		{
; 257  : 			if( pObj->GetType() == OT_MOVER && ((CMover *)pObj)->IsPeaceful() == FALSE )

  001db	83 be 70 01 00
	00 05		 cmp	 DWORD PTR [esi+368], 5
  001e2	75 10		 jne	 SHORT $L252705
  001e4	83 be 6c 06 00
	00 01		 cmp	 DWORD PTR [esi+1644], 1
  001eb	74 07		 je	 SHORT $L252705

; 258  : 			{
; 259  : 				pObj->Delete();

  001ed	8b ce		 mov	 ecx, esi
  001ef	e8 00 00 00 00	 call	 ?Delete@CObj@@QAEXXZ	; CObj::Delete
$L252705:

; 260  : 			}
; 261  : 		}
; 262  : 	}
; 263  : 	END_LINKMAP

  001f4	8b b6 80 01 00
	00		 mov	 esi, DWORD PTR [esi+384]
  001fa	85 f6		 test	 esi, esi
  001fc	75 d2		 jne	 SHORT $L252701
$L252697:

; 248  : 		return;
; 249  : 
; 250  : 	CObj*		pObj;
; 251  : 	D3DXVECTOR3 vDist;
; 252  : 
; 253  : 	FOR_LINKMAP( pWorld, vPos, pObj, nRange, CObj::linkDynamic, nTempLayer )

  001fe	83 c7 04	 add	 edi, 4
  00201	4b		 dec	 ebx
  00202	75 c0		 jne	 SHORT $L252696
  00204	8b 4c 24 10	 mov	 ecx, DWORD PTR __nLinkXMin$252671[esp+84]
$L252693:
  00208	8b 7c 24 28	 mov	 edi, DWORD PTR tv732[esp+84]
  0020c	8b 54 24 44	 mov	 edx, DWORD PTR tv736[esp+84]
  00210	8b 44 24 2c	 mov	 eax, DWORD PTR tv185[esp+84]
  00214	03 fa		 add	 edi, edx
  00216	48		 dec	 eax
  00217	89 7c 24 28	 mov	 DWORD PTR tv732[esp+84], edi
  0021b	89 44 24 2c	 mov	 DWORD PTR tv185[esp+84], eax
  0021f	75 96		 jne	 SHORT $L252692
$L252681:
  00221	8b 74 24 14	 mov	 esi, DWORD PTR __i$252679[esp+84]
  00225	8b 7c 24 58	 mov	 edi, DWORD PTR _pWorld$[esp+80]
  00229	6a 00		 push	 0
  0022b	83 c7 24	 add	 edi, 36			; 00000024H
  0022e	46		 inc	 esi
  0022f	6a 01		 push	 1
  00231	8b cf		 mov	 ecx, edi
  00233	89 74 24 1c	 mov	 DWORD PTR __i$252679[esp+92], esi
  00237	e8 00 00 00 00	 call	 ?GetMaxLinkLevel@CLayeredLinkMap@@QAEHKH@Z ; CLayeredLinkMap::GetMaxLinkLevel
  0023c	3b f0		 cmp	 esi, eax
  0023e	8b 5c 24 58	 mov	 ebx, DWORD PTR _pWorld$[esp+80]
  00242	0f 8c 5e fe ff
	ff		 jl	 $L258462
$L252682:

; 264  : 
; 265  : 	D3DXVECTOR3 vPos2	= D3DXVECTOR3( 6968.0f, 0, 3328.8f );

  00248	c7 44 24 48 00
	c0 d9 45	 mov	 DWORD PTR _vPos2$[esp+84], 1171898368 ; 45d9c000H
  00250	c7 44 24 4c 00
	00 00 00	 mov	 DWORD PTR _vPos2$[esp+88], 0
  00258	c7 44 24 50 cd
	0c 50 45	 mov	 DWORD PTR _vPos2$[esp+92], 1162874061 ; 45500ccdH

; 266  : 	FOR_LINKMAP( pWorld, vPos, pObj, nRange, CObj::linkPlayer, nTempLayer )

  00260	db 43 14	 fild	 DWORD PTR [ebx+20]
  00263	d8 3d 00 00 00
	00		 fdivr	 DWORD PTR __real@3f800000
  00269	d9 44 24 5c	 fld	 DWORD PTR _vPos$[esp+80]
  0026d	d8 c9		 fmul	 ST(0), ST(1)
  0026f	e8 00 00 00 00	 call	 __ftol2
  00274	d8 4c 24 64	 fmul	 DWORD PTR _vPos$[esp+88]
  00278	8b f0		 mov	 esi, eax
  0027a	89 74 24 44	 mov	 DWORD PTR __nLinkX$252708[esp+84], esi
  0027e	e8 00 00 00 00	 call	 __ftol2
  00283	33 ed		 xor	 ebp, ebp
  00285	55		 push	 ebp
  00286	6a 02		 push	 2
  00288	8b cf		 mov	 ecx, edi
  0028a	89 44 24 34	 mov	 DWORD PTR __nLinkZ$252710[esp+92], eax
  0028e	89 6c 24 1c	 mov	 DWORD PTR __i$252724[esp+92], ebp
  00292	e8 00 00 00 00	 call	 ?GetMaxLinkLevel@CLayeredLinkMap@@QAEHKH@Z ; CLayeredLinkMap::GetMaxLinkLevel
  00297	85 c0		 test	 eax, eax
  00299	0f 8e f0 01 00
	00		 jle	 $L258465
  0029f	d9 44 24 5c	 fld	 DWORD PTR _vPos$[esp+80]
  002a3	e8 00 00 00 00	 call	 __ftol2
  002a8	d9 44 24 64	 fld	 DWORD PTR _vPos$[esp+88]
  002ac	89 44 24 18	 mov	 DWORD PTR tv445[esp+84], eax
  002b0	e8 00 00 00 00	 call	 __ftol2
  002b5	8b 54 24 2c	 mov	 edx, DWORD PTR __nLinkZ$252710[esp+84]
  002b9	89 44 24 1c	 mov	 DWORD PTR tv451[esp+84], eax
  002bd	8b 44 24 68	 mov	 eax, DWORD PTR _nRange$[esp+80]
  002c1	8b ce		 mov	 ecx, esi
  002c3	2b c8		 sub	 ecx, eax
  002c5	89 4c 24 40	 mov	 DWORD PTR tv532[esp+84], ecx
  002c9	8b ca		 mov	 ecx, edx
  002cb	2b c8		 sub	 ecx, eax
  002cd	03 f0		 add	 esi, eax
  002cf	03 d0		 add	 edx, eax
  002d1	89 4c 24 3c	 mov	 DWORD PTR tv537[esp+84], ecx
  002d5	89 74 24 38	 mov	 DWORD PTR tv542[esp+84], esi
  002d9	89 54 24 34	 mov	 DWORD PTR tv547[esp+84], edx
  002dd	eb 08		 jmp	 SHORT $L252725
$L258461:
  002df	8b 6c 24 14	 mov	 ebp, DWORD PTR __i$252724[esp+84]
  002e3	8b 5c 24 58	 mov	 ebx, DWORD PTR _pWorld$[esp+80]
$L252725:
  002e7	6a 00		 push	 0
  002e9	55		 push	 ebp
  002ea	8d 7b 24	 lea	 edi, DWORD PTR [ebx+36]
  002ed	6a 02		 push	 2
  002ef	8b cf		 mov	 ecx, edi
  002f1	e8 00 00 00 00	 call	 ?GetLinkWidth@CLayeredLinkMap@@QAEHKHH@Z ; CLayeredLinkMap::GetLinkWidth
  002f6	6a 00		 push	 0
  002f8	55		 push	 ebp
  002f9	6a 02		 push	 2
  002fb	8b cf		 mov	 ecx, edi
  002fd	8b f0		 mov	 esi, eax
  002ff	e8 00 00 00 00	 call	 ?GetObj@CLayeredLinkMap@@QAEPAPAVCObj@@KKH@Z ; CLayeredLinkMap::GetObj
  00304	89 44 24 30	 mov	 DWORD PTR __pObjs$252728[esp+84], eax
  00308	8b 43 04	 mov	 eax, DWORD PTR [ebx+4]
  0030b	8b f8		 mov	 edi, eax
  0030d	c1 e0 07	 shl	 eax, 7
  00310	0f af fe	 imul	 edi, esi
  00313	99		 cdq
  00314	f7 ff		 idiv	 edi
  00316	8b 54 24 58	 mov	 edx, DWORD PTR _pWorld$[esp+80]
  0031a	8b 6b 08	 mov	 ebp, DWORD PTR [ebx+8]
  0031d	8b 5a 14	 mov	 ebx, DWORD PTR [edx+20]
  00320	0f af ee	 imul	 ebp, esi
  00323	8b c8		 mov	 ecx, eax
  00325	8b c3		 mov	 eax, ebx
  00327	0f af c1	 imul	 eax, ecx
  0032a	99		 cdq
  0032b	2b c2		 sub	 eax, edx
  0032d	8b f0		 mov	 esi, eax
  0032f	8b 44 24 44	 mov	 eax, DWORD PTR __nLinkX$252708[esp+84]
  00333	99		 cdq
  00334	f7 f9		 idiv	 ecx
  00336	8b 54 24 18	 mov	 edx, DWORD PTR tv445[esp+84]
  0033a	d1 fe		 sar	 esi, 1
  0033c	0f af c3	 imul	 eax, ebx
  0033f	0f af c1	 imul	 eax, ecx
  00342	2b d0		 sub	 edx, eax
  00344	33 c0		 xor	 eax, eax
  00346	3b d6		 cmp	 edx, esi
  00348	0f 9f c0	 setg	 al
  0034b	89 44 24 5c	 mov	 DWORD PTR __nX$252720[esp+80], eax
  0034f	8b 44 24 2c	 mov	 eax, DWORD PTR __nLinkZ$252710[esp+84]
  00353	99		 cdq
  00354	f7 f9		 idiv	 ecx
  00356	8b 54 24 1c	 mov	 edx, DWORD PTR tv451[esp+84]
  0035a	0f af c3	 imul	 eax, ebx
  0035d	0f af c1	 imul	 eax, ecx
  00360	2b d0		 sub	 edx, eax
  00362	33 c0		 xor	 eax, eax
  00364	3b d6		 cmp	 edx, esi
  00366	0f 9f c0	 setg	 al
  00369	8b f0		 mov	 esi, eax
  0036b	8b 44 24 40	 mov	 eax, DWORD PTR tv532[esp+84]
  0036f	99		 cdq
  00370	f7 f9		 idiv	 ecx
  00372	8b 54 24 5c	 mov	 edx, DWORD PTR __nX$252720[esp+80]
  00376	8d 44 10 ff	 lea	 eax, DWORD PTR [eax+edx-1]
  0037a	85 c0		 test	 eax, eax
  0037c	89 44 24 68	 mov	 DWORD PTR __nLinkXMin$252716[esp+80], eax
  00380	7d 08		 jge	 SHORT $L252732
  00382	c7 44 24 68 00
	00 00 00	 mov	 DWORD PTR __nLinkXMin$252716[esp+80], 0
$L252732:
  0038a	8b 44 24 3c	 mov	 eax, DWORD PTR tv537[esp+84]
  0038e	99		 cdq
  0038f	f7 f9		 idiv	 ecx
  00391	8d 5c 30 ff	 lea	 ebx, DWORD PTR [eax+esi-1]
  00395	85 db		 test	 ebx, ebx
  00397	7d 02		 jge	 SHORT $L252733
  00399	33 db		 xor	 ebx, ebx
$L252733:
  0039b	8b 44 24 38	 mov	 eax, DWORD PTR tv542[esp+84]
  0039f	99		 cdq
  003a0	f7 f9		 idiv	 ecx
  003a2	03 44 24 5c	 add	 eax, DWORD PTR __nX$252720[esp+80]
  003a6	3b c7		 cmp	 eax, edi
  003a8	89 44 24 5c	 mov	 DWORD PTR __nLinkXMax$252718[esp+80], eax
  003ac	7c 07		 jl	 SHORT $L252734
  003ae	8d 47 ff	 lea	 eax, DWORD PTR [edi-1]
  003b1	89 44 24 5c	 mov	 DWORD PTR __nLinkXMax$252718[esp+80], eax
$L252734:
  003b5	8b 44 24 34	 mov	 eax, DWORD PTR tv547[esp+84]
  003b9	99		 cdq
  003ba	f7 f9		 idiv	 ecx
  003bc	03 c6		 add	 eax, esi
  003be	3b c5		 cmp	 eax, ebp
  003c0	7c 03		 jl	 SHORT $L252735
  003c2	8d 45 ff	 lea	 eax, DWORD PTR [ebp-1]
$L252735:
  003c5	3b d8		 cmp	 ebx, eax
  003c7	0f 8f a1 00 00
	00		 jg	 $L252726
  003cd	8b 74 24 30	 mov	 esi, DWORD PTR __pObjs$252728[esp+84]
  003d1	8b d3		 mov	 edx, ebx
  003d3	0f af d7	 imul	 edx, edi
  003d6	8d 0c bd 00 00
	00 00		 lea	 ecx, DWORD PTR [edi*4]
  003dd	89 4c 24 20	 mov	 DWORD PTR tv840[esp+84], ecx
  003e1	8b 4c 24 68	 mov	 ecx, DWORD PTR __nLinkXMin$252716[esp+80]
  003e5	03 d1		 add	 edx, ecx
  003e7	2b c3		 sub	 eax, ebx
  003e9	8d 3c 96	 lea	 edi, DWORD PTR [esi+edx*4]
  003ec	40		 inc	 eax
  003ed	89 7c 24 28	 mov	 DWORD PTR tv836[esp+84], edi
  003f1	89 44 24 24	 mov	 DWORD PTR tv396[esp+84], eax
$L252737:
  003f5	8b 44 24 5c	 mov	 eax, DWORD PTR __nLinkXMax$252718[esp+80]
  003f9	3b c8		 cmp	 ecx, eax
  003fb	7f 58		 jg	 SHORT $L252738
  003fd	8b d8		 mov	 ebx, eax
  003ff	2b d9		 sub	 ebx, ecx
  00401	43		 inc	 ebx
$L252741:
  00402	8b 37		 mov	 esi, DWORD PTR [edi]
  00404	85 f6		 test	 esi, esi
  00406	bd e8 03 00 00	 mov	 ebp, 1000		; 000003e8H
  0040b	74 3e		 je	 SHORT $L252742
  0040d	8d 49 00	 npad	 3
$L252746:
  00410	8b c5		 mov	 eax, ebp
  00412	4d		 dec	 ebp
  00413	85 c0		 test	 eax, eax
  00415	74 34		 je	 SHORT $L252742

; 267  : 	{
; 268  : 		if( pObj )

  00417	85 f6		 test	 esi, esi
  00419	74 26		 je	 SHORT $L252748

; 269  : 		{
; 270  : 			CUser* pUser = (CUser*)pObj;
; 271  : 			pUser->AddQuestTextTime( 0, 0, 0xffffffff );			

  0041b	6a ff		 push	 -1
  0041d	6a 00		 push	 0
  0041f	6a 00		 push	 0
  00421	8b ce		 mov	 ecx, esi
  00423	e8 00 00 00 00	 call	 ?AddQuestTextTime@CUser@@QAEXHHK@Z ; CUser::AddQuestTextTime

; 272  : 			( (CUser*)pObj )->REPLACE( g_uIdofMulti, WI_WORLD_MADRIGAL, vPos2, REPLACE_NORMAL, nDefaultLayer );

  00428	8b 15 00 00 00
	00		 mov	 edx, DWORD PTR ?g_uIdofMulti@@3KA ; g_uIdofMulti
  0042e	6a 00		 push	 0
  00430	6a 00		 push	 0
  00432	8d 4c 24 50	 lea	 ecx, DWORD PTR _vPos2$[esp+92]
  00436	51		 push	 ecx
  00437	6a 01		 push	 1
  00439	52		 push	 edx
  0043a	8b ce		 mov	 ecx, esi
  0043c	e8 00 00 00 00	 call	 ?Replace@CMover@@QAEHKKAAUD3DXVECTOR3@@W4REPLACE_TYPE@@H@Z ; CMover::Replace
$L252748:

; 273  : 		}
; 274  : 	}
; 275  : 	END_LINKMAP

  00441	8b b6 80 01 00
	00		 mov	 esi, DWORD PTR [esi+384]
  00447	85 f6		 test	 esi, esi
  00449	75 c5		 jne	 SHORT $L252746
$L252742:

; 266  : 	FOR_LINKMAP( pWorld, vPos, pObj, nRange, CObj::linkPlayer, nTempLayer )

  0044b	83 c7 04	 add	 edi, 4
  0044e	4b		 dec	 ebx
  0044f	75 b1		 jne	 SHORT $L252741
  00451	8b 4c 24 68	 mov	 ecx, DWORD PTR __nLinkXMin$252716[esp+80]
$L252738:
  00455	8b 7c 24 28	 mov	 edi, DWORD PTR tv836[esp+84]
  00459	8b 54 24 20	 mov	 edx, DWORD PTR tv840[esp+84]
  0045d	8b 44 24 24	 mov	 eax, DWORD PTR tv396[esp+84]
  00461	03 fa		 add	 edi, edx
  00463	48		 dec	 eax
  00464	89 7c 24 28	 mov	 DWORD PTR tv836[esp+84], edi
  00468	89 44 24 24	 mov	 DWORD PTR tv396[esp+84], eax
  0046c	75 87		 jne	 SHORT $L252737
$L252726:
  0046e	8b 74 24 14	 mov	 esi, DWORD PTR __i$252724[esp+84]
  00472	8b 4c 24 58	 mov	 ecx, DWORD PTR _pWorld$[esp+80]
  00476	6a 00		 push	 0
  00478	46		 inc	 esi
  00479	6a 02		 push	 2
  0047b	83 c1 24	 add	 ecx, 36			; 00000024H
  0047e	89 74 24 1c	 mov	 DWORD PTR __i$252724[esp+92], esi
  00482	e8 00 00 00 00	 call	 ?GetMaxLinkLevel@CLayeredLinkMap@@QAEHKH@Z ; CLayeredLinkMap::GetMaxLinkLevel
  00487	3b f0		 cmp	 esi, eax
  00489	0f 8c 50 fe ff
	ff		 jl	 $L258461
$L258465:
  0048f	5f		 pop	 edi
  00490	5e		 pop	 esi
  00491	5d		 pop	 ebp
$L252727:
  00492	5b		 pop	 ebx

; 276  : }

  00493	83 c4 44	 add	 esp, 68			; 00000044H
  00496	c2 14 00	 ret	 20			; 00000014H
?RemoveAllDynamicObj@CPartyQuestProcessor@@QAEXKUD3DXVECTOR3@@H@Z ENDP ; CPartyQuestProcessor::RemoveAllDynamicObj
_TEXT	ENDS
PUBLIC	?AddQuestRect@CPartyQuestProcessor@@QAEXHKHHHH@Z ; CPartyQuestProcessor::AddQuestRect
; Function compile flags: /Ogty
;	COMDAT ?AddQuestRect@CPartyQuestProcessor@@QAEXHKHHHH@Z
_TEXT	SEGMENT
_nId$ = 8						; size = 4
_dwWorldId$ = 12					; size = 4
_x1$ = 16						; size = 4
_y1$ = 20						; size = 4
_x2$ = 24						; size = 4
_y2$ = 28						; size = 4
?AddQuestRect@CPartyQuestProcessor@@QAEXHKHHHH@Z PROC NEAR ; CPartyQuestProcessor::AddQuestRect, COMDAT
; _this$ = ecx

; 422  : {

  00000	56		 push	 esi
  00001	8b f1		 mov	 esi, ecx

; 423  : 	if( m_nRect >= MAX_PARTY_QUEST )

  00003	8b 86 00 34 00
	00		 mov	 eax, DWORD PTR [esi+13312]
  00009	3d 00 01 00 00	 cmp	 eax, 256		; 00000100H
  0000e	7d 54		 jge	 SHORT $L252850

; 424  : 		return;
; 425  : 
; 426  : 	m_pRect[m_nRect].nId	= nId;

  00010	8b 4c 24 08	 mov	 ecx, DWORD PTR _nId$[esp]
  00014	8d 04 40	 lea	 eax, DWORD PTR [eax+eax*2]
  00017	89 8c c6 00 1c
	00 00		 mov	 DWORD PTR [esi+eax*8+7168], ecx

; 427  : 	m_pRect[m_nRect].dwWorldId	= dwWorldId;

  0001e	8b 86 00 34 00
	00		 mov	 eax, DWORD PTR [esi+13312]

; 428  : 	m_pRect[m_nRect].rect.SetRect( x1, y2, x2, y1 );

  00024	8b 4c 24 14	 mov	 ecx, DWORD PTR _y1$[esp]
  00028	8d 14 40	 lea	 edx, DWORD PTR [eax+eax*2]
  0002b	8b 44 24 0c	 mov	 eax, DWORD PTR _dwWorldId$[esp]
  0002f	89 84 d6 04 1c
	00 00		 mov	 DWORD PTR [esi+edx*8+7172], eax
  00036	8b 54 24 18	 mov	 edx, DWORD PTR _x2$[esp]
  0003a	8b 44 24 1c	 mov	 eax, DWORD PTR _y2$[esp]
  0003e	51		 push	 ecx
  0003f	8b 4c 24 14	 mov	 ecx, DWORD PTR _x1$[esp+4]
  00043	52		 push	 edx
  00044	50		 push	 eax
  00045	8b 86 00 34 00
	00		 mov	 eax, DWORD PTR [esi+13312]
  0004b	05 2b 01 00 00	 add	 eax, 299		; 0000012bH
  00050	8d 14 40	 lea	 edx, DWORD PTR [eax+eax*2]
  00053	51		 push	 ecx
  00054	8d 04 d6	 lea	 eax, DWORD PTR [esi+edx*8]
  00057	50		 push	 eax
  00058	ff 15 00 00 00
	00		 call	 DWORD PTR __imp__SetRect@20

; 429  : 	m_nRect++;

  0005e	ff 86 00 34 00
	00		 inc	 DWORD PTR [esi+13312]
$L252850:
  00064	5e		 pop	 esi

; 430  : }

  00065	c2 18 00	 ret	 24			; 00000018H
?AddQuestRect@CPartyQuestProcessor@@QAEXHKHHHH@Z ENDP	; CPartyQuestProcessor::AddQuestRect
_TEXT	ENDS
PUBLIC	?PtInQuestRect@CPartyQuestProcessor@@QAEHKABUD3DXVECTOR3@@@Z ; CPartyQuestProcessor::PtInQuestRect
; Function compile flags: /Ogty
;	COMDAT ?PtInQuestRect@CPartyQuestProcessor@@QAEHKABUD3DXVECTOR3@@@Z
_TEXT	SEGMENT
_point$ = -8						; size = 8
_dwWorldId$ = 8						; size = 4
_vPos$ = 12						; size = 4
?PtInQuestRect@CPartyQuestProcessor@@QAEHKABUD3DXVECTOR3@@@Z PROC NEAR ; CPartyQuestProcessor::PtInQuestRect, COMDAT
; _this$ = ecx

; 433  : {

  00000	83 ec 08	 sub	 esp, 8
  00003	53		 push	 ebx
  00004	55		 push	 ebp
  00005	56		 push	 esi

; 434  : 	POINT point	= { (int)vPos.x, (int)vPos.z	};

  00006	8b 74 24 1c	 mov	 esi, DWORD PTR _vPos$[esp+16]
  0000a	d9 06		 fld	 DWORD PTR [esi]
  0000c	57		 push	 edi
  0000d	8b d9		 mov	 ebx, ecx
  0000f	e8 00 00 00 00	 call	 __ftol2
  00014	d9 46 08	 fld	 DWORD PTR [esi+8]
  00017	8b e8		 mov	 ebp, eax
  00019	e8 00 00 00 00	 call	 __ftol2
  0001e	89 44 24 14	 mov	 DWORD PTR _point$[esp+28], eax

; 435  : 	for( int i = 0; i < m_nRect; i++ )

  00022	8b 83 00 34 00
	00		 mov	 eax, DWORD PTR [ebx+13312]
  00028	33 ff		 xor	 edi, edi
  0002a	85 c0		 test	 eax, eax
  0002c	7e 2e		 jle	 SHORT $L252863

; 434  : 	POINT point	= { (int)vPos.x, (int)vPos.z	};

  0002e	8d b3 08 1c 00
	00		 lea	 esi, DWORD PTR [ebx+7176]
$L258484:

; 436  : 	{
; 437  : 		
; 438  : 		if( m_pRect[i].dwWorldId == dwWorldId && m_pRect[i].rect.PtInRect( point ) )

  00034	8b 44 24 1c	 mov	 eax, DWORD PTR _dwWorldId$[esp+20]
  00038	39 46 fc	 cmp	 DWORD PTR [esi-4], eax
  0003b	75 11		 jne	 SHORT $L252862
  0003d	8b 4c 24 14	 mov	 ecx, DWORD PTR _point$[esp+28]
  00041	51		 push	 ecx
  00042	55		 push	 ebp
  00043	56		 push	 esi
  00044	ff 15 00 00 00
	00		 call	 DWORD PTR __imp__PtInRect@12
  0004a	85 c0		 test	 eax, eax
  0004c	75 1b		 jne	 SHORT $L258482
$L252862:

; 435  : 	for( int i = 0; i < m_nRect; i++ )

  0004e	8b 83 00 34 00
	00		 mov	 eax, DWORD PTR [ebx+13312]
  00054	47		 inc	 edi
  00055	83 c6 18	 add	 esi, 24			; 00000018H
  00058	3b f8		 cmp	 edi, eax
  0005a	7c d8		 jl	 SHORT $L258484
$L252863:
  0005c	5f		 pop	 edi
  0005d	5e		 pop	 esi
  0005e	5d		 pop	 ebp

; 440  : 	}
; 441  : 	return -1;

  0005f	83 c8 ff	 or	 eax, -1
  00062	5b		 pop	 ebx

; 442  : }

  00063	83 c4 08	 add	 esp, 8
  00066	c2 08 00	 ret	 8
$L258482:

; 439  : 			return m_pRect[i].nId;

  00069	8d 14 7f	 lea	 edx, DWORD PTR [edi+edi*2]
  0006c	8b 84 d3 00 1c
	00 00		 mov	 eax, DWORD PTR [ebx+edx*8+7168]
  00073	5f		 pop	 edi
  00074	5e		 pop	 esi
  00075	5d		 pop	 ebp
  00076	5b		 pop	 ebx

; 442  : }

  00077	83 c4 08	 add	 esp, 8
  0007a	c2 08 00	 ret	 8
?PtInQuestRect@CPartyQuestProcessor@@QAEHKABUD3DXVECTOR3@@@Z ENDP ; CPartyQuestProcessor::PtInQuestRect
_TEXT	ENDS
PUBLIC	?GetTickCount@CTime@ATL@@SG?AV12@XZ		; ATL::CTime::GetTickCount
EXTRN	__time64:NEAR
; Function compile flags: /Ogty
; File c:\program files\microsoft visual studio .net 2003\vc7\atlmfc\include\atltime.inl
;	COMDAT ?GetTickCount@CTime@ATL@@SG?AV12@XZ
_TEXT	SEGMENT
___$ReturnUdt$ = 8					; size = 4
?GetTickCount@CTime@ATL@@SG?AV12@XZ PROC NEAR		; ATL::CTime::GetTickCount, COMDAT

; 139  : 	return( CTime( ::_time64( NULL ) ) );

  00000	6a 00		 push	 0
  00002	e8 00 00 00 00	 call	 __time64
  00007	8b 4c 24 08	 mov	 ecx, DWORD PTR ___$ReturnUdt$[esp]
  0000b	89 01		 mov	 DWORD PTR [ecx], eax
  0000d	83 c4 04	 add	 esp, 4
  00010	89 51 04	 mov	 DWORD PTR [ecx+4], edx
  00013	8b c1		 mov	 eax, ecx

; 140  : }

  00015	c2 04 00	 ret	 4
?GetTickCount@CTime@ATL@@SG?AV12@XZ ENDP		; ATL::CTime::GetTickCount
_TEXT	ENDS
PUBLIC	?GetLength@?$CSimpleStringT@D$0A@@ATL@@QBEHXZ	; ATL::CSimpleStringT<char,0>::GetLength
; Function compile flags: /Ogty
; File c:\program files\microsoft visual studio .net 2003\vc7\atlmfc\include\atlsimpstr.h
;	COMDAT ?GetLength@?$CSimpleStringT@D$0A@@ATL@@QBEHXZ
_TEXT	SEGMENT
?GetLength@?$CSimpleStringT@D$0A@@ATL@@QBEHXZ PROC NEAR	; ATL::CSimpleStringT<char,0>::GetLength, COMDAT
; _this$ = ecx

; 501  : 		return( GetData()->nDataLength );

  00000	8b 01		 mov	 eax, DWORD PTR [ecx]
  00002	8b 40 f4	 mov	 eax, DWORD PTR [eax-12]

; 502  : 	}

  00005	c3		 ret	 0
?GetLength@?$CSimpleStringT@D$0A@@ATL@@QBEHXZ ENDP	; ATL::CSimpleStringT<char,0>::GetLength
_TEXT	ENDS
PUBLIC	??9const_iterator@?$_Tree@V?$_Tmap_traits@KPAVCMover@@U?$less@K@std@@V?$allocator@U?$pair@$$CBKPAVCMover@@@std@@@3@$0A@@std@@@std@@QBE_NABV012@@Z ; std::_Tree<std::_Tmap_traits<unsigned long,CMover *,std::less<unsigned long>,std::allocator<std::pair<unsigned long const ,CMover *> >,0> >::const_iterator::operator!=
; Function compile flags: /Ogty
; File c:\program files\microsoft visual studio .net 2003\vc7\include\xtree
;	COMDAT ??9const_iterator@?$_Tree@V?$_Tmap_traits@KPAVCMover@@U?$less@K@std@@V?$allocator@U?$pair@$$CBKPAVCMover@@@std@@@3@$0A@@std@@@std@@QBE_NABV012@@Z
_TEXT	SEGMENT
__Right$ = 8						; size = 4
??9const_iterator@?$_Tree@V?$_Tmap_traits@KPAVCMover@@U?$less@K@std@@V?$allocator@U?$pair@$$CBKPAVCMover@@@std@@@3@$0A@@std@@@std@@QBE_NABV012@@Z PROC NEAR ; std::_Tree<std::_Tmap_traits<unsigned long,CMover *,std::less<unsigned long>,std::allocator<std::pair<unsigned long const ,CMover *> >,0> >::const_iterator::operator!=, COMDAT
; _this$ = ecx

; 246  : 			return (!(*this == _Right));

  00000	8b 01		 mov	 eax, DWORD PTR [ecx]
  00002	8b 54 24 04	 mov	 edx, DWORD PTR __Right$[esp-4]
  00006	56		 push	 esi
  00007	8b 32		 mov	 esi, DWORD PTR [edx]
  00009	33 c9		 xor	 ecx, ecx
  0000b	3b c6		 cmp	 eax, esi
  0000d	0f 95 c1	 setne	 cl
  00010	8a c1		 mov	 al, cl
  00012	5e		 pop	 esi

; 247  : 			}

  00013	c2 04 00	 ret	 4
??9const_iterator@?$_Tree@V?$_Tmap_traits@KPAVCMover@@U?$less@K@std@@V?$allocator@U?$pair@$$CBKPAVCMover@@@std@@@3@$0A@@std@@@std@@QBE_NABV012@@Z ENDP ; std::_Tree<std::_Tmap_traits<unsigned long,CMover *,std::less<unsigned long>,std::allocator<std::pair<unsigned long const ,CMover *> >,0> >::const_iterator::operator!=
_TEXT	ENDS
PUBLIC	??0?$CSimpleStringT@D$0A@@ATL@@QAE@PAUIAtlStringMgr@1@@Z ; ATL::CSimpleStringT<char,0>::CSimpleStringT<char,0>
; Function compile flags: /Ogty
; File c:\program files\microsoft visual studio .net 2003\vc7\atlmfc\include\atlsimpstr.h
;	COMDAT ??0?$CSimpleStringT@D$0A@@ATL@@QAE@PAUIAtlStringMgr@1@@Z
_TEXT	SEGMENT
_pStringMgr$ = 8					; size = 4
??0?$CSimpleStringT@D$0A@@ATL@@QAE@PAUIAtlStringMgr@1@@Z PROC NEAR ; ATL::CSimpleStringT<char,0>::CSimpleStringT<char,0>, COMDAT
; _this$ = ecx

; 210  : 	explicit CSimpleStringT( IAtlStringMgr* pStringMgr ) throw()

  00000	56		 push	 esi
  00001	8b f1		 mov	 esi, ecx

; 211  : 	{
; 212  : 		ATLASSERT( pStringMgr != NULL );
; 213  : 		CStringData* pData = pStringMgr->GetNilString();

  00003	8b 4c 24 08	 mov	 ecx, DWORD PTR _pStringMgr$[esp]
  00007	8b 01		 mov	 eax, DWORD PTR [ecx]
  00009	ff 50 0c	 call	 DWORD PTR [eax+12]

; 214  : 		Attach( pData );

  0000c	83 c0 10	 add	 eax, 16			; 00000010H
  0000f	89 06		 mov	 DWORD PTR [esi], eax

; 215  : 	}

  00011	8b c6		 mov	 eax, esi
  00013	5e		 pop	 esi
  00014	c2 04 00	 ret	 4
??0?$CSimpleStringT@D$0A@@ATL@@QAE@PAUIAtlStringMgr@1@@Z ENDP ; ATL::CSimpleStringT<char,0>::CSimpleStringT<char,0>
_TEXT	ENDS
PUBLIC	??1?$CSimpleStringT@D$0A@@ATL@@QAE@XZ		; ATL::CSimpleStringT<char,0>::~CSimpleStringT<char,0>
; Function compile flags: /Ogty
;	COMDAT ??1?$CSimpleStringT@D$0A@@ATL@@QAE@XZ
_TEXT	SEGMENT
??1?$CSimpleStringT@D$0A@@ATL@@QAE@XZ PROC NEAR		; ATL::CSimpleStringT<char,0>::~CSimpleStringT<char,0>, COMDAT
; _this$ = ecx

; 263  : 		CStringData* pData = GetData();

  00000	8b 01		 mov	 eax, DWORD PTR [ecx]
  00002	83 e8 10	 sub	 eax, 16			; 00000010H

; 264  : 		pData->Release();

  00005	8d 48 0c	 lea	 ecx, DWORD PTR [eax+12]
  00008	83 ca ff	 or	 edx, -1
  0000b	f0 0f c1 11	 lock	  xadd	 DWORD PTR [ecx], edx
  0000f	4a		 dec	 edx
  00010	85 d2		 test	 edx, edx
  00012	7f 08		 jg	 SHORT $L258524
  00014	8b 08		 mov	 ecx, DWORD PTR [eax]
  00016	8b 11		 mov	 edx, DWORD PTR [ecx]
  00018	50		 push	 eax
  00019	ff 52 04	 call	 DWORD PTR [edx+4]
$L258524:

; 265  : 	}

  0001c	c3		 ret	 0
??1?$CSimpleStringT@D$0A@@ATL@@QAE@XZ ENDP		; ATL::CSimpleStringT<char,0>::~CSimpleStringT<char,0>
_TEXT	ENDS
PUBLIC	?ReleaseBufferSetLength@?$CSimpleStringT@D$0A@@ATL@@QAEXH@Z ; ATL::CSimpleStringT<char,0>::ReleaseBufferSetLength
; Function compile flags: /Ogty
;	COMDAT ?ReleaseBufferSetLength@?$CSimpleStringT@D$0A@@ATL@@QAEXH@Z
_TEXT	SEGMENT
_nNewLength$ = 8					; size = 4
?ReleaseBufferSetLength@?$CSimpleStringT@D$0A@@ATL@@QAEXH@Z PROC NEAR ; ATL::CSimpleStringT<char,0>::ReleaseBufferSetLength, COMDAT
; _this$ = ecx

; 547  : 		ATLASSERT( nNewLength >= 0 );
; 548  : 		SetLength( nNewLength );

  00000	8b 44 24 04	 mov	 eax, DWORD PTR _nNewLength$[esp-4]
  00004	85 c0		 test	 eax, eax
  00006	7c 13		 jl	 SHORT $L258542
  00008	8b 11		 mov	 edx, DWORD PTR [ecx]
  0000a	3b 42 f8	 cmp	 eax, DWORD PTR [edx-8]
  0000d	7f 0c		 jg	 SHORT $L258542
  0000f	89 42 f4	 mov	 DWORD PTR [edx-12], eax
  00012	8b 09		 mov	 ecx, DWORD PTR [ecx]
  00014	c6 04 08 00	 mov	 BYTE PTR [eax+ecx], 0

; 549  : 	}

  00018	c2 04 00	 ret	 4
$L258542:
  0001b	68 57 00 07 80	 push	 -2147024809		; 80070057H
  00020	e8 00 00 00 00	 call	 ?AtlThrow@ATL@@YGXJ@Z	; ATL::AtlThrow
$L258545:
$L258544:
  00025	cc		 int	 3
?ReleaseBufferSetLength@?$CSimpleStringT@D$0A@@ATL@@QAEXH@Z ENDP ; ATL::CSimpleStringT<char,0>::ReleaseBufferSetLength
_TEXT	ENDS
PUBLIC	?_Key@?$_Tree@V?$_Tmap_traits@KPAVCMover@@U?$less@K@std@@V?$allocator@U?$pair@$$CBKPAVCMover@@@std@@@3@$0A@@std@@@std@@KAABKPAU_Node@?$_Tree_nod@V?$_Tmap_traits@KPAVCMover@@U?$less@K@std@@V?$allocator@U?$pair@$$CBKPAVCMover@@@std@@@3@$0A@@std@@@2@@Z ; std::_Tree<std::_Tmap_traits<unsigned long,CMover *,std::less<unsigned long>,std::allocator<std::pair<unsigned long const ,CMover *> >,0> >::_Key
; Function compile flags: /Ogty
; File c:\program files\microsoft visual studio .net 2003\vc7\include\xtree
;	COMDAT ?_Key@?$_Tree@V?$_Tmap_traits@KPAVCMover@@U?$less@K@std@@V?$allocator@U?$pair@$$CBKPAVCMover@@@std@@@3@$0A@@std@@@std@@KAABKPAU_Node@?$_Tree_nod@V?$_Tmap_traits@KPAVCMover@@U?$less@K@std@@V?$allocator@U?$pair@$$CBKPAVCMover@@@std@@@3@$0A@@std@@@2@@Z
_TEXT	SEGMENT
__Pnode$ = 8						; size = 4
?_Key@?$_Tree@V?$_Tmap_traits@KPAVCMover@@U?$less@K@std@@V?$allocator@U?$pair@$$CBKPAVCMover@@@std@@@3@$0A@@std@@@std@@KAABKPAU_Node@?$_Tree_nod@V?$_Tmap_traits@KPAVCMover@@U?$less@K@std@@V?$allocator@U?$pair@$$CBKPAVCMover@@@std@@@3@$0A@@std@@@2@@Z PROC NEAR ; std::_Tree<std::_Tmap_traits<unsigned long,CMover *,std::less<unsigned long>,std::allocator<std::pair<unsigned long const ,CMover *> >,0> >::_Key, COMDAT

; 142  : 		return (_Mybase::_Kfn(_Myval(_Pnode)));

  00000	8b 44 24 04	 mov	 eax, DWORD PTR __Pnode$[esp-4]
  00004	83 c0 0c	 add	 eax, 12			; 0000000cH

; 143  : 		}

  00007	c3		 ret	 0
?_Key@?$_Tree@V?$_Tmap_traits@KPAVCMover@@U?$less@K@std@@V?$allocator@U?$pair@$$CBKPAVCMover@@@std@@@3@$0A@@std@@@std@@KAABKPAU_Node@?$_Tree_nod@V?$_Tmap_traits@KPAVCMover@@U?$less@K@std@@V?$allocator@U?$pair@$$CBKPAVCMover@@@std@@@3@$0A@@std@@@2@@Z ENDP ; std::_Tree<std::_Tmap_traits<unsigned long,CMover *,std::less<unsigned long>,std::allocator<std::pair<unsigned long const ,CMover *> >,0> >::_Key
_TEXT	ENDS
PUBLIC	??0iterator@?$_Tree@V?$_Tmap_traits@KPAVCMover@@U?$less@K@std@@V?$allocator@U?$pair@$$CBKPAVCMover@@@std@@@3@$0A@@std@@@std@@QAE@PAU_Node@?$_Tree_nod@V?$_Tmap_traits@KPAVCMover@@U?$less@K@std@@V?$allocator@U?$pair@$$CBKPAVCMover@@@std@@@3@$0A@@std@@@2@@Z ; std::_Tree<std::_Tmap_traits<unsigned long,CMover *,std::less<unsigned long>,std::allocator<std::pair<unsigned long const ,CMover *> >,0> >::iterator::iterator
; Function compile flags: /Ogty
;	COMDAT ??0iterator@?$_Tree@V?$_Tmap_traits@KPAVCMover@@U?$less@K@std@@V?$allocator@U?$pair@$$CBKPAVCMover@@@std@@@3@$0A@@std@@@std@@QAE@PAU_Node@?$_Tree_nod@V?$_Tmap_traits@KPAVCMover@@U?$less@K@std@@V?$allocator@U?$pair@$$CBKPAVCMover@@@std@@@3@$0A@@std@@@2@@Z
_TEXT	SEGMENT
__Pnode$ = 8						; size = 4
??0iterator@?$_Tree@V?$_Tmap_traits@KPAVCMover@@U?$less@K@std@@V?$allocator@U?$pair@$$CBKPAVCMover@@@std@@@3@$0A@@std@@@std@@QAE@PAU_Node@?$_Tree_nod@V?$_Tmap_traits@KPAVCMover@@U?$less@K@std@@V?$allocator@U?$pair@$$CBKPAVCMover@@@std@@@3@$0A@@std@@@2@@Z PROC NEAR ; std::_Tree<std::_Tmap_traits<unsigned long,CMover *,std::less<unsigned long>,std::allocator<std::pair<unsigned long const ,CMover *> >,0> >::iterator::iterator, COMDAT
; _this$ = ecx

; 312  : 			{	// construct with node pointer _Pnode

  00000	8b c1		 mov	 eax, ecx
  00002	8b 4c 24 04	 mov	 ecx, DWORD PTR __Pnode$[esp-4]
  00006	89 08		 mov	 DWORD PTR [eax], ecx

; 313  : 			}

  00008	c2 04 00	 ret	 4
??0iterator@?$_Tree@V?$_Tmap_traits@KPAVCMover@@U?$less@K@std@@V?$allocator@U?$pair@$$CBKPAVCMover@@@std@@@3@$0A@@std@@@std@@QAE@PAU_Node@?$_Tree_nod@V?$_Tmap_traits@KPAVCMover@@U?$less@K@std@@V?$allocator@U?$pair@$$CBKPAVCMover@@@std@@@3@$0A@@std@@@2@@Z ENDP ; std::_Tree<std::_Tmap_traits<unsigned long,CMover *,std::less<unsigned long>,std::allocator<std::pair<unsigned long const ,CMover *> >,0> >::iterator::iterator
_TEXT	ENDS
PUBLIC	??Diterator@?$_Tree@V?$_Tmap_traits@KPAVCMover@@U?$less@K@std@@V?$allocator@U?$pair@$$CBKPAVCMover@@@std@@@3@$0A@@std@@@std@@QBEAAU?$pair@$$CBKPAVCMover@@@2@XZ ; std::_Tree<std::_Tmap_traits<unsigned long,CMover *,std::less<unsigned long>,std::allocator<std::pair<unsigned long const ,CMover *> >,0> >::iterator::operator*
; Function compile flags: /Ogty
;	COMDAT ??Diterator@?$_Tree@V?$_Tmap_traits@KPAVCMover@@U?$less@K@std@@V?$allocator@U?$pair@$$CBKPAVCMover@@@std@@@3@$0A@@std@@@std@@QBEAAU?$pair@$$CBKPAVCMover@@@2@XZ
_TEXT	SEGMENT
??Diterator@?$_Tree@V?$_Tmap_traits@KPAVCMover@@U?$less@K@std@@V?$allocator@U?$pair@$$CBKPAVCMover@@@std@@@3@$0A@@std@@@std@@QBEAAU?$pair@$$CBKPAVCMover@@@2@XZ PROC NEAR ; std::_Tree<std::_Tmap_traits<unsigned long,CMover *,std::less<unsigned long>,std::allocator<std::pair<unsigned long const ,CMover *> >,0> >::iterator::operator*, COMDAT
; _this$ = ecx

; 317  : 			return ((reference)**(const_iterator *)this);

  00000	8b 01		 mov	 eax, DWORD PTR [ecx]
  00002	83 c0 0c	 add	 eax, 12			; 0000000cH

; 318  : 			}

  00005	c3		 ret	 0
??Diterator@?$_Tree@V?$_Tmap_traits@KPAVCMover@@U?$less@K@std@@V?$allocator@U?$pair@$$CBKPAVCMover@@@std@@@3@$0A@@std@@@std@@QBEAAU?$pair@$$CBKPAVCMover@@@2@XZ ENDP ; std::_Tree<std::_Tmap_traits<unsigned long,CMover *,std::less<unsigned long>,std::allocator<std::pair<unsigned long const ,CMover *> >,0> >::iterator::operator*
_TEXT	ENDS
PUBLIC	?Empty@?$CSimpleStringT@D$0A@@ATL@@QAEXXZ	; ATL::CSimpleStringT<char,0>::Empty
; Function compile flags: /Ogty
; File c:\program files\microsoft visual studio .net 2003\vc7\atlmfc\include\atlsimpstr.h
;	COMDAT ?Empty@?$CSimpleStringT@D$0A@@ATL@@QAEXXZ
_TEXT	SEGMENT
?Empty@?$CSimpleStringT@D$0A@@ATL@@QAEXXZ PROC NEAR	; ATL::CSimpleStringT<char,0>::Empty, COMDAT
; _this$ = ecx

; 421  : 	{

  00000	56		 push	 esi
  00001	8b f1		 mov	 esi, ecx

; 422  : 		CStringData* pOldData = GetData();

  00003	8b 0e		 mov	 ecx, DWORD PTR [esi]

; 423  : 		IAtlStringMgr* pStringMgr = pOldData->pStringMgr;
; 424  : 		if( pOldData->nDataLength == 0 )

  00005	8b 51 f4	 mov	 edx, DWORD PTR [ecx-12]
  00008	85 d2		 test	 edx, edx
  0000a	8d 41 f0	 lea	 eax, DWORD PTR [ecx-16]
  0000d	57		 push	 edi
  0000e	8b 38		 mov	 edi, DWORD PTR [eax]
  00010	74 4c		 je	 SHORT $L258605
  00012	53		 push	 ebx

; 425  : 		{
; 426  : 			return;
; 427  : 		}
; 428  : 
; 429  : 		if( pOldData->IsLocked() )

  00013	8b 58 0c	 mov	 ebx, DWORD PTR [eax+12]
  00016	8d 50 0c	 lea	 edx, DWORD PTR [eax+12]
  00019	85 db		 test	 ebx, ebx
  0001b	5b		 pop	 ebx
  0001c	7d 20		 jge	 SHORT $L221323

; 430  : 		{
; 431  : 			// Don't reallocate a locked buffer that's shrinking
; 432  : 			SetLength( 0 );

  0001e	8b 41 f8	 mov	 eax, DWORD PTR [ecx-8]
  00021	85 c0		 test	 eax, eax
  00023	7d 0a		 jge	 SHORT $L258594
  00025	68 57 00 07 80	 push	 -2147024809		; 80070057H
  0002a	e8 00 00 00 00	 call	 ?AtlThrow@ATL@@YGXJ@Z	; ATL::AtlThrow
$L258610:
$L258594:
  0002f	c7 41 f4 00 00
	00 00		 mov	 DWORD PTR [ecx-12], 0
  00036	8b 06		 mov	 eax, DWORD PTR [esi]
  00038	5f		 pop	 edi
  00039	c6 00 00	 mov	 BYTE PTR [eax], 0
  0003c	5e		 pop	 esi

; 439  : 		}
; 440  : 	}

  0003d	c3		 ret	 0
$L221323:

; 433  : 		}
; 434  : 		else
; 435  : 		{
; 436  : 			pOldData->Release();

  0003e	83 c9 ff	 or	 ecx, -1
  00041	f0 0f c1 0a	 lock	  xadd	 DWORD PTR [edx], ecx
  00045	49		 dec	 ecx
  00046	85 c9		 test	 ecx, ecx
  00048	7f 08		 jg	 SHORT $L258600
  0004a	8b 08		 mov	 ecx, DWORD PTR [eax]
  0004c	8b 11		 mov	 edx, DWORD PTR [ecx]
  0004e	50		 push	 eax
  0004f	ff 52 04	 call	 DWORD PTR [edx+4]
$L258600:

; 437  : 			CStringData* pNewData = pStringMgr->GetNilString();

  00052	8b 07		 mov	 eax, DWORD PTR [edi]
  00054	8b cf		 mov	 ecx, edi
  00056	ff 50 0c	 call	 DWORD PTR [eax+12]

; 438  : 			Attach( pNewData );

  00059	83 c0 10	 add	 eax, 16			; 00000010H
  0005c	89 06		 mov	 DWORD PTR [esi], eax
$L258605:
  0005e	5f		 pop	 edi
  0005f	5e		 pop	 esi

; 439  : 		}
; 440  : 	}

  00060	c3		 ret	 0
$L258609:
?Empty@?$CSimpleStringT@D$0A@@ATL@@QAEXXZ ENDP		; ATL::CSimpleStringT<char,0>::Empty
_TEXT	ENDS
PUBLIC	?PrepareWrite2@?$CSimpleStringT@D$0A@@ATL@@AAEXH@Z ; ATL::CSimpleStringT<char,0>::PrepareWrite2
; Function compile flags: /Ogty
;	COMDAT ?PrepareWrite2@?$CSimpleStringT@D$0A@@ATL@@AAEXH@Z
_TEXT	SEGMENT
_nLength$ = 8						; size = 4
?PrepareWrite2@?$CSimpleStringT@D$0A@@ATL@@AAEXH@Z PROC NEAR ; ATL::CSimpleStringT<char,0>::PrepareWrite2, COMDAT
; _this$ = ecx

; 747  : 		CStringData* pOldData = GetData();

  00000	8b 01		 mov	 eax, DWORD PTR [ecx]

; 748  : 		if( pOldData->nDataLength > nLength )

  00002	8b 54 24 04	 mov	 edx, DWORD PTR _nLength$[esp-4]
  00006	83 e8 10	 sub	 eax, 16			; 00000010H
  00009	56		 push	 esi
  0000a	8b 70 04	 mov	 esi, DWORD PTR [eax+4]
  0000d	3b f2		 cmp	 esi, edx
  0000f	7e 02		 jle	 SHORT $L221345

; 749  : 		{
; 750  : 			nLength = pOldData->nDataLength;

  00011	8b d6		 mov	 edx, esi
$L221345:

; 751  : 		}
; 752  : 		if( pOldData->IsShared() )

  00013	83 78 0c 01	 cmp	 DWORD PTR [eax+12], 1
  00017	5e		 pop	 esi
  00018	7e 09		 jle	 SHORT $L221346

; 753  : 		{
; 754  : 			Fork( nLength );

  0001a	89 54 24 04	 mov	 DWORD PTR _nLength$[esp-4], edx
  0001e	e9 00 00 00 00	 jmp	 ?Fork@?$CSimpleStringT@D$0A@@ATL@@AAEXH@Z ; ATL::CSimpleStringT<char,0>::Fork
$L221346:

; 755  : 		}
; 756  : 		else if( pOldData->nAllocLength < nLength )

  00023	8b 40 08	 mov	 eax, DWORD PTR [eax+8]
  00026	3b c2		 cmp	 eax, edx
  00028	7d 1f		 jge	 SHORT $L221348

; 757  : 		{
; 758  : 			// Grow exponentially, until we hit 1K.
; 759  : 			int nNewLength = pOldData->nAllocLength;
; 760  : 			if( nNewLength > 1024 )

  0002a	3d 00 04 00 00	 cmp	 eax, 1024		; 00000400H
  0002f	7e 07		 jle	 SHORT $L221350

; 761  : 			{
; 762  : 				nNewLength += 1024;

  00031	05 00 04 00 00	 add	 eax, 1024		; 00000400H

; 763  : 			}
; 764  : 			else

  00036	eb 02		 jmp	 SHORT $L221351
$L221350:

; 765  : 			{
; 766  : 				nNewLength *= 2;

  00038	03 c0		 add	 eax, eax
$L221351:

; 767  : 			}
; 768  : 			if( nNewLength < nLength )

  0003a	3b c2		 cmp	 eax, edx
  0003c	7d 02		 jge	 SHORT $L221352

; 769  : 			{
; 770  : 				nNewLength = nLength;

  0003e	8b c2		 mov	 eax, edx
$L221352:

; 771  : 			}
; 772  : 			Reallocate( nNewLength );

  00040	89 44 24 04	 mov	 DWORD PTR _nLength$[esp-4], eax
  00044	e9 00 00 00 00	 jmp	 ?Reallocate@?$CSimpleStringT@D$0A@@ATL@@AAEXH@Z ; ATL::CSimpleStringT<char,0>::Reallocate
$L221348:

; 773  : 		}
; 774  : 	}

  00049	c2 04 00	 ret	 4
?PrepareWrite2@?$CSimpleStringT@D$0A@@ATL@@AAEXH@Z ENDP	; ATL::CSimpleStringT<char,0>::PrepareWrite2
_TEXT	ENDS
PUBLIC	?_Root@?$_Tree@V?$_Tmap_traits@KPAVCMover@@U?$less@K@std@@V?$allocator@U?$pair@$$CBKPAVCMover@@@std@@@3@$0A@@std@@@std@@IBEAAPAU_Node@?$_Tree_nod@V?$_Tmap_traits@KPAVCMover@@U?$less@K@std@@V?$allocator@U?$pair@$$CBKPAVCMover@@@std@@@3@$0A@@std@@@2@XZ ; std::_Tree<std::_Tmap_traits<unsigned long,CMover *,std::less<unsigned long>,std::allocator<std::pair<unsigned long const ,CMover *> >,0> >::_Root
; Function compile flags: /Ogty
; File c:\program files\microsoft visual studio .net 2003\vc7\include\xtree
;	COMDAT ?_Root@?$_Tree@V?$_Tmap_traits@KPAVCMover@@U?$less@K@std@@V?$allocator@U?$pair@$$CBKPAVCMover@@@std@@@3@$0A@@std@@@std@@IBEAAPAU_Node@?$_Tree_nod@V?$_Tmap_traits@KPAVCMover@@U?$less@K@std@@V?$allocator@U?$pair@$$CBKPAVCMover@@@std@@@3@$0A@@std@@@2@XZ
_TEXT	SEGMENT
?_Root@?$_Tree@V?$_Tmap_traits@KPAVCMover@@U?$less@K@std@@V?$allocator@U?$pair@$$CBKPAVCMover@@@std@@@3@$0A@@std@@@std@@IBEAAPAU_Node@?$_Tree_nod@V?$_Tmap_traits@KPAVCMover@@U?$less@K@std@@V?$allocator@U?$pair@$$CBKPAVCMover@@@std@@@3@$0A@@std@@@2@XZ PROC NEAR ; std::_Tree<std::_Tmap_traits<unsigned long,CMover *,std::less<unsigned long>,std::allocator<std::pair<unsigned long const ,CMover *> >,0> >::_Root, COMDAT
; _this$ = ecx

; 1064 : 		return (_Parent(_Myhead));

  00000	8b 41 04	 mov	 eax, DWORD PTR [ecx+4]
  00003	83 c0 04	 add	 eax, 4

; 1065 : 		}

  00006	c3		 ret	 0
?_Root@?$_Tree@V?$_Tmap_traits@KPAVCMover@@U?$less@K@std@@V?$allocator@U?$pair@$$CBKPAVCMover@@@std@@@3@$0A@@std@@@std@@IBEAAPAU_Node@?$_Tree_nod@V?$_Tmap_traits@KPAVCMover@@U?$less@K@std@@V?$allocator@U?$pair@$$CBKPAVCMover@@@std@@@3@$0A@@std@@@2@XZ ENDP ; std::_Tree<std::_Tmap_traits<unsigned long,CMover *,std::less<unsigned long>,std::allocator<std::pair<unsigned long const ,CMover *> >,0> >::_Root
_TEXT	ENDS
PUBLIC	??0CPartyQuestProcessor@@QAE@XZ			; CPartyQuestProcessor::CPartyQuestProcessor
; Function compile flags: /Ogty
; File c:\documents and settings\test\mes documents\source\virtuos_v17\build\program\_common\partyquest.cpp
;	COMDAT ??0CPartyQuestProcessor@@QAE@XZ
_TEXT	SEGMENT
??0CPartyQuestProcessor@@QAE@XZ PROC NEAR		; CPartyQuestProcessor::CPartyQuestProcessor, COMDAT
; _this$ = ecx

; 15   : {

  00000	53		 push	 ebx
  00001	56		 push	 esi
  00002	57		 push	 edi
  00003	8b c1		 mov	 eax, ecx
  00005	83 cf ff	 or	 edi, -1
  00008	8d 50 08	 lea	 edx, DWORD PTR [eax+8]
  0000b	be 00 01 00 00	 mov	 esi, 256		; 00000100H
  00010	33 db		 xor	 ebx, ebx
$L258639:
  00012	89 7a f8	 mov	 DWORD PTR [edx-8], edi
  00015	89 5a fc	 mov	 DWORD PTR [edx-4], ebx
  00018	89 1a		 mov	 DWORD PTR [edx], ebx
  0001a	89 5a 04	 mov	 DWORD PTR [edx+4], ebx
  0001d	88 5a 08	 mov	 BYTE PTR [edx+8], bl
  00020	88 5a 0a	 mov	 BYTE PTR [edx+10], bl
  00023	88 5a 09	 mov	 BYTE PTR [edx+9], bl
  00026	89 7a 0c	 mov	 DWORD PTR [edx+12], edi
  00029	66 89 5a 10	 mov	 WORD PTR [edx+16], bx
  0002d	83 c2 1c	 add	 edx, 28			; 0000001cH
  00030	4e		 dec	 esi
  00031	75 df		 jne	 SHORT $L258639
  00033	5f		 pop	 edi
  00034	5e		 pop	 esi

; 16   : 	m_nRect	= 0;

  00035	89 98 00 34 00
	00		 mov	 DWORD PTR [eax+13312], ebx
  0003b	5b		 pop	 ebx

; 17   : }

  0003c	c3		 ret	 0
??0CPartyQuestProcessor@@QAE@XZ ENDP			; CPartyQuestProcessor::CPartyQuestProcessor
_TEXT	ENDS
PUBLIC	?GetInstance@CPartyQuestProcessor@@SAPAV1@XZ	; CPartyQuestProcessor::GetInstance
EXTRN	_atexit:NEAR
;	COMDAT ?sPartyQuestProcessor@?1??GetInstance@CPartyQuestProcessor@@SAPAV2@XZ@4V2@A
_BSS	SEGMENT
?sPartyQuestProcessor@?1??GetInstance@CPartyQuestProcessor@@SAPAV2@XZ@4V2@A DB 03404H DUP (?) ; `CPartyQuestProcessor::GetInstance'::`2'::sPartyQuestProcessor
_BSS	ENDS
;	COMDAT ?$S1@?1??GetInstance@CPartyQuestProcessor@@SAPAV2@XZ@4IA
_BSS	SEGMENT
?$S1@?1??GetInstance@CPartyQuestProcessor@@SAPAV2@XZ@4IA DD 01H DUP (?) ; `CPartyQuestProcessor::GetInstance'::`2'::$S1
; Function compile flags: /Ogty
_BSS	ENDS
;	COMDAT ?GetInstance@CPartyQuestProcessor@@SAPAV1@XZ
_TEXT	SEGMENT
?GetInstance@CPartyQuestProcessor@@SAPAV1@XZ PROC NEAR	; CPartyQuestProcessor::GetInstance, COMDAT

; 417  : 	static CPartyQuestProcessor sPartyQuestProcessor;

  00000	8a 0d 00 00 00
	00		 mov	 cl, BYTE PTR ?$S1@?1??GetInstance@CPartyQuestProcessor@@SAPAV2@XZ@4IA
  00006	b8 01 00 00 00	 mov	 eax, 1
  0000b	84 c8		 test	 cl, al
  0000d	75 25		 jne	 SHORT $L258665
  0000f	8b 15 00 00 00
	00		 mov	 edx, DWORD PTR ?$S1@?1??GetInstance@CPartyQuestProcessor@@SAPAV2@XZ@4IA
  00015	0b d0		 or	 edx, eax
  00017	b9 00 00 00 00	 mov	 ecx, OFFSET FLAT:?sPartyQuestProcessor@?1??GetInstance@CPartyQuestProcessor@@SAPAV2@XZ@4V2@A
  0001c	89 15 00 00 00
	00		 mov	 DWORD PTR ?$S1@?1??GetInstance@CPartyQuestProcessor@@SAPAV2@XZ@4IA, edx
  00022	e8 00 00 00 00	 call	 ??0CPartyQuestProcessor@@QAE@XZ ; CPartyQuestProcessor::CPartyQuestProcessor
  00027	68 00 00 00 00	 push	 OFFSET FLAT:_$E2
  0002c	e8 00 00 00 00	 call	 _atexit
  00031	83 c4 04	 add	 esp, 4
$L258665:

; 418  : 	return &sPartyQuestProcessor;

  00034	b8 00 00 00 00	 mov	 eax, OFFSET FLAT:?sPartyQuestProcessor@?1??GetInstance@CPartyQuestProcessor@@SAPAV2@XZ@4V2@A

; 419  : }

  00039	c3		 ret	 0
?GetInstance@CPartyQuestProcessor@@SAPAV1@XZ ENDP	; CPartyQuestProcessor::GetInstance
_TEXT	ENDS
PUBLIC	??0?$CStringT@DV?$StrTraitMFC@DV?$ChTraitsCRT@D@ATL@@@@@ATL@@QAE@XZ ; ATL::CStringT<char,StrTraitMFC<char,ATL::ChTraitsCRT<char> > >::CStringT<char,StrTraitMFC<char,ATL::ChTraitsCRT<char> > >
; Function compile flags: /Ogty
; File c:\program files\microsoft visual studio .net 2003\vc7\atlmfc\include\cstringt.h
;	COMDAT ??0?$CStringT@DV?$StrTraitMFC@DV?$ChTraitsCRT@D@ATL@@@@@ATL@@QAE@XZ
_TEXT	SEGMENT
??0?$CStringT@DV?$StrTraitMFC@DV?$ChTraitsCRT@D@ATL@@@@@ATL@@QAE@XZ PROC NEAR ; ATL::CStringT<char,StrTraitMFC<char,ATL::ChTraitsCRT<char> > >::CStringT<char,StrTraitMFC<char,ATL::ChTraitsCRT<char> > >, COMDAT
; _this$ = ecx

; 796  : 	{

  00000	56		 push	 esi
  00001	8b f1		 mov	 esi, ecx
  00003	e8 00 00 00 00	 call	 ?AfxGetStringManager@@YGPAUIAtlStringMgr@ATL@@XZ ; AfxGetStringManager
  00008	8b 10		 mov	 edx, DWORD PTR [eax]
  0000a	8b c8		 mov	 ecx, eax
  0000c	ff 52 0c	 call	 DWORD PTR [edx+12]
  0000f	83 c0 10	 add	 eax, 16			; 00000010H
  00012	89 06		 mov	 DWORD PTR [esi], eax

; 797  : 	}

  00014	8b c6		 mov	 eax, esi
  00016	5e		 pop	 esi
  00017	c3		 ret	 0
??0?$CStringT@DV?$StrTraitMFC@DV?$ChTraitsCRT@D@ATL@@@@@ATL@@QAE@XZ ENDP ; ATL::CStringT<char,StrTraitMFC<char,ATL::ChTraitsCRT<char> > >::CStringT<char,StrTraitMFC<char,ATL::ChTraitsCRT<char> > >
_TEXT	ENDS
PUBLIC	??1?$CStringT@DV?$StrTraitMFC@DV?$ChTraitsCRT@D@ATL@@@@@ATL@@QAE@XZ ; ATL::CStringT<char,StrTraitMFC<char,ATL::ChTraitsCRT<char> > >::~CStringT<char,StrTraitMFC<char,ATL::ChTraitsCRT<char> > >
; Function compile flags: /Ogty
;	COMDAT ??1?$CStringT@DV?$StrTraitMFC@DV?$ChTraitsCRT@D@ATL@@@@@ATL@@QAE@XZ
_TEXT	SEGMENT
??1?$CStringT@DV?$StrTraitMFC@DV?$ChTraitsCRT@D@ATL@@@@@ATL@@QAE@XZ PROC NEAR ; ATL::CStringT<char,StrTraitMFC<char,ATL::ChTraitsCRT<char> > >::~CStringT<char,StrTraitMFC<char,ATL::ChTraitsCRT<char> > >, COMDAT
; _this$ = ecx

; 963  : 	}

  00000	8b 01		 mov	 eax, DWORD PTR [ecx]
  00002	83 e8 10	 sub	 eax, 16			; 00000010H
  00005	8d 48 0c	 lea	 ecx, DWORD PTR [eax+12]
  00008	83 ca ff	 or	 edx, -1
  0000b	f0 0f c1 11	 lock	  xadd	 DWORD PTR [ecx], edx
  0000f	4a		 dec	 edx
  00010	85 d2		 test	 edx, edx
  00012	7f 08		 jg	 SHORT $L258705
  00014	8b 08		 mov	 ecx, DWORD PTR [eax]
  00016	8b 11		 mov	 edx, DWORD PTR [ecx]
  00018	50		 push	 eax
  00019	ff 52 04	 call	 DWORD PTR [edx+4]
$L258705:
  0001c	c3		 ret	 0
??1?$CStringT@DV?$StrTraitMFC@DV?$ChTraitsCRT@D@ATL@@@@@ATL@@QAE@XZ ENDP ; ATL::CStringT<char,StrTraitMFC<char,ATL::ChTraitsCRT<char> > >::~CStringT<char,StrTraitMFC<char,ATL::ChTraitsCRT<char> > >
_TEXT	ENDS
PUBLIC	?end@?$_Tree@V?$_Tmap_traits@KPAVCMover@@U?$less@K@std@@V?$allocator@U?$pair@$$CBKPAVCMover@@@std@@@3@$0A@@std@@@std@@QAE?AViterator@12@XZ ; std::_Tree<std::_Tmap_traits<unsigned long,CMover *,std::less<unsigned long>,std::allocator<std::pair<unsigned long const ,CMover *> >,0> >::end
; Function compile flags: /Ogty
; File c:\program files\microsoft visual studio .net 2003\vc7\include\xtree
;	COMDAT ?end@?$_Tree@V?$_Tmap_traits@KPAVCMover@@U?$less@K@std@@V?$allocator@U?$pair@$$CBKPAVCMover@@@std@@@3@$0A@@std@@@std@@QAE?AViterator@12@XZ
_TEXT	SEGMENT
___$ReturnUdt$ = 8					; size = 4
?end@?$_Tree@V?$_Tmap_traits@KPAVCMover@@U?$less@K@std@@V?$allocator@U?$pair@$$CBKPAVCMover@@@std@@@3@$0A@@std@@@std@@QAE?AViterator@12@XZ PROC NEAR ; std::_Tree<std::_Tmap_traits<unsigned long,CMover *,std::less<unsigned long>,std::allocator<std::pair<unsigned long const ,CMover *> >,0> >::end, COMDAT
; _this$ = ecx

; 418  : 		return (_TREE_ITERATOR(_Myhead));

  00000	8b 49 04	 mov	 ecx, DWORD PTR [ecx+4]
  00003	8b 44 24 04	 mov	 eax, DWORD PTR ___$ReturnUdt$[esp-4]
  00007	89 08		 mov	 DWORD PTR [eax], ecx

; 419  : 		}

  00009	c2 04 00	 ret	 4
?end@?$_Tree@V?$_Tmap_traits@KPAVCMover@@U?$less@K@std@@V?$allocator@U?$pair@$$CBKPAVCMover@@@std@@@3@$0A@@std@@@std@@QAE?AViterator@12@XZ ENDP ; std::_Tree<std::_Tmap_traits<unsigned long,CMover *,std::less<unsigned long>,std::allocator<std::pair<unsigned long const ,CMover *> >,0> >::end
_TEXT	ENDS
PUBLIC	??Citerator@?$_Tree@V?$_Tmap_traits@KPAVCMover@@U?$less@K@std@@V?$allocator@U?$pair@$$CBKPAVCMover@@@std@@@3@$0A@@std@@@std@@QBEPAU?$pair@$$CBKPAVCMover@@@2@XZ ; std::_Tree<std::_Tmap_traits<unsigned long,CMover *,std::less<unsigned long>,std::allocator<std::pair<unsigned long const ,CMover *> >,0> >::iterator::operator->
; Function compile flags: /Ogty
;	COMDAT ??Citerator@?$_Tree@V?$_Tmap_traits@KPAVCMover@@U?$less@K@std@@V?$allocator@U?$pair@$$CBKPAVCMover@@@std@@@3@$0A@@std@@@std@@QBEPAU?$pair@$$CBKPAVCMover@@@2@XZ
_TEXT	SEGMENT
??Citerator@?$_Tree@V?$_Tmap_traits@KPAVCMover@@U?$less@K@std@@V?$allocator@U?$pair@$$CBKPAVCMover@@@std@@@3@$0A@@std@@@std@@QBEPAU?$pair@$$CBKPAVCMover@@@2@XZ PROC NEAR ; std::_Tree<std::_Tmap_traits<unsigned long,CMover *,std::less<unsigned long>,std::allocator<std::pair<unsigned long const ,CMover *> >,0> >::iterator::operator->, COMDAT
; _this$ = ecx

; 322  : 			return (&**this);

  00000	8b 01		 mov	 eax, DWORD PTR [ecx]
  00002	83 c0 0c	 add	 eax, 12			; 0000000cH

; 323  : 			}

  00005	c3		 ret	 0
??Citerator@?$_Tree@V?$_Tmap_traits@KPAVCMover@@U?$less@K@std@@V?$allocator@U?$pair@$$CBKPAVCMover@@@std@@@3@$0A@@std@@@std@@QBEPAU?$pair@$$CBKPAVCMover@@@2@XZ ENDP ; std::_Tree<std::_Tmap_traits<unsigned long,CMover *,std::less<unsigned long>,std::allocator<std::pair<unsigned long const ,CMover *> >,0> >::iterator::operator->
_TEXT	ENDS
PUBLIC	?PrepareWrite@?$CSimpleStringT@D$0A@@ATL@@AAEPADH@Z ; ATL::CSimpleStringT<char,0>::PrepareWrite
; Function compile flags: /Ogty
; File c:\program files\microsoft visual studio .net 2003\vc7\atlmfc\include\atlsimpstr.h
;	COMDAT ?PrepareWrite@?$CSimpleStringT@D$0A@@ATL@@AAEPADH@Z
_TEXT	SEGMENT
_nLength$ = 8						; size = 4
?PrepareWrite@?$CSimpleStringT@D$0A@@ATL@@AAEPADH@Z PROC NEAR ; ATL::CSimpleStringT<char,0>::PrepareWrite, COMDAT
; _this$ = ecx

; 734  : 	{

  00000	56		 push	 esi
  00001	8b f1		 mov	 esi, ecx

; 735  : 		CStringData* pOldData = GetData();

  00003	8b 06		 mov	 eax, DWORD PTR [esi]

; 736  : 		int nShared = 1-pOldData->nRefs;  // nShared < 0 means true, >= 0 means false

  00005	8b 50 fc	 mov	 edx, DWORD PTR [eax-4]
  00008	83 e8 10	 sub	 eax, 16			; 00000010H
  0000b	b9 01 00 00 00	 mov	 ecx, 1
  00010	2b ca		 sub	 ecx, edx

; 737  : 		int nTooShort = pOldData->nAllocLength-nLength;  // nTooShort < 0 means true, >= 0 means false

  00012	8b 50 08	 mov	 edx, DWORD PTR [eax+8]
  00015	8b 44 24 08	 mov	 eax, DWORD PTR _nLength$[esp]
  00019	2b d0		 sub	 edx, eax

; 738  : 		if( (nShared|nTooShort) < 0 )  // If either sign bit is set (i.e. either is less than zero), we need to copy data

  0001b	0b ca		 or	 ecx, edx
  0001d	7d 08		 jge	 SHORT $L258744

; 739  : 		{
; 740  : 			PrepareWrite2( nLength );

  0001f	50		 push	 eax
  00020	8b ce		 mov	 ecx, esi
  00022	e8 00 00 00 00	 call	 ?PrepareWrite2@?$CSimpleStringT@D$0A@@ATL@@AAEXH@Z ; ATL::CSimpleStringT<char,0>::PrepareWrite2
$L258744:

; 741  : 		}
; 742  : 
; 743  : 		return( m_pszData );

  00027	8b 06		 mov	 eax, DWORD PTR [esi]
  00029	5e		 pop	 esi

; 744  : 	}

  0002a	c2 04 00	 ret	 4
?PrepareWrite@?$CSimpleStringT@D$0A@@ATL@@AAEPADH@Z ENDP ; ATL::CSimpleStringT<char,0>::PrepareWrite
_TEXT	ENDS
PUBLIC	?_Lbound@?$_Tree@V?$_Tmap_traits@KPAVCMover@@U?$less@K@std@@V?$allocator@U?$pair@$$CBKPAVCMover@@@std@@@3@$0A@@std@@@std@@IBEPAU_Node@?$_Tree_nod@V?$_Tmap_traits@KPAVCMover@@U?$less@K@std@@V?$allocator@U?$pair@$$CBKPAVCMover@@@std@@@3@$0A@@std@@@2@ABK@Z ; std::_Tree<std::_Tmap_traits<unsigned long,CMover *,std::less<unsigned long>,std::allocator<std::pair<unsigned long const ,CMover *> >,0> >::_Lbound
; Function compile flags: /Ogty
; File c:\program files\microsoft visual studio .net 2003\vc7\include\xtree
;	COMDAT ?_Lbound@?$_Tree@V?$_Tmap_traits@KPAVCMover@@U?$less@K@std@@V?$allocator@U?$pair@$$CBKPAVCMover@@@std@@@3@$0A@@std@@@std@@IBEPAU_Node@?$_Tree_nod@V?$_Tmap_traits@KPAVCMover@@U?$less@K@std@@V?$allocator@U?$pair@$$CBKPAVCMover@@@std@@@3@$0A@@std@@@2@ABK@Z
_TEXT	SEGMENT
__Keyval$ = 8						; size = 4
?_Lbound@?$_Tree@V?$_Tmap_traits@KPAVCMover@@U?$less@K@std@@V?$allocator@U?$pair@$$CBKPAVCMover@@@std@@@3@$0A@@std@@@std@@IBEPAU_Node@?$_Tree_nod@V?$_Tmap_traits@KPAVCMover@@U?$less@K@std@@V?$allocator@U?$pair@$$CBKPAVCMover@@@std@@@3@$0A@@std@@@2@ABK@Z PROC NEAR ; std::_Tree<std::_Tmap_traits<unsigned long,CMover *,std::less<unsigned long>,std::allocator<std::pair<unsigned long const ,CMover *> >,0> >::_Lbound, COMDAT
; _this$ = ecx

; 988  : 		_Nodeptr _Pnode = _Root();

  00000	8b 41 04	 mov	 eax, DWORD PTR [ecx+4]
  00003	8b 48 04	 mov	 ecx, DWORD PTR [eax+4]

; 989  : 		_Nodeptr _Wherenode = _Myhead;	// end() if search fails
; 990  : 
; 991  : 		while (!_Isnil(_Pnode))

  00006	8a 51 15	 mov	 dl, BYTE PTR [ecx+21]
  00009	84 d2		 test	 dl, dl
  0000b	75 1d		 jne	 SHORT $L222610
  0000d	8b 54 24 04	 mov	 edx, DWORD PTR __Keyval$[esp-4]
  00011	8b 12		 mov	 edx, DWORD PTR [edx]
  00013	53		 push	 ebx
$L222609:

; 992  : 			if (this->comp(_Key(_Pnode), _Keyval))

  00014	39 51 0c	 cmp	 DWORD PTR [ecx+12], edx
  00017	73 05		 jae	 SHORT $L222611

; 993  : 				_Pnode = _Right(_Pnode);	// descend right subtree

  00019	8b 49 08	 mov	 ecx, DWORD PTR [ecx+8]

; 994  : 			else

  0001c	eb 04		 jmp	 SHORT $L222612
$L222611:

; 995  : 				{	// _Pnode not less than _Keyval, remember it
; 996  : 				_Wherenode = _Pnode;

  0001e	8b c1		 mov	 eax, ecx

; 997  : 				_Pnode = _Left(_Pnode);	// descend left subtree

  00020	8b 09		 mov	 ecx, DWORD PTR [ecx]
$L222612:
  00022	8a 59 15	 mov	 bl, BYTE PTR [ecx+21]
  00025	84 db		 test	 bl, bl
  00027	74 eb		 je	 SHORT $L222609
  00029	5b		 pop	 ebx
$L222610:

; 998  : 				}
; 999  : 
; 1000 : 		return (_Wherenode);	// return best remembered candidate
; 1001 : 		}

  0002a	c2 04 00	 ret	 4
?_Lbound@?$_Tree@V?$_Tmap_traits@KPAVCMover@@U?$less@K@std@@V?$allocator@U?$pair@$$CBKPAVCMover@@@std@@@3@$0A@@std@@@std@@IBEPAU_Node@?$_Tree_nod@V?$_Tmap_traits@KPAVCMover@@U?$less@K@std@@V?$allocator@U?$pair@$$CBKPAVCMover@@@std@@@3@$0A@@std@@@2@ABK@Z ENDP ; std::_Tree<std::_Tmap_traits<unsigned long,CMover *,std::less<unsigned long>,std::allocator<std::pair<unsigned long const ,CMover *> >,0> >::_Lbound
_TEXT	ENDS
PUBLIC	?GetBuffer@?$CSimpleStringT@D$0A@@ATL@@QAEPADH@Z ; ATL::CSimpleStringT<char,0>::GetBuffer
; Function compile flags: /Ogty
; File c:\program files\microsoft visual studio .net 2003\vc7\atlmfc\include\atlsimpstr.h
;	COMDAT ?GetBuffer@?$CSimpleStringT@D$0A@@ATL@@QAEPADH@Z
_TEXT	SEGMENT
_nMinBufferLength$ = 8					; size = 4
?GetBuffer@?$CSimpleStringT@D$0A@@ATL@@QAEPADH@Z PROC NEAR ; ATL::CSimpleStringT<char,0>::GetBuffer, COMDAT
; _this$ = ecx

; 489  : 	{

  00000	56		 push	 esi
  00001	8b f1		 mov	 esi, ecx

; 490  : 		return( PrepareWrite( nMinBufferLength ) );

  00003	8b 06		 mov	 eax, DWORD PTR [esi]
  00005	8b 50 fc	 mov	 edx, DWORD PTR [eax-4]
  00008	83 e8 10	 sub	 eax, 16			; 00000010H
  0000b	b9 01 00 00 00	 mov	 ecx, 1
  00010	2b ca		 sub	 ecx, edx
  00012	8b 50 08	 mov	 edx, DWORD PTR [eax+8]
  00015	8b 44 24 08	 mov	 eax, DWORD PTR _nMinBufferLength$[esp]
  00019	2b d0		 sub	 edx, eax
  0001b	0b ca		 or	 ecx, edx
  0001d	7d 08		 jge	 SHORT $L258799
  0001f	50		 push	 eax
  00020	8b ce		 mov	 ecx, esi
  00022	e8 00 00 00 00	 call	 ?PrepareWrite2@?$CSimpleStringT@D$0A@@ATL@@AAEXH@Z ; ATL::CSimpleStringT<char,0>::PrepareWrite2
$L258799:
  00027	8b 06		 mov	 eax, DWORD PTR [esi]
  00029	5e		 pop	 esi

; 491  : 	}

  0002a	c2 04 00	 ret	 4
?GetBuffer@?$CSimpleStringT@D$0A@@ATL@@QAEPADH@Z ENDP	; ATL::CSimpleStringT<char,0>::GetBuffer
_TEXT	ENDS
PUBLIC	?LoadStringA@?$CStringT@DV?$StrTraitMFC@DV?$ChTraitsCRT@D@ATL@@@@@ATL@@QAEHPAUHINSTANCE__@@I@Z ; ATL::CStringT<char,StrTraitMFC<char,ATL::ChTraitsCRT<char> > >::LoadStringA
; Function compile flags: /Ogty
; File c:\program files\microsoft visual studio .net 2003\vc7\atlmfc\include\cstringt.h
;	COMDAT ?LoadStringA@?$CStringT@DV?$StrTraitMFC@DV?$ChTraitsCRT@D@ATL@@@@@ATL@@QAEHPAUHINSTANCE__@@I@Z
_TEXT	SEGMENT
_hInstance$ = 8						; size = 4
_nID$ = 12						; size = 4
?LoadStringA@?$CStringT@DV?$StrTraitMFC@DV?$ChTraitsCRT@D@ATL@@@@@ATL@@QAEHPAUHINSTANCE__@@I@Z PROC NEAR ; ATL::CStringT<char,StrTraitMFC<char,ATL::ChTraitsCRT<char> > >::LoadStringA, COMDAT
; _this$ = ecx

; 1981 : 	{

  00000	53		 push	 ebx
  00001	56		 push	 esi

; 1982 : 		const ATLSTRINGRESOURCEIMAGE* pImage = AtlGetStringResourceImage( hInstance, nID );

  00002	8b 74 24 10	 mov	 esi, DWORD PTR _nID$[esp+4]
  00006	8b c6		 mov	 eax, esi
  00008	c1 e8 04	 shr	 eax, 4
  0000b	57		 push	 edi
  0000c	8b 7c 24 10	 mov	 edi, DWORD PTR _hInstance$[esp+8]
  00010	40		 inc	 eax
  00011	8b d9		 mov	 ebx, ecx
  00013	0f b7 c8	 movzx	 ecx, ax
  00016	6a 06		 push	 6
  00018	51		 push	 ecx
  00019	57		 push	 edi
  0001a	ff 15 00 00 00
	00		 call	 DWORD PTR __imp__FindResourceA@12
  00020	85 c0		 test	 eax, eax
  00022	74 11		 je	 SHORT $L258879
  00024	56		 push	 esi
  00025	50		 push	 eax
  00026	57		 push	 edi
  00027	e8 00 00 00 00	 call	 ?_AtlGetStringResourceImage@ATL@@YAPBUATLSTRINGRESOURCEIMAGE@1@PAUHINSTANCE__@@PAUHRSRC__@@I@Z ; ATL::_AtlGetStringResourceImage
  0002c	8b f8		 mov	 edi, eax
  0002e	83 c4 0c	 add	 esp, 12			; 0000000cH

; 1983 : 		if( pImage == NULL )

  00031	85 ff		 test	 edi, edi
  00033	75 08		 jne	 SHORT $L219928
$L258879:
  00035	5f		 pop	 edi
  00036	5e		 pop	 esi

; 1984 : 		{
; 1985 : 			return( FALSE );

  00037	33 c0		 xor	 eax, eax
  00039	5b		 pop	 ebx

; 1994 : 	}

  0003a	c2 08 00	 ret	 8
$L219928:

; 1986 : 		}
; 1987 : 
; 1988 : 		int nLength = StringTraits::GetBaseTypeLength( pImage->achString, pImage->nLength );

  0003d	0f b7 37	 movzx	 esi, WORD PTR [edi]
  00040	55		 push	 ebp
  00041	ff 15 00 00 00
	00		 call	 DWORD PTR ?g_pfnGetThreadACP@ATL@@3P6GIXZA ; ATL::g_pfnGetThreadACP
  00047	6a 00		 push	 0
  00049	6a 00		 push	 0
  0004b	6a 00		 push	 0
  0004d	6a 00		 push	 0
  0004f	56		 push	 esi
  00050	8d 6f 02	 lea	 ebp, DWORD PTR [edi+2]
  00053	55		 push	 ebp
  00054	6a 00		 push	 0
  00056	50		 push	 eax
  00057	ff 15 00 00 00
	00		 call	 DWORD PTR __imp__WideCharToMultiByte@32
  0005d	8b f0		 mov	 esi, eax

; 1989 : 		PXSTR pszBuffer = GetBuffer( nLength );

  0005f	8b 03		 mov	 eax, DWORD PTR [ebx]
  00061	8b 48 fc	 mov	 ecx, DWORD PTR [eax-4]
  00064	83 e8 10	 sub	 eax, 16			; 00000010H
  00067	8b 40 08	 mov	 eax, DWORD PTR [eax+8]
  0006a	ba 01 00 00 00	 mov	 edx, 1
  0006f	2b d1		 sub	 edx, ecx
  00071	2b c6		 sub	 eax, esi
  00073	0b d0		 or	 edx, eax
  00075	7d 08		 jge	 SHORT $L258841
  00077	56		 push	 esi
  00078	8b cb		 mov	 ecx, ebx
  0007a	e8 00 00 00 00	 call	 ?PrepareWrite2@?$CSimpleStringT@D$0A@@ATL@@AAEXH@Z ; ATL::CSimpleStringT<char,0>::PrepareWrite2
$L258841:
  0007f	8b 03		 mov	 eax, DWORD PTR [ebx]

; 1990 : 		StringTraits::ConvertToBaseType( pszBuffer, nLength, pImage->achString, pImage->nLength );

  00081	0f b7 0f	 movzx	 ecx, WORD PTR [edi]
  00084	6a 00		 push	 0
  00086	6a 00		 push	 0
  00088	56		 push	 esi
  00089	50		 push	 eax
  0008a	51		 push	 ecx
  0008b	55		 push	 ebp
  0008c	6a 00		 push	 0
  0008e	ff 15 00 00 00
	00		 call	 DWORD PTR ?g_pfnGetThreadACP@ATL@@3P6GIXZA ; ATL::g_pfnGetThreadACP
  00094	50		 push	 eax
  00095	ff 15 00 00 00
	00		 call	 DWORD PTR __imp__WideCharToMultiByte@32

; 1991 : 		ReleaseBufferSetLength( nLength );

  0009b	85 f6		 test	 esi, esi
  0009d	5d		 pop	 ebp
  0009e	7c 1b		 jl	 SHORT $L258876
  000a0	8b 03		 mov	 eax, DWORD PTR [ebx]
  000a2	3b 70 f8	 cmp	 esi, DWORD PTR [eax-8]
  000a5	7f 14		 jg	 SHORT $L258876
  000a7	89 70 f4	 mov	 DWORD PTR [eax-12], esi
  000aa	8b 0b		 mov	 ecx, DWORD PTR [ebx]
  000ac	5f		 pop	 edi
  000ad	c6 04 0e 00	 mov	 BYTE PTR [esi+ecx], 0
  000b1	5e		 pop	 esi

; 1992 : 
; 1993 : 		return( TRUE );

  000b2	b8 01 00 00 00	 mov	 eax, 1
  000b7	5b		 pop	 ebx

; 1994 : 	}

  000b8	c2 08 00	 ret	 8
$L258876:
  000bb	68 57 00 07 80	 push	 -2147024809		; 80070057H
  000c0	e8 00 00 00 00	 call	 ?AtlThrow@ATL@@YGXJ@Z	; ATL::AtlThrow
$L258881:
$L258880:
  000c5	cc		 int	 3
?LoadStringA@?$CStringT@DV?$StrTraitMFC@DV?$ChTraitsCRT@D@ATL@@@@@ATL@@QAEHPAUHINSTANCE__@@I@Z ENDP ; ATL::CStringT<char,StrTraitMFC<char,ATL::ChTraitsCRT<char> > >::LoadStringA
_TEXT	ENDS
PUBLIC	?lower_bound@?$_Tree@V?$_Tmap_traits@KPAVCMover@@U?$less@K@std@@V?$allocator@U?$pair@$$CBKPAVCMover@@@std@@@3@$0A@@std@@@std@@QAE?AViterator@12@ABK@Z ; std::_Tree<std::_Tmap_traits<unsigned long,CMover *,std::less<unsigned long>,std::allocator<std::pair<unsigned long const ,CMover *> >,0> >::lower_bound
; Function compile flags: /Ogty
; File c:\program files\microsoft visual studio .net 2003\vc7\include\xtree
;	COMDAT ?lower_bound@?$_Tree@V?$_Tmap_traits@KPAVCMover@@U?$less@K@std@@V?$allocator@U?$pair@$$CBKPAVCMover@@@std@@@3@$0A@@std@@@std@@QAE?AViterator@12@ABK@Z
_TEXT	SEGMENT
___$ReturnUdt$ = 8					; size = 4
__Keyval$ = 12						; size = 4
?lower_bound@?$_Tree@V?$_Tmap_traits@KPAVCMover@@U?$less@K@std@@V?$allocator@U?$pair@$$CBKPAVCMover@@@std@@@3@$0A@@std@@@std@@QAE?AViterator@12@ABK@Z PROC NEAR ; std::_Tree<std::_Tmap_traits<unsigned long,CMover *,std::less<unsigned long>,std::allocator<std::pair<unsigned long const ,CMover *> >,0> >::lower_bound, COMDAT
; _this$ = ecx

; 810  : 		return (_TREE_ITERATOR(_Lbound(_Keyval)));

  00000	8b 49 04	 mov	 ecx, DWORD PTR [ecx+4]
  00003	8b 41 04	 mov	 eax, DWORD PTR [ecx+4]
  00006	8a 50 15	 mov	 dl, BYTE PTR [eax+21]
  00009	84 d2		 test	 dl, dl
  0000b	75 1d		 jne	 SHORT $L258954
  0000d	8b 54 24 08	 mov	 edx, DWORD PTR __Keyval$[esp-4]
  00011	8b 12		 mov	 edx, DWORD PTR [edx]
  00013	53		 push	 ebx
$L258922:
  00014	39 50 0c	 cmp	 DWORD PTR [eax+12], edx
  00017	73 05		 jae	 SHORT $L258924
  00019	8b 40 08	 mov	 eax, DWORD PTR [eax+8]
  0001c	eb 04		 jmp	 SHORT $L258925
$L258924:
  0001e	8b c8		 mov	 ecx, eax
  00020	8b 00		 mov	 eax, DWORD PTR [eax]
$L258925:
  00022	8a 58 15	 mov	 bl, BYTE PTR [eax+21]
  00025	84 db		 test	 bl, bl
  00027	74 eb		 je	 SHORT $L258922
  00029	5b		 pop	 ebx
$L258954:
  0002a	8b 44 24 04	 mov	 eax, DWORD PTR ___$ReturnUdt$[esp-4]
  0002e	89 08		 mov	 DWORD PTR [eax], ecx

; 811  : 		}

  00030	c2 08 00	 ret	 8
?lower_bound@?$_Tree@V?$_Tmap_traits@KPAVCMover@@U?$less@K@std@@V?$allocator@U?$pair@$$CBKPAVCMover@@@std@@@3@$0A@@std@@@std@@QAE?AViterator@12@ABK@Z ENDP ; std::_Tree<std::_Tmap_traits<unsigned long,CMover *,std::less<unsigned long>,std::allocator<std::pair<unsigned long const ,CMover *> >,0> >::lower_bound
_TEXT	ENDS
PUBLIC	?SetString@?$CSimpleStringT@D$0A@@ATL@@QAEXPBDH@Z ; ATL::CSimpleStringT<char,0>::SetString
; Function compile flags: /Ogty
; File c:\program files\microsoft visual studio .net 2003\vc7\atlmfc\include\atlsimpstr.h
;	COMDAT ?SetString@?$CSimpleStringT@D$0A@@ATL@@QAEXPBDH@Z
_TEXT	SEGMENT
_pszSrc$ = 8						; size = 4
_nLength$ = 12						; size = 4
?SetString@?$CSimpleStringT@D$0A@@ATL@@QAEXPBDH@Z PROC NEAR ; ATL::CSimpleStringT<char,0>::SetString, COMDAT
; _this$ = ecx

; 583  : 	{

  00000	53		 push	 ebx

; 584  : 		if( nLength == 0 )

  00001	8b 5c 24 0c	 mov	 ebx, DWORD PTR _nLength$[esp]
  00005	85 db		 test	 ebx, ebx
  00007	55		 push	 ebp
  00008	8b e9		 mov	 ebp, ecx
  0000a	75 0a		 jne	 SHORT $L221330

; 585  : 		{
; 586  : 			Empty();

  0000c	e8 00 00 00 00	 call	 ?Empty@?$CSimpleStringT@D$0A@@ATL@@QAEXXZ ; ATL::CSimpleStringT<char,0>::Empty
  00011	5d		 pop	 ebp
  00012	5b		 pop	 ebx

; 614  : 		}
; 615  : 	}

  00013	c2 08 00	 ret	 8
$L221330:

; 587  : 		}
; 588  : 		else
; 589  : 		{
; 590  : 			// It is possible that pszSrc points to a location inside of our 
; 591  : 			// buffer.  GetBuffer() might change m_pszData if (1) the buffer 
; 592  : 			// is shared or (2) the buffer is too small to hold the new 
; 593  : 			// string.  We detect this aliasing, and modify pszSrc to point
; 594  : 			// into the newly allocated buffer instead.
; 595  : 			
; 596  : 			if(pszSrc == NULL)

  00016	8b 54 24 0c	 mov	 edx, DWORD PTR _pszSrc$[esp+4]
  0001a	85 d2		 test	 edx, edx
  0001c	75 0a		 jne	 SHORT $L221332

; 612  : 			}
; 613  : 			ReleaseBufferSetLength( nLength );

$L259022:
  0001e	68 57 00 07 80	 push	 -2147024809		; 80070057H
  00023	e8 00 00 00 00	 call	 ?AtlThrow@ATL@@YGXJ@Z	; ATL::AtlThrow
$L259030:
$L221332:

; 597  : 				AtlThrow(E_INVALIDARG);			
; 598  : 				
; 599  : 			UINT nOldLength = GetLength();

  00028	8b 45 00	 mov	 eax, DWORD PTR [ebp]
  0002b	56		 push	 esi

; 600  : 			UINT_PTR nOffset = pszSrc-GetString();

  0002c	8b f2		 mov	 esi, edx
  0002e	2b f0		 sub	 esi, eax

; 601  : 			// If 0 <= nOffset <= nOldLength, then pszSrc points into our 
; 602  : 			// buffer
; 603  : 
; 604  : 			PXSTR pszBuffer = GetBuffer( nLength );

  00030	b9 01 00 00 00	 mov	 ecx, 1
  00035	2b 48 fc	 sub	 ecx, DWORD PTR [eax-4]
  00038	57		 push	 edi
  00039	8b 78 f4	 mov	 edi, DWORD PTR [eax-12]
  0003c	8b 40 f8	 mov	 eax, DWORD PTR [eax-8]
  0003f	2b c3		 sub	 eax, ebx
  00041	0b c8		 or	 ecx, eax
  00043	7d 0c		 jge	 SHORT $L258991
  00045	53		 push	 ebx
  00046	8b cd		 mov	 ecx, ebp
  00048	e8 00 00 00 00	 call	 ?PrepareWrite2@?$CSimpleStringT@D$0A@@ATL@@AAEXH@Z ; ATL::CSimpleStringT<char,0>::PrepareWrite2
  0004d	8b 54 24 14	 mov	 edx, DWORD PTR _pszSrc$[esp+12]
$L258991:

; 605  : 			if( nOffset <= nOldLength )

  00051	3b f7		 cmp	 esi, edi
  00053	8b 45 00	 mov	 eax, DWORD PTR [ebp]
  00056	77 10		 ja	 SHORT $L221337

; 606  : 			{
; 607  : 				CopyCharsOverlapped( pszBuffer, pszBuffer+nOffset, nLength );

  00058	53		 push	 ebx
  00059	8d 0c 30	 lea	 ecx, DWORD PTR [eax+esi]
  0005c	51		 push	 ecx
  0005d	50		 push	 eax
  0005e	e8 00 00 00 00	 call	 _memmove
  00063	83 c4 0c	 add	 esp, 12			; 0000000cH

; 608  : 			}
; 609  : 			else

  00066	eb 14		 jmp	 SHORT $L258999
$L221337:

; 610  : 			{
; 611  : 				CopyChars( pszBuffer, pszSrc, nLength );

  00068	8b cb		 mov	 ecx, ebx
  0006a	8b f2		 mov	 esi, edx
  0006c	8b d1		 mov	 edx, ecx
  0006e	c1 e9 02	 shr	 ecx, 2
  00071	8b f8		 mov	 edi, eax
  00073	f3 a5		 rep movsd
  00075	8b ca		 mov	 ecx, edx
  00077	83 e1 03	 and	 ecx, 3
  0007a	f3 a4		 rep movsb
$L258999:

; 612  : 			}
; 613  : 			ReleaseBufferSetLength( nLength );

  0007c	85 db		 test	 ebx, ebx
  0007e	5f		 pop	 edi
  0007f	5e		 pop	 esi
  00080	7c 9c		 jl	 SHORT $L259022
  00082	8b 45 00	 mov	 eax, DWORD PTR [ebp]
  00085	3b 58 f8	 cmp	 ebx, DWORD PTR [eax-8]
  00088	7f 94		 jg	 SHORT $L259022
  0008a	89 58 f4	 mov	 DWORD PTR [eax-12], ebx
  0008d	8b 45 00	 mov	 eax, DWORD PTR [ebp]
  00090	5d		 pop	 ebp
  00091	c6 04 03 00	 mov	 BYTE PTR [ebx+eax], 0
  00095	5b		 pop	 ebx

; 614  : 		}
; 615  : 	}

  00096	c2 08 00	 ret	 8
$L259029:
?SetString@?$CSimpleStringT@D$0A@@ATL@@QAEXPBDH@Z ENDP	; ATL::CSimpleStringT<char,0>::SetString
_TEXT	ENDS
PUBLIC	?FormatV@?$CStringT@DV?$StrTraitMFC@DV?$ChTraitsCRT@D@ATL@@@@@ATL@@QAEXPBDPAD@Z ; ATL::CStringT<char,StrTraitMFC<char,ATL::ChTraitsCRT<char> > >::FormatV
; Function compile flags: /Ogty
; File c:\program files\microsoft visual studio .net 2003\vc7\atlmfc\include\cstringt.h
;	COMDAT ?FormatV@?$CStringT@DV?$StrTraitMFC@DV?$ChTraitsCRT@D@ATL@@@@@ATL@@QAEXPBDPAD@Z
_TEXT	SEGMENT
_pszFormat$ = 8						; size = 4
_args$ = 12						; size = 4
?FormatV@?$CStringT@DV?$StrTraitMFC@DV?$ChTraitsCRT@D@ATL@@@@@ATL@@QAEXPBDPAD@Z PROC NEAR ; ATL::CStringT<char,StrTraitMFC<char,ATL::ChTraitsCRT<char> > >::FormatV, COMDAT
; _this$ = ecx

; 1855 : 	{

  00000	53		 push	 ebx

; 1856 : 		ATLASSERT( AtlIsValidString( pszFormat ) );
; 1857 : 		if(pszFormat == NULL)

  00001	8b 5c 24 08	 mov	 ebx, DWORD PTR _pszFormat$[esp]
  00005	85 db		 test	 ebx, ebx
  00007	57		 push	 edi
  00008	8b f9		 mov	 edi, ecx
  0000a	75 0a		 jne	 SHORT $L253791

; 1858 : 			AtlThrow(E_INVALIDARG);

  0000c	68 57 00 07 80	 push	 -2147024809		; 80070057H
  00011	e8 00 00 00 00	 call	 ?AtlThrow@ATL@@YGXJ@Z	; ATL::AtlThrow
$L259094:
$L253791:
  00016	55		 push	 ebp

; 1859 : 
; 1860 : 		int nLength = StringTraits::GetFormattedLength( pszFormat, args );

  00017	8b 6c 24 14	 mov	 ebp, DWORD PTR _args$[esp+8]
  0001b	56		 push	 esi
  0001c	55		 push	 ebp
  0001d	53		 push	 ebx
  0001e	e8 00 00 00 00	 call	 __vscprintf
  00023	8b f0		 mov	 esi, eax

; 1861 : 		PXSTR pszBuffer = GetBuffer( nLength );

  00025	8b 07		 mov	 eax, DWORD PTR [edi]
  00027	8b 50 fc	 mov	 edx, DWORD PTR [eax-4]
  0002a	83 e8 10	 sub	 eax, 16			; 00000010H
  0002d	b9 01 00 00 00	 mov	 ecx, 1
  00032	2b ca		 sub	 ecx, edx
  00034	8b 50 08	 mov	 edx, DWORD PTR [eax+8]
  00037	2b d6		 sub	 edx, esi
  00039	83 c4 08	 add	 esp, 8
  0003c	0b ca		 or	 ecx, edx
  0003e	7d 08		 jge	 SHORT $L259057
  00040	56		 push	 esi
  00041	8b cf		 mov	 ecx, edi
  00043	e8 00 00 00 00	 call	 ?PrepareWrite2@?$CSimpleStringT@D$0A@@ATL@@AAEXH@Z ; ATL::CSimpleStringT<char,0>::PrepareWrite2
$L259057:

; 1862 : 		StringTraits::Format( pszBuffer, pszFormat, args );

  00048	8b 07		 mov	 eax, DWORD PTR [edi]
  0004a	55		 push	 ebp
  0004b	53		 push	 ebx
  0004c	50		 push	 eax
  0004d	e8 00 00 00 00	 call	 _vsprintf
  00052	83 c4 0c	 add	 esp, 12			; 0000000cH

; 1863 : 		ReleaseBufferSetLength( nLength );

  00055	85 f6		 test	 esi, esi
  00057	7c 17		 jl	 SHORT $L259083
  00059	8b 07		 mov	 eax, DWORD PTR [edi]
  0005b	3b 70 f8	 cmp	 esi, DWORD PTR [eax-8]
  0005e	7f 10		 jg	 SHORT $L259083
  00060	89 70 f4	 mov	 DWORD PTR [eax-12], esi
  00063	8b 0f		 mov	 ecx, DWORD PTR [edi]
  00065	c6 04 0e 00	 mov	 BYTE PTR [esi+ecx], 0
  00069	5e		 pop	 esi
  0006a	5d		 pop	 ebp
  0006b	5f		 pop	 edi
  0006c	5b		 pop	 ebx

; 1864 : 	}

  0006d	c2 08 00	 ret	 8
$L259083:
  00070	68 57 00 07 80	 push	 -2147024809		; 80070057H
  00075	e8 00 00 00 00	 call	 ?AtlThrow@ATL@@YGXJ@Z	; ATL::AtlThrow
$L259095:
$L259093:
  0007a	cc		 int	 3
?FormatV@?$CStringT@DV?$StrTraitMFC@DV?$ChTraitsCRT@D@ATL@@@@@ATL@@QAEXPBDPAD@Z ENDP ; ATL::CStringT<char,StrTraitMFC<char,ATL::ChTraitsCRT<char> > >::FormatV
_TEXT	ENDS
PUBLIC	?Append@?$CSimpleStringT@D$0A@@ATL@@QAEXPBDH@Z	; ATL::CSimpleStringT<char,0>::Append
; Function compile flags: /Ogty
; File c:\program files\microsoft visual studio .net 2003\vc7\atlmfc\include\atlsimpstr.h
;	COMDAT ?Append@?$CSimpleStringT@D$0A@@ATL@@QAEXPBDH@Z
_TEXT	SEGMENT
_nOldLength$ = -4					; size = 4
_pszSrc$ = 8						; size = 4
_nLength$ = 12						; size = 4
?Append@?$CSimpleStringT@D$0A@@ATL@@QAEXPBDH@Z PROC NEAR ; ATL::CSimpleStringT<char,0>::Append, COMDAT
; _this$ = ecx

; 387  : 	{

  00000	51		 push	 ecx
  00001	53		 push	 ebx
  00002	55		 push	 ebp
  00003	8b e9		 mov	 ebp, ecx

; 388  : 		// See comment in SetString() about why we do this
; 389  : 		UINT_PTR nOffset = pszSrc-GetString();

  00005	8b 45 00	 mov	 eax, DWORD PTR [ebp]

; 390  : 
; 391  : 		UINT nOldLength = GetLength();
; 392  : 		int nNewLength = nOldLength+nLength;

  00008	8b 4c 24 14	 mov	 ecx, DWORD PTR _nLength$[esp+8]
  0000c	56		 push	 esi
  0000d	8b 70 f4	 mov	 esi, DWORD PTR [eax-12]
  00010	57		 push	 edi
  00011	8b 7c 24 18	 mov	 edi, DWORD PTR _pszSrc$[esp+16]
  00015	2b f8		 sub	 edi, eax
  00017	8d 1c 0e	 lea	 ebx, DWORD PTR [esi+ecx]

; 393  : 		PXSTR pszBuffer = GetBuffer( nNewLength );

  0001a	8b 48 fc	 mov	 ecx, DWORD PTR [eax-4]
  0001d	8b 40 f8	 mov	 eax, DWORD PTR [eax-8]
  00020	ba 01 00 00 00	 mov	 edx, 1
  00025	2b d1		 sub	 edx, ecx
  00027	2b c3		 sub	 eax, ebx
  00029	0b d0		 or	 edx, eax
  0002b	89 74 24 10	 mov	 DWORD PTR _nOldLength$[esp+20], esi
  0002f	7d 08		 jge	 SHORT $L259134
  00031	53		 push	 ebx
  00032	8b cd		 mov	 ecx, ebp
  00034	e8 00 00 00 00	 call	 ?PrepareWrite2@?$CSimpleStringT@D$0A@@ATL@@AAEXH@Z ; ATL::CSimpleStringT<char,0>::PrepareWrite2
$L259134:

; 394  : 		if( nOffset <= nOldLength )

  00039	3b fe		 cmp	 edi, esi
  0003b	8b 45 00	 mov	 eax, DWORD PTR [ebp]
  0003e	77 07		 ja	 SHORT $L254863

; 395  : 		{
; 396  : 			pszSrc = pszBuffer+nOffset;

  00040	8d 0c 38	 lea	 ecx, DWORD PTR [eax+edi]
  00043	89 4c 24 18	 mov	 DWORD PTR _pszSrc$[esp+16], ecx
$L254863:

; 397  : 			// No need to call CopyCharsOverlapped, since the destination is
; 398  : 			// beyond the end of the original buffer
; 399  : 		}
; 400  : 		CopyChars( pszBuffer+nOldLength, pszSrc, nLength );

  00047	8b 54 24 10	 mov	 edx, DWORD PTR _nOldLength$[esp+20]
  0004b	8b 4c 24 1c	 mov	 ecx, DWORD PTR _nLength$[esp+16]
  0004f	8b 74 24 18	 mov	 esi, DWORD PTR _pszSrc$[esp+16]
  00053	8d 3c 10	 lea	 edi, DWORD PTR [eax+edx]
  00056	8b c1		 mov	 eax, ecx
  00058	c1 e9 02	 shr	 ecx, 2
  0005b	f3 a5		 rep movsd
  0005d	8b c8		 mov	 ecx, eax
  0005f	83 e1 03	 and	 ecx, 3

; 401  : 		ReleaseBufferSetLength( nNewLength );

  00062	85 db		 test	 ebx, ebx
  00064	f3 a4		 rep movsb
  00066	7c 1a		 jl	 SHORT $L259164
  00068	8b 45 00	 mov	 eax, DWORD PTR [ebp]
  0006b	3b 58 f8	 cmp	 ebx, DWORD PTR [eax-8]
  0006e	7f 12		 jg	 SHORT $L259164
  00070	5f		 pop	 edi
  00071	89 58 f4	 mov	 DWORD PTR [eax-12], ebx
  00074	8b 4d 00	 mov	 ecx, DWORD PTR [ebp]
  00077	5e		 pop	 esi
  00078	5d		 pop	 ebp
  00079	c6 04 0b 00	 mov	 BYTE PTR [ebx+ecx], 0
  0007d	5b		 pop	 ebx

; 402  : 	}

  0007e	59		 pop	 ecx
  0007f	c2 08 00	 ret	 8

; 401  : 		ReleaseBufferSetLength( nNewLength );

$L259164:
  00082	68 57 00 07 80	 push	 -2147024809		; 80070057H
  00087	e8 00 00 00 00	 call	 ?AtlThrow@ATL@@YGXJ@Z	; ATL::AtlThrow
$L259168:
$L259167:
  0008c	cc		 int	 3
?Append@?$CSimpleStringT@D$0A@@ATL@@QAEXPBDH@Z ENDP	; ATL::CSimpleStringT<char,0>::Append
_TEXT	ENDS
PUBLIC	?LoadStringA@?$CStringT@DV?$StrTraitMFC@DV?$ChTraitsCRT@D@ATL@@@@@ATL@@QAEHI@Z ; ATL::CStringT<char,StrTraitMFC<char,ATL::ChTraitsCRT<char> > >::LoadStringA
; Function compile flags: /Ogty
; File c:\program files\microsoft visual studio .net 2003\vc7\atlmfc\include\cstringt.h
;	COMDAT ?LoadStringA@?$CStringT@DV?$StrTraitMFC@DV?$ChTraitsCRT@D@ATL@@@@@ATL@@QAEHI@Z
_TEXT	SEGMENT
_nID$ = 8						; size = 4
?LoadStringA@?$CStringT@DV?$StrTraitMFC@DV?$ChTraitsCRT@D@ATL@@@@@ATL@@QAEHI@Z PROC NEAR ; ATL::CStringT<char,StrTraitMFC<char,ATL::ChTraitsCRT<char> > >::LoadStringA, COMDAT
; _this$ = ecx

; 1969 : 	{

  00000	56		 push	 esi
  00001	57		 push	 edi

; 1970 : 		HINSTANCE hInst = StringTraits::FindStringResourceInstance( nID );

  00002	8b 7c 24 0c	 mov	 edi, DWORD PTR _nID$[esp+4]
  00006	57		 push	 edi
  00007	8b f1		 mov	 esi, ecx
  00009	e8 00 00 00 00	 call	 ?AfxFindStringResourceHandle@@YGPAUHINSTANCE__@@I@Z ; AfxFindStringResourceHandle

; 1971 : 		if( hInst == NULL )

  0000e	85 c0		 test	 eax, eax
  00010	75 05		 jne	 SHORT $L218601
  00012	5f		 pop	 edi
  00013	5e		 pop	 esi

; 1977 : 	}

  00014	c2 04 00	 ret	 4
$L218601:

; 1972 : 		{
; 1973 : 			return( FALSE );
; 1974 : 		}
; 1975 : 
; 1976 : 		return( LoadString( hInst, nID ) );		

  00017	57		 push	 edi
  00018	50		 push	 eax
  00019	8b ce		 mov	 ecx, esi
  0001b	e8 00 00 00 00	 call	 ?LoadStringA@?$CStringT@DV?$StrTraitMFC@DV?$ChTraitsCRT@D@ATL@@@@@ATL@@QAEHPAUHINSTANCE__@@I@Z ; ATL::CStringT<char,StrTraitMFC<char,ATL::ChTraitsCRT<char> > >::LoadStringA
  00020	5f		 pop	 edi
  00021	5e		 pop	 esi

; 1977 : 	}

  00022	c2 04 00	 ret	 4
?LoadStringA@?$CStringT@DV?$StrTraitMFC@DV?$ChTraitsCRT@D@ATL@@@@@ATL@@QAEHI@Z ENDP ; ATL::CStringT<char,StrTraitMFC<char,ATL::ChTraitsCRT<char> > >::LoadStringA
_TEXT	ENDS
PUBLIC	?find@?$_Tree@V?$_Tmap_traits@KPAVCMover@@U?$less@K@std@@V?$allocator@U?$pair@$$CBKPAVCMover@@@std@@@3@$0A@@std@@@std@@QAE?AViterator@12@ABK@Z ; std::_Tree<std::_Tmap_traits<unsigned long,CMover *,std::less<unsigned long>,std::allocator<std::pair<unsigned long const ,CMover *> >,0> >::find
; Function compile flags: /Ogty
; File c:\program files\microsoft visual studio .net 2003\vc7\include\xtree
;	COMDAT ?find@?$_Tree@V?$_Tmap_traits@KPAVCMover@@U?$less@K@std@@V?$allocator@U?$pair@$$CBKPAVCMover@@@std@@@3@$0A@@std@@@std@@QAE?AViterator@12@ABK@Z
_TEXT	SEGMENT
$T259181 = -4						; size = 4
___$ReturnUdt$ = 8					; size = 4
__Where$ = 12						; size = 4
__Keyval$ = 12						; size = 4
?find@?$_Tree@V?$_Tmap_traits@KPAVCMover@@U?$less@K@std@@V?$allocator@U?$pair@$$CBKPAVCMover@@@std@@@3@$0A@@std@@@std@@QAE?AViterator@12@ABK@Z PROC NEAR ; std::_Tree<std::_Tmap_traits<unsigned long,CMover *,std::less<unsigned long>,std::allocator<std::pair<unsigned long const ,CMover *> >,0> >::find, COMDAT
; _this$ = ecx

; 787  : 		{	// find an element in mutable sequence that matches _Keyval

  00000	51		 push	 ecx

; 788  : 		iterator _Where = lower_bound(_Keyval);

  00001	8b 51 04	 mov	 edx, DWORD PTR [ecx+4]
  00004	8b 42 04	 mov	 eax, DWORD PTR [edx+4]
  00007	53		 push	 ebx
  00008	8a 58 15	 mov	 bl, BYTE PTR [eax+21]
  0000b	84 db		 test	 bl, bl
  0000d	56		 push	 esi
  0000e	57		 push	 edi
  0000f	8b 7c 24 18	 mov	 edi, DWORD PTR __Keyval$[esp+12]
  00013	75 17		 jne	 SHORT $L259276
  00015	8b 37		 mov	 esi, DWORD PTR [edi]
$L259275:
  00017	39 70 0c	 cmp	 DWORD PTR [eax+12], esi
  0001a	73 05		 jae	 SHORT $L259277
  0001c	8b 40 08	 mov	 eax, DWORD PTR [eax+8]
  0001f	eb 04		 jmp	 SHORT $L259278
$L259277:
  00021	8b d0		 mov	 edx, eax
  00023	8b 00		 mov	 eax, DWORD PTR [eax]
$L259278:
  00025	8a 58 15	 mov	 bl, BYTE PTR [eax+21]
  00028	84 db		 test	 bl, bl
  0002a	74 eb		 je	 SHORT $L259275
$L259276:

; 789  : 		return (_Where == end() || this->comp(_Keyval, _Key(_Where._Mynode()))
; 790  : 			? end() : _Where);

  0002c	8b 41 04	 mov	 eax, DWORD PTR [ecx+4]
  0002f	3b d0		 cmp	 edx, eax
  00031	89 54 24 18	 mov	 DWORD PTR __Where$[esp+12], edx
  00035	74 1a		 je	 SHORT $L259180
  00037	8b 0f		 mov	 ecx, DWORD PTR [edi]
  00039	3b 4a 0c	 cmp	 ecx, DWORD PTR [edx+12]
  0003c	72 13		 jb	 SHORT $L259180
  0003e	8d 44 24 18	 lea	 eax, DWORD PTR __Where$[esp+12]
  00042	8b 10		 mov	 edx, DWORD PTR [eax]
  00044	8b 44 24 14	 mov	 eax, DWORD PTR ___$ReturnUdt$[esp+12]
  00048	5f		 pop	 edi
  00049	5e		 pop	 esi
  0004a	89 10		 mov	 DWORD PTR [eax], edx
  0004c	5b		 pop	 ebx

; 791  : 		}

  0004d	59		 pop	 ecx
  0004e	c2 08 00	 ret	 8
$L259180:

; 789  : 		return (_Where == end() || this->comp(_Keyval, _Key(_Where._Mynode()))
; 790  : 			? end() : _Where);

  00051	89 44 24 0c	 mov	 DWORD PTR $T259181[esp+16], eax
  00055	8d 44 24 0c	 lea	 eax, DWORD PTR $T259181[esp+16]
  00059	8b 10		 mov	 edx, DWORD PTR [eax]
  0005b	8b 44 24 14	 mov	 eax, DWORD PTR ___$ReturnUdt$[esp+12]
  0005f	5f		 pop	 edi
  00060	5e		 pop	 esi
  00061	89 10		 mov	 DWORD PTR [eax], edx
  00063	5b		 pop	 ebx

; 791  : 		}

  00064	59		 pop	 ecx
  00065	c2 08 00	 ret	 8
?find@?$_Tree@V?$_Tmap_traits@KPAVCMover@@U?$less@K@std@@V?$allocator@U?$pair@$$CBKPAVCMover@@@std@@@3@$0A@@std@@@std@@QAE?AViterator@12@ABK@Z ENDP ; std::_Tree<std::_Tmap_traits<unsigned long,CMover *,std::less<unsigned long>,std::allocator<std::pair<unsigned long const ,CMover *> >,0> >::find
_TEXT	ENDS
PUBLIC	?CheckImplicitLoad@?$CStringT@DV?$StrTraitMFC@DV?$ChTraitsCRT@D@ATL@@@@@ATL@@AAE_NPBX@Z ; ATL::CStringT<char,StrTraitMFC<char,ATL::ChTraitsCRT<char> > >::CheckImplicitLoad
; Function compile flags: /Ogty
; File c:\program files\microsoft visual studio .net 2003\vc7\atlmfc\include\cstringt.h
;	COMDAT ?CheckImplicitLoad@?$CStringT@DV?$StrTraitMFC@DV?$ChTraitsCRT@D@ATL@@@@@ATL@@AAE_NPBX@Z
_TEXT	SEGMENT
_pv$ = 8						; size = 4
?CheckImplicitLoad@?$CStringT@DV?$StrTraitMFC@DV?$ChTraitsCRT@D@ATL@@@@@ATL@@AAE_NPBX@Z PROC NEAR ; ATL::CStringT<char,StrTraitMFC<char,ATL::ChTraitsCRT<char> > >::CheckImplicitLoad, COMDAT
; _this$ = ecx

; 2229 : 	{

  00000	57		 push	 edi
  00001	8b f9		 mov	 edi, ecx

; 2230 : 		bool bRet = false;
; 2231 : 
; 2232 : 		if( (pv != NULL) && IS_INTRESOURCE( pv ) )

  00003	8b 4c 24 08	 mov	 ecx, DWORD PTR _pv$[esp]
  00007	32 c0		 xor	 al, al
  00009	85 c9		 test	 ecx, ecx
  0000b	74 22		 je	 SHORT $L219935
  0000d	f7 c1 00 00 ff
	ff		 test	 ecx, -65536		; ffff0000H
  00013	75 1a		 jne	 SHORT $L219935
  00015	56		 push	 esi

; 2233 : 		{
; 2234 : 			UINT nID = LOWORD( reinterpret_cast< DWORD_PTR >( pv ) );

  00016	0f b7 f1	 movzx	 esi, cx

; 2235 : 			if( !LoadString( nID ) )

  00019	56		 push	 esi
  0001a	e8 00 00 00 00	 call	 ?AfxFindStringResourceHandle@@YGPAUHINSTANCE__@@I@Z ; AfxFindStringResourceHandle
  0001f	85 c0		 test	 eax, eax
  00021	74 09		 je	 SHORT $L259349
  00023	56		 push	 esi
  00024	50		 push	 eax
  00025	8b cf		 mov	 ecx, edi
  00027	e8 00 00 00 00	 call	 ?LoadStringA@?$CStringT@DV?$StrTraitMFC@DV?$ChTraitsCRT@D@ATL@@@@@ATL@@QAEHPAUHINSTANCE__@@I@Z ; ATL::CStringT<char,StrTraitMFC<char,ATL::ChTraitsCRT<char> > >::LoadStringA
$L259349:

; 2236 : 			{
; 2237 : 				ATLTRACE( atlTraceString, 2, _T( "Warning: implicit LoadString(%u) failed\n" ), nID );
; 2238 : 			}
; 2239 : 			bRet = true;

  0002c	b0 01		 mov	 al, 1
  0002e	5e		 pop	 esi
$L219935:
  0002f	5f		 pop	 edi

; 2240 : 		}
; 2241 : 
; 2242 : 		return( bRet );
; 2243 : 	}

  00030	c2 04 00	 ret	 4
?CheckImplicitLoad@?$CStringT@DV?$StrTraitMFC@DV?$ChTraitsCRT@D@ATL@@@@@ATL@@AAE_NPBX@Z ENDP ; ATL::CStringT<char,StrTraitMFC<char,ATL::ChTraitsCRT<char> > >::CheckImplicitLoad
_TEXT	ENDS
PUBLIC	?SetString@?$CSimpleStringT@D$0A@@ATL@@QAEXPBD@Z ; ATL::CSimpleStringT<char,0>::SetString
; Function compile flags: /Ogty
; File c:\program files\microsoft visual studio .net 2003\vc7\atlmfc\include\atlsimpstr.h
;	COMDAT ?SetString@?$CSimpleStringT@D$0A@@ATL@@QAEXPBD@Z
_TEXT	SEGMENT
_pszSrc$ = 8						; size = 4
?SetString@?$CSimpleStringT@D$0A@@ATL@@QAEXPBD@Z PROC NEAR ; ATL::CSimpleStringT<char,0>::SetString, COMDAT
; _this$ = ecx

; 579  : 	{

  00000	56		 push	 esi

; 580  : 		SetString( pszSrc, StringLength( pszSrc ) );

  00001	8b 74 24 08	 mov	 esi, DWORD PTR _pszSrc$[esp]
  00005	85 f6		 test	 esi, esi
  00007	75 0d		 jne	 SHORT $L259361
  00009	33 c0		 xor	 eax, eax
  0000b	50		 push	 eax
  0000c	56		 push	 esi
  0000d	e8 00 00 00 00	 call	 ?SetString@?$CSimpleStringT@D$0A@@ATL@@QAEXPBDH@Z ; ATL::CSimpleStringT<char,0>::SetString
  00012	5e		 pop	 esi

; 581  : 	}

  00013	c2 04 00	 ret	 4

; 580  : 		SetString( pszSrc, StringLength( pszSrc ) );

$L259361:
  00016	8b c6		 mov	 eax, esi
  00018	57		 push	 edi
  00019	8d 78 01	 lea	 edi, DWORD PTR [eax+1]
  0001c	8d 64 24 00	 npad	 4
$L259363:
  00020	8a 10		 mov	 dl, BYTE PTR [eax]
  00022	40		 inc	 eax
  00023	84 d2		 test	 dl, dl
  00025	75 f9		 jne	 SHORT $L259363
  00027	2b c7		 sub	 eax, edi
  00029	5f		 pop	 edi
  0002a	50		 push	 eax
  0002b	56		 push	 esi
  0002c	e8 00 00 00 00	 call	 ?SetString@?$CSimpleStringT@D$0A@@ATL@@QAEXPBDH@Z ; ATL::CSimpleStringT<char,0>::SetString
  00031	5e		 pop	 esi

; 581  : 	}

  00032	c2 04 00	 ret	 4
?SetString@?$CSimpleStringT@D$0A@@ATL@@QAEXPBD@Z ENDP	; ATL::CSimpleStringT<char,0>::SetString
_TEXT	ENDS
PUBLIC	?Format@?$CStringT@DV?$StrTraitMFC@DV?$ChTraitsCRT@D@ATL@@@@@ATL@@QAAXPBDZZ ; ATL::CStringT<char,StrTraitMFC<char,ATL::ChTraitsCRT<char> > >::Format
; Function compile flags: /Ogty
; File c:\program files\microsoft visual studio .net 2003\vc7\atlmfc\include\cstringt.h
;	COMDAT ?Format@?$CStringT@DV?$StrTraitMFC@DV?$ChTraitsCRT@D@ATL@@@@@ATL@@QAAXPBDZZ
_TEXT	SEGMENT
_this$ = 8						; size = 4
_pszFormat$ = 12					; size = 4
?Format@?$CStringT@DV?$StrTraitMFC@DV?$ChTraitsCRT@D@ATL@@@@@ATL@@QAAXPBDZZ PROC NEAR ; ATL::CStringT<char,StrTraitMFC<char,ATL::ChTraitsCRT<char> > >::Format, COMDAT

; 1796 : 		ATLASSERT( AtlIsValidString( pszFormat ) );
; 1797 : 		
; 1798 : 		va_list argList;
; 1799 : 		va_start( argList, pszFormat );
; 1800 : 		FormatV( pszFormat, argList );

  00000	8b 4c 24 08	 mov	 ecx, DWORD PTR _pszFormat$[esp-4]
  00004	8d 44 24 0c	 lea	 eax, DWORD PTR _pszFormat$[esp]
  00008	50		 push	 eax
  00009	51		 push	 ecx
  0000a	8b 4c 24 0c	 mov	 ecx, DWORD PTR _this$[esp+4]
  0000e	e8 00 00 00 00	 call	 ?FormatV@?$CStringT@DV?$StrTraitMFC@DV?$ChTraitsCRT@D@ATL@@@@@ATL@@QAEXPBDPAD@Z ; ATL::CStringT<char,StrTraitMFC<char,ATL::ChTraitsCRT<char> > >::FormatV

; 1801 : 		va_end( argList );
; 1802 : 	}

  00013	c3		 ret	 0
?Format@?$CStringT@DV?$StrTraitMFC@DV?$ChTraitsCRT@D@ATL@@@@@ATL@@QAAXPBDZZ ENDP ; ATL::CStringT<char,StrTraitMFC<char,ATL::ChTraitsCRT<char> > >::Format
_TEXT	ENDS
PUBLIC	?Append@?$CSimpleStringT@D$0A@@ATL@@QAEXPBD@Z	; ATL::CSimpleStringT<char,0>::Append
; Function compile flags: /Ogty
; File c:\program files\microsoft visual studio .net 2003\vc7\atlmfc\include\atlsimpstr.h
;	COMDAT ?Append@?$CSimpleStringT@D$0A@@ATL@@QAEXPBD@Z
_TEXT	SEGMENT
_pszSrc$ = 8						; size = 4
?Append@?$CSimpleStringT@D$0A@@ATL@@QAEXPBD@Z PROC NEAR	; ATL::CSimpleStringT<char,0>::Append, COMDAT
; _this$ = ecx

; 383  : 	{

  00000	56		 push	 esi

; 384  : 		Append( pszSrc, StringLength( pszSrc ) );

  00001	8b 74 24 08	 mov	 esi, DWORD PTR _pszSrc$[esp]
  00005	85 f6		 test	 esi, esi
  00007	75 0d		 jne	 SHORT $L259373
  00009	33 c0		 xor	 eax, eax
  0000b	50		 push	 eax
  0000c	56		 push	 esi
  0000d	e8 00 00 00 00	 call	 ?Append@?$CSimpleStringT@D$0A@@ATL@@QAEXPBDH@Z ; ATL::CSimpleStringT<char,0>::Append
  00012	5e		 pop	 esi

; 385  : 	}

  00013	c2 04 00	 ret	 4

; 384  : 		Append( pszSrc, StringLength( pszSrc ) );

$L259373:
  00016	8b c6		 mov	 eax, esi
  00018	57		 push	 edi
  00019	8d 78 01	 lea	 edi, DWORD PTR [eax+1]
  0001c	8d 64 24 00	 npad	 4
$L259375:
  00020	8a 10		 mov	 dl, BYTE PTR [eax]
  00022	40		 inc	 eax
  00023	84 d2		 test	 dl, dl
  00025	75 f9		 jne	 SHORT $L259375
  00027	2b c7		 sub	 eax, edi
  00029	5f		 pop	 edi
  0002a	50		 push	 eax
  0002b	56		 push	 esi
  0002c	e8 00 00 00 00	 call	 ?Append@?$CSimpleStringT@D$0A@@ATL@@QAEXPBDH@Z ; ATL::CSimpleStringT<char,0>::Append
  00031	5e		 pop	 esi

; 385  : 	}

  00032	c2 04 00	 ret	 4
?Append@?$CSimpleStringT@D$0A@@ATL@@QAEXPBD@Z ENDP	; ATL::CSimpleStringT<char,0>::Append
_TEXT	ENDS
PUBLIC	?GetUserByID@CProject@@QAEPAVCMover@@K@Z	; CProject::GetUserByID
; Function compile flags: /Ogty
; File c:\documents and settings\test\mes documents\source\virtuos_v17\build\program\_common\project.h
;	COMDAT ?GetUserByID@CProject@@QAEPAVCMover@@K@Z
_TEXT	SEGMENT
_i$ = -4						; size = 4
_idPlayer$ = 8						; size = 4
?GetUserByID@CProject@@QAEPAVCMover@@K@Z PROC NEAR	; CProject::GetUserByID, COMDAT
; _this$ = ecx

; 1409 : {

  00000	51		 push	 ecx
  00001	56		 push	 esi
  00002	8b f1		 mov	 esi, ecx

; 1410 : 	map<u_long, CMover*>::iterator i = m_idPlayerToUserPtr.find( idPlayer );

  00004	8d 44 24 0c	 lea	 eax, DWORD PTR _idPlayer$[esp+4]
  00008	50		 push	 eax
  00009	8d 4c 24 08	 lea	 ecx, DWORD PTR _i$[esp+12]
  0000d	51		 push	 ecx
  0000e	8d 4e 38	 lea	 ecx, DWORD PTR [esi+56]
  00011	e8 00 00 00 00	 call	 ?find@?$_Tree@V?$_Tmap_traits@KPAVCMover@@U?$less@K@std@@V?$allocator@U?$pair@$$CBKPAVCMover@@@std@@@3@$0A@@std@@@std@@QAE?AViterator@12@ABK@Z ; std::_Tree<std::_Tmap_traits<unsigned long,CMover *,std::less<unsigned long>,std::allocator<std::pair<unsigned long const ,CMover *> >,0> >::find

; 1411 : 	if( i != m_idPlayerToUserPtr.end() )

  00016	8b 4e 3c	 mov	 ecx, DWORD PTR [esi+60]
  00019	8b 44 24 04	 mov	 eax, DWORD PTR _i$[esp+8]
  0001d	3b c1		 cmp	 eax, ecx
  0001f	5e		 pop	 esi
  00020	74 07		 je	 SHORT $L198064

; 1412 : 		return i->second;

  00022	8b 40 10	 mov	 eax, DWORD PTR [eax+16]

; 1414 : }

  00025	59		 pop	 ecx
  00026	c2 04 00	 ret	 4
$L198064:

; 1413 : 	return NULL;

  00029	33 c0		 xor	 eax, eax

; 1414 : }

  0002b	59		 pop	 ecx
  0002c	c2 04 00	 ret	 4
?GetUserByID@CProject@@QAEPAVCMover@@K@Z ENDP		; CProject::GetUserByID
_TEXT	ENDS
PUBLIC	??4?$CSimpleStringT@D$0A@@ATL@@QAEAAV01@PBD@Z	; ATL::CSimpleStringT<char,0>::operator=
; Function compile flags: /Ogty
; File c:\program files\microsoft visual studio .net 2003\vc7\atlmfc\include\atlsimpstr.h
;	COMDAT ??4?$CSimpleStringT@D$0A@@ATL@@QAEAAV01@PBD@Z
_TEXT	SEGMENT
_pszSrc$ = 8						; size = 4
??4?$CSimpleStringT@D$0A@@ATL@@QAEAAV01@PBD@Z PROC NEAR	; ATL::CSimpleStringT<char,0>::operator=, COMDAT
; _this$ = ecx

; 316  : 		SetString( pszSrc );

  00000	8b 54 24 04	 mov	 edx, DWORD PTR _pszSrc$[esp-4]
  00004	85 d2		 test	 edx, edx
  00006	57		 push	 edi
  00007	8b f9		 mov	 edi, ecx
  00009	75 0f		 jne	 SHORT $L259441
  0000b	33 c0		 xor	 eax, eax
  0000d	50		 push	 eax
  0000e	52		 push	 edx
  0000f	e8 00 00 00 00	 call	 ?SetString@?$CSimpleStringT@D$0A@@ATL@@QAEXPBDH@Z ; ATL::CSimpleStringT<char,0>::SetString

; 317  : 
; 318  : 		return( *this );

  00014	8b c7		 mov	 eax, edi
  00016	5f		 pop	 edi

; 319  : 	}

  00017	c2 04 00	 ret	 4

; 316  : 		SetString( pszSrc );

$L259441:
  0001a	8b c2		 mov	 eax, edx
  0001c	56		 push	 esi
  0001d	8d 70 01	 lea	 esi, DWORD PTR [eax+1]
$L259442:
  00020	8a 08		 mov	 cl, BYTE PTR [eax]
  00022	40		 inc	 eax
  00023	84 c9		 test	 cl, cl
  00025	75 f9		 jne	 SHORT $L259442
  00027	2b c6		 sub	 eax, esi
  00029	5e		 pop	 esi
  0002a	50		 push	 eax
  0002b	52		 push	 edx
  0002c	8b cf		 mov	 ecx, edi
  0002e	e8 00 00 00 00	 call	 ?SetString@?$CSimpleStringT@D$0A@@ATL@@QAEXPBDH@Z ; ATL::CSimpleStringT<char,0>::SetString

; 317  : 
; 318  : 		return( *this );

  00033	8b c7		 mov	 eax, edi
  00035	5f		 pop	 edi

; 319  : 	}

  00036	c2 04 00	 ret	 4
??4?$CSimpleStringT@D$0A@@ATL@@QAEAAV01@PBD@Z ENDP	; ATL::CSimpleStringT<char,0>::operator=
_TEXT	ENDS
PUBLIC	?Process@CPartyQuestProcessor@@QAEXXZ		; CPartyQuestProcessor::Process
EXTRN	__imp__GetTickCount@0:NEAR
EXTRN	?GetPartyQuestProp@CProject@@QAEPAUPARTYQUESTPROP@@H@Z:NEAR ; CProject::GetPartyQuestProp
EXTRN	?prj@@3VCProject@@A:BYTE			; prj
EXTRN	?GetParty@CPartyMng@@QAEPAVCParty@@K@Z:NEAR	; CPartyMng::GetParty
EXTRN	?g_PartyMng@@3VCPartyMng@@A:BYTE		; g_PartyMng
; Function compile flags: /Ogty
; File c:\documents and settings\test\mes documents\source\virtuos_v17\build\program\_common\partyquest.cpp
;	COMDAT ?Process@CPartyQuestProcessor@@QAEXXZ
_TEXT	SEGMENT
tv1127 = -292						; size = 4
tv1098 = -292						; size = 4
tv1069 = -292						; size = 4
tv1039 = -292						; size = 4
_k$252633 = -288					; size = 4
_k$252620 = -288					; size = 4
_bsurvivor$252579 = -288				; size = 4
_bexist$252617 = -284					; size = 4
_k$252596 = -284					; size = 4
_k$252582 = -284					; size = 4
$T259938 = -280						; size = 4
$T259836 = -280						; size = 4
$T259702 = -280						; size = 4
$T259600 = -280						; size = 4
_pParty$252548 = -276					; size = 4
tv1178 = -272						; size = 4
_this$ = -268						; size = 4
_i$252542 = -264					; size = 4
_point$252610 = -260					; size = 8
_vPos$252611 = -252					; size = 12
_dwTickCount$ = -240					; size = 4
_point$252647 = -236					; size = 8
_i$259578 = -228					; size = 4
_i$259680 = -224					; size = 4
_vPos$252566 = -220					; size = 12
_point$252565 = -188					; size = 8
_vPos$252648 = -180					; size = 12
_i$259916 = -168					; size = 4
_i$259814 = -164					; size = 4
_rect$252578 = -160					; size = 16
_rect$252616 = -144					; size = 16
$T259453 = -128						; size = 12
$T259451 = -116						; size = 12
$T259456 = -104						; size = 12
$T259454 = -92						; size = 12
$T259449 = -80						; size = 12
$T259455 = -68						; size = 12
$T259448 = -56						; size = 12
$T259450 = -44						; size = 12
_rect$252564 = -32					; size = 16
?Process@CPartyQuestProcessor@@QAEXXZ PROC NEAR		; CPartyQuestProcessor::Process, COMDAT
; _this$ = ecx

; 25   : {

  00000	81 ec 24 01 00
	00		 sub	 esp, 292		; 00000124H
  00006	53		 push	 ebx
  00007	55		 push	 ebp
  00008	56		 push	 esi
  00009	8b e9		 mov	 ebp, ecx
  0000b	57		 push	 edi
  0000c	89 6c 24 28	 mov	 DWORD PTR _this$[esp+308], ebp

; 26   : 	DWORD dwTickCount	= GetTickCount();

  00010	ff 15 00 00 00
	00		 call	 DWORD PTR __imp__GetTickCount@0
  00016	89 44 24 44	 mov	 DWORD PTR _dwTickCount$[esp+308], eax

; 27   : 	for( int i = 0; i < MAX_GUILD_QUEST; i++ )

  0001a	33 c0		 xor	 eax, eax
  0001c	8d 7d 10	 lea	 edi, DWORD PTR [ebp+16]
  0001f	89 44 24 2c	 mov	 DWORD PTR _i$252542[esp+308], eax
  00023	89 7c 24 24	 mov	 DWORD PTR tv1178[esp+308], edi
$L252543:

; 28   : 	{
; 29   : 		PPARTYQUESTELEM pElem = &m_pElem[i];
; 30   : 		if( pElem->nId == i )

  00027	39 47 f0	 cmp	 DWORD PTR [edi-16], eax
  0002a	0f 85 30 07 00
	00		 jne	 $L252544

; 31   : 		{
; 32   : 			CParty* pParty	= g_PartyMng.GetParty( pElem->idParty );

  00030	8b 47 f8	 mov	 eax, DWORD PTR [edi-8]
  00033	50		 push	 eax
  00034	b9 00 00 00 00	 mov	 ecx, OFFSET FLAT:?g_PartyMng@@3VCPartyMng@@A
  00039	e8 00 00 00 00	 call	 ?GetParty@CPartyMng@@QAEPAVCParty@@K@Z ; CPartyMng::GetParty

; 33   : //			if( !pGuild )
; 34   : //				continue;
; 35   : 
; 36   : 			PARTYQUESTPROP* pProp	= prj.GetPartyQuestProp( pElem->nId );

  0003e	8b 4f f0	 mov	 ecx, DWORD PTR [edi-16]
  00041	8b d8		 mov	 ebx, eax
  00043	51		 push	 ecx
  00044	b9 00 00 00 00	 mov	 ecx, OFFSET FLAT:?prj@@3VCProject@@A
  00049	89 5c 24 24	 mov	 DWORD PTR _pParty$252548[esp+312], ebx
  0004d	e8 00 00 00 00	 call	 ?GetPartyQuestProp@CProject@@QAEPAUPARTYQUESTPROP@@H@Z ; CProject::GetPartyQuestProp
  00052	8b f0		 mov	 esi, eax

; 37   : 			if( !pProp )

  00054	85 f6		 test	 esi, esi
  00056	0f 84 04 07 00
	00		 je	 $L252544

; 38   : 				continue;
; 39   : 
; 40   : 			//   ...
; 41   : 			if( pElem->dwEndTime < dwTickCount )

  0005c	8b 47 fc	 mov	 eax, DWORD PTR [edi-4]
  0005f	8b 54 24 44	 mov	 edx, DWORD PTR _dwTickCount$[esp+308]
  00063	3b c2		 cmp	 eax, edx

; 42   : 			{
; 43   : 				switch( pElem->nProcess )

  00065	0f b6 07	 movzx	 eax, BYTE PTR [edi]
  00068	48		 dec	 eax
  00069	0f 83 bf 00 00
	00		 jae	 $L252551
  0006f	48		 dec	 eax
  00070	0f 85 ea 06 00
	00		 jne	 $L252544

; 44   : 				{
; 45   : 					case PQP_WORMON:
; 46   : 						{
; 47   : 							TRACE( "PQP_WORMON - r\n" );
; 48   : 
; 49   : 							CRect rect;
; 50   : 							rect.SetRect( pProp->x1, pProp->y2, pProp->x2, pProp->y1 );
; 51   : 
; 52   : //							if( pParty )
; 53   : //							{
; 54   : //								pParty->ReplaceLodestar( rect );
; 55   : //							}
; 56   : /*
; 57   : 							CMover* pWormon	= prj.GetMover( pElem->objidWormon );
; 58   : 							if( pWormon )
; 59   : 								pWormon->Delete();
; 60   : */
; 61   : 							CPoint		point;
; 62   : 							D3DXVECTOR3 vPos;
; 63   : 							point  = rect.CenterPoint();
; 64   : 							vPos.x = (float)( point.x );
; 65   : 							vPos.z = (float)( point.y );
; 66   : 							vPos.y = 100.0f;
; 67   : 							RemoveAllDynamicObj( pProp->dwWorldId, vPos, 500 );
; 68   : 
; 69   : 							RemovePartyQuest( pElem->nId );
; 70   : 						}
; 71   : 						break;
; 72   : 					case PQP_GETITEM:
; 73   : 						{
; 74   : 							TRACE( "PQP_GETITEM - r\n" );
; 75   : 
; 76   : 							CRect rect;
; 77   : 							rect.SetRect( pProp->x1, pProp->y2, pProp->x2, pProp->y1 );

  00076	8b 86 9c 10 00
	00		 mov	 eax, DWORD PTR [esi+4252]
  0007c	8b 8e a0 10 00
	00		 mov	 ecx, DWORD PTR [esi+4256]
  00082	8b 96 a4 10 00
	00		 mov	 edx, DWORD PTR [esi+4260]
  00088	50		 push	 eax
  00089	8b 86 98 10 00
	00		 mov	 eax, DWORD PTR [esi+4248]
  0008f	51		 push	 ecx
  00090	52		 push	 edx
  00091	50		 push	 eax
  00092	8d 8c 24 24 01
	00 00		 lea	 ecx, DWORD PTR _rect$252564[esp+324]
  00099	51		 push	 ecx
  0009a	ff 15 00 00 00
	00		 call	 DWORD PTR __imp__SetRect@20

; 78   : 
; 79   : //							if( pParty )
; 80   : //							{
; 81   : //								pParty->ReplaceLodestar( rect );
; 82   : //							}
; 83   : 							CPoint		point;
; 84   : 							D3DXVECTOR3 vPos;
; 85   : 							point  = rect.CenterPoint();

  000a0	8b 94 24 14 01
	00 00		 mov	 edx, DWORD PTR _rect$252564[esp+308]
  000a7	8b 84 24 1c 01
	00 00		 mov	 eax, DWORD PTR _rect$252564[esp+316]
  000ae	03 c2		 add	 eax, edx
  000b0	99		 cdq
  000b1	2b c2		 sub	 eax, edx
  000b3	8b 94 24 20 01
	00 00		 mov	 edx, DWORD PTR _rect$252564[esp+320]
  000ba	8b c8		 mov	 ecx, eax
  000bc	8b 84 24 18 01
	00 00		 mov	 eax, DWORD PTR _rect$252564[esp+312]
  000c3	03 c2		 add	 eax, edx
  000c5	d1 f9		 sar	 ecx, 1
  000c7	99		 cdq
  000c8	89 4c 24 78	 mov	 DWORD PTR _point$252565[esp+308], ecx
  000cc	2b c2		 sub	 eax, edx

; 86   : 							vPos.x = (float)( point.x );

  000ce	db 44 24 78	 fild	 DWORD PTR _point$252565[esp+308]
  000d2	d1 f8		 sar	 eax, 1

; 87   : 							vPos.z = (float)( point.y );
; 88   : 							vPos.y = 100.0f;
; 89   : 							RemoveAllDynamicObj( pProp->dwWorldId, vPos, 500 );

  000d4	68 f4 01 00 00	 push	 500			; 000001f4H
  000d9	89 84 24 80 00
	00 00		 mov	 DWORD PTR _point$252565[esp+316], eax
  000e0	d9 5c 24 5c	 fstp	 DWORD PTR _vPos$252566[esp+312]
  000e4	8b 54 24 5c	 mov	 edx, DWORD PTR _vPos$252566[esp+312]
  000e8	db 84 24 80 00
	00 00		 fild	 DWORD PTR _point$252565[esp+316]
  000ef	83 ec 0c	 sub	 esp, 12			; 0000000cH
  000f2	8b cc		 mov	 ecx, esp
  000f4	89 11		 mov	 DWORD PTR [ecx], edx
  000f6	c7 44 24 6c 00
	00 c8 42	 mov	 DWORD PTR _vPos$252566[esp+328], 1120403456 ; 42c80000H
  000fe	d9 5c 24 70	 fstp	 DWORD PTR _vPos$252566[esp+332]
  00102	8b 44 24 6c	 mov	 eax, DWORD PTR _vPos$252566[esp+328]
  00106	8b 54 24 70	 mov	 edx, DWORD PTR _vPos$252566[esp+332]
  0010a	89 41 04	 mov	 DWORD PTR [ecx+4], eax
  0010d	8b 86 64 10 00
	00		 mov	 eax, DWORD PTR [esi+4196]
  00113	89 51 08	 mov	 DWORD PTR [ecx+8], edx
  00116	50		 push	 eax
  00117	8b cd		 mov	 ecx, ebp
  00119	e8 00 00 00 00	 call	 ?RemoveAllDynamicObj@CPartyQuestProcessor@@QAEXKUD3DXVECTOR3@@H@Z ; CPartyQuestProcessor::RemoveAllDynamicObj

; 90   : 
; 91   : 							RemovePartyQuest( pElem->nId );

  0011e	8b 4f f0	 mov	 ecx, DWORD PTR [edi-16]
  00121	51		 push	 ecx
  00122	8b cd		 mov	 ecx, ebp
  00124	e8 00 00 00 00	 call	 ?RemovePartyQuest@CPartyQuestProcessor@@QAEXH@Z ; CPartyQuestProcessor::RemovePartyQuest

; 92   : 						}
; 93   : 						break;

  00129	e9 32 06 00 00	 jmp	 $L252544
$L252551:

; 94   : 					default:
; 95   : 						break;
; 96   : 				}
; 97   : 			}
; 98   : 			else
; 99   : 			//   ~
; 100  : 			{
; 101  : 				switch( pElem->nProcess )

  0012e	0f 84 00 03 00
	00		 je	 $L252576
  00134	48		 dec	 eax
  00135	0f 85 25 06 00
	00		 jne	 $L252544

; 173  : 							}
; 174  : 						}
; 175  : 						break;
; 176  : 					case PQP_GETITEM:
; 177  : 						{
; 178  : 							TRACE( "PQP_GETITEM - p\n" );
; 179  : 							CRect rect;
; 180  : 							rect.SetRect( pProp->x1, pProp->y2, pProp->x2, pProp->y1 );

  0013b	8b 8e 9c 10 00
	00		 mov	 ecx, DWORD PTR [esi+4252]
  00141	8b 96 a0 10 00
	00		 mov	 edx, DWORD PTR [esi+4256]
  00147	8b 86 a4 10 00
	00		 mov	 eax, DWORD PTR [esi+4260]
  0014d	51		 push	 ecx
  0014e	8b 8e 98 10 00
	00		 mov	 ecx, DWORD PTR [esi+4248]
  00154	52		 push	 edx
  00155	50		 push	 eax
  00156	51		 push	 ecx
  00157	8d 94 24 b4 00
	00 00		 lea	 edx, DWORD PTR _rect$252616[esp+324]
  0015e	52		 push	 edx
  0015f	ff 15 00 00 00
	00		 call	 DWORD PTR __imp__SetRect@20

; 181  : 							BOOL bexist	= FALSE;	// is member here?

  00165	33 c0		 xor	 eax, eax

; 182  : 
; 183  : 							if( pParty )

  00167	3b d8		 cmp	 ebx, eax
  00169	89 44 24 18	 mov	 DWORD PTR _bexist$252617[esp+308], eax
  0016d	0f 84 17 02 00
	00		 je	 $L259994

; 184  : 							{
; 185  : 								CUser* pUser;
; 186  : 								
; 187  : 								for( int k = 0 ; k < pParty->GetSizeofMember() ; k++ )

  00173	39 83 cc 01 00
	00		 cmp	 DWORD PTR [ebx+460], eax
  00179	89 44 24 14	 mov	 DWORD PTR _k$252620[esp+308], eax
  0017d	0f 8e ea 00 00
	00		 jle	 $L260002
  00183	8d 43 28	 lea	 eax, DWORD PTR [ebx+40]
  00186	89 44 24 10	 mov	 DWORD PTR tv1039[esp+308], eax
  0018a	8d 9b 00 00 00
	00		 npad	 6
$L252621:

; 188  : 								{
; 189  : 									u_long idPlayer = pParty->GetPlayerId( k );
; 190  : 									pUser = (CUser*)prj.GetUserByID( idPlayer );

  00190	8b 4c 24 10	 mov	 ecx, DWORD PTR tv1039[esp+308]
  00194	8b 11		 mov	 edx, DWORD PTR [ecx]
  00196	8d 44 24 1c	 lea	 eax, DWORD PTR $T259836[esp+308]
  0019a	50		 push	 eax
  0019b	8d 8c 24 94 00
	00 00		 lea	 ecx, DWORD PTR _i$259814[esp+312]
  001a2	51		 push	 ecx
  001a3	b9 38 00 00 00	 mov	 ecx, OFFSET FLAT:?prj@@3VCProject@@A+56
  001a8	89 54 24 24	 mov	 DWORD PTR $T259836[esp+316], edx
  001ac	e8 00 00 00 00	 call	 ?find@?$_Tree@V?$_Tmap_traits@KPAVCMover@@U?$less@K@std@@V?$allocator@U?$pair@$$CBKPAVCMover@@@std@@@3@$0A@@std@@@std@@QAE?AViterator@12@ABK@Z ; std::_Tree<std::_Tmap_traits<unsigned long,CMover *,std::less<unsigned long>,std::allocator<std::pair<unsigned long const ,CMover *> >,0> >::find
  001b1	8b 84 24 90 00
	00 00		 mov	 eax, DWORD PTR _i$259814[esp+308]
  001b8	3b 05 3c 00 00
	00		 cmp	 eax, DWORD PTR ?prj@@3VCProject@@A+60
  001be	0f 84 7d 00 00
	00		 je	 $L252622
  001c4	8b 40 10	 mov	 eax, DWORD PTR [eax+16]

; 191  : 									if( IsValidObj( pUser ) )

  001c7	85 c0		 test	 eax, eax
  001c9	74 76		 je	 SHORT $L252622
  001cb	f6 40 04 01	 test	 BYTE PTR [eax+4], 1
  001cf	75 70		 jne	 SHORT $L252622

; 192  : 									{
; 193  : 										POINT point = { (int)pUser->GetPos().x, (int)pUser->GetPos().z	};

  001d1	8d b8 60 01 00
	00		 lea	 edi, DWORD PTR [eax+352]
  001d7	8b d7		 mov	 edx, edi
  001d9	8b 02		 mov	 eax, DWORD PTR [edx]
  001db	8b 4a 04	 mov	 ecx, DWORD PTR [edx+4]
  001de	8b 52 08	 mov	 edx, DWORD PTR [edx+8]
  001e1	89 84 24 b4 00
	00 00		 mov	 DWORD PTR $T259453[esp+308], eax
  001e8	d9 84 24 b4 00
	00 00		 fld	 DWORD PTR $T259453[esp+308]
  001ef	89 8c 24 b8 00
	00 00		 mov	 DWORD PTR $T259453[esp+312], ecx
  001f6	89 94 24 bc 00
	00 00		 mov	 DWORD PTR $T259453[esp+316], edx
  001fd	e8 00 00 00 00	 call	 __ftol2
  00202	8b 57 08	 mov	 edx, DWORD PTR [edi+8]
  00205	8b 4f 04	 mov	 ecx, DWORD PTR [edi+4]
  00208	8b e8		 mov	 ebp, eax
  0020a	8b 07		 mov	 eax, DWORD PTR [edi]
  0020c	89 94 24 e0 00
	00 00		 mov	 DWORD PTR $T259454[esp+316], edx
  00213	d9 84 24 e0 00
	00 00		 fld	 DWORD PTR $T259454[esp+316]
  0021a	89 84 24 d8 00
	00 00		 mov	 DWORD PTR $T259454[esp+308], eax
  00221	89 8c 24 dc 00
	00 00		 mov	 DWORD PTR $T259454[esp+312], ecx
  00228	e8 00 00 00 00	 call	 __ftol2

; 194  : 										if( rect.PtInRect( point ) )

  0022d	50		 push	 eax
  0022e	55		 push	 ebp
  0022f	8d 84 24 ac 00
	00 00		 lea	 eax, DWORD PTR _rect$252616[esp+316]
  00236	50		 push	 eax
  00237	ff 15 00 00 00
	00		 call	 DWORD PTR __imp__PtInRect@12
  0023d	85 c0		 test	 eax, eax
  0023f	75 24		 jne	 SHORT $L259987
$L252622:

; 184  : 							{
; 185  : 								CUser* pUser;
; 186  : 								
; 187  : 								for( int k = 0 ; k < pParty->GetSizeofMember() ; k++ )

  00241	8b 44 24 14	 mov	 eax, DWORD PTR _k$252620[esp+308]
  00245	8b 54 24 10	 mov	 edx, DWORD PTR tv1039[esp+308]
  00249	8b 8b cc 01 00
	00		 mov	 ecx, DWORD PTR [ebx+460]
  0024f	40		 inc	 eax
  00250	83 c2 1c	 add	 edx, 28			; 0000001cH
  00253	3b c1		 cmp	 eax, ecx
  00255	89 44 24 14	 mov	 DWORD PTR _k$252620[esp+308], eax
  00259	89 54 24 10	 mov	 DWORD PTR tv1039[esp+308], edx
  0025d	0f 8c 2d ff ff
	ff		 jl	 $L252621

; 125  : 										if( rect.PtInRect( point ) && pUser->IsLive() )

  00263	eb 08		 jmp	 SHORT $L260002
$L259987:

; 195  : 										{
; 196  : 											bexist	= TRUE;

  00265	c7 44 24 18 01
	00 00 00	 mov	 DWORD PTR _bexist$252617[esp+308], 1
$L260002:

; 197  : 											break;
; 198  : 										}
; 199  : 									}
; 200  : 								}
; 201  : 
; 202  : 								for( int k = 0 ; k < pParty->GetSizeofMember() ; k++ )

  0026d	8b 83 cc 01 00
	00		 mov	 eax, DWORD PTR [ebx+460]
  00273	85 c0		 test	 eax, eax
  00275	c7 44 24 14 00
	00 00 00	 mov	 DWORD PTR _k$252633[esp+308], 0
  0027d	0f 8e f3 00 00
	00		 jle	 $L252636
  00283	8d 4b 28	 lea	 ecx, DWORD PTR [ebx+40]
  00286	89 4c 24 10	 mov	 DWORD PTR tv1069[esp+308], ecx
  0028a	8d 9b 00 00 00
	00		 npad	 6
$L252634:

; 203  : 								{
; 204  : 									u_long idPlayer = pParty->GetPlayerId( k );
; 205  : 									pUser = (CUser*)prj.GetUserByID( idPlayer );

  00290	8b 54 24 10	 mov	 edx, DWORD PTR tv1069[esp+308]
  00294	8b 02		 mov	 eax, DWORD PTR [edx]
  00296	8d 4c 24 1c	 lea	 ecx, DWORD PTR $T259938[esp+308]
  0029a	51		 push	 ecx
  0029b	8d 94 24 90 00
	00 00		 lea	 edx, DWORD PTR _i$259916[esp+312]
  002a2	52		 push	 edx
  002a3	b9 38 00 00 00	 mov	 ecx, OFFSET FLAT:?prj@@3VCProject@@A+56
  002a8	89 44 24 24	 mov	 DWORD PTR $T259938[esp+316], eax
  002ac	e8 00 00 00 00	 call	 ?find@?$_Tree@V?$_Tmap_traits@KPAVCMover@@U?$less@K@std@@V?$allocator@U?$pair@$$CBKPAVCMover@@@std@@@3@$0A@@std@@@std@@QAE?AViterator@12@ABK@Z ; std::_Tree<std::_Tmap_traits<unsigned long,CMover *,std::less<unsigned long>,std::allocator<std::pair<unsigned long const ,CMover *> >,0> >::find
  002b1	8b 84 24 8c 00
	00 00		 mov	 eax, DWORD PTR _i$259916[esp+308]
  002b8	3b 05 3c 00 00
	00		 cmp	 eax, DWORD PTR ?prj@@3VCProject@@A+60
  002be	0f 84 90 00 00
	00		 je	 $L252635
  002c4	8b 68 10	 mov	 ebp, DWORD PTR [eax+16]

; 206  : 									if( IsValidObj( pUser ) )

  002c7	85 ed		 test	 ebp, ebp
  002c9	0f 84 85 00 00
	00		 je	 $L252635
  002cf	f6 45 04 01	 test	 BYTE PTR [ebp+4], 1
  002d3	75 7f		 jne	 SHORT $L252635

; 207  : 									{
; 208  : 										POINT point = { (int)pUser->GetPos().x, (int)pUser->GetPos().z	};

  002d5	8d bd 60 01 00
	00		 lea	 edi, DWORD PTR [ebp+352]
  002db	8b c7		 mov	 eax, edi
  002dd	8b 08		 mov	 ecx, DWORD PTR [eax]
  002df	8b 50 04	 mov	 edx, DWORD PTR [eax+4]
  002e2	8b 40 08	 mov	 eax, DWORD PTR [eax+8]
  002e5	89 8c 24 f0 00
	00 00		 mov	 DWORD PTR $T259455[esp+308], ecx
  002ec	d9 84 24 f0 00
	00 00		 fld	 DWORD PTR $T259455[esp+308]
  002f3	89 94 24 f4 00
	00 00		 mov	 DWORD PTR $T259455[esp+312], edx
  002fa	89 84 24 f8 00
	00 00		 mov	 DWORD PTR $T259455[esp+316], eax
  00301	e8 00 00 00 00	 call	 __ftol2
  00306	8b 0f		 mov	 ecx, DWORD PTR [edi]
  00308	8b 57 04	 mov	 edx, DWORD PTR [edi+4]
  0030b	8b d8		 mov	 ebx, eax
  0030d	8b 47 08	 mov	 eax, DWORD PTR [edi+8]
  00310	89 84 24 d4 00
	00 00		 mov	 DWORD PTR $T259456[esp+316], eax
  00317	d9 84 24 d4 00
	00 00		 fld	 DWORD PTR $T259456[esp+316]
  0031e	89 8c 24 cc 00
	00 00		 mov	 DWORD PTR $T259456[esp+308], ecx
  00325	89 94 24 d0 00
	00 00		 mov	 DWORD PTR $T259456[esp+312], edx
  0032c	e8 00 00 00 00	 call	 __ftol2

; 209  : 										if( !rect.PtInRect( point ) )

  00331	50		 push	 eax
  00332	53		 push	 ebx
  00333	8d 8c 24 ac 00
	00 00		 lea	 ecx, DWORD PTR _rect$252616[esp+316]
  0033a	51		 push	 ecx
  0033b	ff 15 00 00 00
	00		 call	 DWORD PTR __imp__PtInRect@12
  00341	85 c0		 test	 eax, eax
  00343	75 0b		 jne	 SHORT $L260003

; 210  : 										{
; 211  : 											pUser->AddQuestTextTime( 0, 0, 0xffffffff );											

  00345	6a ff		 push	 -1
  00347	50		 push	 eax
  00348	50		 push	 eax
  00349	8b cd		 mov	 ecx, ebp
  0034b	e8 00 00 00 00	 call	 ?AddQuestTextTime@CUser@@QAEXHHK@Z ; CUser::AddQuestTextTime
$L260003:
  00350	8b 5c 24 20	 mov	 ebx, DWORD PTR _pParty$252548[esp+308]
$L252635:

; 197  : 											break;
; 198  : 										}
; 199  : 									}
; 200  : 								}
; 201  : 
; 202  : 								for( int k = 0 ; k < pParty->GetSizeofMember() ; k++ )

  00354	8b 44 24 14	 mov	 eax, DWORD PTR _k$252633[esp+308]
  00358	8b 54 24 10	 mov	 edx, DWORD PTR tv1069[esp+308]
  0035c	8b 8b cc 01 00
	00		 mov	 ecx, DWORD PTR [ebx+460]
  00362	40		 inc	 eax
  00363	83 c2 1c	 add	 edx, 28			; 0000001cH
  00366	3b c1		 cmp	 eax, ecx
  00368	89 44 24 14	 mov	 DWORD PTR _k$252633[esp+308], eax
  0036c	89 54 24 10	 mov	 DWORD PTR tv1069[esp+308], edx
  00370	0f 8c 1a ff ff
	ff		 jl	 $L252634
$L252636:

; 212  : 										}
; 213  : 									}
; 214  : 								}
; 215  : 							}
; 216  : 
; 217  : 							if( !bexist )

  00376	8b 44 24 18	 mov	 eax, DWORD PTR _bexist$252617[esp+308]
  0037a	85 c0		 test	 eax, eax
  0037c	0f 85 d6 03 00
	00		 jne	 $L260007
  00382	8b 7c 24 24	 mov	 edi, DWORD PTR tv1178[esp+308]
  00386	8b 6c 24 28	 mov	 ebp, DWORD PTR _this$[esp+308]
$L259994:

; 218  : 							{
; 219  : //								if( pParty )
; 220  : //								{
; 221  : //									pParty->ReplaceLodestar( rect );
; 222  : //								}
; 223  : 								CPoint		point;
; 224  : 								D3DXVECTOR3 vPos;
; 225  : 								point  = rect.CenterPoint();

  0038a	8b 94 24 a4 00
	00 00		 mov	 edx, DWORD PTR _rect$252616[esp+308]
  00391	8b 84 24 ac 00
	00 00		 mov	 eax, DWORD PTR _rect$252616[esp+316]
  00398	03 c2		 add	 eax, edx
  0039a	99		 cdq
  0039b	2b c2		 sub	 eax, edx
  0039d	8b 94 24 b0 00
	00 00		 mov	 edx, DWORD PTR _rect$252616[esp+320]
  003a4	8b c8		 mov	 ecx, eax
  003a6	8b 84 24 a8 00
	00 00		 mov	 eax, DWORD PTR _rect$252616[esp+312]
  003ad	03 c2		 add	 eax, edx
  003af	d1 f9		 sar	 ecx, 1
  003b1	99		 cdq
  003b2	89 4c 24 48	 mov	 DWORD PTR _point$252647[esp+308], ecx
  003b6	2b c2		 sub	 eax, edx

; 226  : 								vPos.x = (float)( point.x );

  003b8	db 44 24 48	 fild	 DWORD PTR _point$252647[esp+308]
  003bc	d1 f8		 sar	 eax, 1

; 227  : 								vPos.z = (float)( point.y );
; 228  : 								vPos.y = 100.0f;
; 229  : 								RemoveAllDynamicObj( pProp->dwWorldId, vPos, 500 );

  003be	68 f4 01 00 00	 push	 500			; 000001f4H
  003c3	89 44 24 50	 mov	 DWORD PTR _point$252647[esp+316], eax
  003c7	d9 9c 24 84 00
	00 00		 fstp	 DWORD PTR _vPos$252648[esp+312]
  003ce	8b 94 24 84 00
	00 00		 mov	 edx, DWORD PTR _vPos$252648[esp+312]
  003d5	db 44 24 50	 fild	 DWORD PTR _point$252647[esp+316]
  003d9	83 ec 0c	 sub	 esp, 12			; 0000000cH
  003dc	8b cc		 mov	 ecx, esp
  003de	89 11		 mov	 DWORD PTR [ecx], edx
  003e0	c7 84 24 94 00
	00 00 00 00 c8
	42		 mov	 DWORD PTR _vPos$252648[esp+328], 1120403456 ; 42c80000H
  003eb	d9 9c 24 98 00
	00 00		 fstp	 DWORD PTR _vPos$252648[esp+332]
  003f2	8b 84 24 94 00
	00 00		 mov	 eax, DWORD PTR _vPos$252648[esp+328]
  003f9	8b 94 24 98 00
	00 00		 mov	 edx, DWORD PTR _vPos$252648[esp+332]
  00400	89 41 04	 mov	 DWORD PTR [ecx+4], eax
  00403	8b 86 64 10 00
	00		 mov	 eax, DWORD PTR [esi+4196]
  00409	89 51 08	 mov	 DWORD PTR [ecx+8], edx
  0040c	50		 push	 eax
  0040d	8b cd		 mov	 ecx, ebp
  0040f	e8 00 00 00 00	 call	 ?RemoveAllDynamicObj@CPartyQuestProcessor@@QAEXKUD3DXVECTOR3@@H@Z ; CPartyQuestProcessor::RemoveAllDynamicObj

; 230  : 
; 231  : 								RemovePartyQuest( pElem->nId );

  00414	8b 47 f0	 mov	 eax, DWORD PTR [edi-16]
  00417	3d 00 01 00 00	 cmp	 eax, 256		; 00000100H
  0041c	0f 8c 17 03 00
	00		 jl	 $L259743
  00422	68 00 00 00 00	 push	 OFFSET FLAT:??_C@_00CNPNBAHC@?$AA@
  00427	e8 00 00 00 00	 call	 ?Error@@YAPBDPBDZZ	; Error
  0042c	83 c4 04	 add	 esp, 4
  0042f	e9 2c 03 00 00	 jmp	 $L252544
$L252576:

; 102  : 				{
; 103  : 					case PQP_WORMON:
; 104  : 						{
; 105  : 							TRACE( "PQP_WORMON - p\n" );
; 106  : 							
; 107  : 							if( ++pElem->nCount < 10 )

  00434	66 ff 47 08	 inc	 WORD PTR [edi+8]
  00438	66 83 7f 08 0a	 cmp	 WORD PTR [edi+8], 10	; 0000000aH
  0043d	0f 8c 1d 03 00
	00		 jl	 $L252544

; 108  : 								continue;
; 109  : 
; 110  : 							CRect rect;
; 111  : 							rect.SetRect( pProp->x1, pProp->y2, pProp->x2, pProp->y1 );

  00443	8b 8e 9c 10 00
	00		 mov	 ecx, DWORD PTR [esi+4252]
  00449	8b 96 a0 10 00
	00		 mov	 edx, DWORD PTR [esi+4256]
  0044f	8b 86 a4 10 00
	00		 mov	 eax, DWORD PTR [esi+4260]
  00455	51		 push	 ecx
  00456	8b 8e 98 10 00
	00		 mov	 ecx, DWORD PTR [esi+4248]
  0045c	52		 push	 edx
  0045d	50		 push	 eax
  0045e	51		 push	 ecx
  0045f	8d 94 24 a4 00
	00 00		 lea	 edx, DWORD PTR _rect$252578[esp+324]
  00466	52		 push	 edx
  00467	ff 15 00 00 00
	00		 call	 DWORD PTR __imp__SetRect@20

; 112  : 							BOOL bsurvivor	= FALSE;	// is survivor exists?

  0046d	33 c0		 xor	 eax, eax

; 113  : 
; 114  : 							if( pParty )

  0046f	3b d8		 cmp	 ebx, eax
  00471	89 44 24 14	 mov	 DWORD PTR _bsurvivor$252579[esp+308], eax
  00475	0f 84 2d 02 00
	00		 je	 $L259997

; 115  : 							{
; 116  : 								CUser* pUser;
; 117  : 								
; 118  : 								for( int k = 0 ; k < pParty->GetSizeofMember() ; k++ )

  0047b	39 83 cc 01 00
	00		 cmp	 DWORD PTR [ebx+460], eax
  00481	89 44 24 18	 mov	 DWORD PTR _k$252582[esp+308], eax
  00485	0f 8e 06 01 00
	00		 jle	 $L260004
  0048b	8d 43 28	 lea	 eax, DWORD PTR [ebx+40]
  0048e	89 44 24 10	 mov	 DWORD PTR tv1098[esp+308], eax
$L252583:

; 119  : 								{
; 120  : 									u_long idPlayer = pParty->GetPlayerId( k );
; 121  : 									pUser = (CUser*)prj.GetUserByID( idPlayer );

  00492	8b 4c 24 10	 mov	 ecx, DWORD PTR tv1098[esp+308]
  00496	8b 11		 mov	 edx, DWORD PTR [ecx]
  00498	8d 44 24 1c	 lea	 eax, DWORD PTR $T259600[esp+308]
  0049c	50		 push	 eax
  0049d	8d 4c 24 54	 lea	 ecx, DWORD PTR _i$259578[esp+312]
  004a1	51		 push	 ecx
  004a2	b9 38 00 00 00	 mov	 ecx, OFFSET FLAT:?prj@@3VCProject@@A+56
  004a7	89 54 24 24	 mov	 DWORD PTR $T259600[esp+316], edx
  004ab	e8 00 00 00 00	 call	 ?find@?$_Tree@V?$_Tmap_traits@KPAVCMover@@U?$less@K@std@@V?$allocator@U?$pair@$$CBKPAVCMover@@@std@@@3@$0A@@std@@@std@@QAE?AViterator@12@ABK@Z ; std::_Tree<std::_Tmap_traits<unsigned long,CMover *,std::less<unsigned long>,std::allocator<std::pair<unsigned long const ,CMover *> >,0> >::find
  004b0	8b 44 24 50	 mov	 eax, DWORD PTR _i$259578[esp+308]
  004b4	3b 05 3c 00 00
	00		 cmp	 eax, DWORD PTR ?prj@@3VCProject@@A+60
  004ba	0f 84 a1 00 00
	00		 je	 $L252584
  004c0	8b 68 10	 mov	 ebp, DWORD PTR [eax+16]

; 122  : 									if( IsValidObj( pUser ) )

  004c3	85 ed		 test	 ebp, ebp
  004c5	0f 84 96 00 00
	00		 je	 $L252584
  004cb	f6 45 04 01	 test	 BYTE PTR [ebp+4], 1
  004cf	0f 85 8c 00 00
	00		 jne	 $L252584

; 123  : 									{										
; 124  : 										POINT point = { (int)pUser->GetPos().x, (int)pUser->GetPos().z	};

  004d5	8d bd 60 01 00
	00		 lea	 edi, DWORD PTR [ebp+352]
  004db	8b d7		 mov	 edx, edi
  004dd	8b 02		 mov	 eax, DWORD PTR [edx]
  004df	8b 4a 04	 mov	 ecx, DWORD PTR [edx+4]
  004e2	8b 52 08	 mov	 edx, DWORD PTR [edx+8]
  004e5	89 84 24 fc 00
	00 00		 mov	 DWORD PTR $T259448[esp+308], eax
  004ec	d9 84 24 fc 00
	00 00		 fld	 DWORD PTR $T259448[esp+308]
  004f3	89 8c 24 00 01
	00 00		 mov	 DWORD PTR $T259448[esp+312], ecx
  004fa	89 94 24 04 01
	00 00		 mov	 DWORD PTR $T259448[esp+316], edx
  00501	e8 00 00 00 00	 call	 __ftol2
  00506	8b 57 08	 mov	 edx, DWORD PTR [edi+8]
  00509	8b 4f 04	 mov	 ecx, DWORD PTR [edi+4]
  0050c	8b d8		 mov	 ebx, eax
  0050e	8b 07		 mov	 eax, DWORD PTR [edi]
  00510	89 94 24 ec 00
	00 00		 mov	 DWORD PTR $T259449[esp+316], edx
  00517	d9 84 24 ec 00
	00 00		 fld	 DWORD PTR $T259449[esp+316]
  0051e	89 84 24 e4 00
	00 00		 mov	 DWORD PTR $T259449[esp+308], eax
  00525	89 8c 24 e8 00
	00 00		 mov	 DWORD PTR $T259449[esp+312], ecx
  0052c	e8 00 00 00 00	 call	 __ftol2

; 125  : 										if( rect.PtInRect( point ) && pUser->IsLive() )

  00531	50		 push	 eax
  00532	53		 push	 ebx
  00533	8d 84 24 9c 00
	00 00		 lea	 eax, DWORD PTR _rect$252578[esp+316]
  0053a	50		 push	 eax
  0053b	ff 15 00 00 00
	00		 call	 DWORD PTR __imp__PtInRect@12
  00541	85 c0		 test	 eax, eax
  00543	74 0b		 je	 SHORT $L252594
  00545	8b cd		 mov	 ecx, ebp
  00547	e8 00 00 00 00	 call	 ?IsLive@CMover@@QAEHXZ	; CMover::IsLive
  0054c	85 c0		 test	 eax, eax
  0054e	75 35		 jne	 SHORT $L259988
$L252594:

; 128  : 											break;
; 129  : 										}
; 130  : 										else
; 131  : 										{
; 132  : 											pUser->AddQuestTextTime( 0, 0, 0xffffffff );											

  00550	6a ff		 push	 -1
  00552	6a 00		 push	 0
  00554	6a 00		 push	 0
  00556	8b cd		 mov	 ecx, ebp
  00558	e8 00 00 00 00	 call	 ?AddQuestTextTime@CUser@@QAEXHHK@Z ; CUser::AddQuestTextTime
  0055d	8b 5c 24 20	 mov	 ebx, DWORD PTR _pParty$252548[esp+308]
$L252584:
  00561	8b 44 24 18	 mov	 eax, DWORD PTR _k$252582[esp+308]
  00565	8b 54 24 10	 mov	 edx, DWORD PTR tv1098[esp+308]
  00569	8b 8b cc 01 00
	00		 mov	 ecx, DWORD PTR [ebx+460]
  0056f	40		 inc	 eax
  00570	83 c2 1c	 add	 edx, 28			; 0000001cH
  00573	3b c1		 cmp	 eax, ecx
  00575	89 44 24 18	 mov	 DWORD PTR _k$252582[esp+308], eax
  00579	89 54 24 10	 mov	 DWORD PTR tv1098[esp+308], edx
  0057d	0f 8c 0f ff ff
	ff		 jl	 $L252583

; 125  : 										if( rect.PtInRect( point ) && pUser->IsLive() )

  00583	eb 0c		 jmp	 SHORT $L260004
$L259988:

; 126  : 										{
; 127  : 											bsurvivor	= TRUE;

  00585	8b 5c 24 20	 mov	 ebx, DWORD PTR _pParty$252548[esp+308]
  00589	c7 44 24 14 01
	00 00 00	 mov	 DWORD PTR _bsurvivor$252579[esp+308], 1
$L260004:

; 133  : 										}
; 134  : 									}
; 135  : 								}
; 136  : 
; 137  : 								for( int k = 0 ; k < pParty->GetSizeofMember() ; k++ )

  00591	8b 83 cc 01 00
	00		 mov	 eax, DWORD PTR [ebx+460]
  00597	85 c0		 test	 eax, eax
  00599	c7 44 24 18 00
	00 00 00	 mov	 DWORD PTR _k$252596[esp+308], 0
  005a1	0f 8e ed 00 00
	00		 jle	 $L252599
  005a7	8d 4b 28	 lea	 ecx, DWORD PTR [ebx+40]
  005aa	89 4c 24 10	 mov	 DWORD PTR tv1127[esp+308], ecx
  005ae	8b ff		 npad	 2
$L252597:

; 138  : 								{
; 139  : 									u_long idPlayer = pParty->GetPlayerId( k );
; 140  : 									pUser = (CUser*)prj.GetUserByID( idPlayer );

  005b0	8b 54 24 10	 mov	 edx, DWORD PTR tv1127[esp+308]
  005b4	8b 02		 mov	 eax, DWORD PTR [edx]
  005b6	8d 4c 24 1c	 lea	 ecx, DWORD PTR $T259702[esp+308]
  005ba	51		 push	 ecx
  005bb	8d 54 24 58	 lea	 edx, DWORD PTR _i$259680[esp+312]
  005bf	52		 push	 edx
  005c0	b9 38 00 00 00	 mov	 ecx, OFFSET FLAT:?prj@@3VCProject@@A+56
  005c5	89 44 24 24	 mov	 DWORD PTR $T259702[esp+316], eax
  005c9	e8 00 00 00 00	 call	 ?find@?$_Tree@V?$_Tmap_traits@KPAVCMover@@U?$less@K@std@@V?$allocator@U?$pair@$$CBKPAVCMover@@@std@@@3@$0A@@std@@@std@@QAE?AViterator@12@ABK@Z ; std::_Tree<std::_Tmap_traits<unsigned long,CMover *,std::less<unsigned long>,std::allocator<std::pair<unsigned long const ,CMover *> >,0> >::find
  005ce	8b 44 24 54	 mov	 eax, DWORD PTR _i$259680[esp+308]
  005d2	3b 05 3c 00 00
	00		 cmp	 eax, DWORD PTR ?prj@@3VCProject@@A+60
  005d8	0f 84 94 00 00
	00		 je	 $L252598
  005de	8b 68 10	 mov	 ebp, DWORD PTR [eax+16]

; 141  : 									if( IsValidObj( pUser ) )

  005e1	85 ed		 test	 ebp, ebp
  005e3	0f 84 89 00 00
	00		 je	 $L252598
  005e9	f6 45 04 01	 test	 BYTE PTR [ebp+4], 1
  005ed	0f 85 7f 00 00
	00		 jne	 $L252598

; 142  : 									{										
; 143  : 										POINT point = { (int)pUser->GetPos().x, (int)pUser->GetPos().z	};

  005f3	8d bd 60 01 00
	00		 lea	 edi, DWORD PTR [ebp+352]
  005f9	8b c7		 mov	 eax, edi
  005fb	8b 08		 mov	 ecx, DWORD PTR [eax]
  005fd	8b 50 04	 mov	 edx, DWORD PTR [eax+4]
  00600	8b 40 08	 mov	 eax, DWORD PTR [eax+8]
  00603	89 8c 24 08 01
	00 00		 mov	 DWORD PTR $T259450[esp+308], ecx
  0060a	d9 84 24 08 01
	00 00		 fld	 DWORD PTR $T259450[esp+308]
  00611	89 94 24 0c 01
	00 00		 mov	 DWORD PTR $T259450[esp+312], edx
  00618	89 84 24 10 01
	00 00		 mov	 DWORD PTR $T259450[esp+316], eax
  0061f	e8 00 00 00 00	 call	 __ftol2
  00624	8b 0f		 mov	 ecx, DWORD PTR [edi]
  00626	8b 57 04	 mov	 edx, DWORD PTR [edi+4]
  00629	8b d8		 mov	 ebx, eax
  0062b	8b 47 08	 mov	 eax, DWORD PTR [edi+8]
  0062e	89 84 24 c8 00
	00 00		 mov	 DWORD PTR $T259451[esp+316], eax
  00635	d9 84 24 c8 00
	00 00		 fld	 DWORD PTR $T259451[esp+316]
  0063c	89 8c 24 c0 00
	00 00		 mov	 DWORD PTR $T259451[esp+308], ecx
  00643	89 94 24 c4 00
	00 00		 mov	 DWORD PTR $T259451[esp+312], edx
  0064a	e8 00 00 00 00	 call	 __ftol2

; 144  : 										if( !rect.PtInRect( point ) )

  0064f	50		 push	 eax
  00650	53		 push	 ebx
  00651	8d 8c 24 9c 00
	00 00		 lea	 ecx, DWORD PTR _rect$252578[esp+316]
  00658	51		 push	 ecx
  00659	ff 15 00 00 00
	00		 call	 DWORD PTR __imp__PtInRect@12
  0065f	85 c0		 test	 eax, eax
  00661	75 0b		 jne	 SHORT $L260005

; 145  : 										{
; 146  : 											pUser->AddQuestTextTime( 0, 0, 0xffffffff );											

  00663	6a ff		 push	 -1
  00665	50		 push	 eax
  00666	50		 push	 eax
  00667	8b cd		 mov	 ecx, ebp
  00669	e8 00 00 00 00	 call	 ?AddQuestTextTime@CUser@@QAEXHHK@Z ; CUser::AddQuestTextTime
$L260005:
  0066e	8b 5c 24 20	 mov	 ebx, DWORD PTR _pParty$252548[esp+308]
$L252598:

; 133  : 										}
; 134  : 									}
; 135  : 								}
; 136  : 
; 137  : 								for( int k = 0 ; k < pParty->GetSizeofMember() ; k++ )

  00672	8b 44 24 18	 mov	 eax, DWORD PTR _k$252596[esp+308]
  00676	8b 54 24 10	 mov	 edx, DWORD PTR tv1127[esp+308]
  0067a	8b 8b cc 01 00
	00		 mov	 ecx, DWORD PTR [ebx+460]
  00680	40		 inc	 eax
  00681	83 c2 1c	 add	 edx, 28			; 0000001cH
  00684	3b c1		 cmp	 eax, ecx
  00686	89 44 24 18	 mov	 DWORD PTR _k$252596[esp+308], eax
  0068a	89 54 24 10	 mov	 DWORD PTR tv1127[esp+308], edx
  0068e	0f 8c 1c ff ff
	ff		 jl	 $L252597
$L252599:

; 147  : 										}
; 148  : 									}
; 149  : 								}
; 150  : 								
; 151  : 							}
; 152  : 
; 153  : 							if( !bsurvivor  )

  00694	8b 44 24 14	 mov	 eax, DWORD PTR _bsurvivor$252579[esp+308]
  00698	85 c0		 test	 eax, eax
  0069a	0f 85 b8 00 00
	00		 jne	 $L260007
  006a0	8b 7c 24 24	 mov	 edi, DWORD PTR tv1178[esp+308]
  006a4	8b 6c 24 28	 mov	 ebp, DWORD PTR _this$[esp+308]
$L259997:

; 154  : 							{
; 155  : //								if( pParty )
; 156  : //								{
; 157  : //									pParty->ReplaceLodestar( rect );
; 158  : //								}
; 159  : /*
; 160  : 								CMover* pWormon	= prj.GetMover( pElem->objidWormon );
; 161  : 								if( pWormon )
; 162  : 									pWormon->Delete();
; 163  : */
; 164  : 								CPoint		point;
; 165  : 								D3DXVECTOR3 vPos;
; 166  : 								point  = rect.CenterPoint();

  006a8	8b 94 24 94 00
	00 00		 mov	 edx, DWORD PTR _rect$252578[esp+308]
  006af	8b 84 24 9c 00
	00 00		 mov	 eax, DWORD PTR _rect$252578[esp+316]
  006b6	03 c2		 add	 eax, edx
  006b8	99		 cdq
  006b9	2b c2		 sub	 eax, edx
  006bb	8b 94 24 a0 00
	00 00		 mov	 edx, DWORD PTR _rect$252578[esp+320]
  006c2	8b c8		 mov	 ecx, eax
  006c4	8b 84 24 98 00
	00 00		 mov	 eax, DWORD PTR _rect$252578[esp+312]
  006cb	03 c2		 add	 eax, edx
  006cd	d1 f9		 sar	 ecx, 1
  006cf	99		 cdq
  006d0	89 4c 24 30	 mov	 DWORD PTR _point$252610[esp+308], ecx
  006d4	2b c2		 sub	 eax, edx

; 167  : 								vPos.x = (float)( point.x );

  006d6	db 44 24 30	 fild	 DWORD PTR _point$252610[esp+308]
  006da	d1 f8		 sar	 eax, 1

; 168  : 								vPos.z = (float)( point.y );
; 169  : 								vPos.y = 100.0f;
; 170  : 								RemoveAllDynamicObj( pProp->dwWorldId, vPos, 500 );

  006dc	68 f4 01 00 00	 push	 500			; 000001f4H
  006e1	89 44 24 38	 mov	 DWORD PTR _point$252610[esp+316], eax
  006e5	d9 5c 24 3c	 fstp	 DWORD PTR _vPos$252611[esp+312]
  006e9	8b 54 24 3c	 mov	 edx, DWORD PTR _vPos$252611[esp+312]
  006ed	db 44 24 38	 fild	 DWORD PTR _point$252610[esp+316]
  006f1	83 ec 0c	 sub	 esp, 12			; 0000000cH
  006f4	8b cc		 mov	 ecx, esp
  006f6	89 11		 mov	 DWORD PTR [ecx], edx
  006f8	c7 44 24 4c 00
	00 c8 42	 mov	 DWORD PTR _vPos$252611[esp+328], 1120403456 ; 42c80000H
  00700	d9 5c 24 50	 fstp	 DWORD PTR _vPos$252611[esp+332]
  00704	8b 44 24 4c	 mov	 eax, DWORD PTR _vPos$252611[esp+328]
  00708	8b 54 24 50	 mov	 edx, DWORD PTR _vPos$252611[esp+332]
  0070c	89 41 04	 mov	 DWORD PTR [ecx+4], eax
  0070f	8b 86 64 10 00
	00		 mov	 eax, DWORD PTR [esi+4196]
  00715	89 51 08	 mov	 DWORD PTR [ecx+8], edx
  00718	50		 push	 eax
  00719	8b cd		 mov	 ecx, ebp
  0071b	e8 00 00 00 00	 call	 ?RemoveAllDynamicObj@CPartyQuestProcessor@@QAEXKUD3DXVECTOR3@@H@Z ; CPartyQuestProcessor::RemoveAllDynamicObj

; 171  : 								
; 172  : 								RemovePartyQuest( pElem->nId );

  00720	8b 47 f0	 mov	 eax, DWORD PTR [edi-16]
  00723	3d 00 01 00 00	 cmp	 eax, 256		; 00000100H
  00728	7c 0f		 jl	 SHORT $L259743
  0072a	68 00 00 00 00	 push	 OFFSET FLAT:??_C@_00CNPNBAHC@?$AA@
  0072f	e8 00 00 00 00	 call	 ?Error@@YAPBDPBDZZ	; Error
  00734	83 c4 04	 add	 esp, 4
  00737	eb 27		 jmp	 SHORT $L252544
$L259743:
  00739	6b c0 1c	 imul	 eax, 28			; 0000001cH
  0073c	03 c5		 add	 eax, ebp
  0073e	33 c9		 xor	 ecx, ecx
  00740	c7 00 ff ff ff
	ff		 mov	 DWORD PTR [eax], -1
  00746	89 48 04	 mov	 DWORD PTR [eax+4], ecx
  00749	89 48 08	 mov	 DWORD PTR [eax+8], ecx
  0074c	88 48 10	 mov	 BYTE PTR [eax+16], cl
  0074f	89 48 0c	 mov	 DWORD PTR [eax+12], ecx
  00752	66 89 48 18	 mov	 WORD PTR [eax+24], cx
  00756	eb 08		 jmp	 SHORT $L252544
$L260007:
  00758	8b 7c 24 24	 mov	 edi, DWORD PTR tv1178[esp+308]
  0075c	8b 6c 24 28	 mov	 ebp, DWORD PTR _this$[esp+308]
$L252544:
  00760	8b 44 24 2c	 mov	 eax, DWORD PTR _i$252542[esp+308]
  00764	40		 inc	 eax
  00765	83 c7 1c	 add	 edi, 28			; 0000001cH
  00768	3d 00 01 00 00	 cmp	 eax, 256		; 00000100H
  0076d	89 44 24 2c	 mov	 DWORD PTR _i$252542[esp+308], eax
  00771	89 7c 24 24	 mov	 DWORD PTR tv1178[esp+308], edi
  00775	0f 8c ac f8 ff
	ff		 jl	 $L252543

; 232  : 							}
; 233  : 						}
; 234  : 						break;
; 235  : 					default:
; 236  : 						break;
; 237  : 				}
; 238  : 			}
; 239  : 		}
; 240  : 	}
; 241  : }

  0077b	5f		 pop	 edi
  0077c	5e		 pop	 esi
  0077d	5d		 pop	 ebp
  0077e	5b		 pop	 ebx
  0077f	81 c4 24 01 00
	00		 add	 esp, 292		; 00000124H
  00785	c3		 ret	 0
?Process@CPartyQuestProcessor@@QAEXXZ ENDP		; CPartyQuestProcessor::Process
_TEXT	ENDS
PUBLIC	?SendQuestLimitTime@CPartyQuestProcessor@@QAEXHKK@Z ; CPartyQuestProcessor::SendQuestLimitTime
; Function compile flags: /Ogty
;	COMDAT ?SendQuestLimitTime@CPartyQuestProcessor@@QAEXHKK@Z
_TEXT	SEGMENT
_nState$ = 8						; size = 4
_i$260074 = 12						; size = 4
_dwTime$ = 12						; size = 4
$T260096 = 16						; size = 4
_idParty$ = 16						; size = 4
?SendQuestLimitTime@CPartyQuestProcessor@@QAEXHKK@Z PROC NEAR ; CPartyQuestProcessor::SendQuestLimitTime, COMDAT
; _this$ = ecx

; 339  : 	CParty* pParty	= g_PartyMng.GetParty( idParty );

  00000	8b 44 24 0c	 mov	 eax, DWORD PTR _idParty$[esp-4]
  00004	55		 push	 ebp
  00005	50		 push	 eax
  00006	b9 00 00 00 00	 mov	 ecx, OFFSET FLAT:?g_PartyMng@@3VCPartyMng@@A
  0000b	e8 00 00 00 00	 call	 ?GetParty@CPartyMng@@QAEPAVCParty@@K@Z ; CPartyMng::GetParty
  00010	8b e8		 mov	 ebp, eax

; 340  : 	if( pParty )

  00012	85 ed		 test	 ebp, ebp
  00014	74 6b		 je	 SHORT $L252798

; 341  : 	{
; 342  : 		for( int i = 0 ; i < pParty->GetSizeofMember() ; ++i )

  00016	8b 85 cc 01 00
	00		 mov	 eax, DWORD PTR [ebp+460]
  0001c	57		 push	 edi
  0001d	33 ff		 xor	 edi, edi
  0001f	85 c0		 test	 eax, eax
  00021	7e 5d		 jle	 SHORT $L260112
  00023	53		 push	 ebx
  00024	8b 5c 24 14	 mov	 ebx, DWORD PTR _dwTime$[esp+8]
  00028	56		 push	 esi
  00029	8d 75 28	 lea	 esi, DWORD PTR [ebp+40]
  0002c	8d 64 24 00	 npad	 4
$L252796:

; 343  : 		{
; 344  : 			CUser* pUsertmp = (CUser *)prj.GetUserByID( pParty->GetPlayerId( i ) );

  00030	8b 0e		 mov	 ecx, DWORD PTR [esi]
  00032	8d 54 24 1c	 lea	 edx, DWORD PTR $T260096[esp+12]
  00036	52		 push	 edx
  00037	8d 44 24 1c	 lea	 eax, DWORD PTR _i$260074[esp+16]
  0003b	89 4c 24 20	 mov	 DWORD PTR $T260096[esp+16], ecx
  0003f	50		 push	 eax
  00040	b9 38 00 00 00	 mov	 ecx, OFFSET FLAT:?prj@@3VCProject@@A+56
  00045	e8 00 00 00 00	 call	 ?find@?$_Tree@V?$_Tmap_traits@KPAVCMover@@U?$less@K@std@@V?$allocator@U?$pair@$$CBKPAVCMover@@@std@@@3@$0A@@std@@@std@@QAE?AViterator@12@ABK@Z ; std::_Tree<std::_Tmap_traits<unsigned long,CMover *,std::less<unsigned long>,std::allocator<std::pair<unsigned long const ,CMover *> >,0> >::find
  0004a	8b 44 24 18	 mov	 eax, DWORD PTR _i$260074[esp+12]
  0004e	3b 05 3c 00 00
	00		 cmp	 eax, DWORD PTR ?prj@@3VCProject@@A+60
  00054	74 1a		 je	 SHORT $L252797
  00056	8b 48 10	 mov	 ecx, DWORD PTR [eax+16]

; 345  : 			if( IsValidObj( pUsertmp ) )

  00059	85 c9		 test	 ecx, ecx
  0005b	74 13		 je	 SHORT $L252797
  0005d	f6 41 04 01	 test	 BYTE PTR [ecx+4], 1
  00061	75 0d		 jne	 SHORT $L252797

; 346  : 			{
; 347  : 				pUsertmp->AddQuestTextTime( 1, nState, dwTime );

  00063	8b 54 24 14	 mov	 edx, DWORD PTR _nState$[esp+12]
  00067	53		 push	 ebx
  00068	52		 push	 edx
  00069	6a 01		 push	 1
  0006b	e8 00 00 00 00	 call	 ?AddQuestTextTime@CUser@@QAEXHHK@Z ; CUser::AddQuestTextTime
$L252797:
  00070	8b 85 cc 01 00
	00		 mov	 eax, DWORD PTR [ebp+460]
  00076	47		 inc	 edi
  00077	83 c6 1c	 add	 esi, 28			; 0000001cH
  0007a	3b f8		 cmp	 edi, eax
  0007c	7c b2		 jl	 SHORT $L252796
  0007e	5e		 pop	 esi
  0007f	5b		 pop	 ebx
$L260112:
  00080	5f		 pop	 edi
$L252798:
  00081	5d		 pop	 ebp

; 348  : 			}
; 349  : 		}
; 350  : 	}
; 351  : }

  00082	c2 0c 00	 ret	 12			; 0000000cH
?SendQuestLimitTime@CPartyQuestProcessor@@QAEXHKK@Z ENDP ; CPartyQuestProcessor::SendQuestLimitTime
_TEXT	ENDS
PUBLIC	??Y?$CSimpleStringT@D$0A@@ATL@@QAEAAV01@PBD@Z	; ATL::CSimpleStringT<char,0>::operator+=
; Function compile flags: /Ogty
; File c:\program files\microsoft visual studio .net 2003\vc7\atlmfc\include\atlsimpstr.h
;	COMDAT ??Y?$CSimpleStringT@D$0A@@ATL@@QAEAAV01@PBD@Z
_TEXT	SEGMENT
_pszSrc$ = 8						; size = 4
??Y?$CSimpleStringT@D$0A@@ATL@@QAEAAV01@PBD@Z PROC NEAR	; ATL::CSimpleStringT<char,0>::operator+=, COMDAT
; _this$ = ecx

; 337  : 		Append( pszSrc );

  00000	8b 54 24 04	 mov	 edx, DWORD PTR _pszSrc$[esp-4]
  00004	85 d2		 test	 edx, edx
  00006	57		 push	 edi
  00007	8b f9		 mov	 edi, ecx
  00009	75 0f		 jne	 SHORT $L260126
  0000b	33 c0		 xor	 eax, eax
  0000d	50		 push	 eax
  0000e	52		 push	 edx
  0000f	e8 00 00 00 00	 call	 ?Append@?$CSimpleStringT@D$0A@@ATL@@QAEXPBDH@Z ; ATL::CSimpleStringT<char,0>::Append

; 338  : 
; 339  : 		return( *this );

  00014	8b c7		 mov	 eax, edi
  00016	5f		 pop	 edi

; 340  : 	}

  00017	c2 04 00	 ret	 4

; 337  : 		Append( pszSrc );

$L260126:
  0001a	8b c2		 mov	 eax, edx
  0001c	56		 push	 esi
  0001d	8d 70 01	 lea	 esi, DWORD PTR [eax+1]
$L260128:
  00020	8a 08		 mov	 cl, BYTE PTR [eax]
  00022	40		 inc	 eax
  00023	84 c9		 test	 cl, cl
  00025	75 f9		 jne	 SHORT $L260128
  00027	2b c6		 sub	 eax, esi
  00029	5e		 pop	 esi
  0002a	50		 push	 eax
  0002b	52		 push	 edx
  0002c	8b cf		 mov	 ecx, edi
  0002e	e8 00 00 00 00	 call	 ?Append@?$CSimpleStringT@D$0A@@ATL@@QAEXPBDH@Z ; ATL::CSimpleStringT<char,0>::Append

; 338  : 
; 339  : 		return( *this );

  00033	8b c7		 mov	 eax, edi
  00035	5f		 pop	 edi

; 340  : 	}

  00036	c2 04 00	 ret	 4
??Y?$CSimpleStringT@D$0A@@ATL@@QAEAAV01@PBD@Z ENDP	; ATL::CSimpleStringT<char,0>::operator+=
_TEXT	ENDS
PUBLIC	??4?$CStringT@DV?$StrTraitMFC@DV?$ChTraitsCRT@D@ATL@@@@@ATL@@QAEAAV01@PBD@Z ; ATL::CStringT<char,StrTraitMFC<char,ATL::ChTraitsCRT<char> > >::operator=
; Function compile flags: /Ogty
; File c:\program files\microsoft visual studio .net 2003\vc7\atlmfc\include\cstringt.h
;	COMDAT ??4?$CStringT@DV?$StrTraitMFC@DV?$ChTraitsCRT@D@ATL@@@@@ATL@@QAEAAV01@PBD@Z
_TEXT	SEGMENT
_pszSrc$ = 8						; size = 4
??4?$CStringT@DV?$StrTraitMFC@DV?$ChTraitsCRT@D@ATL@@@@@ATL@@QAEAAV01@PBD@Z PROC NEAR ; ATL::CStringT<char,StrTraitMFC<char,ATL::ChTraitsCRT<char> > >::operator=, COMDAT
; _this$ = ecx

; 983  : 		CThisSimpleString::operator=( pszSrc );

  00000	8b 54 24 04	 mov	 edx, DWORD PTR _pszSrc$[esp-4]
  00004	85 d2		 test	 edx, edx
  00006	57		 push	 edi
  00007	8b f9		 mov	 edi, ecx
  00009	75 0f		 jne	 SHORT $L260148
  0000b	33 c0		 xor	 eax, eax
  0000d	50		 push	 eax
  0000e	52		 push	 edx
  0000f	e8 00 00 00 00	 call	 ?SetString@?$CSimpleStringT@D$0A@@ATL@@QAEXPBDH@Z ; ATL::CSimpleStringT<char,0>::SetString

; 984  : 
; 985  : 		return( *this );

  00014	8b c7		 mov	 eax, edi
  00016	5f		 pop	 edi

; 986  : 	}

  00017	c2 04 00	 ret	 4

; 983  : 		CThisSimpleString::operator=( pszSrc );

$L260148:
  0001a	8b c2		 mov	 eax, edx
  0001c	56		 push	 esi
  0001d	8d 70 01	 lea	 esi, DWORD PTR [eax+1]
$L260151:
  00020	8a 08		 mov	 cl, BYTE PTR [eax]
  00022	40		 inc	 eax
  00023	84 c9		 test	 cl, cl
  00025	75 f9		 jne	 SHORT $L260151
  00027	2b c6		 sub	 eax, esi
  00029	5e		 pop	 esi
  0002a	50		 push	 eax
  0002b	52		 push	 edx
  0002c	8b cf		 mov	 ecx, edi
  0002e	e8 00 00 00 00	 call	 ?SetString@?$CSimpleStringT@D$0A@@ATL@@QAEXPBDH@Z ; ATL::CSimpleStringT<char,0>::SetString

; 984  : 
; 985  : 		return( *this );

  00033	8b c7		 mov	 eax, edi
  00035	5f		 pop	 edi

; 986  : 	}

  00036	c2 04 00	 ret	 4
??4?$CStringT@DV?$StrTraitMFC@DV?$ChTraitsCRT@D@ATL@@@@@ATL@@QAEAAV01@PBD@Z ENDP ; ATL::CStringT<char,StrTraitMFC<char,ATL::ChTraitsCRT<char> > >::operator=
_TEXT	ENDS
PUBLIC	??Y?$CStringT@DV?$StrTraitMFC@DV?$ChTraitsCRT@D@ATL@@@@@ATL@@QAEAAV01@PBD@Z ; ATL::CStringT<char,StrTraitMFC<char,ATL::ChTraitsCRT<char> > >::operator+=
; Function compile flags: /Ogty
;	COMDAT ??Y?$CStringT@DV?$StrTraitMFC@DV?$ChTraitsCRT@D@ATL@@@@@ATL@@QAEAAV01@PBD@Z
_TEXT	SEGMENT
_pszSrc$ = 8						; size = 4
??Y?$CStringT@DV?$StrTraitMFC@DV?$ChTraitsCRT@D@ATL@@@@@ATL@@QAEAAV01@PBD@Z PROC NEAR ; ATL::CStringT<char,StrTraitMFC<char,ATL::ChTraitsCRT<char> > >::operator+=, COMDAT
; _this$ = ecx

; 1043 : 		CThisSimpleString::operator+=( pszSrc );

  00000	8b 54 24 04	 mov	 edx, DWORD PTR _pszSrc$[esp-4]
  00004	85 d2		 test	 edx, edx
  00006	57		 push	 edi
  00007	8b f9		 mov	 edi, ecx
  00009	75 0f		 jne	 SHORT $L260171
  0000b	33 c0		 xor	 eax, eax
  0000d	50		 push	 eax
  0000e	52		 push	 edx
  0000f	e8 00 00 00 00	 call	 ?Append@?$CSimpleStringT@D$0A@@ATL@@QAEXPBDH@Z ; ATL::CSimpleStringT<char,0>::Append

; 1044 : 
; 1045 : 		return( *this );

  00014	8b c7		 mov	 eax, edi
  00016	5f		 pop	 edi

; 1046 : 	}

  00017	c2 04 00	 ret	 4

; 1043 : 		CThisSimpleString::operator+=( pszSrc );

$L260171:
  0001a	8b c2		 mov	 eax, edx
  0001c	56		 push	 esi
  0001d	8d 70 01	 lea	 esi, DWORD PTR [eax+1]
$L260174:
  00020	8a 08		 mov	 cl, BYTE PTR [eax]
  00022	40		 inc	 eax
  00023	84 c9		 test	 cl, cl
  00025	75 f9		 jne	 SHORT $L260174
  00027	2b c6		 sub	 eax, esi
  00029	5e		 pop	 esi
  0002a	50		 push	 eax
  0002b	52		 push	 edx
  0002c	8b cf		 mov	 ecx, edi
  0002e	e8 00 00 00 00	 call	 ?Append@?$CSimpleStringT@D$0A@@ATL@@QAEXPBDH@Z ; ATL::CSimpleStringT<char,0>::Append

; 1044 : 
; 1045 : 		return( *this );

  00033	8b c7		 mov	 eax, edi
  00035	5f		 pop	 edi

; 1046 : 	}

  00036	c2 04 00	 ret	 4
??Y?$CStringT@DV?$StrTraitMFC@DV?$ChTraitsCRT@D@ATL@@@@@ATL@@QAEAAV01@PBD@Z ENDP ; ATL::CStringT<char,StrTraitMFC<char,ATL::ChTraitsCRT<char> > >::operator+=
_TEXT	ENDS
PUBLIC	??0?$CStringT@DV?$StrTraitMFC@DV?$ChTraitsCRT@D@ATL@@@@@ATL@@QAE@PBD@Z ; ATL::CStringT<char,StrTraitMFC<char,ATL::ChTraitsCRT<char> > >::CStringT<char,StrTraitMFC<char,ATL::ChTraitsCRT<char> > >
EXTRN	__except_list:DWORD
EXTRN	___CxxFrameHandler:NEAR
;	COMDAT xdata$x
; File c:\program files\microsoft visual studio .net 2003\vc7\atlmfc\include\atlsimpstr.h
xdata$x	SEGMENT
$T260262 DD	0ffffffffH
	DD	FLAT:$L260178
$T260255 DD	019930520H
	DD	01H
	DD	FLAT:$T260262
	DD	2 DUP(00H)
	DD	2 DUP(00H)
; Function compile flags: /Ogty
; File c:\program files\microsoft visual studio .net 2003\vc7\atlmfc\include\cstringt.h
xdata$x	ENDS
;	COMDAT ??0?$CStringT@DV?$StrTraitMFC@DV?$ChTraitsCRT@D@ATL@@@@@ATL@@QAE@PBD@Z
_TEXT	SEGMENT
_this$ = -16						; size = 4
__$EHRec$ = -12						; size = 12
_pszSrc$ = 8						; size = 4
??0?$CStringT@DV?$StrTraitMFC@DV?$ChTraitsCRT@D@ATL@@@@@ATL@@QAE@PBD@Z PROC NEAR ; ATL::CStringT<char,StrTraitMFC<char,ATL::ChTraitsCRT<char> > >::CStringT<char,StrTraitMFC<char,ATL::ChTraitsCRT<char> > >, COMDAT
; _this$ = ecx

; 830  : 	{

  00000	6a ff		 push	 -1
  00002	68 00 00 00 00	 push	 __ehhandler$??0?$CStringT@DV?$StrTraitMFC@DV?$ChTraitsCRT@D@ATL@@@@@ATL@@QAE@PBD@Z
  00007	64 a1 00 00 00
	00		 mov	 eax, DWORD PTR fs:__except_list
  0000d	50		 push	 eax
  0000e	64 89 25 00 00
	00 00		 mov	 DWORD PTR fs:__except_list, esp
  00015	51		 push	 ecx
  00016	56		 push	 esi
  00017	8b f1		 mov	 esi, ecx
  00019	57		 push	 edi
  0001a	89 74 24 08	 mov	 DWORD PTR _this$[esp+24], esi
  0001e	e8 00 00 00 00	 call	 ?AfxGetStringManager@@YGPAUIAtlStringMgr@ATL@@XZ ; AfxGetStringManager
  00023	8b 10		 mov	 edx, DWORD PTR [eax]
  00025	8b c8		 mov	 ecx, eax
  00027	ff 52 0c	 call	 DWORD PTR [edx+12]
  0002a	83 c0 10	 add	 eax, 16			; 00000010H
  0002d	89 06		 mov	 DWORD PTR [esi], eax

; 831  : 		if( !CheckImplicitLoad( pszSrc ) )

  0002f	8b 54 24 1c	 mov	 edx, DWORD PTR _pszSrc$[esp+20]
  00033	85 d2		 test	 edx, edx
  00035	c7 44 24 14 00
	00 00 00	 mov	 DWORD PTR __$EHRec$[esp+32], 0
  0003d	74 33		 je	 SHORT $L260257
  0003f	f7 c2 00 00 ff
	ff		 test	 edx, -65536		; ffff0000H
  00045	75 2f		 jne	 SHORT $L260248
  00047	0f b7 fa	 movzx	 edi, dx
  0004a	57		 push	 edi
  0004b	e8 00 00 00 00	 call	 ?AfxFindStringResourceHandle@@YGPAUHINSTANCE__@@I@Z ; AfxFindStringResourceHandle
  00050	85 c0		 test	 eax, eax
  00052	74 3e		 je	 SHORT $L260259
  00054	57		 push	 edi
  00055	50		 push	 eax
  00056	8b ce		 mov	 ecx, esi
  00058	e8 00 00 00 00	 call	 ?LoadStringA@?$CStringT@DV?$StrTraitMFC@DV?$ChTraitsCRT@D@ATL@@@@@ATL@@QAEHPAUHINSTANCE__@@I@Z ; ATL::CStringT<char,StrTraitMFC<char,ATL::ChTraitsCRT<char> > >::LoadStringA
  0005d	5f		 pop	 edi

; 835  : 		}
; 836  : 	}

  0005e	8b c6		 mov	 eax, esi
  00060	5e		 pop	 esi
  00061	8b 4c 24 04	 mov	 ecx, DWORD PTR __$EHRec$[esp+16]
  00065	64 89 0d 00 00
	00 00		 mov	 DWORD PTR fs:__except_list, ecx
  0006c	83 c4 10	 add	 esp, 16			; 00000010H
  0006f	c2 04 00	 ret	 4
$L260257:

; 832  : 		{
; 833  : 			// nDestLength is in XCHARs
; 834  : 			*this = pszSrc;

  00072	33 c0		 xor	 eax, eax
  00074	eb 13		 jmp	 SHORT $L260247
$L260248:
  00076	8b c2		 mov	 eax, edx
  00078	8d 78 01	 lea	 edi, DWORD PTR [eax+1]
  0007b	eb 03 8d 49 00	 npad	 5
$L260258:
  00080	8a 08		 mov	 cl, BYTE PTR [eax]
  00082	40		 inc	 eax
  00083	84 c9		 test	 cl, cl
  00085	75 f9		 jne	 SHORT $L260258
  00087	2b c7		 sub	 eax, edi
$L260247:
  00089	50		 push	 eax
  0008a	52		 push	 edx
  0008b	8b ce		 mov	 ecx, esi
  0008d	e8 00 00 00 00	 call	 ?SetString@?$CSimpleStringT@D$0A@@ATL@@QAEXPBDH@Z ; ATL::CSimpleStringT<char,0>::SetString
$L260259:

; 835  : 		}
; 836  : 	}

  00092	8b 4c 24 0c	 mov	 ecx, DWORD PTR __$EHRec$[esp+24]
  00096	5f		 pop	 edi
  00097	8b c6		 mov	 eax, esi
  00099	5e		 pop	 esi
  0009a	64 89 0d 00 00
	00 00		 mov	 DWORD PTR fs:__except_list, ecx
  000a1	83 c4 10	 add	 esp, 16			; 00000010H
  000a4	c2 04 00	 ret	 4
_TEXT	ENDS
;	COMDAT text$x
text$x	SEGMENT
$L260178:
  00000	8b 4d f0	 mov	 ecx, DWORD PTR _this$[ebp]
  00003	e9 00 00 00 00	 jmp	 ??1?$CSimpleStringT@D$0A@@ATL@@QAE@XZ ; ATL::CSimpleStringT<char,0>::~CSimpleStringT<char,0>
__ehhandler$??0?$CStringT@DV?$StrTraitMFC@DV?$ChTraitsCRT@D@ATL@@@@@ATL@@QAE@PBD@Z:
  00008	b8 00 00 00 00	 mov	 eax, OFFSET FLAT:$T260255
  0000d	e9 00 00 00 00	 jmp	 ___CxxFrameHandler
text$x	ENDS
??0?$CStringT@DV?$StrTraitMFC@DV?$ChTraitsCRT@D@ATL@@@@@ATL@@QAE@PBD@Z ENDP ; ATL::CStringT<char,StrTraitMFC<char,ATL::ChTraitsCRT<char> > >::CStringT<char,StrTraitMFC<char,ATL::ChTraitsCRT<char> > >
PUBLIC	?SetPartyQuest@CPartyQuestProcessor@@QAEXHHHHKK@Z ; CPartyQuestProcessor::SetPartyQuest
PUBLIC	??_C@_0BI@MGKOPPCK@StartPartyQuestInfo?4txt?$AA@ ; `string'
PUBLIC	??_C@_0CF@ECCMBMMP@DATE?5?3?5?$CFd?$CF?42d?$CF?42d?6TIME?5?3?5?$CFd?3?3?$CFd?3@ ; `string'
PUBLIC	??_C@_0CO@DHJCABDL@QUEST?5ID?5?$DN?5?$CFd?0?5PARTY?5ID?5?$DN?5?$CFd?0?5WO@ ; `string'
PUBLIC	??_C@_01EEMJAFIK@?6?$AA@			; `string'
PUBLIC	??_C@_07CEGMOJAH@?$CFs?$CFs?$CFs?6?$AA@		; `string'
EXTRN	?FILEOUT@@YAXPBD0ZZ:NEAR			; FILEOUT
EXTRN	?GetName@CMover@@QAEPBDH@Z:NEAR			; CMover::GetName
;	COMDAT xdata$x
; File c:\program files\microsoft visual studio .net 2003\vc7\atlmfc\include\atlsimpstr.h
xdata$x	SEGMENT
$T260783 DD	0ffffffffH
	DD	FLAT:$L260269
	DD	00H
	DD	FLAT:$L260270
	DD	01H
	DD	FLAT:$L260271
	DD	02H
	DD	FLAT:$L260272
$T260775 DD	019930520H
	DD	04H
	DD	FLAT:$T260783
	DD	2 DUP(00H)
	DD	2 DUP(00H)
xdata$x	ENDS
;	COMDAT ??_C@_0BI@MGKOPPCK@StartPartyQuestInfo?4txt?$AA@
CONST	SEGMENT
??_C@_0BI@MGKOPPCK@StartPartyQuestInfo?4txt?$AA@ DB 'StartPartyQuestInfo.'
	DB	'txt', 00H					; `string'
CONST	ENDS
;	COMDAT ??_C@_0CF@ECCMBMMP@DATE?5?3?5?$CFd?$CF?42d?$CF?42d?6TIME?5?3?5?$CFd?3?3?$CFd?3@
CONST	SEGMENT
??_C@_0CF@ECCMBMMP@DATE?5?3?5?$CFd?$CF?42d?$CF?42d?6TIME?5?3?5?$CFd?3?3?$CFd?3@ DB 'D'
	DB	'ATE : %d%.2d%.2d', 0aH, 'TIME : %d::%d::%d', 0aH, 00H ; `string'
CONST	ENDS
;	COMDAT ??_C@_0CO@DHJCABDL@QUEST?5ID?5?$DN?5?$CFd?0?5PARTY?5ID?5?$DN?5?$CFd?0?5WO@
CONST	SEGMENT
??_C@_0CO@DHJCABDL@QUEST?5ID?5?$DN?5?$CFd?0?5PARTY?5ID?5?$DN?5?$CFd?0?5WO@ DB 'Q'
	DB	'UEST ID = %d, PARTY ID = %d, WORMON ID = %d', 0aH, 00H ; `string'
CONST	ENDS
;	COMDAT ??_C@_01EEMJAFIK@?6?$AA@
CONST	SEGMENT
??_C@_01EEMJAFIK@?6?$AA@ DB 0aH, 00H			; `string'
CONST	ENDS
;	COMDAT ??_C@_07CEGMOJAH@?$CFs?$CFs?$CFs?6?$AA@
CONST	SEGMENT
??_C@_07CEGMOJAH@?$CFs?$CFs?$CFs?6?$AA@ DB '%s%s%s', 0aH, 00H ; `string'
; Function compile flags: /Ogty
; File c:\documents and settings\test\mes documents\source\virtuos_v17\build\program\_common\partyquest.cpp
CONST	ENDS
;	COMDAT ?SetPartyQuest@CPartyQuestProcessor@@QAEXHHHHKK@Z
_TEXT	SEGMENT
_strDateTime$ = -28					; size = 4
_strFileName$ = -24					; size = 4
_time$ = -20						; size = 8
__$EHRec$ = -12						; size = 12
_strMemberName$ = 8					; size = 4
_nQuestId$ = 8						; size = 4
_i$260571 = 12						; size = 4
tv220 = 12						; size = 4
_nState$ = 12						; size = 4
tv272 = 16						; size = 4
_ns$ = 16						; size = 4
_strQuestInfo$ = 20					; size = 4
_nf$ = 20						; size = 4
tv263 = 24						; size = 4
_idParty$ = 24						; size = 4
$T260591 = 28						; size = 4
_objidWormon$ = 28					; size = 4
?SetPartyQuest@CPartyQuestProcessor@@QAEXHHHHKK@Z PROC NEAR ; CPartyQuestProcessor::SetPartyQuest, COMDAT
; _this$ = ecx

; 280  : {

  00000	64 a1 00 00 00
	00		 mov	 eax, DWORD PTR fs:__except_list
  00006	6a ff		 push	 -1
  00008	68 00 00 00 00	 push	 __ehhandler$?SetPartyQuest@CPartyQuestProcessor@@QAEXHHHHKK@Z
  0000d	50		 push	 eax
  0000e	64 89 25 00 00
	00 00		 mov	 DWORD PTR fs:__except_list, esp
  00015	83 ec 10	 sub	 esp, 16			; 00000010H
  00018	53		 push	 ebx

; 281  : 	if( nQuestId >= MAX_PARTY_QUEST )

  00019	8b 5c 24 24	 mov	 ebx, DWORD PTR _nQuestId$[esp+28]
  0001d	81 fb 00 01 00
	00		 cmp	 ebx, 256		; 00000100H
  00023	55		 push	 ebp
  00024	8b e9		 mov	 ebp, ecx

; 282  : 	{
; 283  : 		Error( "" );
; 284  : 		return;

  00026	7d 0f		 jge	 SHORT $L260782

; 285  : 	}
; 286  : 	PARTYQUESTPROP* pProp	= prj.GetPartyQuestProp( nQuestId );

  00028	53		 push	 ebx
  00029	b9 00 00 00 00	 mov	 ecx, OFFSET FLAT:?prj@@3VCProject@@A
  0002e	e8 00 00 00 00	 call	 ?GetPartyQuestProp@CProject@@QAEPAUPARTYQUESTPROP@@H@Z ; CProject::GetPartyQuestProp

; 287  : 	if( !pProp )

  00033	85 c0		 test	 eax, eax
  00035	75 20		 jne	 SHORT $L252763
$L260782:

; 288  : 	{
; 289  : 		Error( "" );

  00037	68 00 00 00 00	 push	 OFFSET FLAT:??_C@_00CNPNBAHC@?$AA@
  0003c	e8 00 00 00 00	 call	 ?Error@@YAPBDPBDZZ	; Error
  00041	83 c4 04	 add	 esp, 4
  00044	5d		 pop	 ebp
  00045	5b		 pop	 ebx

; 334  : 	////////////////////////////////////////////////////////////////////////////////////////////
; 335  : }

  00046	8b 4c 24 10	 mov	 ecx, DWORD PTR __$EHRec$[esp+28]
  0004a	64 89 0d 00 00
	00 00		 mov	 DWORD PTR fs:__except_list, ecx
  00051	83 c4 1c	 add	 esp, 28			; 0000001cH
  00054	c2 18 00	 ret	 24			; 00000018H
$L252763:

; 290  : 		return;
; 291  : 	}
; 292  : 
; 293  : 	TRACE( "SET_PARTY_QUEST, %d, %d, %d\n", nQuestId, idParty, objidWormon );
; 294  : 	PPARTYQUESTELEM	pElem	= &m_pElem[nQuestId];
; 295  : 	pElem->nId	= nQuestId;
; 296  : 	pElem->nState	= nState;

  00057	8b 44 24 2c	 mov	 eax, DWORD PTR _nState$[esp+32]
  0005b	56		 push	 esi
  0005c	8b f3		 mov	 esi, ebx
  0005e	6b f6 1c	 imul	 esi, 28			; 0000001cH
  00061	57		 push	 edi

; 297  : 	pElem->idParty	= idParty;

  00062	8b 7c 24 40	 mov	 edi, DWORD PTR _idParty$[esp+40]
  00066	03 f5		 add	 esi, ebp
  00068	89 1e		 mov	 DWORD PTR [esi], ebx
  0006a	89 46 04	 mov	 DWORD PTR [esi+4], eax
  0006d	89 7e 08	 mov	 DWORD PTR [esi+8], edi

; 298  : 	pElem->dwEndTime	= GetTickCount() + MIN( 60 );

  00070	ff 15 00 00 00
	00		 call	 DWORD PTR __imp__GetTickCount@0

; 299  : 	
; 300  : 	pElem->nProcess		= PQP_WORMON;
; 301  : 	pElem->ns	= ns;

  00076	8a 4c 24 38	 mov	 cl, BYTE PTR _ns$[esp+40]

; 302  : 	pElem->nf	= nf;

  0007a	8a 54 24 3c	 mov	 dl, BYTE PTR _nf$[esp+40]
  0007e	05 80 ee 36 00	 add	 eax, 3600000		; 0036ee80H

; 303  : 	pElem->objidWormon	= objidWormon;
; 304  : 	pElem->nCount	= 0;
; 305  : 
; 306  : 	//   ...
; 307  : 	SendQuestLimitTime( PQP_WORMON, MIN( 60 ), idParty );

  00083	57		 push	 edi
  00084	89 46 0c	 mov	 DWORD PTR [esi+12], eax
  00087	8b 44 24 48	 mov	 eax, DWORD PTR _objidWormon$[esp+44]
  0008b	68 80 ee 36 00	 push	 3600000			; 0036ee80H
  00090	88 4e 11	 mov	 BYTE PTR [esi+17], cl
  00093	6a 01		 push	 1
  00095	8b cd		 mov	 ecx, ebp
  00097	c6 46 10 01	 mov	 BYTE PTR [esi+16], 1
  0009b	88 56 12	 mov	 BYTE PTR [esi+18], dl
  0009e	89 46 14	 mov	 DWORD PTR [esi+20], eax
  000a1	66 c7 46 18 00
	00		 mov	 WORD PTR [esi+24], 0
  000a7	e8 00 00 00 00	 call	 ?SendQuestLimitTime@CPartyQuestProcessor@@QAEXHKK@Z ; CPartyQuestProcessor::SendQuestLimitTime

; 308  : 
; 309  : 	//    .
; 310  : 	CString strFileName = "StartPartyQuestInfo.txt";

  000ac	68 00 00 00 00	 push	 OFFSET FLAT:??_C@_0BI@MGKOPPCK@StartPartyQuestInfo?4txt?$AA@
  000b1	8d 4c 24 18	 lea	 ecx, DWORD PTR _strFileName$[esp+48]
  000b5	e8 00 00 00 00	 call	 ??0?$CStringT@DV?$StrTraitMFC@DV?$ChTraitsCRT@D@ATL@@@@@ATL@@QAE@PBD@Z ; ATL::CStringT<char,StrTraitMFC<char,ATL::ChTraitsCRT<char> > >::CStringT<char,StrTraitMFC<char,ATL::ChTraitsCRT<char> > >
  000ba	33 f6		 xor	 esi, esi
  000bc	89 74 24 28	 mov	 DWORD PTR __$EHRec$[esp+52], esi

; 311  : 	CString strQuestInfo;

  000c0	e8 00 00 00 00	 call	 ?AfxGetStringManager@@YGPAUIAtlStringMgr@ATL@@XZ ; AfxGetStringManager
  000c5	8b 10		 mov	 edx, DWORD PTR [eax]
  000c7	8b c8		 mov	 ecx, eax
  000c9	ff 52 0c	 call	 DWORD PTR [edx+12]
  000cc	83 c0 10	 add	 eax, 16			; 00000010H
  000cf	89 44 24 3c	 mov	 DWORD PTR _strQuestInfo$[esp+40], eax
  000d3	c6 44 24 28 01	 mov	 BYTE PTR __$EHRec$[esp+52], 1

; 312  : 	CString strMemberName;

  000d8	e8 00 00 00 00	 call	 ?AfxGetStringManager@@YGPAUIAtlStringMgr@ATL@@XZ ; AfxGetStringManager
  000dd	8b 10		 mov	 edx, DWORD PTR [eax]
  000df	8b c8		 mov	 ecx, eax
  000e1	ff 52 0c	 call	 DWORD PTR [edx+12]
  000e4	83 c0 10	 add	 eax, 16			; 00000010H
  000e7	89 44 24 30	 mov	 DWORD PTR _strMemberName$[esp+40], eax
  000eb	c6 44 24 28 02	 mov	 BYTE PTR __$EHRec$[esp+52], 2

; 313  : 	CString strDateTime;

  000f0	e8 00 00 00 00	 call	 ?AfxGetStringManager@@YGPAUIAtlStringMgr@ATL@@XZ ; AfxGetStringManager
  000f5	8b 10		 mov	 edx, DWORD PTR [eax]
  000f7	8b c8		 mov	 ecx, eax
  000f9	ff 52 0c	 call	 DWORD PTR [edx+12]
  000fc	83 c0 10	 add	 eax, 16			; 00000010H
  000ff	89 44 24 10	 mov	 DWORD PTR _strDateTime$[esp+44], eax

; 314  : 	
; 315  : 	CTime time = CTime::GetCurrentTime();

  00103	56		 push	 esi
  00104	c6 44 24 2c 03	 mov	 BYTE PTR __$EHRec$[esp+56], 3
  00109	e8 00 00 00 00	 call	 __time64
  0010e	89 44 24 1c	 mov	 DWORD PTR _time$[esp+48], eax

; 316  : 	strDateTime.Format( "DATE : %d%.2d%.2d\nTIME : %d::%d::%d\n", time.GetYear(), time.GetMonth(), time.GetDay(), time.GetHour(), time.GetMinute(), time.GetSecond() );

  00112	8d 44 24 1c	 lea	 eax, DWORD PTR _time$[esp+48]
  00116	50		 push	 eax
  00117	89 54 24 24	 mov	 DWORD PTR _time$[esp+56], edx
  0011b	e8 00 00 00 00	 call	 __localtime64
  00120	83 c4 08	 add	 esp, 8
  00123	83 cd ff	 or	 ebp, -1
  00126	3b c6		 cmp	 eax, esi
  00128	74 08		 je	 SHORT $L260390
  0012a	8b 08		 mov	 ecx, DWORD PTR [eax]
  0012c	89 4c 24 34	 mov	 DWORD PTR tv220[esp+40], ecx
  00130	eb 04		 jmp	 SHORT $L260391
$L260390:
  00132	89 6c 24 34	 mov	 DWORD PTR tv220[esp+40], ebp
$L260391:
  00136	8d 54 24 18	 lea	 edx, DWORD PTR _time$[esp+44]
  0013a	52		 push	 edx
  0013b	e8 00 00 00 00	 call	 __localtime64
  00140	83 c4 04	 add	 esp, 4
  00143	3b c6		 cmp	 eax, esi
  00145	74 09		 je	 SHORT $L260412
  00147	8b 40 04	 mov	 eax, DWORD PTR [eax+4]
  0014a	89 44 24 40	 mov	 DWORD PTR tv263[esp+40], eax
  0014e	eb 04		 jmp	 SHORT $L260413
$L260412:
  00150	89 6c 24 40	 mov	 DWORD PTR tv263[esp+40], ebp
$L260413:
  00154	8d 4c 24 18	 lea	 ecx, DWORD PTR _time$[esp+44]
  00158	51		 push	 ecx
  00159	e8 00 00 00 00	 call	 __localtime64
  0015e	83 c4 04	 add	 esp, 4
  00161	3b c6		 cmp	 eax, esi
  00163	74 09		 je	 SHORT $L260434
  00165	8b 50 08	 mov	 edx, DWORD PTR [eax+8]
  00168	89 54 24 38	 mov	 DWORD PTR tv272[esp+40], edx
  0016c	eb 04		 jmp	 SHORT $L260435
$L260434:
  0016e	89 6c 24 38	 mov	 DWORD PTR tv272[esp+40], ebp
$L260435:
  00172	8d 44 24 18	 lea	 eax, DWORD PTR _time$[esp+44]
  00176	50		 push	 eax
  00177	e8 00 00 00 00	 call	 __localtime64
  0017c	83 c4 04	 add	 esp, 4
  0017f	3b c6		 cmp	 eax, esi
  00181	74 05		 je	 SHORT $L260456
  00183	8b 68 0c	 mov	 ebp, DWORD PTR [eax+12]
  00186	eb 02		 jmp	 SHORT $L260457
$L260456:
  00188	33 ed		 xor	 ebp, ebp
$L260457:
  0018a	8d 4c 24 18	 lea	 ecx, DWORD PTR _time$[esp+44]
  0018e	51		 push	 ecx
  0018f	e8 00 00 00 00	 call	 __localtime64
  00194	83 c4 04	 add	 esp, 4
  00197	3b c6		 cmp	 eax, esi
  00199	74 04		 je	 SHORT $L260479
  0019b	8b 70 10	 mov	 esi, DWORD PTR [eax+16]
  0019e	46		 inc	 esi
$L260479:
  0019f	8d 54 24 18	 lea	 edx, DWORD PTR _time$[esp+44]
  001a3	52		 push	 edx
  001a4	e8 00 00 00 00	 call	 __localtime64
  001a9	83 c4 04	 add	 esp, 4
  001ac	85 c0		 test	 eax, eax
  001ae	74 0a		 je	 SHORT $L260500
  001b0	8b 40 14	 mov	 eax, DWORD PTR [eax+20]
  001b3	05 6c 07 00 00	 add	 eax, 1900		; 0000076cH
  001b8	eb 02		 jmp	 SHORT $L260501
$L260500:
  001ba	33 c0		 xor	 eax, eax
$L260501:
  001bc	8b 4c 24 34	 mov	 ecx, DWORD PTR tv220[esp+40]
  001c0	8b 54 24 40	 mov	 edx, DWORD PTR tv263[esp+40]
  001c4	51		 push	 ecx
  001c5	8b 4c 24 3c	 mov	 ecx, DWORD PTR tv272[esp+44]
  001c9	52		 push	 edx
  001ca	51		 push	 ecx
  001cb	55		 push	 ebp
  001cc	56		 push	 esi
  001cd	50		 push	 eax
  001ce	8d 54 24 28	 lea	 edx, DWORD PTR _strDateTime$[esp+68]
  001d2	68 00 00 00 00	 push	 OFFSET FLAT:??_C@_0CF@ECCMBMMP@DATE?5?3?5?$CFd?$CF?42d?$CF?42d?6TIME?5?3?5?$CFd?3?3?$CFd?3@
  001d7	52		 push	 edx
  001d8	e8 00 00 00 00	 call	 ?Format@?$CStringT@DV?$StrTraitMFC@DV?$ChTraitsCRT@D@ATL@@@@@ATL@@QAAXPBDZZ ; ATL::CStringT<char,StrTraitMFC<char,ATL::ChTraitsCRT<char> > >::Format

; 317  : 	strQuestInfo.Format( "QUEST ID = %d, PARTY ID = %d, WORMON ID = %d\n", nQuestId, idParty, objidWormon );

  001dd	8b 44 24 64	 mov	 eax, DWORD PTR _objidWormon$[esp+72]
  001e1	50		 push	 eax
  001e2	57		 push	 edi
  001e3	53		 push	 ebx
  001e4	8d 4c 24 68	 lea	 ecx, DWORD PTR _strQuestInfo$[esp+84]
  001e8	68 00 00 00 00	 push	 OFFSET FLAT:??_C@_0CO@DHJCABDL@QUEST?5ID?5?$DN?5?$CFd?0?5PARTY?5ID?5?$DN?5?$CFd?0?5WO@
  001ed	51		 push	 ecx
  001ee	e8 00 00 00 00	 call	 ?Format@?$CStringT@DV?$StrTraitMFC@DV?$ChTraitsCRT@D@ATL@@@@@ATL@@QAAXPBDZZ ; ATL::CStringT<char,StrTraitMFC<char,ATL::ChTraitsCRT<char> > >::Format
  001f3	83 c4 34	 add	 esp, 52			; 00000034H

; 318  : 	
; 319  : 	CParty* pParty	= g_PartyMng.GetParty( idParty );

  001f6	57		 push	 edi
  001f7	b9 00 00 00 00	 mov	 ecx, OFFSET FLAT:?g_PartyMng@@3VCPartyMng@@A
  001fc	e8 00 00 00 00	 call	 ?GetParty@CPartyMng@@QAEPAVCParty@@K@Z ; CPartyMng::GetParty
  00201	8b f8		 mov	 edi, eax

; 320  : 	if( pParty )

  00203	85 ff		 test	 edi, edi
  00205	0f 84 8e 00 00
	00		 je	 $L252781

; 321  : 	{
; 322  : 		for( int i = 0 ; i < pParty->GetSizeofMember() ; ++i )

  0020b	8b 87 cc 01 00
	00		 mov	 eax, DWORD PTR [edi+460]
  00211	33 ed		 xor	 ebp, ebp
  00213	85 c0		 test	 eax, eax
  00215	0f 8e 7e 00 00
	00		 jle	 $L252781
  0021b	8d 5f 28	 lea	 ebx, DWORD PTR [edi+40]
  0021e	8b ff		 npad	 2
$L260780:

; 323  : 		{
; 324  : 			CUser* pUsertmp = (CUser *)prj.GetUserByID( pParty->GetPlayerId( i ) );

  00220	8b 13		 mov	 edx, DWORD PTR [ebx]
  00222	8d 44 24 44	 lea	 eax, DWORD PTR $T260591[esp+40]
  00226	50		 push	 eax
  00227	8d 4c 24 38	 lea	 ecx, DWORD PTR _i$260571[esp+44]
  0022b	51		 push	 ecx
  0022c	b9 38 00 00 00	 mov	 ecx, OFFSET FLAT:?prj@@3VCProject@@A+56
  00231	89 54 24 4c	 mov	 DWORD PTR $T260591[esp+48], edx
  00235	e8 00 00 00 00	 call	 ?find@?$_Tree@V?$_Tmap_traits@KPAVCMover@@U?$less@K@std@@V?$allocator@U?$pair@$$CBKPAVCMover@@@std@@@3@$0A@@std@@@std@@QAE?AViterator@12@ABK@Z ; std::_Tree<std::_Tmap_traits<unsigned long,CMover *,std::less<unsigned long>,std::allocator<std::pair<unsigned long const ,CMover *> >,0> >::find
  0023a	8b 44 24 34	 mov	 eax, DWORD PTR _i$260571[esp+40]
  0023e	3b 05 3c 00 00
	00		 cmp	 eax, DWORD PTR ?prj@@3VCProject@@A+60
  00244	74 45		 je	 SHORT $L252780
  00246	8b 48 10	 mov	 ecx, DWORD PTR [eax+16]

; 325  : 			if( IsValidObj( pUsertmp ) )

  00249	85 c9		 test	 ecx, ecx
  0024b	74 3e		 je	 SHORT $L252780
  0024d	f6 41 04 01	 test	 BYTE PTR [ecx+4], 1
  00251	75 38		 jne	 SHORT $L252780

; 326  : 			{
; 327  : 				strMemberName += pUsertmp->GetName();

  00253	6a 00		 push	 0
  00255	e8 00 00 00 00	 call	 ?GetName@CMover@@QAEPBDH@Z ; CMover::GetName
  0025a	85 c0		 test	 eax, eax
  0025c	75 04		 jne	 SHORT $L260630
  0025e	33 c9		 xor	 ecx, ecx
  00260	eb 0e		 jmp	 SHORT $L260629
$L260630:
  00262	8b c8		 mov	 ecx, eax
  00264	8d 71 01	 lea	 esi, DWORD PTR [ecx+1]
$L260779:
  00267	8a 11		 mov	 dl, BYTE PTR [ecx]
  00269	41		 inc	 ecx
  0026a	84 d2		 test	 dl, dl
  0026c	75 f9		 jne	 SHORT $L260779
  0026e	2b ce		 sub	 ecx, esi
$L260629:
  00270	51		 push	 ecx
  00271	50		 push	 eax
  00272	8d 4c 24 38	 lea	 ecx, DWORD PTR _strMemberName$[esp+48]
  00276	e8 00 00 00 00	 call	 ?Append@?$CSimpleStringT@D$0A@@ATL@@QAEXPBDH@Z ; ATL::CSimpleStringT<char,0>::Append

; 328  : 				strMemberName += "\n";

  0027b	6a 01		 push	 1
  0027d	68 00 00 00 00	 push	 OFFSET FLAT:??_C@_01EEMJAFIK@?6?$AA@
  00282	8d 4c 24 38	 lea	 ecx, DWORD PTR _strMemberName$[esp+48]
  00286	e8 00 00 00 00	 call	 ?Append@?$CSimpleStringT@D$0A@@ATL@@QAEXPBDH@Z ; ATL::CSimpleStringT<char,0>::Append
$L252780:
  0028b	8b 87 cc 01 00
	00		 mov	 eax, DWORD PTR [edi+460]
  00291	45		 inc	 ebp
  00292	83 c3 1c	 add	 ebx, 28			; 0000001cH
  00295	3b e8		 cmp	 ebp, eax
  00297	7c 87		 jl	 SHORT $L260780
$L252781:

; 329  : 			}
; 330  : 		}
; 331  : 	}
; 332  : 
; 333  : 	FILEOUT( strFileName, "%s%s%s\n", strDateTime, strQuestInfo, strMemberName );

  00299	8b 7c 24 30	 mov	 edi, DWORD PTR _strMemberName$[esp+40]
  0029d	8b 5c 24 3c	 mov	 ebx, DWORD PTR _strQuestInfo$[esp+40]
  002a1	8b 74 24 10	 mov	 esi, DWORD PTR _strDateTime$[esp+44]
  002a5	8b 54 24 14	 mov	 edx, DWORD PTR _strFileName$[esp+44]
  002a9	57		 push	 edi
  002aa	53		 push	 ebx
  002ab	56		 push	 esi
  002ac	68 00 00 00 00	 push	 OFFSET FLAT:??_C@_07CEGMOJAH@?$CFs?$CFs?$CFs?6?$AA@
  002b1	52		 push	 edx
  002b2	e8 00 00 00 00	 call	 ?FILEOUT@@YAXPBD0ZZ	; FILEOUT

; 334  : 	////////////////////////////////////////////////////////////////////////////////////////////
; 335  : }

  002b7	8d 46 f0	 lea	 eax, DWORD PTR [esi-16]
  002ba	83 c4 14	 add	 esp, 20			; 00000014H
  002bd	c6 44 24 28 02	 mov	 BYTE PTR __$EHRec$[esp+52], 2
  002c2	8d 48 0c	 lea	 ecx, DWORD PTR [eax+12]
  002c5	83 ca ff	 or	 edx, -1
  002c8	f0 0f c1 11	 lock	  xadd	 DWORD PTR [ecx], edx
  002cc	4a		 dec	 edx
  002cd	85 d2		 test	 edx, edx
  002cf	7f 08		 jg	 SHORT $L260690
  002d1	8b 08		 mov	 ecx, DWORD PTR [eax]
  002d3	8b 11		 mov	 edx, DWORD PTR [ecx]
  002d5	50		 push	 eax
  002d6	ff 52 04	 call	 DWORD PTR [edx+4]
$L260690:
  002d9	8d 47 f0	 lea	 eax, DWORD PTR [edi-16]
  002dc	c6 44 24 28 01	 mov	 BYTE PTR __$EHRec$[esp+52], 1
  002e1	8d 48 0c	 lea	 ecx, DWORD PTR [eax+12]
  002e4	83 ca ff	 or	 edx, -1
  002e7	f0 0f c1 11	 lock	  xadd	 DWORD PTR [ecx], edx
  002eb	4a		 dec	 edx
  002ec	85 d2		 test	 edx, edx
  002ee	5f		 pop	 edi
  002ef	5e		 pop	 esi
  002f0	7f 08		 jg	 SHORT $L260717
  002f2	8b 08		 mov	 ecx, DWORD PTR [eax]
  002f4	8b 11		 mov	 edx, DWORD PTR [ecx]
  002f6	50		 push	 eax
  002f7	ff 52 04	 call	 DWORD PTR [edx+4]
$L260717:
  002fa	8d 43 f0	 lea	 eax, DWORD PTR [ebx-16]
  002fd	c6 44 24 20 00	 mov	 BYTE PTR __$EHRec$[esp+44], 0
  00302	8d 48 0c	 lea	 ecx, DWORD PTR [eax+12]
  00305	83 ca ff	 or	 edx, -1
  00308	f0 0f c1 11	 lock	  xadd	 DWORD PTR [ecx], edx
  0030c	4a		 dec	 edx
  0030d	85 d2		 test	 edx, edx
  0030f	7f 08		 jg	 SHORT $L260744
  00311	8b 08		 mov	 ecx, DWORD PTR [eax]
  00313	8b 11		 mov	 edx, DWORD PTR [ecx]
  00315	50		 push	 eax
  00316	ff 52 04	 call	 DWORD PTR [edx+4]
$L260744:
  00319	8b 44 24 0c	 mov	 eax, DWORD PTR _strFileName$[esp+36]
  0031d	83 c0 f0	 add	 eax, -16		; fffffff0H
  00320	c7 44 24 20 ff
	ff ff ff	 mov	 DWORD PTR __$EHRec$[esp+44], -1
  00328	8d 48 0c	 lea	 ecx, DWORD PTR [eax+12]
  0032b	83 ca ff	 or	 edx, -1
  0032e	f0 0f c1 11	 lock	  xadd	 DWORD PTR [ecx], edx
  00332	4a		 dec	 edx
  00333	85 d2		 test	 edx, edx
  00335	7f 08		 jg	 SHORT $L260771
  00337	8b 08		 mov	 ecx, DWORD PTR [eax]
  00339	8b 11		 mov	 edx, DWORD PTR [ecx]
  0033b	50		 push	 eax
  0033c	ff 52 04	 call	 DWORD PTR [edx+4]
$L260771:
  0033f	8b 4c 24 18	 mov	 ecx, DWORD PTR __$EHRec$[esp+36]
  00343	5d		 pop	 ebp
  00344	5b		 pop	 ebx
  00345	64 89 0d 00 00
	00 00		 mov	 DWORD PTR fs:__except_list, ecx
  0034c	83 c4 1c	 add	 esp, 28			; 0000001cH
  0034f	c2 18 00	 ret	 24			; 00000018H
_TEXT	ENDS
;	COMDAT text$x
text$x	SEGMENT
$L260269:
  00000	8d 4d e8	 lea	 ecx, DWORD PTR _strFileName$[ebp]
  00003	e9 00 00 00 00	 jmp	 ??1?$CStringT@DV?$StrTraitMFC@DV?$ChTraitsCRT@D@ATL@@@@@ATL@@QAE@XZ ; ATL::CStringT<char,StrTraitMFC<char,ATL::ChTraitsCRT<char> > >::~CStringT<char,StrTraitMFC<char,ATL::ChTraitsCRT<char> > >
$L260270:
  00008	8d 4d 10	 lea	 ecx, DWORD PTR _strQuestInfo$[ebp-4]
  0000b	e9 00 00 00 00	 jmp	 ??1?$CStringT@DV?$StrTraitMFC@DV?$ChTraitsCRT@D@ATL@@@@@ATL@@QAE@XZ ; ATL::CStringT<char,StrTraitMFC<char,ATL::ChTraitsCRT<char> > >::~CStringT<char,StrTraitMFC<char,ATL::ChTraitsCRT<char> > >
$L260271:
  00010	8d 4d 04	 lea	 ecx, DWORD PTR _strMemberName$[ebp-4]
  00013	e9 00 00 00 00	 jmp	 ??1?$CStringT@DV?$StrTraitMFC@DV?$ChTraitsCRT@D@ATL@@@@@ATL@@QAE@XZ ; ATL::CStringT<char,StrTraitMFC<char,ATL::ChTraitsCRT<char> > >::~CStringT<char,StrTraitMFC<char,ATL::ChTraitsCRT<char> > >
$L260272:
  00018	8d 4d e4	 lea	 ecx, DWORD PTR _strDateTime$[ebp]
  0001b	e9 00 00 00 00	 jmp	 ??1?$CStringT@DV?$StrTraitMFC@DV?$ChTraitsCRT@D@ATL@@@@@ATL@@QAE@XZ ; ATL::CStringT<char,StrTraitMFC<char,ATL::ChTraitsCRT<char> > >::~CStringT<char,StrTraitMFC<char,ATL::ChTraitsCRT<char> > >
__ehhandler$?SetPartyQuest@CPartyQuestProcessor@@QAEXHHHHKK@Z:
  00020	b8 00 00 00 00	 mov	 eax, OFFSET FLAT:$T260775
  00025	e9 00 00 00 00	 jmp	 ___CxxFrameHandler
text$x	ENDS
?SetPartyQuest@CPartyQuestProcessor@@QAEXHHHHKK@Z ENDP	; CPartyQuestProcessor::SetPartyQuest
; Function compile flags: /Ogty
;	COMDAT _$E2
text$yd	SEGMENT
_$E2	PROC NEAR					; COMDAT
  00000	c3		 ret	 0
_$E2	ENDP
text$yd	ENDS
END
